<?xml version="1.0" encoding="UTF-8"?>
<LIBRARY NAME="uxlib.dll" PATH="/DLLArchive/windows10LTSCX86_64/uxlib.dll" DATE="Wed Oct 06 06:52:39 PDT 2021" VERSION="10.0.19041.572 (WinBuild.160101.0800)">
    <EXPORT ORDINAL="1" NAME="??0?$CSimpleArray@PAU_BLOCKED_REASON@@V?$CSimpleArrayEqualHelper@PAU_BLOCKED_REASON@@@ATL@@@ATL@@QAE@ABV01@@Z" PURGE="4" COMMENT="" />
    <EXPORT ORDINAL="2" NAME="??0?$CSimpleArray@PAU_BLOCKED_REASON@@V?$CSimpleArrayEqualHelper@PAU_BLOCKED_REASON@@@ATL@@@ATL@@QAE@XZ" PURGE="0" COMMENT="" />
    <EXPORT ORDINAL="3" NAME="??0?$CSimpleArray@PAVCLocale@@V?$CSimpleArrayEqualHelper@PAVCLocale@@@ATL@@@ATL@@QAE@ABV01@@Z" PURGE="4" COMMENT="" />
    <EXPORT ORDINAL="4" NAME="??0?$CSimpleArray@PAVCLocale@@V?$CSimpleArrayEqualHelper@PAVCLocale@@@ATL@@@ATL@@QAE@XZ" PURGE="0" COMMENT="" />
    <EXPORT ORDINAL="5" NAME="??0?$CSimpleArray@VCDriverItem@@V?$CSimpleArrayEqualHelper@VCDriverItem@@@ATL@@@ATL@@QAE@ABV01@@Z" PURGE="4" COMMENT="" />
    <EXPORT ORDINAL="6" NAME="??0?$CSimpleArray@VCDriverItem@@V?$CSimpleArrayEqualHelper@VCDriverItem@@@ATL@@@ATL@@QAE@XZ" PURGE="0" COMMENT="" />
    <EXPORT ORDINAL="7" NAME="??0?$CSimpleArray@VCLanguageItem@@V?$CSimpleArrayEqualHelper@VCLanguageItem@@@ATL@@@ATL@@QAE@ABV01@@Z" PURGE="4" COMMENT="" />
    <EXPORT ORDINAL="8" NAME="??0?$CSimpleArray@VCLanguageItem@@V?$CSimpleArrayEqualHelper@VCLanguageItem@@@ATL@@@ATL@@QAE@XZ" PURGE="0" COMMENT="" />
    <EXPORT ORDINAL="9" NAME="??0?$CSimpleStringT@G$0A@@ATL@@QAE@ABV01@@Z" PURGE="4" COMMENT="" />
    <EXPORT ORDINAL="10" NAME="??0?$CSimpleStringT@G$0A@@ATL@@QAE@ABV?$CSimpleStringT@G$00@1@@Z" PURGE="4" COMMENT="" />
    <EXPORT ORDINAL="11" NAME="??0?$CSimpleStringT@G$0A@@ATL@@QAE@PAUIAtlStringMgr@1@@Z" PURGE="4" COMMENT="" />
    <EXPORT ORDINAL="12" NAME="??0?$CSimpleStringT@G$0A@@ATL@@QAE@PBGHPAUIAtlStringMgr@1@@Z" PURGE="12" COMMENT="" />
    <EXPORT ORDINAL="13" NAME="??0?$CSimpleStringT@G$0A@@ATL@@QAE@PBGPAUIAtlStringMgr@1@@Z" PURGE="8" COMMENT="" />
    <EXPORT ORDINAL="14" NAME="??0?$CStringT@GV?$StrTraitATL@GV?$ChTraitsCRT@G@ATL@@@ATL@@@ATL@@QAE@ABUtagVARIANT@@@Z" PURGE="4" COMMENT="" />
    <EXPORT ORDINAL="15" NAME="??0?$CStringT@GV?$StrTraitATL@GV?$ChTraitsCRT@G@ATL@@@ATL@@@ATL@@QAE@ABUtagVARIANT@@PAUIAtlStringMgr@1@@Z" PURGE="8" COMMENT="" />
    <EXPORT ORDINAL="16" NAME="??0?$CStringT@GV?$StrTraitATL@GV?$ChTraitsCRT@G@ATL@@@ATL@@@ATL@@QAE@ABV01@@Z" PURGE="4" COMMENT="" />
    <EXPORT ORDINAL="17" NAME="??0?$CStringT@GV?$StrTraitATL@GV?$ChTraitsCRT@G@ATL@@@ATL@@@ATL@@QAE@DH@Z" PURGE="8" COMMENT="" />
    <EXPORT ORDINAL="18" NAME="??0?$CStringT@GV?$StrTraitATL@GV?$ChTraitsCRT@G@ATL@@@ATL@@@ATL@@QAE@GH@Z" PURGE="8" COMMENT="" />
    <EXPORT ORDINAL="19" NAME="??0?$CStringT@GV?$StrTraitATL@GV?$ChTraitsCRT@G@ATL@@@ATL@@@ATL@@QAE@PAUIAtlStringMgr@1@@Z" PURGE="4" COMMENT="" />
    <EXPORT ORDINAL="20" NAME="??0?$CStringT@GV?$StrTraitATL@GV?$ChTraitsCRT@G@ATL@@@ATL@@@ATL@@QAE@PBD@Z" PURGE="4" COMMENT="" />
    <EXPORT ORDINAL="21" NAME="??0?$CStringT@GV?$StrTraitATL@GV?$ChTraitsCRT@G@ATL@@@ATL@@@ATL@@QAE@PBDH@Z" PURGE="8" COMMENT="" />
    <EXPORT ORDINAL="22" NAME="??0?$CStringT@GV?$StrTraitATL@GV?$ChTraitsCRT@G@ATL@@@ATL@@@ATL@@QAE@PBDHPAUIAtlStringMgr@1@@Z" PURGE="12" COMMENT="" />
    <EXPORT ORDINAL="23" NAME="??0?$CStringT@GV?$StrTraitATL@GV?$ChTraitsCRT@G@ATL@@@ATL@@@ATL@@QAE@PBDPAUIAtlStringMgr@1@@Z" PURGE="8" COMMENT="" />
    <EXPORT ORDINAL="24" NAME="??0?$CStringT@GV?$StrTraitATL@GV?$ChTraitsCRT@G@ATL@@@ATL@@@ATL@@QAE@PBE@Z" PURGE="4" COMMENT="" />
    <EXPORT ORDINAL="25" NAME="??0?$CStringT@GV?$StrTraitATL@GV?$ChTraitsCRT@G@ATL@@@ATL@@@ATL@@QAE@PBEPAUIAtlStringMgr@1@@Z" PURGE="8" COMMENT="" />
    <EXPORT ORDINAL="26" NAME="??0?$CStringT@GV?$StrTraitATL@GV?$ChTraitsCRT@G@ATL@@@ATL@@@ATL@@QAE@PBG@Z" PURGE="4" COMMENT="" />
    <EXPORT ORDINAL="27" NAME="??0?$CStringT@GV?$StrTraitATL@GV?$ChTraitsCRT@G@ATL@@@ATL@@@ATL@@QAE@PBGH@Z" PURGE="8" COMMENT="" />
    <EXPORT ORDINAL="28" NAME="??0?$CStringT@GV?$StrTraitATL@GV?$ChTraitsCRT@G@ATL@@@ATL@@@ATL@@QAE@PBGHPAUIAtlStringMgr@1@@Z" PURGE="12" COMMENT="" />
    <EXPORT ORDINAL="29" NAME="??0?$CStringT@GV?$StrTraitATL@GV?$ChTraitsCRT@G@ATL@@@ATL@@@ATL@@QAE@PBGPAUIAtlStringMgr@1@@Z" PURGE="8" COMMENT="" />
    <EXPORT ORDINAL="30" NAME="??0?$CStringT@GV?$StrTraitATL@GV?$ChTraitsCRT@G@ATL@@@ATL@@@ATL@@QAE@XZ" PURGE="0" COMMENT="" />
    <EXPORT ORDINAL="31" NAME="??0CImageData@@AAE@XZ" PURGE="0" COMMENT="" />
    <EXPORT ORDINAL="32" NAME="??0CImageData@@QAE@ABV0@@Z" PURGE="4" COMMENT="" />
    <EXPORT ORDINAL="33" NAME="??0CInternationalUtils@@QAE@XZ" PURGE="0" COMMENT="" />
    <EXPORT ORDINAL="34" NAME="??0CKeyboardLayout@@QAE@ABV0@@Z" PURGE="4" COMMENT="" />
    <EXPORT ORDINAL="35" NAME="??0CKeyboardLayout@@QAE@V?$CStringT@GV?$StrTraitATL@GV?$ChTraitsCRT@G@ATL@@@ATL@@@ATL@@0@Z" PURGE="8" COMMENT="" />
    <EXPORT ORDINAL="36" NAME="??0CKeyboardLayouts@@QAE@ABV0@@Z" PURGE="4" COMMENT="" />
    <EXPORT ORDINAL="37" NAME="??0CKeyboardLayouts@@QAE@XZ" PURGE="0" COMMENT="" />
    <EXPORT ORDINAL="38" NAME="??0CLanguage@@QAE@ABV0@@Z" PURGE="4" COMMENT="" />
    <EXPORT ORDINAL="39" NAME="??0CLanguage@@QAE@V?$CStringT@GV?$StrTraitATL@GV?$ChTraitsCRT@G@ATL@@@ATL@@@ATL@@000@Z" PURGE="16" COMMENT="" />
    <EXPORT ORDINAL="40" NAME="??0CLanguages@@QAE@ABV0@@Z" PURGE="4" COMMENT="" />
    <EXPORT ORDINAL="41" NAME="??0CLanguages@@QAE@XZ" PURGE="0" COMMENT="" />
    <EXPORT ORDINAL="42" NAME="??0CLayeredDriver@@QAE@ABV0@@Z" PURGE="4" COMMENT="" />
    <EXPORT ORDINAL="43" NAME="??0CLayeredDriver@@QAE@V?$CStringT@GV?$StrTraitATL@GV?$ChTraitsCRT@G@ATL@@@ATL@@@ATL@@0@Z" PURGE="8" COMMENT="" />
    <EXPORT ORDINAL="44" NAME="??0CLayeredDrivers@@QAE@ABV0@@Z" PURGE="4" COMMENT="" />
    <EXPORT ORDINAL="45" NAME="??0CLayeredDrivers@@QAE@XZ" PURGE="0" COMMENT="" />
    <EXPORT ORDINAL="46" NAME="??0CLoadDriver@@AAE@XZ" PURGE="0" COMMENT="" />
    <EXPORT ORDINAL="47" NAME="??0CLoadDriver@@QAE@ABV0@@Z" PURGE="4" COMMENT="" />
    <EXPORT ORDINAL="48" NAME="??0CLocale@@QAE@ABV0@@Z" PURGE="4" COMMENT="" />
    <EXPORT ORDINAL="49" NAME="??0CLocale@@QAE@V?$CStringT@GV?$StrTraitATL@GV?$ChTraitsCRT@G@ATL@@@ATL@@@ATL@@0@Z" PURGE="8" COMMENT="" />
    <EXPORT ORDINAL="50" NAME="??0CLocales@@QAE@ABV0@@Z" PURGE="4" COMMENT="" />
    <EXPORT ORDINAL="51" NAME="??0CLocales@@QAE@XZ" PURGE="0" COMMENT="" />
    <EXPORT ORDINAL="52" NAME="??0COSK@@QAE@XZ" PURGE="0" COMMENT="" />
    <EXPORT ORDINAL="53" NAME="??0CProductKeyModule@@QAE@ABV0@@Z" PURGE="4" COMMENT="" />
    <EXPORT ORDINAL="54" NAME="??0CProductKeyModule@@QAE@XZ" PURGE="0" COMMENT="" />
    <EXPORT ORDINAL="55" NAME="??0IImageData@@QAE@$$QAV0@@Z" PURGE="4" COMMENT="" />
    <EXPORT ORDINAL="56" NAME="??0IImageData@@QAE@ABV0@@Z" PURGE="4" COMMENT="" />
    <EXPORT ORDINAL="57" NAME="??0IImageData@@QAE@XZ" PURGE="0" COMMENT="" />
    <EXPORT ORDINAL="58" NAME="??0IProductKeyModule@@QAE@$$QAV0@@Z" PURGE="4" COMMENT="" />
    <EXPORT ORDINAL="59" NAME="??0IProductKeyModule@@QAE@ABV0@@Z" PURGE="4" COMMENT="" />
    <EXPORT ORDINAL="60" NAME="??0IProductKeyModule@@QAE@XZ" PURGE="0" COMMENT="" />
    <EXPORT ORDINAL="61" NAME="??0MyUtilString@@QAE@XZ" PURGE="0" COMMENT="" />
    <EXPORT ORDINAL="62" NAME="??0PIDUtilStringView@@QAE@ABV0@@Z" PURGE="4" COMMENT="" />
    <EXPORT ORDINAL="63" NAME="??0PIDUtilStringView@@QAE@XZ" PURGE="0" COMMENT="" />
    <EXPORT ORDINAL="64" NAME="??1?$CSimpleArray@PAU_BLOCKED_REASON@@V?$CSimpleArrayEqualHelper@PAU_BLOCKED_REASON@@@ATL@@@ATL@@QAE@XZ" PURGE="0" COMMENT="" />
    <EXPORT ORDINAL="65" NAME="??1?$CSimpleArray@PAVCLocale@@V?$CSimpleArrayEqualHelper@PAVCLocale@@@ATL@@@ATL@@QAE@XZ" PURGE="0" COMMENT="" />
    <EXPORT ORDINAL="66" NAME="??1?$CSimpleArray@VCDriverItem@@V?$CSimpleArrayEqualHelper@VCDriverItem@@@ATL@@@ATL@@QAE@XZ" PURGE="0" COMMENT="" />
    <EXPORT ORDINAL="67" NAME="??1?$CSimpleArray@VCLanguageItem@@V?$CSimpleArrayEqualHelper@VCLanguageItem@@@ATL@@@ATL@@QAE@XZ" PURGE="0" COMMENT="" />
    <EXPORT ORDINAL="68" NAME="??1?$CSimpleStringT@G$0A@@ATL@@QAE@XZ" PURGE="0" COMMENT="" />
    <EXPORT ORDINAL="69" NAME="??1?$CStringT@GV?$StrTraitATL@GV?$ChTraitsCRT@G@ATL@@@ATL@@@ATL@@QAE@XZ" PURGE="0" COMMENT="" />
    <EXPORT ORDINAL="70" NAME="??1CImageData@@EAE@XZ" PURGE="0" COMMENT="" />
    <EXPORT ORDINAL="71" NAME="??1CInternationalUtils@@QAE@XZ" PURGE="0" COMMENT="" />
    <EXPORT ORDINAL="72" NAME="??1CKeyboardLayout@@QAE@XZ" PURGE="0" COMMENT="" />
    <EXPORT ORDINAL="73" NAME="??1CKeyboardLayouts@@QAE@XZ" PURGE="0" COMMENT="" />
    <EXPORT ORDINAL="74" NAME="??1CLanguage@@QAE@XZ" PURGE="0" COMMENT="" />
    <EXPORT ORDINAL="75" NAME="??1CLanguages@@QAE@XZ" PURGE="0" COMMENT="" />
    <EXPORT ORDINAL="76" NAME="??1CLayeredDriver@@QAE@XZ" PURGE="0" COMMENT="" />
    <EXPORT ORDINAL="77" NAME="??1CLayeredDrivers@@QAE@XZ" PURGE="0" COMMENT="" />
    <EXPORT ORDINAL="78" NAME="??1CLoadDriver@@EAE@XZ" PURGE="0" COMMENT="" />
    <EXPORT ORDINAL="79" NAME="??1CLocale@@QAE@XZ" PURGE="0" COMMENT="" />
    <EXPORT ORDINAL="80" NAME="??1CLocales@@QAE@XZ" PURGE="0" COMMENT="" />
    <EXPORT ORDINAL="81" NAME="??1COSK@@QAE@XZ" PURGE="0" COMMENT="" />
    <EXPORT ORDINAL="82" NAME="??1PIDUtilStringView@@UAE@XZ" PURGE="0" COMMENT="" />
    <EXPORT ORDINAL="83" NAME="??4?$CSimpleArray@PAU_BLOCKED_REASON@@V?$CSimpleArrayEqualHelper@PAU_BLOCKED_REASON@@@ATL@@@ATL@@QAEAAV01@ABV01@@Z" PURGE="4" COMMENT="" />
    <EXPORT ORDINAL="84" NAME="??4?$CSimpleArray@PAVCLocale@@V?$CSimpleArrayEqualHelper@PAVCLocale@@@ATL@@@ATL@@QAEAAV01@ABV01@@Z" PURGE="4" COMMENT="" />
    <EXPORT ORDINAL="85" NAME="??4?$CSimpleArray@VCDriverItem@@V?$CSimpleArrayEqualHelper@VCDriverItem@@@ATL@@@ATL@@QAEAAV01@ABV01@@Z" PURGE="4" COMMENT="" />
    <EXPORT ORDINAL="86" NAME="??4?$CSimpleArray@VCLanguageItem@@V?$CSimpleArrayEqualHelper@VCLanguageItem@@@ATL@@@ATL@@QAEAAV01@ABV01@@Z" PURGE="4" COMMENT="" />
    <EXPORT ORDINAL="87" NAME="??4?$CSimpleStringT@G$0A@@ATL@@QAEAAV01@ABV01@@Z" PURGE="4" COMMENT="" />
    <EXPORT ORDINAL="88" NAME="??4?$CSimpleStringT@G$0A@@ATL@@QAEAAV01@ABV?$CSimpleStringT@G$00@1@@Z" PURGE="4" COMMENT="" />
    <EXPORT ORDINAL="89" NAME="??4?$CSimpleStringT@G$0A@@ATL@@QAEAAV01@PBG@Z" PURGE="4" COMMENT="" />
    <EXPORT ORDINAL="90" NAME="??4?$CStringT@GV?$StrTraitATL@GV?$ChTraitsCRT@G@ATL@@@ATL@@@ATL@@QAEAAV01@ABUtagVARIANT@@@Z" PURGE="4" COMMENT="" />
    <EXPORT ORDINAL="91" NAME="??4?$CStringT@GV?$StrTraitATL@GV?$ChTraitsCRT@G@ATL@@@ATL@@@ATL@@QAEAAV01@ABV01@@Z" PURGE="4" COMMENT="" />
    <EXPORT ORDINAL="92" NAME="??4?$CStringT@GV?$StrTraitATL@GV?$ChTraitsCRT@G@ATL@@@ATL@@@ATL@@QAEAAV01@D@Z" PURGE="4" COMMENT="" />
    <EXPORT ORDINAL="93" NAME="??4?$CStringT@GV?$StrTraitATL@GV?$ChTraitsCRT@G@ATL@@@ATL@@@ATL@@QAEAAV01@G@Z" PURGE="4" COMMENT="" />
    <EXPORT ORDINAL="94" NAME="??4?$CStringT@GV?$StrTraitATL@GV?$ChTraitsCRT@G@ATL@@@ATL@@@ATL@@QAEAAV01@PBD@Z" PURGE="4" COMMENT="" />
    <EXPORT ORDINAL="95" NAME="??4?$CStringT@GV?$StrTraitATL@GV?$ChTraitsCRT@G@ATL@@@ATL@@@ATL@@QAEAAV01@PBE@Z" PURGE="4" COMMENT="" />
    <EXPORT ORDINAL="96" NAME="??4?$CStringT@GV?$StrTraitATL@GV?$ChTraitsCRT@G@ATL@@@ATL@@@ATL@@QAEAAV01@PBG@Z" PURGE="4" COMMENT="" />
    <EXPORT ORDINAL="97" NAME="??4CImageData@@QAEAAV0@ABV0@@Z" PURGE="4" COMMENT="" />
    <EXPORT ORDINAL="98" NAME="??4CInternationalUtils@@QAEAAV0@ABV0@@Z" PURGE="4" COMMENT="" />
    <EXPORT ORDINAL="99" NAME="??4CKeyboardLayout@@QAEAAV0@ABV0@@Z" PURGE="4" COMMENT="" />
    <EXPORT ORDINAL="100" NAME="??4CKeyboardLayouts@@QAEAAV0@ABV0@@Z" PURGE="4" COMMENT="" />
    <EXPORT ORDINAL="101" NAME="??4CLanguage@@QAEAAV0@ABV0@@Z" PURGE="4" COMMENT="" />
    <EXPORT ORDINAL="102" NAME="??4CLanguages@@QAEAAV0@ABV0@@Z" PURGE="4" COMMENT="" />
    <EXPORT ORDINAL="103" NAME="??4CLayeredDriver@@QAEAAV0@ABV0@@Z" PURGE="4" COMMENT="" />
    <EXPORT ORDINAL="104" NAME="??4CLayeredDrivers@@QAEAAV0@ABV0@@Z" PURGE="4" COMMENT="" />
    <EXPORT ORDINAL="105" NAME="??4CLoadDriver@@QAEAAV0@ABV0@@Z" PURGE="4" COMMENT="" />
    <EXPORT ORDINAL="106" NAME="??4CLocale@@QAEAAV0@ABV0@@Z" PURGE="4" COMMENT="" />
    <EXPORT ORDINAL="107" NAME="??4CLocales@@QAEAAV0@ABV0@@Z" PURGE="4" COMMENT="" />
    <EXPORT ORDINAL="108" NAME="??4COSK@@QAEAAV0@ABV0@@Z" PURGE="4" COMMENT="" />
    <EXPORT ORDINAL="109" NAME="??4CProductKeyModule@@QAEAAV0@ABV0@@Z" PURGE="4" COMMENT="" />
    <EXPORT ORDINAL="110" NAME="??4IImageData@@QAEAAV0@$$QAV0@@Z" PURGE="4" COMMENT="" />
    <EXPORT ORDINAL="111" NAME="??4IImageData@@QAEAAV0@ABV0@@Z" PURGE="4" COMMENT="" />
    <EXPORT ORDINAL="112" NAME="??4IProductKeyModule@@QAEAAV0@$$QAV0@@Z" PURGE="4" COMMENT="" />
    <EXPORT ORDINAL="113" NAME="??4IProductKeyModule@@QAEAAV0@ABV0@@Z" PURGE="4" COMMENT="" />
    <EXPORT ORDINAL="114" NAME="??4MyUtilString@@QAEAAV0@$$QAV0@@Z" PURGE="4" COMMENT="" />
    <EXPORT ORDINAL="115" NAME="??4MyUtilString@@QAEAAV0@ABV0@@Z" PURGE="4" COMMENT="" />
    <EXPORT ORDINAL="116" NAME="??4PIDUtilStringView@@QAEAAV0@ABV0@@Z" PURGE="4" COMMENT="" />
    <EXPORT ORDINAL="117" NAME="??A?$CSimpleArray@PAU_BLOCKED_REASON@@V?$CSimpleArrayEqualHelper@PAU_BLOCKED_REASON@@@ATL@@@ATL@@QAEAAPAU_BLOCKED_REASON@@H@Z" PURGE="4" COMMENT="" />
    <EXPORT ORDINAL="118" NAME="??A?$CSimpleArray@PAU_BLOCKED_REASON@@V?$CSimpleArrayEqualHelper@PAU_BLOCKED_REASON@@@ATL@@@ATL@@QBEABQAU_BLOCKED_REASON@@H@Z" PURGE="4" COMMENT="" />
    <EXPORT ORDINAL="119" NAME="??A?$CSimpleArray@PAVCLocale@@V?$CSimpleArrayEqualHelper@PAVCLocale@@@ATL@@@ATL@@QAEAAPAVCLocale@@H@Z" PURGE="4" COMMENT="" />
    <EXPORT ORDINAL="120" NAME="??A?$CSimpleArray@PAVCLocale@@V?$CSimpleArrayEqualHelper@PAVCLocale@@@ATL@@@ATL@@QBEABQAVCLocale@@H@Z" PURGE="4" COMMENT="" />
    <EXPORT ORDINAL="121" NAME="??A?$CSimpleArray@VCDriverItem@@V?$CSimpleArrayEqualHelper@VCDriverItem@@@ATL@@@ATL@@QAEAAVCDriverItem@@H@Z" PURGE="4" COMMENT="" />
    <EXPORT ORDINAL="122" NAME="??A?$CSimpleArray@VCDriverItem@@V?$CSimpleArrayEqualHelper@VCDriverItem@@@ATL@@@ATL@@QBEABVCDriverItem@@H@Z" PURGE="4" COMMENT="" />
    <EXPORT ORDINAL="123" NAME="??A?$CSimpleArray@VCLanguageItem@@V?$CSimpleArrayEqualHelper@VCLanguageItem@@@ATL@@@ATL@@QAEAAVCLanguageItem@@H@Z" PURGE="4" COMMENT="" />
    <EXPORT ORDINAL="124" NAME="??A?$CSimpleArray@VCLanguageItem@@V?$CSimpleArrayEqualHelper@VCLanguageItem@@@ATL@@@ATL@@QBEABVCLanguageItem@@H@Z" PURGE="4" COMMENT="" />
    <EXPORT ORDINAL="125" NAME="??A?$CSimpleStringT@G$0A@@ATL@@QBEGH@Z" PURGE="4" COMMENT="" />
    <EXPORT ORDINAL="126" NAME="??ACImageData@@UAEAAVCLanguageItem@@I@Z" PURGE="4" COMMENT="" />
    <EXPORT ORDINAL="127" NAME="??ACKeyboardLayouts@@UAE?AVCKeyboardLayout@@H@Z" PURGE="8" COMMENT="" />
    <EXPORT ORDINAL="128" NAME="??ACLanguages@@UAE?AVCLanguage@@H@Z" PURGE="8" COMMENT="" />
    <EXPORT ORDINAL="129" NAME="??ACLayeredDrivers@@UAE?AVCLayeredDriver@@H@Z" PURGE="8" COMMENT="" />
    <EXPORT ORDINAL="130" NAME="??ACLoadDriver@@UAEAAVCDriverItem@@I@Z" PURGE="4" COMMENT="" />
    <EXPORT ORDINAL="131" NAME="??ACLocales@@UAE?AVCLocale@@H@Z" PURGE="8" COMMENT="" />
    <EXPORT ORDINAL="132" NAME="??B?$CSimpleStringT@G$0A@@ATL@@QAEAAV?$CSimpleStringT@G$00@1@XZ" PURGE="0" COMMENT="" />
    <EXPORT ORDINAL="133" NAME="??B?$CSimpleStringT@G$0A@@ATL@@QBEPBGXZ" PURGE="0" COMMENT="" />
    <EXPORT ORDINAL="134" NAME="??B?$CStringT@GV?$StrTraitATL@GV?$ChTraitsCRT@G@ATL@@@ATL@@@ATL@@QAEAAV?$CSimpleStringT@G$00@1@XZ" PURGE="0" COMMENT="" />
    <EXPORT ORDINAL="135" NAME="??Y?$CSimpleStringT@G$0A@@ATL@@QAEAAV01@ABV01@@Z" PURGE="4" COMMENT="" />
    <EXPORT ORDINAL="136" NAME="??Y?$CSimpleStringT@G$0A@@ATL@@QAEAAV01@D@Z" PURGE="4" COMMENT="" />
    <EXPORT ORDINAL="137" NAME="??Y?$CSimpleStringT@G$0A@@ATL@@QAEAAV01@E@Z" PURGE="4" COMMENT="" />
    <EXPORT ORDINAL="138" NAME="??Y?$CSimpleStringT@G$0A@@ATL@@QAEAAV01@G@Z" PURGE="4" COMMENT="" />
    <EXPORT ORDINAL="139" NAME="??Y?$CSimpleStringT@G$0A@@ATL@@QAEAAV01@PBG@Z" PURGE="4" COMMENT="" />
    <EXPORT ORDINAL="140" NAME="??Y?$CStringT@GV?$StrTraitATL@GV?$ChTraitsCRT@G@ATL@@@ATL@@@ATL@@QAEAAV01@ABUtagVARIANT@@@Z" PURGE="4" COMMENT="" />
    <EXPORT ORDINAL="141" NAME="??Y?$CStringT@GV?$StrTraitATL@GV?$ChTraitsCRT@G@ATL@@@ATL@@@ATL@@QAEAAV01@ABV?$CSimpleStringT@G$0A@@1@@Z" PURGE="4" COMMENT="" />
    <EXPORT ORDINAL="142" NAME="??Y?$CStringT@GV?$StrTraitATL@GV?$ChTraitsCRT@G@ATL@@@ATL@@@ATL@@QAEAAV01@D@Z" PURGE="4" COMMENT="" />
    <EXPORT ORDINAL="143" NAME="??Y?$CStringT@GV?$StrTraitATL@GV?$ChTraitsCRT@G@ATL@@@ATL@@@ATL@@QAEAAV01@E@Z" PURGE="4" COMMENT="" />
    <EXPORT ORDINAL="144" NAME="??Y?$CStringT@GV?$StrTraitATL@GV?$ChTraitsCRT@G@ATL@@@ATL@@@ATL@@QAEAAV01@G@Z" PURGE="4" COMMENT="" />
    <EXPORT ORDINAL="145" NAME="??Y?$CStringT@GV?$StrTraitATL@GV?$ChTraitsCRT@G@ATL@@@ATL@@@ATL@@QAEAAV01@PBD@Z" PURGE="4" COMMENT="" />
    <EXPORT ORDINAL="146" NAME="??Y?$CStringT@GV?$StrTraitATL@GV?$ChTraitsCRT@G@ATL@@@ATL@@@ATL@@QAEAAV01@PBG@Z" PURGE="4" COMMENT="" />
    <EXPORT ORDINAL="147" NAME="??_7CImageData@@6B@" PURGE="-1" COMMENT="" />
    <EXPORT ORDINAL="148" NAME="??_7CKeyboardLayouts@@6B@" PURGE="4096" COMMENT="" />
    <EXPORT ORDINAL="149" NAME="??_7CLanguages@@6B@" PURGE="-1" COMMENT="" />
    <EXPORT ORDINAL="150" NAME="??_7CLayeredDrivers@@6B@" PURGE="-1" COMMENT="" />
    <EXPORT ORDINAL="151" NAME="??_7CLoadDriver@@6B@" PURGE="4096" COMMENT="" />
    <EXPORT ORDINAL="152" NAME="??_7CLocales@@6B@" PURGE="-1" COMMENT="" />
    <EXPORT ORDINAL="153" NAME="??_7CProductKeyModule@@6B@" PURGE="-1" COMMENT="" />
    <EXPORT ORDINAL="154" NAME="??_7IImageData@@6B@" PURGE="-1" COMMENT="" />
    <EXPORT ORDINAL="155" NAME="??_7IProductKeyModule@@6B@" PURGE="-1" COMMENT="" />
    <EXPORT ORDINAL="156" NAME="??_7PIDUtilStringView@@6B@" PURGE="-1" COMMENT="" />
    <EXPORT ORDINAL="157" NAME="?Add@?$CSimpleArray@PAU_BLOCKED_REASON@@V?$CSimpleArrayEqualHelper@PAU_BLOCKED_REASON@@@ATL@@@ATL@@QAEHABQAU_BLOCKED_REASON@@@Z" PURGE="4" COMMENT="" />
    <EXPORT ORDINAL="158" NAME="?Add@?$CSimpleArray@PAVCLocale@@V?$CSimpleArrayEqualHelper@PAVCLocale@@@ATL@@@ATL@@QAEHABQAVCLocale@@@Z" PURGE="4" COMMENT="" />
    <EXPORT ORDINAL="159" NAME="?Add@?$CSimpleArray@VCDriverItem@@V?$CSimpleArrayEqualHelper@VCDriverItem@@@ATL@@@ATL@@QAEHABVCDriverItem@@@Z" PURGE="4" COMMENT="" />
    <EXPORT ORDINAL="160" NAME="?Add@?$CSimpleArray@VCLanguageItem@@V?$CSimpleArrayEqualHelper@VCLanguageItem@@@ATL@@@ATL@@QAEHABVCLanguageItem@@@Z" PURGE="4" COMMENT="" />
    <EXPORT ORDINAL="161" NAME="?AllocSysString@?$CStringT@GV?$StrTraitATL@GV?$ChTraitsCRT@G@ATL@@@ATL@@@ATL@@QBEPAGXZ" PURGE="0" COMMENT="" />
    <EXPORT ORDINAL="162" NAME="?Append@?$CSimpleStringT@G$0A@@ATL@@QAEXABV12@@Z" PURGE="4" COMMENT="" />
    <EXPORT ORDINAL="163" NAME="?Append@?$CSimpleStringT@G$0A@@ATL@@QAEXPBG@Z" PURGE="4" COMMENT="" />
    <EXPORT ORDINAL="164" NAME="?Append@?$CSimpleStringT@G$0A@@ATL@@QAEXPBGH@Z" PURGE="8" COMMENT="" />
    <EXPORT ORDINAL="165" NAME="?AppendChar@?$CSimpleStringT@G$0A@@ATL@@QAEXG@Z" PURGE="4" COMMENT="" />
    <EXPORT ORDINAL="166" NAME="?AppendFormat@?$CStringT@GV?$StrTraitATL@GV?$ChTraitsCRT@G@ATL@@@ATL@@@ATL@@QAAXIZZ" PURGE="0" COMMENT="" />
    <EXPORT ORDINAL="167" NAME="?AppendFormat@?$CStringT@GV?$StrTraitATL@GV?$ChTraitsCRT@G@ATL@@@ATL@@@ATL@@QAAXPBGZZ" PURGE="0" COMMENT="" />
    <EXPORT ORDINAL="168" NAME="?AppendFormatV@?$CStringT@GV?$StrTraitATL@GV?$ChTraitsCRT@G@ATL@@@ATL@@@ATL@@QAEXPBGPAD@Z" PURGE="8" COMMENT="" />
    <EXPORT ORDINAL="169" NAME="?Attach@?$CSimpleStringT@G$0A@@ATL@@AAEXPAUCStringData@2@@Z" PURGE="4" COMMENT="" />
    <EXPORT ORDINAL="170" NAME="?CanReadMedia@CLoadDriver@@UAEHXZ" PURGE="0" COMMENT="" />
    <EXPORT ORDINAL="171" NAME="?CharToOemA@?$CStringT@GV?$StrTraitATL@GV?$ChTraitsCRT@G@ATL@@@ATL@@@ATL@@QAEXXZ" PURGE="2147483647" COMMENT="" />
    <EXPORT ORDINAL="172" NAME="?CheckImplicitLoad@?$CStringT@GV?$StrTraitATL@GV?$ChTraitsCRT@G@ATL@@@ATL@@@ATL@@AAE_NPBX@Z" PURGE="4" COMMENT="" />
    <EXPORT ORDINAL="173" NAME="?ClearDriverList@CLoadDriver@@UAEXXZ" PURGE="0" COMMENT="" />
    <EXPORT ORDINAL="174" NAME="?ClearString@MyUtilString@@QAEXXZ" PURGE="0" COMMENT="" />
    <EXPORT ORDINAL="175" NAME="?ClearString@PIDUtilStringView@@QAEXXZ" PURGE="0" COMMENT="" />
    <EXPORT ORDINAL="176" NAME="?CloneData@?$CSimpleStringT@G$0A@@ATL@@CAPAUCStringData@2@PAU32@@Z" PURGE="0" COMMENT="" />
    <EXPORT ORDINAL="177" NAME="?CloseOSK@COSK@@QAEHPAX@Z" PURGE="4" COMMENT="" />
    <EXPORT ORDINAL="178" NAME="?Collate@?$CStringT@GV?$StrTraitATL@GV?$ChTraitsCRT@G@ATL@@@ATL@@@ATL@@QBEHPBG@Z" PURGE="4" COMMENT="" />
    <EXPORT ORDINAL="179" NAME="?CollateNoCase@?$CStringT@GV?$StrTraitATL@GV?$ChTraitsCRT@G@ATL@@@ATL@@@ATL@@QBEHPBG@Z" PURGE="4" COMMENT="" />
    <EXPORT ORDINAL="180" NAME="?Compare@?$CStringT@GV?$StrTraitATL@GV?$ChTraitsCRT@G@ATL@@@ATL@@@ATL@@QBEHPBG@Z" PURGE="4" COMMENT="" />
    <EXPORT ORDINAL="181" NAME="?CompareNoCase@?$CStringT@GV?$StrTraitATL@GV?$ChTraitsCRT@G@ATL@@@ATL@@@ATL@@QBEHPBG@Z" PURGE="4" COMMENT="" />
    <EXPORT ORDINAL="182" NAME="?Concatenate@?$CSimpleStringT@G$0A@@ATL@@KAXAAV12@PBGH1H@Z" PURGE="0" COMMENT="" />
    <EXPORT ORDINAL="183" NAME="?Construct@?$CStringT@GV?$StrTraitATL@GV?$ChTraitsCRT@G@ATL@@@ATL@@@ATL@@SAXPAV12@@Z" PURGE="0" COMMENT="" />
    <EXPORT ORDINAL="184" NAME="?CopyChars@?$CSimpleStringT@G$0A@@ATL@@SAXPAGIPBGH@Z" PURGE="0" COMMENT="" />
    <EXPORT ORDINAL="185" NAME="?CopyChars@?$CSimpleStringT@G$0A@@ATL@@SAXPAGPBGH@Z" PURGE="0" COMMENT="" />
    <EXPORT ORDINAL="186" NAME="?CopyCharsOverlapped@?$CSimpleStringT@G$0A@@ATL@@SAXPAGIPBGH@Z" PURGE="0" COMMENT="" />
    <EXPORT ORDINAL="187" NAME="?CopyCharsOverlapped@?$CSimpleStringT@G$0A@@ATL@@SAXPAGPBGH@Z" PURGE="0" COMMENT="" />
    <EXPORT ORDINAL="188" NAME="?Delete@?$CStringT@GV?$StrTraitATL@GV?$ChTraitsCRT@G@ATL@@@ATL@@@ATL@@QAEHHH@Z" PURGE="8" COMMENT="" />
    <EXPORT ORDINAL="189" NAME="?Empty@?$CSimpleStringT@G$0A@@ATL@@QAEXXZ" PURGE="0" COMMENT="" />
    <EXPORT ORDINAL="190" NAME="?Find@?$CSimpleArray@PAU_BLOCKED_REASON@@V?$CSimpleArrayEqualHelper@PAU_BLOCKED_REASON@@@ATL@@@ATL@@QBEHABQAU_BLOCKED_REASON@@@Z" PURGE="4" COMMENT="" />
    <EXPORT ORDINAL="191" NAME="?Find@?$CSimpleArray@PAVCLocale@@V?$CSimpleArrayEqualHelper@PAVCLocale@@@ATL@@@ATL@@QBEHABQAVCLocale@@@Z" PURGE="4" COMMENT="" />
    <EXPORT ORDINAL="192" NAME="?Find@?$CSimpleArray@VCDriverItem@@V?$CSimpleArrayEqualHelper@VCDriverItem@@@ATL@@@ATL@@QBEHABVCDriverItem@@@Z" PURGE="4" COMMENT="" />
    <EXPORT ORDINAL="193" NAME="?Find@?$CSimpleArray@VCLanguageItem@@V?$CSimpleArrayEqualHelper@VCLanguageItem@@@ATL@@@ATL@@QBEHABVCLanguageItem@@@Z" PURGE="4" COMMENT="" />
    <EXPORT ORDINAL="194" NAME="?Find@?$CStringT@GV?$StrTraitATL@GV?$ChTraitsCRT@G@ATL@@@ATL@@@ATL@@QBEHGH@Z" PURGE="8" COMMENT="" />
    <EXPORT ORDINAL="195" NAME="?Find@?$CStringT@GV?$StrTraitATL@GV?$ChTraitsCRT@G@ATL@@@ATL@@@ATL@@QBEHPBGH@Z" PURGE="8" COMMENT="" />
    <EXPORT ORDINAL="196" NAME="?FindOneOf@?$CStringT@GV?$StrTraitATL@GV?$ChTraitsCRT@G@ATL@@@ATL@@@ATL@@QBEHPBG@Z" PURGE="4" COMMENT="" />
    <EXPORT ORDINAL="197" NAME="?Fork@?$CSimpleStringT@G$0A@@ATL@@AAEXH@Z" PURGE="4" COMMENT="" />
    <EXPORT ORDINAL="198" NAME="?Format@?$CStringT@GV?$StrTraitATL@GV?$ChTraitsCRT@G@ATL@@@ATL@@@ATL@@QAAXIZZ" PURGE="0" COMMENT="" />
    <EXPORT ORDINAL="199" NAME="?Format@?$CStringT@GV?$StrTraitATL@GV?$ChTraitsCRT@G@ATL@@@ATL@@@ATL@@QAAXPBGZZ" PURGE="0" COMMENT="" />
    <EXPORT ORDINAL="200" NAME="?FormatMessageV@?$CStringT@GV?$StrTraitATL@GV?$ChTraitsCRT@G@ATL@@@ATL@@@ATL@@QAEXPBGPAPAD@Z" PURGE="8" COMMENT="" />
    <EXPORT ORDINAL="201" NAME="?FormatMessageW@?$CStringT@GV?$StrTraitATL@GV?$ChTraitsCRT@G@ATL@@@ATL@@@ATL@@QAAXIZZ" PURGE="0" COMMENT="" />
    <EXPORT ORDINAL="202" NAME="?FormatMessageW@?$CStringT@GV?$StrTraitATL@GV?$ChTraitsCRT@G@ATL@@@ATL@@@ATL@@QAAXPBGZZ" PURGE="0" COMMENT="" />
    <EXPORT ORDINAL="203" NAME="?FormatV@?$CStringT@GV?$StrTraitATL@GV?$ChTraitsCRT@G@ATL@@@ATL@@@ATL@@QAEXPBGPAD@Z" PURGE="8" COMMENT="" />
    <EXPORT ORDINAL="204" NAME="?FreeExtra@?$CSimpleStringT@G$0A@@ATL@@QAEXXZ" PURGE="0" COMMENT="" />
    <EXPORT ORDINAL="205" NAME="?FreeInstance@CImageData@@UAEXXZ" PURGE="0" COMMENT="" />
    <EXPORT ORDINAL="206" NAME="?GetAbbrevName@CLanguage@@QAE?AV?$CStringT@GV?$StrTraitATL@GV?$ChTraitsCRT@G@ATL@@@ATL@@@ATL@@XZ" PURGE="4" COMMENT="" />
    <EXPORT ORDINAL="207" NAME="?GetAbbrevName@CLocale@@QAE?AV?$CStringT@GV?$StrTraitATL@GV?$ChTraitsCRT@G@ATL@@@ATL@@@ATL@@XZ" PURGE="4" COMMENT="" />
    <EXPORT ORDINAL="208" NAME="?GetAllocLength@?$CSimpleStringT@G$0A@@ATL@@QBEHXZ" PURGE="0" COMMENT="" />
    <EXPORT ORDINAL="209" NAME="?GetAt@?$CSimpleStringT@G$0A@@ATL@@QBEGH@Z" PURGE="4" COMMENT="" />
    <EXPORT ORDINAL="210" NAME="?GetBuffer@?$CSimpleStringT@G$0A@@ATL@@QAEPAGH@Z" PURGE="4" COMMENT="" />
    <EXPORT ORDINAL="211" NAME="?GetBuffer@?$CSimpleStringT@G$0A@@ATL@@QAEPAGXZ" PURGE="0" COMMENT="" />
    <EXPORT ORDINAL="212" NAME="?GetBufferSetLength@?$CSimpleStringT@G$0A@@ATL@@QAEPAGH@Z" PURGE="4" COMMENT="" />
    <EXPORT ORDINAL="213" NAME="?GetColumnDataAtIndex@CImageData@@UAEPAGI@Z" PURGE="4" COMMENT="" />
    <EXPORT ORDINAL="214" NAME="?GetCount@CImageData@@UAEIXZ" PURGE="0" COMMENT="" />
    <EXPORT ORDINAL="215" NAME="?GetCount@CLoadDriver@@UAEIXZ" PURGE="0" COMMENT="" />
    <EXPORT ORDINAL="216" NAME="?GetData@?$CSimpleArray@PAU_BLOCKED_REASON@@V?$CSimpleArrayEqualHelper@PAU_BLOCKED_REASON@@@ATL@@@ATL@@QBEPAPAU_BLOCKED_REASON@@XZ" PURGE="0" COMMENT="" />
    <EXPORT ORDINAL="217" NAME="?GetData@?$CSimpleArray@PAVCLocale@@V?$CSimpleArrayEqualHelper@PAVCLocale@@@ATL@@@ATL@@QBEPAPAVCLocale@@XZ" PURGE="0" COMMENT="" />
    <EXPORT ORDINAL="218" NAME="?GetData@?$CSimpleArray@VCDriverItem@@V?$CSimpleArrayEqualHelper@VCDriverItem@@@ATL@@@ATL@@QBEPAVCDriverItem@@XZ" PURGE="0" COMMENT="" />
    <EXPORT ORDINAL="219" NAME="?GetData@?$CSimpleArray@VCLanguageItem@@V?$CSimpleArrayEqualHelper@VCLanguageItem@@@ATL@@@ATL@@QBEPAVCLanguageItem@@XZ" PURGE="0" COMMENT="" />
    <EXPORT ORDINAL="220" NAME="?GetData@?$CSimpleStringT@G$0A@@ATL@@ABEPAUCStringData@2@XZ" PURGE="0" COMMENT="" />
    <EXPORT ORDINAL="221" NAME="?GetDefault@CLoadDriver@@UAEHXZ" PURGE="0" COMMENT="" />
    <EXPORT ORDINAL="222" NAME="?GetDefaultFallbackLanguage@CLanguages@@UAE?AVCLanguage@@XZ" PURGE="4" COMMENT="" />
    <EXPORT ORDINAL="223" NAME="?GetDefaultLanguage@CImageData@@UAEPAGXZ" PURGE="0" COMMENT="" />
    <EXPORT ORDINAL="224" NAME="?GetDefaultLayout@CKeyboardLayouts@@QAE?AVCKeyboardLayout@@XZ" PURGE="4" COMMENT="" />
    <EXPORT ORDINAL="225" NAME="?GetDescription@CImageData@@UAEPAGXZ" PURGE="0" COMMENT="" />
    <EXPORT ORDINAL="226" NAME="?GetDriverListAsync@CLoadDriver@@UAEHV?$CStringT@GV?$StrTraitATL@GV?$ChTraitsCRT@G@ATL@@@ATL@@@ATL@@HP6GXPAXH@Z1@Z" PURGE="16" COMMENT="" />
    <EXPORT ORDINAL="227" NAME="?GetEditionName@CImageData@@UAEPAGXZ" PURGE="0" COMMENT="" />
    <EXPORT ORDINAL="228" NAME="?GetEnvironmentVariableW@?$CStringT@GV?$StrTraitATL@GV?$ChTraitsCRT@G@ATL@@@ATL@@@ATL@@QAEHPBG@Z" PURGE="4" COMMENT="" />
    <EXPORT ORDINAL="229" NAME="?GetFoundationFlag@CImageData@@UAEHXZ" PURGE="0" COMMENT="" />
    <EXPORT ORDINAL="230" NAME="?GetHardwareFilter@CLoadDriver@@UAEHXZ" PURGE="0" COMMENT="" />
    <EXPORT ORDINAL="231" NAME="?GetID@CLayeredDriver@@QAE?AV?$CStringT@GV?$StrTraitATL@GV?$ChTraitsCRT@G@ATL@@@ATL@@@ATL@@XZ" PURGE="4" COMMENT="" />
    <EXPORT ORDINAL="232" NAME="?GetImageIdentifier@CImageData@@UAEPAGXZ" PURGE="0" COMMENT="" />
    <EXPORT ORDINAL="233" NAME="?GetInstance@CImageData@@SGPAVIImageData@@XZ" PURGE="0" COMMENT="" />
    <EXPORT ORDINAL="234" NAME="?GetInstance@CLoadDriver@@SGPAVILoadDriver@@XZ" PURGE="0" COMMENT="" />
    <EXPORT ORDINAL="235" NAME="?GetKeyboard@CInternationalUtils@@SG?AV?$CStringT@GV?$StrTraitATL@GV?$ChTraitsCRT@G@ATL@@@ATL@@@ATL@@XZ" PURGE="4" COMMENT="" />
    <EXPORT ORDINAL="236" NAME="?GetLanguage@CInternationalUtils@@SG?AV?$CStringT@GV?$StrTraitATL@GV?$ChTraitsCRT@G@ATL@@@ATL@@@ATL@@XZ" PURGE="4" COMMENT="" />
    <EXPORT ORDINAL="237" NAME="?GetLanguage@CLanguages@@UAE?AVCLanguage@@H@Z" PURGE="8" COMMENT="" />
    <EXPORT ORDINAL="238" NAME="?GetLanguageCount@CLanguages@@UAEHXZ" PURGE="0" COMMENT="" />
    <EXPORT ORDINAL="239" NAME="?GetLanguageFromLocalizedName@CLanguages@@UAE?AVCLanguage@@V?$CStringT@GV?$StrTraitATL@GV?$ChTraitsCRT@G@ATL@@@ATL@@@ATL@@@Z" PURGE="8" COMMENT="" />
    <EXPORT ORDINAL="240" NAME="?GetLanguageFromNativeDisplayName@CLanguages@@UAE?AVCLanguage@@V?$CStringT@GV?$StrTraitATL@GV?$ChTraitsCRT@G@ATL@@@ATL@@@ATL@@@Z" PURGE="8" COMMENT="" />
    <EXPORT ORDINAL="241" NAME="?GetLanguageFromNativeName@CLanguages@@UAE?AVCLanguage@@V?$CStringT@GV?$StrTraitATL@GV?$ChTraitsCRT@G@ATL@@@ATL@@@ATL@@@Z" PURGE="8" COMMENT="" />
    <EXPORT ORDINAL="242" NAME="?GetLanguageNativeDisplayNameCount@CLanguages@@QAEHXZ" PURGE="0" COMMENT="" />
    <EXPORT ORDINAL="243" NAME="?GetLayeredDriver@CLayeredDrivers@@UAE?AVCLayeredDriver@@H@Z" PURGE="8" COMMENT="" />
    <EXPORT ORDINAL="244" NAME="?GetLayeredDriver@CLayeredDrivers@@UAE?AVCLayeredDriver@@V?$CStringT@GV?$StrTraitATL@GV?$ChTraitsCRT@G@ATL@@@ATL@@@ATL@@@Z" PURGE="8" COMMENT="" />
    <EXPORT ORDINAL="245" NAME="?GetLayeredDriverCount@CLayeredDrivers@@UAEHXZ" PURGE="0" COMMENT="" />
    <EXPORT ORDINAL="246" NAME="?GetLayout@CKeyboardLayouts@@UAE?AVCKeyboardLayout@@H@Z" PURGE="8" COMMENT="" />
    <EXPORT ORDINAL="247" NAME="?GetLayout@CKeyboardLayouts@@UAE?AVCKeyboardLayout@@V?$CStringT@GV?$StrTraitATL@GV?$ChTraitsCRT@G@ATL@@@ATL@@@ATL@@@Z" PURGE="8" COMMENT="" />
    <EXPORT ORDINAL="248" NAME="?GetLayoutCount@CKeyboardLayouts@@UAEHXZ" PURGE="0" COMMENT="" />
    <EXPORT ORDINAL="249" NAME="?GetLayoutID@CKeyboardLayout@@QAE?AV?$CStringT@GV?$StrTraitATL@GV?$ChTraitsCRT@G@ATL@@@ATL@@@ATL@@XZ" PURGE="4" COMMENT="" />
    <EXPORT ORDINAL="250" NAME="?GetLayoutName@CKeyboardLayout@@QAE?AV?$CStringT@GV?$StrTraitATL@GV?$ChTraitsCRT@G@ATL@@@ATL@@@ATL@@XZ" PURGE="4" COMMENT="" />
    <EXPORT ORDINAL="251" NAME="?GetLength@?$CSimpleStringT@G$0A@@ATL@@QBEHXZ" PURGE="0" COMMENT="" />
    <EXPORT ORDINAL="252" NAME="?GetLocale@CInternationalUtils@@SG?AV?$CStringT@GV?$StrTraitATL@GV?$ChTraitsCRT@G@ATL@@@ATL@@@ATL@@XZ" PURGE="4" COMMENT="" />
    <EXPORT ORDINAL="253" NAME="?GetLocale@CLocales@@UAE?AVCLocale@@H@Z" PURGE="8" COMMENT="" />
    <EXPORT ORDINAL="254" NAME="?GetLocale@CLocales@@UAE?AVCLocale@@V?$CStringT@GV?$StrTraitATL@GV?$ChTraitsCRT@G@ATL@@@ATL@@@ATL@@@Z" PURGE="8" COMMENT="" />
    <EXPORT ORDINAL="255" NAME="?GetLocaleCount@CLocales@@UAEHXZ" PURGE="0" COMMENT="" />
    <EXPORT ORDINAL="256" NAME="?GetLocaleName@CLocale@@QAE?AV?$CStringT@GV?$StrTraitATL@GV?$ChTraitsCRT@G@ATL@@@ATL@@@ATL@@XZ" PURGE="4" COMMENT="" />
    <EXPORT ORDINAL="257" NAME="?GetLocalizedName@CLanguage@@QAE?AV?$CStringT@GV?$StrTraitATL@GV?$ChTraitsCRT@G@ATL@@@ATL@@@ATL@@XZ" PURGE="4" COMMENT="" />
    <EXPORT ORDINAL="258" NAME="?GetManager@?$CSimpleStringT@G$0A@@ATL@@QBEPAUIAtlStringMgr@2@XZ" PURGE="0" COMMENT="" />
    <EXPORT ORDINAL="259" NAME="?GetManager@?$CStringT@GV?$StrTraitATL@GV?$ChTraitsCRT@G@ATL@@@ATL@@@ATL@@QBEPAUIAtlStringMgr@2@XZ" PURGE="0" COMMENT="" />
    <EXPORT ORDINAL="260" NAME="?GetName@CLayeredDriver@@QAE?AV?$CStringT@GV?$StrTraitATL@GV?$ChTraitsCRT@G@ATL@@@ATL@@@ATL@@XZ" PURGE="4" COMMENT="" />
    <EXPORT ORDINAL="261" NAME="?GetNativeDisplayName@CLanguage@@QAE?AV?$CStringT@GV?$StrTraitATL@GV?$ChTraitsCRT@G@ATL@@@ATL@@@ATL@@XZ" PURGE="4" COMMENT="" />
    <EXPORT ORDINAL="262" NAME="?GetNativeName@CLanguage@@QAE?AV?$CStringT@GV?$StrTraitATL@GV?$ChTraitsCRT@G@ATL@@@ATL@@@ATL@@XZ" PURGE="4" COMMENT="" />
    <EXPORT ORDINAL="263" NAME="?GetPidStr@PIDUtilStringView@@QAEPBGXZ" PURGE="0" COMMENT="" />
    <EXPORT ORDINAL="264" NAME="?GetShowFlag@CProductKeyModule@@UAEHXZ" PURGE="0" COMMENT="" />
    <EXPORT ORDINAL="265" NAME="?GetShowFlagEarlyF6@CLoadDriver@@UAEHXZ" PURGE="0" COMMENT="" />
    <EXPORT ORDINAL="266" NAME="?GetShowLangKeyboard@CInternationalUtils@@SGHXZ" PURGE="0" COMMENT="" />
    <EXPORT ORDINAL="267" NAME="?GetShowLangNeutral@CInternationalUtils@@SGHXZ" PURGE="0" COMMENT="" />
    <EXPORT ORDINAL="268" NAME="?GetSize@?$CSimpleArray@PAU_BLOCKED_REASON@@V?$CSimpleArrayEqualHelper@PAU_BLOCKED_REASON@@@ATL@@@ATL@@QBEHXZ" PURGE="0" COMMENT="" />
    <EXPORT ORDINAL="269" NAME="?GetSize@?$CSimpleArray@PAVCLocale@@V?$CSimpleArrayEqualHelper@PAVCLocale@@@ATL@@@ATL@@QBEHXZ" PURGE="0" COMMENT="" />
    <EXPORT ORDINAL="270" NAME="?GetSize@?$CSimpleArray@VCDriverItem@@V?$CSimpleArrayEqualHelper@VCDriverItem@@@ATL@@@ATL@@QBEHXZ" PURGE="0" COMMENT="" />
    <EXPORT ORDINAL="271" NAME="?GetSize@?$CSimpleArray@VCLanguageItem@@V?$CSimpleArrayEqualHelper@VCLanguageItem@@@ATL@@@ATL@@QBEHXZ" PURGE="0" COMMENT="" />
    <EXPORT ORDINAL="272" NAME="?GetString@?$CSimpleStringT@G$0A@@ATL@@QBEPBGXZ" PURGE="0" COMMENT="" />
    <EXPORT ORDINAL="273" NAME="?GetString@MyUtilString@@QAEPBGXZ" PURGE="0" COMMENT="" />
    <EXPORT ORDINAL="274" NAME="?Initialize@CImageData@@UAEHPAX@Z" PURGE="4" COMMENT="" />
    <EXPORT ORDINAL="275" NAME="?Initialize@CKeyboardLayouts@@UAEHV?$CStringT@GV?$StrTraitATL@GV?$ChTraitsCRT@G@ATL@@@ATL@@@ATL@@0@Z" PURGE="8" COMMENT="" />
    <EXPORT ORDINAL="276" NAME="?Initialize@CLanguages@@UAEHXZ" PURGE="0" COMMENT="" />
    <EXPORT ORDINAL="277" NAME="?Initialize@CLayeredDrivers@@UAEHV?$CStringT@GV?$StrTraitATL@GV?$ChTraitsCRT@G@ATL@@@ATL@@@ATL@@0@Z" PURGE="8" COMMENT="" />
    <EXPORT ORDINAL="278" NAME="?Initialize@CLoadDriver@@UAEHPAX@Z" PURGE="4" COMMENT="" />
    <EXPORT ORDINAL="279" NAME="?Initialize@CLocales@@UAEHV?$CStringT@GV?$StrTraitATL@GV?$ChTraitsCRT@G@ATL@@@ATL@@@ATL@@@Z" PURGE="4" COMMENT="" />
    <EXPORT ORDINAL="280" NAME="?Initialize@CProductKeyModule@@UAEHPAX@Z" PURGE="4" COMMENT="" />
    <EXPORT ORDINAL="281" NAME="?Insert@?$CStringT@GV?$StrTraitATL@GV?$ChTraitsCRT@G@ATL@@@ATL@@@ATL@@QAEHHG@Z" PURGE="8" COMMENT="" />
    <EXPORT ORDINAL="282" NAME="?Insert@?$CStringT@GV?$StrTraitATL@GV?$ChTraitsCRT@G@ATL@@@ATL@@@ATL@@QAEHHPBG@Z" PURGE="8" COMMENT="" />
    <EXPORT ORDINAL="283" NAME="?InsertChar@MyUtilString@@QAEHHG@Z" PURGE="8" COMMENT="" />
    <EXPORT ORDINAL="284" NAME="?InsertString@MyUtilString@@QAEHHPBG@Z" PURGE="8" COMMENT="" />
    <EXPORT ORDINAL="285" NAME="?InsertString@PIDUtilStringView@@QAEHHPBG@Z" PURGE="8" COMMENT="" />
    <EXPORT ORDINAL="286" NAME="?InstallDriver@CLoadDriver@@UAEHJP6GXPAXH@Z0@Z" PURGE="12" COMMENT="" />
    <EXPORT ORDINAL="287" NAME="?InternalSetAtIndex@?$CSimpleArray@PAU_BLOCKED_REASON@@V?$CSimpleArrayEqualHelper@PAU_BLOCKED_REASON@@@ATL@@@ATL@@QAEXHABQAU_BLOCKED_REASON@@@Z" PURGE="8" COMMENT="" />
    <EXPORT ORDINAL="288" NAME="?InternalSetAtIndex@?$CSimpleArray@PAVCLocale@@V?$CSimpleArrayEqualHelper@PAVCLocale@@@ATL@@@ATL@@QAEXHABQAVCLocale@@@Z" PURGE="8" COMMENT="" />
    <EXPORT ORDINAL="289" NAME="?InternalSetAtIndex@?$CSimpleArray@VCDriverItem@@V?$CSimpleArrayEqualHelper@VCDriverItem@@@ATL@@@ATL@@QAEXHABVCDriverItem@@@Z" PURGE="8" COMMENT="" />
    <EXPORT ORDINAL="290" NAME="?InternalSetAtIndex@?$CSimpleArray@VCLanguageItem@@V?$CSimpleArrayEqualHelper@VCLanguageItem@@@ATL@@@ATL@@QAEXHABVCLanguageItem@@@Z" PURGE="8" COMMENT="" />
    <EXPORT ORDINAL="291" NAME="?IsDigitalMarkerKeyValid@CProductKeyModule@@AAEHXZ" PURGE="0" COMMENT="" />
    <EXPORT ORDINAL="292" NAME="?IsEmpty@?$CSimpleStringT@G$0A@@ATL@@QBE_NXZ" PURGE="0" COMMENT="" />
    <EXPORT ORDINAL="293" NAME="?IsLanguageEnabled@CInternationalUtils@@SGHV?$CStringT@GV?$StrTraitATL@GV?$ChTraitsCRT@G@ATL@@@ATL@@@ATL@@0@Z" PURGE="8" COMMENT="" />
    <EXPORT ORDINAL="294" NAME="?IsVolumeLicensingKeyValid@CProductKeyModule@@AAEHXZ" PURGE="0" COMMENT="" />
    <EXPORT ORDINAL="295" NAME="?Left@?$CStringT@GV?$StrTraitATL@GV?$ChTraitsCRT@G@ATL@@@ATL@@@ATL@@QBE?AV12@H@Z" PURGE="8" COMMENT="" />
    <EXPORT ORDINAL="296" NAME="?LoadStringW@?$CStringT@GV?$StrTraitATL@GV?$ChTraitsCRT@G@ATL@@@ATL@@@ATL@@QAEHI@Z" PURGE="4" COMMENT="" />
    <EXPORT ORDINAL="297" NAME="?LoadStringW@?$CStringT@GV?$StrTraitATL@GV?$ChTraitsCRT@G@ATL@@@ATL@@@ATL@@QAEHPAUHINSTANCE__@@I@Z" PURGE="8" COMMENT="" />
    <EXPORT ORDINAL="298" NAME="?LoadStringW@?$CStringT@GV?$StrTraitATL@GV?$ChTraitsCRT@G@ATL@@@ATL@@@ATL@@QAEHPAUHINSTANCE__@@IG@Z" PURGE="12" COMMENT="" />
    <EXPORT ORDINAL="299" NAME="?LockBuffer@?$CSimpleStringT@G$0A@@ATL@@QAEPAGXZ" PURGE="0" COMMENT="" />
    <EXPORT ORDINAL="300" NAME="?MakeLower@?$CStringT@GV?$StrTraitATL@GV?$ChTraitsCRT@G@ATL@@@ATL@@@ATL@@QAEAAV12@XZ" PURGE="0" COMMENT="" />
    <EXPORT ORDINAL="301" NAME="?MakeReverse@?$CStringT@GV?$StrTraitATL@GV?$ChTraitsCRT@G@ATL@@@ATL@@@ATL@@QAEAAV12@XZ" PURGE="0" COMMENT="" />
    <EXPORT ORDINAL="302" NAME="?MakeUpper@?$CStringT@GV?$StrTraitATL@GV?$ChTraitsCRT@G@ATL@@@ATL@@@ATL@@QAEAAV12@XZ" PURGE="0" COMMENT="" />
    <EXPORT ORDINAL="303" NAME="?Mid@?$CStringT@GV?$StrTraitATL@GV?$ChTraitsCRT@G@ATL@@@ATL@@@ATL@@QBE?AV12@H@Z" PURGE="8" COMMENT="" />
    <EXPORT ORDINAL="304" NAME="?Mid@?$CStringT@GV?$StrTraitATL@GV?$ChTraitsCRT@G@ATL@@@ATL@@@ATL@@QBE?AV12@HH@Z" PURGE="12" COMMENT="" />
    <EXPORT ORDINAL="305" NAME="?OemToCharA@?$CStringT@GV?$StrTraitATL@GV?$ChTraitsCRT@G@ATL@@@ATL@@@ATL@@QAEXXZ" PURGE="2147483647" COMMENT="" />
    <EXPORT ORDINAL="306" NAME="?OnCallback@CProductKeyModule@@UAEIPBUWDS_DATA@@@Z" PURGE="4" COMMENT="" />
    <EXPORT ORDINAL="307" NAME="?PopulateDriverList@CLoadDriver@@AAEHXZ" PURGE="0" COMMENT="" />
    <EXPORT ORDINAL="308" NAME="?PopulateImageData@CImageData@@UAEHPBGPAGHPAUHINSTANCE__@@@Z" PURGE="16" COMMENT="" />
    <EXPORT ORDINAL="309" NAME="?Preallocate@?$CSimpleStringT@G$0A@@ATL@@QAEXH@Z" PURGE="4" COMMENT="" />
    <EXPORT ORDINAL="310" NAME="?PrepareWrite2@?$CSimpleStringT@G$0A@@ATL@@AAEXH@Z" PURGE="4" COMMENT="" />
    <EXPORT ORDINAL="311" NAME="?PrepareWrite@?$CSimpleStringT@G$0A@@ATL@@AAEPAGH@Z" PURGE="4" COMMENT="" />
    <EXPORT ORDINAL="312" NAME="?PublishLanguageGatherEvent@CInternationalUtils@@SGJPAX@Z" PURGE="4" COMMENT="" />
    <EXPORT ORDINAL="313" NAME="?Reallocate@?$CSimpleStringT@G$0A@@ATL@@AAEXH@Z" PURGE="4" COMMENT="" />
    <EXPORT ORDINAL="314" NAME="?ReleaseBuffer@?$CSimpleStringT@G$0A@@ATL@@QAEXH@Z" PURGE="4" COMMENT="" />
    <EXPORT ORDINAL="315" NAME="?ReleaseBufferSetLength@?$CSimpleStringT@G$0A@@ATL@@QAEXH@Z" PURGE="4" COMMENT="" />
    <EXPORT ORDINAL="316" NAME="?Remove@?$CSimpleArray@PAU_BLOCKED_REASON@@V?$CSimpleArrayEqualHelper@PAU_BLOCKED_REASON@@@ATL@@@ATL@@QAEHABQAU_BLOCKED_REASON@@@Z" PURGE="4" COMMENT="" />
    <EXPORT ORDINAL="317" NAME="?Remove@?$CSimpleArray@PAVCLocale@@V?$CSimpleArrayEqualHelper@PAVCLocale@@@ATL@@@ATL@@QAEHABQAVCLocale@@@Z" PURGE="4" COMMENT="" />
    <EXPORT ORDINAL="318" NAME="?Remove@?$CSimpleArray@VCDriverItem@@V?$CSimpleArrayEqualHelper@VCDriverItem@@@ATL@@@ATL@@QAEHABVCDriverItem@@@Z" PURGE="4" COMMENT="" />
    <EXPORT ORDINAL="319" NAME="?Remove@?$CSimpleArray@VCLanguageItem@@V?$CSimpleArrayEqualHelper@VCLanguageItem@@@ATL@@@ATL@@QAEHABVCLanguageItem@@@Z" PURGE="4" COMMENT="" />
    <EXPORT ORDINAL="320" NAME="?Remove@?$CStringT@GV?$StrTraitATL@GV?$ChTraitsCRT@G@ATL@@@ATL@@@ATL@@QAEHG@Z" PURGE="4" COMMENT="" />
    <EXPORT ORDINAL="321" NAME="?RemoveAll@?$CSimpleArray@PAU_BLOCKED_REASON@@V?$CSimpleArrayEqualHelper@PAU_BLOCKED_REASON@@@ATL@@@ATL@@QAEXXZ" PURGE="0" COMMENT="" />
    <EXPORT ORDINAL="322" NAME="?RemoveAll@?$CSimpleArray@PAVCLocale@@V?$CSimpleArrayEqualHelper@PAVCLocale@@@ATL@@@ATL@@QAEXXZ" PURGE="0" COMMENT="" />
    <EXPORT ORDINAL="323" NAME="?RemoveAll@?$CSimpleArray@VCDriverItem@@V?$CSimpleArrayEqualHelper@VCDriverItem@@@ATL@@@ATL@@QAEXXZ" PURGE="0" COMMENT="" />
    <EXPORT ORDINAL="324" NAME="?RemoveAll@?$CSimpleArray@VCLanguageItem@@V?$CSimpleArrayEqualHelper@VCLanguageItem@@@ATL@@@ATL@@QAEXXZ" PURGE="0" COMMENT="" />
    <EXPORT ORDINAL="325" NAME="?RemoveAt@?$CSimpleArray@PAU_BLOCKED_REASON@@V?$CSimpleArrayEqualHelper@PAU_BLOCKED_REASON@@@ATL@@@ATL@@QAEHH@Z" PURGE="4" COMMENT="" />
    <EXPORT ORDINAL="326" NAME="?RemoveAt@?$CSimpleArray@PAVCLocale@@V?$CSimpleArrayEqualHelper@PAVCLocale@@@ATL@@@ATL@@QAEHH@Z" PURGE="4" COMMENT="" />
    <EXPORT ORDINAL="327" NAME="?RemoveAt@?$CSimpleArray@VCDriverItem@@V?$CSimpleArrayEqualHelper@VCDriverItem@@@ATL@@@ATL@@QAEHH@Z" PURGE="4" COMMENT="" />
    <EXPORT ORDINAL="328" NAME="?RemoveAt@?$CSimpleArray@VCLanguageItem@@V?$CSimpleArrayEqualHelper@VCLanguageItem@@@ATL@@@ATL@@QAEHH@Z" PURGE="4" COMMENT="" />
    <EXPORT ORDINAL="329" NAME="?RemoveChar@MyUtilString@@QAEHH@Z" PURGE="4" COMMENT="" />
    <EXPORT ORDINAL="330" NAME="?RemoveString@MyUtilString@@QAEHHH@Z" PURGE="8" COMMENT="" />
    <EXPORT ORDINAL="331" NAME="?RemoveString@PIDUtilStringView@@QAEHHHH@Z" PURGE="12" COMMENT="" />
    <EXPORT ORDINAL="332" NAME="?Replace@?$CStringT@GV?$StrTraitATL@GV?$ChTraitsCRT@G@ATL@@@ATL@@@ATL@@QAEHGG@Z" PURGE="8" COMMENT="" />
    <EXPORT ORDINAL="333" NAME="?Replace@?$CStringT@GV?$StrTraitATL@GV?$ChTraitsCRT@G@ATL@@@ATL@@@ATL@@QAEHPBG0@Z" PURGE="8" COMMENT="" />
    <EXPORT ORDINAL="334" NAME="?ReplaceString@PIDUtilStringView@@QAEHHHPBG@Z" PURGE="12" COMMENT="" />
    <EXPORT ORDINAL="335" NAME="?ReverseFind@?$CStringT@GV?$StrTraitATL@GV?$ChTraitsCRT@G@ATL@@@ATL@@@ATL@@QBEHG@Z" PURGE="4" COMMENT="" />
    <EXPORT ORDINAL="336" NAME="?Right@?$CStringT@GV?$StrTraitATL@GV?$ChTraitsCRT@G@ATL@@@ATL@@@ATL@@QBE?AV12@H@Z" PURGE="8" COMMENT="" />
    <EXPORT ORDINAL="337" NAME="?SetActivation@CProductKeyModule@@UAEHK@Z" PURGE="4" COMMENT="" />
    <EXPORT ORDINAL="338" NAME="?SetAt@?$CSimpleStringT@G$0A@@ATL@@QAEXHG@Z" PURGE="8" COMMENT="" />
    <EXPORT ORDINAL="339" NAME="?SetAtIndex@?$CSimpleArray@PAU_BLOCKED_REASON@@V?$CSimpleArrayEqualHelper@PAU_BLOCKED_REASON@@@ATL@@@ATL@@QAEHHABQAU_BLOCKED_REASON@@@Z" PURGE="8" COMMENT="" />
    <EXPORT ORDINAL="340" NAME="?SetAtIndex@?$CSimpleArray@PAVCLocale@@V?$CSimpleArrayEqualHelper@PAVCLocale@@@ATL@@@ATL@@QAEHHABQAVCLocale@@@Z" PURGE="8" COMMENT="" />
    <EXPORT ORDINAL="341" NAME="?SetAtIndex@?$CSimpleArray@VCDriverItem@@V?$CSimpleArrayEqualHelper@VCDriverItem@@@ATL@@@ATL@@QAEHHABVCDriverItem@@@Z" PURGE="8" COMMENT="" />
    <EXPORT ORDINAL="342" NAME="?SetAtIndex@?$CSimpleArray@VCLanguageItem@@V?$CSimpleArrayEqualHelper@VCLanguageItem@@@ATL@@@ATL@@QAEHHABVCLanguageItem@@@Z" PURGE="8" COMMENT="" />
    <EXPORT ORDINAL="343" NAME="?SetEditionName@CImageData@@UAEXPAG@Z" PURGE="4" COMMENT="" />
    <EXPORT ORDINAL="344" NAME="?SetFoundationFlag@CImageData@@UAEXH@Z" PURGE="4" COMMENT="" />
    <EXPORT ORDINAL="345" NAME="?SetHardwareFilter@CLoadDriver@@UAEHH@Z" PURGE="4" COMMENT="" />
    <EXPORT ORDINAL="346" NAME="?SetHideOOBELang@CInternationalUtils@@SGHV?$CStringT@GV?$StrTraitATL@GV?$ChTraitsCRT@G@ATL@@@ATL@@@ATL@@@Z" PURGE="4" COMMENT="" />
    <EXPORT ORDINAL="347" NAME="?SetInstance@CImageData@@SGXPAVIImageData@@@Z" PURGE="4" COMMENT="" />
    <EXPORT ORDINAL="348" NAME="?SetInstance@CLoadDriver@@SGXPAVILoadDriver@@@Z" PURGE="4" COMMENT="" />
    <EXPORT ORDINAL="349" NAME="?SetLength@?$CSimpleStringT@G$0A@@ATL@@AAEXH@Z" PURGE="4" COMMENT="" />
    <EXPORT ORDINAL="350" NAME="?SetLocale@CLayeredDrivers@@UAEHV?$CStringT@GV?$StrTraitATL@GV?$ChTraitsCRT@G@ATL@@@ATL@@@ATL@@@Z" PURGE="4" COMMENT="" />
    <EXPORT ORDINAL="351" NAME="?SetManager@?$CSimpleStringT@G$0A@@ATL@@QAEXPAUIAtlStringMgr@2@@Z" PURGE="4" COMMENT="" />
    <EXPORT ORDINAL="352" NAME="?SetProductKey@CProductKeyModule@@AAEXV?$CStringT@GV?$StrTraitATL@GV?$ChTraitsCRT@G@ATL@@@ATL@@@ATL@@@Z" PURGE="4" COMMENT="" />
    <EXPORT ORDINAL="353" NAME="?SetString@?$CSimpleStringT@G$0A@@ATL@@QAEXPBG@Z" PURGE="4" COMMENT="" />
    <EXPORT ORDINAL="354" NAME="?SetString@?$CSimpleStringT@G$0A@@ATL@@QAEXPBGH@Z" PURGE="8" COMMENT="" />
    <EXPORT ORDINAL="355" NAME="?SetSysString@?$CStringT@GV?$StrTraitATL@GV?$ChTraitsCRT@G@ATL@@@ATL@@@ATL@@QBEPAGPAPAG@Z" PURGE="4" COMMENT="" />
    <EXPORT ORDINAL="356" NAME="?SetTargetKeyboard@CInternationalUtils@@SGHV?$CStringT@GV?$StrTraitATL@GV?$ChTraitsCRT@G@ATL@@@ATL@@@ATL@@@Z" PURGE="4" COMMENT="" />
    <EXPORT ORDINAL="357" NAME="?SetTargetLanguage@CInternationalUtils@@SGHV?$CStringT@GV?$StrTraitATL@GV?$ChTraitsCRT@G@ATL@@@ATL@@@ATL@@@Z" PURGE="4" COMMENT="" />
    <EXPORT ORDINAL="358" NAME="?SetTargetLayeredDriver@CInternationalUtils@@SGHV?$CStringT@GV?$StrTraitATL@GV?$ChTraitsCRT@G@ATL@@@ATL@@@ATL@@@Z" PURGE="4" COMMENT="" />
    <EXPORT ORDINAL="359" NAME="?SetTargetLocale@CInternationalUtils@@SGHV?$CStringT@GV?$StrTraitATL@GV?$ChTraitsCRT@G@ATL@@@ATL@@@ATL@@@Z" PURGE="4" COMMENT="" />
    <EXPORT ORDINAL="360" NAME="?SetUILanguage@CInternationalUtils@@SGHV?$CStringT@GV?$StrTraitATL@GV?$ChTraitsCRT@G@ATL@@@ATL@@@ATL@@@Z" PURGE="4" COMMENT="" />
    <EXPORT ORDINAL="361" NAME="?SetUILanguage@CKeyboardLayouts@@UAEHV?$CStringT@GV?$StrTraitATL@GV?$ChTraitsCRT@G@ATL@@@ATL@@@ATL@@@Z" PURGE="4" COMMENT="" />
    <EXPORT ORDINAL="362" NAME="?SetUILanguage@CLanguages@@UAEHV?$CStringT@GV?$StrTraitATL@GV?$ChTraitsCRT@G@ATL@@@ATL@@@ATL@@@Z" PURGE="4" COMMENT="" />
    <EXPORT ORDINAL="363" NAME="?SetUILanguage@CLayeredDrivers@@UAEHV?$CStringT@GV?$StrTraitATL@GV?$ChTraitsCRT@G@ATL@@@ATL@@@ATL@@@Z" PURGE="4" COMMENT="" />
    <EXPORT ORDINAL="364" NAME="?SetUILanguage@CLocales@@UAEHV?$CStringT@GV?$StrTraitATL@GV?$ChTraitsCRT@G@ATL@@@ATL@@@ATL@@@Z" PURGE="4" COMMENT="" />
    <EXPORT ORDINAL="365" NAME="?ShowOSK@COSK@@QAEPAXHPAG0@Z" PURGE="12" COMMENT="" />
    <EXPORT ORDINAL="366" NAME="?SpanExcluding@?$CStringT@GV?$StrTraitATL@GV?$ChTraitsCRT@G@ATL@@@ATL@@@ATL@@QBE?AV12@PBG@Z" PURGE="8" COMMENT="" />
    <EXPORT ORDINAL="367" NAME="?SpanIncluding@?$CStringT@GV?$StrTraitATL@GV?$ChTraitsCRT@G@ATL@@@ATL@@@ATL@@QBE?AV12@PBG@Z" PURGE="8" COMMENT="" />
    <EXPORT ORDINAL="368" NAME="?StaticInstallCallback@CLoadDriver@@CGXW4WDS_EVENT_RESULT@@PBUWDS_DATA@@PAX@Z" PURGE="12" COMMENT="" />
    <EXPORT ORDINAL="369" NAME="?StaticScanCallback@CLoadDriver@@CGXW4WDS_EVENT_RESULT@@PBUWDS_DATA@@PAX@Z" PURGE="12" COMMENT="" />
    <EXPORT ORDINAL="370" NAME="?StringLength@?$CSimpleStringT@G$0A@@ATL@@SAHPBD@Z" PURGE="0" COMMENT="" />
    <EXPORT ORDINAL="371" NAME="?StringLength@?$CSimpleStringT@G$0A@@ATL@@SAHPBG@Z" PURGE="0" COMMENT="" />
    <EXPORT ORDINAL="372" NAME="?ThrowMemoryException@?$CSimpleStringT@G$0A@@ATL@@KAXXZ" PURGE="0" COMMENT="" />
    <EXPORT ORDINAL="373" NAME="?Tokenize@?$CStringT@GV?$StrTraitATL@GV?$ChTraitsCRT@G@ATL@@@ATL@@@ATL@@QBE?AV12@PBGAAH@Z" PURGE="12" COMMENT="" />
    <EXPORT ORDINAL="374" NAME="?Trim@?$CStringT@GV?$StrTraitATL@GV?$ChTraitsCRT@G@ATL@@@ATL@@@ATL@@QAEAAV12@G@Z" PURGE="4" COMMENT="" />
    <EXPORT ORDINAL="375" NAME="?Trim@?$CStringT@GV?$StrTraitATL@GV?$ChTraitsCRT@G@ATL@@@ATL@@@ATL@@QAEAAV12@PBG@Z" PURGE="4" COMMENT="" />
    <EXPORT ORDINAL="376" NAME="?Trim@?$CStringT@GV?$StrTraitATL@GV?$ChTraitsCRT@G@ATL@@@ATL@@@ATL@@QAEAAV12@XZ" PURGE="0" COMMENT="" />
    <EXPORT ORDINAL="377" NAME="?TrimLeft@?$CStringT@GV?$StrTraitATL@GV?$ChTraitsCRT@G@ATL@@@ATL@@@ATL@@QAEAAV12@G@Z" PURGE="4" COMMENT="" />
    <EXPORT ORDINAL="378" NAME="?TrimLeft@?$CStringT@GV?$StrTraitATL@GV?$ChTraitsCRT@G@ATL@@@ATL@@@ATL@@QAEAAV12@PBG@Z" PURGE="4" COMMENT="" />
    <EXPORT ORDINAL="379" NAME="?TrimLeft@?$CStringT@GV?$StrTraitATL@GV?$ChTraitsCRT@G@ATL@@@ATL@@@ATL@@QAEAAV12@XZ" PURGE="0" COMMENT="" />
    <EXPORT ORDINAL="380" NAME="?TrimRight@?$CStringT@GV?$StrTraitATL@GV?$ChTraitsCRT@G@ATL@@@ATL@@@ATL@@QAEAAV12@G@Z" PURGE="4" COMMENT="" />
    <EXPORT ORDINAL="381" NAME="?TrimRight@?$CStringT@GV?$StrTraitATL@GV?$ChTraitsCRT@G@ATL@@@ATL@@@ATL@@QAEAAV12@PBG@Z" PURGE="4" COMMENT="" />
    <EXPORT ORDINAL="382" NAME="?TrimRight@?$CStringT@GV?$StrTraitATL@GV?$ChTraitsCRT@G@ATL@@@ATL@@@ATL@@QAEAAV12@XZ" PURGE="0" COMMENT="" />
    <EXPORT ORDINAL="383" NAME="?Truncate@?$CSimpleStringT@G$0A@@ATL@@QAEXH@Z" PURGE="4" COMMENT="" />
    <EXPORT ORDINAL="384" NAME="?UnlockBuffer@?$CSimpleStringT@G$0A@@ATL@@QAEXXZ" PURGE="0" COMMENT="" />
    <EXPORT ORDINAL="385" NAME="?ValidatePid@CProductKeyModule@@AAEJXZ" PURGE="0" COMMENT="" />
    <EXPORT ORDINAL="386" NAME="?ValidateProductKey@CProductKeyModule@@UAEHPAXPAGP6GX0I@Z@Z" PURGE="12" COMMENT="" />
    <EXPORT ORDINAL="387" NAME="?s_Instance@CImageData@@0PAVIImageData@@A" PURGE="-1" COMMENT="" />
    <EXPORT ORDINAL="388" NAME="?s_Instance@CLoadDriver@@0PAVILoadDriver@@A" PURGE="-1" COMMENT="" />
    <EXPORT ORDINAL="389" NAME="?v_AddBlockedReason@CImageData@@AAEXPBG0@Z" PURGE="8" COMMENT="" />
    <EXPORT ORDINAL="390" NAME="?v_AddLanguage@CImageData@@AAEXPBG0H@Z" PURGE="12" COMMENT="" />
    <EXPORT ORDINAL="391" NAME="?v_BuildKey@CImageData@@AAEPAGPBG0@Z" PURGE="8" COMMENT="" />
    <EXPORT ORDINAL="392" NAME="?v_CopyStr@CImageData@@AAEPAGPBG@Z" PURGE="4" COMMENT="" />
    <EXPORT ORDINAL="393" NAME="?v_DeleteKeyboardLayouts@CKeyboardLayouts@@AAEXXZ" PURGE="0" COMMENT="" />
    <EXPORT ORDINAL="394" NAME="?v_DeleteLanguages@CLanguages@@AAEXXZ" PURGE="0" COMMENT="" />
    <EXPORT ORDINAL="395" NAME="?v_DeleteLayeredDrivers@CLayeredDrivers@@AAEXXZ" PURGE="0" COMMENT="" />
    <EXPORT ORDINAL="396" NAME="?v_EnumLocalesProc@CLocales@@CGHPAGKJ@Z" PURGE="12" COMMENT="" />
    <EXPORT ORDINAL="397" NAME="?v_FreeLanguages@CImageData@@AAEXXZ" PURGE="0" COMMENT="" />
    <EXPORT ORDINAL="398" NAME="?v_FreeReasons@CImageData@@AAEXXZ" PURGE="0" COMMENT="" />
    <EXPORT ORDINAL="399" NAME="?v_GetArchitectureName@CImageData@@AAEPAGPAUHINSTANCE__@@K@Z" PURGE="8" COMMENT="" />
    <EXPORT ORDINAL="400" NAME="?v_GetAvailableLanguages@CImageData@@AAEXPBG@Z" PURGE="4" COMMENT="" />
    <EXPORT ORDINAL="401" NAME="?v_GetBBStr@CImageData@@AAEPAGPBG0@Z" PURGE="8" COMMENT="" />
    <EXPORT ORDINAL="402" NAME="?v_GetBBVal@CImageData@@AAEKPBG0K@Z" PURGE="12" COMMENT="" />
    <EXPORT ORDINAL="403" NAME="?v_GetBlockedReasons@CImageData@@AAEXPBG@Z" PURGE="4" COMMENT="" />
    <EXPORT ORDINAL="404" NAME="?v_GetLangIniPath@CLanguages@@AAE?AV?$CStringT@GV?$StrTraitATL@GV?$ChTraitsCRT@G@ATL@@@ATL@@@ATL@@XZ" PURGE="4" COMMENT="" />
    <EXPORT ORDINAL="405" NAME="?v_InitInputProcs@CKeyboardLayouts@@AAEHXZ" PURGE="0" COMMENT="" />
    <EXPORT ORDINAL="406" NAME="?v_InitLanguage@CLanguages@@AAEPAVCLanguage@@V?$CStringT@GV?$StrTraitATL@GV?$ChTraitsCRT@G@ATL@@@ATL@@@ATL@@@Z" PURGE="4" COMMENT="" />
    <EXPORT ORDINAL="407" NAME="?v_IsValid@PIDUtilStringView@@AAEHG@Z" PURGE="4" COMMENT="" />
    <EXPORT ORDINAL="408" NAME="?v_LoadInputProcs@CKeyboardLayouts@@AAEHXZ" PURGE="0" COMMENT="" />
    <EXPORT ORDINAL="409" NAME="?v_MakePidString@PIDUtilStringView@@AAEHXZ" PURGE="0" COMMENT="" />
    <EXPORT ORDINAL="410" NAME="?v_MakeValidString@PIDUtilStringView@@AAE?AV?$CStringT@GV?$StrTraitATL@GV?$ChTraitsCRT@G@ATL@@@ATL@@@ATL@@PBG@Z" PURGE="8" COMMENT="" />
    <EXPORT ORDINAL="411" NAME="?v_PopulateKeyboardLayouts@CKeyboardLayouts@@AAEHXZ" PURGE="0" COMMENT="" />
    <EXPORT ORDINAL="412" NAME="?v_PopulateLanguages@CLanguages@@AAEHXZ" PURGE="0" COMMENT="" />
    <EXPORT ORDINAL="413" NAME="?v_PopulateLayeredDrivers@CLayeredDrivers@@AAEHXZ" PURGE="0" COMMENT="" />
    <EXPORT ORDINAL="414" NAME="?v_PopulateLocales@CLocales@@AAEHXZ" PURGE="0" COMMENT="" />
</LIBRARY>

