<?xml version="1.0" encoding="UTF-8"?>
<LIBRARY NAME="wsmsvc.dll" PATH="/DLLArchive/windows10LTSCX86_64/WsmSvc.dll" DATE="Wed Oct 06 06:52:21 PDT 2021" VERSION="10.0.19041.1202 (WinBuild.160101.0800)">
    <EXPORT ORDINAL="1" NAME="??0?$AutoCleanup@V?$AutoDelete@D@@PAD@@QAE@PAD@Z" PURGE="4" COMMENT="" />
    <EXPORT ORDINAL="2" NAME="??0?$AutoCleanup@V?$AutoDelete@G@@PAG@@QAE@PAG@Z" PURGE="4" COMMENT="" />
    <EXPORT ORDINAL="3" NAME="??0?$AutoCleanup@V?$AutoDelete@UIPRange@CWSManIPFilter@@@@PAUIPRange@CWSManIPFilter@@@@QAE@PAUIPRange@CWSManIPFilter@@@Z" PURGE="4" COMMENT="" />
    <EXPORT ORDINAL="4" NAME="??0?$AutoCleanup@V?$AutoDelete@U_SID@@@@PAU_SID@@@@QAE@PAU_SID@@@Z" PURGE="4" COMMENT="" />
    <EXPORT ORDINAL="5" NAME="??0?$AutoCleanup@V?$AutoDelete@U_WSMAN_STREAM_ID_SET@@@@PAU_WSMAN_STREAM_ID_SET@@@@QAE@PAU_WSMAN_STREAM_ID_SET@@@Z" PURGE="4" COMMENT="" />
    <EXPORT ORDINAL="6" NAME="??0?$AutoCleanup@V?$AutoDelete@V?$Handle@VISubscription@@@@@@PAV?$Handle@VISubscription@@@@@@QAE@PAV?$Handle@VISubscription@@@@@Z" PURGE="4" COMMENT="" />
    <EXPORT ORDINAL="7" NAME="??0?$AutoCleanup@V?$AutoDelete@V?$SafeMap_Iterator@VStringKeyCI@@K@@@@PAV?$SafeMap_Iterator@VStringKeyCI@@K@@@@QAE@PAV?$SafeMap_Iterator@VStringKeyCI@@K@@@Z" PURGE="4" COMMENT="" />
    <EXPORT ORDINAL="8" NAME="??0?$AutoCleanup@V?$AutoDelete@V?$SafeMap_Iterator@W4WSManSessionOption@@PAVOptionValue@SessionOptions@Client@WSMan@@@@@@PAV?$SafeMap_Iterator@W4WSManSessionOption@@PAVOptionValue@SessionOptions@Client@WSMan@@@@@@QAE@PAV?$SafeMap_Iterator@W4WSManSessionOption@@PAVOptionValue@SessionOptions@Client@WSMan@@@@@Z" PURGE="4" COMMENT="" />
    <EXPORT ORDINAL="9" NAME="??0?$AutoCleanup@V?$AutoDelete@V?$SafeSet@PAVCCertMapping@@@@@@PAV?$SafeSet@PAVCCertMapping@@@@@@QAE@PAV?$SafeSet@PAVCCertMapping@@@@@Z" PURGE="4" COMMENT="" />
    <EXPORT ORDINAL="10" NAME="??0?$AutoCleanup@V?$AutoDelete@V?$SafeSet@PAVCShellUriSettings@@@@@@PAV?$SafeSet@PAVCShellUriSettings@@@@@@QAE@PAV?$SafeSet@PAVCShellUriSettings@@@@@Z" PURGE="4" COMMENT="" />
    <EXPORT ORDINAL="11" NAME="??0?$AutoCleanup@V?$AutoDelete@V?$SafeSet_Iterator@PAVCListenerOperation@@@@@@PAV?$SafeSet_Iterator@PAVCListenerOperation@@@@@@QAE@PAV?$SafeSet_Iterator@PAVCListenerOperation@@@@@Z" PURGE="4" COMMENT="" />
    <EXPORT ORDINAL="12" NAME="??0?$AutoCleanup@V?$AutoDelete@V?$SimpleStack@VCListenerOperation@@@@@@PAV?$SimpleStack@VCListenerOperation@@@@@@QAE@PAV?$SimpleStack@VCListenerOperation@@@@@Z" PURGE="4" COMMENT="" />
    <EXPORT ORDINAL="13" NAME="??0?$AutoCleanup@V?$AutoDelete@V?$SimpleStack@VShellHostEntry@@@@@@PAV?$SimpleStack@VShellHostEntry@@@@@@QAE@PAV?$SimpleStack@VShellHostEntry@@@@@Z" PURGE="4" COMMENT="" />
    <EXPORT ORDINAL="14" NAME="??0?$AutoCleanup@V?$AutoDelete@V?$set@PAVCListenerSettings@@VCListenerSettingsLessFunctor@CServiceConfigSettings@@V?$transport_allocator@PAVCListenerSettings@@@@@std@@@@PAV?$set@PAVCListenerSettings@@VCListenerSettingsLessFunctor@CServiceConfigSettings@@V?$transport_allocator@PAVCListenerSettings@@@@@std@@@@QAE@PAV?$set@PAVCListenerSettings@@VCListenerSettingsLessFunctor@CServiceConfigSettings@@V?$transport_allocator@PAVCListenerSettings@@@@@std@@@Z" PURGE="4" COMMENT="" />
    <EXPORT ORDINAL="15" NAME="??0?$AutoCleanup@V?$AutoDelete@V?$set@Usockaddr_storage@@VSockAddrLessFunctor@CListenerSettings@@V?$transport_allocator@Usockaddr_storage@@@@@std@@@@PAV?$set@Usockaddr_storage@@VSockAddrLessFunctor@CListenerSettings@@V?$transport_allocator@Usockaddr_storage@@@@@std@@@@QAE@PAV?$set@Usockaddr_storage@@VSockAddrLessFunctor@CListenerSettings@@V?$transport_allocator@Usockaddr_storage@@@@@std@@@Z" PURGE="4" COMMENT="" />
    <EXPORT ORDINAL="16" NAME="??0?$AutoCleanup@V?$AutoDelete@V?$vector@PAVHandleImpl@Client@WSMan@@V?$transport_allocator@PAVHandleImpl@Client@WSMan@@@@@std@@@@PAV?$vector@PAVHandleImpl@Client@WSMan@@V?$transport_allocator@PAVHandleImpl@Client@WSMan@@@@@std@@@@QAE@PAV?$vector@PAVHandleImpl@Client@WSMan@@V?$transport_allocator@PAVHandleImpl@Client@WSMan@@@@@std@@@Z" PURGE="4" COMMENT="" />
    <EXPORT ORDINAL="17" NAME="??0?$AutoCleanup@V?$AutoDelete@V?$vector@PAVIServiceConfigObserver@@V?$transport_allocator@PAVIServiceConfigObserver@@@@@std@@@@PAV?$vector@PAVIServiceConfigObserver@@V?$transport_allocator@PAVIServiceConfigObserver@@@@@std@@@@QAE@PAV?$vector@PAVIServiceConfigObserver@@V?$transport_allocator@PAVIServiceConfigObserver@@@@@std@@@Z" PURGE="4" COMMENT="" />
    <EXPORT ORDINAL="18" NAME="??0?$AutoCleanup@V?$AutoDelete@VAdminSid@CSecurity@@@@PAVAdminSid@CSecurity@@@@QAE@PAVAdminSid@CSecurity@@@Z" PURGE="4" COMMENT="" />
    <EXPORT ORDINAL="19" NAME="??0?$AutoCleanup@V?$AutoDelete@VBlockedRecord@@@@PAVBlockedRecord@@@@QAE@PAVBlockedRecord@@@Z" PURGE="4" COMMENT="" />
    <EXPORT ORDINAL="20" NAME="??0?$AutoCleanup@V?$AutoDelete@VCBaseConfigCache@@@@PAVCBaseConfigCache@@@@QAE@PAVCBaseConfigCache@@@Z" PURGE="4" COMMENT="" />
    <EXPORT ORDINAL="21" NAME="??0?$AutoCleanup@V?$AutoDelete@VCCertMapping@@@@PAVCCertMapping@@@@QAE@PAVCCertMapping@@@Z" PURGE="4" COMMENT="" />
    <EXPORT ORDINAL="22" NAME="??0?$AutoCleanup@V?$AutoDelete@VCConfigChangeSource@@@@PAVCConfigChangeSource@@@@QAE@PAVCConfigChangeSource@@@Z" PURGE="4" COMMENT="" />
    <EXPORT ORDINAL="23" NAME="??0?$AutoCleanup@V?$AutoDelete@VCListenerSettings@@@@PAVCListenerSettings@@@@QAE@PAVCListenerSettings@@@Z" PURGE="4" COMMENT="" />
    <EXPORT ORDINAL="24" NAME="??0?$AutoCleanup@V?$AutoDelete@VCObserverConfigChangeErrors@@@@PAVCObserverConfigChangeErrors@@@@QAE@PAVCObserverConfigChangeErrors@@@Z" PURGE="4" COMMENT="" />
    <EXPORT ORDINAL="25" NAME="??0?$AutoCleanup@V?$AutoDelete@VCServiceWatcher@CServiceConfigCache@@@@PAVCServiceWatcher@CServiceConfigCache@@@@QAE@PAVCServiceWatcher@CServiceConfigCache@@@Z" PURGE="4" COMMENT="" />
    <EXPORT ORDINAL="26" NAME="??0?$AutoCleanup@V?$AutoDelete@VCShellUriSettings@@@@PAVCShellUriSettings@@@@QAE@PAVCShellUriSettings@@@Z" PURGE="4" COMMENT="" />
    <EXPORT ORDINAL="27" NAME="??0?$AutoCleanup@V?$AutoDelete@VCWSManEPR@@@@PAVCWSManEPR@@@@QAE@PAVCWSManEPR@@@Z" PURGE="4" COMMENT="" />
    <EXPORT ORDINAL="28" NAME="??0?$AutoCleanup@V?$AutoDelete@VCWSManResource@@@@PAVCWSManResource@@@@QAE@PAVCWSManResource@@@Z" PURGE="4" COMMENT="" />
    <EXPORT ORDINAL="29" NAME="??0?$AutoCleanup@V?$AutoDelete@VCertHash@@@@PAVCertHash@@@@QAE@PAVCertHash@@@Z" PURGE="4" COMMENT="" />
    <EXPORT ORDINAL="30" NAME="??0?$AutoCleanup@V?$AutoDelete@VConfigUpdate@@@@PAVConfigUpdate@@@@QAE@PAVConfigUpdate@@@Z" PURGE="4" COMMENT="" />
    <EXPORT ORDINAL="31" NAME="??0?$AutoCleanup@V?$AutoDelete@VEnumSinkEx@@@@PAVEnumSinkEx@@@@QAE@PAVEnumSinkEx@@@Z" PURGE="4" COMMENT="" />
    <EXPORT ORDINAL="32" NAME="??0?$AutoCleanup@V?$AutoDelete@VEnumSinkEx@@@@PAVEnumSinkEx@@@@QAE@XZ" PURGE="0" COMMENT="" />
    <EXPORT ORDINAL="33" NAME="??0?$AutoCleanup@V?$AutoDelete@VEventHandler@WSMan@@@@PAVEventHandler@WSMan@@@@QAE@PAVEventHandler@WSMan@@@Z" PURGE="4" COMMENT="" />
    <EXPORT ORDINAL="34" NAME="??0?$AutoCleanup@V?$AutoDelete@VExpiredOperationIdRecord@@@@PAVExpiredOperationIdRecord@@@@QAE@PAVExpiredOperationIdRecord@@@Z" PURGE="4" COMMENT="" />
    <EXPORT ORDINAL="35" NAME="??0?$AutoCleanup@V?$AutoDelete@VGPApiManager@@@@PAVGPApiManager@@@@QAE@PAVGPApiManager@@@Z" PURGE="4" COMMENT="" />
    <EXPORT ORDINAL="36" NAME="??0?$AutoCleanup@V?$AutoDelete@VGeneralSinkEx@@@@PAVGeneralSinkEx@@@@QAE@PAVGeneralSinkEx@@@Z" PURGE="4" COMMENT="" />
    <EXPORT ORDINAL="37" NAME="??0?$AutoCleanup@V?$AutoDelete@VGeneralSinkEx@@@@PAVGeneralSinkEx@@@@QAE@XZ" PURGE="0" COMMENT="" />
    <EXPORT ORDINAL="38" NAME="??0?$AutoCleanup@V?$AutoDelete@VIChannelObserverFactory@@@@PAVIChannelObserverFactory@@@@QAE@PAVIChannelObserverFactory@@@Z" PURGE="4" COMMENT="" />
    <EXPORT ORDINAL="39" NAME="??0?$AutoCleanup@V?$AutoDelete@VIQueryDASHSMASHInterface@@@@PAVIQueryDASHSMASHInterface@@@@QAE@PAVIQueryDASHSMASHInterface@@@Z" PURGE="4" COMMENT="" />
    <EXPORT ORDINAL="40" NAME="??0?$AutoCleanup@V?$AutoDelete@VIQueryDASHSMASHInterface@@@@PAVIQueryDASHSMASHInterface@@@@QAE@XZ" PURGE="0" COMMENT="" />
    <EXPORT ORDINAL="41" NAME="??0?$AutoCleanup@V?$AutoDelete@VISpecification@@@@PAVISpecification@@@@QAE@PAVISpecification@@@Z" PURGE="4" COMMENT="" />
    <EXPORT ORDINAL="42" NAME="??0?$AutoCleanup@V?$AutoDelete@VISpecification@@@@PAVISpecification@@@@QAE@XZ" PURGE="0" COMMENT="" />
    <EXPORT ORDINAL="43" NAME="??0?$AutoCleanup@V?$AutoDelete@VInteractiveSid@CSecurity@@@@PAVInteractiveSid@CSecurity@@@@QAE@PAVInteractiveSid@CSecurity@@@Z" PURGE="4" COMMENT="" />
    <EXPORT ORDINAL="44" NAME="??0?$AutoCleanup@V?$AutoDelete@VIpHlpApiDllLoader@@@@PAVIpHlpApiDllLoader@@@@QAE@PAVIpHlpApiDllLoader@@@Z" PURGE="4" COMMENT="" />
    <EXPORT ORDINAL="45" NAME="??0?$AutoCleanup@V?$AutoDelete@VMachineName@@@@PAVMachineName@@@@QAE@PAVMachineName@@@Z" PURGE="4" COMMENT="" />
    <EXPORT ORDINAL="46" NAME="??0?$AutoCleanup@V?$AutoDelete@VNetworkServiceSid@CSecurity@@@@PAVNetworkServiceSid@CSecurity@@@@QAE@PAVNetworkServiceSid@CSecurity@@@Z" PURGE="4" COMMENT="" />
    <EXPORT ORDINAL="47" NAME="??0?$AutoCleanup@V?$AutoDelete@VNtDsApiDllLoader@@@@PAVNtDsApiDllLoader@@@@QAE@PAVNtDsApiDllLoader@@@Z" PURGE="4" COMMENT="" />
    <EXPORT ORDINAL="48" NAME="??0?$AutoCleanup@V?$AutoDelete@VOptionValue@SessionOptions@Client@WSMan@@@@PAVOptionValue@SessionOptions@Client@WSMan@@@@QAE@PAVOptionValue@SessionOptions@Client@WSMan@@@Z" PURGE="4" COMMENT="" />
    <EXPORT ORDINAL="49" NAME="??0?$AutoCleanup@V?$AutoDelete@VPacketCreator@@@@PAVPacketCreator@@@@QAE@PAVPacketCreator@@@Z" PURGE="4" COMMENT="" />
    <EXPORT ORDINAL="50" NAME="??0?$AutoCleanup@V?$AutoDelete@VPacketParser@@@@PAVPacketParser@@@@QAE@PAVPacketParser@@@Z" PURGE="4" COMMENT="" />
    <EXPORT ORDINAL="51" NAME="??0?$AutoCleanup@V?$AutoDelete@VResources@Locale@@@@PAVResources@Locale@@@@QAE@PAVResources@Locale@@@Z" PURGE="4" COMMENT="" />
    <EXPORT ORDINAL="52" NAME="??0?$AutoCleanup@V?$AutoDelete@VRunAsConfiguration@@@@PAVRunAsConfiguration@@@@QAE@PAVRunAsConfiguration@@@Z" PURGE="4" COMMENT="" />
    <EXPORT ORDINAL="53" NAME="??0?$AutoCleanup@V?$AutoDelete@VSafeBufferWrite@@@@PAVSafeBufferWrite@@@@QAE@PAVSafeBufferWrite@@@Z" PURGE="4" COMMENT="" />
    <EXPORT ORDINAL="54" NAME="??0?$AutoCleanup@V?$AutoDelete@VSecurityEntry@Catalog@@@@PAVSecurityEntry@Catalog@@@@QAE@PAVSecurityEntry@Catalog@@@Z" PURGE="4" COMMENT="" />
    <EXPORT ORDINAL="55" NAME="??0?$AutoCleanup@V?$AutoDelete@VSendPacketArgs@RobustConnectionBuffer@@@@PAVSendPacketArgs@RobustConnectionBuffer@@@@QAE@PAVSendPacketArgs@RobustConnectionBuffer@@@Z" PURGE="4" COMMENT="" />
    <EXPORT ORDINAL="56" NAME="??0?$AutoCleanup@V?$AutoDelete@VServiceSoapProcessor@@@@PAVServiceSoapProcessor@@@@QAE@PAVServiceSoapProcessor@@@Z" PURGE="4" COMMENT="" />
    <EXPORT ORDINAL="57" NAME="??0?$AutoCleanup@V?$AutoDelete@VShell32DllLoader@@@@PAVShell32DllLoader@@@@QAE@PAVShell32DllLoader@@@Z" PURGE="4" COMMENT="" />
    <EXPORT ORDINAL="58" NAME="??0?$AutoCleanup@V?$AutoDelete@VShlWApiDllLoader@@@@PAVShlWApiDllLoader@@@@QAE@PAVShlWApiDllLoader@@@Z" PURGE="4" COMMENT="" />
    <EXPORT ORDINAL="59" NAME="??0?$AutoCleanup@V?$AutoDelete@VSubscriptionEnumerator@@@@PAVSubscriptionEnumerator@@@@QAE@PAVSubscriptionEnumerator@@@Z" PURGE="4" COMMENT="" />
    <EXPORT ORDINAL="60" NAME="??0?$AutoCleanup@V?$AutoDelete@VSubscriptionManager@@@@PAVSubscriptionManager@@@@QAE@PAVSubscriptionManager@@@Z" PURGE="4" COMMENT="" />
    <EXPORT ORDINAL="61" NAME="??0?$AutoCleanup@V?$AutoDelete@VTSTRBUFFER@@@@PAVTSTRBUFFER@@@@QAE@PAVTSTRBUFFER@@@Z" PURGE="4" COMMENT="" />
    <EXPORT ORDINAL="62" NAME="??0?$AutoCleanup@V?$AutoDelete@VTSTRBUFFER@@@@PAVTSTRBUFFER@@@@QAE@XZ" PURGE="0" COMMENT="" />
    <EXPORT ORDINAL="63" NAME="??0?$AutoCleanup@V?$AutoDelete@VUniqueStringOverflow@@@@PAVUniqueStringOverflow@@@@QAE@PAVUniqueStringOverflow@@@Z" PURGE="4" COMMENT="" />
    <EXPORT ORDINAL="64" NAME="??0?$AutoCleanup@V?$AutoDelete@VUser32DllLoader@@@@PAVUser32DllLoader@@@@QAE@PAVUser32DllLoader@@@Z" PURGE="4" COMMENT="" />
    <EXPORT ORDINAL="65" NAME="??0?$AutoCleanup@V?$AutoDelete@VWSMANCONFIGTABLE_IDENTITY@@@@PAVWSMANCONFIGTABLE_IDENTITY@@@@QAE@PAVWSMANCONFIGTABLE_IDENTITY@@@Z" PURGE="4" COMMENT="" />
    <EXPORT ORDINAL="66" NAME="??0?$AutoCleanup@V?$AutoDelete@VWSManMemCryptManager@@@@PAVWSManMemCryptManager@@@@QAE@PAVWSManMemCryptManager@@@Z" PURGE="4" COMMENT="" />
    <EXPORT ORDINAL="67" NAME="??0?$AutoCleanup@V?$AutoDelete@VWmiEnumContext@@@@PAVWmiEnumContext@@@@QAE@PAVWmiEnumContext@@@Z" PURGE="4" COMMENT="" />
    <EXPORT ORDINAL="68" NAME="??0?$AutoCleanup@V?$AutoDelete@VWmiEnumContext@@@@PAVWmiEnumContext@@@@QAE@XZ" PURGE="0" COMMENT="" />
    <EXPORT ORDINAL="69" NAME="??0?$AutoCleanup@V?$AutoDelete@VXmlReader@@@@PAVXmlReader@@@@QAE@PAVXmlReader@@@Z" PURGE="4" COMMENT="" />
    <EXPORT ORDINAL="70" NAME="??0?$AutoCleanup@V?$AutoDeleteVector@$$CBG@@PBG@@QAE@PBG@Z" PURGE="4" COMMENT="" />
    <EXPORT ORDINAL="71" NAME="??0?$AutoCleanup@V?$AutoDeleteVector@D@@PAD@@QAE@PAD@Z" PURGE="4" COMMENT="" />
    <EXPORT ORDINAL="72" NAME="??0?$AutoCleanup@V?$AutoDeleteVector@E@@PAE@@QAE@PAE@Z" PURGE="4" COMMENT="" />
    <EXPORT ORDINAL="73" NAME="??0?$AutoCleanup@V?$AutoDeleteVector@E@@PAE@@QAE@XZ" PURGE="0" COMMENT="" />
    <EXPORT ORDINAL="74" NAME="??0?$AutoCleanup@V?$AutoDeleteVector@G@@PAG@@QAE@PAG@Z" PURGE="4" COMMENT="" />
    <EXPORT ORDINAL="75" NAME="??0?$AutoCleanup@V?$AutoDeleteVector@G@@PAG@@QAE@XZ" PURGE="0" COMMENT="" />
    <EXPORT ORDINAL="76" NAME="??0?$AutoCleanup@V?$AutoDeleteVector@H@@PAH@@QAE@PAH@Z" PURGE="4" COMMENT="" />
    <EXPORT ORDINAL="77" NAME="??0?$AutoCleanup@V?$AutoDeleteVector@PAG@@PAPAG@@QAE@PAPAG@Z" PURGE="4" COMMENT="" />
    <EXPORT ORDINAL="78" NAME="??0?$AutoCleanup@V?$AutoDeleteVector@PAG@@PAPAG@@QAE@XZ" PURGE="0" COMMENT="" />
    <EXPORT ORDINAL="79" NAME="??0?$AutoCleanup@V?$AutoDeleteVector@PBG@@PAPBG@@QAE@PAPBG@Z" PURGE="4" COMMENT="" />
    <EXPORT ORDINAL="80" NAME="??0?$AutoCleanup@V?$AutoDeleteVector@PBG@@PAPBG@@QAE@XZ" PURGE="0" COMMENT="" />
    <EXPORT ORDINAL="81" NAME="??0?$AutoCleanup@V?$AutoDeleteVector@U_CONFIG_UPDATE@@@@PAU_CONFIG_UPDATE@@@@QAE@PAU_CONFIG_UPDATE@@@Z" PURGE="4" COMMENT="" />
    <EXPORT ORDINAL="82" NAME="??0?$AutoCleanup@V?$AutoDeleteVector@U_WINRS_CREATE_SHELL_ENVIRONMENT_VARIABLE@@@@PAU_WINRS_CREATE_SHELL_ENVIRONMENT_VARIABLE@@@@QAE@PAU_WINRS_CREATE_SHELL_ENVIRONMENT_VARIABLE@@@Z" PURGE="4" COMMENT="" />
    <EXPORT ORDINAL="83" NAME="??0?$AutoCleanup@V?$AutoDeleteVector@U_WINRS_CREATE_SHELL_ENVIRONMENT_VARIABLE@@@@PAU_WINRS_CREATE_SHELL_ENVIRONMENT_VARIABLE@@@@QAE@XZ" PURGE="0" COMMENT="" />
    <EXPORT ORDINAL="84" NAME="??0?$AutoCleanup@V?$AutoDeleteVector@U_WINRS_RUN_COMMAND_ARG@@@@PAU_WINRS_RUN_COMMAND_ARG@@@@QAE@PAU_WINRS_RUN_COMMAND_ARG@@@Z" PURGE="4" COMMENT="" />
    <EXPORT ORDINAL="85" NAME="??0?$AutoCleanup@V?$AutoDeleteVector@U_WINRS_RUN_COMMAND_ARG@@@@PAU_WINRS_RUN_COMMAND_ARG@@@@QAE@XZ" PURGE="0" COMMENT="" />
    <EXPORT ORDINAL="86" NAME="??0?$AutoCleanup@V?$AutoDeleteVector@U_WSMAN_OPTION@@@@PAU_WSMAN_OPTION@@@@QAE@PAU_WSMAN_OPTION@@@Z" PURGE="4" COMMENT="" />
    <EXPORT ORDINAL="87" NAME="??0?$AutoCleanup@V?$AutoDeleteVector@X@@PAX@@QAE@PAX@Z" PURGE="4" COMMENT="" />
    <EXPORT ORDINAL="88" NAME="??0?$AutoCleanup@V?$AutoFree@E@@PAE@@QAE@PAE@Z" PURGE="4" COMMENT="" />
    <EXPORT ORDINAL="89" NAME="??0?$AutoCleanup@V?$AutoLocklessItemRecycle@VPacket@@@@PAVPacket@@@@QAE@PAVPacket@@@Z" PURGE="4" COMMENT="" />
    <EXPORT ORDINAL="90" NAME="??0?$AutoCleanup@V?$AutoRelease@UIAppHostAdminManager@@@@PAUIAppHostAdminManager@@@@QAE@PAUIAppHostAdminManager@@@Z" PURGE="4" COMMENT="" />
    <EXPORT ORDINAL="91" NAME="??0?$AutoCleanup@V?$AutoRelease@UIAppHostChildElementCollection@@@@PAUIAppHostChildElementCollection@@@@QAE@PAUIAppHostChildElementCollection@@@Z" PURGE="4" COMMENT="" />
    <EXPORT ORDINAL="92" NAME="??0?$AutoCleanup@V?$AutoRelease@UIAppHostConfigException@@@@PAUIAppHostConfigException@@@@QAE@PAUIAppHostConfigException@@@Z" PURGE="4" COMMENT="" />
    <EXPORT ORDINAL="93" NAME="??0?$AutoCleanup@V?$AutoRelease@UIAppHostElement@@@@PAUIAppHostElement@@@@QAE@PAUIAppHostElement@@@Z" PURGE="4" COMMENT="" />
    <EXPORT ORDINAL="94" NAME="??0?$AutoCleanup@V?$AutoRelease@UIAppHostElementCollection@@@@PAUIAppHostElementCollection@@@@QAE@PAUIAppHostElementCollection@@@Z" PURGE="4" COMMENT="" />
    <EXPORT ORDINAL="95" NAME="??0?$AutoCleanup@V?$AutoRelease@UIAppHostProperty@@@@PAUIAppHostProperty@@@@QAE@PAUIAppHostProperty@@@Z" PURGE="4" COMMENT="" />
    <EXPORT ORDINAL="96" NAME="??0?$AutoCleanup@V?$AutoRelease@UIAppHostPropertyCollection@@@@PAUIAppHostPropertyCollection@@@@QAE@PAUIAppHostPropertyCollection@@@Z" PURGE="4" COMMENT="" />
    <EXPORT ORDINAL="97" NAME="??0?$AutoCleanup@V?$AutoRelease@UIClientSecurity@@@@PAUIClientSecurity@@@@QAE@PAUIClientSecurity@@@Z" PURGE="4" COMMENT="" />
    <EXPORT ORDINAL="98" NAME="??0?$AutoCleanup@V?$AutoRelease@UIClientSecurity@@@@PAUIClientSecurity@@@@QAE@XZ" PURGE="0" COMMENT="" />
    <EXPORT ORDINAL="99" NAME="??0?$AutoCleanup@V?$AutoRelease@UIEnumWbemClassObject@@@@PAUIEnumWbemClassObject@@@@QAE@PAUIEnumWbemClassObject@@@Z" PURGE="4" COMMENT="" />
    <EXPORT ORDINAL="100" NAME="??0?$AutoCleanup@V?$AutoRelease@UIEnumWbemClassObject@@@@PAUIEnumWbemClassObject@@@@QAE@XZ" PURGE="0" COMMENT="" />
    <EXPORT ORDINAL="101" NAME="??0?$AutoCleanup@V?$AutoRelease@UIErrorInfo@@@@PAUIErrorInfo@@@@QAE@PAUIErrorInfo@@@Z" PURGE="4" COMMENT="" />
    <EXPORT ORDINAL="102" NAME="??0?$AutoCleanup@V?$AutoRelease@UIErrorInfo@@@@PAUIErrorInfo@@@@QAE@XZ" PURGE="0" COMMENT="" />
    <EXPORT ORDINAL="103" NAME="??0?$AutoCleanup@V?$AutoRelease@UIUnknown@@@@PAUIUnknown@@@@QAE@PAUIUnknown@@@Z" PURGE="4" COMMENT="" />
    <EXPORT ORDINAL="104" NAME="??0?$AutoCleanup@V?$AutoRelease@UIUnknown@@@@PAUIUnknown@@@@QAE@XZ" PURGE="0" COMMENT="" />
    <EXPORT ORDINAL="105" NAME="??0?$AutoCleanup@V?$AutoRelease@UIWbemClassObject@@@@PAUIWbemClassObject@@@@QAE@PAUIWbemClassObject@@@Z" PURGE="4" COMMENT="" />
    <EXPORT ORDINAL="106" NAME="??0?$AutoCleanup@V?$AutoRelease@UIWbemClassObject@@@@PAUIWbemClassObject@@@@QAE@XZ" PURGE="0" COMMENT="" />
    <EXPORT ORDINAL="107" NAME="??0?$AutoCleanup@V?$AutoRelease@UIWbemContext@@@@PAUIWbemContext@@@@QAE@PAUIWbemContext@@@Z" PURGE="4" COMMENT="" />
    <EXPORT ORDINAL="108" NAME="??0?$AutoCleanup@V?$AutoRelease@UIWbemContext@@@@PAUIWbemContext@@@@QAE@XZ" PURGE="0" COMMENT="" />
    <EXPORT ORDINAL="109" NAME="??0?$AutoCleanup@V?$AutoRelease@UIWbemLocator@@@@PAUIWbemLocator@@@@QAE@PAUIWbemLocator@@@Z" PURGE="4" COMMENT="" />
    <EXPORT ORDINAL="110" NAME="??0?$AutoCleanup@V?$AutoRelease@UIWbemLocator@@@@PAUIWbemLocator@@@@QAE@XZ" PURGE="0" COMMENT="" />
    <EXPORT ORDINAL="111" NAME="??0?$AutoCleanup@V?$AutoRelease@UIWbemObjectTextSrc@@@@PAUIWbemObjectTextSrc@@@@QAE@PAUIWbemObjectTextSrc@@@Z" PURGE="4" COMMENT="" />
    <EXPORT ORDINAL="112" NAME="??0?$AutoCleanup@V?$AutoRelease@UIWbemObjectTextSrc@@@@PAUIWbemObjectTextSrc@@@@QAE@XZ" PURGE="0" COMMENT="" />
    <EXPORT ORDINAL="113" NAME="??0?$AutoCleanup@V?$AutoRelease@UIWbemPath@@@@PAUIWbemPath@@@@QAE@PAUIWbemPath@@@Z" PURGE="4" COMMENT="" />
    <EXPORT ORDINAL="114" NAME="??0?$AutoCleanup@V?$AutoRelease@UIWbemPath@@@@PAUIWbemPath@@@@QAE@XZ" PURGE="0" COMMENT="" />
    <EXPORT ORDINAL="115" NAME="??0?$AutoCleanup@V?$AutoRelease@UIWbemPathKeyList@@@@PAUIWbemPathKeyList@@@@QAE@PAUIWbemPathKeyList@@@Z" PURGE="4" COMMENT="" />
    <EXPORT ORDINAL="116" NAME="??0?$AutoCleanup@V?$AutoRelease@UIWbemPathKeyList@@@@PAUIWbemPathKeyList@@@@QAE@XZ" PURGE="0" COMMENT="" />
    <EXPORT ORDINAL="117" NAME="??0?$AutoCleanup@V?$AutoRelease@UIWbemQualifierSet@@@@PAUIWbemQualifierSet@@@@QAE@PAUIWbemQualifierSet@@@Z" PURGE="4" COMMENT="" />
    <EXPORT ORDINAL="118" NAME="??0?$AutoCleanup@V?$AutoRelease@UIWbemQualifierSet@@@@PAUIWbemQualifierSet@@@@QAE@XZ" PURGE="0" COMMENT="" />
    <EXPORT ORDINAL="119" NAME="??0?$AutoCleanup@V?$AutoRelease@UIWbemQuery@@@@PAUIWbemQuery@@@@QAE@PAUIWbemQuery@@@Z" PURGE="4" COMMENT="" />
    <EXPORT ORDINAL="120" NAME="??0?$AutoCleanup@V?$AutoRelease@UIWbemQuery@@@@PAUIWbemQuery@@@@QAE@XZ" PURGE="0" COMMENT="" />
    <EXPORT ORDINAL="121" NAME="??0?$AutoCleanup@V?$AutoRelease@UIWbemServices@@@@PAUIWbemServices@@@@QAE@PAUIWbemServices@@@Z" PURGE="4" COMMENT="" />
    <EXPORT ORDINAL="122" NAME="??0?$AutoCleanup@V?$AutoRelease@UIWbemServices@@@@PAUIWbemServices@@@@QAE@XZ" PURGE="0" COMMENT="" />
    <EXPORT ORDINAL="123" NAME="??0?$AutoCleanup@V?$AutoRelease@VApplication@Client@WSMan@@@@PAVApplication@Client@WSMan@@@@QAE@PAVApplication@Client@WSMan@@@Z" PURGE="4" COMMENT="" />
    <EXPORT ORDINAL="124" NAME="??0?$AutoCleanup@V?$AutoRelease@VCBaseConfigCache@@@@PAVCBaseConfigCache@@@@QAE@PAVCBaseConfigCache@@@Z" PURGE="4" COMMENT="" />
    <EXPORT ORDINAL="125" NAME="??0?$AutoCleanup@V?$AutoRelease@VCClientConfigSettings@@@@PAVCClientConfigSettings@@@@QAE@PAVCClientConfigSettings@@@Z" PURGE="4" COMMENT="" />
    <EXPORT ORDINAL="126" NAME="??0?$AutoCleanup@V?$AutoRelease@VCCommonConfigSettings@@@@PAVCCommonConfigSettings@@@@QAE@PAVCCommonConfigSettings@@@Z" PURGE="4" COMMENT="" />
    <EXPORT ORDINAL="127" NAME="??0?$AutoCleanup@V?$AutoRelease@VCConfigCacheMap@CBaseConfigCache@@@@PAVCConfigCacheMap@CBaseConfigCache@@@@QAE@PAVCConfigCacheMap@CBaseConfigCache@@@Z" PURGE="4" COMMENT="" />
    <EXPORT ORDINAL="128" NAME="??0?$AutoCleanup@V?$AutoRelease@VCConfigManager@@@@PAVCConfigManager@@@@QAE@PAVCConfigManager@@@Z" PURGE="4" COMMENT="" />
    <EXPORT ORDINAL="129" NAME="??0?$AutoCleanup@V?$AutoRelease@VCRemoteOperation@@@@PAVCRemoteOperation@@@@QAE@PAVCRemoteOperation@@@Z" PURGE="4" COMMENT="" />
    <EXPORT ORDINAL="130" NAME="??0?$AutoCleanup@V?$AutoRelease@VCRemoteSession@@@@PAVCRemoteSession@@@@QAE@PAVCRemoteSession@@@Z" PURGE="4" COMMENT="" />
    <EXPORT ORDINAL="131" NAME="??0?$AutoCleanup@V?$AutoRelease@VCRequestContext@@@@PAVCRequestContext@@@@QAE@PAVCRequestContext@@@Z" PURGE="4" COMMENT="" />
    <EXPORT ORDINAL="132" NAME="??0?$AutoCleanup@V?$AutoRelease@VCServiceCommonConfigSettings@@@@PAVCServiceCommonConfigSettings@@@@QAE@PAVCServiceCommonConfigSettings@@@Z" PURGE="4" COMMENT="" />
    <EXPORT ORDINAL="133" NAME="??0?$AutoCleanup@V?$AutoRelease@VCServiceConfigCache@@@@PAVCServiceConfigCache@@@@QAE@PAVCServiceConfigCache@@@Z" PURGE="4" COMMENT="" />
    <EXPORT ORDINAL="134" NAME="??0?$AutoCleanup@V?$AutoRelease@VCServiceConfigSettings@@@@PAVCServiceConfigSettings@@@@QAE@PAVCServiceConfigSettings@@@Z" PURGE="4" COMMENT="" />
    <EXPORT ORDINAL="135" NAME="??0?$AutoCleanup@V?$AutoRelease@VCWSManEPR@@@@PAVCWSManEPR@@@@QAE@PAVCWSManEPR@@@Z" PURGE="4" COMMENT="" />
    <EXPORT ORDINAL="136" NAME="??0?$AutoCleanup@V?$AutoRelease@VCWSManEPR@@@@PAVCWSManEPR@@@@QAE@XZ" PURGE="0" COMMENT="" />
    <EXPORT ORDINAL="137" NAME="??0?$AutoCleanup@V?$AutoRelease@VCWSManGroupPolicyCache@@@@PAVCWSManGroupPolicyCache@@@@QAE@PAVCWSManGroupPolicyCache@@@Z" PURGE="4" COMMENT="" />
    <EXPORT ORDINAL="138" NAME="??0?$AutoCleanup@V?$AutoRelease@VCWSManGroupPolicyManager@@@@PAVCWSManGroupPolicyManager@@@@QAE@PAVCWSManGroupPolicyManager@@@Z" PURGE="4" COMMENT="" />
    <EXPORT ORDINAL="139" NAME="??0?$AutoCleanup@V?$AutoRelease@VCWSManObject@@@@PAVCWSManObject@@@@QAE@PAVCWSManObject@@@Z" PURGE="4" COMMENT="" />
    <EXPORT ORDINAL="140" NAME="??0?$AutoCleanup@V?$AutoRelease@VCWSManResource@@@@PAVCWSManResource@@@@QAE@PAVCWSManResource@@@Z" PURGE="4" COMMENT="" />
    <EXPORT ORDINAL="141" NAME="??0?$AutoCleanup@V?$AutoRelease@VCWinRSPluginConfigCache@@@@PAVCWinRSPluginConfigCache@@@@QAE@PAVCWinRSPluginConfigCache@@@Z" PURGE="4" COMMENT="" />
    <EXPORT ORDINAL="142" NAME="??0?$AutoCleanup@V?$AutoRelease@VCWinRSPluginConfigCache@@@@PAVCWinRSPluginConfigCache@@@@QAE@XZ" PURGE="0" COMMENT="" />
    <EXPORT ORDINAL="143" NAME="??0?$AutoCleanup@V?$AutoRelease@VCWinRSPluginConfigSettings@@@@PAVCWinRSPluginConfigSettings@@@@QAE@PAVCWinRSPluginConfigSettings@@@Z" PURGE="4" COMMENT="" />
    <EXPORT ORDINAL="144" NAME="??0?$AutoCleanup@V?$AutoRelease@VCommand@Client@WSMan@@@@PAVCommand@Client@WSMan@@@@QAE@PAVCommand@Client@WSMan@@@Z" PURGE="4" COMMENT="" />
    <EXPORT ORDINAL="145" NAME="??0?$AutoCleanup@V?$AutoRelease@VConfigNotification@@@@PAVConfigNotification@@@@QAE@PAVConfigNotification@@@Z" PURGE="4" COMMENT="" />
    <EXPORT ORDINAL="146" NAME="??0?$AutoCleanup@V?$AutoRelease@VConnectShellOperation@Client@WSMan@@@@PAVConnectShellOperation@Client@WSMan@@@@QAE@PAVConnectShellOperation@Client@WSMan@@@Z" PURGE="4" COMMENT="" />
    <EXPORT ORDINAL="147" NAME="??0?$AutoCleanup@V?$AutoRelease@VCreateShellOperation@Client@WSMan@@@@PAVCreateShellOperation@Client@WSMan@@@@QAE@PAVCreateShellOperation@Client@WSMan@@@Z" PURGE="4" COMMENT="" />
    <EXPORT ORDINAL="148" NAME="??0?$AutoCleanup@V?$AutoRelease@VDeleteShellOperation@Client@WSMan@@@@PAVDeleteShellOperation@Client@WSMan@@@@QAE@PAVDeleteShellOperation@Client@WSMan@@@Z" PURGE="4" COMMENT="" />
    <EXPORT ORDINAL="149" NAME="??0?$AutoCleanup@V?$AutoRelease@VDisconnectOperation@Client@WSMan@@@@PAVDisconnectOperation@Client@WSMan@@@@QAE@PAVDisconnectOperation@Client@WSMan@@@Z" PURGE="4" COMMENT="" />
    <EXPORT ORDINAL="150" NAME="??0?$AutoCleanup@V?$AutoRelease@VEnumSinkEx@@@@PAVEnumSinkEx@@@@QAE@PAVEnumSinkEx@@@Z" PURGE="4" COMMENT="" />
    <EXPORT ORDINAL="151" NAME="??0?$AutoCleanup@V?$AutoRelease@VEnumSinkEx@@@@PAVEnumSinkEx@@@@QAE@XZ" PURGE="0" COMMENT="" />
    <EXPORT ORDINAL="152" NAME="??0?$AutoCleanup@V?$AutoRelease@VGeneralSinkEx@@@@PAVGeneralSinkEx@@@@QAE@PAVGeneralSinkEx@@@Z" PURGE="4" COMMENT="" />
    <EXPORT ORDINAL="153" NAME="??0?$AutoCleanup@V?$AutoRelease@VGeneralSinkEx@@@@PAVGeneralSinkEx@@@@QAE@XZ" PURGE="0" COMMENT="" />
    <EXPORT ORDINAL="154" NAME="??0?$AutoCleanup@V?$AutoRelease@VIISConfigSettings@@@@PAVIISConfigSettings@@@@QAE@PAVIISConfigSettings@@@Z" PURGE="4" COMMENT="" />
    <EXPORT ORDINAL="155" NAME="??0?$AutoCleanup@V?$AutoRelease@VIPCSoapProcessor@@@@PAVIPCSoapProcessor@@@@QAE@PAVIPCSoapProcessor@@@Z" PURGE="4" COMMENT="" />
    <EXPORT ORDINAL="156" NAME="??0?$AutoCleanup@V?$AutoRelease@VIRequestContext@@@@PAVIRequestContext@@@@QAE@PAVIRequestContext@@@Z" PURGE="4" COMMENT="" />
    <EXPORT ORDINAL="157" NAME="??0?$AutoCleanup@V?$AutoRelease@VIRequestContext@@@@PAVIRequestContext@@@@QAE@XZ" PURGE="0" COMMENT="" />
    <EXPORT ORDINAL="158" NAME="??0?$AutoCleanup@V?$AutoRelease@VISubscription@@@@PAVISubscription@@@@QAE@PAVISubscription@@@Z" PURGE="4" COMMENT="" />
    <EXPORT ORDINAL="159" NAME="??0?$AutoCleanup@V?$AutoRelease@VInboundRequestDetails@@@@PAVInboundRequestDetails@@@@QAE@PAVInboundRequestDetails@@@Z" PURGE="4" COMMENT="" />
    <EXPORT ORDINAL="160" NAME="??0?$AutoCleanup@V?$AutoRelease@VReceiveOperation@Client@WSMan@@@@PAVReceiveOperation@Client@WSMan@@@@QAE@PAVReceiveOperation@Client@WSMan@@@Z" PURGE="4" COMMENT="" />
    <EXPORT ORDINAL="161" NAME="??0?$AutoCleanup@V?$AutoRelease@VReconnectOperation@Client@WSMan@@@@PAVReconnectOperation@Client@WSMan@@@@QAE@PAVReconnectOperation@Client@WSMan@@@Z" PURGE="4" COMMENT="" />
    <EXPORT ORDINAL="162" NAME="??0?$AutoCleanup@V?$AutoRelease@VSendOperation@Client@WSMan@@@@PAVSendOperation@Client@WSMan@@@@QAE@PAVSendOperation@Client@WSMan@@@Z" PURGE="4" COMMENT="" />
    <EXPORT ORDINAL="163" NAME="??0?$AutoCleanup@V?$AutoRelease@VShell@Client@WSMan@@@@PAVShell@Client@WSMan@@@@QAE@PAVShell@Client@WSMan@@@Z" PURGE="4" COMMENT="" />
    <EXPORT ORDINAL="164" NAME="??0?$AutoCleanup@V?$AutoRelease@VShellInfo@@@@PAVShellInfo@@@@QAE@PAVShellInfo@@@Z" PURGE="4" COMMENT="" />
    <EXPORT ORDINAL="165" NAME="??0?$AutoCleanup@V?$AutoRelease@VSignalOperation@Client@WSMan@@@@PAVSignalOperation@Client@WSMan@@@@QAE@PAVSignalOperation@Client@WSMan@@@Z" PURGE="4" COMMENT="" />
    <EXPORT ORDINAL="166" NAME="??0?$AutoCleanup@V?$AutoRelease@VUserRecord@@@@PAVUserRecord@@@@QAE@PAVUserRecord@@@Z" PURGE="4" COMMENT="" />
    <EXPORT ORDINAL="167" NAME="??0?$AutoCleanup@V?$AutoRelease@VWSManHttpListener@@@@PAVWSManHttpListener@@@@QAE@PAVWSManHttpListener@@@Z" PURGE="4" COMMENT="" />
    <EXPORT ORDINAL="168" NAME="??0?$AutoCleanup@V?$AutoReleaseEx@VHostMappingTableEntry@@@@PAVHostMappingTableEntry@@@@QAE@PAVHostMappingTableEntry@@@Z" PURGE="4" COMMENT="" />
    <EXPORT ORDINAL="169" NAME="??0?$AutoCleanup@V?$AutoReleaseEx@VShell@Client@WSMan@@@@PAVShell@Client@WSMan@@@@QAE@PAVShell@Client@WSMan@@@Z" PURGE="4" COMMENT="" />
    <EXPORT ORDINAL="170" NAME="??0?$AutoCleanup@VAutoBstr@@PAG@@QAE@PAG@Z" PURGE="4" COMMENT="" />
    <EXPORT ORDINAL="171" NAME="??0?$AutoCleanup@VAutoBstr@@PAG@@QAE@XZ" PURGE="0" COMMENT="" />
    <EXPORT ORDINAL="172" NAME="??0?$AutoCleanup@VAutoBstrNoAlloc@@PAG@@QAE@PAG@Z" PURGE="4" COMMENT="" />
    <EXPORT ORDINAL="173" NAME="??0?$AutoCleanup@VAutoBstrNoAlloc@@PAG@@QAE@XZ" PURGE="0" COMMENT="" />
    <EXPORT ORDINAL="174" NAME="??0?$AutoCleanup@VAutoCertContext@@PBU_CERT_CONTEXT@@@@QAE@PBU_CERT_CONTEXT@@@Z" PURGE="4" COMMENT="" />
    <EXPORT ORDINAL="175" NAME="??0?$AutoCleanup@VAutoCertContext@@PBU_CERT_CONTEXT@@@@QAE@XZ" PURGE="0" COMMENT="" />
    <EXPORT ORDINAL="176" NAME="??0?$AutoCleanup@VAutoChainContext@@PBU_CERT_CHAIN_CONTEXT@@@@QAE@PBU_CERT_CHAIN_CONTEXT@@@Z" PURGE="4" COMMENT="" />
    <EXPORT ORDINAL="177" NAME="??0?$AutoCleanup@VAutoChainContext@@PBU_CERT_CHAIN_CONTEXT@@@@QAE@XZ" PURGE="0" COMMENT="" />
    <EXPORT ORDINAL="178" NAME="??0?$AutoCleanup@VAutoCoTaskMemFree@@PAX@@QAE@PAX@Z" PURGE="4" COMMENT="" />
    <EXPORT ORDINAL="179" NAME="??0?$AutoCleanup@VAutoCoTaskMemFree@@PAX@@QAE@XZ" PURGE="0" COMMENT="" />
    <EXPORT ORDINAL="180" NAME="??0?$AutoCleanup@VAutoFwXmlCloseParser@@PAX@@QAE@PAX@Z" PURGE="4" COMMENT="" />
    <EXPORT ORDINAL="181" NAME="??0?$AutoCleanup@VAutoFwXmlCloseParser@@PAX@@QAE@XZ" PURGE="0" COMMENT="" />
    <EXPORT ORDINAL="182" NAME="??0?$AutoCleanup@VAutoHandle@@PAX@@QAE@PAX@Z" PURGE="4" COMMENT="" />
    <EXPORT ORDINAL="183" NAME="??0?$AutoCleanup@VAutoHandle@@PAX@@QAE@XZ" PURGE="0" COMMENT="" />
    <EXPORT ORDINAL="184" NAME="??0?$AutoCleanup@VAutoImpersonateUser@@PAX@@QAE@PAX@Z" PURGE="4" COMMENT="" />
    <EXPORT ORDINAL="185" NAME="??0?$AutoCleanup@VAutoImpersonateUser@@PAX@@QAE@XZ" PURGE="0" COMMENT="" />
    <EXPORT ORDINAL="186" NAME="??0?$AutoCleanup@VAutoLibrary@@PAUHINSTANCE__@@@@QAE@PAUHINSTANCE__@@@Z" PURGE="4" COMMENT="" />
    <EXPORT ORDINAL="187" NAME="??0?$AutoCleanup@VAutoLibrary@@PAUHINSTANCE__@@@@QAE@XZ" PURGE="0" COMMENT="" />
    <EXPORT ORDINAL="188" NAME="??0?$AutoCleanup@VAutoLocalFree@@PAX@@QAE@PAX@Z" PURGE="4" COMMENT="" />
    <EXPORT ORDINAL="189" NAME="??0?$AutoCleanup@VAutoLocalFree@@PAX@@QAE@XZ" PURGE="0" COMMENT="" />
    <EXPORT ORDINAL="190" NAME="??0?$AutoCleanup@VAutoMIClass@@PAU_MI_Class@@@@QAE@PAU_MI_Class@@@Z" PURGE="4" COMMENT="" />
    <EXPORT ORDINAL="191" NAME="??0?$AutoCleanup@VAutoMIClass@@PAU_MI_Class@@@@QAE@XZ" PURGE="0" COMMENT="" />
    <EXPORT ORDINAL="192" NAME="??0?$AutoCleanup@VAutoMIInstance@@PAU_MI_Instance@@@@QAE@PAU_MI_Instance@@@Z" PURGE="4" COMMENT="" />
    <EXPORT ORDINAL="193" NAME="??0?$AutoCleanup@VAutoMIInstance@@PAU_MI_Instance@@@@QAE@XZ" PURGE="0" COMMENT="" />
    <EXPORT ORDINAL="194" NAME="??0?$AutoCleanup@VAutoObject@@PAUWSMAN_OBJECT@@@@QAE@PAUWSMAN_OBJECT@@@Z" PURGE="4" COMMENT="" />
    <EXPORT ORDINAL="195" NAME="??0?$AutoCleanup@VAutoObject@@PAUWSMAN_OBJECT@@@@QAE@XZ" PURGE="0" COMMENT="" />
    <EXPORT ORDINAL="196" NAME="??0?$AutoCleanup@VAutoRegKey@@PAUHKEY__@@@@QAE@PAUHKEY__@@@Z" PURGE="4" COMMENT="" />
    <EXPORT ORDINAL="197" NAME="??0?$AutoCleanup@VAutoRegKey@@PAUHKEY__@@@@QAE@XZ" PURGE="0" COMMENT="" />
    <EXPORT ORDINAL="198" NAME="??0?$AutoCleanup@VAutoSecurityDescriptor@@PAX@@QAE@PAX@Z" PURGE="4" COMMENT="" />
    <EXPORT ORDINAL="199" NAME="??0?$AutoCleanup@VAutoSecurityDescriptor@@PAX@@QAE@XZ" PURGE="0" COMMENT="" />
    <EXPORT ORDINAL="200" NAME="??0?$AutoCleanup@VAutoWaitHandle@@PAX@@QAE@PAX@Z" PURGE="4" COMMENT="" />
    <EXPORT ORDINAL="201" NAME="??0?$AutoCleanup@VAutoWaitHandle@@PAX@@QAE@XZ" PURGE="0" COMMENT="" />
    <EXPORT ORDINAL="202" NAME="??0?$AutoDelete@D@@QAE@XZ" PURGE="0" COMMENT="" />
    <EXPORT ORDINAL="203" NAME="??0?$AutoDelete@G@@QAE@PAG@Z" PURGE="4" COMMENT="" />
    <EXPORT ORDINAL="204" NAME="??0?$AutoDelete@G@@QAE@XZ" PURGE="0" COMMENT="" />
    <EXPORT ORDINAL="205" NAME="??0?$AutoDelete@UIPRange@CWSManIPFilter@@@@QAE@XZ" PURGE="0" COMMENT="" />
    <EXPORT ORDINAL="206" NAME="??0?$AutoDelete@U_SID@@@@QAE@PAU_SID@@@Z" PURGE="4" COMMENT="" />
    <EXPORT ORDINAL="207" NAME="??0?$AutoDelete@U_WSMAN_STREAM_ID_SET@@@@QAE@PAU_WSMAN_STREAM_ID_SET@@@Z" PURGE="4" COMMENT="" />
    <EXPORT ORDINAL="208" NAME="??0?$AutoDelete@V?$Handle@VISubscription@@@@@@QAE@PAV?$Handle@VISubscription@@@@@Z" PURGE="4" COMMENT="" />
    <EXPORT ORDINAL="209" NAME="??0?$AutoDelete@V?$SafeMap_Iterator@VStringKeyCI@@K@@@@QAE@XZ" PURGE="0" COMMENT="" />
    <EXPORT ORDINAL="210" NAME="??0?$AutoDelete@V?$SafeMap_Iterator@W4WSManSessionOption@@PAVOptionValue@SessionOptions@Client@WSMan@@@@@@QAE@XZ" PURGE="0" COMMENT="" />
    <EXPORT ORDINAL="211" NAME="??0?$AutoDelete@V?$SafeSet@PAVCCertMapping@@@@@@QAE@PAV?$SafeSet@PAVCCertMapping@@@@@Z" PURGE="4" COMMENT="" />
    <EXPORT ORDINAL="212" NAME="??0?$AutoDelete@V?$SafeSet@PAVCCertMapping@@@@@@QAE@XZ" PURGE="0" COMMENT="" />
    <EXPORT ORDINAL="213" NAME="??0?$AutoDelete@V?$SafeSet@PAVCShellUriSettings@@@@@@QAE@PAV?$SafeSet@PAVCShellUriSettings@@@@@Z" PURGE="4" COMMENT="" />
    <EXPORT ORDINAL="214" NAME="??0?$AutoDelete@V?$SafeSet@PAVCShellUriSettings@@@@@@QAE@XZ" PURGE="0" COMMENT="" />
    <EXPORT ORDINAL="215" NAME="??0?$AutoDelete@V?$SafeSet_Iterator@PAVCListenerOperation@@@@@@QAE@XZ" PURGE="0" COMMENT="" />
    <EXPORT ORDINAL="216" NAME="??0?$AutoDelete@V?$SimpleStack@VCListenerOperation@@@@@@QAE@XZ" PURGE="0" COMMENT="" />
    <EXPORT ORDINAL="217" NAME="??0?$AutoDelete@V?$SimpleStack@VShellHostEntry@@@@@@QAE@XZ" PURGE="0" COMMENT="" />
    <EXPORT ORDINAL="218" NAME="??0?$AutoDelete@V?$set@PAVCListenerSettings@@VCListenerSettingsLessFunctor@CServiceConfigSettings@@V?$transport_allocator@PAVCListenerSettings@@@@@std@@@@QAE@PAV?$set@PAVCListenerSettings@@VCListenerSettingsLessFunctor@CServiceConfigSettings@@V?$transport_allocator@PAVCListenerSettings@@@@@std@@@Z" PURGE="4" COMMENT="" />
    <EXPORT ORDINAL="219" NAME="??0?$AutoDelete@V?$set@PAVCListenerSettings@@VCListenerSettingsLessFunctor@CServiceConfigSettings@@V?$transport_allocator@PAVCListenerSettings@@@@@std@@@@QAE@XZ" PURGE="0" COMMENT="" />
    <EXPORT ORDINAL="220" NAME="??0?$AutoDelete@V?$set@Usockaddr_storage@@VSockAddrLessFunctor@CListenerSettings@@V?$transport_allocator@Usockaddr_storage@@@@@std@@@@QAE@XZ" PURGE="0" COMMENT="" />
    <EXPORT ORDINAL="221" NAME="??0?$AutoDelete@V?$vector@PAVHandleImpl@Client@WSMan@@V?$transport_allocator@PAVHandleImpl@Client@WSMan@@@@@std@@@@QAE@XZ" PURGE="0" COMMENT="" />
    <EXPORT ORDINAL="222" NAME="??0?$AutoDelete@V?$vector@PAVIServiceConfigObserver@@V?$transport_allocator@PAVIServiceConfigObserver@@@@@std@@@@QAE@XZ" PURGE="0" COMMENT="" />
    <EXPORT ORDINAL="223" NAME="??0?$AutoDelete@VAdminSid@CSecurity@@@@QAE@PAVAdminSid@CSecurity@@@Z" PURGE="4" COMMENT="" />
    <EXPORT ORDINAL="224" NAME="??0?$AutoDelete@VBlockedRecord@@@@QAE@XZ" PURGE="0" COMMENT="" />
    <EXPORT ORDINAL="225" NAME="??0?$AutoDelete@VCBaseConfigCache@@@@QAE@PAVCBaseConfigCache@@@Z" PURGE="4" COMMENT="" />
    <EXPORT ORDINAL="226" NAME="??0?$AutoDelete@VCCertMapping@@@@QAE@PAVCCertMapping@@@Z" PURGE="4" COMMENT="" />
    <EXPORT ORDINAL="227" NAME="??0?$AutoDelete@VCConfigChangeSource@@@@QAE@XZ" PURGE="0" COMMENT="" />
    <EXPORT ORDINAL="228" NAME="??0?$AutoDelete@VCListenerSettings@@@@QAE@PAVCListenerSettings@@@Z" PURGE="4" COMMENT="" />
    <EXPORT ORDINAL="229" NAME="??0?$AutoDelete@VCObserverConfigChangeErrors@@@@QAE@XZ" PURGE="0" COMMENT="" />
    <EXPORT ORDINAL="230" NAME="??0?$AutoDelete@VCServiceWatcher@CServiceConfigCache@@@@QAE@PAVCServiceWatcher@CServiceConfigCache@@@Z" PURGE="4" COMMENT="" />
    <EXPORT ORDINAL="231" NAME="??0?$AutoDelete@VCServiceWatcher@CServiceConfigCache@@@@QAE@XZ" PURGE="0" COMMENT="" />
    <EXPORT ORDINAL="232" NAME="??0?$AutoDelete@VCShellUriSettings@@@@QAE@PAVCShellUriSettings@@@Z" PURGE="4" COMMENT="" />
    <EXPORT ORDINAL="233" NAME="??0?$AutoDelete@VCWSManEPR@@@@QAE@PAVCWSManEPR@@@Z" PURGE="4" COMMENT="" />
    <EXPORT ORDINAL="234" NAME="??0?$AutoDelete@VCWSManResource@@@@QAE@PAVCWSManResource@@@Z" PURGE="4" COMMENT="" />
    <EXPORT ORDINAL="235" NAME="??0?$AutoDelete@VCWSManResource@@@@QAE@XZ" PURGE="0" COMMENT="" />
    <EXPORT ORDINAL="236" NAME="??0?$AutoDelete@VCertHash@@@@QAE@PAVCertHash@@@Z" PURGE="4" COMMENT="" />
    <EXPORT ORDINAL="237" NAME="??0?$AutoDelete@VCertHash@@@@QAE@XZ" PURGE="0" COMMENT="" />
    <EXPORT ORDINAL="238" NAME="??0?$AutoDelete@VConfigUpdate@@@@QAE@PAVConfigUpdate@@@Z" PURGE="4" COMMENT="" />
    <EXPORT ORDINAL="239" NAME="??0?$AutoDelete@VConfigUpdate@@@@QAE@XZ" PURGE="0" COMMENT="" />
    <EXPORT ORDINAL="240" NAME="??0?$AutoDelete@VEnumSinkEx@@@@QAE@PAVEnumSinkEx@@@Z" PURGE="4" COMMENT="" />
    <EXPORT ORDINAL="241" NAME="??0?$AutoDelete@VEnumSinkEx@@@@QAE@XZ" PURGE="0" COMMENT="" />
    <EXPORT ORDINAL="242" NAME="??0?$AutoDelete@VEventHandler@WSMan@@@@QAE@PAVEventHandler@WSMan@@@Z" PURGE="4" COMMENT="" />
    <EXPORT ORDINAL="243" NAME="??0?$AutoDelete@VExpiredOperationIdRecord@@@@QAE@PAVExpiredOperationIdRecord@@@Z" PURGE="4" COMMENT="" />
    <EXPORT ORDINAL="244" NAME="??0?$AutoDelete@VGPApiManager@@@@QAE@XZ" PURGE="0" COMMENT="" />
    <EXPORT ORDINAL="245" NAME="??0?$AutoDelete@VGeneralSinkEx@@@@QAE@PAVGeneralSinkEx@@@Z" PURGE="4" COMMENT="" />
    <EXPORT ORDINAL="246" NAME="??0?$AutoDelete@VGeneralSinkEx@@@@QAE@XZ" PURGE="0" COMMENT="" />
    <EXPORT ORDINAL="247" NAME="??0?$AutoDelete@VIChannelObserverFactory@@@@QAE@PAVIChannelObserverFactory@@@Z" PURGE="4" COMMENT="" />
    <EXPORT ORDINAL="248" NAME="??0?$AutoDelete@VIChannelObserverFactory@@@@QAE@XZ" PURGE="0" COMMENT="" />
    <EXPORT ORDINAL="249" NAME="??0?$AutoDelete@VIQueryDASHSMASHInterface@@@@QAE@PAVIQueryDASHSMASHInterface@@@Z" PURGE="4" COMMENT="" />
    <EXPORT ORDINAL="250" NAME="??0?$AutoDelete@VIQueryDASHSMASHInterface@@@@QAE@XZ" PURGE="0" COMMENT="" />
    <EXPORT ORDINAL="251" NAME="??0?$AutoDelete@VISpecification@@@@QAE@PAVISpecification@@@Z" PURGE="4" COMMENT="" />
    <EXPORT ORDINAL="252" NAME="??0?$AutoDelete@VISpecification@@@@QAE@XZ" PURGE="0" COMMENT="" />
    <EXPORT ORDINAL="253" NAME="??0?$AutoDelete@VInteractiveSid@CSecurity@@@@QAE@PAVInteractiveSid@CSecurity@@@Z" PURGE="4" COMMENT="" />
    <EXPORT ORDINAL="254" NAME="??0?$AutoDelete@VIpHlpApiDllLoader@@@@QAE@PAVIpHlpApiDllLoader@@@Z" PURGE="4" COMMENT="" />
    <EXPORT ORDINAL="255" NAME="??0?$AutoDelete@VMachineName@@@@QAE@PAVMachineName@@@Z" PURGE="4" COMMENT="" />
    <EXPORT ORDINAL="256" NAME="??0?$AutoDelete@VNetworkServiceSid@CSecurity@@@@QAE@PAVNetworkServiceSid@CSecurity@@@Z" PURGE="4" COMMENT="" />
    <EXPORT ORDINAL="257" NAME="??0?$AutoDelete@VNtDsApiDllLoader@@@@QAE@PAVNtDsApiDllLoader@@@Z" PURGE="4" COMMENT="" />
    <EXPORT ORDINAL="258" NAME="??0?$AutoDelete@VOptionValue@SessionOptions@Client@WSMan@@@@QAE@PAVOptionValue@SessionOptions@Client@WSMan@@@Z" PURGE="4" COMMENT="" />
    <EXPORT ORDINAL="259" NAME="??0?$AutoDelete@VPacketCreator@@@@QAE@PAVPacketCreator@@@Z" PURGE="4" COMMENT="" />
    <EXPORT ORDINAL="260" NAME="??0?$AutoDelete@VPacketCreator@@@@QAE@XZ" PURGE="0" COMMENT="" />
    <EXPORT ORDINAL="261" NAME="??0?$AutoDelete@VPacketParser@@@@QAE@XZ" PURGE="0" COMMENT="" />
    <EXPORT ORDINAL="262" NAME="??0?$AutoDelete@VResources@Locale@@@@QAE@PAVResources@Locale@@@Z" PURGE="4" COMMENT="" />
    <EXPORT ORDINAL="263" NAME="??0?$AutoDelete@VRunAsConfiguration@@@@QAE@PAVRunAsConfiguration@@@Z" PURGE="4" COMMENT="" />
    <EXPORT ORDINAL="264" NAME="??0?$AutoDelete@VSafeBufferWrite@@@@QAE@PAVSafeBufferWrite@@@Z" PURGE="4" COMMENT="" />
    <EXPORT ORDINAL="265" NAME="??0?$AutoDelete@VSecurityEntry@Catalog@@@@QAE@PAVSecurityEntry@Catalog@@@Z" PURGE="4" COMMENT="" />
    <EXPORT ORDINAL="266" NAME="??0?$AutoDelete@VSendPacketArgs@RobustConnectionBuffer@@@@QAE@PAVSendPacketArgs@RobustConnectionBuffer@@@Z" PURGE="4" COMMENT="" />
    <EXPORT ORDINAL="267" NAME="??0?$AutoDelete@VServiceSoapProcessor@@@@QAE@XZ" PURGE="0" COMMENT="" />
    <EXPORT ORDINAL="268" NAME="??0?$AutoDelete@VShell32DllLoader@@@@QAE@PAVShell32DllLoader@@@Z" PURGE="4" COMMENT="" />
    <EXPORT ORDINAL="269" NAME="??0?$AutoDelete@VShlWApiDllLoader@@@@QAE@PAVShlWApiDllLoader@@@Z" PURGE="4" COMMENT="" />
    <EXPORT ORDINAL="270" NAME="??0?$AutoDelete@VSubscriptionEnumerator@@@@QAE@XZ" PURGE="0" COMMENT="" />
    <EXPORT ORDINAL="271" NAME="??0?$AutoDelete@VSubscriptionManager@@@@QAE@PAVSubscriptionManager@@@Z" PURGE="4" COMMENT="" />
    <EXPORT ORDINAL="272" NAME="??0?$AutoDelete@VTSTRBUFFER@@@@QAE@PAVTSTRBUFFER@@@Z" PURGE="4" COMMENT="" />
    <EXPORT ORDINAL="273" NAME="??0?$AutoDelete@VTSTRBUFFER@@@@QAE@XZ" PURGE="0" COMMENT="" />
    <EXPORT ORDINAL="274" NAME="??0?$AutoDelete@VUniqueStringOverflow@@@@QAE@XZ" PURGE="0" COMMENT="" />
    <EXPORT ORDINAL="275" NAME="??0?$AutoDelete@VUser32DllLoader@@@@QAE@PAVUser32DllLoader@@@Z" PURGE="4" COMMENT="" />
    <EXPORT ORDINAL="276" NAME="??0?$AutoDelete@VWSMANCONFIGTABLE_IDENTITY@@@@QAE@PAVWSMANCONFIGTABLE_IDENTITY@@@Z" PURGE="4" COMMENT="" />
    <EXPORT ORDINAL="277" NAME="??0?$AutoDelete@VWSManMemCryptManager@@@@QAE@PAVWSManMemCryptManager@@@Z" PURGE="4" COMMENT="" />
    <EXPORT ORDINAL="278" NAME="??0?$AutoDelete@VWmiEnumContext@@@@QAE@PAVWmiEnumContext@@@Z" PURGE="4" COMMENT="" />
    <EXPORT ORDINAL="279" NAME="??0?$AutoDelete@VWmiEnumContext@@@@QAE@XZ" PURGE="0" COMMENT="" />
    <EXPORT ORDINAL="280" NAME="??0?$AutoDelete@VXmlReader@@@@QAE@PAVXmlReader@@@Z" PURGE="4" COMMENT="" />
    <EXPORT ORDINAL="281" NAME="??0?$AutoDelete@VXmlReader@@@@QAE@XZ" PURGE="0" COMMENT="" />
    <EXPORT ORDINAL="282" NAME="??0?$AutoDeleteVector@$$CBG@@QAE@XZ" PURGE="0" COMMENT="" />
    <EXPORT ORDINAL="283" NAME="??0?$AutoDeleteVector@D@@QAE@PAD@Z" PURGE="4" COMMENT="" />
    <EXPORT ORDINAL="284" NAME="??0?$AutoDeleteVector@D@@QAE@XZ" PURGE="0" COMMENT="" />
    <EXPORT ORDINAL="285" NAME="??0?$AutoDeleteVector@E@@QAE@PAE@Z" PURGE="4" COMMENT="" />
    <EXPORT ORDINAL="286" NAME="??0?$AutoDeleteVector@E@@QAE@XZ" PURGE="0" COMMENT="" />
    <EXPORT ORDINAL="287" NAME="??0?$AutoDeleteVector@G@@QAE@PAG@Z" PURGE="4" COMMENT="" />
    <EXPORT ORDINAL="288" NAME="??0?$AutoDeleteVector@G@@QAE@XZ" PURGE="0" COMMENT="" />
    <EXPORT ORDINAL="289" NAME="??0?$AutoDeleteVector@H@@QAE@PAH@Z" PURGE="4" COMMENT="" />
    <EXPORT ORDINAL="290" NAME="??0?$AutoDeleteVector@PAG@@QAE@PAPAG@Z" PURGE="4" COMMENT="" />
    <EXPORT ORDINAL="291" NAME="??0?$AutoDeleteVector@PAG@@QAE@XZ" PURGE="0" COMMENT="" />
    <EXPORT ORDINAL="292" NAME="??0?$AutoDeleteVector@PBG@@QAE@PAPBG@Z" PURGE="4" COMMENT="" />
    <EXPORT ORDINAL="293" NAME="??0?$AutoDeleteVector@PBG@@QAE@XZ" PURGE="0" COMMENT="" />
    <EXPORT ORDINAL="294" NAME="??0?$AutoDeleteVector@U_CONFIG_UPDATE@@@@QAE@XZ" PURGE="0" COMMENT="" />
    <EXPORT ORDINAL="295" NAME="??0?$AutoDeleteVector@U_WINRS_CREATE_SHELL_ENVIRONMENT_VARIABLE@@@@QAE@PAU_WINRS_CREATE_SHELL_ENVIRONMENT_VARIABLE@@@Z" PURGE="4" COMMENT="" />
    <EXPORT ORDINAL="296" NAME="??0?$AutoDeleteVector@U_WINRS_CREATE_SHELL_ENVIRONMENT_VARIABLE@@@@QAE@XZ" PURGE="0" COMMENT="" />
    <EXPORT ORDINAL="297" NAME="??0?$AutoDeleteVector@U_WINRS_RUN_COMMAND_ARG@@@@QAE@PAU_WINRS_RUN_COMMAND_ARG@@@Z" PURGE="4" COMMENT="" />
    <EXPORT ORDINAL="298" NAME="??0?$AutoDeleteVector@U_WINRS_RUN_COMMAND_ARG@@@@QAE@XZ" PURGE="0" COMMENT="" />
    <EXPORT ORDINAL="299" NAME="??0?$AutoDeleteVector@U_WSMAN_OPTION@@@@QAE@PAU_WSMAN_OPTION@@@Z" PURGE="4" COMMENT="" />
    <EXPORT ORDINAL="300" NAME="??0?$AutoDeleteVector@U_WSMAN_OPTION@@@@QAE@XZ" PURGE="0" COMMENT="" />
    <EXPORT ORDINAL="301" NAME="??0?$AutoDeleteVector@X@@QAE@PAX@Z" PURGE="4" COMMENT="" />
    <EXPORT ORDINAL="302" NAME="??0?$AutoDeleteVector@X@@QAE@XZ" PURGE="0" COMMENT="" />
    <EXPORT ORDINAL="303" NAME="??0?$AutoFree@E@@QAE@PAE@Z" PURGE="4" COMMENT="" />
    <EXPORT ORDINAL="304" NAME="??0?$AutoFree@E@@QAE@XZ" PURGE="0" COMMENT="" />
    <EXPORT ORDINAL="305" NAME="??0?$AutoLocklessItemRecycle@VPacket@@@@QAE@PAVPacket@@@Z" PURGE="4" COMMENT="" />
    <EXPORT ORDINAL="306" NAME="??0?$AutoLocklessItemRecycle@VPacket@@@@QAE@XZ" PURGE="0" COMMENT="" />
    <EXPORT ORDINAL="307" NAME="??0?$AutoRelease@UIAppHostAdminManager@@@@QAE@PAUIAppHostAdminManager@@@Z" PURGE="4" COMMENT="" />
    <EXPORT ORDINAL="308" NAME="??0?$AutoRelease@UIAppHostChildElementCollection@@@@QAE@XZ" PURGE="0" COMMENT="" />
    <EXPORT ORDINAL="309" NAME="??0?$AutoRelease@UIAppHostConfigException@@@@QAE@PAUIAppHostConfigException@@@Z" PURGE="4" COMMENT="" />
    <EXPORT ORDINAL="310" NAME="??0?$AutoRelease@UIAppHostElement@@@@QAE@PAUIAppHostElement@@@Z" PURGE="4" COMMENT="" />
    <EXPORT ORDINAL="311" NAME="??0?$AutoRelease@UIAppHostElement@@@@QAE@XZ" PURGE="0" COMMENT="" />
    <EXPORT ORDINAL="312" NAME="??0?$AutoRelease@UIAppHostElementCollection@@@@QAE@XZ" PURGE="0" COMMENT="" />
    <EXPORT ORDINAL="313" NAME="??0?$AutoRelease@UIAppHostProperty@@@@QAE@XZ" PURGE="0" COMMENT="" />
    <EXPORT ORDINAL="314" NAME="??0?$AutoRelease@UIAppHostPropertyCollection@@@@QAE@XZ" PURGE="0" COMMENT="" />
    <EXPORT ORDINAL="315" NAME="??0?$AutoRelease@UIClientSecurity@@@@QAE@PAUIClientSecurity@@@Z" PURGE="4" COMMENT="" />
    <EXPORT ORDINAL="316" NAME="??0?$AutoRelease@UIClientSecurity@@@@QAE@XZ" PURGE="0" COMMENT="" />
    <EXPORT ORDINAL="317" NAME="??0?$AutoRelease@UIEnumWbemClassObject@@@@QAE@PAUIEnumWbemClassObject@@@Z" PURGE="4" COMMENT="" />
    <EXPORT ORDINAL="318" NAME="??0?$AutoRelease@UIEnumWbemClassObject@@@@QAE@XZ" PURGE="0" COMMENT="" />
    <EXPORT ORDINAL="319" NAME="??0?$AutoRelease@UIErrorInfo@@@@QAE@PAUIErrorInfo@@@Z" PURGE="4" COMMENT="" />
    <EXPORT ORDINAL="320" NAME="??0?$AutoRelease@UIErrorInfo@@@@QAE@XZ" PURGE="0" COMMENT="" />
    <EXPORT ORDINAL="321" NAME="??0?$AutoRelease@UIUnknown@@@@QAE@PAUIUnknown@@@Z" PURGE="4" COMMENT="" />
    <EXPORT ORDINAL="322" NAME="??0?$AutoRelease@UIUnknown@@@@QAE@XZ" PURGE="0" COMMENT="" />
    <EXPORT ORDINAL="323" NAME="??0?$AutoRelease@UIWbemClassObject@@@@QAE@PAUIWbemClassObject@@@Z" PURGE="4" COMMENT="" />
    <EXPORT ORDINAL="324" NAME="??0?$AutoRelease@UIWbemClassObject@@@@QAE@XZ" PURGE="0" COMMENT="" />
    <EXPORT ORDINAL="325" NAME="??0?$AutoRelease@UIWbemContext@@@@QAE@PAUIWbemContext@@@Z" PURGE="4" COMMENT="" />
    <EXPORT ORDINAL="326" NAME="??0?$AutoRelease@UIWbemContext@@@@QAE@XZ" PURGE="0" COMMENT="" />
    <EXPORT ORDINAL="327" NAME="??0?$AutoRelease@UIWbemLocator@@@@QAE@PAUIWbemLocator@@@Z" PURGE="4" COMMENT="" />
    <EXPORT ORDINAL="328" NAME="??0?$AutoRelease@UIWbemLocator@@@@QAE@XZ" PURGE="0" COMMENT="" />
    <EXPORT ORDINAL="329" NAME="??0?$AutoRelease@UIWbemObjectTextSrc@@@@QAE@PAUIWbemObjectTextSrc@@@Z" PURGE="4" COMMENT="" />
    <EXPORT ORDINAL="330" NAME="??0?$AutoRelease@UIWbemObjectTextSrc@@@@QAE@XZ" PURGE="0" COMMENT="" />
    <EXPORT ORDINAL="331" NAME="??0?$AutoRelease@UIWbemPath@@@@QAE@PAUIWbemPath@@@Z" PURGE="4" COMMENT="" />
    <EXPORT ORDINAL="332" NAME="??0?$AutoRelease@UIWbemPath@@@@QAE@XZ" PURGE="0" COMMENT="" />
    <EXPORT ORDINAL="333" NAME="??0?$AutoRelease@UIWbemPathKeyList@@@@QAE@PAUIWbemPathKeyList@@@Z" PURGE="4" COMMENT="" />
    <EXPORT ORDINAL="334" NAME="??0?$AutoRelease@UIWbemPathKeyList@@@@QAE@XZ" PURGE="0" COMMENT="" />
    <EXPORT ORDINAL="335" NAME="??0?$AutoRelease@UIWbemQualifierSet@@@@QAE@PAUIWbemQualifierSet@@@Z" PURGE="4" COMMENT="" />
    <EXPORT ORDINAL="336" NAME="??0?$AutoRelease@UIWbemQualifierSet@@@@QAE@XZ" PURGE="0" COMMENT="" />
    <EXPORT ORDINAL="337" NAME="??0?$AutoRelease@UIWbemQuery@@@@QAE@PAUIWbemQuery@@@Z" PURGE="4" COMMENT="" />
    <EXPORT ORDINAL="338" NAME="??0?$AutoRelease@UIWbemQuery@@@@QAE@XZ" PURGE="0" COMMENT="" />
    <EXPORT ORDINAL="339" NAME="??0?$AutoRelease@UIWbemServices@@@@QAE@PAUIWbemServices@@@Z" PURGE="4" COMMENT="" />
    <EXPORT ORDINAL="340" NAME="??0?$AutoRelease@UIWbemServices@@@@QAE@XZ" PURGE="0" COMMENT="" />
    <EXPORT ORDINAL="341" NAME="??0?$AutoRelease@VApplication@Client@WSMan@@@@QAE@XZ" PURGE="0" COMMENT="" />
    <EXPORT ORDINAL="342" NAME="??0?$AutoRelease@VCBaseConfigCache@@@@QAE@PAVCBaseConfigCache@@@Z" PURGE="4" COMMENT="" />
    <EXPORT ORDINAL="343" NAME="??0?$AutoRelease@VCClientConfigSettings@@@@QAE@PAVCClientConfigSettings@@@Z" PURGE="4" COMMENT="" />
    <EXPORT ORDINAL="344" NAME="??0?$AutoRelease@VCClientConfigSettings@@@@QAE@XZ" PURGE="0" COMMENT="" />
    <EXPORT ORDINAL="345" NAME="??0?$AutoRelease@VCCommonConfigSettings@@@@QAE@PAVCCommonConfigSettings@@@Z" PURGE="4" COMMENT="" />
    <EXPORT ORDINAL="346" NAME="??0?$AutoRelease@VCCommonConfigSettings@@@@QAE@XZ" PURGE="0" COMMENT="" />
    <EXPORT ORDINAL="347" NAME="??0?$AutoRelease@VCConfigCacheMap@CBaseConfigCache@@@@QAE@PAVCConfigCacheMap@CBaseConfigCache@@@Z" PURGE="4" COMMENT="" />
    <EXPORT ORDINAL="348" NAME="??0?$AutoRelease@VCConfigCacheMap@CBaseConfigCache@@@@QAE@XZ" PURGE="0" COMMENT="" />
    <EXPORT ORDINAL="349" NAME="??0?$AutoRelease@VCConfigManager@@@@QAE@PAVCConfigManager@@@Z" PURGE="4" COMMENT="" />
    <EXPORT ORDINAL="350" NAME="??0?$AutoRelease@VCConfigManager@@@@QAE@XZ" PURGE="0" COMMENT="" />
    <EXPORT ORDINAL="351" NAME="??0?$AutoRelease@VCRemoteOperation@@@@QAE@PAVCRemoteOperation@@@Z" PURGE="4" COMMENT="" />
    <EXPORT ORDINAL="352" NAME="??0?$AutoRelease@VCRemoteSession@@@@QAE@PAVCRemoteSession@@@Z" PURGE="4" COMMENT="" />
    <EXPORT ORDINAL="353" NAME="??0?$AutoRelease@VCRemoteSession@@@@QAE@XZ" PURGE="0" COMMENT="" />
    <EXPORT ORDINAL="354" NAME="??0?$AutoRelease@VCRequestContext@@@@QAE@PAVCRequestContext@@@Z" PURGE="4" COMMENT="" />
    <EXPORT ORDINAL="355" NAME="??0?$AutoRelease@VCRequestContext@@@@QAE@XZ" PURGE="0" COMMENT="" />
    <EXPORT ORDINAL="356" NAME="??0?$AutoRelease@VCServiceCommonConfigSettings@@@@QAE@PAVCServiceCommonConfigSettings@@@Z" PURGE="4" COMMENT="" />
    <EXPORT ORDINAL="357" NAME="??0?$AutoRelease@VCServiceCommonConfigSettings@@@@QAE@XZ" PURGE="0" COMMENT="" />
    <EXPORT ORDINAL="358" NAME="??0?$AutoRelease@VCServiceConfigCache@@@@QAE@PAVCServiceConfigCache@@@Z" PURGE="4" COMMENT="" />
    <EXPORT ORDINAL="359" NAME="??0?$AutoRelease@VCServiceConfigCache@@@@QAE@XZ" PURGE="0" COMMENT="" />
    <EXPORT ORDINAL="360" NAME="??0?$AutoRelease@VCServiceConfigSettings@@@@QAE@PAVCServiceConfigSettings@@@Z" PURGE="4" COMMENT="" />
    <EXPORT ORDINAL="361" NAME="??0?$AutoRelease@VCServiceConfigSettings@@@@QAE@XZ" PURGE="0" COMMENT="" />
    <EXPORT ORDINAL="362" NAME="??0?$AutoRelease@VCWSManEPR@@@@QAE@PAVCWSManEPR@@@Z" PURGE="4" COMMENT="" />
    <EXPORT ORDINAL="363" NAME="??0?$AutoRelease@VCWSManEPR@@@@QAE@XZ" PURGE="0" COMMENT="" />
    <EXPORT ORDINAL="364" NAME="??0?$AutoRelease@VCWSManGroupPolicyCache@@@@QAE@PAVCWSManGroupPolicyCache@@@Z" PURGE="4" COMMENT="" />
    <EXPORT ORDINAL="365" NAME="??0?$AutoRelease@VCWSManGroupPolicyManager@@@@QAE@PAVCWSManGroupPolicyManager@@@Z" PURGE="4" COMMENT="" />
    <EXPORT ORDINAL="366" NAME="??0?$AutoRelease@VCWSManObject@@@@QAE@PAVCWSManObject@@@Z" PURGE="4" COMMENT="" />
    <EXPORT ORDINAL="367" NAME="??0?$AutoRelease@VCWSManResource@@@@QAE@PAVCWSManResource@@@Z" PURGE="4" COMMENT="" />
    <EXPORT ORDINAL="368" NAME="??0?$AutoRelease@VCWSManResource@@@@QAE@XZ" PURGE="0" COMMENT="" />
    <EXPORT ORDINAL="369" NAME="??0?$AutoRelease@VCWinRSPluginConfigCache@@@@QAE@PAVCWinRSPluginConfigCache@@@Z" PURGE="4" COMMENT="" />
    <EXPORT ORDINAL="370" NAME="??0?$AutoRelease@VCWinRSPluginConfigCache@@@@QAE@XZ" PURGE="0" COMMENT="" />
    <EXPORT ORDINAL="371" NAME="??0?$AutoRelease@VCWinRSPluginConfigSettings@@@@QAE@PAVCWinRSPluginConfigSettings@@@Z" PURGE="4" COMMENT="" />
    <EXPORT ORDINAL="372" NAME="??0?$AutoRelease@VCommand@Client@WSMan@@@@QAE@PAVCommand@Client@WSMan@@@Z" PURGE="4" COMMENT="" />
    <EXPORT ORDINAL="373" NAME="??0?$AutoRelease@VConfigNotification@@@@QAE@PAVConfigNotification@@@Z" PURGE="4" COMMENT="" />
    <EXPORT ORDINAL="374" NAME="??0?$AutoRelease@VConnectShellOperation@Client@WSMan@@@@QAE@PAVConnectShellOperation@Client@WSMan@@@Z" PURGE="4" COMMENT="" />
    <EXPORT ORDINAL="375" NAME="??0?$AutoRelease@VCreateShellOperation@Client@WSMan@@@@QAE@PAVCreateShellOperation@Client@WSMan@@@Z" PURGE="4" COMMENT="" />
    <EXPORT ORDINAL="376" NAME="??0?$AutoRelease@VDeleteShellOperation@Client@WSMan@@@@QAE@PAVDeleteShellOperation@Client@WSMan@@@Z" PURGE="4" COMMENT="" />
    <EXPORT ORDINAL="377" NAME="??0?$AutoRelease@VDisconnectOperation@Client@WSMan@@@@QAE@PAVDisconnectOperation@Client@WSMan@@@Z" PURGE="4" COMMENT="" />
    <EXPORT ORDINAL="378" NAME="??0?$AutoRelease@VEnumSinkEx@@@@QAE@PAVEnumSinkEx@@@Z" PURGE="4" COMMENT="" />
    <EXPORT ORDINAL="379" NAME="??0?$AutoRelease@VEnumSinkEx@@@@QAE@XZ" PURGE="0" COMMENT="" />
    <EXPORT ORDINAL="380" NAME="??0?$AutoRelease@VGeneralSinkEx@@@@QAE@PAVGeneralSinkEx@@@Z" PURGE="4" COMMENT="" />
    <EXPORT ORDINAL="381" NAME="??0?$AutoRelease@VGeneralSinkEx@@@@QAE@XZ" PURGE="0" COMMENT="" />
    <EXPORT ORDINAL="382" NAME="??0?$AutoRelease@VIISConfigSettings@@@@QAE@XZ" PURGE="0" COMMENT="" />
    <EXPORT ORDINAL="383" NAME="??0?$AutoRelease@VIPCSoapProcessor@@@@QAE@PAVIPCSoapProcessor@@@Z" PURGE="4" COMMENT="" />
    <EXPORT ORDINAL="384" NAME="??0?$AutoRelease@VIRequestContext@@@@QAE@PAVIRequestContext@@@Z" PURGE="4" COMMENT="" />
    <EXPORT ORDINAL="385" NAME="??0?$AutoRelease@VIRequestContext@@@@QAE@XZ" PURGE="0" COMMENT="" />
    <EXPORT ORDINAL="386" NAME="??0?$AutoRelease@VISubscription@@@@QAE@PAVISubscription@@@Z" PURGE="4" COMMENT="" />
    <EXPORT ORDINAL="387" NAME="??0?$AutoRelease@VInboundRequestDetails@@@@QAE@XZ" PURGE="0" COMMENT="" />
    <EXPORT ORDINAL="388" NAME="??0?$AutoRelease@VReceiveOperation@Client@WSMan@@@@QAE@PAVReceiveOperation@Client@WSMan@@@Z" PURGE="4" COMMENT="" />
    <EXPORT ORDINAL="389" NAME="??0?$AutoRelease@VReconnectOperation@Client@WSMan@@@@QAE@PAVReconnectOperation@Client@WSMan@@@Z" PURGE="4" COMMENT="" />
    <EXPORT ORDINAL="390" NAME="??0?$AutoRelease@VSendOperation@Client@WSMan@@@@QAE@PAVSendOperation@Client@WSMan@@@Z" PURGE="4" COMMENT="" />
    <EXPORT ORDINAL="391" NAME="??0?$AutoRelease@VShell@Client@WSMan@@@@QAE@PAVShell@Client@WSMan@@@Z" PURGE="4" COMMENT="" />
    <EXPORT ORDINAL="392" NAME="??0?$AutoRelease@VShellInfo@@@@QAE@XZ" PURGE="0" COMMENT="" />
    <EXPORT ORDINAL="393" NAME="??0?$AutoRelease@VSignalOperation@Client@WSMan@@@@QAE@PAVSignalOperation@Client@WSMan@@@Z" PURGE="4" COMMENT="" />
    <EXPORT ORDINAL="394" NAME="??0?$AutoRelease@VUserRecord@@@@QAE@XZ" PURGE="0" COMMENT="" />
    <EXPORT ORDINAL="395" NAME="??0?$AutoRelease@VWSManHttpListener@@@@QAE@PAVWSManHttpListener@@@Z" PURGE="4" COMMENT="" />
    <EXPORT ORDINAL="396" NAME="??0?$AutoReleaseEx@VHostMappingTableEntry@@@@QAE@XZ" PURGE="0" COMMENT="" />
    <EXPORT ORDINAL="397" NAME="??0?$AutoReleaseEx@VShell@Client@WSMan@@@@QAE@PAVShell@Client@WSMan@@@Z" PURGE="4" COMMENT="" />
    <EXPORT ORDINAL="398" NAME="??0?$ILoader@VAdminSid@CSecurity@@@@QAE@P8AdminSid@CSecurity@@AE_NAAVIRequestContext@@@Z1@Z" PURGE="8" COMMENT="" />
    <EXPORT ORDINAL="399" NAME="??0?$ILoader@VEventHandler@WSMan@@@@QAE@P8EventHandler@WSMan@@AE_NAAVIRequestContext@@@Z1@Z" PURGE="8" COMMENT="" />
    <EXPORT ORDINAL="400" NAME="??0?$ILoader@VInteractiveSid@CSecurity@@@@QAE@P8InteractiveSid@CSecurity@@AE_NAAVIRequestContext@@@Z1@Z" PURGE="8" COMMENT="" />
    <EXPORT ORDINAL="401" NAME="??0?$ILoader@VIpHlpApiDllLoader@@@@QAE@P8IpHlpApiDllLoader@@AE_NAAVIRequestContext@@@Z1@Z" PURGE="8" COMMENT="" />
    <EXPORT ORDINAL="402" NAME="??0?$ILoader@VMachineName@@@@QAE@P8MachineName@@AE_NAAVIRequestContext@@@Z1@Z" PURGE="8" COMMENT="" />
    <EXPORT ORDINAL="403" NAME="??0?$ILoader@VNetworkServiceSid@CSecurity@@@@QAE@P8NetworkServiceSid@CSecurity@@AE_NAAVIRequestContext@@@Z1@Z" PURGE="8" COMMENT="" />
    <EXPORT ORDINAL="404" NAME="??0?$ILoader@VNtDsApiDllLoader@@@@QAE@P8NtDsApiDllLoader@@AE_NAAVIRequestContext@@@Z1@Z" PURGE="8" COMMENT="" />
    <EXPORT ORDINAL="405" NAME="??0?$ILoader@VResources@Locale@@@@QAE@P8Resources@Locale@@AE_NAAVIRequestContext@@@Z1@Z" PURGE="8" COMMENT="" />
    <EXPORT ORDINAL="406" NAME="??0?$ILoader@VShell32DllLoader@@@@QAE@P8Shell32DllLoader@@AE_NAAVIRequestContext@@@Z1@Z" PURGE="8" COMMENT="" />
    <EXPORT ORDINAL="407" NAME="??0?$ILoader@VShlWApiDllLoader@@@@QAE@P8ShlWApiDllLoader@@AE_NAAVIRequestContext@@@Z1@Z" PURGE="8" COMMENT="" />
    <EXPORT ORDINAL="408" NAME="??0?$ILoader@VSubscriptionManager@@@@QAE@P8SubscriptionManager@@AE_NAAVIRequestContext@@@Z1@Z" PURGE="8" COMMENT="" />
    <EXPORT ORDINAL="409" NAME="??0?$ILoader@VUser32DllLoader@@@@QAE@P8User32DllLoader@@AE_NAAVIRequestContext@@@Z1@Z" PURGE="8" COMMENT="" />
    <EXPORT ORDINAL="410" NAME="??0?$ILoader@VWSManMemCryptManager@@@@QAE@P8WSManMemCryptManager@@AE_NAAVIRequestContext@@@Z1@Z" PURGE="8" COMMENT="" />
    <EXPORT ORDINAL="411" NAME="??0?$Loader@VAdminSid@CSecurity@@$00@@QAE@XZ" PURGE="0" COMMENT="" />
    <EXPORT ORDINAL="412" NAME="??0?$Loader@VEventHandler@WSMan@@$00@@QAE@XZ" PURGE="0" COMMENT="" />
    <EXPORT ORDINAL="413" NAME="??0?$Loader@VInteractiveSid@CSecurity@@$00@@QAE@XZ" PURGE="0" COMMENT="" />
    <EXPORT ORDINAL="414" NAME="??0?$Loader@VIpHlpApiDllLoader@@$00@@QAE@XZ" PURGE="0" COMMENT="" />
    <EXPORT ORDINAL="415" NAME="??0?$Loader@VMachineName@@$00@@QAE@XZ" PURGE="0" COMMENT="" />
    <EXPORT ORDINAL="416" NAME="??0?$Loader@VNetworkServiceSid@CSecurity@@$00@@QAE@XZ" PURGE="0" COMMENT="" />
    <EXPORT ORDINAL="417" NAME="??0?$Loader@VNtDsApiDllLoader@@$00@@QAE@XZ" PURGE="0" COMMENT="" />
    <EXPORT ORDINAL="418" NAME="??0?$Loader@VResources@Locale@@$0A@@@QAE@XZ" PURGE="0" COMMENT="" />
    <EXPORT ORDINAL="419" NAME="??0?$Loader@VShell32DllLoader@@$00@@QAE@XZ" PURGE="0" COMMENT="" />
    <EXPORT ORDINAL="420" NAME="??0?$Loader@VShlWApiDllLoader@@$00@@QAE@XZ" PURGE="0" COMMENT="" />
    <EXPORT ORDINAL="421" NAME="??0?$Loader@VUser32DllLoader@@$00@@QAE@XZ" PURGE="0" COMMENT="" />
    <EXPORT ORDINAL="422" NAME="??0?$Loader@VWSManMemCryptManager@@$00@@QAE@XZ" PURGE="0" COMMENT="" />
    <EXPORT ORDINAL="423" NAME="??0?$LoaderSerializer@VAdminSid@CSecurity@@$00@@QAE@P8AdminSid@CSecurity@@AE_NAAVIRequestContext@@@Z1@Z" PURGE="8" COMMENT="" />
    <EXPORT ORDINAL="424" NAME="??0?$LoaderSerializer@VEventHandler@WSMan@@$00@@QAE@P8EventHandler@WSMan@@AE_NAAVIRequestContext@@@Z1@Z" PURGE="8" COMMENT="" />
    <EXPORT ORDINAL="425" NAME="??0?$LoaderSerializer@VInteractiveSid@CSecurity@@$00@@QAE@P8InteractiveSid@CSecurity@@AE_NAAVIRequestContext@@@Z1@Z" PURGE="8" COMMENT="" />
    <EXPORT ORDINAL="426" NAME="??0?$LoaderSerializer@VIpHlpApiDllLoader@@$00@@QAE@P8IpHlpApiDllLoader@@AE_NAAVIRequestContext@@@Z1@Z" PURGE="8" COMMENT="" />
    <EXPORT ORDINAL="427" NAME="??0?$LoaderSerializer@VMachineName@@$00@@QAE@P8MachineName@@AE_NAAVIRequestContext@@@Z1@Z" PURGE="8" COMMENT="" />
    <EXPORT ORDINAL="428" NAME="??0?$LoaderSerializer@VNetworkServiceSid@CSecurity@@$00@@QAE@P8NetworkServiceSid@CSecurity@@AE_NAAVIRequestContext@@@Z1@Z" PURGE="8" COMMENT="" />
    <EXPORT ORDINAL="429" NAME="??0?$LoaderSerializer@VNtDsApiDllLoader@@$00@@QAE@P8NtDsApiDllLoader@@AE_NAAVIRequestContext@@@Z1@Z" PURGE="8" COMMENT="" />
    <EXPORT ORDINAL="430" NAME="??0?$LoaderSerializer@VResources@Locale@@$0A@@@QAE@P8Resources@Locale@@AE_NAAVIRequestContext@@@Z1@Z" PURGE="8" COMMENT="" />
    <EXPORT ORDINAL="431" NAME="??0?$LoaderSerializer@VShell32DllLoader@@$00@@QAE@P8Shell32DllLoader@@AE_NAAVIRequestContext@@@Z1@Z" PURGE="8" COMMENT="" />
    <EXPORT ORDINAL="432" NAME="??0?$LoaderSerializer@VShlWApiDllLoader@@$00@@QAE@P8ShlWApiDllLoader@@AE_NAAVIRequestContext@@@Z1@Z" PURGE="8" COMMENT="" />
    <EXPORT ORDINAL="433" NAME="??0?$LoaderSerializer@VSubscriptionManager@@$01@@QAE@P8SubscriptionManager@@AE_NAAVIRequestContext@@@Z1@Z" PURGE="8" COMMENT="" />
    <EXPORT ORDINAL="434" NAME="??0?$LoaderSerializer@VUser32DllLoader@@$00@@QAE@P8User32DllLoader@@AE_NAAVIRequestContext@@@Z1@Z" PURGE="8" COMMENT="" />
    <EXPORT ORDINAL="435" NAME="??0?$LoaderSerializer@VWSManMemCryptManager@@$00@@QAE@P8WSManMemCryptManager@@AE_NAAVIRequestContext@@@Z1@Z" PURGE="8" COMMENT="" />
    <EXPORT ORDINAL="436" NAME="??0?$PacketElement@K@PacketParser@@QAE@XZ" PURGE="0" COMMENT="" />
    <EXPORT ORDINAL="437" NAME="??0?$PacketElement@PAU_FWXML_ELEMENT@@@PacketParser@@QAE@XZ" PURGE="0" COMMENT="" />
    <EXPORT ORDINAL="438" NAME="??0?$PacketElement@PBG@PacketParser@@QAE@XZ" PURGE="0" COMMENT="" />
    <EXPORT ORDINAL="439" NAME="??0?$PacketElement@_K@PacketParser@@QAE@XZ" PURGE="0" COMMENT="" />
    <EXPORT ORDINAL="440" NAME="??0?$SafeMap@PAVCCertMapping@@UEmpty@@V?$SafeSet_Iterator@PAVCCertMapping@@@@@@QAE@XZ" PURGE="0" COMMENT="" />
    <EXPORT ORDINAL="441" NAME="??0?$SafeMap@PAVCListenerOperation@@UEmpty@@V?$SafeSet_Iterator@PAVCListenerOperation@@@@@@QAE@XZ" PURGE="0" COMMENT="" />
    <EXPORT ORDINAL="442" NAME="??0?$SafeMap@PAVCShellUriSettings@@UEmpty@@V?$SafeSet_Iterator@PAVCShellUriSettings@@@@@@QAE@XZ" PURGE="0" COMMENT="" />
    <EXPORT ORDINAL="443" NAME="??0?$SafeMap@PAXUEmpty@@V?$SafeSet_Iterator@PAX@@@@QAE@XZ" PURGE="0" COMMENT="" />
    <EXPORT ORDINAL="444" NAME="??0?$SafeMap@UPluginKey@@KV?$SafeMap_Iterator@UPluginKey@@K@@@@QAE@XZ" PURGE="0" COMMENT="" />
    <EXPORT ORDINAL="445" NAME="??0?$SafeMap@UUserKey@@PAVBlockedRecord@@V?$SafeMap_Iterator@UUserKey@@PAVBlockedRecord@@@@@@QAE@XZ" PURGE="0" COMMENT="" />
    <EXPORT ORDINAL="446" NAME="??0?$SafeMap@VCertThumbprintKey@@VCertThumbprintMappedSet@CServiceConfigSettings@@V?$SafeMap_Iterator@VCertThumbprintKey@@VCertThumbprintMappedSet@CServiceConfigSettings@@@@@@QAE@XZ" PURGE="0" COMMENT="" />
    <EXPORT ORDINAL="447" NAME="??0?$SafeMap@VKey@Locale@@KV?$SafeMap_Iterator@VKey@Locale@@K@@@@QAE@XZ" PURGE="0" COMMENT="" />
    <EXPORT ORDINAL="448" NAME="??0?$SafeMap@VStringKeyCI@@KV?$SafeMap_Iterator@VStringKeyCI@@K@@@@QAE@XZ" PURGE="0" COMMENT="" />
    <EXPORT ORDINAL="449" NAME="??0?$SafeMap@VStringKeyCI@@UUSER_CONTEXT_INFO@WSManHttpListener@@V?$SafeMap_Iterator@VStringKeyCI@@UUSER_CONTEXT_INFO@WSManHttpListener@@@@@@QAE@XZ" PURGE="0" COMMENT="" />
    <EXPORT ORDINAL="450" NAME="??0?$SafeMap@VStringKeyStore@@PAVExpiredOperationIdRecord@@V?$SafeMap_Iterator@VStringKeyStore@@PAVExpiredOperationIdRecord@@@@@@QAE@XZ" PURGE="0" COMMENT="" />
    <EXPORT ORDINAL="451" NAME="??0?$SafeMap@VStringKeyStore@@PAVServerFullDuplexChannel@@V?$SafeMap_Iterator@VStringKeyStore@@PAVServerFullDuplexChannel@@@@@@QAE@XZ" PURGE="0" COMMENT="" />
    <EXPORT ORDINAL="452" NAME="??0?$SafeMap@W4WSManSessionOption@@PAVOptionValue@SessionOptions@Client@WSMan@@V?$SafeMap_Iterator@W4WSManSessionOption@@PAVOptionValue@SessionOptions@Client@WSMan@@@@@@QAE@XZ" PURGE="0" COMMENT="" />
    <EXPORT ORDINAL="453" NAME="??0?$SafeMap@_KPAVSendPacketArgs@RobustConnectionBuffer@@V?$SafeMap_Iterator@_KPAVSendPacketArgs@RobustConnectionBuffer@@@@@@QAE@XZ" PURGE="0" COMMENT="" />
    <EXPORT ORDINAL="454" NAME="??0?$SafeMap_Iterator@PAVCCertMapping@@UEmpty@@@@QAE@AAV?$SafeMap@PAVCCertMapping@@UEmpty@@V?$SafeMap_Iterator@PAVCCertMapping@@UEmpty@@@@@@_N@Z" PURGE="8" COMMENT="" />
    <EXPORT ORDINAL="455" NAME="??0?$SafeMap_Iterator@PAVCListenerOperation@@UEmpty@@@@QAE@AAV?$SafeMap@PAVCListenerOperation@@UEmpty@@V?$SafeMap_Iterator@PAVCListenerOperation@@UEmpty@@@@@@_N@Z" PURGE="8" COMMENT="" />
    <EXPORT ORDINAL="456" NAME="??0?$SafeMap_Iterator@PAVCShellUriSettings@@UEmpty@@@@QAE@AAV?$SafeMap@PAVCShellUriSettings@@UEmpty@@V?$SafeMap_Iterator@PAVCShellUriSettings@@UEmpty@@@@@@_N@Z" PURGE="8" COMMENT="" />
    <EXPORT ORDINAL="457" NAME="??0?$SafeMap_Iterator@PAXUEmpty@@@@QAE@AAV?$SafeMap@PAXUEmpty@@V?$SafeMap_Iterator@PAXUEmpty@@@@@@_N@Z" PURGE="8" COMMENT="" />
    <EXPORT ORDINAL="458" NAME="??0?$SafeMap_Iterator@UPluginKey@@K@@QAE@AAV?$SafeMap@UPluginKey@@KV?$SafeMap_Iterator@UPluginKey@@K@@@@_N@Z" PURGE="8" COMMENT="" />
    <EXPORT ORDINAL="459" NAME="??0?$SafeMap_Iterator@UUserKey@@PAVBlockedRecord@@@@QAE@AAV?$SafeMap@UUserKey@@PAVBlockedRecord@@V?$SafeMap_Iterator@UUserKey@@PAVBlockedRecord@@@@@@_N@Z" PURGE="8" COMMENT="" />
    <EXPORT ORDINAL="460" NAME="??0?$SafeMap_Iterator@VCertThumbprintKey@@VCertThumbprintMappedSet@CServiceConfigSettings@@@@QAE@AAV?$SafeMap@VCertThumbprintKey@@VCertThumbprintMappedSet@CServiceConfigSettings@@V?$SafeMap_Iterator@VCertThumbprintKey@@VCertThumbprintMappedSet@CServiceConfigSettings@@@@@@_N@Z" PURGE="8" COMMENT="" />
    <EXPORT ORDINAL="461" NAME="??0?$SafeMap_Iterator@VKey@Locale@@K@@QAE@AAV?$SafeMap@VKey@Locale@@KV?$SafeMap_Iterator@VKey@Locale@@K@@@@_N@Z" PURGE="8" COMMENT="" />
    <EXPORT ORDINAL="462" NAME="??0?$SafeMap_Iterator@VStringKeyCI@@K@@QAE@AAV?$SafeMap@VStringKeyCI@@KV?$SafeMap_Iterator@VStringKeyCI@@K@@@@_N@Z" PURGE="8" COMMENT="" />
    <EXPORT ORDINAL="463" NAME="??0?$SafeMap_Iterator@VStringKeyCI@@UUSER_CONTEXT_INFO@WSManHttpListener@@@@QAE@AAV?$SafeMap@VStringKeyCI@@UUSER_CONTEXT_INFO@WSManHttpListener@@V?$SafeMap_Iterator@VStringKeyCI@@UUSER_CONTEXT_INFO@WSManHttpListener@@@@@@_N@Z" PURGE="8" COMMENT="" />
    <EXPORT ORDINAL="464" NAME="??0?$SafeMap_Iterator@VStringKeyStore@@PAVExpiredOperationIdRecord@@@@QAE@AAV?$SafeMap@VStringKeyStore@@PAVExpiredOperationIdRecord@@V?$SafeMap_Iterator@VStringKeyStore@@PAVExpiredOperationIdRecord@@@@@@_N@Z" PURGE="8" COMMENT="" />
    <EXPORT ORDINAL="465" NAME="??0?$SafeMap_Iterator@VStringKeyStore@@PAVServerFullDuplexChannel@@@@QAE@AAV?$SafeMap@VStringKeyStore@@PAVServerFullDuplexChannel@@V?$SafeMap_Iterator@VStringKeyStore@@PAVServerFullDuplexChannel@@@@@@_N@Z" PURGE="8" COMMENT="" />
    <EXPORT ORDINAL="466" NAME="??0?$SafeMap_Iterator@W4WSManSessionOption@@PAVOptionValue@SessionOptions@Client@WSMan@@@@QAE@AAV?$SafeMap@W4WSManSessionOption@@PAVOptionValue@SessionOptions@Client@WSMan@@V?$SafeMap_Iterator@W4WSManSessionOption@@PAVOptionValue@SessionOptions@Client@WSMan@@@@@@_N@Z" PURGE="8" COMMENT="" />
    <EXPORT ORDINAL="467" NAME="??0?$SafeMap_Iterator@_KPAVSendPacketArgs@RobustConnectionBuffer@@@@QAE@AAV?$SafeMap@_KPAVSendPacketArgs@RobustConnectionBuffer@@V?$SafeMap_Iterator@_KPAVSendPacketArgs@RobustConnectionBuffer@@@@@@_N@Z" PURGE="8" COMMENT="" />
    <EXPORT ORDINAL="468" NAME="??0?$SafeMap_Lock@PAVCCertMapping@@UEmpty@@V?$SafeMap_Iterator@PAVCCertMapping@@UEmpty@@@@@@QAE@ABV?$SafeMap@PAVCCertMapping@@UEmpty@@V?$SafeMap_Iterator@PAVCCertMapping@@UEmpty@@@@@@_N@Z" PURGE="8" COMMENT="" />
    <EXPORT ORDINAL="469" NAME="??0?$SafeMap_Lock@PAVCCertMapping@@UEmpty@@V?$SafeSet_Iterator@PAVCCertMapping@@@@@@QAE@ABV?$SafeMap@PAVCCertMapping@@UEmpty@@V?$SafeSet_Iterator@PAVCCertMapping@@@@@@_N@Z" PURGE="8" COMMENT="" />
    <EXPORT ORDINAL="470" NAME="??0?$SafeMap_Lock@PAVCListenerOperation@@UEmpty@@V?$SafeMap_Iterator@PAVCListenerOperation@@UEmpty@@@@@@QAE@ABV?$SafeMap@PAVCListenerOperation@@UEmpty@@V?$SafeMap_Iterator@PAVCListenerOperation@@UEmpty@@@@@@_N@Z" PURGE="8" COMMENT="" />
    <EXPORT ORDINAL="471" NAME="??0?$SafeMap_Lock@PAVCListenerOperation@@UEmpty@@V?$SafeSet_Iterator@PAVCListenerOperation@@@@@@QAE@ABV?$SafeMap@PAVCListenerOperation@@UEmpty@@V?$SafeSet_Iterator@PAVCListenerOperation@@@@@@_N@Z" PURGE="8" COMMENT="" />
    <EXPORT ORDINAL="472" NAME="??0?$SafeMap_Lock@PAVCShellUriSettings@@UEmpty@@V?$SafeMap_Iterator@PAVCShellUriSettings@@UEmpty@@@@@@QAE@ABV?$SafeMap@PAVCShellUriSettings@@UEmpty@@V?$SafeMap_Iterator@PAVCShellUriSettings@@UEmpty@@@@@@_N@Z" PURGE="8" COMMENT="" />
    <EXPORT ORDINAL="473" NAME="??0?$SafeMap_Lock@PAVCShellUriSettings@@UEmpty@@V?$SafeSet_Iterator@PAVCShellUriSettings@@@@@@QAE@ABV?$SafeMap@PAVCShellUriSettings@@UEmpty@@V?$SafeSet_Iterator@PAVCShellUriSettings@@@@@@_N@Z" PURGE="8" COMMENT="" />
    <EXPORT ORDINAL="474" NAME="??0?$SafeMap_Lock@PAXUEmpty@@V?$SafeMap_Iterator@PAXUEmpty@@@@@@QAE@ABV?$SafeMap@PAXUEmpty@@V?$SafeMap_Iterator@PAXUEmpty@@@@@@_N@Z" PURGE="8" COMMENT="" />
    <EXPORT ORDINAL="475" NAME="??0?$SafeMap_Lock@PAXUEmpty@@V?$SafeSet_Iterator@PAX@@@@QAE@ABV?$SafeMap@PAXUEmpty@@V?$SafeSet_Iterator@PAX@@@@_N@Z" PURGE="8" COMMENT="" />
    <EXPORT ORDINAL="476" NAME="??0?$SafeMap_Lock@UPluginKey@@KV?$SafeMap_Iterator@UPluginKey@@K@@@@QAE@ABV?$SafeMap@UPluginKey@@KV?$SafeMap_Iterator@UPluginKey@@K@@@@_N@Z" PURGE="8" COMMENT="" />
    <EXPORT ORDINAL="477" NAME="??0?$SafeMap_Lock@UUserKey@@PAVBlockedRecord@@V?$SafeMap_Iterator@UUserKey@@PAVBlockedRecord@@@@@@QAE@ABV?$SafeMap@UUserKey@@PAVBlockedRecord@@V?$SafeMap_Iterator@UUserKey@@PAVBlockedRecord@@@@@@_N@Z" PURGE="8" COMMENT="" />
    <EXPORT ORDINAL="478" NAME="??0?$SafeMap_Lock@VCertThumbprintKey@@VCertThumbprintMappedSet@CServiceConfigSettings@@V?$SafeMap_Iterator@VCertThumbprintKey@@VCertThumbprintMappedSet@CServiceConfigSettings@@@@@@QAE@ABV?$SafeMap@VCertThumbprintKey@@VCertThumbprintMappedSet@CServiceConfigSettings@@V?$SafeMap_Iterator@VCertThumbprintKey@@VCertThumbprintMappedSet@CServiceConfigSettings@@@@@@_N@Z" PURGE="8" COMMENT="" />
    <EXPORT ORDINAL="479" NAME="??0?$SafeMap_Lock@VKey@Locale@@KV?$SafeMap_Iterator@VKey@Locale@@K@@@@QAE@ABV?$SafeMap@VKey@Locale@@KV?$SafeMap_Iterator@VKey@Locale@@K@@@@_N@Z" PURGE="8" COMMENT="" />
    <EXPORT ORDINAL="480" NAME="??0?$SafeMap_Lock@VStringKeyCI@@KV?$SafeMap_Iterator@VStringKeyCI@@K@@@@QAE@ABV?$SafeMap@VStringKeyCI@@KV?$SafeMap_Iterator@VStringKeyCI@@K@@@@_N@Z" PURGE="8" COMMENT="" />
    <EXPORT ORDINAL="481" NAME="??0?$SafeMap_Lock@VStringKeyCI@@UEmpty@@V?$SafeSet_Iterator@VStringKeyCI@@@@@@QAE@ABV?$SafeMap@VStringKeyCI@@UEmpty@@V?$SafeSet_Iterator@VStringKeyCI@@@@@@_N@Z" PURGE="8" COMMENT="" />
    <EXPORT ORDINAL="482" NAME="??0?$SafeMap_Lock@VStringKeyCI@@UUSER_CONTEXT_INFO@WSManHttpListener@@V?$SafeMap_Iterator@VStringKeyCI@@UUSER_CONTEXT_INFO@WSManHttpListener@@@@@@QAE@ABV?$SafeMap@VStringKeyCI@@UUSER_CONTEXT_INFO@WSManHttpListener@@V?$SafeMap_Iterator@VStringKeyCI@@UUSER_CONTEXT_INFO@WSManHttpListener@@@@@@_N@Z" PURGE="8" COMMENT="" />
    <EXPORT ORDINAL="483" NAME="??0?$SafeMap_Lock@VStringKeyStore@@PAVExpiredOperationIdRecord@@V?$SafeMap_Iterator@VStringKeyStore@@PAVExpiredOperationIdRecord@@@@@@QAE@ABV?$SafeMap@VStringKeyStore@@PAVExpiredOperationIdRecord@@V?$SafeMap_Iterator@VStringKeyStore@@PAVExpiredOperationIdRecord@@@@@@_N@Z" PURGE="8" COMMENT="" />
    <EXPORT ORDINAL="484" NAME="??0?$SafeMap_Lock@VStringKeyStore@@PAVServerFullDuplexChannel@@V?$SafeMap_Iterator@VStringKeyStore@@PAVServerFullDuplexChannel@@@@@@QAE@ABV?$SafeMap@VStringKeyStore@@PAVServerFullDuplexChannel@@V?$SafeMap_Iterator@VStringKeyStore@@PAVServerFullDuplexChannel@@@@@@_N@Z" PURGE="8" COMMENT="" />
    <EXPORT ORDINAL="485" NAME="??0?$SafeMap_Lock@W4WSManSessionOption@@PAVOptionValue@SessionOptions@Client@WSMan@@V?$SafeMap_Iterator@W4WSManSessionOption@@PAVOptionValue@SessionOptions@Client@WSMan@@@@@@QAE@ABV?$SafeMap@W4WSManSessionOption@@PAVOptionValue@SessionOptions@Client@WSMan@@V?$SafeMap_Iterator@W4WSManSessionOption@@PAVOptionValue@SessionOptions@Client@WSMan@@@@@@_N@Z" PURGE="8" COMMENT="" />
    <EXPORT ORDINAL="486" NAME="??0?$SafeMap_Lock@_KPAVSendPacketArgs@RobustConnectionBuffer@@V?$SafeMap_Iterator@_KPAVSendPacketArgs@RobustConnectionBuffer@@@@@@QAE@ABV?$SafeMap@_KPAVSendPacketArgs@RobustConnectionBuffer@@V?$SafeMap_Iterator@_KPAVSendPacketArgs@RobustConnectionBuffer@@@@@@_N@Z" PURGE="8" COMMENT="" />
    <EXPORT ORDINAL="487" NAME="??0?$SafeSet@PAVCCertMapping@@@@QAE@XZ" PURGE="0" COMMENT="" />
    <EXPORT ORDINAL="488" NAME="??0?$SafeSet@PAVCListenerOperation@@@@QAE@XZ" PURGE="0" COMMENT="" />
    <EXPORT ORDINAL="489" NAME="??0?$SafeSet@PAVCShellUriSettings@@@@QAE@XZ" PURGE="0" COMMENT="" />
    <EXPORT ORDINAL="490" NAME="??0?$SafeSet@PAX@@QAE@XZ" PURGE="0" COMMENT="" />
    <EXPORT ORDINAL="491" NAME="??0?$SafeSet_Iterator@PAVCCertMapping@@@@QAE@AAV?$SafeMap@PAVCCertMapping@@UEmpty@@V?$SafeSet_Iterator@PAVCCertMapping@@@@@@_N@Z" PURGE="8" COMMENT="" />
    <EXPORT ORDINAL="492" NAME="??0?$SafeSet_Iterator@PAVCCertMapping@@@@QAE@AAV?$SafeSet@PAVCCertMapping@@@@@Z" PURGE="4" COMMENT="" />
    <EXPORT ORDINAL="493" NAME="??0?$SafeSet_Iterator@PAVCListenerOperation@@@@QAE@AAV?$SafeMap@PAVCListenerOperation@@UEmpty@@V?$SafeSet_Iterator@PAVCListenerOperation@@@@@@_N@Z" PURGE="8" COMMENT="" />
    <EXPORT ORDINAL="494" NAME="??0?$SafeSet_Iterator@PAVCListenerOperation@@@@QAE@AAV?$SafeSet@PAVCListenerOperation@@@@@Z" PURGE="4" COMMENT="" />
    <EXPORT ORDINAL="495" NAME="??0?$SafeSet_Iterator@PAVCShellUriSettings@@@@QAE@AAV?$SafeMap@PAVCShellUriSettings@@UEmpty@@V?$SafeSet_Iterator@PAVCShellUriSettings@@@@@@_N@Z" PURGE="8" COMMENT="" />
    <EXPORT ORDINAL="496" NAME="??0?$SafeSet_Iterator@PAX@@QAE@AAV?$SafeMap@PAXUEmpty@@V?$SafeSet_Iterator@PAX@@@@_N@Z" PURGE="8" COMMENT="" />
    <EXPORT ORDINAL="497" NAME="??0?$SimpleQueue@T_LARGE_INTEGER@@@@QAE@XZ" PURGE="0" COMMENT="" />
    <EXPORT ORDINAL="498" NAME="??0AutoBstr@@QAE@PAG@Z" PURGE="4" COMMENT="" />
    <EXPORT ORDINAL="499" NAME="??0AutoBstr@@QAE@XZ" PURGE="0" COMMENT="" />
    <EXPORT ORDINAL="500" NAME="??0AutoBstrNoAlloc@@QAE@PAG@Z" PURGE="4" COMMENT="" />
    <EXPORT ORDINAL="501" NAME="??0AutoBstrNoAlloc@@QAE@XZ" PURGE="0" COMMENT="" />
    <EXPORT ORDINAL="502" NAME="??0AutoCertContext@@QAE@PBU_CERT_CONTEXT@@@Z" PURGE="4" COMMENT="" />
    <EXPORT ORDINAL="503" NAME="??0AutoCertContext@@QAE@XZ" PURGE="0" COMMENT="" />
    <EXPORT ORDINAL="504" NAME="??0AutoChainContext@@QAE@PBU_CERT_CHAIN_CONTEXT@@@Z" PURGE="4" COMMENT="" />
    <EXPORT ORDINAL="505" NAME="??0AutoChainContext@@QAE@XZ" PURGE="0" COMMENT="" />
    <EXPORT ORDINAL="506" NAME="??0AutoCoTaskMemFree@@QAE@PAX@Z" PURGE="4" COMMENT="" />
    <EXPORT ORDINAL="507" NAME="??0AutoCoTaskMemFree@@QAE@XZ" PURGE="0" COMMENT="" />
    <EXPORT ORDINAL="508" NAME="??0AutoFwXmlCloseParser@@QAE@PAX@Z" PURGE="4" COMMENT="" />
    <EXPORT ORDINAL="509" NAME="??0AutoFwXmlCloseParser@@QAE@XZ" PURGE="0" COMMENT="" />
    <EXPORT ORDINAL="510" NAME="??0AutoHandle@@QAE@PAX@Z" PURGE="4" COMMENT="" />
    <EXPORT ORDINAL="511" NAME="??0AutoHandle@@QAE@XZ" PURGE="0" COMMENT="" />
    <EXPORT ORDINAL="512" NAME="??0AutoImpersonateUser@@QAE@PAX@Z" PURGE="4" COMMENT="" />
    <EXPORT ORDINAL="513" NAME="??0AutoImpersonateUser@@QAE@XZ" PURGE="0" COMMENT="" />
    <EXPORT ORDINAL="514" NAME="??0AutoLibrary@@QAE@PAUHINSTANCE__@@@Z" PURGE="4" COMMENT="" />
    <EXPORT ORDINAL="515" NAME="??0AutoLibrary@@QAE@XZ" PURGE="0" COMMENT="" />
    <EXPORT ORDINAL="516" NAME="??0AutoLocalFree@@QAE@PAX@Z" PURGE="4" COMMENT="" />
    <EXPORT ORDINAL="517" NAME="??0AutoLocalFree@@QAE@XZ" PURGE="0" COMMENT="" />
    <EXPORT ORDINAL="518" NAME="??0AutoMIClass@@QAE@PAU_MI_Class@@@Z" PURGE="4" COMMENT="" />
    <EXPORT ORDINAL="519" NAME="??0AutoMIClass@@QAE@XZ" PURGE="0" COMMENT="" />
    <EXPORT ORDINAL="520" NAME="??0AutoMIInstance@@QAE@PAU_MI_Instance@@@Z" PURGE="4" COMMENT="" />
    <EXPORT ORDINAL="521" NAME="??0AutoMIInstance@@QAE@XZ" PURGE="0" COMMENT="" />
    <EXPORT ORDINAL="522" NAME="??0AutoObject@@QAE@PAUWSMAN_OBJECT@@@Z" PURGE="4" COMMENT="" />
    <EXPORT ORDINAL="523" NAME="??0AutoObject@@QAE@XZ" PURGE="0" COMMENT="" />
    <EXPORT ORDINAL="524" NAME="??0AutoRegKey@@QAE@PAUHKEY__@@@Z" PURGE="4" COMMENT="" />
    <EXPORT ORDINAL="525" NAME="??0AutoRegKey@@QAE@XZ" PURGE="0" COMMENT="" />
    <EXPORT ORDINAL="526" NAME="??0AutoSecurityDescriptor@@QAE@PAX@Z" PURGE="4" COMMENT="" />
    <EXPORT ORDINAL="527" NAME="??0AutoSecurityDescriptor@@QAE@XZ" PURGE="0" COMMENT="" />
    <EXPORT ORDINAL="528" NAME="??0AutoWaitHandle@@QAE@PAX@Z" PURGE="4" COMMENT="" />
    <EXPORT ORDINAL="529" NAME="??0AutoWaitHandle@@QAE@XZ" PURGE="0" COMMENT="" />
    <EXPORT ORDINAL="530" NAME="??0BufferFormatter@@QAE@PAEK@Z" PURGE="8" COMMENT="" />
    <EXPORT ORDINAL="531" NAME="??0BufferFormatter@@QAE@XZ" PURGE="0" COMMENT="" />
    <EXPORT ORDINAL="532" NAME="??0CBaseConfigCache@@IAE@W4ConfigLocation@CConfigChangeSource@@PAVFastLock@@PAVCConfigCacheMap@0@@Z" PURGE="12" COMMENT="" />
    <EXPORT ORDINAL="533" NAME="??0CClientConfigCache@@AAE@XZ" PURGE="0" COMMENT="" />
    <EXPORT ORDINAL="534" NAME="??0CConfigManager@@AAE@XZ" PURGE="0" COMMENT="" />
    <EXPORT ORDINAL="535" NAME="??0CErrorContext@@QAE@_N@Z" PURGE="4" COMMENT="" />
    <EXPORT ORDINAL="536" NAME="??0CRequestContext@@QAE@PBG@Z" PURGE="4" COMMENT="" />
    <EXPORT ORDINAL="537" NAME="??0CRequestContext@@QAE@XZ" PURGE="0" COMMENT="" />
    <EXPORT ORDINAL="538" NAME="??0CResourceAlias@@QAE@PBG@Z" PURGE="4" COMMENT="" />
    <EXPORT ORDINAL="539" NAME="??0CServiceConfigCache@@AAE@XZ" PURGE="0" COMMENT="" />
    <EXPORT ORDINAL="540" NAME="??0CServiceWatcher@CServiceConfigCache@@AAE@PAV1@PAVIServiceConfigObserver@@@Z" PURGE="8" COMMENT="" />
    <EXPORT ORDINAL="541" NAME="??0CWSManCriticalSection@@QAE@XZ" PURGE="0" COMMENT="" />
    <EXPORT ORDINAL="542" NAME="??0CWSManCriticalSectionWithConditionVar@@QAE@XZ" PURGE="0" COMMENT="" />
    <EXPORT ORDINAL="543" NAME="??0CWSManEPR@@QAE@H@Z" PURGE="4" COMMENT="" />
    <EXPORT ORDINAL="544" NAME="??0CWSManGroupPolicyManager@@AAE@XZ" PURGE="0" COMMENT="" />
    <EXPORT ORDINAL="545" NAME="??0CWSManResource@@QAE@H@Z" PURGE="4" COMMENT="" />
    <EXPORT ORDINAL="546" NAME="??0CWSManResourceNoResourceUri@@QAE@H@Z" PURGE="4" COMMENT="" />
    <EXPORT ORDINAL="547" NAME="??0CWSManSecurityUI@@QAE@XZ" PURGE="0" COMMENT="" />
    <EXPORT ORDINAL="548" NAME="??0CWinRSPluginConfigCache@@AAE@XZ" PURGE="0" COMMENT="" />
    <EXPORT ORDINAL="549" NAME="??0ChildLifeTimeManager@@QAE@ABV0@@Z" PURGE="4" COMMENT="" />
    <EXPORT ORDINAL="550" NAME="??0ChildLifeTimeManager@@QAE@XZ" PURGE="0" COMMENT="" />
    <EXPORT ORDINAL="551" NAME="??0CircularBufferFormatter@@QAE@XZ" PURGE="0" COMMENT="" />
    <EXPORT ORDINAL="552" NAME="??0ConfigRegistry@@IAE@XZ" PURGE="0" COMMENT="" />
    <EXPORT ORDINAL="553" NAME="??0EtwCorrelationHelper@@QAE@ABV0@@Z" PURGE="4" COMMENT="" />
    <EXPORT ORDINAL="554" NAME="??0EventHandler@WSMan@@QAE@XZ" PURGE="0" COMMENT="" />
    <EXPORT ORDINAL="555" NAME="??0ExtendedSemantic@@QAE@K@Z" PURGE="4" COMMENT="" />
    <EXPORT ORDINAL="556" NAME="??0FastLock@@QAE@XZ" PURGE="0" COMMENT="" />
    <EXPORT ORDINAL="557" NAME="??0Fragment@PacketParser@@QAE@XZ" PURGE="0" COMMENT="" />
    <EXPORT ORDINAL="558" NAME="??0IConfigChangeObserver@@QAE@ABV0@@Z" PURGE="4" COMMENT="" />
    <EXPORT ORDINAL="559" NAME="??0IConfigChangeObserver@@QAE@XZ" PURGE="0" COMMENT="" />
    <EXPORT ORDINAL="560" NAME="??0ILifeTimeMgmt@@QAE@ABV0@@Z" PURGE="4" COMMENT="" />
    <EXPORT ORDINAL="561" NAME="??0ILifeTimeMgmt@@QAE@XZ" PURGE="0" COMMENT="" />
    <EXPORT ORDINAL="562" NAME="??0IRequestContext@@IAE@XZ" PURGE="0" COMMENT="" />
    <EXPORT ORDINAL="563" NAME="??0IWSManGroupPolicyObserver@@QAE@ABV0@@Z" PURGE="4" COMMENT="" />
    <EXPORT ORDINAL="564" NAME="??0IWSManGroupPolicyObserver@@QAE@XZ" PURGE="0" COMMENT="" />
    <EXPORT ORDINAL="565" NAME="??0IWSManGroupPolicyPublisher@@QAE@ABV0@@Z" PURGE="4" COMMENT="" />
    <EXPORT ORDINAL="566" NAME="??0IWSManGroupPolicyPublisher@@QAE@XZ" PURGE="0" COMMENT="" />
    <EXPORT ORDINAL="567" NAME="??0Locale@@QAE@ABV0@@Z" PURGE="4" COMMENT="" />
    <EXPORT ORDINAL="568" NAME="??0Locale@@QAE@PAVIRequestContext@@@Z" PURGE="4" COMMENT="" />
    <EXPORT ORDINAL="569" NAME="??0Locale@@QAE@XZ" PURGE="0" COMMENT="" />
    <EXPORT ORDINAL="570" NAME="??0MessageId@PacketParser@@QAE@XZ" PURGE="0" COMMENT="" />
    <EXPORT ORDINAL="571" NAME="??0NotUnderstandSoapHeader@PacketParser@@QAE@XZ" PURGE="0" COMMENT="" />
    <EXPORT ORDINAL="572" NAME="??0OnHTTPInitialize@@QAE@XZ" PURGE="0" COMMENT="" />
    <EXPORT ORDINAL="573" NAME="??0OperationId@PacketParser@@QAE@XZ" PURGE="0" COMMENT="" />
    <EXPORT ORDINAL="574" NAME="??0OwnLock@@QAE@AAVFastLock@@@Z" PURGE="4" COMMENT="" />
    <EXPORT ORDINAL="575" NAME="??0PacketFormatter@@QAE@XZ" PURGE="0" COMMENT="" />
    <EXPORT ORDINAL="576" NAME="??0PacketParser@@QAE@XZ" PURGE="0" COMMENT="" />
    <EXPORT ORDINAL="577" NAME="??0RBUFFER@@QAE@I@Z" PURGE="4" COMMENT="" />
    <EXPORT ORDINAL="578" NAME="??0RBUFFER@@QAE@PAEI@Z" PURGE="8" COMMENT="" />
    <EXPORT ORDINAL="579" NAME="??0ReferenceParameters@PacketParser@@QAE@XZ" PURGE="0" COMMENT="" />
    <EXPORT ORDINAL="580" NAME="??0SBUFFER@@QAE@XZ" PURGE="0" COMMENT="" />
    <EXPORT ORDINAL="581" NAME="??0SessionId@PacketParser@@QAE@XZ" PURGE="0" COMMENT="" />
    <EXPORT ORDINAL="582" NAME="??0ShareLock@@QAE@AAVFastLock@@@Z" PURGE="4" COMMENT="" />
    <EXPORT ORDINAL="583" NAME="??0SoapSemanticConverter@@QAE@XZ" PURGE="0" COMMENT="" />
    <EXPORT ORDINAL="584" NAME="??0TSTRBUFFER@@QAE@XZ" PURGE="0" COMMENT="" />
    <EXPORT ORDINAL="585" NAME="??0UserAuthzRecord@@QAE@$$QAV0@@Z" PURGE="4" COMMENT="" />
    <EXPORT ORDINAL="586" NAME="??0UserAuthzRecord@@QAE@ABV0@@Z" PURGE="4" COMMENT="" />
    <EXPORT ORDINAL="587" NAME="??0UserAuthzRecord@@QAE@XZ" PURGE="0" COMMENT="" />
    <EXPORT ORDINAL="588" NAME="??0UserRecord@@QAE@XZ" PURGE="0" COMMENT="" />
    <EXPORT ORDINAL="589" NAME="??0XmlReader@@QAE@XZ" PURGE="0" COMMENT="" />
    <EXPORT ORDINAL="590" NAME="??1?$AutoCleanup@V?$AutoDelete@D@@PAD@@QAE@XZ" PURGE="0" COMMENT="" />
    <EXPORT ORDINAL="591" NAME="??1?$AutoCleanup@V?$AutoDelete@G@@PAG@@QAE@XZ" PURGE="0" COMMENT="" />
    <EXPORT ORDINAL="592" NAME="??1?$AutoCleanup@V?$AutoDelete@UIPRange@CWSManIPFilter@@@@PAUIPRange@CWSManIPFilter@@@@QAE@XZ" PURGE="0" COMMENT="" />
    <EXPORT ORDINAL="593" NAME="??1?$AutoCleanup@V?$AutoDelete@U_SID@@@@PAU_SID@@@@QAE@XZ" PURGE="0" COMMENT="" />
    <EXPORT ORDINAL="594" NAME="??1?$AutoCleanup@V?$AutoDelete@U_WSMAN_STREAM_ID_SET@@@@PAU_WSMAN_STREAM_ID_SET@@@@QAE@XZ" PURGE="0" COMMENT="" />
    <EXPORT ORDINAL="595" NAME="??1?$AutoCleanup@V?$AutoDelete@V?$Handle@VISubscription@@@@@@PAV?$Handle@VISubscription@@@@@@QAE@XZ" PURGE="0" COMMENT="" />
    <EXPORT ORDINAL="596" NAME="??1?$AutoCleanup@V?$AutoDelete@V?$SafeMap_Iterator@PAVCListenerConnect@@PAV1@@@@@PAV?$SafeMap_Iterator@PAVCListenerConnect@@PAV1@@@@@QAE@XZ" PURGE="0" COMMENT="" />
    <EXPORT ORDINAL="597" NAME="??1?$AutoCleanup@V?$AutoDelete@V?$SafeMap_Iterator@PAVCListenerReceive@@PAV1@@@@@PAV?$SafeMap_Iterator@PAVCListenerReceive@@PAV1@@@@@QAE@XZ" PURGE="0" COMMENT="" />
    <EXPORT ORDINAL="598" NAME="??1?$AutoCleanup@V?$AutoDelete@V?$SafeMap_Iterator@PAVCListenerSend@@PAV1@@@@@PAV?$SafeMap_Iterator@PAVCListenerSend@@PAV1@@@@@QAE@XZ" PURGE="0" COMMENT="" />
    <EXPORT ORDINAL="599" NAME="??1?$AutoCleanup@V?$AutoDelete@V?$SafeMap_Iterator@PAVCListenerSignal@@PAV1@@@@@PAV?$SafeMap_Iterator@PAVCListenerSignal@@PAV1@@@@@QAE@XZ" PURGE="0" COMMENT="" />
    <EXPORT ORDINAL="600" NAME="??1?$AutoCleanup@V?$AutoDelete@V?$SafeMap_Iterator@VGuidKey@@PAVCListenerCommand@@@@@@PAV?$SafeMap_Iterator@VGuidKey@@PAVCListenerCommand@@@@@@QAE@XZ" PURGE="0" COMMENT="" />
    <EXPORT ORDINAL="601" NAME="??1?$AutoCleanup@V?$AutoDelete@V?$SafeMap_Iterator@VStringKeyCI@@K@@@@PAV?$SafeMap_Iterator@VStringKeyCI@@K@@@@QAE@XZ" PURGE="0" COMMENT="" />
    <EXPORT ORDINAL="602" NAME="??1?$AutoCleanup@V?$AutoDelete@V?$SafeMap_Iterator@W4WSManSessionOption@@PAVOptionValue@SessionOptions@Client@WSMan@@@@@@PAV?$SafeMap_Iterator@W4WSManSessionOption@@PAVOptionValue@SessionOptions@Client@WSMan@@@@@@QAE@XZ" PURGE="0" COMMENT="" />
    <EXPORT ORDINAL="603" NAME="??1?$AutoCleanup@V?$AutoDelete@V?$SafeSet@PAVCCertMapping@@@@@@PAV?$SafeSet@PAVCCertMapping@@@@@@QAE@XZ" PURGE="0" COMMENT="" />
    <EXPORT ORDINAL="604" NAME="??1?$AutoCleanup@V?$AutoDelete@V?$SafeSet@PAVCShellUriSettings@@@@@@PAV?$SafeSet@PAVCShellUriSettings@@@@@@QAE@XZ" PURGE="0" COMMENT="" />
    <EXPORT ORDINAL="605" NAME="??1?$AutoCleanup@V?$AutoDelete@V?$SafeSet_Iterator@PAVCListenerOperation@@@@@@PAV?$SafeSet_Iterator@PAVCListenerOperation@@@@@@QAE@XZ" PURGE="0" COMMENT="" />
    <EXPORT ORDINAL="606" NAME="??1?$AutoCleanup@V?$AutoDelete@V?$SafeSet_Iterator@PAVCollector@@@@@@PAV?$SafeSet_Iterator@PAVCollector@@@@@@QAE@XZ" PURGE="0" COMMENT="" />
    <EXPORT ORDINAL="607" NAME="??1?$AutoCleanup@V?$AutoDelete@V?$SafeSet_Iterator@PAVHostOperation@@@@@@PAV?$SafeSet_Iterator@PAVHostOperation@@@@@@QAE@XZ" PURGE="0" COMMENT="" />
    <EXPORT ORDINAL="608" NAME="??1?$AutoCleanup@V?$AutoDelete@V?$SafeSet_Iterator@PAVListenerSourceSubscription@@@@@@PAV?$SafeSet_Iterator@PAVListenerSourceSubscription@@@@@@QAE@XZ" PURGE="0" COMMENT="" />
    <EXPORT ORDINAL="609" NAME="??1?$AutoCleanup@V?$AutoDelete@V?$SimpleStack@VCListenerOperation@@@@@@PAV?$SimpleStack@VCListenerOperation@@@@@@QAE@XZ" PURGE="0" COMMENT="" />
    <EXPORT ORDINAL="610" NAME="??1?$AutoCleanup@V?$AutoDelete@V?$SimpleStack@VShellHostEntry@@@@@@PAV?$SimpleStack@VShellHostEntry@@@@@@QAE@XZ" PURGE="0" COMMENT="" />
    <EXPORT ORDINAL="611" NAME="??1?$AutoCleanup@V?$AutoDelete@V?$queue@PAU_WSMAN_PUBLISHER_EVENT_STRUCT@@V?$deque@PAU_WSMAN_PUBLISHER_EVENT_STRUCT@@V?$transport_allocator@PAU_WSMAN_PUBLISHER_EVENT_STRUCT@@@@@std@@@std@@@@PAV?$queue@PAU_WSMAN_PUBLISHER_EVENT_STRUCT@@V?$deque@PAU_WSMAN_PUBLISHER_EVENT_STRUCT@@V?$transport_allocator@PAU_WSMAN_PUBLISHER_EVENT_STRUCT@@@@@std@@@std@@@@QAE@XZ" PURGE="0" COMMENT="" />
    <EXPORT ORDINAL="612" NAME="??1?$AutoCleanup@V?$AutoDelete@V?$set@PAVCListenerSettings@@VCListenerSettingsLessFunctor@CServiceConfigSettings@@V?$transport_allocator@PAVCListenerSettings@@@@@std@@@@PAV?$set@PAVCListenerSettings@@VCListenerSettingsLessFunctor@CServiceConfigSettings@@V?$transport_allocator@PAVCListenerSettings@@@@@std@@@@QAE@XZ" PURGE="0" COMMENT="" />
    <EXPORT ORDINAL="613" NAME="??1?$AutoCleanup@V?$AutoDelete@V?$set@Usockaddr_storage@@VSockAddrLessFunctor@CListenerSettings@@V?$transport_allocator@Usockaddr_storage@@@@@std@@@@PAV?$set@Usockaddr_storage@@VSockAddrLessFunctor@CListenerSettings@@V?$transport_allocator@Usockaddr_storage@@@@@std@@@@QAE@XZ" PURGE="0" COMMENT="" />
    <EXPORT ORDINAL="614" NAME="??1?$AutoCleanup@V?$AutoDelete@V?$vector@PAVCWSManRequest@@V?$transport_allocator@PAVCWSManRequest@@@@@std@@@@PAV?$vector@PAVCWSManRequest@@V?$transport_allocator@PAVCWSManRequest@@@@@std@@@@QAE@XZ" PURGE="0" COMMENT="" />
    <EXPORT ORDINAL="615" NAME="??1?$AutoCleanup@V?$AutoDelete@V?$vector@PAVHandleImpl@Client@WSMan@@V?$transport_allocator@PAVHandleImpl@Client@WSMan@@@@@std@@@@PAV?$vector@PAVHandleImpl@Client@WSMan@@V?$transport_allocator@PAVHandleImpl@Client@WSMan@@@@@std@@@@QAE@XZ" PURGE="0" COMMENT="" />
    <EXPORT ORDINAL="616" NAME="??1?$AutoCleanup@V?$AutoDelete@V?$vector@PAVIServiceConfigObserver@@V?$transport_allocator@PAVIServiceConfigObserver@@@@@std@@@@PAV?$vector@PAVIServiceConfigObserver@@V?$transport_allocator@PAVIServiceConfigObserver@@@@@std@@@@QAE@XZ" PURGE="0" COMMENT="" />
    <EXPORT ORDINAL="617" NAME="??1?$AutoCleanup@V?$AutoDelete@V?$vector@PAVWSManHttpSenderConnection@@V?$transport_allocator@PAVWSManHttpSenderConnection@@@@@std@@@@PAV?$vector@PAVWSManHttpSenderConnection@@V?$transport_allocator@PAVWSManHttpSenderConnection@@@@@std@@@@QAE@XZ" PURGE="0" COMMENT="" />
    <EXPORT ORDINAL="618" NAME="??1?$AutoCleanup@V?$AutoDelete@VAdminSid@CSecurity@@@@PAVAdminSid@CSecurity@@@@QAE@XZ" PURGE="0" COMMENT="" />
    <EXPORT ORDINAL="619" NAME="??1?$AutoCleanup@V?$AutoDelete@VBlockedRecord@@@@PAVBlockedRecord@@@@QAE@XZ" PURGE="0" COMMENT="" />
    <EXPORT ORDINAL="620" NAME="??1?$AutoCleanup@V?$AutoDelete@VCBaseConfigCache@@@@PAVCBaseConfigCache@@@@QAE@XZ" PURGE="0" COMMENT="" />
    <EXPORT ORDINAL="621" NAME="??1?$AutoCleanup@V?$AutoDelete@VCCertMapping@@@@PAVCCertMapping@@@@QAE@XZ" PURGE="0" COMMENT="" />
    <EXPORT ORDINAL="622" NAME="??1?$AutoCleanup@V?$AutoDelete@VCConfigChangeSource@@@@PAVCConfigChangeSource@@@@QAE@XZ" PURGE="0" COMMENT="" />
    <EXPORT ORDINAL="623" NAME="??1?$AutoCleanup@V?$AutoDelete@VCListenerSettings@@@@PAVCListenerSettings@@@@QAE@XZ" PURGE="0" COMMENT="" />
    <EXPORT ORDINAL="624" NAME="??1?$AutoCleanup@V?$AutoDelete@VCObserverConfigChangeErrors@@@@PAVCObserverConfigChangeErrors@@@@QAE@XZ" PURGE="0" COMMENT="" />
    <EXPORT ORDINAL="625" NAME="??1?$AutoCleanup@V?$AutoDelete@VCServiceWatcher@CServiceConfigCache@@@@PAVCServiceWatcher@CServiceConfigCache@@@@QAE@XZ" PURGE="0" COMMENT="" />
    <EXPORT ORDINAL="626" NAME="??1?$AutoCleanup@V?$AutoDelete@VCShellUriSettings@@@@PAVCShellUriSettings@@@@QAE@XZ" PURGE="0" COMMENT="" />
    <EXPORT ORDINAL="627" NAME="??1?$AutoCleanup@V?$AutoDelete@VCWSManEPR@@@@PAVCWSManEPR@@@@QAE@XZ" PURGE="0" COMMENT="" />
    <EXPORT ORDINAL="628" NAME="??1?$AutoCleanup@V?$AutoDelete@VCWSManResource@@@@PAVCWSManResource@@@@QAE@XZ" PURGE="0" COMMENT="" />
    <EXPORT ORDINAL="629" NAME="??1?$AutoCleanup@V?$AutoDelete@VCertHash@@@@PAVCertHash@@@@QAE@XZ" PURGE="0" COMMENT="" />
    <EXPORT ORDINAL="630" NAME="??1?$AutoCleanup@V?$AutoDelete@VConfigUpdate@@@@PAVConfigUpdate@@@@QAE@XZ" PURGE="0" COMMENT="" />
    <EXPORT ORDINAL="631" NAME="??1?$AutoCleanup@V?$AutoDelete@VEnumSinkEx@@@@PAVEnumSinkEx@@@@QAE@XZ" PURGE="0" COMMENT="" />
    <EXPORT ORDINAL="632" NAME="??1?$AutoCleanup@V?$AutoDelete@VEventHandler@WSMan@@@@PAVEventHandler@WSMan@@@@QAE@XZ" PURGE="0" COMMENT="" />
    <EXPORT ORDINAL="633" NAME="??1?$AutoCleanup@V?$AutoDelete@VExpiredOperationIdRecord@@@@PAVExpiredOperationIdRecord@@@@QAE@XZ" PURGE="0" COMMENT="" />
    <EXPORT ORDINAL="634" NAME="??1?$AutoCleanup@V?$AutoDelete@VGPApiManager@@@@PAVGPApiManager@@@@QAE@XZ" PURGE="0" COMMENT="" />
    <EXPORT ORDINAL="635" NAME="??1?$AutoCleanup@V?$AutoDelete@VGeneralSinkEx@@@@PAVGeneralSinkEx@@@@QAE@XZ" PURGE="0" COMMENT="" />
    <EXPORT ORDINAL="636" NAME="??1?$AutoCleanup@V?$AutoDelete@VIChannelObserverFactory@@@@PAVIChannelObserverFactory@@@@QAE@XZ" PURGE="0" COMMENT="" />
    <EXPORT ORDINAL="637" NAME="??1?$AutoCleanup@V?$AutoDelete@VIQueryDASHSMASHInterface@@@@PAVIQueryDASHSMASHInterface@@@@QAE@XZ" PURGE="0" COMMENT="" />
    <EXPORT ORDINAL="638" NAME="??1?$AutoCleanup@V?$AutoDelete@VISpecification@@@@PAVISpecification@@@@QAE@XZ" PURGE="0" COMMENT="" />
    <EXPORT ORDINAL="639" NAME="??1?$AutoCleanup@V?$AutoDelete@VInteractiveSid@CSecurity@@@@PAVInteractiveSid@CSecurity@@@@QAE@XZ" PURGE="0" COMMENT="" />
    <EXPORT ORDINAL="640" NAME="??1?$AutoCleanup@V?$AutoDelete@VIpHlpApiDllLoader@@@@PAVIpHlpApiDllLoader@@@@QAE@XZ" PURGE="0" COMMENT="" />
    <EXPORT ORDINAL="641" NAME="??1?$AutoCleanup@V?$AutoDelete@VMachineName@@@@PAVMachineName@@@@QAE@XZ" PURGE="0" COMMENT="" />
    <EXPORT ORDINAL="642" NAME="??1?$AutoCleanup@V?$AutoDelete@VMasterReceiveData@CListenerReceive@@@@PAVMasterReceiveData@CListenerReceive@@@@QAE@XZ" PURGE="0" COMMENT="" />
    <EXPORT ORDINAL="643" NAME="??1?$AutoCleanup@V?$AutoDelete@VNetworkServiceSid@CSecurity@@@@PAVNetworkServiceSid@CSecurity@@@@QAE@XZ" PURGE="0" COMMENT="" />
    <EXPORT ORDINAL="644" NAME="??1?$AutoCleanup@V?$AutoDelete@VNtDsApiDllLoader@@@@PAVNtDsApiDllLoader@@@@QAE@XZ" PURGE="0" COMMENT="" />
    <EXPORT ORDINAL="645" NAME="??1?$AutoCleanup@V?$AutoDelete@VOptionValue@SessionOptions@Client@WSMan@@@@PAVOptionValue@SessionOptions@Client@WSMan@@@@QAE@XZ" PURGE="0" COMMENT="" />
    <EXPORT ORDINAL="646" NAME="??1?$AutoCleanup@V?$AutoDelete@VPacketCreator@@@@PAVPacketCreator@@@@QAE@XZ" PURGE="0" COMMENT="" />
    <EXPORT ORDINAL="647" NAME="??1?$AutoCleanup@V?$AutoDelete@VPacketParser@@@@PAVPacketParser@@@@QAE@XZ" PURGE="0" COMMENT="" />
    <EXPORT ORDINAL="648" NAME="??1?$AutoCleanup@V?$AutoDelete@VResources@Locale@@@@PAVResources@Locale@@@@QAE@XZ" PURGE="0" COMMENT="" />
    <EXPORT ORDINAL="649" NAME="??1?$AutoCleanup@V?$AutoDelete@VRunAsConfiguration@@@@PAVRunAsConfiguration@@@@QAE@XZ" PURGE="0" COMMENT="" />
    <EXPORT ORDINAL="650" NAME="??1?$AutoCleanup@V?$AutoDelete@VSafeBufferWrite@@@@PAVSafeBufferWrite@@@@QAE@XZ" PURGE="0" COMMENT="" />
    <EXPORT ORDINAL="651" NAME="??1?$AutoCleanup@V?$AutoDelete@VSecurityEntry@Catalog@@@@PAVSecurityEntry@Catalog@@@@QAE@XZ" PURGE="0" COMMENT="" />
    <EXPORT ORDINAL="652" NAME="??1?$AutoCleanup@V?$AutoDelete@VSendPacketArgs@RobustConnectionBuffer@@@@PAVSendPacketArgs@RobustConnectionBuffer@@@@QAE@XZ" PURGE="0" COMMENT="" />
    <EXPORT ORDINAL="653" NAME="??1?$AutoCleanup@V?$AutoDelete@VServiceSoapProcessor@@@@PAVServiceSoapProcessor@@@@QAE@XZ" PURGE="0" COMMENT="" />
    <EXPORT ORDINAL="654" NAME="??1?$AutoCleanup@V?$AutoDelete@VShell32DllLoader@@@@PAVShell32DllLoader@@@@QAE@XZ" PURGE="0" COMMENT="" />
    <EXPORT ORDINAL="655" NAME="??1?$AutoCleanup@V?$AutoDelete@VShlWApiDllLoader@@@@PAVShlWApiDllLoader@@@@QAE@XZ" PURGE="0" COMMENT="" />
    <EXPORT ORDINAL="656" NAME="??1?$AutoCleanup@V?$AutoDelete@VSubscriptionEnumerator@@@@PAVSubscriptionEnumerator@@@@QAE@XZ" PURGE="0" COMMENT="" />
    <EXPORT ORDINAL="657" NAME="??1?$AutoCleanup@V?$AutoDelete@VSubscriptionManager@@@@PAVSubscriptionManager@@@@QAE@XZ" PURGE="0" COMMENT="" />
    <EXPORT ORDINAL="658" NAME="??1?$AutoCleanup@V?$AutoDelete@VTSTRBUFFER@@@@PAVTSTRBUFFER@@@@QAE@XZ" PURGE="0" COMMENT="" />
    <EXPORT ORDINAL="659" NAME="??1?$AutoCleanup@V?$AutoDelete@VUniqueStringOverflow@@@@PAVUniqueStringOverflow@@@@QAE@XZ" PURGE="0" COMMENT="" />
    <EXPORT ORDINAL="660" NAME="??1?$AutoCleanup@V?$AutoDelete@VUser32DllLoader@@@@PAVUser32DllLoader@@@@QAE@XZ" PURGE="0" COMMENT="" />
    <EXPORT ORDINAL="661" NAME="??1?$AutoCleanup@V?$AutoDelete@VWSMANCONFIGTABLE_IDENTITY@@@@PAVWSMANCONFIGTABLE_IDENTITY@@@@QAE@XZ" PURGE="0" COMMENT="" />
    <EXPORT ORDINAL="662" NAME="??1?$AutoCleanup@V?$AutoDelete@VWSManMemCryptManager@@@@PAVWSManMemCryptManager@@@@QAE@XZ" PURGE="0" COMMENT="" />
    <EXPORT ORDINAL="663" NAME="??1?$AutoCleanup@V?$AutoDelete@VWmiEnumContext@@@@PAVWmiEnumContext@@@@QAE@XZ" PURGE="0" COMMENT="" />
    <EXPORT ORDINAL="664" NAME="??1?$AutoCleanup@V?$AutoDelete@VXmlReader@@@@PAVXmlReader@@@@QAE@XZ" PURGE="0" COMMENT="" />
    <EXPORT ORDINAL="665" NAME="??1?$AutoCleanup@V?$AutoDeleteVector@$$CBG@@PBG@@QAE@XZ" PURGE="0" COMMENT="" />
    <EXPORT ORDINAL="666" NAME="??1?$AutoCleanup@V?$AutoDeleteVector@D@@PAD@@QAE@XZ" PURGE="0" COMMENT="" />
    <EXPORT ORDINAL="667" NAME="??1?$AutoCleanup@V?$AutoDeleteVector@E@@PAE@@QAE@XZ" PURGE="0" COMMENT="" />
    <EXPORT ORDINAL="668" NAME="??1?$AutoCleanup@V?$AutoDeleteVector@G@@PAG@@QAE@XZ" PURGE="0" COMMENT="" />
    <EXPORT ORDINAL="669" NAME="??1?$AutoCleanup@V?$AutoDeleteVector@H@@PAH@@QAE@XZ" PURGE="0" COMMENT="" />
    <EXPORT ORDINAL="670" NAME="??1?$AutoCleanup@V?$AutoDeleteVector@PAG@@PAPAG@@QAE@XZ" PURGE="0" COMMENT="" />
    <EXPORT ORDINAL="671" NAME="??1?$AutoCleanup@V?$AutoDeleteVector@PBG@@PAPBG@@QAE@XZ" PURGE="0" COMMENT="" />
    <EXPORT ORDINAL="672" NAME="??1?$AutoCleanup@V?$AutoDeleteVector@U_CONFIG_UPDATE@@@@PAU_CONFIG_UPDATE@@@@QAE@XZ" PURGE="0" COMMENT="" />
    <EXPORT ORDINAL="673" NAME="??1?$AutoCleanup@V?$AutoDeleteVector@U_WINRS_CREATE_SHELL_ENVIRONMENT_VARIABLE@@@@PAU_WINRS_CREATE_SHELL_ENVIRONMENT_VARIABLE@@@@QAE@XZ" PURGE="0" COMMENT="" />
    <EXPORT ORDINAL="674" NAME="??1?$AutoCleanup@V?$AutoDeleteVector@U_WINRS_RUN_COMMAND_ARG@@@@PAU_WINRS_RUN_COMMAND_ARG@@@@QAE@XZ" PURGE="0" COMMENT="" />
    <EXPORT ORDINAL="675" NAME="??1?$AutoCleanup@V?$AutoDeleteVector@U_WSMAN_OPTION@@@@PAU_WSMAN_OPTION@@@@QAE@XZ" PURGE="0" COMMENT="" />
    <EXPORT ORDINAL="676" NAME="??1?$AutoCleanup@V?$AutoDeleteVector@X@@PAX@@QAE@XZ" PURGE="0" COMMENT="" />
    <EXPORT ORDINAL="677" NAME="??1?$AutoCleanup@V?$AutoFree@E@@PAE@@QAE@XZ" PURGE="0" COMMENT="" />
    <EXPORT ORDINAL="678" NAME="??1?$AutoCleanup@V?$AutoLocklessItemRecycle@VPacket@@@@PAVPacket@@@@QAE@XZ" PURGE="0" COMMENT="" />
    <EXPORT ORDINAL="679" NAME="??1?$AutoCleanup@V?$AutoRelease@UIAppHostAdminManager@@@@PAUIAppHostAdminManager@@@@QAE@XZ" PURGE="0" COMMENT="" />
    <EXPORT ORDINAL="680" NAME="??1?$AutoCleanup@V?$AutoRelease@UIAppHostChildElementCollection@@@@PAUIAppHostChildElementCollection@@@@QAE@XZ" PURGE="0" COMMENT="" />
    <EXPORT ORDINAL="681" NAME="??1?$AutoCleanup@V?$AutoRelease@UIAppHostConfigException@@@@PAUIAppHostConfigException@@@@QAE@XZ" PURGE="0" COMMENT="" />
    <EXPORT ORDINAL="682" NAME="??1?$AutoCleanup@V?$AutoRelease@UIAppHostElement@@@@PAUIAppHostElement@@@@QAE@XZ" PURGE="0" COMMENT="" />
    <EXPORT ORDINAL="683" NAME="??1?$AutoCleanup@V?$AutoRelease@UIAppHostElementCollection@@@@PAUIAppHostElementCollection@@@@QAE@XZ" PURGE="0" COMMENT="" />
    <EXPORT ORDINAL="684" NAME="??1?$AutoCleanup@V?$AutoRelease@UIAppHostProperty@@@@PAUIAppHostProperty@@@@QAE@XZ" PURGE="0" COMMENT="" />
    <EXPORT ORDINAL="685" NAME="??1?$AutoCleanup@V?$AutoRelease@UIAppHostPropertyCollection@@@@PAUIAppHostPropertyCollection@@@@QAE@XZ" PURGE="0" COMMENT="" />
    <EXPORT ORDINAL="686" NAME="??1?$AutoCleanup@V?$AutoRelease@UIClientSecurity@@@@PAUIClientSecurity@@@@QAE@XZ" PURGE="0" COMMENT="" />
    <EXPORT ORDINAL="687" NAME="??1?$AutoCleanup@V?$AutoRelease@UIEnumWbemClassObject@@@@PAUIEnumWbemClassObject@@@@QAE@XZ" PURGE="0" COMMENT="" />
    <EXPORT ORDINAL="688" NAME="??1?$AutoCleanup@V?$AutoRelease@UIErrorInfo@@@@PAUIErrorInfo@@@@QAE@XZ" PURGE="0" COMMENT="" />
    <EXPORT ORDINAL="689" NAME="??1?$AutoCleanup@V?$AutoRelease@UIUnknown@@@@PAUIUnknown@@@@QAE@XZ" PURGE="0" COMMENT="" />
    <EXPORT ORDINAL="690" NAME="??1?$AutoCleanup@V?$AutoRelease@UIWbemClassObject@@@@PAUIWbemClassObject@@@@QAE@XZ" PURGE="0" COMMENT="" />
    <EXPORT ORDINAL="691" NAME="??1?$AutoCleanup@V?$AutoRelease@UIWbemContext@@@@PAUIWbemContext@@@@QAE@XZ" PURGE="0" COMMENT="" />
    <EXPORT ORDINAL="692" NAME="??1?$AutoCleanup@V?$AutoRelease@UIWbemLocator@@@@PAUIWbemLocator@@@@QAE@XZ" PURGE="0" COMMENT="" />
    <EXPORT ORDINAL="693" NAME="??1?$AutoCleanup@V?$AutoRelease@UIWbemObjectTextSrc@@@@PAUIWbemObjectTextSrc@@@@QAE@XZ" PURGE="0" COMMENT="" />
    <EXPORT ORDINAL="694" NAME="??1?$AutoCleanup@V?$AutoRelease@UIWbemPath@@@@PAUIWbemPath@@@@QAE@XZ" PURGE="0" COMMENT="" />
    <EXPORT ORDINAL="695" NAME="??1?$AutoCleanup@V?$AutoRelease@UIWbemPathKeyList@@@@PAUIWbemPathKeyList@@@@QAE@XZ" PURGE="0" COMMENT="" />
    <EXPORT ORDINAL="696" NAME="??1?$AutoCleanup@V?$AutoRelease@UIWbemQualifierSet@@@@PAUIWbemQualifierSet@@@@QAE@XZ" PURGE="0" COMMENT="" />
    <EXPORT ORDINAL="697" NAME="??1?$AutoCleanup@V?$AutoRelease@UIWbemQuery@@@@PAUIWbemQuery@@@@QAE@XZ" PURGE="0" COMMENT="" />
    <EXPORT ORDINAL="698" NAME="??1?$AutoCleanup@V?$AutoRelease@UIWbemServices@@@@PAUIWbemServices@@@@QAE@XZ" PURGE="0" COMMENT="" />
    <EXPORT ORDINAL="699" NAME="??1?$AutoCleanup@V?$AutoRelease@VApplication@Client@WSMan@@@@PAVApplication@Client@WSMan@@@@QAE@XZ" PURGE="0" COMMENT="" />
    <EXPORT ORDINAL="700" NAME="??1?$AutoCleanup@V?$AutoRelease@VCBaseConfigCache@@@@PAVCBaseConfigCache@@@@QAE@XZ" PURGE="0" COMMENT="" />
    <EXPORT ORDINAL="701" NAME="??1?$AutoCleanup@V?$AutoRelease@VCClientConfigCache@@@@PAVCClientConfigCache@@@@QAE@XZ" PURGE="0" COMMENT="" />
    <EXPORT ORDINAL="702" NAME="??1?$AutoCleanup@V?$AutoRelease@VCClientConfigSettings@@@@PAVCClientConfigSettings@@@@QAE@XZ" PURGE="0" COMMENT="" />
    <EXPORT ORDINAL="703" NAME="??1?$AutoCleanup@V?$AutoRelease@VCCommonConfigSettings@@@@PAVCCommonConfigSettings@@@@QAE@XZ" PURGE="0" COMMENT="" />
    <EXPORT ORDINAL="704" NAME="??1?$AutoCleanup@V?$AutoRelease@VCConfigCacheMap@CBaseConfigCache@@@@PAVCConfigCacheMap@CBaseConfigCache@@@@QAE@XZ" PURGE="0" COMMENT="" />
    <EXPORT ORDINAL="705" NAME="??1?$AutoCleanup@V?$AutoRelease@VCConfigManager@@@@PAVCConfigManager@@@@QAE@XZ" PURGE="0" COMMENT="" />
    <EXPORT ORDINAL="706" NAME="??1?$AutoCleanup@V?$AutoRelease@VCListenerCommand@@@@PAVCListenerCommand@@@@QAE@XZ" PURGE="0" COMMENT="" />
    <EXPORT ORDINAL="707" NAME="??1?$AutoCleanup@V?$AutoRelease@VCListenerMasterOperation@@@@PAVCListenerMasterOperation@@@@QAE@XZ" PURGE="0" COMMENT="" />
    <EXPORT ORDINAL="708" NAME="??1?$AutoCleanup@V?$AutoRelease@VCListenerReceive@@@@PAVCListenerReceive@@@@QAE@XZ" PURGE="0" COMMENT="" />
    <EXPORT ORDINAL="709" NAME="??1?$AutoCleanup@V?$AutoRelease@VCListenerShell@@@@PAVCListenerShell@@@@QAE@XZ" PURGE="0" COMMENT="" />
    <EXPORT ORDINAL="710" NAME="??1?$AutoCleanup@V?$AutoRelease@VCRemoteOperation@@@@PAVCRemoteOperation@@@@QAE@XZ" PURGE="0" COMMENT="" />
    <EXPORT ORDINAL="711" NAME="??1?$AutoCleanup@V?$AutoRelease@VCRemoteSession@@@@PAVCRemoteSession@@@@QAE@XZ" PURGE="0" COMMENT="" />
    <EXPORT ORDINAL="712" NAME="??1?$AutoCleanup@V?$AutoRelease@VCRequestContext@@@@PAVCRequestContext@@@@QAE@XZ" PURGE="0" COMMENT="" />
    <EXPORT ORDINAL="713" NAME="??1?$AutoCleanup@V?$AutoRelease@VCServiceCommonConfigSettings@@@@PAVCServiceCommonConfigSettings@@@@QAE@XZ" PURGE="0" COMMENT="" />
    <EXPORT ORDINAL="714" NAME="??1?$AutoCleanup@V?$AutoRelease@VCServiceConfigCache@@@@PAVCServiceConfigCache@@@@QAE@XZ" PURGE="0" COMMENT="" />
    <EXPORT ORDINAL="715" NAME="??1?$AutoCleanup@V?$AutoRelease@VCServiceConfigSettings@@@@PAVCServiceConfigSettings@@@@QAE@XZ" PURGE="0" COMMENT="" />
    <EXPORT ORDINAL="716" NAME="??1?$AutoCleanup@V?$AutoRelease@VCWSManEPR@@@@PAVCWSManEPR@@@@QAE@XZ" PURGE="0" COMMENT="" />
    <EXPORT ORDINAL="717" NAME="??1?$AutoCleanup@V?$AutoRelease@VCWSManGroupPolicyCache@@@@PAVCWSManGroupPolicyCache@@@@QAE@XZ" PURGE="0" COMMENT="" />
    <EXPORT ORDINAL="718" NAME="??1?$AutoCleanup@V?$AutoRelease@VCWSManGroupPolicyManager@@@@PAVCWSManGroupPolicyManager@@@@QAE@XZ" PURGE="0" COMMENT="" />
    <EXPORT ORDINAL="719" NAME="??1?$AutoCleanup@V?$AutoRelease@VCWSManObject@@@@PAVCWSManObject@@@@QAE@XZ" PURGE="0" COMMENT="" />
    <EXPORT ORDINAL="720" NAME="??1?$AutoCleanup@V?$AutoRelease@VCWSManResource@@@@PAVCWSManResource@@@@QAE@XZ" PURGE="0" COMMENT="" />
    <EXPORT ORDINAL="721" NAME="??1?$AutoCleanup@V?$AutoRelease@VCWSManSession@@@@PAVCWSManSession@@@@QAE@XZ" PURGE="0" COMMENT="" />
    <EXPORT ORDINAL="722" NAME="??1?$AutoCleanup@V?$AutoRelease@VCWinRSPluginConfigCache@@@@PAVCWinRSPluginConfigCache@@@@QAE@XZ" PURGE="0" COMMENT="" />
    <EXPORT ORDINAL="723" NAME="??1?$AutoCleanup@V?$AutoRelease@VCWinRSPluginConfigSettings@@@@PAVCWinRSPluginConfigSettings@@@@QAE@XZ" PURGE="0" COMMENT="" />
    <EXPORT ORDINAL="724" NAME="??1?$AutoCleanup@V?$AutoRelease@VCommand@Client@WSMan@@@@PAVCommand@Client@WSMan@@@@QAE@XZ" PURGE="0" COMMENT="" />
    <EXPORT ORDINAL="725" NAME="??1?$AutoCleanup@V?$AutoRelease@VConfigNotification@@@@PAVConfigNotification@@@@QAE@XZ" PURGE="0" COMMENT="" />
    <EXPORT ORDINAL="726" NAME="??1?$AutoCleanup@V?$AutoRelease@VConnectShellOperation@Client@WSMan@@@@PAVConnectShellOperation@Client@WSMan@@@@QAE@XZ" PURGE="0" COMMENT="" />
    <EXPORT ORDINAL="727" NAME="??1?$AutoCleanup@V?$AutoRelease@VCreateShellOperation@Client@WSMan@@@@PAVCreateShellOperation@Client@WSMan@@@@QAE@XZ" PURGE="0" COMMENT="" />
    <EXPORT ORDINAL="728" NAME="??1?$AutoCleanup@V?$AutoRelease@VDeleteShellOperation@Client@WSMan@@@@PAVDeleteShellOperation@Client@WSMan@@@@QAE@XZ" PURGE="0" COMMENT="" />
    <EXPORT ORDINAL="729" NAME="??1?$AutoCleanup@V?$AutoRelease@VDisconnectOperation@Client@WSMan@@@@PAVDisconnectOperation@Client@WSMan@@@@QAE@XZ" PURGE="0" COMMENT="" />
    <EXPORT ORDINAL="730" NAME="??1?$AutoCleanup@V?$AutoRelease@VEnumSinkEx@@@@PAVEnumSinkEx@@@@QAE@XZ" PURGE="0" COMMENT="" />
    <EXPORT ORDINAL="731" NAME="??1?$AutoCleanup@V?$AutoRelease@VGeneralSinkEx@@@@PAVGeneralSinkEx@@@@QAE@XZ" PURGE="0" COMMENT="" />
    <EXPORT ORDINAL="732" NAME="??1?$AutoCleanup@V?$AutoRelease@VHostMappingTable@@@@PAVHostMappingTable@@@@QAE@XZ" PURGE="0" COMMENT="" />
    <EXPORT ORDINAL="733" NAME="??1?$AutoCleanup@V?$AutoRelease@VIISConfigSettings@@@@PAVIISConfigSettings@@@@QAE@XZ" PURGE="0" COMMENT="" />
    <EXPORT ORDINAL="734" NAME="??1?$AutoCleanup@V?$AutoRelease@VIPCSoapProcessor@@@@PAVIPCSoapProcessor@@@@QAE@XZ" PURGE="0" COMMENT="" />
    <EXPORT ORDINAL="735" NAME="??1?$AutoCleanup@V?$AutoRelease@VIRequestContext@@@@PAVIRequestContext@@@@QAE@XZ" PURGE="0" COMMENT="" />
    <EXPORT ORDINAL="736" NAME="??1?$AutoCleanup@V?$AutoRelease@VISubscription@@@@PAVISubscription@@@@QAE@XZ" PURGE="0" COMMENT="" />
    <EXPORT ORDINAL="737" NAME="??1?$AutoCleanup@V?$AutoRelease@VInboundRequestDetails@@@@PAVInboundRequestDetails@@@@QAE@XZ" PURGE="0" COMMENT="" />
    <EXPORT ORDINAL="738" NAME="??1?$AutoCleanup@V?$AutoRelease@VProxyManager@Client@WSMan@@@@PAVProxyManager@Client@WSMan@@@@QAE@XZ" PURGE="0" COMMENT="" />
    <EXPORT ORDINAL="739" NAME="??1?$AutoCleanup@V?$AutoRelease@VProxySelection@Client@WSMan@@@@PAVProxySelection@Client@WSMan@@@@QAE@XZ" PURGE="0" COMMENT="" />
    <EXPORT ORDINAL="740" NAME="??1?$AutoCleanup@V?$AutoRelease@VPushSubscribeOperation@@@@PAVPushSubscribeOperation@@@@QAE@XZ" PURGE="0" COMMENT="" />
    <EXPORT ORDINAL="741" NAME="??1?$AutoCleanup@V?$AutoRelease@VPushSubscription@@@@PAVPushSubscription@@@@QAE@XZ" PURGE="0" COMMENT="" />
    <EXPORT ORDINAL="742" NAME="??1?$AutoCleanup@V?$AutoRelease@VReceiveOperation@Client@WSMan@@@@PAVReceiveOperation@Client@WSMan@@@@QAE@XZ" PURGE="0" COMMENT="" />
    <EXPORT ORDINAL="743" NAME="??1?$AutoCleanup@V?$AutoRelease@VReconnectOperation@Client@WSMan@@@@PAVReconnectOperation@Client@WSMan@@@@QAE@XZ" PURGE="0" COMMENT="" />
    <EXPORT ORDINAL="744" NAME="??1?$AutoCleanup@V?$AutoRelease@VSendOperation@Client@WSMan@@@@PAVSendOperation@Client@WSMan@@@@QAE@XZ" PURGE="0" COMMENT="" />
    <EXPORT ORDINAL="745" NAME="??1?$AutoCleanup@V?$AutoRelease@VShell@Client@WSMan@@@@PAVShell@Client@WSMan@@@@QAE@XZ" PURGE="0" COMMENT="" />
    <EXPORT ORDINAL="746" NAME="??1?$AutoCleanup@V?$AutoRelease@VShellInfo@@@@PAVShellInfo@@@@QAE@XZ" PURGE="0" COMMENT="" />
    <EXPORT ORDINAL="747" NAME="??1?$AutoCleanup@V?$AutoRelease@VSignalOperation@Client@WSMan@@@@PAVSignalOperation@Client@WSMan@@@@QAE@XZ" PURGE="0" COMMENT="" />
    <EXPORT ORDINAL="748" NAME="??1?$AutoCleanup@V?$AutoRelease@VUserRecord@@@@PAVUserRecord@@@@QAE@XZ" PURGE="0" COMMENT="" />
    <EXPORT ORDINAL="749" NAME="??1?$AutoCleanup@V?$AutoRelease@VWSManHttpListener@@@@PAVWSManHttpListener@@@@QAE@XZ" PURGE="0" COMMENT="" />
    <EXPORT ORDINAL="750" NAME="??1?$AutoCleanup@V?$AutoReleaseEx@VHostMappingTableEntry@@@@PAVHostMappingTableEntry@@@@QAE@XZ" PURGE="0" COMMENT="" />
    <EXPORT ORDINAL="751" NAME="??1?$AutoCleanup@V?$AutoReleaseEx@VShell@Client@WSMan@@@@PAVShell@Client@WSMan@@@@QAE@XZ" PURGE="0" COMMENT="" />
    <EXPORT ORDINAL="752" NAME="??1?$AutoCleanup@VAutoBstr@@PAG@@QAE@XZ" PURGE="0" COMMENT="" />
    <EXPORT ORDINAL="753" NAME="??1?$AutoCleanup@VAutoBstrNoAlloc@@PAG@@QAE@XZ" PURGE="0" COMMENT="" />
    <EXPORT ORDINAL="754" NAME="??1?$AutoCleanup@VAutoCertContext@@PBU_CERT_CONTEXT@@@@QAE@XZ" PURGE="0" COMMENT="" />
    <EXPORT ORDINAL="755" NAME="??1?$AutoCleanup@VAutoChainContext@@PBU_CERT_CHAIN_CONTEXT@@@@QAE@XZ" PURGE="0" COMMENT="" />
    <EXPORT ORDINAL="756" NAME="??1?$AutoCleanup@VAutoCoTaskMemFree@@PAX@@QAE@XZ" PURGE="0" COMMENT="" />
    <EXPORT ORDINAL="757" NAME="??1?$AutoCleanup@VAutoFwXmlCloseParser@@PAX@@QAE@XZ" PURGE="0" COMMENT="" />
    <EXPORT ORDINAL="758" NAME="??1?$AutoCleanup@VAutoHandle@@PAX@@QAE@XZ" PURGE="0" COMMENT="" />
    <EXPORT ORDINAL="759" NAME="??1?$AutoCleanup@VAutoImpersonateUser@@PAX@@QAE@XZ" PURGE="0" COMMENT="" />
    <EXPORT ORDINAL="760" NAME="??1?$AutoCleanup@VAutoLibrary@@PAUHINSTANCE__@@@@QAE@XZ" PURGE="0" COMMENT="" />
    <EXPORT ORDINAL="761" NAME="??1?$AutoCleanup@VAutoLocalFree@@PAX@@QAE@XZ" PURGE="0" COMMENT="" />
    <EXPORT ORDINAL="762" NAME="??1?$AutoCleanup@VAutoMIClass@@PAU_MI_Class@@@@QAE@XZ" PURGE="0" COMMENT="" />
    <EXPORT ORDINAL="763" NAME="??1?$AutoCleanup@VAutoMIInstance@@PAU_MI_Instance@@@@QAE@XZ" PURGE="0" COMMENT="" />
    <EXPORT ORDINAL="764" NAME="??1?$AutoCleanup@VAutoObject@@PAUWSMAN_OBJECT@@@@QAE@XZ" PURGE="0" COMMENT="" />
    <EXPORT ORDINAL="765" NAME="??1?$AutoCleanup@VAutoRegKey@@PAUHKEY__@@@@QAE@XZ" PURGE="0" COMMENT="" />
    <EXPORT ORDINAL="766" NAME="??1?$AutoCleanup@VAutoSecurityDescriptor@@PAX@@QAE@XZ" PURGE="0" COMMENT="" />
    <EXPORT ORDINAL="767" NAME="??1?$AutoCleanup@VAutoWaitHandle@@PAX@@QAE@XZ" PURGE="0" COMMENT="" />
    <EXPORT ORDINAL="768" NAME="??1?$AutoDelete@D@@QAE@XZ" PURGE="0" COMMENT="" />
    <EXPORT ORDINAL="769" NAME="??1?$AutoDelete@G@@QAE@XZ" PURGE="0" COMMENT="" />
    <EXPORT ORDINAL="770" NAME="??1?$AutoDelete@UIPRange@CWSManIPFilter@@@@QAE@XZ" PURGE="0" COMMENT="" />
    <EXPORT ORDINAL="771" NAME="??1?$AutoDelete@U_SID@@@@QAE@XZ" PURGE="0" COMMENT="" />
    <EXPORT ORDINAL="772" NAME="??1?$AutoDelete@U_WSMAN_STREAM_ID_SET@@@@QAE@XZ" PURGE="0" COMMENT="" />
    <EXPORT ORDINAL="773" NAME="??1?$AutoDelete@V?$Handle@VISubscription@@@@@@QAE@XZ" PURGE="0" COMMENT="" />
    <EXPORT ORDINAL="774" NAME="??1?$AutoDelete@V?$SafeMap_Iterator@PAVCListenerConnect@@PAV1@@@@@QAE@XZ" PURGE="0" COMMENT="" />
    <EXPORT ORDINAL="775" NAME="??1?$AutoDelete@V?$SafeMap_Iterator@PAVCListenerReceive@@PAV1@@@@@QAE@XZ" PURGE="0" COMMENT="" />
    <EXPORT ORDINAL="776" NAME="??1?$AutoDelete@V?$SafeMap_Iterator@PAVCListenerSend@@PAV1@@@@@QAE@XZ" PURGE="0" COMMENT="" />
    <EXPORT ORDINAL="777" NAME="??1?$AutoDelete@V?$SafeMap_Iterator@PAVCListenerSignal@@PAV1@@@@@QAE@XZ" PURGE="0" COMMENT="" />
    <EXPORT ORDINAL="778" NAME="??1?$AutoDelete@V?$SafeMap_Iterator@VGuidKey@@PAVCListenerCommand@@@@@@QAE@XZ" PURGE="0" COMMENT="" />
    <EXPORT ORDINAL="779" NAME="??1?$AutoDelete@V?$SafeMap_Iterator@VStringKeyCI@@K@@@@QAE@XZ" PURGE="0" COMMENT="" />
    <EXPORT ORDINAL="780" NAME="??1?$AutoDelete@V?$SafeMap_Iterator@W4WSManSessionOption@@PAVOptionValue@SessionOptions@Client@WSMan@@@@@@QAE@XZ" PURGE="0" COMMENT="" />
    <EXPORT ORDINAL="781" NAME="??1?$AutoDelete@V?$SafeSet@PAVCCertMapping@@@@@@QAE@XZ" PURGE="0" COMMENT="" />
    <EXPORT ORDINAL="782" NAME="??1?$AutoDelete@V?$SafeSet@PAVCShellUriSettings@@@@@@QAE@XZ" PURGE="0" COMMENT="" />
    <EXPORT ORDINAL="783" NAME="??1?$AutoDelete@V?$SafeSet_Iterator@PAVCListenerOperation@@@@@@QAE@XZ" PURGE="0" COMMENT="" />
    <EXPORT ORDINAL="784" NAME="??1?$AutoDelete@V?$SafeSet_Iterator@PAVCollector@@@@@@QAE@XZ" PURGE="0" COMMENT="" />
    <EXPORT ORDINAL="785" NAME="??1?$AutoDelete@V?$SafeSet_Iterator@PAVHostOperation@@@@@@QAE@XZ" PURGE="0" COMMENT="" />
    <EXPORT ORDINAL="786" NAME="??1?$AutoDelete@V?$SafeSet_Iterator@PAVListenerSourceSubscription@@@@@@QAE@XZ" PURGE="0" COMMENT="" />
    <EXPORT ORDINAL="787" NAME="??1?$AutoDelete@V?$SimpleStack@VCListenerOperation@@@@@@QAE@XZ" PURGE="0" COMMENT="" />
    <EXPORT ORDINAL="788" NAME="??1?$AutoDelete@V?$SimpleStack@VShellHostEntry@@@@@@QAE@XZ" PURGE="0" COMMENT="" />
    <EXPORT ORDINAL="789" NAME="??1?$AutoDelete@V?$queue@PAU_WSMAN_PUBLISHER_EVENT_STRUCT@@V?$deque@PAU_WSMAN_PUBLISHER_EVENT_STRUCT@@V?$transport_allocator@PAU_WSMAN_PUBLISHER_EVENT_STRUCT@@@@@std@@@std@@@@QAE@XZ" PURGE="0" COMMENT="" />
    <EXPORT ORDINAL="790" NAME="??1?$AutoDelete@V?$set@PAVCListenerSettings@@VCListenerSettingsLessFunctor@CServiceConfigSettings@@V?$transport_allocator@PAVCListenerSettings@@@@@std@@@@QAE@XZ" PURGE="0" COMMENT="" />
    <EXPORT ORDINAL="791" NAME="??1?$AutoDelete@V?$set@Usockaddr_storage@@VSockAddrLessFunctor@CListenerSettings@@V?$transport_allocator@Usockaddr_storage@@@@@std@@@@QAE@XZ" PURGE="0" COMMENT="" />
    <EXPORT ORDINAL="792" NAME="??1?$AutoDelete@V?$vector@PAVCWSManRequest@@V?$transport_allocator@PAVCWSManRequest@@@@@std@@@@QAE@XZ" PURGE="0" COMMENT="" />
    <EXPORT ORDINAL="793" NAME="??1?$AutoDelete@V?$vector@PAVHandleImpl@Client@WSMan@@V?$transport_allocator@PAVHandleImpl@Client@WSMan@@@@@std@@@@QAE@XZ" PURGE="0" COMMENT="" />
    <EXPORT ORDINAL="794" NAME="??1?$AutoDelete@V?$vector@PAVIServiceConfigObserver@@V?$transport_allocator@PAVIServiceConfigObserver@@@@@std@@@@QAE@XZ" PURGE="0" COMMENT="" />
    <EXPORT ORDINAL="795" NAME="??1?$AutoDelete@V?$vector@PAVWSManHttpSenderConnection@@V?$transport_allocator@PAVWSManHttpSenderConnection@@@@@std@@@@QAE@XZ" PURGE="0" COMMENT="" />
    <EXPORT ORDINAL="796" NAME="??1?$AutoDelete@VAdminSid@CSecurity@@@@QAE@XZ" PURGE="0" COMMENT="" />
    <EXPORT ORDINAL="797" NAME="??1?$AutoDelete@VBlockedRecord@@@@QAE@XZ" PURGE="0" COMMENT="" />
    <EXPORT ORDINAL="798" NAME="??1?$AutoDelete@VCBaseConfigCache@@@@QAE@XZ" PURGE="0" COMMENT="" />
    <EXPORT ORDINAL="799" NAME="??1?$AutoDelete@VCCertMapping@@@@QAE@XZ" PURGE="0" COMMENT="" />
    <EXPORT ORDINAL="800" NAME="??1?$AutoDelete@VCConfigChangeSource@@@@QAE@XZ" PURGE="0" COMMENT="" />
    <EXPORT ORDINAL="801" NAME="??1?$AutoDelete@VCListenerSettings@@@@QAE@XZ" PURGE="0" COMMENT="" />
    <EXPORT ORDINAL="802" NAME="??1?$AutoDelete@VCObserverConfigChangeErrors@@@@QAE@XZ" PURGE="0" COMMENT="" />
    <EXPORT ORDINAL="803" NAME="??1?$AutoDelete@VCServiceWatcher@CServiceConfigCache@@@@QAE@XZ" PURGE="0" COMMENT="" />
    <EXPORT ORDINAL="804" NAME="??1?$AutoDelete@VCShellUriSettings@@@@QAE@XZ" PURGE="0" COMMENT="" />
    <EXPORT ORDINAL="805" NAME="??1?$AutoDelete@VCWSManEPR@@@@QAE@XZ" PURGE="0" COMMENT="" />
    <EXPORT ORDINAL="806" NAME="??1?$AutoDelete@VCWSManResource@@@@QAE@XZ" PURGE="0" COMMENT="" />
    <EXPORT ORDINAL="807" NAME="??1?$AutoDelete@VCertHash@@@@QAE@XZ" PURGE="0" COMMENT="" />
    <EXPORT ORDINAL="808" NAME="??1?$AutoDelete@VConfigUpdate@@@@QAE@XZ" PURGE="0" COMMENT="" />
    <EXPORT ORDINAL="809" NAME="??1?$AutoDelete@VEnumSinkEx@@@@QAE@XZ" PURGE="0" COMMENT="" />
    <EXPORT ORDINAL="810" NAME="??1?$AutoDelete@VEventHandler@WSMan@@@@QAE@XZ" PURGE="0" COMMENT="" />
    <EXPORT ORDINAL="811" NAME="??1?$AutoDelete@VExpiredOperationIdRecord@@@@QAE@XZ" PURGE="0" COMMENT="" />
    <EXPORT ORDINAL="812" NAME="??1?$AutoDelete@VGPApiManager@@@@QAE@XZ" PURGE="0" COMMENT="" />
    <EXPORT ORDINAL="813" NAME="??1?$AutoDelete@VGeneralSinkEx@@@@QAE@XZ" PURGE="0" COMMENT="" />
    <EXPORT ORDINAL="814" NAME="??1?$AutoDelete@VIChannelObserverFactory@@@@QAE@XZ" PURGE="0" COMMENT="" />
    <EXPORT ORDINAL="815" NAME="??1?$AutoDelete@VIQueryDASHSMASHInterface@@@@QAE@XZ" PURGE="0" COMMENT="" />
    <EXPORT ORDINAL="816" NAME="??1?$AutoDelete@VISpecification@@@@QAE@XZ" PURGE="0" COMMENT="" />
    <EXPORT ORDINAL="817" NAME="??1?$AutoDelete@VInteractiveSid@CSecurity@@@@QAE@XZ" PURGE="0" COMMENT="" />
    <EXPORT ORDINAL="818" NAME="??1?$AutoDelete@VIpHlpApiDllLoader@@@@QAE@XZ" PURGE="0" COMMENT="" />
    <EXPORT ORDINAL="819" NAME="??1?$AutoDelete@VMachineName@@@@QAE@XZ" PURGE="0" COMMENT="" />
    <EXPORT ORDINAL="820" NAME="??1?$AutoDelete@VMasterReceiveData@CListenerReceive@@@@QAE@XZ" PURGE="0" COMMENT="" />
    <EXPORT ORDINAL="821" NAME="??1?$AutoDelete@VNetworkServiceSid@CSecurity@@@@QAE@XZ" PURGE="0" COMMENT="" />
    <EXPORT ORDINAL="822" NAME="??1?$AutoDelete@VNtDsApiDllLoader@@@@QAE@XZ" PURGE="0" COMMENT="" />
    <EXPORT ORDINAL="823" NAME="??1?$AutoDelete@VOptionValue@SessionOptions@Client@WSMan@@@@QAE@XZ" PURGE="0" COMMENT="" />
    <EXPORT ORDINAL="824" NAME="??1?$AutoDelete@VPacketCreator@@@@QAE@XZ" PURGE="0" COMMENT="" />
    <EXPORT ORDINAL="825" NAME="??1?$AutoDelete@VPacketParser@@@@QAE@XZ" PURGE="0" COMMENT="" />
    <EXPORT ORDINAL="826" NAME="??1?$AutoDelete@VResources@Locale@@@@QAE@XZ" PURGE="0" COMMENT="" />
    <EXPORT ORDINAL="827" NAME="??1?$AutoDelete@VRunAsConfiguration@@@@QAE@XZ" PURGE="0" COMMENT="" />
    <EXPORT ORDINAL="828" NAME="??1?$AutoDelete@VSafeBufferWrite@@@@QAE@XZ" PURGE="0" COMMENT="" />
    <EXPORT ORDINAL="829" NAME="??1?$AutoDelete@VSecurityEntry@Catalog@@@@QAE@XZ" PURGE="0" COMMENT="" />
    <EXPORT ORDINAL="830" NAME="??1?$AutoDelete@VSendPacketArgs@RobustConnectionBuffer@@@@QAE@XZ" PURGE="0" COMMENT="" />
    <EXPORT ORDINAL="831" NAME="??1?$AutoDelete@VServiceSoapProcessor@@@@QAE@XZ" PURGE="0" COMMENT="" />
    <EXPORT ORDINAL="832" NAME="??1?$AutoDelete@VShell32DllLoader@@@@QAE@XZ" PURGE="0" COMMENT="" />
    <EXPORT ORDINAL="833" NAME="??1?$AutoDelete@VShlWApiDllLoader@@@@QAE@XZ" PURGE="0" COMMENT="" />
    <EXPORT ORDINAL="834" NAME="??1?$AutoDelete@VSubscriptionEnumerator@@@@QAE@XZ" PURGE="0" COMMENT="" />
    <EXPORT ORDINAL="835" NAME="??1?$AutoDelete@VSubscriptionManager@@@@QAE@XZ" PURGE="0" COMMENT="" />
    <EXPORT ORDINAL="836" NAME="??1?$AutoDelete@VTSTRBUFFER@@@@QAE@XZ" PURGE="0" COMMENT="" />
    <EXPORT ORDINAL="837" NAME="??1?$AutoDelete@VUniqueStringOverflow@@@@QAE@XZ" PURGE="0" COMMENT="" />
    <EXPORT ORDINAL="838" NAME="??1?$AutoDelete@VUser32DllLoader@@@@QAE@XZ" PURGE="0" COMMENT="" />
    <EXPORT ORDINAL="839" NAME="??1?$AutoDelete@VWSMANCONFIGTABLE_IDENTITY@@@@QAE@XZ" PURGE="0" COMMENT="" />
    <EXPORT ORDINAL="840" NAME="??1?$AutoDelete@VWSManMemCryptManager@@@@QAE@XZ" PURGE="0" COMMENT="" />
    <EXPORT ORDINAL="841" NAME="??1?$AutoDelete@VWmiEnumContext@@@@QAE@XZ" PURGE="0" COMMENT="" />
    <EXPORT ORDINAL="842" NAME="??1?$AutoDelete@VXmlReader@@@@QAE@XZ" PURGE="0" COMMENT="" />
    <EXPORT ORDINAL="843" NAME="??1?$AutoDeleteVector@$$CBG@@QAE@XZ" PURGE="0" COMMENT="" />
    <EXPORT ORDINAL="844" NAME="??1?$AutoDeleteVector@D@@QAE@XZ" PURGE="0" COMMENT="" />
    <EXPORT ORDINAL="845" NAME="??1?$AutoDeleteVector@E@@QAE@XZ" PURGE="0" COMMENT="" />
    <EXPORT ORDINAL="846" NAME="??1?$AutoDeleteVector@G@@QAE@XZ" PURGE="0" COMMENT="" />
    <EXPORT ORDINAL="847" NAME="??1?$AutoDeleteVector@H@@QAE@XZ" PURGE="0" COMMENT="" />
    <EXPORT ORDINAL="848" NAME="??1?$AutoDeleteVector@PAG@@QAE@XZ" PURGE="0" COMMENT="" />
    <EXPORT ORDINAL="849" NAME="??1?$AutoDeleteVector@PBG@@QAE@XZ" PURGE="0" COMMENT="" />
    <EXPORT ORDINAL="850" NAME="??1?$AutoDeleteVector@U_CONFIG_UPDATE@@@@QAE@XZ" PURGE="0" COMMENT="" />
    <EXPORT ORDINAL="851" NAME="??1?$AutoDeleteVector@U_WINRS_CREATE_SHELL_ENVIRONMENT_VARIABLE@@@@QAE@XZ" PURGE="0" COMMENT="" />
    <EXPORT ORDINAL="852" NAME="??1?$AutoDeleteVector@U_WINRS_RUN_COMMAND_ARG@@@@QAE@XZ" PURGE="0" COMMENT="" />
    <EXPORT ORDINAL="853" NAME="??1?$AutoDeleteVector@U_WSMAN_OPTION@@@@QAE@XZ" PURGE="0" COMMENT="" />
    <EXPORT ORDINAL="854" NAME="??1?$AutoDeleteVector@X@@QAE@XZ" PURGE="0" COMMENT="" />
    <EXPORT ORDINAL="855" NAME="??1?$AutoFree@E@@QAE@XZ" PURGE="0" COMMENT="" />
    <EXPORT ORDINAL="856" NAME="??1?$AutoLocklessItemRecycle@VPacket@@@@QAE@XZ" PURGE="0" COMMENT="" />
    <EXPORT ORDINAL="857" NAME="??1?$AutoRelease@UIAppHostAdminManager@@@@QAE@XZ" PURGE="0" COMMENT="" />
    <EXPORT ORDINAL="858" NAME="??1?$AutoRelease@UIAppHostChildElementCollection@@@@QAE@XZ" PURGE="0" COMMENT="" />
    <EXPORT ORDINAL="859" NAME="??1?$AutoRelease@UIAppHostConfigException@@@@QAE@XZ" PURGE="0" COMMENT="" />
    <EXPORT ORDINAL="860" NAME="??1?$AutoRelease@UIAppHostElement@@@@QAE@XZ" PURGE="0" COMMENT="" />
    <EXPORT ORDINAL="861" NAME="??1?$AutoRelease@UIAppHostElementCollection@@@@QAE@XZ" PURGE="0" COMMENT="" />
    <EXPORT ORDINAL="862" NAME="??1?$AutoRelease@UIAppHostProperty@@@@QAE@XZ" PURGE="0" COMMENT="" />
    <EXPORT ORDINAL="863" NAME="??1?$AutoRelease@UIAppHostPropertyCollection@@@@QAE@XZ" PURGE="0" COMMENT="" />
    <EXPORT ORDINAL="864" NAME="??1?$AutoRelease@UIClientSecurity@@@@QAE@XZ" PURGE="0" COMMENT="" />
    <EXPORT ORDINAL="865" NAME="??1?$AutoRelease@UIEnumWbemClassObject@@@@QAE@XZ" PURGE="0" COMMENT="" />
    <EXPORT ORDINAL="866" NAME="??1?$AutoRelease@UIErrorInfo@@@@QAE@XZ" PURGE="0" COMMENT="" />
    <EXPORT ORDINAL="867" NAME="??1?$AutoRelease@UIUnknown@@@@QAE@XZ" PURGE="0" COMMENT="" />
    <EXPORT ORDINAL="868" NAME="??1?$AutoRelease@UIWbemClassObject@@@@QAE@XZ" PURGE="0" COMMENT="" />
    <EXPORT ORDINAL="869" NAME="??1?$AutoRelease@UIWbemContext@@@@QAE@XZ" PURGE="0" COMMENT="" />
    <EXPORT ORDINAL="870" NAME="??1?$AutoRelease@UIWbemLocator@@@@QAE@XZ" PURGE="0" COMMENT="" />
    <EXPORT ORDINAL="871" NAME="??1?$AutoRelease@UIWbemObjectTextSrc@@@@QAE@XZ" PURGE="0" COMMENT="" />
    <EXPORT ORDINAL="872" NAME="??1?$AutoRelease@UIWbemPath@@@@QAE@XZ" PURGE="0" COMMENT="" />
    <EXPORT ORDINAL="873" NAME="??1?$AutoRelease@UIWbemPathKeyList@@@@QAE@XZ" PURGE="0" COMMENT="" />
    <EXPORT ORDINAL="874" NAME="??1?$AutoRelease@UIWbemQualifierSet@@@@QAE@XZ" PURGE="0" COMMENT="" />
    <EXPORT ORDINAL="875" NAME="??1?$AutoRelease@UIWbemQuery@@@@QAE@XZ" PURGE="0" COMMENT="" />
    <EXPORT ORDINAL="876" NAME="??1?$AutoRelease@UIWbemServices@@@@QAE@XZ" PURGE="0" COMMENT="" />
    <EXPORT ORDINAL="877" NAME="??1?$AutoRelease@VApplication@Client@WSMan@@@@QAE@XZ" PURGE="0" COMMENT="" />
    <EXPORT ORDINAL="878" NAME="??1?$AutoRelease@VCBaseConfigCache@@@@QAE@XZ" PURGE="0" COMMENT="" />
    <EXPORT ORDINAL="879" NAME="??1?$AutoRelease@VCClientConfigCache@@@@QAE@XZ" PURGE="0" COMMENT="" />
    <EXPORT ORDINAL="880" NAME="??1?$AutoRelease@VCClientConfigSettings@@@@QAE@XZ" PURGE="0" COMMENT="" />
    <EXPORT ORDINAL="881" NAME="??1?$AutoRelease@VCCommonConfigSettings@@@@QAE@XZ" PURGE="0" COMMENT="" />
    <EXPORT ORDINAL="882" NAME="??1?$AutoRelease@VCConfigCacheMap@CBaseConfigCache@@@@QAE@XZ" PURGE="0" COMMENT="" />
    <EXPORT ORDINAL="883" NAME="??1?$AutoRelease@VCConfigManager@@@@QAE@XZ" PURGE="0" COMMENT="" />
    <EXPORT ORDINAL="884" NAME="??1?$AutoRelease@VCListenerCommand@@@@QAE@XZ" PURGE="0" COMMENT="" />
    <EXPORT ORDINAL="885" NAME="??1?$AutoRelease@VCListenerMasterOperation@@@@QAE@XZ" PURGE="0" COMMENT="" />
    <EXPORT ORDINAL="886" NAME="??1?$AutoRelease@VCListenerReceive@@@@QAE@XZ" PURGE="0" COMMENT="" />
    <EXPORT ORDINAL="887" NAME="??1?$AutoRelease@VCListenerShell@@@@QAE@XZ" PURGE="0" COMMENT="" />
    <EXPORT ORDINAL="888" NAME="??1?$AutoRelease@VCRemoteOperation@@@@QAE@XZ" PURGE="0" COMMENT="" />
    <EXPORT ORDINAL="889" NAME="??1?$AutoRelease@VCRemoteSession@@@@QAE@XZ" PURGE="0" COMMENT="" />
    <EXPORT ORDINAL="890" NAME="??1?$AutoRelease@VCRequestContext@@@@QAE@XZ" PURGE="0" COMMENT="" />
    <EXPORT ORDINAL="891" NAME="??1?$AutoRelease@VCServiceCommonConfigSettings@@@@QAE@XZ" PURGE="0" COMMENT="" />
    <EXPORT ORDINAL="892" NAME="??1?$AutoRelease@VCServiceConfigCache@@@@QAE@XZ" PURGE="0" COMMENT="" />
    <EXPORT ORDINAL="893" NAME="??1?$AutoRelease@VCServiceConfigSettings@@@@QAE@XZ" PURGE="0" COMMENT="" />
    <EXPORT ORDINAL="894" NAME="??1?$AutoRelease@VCWSManEPR@@@@QAE@XZ" PURGE="0" COMMENT="" />
    <EXPORT ORDINAL="895" NAME="??1?$AutoRelease@VCWSManGroupPolicyCache@@@@QAE@XZ" PURGE="0" COMMENT="" />
    <EXPORT ORDINAL="896" NAME="??1?$AutoRelease@VCWSManGroupPolicyManager@@@@QAE@XZ" PURGE="0" COMMENT="" />
    <EXPORT ORDINAL="897" NAME="??1?$AutoRelease@VCWSManObject@@@@QAE@XZ" PURGE="0" COMMENT="" />
    <EXPORT ORDINAL="898" NAME="??1?$AutoRelease@VCWSManResource@@@@QAE@XZ" PURGE="0" COMMENT="" />
    <EXPORT ORDINAL="899" NAME="??1?$AutoRelease@VCWSManSession@@@@QAE@XZ" PURGE="0" COMMENT="" />
    <EXPORT ORDINAL="900" NAME="??1?$AutoRelease@VCWinRSPluginConfigCache@@@@QAE@XZ" PURGE="0" COMMENT="" />
    <EXPORT ORDINAL="901" NAME="??1?$AutoRelease@VCWinRSPluginConfigSettings@@@@QAE@XZ" PURGE="0" COMMENT="" />
    <EXPORT ORDINAL="902" NAME="??1?$AutoRelease@VCommand@Client@WSMan@@@@QAE@XZ" PURGE="0" COMMENT="" />
    <EXPORT ORDINAL="903" NAME="??1?$AutoRelease@VConfigNotification@@@@QAE@XZ" PURGE="0" COMMENT="" />
    <EXPORT ORDINAL="904" NAME="??1?$AutoRelease@VConnectShellOperation@Client@WSMan@@@@QAE@XZ" PURGE="0" COMMENT="" />
    <EXPORT ORDINAL="905" NAME="??1?$AutoRelease@VCreateShellOperation@Client@WSMan@@@@QAE@XZ" PURGE="0" COMMENT="" />
    <EXPORT ORDINAL="906" NAME="??1?$AutoRelease@VDeleteShellOperation@Client@WSMan@@@@QAE@XZ" PURGE="0" COMMENT="" />
    <EXPORT ORDINAL="907" NAME="??1?$AutoRelease@VDisconnectOperation@Client@WSMan@@@@QAE@XZ" PURGE="0" COMMENT="" />
    <EXPORT ORDINAL="908" NAME="??1?$AutoRelease@VEnumSinkEx@@@@QAE@XZ" PURGE="0" COMMENT="" />
    <EXPORT ORDINAL="909" NAME="??1?$AutoRelease@VGeneralSinkEx@@@@QAE@XZ" PURGE="0" COMMENT="" />
    <EXPORT ORDINAL="910" NAME="??1?$AutoRelease@VHostMappingTable@@@@QAE@XZ" PURGE="0" COMMENT="" />
    <EXPORT ORDINAL="911" NAME="??1?$AutoRelease@VIISConfigSettings@@@@QAE@XZ" PURGE="0" COMMENT="" />
    <EXPORT ORDINAL="912" NAME="??1?$AutoRelease@VIPCSoapProcessor@@@@QAE@XZ" PURGE="0" COMMENT="" />
    <EXPORT ORDINAL="913" NAME="??1?$AutoRelease@VIRequestContext@@@@QAE@XZ" PURGE="0" COMMENT="" />
    <EXPORT ORDINAL="914" NAME="??1?$AutoRelease@VISubscription@@@@QAE@XZ" PURGE="0" COMMENT="" />
    <EXPORT ORDINAL="915" NAME="??1?$AutoRelease@VInboundRequestDetails@@@@QAE@XZ" PURGE="0" COMMENT="" />
    <EXPORT ORDINAL="916" NAME="??1?$AutoRelease@VProxyManager@Client@WSMan@@@@QAE@XZ" PURGE="0" COMMENT="" />
    <EXPORT ORDINAL="917" NAME="??1?$AutoRelease@VProxySelection@Client@WSMan@@@@QAE@XZ" PURGE="0" COMMENT="" />
    <EXPORT ORDINAL="918" NAME="??1?$AutoRelease@VPushSubscribeOperation@@@@QAE@XZ" PURGE="0" COMMENT="" />
    <EXPORT ORDINAL="919" NAME="??1?$AutoRelease@VPushSubscription@@@@QAE@XZ" PURGE="0" COMMENT="" />
    <EXPORT ORDINAL="920" NAME="??1?$AutoRelease@VReceiveOperation@Client@WSMan@@@@QAE@XZ" PURGE="0" COMMENT="" />
    <EXPORT ORDINAL="921" NAME="??1?$AutoRelease@VReconnectOperation@Client@WSMan@@@@QAE@XZ" PURGE="0" COMMENT="" />
    <EXPORT ORDINAL="922" NAME="??1?$AutoRelease@VSendOperation@Client@WSMan@@@@QAE@XZ" PURGE="0" COMMENT="" />
    <EXPORT ORDINAL="923" NAME="??1?$AutoRelease@VShell@Client@WSMan@@@@QAE@XZ" PURGE="0" COMMENT="" />
    <EXPORT ORDINAL="924" NAME="??1?$AutoRelease@VShellInfo@@@@QAE@XZ" PURGE="0" COMMENT="" />
    <EXPORT ORDINAL="925" NAME="??1?$AutoRelease@VSignalOperation@Client@WSMan@@@@QAE@XZ" PURGE="0" COMMENT="" />
    <EXPORT ORDINAL="926" NAME="??1?$AutoRelease@VUserRecord@@@@QAE@XZ" PURGE="0" COMMENT="" />
    <EXPORT ORDINAL="927" NAME="??1?$AutoRelease@VWSManHttpListener@@@@QAE@XZ" PURGE="0" COMMENT="" />
    <EXPORT ORDINAL="928" NAME="??1?$AutoReleaseEx@VHostMappingTableEntry@@@@QAE@XZ" PURGE="0" COMMENT="" />
    <EXPORT ORDINAL="929" NAME="??1?$AutoReleaseEx@VShell@Client@WSMan@@@@QAE@XZ" PURGE="0" COMMENT="" />
    <EXPORT ORDINAL="930" NAME="??1?$ILoader@VAdminSid@CSecurity@@@@QAE@XZ" PURGE="0" COMMENT="" />
    <EXPORT ORDINAL="931" NAME="??1?$ILoader@VEventHandler@WSMan@@@@QAE@XZ" PURGE="0" COMMENT="" />
    <EXPORT ORDINAL="932" NAME="??1?$ILoader@VInteractiveSid@CSecurity@@@@QAE@XZ" PURGE="0" COMMENT="" />
    <EXPORT ORDINAL="933" NAME="??1?$ILoader@VIpHlpApiDllLoader@@@@QAE@XZ" PURGE="0" COMMENT="" />
    <EXPORT ORDINAL="934" NAME="??1?$ILoader@VMachineName@@@@QAE@XZ" PURGE="0" COMMENT="" />
    <EXPORT ORDINAL="935" NAME="??1?$ILoader@VNetworkServiceSid@CSecurity@@@@QAE@XZ" PURGE="0" COMMENT="" />
    <EXPORT ORDINAL="936" NAME="??1?$ILoader@VNtDsApiDllLoader@@@@QAE@XZ" PURGE="0" COMMENT="" />
    <EXPORT ORDINAL="937" NAME="??1?$ILoader@VResources@Locale@@@@QAE@XZ" PURGE="0" COMMENT="" />
    <EXPORT ORDINAL="938" NAME="??1?$ILoader@VShell32DllLoader@@@@QAE@XZ" PURGE="0" COMMENT="" />
    <EXPORT ORDINAL="939" NAME="??1?$ILoader@VShlWApiDllLoader@@@@QAE@XZ" PURGE="0" COMMENT="" />
    <EXPORT ORDINAL="940" NAME="??1?$ILoader@VSubscriptionManager@@@@QAE@XZ" PURGE="0" COMMENT="" />
    <EXPORT ORDINAL="941" NAME="??1?$ILoader@VUser32DllLoader@@@@QAE@XZ" PURGE="0" COMMENT="" />
    <EXPORT ORDINAL="942" NAME="??1?$ILoader@VWSManMemCryptManager@@@@QAE@XZ" PURGE="0" COMMENT="" />
    <EXPORT ORDINAL="943" NAME="??1?$Loader@VAdminSid@CSecurity@@$00@@QAE@XZ" PURGE="0" COMMENT="" />
    <EXPORT ORDINAL="944" NAME="??1?$Loader@VEventHandler@WSMan@@$00@@QAE@XZ" PURGE="0" COMMENT="" />
    <EXPORT ORDINAL="945" NAME="??1?$Loader@VInteractiveSid@CSecurity@@$00@@QAE@XZ" PURGE="0" COMMENT="" />
    <EXPORT ORDINAL="946" NAME="??1?$Loader@VIpHlpApiDllLoader@@$00@@QAE@XZ" PURGE="0" COMMENT="" />
    <EXPORT ORDINAL="947" NAME="??1?$Loader@VMachineName@@$00@@QAE@XZ" PURGE="0" COMMENT="" />
    <EXPORT ORDINAL="948" NAME="??1?$Loader@VNetworkServiceSid@CSecurity@@$00@@QAE@XZ" PURGE="0" COMMENT="" />
    <EXPORT ORDINAL="949" NAME="??1?$Loader@VNtDsApiDllLoader@@$00@@QAE@XZ" PURGE="0" COMMENT="" />
    <EXPORT ORDINAL="950" NAME="??1?$Loader@VResources@Locale@@$0A@@@QAE@XZ" PURGE="0" COMMENT="" />
    <EXPORT ORDINAL="951" NAME="??1?$Loader@VShell32DllLoader@@$00@@QAE@XZ" PURGE="0" COMMENT="" />
    <EXPORT ORDINAL="952" NAME="??1?$Loader@VShlWApiDllLoader@@$00@@QAE@XZ" PURGE="0" COMMENT="" />
    <EXPORT ORDINAL="953" NAME="??1?$Loader@VSubscriptionManager@@$01@@QAE@XZ" PURGE="0" COMMENT="" />
    <EXPORT ORDINAL="954" NAME="??1?$Loader@VUser32DllLoader@@$00@@QAE@XZ" PURGE="0" COMMENT="" />
    <EXPORT ORDINAL="955" NAME="??1?$Loader@VWSManMemCryptManager@@$00@@QAE@XZ" PURGE="0" COMMENT="" />
    <EXPORT ORDINAL="956" NAME="??1?$LoaderSerializer@VAdminSid@CSecurity@@$00@@QAE@XZ" PURGE="0" COMMENT="" />
    <EXPORT ORDINAL="957" NAME="??1?$LoaderSerializer@VEventHandler@WSMan@@$00@@QAE@XZ" PURGE="0" COMMENT="" />
    <EXPORT ORDINAL="958" NAME="??1?$LoaderSerializer@VInteractiveSid@CSecurity@@$00@@QAE@XZ" PURGE="0" COMMENT="" />
    <EXPORT ORDINAL="959" NAME="??1?$LoaderSerializer@VIpHlpApiDllLoader@@$00@@QAE@XZ" PURGE="0" COMMENT="" />
    <EXPORT ORDINAL="960" NAME="??1?$LoaderSerializer@VMachineName@@$00@@QAE@XZ" PURGE="0" COMMENT="" />
    <EXPORT ORDINAL="961" NAME="??1?$LoaderSerializer@VNetworkServiceSid@CSecurity@@$00@@QAE@XZ" PURGE="0" COMMENT="" />
    <EXPORT ORDINAL="962" NAME="??1?$LoaderSerializer@VNtDsApiDllLoader@@$00@@QAE@XZ" PURGE="0" COMMENT="" />
    <EXPORT ORDINAL="963" NAME="??1?$LoaderSerializer@VResources@Locale@@$0A@@@QAE@XZ" PURGE="0" COMMENT="" />
    <EXPORT ORDINAL="964" NAME="??1?$LoaderSerializer@VShell32DllLoader@@$00@@QAE@XZ" PURGE="0" COMMENT="" />
    <EXPORT ORDINAL="965" NAME="??1?$LoaderSerializer@VShlWApiDllLoader@@$00@@QAE@XZ" PURGE="0" COMMENT="" />
    <EXPORT ORDINAL="966" NAME="??1?$LoaderSerializer@VSubscriptionManager@@$01@@QAE@XZ" PURGE="0" COMMENT="" />
    <EXPORT ORDINAL="967" NAME="??1?$LoaderSerializer@VUser32DllLoader@@$00@@QAE@XZ" PURGE="0" COMMENT="" />
    <EXPORT ORDINAL="968" NAME="??1?$LoaderSerializer@VWSManMemCryptManager@@$00@@QAE@XZ" PURGE="0" COMMENT="" />
    <EXPORT ORDINAL="969" NAME="??1?$SafeMap@PAVCCertMapping@@UEmpty@@V?$SafeSet_Iterator@PAVCCertMapping@@@@@@QAE@XZ" PURGE="0" COMMENT="" />
    <EXPORT ORDINAL="970" NAME="??1?$SafeMap@PAVCListenerOperation@@UEmpty@@V?$SafeSet_Iterator@PAVCListenerOperation@@@@@@QAE@XZ" PURGE="0" COMMENT="" />
    <EXPORT ORDINAL="971" NAME="??1?$SafeMap@PAVCShellUriSettings@@UEmpty@@V?$SafeSet_Iterator@PAVCShellUriSettings@@@@@@QAE@XZ" PURGE="0" COMMENT="" />
    <EXPORT ORDINAL="972" NAME="??1?$SafeMap@PAVCollector@@UEmpty@@V?$SafeSet_Iterator@PAVCollector@@@@@@QAE@XZ" PURGE="0" COMMENT="" />
    <EXPORT ORDINAL="973" NAME="??1?$SafeMap@PAVHostOperation@@UEmpty@@V?$SafeSet_Iterator@PAVHostOperation@@@@@@QAE@XZ" PURGE="0" COMMENT="" />
    <EXPORT ORDINAL="974" NAME="??1?$SafeMap@PAVIOperation@@UEmpty@@V?$SafeSet_Iterator@PAVIOperation@@@@@@QAE@XZ" PURGE="0" COMMENT="" />
    <EXPORT ORDINAL="975" NAME="??1?$SafeMap@PAVListenerSourceSubscription@@UEmpty@@V?$SafeSet_Iterator@PAVListenerSourceSubscription@@@@@@QAE@XZ" PURGE="0" COMMENT="" />
    <EXPORT ORDINAL="976" NAME="??1?$SafeMap@PAVPushSubscription@@UEmpty@@V?$SafeSet_Iterator@PAVPushSubscription@@@@@@QAE@XZ" PURGE="0" COMMENT="" />
    <EXPORT ORDINAL="977" NAME="??1?$SafeMap@PAXUEmpty@@V?$SafeSet_Iterator@PAX@@@@QAE@XZ" PURGE="0" COMMENT="" />
    <EXPORT ORDINAL="978" NAME="??1?$SafeMap@UPluginKey@@KV?$SafeMap_Iterator@UPluginKey@@K@@@@QAE@XZ" PURGE="0" COMMENT="" />
    <EXPORT ORDINAL="979" NAME="??1?$SafeMap@UUserKey@@PAVBlockedRecord@@V?$SafeMap_Iterator@UUserKey@@PAVBlockedRecord@@@@@@QAE@XZ" PURGE="0" COMMENT="" />
    <EXPORT ORDINAL="980" NAME="??1?$SafeMap@VCertThumbprintKey@@VCertThumbprintMappedSet@CServiceConfigSettings@@V?$SafeMap_Iterator@VCertThumbprintKey@@VCertThumbprintMappedSet@CServiceConfigSettings@@@@@@QAE@XZ" PURGE="0" COMMENT="" />
    <EXPORT ORDINAL="981" NAME="??1?$SafeMap@VKey@Locale@@KV?$SafeMap_Iterator@VKey@Locale@@K@@@@QAE@XZ" PURGE="0" COMMENT="" />
    <EXPORT ORDINAL="982" NAME="??1?$SafeMap@VStringKeyCI@@KV?$SafeMap_Iterator@VStringKeyCI@@K@@@@QAE@XZ" PURGE="0" COMMENT="" />
    <EXPORT ORDINAL="983" NAME="??1?$SafeMap@VStringKeyCI@@UEmpty@@V?$SafeSet_Iterator@VStringKeyCI@@@@@@QAE@XZ" PURGE="0" COMMENT="" />
    <EXPORT ORDINAL="984" NAME="??1?$SafeMap@VStringKeyCI@@UUSER_CONTEXT_INFO@WSManHttpListener@@V?$SafeMap_Iterator@VStringKeyCI@@UUSER_CONTEXT_INFO@WSManHttpListener@@@@@@QAE@XZ" PURGE="0" COMMENT="" />
    <EXPORT ORDINAL="985" NAME="??1?$SafeMap@VStringKeyStore@@PAVExpiredOperationIdRecord@@V?$SafeMap_Iterator@VStringKeyStore@@PAVExpiredOperationIdRecord@@@@@@QAE@XZ" PURGE="0" COMMENT="" />
    <EXPORT ORDINAL="986" NAME="??1?$SafeMap@VStringKeyStore@@PAVServerFullDuplexChannel@@V?$SafeMap_Iterator@VStringKeyStore@@PAVServerFullDuplexChannel@@@@@@QAE@XZ" PURGE="0" COMMENT="" />
    <EXPORT ORDINAL="987" NAME="??1?$SafeMap@W4WSManSessionOption@@PAVOptionValue@SessionOptions@Client@WSMan@@V?$SafeMap_Iterator@W4WSManSessionOption@@PAVOptionValue@SessionOptions@Client@WSMan@@@@@@QAE@XZ" PURGE="0" COMMENT="" />
    <EXPORT ORDINAL="988" NAME="??1?$SafeMap@_KPAVSendPacketArgs@RobustConnectionBuffer@@V?$SafeMap_Iterator@_KPAVSendPacketArgs@RobustConnectionBuffer@@@@@@QAE@XZ" PURGE="0" COMMENT="" />
    <EXPORT ORDINAL="989" NAME="??1?$SafeMap_Iterator@PAVCCertMapping@@UEmpty@@@@QAE@XZ" PURGE="0" COMMENT="" />
    <EXPORT ORDINAL="990" NAME="??1?$SafeMap_Iterator@PAVCListenerConnect@@PAV1@@@QAE@XZ" PURGE="0" COMMENT="" />
    <EXPORT ORDINAL="991" NAME="??1?$SafeMap_Iterator@PAVCListenerOperation@@UEmpty@@@@QAE@XZ" PURGE="0" COMMENT="" />
    <EXPORT ORDINAL="992" NAME="??1?$SafeMap_Iterator@PAVCListenerReceive@@PAV1@@@QAE@XZ" PURGE="0" COMMENT="" />
    <EXPORT ORDINAL="993" NAME="??1?$SafeMap_Iterator@PAVCListenerSend@@PAV1@@@QAE@XZ" PURGE="0" COMMENT="" />
    <EXPORT ORDINAL="994" NAME="??1?$SafeMap_Iterator@PAVCListenerSignal@@PAV1@@@QAE@XZ" PURGE="0" COMMENT="" />
    <EXPORT ORDINAL="995" NAME="??1?$SafeMap_Iterator@PAVCShellUriSettings@@UEmpty@@@@QAE@XZ" PURGE="0" COMMENT="" />
    <EXPORT ORDINAL="996" NAME="??1?$SafeMap_Iterator@PAVCollector@@UEmpty@@@@QAE@XZ" PURGE="0" COMMENT="" />
    <EXPORT ORDINAL="997" NAME="??1?$SafeMap_Iterator@PAVHostOperation@@UEmpty@@@@QAE@XZ" PURGE="0" COMMENT="" />
    <EXPORT ORDINAL="998" NAME="??1?$SafeMap_Iterator@PAVIOperation@@UEmpty@@@@QAE@XZ" PURGE="0" COMMENT="" />
    <EXPORT ORDINAL="999" NAME="??1?$SafeMap_Iterator@PAVListenerSourceSubscription@@UEmpty@@@@QAE@XZ" PURGE="0" COMMENT="" />
    <EXPORT ORDINAL="1000" NAME="??1?$SafeMap_Iterator@PAVPushSubscription@@UEmpty@@@@QAE@XZ" PURGE="0" COMMENT="" />
    <EXPORT ORDINAL="1001" NAME="??1?$SafeMap_Iterator@PAXUEmpty@@@@QAE@XZ" PURGE="0" COMMENT="" />
    <EXPORT ORDINAL="1002" NAME="??1?$SafeMap_Iterator@UPluginKey@@K@@QAE@XZ" PURGE="0" COMMENT="" />
    <EXPORT ORDINAL="1003" NAME="??1?$SafeMap_Iterator@UUserKey@@PAVBlockedRecord@@@@QAE@XZ" PURGE="0" COMMENT="" />
    <EXPORT ORDINAL="1004" NAME="??1?$SafeMap_Iterator@VCertThumbprintKey@@VCertThumbprintMappedSet@CServiceConfigSettings@@@@QAE@XZ" PURGE="0" COMMENT="" />
    <EXPORT ORDINAL="1005" NAME="??1?$SafeMap_Iterator@VGuidKey@@PAVCListenerCommand@@@@QAE@XZ" PURGE="0" COMMENT="" />
    <EXPORT ORDINAL="1006" NAME="??1?$SafeMap_Iterator@VKey@Locale@@K@@QAE@XZ" PURGE="0" COMMENT="" />
    <EXPORT ORDINAL="1007" NAME="??1?$SafeMap_Iterator@VStringKeyCI@@K@@QAE@XZ" PURGE="0" COMMENT="" />
    <EXPORT ORDINAL="1008" NAME="??1?$SafeMap_Iterator@VStringKeyCI@@UEmpty@@@@QAE@XZ" PURGE="0" COMMENT="" />
    <EXPORT ORDINAL="1009" NAME="??1?$SafeMap_Iterator@VStringKeyCI@@UUSER_CONTEXT_INFO@WSManHttpListener@@@@QAE@XZ" PURGE="0" COMMENT="" />
    <EXPORT ORDINAL="1010" NAME="??1?$SafeMap_Iterator@VStringKeyStore@@PAVExpiredOperationIdRecord@@@@QAE@XZ" PURGE="0" COMMENT="" />
    <EXPORT ORDINAL="1011" NAME="??1?$SafeMap_Iterator@VStringKeyStore@@PAVServerFullDuplexChannel@@@@QAE@XZ" PURGE="0" COMMENT="" />
    <EXPORT ORDINAL="1012" NAME="??1?$SafeMap_Iterator@W4WSManSessionOption@@PAVOptionValue@SessionOptions@Client@WSMan@@@@QAE@XZ" PURGE="0" COMMENT="" />
    <EXPORT ORDINAL="1013" NAME="??1?$SafeMap_Iterator@_KPAVSendPacketArgs@RobustConnectionBuffer@@@@QAE@XZ" PURGE="0" COMMENT="" />
    <EXPORT ORDINAL="1014" NAME="??1?$SafeMap_Lock@PAVCCertMapping@@UEmpty@@V?$SafeMap_Iterator@PAVCCertMapping@@UEmpty@@@@@@QAE@XZ" PURGE="0" COMMENT="" />
    <EXPORT ORDINAL="1015" NAME="??1?$SafeMap_Lock@PAVCCertMapping@@UEmpty@@V?$SafeSet_Iterator@PAVCCertMapping@@@@@@QAE@XZ" PURGE="0" COMMENT="" />
    <EXPORT ORDINAL="1016" NAME="??1?$SafeMap_Lock@PAVCListenerConnect@@PAV1@V?$SafeMap_Iterator@PAVCListenerConnect@@PAV1@@@@@QAE@XZ" PURGE="0" COMMENT="" />
    <EXPORT ORDINAL="1017" NAME="??1?$SafeMap_Lock@PAVCListenerOperation@@UEmpty@@V?$SafeMap_Iterator@PAVCListenerOperation@@UEmpty@@@@@@QAE@XZ" PURGE="0" COMMENT="" />
    <EXPORT ORDINAL="1018" NAME="??1?$SafeMap_Lock@PAVCListenerOperation@@UEmpty@@V?$SafeSet_Iterator@PAVCListenerOperation@@@@@@QAE@XZ" PURGE="0" COMMENT="" />
    <EXPORT ORDINAL="1019" NAME="??1?$SafeMap_Lock@PAVCListenerReceive@@PAV1@V?$SafeMap_Iterator@PAVCListenerReceive@@PAV1@@@@@QAE@XZ" PURGE="0" COMMENT="" />
    <EXPORT ORDINAL="1020" NAME="??1?$SafeMap_Lock@PAVCListenerSend@@PAV1@V?$SafeMap_Iterator@PAVCListenerSend@@PAV1@@@@@QAE@XZ" PURGE="0" COMMENT="" />
    <EXPORT ORDINAL="1021" NAME="??1?$SafeMap_Lock@PAVCListenerSignal@@PAV1@V?$SafeMap_Iterator@PAVCListenerSignal@@PAV1@@@@@QAE@XZ" PURGE="0" COMMENT="" />
    <EXPORT ORDINAL="1022" NAME="??1?$SafeMap_Lock@PAVCShellUriSettings@@UEmpty@@V?$SafeMap_Iterator@PAVCShellUriSettings@@UEmpty@@@@@@QAE@XZ" PURGE="0" COMMENT="" />
    <EXPORT ORDINAL="1023" NAME="??1?$SafeMap_Lock@PAVCShellUriSettings@@UEmpty@@V?$SafeSet_Iterator@PAVCShellUriSettings@@@@@@QAE@XZ" PURGE="0" COMMENT="" />
    <EXPORT ORDINAL="1024" NAME="??1?$SafeMap_Lock@PAVCollector@@UEmpty@@V?$SafeMap_Iterator@PAVCollector@@UEmpty@@@@@@QAE@XZ" PURGE="0" COMMENT="" />
    <EXPORT ORDINAL="1025" NAME="??1?$SafeMap_Lock@PAVHostOperation@@UEmpty@@V?$SafeMap_Iterator@PAVHostOperation@@UEmpty@@@@@@QAE@XZ" PURGE="0" COMMENT="" />
    <EXPORT ORDINAL="1026" NAME="??1?$SafeMap_Lock@PAVIOperation@@UEmpty@@V?$SafeMap_Iterator@PAVIOperation@@UEmpty@@@@@@QAE@XZ" PURGE="0" COMMENT="" />
    <EXPORT ORDINAL="1027" NAME="??1?$SafeMap_Lock@PAVListenerSourceSubscription@@UEmpty@@V?$SafeMap_Iterator@PAVListenerSourceSubscription@@UEmpty@@@@@@QAE@XZ" PURGE="0" COMMENT="" />
    <EXPORT ORDINAL="1028" NAME="??1?$SafeMap_Lock@PAVPushSubscription@@UEmpty@@V?$SafeMap_Iterator@PAVPushSubscription@@UEmpty@@@@@@QAE@XZ" PURGE="0" COMMENT="" />
    <EXPORT ORDINAL="1029" NAME="??1?$SafeMap_Lock@PAXUEmpty@@V?$SafeMap_Iterator@PAXUEmpty@@@@@@QAE@XZ" PURGE="0" COMMENT="" />
    <EXPORT ORDINAL="1030" NAME="??1?$SafeMap_Lock@PAXUEmpty@@V?$SafeSet_Iterator@PAX@@@@QAE@XZ" PURGE="0" COMMENT="" />
    <EXPORT ORDINAL="1031" NAME="??1?$SafeMap_Lock@UPluginKey@@KV?$SafeMap_Iterator@UPluginKey@@K@@@@QAE@XZ" PURGE="0" COMMENT="" />
    <EXPORT ORDINAL="1032" NAME="??1?$SafeMap_Lock@UUserKey@@PAVBlockedRecord@@V?$SafeMap_Iterator@UUserKey@@PAVBlockedRecord@@@@@@QAE@XZ" PURGE="0" COMMENT="" />
    <EXPORT ORDINAL="1033" NAME="??1?$SafeMap_Lock@VCertThumbprintKey@@VCertThumbprintMappedSet@CServiceConfigSettings@@V?$SafeMap_Iterator@VCertThumbprintKey@@VCertThumbprintMappedSet@CServiceConfigSettings@@@@@@QAE@XZ" PURGE="0" COMMENT="" />
    <EXPORT ORDINAL="1034" NAME="??1?$SafeMap_Lock@VGuidKey@@PAVCListenerCommand@@V?$SafeMap_Iterator@VGuidKey@@PAVCListenerCommand@@@@@@QAE@XZ" PURGE="0" COMMENT="" />
    <EXPORT ORDINAL="1035" NAME="??1?$SafeMap_Lock@VKey@Locale@@KV?$SafeMap_Iterator@VKey@Locale@@K@@@@QAE@XZ" PURGE="0" COMMENT="" />
    <EXPORT ORDINAL="1036" NAME="??1?$SafeMap_Lock@VStringKeyCI@@KV?$SafeMap_Iterator@VStringKeyCI@@K@@@@QAE@XZ" PURGE="0" COMMENT="" />
    <EXPORT ORDINAL="1037" NAME="??1?$SafeMap_Lock@VStringKeyCI@@UEmpty@@V?$SafeMap_Iterator@VStringKeyCI@@UEmpty@@@@@@QAE@XZ" PURGE="0" COMMENT="" />
    <EXPORT ORDINAL="1038" NAME="??1?$SafeMap_Lock@VStringKeyCI@@UEmpty@@V?$SafeSet_Iterator@VStringKeyCI@@@@@@QAE@XZ" PURGE="0" COMMENT="" />
    <EXPORT ORDINAL="1039" NAME="??1?$SafeMap_Lock@VStringKeyCI@@UUSER_CONTEXT_INFO@WSManHttpListener@@V?$SafeMap_Iterator@VStringKeyCI@@UUSER_CONTEXT_INFO@WSManHttpListener@@@@@@QAE@XZ" PURGE="0" COMMENT="" />
    <EXPORT ORDINAL="1040" NAME="??1?$SafeMap_Lock@VStringKeyStore@@PAVExpiredOperationIdRecord@@V?$SafeMap_Iterator@VStringKeyStore@@PAVExpiredOperationIdRecord@@@@@@QAE@XZ" PURGE="0" COMMENT="" />
    <EXPORT ORDINAL="1041" NAME="??1?$SafeMap_Lock@VStringKeyStore@@PAVServerFullDuplexChannel@@V?$SafeMap_Iterator@VStringKeyStore@@PAVServerFullDuplexChannel@@@@@@QAE@XZ" PURGE="0" COMMENT="" />
    <EXPORT ORDINAL="1042" NAME="??1?$SafeMap_Lock@W4WSManSessionOption@@PAVOptionValue@SessionOptions@Client@WSMan@@V?$SafeMap_Iterator@W4WSManSessionOption@@PAVOptionValue@SessionOptions@Client@WSMan@@@@@@QAE@XZ" PURGE="0" COMMENT="" />
    <EXPORT ORDINAL="1043" NAME="??1?$SafeMap_Lock@_KPAVSendPacketArgs@RobustConnectionBuffer@@V?$SafeMap_Iterator@_KPAVSendPacketArgs@RobustConnectionBuffer@@@@@@QAE@XZ" PURGE="0" COMMENT="" />
    <EXPORT ORDINAL="1044" NAME="??1?$SafeSet@PAVCCertMapping@@@@QAE@XZ" PURGE="0" COMMENT="" />
    <EXPORT ORDINAL="1045" NAME="??1?$SafeSet@PAVCListenerOperation@@@@QAE@XZ" PURGE="0" COMMENT="" />
    <EXPORT ORDINAL="1046" NAME="??1?$SafeSet@PAVCShellUriSettings@@@@QAE@XZ" PURGE="0" COMMENT="" />
    <EXPORT ORDINAL="1047" NAME="??1?$SafeSet@PAVCollector@@@@QAE@XZ" PURGE="0" COMMENT="" />
    <EXPORT ORDINAL="1048" NAME="??1?$SafeSet@PAVHostOperation@@@@QAE@XZ" PURGE="0" COMMENT="" />
    <EXPORT ORDINAL="1049" NAME="??1?$SafeSet@PAVIOperation@@@@QAE@XZ" PURGE="0" COMMENT="" />
    <EXPORT ORDINAL="1050" NAME="??1?$SafeSet@PAVListenerSourceSubscription@@@@QAE@XZ" PURGE="0" COMMENT="" />
    <EXPORT ORDINAL="1051" NAME="??1?$SafeSet@PAVPushSubscription@@@@QAE@XZ" PURGE="0" COMMENT="" />
    <EXPORT ORDINAL="1052" NAME="??1?$SafeSet@PAX@@QAE@XZ" PURGE="0" COMMENT="" />
    <EXPORT ORDINAL="1053" NAME="??1?$SafeSet@VStringKeyCI@@@@QAE@XZ" PURGE="0" COMMENT="" />
    <EXPORT ORDINAL="1054" NAME="??1?$SafeSet_Iterator@PAVCCertMapping@@@@QAE@XZ" PURGE="0" COMMENT="" />
    <EXPORT ORDINAL="1055" NAME="??1?$SafeSet_Iterator@PAVCListenerOperation@@@@QAE@XZ" PURGE="0" COMMENT="" />
    <EXPORT ORDINAL="1056" NAME="??1?$SafeSet_Iterator@PAVCShellUriSettings@@@@QAE@XZ" PURGE="0" COMMENT="" />
    <EXPORT ORDINAL="1057" NAME="??1?$SafeSet_Iterator@PAVCollector@@@@QAE@XZ" PURGE="0" COMMENT="" />
    <EXPORT ORDINAL="1058" NAME="??1?$SafeSet_Iterator@PAVHostOperation@@@@QAE@XZ" PURGE="0" COMMENT="" />
    <EXPORT ORDINAL="1059" NAME="??1?$SafeSet_Iterator@PAVIOperation@@@@QAE@XZ" PURGE="0" COMMENT="" />
    <EXPORT ORDINAL="1060" NAME="??1?$SafeSet_Iterator@PAVListenerSourceSubscription@@@@QAE@XZ" PURGE="0" COMMENT="" />
    <EXPORT ORDINAL="1061" NAME="??1?$SafeSet_Iterator@PAVPushSubscription@@@@QAE@XZ" PURGE="0" COMMENT="" />
    <EXPORT ORDINAL="1062" NAME="??1?$SafeSet_Iterator@PAX@@QAE@XZ" PURGE="0" COMMENT="" />
    <EXPORT ORDINAL="1063" NAME="??1?$SafeSet_Iterator@VStringKeyCI@@@@QAE@XZ" PURGE="0" COMMENT="" />
    <EXPORT ORDINAL="1064" NAME="??1?$SimpleQueue@T_LARGE_INTEGER@@@@QAE@XZ" PURGE="0" COMMENT="" />
    <EXPORT ORDINAL="1065" NAME="??1AutoBstr@@QAE@XZ" PURGE="0" COMMENT="" />
    <EXPORT ORDINAL="1066" NAME="??1AutoBstrNoAlloc@@QAE@XZ" PURGE="0" COMMENT="" />
    <EXPORT ORDINAL="1067" NAME="??1AutoCertContext@@QAE@XZ" PURGE="0" COMMENT="" />
    <EXPORT ORDINAL="1068" NAME="??1AutoChainContext@@QAE@XZ" PURGE="0" COMMENT="" />
    <EXPORT ORDINAL="1069" NAME="??1AutoCoTaskMemFree@@QAE@XZ" PURGE="0" COMMENT="" />
    <EXPORT ORDINAL="1070" NAME="??1AutoFwXmlCloseParser@@QAE@XZ" PURGE="0" COMMENT="" />
    <EXPORT ORDINAL="1071" NAME="??1AutoHandle@@QAE@XZ" PURGE="0" COMMENT="" />
    <EXPORT ORDINAL="1072" NAME="??1AutoImpersonateUser@@QAE@XZ" PURGE="0" COMMENT="" />
    <EXPORT ORDINAL="1073" NAME="??1AutoLibrary@@QAE@XZ" PURGE="0" COMMENT="" />
    <EXPORT ORDINAL="1074" NAME="??1AutoLocalFree@@QAE@XZ" PURGE="0" COMMENT="" />
    <EXPORT ORDINAL="1075" NAME="??1AutoMIClass@@QAE@XZ" PURGE="0" COMMENT="" />
    <EXPORT ORDINAL="1076" NAME="??1AutoMIInstance@@QAE@XZ" PURGE="0" COMMENT="" />
    <EXPORT ORDINAL="1077" NAME="??1AutoObject@@QAE@XZ" PURGE="0" COMMENT="" />
    <EXPORT ORDINAL="1078" NAME="??1AutoRegKey@@QAE@XZ" PURGE="0" COMMENT="" />
    <EXPORT ORDINAL="1079" NAME="??1AutoSecurityDescriptor@@QAE@XZ" PURGE="0" COMMENT="" />
    <EXPORT ORDINAL="1080" NAME="??1AutoWaitHandle@@QAE@XZ" PURGE="0" COMMENT="" />
    <EXPORT ORDINAL="1081" NAME="??1BufferFormatter@@UAE@XZ" PURGE="0" COMMENT="" />
    <EXPORT ORDINAL="1082" NAME="??1CBaseConfigCache@@UAE@XZ" PURGE="0" COMMENT="" />
    <EXPORT ORDINAL="1083" NAME="??1CClientConfigCache@@UAE@XZ" PURGE="0" COMMENT="" />
    <EXPORT ORDINAL="1084" NAME="??1CCommonConfigSettings@@UAE@XZ" PURGE="0" COMMENT="" />
    <EXPORT ORDINAL="1085" NAME="??1CConfigManager@@UAE@XZ" PURGE="0" COMMENT="" />
    <EXPORT ORDINAL="1086" NAME="??1CErrorContext@@UAE@XZ" PURGE="0" COMMENT="" />
    <EXPORT ORDINAL="1087" NAME="??1CRequestContext@@UAE@XZ" PURGE="0" COMMENT="" />
    <EXPORT ORDINAL="1088" NAME="??1CResourceAlias@@QAE@XZ" PURGE="0" COMMENT="" />
    <EXPORT ORDINAL="1089" NAME="??1CServiceConfigCache@@EAE@XZ" PURGE="0" COMMENT="" />
    <EXPORT ORDINAL="1090" NAME="??1CServiceWatcher@CServiceConfigCache@@QAE@XZ" PURGE="0" COMMENT="" />
    <EXPORT ORDINAL="1091" NAME="??1CWSManCriticalSection@@QAE@XZ" PURGE="0" COMMENT="" />
    <EXPORT ORDINAL="1092" NAME="??1CWSManCriticalSectionWithConditionVar@@QAE@XZ" PURGE="0" COMMENT="" />
    <EXPORT ORDINAL="1093" NAME="??1CWSManEPR@@UAE@XZ" PURGE="0" COMMENT="" />
    <EXPORT ORDINAL="1094" NAME="??1CWSManGroupPolicyManager@@EAE@XZ" PURGE="0" COMMENT="" />
    <EXPORT ORDINAL="1095" NAME="??1CWSManResource@@UAE@XZ" PURGE="0" COMMENT="" />
    <EXPORT ORDINAL="1096" NAME="??1CWSManResourceNoResourceUri@@UAE@XZ" PURGE="0" COMMENT="" />
    <EXPORT ORDINAL="1097" NAME="??1CWSManSecurityUI@@QAE@XZ" PURGE="0" COMMENT="" />
    <EXPORT ORDINAL="1098" NAME="??1CWinRSPluginConfigCache@@EAE@XZ" PURGE="0" COMMENT="" />
    <EXPORT ORDINAL="1099" NAME="??1ChildLifeTimeManager@@QAE@XZ" PURGE="0" COMMENT="" />
    <EXPORT ORDINAL="1100" NAME="??1CircularBufferFormatter@@UAE@XZ" PURGE="0" COMMENT="" />
    <EXPORT ORDINAL="1101" NAME="??1ConfigRegistry@@IAE@XZ" PURGE="0" COMMENT="" />
    <EXPORT ORDINAL="1102" NAME="??1EtwCorrelationHelper@@UAE@XZ" PURGE="0" COMMENT="" />
    <EXPORT ORDINAL="1103" NAME="??1EventHandler@WSMan@@QAE@XZ" PURGE="0" COMMENT="" />
    <EXPORT ORDINAL="1104" NAME="??1IConfigChangeObserver@@UAE@XZ" PURGE="0" COMMENT="" />
    <EXPORT ORDINAL="1105" NAME="??1ILifeTimeMgmt@@UAE@XZ" PURGE="0" COMMENT="" />
    <EXPORT ORDINAL="1106" NAME="??1IRequestContext@@UAE@XZ" PURGE="0" COMMENT="" />
    <EXPORT ORDINAL="1107" NAME="??1IWSManGroupPolicyObserver@@UAE@XZ" PURGE="0" COMMENT="" />
    <EXPORT ORDINAL="1108" NAME="??1IWSManGroupPolicyPublisher@@UAE@XZ" PURGE="0" COMMENT="" />
    <EXPORT ORDINAL="1109" NAME="??1MessageId@PacketParser@@QAE@XZ" PURGE="0" COMMENT="" />
    <EXPORT ORDINAL="1110" NAME="??1OnHTTPInitialize@@QAE@XZ" PURGE="0" COMMENT="" />
    <EXPORT ORDINAL="1111" NAME="??1OperationId@PacketParser@@QAE@XZ" PURGE="0" COMMENT="" />
    <EXPORT ORDINAL="1112" NAME="??1OwnLock@@QAE@XZ" PURGE="0" COMMENT="" />
    <EXPORT ORDINAL="1113" NAME="??1PacketParser@@QAE@XZ" PURGE="0" COMMENT="" />
    <EXPORT ORDINAL="1114" NAME="??1RBUFFER@@QAE@XZ" PURGE="0" COMMENT="" />
    <EXPORT ORDINAL="1115" NAME="??1ReferenceParameters@PacketParser@@QAE@XZ" PURGE="0" COMMENT="" />
    <EXPORT ORDINAL="1116" NAME="??1SBUFFER@@QAE@XZ" PURGE="0" COMMENT="" />
    <EXPORT ORDINAL="1117" NAME="??1ShareLock@@QAE@XZ" PURGE="0" COMMENT="" />
    <EXPORT ORDINAL="1118" NAME="??1SoapSemanticConverter@@QAE@XZ" PURGE="0" COMMENT="" />
    <EXPORT ORDINAL="1119" NAME="??1TSTRBUFFER@@QAE@XZ" PURGE="0" COMMENT="" />
    <EXPORT ORDINAL="1120" NAME="??1UserRecord@@QAE@XZ" PURGE="0" COMMENT="" />
    <EXPORT ORDINAL="1121" NAME="??1XmlReader@@QAE@XZ" PURGE="0" COMMENT="" />
    <EXPORT ORDINAL="1122" NAME="??4?$AutoCleanup@V?$AutoDelete@D@@PAD@@QAEAAV?$AutoDelete@D@@PAD@Z" PURGE="4" COMMENT="" />
    <EXPORT ORDINAL="1123" NAME="??4?$AutoCleanup@V?$AutoDelete@G@@PAG@@QAEAAV?$AutoDelete@G@@PAG@Z" PURGE="4" COMMENT="" />
    <EXPORT ORDINAL="1124" NAME="??4?$AutoCleanup@V?$AutoDelete@V?$SafeMap_Iterator@VStringKeyCI@@K@@@@PAV?$SafeMap_Iterator@VStringKeyCI@@K@@@@QAEAAV?$AutoDelete@V?$SafeMap_Iterator@VStringKeyCI@@K@@@@PAV?$SafeMap_Iterator@VStringKeyCI@@K@@@Z" PURGE="4" COMMENT="" />
    <EXPORT ORDINAL="1125" NAME="??4?$AutoCleanup@V?$AutoDelete@V?$SafeMap_Iterator@W4WSManSessionOption@@PAVOptionValue@SessionOptions@Client@WSMan@@@@@@PAV?$SafeMap_Iterator@W4WSManSessionOption@@PAVOptionValue@SessionOptions@Client@WSMan@@@@@@QAEAAV?$AutoDelete@V?$SafeMap_Iterator@W4WSManSessionOption@@PAVOptionValue@SessionOptions@Client@WSMan@@@@@@PAV?$SafeMap_Iterator@W4WSManSessionOption@@PAVOptionValue@SessionOptions@Client@WSMan@@@@@Z" PURGE="4" COMMENT="" />
    <EXPORT ORDINAL="1126" NAME="??4?$AutoCleanup@V?$AutoDelete@V?$SafeSet@PAVCCertMapping@@@@@@PAV?$SafeSet@PAVCCertMapping@@@@@@QAEAAV?$AutoDelete@V?$SafeSet@PAVCCertMapping@@@@@@PAV?$SafeSet@PAVCCertMapping@@@@@Z" PURGE="4" COMMENT="" />
    <EXPORT ORDINAL="1127" NAME="??4?$AutoCleanup@V?$AutoDelete@V?$SafeSet@PAVCShellUriSettings@@@@@@PAV?$SafeSet@PAVCShellUriSettings@@@@@@QAEAAV?$AutoDelete@V?$SafeSet@PAVCShellUriSettings@@@@@@PAV?$SafeSet@PAVCShellUriSettings@@@@@Z" PURGE="4" COMMENT="" />
    <EXPORT ORDINAL="1128" NAME="??4?$AutoCleanup@V?$AutoDelete@V?$SafeSet_Iterator@PAVCListenerOperation@@@@@@PAV?$SafeSet_Iterator@PAVCListenerOperation@@@@@@QAEAAV?$AutoDelete@V?$SafeSet_Iterator@PAVCListenerOperation@@@@@@PAV?$SafeSet_Iterator@PAVCListenerOperation@@@@@Z" PURGE="4" COMMENT="" />
    <EXPORT ORDINAL="1129" NAME="??4?$AutoCleanup@V?$AutoDelete@V?$set@PAVCListenerSettings@@VCListenerSettingsLessFunctor@CServiceConfigSettings@@V?$transport_allocator@PAVCListenerSettings@@@@@std@@@@PAV?$set@PAVCListenerSettings@@VCListenerSettingsLessFunctor@CServiceConfigSettings@@V?$transport_allocator@PAVCListenerSettings@@@@@std@@@@QAEAAV?$AutoDelete@V?$set@PAVCListenerSettings@@VCListenerSettingsLessFunctor@CServiceConfigSettings@@V?$transport_allocator@PAVCListenerSettings@@@@@std@@@@PAV?$set@PAVCListenerSettings@@VCListenerSettingsLessFunctor@CServiceConfigSettings@@V?$transport_allocator@PAVCListenerSettings@@@@@std@@@Z" PURGE="4" COMMENT="" />
    <EXPORT ORDINAL="1130" NAME="??4?$AutoCleanup@V?$AutoDelete@V?$set@Usockaddr_storage@@VSockAddrLessFunctor@CListenerSettings@@V?$transport_allocator@Usockaddr_storage@@@@@std@@@@PAV?$set@Usockaddr_storage@@VSockAddrLessFunctor@CListenerSettings@@V?$transport_allocator@Usockaddr_storage@@@@@std@@@@QAEAAV?$AutoDelete@V?$set@Usockaddr_storage@@VSockAddrLessFunctor@CListenerSettings@@V?$transport_allocator@Usockaddr_storage@@@@@std@@@@PAV?$set@Usockaddr_storage@@VSockAddrLessFunctor@CListenerSettings@@V?$transport_allocator@Usockaddr_storage@@@@@std@@@Z" PURGE="4" COMMENT="" />
    <EXPORT ORDINAL="1131" NAME="??4?$AutoCleanup@V?$AutoDelete@V?$vector@PAVHandleImpl@Client@WSMan@@V?$transport_allocator@PAVHandleImpl@Client@WSMan@@@@@std@@@@PAV?$vector@PAVHandleImpl@Client@WSMan@@V?$transport_allocator@PAVHandleImpl@Client@WSMan@@@@@std@@@@QAEAAV?$AutoDelete@V?$vector@PAVHandleImpl@Client@WSMan@@V?$transport_allocator@PAVHandleImpl@Client@WSMan@@@@@std@@@@PAV?$vector@PAVHandleImpl@Client@WSMan@@V?$transport_allocator@PAVHandleImpl@Client@WSMan@@@@@std@@@Z" PURGE="4" COMMENT="" />
    <EXPORT ORDINAL="1132" NAME="??4?$AutoCleanup@V?$AutoDelete@V?$vector@PAVIServiceConfigObserver@@V?$transport_allocator@PAVIServiceConfigObserver@@@@@std@@@@PAV?$vector@PAVIServiceConfigObserver@@V?$transport_allocator@PAVIServiceConfigObserver@@@@@std@@@@QAEAAV?$AutoDelete@V?$vector@PAVIServiceConfigObserver@@V?$transport_allocator@PAVIServiceConfigObserver@@@@@std@@@@PAV?$vector@PAVIServiceConfigObserver@@V?$transport_allocator@PAVIServiceConfigObserver@@@@@std@@@Z" PURGE="4" COMMENT="" />
    <EXPORT ORDINAL="1133" NAME="??4?$AutoCleanup@V?$AutoDelete@VBlockedRecord@@@@PAVBlockedRecord@@@@QAEAAV?$AutoDelete@VBlockedRecord@@@@PAVBlockedRecord@@@Z" PURGE="4" COMMENT="" />
    <EXPORT ORDINAL="1134" NAME="??4?$AutoCleanup@V?$AutoDelete@VCConfigChangeSource@@@@PAVCConfigChangeSource@@@@QAEAAV?$AutoDelete@VCConfigChangeSource@@@@PAVCConfigChangeSource@@@Z" PURGE="4" COMMENT="" />
    <EXPORT ORDINAL="1135" NAME="??4?$AutoCleanup@V?$AutoDelete@VCObserverConfigChangeErrors@@@@PAVCObserverConfigChangeErrors@@@@QAEAAV?$AutoDelete@VCObserverConfigChangeErrors@@@@PAVCObserverConfigChangeErrors@@@Z" PURGE="4" COMMENT="" />
    <EXPORT ORDINAL="1136" NAME="??4?$AutoCleanup@V?$AutoDelete@VCServiceWatcher@CServiceConfigCache@@@@PAVCServiceWatcher@CServiceConfigCache@@@@QAEAAV?$AutoDelete@VCServiceWatcher@CServiceConfigCache@@@@PAVCServiceWatcher@CServiceConfigCache@@@Z" PURGE="4" COMMENT="" />
    <EXPORT ORDINAL="1137" NAME="??4?$AutoCleanup@V?$AutoDelete@VCWSManResource@@@@PAVCWSManResource@@@@QAEAAV?$AutoDelete@VCWSManResource@@@@PAVCWSManResource@@@Z" PURGE="4" COMMENT="" />
    <EXPORT ORDINAL="1138" NAME="??4?$AutoCleanup@V?$AutoDelete@VCertHash@@@@PAVCertHash@@@@QAEAAV?$AutoDelete@VCertHash@@@@PAVCertHash@@@Z" PURGE="4" COMMENT="" />
    <EXPORT ORDINAL="1139" NAME="??4?$AutoCleanup@V?$AutoDelete@VConfigUpdate@@@@PAVConfigUpdate@@@@QAEAAV?$AutoDelete@VConfigUpdate@@@@PAVConfigUpdate@@@Z" PURGE="4" COMMENT="" />
    <EXPORT ORDINAL="1140" NAME="??4?$AutoCleanup@V?$AutoDelete@VEnumSinkEx@@@@PAVEnumSinkEx@@@@QAEAAV?$AutoDelete@VEnumSinkEx@@@@PAVEnumSinkEx@@@Z" PURGE="4" COMMENT="" />
    <EXPORT ORDINAL="1141" NAME="??4?$AutoCleanup@V?$AutoDelete@VGPApiManager@@@@PAVGPApiManager@@@@QAEAAV?$AutoDelete@VGPApiManager@@@@PAVGPApiManager@@@Z" PURGE="4" COMMENT="" />
    <EXPORT ORDINAL="1142" NAME="??4?$AutoCleanup@V?$AutoDelete@VGeneralSinkEx@@@@PAVGeneralSinkEx@@@@QAEAAV?$AutoDelete@VGeneralSinkEx@@@@PAVGeneralSinkEx@@@Z" PURGE="4" COMMENT="" />
    <EXPORT ORDINAL="1143" NAME="??4?$AutoCleanup@V?$AutoDelete@VIChannelObserverFactory@@@@PAVIChannelObserverFactory@@@@QAEAAV?$AutoDelete@VIChannelObserverFactory@@@@PAVIChannelObserverFactory@@@Z" PURGE="4" COMMENT="" />
    <EXPORT ORDINAL="1144" NAME="??4?$AutoCleanup@V?$AutoDelete@VIQueryDASHSMASHInterface@@@@PAVIQueryDASHSMASHInterface@@@@QAEAAV?$AutoDelete@VIQueryDASHSMASHInterface@@@@PAVIQueryDASHSMASHInterface@@@Z" PURGE="4" COMMENT="" />
    <EXPORT ORDINAL="1145" NAME="??4?$AutoCleanup@V?$AutoDelete@VISpecification@@@@PAVISpecification@@@@QAEAAV?$AutoDelete@VISpecification@@@@PAVISpecification@@@Z" PURGE="4" COMMENT="" />
    <EXPORT ORDINAL="1146" NAME="??4?$AutoCleanup@V?$AutoDelete@VPacketCreator@@@@PAVPacketCreator@@@@QAEAAV?$AutoDelete@VPacketCreator@@@@PAVPacketCreator@@@Z" PURGE="4" COMMENT="" />
    <EXPORT ORDINAL="1147" NAME="??4?$AutoCleanup@V?$AutoDelete@VPacketParser@@@@PAVPacketParser@@@@QAEAAV?$AutoDelete@VPacketParser@@@@PAVPacketParser@@@Z" PURGE="4" COMMENT="" />
    <EXPORT ORDINAL="1148" NAME="??4?$AutoCleanup@V?$AutoDelete@VRunAsConfiguration@@@@PAVRunAsConfiguration@@@@QAEAAV?$AutoDelete@VRunAsConfiguration@@@@PAVRunAsConfiguration@@@Z" PURGE="4" COMMENT="" />
    <EXPORT ORDINAL="1149" NAME="??4?$AutoCleanup@V?$AutoDelete@VSafeBufferWrite@@@@PAVSafeBufferWrite@@@@QAEAAV?$AutoDelete@VSafeBufferWrite@@@@PAVSafeBufferWrite@@@Z" PURGE="4" COMMENT="" />
    <EXPORT ORDINAL="1150" NAME="??4?$AutoCleanup@V?$AutoDelete@VSecurityEntry@Catalog@@@@PAVSecurityEntry@Catalog@@@@QAEAAV?$AutoDelete@VSecurityEntry@Catalog@@@@PAVSecurityEntry@Catalog@@@Z" PURGE="4" COMMENT="" />
    <EXPORT ORDINAL="1151" NAME="??4?$AutoCleanup@V?$AutoDelete@VServiceSoapProcessor@@@@PAVServiceSoapProcessor@@@@QAEAAV?$AutoDelete@VServiceSoapProcessor@@@@PAVServiceSoapProcessor@@@Z" PURGE="4" COMMENT="" />
    <EXPORT ORDINAL="1152" NAME="??4?$AutoCleanup@V?$AutoDelete@VSubscriptionEnumerator@@@@PAVSubscriptionEnumerator@@@@QAEAAV?$AutoDelete@VSubscriptionEnumerator@@@@PAVSubscriptionEnumerator@@@Z" PURGE="4" COMMENT="" />
    <EXPORT ORDINAL="1153" NAME="??4?$AutoCleanup@V?$AutoDelete@VTSTRBUFFER@@@@PAVTSTRBUFFER@@@@QAEAAV?$AutoDelete@VTSTRBUFFER@@@@PAVTSTRBUFFER@@@Z" PURGE="4" COMMENT="" />
    <EXPORT ORDINAL="1154" NAME="??4?$AutoCleanup@V?$AutoDelete@VUniqueStringOverflow@@@@PAVUniqueStringOverflow@@@@QAEAAV?$AutoDelete@VUniqueStringOverflow@@@@PAVUniqueStringOverflow@@@Z" PURGE="4" COMMENT="" />
    <EXPORT ORDINAL="1155" NAME="??4?$AutoCleanup@V?$AutoDelete@VWSMANCONFIGTABLE_IDENTITY@@@@PAVWSMANCONFIGTABLE_IDENTITY@@@@QAEAAV?$AutoDelete@VWSMANCONFIGTABLE_IDENTITY@@@@PAVWSMANCONFIGTABLE_IDENTITY@@@Z" PURGE="4" COMMENT="" />
    <EXPORT ORDINAL="1156" NAME="??4?$AutoCleanup@V?$AutoDelete@VWmiEnumContext@@@@PAVWmiEnumContext@@@@QAEAAV?$AutoDelete@VWmiEnumContext@@@@PAVWmiEnumContext@@@Z" PURGE="4" COMMENT="" />
    <EXPORT ORDINAL="1157" NAME="??4?$AutoCleanup@V?$AutoDelete@VXmlReader@@@@PAVXmlReader@@@@QAEAAV?$AutoDelete@VXmlReader@@@@PAVXmlReader@@@Z" PURGE="4" COMMENT="" />
    <EXPORT ORDINAL="1158" NAME="??4?$AutoCleanup@V?$AutoDeleteVector@$$CBG@@PBG@@QAEAAV?$AutoDeleteVector@$$CBG@@PBG@Z" PURGE="4" COMMENT="" />
    <EXPORT ORDINAL="1159" NAME="??4?$AutoCleanup@V?$AutoDeleteVector@D@@PAD@@QAEAAV?$AutoDeleteVector@D@@PAD@Z" PURGE="4" COMMENT="" />
    <EXPORT ORDINAL="1160" NAME="??4?$AutoCleanup@V?$AutoDeleteVector@E@@PAE@@QAEAAV?$AutoDeleteVector@E@@PAE@Z" PURGE="4" COMMENT="" />
    <EXPORT ORDINAL="1161" NAME="??4?$AutoCleanup@V?$AutoDeleteVector@G@@PAG@@QAEAAV?$AutoDeleteVector@G@@PAG@Z" PURGE="4" COMMENT="" />
    <EXPORT ORDINAL="1162" NAME="??4?$AutoCleanup@V?$AutoDeleteVector@PAG@@PAPAG@@QAEAAV?$AutoDeleteVector@PAG@@PAPAG@Z" PURGE="4" COMMENT="" />
    <EXPORT ORDINAL="1163" NAME="??4?$AutoCleanup@V?$AutoDeleteVector@PBG@@PAPBG@@QAEAAV?$AutoDeleteVector@PBG@@PAPBG@Z" PURGE="4" COMMENT="" />
    <EXPORT ORDINAL="1164" NAME="??4?$AutoCleanup@V?$AutoDeleteVector@U_CONFIG_UPDATE@@@@PAU_CONFIG_UPDATE@@@@QAEAAV?$AutoDeleteVector@U_CONFIG_UPDATE@@@@PAU_CONFIG_UPDATE@@@Z" PURGE="4" COMMENT="" />
    <EXPORT ORDINAL="1165" NAME="??4?$AutoCleanup@V?$AutoDeleteVector@U_WINRS_CREATE_SHELL_ENVIRONMENT_VARIABLE@@@@PAU_WINRS_CREATE_SHELL_ENVIRONMENT_VARIABLE@@@@QAEAAV?$AutoDeleteVector@U_WINRS_CREATE_SHELL_ENVIRONMENT_VARIABLE@@@@PAU_WINRS_CREATE_SHELL_ENVIRONMENT_VARIABLE@@@Z" PURGE="4" COMMENT="" />
    <EXPORT ORDINAL="1166" NAME="??4?$AutoCleanup@V?$AutoDeleteVector@U_WINRS_RUN_COMMAND_ARG@@@@PAU_WINRS_RUN_COMMAND_ARG@@@@QAEAAV?$AutoDeleteVector@U_WINRS_RUN_COMMAND_ARG@@@@PAU_WINRS_RUN_COMMAND_ARG@@@Z" PURGE="4" COMMENT="" />
    <EXPORT ORDINAL="1167" NAME="??4?$AutoCleanup@V?$AutoDeleteVector@U_WSMAN_OPTION@@@@PAU_WSMAN_OPTION@@@@QAEAAV?$AutoDeleteVector@U_WSMAN_OPTION@@@@PAU_WSMAN_OPTION@@@Z" PURGE="4" COMMENT="" />
    <EXPORT ORDINAL="1168" NAME="??4?$AutoCleanup@V?$AutoDeleteVector@X@@PAX@@QAEAAV?$AutoDeleteVector@X@@PAX@Z" PURGE="4" COMMENT="" />
    <EXPORT ORDINAL="1169" NAME="??4?$AutoCleanup@V?$AutoFree@E@@PAE@@QAEAAV?$AutoFree@E@@PAE@Z" PURGE="4" COMMENT="" />
    <EXPORT ORDINAL="1170" NAME="??4?$AutoCleanup@V?$AutoLocklessItemRecycle@VPacket@@@@PAVPacket@@@@QAEAAV?$AutoLocklessItemRecycle@VPacket@@@@PAVPacket@@@Z" PURGE="4" COMMENT="" />
    <EXPORT ORDINAL="1171" NAME="??4?$AutoCleanup@V?$AutoRelease@UIClientSecurity@@@@PAUIClientSecurity@@@@QAEAAV?$AutoRelease@UIClientSecurity@@@@PAUIClientSecurity@@@Z" PURGE="4" COMMENT="" />
    <EXPORT ORDINAL="1172" NAME="??4?$AutoCleanup@V?$AutoRelease@UIEnumWbemClassObject@@@@PAUIEnumWbemClassObject@@@@QAEAAV?$AutoRelease@UIEnumWbemClassObject@@@@PAUIEnumWbemClassObject@@@Z" PURGE="4" COMMENT="" />
    <EXPORT ORDINAL="1173" NAME="??4?$AutoCleanup@V?$AutoRelease@UIErrorInfo@@@@PAUIErrorInfo@@@@QAEAAV?$AutoRelease@UIErrorInfo@@@@PAUIErrorInfo@@@Z" PURGE="4" COMMENT="" />
    <EXPORT ORDINAL="1174" NAME="??4?$AutoCleanup@V?$AutoRelease@UIUnknown@@@@PAUIUnknown@@@@QAEAAV?$AutoRelease@UIUnknown@@@@PAUIUnknown@@@Z" PURGE="4" COMMENT="" />
    <EXPORT ORDINAL="1175" NAME="??4?$AutoCleanup@V?$AutoRelease@UIWbemClassObject@@@@PAUIWbemClassObject@@@@QAEAAV?$AutoRelease@UIWbemClassObject@@@@PAUIWbemClassObject@@@Z" PURGE="4" COMMENT="" />
    <EXPORT ORDINAL="1176" NAME="??4?$AutoCleanup@V?$AutoRelease@UIWbemContext@@@@PAUIWbemContext@@@@QAEAAV?$AutoRelease@UIWbemContext@@@@PAUIWbemContext@@@Z" PURGE="4" COMMENT="" />
    <EXPORT ORDINAL="1177" NAME="??4?$AutoCleanup@V?$AutoRelease@UIWbemLocator@@@@PAUIWbemLocator@@@@QAEAAV?$AutoRelease@UIWbemLocator@@@@PAUIWbemLocator@@@Z" PURGE="4" COMMENT="" />
    <EXPORT ORDINAL="1178" NAME="??4?$AutoCleanup@V?$AutoRelease@UIWbemObjectTextSrc@@@@PAUIWbemObjectTextSrc@@@@QAEAAV?$AutoRelease@UIWbemObjectTextSrc@@@@PAUIWbemObjectTextSrc@@@Z" PURGE="4" COMMENT="" />
    <EXPORT ORDINAL="1179" NAME="??4?$AutoCleanup@V?$AutoRelease@UIWbemPath@@@@PAUIWbemPath@@@@QAEAAV?$AutoRelease@UIWbemPath@@@@PAUIWbemPath@@@Z" PURGE="4" COMMENT="" />
    <EXPORT ORDINAL="1180" NAME="??4?$AutoCleanup@V?$AutoRelease@UIWbemPathKeyList@@@@PAUIWbemPathKeyList@@@@QAEAAV?$AutoRelease@UIWbemPathKeyList@@@@PAUIWbemPathKeyList@@@Z" PURGE="4" COMMENT="" />
    <EXPORT ORDINAL="1181" NAME="??4?$AutoCleanup@V?$AutoRelease@UIWbemQualifierSet@@@@PAUIWbemQualifierSet@@@@QAEAAV?$AutoRelease@UIWbemQualifierSet@@@@PAUIWbemQualifierSet@@@Z" PURGE="4" COMMENT="" />
    <EXPORT ORDINAL="1182" NAME="??4?$AutoCleanup@V?$AutoRelease@UIWbemQuery@@@@PAUIWbemQuery@@@@QAEAAV?$AutoRelease@UIWbemQuery@@@@PAUIWbemQuery@@@Z" PURGE="4" COMMENT="" />
    <EXPORT ORDINAL="1183" NAME="??4?$AutoCleanup@V?$AutoRelease@UIWbemServices@@@@PAUIWbemServices@@@@QAEAAV?$AutoRelease@UIWbemServices@@@@PAUIWbemServices@@@Z" PURGE="4" COMMENT="" />
    <EXPORT ORDINAL="1184" NAME="??4?$AutoCleanup@V?$AutoRelease@VApplication@Client@WSMan@@@@PAVApplication@Client@WSMan@@@@QAEAAV?$AutoRelease@VApplication@Client@WSMan@@@@PAVApplication@Client@WSMan@@@Z" PURGE="4" COMMENT="" />
    <EXPORT ORDINAL="1185" NAME="??4?$AutoCleanup@V?$AutoRelease@VCBaseConfigCache@@@@PAVCBaseConfigCache@@@@QAEAAV?$AutoRelease@VCBaseConfigCache@@@@PAVCBaseConfigCache@@@Z" PURGE="4" COMMENT="" />
    <EXPORT ORDINAL="1186" NAME="??4?$AutoCleanup@V?$AutoRelease@VCClientConfigSettings@@@@PAVCClientConfigSettings@@@@QAEAAV?$AutoRelease@VCClientConfigSettings@@@@PAVCClientConfigSettings@@@Z" PURGE="4" COMMENT="" />
    <EXPORT ORDINAL="1187" NAME="??4?$AutoCleanup@V?$AutoRelease@VCCommonConfigSettings@@@@PAVCCommonConfigSettings@@@@QAEAAV?$AutoRelease@VCCommonConfigSettings@@@@PAVCCommonConfigSettings@@@Z" PURGE="4" COMMENT="" />
    <EXPORT ORDINAL="1188" NAME="??4?$AutoCleanup@V?$AutoRelease@VCConfigCacheMap@CBaseConfigCache@@@@PAVCConfigCacheMap@CBaseConfigCache@@@@QAEAAV?$AutoRelease@VCConfigCacheMap@CBaseConfigCache@@@@PAVCConfigCacheMap@CBaseConfigCache@@@Z" PURGE="4" COMMENT="" />
    <EXPORT ORDINAL="1189" NAME="??4?$AutoCleanup@V?$AutoRelease@VCConfigManager@@@@PAVCConfigManager@@@@QAEAAV?$AutoRelease@VCConfigManager@@@@PAVCConfigManager@@@Z" PURGE="4" COMMENT="" />
    <EXPORT ORDINAL="1190" NAME="??4?$AutoCleanup@V?$AutoRelease@VCRemoteOperation@@@@PAVCRemoteOperation@@@@QAEAAV?$AutoRelease@VCRemoteOperation@@@@PAVCRemoteOperation@@@Z" PURGE="4" COMMENT="" />
    <EXPORT ORDINAL="1191" NAME="??4?$AutoCleanup@V?$AutoRelease@VCRemoteSession@@@@PAVCRemoteSession@@@@QAEAAV?$AutoRelease@VCRemoteSession@@@@PAVCRemoteSession@@@Z" PURGE="4" COMMENT="" />
    <EXPORT ORDINAL="1192" NAME="??4?$AutoCleanup@V?$AutoRelease@VCRequestContext@@@@PAVCRequestContext@@@@QAEAAV?$AutoRelease@VCRequestContext@@@@PAVCRequestContext@@@Z" PURGE="4" COMMENT="" />
    <EXPORT ORDINAL="1193" NAME="??4?$AutoCleanup@V?$AutoRelease@VCServiceCommonConfigSettings@@@@PAVCServiceCommonConfigSettings@@@@QAEAAV?$AutoRelease@VCServiceCommonConfigSettings@@@@PAVCServiceCommonConfigSettings@@@Z" PURGE="4" COMMENT="" />
    <EXPORT ORDINAL="1194" NAME="??4?$AutoCleanup@V?$AutoRelease@VCServiceConfigCache@@@@PAVCServiceConfigCache@@@@QAEAAV?$AutoRelease@VCServiceConfigCache@@@@PAVCServiceConfigCache@@@Z" PURGE="4" COMMENT="" />
    <EXPORT ORDINAL="1195" NAME="??4?$AutoCleanup@V?$AutoRelease@VCServiceConfigSettings@@@@PAVCServiceConfigSettings@@@@QAEAAV?$AutoRelease@VCServiceConfigSettings@@@@PAVCServiceConfigSettings@@@Z" PURGE="4" COMMENT="" />
    <EXPORT ORDINAL="1196" NAME="??4?$AutoCleanup@V?$AutoRelease@VCWSManEPR@@@@PAVCWSManEPR@@@@QAEAAV?$AutoRelease@VCWSManEPR@@@@PAVCWSManEPR@@@Z" PURGE="4" COMMENT="" />
    <EXPORT ORDINAL="1197" NAME="??4?$AutoCleanup@V?$AutoRelease@VCWSManGroupPolicyManager@@@@PAVCWSManGroupPolicyManager@@@@QAEAAV?$AutoRelease@VCWSManGroupPolicyManager@@@@PAVCWSManGroupPolicyManager@@@Z" PURGE="4" COMMENT="" />
    <EXPORT ORDINAL="1198" NAME="??4?$AutoCleanup@V?$AutoRelease@VCWSManResource@@@@PAVCWSManResource@@@@QAEAAV?$AutoRelease@VCWSManResource@@@@PAVCWSManResource@@@Z" PURGE="4" COMMENT="" />
    <EXPORT ORDINAL="1199" NAME="??4?$AutoCleanup@V?$AutoRelease@VCWinRSPluginConfigCache@@@@PAVCWinRSPluginConfigCache@@@@QAEAAV?$AutoRelease@VCWinRSPluginConfigCache@@@@PAVCWinRSPluginConfigCache@@@Z" PURGE="4" COMMENT="" />
    <EXPORT ORDINAL="1200" NAME="??4?$AutoCleanup@V?$AutoRelease@VCWinRSPluginConfigSettings@@@@PAVCWinRSPluginConfigSettings@@@@QAEAAV?$AutoRelease@VCWinRSPluginConfigSettings@@@@PAVCWinRSPluginConfigSettings@@@Z" PURGE="4" COMMENT="" />
    <EXPORT ORDINAL="1201" NAME="??4?$AutoCleanup@V?$AutoRelease@VEnumSinkEx@@@@PAVEnumSinkEx@@@@QAEAAV?$AutoRelease@VEnumSinkEx@@@@PAVEnumSinkEx@@@Z" PURGE="4" COMMENT="" />
    <EXPORT ORDINAL="1202" NAME="??4?$AutoCleanup@V?$AutoRelease@VGeneralSinkEx@@@@PAVGeneralSinkEx@@@@QAEAAV?$AutoRelease@VGeneralSinkEx@@@@PAVGeneralSinkEx@@@Z" PURGE="4" COMMENT="" />
    <EXPORT ORDINAL="1203" NAME="??4?$AutoCleanup@V?$AutoRelease@VIRequestContext@@@@PAVIRequestContext@@@@QAEAAV?$AutoRelease@VIRequestContext@@@@PAVIRequestContext@@@Z" PURGE="4" COMMENT="" />
    <EXPORT ORDINAL="1204" NAME="??4?$AutoCleanup@V?$AutoRelease@VISubscription@@@@PAVISubscription@@@@QAEAAV?$AutoRelease@VISubscription@@@@PAVISubscription@@@Z" PURGE="4" COMMENT="" />
    <EXPORT ORDINAL="1205" NAME="??4?$AutoCleanup@V?$AutoRelease@VInboundRequestDetails@@@@PAVInboundRequestDetails@@@@QAEAAV?$AutoRelease@VInboundRequestDetails@@@@PAVInboundRequestDetails@@@Z" PURGE="4" COMMENT="" />
    <EXPORT ORDINAL="1206" NAME="??4?$AutoCleanup@V?$AutoRelease@VUserRecord@@@@PAVUserRecord@@@@QAEAAV?$AutoRelease@VUserRecord@@@@PAVUserRecord@@@Z" PURGE="4" COMMENT="" />
    <EXPORT ORDINAL="1207" NAME="??4?$AutoCleanup@V?$AutoRelease@VWSManHttpListener@@@@PAVWSManHttpListener@@@@QAEAAV?$AutoRelease@VWSManHttpListener@@@@PAVWSManHttpListener@@@Z" PURGE="4" COMMENT="" />
    <EXPORT ORDINAL="1208" NAME="??4?$AutoCleanup@V?$AutoReleaseEx@VShell@Client@WSMan@@@@PAVShell@Client@WSMan@@@@QAEAAV?$AutoReleaseEx@VShell@Client@WSMan@@@@PAVShell@Client@WSMan@@@Z" PURGE="4" COMMENT="" />
    <EXPORT ORDINAL="1209" NAME="??4?$AutoCleanup@VAutoBstr@@PAG@@QAEAAVAutoBstr@@PAG@Z" PURGE="4" COMMENT="" />
    <EXPORT ORDINAL="1210" NAME="??4?$AutoCleanup@VAutoBstrNoAlloc@@PAG@@QAEAAVAutoBstrNoAlloc@@PAG@Z" PURGE="4" COMMENT="" />
    <EXPORT ORDINAL="1211" NAME="??4?$AutoCleanup@VAutoCertContext@@PBU_CERT_CONTEXT@@@@QAEAAVAutoCertContext@@PBU_CERT_CONTEXT@@@Z" PURGE="4" COMMENT="" />
    <EXPORT ORDINAL="1212" NAME="??4?$AutoCleanup@VAutoChainContext@@PBU_CERT_CHAIN_CONTEXT@@@@QAEAAVAutoChainContext@@PBU_CERT_CHAIN_CONTEXT@@@Z" PURGE="4" COMMENT="" />
    <EXPORT ORDINAL="1213" NAME="??4?$AutoCleanup@VAutoCoTaskMemFree@@PAX@@QAEAAVAutoCoTaskMemFree@@PAX@Z" PURGE="4" COMMENT="" />
    <EXPORT ORDINAL="1214" NAME="??4?$AutoCleanup@VAutoFwXmlCloseParser@@PAX@@QAEAAVAutoFwXmlCloseParser@@PAX@Z" PURGE="4" COMMENT="" />
    <EXPORT ORDINAL="1215" NAME="??4?$AutoCleanup@VAutoHandle@@PAX@@QAEAAVAutoHandle@@PAX@Z" PURGE="4" COMMENT="" />
    <EXPORT ORDINAL="1216" NAME="??4?$AutoCleanup@VAutoImpersonateUser@@PAX@@QAEAAVAutoImpersonateUser@@PAX@Z" PURGE="4" COMMENT="" />
    <EXPORT ORDINAL="1217" NAME="??4?$AutoCleanup@VAutoLibrary@@PAUHINSTANCE__@@@@QAEAAVAutoLibrary@@PAUHINSTANCE__@@@Z" PURGE="4" COMMENT="" />
    <EXPORT ORDINAL="1218" NAME="??4?$AutoCleanup@VAutoLocalFree@@PAX@@QAEAAVAutoLocalFree@@PAX@Z" PURGE="4" COMMENT="" />
    <EXPORT ORDINAL="1219" NAME="??4?$AutoCleanup@VAutoMIClass@@PAU_MI_Class@@@@QAEAAVAutoMIClass@@PAU_MI_Class@@@Z" PURGE="4" COMMENT="" />
    <EXPORT ORDINAL="1220" NAME="??4?$AutoCleanup@VAutoMIInstance@@PAU_MI_Instance@@@@QAEAAVAutoMIInstance@@PAU_MI_Instance@@@Z" PURGE="4" COMMENT="" />
    <EXPORT ORDINAL="1221" NAME="??4?$AutoCleanup@VAutoObject@@PAUWSMAN_OBJECT@@@@QAEAAVAutoObject@@PAUWSMAN_OBJECT@@@Z" PURGE="4" COMMENT="" />
    <EXPORT ORDINAL="1222" NAME="??4?$AutoCleanup@VAutoRegKey@@PAUHKEY__@@@@QAEAAVAutoRegKey@@PAUHKEY__@@@Z" PURGE="4" COMMENT="" />
    <EXPORT ORDINAL="1223" NAME="??4?$AutoCleanup@VAutoSecurityDescriptor@@PAX@@QAEAAVAutoSecurityDescriptor@@PAX@Z" PURGE="4" COMMENT="" />
    <EXPORT ORDINAL="1224" NAME="??4?$AutoCleanup@VAutoWaitHandle@@PAX@@QAEAAVAutoWaitHandle@@PAX@Z" PURGE="4" COMMENT="" />
    <EXPORT ORDINAL="1225" NAME="??4?$AutoDelete@D@@QAEAAV0@PAD@Z" PURGE="4" COMMENT="" />
    <EXPORT ORDINAL="1226" NAME="??4?$AutoDelete@G@@QAEAAV0@PAG@Z" PURGE="4" COMMENT="" />
    <EXPORT ORDINAL="1227" NAME="??4?$AutoDelete@V?$SafeMap_Iterator@VStringKeyCI@@K@@@@QAEAAV0@PAV?$SafeMap_Iterator@VStringKeyCI@@K@@@Z" PURGE="4" COMMENT="" />
    <EXPORT ORDINAL="1228" NAME="??4?$AutoDelete@V?$SafeMap_Iterator@W4WSManSessionOption@@PAVOptionValue@SessionOptions@Client@WSMan@@@@@@QAEAAV0@PAV?$SafeMap_Iterator@W4WSManSessionOption@@PAVOptionValue@SessionOptions@Client@WSMan@@@@@Z" PURGE="4" COMMENT="" />
    <EXPORT ORDINAL="1229" NAME="??4?$AutoDelete@V?$SafeSet@PAVCCertMapping@@@@@@QAEAAV0@PAV?$SafeSet@PAVCCertMapping@@@@@Z" PURGE="4" COMMENT="" />
    <EXPORT ORDINAL="1230" NAME="??4?$AutoDelete@V?$SafeSet@PAVCShellUriSettings@@@@@@QAEAAV0@PAV?$SafeSet@PAVCShellUriSettings@@@@@Z" PURGE="4" COMMENT="" />
    <EXPORT ORDINAL="1231" NAME="??4?$AutoDelete@V?$SafeSet_Iterator@PAVCListenerOperation@@@@@@QAEAAV0@PAV?$SafeSet_Iterator@PAVCListenerOperation@@@@@Z" PURGE="4" COMMENT="" />
    <EXPORT ORDINAL="1232" NAME="??4?$AutoDelete@V?$set@PAVCListenerSettings@@VCListenerSettingsLessFunctor@CServiceConfigSettings@@V?$transport_allocator@PAVCListenerSettings@@@@@std@@@@QAEAAV0@PAV?$set@PAVCListenerSettings@@VCListenerSettingsLessFunctor@CServiceConfigSettings@@V?$transport_allocator@PAVCListenerSettings@@@@@std@@@Z" PURGE="4" COMMENT="" />
    <EXPORT ORDINAL="1233" NAME="??4?$AutoDelete@V?$set@Usockaddr_storage@@VSockAddrLessFunctor@CListenerSettings@@V?$transport_allocator@Usockaddr_storage@@@@@std@@@@QAEAAV0@PAV?$set@Usockaddr_storage@@VSockAddrLessFunctor@CListenerSettings@@V?$transport_allocator@Usockaddr_storage@@@@@std@@@Z" PURGE="4" COMMENT="" />
    <EXPORT ORDINAL="1234" NAME="??4?$AutoDelete@V?$vector@PAVHandleImpl@Client@WSMan@@V?$transport_allocator@PAVHandleImpl@Client@WSMan@@@@@std@@@@QAEAAV0@PAV?$vector@PAVHandleImpl@Client@WSMan@@V?$transport_allocator@PAVHandleImpl@Client@WSMan@@@@@std@@@Z" PURGE="4" COMMENT="" />
    <EXPORT ORDINAL="1235" NAME="??4?$AutoDelete@V?$vector@PAVIServiceConfigObserver@@V?$transport_allocator@PAVIServiceConfigObserver@@@@@std@@@@QAEAAV0@PAV?$vector@PAVIServiceConfigObserver@@V?$transport_allocator@PAVIServiceConfigObserver@@@@@std@@@Z" PURGE="4" COMMENT="" />
    <EXPORT ORDINAL="1236" NAME="??4?$AutoDelete@VBlockedRecord@@@@QAEAAV0@PAVBlockedRecord@@@Z" PURGE="4" COMMENT="" />
    <EXPORT ORDINAL="1237" NAME="??4?$AutoDelete@VCConfigChangeSource@@@@QAEAAV0@PAVCConfigChangeSource@@@Z" PURGE="4" COMMENT="" />
    <EXPORT ORDINAL="1238" NAME="??4?$AutoDelete@VCObserverConfigChangeErrors@@@@QAEAAV0@PAVCObserverConfigChangeErrors@@@Z" PURGE="4" COMMENT="" />
    <EXPORT ORDINAL="1239" NAME="??4?$AutoDelete@VCServiceWatcher@CServiceConfigCache@@@@QAEAAV0@PAVCServiceWatcher@CServiceConfigCache@@@Z" PURGE="4" COMMENT="" />
    <EXPORT ORDINAL="1240" NAME="??4?$AutoDelete@VCWSManResource@@@@QAEAAV0@PAVCWSManResource@@@Z" PURGE="4" COMMENT="" />
    <EXPORT ORDINAL="1241" NAME="??4?$AutoDelete@VCertHash@@@@QAEAAV0@PAVCertHash@@@Z" PURGE="4" COMMENT="" />
    <EXPORT ORDINAL="1242" NAME="??4?$AutoDelete@VConfigUpdate@@@@QAEAAV0@PAVConfigUpdate@@@Z" PURGE="4" COMMENT="" />
    <EXPORT ORDINAL="1243" NAME="??4?$AutoDelete@VEnumSinkEx@@@@QAEAAV0@PAVEnumSinkEx@@@Z" PURGE="4" COMMENT="" />
    <EXPORT ORDINAL="1244" NAME="??4?$AutoDelete@VGPApiManager@@@@QAEAAV0@PAVGPApiManager@@@Z" PURGE="4" COMMENT="" />
    <EXPORT ORDINAL="1245" NAME="??4?$AutoDelete@VGeneralSinkEx@@@@QAEAAV0@PAVGeneralSinkEx@@@Z" PURGE="4" COMMENT="" />
    <EXPORT ORDINAL="1246" NAME="??4?$AutoDelete@VIChannelObserverFactory@@@@QAEAAV0@PAVIChannelObserverFactory@@@Z" PURGE="4" COMMENT="" />
    <EXPORT ORDINAL="1247" NAME="??4?$AutoDelete@VIQueryDASHSMASHInterface@@@@QAEAAV0@PAVIQueryDASHSMASHInterface@@@Z" PURGE="4" COMMENT="" />
    <EXPORT ORDINAL="1248" NAME="??4?$AutoDelete@VISpecification@@@@QAEAAV0@PAVISpecification@@@Z" PURGE="4" COMMENT="" />
    <EXPORT ORDINAL="1249" NAME="??4?$AutoDelete@VPacketCreator@@@@QAEAAV0@PAVPacketCreator@@@Z" PURGE="4" COMMENT="" />
    <EXPORT ORDINAL="1250" NAME="??4?$AutoDelete@VPacketParser@@@@QAEAAV0@PAVPacketParser@@@Z" PURGE="4" COMMENT="" />
    <EXPORT ORDINAL="1251" NAME="??4?$AutoDelete@VRunAsConfiguration@@@@QAEAAV0@PAVRunAsConfiguration@@@Z" PURGE="4" COMMENT="" />
    <EXPORT ORDINAL="1252" NAME="??4?$AutoDelete@VSafeBufferWrite@@@@QAEAAV0@PAVSafeBufferWrite@@@Z" PURGE="4" COMMENT="" />
    <EXPORT ORDINAL="1253" NAME="??4?$AutoDelete@VSecurityEntry@Catalog@@@@QAEAAV0@PAVSecurityEntry@Catalog@@@Z" PURGE="4" COMMENT="" />
    <EXPORT ORDINAL="1254" NAME="??4?$AutoDelete@VServiceSoapProcessor@@@@QAEAAV0@PAVServiceSoapProcessor@@@Z" PURGE="4" COMMENT="" />
    <EXPORT ORDINAL="1255" NAME="??4?$AutoDelete@VSubscriptionEnumerator@@@@QAEAAV0@PAVSubscriptionEnumerator@@@Z" PURGE="4" COMMENT="" />
    <EXPORT ORDINAL="1256" NAME="??4?$AutoDelete@VTSTRBUFFER@@@@QAEAAV0@PAVTSTRBUFFER@@@Z" PURGE="4" COMMENT="" />
    <EXPORT ORDINAL="1257" NAME="??4?$AutoDelete@VUniqueStringOverflow@@@@QAEAAV0@PAVUniqueStringOverflow@@@Z" PURGE="4" COMMENT="" />
    <EXPORT ORDINAL="1258" NAME="??4?$AutoDelete@VWSMANCONFIGTABLE_IDENTITY@@@@QAEAAV0@PAVWSMANCONFIGTABLE_IDENTITY@@@Z" PURGE="4" COMMENT="" />
    <EXPORT ORDINAL="1259" NAME="??4?$AutoDelete@VWmiEnumContext@@@@QAEAAV0@PAVWmiEnumContext@@@Z" PURGE="4" COMMENT="" />
    <EXPORT ORDINAL="1260" NAME="??4?$AutoDelete@VXmlReader@@@@QAEAAV0@PAVXmlReader@@@Z" PURGE="4" COMMENT="" />
    <EXPORT ORDINAL="1261" NAME="??4?$AutoDeleteVector@$$CBG@@QAEAAV0@PBG@Z" PURGE="4" COMMENT="" />
    <EXPORT ORDINAL="1262" NAME="??4?$AutoDeleteVector@D@@QAEAAV0@PAD@Z" PURGE="4" COMMENT="" />
    <EXPORT ORDINAL="1263" NAME="??4?$AutoDeleteVector@E@@QAEAAV0@PAE@Z" PURGE="4" COMMENT="" />
    <EXPORT ORDINAL="1264" NAME="??4?$AutoDeleteVector@G@@QAEAAV0@PAG@Z" PURGE="4" COMMENT="" />
    <EXPORT ORDINAL="1265" NAME="??4?$AutoDeleteVector@PAG@@QAEAAV0@PAPAG@Z" PURGE="4" COMMENT="" />
    <EXPORT ORDINAL="1266" NAME="??4?$AutoDeleteVector@PBG@@QAEAAV0@PAPBG@Z" PURGE="4" COMMENT="" />
    <EXPORT ORDINAL="1267" NAME="??4?$AutoDeleteVector@U_CONFIG_UPDATE@@@@QAEAAV0@PAU_CONFIG_UPDATE@@@Z" PURGE="4" COMMENT="" />
    <EXPORT ORDINAL="1268" NAME="??4?$AutoDeleteVector@U_WINRS_CREATE_SHELL_ENVIRONMENT_VARIABLE@@@@QAEAAV0@PAU_WINRS_CREATE_SHELL_ENVIRONMENT_VARIABLE@@@Z" PURGE="4" COMMENT="" />
    <EXPORT ORDINAL="1269" NAME="??4?$AutoDeleteVector@U_WINRS_RUN_COMMAND_ARG@@@@QAEAAV0@PAU_WINRS_RUN_COMMAND_ARG@@@Z" PURGE="4" COMMENT="" />
    <EXPORT ORDINAL="1270" NAME="??4?$AutoDeleteVector@U_WSMAN_OPTION@@@@QAEAAV0@PAU_WSMAN_OPTION@@@Z" PURGE="4" COMMENT="" />
    <EXPORT ORDINAL="1271" NAME="??4?$AutoDeleteVector@X@@QAEAAV0@PAX@Z" PURGE="4" COMMENT="" />
    <EXPORT ORDINAL="1272" NAME="??4?$AutoFree@E@@QAEAAV0@PAE@Z" PURGE="4" COMMENT="" />
    <EXPORT ORDINAL="1273" NAME="??4?$AutoLocklessItemRecycle@VPacket@@@@QAEAAV0@PAVPacket@@@Z" PURGE="4" COMMENT="" />
    <EXPORT ORDINAL="1274" NAME="??4?$AutoRelease@UIClientSecurity@@@@QAEAAV0@PAUIClientSecurity@@@Z" PURGE="4" COMMENT="" />
    <EXPORT ORDINAL="1275" NAME="??4?$AutoRelease@UIEnumWbemClassObject@@@@QAEAAV0@PAUIEnumWbemClassObject@@@Z" PURGE="4" COMMENT="" />
    <EXPORT ORDINAL="1276" NAME="??4?$AutoRelease@UIErrorInfo@@@@QAEAAV0@PAUIErrorInfo@@@Z" PURGE="4" COMMENT="" />
    <EXPORT ORDINAL="1277" NAME="??4?$AutoRelease@UIUnknown@@@@QAEAAV0@PAUIUnknown@@@Z" PURGE="4" COMMENT="" />
    <EXPORT ORDINAL="1278" NAME="??4?$AutoRelease@UIWbemClassObject@@@@QAEAAV0@PAUIWbemClassObject@@@Z" PURGE="4" COMMENT="" />
    <EXPORT ORDINAL="1279" NAME="??4?$AutoRelease@UIWbemContext@@@@QAEAAV0@PAUIWbemContext@@@Z" PURGE="4" COMMENT="" />
    <EXPORT ORDINAL="1280" NAME="??4?$AutoRelease@UIWbemLocator@@@@QAEAAV0@PAUIWbemLocator@@@Z" PURGE="4" COMMENT="" />
    <EXPORT ORDINAL="1281" NAME="??4?$AutoRelease@UIWbemObjectTextSrc@@@@QAEAAV0@PAUIWbemObjectTextSrc@@@Z" PURGE="4" COMMENT="" />
    <EXPORT ORDINAL="1282" NAME="??4?$AutoRelease@UIWbemPath@@@@QAEAAV0@PAUIWbemPath@@@Z" PURGE="4" COMMENT="" />
    <EXPORT ORDINAL="1283" NAME="??4?$AutoRelease@UIWbemPathKeyList@@@@QAEAAV0@PAUIWbemPathKeyList@@@Z" PURGE="4" COMMENT="" />
    <EXPORT ORDINAL="1284" NAME="??4?$AutoRelease@UIWbemQualifierSet@@@@QAEAAV0@PAUIWbemQualifierSet@@@Z" PURGE="4" COMMENT="" />
    <EXPORT ORDINAL="1285" NAME="??4?$AutoRelease@UIWbemQuery@@@@QAEAAV0@PAUIWbemQuery@@@Z" PURGE="4" COMMENT="" />
    <EXPORT ORDINAL="1286" NAME="??4?$AutoRelease@UIWbemServices@@@@QAEAAV0@PAUIWbemServices@@@Z" PURGE="4" COMMENT="" />
    <EXPORT ORDINAL="1287" NAME="??4?$AutoRelease@VApplication@Client@WSMan@@@@QAEAAV0@PAVApplication@Client@WSMan@@@Z" PURGE="4" COMMENT="" />
    <EXPORT ORDINAL="1288" NAME="??4?$AutoRelease@VCBaseConfigCache@@@@QAEAAV0@PAVCBaseConfigCache@@@Z" PURGE="4" COMMENT="" />
    <EXPORT ORDINAL="1289" NAME="??4?$AutoRelease@VCClientConfigSettings@@@@QAEAAV0@PAVCClientConfigSettings@@@Z" PURGE="4" COMMENT="" />
    <EXPORT ORDINAL="1290" NAME="??4?$AutoRelease@VCCommonConfigSettings@@@@QAEAAV0@PAVCCommonConfigSettings@@@Z" PURGE="4" COMMENT="" />
    <EXPORT ORDINAL="1291" NAME="??4?$AutoRelease@VCConfigCacheMap@CBaseConfigCache@@@@QAEAAV0@PAVCConfigCacheMap@CBaseConfigCache@@@Z" PURGE="4" COMMENT="" />
    <EXPORT ORDINAL="1292" NAME="??4?$AutoRelease@VCConfigManager@@@@QAEAAV0@PAVCConfigManager@@@Z" PURGE="4" COMMENT="" />
    <EXPORT ORDINAL="1293" NAME="??4?$AutoRelease@VCRemoteOperation@@@@QAEAAV0@PAVCRemoteOperation@@@Z" PURGE="4" COMMENT="" />
    <EXPORT ORDINAL="1294" NAME="??4?$AutoRelease@VCRemoteSession@@@@QAEAAV0@PAVCRemoteSession@@@Z" PURGE="4" COMMENT="" />
    <EXPORT ORDINAL="1295" NAME="??4?$AutoRelease@VCRequestContext@@@@QAEAAV0@PAVCRequestContext@@@Z" PURGE="4" COMMENT="" />
    <EXPORT ORDINAL="1296" NAME="??4?$AutoRelease@VCServiceCommonConfigSettings@@@@QAEAAV0@PAVCServiceCommonConfigSettings@@@Z" PURGE="4" COMMENT="" />
    <EXPORT ORDINAL="1297" NAME="??4?$AutoRelease@VCServiceConfigCache@@@@QAEAAV0@PAVCServiceConfigCache@@@Z" PURGE="4" COMMENT="" />
    <EXPORT ORDINAL="1298" NAME="??4?$AutoRelease@VCServiceConfigSettings@@@@QAEAAV0@PAVCServiceConfigSettings@@@Z" PURGE="4" COMMENT="" />
    <EXPORT ORDINAL="1299" NAME="??4?$AutoRelease@VCWSManEPR@@@@QAEAAV0@PAVCWSManEPR@@@Z" PURGE="4" COMMENT="" />
    <EXPORT ORDINAL="1300" NAME="??4?$AutoRelease@VCWSManGroupPolicyManager@@@@QAEAAV0@PAVCWSManGroupPolicyManager@@@Z" PURGE="4" COMMENT="" />
    <EXPORT ORDINAL="1301" NAME="??4?$AutoRelease@VCWSManResource@@@@QAEAAV0@PAVCWSManResource@@@Z" PURGE="4" COMMENT="" />
    <EXPORT ORDINAL="1302" NAME="??4?$AutoRelease@VCWinRSPluginConfigCache@@@@QAEAAV0@PAVCWinRSPluginConfigCache@@@Z" PURGE="4" COMMENT="" />
    <EXPORT ORDINAL="1303" NAME="??4?$AutoRelease@VCWinRSPluginConfigSettings@@@@QAEAAV0@PAVCWinRSPluginConfigSettings@@@Z" PURGE="4" COMMENT="" />
    <EXPORT ORDINAL="1304" NAME="??4?$AutoRelease@VEnumSinkEx@@@@QAEAAV0@PAVEnumSinkEx@@@Z" PURGE="4" COMMENT="" />
    <EXPORT ORDINAL="1305" NAME="??4?$AutoRelease@VGeneralSinkEx@@@@QAEAAV0@PAVGeneralSinkEx@@@Z" PURGE="4" COMMENT="" />
    <EXPORT ORDINAL="1306" NAME="??4?$AutoRelease@VIRequestContext@@@@QAEAAV0@PAVIRequestContext@@@Z" PURGE="4" COMMENT="" />
    <EXPORT ORDINAL="1307" NAME="??4?$AutoRelease@VISubscription@@@@QAEAAV0@PAVISubscription@@@Z" PURGE="4" COMMENT="" />
    <EXPORT ORDINAL="1308" NAME="??4?$AutoRelease@VInboundRequestDetails@@@@QAEAAV0@PAVInboundRequestDetails@@@Z" PURGE="4" COMMENT="" />
    <EXPORT ORDINAL="1309" NAME="??4?$AutoRelease@VUserRecord@@@@QAEAAV0@PAVUserRecord@@@Z" PURGE="4" COMMENT="" />
    <EXPORT ORDINAL="1310" NAME="??4?$AutoRelease@VWSManHttpListener@@@@QAEAAV0@PAVWSManHttpListener@@@Z" PURGE="4" COMMENT="" />
    <EXPORT ORDINAL="1311" NAME="??4?$AutoReleaseEx@VShell@Client@WSMan@@@@QAEAAV0@PAVShell@Client@WSMan@@@Z" PURGE="4" COMMENT="" />
    <EXPORT ORDINAL="1312" NAME="??4?$PacketElement@K@PacketParser@@QAEAAV01@$$QAV01@@Z" PURGE="4" COMMENT="" />
    <EXPORT ORDINAL="1313" NAME="??4?$PacketElement@K@PacketParser@@QAEAAV01@ABV01@@Z" PURGE="4" COMMENT="" />
    <EXPORT ORDINAL="1314" NAME="??4?$PacketElement@PAU_FWXML_ELEMENT@@@PacketParser@@QAEAAV01@$$QAV01@@Z" PURGE="4" COMMENT="" />
    <EXPORT ORDINAL="1315" NAME="??4?$PacketElement@PAU_FWXML_ELEMENT@@@PacketParser@@QAEAAV01@ABV01@@Z" PURGE="4" COMMENT="" />
    <EXPORT ORDINAL="1316" NAME="??4?$PacketElement@PBG@PacketParser@@QAEAAV01@$$QAV01@@Z" PURGE="4" COMMENT="" />
    <EXPORT ORDINAL="1317" NAME="??4?$PacketElement@PBG@PacketParser@@QAEAAV01@ABV01@@Z" PURGE="4" COMMENT="" />
    <EXPORT ORDINAL="1318" NAME="??4?$PacketElement@_K@PacketParser@@QAEAAV01@$$QAV01@@Z" PURGE="4" COMMENT="" />
    <EXPORT ORDINAL="1319" NAME="??4?$PacketElement@_K@PacketParser@@QAEAAV01@ABV01@@Z" PURGE="4" COMMENT="" />
    <EXPORT ORDINAL="1320" NAME="??4?$SimpleQueue@T_LARGE_INTEGER@@@@QAEAAV0@ABV0@@Z" PURGE="4" COMMENT="" />
    <EXPORT ORDINAL="1321" NAME="??4AutoBstr@@QAEAAV0@PAG@Z" PURGE="4" COMMENT="" />
    <EXPORT ORDINAL="1322" NAME="??4AutoBstrNoAlloc@@QAEAAV0@PAG@Z" PURGE="4" COMMENT="" />
    <EXPORT ORDINAL="1323" NAME="??4AutoCertContext@@QAEAAV0@PBU_CERT_CONTEXT@@@Z" PURGE="4" COMMENT="" />
    <EXPORT ORDINAL="1324" NAME="??4AutoChainContext@@QAEAAV0@PBU_CERT_CHAIN_CONTEXT@@@Z" PURGE="4" COMMENT="" />
    <EXPORT ORDINAL="1325" NAME="??4AutoCoTaskMemFree@@QAEAAV0@PAX@Z" PURGE="4" COMMENT="" />
    <EXPORT ORDINAL="1326" NAME="??4AutoFwXmlCloseParser@@QAEAAV0@PAX@Z" PURGE="4" COMMENT="" />
    <EXPORT ORDINAL="1327" NAME="??4AutoHandle@@QAEAAV0@PAX@Z" PURGE="4" COMMENT="" />
    <EXPORT ORDINAL="1328" NAME="??4AutoImpersonateUser@@QAEAAV0@PAX@Z" PURGE="4" COMMENT="" />
    <EXPORT ORDINAL="1329" NAME="??4AutoLibrary@@QAEAAV0@PAUHINSTANCE__@@@Z" PURGE="4" COMMENT="" />
    <EXPORT ORDINAL="1330" NAME="??4AutoLocalFree@@QAEAAV0@PAX@Z" PURGE="4" COMMENT="" />
    <EXPORT ORDINAL="1331" NAME="??4AutoMIClass@@QAEAAV0@PAU_MI_Class@@@Z" PURGE="4" COMMENT="" />
    <EXPORT ORDINAL="1332" NAME="??4AutoMIInstance@@QAEAAV0@PAU_MI_Instance@@@Z" PURGE="4" COMMENT="" />
    <EXPORT ORDINAL="1333" NAME="??4AutoObject@@QAEAAV0@PAUWSMAN_OBJECT@@@Z" PURGE="4" COMMENT="" />
    <EXPORT ORDINAL="1334" NAME="??4AutoRegKey@@QAEAAV0@PAUHKEY__@@@Z" PURGE="4" COMMENT="" />
    <EXPORT ORDINAL="1335" NAME="??4AutoSecurityDescriptor@@QAEAAV0@PAX@Z" PURGE="4" COMMENT="" />
    <EXPORT ORDINAL="1336" NAME="??4AutoWaitHandle@@QAEAAV0@PAX@Z" PURGE="4" COMMENT="" />
    <EXPORT ORDINAL="1337" NAME="??4ChildLifeTimeManager@@QAEAAV0@ABV0@@Z" PURGE="4" COMMENT="" />
    <EXPORT ORDINAL="1338" NAME="??4ConfigRegistry@@QAEAAV0@ABV0@@Z" PURGE="4" COMMENT="" />
    <EXPORT ORDINAL="1339" NAME="??4EtwCorrelationHelper@@QAEAAV0@ABV0@@Z" PURGE="4" COMMENT="" />
    <EXPORT ORDINAL="1340" NAME="??4EventLog@@QAEAAV0@$$QAV0@@Z" PURGE="4" COMMENT="" />
    <EXPORT ORDINAL="1341" NAME="??4EventLog@@QAEAAV0@ABV0@@Z" PURGE="4" COMMENT="" />
    <EXPORT ORDINAL="1342" NAME="??4ExtendedSemantic@@QAEAAV0@$$QAV0@@Z" PURGE="4" COMMENT="" />
    <EXPORT ORDINAL="1343" NAME="??4ExtendedSemantic@@QAEAAV0@ABV0@@Z" PURGE="4" COMMENT="" />
    <EXPORT ORDINAL="1344" NAME="??4FastLock@@QAEAAV0@$$QAV0@@Z" PURGE="4" COMMENT="" />
    <EXPORT ORDINAL="1345" NAME="??4FastLock@@QAEAAV0@ABV0@@Z" PURGE="4" COMMENT="" />
    <EXPORT ORDINAL="1346" NAME="??4Fragment@PacketParser@@QAEAAV01@$$QAV01@@Z" PURGE="4" COMMENT="" />
    <EXPORT ORDINAL="1347" NAME="??4Fragment@PacketParser@@QAEAAV01@ABV01@@Z" PURGE="4" COMMENT="" />
    <EXPORT ORDINAL="1348" NAME="??4IConfigChangeObserver@@QAEAAV0@ABV0@@Z" PURGE="4" COMMENT="" />
    <EXPORT ORDINAL="1349" NAME="??4ILifeTimeMgmt@@QAEAAV0@ABV0@@Z" PURGE="4" COMMENT="" />
    <EXPORT ORDINAL="1350" NAME="??4IWSManGroupPolicyObserver@@QAEAAV0@ABV0@@Z" PURGE="4" COMMENT="" />
    <EXPORT ORDINAL="1351" NAME="??4IWSManGroupPolicyPublisher@@QAEAAV0@ABV0@@Z" PURGE="4" COMMENT="" />
    <EXPORT ORDINAL="1352" NAME="??4Locale@@QAEAAV0@ABV0@@Z" PURGE="4" COMMENT="" />
    <EXPORT ORDINAL="1353" NAME="??4NotUnderstandSoapHeader@PacketParser@@QAEAAV01@$$QAV01@@Z" PURGE="4" COMMENT="" />
    <EXPORT ORDINAL="1354" NAME="??4NotUnderstandSoapHeader@PacketParser@@QAEAAV01@ABV01@@Z" PURGE="4" COMMENT="" />
    <EXPORT ORDINAL="1355" NAME="??4PacketFormatter@@QAEAAV0@$$QAV0@@Z" PURGE="4" COMMENT="" />
    <EXPORT ORDINAL="1356" NAME="??4PacketFormatter@@QAEAAV0@ABV0@@Z" PURGE="4" COMMENT="" />
    <EXPORT ORDINAL="1357" NAME="??4RBUFFER@@QAEAAV0@ABV0@@Z" PURGE="4" COMMENT="" />
    <EXPORT ORDINAL="1358" NAME="??4SBUFFER@@QAEAAV0@$$QAV0@@Z" PURGE="4" COMMENT="" />
    <EXPORT ORDINAL="1359" NAME="??4SBUFFER@@QAEAAV0@ABV0@@Z" PURGE="4" COMMENT="" />
    <EXPORT ORDINAL="1360" NAME="??4SessionId@PacketParser@@QAEAAV01@$$QAV01@@Z" PURGE="4" COMMENT="" />
    <EXPORT ORDINAL="1361" NAME="??4SessionId@PacketParser@@QAEAAV01@ABV01@@Z" PURGE="4" COMMENT="" />
    <EXPORT ORDINAL="1362" NAME="??4SoapSemanticConverter@@QAEAAV0@ABV0@@Z" PURGE="4" COMMENT="" />
    <EXPORT ORDINAL="1363" NAME="??4UserAuthzRecord@@QAEAAV0@$$QAV0@@Z" PURGE="4" COMMENT="" />
    <EXPORT ORDINAL="1364" NAME="??4UserAuthzRecord@@QAEAAV0@ABV0@@Z" PURGE="4" COMMENT="" />
    <EXPORT ORDINAL="1365" NAME="??6BufferFormatter@@UAEAAV0@AAVBufferFormatterDataFormatDWORD@@@Z" PURGE="4" COMMENT="" />
    <EXPORT ORDINAL="1366" NAME="??6BufferFormatter@@UAEAAV0@AAVBufferFormatterDataFormatULONGLONG@@@Z" PURGE="4" COMMENT="" />
    <EXPORT ORDINAL="1367" NAME="??6BufferFormatter@@UAEAAV0@AAVBufferFormatterDataPCWSTR@@@Z" PURGE="4" COMMENT="" />
    <EXPORT ORDINAL="1368" NAME="??6BufferFormatter@@UAEAAV0@AAVBufferFormatterDataPUCHAR@@@Z" PURGE="4" COMMENT="" />
    <EXPORT ORDINAL="1369" NAME="??6BufferFormatter@@UAEAAV0@AAVBufferFormatterDataXmlEscape@@@Z" PURGE="4" COMMENT="" />
    <EXPORT ORDINAL="1370" NAME="??6BufferFormatter@@UAEAAV0@K@Z" PURGE="4" COMMENT="" />
    <EXPORT ORDINAL="1371" NAME="??6BufferFormatter@@UAEAAV0@PAU_FWXML_ELEMENT@@@Z" PURGE="4" COMMENT="" />
    <EXPORT ORDINAL="1372" NAME="??7?$AutoCleanup@V?$AutoDelete@G@@PAG@@QBE_NXZ" PURGE="0" COMMENT="" />
    <EXPORT ORDINAL="1373" NAME="??7?$AutoCleanup@V?$AutoDelete@V?$SafeSet@PAVCCertMapping@@@@@@PAV?$SafeSet@PAVCCertMapping@@@@@@QBE_NXZ" PURGE="0" COMMENT="" />
    <EXPORT ORDINAL="1374" NAME="??7?$AutoCleanup@V?$AutoDelete@V?$SafeSet@PAVCShellUriSettings@@@@@@PAV?$SafeSet@PAVCShellUriSettings@@@@@@QBE_NXZ" PURGE="0" COMMENT="" />
    <EXPORT ORDINAL="1375" NAME="??7?$AutoCleanup@V?$AutoDelete@V?$set@PAVCListenerSettings@@VCListenerSettingsLessFunctor@CServiceConfigSettings@@V?$transport_allocator@PAVCListenerSettings@@@@@std@@@@PAV?$set@PAVCListenerSettings@@VCListenerSettingsLessFunctor@CServiceConfigSettings@@V?$transport_allocator@PAVCListenerSettings@@@@@std@@@@QBE_NXZ" PURGE="0" COMMENT="" />
    <EXPORT ORDINAL="1376" NAME="??7?$AutoCleanup@V?$AutoDelete@VConfigUpdate@@@@PAVConfigUpdate@@@@QBE_NXZ" PURGE="0" COMMENT="" />
    <EXPORT ORDINAL="1377" NAME="??7?$AutoCleanup@V?$AutoDelete@VEnumSinkEx@@@@PAVEnumSinkEx@@@@QBE_NXZ" PURGE="0" COMMENT="" />
    <EXPORT ORDINAL="1378" NAME="??7?$AutoCleanup@V?$AutoDelete@VGeneralSinkEx@@@@PAVGeneralSinkEx@@@@QBE_NXZ" PURGE="0" COMMENT="" />
    <EXPORT ORDINAL="1379" NAME="??7?$AutoCleanup@V?$AutoDelete@VIQueryDASHSMASHInterface@@@@PAVIQueryDASHSMASHInterface@@@@QBE_NXZ" PURGE="0" COMMENT="" />
    <EXPORT ORDINAL="1380" NAME="??7?$AutoCleanup@V?$AutoDelete@VISpecification@@@@PAVISpecification@@@@QBE_NXZ" PURGE="0" COMMENT="" />
    <EXPORT ORDINAL="1381" NAME="??7?$AutoCleanup@V?$AutoDelete@VRunAsConfiguration@@@@PAVRunAsConfiguration@@@@QBE_NXZ" PURGE="0" COMMENT="" />
    <EXPORT ORDINAL="1382" NAME="??7?$AutoCleanup@V?$AutoDelete@VSubscriptionEnumerator@@@@PAVSubscriptionEnumerator@@@@QBE_NXZ" PURGE="0" COMMENT="" />
    <EXPORT ORDINAL="1383" NAME="??7?$AutoCleanup@V?$AutoDelete@VTSTRBUFFER@@@@PAVTSTRBUFFER@@@@QBE_NXZ" PURGE="0" COMMENT="" />
    <EXPORT ORDINAL="1384" NAME="??7?$AutoCleanup@V?$AutoDelete@VWmiEnumContext@@@@PAVWmiEnumContext@@@@QBE_NXZ" PURGE="0" COMMENT="" />
    <EXPORT ORDINAL="1385" NAME="??7?$AutoCleanup@V?$AutoDeleteVector@D@@PAD@@QBE_NXZ" PURGE="0" COMMENT="" />
    <EXPORT ORDINAL="1386" NAME="??7?$AutoCleanup@V?$AutoDeleteVector@E@@PAE@@QBE_NXZ" PURGE="0" COMMENT="" />
    <EXPORT ORDINAL="1387" NAME="??7?$AutoCleanup@V?$AutoDeleteVector@G@@PAG@@QBE_NXZ" PURGE="0" COMMENT="" />
    <EXPORT ORDINAL="1388" NAME="??7?$AutoCleanup@V?$AutoDeleteVector@PAG@@PAPAG@@QBE_NXZ" PURGE="0" COMMENT="" />
    <EXPORT ORDINAL="1389" NAME="??7?$AutoCleanup@V?$AutoDeleteVector@PBG@@PAPBG@@QBE_NXZ" PURGE="0" COMMENT="" />
    <EXPORT ORDINAL="1390" NAME="??7?$AutoCleanup@V?$AutoDeleteVector@U_WINRS_CREATE_SHELL_ENVIRONMENT_VARIABLE@@@@PAU_WINRS_CREATE_SHELL_ENVIRONMENT_VARIABLE@@@@QBE_NXZ" PURGE="0" COMMENT="" />
    <EXPORT ORDINAL="1391" NAME="??7?$AutoCleanup@V?$AutoDeleteVector@U_WINRS_RUN_COMMAND_ARG@@@@PAU_WINRS_RUN_COMMAND_ARG@@@@QBE_NXZ" PURGE="0" COMMENT="" />
    <EXPORT ORDINAL="1392" NAME="??7?$AutoCleanup@V?$AutoDeleteVector@X@@PAX@@QBE_NXZ" PURGE="0" COMMENT="" />
    <EXPORT ORDINAL="1393" NAME="??7?$AutoCleanup@V?$AutoRelease@UIClientSecurity@@@@PAUIClientSecurity@@@@QBE_NXZ" PURGE="0" COMMENT="" />
    <EXPORT ORDINAL="1394" NAME="??7?$AutoCleanup@V?$AutoRelease@UIEnumWbemClassObject@@@@PAUIEnumWbemClassObject@@@@QBE_NXZ" PURGE="0" COMMENT="" />
    <EXPORT ORDINAL="1395" NAME="??7?$AutoCleanup@V?$AutoRelease@UIErrorInfo@@@@PAUIErrorInfo@@@@QBE_NXZ" PURGE="0" COMMENT="" />
    <EXPORT ORDINAL="1396" NAME="??7?$AutoCleanup@V?$AutoRelease@UIUnknown@@@@PAUIUnknown@@@@QBE_NXZ" PURGE="0" COMMENT="" />
    <EXPORT ORDINAL="1397" NAME="??7?$AutoCleanup@V?$AutoRelease@UIWbemClassObject@@@@PAUIWbemClassObject@@@@QBE_NXZ" PURGE="0" COMMENT="" />
    <EXPORT ORDINAL="1398" NAME="??7?$AutoCleanup@V?$AutoRelease@UIWbemContext@@@@PAUIWbemContext@@@@QBE_NXZ" PURGE="0" COMMENT="" />
    <EXPORT ORDINAL="1399" NAME="??7?$AutoCleanup@V?$AutoRelease@UIWbemLocator@@@@PAUIWbemLocator@@@@QBE_NXZ" PURGE="0" COMMENT="" />
    <EXPORT ORDINAL="1400" NAME="??7?$AutoCleanup@V?$AutoRelease@UIWbemObjectTextSrc@@@@PAUIWbemObjectTextSrc@@@@QBE_NXZ" PURGE="0" COMMENT="" />
    <EXPORT ORDINAL="1401" NAME="??7?$AutoCleanup@V?$AutoRelease@UIWbemPath@@@@PAUIWbemPath@@@@QBE_NXZ" PURGE="0" COMMENT="" />
    <EXPORT ORDINAL="1402" NAME="??7?$AutoCleanup@V?$AutoRelease@UIWbemPathKeyList@@@@PAUIWbemPathKeyList@@@@QBE_NXZ" PURGE="0" COMMENT="" />
    <EXPORT ORDINAL="1403" NAME="??7?$AutoCleanup@V?$AutoRelease@UIWbemQualifierSet@@@@PAUIWbemQualifierSet@@@@QBE_NXZ" PURGE="0" COMMENT="" />
    <EXPORT ORDINAL="1404" NAME="??7?$AutoCleanup@V?$AutoRelease@UIWbemQuery@@@@PAUIWbemQuery@@@@QBE_NXZ" PURGE="0" COMMENT="" />
    <EXPORT ORDINAL="1405" NAME="??7?$AutoCleanup@V?$AutoRelease@UIWbemServices@@@@PAUIWbemServices@@@@QBE_NXZ" PURGE="0" COMMENT="" />
    <EXPORT ORDINAL="1406" NAME="??7?$AutoCleanup@V?$AutoRelease@VCClientConfigSettings@@@@PAVCClientConfigSettings@@@@QBE_NXZ" PURGE="0" COMMENT="" />
    <EXPORT ORDINAL="1407" NAME="??7?$AutoCleanup@V?$AutoRelease@VCConfigManager@@@@PAVCConfigManager@@@@QBE_NXZ" PURGE="0" COMMENT="" />
    <EXPORT ORDINAL="1408" NAME="??7?$AutoCleanup@V?$AutoRelease@VCRemoteSession@@@@PAVCRemoteSession@@@@QBE_NXZ" PURGE="0" COMMENT="" />
    <EXPORT ORDINAL="1409" NAME="??7?$AutoCleanup@V?$AutoRelease@VCRequestContext@@@@PAVCRequestContext@@@@QBE_NXZ" PURGE="0" COMMENT="" />
    <EXPORT ORDINAL="1410" NAME="??7?$AutoCleanup@V?$AutoRelease@VCWSManEPR@@@@PAVCWSManEPR@@@@QBE_NXZ" PURGE="0" COMMENT="" />
    <EXPORT ORDINAL="1411" NAME="??7?$AutoCleanup@V?$AutoRelease@VCWSManResource@@@@PAVCWSManResource@@@@QBE_NXZ" PURGE="0" COMMENT="" />
    <EXPORT ORDINAL="1412" NAME="??7?$AutoCleanup@V?$AutoRelease@VCWinRSPluginConfigCache@@@@PAVCWinRSPluginConfigCache@@@@QBE_NXZ" PURGE="0" COMMENT="" />
    <EXPORT ORDINAL="1413" NAME="??7?$AutoCleanup@V?$AutoRelease@VEnumSinkEx@@@@PAVEnumSinkEx@@@@QBE_NXZ" PURGE="0" COMMENT="" />
    <EXPORT ORDINAL="1414" NAME="??7?$AutoCleanup@V?$AutoRelease@VGeneralSinkEx@@@@PAVGeneralSinkEx@@@@QBE_NXZ" PURGE="0" COMMENT="" />
    <EXPORT ORDINAL="1415" NAME="??7?$AutoCleanup@V?$AutoRelease@VIRequestContext@@@@PAVIRequestContext@@@@QBE_NXZ" PURGE="0" COMMENT="" />
    <EXPORT ORDINAL="1416" NAME="??7?$AutoCleanup@V?$AutoRelease@VInboundRequestDetails@@@@PAVInboundRequestDetails@@@@QBE_NXZ" PURGE="0" COMMENT="" />
    <EXPORT ORDINAL="1417" NAME="??7?$AutoCleanup@VAutoBstrNoAlloc@@PAG@@QBE_NXZ" PURGE="0" COMMENT="" />
    <EXPORT ORDINAL="1418" NAME="??7?$AutoCleanup@VAutoCertContext@@PBU_CERT_CONTEXT@@@@QBE_NXZ" PURGE="0" COMMENT="" />
    <EXPORT ORDINAL="1419" NAME="??7?$AutoCleanup@VAutoHandle@@PAX@@QBE_NXZ" PURGE="0" COMMENT="" />
    <EXPORT ORDINAL="1420" NAME="??7?$AutoCleanup@VAutoImpersonateUser@@PAX@@QBE_NXZ" PURGE="0" COMMENT="" />
    <EXPORT ORDINAL="1421" NAME="??7?$AutoCleanup@VAutoMIClass@@PAU_MI_Class@@@@QBE_NXZ" PURGE="0" COMMENT="" />
    <EXPORT ORDINAL="1422" NAME="??7?$AutoCleanup@VAutoRegKey@@PAUHKEY__@@@@QBE_NXZ" PURGE="0" COMMENT="" />
    <EXPORT ORDINAL="1423" NAME="??7?$AutoCleanup@VAutoSecurityDescriptor@@PAX@@QBE_NXZ" PURGE="0" COMMENT="" />
    <EXPORT ORDINAL="1424" NAME="??A?$SafeMap@UPluginKey@@KV?$SafeMap_Iterator@UPluginKey@@K@@@@QAEPAKABUPluginKey@@@Z" PURGE="4" COMMENT="" />
    <EXPORT ORDINAL="1425" NAME="??A?$SafeMap@UUserKey@@PAVBlockedRecord@@V?$SafeMap_Iterator@UUserKey@@PAVBlockedRecord@@@@@@QAEPAPAVBlockedRecord@@ABUUserKey@@@Z" PURGE="4" COMMENT="" />
    <EXPORT ORDINAL="1426" NAME="??A?$SafeMap@VCertThumbprintKey@@VCertThumbprintMappedSet@CServiceConfigSettings@@V?$SafeMap_Iterator@VCertThumbprintKey@@VCertThumbprintMappedSet@CServiceConfigSettings@@@@@@QAEPAVCertThumbprintMappedSet@CServiceConfigSettings@@ABVCertThumbprintKey@@@Z" PURGE="4" COMMENT="" />
    <EXPORT ORDINAL="1427" NAME="??A?$SafeMap@VStringKeyCI@@KV?$SafeMap_Iterator@VStringKeyCI@@K@@@@QAEPAKABVStringKeyCI@@@Z" PURGE="4" COMMENT="" />
    <EXPORT ORDINAL="1428" NAME="??A?$SafeMap@VStringKeyCI@@UUSER_CONTEXT_INFO@WSManHttpListener@@V?$SafeMap_Iterator@VStringKeyCI@@UUSER_CONTEXT_INFO@WSManHttpListener@@@@@@QAEPAUUSER_CONTEXT_INFO@WSManHttpListener@@ABVStringKeyCI@@@Z" PURGE="4" COMMENT="" />
    <EXPORT ORDINAL="1429" NAME="??A?$SafeMap@VStringKeyStore@@PAVExpiredOperationIdRecord@@V?$SafeMap_Iterator@VStringKeyStore@@PAVExpiredOperationIdRecord@@@@@@QAEPAPAVExpiredOperationIdRecord@@ABVStringKeyStore@@@Z" PURGE="4" COMMENT="" />
    <EXPORT ORDINAL="1430" NAME="??A?$SafeMap@VStringKeyStore@@PAVServerFullDuplexChannel@@V?$SafeMap_Iterator@VStringKeyStore@@PAVServerFullDuplexChannel@@@@@@QAEPAPAVServerFullDuplexChannel@@ABVStringKeyStore@@@Z" PURGE="4" COMMENT="" />
    <EXPORT ORDINAL="1431" NAME="??A?$SafeMap@W4WSManSessionOption@@PAVOptionValue@SessionOptions@Client@WSMan@@V?$SafeMap_Iterator@W4WSManSessionOption@@PAVOptionValue@SessionOptions@Client@WSMan@@@@@@QAEPAPAVOptionValue@SessionOptions@Client@WSMan@@ABW4WSManSessionOption@@@Z" PURGE="4" COMMENT="" />
    <EXPORT ORDINAL="1432" NAME="??A?$SafeMap@_KPAVSendPacketArgs@RobustConnectionBuffer@@V?$SafeMap_Iterator@_KPAVSendPacketArgs@RobustConnectionBuffer@@@@@@QAEPAPAVSendPacketArgs@RobustConnectionBuffer@@AB_K@Z" PURGE="4" COMMENT="" />
    <EXPORT ORDINAL="1433" NAME="??A?$SafeSet@PAX@@QBEPBQAXABQAX@Z" PURGE="4" COMMENT="" />
    <EXPORT ORDINAL="1434" NAME="??B?$AutoCleanup@V?$AutoDelete@D@@PAD@@QAEPADXZ" PURGE="0" COMMENT="" />
    <EXPORT ORDINAL="1435" NAME="??B?$AutoCleanup@V?$AutoDelete@G@@PAG@@QAEPAGXZ" PURGE="0" COMMENT="" />
    <EXPORT ORDINAL="1436" NAME="??B?$AutoCleanup@V?$AutoDelete@G@@PAG@@QBEQAGXZ" PURGE="0" COMMENT="" />
    <EXPORT ORDINAL="1437" NAME="??B?$AutoCleanup@V?$AutoDelete@UIPRange@CWSManIPFilter@@@@PAUIPRange@CWSManIPFilter@@@@QAEPAUIPRange@CWSManIPFilter@@XZ" PURGE="0" COMMENT="" />
    <EXPORT ORDINAL="1438" NAME="??B?$AutoCleanup@V?$AutoDelete@U_SID@@@@PAU_SID@@@@QAEPAU_SID@@XZ" PURGE="0" COMMENT="" />
    <EXPORT ORDINAL="1439" NAME="??B?$AutoCleanup@V?$AutoDelete@U_WSMAN_STREAM_ID_SET@@@@PAU_WSMAN_STREAM_ID_SET@@@@QAEPAU_WSMAN_STREAM_ID_SET@@XZ" PURGE="0" COMMENT="" />
    <EXPORT ORDINAL="1440" NAME="??B?$AutoCleanup@V?$AutoDelete@V?$Handle@VISubscription@@@@@@PAV?$Handle@VISubscription@@@@@@QAEPAV?$Handle@VISubscription@@@@XZ" PURGE="0" COMMENT="" />
    <EXPORT ORDINAL="1441" NAME="??B?$AutoCleanup@V?$AutoDelete@V?$SafeMap_Iterator@VStringKeyCI@@K@@@@PAV?$SafeMap_Iterator@VStringKeyCI@@K@@@@QAEPAV?$SafeMap_Iterator@VStringKeyCI@@K@@XZ" PURGE="0" COMMENT="" />
    <EXPORT ORDINAL="1442" NAME="??B?$AutoCleanup@V?$AutoDelete@V?$SafeMap_Iterator@W4WSManSessionOption@@PAVOptionValue@SessionOptions@Client@WSMan@@@@@@PAV?$SafeMap_Iterator@W4WSManSessionOption@@PAVOptionValue@SessionOptions@Client@WSMan@@@@@@QAEPAV?$SafeMap_Iterator@W4WSManSessionOption@@PAVOptionValue@SessionOptions@Client@WSMan@@@@XZ" PURGE="0" COMMENT="" />
    <EXPORT ORDINAL="1443" NAME="??B?$AutoCleanup@V?$AutoDelete@V?$SafeSet@PAVCCertMapping@@@@@@PAV?$SafeSet@PAVCCertMapping@@@@@@QAEPAV?$SafeSet@PAVCCertMapping@@@@XZ" PURGE="0" COMMENT="" />
    <EXPORT ORDINAL="1444" NAME="??B?$AutoCleanup@V?$AutoDelete@V?$SafeSet@PAVCShellUriSettings@@@@@@PAV?$SafeSet@PAVCShellUriSettings@@@@@@QAEPAV?$SafeSet@PAVCShellUriSettings@@@@XZ" PURGE="0" COMMENT="" />
    <EXPORT ORDINAL="1445" NAME="??B?$AutoCleanup@V?$AutoDelete@V?$SafeSet_Iterator@PAVCListenerOperation@@@@@@PAV?$SafeSet_Iterator@PAVCListenerOperation@@@@@@QAEPAV?$SafeSet_Iterator@PAVCListenerOperation@@@@XZ" PURGE="0" COMMENT="" />
    <EXPORT ORDINAL="1446" NAME="??B?$AutoCleanup@V?$AutoDelete@V?$set@PAVCListenerSettings@@VCListenerSettingsLessFunctor@CServiceConfigSettings@@V?$transport_allocator@PAVCListenerSettings@@@@@std@@@@PAV?$set@PAVCListenerSettings@@VCListenerSettingsLessFunctor@CServiceConfigSettings@@V?$transport_allocator@PAVCListenerSettings@@@@@std@@@@QAEPAV?$set@PAVCListenerSettings@@VCListenerSettingsLessFunctor@CServiceConfigSettings@@V?$transport_allocator@PAVCListenerSettings@@@@@std@@XZ" PURGE="0" COMMENT="" />
    <EXPORT ORDINAL="1447" NAME="??B?$AutoCleanup@V?$AutoDelete@V?$set@Usockaddr_storage@@VSockAddrLessFunctor@CListenerSettings@@V?$transport_allocator@Usockaddr_storage@@@@@std@@@@PAV?$set@Usockaddr_storage@@VSockAddrLessFunctor@CListenerSettings@@V?$transport_allocator@Usockaddr_storage@@@@@std@@@@QAEPAV?$set@Usockaddr_storage@@VSockAddrLessFunctor@CListenerSettings@@V?$transport_allocator@Usockaddr_storage@@@@@std@@XZ" PURGE="0" COMMENT="" />
    <EXPORT ORDINAL="1448" NAME="??B?$AutoCleanup@V?$AutoDelete@V?$vector@PAVHandleImpl@Client@WSMan@@V?$transport_allocator@PAVHandleImpl@Client@WSMan@@@@@std@@@@PAV?$vector@PAVHandleImpl@Client@WSMan@@V?$transport_allocator@PAVHandleImpl@Client@WSMan@@@@@std@@@@QAEPAV?$vector@PAVHandleImpl@Client@WSMan@@V?$transport_allocator@PAVHandleImpl@Client@WSMan@@@@@std@@XZ" PURGE="0" COMMENT="" />
    <EXPORT ORDINAL="1449" NAME="??B?$AutoCleanup@V?$AutoDelete@V?$vector@PAVHandleImpl@Client@WSMan@@V?$transport_allocator@PAVHandleImpl@Client@WSMan@@@@@std@@@@PAV?$vector@PAVHandleImpl@Client@WSMan@@V?$transport_allocator@PAVHandleImpl@Client@WSMan@@@@@std@@@@QBEQAV?$vector@PAVHandleImpl@Client@WSMan@@V?$transport_allocator@PAVHandleImpl@Client@WSMan@@@@@std@@XZ" PURGE="0" COMMENT="" />
    <EXPORT ORDINAL="1450" NAME="??B?$AutoCleanup@V?$AutoDelete@V?$vector@PAVIServiceConfigObserver@@V?$transport_allocator@PAVIServiceConfigObserver@@@@@std@@@@PAV?$vector@PAVIServiceConfigObserver@@V?$transport_allocator@PAVIServiceConfigObserver@@@@@std@@@@QAEPAV?$vector@PAVIServiceConfigObserver@@V?$transport_allocator@PAVIServiceConfigObserver@@@@@std@@XZ" PURGE="0" COMMENT="" />
    <EXPORT ORDINAL="1451" NAME="??B?$AutoCleanup@V?$AutoDelete@VAdminSid@CSecurity@@@@PAVAdminSid@CSecurity@@@@QAEPAVAdminSid@CSecurity@@XZ" PURGE="0" COMMENT="" />
    <EXPORT ORDINAL="1452" NAME="??B?$AutoCleanup@V?$AutoDelete@VBlockedRecord@@@@PAVBlockedRecord@@@@QAEPAVBlockedRecord@@XZ" PURGE="0" COMMENT="" />
    <EXPORT ORDINAL="1453" NAME="??B?$AutoCleanup@V?$AutoDelete@VCBaseConfigCache@@@@PAVCBaseConfigCache@@@@QAEPAVCBaseConfigCache@@XZ" PURGE="0" COMMENT="" />
    <EXPORT ORDINAL="1454" NAME="??B?$AutoCleanup@V?$AutoDelete@VCCertMapping@@@@PAVCCertMapping@@@@QAEPAVCCertMapping@@XZ" PURGE="0" COMMENT="" />
    <EXPORT ORDINAL="1455" NAME="??B?$AutoCleanup@V?$AutoDelete@VCConfigChangeSource@@@@PAVCConfigChangeSource@@@@QAEPAVCConfigChangeSource@@XZ" PURGE="0" COMMENT="" />
    <EXPORT ORDINAL="1456" NAME="??B?$AutoCleanup@V?$AutoDelete@VCListenerSettings@@@@PAVCListenerSettings@@@@QAEPAVCListenerSettings@@XZ" PURGE="0" COMMENT="" />
    <EXPORT ORDINAL="1457" NAME="??B?$AutoCleanup@V?$AutoDelete@VCObserverConfigChangeErrors@@@@PAVCObserverConfigChangeErrors@@@@QAEPAVCObserverConfigChangeErrors@@XZ" PURGE="0" COMMENT="" />
    <EXPORT ORDINAL="1458" NAME="??B?$AutoCleanup@V?$AutoDelete@VCServiceWatcher@CServiceConfigCache@@@@PAVCServiceWatcher@CServiceConfigCache@@@@QAEPAVCServiceWatcher@CServiceConfigCache@@XZ" PURGE="0" COMMENT="" />
    <EXPORT ORDINAL="1459" NAME="??B?$AutoCleanup@V?$AutoDelete@VCShellUriSettings@@@@PAVCShellUriSettings@@@@QAEPAVCShellUriSettings@@XZ" PURGE="0" COMMENT="" />
    <EXPORT ORDINAL="1460" NAME="??B?$AutoCleanup@V?$AutoDelete@VCWSManEPR@@@@PAVCWSManEPR@@@@QAEPAVCWSManEPR@@XZ" PURGE="0" COMMENT="" />
    <EXPORT ORDINAL="1461" NAME="??B?$AutoCleanup@V?$AutoDelete@VCWSManResource@@@@PAVCWSManResource@@@@QAEPAVCWSManResource@@XZ" PURGE="0" COMMENT="" />
    <EXPORT ORDINAL="1462" NAME="??B?$AutoCleanup@V?$AutoDelete@VCertHash@@@@PAVCertHash@@@@QAEPAVCertHash@@XZ" PURGE="0" COMMENT="" />
    <EXPORT ORDINAL="1463" NAME="??B?$AutoCleanup@V?$AutoDelete@VConfigUpdate@@@@PAVConfigUpdate@@@@QAEPAVConfigUpdate@@XZ" PURGE="0" COMMENT="" />
    <EXPORT ORDINAL="1464" NAME="??B?$AutoCleanup@V?$AutoDelete@VEnumSinkEx@@@@PAVEnumSinkEx@@@@QAEPAVEnumSinkEx@@XZ" PURGE="0" COMMENT="" />
    <EXPORT ORDINAL="1465" NAME="??B?$AutoCleanup@V?$AutoDelete@VEnumSinkEx@@@@PAVEnumSinkEx@@@@QBEQAVEnumSinkEx@@XZ" PURGE="0" COMMENT="" />
    <EXPORT ORDINAL="1466" NAME="??B?$AutoCleanup@V?$AutoDelete@VEventHandler@WSMan@@@@PAVEventHandler@WSMan@@@@QAEPAVEventHandler@WSMan@@XZ" PURGE="0" COMMENT="" />
    <EXPORT ORDINAL="1467" NAME="??B?$AutoCleanup@V?$AutoDelete@VExpiredOperationIdRecord@@@@PAVExpiredOperationIdRecord@@@@QAEPAVExpiredOperationIdRecord@@XZ" PURGE="0" COMMENT="" />
    <EXPORT ORDINAL="1468" NAME="??B?$AutoCleanup@V?$AutoDelete@VGPApiManager@@@@PAVGPApiManager@@@@QAEPAVGPApiManager@@XZ" PURGE="0" COMMENT="" />
    <EXPORT ORDINAL="1469" NAME="??B?$AutoCleanup@V?$AutoDelete@VGeneralSinkEx@@@@PAVGeneralSinkEx@@@@QAEPAVGeneralSinkEx@@XZ" PURGE="0" COMMENT="" />
    <EXPORT ORDINAL="1470" NAME="??B?$AutoCleanup@V?$AutoDelete@VGeneralSinkEx@@@@PAVGeneralSinkEx@@@@QBEQAVGeneralSinkEx@@XZ" PURGE="0" COMMENT="" />
    <EXPORT ORDINAL="1471" NAME="??B?$AutoCleanup@V?$AutoDelete@VIChannelObserverFactory@@@@PAVIChannelObserverFactory@@@@QAEPAVIChannelObserverFactory@@XZ" PURGE="0" COMMENT="" />
    <EXPORT ORDINAL="1472" NAME="??B?$AutoCleanup@V?$AutoDelete@VIQueryDASHSMASHInterface@@@@PAVIQueryDASHSMASHInterface@@@@QAEPAVIQueryDASHSMASHInterface@@XZ" PURGE="0" COMMENT="" />
    <EXPORT ORDINAL="1473" NAME="??B?$AutoCleanup@V?$AutoDelete@VIQueryDASHSMASHInterface@@@@PAVIQueryDASHSMASHInterface@@@@QBEQAVIQueryDASHSMASHInterface@@XZ" PURGE="0" COMMENT="" />
    <EXPORT ORDINAL="1474" NAME="??B?$AutoCleanup@V?$AutoDelete@VISpecification@@@@PAVISpecification@@@@QAEPAVISpecification@@XZ" PURGE="0" COMMENT="" />
    <EXPORT ORDINAL="1475" NAME="??B?$AutoCleanup@V?$AutoDelete@VISpecification@@@@PAVISpecification@@@@QBEQAVISpecification@@XZ" PURGE="0" COMMENT="" />
    <EXPORT ORDINAL="1476" NAME="??B?$AutoCleanup@V?$AutoDelete@VInteractiveSid@CSecurity@@@@PAVInteractiveSid@CSecurity@@@@QAEPAVInteractiveSid@CSecurity@@XZ" PURGE="0" COMMENT="" />
    <EXPORT ORDINAL="1477" NAME="??B?$AutoCleanup@V?$AutoDelete@VIpHlpApiDllLoader@@@@PAVIpHlpApiDllLoader@@@@QAEPAVIpHlpApiDllLoader@@XZ" PURGE="0" COMMENT="" />
    <EXPORT ORDINAL="1478" NAME="??B?$AutoCleanup@V?$AutoDelete@VMachineName@@@@PAVMachineName@@@@QAEPAVMachineName@@XZ" PURGE="0" COMMENT="" />
    <EXPORT ORDINAL="1479" NAME="??B?$AutoCleanup@V?$AutoDelete@VNetworkServiceSid@CSecurity@@@@PAVNetworkServiceSid@CSecurity@@@@QAEPAVNetworkServiceSid@CSecurity@@XZ" PURGE="0" COMMENT="" />
    <EXPORT ORDINAL="1480" NAME="??B?$AutoCleanup@V?$AutoDelete@VNtDsApiDllLoader@@@@PAVNtDsApiDllLoader@@@@QAEPAVNtDsApiDllLoader@@XZ" PURGE="0" COMMENT="" />
    <EXPORT ORDINAL="1481" NAME="??B?$AutoCleanup@V?$AutoDelete@VOptionValue@SessionOptions@Client@WSMan@@@@PAVOptionValue@SessionOptions@Client@WSMan@@@@QAEPAVOptionValue@SessionOptions@Client@WSMan@@XZ" PURGE="0" COMMENT="" />
    <EXPORT ORDINAL="1482" NAME="??B?$AutoCleanup@V?$AutoDelete@VPacketCreator@@@@PAVPacketCreator@@@@QAEPAVPacketCreator@@XZ" PURGE="0" COMMENT="" />
    <EXPORT ORDINAL="1483" NAME="??B?$AutoCleanup@V?$AutoDelete@VPacketParser@@@@PAVPacketParser@@@@QAEPAVPacketParser@@XZ" PURGE="0" COMMENT="" />
    <EXPORT ORDINAL="1484" NAME="??B?$AutoCleanup@V?$AutoDelete@VResources@Locale@@@@PAVResources@Locale@@@@QAEPAVResources@Locale@@XZ" PURGE="0" COMMENT="" />
    <EXPORT ORDINAL="1485" NAME="??B?$AutoCleanup@V?$AutoDelete@VSafeBufferWrite@@@@PAVSafeBufferWrite@@@@QAEPAVSafeBufferWrite@@XZ" PURGE="0" COMMENT="" />
    <EXPORT ORDINAL="1486" NAME="??B?$AutoCleanup@V?$AutoDelete@VSecurityEntry@Catalog@@@@PAVSecurityEntry@Catalog@@@@QAEPAVSecurityEntry@Catalog@@XZ" PURGE="0" COMMENT="" />
    <EXPORT ORDINAL="1487" NAME="??B?$AutoCleanup@V?$AutoDelete@VServiceSoapProcessor@@@@PAVServiceSoapProcessor@@@@QAEPAVServiceSoapProcessor@@XZ" PURGE="0" COMMENT="" />
    <EXPORT ORDINAL="1488" NAME="??B?$AutoCleanup@V?$AutoDelete@VShell32DllLoader@@@@PAVShell32DllLoader@@@@QAEPAVShell32DllLoader@@XZ" PURGE="0" COMMENT="" />
    <EXPORT ORDINAL="1489" NAME="??B?$AutoCleanup@V?$AutoDelete@VShlWApiDllLoader@@@@PAVShlWApiDllLoader@@@@QAEPAVShlWApiDllLoader@@XZ" PURGE="0" COMMENT="" />
    <EXPORT ORDINAL="1490" NAME="??B?$AutoCleanup@V?$AutoDelete@VSubscriptionManager@@@@PAVSubscriptionManager@@@@QAEPAVSubscriptionManager@@XZ" PURGE="0" COMMENT="" />
    <EXPORT ORDINAL="1491" NAME="??B?$AutoCleanup@V?$AutoDelete@VTSTRBUFFER@@@@PAVTSTRBUFFER@@@@QAEPAVTSTRBUFFER@@XZ" PURGE="0" COMMENT="" />
    <EXPORT ORDINAL="1492" NAME="??B?$AutoCleanup@V?$AutoDelete@VTSTRBUFFER@@@@PAVTSTRBUFFER@@@@QBEQAVTSTRBUFFER@@XZ" PURGE="0" COMMENT="" />
    <EXPORT ORDINAL="1493" NAME="??B?$AutoCleanup@V?$AutoDelete@VUniqueStringOverflow@@@@PAVUniqueStringOverflow@@@@QAEPAVUniqueStringOverflow@@XZ" PURGE="0" COMMENT="" />
    <EXPORT ORDINAL="1494" NAME="??B?$AutoCleanup@V?$AutoDelete@VUser32DllLoader@@@@PAVUser32DllLoader@@@@QAEPAVUser32DllLoader@@XZ" PURGE="0" COMMENT="" />
    <EXPORT ORDINAL="1495" NAME="??B?$AutoCleanup@V?$AutoDelete@VWSMANCONFIGTABLE_IDENTITY@@@@PAVWSMANCONFIGTABLE_IDENTITY@@@@QAEPAVWSMANCONFIGTABLE_IDENTITY@@XZ" PURGE="0" COMMENT="" />
    <EXPORT ORDINAL="1496" NAME="??B?$AutoCleanup@V?$AutoDelete@VWSManMemCryptManager@@@@PAVWSManMemCryptManager@@@@QAEPAVWSManMemCryptManager@@XZ" PURGE="0" COMMENT="" />
    <EXPORT ORDINAL="1497" NAME="??B?$AutoCleanup@V?$AutoDelete@VWmiEnumContext@@@@PAVWmiEnumContext@@@@QAEPAVWmiEnumContext@@XZ" PURGE="0" COMMENT="" />
    <EXPORT ORDINAL="1498" NAME="??B?$AutoCleanup@V?$AutoDelete@VWmiEnumContext@@@@PAVWmiEnumContext@@@@QBEQAVWmiEnumContext@@XZ" PURGE="0" COMMENT="" />
    <EXPORT ORDINAL="1499" NAME="??B?$AutoCleanup@V?$AutoDelete@VXmlReader@@@@PAVXmlReader@@@@QAEPAVXmlReader@@XZ" PURGE="0" COMMENT="" />
    <EXPORT ORDINAL="1500" NAME="??B?$AutoCleanup@V?$AutoDeleteVector@$$CBG@@PBG@@QAEPBGXZ" PURGE="0" COMMENT="" />
    <EXPORT ORDINAL="1501" NAME="??B?$AutoCleanup@V?$AutoDeleteVector@D@@PAD@@QAEPADXZ" PURGE="0" COMMENT="" />
    <EXPORT ORDINAL="1502" NAME="??B?$AutoCleanup@V?$AutoDeleteVector@E@@PAE@@QAEPAEXZ" PURGE="0" COMMENT="" />
    <EXPORT ORDINAL="1503" NAME="??B?$AutoCleanup@V?$AutoDeleteVector@E@@PAE@@QBEQAEXZ" PURGE="0" COMMENT="" />
    <EXPORT ORDINAL="1504" NAME="??B?$AutoCleanup@V?$AutoDeleteVector@G@@PAG@@QAEPAGXZ" PURGE="0" COMMENT="" />
    <EXPORT ORDINAL="1505" NAME="??B?$AutoCleanup@V?$AutoDeleteVector@G@@PAG@@QBEQAGXZ" PURGE="0" COMMENT="" />
    <EXPORT ORDINAL="1506" NAME="??B?$AutoCleanup@V?$AutoDeleteVector@H@@PAH@@QAEPAHXZ" PURGE="0" COMMENT="" />
    <EXPORT ORDINAL="1507" NAME="??B?$AutoCleanup@V?$AutoDeleteVector@PAG@@PAPAG@@QAEPAPAGXZ" PURGE="0" COMMENT="" />
    <EXPORT ORDINAL="1508" NAME="??B?$AutoCleanup@V?$AutoDeleteVector@PAG@@PAPAG@@QBEQAPAGXZ" PURGE="0" COMMENT="" />
    <EXPORT ORDINAL="1509" NAME="??B?$AutoCleanup@V?$AutoDeleteVector@PBG@@PAPBG@@QAEPAPBGXZ" PURGE="0" COMMENT="" />
    <EXPORT ORDINAL="1510" NAME="??B?$AutoCleanup@V?$AutoDeleteVector@PBG@@PAPBG@@QBEQAPBGXZ" PURGE="0" COMMENT="" />
    <EXPORT ORDINAL="1511" NAME="??B?$AutoCleanup@V?$AutoDeleteVector@U_CONFIG_UPDATE@@@@PAU_CONFIG_UPDATE@@@@QAEPAU_CONFIG_UPDATE@@XZ" PURGE="0" COMMENT="" />
    <EXPORT ORDINAL="1512" NAME="??B?$AutoCleanup@V?$AutoDeleteVector@U_WINRS_CREATE_SHELL_ENVIRONMENT_VARIABLE@@@@PAU_WINRS_CREATE_SHELL_ENVIRONMENT_VARIABLE@@@@QAEPAU_WINRS_CREATE_SHELL_ENVIRONMENT_VARIABLE@@XZ" PURGE="0" COMMENT="" />
    <EXPORT ORDINAL="1513" NAME="??B?$AutoCleanup@V?$AutoDeleteVector@U_WINRS_CREATE_SHELL_ENVIRONMENT_VARIABLE@@@@PAU_WINRS_CREATE_SHELL_ENVIRONMENT_VARIABLE@@@@QBEQAU_WINRS_CREATE_SHELL_ENVIRONMENT_VARIABLE@@XZ" PURGE="0" COMMENT="" />
    <EXPORT ORDINAL="1514" NAME="??B?$AutoCleanup@V?$AutoDeleteVector@U_WINRS_RUN_COMMAND_ARG@@@@PAU_WINRS_RUN_COMMAND_ARG@@@@QAEPAU_WINRS_RUN_COMMAND_ARG@@XZ" PURGE="0" COMMENT="" />
    <EXPORT ORDINAL="1515" NAME="??B?$AutoCleanup@V?$AutoDeleteVector@U_WINRS_RUN_COMMAND_ARG@@@@PAU_WINRS_RUN_COMMAND_ARG@@@@QBEQAU_WINRS_RUN_COMMAND_ARG@@XZ" PURGE="0" COMMENT="" />
    <EXPORT ORDINAL="1516" NAME="??B?$AutoCleanup@V?$AutoDeleteVector@U_WSMAN_OPTION@@@@PAU_WSMAN_OPTION@@@@QAEPAU_WSMAN_OPTION@@XZ" PURGE="0" COMMENT="" />
    <EXPORT ORDINAL="1517" NAME="??B?$AutoCleanup@V?$AutoDeleteVector@X@@PAX@@QAEPAXXZ" PURGE="0" COMMENT="" />
    <EXPORT ORDINAL="1518" NAME="??B?$AutoCleanup@V?$AutoFree@E@@PAE@@QAEPAEXZ" PURGE="0" COMMENT="" />
    <EXPORT ORDINAL="1519" NAME="??B?$AutoCleanup@V?$AutoFree@E@@PAE@@QBEQAEXZ" PURGE="0" COMMENT="" />
    <EXPORT ORDINAL="1520" NAME="??B?$AutoCleanup@V?$AutoLocklessItemRecycle@VPacket@@@@PAVPacket@@@@QAEPAVPacket@@XZ" PURGE="0" COMMENT="" />
    <EXPORT ORDINAL="1521" NAME="??B?$AutoCleanup@V?$AutoRelease@UIAppHostChildElementCollection@@@@PAUIAppHostChildElementCollection@@@@QAEPAUIAppHostChildElementCollection@@XZ" PURGE="0" COMMENT="" />
    <EXPORT ORDINAL="1522" NAME="??B?$AutoCleanup@V?$AutoRelease@UIAppHostElement@@@@PAUIAppHostElement@@@@QAEPAUIAppHostElement@@XZ" PURGE="0" COMMENT="" />
    <EXPORT ORDINAL="1523" NAME="??B?$AutoCleanup@V?$AutoRelease@UIAppHostElementCollection@@@@PAUIAppHostElementCollection@@@@QAEPAUIAppHostElementCollection@@XZ" PURGE="0" COMMENT="" />
    <EXPORT ORDINAL="1524" NAME="??B?$AutoCleanup@V?$AutoRelease@UIClientSecurity@@@@PAUIClientSecurity@@@@QAEPAUIClientSecurity@@XZ" PURGE="0" COMMENT="" />
    <EXPORT ORDINAL="1525" NAME="??B?$AutoCleanup@V?$AutoRelease@UIClientSecurity@@@@PAUIClientSecurity@@@@QBEQAUIClientSecurity@@XZ" PURGE="0" COMMENT="" />
    <EXPORT ORDINAL="1526" NAME="??B?$AutoCleanup@V?$AutoRelease@UIEnumWbemClassObject@@@@PAUIEnumWbemClassObject@@@@QAEPAUIEnumWbemClassObject@@XZ" PURGE="0" COMMENT="" />
    <EXPORT ORDINAL="1527" NAME="??B?$AutoCleanup@V?$AutoRelease@UIEnumWbemClassObject@@@@PAUIEnumWbemClassObject@@@@QBEQAUIEnumWbemClassObject@@XZ" PURGE="0" COMMENT="" />
    <EXPORT ORDINAL="1528" NAME="??B?$AutoCleanup@V?$AutoRelease@UIErrorInfo@@@@PAUIErrorInfo@@@@QAEPAUIErrorInfo@@XZ" PURGE="0" COMMENT="" />
    <EXPORT ORDINAL="1529" NAME="??B?$AutoCleanup@V?$AutoRelease@UIErrorInfo@@@@PAUIErrorInfo@@@@QBEQAUIErrorInfo@@XZ" PURGE="0" COMMENT="" />
    <EXPORT ORDINAL="1530" NAME="??B?$AutoCleanup@V?$AutoRelease@UIUnknown@@@@PAUIUnknown@@@@QAEPAUIUnknown@@XZ" PURGE="0" COMMENT="" />
    <EXPORT ORDINAL="1531" NAME="??B?$AutoCleanup@V?$AutoRelease@UIUnknown@@@@PAUIUnknown@@@@QBEQAUIUnknown@@XZ" PURGE="0" COMMENT="" />
    <EXPORT ORDINAL="1532" NAME="??B?$AutoCleanup@V?$AutoRelease@UIWbemClassObject@@@@PAUIWbemClassObject@@@@QAEPAUIWbemClassObject@@XZ" PURGE="0" COMMENT="" />
    <EXPORT ORDINAL="1533" NAME="??B?$AutoCleanup@V?$AutoRelease@UIWbemClassObject@@@@PAUIWbemClassObject@@@@QBEQAUIWbemClassObject@@XZ" PURGE="0" COMMENT="" />
    <EXPORT ORDINAL="1534" NAME="??B?$AutoCleanup@V?$AutoRelease@UIWbemContext@@@@PAUIWbemContext@@@@QAEPAUIWbemContext@@XZ" PURGE="0" COMMENT="" />
    <EXPORT ORDINAL="1535" NAME="??B?$AutoCleanup@V?$AutoRelease@UIWbemContext@@@@PAUIWbemContext@@@@QBEQAUIWbemContext@@XZ" PURGE="0" COMMENT="" />
    <EXPORT ORDINAL="1536" NAME="??B?$AutoCleanup@V?$AutoRelease@UIWbemLocator@@@@PAUIWbemLocator@@@@QAEPAUIWbemLocator@@XZ" PURGE="0" COMMENT="" />
    <EXPORT ORDINAL="1537" NAME="??B?$AutoCleanup@V?$AutoRelease@UIWbemLocator@@@@PAUIWbemLocator@@@@QBEQAUIWbemLocator@@XZ" PURGE="0" COMMENT="" />
    <EXPORT ORDINAL="1538" NAME="??B?$AutoCleanup@V?$AutoRelease@UIWbemObjectTextSrc@@@@PAUIWbemObjectTextSrc@@@@QAEPAUIWbemObjectTextSrc@@XZ" PURGE="0" COMMENT="" />
    <EXPORT ORDINAL="1539" NAME="??B?$AutoCleanup@V?$AutoRelease@UIWbemObjectTextSrc@@@@PAUIWbemObjectTextSrc@@@@QBEQAUIWbemObjectTextSrc@@XZ" PURGE="0" COMMENT="" />
    <EXPORT ORDINAL="1540" NAME="??B?$AutoCleanup@V?$AutoRelease@UIWbemPath@@@@PAUIWbemPath@@@@QAEPAUIWbemPath@@XZ" PURGE="0" COMMENT="" />
    <EXPORT ORDINAL="1541" NAME="??B?$AutoCleanup@V?$AutoRelease@UIWbemPath@@@@PAUIWbemPath@@@@QBEQAUIWbemPath@@XZ" PURGE="0" COMMENT="" />
    <EXPORT ORDINAL="1542" NAME="??B?$AutoCleanup@V?$AutoRelease@UIWbemPathKeyList@@@@PAUIWbemPathKeyList@@@@QAEPAUIWbemPathKeyList@@XZ" PURGE="0" COMMENT="" />
    <EXPORT ORDINAL="1543" NAME="??B?$AutoCleanup@V?$AutoRelease@UIWbemPathKeyList@@@@PAUIWbemPathKeyList@@@@QBEQAUIWbemPathKeyList@@XZ" PURGE="0" COMMENT="" />
    <EXPORT ORDINAL="1544" NAME="??B?$AutoCleanup@V?$AutoRelease@UIWbemQualifierSet@@@@PAUIWbemQualifierSet@@@@QAEPAUIWbemQualifierSet@@XZ" PURGE="0" COMMENT="" />
    <EXPORT ORDINAL="1545" NAME="??B?$AutoCleanup@V?$AutoRelease@UIWbemQualifierSet@@@@PAUIWbemQualifierSet@@@@QBEQAUIWbemQualifierSet@@XZ" PURGE="0" COMMENT="" />
    <EXPORT ORDINAL="1546" NAME="??B?$AutoCleanup@V?$AutoRelease@UIWbemQuery@@@@PAUIWbemQuery@@@@QAEPAUIWbemQuery@@XZ" PURGE="0" COMMENT="" />
    <EXPORT ORDINAL="1547" NAME="??B?$AutoCleanup@V?$AutoRelease@UIWbemQuery@@@@PAUIWbemQuery@@@@QBEQAUIWbemQuery@@XZ" PURGE="0" COMMENT="" />
    <EXPORT ORDINAL="1548" NAME="??B?$AutoCleanup@V?$AutoRelease@UIWbemServices@@@@PAUIWbemServices@@@@QAEPAUIWbemServices@@XZ" PURGE="0" COMMENT="" />
    <EXPORT ORDINAL="1549" NAME="??B?$AutoCleanup@V?$AutoRelease@UIWbemServices@@@@PAUIWbemServices@@@@QBEQAUIWbemServices@@XZ" PURGE="0" COMMENT="" />
    <EXPORT ORDINAL="1550" NAME="??B?$AutoCleanup@V?$AutoRelease@VCBaseConfigCache@@@@PAVCBaseConfigCache@@@@QAEPAVCBaseConfigCache@@XZ" PURGE="0" COMMENT="" />
    <EXPORT ORDINAL="1551" NAME="??B?$AutoCleanup@V?$AutoRelease@VCClientConfigSettings@@@@PAVCClientConfigSettings@@@@QAEPAVCClientConfigSettings@@XZ" PURGE="0" COMMENT="" />
    <EXPORT ORDINAL="1552" NAME="??B?$AutoCleanup@V?$AutoRelease@VCCommonConfigSettings@@@@PAVCCommonConfigSettings@@@@QAEPAVCCommonConfigSettings@@XZ" PURGE="0" COMMENT="" />
    <EXPORT ORDINAL="1553" NAME="??B?$AutoCleanup@V?$AutoRelease@VCConfigCacheMap@CBaseConfigCache@@@@PAVCConfigCacheMap@CBaseConfigCache@@@@QAEPAVCConfigCacheMap@CBaseConfigCache@@XZ" PURGE="0" COMMENT="" />
    <EXPORT ORDINAL="1554" NAME="??B?$AutoCleanup@V?$AutoRelease@VCConfigManager@@@@PAVCConfigManager@@@@QAEPAVCConfigManager@@XZ" PURGE="0" COMMENT="" />
    <EXPORT ORDINAL="1555" NAME="??B?$AutoCleanup@V?$AutoRelease@VCRemoteSession@@@@PAVCRemoteSession@@@@QAEPAVCRemoteSession@@XZ" PURGE="0" COMMENT="" />
    <EXPORT ORDINAL="1556" NAME="??B?$AutoCleanup@V?$AutoRelease@VCRequestContext@@@@PAVCRequestContext@@@@QAEPAVCRequestContext@@XZ" PURGE="0" COMMENT="" />
    <EXPORT ORDINAL="1557" NAME="??B?$AutoCleanup@V?$AutoRelease@VCServiceCommonConfigSettings@@@@PAVCServiceCommonConfigSettings@@@@QAEPAVCServiceCommonConfigSettings@@XZ" PURGE="0" COMMENT="" />
    <EXPORT ORDINAL="1558" NAME="??B?$AutoCleanup@V?$AutoRelease@VCServiceConfigCache@@@@PAVCServiceConfigCache@@@@QAEPAVCServiceConfigCache@@XZ" PURGE="0" COMMENT="" />
    <EXPORT ORDINAL="1559" NAME="??B?$AutoCleanup@V?$AutoRelease@VCServiceConfigSettings@@@@PAVCServiceConfigSettings@@@@QAEPAVCServiceConfigSettings@@XZ" PURGE="0" COMMENT="" />
    <EXPORT ORDINAL="1560" NAME="??B?$AutoCleanup@V?$AutoRelease@VCWSManEPR@@@@PAVCWSManEPR@@@@QAEPAVCWSManEPR@@XZ" PURGE="0" COMMENT="" />
    <EXPORT ORDINAL="1561" NAME="??B?$AutoCleanup@V?$AutoRelease@VCWSManEPR@@@@PAVCWSManEPR@@@@QBEQAVCWSManEPR@@XZ" PURGE="0" COMMENT="" />
    <EXPORT ORDINAL="1562" NAME="??B?$AutoCleanup@V?$AutoRelease@VCWSManGroupPolicyCache@@@@PAVCWSManGroupPolicyCache@@@@QAEPAVCWSManGroupPolicyCache@@XZ" PURGE="0" COMMENT="" />
    <EXPORT ORDINAL="1563" NAME="??B?$AutoCleanup@V?$AutoRelease@VCWSManGroupPolicyManager@@@@PAVCWSManGroupPolicyManager@@@@QAEPAVCWSManGroupPolicyManager@@XZ" PURGE="0" COMMENT="" />
    <EXPORT ORDINAL="1564" NAME="??B?$AutoCleanup@V?$AutoRelease@VCWSManObject@@@@PAVCWSManObject@@@@QAEPAVCWSManObject@@XZ" PURGE="0" COMMENT="" />
    <EXPORT ORDINAL="1565" NAME="??B?$AutoCleanup@V?$AutoRelease@VCWSManResource@@@@PAVCWSManResource@@@@QAEPAVCWSManResource@@XZ" PURGE="0" COMMENT="" />
    <EXPORT ORDINAL="1566" NAME="??B?$AutoCleanup@V?$AutoRelease@VCWSManResource@@@@PAVCWSManResource@@@@QBEQAVCWSManResource@@XZ" PURGE="0" COMMENT="" />
    <EXPORT ORDINAL="1567" NAME="??B?$AutoCleanup@V?$AutoRelease@VCWinRSPluginConfigCache@@@@PAVCWinRSPluginConfigCache@@@@QAEPAVCWinRSPluginConfigCache@@XZ" PURGE="0" COMMENT="" />
    <EXPORT ORDINAL="1568" NAME="??B?$AutoCleanup@V?$AutoRelease@VCWinRSPluginConfigCache@@@@PAVCWinRSPluginConfigCache@@@@QBEQAVCWinRSPluginConfigCache@@XZ" PURGE="0" COMMENT="" />
    <EXPORT ORDINAL="1569" NAME="??B?$AutoCleanup@V?$AutoRelease@VCWinRSPluginConfigSettings@@@@PAVCWinRSPluginConfigSettings@@@@QAEPAVCWinRSPluginConfigSettings@@XZ" PURGE="0" COMMENT="" />
    <EXPORT ORDINAL="1570" NAME="??B?$AutoCleanup@V?$AutoRelease@VCommand@Client@WSMan@@@@PAVCommand@Client@WSMan@@@@QAEPAVCommand@Client@WSMan@@XZ" PURGE="0" COMMENT="" />
    <EXPORT ORDINAL="1571" NAME="??B?$AutoCleanup@V?$AutoRelease@VConfigNotification@@@@PAVConfigNotification@@@@QAEPAVConfigNotification@@XZ" PURGE="0" COMMENT="" />
    <EXPORT ORDINAL="1572" NAME="??B?$AutoCleanup@V?$AutoRelease@VConnectShellOperation@Client@WSMan@@@@PAVConnectShellOperation@Client@WSMan@@@@QAEPAVConnectShellOperation@Client@WSMan@@XZ" PURGE="0" COMMENT="" />
    <EXPORT ORDINAL="1573" NAME="??B?$AutoCleanup@V?$AutoRelease@VCreateShellOperation@Client@WSMan@@@@PAVCreateShellOperation@Client@WSMan@@@@QAEPAVCreateShellOperation@Client@WSMan@@XZ" PURGE="0" COMMENT="" />
    <EXPORT ORDINAL="1574" NAME="??B?$AutoCleanup@V?$AutoRelease@VDeleteShellOperation@Client@WSMan@@@@PAVDeleteShellOperation@Client@WSMan@@@@QAEPAVDeleteShellOperation@Client@WSMan@@XZ" PURGE="0" COMMENT="" />
    <EXPORT ORDINAL="1575" NAME="??B?$AutoCleanup@V?$AutoRelease@VDisconnectOperation@Client@WSMan@@@@PAVDisconnectOperation@Client@WSMan@@@@QAEPAVDisconnectOperation@Client@WSMan@@XZ" PURGE="0" COMMENT="" />
    <EXPORT ORDINAL="1576" NAME="??B?$AutoCleanup@V?$AutoRelease@VEnumSinkEx@@@@PAVEnumSinkEx@@@@QAEPAVEnumSinkEx@@XZ" PURGE="0" COMMENT="" />
    <EXPORT ORDINAL="1577" NAME="??B?$AutoCleanup@V?$AutoRelease@VEnumSinkEx@@@@PAVEnumSinkEx@@@@QBEQAVEnumSinkEx@@XZ" PURGE="0" COMMENT="" />
    <EXPORT ORDINAL="1578" NAME="??B?$AutoCleanup@V?$AutoRelease@VGeneralSinkEx@@@@PAVGeneralSinkEx@@@@QAEPAVGeneralSinkEx@@XZ" PURGE="0" COMMENT="" />
    <EXPORT ORDINAL="1579" NAME="??B?$AutoCleanup@V?$AutoRelease@VGeneralSinkEx@@@@PAVGeneralSinkEx@@@@QBEQAVGeneralSinkEx@@XZ" PURGE="0" COMMENT="" />
    <EXPORT ORDINAL="1580" NAME="??B?$AutoCleanup@V?$AutoRelease@VIISConfigSettings@@@@PAVIISConfigSettings@@@@QAEPAVIISConfigSettings@@XZ" PURGE="0" COMMENT="" />
    <EXPORT ORDINAL="1581" NAME="??B?$AutoCleanup@V?$AutoRelease@VIPCSoapProcessor@@@@PAVIPCSoapProcessor@@@@QAEPAVIPCSoapProcessor@@XZ" PURGE="0" COMMENT="" />
    <EXPORT ORDINAL="1582" NAME="??B?$AutoCleanup@V?$AutoRelease@VIRequestContext@@@@PAVIRequestContext@@@@QAEPAVIRequestContext@@XZ" PURGE="0" COMMENT="" />
    <EXPORT ORDINAL="1583" NAME="??B?$AutoCleanup@V?$AutoRelease@VIRequestContext@@@@PAVIRequestContext@@@@QBEQAVIRequestContext@@XZ" PURGE="0" COMMENT="" />
    <EXPORT ORDINAL="1584" NAME="??B?$AutoCleanup@V?$AutoRelease@VISubscription@@@@PAVISubscription@@@@QAEPAVISubscription@@XZ" PURGE="0" COMMENT="" />
    <EXPORT ORDINAL="1585" NAME="??B?$AutoCleanup@V?$AutoRelease@VInboundRequestDetails@@@@PAVInboundRequestDetails@@@@QAEPAVInboundRequestDetails@@XZ" PURGE="0" COMMENT="" />
    <EXPORT ORDINAL="1586" NAME="??B?$AutoCleanup@V?$AutoRelease@VInboundRequestDetails@@@@PAVInboundRequestDetails@@@@QBEQAVInboundRequestDetails@@XZ" PURGE="0" COMMENT="" />
    <EXPORT ORDINAL="1587" NAME="??B?$AutoCleanup@V?$AutoRelease@VReceiveOperation@Client@WSMan@@@@PAVReceiveOperation@Client@WSMan@@@@QAEPAVReceiveOperation@Client@WSMan@@XZ" PURGE="0" COMMENT="" />
    <EXPORT ORDINAL="1588" NAME="??B?$AutoCleanup@V?$AutoRelease@VReconnectOperation@Client@WSMan@@@@PAVReconnectOperation@Client@WSMan@@@@QAEPAVReconnectOperation@Client@WSMan@@XZ" PURGE="0" COMMENT="" />
    <EXPORT ORDINAL="1589" NAME="??B?$AutoCleanup@V?$AutoRelease@VSendOperation@Client@WSMan@@@@PAVSendOperation@Client@WSMan@@@@QAEPAVSendOperation@Client@WSMan@@XZ" PURGE="0" COMMENT="" />
    <EXPORT ORDINAL="1590" NAME="??B?$AutoCleanup@V?$AutoRelease@VShell@Client@WSMan@@@@PAVShell@Client@WSMan@@@@QAEPAVShell@Client@WSMan@@XZ" PURGE="0" COMMENT="" />
    <EXPORT ORDINAL="1591" NAME="??B?$AutoCleanup@V?$AutoRelease@VShell@Client@WSMan@@@@PAVShell@Client@WSMan@@@@QBEQAVShell@Client@WSMan@@XZ" PURGE="0" COMMENT="" />
    <EXPORT ORDINAL="1592" NAME="??B?$AutoCleanup@V?$AutoRelease@VSignalOperation@Client@WSMan@@@@PAVSignalOperation@Client@WSMan@@@@QAEPAVSignalOperation@Client@WSMan@@XZ" PURGE="0" COMMENT="" />
    <EXPORT ORDINAL="1593" NAME="??B?$AutoCleanup@V?$AutoRelease@VUserRecord@@@@PAVUserRecord@@@@QAEPAVUserRecord@@XZ" PURGE="0" COMMENT="" />
    <EXPORT ORDINAL="1594" NAME="??B?$AutoCleanup@V?$AutoRelease@VUserRecord@@@@PAVUserRecord@@@@QBEQAVUserRecord@@XZ" PURGE="0" COMMENT="" />
    <EXPORT ORDINAL="1595" NAME="??B?$AutoCleanup@VAutoBstr@@PAG@@QAEPAGXZ" PURGE="0" COMMENT="" />
    <EXPORT ORDINAL="1596" NAME="??B?$AutoCleanup@VAutoBstrNoAlloc@@PAG@@QAEPAGXZ" PURGE="0" COMMENT="" />
    <EXPORT ORDINAL="1597" NAME="??B?$AutoCleanup@VAutoBstrNoAlloc@@PAG@@QBEQAGXZ" PURGE="0" COMMENT="" />
    <EXPORT ORDINAL="1598" NAME="??B?$AutoCleanup@VAutoCertContext@@PBU_CERT_CONTEXT@@@@QAEPBU_CERT_CONTEXT@@XZ" PURGE="0" COMMENT="" />
    <EXPORT ORDINAL="1599" NAME="??B?$AutoCleanup@VAutoHandle@@PAX@@QAEPAXXZ" PURGE="0" COMMENT="" />
    <EXPORT ORDINAL="1600" NAME="??B?$AutoCleanup@VAutoHandle@@PAX@@QBEQAXXZ" PURGE="0" COMMENT="" />
    <EXPORT ORDINAL="1601" NAME="??B?$AutoCleanup@VAutoImpersonateUser@@PAX@@QAEPAXXZ" PURGE="0" COMMENT="" />
    <EXPORT ORDINAL="1602" NAME="??B?$AutoCleanup@VAutoImpersonateUser@@PAX@@QBEQAXXZ" PURGE="0" COMMENT="" />
    <EXPORT ORDINAL="1603" NAME="??B?$AutoCleanup@VAutoLibrary@@PAUHINSTANCE__@@@@QAEPAUHINSTANCE__@@XZ" PURGE="0" COMMENT="" />
    <EXPORT ORDINAL="1604" NAME="??B?$AutoCleanup@VAutoLocalFree@@PAX@@QAEPAXXZ" PURGE="0" COMMENT="" />
    <EXPORT ORDINAL="1605" NAME="??B?$AutoCleanup@VAutoMIClass@@PAU_MI_Class@@@@QAEPAU_MI_Class@@XZ" PURGE="0" COMMENT="" />
    <EXPORT ORDINAL="1606" NAME="??B?$AutoCleanup@VAutoMIInstance@@PAU_MI_Instance@@@@QAEPAU_MI_Instance@@XZ" PURGE="0" COMMENT="" />
    <EXPORT ORDINAL="1607" NAME="??B?$AutoCleanup@VAutoRegKey@@PAUHKEY__@@@@QAEPAUHKEY__@@XZ" PURGE="0" COMMENT="" />
    <EXPORT ORDINAL="1608" NAME="??B?$AutoCleanup@VAutoSecurityDescriptor@@PAX@@QAEPAXXZ" PURGE="0" COMMENT="" />
    <EXPORT ORDINAL="1609" NAME="??B?$SafeMap_Iterator@PAVCCertMapping@@UEmpty@@@@QBE_NXZ" PURGE="0" COMMENT="" />
    <EXPORT ORDINAL="1610" NAME="??B?$SafeMap_Iterator@PAVCListenerOperation@@UEmpty@@@@QBE_NXZ" PURGE="0" COMMENT="" />
    <EXPORT ORDINAL="1611" NAME="??B?$SafeMap_Iterator@PAVCShellUriSettings@@UEmpty@@@@QBE_NXZ" PURGE="0" COMMENT="" />
    <EXPORT ORDINAL="1612" NAME="??B?$SafeMap_Iterator@VCertThumbprintKey@@VCertThumbprintMappedSet@CServiceConfigSettings@@@@QBE_NXZ" PURGE="0" COMMENT="" />
    <EXPORT ORDINAL="1613" NAME="??B?$SafeMap_Iterator@VKey@Locale@@K@@QBE_NXZ" PURGE="0" COMMENT="" />
    <EXPORT ORDINAL="1614" NAME="??B?$SafeMap_Iterator@VStringKeyCI@@K@@QBE_NXZ" PURGE="0" COMMENT="" />
    <EXPORT ORDINAL="1615" NAME="??B?$SafeMap_Iterator@VStringKeyCI@@UUSER_CONTEXT_INFO@WSManHttpListener@@@@QBE_NXZ" PURGE="0" COMMENT="" />
    <EXPORT ORDINAL="1616" NAME="??B?$SafeMap_Iterator@VStringKeyStore@@PAVExpiredOperationIdRecord@@@@QBE_NXZ" PURGE="0" COMMENT="" />
    <EXPORT ORDINAL="1617" NAME="??B?$SafeMap_Iterator@W4WSManSessionOption@@PAVOptionValue@SessionOptions@Client@WSMan@@@@QBE_NXZ" PURGE="0" COMMENT="" />
    <EXPORT ORDINAL="1618" NAME="??C?$AutoCleanup@V?$AutoDelete@U_WSMAN_STREAM_ID_SET@@@@PAU_WSMAN_STREAM_ID_SET@@@@QAEPAU_WSMAN_STREAM_ID_SET@@XZ" PURGE="0" COMMENT="" />
    <EXPORT ORDINAL="1619" NAME="??C?$AutoCleanup@V?$AutoDelete@V?$Handle@VISubscription@@@@@@PAV?$Handle@VISubscription@@@@@@QAEPAV?$Handle@VISubscription@@@@XZ" PURGE="0" COMMENT="" />
    <EXPORT ORDINAL="1620" NAME="??C?$AutoCleanup@V?$AutoDelete@V?$SafeMap_Iterator@VStringKeyCI@@K@@@@PAV?$SafeMap_Iterator@VStringKeyCI@@K@@@@QAEPAV?$SafeMap_Iterator@VStringKeyCI@@K@@XZ" PURGE="0" COMMENT="" />
    <EXPORT ORDINAL="1621" NAME="??C?$AutoCleanup@V?$AutoDelete@V?$SafeMap_Iterator@W4WSManSessionOption@@PAVOptionValue@SessionOptions@Client@WSMan@@@@@@PAV?$SafeMap_Iterator@W4WSManSessionOption@@PAVOptionValue@SessionOptions@Client@WSMan@@@@@@QAEPAV?$SafeMap_Iterator@W4WSManSessionOption@@PAVOptionValue@SessionOptions@Client@WSMan@@@@XZ" PURGE="0" COMMENT="" />
    <EXPORT ORDINAL="1622" NAME="??C?$AutoCleanup@V?$AutoDelete@V?$SafeSet@PAVCCertMapping@@@@@@PAV?$SafeSet@PAVCCertMapping@@@@@@QAEPAV?$SafeSet@PAVCCertMapping@@@@XZ" PURGE="0" COMMENT="" />
    <EXPORT ORDINAL="1623" NAME="??C?$AutoCleanup@V?$AutoDelete@V?$SafeSet@PAVCShellUriSettings@@@@@@PAV?$SafeSet@PAVCShellUriSettings@@@@@@QAEPAV?$SafeSet@PAVCShellUriSettings@@@@XZ" PURGE="0" COMMENT="" />
    <EXPORT ORDINAL="1624" NAME="??C?$AutoCleanup@V?$AutoDelete@V?$SafeSet_Iterator@PAVCListenerOperation@@@@@@PAV?$SafeSet_Iterator@PAVCListenerOperation@@@@@@QAEPAV?$SafeSet_Iterator@PAVCListenerOperation@@@@XZ" PURGE="0" COMMENT="" />
    <EXPORT ORDINAL="1625" NAME="??C?$AutoCleanup@V?$AutoDelete@V?$set@PAVCListenerSettings@@VCListenerSettingsLessFunctor@CServiceConfigSettings@@V?$transport_allocator@PAVCListenerSettings@@@@@std@@@@PAV?$set@PAVCListenerSettings@@VCListenerSettingsLessFunctor@CServiceConfigSettings@@V?$transport_allocator@PAVCListenerSettings@@@@@std@@@@QAEPAV?$set@PAVCListenerSettings@@VCListenerSettingsLessFunctor@CServiceConfigSettings@@V?$transport_allocator@PAVCListenerSettings@@@@@std@@XZ" PURGE="0" COMMENT="" />
    <EXPORT ORDINAL="1626" NAME="??C?$AutoCleanup@V?$AutoDelete@V?$set@Usockaddr_storage@@VSockAddrLessFunctor@CListenerSettings@@V?$transport_allocator@Usockaddr_storage@@@@@std@@@@PAV?$set@Usockaddr_storage@@VSockAddrLessFunctor@CListenerSettings@@V?$transport_allocator@Usockaddr_storage@@@@@std@@@@QAEPAV?$set@Usockaddr_storage@@VSockAddrLessFunctor@CListenerSettings@@V?$transport_allocator@Usockaddr_storage@@@@@std@@XZ" PURGE="0" COMMENT="" />
    <EXPORT ORDINAL="1627" NAME="??C?$AutoCleanup@V?$AutoDelete@V?$vector@PAVHandleImpl@Client@WSMan@@V?$transport_allocator@PAVHandleImpl@Client@WSMan@@@@@std@@@@PAV?$vector@PAVHandleImpl@Client@WSMan@@V?$transport_allocator@PAVHandleImpl@Client@WSMan@@@@@std@@@@QAEPAV?$vector@PAVHandleImpl@Client@WSMan@@V?$transport_allocator@PAVHandleImpl@Client@WSMan@@@@@std@@XZ" PURGE="0" COMMENT="" />
    <EXPORT ORDINAL="1628" NAME="??C?$AutoCleanup@V?$AutoDelete@V?$vector@PAVIServiceConfigObserver@@V?$transport_allocator@PAVIServiceConfigObserver@@@@@std@@@@PAV?$vector@PAVIServiceConfigObserver@@V?$transport_allocator@PAVIServiceConfigObserver@@@@@std@@@@QAEPAV?$vector@PAVIServiceConfigObserver@@V?$transport_allocator@PAVIServiceConfigObserver@@@@@std@@XZ" PURGE="0" COMMENT="" />
    <EXPORT ORDINAL="1629" NAME="??C?$AutoCleanup@V?$AutoDelete@VBlockedRecord@@@@PAVBlockedRecord@@@@QAEPAVBlockedRecord@@XZ" PURGE="0" COMMENT="" />
    <EXPORT ORDINAL="1630" NAME="??C?$AutoCleanup@V?$AutoDelete@VCBaseConfigCache@@@@PAVCBaseConfigCache@@@@QAEPAVCBaseConfigCache@@XZ" PURGE="0" COMMENT="" />
    <EXPORT ORDINAL="1631" NAME="??C?$AutoCleanup@V?$AutoDelete@VCCertMapping@@@@PAVCCertMapping@@@@QAEPAVCCertMapping@@XZ" PURGE="0" COMMENT="" />
    <EXPORT ORDINAL="1632" NAME="??C?$AutoCleanup@V?$AutoDelete@VCConfigChangeSource@@@@PAVCConfigChangeSource@@@@QAEPAVCConfigChangeSource@@XZ" PURGE="0" COMMENT="" />
    <EXPORT ORDINAL="1633" NAME="??C?$AutoCleanup@V?$AutoDelete@VCListenerSettings@@@@PAVCListenerSettings@@@@QAEPAVCListenerSettings@@XZ" PURGE="0" COMMENT="" />
    <EXPORT ORDINAL="1634" NAME="??C?$AutoCleanup@V?$AutoDelete@VCServiceWatcher@CServiceConfigCache@@@@PAVCServiceWatcher@CServiceConfigCache@@@@QAEPAVCServiceWatcher@CServiceConfigCache@@XZ" PURGE="0" COMMENT="" />
    <EXPORT ORDINAL="1635" NAME="??C?$AutoCleanup@V?$AutoDelete@VCShellUriSettings@@@@PAVCShellUriSettings@@@@QAEPAVCShellUriSettings@@XZ" PURGE="0" COMMENT="" />
    <EXPORT ORDINAL="1636" NAME="??C?$AutoCleanup@V?$AutoDelete@VCWSManEPR@@@@PAVCWSManEPR@@@@QAEPAVCWSManEPR@@XZ" PURGE="0" COMMENT="" />
    <EXPORT ORDINAL="1637" NAME="??C?$AutoCleanup@V?$AutoDelete@VCWSManResource@@@@PAVCWSManResource@@@@QAEPAVCWSManResource@@XZ" PURGE="0" COMMENT="" />
    <EXPORT ORDINAL="1638" NAME="??C?$AutoCleanup@V?$AutoDelete@VCertHash@@@@PAVCertHash@@@@QAEPAVCertHash@@XZ" PURGE="0" COMMENT="" />
    <EXPORT ORDINAL="1639" NAME="??C?$AutoCleanup@V?$AutoDelete@VConfigUpdate@@@@PAVConfigUpdate@@@@QAEPAVConfigUpdate@@XZ" PURGE="0" COMMENT="" />
    <EXPORT ORDINAL="1640" NAME="??C?$AutoCleanup@V?$AutoDelete@VEnumSinkEx@@@@PAVEnumSinkEx@@@@QAEPAVEnumSinkEx@@XZ" PURGE="0" COMMENT="" />
    <EXPORT ORDINAL="1641" NAME="??C?$AutoCleanup@V?$AutoDelete@VEnumSinkEx@@@@PAVEnumSinkEx@@@@QBEQAVEnumSinkEx@@XZ" PURGE="0" COMMENT="" />
    <EXPORT ORDINAL="1642" NAME="??C?$AutoCleanup@V?$AutoDelete@VExpiredOperationIdRecord@@@@PAVExpiredOperationIdRecord@@@@QAEPAVExpiredOperationIdRecord@@XZ" PURGE="0" COMMENT="" />
    <EXPORT ORDINAL="1643" NAME="??C?$AutoCleanup@V?$AutoDelete@VGPApiManager@@@@PAVGPApiManager@@@@QAEPAVGPApiManager@@XZ" PURGE="0" COMMENT="" />
    <EXPORT ORDINAL="1644" NAME="??C?$AutoCleanup@V?$AutoDelete@VGeneralSinkEx@@@@PAVGeneralSinkEx@@@@QAEPAVGeneralSinkEx@@XZ" PURGE="0" COMMENT="" />
    <EXPORT ORDINAL="1645" NAME="??C?$AutoCleanup@V?$AutoDelete@VGeneralSinkEx@@@@PAVGeneralSinkEx@@@@QBEQAVGeneralSinkEx@@XZ" PURGE="0" COMMENT="" />
    <EXPORT ORDINAL="1646" NAME="??C?$AutoCleanup@V?$AutoDelete@VIChannelObserverFactory@@@@PAVIChannelObserverFactory@@@@QAEPAVIChannelObserverFactory@@XZ" PURGE="0" COMMENT="" />
    <EXPORT ORDINAL="1647" NAME="??C?$AutoCleanup@V?$AutoDelete@VIQueryDASHSMASHInterface@@@@PAVIQueryDASHSMASHInterface@@@@QAEPAVIQueryDASHSMASHInterface@@XZ" PURGE="0" COMMENT="" />
    <EXPORT ORDINAL="1648" NAME="??C?$AutoCleanup@V?$AutoDelete@VIQueryDASHSMASHInterface@@@@PAVIQueryDASHSMASHInterface@@@@QBEQAVIQueryDASHSMASHInterface@@XZ" PURGE="0" COMMENT="" />
    <EXPORT ORDINAL="1649" NAME="??C?$AutoCleanup@V?$AutoDelete@VISpecification@@@@PAVISpecification@@@@QAEPAVISpecification@@XZ" PURGE="0" COMMENT="" />
    <EXPORT ORDINAL="1650" NAME="??C?$AutoCleanup@V?$AutoDelete@VISpecification@@@@PAVISpecification@@@@QBEQAVISpecification@@XZ" PURGE="0" COMMENT="" />
    <EXPORT ORDINAL="1651" NAME="??C?$AutoCleanup@V?$AutoDelete@VMasterReceiveData@CListenerReceive@@@@PAVMasterReceiveData@CListenerReceive@@@@QAEPAVMasterReceiveData@CListenerReceive@@XZ" PURGE="0" COMMENT="" />
    <EXPORT ORDINAL="1652" NAME="??C?$AutoCleanup@V?$AutoDelete@VOptionValue@SessionOptions@Client@WSMan@@@@PAVOptionValue@SessionOptions@Client@WSMan@@@@QAEPAVOptionValue@SessionOptions@Client@WSMan@@XZ" PURGE="0" COMMENT="" />
    <EXPORT ORDINAL="1653" NAME="??C?$AutoCleanup@V?$AutoDelete@VPacketCreator@@@@PAVPacketCreator@@@@QAEPAVPacketCreator@@XZ" PURGE="0" COMMENT="" />
    <EXPORT ORDINAL="1654" NAME="??C?$AutoCleanup@V?$AutoDelete@VPacketParser@@@@PAVPacketParser@@@@QAEPAVPacketParser@@XZ" PURGE="0" COMMENT="" />
    <EXPORT ORDINAL="1655" NAME="??C?$AutoCleanup@V?$AutoDelete@VRunAsConfiguration@@@@PAVRunAsConfiguration@@@@QAEPAVRunAsConfiguration@@XZ" PURGE="0" COMMENT="" />
    <EXPORT ORDINAL="1656" NAME="??C?$AutoCleanup@V?$AutoDelete@VSafeBufferWrite@@@@PAVSafeBufferWrite@@@@QAEPAVSafeBufferWrite@@XZ" PURGE="0" COMMENT="" />
    <EXPORT ORDINAL="1657" NAME="??C?$AutoCleanup@V?$AutoDelete@VSecurityEntry@Catalog@@@@PAVSecurityEntry@Catalog@@@@QAEPAVSecurityEntry@Catalog@@XZ" PURGE="0" COMMENT="" />
    <EXPORT ORDINAL="1658" NAME="??C?$AutoCleanup@V?$AutoDelete@VSendPacketArgs@RobustConnectionBuffer@@@@PAVSendPacketArgs@RobustConnectionBuffer@@@@QAEPAVSendPacketArgs@RobustConnectionBuffer@@XZ" PURGE="0" COMMENT="" />
    <EXPORT ORDINAL="1659" NAME="??C?$AutoCleanup@V?$AutoDelete@VServiceSoapProcessor@@@@PAVServiceSoapProcessor@@@@QAEPAVServiceSoapProcessor@@XZ" PURGE="0" COMMENT="" />
    <EXPORT ORDINAL="1660" NAME="??C?$AutoCleanup@V?$AutoDelete@VSubscriptionEnumerator@@@@PAVSubscriptionEnumerator@@@@QAEPAVSubscriptionEnumerator@@XZ" PURGE="0" COMMENT="" />
    <EXPORT ORDINAL="1661" NAME="??C?$AutoCleanup@V?$AutoDelete@VTSTRBUFFER@@@@PAVTSTRBUFFER@@@@QAEPAVTSTRBUFFER@@XZ" PURGE="0" COMMENT="" />
    <EXPORT ORDINAL="1662" NAME="??C?$AutoCleanup@V?$AutoDelete@VTSTRBUFFER@@@@PAVTSTRBUFFER@@@@QBEQAVTSTRBUFFER@@XZ" PURGE="0" COMMENT="" />
    <EXPORT ORDINAL="1663" NAME="??C?$AutoCleanup@V?$AutoDelete@VUniqueStringOverflow@@@@PAVUniqueStringOverflow@@@@QAEPAVUniqueStringOverflow@@XZ" PURGE="0" COMMENT="" />
    <EXPORT ORDINAL="1664" NAME="??C?$AutoCleanup@V?$AutoDelete@VWSMANCONFIGTABLE_IDENTITY@@@@PAVWSMANCONFIGTABLE_IDENTITY@@@@QAEPAVWSMANCONFIGTABLE_IDENTITY@@XZ" PURGE="0" COMMENT="" />
    <EXPORT ORDINAL="1665" NAME="??C?$AutoCleanup@V?$AutoDelete@VWmiEnumContext@@@@PAVWmiEnumContext@@@@QAEPAVWmiEnumContext@@XZ" PURGE="0" COMMENT="" />
    <EXPORT ORDINAL="1666" NAME="??C?$AutoCleanup@V?$AutoDelete@VWmiEnumContext@@@@PAVWmiEnumContext@@@@QBEQAVWmiEnumContext@@XZ" PURGE="0" COMMENT="" />
    <EXPORT ORDINAL="1667" NAME="??C?$AutoCleanup@V?$AutoDelete@VXmlReader@@@@PAVXmlReader@@@@QAEPAVXmlReader@@XZ" PURGE="0" COMMENT="" />
    <EXPORT ORDINAL="1668" NAME="??C?$AutoCleanup@V?$AutoDeleteVector@E@@PAE@@QAEPAEXZ" PURGE="0" COMMENT="" />
    <EXPORT ORDINAL="1669" NAME="??C?$AutoCleanup@V?$AutoDeleteVector@E@@PAE@@QBEQAEXZ" PURGE="0" COMMENT="" />
    <EXPORT ORDINAL="1670" NAME="??C?$AutoCleanup@V?$AutoDeleteVector@G@@PAG@@QAEPAGXZ" PURGE="0" COMMENT="" />
    <EXPORT ORDINAL="1671" NAME="??C?$AutoCleanup@V?$AutoDeleteVector@G@@PAG@@QBEQAGXZ" PURGE="0" COMMENT="" />
    <EXPORT ORDINAL="1672" NAME="??C?$AutoCleanup@V?$AutoDeleteVector@PAG@@PAPAG@@QAEPAPAGXZ" PURGE="0" COMMENT="" />
    <EXPORT ORDINAL="1673" NAME="??C?$AutoCleanup@V?$AutoDeleteVector@PAG@@PAPAG@@QBEQAPAGXZ" PURGE="0" COMMENT="" />
    <EXPORT ORDINAL="1674" NAME="??C?$AutoCleanup@V?$AutoDeleteVector@PBG@@PAPBG@@QAEPAPBGXZ" PURGE="0" COMMENT="" />
    <EXPORT ORDINAL="1675" NAME="??C?$AutoCleanup@V?$AutoDeleteVector@PBG@@PAPBG@@QBEQAPBGXZ" PURGE="0" COMMENT="" />
    <EXPORT ORDINAL="1676" NAME="??C?$AutoCleanup@V?$AutoDeleteVector@U_WINRS_CREATE_SHELL_ENVIRONMENT_VARIABLE@@@@PAU_WINRS_CREATE_SHELL_ENVIRONMENT_VARIABLE@@@@QAEPAU_WINRS_CREATE_SHELL_ENVIRONMENT_VARIABLE@@XZ" PURGE="0" COMMENT="" />
    <EXPORT ORDINAL="1677" NAME="??C?$AutoCleanup@V?$AutoDeleteVector@U_WINRS_CREATE_SHELL_ENVIRONMENT_VARIABLE@@@@PAU_WINRS_CREATE_SHELL_ENVIRONMENT_VARIABLE@@@@QBEQAU_WINRS_CREATE_SHELL_ENVIRONMENT_VARIABLE@@XZ" PURGE="0" COMMENT="" />
    <EXPORT ORDINAL="1678" NAME="??C?$AutoCleanup@V?$AutoDeleteVector@U_WINRS_RUN_COMMAND_ARG@@@@PAU_WINRS_RUN_COMMAND_ARG@@@@QAEPAU_WINRS_RUN_COMMAND_ARG@@XZ" PURGE="0" COMMENT="" />
    <EXPORT ORDINAL="1679" NAME="??C?$AutoCleanup@V?$AutoDeleteVector@U_WINRS_RUN_COMMAND_ARG@@@@PAU_WINRS_RUN_COMMAND_ARG@@@@QBEQAU_WINRS_RUN_COMMAND_ARG@@XZ" PURGE="0" COMMENT="" />
    <EXPORT ORDINAL="1680" NAME="??C?$AutoCleanup@V?$AutoRelease@UIAppHostAdminManager@@@@PAUIAppHostAdminManager@@@@QAEPAUIAppHostAdminManager@@XZ" PURGE="0" COMMENT="" />
    <EXPORT ORDINAL="1681" NAME="??C?$AutoCleanup@V?$AutoRelease@UIAppHostChildElementCollection@@@@PAUIAppHostChildElementCollection@@@@QAEPAUIAppHostChildElementCollection@@XZ" PURGE="0" COMMENT="" />
    <EXPORT ORDINAL="1682" NAME="??C?$AutoCleanup@V?$AutoRelease@UIAppHostConfigException@@@@PAUIAppHostConfigException@@@@QAEPAUIAppHostConfigException@@XZ" PURGE="0" COMMENT="" />
    <EXPORT ORDINAL="1683" NAME="??C?$AutoCleanup@V?$AutoRelease@UIAppHostElementCollection@@@@PAUIAppHostElementCollection@@@@QAEPAUIAppHostElementCollection@@XZ" PURGE="0" COMMENT="" />
    <EXPORT ORDINAL="1684" NAME="??C?$AutoCleanup@V?$AutoRelease@UIAppHostProperty@@@@PAUIAppHostProperty@@@@QAEPAUIAppHostProperty@@XZ" PURGE="0" COMMENT="" />
    <EXPORT ORDINAL="1685" NAME="??C?$AutoCleanup@V?$AutoRelease@UIAppHostPropertyCollection@@@@PAUIAppHostPropertyCollection@@@@QAEPAUIAppHostPropertyCollection@@XZ" PURGE="0" COMMENT="" />
    <EXPORT ORDINAL="1686" NAME="??C?$AutoCleanup@V?$AutoRelease@UIClientSecurity@@@@PAUIClientSecurity@@@@QAEPAUIClientSecurity@@XZ" PURGE="0" COMMENT="" />
    <EXPORT ORDINAL="1687" NAME="??C?$AutoCleanup@V?$AutoRelease@UIClientSecurity@@@@PAUIClientSecurity@@@@QBEQAUIClientSecurity@@XZ" PURGE="0" COMMENT="" />
    <EXPORT ORDINAL="1688" NAME="??C?$AutoCleanup@V?$AutoRelease@UIEnumWbemClassObject@@@@PAUIEnumWbemClassObject@@@@QAEPAUIEnumWbemClassObject@@XZ" PURGE="0" COMMENT="" />
    <EXPORT ORDINAL="1689" NAME="??C?$AutoCleanup@V?$AutoRelease@UIEnumWbemClassObject@@@@PAUIEnumWbemClassObject@@@@QBEQAUIEnumWbemClassObject@@XZ" PURGE="0" COMMENT="" />
    <EXPORT ORDINAL="1690" NAME="??C?$AutoCleanup@V?$AutoRelease@UIErrorInfo@@@@PAUIErrorInfo@@@@QAEPAUIErrorInfo@@XZ" PURGE="0" COMMENT="" />
    <EXPORT ORDINAL="1691" NAME="??C?$AutoCleanup@V?$AutoRelease@UIErrorInfo@@@@PAUIErrorInfo@@@@QBEQAUIErrorInfo@@XZ" PURGE="0" COMMENT="" />
    <EXPORT ORDINAL="1692" NAME="??C?$AutoCleanup@V?$AutoRelease@UIUnknown@@@@PAUIUnknown@@@@QAEPAUIUnknown@@XZ" PURGE="0" COMMENT="" />
    <EXPORT ORDINAL="1693" NAME="??C?$AutoCleanup@V?$AutoRelease@UIUnknown@@@@PAUIUnknown@@@@QBEQAUIUnknown@@XZ" PURGE="0" COMMENT="" />
    <EXPORT ORDINAL="1694" NAME="??C?$AutoCleanup@V?$AutoRelease@UIWbemClassObject@@@@PAUIWbemClassObject@@@@QAEPAUIWbemClassObject@@XZ" PURGE="0" COMMENT="" />
    <EXPORT ORDINAL="1695" NAME="??C?$AutoCleanup@V?$AutoRelease@UIWbemClassObject@@@@PAUIWbemClassObject@@@@QBEQAUIWbemClassObject@@XZ" PURGE="0" COMMENT="" />
    <EXPORT ORDINAL="1696" NAME="??C?$AutoCleanup@V?$AutoRelease@UIWbemContext@@@@PAUIWbemContext@@@@QAEPAUIWbemContext@@XZ" PURGE="0" COMMENT="" />
    <EXPORT ORDINAL="1697" NAME="??C?$AutoCleanup@V?$AutoRelease@UIWbemContext@@@@PAUIWbemContext@@@@QBEQAUIWbemContext@@XZ" PURGE="0" COMMENT="" />
    <EXPORT ORDINAL="1698" NAME="??C?$AutoCleanup@V?$AutoRelease@UIWbemLocator@@@@PAUIWbemLocator@@@@QAEPAUIWbemLocator@@XZ" PURGE="0" COMMENT="" />
    <EXPORT ORDINAL="1699" NAME="??C?$AutoCleanup@V?$AutoRelease@UIWbemLocator@@@@PAUIWbemLocator@@@@QBEQAUIWbemLocator@@XZ" PURGE="0" COMMENT="" />
    <EXPORT ORDINAL="1700" NAME="??C?$AutoCleanup@V?$AutoRelease@UIWbemObjectTextSrc@@@@PAUIWbemObjectTextSrc@@@@QAEPAUIWbemObjectTextSrc@@XZ" PURGE="0" COMMENT="" />
    <EXPORT ORDINAL="1701" NAME="??C?$AutoCleanup@V?$AutoRelease@UIWbemObjectTextSrc@@@@PAUIWbemObjectTextSrc@@@@QBEQAUIWbemObjectTextSrc@@XZ" PURGE="0" COMMENT="" />
    <EXPORT ORDINAL="1702" NAME="??C?$AutoCleanup@V?$AutoRelease@UIWbemPath@@@@PAUIWbemPath@@@@QAEPAUIWbemPath@@XZ" PURGE="0" COMMENT="" />
    <EXPORT ORDINAL="1703" NAME="??C?$AutoCleanup@V?$AutoRelease@UIWbemPath@@@@PAUIWbemPath@@@@QBEQAUIWbemPath@@XZ" PURGE="0" COMMENT="" />
    <EXPORT ORDINAL="1704" NAME="??C?$AutoCleanup@V?$AutoRelease@UIWbemPathKeyList@@@@PAUIWbemPathKeyList@@@@QAEPAUIWbemPathKeyList@@XZ" PURGE="0" COMMENT="" />
    <EXPORT ORDINAL="1705" NAME="??C?$AutoCleanup@V?$AutoRelease@UIWbemPathKeyList@@@@PAUIWbemPathKeyList@@@@QBEQAUIWbemPathKeyList@@XZ" PURGE="0" COMMENT="" />
    <EXPORT ORDINAL="1706" NAME="??C?$AutoCleanup@V?$AutoRelease@UIWbemQualifierSet@@@@PAUIWbemQualifierSet@@@@QAEPAUIWbemQualifierSet@@XZ" PURGE="0" COMMENT="" />
    <EXPORT ORDINAL="1707" NAME="??C?$AutoCleanup@V?$AutoRelease@UIWbemQualifierSet@@@@PAUIWbemQualifierSet@@@@QBEQAUIWbemQualifierSet@@XZ" PURGE="0" COMMENT="" />
    <EXPORT ORDINAL="1708" NAME="??C?$AutoCleanup@V?$AutoRelease@UIWbemQuery@@@@PAUIWbemQuery@@@@QAEPAUIWbemQuery@@XZ" PURGE="0" COMMENT="" />
    <EXPORT ORDINAL="1709" NAME="??C?$AutoCleanup@V?$AutoRelease@UIWbemQuery@@@@PAUIWbemQuery@@@@QBEQAUIWbemQuery@@XZ" PURGE="0" COMMENT="" />
    <EXPORT ORDINAL="1710" NAME="??C?$AutoCleanup@V?$AutoRelease@UIWbemServices@@@@PAUIWbemServices@@@@QAEPAUIWbemServices@@XZ" PURGE="0" COMMENT="" />
    <EXPORT ORDINAL="1711" NAME="??C?$AutoCleanup@V?$AutoRelease@UIWbemServices@@@@PAUIWbemServices@@@@QBEQAUIWbemServices@@XZ" PURGE="0" COMMENT="" />
    <EXPORT ORDINAL="1712" NAME="??C?$AutoCleanup@V?$AutoRelease@VCBaseConfigCache@@@@PAVCBaseConfigCache@@@@QAEPAVCBaseConfigCache@@XZ" PURGE="0" COMMENT="" />
    <EXPORT ORDINAL="1713" NAME="??C?$AutoCleanup@V?$AutoRelease@VCClientConfigSettings@@@@PAVCClientConfigSettings@@@@QAEPAVCClientConfigSettings@@XZ" PURGE="0" COMMENT="" />
    <EXPORT ORDINAL="1714" NAME="??C?$AutoCleanup@V?$AutoRelease@VCConfigCacheMap@CBaseConfigCache@@@@PAVCConfigCacheMap@CBaseConfigCache@@@@QAEPAVCConfigCacheMap@CBaseConfigCache@@XZ" PURGE="0" COMMENT="" />
    <EXPORT ORDINAL="1715" NAME="??C?$AutoCleanup@V?$AutoRelease@VCConfigManager@@@@PAVCConfigManager@@@@QAEPAVCConfigManager@@XZ" PURGE="0" COMMENT="" />
    <EXPORT ORDINAL="1716" NAME="??C?$AutoCleanup@V?$AutoRelease@VCListenerReceive@@@@PAVCListenerReceive@@@@QAEPAVCListenerReceive@@XZ" PURGE="0" COMMENT="" />
    <EXPORT ORDINAL="1717" NAME="??C?$AutoCleanup@V?$AutoRelease@VCRemoteSession@@@@PAVCRemoteSession@@@@QAEPAVCRemoteSession@@XZ" PURGE="0" COMMENT="" />
    <EXPORT ORDINAL="1718" NAME="??C?$AutoCleanup@V?$AutoRelease@VCRemoteSession@@@@PAVCRemoteSession@@@@QBEQAVCRemoteSession@@XZ" PURGE="0" COMMENT="" />
    <EXPORT ORDINAL="1719" NAME="??C?$AutoCleanup@V?$AutoRelease@VCRequestContext@@@@PAVCRequestContext@@@@QAEPAVCRequestContext@@XZ" PURGE="0" COMMENT="" />
    <EXPORT ORDINAL="1720" NAME="??C?$AutoCleanup@V?$AutoRelease@VCServiceCommonConfigSettings@@@@PAVCServiceCommonConfigSettings@@@@QAEPAVCServiceCommonConfigSettings@@XZ" PURGE="0" COMMENT="" />
    <EXPORT ORDINAL="1721" NAME="??C?$AutoCleanup@V?$AutoRelease@VCServiceConfigCache@@@@PAVCServiceConfigCache@@@@QAEPAVCServiceConfigCache@@XZ" PURGE="0" COMMENT="" />
    <EXPORT ORDINAL="1722" NAME="??C?$AutoCleanup@V?$AutoRelease@VCServiceConfigSettings@@@@PAVCServiceConfigSettings@@@@QAEPAVCServiceConfigSettings@@XZ" PURGE="0" COMMENT="" />
    <EXPORT ORDINAL="1723" NAME="??C?$AutoCleanup@V?$AutoRelease@VCWSManEPR@@@@PAVCWSManEPR@@@@QAEPAVCWSManEPR@@XZ" PURGE="0" COMMENT="" />
    <EXPORT ORDINAL="1724" NAME="??C?$AutoCleanup@V?$AutoRelease@VCWSManEPR@@@@PAVCWSManEPR@@@@QBEQAVCWSManEPR@@XZ" PURGE="0" COMMENT="" />
    <EXPORT ORDINAL="1725" NAME="??C?$AutoCleanup@V?$AutoRelease@VCWSManGroupPolicyCache@@@@PAVCWSManGroupPolicyCache@@@@QAEPAVCWSManGroupPolicyCache@@XZ" PURGE="0" COMMENT="" />
    <EXPORT ORDINAL="1726" NAME="??C?$AutoCleanup@V?$AutoRelease@VCWSManGroupPolicyManager@@@@PAVCWSManGroupPolicyManager@@@@QAEPAVCWSManGroupPolicyManager@@XZ" PURGE="0" COMMENT="" />
    <EXPORT ORDINAL="1727" NAME="??C?$AutoCleanup@V?$AutoRelease@VCWSManObject@@@@PAVCWSManObject@@@@QAEPAVCWSManObject@@XZ" PURGE="0" COMMENT="" />
    <EXPORT ORDINAL="1728" NAME="??C?$AutoCleanup@V?$AutoRelease@VCWSManResource@@@@PAVCWSManResource@@@@QAEPAVCWSManResource@@XZ" PURGE="0" COMMENT="" />
    <EXPORT ORDINAL="1729" NAME="??C?$AutoCleanup@V?$AutoRelease@VCWinRSPluginConfigCache@@@@PAVCWinRSPluginConfigCache@@@@QAEPAVCWinRSPluginConfigCache@@XZ" PURGE="0" COMMENT="" />
    <EXPORT ORDINAL="1730" NAME="??C?$AutoCleanup@V?$AutoRelease@VCWinRSPluginConfigCache@@@@PAVCWinRSPluginConfigCache@@@@QBEQAVCWinRSPluginConfigCache@@XZ" PURGE="0" COMMENT="" />
    <EXPORT ORDINAL="1731" NAME="??C?$AutoCleanup@V?$AutoRelease@VCWinRSPluginConfigSettings@@@@PAVCWinRSPluginConfigSettings@@@@QAEPAVCWinRSPluginConfigSettings@@XZ" PURGE="0" COMMENT="" />
    <EXPORT ORDINAL="1732" NAME="??C?$AutoCleanup@V?$AutoRelease@VCommand@Client@WSMan@@@@PAVCommand@Client@WSMan@@@@QAEPAVCommand@Client@WSMan@@XZ" PURGE="0" COMMENT="" />
    <EXPORT ORDINAL="1733" NAME="??C?$AutoCleanup@V?$AutoRelease@VConfigNotification@@@@PAVConfigNotification@@@@QAEPAVConfigNotification@@XZ" PURGE="0" COMMENT="" />
    <EXPORT ORDINAL="1734" NAME="??C?$AutoCleanup@V?$AutoRelease@VConnectShellOperation@Client@WSMan@@@@PAVConnectShellOperation@Client@WSMan@@@@QAEPAVConnectShellOperation@Client@WSMan@@XZ" PURGE="0" COMMENT="" />
    <EXPORT ORDINAL="1735" NAME="??C?$AutoCleanup@V?$AutoRelease@VCreateShellOperation@Client@WSMan@@@@PAVCreateShellOperation@Client@WSMan@@@@QAEPAVCreateShellOperation@Client@WSMan@@XZ" PURGE="0" COMMENT="" />
    <EXPORT ORDINAL="1736" NAME="??C?$AutoCleanup@V?$AutoRelease@VDeleteShellOperation@Client@WSMan@@@@PAVDeleteShellOperation@Client@WSMan@@@@QAEPAVDeleteShellOperation@Client@WSMan@@XZ" PURGE="0" COMMENT="" />
    <EXPORT ORDINAL="1737" NAME="??C?$AutoCleanup@V?$AutoRelease@VDisconnectOperation@Client@WSMan@@@@PAVDisconnectOperation@Client@WSMan@@@@QAEPAVDisconnectOperation@Client@WSMan@@XZ" PURGE="0" COMMENT="" />
    <EXPORT ORDINAL="1738" NAME="??C?$AutoCleanup@V?$AutoRelease@VEnumSinkEx@@@@PAVEnumSinkEx@@@@QAEPAVEnumSinkEx@@XZ" PURGE="0" COMMENT="" />
    <EXPORT ORDINAL="1739" NAME="??C?$AutoCleanup@V?$AutoRelease@VEnumSinkEx@@@@PAVEnumSinkEx@@@@QBEQAVEnumSinkEx@@XZ" PURGE="0" COMMENT="" />
    <EXPORT ORDINAL="1740" NAME="??C?$AutoCleanup@V?$AutoRelease@VGeneralSinkEx@@@@PAVGeneralSinkEx@@@@QAEPAVGeneralSinkEx@@XZ" PURGE="0" COMMENT="" />
    <EXPORT ORDINAL="1741" NAME="??C?$AutoCleanup@V?$AutoRelease@VGeneralSinkEx@@@@PAVGeneralSinkEx@@@@QBEQAVGeneralSinkEx@@XZ" PURGE="0" COMMENT="" />
    <EXPORT ORDINAL="1742" NAME="??C?$AutoCleanup@V?$AutoRelease@VIPCSoapProcessor@@@@PAVIPCSoapProcessor@@@@QAEPAVIPCSoapProcessor@@XZ" PURGE="0" COMMENT="" />
    <EXPORT ORDINAL="1743" NAME="??C?$AutoCleanup@V?$AutoRelease@VIRequestContext@@@@PAVIRequestContext@@@@QAEPAVIRequestContext@@XZ" PURGE="0" COMMENT="" />
    <EXPORT ORDINAL="1744" NAME="??C?$AutoCleanup@V?$AutoRelease@VIRequestContext@@@@PAVIRequestContext@@@@QBEQAVIRequestContext@@XZ" PURGE="0" COMMENT="" />
    <EXPORT ORDINAL="1745" NAME="??C?$AutoCleanup@V?$AutoRelease@VInboundRequestDetails@@@@PAVInboundRequestDetails@@@@QAEPAVInboundRequestDetails@@XZ" PURGE="0" COMMENT="" />
    <EXPORT ORDINAL="1746" NAME="??C?$AutoCleanup@V?$AutoRelease@VInboundRequestDetails@@@@PAVInboundRequestDetails@@@@QBEQAVInboundRequestDetails@@XZ" PURGE="0" COMMENT="" />
    <EXPORT ORDINAL="1747" NAME="??C?$AutoCleanup@V?$AutoRelease@VReceiveOperation@Client@WSMan@@@@PAVReceiveOperation@Client@WSMan@@@@QAEPAVReceiveOperation@Client@WSMan@@XZ" PURGE="0" COMMENT="" />
    <EXPORT ORDINAL="1748" NAME="??C?$AutoCleanup@V?$AutoRelease@VReconnectOperation@Client@WSMan@@@@PAVReconnectOperation@Client@WSMan@@@@QAEPAVReconnectOperation@Client@WSMan@@XZ" PURGE="0" COMMENT="" />
    <EXPORT ORDINAL="1749" NAME="??C?$AutoCleanup@V?$AutoRelease@VSendOperation@Client@WSMan@@@@PAVSendOperation@Client@WSMan@@@@QAEPAVSendOperation@Client@WSMan@@XZ" PURGE="0" COMMENT="" />
    <EXPORT ORDINAL="1750" NAME="??C?$AutoCleanup@V?$AutoRelease@VShell@Client@WSMan@@@@PAVShell@Client@WSMan@@@@QAEPAVShell@Client@WSMan@@XZ" PURGE="0" COMMENT="" />
    <EXPORT ORDINAL="1751" NAME="??C?$AutoCleanup@V?$AutoRelease@VShell@Client@WSMan@@@@PAVShell@Client@WSMan@@@@QBEQAVShell@Client@WSMan@@XZ" PURGE="0" COMMENT="" />
    <EXPORT ORDINAL="1752" NAME="??C?$AutoCleanup@V?$AutoRelease@VSignalOperation@Client@WSMan@@@@PAVSignalOperation@Client@WSMan@@@@QAEPAVSignalOperation@Client@WSMan@@XZ" PURGE="0" COMMENT="" />
    <EXPORT ORDINAL="1753" NAME="??C?$AutoCleanup@V?$AutoRelease@VUserRecord@@@@PAVUserRecord@@@@QAEPAVUserRecord@@XZ" PURGE="0" COMMENT="" />
    <EXPORT ORDINAL="1754" NAME="??C?$AutoCleanup@V?$AutoRelease@VWSManHttpListener@@@@PAVWSManHttpListener@@@@QAEPAVWSManHttpListener@@XZ" PURGE="0" COMMENT="" />
    <EXPORT ORDINAL="1755" NAME="??C?$AutoCleanup@VAutoBstrNoAlloc@@PAG@@QAEPAGXZ" PURGE="0" COMMENT="" />
    <EXPORT ORDINAL="1756" NAME="??C?$AutoCleanup@VAutoBstrNoAlloc@@PAG@@QBEQAGXZ" PURGE="0" COMMENT="" />
    <EXPORT ORDINAL="1757" NAME="??C?$AutoCleanup@VAutoChainContext@@PBU_CERT_CHAIN_CONTEXT@@@@QAEPBU_CERT_CHAIN_CONTEXT@@XZ" PURGE="0" COMMENT="" />
    <EXPORT ORDINAL="1758" NAME="??C?$AutoCleanup@VAutoImpersonateUser@@PAX@@QAEPAXXZ" PURGE="0" COMMENT="" />
    <EXPORT ORDINAL="1759" NAME="??C?$AutoCleanup@VAutoImpersonateUser@@PAX@@QBEQAXXZ" PURGE="0" COMMENT="" />
    <EXPORT ORDINAL="1760" NAME="??C?$AutoCleanup@VAutoMIClass@@PAU_MI_Class@@@@QAEPAU_MI_Class@@XZ" PURGE="0" COMMENT="" />
    <EXPORT ORDINAL="1761" NAME="??C?$SafeMap_Iterator@VStringKeyStore@@PAVExpiredOperationIdRecord@@@@QBEAAPAVExpiredOperationIdRecord@@XZ" PURGE="0" COMMENT="" />
    <EXPORT ORDINAL="1762" NAME="??C?$SafeSet_Iterator@PAVCListenerOperation@@@@QBEABQAVCListenerOperation@@XZ" PURGE="0" COMMENT="" />
    <EXPORT ORDINAL="1763" NAME="??D?$SafeMap_Iterator@VCertThumbprintKey@@VCertThumbprintMappedSet@CServiceConfigSettings@@@@QBEAAVCertThumbprintMappedSet@CServiceConfigSettings@@XZ" PURGE="0" COMMENT="" />
    <EXPORT ORDINAL="1764" NAME="??D?$SafeMap_Iterator@VKey@Locale@@K@@QBEAAKXZ" PURGE="0" COMMENT="" />
    <EXPORT ORDINAL="1765" NAME="??D?$SafeMap_Iterator@VStringKeyStore@@PAVExpiredOperationIdRecord@@@@QBEAAPAVExpiredOperationIdRecord@@XZ" PURGE="0" COMMENT="" />
    <EXPORT ORDINAL="1766" NAME="??D?$SafeMap_Iterator@W4WSManSessionOption@@PAVOptionValue@SessionOptions@Client@WSMan@@@@QBEAAPAVOptionValue@SessionOptions@Client@WSMan@@XZ" PURGE="0" COMMENT="" />
    <EXPORT ORDINAL="1767" NAME="??D?$SafeSet_Iterator@PAVCCertMapping@@@@QBEABQAVCCertMapping@@XZ" PURGE="0" COMMENT="" />
    <EXPORT ORDINAL="1768" NAME="??D?$SafeSet_Iterator@PAVCListenerOperation@@@@QBEABQAVCListenerOperation@@XZ" PURGE="0" COMMENT="" />
    <EXPORT ORDINAL="1769" NAME="??D?$SafeSet_Iterator@PAVCShellUriSettings@@@@QBEABQAVCShellUriSettings@@XZ" PURGE="0" COMMENT="" />
    <EXPORT ORDINAL="1770" NAME="??E?$SafeMap_Iterator@PAVCCertMapping@@UEmpty@@@@QAEXH@Z" PURGE="4" COMMENT="" />
    <EXPORT ORDINAL="1771" NAME="??E?$SafeMap_Iterator@PAVCListenerOperation@@UEmpty@@@@QAEXH@Z" PURGE="4" COMMENT="" />
    <EXPORT ORDINAL="1772" NAME="??E?$SafeMap_Iterator@PAVCShellUriSettings@@UEmpty@@@@QAEXH@Z" PURGE="4" COMMENT="" />
    <EXPORT ORDINAL="1773" NAME="??E?$SafeMap_Iterator@VCertThumbprintKey@@VCertThumbprintMappedSet@CServiceConfigSettings@@@@QAEXH@Z" PURGE="4" COMMENT="" />
    <EXPORT ORDINAL="1774" NAME="??E?$SafeMap_Iterator@VStringKeyCI@@K@@QAEXH@Z" PURGE="4" COMMENT="" />
    <EXPORT ORDINAL="1775" NAME="??E?$SafeMap_Iterator@VStringKeyCI@@UUSER_CONTEXT_INFO@WSManHttpListener@@@@QAEXH@Z" PURGE="4" COMMENT="" />
    <EXPORT ORDINAL="1776" NAME="??E?$SafeMap_Iterator@VStringKeyStore@@PAVExpiredOperationIdRecord@@@@QAEXH@Z" PURGE="4" COMMENT="" />
    <EXPORT ORDINAL="1777" NAME="??E?$SafeMap_Iterator@W4WSManSessionOption@@PAVOptionValue@SessionOptions@Client@WSMan@@@@QAEXH@Z" PURGE="4" COMMENT="" />
    <EXPORT ORDINAL="1778" NAME="??_7?$SafeMap@PAVCCertMapping@@UEmpty@@V?$SafeSet_Iterator@PAVCCertMapping@@@@@@6B@" PURGE="-1" COMMENT="" />
    <EXPORT ORDINAL="1779" NAME="??_7?$SafeMap@PAVCListenerOperation@@UEmpty@@V?$SafeSet_Iterator@PAVCListenerOperation@@@@@@6B@" PURGE="-1" COMMENT="" />
    <EXPORT ORDINAL="1780" NAME="??_7?$SafeMap@PAVCShellUriSettings@@UEmpty@@V?$SafeSet_Iterator@PAVCShellUriSettings@@@@@@6B@" PURGE="-1" COMMENT="" />
    <EXPORT ORDINAL="1781" NAME="??_7?$SafeMap@PAVCollector@@UEmpty@@V?$SafeSet_Iterator@PAVCollector@@@@@@6B@" PURGE="-1" COMMENT="" />
    <EXPORT ORDINAL="1782" NAME="??_7?$SafeMap@PAVHostOperation@@UEmpty@@V?$SafeSet_Iterator@PAVHostOperation@@@@@@6B@" PURGE="-1" COMMENT="" />
    <EXPORT ORDINAL="1783" NAME="??_7?$SafeMap@PAVIOperation@@UEmpty@@V?$SafeSet_Iterator@PAVIOperation@@@@@@6B@" PURGE="0" COMMENT="" />
    <EXPORT ORDINAL="1784" NAME="??_7?$SafeMap@PAVListenerSourceSubscription@@UEmpty@@V?$SafeSet_Iterator@PAVListenerSourceSubscription@@@@@@6B@" PURGE="-1" COMMENT="" />
    <EXPORT ORDINAL="1785" NAME="??_7?$SafeMap@PAVPushSubscription@@UEmpty@@V?$SafeSet_Iterator@PAVPushSubscription@@@@@@6B@" PURGE="-1" COMMENT="" />
    <EXPORT ORDINAL="1786" NAME="??_7?$SafeMap@PAXUEmpty@@V?$SafeSet_Iterator@PAX@@@@6B@" PURGE="-1" COMMENT="" />
    <EXPORT ORDINAL="1787" NAME="??_7?$SafeMap@UPluginKey@@KV?$SafeMap_Iterator@UPluginKey@@K@@@@6B@" PURGE="-1" COMMENT="" />
    <EXPORT ORDINAL="1788" NAME="??_7?$SafeMap@UUserKey@@PAVBlockedRecord@@V?$SafeMap_Iterator@UUserKey@@PAVBlockedRecord@@@@@@6B@" PURGE="-1" COMMENT="" />
    <EXPORT ORDINAL="1789" NAME="??_7?$SafeMap@VCertThumbprintKey@@VCertThumbprintMappedSet@CServiceConfigSettings@@V?$SafeMap_Iterator@VCertThumbprintKey@@VCertThumbprintMappedSet@CServiceConfigSettings@@@@@@6B@" PURGE="-1" COMMENT="" />
    <EXPORT ORDINAL="1790" NAME="??_7?$SafeMap@VKey@Locale@@KV?$SafeMap_Iterator@VKey@Locale@@K@@@@6B@" PURGE="-1" COMMENT="" />
    <EXPORT ORDINAL="1791" NAME="??_7?$SafeMap@VStringKeyCI@@KV?$SafeMap_Iterator@VStringKeyCI@@K@@@@6B@" PURGE="-1" COMMENT="" />
    <EXPORT ORDINAL="1792" NAME="??_7?$SafeMap@VStringKeyCI@@UEmpty@@V?$SafeSet_Iterator@VStringKeyCI@@@@@@6B@" PURGE="-1" COMMENT="" />
    <EXPORT ORDINAL="1793" NAME="??_7?$SafeMap@VStringKeyCI@@UUSER_CONTEXT_INFO@WSManHttpListener@@V?$SafeMap_Iterator@VStringKeyCI@@UUSER_CONTEXT_INFO@WSManHttpListener@@@@@@6B@" PURGE="-1" COMMENT="" />
    <EXPORT ORDINAL="1794" NAME="??_7?$SafeMap@VStringKeyStore@@PAVExpiredOperationIdRecord@@V?$SafeMap_Iterator@VStringKeyStore@@PAVExpiredOperationIdRecord@@@@@@6B@" PURGE="-1" COMMENT="" />
    <EXPORT ORDINAL="1795" NAME="??_7?$SafeMap@VStringKeyStore@@PAVServerFullDuplexChannel@@V?$SafeMap_Iterator@VStringKeyStore@@PAVServerFullDuplexChannel@@@@@@6B@" PURGE="-1" COMMENT="" />
    <EXPORT ORDINAL="1796" NAME="??_7?$SafeMap@W4WSManSessionOption@@PAVOptionValue@SessionOptions@Client@WSMan@@V?$SafeMap_Iterator@W4WSManSessionOption@@PAVOptionValue@SessionOptions@Client@WSMan@@@@@@6B@" PURGE="-1" COMMENT="" />
    <EXPORT ORDINAL="1797" NAME="??_7?$SafeMap@_KPAVSendPacketArgs@RobustConnectionBuffer@@V?$SafeMap_Iterator@_KPAVSendPacketArgs@RobustConnectionBuffer@@@@@@6B@" PURGE="-1" COMMENT="" />
    <EXPORT ORDINAL="1798" NAME="??_7?$SafeSet@PAVCCertMapping@@@@6B@" PURGE="-1" COMMENT="" />
    <EXPORT ORDINAL="1799" NAME="??_7?$SafeSet@PAVCListenerOperation@@@@6B@" PURGE="-1" COMMENT="" />
    <EXPORT ORDINAL="1800" NAME="??_7?$SafeSet@PAVCShellUriSettings@@@@6B@" PURGE="-1" COMMENT="" />
    <EXPORT ORDINAL="1801" NAME="??_7?$SafeSet@PAX@@6B@" PURGE="-1" COMMENT="" />
    <EXPORT ORDINAL="1802" NAME="??_7BufferFormatter@@6B@" PURGE="-1" COMMENT="" />
    <EXPORT ORDINAL="1803" NAME="??_7CBaseConfigCache@@6BIConfigChangeObserver@@@" PURGE="-1" COMMENT="" />
    <EXPORT ORDINAL="1804" NAME="??_7CBaseConfigCache@@6BILifeTimeMgmt@@@" PURGE="-1" COMMENT="" />
    <EXPORT ORDINAL="1805" NAME="??_7CClientConfigCache@@6BIConfigChangeObserver@@@" PURGE="-1" COMMENT="" />
    <EXPORT ORDINAL="1806" NAME="??_7CClientConfigCache@@6BILifeTimeMgmt@@@" PURGE="-1" COMMENT="" />
    <EXPORT ORDINAL="1807" NAME="??_7CConfigManager@@6B@" PURGE="-1" COMMENT="" />
    <EXPORT ORDINAL="1808" NAME="??_7CErrorContext@@6B@" PURGE="0" COMMENT="" />
    <EXPORT ORDINAL="1809" NAME="??_7CRequestContext@@6BCErrorContext@@@" PURGE="-1" COMMENT="" />
    <EXPORT ORDINAL="1810" NAME="??_7CRequestContext@@6BEtwCorrelationHelper@@@" PURGE="-1" COMMENT="" />
    <EXPORT ORDINAL="1811" NAME="??_7CServiceConfigCache@@6BIConfigChangeObserver@@@" PURGE="-1" COMMENT="" />
    <EXPORT ORDINAL="1812" NAME="??_7CServiceConfigCache@@6BILifeTimeMgmt@@@" PURGE="-1" COMMENT="" />
    <EXPORT ORDINAL="1813" NAME="??_7CWSManEPR@@6B@" PURGE="-1" COMMENT="" />
    <EXPORT ORDINAL="1814" NAME="??_7CWSManGroupPolicyManager@@6B@" PURGE="-1" COMMENT="" />
    <EXPORT ORDINAL="1815" NAME="??_7CWSManResource@@6B@" PURGE="-1" COMMENT="" />
    <EXPORT ORDINAL="1816" NAME="??_7CWSManResourceNoResourceUri@@6B@" PURGE="-1" COMMENT="" />
    <EXPORT ORDINAL="1817" NAME="??_7CWSManSecurityUI@@6B@" PURGE="-1" COMMENT="" />
    <EXPORT ORDINAL="1818" NAME="??_7CWinRSPluginConfigCache@@6BIConfigChangeObserver@@@" PURGE="-1" COMMENT="" />
    <EXPORT ORDINAL="1819" NAME="??_7CWinRSPluginConfigCache@@6BILifeTimeMgmt@@@" PURGE="-1" COMMENT="" />
    <EXPORT ORDINAL="1820" NAME="??_7CircularBufferFormatter@@6B@" PURGE="-1" COMMENT="" />
    <EXPORT ORDINAL="1821" NAME="??_7EtwCorrelationHelper@@6B@" PURGE="-1" COMMENT="" />
    <EXPORT ORDINAL="1822" NAME="??_7IConfigChangeObserver@@6B@" PURGE="-1" COMMENT="" />
    <EXPORT ORDINAL="1823" NAME="??_7ILifeTimeMgmt@@6B@" PURGE="-1" COMMENT="" />
    <EXPORT ORDINAL="1824" NAME="??_7IRequestContext@@6B@" PURGE="-1" COMMENT="" />
    <EXPORT ORDINAL="1825" NAME="??_7IWSManGroupPolicyObserver@@6B@" PURGE="-1" COMMENT="" />
    <EXPORT ORDINAL="1826" NAME="??_7IWSManGroupPolicyPublisher@@6B@" PURGE="-1" COMMENT="" />
    <EXPORT ORDINAL="1827" NAME="??_7PacketParser@@6B@" PURGE="-1" COMMENT="" />
    <EXPORT ORDINAL="1828" NAME="??_7UserAuthzRecord@@6B@" PURGE="-1" COMMENT="" />
    <EXPORT ORDINAL="1829" NAME="??_7UserRecord@@6B@" PURGE="-1" COMMENT="" />
    <EXPORT ORDINAL="1830" NAME="??_FCErrorContext@@QAEXXZ" PURGE="0" COMMENT="" />
    <EXPORT ORDINAL="1831" NAME="??_FRBUFFER@@QAEXXZ" PURGE="0" COMMENT="" />
    <EXPORT ORDINAL="1832" NAME="?Acquire@?$SafeMap@PAVCCertMapping@@UEmpty@@V?$SafeMap_Iterator@PAVCCertMapping@@UEmpty@@@@@@UBEXXZ" PURGE="0" COMMENT="" />
    <EXPORT ORDINAL="1833" NAME="?Acquire@?$SafeMap@PAVCCertMapping@@UEmpty@@V?$SafeSet_Iterator@PAVCCertMapping@@@@@@UBEXXZ" PURGE="0" COMMENT="" />
    <EXPORT ORDINAL="1834" NAME="?Acquire@?$SafeMap@PAVCListenerConnect@@PAV1@V?$SafeMap_Iterator@PAVCListenerConnect@@PAV1@@@@@UBEXXZ" PURGE="0" COMMENT="" />
    <EXPORT ORDINAL="1835" NAME="?Acquire@?$SafeMap@PAVCListenerOperation@@UEmpty@@V?$SafeMap_Iterator@PAVCListenerOperation@@UEmpty@@@@@@UBEXXZ" PURGE="0" COMMENT="" />
    <EXPORT ORDINAL="1836" NAME="?Acquire@?$SafeMap@PAVCListenerOperation@@UEmpty@@V?$SafeSet_Iterator@PAVCListenerOperation@@@@@@UBEXXZ" PURGE="0" COMMENT="" />
    <EXPORT ORDINAL="1837" NAME="?Acquire@?$SafeMap@PAVCListenerReceive@@PAV1@V?$SafeMap_Iterator@PAVCListenerReceive@@PAV1@@@@@UBEXXZ" PURGE="0" COMMENT="" />
    <EXPORT ORDINAL="1838" NAME="?Acquire@?$SafeMap@PAVCListenerSend@@PAV1@V?$SafeMap_Iterator@PAVCListenerSend@@PAV1@@@@@UBEXXZ" PURGE="0" COMMENT="" />
    <EXPORT ORDINAL="1839" NAME="?Acquire@?$SafeMap@PAVCListenerSignal@@PAV1@V?$SafeMap_Iterator@PAVCListenerSignal@@PAV1@@@@@UBEXXZ" PURGE="0" COMMENT="" />
    <EXPORT ORDINAL="1840" NAME="?Acquire@?$SafeMap@PAVCShellUriSettings@@UEmpty@@V?$SafeSet_Iterator@PAVCShellUriSettings@@@@@@UBEXXZ" PURGE="0" COMMENT="" />
    <EXPORT ORDINAL="1841" NAME="?Acquire@?$SafeMap@PAVCollector@@UEmpty@@V?$SafeMap_Iterator@PAVCollector@@UEmpty@@@@@@UBEXXZ" PURGE="0" COMMENT="" />
    <EXPORT ORDINAL="1842" NAME="?Acquire@?$SafeMap@PAVCollector@@UEmpty@@V?$SafeSet_Iterator@PAVCollector@@@@@@UBEXXZ" PURGE="0" COMMENT="" />
    <EXPORT ORDINAL="1843" NAME="?Acquire@?$SafeMap@PAVHostOperation@@UEmpty@@V?$SafeMap_Iterator@PAVHostOperation@@UEmpty@@@@@@UBEXXZ" PURGE="0" COMMENT="" />
    <EXPORT ORDINAL="1844" NAME="?Acquire@?$SafeMap@PAVHostOperation@@UEmpty@@V?$SafeSet_Iterator@PAVHostOperation@@@@@@UBEXXZ" PURGE="0" COMMENT="" />
    <EXPORT ORDINAL="1845" NAME="?Acquire@?$SafeMap@PAVIOperation@@UEmpty@@V?$SafeMap_Iterator@PAVIOperation@@UEmpty@@@@@@UBEXXZ" PURGE="0" COMMENT="" />
    <EXPORT ORDINAL="1846" NAME="?Acquire@?$SafeMap@PAVIOperation@@UEmpty@@V?$SafeSet_Iterator@PAVIOperation@@@@@@UBEXXZ" PURGE="0" COMMENT="" />
    <EXPORT ORDINAL="1847" NAME="?Acquire@?$SafeMap@PAVListenerSourceSubscription@@UEmpty@@V?$SafeMap_Iterator@PAVListenerSourceSubscription@@UEmpty@@@@@@UBEXXZ" PURGE="0" COMMENT="" />
    <EXPORT ORDINAL="1848" NAME="?Acquire@?$SafeMap@PAVListenerSourceSubscription@@UEmpty@@V?$SafeSet_Iterator@PAVListenerSourceSubscription@@@@@@UBEXXZ" PURGE="0" COMMENT="" />
    <EXPORT ORDINAL="1849" NAME="?Acquire@?$SafeMap@PAVPushSubscription@@UEmpty@@V?$SafeMap_Iterator@PAVPushSubscription@@UEmpty@@@@@@UBEXXZ" PURGE="0" COMMENT="" />
    <EXPORT ORDINAL="1850" NAME="?Acquire@?$SafeMap@PAVPushSubscription@@UEmpty@@V?$SafeSet_Iterator@PAVPushSubscription@@@@@@UBEXXZ" PURGE="0" COMMENT="" />
    <EXPORT ORDINAL="1851" NAME="?Acquire@?$SafeMap@PAXUEmpty@@V?$SafeSet_Iterator@PAX@@@@UBEXXZ" PURGE="0" COMMENT="" />
    <EXPORT ORDINAL="1852" NAME="?Acquire@?$SafeMap@UPluginKey@@KV?$SafeMap_Iterator@UPluginKey@@K@@@@UBEXXZ" PURGE="0" COMMENT="" />
    <EXPORT ORDINAL="1853" NAME="?Acquire@?$SafeMap@UUserKey@@PAVBlockedRecord@@V?$SafeMap_Iterator@UUserKey@@PAVBlockedRecord@@@@@@UBEXXZ" PURGE="0" COMMENT="" />
    <EXPORT ORDINAL="1854" NAME="?Acquire@?$SafeMap@VCertThumbprintKey@@VCertThumbprintMappedSet@CServiceConfigSettings@@V?$SafeMap_Iterator@VCertThumbprintKey@@VCertThumbprintMappedSet@CServiceConfigSettings@@@@@@UBEXXZ" PURGE="0" COMMENT="" />
    <EXPORT ORDINAL="1855" NAME="?Acquire@?$SafeMap@VGuidKey@@PAVCListenerCommand@@V?$SafeMap_Iterator@VGuidKey@@PAVCListenerCommand@@@@@@UBEXXZ" PURGE="0" COMMENT="" />
    <EXPORT ORDINAL="1856" NAME="?Acquire@?$SafeMap@VKey@CWmiPtrCache@@VMapping@2@V?$SafeMap_Iterator@VKey@CWmiPtrCache@@VMapping@2@@@@@UBEXXZ" PURGE="0" COMMENT="" />
    <EXPORT ORDINAL="1857" NAME="?Acquire@?$SafeMap@VKey@Locale@@KV?$SafeMap_Iterator@VKey@Locale@@K@@@@UBEXXZ" PURGE="0" COMMENT="" />
    <EXPORT ORDINAL="1858" NAME="?Acquire@?$SafeMap@VStringKey@@PAVListenerEvents@@V?$SafeMap_Iterator@VStringKey@@PAVListenerEvents@@@@@@UBEXXZ" PURGE="0" COMMENT="" />
    <EXPORT ORDINAL="1859" NAME="?Acquire@?$SafeMap@VStringKey@@PAVListenerSourceSubscription@@V?$SafeMap_Iterator@VStringKey@@PAVListenerSourceSubscription@@@@@@UBEXXZ" PURGE="0" COMMENT="" />
    <EXPORT ORDINAL="1860" NAME="?Acquire@?$SafeMap@VStringKey@@UOption@WinRM_OperationOptions@@V?$SafeMap_Iterator@VStringKey@@UOption@WinRM_OperationOptions@@@@@@UBEXXZ" PURGE="0" COMMENT="" />
    <EXPORT ORDINAL="1861" NAME="?Acquire@?$SafeMap@VStringKeyCI@@KV?$SafeMap_Iterator@VStringKeyCI@@K@@@@UBEXXZ" PURGE="0" COMMENT="" />
    <EXPORT ORDINAL="1862" NAME="?Acquire@?$SafeMap@VStringKeyCI@@PAVIISEndpoint@@V?$SafeMap_Iterator@VStringKeyCI@@PAVIISEndpoint@@@@@@UBEXXZ" PURGE="0" COMMENT="" />
    <EXPORT ORDINAL="1863" NAME="?Acquire@?$SafeMap@VStringKeyCI@@UEmpty@@V?$SafeMap_Iterator@VStringKeyCI@@UEmpty@@@@@@UBEXXZ" PURGE="0" COMMENT="" />
    <EXPORT ORDINAL="1864" NAME="?Acquire@?$SafeMap@VStringKeyCI@@UEmpty@@V?$SafeSet_Iterator@VStringKeyCI@@@@@@UBEXXZ" PURGE="0" COMMENT="" />
    <EXPORT ORDINAL="1865" NAME="?Acquire@?$SafeMap@VStringKeyCI@@UUSER_CONTEXT_INFO@WSManHttpListener@@V?$SafeMap_Iterator@VStringKeyCI@@UUSER_CONTEXT_INFO@WSManHttpListener@@@@@@UBEXXZ" PURGE="0" COMMENT="" />
    <EXPORT ORDINAL="1866" NAME="?Acquire@?$SafeMap@VStringKeyStore@@PAVExpiredOperationIdRecord@@V?$SafeMap_Iterator@VStringKeyStore@@PAVExpiredOperationIdRecord@@@@@@UBEXXZ" PURGE="0" COMMENT="" />
    <EXPORT ORDINAL="1867" NAME="?Acquire@?$SafeMap@VStringKeyStore@@PAVServerFullDuplexChannel@@V?$SafeMap_Iterator@VStringKeyStore@@PAVServerFullDuplexChannel@@@@@@UBEXXZ" PURGE="0" COMMENT="" />
    <EXPORT ORDINAL="1868" NAME="?Acquire@?$SafeMap@VTokenCacheKey@ServiceSoapProcessor@@VTokenCacheMapping@2@V?$SafeMap_Iterator@VTokenCacheKey@ServiceSoapProcessor@@VTokenCacheMapping@2@@@@@UBEXXZ" PURGE="0" COMMENT="" />
    <EXPORT ORDINAL="1869" NAME="?Acquire@?$SafeMap@W4WSManSessionOption@@PAVOptionValue@SessionOptions@Client@WSMan@@V?$SafeMap_Iterator@W4WSManSessionOption@@PAVOptionValue@SessionOptions@Client@WSMan@@@@@@UBEXXZ" PURGE="0" COMMENT="" />
    <EXPORT ORDINAL="1870" NAME="?Acquire@?$SafeMap@_KPAVSendPacketArgs@RobustConnectionBuffer@@V?$SafeMap_Iterator@_KPAVSendPacketArgs@RobustConnectionBuffer@@@@@@UBEXXZ" PURGE="0" COMMENT="" />
    <EXPORT ORDINAL="1871" NAME="?Acquire@?$SafeMap_Lock@PAVCCertMapping@@UEmpty@@V?$SafeMap_Iterator@PAVCCertMapping@@UEmpty@@@@@@QAEXXZ" PURGE="0" COMMENT="" />
    <EXPORT ORDINAL="1872" NAME="?Acquire@?$SafeMap_Lock@PAVCCertMapping@@UEmpty@@V?$SafeSet_Iterator@PAVCCertMapping@@@@@@QAEXXZ" PURGE="0" COMMENT="" />
    <EXPORT ORDINAL="1873" NAME="?Acquire@?$SafeMap_Lock@PAVCListenerOperation@@UEmpty@@V?$SafeMap_Iterator@PAVCListenerOperation@@UEmpty@@@@@@QAEXXZ" PURGE="0" COMMENT="" />
    <EXPORT ORDINAL="1874" NAME="?Acquire@?$SafeMap_Lock@PAVCListenerOperation@@UEmpty@@V?$SafeSet_Iterator@PAVCListenerOperation@@@@@@QAEXXZ" PURGE="0" COMMENT="" />
    <EXPORT ORDINAL="1875" NAME="?Acquire@?$SafeMap_Lock@PAVCShellUriSettings@@UEmpty@@V?$SafeMap_Iterator@PAVCShellUriSettings@@UEmpty@@@@@@QAEXXZ" PURGE="0" COMMENT="" />
    <EXPORT ORDINAL="1876" NAME="?Acquire@?$SafeMap_Lock@PAVCShellUriSettings@@UEmpty@@V?$SafeSet_Iterator@PAVCShellUriSettings@@@@@@QAEXXZ" PURGE="0" COMMENT="" />
    <EXPORT ORDINAL="1877" NAME="?Acquire@?$SafeMap_Lock@PAXUEmpty@@V?$SafeMap_Iterator@PAXUEmpty@@@@@@QAEXXZ" PURGE="0" COMMENT="" />
    <EXPORT ORDINAL="1878" NAME="?Acquire@?$SafeMap_Lock@PAXUEmpty@@V?$SafeSet_Iterator@PAX@@@@QAEXXZ" PURGE="0" COMMENT="" />
    <EXPORT ORDINAL="1879" NAME="?Acquire@?$SafeMap_Lock@UPluginKey@@KV?$SafeMap_Iterator@UPluginKey@@K@@@@QAEXXZ" PURGE="0" COMMENT="" />
    <EXPORT ORDINAL="1880" NAME="?Acquire@?$SafeMap_Lock@UUserKey@@PAVBlockedRecord@@V?$SafeMap_Iterator@UUserKey@@PAVBlockedRecord@@@@@@QAEXXZ" PURGE="0" COMMENT="" />
    <EXPORT ORDINAL="1881" NAME="?Acquire@?$SafeMap_Lock@VCertThumbprintKey@@VCertThumbprintMappedSet@CServiceConfigSettings@@V?$SafeMap_Iterator@VCertThumbprintKey@@VCertThumbprintMappedSet@CServiceConfigSettings@@@@@@QAEXXZ" PURGE="0" COMMENT="" />
    <EXPORT ORDINAL="1882" NAME="?Acquire@?$SafeMap_Lock@VKey@Locale@@KV?$SafeMap_Iterator@VKey@Locale@@K@@@@QAEXXZ" PURGE="0" COMMENT="" />
    <EXPORT ORDINAL="1883" NAME="?Acquire@?$SafeMap_Lock@VStringKeyCI@@KV?$SafeMap_Iterator@VStringKeyCI@@K@@@@QAEXXZ" PURGE="0" COMMENT="" />
    <EXPORT ORDINAL="1884" NAME="?Acquire@?$SafeMap_Lock@VStringKeyCI@@UEmpty@@V?$SafeSet_Iterator@VStringKeyCI@@@@@@QAEXXZ" PURGE="0" COMMENT="" />
    <EXPORT ORDINAL="1885" NAME="?Acquire@?$SafeMap_Lock@VStringKeyCI@@UUSER_CONTEXT_INFO@WSManHttpListener@@V?$SafeMap_Iterator@VStringKeyCI@@UUSER_CONTEXT_INFO@WSManHttpListener@@@@@@QAEXXZ" PURGE="0" COMMENT="" />
    <EXPORT ORDINAL="1886" NAME="?Acquire@?$SafeMap_Lock@VStringKeyStore@@PAVExpiredOperationIdRecord@@V?$SafeMap_Iterator@VStringKeyStore@@PAVExpiredOperationIdRecord@@@@@@QAEXXZ" PURGE="0" COMMENT="" />
    <EXPORT ORDINAL="1887" NAME="?Acquire@?$SafeMap_Lock@VStringKeyStore@@PAVServerFullDuplexChannel@@V?$SafeMap_Iterator@VStringKeyStore@@PAVServerFullDuplexChannel@@@@@@QAEXXZ" PURGE="0" COMMENT="" />
    <EXPORT ORDINAL="1888" NAME="?Acquire@?$SafeMap_Lock@W4WSManSessionOption@@PAVOptionValue@SessionOptions@Client@WSMan@@V?$SafeMap_Iterator@W4WSManSessionOption@@PAVOptionValue@SessionOptions@Client@WSMan@@@@@@QAEXXZ" PURGE="0" COMMENT="" />
    <EXPORT ORDINAL="1889" NAME="?Acquire@?$SafeMap_Lock@_KPAVSendPacketArgs@RobustConnectionBuffer@@V?$SafeMap_Iterator@_KPAVSendPacketArgs@RobustConnectionBuffer@@@@@@QAEXXZ" PURGE="0" COMMENT="" />
    <EXPORT ORDINAL="1890" NAME="?Acquire@CWSManCriticalSection@@QAEXXZ" PURGE="0" COMMENT="" />
    <EXPORT ORDINAL="1891" NAME="?AcquireExclusive@FastLock@@QAEXXZ" PURGE="0" COMMENT="" />
    <EXPORT ORDINAL="1892" NAME="?AcquireShared@FastLock@@QAEXXZ" PURGE="0" COMMENT="" />
    <EXPORT ORDINAL="1893" NAME="?Acquired@?$SafeMap_Lock@PAVCCertMapping@@UEmpty@@V?$SafeMap_Iterator@PAVCCertMapping@@UEmpty@@@@@@QAE_NXZ" PURGE="0" COMMENT="" />
    <EXPORT ORDINAL="1894" NAME="?Acquired@?$SafeMap_Lock@PAVCListenerConnect@@PAV1@V?$SafeMap_Iterator@PAVCListenerConnect@@PAV1@@@@@QAE_NXZ" PURGE="0" COMMENT="" />
    <EXPORT ORDINAL="1895" NAME="?Acquired@?$SafeMap_Lock@PAVCListenerOperation@@UEmpty@@V?$SafeMap_Iterator@PAVCListenerOperation@@UEmpty@@@@@@QAE_NXZ" PURGE="0" COMMENT="" />
    <EXPORT ORDINAL="1896" NAME="?Acquired@?$SafeMap_Lock@PAVCListenerReceive@@PAV1@V?$SafeMap_Iterator@PAVCListenerReceive@@PAV1@@@@@QAE_NXZ" PURGE="0" COMMENT="" />
    <EXPORT ORDINAL="1897" NAME="?Acquired@?$SafeMap_Lock@PAVCListenerSend@@PAV1@V?$SafeMap_Iterator@PAVCListenerSend@@PAV1@@@@@QAE_NXZ" PURGE="0" COMMENT="" />
    <EXPORT ORDINAL="1898" NAME="?Acquired@?$SafeMap_Lock@PAVCListenerSignal@@PAV1@V?$SafeMap_Iterator@PAVCListenerSignal@@PAV1@@@@@QAE_NXZ" PURGE="0" COMMENT="" />
    <EXPORT ORDINAL="1899" NAME="?Acquired@?$SafeMap_Lock@PAVCShellUriSettings@@UEmpty@@V?$SafeMap_Iterator@PAVCShellUriSettings@@UEmpty@@@@@@QAE_NXZ" PURGE="0" COMMENT="" />
    <EXPORT ORDINAL="1900" NAME="?Acquired@?$SafeMap_Lock@PAVCollector@@UEmpty@@V?$SafeMap_Iterator@PAVCollector@@UEmpty@@@@@@QAE_NXZ" PURGE="0" COMMENT="" />
    <EXPORT ORDINAL="1901" NAME="?Acquired@?$SafeMap_Lock@PAVHostOperation@@UEmpty@@V?$SafeMap_Iterator@PAVHostOperation@@UEmpty@@@@@@QAE_NXZ" PURGE="0" COMMENT="" />
    <EXPORT ORDINAL="1902" NAME="?Acquired@?$SafeMap_Lock@PAVIOperation@@UEmpty@@V?$SafeMap_Iterator@PAVIOperation@@UEmpty@@@@@@QAE_NXZ" PURGE="0" COMMENT="" />
    <EXPORT ORDINAL="1903" NAME="?Acquired@?$SafeMap_Lock@PAVListenerSourceSubscription@@UEmpty@@V?$SafeMap_Iterator@PAVListenerSourceSubscription@@UEmpty@@@@@@QAE_NXZ" PURGE="0" COMMENT="" />
    <EXPORT ORDINAL="1904" NAME="?Acquired@?$SafeMap_Lock@PAVPushSubscription@@UEmpty@@V?$SafeMap_Iterator@PAVPushSubscription@@UEmpty@@@@@@QAE_NXZ" PURGE="0" COMMENT="" />
    <EXPORT ORDINAL="1905" NAME="?Acquired@?$SafeMap_Lock@PAXUEmpty@@V?$SafeMap_Iterator@PAXUEmpty@@@@@@QAE_NXZ" PURGE="0" COMMENT="" />
    <EXPORT ORDINAL="1906" NAME="?Acquired@?$SafeMap_Lock@UPluginKey@@KV?$SafeMap_Iterator@UPluginKey@@K@@@@QAE_NXZ" PURGE="0" COMMENT="" />
    <EXPORT ORDINAL="1907" NAME="?Acquired@?$SafeMap_Lock@UUserKey@@PAVBlockedRecord@@V?$SafeMap_Iterator@UUserKey@@PAVBlockedRecord@@@@@@QAE_NXZ" PURGE="0" COMMENT="" />
    <EXPORT ORDINAL="1908" NAME="?Acquired@?$SafeMap_Lock@VCertThumbprintKey@@VCertThumbprintMappedSet@CServiceConfigSettings@@V?$SafeMap_Iterator@VCertThumbprintKey@@VCertThumbprintMappedSet@CServiceConfigSettings@@@@@@QAE_NXZ" PURGE="0" COMMENT="" />
    <EXPORT ORDINAL="1909" NAME="?Acquired@?$SafeMap_Lock@VGuidKey@@PAVCListenerCommand@@V?$SafeMap_Iterator@VGuidKey@@PAVCListenerCommand@@@@@@QAE_NXZ" PURGE="0" COMMENT="" />
    <EXPORT ORDINAL="1910" NAME="?Acquired@?$SafeMap_Lock@VKey@Locale@@KV?$SafeMap_Iterator@VKey@Locale@@K@@@@QAE_NXZ" PURGE="0" COMMENT="" />
    <EXPORT ORDINAL="1911" NAME="?Acquired@?$SafeMap_Lock@VStringKeyCI@@KV?$SafeMap_Iterator@VStringKeyCI@@K@@@@QAE_NXZ" PURGE="0" COMMENT="" />
    <EXPORT ORDINAL="1912" NAME="?Acquired@?$SafeMap_Lock@VStringKeyCI@@UEmpty@@V?$SafeMap_Iterator@VStringKeyCI@@UEmpty@@@@@@QAE_NXZ" PURGE="0" COMMENT="" />
    <EXPORT ORDINAL="1913" NAME="?Acquired@?$SafeMap_Lock@VStringKeyCI@@UUSER_CONTEXT_INFO@WSManHttpListener@@V?$SafeMap_Iterator@VStringKeyCI@@UUSER_CONTEXT_INFO@WSManHttpListener@@@@@@QAE_NXZ" PURGE="0" COMMENT="" />
    <EXPORT ORDINAL="1914" NAME="?Acquired@?$SafeMap_Lock@VStringKeyStore@@PAVExpiredOperationIdRecord@@V?$SafeMap_Iterator@VStringKeyStore@@PAVExpiredOperationIdRecord@@@@@@QAE_NXZ" PURGE="0" COMMENT="" />
    <EXPORT ORDINAL="1915" NAME="?Acquired@?$SafeMap_Lock@VStringKeyStore@@PAVServerFullDuplexChannel@@V?$SafeMap_Iterator@VStringKeyStore@@PAVServerFullDuplexChannel@@@@@@QAE_NXZ" PURGE="0" COMMENT="" />
    <EXPORT ORDINAL="1916" NAME="?Acquired@?$SafeMap_Lock@W4WSManSessionOption@@PAVOptionValue@SessionOptions@Client@WSMan@@V?$SafeMap_Iterator@W4WSManSessionOption@@PAVOptionValue@SessionOptions@Client@WSMan@@@@@@QAE_NXZ" PURGE="0" COMMENT="" />
    <EXPORT ORDINAL="1917" NAME="?Acquired@?$SafeMap_Lock@_KPAVSendPacketArgs@RobustConnectionBuffer@@V?$SafeMap_Iterator@_KPAVSendPacketArgs@RobustConnectionBuffer@@@@@@QAE_NXZ" PURGE="0" COMMENT="" />
    <EXPORT ORDINAL="1918" NAME="?Add@?$SafeMap@PAVCCertMapping@@UEmpty@@V?$SafeSet_Iterator@PAVCCertMapping@@@@@@QAE_NABQAVCCertMapping@@ABUEmpty@@AAVIRequestContext@@@Z" PURGE="12" COMMENT="" />
    <EXPORT ORDINAL="1919" NAME="?Add@?$SafeMap@PAVCListenerOperation@@UEmpty@@V?$SafeSet_Iterator@PAVCListenerOperation@@@@@@QAE_NABQAVCListenerOperation@@ABUEmpty@@AAVIRequestContext@@@Z" PURGE="12" COMMENT="" />
    <EXPORT ORDINAL="1920" NAME="?Add@?$SafeMap@PAVCShellUriSettings@@UEmpty@@V?$SafeSet_Iterator@PAVCShellUriSettings@@@@@@QAE_NABQAVCShellUriSettings@@ABUEmpty@@AAVIRequestContext@@@Z" PURGE="12" COMMENT="" />
    <EXPORT ORDINAL="1921" NAME="?Add@?$SafeMap@PAXUEmpty@@V?$SafeSet_Iterator@PAX@@@@QAE_NABQAXABUEmpty@@AAVIRequestContext@@@Z" PURGE="12" COMMENT="" />
    <EXPORT ORDINAL="1922" NAME="?Add@?$SafeMap@UPluginKey@@KV?$SafeMap_Iterator@UPluginKey@@K@@@@QAE_NABUPluginKey@@ABKAAVIRequestContext@@@Z" PURGE="12" COMMENT="" />
    <EXPORT ORDINAL="1923" NAME="?Add@?$SafeMap@UUserKey@@PAVBlockedRecord@@V?$SafeMap_Iterator@UUserKey@@PAVBlockedRecord@@@@@@QAE_NABUUserKey@@ABQAVBlockedRecord@@AAVIRequestContext@@@Z" PURGE="12" COMMENT="" />
    <EXPORT ORDINAL="1924" NAME="?Add@?$SafeMap@VCertThumbprintKey@@VCertThumbprintMappedSet@CServiceConfigSettings@@V?$SafeMap_Iterator@VCertThumbprintKey@@VCertThumbprintMappedSet@CServiceConfigSettings@@@@@@QAE_NABVCertThumbprintKey@@ABVCertThumbprintMappedSet@CServiceConfigSettings@@AAVIRequestContext@@@Z" PURGE="12" COMMENT="" />
    <EXPORT ORDINAL="1925" NAME="?Add@?$SafeMap@VKey@Locale@@KV?$SafeMap_Iterator@VKey@Locale@@K@@@@QAE_NABVKey@Locale@@ABKAAVIRequestContext@@@Z" PURGE="12" COMMENT="" />
    <EXPORT ORDINAL="1926" NAME="?Add@?$SafeMap@VStringKeyCI@@KV?$SafeMap_Iterator@VStringKeyCI@@K@@@@QAE_NABVStringKeyCI@@ABKAAVIRequestContext@@@Z" PURGE="12" COMMENT="" />
    <EXPORT ORDINAL="1927" NAME="?Add@?$SafeMap@VStringKeyCI@@UEmpty@@V?$SafeSet_Iterator@VStringKeyCI@@@@@@QAE_NABVStringKeyCI@@ABUEmpty@@AAVIRequestContext@@@Z" PURGE="12" COMMENT="" />
    <EXPORT ORDINAL="1928" NAME="?Add@?$SafeMap@VStringKeyCI@@UUSER_CONTEXT_INFO@WSManHttpListener@@V?$SafeMap_Iterator@VStringKeyCI@@UUSER_CONTEXT_INFO@WSManHttpListener@@@@@@QAE_NABVStringKeyCI@@ABUUSER_CONTEXT_INFO@WSManHttpListener@@AAVIRequestContext@@@Z" PURGE="12" COMMENT="" />
    <EXPORT ORDINAL="1929" NAME="?Add@?$SafeMap@VStringKeyStore@@PAVExpiredOperationIdRecord@@V?$SafeMap_Iterator@VStringKeyStore@@PAVExpiredOperationIdRecord@@@@@@QAE_NABVStringKeyStore@@ABQAVExpiredOperationIdRecord@@AAVIRequestContext@@@Z" PURGE="12" COMMENT="" />
    <EXPORT ORDINAL="1930" NAME="?Add@?$SafeMap@VStringKeyStore@@PAVServerFullDuplexChannel@@V?$SafeMap_Iterator@VStringKeyStore@@PAVServerFullDuplexChannel@@@@@@QAE_NABVStringKeyStore@@ABQAVServerFullDuplexChannel@@AAVIRequestContext@@@Z" PURGE="12" COMMENT="" />
    <EXPORT ORDINAL="1931" NAME="?Add@?$SafeMap@W4WSManSessionOption@@PAVOptionValue@SessionOptions@Client@WSMan@@V?$SafeMap_Iterator@W4WSManSessionOption@@PAVOptionValue@SessionOptions@Client@WSMan@@@@@@QAE_NABW4WSManSessionOption@@ABQAVOptionValue@SessionOptions@Client@WSMan@@AAVIRequestContext@@@Z" PURGE="12" COMMENT="" />
    <EXPORT ORDINAL="1932" NAME="?Add@?$SafeMap@_KPAVSendPacketArgs@RobustConnectionBuffer@@V?$SafeMap_Iterator@_KPAVSendPacketArgs@RobustConnectionBuffer@@@@@@QAE_NAB_KABQAVSendPacketArgs@RobustConnectionBuffer@@AAVIRequestContext@@@Z" PURGE="12" COMMENT="" />
    <EXPORT ORDINAL="1933" NAME="?Add@?$SafeSet@PAVCCertMapping@@@@QAE_NABQAVCCertMapping@@AAVIRequestContext@@@Z" PURGE="8" COMMENT="" />
    <EXPORT ORDINAL="1934" NAME="?Add@?$SafeSet@PAVCListenerOperation@@@@QAE_NABQAVCListenerOperation@@AAVIRequestContext@@@Z" PURGE="8" COMMENT="" />
    <EXPORT ORDINAL="1935" NAME="?Add@?$SafeSet@PAVCShellUriSettings@@@@QAE_NABQAVCShellUriSettings@@AAVIRequestContext@@@Z" PURGE="8" COMMENT="" />
    <EXPORT ORDINAL="1936" NAME="?Add@?$SafeSet@PAX@@QAE_NABQAXAAVIRequestContext@@@Z" PURGE="8" COMMENT="" />
    <EXPORT ORDINAL="1937" NAME="?Add@?$SafeSet@VStringKeyCI@@@@QAE_NABVStringKeyCI@@AAVIRequestContext@@@Z" PURGE="8" COMMENT="" />
    <EXPORT ORDINAL="1938" NAME="?AddDefaultPlugins@ConfigUpdate@@SGHPAVIRequestContext@@H@Z" PURGE="8" COMMENT="" />
    <EXPORT ORDINAL="1939" NAME="?AddKey@CWSManResourceNoResourceUri@@QAEHPBG0PAVIRequestContext@@@Z" PURGE="12" COMMENT="" />
    <EXPORT ORDINAL="1940" NAME="?AddMessage@CRequestContext@@AAEHPBGPAPAD1@Z" PURGE="12" COMMENT="" />
    <EXPORT ORDINAL="1941" NAME="?AddOption@CWSManResourceNoResourceUri@@QAEHPBG0HPAVIRequestContext@@@Z" PURGE="16" COMMENT="" />
    <EXPORT ORDINAL="1942" NAME="?AddOptionSet@CWSManResourceNoResourceUri@@QAEHPAU_WSMAN_OPTION_SET@@PAVIRequestContext@@@Z" PURGE="8" COMMENT="" />
    <EXPORT ORDINAL="1943" NAME="?AddPacket@PacketParser@@QAE_NPAVPacket@@_N11@Z" PURGE="16" COMMENT="" />
    <EXPORT ORDINAL="1944" NAME="?AddRef@CWSManSecurityUI@@UAGKXZ" PURGE="4" COMMENT="" />
    <EXPORT ORDINAL="1945" NAME="?AddRef@ILifeTimeMgmt@@UAEJXZ" PURGE="0" COMMENT="" />
    <EXPORT ORDINAL="1946" NAME="?AddRef@UserRecord@@QAE_NAAVIRequestContext@@@Z" PURGE="4" COMMENT="" />
    <EXPORT ORDINAL="1947" NAME="?AddSource@CBaseConfigCache@@IAEHPAVIRequestContext@@PAVCConfigChangeSource@@@Z" PURGE="8" COMMENT="" />
    <EXPORT ORDINAL="1948" NAME="?AddToMap@CBaseConfigCache@@AAEHPAVIRequestContext@@AAVAutoLocalFree@@@Z" PURGE="8" COMMENT="" />
    <EXPORT ORDINAL="1949" NAME="?Alloc@WSManMemory@@SGPAXIHW4_NitsFaultMode@@@Z" PURGE="12" COMMENT="" />
    <EXPORT ORDINAL="1950" NAME="?AllocBstr@WSManMemory@@SGPAGPBGHH@Z" PURGE="12" COMMENT="" />
    <EXPORT ORDINAL="1951" NAME="?AllocBstrLen@WSManMemory@@SGPAGPBGIHH@Z" PURGE="16" COMMENT="" />
    <EXPORT ORDINAL="1952" NAME="?AllocCache@CClientConfigCache@@CGPAVCBaseConfigCache@@XZ" PURGE="0" COMMENT="" />
    <EXPORT ORDINAL="1953" NAME="?AllocCache@CServiceConfigCache@@CGPAVCBaseConfigCache@@XZ" PURGE="0" COMMENT="" />
    <EXPORT ORDINAL="1954" NAME="?AllocCache@CWinRSPluginConfigCache@@CGPAVCBaseConfigCache@@XZ" PURGE="0" COMMENT="" />
    <EXPORT ORDINAL="1955" NAME="?AllocSysString@TSTRBUFFER@@QBEJPAPAG@Z" PURGE="4" COMMENT="" />
    <EXPORT ORDINAL="1956" NAME="?AllowBasic@CCommonConfigSettings@@UBEHXZ" PURGE="0" COMMENT="" />
    <EXPORT ORDINAL="1957" NAME="?AllowClientCertificate@CCommonConfigSettings@@UBEHXZ" PURGE="0" COMMENT="" />
    <EXPORT ORDINAL="1958" NAME="?AllowCredSsp@CCommonConfigSettings@@UBEHXZ" PURGE="0" COMMENT="" />
    <EXPORT ORDINAL="1959" NAME="?AllowKerberos@CCommonConfigSettings@@UBEHXZ" PURGE="0" COMMENT="" />
    <EXPORT ORDINAL="1960" NAME="?AllowNegotiate@CCommonConfigSettings@@UBEHXZ" PURGE="0" COMMENT="" />
    <EXPORT ORDINAL="1961" NAME="?AllowUnencrypted@CCommonConfigSettings@@UBEHXZ" PURGE="0" COMMENT="" />
    <EXPORT ORDINAL="1962" NAME="?Append@SBUFFER@@QAEJPAEI@Z" PURGE="8" COMMENT="" />
    <EXPORT ORDINAL="1963" NAME="?Append@SBUFFER@@QAEJPAV1@@Z" PURGE="4" COMMENT="" />
    <EXPORT ORDINAL="1964" NAME="?Append@TSTRBUFFER@@QAEJPBG@Z" PURGE="4" COMMENT="" />
    <EXPORT ORDINAL="1965" NAME="?Append@TSTRBUFFER@@QAEJPBGII@Z" PURGE="12" COMMENT="" />
    <EXPORT ORDINAL="1966" NAME="?AppendChar@TSTRBUFFER@@QAEJG@Z" PURGE="4" COMMENT="" />
    <EXPORT ORDINAL="1967" NAME="?AppendEscapeXmlAttribute@TSTRBUFFER@@QAEJPBGG@Z" PURGE="8" COMMENT="" />
    <EXPORT ORDINAL="1968" NAME="?AppendEscapeXmlContent@TSTRBUFFER@@QAEJPBG_N@Z" PURGE="8" COMMENT="" />
    <EXPORT ORDINAL="1969" NAME="?AppendXmlElem@TSTRBUFFER@@QAEJPBG0HKPAU_XML_ATTRIB@@@Z" PURGE="20" COMMENT="" />
    <EXPORT ORDINAL="1970" NAME="?AppendXmlElemWithNamespace@TSTRBUFFER@@QAEJPBG00HKPAU_XML_ATTRIB@@@Z" PURGE="24" COMMENT="" />
    <EXPORT ORDINAL="1971" NAME="?AppendXmlElemWithNamespaceAndPrefix@TSTRBUFFER@@QAEJPBG000HKPAU_XML_ATTRIB@@@Z" PURGE="28" COMMENT="" />
    <EXPORT ORDINAL="1972" NAME="?AppendXmlElemWithPrefix@TSTRBUFFER@@QAEJPBG00HKPAU_XML_ATTRIB@@@Z" PURGE="24" COMMENT="" />
    <EXPORT ORDINAL="1973" NAME="?AppendXmlEndElem@TSTRBUFFER@@QAEJPBG@Z" PURGE="4" COMMENT="" />
    <EXPORT ORDINAL="1974" NAME="?AppendXmlEndElemWithPrefix@TSTRBUFFER@@QAEJPBG0@Z" PURGE="8" COMMENT="" />
    <EXPORT ORDINAL="1975" NAME="?AppendXmlEndFragment@TSTRBUFFER@@QAEJXZ" PURGE="0" COMMENT="" />
    <EXPORT ORDINAL="1976" NAME="?AppendXmlEndItem@TSTRBUFFER@@QAEJXZ" PURGE="0" COMMENT="" />
    <EXPORT ORDINAL="1977" NAME="?AppendXmlStartElem@TSTRBUFFER@@QAEJPBGHKPAU_XML_ATTRIB@@@Z" PURGE="16" COMMENT="" />
    <EXPORT ORDINAL="1978" NAME="?AppendXmlStartElemWithNamespace@TSTRBUFFER@@QAEJPBG0HKPAU_XML_ATTRIB@@@Z" PURGE="20" COMMENT="" />
    <EXPORT ORDINAL="1979" NAME="?AppendXmlStartElemWithNamespaceAndPrefix@TSTRBUFFER@@QAEJPBG00HKPAU_XML_ATTRIB@@@Z" PURGE="24" COMMENT="" />
    <EXPORT ORDINAL="1980" NAME="?AppendXmlStartElemWithNamespaces@TSTRBUFFER@@QAEJPBGKPAU_XML_NAMESPACE_PREFIX@@HKPAU_XML_ATTRIB@@@Z" PURGE="24" COMMENT="" />
    <EXPORT ORDINAL="1981" NAME="?AppendXmlStartElemWithNamespacesAndPrefixes@TSTRBUFFER@@QAEJPBG0KPAU_XML_NAMESPACE_PREFIX@@HKPAU_XML_ATTRIB@@@Z" PURGE="28" COMMENT="" />
    <EXPORT ORDINAL="1982" NAME="?AppendXmlStartElemWithPrefix@TSTRBUFFER@@QAEJPBG0HKPAU_XML_ATTRIB@@@Z" PURGE="20" COMMENT="" />
    <EXPORT ORDINAL="1983" NAME="?AppendXmlStartFragment@TSTRBUFFER@@QAEJXZ" PURGE="0" COMMENT="" />
    <EXPORT ORDINAL="1984" NAME="?AppendXmlStartItem@TSTRBUFFER@@QAEJXZ" PURGE="0" COMMENT="" />
    <EXPORT ORDINAL="1985" NAME="?ApplyQuota@UserRecord@@QAE_NW4OperationType@@AAVIRequestContext@@PBVProvider@Catalog@@PAVCServiceConfigSettings@@@Z" PURGE="16" COMMENT="" />
    <EXPORT ORDINAL="1986" NAME="?ApplySecurity@ConfigRegistry@@IAEHPAVIRequestContext@@PAUHKEY__@@PBG2@Z" PURGE="16" COMMENT="" />
    <EXPORT ORDINAL="1987" NAME="?AsReference@?$SafeMap@PAVCCertMapping@@UEmpty@@V?$SafeSet_Iterator@PAVCCertMapping@@@@@@QAEAAV1@XZ" PURGE="0" COMMENT="" />
    <EXPORT ORDINAL="1988" NAME="?AsReference@?$SafeMap@PAVCListenerOperation@@UEmpty@@V?$SafeSet_Iterator@PAVCListenerOperation@@@@@@QAEAAV1@XZ" PURGE="0" COMMENT="" />
    <EXPORT ORDINAL="1989" NAME="?AsReference@?$SafeMap@PAVCShellUriSettings@@UEmpty@@V?$SafeSet_Iterator@PAVCShellUriSettings@@@@@@QAEAAV1@XZ" PURGE="0" COMMENT="" />
    <EXPORT ORDINAL="1990" NAME="?AsReference@?$SafeMap@PAXUEmpty@@V?$SafeSet_Iterator@PAX@@@@QAEAAV1@XZ" PURGE="0" COMMENT="" />
    <EXPORT ORDINAL="1991" NAME="?AsReference@?$SafeMap@UPluginKey@@KV?$SafeMap_Iterator@UPluginKey@@K@@@@QAEAAV1@XZ" PURGE="0" COMMENT="" />
    <EXPORT ORDINAL="1992" NAME="?AsReference@?$SafeMap@UUserKey@@PAVBlockedRecord@@V?$SafeMap_Iterator@UUserKey@@PAVBlockedRecord@@@@@@QAEAAV1@XZ" PURGE="0" COMMENT="" />
    <EXPORT ORDINAL="1993" NAME="?AsReference@?$SafeMap@VCertThumbprintKey@@VCertThumbprintMappedSet@CServiceConfigSettings@@V?$SafeMap_Iterator@VCertThumbprintKey@@VCertThumbprintMappedSet@CServiceConfigSettings@@@@@@QAEAAV1@XZ" PURGE="0" COMMENT="" />
    <EXPORT ORDINAL="1994" NAME="?AsReference@?$SafeMap@VKey@Locale@@KV?$SafeMap_Iterator@VKey@Locale@@K@@@@QAEAAV1@XZ" PURGE="0" COMMENT="" />
    <EXPORT ORDINAL="1995" NAME="?AsReference@?$SafeMap@VStringKeyCI@@KV?$SafeMap_Iterator@VStringKeyCI@@K@@@@QAEAAV1@XZ" PURGE="0" COMMENT="" />
    <EXPORT ORDINAL="1996" NAME="?AsReference@?$SafeMap@VStringKeyCI@@UUSER_CONTEXT_INFO@WSManHttpListener@@V?$SafeMap_Iterator@VStringKeyCI@@UUSER_CONTEXT_INFO@WSManHttpListener@@@@@@QAEAAV1@XZ" PURGE="0" COMMENT="" />
    <EXPORT ORDINAL="1997" NAME="?AsReference@?$SafeMap@VStringKeyStore@@PAVExpiredOperationIdRecord@@V?$SafeMap_Iterator@VStringKeyStore@@PAVExpiredOperationIdRecord@@@@@@QAEAAV1@XZ" PURGE="0" COMMENT="" />
    <EXPORT ORDINAL="1998" NAME="?AsReference@?$SafeMap@VStringKeyStore@@PAVServerFullDuplexChannel@@V?$SafeMap_Iterator@VStringKeyStore@@PAVServerFullDuplexChannel@@@@@@QAEAAV1@XZ" PURGE="0" COMMENT="" />
    <EXPORT ORDINAL="1999" NAME="?AsReference@?$SafeMap@W4WSManSessionOption@@PAVOptionValue@SessionOptions@Client@WSMan@@V?$SafeMap_Iterator@W4WSManSessionOption@@PAVOptionValue@SessionOptions@Client@WSMan@@@@@@QAEAAV1@XZ" PURGE="0" COMMENT="" />
    <EXPORT ORDINAL="2000" NAME="?AsReference@?$SafeMap@_KPAVSendPacketArgs@RobustConnectionBuffer@@V?$SafeMap_Iterator@_KPAVSendPacketArgs@RobustConnectionBuffer@@@@@@QAEAAV1@XZ" PURGE="0" COMMENT="" />
    <EXPORT ORDINAL="2001" NAME="?AuthzComplete@UserRecord@@UAEKPAX0W4AdministratorType@UserAuthzRecord@@KPBG@Z" PURGE="20" COMMENT="" />
    <EXPORT ORDINAL="2002" NAME="?BOMS@PacketFormatter@@0QBUBOMInfo@1@B" PURGE="-1" COMMENT="" />
    <EXPORT ORDINAL="2003" NAME="?BeginRevertToSelf@CSecurity@@SGHPAPAXK@Z" PURGE="8" COMMENT="" />
    <EXPORT ORDINAL="2004" NAME="?BuildFragmentTransfer@CWSManResourceNoResourceUri@@UAEHAAVBufferFormatter@@@Z" PURGE="4" COMMENT="" />
    <EXPORT ORDINAL="2005" NAME="?BuildOptionSet@CWSManResourceNoResourceUri@@QAEHAAVBufferFormatter@@@Z" PURGE="4" COMMENT="" />
    <EXPORT ORDINAL="2006" NAME="?BuildSelectorSet@CWSManEPR@@UAEHAAVBufferFormatter@@@Z" PURGE="4" COMMENT="" />
    <EXPORT ORDINAL="2007" NAME="?BuildSelectorSet@CWSManResourceNoResourceUri@@UAEHAAVBufferFormatter@@@Z" PURGE="4" COMMENT="" />
    <EXPORT ORDINAL="2008" NAME="?CHARSETS@PacketFormatter@@0QBUCharsetInfo@1@B" PURGE="0" COMMENT="" />
    <EXPORT ORDINAL="2009" NAME="?ChangeLogging@CServiceConfigCache@@QAEXW4ErrorLogging@@@Z" PURGE="4" COMMENT="" />
    <EXPORT ORDINAL="2010" NAME="?CheckSharedSSLConfiguration@ConfigRegistry@@IAEHPAVIRequestContext@@PBG1HPAH@Z" PURGE="20" COMMENT="" />
    <EXPORT ORDINAL="2011" NAME="?Clear@?$SafeMap@UPluginKey@@KV?$SafeMap_Iterator@UPluginKey@@K@@@@QAEXXZ" PURGE="0" COMMENT="" />
    <EXPORT ORDINAL="2012" NAME="?Clear@?$SafeMap@VStringKeyCI@@KV?$SafeMap_Iterator@VStringKeyCI@@K@@@@QAEXXZ" PURGE="0" COMMENT="" />
    <EXPORT ORDINAL="2013" NAME="?Clear@?$SafeMap@VStringKeyCI@@UUSER_CONTEXT_INFO@WSManHttpListener@@V?$SafeMap_Iterator@VStringKeyCI@@UUSER_CONTEXT_INFO@WSManHttpListener@@@@@@QAEXXZ" PURGE="0" COMMENT="" />
    <EXPORT ORDINAL="2014" NAME="?Clear@?$SafeMap@VStringKeyStore@@PAVExpiredOperationIdRecord@@V?$SafeMap_Iterator@VStringKeyStore@@PAVExpiredOperationIdRecord@@@@@@QAEXXZ" PURGE="0" COMMENT="" />
    <EXPORT ORDINAL="2015" NAME="?ClearKeys@CWSManResourceNoResourceUri@@QAEHXZ" PURGE="0" COMMENT="" />
    <EXPORT ORDINAL="2016" NAME="?ClearOptions@CWSManResourceNoResourceUri@@QAEHXZ" PURGE="0" COMMENT="" />
    <EXPORT ORDINAL="2017" NAME="?ClearRegistryKeys@ConfigRegistry@@IAEHPAVIRequestContext@@@Z" PURGE="4" COMMENT="" />
    <EXPORT ORDINAL="2018" NAME="ClearSubKeys" PURGE="8" COMMENT="" />
    <EXPORT ORDINAL="2019" NAME="?CompleteWithErrorContext@CRequestContext@@QAEXPAU_WSMAN_PLUGIN_REQUEST@@@Z" PURGE="4" COMMENT="" />
    <EXPORT ORDINAL="2020" NAME="?Confirm@ExtendedSemantic@@2KB" PURGE="56324" COMMENT="" />
    <EXPORT ORDINAL="2021" NAME="?Copy@TSTRBUFFER@@QAEJPBG@Z" PURGE="4" COMMENT="" />
    <EXPORT ORDINAL="2022" NAME="?CopyString@@YGPAGPAVIRequestContext@@W4CallSiteId@@PBG@Z" PURGE="12" COMMENT="" />
    <EXPORT ORDINAL="2023" NAME="?CopyString@@YGPAGPBGABHAAVIRequestContext@@@Z" PURGE="12" COMMENT="" />
    <EXPORT ORDINAL="2024" NAME="?CopyString@MessageId@PacketParser@@QAEKPBGH@Z" PURGE="8" COMMENT="" />
    <EXPORT ORDINAL="2025" NAME="?CopyTo@CErrorContext@@UBEXPAVIRequestContext@@@Z" PURGE="4" COMMENT="" />
    <EXPORT ORDINAL="2026" NAME="?CopyTo@CRequestContext@@UBEXPAVIRequestContext@@@Z" PURGE="4" COMMENT="" />
    <EXPORT ORDINAL="2027" NAME="?CreateActivityId@EventHandler@WSMan@@SGXAAU_GUID@@@Z" PURGE="4" COMMENT="" />
    <EXPORT ORDINAL="2028" NAME="?CreateAnEvent@SoapSemanticConverter@@QAEKKPAVSemanticMessage@@AAVBufferFormatter@@PAVIRequestContext@@@Z" PURGE="16" COMMENT="" />
    <EXPORT ORDINAL="2029" NAME="?CreateAutoConfiguredListener@CConfigManager@@AAEHPAVIRequestContext@@PAVLISTENER_IDENTITY@@@Z" PURGE="8" COMMENT="" />
    <EXPORT ORDINAL="2030" NAME="?CreateInstance@?$ILoader@VAdminSid@CSecurity@@@@IAE_NAAVIRequestContext@@@Z" PURGE="4" COMMENT="" />
    <EXPORT ORDINAL="2031" NAME="?CreateInstance@?$ILoader@VEventHandler@WSMan@@@@IAE_NAAVIRequestContext@@@Z" PURGE="4" COMMENT="" />
    <EXPORT ORDINAL="2032" NAME="?CreateInstance@?$ILoader@VInteractiveSid@CSecurity@@@@IAE_NAAVIRequestContext@@@Z" PURGE="4" COMMENT="" />
    <EXPORT ORDINAL="2033" NAME="?CreateInstance@?$ILoader@VIpHlpApiDllLoader@@@@IAE_NAAVIRequestContext@@@Z" PURGE="4" COMMENT="" />
    <EXPORT ORDINAL="2034" NAME="?CreateInstance@?$ILoader@VMachineName@@@@IAE_NAAVIRequestContext@@@Z" PURGE="4" COMMENT="" />
    <EXPORT ORDINAL="2035" NAME="?CreateInstance@?$ILoader@VNetworkServiceSid@CSecurity@@@@IAE_NAAVIRequestContext@@@Z" PURGE="4" COMMENT="" />
    <EXPORT ORDINAL="2036" NAME="?CreateInstance@?$ILoader@VNtDsApiDllLoader@@@@IAE_NAAVIRequestContext@@@Z" PURGE="4" COMMENT="" />
    <EXPORT ORDINAL="2037" NAME="?CreateInstance@?$ILoader@VResources@Locale@@@@IAE_NAAVIRequestContext@@@Z" PURGE="4" COMMENT="" />
    <EXPORT ORDINAL="2038" NAME="?CreateInstance@?$ILoader@VShell32DllLoader@@@@IAE_NAAVIRequestContext@@@Z" PURGE="4" COMMENT="" />
    <EXPORT ORDINAL="2039" NAME="?CreateInstance@?$ILoader@VShlWApiDllLoader@@@@IAE_NAAVIRequestContext@@@Z" PURGE="4" COMMENT="" />
    <EXPORT ORDINAL="2040" NAME="?CreateInstance@?$ILoader@VSubscriptionManager@@@@IAE_NAAVIRequestContext@@@Z" PURGE="4" COMMENT="" />
    <EXPORT ORDINAL="2041" NAME="?CreateInstance@?$ILoader@VUser32DllLoader@@@@IAE_NAAVIRequestContext@@@Z" PURGE="4" COMMENT="" />
    <EXPORT ORDINAL="2042" NAME="?CreateInstance@?$ILoader@VWSManMemCryptManager@@@@IAE_NAAVIRequestContext@@@Z" PURGE="4" COMMENT="" />
    <EXPORT ORDINAL="2043" NAME="?CreateKey@ConfigRegistry@@IAEHPAVIRequestContext@@PBGPAPAUHKEY__@@1KPAK@Z" PURGE="24" COMMENT="" />
    <EXPORT ORDINAL="2044" NAME="?CreateNew@CBaseConfigCache@@CGPAV1@PAVIRequestContext@@PAVCConfigCacheMap@1@P6GPAV1@XZW4ErrorLogging@@H@Z" PURGE="20" COMMENT="" />
    <EXPORT ORDINAL="2045" NAME="CreateProvHost" PURGE="16" COMMENT="" />
    <EXPORT ORDINAL="2046" NAME="?CreateRenderingInformation@CWSManSecurityUI@@AAEHPAVIRequestContext@@@Z" PURGE="4" COMMENT="" />
    <EXPORT ORDINAL="2047" NAME="?CreateResponse@SoapSemanticConverter@@QAEKKW4_MI_OperationCallback_ResponseType@@AAVBufferFormatter@@PAVIRequestContext@@@Z" PURGE="16" COMMENT="" />
    <EXPORT ORDINAL="2048" NAME="?CreateSessionGuid@SessionId@PacketParser@@QAEKPBGH@Z" PURGE="8" COMMENT="" />
    <EXPORT ORDINAL="2049" NAME="?Data@?$SafeMap_Iterator@PAVCCertMapping@@UEmpty@@@@IBEAAV?$STLMap@PAVCCertMapping@@UEmpty@@@@XZ" PURGE="0" COMMENT="" />
    <EXPORT ORDINAL="2050" NAME="?Data@?$SafeMap_Iterator@PAVCListenerOperation@@UEmpty@@@@IBEAAV?$STLMap@PAVCListenerOperation@@UEmpty@@@@XZ" PURGE="0" COMMENT="" />
    <EXPORT ORDINAL="2051" NAME="?Data@?$SafeMap_Iterator@PAVCShellUriSettings@@UEmpty@@@@IBEAAV?$STLMap@PAVCShellUriSettings@@UEmpty@@@@XZ" PURGE="0" COMMENT="" />
    <EXPORT ORDINAL="2052" NAME="?Data@?$SafeMap_Iterator@PAXUEmpty@@@@IBEAAV?$STLMap@PAXUEmpty@@@@XZ" PURGE="0" COMMENT="" />
    <EXPORT ORDINAL="2053" NAME="?Data@?$SafeMap_Iterator@UPluginKey@@K@@IBEAAV?$STLMap@UPluginKey@@K@@XZ" PURGE="0" COMMENT="" />
    <EXPORT ORDINAL="2054" NAME="?Data@?$SafeMap_Iterator@UUserKey@@PAVBlockedRecord@@@@IBEAAV?$STLMap@UUserKey@@PAVBlockedRecord@@@@XZ" PURGE="0" COMMENT="" />
    <EXPORT ORDINAL="2055" NAME="?Data@?$SafeMap_Iterator@VCertThumbprintKey@@VCertThumbprintMappedSet@CServiceConfigSettings@@@@IBEAAV?$STLMap@VCertThumbprintKey@@VCertThumbprintMappedSet@CServiceConfigSettings@@@@XZ" PURGE="0" COMMENT="" />
    <EXPORT ORDINAL="2056" NAME="?Data@?$SafeMap_Iterator@VKey@Locale@@K@@IBEAAV?$STLMap@VKey@Locale@@K@@XZ" PURGE="0" COMMENT="" />
    <EXPORT ORDINAL="2057" NAME="?Data@?$SafeMap_Iterator@VStringKeyCI@@K@@IBEAAV?$STLMap@VStringKeyCI@@K@@XZ" PURGE="0" COMMENT="" />
    <EXPORT ORDINAL="2058" NAME="?Data@?$SafeMap_Iterator@VStringKeyCI@@UUSER_CONTEXT_INFO@WSManHttpListener@@@@IBEAAV?$STLMap@VStringKeyCI@@UUSER_CONTEXT_INFO@WSManHttpListener@@@@XZ" PURGE="0" COMMENT="" />
    <EXPORT ORDINAL="2059" NAME="?Data@?$SafeMap_Iterator@VStringKeyStore@@PAVExpiredOperationIdRecord@@@@IBEAAV?$STLMap@VStringKeyStore@@PAVExpiredOperationIdRecord@@@@XZ" PURGE="0" COMMENT="" />
    <EXPORT ORDINAL="2060" NAME="?Data@?$SafeMap_Iterator@VStringKeyStore@@PAVServerFullDuplexChannel@@@@IBEAAV?$STLMap@VStringKeyStore@@PAVServerFullDuplexChannel@@@@XZ" PURGE="0" COMMENT="" />
    <EXPORT ORDINAL="2061" NAME="?Data@?$SafeMap_Iterator@W4WSManSessionOption@@PAVOptionValue@SessionOptions@Client@WSMan@@@@IBEAAV?$STLMap@W4WSManSessionOption@@PAVOptionValue@SessionOptions@Client@WSMan@@@@XZ" PURGE="0" COMMENT="" />
    <EXPORT ORDINAL="2062" NAME="?Data@?$SafeMap_Iterator@_KPAVSendPacketArgs@RobustConnectionBuffer@@@@IBEAAV?$STLMap@_KPAVSendPacketArgs@RobustConnectionBuffer@@@@XZ" PURGE="0" COMMENT="" />
    <EXPORT ORDINAL="2063" NAME="?DeInitialize@?$SafeMap@PAVCCertMapping@@UEmpty@@V?$SafeMap_Iterator@PAVCCertMapping@@UEmpty@@@@@@UAE_NAAVIRequestContext@@@Z" PURGE="4" COMMENT="" />
    <EXPORT ORDINAL="2064" NAME="?DeInitialize@?$SafeMap@PAVCCertMapping@@UEmpty@@V?$SafeSet_Iterator@PAVCCertMapping@@@@@@UAE_NAAVIRequestContext@@@Z" PURGE="4" COMMENT="" />
    <EXPORT ORDINAL="2065" NAME="?DeInitialize@?$SafeMap@PAVCListenerConnect@@PAV1@V?$SafeMap_Iterator@PAVCListenerConnect@@PAV1@@@@@UAE_NAAVIRequestContext@@@Z" PURGE="4" COMMENT="" />
    <EXPORT ORDINAL="2066" NAME="?DeInitialize@?$SafeMap@PAVCListenerOperation@@UEmpty@@V?$SafeMap_Iterator@PAVCListenerOperation@@UEmpty@@@@@@UAE_NAAVIRequestContext@@@Z" PURGE="4" COMMENT="" />
    <EXPORT ORDINAL="2067" NAME="?DeInitialize@?$SafeMap@PAVCListenerOperation@@UEmpty@@V?$SafeSet_Iterator@PAVCListenerOperation@@@@@@UAE_NAAVIRequestContext@@@Z" PURGE="4" COMMENT="" />
    <EXPORT ORDINAL="2068" NAME="?DeInitialize@?$SafeMap@PAVCListenerReceive@@PAV1@V?$SafeMap_Iterator@PAVCListenerReceive@@PAV1@@@@@UAE_NAAVIRequestContext@@@Z" PURGE="4" COMMENT="" />
    <EXPORT ORDINAL="2069" NAME="?DeInitialize@?$SafeMap@PAVCListenerSend@@PAV1@V?$SafeMap_Iterator@PAVCListenerSend@@PAV1@@@@@UAE_NAAVIRequestContext@@@Z" PURGE="4" COMMENT="" />
    <EXPORT ORDINAL="2070" NAME="?DeInitialize@?$SafeMap@PAVCListenerSignal@@PAV1@V?$SafeMap_Iterator@PAVCListenerSignal@@PAV1@@@@@UAE_NAAVIRequestContext@@@Z" PURGE="4" COMMENT="" />
    <EXPORT ORDINAL="2071" NAME="?DeInitialize@?$SafeMap@PAVCShellUriSettings@@UEmpty@@V?$SafeSet_Iterator@PAVCShellUriSettings@@@@@@UAE_NAAVIRequestContext@@@Z" PURGE="4" COMMENT="" />
    <EXPORT ORDINAL="2072" NAME="?DeInitialize@?$SafeMap@PAVCollector@@UEmpty@@V?$SafeMap_Iterator@PAVCollector@@UEmpty@@@@@@UAE_NAAVIRequestContext@@@Z" PURGE="4" COMMENT="" />
    <EXPORT ORDINAL="2073" NAME="?DeInitialize@?$SafeMap@PAVCollector@@UEmpty@@V?$SafeSet_Iterator@PAVCollector@@@@@@UAE_NAAVIRequestContext@@@Z" PURGE="4" COMMENT="" />
    <EXPORT ORDINAL="2074" NAME="?DeInitialize@?$SafeMap@PAVHostOperation@@UEmpty@@V?$SafeMap_Iterator@PAVHostOperation@@UEmpty@@@@@@UAE_NAAVIRequestContext@@@Z" PURGE="4" COMMENT="" />
    <EXPORT ORDINAL="2075" NAME="?DeInitialize@?$SafeMap@PAVHostOperation@@UEmpty@@V?$SafeSet_Iterator@PAVHostOperation@@@@@@UAE_NAAVIRequestContext@@@Z" PURGE="4" COMMENT="" />
    <EXPORT ORDINAL="2076" NAME="?DeInitialize@?$SafeMap@PAVIOperation@@UEmpty@@V?$SafeMap_Iterator@PAVIOperation@@UEmpty@@@@@@UAE_NAAVIRequestContext@@@Z" PURGE="4" COMMENT="" />
    <EXPORT ORDINAL="2077" NAME="?DeInitialize@?$SafeMap@PAVIOperation@@UEmpty@@V?$SafeSet_Iterator@PAVIOperation@@@@@@UAE_NAAVIRequestContext@@@Z" PURGE="4" COMMENT="" />
    <EXPORT ORDINAL="2078" NAME="?DeInitialize@?$SafeMap@PAVListenerSourceSubscription@@UEmpty@@V?$SafeMap_Iterator@PAVListenerSourceSubscription@@UEmpty@@@@@@UAE_NAAVIRequestContext@@@Z" PURGE="4" COMMENT="" />
    <EXPORT ORDINAL="2079" NAME="?DeInitialize@?$SafeMap@PAVListenerSourceSubscription@@UEmpty@@V?$SafeSet_Iterator@PAVListenerSourceSubscription@@@@@@UAE_NAAVIRequestContext@@@Z" PURGE="4" COMMENT="" />
    <EXPORT ORDINAL="2080" NAME="?DeInitialize@?$SafeMap@PAVPushSubscription@@UEmpty@@V?$SafeMap_Iterator@PAVPushSubscription@@UEmpty@@@@@@UAE_NAAVIRequestContext@@@Z" PURGE="4" COMMENT="" />
    <EXPORT ORDINAL="2081" NAME="?DeInitialize@?$SafeMap@PAVPushSubscription@@UEmpty@@V?$SafeSet_Iterator@PAVPushSubscription@@@@@@UAE_NAAVIRequestContext@@@Z" PURGE="4" COMMENT="" />
    <EXPORT ORDINAL="2082" NAME="?DeInitialize@?$SafeMap@PAXUEmpty@@V?$SafeSet_Iterator@PAX@@@@UAE_NAAVIRequestContext@@@Z" PURGE="4" COMMENT="" />
    <EXPORT ORDINAL="2083" NAME="?DeInitialize@?$SafeMap@UPluginKey@@KV?$SafeMap_Iterator@UPluginKey@@K@@@@UAE_NAAVIRequestContext@@@Z" PURGE="4" COMMENT="" />
    <EXPORT ORDINAL="2084" NAME="?DeInitialize@?$SafeMap@UUserKey@@PAVBlockedRecord@@V?$SafeMap_Iterator@UUserKey@@PAVBlockedRecord@@@@@@UAE_NAAVIRequestContext@@@Z" PURGE="4" COMMENT="" />
    <EXPORT ORDINAL="2085" NAME="?DeInitialize@?$SafeMap@VCertThumbprintKey@@VCertThumbprintMappedSet@CServiceConfigSettings@@V?$SafeMap_Iterator@VCertThumbprintKey@@VCertThumbprintMappedSet@CServiceConfigSettings@@@@@@UAE_NAAVIRequestContext@@@Z" PURGE="4" COMMENT="" />
    <EXPORT ORDINAL="2086" NAME="?DeInitialize@?$SafeMap@VGuidKey@@PAVCListenerCommand@@V?$SafeMap_Iterator@VGuidKey@@PAVCListenerCommand@@@@@@UAE_NAAVIRequestContext@@@Z" PURGE="4" COMMENT="" />
    <EXPORT ORDINAL="2087" NAME="?DeInitialize@?$SafeMap@VKey@CWmiPtrCache@@VMapping@2@V?$SafeMap_Iterator@VKey@CWmiPtrCache@@VMapping@2@@@@@UAE_NAAVIRequestContext@@@Z" PURGE="4" COMMENT="" />
    <EXPORT ORDINAL="2088" NAME="?DeInitialize@?$SafeMap@VKey@Locale@@KV?$SafeMap_Iterator@VKey@Locale@@K@@@@UAE_NAAVIRequestContext@@@Z" PURGE="4" COMMENT="" />
    <EXPORT ORDINAL="2089" NAME="?DeInitialize@?$SafeMap@VStringKey@@PAVListenerEvents@@V?$SafeMap_Iterator@VStringKey@@PAVListenerEvents@@@@@@UAE_NAAVIRequestContext@@@Z" PURGE="4" COMMENT="" />
    <EXPORT ORDINAL="2090" NAME="?DeInitialize@?$SafeMap@VStringKey@@PAVListenerSourceSubscription@@V?$SafeMap_Iterator@VStringKey@@PAVListenerSourceSubscription@@@@@@UAE_NAAVIRequestContext@@@Z" PURGE="4" COMMENT="" />
    <EXPORT ORDINAL="2091" NAME="?DeInitialize@?$SafeMap@VStringKey@@UOption@WinRM_OperationOptions@@V?$SafeMap_Iterator@VStringKey@@UOption@WinRM_OperationOptions@@@@@@UAE_NAAVIRequestContext@@@Z" PURGE="4" COMMENT="" />
    <EXPORT ORDINAL="2092" NAME="?DeInitialize@?$SafeMap@VStringKeyCI@@KV?$SafeMap_Iterator@VStringKeyCI@@K@@@@UAE_NAAVIRequestContext@@@Z" PURGE="4" COMMENT="" />
    <EXPORT ORDINAL="2093" NAME="?DeInitialize@?$SafeMap@VStringKeyCI@@PAVIISEndpoint@@V?$SafeMap_Iterator@VStringKeyCI@@PAVIISEndpoint@@@@@@UAE_NAAVIRequestContext@@@Z" PURGE="4" COMMENT="" />
    <EXPORT ORDINAL="2094" NAME="?DeInitialize@?$SafeMap@VStringKeyCI@@UEmpty@@V?$SafeMap_Iterator@VStringKeyCI@@UEmpty@@@@@@UAE_NAAVIRequestContext@@@Z" PURGE="4" COMMENT="" />
    <EXPORT ORDINAL="2095" NAME="?DeInitialize@?$SafeMap@VStringKeyCI@@UEmpty@@V?$SafeSet_Iterator@VStringKeyCI@@@@@@UAE_NAAVIRequestContext@@@Z" PURGE="4" COMMENT="" />
    <EXPORT ORDINAL="2096" NAME="?DeInitialize@?$SafeMap@VStringKeyCI@@UUSER_CONTEXT_INFO@WSManHttpListener@@V?$SafeMap_Iterator@VStringKeyCI@@UUSER_CONTEXT_INFO@WSManHttpListener@@@@@@UAE_NAAVIRequestContext@@@Z" PURGE="4" COMMENT="" />
    <EXPORT ORDINAL="2097" NAME="?DeInitialize@?$SafeMap@VStringKeyStore@@PAVExpiredOperationIdRecord@@V?$SafeMap_Iterator@VStringKeyStore@@PAVExpiredOperationIdRecord@@@@@@UAE_NAAVIRequestContext@@@Z" PURGE="4" COMMENT="" />
    <EXPORT ORDINAL="2098" NAME="?DeInitialize@?$SafeMap@VStringKeyStore@@PAVServerFullDuplexChannel@@V?$SafeMap_Iterator@VStringKeyStore@@PAVServerFullDuplexChannel@@@@@@UAE_NAAVIRequestContext@@@Z" PURGE="4" COMMENT="" />
    <EXPORT ORDINAL="2099" NAME="?DeInitialize@?$SafeMap@VTokenCacheKey@ServiceSoapProcessor@@VTokenCacheMapping@2@V?$SafeMap_Iterator@VTokenCacheKey@ServiceSoapProcessor@@VTokenCacheMapping@2@@@@@UAE_NAAVIRequestContext@@@Z" PURGE="4" COMMENT="" />
    <EXPORT ORDINAL="2100" NAME="?DeInitialize@?$SafeMap@W4WSManSessionOption@@PAVOptionValue@SessionOptions@Client@WSMan@@V?$SafeMap_Iterator@W4WSManSessionOption@@PAVOptionValue@SessionOptions@Client@WSMan@@@@@@UAE_NAAVIRequestContext@@@Z" PURGE="4" COMMENT="" />
    <EXPORT ORDINAL="2101" NAME="?DeInitialize@?$SafeMap@_KPAVSendPacketArgs@RobustConnectionBuffer@@V?$SafeMap_Iterator@_KPAVSendPacketArgs@RobustConnectionBuffer@@@@@@UAE_NAAVIRequestContext@@@Z" PURGE="4" COMMENT="" />
    <EXPORT ORDINAL="2102" NAME="?DeInitialize@CWSManGroupPolicyManager@@AAEHXZ" PURGE="0" COMMENT="" />
    <EXPORT ORDINAL="2103" NAME="?DeInitialize@EventHandler@WSMan@@QAE_NAAVIRequestContext@@@Z" PURGE="4" COMMENT="" />
    <EXPORT ORDINAL="2104" NAME="?Debug@ExtendedSemantic@@2KB" PURGE="56324" COMMENT="" />
    <EXPORT ORDINAL="2105" NAME="?Decode@PacketFormatter@@QBEKPAPAVPacket@@_N@Z" PURGE="8" COMMENT="" />
    <EXPORT ORDINAL="2106" NAME="?DecodeFaultObject@CRequestContext@@AAEKPAU_FWXML_ELEMENT@@AAPBG11@Z" PURGE="16" COMMENT="" />
    <EXPORT ORDINAL="2107" NAME="?DecodeFaultObject@CRequestContext@@AAEKPBGKAAPBG11@Z" PURGE="20" COMMENT="" />
    <EXPORT ORDINAL="2108" NAME="?DecodeFaultObjectProvider@CRequestContext@@AAEKPAU_FWXML_ELEMENT@@AAPBG1@Z" PURGE="12" COMMENT="" />
    <EXPORT ORDINAL="2109" NAME="?DecodeFaultObjectProviderMessage@CRequestContext@@AAEKPAU_FWXML_ELEMENT@@AAPBG@Z" PURGE="8" COMMENT="" />
    <EXPORT ORDINAL="2110" NAME="?DecodeFaultReason@CRequestContext@@AAEKPAU_FWXML_ELEMENT@@AAPBG@Z" PURGE="8" COMMENT="" />
    <EXPORT ORDINAL="2111" NAME="?DecreaseProfileCount@UserRecord@@QAEXXZ" PURGE="0" COMMENT="" />
    <EXPORT ORDINAL="2112" NAME="?DeleteConfigKey@ConfigRegistry@@KGHPAVIRequestContext@@PBG1H@Z" PURGE="16" COMMENT="" />
    <EXPORT ORDINAL="2113" NAME="?DeleteCredentialsFromCredmanStore@CConfigManager@@SGHPAVIRequestContext@@PAG@Z" PURGE="8" COMMENT="" />
    <EXPORT ORDINAL="2114" NAME="?DeleteKey@@YGHPAVIRequestContext@@PBG1@Z" PURGE="12" COMMENT="" />
    <EXPORT ORDINAL="2115" NAME="?DeleteKey@ConfigRegistry@@KGHPAVIRequestContext@@PBGH@Z" PURGE="12" COMMENT="" />
    <EXPORT ORDINAL="2116" NAME="?DeleteSubkeys@ConfigRegistry@@KGHPAVIRequestContext@@PAUHKEY__@@PBGHH@Z" PURGE="20" COMMENT="" />
    <EXPORT ORDINAL="2117" NAME="?DeleteValues@ConfigRegistry@@KGHPAVIRequestContext@@PAUHKEY__@@@Z" PURGE="8" COMMENT="" />
    <EXPORT ORDINAL="2118" NAME="?Detach@?$AutoCleanup@V?$AutoDelete@G@@PAG@@QAEPAGXZ" PURGE="0" COMMENT="" />
    <EXPORT ORDINAL="2119" NAME="?Detach@?$AutoCleanup@V?$AutoDelete@UIPRange@CWSManIPFilter@@@@PAUIPRange@CWSManIPFilter@@@@QAEPAUIPRange@CWSManIPFilter@@XZ" PURGE="0" COMMENT="" />
    <EXPORT ORDINAL="2120" NAME="?Detach@?$AutoCleanup@V?$AutoDelete@U_WSMAN_STREAM_ID_SET@@@@PAU_WSMAN_STREAM_ID_SET@@@@QAEPAU_WSMAN_STREAM_ID_SET@@XZ" PURGE="0" COMMENT="" />
    <EXPORT ORDINAL="2121" NAME="?Detach@?$AutoCleanup@V?$AutoDelete@V?$Handle@VISubscription@@@@@@PAV?$Handle@VISubscription@@@@@@QAEPAV?$Handle@VISubscription@@@@XZ" PURGE="0" COMMENT="" />
    <EXPORT ORDINAL="2122" NAME="?Detach@?$AutoCleanup@V?$AutoDelete@V?$SafeSet@PAVCCertMapping@@@@@@PAV?$SafeSet@PAVCCertMapping@@@@@@QAEPAV?$SafeSet@PAVCCertMapping@@@@XZ" PURGE="0" COMMENT="" />
    <EXPORT ORDINAL="2123" NAME="?Detach@?$AutoCleanup@V?$AutoDelete@V?$SafeSet@PAVCShellUriSettings@@@@@@PAV?$SafeSet@PAVCShellUriSettings@@@@@@QAEPAV?$SafeSet@PAVCShellUriSettings@@@@XZ" PURGE="0" COMMENT="" />
    <EXPORT ORDINAL="2124" NAME="?Detach@?$AutoCleanup@V?$AutoDelete@V?$set@PAVCListenerSettings@@VCListenerSettingsLessFunctor@CServiceConfigSettings@@V?$transport_allocator@PAVCListenerSettings@@@@@std@@@@PAV?$set@PAVCListenerSettings@@VCListenerSettingsLessFunctor@CServiceConfigSettings@@V?$transport_allocator@PAVCListenerSettings@@@@@std@@@@QAEPAV?$set@PAVCListenerSettings@@VCListenerSettingsLessFunctor@CServiceConfigSettings@@V?$transport_allocator@PAVCListenerSettings@@@@@std@@XZ" PURGE="0" COMMENT="" />
    <EXPORT ORDINAL="2125" NAME="?Detach@?$AutoCleanup@V?$AutoDelete@VAdminSid@CSecurity@@@@PAVAdminSid@CSecurity@@@@QAEPAVAdminSid@CSecurity@@XZ" PURGE="0" COMMENT="" />
    <EXPORT ORDINAL="2126" NAME="?Detach@?$AutoCleanup@V?$AutoDelete@VBlockedRecord@@@@PAVBlockedRecord@@@@QAEPAVBlockedRecord@@XZ" PURGE="0" COMMENT="" />
    <EXPORT ORDINAL="2127" NAME="?Detach@?$AutoCleanup@V?$AutoDelete@VCBaseConfigCache@@@@PAVCBaseConfigCache@@@@QAEPAVCBaseConfigCache@@XZ" PURGE="0" COMMENT="" />
    <EXPORT ORDINAL="2128" NAME="?Detach@?$AutoCleanup@V?$AutoDelete@VCCertMapping@@@@PAVCCertMapping@@@@QAEPAVCCertMapping@@XZ" PURGE="0" COMMENT="" />
    <EXPORT ORDINAL="2129" NAME="?Detach@?$AutoCleanup@V?$AutoDelete@VCListenerSettings@@@@PAVCListenerSettings@@@@QAEPAVCListenerSettings@@XZ" PURGE="0" COMMENT="" />
    <EXPORT ORDINAL="2130" NAME="?Detach@?$AutoCleanup@V?$AutoDelete@VCServiceWatcher@CServiceConfigCache@@@@PAVCServiceWatcher@CServiceConfigCache@@@@QAEPAVCServiceWatcher@CServiceConfigCache@@XZ" PURGE="0" COMMENT="" />
    <EXPORT ORDINAL="2131" NAME="?Detach@?$AutoCleanup@V?$AutoDelete@VCShellUriSettings@@@@PAVCShellUriSettings@@@@QAEPAVCShellUriSettings@@XZ" PURGE="0" COMMENT="" />
    <EXPORT ORDINAL="2132" NAME="?Detach@?$AutoCleanup@V?$AutoDelete@VCWSManEPR@@@@PAVCWSManEPR@@@@QAEPAVCWSManEPR@@XZ" PURGE="0" COMMENT="" />
    <EXPORT ORDINAL="2133" NAME="?Detach@?$AutoCleanup@V?$AutoDelete@VCWSManResource@@@@PAVCWSManResource@@@@QAEPAVCWSManResource@@XZ" PURGE="0" COMMENT="" />
    <EXPORT ORDINAL="2134" NAME="?Detach@?$AutoCleanup@V?$AutoDelete@VCertHash@@@@PAVCertHash@@@@QAEPAVCertHash@@XZ" PURGE="0" COMMENT="" />
    <EXPORT ORDINAL="2135" NAME="?Detach@?$AutoCleanup@V?$AutoDelete@VConfigUpdate@@@@PAVConfigUpdate@@@@QAEPAVConfigUpdate@@XZ" PURGE="0" COMMENT="" />
    <EXPORT ORDINAL="2136" NAME="?Detach@?$AutoCleanup@V?$AutoDelete@VEnumSinkEx@@@@PAVEnumSinkEx@@@@QAEPAVEnumSinkEx@@XZ" PURGE="0" COMMENT="" />
    <EXPORT ORDINAL="2137" NAME="?Detach@?$AutoCleanup@V?$AutoDelete@VEventHandler@WSMan@@@@PAVEventHandler@WSMan@@@@QAEPAVEventHandler@WSMan@@XZ" PURGE="0" COMMENT="" />
    <EXPORT ORDINAL="2138" NAME="?Detach@?$AutoCleanup@V?$AutoDelete@VExpiredOperationIdRecord@@@@PAVExpiredOperationIdRecord@@@@QAEPAVExpiredOperationIdRecord@@XZ" PURGE="0" COMMENT="" />
    <EXPORT ORDINAL="2139" NAME="?Detach@?$AutoCleanup@V?$AutoDelete@VGeneralSinkEx@@@@PAVGeneralSinkEx@@@@QAEPAVGeneralSinkEx@@XZ" PURGE="0" COMMENT="" />
    <EXPORT ORDINAL="2140" NAME="?Detach@?$AutoCleanup@V?$AutoDelete@VIQueryDASHSMASHInterface@@@@PAVIQueryDASHSMASHInterface@@@@QAEPAVIQueryDASHSMASHInterface@@XZ" PURGE="0" COMMENT="" />
    <EXPORT ORDINAL="2141" NAME="?Detach@?$AutoCleanup@V?$AutoDelete@VISpecification@@@@PAVISpecification@@@@QAEPAVISpecification@@XZ" PURGE="0" COMMENT="" />
    <EXPORT ORDINAL="2142" NAME="?Detach@?$AutoCleanup@V?$AutoDelete@VInteractiveSid@CSecurity@@@@PAVInteractiveSid@CSecurity@@@@QAEPAVInteractiveSid@CSecurity@@XZ" PURGE="0" COMMENT="" />
    <EXPORT ORDINAL="2143" NAME="?Detach@?$AutoCleanup@V?$AutoDelete@VIpHlpApiDllLoader@@@@PAVIpHlpApiDllLoader@@@@QAEPAVIpHlpApiDllLoader@@XZ" PURGE="0" COMMENT="" />
    <EXPORT ORDINAL="2144" NAME="?Detach@?$AutoCleanup@V?$AutoDelete@VMachineName@@@@PAVMachineName@@@@QAEPAVMachineName@@XZ" PURGE="0" COMMENT="" />
    <EXPORT ORDINAL="2145" NAME="?Detach@?$AutoCleanup@V?$AutoDelete@VNetworkServiceSid@CSecurity@@@@PAVNetworkServiceSid@CSecurity@@@@QAEPAVNetworkServiceSid@CSecurity@@XZ" PURGE="0" COMMENT="" />
    <EXPORT ORDINAL="2146" NAME="?Detach@?$AutoCleanup@V?$AutoDelete@VNtDsApiDllLoader@@@@PAVNtDsApiDllLoader@@@@QAEPAVNtDsApiDllLoader@@XZ" PURGE="0" COMMENT="" />
    <EXPORT ORDINAL="2147" NAME="?Detach@?$AutoCleanup@V?$AutoDelete@VOptionValue@SessionOptions@Client@WSMan@@@@PAVOptionValue@SessionOptions@Client@WSMan@@@@QAEPAVOptionValue@SessionOptions@Client@WSMan@@XZ" PURGE="0" COMMENT="" />
    <EXPORT ORDINAL="2148" NAME="?Detach@?$AutoCleanup@V?$AutoDelete@VResources@Locale@@@@PAVResources@Locale@@@@QAEPAVResources@Locale@@XZ" PURGE="0" COMMENT="" />
    <EXPORT ORDINAL="2149" NAME="?Detach@?$AutoCleanup@V?$AutoDelete@VSecurityEntry@Catalog@@@@PAVSecurityEntry@Catalog@@@@QAEPAVSecurityEntry@Catalog@@XZ" PURGE="0" COMMENT="" />
    <EXPORT ORDINAL="2150" NAME="?Detach@?$AutoCleanup@V?$AutoDelete@VServiceSoapProcessor@@@@PAVServiceSoapProcessor@@@@QAEPAVServiceSoapProcessor@@XZ" PURGE="0" COMMENT="" />
    <EXPORT ORDINAL="2151" NAME="?Detach@?$AutoCleanup@V?$AutoDelete@VShell32DllLoader@@@@PAVShell32DllLoader@@@@QAEPAVShell32DllLoader@@XZ" PURGE="0" COMMENT="" />
    <EXPORT ORDINAL="2152" NAME="?Detach@?$AutoCleanup@V?$AutoDelete@VShlWApiDllLoader@@@@PAVShlWApiDllLoader@@@@QAEPAVShlWApiDllLoader@@XZ" PURGE="0" COMMENT="" />
    <EXPORT ORDINAL="2153" NAME="?Detach@?$AutoCleanup@V?$AutoDelete@VSubscriptionManager@@@@PAVSubscriptionManager@@@@QAEPAVSubscriptionManager@@XZ" PURGE="0" COMMENT="" />
    <EXPORT ORDINAL="2154" NAME="?Detach@?$AutoCleanup@V?$AutoDelete@VTSTRBUFFER@@@@PAVTSTRBUFFER@@@@QAEPAVTSTRBUFFER@@XZ" PURGE="0" COMMENT="" />
    <EXPORT ORDINAL="2155" NAME="?Detach@?$AutoCleanup@V?$AutoDelete@VUser32DllLoader@@@@PAVUser32DllLoader@@@@QAEPAVUser32DllLoader@@XZ" PURGE="0" COMMENT="" />
    <EXPORT ORDINAL="2156" NAME="?Detach@?$AutoCleanup@V?$AutoDelete@VWSManMemCryptManager@@@@PAVWSManMemCryptManager@@@@QAEPAVWSManMemCryptManager@@XZ" PURGE="0" COMMENT="" />
    <EXPORT ORDINAL="2157" NAME="?Detach@?$AutoCleanup@V?$AutoDelete@VWmiEnumContext@@@@PAVWmiEnumContext@@@@QAEPAVWmiEnumContext@@XZ" PURGE="0" COMMENT="" />
    <EXPORT ORDINAL="2158" NAME="?Detach@?$AutoCleanup@V?$AutoDelete@VXmlReader@@@@PAVXmlReader@@@@QAEPAVXmlReader@@XZ" PURGE="0" COMMENT="" />
    <EXPORT ORDINAL="2159" NAME="?Detach@?$AutoCleanup@V?$AutoDeleteVector@$$CBG@@PBG@@QAEPBGXZ" PURGE="0" COMMENT="" />
    <EXPORT ORDINAL="2160" NAME="?Detach@?$AutoCleanup@V?$AutoDeleteVector@D@@PAD@@QAEPADXZ" PURGE="0" COMMENT="" />
    <EXPORT ORDINAL="2161" NAME="?Detach@?$AutoCleanup@V?$AutoDeleteVector@E@@PAE@@QAEPAEXZ" PURGE="0" COMMENT="" />
    <EXPORT ORDINAL="2162" NAME="?Detach@?$AutoCleanup@V?$AutoDeleteVector@G@@PAG@@QAEPAGXZ" PURGE="0" COMMENT="" />
    <EXPORT ORDINAL="2163" NAME="?Detach@?$AutoCleanup@V?$AutoDeleteVector@PAG@@PAPAG@@QAEPAPAGXZ" PURGE="0" COMMENT="" />
    <EXPORT ORDINAL="2164" NAME="?Detach@?$AutoCleanup@V?$AutoDeleteVector@PBG@@PAPBG@@QAEPAPBGXZ" PURGE="0" COMMENT="" />
    <EXPORT ORDINAL="2165" NAME="?Detach@?$AutoCleanup@V?$AutoDeleteVector@U_WINRS_CREATE_SHELL_ENVIRONMENT_VARIABLE@@@@PAU_WINRS_CREATE_SHELL_ENVIRONMENT_VARIABLE@@@@QAEPAU_WINRS_CREATE_SHELL_ENVIRONMENT_VARIABLE@@XZ" PURGE="0" COMMENT="" />
    <EXPORT ORDINAL="2166" NAME="?Detach@?$AutoCleanup@V?$AutoDeleteVector@U_WINRS_RUN_COMMAND_ARG@@@@PAU_WINRS_RUN_COMMAND_ARG@@@@QAEPAU_WINRS_RUN_COMMAND_ARG@@XZ" PURGE="0" COMMENT="" />
    <EXPORT ORDINAL="2167" NAME="?Detach@?$AutoCleanup@V?$AutoDeleteVector@U_WSMAN_OPTION@@@@PAU_WSMAN_OPTION@@@@QAEPAU_WSMAN_OPTION@@XZ" PURGE="0" COMMENT="" />
    <EXPORT ORDINAL="2168" NAME="?Detach@?$AutoCleanup@V?$AutoFree@E@@PAE@@QAEPAEXZ" PURGE="0" COMMENT="" />
    <EXPORT ORDINAL="2169" NAME="?Detach@?$AutoCleanup@V?$AutoLocklessItemRecycle@VPacket@@@@PAVPacket@@@@QAEPAVPacket@@XZ" PURGE="0" COMMENT="" />
    <EXPORT ORDINAL="2170" NAME="?Detach@?$AutoCleanup@V?$AutoRelease@UIClientSecurity@@@@PAUIClientSecurity@@@@QAEPAUIClientSecurity@@XZ" PURGE="0" COMMENT="" />
    <EXPORT ORDINAL="2171" NAME="?Detach@?$AutoCleanup@V?$AutoRelease@UIEnumWbemClassObject@@@@PAUIEnumWbemClassObject@@@@QAEPAUIEnumWbemClassObject@@XZ" PURGE="0" COMMENT="" />
    <EXPORT ORDINAL="2172" NAME="?Detach@?$AutoCleanup@V?$AutoRelease@UIErrorInfo@@@@PAUIErrorInfo@@@@QAEPAUIErrorInfo@@XZ" PURGE="0" COMMENT="" />
    <EXPORT ORDINAL="2173" NAME="?Detach@?$AutoCleanup@V?$AutoRelease@UIUnknown@@@@PAUIUnknown@@@@QAEPAUIUnknown@@XZ" PURGE="0" COMMENT="" />
    <EXPORT ORDINAL="2174" NAME="?Detach@?$AutoCleanup@V?$AutoRelease@UIWbemClassObject@@@@PAUIWbemClassObject@@@@QAEPAUIWbemClassObject@@XZ" PURGE="0" COMMENT="" />
    <EXPORT ORDINAL="2175" NAME="?Detach@?$AutoCleanup@V?$AutoRelease@UIWbemContext@@@@PAUIWbemContext@@@@QAEPAUIWbemContext@@XZ" PURGE="0" COMMENT="" />
    <EXPORT ORDINAL="2176" NAME="?Detach@?$AutoCleanup@V?$AutoRelease@UIWbemLocator@@@@PAUIWbemLocator@@@@QAEPAUIWbemLocator@@XZ" PURGE="0" COMMENT="" />
    <EXPORT ORDINAL="2177" NAME="?Detach@?$AutoCleanup@V?$AutoRelease@UIWbemObjectTextSrc@@@@PAUIWbemObjectTextSrc@@@@QAEPAUIWbemObjectTextSrc@@XZ" PURGE="0" COMMENT="" />
    <EXPORT ORDINAL="2178" NAME="?Detach@?$AutoCleanup@V?$AutoRelease@UIWbemPath@@@@PAUIWbemPath@@@@QAEPAUIWbemPath@@XZ" PURGE="0" COMMENT="" />
    <EXPORT ORDINAL="2179" NAME="?Detach@?$AutoCleanup@V?$AutoRelease@UIWbemPathKeyList@@@@PAUIWbemPathKeyList@@@@QAEPAUIWbemPathKeyList@@XZ" PURGE="0" COMMENT="" />
    <EXPORT ORDINAL="2180" NAME="?Detach@?$AutoCleanup@V?$AutoRelease@UIWbemQualifierSet@@@@PAUIWbemQualifierSet@@@@QAEPAUIWbemQualifierSet@@XZ" PURGE="0" COMMENT="" />
    <EXPORT ORDINAL="2181" NAME="?Detach@?$AutoCleanup@V?$AutoRelease@UIWbemQuery@@@@PAUIWbemQuery@@@@QAEPAUIWbemQuery@@XZ" PURGE="0" COMMENT="" />
    <EXPORT ORDINAL="2182" NAME="?Detach@?$AutoCleanup@V?$AutoRelease@UIWbemServices@@@@PAUIWbemServices@@@@QAEPAUIWbemServices@@XZ" PURGE="0" COMMENT="" />
    <EXPORT ORDINAL="2183" NAME="?Detach@?$AutoCleanup@V?$AutoRelease@VApplication@Client@WSMan@@@@PAVApplication@Client@WSMan@@@@QAEPAVApplication@Client@WSMan@@XZ" PURGE="0" COMMENT="" />
    <EXPORT ORDINAL="2184" NAME="?Detach@?$AutoCleanup@V?$AutoRelease@VCBaseConfigCache@@@@PAVCBaseConfigCache@@@@QAEPAVCBaseConfigCache@@XZ" PURGE="0" COMMENT="" />
    <EXPORT ORDINAL="2185" NAME="?Detach@?$AutoCleanup@V?$AutoRelease@VCClientConfigSettings@@@@PAVCClientConfigSettings@@@@QAEPAVCClientConfigSettings@@XZ" PURGE="0" COMMENT="" />
    <EXPORT ORDINAL="2186" NAME="?Detach@?$AutoCleanup@V?$AutoRelease@VCCommonConfigSettings@@@@PAVCCommonConfigSettings@@@@QAEPAVCCommonConfigSettings@@XZ" PURGE="0" COMMENT="" />
    <EXPORT ORDINAL="2187" NAME="?Detach@?$AutoCleanup@V?$AutoRelease@VCConfigManager@@@@PAVCConfigManager@@@@QAEPAVCConfigManager@@XZ" PURGE="0" COMMENT="" />
    <EXPORT ORDINAL="2188" NAME="?Detach@?$AutoCleanup@V?$AutoRelease@VCRemoteSession@@@@PAVCRemoteSession@@@@QAEPAVCRemoteSession@@XZ" PURGE="0" COMMENT="" />
    <EXPORT ORDINAL="2189" NAME="?Detach@?$AutoCleanup@V?$AutoRelease@VCRequestContext@@@@PAVCRequestContext@@@@QAEPAVCRequestContext@@XZ" PURGE="0" COMMENT="" />
    <EXPORT ORDINAL="2190" NAME="?Detach@?$AutoCleanup@V?$AutoRelease@VCServiceConfigSettings@@@@PAVCServiceConfigSettings@@@@QAEPAVCServiceConfigSettings@@XZ" PURGE="0" COMMENT="" />
    <EXPORT ORDINAL="2191" NAME="?Detach@?$AutoCleanup@V?$AutoRelease@VCWSManEPR@@@@PAVCWSManEPR@@@@QAEPAVCWSManEPR@@XZ" PURGE="0" COMMENT="" />
    <EXPORT ORDINAL="2192" NAME="?Detach@?$AutoCleanup@V?$AutoRelease@VCWSManGroupPolicyCache@@@@PAVCWSManGroupPolicyCache@@@@QAEPAVCWSManGroupPolicyCache@@XZ" PURGE="0" COMMENT="" />
    <EXPORT ORDINAL="2193" NAME="?Detach@?$AutoCleanup@V?$AutoRelease@VCWSManGroupPolicyManager@@@@PAVCWSManGroupPolicyManager@@@@QAEPAVCWSManGroupPolicyManager@@XZ" PURGE="0" COMMENT="" />
    <EXPORT ORDINAL="2194" NAME="?Detach@?$AutoCleanup@V?$AutoRelease@VCWSManObject@@@@PAVCWSManObject@@@@QAEPAVCWSManObject@@XZ" PURGE="0" COMMENT="" />
    <EXPORT ORDINAL="2195" NAME="?Detach@?$AutoCleanup@V?$AutoRelease@VCWinRSPluginConfigCache@@@@PAVCWinRSPluginConfigCache@@@@QAEPAVCWinRSPluginConfigCache@@XZ" PURGE="0" COMMENT="" />
    <EXPORT ORDINAL="2196" NAME="?Detach@?$AutoCleanup@V?$AutoRelease@VCWinRSPluginConfigSettings@@@@PAVCWinRSPluginConfigSettings@@@@QAEPAVCWinRSPluginConfigSettings@@XZ" PURGE="0" COMMENT="" />
    <EXPORT ORDINAL="2197" NAME="?Detach@?$AutoCleanup@V?$AutoRelease@VCommand@Client@WSMan@@@@PAVCommand@Client@WSMan@@@@QAEPAVCommand@Client@WSMan@@XZ" PURGE="0" COMMENT="" />
    <EXPORT ORDINAL="2198" NAME="?Detach@?$AutoCleanup@V?$AutoRelease@VEnumSinkEx@@@@PAVEnumSinkEx@@@@QAEPAVEnumSinkEx@@XZ" PURGE="0" COMMENT="" />
    <EXPORT ORDINAL="2199" NAME="?Detach@?$AutoCleanup@V?$AutoRelease@VGeneralSinkEx@@@@PAVGeneralSinkEx@@@@QAEPAVGeneralSinkEx@@XZ" PURGE="0" COMMENT="" />
    <EXPORT ORDINAL="2200" NAME="?Detach@?$AutoCleanup@V?$AutoRelease@VIPCSoapProcessor@@@@PAVIPCSoapProcessor@@@@QAEPAVIPCSoapProcessor@@XZ" PURGE="0" COMMENT="" />
    <EXPORT ORDINAL="2201" NAME="?Detach@?$AutoCleanup@V?$AutoRelease@VIRequestContext@@@@PAVIRequestContext@@@@QAEPAVIRequestContext@@XZ" PURGE="0" COMMENT="" />
    <EXPORT ORDINAL="2202" NAME="?Detach@?$AutoCleanup@V?$AutoRelease@VReceiveOperation@Client@WSMan@@@@PAVReceiveOperation@Client@WSMan@@@@QAEPAVReceiveOperation@Client@WSMan@@XZ" PURGE="0" COMMENT="" />
    <EXPORT ORDINAL="2203" NAME="?Detach@?$AutoCleanup@V?$AutoRelease@VSendOperation@Client@WSMan@@@@PAVSendOperation@Client@WSMan@@@@QAEPAVSendOperation@Client@WSMan@@XZ" PURGE="0" COMMENT="" />
    <EXPORT ORDINAL="2204" NAME="?Detach@?$AutoCleanup@V?$AutoRelease@VShell@Client@WSMan@@@@PAVShell@Client@WSMan@@@@QAEPAVShell@Client@WSMan@@XZ" PURGE="0" COMMENT="" />
    <EXPORT ORDINAL="2205" NAME="?Detach@?$AutoCleanup@V?$AutoRelease@VSignalOperation@Client@WSMan@@@@PAVSignalOperation@Client@WSMan@@@@QAEPAVSignalOperation@Client@WSMan@@XZ" PURGE="0" COMMENT="" />
    <EXPORT ORDINAL="2206" NAME="?Detach@?$AutoCleanup@VAutoBstrNoAlloc@@PAG@@QAEPAGXZ" PURGE="0" COMMENT="" />
    <EXPORT ORDINAL="2207" NAME="?Detach@?$AutoCleanup@VAutoCertContext@@PBU_CERT_CONTEXT@@@@QAEPBU_CERT_CONTEXT@@XZ" PURGE="0" COMMENT="" />
    <EXPORT ORDINAL="2208" NAME="?Detach@?$AutoCleanup@VAutoHandle@@PAX@@QAEPAXXZ" PURGE="0" COMMENT="" />
    <EXPORT ORDINAL="2209" NAME="?Detach@?$AutoCleanup@VAutoImpersonateUser@@PAX@@QAEPAXXZ" PURGE="0" COMMENT="" />
    <EXPORT ORDINAL="2210" NAME="?Detach@?$AutoCleanup@VAutoLocalFree@@PAX@@QAEPAXXZ" PURGE="0" COMMENT="" />
    <EXPORT ORDINAL="2211" NAME="?Detach@?$AutoCleanup@VAutoMIClass@@PAU_MI_Class@@@@QAEPAU_MI_Class@@XZ" PURGE="0" COMMENT="" />
    <EXPORT ORDINAL="2212" NAME="?Detach@?$AutoCleanup@VAutoMIInstance@@PAU_MI_Instance@@@@QAEPAU_MI_Instance@@XZ" PURGE="0" COMMENT="" />
    <EXPORT ORDINAL="2213" NAME="?Detach@?$AutoCleanup@VAutoRegKey@@PAUHKEY__@@@@QAEPAUHKEY__@@XZ" PURGE="0" COMMENT="" />
    <EXPORT ORDINAL="2214" NAME="?Detach@?$AutoCleanup@VAutoSecurityDescriptor@@PAX@@QAEPAXXZ" PURGE="0" COMMENT="" />
    <EXPORT ORDINAL="2215" NAME="?Detach@?$AutoCleanup@VAutoWaitHandle@@PAX@@QAEPAXXZ" PURGE="0" COMMENT="" />
    <EXPORT ORDINAL="2216" NAME="?Detach@BufferFormatter@@QAEPAEXZ" PURGE="0" COMMENT="" />
    <EXPORT ORDINAL="2217" NAME="?Discard@CServiceWatcher@CServiceConfigCache@@QAEXXZ" PURGE="0" COMMENT="" />
    <EXPORT ORDINAL="2218" NAME="?DoOnChange@CBaseConfigCache@@IAEXW4ConfigChangeSources@@KW4ConfigChangeSeverityType@@@Z" PURGE="12" COMMENT="" />
    <EXPORT ORDINAL="2219" NAME="?DoesThreadOwnLock@CWSManCriticalSection@@QAEHXZ" PURGE="0" COMMENT="" />
    <EXPORT ORDINAL="2220" NAME="?Down@?$LoaderSerializer@VSubscriptionManager@@$01@@AAEJXZ" PURGE="0" COMMENT="" />
    <EXPORT ORDINAL="2221" NAME="?DropData@CircularBufferFormatter@@QAEXK@Z" PURGE="4" COMMENT="" />
    <EXPORT ORDINAL="2222" NAME="?DuplicateCurrentToken@CSecurity@@SGHPAPAXKPAU_SECURITY_ATTRIBUTES@@W4_SECURITY_IMPERSONATION_LEVEL@@W4_TOKEN_TYPE@@H@Z" PURGE="24" COMMENT="" />
    <EXPORT ORDINAL="2223" NAME="EnableAllPrivileges" PURGE="4" COMMENT="" />
    <EXPORT ORDINAL="2224" NAME="?Encode@PacketFormatter@@QBEKPAPAVPacket@@@Z" PURGE="4" COMMENT="" />
    <EXPORT ORDINAL="2225" NAME="?Encode@PacketFormatter@@QBEKPBGKPAEKPAPAEPAK_N@Z" PURGE="28" COMMENT="" />
    <EXPORT ORDINAL="2226" NAME="?EndOfStream@PacketParser@@QAEXK@Z" PURGE="4" COMMENT="" />
    <EXPORT ORDINAL="2227" NAME="?EndRevertToSelf@CSecurity@@SGHPAX@Z" PURGE="4" COMMENT="" />
    <EXPORT ORDINAL="2228" NAME="?EnsureActivityIdOnThread@EventHandler@WSMan@@SGXXZ" PURGE="0" COMMENT="" />
    <EXPORT ORDINAL="2229" NAME="?EnsureNoActiveCaches@CClientConfigCache@@SGXXZ" PURGE="0" COMMENT="" />
    <EXPORT ORDINAL="2230" NAME="?EnsureNoActiveCaches@CServiceConfigCache@@SGXXZ" PURGE="0" COMMENT="" />
    <EXPORT ORDINAL="2231" NAME="?Error@EventLog@@SGXK@Z" PURGE="4" COMMENT="" />
    <EXPORT ORDINAL="2232" NAME="?Error@EventLog@@SGXKGPAPBG@Z" PURGE="12" COMMENT="" />
    <EXPORT ORDINAL="2233" NAME="?Error@EventLog@@SGXKPBG@Z" PURGE="8" COMMENT="" />
    <EXPORT ORDINAL="2234" NAME="?ErrorAction@ExtendedSemantic@@2KB" PURGE="56324" COMMENT="" />
    <EXPORT ORDINAL="2235" NAME="?EventEnabled@EventHandler@WSMan@@AAE_NABU_EVENT_DESCRIPTOR@@@Z" PURGE="4" COMMENT="" />
    <EXPORT ORDINAL="2236" NAME="?EventProviderEnabled@EventHandler@WSMan@@AAE_NXZ" PURGE="0" COMMENT="" />
    <EXPORT ORDINAL="2237" NAME="?EventWrite@EventHandler@WSMan@@AAEXABU_EVENT_DESCRIPTOR@@KPAU_EVENT_DATA_DESCRIPTOR@@@Z" PURGE="12" COMMENT="" />
    <EXPORT ORDINAL="2238" NAME="?ExtractContextId@PacketParser@@QAEHPAPBGKPBG@Z" PURGE="12" COMMENT="" />
    <EXPORT ORDINAL="2239" NAME="?ExtractShellId@PacketParser@@QAEHPAVCRequestContext@@PAGK@Z" PURGE="12" COMMENT="" />
    <EXPORT ORDINAL="2240" NAME="?ExtractSidFromToken@CSecurity@@SGHPAVIRequestContext@@PAXAAVAutoLocalFree@@@Z" PURGE="12" COMMENT="" />
    <EXPORT ORDINAL="2241" NAME="?FindExisting@CBaseConfigCache@@CGPAV1@PAVCConfigCacheMap@1@PBGW4ErrorLogging@@@Z" PURGE="12" COMMENT="" />
    <EXPORT ORDINAL="2242" NAME="?FindMatch@CResourceAlias@@AAEPAU_ALIAS_INFORMATION@@PBG@Z" PURGE="4" COMMENT="" />
    <EXPORT ORDINAL="2243" NAME="?First@TSTRBUFFER@@QBEPBGXZ" PURGE="0" COMMENT="" />
    <EXPORT ORDINAL="2244" NAME="?Format@Locale@@ABE_NKPAPADPAPAXPAGKGW4CallSiteId@@@Z" PURGE="28" COMMENT="" />
    <EXPORT ORDINAL="2245" NAME="?FormatDataDescriptor@EventHandler@WSMan@@SGXAAU_EVENT_DATA_DESCRIPTOR@@AAG@Z" PURGE="8" COMMENT="" />
    <EXPORT ORDINAL="2246" NAME="?FormatDataDescriptor@EventHandler@WSMan@@SGXAAU_EVENT_DATA_DESCRIPTOR@@AAJ@Z" PURGE="8" COMMENT="" />
    <EXPORT ORDINAL="2247" NAME="?FormatDataDescriptor@EventHandler@WSMan@@SGXAAU_EVENT_DATA_DESCRIPTOR@@AAK@Z" PURGE="8" COMMENT="" />
    <EXPORT ORDINAL="2248" NAME="?FormatDataDescriptor@EventHandler@WSMan@@SGXAAU_EVENT_DATA_DESCRIPTOR@@PBD@Z" PURGE="8" COMMENT="" />
    <EXPORT ORDINAL="2249" NAME="?FormatDataDescriptor@EventHandler@WSMan@@SGXAAU_EVENT_DATA_DESCRIPTOR@@PBG@Z" PURGE="8" COMMENT="" />
    <EXPORT ORDINAL="2250" NAME="?FormatWithFallback@Locale@@ABE_NKPAPAD0PAPAXPAGK@Z" PURGE="24" COMMENT="" />
    <EXPORT ORDINAL="2251" NAME="?Free@WSManMemory@@SGXPAXH@Z" PURGE="8" COMMENT="" />
    <EXPORT ORDINAL="2252" NAME="?FreeBstr@WSManMemory@@SGXPAGHH@Z" PURGE="12" COMMENT="" />
    <EXPORT ORDINAL="2253" NAME="?FreeInstance@?$ILoader@VAdminSid@CSecurity@@@@QAE_NAAVIRequestContext@@_N@Z" PURGE="8" COMMENT="" />
    <EXPORT ORDINAL="2254" NAME="?FreeInstance@?$ILoader@VEventHandler@WSMan@@@@QAE_NAAVIRequestContext@@_N@Z" PURGE="8" COMMENT="" />
    <EXPORT ORDINAL="2255" NAME="?FreeInstance@?$ILoader@VInteractiveSid@CSecurity@@@@QAE_NAAVIRequestContext@@_N@Z" PURGE="8" COMMENT="" />
    <EXPORT ORDINAL="2256" NAME="?FreeInstance@?$ILoader@VIpHlpApiDllLoader@@@@QAE_NAAVIRequestContext@@_N@Z" PURGE="8" COMMENT="" />
    <EXPORT ORDINAL="2257" NAME="?FreeInstance@?$ILoader@VMachineName@@@@QAE_NAAVIRequestContext@@_N@Z" PURGE="8" COMMENT="" />
    <EXPORT ORDINAL="2258" NAME="?FreeInstance@?$ILoader@VNetworkServiceSid@CSecurity@@@@QAE_NAAVIRequestContext@@_N@Z" PURGE="8" COMMENT="" />
    <EXPORT ORDINAL="2259" NAME="?FreeInstance@?$ILoader@VNtDsApiDllLoader@@@@QAE_NAAVIRequestContext@@_N@Z" PURGE="8" COMMENT="" />
    <EXPORT ORDINAL="2260" NAME="?FreeInstance@?$ILoader@VResources@Locale@@@@QAE_NAAVIRequestContext@@_N@Z" PURGE="8" COMMENT="" />
    <EXPORT ORDINAL="2261" NAME="?FreeInstance@?$ILoader@VShell32DllLoader@@@@QAE_NAAVIRequestContext@@_N@Z" PURGE="8" COMMENT="" />
    <EXPORT ORDINAL="2262" NAME="?FreeInstance@?$ILoader@VShlWApiDllLoader@@@@QAE_NAAVIRequestContext@@_N@Z" PURGE="8" COMMENT="" />
    <EXPORT ORDINAL="2263" NAME="?FreeInstance@?$ILoader@VSubscriptionManager@@@@QAE_NAAVIRequestContext@@_N@Z" PURGE="8" COMMENT="" />
    <EXPORT ORDINAL="2264" NAME="?FreeInstance@?$ILoader@VUser32DllLoader@@@@QAE_NAAVIRequestContext@@_N@Z" PURGE="8" COMMENT="" />
    <EXPORT ORDINAL="2265" NAME="?FreeInstance@?$ILoader@VWSManMemCryptManager@@@@QAE_NAAVIRequestContext@@_N@Z" PURGE="8" COMMENT="" />
    <EXPORT ORDINAL="2266" NAME="?FreeInstance@?$LoaderSerializer@VSubscriptionManager@@$01@@QAE_NAAVIRequestContext@@_N@Z" PURGE="8" COMMENT="" />
    <EXPORT ORDINAL="2267" NAME="?FreeMemory@RBUFFER@@QAEXXZ" PURGE="0" COMMENT="" />
    <EXPORT ORDINAL="2268" NAME="?FreeMemory@SBUFFER@@QAEXXZ" PURGE="0" COMMENT="" />
    <EXPORT ORDINAL="2269" NAME="?FreePacket@PacketParser@@QAEXXZ" PURGE="0" COMMENT="" />
    <EXPORT ORDINAL="2270" NAME="?FreeXmlStructure@PacketParser@@QAEXXZ" PURGE="0" COMMENT="" />
    <EXPORT ORDINAL="2271" NAME="?GenerateTransferId@EventHandler@WSMan@@SGXABU_EVENT_DESCRIPTOR@@PBU_GUID@@1@Z" PURGE="12" COMMENT="" />
    <EXPORT ORDINAL="2272" NAME="?GenerateTransferIdImp@EventHandler@WSMan@@AAEXABU_EVENT_DESCRIPTOR@@PBU_GUID@@1@Z" PURGE="12" COMMENT="" />
    <EXPORT ORDINAL="2273" NAME="?GetAccessRights@CWSManSecurityUI@@UAGJPBU_GUID@@KPAPAU_SI_ACCESS@@PAK2@Z" PURGE="24" COMMENT="" />
    <EXPORT ORDINAL="2274" NAME="?GetAction@PacketParser@@QBEABV?$PacketElement@PBG@1@XZ" PURGE="0" COMMENT="" />
    <EXPORT ORDINAL="2275" NAME="?GetActionType@SoapSemanticConverter@@AAE_NPBGPAW4_MI_OperationCallback_ResponseType@@PAW4_MI_CallbackMode@@PAVIRequestContext@@@Z" PURGE="16" COMMENT="" />
    <EXPORT ORDINAL="2276" NAME="?GetActivityIdOnCurrentThread@EventHandler@WSMan@@SGXAAU_GUID@@@Z" PURGE="4" COMMENT="" />
    <EXPORT ORDINAL="2277" NAME="?GetBaseUri@CWSManResource@@QAEPBGXZ" PURGE="0" COMMENT="" />
    <EXPORT ORDINAL="2278" NAME="?GetBomIndex@PacketFormatter@@QBE?AW4Charset@1@XZ" PURGE="0" COMMENT="" />
    <EXPORT ORDINAL="2279" NAME="?GetBookmarkXml@PacketParser@@QAEABV?$PacketElement@PAU_FWXML_ELEMENT@@@1@XZ" PURGE="0" COMMENT="" />
    <EXPORT ORDINAL="2280" NAME="?GetBool@CConfigManager@@QAEHPAVIRequestContext@@W4ConfigSetting@@PAHPAW4WSManConfigSource@@@Z" PURGE="16" COMMENT="" />
    <EXPORT ORDINAL="2281" NAME="?GetBool@CWSManGroupPolicyManager@@QAEHPAVIRequestContext@@W4WSManGroupPolicySetting@@PAHPAW4WSManGroupPolicySettingState@@@Z" PURGE="16" COMMENT="" />
    <EXPORT ORDINAL="2282" NAME="?GetBuffer@BufferFormatter@@UAEPAEXZ" PURGE="0" COMMENT="" />
    <EXPORT ORDINAL="2283" NAME="?GetBuffer@BufferFormatter@@UBEPBEXZ" PURGE="0" COMMENT="" />
    <EXPORT ORDINAL="2284" NAME="?GetBuffer@CircularBufferFormatter@@UAEPAEXZ" PURGE="0" COMMENT="" />
    <EXPORT ORDINAL="2285" NAME="?GetBuffer@CircularBufferFormatter@@UBEPBEXZ" PURGE="0" COMMENT="" />
    <EXPORT ORDINAL="2286" NAME="?GetBuffer@XmlReader@@QAEPBGXZ" PURGE="0" COMMENT="" />
    <EXPORT ORDINAL="2287" NAME="?GetBufferLength@PacketParser@@UAEKXZ" PURGE="0" COMMENT="" />
    <EXPORT ORDINAL="2288" NAME="?GetBufferPtr@PacketParser@@UAEPAPAGXZ" PURGE="0" COMMENT="" />
    <EXPORT ORDINAL="2289" NAME="?GetBufferSize@BufferFormatter@@QBEKXZ" PURGE="0" COMMENT="" />
    <EXPORT ORDINAL="2290" NAME="?GetCacheCount@CClientConfigCache@@SGKXZ" PURGE="0" COMMENT="" />
    <EXPORT ORDINAL="2291" NAME="?GetCacheCount@CServiceConfigCache@@SGKXZ" PURGE="0" COMMENT="" />
    <EXPORT ORDINAL="2292" NAME="?GetCalculationSize@BufferFormatter@@UBEK_N@Z" PURGE="4" COMMENT="" />
    <EXPORT ORDINAL="2293" NAME="?GetCalculationSize@CircularBufferFormatter@@UBEK_N@Z" PURGE="4" COMMENT="" />
    <EXPORT ORDINAL="2294" NAME="?GetCharInUse@TSTRBUFFER@@QBEIXZ" PURGE="0" COMMENT="" />
    <EXPORT ORDINAL="2295" NAME="?GetCharset@PacketFormatter@@QBE?AW4Charset@1@XZ" PURGE="0" COMMENT="" />
    <EXPORT ORDINAL="2296" NAME="?GetCharsetLen@PacketFormatter@@QBEKXZ" PURGE="0" COMMENT="" />
    <EXPORT ORDINAL="2297" NAME="?GetCharsetName@PacketFormatter@@QBEPBDXZ" PURGE="0" COMMENT="" />
    <EXPORT ORDINAL="2298" NAME="?GetChildCount@ChildLifeTimeManager@@QBEJXZ" PURGE="0" COMMENT="" />
    <EXPORT ORDINAL="2299" NAME="?GetConfigCache@CBaseConfigCache@@KGPAV1@PAVIRequestContext@@W4ErrorLogging@@P6GPAV1@XZPAVFastLock@@AAV?$AutoRelease@VCConfigCacheMap@CBaseConfigCache@@@@H@Z" PURGE="24" COMMENT="" />
    <EXPORT ORDINAL="2300" NAME="?GetConfigCache@CClientConfigCache@@SGPAV1@PAVIRequestContext@@H@Z" PURGE="8" COMMENT="" />
    <EXPORT ORDINAL="2301" NAME="?GetConfigCache@CServiceConfigCache@@SGPAV1@PAVIRequestContext@@W4ErrorLogging@@H@Z" PURGE="12" COMMENT="" />
    <EXPORT ORDINAL="2302" NAME="?GetConfigCache@CWinRSPluginConfigCache@@SGPAV1@PAVIRequestContext@@W4ErrorLogging@@H@Z" PURGE="12" COMMENT="" />
    <EXPORT ORDINAL="2303" NAME="?GetConfigManager@CConfigManager@@SGPAV1@XZ" PURGE="0" COMMENT="" />
    <EXPORT ORDINAL="2304" NAME="?GetConfigManagerForCertMapping@CConfigManager@@SGPAV1@PAVCERTMAPPING_IDENTITY@@PAVIRequestContext@@@Z" PURGE="8" COMMENT="" />
    <EXPORT ORDINAL="2305" NAME="?GetConfigManagerForListener@CConfigManager@@SGPAV1@PAVLISTENER_IDENTITY@@PAVIRequestContext@@@Z" PURGE="8" COMMENT="" />
    <EXPORT ORDINAL="2306" NAME="?GetConfigManagerForShellUri@CConfigManager@@SGPAV1@PAVSHELLURI_IDENTITY@@PAVIRequestContext@@@Z" PURGE="8" COMMENT="" />
    <EXPORT ORDINAL="2307" NAME="?GetConfigManagerForTable@CConfigManager@@SGPAV1@PAVWSMANCONFIGTABLE_IDENTITY@@PAVIRequestContext@@@Z" PURGE="8" COMMENT="" />
    <EXPORT ORDINAL="2308" NAME="?GetConfigXml@CConfigManager@@QAEHPAVIRequestContext@@PAPBGPAPAVXmlReader@@PAH@Z" PURGE="16" COMMENT="" />
    <EXPORT ORDINAL="2309" NAME="?GetCorrelationId@PacketParser@@QAEAAU_GUID@@XZ" PURGE="0" COMMENT="" />
    <EXPORT ORDINAL="2310" NAME="?GetCurrentCertMappingIdentity@CConfigManager@@QAEHPAVCERTMAPPING_IDENTITY@@PAVIRequestContext@@@Z" PURGE="8" COMMENT="" />
    <EXPORT ORDINAL="2311" NAME="?GetCurrentListenerIdentity@CConfigManager@@QAEHPAVLISTENER_IDENTITY@@PAVIRequestContext@@@Z" PURGE="8" COMMENT="" />
    <EXPORT ORDINAL="2312" NAME="?GetCurrentSettings@CBaseConfigCache@@IAEPAVCCommonConfigSettings@@PAVIRequestContext@@@Z" PURGE="4" COMMENT="" />
    <EXPORT ORDINAL="2313" NAME="?GetCurrentSettings@CClientConfigCache@@QAEPAVCClientConfigSettings@@PAVIRequestContext@@@Z" PURGE="4" COMMENT="" />
    <EXPORT ORDINAL="2314" NAME="?GetCurrentSettings@CServiceConfigCache@@QAEPAVCServiceConfigSettings@@PAVIRequestContext@@@Z" PURGE="4" COMMENT="" />
    <EXPORT ORDINAL="2315" NAME="?GetCurrentSettings@CWinRSPluginConfigCache@@QAEPAVCWinRSPluginConfigSettings@@PAVIRequestContext@@@Z" PURGE="4" COMMENT="" />
    <EXPORT ORDINAL="2316" NAME="?GetCurrentShellUriIdentity@CConfigManager@@QAEHPAVSHELLURI_IDENTITY@@PAVIRequestContext@@@Z" PURGE="8" COMMENT="" />
    <EXPORT ORDINAL="2317" NAME="?GetCurrentTableIdentity@CConfigManager@@QAEHPAVWSMANCONFIGTABLE_IDENTITY@@PAVIRequestContext@@@Z" PURGE="8" COMMENT="" />
    <EXPORT ORDINAL="2318" NAME="?GetDataLocale@PacketParser@@QBEABV?$PacketElement@PBG@1@XZ" PURGE="0" COMMENT="" />
    <EXPORT ORDINAL="2319" NAME="?GetDataLocaleHelper@PacketParser@@QAEAAVLocale@@XZ" PURGE="0" COMMENT="" />
    <EXPORT ORDINAL="2320" NAME="?GetDescriptionElement@SoapSemanticConverter@@QAEPAU_FWXML_ELEMENT@@PAU2@PAVIRequestContext@@@Z" PURGE="8" COMMENT="" />
    <EXPORT ORDINAL="2321" NAME="?GetDestructorIter@?$SafeMap@PAVCCertMapping@@UEmpty@@V?$SafeSet_Iterator@PAVCCertMapping@@@@@@QAEAAV?$SafeSet_Iterator@PAVCCertMapping@@@@XZ" PURGE="0" COMMENT="" />
    <EXPORT ORDINAL="2322" NAME="?GetDestructorIter@?$SafeMap@PAVCShellUriSettings@@UEmpty@@V?$SafeSet_Iterator@PAVCShellUriSettings@@@@@@QAEAAV?$SafeSet_Iterator@PAVCShellUriSettings@@@@XZ" PURGE="0" COMMENT="" />
    <EXPORT ORDINAL="2323" NAME="?GetDestructorIter@?$SafeMap@VCertThumbprintKey@@VCertThumbprintMappedSet@CServiceConfigSettings@@V?$SafeMap_Iterator@VCertThumbprintKey@@VCertThumbprintMappedSet@CServiceConfigSettings@@@@@@QAEAAV?$SafeMap_Iterator@VCertThumbprintKey@@VCertThumbprintMappedSet@CServiceConfigSettings@@@@XZ" PURGE="0" COMMENT="" />
    <EXPORT ORDINAL="2324" NAME="?GetDestructorIter@?$SafeMap@VStringKeyStore@@PAVExpiredOperationIdRecord@@V?$SafeMap_Iterator@VStringKeyStore@@PAVExpiredOperationIdRecord@@@@@@QAEAAV?$SafeMap_Iterator@VStringKeyStore@@PAVExpiredOperationIdRecord@@@@XZ" PURGE="0" COMMENT="" />
    <EXPORT ORDINAL="2325" NAME="?GetDestructorIter@?$SafeMap@W4WSManSessionOption@@PAVOptionValue@SessionOptions@Client@WSMan@@V?$SafeMap_Iterator@W4WSManSessionOption@@PAVOptionValue@SessionOptions@Client@WSMan@@@@@@QAEAAV?$SafeMap_Iterator@W4WSManSessionOption@@PAVOptionValue@SessionOptions@Client@WSMan@@@@XZ" PURGE="0" COMMENT="" />
    <EXPORT ORDINAL="2326" NAME="?GetDialect@Fragment@PacketParser@@QBEPBGXZ" PURGE="0" COMMENT="" />
    <EXPORT ORDINAL="2327" NAME="?GetError@BufferFormatter@@QBEKXZ" PURGE="0" COMMENT="" />
    <EXPORT ORDINAL="2328" NAME="?GetErrorCode@CErrorContext@@UBEKXZ" PURGE="0" COMMENT="" />
    <EXPORT ORDINAL="2329" NAME="?GetEventType@SoapSemanticConverter@@AAEKPBGPAVIRequestContext@@@Z" PURGE="8" COMMENT="" />
    <EXPORT ORDINAL="2330" NAME="?GetEventTypeAndResponseElement@SoapSemanticConverter@@AAEPAU_FWXML_ELEMENT@@PAU2@PAKPAVIRequestContext@@@Z" PURGE="12" COMMENT="" />
    <EXPORT ORDINAL="2331" NAME="?GetExtendedErrorString@CErrorContext@@UAEPAGXZ" PURGE="0" COMMENT="" />
    <EXPORT ORDINAL="2332" NAME="?GetExtendedErrorString@CRequestContext@@UAEPAGXZ" PURGE="0" COMMENT="" />
    <EXPORT ORDINAL="2333" NAME="?GetFaultToXml@PacketParser@@QBEABVReferenceParameters@1@XZ" PURGE="0" COMMENT="" />
    <EXPORT ORDINAL="2334" NAME="?GetFaultXML@CErrorContext@@UBEPBGXZ" PURGE="0" COMMENT="" />
    <EXPORT ORDINAL="2335" NAME="?GetFaultXML@CRequestContext@@UBEPBGXZ" PURGE="0" COMMENT="" />
    <EXPORT ORDINAL="2336" NAME="?GetFaultXMLPrivate@CRequestContext@@AAEXPAPAD0KHKKPBG11@Z" PURGE="36" COMMENT="" />
    <EXPORT ORDINAL="2337" NAME="?GetFirstConfigManagerForCertMapping@CConfigManager@@SGPAV1@PBG@Z" PURGE="4" COMMENT="" />
    <EXPORT ORDINAL="2338" NAME="?GetFirstConfigManagerForListener@CConfigManager@@SGPAV1@PBG@Z" PURGE="4" COMMENT="" />
    <EXPORT ORDINAL="2339" NAME="?GetFirstConfigManagerForShellUri@CConfigManager@@SGPAV1@PBG@Z" PURGE="4" COMMENT="" />
    <EXPORT ORDINAL="2340" NAME="?GetFirstConfigManagerForTable@CConfigManager@@SGPAV1@W4WSMANTableConfigType@@PBG@Z" PURGE="8" COMMENT="" />
    <EXPORT ORDINAL="2341" NAME="?GetFormat@PacketFormatter@@QBE?AW4Charset@1@XZ" PURGE="0" COMMENT="" />
    <EXPORT ORDINAL="2342" NAME="?GetFormatterMode@BufferFormatter@@QAE?AW4Charset@PacketFormatter@@XZ" PURGE="0" COMMENT="" />
    <EXPORT ORDINAL="2343" NAME="?GetFragment@PacketParser@@QBEABVFragment@1@XZ" PURGE="0" COMMENT="" />
    <EXPORT ORDINAL="2344" NAME="?GetFragmentDialect@CWSManResourceNoResourceUri@@QAEPBGXZ" PURGE="0" COMMENT="" />
    <EXPORT ORDINAL="2345" NAME="?GetFragmentPath@CWSManResourceNoResourceUri@@QAEPBGXZ" PURGE="0" COMMENT="" />
    <EXPORT ORDINAL="2346" NAME="?GetGroupPolicyManager@CWSManGroupPolicyManager@@SGPAV1@PAVIRequestContext@@PBG@Z" PURGE="8" COMMENT="" />
    <EXPORT ORDINAL="2347" NAME="?GetHeap@WSManMemory@@SGPAXXZ" PURGE="0" COMMENT="" />
    <EXPORT ORDINAL="2348" NAME="?GetIISConfiguration@CConfigManager@@SGHPAVIRequestContext@@PBGPAPAVXmlReader@@@Z" PURGE="12" COMMENT="" />
    <EXPORT ORDINAL="2349" NAME="?GetImpersonationToken@UserRecord@@QAEPAXXZ" PURGE="0" COMMENT="" />
    <EXPORT ORDINAL="2350" NAME="?GetInheritTypes@CWSManSecurityUI@@UAGJPAPAU_SI_INHERIT_TYPE@@PAK@Z" PURGE="12" COMMENT="" />
    <EXPORT ORDINAL="2351" NAME="?GetInitError@CWSManCriticalSection@@QBEKXZ" PURGE="0" COMMENT="" />
    <EXPORT ORDINAL="2352" NAME="?GetInstance@?$LoaderSerializer@VAdminSid@CSecurity@@$00@@QAEPAVAdminSid@CSecurity@@AAVIRequestContext@@@Z" PURGE="4" COMMENT="" />
    <EXPORT ORDINAL="2353" NAME="?GetInstance@?$LoaderSerializer@VEventHandler@WSMan@@$00@@QAEPAVEventHandler@WSMan@@AAVIRequestContext@@@Z" PURGE="4" COMMENT="" />
    <EXPORT ORDINAL="2354" NAME="?GetInstance@?$LoaderSerializer@VInteractiveSid@CSecurity@@$00@@QAEPAVInteractiveSid@CSecurity@@AAVIRequestContext@@@Z" PURGE="4" COMMENT="" />
    <EXPORT ORDINAL="2355" NAME="?GetInstance@?$LoaderSerializer@VIpHlpApiDllLoader@@$00@@QAEPAVIpHlpApiDllLoader@@AAVIRequestContext@@@Z" PURGE="4" COMMENT="" />
    <EXPORT ORDINAL="2356" NAME="?GetInstance@?$LoaderSerializer@VMachineName@@$00@@QAEPAVMachineName@@AAVIRequestContext@@@Z" PURGE="4" COMMENT="" />
    <EXPORT ORDINAL="2357" NAME="?GetInstance@?$LoaderSerializer@VNetworkServiceSid@CSecurity@@$00@@QAEPAVNetworkServiceSid@CSecurity@@AAVIRequestContext@@@Z" PURGE="4" COMMENT="" />
    <EXPORT ORDINAL="2358" NAME="?GetInstance@?$LoaderSerializer@VNtDsApiDllLoader@@$00@@QAEPAVNtDsApiDllLoader@@AAVIRequestContext@@@Z" PURGE="4" COMMENT="" />
    <EXPORT ORDINAL="2359" NAME="?GetInstance@?$LoaderSerializer@VResources@Locale@@$0A@@@QAEPAVResources@Locale@@AAVIRequestContext@@@Z" PURGE="4" COMMENT="" />
    <EXPORT ORDINAL="2360" NAME="?GetInstance@?$LoaderSerializer@VShell32DllLoader@@$00@@QAEPAVShell32DllLoader@@AAVIRequestContext@@@Z" PURGE="4" COMMENT="" />
    <EXPORT ORDINAL="2361" NAME="?GetInstance@?$LoaderSerializer@VShlWApiDllLoader@@$00@@QAEPAVShlWApiDllLoader@@AAVIRequestContext@@@Z" PURGE="4" COMMENT="" />
    <EXPORT ORDINAL="2362" NAME="?GetInstance@?$LoaderSerializer@VSubscriptionManager@@$01@@QAEPAVSubscriptionManager@@AAVIRequestContext@@@Z" PURGE="4" COMMENT="" />
    <EXPORT ORDINAL="2363" NAME="?GetInstance@?$LoaderSerializer@VUser32DllLoader@@$00@@QAEPAVUser32DllLoader@@AAVIRequestContext@@@Z" PURGE="4" COMMENT="" />
    <EXPORT ORDINAL="2364" NAME="?GetInstance@?$LoaderSerializer@VWSManMemCryptManager@@$00@@QAEPAVWSManMemCryptManager@@AAVIRequestContext@@@Z" PURGE="4" COMMENT="" />
    <EXPORT ORDINAL="2365" NAME="?GetInt@CConfigManager@@QAEHPAVIRequestContext@@W4ConfigSetting@@PAKPAW4WSManConfigSource@@@Z" PURGE="16" COMMENT="" />
    <EXPORT ORDINAL="2366" NAME="?GetInt@CWSManGroupPolicyManager@@QAEHPAVIRequestContext@@W4WSManGroupPolicySetting@@PAKPAW4WSManGroupPolicySettingState@@@Z" PURGE="16" COMMENT="" />
    <EXPORT ORDINAL="2367" NAME="?GetKey@UserRecord@@QBE?AUUserKey@@XZ" PURGE="4" COMMENT="" />
    <EXPORT ORDINAL="2368" NAME="?GetKeyCount@CWSManResourceNoResourceUri@@QAEKXZ" PURGE="0" COMMENT="" />
    <EXPORT ORDINAL="2369" NAME="?GetKeyValue@CWSManResourceNoResourceUri@@QAEPBGPBG@Z" PURGE="4" COMMENT="" />
    <EXPORT ORDINAL="2370" NAME="?GetKeys@CWSManResourceNoResourceUri@@QAEPAU_WSMAN_KEY@@XZ" PURGE="0" COMMENT="" />
    <EXPORT ORDINAL="2371" NAME="?GetLCID@Locale@@QAEKXZ" PURGE="0" COMMENT="" />
    <EXPORT ORDINAL="2372" NAME="?GetLength@XmlReader@@QAEIXZ" PURGE="0" COMMENT="" />
    <EXPORT ORDINAL="2373" NAME="?GetLocale@CRequestContext@@QAEAAVLocale@@XZ" PURGE="0" COMMENT="" />
    <EXPORT ORDINAL="2374" NAME="?GetLocale@PacketParser@@QBEABV?$PacketElement@PBG@1@XZ" PURGE="0" COMMENT="" />
    <EXPORT ORDINAL="2375" NAME="?GetLocaleHelper@PacketParser@@QAEAAVLocale@@XZ" PURGE="0" COMMENT="" />
    <EXPORT ORDINAL="2376" NAME="?GetLocaleString@CRequestContext@@QAEPBGXZ" PURGE="0" COMMENT="" />
    <EXPORT ORDINAL="2377" NAME="?GetLocator@CWSManResource@@QAEPAU_WSMAN_RESOURCE_LOCATOR@@XZ" PURGE="0" COMMENT="" />
    <EXPORT ORDINAL="2378" NAME="?GetMachineId@PacketParser@@QBEABV?$PacketElement@PBG@1@XZ" PURGE="0" COMMENT="" />
    <EXPORT ORDINAL="2379" NAME="?GetMap@?$SafeMap_Iterator@PAVCCertMapping@@UEmpty@@@@QBEAAV?$SafeMap@PAVCCertMapping@@UEmpty@@V?$SafeMap_Iterator@PAVCCertMapping@@UEmpty@@@@@@XZ" PURGE="0" COMMENT="" />
    <EXPORT ORDINAL="2380" NAME="?GetMap@?$SafeMap_Iterator@PAVCListenerConnect@@PAV1@@@QBEAAV?$SafeMap@PAVCListenerConnect@@PAV1@V?$SafeMap_Iterator@PAVCListenerConnect@@PAV1@@@@@XZ" PURGE="0" COMMENT="" />
    <EXPORT ORDINAL="2381" NAME="?GetMap@?$SafeMap_Iterator@PAVCListenerOperation@@UEmpty@@@@QBEAAV?$SafeMap@PAVCListenerOperation@@UEmpty@@V?$SafeMap_Iterator@PAVCListenerOperation@@UEmpty@@@@@@XZ" PURGE="0" COMMENT="" />
    <EXPORT ORDINAL="2382" NAME="?GetMap@?$SafeMap_Iterator@PAVCListenerReceive@@PAV1@@@QBEAAV?$SafeMap@PAVCListenerReceive@@PAV1@V?$SafeMap_Iterator@PAVCListenerReceive@@PAV1@@@@@XZ" PURGE="0" COMMENT="" />
    <EXPORT ORDINAL="2383" NAME="?GetMap@?$SafeMap_Iterator@PAVCListenerSend@@PAV1@@@QBEAAV?$SafeMap@PAVCListenerSend@@PAV1@V?$SafeMap_Iterator@PAVCListenerSend@@PAV1@@@@@XZ" PURGE="0" COMMENT="" />
    <EXPORT ORDINAL="2384" NAME="?GetMap@?$SafeMap_Iterator@PAVCListenerSignal@@PAV1@@@QBEAAV?$SafeMap@PAVCListenerSignal@@PAV1@V?$SafeMap_Iterator@PAVCListenerSignal@@PAV1@@@@@XZ" PURGE="0" COMMENT="" />
    <EXPORT ORDINAL="2385" NAME="?GetMap@?$SafeMap_Iterator@PAVCShellUriSettings@@UEmpty@@@@QBEAAV?$SafeMap@PAVCShellUriSettings@@UEmpty@@V?$SafeMap_Iterator@PAVCShellUriSettings@@UEmpty@@@@@@XZ" PURGE="0" COMMENT="" />
    <EXPORT ORDINAL="2386" NAME="?GetMap@?$SafeMap_Iterator@PAVCollector@@UEmpty@@@@QBEAAV?$SafeMap@PAVCollector@@UEmpty@@V?$SafeMap_Iterator@PAVCollector@@UEmpty@@@@@@XZ" PURGE="0" COMMENT="" />
    <EXPORT ORDINAL="2387" NAME="?GetMap@?$SafeMap_Iterator@PAVHostOperation@@UEmpty@@@@QBEAAV?$SafeMap@PAVHostOperation@@UEmpty@@V?$SafeMap_Iterator@PAVHostOperation@@UEmpty@@@@@@XZ" PURGE="0" COMMENT="" />
    <EXPORT ORDINAL="2388" NAME="?GetMap@?$SafeMap_Iterator@PAVIOperation@@UEmpty@@@@QBEAAV?$SafeMap@PAVIOperation@@UEmpty@@V?$SafeMap_Iterator@PAVIOperation@@UEmpty@@@@@@XZ" PURGE="0" COMMENT="" />
    <EXPORT ORDINAL="2389" NAME="?GetMap@?$SafeMap_Iterator@PAVListenerSourceSubscription@@UEmpty@@@@QBEAAV?$SafeMap@PAVListenerSourceSubscription@@UEmpty@@V?$SafeMap_Iterator@PAVListenerSourceSubscription@@UEmpty@@@@@@XZ" PURGE="0" COMMENT="" />
    <EXPORT ORDINAL="2390" NAME="?GetMap@?$SafeMap_Iterator@PAVPushSubscription@@UEmpty@@@@QBEAAV?$SafeMap@PAVPushSubscription@@UEmpty@@V?$SafeMap_Iterator@PAVPushSubscription@@UEmpty@@@@@@XZ" PURGE="0" COMMENT="" />
    <EXPORT ORDINAL="2391" NAME="?GetMap@?$SafeMap_Iterator@PAXUEmpty@@@@QBEAAV?$SafeMap@PAXUEmpty@@V?$SafeMap_Iterator@PAXUEmpty@@@@@@XZ" PURGE="0" COMMENT="" />
    <EXPORT ORDINAL="2392" NAME="?GetMap@?$SafeMap_Iterator@UPluginKey@@K@@QBEAAV?$SafeMap@UPluginKey@@KV?$SafeMap_Iterator@UPluginKey@@K@@@@XZ" PURGE="0" COMMENT="" />
    <EXPORT ORDINAL="2393" NAME="?GetMap@?$SafeMap_Iterator@UUserKey@@PAVBlockedRecord@@@@QBEAAV?$SafeMap@UUserKey@@PAVBlockedRecord@@V?$SafeMap_Iterator@UUserKey@@PAVBlockedRecord@@@@@@XZ" PURGE="0" COMMENT="" />
    <EXPORT ORDINAL="2394" NAME="?GetMap@?$SafeMap_Iterator@VCertThumbprintKey@@VCertThumbprintMappedSet@CServiceConfigSettings@@@@QBEAAV?$SafeMap@VCertThumbprintKey@@VCertThumbprintMappedSet@CServiceConfigSettings@@V?$SafeMap_Iterator@VCertThumbprintKey@@VCertThumbprintMappedSet@CServiceConfigSettings@@@@@@XZ" PURGE="0" COMMENT="" />
    <EXPORT ORDINAL="2395" NAME="?GetMap@?$SafeMap_Iterator@VGuidKey@@PAVCListenerCommand@@@@QBEAAV?$SafeMap@VGuidKey@@PAVCListenerCommand@@V?$SafeMap_Iterator@VGuidKey@@PAVCListenerCommand@@@@@@XZ" PURGE="0" COMMENT="" />
    <EXPORT ORDINAL="2396" NAME="?GetMap@?$SafeMap_Iterator@VKey@Locale@@K@@QBEAAV?$SafeMap@VKey@Locale@@KV?$SafeMap_Iterator@VKey@Locale@@K@@@@XZ" PURGE="0" COMMENT="" />
    <EXPORT ORDINAL="2397" NAME="?GetMap@?$SafeMap_Iterator@VStringKeyCI@@K@@QBEAAV?$SafeMap@VStringKeyCI@@KV?$SafeMap_Iterator@VStringKeyCI@@K@@@@XZ" PURGE="0" COMMENT="" />
    <EXPORT ORDINAL="2398" NAME="?GetMap@?$SafeMap_Iterator@VStringKeyCI@@UEmpty@@@@QBEAAV?$SafeMap@VStringKeyCI@@UEmpty@@V?$SafeMap_Iterator@VStringKeyCI@@UEmpty@@@@@@XZ" PURGE="0" COMMENT="" />
    <EXPORT ORDINAL="2399" NAME="?GetMap@?$SafeMap_Iterator@VStringKeyCI@@UUSER_CONTEXT_INFO@WSManHttpListener@@@@QBEAAV?$SafeMap@VStringKeyCI@@UUSER_CONTEXT_INFO@WSManHttpListener@@V?$SafeMap_Iterator@VStringKeyCI@@UUSER_CONTEXT_INFO@WSManHttpListener@@@@@@XZ" PURGE="0" COMMENT="" />
    <EXPORT ORDINAL="2400" NAME="?GetMap@?$SafeMap_Iterator@VStringKeyStore@@PAVExpiredOperationIdRecord@@@@QBEAAV?$SafeMap@VStringKeyStore@@PAVExpiredOperationIdRecord@@V?$SafeMap_Iterator@VStringKeyStore@@PAVExpiredOperationIdRecord@@@@@@XZ" PURGE="0" COMMENT="" />
    <EXPORT ORDINAL="2401" NAME="?GetMap@?$SafeMap_Iterator@VStringKeyStore@@PAVServerFullDuplexChannel@@@@QBEAAV?$SafeMap@VStringKeyStore@@PAVServerFullDuplexChannel@@V?$SafeMap_Iterator@VStringKeyStore@@PAVServerFullDuplexChannel@@@@@@XZ" PURGE="0" COMMENT="" />
    <EXPORT ORDINAL="2402" NAME="?GetMap@?$SafeMap_Iterator@W4WSManSessionOption@@PAVOptionValue@SessionOptions@Client@WSMan@@@@QBEAAV?$SafeMap@W4WSManSessionOption@@PAVOptionValue@SessionOptions@Client@WSMan@@V?$SafeMap_Iterator@W4WSManSessionOption@@PAVOptionValue@SessionOptions@Client@WSMan@@@@@@XZ" PURGE="0" COMMENT="" />
    <EXPORT ORDINAL="2403" NAME="?GetMap@?$SafeMap_Iterator@_KPAVSendPacketArgs@RobustConnectionBuffer@@@@QBEAAV?$SafeMap@_KPAVSendPacketArgs@RobustConnectionBuffer@@V?$SafeMap_Iterator@_KPAVSendPacketArgs@RobustConnectionBuffer@@@@@@XZ" PURGE="0" COMMENT="" />
    <EXPORT ORDINAL="2404" NAME="?GetMap@?$SafeMap_Lock@PAVCCertMapping@@UEmpty@@V?$SafeMap_Iterator@PAVCCertMapping@@UEmpty@@@@@@QBEABV?$SafeMap@PAVCCertMapping@@UEmpty@@V?$SafeMap_Iterator@PAVCCertMapping@@UEmpty@@@@@@XZ" PURGE="0" COMMENT="" />
    <EXPORT ORDINAL="2405" NAME="?GetMap@?$SafeMap_Lock@PAVCListenerConnect@@PAV1@V?$SafeMap_Iterator@PAVCListenerConnect@@PAV1@@@@@QBEABV?$SafeMap@PAVCListenerConnect@@PAV1@V?$SafeMap_Iterator@PAVCListenerConnect@@PAV1@@@@@XZ" PURGE="0" COMMENT="" />
    <EXPORT ORDINAL="2406" NAME="?GetMap@?$SafeMap_Lock@PAVCListenerOperation@@UEmpty@@V?$SafeMap_Iterator@PAVCListenerOperation@@UEmpty@@@@@@QBEABV?$SafeMap@PAVCListenerOperation@@UEmpty@@V?$SafeMap_Iterator@PAVCListenerOperation@@UEmpty@@@@@@XZ" PURGE="0" COMMENT="" />
    <EXPORT ORDINAL="2407" NAME="?GetMap@?$SafeMap_Lock@PAVCListenerReceive@@PAV1@V?$SafeMap_Iterator@PAVCListenerReceive@@PAV1@@@@@QBEABV?$SafeMap@PAVCListenerReceive@@PAV1@V?$SafeMap_Iterator@PAVCListenerReceive@@PAV1@@@@@XZ" PURGE="0" COMMENT="" />
    <EXPORT ORDINAL="2408" NAME="?GetMap@?$SafeMap_Lock@PAVCListenerSend@@PAV1@V?$SafeMap_Iterator@PAVCListenerSend@@PAV1@@@@@QBEABV?$SafeMap@PAVCListenerSend@@PAV1@V?$SafeMap_Iterator@PAVCListenerSend@@PAV1@@@@@XZ" PURGE="0" COMMENT="" />
    <EXPORT ORDINAL="2409" NAME="?GetMap@?$SafeMap_Lock@PAVCListenerSignal@@PAV1@V?$SafeMap_Iterator@PAVCListenerSignal@@PAV1@@@@@QBEABV?$SafeMap@PAVCListenerSignal@@PAV1@V?$SafeMap_Iterator@PAVCListenerSignal@@PAV1@@@@@XZ" PURGE="0" COMMENT="" />
    <EXPORT ORDINAL="2410" NAME="?GetMap@?$SafeMap_Lock@PAVCShellUriSettings@@UEmpty@@V?$SafeMap_Iterator@PAVCShellUriSettings@@UEmpty@@@@@@QBEABV?$SafeMap@PAVCShellUriSettings@@UEmpty@@V?$SafeMap_Iterator@PAVCShellUriSettings@@UEmpty@@@@@@XZ" PURGE="0" COMMENT="" />
    <EXPORT ORDINAL="2411" NAME="?GetMap@?$SafeMap_Lock@PAVCollector@@UEmpty@@V?$SafeMap_Iterator@PAVCollector@@UEmpty@@@@@@QBEABV?$SafeMap@PAVCollector@@UEmpty@@V?$SafeMap_Iterator@PAVCollector@@UEmpty@@@@@@XZ" PURGE="0" COMMENT="" />
    <EXPORT ORDINAL="2412" NAME="?GetMap@?$SafeMap_Lock@PAVHostOperation@@UEmpty@@V?$SafeMap_Iterator@PAVHostOperation@@UEmpty@@@@@@QBEABV?$SafeMap@PAVHostOperation@@UEmpty@@V?$SafeMap_Iterator@PAVHostOperation@@UEmpty@@@@@@XZ" PURGE="0" COMMENT="" />
    <EXPORT ORDINAL="2413" NAME="?GetMap@?$SafeMap_Lock@PAVIOperation@@UEmpty@@V?$SafeMap_Iterator@PAVIOperation@@UEmpty@@@@@@QBEABV?$SafeMap@PAVIOperation@@UEmpty@@V?$SafeMap_Iterator@PAVIOperation@@UEmpty@@@@@@XZ" PURGE="0" COMMENT="" />
    <EXPORT ORDINAL="2414" NAME="?GetMap@?$SafeMap_Lock@PAVListenerSourceSubscription@@UEmpty@@V?$SafeMap_Iterator@PAVListenerSourceSubscription@@UEmpty@@@@@@QBEABV?$SafeMap@PAVListenerSourceSubscription@@UEmpty@@V?$SafeMap_Iterator@PAVListenerSourceSubscription@@UEmpty@@@@@@XZ" PURGE="0" COMMENT="" />
    <EXPORT ORDINAL="2415" NAME="?GetMap@?$SafeMap_Lock@PAVPushSubscription@@UEmpty@@V?$SafeMap_Iterator@PAVPushSubscription@@UEmpty@@@@@@QBEABV?$SafeMap@PAVPushSubscription@@UEmpty@@V?$SafeMap_Iterator@PAVPushSubscription@@UEmpty@@@@@@XZ" PURGE="0" COMMENT="" />
    <EXPORT ORDINAL="2416" NAME="?GetMap@?$SafeMap_Lock@PAXUEmpty@@V?$SafeMap_Iterator@PAXUEmpty@@@@@@QBEABV?$SafeMap@PAXUEmpty@@V?$SafeMap_Iterator@PAXUEmpty@@@@@@XZ" PURGE="0" COMMENT="" />
    <EXPORT ORDINAL="2417" NAME="?GetMap@?$SafeMap_Lock@UPluginKey@@KV?$SafeMap_Iterator@UPluginKey@@K@@@@QBEABV?$SafeMap@UPluginKey@@KV?$SafeMap_Iterator@UPluginKey@@K@@@@XZ" PURGE="0" COMMENT="" />
    <EXPORT ORDINAL="2418" NAME="?GetMap@?$SafeMap_Lock@UUserKey@@PAVBlockedRecord@@V?$SafeMap_Iterator@UUserKey@@PAVBlockedRecord@@@@@@QBEABV?$SafeMap@UUserKey@@PAVBlockedRecord@@V?$SafeMap_Iterator@UUserKey@@PAVBlockedRecord@@@@@@XZ" PURGE="0" COMMENT="" />
    <EXPORT ORDINAL="2419" NAME="?GetMap@?$SafeMap_Lock@VCertThumbprintKey@@VCertThumbprintMappedSet@CServiceConfigSettings@@V?$SafeMap_Iterator@VCertThumbprintKey@@VCertThumbprintMappedSet@CServiceConfigSettings@@@@@@QBEABV?$SafeMap@VCertThumbprintKey@@VCertThumbprintMappedSet@CServiceConfigSettings@@V?$SafeMap_Iterator@VCertThumbprintKey@@VCertThumbprintMappedSet@CServiceConfigSettings@@@@@@XZ" PURGE="0" COMMENT="" />
    <EXPORT ORDINAL="2420" NAME="?GetMap@?$SafeMap_Lock@VGuidKey@@PAVCListenerCommand@@V?$SafeMap_Iterator@VGuidKey@@PAVCListenerCommand@@@@@@QBEABV?$SafeMap@VGuidKey@@PAVCListenerCommand@@V?$SafeMap_Iterator@VGuidKey@@PAVCListenerCommand@@@@@@XZ" PURGE="0" COMMENT="" />
    <EXPORT ORDINAL="2421" NAME="?GetMap@?$SafeMap_Lock@VKey@Locale@@KV?$SafeMap_Iterator@VKey@Locale@@K@@@@QBEABV?$SafeMap@VKey@Locale@@KV?$SafeMap_Iterator@VKey@Locale@@K@@@@XZ" PURGE="0" COMMENT="" />
    <EXPORT ORDINAL="2422" NAME="?GetMap@?$SafeMap_Lock@VStringKeyCI@@KV?$SafeMap_Iterator@VStringKeyCI@@K@@@@QBEABV?$SafeMap@VStringKeyCI@@KV?$SafeMap_Iterator@VStringKeyCI@@K@@@@XZ" PURGE="0" COMMENT="" />
    <EXPORT ORDINAL="2423" NAME="?GetMap@?$SafeMap_Lock@VStringKeyCI@@UEmpty@@V?$SafeMap_Iterator@VStringKeyCI@@UEmpty@@@@@@QBEABV?$SafeMap@VStringKeyCI@@UEmpty@@V?$SafeMap_Iterator@VStringKeyCI@@UEmpty@@@@@@XZ" PURGE="0" COMMENT="" />
    <EXPORT ORDINAL="2424" NAME="?GetMap@?$SafeMap_Lock@VStringKeyCI@@UUSER_CONTEXT_INFO@WSManHttpListener@@V?$SafeMap_Iterator@VStringKeyCI@@UUSER_CONTEXT_INFO@WSManHttpListener@@@@@@QBEABV?$SafeMap@VStringKeyCI@@UUSER_CONTEXT_INFO@WSManHttpListener@@V?$SafeMap_Iterator@VStringKeyCI@@UUSER_CONTEXT_INFO@WSManHttpListener@@@@@@XZ" PURGE="0" COMMENT="" />
    <EXPORT ORDINAL="2425" NAME="?GetMap@?$SafeMap_Lock@VStringKeyStore@@PAVExpiredOperationIdRecord@@V?$SafeMap_Iterator@VStringKeyStore@@PAVExpiredOperationIdRecord@@@@@@QBEABV?$SafeMap@VStringKeyStore@@PAVExpiredOperationIdRecord@@V?$SafeMap_Iterator@VStringKeyStore@@PAVExpiredOperationIdRecord@@@@@@XZ" PURGE="0" COMMENT="" />
    <EXPORT ORDINAL="2426" NAME="?GetMap@?$SafeMap_Lock@VStringKeyStore@@PAVServerFullDuplexChannel@@V?$SafeMap_Iterator@VStringKeyStore@@PAVServerFullDuplexChannel@@@@@@QBEABV?$SafeMap@VStringKeyStore@@PAVServerFullDuplexChannel@@V?$SafeMap_Iterator@VStringKeyStore@@PAVServerFullDuplexChannel@@@@@@XZ" PURGE="0" COMMENT="" />
    <EXPORT ORDINAL="2427" NAME="?GetMap@?$SafeMap_Lock@W4WSManSessionOption@@PAVOptionValue@SessionOptions@Client@WSMan@@V?$SafeMap_Iterator@W4WSManSessionOption@@PAVOptionValue@SessionOptions@Client@WSMan@@@@@@QBEABV?$SafeMap@W4WSManSessionOption@@PAVOptionValue@SessionOptions@Client@WSMan@@V?$SafeMap_Iterator@W4WSManSessionOption@@PAVOptionValue@SessionOptions@Client@WSMan@@@@@@XZ" PURGE="0" COMMENT="" />
    <EXPORT ORDINAL="2428" NAME="?GetMap@?$SafeMap_Lock@_KPAVSendPacketArgs@RobustConnectionBuffer@@V?$SafeMap_Iterator@_KPAVSendPacketArgs@RobustConnectionBuffer@@@@@@QBEABV?$SafeMap@_KPAVSendPacketArgs@RobustConnectionBuffer@@V?$SafeMap_Iterator@_KPAVSendPacketArgs@RobustConnectionBuffer@@@@@@XZ" PURGE="0" COMMENT="" />
    <EXPORT ORDINAL="2429" NAME="?GetMaxBatchItems@CCommonConfigSettings@@UAEKXZ" PURGE="0" COMMENT="" />
    <EXPORT ORDINAL="2430" NAME="?GetMaxBatchSize@CCommonConfigSettings@@UAEKXZ" PURGE="0" COMMENT="" />
    <EXPORT ORDINAL="2431" NAME="?GetMaxEnvelopeSize@CCommonConfigSettings@@UAEKXZ" PURGE="0" COMMENT="" />
    <EXPORT ORDINAL="2432" NAME="?GetMaxEnvelopeSize@PacketParser@@QBEABV?$PacketElement@K@1@XZ" PURGE="0" COMMENT="" />
    <EXPORT ORDINAL="2433" NAME="?GetMaxTimeOut@CCommonConfigSettings@@UAEKXZ" PURGE="0" COMMENT="" />
    <EXPORT ORDINAL="2434" NAME="?GetMessageAlloc@Locale@@QBAPBGAAVAutoLocalFree@@KZZ" PURGE="0" COMMENT="" />
    <EXPORT ORDINAL="2435" NAME="?GetMessageEmpty@Locale@@QBEPBGAAVAutoLocalFree@@K@Z" PURGE="8" COMMENT="" />
    <EXPORT ORDINAL="2436" NAME="?GetMessageId@CErrorContext@@UBEKXZ" PURGE="0" COMMENT="" />
    <EXPORT ORDINAL="2437" NAME="?GetMessageId@CRequestContext@@UBEKXZ" PURGE="0" COMMENT="" />
    <EXPORT ORDINAL="2438" NAME="?GetMessageId@PacketParser@@QBEABV?$PacketElement@PBG@1@XZ" PURGE="0" COMMENT="" />
    <EXPORT ORDINAL="2439" NAME="?GetMessageW@Locale@@QBE_NKPAPAD0PAGK@Z" PURGE="20" COMMENT="" />
    <EXPORT ORDINAL="2440" NAME="?GetMinBatchItems@CCommonConfigSettings@@UAEKXZ" PURGE="0" COMMENT="" />
    <EXPORT ORDINAL="2441" NAME="?GetMinBatchSize@CCommonConfigSettings@@UAEKXZ" PURGE="0" COMMENT="" />
    <EXPORT ORDINAL="2442" NAME="?GetMinBatchTimeout@CCommonConfigSettings@@UAEKXZ" PURGE="0" COMMENT="" />
    <EXPORT ORDINAL="2443" NAME="?GetMinEnvelopeSize@CCommonConfigSettings@@UAEKXZ" PURGE="0" COMMENT="" />
    <EXPORT ORDINAL="2444" NAME="?GetMinTimeOut@CCommonConfigSettings@@UAEKXZ" PURGE="0" COMMENT="" />
    <EXPORT ORDINAL="2445" NAME="?GetNamespacePrefix@NotUnderstandSoapHeader@PacketParser@@QBEPBGXZ" PURGE="0" COMMENT="" />
    <EXPORT ORDINAL="2446" NAME="?GetNamespaceUrl@NotUnderstandSoapHeader@PacketParser@@QBEPBGXZ" PURGE="0" COMMENT="" />
    <EXPORT ORDINAL="2447" NAME="?GetNewStorage@RBUFFER@@IAEHI@Z" PURGE="4" COMMENT="" />
    <EXPORT ORDINAL="2448" NAME="?GetNotUnderstandHeader@PacketParser@@QBEABVNotUnderstandSoapHeader@1@XZ" PURGE="0" COMMENT="" />
    <EXPORT ORDINAL="2449" NAME="?GetObjectInformation@CWSManSecurityUI@@UAGJPAU_SI_OBJECT_INFO@@@Z" PURGE="8" COMMENT="" />
    <EXPORT ORDINAL="2450" NAME="?GetObjectW@?$ILoader@VAdminSid@CSecurity@@@@IBEPAVAdminSid@CSecurity@@XZ" PURGE="0" COMMENT="" />
    <EXPORT ORDINAL="2451" NAME="?GetObjectW@?$ILoader@VEventHandler@WSMan@@@@IBEPAVEventHandler@WSMan@@XZ" PURGE="0" COMMENT="" />
    <EXPORT ORDINAL="2452" NAME="?GetObjectW@?$ILoader@VInteractiveSid@CSecurity@@@@IBEPAVInteractiveSid@CSecurity@@XZ" PURGE="0" COMMENT="" />
    <EXPORT ORDINAL="2453" NAME="?GetObjectW@?$ILoader@VIpHlpApiDllLoader@@@@IBEPAVIpHlpApiDllLoader@@XZ" PURGE="0" COMMENT="" />
    <EXPORT ORDINAL="2454" NAME="?GetObjectW@?$ILoader@VMachineName@@@@IBEPAVMachineName@@XZ" PURGE="0" COMMENT="" />
    <EXPORT ORDINAL="2455" NAME="?GetObjectW@?$ILoader@VNetworkServiceSid@CSecurity@@@@IBEPAVNetworkServiceSid@CSecurity@@XZ" PURGE="0" COMMENT="" />
    <EXPORT ORDINAL="2456" NAME="?GetObjectW@?$ILoader@VNtDsApiDllLoader@@@@IBEPAVNtDsApiDllLoader@@XZ" PURGE="0" COMMENT="" />
    <EXPORT ORDINAL="2457" NAME="?GetObjectW@?$ILoader@VResources@Locale@@@@IBEPAVResources@Locale@@XZ" PURGE="0" COMMENT="" />
    <EXPORT ORDINAL="2458" NAME="?GetObjectW@?$ILoader@VShell32DllLoader@@@@IBEPAVShell32DllLoader@@XZ" PURGE="0" COMMENT="" />
    <EXPORT ORDINAL="2459" NAME="?GetObjectW@?$ILoader@VShlWApiDllLoader@@@@IBEPAVShlWApiDllLoader@@XZ" PURGE="0" COMMENT="" />
    <EXPORT ORDINAL="2460" NAME="?GetObjectW@?$ILoader@VSubscriptionManager@@@@IBEPAVSubscriptionManager@@XZ" PURGE="0" COMMENT="" />
    <EXPORT ORDINAL="2461" NAME="?GetObjectW@?$ILoader@VUser32DllLoader@@@@IBEPAVUser32DllLoader@@XZ" PURGE="0" COMMENT="" />
    <EXPORT ORDINAL="2462" NAME="?GetObjectW@?$ILoader@VWSManMemCryptManager@@@@IBEPAVWSManMemCryptManager@@XZ" PURGE="0" COMMENT="" />
    <EXPORT ORDINAL="2463" NAME="?GetOperationId@PacketParser@@QBEABV?$PacketElement@PBG@1@XZ" PURGE="0" COMMENT="" />
    <EXPORT ORDINAL="2464" NAME="?GetOptionCount@CWSManResourceNoResourceUri@@QAEKXZ" PURGE="0" COMMENT="" />
    <EXPORT ORDINAL="2465" NAME="?GetOptionTypes@CWSManResourceNoResourceUri@@QAEPAPBGXZ" PURGE="0" COMMENT="" />
    <EXPORT ORDINAL="2466" NAME="?GetOptionValue@CWSManResourceNoResourceUri@@QAEPBGPBG@Z" PURGE="4" COMMENT="" />
    <EXPORT ORDINAL="2467" NAME="?GetOptions@CWSManResourceNoResourceUri@@QAEPAU_WSMAN_OPTION@@XZ" PURGE="0" COMMENT="" />
    <EXPORT ORDINAL="2468" NAME="?GetOptionsMustUnderstandValue@CWSManResourceNoResourceUri@@QAEHXZ" PURGE="0" COMMENT="" />
    <EXPORT ORDINAL="2469" NAME="?GetOptionsSetXml@PacketParser@@QAEABV?$PacketElement@PAU_FWXML_ELEMENT@@@1@XZ" PURGE="0" COMMENT="" />
    <EXPORT ORDINAL="2470" NAME="?GetOriginalUri@CWSManResource@@QAEPBGXZ" PURGE="0" COMMENT="" />
    <EXPORT ORDINAL="2471" NAME="?GetPacket@PacketParser@@QAEPAVPacket@@XZ" PURGE="0" COMMENT="" />
    <EXPORT ORDINAL="2472" NAME="?GetPacketPool@PacketParser@@QAEAAVPacketPool@@XZ" PURGE="0" COMMENT="" />
    <EXPORT ORDINAL="2473" NAME="?GetParser@XmlReader@@QAEPAXXZ" PURGE="0" COMMENT="" />
    <EXPORT ORDINAL="2474" NAME="?GetPath@Fragment@PacketParser@@QBEPBGXZ" PURGE="0" COMMENT="" />
    <EXPORT ORDINAL="2475" NAME="?GetPolicyLocation@CWSManGroupPolicyManager@@AAEPBGPBU_WSMAN_POLICY_INFO@@@Z" PURGE="4" COMMENT="" />
    <EXPORT ORDINAL="2476" NAME="?GetPolicyValueForConfigSetting@CConfigManager@@AAEJW4ConfigSetting@@KPAGPAKPAW4WSManGroupPolicySettingState@@PAVIRequestContext@@@Z" PURGE="24" COMMENT="" />
    <EXPORT ORDINAL="2477" NAME="?GetPolicyValueForConfigSetting@CConfigManager@@AAEJW4ConfigSetting@@PAKPAW4WSManGroupPolicySettingState@@PAVIRequestContext@@@Z" PURGE="16" COMMENT="" />
    <EXPORT ORDINAL="2478" NAME="?GetProfileCount@UserRecord@@QAEJXZ" PURGE="0" COMMENT="" />
    <EXPORT ORDINAL="2479" NAME="?GetProfileHandle@UserRecord@@QAE_JXZ" PURGE="0" COMMENT="" />
    <EXPORT ORDINAL="2480" NAME="?GetPromptType@SoapSemanticConverter@@AAE_NPBGPAW4_MI_PromptType@@PAVIRequestContext@@@Z" PURGE="12" COMMENT="" />
    <EXPORT ORDINAL="2481" NAME="?GetQuotaRecord@UserRecord@@QBEPBVQuotaRecord@@XZ" PURGE="0" COMMENT="" />
    <EXPORT ORDINAL="2482" NAME="?GetRefCount@ILifeTimeMgmt@@QAEJXZ" PURGE="0" COMMENT="" />
    <EXPORT ORDINAL="2483" NAME="?GetReferenceParameters@ReferenceParameters@PacketParser@@QBEPBGXZ" PURGE="0" COMMENT="" />
    <EXPORT ORDINAL="2484" NAME="?GetReferenceProperties@ReferenceParameters@PacketParser@@QBEPBGXZ" PURGE="0" COMMENT="" />
    <EXPORT ORDINAL="2485" NAME="?GetRemainderPacket@PacketParser@@QAEPAVPacket@@PAVIRequestContext@@@Z" PURGE="4" COMMENT="" />
    <EXPORT ORDINAL="2486" NAME="?GetReplyToXml@PacketParser@@QBEABVReferenceParameters@1@XZ" PURGE="0" COMMENT="" />
    <EXPORT ORDINAL="2487" NAME="?GetRequestedDataLocale@PacketParser@@QBEABV?$PacketElement@PBG@1@XZ" PURGE="0" COMMENT="" />
    <EXPORT ORDINAL="2488" NAME="?GetRequestedLocale@PacketParser@@QBEABV?$PacketElement@PBG@1@XZ" PURGE="0" COMMENT="" />
    <EXPORT ORDINAL="2489" NAME="?GetResourceUri@PacketParser@@QBEABV?$PacketElement@PBG@1@XZ" PURGE="0" COMMENT="" />
    <EXPORT ORDINAL="2490" NAME="?GetRoot@XmlReader@@QAEPAU_FWXML_ELEMENT@@XZ" PURGE="0" COMMENT="" />
    <EXPORT ORDINAL="2491" NAME="?GetSecurity@CWSManSecurityUI@@UAGJKPAPAXH@Z" PURGE="16" COMMENT="" />
    <EXPORT ORDINAL="2492" NAME="?GetSecurityDescriptor@CConfigManager@@QAEHPAVIRequestContext@@W4ConfigSetting@@PAPAXPAW4WSManConfigSource@@@Z" PURGE="16" COMMENT="" />
    <EXPORT ORDINAL="2493" NAME="?GetSelectorSetXml@PacketParser@@QAEABV?$PacketElement@PAU_FWXML_ELEMENT@@@1@XZ" PURGE="0" COMMENT="" />
    <EXPORT ORDINAL="2494" NAME="?GetSequenceId@PacketParser@@QBEABV?$PacketElement@_K@1@XZ" PURGE="0" COMMENT="" />
    <EXPORT ORDINAL="2495" NAME="GetServiceCatalog" PURGE="0" COMMENT="" />
    <EXPORT ORDINAL="2496" NAME="?GetSessionId@PacketParser@@QBEABV?$PacketElement@PBG@1@XZ" PURGE="0" COMMENT="" />
    <EXPORT ORDINAL="2497" NAME="?GetSessionIdGuid@PacketParser@@QAEAAU_GUID@@XZ" PURGE="0" COMMENT="" />
    <EXPORT ORDINAL="2498" NAME="?GetSessionIdGuid@SessionId@PacketParser@@QAEAAU_GUID@@XZ" PURGE="0" COMMENT="" />
    <EXPORT ORDINAL="2499" NAME="?GetSetting@CConfigManager@@QAEHPAVIRequestContext@@W4ConfigSetting@@KPAGPAKPAW4WSManConfigSource@@@Z" PURGE="24" COMMENT="" />
    <EXPORT ORDINAL="2500" NAME="?GetShellCompressionType@PacketParser@@QBEABV?$PacketElement@PBG@1@XZ" PURGE="0" COMMENT="" />
    <EXPORT ORDINAL="2501" NAME="?GetSid@CSecurity@@SGPAXXZ" PURGE="0" COMMENT="" />
    <EXPORT ORDINAL="2502" NAME="?GetSizeInUse@SBUFFER@@QBEIXZ" PURGE="0" COMMENT="" />
    <EXPORT ORDINAL="2503" NAME="?GetSoapBody@PacketParser@@QAEPAU_FWXML_ELEMENT@@XZ" PURGE="0" COMMENT="" />
    <EXPORT ORDINAL="2504" NAME="?GetSoapHeaders@PacketParser@@QAEPAU_FWXML_ELEMENT@@XZ" PURGE="0" COMMENT="" />
    <EXPORT ORDINAL="2505" NAME="?GetSourceSubscriptionId@PacketParser@@QBEABV?$PacketElement@PBG@1@XZ" PURGE="0" COMMENT="" />
    <EXPORT ORDINAL="2506" NAME="?GetSpaceUsed@BufferFormatter@@UBEK_N@Z" PURGE="4" COMMENT="" />
    <EXPORT ORDINAL="2507" NAME="?GetSpaceUsed@CircularBufferFormatter@@UBEK_N@Z" PURGE="4" COMMENT="" />
    <EXPORT ORDINAL="2508" NAME="?GetStrPtr@TSTRBUFFER@@QAEPAGXZ" PURGE="0" COMMENT="" />
    <EXPORT ORDINAL="2509" NAME="?GetString@CConfigManager@@QAEHPAVIRequestContext@@W4ConfigSetting@@KPAGPAKPAW4WSManConfigSource@@@Z" PURGE="24" COMMENT="" />
    <EXPORT ORDINAL="2510" NAME="?GetString@CWSManGroupPolicyManager@@QAEHPAVIRequestContext@@W4WSManGroupPolicySetting@@KPAGPAKPAW4WSManGroupPolicySettingState@@@Z" PURGE="24" COMMENT="" />
    <EXPORT ORDINAL="2511" NAME="?GetString@Locale@@QAEPBGXZ" PURGE="0" COMMENT="" />
    <EXPORT ORDINAL="2512" NAME="?GetStringInternal@CConfigManager@@AAEHPAVIRequestContext@@W4ConfigSetting@@KKPAGPAKPAW4WSManConfigSource@@@Z" PURGE="28" COMMENT="" />
    <EXPORT ORDINAL="2513" NAME="?GetStringInternal@CWSManGroupPolicyManager@@AAEHPAVIRequestContext@@W4WSManGroupPolicySetting@@KKPAGPAKPAW4WSManGroupPolicySettingState@@@Z" PURGE="28" COMMENT="" />
    <EXPORT ORDINAL="2514" NAME="?GetSubscriptionId@PacketParser@@QBEABV?$PacketElement@PBG@1@XZ" PURGE="0" COMMENT="" />
    <EXPORT ORDINAL="2515" NAME="?GetSuccessCode@OnHTTPInitialize@@QBEKXZ" PURGE="0" COMMENT="" />
    <EXPORT ORDINAL="2516" NAME="?GetTimeout@PacketParser@@QBEABV?$PacketElement@K@1@XZ" PURGE="0" COMMENT="" />
    <EXPORT ORDINAL="2517" NAME="?GetTo@PacketParser@@QBEABV?$PacketElement@PBG@1@XZ" PURGE="0" COMMENT="" />
    <EXPORT ORDINAL="2518" NAME="?GetToken@CSecurity@@SGPAXXZ" PURGE="0" COMMENT="" />
    <EXPORT ORDINAL="2519" NAME="?GetToken@UserRecord@@QAEPAXXZ" PURGE="0" COMMENT="" />
    <EXPORT ORDINAL="2520" NAME="?GetUpdatedSDDL@CWSManSecurityUI@@QAEPAGPAVIRequestContext@@@Z" PURGE="4" COMMENT="" />
    <EXPORT ORDINAL="2521" NAME="?GetUri@CWSManResource@@QAEPBGXZ" PURGE="0" COMMENT="" />
    <EXPORT ORDINAL="2522" NAME="?GetUserAdministratorType@UserRecord@@QBE?AW4AdministratorType@UserAuthzRecord@@XZ" PURGE="0" COMMENT="" />
    <EXPORT ORDINAL="2523" NAME="?GetUserNameW@UserRecord@@QAEPBGXZ" PURGE="0" COMMENT="" />
    <EXPORT ORDINAL="2524" NAME="?GetValue@?$PacketElement@K@PacketParser@@QBEKXZ" PURGE="0" COMMENT="" />
    <EXPORT ORDINAL="2525" NAME="?GetValue@?$PacketElement@PAU_FWXML_ELEMENT@@@PacketParser@@QBEPAU_FWXML_ELEMENT@@XZ" PURGE="0" COMMENT="" />
    <EXPORT ORDINAL="2526" NAME="?GetValue@?$PacketElement@PBG@PacketParser@@QBEPBGXZ" PURGE="0" COMMENT="" />
    <EXPORT ORDINAL="2527" NAME="?GetValue@?$PacketElement@_K@PacketParser@@QBE_KXZ" PURGE="0" COMMENT="" />
    <EXPORT ORDINAL="2528" NAME="?GetWsmanData@TSTRBUFFER@@QAEXPAU_WSMAN_DATA@@@Z" PURGE="4" COMMENT="" />
    <EXPORT ORDINAL="2529" NAME="?GetXmlDoc@PacketParser@@QAEPAUFWXML_DOCUMENT@@XZ" PURGE="0" COMMENT="" />
    <EXPORT ORDINAL="2530" NAME="?GrowBuffer@BufferFormatter@@UAEKK@Z" PURGE="4" COMMENT="" />
    <EXPORT ORDINAL="2531" NAME="?GrowBuffer@BufferFormatter@@UAEKXZ" PURGE="0" COMMENT="" />
    <EXPORT ORDINAL="2532" NAME="?GrowBuffer@CircularBufferFormatter@@UAEKK@Z" PURGE="4" COMMENT="" />
    <EXPORT ORDINAL="2533" NAME="?GrowBuffer@CircularBufferFormatter@@UAEKXZ" PURGE="0" COMMENT="" />
    <EXPORT ORDINAL="2534" NAME="?HandleAutoConfiguredListener@CConfigManager@@QAEHPAVIRequestContext@@PAVLISTENER_IDENTITY@@@Z" PURGE="8" COMMENT="" />
    <EXPORT ORDINAL="2535" NAME="HandleMigration" PURGE="4" COMMENT="" />
    <EXPORT ORDINAL="2536" NAME="?HasFaultXML@CRequestContext@@QBEHXZ" PURGE="0" COMMENT="" />
    <EXPORT ORDINAL="2537" NAME="?HasHtmlError@CRequestContext@@ABEHXZ" PURGE="0" COMMENT="" />
    <EXPORT ORDINAL="2538" NAME="?HasOption@CWSManResourceNoResourceUri@@QAEHPBG@Z" PURGE="4" COMMENT="" />
    <EXPORT ORDINAL="2539" NAME="?ImpersonateUserOrSelf@CSecurity@@SGHW4CallSiteId@@PAX@Z" PURGE="8" COMMENT="" />
    <EXPORT ORDINAL="2540" NAME="?IncreaseProfileCount@UserRecord@@QAEXXZ" PURGE="0" COMMENT="" />
    <EXPORT ORDINAL="2541" NAME="?Info@EventLog@@SGXK@Z" PURGE="4" COMMENT="" />
    <EXPORT ORDINAL="2542" NAME="?Info@EventLog@@SGXKGPAPBG@Z" PURGE="12" COMMENT="" />
    <EXPORT ORDINAL="2543" NAME="?Info@EventLog@@SGXKPBG@Z" PURGE="8" COMMENT="" />
    <EXPORT ORDINAL="2544" NAME="?Init@CBaseConfigCache@@IAEHPAVIRequestContext@@H@Z" PURGE="8" COMMENT="" />
    <EXPORT ORDINAL="2545" NAME="?Init@CWSManSecurityUI@@QAEHPAG0PAVIRequestContext@@@Z" PURGE="12" COMMENT="" />
    <EXPORT ORDINAL="2546" NAME="?Init@ConfigRegistry@@IAEHXZ" PURGE="0" COMMENT="" />
    <EXPORT ORDINAL="2547" NAME="?Init@XmlReader@@QAEHPAVIRequestContext@@PAUWSMAN_OBJECT@@@Z" PURGE="8" COMMENT="" />
    <EXPORT ORDINAL="2548" NAME="?Init@XmlReader@@QAEHPAVIRequestContext@@PBG@Z" PURGE="8" COMMENT="" />
    <EXPORT ORDINAL="2549" NAME="?InitCfgMgr@CConfigManager@@AAEHPAVWSMANCONFIGTABLE_IDENTITY@@@Z" PURGE="4" COMMENT="" />
    <EXPORT ORDINAL="2550" NAME="?InitCfgMgr@CConfigManager@@AAEHPAVWSMANCONFIGTABLE_IDENTITY@@PAUHKEY__@@1@Z" PURGE="12" COMMENT="" />
    <EXPORT ORDINAL="2551" NAME="?InitMap@CBaseConfigCache@@CGHPAVIRequestContext@@AAV?$AutoRelease@VCConfigCacheMap@CBaseConfigCache@@@@@Z" PURGE="8" COMMENT="" />
    <EXPORT ORDINAL="2552" NAME="?Initialize@?$SafeMap@PAVCCertMapping@@UEmpty@@V?$SafeMap_Iterator@PAVCCertMapping@@UEmpty@@@@@@UAE_NAAVIRequestContext@@@Z" PURGE="4" COMMENT="" />
    <EXPORT ORDINAL="2553" NAME="?Initialize@?$SafeMap@PAVCCertMapping@@UEmpty@@V?$SafeSet_Iterator@PAVCCertMapping@@@@@@UAE_NAAVIRequestContext@@@Z" PURGE="4" COMMENT="" />
    <EXPORT ORDINAL="2554" NAME="?Initialize@?$SafeMap@PAVCListenerConnect@@PAV1@V?$SafeMap_Iterator@PAVCListenerConnect@@PAV1@@@@@UAE_NAAVIRequestContext@@@Z" PURGE="4" COMMENT="" />
    <EXPORT ORDINAL="2555" NAME="?Initialize@?$SafeMap@PAVCListenerOperation@@UEmpty@@V?$SafeMap_Iterator@PAVCListenerOperation@@UEmpty@@@@@@UAE_NAAVIRequestContext@@@Z" PURGE="4" COMMENT="" />
    <EXPORT ORDINAL="2556" NAME="?Initialize@?$SafeMap@PAVCListenerOperation@@UEmpty@@V?$SafeSet_Iterator@PAVCListenerOperation@@@@@@UAE_NAAVIRequestContext@@@Z" PURGE="4" COMMENT="" />
    <EXPORT ORDINAL="2557" NAME="?Initialize@?$SafeMap@PAVCListenerReceive@@PAV1@V?$SafeMap_Iterator@PAVCListenerReceive@@PAV1@@@@@UAE_NAAVIRequestContext@@@Z" PURGE="4" COMMENT="" />
    <EXPORT ORDINAL="2558" NAME="?Initialize@?$SafeMap@PAVCListenerSend@@PAV1@V?$SafeMap_Iterator@PAVCListenerSend@@PAV1@@@@@UAE_NAAVIRequestContext@@@Z" PURGE="4" COMMENT="" />
    <EXPORT ORDINAL="2559" NAME="?Initialize@?$SafeMap@PAVCListenerSignal@@PAV1@V?$SafeMap_Iterator@PAVCListenerSignal@@PAV1@@@@@UAE_NAAVIRequestContext@@@Z" PURGE="4" COMMENT="" />
    <EXPORT ORDINAL="2560" NAME="?Initialize@?$SafeMap@PAVCShellUriSettings@@UEmpty@@V?$SafeSet_Iterator@PAVCShellUriSettings@@@@@@UAE_NAAVIRequestContext@@@Z" PURGE="4" COMMENT="" />
    <EXPORT ORDINAL="2561" NAME="?Initialize@?$SafeMap@PAVCollector@@UEmpty@@V?$SafeMap_Iterator@PAVCollector@@UEmpty@@@@@@UAE_NAAVIRequestContext@@@Z" PURGE="4" COMMENT="" />
    <EXPORT ORDINAL="2562" NAME="?Initialize@?$SafeMap@PAVCollector@@UEmpty@@V?$SafeSet_Iterator@PAVCollector@@@@@@UAE_NAAVIRequestContext@@@Z" PURGE="4" COMMENT="" />
    <EXPORT ORDINAL="2563" NAME="?Initialize@?$SafeMap@PAVHostOperation@@UEmpty@@V?$SafeMap_Iterator@PAVHostOperation@@UEmpty@@@@@@UAE_NAAVIRequestContext@@@Z" PURGE="4" COMMENT="" />
    <EXPORT ORDINAL="2564" NAME="?Initialize@?$SafeMap@PAVHostOperation@@UEmpty@@V?$SafeSet_Iterator@PAVHostOperation@@@@@@UAE_NAAVIRequestContext@@@Z" PURGE="4" COMMENT="" />
    <EXPORT ORDINAL="2565" NAME="?Initialize@?$SafeMap@PAVIOperation@@UEmpty@@V?$SafeMap_Iterator@PAVIOperation@@UEmpty@@@@@@UAE_NAAVIRequestContext@@@Z" PURGE="4" COMMENT="" />
    <EXPORT ORDINAL="2566" NAME="?Initialize@?$SafeMap@PAVIOperation@@UEmpty@@V?$SafeSet_Iterator@PAVIOperation@@@@@@UAE_NAAVIRequestContext@@@Z" PURGE="4" COMMENT="" />
    <EXPORT ORDINAL="2567" NAME="?Initialize@?$SafeMap@PAVListenerSourceSubscription@@UEmpty@@V?$SafeMap_Iterator@PAVListenerSourceSubscription@@UEmpty@@@@@@UAE_NAAVIRequestContext@@@Z" PURGE="4" COMMENT="" />
    <EXPORT ORDINAL="2568" NAME="?Initialize@?$SafeMap@PAVListenerSourceSubscription@@UEmpty@@V?$SafeSet_Iterator@PAVListenerSourceSubscription@@@@@@UAE_NAAVIRequestContext@@@Z" PURGE="4" COMMENT="" />
    <EXPORT ORDINAL="2569" NAME="?Initialize@?$SafeMap@PAVPushSubscription@@UEmpty@@V?$SafeMap_Iterator@PAVPushSubscription@@UEmpty@@@@@@UAE_NAAVIRequestContext@@@Z" PURGE="4" COMMENT="" />
    <EXPORT ORDINAL="2570" NAME="?Initialize@?$SafeMap@PAVPushSubscription@@UEmpty@@V?$SafeSet_Iterator@PAVPushSubscription@@@@@@UAE_NAAVIRequestContext@@@Z" PURGE="4" COMMENT="" />
    <EXPORT ORDINAL="2571" NAME="?Initialize@?$SafeMap@PAXUEmpty@@V?$SafeSet_Iterator@PAX@@@@UAE_NAAVIRequestContext@@@Z" PURGE="4" COMMENT="" />
    <EXPORT ORDINAL="2572" NAME="?Initialize@?$SafeMap@UPluginKey@@KV?$SafeMap_Iterator@UPluginKey@@K@@@@UAE_NAAVIRequestContext@@@Z" PURGE="4" COMMENT="" />
    <EXPORT ORDINAL="2573" NAME="?Initialize@?$SafeMap@UUserKey@@PAVBlockedRecord@@V?$SafeMap_Iterator@UUserKey@@PAVBlockedRecord@@@@@@UAE_NAAVIRequestContext@@@Z" PURGE="4" COMMENT="" />
    <EXPORT ORDINAL="2574" NAME="?Initialize@?$SafeMap@VCertThumbprintKey@@VCertThumbprintMappedSet@CServiceConfigSettings@@V?$SafeMap_Iterator@VCertThumbprintKey@@VCertThumbprintMappedSet@CServiceConfigSettings@@@@@@UAE_NAAVIRequestContext@@@Z" PURGE="4" COMMENT="" />
    <EXPORT ORDINAL="2575" NAME="?Initialize@?$SafeMap@VGuidKey@@PAVCListenerCommand@@V?$SafeMap_Iterator@VGuidKey@@PAVCListenerCommand@@@@@@UAE_NAAVIRequestContext@@@Z" PURGE="4" COMMENT="" />
    <EXPORT ORDINAL="2576" NAME="?Initialize@?$SafeMap@VKey@CWmiPtrCache@@VMapping@2@V?$SafeMap_Iterator@VKey@CWmiPtrCache@@VMapping@2@@@@@UAE_NAAVIRequestContext@@@Z" PURGE="4" COMMENT="" />
    <EXPORT ORDINAL="2577" NAME="?Initialize@?$SafeMap@VKey@Locale@@KV?$SafeMap_Iterator@VKey@Locale@@K@@@@UAE_NAAVIRequestContext@@@Z" PURGE="4" COMMENT="" />
    <EXPORT ORDINAL="2578" NAME="?Initialize@?$SafeMap@VStringKey@@PAVListenerEvents@@V?$SafeMap_Iterator@VStringKey@@PAVListenerEvents@@@@@@UAE_NAAVIRequestContext@@@Z" PURGE="4" COMMENT="" />
    <EXPORT ORDINAL="2579" NAME="?Initialize@?$SafeMap@VStringKey@@PAVListenerSourceSubscription@@V?$SafeMap_Iterator@VStringKey@@PAVListenerSourceSubscription@@@@@@UAE_NAAVIRequestContext@@@Z" PURGE="4" COMMENT="" />
    <EXPORT ORDINAL="2580" NAME="?Initialize@?$SafeMap@VStringKey@@UOption@WinRM_OperationOptions@@V?$SafeMap_Iterator@VStringKey@@UOption@WinRM_OperationOptions@@@@@@UAE_NAAVIRequestContext@@@Z" PURGE="4" COMMENT="" />
    <EXPORT ORDINAL="2581" NAME="?Initialize@?$SafeMap@VStringKeyCI@@KV?$SafeMap_Iterator@VStringKeyCI@@K@@@@UAE_NAAVIRequestContext@@@Z" PURGE="4" COMMENT="" />
    <EXPORT ORDINAL="2582" NAME="?Initialize@?$SafeMap@VStringKeyCI@@PAVIISEndpoint@@V?$SafeMap_Iterator@VStringKeyCI@@PAVIISEndpoint@@@@@@UAE_NAAVIRequestContext@@@Z" PURGE="4" COMMENT="" />
    <EXPORT ORDINAL="2583" NAME="?Initialize@?$SafeMap@VStringKeyCI@@UEmpty@@V?$SafeMap_Iterator@VStringKeyCI@@UEmpty@@@@@@UAE_NAAVIRequestContext@@@Z" PURGE="4" COMMENT="" />
    <EXPORT ORDINAL="2584" NAME="?Initialize@?$SafeMap@VStringKeyCI@@UEmpty@@V?$SafeSet_Iterator@VStringKeyCI@@@@@@UAE_NAAVIRequestContext@@@Z" PURGE="4" COMMENT="" />
    <EXPORT ORDINAL="2585" NAME="?Initialize@?$SafeMap@VStringKeyCI@@UUSER_CONTEXT_INFO@WSManHttpListener@@V?$SafeMap_Iterator@VStringKeyCI@@UUSER_CONTEXT_INFO@WSManHttpListener@@@@@@UAE_NAAVIRequestContext@@@Z" PURGE="4" COMMENT="" />
    <EXPORT ORDINAL="2586" NAME="?Initialize@?$SafeMap@VStringKeyStore@@PAVExpiredOperationIdRecord@@V?$SafeMap_Iterator@VStringKeyStore@@PAVExpiredOperationIdRecord@@@@@@UAE_NAAVIRequestContext@@@Z" PURGE="4" COMMENT="" />
    <EXPORT ORDINAL="2587" NAME="?Initialize@?$SafeMap@VStringKeyStore@@PAVServerFullDuplexChannel@@V?$SafeMap_Iterator@VStringKeyStore@@PAVServerFullDuplexChannel@@@@@@UAE_NAAVIRequestContext@@@Z" PURGE="4" COMMENT="" />
    <EXPORT ORDINAL="2588" NAME="?Initialize@?$SafeMap@VTokenCacheKey@ServiceSoapProcessor@@VTokenCacheMapping@2@V?$SafeMap_Iterator@VTokenCacheKey@ServiceSoapProcessor@@VTokenCacheMapping@2@@@@@UAE_NAAVIRequestContext@@@Z" PURGE="4" COMMENT="" />
    <EXPORT ORDINAL="2589" NAME="?Initialize@?$SafeMap@W4WSManSessionOption@@PAVOptionValue@SessionOptions@Client@WSMan@@V?$SafeMap_Iterator@W4WSManSessionOption@@PAVOptionValue@SessionOptions@Client@WSMan@@@@@@UAE_NAAVIRequestContext@@@Z" PURGE="4" COMMENT="" />
    <EXPORT ORDINAL="2590" NAME="?Initialize@?$SafeMap@_KPAVSendPacketArgs@RobustConnectionBuffer@@V?$SafeMap_Iterator@_KPAVSendPacketArgs@RobustConnectionBuffer@@@@@@UAE_NAAVIRequestContext@@@Z" PURGE="4" COMMENT="" />
    <EXPORT ORDINAL="2591" NAME="?Initialize@?$SafeMap_Iterator@PAVCCertMapping@@UEmpty@@@@QAEAAV1@XZ" PURGE="0" COMMENT="" />
    <EXPORT ORDINAL="2592" NAME="?Initialize@?$SafeMap_Iterator@PAVCListenerOperation@@UEmpty@@@@QAEAAV1@XZ" PURGE="0" COMMENT="" />
    <EXPORT ORDINAL="2593" NAME="?Initialize@?$SafeMap_Iterator@PAVCShellUriSettings@@UEmpty@@@@QAEAAV1@XZ" PURGE="0" COMMENT="" />
    <EXPORT ORDINAL="2594" NAME="?Initialize@?$SafeMap_Iterator@VCertThumbprintKey@@VCertThumbprintMappedSet@CServiceConfigSettings@@@@QAEAAV1@XZ" PURGE="0" COMMENT="" />
    <EXPORT ORDINAL="2595" NAME="?Initialize@?$SafeMap_Iterator@VStringKeyCI@@K@@QAEAAV1@XZ" PURGE="0" COMMENT="" />
    <EXPORT ORDINAL="2596" NAME="?Initialize@?$SafeMap_Iterator@VStringKeyStore@@PAVExpiredOperationIdRecord@@@@QAEAAV1@XZ" PURGE="0" COMMENT="" />
    <EXPORT ORDINAL="2597" NAME="?Initialize@?$SafeMap_Iterator@W4WSManSessionOption@@PAVOptionValue@SessionOptions@Client@WSMan@@@@QAEAAV1@XZ" PURGE="0" COMMENT="" />
    <EXPORT ORDINAL="2598" NAME="?Initialize@CWSManGroupPolicyManager@@AAEHPAVIRequestContext@@PBG@Z" PURGE="8" COMMENT="" />
    <EXPORT ORDINAL="2599" NAME="?Initialize@EventHandler@WSMan@@QAE_NAAVIRequestContext@@@Z" PURGE="4" COMMENT="" />
    <EXPORT ORDINAL="2600" NAME="?Initialize@UserRecord@@SGXAAV1@ABUInitializer@1@@Z" PURGE="8" COMMENT="" />
    <EXPORT ORDINAL="2601" NAME="?InitializeSources@CBaseConfigCache@@IAEHPAVIRequestContext@@HH@Z" PURGE="12" COMMENT="" />
    <EXPORT ORDINAL="2602" NAME="?InitializeSourcesHelper@CBaseConfigCache@@MAEHPAVIRequestContext@@H@Z" PURGE="8" COMMENT="" />
    <EXPORT ORDINAL="2603" NAME="?InitializeSourcesHelper@CClientConfigCache@@EAEHPAVIRequestContext@@H@Z" PURGE="8" COMMENT="" />
    <EXPORT ORDINAL="2604" NAME="?InsertAtPosition@TSTRBUFFER@@QAEJPBGI@Z" PURGE="8" COMMENT="" />
    <EXPORT ORDINAL="2605" NAME="?InternalFailure@CErrorContext@@UAAXKZZ" PURGE="0" COMMENT="" />
    <EXPORT ORDINAL="2606" NAME="?InternalFailure@CRequestContext@@UAAXKZZ" PURGE="0" COMMENT="" />
    <EXPORT ORDINAL="2607" NAME="?InternalHResult@CErrorContext@@UAAXKKZZ" PURGE="0" COMMENT="" />
    <EXPORT ORDINAL="2608" NAME="?InternalHResult@CRequestContext@@UAAXKKZZ" PURGE="0" COMMENT="" />
    <EXPORT ORDINAL="2609" NAME="?InternalParse@CWSManEPR@@MAEHPAVIRequestContext@@@Z" PURGE="4" COMMENT="" />
    <EXPORT ORDINAL="2610" NAME="?InternalParse@CWSManResource@@MAEHPAVIRequestContext@@@Z" PURGE="4" COMMENT="" />
    <EXPORT ORDINAL="2611" NAME="?IsActive@ChildLifeTimeManager@@QAE_NXZ" PURGE="0" COMMENT="" />
    <EXPORT ORDINAL="2612" NAME="?IsAdmin@UserRecord@@QBE_NXZ" PURGE="0" COMMENT="" />
    <EXPORT ORDINAL="2613" NAME="?IsAutoListenerConfigurationOn@CConfigManager@@SGHPAVIRequestContext@@PAH@Z" PURGE="8" COMMENT="" />
    <EXPORT ORDINAL="2614" NAME="?IsCIM_Error@CRequestContext@@QAEHXZ" PURGE="0" COMMENT="" />
    <EXPORT ORDINAL="2615" NAME="?IsCurrentListenerAutoConfigured@CConfigManager@@QAEHPAVIRequestContext@@PAH@Z" PURGE="8" COMMENT="" />
    <EXPORT ORDINAL="2616" NAME="?IsCurrentListenerCompat@CConfigManager@@QBE_NXZ" PURGE="0" COMMENT="" />
    <EXPORT ORDINAL="2617" NAME="?IsDynAlloced@RBUFFER@@IBEHXZ" PURGE="0" COMMENT="" />
    <EXPORT ORDINAL="2618" NAME="?IsEPR@CWSManEPR@@UAEHXZ" PURGE="0" COMMENT="" />
    <EXPORT ORDINAL="2619" NAME="?IsEPR@CWSManResourceNoResourceUri@@UAEHXZ" PURGE="0" COMMENT="" />
    <EXPORT ORDINAL="2620" NAME="?IsEmpty@?$ILoader@VAdminSid@CSecurity@@@@QBE_NXZ" PURGE="0" COMMENT="" />
    <EXPORT ORDINAL="2621" NAME="?IsEmpty@?$ILoader@VEventHandler@WSMan@@@@QBE_NXZ" PURGE="0" COMMENT="" />
    <EXPORT ORDINAL="2622" NAME="?IsEmpty@?$ILoader@VInteractiveSid@CSecurity@@@@QBE_NXZ" PURGE="0" COMMENT="" />
    <EXPORT ORDINAL="2623" NAME="?IsEmpty@?$ILoader@VIpHlpApiDllLoader@@@@QBE_NXZ" PURGE="0" COMMENT="" />
    <EXPORT ORDINAL="2624" NAME="?IsEmpty@?$ILoader@VMachineName@@@@QBE_NXZ" PURGE="0" COMMENT="" />
    <EXPORT ORDINAL="2625" NAME="?IsEmpty@?$ILoader@VNetworkServiceSid@CSecurity@@@@QBE_NXZ" PURGE="0" COMMENT="" />
    <EXPORT ORDINAL="2626" NAME="?IsEmpty@?$ILoader@VNtDsApiDllLoader@@@@QBE_NXZ" PURGE="0" COMMENT="" />
    <EXPORT ORDINAL="2627" NAME="?IsEmpty@?$ILoader@VResources@Locale@@@@QBE_NXZ" PURGE="0" COMMENT="" />
    <EXPORT ORDINAL="2628" NAME="?IsEmpty@?$ILoader@VShell32DllLoader@@@@QBE_NXZ" PURGE="0" COMMENT="" />
    <EXPORT ORDINAL="2629" NAME="?IsEmpty@?$ILoader@VShlWApiDllLoader@@@@QBE_NXZ" PURGE="0" COMMENT="" />
    <EXPORT ORDINAL="2630" NAME="?IsEmpty@?$ILoader@VSubscriptionManager@@@@QBE_NXZ" PURGE="0" COMMENT="" />
    <EXPORT ORDINAL="2631" NAME="?IsEmpty@?$ILoader@VUser32DllLoader@@@@QBE_NXZ" PURGE="0" COMMENT="" />
    <EXPORT ORDINAL="2632" NAME="?IsEmpty@?$ILoader@VWSManMemCryptManager@@@@QBE_NXZ" PURGE="0" COMMENT="" />
    <EXPORT ORDINAL="2633" NAME="?IsEmpty@?$SafeMap@PAVCListenerOperation@@UEmpty@@V?$SafeSet_Iterator@PAVCListenerOperation@@@@@@QBE_NXZ" PURGE="0" COMMENT="" />
    <EXPORT ORDINAL="2634" NAME="?IsEmpty@?$SafeMap@VStringKeyCI@@KV?$SafeMap_Iterator@VStringKeyCI@@K@@@@QBE_NXZ" PURGE="0" COMMENT="" />
    <EXPORT ORDINAL="2635" NAME="?IsEmpty@?$SafeMap@VStringKeyCI@@UEmpty@@V?$SafeSet_Iterator@VStringKeyCI@@@@@@QBE_NXZ" PURGE="0" COMMENT="" />
    <EXPORT ORDINAL="2636" NAME="?IsEvent@SoapSemanticConverter@@QAE_NPAU_FWXML_ELEMENT@@@Z" PURGE="4" COMMENT="" />
    <EXPORT ORDINAL="2637" NAME="?IsEventEnabled@EventHandler@WSMan@@SG_NABU_EVENT_DESCRIPTOR@@@Z" PURGE="4" COMMENT="" />
    <EXPORT ORDINAL="2638" NAME="?IsEventProviderEnabled@EventHandler@WSMan@@SG_NXZ" PURGE="0" COMMENT="" />
    <EXPORT ORDINAL="2639" NAME="?IsFound@?$PacketElement@K@PacketParser@@QBEHXZ" PURGE="0" COMMENT="" />
    <EXPORT ORDINAL="2640" NAME="?IsFound@?$PacketElement@PAU_FWXML_ELEMENT@@@PacketParser@@QBEHXZ" PURGE="0" COMMENT="" />
    <EXPORT ORDINAL="2641" NAME="?IsFound@?$PacketElement@PBG@PacketParser@@QBEHXZ" PURGE="0" COMMENT="" />
    <EXPORT ORDINAL="2642" NAME="?IsFound@?$PacketElement@_K@PacketParser@@QBEHXZ" PURGE="0" COMMENT="" />
    <EXPORT ORDINAL="2643" NAME="?IsGeneratingError@CErrorContext@@UBE_NXZ" PURGE="0" COMMENT="" />
    <EXPORT ORDINAL="2644" NAME="?IsIdentifyPacket@PacketParser@@QBEHXZ" PURGE="0" COMMENT="" />
    <EXPORT ORDINAL="2645" NAME="?IsInCommitMode@BufferFormatter@@QAE_NXZ" PURGE="0" COMMENT="" />
    <EXPORT ORDINAL="2646" NAME="?IsInteractive@UserRecord@@QBE_NXZ" PURGE="0" COMMENT="" />
    <EXPORT ORDINAL="2647" NAME="?IsLocalSystemSid@CSecurity@@SGHPAX@Z" PURGE="4" COMMENT="" />
    <EXPORT ORDINAL="2648" NAME="?IsMustUnderstand@?$PacketElement@PBG@PacketParser@@QBEHXZ" PURGE="0" COMMENT="" />
    <EXPORT ORDINAL="2649" NAME="?IsNonOperativePacket@PacketParser@@QBEHXZ" PURGE="0" COMMENT="" />
    <EXPORT ORDINAL="2650" NAME="?IsPolicyControlledSetting@CConfigManager@@QAEHPAVIRequestContext@@W4ConfigSetting@@PAH@Z" PURGE="12" COMMENT="" />
    <EXPORT ORDINAL="2651" NAME="?IsRobustConnectionPacket@PacketParser@@QBEHXZ" PURGE="0" COMMENT="" />
    <EXPORT ORDINAL="2652" NAME="?IsStreamingEvent@SoapSemanticConverter@@QAE_NPAU_FWXML_ELEMENT@@PAVIRequestContext@@@Z" PURGE="8" COMMENT="" />
    <EXPORT ORDINAL="2653" NAME="IsStringNullOrEmpty" PURGE="4" COMMENT="" />
    <EXPORT ORDINAL="2654" NAME="?IsValid@?$SafeMap@PAVCListenerOperation@@UEmpty@@V?$SafeSet_Iterator@PAVCListenerOperation@@@@@@QBE_NXZ" PURGE="0" COMMENT="" />
    <EXPORT ORDINAL="2655" NAME="?IsValid@?$SafeMap@UPluginKey@@KV?$SafeMap_Iterator@UPluginKey@@K@@@@QBE_NXZ" PURGE="0" COMMENT="" />
    <EXPORT ORDINAL="2656" NAME="?IsValid@?$SafeMap@VStringKeyCI@@KV?$SafeMap_Iterator@VStringKeyCI@@K@@@@QBE_NXZ" PURGE="0" COMMENT="" />
    <EXPORT ORDINAL="2657" NAME="?IsValid@?$SafeMap@VStringKeyCI@@UUSER_CONTEXT_INFO@WSManHttpListener@@V?$SafeMap_Iterator@VStringKeyCI@@UUSER_CONTEXT_INFO@WSManHttpListener@@@@@@QBE_NXZ" PURGE="0" COMMENT="" />
    <EXPORT ORDINAL="2658" NAME="?IsValid@?$SafeMap@VStringKeyStore@@PAVServerFullDuplexChannel@@V?$SafeMap_Iterator@VStringKeyStore@@PAVServerFullDuplexChannel@@@@@@QBE_NXZ" PURGE="0" COMMENT="" />
    <EXPORT ORDINAL="2659" NAME="?IsValid@?$SafeMap@W4WSManSessionOption@@PAVOptionValue@SessionOptions@Client@WSMan@@V?$SafeMap_Iterator@W4WSManSessionOption@@PAVOptionValue@SessionOptions@Client@WSMan@@@@@@QBE_NXZ" PURGE="0" COMMENT="" />
    <EXPORT ORDINAL="2660" NAME="?IsValid@?$SafeMap_Iterator@PAVCCertMapping@@UEmpty@@@@QBE_NXZ" PURGE="0" COMMENT="" />
    <EXPORT ORDINAL="2661" NAME="?IsValid@?$SafeMap_Iterator@PAVCListenerConnect@@PAV1@@@QBE_NXZ" PURGE="0" COMMENT="" />
    <EXPORT ORDINAL="2662" NAME="?IsValid@?$SafeMap_Iterator@PAVCListenerOperation@@UEmpty@@@@QBE_NXZ" PURGE="0" COMMENT="" />
    <EXPORT ORDINAL="2663" NAME="?IsValid@?$SafeMap_Iterator@PAVCListenerReceive@@PAV1@@@QBE_NXZ" PURGE="0" COMMENT="" />
    <EXPORT ORDINAL="2664" NAME="?IsValid@?$SafeMap_Iterator@PAVCListenerSend@@PAV1@@@QBE_NXZ" PURGE="0" COMMENT="" />
    <EXPORT ORDINAL="2665" NAME="?IsValid@?$SafeMap_Iterator@PAVCListenerSignal@@PAV1@@@QBE_NXZ" PURGE="0" COMMENT="" />
    <EXPORT ORDINAL="2666" NAME="?IsValid@?$SafeMap_Iterator@PAVCShellUriSettings@@UEmpty@@@@QBE_NXZ" PURGE="0" COMMENT="" />
    <EXPORT ORDINAL="2667" NAME="?IsValid@?$SafeMap_Iterator@PAVCollector@@UEmpty@@@@QBE_NXZ" PURGE="0" COMMENT="" />
    <EXPORT ORDINAL="2668" NAME="?IsValid@?$SafeMap_Iterator@PAVHostOperation@@UEmpty@@@@QBE_NXZ" PURGE="0" COMMENT="" />
    <EXPORT ORDINAL="2669" NAME="?IsValid@?$SafeMap_Iterator@PAVIOperation@@UEmpty@@@@QBE_NXZ" PURGE="0" COMMENT="" />
    <EXPORT ORDINAL="2670" NAME="?IsValid@?$SafeMap_Iterator@PAVListenerSourceSubscription@@UEmpty@@@@QBE_NXZ" PURGE="0" COMMENT="" />
    <EXPORT ORDINAL="2671" NAME="?IsValid@?$SafeMap_Iterator@PAVPushSubscription@@UEmpty@@@@QBE_NXZ" PURGE="0" COMMENT="" />
    <EXPORT ORDINAL="2672" NAME="?IsValid@?$SafeMap_Iterator@PAXUEmpty@@@@QBE_NXZ" PURGE="0" COMMENT="" />
    <EXPORT ORDINAL="2673" NAME="?IsValid@?$SafeMap_Iterator@UPluginKey@@K@@QBE_NXZ" PURGE="0" COMMENT="" />
    <EXPORT ORDINAL="2674" NAME="?IsValid@?$SafeMap_Iterator@UUserKey@@PAVBlockedRecord@@@@QBE_NXZ" PURGE="0" COMMENT="" />
    <EXPORT ORDINAL="2675" NAME="?IsValid@?$SafeMap_Iterator@VCertThumbprintKey@@VCertThumbprintMappedSet@CServiceConfigSettings@@@@QBE_NXZ" PURGE="0" COMMENT="" />
    <EXPORT ORDINAL="2676" NAME="?IsValid@?$SafeMap_Iterator@VGuidKey@@PAVCListenerCommand@@@@QBE_NXZ" PURGE="0" COMMENT="" />
    <EXPORT ORDINAL="2677" NAME="?IsValid@?$SafeMap_Iterator@VKey@CWmiPtrCache@@VMapping@2@@@QBE_NXZ" PURGE="0" COMMENT="" />
    <EXPORT ORDINAL="2678" NAME="?IsValid@?$SafeMap_Iterator@VKey@Locale@@K@@QBE_NXZ" PURGE="0" COMMENT="" />
    <EXPORT ORDINAL="2679" NAME="?IsValid@?$SafeMap_Iterator@VStringKey@@PAVListenerEvents@@@@QBE_NXZ" PURGE="0" COMMENT="" />
    <EXPORT ORDINAL="2680" NAME="?IsValid@?$SafeMap_Iterator@VStringKey@@PAVListenerSourceSubscription@@@@QBE_NXZ" PURGE="0" COMMENT="" />
    <EXPORT ORDINAL="2681" NAME="?IsValid@?$SafeMap_Iterator@VStringKey@@UOption@WinRM_OperationOptions@@@@QBE_NXZ" PURGE="0" COMMENT="" />
    <EXPORT ORDINAL="2682" NAME="?IsValid@?$SafeMap_Iterator@VStringKeyCI@@K@@QBE_NXZ" PURGE="0" COMMENT="" />
    <EXPORT ORDINAL="2683" NAME="?IsValid@?$SafeMap_Iterator@VStringKeyCI@@PAVIISEndpoint@@@@QBE_NXZ" PURGE="0" COMMENT="" />
    <EXPORT ORDINAL="2684" NAME="?IsValid@?$SafeMap_Iterator@VStringKeyCI@@UEmpty@@@@QBE_NXZ" PURGE="0" COMMENT="" />
    <EXPORT ORDINAL="2685" NAME="?IsValid@?$SafeMap_Iterator@VStringKeyCI@@UUSER_CONTEXT_INFO@WSManHttpListener@@@@QBE_NXZ" PURGE="0" COMMENT="" />
    <EXPORT ORDINAL="2686" NAME="?IsValid@?$SafeMap_Iterator@VStringKeyStore@@PAVExpiredOperationIdRecord@@@@QBE_NXZ" PURGE="0" COMMENT="" />
    <EXPORT ORDINAL="2687" NAME="?IsValid@?$SafeMap_Iterator@VStringKeyStore@@PAVServerFullDuplexChannel@@@@QBE_NXZ" PURGE="0" COMMENT="" />
    <EXPORT ORDINAL="2688" NAME="?IsValid@?$SafeMap_Iterator@VTokenCacheKey@ServiceSoapProcessor@@VTokenCacheMapping@2@@@QBE_NXZ" PURGE="0" COMMENT="" />
    <EXPORT ORDINAL="2689" NAME="?IsValid@?$SafeMap_Iterator@W4WSManSessionOption@@PAVOptionValue@SessionOptions@Client@WSMan@@@@QBE_NXZ" PURGE="0" COMMENT="" />
    <EXPORT ORDINAL="2690" NAME="?IsValid@?$SafeMap_Iterator@_KPAVSendPacketArgs@RobustConnectionBuffer@@@@QBE_NXZ" PURGE="0" COMMENT="" />
    <EXPORT ORDINAL="2691" NAME="?IsValid@CWSManCriticalSection@@QBEHXZ" PURGE="0" COMMENT="" />
    <EXPORT ORDINAL="2692" NAME="?IsValid@RBUFFER@@IBEHXZ" PURGE="0" COMMENT="" />
    <EXPORT ORDINAL="2693" NAME="?Key@?$SafeMap@VStringKeyCI@@KV?$SafeMap_Iterator@VStringKeyCI@@K@@@@QBEPBVStringKeyCI@@ABV2@@Z" PURGE="4" COMMENT="" />
    <EXPORT ORDINAL="2694" NAME="?Key@?$SafeMap@VStringKeyCI@@UUSER_CONTEXT_INFO@WSManHttpListener@@V?$SafeMap_Iterator@VStringKeyCI@@UUSER_CONTEXT_INFO@WSManHttpListener@@@@@@QBEPBVStringKeyCI@@ABV2@@Z" PURGE="4" COMMENT="" />
    <EXPORT ORDINAL="2695" NAME="?Key@?$SafeMap_Iterator@VKey@Locale@@K@@QBEABV0Locale@@XZ" PURGE="0" COMMENT="" />
    <EXPORT ORDINAL="2696" NAME="?Key@?$SafeMap_Iterator@VStringKeyCI@@K@@QBEABVStringKeyCI@@XZ" PURGE="0" COMMENT="" />
    <EXPORT ORDINAL="2697" NAME="?Key@?$SafeMap_Iterator@VStringKeyCI@@UUSER_CONTEXT_INFO@WSManHttpListener@@@@QBEABVStringKeyCI@@XZ" PURGE="0" COMMENT="" />
    <EXPORT ORDINAL="2698" NAME="?LogError@CBaseConfigCache@@UAEXKK@Z" PURGE="8" COMMENT="" />
    <EXPORT ORDINAL="2699" NAME="?LogErrorCode@CErrorContext@@QAEXXZ" PURGE="0" COMMENT="" />
    <EXPORT ORDINAL="2700" NAME="?LogErrorCode@CRequestContext@@QAEXXZ" PURGE="0" COMMENT="" />
    <EXPORT ORDINAL="2701" NAME="?LogErrorMessage@CRequestContext@@QAEXXZ" PURGE="0" COMMENT="" />
    <EXPORT ORDINAL="2702" NAME="?LogNotificationEvent@CWSManGroupPolicyManager@@CGXK@Z" PURGE="4" COMMENT="" />
    <EXPORT ORDINAL="2703" NAME="?LogReadErrors@CBaseConfigCache@@IAE?AW4ErrorLogging@@W4ConfigChangeSources@@@Z" PURGE="4" COMMENT="" />
    <EXPORT ORDINAL="2704" NAME="?LowerBound@?$SafeMap_Iterator@VKey@Locale@@K@@QAEXABVKey@Locale@@@Z" PURGE="4" COMMENT="" />
    <EXPORT ORDINAL="2705" NAME="?MakeUrlBinding@@YGHKPAGPAKPBG222@Z" PURGE="28" COMMENT="" />
    <EXPORT ORDINAL="2706" NAME="?MakeUrlBinding@@YGPAGPAVIRequestContext@@PBG111@Z" PURGE="20" COMMENT="" />
    <EXPORT ORDINAL="2707" NAME="?MapGeneric@CWSManSecurityUI@@UAGJPBU_GUID@@PAEPAK@Z" PURGE="16" COMMENT="" />
    <EXPORT ORDINAL="2708" NAME="?Me@?$AutoCleanup@V?$AutoDelete@D@@PAD@@AAEAAV?$AutoDelete@D@@XZ" PURGE="0" COMMENT="" />
    <EXPORT ORDINAL="2709" NAME="?Me@?$AutoCleanup@V?$AutoDelete@G@@PAG@@AAEAAV?$AutoDelete@G@@XZ" PURGE="0" COMMENT="" />
    <EXPORT ORDINAL="2710" NAME="?Me@?$AutoCleanup@V?$AutoDelete@UIPRange@CWSManIPFilter@@@@PAUIPRange@CWSManIPFilter@@@@AAEAAV?$AutoDelete@UIPRange@CWSManIPFilter@@@@XZ" PURGE="0" COMMENT="" />
    <EXPORT ORDINAL="2711" NAME="?Me@?$AutoCleanup@V?$AutoDelete@U_SID@@@@PAU_SID@@@@AAEAAV?$AutoDelete@U_SID@@@@XZ" PURGE="0" COMMENT="" />
    <EXPORT ORDINAL="2712" NAME="?Me@?$AutoCleanup@V?$AutoDelete@U_WSMAN_STREAM_ID_SET@@@@PAU_WSMAN_STREAM_ID_SET@@@@AAEAAV?$AutoDelete@U_WSMAN_STREAM_ID_SET@@@@XZ" PURGE="0" COMMENT="" />
    <EXPORT ORDINAL="2713" NAME="?Me@?$AutoCleanup@V?$AutoDelete@V?$Handle@VISubscription@@@@@@PAV?$Handle@VISubscription@@@@@@AAEAAV?$AutoDelete@V?$Handle@VISubscription@@@@@@XZ" PURGE="0" COMMENT="" />
    <EXPORT ORDINAL="2714" NAME="?Me@?$AutoCleanup@V?$AutoDelete@V?$SafeMap_Iterator@PAVCListenerConnect@@PAV1@@@@@PAV?$SafeMap_Iterator@PAVCListenerConnect@@PAV1@@@@@AAEAAV?$AutoDelete@V?$SafeMap_Iterator@PAVCListenerConnect@@PAV1@@@@@XZ" PURGE="0" COMMENT="" />
    <EXPORT ORDINAL="2715" NAME="?Me@?$AutoCleanup@V?$AutoDelete@V?$SafeMap_Iterator@PAVCListenerReceive@@PAV1@@@@@PAV?$SafeMap_Iterator@PAVCListenerReceive@@PAV1@@@@@AAEAAV?$AutoDelete@V?$SafeMap_Iterator@PAVCListenerReceive@@PAV1@@@@@XZ" PURGE="0" COMMENT="" />
    <EXPORT ORDINAL="2716" NAME="?Me@?$AutoCleanup@V?$AutoDelete@V?$SafeMap_Iterator@PAVCListenerSend@@PAV1@@@@@PAV?$SafeMap_Iterator@PAVCListenerSend@@PAV1@@@@@AAEAAV?$AutoDelete@V?$SafeMap_Iterator@PAVCListenerSend@@PAV1@@@@@XZ" PURGE="0" COMMENT="" />
    <EXPORT ORDINAL="2717" NAME="?Me@?$AutoCleanup@V?$AutoDelete@V?$SafeMap_Iterator@PAVCListenerSignal@@PAV1@@@@@PAV?$SafeMap_Iterator@PAVCListenerSignal@@PAV1@@@@@AAEAAV?$AutoDelete@V?$SafeMap_Iterator@PAVCListenerSignal@@PAV1@@@@@XZ" PURGE="0" COMMENT="" />
    <EXPORT ORDINAL="2718" NAME="?Me@?$AutoCleanup@V?$AutoDelete@V?$SafeMap_Iterator@VGuidKey@@PAVCListenerCommand@@@@@@PAV?$SafeMap_Iterator@VGuidKey@@PAVCListenerCommand@@@@@@AAEAAV?$AutoDelete@V?$SafeMap_Iterator@VGuidKey@@PAVCListenerCommand@@@@@@XZ" PURGE="0" COMMENT="" />
    <EXPORT ORDINAL="2719" NAME="?Me@?$AutoCleanup@V?$AutoDelete@V?$SafeMap_Iterator@VStringKeyCI@@K@@@@PAV?$SafeMap_Iterator@VStringKeyCI@@K@@@@AAEAAV?$AutoDelete@V?$SafeMap_Iterator@VStringKeyCI@@K@@@@XZ" PURGE="0" COMMENT="" />
    <EXPORT ORDINAL="2720" NAME="?Me@?$AutoCleanup@V?$AutoDelete@V?$SafeMap_Iterator@W4WSManSessionOption@@PAVOptionValue@SessionOptions@Client@WSMan@@@@@@PAV?$SafeMap_Iterator@W4WSManSessionOption@@PAVOptionValue@SessionOptions@Client@WSMan@@@@@@AAEAAV?$AutoDelete@V?$SafeMap_Iterator@W4WSManSessionOption@@PAVOptionValue@SessionOptions@Client@WSMan@@@@@@XZ" PURGE="0" COMMENT="" />
    <EXPORT ORDINAL="2721" NAME="?Me@?$AutoCleanup@V?$AutoDelete@V?$SafeSet@PAVCCertMapping@@@@@@PAV?$SafeSet@PAVCCertMapping@@@@@@AAEAAV?$AutoDelete@V?$SafeSet@PAVCCertMapping@@@@@@XZ" PURGE="0" COMMENT="" />
    <EXPORT ORDINAL="2722" NAME="?Me@?$AutoCleanup@V?$AutoDelete@V?$SafeSet@PAVCShellUriSettings@@@@@@PAV?$SafeSet@PAVCShellUriSettings@@@@@@AAEAAV?$AutoDelete@V?$SafeSet@PAVCShellUriSettings@@@@@@XZ" PURGE="0" COMMENT="" />
    <EXPORT ORDINAL="2723" NAME="?Me@?$AutoCleanup@V?$AutoDelete@V?$SafeSet_Iterator@PAVCListenerOperation@@@@@@PAV?$SafeSet_Iterator@PAVCListenerOperation@@@@@@AAEAAV?$AutoDelete@V?$SafeSet_Iterator@PAVCListenerOperation@@@@@@XZ" PURGE="0" COMMENT="" />
    <EXPORT ORDINAL="2724" NAME="?Me@?$AutoCleanup@V?$AutoDelete@V?$SafeSet_Iterator@PAVCollector@@@@@@PAV?$SafeSet_Iterator@PAVCollector@@@@@@AAEAAV?$AutoDelete@V?$SafeSet_Iterator@PAVCollector@@@@@@XZ" PURGE="0" COMMENT="" />
    <EXPORT ORDINAL="2725" NAME="?Me@?$AutoCleanup@V?$AutoDelete@V?$SafeSet_Iterator@PAVHostOperation@@@@@@PAV?$SafeSet_Iterator@PAVHostOperation@@@@@@AAEAAV?$AutoDelete@V?$SafeSet_Iterator@PAVHostOperation@@@@@@XZ" PURGE="0" COMMENT="" />
    <EXPORT ORDINAL="2726" NAME="?Me@?$AutoCleanup@V?$AutoDelete@V?$SafeSet_Iterator@PAVListenerSourceSubscription@@@@@@PAV?$SafeSet_Iterator@PAVListenerSourceSubscription@@@@@@AAEAAV?$AutoDelete@V?$SafeSet_Iterator@PAVListenerSourceSubscription@@@@@@XZ" PURGE="0" COMMENT="" />
    <EXPORT ORDINAL="2727" NAME="?Me@?$AutoCleanup@V?$AutoDelete@V?$SimpleStack@VCListenerOperation@@@@@@PAV?$SimpleStack@VCListenerOperation@@@@@@AAEAAV?$AutoDelete@V?$SimpleStack@VCListenerOperation@@@@@@XZ" PURGE="0" COMMENT="" />
    <EXPORT ORDINAL="2728" NAME="?Me@?$AutoCleanup@V?$AutoDelete@V?$SimpleStack@VShellHostEntry@@@@@@PAV?$SimpleStack@VShellHostEntry@@@@@@AAEAAV?$AutoDelete@V?$SimpleStack@VShellHostEntry@@@@@@XZ" PURGE="0" COMMENT="" />
    <EXPORT ORDINAL="2729" NAME="?Me@?$AutoCleanup@V?$AutoDelete@V?$queue@PAU_WSMAN_PUBLISHER_EVENT_STRUCT@@V?$deque@PAU_WSMAN_PUBLISHER_EVENT_STRUCT@@V?$transport_allocator@PAU_WSMAN_PUBLISHER_EVENT_STRUCT@@@@@std@@@std@@@@PAV?$queue@PAU_WSMAN_PUBLISHER_EVENT_STRUCT@@V?$deque@PAU_WSMAN_PUBLISHER_EVENT_STRUCT@@V?$transport_allocator@PAU_WSMAN_PUBLISHER_EVENT_STRUCT@@@@@std@@@std@@@@AAEAAV?$AutoDelete@V?$queue@PAU_WSMAN_PUBLISHER_EVENT_STRUCT@@V?$deque@PAU_WSMAN_PUBLISHER_EVENT_STRUCT@@V?$transport_allocator@PAU_WSMAN_PUBLISHER_EVENT_STRUCT@@@@@std@@@std@@@@XZ" PURGE="0" COMMENT="" />
    <EXPORT ORDINAL="2730" NAME="?Me@?$AutoCleanup@V?$AutoDelete@V?$set@PAVCListenerSettings@@VCListenerSettingsLessFunctor@CServiceConfigSettings@@V?$transport_allocator@PAVCListenerSettings@@@@@std@@@@PAV?$set@PAVCListenerSettings@@VCListenerSettingsLessFunctor@CServiceConfigSettings@@V?$transport_allocator@PAVCListenerSettings@@@@@std@@@@AAEAAV?$AutoDelete@V?$set@PAVCListenerSettings@@VCListenerSettingsLessFunctor@CServiceConfigSettings@@V?$transport_allocator@PAVCListenerSettings@@@@@std@@@@XZ" PURGE="0" COMMENT="" />
    <EXPORT ORDINAL="2731" NAME="?Me@?$AutoCleanup@V?$AutoDelete@V?$set@Usockaddr_storage@@VSockAddrLessFunctor@CListenerSettings@@V?$transport_allocator@Usockaddr_storage@@@@@std@@@@PAV?$set@Usockaddr_storage@@VSockAddrLessFunctor@CListenerSettings@@V?$transport_allocator@Usockaddr_storage@@@@@std@@@@AAEAAV?$AutoDelete@V?$set@Usockaddr_storage@@VSockAddrLessFunctor@CListenerSettings@@V?$transport_allocator@Usockaddr_storage@@@@@std@@@@XZ" PURGE="0" COMMENT="" />
    <EXPORT ORDINAL="2732" NAME="?Me@?$AutoCleanup@V?$AutoDelete@V?$vector@PAVCWSManRequest@@V?$transport_allocator@PAVCWSManRequest@@@@@std@@@@PAV?$vector@PAVCWSManRequest@@V?$transport_allocator@PAVCWSManRequest@@@@@std@@@@AAEAAV?$AutoDelete@V?$vector@PAVCWSManRequest@@V?$transport_allocator@PAVCWSManRequest@@@@@std@@@@XZ" PURGE="0" COMMENT="" />
    <EXPORT ORDINAL="2733" NAME="?Me@?$AutoCleanup@V?$AutoDelete@V?$vector@PAVHandleImpl@Client@WSMan@@V?$transport_allocator@PAVHandleImpl@Client@WSMan@@@@@std@@@@PAV?$vector@PAVHandleImpl@Client@WSMan@@V?$transport_allocator@PAVHandleImpl@Client@WSMan@@@@@std@@@@AAEAAV?$AutoDelete@V?$vector@PAVHandleImpl@Client@WSMan@@V?$transport_allocator@PAVHandleImpl@Client@WSMan@@@@@std@@@@XZ" PURGE="0" COMMENT="" />
    <EXPORT ORDINAL="2734" NAME="?Me@?$AutoCleanup@V?$AutoDelete@V?$vector@PAVIServiceConfigObserver@@V?$transport_allocator@PAVIServiceConfigObserver@@@@@std@@@@PAV?$vector@PAVIServiceConfigObserver@@V?$transport_allocator@PAVIServiceConfigObserver@@@@@std@@@@AAEAAV?$AutoDelete@V?$vector@PAVIServiceConfigObserver@@V?$transport_allocator@PAVIServiceConfigObserver@@@@@std@@@@XZ" PURGE="0" COMMENT="" />
    <EXPORT ORDINAL="2735" NAME="?Me@?$AutoCleanup@V?$AutoDelete@V?$vector@PAVWSManHttpSenderConnection@@V?$transport_allocator@PAVWSManHttpSenderConnection@@@@@std@@@@PAV?$vector@PAVWSManHttpSenderConnection@@V?$transport_allocator@PAVWSManHttpSenderConnection@@@@@std@@@@AAEAAV?$AutoDelete@V?$vector@PAVWSManHttpSenderConnection@@V?$transport_allocator@PAVWSManHttpSenderConnection@@@@@std@@@@XZ" PURGE="0" COMMENT="" />
    <EXPORT ORDINAL="2736" NAME="?Me@?$AutoCleanup@V?$AutoDelete@VAdminSid@CSecurity@@@@PAVAdminSid@CSecurity@@@@AAEAAV?$AutoDelete@VAdminSid@CSecurity@@@@XZ" PURGE="0" COMMENT="" />
    <EXPORT ORDINAL="2737" NAME="?Me@?$AutoCleanup@V?$AutoDelete@VBlockedRecord@@@@PAVBlockedRecord@@@@AAEAAV?$AutoDelete@VBlockedRecord@@@@XZ" PURGE="0" COMMENT="" />
    <EXPORT ORDINAL="2738" NAME="?Me@?$AutoCleanup@V?$AutoDelete@VCBaseConfigCache@@@@PAVCBaseConfigCache@@@@AAEAAV?$AutoDelete@VCBaseConfigCache@@@@XZ" PURGE="0" COMMENT="" />
    <EXPORT ORDINAL="2739" NAME="?Me@?$AutoCleanup@V?$AutoDelete@VCCertMapping@@@@PAVCCertMapping@@@@AAEAAV?$AutoDelete@VCCertMapping@@@@XZ" PURGE="0" COMMENT="" />
    <EXPORT ORDINAL="2740" NAME="?Me@?$AutoCleanup@V?$AutoDelete@VCConfigChangeSource@@@@PAVCConfigChangeSource@@@@AAEAAV?$AutoDelete@VCConfigChangeSource@@@@XZ" PURGE="0" COMMENT="" />
    <EXPORT ORDINAL="2741" NAME="?Me@?$AutoCleanup@V?$AutoDelete@VCListenerSettings@@@@PAVCListenerSettings@@@@AAEAAV?$AutoDelete@VCListenerSettings@@@@XZ" PURGE="0" COMMENT="" />
    <EXPORT ORDINAL="2742" NAME="?Me@?$AutoCleanup@V?$AutoDelete@VCObserverConfigChangeErrors@@@@PAVCObserverConfigChangeErrors@@@@AAEAAV?$AutoDelete@VCObserverConfigChangeErrors@@@@XZ" PURGE="0" COMMENT="" />
    <EXPORT ORDINAL="2743" NAME="?Me@?$AutoCleanup@V?$AutoDelete@VCServiceWatcher@CServiceConfigCache@@@@PAVCServiceWatcher@CServiceConfigCache@@@@AAEAAV?$AutoDelete@VCServiceWatcher@CServiceConfigCache@@@@XZ" PURGE="0" COMMENT="" />
    <EXPORT ORDINAL="2744" NAME="?Me@?$AutoCleanup@V?$AutoDelete@VCShellUriSettings@@@@PAVCShellUriSettings@@@@AAEAAV?$AutoDelete@VCShellUriSettings@@@@XZ" PURGE="0" COMMENT="" />
    <EXPORT ORDINAL="2745" NAME="?Me@?$AutoCleanup@V?$AutoDelete@VCWSManEPR@@@@PAVCWSManEPR@@@@AAEAAV?$AutoDelete@VCWSManEPR@@@@XZ" PURGE="0" COMMENT="" />
    <EXPORT ORDINAL="2746" NAME="?Me@?$AutoCleanup@V?$AutoDelete@VCWSManResource@@@@PAVCWSManResource@@@@AAEAAV?$AutoDelete@VCWSManResource@@@@XZ" PURGE="0" COMMENT="" />
    <EXPORT ORDINAL="2747" NAME="?Me@?$AutoCleanup@V?$AutoDelete@VCertHash@@@@PAVCertHash@@@@AAEAAV?$AutoDelete@VCertHash@@@@XZ" PURGE="0" COMMENT="" />
    <EXPORT ORDINAL="2748" NAME="?Me@?$AutoCleanup@V?$AutoDelete@VConfigUpdate@@@@PAVConfigUpdate@@@@AAEAAV?$AutoDelete@VConfigUpdate@@@@XZ" PURGE="0" COMMENT="" />
    <EXPORT ORDINAL="2749" NAME="?Me@?$AutoCleanup@V?$AutoDelete@VEnumSinkEx@@@@PAVEnumSinkEx@@@@AAEAAV?$AutoDelete@VEnumSinkEx@@@@XZ" PURGE="0" COMMENT="" />
    <EXPORT ORDINAL="2750" NAME="?Me@?$AutoCleanup@V?$AutoDelete@VEventHandler@WSMan@@@@PAVEventHandler@WSMan@@@@AAEAAV?$AutoDelete@VEventHandler@WSMan@@@@XZ" PURGE="0" COMMENT="" />
    <EXPORT ORDINAL="2751" NAME="?Me@?$AutoCleanup@V?$AutoDelete@VExpiredOperationIdRecord@@@@PAVExpiredOperationIdRecord@@@@AAEAAV?$AutoDelete@VExpiredOperationIdRecord@@@@XZ" PURGE="0" COMMENT="" />
    <EXPORT ORDINAL="2752" NAME="?Me@?$AutoCleanup@V?$AutoDelete@VGPApiManager@@@@PAVGPApiManager@@@@AAEAAV?$AutoDelete@VGPApiManager@@@@XZ" PURGE="0" COMMENT="" />
    <EXPORT ORDINAL="2753" NAME="?Me@?$AutoCleanup@V?$AutoDelete@VGeneralSinkEx@@@@PAVGeneralSinkEx@@@@AAEAAV?$AutoDelete@VGeneralSinkEx@@@@XZ" PURGE="0" COMMENT="" />
    <EXPORT ORDINAL="2754" NAME="?Me@?$AutoCleanup@V?$AutoDelete@VIChannelObserverFactory@@@@PAVIChannelObserverFactory@@@@AAEAAV?$AutoDelete@VIChannelObserverFactory@@@@XZ" PURGE="0" COMMENT="" />
    <EXPORT ORDINAL="2755" NAME="?Me@?$AutoCleanup@V?$AutoDelete@VIQueryDASHSMASHInterface@@@@PAVIQueryDASHSMASHInterface@@@@AAEAAV?$AutoDelete@VIQueryDASHSMASHInterface@@@@XZ" PURGE="0" COMMENT="" />
    <EXPORT ORDINAL="2756" NAME="?Me@?$AutoCleanup@V?$AutoDelete@VISpecification@@@@PAVISpecification@@@@AAEAAV?$AutoDelete@VISpecification@@@@XZ" PURGE="0" COMMENT="" />
    <EXPORT ORDINAL="2757" NAME="?Me@?$AutoCleanup@V?$AutoDelete@VInteractiveSid@CSecurity@@@@PAVInteractiveSid@CSecurity@@@@AAEAAV?$AutoDelete@VInteractiveSid@CSecurity@@@@XZ" PURGE="0" COMMENT="" />
    <EXPORT ORDINAL="2758" NAME="?Me@?$AutoCleanup@V?$AutoDelete@VIpHlpApiDllLoader@@@@PAVIpHlpApiDllLoader@@@@AAEAAV?$AutoDelete@VIpHlpApiDllLoader@@@@XZ" PURGE="0" COMMENT="" />
    <EXPORT ORDINAL="2759" NAME="?Me@?$AutoCleanup@V?$AutoDelete@VMachineName@@@@PAVMachineName@@@@AAEAAV?$AutoDelete@VMachineName@@@@XZ" PURGE="0" COMMENT="" />
    <EXPORT ORDINAL="2760" NAME="?Me@?$AutoCleanup@V?$AutoDelete@VMasterReceiveData@CListenerReceive@@@@PAVMasterReceiveData@CListenerReceive@@@@AAEAAV?$AutoDelete@VMasterReceiveData@CListenerReceive@@@@XZ" PURGE="0" COMMENT="" />
    <EXPORT ORDINAL="2761" NAME="?Me@?$AutoCleanup@V?$AutoDelete@VNetworkServiceSid@CSecurity@@@@PAVNetworkServiceSid@CSecurity@@@@AAEAAV?$AutoDelete@VNetworkServiceSid@CSecurity@@@@XZ" PURGE="0" COMMENT="" />
    <EXPORT ORDINAL="2762" NAME="?Me@?$AutoCleanup@V?$AutoDelete@VNtDsApiDllLoader@@@@PAVNtDsApiDllLoader@@@@AAEAAV?$AutoDelete@VNtDsApiDllLoader@@@@XZ" PURGE="0" COMMENT="" />
    <EXPORT ORDINAL="2763" NAME="?Me@?$AutoCleanup@V?$AutoDelete@VOptionValue@SessionOptions@Client@WSMan@@@@PAVOptionValue@SessionOptions@Client@WSMan@@@@AAEAAV?$AutoDelete@VOptionValue@SessionOptions@Client@WSMan@@@@XZ" PURGE="0" COMMENT="" />
    <EXPORT ORDINAL="2764" NAME="?Me@?$AutoCleanup@V?$AutoDelete@VPacketCreator@@@@PAVPacketCreator@@@@AAEAAV?$AutoDelete@VPacketCreator@@@@XZ" PURGE="0" COMMENT="" />
    <EXPORT ORDINAL="2765" NAME="?Me@?$AutoCleanup@V?$AutoDelete@VPacketParser@@@@PAVPacketParser@@@@AAEAAV?$AutoDelete@VPacketParser@@@@XZ" PURGE="0" COMMENT="" />
    <EXPORT ORDINAL="2766" NAME="?Me@?$AutoCleanup@V?$AutoDelete@VResources@Locale@@@@PAVResources@Locale@@@@AAEAAV?$AutoDelete@VResources@Locale@@@@XZ" PURGE="0" COMMENT="" />
    <EXPORT ORDINAL="2767" NAME="?Me@?$AutoCleanup@V?$AutoDelete@VRunAsConfiguration@@@@PAVRunAsConfiguration@@@@AAEAAV?$AutoDelete@VRunAsConfiguration@@@@XZ" PURGE="0" COMMENT="" />
    <EXPORT ORDINAL="2768" NAME="?Me@?$AutoCleanup@V?$AutoDelete@VSafeBufferWrite@@@@PAVSafeBufferWrite@@@@AAEAAV?$AutoDelete@VSafeBufferWrite@@@@XZ" PURGE="0" COMMENT="" />
    <EXPORT ORDINAL="2769" NAME="?Me@?$AutoCleanup@V?$AutoDelete@VSecurityEntry@Catalog@@@@PAVSecurityEntry@Catalog@@@@AAEAAV?$AutoDelete@VSecurityEntry@Catalog@@@@XZ" PURGE="0" COMMENT="" />
    <EXPORT ORDINAL="2770" NAME="?Me@?$AutoCleanup@V?$AutoDelete@VSendPacketArgs@RobustConnectionBuffer@@@@PAVSendPacketArgs@RobustConnectionBuffer@@@@AAEAAV?$AutoDelete@VSendPacketArgs@RobustConnectionBuffer@@@@XZ" PURGE="0" COMMENT="" />
    <EXPORT ORDINAL="2771" NAME="?Me@?$AutoCleanup@V?$AutoDelete@VServiceSoapProcessor@@@@PAVServiceSoapProcessor@@@@AAEAAV?$AutoDelete@VServiceSoapProcessor@@@@XZ" PURGE="0" COMMENT="" />
    <EXPORT ORDINAL="2772" NAME="?Me@?$AutoCleanup@V?$AutoDelete@VShell32DllLoader@@@@PAVShell32DllLoader@@@@AAEAAV?$AutoDelete@VShell32DllLoader@@@@XZ" PURGE="0" COMMENT="" />
    <EXPORT ORDINAL="2773" NAME="?Me@?$AutoCleanup@V?$AutoDelete@VShlWApiDllLoader@@@@PAVShlWApiDllLoader@@@@AAEAAV?$AutoDelete@VShlWApiDllLoader@@@@XZ" PURGE="0" COMMENT="" />
    <EXPORT ORDINAL="2774" NAME="?Me@?$AutoCleanup@V?$AutoDelete@VSubscriptionEnumerator@@@@PAVSubscriptionEnumerator@@@@AAEAAV?$AutoDelete@VSubscriptionEnumerator@@@@XZ" PURGE="0" COMMENT="" />
    <EXPORT ORDINAL="2775" NAME="?Me@?$AutoCleanup@V?$AutoDelete@VSubscriptionManager@@@@PAVSubscriptionManager@@@@AAEAAV?$AutoDelete@VSubscriptionManager@@@@XZ" PURGE="0" COMMENT="" />
    <EXPORT ORDINAL="2776" NAME="?Me@?$AutoCleanup@V?$AutoDelete@VTSTRBUFFER@@@@PAVTSTRBUFFER@@@@AAEAAV?$AutoDelete@VTSTRBUFFER@@@@XZ" PURGE="0" COMMENT="" />
    <EXPORT ORDINAL="2777" NAME="?Me@?$AutoCleanup@V?$AutoDelete@VUniqueStringOverflow@@@@PAVUniqueStringOverflow@@@@AAEAAV?$AutoDelete@VUniqueStringOverflow@@@@XZ" PURGE="0" COMMENT="" />
    <EXPORT ORDINAL="2778" NAME="?Me@?$AutoCleanup@V?$AutoDelete@VUser32DllLoader@@@@PAVUser32DllLoader@@@@AAEAAV?$AutoDelete@VUser32DllLoader@@@@XZ" PURGE="0" COMMENT="" />
    <EXPORT ORDINAL="2779" NAME="?Me@?$AutoCleanup@V?$AutoDelete@VWSMANCONFIGTABLE_IDENTITY@@@@PAVWSMANCONFIGTABLE_IDENTITY@@@@AAEAAV?$AutoDelete@VWSMANCONFIGTABLE_IDENTITY@@@@XZ" PURGE="0" COMMENT="" />
    <EXPORT ORDINAL="2780" NAME="?Me@?$AutoCleanup@V?$AutoDelete@VWSManMemCryptManager@@@@PAVWSManMemCryptManager@@@@AAEAAV?$AutoDelete@VWSManMemCryptManager@@@@XZ" PURGE="0" COMMENT="" />
    <EXPORT ORDINAL="2781" NAME="?Me@?$AutoCleanup@V?$AutoDelete@VWmiEnumContext@@@@PAVWmiEnumContext@@@@AAEAAV?$AutoDelete@VWmiEnumContext@@@@XZ" PURGE="0" COMMENT="" />
    <EXPORT ORDINAL="2782" NAME="?Me@?$AutoCleanup@V?$AutoDelete@VXmlReader@@@@PAVXmlReader@@@@AAEAAV?$AutoDelete@VXmlReader@@@@XZ" PURGE="0" COMMENT="" />
    <EXPORT ORDINAL="2783" NAME="?Me@?$AutoCleanup@V?$AutoDeleteVector@$$CBG@@PBG@@AAEAAV?$AutoDeleteVector@$$CBG@@XZ" PURGE="0" COMMENT="" />
    <EXPORT ORDINAL="2784" NAME="?Me@?$AutoCleanup@V?$AutoDeleteVector@D@@PAD@@AAEAAV?$AutoDeleteVector@D@@XZ" PURGE="0" COMMENT="" />
    <EXPORT ORDINAL="2785" NAME="?Me@?$AutoCleanup@V?$AutoDeleteVector@E@@PAE@@AAEAAV?$AutoDeleteVector@E@@XZ" PURGE="0" COMMENT="" />
    <EXPORT ORDINAL="2786" NAME="?Me@?$AutoCleanup@V?$AutoDeleteVector@G@@PAG@@AAEAAV?$AutoDeleteVector@G@@XZ" PURGE="0" COMMENT="" />
    <EXPORT ORDINAL="2787" NAME="?Me@?$AutoCleanup@V?$AutoDeleteVector@H@@PAH@@AAEAAV?$AutoDeleteVector@H@@XZ" PURGE="0" COMMENT="" />
    <EXPORT ORDINAL="2788" NAME="?Me@?$AutoCleanup@V?$AutoDeleteVector@PAG@@PAPAG@@AAEAAV?$AutoDeleteVector@PAG@@XZ" PURGE="0" COMMENT="" />
    <EXPORT ORDINAL="2789" NAME="?Me@?$AutoCleanup@V?$AutoDeleteVector@PBG@@PAPBG@@AAEAAV?$AutoDeleteVector@PBG@@XZ" PURGE="0" COMMENT="" />
    <EXPORT ORDINAL="2790" NAME="?Me@?$AutoCleanup@V?$AutoDeleteVector@U_CONFIG_UPDATE@@@@PAU_CONFIG_UPDATE@@@@AAEAAV?$AutoDeleteVector@U_CONFIG_UPDATE@@@@XZ" PURGE="0" COMMENT="" />
    <EXPORT ORDINAL="2791" NAME="?Me@?$AutoCleanup@V?$AutoDeleteVector@U_WINRS_CREATE_SHELL_ENVIRONMENT_VARIABLE@@@@PAU_WINRS_CREATE_SHELL_ENVIRONMENT_VARIABLE@@@@AAEAAV?$AutoDeleteVector@U_WINRS_CREATE_SHELL_ENVIRONMENT_VARIABLE@@@@XZ" PURGE="0" COMMENT="" />
    <EXPORT ORDINAL="2792" NAME="?Me@?$AutoCleanup@V?$AutoDeleteVector@U_WINRS_RUN_COMMAND_ARG@@@@PAU_WINRS_RUN_COMMAND_ARG@@@@AAEAAV?$AutoDeleteVector@U_WINRS_RUN_COMMAND_ARG@@@@XZ" PURGE="0" COMMENT="" />
    <EXPORT ORDINAL="2793" NAME="?Me@?$AutoCleanup@V?$AutoDeleteVector@U_WSMAN_OPTION@@@@PAU_WSMAN_OPTION@@@@AAEAAV?$AutoDeleteVector@U_WSMAN_OPTION@@@@XZ" PURGE="0" COMMENT="" />
    <EXPORT ORDINAL="2794" NAME="?Me@?$AutoCleanup@V?$AutoDeleteVector@X@@PAX@@AAEAAV?$AutoDeleteVector@X@@XZ" PURGE="0" COMMENT="" />
    <EXPORT ORDINAL="2795" NAME="?Me@?$AutoCleanup@V?$AutoFree@E@@PAE@@AAEAAV?$AutoFree@E@@XZ" PURGE="0" COMMENT="" />
    <EXPORT ORDINAL="2796" NAME="?Me@?$AutoCleanup@V?$AutoLocklessItemRecycle@VPacket@@@@PAVPacket@@@@AAEAAV?$AutoLocklessItemRecycle@VPacket@@@@XZ" PURGE="0" COMMENT="" />
    <EXPORT ORDINAL="2797" NAME="?Me@?$AutoCleanup@V?$AutoRelease@UIAppHostAdminManager@@@@PAUIAppHostAdminManager@@@@AAEAAV?$AutoRelease@UIAppHostAdminManager@@@@XZ" PURGE="0" COMMENT="" />
    <EXPORT ORDINAL="2798" NAME="?Me@?$AutoCleanup@V?$AutoRelease@UIAppHostChildElementCollection@@@@PAUIAppHostChildElementCollection@@@@AAEAAV?$AutoRelease@UIAppHostChildElementCollection@@@@XZ" PURGE="0" COMMENT="" />
    <EXPORT ORDINAL="2799" NAME="?Me@?$AutoCleanup@V?$AutoRelease@UIAppHostConfigException@@@@PAUIAppHostConfigException@@@@AAEAAV?$AutoRelease@UIAppHostConfigException@@@@XZ" PURGE="0" COMMENT="" />
    <EXPORT ORDINAL="2800" NAME="?Me@?$AutoCleanup@V?$AutoRelease@UIAppHostElement@@@@PAUIAppHostElement@@@@AAEAAV?$AutoRelease@UIAppHostElement@@@@XZ" PURGE="0" COMMENT="" />
    <EXPORT ORDINAL="2801" NAME="?Me@?$AutoCleanup@V?$AutoRelease@UIAppHostElementCollection@@@@PAUIAppHostElementCollection@@@@AAEAAV?$AutoRelease@UIAppHostElementCollection@@@@XZ" PURGE="0" COMMENT="" />
    <EXPORT ORDINAL="2802" NAME="?Me@?$AutoCleanup@V?$AutoRelease@UIAppHostProperty@@@@PAUIAppHostProperty@@@@AAEAAV?$AutoRelease@UIAppHostProperty@@@@XZ" PURGE="0" COMMENT="" />
    <EXPORT ORDINAL="2803" NAME="?Me@?$AutoCleanup@V?$AutoRelease@UIAppHostPropertyCollection@@@@PAUIAppHostPropertyCollection@@@@AAEAAV?$AutoRelease@UIAppHostPropertyCollection@@@@XZ" PURGE="0" COMMENT="" />
    <EXPORT ORDINAL="2804" NAME="?Me@?$AutoCleanup@V?$AutoRelease@UIClientSecurity@@@@PAUIClientSecurity@@@@AAEAAV?$AutoRelease@UIClientSecurity@@@@XZ" PURGE="0" COMMENT="" />
    <EXPORT ORDINAL="2805" NAME="?Me@?$AutoCleanup@V?$AutoRelease@UIEnumWbemClassObject@@@@PAUIEnumWbemClassObject@@@@AAEAAV?$AutoRelease@UIEnumWbemClassObject@@@@XZ" PURGE="0" COMMENT="" />
    <EXPORT ORDINAL="2806" NAME="?Me@?$AutoCleanup@V?$AutoRelease@UIErrorInfo@@@@PAUIErrorInfo@@@@AAEAAV?$AutoRelease@UIErrorInfo@@@@XZ" PURGE="0" COMMENT="" />
    <EXPORT ORDINAL="2807" NAME="?Me@?$AutoCleanup@V?$AutoRelease@UIUnknown@@@@PAUIUnknown@@@@AAEAAV?$AutoRelease@UIUnknown@@@@XZ" PURGE="0" COMMENT="" />
    <EXPORT ORDINAL="2808" NAME="?Me@?$AutoCleanup@V?$AutoRelease@UIWbemClassObject@@@@PAUIWbemClassObject@@@@AAEAAV?$AutoRelease@UIWbemClassObject@@@@XZ" PURGE="0" COMMENT="" />
    <EXPORT ORDINAL="2809" NAME="?Me@?$AutoCleanup@V?$AutoRelease@UIWbemContext@@@@PAUIWbemContext@@@@AAEAAV?$AutoRelease@UIWbemContext@@@@XZ" PURGE="0" COMMENT="" />
    <EXPORT ORDINAL="2810" NAME="?Me@?$AutoCleanup@V?$AutoRelease@UIWbemLocator@@@@PAUIWbemLocator@@@@AAEAAV?$AutoRelease@UIWbemLocator@@@@XZ" PURGE="0" COMMENT="" />
    <EXPORT ORDINAL="2811" NAME="?Me@?$AutoCleanup@V?$AutoRelease@UIWbemObjectTextSrc@@@@PAUIWbemObjectTextSrc@@@@AAEAAV?$AutoRelease@UIWbemObjectTextSrc@@@@XZ" PURGE="0" COMMENT="" />
    <EXPORT ORDINAL="2812" NAME="?Me@?$AutoCleanup@V?$AutoRelease@UIWbemPath@@@@PAUIWbemPath@@@@AAEAAV?$AutoRelease@UIWbemPath@@@@XZ" PURGE="0" COMMENT="" />
    <EXPORT ORDINAL="2813" NAME="?Me@?$AutoCleanup@V?$AutoRelease@UIWbemPathKeyList@@@@PAUIWbemPathKeyList@@@@AAEAAV?$AutoRelease@UIWbemPathKeyList@@@@XZ" PURGE="0" COMMENT="" />
    <EXPORT ORDINAL="2814" NAME="?Me@?$AutoCleanup@V?$AutoRelease@UIWbemQualifierSet@@@@PAUIWbemQualifierSet@@@@AAEAAV?$AutoRelease@UIWbemQualifierSet@@@@XZ" PURGE="0" COMMENT="" />
    <EXPORT ORDINAL="2815" NAME="?Me@?$AutoCleanup@V?$AutoRelease@UIWbemQuery@@@@PAUIWbemQuery@@@@AAEAAV?$AutoRelease@UIWbemQuery@@@@XZ" PURGE="0" COMMENT="" />
    <EXPORT ORDINAL="2816" NAME="?Me@?$AutoCleanup@V?$AutoRelease@UIWbemServices@@@@PAUIWbemServices@@@@AAEAAV?$AutoRelease@UIWbemServices@@@@XZ" PURGE="0" COMMENT="" />
    <EXPORT ORDINAL="2817" NAME="?Me@?$AutoCleanup@V?$AutoRelease@VApplication@Client@WSMan@@@@PAVApplication@Client@WSMan@@@@AAEAAV?$AutoRelease@VApplication@Client@WSMan@@@@XZ" PURGE="0" COMMENT="" />
    <EXPORT ORDINAL="2818" NAME="?Me@?$AutoCleanup@V?$AutoRelease@VCBaseConfigCache@@@@PAVCBaseConfigCache@@@@AAEAAV?$AutoRelease@VCBaseConfigCache@@@@XZ" PURGE="0" COMMENT="" />
    <EXPORT ORDINAL="2819" NAME="?Me@?$AutoCleanup@V?$AutoRelease@VCClientConfigCache@@@@PAVCClientConfigCache@@@@AAEAAV?$AutoRelease@VCClientConfigCache@@@@XZ" PURGE="0" COMMENT="" />
    <EXPORT ORDINAL="2820" NAME="?Me@?$AutoCleanup@V?$AutoRelease@VCClientConfigSettings@@@@PAVCClientConfigSettings@@@@AAEAAV?$AutoRelease@VCClientConfigSettings@@@@XZ" PURGE="0" COMMENT="" />
    <EXPORT ORDINAL="2821" NAME="?Me@?$AutoCleanup@V?$AutoRelease@VCCommonConfigSettings@@@@PAVCCommonConfigSettings@@@@AAEAAV?$AutoRelease@VCCommonConfigSettings@@@@XZ" PURGE="0" COMMENT="" />
    <EXPORT ORDINAL="2822" NAME="?Me@?$AutoCleanup@V?$AutoRelease@VCConfigCacheMap@CBaseConfigCache@@@@PAVCConfigCacheMap@CBaseConfigCache@@@@AAEAAV?$AutoRelease@VCConfigCacheMap@CBaseConfigCache@@@@XZ" PURGE="0" COMMENT="" />
    <EXPORT ORDINAL="2823" NAME="?Me@?$AutoCleanup@V?$AutoRelease@VCConfigManager@@@@PAVCConfigManager@@@@AAEAAV?$AutoRelease@VCConfigManager@@@@XZ" PURGE="0" COMMENT="" />
    <EXPORT ORDINAL="2824" NAME="?Me@?$AutoCleanup@V?$AutoRelease@VCListenerCommand@@@@PAVCListenerCommand@@@@AAEAAV?$AutoRelease@VCListenerCommand@@@@XZ" PURGE="0" COMMENT="" />
    <EXPORT ORDINAL="2825" NAME="?Me@?$AutoCleanup@V?$AutoRelease@VCListenerMasterOperation@@@@PAVCListenerMasterOperation@@@@AAEAAV?$AutoRelease@VCListenerMasterOperation@@@@XZ" PURGE="0" COMMENT="" />
    <EXPORT ORDINAL="2826" NAME="?Me@?$AutoCleanup@V?$AutoRelease@VCListenerReceive@@@@PAVCListenerReceive@@@@AAEAAV?$AutoRelease@VCListenerReceive@@@@XZ" PURGE="0" COMMENT="" />
    <EXPORT ORDINAL="2827" NAME="?Me@?$AutoCleanup@V?$AutoRelease@VCListenerShell@@@@PAVCListenerShell@@@@AAEAAV?$AutoRelease@VCListenerShell@@@@XZ" PURGE="0" COMMENT="" />
    <EXPORT ORDINAL="2828" NAME="?Me@?$AutoCleanup@V?$AutoRelease@VCRemoteOperation@@@@PAVCRemoteOperation@@@@AAEAAV?$AutoRelease@VCRemoteOperation@@@@XZ" PURGE="0" COMMENT="" />
    <EXPORT ORDINAL="2829" NAME="?Me@?$AutoCleanup@V?$AutoRelease@VCRemoteSession@@@@PAVCRemoteSession@@@@AAEAAV?$AutoRelease@VCRemoteSession@@@@XZ" PURGE="0" COMMENT="" />
    <EXPORT ORDINAL="2830" NAME="?Me@?$AutoCleanup@V?$AutoRelease@VCRequestContext@@@@PAVCRequestContext@@@@AAEAAV?$AutoRelease@VCRequestContext@@@@XZ" PURGE="0" COMMENT="" />
    <EXPORT ORDINAL="2831" NAME="?Me@?$AutoCleanup@V?$AutoRelease@VCServiceCommonConfigSettings@@@@PAVCServiceCommonConfigSettings@@@@AAEAAV?$AutoRelease@VCServiceCommonConfigSettings@@@@XZ" PURGE="0" COMMENT="" />
    <EXPORT ORDINAL="2832" NAME="?Me@?$AutoCleanup@V?$AutoRelease@VCServiceConfigCache@@@@PAVCServiceConfigCache@@@@AAEAAV?$AutoRelease@VCServiceConfigCache@@@@XZ" PURGE="0" COMMENT="" />
    <EXPORT ORDINAL="2833" NAME="?Me@?$AutoCleanup@V?$AutoRelease@VCServiceConfigSettings@@@@PAVCServiceConfigSettings@@@@AAEAAV?$AutoRelease@VCServiceConfigSettings@@@@XZ" PURGE="0" COMMENT="" />
    <EXPORT ORDINAL="2834" NAME="?Me@?$AutoCleanup@V?$AutoRelease@VCWSManEPR@@@@PAVCWSManEPR@@@@AAEAAV?$AutoRelease@VCWSManEPR@@@@XZ" PURGE="0" COMMENT="" />
    <EXPORT ORDINAL="2835" NAME="?Me@?$AutoCleanup@V?$AutoRelease@VCWSManGroupPolicyCache@@@@PAVCWSManGroupPolicyCache@@@@AAEAAV?$AutoRelease@VCWSManGroupPolicyCache@@@@XZ" PURGE="0" COMMENT="" />
    <EXPORT ORDINAL="2836" NAME="?Me@?$AutoCleanup@V?$AutoRelease@VCWSManGroupPolicyManager@@@@PAVCWSManGroupPolicyManager@@@@AAEAAV?$AutoRelease@VCWSManGroupPolicyManager@@@@XZ" PURGE="0" COMMENT="" />
    <EXPORT ORDINAL="2837" NAME="?Me@?$AutoCleanup@V?$AutoRelease@VCWSManObject@@@@PAVCWSManObject@@@@AAEAAV?$AutoRelease@VCWSManObject@@@@XZ" PURGE="0" COMMENT="" />
    <EXPORT ORDINAL="2838" NAME="?Me@?$AutoCleanup@V?$AutoRelease@VCWSManResource@@@@PAVCWSManResource@@@@AAEAAV?$AutoRelease@VCWSManResource@@@@XZ" PURGE="0" COMMENT="" />
    <EXPORT ORDINAL="2839" NAME="?Me@?$AutoCleanup@V?$AutoRelease@VCWSManSession@@@@PAVCWSManSession@@@@AAEAAV?$AutoRelease@VCWSManSession@@@@XZ" PURGE="0" COMMENT="" />
    <EXPORT ORDINAL="2840" NAME="?Me@?$AutoCleanup@V?$AutoRelease@VCWinRSPluginConfigCache@@@@PAVCWinRSPluginConfigCache@@@@AAEAAV?$AutoRelease@VCWinRSPluginConfigCache@@@@XZ" PURGE="0" COMMENT="" />
    <EXPORT ORDINAL="2841" NAME="?Me@?$AutoCleanup@V?$AutoRelease@VCWinRSPluginConfigSettings@@@@PAVCWinRSPluginConfigSettings@@@@AAEAAV?$AutoRelease@VCWinRSPluginConfigSettings@@@@XZ" PURGE="0" COMMENT="" />
    <EXPORT ORDINAL="2842" NAME="?Me@?$AutoCleanup@V?$AutoRelease@VCommand@Client@WSMan@@@@PAVCommand@Client@WSMan@@@@AAEAAV?$AutoRelease@VCommand@Client@WSMan@@@@XZ" PURGE="0" COMMENT="" />
    <EXPORT ORDINAL="2843" NAME="?Me@?$AutoCleanup@V?$AutoRelease@VConfigNotification@@@@PAVConfigNotification@@@@AAEAAV?$AutoRelease@VConfigNotification@@@@XZ" PURGE="0" COMMENT="" />
    <EXPORT ORDINAL="2844" NAME="?Me@?$AutoCleanup@V?$AutoRelease@VConnectShellOperation@Client@WSMan@@@@PAVConnectShellOperation@Client@WSMan@@@@AAEAAV?$AutoRelease@VConnectShellOperation@Client@WSMan@@@@XZ" PURGE="0" COMMENT="" />
    <EXPORT ORDINAL="2845" NAME="?Me@?$AutoCleanup@V?$AutoRelease@VCreateShellOperation@Client@WSMan@@@@PAVCreateShellOperation@Client@WSMan@@@@AAEAAV?$AutoRelease@VCreateShellOperation@Client@WSMan@@@@XZ" PURGE="0" COMMENT="" />
    <EXPORT ORDINAL="2846" NAME="?Me@?$AutoCleanup@V?$AutoRelease@VDeleteShellOperation@Client@WSMan@@@@PAVDeleteShellOperation@Client@WSMan@@@@AAEAAV?$AutoRelease@VDeleteShellOperation@Client@WSMan@@@@XZ" PURGE="0" COMMENT="" />
    <EXPORT ORDINAL="2847" NAME="?Me@?$AutoCleanup@V?$AutoRelease@VDisconnectOperation@Client@WSMan@@@@PAVDisconnectOperation@Client@WSMan@@@@AAEAAV?$AutoRelease@VDisconnectOperation@Client@WSMan@@@@XZ" PURGE="0" COMMENT="" />
    <EXPORT ORDINAL="2848" NAME="?Me@?$AutoCleanup@V?$AutoRelease@VEnumSinkEx@@@@PAVEnumSinkEx@@@@AAEAAV?$AutoRelease@VEnumSinkEx@@@@XZ" PURGE="0" COMMENT="" />
    <EXPORT ORDINAL="2849" NAME="?Me@?$AutoCleanup@V?$AutoRelease@VGeneralSinkEx@@@@PAVGeneralSinkEx@@@@AAEAAV?$AutoRelease@VGeneralSinkEx@@@@XZ" PURGE="0" COMMENT="" />
    <EXPORT ORDINAL="2850" NAME="?Me@?$AutoCleanup@V?$AutoRelease@VHostMappingTable@@@@PAVHostMappingTable@@@@AAEAAV?$AutoRelease@VHostMappingTable@@@@XZ" PURGE="0" COMMENT="" />
    <EXPORT ORDINAL="2851" NAME="?Me@?$AutoCleanup@V?$AutoRelease@VIISConfigSettings@@@@PAVIISConfigSettings@@@@AAEAAV?$AutoRelease@VIISConfigSettings@@@@XZ" PURGE="0" COMMENT="" />
    <EXPORT ORDINAL="2852" NAME="?Me@?$AutoCleanup@V?$AutoRelease@VIPCSoapProcessor@@@@PAVIPCSoapProcessor@@@@AAEAAV?$AutoRelease@VIPCSoapProcessor@@@@XZ" PURGE="0" COMMENT="" />
    <EXPORT ORDINAL="2853" NAME="?Me@?$AutoCleanup@V?$AutoRelease@VIRequestContext@@@@PAVIRequestContext@@@@AAEAAV?$AutoRelease@VIRequestContext@@@@XZ" PURGE="0" COMMENT="" />
    <EXPORT ORDINAL="2854" NAME="?Me@?$AutoCleanup@V?$AutoRelease@VISubscription@@@@PAVISubscription@@@@AAEAAV?$AutoRelease@VISubscription@@@@XZ" PURGE="0" COMMENT="" />
    <EXPORT ORDINAL="2855" NAME="?Me@?$AutoCleanup@V?$AutoRelease@VInboundRequestDetails@@@@PAVInboundRequestDetails@@@@AAEAAV?$AutoRelease@VInboundRequestDetails@@@@XZ" PURGE="0" COMMENT="" />
    <EXPORT ORDINAL="2856" NAME="?Me@?$AutoCleanup@V?$AutoRelease@VProxyManager@Client@WSMan@@@@PAVProxyManager@Client@WSMan@@@@AAEAAV?$AutoRelease@VProxyManager@Client@WSMan@@@@XZ" PURGE="0" COMMENT="" />
    <EXPORT ORDINAL="2857" NAME="?Me@?$AutoCleanup@V?$AutoRelease@VProxySelection@Client@WSMan@@@@PAVProxySelection@Client@WSMan@@@@AAEAAV?$AutoRelease@VProxySelection@Client@WSMan@@@@XZ" PURGE="0" COMMENT="" />
    <EXPORT ORDINAL="2858" NAME="?Me@?$AutoCleanup@V?$AutoRelease@VPushSubscribeOperation@@@@PAVPushSubscribeOperation@@@@AAEAAV?$AutoRelease@VPushSubscribeOperation@@@@XZ" PURGE="0" COMMENT="" />
    <EXPORT ORDINAL="2859" NAME="?Me@?$AutoCleanup@V?$AutoRelease@VPushSubscription@@@@PAVPushSubscription@@@@AAEAAV?$AutoRelease@VPushSubscription@@@@XZ" PURGE="0" COMMENT="" />
    <EXPORT ORDINAL="2860" NAME="?Me@?$AutoCleanup@V?$AutoRelease@VReceiveOperation@Client@WSMan@@@@PAVReceiveOperation@Client@WSMan@@@@AAEAAV?$AutoRelease@VReceiveOperation@Client@WSMan@@@@XZ" PURGE="0" COMMENT="" />
    <EXPORT ORDINAL="2861" NAME="?Me@?$AutoCleanup@V?$AutoRelease@VReconnectOperation@Client@WSMan@@@@PAVReconnectOperation@Client@WSMan@@@@AAEAAV?$AutoRelease@VReconnectOperation@Client@WSMan@@@@XZ" PURGE="0" COMMENT="" />
    <EXPORT ORDINAL="2862" NAME="?Me@?$AutoCleanup@V?$AutoRelease@VSendOperation@Client@WSMan@@@@PAVSendOperation@Client@WSMan@@@@AAEAAV?$AutoRelease@VSendOperation@Client@WSMan@@@@XZ" PURGE="0" COMMENT="" />
    <EXPORT ORDINAL="2863" NAME="?Me@?$AutoCleanup@V?$AutoRelease@VShell@Client@WSMan@@@@PAVShell@Client@WSMan@@@@AAEAAV?$AutoRelease@VShell@Client@WSMan@@@@XZ" PURGE="0" COMMENT="" />
    <EXPORT ORDINAL="2864" NAME="?Me@?$AutoCleanup@V?$AutoRelease@VShellInfo@@@@PAVShellInfo@@@@AAEAAV?$AutoRelease@VShellInfo@@@@XZ" PURGE="0" COMMENT="" />
    <EXPORT ORDINAL="2865" NAME="?Me@?$AutoCleanup@V?$AutoRelease@VSignalOperation@Client@WSMan@@@@PAVSignalOperation@Client@WSMan@@@@AAEAAV?$AutoRelease@VSignalOperation@Client@WSMan@@@@XZ" PURGE="0" COMMENT="" />
    <EXPORT ORDINAL="2866" NAME="?Me@?$AutoCleanup@V?$AutoRelease@VUserRecord@@@@PAVUserRecord@@@@AAEAAV?$AutoRelease@VUserRecord@@@@XZ" PURGE="0" COMMENT="" />
    <EXPORT ORDINAL="2867" NAME="?Me@?$AutoCleanup@V?$AutoRelease@VWSManHttpListener@@@@PAVWSManHttpListener@@@@AAEAAV?$AutoRelease@VWSManHttpListener@@@@XZ" PURGE="0" COMMENT="" />
    <EXPORT ORDINAL="2868" NAME="?Me@?$AutoCleanup@V?$AutoReleaseEx@VHostMappingTableEntry@@@@PAVHostMappingTableEntry@@@@AAEAAV?$AutoReleaseEx@VHostMappingTableEntry@@@@XZ" PURGE="0" COMMENT="" />
    <EXPORT ORDINAL="2869" NAME="?Me@?$AutoCleanup@V?$AutoReleaseEx@VShell@Client@WSMan@@@@PAVShell@Client@WSMan@@@@AAEAAV?$AutoReleaseEx@VShell@Client@WSMan@@@@XZ" PURGE="0" COMMENT="" />
    <EXPORT ORDINAL="2870" NAME="?Me@?$AutoCleanup@VAutoBstr@@PAG@@AAEAAVAutoBstr@@XZ" PURGE="0" COMMENT="" />
    <EXPORT ORDINAL="2871" NAME="?Me@?$AutoCleanup@VAutoBstrNoAlloc@@PAG@@AAEAAVAutoBstrNoAlloc@@XZ" PURGE="0" COMMENT="" />
    <EXPORT ORDINAL="2872" NAME="?Me@?$AutoCleanup@VAutoCertContext@@PBU_CERT_CONTEXT@@@@AAEAAVAutoCertContext@@XZ" PURGE="0" COMMENT="" />
    <EXPORT ORDINAL="2873" NAME="?Me@?$AutoCleanup@VAutoChainContext@@PBU_CERT_CHAIN_CONTEXT@@@@AAEAAVAutoChainContext@@XZ" PURGE="0" COMMENT="" />
    <EXPORT ORDINAL="2874" NAME="?Me@?$AutoCleanup@VAutoCoTaskMemFree@@PAX@@AAEAAVAutoCoTaskMemFree@@XZ" PURGE="0" COMMENT="" />
    <EXPORT ORDINAL="2875" NAME="?Me@?$AutoCleanup@VAutoFwXmlCloseParser@@PAX@@AAEAAVAutoFwXmlCloseParser@@XZ" PURGE="0" COMMENT="" />
    <EXPORT ORDINAL="2876" NAME="?Me@?$AutoCleanup@VAutoHandle@@PAX@@AAEAAVAutoHandle@@XZ" PURGE="0" COMMENT="" />
    <EXPORT ORDINAL="2877" NAME="?Me@?$AutoCleanup@VAutoImpersonateUser@@PAX@@AAEAAVAutoImpersonateUser@@XZ" PURGE="0" COMMENT="" />
    <EXPORT ORDINAL="2878" NAME="?Me@?$AutoCleanup@VAutoLibrary@@PAUHINSTANCE__@@@@AAEAAVAutoLibrary@@XZ" PURGE="0" COMMENT="" />
    <EXPORT ORDINAL="2879" NAME="?Me@?$AutoCleanup@VAutoLocalFree@@PAX@@AAEAAVAutoLocalFree@@XZ" PURGE="0" COMMENT="" />
    <EXPORT ORDINAL="2880" NAME="?Me@?$AutoCleanup@VAutoMIClass@@PAU_MI_Class@@@@AAEAAVAutoMIClass@@XZ" PURGE="0" COMMENT="" />
    <EXPORT ORDINAL="2881" NAME="?Me@?$AutoCleanup@VAutoMIInstance@@PAU_MI_Instance@@@@AAEAAVAutoMIInstance@@XZ" PURGE="0" COMMENT="" />
    <EXPORT ORDINAL="2882" NAME="?Me@?$AutoCleanup@VAutoObject@@PAUWSMAN_OBJECT@@@@AAEAAVAutoObject@@XZ" PURGE="0" COMMENT="" />
    <EXPORT ORDINAL="2883" NAME="?Me@?$AutoCleanup@VAutoRegKey@@PAUHKEY__@@@@AAEAAVAutoRegKey@@XZ" PURGE="0" COMMENT="" />
    <EXPORT ORDINAL="2884" NAME="?Me@?$AutoCleanup@VAutoSecurityDescriptor@@PAX@@AAEAAVAutoSecurityDescriptor@@XZ" PURGE="0" COMMENT="" />
    <EXPORT ORDINAL="2885" NAME="?Me@?$AutoCleanup@VAutoWaitHandle@@PAX@@AAEAAVAutoWaitHandle@@XZ" PURGE="0" COMMENT="" />
    <EXPORT ORDINAL="2886" NAME="MoveSettingsToMigrationKey" PURGE="8" COMMENT="" />
    <EXPORT ORDINAL="2887" NAME="?NUM_BOMS@PacketFormatter@@0HB" PURGE="17146" COMMENT="" />
    <EXPORT ORDINAL="2888" NAME="?NUM_CHARSETS@PacketFormatter@@0HB" PURGE="17146" COMMENT="" />
    <EXPORT ORDINAL="2889" NAME="?Next@TSTRBUFFER@@QBEPBGPBG@Z" PURGE="4" COMMENT="" />
    <EXPORT ORDINAL="2890" NAME="?NextCertMapping@CConfigManager@@QAEHXZ" PURGE="0" COMMENT="" />
    <EXPORT ORDINAL="2891" NAME="?NextListener@CConfigManager@@QAEHXZ" PURGE="0" COMMENT="" />
    <EXPORT ORDINAL="2892" NAME="?NextRow@CConfigManager@@QAEHXZ" PURGE="0" COMMENT="" />
    <EXPORT ORDINAL="2893" NAME="?NextShellUri@CConfigManager@@QAEHXZ" PURGE="0" COMMENT="" />
    <EXPORT ORDINAL="2894" NAME="?NoSemantics@ExtendedSemantic@@2KB" PURGE="-1" COMMENT="" />
    <EXPORT ORDINAL="2895" NAME="?NotifyObservers@CWSManGroupPolicyManager@@UAEHPAVIRequestContext@@PAVIWSManGroupPolicyCacheDataProvider@@@Z" PURGE="8" COMMENT="" />
    <EXPORT ORDINAL="2896" NAME="?OnChange@CBaseConfigCache@@UAEXW4ConfigChangeSources@@KW4ConfigChangeSeverityType@@@Z" PURGE="12" COMMENT="" />
    <EXPORT ORDINAL="2897" NAME="?OpenRegKey@ConfigRegistry@@IAEJPAU_CONFIG_INFO@@KPAVWSMANCONFIGTABLE_IDENTITY@@PAVAutoRegKey@@PAUHKEY__@@@Z" PURGE="20" COMMENT="" />
    <EXPORT ORDINAL="2898" NAME="?OverrideMaxEnvelopeSize@PacketParser@@QAEXK@Z" PURGE="4" COMMENT="" />
    <EXPORT ORDINAL="2899" NAME="?OverrideTimeout@PacketParser@@QAEXK@Z" PURGE="4" COMMENT="" />
    <EXPORT ORDINAL="2900" NAME="?Parse@CWSManResource@@SGPAV1@PAVIRequestContext@@PBG11PAU_WSMAN_SELECTOR_SET@@PAU_WSMAN_OPTION_SET@@H@Z" PURGE="28" COMMENT="" />
    <EXPORT ORDINAL="2901" NAME="?Parse@CWSManResource@@SGPAV1@PAVIRequestContext@@PBGH@Z" PURGE="12" COMMENT="" />
    <EXPORT ORDINAL="2902" NAME="?Parse@XmlReader@@AAEHPAVIRequestContext@@@Z" PURGE="4" COMMENT="" />
    <EXPORT ORDINAL="2903" NAME="?ParseAction@PacketParser@@AAEHPAVIRequestContext@@PAU_FWXML_ELEMENT@@_N@Z" PURGE="12" COMMENT="" />
    <EXPORT ORDINAL="2904" NAME="?ParseActivityId@PacketParser@@AAEHPAVIRequestContext@@PAU_FWXML_ELEMENT@@H@Z" PURGE="12" COMMENT="" />
    <EXPORT ORDINAL="2905" NAME="?ParseBookmark@PacketParser@@AAEHPAVIRequestContext@@PAU_FWXML_ELEMENT@@H@Z" PURGE="12" COMMENT="" />
    <EXPORT ORDINAL="2906" NAME="?ParseDataLocale@PacketParser@@AAEHPAVIRequestContext@@PAU_FWXML_ELEMENT@@H@Z" PURGE="12" COMMENT="" />
    <EXPORT ORDINAL="2907" NAME="?ParseEprElement@CWSManEPR@@SGPAV1@PAVIRequestContext@@PAU_FWXML_ELEMENT@@@Z" PURGE="8" COMMENT="" />
    <EXPORT ORDINAL="2908" NAME="?ParseEvent@SoapSemanticConverter@@QAEPAVSemanticMessage@@PAU_FWXML_ELEMENT@@PAKPAVIRequestContext@@@Z" PURGE="12" COMMENT="" />
    <EXPORT ORDINAL="2909" NAME="?ParseFaultTo@PacketParser@@AAEHPAVIRequestContext@@PAU_FWXML_ELEMENT@@H@Z" PURGE="12" COMMENT="" />
    <EXPORT ORDINAL="2910" NAME="?ParseFragment@PacketParser@@AAEHPAVIRequestContext@@PAU_FWXML_ELEMENT@@H@Z" PURGE="12" COMMENT="" />
    <EXPORT ORDINAL="2911" NAME="?ParseHeader@PacketParser@@AAEHPAVCRequestContext@@PAU_FWXML_ELEMENT@@HPAVCServiceCommonConfigSettings@@@Z" PURGE="16" COMMENT="" />
    <EXPORT ORDINAL="2912" NAME="?ParseHeaders@CWSManResourceNoResourceUri@@QAEHPAVIRequestContext@@PAU_FWXML_ELEMENT@@11@Z" PURGE="16" COMMENT="" />
    <EXPORT ORDINAL="2913" NAME="?ParseHeaders@PacketParser@@AAEHPAVCRequestContext@@PAVCServiceCommonConfigSettings@@@Z" PURGE="8" COMMENT="" />
    <EXPORT ORDINAL="2914" NAME="?ParseLocale@PacketParser@@AAEHPAVIRequestContext@@PAU_FWXML_ELEMENT@@H@Z" PURGE="12" COMMENT="" />
    <EXPORT ORDINAL="2915" NAME="?ParseMachineID@PacketParser@@AAEHPAVIRequestContext@@PAU_FWXML_ELEMENT@@@Z" PURGE="8" COMMENT="" />
    <EXPORT ORDINAL="2916" NAME="?ParseMaxEnvelopeSize@PacketParser@@AAEHPAVIRequestContext@@PAU_FWXML_ELEMENT@@HPAVCServiceCommonConfigSettings@@@Z" PURGE="16" COMMENT="" />
    <EXPORT ORDINAL="2917" NAME="?ParseMessageId@PacketParser@@AAEHPAVIRequestContext@@PAU_FWXML_ELEMENT@@_N@Z" PURGE="12" COMMENT="" />
    <EXPORT ORDINAL="2918" NAME="?ParseOperationId@PacketParser@@AAEHPAVIRequestContext@@PAU_FWXML_ELEMENT@@H@Z" PURGE="12" COMMENT="" />
    <EXPORT ORDINAL="2919" NAME="?ParseOptionSet@CWSManResourceNoResourceUri@@QAEHPAVIRequestContext@@PAU_FWXML_ELEMENT@@@Z" PURGE="8" COMMENT="" />
    <EXPORT ORDINAL="2920" NAME="?ParseOptions@PacketParser@@AAEHPAVIRequestContext@@PAU_FWXML_ELEMENT@@H@Z" PURGE="12" COMMENT="" />
    <EXPORT ORDINAL="2921" NAME="?ParsePacket@PacketParser@@QAEHPAVCRequestContext@@PAVPacket@@PAVCServiceCommonConfigSettings@@@Z" PURGE="12" COMMENT="" />
    <EXPORT ORDINAL="2922" NAME="?ParsePacketInternal@PacketParser@@AAEHPAVCRequestContext@@PAU_FWXML_ELEMENT@@PAVCServiceCommonConfigSettings@@@Z" PURGE="12" COMMENT="" />
    <EXPORT ORDINAL="2923" NAME="?ParseReplyTo@PacketParser@@AAEHPAVIRequestContext@@PAU_FWXML_ELEMENT@@@Z" PURGE="8" COMMENT="" />
    <EXPORT ORDINAL="2924" NAME="?ParseResourceLocator@CWSManResource@@SGPAV1@PAVIRequestContext@@PAU_WSMAN_RESOURCE_LOCATOR@@@Z" PURGE="8" COMMENT="" />
    <EXPORT ORDINAL="2925" NAME="?ParseResourceUri@PacketParser@@AAEHPAVIRequestContext@@PAU_FWXML_ELEMENT@@H@Z" PURGE="12" COMMENT="" />
    <EXPORT ORDINAL="2926" NAME="?ParseResponse@SoapSemanticConverter@@QAE_NPAU_FWXML_ELEMENT@@PAKPA_NPAVIRequestContext@@@Z" PURGE="16" COMMENT="" />
    <EXPORT ORDINAL="2927" NAME="?ParseRobustConnectionAckSequenceId@PacketParser@@AAEKPA_K@Z" PURGE="4" COMMENT="" />
    <EXPORT ORDINAL="2928" NAME="?ParseRobustConnectionMessages@PacketParser@@QAEKPAW4PacketType@1@PA_NPA_K2@Z" PURGE="16" COMMENT="" />
    <EXPORT ORDINAL="2929" NAME="?ParseSelectors@PacketParser@@AAEHPAVIRequestContext@@PAU_FWXML_ELEMENT@@H@Z" PURGE="12" COMMENT="" />
    <EXPORT ORDINAL="2930" NAME="?ParseSequenceId@PacketParser@@AAEHPAVIRequestContext@@PAU_FWXML_ELEMENT@@@Z" PURGE="8" COMMENT="" />
    <EXPORT ORDINAL="2931" NAME="?ParseSessionId@PacketParser@@AAEHPAVIRequestContext@@PAU_FWXML_ELEMENT@@H@Z" PURGE="12" COMMENT="" />
    <EXPORT ORDINAL="2932" NAME="?ParseShellCompression@PacketParser@@AAEHPAVIRequestContext@@PAU_FWXML_ELEMENT@@H@Z" PURGE="12" COMMENT="" />
    <EXPORT ORDINAL="2933" NAME="?ParseStream@PacketParser@@QAEXPAVCRequestContext@@PAVITransportReceiver@@PAVPacket@@PAVCServiceCommonConfigSettings@@@Z" PURGE="16" COMMENT="" />
    <EXPORT ORDINAL="2934" NAME="?ParseSubscriptionAgentPacket@PacketParser@@QAEHPAVCRequestContext@@PAVPacket@@PAVCServiceConfigSettings@@@Z" PURGE="12" COMMENT="" />
    <EXPORT ORDINAL="2935" NAME="?ParseSubscriptionID@PacketParser@@AAEHPAVIRequestContext@@PAU_FWXML_ELEMENT@@H@Z" PURGE="12" COMMENT="" />
    <EXPORT ORDINAL="2936" NAME="?ParseTimeout@PacketParser@@AAEHPAVIRequestContext@@PAU_FWXML_ELEMENT@@HPAVCServiceCommonConfigSettings@@@Z" PURGE="16" COMMENT="" />
    <EXPORT ORDINAL="2937" NAME="?ParseToAddress@PacketParser@@AAEHPAVCRequestContext@@PAU_FWXML_ELEMENT@@@Z" PURGE="8" COMMENT="" />
    <EXPORT ORDINAL="2938" NAME="?Passed@CErrorContext@@UBEHXZ" PURGE="0" COMMENT="" />
    <EXPORT ORDINAL="2939" NAME="?PolicyChanged@CWSManGroupPolicyManager@@AAEXE@Z" PURGE="4" COMMENT="" />
    <EXPORT ORDINAL="2940" NAME="?PostChange@CBaseConfigCache@@MAEHPAVIRequestContext@@PAVCCommonConfigSettings@@1@Z" PURGE="12" COMMENT="" />
    <EXPORT ORDINAL="2941" NAME="?PostChange@CServiceConfigCache@@EAEHPAVIRequestContext@@PAVCCommonConfigSettings@@1@Z" PURGE="12" COMMENT="" />
    <EXPORT ORDINAL="2942" NAME="?PostError@CBaseConfigCache@@MAEXK@Z" PURGE="4" COMMENT="" />
    <EXPORT ORDINAL="2943" NAME="?PostError@CServiceConfigCache@@EAEXK@Z" PURGE="4" COMMENT="" />
    <EXPORT ORDINAL="2944" NAME="?PrepareToCommitWithSize@BufferFormatter@@UAEKK@Z" PURGE="4" COMMENT="" />
    <EXPORT ORDINAL="2945" NAME="?PrepareToCommitWithSize@CircularBufferFormatter@@UAEKK@Z" PURGE="4" COMMENT="" />
    <EXPORT ORDINAL="2946" NAME="PrintHandleTrace" PURGE="4" COMMENT="" />
    <EXPORT ORDINAL="2947" NAME="PrintReleaseTrace" PURGE="8" COMMENT="" />
    <EXPORT ORDINAL="2948" NAME="PrintUnregisterWaitTrace" PURGE="4" COMMENT="" />
    <EXPORT ORDINAL="2949" NAME="?ProcessContext@CErrorContext@@UAEHHPAKPAU_WSMAN_FAULT_OBJECT@@@Z" PURGE="12" COMMENT="" />
    <EXPORT ORDINAL="2950" NAME="?ProcessContext@CErrorContext@@UAEHHPAU_WSMAN_ERROR@@@Z" PURGE="8" COMMENT="" />
    <EXPORT ORDINAL="2951" NAME="?ProcessContext@CRequestContext@@QAEHHPAU_WSMAN_ENUMERATOR_RESULT@@@Z" PURGE="8" COMMENT="" />
    <EXPORT ORDINAL="2952" NAME="?ProcessContext@CRequestContext@@QAEHHPAU_WSMAN_EVENTS_RESULT@@@Z" PURGE="8" COMMENT="" />
    <EXPORT ORDINAL="2953" NAME="?ProcessContext@CRequestContext@@QAEHHPAU_WSMAN_RESULT@@@Z" PURGE="8" COMMENT="" />
    <EXPORT ORDINAL="2954" NAME="?ProcessContext@CRequestContext@@QAEHHPAU_WSMAN_STATUS@@@Z" PURGE="8" COMMENT="" />
    <EXPORT ORDINAL="2955" NAME="?ProcessContext@CRequestContext@@UAEHHPAKPAU_WSMAN_FAULT_OBJECT@@@Z" PURGE="12" COMMENT="" />
    <EXPORT ORDINAL="2956" NAME="?ProcessContext@CRequestContext@@UAEHHPAU_WSMAN_ERROR@@@Z" PURGE="8" COMMENT="" />
    <EXPORT ORDINAL="2957" NAME="?ProcessEPR@CWSManEPR@@AAEHPAVIRequestContext@@PAU_FWXML_ELEMENT@@@Z" PURGE="8" COMMENT="" />
    <EXPORT ORDINAL="2958" NAME="?ProcessFragmentDialect@CWSManResourceNoResourceUri@@IAEHPAVIRequestContext@@PBGK@Z" PURGE="12" COMMENT="" />
    <EXPORT ORDINAL="2959" NAME="?ProcessFragmentPath@CWSManResourceNoResourceUri@@IAEHPAVIRequestContext@@PBGK@Z" PURGE="12" COMMENT="" />
    <EXPORT ORDINAL="2960" NAME="?ProcessKey@CWSManResourceNoResourceUri@@IAEHPAVIRequestContext@@PBG1@Z" PURGE="12" COMMENT="" />
    <EXPORT ORDINAL="2961" NAME="?ProcessNestedEPR@CWSManResourceNoResourceUri@@IAEHPAVIRequestContext@@PBGPAU_FWXML_ELEMENT@@@Z" PURGE="12" COMMENT="" />
    <EXPORT ORDINAL="2962" NAME="?ProcessOption@CWSManResourceNoResourceUri@@IAEHPAVIRequestContext@@PBG11H@Z" PURGE="20" COMMENT="" />
    <EXPORT ORDINAL="2963" NAME="?ProcessRefParameters@CWSManEPR@@AAEHPAVIRequestContext@@PAU_FWXML_ELEMENT@@@Z" PURGE="8" COMMENT="" />
    <EXPORT ORDINAL="2964" NAME="?ProcessRefProperties@CWSManEPR@@AAEHPAVIRequestContext@@PAU_FWXML_ELEMENT@@@Z" PURGE="8" COMMENT="" />
    <EXPORT ORDINAL="2965" NAME="?ProcessUri@CWSManResource@@QAEHPAVIRequestContext@@PBGK@Z" PURGE="12" COMMENT="" />
    <EXPORT ORDINAL="2966" NAME="?Progress@ExtendedSemantic@@2KB" PURGE="56324" COMMENT="" />
    <EXPORT ORDINAL="2967" NAME="?PropertySheetPageCallback@CWSManSecurityUI@@UAGJPAUHWND__@@IW4_SI_PAGE_TYPE@@@Z" PURGE="16" COMMENT="" />
    <EXPORT ORDINAL="2968" NAME="?ProviderFailure@CErrorContext@@UBEHXZ" PURGE="0" COMMENT="" />
    <EXPORT ORDINAL="2969" NAME="?ProviderShutdownCleanup@CWinRSPluginConfigCache@@SGXXZ" PURGE="0" COMMENT="" />
    <EXPORT ORDINAL="2970" NAME="?PutOverrideValue@?$PacketElement@K@PacketParser@@QAEXK@Z" PURGE="4" COMMENT="" />
    <EXPORT ORDINAL="2971" NAME="?PutOverrideValue@?$PacketElement@PBG@PacketParser@@QAEXPBG@Z" PURGE="4" COMMENT="" />
    <EXPORT ORDINAL="2972" NAME="?PutValue@?$PacketElement@K@PacketParser@@QAEXKH@Z" PURGE="8" COMMENT="" />
    <EXPORT ORDINAL="2973" NAME="?PutValue@?$PacketElement@PAU_FWXML_ELEMENT@@@PacketParser@@QAEXPAU_FWXML_ELEMENT@@H@Z" PURGE="8" COMMENT="" />
    <EXPORT ORDINAL="2974" NAME="?PutValue@?$PacketElement@PBG@PacketParser@@QAEXPBGH@Z" PURGE="8" COMMENT="" />
    <EXPORT ORDINAL="2975" NAME="?PutValue@?$PacketElement@_K@PacketParser@@QAEX_KH@Z" PURGE="12" COMMENT="" />
    <EXPORT ORDINAL="2976" NAME="?PutValue@Fragment@PacketParser@@QAEXPBG0H@Z" PURGE="12" COMMENT="" />
    <EXPORT ORDINAL="2977" NAME="?PutValue@NotUnderstandSoapHeader@PacketParser@@QAEXPBG00@Z" PURGE="12" COMMENT="" />
    <EXPORT ORDINAL="2978" NAME="?PutValue@ReferenceParameters@PacketParser@@QAEKPAU_FWXML_ELEMENT@@H@Z" PURGE="8" COMMENT="" />
    <EXPORT ORDINAL="2979" NAME="?QueryInterface@CWSManSecurityUI@@UAGJABU_GUID@@PAPAX@Z" PURGE="12" COMMENT="" />
    <EXPORT ORDINAL="2980" NAME="?QueryPtr@RBUFFER@@QBEPAXXZ" PURGE="0" COMMENT="" />
    <EXPORT ORDINAL="2981" NAME="?QueryRegValue@CConfigManager@@AAEJPAU_CONFIG_INFO@@PAKKPAE1@Z" PURGE="20" COMMENT="" />
    <EXPORT ORDINAL="2982" NAME="?QueryRegValue@CWSManGroupPolicyManager@@AAEJPAVIRequestContext@@PBU_WSMAN_POLICY_INFO@@PAKKPAE2@Z" PURGE="24" COMMENT="" />
    <EXPORT ORDINAL="2983" NAME="?QuerySize@RBUFFER@@QBEIXZ" PURGE="0" COMMENT="" />
    <EXPORT ORDINAL="2984" NAME="?QueryStr@TSTRBUFFER@@QBEPBGXZ" PURGE="0" COMMENT="" />
    <EXPORT ORDINAL="2985" NAME="?QuotaComplete@UserRecord@@UAEXPAU_WSMAN_AUTHZ_QUOTA@@KPBG@Z" PURGE="12" COMMENT="" />
    <EXPORT ORDINAL="2986" NAME="?ReAlloc@WSManMemory@@SGPAXPAXIHW4_NitsFaultMode@@@Z" PURGE="16" COMMENT="" />
    <EXPORT ORDINAL="2987" NAME="?ReadCertMappingRegistryKey@CConfigManager@@SGHPAVIRequestContext@@PAVCERTMAPPING_IDENTITY@@PAG@Z" PURGE="12" COMMENT="" />
    <EXPORT ORDINAL="2988" NAME="?ReadCredentialsFromCredmanStore@CConfigManager@@SGHPAVIRequestContext@@PAG1@Z" PURGE="12" COMMENT="" />
    <EXPORT ORDINAL="2989" NAME="?ReadCurrentSettings@CClientConfigCache@@EAEPAVCCommonConfigSettings@@PAVIRequestContext@@W4ErrorLogging@@@Z" PURGE="8" COMMENT="" />
    <EXPORT ORDINAL="2990" NAME="?ReadCurrentSettings@CServiceConfigCache@@EAEPAVCCommonConfigSettings@@PAVIRequestContext@@W4ErrorLogging@@@Z" PURGE="8" COMMENT="" />
    <EXPORT ORDINAL="2991" NAME="?ReadCurrentSettings@CWinRSPluginConfigCache@@EAEPAVCCommonConfigSettings@@PAVIRequestContext@@W4ErrorLogging@@@Z" PURGE="8" COMMENT="" />
    <EXPORT ORDINAL="2992" NAME="?ReadDefaultSettings@CClientConfigCache@@EAEPAVCCommonConfigSettings@@PAVIRequestContext@@@Z" PURGE="4" COMMENT="" />
    <EXPORT ORDINAL="2993" NAME="?ReadDefaultSettings@CServiceConfigCache@@EAEPAVCCommonConfigSettings@@PAVIRequestContext@@@Z" PURGE="4" COMMENT="" />
    <EXPORT ORDINAL="2994" NAME="?ReadDefaultSettings@CWinRSPluginConfigCache@@EAEPAVCCommonConfigSettings@@PAVIRequestContext@@@Z" PURGE="4" COMMENT="" />
    <EXPORT ORDINAL="2995" NAME="?ReadShellUriRegistryKey@CConfigManager@@SGHPAVIRequestContext@@PAVSHELLURI_IDENTITY@@PAG@Z" PURGE="12" COMMENT="" />
    <EXPORT ORDINAL="2996" NAME="?ReadTableRegistryKey@CConfigManager@@SGHPAVIRequestContext@@PAVWSMANCONFIGTABLE_IDENTITY@@PAG@Z" PURGE="12" COMMENT="" />
    <EXPORT ORDINAL="2997" NAME="?ReallocStorage@RBUFFER@@IAEHI@Z" PURGE="4" COMMENT="" />
    <EXPORT ORDINAL="2998" NAME="?RecordAccessDenied@CErrorContext@@UAEXXZ" PURGE="0" COMMENT="" />
    <EXPORT ORDINAL="2999" NAME="?RecordAccessDenied@CRequestContext@@UAEXXZ" PURGE="0" COMMENT="" />
    <EXPORT ORDINAL="3000" NAME="?RecordAccessDeniedWithDetail@CErrorContext@@UAAXKZZ" PURGE="0" COMMENT="" />
    <EXPORT ORDINAL="3001" NAME="?RecordAccessDeniedWithDetail@CRequestContext@@UAAXKZZ" PURGE="0" COMMENT="" />
    <EXPORT ORDINAL="3002" NAME="?RecordFailure@CErrorContext@@UAAXKKZZ" PURGE="0" COMMENT="" />
    <EXPORT ORDINAL="3003" NAME="?RecordFailure@CErrorContext@@UAAXW4_MI_Result@@KKZZ" PURGE="0" COMMENT="" />
    <EXPORT ORDINAL="3004" NAME="?RecordFailure@CErrorContext@@UAEXK@Z" PURGE="4" COMMENT="" />
    <EXPORT ORDINAL="3005" NAME="?RecordFailure@CErrorContext@@UAEXPAU_WSMAN_FAULT_OBJECT@@@Z" PURGE="4" COMMENT="" />
    <EXPORT ORDINAL="3006" NAME="?RecordFailure@CRequestContext@@AAEXKKPAPAD0@Z" PURGE="16" COMMENT="" />
    <EXPORT ORDINAL="3007" NAME="?RecordFailure@CRequestContext@@UAAXKKZZ" PURGE="0" COMMENT="" />
    <EXPORT ORDINAL="3008" NAME="?RecordFailure@CRequestContext@@UAAXW4_MI_Result@@KKZZ" PURGE="0" COMMENT="" />
    <EXPORT ORDINAL="3009" NAME="?RecordFailure@CRequestContext@@UAEXK@Z" PURGE="4" COMMENT="" />
    <EXPORT ORDINAL="3010" NAME="?RecordFailure@CRequestContext@@UAEXPAU_WSMAN_FAULT_OBJECT@@@Z" PURGE="4" COMMENT="" />
    <EXPORT ORDINAL="3011" NAME="?RecordHresult@CErrorContext@@UAAXKKZZ" PURGE="0" COMMENT="" />
    <EXPORT ORDINAL="3012" NAME="?RecordHresult@CRequestContext@@UAAXKKZZ" PURGE="0" COMMENT="" />
    <EXPORT ORDINAL="3013" NAME="?RecordHtmlError@CRequestContext@@QAEHKPAU_FWXML_ELEMENT@@@Z" PURGE="8" COMMENT="" />
    <EXPORT ORDINAL="3014" NAME="?RecordHtmlError@CRequestContext@@QAEHKPBGK@Z" PURGE="12" COMMENT="" />
    <EXPORT ORDINAL="3015" NAME="?RecordMIFailure@IRequestContext@@QAEXW4_MI_Result@@K@Z" PURGE="8" COMMENT="" />
    <EXPORT ORDINAL="3016" NAME="?RecordOutOfMemory@CErrorContext@@UAEXXZ" PURGE="0" COMMENT="" />
    <EXPORT ORDINAL="3017" NAME="?RecordOutOfMemory@CRequestContext@@UAEXXZ" PURGE="0" COMMENT="" />
    <EXPORT ORDINAL="3018" NAME="?RecordProviderFailure@CErrorContext@@UAEXPAU_WSMAN_FAULT_OBJECT@@PBG1@Z" PURGE="12" COMMENT="" />
    <EXPORT ORDINAL="3019" NAME="?RecordProviderFailure@CRequestContext@@QAEXKHPBG00@Z" PURGE="20" COMMENT="" />
    <EXPORT ORDINAL="3020" NAME="?RecordProviderFailure@CRequestContext@@UAEXPAU_WSMAN_FAULT_OBJECT@@PBG1@Z" PURGE="12" COMMENT="" />
    <EXPORT ORDINAL="3021" NAME="?RecordSoapError@CErrorContext@@UAEHKPBG@Z" PURGE="8" COMMENT="" />
    <EXPORT ORDINAL="3022" NAME="?RecordSoapError@CRequestContext@@QAEHKPAU_FWXML_ELEMENT@@@Z" PURGE="8" COMMENT="" />
    <EXPORT ORDINAL="3023" NAME="?RecordSoapError@CRequestContext@@UAEHKPBG@Z" PURGE="8" COMMENT="" />
    <EXPORT ORDINAL="3024" NAME="?RecordText@CRequestContext@@AAEHKPBGIK@Z" PURGE="16" COMMENT="" />
    <EXPORT ORDINAL="3025" NAME="?RecordXml@CRequestContext@@AAEHKPAU_FWXML_ELEMENT@@K@Z" PURGE="12" COMMENT="" />
    <EXPORT ORDINAL="3026" NAME="?Refresh@UserRecord@@QAEXXZ" PURGE="0" COMMENT="" />
    <EXPORT ORDINAL="3027" NAME="?RegisterChild@ChildLifeTimeManager@@QAE_NXZ" PURGE="0" COMMENT="" />
    <EXPORT ORDINAL="3028" NAME="?RegisterChunkBoundary@CircularBufferFormatter@@QAEKXZ" PURGE="0" COMMENT="" />
    <EXPORT ORDINAL="3029" NAME="?RegisterConfigChangeNotification@CConfigManager@@QAEPAVConfigNotification@@PAX@Z" PURGE="4" COMMENT="" />
    <EXPORT ORDINAL="3030" NAME="?RegisterForPolicyNotification@CWSManGroupPolicyManager@@AAEHPAVIRequestContext@@H@Z" PURGE="8" COMMENT="" />
    <EXPORT ORDINAL="3031" NAME="RegisterModule" PURGE="12" COMMENT="" />
    <EXPORT ORDINAL="3032" NAME="?Release@?$SafeMap@PAVCCertMapping@@UEmpty@@V?$SafeMap_Iterator@PAVCCertMapping@@UEmpty@@@@@@UBEXXZ" PURGE="0" COMMENT="" />
    <EXPORT ORDINAL="3033" NAME="?Release@?$SafeMap@PAVCCertMapping@@UEmpty@@V?$SafeSet_Iterator@PAVCCertMapping@@@@@@UBEXXZ" PURGE="0" COMMENT="" />
    <EXPORT ORDINAL="3034" NAME="?Release@?$SafeMap@PAVCListenerConnect@@PAV1@V?$SafeMap_Iterator@PAVCListenerConnect@@PAV1@@@@@UBEXXZ" PURGE="0" COMMENT="" />
    <EXPORT ORDINAL="3035" NAME="?Release@?$SafeMap@PAVCListenerOperation@@UEmpty@@V?$SafeMap_Iterator@PAVCListenerOperation@@UEmpty@@@@@@UBEXXZ" PURGE="0" COMMENT="" />
    <EXPORT ORDINAL="3036" NAME="?Release@?$SafeMap@PAVCListenerOperation@@UEmpty@@V?$SafeSet_Iterator@PAVCListenerOperation@@@@@@UBEXXZ" PURGE="0" COMMENT="" />
    <EXPORT ORDINAL="3037" NAME="?Release@?$SafeMap@PAVCListenerReceive@@PAV1@V?$SafeMap_Iterator@PAVCListenerReceive@@PAV1@@@@@UBEXXZ" PURGE="0" COMMENT="" />
    <EXPORT ORDINAL="3038" NAME="?Release@?$SafeMap@PAVCListenerSend@@PAV1@V?$SafeMap_Iterator@PAVCListenerSend@@PAV1@@@@@UBEXXZ" PURGE="0" COMMENT="" />
    <EXPORT ORDINAL="3039" NAME="?Release@?$SafeMap@PAVCListenerSignal@@PAV1@V?$SafeMap_Iterator@PAVCListenerSignal@@PAV1@@@@@UBEXXZ" PURGE="0" COMMENT="" />
    <EXPORT ORDINAL="3040" NAME="?Release@?$SafeMap@PAVCShellUriSettings@@UEmpty@@V?$SafeSet_Iterator@PAVCShellUriSettings@@@@@@UBEXXZ" PURGE="0" COMMENT="" />
    <EXPORT ORDINAL="3041" NAME="?Release@?$SafeMap@PAVCollector@@UEmpty@@V?$SafeMap_Iterator@PAVCollector@@UEmpty@@@@@@UBEXXZ" PURGE="0" COMMENT="" />
    <EXPORT ORDINAL="3042" NAME="?Release@?$SafeMap@PAVCollector@@UEmpty@@V?$SafeSet_Iterator@PAVCollector@@@@@@UBEXXZ" PURGE="0" COMMENT="" />
    <EXPORT ORDINAL="3043" NAME="?Release@?$SafeMap@PAVHostOperation@@UEmpty@@V?$SafeMap_Iterator@PAVHostOperation@@UEmpty@@@@@@UBEXXZ" PURGE="0" COMMENT="" />
    <EXPORT ORDINAL="3044" NAME="?Release@?$SafeMap@PAVHostOperation@@UEmpty@@V?$SafeSet_Iterator@PAVHostOperation@@@@@@UBEXXZ" PURGE="0" COMMENT="" />
    <EXPORT ORDINAL="3045" NAME="?Release@?$SafeMap@PAVIOperation@@UEmpty@@V?$SafeMap_Iterator@PAVIOperation@@UEmpty@@@@@@UBEXXZ" PURGE="0" COMMENT="" />
    <EXPORT ORDINAL="3046" NAME="?Release@?$SafeMap@PAVIOperation@@UEmpty@@V?$SafeSet_Iterator@PAVIOperation@@@@@@UBEXXZ" PURGE="0" COMMENT="" />
    <EXPORT ORDINAL="3047" NAME="?Release@?$SafeMap@PAVListenerSourceSubscription@@UEmpty@@V?$SafeMap_Iterator@PAVListenerSourceSubscription@@UEmpty@@@@@@UBEXXZ" PURGE="0" COMMENT="" />
    <EXPORT ORDINAL="3048" NAME="?Release@?$SafeMap@PAVListenerSourceSubscription@@UEmpty@@V?$SafeSet_Iterator@PAVListenerSourceSubscription@@@@@@UBEXXZ" PURGE="0" COMMENT="" />
    <EXPORT ORDINAL="3049" NAME="?Release@?$SafeMap@PAVPushSubscription@@UEmpty@@V?$SafeMap_Iterator@PAVPushSubscription@@UEmpty@@@@@@UBEXXZ" PURGE="0" COMMENT="" />
    <EXPORT ORDINAL="3050" NAME="?Release@?$SafeMap@PAVPushSubscription@@UEmpty@@V?$SafeSet_Iterator@PAVPushSubscription@@@@@@UBEXXZ" PURGE="0" COMMENT="" />
    <EXPORT ORDINAL="3051" NAME="?Release@?$SafeMap@PAXUEmpty@@V?$SafeSet_Iterator@PAX@@@@UBEXXZ" PURGE="0" COMMENT="" />
    <EXPORT ORDINAL="3052" NAME="?Release@?$SafeMap@UPluginKey@@KV?$SafeMap_Iterator@UPluginKey@@K@@@@UBEXXZ" PURGE="0" COMMENT="" />
    <EXPORT ORDINAL="3053" NAME="?Release@?$SafeMap@UUserKey@@PAVBlockedRecord@@V?$SafeMap_Iterator@UUserKey@@PAVBlockedRecord@@@@@@UBEXXZ" PURGE="0" COMMENT="" />
    <EXPORT ORDINAL="3054" NAME="?Release@?$SafeMap@VCertThumbprintKey@@VCertThumbprintMappedSet@CServiceConfigSettings@@V?$SafeMap_Iterator@VCertThumbprintKey@@VCertThumbprintMappedSet@CServiceConfigSettings@@@@@@UBEXXZ" PURGE="0" COMMENT="" />
    <EXPORT ORDINAL="3055" NAME="?Release@?$SafeMap@VGuidKey@@PAVCListenerCommand@@V?$SafeMap_Iterator@VGuidKey@@PAVCListenerCommand@@@@@@UBEXXZ" PURGE="0" COMMENT="" />
    <EXPORT ORDINAL="3056" NAME="?Release@?$SafeMap@VKey@CWmiPtrCache@@VMapping@2@V?$SafeMap_Iterator@VKey@CWmiPtrCache@@VMapping@2@@@@@UBEXXZ" PURGE="0" COMMENT="" />
    <EXPORT ORDINAL="3057" NAME="?Release@?$SafeMap@VKey@Locale@@KV?$SafeMap_Iterator@VKey@Locale@@K@@@@UBEXXZ" PURGE="0" COMMENT="" />
    <EXPORT ORDINAL="3058" NAME="?Release@?$SafeMap@VStringKey@@PAVListenerEvents@@V?$SafeMap_Iterator@VStringKey@@PAVListenerEvents@@@@@@UBEXXZ" PURGE="0" COMMENT="" />
    <EXPORT ORDINAL="3059" NAME="?Release@?$SafeMap@VStringKey@@PAVListenerSourceSubscription@@V?$SafeMap_Iterator@VStringKey@@PAVListenerSourceSubscription@@@@@@UBEXXZ" PURGE="0" COMMENT="" />
    <EXPORT ORDINAL="3060" NAME="?Release@?$SafeMap@VStringKey@@UOption@WinRM_OperationOptions@@V?$SafeMap_Iterator@VStringKey@@UOption@WinRM_OperationOptions@@@@@@UBEXXZ" PURGE="0" COMMENT="" />
    <EXPORT ORDINAL="3061" NAME="?Release@?$SafeMap@VStringKeyCI@@KV?$SafeMap_Iterator@VStringKeyCI@@K@@@@UBEXXZ" PURGE="0" COMMENT="" />
    <EXPORT ORDINAL="3062" NAME="?Release@?$SafeMap@VStringKeyCI@@PAVIISEndpoint@@V?$SafeMap_Iterator@VStringKeyCI@@PAVIISEndpoint@@@@@@UBEXXZ" PURGE="0" COMMENT="" />
    <EXPORT ORDINAL="3063" NAME="?Release@?$SafeMap@VStringKeyCI@@UEmpty@@V?$SafeMap_Iterator@VStringKeyCI@@UEmpty@@@@@@UBEXXZ" PURGE="0" COMMENT="" />
    <EXPORT ORDINAL="3064" NAME="?Release@?$SafeMap@VStringKeyCI@@UEmpty@@V?$SafeSet_Iterator@VStringKeyCI@@@@@@UBEXXZ" PURGE="0" COMMENT="" />
    <EXPORT ORDINAL="3065" NAME="?Release@?$SafeMap@VStringKeyCI@@UUSER_CONTEXT_INFO@WSManHttpListener@@V?$SafeMap_Iterator@VStringKeyCI@@UUSER_CONTEXT_INFO@WSManHttpListener@@@@@@UBEXXZ" PURGE="0" COMMENT="" />
    <EXPORT ORDINAL="3066" NAME="?Release@?$SafeMap@VStringKeyStore@@PAVExpiredOperationIdRecord@@V?$SafeMap_Iterator@VStringKeyStore@@PAVExpiredOperationIdRecord@@@@@@UBEXXZ" PURGE="0" COMMENT="" />
    <EXPORT ORDINAL="3067" NAME="?Release@?$SafeMap@VStringKeyStore@@PAVServerFullDuplexChannel@@V?$SafeMap_Iterator@VStringKeyStore@@PAVServerFullDuplexChannel@@@@@@UBEXXZ" PURGE="0" COMMENT="" />
    <EXPORT ORDINAL="3068" NAME="?Release@?$SafeMap@VTokenCacheKey@ServiceSoapProcessor@@VTokenCacheMapping@2@V?$SafeMap_Iterator@VTokenCacheKey@ServiceSoapProcessor@@VTokenCacheMapping@2@@@@@UBEXXZ" PURGE="0" COMMENT="" />
    <EXPORT ORDINAL="3069" NAME="?Release@?$SafeMap@W4WSManSessionOption@@PAVOptionValue@SessionOptions@Client@WSMan@@V?$SafeMap_Iterator@W4WSManSessionOption@@PAVOptionValue@SessionOptions@Client@WSMan@@@@@@UBEXXZ" PURGE="0" COMMENT="" />
    <EXPORT ORDINAL="3070" NAME="?Release@?$SafeMap@_KPAVSendPacketArgs@RobustConnectionBuffer@@V?$SafeMap_Iterator@_KPAVSendPacketArgs@RobustConnectionBuffer@@@@@@UBEXXZ" PURGE="0" COMMENT="" />
    <EXPORT ORDINAL="3071" NAME="?Release@?$SafeMap_Iterator@PAVCCertMapping@@UEmpty@@@@QAEXXZ" PURGE="0" COMMENT="" />
    <EXPORT ORDINAL="3072" NAME="?Release@?$SafeMap_Iterator@PAVCListenerOperation@@UEmpty@@@@QAEXXZ" PURGE="0" COMMENT="" />
    <EXPORT ORDINAL="3073" NAME="?Release@?$SafeMap_Iterator@PAVCShellUriSettings@@UEmpty@@@@QAEXXZ" PURGE="0" COMMENT="" />
    <EXPORT ORDINAL="3074" NAME="?Release@?$SafeMap_Iterator@VCertThumbprintKey@@VCertThumbprintMappedSet@CServiceConfigSettings@@@@QAEXXZ" PURGE="0" COMMENT="" />
    <EXPORT ORDINAL="3075" NAME="?Release@?$SafeMap_Iterator@VStringKeyCI@@K@@QAEXXZ" PURGE="0" COMMENT="" />
    <EXPORT ORDINAL="3076" NAME="?Release@?$SafeMap_Iterator@VStringKeyStore@@PAVExpiredOperationIdRecord@@@@QAEXXZ" PURGE="0" COMMENT="" />
    <EXPORT ORDINAL="3077" NAME="?Release@?$SafeMap_Iterator@W4WSManSessionOption@@PAVOptionValue@SessionOptions@Client@WSMan@@@@QAEXXZ" PURGE="0" COMMENT="" />
    <EXPORT ORDINAL="3078" NAME="?Release@?$SafeMap_Lock@PAVCCertMapping@@UEmpty@@V?$SafeMap_Iterator@PAVCCertMapping@@UEmpty@@@@@@QAEXXZ" PURGE="0" COMMENT="" />
    <EXPORT ORDINAL="3079" NAME="?Release@?$SafeMap_Lock@PAVCListenerOperation@@UEmpty@@V?$SafeMap_Iterator@PAVCListenerOperation@@UEmpty@@@@@@QAEXXZ" PURGE="0" COMMENT="" />
    <EXPORT ORDINAL="3080" NAME="?Release@?$SafeMap_Lock@PAVCShellUriSettings@@UEmpty@@V?$SafeMap_Iterator@PAVCShellUriSettings@@UEmpty@@@@@@QAEXXZ" PURGE="0" COMMENT="" />
    <EXPORT ORDINAL="3081" NAME="?Release@?$SafeMap_Lock@VCertThumbprintKey@@VCertThumbprintMappedSet@CServiceConfigSettings@@V?$SafeMap_Iterator@VCertThumbprintKey@@VCertThumbprintMappedSet@CServiceConfigSettings@@@@@@QAEXXZ" PURGE="0" COMMENT="" />
    <EXPORT ORDINAL="3082" NAME="?Release@?$SafeMap_Lock@VStringKeyCI@@KV?$SafeMap_Iterator@VStringKeyCI@@K@@@@QAEXXZ" PURGE="0" COMMENT="" />
    <EXPORT ORDINAL="3083" NAME="?Release@?$SafeMap_Lock@VStringKeyStore@@PAVExpiredOperationIdRecord@@V?$SafeMap_Iterator@VStringKeyStore@@PAVExpiredOperationIdRecord@@@@@@QAEXXZ" PURGE="0" COMMENT="" />
    <EXPORT ORDINAL="3084" NAME="?Release@?$SafeMap_Lock@W4WSManSessionOption@@PAVOptionValue@SessionOptions@Client@WSMan@@V?$SafeMap_Iterator@W4WSManSessionOption@@PAVOptionValue@SessionOptions@Client@WSMan@@@@@@QAEXXZ" PURGE="0" COMMENT="" />
    <EXPORT ORDINAL="3085" NAME="?Release@CBaseConfigCache@@UAEJP6GXPAX@Z0@Z" PURGE="8" COMMENT="" />
    <EXPORT ORDINAL="3086" NAME="?Release@CWSManCriticalSection@@QAEXXZ" PURGE="0" COMMENT="" />
    <EXPORT ORDINAL="3087" NAME="?Release@CWSManSecurityUI@@UAGKXZ" PURGE="4" COMMENT="" />
    <EXPORT ORDINAL="3088" NAME="?Release@ILifeTimeMgmt@@UAEJP6GXPAX@Z0@Z" PURGE="8" COMMENT="" />
    <EXPORT ORDINAL="3089" NAME="?Release@UserRecord@@QAEJXZ" PURGE="0" COMMENT="" />
    <EXPORT ORDINAL="3090" NAME="?ReleaseExclusive@FastLock@@QAEXXZ" PURGE="0" COMMENT="" />
    <EXPORT ORDINAL="3091" NAME="?ReleasePtr@?$AutoCleanup@V?$AutoDelete@D@@PAD@@AAEXXZ" PURGE="0" COMMENT="" />
    <EXPORT ORDINAL="3092" NAME="?ReleasePtr@?$AutoCleanup@V?$AutoDelete@G@@PAG@@AAEXXZ" PURGE="0" COMMENT="" />
    <EXPORT ORDINAL="3093" NAME="?ReleasePtr@?$AutoCleanup@V?$AutoDelete@UIPRange@CWSManIPFilter@@@@PAUIPRange@CWSManIPFilter@@@@AAEXXZ" PURGE="0" COMMENT="" />
    <EXPORT ORDINAL="3094" NAME="?ReleasePtr@?$AutoCleanup@V?$AutoDelete@U_SID@@@@PAU_SID@@@@AAEXXZ" PURGE="0" COMMENT="" />
    <EXPORT ORDINAL="3095" NAME="?ReleasePtr@?$AutoCleanup@V?$AutoDelete@U_WSMAN_STREAM_ID_SET@@@@PAU_WSMAN_STREAM_ID_SET@@@@AAEXXZ" PURGE="0" COMMENT="" />
    <EXPORT ORDINAL="3096" NAME="?ReleasePtr@?$AutoCleanup@V?$AutoDelete@V?$Handle@VISubscription@@@@@@PAV?$Handle@VISubscription@@@@@@AAEXXZ" PURGE="0" COMMENT="" />
    <EXPORT ORDINAL="3097" NAME="?ReleasePtr@?$AutoCleanup@V?$AutoDelete@V?$SafeMap_Iterator@PAVCListenerConnect@@PAV1@@@@@PAV?$SafeMap_Iterator@PAVCListenerConnect@@PAV1@@@@@AAEXXZ" PURGE="0" COMMENT="" />
    <EXPORT ORDINAL="3098" NAME="?ReleasePtr@?$AutoCleanup@V?$AutoDelete@V?$SafeMap_Iterator@PAVCListenerReceive@@PAV1@@@@@PAV?$SafeMap_Iterator@PAVCListenerReceive@@PAV1@@@@@AAEXXZ" PURGE="0" COMMENT="" />
    <EXPORT ORDINAL="3099" NAME="?ReleasePtr@?$AutoCleanup@V?$AutoDelete@V?$SafeMap_Iterator@PAVCListenerSend@@PAV1@@@@@PAV?$SafeMap_Iterator@PAVCListenerSend@@PAV1@@@@@AAEXXZ" PURGE="0" COMMENT="" />
    <EXPORT ORDINAL="3100" NAME="?ReleasePtr@?$AutoCleanup@V?$AutoDelete@V?$SafeMap_Iterator@PAVCListenerSignal@@PAV1@@@@@PAV?$SafeMap_Iterator@PAVCListenerSignal@@PAV1@@@@@AAEXXZ" PURGE="0" COMMENT="" />
    <EXPORT ORDINAL="3101" NAME="?ReleasePtr@?$AutoCleanup@V?$AutoDelete@V?$SafeMap_Iterator@VGuidKey@@PAVCListenerCommand@@@@@@PAV?$SafeMap_Iterator@VGuidKey@@PAVCListenerCommand@@@@@@AAEXXZ" PURGE="0" COMMENT="" />
    <EXPORT ORDINAL="3102" NAME="?ReleasePtr@?$AutoCleanup@V?$AutoDelete@V?$SafeMap_Iterator@VStringKeyCI@@K@@@@PAV?$SafeMap_Iterator@VStringKeyCI@@K@@@@AAEXXZ" PURGE="0" COMMENT="" />
    <EXPORT ORDINAL="3103" NAME="?ReleasePtr@?$AutoCleanup@V?$AutoDelete@V?$SafeMap_Iterator@W4WSManSessionOption@@PAVOptionValue@SessionOptions@Client@WSMan@@@@@@PAV?$SafeMap_Iterator@W4WSManSessionOption@@PAVOptionValue@SessionOptions@Client@WSMan@@@@@@AAEXXZ" PURGE="0" COMMENT="" />
    <EXPORT ORDINAL="3104" NAME="?ReleasePtr@?$AutoCleanup@V?$AutoDelete@V?$SafeSet@PAVCCertMapping@@@@@@PAV?$SafeSet@PAVCCertMapping@@@@@@AAEXXZ" PURGE="0" COMMENT="" />
    <EXPORT ORDINAL="3105" NAME="?ReleasePtr@?$AutoCleanup@V?$AutoDelete@V?$SafeSet@PAVCShellUriSettings@@@@@@PAV?$SafeSet@PAVCShellUriSettings@@@@@@AAEXXZ" PURGE="0" COMMENT="" />
    <EXPORT ORDINAL="3106" NAME="?ReleasePtr@?$AutoCleanup@V?$AutoDelete@V?$SafeSet_Iterator@PAVCListenerOperation@@@@@@PAV?$SafeSet_Iterator@PAVCListenerOperation@@@@@@AAEXXZ" PURGE="0" COMMENT="" />
    <EXPORT ORDINAL="3107" NAME="?ReleasePtr@?$AutoCleanup@V?$AutoDelete@V?$SafeSet_Iterator@PAVCollector@@@@@@PAV?$SafeSet_Iterator@PAVCollector@@@@@@AAEXXZ" PURGE="0" COMMENT="" />
    <EXPORT ORDINAL="3108" NAME="?ReleasePtr@?$AutoCleanup@V?$AutoDelete@V?$SafeSet_Iterator@PAVHostOperation@@@@@@PAV?$SafeSet_Iterator@PAVHostOperation@@@@@@AAEXXZ" PURGE="0" COMMENT="" />
    <EXPORT ORDINAL="3109" NAME="?ReleasePtr@?$AutoCleanup@V?$AutoDelete@V?$SafeSet_Iterator@PAVListenerSourceSubscription@@@@@@PAV?$SafeSet_Iterator@PAVListenerSourceSubscription@@@@@@AAEXXZ" PURGE="0" COMMENT="" />
    <EXPORT ORDINAL="3110" NAME="?ReleasePtr@?$AutoCleanup@V?$AutoDelete@V?$SimpleStack@VCListenerOperation@@@@@@PAV?$SimpleStack@VCListenerOperation@@@@@@AAEXXZ" PURGE="0" COMMENT="" />
    <EXPORT ORDINAL="3111" NAME="?ReleasePtr@?$AutoCleanup@V?$AutoDelete@V?$SimpleStack@VShellHostEntry@@@@@@PAV?$SimpleStack@VShellHostEntry@@@@@@AAEXXZ" PURGE="0" COMMENT="" />
    <EXPORT ORDINAL="3112" NAME="?ReleasePtr@?$AutoCleanup@V?$AutoDelete@V?$queue@PAU_WSMAN_PUBLISHER_EVENT_STRUCT@@V?$deque@PAU_WSMAN_PUBLISHER_EVENT_STRUCT@@V?$transport_allocator@PAU_WSMAN_PUBLISHER_EVENT_STRUCT@@@@@std@@@std@@@@PAV?$queue@PAU_WSMAN_PUBLISHER_EVENT_STRUCT@@V?$deque@PAU_WSMAN_PUBLISHER_EVENT_STRUCT@@V?$transport_allocator@PAU_WSMAN_PUBLISHER_EVENT_STRUCT@@@@@std@@@std@@@@AAEXXZ" PURGE="0" COMMENT="" />
    <EXPORT ORDINAL="3113" NAME="?ReleasePtr@?$AutoCleanup@V?$AutoDelete@V?$set@PAVCListenerSettings@@VCListenerSettingsLessFunctor@CServiceConfigSettings@@V?$transport_allocator@PAVCListenerSettings@@@@@std@@@@PAV?$set@PAVCListenerSettings@@VCListenerSettingsLessFunctor@CServiceConfigSettings@@V?$transport_allocator@PAVCListenerSettings@@@@@std@@@@AAEXXZ" PURGE="0" COMMENT="" />
    <EXPORT ORDINAL="3114" NAME="?ReleasePtr@?$AutoCleanup@V?$AutoDelete@V?$set@Usockaddr_storage@@VSockAddrLessFunctor@CListenerSettings@@V?$transport_allocator@Usockaddr_storage@@@@@std@@@@PAV?$set@Usockaddr_storage@@VSockAddrLessFunctor@CListenerSettings@@V?$transport_allocator@Usockaddr_storage@@@@@std@@@@AAEXXZ" PURGE="0" COMMENT="" />
    <EXPORT ORDINAL="3115" NAME="?ReleasePtr@?$AutoCleanup@V?$AutoDelete@V?$vector@PAVCWSManRequest@@V?$transport_allocator@PAVCWSManRequest@@@@@std@@@@PAV?$vector@PAVCWSManRequest@@V?$transport_allocator@PAVCWSManRequest@@@@@std@@@@AAEXXZ" PURGE="0" COMMENT="" />
    <EXPORT ORDINAL="3116" NAME="?ReleasePtr@?$AutoCleanup@V?$AutoDelete@V?$vector@PAVHandleImpl@Client@WSMan@@V?$transport_allocator@PAVHandleImpl@Client@WSMan@@@@@std@@@@PAV?$vector@PAVHandleImpl@Client@WSMan@@V?$transport_allocator@PAVHandleImpl@Client@WSMan@@@@@std@@@@AAEXXZ" PURGE="0" COMMENT="" />
    <EXPORT ORDINAL="3117" NAME="?ReleasePtr@?$AutoCleanup@V?$AutoDelete@V?$vector@PAVIServiceConfigObserver@@V?$transport_allocator@PAVIServiceConfigObserver@@@@@std@@@@PAV?$vector@PAVIServiceConfigObserver@@V?$transport_allocator@PAVIServiceConfigObserver@@@@@std@@@@AAEXXZ" PURGE="0" COMMENT="" />
    <EXPORT ORDINAL="3118" NAME="?ReleasePtr@?$AutoCleanup@V?$AutoDelete@V?$vector@PAVWSManHttpSenderConnection@@V?$transport_allocator@PAVWSManHttpSenderConnection@@@@@std@@@@PAV?$vector@PAVWSManHttpSenderConnection@@V?$transport_allocator@PAVWSManHttpSenderConnection@@@@@std@@@@AAEXXZ" PURGE="0" COMMENT="" />
    <EXPORT ORDINAL="3119" NAME="?ReleasePtr@?$AutoCleanup@V?$AutoDelete@VAdminSid@CSecurity@@@@PAVAdminSid@CSecurity@@@@AAEXXZ" PURGE="0" COMMENT="" />
    <EXPORT ORDINAL="3120" NAME="?ReleasePtr@?$AutoCleanup@V?$AutoDelete@VBlockedRecord@@@@PAVBlockedRecord@@@@AAEXXZ" PURGE="0" COMMENT="" />
    <EXPORT ORDINAL="3121" NAME="?ReleasePtr@?$AutoCleanup@V?$AutoDelete@VCBaseConfigCache@@@@PAVCBaseConfigCache@@@@AAEXXZ" PURGE="0" COMMENT="" />
    <EXPORT ORDINAL="3122" NAME="?ReleasePtr@?$AutoCleanup@V?$AutoDelete@VCCertMapping@@@@PAVCCertMapping@@@@AAEXXZ" PURGE="0" COMMENT="" />
    <EXPORT ORDINAL="3123" NAME="?ReleasePtr@?$AutoCleanup@V?$AutoDelete@VCConfigChangeSource@@@@PAVCConfigChangeSource@@@@AAEXXZ" PURGE="0" COMMENT="" />
    <EXPORT ORDINAL="3124" NAME="?ReleasePtr@?$AutoCleanup@V?$AutoDelete@VCListenerSettings@@@@PAVCListenerSettings@@@@AAEXXZ" PURGE="0" COMMENT="" />
    <EXPORT ORDINAL="3125" NAME="?ReleasePtr@?$AutoCleanup@V?$AutoDelete@VCObserverConfigChangeErrors@@@@PAVCObserverConfigChangeErrors@@@@AAEXXZ" PURGE="0" COMMENT="" />
    <EXPORT ORDINAL="3126" NAME="?ReleasePtr@?$AutoCleanup@V?$AutoDelete@VCServiceWatcher@CServiceConfigCache@@@@PAVCServiceWatcher@CServiceConfigCache@@@@AAEXXZ" PURGE="0" COMMENT="" />
    <EXPORT ORDINAL="3127" NAME="?ReleasePtr@?$AutoCleanup@V?$AutoDelete@VCShellUriSettings@@@@PAVCShellUriSettings@@@@AAEXXZ" PURGE="0" COMMENT="" />
    <EXPORT ORDINAL="3128" NAME="?ReleasePtr@?$AutoCleanup@V?$AutoDelete@VCWSManEPR@@@@PAVCWSManEPR@@@@AAEXXZ" PURGE="0" COMMENT="" />
    <EXPORT ORDINAL="3129" NAME="?ReleasePtr@?$AutoCleanup@V?$AutoDelete@VCWSManResource@@@@PAVCWSManResource@@@@AAEXXZ" PURGE="0" COMMENT="" />
    <EXPORT ORDINAL="3130" NAME="?ReleasePtr@?$AutoCleanup@V?$AutoDelete@VCertHash@@@@PAVCertHash@@@@AAEXXZ" PURGE="0" COMMENT="" />
    <EXPORT ORDINAL="3131" NAME="?ReleasePtr@?$AutoCleanup@V?$AutoDelete@VConfigUpdate@@@@PAVConfigUpdate@@@@AAEXXZ" PURGE="0" COMMENT="" />
    <EXPORT ORDINAL="3132" NAME="?ReleasePtr@?$AutoCleanup@V?$AutoDelete@VEnumSinkEx@@@@PAVEnumSinkEx@@@@AAEXXZ" PURGE="0" COMMENT="" />
    <EXPORT ORDINAL="3133" NAME="?ReleasePtr@?$AutoCleanup@V?$AutoDelete@VEventHandler@WSMan@@@@PAVEventHandler@WSMan@@@@AAEXXZ" PURGE="0" COMMENT="" />
    <EXPORT ORDINAL="3134" NAME="?ReleasePtr@?$AutoCleanup@V?$AutoDelete@VExpiredOperationIdRecord@@@@PAVExpiredOperationIdRecord@@@@AAEXXZ" PURGE="0" COMMENT="" />
    <EXPORT ORDINAL="3135" NAME="?ReleasePtr@?$AutoCleanup@V?$AutoDelete@VGPApiManager@@@@PAVGPApiManager@@@@AAEXXZ" PURGE="0" COMMENT="" />
    <EXPORT ORDINAL="3136" NAME="?ReleasePtr@?$AutoCleanup@V?$AutoDelete@VGeneralSinkEx@@@@PAVGeneralSinkEx@@@@AAEXXZ" PURGE="0" COMMENT="" />
    <EXPORT ORDINAL="3137" NAME="?ReleasePtr@?$AutoCleanup@V?$AutoDelete@VIChannelObserverFactory@@@@PAVIChannelObserverFactory@@@@AAEXXZ" PURGE="0" COMMENT="" />
    <EXPORT ORDINAL="3138" NAME="?ReleasePtr@?$AutoCleanup@V?$AutoDelete@VIQueryDASHSMASHInterface@@@@PAVIQueryDASHSMASHInterface@@@@AAEXXZ" PURGE="0" COMMENT="" />
    <EXPORT ORDINAL="3139" NAME="?ReleasePtr@?$AutoCleanup@V?$AutoDelete@VISpecification@@@@PAVISpecification@@@@AAEXXZ" PURGE="0" COMMENT="" />
    <EXPORT ORDINAL="3140" NAME="?ReleasePtr@?$AutoCleanup@V?$AutoDelete@VInteractiveSid@CSecurity@@@@PAVInteractiveSid@CSecurity@@@@AAEXXZ" PURGE="0" COMMENT="" />
    <EXPORT ORDINAL="3141" NAME="?ReleasePtr@?$AutoCleanup@V?$AutoDelete@VIpHlpApiDllLoader@@@@PAVIpHlpApiDllLoader@@@@AAEXXZ" PURGE="0" COMMENT="" />
    <EXPORT ORDINAL="3142" NAME="?ReleasePtr@?$AutoCleanup@V?$AutoDelete@VMachineName@@@@PAVMachineName@@@@AAEXXZ" PURGE="0" COMMENT="" />
    <EXPORT ORDINAL="3143" NAME="?ReleasePtr@?$AutoCleanup@V?$AutoDelete@VMasterReceiveData@CListenerReceive@@@@PAVMasterReceiveData@CListenerReceive@@@@AAEXXZ" PURGE="0" COMMENT="" />
    <EXPORT ORDINAL="3144" NAME="?ReleasePtr@?$AutoCleanup@V?$AutoDelete@VNetworkServiceSid@CSecurity@@@@PAVNetworkServiceSid@CSecurity@@@@AAEXXZ" PURGE="0" COMMENT="" />
    <EXPORT ORDINAL="3145" NAME="?ReleasePtr@?$AutoCleanup@V?$AutoDelete@VNtDsApiDllLoader@@@@PAVNtDsApiDllLoader@@@@AAEXXZ" PURGE="0" COMMENT="" />
    <EXPORT ORDINAL="3146" NAME="?ReleasePtr@?$AutoCleanup@V?$AutoDelete@VOptionValue@SessionOptions@Client@WSMan@@@@PAVOptionValue@SessionOptions@Client@WSMan@@@@AAEXXZ" PURGE="0" COMMENT="" />
    <EXPORT ORDINAL="3147" NAME="?ReleasePtr@?$AutoCleanup@V?$AutoDelete@VPacketCreator@@@@PAVPacketCreator@@@@AAEXXZ" PURGE="0" COMMENT="" />
    <EXPORT ORDINAL="3148" NAME="?ReleasePtr@?$AutoCleanup@V?$AutoDelete@VPacketParser@@@@PAVPacketParser@@@@AAEXXZ" PURGE="0" COMMENT="" />
    <EXPORT ORDINAL="3149" NAME="?ReleasePtr@?$AutoCleanup@V?$AutoDelete@VResources@Locale@@@@PAVResources@Locale@@@@AAEXXZ" PURGE="0" COMMENT="" />
    <EXPORT ORDINAL="3150" NAME="?ReleasePtr@?$AutoCleanup@V?$AutoDelete@VRunAsConfiguration@@@@PAVRunAsConfiguration@@@@AAEXXZ" PURGE="0" COMMENT="" />
    <EXPORT ORDINAL="3151" NAME="?ReleasePtr@?$AutoCleanup@V?$AutoDelete@VSafeBufferWrite@@@@PAVSafeBufferWrite@@@@AAEXXZ" PURGE="0" COMMENT="" />
    <EXPORT ORDINAL="3152" NAME="?ReleasePtr@?$AutoCleanup@V?$AutoDelete@VSecurityEntry@Catalog@@@@PAVSecurityEntry@Catalog@@@@AAEXXZ" PURGE="0" COMMENT="" />
    <EXPORT ORDINAL="3153" NAME="?ReleasePtr@?$AutoCleanup@V?$AutoDelete@VSendPacketArgs@RobustConnectionBuffer@@@@PAVSendPacketArgs@RobustConnectionBuffer@@@@AAEXXZ" PURGE="0" COMMENT="" />
    <EXPORT ORDINAL="3154" NAME="?ReleasePtr@?$AutoCleanup@V?$AutoDelete@VServiceSoapProcessor@@@@PAVServiceSoapProcessor@@@@AAEXXZ" PURGE="0" COMMENT="" />
    <EXPORT ORDINAL="3155" NAME="?ReleasePtr@?$AutoCleanup@V?$AutoDelete@VShell32DllLoader@@@@PAVShell32DllLoader@@@@AAEXXZ" PURGE="0" COMMENT="" />
    <EXPORT ORDINAL="3156" NAME="?ReleasePtr@?$AutoCleanup@V?$AutoDelete@VShlWApiDllLoader@@@@PAVShlWApiDllLoader@@@@AAEXXZ" PURGE="0" COMMENT="" />
    <EXPORT ORDINAL="3157" NAME="?ReleasePtr@?$AutoCleanup@V?$AutoDelete@VSubscriptionEnumerator@@@@PAVSubscriptionEnumerator@@@@AAEXXZ" PURGE="0" COMMENT="" />
    <EXPORT ORDINAL="3158" NAME="?ReleasePtr@?$AutoCleanup@V?$AutoDelete@VSubscriptionManager@@@@PAVSubscriptionManager@@@@AAEXXZ" PURGE="0" COMMENT="" />
    <EXPORT ORDINAL="3159" NAME="?ReleasePtr@?$AutoCleanup@V?$AutoDelete@VTSTRBUFFER@@@@PAVTSTRBUFFER@@@@AAEXXZ" PURGE="0" COMMENT="" />
    <EXPORT ORDINAL="3160" NAME="?ReleasePtr@?$AutoCleanup@V?$AutoDelete@VUniqueStringOverflow@@@@PAVUniqueStringOverflow@@@@AAEXXZ" PURGE="0" COMMENT="" />
    <EXPORT ORDINAL="3161" NAME="?ReleasePtr@?$AutoCleanup@V?$AutoDelete@VUser32DllLoader@@@@PAVUser32DllLoader@@@@AAEXXZ" PURGE="0" COMMENT="" />
    <EXPORT ORDINAL="3162" NAME="?ReleasePtr@?$AutoCleanup@V?$AutoDelete@VWSMANCONFIGTABLE_IDENTITY@@@@PAVWSMANCONFIGTABLE_IDENTITY@@@@AAEXXZ" PURGE="0" COMMENT="" />
    <EXPORT ORDINAL="3163" NAME="?ReleasePtr@?$AutoCleanup@V?$AutoDelete@VWSManMemCryptManager@@@@PAVWSManMemCryptManager@@@@AAEXXZ" PURGE="0" COMMENT="" />
    <EXPORT ORDINAL="3164" NAME="?ReleasePtr@?$AutoCleanup@V?$AutoDelete@VWmiEnumContext@@@@PAVWmiEnumContext@@@@AAEXXZ" PURGE="0" COMMENT="" />
    <EXPORT ORDINAL="3165" NAME="?ReleasePtr@?$AutoCleanup@V?$AutoDelete@VXmlReader@@@@PAVXmlReader@@@@AAEXXZ" PURGE="0" COMMENT="" />
    <EXPORT ORDINAL="3166" NAME="?ReleasePtr@?$AutoCleanup@V?$AutoDeleteVector@$$CBG@@PBG@@AAEXXZ" PURGE="0" COMMENT="" />
    <EXPORT ORDINAL="3167" NAME="?ReleasePtr@?$AutoCleanup@V?$AutoDeleteVector@D@@PAD@@AAEXXZ" PURGE="0" COMMENT="" />
    <EXPORT ORDINAL="3168" NAME="?ReleasePtr@?$AutoCleanup@V?$AutoDeleteVector@E@@PAE@@AAEXXZ" PURGE="0" COMMENT="" />
    <EXPORT ORDINAL="3169" NAME="?ReleasePtr@?$AutoCleanup@V?$AutoDeleteVector@G@@PAG@@AAEXXZ" PURGE="0" COMMENT="" />
    <EXPORT ORDINAL="3170" NAME="?ReleasePtr@?$AutoCleanup@V?$AutoDeleteVector@H@@PAH@@AAEXXZ" PURGE="0" COMMENT="" />
    <EXPORT ORDINAL="3171" NAME="?ReleasePtr@?$AutoCleanup@V?$AutoDeleteVector@PAG@@PAPAG@@AAEXXZ" PURGE="0" COMMENT="" />
    <EXPORT ORDINAL="3172" NAME="?ReleasePtr@?$AutoCleanup@V?$AutoDeleteVector@PBG@@PAPBG@@AAEXXZ" PURGE="0" COMMENT="" />
    <EXPORT ORDINAL="3173" NAME="?ReleasePtr@?$AutoCleanup@V?$AutoDeleteVector@U_CONFIG_UPDATE@@@@PAU_CONFIG_UPDATE@@@@AAEXXZ" PURGE="0" COMMENT="" />
    <EXPORT ORDINAL="3174" NAME="?ReleasePtr@?$AutoCleanup@V?$AutoDeleteVector@U_WINRS_CREATE_SHELL_ENVIRONMENT_VARIABLE@@@@PAU_WINRS_CREATE_SHELL_ENVIRONMENT_VARIABLE@@@@AAEXXZ" PURGE="0" COMMENT="" />
    <EXPORT ORDINAL="3175" NAME="?ReleasePtr@?$AutoCleanup@V?$AutoDeleteVector@U_WINRS_RUN_COMMAND_ARG@@@@PAU_WINRS_RUN_COMMAND_ARG@@@@AAEXXZ" PURGE="0" COMMENT="" />
    <EXPORT ORDINAL="3176" NAME="?ReleasePtr@?$AutoCleanup@V?$AutoDeleteVector@U_WSMAN_OPTION@@@@PAU_WSMAN_OPTION@@@@AAEXXZ" PURGE="0" COMMENT="" />
    <EXPORT ORDINAL="3177" NAME="?ReleasePtr@?$AutoCleanup@V?$AutoDeleteVector@X@@PAX@@AAEXXZ" PURGE="0" COMMENT="" />
    <EXPORT ORDINAL="3178" NAME="?ReleasePtr@?$AutoCleanup@V?$AutoFree@E@@PAE@@AAEXXZ" PURGE="0" COMMENT="" />
    <EXPORT ORDINAL="3179" NAME="?ReleasePtr@?$AutoCleanup@V?$AutoLocklessItemRecycle@VPacket@@@@PAVPacket@@@@AAEXXZ" PURGE="0" COMMENT="" />
    <EXPORT ORDINAL="3180" NAME="?ReleasePtr@?$AutoCleanup@V?$AutoRelease@UIAppHostAdminManager@@@@PAUIAppHostAdminManager@@@@AAEXXZ" PURGE="0" COMMENT="" />
    <EXPORT ORDINAL="3181" NAME="?ReleasePtr@?$AutoCleanup@V?$AutoRelease@UIAppHostChildElementCollection@@@@PAUIAppHostChildElementCollection@@@@AAEXXZ" PURGE="0" COMMENT="" />
    <EXPORT ORDINAL="3182" NAME="?ReleasePtr@?$AutoCleanup@V?$AutoRelease@UIAppHostConfigException@@@@PAUIAppHostConfigException@@@@AAEXXZ" PURGE="0" COMMENT="" />
    <EXPORT ORDINAL="3183" NAME="?ReleasePtr@?$AutoCleanup@V?$AutoRelease@UIAppHostElement@@@@PAUIAppHostElement@@@@AAEXXZ" PURGE="0" COMMENT="" />
    <EXPORT ORDINAL="3184" NAME="?ReleasePtr@?$AutoCleanup@V?$AutoRelease@UIAppHostElementCollection@@@@PAUIAppHostElementCollection@@@@AAEXXZ" PURGE="0" COMMENT="" />
    <EXPORT ORDINAL="3185" NAME="?ReleasePtr@?$AutoCleanup@V?$AutoRelease@UIAppHostProperty@@@@PAUIAppHostProperty@@@@AAEXXZ" PURGE="0" COMMENT="" />
    <EXPORT ORDINAL="3186" NAME="?ReleasePtr@?$AutoCleanup@V?$AutoRelease@UIAppHostPropertyCollection@@@@PAUIAppHostPropertyCollection@@@@AAEXXZ" PURGE="0" COMMENT="" />
    <EXPORT ORDINAL="3187" NAME="?ReleasePtr@?$AutoCleanup@V?$AutoRelease@UIClientSecurity@@@@PAUIClientSecurity@@@@AAEXXZ" PURGE="0" COMMENT="" />
    <EXPORT ORDINAL="3188" NAME="?ReleasePtr@?$AutoCleanup@V?$AutoRelease@UIEnumWbemClassObject@@@@PAUIEnumWbemClassObject@@@@AAEXXZ" PURGE="0" COMMENT="" />
    <EXPORT ORDINAL="3189" NAME="?ReleasePtr@?$AutoCleanup@V?$AutoRelease@UIErrorInfo@@@@PAUIErrorInfo@@@@AAEXXZ" PURGE="0" COMMENT="" />
    <EXPORT ORDINAL="3190" NAME="?ReleasePtr@?$AutoCleanup@V?$AutoRelease@UIUnknown@@@@PAUIUnknown@@@@AAEXXZ" PURGE="0" COMMENT="" />
    <EXPORT ORDINAL="3191" NAME="?ReleasePtr@?$AutoCleanup@V?$AutoRelease@UIWbemClassObject@@@@PAUIWbemClassObject@@@@AAEXXZ" PURGE="0" COMMENT="" />
    <EXPORT ORDINAL="3192" NAME="?ReleasePtr@?$AutoCleanup@V?$AutoRelease@UIWbemContext@@@@PAUIWbemContext@@@@AAEXXZ" PURGE="0" COMMENT="" />
    <EXPORT ORDINAL="3193" NAME="?ReleasePtr@?$AutoCleanup@V?$AutoRelease@UIWbemLocator@@@@PAUIWbemLocator@@@@AAEXXZ" PURGE="0" COMMENT="" />
    <EXPORT ORDINAL="3194" NAME="?ReleasePtr@?$AutoCleanup@V?$AutoRelease@UIWbemObjectTextSrc@@@@PAUIWbemObjectTextSrc@@@@AAEXXZ" PURGE="0" COMMENT="" />
    <EXPORT ORDINAL="3195" NAME="?ReleasePtr@?$AutoCleanup@V?$AutoRelease@UIWbemPath@@@@PAUIWbemPath@@@@AAEXXZ" PURGE="0" COMMENT="" />
    <EXPORT ORDINAL="3196" NAME="?ReleasePtr@?$AutoCleanup@V?$AutoRelease@UIWbemPathKeyList@@@@PAUIWbemPathKeyList@@@@AAEXXZ" PURGE="0" COMMENT="" />
    <EXPORT ORDINAL="3197" NAME="?ReleasePtr@?$AutoCleanup@V?$AutoRelease@UIWbemQualifierSet@@@@PAUIWbemQualifierSet@@@@AAEXXZ" PURGE="0" COMMENT="" />
    <EXPORT ORDINAL="3198" NAME="?ReleasePtr@?$AutoCleanup@V?$AutoRelease@UIWbemQuery@@@@PAUIWbemQuery@@@@AAEXXZ" PURGE="0" COMMENT="" />
    <EXPORT ORDINAL="3199" NAME="?ReleasePtr@?$AutoCleanup@V?$AutoRelease@UIWbemServices@@@@PAUIWbemServices@@@@AAEXXZ" PURGE="0" COMMENT="" />
    <EXPORT ORDINAL="3200" NAME="?ReleasePtr@?$AutoCleanup@V?$AutoRelease@VApplication@Client@WSMan@@@@PAVApplication@Client@WSMan@@@@AAEXXZ" PURGE="0" COMMENT="" />
    <EXPORT ORDINAL="3201" NAME="?ReleasePtr@?$AutoCleanup@V?$AutoRelease@VCBaseConfigCache@@@@PAVCBaseConfigCache@@@@AAEXXZ" PURGE="0" COMMENT="" />
    <EXPORT ORDINAL="3202" NAME="?ReleasePtr@?$AutoCleanup@V?$AutoRelease@VCClientConfigCache@@@@PAVCClientConfigCache@@@@AAEXXZ" PURGE="0" COMMENT="" />
    <EXPORT ORDINAL="3203" NAME="?ReleasePtr@?$AutoCleanup@V?$AutoRelease@VCClientConfigSettings@@@@PAVCClientConfigSettings@@@@AAEXXZ" PURGE="0" COMMENT="" />
    <EXPORT ORDINAL="3204" NAME="?ReleasePtr@?$AutoCleanup@V?$AutoRelease@VCCommonConfigSettings@@@@PAVCCommonConfigSettings@@@@AAEXXZ" PURGE="0" COMMENT="" />
    <EXPORT ORDINAL="3205" NAME="?ReleasePtr@?$AutoCleanup@V?$AutoRelease@VCConfigCacheMap@CBaseConfigCache@@@@PAVCConfigCacheMap@CBaseConfigCache@@@@AAEXXZ" PURGE="0" COMMENT="" />
    <EXPORT ORDINAL="3206" NAME="?ReleasePtr@?$AutoCleanup@V?$AutoRelease@VCConfigManager@@@@PAVCConfigManager@@@@AAEXXZ" PURGE="0" COMMENT="" />
    <EXPORT ORDINAL="3207" NAME="?ReleasePtr@?$AutoCleanup@V?$AutoRelease@VCListenerCommand@@@@PAVCListenerCommand@@@@AAEXXZ" PURGE="0" COMMENT="" />
    <EXPORT ORDINAL="3208" NAME="?ReleasePtr@?$AutoCleanup@V?$AutoRelease@VCListenerMasterOperation@@@@PAVCListenerMasterOperation@@@@AAEXXZ" PURGE="0" COMMENT="" />
    <EXPORT ORDINAL="3209" NAME="?ReleasePtr@?$AutoCleanup@V?$AutoRelease@VCListenerReceive@@@@PAVCListenerReceive@@@@AAEXXZ" PURGE="0" COMMENT="" />
    <EXPORT ORDINAL="3210" NAME="?ReleasePtr@?$AutoCleanup@V?$AutoRelease@VCListenerShell@@@@PAVCListenerShell@@@@AAEXXZ" PURGE="0" COMMENT="" />
    <EXPORT ORDINAL="3211" NAME="?ReleasePtr@?$AutoCleanup@V?$AutoRelease@VCRemoteOperation@@@@PAVCRemoteOperation@@@@AAEXXZ" PURGE="0" COMMENT="" />
    <EXPORT ORDINAL="3212" NAME="?ReleasePtr@?$AutoCleanup@V?$AutoRelease@VCRemoteSession@@@@PAVCRemoteSession@@@@AAEXXZ" PURGE="0" COMMENT="" />
    <EXPORT ORDINAL="3213" NAME="?ReleasePtr@?$AutoCleanup@V?$AutoRelease@VCRequestContext@@@@PAVCRequestContext@@@@AAEXXZ" PURGE="0" COMMENT="" />
    <EXPORT ORDINAL="3214" NAME="?ReleasePtr@?$AutoCleanup@V?$AutoRelease@VCServiceCommonConfigSettings@@@@PAVCServiceCommonConfigSettings@@@@AAEXXZ" PURGE="0" COMMENT="" />
    <EXPORT ORDINAL="3215" NAME="?ReleasePtr@?$AutoCleanup@V?$AutoRelease@VCServiceConfigCache@@@@PAVCServiceConfigCache@@@@AAEXXZ" PURGE="0" COMMENT="" />
    <EXPORT ORDINAL="3216" NAME="?ReleasePtr@?$AutoCleanup@V?$AutoRelease@VCServiceConfigSettings@@@@PAVCServiceConfigSettings@@@@AAEXXZ" PURGE="0" COMMENT="" />
    <EXPORT ORDINAL="3217" NAME="?ReleasePtr@?$AutoCleanup@V?$AutoRelease@VCWSManEPR@@@@PAVCWSManEPR@@@@AAEXXZ" PURGE="0" COMMENT="" />
    <EXPORT ORDINAL="3218" NAME="?ReleasePtr@?$AutoCleanup@V?$AutoRelease@VCWSManGroupPolicyCache@@@@PAVCWSManGroupPolicyCache@@@@AAEXXZ" PURGE="0" COMMENT="" />
    <EXPORT ORDINAL="3219" NAME="?ReleasePtr@?$AutoCleanup@V?$AutoRelease@VCWSManGroupPolicyManager@@@@PAVCWSManGroupPolicyManager@@@@AAEXXZ" PURGE="0" COMMENT="" />
    <EXPORT ORDINAL="3220" NAME="?ReleasePtr@?$AutoCleanup@V?$AutoRelease@VCWSManObject@@@@PAVCWSManObject@@@@AAEXXZ" PURGE="0" COMMENT="" />
    <EXPORT ORDINAL="3221" NAME="?ReleasePtr@?$AutoCleanup@V?$AutoRelease@VCWSManResource@@@@PAVCWSManResource@@@@AAEXXZ" PURGE="0" COMMENT="" />
    <EXPORT ORDINAL="3222" NAME="?ReleasePtr@?$AutoCleanup@V?$AutoRelease@VCWSManSession@@@@PAVCWSManSession@@@@AAEXXZ" PURGE="0" COMMENT="" />
    <EXPORT ORDINAL="3223" NAME="?ReleasePtr@?$AutoCleanup@V?$AutoRelease@VCWinRSPluginConfigCache@@@@PAVCWinRSPluginConfigCache@@@@AAEXXZ" PURGE="0" COMMENT="" />
    <EXPORT ORDINAL="3224" NAME="?ReleasePtr@?$AutoCleanup@V?$AutoRelease@VCWinRSPluginConfigSettings@@@@PAVCWinRSPluginConfigSettings@@@@AAEXXZ" PURGE="0" COMMENT="" />
    <EXPORT ORDINAL="3225" NAME="?ReleasePtr@?$AutoCleanup@V?$AutoRelease@VCommand@Client@WSMan@@@@PAVCommand@Client@WSMan@@@@AAEXXZ" PURGE="0" COMMENT="" />
    <EXPORT ORDINAL="3226" NAME="?ReleasePtr@?$AutoCleanup@V?$AutoRelease@VConfigNotification@@@@PAVConfigNotification@@@@AAEXXZ" PURGE="0" COMMENT="" />
    <EXPORT ORDINAL="3227" NAME="?ReleasePtr@?$AutoCleanup@V?$AutoRelease@VConnectShellOperation@Client@WSMan@@@@PAVConnectShellOperation@Client@WSMan@@@@AAEXXZ" PURGE="0" COMMENT="" />
    <EXPORT ORDINAL="3228" NAME="?ReleasePtr@?$AutoCleanup@V?$AutoRelease@VCreateShellOperation@Client@WSMan@@@@PAVCreateShellOperation@Client@WSMan@@@@AAEXXZ" PURGE="0" COMMENT="" />
    <EXPORT ORDINAL="3229" NAME="?ReleasePtr@?$AutoCleanup@V?$AutoRelease@VDeleteShellOperation@Client@WSMan@@@@PAVDeleteShellOperation@Client@WSMan@@@@AAEXXZ" PURGE="0" COMMENT="" />
    <EXPORT ORDINAL="3230" NAME="?ReleasePtr@?$AutoCleanup@V?$AutoRelease@VDisconnectOperation@Client@WSMan@@@@PAVDisconnectOperation@Client@WSMan@@@@AAEXXZ" PURGE="0" COMMENT="" />
    <EXPORT ORDINAL="3231" NAME="?ReleasePtr@?$AutoCleanup@V?$AutoRelease@VEnumSinkEx@@@@PAVEnumSinkEx@@@@AAEXXZ" PURGE="0" COMMENT="" />
    <EXPORT ORDINAL="3232" NAME="?ReleasePtr@?$AutoCleanup@V?$AutoRelease@VGeneralSinkEx@@@@PAVGeneralSinkEx@@@@AAEXXZ" PURGE="0" COMMENT="" />
    <EXPORT ORDINAL="3233" NAME="?ReleasePtr@?$AutoCleanup@V?$AutoRelease@VHostMappingTable@@@@PAVHostMappingTable@@@@AAEXXZ" PURGE="0" COMMENT="" />
    <EXPORT ORDINAL="3234" NAME="?ReleasePtr@?$AutoCleanup@V?$AutoRelease@VIISConfigSettings@@@@PAVIISConfigSettings@@@@AAEXXZ" PURGE="0" COMMENT="" />
    <EXPORT ORDINAL="3235" NAME="?ReleasePtr@?$AutoCleanup@V?$AutoRelease@VIPCSoapProcessor@@@@PAVIPCSoapProcessor@@@@AAEXXZ" PURGE="0" COMMENT="" />
    <EXPORT ORDINAL="3236" NAME="?ReleasePtr@?$AutoCleanup@V?$AutoRelease@VIRequestContext@@@@PAVIRequestContext@@@@AAEXXZ" PURGE="0" COMMENT="" />
    <EXPORT ORDINAL="3237" NAME="?ReleasePtr@?$AutoCleanup@V?$AutoRelease@VISubscription@@@@PAVISubscription@@@@AAEXXZ" PURGE="0" COMMENT="" />
    <EXPORT ORDINAL="3238" NAME="?ReleasePtr@?$AutoCleanup@V?$AutoRelease@VInboundRequestDetails@@@@PAVInboundRequestDetails@@@@AAEXXZ" PURGE="0" COMMENT="" />
    <EXPORT ORDINAL="3239" NAME="?ReleasePtr@?$AutoCleanup@V?$AutoRelease@VProxyManager@Client@WSMan@@@@PAVProxyManager@Client@WSMan@@@@AAEXXZ" PURGE="0" COMMENT="" />
    <EXPORT ORDINAL="3240" NAME="?ReleasePtr@?$AutoCleanup@V?$AutoRelease@VProxySelection@Client@WSMan@@@@PAVProxySelection@Client@WSMan@@@@AAEXXZ" PURGE="0" COMMENT="" />
    <EXPORT ORDINAL="3241" NAME="?ReleasePtr@?$AutoCleanup@V?$AutoRelease@VPushSubscribeOperation@@@@PAVPushSubscribeOperation@@@@AAEXXZ" PURGE="0" COMMENT="" />
    <EXPORT ORDINAL="3242" NAME="?ReleasePtr@?$AutoCleanup@V?$AutoRelease@VPushSubscription@@@@PAVPushSubscription@@@@AAEXXZ" PURGE="0" COMMENT="" />
    <EXPORT ORDINAL="3243" NAME="?ReleasePtr@?$AutoCleanup@V?$AutoRelease@VReceiveOperation@Client@WSMan@@@@PAVReceiveOperation@Client@WSMan@@@@AAEXXZ" PURGE="0" COMMENT="" />
    <EXPORT ORDINAL="3244" NAME="?ReleasePtr@?$AutoCleanup@V?$AutoRelease@VReconnectOperation@Client@WSMan@@@@PAVReconnectOperation@Client@WSMan@@@@AAEXXZ" PURGE="0" COMMENT="" />
    <EXPORT ORDINAL="3245" NAME="?ReleasePtr@?$AutoCleanup@V?$AutoRelease@VSendOperation@Client@WSMan@@@@PAVSendOperation@Client@WSMan@@@@AAEXXZ" PURGE="0" COMMENT="" />
    <EXPORT ORDINAL="3246" NAME="?ReleasePtr@?$AutoCleanup@V?$AutoRelease@VShell@Client@WSMan@@@@PAVShell@Client@WSMan@@@@AAEXXZ" PURGE="0" COMMENT="" />
    <EXPORT ORDINAL="3247" NAME="?ReleasePtr@?$AutoCleanup@V?$AutoRelease@VShellInfo@@@@PAVShellInfo@@@@AAEXXZ" PURGE="0" COMMENT="" />
    <EXPORT ORDINAL="3248" NAME="?ReleasePtr@?$AutoCleanup@V?$AutoRelease@VSignalOperation@Client@WSMan@@@@PAVSignalOperation@Client@WSMan@@@@AAEXXZ" PURGE="0" COMMENT="" />
    <EXPORT ORDINAL="3249" NAME="?ReleasePtr@?$AutoCleanup@V?$AutoRelease@VUserRecord@@@@PAVUserRecord@@@@AAEXXZ" PURGE="0" COMMENT="" />
    <EXPORT ORDINAL="3250" NAME="?ReleasePtr@?$AutoCleanup@V?$AutoRelease@VWSManHttpListener@@@@PAVWSManHttpListener@@@@AAEXXZ" PURGE="0" COMMENT="" />
    <EXPORT ORDINAL="3251" NAME="?ReleasePtr@?$AutoCleanup@V?$AutoReleaseEx@VHostMappingTableEntry@@@@PAVHostMappingTableEntry@@@@AAEXXZ" PURGE="0" COMMENT="" />
    <EXPORT ORDINAL="3252" NAME="?ReleasePtr@?$AutoCleanup@V?$AutoReleaseEx@VShell@Client@WSMan@@@@PAVShell@Client@WSMan@@@@AAEXXZ" PURGE="0" COMMENT="" />
    <EXPORT ORDINAL="3253" NAME="?ReleasePtr@?$AutoCleanup@VAutoBstr@@PAG@@AAEXXZ" PURGE="0" COMMENT="" />
    <EXPORT ORDINAL="3254" NAME="?ReleasePtr@?$AutoCleanup@VAutoBstrNoAlloc@@PAG@@AAEXXZ" PURGE="0" COMMENT="" />
    <EXPORT ORDINAL="3255" NAME="?ReleasePtr@?$AutoCleanup@VAutoCertContext@@PBU_CERT_CONTEXT@@@@AAEXXZ" PURGE="0" COMMENT="" />
    <EXPORT ORDINAL="3256" NAME="?ReleasePtr@?$AutoCleanup@VAutoChainContext@@PBU_CERT_CHAIN_CONTEXT@@@@AAEXXZ" PURGE="0" COMMENT="" />
    <EXPORT ORDINAL="3257" NAME="?ReleasePtr@?$AutoCleanup@VAutoCoTaskMemFree@@PAX@@AAEXXZ" PURGE="0" COMMENT="" />
    <EXPORT ORDINAL="3258" NAME="?ReleasePtr@?$AutoCleanup@VAutoFwXmlCloseParser@@PAX@@AAEXXZ" PURGE="0" COMMENT="" />
    <EXPORT ORDINAL="3259" NAME="?ReleasePtr@?$AutoCleanup@VAutoHandle@@PAX@@AAEXXZ" PURGE="0" COMMENT="" />
    <EXPORT ORDINAL="3260" NAME="?ReleasePtr@?$AutoCleanup@VAutoImpersonateUser@@PAX@@AAEXXZ" PURGE="0" COMMENT="" />
    <EXPORT ORDINAL="3261" NAME="?ReleasePtr@?$AutoCleanup@VAutoLibrary@@PAUHINSTANCE__@@@@AAEXXZ" PURGE="0" COMMENT="" />
    <EXPORT ORDINAL="3262" NAME="?ReleasePtr@?$AutoCleanup@VAutoLocalFree@@PAX@@AAEXXZ" PURGE="0" COMMENT="" />
    <EXPORT ORDINAL="3263" NAME="?ReleasePtr@?$AutoCleanup@VAutoMIClass@@PAU_MI_Class@@@@AAEXXZ" PURGE="0" COMMENT="" />
    <EXPORT ORDINAL="3264" NAME="?ReleasePtr@?$AutoCleanup@VAutoMIInstance@@PAU_MI_Instance@@@@AAEXXZ" PURGE="0" COMMENT="" />
    <EXPORT ORDINAL="3265" NAME="?ReleasePtr@?$AutoCleanup@VAutoObject@@PAUWSMAN_OBJECT@@@@AAEXXZ" PURGE="0" COMMENT="" />
    <EXPORT ORDINAL="3266" NAME="?ReleasePtr@?$AutoCleanup@VAutoRegKey@@PAUHKEY__@@@@AAEXXZ" PURGE="0" COMMENT="" />
    <EXPORT ORDINAL="3267" NAME="?ReleasePtr@?$AutoCleanup@VAutoSecurityDescriptor@@PAX@@AAEXXZ" PURGE="0" COMMENT="" />
    <EXPORT ORDINAL="3268" NAME="?ReleasePtr@?$AutoCleanup@VAutoWaitHandle@@PAX@@AAEXXZ" PURGE="0" COMMENT="" />
    <EXPORT ORDINAL="3269" NAME="?ReleaseQuota@UserRecord@@QAEXW4OperationType@@PBVProvider@Catalog@@@Z" PURGE="8" COMMENT="" />
    <EXPORT ORDINAL="3270" NAME="?ReleaseShared@FastLock@@QAEXXZ" PURGE="0" COMMENT="" />
    <EXPORT ORDINAL="3271" NAME="?Remove@?$SafeMap@PAVCListenerOperation@@UEmpty@@V?$SafeSet_Iterator@PAVCListenerOperation@@@@@@QAE_NABQAVCListenerOperation@@@Z" PURGE="4" COMMENT="" />
    <EXPORT ORDINAL="3272" NAME="?Remove@?$SafeMap@UUserKey@@PAVBlockedRecord@@V?$SafeMap_Iterator@UUserKey@@PAVBlockedRecord@@@@@@QAE_NABUUserKey@@@Z" PURGE="4" COMMENT="" />
    <EXPORT ORDINAL="3273" NAME="?Remove@?$SafeMap@VStringKeyCI@@KV?$SafeMap_Iterator@VStringKeyCI@@K@@@@QAE_NABVStringKeyCI@@@Z" PURGE="4" COMMENT="" />
    <EXPORT ORDINAL="3274" NAME="?Remove@?$SafeMap@VStringKeyCI@@UUSER_CONTEXT_INFO@WSManHttpListener@@V?$SafeMap_Iterator@VStringKeyCI@@UUSER_CONTEXT_INFO@WSManHttpListener@@@@@@QAE_NABVStringKeyCI@@@Z" PURGE="4" COMMENT="" />
    <EXPORT ORDINAL="3275" NAME="?Remove@?$SafeMap@VStringKeyStore@@PAVExpiredOperationIdRecord@@V?$SafeMap_Iterator@VStringKeyStore@@PAVExpiredOperationIdRecord@@@@@@QAE_NABVStringKeyStore@@@Z" PURGE="4" COMMENT="" />
    <EXPORT ORDINAL="3276" NAME="?Remove@?$SafeMap@VStringKeyStore@@PAVServerFullDuplexChannel@@V?$SafeMap_Iterator@VStringKeyStore@@PAVServerFullDuplexChannel@@@@@@QAE_NABVStringKeyStore@@@Z" PURGE="4" COMMENT="" />
    <EXPORT ORDINAL="3277" NAME="?Remove@?$SafeMap@_KPAVSendPacketArgs@RobustConnectionBuffer@@V?$SafeMap_Iterator@_KPAVSendPacketArgs@RobustConnectionBuffer@@@@@@QAE_NAB_K@Z" PURGE="4" COMMENT="" />
    <EXPORT ORDINAL="3278" NAME="?RemoveAll@CBaseConfigCache@@KGXPAVFastLock@@AAV?$AutoRelease@VCConfigCacheMap@CBaseConfigCache@@@@@Z" PURGE="8" COMMENT="" />
    <EXPORT ORDINAL="3279" NAME="?RemoveFromMap@CBaseConfigCache@@AAEHXZ" PURGE="0" COMMENT="" />
    <EXPORT ORDINAL="3280" NAME="RemoveHttpsBinding" PURGE="4" COMMENT="" />
    <EXPORT ORDINAL="3281" NAME="RemoveHttpsCertificate" PURGE="8" COMMENT="" />
    <EXPORT ORDINAL="3282" NAME="?RemoveObserver@CServiceConfigCache@@AAEHPAVIServiceConfigObserver@@@Z" PURGE="4" COMMENT="" />
    <EXPORT ORDINAL="3283" NAME="RemovePluginXmlNewAttrForThresholdOrGreater" PURGE="4" COMMENT="" />
    <EXPORT ORDINAL="3284" NAME="?ReportEventW@EventLog@@SGXGKGPAPBG@Z" PURGE="16" COMMENT="" />
    <EXPORT ORDINAL="3285" NAME="?Reset@?$PacketElement@K@PacketParser@@QAEX_N@Z" PURGE="4" COMMENT="" />
    <EXPORT ORDINAL="3286" NAME="?Reset@?$PacketElement@PAU_FWXML_ELEMENT@@@PacketParser@@QAEX_N@Z" PURGE="4" COMMENT="" />
    <EXPORT ORDINAL="3287" NAME="?Reset@?$PacketElement@PBG@PacketParser@@QAEX_N@Z" PURGE="4" COMMENT="" />
    <EXPORT ORDINAL="3288" NAME="?Reset@?$PacketElement@_K@PacketParser@@QAEX_N@Z" PURGE="4" COMMENT="" />
    <EXPORT ORDINAL="3289" NAME="?Reset@?$SafeMap_Iterator@PAVCCertMapping@@UEmpty@@@@QAEXXZ" PURGE="0" COMMENT="" />
    <EXPORT ORDINAL="3290" NAME="?Reset@?$SafeMap_Iterator@PAVCListenerOperation@@UEmpty@@@@QAEXXZ" PURGE="0" COMMENT="" />
    <EXPORT ORDINAL="3291" NAME="?Reset@?$SafeMap_Iterator@PAVCShellUriSettings@@UEmpty@@@@QAEXXZ" PURGE="0" COMMENT="" />
    <EXPORT ORDINAL="3292" NAME="?Reset@?$SafeMap_Iterator@PAXUEmpty@@@@QAEXXZ" PURGE="0" COMMENT="" />
    <EXPORT ORDINAL="3293" NAME="?Reset@?$SafeMap_Iterator@UPluginKey@@K@@QAEXXZ" PURGE="0" COMMENT="" />
    <EXPORT ORDINAL="3294" NAME="?Reset@?$SafeMap_Iterator@UUserKey@@PAVBlockedRecord@@@@QAEXXZ" PURGE="0" COMMENT="" />
    <EXPORT ORDINAL="3295" NAME="?Reset@?$SafeMap_Iterator@VCertThumbprintKey@@VCertThumbprintMappedSet@CServiceConfigSettings@@@@QAEXXZ" PURGE="0" COMMENT="" />
    <EXPORT ORDINAL="3296" NAME="?Reset@?$SafeMap_Iterator@VKey@Locale@@K@@QAEXXZ" PURGE="0" COMMENT="" />
    <EXPORT ORDINAL="3297" NAME="?Reset@?$SafeMap_Iterator@VStringKeyCI@@K@@QAEXXZ" PURGE="0" COMMENT="" />
    <EXPORT ORDINAL="3298" NAME="?Reset@?$SafeMap_Iterator@VStringKeyCI@@UUSER_CONTEXT_INFO@WSManHttpListener@@@@QAEXXZ" PURGE="0" COMMENT="" />
    <EXPORT ORDINAL="3299" NAME="?Reset@?$SafeMap_Iterator@VStringKeyStore@@PAVExpiredOperationIdRecord@@@@QAEXXZ" PURGE="0" COMMENT="" />
    <EXPORT ORDINAL="3300" NAME="?Reset@?$SafeMap_Iterator@VStringKeyStore@@PAVServerFullDuplexChannel@@@@QAEXXZ" PURGE="0" COMMENT="" />
    <EXPORT ORDINAL="3301" NAME="?Reset@?$SafeMap_Iterator@W4WSManSessionOption@@PAVOptionValue@SessionOptions@Client@WSMan@@@@QAEXXZ" PURGE="0" COMMENT="" />
    <EXPORT ORDINAL="3302" NAME="?Reset@?$SafeMap_Iterator@_KPAVSendPacketArgs@RobustConnectionBuffer@@@@QAEXXZ" PURGE="0" COMMENT="" />
    <EXPORT ORDINAL="3303" NAME="?Reset@BufferFormatter@@UAEXXZ" PURGE="0" COMMENT="" />
    <EXPORT ORDINAL="3304" NAME="?Reset@CErrorContext@@UAEXH@Z" PURGE="4" COMMENT="" />
    <EXPORT ORDINAL="3305" NAME="?Reset@CRequestContext@@UAEXH@Z" PURGE="4" COMMENT="" />
    <EXPORT ORDINAL="3306" NAME="?Reset@CircularBufferFormatter@@UAEXXZ" PURGE="0" COMMENT="" />
    <EXPORT ORDINAL="3307" NAME="?Reset@Locale@@QAEXXZ" PURGE="0" COMMENT="" />
    <EXPORT ORDINAL="3308" NAME="?Reset@TSTRBUFFER@@QAEXXZ" PURGE="0" COMMENT="" />
    <EXPORT ORDINAL="3309" NAME="?Reset@UserRecord@@QAEXXZ" PURGE="0" COMMENT="" />
    <EXPORT ORDINAL="3310" NAME="?ResetProfileCount@UserRecord@@QAEXXZ" PURGE="0" COMMENT="" />
    <EXPORT ORDINAL="3311" NAME="?ResetRobustConnectionHeaders@PacketParser@@AAEXXZ" PURGE="0" COMMENT="" />
    <EXPORT ORDINAL="3312" NAME="?Resize@RBUFFER@@QAEHI@Z" PURGE="4" COMMENT="" />
    <EXPORT ORDINAL="3313" NAME="?Resize@RBUFFER@@QAEHII@Z" PURGE="8" COMMENT="" />
    <EXPORT ORDINAL="3314" NAME="?ResizeOptionList@CWSManResourceNoResourceUri@@IAE_NIAAVIRequestContext@@@Z" PURGE="8" COMMENT="" />
    <EXPORT ORDINAL="3315" NAME="RestoreAllPrivileges" PURGE="4" COMMENT="" />
    <EXPORT ORDINAL="3316" NAME="?RetrieveCertMappingIdentity@CConfigManager@@AAEHPAUHKEY__@@PAVCERTMAPPING_IDENTITY@@@Z" PURGE="8" COMMENT="" />
    <EXPORT ORDINAL="3317" NAME="?RetrieveListenerIdentity@CConfigManager@@AAEHPAUHKEY__@@PAGPAPAGPAVLISTENER_IDENTITY@@@Z" PURGE="16" COMMENT="" />
    <EXPORT ORDINAL="3318" NAME="?RetrieveShellUriIdentity@CConfigManager@@AAEHPAUHKEY__@@PAVSHELLURI_IDENTITY@@@Z" PURGE="8" COMMENT="" />
    <EXPORT ORDINAL="3319" NAME="?RetrieveTableIdentity@CConfigManager@@AAEHPAUHKEY__@@PAVWSMANCONFIGTABLE_IDENTITY@@@Z" PURGE="8" COMMENT="" />
    <EXPORT ORDINAL="3320" NAME="?RevertToSelf@CSecurity@@SGHXZ" PURGE="0" COMMENT="" />
    <EXPORT ORDINAL="3321" NAME="?RtlSecureZeroMemory@XmlReader@@QAEXXZ" PURGE="0" COMMENT="" />
    <EXPORT ORDINAL="3322" NAME="SafeStringToUI64" PURGE="24" COMMENT="" />
    <EXPORT ORDINAL="3323" NAME="?SetBOM@PacketFormatter@@QAE_NPAVPacket@@@Z" PURGE="4" COMMENT="" />
    <EXPORT ORDINAL="3324" NAME="?SetBOM@PacketFormatter@@QAE_NPBEK@Z" PURGE="8" COMMENT="" />
    <EXPORT ORDINAL="3325" NAME="?SetCIM_Error@CErrorContext@@UAEXXZ" PURGE="0" COMMENT="" />
    <EXPORT ORDINAL="3326" NAME="?SetCIM_Error@CRequestContext@@UAEXXZ" PURGE="0" COMMENT="" />
    <EXPORT ORDINAL="3327" NAME="?SetCharset@PacketFormatter@@QAEXW4Charset@1@@Z" PURGE="4" COMMENT="" />
    <EXPORT ORDINAL="3328" NAME="?SetCharset@PacketFormatter@@QAE_NPBDK_NPA_N@Z" PURGE="16" COMMENT="" />
    <EXPORT ORDINAL="3329" NAME="?SetCharsetAndBom@PacketFormatter@@QAEXW4Charset@1@0@Z" PURGE="8" COMMENT="" />
    <EXPORT ORDINAL="3330" NAME="?SetConfigToUseDefaults@CErrorContext@@UAEXH@Z" PURGE="4" COMMENT="" />
    <EXPORT ORDINAL="3331" NAME="?SetErrorAction@ExtendedSemantic@@QAEXW4_MI_OperationCallback_ResponseType@@W4_MI_CallbackMode@@@Z" PURGE="8" COMMENT="" />
    <EXPORT ORDINAL="3332" NAME="?SetErrorState@CBaseConfigCache@@AAEXPAVCRequestContext@@K@Z" PURGE="8" COMMENT="" />
    <EXPORT ORDINAL="3333" NAME="?SetExactCharSize@TSTRBUFFER@@QAEJI@Z" PURGE="4" COMMENT="" />
    <EXPORT ORDINAL="3334" NAME="?SetExtendedErrorString@CErrorContext@@UAEXPAG@Z" PURGE="4" COMMENT="" />
    <EXPORT ORDINAL="3335" NAME="?SetExtendedErrorString@CRequestContext@@UAEXPAG@Z" PURGE="4" COMMENT="" />
    <EXPORT ORDINAL="3336" NAME="?SetExtraLogInfo@CErrorContext@@QAEXPBG000@Z" PURGE="16" COMMENT="" />
    <EXPORT ORDINAL="3337" NAME="?SetFault@CErrorContext@@UAEXKKKPBG@Z" PURGE="16" COMMENT="" />
    <EXPORT ORDINAL="3338" NAME="?SetFault@CRequestContext@@EAEXKKKPBG@Z" PURGE="16" COMMENT="" />
    <EXPORT ORDINAL="3339" NAME="?SetFinishValue@ConfigRegistry@@IAEHPAVIRequestContext@@@Z" PURGE="4" COMMENT="" />
    <EXPORT ORDINAL="3340" NAME="?SetFormatterMode@BufferFormatter@@QAEXW4Charset@PacketFormatter@@0@Z" PURGE="8" COMMENT="" />
    <EXPORT ORDINAL="3341" NAME="?SetFragmentDialect@CWSManResourceNoResourceUri@@QAEHPBGPAVIRequestContext@@@Z" PURGE="8" COMMENT="" />
    <EXPORT ORDINAL="3342" NAME="?SetFragmentPath@CWSManResourceNoResourceUri@@QAEHPBGPAVIRequestContext@@@Z" PURGE="8" COMMENT="" />
    <EXPORT ORDINAL="3343" NAME="?SetGeneratingError@CErrorContext@@UAEXXZ" PURGE="0" COMMENT="" />
    <EXPORT ORDINAL="3344" NAME="?SetLocale@CRequestContext@@QAE_NPBGK@Z" PURGE="8" COMMENT="" />
    <EXPORT ORDINAL="3345" NAME="?SetLocale@Locale@@QAE_NKPBGPAVIRequestContext@@@Z" PURGE="12" COMMENT="" />
    <EXPORT ORDINAL="3346" NAME="?SetMachineName@CRequestContext@@QAEKPBG@Z" PURGE="4" COMMENT="" />
    <EXPORT ORDINAL="3347" NAME="?SetMachineName@CRequestContext@@QAEKPBGI@Z" PURGE="8" COMMENT="" />
    <EXPORT ORDINAL="3348" NAME="?SetMachineName@CRequestContext@@QAEKXZ" PURGE="0" COMMENT="" />
    <EXPORT ORDINAL="3349" NAME="?SetMaxEnvelopeSize@CircularBufferFormatter@@QAEXK@Z" PURGE="4" COMMENT="" />
    <EXPORT ORDINAL="3350" NAME="?SetOptionsMustUnderstandValue@CWSManResourceNoResourceUri@@QAEXH@Z" PURGE="4" COMMENT="" />
    <EXPORT ORDINAL="3351" NAME="?SetProfileHandle@UserRecord@@QAEX_J@Z" PURGE="8" COMMENT="" />
    <EXPORT ORDINAL="3352" NAME="?SetProviderFailure@CErrorContext@@UAEXH@Z" PURGE="4" COMMENT="" />
    <EXPORT ORDINAL="3353" NAME="?SetSecurity@CWSManSecurityUI@@UAGJKPAX@Z" PURGE="12" COMMENT="" />
    <EXPORT ORDINAL="3354" NAME="?SetSize@TSTRBUFFER@@QAEJII@Z" PURGE="8" COMMENT="" />
    <EXPORT ORDINAL="3355" NAME="?SetSizeInUse@SBUFFER@@QAEXI@Z" PURGE="4" COMMENT="" />
    <EXPORT ORDINAL="3356" NAME="?SetThreadUILanguage@Locale@@QAE_NPAVIRequestContext@@@Z" PURGE="4" COMMENT="" />
    <EXPORT ORDINAL="3357" NAME="?SetUpdateMode@BufferFormatter@@UAEXW4Mode@1@@Z" PURGE="4" COMMENT="" />
    <EXPORT ORDINAL="3358" NAME="?SetUpdateMode@CircularBufferFormatter@@UAEXW4Mode@BufferFormatter@@@Z" PURGE="4" COMMENT="" />
    <EXPORT ORDINAL="3359" NAME="?SetUri@CWSManResource@@QAEHPBGPAVIRequestContext@@@Z" PURGE="8" COMMENT="" />
    <EXPORT ORDINAL="3360" NAME="?SetValid@RBUFFER@@IAEXH@Z" PURGE="4" COMMENT="" />
    <EXPORT ORDINAL="3361" NAME="?SetXml@ReferenceParameters@PacketParser@@AAEKAAVBufferFormatter@@PAU_FWXML_ELEMENT@@@Z" PURGE="8" COMMENT="" />
    <EXPORT ORDINAL="3362" NAME="?Shutdown@CBaseConfigCache@@IAEXXZ" PURGE="0" COMMENT="" />
    <EXPORT ORDINAL="3363" NAME="?Shutdown@CConfigManager@@SGHXZ" PURGE="0" COMMENT="" />
    <EXPORT ORDINAL="3364" NAME="?Shutdown@CWSManGroupPolicyManager@@SGHXZ" PURGE="0" COMMENT="" />
    <EXPORT ORDINAL="3365" NAME="?Shutdown@ChildLifeTimeManager@@QAEXXZ" PURGE="0" COMMENT="" />
    <EXPORT ORDINAL="3366" NAME="?ShutdownLocaleMap@Locale@@SGXXZ" PURGE="0" COMMENT="" />
    <EXPORT ORDINAL="3367" NAME="?Size@?$SafeMap@PAVCListenerOperation@@UEmpty@@V?$SafeSet_Iterator@PAVCListenerOperation@@@@@@QBEHXZ" PURGE="0" COMMENT="" />
    <EXPORT ORDINAL="3368" NAME="?Size@?$SafeMap@UUserKey@@PAVBlockedRecord@@V?$SafeMap_Iterator@UUserKey@@PAVBlockedRecord@@@@@@QBEHXZ" PURGE="0" COMMENT="" />
    <EXPORT ORDINAL="3369" NAME="?Size@?$SafeMap@VCertThumbprintKey@@VCertThumbprintMappedSet@CServiceConfigSettings@@V?$SafeMap_Iterator@VCertThumbprintKey@@VCertThumbprintMappedSet@CServiceConfigSettings@@@@@@QBEHXZ" PURGE="0" COMMENT="" />
    <EXPORT ORDINAL="3370" NAME="?Size@?$SafeMap@VStringKeyCI@@KV?$SafeMap_Iterator@VStringKeyCI@@K@@@@QBEHXZ" PURGE="0" COMMENT="" />
    <EXPORT ORDINAL="3371" NAME="?Size@?$SafeMap@VStringKeyCI@@UEmpty@@V?$SafeSet_Iterator@VStringKeyCI@@@@@@QBEHXZ" PURGE="0" COMMENT="" />
    <EXPORT ORDINAL="3372" NAME="?Size@?$SafeMap@VStringKeyStore@@PAVExpiredOperationIdRecord@@V?$SafeMap_Iterator@VStringKeyStore@@PAVExpiredOperationIdRecord@@@@@@QBEHXZ" PURGE="0" COMMENT="" />
    <EXPORT ORDINAL="3373" NAME="?SkipOrphans@?$SafeMap_Iterator@PAVCCertMapping@@UEmpty@@@@IAEXXZ" PURGE="0" COMMENT="" />
    <EXPORT ORDINAL="3374" NAME="?SkipOrphans@?$SafeMap_Iterator@PAVCListenerOperation@@UEmpty@@@@IAEXXZ" PURGE="0" COMMENT="" />
    <EXPORT ORDINAL="3375" NAME="?SkipOrphans@?$SafeMap_Iterator@PAVCShellUriSettings@@UEmpty@@@@IAEXXZ" PURGE="0" COMMENT="" />
    <EXPORT ORDINAL="3376" NAME="?SkipOrphans@?$SafeMap_Iterator@PAXUEmpty@@@@IAEXXZ" PURGE="0" COMMENT="" />
    <EXPORT ORDINAL="3377" NAME="?SkipOrphans@?$SafeMap_Iterator@UPluginKey@@K@@IAEXXZ" PURGE="0" COMMENT="" />
    <EXPORT ORDINAL="3378" NAME="?SkipOrphans@?$SafeMap_Iterator@UUserKey@@PAVBlockedRecord@@@@IAEXXZ" PURGE="0" COMMENT="" />
    <EXPORT ORDINAL="3379" NAME="?SkipOrphans@?$SafeMap_Iterator@VCertThumbprintKey@@VCertThumbprintMappedSet@CServiceConfigSettings@@@@IAEXXZ" PURGE="0" COMMENT="" />
    <EXPORT ORDINAL="3380" NAME="?SkipOrphans@?$SafeMap_Iterator@VKey@Locale@@K@@IAEXXZ" PURGE="0" COMMENT="" />
    <EXPORT ORDINAL="3381" NAME="?SkipOrphans@?$SafeMap_Iterator@VStringKeyCI@@K@@IAEXXZ" PURGE="0" COMMENT="" />
    <EXPORT ORDINAL="3382" NAME="?SkipOrphans@?$SafeMap_Iterator@VStringKeyCI@@UUSER_CONTEXT_INFO@WSManHttpListener@@@@IAEXXZ" PURGE="0" COMMENT="" />
    <EXPORT ORDINAL="3383" NAME="?SkipOrphans@?$SafeMap_Iterator@VStringKeyStore@@PAVExpiredOperationIdRecord@@@@IAEXXZ" PURGE="0" COMMENT="" />
    <EXPORT ORDINAL="3384" NAME="?SkipOrphans@?$SafeMap_Iterator@VStringKeyStore@@PAVServerFullDuplexChannel@@@@IAEXXZ" PURGE="0" COMMENT="" />
    <EXPORT ORDINAL="3385" NAME="?SkipOrphans@?$SafeMap_Iterator@W4WSManSessionOption@@PAVOptionValue@SessionOptions@Client@WSMan@@@@IAEXXZ" PURGE="0" COMMENT="" />
    <EXPORT ORDINAL="3386" NAME="?SkipOrphans@?$SafeMap_Iterator@_KPAVSendPacketArgs@RobustConnectionBuffer@@@@IAEXXZ" PURGE="0" COMMENT="" />
