<?xml version="1.0" encoding="UTF-8"?>
<LIBRARY NAME="34tvctrl.dll" PATH="/DLLArchive/etc/34TvCtrl.dll" DATE="Fri Jul 03 12:10:37 PDT 2020" VERSION="1, 5, 0, 0">
    <EXPORT ORDINAL="1" NAME="??0CTvCtrl@@QAE@PAK@Z" PURGE="4" COMMENT="" />
    <EXPORT ORDINAL="2" NAME="??1CTvCtrl@@QAE@XZ" PURGE="0" COMMENT="" />
    <EXPORT ORDINAL="3" NAME="??4CTvCtrl@@QAEAAV0@ABV0@@Z" PURGE="4" COMMENT="" />
    <EXPORT ORDINAL="4" NAME="?ConvertRangesDW@@YGHKKKKKPAK@Z" PURGE="24" COMMENT="" />
    <EXPORT ORDINAL="5" NAME="?ConvertRangesS@@YGHFFFFFPAF@Z" PURGE="24" COMMENT="" />
    <EXPORT ORDINAL="6" NAME="?DetectAntennaChannels@CTvCtrl@@QAEHXZ" PURGE="0" COMMENT="" />
    <EXPORT ORDINAL="7" NAME="?DetectCableChannels@CTvCtrl@@QAEHXZ" PURGE="0" COMMENT="" />
    <EXPORT ORDINAL="8" NAME="?DisableAudioInput@CTvCtrl@@QAEHXZ" PURGE="0" COMMENT="" />
    <EXPORT ORDINAL="9" NAME="?EnableAudioInput@CTvCtrl@@QAEHXZ" PURGE="0" COMMENT="" />
    <EXPORT ORDINAL="10" NAME="?GetAudioTunerFormat@CTvCtrl@@QAEHPAW4AFormat@@@Z" PURGE="4" COMMENT="" />
    <EXPORT ORDINAL="11" NAME="?GetBrightness@CTvCtrl@@QAEHPAFFF@Z" PURGE="12" COMMENT="" />
    <EXPORT ORDINAL="12" NAME="?GetChannel@CTvCtrl@@QAEHPAH@Z" PURGE="4" COMMENT="" />
    <EXPORT ORDINAL="13" NAME="?GetColorDefault@CTvCtrl@@QAEHPAFFFW4eColorControl@@@Z" PURGE="16" COMMENT="" />
    <EXPORT ORDINAL="14" NAME="?GetContrast@CTvCtrl@@QAEHPAFFFH@Z" PURGE="16" COMMENT="" />
    <EXPORT ORDINAL="15" NAME="?GetDeviceIndex@CTvCtrl@@QAEHPAK@Z" PURGE="4" COMMENT="" />
    <EXPORT ORDINAL="16" NAME="?GetHue@CTvCtrl@@QAEHPAFFF@Z" PURGE="12" COMMENT="" />
    <EXPORT ORDINAL="17" NAME="?GetLastInfo@CTvCtrl@@QAE?AULastInfo@@XZ" PURGE="4" COMMENT="" />
    <EXPORT ORDINAL="18" NAME="?GetSaturation@CTvCtrl@@QAEHPAFFFH@Z" PURGE="16" COMMENT="" />
    <EXPORT ORDINAL="19" NAME="?GetSharpness@CTvCtrl@@QAEHPAFFF@Z" PURGE="12" COMMENT="" />
    <EXPORT ORDINAL="20" NAME="?GetSource@CTvCtrl@@QAEHPAW4eVideoSource@@@Z" PURGE="4" COMMENT="" />
    <EXPORT ORDINAL="21" NAME="?GetSourceType@CTvCtrl@@QAEHPAW4eVideoSourceType@@@Z" PURGE="4" COMMENT="" />
    <EXPORT ORDINAL="22" NAME="?GetStandard@CTvCtrl@@QAEHPAW4eVideoStandard@@@Z" PURGE="4" COMMENT="" />
    <EXPORT ORDINAL="23" NAME="?GetTunerSrc@CTvCtrl@@QAEHPAH@Z" PURGE="4" COMMENT="" />
    <EXPORT ORDINAL="24" NAME="?InitAntennaTable@CTvCtrl@@AAEXXZ" PURGE="0" COMMENT="" />
    <EXPORT ORDINAL="25" NAME="?InitCableTable@CTvCtrl@@AAEXXZ" PURGE="0" COMMENT="" />
    <EXPORT ORDINAL="26" NAME="?InitDetectedAntennaTable@CTvCtrl@@AAEXXZ" PURGE="0" COMMENT="" />
    <EXPORT ORDINAL="27" NAME="?InitDetectedCableTable@CTvCtrl@@AAEXXZ" PURGE="0" COMMENT="" />
    <EXPORT ORDINAL="28" NAME="?InitializationSuccesful@CTvCtrl@@QAEHXZ" PURGE="0" COMMENT="" />
    <EXPORT ORDINAL="29" NAME="?IsSpecialTunerAudioFormatSupported@CTvCtrl@@QAEXPAH000@Z" PURGE="16" COMMENT="" />
    <EXPORT ORDINAL="30" NAME="?ReadAntennaFreqTableFromReg@CTvCtrl@@AAEHXZ" PURGE="0" COMMENT="" />
    <EXPORT ORDINAL="31" NAME="?ReadCableFreqTableFromReg@CTvCtrl@@AAEHXZ" PURGE="0" COMMENT="" />
    <EXPORT ORDINAL="32" NAME="?ReadCountryIdentityFromRegistry@CTvCtrl@@AAEHXZ" PURGE="0" COMMENT="" />
    <EXPORT ORDINAL="33" NAME="?ReadDetectedAntennaFreqTableFromReg@CTvCtrl@@AAEHXZ" PURGE="0" COMMENT="" />
    <EXPORT ORDINAL="34" NAME="?ReadDetectedCableFreqTableFromReg@CTvCtrl@@AAEHXZ" PURGE="0" COMMENT="" />
    <EXPORT ORDINAL="35" NAME="?ReadInformations@CTvCtrl@@QAEHXZ" PURGE="0" COMMENT="" />
    <EXPORT ORDINAL="36" NAME="?ReadLastInfoFromReg@CTvCtrl@@AAEHXZ" PURGE="0" COMMENT="" />
    <EXPORT ORDINAL="37" NAME="?ResetLastInfo@CTvCtrl@@AAEXXZ" PURGE="0" COMMENT="" />
    <EXPORT ORDINAL="38" NAME="?SearchCountryID@CTvCtrl@@AAEHXZ" PURGE="0" COMMENT="" />
    <EXPORT ORDINAL="39" NAME="?SetAntenna@CTvCtrl@@QAEHXZ" PURGE="0" COMMENT="" />
    <EXPORT ORDINAL="40" NAME="?SetAudioI2SPath@CTvCtrl@@QAEHW4AInput@@@Z" PURGE="4" COMMENT="" />
    <EXPORT ORDINAL="41" NAME="?SetAudioLoopbackPath@CTvCtrl@@QAEHW4AInput@@@Z" PURGE="4" COMMENT="" />
    <EXPORT ORDINAL="42" NAME="?SetAudioNeededTunerFormatDual@CTvCtrl@@QAEHPAW4AFormat@@@Z" PURGE="4" COMMENT="" />
    <EXPORT ORDINAL="43" NAME="?SetAudioNeededTunerFormatSingle@CTvCtrl@@QAEHPAW4AFormat@@@Z" PURGE="4" COMMENT="" />
    <EXPORT ORDINAL="44" NAME="?SetAudioStreamingPath@CTvCtrl@@QAEHW4AInput@@@Z" PURGE="4" COMMENT="" />
    <EXPORT ORDINAL="45" NAME="?SetAudioTunerFormat@CTvCtrl@@QAEHW4AFormat@@@Z" PURGE="4" COMMENT="" />
    <EXPORT ORDINAL="46" NAME="?SetBrightness@CTvCtrl@@QAEHFFF@Z" PURGE="12" COMMENT="" />
    <EXPORT ORDINAL="47" NAME="?SetCable@CTvCtrl@@QAEHXZ" PURGE="0" COMMENT="" />
    <EXPORT ORDINAL="48" NAME="?SetChannel@CTvCtrl@@QAEHH@Z" PURGE="4" COMMENT="" />
    <EXPORT ORDINAL="49" NAME="?SetChannelTV@CTvCtrl@@AAEHGH@Z" PURGE="8" COMMENT="" />
    <EXPORT ORDINAL="50" NAME="?SetContrast@CTvCtrl@@QAEHFFFH@Z" PURGE="16" COMMENT="" />
    <EXPORT ORDINAL="51" NAME="?SetDetectedChannel@CTvCtrl@@QAEHH@Z" PURGE="4" COMMENT="" />
    <EXPORT ORDINAL="52" NAME="?SetHue@CTvCtrl@@QAEHFFF@Z" PURGE="12" COMMENT="" />
    <EXPORT ORDINAL="53" NAME="?SetSaturation@CTvCtrl@@QAEHFFFH@Z" PURGE="16" COMMENT="" />
    <EXPORT ORDINAL="54" NAME="?SetSharpness@CTvCtrl@@QAEHFFF@Z" PURGE="12" COMMENT="" />
    <EXPORT ORDINAL="55" NAME="?SetSource@CTvCtrl@@QAEHW4eVideoSource@@@Z" PURGE="4" COMMENT="" />
    <EXPORT ORDINAL="56" NAME="?SetSourceType@CTvCtrl@@QAEHW4eVideoSourceType@@@Z" PURGE="4" COMMENT="" />
    <EXPORT ORDINAL="57" NAME="?SetStandard@CTvCtrl@@QAEHW4eVideoStandard@@@Z" PURGE="4" COMMENT="" />
    <EXPORT ORDINAL="58" NAME="?UpdateTuner@CTvCtrl@@AAEHEEEE@Z" PURGE="16" COMMENT="" />
    <EXPORT ORDINAL="59" NAME="?WriteAntennaFreqTableToReg@CTvCtrl@@AAEHXZ" PURGE="0" COMMENT="" />
    <EXPORT ORDINAL="60" NAME="?WriteCableFreqTableToReg@CTvCtrl@@AAEHXZ" PURGE="0" COMMENT="" />
    <EXPORT ORDINAL="61" NAME="?WriteDetectedAntennaFreqTableToReg@CTvCtrl@@AAEHXZ" PURGE="0" COMMENT="" />
    <EXPORT ORDINAL="62" NAME="?WriteDetectedCableFreqTableToReg@CTvCtrl@@AAEHXZ" PURGE="0" COMMENT="" />
    <EXPORT ORDINAL="63" NAME="?WriteInformations@CTvCtrl@@QAEHXZ" PURGE="0" COMMENT="" />
    <EXPORT ORDINAL="64" NAME="?WriteLastInfoToReg@CTvCtrl@@AAEHXZ" PURGE="0" COMMENT="" />
    <EXPORT ORDINAL="65" NAME="GetTVParam" PURGE="0" COMMENT="" />
    <EXPORT ORDINAL="66" NAME="SetTVParam" PURGE="0" COMMENT="" />
</LIBRARY>

