<?xml version="1.0" encoding="UTF-8"?>
<LIBRARY NAME="3dfxcmn.dll" PATH="/DLLArchive/etc/3dfxcmn.dll" DATE="Fri Jul 03 12:10:54 PDT 2020" VERSION="2.1.10.138">
    <EXPORT ORDINAL="1" NAME="DllUnregisterServer" PURGE="0" COMMENT="" />
    <EXPORT ORDINAL="2" NAME="DllRegisterServer" PURGE="0" COMMENT="" />
    <EXPORT ORDINAL="3" NAME="??0CMNDataObject@@QAE@ABV0@@Z" PURGE="4" COMMENT="" />
    <EXPORT ORDINAL="4" NAME="??0CMNDataObject@@QAE@PBG@Z" PURGE="4" COMMENT="" />
    <EXPORT ORDINAL="5" NAME="??4CMNDataObject@@QAEAAV0@ABV0@@Z" PURGE="4" COMMENT="" />
    <EXPORT ORDINAL="6" NAME="??_7CMNDataObject@@6B@" PURGE="-1" COMMENT="" />
    <EXPORT ORDINAL="7" NAME="?AddRef@CMNDataObject@@UAGKXZ" PURGE="4" COMMENT="" />
    <EXPORT ORDINAL="8" NAME="?CMNActionDevices@@YAJPBDK@Z" PURGE="0" COMMENT="" />
    <EXPORT ORDINAL="9" NAME="?CMNActionDevicesWithModeChange@@YAJPBDKH@Z" PURGE="0" COMMENT="" />
    <EXPORT ORDINAL="10" NAME="?CMNChangeColorDepth@@YAJPBDK@Z" PURGE="0" COMMENT="" />
    <EXPORT ORDINAL="11" NAME="?CMNChangeDisplayFrequency@@YAJPBDK@Z" PURGE="0" COMMENT="" />
    <EXPORT ORDINAL="12" NAME="?CMNChangeDisplaySettingsEx@@YAJPBDPAU_devicemodeA@@PAUHWND__@@KPAX@Z" PURGE="0" COMMENT="" />
    <EXPORT ORDINAL="13" NAME="?CMNChangeResolution@@YAJPBDKK@Z" PURGE="0" COMMENT="" />
    <EXPORT ORDINAL="14" NAME="?CMNCheckForEdgeSupport@@YAJK@Z" PURGE="0" COMMENT="" />
    <EXPORT ORDINAL="15" NAME="?CMNCheckForEdgeSupport@@YAJXZ" PURGE="0" COMMENT="" />
    <EXPORT ORDINAL="16" NAME="?CMNCheckForHTMLHelp@@YAHKPAD0@Z" PURGE="0" COMMENT="" />
    <EXPORT ORDINAL="17" NAME="?CMNCheckForHardware@@YAJPBDK@Z" PURGE="0" COMMENT="" />
    <EXPORT ORDINAL="18" NAME="?CMNCheckForSoftware@@YAJPBDABU_GUID@@@Z" PURGE="0" COMMENT="" />
    <EXPORT ORDINAL="19" NAME="?CMNCreateHelpShortcuts@@YAJPAD@Z" PURGE="0" COMMENT="" />
    <EXPORT ORDINAL="20" NAME="?CMNDeleteHelpShortcuts@@YAXPAD@Z" PURGE="0" COMMENT="" />
    <EXPORT ORDINAL="21" NAME="?CMNDisplayHTMLHelp@@YAJPAUHWND__@@PBD@Z" PURGE="0" COMMENT="" />
    <EXPORT ORDINAL="22" NAME="?CMNDisplayHTMLHelpTopic@@YAJPAUHWND__@@PBD1@Z" PURGE="0" COMMENT="" />
    <EXPORT ORDINAL="23" NAME="?CMNDisplayPopupHTMLHelp@@YAJPAUHINSTANCE__@@IPAUHWND__@@UtagPOINT@@@Z" PURGE="0" COMMENT="" />
    <EXPORT ORDINAL="24" NAME="?CMNDisplayPopupHTMLHelp@@YAJPAUHINSTANCE__@@PADPAUHWND__@@UtagPOINT@@@Z" PURGE="0" COMMENT="" />
    <EXPORT ORDINAL="25" NAME="?CMNFormatOnOffBuffer@@YAJPBDKKAAK@Z" PURGE="0" COMMENT="" />
    <EXPORT ORDINAL="26" NAME="?CMNGetDefaultHelpPath@@YAJPAD@Z" PURGE="0" COMMENT="" />
    <EXPORT ORDINAL="27" NAME="?CMNGetDeviceName@@YAJPAUIDataObject@@PAG@Z" PURGE="0" COMMENT="" />
    <EXPORT ORDINAL="28" NAME="?CMNGetInstalledPath@@YAJKPADPAK@Z" PURGE="0" COMMENT="" />
    <EXPORT ORDINAL="29" NAME="?CMNGetStateOfAllDevices@@YAJPBDAAK@Z" PURGE="0" COMMENT="" />
    <EXPORT ORDINAL="30" NAME="?CMNGetStatus@@YAJPBG0PAK@Z" PURGE="0" COMMENT="" />
    <EXPORT ORDINAL="31" NAME="?CMNGetTitleFromResource@@YAJABU_GUID@@PADI@Z" PURGE="0" COMMENT="" />
    <EXPORT ORDINAL="32" NAME="?CMNInformAllPages@@YAJPAUHWND__@@KAAH@Z" PURGE="0" COMMENT="" />
    <EXPORT ORDINAL="33" NAME="?CMNMultipleAdaptersSupported@@YAJPAH@Z" PURGE="0" COMMENT="" />
    <EXPORT ORDINAL="34" NAME="?CMNReActionDevices@@YAJPBDK@Z" PURGE="0" COMMENT="" />
    <EXPORT ORDINAL="35" NAME="?CMNReRegisterTools@@YAJXZ" PURGE="0" COMMENT="" />
    <EXPORT ORDINAL="36" NAME="?CMNRegisterWithSTB@@YAJABU_GUID@@PBGH@Z" PURGE="0" COMMENT="" />
    <EXPORT ORDINAL="37" NAME="?CMNReportError@@YAXJPADJ@Z" PURGE="0" COMMENT="" />
    <EXPORT ORDINAL="38" NAME="?CMNRestoreMode@@YAJPBD@Z" PURGE="0" COMMENT="" />
    <EXPORT ORDINAL="39" NAME="?CMNRestoreTweaksToDefault@@YAJXZ" PURGE="0" COMMENT="" />
    <EXPORT ORDINAL="40" NAME="?CMNSaveMode@@YAJPBD@Z" PURGE="0" COMMENT="" />
    <EXPORT ORDINAL="41" NAME="?CMNUnRegisterWithSTB@@YAJABU_GUID@@PBG@Z" PURGE="0" COMMENT="" />
    <EXPORT ORDINAL="42" NAME="CMNUpdateOnBoot" PURGE="16" COMMENT="" />
    <EXPORT ORDINAL="43" NAME="?DAdvise@CMNDataObject@@UAGJPAUtagFORMATETC@@KPAUIAdviseSink@@PAK@Z" PURGE="20" COMMENT="" />
    <EXPORT ORDINAL="44" NAME="?DUnadvise@CMNDataObject@@UAGJK@Z" PURGE="8" COMMENT="" />
    <EXPORT ORDINAL="45" NAME="?EdgeCreateDC@@YAPAUHDC__@@PBD@Z" PURGE="0" COMMENT="" />
    <EXPORT ORDINAL="46" NAME="?EnumDAdvise@CMNDataObject@@UAGJPAPAUIEnumSTATDATA@@@Z" PURGE="8" COMMENT="" />
    <EXPORT ORDINAL="47" NAME="?EnumFormatEtc@CMNDataObject@@UAGJKPAPAUIEnumFORMATETC@@@Z" PURGE="12" COMMENT="" />
    <EXPORT ORDINAL="48" NAME="?GetCanonicalFormatEtc@CMNDataObject@@UAGJPAUtagFORMATETC@@0@Z" PURGE="12" COMMENT="" />
    <EXPORT ORDINAL="49" NAME="?GetData@CMNDataObject@@UAGJPAUtagFORMATETC@@PAUtagSTGMEDIUM@@@Z" PURGE="12" COMMENT="" />
    <EXPORT ORDINAL="50" NAME="?GetDataHere@CMNDataObject@@UAGJPAUtagFORMATETC@@PAUtagSTGMEDIUM@@@Z" PURGE="12" COMMENT="" />
    <EXPORT ORDINAL="51" NAME="?QueryGetData@CMNDataObject@@UAGJPAUtagFORMATETC@@@Z" PURGE="8" COMMENT="" />
    <EXPORT ORDINAL="52" NAME="?QueryInterface@CMNDataObject@@UAGJABU_GUID@@PAPAX@Z" PURGE="12" COMMENT="" />
    <EXPORT ORDINAL="53" NAME="?Release@CMNDataObject@@UAGKXZ" PURGE="4" COMMENT="" />
    <EXPORT ORDINAL="54" NAME="?SetData@CMNDataObject@@UAGJPAUtagFORMATETC@@PAUtagSTGMEDIUM@@H@Z" PURGE="16" COMMENT="" />
    <EXPORT ORDINAL="55" NAME="?SetString@CMNDataObject@@QAEJPBG@Z" PURGE="4" COMMENT="" />
    <EXPORT ORDINAL="56" NAME="?TimeOutBox@@YAJPAUHWND__@@PAD1I@Z" PURGE="0" COMMENT="" />
</LIBRARY>

