<?xml version="1.0" encoding="UTF-8"?>
<LIBRARY NAME="acdappinfo40.dll" PATH="/DLLArchive/etc/ACDAppInfo40.dll" DATE="Fri Jul 03 12:15:18 PDT 2020" VERSION="4, 0, 0, 37">
    <EXPORT ORDINAL="1" NAME="??0CAppInfoBase3_0@@QAE@ABV0@@Z" PURGE="4" COMMENT="" />
    <EXPORT ORDINAL="2" NAME="??0CAppInfoBase3_0@@QAE@PAVRegistryKey@@@Z" PURGE="4" COMMENT="" />
    <EXPORT ORDINAL="3" NAME="??0CAppInfoBase@@QAE@ABV0@@Z" PURGE="4" COMMENT="" />
    <EXPORT ORDINAL="4" NAME="??0CAppInfoBase@@QAE@PAVRegistryKey@@@Z" PURGE="4" COMMENT="" />
    <EXPORT ORDINAL="5" NAME="??0IAppInfo3_0@@QAE@ABV0@@Z" PURGE="4" COMMENT="" />
    <EXPORT ORDINAL="6" NAME="??0IAppInfo3_0@@QAE@XZ" PURGE="0" COMMENT="" />
    <EXPORT ORDINAL="7" NAME="??0IAppInfo@@QAE@ABV0@@Z" PURGE="4" COMMENT="" />
    <EXPORT ORDINAL="8" NAME="??0IAppInfo@@QAE@XZ" PURGE="0" COMMENT="" />
    <EXPORT ORDINAL="9" NAME="??1CAppInfoBase3_0@@UAE@XZ" PURGE="0" COMMENT="" />
    <EXPORT ORDINAL="10" NAME="??1CAppInfoBase@@UAE@XZ" PURGE="0" COMMENT="" />
    <EXPORT ORDINAL="11" NAME="??4CAppInfoBase3_0@@QAEAAV0@ABV0@@Z" PURGE="4" COMMENT="" />
    <EXPORT ORDINAL="12" NAME="??4CAppInfoBase@@QAEAAV0@ABV0@@Z" PURGE="4" COMMENT="" />
    <EXPORT ORDINAL="13" NAME="??4IAppInfo3_0@@QAEAAV0@ABV0@@Z" PURGE="4" COMMENT="" />
    <EXPORT ORDINAL="14" NAME="??4IAppInfo@@QAEAAV0@ABV0@@Z" PURGE="4" COMMENT="" />
    <EXPORT ORDINAL="15" NAME="??_7CAppInfoBase3_0@@6B@" PURGE="-1" COMMENT="" />
    <EXPORT ORDINAL="16" NAME="??_7CAppInfoBase@@6B@" PURGE="-1" COMMENT="" />
    <EXPORT ORDINAL="17" NAME="??_7IAppInfo3_0@@6B@" PURGE="-1" COMMENT="" />
    <EXPORT ORDINAL="18" NAME="??_7IAppInfo@@6B@" PURGE="-1" COMMENT="" />
    <EXPORT ORDINAL="19" NAME="??_FCAppInfoBase@@QAEXXZ" PURGE="0" COMMENT="" />
    <EXPORT ORDINAL="20" NAME="?ComputeHash@CAppInfoBase3_0@@KAJPBDJ@Z" PURGE="0" COMMENT="" />
    <EXPORT ORDINAL="21" NAME="?ComputeHash@CAppInfoBase@@KAJPBDJ@Z" PURGE="0" COMMENT="" />
    <EXPORT ORDINAL="22" NAME="?DecodeDate@CAppInfoBase3_0@@SAHPBDPAU_FILETIME@@@Z" PURGE="0" COMMENT="" />
    <EXPORT ORDINAL="23" NAME="?DecodeDate@CAppInfoBase@@SAHPBDPAU_FILETIME@@@Z" PURGE="0" COMMENT="" />
    <EXPORT ORDINAL="24" NAME="?DecodeProfileID@CAppInfoBase3_0@@SAHAAV?$CStdStr@D@@@Z" PURGE="0" COMMENT="" />
    <EXPORT ORDINAL="25" NAME="?DecodeProfileID@CAppInfoBase@@SAHAAV?$CStdStr@D@@@Z" PURGE="0" COMMENT="" />
    <EXPORT ORDINAL="26" NAME="?EncodeAndSaveProfileID@CAppInfoBase3_0@@IAE?AW4typAIResult@@PAVRegistryKey@@PBD1@Z" PURGE="12" COMMENT="" />
    <EXPORT ORDINAL="27" NAME="?EncodeAndSaveProfileID@CAppInfoBase@@IAE?AW4typAIResult@@PAVRegistryKey@@PBD1@Z" PURGE="12" COMMENT="" />
    <EXPORT ORDINAL="28" NAME="?GetAppProfileID@CAppInfoBase3_0@@UAE?AW4typAIResult@@PAV?$CStdStr@D@@@Z" PURGE="-1" COMMENT="" />
    <EXPORT ORDINAL="29" NAME="?GetAppProfileID@CAppInfoBase@@UAE?AW4typAIResult@@PAV?$CStdStr@D@@@Z" PURGE="4" COMMENT="" />
    <EXPORT ORDINAL="30" NAME="?GetCompanyID@CAppInfoBase3_0@@UAE?AW4typAIResult@@PAJ@Z" PURGE="4" COMMENT="" />
    <EXPORT ORDINAL="31" NAME="?GetCompanyID@CAppInfoBase@@UAE?AW4typAIResult@@PAJ@Z" PURGE="4" COMMENT="" />
    <EXPORT ORDINAL="32" NAME="?GetCompanyName@CAppInfoBase3_0@@UAE?AW4typAIResult@@PAV?$CStdStr@D@@@Z" PURGE="4" COMMENT="" />
    <EXPORT ORDINAL="33" NAME="?GetCompanyName@CAppInfoBase@@UAE?AW4typAIResult@@PAV?$CStdStr@D@@@Z" PURGE="4" COMMENT="" />
    <EXPORT ORDINAL="34" NAME="?GetInstallDate@CAppInfoBase3_0@@UAE?AW4typAIResult@@PAU_FILETIME@@@Z" PURGE="4" COMMENT="" />
    <EXPORT ORDINAL="35" NAME="?GetInstallDate@CAppInfoBase@@UAE?AW4typAIResult@@PAU_FILETIME@@@Z" PURGE="4" COMMENT="" />
    <EXPORT ORDINAL="36" NAME="?GetLanguage@CAppInfoBase3_0@@UAE?AW4typAIResult@@PAV?$CStdStr@D@@@Z" PURGE="4" COMMENT="" />
    <EXPORT ORDINAL="37" NAME="?GetLanguage@CAppInfoBase@@UAE?AW4typAIResult@@PAV?$CStdStr@D@@@Z" PURGE="4" COMMENT="" />
    <EXPORT ORDINAL="38" NAME="?GetLastErrorCode@CAppInfoBase3_0@@UAEJXZ" PURGE="-1" COMMENT="" />
    <EXPORT ORDINAL="39" NAME="?GetLastErrorCode@CAppInfoBase@@UAEJXZ" PURGE="0" COMMENT="" />
    <EXPORT ORDINAL="40" NAME="?GetLastErrorDesc@CAppInfoBase3_0@@UAEXAAV?$CStdStr@D@@@Z" PURGE="-1" COMMENT="" />
    <EXPORT ORDINAL="41" NAME="?GetLastErrorDesc@CAppInfoBase@@UAEXAAV?$CStdStr@D@@@Z" PURGE="4" COMMENT="" />
    <EXPORT ORDINAL="42" NAME="?GetLastUseDate@CAppInfoBase3_0@@UAE?AW4typAIResult@@PAU_FILETIME@@@Z" PURGE="4" COMMENT="" />
    <EXPORT ORDINAL="43" NAME="?GetLastUseDate@CAppInfoBase@@UAE?AW4typAIResult@@PAU_FILETIME@@@Z" PURGE="4" COMMENT="" />
    <EXPORT ORDINAL="44" NAME="?GetLicenseCode@CAppInfoBase3_0@@UAE?AW4typAIResult@@PAV?$CStdStr@D@@@Z" PURGE="4" COMMENT="" />
    <EXPORT ORDINAL="45" NAME="?GetLicenseCode@CAppInfoBase@@UAE?AW4typAIResult@@PAV?$CStdStr@D@@@Z" PURGE="4" COMMENT="" />
    <EXPORT ORDINAL="46" NAME="?GetNewAppProfileID@CAppInfoBase3_0@@KAHAAV?$CStdStr@D@@@Z" PURGE="0" COMMENT="" />
    <EXPORT ORDINAL="47" NAME="?GetNewAppProfileID@CAppInfoBase@@KAHAAV?$CStdStr@D@@@Z" PURGE="0" COMMENT="" />
    <EXPORT ORDINAL="48" NAME="?GetParentProductID@CAppInfoBase3_0@@UAE?AW4typAIResult@@PAJ@Z" PURGE="4" COMMENT="" />
    <EXPORT ORDINAL="49" NAME="?GetParentProductID@CAppInfoBase@@UAE?AW4typAIResult@@PAJ@Z" PURGE="4" COMMENT="" />
    <EXPORT ORDINAL="50" NAME="?GetParentProductName@CAppInfoBase3_0@@UAE?AW4typAIResult@@PAV?$CStdStr@D@@@Z" PURGE="4" COMMENT="" />
    <EXPORT ORDINAL="51" NAME="?GetParentProductRegPath@CAppInfoBase3_0@@UAE?AW4typAIResult@@PAV?$CStdStr@D@@@Z" PURGE="4" COMMENT="" />
    <EXPORT ORDINAL="52" NAME="?GetProductID@CAppInfoBase3_0@@UAE?AW4typAIResult@@PAJ@Z" PURGE="4" COMMENT="" />
    <EXPORT ORDINAL="53" NAME="?GetProductID@CAppInfoBase@@UAE?AW4typAIResult@@PAJ@Z" PURGE="4" COMMENT="" />
    <EXPORT ORDINAL="54" NAME="?GetProductMode@CAppInfoBase3_0@@UAE?AW4typAIResult@@PAV?$CStdStr@D@@@Z" PURGE="4" COMMENT="" />
    <EXPORT ORDINAL="55" NAME="?GetProductMode@CAppInfoBase@@UAE?AW4typAIResult@@PAV?$CStdStr@D@@@Z" PURGE="4" COMMENT="" />
    <EXPORT ORDINAL="56" NAME="?GetProductName@CAppInfoBase3_0@@UAE?AW4typAIResult@@PAV?$CStdStr@D@@@Z" PURGE="4" COMMENT="" />
    <EXPORT ORDINAL="57" NAME="?GetProductName@CAppInfoBase@@UAE?AW4typAIResult@@PAV?$CStdStr@D@@@Z" PURGE="4" COMMENT="" />
    <EXPORT ORDINAL="58" NAME="?GetProductRegPath@CAppInfoBase3_0@@UAE?AW4typAIResult@@PAV?$CStdStr@D@@@Z" PURGE="4" COMMENT="" />
    <EXPORT ORDINAL="59" NAME="?GetRegKeyAppGUID@CAppInfoBase3_0@@IAEPAVRegistryKey@@XZ" PURGE="0" COMMENT="" />
    <EXPORT ORDINAL="60" NAME="?GetTrialLength@CAppInfoBase3_0@@UAE?AW4typAIResult@@PAJ@Z" PURGE="4" COMMENT="" />
    <EXPORT ORDINAL="61" NAME="?GetTrialMode@CAppInfoBase3_0@@UAE?AW4typAIResult@@PAJ@Z" PURGE="4" COMMENT="" />
    <EXPORT ORDINAL="62" NAME="?GetTrialMode@CAppInfoBase@@UAE?AW4typAIResult@@PAJ@Z" PURGE="4" COMMENT="" />
    <EXPORT ORDINAL="63" NAME="?GetTrialStartDate@CAppInfoBase3_0@@UAE?AW4typAIResult@@PAU_FILETIME@@@Z" PURGE="4" COMMENT="" />
    <EXPORT ORDINAL="64" NAME="?GetTrialStartDate@CAppInfoBase@@UAE?AW4typAIResult@@PAU_FILETIME@@@Z" PURGE="4" COMMENT="" />
    <EXPORT ORDINAL="65" NAME="?GetUsageCount@CAppInfoBase3_0@@UAE?AW4typAIResult@@PAJ@Z" PURGE="4" COMMENT="" />
    <EXPORT ORDINAL="66" NAME="?GetUsageCount@CAppInfoBase@@UAE?AW4typAIResult@@PAJ@Z" PURGE="4" COMMENT="" />
    <EXPORT ORDINAL="67" NAME="?GetUserProfileID@CAppInfoBase3_0@@UAE?AW4typAIResult@@PAV?$CStdStr@D@@@Z" PURGE="-1" COMMENT="" />
    <EXPORT ORDINAL="68" NAME="?GetUserProfileID@CAppInfoBase@@UAE?AW4typAIResult@@PAV?$CStdStr@D@@@Z" PURGE="4" COMMENT="" />
    <EXPORT ORDINAL="69" NAME="?GetVersionInfo@CAppInfoBase3_0@@UAE?AW4typAIResult@@PAPAVCVersionInfo@@@Z" PURGE="4" COMMENT="" />
    <EXPORT ORDINAL="70" NAME="?GetVersionInfo@CAppInfoBase@@UAE?AW4typAIResult@@PAPAVCVersionInfo@@@Z" PURGE="4" COMMENT="" />
    <EXPORT ORDINAL="71" NAME="?ProductQuit@CAppInfoBase3_0@@UAE?AW4typAIResult@@J@Z" PURGE="4" COMMENT="" />
    <EXPORT ORDINAL="72" NAME="?ProductQuit@CAppInfoBase@@UAE?AW4typAIResult@@J@Z" PURGE="4" COMMENT="" />
    <EXPORT ORDINAL="73" NAME="?ReadAndDecodeProfileID@CAppInfoBase3_0@@IAE?AW4typAIResult@@PAVRegistryKey@@PBDAAV?$CStdStr@D@@@Z" PURGE="12" COMMENT="" />
    <EXPORT ORDINAL="74" NAME="?ReadAndDecodeProfileID@CAppInfoBase@@IAE?AW4typAIResult@@PAVRegistryKey@@PBDAAV?$CStdStr@D@@@Z" PURGE="12" COMMENT="" />
    <EXPORT ORDINAL="75" NAME="?SetUserProfileID@CAppInfoBase3_0@@UAE?AW4typAIResult@@PBD@Z" PURGE="-1" COMMENT="" />
    <EXPORT ORDINAL="76" NAME="?SetUserProfileID@CAppInfoBase@@UAE?AW4typAIResult@@PBD@Z" PURGE="4" COMMENT="" />
</LIBRARY>

