<?xml version="1.0" encoding="UTF-8"?>
<LIBRARY NAME="adbwinapi (copy 1).dll" PATH="/DLLArchive/etc/AdbWinApi (copy 1).dll" DATE="Fri Jul 03 12:16:20 PDT 2020" VERSION="2.0.0.0">
    <EXPORT ORDINAL="1" NAME="??0AdbEndpointObject@@QAE@ABV0@@Z" PURGE="4" COMMENT="" />
    <EXPORT ORDINAL="2" NAME="??0AdbEndpointObject@@QAE@PAVAdbInterfaceObject@@EE@Z" PURGE="12" COMMENT="" />
    <EXPORT ORDINAL="3" NAME="??0AdbIOCompletion@@QAE@ABV0@@Z" PURGE="4" COMMENT="" />
    <EXPORT ORDINAL="4" NAME="??0AdbIOCompletion@@QAE@PAVAdbEndpointObject@@KPAX@Z" PURGE="12" COMMENT="" />
    <EXPORT ORDINAL="5" NAME="??0AdbInterfaceObject@@QAE@ABV0@@Z" PURGE="4" COMMENT="" />
    <EXPORT ORDINAL="6" NAME="??0AdbInterfaceObject@@QAE@PBG@Z" PURGE="4" COMMENT="" />
    <EXPORT ORDINAL="7" NAME="??0AdbObjectHandle@@QAE@ABV0@@Z" PURGE="4" COMMENT="" />
    <EXPORT ORDINAL="8" NAME="??0AdbObjectHandle@@QAE@W4AdbObjectType@@@Z" PURGE="4" COMMENT="" />
    <EXPORT ORDINAL="9" NAME="??1AdbEndpointObject@@MAE@XZ" PURGE="0" COMMENT="" />
    <EXPORT ORDINAL="10" NAME="??1AdbIOCompletion@@MAE@XZ" PURGE="0" COMMENT="" />
    <EXPORT ORDINAL="11" NAME="??1AdbInterfaceObject@@MAE@XZ" PURGE="0" COMMENT="" />
    <EXPORT ORDINAL="12" NAME="??1AdbObjectHandle@@MAE@XZ" PURGE="0" COMMENT="" />
    <EXPORT ORDINAL="13" NAME="??4AdbEndpointObject@@QAEAAV0@ABV0@@Z" PURGE="4" COMMENT="" />
    <EXPORT ORDINAL="14" NAME="??4AdbIOCompletion@@QAEAAV0@ABV0@@Z" PURGE="4" COMMENT="" />
    <EXPORT ORDINAL="15" NAME="??4AdbInterfaceObject@@QAEAAV0@ABV0@@Z" PURGE="4" COMMENT="" />
    <EXPORT ORDINAL="16" NAME="??4AdbObjectHandle@@QAEAAV0@ABV0@@Z" PURGE="4" COMMENT="" />
    <EXPORT ORDINAL="17" NAME="??_7AdbEndpointObject@@6B@" PURGE="50371" COMMENT="" />
    <EXPORT ORDINAL="18" NAME="??_7AdbIOCompletion@@6B@" PURGE="50371" COMMENT="" />
    <EXPORT ORDINAL="19" NAME="??_7AdbInterfaceObject@@6B@" PURGE="50371" COMMENT="" />
    <EXPORT ORDINAL="20" NAME="??_7AdbObjectHandle@@6B@" PURGE="50371" COMMENT="" />
    <EXPORT ORDINAL="21" NAME="?AddRef@AdbObjectHandle@@UAEJXZ" PURGE="0" COMMENT="" />
    <EXPORT ORDINAL="22" NAME="?AsyncRead@AdbEndpointObject@@UAEPAXPAXKPAK0K@Z" PURGE="20" COMMENT="" />
    <EXPORT ORDINAL="23" NAME="?AsyncWrite@AdbEndpointObject@@UAEPAXPAXKPAK0K@Z" PURGE="20" COMMENT="" />
    <EXPORT ORDINAL="24" NAME="?CloseHandle@AdbObjectHandle@@UAE_NXZ" PURGE="0" COMMENT="" />
    <EXPORT ORDINAL="25" NAME="?CreateHandle@AdbObjectHandle@@UAEPAXXZ" PURGE="0" COMMENT="" />
    <EXPORT ORDINAL="26" NAME="?GetEndpointInformation@AdbEndpointObject@@UAE_NPAU_AdbEndpointInformation@@@Z" PURGE="4" COMMENT="" />
    <EXPORT ORDINAL="27" NAME="?GetInterfaceName@AdbInterfaceObject@@UAE_NPAXPAK_N@Z" PURGE="12" COMMENT="" />
    <EXPORT ORDINAL="28" NAME="?GetParentInterfaceHandle@AdbEndpointObject@@QBEPAXXZ" PURGE="0" COMMENT="" />
    <EXPORT ORDINAL="29" NAME="?GetParentObjectHandle@AdbIOCompletion@@QBEPAXXZ" PURGE="0" COMMENT="" />
    <EXPORT ORDINAL="30" NAME="?GetUsbConfigurationDescriptor@AdbInterfaceObject@@UAE_NPAU_USB_CONFIGURATION_DESCRIPTOR@@@Z" PURGE="4" COMMENT="" />
    <EXPORT ORDINAL="31" NAME="?GetUsbDeviceDescriptor@AdbInterfaceObject@@UAE_NPAU_USB_DEVICE_DESCRIPTOR@@@Z" PURGE="4" COMMENT="" />
    <EXPORT ORDINAL="32" NAME="?GetUsbInterfaceDescriptor@AdbInterfaceObject@@UAE_NPAU_USB_INTERFACE_DESCRIPTOR@@@Z" PURGE="4" COMMENT="" />
    <EXPORT ORDINAL="33" NAME="?IsCompleted@AdbIOCompletion@@UAE_NXZ" PURGE="0" COMMENT="" />
    <EXPORT ORDINAL="34" NAME="?IsObjectOfType@AdbObjectHandle@@UBE_NW4AdbObjectType@@@Z" PURGE="4" COMMENT="" />
    <EXPORT ORDINAL="35" NAME="?IsOpened@AdbObjectHandle@@QBE_NXZ" PURGE="0" COMMENT="" />
    <EXPORT ORDINAL="36" NAME="?LastReferenceReleased@AdbObjectHandle@@MAEXXZ" PURGE="0" COMMENT="" />
    <EXPORT ORDINAL="37" NAME="?Lookup@AdbObjectHandle@@SGPAV1@PAX@Z" PURGE="4" COMMENT="" />
    <EXPORT ORDINAL="38" NAME="?Release@AdbObjectHandle@@UAEJXZ" PURGE="0" COMMENT="" />
    <EXPORT ORDINAL="39" NAME="?SyncRead@AdbEndpointObject@@UAE_NPAXKPAKK@Z" PURGE="16" COMMENT="" />
    <EXPORT ORDINAL="40" NAME="?SyncWrite@AdbEndpointObject@@UAE_NPAXKPAKK@Z" PURGE="16" COMMENT="" />
    <EXPORT ORDINAL="41" NAME="?Type@AdbEndpointObject@@SG?AW4AdbObjectType@@XZ" PURGE="0" COMMENT="" />
    <EXPORT ORDINAL="42" NAME="?Type@AdbIOCompletion@@SG?AW4AdbObjectType@@XZ" PURGE="0" COMMENT="" />
    <EXPORT ORDINAL="43" NAME="?Type@AdbInterfaceObject@@SG?AW4AdbObjectType@@XZ" PURGE="0" COMMENT="" />
    <EXPORT ORDINAL="44" NAME="?adb_handle@AdbObjectHandle@@QBEPAXXZ" PURGE="0" COMMENT="" />
    <EXPORT ORDINAL="45" NAME="?endpoint_id@AdbEndpointObject@@QBEEXZ" PURGE="0" COMMENT="" />
    <EXPORT ORDINAL="46" NAME="?endpoint_index@AdbEndpointObject@@QBEEXZ" PURGE="0" COMMENT="" />
    <EXPORT ORDINAL="47" NAME="?interface_name@AdbInterfaceObject@@QBEABV?$basic_string@GU?$char_traits@G@std@@V?$allocator@G@2@@std@@XZ" PURGE="0" COMMENT="" />
    <EXPORT ORDINAL="48" NAME="?object_type@AdbObjectHandle@@QBE?AW4AdbObjectType@@XZ" PURGE="0" COMMENT="" />
    <EXPORT ORDINAL="49" NAME="?overlapped@AdbIOCompletion@@QAEPAU_OVERLAPPED@@XZ" PURGE="0" COMMENT="" />
    <EXPORT ORDINAL="50" NAME="?parent_interface@AdbEndpointObject@@QBEPAVAdbInterfaceObject@@XZ" PURGE="0" COMMENT="" />
    <EXPORT ORDINAL="51" NAME="?parent_io_object@AdbIOCompletion@@QBEPAVAdbEndpointObject@@XZ" PURGE="0" COMMENT="" />
    <EXPORT ORDINAL="52" NAME="?usb_config_descriptor@AdbInterfaceObject@@QBEPBU_USB_CONFIGURATION_DESCRIPTOR@@XZ" PURGE="0" COMMENT="" />
    <EXPORT ORDINAL="53" NAME="?usb_device_descriptor@AdbInterfaceObject@@QBEPBU_USB_DEVICE_DESCRIPTOR@@XZ" PURGE="0" COMMENT="" />
    <EXPORT ORDINAL="54" NAME="?usb_interface_descriptor@AdbInterfaceObject@@QBEPBU_USB_INTERFACE_DESCRIPTOR@@XZ" PURGE="0" COMMENT="" />
    <EXPORT ORDINAL="55" NAME="AdbCloseHandle" PURGE="0" COMMENT="" />
    <EXPORT ORDINAL="56" NAME="AdbCreateInterface" PURGE="0" COMMENT="" />
    <EXPORT ORDINAL="57" NAME="AdbCreateInterfaceByName" PURGE="0" COMMENT="" />
    <EXPORT ORDINAL="58" NAME="AdbEnumInterfaces" PURGE="0" COMMENT="" />
    <EXPORT ORDINAL="59" NAME="AdbGetDefaultBulkReadEndpointInformation" PURGE="0" COMMENT="" />
    <EXPORT ORDINAL="60" NAME="AdbGetDefaultBulkWriteEndpointInformation" PURGE="0" COMMENT="" />
    <EXPORT ORDINAL="61" NAME="AdbGetEndpointInformation" PURGE="0" COMMENT="" />
    <EXPORT ORDINAL="62" NAME="AdbGetEndpointInterface" PURGE="0" COMMENT="" />
    <EXPORT ORDINAL="63" NAME="AdbGetInterfaceName" PURGE="0" COMMENT="" />
    <EXPORT ORDINAL="64" NAME="AdbGetOvelappedIoResult" PURGE="0" COMMENT="" />
    <EXPORT ORDINAL="65" NAME="AdbGetSerialNumber" PURGE="0" COMMENT="" />
    <EXPORT ORDINAL="66" NAME="AdbGetUsbConfigurationDescriptor" PURGE="0" COMMENT="" />
    <EXPORT ORDINAL="67" NAME="AdbGetUsbDeviceDescriptor" PURGE="0" COMMENT="" />
    <EXPORT ORDINAL="68" NAME="AdbGetUsbInterfaceDescriptor" PURGE="0" COMMENT="" />
    <EXPORT ORDINAL="69" NAME="AdbHasOvelappedIoComplated" PURGE="0" COMMENT="" />
    <EXPORT ORDINAL="70" NAME="AdbNextInterface" PURGE="0" COMMENT="" />
    <EXPORT ORDINAL="71" NAME="AdbOpenDefaultBulkReadEndpoint" PURGE="0" COMMENT="" />
    <EXPORT ORDINAL="72" NAME="AdbOpenDefaultBulkWriteEndpoint" PURGE="0" COMMENT="" />
    <EXPORT ORDINAL="73" NAME="AdbOpenEndpoint" PURGE="0" COMMENT="" />
    <EXPORT ORDINAL="74" NAME="AdbQueryInformationEndpoint" PURGE="0" COMMENT="" />
    <EXPORT ORDINAL="75" NAME="AdbReadEndpointAsync" PURGE="0" COMMENT="" />
    <EXPORT ORDINAL="76" NAME="AdbReadEndpointSync" PURGE="0" COMMENT="" />
    <EXPORT ORDINAL="77" NAME="AdbResetInterfaceEnum" PURGE="0" COMMENT="" />
    <EXPORT ORDINAL="78" NAME="AdbWriteEndpointAsync" PURGE="0" COMMENT="" />
    <EXPORT ORDINAL="79" NAME="AdbWriteEndpointSync" PURGE="0" COMMENT="" />
</LIBRARY>

