<?xml version="1.0" encoding="UTF-8"?>
<LIBRARY NAME="aif_ogl.dll" PATH="/DLLArchive/etc/aif_ogl.dll" DATE="Fri Jul 03 12:17:56 PDT 2020" VERSION="2.0.00">
    <EXPORT ORDINAL="1" NAME="??0AutoInitializer@OGL@AIF@@QAE@PAVContext@12@ABVInitOptions@ExtensionManager@12@@Z" PURGE="8" COMMENT="" />
    <EXPORT ORDINAL="2" NAME="??0Buffer@OGL@AIF@@QAE@HW4Type@012@W4Usage@012@PBX@Z" PURGE="16" COMMENT="" />
    <EXPORT ORDINAL="3" NAME="??0BufferFormat@OGL@AIF@@QAE@IIIIII_N@Z" PURGE="28" COMMENT="" />
    <EXPORT ORDINAL="4" NAME="??0BufferFormat@OGL@AIF@@QAE@W4tePredefined@012@@Z" PURGE="0" COMMENT="" />
    <EXPORT ORDINAL="5" NAME="??0Context@OGL@AIF@@AAE@ABV012@@Z" PURGE="4" COMMENT="" />
    <EXPORT ORDINAL="6" NAME="??0Context@OGL@AIF@@IAE@XZ" PURGE="0" COMMENT="" />
    <EXPORT ORDINAL="7" NAME="??0ContextOffscreen@OGL@AIF@@QAE@ABU_DISPLAY_DEVICEA@@@Z" PURGE="4" COMMENT="" />
    <EXPORT ORDINAL="8" NAME="??0ContextOffscreen@OGL@AIF@@QAE@ABV012@@Z" PURGE="4" COMMENT="" />
    <EXPORT ORDINAL="9" NAME="??0ContextOffscreen@OGL@AIF@@QAE@PBVContext@12@@Z" PURGE="4" COMMENT="" />
    <EXPORT ORDINAL="10" NAME="??0ContextWindowed@OGL@AIF@@QAE@ABV012@@Z" PURGE="4" COMMENT="" />
    <EXPORT ORDINAL="11" NAME="??0ContextWindowed@OGL@AIF@@QAE@PAUHWND__@@ABVBufferFormat@12@W4teBuffering@Context@12@W4teMultisample@612@PBV612@@Z" PURGE="20" COMMENT="" />
    <EXPORT ORDINAL="12" NAME="??0ContextWrapped@OGL@AIF@@QAE@PAUHDC__@@PAUHGLRC__@@PAUHWND__@@@Z" PURGE="12" COMMENT="" />
    <EXPORT ORDINAL="13" NAME="??0ContextWrapped@OGL@AIF@@QAE@XZ" PURGE="0" COMMENT="" />
    <EXPORT ORDINAL="14" NAME="??0ExceptionOGL@OGL@AIF@@QAE@ABV012@@Z" PURGE="4" COMMENT="" />
    <EXPORT ORDINAL="15" NAME="??0ExceptionOGL@OGL@AIF@@QAE@PBDI0I@Z" PURGE="16" COMMENT="" />
    <EXPORT ORDINAL="16" NAME="??0ExtensionManager@OGL@AIF@@AAE@PAVContext@12@@Z" PURGE="4" COMMENT="" />
    <EXPORT ORDINAL="17" NAME="??0FragmentShader@OGL@AIF@@QAE@ABV012@@Z" PURGE="4" COMMENT="" />
    <EXPORT ORDINAL="18" NAME="??0FragmentShader@OGL@AIF@@QAE@XZ" PURGE="0" COMMENT="" />
    <EXPORT ORDINAL="19" NAME="??0Framebuffer@OGL@AIF@@QAE@XZ" PURGE="0" COMMENT="" />
    <EXPORT ORDINAL="20" NAME="??0GLSLObject@OGL@AIF@@QAE@ABV012@@Z" PURGE="4" COMMENT="" />
    <EXPORT ORDINAL="21" NAME="??0GLSLObject@OGL@AIF@@QAE@XZ" PURGE="0" COMMENT="" />
    <EXPORT ORDINAL="22" NAME="??0InitOptions@ExtensionManager@OGL@AIF@@QAE@ABV0123@@Z" PURGE="4" COMMENT="" />
    <EXPORT ORDINAL="23" NAME="??0InitOptions@ExtensionManager@OGL@AIF@@QAE@XZ" PURGE="0" COMMENT="" />
    <EXPORT ORDINAL="24" NAME="??0Object@OGL@AIF@@AAE@ABV012@@Z" PURGE="4" COMMENT="" />
    <EXPORT ORDINAL="25" NAME="??0Object@OGL@AIF@@IAE@II@Z" PURGE="8" COMMENT="" />
    <EXPORT ORDINAL="26" NAME="??0OpenGLErrorChecker@OGL@AIF@@QAE@XZ" PURGE="0" COMMENT="" />
    <EXPORT ORDINAL="27" NAME="??0OpenGLInterceptor@OGL@AIF@@IAE@XZ" PURGE="0" COMMENT="" />
    <EXPORT ORDINAL="28" NAME="??0OpenGLInterceptorDecorator@OGL@AIF@@QAE@PAVOpenGLInterceptor@12@@Z" PURGE="4" COMMENT="" />
    <EXPORT ORDINAL="29" NAME="??0OpenGLRekorder@OGL@AIF@@QAE@AAV?$basic_ostream@DU?$char_traits@D@std@@@std@@0PAVOpenGLInterceptor@12@_N@Z" PURGE="16" COMMENT="" />
    <EXPORT ORDINAL="30" NAME="??0OpenGLTracer@OGL@AIF@@QAE@AAV?$basic_ostream@DU?$char_traits@D@std@@@std@@PAVOpenGLInterceptor@12@@Z" PURGE="8" COMMENT="" />
    <EXPORT ORDINAL="31" NAME="??0PixelUnpackParameters@OGL@AIF@@QAE@XZ" PURGE="0" COMMENT="" />
    <EXPORT ORDINAL="32" NAME="??0Program@OGL@AIF@@QAE@ABV012@@Z" PURGE="4" COMMENT="" />
    <EXPORT ORDINAL="33" NAME="??0Program@OGL@AIF@@QAE@XZ" PURGE="0" COMMENT="" />
    <EXPORT ORDINAL="34" NAME="??0Renderbuffer@OGL@AIF@@QAE@IHH@Z" PURGE="12" COMMENT="" />
    <EXPORT ORDINAL="35" NAME="??0ScopedContextWrapper@OGL@AIF@@QAE@XZ" PURGE="0" COMMENT="" />
    <EXPORT ORDINAL="36" NAME="??0Shader@OGL@AIF@@QAE@ABV012@@Z" PURGE="4" COMMENT="" />
    <EXPORT ORDINAL="37" NAME="??0Shader@OGL@AIF@@QAE@W4ShaderType@012@@Z" PURGE="4" COMMENT="" />
    <EXPORT ORDINAL="38" NAME="??0StateObject_2_0@OGL@AIF@@QAE@ABV012@@Z" PURGE="4" COMMENT="" />
    <EXPORT ORDINAL="39" NAME="??0StateObject_2_0@OGL@AIF@@QAE@XZ" PURGE="0" COMMENT="" />
    <EXPORT ORDINAL="40" NAME="??0Texture1@OGL@AIF@@IAE@W4Target@Texture@12@W4TargetBinding@412@W4InternalFormat@412@I_N@Z" PURGE="20" COMMENT="" />
    <EXPORT ORDINAL="41" NAME="??0Texture1D@OGL@AIF@@QAE@W4InternalFormat@Texture@12@I_N@Z" PURGE="12" COMMENT="" />
    <EXPORT ORDINAL="42" NAME="??0Texture2@OGL@AIF@@IAE@W4Target@Texture@12@W4TargetBinding@412@W4InternalFormat@412@II_NPAX@Z" PURGE="28" COMMENT="" />
    <EXPORT ORDINAL="43" NAME="??0Texture2D@OGL@AIF@@QAE@W4InternalFormat@Texture@12@II_NPAX@Z" PURGE="20" COMMENT="" />
    <EXPORT ORDINAL="44" NAME="??0Texture3@OGL@AIF@@IAE@W4Target@Texture@12@W4TargetBinding@412@W4InternalFormat@412@HIIIW4Format@412@W4Type@412@PBXABVPixelUnpackParameters@12@@Z" PURGE="44" COMMENT="" />
    <EXPORT ORDINAL="45" NAME="??0Texture3@OGL@AIF@@IAE@W4Target@Texture@12@W4TargetBinding@412@W4InternalFormat@412@III_N@Z" PURGE="28" COMMENT="" />
    <EXPORT ORDINAL="46" NAME="??0Texture3D@OGL@AIF@@QAE@W4InternalFormat@Texture@12@HIIIW4Format@412@W4Type@412@PBXABVPixelUnpackParameters@12@@Z" PURGE="36" COMMENT="" />
    <EXPORT ORDINAL="47" NAME="??0Texture3D@OGL@AIF@@QAE@W4InternalFormat@Texture@12@III_N@Z" PURGE="20" COMMENT="" />
    <EXPORT ORDINAL="48" NAME="??0Texture@OGL@AIF@@IAE@W4Target@012@W4TargetBinding@012@W4InternalFormat@012@III@Z" PURGE="24" COMMENT="" />
    <EXPORT ORDINAL="49" NAME="??0TextureRECT@OGL@AIF@@QAE@W4InternalFormat@Texture@12@IIPAX@Z" PURGE="16" COMMENT="" />
    <EXPORT ORDINAL="50" NAME="??0TextureUnit@OGL@AIF@@AAE@I@Z" PURGE="4" COMMENT="" />
    <EXPORT ORDINAL="51" NAME="??0VertexShader@OGL@AIF@@QAE@ABV012@@Z" PURGE="4" COMMENT="" />
    <EXPORT ORDINAL="52" NAME="??0VertexShader@OGL@AIF@@QAE@XZ" PURGE="0" COMMENT="" />
    <EXPORT ORDINAL="53" NAME="??0wglErrorChecker@OGL@AIF@@QAE@XZ" PURGE="0" COMMENT="" />
    <EXPORT ORDINAL="54" NAME="??0wglInterceptor@OGL@AIF@@IAE@XZ" PURGE="0" COMMENT="" />
    <EXPORT ORDINAL="55" NAME="??0wglInterceptorDecorator@OGL@AIF@@QAE@PAVwglInterceptor@12@@Z" PURGE="4" COMMENT="" />
    <EXPORT ORDINAL="56" NAME="??0wglRekorder@OGL@AIF@@QAE@AAV?$basic_ostream@DU?$char_traits@D@std@@@std@@0PAUHDC__@@PAVwglInterceptor@12@_N@Z" PURGE="20" COMMENT="" />
    <EXPORT ORDINAL="57" NAME="??0wglRekorder@OGL@AIF@@QAE@XZ" PURGE="0" COMMENT="" />
    <EXPORT ORDINAL="58" NAME="??1AutoInitializer@OGL@AIF@@QAE@XZ" PURGE="0" COMMENT="" />
    <EXPORT ORDINAL="59" NAME="??1Buffer@OGL@AIF@@UAE@XZ" PURGE="0" COMMENT="" />
    <EXPORT ORDINAL="60" NAME="??1Context@OGL@AIF@@UAE@XZ" PURGE="0" COMMENT="" />
    <EXPORT ORDINAL="61" NAME="??1ContextOffscreen@OGL@AIF@@UAE@XZ" PURGE="0" COMMENT="" />
    <EXPORT ORDINAL="62" NAME="??1ContextWindowed@OGL@AIF@@UAE@XZ" PURGE="0" COMMENT="" />
    <EXPORT ORDINAL="63" NAME="??1ContextWrapped@OGL@AIF@@UAE@XZ" PURGE="0" COMMENT="" />
    <EXPORT ORDINAL="64" NAME="??1ExceptionOGL@OGL@AIF@@UAE@XZ" PURGE="-1" COMMENT="" />
    <EXPORT ORDINAL="65" NAME="??1ExtensionManager@OGL@AIF@@QAE@XZ" PURGE="0" COMMENT="" />
    <EXPORT ORDINAL="66" NAME="??1FragmentShader@OGL@AIF@@UAE@XZ" PURGE="0" COMMENT="" />
    <EXPORT ORDINAL="67" NAME="??1Framebuffer@OGL@AIF@@UAE@XZ" PURGE="0" COMMENT="" />
    <EXPORT ORDINAL="68" NAME="??1GLSLObject@OGL@AIF@@UAE@XZ" PURGE="0" COMMENT="" />
    <EXPORT ORDINAL="69" NAME="??1InitOptions@ExtensionManager@OGL@AIF@@QAE@XZ" PURGE="0" COMMENT="" />
    <EXPORT ORDINAL="70" NAME="??1Object@OGL@AIF@@UAE@XZ" PURGE="0" COMMENT="" />
    <EXPORT ORDINAL="71" NAME="??1OpenGLErrorChecker@OGL@AIF@@UAE@XZ" PURGE="0" COMMENT="" />
    <EXPORT ORDINAL="72" NAME="??1OpenGLInterceptor@OGL@AIF@@UAE@XZ" PURGE="0" COMMENT="" />
    <EXPORT ORDINAL="73" NAME="??1OpenGLInterceptorDecorator@OGL@AIF@@UAE@XZ" PURGE="0" COMMENT="" />
    <EXPORT ORDINAL="74" NAME="??1OpenGLRekorder@OGL@AIF@@UAE@XZ" PURGE="0" COMMENT="" />
    <EXPORT ORDINAL="75" NAME="??1OpenGLTracer@OGL@AIF@@UAE@XZ" PURGE="0" COMMENT="" />
    <EXPORT ORDINAL="76" NAME="??1Program@OGL@AIF@@UAE@XZ" PURGE="0" COMMENT="" />
    <EXPORT ORDINAL="77" NAME="??1Renderbuffer@OGL@AIF@@UAE@XZ" PURGE="0" COMMENT="" />
    <EXPORT ORDINAL="78" NAME="??1ScopedContextWrapper@OGL@AIF@@UAE@XZ" PURGE="0" COMMENT="" />
    <EXPORT ORDINAL="79" NAME="??1Shader@OGL@AIF@@UAE@XZ" PURGE="0" COMMENT="" />
    <EXPORT ORDINAL="80" NAME="??1StateObject_2_0@OGL@AIF@@UAE@XZ" PURGE="0" COMMENT="" />
    <EXPORT ORDINAL="81" NAME="??1Texture1@OGL@AIF@@UAE@XZ" PURGE="0" COMMENT="" />
    <EXPORT ORDINAL="82" NAME="??1Texture1D@OGL@AIF@@UAE@XZ" PURGE="0" COMMENT="" />
    <EXPORT ORDINAL="83" NAME="??1Texture2@OGL@AIF@@UAE@XZ" PURGE="0" COMMENT="" />
    <EXPORT ORDINAL="84" NAME="??1Texture2D@OGL@AIF@@UAE@XZ" PURGE="0" COMMENT="" />
    <EXPORT ORDINAL="85" NAME="??1Texture3@OGL@AIF@@UAE@XZ" PURGE="0" COMMENT="" />
    <EXPORT ORDINAL="86" NAME="??1Texture3D@OGL@AIF@@UAE@XZ" PURGE="0" COMMENT="" />
    <EXPORT ORDINAL="87" NAME="??1Texture@OGL@AIF@@UAE@XZ" PURGE="0" COMMENT="" />
    <EXPORT ORDINAL="88" NAME="??1TextureRECT@OGL@AIF@@UAE@XZ" PURGE="0" COMMENT="" />
    <EXPORT ORDINAL="89" NAME="??1TextureUnit@OGL@AIF@@QAE@XZ" PURGE="0" COMMENT="" />
    <EXPORT ORDINAL="90" NAME="??1VertexShader@OGL@AIF@@UAE@XZ" PURGE="0" COMMENT="" />
    <EXPORT ORDINAL="91" NAME="??1wglErrorChecker@OGL@AIF@@UAE@XZ" PURGE="0" COMMENT="" />
    <EXPORT ORDINAL="92" NAME="??1wglInterceptorDecorator@OGL@AIF@@UAE@XZ" PURGE="0" COMMENT="" />
    <EXPORT ORDINAL="93" NAME="??1wglRekorder@OGL@AIF@@UAE@XZ" PURGE="0" COMMENT="" />
    <EXPORT ORDINAL="94" NAME="??4BufferFormat@OGL@AIF@@QAEAAV012@ABV012@@Z" PURGE="4" COMMENT="" />
    <EXPORT ORDINAL="95" NAME="??4Context@OGL@AIF@@AAEXABV012@@Z" PURGE="4" COMMENT="" />
    <EXPORT ORDINAL="96" NAME="??4ContextOffscreen@OGL@AIF@@QAEAAV012@ABV012@@Z" PURGE="4" COMMENT="" />
    <EXPORT ORDINAL="97" NAME="??4ContextWindowed@OGL@AIF@@QAEAAV012@ABV012@@Z" PURGE="4" COMMENT="" />
    <EXPORT ORDINAL="98" NAME="??4ExceptionOGL@OGL@AIF@@QAEAAV012@ABV012@@Z" PURGE="4" COMMENT="" />
    <EXPORT ORDINAL="99" NAME="??4FragmentShader@OGL@AIF@@QAEAAV012@ABV012@@Z" PURGE="4" COMMENT="" />
    <EXPORT ORDINAL="100" NAME="??4GLSLObject@OGL@AIF@@QAEAAV012@ABV012@@Z" PURGE="4" COMMENT="" />
    <EXPORT ORDINAL="101" NAME="??4InitOptions@ExtensionManager@OGL@AIF@@QAEAAV0123@ABV0123@@Z" PURGE="4" COMMENT="" />
    <EXPORT ORDINAL="102" NAME="??4Library@Core@AIF@@QAEAAV012@ABV012@@Z" PURGE="4" COMMENT="" />
    <EXPORT ORDINAL="103" NAME="??4Library@OGL@AIF@@QAEAAV012@ABV012@@Z" PURGE="4" COMMENT="" />
    <EXPORT ORDINAL="104" NAME="??4Object@OGL@AIF@@AAEAAV012@ABV012@@Z" PURGE="4" COMMENT="" />
    <EXPORT ORDINAL="105" NAME="??4PixelUnpackParameters@OGL@AIF@@QAEAAV012@ABV012@@Z" PURGE="4" COMMENT="" />
    <EXPORT ORDINAL="106" NAME="??4Program@OGL@AIF@@QAEAAV012@ABV012@@Z" PURGE="4" COMMENT="" />
    <EXPORT ORDINAL="107" NAME="??4Shader@OGL@AIF@@QAEAAV012@ABV012@@Z" PURGE="4" COMMENT="" />
    <EXPORT ORDINAL="108" NAME="??4StateObject_2_0@OGL@AIF@@QAEAAV012@ABV012@@Z" PURGE="4" COMMENT="" />
    <EXPORT ORDINAL="109" NAME="??4VertexShader@OGL@AIF@@QAEAAV012@ABV012@@Z" PURGE="4" COMMENT="" />
    <EXPORT ORDINAL="110" NAME="??_7Buffer@OGL@AIF@@6B@" PURGE="-1" COMMENT="" />
    <EXPORT ORDINAL="111" NAME="??_7Context@OGL@AIF@@6B@" PURGE="-1" COMMENT="" />
    <EXPORT ORDINAL="112" NAME="??_7ContextOffscreen@OGL@AIF@@6B@" PURGE="-1" COMMENT="" />
    <EXPORT ORDINAL="113" NAME="??_7ContextWindowed@OGL@AIF@@6B@" PURGE="-1" COMMENT="" />
    <EXPORT ORDINAL="114" NAME="??_7ContextWrapped@OGL@AIF@@6B@" PURGE="-1" COMMENT="" />
    <EXPORT ORDINAL="115" NAME="??_7ExceptionOGL@OGL@AIF@@6B@" PURGE="-1" COMMENT="" />
    <EXPORT ORDINAL="116" NAME="??_7FragmentShader@OGL@AIF@@6B@" PURGE="-1" COMMENT="" />
    <EXPORT ORDINAL="117" NAME="??_7Framebuffer@OGL@AIF@@6B@" PURGE="-1" COMMENT="" />
    <EXPORT ORDINAL="118" NAME="??_7GLSLObject@OGL@AIF@@6B@" PURGE="-1" COMMENT="" />
    <EXPORT ORDINAL="119" NAME="??_7Object@OGL@AIF@@6B@" PURGE="-1" COMMENT="" />
    <EXPORT ORDINAL="120" NAME="??_7OpenGLErrorChecker@OGL@AIF@@6B@" PURGE="-1" COMMENT="" />
    <EXPORT ORDINAL="121" NAME="??_7OpenGLInterceptor@OGL@AIF@@6B@" PURGE="-1" COMMENT="" />
    <EXPORT ORDINAL="122" NAME="??_7OpenGLInterceptorDecorator@OGL@AIF@@6B@" PURGE="-1" COMMENT="" />
    <EXPORT ORDINAL="123" NAME="??_7OpenGLRekorder@OGL@AIF@@6B@" PURGE="-1" COMMENT="" />
    <EXPORT ORDINAL="124" NAME="??_7OpenGLTracer@OGL@AIF@@6B@" PURGE="-1" COMMENT="" />
    <EXPORT ORDINAL="125" NAME="??_7Program@OGL@AIF@@6B@" PURGE="-1" COMMENT="" />
    <EXPORT ORDINAL="126" NAME="??_7Renderbuffer@OGL@AIF@@6B@" PURGE="-1" COMMENT="" />
    <EXPORT ORDINAL="127" NAME="??_7ScopedContextWrapper@OGL@AIF@@6B@" PURGE="-1" COMMENT="" />
    <EXPORT ORDINAL="128" NAME="??_7Shader@OGL@AIF@@6B@" PURGE="-1" COMMENT="" />
    <EXPORT ORDINAL="129" NAME="??_7StateObject_2_0@OGL@AIF@@6B@" PURGE="-1" COMMENT="" />
    <EXPORT ORDINAL="130" NAME="??_7Texture1@OGL@AIF@@6B@" PURGE="-1" COMMENT="" />
    <EXPORT ORDINAL="131" NAME="??_7Texture1D@OGL@AIF@@6B@" PURGE="-1" COMMENT="" />
    <EXPORT ORDINAL="132" NAME="??_7Texture2@OGL@AIF@@6B@" PURGE="-1" COMMENT="" />
    <EXPORT ORDINAL="133" NAME="??_7Texture2D@OGL@AIF@@6B@" PURGE="-1" COMMENT="" />
    <EXPORT ORDINAL="134" NAME="??_7Texture3@OGL@AIF@@6B@" PURGE="-1" COMMENT="" />
    <EXPORT ORDINAL="135" NAME="??_7Texture3D@OGL@AIF@@6B@" PURGE="-1" COMMENT="" />
    <EXPORT ORDINAL="136" NAME="??_7Texture@OGL@AIF@@6B@" PURGE="-1" COMMENT="" />
    <EXPORT ORDINAL="137" NAME="??_7TextureRECT@OGL@AIF@@6B@" PURGE="-1" COMMENT="" />
    <EXPORT ORDINAL="138" NAME="??_7VertexShader@OGL@AIF@@6B@" PURGE="-1" COMMENT="" />
    <EXPORT ORDINAL="139" NAME="??_7wglErrorChecker@OGL@AIF@@6B@" PURGE="-1" COMMENT="" />
    <EXPORT ORDINAL="140" NAME="??_7wglInterceptor@OGL@AIF@@6B@" PURGE="-1" COMMENT="" />
    <EXPORT ORDINAL="141" NAME="??_7wglInterceptorDecorator@OGL@AIF@@6B@" PURGE="-1" COMMENT="" />
    <EXPORT ORDINAL="142" NAME="??_7wglRekorder@OGL@AIF@@6B@" PURGE="-1" COMMENT="" />
    <EXPORT ORDINAL="143" NAME="??_FContextOffscreen@OGL@AIF@@QAEXXZ" PURGE="0" COMMENT="" />
    <EXPORT ORDINAL="144" NAME="??_FOpenGLInterceptorDecorator@OGL@AIF@@QAEXXZ" PURGE="0" COMMENT="" />
    <EXPORT ORDINAL="145" NAME="??_FOpenGLTracer@OGL@AIF@@QAEXXZ" PURGE="0" COMMENT="" />
    <EXPORT ORDINAL="146" NAME="??_FwglInterceptorDecorator@OGL@AIF@@QAEXXZ" PURGE="0" COMMENT="" />
    <EXPORT ORDINAL="147" NAME="?CURRENT_UNIT@Texture@OGL@AIF@@1HB" PURGE="-1" COMMENT="" />
    <EXPORT ORDINAL="148" NAME="?Channels@Texture@OGL@AIF@@SAIW4Format@123@@Z" PURGE="-1" COMMENT="" />
    <EXPORT ORDINAL="149" NAME="?Channels@Texture@OGL@AIF@@SAIW4InternalFormat@123@@Z" PURGE="-1" COMMENT="" />
    <EXPORT ORDINAL="150" NAME="?Create@ExtensionManager@OGL@AIF@@CAXPAVContext@23@@Z" PURGE="0" COMMENT="" />
    <EXPORT ORDINAL="151" NAME="?Create@TextureUnit@OGL@AIF@@CAXPAVContext@23@@Z" PURGE="0" COMMENT="" />
    <EXPORT ORDINAL="152" NAME="?CurrentState@StateObject_2_0@OGL@AIF@@SA?AV123@XZ" PURGE="0" COMMENT="" />
    <EXPORT ORDINAL="153" NAME="?Destroy@ExtensionManager@OGL@AIF@@CAXPAVContext@23@@Z" PURGE="0" COMMENT="" />
    <EXPORT ORDINAL="154" NAME="?Destroy@TextureUnit@OGL@AIF@@CAXXZ" PURGE="0" COMMENT="" />
    <EXPORT ORDINAL="155" NAME="?Environment2GL@TextureUnit@OGL@AIF@@SAIW4Environment@123@@Z" PURGE="-1" COMMENT="" />
    <EXPORT ORDINAL="156" NAME="?Filter2GL@Texture@OGL@AIF@@SAIW4Filter@123@@Z" PURGE="-1" COMMENT="" />
    <EXPORT ORDINAL="157" NAME="?Format2GL@Texture@OGL@AIF@@SAIW4Format@123@@Z" PURGE="-1" COMMENT="" />
    <EXPORT ORDINAL="158" NAME="?GL2Environment@TextureUnit@OGL@AIF@@SA?AW4Environment@123@I@Z" PURGE="0" COMMENT="" />
    <EXPORT ORDINAL="159" NAME="?GL2Filter@Texture@OGL@AIF@@SA?AW4Filter@123@I@Z" PURGE="0" COMMENT="" />
    <EXPORT ORDINAL="160" NAME="?GL2Format@Texture@OGL@AIF@@SA?AW4Format@123@I@Z" PURGE="0" COMMENT="" />
    <EXPORT ORDINAL="161" NAME="?GL2InternalFormat@Texture@OGL@AIF@@SA?AW4InternalFormat@123@I@Z" PURGE="0" COMMENT="" />
    <EXPORT ORDINAL="162" NAME="?GL2PixelStoreMode@Texture@OGL@AIF@@SA?AW4PixelStoreMode@123@I@Z" PURGE="0" COMMENT="" />
    <EXPORT ORDINAL="163" NAME="?GL2Target@Texture@OGL@AIF@@SA?AW4Target@123@I@Z" PURGE="0" COMMENT="" />
    <EXPORT ORDINAL="164" NAME="?GL2TargetBinding@Texture@OGL@AIF@@SA?AW4TargetBinding@123@I@Z" PURGE="0" COMMENT="" />
    <EXPORT ORDINAL="165" NAME="?GL2Type@Buffer@OGL@AIF@@SA?AW4Type@123@I@Z" PURGE="-1" COMMENT="" />
    <EXPORT ORDINAL="166" NAME="?GL2Type@Texture@OGL@AIF@@SA?AW4Type@123@I@Z" PURGE="0" COMMENT="" />
    <EXPORT ORDINAL="167" NAME="?GL2Usage@Buffer@OGL@AIF@@SA?AW4Usage@123@I@Z" PURGE="-1" COMMENT="" />
    <EXPORT ORDINAL="168" NAME="?GL2WrapMode@Texture@OGL@AIF@@SA?AW4WrapMode@123@I@Z" PURGE="0" COMMENT="" />
    <EXPORT ORDINAL="169" NAME="?Instance@ExtensionManager@OGL@AIF@@SAPAV123@XZ" PURGE="0" COMMENT="" />
    <EXPORT ORDINAL="170" NAME="?Instance@OpenGLInterceptor@OGL@AIF@@SAPAV123@XZ" PURGE="0" COMMENT="" />
    <EXPORT ORDINAL="171" NAME="?Instance@wglInterceptor@OGL@AIF@@SAPAV123@XZ" PURGE="0" COMMENT="" />
    <EXPORT ORDINAL="172" NAME="?InternalFormat2GL@Texture@OGL@AIF@@SAIW4InternalFormat@123@@Z" PURGE="-1" COMMENT="" />
    <EXPORT ORDINAL="173" NAME="?IsTargetSupported@Texture@OGL@AIF@@SA_NI@Z" PURGE="0" COMMENT="" />
    <EXPORT ORDINAL="174" NAME="?IsTargetSupported@TextureState@OGL@AIF@@YA_NI@Z" PURGE="0" COMMENT="" />
    <EXPORT ORDINAL="175" NAME="?PixelStoreMode2GL@Texture@OGL@AIF@@SAIW4PixelStoreMode@123@@Z" PURGE="-1" COMMENT="" />
    <EXPORT ORDINAL="176" NAME="?SizeInBytes@Texture@OGL@AIF@@SAIW4InternalFormat@123@III@Z" PURGE="-1" COMMENT="" />
    <EXPORT ORDINAL="177" NAME="?Target2GL@Texture@OGL@AIF@@SAIW4Target@123@@Z" PURGE="-1" COMMENT="" />
    <EXPORT ORDINAL="178" NAME="?TargetBinding2GL@Texture@OGL@AIF@@SAIW4TargetBinding@123@@Z" PURGE="-1" COMMENT="" />
    <EXPORT ORDINAL="179" NAME="?TokenizeExtensionString@ExtensionManager@OGL@AIF@@CAXABV?$basic_string@DU?$char_traits@D@std@@V?$AIFAllocator@D@AIF@@@std@@AAV?$vector@V?$basic_string@DU?$char_traits@D@std@@V?$AIFAllocator@D@AIF@@@std@@V?$AIFAllocator@V?$basic_string@DU?$char_traits@D@std@@V?$AIFAllocator@D@AIF@@@std@@@AIF@@@5@@Z" PURGE="0" COMMENT="" />
    <EXPORT ORDINAL="180" NAME="?TokenizeVersionString@ExtensionManager@OGL@AIF@@CAXABV?$basic_string@DU?$char_traits@D@std@@V?$AIFAllocator@D@AIF@@@std@@AAI1AAHAAV45@@Z" PURGE="0" COMMENT="" />
    <EXPORT ORDINAL="181" NAME="?Type2GL@Buffer@OGL@AIF@@SAIW4Type@123@@Z" PURGE="0" COMMENT="" />
    <EXPORT ORDINAL="182" NAME="?Type2GL@Texture@OGL@AIF@@SAIW4Type@123@@Z" PURGE="-1" COMMENT="" />
    <EXPORT ORDINAL="183" NAME="?Unit@TextureUnit@OGL@AIF@@SAPAV123@I@Z" PURGE="0" COMMENT="" />
    <EXPORT ORDINAL="184" NAME="?Usage2GL@Buffer@OGL@AIF@@SAIW4Usage@123@@Z" PURGE="0" COMMENT="" />
    <EXPORT ORDINAL="185" NAME="?WrapMode2GL@Texture@OGL@AIF@@SAIW4WrapMode@123@@Z" PURGE="-1" COMMENT="" />
    <EXPORT ORDINAL="186" NAME="?_addShareContext@Context@OGL@AIF@@IBEXPBV123@@Z" PURGE="4" COMMENT="" />
    <EXPORT ORDINAL="187" NAME="?_registerContextWrapped@Context@OGL@AIF@@KAXPBV123@@Z" PURGE="0" COMMENT="" />
    <EXPORT ORDINAL="188" NAME="?_unregisterShareContext@Context@OGL@AIF@@KAXPBV123@@Z" PURGE="0" COMMENT="" />
    <EXPORT ORDINAL="189" NAME="?_wcgmAllocateMemoryNV@@3P6GPAXHMMM@ZA" PURGE="-1" COMMENT="" />
    <EXPORT ORDINAL="190" NAME="?_wcgmAssociateImageBufferEventsI3D@@3P6GHPAUHDC__@@PAPAX1PAKI@ZA" PURGE="-1" COMMENT="" />
    <EXPORT ORDINAL="191" NAME="?_wcgmBeginFrameTrackingI3D@@3P6GHXZA" PURGE="-1" COMMENT="" />
    <EXPORT ORDINAL="192" NAME="?_wcgmBindDisplayColorTableEXT@@3P6GEG@ZA" PURGE="-1" COMMENT="" />
    <EXPORT ORDINAL="193" NAME="?_wcgmBindSwapBarrierNV@@3P6GHII@ZA" PURGE="-1" COMMENT="" />
    <EXPORT ORDINAL="194" NAME="?_wcgmBindTexImageARB@@3P6GHPAUHPBUFFERARB__@@H@ZA" PURGE="-1" COMMENT="" />
    <EXPORT ORDINAL="195" NAME="?_wcgmBindVideoDeviceNV@@3P6GHPAUHDC__@@IPAUHVIDEOOUTPUTDEVICENV__@@PBH@ZA" PURGE="-1" COMMENT="" />
    <EXPORT ORDINAL="196" NAME="?_wcgmBindVideoImageNV@@3P6GHPAUHPVIDEODEV__@@PAUHPBUFFERARB__@@H@ZA" PURGE="-1" COMMENT="" />
    <EXPORT ORDINAL="197" NAME="?_wcgmChoosePixelFormatARB@@3P6GHPAUHDC__@@PBHPBMIPAHPAI@ZA" PURGE="-1" COMMENT="" />
    <EXPORT ORDINAL="198" NAME="?_wcgmChoosePixelFormatEXT@@3P6GHPAUHDC__@@PBHPBMIPAHPAI@ZA" PURGE="-1" COMMENT="" />
    <EXPORT ORDINAL="199" NAME="?_wcgmCreateAffinityDCNV@@3P6GPAUHDC__@@PBQAUHGPUNV__@@@ZA" PURGE="-1" COMMENT="" />
    <EXPORT ORDINAL="200" NAME="?_wcgmCreateBufferRegionARB@@3P6GPAXPAUHDC__@@HI@ZA" PURGE="-1" COMMENT="" />
    <EXPORT ORDINAL="201" NAME="?_wcgmCreateContextAttribsARB@@3P6GPAUHGLRC__@@PAUHDC__@@PAU1@PBH@ZA" PURGE="-1" COMMENT="" />
    <EXPORT ORDINAL="202" NAME="?_wcgmCreateDisplayColorTableEXT@@3P6GEG@ZA" PURGE="-1" COMMENT="" />
    <EXPORT ORDINAL="203" NAME="?_wcgmCreateImageBufferI3D@@3P6GPAXPAUHDC__@@KI@ZA" PURGE="-1" COMMENT="" />
    <EXPORT ORDINAL="204" NAME="?_wcgmCreatePbufferARB@@3P6GPAUHPBUFFERARB__@@PAUHDC__@@HHHPBH@ZA" PURGE="-1" COMMENT="" />
    <EXPORT ORDINAL="205" NAME="?_wcgmCreatePbufferEXT@@3P6GPAUHPBUFFEREXT__@@PAUHDC__@@HHHPBH@ZA" PURGE="-1" COMMENT="" />
    <EXPORT ORDINAL="206" NAME="?_wcgmDeleteBufferRegionARB@@3P6GXPAX@ZA" PURGE="-1" COMMENT="" />
    <EXPORT ORDINAL="207" NAME="?_wcgmDeleteDCNV@@3P6GHPAUHDC__@@@ZA" PURGE="-1" COMMENT="" />
    <EXPORT ORDINAL="208" NAME="?_wcgmDestroyDisplayColorTableEXT@@3P6GXG@ZA" PURGE="-1" COMMENT="" />
    <EXPORT ORDINAL="209" NAME="?_wcgmDestroyImageBufferI3D@@3P6GHPAUHDC__@@PAX@ZA" PURGE="-1" COMMENT="" />
    <EXPORT ORDINAL="210" NAME="?_wcgmDestroyPbufferARB@@3P6GHPAUHPBUFFERARB__@@@ZA" PURGE="-1" COMMENT="" />
    <EXPORT ORDINAL="211" NAME="?_wcgmDestroyPbufferEXT@@3P6GHPAUHPBUFFEREXT__@@@ZA" PURGE="-1" COMMENT="" />
    <EXPORT ORDINAL="212" NAME="?_wcgmDisableFrameLockI3D@@3P6GHXZA" PURGE="-1" COMMENT="" />
    <EXPORT ORDINAL="213" NAME="?_wcgmDisableGenlockI3D@@3P6GHPAUHDC__@@@ZA" PURGE="-1" COMMENT="" />
    <EXPORT ORDINAL="214" NAME="?_wcgmEnableFrameLockI3D@@3P6GHXZA" PURGE="-1" COMMENT="" />
    <EXPORT ORDINAL="215" NAME="?_wcgmEnableGenlockI3D@@3P6GHPAUHDC__@@@ZA" PURGE="-1" COMMENT="" />
    <EXPORT ORDINAL="216" NAME="?_wcgmEndFrameTrackingI3D@@3P6GHXZA" PURGE="-1" COMMENT="" />
    <EXPORT ORDINAL="217" NAME="?_wcgmEnumGpuDevicesNV@@3P6GHPAUHGPUNV__@@IPAU_GPU_DEVICE@@@ZA" PURGE="-1" COMMENT="" />
    <EXPORT ORDINAL="218" NAME="?_wcgmEnumGpusFromAffinityDCNV@@3P6GHPAUHDC__@@IPAPAUHGPUNV__@@@ZA" PURGE="-1" COMMENT="" />
    <EXPORT ORDINAL="219" NAME="?_wcgmEnumGpusNV@@3P6GHIPAPAUHGPUNV__@@@ZA" PURGE="-1" COMMENT="" />
    <EXPORT ORDINAL="220" NAME="?_wcgmEnumerateVideoDevicesNV@@3P6GHPAUHDC__@@PAPAUHVIDEOOUTPUTDEVICENV__@@@ZA" PURGE="-1" COMMENT="" />
    <EXPORT ORDINAL="221" NAME="?_wcgmFreeMemoryNV@@3P6GXPAX@ZA" PURGE="-1" COMMENT="" />
    <EXPORT ORDINAL="222" NAME="?_wcgmGenlockSampleRateI3D@@3P6GHPAUHDC__@@I@ZA" PURGE="-1" COMMENT="" />
    <EXPORT ORDINAL="223" NAME="?_wcgmGenlockSourceDelayI3D@@3P6GHPAUHDC__@@I@ZA" PURGE="-1" COMMENT="" />
    <EXPORT ORDINAL="224" NAME="?_wcgmGenlockSourceEdgeI3D@@3P6GHPAUHDC__@@I@ZA" PURGE="-1" COMMENT="" />
    <EXPORT ORDINAL="225" NAME="?_wcgmGenlockSourceI3D@@3P6GHPAUHDC__@@I@ZA" PURGE="-1" COMMENT="" />
    <EXPORT ORDINAL="226" NAME="?_wcgmGetCurrentReadDCARB@@3P6GPAUHDC__@@XZA" PURGE="-1" COMMENT="" />
    <EXPORT ORDINAL="227" NAME="?_wcgmGetCurrentReadDCEXT@@3P6GPAUHDC__@@XZA" PURGE="-1" COMMENT="" />
    <EXPORT ORDINAL="228" NAME="?_wcgmGetDigitalVideoParametersI3D@@3P6GHPAUHDC__@@HPAH@ZA" PURGE="-1" COMMENT="" />
    <EXPORT ORDINAL="229" NAME="?_wcgmGetExtensionsStringARB@@3P6GPBDPAUHDC__@@@ZA" PURGE="-1" COMMENT="" />
    <EXPORT ORDINAL="230" NAME="?_wcgmGetExtensionsStringEXT@@3P6GPBDXZA" PURGE="-1" COMMENT="" />
    <EXPORT ORDINAL="231" NAME="?_wcgmGetFrameUsageI3D@@3P6GHPAM@ZA" PURGE="-1" COMMENT="" />
    <EXPORT ORDINAL="232" NAME="?_wcgmGetGammaTableI3D@@3P6GHPAUHDC__@@HPAG11@ZA" PURGE="-1" COMMENT="" />
    <EXPORT ORDINAL="233" NAME="?_wcgmGetGammaTableParametersI3D@@3P6GHPAUHDC__@@HPAH@ZA" PURGE="-1" COMMENT="" />
    <EXPORT ORDINAL="234" NAME="?_wcgmGetGenlockSampleRateI3D@@3P6GHPAUHDC__@@PAI@ZA" PURGE="-1" COMMENT="" />
    <EXPORT ORDINAL="235" NAME="?_wcgmGetGenlockSourceDelayI3D@@3P6GHPAUHDC__@@PAI@ZA" PURGE="-1" COMMENT="" />
    <EXPORT ORDINAL="236" NAME="?_wcgmGetGenlockSourceEdgeI3D@@3P6GHPAUHDC__@@PAI@ZA" PURGE="-1" COMMENT="" />
    <EXPORT ORDINAL="237" NAME="?_wcgmGetGenlockSourceI3D@@3P6GHPAUHDC__@@PAI@ZA" PURGE="-1" COMMENT="" />
    <EXPORT ORDINAL="238" NAME="?_wcgmGetMscRateOML@@3P6GHPAUHDC__@@PAH1@ZA" PURGE="-1" COMMENT="" />
    <EXPORT ORDINAL="239" NAME="?_wcgmGetPbufferDCARB@@3P6GPAUHDC__@@PAUHPBUFFERARB__@@@ZA" PURGE="-1" COMMENT="" />
    <EXPORT ORDINAL="240" NAME="?_wcgmGetPbufferDCEXT@@3P6GPAUHDC__@@PAUHPBUFFEREXT__@@@ZA" PURGE="-1" COMMENT="" />
    <EXPORT ORDINAL="241" NAME="?_wcgmGetPixelFormatAttribfvARB@@3P6GHPAUHDC__@@HHIPBHPAM@ZA" PURGE="-1" COMMENT="" />
    <EXPORT ORDINAL="242" NAME="?_wcgmGetPixelFormatAttribfvEXT@@3P6GHPAUHDC__@@HHIPAHPAM@ZA" PURGE="-1" COMMENT="" />
    <EXPORT ORDINAL="243" NAME="?_wcgmGetPixelFormatAttribivARB@@3P6GHPAUHDC__@@HHIPBHPAH@ZA" PURGE="-1" COMMENT="" />
    <EXPORT ORDINAL="244" NAME="?_wcgmGetPixelFormatAttribivEXT@@3P6GHPAUHDC__@@HHIPAH1@ZA" PURGE="-1" COMMENT="" />
    <EXPORT ORDINAL="245" NAME="?_wcgmGetSwapIntervalEXT@@3P6GHXZA" PURGE="-1" COMMENT="" />
    <EXPORT ORDINAL="246" NAME="?_wcgmGetSyncValuesOML@@3P6GHPAUHDC__@@PA_J11@ZA" PURGE="-1" COMMENT="" />
    <EXPORT ORDINAL="247" NAME="?_wcgmGetVideoDeviceNV@@3P6GHPAUHDC__@@HPAPAUHPVIDEODEV__@@@ZA" PURGE="-1" COMMENT="" />
    <EXPORT ORDINAL="248" NAME="?_wcgmGetVideoInfoNV@@3P6GHPAUHPVIDEODEV__@@PAK1@ZA" PURGE="-1" COMMENT="" />
    <EXPORT ORDINAL="249" NAME="?_wcgmIsEnabledFrameLockI3D@@3P6GHPAH@ZA" PURGE="-1" COMMENT="" />
    <EXPORT ORDINAL="250" NAME="?_wcgmIsEnabledGenlockI3D@@3P6GHPAUHDC__@@PAH@ZA" PURGE="-1" COMMENT="" />
    <EXPORT ORDINAL="251" NAME="?_wcgmJoinSwapGroupNV@@3P6GHPAUHDC__@@I@ZA" PURGE="-1" COMMENT="" />
    <EXPORT ORDINAL="252" NAME="?_wcgmLoadDisplayColorTableEXT@@3P6GEPAGI@ZA" PURGE="-1" COMMENT="" />
    <EXPORT ORDINAL="253" NAME="?_wcgmMakeContextCurrentARB@@3P6GHPAUHDC__@@0PAUHGLRC__@@@ZA" PURGE="-1" COMMENT="" />
    <EXPORT ORDINAL="254" NAME="?_wcgmMakeContextCurrentEXT@@3P6GHPAUHDC__@@0PAUHGLRC__@@@ZA" PURGE="-1" COMMENT="" />
    <EXPORT ORDINAL="255" NAME="?_wcgmQueryCurrentContextNV@@3P6GHHPAH@ZA" PURGE="-1" COMMENT="" />
    <EXPORT ORDINAL="256" NAME="?_wcgmQueryFrameCountNV@@3P6GHPAUHDC__@@PAI@ZA" PURGE="-1" COMMENT="" />
    <EXPORT ORDINAL="257" NAME="?_wcgmQueryFrameLockMasterI3D@@3P6GHPAH@ZA" PURGE="-1" COMMENT="" />
    <EXPORT ORDINAL="258" NAME="?_wcgmQueryFrameTrackingI3D@@3P6GHPAK0PAM@ZA" PURGE="-1" COMMENT="" />
    <EXPORT ORDINAL="259" NAME="?_wcgmQueryGenlockMaxSourceDelayI3D@@3P6GHPAUHDC__@@PAI1@ZA" PURGE="-1" COMMENT="" />
    <EXPORT ORDINAL="260" NAME="?_wcgmQueryMaxSwapGroupsNV@@3P6GHPAUHDC__@@PAI1@ZA" PURGE="-1" COMMENT="" />
    <EXPORT ORDINAL="261" NAME="?_wcgmQueryPbufferARB@@3P6GHPAUHPBUFFERARB__@@HPAH@ZA" PURGE="-1" COMMENT="" />
    <EXPORT ORDINAL="262" NAME="?_wcgmQueryPbufferEXT@@3P6GHPAUHPBUFFEREXT__@@HPAH@ZA" PURGE="-1" COMMENT="" />
    <EXPORT ORDINAL="263" NAME="?_wcgmQuerySwapGroupNV@@3P6GHPAUHDC__@@PAI@ZA" PURGE="-1" COMMENT="" />
    <EXPORT ORDINAL="264" NAME="?_wcgmReleaseImageBufferEventsI3D@@3P6GHPAUHDC__@@PAPAXI@ZA" PURGE="-1" COMMENT="" />
    <EXPORT ORDINAL="265" NAME="?_wcgmReleasePbufferDCARB@@3P6GHPAUHPBUFFERARB__@@PAUHDC__@@@ZA" PURGE="-1" COMMENT="" />
    <EXPORT ORDINAL="266" NAME="?_wcgmReleasePbufferDCEXT@@3P6GHPAUHPBUFFEREXT__@@PAUHDC__@@@ZA" PURGE="-1" COMMENT="" />
    <EXPORT ORDINAL="267" NAME="?_wcgmReleaseTexImageARB@@3P6GHPAUHPBUFFERARB__@@H@ZA" PURGE="-1" COMMENT="" />
    <EXPORT ORDINAL="268" NAME="?_wcgmReleaseVideoDeviceNV@@3P6GHPAUHPVIDEODEV__@@@ZA" PURGE="-1" COMMENT="" />
    <EXPORT ORDINAL="269" NAME="?_wcgmReleaseVideoImageNV@@3P6GHPAUHPBUFFERARB__@@H@ZA" PURGE="-1" COMMENT="" />
    <EXPORT ORDINAL="270" NAME="?_wcgmResetFrameCountNV@@3P6GHPAUHDC__@@@ZA" PURGE="-1" COMMENT="" />
    <EXPORT ORDINAL="271" NAME="?_wcgmRestoreBufferRegionARB@@3P6GHPAXHHHHHH@ZA" PURGE="-1" COMMENT="" />
    <EXPORT ORDINAL="272" NAME="?_wcgmSaveBufferRegionARB@@3P6GHPAXHHHH@ZA" PURGE="-1" COMMENT="" />
    <EXPORT ORDINAL="273" NAME="?_wcgmSendPbufferToVideoNV@@3P6GHPAUHPBUFFERARB__@@HPAKH@ZA" PURGE="-1" COMMENT="" />
    <EXPORT ORDINAL="274" NAME="?_wcgmSetDigitalVideoParametersI3D@@3P6GHPAUHDC__@@HPBH@ZA" PURGE="-1" COMMENT="" />
    <EXPORT ORDINAL="275" NAME="?_wcgmSetGammaTableI3D@@3P6GHPAUHDC__@@HPBG11@ZA" PURGE="-1" COMMENT="" />
    <EXPORT ORDINAL="276" NAME="?_wcgmSetGammaTableParametersI3D@@3P6GHPAUHDC__@@HPBH@ZA" PURGE="-1" COMMENT="" />
    <EXPORT ORDINAL="277" NAME="?_wcgmSetPbufferAttribARB@@3P6GHPAUHPBUFFERARB__@@PBH@ZA" PURGE="-1" COMMENT="" />
    <EXPORT ORDINAL="278" NAME="?_wcgmSetStereoEmitterState3DL@@3P6GHPAUHDC__@@I@ZA" PURGE="-1" COMMENT="" />
    <EXPORT ORDINAL="279" NAME="?_wcgmSwapBuffersMscOML@@3P6G_JPAUHDC__@@_J11@ZA" PURGE="-1" COMMENT="" />
    <EXPORT ORDINAL="280" NAME="?_wcgmSwapIntervalEXT@@3P6GHH@ZA" PURGE="-1" COMMENT="" />
    <EXPORT ORDINAL="281" NAME="?_wcgmSwapLayerBuffersMscOML@@3P6G_JPAUHDC__@@H_J11@ZA" PURGE="-1" COMMENT="" />
    <EXPORT ORDINAL="282" NAME="?_wcgmWaitForMscOML@@3P6GHPAUHDC__@@_J11PA_J22@ZA" PURGE="-1" COMMENT="" />
    <EXPORT ORDINAL="283" NAME="?_wcgmWaitForSbcOML@@3P6GHPAUHDC__@@_JPA_J22@ZA" PURGE="-1" COMMENT="" />
    <EXPORT ORDINAL="284" NAME="?activeTexture@StateObject_2_0@OGL@AIF@@QBEIXZ" PURGE="0" COMMENT="" />
    <EXPORT ORDINAL="285" NAME="?activeTextureUnit@TextureState@OGL@AIF@@YAIXZ" PURGE="0" COMMENT="" />
    <EXPORT ORDINAL="286" NAME="?addInterceptor@OpenGLInterceptor@OGL@AIF@@QAEXPAVOpenGLInterceptorDecorator@23@@Z" PURGE="4" COMMENT="" />
    <EXPORT ORDINAL="287" NAME="?addInterceptor@wglInterceptor@OGL@AIF@@QAEXPAVwglInterceptorDecorator@23@@Z" PURGE="4" COMMENT="" />
    <EXPORT ORDINAL="288" NAME="?additionalVersionInfo@ExtensionManager@OGL@AIF@@QBE?AV?$basic_string@DU?$char_traits@D@std@@V?$AIFAllocator@D@AIF@@@std@@XZ" PURGE="4" COMMENT="" />
    <EXPORT ORDINAL="289" NAME="?alignment@PixelUnpackParameters@OGL@AIF@@QBE?AW4teAlignment@123@XZ" PURGE="0" COMMENT="" />
    <EXPORT ORDINAL="290" NAME="?alphaBits@BufferFormat@OGL@AIF@@QBEIXZ" PURGE="0" COMMENT="" />
    <EXPORT ORDINAL="291" NAME="?apply@PixelUnpackParameters@OGL@AIF@@QBEXXZ" PURGE="-1" COMMENT="" />
    <EXPORT ORDINAL="292" NAME="?assertActiveUniformType@Program@OGL@AIF@@QBEXHII@Z" PURGE="12" COMMENT="" />
    <EXPORT ORDINAL="293" NAME="?attach@Framebuffer@OGL@AIF@@QAEXPAVRenderbuffer@23@I@Z" PURGE="8" COMMENT="" />
    <EXPORT ORDINAL="294" NAME="?attach@Framebuffer@OGL@AIF@@QAEXPAVTexture2@23@II@Z" PURGE="12" COMMENT="" />
    <EXPORT ORDINAL="295" NAME="?attach@Program@OGL@AIF@@QAEXPAVFragmentShader@23@@Z" PURGE="4" COMMENT="" />
    <EXPORT ORDINAL="296" NAME="?attach@Program@OGL@AIF@@QAEXPAVVertexShader@23@@Z" PURGE="4" COMMENT="" />
    <EXPORT ORDINAL="297" NAME="?attachment@Renderbuffer@OGL@AIF@@IBEIXZ" PURGE="0" COMMENT="" />
    <EXPORT ORDINAL="298" NAME="?binaryOutputStream@OpenGLRekorder@OGL@AIF@@QAEPAV?$basic_ostream@DU?$char_traits@D@std@@@std@@XZ" PURGE="0" COMMENT="" />
    <EXPORT ORDINAL="299" NAME="?binaryOutputStream@OpenGLRekorder@OGL@AIF@@QBEPBV?$basic_ostream@DU?$char_traits@D@std@@@std@@XZ" PURGE="0" COMMENT="" />
    <EXPORT ORDINAL="300" NAME="?bind1DDefault@TextureUnit@OGL@AIF@@QBEXXZ" PURGE="0" COMMENT="" />
    <EXPORT ORDINAL="301" NAME="?bind2DDefault@TextureUnit@OGL@AIF@@QBEXXZ" PURGE="0" COMMENT="" />
    <EXPORT ORDINAL="302" NAME="?bind3DDefault@TextureUnit@OGL@AIF@@QBEXXZ" PURGE="0" COMMENT="" />
    <EXPORT ORDINAL="303" NAME="?bind@Buffer@OGL@AIF@@QAEXXZ" PURGE="0" COMMENT="" />
    <EXPORT ORDINAL="304" NAME="?bind@Framebuffer@OGL@AIF@@QAEXXZ" PURGE="0" COMMENT="" />
    <EXPORT ORDINAL="305" NAME="?bind@Renderbuffer@OGL@AIF@@QAEXXZ" PURGE="0" COMMENT="" />
    <EXPORT ORDINAL="306" NAME="?bind@TextureUnit@OGL@AIF@@QBEXPBVTexture1D@23@@Z" PURGE="4" COMMENT="" />
    <EXPORT ORDINAL="307" NAME="?bind@TextureUnit@OGL@AIF@@QBEXPBVTexture2D@23@@Z" PURGE="4" COMMENT="" />
    <EXPORT ORDINAL="308" NAME="?bind@TextureUnit@OGL@AIF@@QBEXPBVTexture3D@23@@Z" PURGE="4" COMMENT="" />
    <EXPORT ORDINAL="309" NAME="?bind@TextureUnit@OGL@AIF@@QBEXPBVTextureRECT@23@@Z" PURGE="4" COMMENT="" />
    <EXPORT ORDINAL="310" NAME="?bindDefaultArrayBuffer@Buffer@OGL@AIF@@SAXXZ" PURGE="0" COMMENT="" />
    <EXPORT ORDINAL="311" NAME="?bindDefaultElementArrayBuffer@Buffer@OGL@AIF@@SAXXZ" PURGE="0" COMMENT="" />
    <EXPORT ORDINAL="312" NAME="?bindDefaultPackBuffer@Buffer@OGL@AIF@@SAXXZ" PURGE="0" COMMENT="" />
    <EXPORT ORDINAL="313" NAME="?bindDefaultUnpackBuffer@Buffer@OGL@AIF@@SAXXZ" PURGE="0" COMMENT="" />
    <EXPORT ORDINAL="314" NAME="?bindRECTDefault@TextureUnit@OGL@AIF@@QBEXXZ" PURGE="0" COMMENT="" />
    <EXPORT ORDINAL="315" NAME="?blueBits@BufferFormat@OGL@AIF@@QBEIXZ" PURGE="0" COMMENT="" />
    <EXPORT ORDINAL="316" NAME="?cgmAccum@OpenGLErrorChecker@OGL@AIF@@UAEXPBDIIM@Z" PURGE="16" COMMENT="" />
    <EXPORT ORDINAL="317" NAME="?cgmAccum@OpenGLRekorder@OGL@AIF@@UAEXPBDIIM@Z" PURGE="16" COMMENT="" />
    <EXPORT ORDINAL="318" NAME="?cgmAccum@OpenGLTracer@OGL@AIF@@UAEXPBDIIM@Z" PURGE="16" COMMENT="" />
    <EXPORT ORDINAL="319" NAME="?cgmActiveStencilFaceEXT@OpenGLErrorChecker@OGL@AIF@@UAEXPBDII@Z" PURGE="12" COMMENT="" />
    <EXPORT ORDINAL="320" NAME="?cgmActiveStencilFaceEXT@OpenGLRekorder@OGL@AIF@@UAEXPBDII@Z" PURGE="12" COMMENT="" />
    <EXPORT ORDINAL="321" NAME="?cgmActiveStencilFaceEXT@OpenGLTracer@OGL@AIF@@UAEXPBDII@Z" PURGE="12" COMMENT="" />
    <EXPORT ORDINAL="322" NAME="?cgmActiveTexture@OpenGLErrorChecker@OGL@AIF@@UAEXPBDII@Z" PURGE="12" COMMENT="" />
    <EXPORT ORDINAL="323" NAME="?cgmActiveTexture@OpenGLRekorder@OGL@AIF@@UAEXPBDII@Z" PURGE="12" COMMENT="" />
    <EXPORT ORDINAL="324" NAME="?cgmActiveTexture@OpenGLTracer@OGL@AIF@@UAEXPBDII@Z" PURGE="12" COMMENT="" />
    <EXPORT ORDINAL="325" NAME="?cgmActiveTextureARB@OpenGLErrorChecker@OGL@AIF@@UAEXPBDII@Z" PURGE="12" COMMENT="" />
    <EXPORT ORDINAL="326" NAME="?cgmActiveTextureARB@OpenGLRekorder@OGL@AIF@@UAEXPBDII@Z" PURGE="12" COMMENT="" />
    <EXPORT ORDINAL="327" NAME="?cgmActiveTextureARB@OpenGLTracer@OGL@AIF@@UAEXPBDII@Z" PURGE="12" COMMENT="" />
    <EXPORT ORDINAL="328" NAME="?cgmActiveVaryingNV@OpenGLErrorChecker@OGL@AIF@@UAEXPBDII0@Z" PURGE="16" COMMENT="" />
    <EXPORT ORDINAL="329" NAME="?cgmActiveVaryingNV@OpenGLRekorder@OGL@AIF@@UAEXPBDII0@Z" PURGE="-1" COMMENT="" />
    <EXPORT ORDINAL="330" NAME="?cgmActiveVaryingNV@OpenGLTracer@OGL@AIF@@UAEXPBDII0@Z" PURGE="16" COMMENT="" />
    <EXPORT ORDINAL="331" NAME="?cgmAddSwapHintRectWIN@OpenGLErrorChecker@OGL@AIF@@UAEXPBDIHHHH@Z" PURGE="24" COMMENT="" />
    <EXPORT ORDINAL="332" NAME="?cgmAddSwapHintRectWIN@OpenGLRekorder@OGL@AIF@@UAEXPBDIHHHH@Z" PURGE="24" COMMENT="" />
    <EXPORT ORDINAL="333" NAME="?cgmAddSwapHintRectWIN@OpenGLTracer@OGL@AIF@@UAEXPBDIHHHH@Z" PURGE="24" COMMENT="" />
    <EXPORT ORDINAL="334" NAME="?cgmAlphaFragmentOp1ATI@OpenGLErrorChecker@OGL@AIF@@UAEXPBDIIIIIII@Z" PURGE="32" COMMENT="" />
    <EXPORT ORDINAL="335" NAME="?cgmAlphaFragmentOp1ATI@OpenGLRekorder@OGL@AIF@@UAEXPBDIIIIIII@Z" PURGE="32" COMMENT="" />
    <EXPORT ORDINAL="336" NAME="?cgmAlphaFragmentOp1ATI@OpenGLTracer@OGL@AIF@@UAEXPBDIIIIIII@Z" PURGE="32" COMMENT="" />
    <EXPORT ORDINAL="337" NAME="?cgmAlphaFragmentOp2ATI@OpenGLErrorChecker@OGL@AIF@@UAEXPBDIIIIIIIIII@Z" PURGE="44" COMMENT="" />
    <EXPORT ORDINAL="338" NAME="?cgmAlphaFragmentOp2ATI@OpenGLRekorder@OGL@AIF@@UAEXPBDIIIIIIIIII@Z" PURGE="44" COMMENT="" />
    <EXPORT ORDINAL="339" NAME="?cgmAlphaFragmentOp2ATI@OpenGLTracer@OGL@AIF@@UAEXPBDIIIIIIIIII@Z" PURGE="44" COMMENT="" />
    <EXPORT ORDINAL="340" NAME="?cgmAlphaFragmentOp3ATI@OpenGLErrorChecker@OGL@AIF@@UAEXPBDIIIIIIIIIIIII@Z" PURGE="56" COMMENT="" />
    <EXPORT ORDINAL="341" NAME="?cgmAlphaFragmentOp3ATI@OpenGLRekorder@OGL@AIF@@UAEXPBDIIIIIIIIIIIII@Z" PURGE="56" COMMENT="" />
    <EXPORT ORDINAL="342" NAME="?cgmAlphaFragmentOp3ATI@OpenGLTracer@OGL@AIF@@UAEXPBDIIIIIIIIIIIII@Z" PURGE="56" COMMENT="" />
    <EXPORT ORDINAL="343" NAME="?cgmAlphaFunc@OpenGLErrorChecker@OGL@AIF@@UAEXPBDIIM@Z" PURGE="16" COMMENT="" />
    <EXPORT ORDINAL="344" NAME="?cgmAlphaFunc@OpenGLRekorder@OGL@AIF@@UAEXPBDIIM@Z" PURGE="16" COMMENT="" />
    <EXPORT ORDINAL="345" NAME="?cgmAlphaFunc@OpenGLTracer@OGL@AIF@@UAEXPBDIIM@Z" PURGE="16" COMMENT="" />
    <EXPORT ORDINAL="346" NAME="?cgmApplyTextureEXT@OpenGLErrorChecker@OGL@AIF@@UAEXPBDII@Z" PURGE="12" COMMENT="" />
    <EXPORT ORDINAL="347" NAME="?cgmApplyTextureEXT@OpenGLRekorder@OGL@AIF@@UAEXPBDII@Z" PURGE="12" COMMENT="" />
    <EXPORT ORDINAL="348" NAME="?cgmApplyTextureEXT@OpenGLTracer@OGL@AIF@@UAEXPBDII@Z" PURGE="12" COMMENT="" />
    <EXPORT ORDINAL="349" NAME="?cgmAreProgramsResidentNV@OpenGLErrorChecker@OGL@AIF@@UAEEPBDIHPBIPAE@Z" PURGE="20" COMMENT="" />
    <EXPORT ORDINAL="350" NAME="?cgmAreProgramsResidentNV@OpenGLRekorder@OGL@AIF@@UAEEPBDIHPBIPAE@Z" PURGE="-1" COMMENT="" />
    <EXPORT ORDINAL="351" NAME="?cgmAreProgramsResidentNV@OpenGLTracer@OGL@AIF@@UAEEPBDIHPBIPAE@Z" PURGE="20" COMMENT="" />
    <EXPORT ORDINAL="352" NAME="?cgmAreTexturesResident@OpenGLErrorChecker@OGL@AIF@@UAEEPBDIHPBIPAE@Z" PURGE="20" COMMENT="" />
    <EXPORT ORDINAL="353" NAME="?cgmAreTexturesResident@OpenGLRekorder@OGL@AIF@@UAEEPBDIHPBIPAE@Z" PURGE="-1" COMMENT="" />
    <EXPORT ORDINAL="354" NAME="?cgmAreTexturesResident@OpenGLTracer@OGL@AIF@@UAEEPBDIHPBIPAE@Z" PURGE="20" COMMENT="" />
    <EXPORT ORDINAL="355" NAME="?cgmAreTexturesResidentEXT@OpenGLErrorChecker@OGL@AIF@@UAEEPBDIHPBIPAE@Z" PURGE="20" COMMENT="" />
    <EXPORT ORDINAL="356" NAME="?cgmAreTexturesResidentEXT@OpenGLRekorder@OGL@AIF@@UAEEPBDIHPBIPAE@Z" PURGE="-1" COMMENT="" />
    <EXPORT ORDINAL="357" NAME="?cgmAreTexturesResidentEXT@OpenGLTracer@OGL@AIF@@UAEEPBDIHPBIPAE@Z" PURGE="20" COMMENT="" />
    <EXPORT ORDINAL="358" NAME="?cgmArrayElement@OpenGLErrorChecker@OGL@AIF@@UAEXPBDIH@Z" PURGE="12" COMMENT="" />
    <EXPORT ORDINAL="359" NAME="?cgmArrayElement@OpenGLRekorder@OGL@AIF@@UAEXPBDIH@Z" PURGE="12" COMMENT="" />
    <EXPORT ORDINAL="360" NAME="?cgmArrayElement@OpenGLTracer@OGL@AIF@@UAEXPBDIH@Z" PURGE="12" COMMENT="" />
    <EXPORT ORDINAL="361" NAME="?cgmArrayElementEXT@OpenGLErrorChecker@OGL@AIF@@UAEXPBDIH@Z" PURGE="12" COMMENT="" />
    <EXPORT ORDINAL="362" NAME="?cgmArrayElementEXT@OpenGLRekorder@OGL@AIF@@UAEXPBDIH@Z" PURGE="12" COMMENT="" />
    <EXPORT ORDINAL="363" NAME="?cgmArrayElementEXT@OpenGLTracer@OGL@AIF@@UAEXPBDIH@Z" PURGE="12" COMMENT="" />
    <EXPORT ORDINAL="364" NAME="?cgmArrayObjectATI@OpenGLErrorChecker@OGL@AIF@@UAEXPBDIIHIHII@Z" PURGE="32" COMMENT="" />
    <EXPORT ORDINAL="365" NAME="?cgmArrayObjectATI@OpenGLRekorder@OGL@AIF@@UAEXPBDIIHIHII@Z" PURGE="32" COMMENT="" />
    <EXPORT ORDINAL="366" NAME="?cgmArrayObjectATI@OpenGLTracer@OGL@AIF@@UAEXPBDIIHIHII@Z" PURGE="32" COMMENT="" />
    <EXPORT ORDINAL="367" NAME="?cgmAsyncMarkerSGIX@OpenGLErrorChecker@OGL@AIF@@UAEXPBDII@Z" PURGE="12" COMMENT="" />
    <EXPORT ORDINAL="368" NAME="?cgmAsyncMarkerSGIX@OpenGLRekorder@OGL@AIF@@UAEXPBDII@Z" PURGE="12" COMMENT="" />
    <EXPORT ORDINAL="369" NAME="?cgmAsyncMarkerSGIX@OpenGLTracer@OGL@AIF@@UAEXPBDII@Z" PURGE="12" COMMENT="" />
    <EXPORT ORDINAL="370" NAME="?cgmAttachObjectARB@OpenGLErrorChecker@OGL@AIF@@UAEXPBDIII@Z" PURGE="16" COMMENT="" />
    <EXPORT ORDINAL="371" NAME="?cgmAttachObjectARB@OpenGLRekorder@OGL@AIF@@UAEXPBDIII@Z" PURGE="16" COMMENT="" />
    <EXPORT ORDINAL="372" NAME="?cgmAttachObjectARB@OpenGLTracer@OGL@AIF@@UAEXPBDIII@Z" PURGE="16" COMMENT="" />
    <EXPORT ORDINAL="373" NAME="?cgmAttachShader@OpenGLErrorChecker@OGL@AIF@@UAEXPBDIII@Z" PURGE="16" COMMENT="" />
    <EXPORT ORDINAL="374" NAME="?cgmAttachShader@OpenGLRekorder@OGL@AIF@@UAEXPBDIII@Z" PURGE="16" COMMENT="" />
    <EXPORT ORDINAL="375" NAME="?cgmAttachShader@OpenGLTracer@OGL@AIF@@UAEXPBDIII@Z" PURGE="16" COMMENT="" />
    <EXPORT ORDINAL="376" NAME="?cgmBegin@OpenGLErrorChecker@OGL@AIF@@UAEXPBDII@Z" PURGE="12" COMMENT="" />
    <EXPORT ORDINAL="377" NAME="?cgmBegin@OpenGLRekorder@OGL@AIF@@UAEXPBDII@Z" PURGE="12" COMMENT="" />
    <EXPORT ORDINAL="378" NAME="?cgmBegin@OpenGLTracer@OGL@AIF@@UAEXPBDII@Z" PURGE="12" COMMENT="" />
    <EXPORT ORDINAL="379" NAME="?cgmBeginConditionalRender@OpenGLErrorChecker@OGL@AIF@@UAEXPBDIII@Z" PURGE="16" COMMENT="" />
    <EXPORT ORDINAL="380" NAME="?cgmBeginConditionalRender@OpenGLRekorder@OGL@AIF@@UAEXPBDIII@Z" PURGE="16" COMMENT="" />
    <EXPORT ORDINAL="381" NAME="?cgmBeginConditionalRender@OpenGLTracer@OGL@AIF@@UAEXPBDIII@Z" PURGE="16" COMMENT="" />
    <EXPORT ORDINAL="382" NAME="?cgmBeginConditionalRenderNV@OpenGLErrorChecker@OGL@AIF@@UAEXPBDIII@Z" PURGE="16" COMMENT="" />
    <EXPORT ORDINAL="383" NAME="?cgmBeginConditionalRenderNV@OpenGLRekorder@OGL@AIF@@UAEXPBDIII@Z" PURGE="16" COMMENT="" />
    <EXPORT ORDINAL="384" NAME="?cgmBeginConditionalRenderNV@OpenGLTracer@OGL@AIF@@UAEXPBDIII@Z" PURGE="16" COMMENT="" />
    <EXPORT ORDINAL="385" NAME="?cgmBeginFragmentShaderATI@OpenGLErrorChecker@OGL@AIF@@UAEXPBDI@Z" PURGE="8" COMMENT="" />
    <EXPORT ORDINAL="386" NAME="?cgmBeginFragmentShaderATI@OpenGLRekorder@OGL@AIF@@UAEXPBDI@Z" PURGE="8" COMMENT="" />
    <EXPORT ORDINAL="387" NAME="?cgmBeginFragmentShaderATI@OpenGLTracer@OGL@AIF@@UAEXPBDI@Z" PURGE="8" COMMENT="" />
    <EXPORT ORDINAL="388" NAME="?cgmBeginOcclusionQueryNV@OpenGLErrorChecker@OGL@AIF@@UAEXPBDII@Z" PURGE="12" COMMENT="" />
    <EXPORT ORDINAL="389" NAME="?cgmBeginOcclusionQueryNV@OpenGLRekorder@OGL@AIF@@UAEXPBDII@Z" PURGE="12" COMMENT="" />
    <EXPORT ORDINAL="390" NAME="?cgmBeginOcclusionQueryNV@OpenGLTracer@OGL@AIF@@UAEXPBDII@Z" PURGE="12" COMMENT="" />
    <EXPORT ORDINAL="391" NAME="?cgmBeginQuery@OpenGLErrorChecker@OGL@AIF@@UAEXPBDIII@Z" PURGE="16" COMMENT="" />
    <EXPORT ORDINAL="392" NAME="?cgmBeginQuery@OpenGLRekorder@OGL@AIF@@UAEXPBDIII@Z" PURGE="16" COMMENT="" />
    <EXPORT ORDINAL="393" NAME="?cgmBeginQuery@OpenGLTracer@OGL@AIF@@UAEXPBDIII@Z" PURGE="16" COMMENT="" />
    <EXPORT ORDINAL="394" NAME="?cgmBeginQueryARB@OpenGLErrorChecker@OGL@AIF@@UAEXPBDIII@Z" PURGE="16" COMMENT="" />
    <EXPORT ORDINAL="395" NAME="?cgmBeginQueryARB@OpenGLRekorder@OGL@AIF@@UAEXPBDIII@Z" PURGE="16" COMMENT="" />
    <EXPORT ORDINAL="396" NAME="?cgmBeginQueryARB@OpenGLTracer@OGL@AIF@@UAEXPBDIII@Z" PURGE="16" COMMENT="" />
    <EXPORT ORDINAL="397" NAME="?cgmBeginSceneEXT@OpenGLErrorChecker@OGL@AIF@@UAEXPBDI@Z" PURGE="8" COMMENT="" />
    <EXPORT ORDINAL="398" NAME="?cgmBeginSceneEXT@OpenGLRekorder@OGL@AIF@@UAEXPBDI@Z" PURGE="8" COMMENT="" />
    <EXPORT ORDINAL="399" NAME="?cgmBeginSceneEXT@OpenGLTracer@OGL@AIF@@UAEXPBDI@Z" PURGE="8" COMMENT="" />
    <EXPORT ORDINAL="400" NAME="?cgmBeginTransformFeedback@OpenGLErrorChecker@OGL@AIF@@UAEXPBDII@Z" PURGE="12" COMMENT="" />
    <EXPORT ORDINAL="401" NAME="?cgmBeginTransformFeedback@OpenGLRekorder@OGL@AIF@@UAEXPBDII@Z" PURGE="12" COMMENT="" />
    <EXPORT ORDINAL="402" NAME="?cgmBeginTransformFeedback@OpenGLTracer@OGL@AIF@@UAEXPBDII@Z" PURGE="12" COMMENT="" />
    <EXPORT ORDINAL="403" NAME="?cgmBeginTransformFeedbackEXT@OpenGLErrorChecker@OGL@AIF@@UAEXPBDII@Z" PURGE="12" COMMENT="" />
    <EXPORT ORDINAL="404" NAME="?cgmBeginTransformFeedbackEXT@OpenGLRekorder@OGL@AIF@@UAEXPBDII@Z" PURGE="12" COMMENT="" />
    <EXPORT ORDINAL="405" NAME="?cgmBeginTransformFeedbackEXT@OpenGLTracer@OGL@AIF@@UAEXPBDII@Z" PURGE="12" COMMENT="" />
    <EXPORT ORDINAL="406" NAME="?cgmBeginTransformFeedbackNV@OpenGLErrorChecker@OGL@AIF@@UAEXPBDII@Z" PURGE="12" COMMENT="" />
    <EXPORT ORDINAL="407" NAME="?cgmBeginTransformFeedbackNV@OpenGLRekorder@OGL@AIF@@UAEXPBDII@Z" PURGE="12" COMMENT="" />
    <EXPORT ORDINAL="408" NAME="?cgmBeginTransformFeedbackNV@OpenGLTracer@OGL@AIF@@UAEXPBDII@Z" PURGE="12" COMMENT="" />
    <EXPORT ORDINAL="409" NAME="?cgmBeginVertexShaderEXT@OpenGLErrorChecker@OGL@AIF@@UAEXPBDI@Z" PURGE="8" COMMENT="" />
    <EXPORT ORDINAL="410" NAME="?cgmBeginVertexShaderEXT@OpenGLRekorder@OGL@AIF@@UAEXPBDI@Z" PURGE="8" COMMENT="" />
    <EXPORT ORDINAL="411" NAME="?cgmBeginVertexShaderEXT@OpenGLTracer@OGL@AIF@@UAEXPBDI@Z" PURGE="8" COMMENT="" />
    <EXPORT ORDINAL="412" NAME="?cgmBindAttribLocation@OpenGLErrorChecker@OGL@AIF@@UAEXPBDIII0@Z" PURGE="20" COMMENT="" />
    <EXPORT ORDINAL="413" NAME="?cgmBindAttribLocation@OpenGLRekorder@OGL@AIF@@UAEXPBDIII0@Z" PURGE="-1" COMMENT="" />
    <EXPORT ORDINAL="414" NAME="?cgmBindAttribLocation@OpenGLTracer@OGL@AIF@@UAEXPBDIII0@Z" PURGE="20" COMMENT="" />
    <EXPORT ORDINAL="415" NAME="?cgmBindAttribLocationARB@OpenGLErrorChecker@OGL@AIF@@UAEXPBDIII0@Z" PURGE="20" COMMENT="" />
    <EXPORT ORDINAL="416" NAME="?cgmBindAttribLocationARB@OpenGLRekorder@OGL@AIF@@UAEXPBDIII0@Z" PURGE="-1" COMMENT="" />
    <EXPORT ORDINAL="417" NAME="?cgmBindAttribLocationARB@OpenGLTracer@OGL@AIF@@UAEXPBDIII0@Z" PURGE="20" COMMENT="" />
    <EXPORT ORDINAL="418" NAME="?cgmBindBuffer@OpenGLErrorChecker@OGL@AIF@@UAEXPBDIII@Z" PURGE="16" COMMENT="" />
    <EXPORT ORDINAL="419" NAME="?cgmBindBuffer@OpenGLRekorder@OGL@AIF@@UAEXPBDIII@Z" PURGE="16" COMMENT="" />
    <EXPORT ORDINAL="420" NAME="?cgmBindBuffer@OpenGLTracer@OGL@AIF@@UAEXPBDIII@Z" PURGE="16" COMMENT="" />
    <EXPORT ORDINAL="421" NAME="?cgmBindBufferARB@OpenGLErrorChecker@OGL@AIF@@UAEXPBDIII@Z" PURGE="16" COMMENT="" />
    <EXPORT ORDINAL="422" NAME="?cgmBindBufferARB@OpenGLRekorder@OGL@AIF@@UAEXPBDIII@Z" PURGE="16" COMMENT="" />
    <EXPORT ORDINAL="423" NAME="?cgmBindBufferARB@OpenGLTracer@OGL@AIF@@UAEXPBDIII@Z" PURGE="16" COMMENT="" />
    <EXPORT ORDINAL="424" NAME="?cgmBindBufferBase@OpenGLErrorChecker@OGL@AIF@@UAEXPBDIIII@Z" PURGE="20" COMMENT="" />
    <EXPORT ORDINAL="425" NAME="?cgmBindBufferBase@OpenGLRekorder@OGL@AIF@@UAEXPBDIIII@Z" PURGE="20" COMMENT="" />
    <EXPORT ORDINAL="426" NAME="?cgmBindBufferBase@OpenGLTracer@OGL@AIF@@UAEXPBDIIII@Z" PURGE="20" COMMENT="" />
    <EXPORT ORDINAL="427" NAME="?cgmBindBufferBaseEXT@OpenGLErrorChecker@OGL@AIF@@UAEXPBDIIII@Z" PURGE="20" COMMENT="" />
    <EXPORT ORDINAL="428" NAME="?cgmBindBufferBaseEXT@OpenGLRekorder@OGL@AIF@@UAEXPBDIIII@Z" PURGE="20" COMMENT="" />
    <EXPORT ORDINAL="429" NAME="?cgmBindBufferBaseEXT@OpenGLTracer@OGL@AIF@@UAEXPBDIIII@Z" PURGE="20" COMMENT="" />
    <EXPORT ORDINAL="430" NAME="?cgmBindBufferBaseNV@OpenGLErrorChecker@OGL@AIF@@UAEXPBDIIII@Z" PURGE="20" COMMENT="" />
    <EXPORT ORDINAL="431" NAME="?cgmBindBufferBaseNV@OpenGLRekorder@OGL@AIF@@UAEXPBDIIII@Z" PURGE="20" COMMENT="" />
    <EXPORT ORDINAL="432" NAME="?cgmBindBufferBaseNV@OpenGLTracer@OGL@AIF@@UAEXPBDIIII@Z" PURGE="20" COMMENT="" />
    <EXPORT ORDINAL="433" NAME="?cgmBindBufferOffsetEXT@OpenGLErrorChecker@OGL@AIF@@UAEXPBDIIIIH@Z" PURGE="24" COMMENT="" />
    <EXPORT ORDINAL="434" NAME="?cgmBindBufferOffsetEXT@OpenGLRekorder@OGL@AIF@@UAEXPBDIIIIH@Z" PURGE="24" COMMENT="" />
    <EXPORT ORDINAL="435" NAME="?cgmBindBufferOffsetEXT@OpenGLTracer@OGL@AIF@@UAEXPBDIIIIH@Z" PURGE="24" COMMENT="" />
    <EXPORT ORDINAL="436" NAME="?cgmBindBufferOffsetNV@OpenGLErrorChecker@OGL@AIF@@UAEXPBDIIIIH@Z" PURGE="24" COMMENT="" />
    <EXPORT ORDINAL="437" NAME="?cgmBindBufferOffsetNV@OpenGLRekorder@OGL@AIF@@UAEXPBDIIIIH@Z" PURGE="24" COMMENT="" />
    <EXPORT ORDINAL="438" NAME="?cgmBindBufferOffsetNV@OpenGLTracer@OGL@AIF@@UAEXPBDIIIIH@Z" PURGE="24" COMMENT="" />
    <EXPORT ORDINAL="439" NAME="?cgmBindBufferRange@OpenGLErrorChecker@OGL@AIF@@UAEXPBDIIIIHH@Z" PURGE="28" COMMENT="" />
    <EXPORT ORDINAL="440" NAME="?cgmBindBufferRange@OpenGLRekorder@OGL@AIF@@UAEXPBDIIIIHH@Z" PURGE="28" COMMENT="" />
    <EXPORT ORDINAL="441" NAME="?cgmBindBufferRange@OpenGLTracer@OGL@AIF@@UAEXPBDIIIIHH@Z" PURGE="28" COMMENT="" />
    <EXPORT ORDINAL="442" NAME="?cgmBindBufferRangeEXT@OpenGLErrorChecker@OGL@AIF@@UAEXPBDIIIIHH@Z" PURGE="28" COMMENT="" />
    <EXPORT ORDINAL="443" NAME="?cgmBindBufferRangeEXT@OpenGLRekorder@OGL@AIF@@UAEXPBDIIIIHH@Z" PURGE="28" COMMENT="" />
    <EXPORT ORDINAL="444" NAME="?cgmBindBufferRangeEXT@OpenGLTracer@OGL@AIF@@UAEXPBDIIIIHH@Z" PURGE="28" COMMENT="" />
    <EXPORT ORDINAL="445" NAME="?cgmBindBufferRangeNV@OpenGLErrorChecker@OGL@AIF@@UAEXPBDIIIIHH@Z" PURGE="28" COMMENT="" />
    <EXPORT ORDINAL="446" NAME="?cgmBindBufferRangeNV@OpenGLRekorder@OGL@AIF@@UAEXPBDIIIIHH@Z" PURGE="28" COMMENT="" />
    <EXPORT ORDINAL="447" NAME="?cgmBindBufferRangeNV@OpenGLTracer@OGL@AIF@@UAEXPBDIIIIHH@Z" PURGE="28" COMMENT="" />
    <EXPORT ORDINAL="448" NAME="?cgmBindFragDataLocation@OpenGLErrorChecker@OGL@AIF@@UAEXPBDIII0@Z" PURGE="20" COMMENT="" />
    <EXPORT ORDINAL="449" NAME="?cgmBindFragDataLocation@OpenGLRekorder@OGL@AIF@@UAEXPBDIII0@Z" PURGE="-1" COMMENT="" />
    <EXPORT ORDINAL="450" NAME="?cgmBindFragDataLocation@OpenGLTracer@OGL@AIF@@UAEXPBDIII0@Z" PURGE="20" COMMENT="" />
    <EXPORT ORDINAL="451" NAME="?cgmBindFragDataLocationEXT@OpenGLErrorChecker@OGL@AIF@@UAEXPBDIII0@Z" PURGE="20" COMMENT="" />
    <EXPORT ORDINAL="452" NAME="?cgmBindFragDataLocationEXT@OpenGLRekorder@OGL@AIF@@UAEXPBDIII0@Z" PURGE="-1" COMMENT="" />
    <EXPORT ORDINAL="453" NAME="?cgmBindFragDataLocationEXT@OpenGLTracer@OGL@AIF@@UAEXPBDIII0@Z" PURGE="20" COMMENT="" />
    <EXPORT ORDINAL="454" NAME="?cgmBindFragmentShaderATI@OpenGLErrorChecker@OGL@AIF@@UAEXPBDII@Z" PURGE="12" COMMENT="" />
    <EXPORT ORDINAL="455" NAME="?cgmBindFragmentShaderATI@OpenGLRekorder@OGL@AIF@@UAEXPBDII@Z" PURGE="12" COMMENT="" />
    <EXPORT ORDINAL="456" NAME="?cgmBindFragmentShaderATI@OpenGLTracer@OGL@AIF@@UAEXPBDII@Z" PURGE="12" COMMENT="" />
    <EXPORT ORDINAL="457" NAME="?cgmBindFramebuffer@OpenGLErrorChecker@OGL@AIF@@UAEXPBDIII@Z" PURGE="16" COMMENT="" />
    <EXPORT ORDINAL="458" NAME="?cgmBindFramebuffer@OpenGLRekorder@OGL@AIF@@UAEXPBDIII@Z" PURGE="16" COMMENT="" />
    <EXPORT ORDINAL="459" NAME="?cgmBindFramebuffer@OpenGLTracer@OGL@AIF@@UAEXPBDIII@Z" PURGE="16" COMMENT="" />
    <EXPORT ORDINAL="460" NAME="?cgmBindFramebufferEXT@OpenGLErrorChecker@OGL@AIF@@UAEXPBDIII@Z" PURGE="16" COMMENT="" />
    <EXPORT ORDINAL="461" NAME="?cgmBindFramebufferEXT@OpenGLRekorder@OGL@AIF@@UAEXPBDIII@Z" PURGE="16" COMMENT="" />
    <EXPORT ORDINAL="462" NAME="?cgmBindFramebufferEXT@OpenGLTracer@OGL@AIF@@UAEXPBDIII@Z" PURGE="16" COMMENT="" />
    <EXPORT ORDINAL="463" NAME="?cgmBindLightParameterEXT@OpenGLErrorChecker@OGL@AIF@@UAEIPBDIII@Z" PURGE="16" COMMENT="" />
    <EXPORT ORDINAL="464" NAME="?cgmBindLightParameterEXT@OpenGLRekorder@OGL@AIF@@UAEIPBDIII@Z" PURGE="16" COMMENT="" />
    <EXPORT ORDINAL="465" NAME="?cgmBindLightParameterEXT@OpenGLTracer@OGL@AIF@@UAEIPBDIII@Z" PURGE="16" COMMENT="" />
    <EXPORT ORDINAL="466" NAME="?cgmBindMaterialParameterEXT@OpenGLErrorChecker@OGL@AIF@@UAEIPBDIII@Z" PURGE="16" COMMENT="" />
    <EXPORT ORDINAL="467" NAME="?cgmBindMaterialParameterEXT@OpenGLRekorder@OGL@AIF@@UAEIPBDIII@Z" PURGE="16" COMMENT="" />
    <EXPORT ORDINAL="468" NAME="?cgmBindMaterialParameterEXT@OpenGLTracer@OGL@AIF@@UAEIPBDIII@Z" PURGE="16" COMMENT="" />
    <EXPORT ORDINAL="469" NAME="?cgmBindMultiTextureEXT@OpenGLErrorChecker@OGL@AIF@@UAEXPBDIIII@Z" PURGE="20" COMMENT="" />
    <EXPORT ORDINAL="470" NAME="?cgmBindMultiTextureEXT@OpenGLRekorder@OGL@AIF@@UAEXPBDIIII@Z" PURGE="20" COMMENT="" />
    <EXPORT ORDINAL="471" NAME="?cgmBindMultiTextureEXT@OpenGLTracer@OGL@AIF@@UAEXPBDIIII@Z" PURGE="20" COMMENT="" />
    <EXPORT ORDINAL="472" NAME="?cgmBindParameterEXT@OpenGLErrorChecker@OGL@AIF@@UAEIPBDII@Z" PURGE="12" COMMENT="" />
    <EXPORT ORDINAL="473" NAME="?cgmBindParameterEXT@OpenGLRekorder@OGL@AIF@@UAEIPBDII@Z" PURGE="12" COMMENT="" />
    <EXPORT ORDINAL="474" NAME="?cgmBindParameterEXT@OpenGLTracer@OGL@AIF@@UAEIPBDII@Z" PURGE="12" COMMENT="" />
    <EXPORT ORDINAL="475" NAME="?cgmBindProgramARB@OpenGLErrorChecker@OGL@AIF@@UAEXPBDIII@Z" PURGE="16" COMMENT="" />
    <EXPORT ORDINAL="476" NAME="?cgmBindProgramARB@OpenGLRekorder@OGL@AIF@@UAEXPBDIII@Z" PURGE="16" COMMENT="" />
    <EXPORT ORDINAL="477" NAME="?cgmBindProgramARB@OpenGLTracer@OGL@AIF@@UAEXPBDIII@Z" PURGE="16" COMMENT="" />
    <EXPORT ORDINAL="478" NAME="?cgmBindProgramNV@OpenGLErrorChecker@OGL@AIF@@UAEXPBDIII@Z" PURGE="16" COMMENT="" />
    <EXPORT ORDINAL="479" NAME="?cgmBindProgramNV@OpenGLRekorder@OGL@AIF@@UAEXPBDIII@Z" PURGE="16" COMMENT="" />
    <EXPORT ORDINAL="480" NAME="?cgmBindProgramNV@OpenGLTracer@OGL@AIF@@UAEXPBDIII@Z" PURGE="16" COMMENT="" />
    <EXPORT ORDINAL="481" NAME="?cgmBindRenderbuffer@OpenGLErrorChecker@OGL@AIF@@UAEXPBDIII@Z" PURGE="16" COMMENT="" />
    <EXPORT ORDINAL="482" NAME="?cgmBindRenderbuffer@OpenGLRekorder@OGL@AIF@@UAEXPBDIII@Z" PURGE="16" COMMENT="" />
    <EXPORT ORDINAL="483" NAME="?cgmBindRenderbuffer@OpenGLTracer@OGL@AIF@@UAEXPBDIII@Z" PURGE="16" COMMENT="" />
    <EXPORT ORDINAL="484" NAME="?cgmBindRenderbufferEXT@OpenGLErrorChecker@OGL@AIF@@UAEXPBDIII@Z" PURGE="16" COMMENT="" />
    <EXPORT ORDINAL="485" NAME="?cgmBindRenderbufferEXT@OpenGLRekorder@OGL@AIF@@UAEXPBDIII@Z" PURGE="16" COMMENT="" />
    <EXPORT ORDINAL="486" NAME="?cgmBindRenderbufferEXT@OpenGLTracer@OGL@AIF@@UAEXPBDIII@Z" PURGE="16" COMMENT="" />
    <EXPORT ORDINAL="487" NAME="?cgmBindTexGenParameterEXT@OpenGLErrorChecker@OGL@AIF@@UAEIPBDIIII@Z" PURGE="20" COMMENT="" />
    <EXPORT ORDINAL="488" NAME="?cgmBindTexGenParameterEXT@OpenGLRekorder@OGL@AIF@@UAEIPBDIIII@Z" PURGE="20" COMMENT="" />
    <EXPORT ORDINAL="489" NAME="?cgmBindTexGenParameterEXT@OpenGLTracer@OGL@AIF@@UAEIPBDIIII@Z" PURGE="20" COMMENT="" />
    <EXPORT ORDINAL="490" NAME="?cgmBindTexture@OpenGLErrorChecker@OGL@AIF@@UAEXPBDIII@Z" PURGE="16" COMMENT="" />
    <EXPORT ORDINAL="491" NAME="?cgmBindTexture@OpenGLRekorder@OGL@AIF@@UAEXPBDIII@Z" PURGE="16" COMMENT="" />
    <EXPORT ORDINAL="492" NAME="?cgmBindTexture@OpenGLTracer@OGL@AIF@@UAEXPBDIII@Z" PURGE="16" COMMENT="" />
    <EXPORT ORDINAL="493" NAME="?cgmBindTextureEXT@OpenGLErrorChecker@OGL@AIF@@UAEXPBDIII@Z" PURGE="16" COMMENT="" />
    <EXPORT ORDINAL="494" NAME="?cgmBindTextureEXT@OpenGLRekorder@OGL@AIF@@UAEXPBDIII@Z" PURGE="16" COMMENT="" />
    <EXPORT ORDINAL="495" NAME="?cgmBindTextureEXT@OpenGLTracer@OGL@AIF@@UAEXPBDIII@Z" PURGE="16" COMMENT="" />
    <EXPORT ORDINAL="496" NAME="?cgmBindTextureUnitParameterEXT@OpenGLErrorChecker@OGL@AIF@@UAEIPBDIII@Z" PURGE="16" COMMENT="" />
    <EXPORT ORDINAL="497" NAME="?cgmBindTextureUnitParameterEXT@OpenGLRekorder@OGL@AIF@@UAEIPBDIII@Z" PURGE="16" COMMENT="" />
    <EXPORT ORDINAL="498" NAME="?cgmBindTextureUnitParameterEXT@OpenGLTracer@OGL@AIF@@UAEIPBDIII@Z" PURGE="16" COMMENT="" />
    <EXPORT ORDINAL="499" NAME="?cgmBindVertexArray@OpenGLErrorChecker@OGL@AIF@@UAEXPBDII@Z" PURGE="12" COMMENT="" />
    <EXPORT ORDINAL="500" NAME="?cgmBindVertexArray@OpenGLRekorder@OGL@AIF@@UAEXPBDII@Z" PURGE="12" COMMENT="" />
    <EXPORT ORDINAL="501" NAME="?cgmBindVertexArray@OpenGLTracer@OGL@AIF@@UAEXPBDII@Z" PURGE="12" COMMENT="" />
    <EXPORT ORDINAL="502" NAME="?cgmBindVertexArrayAPPLE@OpenGLErrorChecker@OGL@AIF@@UAEXPBDII@Z" PURGE="12" COMMENT="" />
    <EXPORT ORDINAL="503" NAME="?cgmBindVertexArrayAPPLE@OpenGLRekorder@OGL@AIF@@UAEXPBDII@Z" PURGE="12" COMMENT="" />
    <EXPORT ORDINAL="504" NAME="?cgmBindVertexArrayAPPLE@OpenGLTracer@OGL@AIF@@UAEXPBDII@Z" PURGE="12" COMMENT="" />
    <EXPORT ORDINAL="505" NAME="?cgmBindVertexShaderEXT@OpenGLErrorChecker@OGL@AIF@@UAEXPBDII@Z" PURGE="12" COMMENT="" />
    <EXPORT ORDINAL="506" NAME="?cgmBindVertexShaderEXT@OpenGLRekorder@OGL@AIF@@UAEXPBDII@Z" PURGE="12" COMMENT="" />
    <EXPORT ORDINAL="507" NAME="?cgmBindVertexShaderEXT@OpenGLTracer@OGL@AIF@@UAEXPBDII@Z" PURGE="12" COMMENT="" />
    <EXPORT ORDINAL="508" NAME="?cgmBinormalPointerEXT@OpenGLErrorChecker@OGL@AIF@@UAEXPBDIIHPAX@Z" PURGE="20" COMMENT="" />
    <EXPORT ORDINAL="509" NAME="?cgmBinormalPointerEXT@OpenGLRekorder@OGL@AIF@@UAEXPBDIIHPAX@Z" PURGE="-1" COMMENT="" />
    <EXPORT ORDINAL="510" NAME="?cgmBinormalPointerEXT@OpenGLTracer@OGL@AIF@@UAEXPBDIIHPAX@Z" PURGE="20" COMMENT="" />
    <EXPORT ORDINAL="511" NAME="?cgmBitmap@OpenGLErrorChecker@OGL@AIF@@UAEXPBDIHHMMMMPBE@Z" PURGE="36" COMMENT="" />
    <EXPORT ORDINAL="512" NAME="?cgmBitmap@OpenGLRekorder@OGL@AIF@@UAEXPBDIHHMMMMPBE@Z" PURGE="36" COMMENT="" />
    <EXPORT ORDINAL="513" NAME="?cgmBitmap@OpenGLTracer@OGL@AIF@@UAEXPBDIHHMMMMPBE@Z" PURGE="36" COMMENT="" />
    <EXPORT ORDINAL="514" NAME="?cgmBlendColor@OpenGLErrorChecker@OGL@AIF@@UAEXPBDIMMMM@Z" PURGE="24" COMMENT="" />
    <EXPORT ORDINAL="515" NAME="?cgmBlendColor@OpenGLRekorder@OGL@AIF@@UAEXPBDIMMMM@Z" PURGE="24" COMMENT="" />
    <EXPORT ORDINAL="516" NAME="?cgmBlendColor@OpenGLTracer@OGL@AIF@@UAEXPBDIMMMM@Z" PURGE="24" COMMENT="" />
    <EXPORT ORDINAL="517" NAME="?cgmBlendColorEXT@OpenGLErrorChecker@OGL@AIF@@UAEXPBDIMMMM@Z" PURGE="24" COMMENT="" />
    <EXPORT ORDINAL="518" NAME="?cgmBlendColorEXT@OpenGLRekorder@OGL@AIF@@UAEXPBDIMMMM@Z" PURGE="24" COMMENT="" />
    <EXPORT ORDINAL="519" NAME="?cgmBlendColorEXT@OpenGLTracer@OGL@AIF@@UAEXPBDIMMMM@Z" PURGE="24" COMMENT="" />
    <EXPORT ORDINAL="520" NAME="?cgmBlendEquation@OpenGLErrorChecker@OGL@AIF@@UAEXPBDII@Z" PURGE="12" COMMENT="" />
    <EXPORT ORDINAL="521" NAME="?cgmBlendEquation@OpenGLRekorder@OGL@AIF@@UAEXPBDII@Z" PURGE="12" COMMENT="" />
    <EXPORT ORDINAL="522" NAME="?cgmBlendEquation@OpenGLTracer@OGL@AIF@@UAEXPBDII@Z" PURGE="12" COMMENT="" />
    <EXPORT ORDINAL="523" NAME="?cgmBlendEquationEXT@OpenGLErrorChecker@OGL@AIF@@UAEXPBDII@Z" PURGE="12" COMMENT="" />
    <EXPORT ORDINAL="524" NAME="?cgmBlendEquationEXT@OpenGLRekorder@OGL@AIF@@UAEXPBDII@Z" PURGE="12" COMMENT="" />
    <EXPORT ORDINAL="525" NAME="?cgmBlendEquationEXT@OpenGLTracer@OGL@AIF@@UAEXPBDII@Z" PURGE="12" COMMENT="" />
    <EXPORT ORDINAL="526" NAME="?cgmBlendEquationSeparate@OpenGLErrorChecker@OGL@AIF@@UAEXPBDIII@Z" PURGE="16" COMMENT="" />
    <EXPORT ORDINAL="527" NAME="?cgmBlendEquationSeparate@OpenGLRekorder@OGL@AIF@@UAEXPBDIII@Z" PURGE="16" COMMENT="" />
    <EXPORT ORDINAL="528" NAME="?cgmBlendEquationSeparate@OpenGLTracer@OGL@AIF@@UAEXPBDIII@Z" PURGE="16" COMMENT="" />
    <EXPORT ORDINAL="529" NAME="?cgmBlendEquationSeparateEXT@OpenGLErrorChecker@OGL@AIF@@UAEXPBDIII@Z" PURGE="16" COMMENT="" />
    <EXPORT ORDINAL="530" NAME="?cgmBlendEquationSeparateEXT@OpenGLRekorder@OGL@AIF@@UAEXPBDIII@Z" PURGE="16" COMMENT="" />
    <EXPORT ORDINAL="531" NAME="?cgmBlendEquationSeparateEXT@OpenGLTracer@OGL@AIF@@UAEXPBDIII@Z" PURGE="16" COMMENT="" />
    <EXPORT ORDINAL="532" NAME="?cgmBlendFunc@OpenGLErrorChecker@OGL@AIF@@UAEXPBDIII@Z" PURGE="16" COMMENT="" />
    <EXPORT ORDINAL="533" NAME="?cgmBlendFunc@OpenGLRekorder@OGL@AIF@@UAEXPBDIII@Z" PURGE="16" COMMENT="" />
    <EXPORT ORDINAL="534" NAME="?cgmBlendFunc@OpenGLTracer@OGL@AIF@@UAEXPBDIII@Z" PURGE="16" COMMENT="" />
    <EXPORT ORDINAL="535" NAME="?cgmBlendFuncSeparate@OpenGLErrorChecker@OGL@AIF@@UAEXPBDIIIII@Z" PURGE="24" COMMENT="" />
    <EXPORT ORDINAL="536" NAME="?cgmBlendFuncSeparate@OpenGLRekorder@OGL@AIF@@UAEXPBDIIIII@Z" PURGE="24" COMMENT="" />
    <EXPORT ORDINAL="537" NAME="?cgmBlendFuncSeparate@OpenGLTracer@OGL@AIF@@UAEXPBDIIIII@Z" PURGE="24" COMMENT="" />
    <EXPORT ORDINAL="538" NAME="?cgmBlendFuncSeparateEXT@OpenGLErrorChecker@OGL@AIF@@UAEXPBDIIIII@Z" PURGE="24" COMMENT="" />
    <EXPORT ORDINAL="539" NAME="?cgmBlendFuncSeparateEXT@OpenGLRekorder@OGL@AIF@@UAEXPBDIIIII@Z" PURGE="24" COMMENT="" />
    <EXPORT ORDINAL="540" NAME="?cgmBlendFuncSeparateEXT@OpenGLTracer@OGL@AIF@@UAEXPBDIIIII@Z" PURGE="24" COMMENT="" />
    <EXPORT ORDINAL="541" NAME="?cgmBlitFramebuffer@OpenGLErrorChecker@OGL@AIF@@UAEXPBDIHHHHHHHHII@Z" PURGE="48" COMMENT="" />
    <EXPORT ORDINAL="542" NAME="?cgmBlitFramebuffer@OpenGLRekorder@OGL@AIF@@UAEXPBDIHHHHHHHHII@Z" PURGE="48" COMMENT="" />
    <EXPORT ORDINAL="543" NAME="?cgmBlitFramebuffer@OpenGLTracer@OGL@AIF@@UAEXPBDIHHHHHHHHII@Z" PURGE="48" COMMENT="" />
    <EXPORT ORDINAL="544" NAME="?cgmBlitFramebufferEXT@OpenGLErrorChecker@OGL@AIF@@UAEXPBDIHHHHHHHHII@Z" PURGE="48" COMMENT="" />
    <EXPORT ORDINAL="545" NAME="?cgmBlitFramebufferEXT@OpenGLRekorder@OGL@AIF@@UAEXPBDIHHHHHHHHII@Z" PURGE="48" COMMENT="" />
    <EXPORT ORDINAL="546" NAME="?cgmBlitFramebufferEXT@OpenGLTracer@OGL@AIF@@UAEXPBDIHHHHHHHHII@Z" PURGE="48" COMMENT="" />
    <EXPORT ORDINAL="547" NAME="?cgmBufferAddressRangeNV@OpenGLErrorChecker@OGL@AIF@@UAEXPBDIII_KH@Z" PURGE="28" COMMENT="" />
    <EXPORT ORDINAL="548" NAME="?cgmBufferAddressRangeNV@OpenGLRekorder@OGL@AIF@@UAEXPBDIII_KH@Z" PURGE="28" COMMENT="" />
    <EXPORT ORDINAL="549" NAME="?cgmBufferAddressRangeNV@OpenGLTracer@OGL@AIF@@UAEXPBDIII_KH@Z" PURGE="28" COMMENT="" />
    <EXPORT ORDINAL="550" NAME="?cgmBufferData@OpenGLErrorChecker@OGL@AIF@@UAEXPBDIIHPBXI@Z" PURGE="24" COMMENT="" />
    <EXPORT ORDINAL="551" NAME="?cgmBufferData@OpenGLRekorder@OGL@AIF@@UAEXPBDIIHPBXI@Z" PURGE="-1" COMMENT="" />
    <EXPORT ORDINAL="552" NAME="?cgmBufferData@OpenGLTracer@OGL@AIF@@UAEXPBDIIHPBXI@Z" PURGE="24" COMMENT="" />
    <EXPORT ORDINAL="553" NAME="?cgmBufferDataARB@OpenGLErrorChecker@OGL@AIF@@UAEXPBDIIHPBXI@Z" PURGE="24" COMMENT="" />
    <EXPORT ORDINAL="554" NAME="?cgmBufferDataARB@OpenGLRekorder@OGL@AIF@@UAEXPBDIIHPBXI@Z" PURGE="-1" COMMENT="" />
    <EXPORT ORDINAL="555" NAME="?cgmBufferDataARB@OpenGLTracer@OGL@AIF@@UAEXPBDIIHPBXI@Z" PURGE="24" COMMENT="" />
    <EXPORT ORDINAL="556" NAME="?cgmBufferParameteriAPPLE@OpenGLErrorChecker@OGL@AIF@@UAEXPBDIIIH@Z" PURGE="20" COMMENT="" />
    <EXPORT ORDINAL="557" NAME="?cgmBufferParameteriAPPLE@OpenGLRekorder@OGL@AIF@@UAEXPBDIIIH@Z" PURGE="20" COMMENT="" />
    <EXPORT ORDINAL="558" NAME="?cgmBufferParameteriAPPLE@OpenGLTracer@OGL@AIF@@UAEXPBDIIIH@Z" PURGE="20" COMMENT="" />
    <EXPORT ORDINAL="559" NAME="?cgmBufferRegionEnabledEXT@OpenGLErrorChecker@OGL@AIF@@UAEIPBDI@Z" PURGE="8" COMMENT="" />
    <EXPORT ORDINAL="560" NAME="?cgmBufferRegionEnabledEXT@OpenGLRekorder@OGL@AIF@@UAEIPBDI@Z" PURGE="8" COMMENT="" />
    <EXPORT ORDINAL="561" NAME="?cgmBufferRegionEnabledEXT@OpenGLTracer@OGL@AIF@@UAEIPBDI@Z" PURGE="8" COMMENT="" />
    <EXPORT ORDINAL="562" NAME="?cgmBufferSubData@OpenGLErrorChecker@OGL@AIF@@UAEXPBDIIHHPBX@Z" PURGE="24" COMMENT="" />
    <EXPORT ORDINAL="563" NAME="?cgmBufferSubData@OpenGLRekorder@OGL@AIF@@UAEXPBDIIHHPBX@Z" PURGE="-1" COMMENT="" />
    <EXPORT ORDINAL="564" NAME="?cgmBufferSubData@OpenGLTracer@OGL@AIF@@UAEXPBDIIHHPBX@Z" PURGE="24" COMMENT="" />
    <EXPORT ORDINAL="565" NAME="?cgmBufferSubDataARB@OpenGLErrorChecker@OGL@AIF@@UAEXPBDIIHHPBX@Z" PURGE="24" COMMENT="" />
    <EXPORT ORDINAL="566" NAME="?cgmBufferSubDataARB@OpenGLRekorder@OGL@AIF@@UAEXPBDIIHHPBX@Z" PURGE="-1" COMMENT="" />
    <EXPORT ORDINAL="567" NAME="?cgmBufferSubDataARB@OpenGLTracer@OGL@AIF@@UAEXPBDIIHHPBX@Z" PURGE="24" COMMENT="" />
    <EXPORT ORDINAL="568" NAME="?cgmCallList@OpenGLErrorChecker@OGL@AIF@@UAEXPBDII@Z" PURGE="12" COMMENT="" />
    <EXPORT ORDINAL="569" NAME="?cgmCallList@OpenGLRekorder@OGL@AIF@@UAEXPBDII@Z" PURGE="12" COMMENT="" />
    <EXPORT ORDINAL="570" NAME="?cgmCallList@OpenGLTracer@OGL@AIF@@UAEXPBDII@Z" PURGE="12" COMMENT="" />
    <EXPORT ORDINAL="571" NAME="?cgmCallLists@OpenGLErrorChecker@OGL@AIF@@UAEXPBDIHIPBX@Z" PURGE="20" COMMENT="" />
    <EXPORT ORDINAL="572" NAME="?cgmCallLists@OpenGLRekorder@OGL@AIF@@UAEXPBDIHIPBX@Z" PURGE="-1" COMMENT="" />
    <EXPORT ORDINAL="573" NAME="?cgmCallLists@OpenGLTracer@OGL@AIF@@UAEXPBDIHIPBX@Z" PURGE="20" COMMENT="" />
    <EXPORT ORDINAL="574" NAME="?cgmCheckFramebufferStatus@OpenGLErrorChecker@OGL@AIF@@UAEIPBDII@Z" PURGE="12" COMMENT="" />
    <EXPORT ORDINAL="575" NAME="?cgmCheckFramebufferStatus@OpenGLRekorder@OGL@AIF@@UAEIPBDII@Z" PURGE="12" COMMENT="" />
    <EXPORT ORDINAL="576" NAME="?cgmCheckFramebufferStatus@OpenGLTracer@OGL@AIF@@UAEIPBDII@Z" PURGE="12" COMMENT="" />
    <EXPORT ORDINAL="577" NAME="?cgmCheckFramebufferStatusEXT@OpenGLErrorChecker@OGL@AIF@@UAEIPBDII@Z" PURGE="12" COMMENT="" />
    <EXPORT ORDINAL="578" NAME="?cgmCheckFramebufferStatusEXT@OpenGLRekorder@OGL@AIF@@UAEIPBDII@Z" PURGE="12" COMMENT="" />
    <EXPORT ORDINAL="579" NAME="?cgmCheckFramebufferStatusEXT@OpenGLTracer@OGL@AIF@@UAEIPBDII@Z" PURGE="12" COMMENT="" />
    <EXPORT ORDINAL="580" NAME="?cgmCheckNamedFramebufferStatusEXT@OpenGLErrorChecker@OGL@AIF@@UAEIPBDIII@Z" PURGE="16" COMMENT="" />
    <EXPORT ORDINAL="581" NAME="?cgmCheckNamedFramebufferStatusEXT@OpenGLRekorder@OGL@AIF@@UAEIPBDIII@Z" PURGE="16" COMMENT="" />
    <EXPORT ORDINAL="582" NAME="?cgmCheckNamedFramebufferStatusEXT@OpenGLTracer@OGL@AIF@@UAEIPBDIII@Z" PURGE="16" COMMENT="" />
    <EXPORT ORDINAL="583" NAME="?cgmClampColor@OpenGLErrorChecker@OGL@AIF@@UAEXPBDIII@Z" PURGE="16" COMMENT="" />
    <EXPORT ORDINAL="584" NAME="?cgmClampColor@OpenGLRekorder@OGL@AIF@@UAEXPBDIII@Z" PURGE="16" COMMENT="" />
    <EXPORT ORDINAL="585" NAME="?cgmClampColor@OpenGLTracer@OGL@AIF@@UAEXPBDIII@Z" PURGE="16" COMMENT="" />
    <EXPORT ORDINAL="586" NAME="?cgmClampColorARB@OpenGLErrorChecker@OGL@AIF@@UAEXPBDIII@Z" PURGE="16" COMMENT="" />
    <EXPORT ORDINAL="587" NAME="?cgmClampColorARB@OpenGLRekorder@OGL@AIF@@UAEXPBDIII@Z" PURGE="16" COMMENT="" />
    <EXPORT ORDINAL="588" NAME="?cgmClampColorARB@OpenGLTracer@OGL@AIF@@UAEXPBDIII@Z" PURGE="16" COMMENT="" />
    <EXPORT ORDINAL="589" NAME="?cgmClear@OpenGLErrorChecker@OGL@AIF@@UAEXPBDII@Z" PURGE="12" COMMENT="" />
    <EXPORT ORDINAL="590" NAME="?cgmClear@OpenGLRekorder@OGL@AIF@@UAEXPBDII@Z" PURGE="12" COMMENT="" />
    <EXPORT ORDINAL="591" NAME="?cgmClear@OpenGLTracer@OGL@AIF@@UAEXPBDII@Z" PURGE="12" COMMENT="" />
    <EXPORT ORDINAL="592" NAME="?cgmClearAccum@OpenGLErrorChecker@OGL@AIF@@UAEXPBDIMMMM@Z" PURGE="24" COMMENT="" />
    <EXPORT ORDINAL="593" NAME="?cgmClearAccum@OpenGLRekorder@OGL@AIF@@UAEXPBDIMMMM@Z" PURGE="24" COMMENT="" />
    <EXPORT ORDINAL="594" NAME="?cgmClearAccum@OpenGLTracer@OGL@AIF@@UAEXPBDIMMMM@Z" PURGE="24" COMMENT="" />
    <EXPORT ORDINAL="595" NAME="?cgmClearBufferfi@OpenGLErrorChecker@OGL@AIF@@UAEXPBDIIHMH@Z" PURGE="24" COMMENT="" />
    <EXPORT ORDINAL="596" NAME="?cgmClearBufferfi@OpenGLRekorder@OGL@AIF@@UAEXPBDIIHMH@Z" PURGE="24" COMMENT="" />
    <EXPORT ORDINAL="597" NAME="?cgmClearBufferfi@OpenGLTracer@OGL@AIF@@UAEXPBDIIHMH@Z" PURGE="24" COMMENT="" />
    <EXPORT ORDINAL="598" NAME="?cgmClearBufferfv@OpenGLErrorChecker@OGL@AIF@@UAEXPBDIIHPBM@Z" PURGE="20" COMMENT="" />
    <EXPORT ORDINAL="599" NAME="?cgmClearBufferfv@OpenGLRekorder@OGL@AIF@@UAEXPBDIIHPBM@Z" PURGE="-1" COMMENT="" />
    <EXPORT ORDINAL="600" NAME="?cgmClearBufferfv@OpenGLTracer@OGL@AIF@@UAEXPBDIIHPBM@Z" PURGE="20" COMMENT="" />
    <EXPORT ORDINAL="601" NAME="?cgmClearBufferiv@OpenGLErrorChecker@OGL@AIF@@UAEXPBDIIHPBH@Z" PURGE="20" COMMENT="" />
    <EXPORT ORDINAL="602" NAME="?cgmClearBufferiv@OpenGLRekorder@OGL@AIF@@UAEXPBDIIHPBH@Z" PURGE="-1" COMMENT="" />
    <EXPORT ORDINAL="603" NAME="?cgmClearBufferiv@OpenGLTracer@OGL@AIF@@UAEXPBDIIHPBH@Z" PURGE="20" COMMENT="" />
    <EXPORT ORDINAL="604" NAME="?cgmClearBufferuiv@OpenGLErrorChecker@OGL@AIF@@UAEXPBDIIHPBI@Z" PURGE="20" COMMENT="" />
    <EXPORT ORDINAL="605" NAME="?cgmClearBufferuiv@OpenGLRekorder@OGL@AIF@@UAEXPBDIIHPBI@Z" PURGE="-1" COMMENT="" />
    <EXPORT ORDINAL="606" NAME="?cgmClearBufferuiv@OpenGLTracer@OGL@AIF@@UAEXPBDIIHPBI@Z" PURGE="20" COMMENT="" />
    <EXPORT ORDINAL="607" NAME="?cgmClearColor@OpenGLErrorChecker@OGL@AIF@@UAEXPBDIMMMM@Z" PURGE="24" COMMENT="" />
    <EXPORT ORDINAL="608" NAME="?cgmClearColor@OpenGLRekorder@OGL@AIF@@UAEXPBDIMMMM@Z" PURGE="24" COMMENT="" />
    <EXPORT ORDINAL="609" NAME="?cgmClearColor@OpenGLTracer@OGL@AIF@@UAEXPBDIMMMM@Z" PURGE="24" COMMENT="" />
    <EXPORT ORDINAL="610" NAME="?cgmClearColorIiEXT@OpenGLErrorChecker@OGL@AIF@@UAEXPBDIHHHH@Z" PURGE="24" COMMENT="" />
    <EXPORT ORDINAL="611" NAME="?cgmClearColorIiEXT@OpenGLRekorder@OGL@AIF@@UAEXPBDIHHHH@Z" PURGE="24" COMMENT="" />
    <EXPORT ORDINAL="612" NAME="?cgmClearColorIiEXT@OpenGLTracer@OGL@AIF@@UAEXPBDIHHHH@Z" PURGE="24" COMMENT="" />
    <EXPORT ORDINAL="613" NAME="?cgmClearColorIuiEXT@OpenGLErrorChecker@OGL@AIF@@UAEXPBDIIIII@Z" PURGE="24" COMMENT="" />
    <EXPORT ORDINAL="614" NAME="?cgmClearColorIuiEXT@OpenGLRekorder@OGL@AIF@@UAEXPBDIIIII@Z" PURGE="24" COMMENT="" />
    <EXPORT ORDINAL="615" NAME="?cgmClearColorIuiEXT@OpenGLTracer@OGL@AIF@@UAEXPBDIIIII@Z" PURGE="24" COMMENT="" />
    <EXPORT ORDINAL="616" NAME="?cgmClearDepth@OpenGLErrorChecker@OGL@AIF@@UAEXPBDIN@Z" PURGE="16" COMMENT="" />
    <EXPORT ORDINAL="617" NAME="?cgmClearDepth@OpenGLRekorder@OGL@AIF@@UAEXPBDIN@Z" PURGE="16" COMMENT="" />
    <EXPORT ORDINAL="618" NAME="?cgmClearDepth@OpenGLTracer@OGL@AIF@@UAEXPBDIN@Z" PURGE="16" COMMENT="" />
    <EXPORT ORDINAL="619" NAME="?cgmClearDepthdNV@OpenGLErrorChecker@OGL@AIF@@UAEXPBDIN@Z" PURGE="16" COMMENT="" />
    <EXPORT ORDINAL="620" NAME="?cgmClearDepthdNV@OpenGLRekorder@OGL@AIF@@UAEXPBDIN@Z" PURGE="16" COMMENT="" />
    <EXPORT ORDINAL="621" NAME="?cgmClearDepthdNV@OpenGLTracer@OGL@AIF@@UAEXPBDIN@Z" PURGE="16" COMMENT="" />
    <EXPORT ORDINAL="622" NAME="?cgmClearDepthfOES@OpenGLErrorChecker@OGL@AIF@@UAEXPBDIN@Z" PURGE="16" COMMENT="" />
    <EXPORT ORDINAL="623" NAME="?cgmClearDepthfOES@OpenGLRekorder@OGL@AIF@@UAEXPBDIN@Z" PURGE="16" COMMENT="" />
    <EXPORT ORDINAL="624" NAME="?cgmClearDepthfOES@OpenGLTracer@OGL@AIF@@UAEXPBDIN@Z" PURGE="16" COMMENT="" />
    <EXPORT ORDINAL="625" NAME="?cgmClearIndex@OpenGLErrorChecker@OGL@AIF@@UAEXPBDIM@Z" PURGE="12" COMMENT="" />
    <EXPORT ORDINAL="626" NAME="?cgmClearIndex@OpenGLRekorder@OGL@AIF@@UAEXPBDIM@Z" PURGE="12" COMMENT="" />
    <EXPORT ORDINAL="627" NAME="?cgmClearIndex@OpenGLTracer@OGL@AIF@@UAEXPBDIM@Z" PURGE="12" COMMENT="" />
    <EXPORT ORDINAL="628" NAME="?cgmClearStencil@OpenGLErrorChecker@OGL@AIF@@UAEXPBDIH@Z" PURGE="12" COMMENT="" />
    <EXPORT ORDINAL="629" NAME="?cgmClearStencil@OpenGLRekorder@OGL@AIF@@UAEXPBDIH@Z" PURGE="12" COMMENT="" />
    <EXPORT ORDINAL="630" NAME="?cgmClearStencil@OpenGLTracer@OGL@AIF@@UAEXPBDIH@Z" PURGE="12" COMMENT="" />
    <EXPORT ORDINAL="631" NAME="?cgmClientActiveTexture@OpenGLErrorChecker@OGL@AIF@@UAEXPBDII@Z" PURGE="12" COMMENT="" />
    <EXPORT ORDINAL="632" NAME="?cgmClientActiveTexture@OpenGLRekorder@OGL@AIF@@UAEXPBDII@Z" PURGE="12" COMMENT="" />
    <EXPORT ORDINAL="633" NAME="?cgmClientActiveTexture@OpenGLTracer@OGL@AIF@@UAEXPBDII@Z" PURGE="12" COMMENT="" />
    <EXPORT ORDINAL="634" NAME="?cgmClientActiveTextureARB@OpenGLErrorChecker@OGL@AIF@@UAEXPBDII@Z" PURGE="12" COMMENT="" />
    <EXPORT ORDINAL="635" NAME="?cgmClientActiveTextureARB@OpenGLRekorder@OGL@AIF@@UAEXPBDII@Z" PURGE="12" COMMENT="" />
    <EXPORT ORDINAL="636" NAME="?cgmClientActiveTextureARB@OpenGLTracer@OGL@AIF@@UAEXPBDII@Z" PURGE="12" COMMENT="" />
    <EXPORT ORDINAL="637" NAME="?cgmClientActiveVertexStreamATI@OpenGLErrorChecker@OGL@AIF@@UAEXPBDII@Z" PURGE="12" COMMENT="" />
    <EXPORT ORDINAL="638" NAME="?cgmClientActiveVertexStreamATI@OpenGLRekorder@OGL@AIF@@UAEXPBDII@Z" PURGE="12" COMMENT="" />
    <EXPORT ORDINAL="639" NAME="?cgmClientActiveVertexStreamATI@OpenGLTracer@OGL@AIF@@UAEXPBDII@Z" PURGE="12" COMMENT="" />
    <EXPORT ORDINAL="640" NAME="?cgmClientAttribDefaultEXT@OpenGLErrorChecker@OGL@AIF@@UAEXPBDII@Z" PURGE="12" COMMENT="" />
    <EXPORT ORDINAL="641" NAME="?cgmClientAttribDefaultEXT@OpenGLRekorder@OGL@AIF@@UAEXPBDII@Z" PURGE="12" COMMENT="" />
    <EXPORT ORDINAL="642" NAME="?cgmClientAttribDefaultEXT@OpenGLTracer@OGL@AIF@@UAEXPBDII@Z" PURGE="12" COMMENT="" />
    <EXPORT ORDINAL="643" NAME="?cgmClipPlane@OpenGLErrorChecker@OGL@AIF@@UAEXPBDIIPBN@Z" PURGE="16" COMMENT="" />
    <EXPORT ORDINAL="644" NAME="?cgmClipPlane@OpenGLRekorder@OGL@AIF@@UAEXPBDIIPBN@Z" PURGE="-1" COMMENT="" />
    <EXPORT ORDINAL="645" NAME="?cgmClipPlane@OpenGLTracer@OGL@AIF@@UAEXPBDIIPBN@Z" PURGE="16" COMMENT="" />
    <EXPORT ORDINAL="646" NAME="?cgmClipPlanefOES@OpenGLErrorChecker@OGL@AIF@@UAEXPBDIIPBM@Z" PURGE="16" COMMENT="" />
    <EXPORT ORDINAL="647" NAME="?cgmClipPlanefOES@OpenGLRekorder@OGL@AIF@@UAEXPBDIIPBM@Z" PURGE="-1" COMMENT="" />
    <EXPORT ORDINAL="648" NAME="?cgmClipPlanefOES@OpenGLTracer@OGL@AIF@@UAEXPBDIIPBM@Z" PURGE="16" COMMENT="" />
    <EXPORT ORDINAL="649" NAME="?cgmColor3b@OpenGLErrorChecker@OGL@AIF@@UAEXPBDICCC@Z" PURGE="20" COMMENT="" />
    <EXPORT ORDINAL="650" NAME="?cgmColor3b@OpenGLRekorder@OGL@AIF@@UAEXPBDICCC@Z" PURGE="20" COMMENT="" />
    <EXPORT ORDINAL="651" NAME="?cgmColor3b@OpenGLTracer@OGL@AIF@@UAEXPBDICCC@Z" PURGE="20" COMMENT="" />
    <EXPORT ORDINAL="652" NAME="?cgmColor3bv@OpenGLErrorChecker@OGL@AIF@@UAEXPBDIPBC@Z" PURGE="12" COMMENT="" />
    <EXPORT ORDINAL="653" NAME="?cgmColor3bv@OpenGLRekorder@OGL@AIF@@UAEXPBDIPBC@Z" PURGE="-1" COMMENT="" />
    <EXPORT ORDINAL="654" NAME="?cgmColor3bv@OpenGLTracer@OGL@AIF@@UAEXPBDIPBC@Z" PURGE="12" COMMENT="" />
    <EXPORT ORDINAL="655" NAME="?cgmColor3d@OpenGLErrorChecker@OGL@AIF@@UAEXPBDINNN@Z" PURGE="32" COMMENT="" />
    <EXPORT ORDINAL="656" NAME="?cgmColor3d@OpenGLRekorder@OGL@AIF@@UAEXPBDINNN@Z" PURGE="32" COMMENT="" />
    <EXPORT ORDINAL="657" NAME="?cgmColor3d@OpenGLTracer@OGL@AIF@@UAEXPBDINNN@Z" PURGE="32" COMMENT="" />
    <EXPORT ORDINAL="658" NAME="?cgmColor3dv@OpenGLErrorChecker@OGL@AIF@@UAEXPBDIPBN@Z" PURGE="12" COMMENT="" />
    <EXPORT ORDINAL="659" NAME="?cgmColor3dv@OpenGLRekorder@OGL@AIF@@UAEXPBDIPBN@Z" PURGE="-1" COMMENT="" />
    <EXPORT ORDINAL="660" NAME="?cgmColor3dv@OpenGLTracer@OGL@AIF@@UAEXPBDIPBN@Z" PURGE="12" COMMENT="" />
    <EXPORT ORDINAL="661" NAME="?cgmColor3f@OpenGLErrorChecker@OGL@AIF@@UAEXPBDIMMM@Z" PURGE="20" COMMENT="" />
    <EXPORT ORDINAL="662" NAME="?cgmColor3f@OpenGLRekorder@OGL@AIF@@UAEXPBDIMMM@Z" PURGE="20" COMMENT="" />
    <EXPORT ORDINAL="663" NAME="?cgmColor3f@OpenGLTracer@OGL@AIF@@UAEXPBDIMMM@Z" PURGE="20" COMMENT="" />
    <EXPORT ORDINAL="664" NAME="?cgmColor3fVertex3fSUN@OpenGLErrorChecker@OGL@AIF@@UAEXPBDIMMMMMM@Z" PURGE="32" COMMENT="" />
    <EXPORT ORDINAL="665" NAME="?cgmColor3fVertex3fSUN@OpenGLRekorder@OGL@AIF@@UAEXPBDIMMMMMM@Z" PURGE="32" COMMENT="" />
    <EXPORT ORDINAL="666" NAME="?cgmColor3fVertex3fSUN@OpenGLTracer@OGL@AIF@@UAEXPBDIMMMMMM@Z" PURGE="32" COMMENT="" />
    <EXPORT ORDINAL="667" NAME="?cgmColor3fVertex3fvSUN@OpenGLErrorChecker@OGL@AIF@@UAEXPBDIPBM1@Z" PURGE="16" COMMENT="" />
    <EXPORT ORDINAL="668" NAME="?cgmColor3fVertex3fvSUN@OpenGLRekorder@OGL@AIF@@UAEXPBDIPBM1@Z" PURGE="-1" COMMENT="" />
    <EXPORT ORDINAL="669" NAME="?cgmColor3fVertex3fvSUN@OpenGLTracer@OGL@AIF@@UAEXPBDIPBM1@Z" PURGE="16" COMMENT="" />
    <EXPORT ORDINAL="670" NAME="?cgmColor3fv@OpenGLErrorChecker@OGL@AIF@@UAEXPBDIPBM@Z" PURGE="12" COMMENT="" />
    <EXPORT ORDINAL="671" NAME="?cgmColor3fv@OpenGLRekorder@OGL@AIF@@UAEXPBDIPBM@Z" PURGE="-1" COMMENT="" />
    <EXPORT ORDINAL="672" NAME="?cgmColor3fv@OpenGLTracer@OGL@AIF@@UAEXPBDIPBM@Z" PURGE="12" COMMENT="" />
    <EXPORT ORDINAL="673" NAME="?cgmColor3hNV@OpenGLErrorChecker@OGL@AIF@@UAEXPBDIIII@Z" PURGE="20" COMMENT="" />
    <EXPORT ORDINAL="674" NAME="?cgmColor3hNV@OpenGLRekorder@OGL@AIF@@UAEXPBDIIII@Z" PURGE="20" COMMENT="" />
    <EXPORT ORDINAL="675" NAME="?cgmColor3hNV@OpenGLTracer@OGL@AIF@@UAEXPBDIIII@Z" PURGE="20" COMMENT="" />
    <EXPORT ORDINAL="676" NAME="?cgmColor3hvNV@OpenGLErrorChecker@OGL@AIF@@UAEXPBDIPBI@Z" PURGE="12" COMMENT="" />
    <EXPORT ORDINAL="677" NAME="?cgmColor3hvNV@OpenGLRekorder@OGL@AIF@@UAEXPBDIPBI@Z" PURGE="-1" COMMENT="" />
    <EXPORT ORDINAL="678" NAME="?cgmColor3hvNV@OpenGLTracer@OGL@AIF@@UAEXPBDIPBI@Z" PURGE="12" COMMENT="" />
    <EXPORT ORDINAL="679" NAME="?cgmColor3i@OpenGLErrorChecker@OGL@AIF@@UAEXPBDIHHH@Z" PURGE="20" COMMENT="" />
    <EXPORT ORDINAL="680" NAME="?cgmColor3i@OpenGLRekorder@OGL@AIF@@UAEXPBDIHHH@Z" PURGE="20" COMMENT="" />
    <EXPORT ORDINAL="681" NAME="?cgmColor3i@OpenGLTracer@OGL@AIF@@UAEXPBDIHHH@Z" PURGE="20" COMMENT="" />
    <EXPORT ORDINAL="682" NAME="?cgmColor3iv@OpenGLErrorChecker@OGL@AIF@@UAEXPBDIPBH@Z" PURGE="12" COMMENT="" />
    <EXPORT ORDINAL="683" NAME="?cgmColor3iv@OpenGLRekorder@OGL@AIF@@UAEXPBDIPBH@Z" PURGE="-1" COMMENT="" />
    <EXPORT ORDINAL="684" NAME="?cgmColor3iv@OpenGLTracer@OGL@AIF@@UAEXPBDIPBH@Z" PURGE="12" COMMENT="" />
    <EXPORT ORDINAL="685" NAME="?cgmColor3s@OpenGLErrorChecker@OGL@AIF@@UAEXPBDIFFF@Z" PURGE="20" COMMENT="" />
    <EXPORT ORDINAL="686" NAME="?cgmColor3s@OpenGLRekorder@OGL@AIF@@UAEXPBDIFFF@Z" PURGE="20" COMMENT="" />
    <EXPORT ORDINAL="687" NAME="?cgmColor3s@OpenGLTracer@OGL@AIF@@UAEXPBDIFFF@Z" PURGE="20" COMMENT="" />
    <EXPORT ORDINAL="688" NAME="?cgmColor3sv@OpenGLErrorChecker@OGL@AIF@@UAEXPBDIPBF@Z" PURGE="12" COMMENT="" />
    <EXPORT ORDINAL="689" NAME="?cgmColor3sv@OpenGLRekorder@OGL@AIF@@UAEXPBDIPBF@Z" PURGE="-1" COMMENT="" />
    <EXPORT ORDINAL="690" NAME="?cgmColor3sv@OpenGLTracer@OGL@AIF@@UAEXPBDIPBF@Z" PURGE="12" COMMENT="" />
    <EXPORT ORDINAL="691" NAME="?cgmColor3ub@OpenGLErrorChecker@OGL@AIF@@UAEXPBDIEEE@Z" PURGE="20" COMMENT="" />
    <EXPORT ORDINAL="692" NAME="?cgmColor3ub@OpenGLRekorder@OGL@AIF@@UAEXPBDIEEE@Z" PURGE="20" COMMENT="" />
    <EXPORT ORDINAL="693" NAME="?cgmColor3ub@OpenGLTracer@OGL@AIF@@UAEXPBDIEEE@Z" PURGE="20" COMMENT="" />
    <EXPORT ORDINAL="694" NAME="?cgmColor3ubv@OpenGLErrorChecker@OGL@AIF@@UAEXPBDIPBE@Z" PURGE="12" COMMENT="" />
    <EXPORT ORDINAL="695" NAME="?cgmColor3ubv@OpenGLRekorder@OGL@AIF@@UAEXPBDIPBE@Z" PURGE="-1" COMMENT="" />
    <EXPORT ORDINAL="696" NAME="?cgmColor3ubv@OpenGLTracer@OGL@AIF@@UAEXPBDIPBE@Z" PURGE="12" COMMENT="" />
    <EXPORT ORDINAL="697" NAME="?cgmColor3ui@OpenGLErrorChecker@OGL@AIF@@UAEXPBDIIII@Z" PURGE="20" COMMENT="" />
    <EXPORT ORDINAL="698" NAME="?cgmColor3ui@OpenGLRekorder@OGL@AIF@@UAEXPBDIIII@Z" PURGE="20" COMMENT="" />
    <EXPORT ORDINAL="699" NAME="?cgmColor3ui@OpenGLTracer@OGL@AIF@@UAEXPBDIIII@Z" PURGE="20" COMMENT="" />
    <EXPORT ORDINAL="700" NAME="?cgmColor3uiv@OpenGLErrorChecker@OGL@AIF@@UAEXPBDIPBI@Z" PURGE="12" COMMENT="" />
    <EXPORT ORDINAL="701" NAME="?cgmColor3uiv@OpenGLRekorder@OGL@AIF@@UAEXPBDIPBI@Z" PURGE="-1" COMMENT="" />
    <EXPORT ORDINAL="702" NAME="?cgmColor3uiv@OpenGLTracer@OGL@AIF@@UAEXPBDIPBI@Z" PURGE="12" COMMENT="" />
    <EXPORT ORDINAL="703" NAME="?cgmColor3us@OpenGLErrorChecker@OGL@AIF@@UAEXPBDIGGG@Z" PURGE="20" COMMENT="" />
    <EXPORT ORDINAL="704" NAME="?cgmColor3us@OpenGLRekorder@OGL@AIF@@UAEXPBDIGGG@Z" PURGE="20" COMMENT="" />
    <EXPORT ORDINAL="705" NAME="?cgmColor3us@OpenGLTracer@OGL@AIF@@UAEXPBDIGGG@Z" PURGE="20" COMMENT="" />
    <EXPORT ORDINAL="706" NAME="?cgmColor3usv@OpenGLErrorChecker@OGL@AIF@@UAEXPBDIPBG@Z" PURGE="12" COMMENT="" />
    <EXPORT ORDINAL="707" NAME="?cgmColor3usv@OpenGLRekorder@OGL@AIF@@UAEXPBDIPBG@Z" PURGE="-1" COMMENT="" />
    <EXPORT ORDINAL="708" NAME="?cgmColor3usv@OpenGLTracer@OGL@AIF@@UAEXPBDIPBG@Z" PURGE="12" COMMENT="" />
    <EXPORT ORDINAL="709" NAME="?cgmColor4b@OpenGLErrorChecker@OGL@AIF@@UAEXPBDICCCC@Z" PURGE="24" COMMENT="" />
    <EXPORT ORDINAL="710" NAME="?cgmColor4b@OpenGLRekorder@OGL@AIF@@UAEXPBDICCCC@Z" PURGE="24" COMMENT="" />
    <EXPORT ORDINAL="711" NAME="?cgmColor4b@OpenGLTracer@OGL@AIF@@UAEXPBDICCCC@Z" PURGE="24" COMMENT="" />
    <EXPORT ORDINAL="712" NAME="?cgmColor4bv@OpenGLErrorChecker@OGL@AIF@@UAEXPBDIPBC@Z" PURGE="12" COMMENT="" />
    <EXPORT ORDINAL="713" NAME="?cgmColor4bv@OpenGLRekorder@OGL@AIF@@UAEXPBDIPBC@Z" PURGE="-1" COMMENT="" />
    <EXPORT ORDINAL="714" NAME="?cgmColor4bv@OpenGLTracer@OGL@AIF@@UAEXPBDIPBC@Z" PURGE="12" COMMENT="" />
    <EXPORT ORDINAL="715" NAME="?cgmColor4d@OpenGLErrorChecker@OGL@AIF@@UAEXPBDINNNN@Z" PURGE="40" COMMENT="" />
    <EXPORT ORDINAL="716" NAME="?cgmColor4d@OpenGLRekorder@OGL@AIF@@UAEXPBDINNNN@Z" PURGE="40" COMMENT="" />
    <EXPORT ORDINAL="717" NAME="?cgmColor4d@OpenGLTracer@OGL@AIF@@UAEXPBDINNNN@Z" PURGE="40" COMMENT="" />
    <EXPORT ORDINAL="718" NAME="?cgmColor4dv@OpenGLErrorChecker@OGL@AIF@@UAEXPBDIPBN@Z" PURGE="12" COMMENT="" />
    <EXPORT ORDINAL="719" NAME="?cgmColor4dv@OpenGLRekorder@OGL@AIF@@UAEXPBDIPBN@Z" PURGE="-1" COMMENT="" />
    <EXPORT ORDINAL="720" NAME="?cgmColor4dv@OpenGLTracer@OGL@AIF@@UAEXPBDIPBN@Z" PURGE="12" COMMENT="" />
    <EXPORT ORDINAL="721" NAME="?cgmColor4f@OpenGLErrorChecker@OGL@AIF@@UAEXPBDIMMMM@Z" PURGE="24" COMMENT="" />
    <EXPORT ORDINAL="722" NAME="?cgmColor4f@OpenGLRekorder@OGL@AIF@@UAEXPBDIMMMM@Z" PURGE="24" COMMENT="" />
    <EXPORT ORDINAL="723" NAME="?cgmColor4f@OpenGLTracer@OGL@AIF@@UAEXPBDIMMMM@Z" PURGE="24" COMMENT="" />
    <EXPORT ORDINAL="724" NAME="?cgmColor4fNormal3fVertex3fSUN@OpenGLErrorChecker@OGL@AIF@@UAEXPBDIMMMMMMMMMM@Z" PURGE="48" COMMENT="" />
    <EXPORT ORDINAL="725" NAME="?cgmColor4fNormal3fVertex3fSUN@OpenGLRekorder@OGL@AIF@@UAEXPBDIMMMMMMMMMM@Z" PURGE="48" COMMENT="" />
    <EXPORT ORDINAL="726" NAME="?cgmColor4fNormal3fVertex3fSUN@OpenGLTracer@OGL@AIF@@UAEXPBDIMMMMMMMMMM@Z" PURGE="48" COMMENT="" />
    <EXPORT ORDINAL="727" NAME="?cgmColor4fNormal3fVertex3fvSUN@OpenGLErrorChecker@OGL@AIF@@UAEXPBDIPBM11@Z" PURGE="20" COMMENT="" />
    <EXPORT ORDINAL="728" NAME="?cgmColor4fNormal3fVertex3fvSUN@OpenGLRekorder@OGL@AIF@@UAEXPBDIPBM11@Z" PURGE="-1" COMMENT="" />
    <EXPORT ORDINAL="729" NAME="?cgmColor4fNormal3fVertex3fvSUN@OpenGLTracer@OGL@AIF@@UAEXPBDIPBM11@Z" PURGE="20" COMMENT="" />
    <EXPORT ORDINAL="730" NAME="?cgmColor4fv@OpenGLErrorChecker@OGL@AIF@@UAEXPBDIPBM@Z" PURGE="12" COMMENT="" />
    <EXPORT ORDINAL="731" NAME="?cgmColor4fv@OpenGLRekorder@OGL@AIF@@UAEXPBDIPBM@Z" PURGE="-1" COMMENT="" />
    <EXPORT ORDINAL="732" NAME="?cgmColor4fv@OpenGLTracer@OGL@AIF@@UAEXPBDIPBM@Z" PURGE="12" COMMENT="" />
    <EXPORT ORDINAL="733" NAME="?cgmColor4hNV@OpenGLErrorChecker@OGL@AIF@@UAEXPBDIIIII@Z" PURGE="24" COMMENT="" />
    <EXPORT ORDINAL="734" NAME="?cgmColor4hNV@OpenGLRekorder@OGL@AIF@@UAEXPBDIIIII@Z" PURGE="24" COMMENT="" />
    <EXPORT ORDINAL="735" NAME="?cgmColor4hNV@OpenGLTracer@OGL@AIF@@UAEXPBDIIIII@Z" PURGE="24" COMMENT="" />
    <EXPORT ORDINAL="736" NAME="?cgmColor4hvNV@OpenGLErrorChecker@OGL@AIF@@UAEXPBDIPBI@Z" PURGE="12" COMMENT="" />
    <EXPORT ORDINAL="737" NAME="?cgmColor4hvNV@OpenGLRekorder@OGL@AIF@@UAEXPBDIPBI@Z" PURGE="-1" COMMENT="" />
    <EXPORT ORDINAL="738" NAME="?cgmColor4hvNV@OpenGLTracer@OGL@AIF@@UAEXPBDIPBI@Z" PURGE="12" COMMENT="" />
    <EXPORT ORDINAL="739" NAME="?cgmColor4i@OpenGLErrorChecker@OGL@AIF@@UAEXPBDIHHHH@Z" PURGE="24" COMMENT="" />
    <EXPORT ORDINAL="740" NAME="?cgmColor4i@OpenGLRekorder@OGL@AIF@@UAEXPBDIHHHH@Z" PURGE="24" COMMENT="" />
    <EXPORT ORDINAL="741" NAME="?cgmColor4i@OpenGLTracer@OGL@AIF@@UAEXPBDIHHHH@Z" PURGE="24" COMMENT="" />
    <EXPORT ORDINAL="742" NAME="?cgmColor4iv@OpenGLErrorChecker@OGL@AIF@@UAEXPBDIPBH@Z" PURGE="12" COMMENT="" />
    <EXPORT ORDINAL="743" NAME="?cgmColor4iv@OpenGLRekorder@OGL@AIF@@UAEXPBDIPBH@Z" PURGE="-1" COMMENT="" />
    <EXPORT ORDINAL="744" NAME="?cgmColor4iv@OpenGLTracer@OGL@AIF@@UAEXPBDIPBH@Z" PURGE="12" COMMENT="" />
    <EXPORT ORDINAL="745" NAME="?cgmColor4s@OpenGLErrorChecker@OGL@AIF@@UAEXPBDIFFFF@Z" PURGE="24" COMMENT="" />
    <EXPORT ORDINAL="746" NAME="?cgmColor4s@OpenGLRekorder@OGL@AIF@@UAEXPBDIFFFF@Z" PURGE="24" COMMENT="" />
    <EXPORT ORDINAL="747" NAME="?cgmColor4s@OpenGLTracer@OGL@AIF@@UAEXPBDIFFFF@Z" PURGE="24" COMMENT="" />
    <EXPORT ORDINAL="748" NAME="?cgmColor4sv@OpenGLErrorChecker@OGL@AIF@@UAEXPBDIPBF@Z" PURGE="12" COMMENT="" />
    <EXPORT ORDINAL="749" NAME="?cgmColor4sv@OpenGLRekorder@OGL@AIF@@UAEXPBDIPBF@Z" PURGE="-1" COMMENT="" />
    <EXPORT ORDINAL="750" NAME="?cgmColor4sv@OpenGLTracer@OGL@AIF@@UAEXPBDIPBF@Z" PURGE="12" COMMENT="" />
    <EXPORT ORDINAL="751" NAME="?cgmColor4ub@OpenGLErrorChecker@OGL@AIF@@UAEXPBDIEEEE@Z" PURGE="24" COMMENT="" />
    <EXPORT ORDINAL="752" NAME="?cgmColor4ub@OpenGLRekorder@OGL@AIF@@UAEXPBDIEEEE@Z" PURGE="24" COMMENT="" />
    <EXPORT ORDINAL="753" NAME="?cgmColor4ub@OpenGLTracer@OGL@AIF@@UAEXPBDIEEEE@Z" PURGE="24" COMMENT="" />
    <EXPORT ORDINAL="754" NAME="?cgmColor4ubVertex2fSUN@OpenGLErrorChecker@OGL@AIF@@UAEXPBDIEEEEMM@Z" PURGE="32" COMMENT="" />
    <EXPORT ORDINAL="755" NAME="?cgmColor4ubVertex2fSUN@OpenGLRekorder@OGL@AIF@@UAEXPBDIEEEEMM@Z" PURGE="32" COMMENT="" />
    <EXPORT ORDINAL="756" NAME="?cgmColor4ubVertex2fSUN@OpenGLTracer@OGL@AIF@@UAEXPBDIEEEEMM@Z" PURGE="32" COMMENT="" />
    <EXPORT ORDINAL="757" NAME="?cgmColor4ubVertex2fvSUN@OpenGLErrorChecker@OGL@AIF@@UAEXPBDIPBEPBM@Z" PURGE="16" COMMENT="" />
    <EXPORT ORDINAL="758" NAME="?cgmColor4ubVertex2fvSUN@OpenGLRekorder@OGL@AIF@@UAEXPBDIPBEPBM@Z" PURGE="-1" COMMENT="" />
    <EXPORT ORDINAL="759" NAME="?cgmColor4ubVertex2fvSUN@OpenGLTracer@OGL@AIF@@UAEXPBDIPBEPBM@Z" PURGE="16" COMMENT="" />
    <EXPORT ORDINAL="760" NAME="?cgmColor4ubVertex3fSUN@OpenGLErrorChecker@OGL@AIF@@UAEXPBDIEEEEMMM@Z" PURGE="36" COMMENT="" />
    <EXPORT ORDINAL="761" NAME="?cgmColor4ubVertex3fSUN@OpenGLRekorder@OGL@AIF@@UAEXPBDIEEEEMMM@Z" PURGE="36" COMMENT="" />
    <EXPORT ORDINAL="762" NAME="?cgmColor4ubVertex3fSUN@OpenGLTracer@OGL@AIF@@UAEXPBDIEEEEMMM@Z" PURGE="36" COMMENT="" />
    <EXPORT ORDINAL="763" NAME="?cgmColor4ubVertex3fvSUN@OpenGLErrorChecker@OGL@AIF@@UAEXPBDIPBEPBM@Z" PURGE="16" COMMENT="" />
    <EXPORT ORDINAL="764" NAME="?cgmColor4ubVertex3fvSUN@OpenGLRekorder@OGL@AIF@@UAEXPBDIPBEPBM@Z" PURGE="-1" COMMENT="" />
    <EXPORT ORDINAL="765" NAME="?cgmColor4ubVertex3fvSUN@OpenGLTracer@OGL@AIF@@UAEXPBDIPBEPBM@Z" PURGE="16" COMMENT="" />
    <EXPORT ORDINAL="766" NAME="?cgmColor4ubv@OpenGLErrorChecker@OGL@AIF@@UAEXPBDIPBE@Z" PURGE="12" COMMENT="" />
    <EXPORT ORDINAL="767" NAME="?cgmColor4ubv@OpenGLRekorder@OGL@AIF@@UAEXPBDIPBE@Z" PURGE="-1" COMMENT="" />
    <EXPORT ORDINAL="768" NAME="?cgmColor4ubv@OpenGLTracer@OGL@AIF@@UAEXPBDIPBE@Z" PURGE="12" COMMENT="" />
    <EXPORT ORDINAL="769" NAME="?cgmColor4ui@OpenGLErrorChecker@OGL@AIF@@UAEXPBDIIIII@Z" PURGE="24" COMMENT="" />
    <EXPORT ORDINAL="770" NAME="?cgmColor4ui@OpenGLRekorder@OGL@AIF@@UAEXPBDIIIII@Z" PURGE="24" COMMENT="" />
    <EXPORT ORDINAL="771" NAME="?cgmColor4ui@OpenGLTracer@OGL@AIF@@UAEXPBDIIIII@Z" PURGE="24" COMMENT="" />
    <EXPORT ORDINAL="772" NAME="?cgmColor4uiv@OpenGLErrorChecker@OGL@AIF@@UAEXPBDIPBI@Z" PURGE="12" COMMENT="" />
    <EXPORT ORDINAL="773" NAME="?cgmColor4uiv@OpenGLRekorder@OGL@AIF@@UAEXPBDIPBI@Z" PURGE="-1" COMMENT="" />
    <EXPORT ORDINAL="774" NAME="?cgmColor4uiv@OpenGLTracer@OGL@AIF@@UAEXPBDIPBI@Z" PURGE="12" COMMENT="" />
    <EXPORT ORDINAL="775" NAME="?cgmColor4us@OpenGLErrorChecker@OGL@AIF@@UAEXPBDIGGGG@Z" PURGE="24" COMMENT="" />
    <EXPORT ORDINAL="776" NAME="?cgmColor4us@OpenGLRekorder@OGL@AIF@@UAEXPBDIGGGG@Z" PURGE="24" COMMENT="" />
    <EXPORT ORDINAL="777" NAME="?cgmColor4us@OpenGLTracer@OGL@AIF@@UAEXPBDIGGGG@Z" PURGE="24" COMMENT="" />
    <EXPORT ORDINAL="778" NAME="?cgmColor4usv@OpenGLErrorChecker@OGL@AIF@@UAEXPBDIPBG@Z" PURGE="12" COMMENT="" />
    <EXPORT ORDINAL="779" NAME="?cgmColor4usv@OpenGLRekorder@OGL@AIF@@UAEXPBDIPBG@Z" PURGE="-1" COMMENT="" />
    <EXPORT ORDINAL="780" NAME="?cgmColor4usv@OpenGLTracer@OGL@AIF@@UAEXPBDIPBG@Z" PURGE="12" COMMENT="" />
    <EXPORT ORDINAL="781" NAME="?cgmColorFormatNV@OpenGLErrorChecker@OGL@AIF@@UAEXPBDIHIH@Z" PURGE="20" COMMENT="" />
    <EXPORT ORDINAL="782" NAME="?cgmColorFormatNV@OpenGLRekorder@OGL@AIF@@UAEXPBDIHIH@Z" PURGE="20" COMMENT="" />
    <EXPORT ORDINAL="783" NAME="?cgmColorFormatNV@OpenGLTracer@OGL@AIF@@UAEXPBDIHIH@Z" PURGE="20" COMMENT="" />
    <EXPORT ORDINAL="784" NAME="?cgmColorFragmentOp1ATI@OpenGLErrorChecker@OGL@AIF@@UAEXPBDIIIIIIII@Z" PURGE="36" COMMENT="" />
    <EXPORT ORDINAL="785" NAME="?cgmColorFragmentOp1ATI@OpenGLRekorder@OGL@AIF@@UAEXPBDIIIIIIII@Z" PURGE="36" COMMENT="" />
    <EXPORT ORDINAL="786" NAME="?cgmColorFragmentOp1ATI@OpenGLTracer@OGL@AIF@@UAEXPBDIIIIIIII@Z" PURGE="36" COMMENT="" />
    <EXPORT ORDINAL="787" NAME="?cgmColorFragmentOp2ATI@OpenGLErrorChecker@OGL@AIF@@UAEXPBDIIIIIIIIIII@Z" PURGE="48" COMMENT="" />
    <EXPORT ORDINAL="788" NAME="?cgmColorFragmentOp2ATI@OpenGLRekorder@OGL@AIF@@UAEXPBDIIIIIIIIIII@Z" PURGE="48" COMMENT="" />
    <EXPORT ORDINAL="789" NAME="?cgmColorFragmentOp2ATI@OpenGLTracer@OGL@AIF@@UAEXPBDIIIIIIIIIII@Z" PURGE="48" COMMENT="" />
    <EXPORT ORDINAL="790" NAME="?cgmColorFragmentOp3ATI@OpenGLErrorChecker@OGL@AIF@@UAEXPBDIIIIIIIIIIIIII@Z" PURGE="60" COMMENT="" />
    <EXPORT ORDINAL="791" NAME="?cgmColorFragmentOp3ATI@OpenGLRekorder@OGL@AIF@@UAEXPBDIIIIIIIIIIIIII@Z" PURGE="60" COMMENT="" />
    <EXPORT ORDINAL="792" NAME="?cgmColorFragmentOp3ATI@OpenGLTracer@OGL@AIF@@UAEXPBDIIIIIIIIIIIIII@Z" PURGE="60" COMMENT="" />
    <EXPORT ORDINAL="793" NAME="?cgmColorMask@OpenGLErrorChecker@OGL@AIF@@UAEXPBDIEEEE@Z" PURGE="24" COMMENT="" />
    <EXPORT ORDINAL="794" NAME="?cgmColorMask@OpenGLRekorder@OGL@AIF@@UAEXPBDIEEEE@Z" PURGE="24" COMMENT="" />
    <EXPORT ORDINAL="795" NAME="?cgmColorMask@OpenGLTracer@OGL@AIF@@UAEXPBDIEEEE@Z" PURGE="24" COMMENT="" />
    <EXPORT ORDINAL="796" NAME="?cgmColorMaskIndexedEXT@OpenGLErrorChecker@OGL@AIF@@UAEXPBDIIEEEE@Z" PURGE="28" COMMENT="" />
    <EXPORT ORDINAL="797" NAME="?cgmColorMaskIndexedEXT@OpenGLRekorder@OGL@AIF@@UAEXPBDIIEEEE@Z" PURGE="28" COMMENT="" />
    <EXPORT ORDINAL="798" NAME="?cgmColorMaskIndexedEXT@OpenGLTracer@OGL@AIF@@UAEXPBDIIEEEE@Z" PURGE="28" COMMENT="" />
    <EXPORT ORDINAL="799" NAME="?cgmColorMaski@OpenGLErrorChecker@OGL@AIF@@UAEXPBDIIEEEE@Z" PURGE="28" COMMENT="" />
    <EXPORT ORDINAL="800" NAME="?cgmColorMaski@OpenGLRekorder@OGL@AIF@@UAEXPBDIIEEEE@Z" PURGE="28" COMMENT="" />
    <EXPORT ORDINAL="801" NAME="?cgmColorMaski@OpenGLTracer@OGL@AIF@@UAEXPBDIIEEEE@Z" PURGE="28" COMMENT="" />
    <EXPORT ORDINAL="802" NAME="?cgmColorMaterial@OpenGLErrorChecker@OGL@AIF@@UAEXPBDIII@Z" PURGE="16" COMMENT="" />
    <EXPORT ORDINAL="803" NAME="?cgmColorMaterial@OpenGLRekorder@OGL@AIF@@UAEXPBDIII@Z" PURGE="16" COMMENT="" />
    <EXPORT ORDINAL="804" NAME="?cgmColorMaterial@OpenGLTracer@OGL@AIF@@UAEXPBDIII@Z" PURGE="16" COMMENT="" />
    <EXPORT ORDINAL="805" NAME="?cgmColorPointer@OpenGLErrorChecker@OGL@AIF@@UAEXPBDIHIHPBX@Z" PURGE="24" COMMENT="" />
    <EXPORT ORDINAL="806" NAME="?cgmColorPointer@OpenGLRekorder@OGL@AIF@@UAEXPBDIHIHPBX@Z" PURGE="-1" COMMENT="" />
    <EXPORT ORDINAL="807" NAME="?cgmColorPointer@OpenGLTracer@OGL@AIF@@UAEXPBDIHIHPBX@Z" PURGE="24" COMMENT="" />
    <EXPORT ORDINAL="808" NAME="?cgmColorPointerEXT@OpenGLErrorChecker@OGL@AIF@@UAEXPBDIHIHHPBX@Z" PURGE="28" COMMENT="" />
    <EXPORT ORDINAL="809" NAME="?cgmColorPointerEXT@OpenGLRekorder@OGL@AIF@@UAEXPBDIHIHHPBX@Z" PURGE="-1" COMMENT="" />
    <EXPORT ORDINAL="810" NAME="?cgmColorPointerEXT@OpenGLTracer@OGL@AIF@@UAEXPBDIHIHHPBX@Z" PURGE="28" COMMENT="" />
    <EXPORT ORDINAL="811" NAME="?cgmColorPointerListIBM@OpenGLErrorChecker@OGL@AIF@@UAEXPBDIHIHPAPBXH@Z" PURGE="28" COMMENT="" />
    <EXPORT ORDINAL="812" NAME="?cgmColorPointerListIBM@OpenGLRekorder@OGL@AIF@@UAEXPBDIHIHPAPBXH@Z" PURGE="-1" COMMENT="" />
    <EXPORT ORDINAL="813" NAME="?cgmColorPointerListIBM@OpenGLTracer@OGL@AIF@@UAEXPBDIHIHPAPBXH@Z" PURGE="28" COMMENT="" />
    <EXPORT ORDINAL="814" NAME="?cgmColorPointervINTEL@OpenGLErrorChecker@OGL@AIF@@UAEXPBDIHIPAPBX@Z" PURGE="20" COMMENT="" />
    <EXPORT ORDINAL="815" NAME="?cgmColorPointervINTEL@OpenGLRekorder@OGL@AIF@@UAEXPBDIHIPAPBX@Z" PURGE="-1" COMMENT="" />
    <EXPORT ORDINAL="816" NAME="?cgmColorPointervINTEL@OpenGLTracer@OGL@AIF@@UAEXPBDIHIPAPBX@Z" PURGE="20" COMMENT="" />
    <EXPORT ORDINAL="817" NAME="?cgmColorSubTable@OpenGLErrorChecker@OGL@AIF@@UAEXPBDIIHHIIPBX@Z" PURGE="32" COMMENT="" />
    <EXPORT ORDINAL="818" NAME="?cgmColorSubTable@OpenGLRekorder@OGL@AIF@@UAEXPBDIIHHIIPBX@Z" PURGE="-1" COMMENT="" />
    <EXPORT ORDINAL="819" NAME="?cgmColorSubTable@OpenGLTracer@OGL@AIF@@UAEXPBDIIHHIIPBX@Z" PURGE="32" COMMENT="" />
    <EXPORT ORDINAL="820" NAME="?cgmColorSubTableEXT@OpenGLErrorChecker@OGL@AIF@@UAEXPBDIIHHIIPBX@Z" PURGE="32" COMMENT="" />
    <EXPORT ORDINAL="821" NAME="?cgmColorSubTableEXT@OpenGLRekorder@OGL@AIF@@UAEXPBDIIHHIIPBX@Z" PURGE="-1" COMMENT="" />
    <EXPORT ORDINAL="822" NAME="?cgmColorSubTableEXT@OpenGLTracer@OGL@AIF@@UAEXPBDIIHHIIPBX@Z" PURGE="32" COMMENT="" />
    <EXPORT ORDINAL="823" NAME="?cgmColorTable@OpenGLErrorChecker@OGL@AIF@@UAEXPBDIIIHIIPBX@Z" PURGE="32" COMMENT="" />
    <EXPORT ORDINAL="824" NAME="?cgmColorTable@OpenGLRekorder@OGL@AIF@@UAEXPBDIIIHIIPBX@Z" PURGE="-1" COMMENT="" />
    <EXPORT ORDINAL="825" NAME="?cgmColorTable@OpenGLTracer@OGL@AIF@@UAEXPBDIIIHIIPBX@Z" PURGE="32" COMMENT="" />
    <EXPORT ORDINAL="826" NAME="?cgmColorTableEXT@OpenGLErrorChecker@OGL@AIF@@UAEXPBDIIIHIIPBX@Z" PURGE="32" COMMENT="" />
    <EXPORT ORDINAL="827" NAME="?cgmColorTableEXT@OpenGLRekorder@OGL@AIF@@UAEXPBDIIIHIIPBX@Z" PURGE="-1" COMMENT="" />
    <EXPORT ORDINAL="828" NAME="?cgmColorTableEXT@OpenGLTracer@OGL@AIF@@UAEXPBDIIIHIIPBX@Z" PURGE="32" COMMENT="" />
    <EXPORT ORDINAL="829" NAME="?cgmColorTableParameterfv@OpenGLErrorChecker@OGL@AIF@@UAEXPBDIIIPBM@Z" PURGE="20" COMMENT="" />
    <EXPORT ORDINAL="830" NAME="?cgmColorTableParameterfv@OpenGLRekorder@OGL@AIF@@UAEXPBDIIIPBM@Z" PURGE="-1" COMMENT="" />
    <EXPORT ORDINAL="831" NAME="?cgmColorTableParameterfv@OpenGLTracer@OGL@AIF@@UAEXPBDIIIPBM@Z" PURGE="20" COMMENT="" />
    <EXPORT ORDINAL="832" NAME="?cgmColorTableParameterfvSGI@OpenGLErrorChecker@OGL@AIF@@UAEXPBDIIIPBM@Z" PURGE="20" COMMENT="" />
    <EXPORT ORDINAL="833" NAME="?cgmColorTableParameterfvSGI@OpenGLRekorder@OGL@AIF@@UAEXPBDIIIPBM@Z" PURGE="-1" COMMENT="" />
    <EXPORT ORDINAL="834" NAME="?cgmColorTableParameterfvSGI@OpenGLTracer@OGL@AIF@@UAEXPBDIIIPBM@Z" PURGE="20" COMMENT="" />
    <EXPORT ORDINAL="835" NAME="?cgmColorTableParameteriv@OpenGLErrorChecker@OGL@AIF@@UAEXPBDIIIPBH@Z" PURGE="20" COMMENT="" />
    <EXPORT ORDINAL="836" NAME="?cgmColorTableParameteriv@OpenGLRekorder@OGL@AIF@@UAEXPBDIIIPBH@Z" PURGE="-1" COMMENT="" />
    <EXPORT ORDINAL="837" NAME="?cgmColorTableParameteriv@OpenGLTracer@OGL@AIF@@UAEXPBDIIIPBH@Z" PURGE="20" COMMENT="" />
    <EXPORT ORDINAL="838" NAME="?cgmColorTableParameterivSGI@OpenGLErrorChecker@OGL@AIF@@UAEXPBDIIIPBH@Z" PURGE="20" COMMENT="" />
    <EXPORT ORDINAL="839" NAME="?cgmColorTableParameterivSGI@OpenGLRekorder@OGL@AIF@@UAEXPBDIIIPBH@Z" PURGE="-1" COMMENT="" />
    <EXPORT ORDINAL="840" NAME="?cgmColorTableParameterivSGI@OpenGLTracer@OGL@AIF@@UAEXPBDIIIPBH@Z" PURGE="20" COMMENT="" />
    <EXPORT ORDINAL="841" NAME="?cgmColorTableSGI@OpenGLErrorChecker@OGL@AIF@@UAEXPBDIIIHIIPBX@Z" PURGE="32" COMMENT="" />
    <EXPORT ORDINAL="842" NAME="?cgmColorTableSGI@OpenGLRekorder@OGL@AIF@@UAEXPBDIIIHIIPBX@Z" PURGE="-1" COMMENT="" />
    <EXPORT ORDINAL="843" NAME="?cgmColorTableSGI@OpenGLTracer@OGL@AIF@@UAEXPBDIIIHIIPBX@Z" PURGE="32" COMMENT="" />
    <EXPORT ORDINAL="844" NAME="?cgmCombinerInputNV@OpenGLErrorChecker@OGL@AIF@@UAEXPBDIIIIIII@Z" PURGE="32" COMMENT="" />
    <EXPORT ORDINAL="845" NAME="?cgmCombinerInputNV@OpenGLRekorder@OGL@AIF@@UAEXPBDIIIIIII@Z" PURGE="32" COMMENT="" />
    <EXPORT ORDINAL="846" NAME="?cgmCombinerInputNV@OpenGLTracer@OGL@AIF@@UAEXPBDIIIIIII@Z" PURGE="32" COMMENT="" />
    <EXPORT ORDINAL="847" NAME="?cgmCombinerOutputNV@OpenGLErrorChecker@OGL@AIF@@UAEXPBDIIIIIIIIEEE@Z" PURGE="48" COMMENT="" />
    <EXPORT ORDINAL="848" NAME="?cgmCombinerOutputNV@OpenGLRekorder@OGL@AIF@@UAEXPBDIIIIIIIIEEE@Z" PURGE="48" COMMENT="" />
    <EXPORT ORDINAL="849" NAME="?cgmCombinerOutputNV@OpenGLTracer@OGL@AIF@@UAEXPBDIIIIIIIIEEE@Z" PURGE="48" COMMENT="" />
    <EXPORT ORDINAL="850" NAME="?cgmCombinerParameterfNV@OpenGLErrorChecker@OGL@AIF@@UAEXPBDIIM@Z" PURGE="16" COMMENT="" />
    <EXPORT ORDINAL="851" NAME="?cgmCombinerParameterfNV@OpenGLRekorder@OGL@AIF@@UAEXPBDIIM@Z" PURGE="16" COMMENT="" />
    <EXPORT ORDINAL="852" NAME="?cgmCombinerParameterfNV@OpenGLTracer@OGL@AIF@@UAEXPBDIIM@Z" PURGE="16" COMMENT="" />
    <EXPORT ORDINAL="853" NAME="?cgmCombinerParameterfvNV@OpenGLErrorChecker@OGL@AIF@@UAEXPBDIIPBM@Z" PURGE="16" COMMENT="" />
    <EXPORT ORDINAL="854" NAME="?cgmCombinerParameterfvNV@OpenGLRekorder@OGL@AIF@@UAEXPBDIIPBM@Z" PURGE="-1" COMMENT="" />
    <EXPORT ORDINAL="855" NAME="?cgmCombinerParameterfvNV@OpenGLTracer@OGL@AIF@@UAEXPBDIIPBM@Z" PURGE="16" COMMENT="" />
    <EXPORT ORDINAL="856" NAME="?cgmCombinerParameteriNV@OpenGLErrorChecker@OGL@AIF@@UAEXPBDIIH@Z" PURGE="16" COMMENT="" />
    <EXPORT ORDINAL="857" NAME="?cgmCombinerParameteriNV@OpenGLRekorder@OGL@AIF@@UAEXPBDIIH@Z" PURGE="16" COMMENT="" />
    <EXPORT ORDINAL="858" NAME="?cgmCombinerParameteriNV@OpenGLTracer@OGL@AIF@@UAEXPBDIIH@Z" PURGE="16" COMMENT="" />
    <EXPORT ORDINAL="859" NAME="?cgmCombinerParameterivNV@OpenGLErrorChecker@OGL@AIF@@UAEXPBDIIPBH@Z" PURGE="16" COMMENT="" />
    <EXPORT ORDINAL="860" NAME="?cgmCombinerParameterivNV@OpenGLRekorder@OGL@AIF@@UAEXPBDIIPBH@Z" PURGE="-1" COMMENT="" />
    <EXPORT ORDINAL="861" NAME="?cgmCombinerParameterivNV@OpenGLTracer@OGL@AIF@@UAEXPBDIIPBH@Z" PURGE="16" COMMENT="" />
    <EXPORT ORDINAL="862" NAME="?cgmCombinerStageParameterfvNV@OpenGLErrorChecker@OGL@AIF@@UAEXPBDIIIPBM@Z" PURGE="20" COMMENT="" />
    <EXPORT ORDINAL="863" NAME="?cgmCombinerStageParameterfvNV@OpenGLRekorder@OGL@AIF@@UAEXPBDIIIPBM@Z" PURGE="-1" COMMENT="" />
    <EXPORT ORDINAL="864" NAME="?cgmCombinerStageParameterfvNV@OpenGLTracer@OGL@AIF@@UAEXPBDIIIPBM@Z" PURGE="20" COMMENT="" />
    <EXPORT ORDINAL="865" NAME="?cgmCompileShader@OpenGLErrorChecker@OGL@AIF@@UAEXPBDII@Z" PURGE="12" COMMENT="" />
    <EXPORT ORDINAL="866" NAME="?cgmCompileShader@OpenGLRekorder@OGL@AIF@@UAEXPBDII@Z" PURGE="12" COMMENT="" />
    <EXPORT ORDINAL="867" NAME="?cgmCompileShader@OpenGLTracer@OGL@AIF@@UAEXPBDII@Z" PURGE="12" COMMENT="" />
    <EXPORT ORDINAL="868" NAME="?cgmCompileShaderARB@OpenGLErrorChecker@OGL@AIF@@UAEXPBDII@Z" PURGE="12" COMMENT="" />
    <EXPORT ORDINAL="869" NAME="?cgmCompileShaderARB@OpenGLRekorder@OGL@AIF@@UAEXPBDII@Z" PURGE="12" COMMENT="" />
    <EXPORT ORDINAL="870" NAME="?cgmCompileShaderARB@OpenGLTracer@OGL@AIF@@UAEXPBDII@Z" PURGE="12" COMMENT="" />
    <EXPORT ORDINAL="871" NAME="?cgmCompressedMultiTexImage1DEXT@OpenGLErrorChecker@OGL@AIF@@UAEXPBDIIIHIHHHPBX@Z" PURGE="40" COMMENT="" />
    <EXPORT ORDINAL="872" NAME="?cgmCompressedMultiTexImage1DEXT@OpenGLRekorder@OGL@AIF@@UAEXPBDIIIHIHHHPBX@Z" PURGE="-1" COMMENT="" />
    <EXPORT ORDINAL="873" NAME="?cgmCompressedMultiTexImage1DEXT@OpenGLTracer@OGL@AIF@@UAEXPBDIIIHIHHHPBX@Z" PURGE="40" COMMENT="" />
    <EXPORT ORDINAL="874" NAME="?cgmCompressedMultiTexImage2DEXT@OpenGLErrorChecker@OGL@AIF@@UAEXPBDIIIHIHHHHPBX@Z" PURGE="44" COMMENT="" />
    <EXPORT ORDINAL="875" NAME="?cgmCompressedMultiTexImage2DEXT@OpenGLRekorder@OGL@AIF@@UAEXPBDIIIHIHHHHPBX@Z" PURGE="-1" COMMENT="" />
    <EXPORT ORDINAL="876" NAME="?cgmCompressedMultiTexImage2DEXT@OpenGLTracer@OGL@AIF@@UAEXPBDIIIHIHHHHPBX@Z" PURGE="44" COMMENT="" />
    <EXPORT ORDINAL="877" NAME="?cgmCompressedMultiTexImage3DEXT@OpenGLErrorChecker@OGL@AIF@@UAEXPBDIIIHIHHHHHPBX@Z" PURGE="48" COMMENT="" />
    <EXPORT ORDINAL="878" NAME="?cgmCompressedMultiTexImage3DEXT@OpenGLRekorder@OGL@AIF@@UAEXPBDIIIHIHHHHHPBX@Z" PURGE="-1" COMMENT="" />
    <EXPORT ORDINAL="879" NAME="?cgmCompressedMultiTexImage3DEXT@OpenGLTracer@OGL@AIF@@UAEXPBDIIIHIHHHHHPBX@Z" PURGE="48" COMMENT="" />
    <EXPORT ORDINAL="880" NAME="?cgmCompressedMultiTexSubImage1DEXT@OpenGLErrorChecker@OGL@AIF@@UAEXPBDIIIHHHIHPBX@Z" PURGE="40" COMMENT="" />
    <EXPORT ORDINAL="881" NAME="?cgmCompressedMultiTexSubImage1DEXT@OpenGLRekorder@OGL@AIF@@UAEXPBDIIIHHHIHPBX@Z" PURGE="-1" COMMENT="" />
    <EXPORT ORDINAL="882" NAME="?cgmCompressedMultiTexSubImage1DEXT@OpenGLTracer@OGL@AIF@@UAEXPBDIIIHHHIHPBX@Z" PURGE="40" COMMENT="" />
    <EXPORT ORDINAL="883" NAME="?cgmCompressedMultiTexSubImage2DEXT@OpenGLErrorChecker@OGL@AIF@@UAEXPBDIIIHHHHHIHPBX@Z" PURGE="48" COMMENT="" />
    <EXPORT ORDINAL="884" NAME="?cgmCompressedMultiTexSubImage2DEXT@OpenGLRekorder@OGL@AIF@@UAEXPBDIIIHHHHHIHPBX@Z" PURGE="-1" COMMENT="" />
    <EXPORT ORDINAL="885" NAME="?cgmCompressedMultiTexSubImage2DEXT@OpenGLTracer@OGL@AIF@@UAEXPBDIIIHHHHHIHPBX@Z" PURGE="48" COMMENT="" />
    <EXPORT ORDINAL="886" NAME="?cgmCompressedMultiTexSubImage3DEXT@OpenGLErrorChecker@OGL@AIF@@UAEXPBDIIIHHHHHHHIHPBX@Z" PURGE="56" COMMENT="" />
    <EXPORT ORDINAL="887" NAME="?cgmCompressedMultiTexSubImage3DEXT@OpenGLRekorder@OGL@AIF@@UAEXPBDIIIHHHHHHHIHPBX@Z" PURGE="-1" COMMENT="" />
    <EXPORT ORDINAL="888" NAME="?cgmCompressedMultiTexSubImage3DEXT@OpenGLTracer@OGL@AIF@@UAEXPBDIIIHHHHHHHIHPBX@Z" PURGE="56" COMMENT="" />
    <EXPORT ORDINAL="889" NAME="?cgmCompressedTexImage1D@OpenGLErrorChecker@OGL@AIF@@UAEXPBDIIHIHHHPBX@Z" PURGE="36" COMMENT="" />
    <EXPORT ORDINAL="890" NAME="?cgmCompressedTexImage1D@OpenGLRekorder@OGL@AIF@@UAEXPBDIIHIHHHPBX@Z" PURGE="-1" COMMENT="" />
    <EXPORT ORDINAL="891" NAME="?cgmCompressedTexImage1D@OpenGLTracer@OGL@AIF@@UAEXPBDIIHIHHHPBX@Z" PURGE="36" COMMENT="" />
    <EXPORT ORDINAL="892" NAME="?cgmCompressedTexImage1DARB@OpenGLErrorChecker@OGL@AIF@@UAEXPBDIIHIHHHPBX@Z" PURGE="36" COMMENT="" />
    <EXPORT ORDINAL="893" NAME="?cgmCompressedTexImage1DARB@OpenGLRekorder@OGL@AIF@@UAEXPBDIIHIHHHPBX@Z" PURGE="-1" COMMENT="" />
    <EXPORT ORDINAL="894" NAME="?cgmCompressedTexImage1DARB@OpenGLTracer@OGL@AIF@@UAEXPBDIIHIHHHPBX@Z" PURGE="36" COMMENT="" />
    <EXPORT ORDINAL="895" NAME="?cgmCompressedTexImage2D@OpenGLErrorChecker@OGL@AIF@@UAEXPBDIIHIHHHHPBX@Z" PURGE="40" COMMENT="" />
    <EXPORT ORDINAL="896" NAME="?cgmCompressedTexImage2D@OpenGLRekorder@OGL@AIF@@UAEXPBDIIHIHHHHPBX@Z" PURGE="-1" COMMENT="" />
    <EXPORT ORDINAL="897" NAME="?cgmCompressedTexImage2D@OpenGLTracer@OGL@AIF@@UAEXPBDIIHIHHHHPBX@Z" PURGE="40" COMMENT="" />
    <EXPORT ORDINAL="898" NAME="?cgmCompressedTexImage2DARB@OpenGLErrorChecker@OGL@AIF@@UAEXPBDIIHIHHHHPBX@Z" PURGE="40" COMMENT="" />
    <EXPORT ORDINAL="899" NAME="?cgmCompressedTexImage2DARB@OpenGLRekorder@OGL@AIF@@UAEXPBDIIHIHHHHPBX@Z" PURGE="-1" COMMENT="" />
    <EXPORT ORDINAL="900" NAME="?cgmCompressedTexImage2DARB@OpenGLTracer@OGL@AIF@@UAEXPBDIIHIHHHHPBX@Z" PURGE="40" COMMENT="" />
    <EXPORT ORDINAL="901" NAME="?cgmCompressedTexImage3D@OpenGLErrorChecker@OGL@AIF@@UAEXPBDIIHIHHHHHPBX@Z" PURGE="44" COMMENT="" />
    <EXPORT ORDINAL="902" NAME="?cgmCompressedTexImage3D@OpenGLRekorder@OGL@AIF@@UAEXPBDIIHIHHHHHPBX@Z" PURGE="-1" COMMENT="" />
    <EXPORT ORDINAL="903" NAME="?cgmCompressedTexImage3D@OpenGLTracer@OGL@AIF@@UAEXPBDIIHIHHHHHPBX@Z" PURGE="44" COMMENT="" />
    <EXPORT ORDINAL="904" NAME="?cgmCompressedTexImage3DARB@OpenGLErrorChecker@OGL@AIF@@UAEXPBDIIHIHHHHHPBX@Z" PURGE="44" COMMENT="" />
    <EXPORT ORDINAL="905" NAME="?cgmCompressedTexImage3DARB@OpenGLRekorder@OGL@AIF@@UAEXPBDIIHIHHHHHPBX@Z" PURGE="-1" COMMENT="" />
    <EXPORT ORDINAL="906" NAME="?cgmCompressedTexImage3DARB@OpenGLTracer@OGL@AIF@@UAEXPBDIIHIHHHHHPBX@Z" PURGE="44" COMMENT="" />
    <EXPORT ORDINAL="907" NAME="?cgmCompressedTexSubImage1D@OpenGLErrorChecker@OGL@AIF@@UAEXPBDIIHHHIHPBX@Z" PURGE="36" COMMENT="" />
    <EXPORT ORDINAL="908" NAME="?cgmCompressedTexSubImage1D@OpenGLRekorder@OGL@AIF@@UAEXPBDIIHHHIHPBX@Z" PURGE="-1" COMMENT="" />
    <EXPORT ORDINAL="909" NAME="?cgmCompressedTexSubImage1D@OpenGLTracer@OGL@AIF@@UAEXPBDIIHHHIHPBX@Z" PURGE="36" COMMENT="" />
    <EXPORT ORDINAL="910" NAME="?cgmCompressedTexSubImage1DARB@OpenGLErrorChecker@OGL@AIF@@UAEXPBDIIHHHIHPBX@Z" PURGE="36" COMMENT="" />
    <EXPORT ORDINAL="911" NAME="?cgmCompressedTexSubImage1DARB@OpenGLRekorder@OGL@AIF@@UAEXPBDIIHHHIHPBX@Z" PURGE="-1" COMMENT="" />
    <EXPORT ORDINAL="912" NAME="?cgmCompressedTexSubImage1DARB@OpenGLTracer@OGL@AIF@@UAEXPBDIIHHHIHPBX@Z" PURGE="36" COMMENT="" />
    <EXPORT ORDINAL="913" NAME="?cgmCompressedTexSubImage2D@OpenGLErrorChecker@OGL@AIF@@UAEXPBDIIHHHHHIHPBX@Z" PURGE="44" COMMENT="" />
    <EXPORT ORDINAL="914" NAME="?cgmCompressedTexSubImage2D@OpenGLRekorder@OGL@AIF@@UAEXPBDIIHHHHHIHPBX@Z" PURGE="-1" COMMENT="" />
    <EXPORT ORDINAL="915" NAME="?cgmCompressedTexSubImage2D@OpenGLTracer@OGL@AIF@@UAEXPBDIIHHHHHIHPBX@Z" PURGE="44" COMMENT="" />
    <EXPORT ORDINAL="916" NAME="?cgmCompressedTexSubImage2DARB@OpenGLErrorChecker@OGL@AIF@@UAEXPBDIIHHHHHIHPBX@Z" PURGE="44" COMMENT="" />
    <EXPORT ORDINAL="917" NAME="?cgmCompressedTexSubImage2DARB@OpenGLRekorder@OGL@AIF@@UAEXPBDIIHHHHHIHPBX@Z" PURGE="-1" COMMENT="" />
    <EXPORT ORDINAL="918" NAME="?cgmCompressedTexSubImage2DARB@OpenGLTracer@OGL@AIF@@UAEXPBDIIHHHHHIHPBX@Z" PURGE="44" COMMENT="" />
    <EXPORT ORDINAL="919" NAME="?cgmCompressedTexSubImage3D@OpenGLErrorChecker@OGL@AIF@@UAEXPBDIIHHHHHHHIHPBX@Z" PURGE="52" COMMENT="" />
    <EXPORT ORDINAL="920" NAME="?cgmCompressedTexSubImage3D@OpenGLRekorder@OGL@AIF@@UAEXPBDIIHHHHHHHIHPBX@Z" PURGE="-1" COMMENT="" />
    <EXPORT ORDINAL="921" NAME="?cgmCompressedTexSubImage3D@OpenGLTracer@OGL@AIF@@UAEXPBDIIHHHHHHHIHPBX@Z" PURGE="52" COMMENT="" />
    <EXPORT ORDINAL="922" NAME="?cgmCompressedTexSubImage3DARB@OpenGLErrorChecker@OGL@AIF@@UAEXPBDIIHHHHHHHIHPBX@Z" PURGE="52" COMMENT="" />
    <EXPORT ORDINAL="923" NAME="?cgmCompressedTexSubImage3DARB@OpenGLRekorder@OGL@AIF@@UAEXPBDIIHHHHHHHIHPBX@Z" PURGE="-1" COMMENT="" />
    <EXPORT ORDINAL="924" NAME="?cgmCompressedTexSubImage3DARB@OpenGLTracer@OGL@AIF@@UAEXPBDIIHHHHHHHIHPBX@Z" PURGE="52" COMMENT="" />
    <EXPORT ORDINAL="925" NAME="?cgmCompressedTextureImage1DEXT@OpenGLErrorChecker@OGL@AIF@@UAEXPBDIIIHIHHHPBX@Z" PURGE="40" COMMENT="" />
    <EXPORT ORDINAL="926" NAME="?cgmCompressedTextureImage1DEXT@OpenGLRekorder@OGL@AIF@@UAEXPBDIIIHIHHHPBX@Z" PURGE="-1" COMMENT="" />
    <EXPORT ORDINAL="927" NAME="?cgmCompressedTextureImage1DEXT@OpenGLTracer@OGL@AIF@@UAEXPBDIIIHIHHHPBX@Z" PURGE="40" COMMENT="" />
    <EXPORT ORDINAL="928" NAME="?cgmCompressedTextureImage2DEXT@OpenGLErrorChecker@OGL@AIF@@UAEXPBDIIIHIHHHHPBX@Z" PURGE="44" COMMENT="" />
    <EXPORT ORDINAL="929" NAME="?cgmCompressedTextureImage2DEXT@OpenGLRekorder@OGL@AIF@@UAEXPBDIIIHIHHHHPBX@Z" PURGE="-1" COMMENT="" />
    <EXPORT ORDINAL="930" NAME="?cgmCompressedTextureImage2DEXT@OpenGLTracer@OGL@AIF@@UAEXPBDIIIHIHHHHPBX@Z" PURGE="44" COMMENT="" />
    <EXPORT ORDINAL="931" NAME="?cgmCompressedTextureImage3DEXT@OpenGLErrorChecker@OGL@AIF@@UAEXPBDIIIHIHHHHHPBX@Z" PURGE="48" COMMENT="" />
    <EXPORT ORDINAL="932" NAME="?cgmCompressedTextureImage3DEXT@OpenGLRekorder@OGL@AIF@@UAEXPBDIIIHIHHHHHPBX@Z" PURGE="-1" COMMENT="" />
    <EXPORT ORDINAL="933" NAME="?cgmCompressedTextureImage3DEXT@OpenGLTracer@OGL@AIF@@UAEXPBDIIIHIHHHHHPBX@Z" PURGE="48" COMMENT="" />
    <EXPORT ORDINAL="934" NAME="?cgmCompressedTextureSubImage1DEXT@OpenGLErrorChecker@OGL@AIF@@UAEXPBDIIIHHHIHPBX@Z" PURGE="40" COMMENT="" />
    <EXPORT ORDINAL="935" NAME="?cgmCompressedTextureSubImage1DEXT@OpenGLRekorder@OGL@AIF@@UAEXPBDIIIHHHIHPBX@Z" PURGE="-1" COMMENT="" />
    <EXPORT ORDINAL="936" NAME="?cgmCompressedTextureSubImage1DEXT@OpenGLTracer@OGL@AIF@@UAEXPBDIIIHHHIHPBX@Z" PURGE="40" COMMENT="" />
    <EXPORT ORDINAL="937" NAME="?cgmCompressedTextureSubImage2DEXT@OpenGLErrorChecker@OGL@AIF@@UAEXPBDIIIHHHHHIHPBX@Z" PURGE="48" COMMENT="" />
    <EXPORT ORDINAL="938" NAME="?cgmCompressedTextureSubImage2DEXT@OpenGLRekorder@OGL@AIF@@UAEXPBDIIIHHHHHIHPBX@Z" PURGE="-1" COMMENT="" />
    <EXPORT ORDINAL="939" NAME="?cgmCompressedTextureSubImage2DEXT@OpenGLTracer@OGL@AIF@@UAEXPBDIIIHHHHHIHPBX@Z" PURGE="48" COMMENT="" />
    <EXPORT ORDINAL="940" NAME="?cgmCompressedTextureSubImage3DEXT@OpenGLErrorChecker@OGL@AIF@@UAEXPBDIIIHHHHHHHIHPBX@Z" PURGE="56" COMMENT="" />
    <EXPORT ORDINAL="941" NAME="?cgmCompressedTextureSubImage3DEXT@OpenGLRekorder@OGL@AIF@@UAEXPBDIIIHHHHHHHIHPBX@Z" PURGE="-1" COMMENT="" />
    <EXPORT ORDINAL="942" NAME="?cgmCompressedTextureSubImage3DEXT@OpenGLTracer@OGL@AIF@@UAEXPBDIIIHHHHHHHIHPBX@Z" PURGE="56" COMMENT="" />
    <EXPORT ORDINAL="943" NAME="?cgmConvolutionFilter1D@OpenGLErrorChecker@OGL@AIF@@UAEXPBDIIIHIIPBX@Z" PURGE="32" COMMENT="" />
    <EXPORT ORDINAL="944" NAME="?cgmConvolutionFilter1D@OpenGLRekorder@OGL@AIF@@UAEXPBDIIIHIIPBX@Z" PURGE="-1" COMMENT="" />
    <EXPORT ORDINAL="945" NAME="?cgmConvolutionFilter1D@OpenGLTracer@OGL@AIF@@UAEXPBDIIIHIIPBX@Z" PURGE="32" COMMENT="" />
    <EXPORT ORDINAL="946" NAME="?cgmConvolutionFilter1DEXT@OpenGLErrorChecker@OGL@AIF@@UAEXPBDIIIHIIPBX@Z" PURGE="32" COMMENT="" />
    <EXPORT ORDINAL="947" NAME="?cgmConvolutionFilter1DEXT@OpenGLRekorder@OGL@AIF@@UAEXPBDIIIHIIPBX@Z" PURGE="-1" COMMENT="" />
    <EXPORT ORDINAL="948" NAME="?cgmConvolutionFilter1DEXT@OpenGLTracer@OGL@AIF@@UAEXPBDIIIHIIPBX@Z" PURGE="32" COMMENT="" />
    <EXPORT ORDINAL="949" NAME="?cgmConvolutionFilter2D@OpenGLErrorChecker@OGL@AIF@@UAEXPBDIIIHHIIPBX@Z" PURGE="36" COMMENT="" />
    <EXPORT ORDINAL="950" NAME="?cgmConvolutionFilter2D@OpenGLRekorder@OGL@AIF@@UAEXPBDIIIHHIIPBX@Z" PURGE="-1" COMMENT="" />
    <EXPORT ORDINAL="951" NAME="?cgmConvolutionFilter2D@OpenGLTracer@OGL@AIF@@UAEXPBDIIIHHIIPBX@Z" PURGE="36" COMMENT="" />
    <EXPORT ORDINAL="952" NAME="?cgmConvolutionFilter2DEXT@OpenGLErrorChecker@OGL@AIF@@UAEXPBDIIIHHIIPBX@Z" PURGE="36" COMMENT="" />
    <EXPORT ORDINAL="953" NAME="?cgmConvolutionFilter2DEXT@OpenGLRekorder@OGL@AIF@@UAEXPBDIIIHHIIPBX@Z" PURGE="-1" COMMENT="" />
    <EXPORT ORDINAL="954" NAME="?cgmConvolutionFilter2DEXT@OpenGLTracer@OGL@AIF@@UAEXPBDIIIHHIIPBX@Z" PURGE="36" COMMENT="" />
    <EXPORT ORDINAL="955" NAME="?cgmConvolutionParameterf@OpenGLErrorChecker@OGL@AIF@@UAEXPBDIIIM@Z" PURGE="20" COMMENT="" />
    <EXPORT ORDINAL="956" NAME="?cgmConvolutionParameterf@OpenGLRekorder@OGL@AIF@@UAEXPBDIIIM@Z" PURGE="20" COMMENT="" />
    <EXPORT ORDINAL="957" NAME="?cgmConvolutionParameterf@OpenGLTracer@OGL@AIF@@UAEXPBDIIIM@Z" PURGE="20" COMMENT="" />
    <EXPORT ORDINAL="958" NAME="?cgmConvolutionParameterfEXT@OpenGLErrorChecker@OGL@AIF@@UAEXPBDIIIM@Z" PURGE="20" COMMENT="" />
    <EXPORT ORDINAL="959" NAME="?cgmConvolutionParameterfEXT@OpenGLRekorder@OGL@AIF@@UAEXPBDIIIM@Z" PURGE="20" COMMENT="" />
    <EXPORT ORDINAL="960" NAME="?cgmConvolutionParameterfEXT@OpenGLTracer@OGL@AIF@@UAEXPBDIIIM@Z" PURGE="20" COMMENT="" />
    <EXPORT ORDINAL="961" NAME="?cgmConvolutionParameterfv@OpenGLErrorChecker@OGL@AIF@@UAEXPBDIIIPBM@Z" PURGE="20" COMMENT="" />
    <EXPORT ORDINAL="962" NAME="?cgmConvolutionParameterfv@OpenGLRekorder@OGL@AIF@@UAEXPBDIIIPBM@Z" PURGE="-1" COMMENT="" />
    <EXPORT ORDINAL="963" NAME="?cgmConvolutionParameterfv@OpenGLTracer@OGL@AIF@@UAEXPBDIIIPBM@Z" PURGE="20" COMMENT="" />
    <EXPORT ORDINAL="964" NAME="?cgmConvolutionParameterfvEXT@OpenGLErrorChecker@OGL@AIF@@UAEXPBDIIIPBM@Z" PURGE="20" COMMENT="" />
    <EXPORT ORDINAL="965" NAME="?cgmConvolutionParameterfvEXT@OpenGLRekorder@OGL@AIF@@UAEXPBDIIIPBM@Z" PURGE="-1" COMMENT="" />
    <EXPORT ORDINAL="966" NAME="?cgmConvolutionParameterfvEXT@OpenGLTracer@OGL@AIF@@UAEXPBDIIIPBM@Z" PURGE="20" COMMENT="" />
    <EXPORT ORDINAL="967" NAME="?cgmConvolutionParameteri@OpenGLErrorChecker@OGL@AIF@@UAEXPBDIIIH@Z" PURGE="20" COMMENT="" />
    <EXPORT ORDINAL="968" NAME="?cgmConvolutionParameteri@OpenGLRekorder@OGL@AIF@@UAEXPBDIIIH@Z" PURGE="20" COMMENT="" />
    <EXPORT ORDINAL="969" NAME="?cgmConvolutionParameteri@OpenGLTracer@OGL@AIF@@UAEXPBDIIIH@Z" PURGE="20" COMMENT="" />
    <EXPORT ORDINAL="970" NAME="?cgmConvolutionParameteriEXT@OpenGLErrorChecker@OGL@AIF@@UAEXPBDIIIH@Z" PURGE="20" COMMENT="" />
    <EXPORT ORDINAL="971" NAME="?cgmConvolutionParameteriEXT@OpenGLRekorder@OGL@AIF@@UAEXPBDIIIH@Z" PURGE="20" COMMENT="" />
    <EXPORT ORDINAL="972" NAME="?cgmConvolutionParameteriEXT@OpenGLTracer@OGL@AIF@@UAEXPBDIIIH@Z" PURGE="20" COMMENT="" />
    <EXPORT ORDINAL="973" NAME="?cgmConvolutionParameteriv@OpenGLErrorChecker@OGL@AIF@@UAEXPBDIIIPBH@Z" PURGE="20" COMMENT="" />
    <EXPORT ORDINAL="974" NAME="?cgmConvolutionParameteriv@OpenGLRekorder@OGL@AIF@@UAEXPBDIIIPBH@Z" PURGE="-1" COMMENT="" />
    <EXPORT ORDINAL="975" NAME="?cgmConvolutionParameteriv@OpenGLTracer@OGL@AIF@@UAEXPBDIIIPBH@Z" PURGE="20" COMMENT="" />
    <EXPORT ORDINAL="976" NAME="?cgmConvolutionParameterivEXT@OpenGLErrorChecker@OGL@AIF@@UAEXPBDIIIPBH@Z" PURGE="20" COMMENT="" />
    <EXPORT ORDINAL="977" NAME="?cgmConvolutionParameterivEXT@OpenGLRekorder@OGL@AIF@@UAEXPBDIIIPBH@Z" PURGE="-1" COMMENT="" />
    <EXPORT ORDINAL="978" NAME="?cgmConvolutionParameterivEXT@OpenGLTracer@OGL@AIF@@UAEXPBDIIIPBH@Z" PURGE="20" COMMENT="" />
    <EXPORT ORDINAL="979" NAME="?cgmCopyColorSubTable@OpenGLErrorChecker@OGL@AIF@@UAEXPBDIIHHHH@Z" PURGE="28" COMMENT="" />
    <EXPORT ORDINAL="980" NAME="?cgmCopyColorSubTable@OpenGLRekorder@OGL@AIF@@UAEXPBDIIHHHH@Z" PURGE="28" COMMENT="" />
    <EXPORT ORDINAL="981" NAME="?cgmCopyColorSubTable@OpenGLTracer@OGL@AIF@@UAEXPBDIIHHHH@Z" PURGE="28" COMMENT="" />
    <EXPORT ORDINAL="982" NAME="?cgmCopyColorSubTableEXT@OpenGLErrorChecker@OGL@AIF@@UAEXPBDIIHHHH@Z" PURGE="28" COMMENT="" />
    <EXPORT ORDINAL="983" NAME="?cgmCopyColorSubTableEXT@OpenGLRekorder@OGL@AIF@@UAEXPBDIIHHHH@Z" PURGE="28" COMMENT="" />
    <EXPORT ORDINAL="984" NAME="?cgmCopyColorSubTableEXT@OpenGLTracer@OGL@AIF@@UAEXPBDIIHHHH@Z" PURGE="28" COMMENT="" />
    <EXPORT ORDINAL="985" NAME="?cgmCopyColorTable@OpenGLErrorChecker@OGL@AIF@@UAEXPBDIIIHHH@Z" PURGE="28" COMMENT="" />
    <EXPORT ORDINAL="986" NAME="?cgmCopyColorTable@OpenGLRekorder@OGL@AIF@@UAEXPBDIIIHHH@Z" PURGE="28" COMMENT="" />
    <EXPORT ORDINAL="987" NAME="?cgmCopyColorTable@OpenGLTracer@OGL@AIF@@UAEXPBDIIIHHH@Z" PURGE="28" COMMENT="" />
    <EXPORT ORDINAL="988" NAME="?cgmCopyColorTableSGI@OpenGLErrorChecker@OGL@AIF@@UAEXPBDIIIHHH@Z" PURGE="28" COMMENT="" />
    <EXPORT ORDINAL="989" NAME="?cgmCopyColorTableSGI@OpenGLRekorder@OGL@AIF@@UAEXPBDIIIHHH@Z" PURGE="28" COMMENT="" />
    <EXPORT ORDINAL="990" NAME="?cgmCopyColorTableSGI@OpenGLTracer@OGL@AIF@@UAEXPBDIIIHHH@Z" PURGE="28" COMMENT="" />
    <EXPORT ORDINAL="991" NAME="?cgmCopyConvolutionFilter1D@OpenGLErrorChecker@OGL@AIF@@UAEXPBDIIIHHH@Z" PURGE="28" COMMENT="" />
    <EXPORT ORDINAL="992" NAME="?cgmCopyConvolutionFilter1D@OpenGLRekorder@OGL@AIF@@UAEXPBDIIIHHH@Z" PURGE="28" COMMENT="" />
    <EXPORT ORDINAL="993" NAME="?cgmCopyConvolutionFilter1D@OpenGLTracer@OGL@AIF@@UAEXPBDIIIHHH@Z" PURGE="28" COMMENT="" />
    <EXPORT ORDINAL="994" NAME="?cgmCopyConvolutionFilter1DEXT@OpenGLErrorChecker@OGL@AIF@@UAEXPBDIIIHHH@Z" PURGE="28" COMMENT="" />
    <EXPORT ORDINAL="995" NAME="?cgmCopyConvolutionFilter1DEXT@OpenGLRekorder@OGL@AIF@@UAEXPBDIIIHHH@Z" PURGE="28" COMMENT="" />
    <EXPORT ORDINAL="996" NAME="?cgmCopyConvolutionFilter1DEXT@OpenGLTracer@OGL@AIF@@UAEXPBDIIIHHH@Z" PURGE="28" COMMENT="" />
    <EXPORT ORDINAL="997" NAME="?cgmCopyConvolutionFilter2D@OpenGLErrorChecker@OGL@AIF@@UAEXPBDIIIHHHH@Z" PURGE="32" COMMENT="" />
    <EXPORT ORDINAL="998" NAME="?cgmCopyConvolutionFilter2D@OpenGLRekorder@OGL@AIF@@UAEXPBDIIIHHHH@Z" PURGE="32" COMMENT="" />
    <EXPORT ORDINAL="999" NAME="?cgmCopyConvolutionFilter2D@OpenGLTracer@OGL@AIF@@UAEXPBDIIIHHHH@Z" PURGE="32" COMMENT="" />
    <EXPORT ORDINAL="1000" NAME="?cgmCopyConvolutionFilter2DEXT@OpenGLErrorChecker@OGL@AIF@@UAEXPBDIIIHHHH@Z" PURGE="32" COMMENT="" />
    <EXPORT ORDINAL="1001" NAME="?cgmCopyConvolutionFilter2DEXT@OpenGLRekorder@OGL@AIF@@UAEXPBDIIIHHHH@Z" PURGE="32" COMMENT="" />
    <EXPORT ORDINAL="1002" NAME="?cgmCopyConvolutionFilter2DEXT@OpenGLTracer@OGL@AIF@@UAEXPBDIIIHHHH@Z" PURGE="32" COMMENT="" />
    <EXPORT ORDINAL="1003" NAME="?cgmCopyMultiTexImage1DEXT@OpenGLErrorChecker@OGL@AIF@@UAEXPBDIIIHIHHHH@Z" PURGE="40" COMMENT="" />
    <EXPORT ORDINAL="1004" NAME="?cgmCopyMultiTexImage1DEXT@OpenGLRekorder@OGL@AIF@@UAEXPBDIIIHIHHHH@Z" PURGE="40" COMMENT="" />
    <EXPORT ORDINAL="1005" NAME="?cgmCopyMultiTexImage1DEXT@OpenGLTracer@OGL@AIF@@UAEXPBDIIIHIHHHH@Z" PURGE="40" COMMENT="" />
    <EXPORT ORDINAL="1006" NAME="?cgmCopyMultiTexImage2DEXT@OpenGLErrorChecker@OGL@AIF@@UAEXPBDIIIHIHHHHH@Z" PURGE="44" COMMENT="" />
    <EXPORT ORDINAL="1007" NAME="?cgmCopyMultiTexImage2DEXT@OpenGLRekorder@OGL@AIF@@UAEXPBDIIIHIHHHHH@Z" PURGE="44" COMMENT="" />
    <EXPORT ORDINAL="1008" NAME="?cgmCopyMultiTexImage2DEXT@OpenGLTracer@OGL@AIF@@UAEXPBDIIIHIHHHHH@Z" PURGE="44" COMMENT="" />
    <EXPORT ORDINAL="1009" NAME="?cgmCopyMultiTexSubImage1DEXT@OpenGLErrorChecker@OGL@AIF@@UAEXPBDIIIHHHHH@Z" PURGE="36" COMMENT="" />
    <EXPORT ORDINAL="1010" NAME="?cgmCopyMultiTexSubImage1DEXT@OpenGLRekorder@OGL@AIF@@UAEXPBDIIIHHHHH@Z" PURGE="36" COMMENT="" />
    <EXPORT ORDINAL="1011" NAME="?cgmCopyMultiTexSubImage1DEXT@OpenGLTracer@OGL@AIF@@UAEXPBDIIIHHHHH@Z" PURGE="36" COMMENT="" />
    <EXPORT ORDINAL="1012" NAME="?cgmCopyMultiTexSubImage2DEXT@OpenGLErrorChecker@OGL@AIF@@UAEXPBDIIIHHHHHHH@Z" PURGE="44" COMMENT="" />
    <EXPORT ORDINAL="1013" NAME="?cgmCopyMultiTexSubImage2DEXT@OpenGLRekorder@OGL@AIF@@UAEXPBDIIIHHHHHHH@Z" PURGE="44" COMMENT="" />
    <EXPORT ORDINAL="1014" NAME="?cgmCopyMultiTexSubImage2DEXT@OpenGLTracer@OGL@AIF@@UAEXPBDIIIHHHHHHH@Z" PURGE="44" COMMENT="" />
    <EXPORT ORDINAL="1015" NAME="?cgmCopyMultiTexSubImage3DEXT@OpenGLErrorChecker@OGL@AIF@@UAEXPBDIIIHHHHHHHH@Z" PURGE="48" COMMENT="" />
    <EXPORT ORDINAL="1016" NAME="?cgmCopyMultiTexSubImage3DEXT@OpenGLRekorder@OGL@AIF@@UAEXPBDIIIHHHHHHHH@Z" PURGE="48" COMMENT="" />
    <EXPORT ORDINAL="1017" NAME="?cgmCopyMultiTexSubImage3DEXT@OpenGLTracer@OGL@AIF@@UAEXPBDIIIHHHHHHHH@Z" PURGE="48" COMMENT="" />
    <EXPORT ORDINAL="1018" NAME="?cgmCopyPixels@OpenGLErrorChecker@OGL@AIF@@UAEXPBDIHHHHI@Z" PURGE="28" COMMENT="" />
    <EXPORT ORDINAL="1019" NAME="?cgmCopyPixels@OpenGLRekorder@OGL@AIF@@UAEXPBDIHHHHI@Z" PURGE="28" COMMENT="" />
    <EXPORT ORDINAL="1020" NAME="?cgmCopyPixels@OpenGLTracer@OGL@AIF@@UAEXPBDIHHHHI@Z" PURGE="28" COMMENT="" />
    <EXPORT ORDINAL="1021" NAME="?cgmCopyTexImage1D@OpenGLErrorChecker@OGL@AIF@@UAEXPBDIIHIHHHH@Z" PURGE="36" COMMENT="" />
    <EXPORT ORDINAL="1022" NAME="?cgmCopyTexImage1D@OpenGLRekorder@OGL@AIF@@UAEXPBDIIHIHHHH@Z" PURGE="36" COMMENT="" />
    <EXPORT ORDINAL="1023" NAME="?cgmCopyTexImage1D@OpenGLTracer@OGL@AIF@@UAEXPBDIIHIHHHH@Z" PURGE="36" COMMENT="" />
    <EXPORT ORDINAL="1024" NAME="?cgmCopyTexImage1DEXT@OpenGLErrorChecker@OGL@AIF@@UAEXPBDIIHIHHHH@Z" PURGE="36" COMMENT="" />
    <EXPORT ORDINAL="1025" NAME="?cgmCopyTexImage1DEXT@OpenGLRekorder@OGL@AIF@@UAEXPBDIIHIHHHH@Z" PURGE="36" COMMENT="" />
    <EXPORT ORDINAL="1026" NAME="?cgmCopyTexImage1DEXT@OpenGLTracer@OGL@AIF@@UAEXPBDIIHIHHHH@Z" PURGE="36" COMMENT="" />
    <EXPORT ORDINAL="1027" NAME="?cgmCopyTexImage2D@OpenGLErrorChecker@OGL@AIF@@UAEXPBDIIHIHHHHH@Z" PURGE="40" COMMENT="" />
    <EXPORT ORDINAL="1028" NAME="?cgmCopyTexImage2D@OpenGLRekorder@OGL@AIF@@UAEXPBDIIHIHHHHH@Z" PURGE="40" COMMENT="" />
    <EXPORT ORDINAL="1029" NAME="?cgmCopyTexImage2D@OpenGLTracer@OGL@AIF@@UAEXPBDIIHIHHHHH@Z" PURGE="40" COMMENT="" />
    <EXPORT ORDINAL="1030" NAME="?cgmCopyTexImage2DEXT@OpenGLErrorChecker@OGL@AIF@@UAEXPBDIIHIHHHHH@Z" PURGE="40" COMMENT="" />
    <EXPORT ORDINAL="1031" NAME="?cgmCopyTexImage2DEXT@OpenGLRekorder@OGL@AIF@@UAEXPBDIIHIHHHHH@Z" PURGE="40" COMMENT="" />
    <EXPORT ORDINAL="1032" NAME="?cgmCopyTexImage2DEXT@OpenGLTracer@OGL@AIF@@UAEXPBDIIHIHHHHH@Z" PURGE="40" COMMENT="" />
    <EXPORT ORDINAL="1033" NAME="?cgmCopyTexSubImage1D@OpenGLErrorChecker@OGL@AIF@@UAEXPBDIIHHHHH@Z" PURGE="32" COMMENT="" />
    <EXPORT ORDINAL="1034" NAME="?cgmCopyTexSubImage1D@OpenGLRekorder@OGL@AIF@@UAEXPBDIIHHHHH@Z" PURGE="32" COMMENT="" />
    <EXPORT ORDINAL="1035" NAME="?cgmCopyTexSubImage1D@OpenGLTracer@OGL@AIF@@UAEXPBDIIHHHHH@Z" PURGE="32" COMMENT="" />
    <EXPORT ORDINAL="1036" NAME="?cgmCopyTexSubImage1DEXT@OpenGLErrorChecker@OGL@AIF@@UAEXPBDIIHHHHH@Z" PURGE="32" COMMENT="" />
    <EXPORT ORDINAL="1037" NAME="?cgmCopyTexSubImage1DEXT@OpenGLRekorder@OGL@AIF@@UAEXPBDIIHHHHH@Z" PURGE="32" COMMENT="" />
    <EXPORT ORDINAL="1038" NAME="?cgmCopyTexSubImage1DEXT@OpenGLTracer@OGL@AIF@@UAEXPBDIIHHHHH@Z" PURGE="32" COMMENT="" />
    <EXPORT ORDINAL="1039" NAME="?cgmCopyTexSubImage2D@OpenGLErrorChecker@OGL@AIF@@UAEXPBDIIHHHHHHH@Z" PURGE="40" COMMENT="" />
    <EXPORT ORDINAL="1040" NAME="?cgmCopyTexSubImage2D@OpenGLRekorder@OGL@AIF@@UAEXPBDIIHHHHHHH@Z" PURGE="40" COMMENT="" />
    <EXPORT ORDINAL="1041" NAME="?cgmCopyTexSubImage2D@OpenGLTracer@OGL@AIF@@UAEXPBDIIHHHHHHH@Z" PURGE="40" COMMENT="" />
    <EXPORT ORDINAL="1042" NAME="?cgmCopyTexSubImage2DEXT@OpenGLErrorChecker@OGL@AIF@@UAEXPBDIIHHHHHHH@Z" PURGE="40" COMMENT="" />
    <EXPORT ORDINAL="1043" NAME="?cgmCopyTexSubImage2DEXT@OpenGLRekorder@OGL@AIF@@UAEXPBDIIHHHHHHH@Z" PURGE="40" COMMENT="" />
    <EXPORT ORDINAL="1044" NAME="?cgmCopyTexSubImage2DEXT@OpenGLTracer@OGL@AIF@@UAEXPBDIIHHHHHHH@Z" PURGE="40" COMMENT="" />
    <EXPORT ORDINAL="1045" NAME="?cgmCopyTexSubImage3D@OpenGLErrorChecker@OGL@AIF@@UAEXPBDIIHHHHHHHH@Z" PURGE="44" COMMENT="" />
    <EXPORT ORDINAL="1046" NAME="?cgmCopyTexSubImage3D@OpenGLRekorder@OGL@AIF@@UAEXPBDIIHHHHHHHH@Z" PURGE="44" COMMENT="" />
    <EXPORT ORDINAL="1047" NAME="?cgmCopyTexSubImage3D@OpenGLTracer@OGL@AIF@@UAEXPBDIIHHHHHHHH@Z" PURGE="44" COMMENT="" />
    <EXPORT ORDINAL="1048" NAME="?cgmCopyTexSubImage3DEXT@OpenGLErrorChecker@OGL@AIF@@UAEXPBDIIHHHHHHHH@Z" PURGE="44" COMMENT="" />
    <EXPORT ORDINAL="1049" NAME="?cgmCopyTexSubImage3DEXT@OpenGLRekorder@OGL@AIF@@UAEXPBDIIHHHHHHHH@Z" PURGE="44" COMMENT="" />
    <EXPORT ORDINAL="1050" NAME="?cgmCopyTexSubImage3DEXT@OpenGLTracer@OGL@AIF@@UAEXPBDIIHHHHHHHH@Z" PURGE="44" COMMENT="" />
    <EXPORT ORDINAL="1051" NAME="?cgmCopyTextureImage1DEXT@OpenGLErrorChecker@OGL@AIF@@UAEXPBDIIIHIHHHH@Z" PURGE="40" COMMENT="" />
    <EXPORT ORDINAL="1052" NAME="?cgmCopyTextureImage1DEXT@OpenGLRekorder@OGL@AIF@@UAEXPBDIIIHIHHHH@Z" PURGE="40" COMMENT="" />
    <EXPORT ORDINAL="1053" NAME="?cgmCopyTextureImage1DEXT@OpenGLTracer@OGL@AIF@@UAEXPBDIIIHIHHHH@Z" PURGE="40" COMMENT="" />
    <EXPORT ORDINAL="1054" NAME="?cgmCopyTextureImage2DEXT@OpenGLErrorChecker@OGL@AIF@@UAEXPBDIIIHIHHHHH@Z" PURGE="44" COMMENT="" />
    <EXPORT ORDINAL="1055" NAME="?cgmCopyTextureImage2DEXT@OpenGLRekorder@OGL@AIF@@UAEXPBDIIIHIHHHHH@Z" PURGE="44" COMMENT="" />
    <EXPORT ORDINAL="1056" NAME="?cgmCopyTextureImage2DEXT@OpenGLTracer@OGL@AIF@@UAEXPBDIIIHIHHHHH@Z" PURGE="44" COMMENT="" />
    <EXPORT ORDINAL="1057" NAME="?cgmCopyTextureSubImage1DEXT@OpenGLErrorChecker@OGL@AIF@@UAEXPBDIIIHHHHH@Z" PURGE="36" COMMENT="" />
    <EXPORT ORDINAL="1058" NAME="?cgmCopyTextureSubImage1DEXT@OpenGLRekorder@OGL@AIF@@UAEXPBDIIIHHHHH@Z" PURGE="36" COMMENT="" />
    <EXPORT ORDINAL="1059" NAME="?cgmCopyTextureSubImage1DEXT@OpenGLTracer@OGL@AIF@@UAEXPBDIIIHHHHH@Z" PURGE="36" COMMENT="" />
    <EXPORT ORDINAL="1060" NAME="?cgmCopyTextureSubImage2DEXT@OpenGLErrorChecker@OGL@AIF@@UAEXPBDIIIHHHHHHH@Z" PURGE="44" COMMENT="" />
    <EXPORT ORDINAL="1061" NAME="?cgmCopyTextureSubImage2DEXT@OpenGLRekorder@OGL@AIF@@UAEXPBDIIIHHHHHHH@Z" PURGE="44" COMMENT="" />
    <EXPORT ORDINAL="1062" NAME="?cgmCopyTextureSubImage2DEXT@OpenGLTracer@OGL@AIF@@UAEXPBDIIIHHHHHHH@Z" PURGE="44" COMMENT="" />
    <EXPORT ORDINAL="1063" NAME="?cgmCopyTextureSubImage3DEXT@OpenGLErrorChecker@OGL@AIF@@UAEXPBDIIIHHHHHHHH@Z" PURGE="48" COMMENT="" />
    <EXPORT ORDINAL="1064" NAME="?cgmCopyTextureSubImage3DEXT@OpenGLRekorder@OGL@AIF@@UAEXPBDIIIHHHHHHHH@Z" PURGE="48" COMMENT="" />
    <EXPORT ORDINAL="1065" NAME="?cgmCopyTextureSubImage3DEXT@OpenGLTracer@OGL@AIF@@UAEXPBDIIIHHHHHHHH@Z" PURGE="48" COMMENT="" />
    <EXPORT ORDINAL="1066" NAME="?cgmCreateProgram@OpenGLErrorChecker@OGL@AIF@@UAEIPBDI@Z" PURGE="8" COMMENT="" />
    <EXPORT ORDINAL="1067" NAME="?cgmCreateProgram@OpenGLRekorder@OGL@AIF@@UAEIPBDI@Z" PURGE="8" COMMENT="" />
    <EXPORT ORDINAL="1068" NAME="?cgmCreateProgram@OpenGLTracer@OGL@AIF@@UAEIPBDI@Z" PURGE="8" COMMENT="" />
    <EXPORT ORDINAL="1069" NAME="?cgmCreateProgramObjectARB@OpenGLErrorChecker@OGL@AIF@@UAEIPBDI@Z" PURGE="8" COMMENT="" />
    <EXPORT ORDINAL="1070" NAME="?cgmCreateProgramObjectARB@OpenGLRekorder@OGL@AIF@@UAEIPBDI@Z" PURGE="8" COMMENT="" />
    <EXPORT ORDINAL="1071" NAME="?cgmCreateProgramObjectARB@OpenGLTracer@OGL@AIF@@UAEIPBDI@Z" PURGE="8" COMMENT="" />
    <EXPORT ORDINAL="1072" NAME="?cgmCreateShader@OpenGLErrorChecker@OGL@AIF@@UAEIPBDII@Z" PURGE="12" COMMENT="" />
    <EXPORT ORDINAL="1073" NAME="?cgmCreateShader@OpenGLRekorder@OGL@AIF@@UAEIPBDII@Z" PURGE="12" COMMENT="" />
    <EXPORT ORDINAL="1074" NAME="?cgmCreateShader@OpenGLTracer@OGL@AIF@@UAEIPBDII@Z" PURGE="12" COMMENT="" />
    <EXPORT ORDINAL="1075" NAME="?cgmCreateShaderObjectARB@OpenGLErrorChecker@OGL@AIF@@UAEIPBDII@Z" PURGE="12" COMMENT="" />
    <EXPORT ORDINAL="1076" NAME="?cgmCreateShaderObjectARB@OpenGLRekorder@OGL@AIF@@UAEIPBDII@Z" PURGE="12" COMMENT="" />
    <EXPORT ORDINAL="1077" NAME="?cgmCreateShaderObjectARB@OpenGLTracer@OGL@AIF@@UAEIPBDII@Z" PURGE="12" COMMENT="" />
    <EXPORT ORDINAL="1078" NAME="?cgmCullFace@OpenGLErrorChecker@OGL@AIF@@UAEXPBDII@Z" PURGE="12" COMMENT="" />
    <EXPORT ORDINAL="1079" NAME="?cgmCullFace@OpenGLRekorder@OGL@AIF@@UAEXPBDII@Z" PURGE="12" COMMENT="" />
    <EXPORT ORDINAL="1080" NAME="?cgmCullFace@OpenGLTracer@OGL@AIF@@UAEXPBDII@Z" PURGE="12" COMMENT="" />
    <EXPORT ORDINAL="1081" NAME="?cgmCullParameterdvEXT@OpenGLErrorChecker@OGL@AIF@@UAEXPBDIIPAN@Z" PURGE="16" COMMENT="" />
    <EXPORT ORDINAL="1082" NAME="?cgmCullParameterdvEXT@OpenGLRekorder@OGL@AIF@@UAEXPBDIIPAN@Z" PURGE="-1" COMMENT="" />
    <EXPORT ORDINAL="1083" NAME="?cgmCullParameterdvEXT@OpenGLTracer@OGL@AIF@@UAEXPBDIIPAN@Z" PURGE="16" COMMENT="" />
    <EXPORT ORDINAL="1084" NAME="?cgmCullParameterfvEXT@OpenGLErrorChecker@OGL@AIF@@UAEXPBDIIPAM@Z" PURGE="16" COMMENT="" />
    <EXPORT ORDINAL="1085" NAME="?cgmCullParameterfvEXT@OpenGLRekorder@OGL@AIF@@UAEXPBDIIPAM@Z" PURGE="-1" COMMENT="" />
    <EXPORT ORDINAL="1086" NAME="?cgmCullParameterfvEXT@OpenGLTracer@OGL@AIF@@UAEXPBDIIPAM@Z" PURGE="16" COMMENT="" />
    <EXPORT ORDINAL="1087" NAME="?cgmCurrentPaletteMatrixARB@OpenGLErrorChecker@OGL@AIF@@UAEXPBDIH@Z" PURGE="12" COMMENT="" />
    <EXPORT ORDINAL="1088" NAME="?cgmCurrentPaletteMatrixARB@OpenGLRekorder@OGL@AIF@@UAEXPBDIH@Z" PURGE="12" COMMENT="" />
    <EXPORT ORDINAL="1089" NAME="?cgmCurrentPaletteMatrixARB@OpenGLTracer@OGL@AIF@@UAEXPBDIH@Z" PURGE="12" COMMENT="" />
    <EXPORT ORDINAL="1090" NAME="?cgmDeleteAsyncMarkersSGIX@OpenGLErrorChecker@OGL@AIF@@UAEXPBDIIH@Z" PURGE="16" COMMENT="" />
    <EXPORT ORDINAL="1091" NAME="?cgmDeleteAsyncMarkersSGIX@OpenGLRekorder@OGL@AIF@@UAEXPBDIIH@Z" PURGE="16" COMMENT="" />
    <EXPORT ORDINAL="1092" NAME="?cgmDeleteAsyncMarkersSGIX@OpenGLTracer@OGL@AIF@@UAEXPBDIIH@Z" PURGE="16" COMMENT="" />
    <EXPORT ORDINAL="1093" NAME="?cgmDeleteBufferRegionEXT@OpenGLErrorChecker@OGL@AIF@@UAEXPBDII@Z" PURGE="12" COMMENT="" />
    <EXPORT ORDINAL="1094" NAME="?cgmDeleteBufferRegionEXT@OpenGLRekorder@OGL@AIF@@UAEXPBDII@Z" PURGE="12" COMMENT="" />
    <EXPORT ORDINAL="1095" NAME="?cgmDeleteBufferRegionEXT@OpenGLTracer@OGL@AIF@@UAEXPBDII@Z" PURGE="12" COMMENT="" />
    <EXPORT ORDINAL="1096" NAME="?cgmDeleteBuffers@OpenGLErrorChecker@OGL@AIF@@UAEXPBDIHPBI@Z" PURGE="16" COMMENT="" />
    <EXPORT ORDINAL="1097" NAME="?cgmDeleteBuffers@OpenGLRekorder@OGL@AIF@@UAEXPBDIHPBI@Z" PURGE="-1" COMMENT="" />
    <EXPORT ORDINAL="1098" NAME="?cgmDeleteBuffers@OpenGLTracer@OGL@AIF@@UAEXPBDIHPBI@Z" PURGE="16" COMMENT="" />
    <EXPORT ORDINAL="1099" NAME="?cgmDeleteBuffersARB@OpenGLErrorChecker@OGL@AIF@@UAEXPBDIHPBI@Z" PURGE="16" COMMENT="" />
    <EXPORT ORDINAL="1100" NAME="?cgmDeleteBuffersARB@OpenGLRekorder@OGL@AIF@@UAEXPBDIHPBI@Z" PURGE="-1" COMMENT="" />
    <EXPORT ORDINAL="1101" NAME="?cgmDeleteBuffersARB@OpenGLTracer@OGL@AIF@@UAEXPBDIHPBI@Z" PURGE="16" COMMENT="" />
    <EXPORT ORDINAL="1102" NAME="?cgmDeleteFencesAPPLE@OpenGLErrorChecker@OGL@AIF@@UAEXPBDIHPBI@Z" PURGE="16" COMMENT="" />
    <EXPORT ORDINAL="1103" NAME="?cgmDeleteFencesAPPLE@OpenGLRekorder@OGL@AIF@@UAEXPBDIHPBI@Z" PURGE="-1" COMMENT="" />
    <EXPORT ORDINAL="1104" NAME="?cgmDeleteFencesAPPLE@OpenGLTracer@OGL@AIF@@UAEXPBDIHPBI@Z" PURGE="16" COMMENT="" />
    <EXPORT ORDINAL="1105" NAME="?cgmDeleteFencesNV@OpenGLErrorChecker@OGL@AIF@@UAEXPBDIHPBI@Z" PURGE="16" COMMENT="" />
    <EXPORT ORDINAL="1106" NAME="?cgmDeleteFencesNV@OpenGLRekorder@OGL@AIF@@UAEXPBDIHPBI@Z" PURGE="-1" COMMENT="" />
    <EXPORT ORDINAL="1107" NAME="?cgmDeleteFencesNV@OpenGLTracer@OGL@AIF@@UAEXPBDIHPBI@Z" PURGE="16" COMMENT="" />
    <EXPORT ORDINAL="1108" NAME="?cgmDeleteFragmentShaderATI@OpenGLErrorChecker@OGL@AIF@@UAEXPBDII@Z" PURGE="12" COMMENT="" />
    <EXPORT ORDINAL="1109" NAME="?cgmDeleteFragmentShaderATI@OpenGLRekorder@OGL@AIF@@UAEXPBDII@Z" PURGE="12" COMMENT="" />
    <EXPORT ORDINAL="1110" NAME="?cgmDeleteFragmentShaderATI@OpenGLTracer@OGL@AIF@@UAEXPBDII@Z" PURGE="12" COMMENT="" />
    <EXPORT ORDINAL="1111" NAME="?cgmDeleteFramebuffers@OpenGLErrorChecker@OGL@AIF@@UAEXPBDIHPBI@Z" PURGE="16" COMMENT="" />
    <EXPORT ORDINAL="1112" NAME="?cgmDeleteFramebuffers@OpenGLRekorder@OGL@AIF@@UAEXPBDIHPBI@Z" PURGE="-1" COMMENT="" />
    <EXPORT ORDINAL="1113" NAME="?cgmDeleteFramebuffers@OpenGLTracer@OGL@AIF@@UAEXPBDIHPBI@Z" PURGE="16" COMMENT="" />
    <EXPORT ORDINAL="1114" NAME="?cgmDeleteFramebuffersEXT@OpenGLErrorChecker@OGL@AIF@@UAEXPBDIHPBI@Z" PURGE="16" COMMENT="" />
    <EXPORT ORDINAL="1115" NAME="?cgmDeleteFramebuffersEXT@OpenGLRekorder@OGL@AIF@@UAEXPBDIHPBI@Z" PURGE="16" COMMENT="" />
    <EXPORT ORDINAL="1116" NAME="?cgmDeleteFramebuffersEXT@OpenGLTracer@OGL@AIF@@UAEXPBDIHPBI@Z" PURGE="16" COMMENT="" />
    <EXPORT ORDINAL="1117" NAME="?cgmDeleteLists@OpenGLErrorChecker@OGL@AIF@@UAEXPBDIIH@Z" PURGE="16" COMMENT="" />
    <EXPORT ORDINAL="1118" NAME="?cgmDeleteLists@OpenGLRekorder@OGL@AIF@@UAEXPBDIIH@Z" PURGE="16" COMMENT="" />
    <EXPORT ORDINAL="1119" NAME="?cgmDeleteLists@OpenGLTracer@OGL@AIF@@UAEXPBDIIH@Z" PURGE="16" COMMENT="" />
    <EXPORT ORDINAL="1120" NAME="?cgmDeleteObjectARB@OpenGLErrorChecker@OGL@AIF@@UAEXPBDII@Z" PURGE="12" COMMENT="" />
    <EXPORT ORDINAL="1121" NAME="?cgmDeleteObjectARB@OpenGLRekorder@OGL@AIF@@UAEXPBDII@Z" PURGE="12" COMMENT="" />
    <EXPORT ORDINAL="1122" NAME="?cgmDeleteObjectARB@OpenGLTracer@OGL@AIF@@UAEXPBDII@Z" PURGE="12" COMMENT="" />
    <EXPORT ORDINAL="1123" NAME="?cgmDeleteOcclusionQueriesNV@OpenGLErrorChecker@OGL@AIF@@UAEXPBDIHPBI@Z" PURGE="16" COMMENT="" />
    <EXPORT ORDINAL="1124" NAME="?cgmDeleteOcclusionQueriesNV@OpenGLRekorder@OGL@AIF@@UAEXPBDIHPBI@Z" PURGE="-1" COMMENT="" />
    <EXPORT ORDINAL="1125" NAME="?cgmDeleteOcclusionQueriesNV@OpenGLTracer@OGL@AIF@@UAEXPBDIHPBI@Z" PURGE="16" COMMENT="" />
    <EXPORT ORDINAL="1126" NAME="?cgmDeleteProgram@OpenGLErrorChecker@OGL@AIF@@UAEXPBDII@Z" PURGE="12" COMMENT="" />
    <EXPORT ORDINAL="1127" NAME="?cgmDeleteProgram@OpenGLRekorder@OGL@AIF@@UAEXPBDII@Z" PURGE="12" COMMENT="" />
    <EXPORT ORDINAL="1128" NAME="?cgmDeleteProgram@OpenGLTracer@OGL@AIF@@UAEXPBDII@Z" PURGE="12" COMMENT="" />
    <EXPORT ORDINAL="1129" NAME="?cgmDeleteProgramsARB@OpenGLErrorChecker@OGL@AIF@@UAEXPBDIHPBI@Z" PURGE="16" COMMENT="" />
    <EXPORT ORDINAL="1130" NAME="?cgmDeleteProgramsARB@OpenGLRekorder@OGL@AIF@@UAEXPBDIHPBI@Z" PURGE="-1" COMMENT="" />
    <EXPORT ORDINAL="1131" NAME="?cgmDeleteProgramsARB@OpenGLTracer@OGL@AIF@@UAEXPBDIHPBI@Z" PURGE="16" COMMENT="" />
    <EXPORT ORDINAL="1132" NAME="?cgmDeleteProgramsNV@OpenGLErrorChecker@OGL@AIF@@UAEXPBDIHPBI@Z" PURGE="16" COMMENT="" />
    <EXPORT ORDINAL="1133" NAME="?cgmDeleteProgramsNV@OpenGLRekorder@OGL@AIF@@UAEXPBDIHPBI@Z" PURGE="-1" COMMENT="" />
    <EXPORT ORDINAL="1134" NAME="?cgmDeleteProgramsNV@OpenGLTracer@OGL@AIF@@UAEXPBDIHPBI@Z" PURGE="16" COMMENT="" />
    <EXPORT ORDINAL="1135" NAME="?cgmDeleteQueries@OpenGLErrorChecker@OGL@AIF@@UAEXPBDIHPBI@Z" PURGE="16" COMMENT="" />
    <EXPORT ORDINAL="1136" NAME="?cgmDeleteQueries@OpenGLRekorder@OGL@AIF@@UAEXPBDIHPBI@Z" PURGE="16" COMMENT="" />
    <EXPORT ORDINAL="1137" NAME="?cgmDeleteQueries@OpenGLTracer@OGL@AIF@@UAEXPBDIHPBI@Z" PURGE="16" COMMENT="" />
    <EXPORT ORDINAL="1138" NAME="?cgmDeleteQueriesARB@OpenGLErrorChecker@OGL@AIF@@UAEXPBDIHPBI@Z" PURGE="16" COMMENT="" />
    <EXPORT ORDINAL="1139" NAME="?cgmDeleteQueriesARB@OpenGLRekorder@OGL@AIF@@UAEXPBDIHPBI@Z" PURGE="-1" COMMENT="" />
    <EXPORT ORDINAL="1140" NAME="?cgmDeleteQueriesARB@OpenGLTracer@OGL@AIF@@UAEXPBDIHPBI@Z" PURGE="16" COMMENT="" />
    <EXPORT ORDINAL="1141" NAME="?cgmDeleteRenderbuffers@OpenGLErrorChecker@OGL@AIF@@UAEXPBDIHPBI@Z" PURGE="16" COMMENT="" />
    <EXPORT ORDINAL="1142" NAME="?cgmDeleteRenderbuffers@OpenGLRekorder@OGL@AIF@@UAEXPBDIHPBI@Z" PURGE="-1" COMMENT="" />
    <EXPORT ORDINAL="1143" NAME="?cgmDeleteRenderbuffers@OpenGLTracer@OGL@AIF@@UAEXPBDIHPBI@Z" PURGE="16" COMMENT="" />
    <EXPORT ORDINAL="1144" NAME="?cgmDeleteRenderbuffersEXT@OpenGLErrorChecker@OGL@AIF@@UAEXPBDIHPBI@Z" PURGE="16" COMMENT="" />
    <EXPORT ORDINAL="1145" NAME="?cgmDeleteRenderbuffersEXT@OpenGLRekorder@OGL@AIF@@UAEXPBDIHPBI@Z" PURGE="-1" COMMENT="" />
    <EXPORT ORDINAL="1146" NAME="?cgmDeleteRenderbuffersEXT@OpenGLTracer@OGL@AIF@@UAEXPBDIHPBI@Z" PURGE="16" COMMENT="" />
    <EXPORT ORDINAL="1147" NAME="?cgmDeleteShader@OpenGLErrorChecker@OGL@AIF@@UAEXPBDII@Z" PURGE="12" COMMENT="" />
    <EXPORT ORDINAL="1148" NAME="?cgmDeleteShader@OpenGLRekorder@OGL@AIF@@UAEXPBDII@Z" PURGE="12" COMMENT="" />
    <EXPORT ORDINAL="1149" NAME="?cgmDeleteShader@OpenGLTracer@OGL@AIF@@UAEXPBDII@Z" PURGE="12" COMMENT="" />
    <EXPORT ORDINAL="1150" NAME="?cgmDeleteTextures@OpenGLErrorChecker@OGL@AIF@@UAEXPBDIHPBI@Z" PURGE="16" COMMENT="" />
    <EXPORT ORDINAL="1151" NAME="?cgmDeleteTextures@OpenGLRekorder@OGL@AIF@@UAEXPBDIHPBI@Z" PURGE="16" COMMENT="" />
    <EXPORT ORDINAL="1152" NAME="?cgmDeleteTextures@OpenGLTracer@OGL@AIF@@UAEXPBDIHPBI@Z" PURGE="16" COMMENT="" />
    <EXPORT ORDINAL="1153" NAME="?cgmDeleteTexturesEXT@OpenGLErrorChecker@OGL@AIF@@UAEXPBDIHPBI@Z" PURGE="16" COMMENT="" />
    <EXPORT ORDINAL="1154" NAME="?cgmDeleteTexturesEXT@OpenGLRekorder@OGL@AIF@@UAEXPBDIHPBI@Z" PURGE="-1" COMMENT="" />
    <EXPORT ORDINAL="1155" NAME="?cgmDeleteTexturesEXT@OpenGLTracer@OGL@AIF@@UAEXPBDIHPBI@Z" PURGE="16" COMMENT="" />
    <EXPORT ORDINAL="1156" NAME="?cgmDeleteVertexArrays@OpenGLErrorChecker@OGL@AIF@@UAEXPBDIHPBI@Z" PURGE="16" COMMENT="" />
    <EXPORT ORDINAL="1157" NAME="?cgmDeleteVertexArrays@OpenGLRekorder@OGL@AIF@@UAEXPBDIHPBI@Z" PURGE="-1" COMMENT="" />
    <EXPORT ORDINAL="1158" NAME="?cgmDeleteVertexArrays@OpenGLTracer@OGL@AIF@@UAEXPBDIHPBI@Z" PURGE="16" COMMENT="" />
    <EXPORT ORDINAL="1159" NAME="?cgmDeleteVertexArraysAPPLE@OpenGLErrorChecker@OGL@AIF@@UAEXPBDIHPBI@Z" PURGE="16" COMMENT="" />
    <EXPORT ORDINAL="1160" NAME="?cgmDeleteVertexArraysAPPLE@OpenGLRekorder@OGL@AIF@@UAEXPBDIHPBI@Z" PURGE="-1" COMMENT="" />
    <EXPORT ORDINAL="1161" NAME="?cgmDeleteVertexArraysAPPLE@OpenGLTracer@OGL@AIF@@UAEXPBDIHPBI@Z" PURGE="16" COMMENT="" />
    <EXPORT ORDINAL="1162" NAME="?cgmDeleteVertexShaderEXT@OpenGLErrorChecker@OGL@AIF@@UAEXPBDII@Z" PURGE="12" COMMENT="" />
    <EXPORT ORDINAL="1163" NAME="?cgmDeleteVertexShaderEXT@OpenGLRekorder@OGL@AIF@@UAEXPBDII@Z" PURGE="12" COMMENT="" />
    <EXPORT ORDINAL="1164" NAME="?cgmDeleteVertexShaderEXT@OpenGLTracer@OGL@AIF@@UAEXPBDII@Z" PURGE="12" COMMENT="" />
    <EXPORT ORDINAL="1165" NAME="?cgmDepthBoundsEXT@OpenGLErrorChecker@OGL@AIF@@UAEXPBDINN@Z" PURGE="24" COMMENT="" />
    <EXPORT ORDINAL="1166" NAME="?cgmDepthBoundsEXT@OpenGLRekorder@OGL@AIF@@UAEXPBDINN@Z" PURGE="24" COMMENT="" />
    <EXPORT ORDINAL="1167" NAME="?cgmDepthBoundsEXT@OpenGLTracer@OGL@AIF@@UAEXPBDINN@Z" PURGE="24" COMMENT="" />
    <EXPORT ORDINAL="1168" NAME="?cgmDepthBoundsdNV@OpenGLErrorChecker@OGL@AIF@@UAEXPBDINN@Z" PURGE="24" COMMENT="" />
    <EXPORT ORDINAL="1169" NAME="?cgmDepthBoundsdNV@OpenGLRekorder@OGL@AIF@@UAEXPBDINN@Z" PURGE="24" COMMENT="" />
    <EXPORT ORDINAL="1170" NAME="?cgmDepthBoundsdNV@OpenGLTracer@OGL@AIF@@UAEXPBDINN@Z" PURGE="24" COMMENT="" />
    <EXPORT ORDINAL="1171" NAME="?cgmDepthFunc@OpenGLErrorChecker@OGL@AIF@@UAEXPBDII@Z" PURGE="12" COMMENT="" />
    <EXPORT ORDINAL="1172" NAME="?cgmDepthFunc@OpenGLRekorder@OGL@AIF@@UAEXPBDII@Z" PURGE="12" COMMENT="" />
    <EXPORT ORDINAL="1173" NAME="?cgmDepthFunc@OpenGLTracer@OGL@AIF@@UAEXPBDII@Z" PURGE="12" COMMENT="" />
    <EXPORT ORDINAL="1174" NAME="?cgmDepthMask@OpenGLErrorChecker@OGL@AIF@@UAEXPBDIE@Z" PURGE="12" COMMENT="" />
    <EXPORT ORDINAL="1175" NAME="?cgmDepthMask@OpenGLRekorder@OGL@AIF@@UAEXPBDIE@Z" PURGE="12" COMMENT="" />
    <EXPORT ORDINAL="1176" NAME="?cgmDepthMask@OpenGLTracer@OGL@AIF@@UAEXPBDIE@Z" PURGE="12" COMMENT="" />
    <EXPORT ORDINAL="1177" NAME="?cgmDepthRange@OpenGLErrorChecker@OGL@AIF@@UAEXPBDINN@Z" PURGE="24" COMMENT="" />
    <EXPORT ORDINAL="1178" NAME="?cgmDepthRange@OpenGLRekorder@OGL@AIF@@UAEXPBDINN@Z" PURGE="24" COMMENT="" />
    <EXPORT ORDINAL="1179" NAME="?cgmDepthRange@OpenGLTracer@OGL@AIF@@UAEXPBDINN@Z" PURGE="24" COMMENT="" />
    <EXPORT ORDINAL="1180" NAME="?cgmDepthRangedNV@OpenGLErrorChecker@OGL@AIF@@UAEXPBDINN@Z" PURGE="24" COMMENT="" />
    <EXPORT ORDINAL="1181" NAME="?cgmDepthRangedNV@OpenGLRekorder@OGL@AIF@@UAEXPBDINN@Z" PURGE="24" COMMENT="" />
    <EXPORT ORDINAL="1182" NAME="?cgmDepthRangedNV@OpenGLTracer@OGL@AIF@@UAEXPBDINN@Z" PURGE="24" COMMENT="" />
    <EXPORT ORDINAL="1183" NAME="?cgmDepthRangefOES@OpenGLErrorChecker@OGL@AIF@@UAEXPBDIMM@Z" PURGE="16" COMMENT="" />
    <EXPORT ORDINAL="1184" NAME="?cgmDepthRangefOES@OpenGLRekorder@OGL@AIF@@UAEXPBDIMM@Z" PURGE="16" COMMENT="" />
    <EXPORT ORDINAL="1185" NAME="?cgmDepthRangefOES@OpenGLTracer@OGL@AIF@@UAEXPBDIMM@Z" PURGE="16" COMMENT="" />
    <EXPORT ORDINAL="1186" NAME="?cgmDetachObjectARB@OpenGLErrorChecker@OGL@AIF@@UAEXPBDIII@Z" PURGE="16" COMMENT="" />
    <EXPORT ORDINAL="1187" NAME="?cgmDetachObjectARB@OpenGLRekorder@OGL@AIF@@UAEXPBDIII@Z" PURGE="16" COMMENT="" />
    <EXPORT ORDINAL="1188" NAME="?cgmDetachObjectARB@OpenGLTracer@OGL@AIF@@UAEXPBDIII@Z" PURGE="16" COMMENT="" />
    <EXPORT ORDINAL="1189" NAME="?cgmDetachShader@OpenGLErrorChecker@OGL@AIF@@UAEXPBDIII@Z" PURGE="16" COMMENT="" />
    <EXPORT ORDINAL="1190" NAME="?cgmDetachShader@OpenGLRekorder@OGL@AIF@@UAEXPBDIII@Z" PURGE="16" COMMENT="" />
    <EXPORT ORDINAL="1191" NAME="?cgmDetachShader@OpenGLTracer@OGL@AIF@@UAEXPBDIII@Z" PURGE="16" COMMENT="" />
    <EXPORT ORDINAL="1192" NAME="?cgmDetailTexFuncSGIS@OpenGLErrorChecker@OGL@AIF@@UAEXPBDIIHPBM@Z" PURGE="20" COMMENT="" />
    <EXPORT ORDINAL="1193" NAME="?cgmDetailTexFuncSGIS@OpenGLRekorder@OGL@AIF@@UAEXPBDIIHPBM@Z" PURGE="-1" COMMENT="" />
    <EXPORT ORDINAL="1194" NAME="?cgmDetailTexFuncSGIS@OpenGLTracer@OGL@AIF@@UAEXPBDIIHPBM@Z" PURGE="20" COMMENT="" />
    <EXPORT ORDINAL="1195" NAME="?cgmDisable@OpenGLErrorChecker@OGL@AIF@@UAEXPBDII@Z" PURGE="12" COMMENT="" />
    <EXPORT ORDINAL="1196" NAME="?cgmDisable@OpenGLRekorder@OGL@AIF@@UAEXPBDII@Z" PURGE="12" COMMENT="" />
    <EXPORT ORDINAL="1197" NAME="?cgmDisable@OpenGLTracer@OGL@AIF@@UAEXPBDII@Z" PURGE="12" COMMENT="" />
    <EXPORT ORDINAL="1198" NAME="?cgmDisableClientState@OpenGLErrorChecker@OGL@AIF@@UAEXPBDII@Z" PURGE="12" COMMENT="" />
    <EXPORT ORDINAL="1199" NAME="?cgmDisableClientState@OpenGLRekorder@OGL@AIF@@UAEXPBDII@Z" PURGE="12" COMMENT="" />
    <EXPORT ORDINAL="1200" NAME="?cgmDisableClientState@OpenGLTracer@OGL@AIF@@UAEXPBDII@Z" PURGE="12" COMMENT="" />
    <EXPORT ORDINAL="1201" NAME="?cgmDisableClientStateIndexedEXT@OpenGLErrorChecker@OGL@AIF@@UAEXPBDIII@Z" PURGE="16" COMMENT="" />
    <EXPORT ORDINAL="1202" NAME="?cgmDisableClientStateIndexedEXT@OpenGLRekorder@OGL@AIF@@UAEXPBDIII@Z" PURGE="16" COMMENT="" />
    <EXPORT ORDINAL="1203" NAME="?cgmDisableClientStateIndexedEXT@OpenGLTracer@OGL@AIF@@UAEXPBDIII@Z" PURGE="16" COMMENT="" />
    <EXPORT ORDINAL="1204" NAME="?cgmDisableIndexedEXT@OpenGLErrorChecker@OGL@AIF@@UAEXPBDIII@Z" PURGE="16" COMMENT="" />
    <EXPORT ORDINAL="1205" NAME="?cgmDisableIndexedEXT@OpenGLRekorder@OGL@AIF@@UAEXPBDIII@Z" PURGE="16" COMMENT="" />
    <EXPORT ORDINAL="1206" NAME="?cgmDisableIndexedEXT@OpenGLTracer@OGL@AIF@@UAEXPBDIII@Z" PURGE="16" COMMENT="" />
    <EXPORT ORDINAL="1207" NAME="?cgmDisableVariantClientStateEXT@OpenGLErrorChecker@OGL@AIF@@UAEXPBDII@Z" PURGE="12" COMMENT="" />
    <EXPORT ORDINAL="1208" NAME="?cgmDisableVariantClientStateEXT@OpenGLRekorder@OGL@AIF@@UAEXPBDII@Z" PURGE="12" COMMENT="" />
    <EXPORT ORDINAL="1209" NAME="?cgmDisableVariantClientStateEXT@OpenGLTracer@OGL@AIF@@UAEXPBDII@Z" PURGE="12" COMMENT="" />
    <EXPORT ORDINAL="1210" NAME="?cgmDisableVertexAttribArray@OpenGLErrorChecker@OGL@AIF@@UAEXPBDII@Z" PURGE="12" COMMENT="" />
    <EXPORT ORDINAL="1211" NAME="?cgmDisableVertexAttribArray@OpenGLRekorder@OGL@AIF@@UAEXPBDII@Z" PURGE="12" COMMENT="" />
    <EXPORT ORDINAL="1212" NAME="?cgmDisableVertexAttribArray@OpenGLTracer@OGL@AIF@@UAEXPBDII@Z" PURGE="12" COMMENT="" />
    <EXPORT ORDINAL="1213" NAME="?cgmDisableVertexAttribArrayARB@OpenGLErrorChecker@OGL@AIF@@UAEXPBDII@Z" PURGE="12" COMMENT="" />
    <EXPORT ORDINAL="1214" NAME="?cgmDisableVertexAttribArrayARB@OpenGLRekorder@OGL@AIF@@UAEXPBDII@Z" PURGE="12" COMMENT="" />
    <EXPORT ORDINAL="1215" NAME="?cgmDisableVertexAttribArrayARB@OpenGLTracer@OGL@AIF@@UAEXPBDII@Z" PURGE="12" COMMENT="" />
    <EXPORT ORDINAL="1216" NAME="?cgmDisablei@OpenGLErrorChecker@OGL@AIF@@UAEXPBDIII@Z" PURGE="16" COMMENT="" />
    <EXPORT ORDINAL="1217" NAME="?cgmDisablei@OpenGLRekorder@OGL@AIF@@UAEXPBDIII@Z" PURGE="16" COMMENT="" />
    <EXPORT ORDINAL="1218" NAME="?cgmDisablei@OpenGLTracer@OGL@AIF@@UAEXPBDIII@Z" PURGE="16" COMMENT="" />
    <EXPORT ORDINAL="1219" NAME="?cgmDrawArrays@OpenGLErrorChecker@OGL@AIF@@UAEXPBDIIHH@Z" PURGE="20" COMMENT="" />
    <EXPORT ORDINAL="1220" NAME="?cgmDrawArrays@OpenGLRekorder@OGL@AIF@@UAEXPBDIIHH@Z" PURGE="20" COMMENT="" />
    <EXPORT ORDINAL="1221" NAME="?cgmDrawArrays@OpenGLTracer@OGL@AIF@@UAEXPBDIIHH@Z" PURGE="20" COMMENT="" />
    <EXPORT ORDINAL="1222" NAME="?cgmDrawArraysEXT@OpenGLErrorChecker@OGL@AIF@@UAEXPBDIIHH@Z" PURGE="20" COMMENT="" />
    <EXPORT ORDINAL="1223" NAME="?cgmDrawArraysEXT@OpenGLRekorder@OGL@AIF@@UAEXPBDIIHH@Z" PURGE="20" COMMENT="" />
    <EXPORT ORDINAL="1224" NAME="?cgmDrawArraysEXT@OpenGLTracer@OGL@AIF@@UAEXPBDIIHH@Z" PURGE="20" COMMENT="" />
    <EXPORT ORDINAL="1225" NAME="?cgmDrawArraysInstancedARB@OpenGLErrorChecker@OGL@AIF@@UAEXPBDIIHHH@Z" PURGE="24" COMMENT="" />
    <EXPORT ORDINAL="1226" NAME="?cgmDrawArraysInstancedARB@OpenGLRekorder@OGL@AIF@@UAEXPBDIIHHH@Z" PURGE="24" COMMENT="" />
    <EXPORT ORDINAL="1227" NAME="?cgmDrawArraysInstancedARB@OpenGLTracer@OGL@AIF@@UAEXPBDIIHHH@Z" PURGE="24" COMMENT="" />
    <EXPORT ORDINAL="1228" NAME="?cgmDrawArraysInstancedEXT@OpenGLErrorChecker@OGL@AIF@@UAEXPBDIIHHH@Z" PURGE="24" COMMENT="" />
    <EXPORT ORDINAL="1229" NAME="?cgmDrawArraysInstancedEXT@OpenGLRekorder@OGL@AIF@@UAEXPBDIIHHH@Z" PURGE="24" COMMENT="" />
    <EXPORT ORDINAL="1230" NAME="?cgmDrawArraysInstancedEXT@OpenGLTracer@OGL@AIF@@UAEXPBDIIHHH@Z" PURGE="24" COMMENT="" />
    <EXPORT ORDINAL="1231" NAME="?cgmDrawBuffer@OpenGLErrorChecker@OGL@AIF@@UAEXPBDII@Z" PURGE="12" COMMENT="" />
    <EXPORT ORDINAL="1232" NAME="?cgmDrawBuffer@OpenGLRekorder@OGL@AIF@@UAEXPBDII@Z" PURGE="12" COMMENT="" />
    <EXPORT ORDINAL="1233" NAME="?cgmDrawBuffer@OpenGLTracer@OGL@AIF@@UAEXPBDII@Z" PURGE="12" COMMENT="" />
    <EXPORT ORDINAL="1234" NAME="?cgmDrawBufferRegionEXT@OpenGLErrorChecker@OGL@AIF@@UAEXPBDIIHHHHHH@Z" PURGE="36" COMMENT="" />
    <EXPORT ORDINAL="1235" NAME="?cgmDrawBufferRegionEXT@OpenGLRekorder@OGL@AIF@@UAEXPBDIIHHHHHH@Z" PURGE="36" COMMENT="" />
    <EXPORT ORDINAL="1236" NAME="?cgmDrawBufferRegionEXT@OpenGLTracer@OGL@AIF@@UAEXPBDIIHHHHHH@Z" PURGE="36" COMMENT="" />
    <EXPORT ORDINAL="1237" NAME="?cgmDrawBuffers@OpenGLErrorChecker@OGL@AIF@@UAEXPBDIHPBI@Z" PURGE="16" COMMENT="" />
    <EXPORT ORDINAL="1238" NAME="?cgmDrawBuffers@OpenGLRekorder@OGL@AIF@@UAEXPBDIHPBI@Z" PURGE="-1" COMMENT="" />
    <EXPORT ORDINAL="1239" NAME="?cgmDrawBuffers@OpenGLTracer@OGL@AIF@@UAEXPBDIHPBI@Z" PURGE="16" COMMENT="" />
    <EXPORT ORDINAL="1240" NAME="?cgmDrawBuffersARB@OpenGLErrorChecker@OGL@AIF@@UAEXPBDIHPBI@Z" PURGE="16" COMMENT="" />
    <EXPORT ORDINAL="1241" NAME="?cgmDrawBuffersARB@OpenGLRekorder@OGL@AIF@@UAEXPBDIHPBI@Z" PURGE="16" COMMENT="" />
    <EXPORT ORDINAL="1242" NAME="?cgmDrawBuffersARB@OpenGLTracer@OGL@AIF@@UAEXPBDIHPBI@Z" PURGE="16" COMMENT="" />
    <EXPORT ORDINAL="1243" NAME="?cgmDrawBuffersATI@OpenGLErrorChecker@OGL@AIF@@UAEXPBDIHPBI@Z" PURGE="16" COMMENT="" />
    <EXPORT ORDINAL="1244" NAME="?cgmDrawBuffersATI@OpenGLRekorder@OGL@AIF@@UAEXPBDIHPBI@Z" PURGE="-1" COMMENT="" />
    <EXPORT ORDINAL="1245" NAME="?cgmDrawBuffersATI@OpenGLTracer@OGL@AIF@@UAEXPBDIHPBI@Z" PURGE="16" COMMENT="" />
    <EXPORT ORDINAL="1246" NAME="?cgmDrawElementArrayAPPLE@OpenGLErrorChecker@OGL@AIF@@UAEXPBDIIHH@Z" PURGE="20" COMMENT="" />
    <EXPORT ORDINAL="1247" NAME="?cgmDrawElementArrayAPPLE@OpenGLRekorder@OGL@AIF@@UAEXPBDIIHH@Z" PURGE="20" COMMENT="" />
    <EXPORT ORDINAL="1248" NAME="?cgmDrawElementArrayAPPLE@OpenGLTracer@OGL@AIF@@UAEXPBDIIHH@Z" PURGE="20" COMMENT="" />
    <EXPORT ORDINAL="1249" NAME="?cgmDrawElementArrayATI@OpenGLErrorChecker@OGL@AIF@@UAEXPBDIIH@Z" PURGE="16" COMMENT="" />
    <EXPORT ORDINAL="1250" NAME="?cgmDrawElementArrayATI@OpenGLRekorder@OGL@AIF@@UAEXPBDIIH@Z" PURGE="16" COMMENT="" />
    <EXPORT ORDINAL="1251" NAME="?cgmDrawElementArrayATI@OpenGLTracer@OGL@AIF@@UAEXPBDIIH@Z" PURGE="16" COMMENT="" />
    <EXPORT ORDINAL="1252" NAME="?cgmDrawElements@OpenGLErrorChecker@OGL@AIF@@UAEXPBDIIHIPBX@Z" PURGE="24" COMMENT="" />
    <EXPORT ORDINAL="1253" NAME="?cgmDrawElements@OpenGLRekorder@OGL@AIF@@UAEXPBDIIHIPBX@Z" PURGE="-1" COMMENT="" />
    <EXPORT ORDINAL="1254" NAME="?cgmDrawElements@OpenGLTracer@OGL@AIF@@UAEXPBDIIHIPBX@Z" PURGE="24" COMMENT="" />
    <EXPORT ORDINAL="1255" NAME="?cgmDrawElementsInstancedARB@OpenGLErrorChecker@OGL@AIF@@UAEXPBDIIHIPBXH@Z" PURGE="28" COMMENT="" />
    <EXPORT ORDINAL="1256" NAME="?cgmDrawElementsInstancedARB@OpenGLRekorder@OGL@AIF@@UAEXPBDIIHIPBXH@Z" PURGE="-1" COMMENT="" />
    <EXPORT ORDINAL="1257" NAME="?cgmDrawElementsInstancedARB@OpenGLTracer@OGL@AIF@@UAEXPBDIIHIPBXH@Z" PURGE="28" COMMENT="" />
    <EXPORT ORDINAL="1258" NAME="?cgmDrawElementsInstancedEXT@OpenGLErrorChecker@OGL@AIF@@UAEXPBDIIHIPBXH@Z" PURGE="28" COMMENT="" />
    <EXPORT ORDINAL="1259" NAME="?cgmDrawElementsInstancedEXT@OpenGLRekorder@OGL@AIF@@UAEXPBDIIHIPBXH@Z" PURGE="-1" COMMENT="" />
    <EXPORT ORDINAL="1260" NAME="?cgmDrawElementsInstancedEXT@OpenGLTracer@OGL@AIF@@UAEXPBDIIHIPBXH@Z" PURGE="28" COMMENT="" />
    <EXPORT ORDINAL="1261" NAME="?cgmDrawPixels@OpenGLErrorChecker@OGL@AIF@@UAEXPBDIHHIIPBX@Z" PURGE="28" COMMENT="" />
    <EXPORT ORDINAL="1262" NAME="?cgmDrawPixels@OpenGLRekorder@OGL@AIF@@UAEXPBDIHHIIPBX@Z" PURGE="-1" COMMENT="" />
    <EXPORT ORDINAL="1263" NAME="?cgmDrawPixels@OpenGLTracer@OGL@AIF@@UAEXPBDIHHIIPBX@Z" PURGE="28" COMMENT="" />
    <EXPORT ORDINAL="1264" NAME="?cgmDrawRangeElementArrayAPPLE@OpenGLErrorChecker@OGL@AIF@@UAEXPBDIIIIHH@Z" PURGE="28" COMMENT="" />
    <EXPORT ORDINAL="1265" NAME="?cgmDrawRangeElementArrayAPPLE@OpenGLRekorder@OGL@AIF@@UAEXPBDIIIIHH@Z" PURGE="28" COMMENT="" />
    <EXPORT ORDINAL="1266" NAME="?cgmDrawRangeElementArrayAPPLE@OpenGLTracer@OGL@AIF@@UAEXPBDIIIIHH@Z" PURGE="28" COMMENT="" />
    <EXPORT ORDINAL="1267" NAME="?cgmDrawRangeElementArrayATI@OpenGLErrorChecker@OGL@AIF@@UAEXPBDIIIIH@Z" PURGE="24" COMMENT="" />
    <EXPORT ORDINAL="1268" NAME="?cgmDrawRangeElementArrayATI@OpenGLRekorder@OGL@AIF@@UAEXPBDIIIIH@Z" PURGE="24" COMMENT="" />
    <EXPORT ORDINAL="1269" NAME="?cgmDrawRangeElementArrayATI@OpenGLTracer@OGL@AIF@@UAEXPBDIIIIH@Z" PURGE="24" COMMENT="" />
    <EXPORT ORDINAL="1270" NAME="?cgmDrawRangeElements@OpenGLErrorChecker@OGL@AIF@@UAEXPBDIIIIHIPBX@Z" PURGE="32" COMMENT="" />
    <EXPORT ORDINAL="1271" NAME="?cgmDrawRangeElements@OpenGLRekorder@OGL@AIF@@UAEXPBDIIIIHIPBX@Z" PURGE="-1" COMMENT="" />
    <EXPORT ORDINAL="1272" NAME="?cgmDrawRangeElements@OpenGLTracer@OGL@AIF@@UAEXPBDIIIIHIPBX@Z" PURGE="32" COMMENT="" />
    <EXPORT ORDINAL="1273" NAME="?cgmDrawRangeElementsEXT@OpenGLErrorChecker@OGL@AIF@@UAEXPBDIIIIHIPBX@Z" PURGE="32" COMMENT="" />
    <EXPORT ORDINAL="1274" NAME="?cgmDrawRangeElementsEXT@OpenGLRekorder@OGL@AIF@@UAEXPBDIIIIHIPBX@Z" PURGE="-1" COMMENT="" />
    <EXPORT ORDINAL="1275" NAME="?cgmDrawRangeElementsEXT@OpenGLTracer@OGL@AIF@@UAEXPBDIIIIHIPBX@Z" PURGE="32" COMMENT="" />
    <EXPORT ORDINAL="1276" NAME="?cgmEdgeFlag@OpenGLErrorChecker@OGL@AIF@@UAEXPBDIE@Z" PURGE="12" COMMENT="" />
    <EXPORT ORDINAL="1277" NAME="?cgmEdgeFlag@OpenGLRekorder@OGL@AIF@@UAEXPBDIE@Z" PURGE="12" COMMENT="" />
    <EXPORT ORDINAL="1278" NAME="?cgmEdgeFlag@OpenGLTracer@OGL@AIF@@UAEXPBDIE@Z" PURGE="12" COMMENT="" />
    <EXPORT ORDINAL="1279" NAME="?cgmEdgeFlagFormatNV@OpenGLErrorChecker@OGL@AIF@@UAEXPBDIH@Z" PURGE="12" COMMENT="" />
    <EXPORT ORDINAL="1280" NAME="?cgmEdgeFlagFormatNV@OpenGLRekorder@OGL@AIF@@UAEXPBDIH@Z" PURGE="12" COMMENT="" />
    <EXPORT ORDINAL="1281" NAME="?cgmEdgeFlagFormatNV@OpenGLTracer@OGL@AIF@@UAEXPBDIH@Z" PURGE="12" COMMENT="" />
    <EXPORT ORDINAL="1282" NAME="?cgmEdgeFlagPointer@OpenGLErrorChecker@OGL@AIF@@UAEXPBDIHPBX@Z" PURGE="16" COMMENT="" />
    <EXPORT ORDINAL="1283" NAME="?cgmEdgeFlagPointer@OpenGLRekorder@OGL@AIF@@UAEXPBDIHPBX@Z" PURGE="-1" COMMENT="" />
    <EXPORT ORDINAL="1284" NAME="?cgmEdgeFlagPointer@OpenGLTracer@OGL@AIF@@UAEXPBDIHPBX@Z" PURGE="16" COMMENT="" />
    <EXPORT ORDINAL="1285" NAME="?cgmEdgeFlagPointerEXT@OpenGLErrorChecker@OGL@AIF@@UAEXPBDIHHPBE@Z" PURGE="20" COMMENT="" />
    <EXPORT ORDINAL="1286" NAME="?cgmEdgeFlagPointerEXT@OpenGLRekorder@OGL@AIF@@UAEXPBDIHHPBE@Z" PURGE="-1" COMMENT="" />
    <EXPORT ORDINAL="1287" NAME="?cgmEdgeFlagPointerEXT@OpenGLTracer@OGL@AIF@@UAEXPBDIHHPBE@Z" PURGE="20" COMMENT="" />
    <EXPORT ORDINAL="1288" NAME="?cgmEdgeFlagPointerListIBM@OpenGLErrorChecker@OGL@AIF@@UAEXPBDIHPAPBEH@Z" PURGE="20" COMMENT="" />
    <EXPORT ORDINAL="1289" NAME="?cgmEdgeFlagPointerListIBM@OpenGLRekorder@OGL@AIF@@UAEXPBDIHPAPBEH@Z" PURGE="-1" COMMENT="" />
    <EXPORT ORDINAL="1290" NAME="?cgmEdgeFlagPointerListIBM@OpenGLTracer@OGL@AIF@@UAEXPBDIHPAPBEH@Z" PURGE="20" COMMENT="" />
    <EXPORT ORDINAL="1291" NAME="?cgmEdgeFlagv@OpenGLErrorChecker@OGL@AIF@@UAEXPBDIPBE@Z" PURGE="12" COMMENT="" />
    <EXPORT ORDINAL="1292" NAME="?cgmEdgeFlagv@OpenGLRekorder@OGL@AIF@@UAEXPBDIPBE@Z" PURGE="-1" COMMENT="" />
    <EXPORT ORDINAL="1293" NAME="?cgmEdgeFlagv@OpenGLTracer@OGL@AIF@@UAEXPBDIPBE@Z" PURGE="12" COMMENT="" />
    <EXPORT ORDINAL="1294" NAME="?cgmElementPointerAPPLE@OpenGLErrorChecker@OGL@AIF@@UAEXPBDIIPBX@Z" PURGE="16" COMMENT="" />
    <EXPORT ORDINAL="1295" NAME="?cgmElementPointerAPPLE@OpenGLRekorder@OGL@AIF@@UAEXPBDIIPBX@Z" PURGE="-1" COMMENT="" />
    <EXPORT ORDINAL="1296" NAME="?cgmElementPointerAPPLE@OpenGLTracer@OGL@AIF@@UAEXPBDIIPBX@Z" PURGE="16" COMMENT="" />
    <EXPORT ORDINAL="1297" NAME="?cgmElementPointerATI@OpenGLErrorChecker@OGL@AIF@@UAEXPBDIIPBX@Z" PURGE="16" COMMENT="" />
    <EXPORT ORDINAL="1298" NAME="?cgmElementPointerATI@OpenGLRekorder@OGL@AIF@@UAEXPBDIIPBX@Z" PURGE="-1" COMMENT="" />
    <EXPORT ORDINAL="1299" NAME="?cgmElementPointerATI@OpenGLTracer@OGL@AIF@@UAEXPBDIIPBX@Z" PURGE="16" COMMENT="" />
    <EXPORT ORDINAL="1300" NAME="?cgmEnable@OpenGLErrorChecker@OGL@AIF@@UAEXPBDII@Z" PURGE="12" COMMENT="" />
    <EXPORT ORDINAL="1301" NAME="?cgmEnable@OpenGLRekorder@OGL@AIF@@UAEXPBDII@Z" PURGE="12" COMMENT="" />
    <EXPORT ORDINAL="1302" NAME="?cgmEnable@OpenGLTracer@OGL@AIF@@UAEXPBDII@Z" PURGE="12" COMMENT="" />
    <EXPORT ORDINAL="1303" NAME="?cgmEnableClientState@OpenGLErrorChecker@OGL@AIF@@UAEXPBDII@Z" PURGE="12" COMMENT="" />
    <EXPORT ORDINAL="1304" NAME="?cgmEnableClientState@OpenGLRekorder@OGL@AIF@@UAEXPBDII@Z" PURGE="12" COMMENT="" />
    <EXPORT ORDINAL="1305" NAME="?cgmEnableClientState@OpenGLTracer@OGL@AIF@@UAEXPBDII@Z" PURGE="12" COMMENT="" />
    <EXPORT ORDINAL="1306" NAME="?cgmEnableClientStateIndexedEXT@OpenGLErrorChecker@OGL@AIF@@UAEXPBDIII@Z" PURGE="16" COMMENT="" />
    <EXPORT ORDINAL="1307" NAME="?cgmEnableClientStateIndexedEXT@OpenGLRekorder@OGL@AIF@@UAEXPBDIII@Z" PURGE="16" COMMENT="" />
    <EXPORT ORDINAL="1308" NAME="?cgmEnableClientStateIndexedEXT@OpenGLTracer@OGL@AIF@@UAEXPBDIII@Z" PURGE="16" COMMENT="" />
    <EXPORT ORDINAL="1309" NAME="?cgmEnableIndexedEXT@OpenGLErrorChecker@OGL@AIF@@UAEXPBDIII@Z" PURGE="16" COMMENT="" />
    <EXPORT ORDINAL="1310" NAME="?cgmEnableIndexedEXT@OpenGLRekorder@OGL@AIF@@UAEXPBDIII@Z" PURGE="16" COMMENT="" />
    <EXPORT ORDINAL="1311" NAME="?cgmEnableIndexedEXT@OpenGLTracer@OGL@AIF@@UAEXPBDIII@Z" PURGE="16" COMMENT="" />
    <EXPORT ORDINAL="1312" NAME="?cgmEnableVariantClientStateEXT@OpenGLErrorChecker@OGL@AIF@@UAEXPBDII@Z" PURGE="12" COMMENT="" />
    <EXPORT ORDINAL="1313" NAME="?cgmEnableVariantClientStateEXT@OpenGLRekorder@OGL@AIF@@UAEXPBDII@Z" PURGE="12" COMMENT="" />
    <EXPORT ORDINAL="1314" NAME="?cgmEnableVariantClientStateEXT@OpenGLTracer@OGL@AIF@@UAEXPBDII@Z" PURGE="12" COMMENT="" />
    <EXPORT ORDINAL="1315" NAME="?cgmEnableVertexAttribArray@OpenGLErrorChecker@OGL@AIF@@UAEXPBDII@Z" PURGE="12" COMMENT="" />
    <EXPORT ORDINAL="1316" NAME="?cgmEnableVertexAttribArray@OpenGLRekorder@OGL@AIF@@UAEXPBDII@Z" PURGE="12" COMMENT="" />
    <EXPORT ORDINAL="1317" NAME="?cgmEnableVertexAttribArray@OpenGLTracer@OGL@AIF@@UAEXPBDII@Z" PURGE="12" COMMENT="" />
    <EXPORT ORDINAL="1318" NAME="?cgmEnableVertexAttribArrayARB@OpenGLErrorChecker@OGL@AIF@@UAEXPBDII@Z" PURGE="12" COMMENT="" />
    <EXPORT ORDINAL="1319" NAME="?cgmEnableVertexAttribArrayARB@OpenGLRekorder@OGL@AIF@@UAEXPBDII@Z" PURGE="12" COMMENT="" />
    <EXPORT ORDINAL="1320" NAME="?cgmEnableVertexAttribArrayARB@OpenGLTracer@OGL@AIF@@UAEXPBDII@Z" PURGE="12" COMMENT="" />
    <EXPORT ORDINAL="1321" NAME="?cgmEnablei@OpenGLErrorChecker@OGL@AIF@@UAEXPBDIII@Z" PURGE="16" COMMENT="" />
    <EXPORT ORDINAL="1322" NAME="?cgmEnablei@OpenGLRekorder@OGL@AIF@@UAEXPBDIII@Z" PURGE="16" COMMENT="" />
    <EXPORT ORDINAL="1323" NAME="?cgmEnablei@OpenGLTracer@OGL@AIF@@UAEXPBDIII@Z" PURGE="16" COMMENT="" />
    <EXPORT ORDINAL="1324" NAME="?cgmEnd@OpenGLErrorChecker@OGL@AIF@@UAEXPBDI@Z" PURGE="8" COMMENT="" />
    <EXPORT ORDINAL="1325" NAME="?cgmEnd@OpenGLRekorder@OGL@AIF@@UAEXPBDI@Z" PURGE="8" COMMENT="" />
    <EXPORT ORDINAL="1326" NAME="?cgmEnd@OpenGLTracer@OGL@AIF@@UAEXPBDI@Z" PURGE="8" COMMENT="" />
    <EXPORT ORDINAL="1327" NAME="?cgmEndConditionalRender@OpenGLErrorChecker@OGL@AIF@@UAEXPBDI@Z" PURGE="8" COMMENT="" />
    <EXPORT ORDINAL="1328" NAME="?cgmEndConditionalRender@OpenGLRekorder@OGL@AIF@@UAEXPBDI@Z" PURGE="8" COMMENT="" />
    <EXPORT ORDINAL="1329" NAME="?cgmEndConditionalRender@OpenGLTracer@OGL@AIF@@UAEXPBDI@Z" PURGE="8" COMMENT="" />
    <EXPORT ORDINAL="1330" NAME="?cgmEndConditionalRenderNV@OpenGLErrorChecker@OGL@AIF@@UAEXPBDI@Z" PURGE="8" COMMENT="" />
    <EXPORT ORDINAL="1331" NAME="?cgmEndConditionalRenderNV@OpenGLRekorder@OGL@AIF@@UAEXPBDI@Z" PURGE="8" COMMENT="" />
    <EXPORT ORDINAL="1332" NAME="?cgmEndConditionalRenderNV@OpenGLTracer@OGL@AIF@@UAEXPBDI@Z" PURGE="8" COMMENT="" />
    <EXPORT ORDINAL="1333" NAME="?cgmEndFragmentShaderATI@OpenGLErrorChecker@OGL@AIF@@UAEXPBDI@Z" PURGE="8" COMMENT="" />
    <EXPORT ORDINAL="1334" NAME="?cgmEndFragmentShaderATI@OpenGLRekorder@OGL@AIF@@UAEXPBDI@Z" PURGE="8" COMMENT="" />
    <EXPORT ORDINAL="1335" NAME="?cgmEndFragmentShaderATI@OpenGLTracer@OGL@AIF@@UAEXPBDI@Z" PURGE="8" COMMENT="" />
    <EXPORT ORDINAL="1336" NAME="?cgmEndList@OpenGLErrorChecker@OGL@AIF@@UAEXPBDI@Z" PURGE="8" COMMENT="" />
    <EXPORT ORDINAL="1337" NAME="?cgmEndList@OpenGLRekorder@OGL@AIF@@UAEXPBDI@Z" PURGE="8" COMMENT="" />
    <EXPORT ORDINAL="1338" NAME="?cgmEndList@OpenGLTracer@OGL@AIF@@UAEXPBDI@Z" PURGE="8" COMMENT="" />
    <EXPORT ORDINAL="1339" NAME="?cgmEndOcclusionQueryNV@OpenGLErrorChecker@OGL@AIF@@UAEXPBDI@Z" PURGE="8" COMMENT="" />
    <EXPORT ORDINAL="1340" NAME="?cgmEndOcclusionQueryNV@OpenGLRekorder@OGL@AIF@@UAEXPBDI@Z" PURGE="8" COMMENT="" />
    <EXPORT ORDINAL="1341" NAME="?cgmEndOcclusionQueryNV@OpenGLTracer@OGL@AIF@@UAEXPBDI@Z" PURGE="8" COMMENT="" />
    <EXPORT ORDINAL="1342" NAME="?cgmEndQuery@OpenGLErrorChecker@OGL@AIF@@UAEXPBDII@Z" PURGE="12" COMMENT="" />
    <EXPORT ORDINAL="1343" NAME="?cgmEndQuery@OpenGLRekorder@OGL@AIF@@UAEXPBDII@Z" PURGE="12" COMMENT="" />
    <EXPORT ORDINAL="1344" NAME="?cgmEndQuery@OpenGLTracer@OGL@AIF@@UAEXPBDII@Z" PURGE="12" COMMENT="" />
    <EXPORT ORDINAL="1345" NAME="?cgmEndQueryARB@OpenGLErrorChecker@OGL@AIF@@UAEXPBDII@Z" PURGE="12" COMMENT="" />
    <EXPORT ORDINAL="1346" NAME="?cgmEndQueryARB@OpenGLRekorder@OGL@AIF@@UAEXPBDII@Z" PURGE="12" COMMENT="" />
    <EXPORT ORDINAL="1347" NAME="?cgmEndQueryARB@OpenGLTracer@OGL@AIF@@UAEXPBDII@Z" PURGE="12" COMMENT="" />
    <EXPORT ORDINAL="1348" NAME="?cgmEndSceneEXT@OpenGLErrorChecker@OGL@AIF@@UAEXPBDI@Z" PURGE="8" COMMENT="" />
    <EXPORT ORDINAL="1349" NAME="?cgmEndSceneEXT@OpenGLRekorder@OGL@AIF@@UAEXPBDI@Z" PURGE="8" COMMENT="" />
    <EXPORT ORDINAL="1350" NAME="?cgmEndSceneEXT@OpenGLTracer@OGL@AIF@@UAEXPBDI@Z" PURGE="8" COMMENT="" />
    <EXPORT ORDINAL="1351" NAME="?cgmEndTransformFeedback@OpenGLErrorChecker@OGL@AIF@@UAEXPBDI@Z" PURGE="8" COMMENT="" />
    <EXPORT ORDINAL="1352" NAME="?cgmEndTransformFeedback@OpenGLRekorder@OGL@AIF@@UAEXPBDI@Z" PURGE="8" COMMENT="" />
    <EXPORT ORDINAL="1353" NAME="?cgmEndTransformFeedback@OpenGLTracer@OGL@AIF@@UAEXPBDI@Z" PURGE="8" COMMENT="" />
    <EXPORT ORDINAL="1354" NAME="?cgmEndTransformFeedbackEXT@OpenGLErrorChecker@OGL@AIF@@UAEXPBDI@Z" PURGE="8" COMMENT="" />
    <EXPORT ORDINAL="1355" NAME="?cgmEndTransformFeedbackEXT@OpenGLRekorder@OGL@AIF@@UAEXPBDI@Z" PURGE="8" COMMENT="" />
    <EXPORT ORDINAL="1356" NAME="?cgmEndTransformFeedbackEXT@OpenGLTracer@OGL@AIF@@UAEXPBDI@Z" PURGE="8" COMMENT="" />
    <EXPORT ORDINAL="1357" NAME="?cgmEndTransformFeedbackNV@OpenGLErrorChecker@OGL@AIF@@UAEXPBDI@Z" PURGE="8" COMMENT="" />
    <EXPORT ORDINAL="1358" NAME="?cgmEndTransformFeedbackNV@OpenGLRekorder@OGL@AIF@@UAEXPBDI@Z" PURGE="8" COMMENT="" />
    <EXPORT ORDINAL="1359" NAME="?cgmEndTransformFeedbackNV@OpenGLTracer@OGL@AIF@@UAEXPBDI@Z" PURGE="8" COMMENT="" />
    <EXPORT ORDINAL="1360" NAME="?cgmEndVertexShaderEXT@OpenGLErrorChecker@OGL@AIF@@UAEXPBDI@Z" PURGE="8" COMMENT="" />
    <EXPORT ORDINAL="1361" NAME="?cgmEndVertexShaderEXT@OpenGLRekorder@OGL@AIF@@UAEXPBDI@Z" PURGE="8" COMMENT="" />
    <EXPORT ORDINAL="1362" NAME="?cgmEndVertexShaderEXT@OpenGLTracer@OGL@AIF@@UAEXPBDI@Z" PURGE="8" COMMENT="" />
    <EXPORT ORDINAL="1363" NAME="?cgmEvalCoord1d@OpenGLErrorChecker@OGL@AIF@@UAEXPBDIN@Z" PURGE="16" COMMENT="" />
    <EXPORT ORDINAL="1364" NAME="?cgmEvalCoord1d@OpenGLRekorder@OGL@AIF@@UAEXPBDIN@Z" PURGE="16" COMMENT="" />
    <EXPORT ORDINAL="1365" NAME="?cgmEvalCoord1d@OpenGLTracer@OGL@AIF@@UAEXPBDIN@Z" PURGE="16" COMMENT="" />
    <EXPORT ORDINAL="1366" NAME="?cgmEvalCoord1dv@OpenGLErrorChecker@OGL@AIF@@UAEXPBDIPBN@Z" PURGE="12" COMMENT="" />
    <EXPORT ORDINAL="1367" NAME="?cgmEvalCoord1dv@OpenGLRekorder@OGL@AIF@@UAEXPBDIPBN@Z" PURGE="-1" COMMENT="" />
    <EXPORT ORDINAL="1368" NAME="?cgmEvalCoord1dv@OpenGLTracer@OGL@AIF@@UAEXPBDIPBN@Z" PURGE="12" COMMENT="" />
    <EXPORT ORDINAL="1369" NAME="?cgmEvalCoord1f@OpenGLErrorChecker@OGL@AIF@@UAEXPBDIM@Z" PURGE="12" COMMENT="" />
    <EXPORT ORDINAL="1370" NAME="?cgmEvalCoord1f@OpenGLRekorder@OGL@AIF@@UAEXPBDIM@Z" PURGE="12" COMMENT="" />
    <EXPORT ORDINAL="1371" NAME="?cgmEvalCoord1f@OpenGLTracer@OGL@AIF@@UAEXPBDIM@Z" PURGE="12" COMMENT="" />
    <EXPORT ORDINAL="1372" NAME="?cgmEvalCoord1fv@OpenGLErrorChecker@OGL@AIF@@UAEXPBDIPBM@Z" PURGE="12" COMMENT="" />
    <EXPORT ORDINAL="1373" NAME="?cgmEvalCoord1fv@OpenGLRekorder@OGL@AIF@@UAEXPBDIPBM@Z" PURGE="-1" COMMENT="" />
    <EXPORT ORDINAL="1374" NAME="?cgmEvalCoord1fv@OpenGLTracer@OGL@AIF@@UAEXPBDIPBM@Z" PURGE="12" COMMENT="" />
    <EXPORT ORDINAL="1375" NAME="?cgmEvalCoord2d@OpenGLErrorChecker@OGL@AIF@@UAEXPBDINN@Z" PURGE="24" COMMENT="" />
    <EXPORT ORDINAL="1376" NAME="?cgmEvalCoord2d@OpenGLRekorder@OGL@AIF@@UAEXPBDINN@Z" PURGE="24" COMMENT="" />
    <EXPORT ORDINAL="1377" NAME="?cgmEvalCoord2d@OpenGLTracer@OGL@AIF@@UAEXPBDINN@Z" PURGE="24" COMMENT="" />
    <EXPORT ORDINAL="1378" NAME="?cgmEvalCoord2dv@OpenGLErrorChecker@OGL@AIF@@UAEXPBDIPBN@Z" PURGE="12" COMMENT="" />
    <EXPORT ORDINAL="1379" NAME="?cgmEvalCoord2dv@OpenGLRekorder@OGL@AIF@@UAEXPBDIPBN@Z" PURGE="-1" COMMENT="" />
    <EXPORT ORDINAL="1380" NAME="?cgmEvalCoord2dv@OpenGLTracer@OGL@AIF@@UAEXPBDIPBN@Z" PURGE="12" COMMENT="" />
    <EXPORT ORDINAL="1381" NAME="?cgmEvalCoord2f@OpenGLErrorChecker@OGL@AIF@@UAEXPBDIMM@Z" PURGE="16" COMMENT="" />
    <EXPORT ORDINAL="1382" NAME="?cgmEvalCoord2f@OpenGLRekorder@OGL@AIF@@UAEXPBDIMM@Z" PURGE="16" COMMENT="" />
    <EXPORT ORDINAL="1383" NAME="?cgmEvalCoord2f@OpenGLTracer@OGL@AIF@@UAEXPBDIMM@Z" PURGE="16" COMMENT="" />
    <EXPORT ORDINAL="1384" NAME="?cgmEvalCoord2fv@OpenGLErrorChecker@OGL@AIF@@UAEXPBDIPBM@Z" PURGE="12" COMMENT="" />
    <EXPORT ORDINAL="1385" NAME="?cgmEvalCoord2fv@OpenGLRekorder@OGL@AIF@@UAEXPBDIPBM@Z" PURGE="-1" COMMENT="" />
    <EXPORT ORDINAL="1386" NAME="?cgmEvalCoord2fv@OpenGLTracer@OGL@AIF@@UAEXPBDIPBM@Z" PURGE="12" COMMENT="" />
    <EXPORT ORDINAL="1387" NAME="?cgmEvalMapsNV@OpenGLErrorChecker@OGL@AIF@@UAEXPBDIII@Z" PURGE="16" COMMENT="" />
    <EXPORT ORDINAL="1388" NAME="?cgmEvalMapsNV@OpenGLRekorder@OGL@AIF@@UAEXPBDIII@Z" PURGE="16" COMMENT="" />
    <EXPORT ORDINAL="1389" NAME="?cgmEvalMapsNV@OpenGLTracer@OGL@AIF@@UAEXPBDIII@Z" PURGE="16" COMMENT="" />
    <EXPORT ORDINAL="1390" NAME="?cgmEvalMesh1@OpenGLErrorChecker@OGL@AIF@@UAEXPBDIIHH@Z" PURGE="20" COMMENT="" />
    <EXPORT ORDINAL="1391" NAME="?cgmEvalMesh1@OpenGLRekorder@OGL@AIF@@UAEXPBDIIHH@Z" PURGE="20" COMMENT="" />
    <EXPORT ORDINAL="1392" NAME="?cgmEvalMesh1@OpenGLTracer@OGL@AIF@@UAEXPBDIIHH@Z" PURGE="20" COMMENT="" />
    <EXPORT ORDINAL="1393" NAME="?cgmEvalMesh2@OpenGLErrorChecker@OGL@AIF@@UAEXPBDIIHHHH@Z" PURGE="28" COMMENT="" />
    <EXPORT ORDINAL="1394" NAME="?cgmEvalMesh2@OpenGLRekorder@OGL@AIF@@UAEXPBDIIHHHH@Z" PURGE="28" COMMENT="" />
    <EXPORT ORDINAL="1395" NAME="?cgmEvalMesh2@OpenGLTracer@OGL@AIF@@UAEXPBDIIHHHH@Z" PURGE="28" COMMENT="" />
    <EXPORT ORDINAL="1396" NAME="?cgmEvalPoint1@OpenGLErrorChecker@OGL@AIF@@UAEXPBDIH@Z" PURGE="12" COMMENT="" />
    <EXPORT ORDINAL="1397" NAME="?cgmEvalPoint1@OpenGLRekorder@OGL@AIF@@UAEXPBDIH@Z" PURGE="12" COMMENT="" />
    <EXPORT ORDINAL="1398" NAME="?cgmEvalPoint1@OpenGLTracer@OGL@AIF@@UAEXPBDIH@Z" PURGE="12" COMMENT="" />
    <EXPORT ORDINAL="1399" NAME="?cgmEvalPoint2@OpenGLErrorChecker@OGL@AIF@@UAEXPBDIHH@Z" PURGE="16" COMMENT="" />
    <EXPORT ORDINAL="1400" NAME="?cgmEvalPoint2@OpenGLRekorder@OGL@AIF@@UAEXPBDIHH@Z" PURGE="16" COMMENT="" />
    <EXPORT ORDINAL="1401" NAME="?cgmEvalPoint2@OpenGLTracer@OGL@AIF@@UAEXPBDIHH@Z" PURGE="16" COMMENT="" />
    <EXPORT ORDINAL="1402" NAME="?cgmExecuteProgramNV@OpenGLErrorChecker@OGL@AIF@@UAEXPBDIIIPBM@Z" PURGE="20" COMMENT="" />
    <EXPORT ORDINAL="1403" NAME="?cgmExecuteProgramNV@OpenGLRekorder@OGL@AIF@@UAEXPBDIIIPBM@Z" PURGE="-1" COMMENT="" />
    <EXPORT ORDINAL="1404" NAME="?cgmExecuteProgramNV@OpenGLTracer@OGL@AIF@@UAEXPBDIIIPBM@Z" PURGE="20" COMMENT="" />
    <EXPORT ORDINAL="1405" NAME="?cgmExtractComponentEXT@OpenGLErrorChecker@OGL@AIF@@UAEXPBDIIII@Z" PURGE="20" COMMENT="" />
    <EXPORT ORDINAL="1406" NAME="?cgmExtractComponentEXT@OpenGLRekorder@OGL@AIF@@UAEXPBDIIII@Z" PURGE="20" COMMENT="" />
    <EXPORT ORDINAL="1407" NAME="?cgmExtractComponentEXT@OpenGLTracer@OGL@AIF@@UAEXPBDIIII@Z" PURGE="20" COMMENT="" />
    <EXPORT ORDINAL="1408" NAME="?cgmFeedbackBuffer@OpenGLErrorChecker@OGL@AIF@@UAEXPBDIHIPAM@Z" PURGE="20" COMMENT="" />
    <EXPORT ORDINAL="1409" NAME="?cgmFeedbackBuffer@OpenGLRekorder@OGL@AIF@@UAEXPBDIHIPAM@Z" PURGE="-1" COMMENT="" />
    <EXPORT ORDINAL="1410" NAME="?cgmFeedbackBuffer@OpenGLTracer@OGL@AIF@@UAEXPBDIHIPAM@Z" PURGE="20" COMMENT="" />
    <EXPORT ORDINAL="1411" NAME="?cgmFinalCombinerInputNV@OpenGLErrorChecker@OGL@AIF@@UAEXPBDIIIII@Z" PURGE="24" COMMENT="" />
    <EXPORT ORDINAL="1412" NAME="?cgmFinalCombinerInputNV@OpenGLRekorder@OGL@AIF@@UAEXPBDIIIII@Z" PURGE="24" COMMENT="" />
    <EXPORT ORDINAL="1413" NAME="?cgmFinalCombinerInputNV@OpenGLTracer@OGL@AIF@@UAEXPBDIIIII@Z" PURGE="24" COMMENT="" />
    <EXPORT ORDINAL="1414" NAME="?cgmFinish@OpenGLErrorChecker@OGL@AIF@@UAEXPBDI@Z" PURGE="8" COMMENT="" />
    <EXPORT ORDINAL="1415" NAME="?cgmFinish@OpenGLRekorder@OGL@AIF@@UAEXPBDI@Z" PURGE="8" COMMENT="" />
    <EXPORT ORDINAL="1416" NAME="?cgmFinish@OpenGLTracer@OGL@AIF@@UAEXPBDI@Z" PURGE="8" COMMENT="" />
    <EXPORT ORDINAL="1417" NAME="?cgmFinishAsyncSGIX@OpenGLErrorChecker@OGL@AIF@@UAEHPBDIPAI@Z" PURGE="12" COMMENT="" />
    <EXPORT ORDINAL="1418" NAME="?cgmFinishAsyncSGIX@OpenGLRekorder@OGL@AIF@@UAEHPBDIPAI@Z" PURGE="-1" COMMENT="" />
    <EXPORT ORDINAL="1419" NAME="?cgmFinishAsyncSGIX@OpenGLTracer@OGL@AIF@@UAEHPBDIPAI@Z" PURGE="12" COMMENT="" />
    <EXPORT ORDINAL="1420" NAME="?cgmFinishFenceAPPLE@OpenGLErrorChecker@OGL@AIF@@UAEXPBDII@Z" PURGE="12" COMMENT="" />
    <EXPORT ORDINAL="1421" NAME="?cgmFinishFenceAPPLE@OpenGLRekorder@OGL@AIF@@UAEXPBDII@Z" PURGE="12" COMMENT="" />
    <EXPORT ORDINAL="1422" NAME="?cgmFinishFenceAPPLE@OpenGLTracer@OGL@AIF@@UAEXPBDII@Z" PURGE="12" COMMENT="" />
    <EXPORT ORDINAL="1423" NAME="?cgmFinishFenceNV@OpenGLErrorChecker@OGL@AIF@@UAEXPBDII@Z" PURGE="12" COMMENT="" />
    <EXPORT ORDINAL="1424" NAME="?cgmFinishFenceNV@OpenGLRekorder@OGL@AIF@@UAEXPBDII@Z" PURGE="12" COMMENT="" />
    <EXPORT ORDINAL="1425" NAME="?cgmFinishFenceNV@OpenGLTracer@OGL@AIF@@UAEXPBDII@Z" PURGE="12" COMMENT="" />
    <EXPORT ORDINAL="1426" NAME="?cgmFinishObjectAPPLE@OpenGLErrorChecker@OGL@AIF@@UAEXPBDIIH@Z" PURGE="16" COMMENT="" />
    <EXPORT ORDINAL="1427" NAME="?cgmFinishObjectAPPLE@OpenGLRekorder@OGL@AIF@@UAEXPBDIIH@Z" PURGE="16" COMMENT="" />
    <EXPORT ORDINAL="1428" NAME="?cgmFinishObjectAPPLE@OpenGLTracer@OGL@AIF@@UAEXPBDIIH@Z" PURGE="16" COMMENT="" />
    <EXPORT ORDINAL="1429" NAME="?cgmFinishRenderAPPLE@OpenGLErrorChecker@OGL@AIF@@UAEXPBDI@Z" PURGE="8" COMMENT="" />
    <EXPORT ORDINAL="1430" NAME="?cgmFinishRenderAPPLE@OpenGLRekorder@OGL@AIF@@UAEXPBDI@Z" PURGE="8" COMMENT="" />
    <EXPORT ORDINAL="1431" NAME="?cgmFinishRenderAPPLE@OpenGLTracer@OGL@AIF@@UAEXPBDI@Z" PURGE="8" COMMENT="" />
    <EXPORT ORDINAL="1432" NAME="?cgmFinishTextureSUNX@OpenGLErrorChecker@OGL@AIF@@UAEXPBDI@Z" PURGE="8" COMMENT="" />
    <EXPORT ORDINAL="1433" NAME="?cgmFinishTextureSUNX@OpenGLRekorder@OGL@AIF@@UAEXPBDI@Z" PURGE="8" COMMENT="" />
    <EXPORT ORDINAL="1434" NAME="?cgmFinishTextureSUNX@OpenGLTracer@OGL@AIF@@UAEXPBDI@Z" PURGE="8" COMMENT="" />
    <EXPORT ORDINAL="1435" NAME="?cgmFlush@OpenGLErrorChecker@OGL@AIF@@UAEXPBDI@Z" PURGE="8" COMMENT="" />
    <EXPORT ORDINAL="1436" NAME="?cgmFlush@OpenGLRekorder@OGL@AIF@@UAEXPBDI@Z" PURGE="8" COMMENT="" />
    <EXPORT ORDINAL="1437" NAME="?cgmFlush@OpenGLTracer@OGL@AIF@@UAEXPBDI@Z" PURGE="8" COMMENT="" />
    <EXPORT ORDINAL="1438" NAME="?cgmFlushMappedBufferRange@OpenGLErrorChecker@OGL@AIF@@UAEXPBDIIHH@Z" PURGE="20" COMMENT="" />
    <EXPORT ORDINAL="1439" NAME="?cgmFlushMappedBufferRange@OpenGLRekorder@OGL@AIF@@UAEXPBDIIHH@Z" PURGE="20" COMMENT="" />
    <EXPORT ORDINAL="1440" NAME="?cgmFlushMappedBufferRange@OpenGLTracer@OGL@AIF@@UAEXPBDIIHH@Z" PURGE="20" COMMENT="" />
    <EXPORT ORDINAL="1441" NAME="?cgmFlushMappedBufferRangeAPPLE@OpenGLErrorChecker@OGL@AIF@@UAEXPBDIIHH@Z" PURGE="20" COMMENT="" />
    <EXPORT ORDINAL="1442" NAME="?cgmFlushMappedBufferRangeAPPLE@OpenGLRekorder@OGL@AIF@@UAEXPBDIIHH@Z" PURGE="20" COMMENT="" />
    <EXPORT ORDINAL="1443" NAME="?cgmFlushMappedBufferRangeAPPLE@OpenGLTracer@OGL@AIF@@UAEXPBDIIHH@Z" PURGE="20" COMMENT="" />
    <EXPORT ORDINAL="1444" NAME="?cgmFlushPixelDataRangeNV@OpenGLErrorChecker@OGL@AIF@@UAEXPBDII@Z" PURGE="12" COMMENT="" />
    <EXPORT ORDINAL="1445" NAME="?cgmFlushPixelDataRangeNV@OpenGLRekorder@OGL@AIF@@UAEXPBDII@Z" PURGE="12" COMMENT="" />
    <EXPORT ORDINAL="1446" NAME="?cgmFlushPixelDataRangeNV@OpenGLTracer@OGL@AIF@@UAEXPBDII@Z" PURGE="12" COMMENT="" />
    <EXPORT ORDINAL="1447" NAME="?cgmFlushRasterSGIX@OpenGLErrorChecker@OGL@AIF@@UAEXPBDI@Z" PURGE="8" COMMENT="" />
    <EXPORT ORDINAL="1448" NAME="?cgmFlushRasterSGIX@OpenGLRekorder@OGL@AIF@@UAEXPBDI@Z" PURGE="8" COMMENT="" />
    <EXPORT ORDINAL="1449" NAME="?cgmFlushRasterSGIX@OpenGLTracer@OGL@AIF@@UAEXPBDI@Z" PURGE="8" COMMENT="" />
    <EXPORT ORDINAL="1450" NAME="?cgmFlushRenderAPPLE@OpenGLErrorChecker@OGL@AIF@@UAEXPBDI@Z" PURGE="8" COMMENT="" />
    <EXPORT ORDINAL="1451" NAME="?cgmFlushRenderAPPLE@OpenGLRekorder@OGL@AIF@@UAEXPBDI@Z" PURGE="8" COMMENT="" />
    <EXPORT ORDINAL="1452" NAME="?cgmFlushRenderAPPLE@OpenGLTracer@OGL@AIF@@UAEXPBDI@Z" PURGE="8" COMMENT="" />
    <EXPORT ORDINAL="1453" NAME="?cgmFlushVertexArrayRangeAPPLE@OpenGLErrorChecker@OGL@AIF@@UAEXPBDIHPAX@Z" PURGE="16" COMMENT="" />
    <EXPORT ORDINAL="1454" NAME="?cgmFlushVertexArrayRangeAPPLE@OpenGLRekorder@OGL@AIF@@UAEXPBDIHPAX@Z" PURGE="-1" COMMENT="" />
    <EXPORT ORDINAL="1455" NAME="?cgmFlushVertexArrayRangeAPPLE@OpenGLTracer@OGL@AIF@@UAEXPBDIHPAX@Z" PURGE="16" COMMENT="" />
    <EXPORT ORDINAL="1456" NAME="?cgmFlushVertexArrayRangeNV@OpenGLErrorChecker@OGL@AIF@@UAEXPBDI@Z" PURGE="8" COMMENT="" />
    <EXPORT ORDINAL="1457" NAME="?cgmFlushVertexArrayRangeNV@OpenGLRekorder@OGL@AIF@@UAEXPBDI@Z" PURGE="8" COMMENT="" />
    <EXPORT ORDINAL="1458" NAME="?cgmFlushVertexArrayRangeNV@OpenGLTracer@OGL@AIF@@UAEXPBDI@Z" PURGE="8" COMMENT="" />
    <EXPORT ORDINAL="1459" NAME="?cgmFogCoordFormatNV@OpenGLErrorChecker@OGL@AIF@@UAEXPBDIIH@Z" PURGE="16" COMMENT="" />
    <EXPORT ORDINAL="1460" NAME="?cgmFogCoordFormatNV@OpenGLRekorder@OGL@AIF@@UAEXPBDIIH@Z" PURGE="16" COMMENT="" />
    <EXPORT ORDINAL="1461" NAME="?cgmFogCoordFormatNV@OpenGLTracer@OGL@AIF@@UAEXPBDIIH@Z" PURGE="16" COMMENT="" />
    <EXPORT ORDINAL="1462" NAME="?cgmFogCoordPointer@OpenGLErrorChecker@OGL@AIF@@UAEXPBDIIHPBX@Z" PURGE="20" COMMENT="" />
    <EXPORT ORDINAL="1463" NAME="?cgmFogCoordPointer@OpenGLRekorder@OGL@AIF@@UAEXPBDIIHPBX@Z" PURGE="-1" COMMENT="" />
    <EXPORT ORDINAL="1464" NAME="?cgmFogCoordPointer@OpenGLTracer@OGL@AIF@@UAEXPBDIIHPBX@Z" PURGE="20" COMMENT="" />
    <EXPORT ORDINAL="1465" NAME="?cgmFogCoordPointerEXT@OpenGLErrorChecker@OGL@AIF@@UAEXPBDIIHPBX@Z" PURGE="20" COMMENT="" />
    <EXPORT ORDINAL="1466" NAME="?cgmFogCoordPointerEXT@OpenGLRekorder@OGL@AIF@@UAEXPBDIIHPBX@Z" PURGE="-1" COMMENT="" />
    <EXPORT ORDINAL="1467" NAME="?cgmFogCoordPointerEXT@OpenGLTracer@OGL@AIF@@UAEXPBDIIHPBX@Z" PURGE="20" COMMENT="" />
    <EXPORT ORDINAL="1468" NAME="?cgmFogCoordPointerListIBM@OpenGLErrorChecker@OGL@AIF@@UAEXPBDIIHPAPBXH@Z" PURGE="24" COMMENT="" />
    <EXPORT ORDINAL="1469" NAME="?cgmFogCoordPointerListIBM@OpenGLRekorder@OGL@AIF@@UAEXPBDIIHPAPBXH@Z" PURGE="-1" COMMENT="" />
    <EXPORT ORDINAL="1470" NAME="?cgmFogCoordPointerListIBM@OpenGLTracer@OGL@AIF@@UAEXPBDIIHPAPBXH@Z" PURGE="24" COMMENT="" />
    <EXPORT ORDINAL="1471" NAME="?cgmFogCoordd@OpenGLErrorChecker@OGL@AIF@@UAEXPBDIN@Z" PURGE="16" COMMENT="" />
    <EXPORT ORDINAL="1472" NAME="?cgmFogCoordd@OpenGLRekorder@OGL@AIF@@UAEXPBDIN@Z" PURGE="16" COMMENT="" />
    <EXPORT ORDINAL="1473" NAME="?cgmFogCoordd@OpenGLTracer@OGL@AIF@@UAEXPBDIN@Z" PURGE="16" COMMENT="" />
    <EXPORT ORDINAL="1474" NAME="?cgmFogCoorddEXT@OpenGLErrorChecker@OGL@AIF@@UAEXPBDIN@Z" PURGE="16" COMMENT="" />
    <EXPORT ORDINAL="1475" NAME="?cgmFogCoorddEXT@OpenGLRekorder@OGL@AIF@@UAEXPBDIN@Z" PURGE="16" COMMENT="" />
    <EXPORT ORDINAL="1476" NAME="?cgmFogCoorddEXT@OpenGLTracer@OGL@AIF@@UAEXPBDIN@Z" PURGE="16" COMMENT="" />
    <EXPORT ORDINAL="1477" NAME="?cgmFogCoorddv@OpenGLErrorChecker@OGL@AIF@@UAEXPBDIPBN@Z" PURGE="12" COMMENT="" />
    <EXPORT ORDINAL="1478" NAME="?cgmFogCoorddv@OpenGLRekorder@OGL@AIF@@UAEXPBDIPBN@Z" PURGE="-1" COMMENT="" />
    <EXPORT ORDINAL="1479" NAME="?cgmFogCoorddv@OpenGLTracer@OGL@AIF@@UAEXPBDIPBN@Z" PURGE="12" COMMENT="" />
    <EXPORT ORDINAL="1480" NAME="?cgmFogCoorddvEXT@OpenGLErrorChecker@OGL@AIF@@UAEXPBDIPBN@Z" PURGE="12" COMMENT="" />
    <EXPORT ORDINAL="1481" NAME="?cgmFogCoorddvEXT@OpenGLRekorder@OGL@AIF@@UAEXPBDIPBN@Z" PURGE="-1" COMMENT="" />
    <EXPORT ORDINAL="1482" NAME="?cgmFogCoorddvEXT@OpenGLTracer@OGL@AIF@@UAEXPBDIPBN@Z" PURGE="12" COMMENT="" />
    <EXPORT ORDINAL="1483" NAME="?cgmFogCoordf@OpenGLErrorChecker@OGL@AIF@@UAEXPBDIM@Z" PURGE="12" COMMENT="" />
    <EXPORT ORDINAL="1484" NAME="?cgmFogCoordf@OpenGLRekorder@OGL@AIF@@UAEXPBDIM@Z" PURGE="12" COMMENT="" />
    <EXPORT ORDINAL="1485" NAME="?cgmFogCoordf@OpenGLTracer@OGL@AIF@@UAEXPBDIM@Z" PURGE="12" COMMENT="" />
    <EXPORT ORDINAL="1486" NAME="?cgmFogCoordfEXT@OpenGLErrorChecker@OGL@AIF@@UAEXPBDIM@Z" PURGE="12" COMMENT="" />
    <EXPORT ORDINAL="1487" NAME="?cgmFogCoordfEXT@OpenGLRekorder@OGL@AIF@@UAEXPBDIM@Z" PURGE="12" COMMENT="" />
    <EXPORT ORDINAL="1488" NAME="?cgmFogCoordfEXT@OpenGLTracer@OGL@AIF@@UAEXPBDIM@Z" PURGE="12" COMMENT="" />
    <EXPORT ORDINAL="1489" NAME="?cgmFogCoordfv@OpenGLErrorChecker@OGL@AIF@@UAEXPBDIPBM@Z" PURGE="12" COMMENT="" />
    <EXPORT ORDINAL="1490" NAME="?cgmFogCoordfv@OpenGLRekorder@OGL@AIF@@UAEXPBDIPBM@Z" PURGE="-1" COMMENT="" />
    <EXPORT ORDINAL="1491" NAME="?cgmFogCoordfv@OpenGLTracer@OGL@AIF@@UAEXPBDIPBM@Z" PURGE="12" COMMENT="" />
    <EXPORT ORDINAL="1492" NAME="?cgmFogCoordfvEXT@OpenGLErrorChecker@OGL@AIF@@UAEXPBDIPBM@Z" PURGE="12" COMMENT="" />
    <EXPORT ORDINAL="1493" NAME="?cgmFogCoordfvEXT@OpenGLRekorder@OGL@AIF@@UAEXPBDIPBM@Z" PURGE="-1" COMMENT="" />
    <EXPORT ORDINAL="1494" NAME="?cgmFogCoordfvEXT@OpenGLTracer@OGL@AIF@@UAEXPBDIPBM@Z" PURGE="12" COMMENT="" />
    <EXPORT ORDINAL="1495" NAME="?cgmFogCoordhNV@OpenGLErrorChecker@OGL@AIF@@UAEXPBDII@Z" PURGE="12" COMMENT="" />
    <EXPORT ORDINAL="1496" NAME="?cgmFogCoordhNV@OpenGLRekorder@OGL@AIF@@UAEXPBDII@Z" PURGE="12" COMMENT="" />
    <EXPORT ORDINAL="1497" NAME="?cgmFogCoordhNV@OpenGLTracer@OGL@AIF@@UAEXPBDII@Z" PURGE="12" COMMENT="" />
    <EXPORT ORDINAL="1498" NAME="?cgmFogCoordhvNV@OpenGLErrorChecker@OGL@AIF@@UAEXPBDIPBI@Z" PURGE="12" COMMENT="" />
    <EXPORT ORDINAL="1499" NAME="?cgmFogCoordhvNV@OpenGLRekorder@OGL@AIF@@UAEXPBDIPBI@Z" PURGE="-1" COMMENT="" />
    <EXPORT ORDINAL="1500" NAME="?cgmFogCoordhvNV@OpenGLTracer@OGL@AIF@@UAEXPBDIPBI@Z" PURGE="12" COMMENT="" />
    <EXPORT ORDINAL="1501" NAME="?cgmFogFuncSGIS@OpenGLErrorChecker@OGL@AIF@@UAEXPBDIHPBM@Z" PURGE="16" COMMENT="" />
    <EXPORT ORDINAL="1502" NAME="?cgmFogFuncSGIS@OpenGLRekorder@OGL@AIF@@UAEXPBDIHPBM@Z" PURGE="-1" COMMENT="" />
    <EXPORT ORDINAL="1503" NAME="?cgmFogFuncSGIS@OpenGLTracer@OGL@AIF@@UAEXPBDIHPBM@Z" PURGE="16" COMMENT="" />
    <EXPORT ORDINAL="1504" NAME="?cgmFogf@OpenGLErrorChecker@OGL@AIF@@UAEXPBDIIM@Z" PURGE="16" COMMENT="" />
    <EXPORT ORDINAL="1505" NAME="?cgmFogf@OpenGLRekorder@OGL@AIF@@UAEXPBDIIM@Z" PURGE="16" COMMENT="" />
    <EXPORT ORDINAL="1506" NAME="?cgmFogf@OpenGLTracer@OGL@AIF@@UAEXPBDIIM@Z" PURGE="16" COMMENT="" />
    <EXPORT ORDINAL="1507" NAME="?cgmFogfv@OpenGLErrorChecker@OGL@AIF@@UAEXPBDIIPBM@Z" PURGE="16" COMMENT="" />
    <EXPORT ORDINAL="1508" NAME="?cgmFogfv@OpenGLRekorder@OGL@AIF@@UAEXPBDIIPBM@Z" PURGE="-1" COMMENT="" />
    <EXPORT ORDINAL="1509" NAME="?cgmFogfv@OpenGLTracer@OGL@AIF@@UAEXPBDIIPBM@Z" PURGE="16" COMMENT="" />
    <EXPORT ORDINAL="1510" NAME="?cgmFogi@OpenGLErrorChecker@OGL@AIF@@UAEXPBDIIH@Z" PURGE="16" COMMENT="" />
    <EXPORT ORDINAL="1511" NAME="?cgmFogi@OpenGLRekorder@OGL@AIF@@UAEXPBDIIH@Z" PURGE="16" COMMENT="" />
    <EXPORT ORDINAL="1512" NAME="?cgmFogi@OpenGLTracer@OGL@AIF@@UAEXPBDIIH@Z" PURGE="16" COMMENT="" />
    <EXPORT ORDINAL="1513" NAME="?cgmFogiv@OpenGLErrorChecker@OGL@AIF@@UAEXPBDIIPBH@Z" PURGE="16" COMMENT="" />
    <EXPORT ORDINAL="1514" NAME="?cgmFogiv@OpenGLRekorder@OGL@AIF@@UAEXPBDIIPBH@Z" PURGE="-1" COMMENT="" />
    <EXPORT ORDINAL="1515" NAME="?cgmFogiv@OpenGLTracer@OGL@AIF@@UAEXPBDIIPBH@Z" PURGE="16" COMMENT="" />
    <EXPORT ORDINAL="1516" NAME="?cgmFragmentColorMaterialEXT@OpenGLErrorChecker@OGL@AIF@@UAEXPBDIII@Z" PURGE="16" COMMENT="" />
    <EXPORT ORDINAL="1517" NAME="?cgmFragmentColorMaterialEXT@OpenGLRekorder@OGL@AIF@@UAEXPBDIII@Z" PURGE="16" COMMENT="" />
    <EXPORT ORDINAL="1518" NAME="?cgmFragmentColorMaterialEXT@OpenGLTracer@OGL@AIF@@UAEXPBDIII@Z" PURGE="16" COMMENT="" />
    <EXPORT ORDINAL="1519" NAME="?cgmFragmentColorMaterialSGIX@OpenGLErrorChecker@OGL@AIF@@UAEXPBDIII@Z" PURGE="16" COMMENT="" />
    <EXPORT ORDINAL="1520" NAME="?cgmFragmentColorMaterialSGIX@OpenGLRekorder@OGL@AIF@@UAEXPBDIII@Z" PURGE="16" COMMENT="" />
    <EXPORT ORDINAL="1521" NAME="?cgmFragmentColorMaterialSGIX@OpenGLTracer@OGL@AIF@@UAEXPBDIII@Z" PURGE="16" COMMENT="" />
    <EXPORT ORDINAL="1522" NAME="?cgmFragmentLightModelfEXT@OpenGLErrorChecker@OGL@AIF@@UAEXPBDIIM@Z" PURGE="16" COMMENT="" />
    <EXPORT ORDINAL="1523" NAME="?cgmFragmentLightModelfEXT@OpenGLRekorder@OGL@AIF@@UAEXPBDIIM@Z" PURGE="16" COMMENT="" />
    <EXPORT ORDINAL="1524" NAME="?cgmFragmentLightModelfEXT@OpenGLTracer@OGL@AIF@@UAEXPBDIIM@Z" PURGE="16" COMMENT="" />
    <EXPORT ORDINAL="1525" NAME="?cgmFragmentLightModelfSGIX@OpenGLErrorChecker@OGL@AIF@@UAEXPBDIIM@Z" PURGE="16" COMMENT="" />
    <EXPORT ORDINAL="1526" NAME="?cgmFragmentLightModelfSGIX@OpenGLRekorder@OGL@AIF@@UAEXPBDIIM@Z" PURGE="16" COMMENT="" />
    <EXPORT ORDINAL="1527" NAME="?cgmFragmentLightModelfSGIX@OpenGLTracer@OGL@AIF@@UAEXPBDIIM@Z" PURGE="16" COMMENT="" />
    <EXPORT ORDINAL="1528" NAME="?cgmFragmentLightModelfvEXT@OpenGLErrorChecker@OGL@AIF@@UAEXPBDIIPAM@Z" PURGE="16" COMMENT="" />
    <EXPORT ORDINAL="1529" NAME="?cgmFragmentLightModelfvEXT@OpenGLRekorder@OGL@AIF@@UAEXPBDIIPAM@Z" PURGE="-1" COMMENT="" />
    <EXPORT ORDINAL="1530" NAME="?cgmFragmentLightModelfvEXT@OpenGLTracer@OGL@AIF@@UAEXPBDIIPAM@Z" PURGE="16" COMMENT="" />
    <EXPORT ORDINAL="1531" NAME="?cgmFragmentLightModelfvSGIX@OpenGLErrorChecker@OGL@AIF@@UAEXPBDIIPAM@Z" PURGE="16" COMMENT="" />
    <EXPORT ORDINAL="1532" NAME="?cgmFragmentLightModelfvSGIX@OpenGLRekorder@OGL@AIF@@UAEXPBDIIPAM@Z" PURGE="-1" COMMENT="" />
    <EXPORT ORDINAL="1533" NAME="?cgmFragmentLightModelfvSGIX@OpenGLTracer@OGL@AIF@@UAEXPBDIIPAM@Z" PURGE="16" COMMENT="" />
    <EXPORT ORDINAL="1534" NAME="?cgmFragmentLightModeliEXT@OpenGLErrorChecker@OGL@AIF@@UAEXPBDIIH@Z" PURGE="16" COMMENT="" />
    <EXPORT ORDINAL="1535" NAME="?cgmFragmentLightModeliEXT@OpenGLRekorder@OGL@AIF@@UAEXPBDIIH@Z" PURGE="16" COMMENT="" />
    <EXPORT ORDINAL="1536" NAME="?cgmFragmentLightModeliEXT@OpenGLTracer@OGL@AIF@@UAEXPBDIIH@Z" PURGE="16" COMMENT="" />
    <EXPORT ORDINAL="1537" NAME="?cgmFragmentLightModeliSGIX@OpenGLErrorChecker@OGL@AIF@@UAEXPBDIIH@Z" PURGE="16" COMMENT="" />
    <EXPORT ORDINAL="1538" NAME="?cgmFragmentLightModeliSGIX@OpenGLRekorder@OGL@AIF@@UAEXPBDIIH@Z" PURGE="16" COMMENT="" />
    <EXPORT ORDINAL="1539" NAME="?cgmFragmentLightModeliSGIX@OpenGLTracer@OGL@AIF@@UAEXPBDIIH@Z" PURGE="16" COMMENT="" />
    <EXPORT ORDINAL="1540" NAME="?cgmFragmentLightModelivEXT@OpenGLErrorChecker@OGL@AIF@@UAEXPBDIIPAH@Z" PURGE="16" COMMENT="" />
    <EXPORT ORDINAL="1541" NAME="?cgmFragmentLightModelivEXT@OpenGLRekorder@OGL@AIF@@UAEXPBDIIPAH@Z" PURGE="-1" COMMENT="" />
    <EXPORT ORDINAL="1542" NAME="?cgmFragmentLightModelivEXT@OpenGLTracer@OGL@AIF@@UAEXPBDIIPAH@Z" PURGE="16" COMMENT="" />
    <EXPORT ORDINAL="1543" NAME="?cgmFragmentLightModelivSGIX@OpenGLErrorChecker@OGL@AIF@@UAEXPBDIIPAH@Z" PURGE="16" COMMENT="" />
    <EXPORT ORDINAL="1544" NAME="?cgmFragmentLightModelivSGIX@OpenGLRekorder@OGL@AIF@@UAEXPBDIIPAH@Z" PURGE="-1" COMMENT="" />
    <EXPORT ORDINAL="1545" NAME="?cgmFragmentLightModelivSGIX@OpenGLTracer@OGL@AIF@@UAEXPBDIIPAH@Z" PURGE="16" COMMENT="" />
    <EXPORT ORDINAL="1546" NAME="?cgmFragmentLightfEXT@OpenGLErrorChecker@OGL@AIF@@UAEXPBDIIIM@Z" PURGE="20" COMMENT="" />
    <EXPORT ORDINAL="1547" NAME="?cgmFragmentLightfEXT@OpenGLRekorder@OGL@AIF@@UAEXPBDIIIM@Z" PURGE="20" COMMENT="" />
    <EXPORT ORDINAL="1548" NAME="?cgmFragmentLightfEXT@OpenGLTracer@OGL@AIF@@UAEXPBDIIIM@Z" PURGE="20" COMMENT="" />
    <EXPORT ORDINAL="1549" NAME="?cgmFragmentLightfSGIX@OpenGLErrorChecker@OGL@AIF@@UAEXPBDIIIM@Z" PURGE="20" COMMENT="" />
    <EXPORT ORDINAL="1550" NAME="?cgmFragmentLightfSGIX@OpenGLRekorder@OGL@AIF@@UAEXPBDIIIM@Z" PURGE="20" COMMENT="" />
    <EXPORT ORDINAL="1551" NAME="?cgmFragmentLightfSGIX@OpenGLTracer@OGL@AIF@@UAEXPBDIIIM@Z" PURGE="20" COMMENT="" />
    <EXPORT ORDINAL="1552" NAME="?cgmFragmentLightfvEXT@OpenGLErrorChecker@OGL@AIF@@UAEXPBDIIIPAM@Z" PURGE="20" COMMENT="" />
    <EXPORT ORDINAL="1553" NAME="?cgmFragmentLightfvEXT@OpenGLRekorder@OGL@AIF@@UAEXPBDIIIPAM@Z" PURGE="-1" COMMENT="" />
    <EXPORT ORDINAL="1554" NAME="?cgmFragmentLightfvEXT@OpenGLTracer@OGL@AIF@@UAEXPBDIIIPAM@Z" PURGE="20" COMMENT="" />
    <EXPORT ORDINAL="1555" NAME="?cgmFragmentLightfvSGIX@OpenGLErrorChecker@OGL@AIF@@UAEXPBDIIIPAM@Z" PURGE="20" COMMENT="" />
    <EXPORT ORDINAL="1556" NAME="?cgmFragmentLightfvSGIX@OpenGLRekorder@OGL@AIF@@UAEXPBDIIIPAM@Z" PURGE="-1" COMMENT="" />
    <EXPORT ORDINAL="1557" NAME="?cgmFragmentLightfvSGIX@OpenGLTracer@OGL@AIF@@UAEXPBDIIIPAM@Z" PURGE="20" COMMENT="" />
    <EXPORT ORDINAL="1558" NAME="?cgmFragmentLightiEXT@OpenGLErrorChecker@OGL@AIF@@UAEXPBDIIIH@Z" PURGE="20" COMMENT="" />
    <EXPORT ORDINAL="1559" NAME="?cgmFragmentLightiEXT@OpenGLRekorder@OGL@AIF@@UAEXPBDIIIH@Z" PURGE="20" COMMENT="" />
    <EXPORT ORDINAL="1560" NAME="?cgmFragmentLightiEXT@OpenGLTracer@OGL@AIF@@UAEXPBDIIIH@Z" PURGE="20" COMMENT="" />
    <EXPORT ORDINAL="1561" NAME="?cgmFragmentLightiSGIX@OpenGLErrorChecker@OGL@AIF@@UAEXPBDIIIH@Z" PURGE="20" COMMENT="" />
    <EXPORT ORDINAL="1562" NAME="?cgmFragmentLightiSGIX@OpenGLRekorder@OGL@AIF@@UAEXPBDIIIH@Z" PURGE="20" COMMENT="" />
    <EXPORT ORDINAL="1563" NAME="?cgmFragmentLightiSGIX@OpenGLTracer@OGL@AIF@@UAEXPBDIIIH@Z" PURGE="20" COMMENT="" />
    <EXPORT ORDINAL="1564" NAME="?cgmFragmentLightivEXT@OpenGLErrorChecker@OGL@AIF@@UAEXPBDIIIPAH@Z" PURGE="20" COMMENT="" />
    <EXPORT ORDINAL="1565" NAME="?cgmFragmentLightivEXT@OpenGLRekorder@OGL@AIF@@UAEXPBDIIIPAH@Z" PURGE="-1" COMMENT="" />
    <EXPORT ORDINAL="1566" NAME="?cgmFragmentLightivEXT@OpenGLTracer@OGL@AIF@@UAEXPBDIIIPAH@Z" PURGE="20" COMMENT="" />
    <EXPORT ORDINAL="1567" NAME="?cgmFragmentLightivSGIX@OpenGLErrorChecker@OGL@AIF@@UAEXPBDIIIPAH@Z" PURGE="20" COMMENT="" />
    <EXPORT ORDINAL="1568" NAME="?cgmFragmentLightivSGIX@OpenGLRekorder@OGL@AIF@@UAEXPBDIIIPAH@Z" PURGE="-1" COMMENT="" />
    <EXPORT ORDINAL="1569" NAME="?cgmFragmentLightivSGIX@OpenGLTracer@OGL@AIF@@UAEXPBDIIIPAH@Z" PURGE="20" COMMENT="" />
    <EXPORT ORDINAL="1570" NAME="?cgmFragmentMaterialfEXT@OpenGLErrorChecker@OGL@AIF@@UAEXPBDIIIM@Z" PURGE="20" COMMENT="" />
    <EXPORT ORDINAL="1571" NAME="?cgmFragmentMaterialfEXT@OpenGLRekorder@OGL@AIF@@UAEXPBDIIIM@Z" PURGE="20" COMMENT="" />
    <EXPORT ORDINAL="1572" NAME="?cgmFragmentMaterialfEXT@OpenGLTracer@OGL@AIF@@UAEXPBDIIIM@Z" PURGE="20" COMMENT="" />
    <EXPORT ORDINAL="1573" NAME="?cgmFragmentMaterialfSGIX@OpenGLErrorChecker@OGL@AIF@@UAEXPBDIIIM@Z" PURGE="20" COMMENT="" />
    <EXPORT ORDINAL="1574" NAME="?cgmFragmentMaterialfSGIX@OpenGLRekorder@OGL@AIF@@UAEXPBDIIIM@Z" PURGE="20" COMMENT="" />
    <EXPORT ORDINAL="1575" NAME="?cgmFragmentMaterialfSGIX@OpenGLTracer@OGL@AIF@@UAEXPBDIIIM@Z" PURGE="20" COMMENT="" />
    <EXPORT ORDINAL="1576" NAME="?cgmFragmentMaterialfvEXT@OpenGLErrorChecker@OGL@AIF@@UAEXPBDIIIPBM@Z" PURGE="20" COMMENT="" />
    <EXPORT ORDINAL="1577" NAME="?cgmFragmentMaterialfvEXT@OpenGLRekorder@OGL@AIF@@UAEXPBDIIIPBM@Z" PURGE="-1" COMMENT="" />
    <EXPORT ORDINAL="1578" NAME="?cgmFragmentMaterialfvEXT@OpenGLTracer@OGL@AIF@@UAEXPBDIIIPBM@Z" PURGE="20" COMMENT="" />
    <EXPORT ORDINAL="1579" NAME="?cgmFragmentMaterialfvSGIX@OpenGLErrorChecker@OGL@AIF@@UAEXPBDIIIPBM@Z" PURGE="20" COMMENT="" />
    <EXPORT ORDINAL="1580" NAME="?cgmFragmentMaterialfvSGIX@OpenGLRekorder@OGL@AIF@@UAEXPBDIIIPBM@Z" PURGE="-1" COMMENT="" />
    <EXPORT ORDINAL="1581" NAME="?cgmFragmentMaterialfvSGIX@OpenGLTracer@OGL@AIF@@UAEXPBDIIIPBM@Z" PURGE="20" COMMENT="" />
    <EXPORT ORDINAL="1582" NAME="?cgmFragmentMaterialiEXT@OpenGLErrorChecker@OGL@AIF@@UAEXPBDIIIH@Z" PURGE="20" COMMENT="" />
    <EXPORT ORDINAL="1583" NAME="?cgmFragmentMaterialiEXT@OpenGLRekorder@OGL@AIF@@UAEXPBDIIIH@Z" PURGE="20" COMMENT="" />
    <EXPORT ORDINAL="1584" NAME="?cgmFragmentMaterialiEXT@OpenGLTracer@OGL@AIF@@UAEXPBDIIIH@Z" PURGE="20" COMMENT="" />
    <EXPORT ORDINAL="1585" NAME="?cgmFragmentMaterialiSGIX@OpenGLErrorChecker@OGL@AIF@@UAEXPBDIIIH@Z" PURGE="20" COMMENT="" />
    <EXPORT ORDINAL="1586" NAME="?cgmFragmentMaterialiSGIX@OpenGLRekorder@OGL@AIF@@UAEXPBDIIIH@Z" PURGE="20" COMMENT="" />
    <EXPORT ORDINAL="1587" NAME="?cgmFragmentMaterialiSGIX@OpenGLTracer@OGL@AIF@@UAEXPBDIIIH@Z" PURGE="20" COMMENT="" />
    <EXPORT ORDINAL="1588" NAME="?cgmFragmentMaterialivEXT@OpenGLErrorChecker@OGL@AIF@@UAEXPBDIIIPBH@Z" PURGE="20" COMMENT="" />
    <EXPORT ORDINAL="1589" NAME="?cgmFragmentMaterialivEXT@OpenGLRekorder@OGL@AIF@@UAEXPBDIIIPBH@Z" PURGE="-1" COMMENT="" />
    <EXPORT ORDINAL="1590" NAME="?cgmFragmentMaterialivEXT@OpenGLTracer@OGL@AIF@@UAEXPBDIIIPBH@Z" PURGE="20" COMMENT="" />
    <EXPORT ORDINAL="1591" NAME="?cgmFragmentMaterialivSGIX@OpenGLErrorChecker@OGL@AIF@@UAEXPBDIIIPBH@Z" PURGE="20" COMMENT="" />
    <EXPORT ORDINAL="1592" NAME="?cgmFragmentMaterialivSGIX@OpenGLRekorder@OGL@AIF@@UAEXPBDIIIPBH@Z" PURGE="-1" COMMENT="" />
    <EXPORT ORDINAL="1593" NAME="?cgmFragmentMaterialivSGIX@OpenGLTracer@OGL@AIF@@UAEXPBDIIIPBH@Z" PURGE="20" COMMENT="" />
    <EXPORT ORDINAL="1594" NAME="?cgmFrameTerminatorGREMEDY@OpenGLErrorChecker@OGL@AIF@@UAEXPBDI@Z" PURGE="8" COMMENT="" />
    <EXPORT ORDINAL="1595" NAME="?cgmFrameTerminatorGREMEDY@OpenGLRekorder@OGL@AIF@@UAEXPBDI@Z" PURGE="8" COMMENT="" />
    <EXPORT ORDINAL="1596" NAME="?cgmFrameTerminatorGREMEDY@OpenGLTracer@OGL@AIF@@UAEXPBDI@Z" PURGE="8" COMMENT="" />
    <EXPORT ORDINAL="1597" NAME="?cgmFrameZoomSGIX@OpenGLErrorChecker@OGL@AIF@@UAEXPBDIH@Z" PURGE="12" COMMENT="" />
    <EXPORT ORDINAL="1598" NAME="?cgmFrameZoomSGIX@OpenGLRekorder@OGL@AIF@@UAEXPBDIH@Z" PURGE="12" COMMENT="" />
    <EXPORT ORDINAL="1599" NAME="?cgmFrameZoomSGIX@OpenGLTracer@OGL@AIF@@UAEXPBDIH@Z" PURGE="12" COMMENT="" />
    <EXPORT ORDINAL="1600" NAME="?cgmFramebufferDrawBufferEXT@OpenGLErrorChecker@OGL@AIF@@UAEXPBDIII@Z" PURGE="16" COMMENT="" />
    <EXPORT ORDINAL="1601" NAME="?cgmFramebufferDrawBufferEXT@OpenGLRekorder@OGL@AIF@@UAEXPBDIII@Z" PURGE="16" COMMENT="" />
    <EXPORT ORDINAL="1602" NAME="?cgmFramebufferDrawBufferEXT@OpenGLTracer@OGL@AIF@@UAEXPBDIII@Z" PURGE="16" COMMENT="" />
    <EXPORT ORDINAL="1603" NAME="?cgmFramebufferDrawBuffersEXT@OpenGLErrorChecker@OGL@AIF@@UAEXPBDIIHPBI@Z" PURGE="20" COMMENT="" />
    <EXPORT ORDINAL="1604" NAME="?cgmFramebufferDrawBuffersEXT@OpenGLRekorder@OGL@AIF@@UAEXPBDIIHPBI@Z" PURGE="-1" COMMENT="" />
    <EXPORT ORDINAL="1605" NAME="?cgmFramebufferDrawBuffersEXT@OpenGLTracer@OGL@AIF@@UAEXPBDIIHPBI@Z" PURGE="20" COMMENT="" />
    <EXPORT ORDINAL="1606" NAME="?cgmFramebufferReadBufferEXT@OpenGLErrorChecker@OGL@AIF@@UAEXPBDIII@Z" PURGE="16" COMMENT="" />
    <EXPORT ORDINAL="1607" NAME="?cgmFramebufferReadBufferEXT@OpenGLRekorder@OGL@AIF@@UAEXPBDIII@Z" PURGE="16" COMMENT="" />
    <EXPORT ORDINAL="1608" NAME="?cgmFramebufferReadBufferEXT@OpenGLTracer@OGL@AIF@@UAEXPBDIII@Z" PURGE="16" COMMENT="" />
    <EXPORT ORDINAL="1609" NAME="?cgmFramebufferRenderbuffer@OpenGLErrorChecker@OGL@AIF@@UAEXPBDIIIII@Z" PURGE="24" COMMENT="" />
    <EXPORT ORDINAL="1610" NAME="?cgmFramebufferRenderbuffer@OpenGLRekorder@OGL@AIF@@UAEXPBDIIIII@Z" PURGE="24" COMMENT="" />
    <EXPORT ORDINAL="1611" NAME="?cgmFramebufferRenderbuffer@OpenGLTracer@OGL@AIF@@UAEXPBDIIIII@Z" PURGE="24" COMMENT="" />
    <EXPORT ORDINAL="1612" NAME="?cgmFramebufferRenderbufferEXT@OpenGLErrorChecker@OGL@AIF@@UAEXPBDIIIII@Z" PURGE="24" COMMENT="" />
    <EXPORT ORDINAL="1613" NAME="?cgmFramebufferRenderbufferEXT@OpenGLRekorder@OGL@AIF@@UAEXPBDIIIII@Z" PURGE="24" COMMENT="" />
    <EXPORT ORDINAL="1614" NAME="?cgmFramebufferRenderbufferEXT@OpenGLTracer@OGL@AIF@@UAEXPBDIIIII@Z" PURGE="24" COMMENT="" />
    <EXPORT ORDINAL="1615" NAME="?cgmFramebufferTexture1D@OpenGLErrorChecker@OGL@AIF@@UAEXPBDIIIIIH@Z" PURGE="28" COMMENT="" />
    <EXPORT ORDINAL="1616" NAME="?cgmFramebufferTexture1D@OpenGLRekorder@OGL@AIF@@UAEXPBDIIIIIH@Z" PURGE="28" COMMENT="" />
    <EXPORT ORDINAL="1617" NAME="?cgmFramebufferTexture1D@OpenGLTracer@OGL@AIF@@UAEXPBDIIIIIH@Z" PURGE="28" COMMENT="" />
    <EXPORT ORDINAL="1618" NAME="?cgmFramebufferTexture1DEXT@OpenGLErrorChecker@OGL@AIF@@UAEXPBDIIIIIH@Z" PURGE="28" COMMENT="" />
    <EXPORT ORDINAL="1619" NAME="?cgmFramebufferTexture1DEXT@OpenGLRekorder@OGL@AIF@@UAEXPBDIIIIIH@Z" PURGE="28" COMMENT="" />
    <EXPORT ORDINAL="1620" NAME="?cgmFramebufferTexture1DEXT@OpenGLTracer@OGL@AIF@@UAEXPBDIIIIIH@Z" PURGE="28" COMMENT="" />
    <EXPORT ORDINAL="1621" NAME="?cgmFramebufferTexture2D@OpenGLErrorChecker@OGL@AIF@@UAEXPBDIIIIIH@Z" PURGE="28" COMMENT="" />
    <EXPORT ORDINAL="1622" NAME="?cgmFramebufferTexture2D@OpenGLRekorder@OGL@AIF@@UAEXPBDIIIIIH@Z" PURGE="28" COMMENT="" />
    <EXPORT ORDINAL="1623" NAME="?cgmFramebufferTexture2D@OpenGLTracer@OGL@AIF@@UAEXPBDIIIIIH@Z" PURGE="28" COMMENT="" />
    <EXPORT ORDINAL="1624" NAME="?cgmFramebufferTexture2DEXT@OpenGLErrorChecker@OGL@AIF@@UAEXPBDIIIIIH@Z" PURGE="28" COMMENT="" />
    <EXPORT ORDINAL="1625" NAME="?cgmFramebufferTexture2DEXT@OpenGLRekorder@OGL@AIF@@UAEXPBDIIIIIH@Z" PURGE="28" COMMENT="" />
    <EXPORT ORDINAL="1626" NAME="?cgmFramebufferTexture2DEXT@OpenGLTracer@OGL@AIF@@UAEXPBDIIIIIH@Z" PURGE="28" COMMENT="" />
    <EXPORT ORDINAL="1627" NAME="?cgmFramebufferTexture3D@OpenGLErrorChecker@OGL@AIF@@UAEXPBDIIIIIHH@Z" PURGE="32" COMMENT="" />
    <EXPORT ORDINAL="1628" NAME="?cgmFramebufferTexture3D@OpenGLRekorder@OGL@AIF@@UAEXPBDIIIIIHH@Z" PURGE="32" COMMENT="" />
    <EXPORT ORDINAL="1629" NAME="?cgmFramebufferTexture3D@OpenGLTracer@OGL@AIF@@UAEXPBDIIIIIHH@Z" PURGE="32" COMMENT="" />
    <EXPORT ORDINAL="1630" NAME="?cgmFramebufferTexture3DEXT@OpenGLErrorChecker@OGL@AIF@@UAEXPBDIIIIIHH@Z" PURGE="32" COMMENT="" />
    <EXPORT ORDINAL="1631" NAME="?cgmFramebufferTexture3DEXT@OpenGLRekorder@OGL@AIF@@UAEXPBDIIIIIHH@Z" PURGE="32" COMMENT="" />
    <EXPORT ORDINAL="1632" NAME="?cgmFramebufferTexture3DEXT@OpenGLTracer@OGL@AIF@@UAEXPBDIIIIIHH@Z" PURGE="32" COMMENT="" />
    <EXPORT ORDINAL="1633" NAME="?cgmFramebufferTextureARB@OpenGLErrorChecker@OGL@AIF@@UAEXPBDIIIIH@Z" PURGE="24" COMMENT="" />
    <EXPORT ORDINAL="1634" NAME="?cgmFramebufferTextureARB@OpenGLRekorder@OGL@AIF@@UAEXPBDIIIIH@Z" PURGE="24" COMMENT="" />
    <EXPORT ORDINAL="1635" NAME="?cgmFramebufferTextureARB@OpenGLTracer@OGL@AIF@@UAEXPBDIIIIH@Z" PURGE="24" COMMENT="" />
    <EXPORT ORDINAL="1636" NAME="?cgmFramebufferTextureEXT@OpenGLErrorChecker@OGL@AIF@@UAEXPBDIIIIH@Z" PURGE="24" COMMENT="" />
    <EXPORT ORDINAL="1637" NAME="?cgmFramebufferTextureEXT@OpenGLRekorder@OGL@AIF@@UAEXPBDIIIIH@Z" PURGE="24" COMMENT="" />
    <EXPORT ORDINAL="1638" NAME="?cgmFramebufferTextureEXT@OpenGLTracer@OGL@AIF@@UAEXPBDIIIIH@Z" PURGE="24" COMMENT="" />
    <EXPORT ORDINAL="1639" NAME="?cgmFramebufferTextureFaceARB@OpenGLErrorChecker@OGL@AIF@@UAEXPBDIIIIHI@Z" PURGE="28" COMMENT="" />
    <EXPORT ORDINAL="1640" NAME="?cgmFramebufferTextureFaceARB@OpenGLRekorder@OGL@AIF@@UAEXPBDIIIIHI@Z" PURGE="28" COMMENT="" />
    <EXPORT ORDINAL="1641" NAME="?cgmFramebufferTextureFaceARB@OpenGLTracer@OGL@AIF@@UAEXPBDIIIIHI@Z" PURGE="28" COMMENT="" />
    <EXPORT ORDINAL="1642" NAME="?cgmFramebufferTextureFaceEXT@OpenGLErrorChecker@OGL@AIF@@UAEXPBDIIIIHI@Z" PURGE="28" COMMENT="" />
    <EXPORT ORDINAL="1643" NAME="?cgmFramebufferTextureFaceEXT@OpenGLRekorder@OGL@AIF@@UAEXPBDIIIIHI@Z" PURGE="28" COMMENT="" />
    <EXPORT ORDINAL="1644" NAME="?cgmFramebufferTextureFaceEXT@OpenGLTracer@OGL@AIF@@UAEXPBDIIIIHI@Z" PURGE="28" COMMENT="" />
    <EXPORT ORDINAL="1645" NAME="?cgmFramebufferTextureLayer@OpenGLErrorChecker@OGL@AIF@@UAEXPBDIIIIHH@Z" PURGE="28" COMMENT="" />
    <EXPORT ORDINAL="1646" NAME="?cgmFramebufferTextureLayer@OpenGLRekorder@OGL@AIF@@UAEXPBDIIIIHH@Z" PURGE="28" COMMENT="" />
    <EXPORT ORDINAL="1647" NAME="?cgmFramebufferTextureLayer@OpenGLTracer@OGL@AIF@@UAEXPBDIIIIHH@Z" PURGE="28" COMMENT="" />
    <EXPORT ORDINAL="1648" NAME="?cgmFramebufferTextureLayerARB@OpenGLErrorChecker@OGL@AIF@@UAEXPBDIIIIHH@Z" PURGE="28" COMMENT="" />
    <EXPORT ORDINAL="1649" NAME="?cgmFramebufferTextureLayerARB@OpenGLRekorder@OGL@AIF@@UAEXPBDIIIIHH@Z" PURGE="28" COMMENT="" />
    <EXPORT ORDINAL="1650" NAME="?cgmFramebufferTextureLayerARB@OpenGLTracer@OGL@AIF@@UAEXPBDIIIIHH@Z" PURGE="28" COMMENT="" />
    <EXPORT ORDINAL="1651" NAME="?cgmFramebufferTextureLayerEXT@OpenGLErrorChecker@OGL@AIF@@UAEXPBDIIIIHH@Z" PURGE="28" COMMENT="" />
    <EXPORT ORDINAL="1652" NAME="?cgmFramebufferTextureLayerEXT@OpenGLRekorder@OGL@AIF@@UAEXPBDIIIIHH@Z" PURGE="28" COMMENT="" />
    <EXPORT ORDINAL="1653" NAME="?cgmFramebufferTextureLayerEXT@OpenGLTracer@OGL@AIF@@UAEXPBDIIIIHH@Z" PURGE="28" COMMENT="" />
    <EXPORT ORDINAL="1654" NAME="?cgmFreeObjectBufferATI@OpenGLErrorChecker@OGL@AIF@@UAEXPBDII@Z" PURGE="12" COMMENT="" />
    <EXPORT ORDINAL="1655" NAME="?cgmFreeObjectBufferATI@OpenGLRekorder@OGL@AIF@@UAEXPBDII@Z" PURGE="12" COMMENT="" />
    <EXPORT ORDINAL="1656" NAME="?cgmFreeObjectBufferATI@OpenGLTracer@OGL@AIF@@UAEXPBDII@Z" PURGE="12" COMMENT="" />
    <EXPORT ORDINAL="1657" NAME="?cgmFrontFace@OpenGLErrorChecker@OGL@AIF@@UAEXPBDII@Z" PURGE="12" COMMENT="" />
    <EXPORT ORDINAL="1658" NAME="?cgmFrontFace@OpenGLRekorder@OGL@AIF@@UAEXPBDII@Z" PURGE="12" COMMENT="" />
    <EXPORT ORDINAL="1659" NAME="?cgmFrontFace@OpenGLTracer@OGL@AIF@@UAEXPBDII@Z" PURGE="12" COMMENT="" />
    <EXPORT ORDINAL="1660" NAME="?cgmFrustum@OpenGLErrorChecker@OGL@AIF@@UAEXPBDINNNNNN@Z" PURGE="56" COMMENT="" />
    <EXPORT ORDINAL="1661" NAME="?cgmFrustum@OpenGLRekorder@OGL@AIF@@UAEXPBDINNNNNN@Z" PURGE="56" COMMENT="" />
    <EXPORT ORDINAL="1662" NAME="?cgmFrustum@OpenGLTracer@OGL@AIF@@UAEXPBDINNNNNN@Z" PURGE="56" COMMENT="" />
    <EXPORT ORDINAL="1663" NAME="?cgmFrustumfOES@OpenGLErrorChecker@OGL@AIF@@UAEXPBDIMMMMMM@Z" PURGE="32" COMMENT="" />
    <EXPORT ORDINAL="1664" NAME="?cgmFrustumfOES@OpenGLRekorder@OGL@AIF@@UAEXPBDIMMMMMM@Z" PURGE="32" COMMENT="" />
    <EXPORT ORDINAL="1665" NAME="?cgmFrustumfOES@OpenGLTracer@OGL@AIF@@UAEXPBDIMMMMMM@Z" PURGE="32" COMMENT="" />
    <EXPORT ORDINAL="1666" NAME="?cgmGenAsyncMarkersSGIX@OpenGLErrorChecker@OGL@AIF@@UAEIPBDIH@Z" PURGE="12" COMMENT="" />
    <EXPORT ORDINAL="1667" NAME="?cgmGenAsyncMarkersSGIX@OpenGLRekorder@OGL@AIF@@UAEIPBDIH@Z" PURGE="12" COMMENT="" />
    <EXPORT ORDINAL="1668" NAME="?cgmGenAsyncMarkersSGIX@OpenGLTracer@OGL@AIF@@UAEIPBDIH@Z" PURGE="12" COMMENT="" />
    <EXPORT ORDINAL="1669" NAME="?cgmGenBuffers@OpenGLErrorChecker@OGL@AIF@@UAEXPBDIHPAI@Z" PURGE="16" COMMENT="" />
    <EXPORT ORDINAL="1670" NAME="?cgmGenBuffers@OpenGLRekorder@OGL@AIF@@UAEXPBDIHPAI@Z" PURGE="-1" COMMENT="" />
    <EXPORT ORDINAL="1671" NAME="?cgmGenBuffers@OpenGLTracer@OGL@AIF@@UAEXPBDIHPAI@Z" PURGE="16" COMMENT="" />
    <EXPORT ORDINAL="1672" NAME="?cgmGenBuffersARB@OpenGLErrorChecker@OGL@AIF@@UAEXPBDIHPAI@Z" PURGE="16" COMMENT="" />
    <EXPORT ORDINAL="1673" NAME="?cgmGenBuffersARB@OpenGLRekorder@OGL@AIF@@UAEXPBDIHPAI@Z" PURGE="-1" COMMENT="" />
    <EXPORT ORDINAL="1674" NAME="?cgmGenBuffersARB@OpenGLTracer@OGL@AIF@@UAEXPBDIHPAI@Z" PURGE="16" COMMENT="" />
    <EXPORT ORDINAL="1675" NAME="?cgmGenFencesAPPLE@OpenGLErrorChecker@OGL@AIF@@UAEXPBDIHPAI@Z" PURGE="16" COMMENT="" />
    <EXPORT ORDINAL="1676" NAME="?cgmGenFencesAPPLE@OpenGLRekorder@OGL@AIF@@UAEXPBDIHPAI@Z" PURGE="-1" COMMENT="" />
    <EXPORT ORDINAL="1677" NAME="?cgmGenFencesAPPLE@OpenGLTracer@OGL@AIF@@UAEXPBDIHPAI@Z" PURGE="16" COMMENT="" />
    <EXPORT ORDINAL="1678" NAME="?cgmGenFencesNV@OpenGLErrorChecker@OGL@AIF@@UAEXPBDIHPAI@Z" PURGE="16" COMMENT="" />
    <EXPORT ORDINAL="1679" NAME="?cgmGenFencesNV@OpenGLRekorder@OGL@AIF@@UAEXPBDIHPAI@Z" PURGE="-1" COMMENT="" />
    <EXPORT ORDINAL="1680" NAME="?cgmGenFencesNV@OpenGLTracer@OGL@AIF@@UAEXPBDIHPAI@Z" PURGE="16" COMMENT="" />
    <EXPORT ORDINAL="1681" NAME="?cgmGenFragmentShadersATI@OpenGLErrorChecker@OGL@AIF@@UAEIPBDII@Z" PURGE="12" COMMENT="" />
    <EXPORT ORDINAL="1682" NAME="?cgmGenFragmentShadersATI@OpenGLRekorder@OGL@AIF@@UAEIPBDII@Z" PURGE="12" COMMENT="" />
    <EXPORT ORDINAL="1683" NAME="?cgmGenFragmentShadersATI@OpenGLTracer@OGL@AIF@@UAEIPBDII@Z" PURGE="12" COMMENT="" />
    <EXPORT ORDINAL="1684" NAME="?cgmGenFramebuffers@OpenGLErrorChecker@OGL@AIF@@UAEXPBDIHPAI@Z" PURGE="16" COMMENT="" />
    <EXPORT ORDINAL="1685" NAME="?cgmGenFramebuffers@OpenGLRekorder@OGL@AIF@@UAEXPBDIHPAI@Z" PURGE="-1" COMMENT="" />
    <EXPORT ORDINAL="1686" NAME="?cgmGenFramebuffers@OpenGLTracer@OGL@AIF@@UAEXPBDIHPAI@Z" PURGE="16" COMMENT="" />
    <EXPORT ORDINAL="1687" NAME="?cgmGenFramebuffersEXT@OpenGLErrorChecker@OGL@AIF@@UAEXPBDIHPAI@Z" PURGE="16" COMMENT="" />
    <EXPORT ORDINAL="1688" NAME="?cgmGenFramebuffersEXT@OpenGLRekorder@OGL@AIF@@UAEXPBDIHPAI@Z" PURGE="16" COMMENT="" />
    <EXPORT ORDINAL="1689" NAME="?cgmGenFramebuffersEXT@OpenGLTracer@OGL@AIF@@UAEXPBDIHPAI@Z" PURGE="16" COMMENT="" />
    <EXPORT ORDINAL="1690" NAME="?cgmGenLists@OpenGLErrorChecker@OGL@AIF@@UAEIPBDIH@Z" PURGE="12" COMMENT="" />
    <EXPORT ORDINAL="1691" NAME="?cgmGenLists@OpenGLRekorder@OGL@AIF@@UAEIPBDIH@Z" PURGE="12" COMMENT="" />
    <EXPORT ORDINAL="1692" NAME="?cgmGenLists@OpenGLTracer@OGL@AIF@@UAEIPBDIH@Z" PURGE="12" COMMENT="" />
    <EXPORT ORDINAL="1693" NAME="?cgmGenOcclusionQueriesNV@OpenGLErrorChecker@OGL@AIF@@UAEXPBDIHPAI@Z" PURGE="16" COMMENT="" />
    <EXPORT ORDINAL="1694" NAME="?cgmGenOcclusionQueriesNV@OpenGLRekorder@OGL@AIF@@UAEXPBDIHPAI@Z" PURGE="-1" COMMENT="" />
    <EXPORT ORDINAL="1695" NAME="?cgmGenOcclusionQueriesNV@OpenGLTracer@OGL@AIF@@UAEXPBDIHPAI@Z" PURGE="16" COMMENT="" />
    <EXPORT ORDINAL="1696" NAME="?cgmGenProgramsARB@OpenGLErrorChecker@OGL@AIF@@UAEXPBDIHPAI@Z" PURGE="16" COMMENT="" />
    <EXPORT ORDINAL="1697" NAME="?cgmGenProgramsARB@OpenGLRekorder@OGL@AIF@@UAEXPBDIHPAI@Z" PURGE="-1" COMMENT="" />
    <EXPORT ORDINAL="1698" NAME="?cgmGenProgramsARB@OpenGLTracer@OGL@AIF@@UAEXPBDIHPAI@Z" PURGE="16" COMMENT="" />
    <EXPORT ORDINAL="1699" NAME="?cgmGenProgramsNV@OpenGLErrorChecker@OGL@AIF@@UAEXPBDIHPAI@Z" PURGE="16" COMMENT="" />
    <EXPORT ORDINAL="1700" NAME="?cgmGenProgramsNV@OpenGLRekorder@OGL@AIF@@UAEXPBDIHPAI@Z" PURGE="-1" COMMENT="" />
    <EXPORT ORDINAL="1701" NAME="?cgmGenProgramsNV@OpenGLTracer@OGL@AIF@@UAEXPBDIHPAI@Z" PURGE="16" COMMENT="" />
    <EXPORT ORDINAL="1702" NAME="?cgmGenQueries@OpenGLErrorChecker@OGL@AIF@@UAEXPBDIHPAI@Z" PURGE="16" COMMENT="" />
    <EXPORT ORDINAL="1703" NAME="?cgmGenQueries@OpenGLRekorder@OGL@AIF@@UAEXPBDIHPAI@Z" PURGE="16" COMMENT="" />
    <EXPORT ORDINAL="1704" NAME="?cgmGenQueries@OpenGLTracer@OGL@AIF@@UAEXPBDIHPAI@Z" PURGE="16" COMMENT="" />
    <EXPORT ORDINAL="1705" NAME="?cgmGenQueriesARB@OpenGLErrorChecker@OGL@AIF@@UAEXPBDIHPAI@Z" PURGE="16" COMMENT="" />
    <EXPORT ORDINAL="1706" NAME="?cgmGenQueriesARB@OpenGLRekorder@OGL@AIF@@UAEXPBDIHPAI@Z" PURGE="-1" COMMENT="" />
    <EXPORT ORDINAL="1707" NAME="?cgmGenQueriesARB@OpenGLTracer@OGL@AIF@@UAEXPBDIHPAI@Z" PURGE="16" COMMENT="" />
    <EXPORT ORDINAL="1708" NAME="?cgmGenRenderbuffers@OpenGLErrorChecker@OGL@AIF@@UAEXPBDIHPAI@Z" PURGE="16" COMMENT="" />
    <EXPORT ORDINAL="1709" NAME="?cgmGenRenderbuffers@OpenGLRekorder@OGL@AIF@@UAEXPBDIHPAI@Z" PURGE="-1" COMMENT="" />
    <EXPORT ORDINAL="1710" NAME="?cgmGenRenderbuffers@OpenGLTracer@OGL@AIF@@UAEXPBDIHPAI@Z" PURGE="16" COMMENT="" />
    <EXPORT ORDINAL="1711" NAME="?cgmGenRenderbuffersEXT@OpenGLErrorChecker@OGL@AIF@@UAEXPBDIHPAI@Z" PURGE="16" COMMENT="" />
    <EXPORT ORDINAL="1712" NAME="?cgmGenRenderbuffersEXT@OpenGLRekorder@OGL@AIF@@UAEXPBDIHPAI@Z" PURGE="-1" COMMENT="" />
    <EXPORT ORDINAL="1713" NAME="?cgmGenRenderbuffersEXT@OpenGLTracer@OGL@AIF@@UAEXPBDIHPAI@Z" PURGE="16" COMMENT="" />
    <EXPORT ORDINAL="1714" NAME="?cgmGenSymbolsEXT@OpenGLErrorChecker@OGL@AIF@@UAEIPBDIIIII@Z" PURGE="24" COMMENT="" />
    <EXPORT ORDINAL="1715" NAME="?cgmGenSymbolsEXT@OpenGLRekorder@OGL@AIF@@UAEIPBDIIIII@Z" PURGE="24" COMMENT="" />
    <EXPORT ORDINAL="1716" NAME="?cgmGenSymbolsEXT@OpenGLTracer@OGL@AIF@@UAEIPBDIIIII@Z" PURGE="24" COMMENT="" />
    <EXPORT ORDINAL="1717" NAME="?cgmGenTextures@OpenGLErrorChecker@OGL@AIF@@UAEXPBDIHPAI@Z" PURGE="16" COMMENT="" />
    <EXPORT ORDINAL="1718" NAME="?cgmGenTextures@OpenGLRekorder@OGL@AIF@@UAEXPBDIHPAI@Z" PURGE="16" COMMENT="" />
    <EXPORT ORDINAL="1719" NAME="?cgmGenTextures@OpenGLTracer@OGL@AIF@@UAEXPBDIHPAI@Z" PURGE="16" COMMENT="" />
    <EXPORT ORDINAL="1720" NAME="?cgmGenTexturesEXT@OpenGLErrorChecker@OGL@AIF@@UAEXPBDIHPAI@Z" PURGE="16" COMMENT="" />
    <EXPORT ORDINAL="1721" NAME="?cgmGenTexturesEXT@OpenGLRekorder@OGL@AIF@@UAEXPBDIHPAI@Z" PURGE="-1" COMMENT="" />
    <EXPORT ORDINAL="1722" NAME="?cgmGenTexturesEXT@OpenGLTracer@OGL@AIF@@UAEXPBDIHPAI@Z" PURGE="16" COMMENT="" />
    <EXPORT ORDINAL="1723" NAME="?cgmGenVertexArrays@OpenGLErrorChecker@OGL@AIF@@UAEXPBDIHPAI@Z" PURGE="16" COMMENT="" />
    <EXPORT ORDINAL="1724" NAME="?cgmGenVertexArrays@OpenGLRekorder@OGL@AIF@@UAEXPBDIHPAI@Z" PURGE="-1" COMMENT="" />
    <EXPORT ORDINAL="1725" NAME="?cgmGenVertexArrays@OpenGLTracer@OGL@AIF@@UAEXPBDIHPAI@Z" PURGE="16" COMMENT="" />
    <EXPORT ORDINAL="1726" NAME="?cgmGenVertexArraysAPPLE@OpenGLErrorChecker@OGL@AIF@@UAEXPBDIHPBI@Z" PURGE="16" COMMENT="" />
    <EXPORT ORDINAL="1727" NAME="?cgmGenVertexArraysAPPLE@OpenGLRekorder@OGL@AIF@@UAEXPBDIHPBI@Z" PURGE="-1" COMMENT="" />
    <EXPORT ORDINAL="1728" NAME="?cgmGenVertexArraysAPPLE@OpenGLTracer@OGL@AIF@@UAEXPBDIHPBI@Z" PURGE="16" COMMENT="" />
    <EXPORT ORDINAL="1729" NAME="?cgmGenVertexShadersEXT@OpenGLErrorChecker@OGL@AIF@@UAEIPBDII@Z" PURGE="12" COMMENT="" />
    <EXPORT ORDINAL="1730" NAME="?cgmGenVertexShadersEXT@OpenGLRekorder@OGL@AIF@@UAEIPBDII@Z" PURGE="12" COMMENT="" />
    <EXPORT ORDINAL="1731" NAME="?cgmGenVertexShadersEXT@OpenGLTracer@OGL@AIF@@UAEIPBDII@Z" PURGE="12" COMMENT="" />
    <EXPORT ORDINAL="1732" NAME="?cgmGenerateMipmap@OpenGLErrorChecker@OGL@AIF@@UAEXPBDII@Z" PURGE="12" COMMENT="" />
    <EXPORT ORDINAL="1733" NAME="?cgmGenerateMipmap@OpenGLRekorder@OGL@AIF@@UAEXPBDII@Z" PURGE="12" COMMENT="" />
    <EXPORT ORDINAL="1734" NAME="?cgmGenerateMipmap@OpenGLTracer@OGL@AIF@@UAEXPBDII@Z" PURGE="12" COMMENT="" />
    <EXPORT ORDINAL="1735" NAME="?cgmGenerateMipmapEXT@OpenGLErrorChecker@OGL@AIF@@UAEXPBDII@Z" PURGE="12" COMMENT="" />
    <EXPORT ORDINAL="1736" NAME="?cgmGenerateMipmapEXT@OpenGLRekorder@OGL@AIF@@UAEXPBDII@Z" PURGE="12" COMMENT="" />
    <EXPORT ORDINAL="1737" NAME="?cgmGenerateMipmapEXT@OpenGLTracer@OGL@AIF@@UAEXPBDII@Z" PURGE="12" COMMENT="" />
    <EXPORT ORDINAL="1738" NAME="?cgmGenerateMultiTexMipmapEXT@OpenGLErrorChecker@OGL@AIF@@UAEXPBDIII@Z" PURGE="16" COMMENT="" />
    <EXPORT ORDINAL="1739" NAME="?cgmGenerateMultiTexMipmapEXT@OpenGLRekorder@OGL@AIF@@UAEXPBDIII@Z" PURGE="16" COMMENT="" />
    <EXPORT ORDINAL="1740" NAME="?cgmGenerateMultiTexMipmapEXT@OpenGLTracer@OGL@AIF@@UAEXPBDIII@Z" PURGE="16" COMMENT="" />
    <EXPORT ORDINAL="1741" NAME="?cgmGenerateTextureMipmapEXT@OpenGLErrorChecker@OGL@AIF@@UAEXPBDIII@Z" PURGE="16" COMMENT="" />
    <EXPORT ORDINAL="1742" NAME="?cgmGenerateTextureMipmapEXT@OpenGLRekorder@OGL@AIF@@UAEXPBDIII@Z" PURGE="16" COMMENT="" />
    <EXPORT ORDINAL="1743" NAME="?cgmGenerateTextureMipmapEXT@OpenGLTracer@OGL@AIF@@UAEXPBDIII@Z" PURGE="16" COMMENT="" />
    <EXPORT ORDINAL="1744" NAME="?cgmGetActiveAttrib@OpenGLErrorChecker@OGL@AIF@@UAEXPBDIIIHPAH1PAIPAD@Z" PURGE="36" COMMENT="" />
    <EXPORT ORDINAL="1745" NAME="?cgmGetActiveAttrib@OpenGLRekorder@OGL@AIF@@UAEXPBDIIIHPAH1PAIPAD@Z" PURGE="-1" COMMENT="" />
    <EXPORT ORDINAL="1746" NAME="?cgmGetActiveAttrib@OpenGLTracer@OGL@AIF@@UAEXPBDIIIHPAH1PAIPAD@Z" PURGE="36" COMMENT="" />
    <EXPORT ORDINAL="1747" NAME="?cgmGetActiveAttribARB@OpenGLErrorChecker@OGL@AIF@@UAEXPBDIIIHPAH1PAIPAD@Z" PURGE="36" COMMENT="" />
    <EXPORT ORDINAL="1748" NAME="?cgmGetActiveAttribARB@OpenGLRekorder@OGL@AIF@@UAEXPBDIIIHPAH1PAIPAD@Z" PURGE="-1" COMMENT="" />
    <EXPORT ORDINAL="1749" NAME="?cgmGetActiveAttribARB@OpenGLTracer@OGL@AIF@@UAEXPBDIIIHPAH1PAIPAD@Z" PURGE="36" COMMENT="" />
    <EXPORT ORDINAL="1750" NAME="?cgmGetActiveUniform@OpenGLErrorChecker@OGL@AIF@@UAEXPBDIIIHPAH1PAIPAD@Z" PURGE="36" COMMENT="" />
    <EXPORT ORDINAL="1751" NAME="?cgmGetActiveUniform@OpenGLRekorder@OGL@AIF@@UAEXPBDIIIHPAH1PAIPAD@Z" PURGE="-1" COMMENT="" />
    <EXPORT ORDINAL="1752" NAME="?cgmGetActiveUniform@OpenGLTracer@OGL@AIF@@UAEXPBDIIIHPAH1PAIPAD@Z" PURGE="36" COMMENT="" />
    <EXPORT ORDINAL="1753" NAME="?cgmGetActiveUniformARB@OpenGLErrorChecker@OGL@AIF@@UAEXPBDIIIHPAH1PAIPAD@Z" PURGE="36" COMMENT="" />
    <EXPORT ORDINAL="1754" NAME="?cgmGetActiveUniformARB@OpenGLRekorder@OGL@AIF@@UAEXPBDIIIHPAH1PAIPAD@Z" PURGE="36" COMMENT="" />
    <EXPORT ORDINAL="1755" NAME="?cgmGetActiveUniformARB@OpenGLTracer@OGL@AIF@@UAEXPBDIIIHPAH1PAIPAD@Z" PURGE="36" COMMENT="" />
    <EXPORT ORDINAL="1756" NAME="?cgmGetActiveVaryingNV@OpenGLErrorChecker@OGL@AIF@@UAEXPBDIIIHPAH1PAIPAD@Z" PURGE="36" COMMENT="" />
    <EXPORT ORDINAL="1757" NAME="?cgmGetActiveVaryingNV@OpenGLRekorder@OGL@AIF@@UAEXPBDIIIHPAH1PAIPAD@Z" PURGE="-1" COMMENT="" />
    <EXPORT ORDINAL="1758" NAME="?cgmGetActiveVaryingNV@OpenGLTracer@OGL@AIF@@UAEXPBDIIIHPAH1PAIPAD@Z" PURGE="36" COMMENT="" />
    <EXPORT ORDINAL="1759" NAME="?cgmGetArrayObjectfvATI@OpenGLErrorChecker@OGL@AIF@@UAEXPBDIIIPAM@Z" PURGE="20" COMMENT="" />
    <EXPORT ORDINAL="1760" NAME="?cgmGetArrayObjectfvATI@OpenGLRekorder@OGL@AIF@@UAEXPBDIIIPAM@Z" PURGE="-1" COMMENT="" />
    <EXPORT ORDINAL="1761" NAME="?cgmGetArrayObjectfvATI@OpenGLTracer@OGL@AIF@@UAEXPBDIIIPAM@Z" PURGE="20" COMMENT="" />
    <EXPORT ORDINAL="1762" NAME="?cgmGetArrayObjectivATI@OpenGLErrorChecker@OGL@AIF@@UAEXPBDIIIPAH@Z" PURGE="20" COMMENT="" />
    <EXPORT ORDINAL="1763" NAME="?cgmGetArrayObjectivATI@OpenGLRekorder@OGL@AIF@@UAEXPBDIIIPAH@Z" PURGE="-1" COMMENT="" />
    <EXPORT ORDINAL="1764" NAME="?cgmGetArrayObjectivATI@OpenGLTracer@OGL@AIF@@UAEXPBDIIIPAH@Z" PURGE="20" COMMENT="" />
    <EXPORT ORDINAL="1765" NAME="?cgmGetAttachedObjectsARB@OpenGLErrorChecker@OGL@AIF@@UAEXPBDIIHPAHPAI@Z" PURGE="24" COMMENT="" />
    <EXPORT ORDINAL="1766" NAME="?cgmGetAttachedObjectsARB@OpenGLRekorder@OGL@AIF@@UAEXPBDIIHPAHPAI@Z" PURGE="24" COMMENT="" />
    <EXPORT ORDINAL="1767" NAME="?cgmGetAttachedObjectsARB@OpenGLTracer@OGL@AIF@@UAEXPBDIIHPAHPAI@Z" PURGE="24" COMMENT="" />
    <EXPORT ORDINAL="1768" NAME="?cgmGetAttachedShaders@OpenGLErrorChecker@OGL@AIF@@UAEXPBDIIHPAHPAI@Z" PURGE="24" COMMENT="" />
    <EXPORT ORDINAL="1769" NAME="?cgmGetAttachedShaders@OpenGLRekorder@OGL@AIF@@UAEXPBDIIHPAHPAI@Z" PURGE="24" COMMENT="" />
    <EXPORT ORDINAL="1770" NAME="?cgmGetAttachedShaders@OpenGLTracer@OGL@AIF@@UAEXPBDIIHPAHPAI@Z" PURGE="24" COMMENT="" />
    <EXPORT ORDINAL="1771" NAME="?cgmGetAttribLocation@OpenGLErrorChecker@OGL@AIF@@UAEHPBDII0@Z" PURGE="16" COMMENT="" />
    <EXPORT ORDINAL="1772" NAME="?cgmGetAttribLocation@OpenGLRekorder@OGL@AIF@@UAEHPBDII0@Z" PURGE="-1" COMMENT="" />
    <EXPORT ORDINAL="1773" NAME="?cgmGetAttribLocation@OpenGLTracer@OGL@AIF@@UAEHPBDII0@Z" PURGE="16" COMMENT="" />
    <EXPORT ORDINAL="1774" NAME="?cgmGetAttribLocationARB@OpenGLErrorChecker@OGL@AIF@@UAEHPBDII0@Z" PURGE="16" COMMENT="" />
    <EXPORT ORDINAL="1775" NAME="?cgmGetAttribLocationARB@OpenGLRekorder@OGL@AIF@@UAEHPBDII0@Z" PURGE="-1" COMMENT="" />
    <EXPORT ORDINAL="1776" NAME="?cgmGetAttribLocationARB@OpenGLTracer@OGL@AIF@@UAEHPBDII0@Z" PURGE="16" COMMENT="" />
    <EXPORT ORDINAL="1777" NAME="?cgmGetBooleanIndexedvEXT@OpenGLErrorChecker@OGL@AIF@@UAEXPBDIIIPAE@Z" PURGE="20" COMMENT="" />
    <EXPORT ORDINAL="1778" NAME="?cgmGetBooleanIndexedvEXT@OpenGLRekorder@OGL@AIF@@UAEXPBDIIIPAE@Z" PURGE="-1" COMMENT="" />
    <EXPORT ORDINAL="1779" NAME="?cgmGetBooleanIndexedvEXT@OpenGLTracer@OGL@AIF@@UAEXPBDIIIPAE@Z" PURGE="20" COMMENT="" />
    <EXPORT ORDINAL="1780" NAME="?cgmGetBooleani_v@OpenGLErrorChecker@OGL@AIF@@UAEXPBDIIIPAE@Z" PURGE="20" COMMENT="" />
    <EXPORT ORDINAL="1781" NAME="?cgmGetBooleani_v@OpenGLRekorder@OGL@AIF@@UAEXPBDIIIPAE@Z" PURGE="-1" COMMENT="" />
    <EXPORT ORDINAL="1782" NAME="?cgmGetBooleani_v@OpenGLTracer@OGL@AIF@@UAEXPBDIIIPAE@Z" PURGE="20" COMMENT="" />
    <EXPORT ORDINAL="1783" NAME="?cgmGetBooleanv@OpenGLErrorChecker@OGL@AIF@@UAEXPBDIIPAE@Z" PURGE="16" COMMENT="" />
    <EXPORT ORDINAL="1784" NAME="?cgmGetBooleanv@OpenGLRekorder@OGL@AIF@@UAEXPBDIIPAE@Z" PURGE="16" COMMENT="" />
    <EXPORT ORDINAL="1785" NAME="?cgmGetBooleanv@OpenGLTracer@OGL@AIF@@UAEXPBDIIPAE@Z" PURGE="16" COMMENT="" />
    <EXPORT ORDINAL="1786" NAME="?cgmGetBufferParameteriv@OpenGLErrorChecker@OGL@AIF@@UAEXPBDIIIPAH@Z" PURGE="20" COMMENT="" />
    <EXPORT ORDINAL="1787" NAME="?cgmGetBufferParameteriv@OpenGLRekorder@OGL@AIF@@UAEXPBDIIIPAH@Z" PURGE="-1" COMMENT="" />
    <EXPORT ORDINAL="1788" NAME="?cgmGetBufferParameteriv@OpenGLTracer@OGL@AIF@@UAEXPBDIIIPAH@Z" PURGE="20" COMMENT="" />
    <EXPORT ORDINAL="1789" NAME="?cgmGetBufferParameterivARB@OpenGLErrorChecker@OGL@AIF@@UAEXPBDIIIPAH@Z" PURGE="20" COMMENT="" />
    <EXPORT ORDINAL="1790" NAME="?cgmGetBufferParameterivARB@OpenGLRekorder@OGL@AIF@@UAEXPBDIIIPAH@Z" PURGE="-1" COMMENT="" />
    <EXPORT ORDINAL="1791" NAME="?cgmGetBufferParameterivARB@OpenGLTracer@OGL@AIF@@UAEXPBDIIIPAH@Z" PURGE="20" COMMENT="" />
    <EXPORT ORDINAL="1792" NAME="?cgmGetBufferParameterui64vNV@OpenGLErrorChecker@OGL@AIF@@UAEXPBDIIIPA_K@Z" PURGE="20" COMMENT="" />
    <EXPORT ORDINAL="1793" NAME="?cgmGetBufferParameterui64vNV@OpenGLRekorder@OGL@AIF@@UAEXPBDIIIPA_K@Z" PURGE="-1" COMMENT="" />
    <EXPORT ORDINAL="1794" NAME="?cgmGetBufferParameterui64vNV@OpenGLTracer@OGL@AIF@@UAEXPBDIIIPA_K@Z" PURGE="20" COMMENT="" />
    <EXPORT ORDINAL="1795" NAME="?cgmGetBufferPointerv@OpenGLErrorChecker@OGL@AIF@@UAEXPBDIIIPAPAX@Z" PURGE="20" COMMENT="" />
    <EXPORT ORDINAL="1796" NAME="?cgmGetBufferPointerv@OpenGLRekorder@OGL@AIF@@UAEXPBDIIIPAPAX@Z" PURGE="-1" COMMENT="" />
    <EXPORT ORDINAL="1797" NAME="?cgmGetBufferPointerv@OpenGLTracer@OGL@AIF@@UAEXPBDIIIPAPAX@Z" PURGE="20" COMMENT="" />
    <EXPORT ORDINAL="1798" NAME="?cgmGetBufferPointervARB@OpenGLErrorChecker@OGL@AIF@@UAEXPBDIIIPAPAX@Z" PURGE="20" COMMENT="" />
    <EXPORT ORDINAL="1799" NAME="?cgmGetBufferPointervARB@OpenGLRekorder@OGL@AIF@@UAEXPBDIIIPAPAX@Z" PURGE="-1" COMMENT="" />
    <EXPORT ORDINAL="1800" NAME="?cgmGetBufferPointervARB@OpenGLTracer@OGL@AIF@@UAEXPBDIIIPAPAX@Z" PURGE="20" COMMENT="" />
    <EXPORT ORDINAL="1801" NAME="?cgmGetBufferSubData@OpenGLErrorChecker@OGL@AIF@@UAEXPBDIIHHPAX@Z" PURGE="24" COMMENT="" />
    <EXPORT ORDINAL="1802" NAME="?cgmGetBufferSubData@OpenGLRekorder@OGL@AIF@@UAEXPBDIIHHPAX@Z" PURGE="-1" COMMENT="" />
    <EXPORT ORDINAL="1803" NAME="?cgmGetBufferSubData@OpenGLTracer@OGL@AIF@@UAEXPBDIIHHPAX@Z" PURGE="24" COMMENT="" />
    <EXPORT ORDINAL="1804" NAME="?cgmGetBufferSubDataARB@OpenGLErrorChecker@OGL@AIF@@UAEXPBDIIHHPAX@Z" PURGE="24" COMMENT="" />
    <EXPORT ORDINAL="1805" NAME="?cgmGetBufferSubDataARB@OpenGLRekorder@OGL@AIF@@UAEXPBDIIHHPAX@Z" PURGE="-1" COMMENT="" />
    <EXPORT ORDINAL="1806" NAME="?cgmGetBufferSubDataARB@OpenGLTracer@OGL@AIF@@UAEXPBDIIHHPAX@Z" PURGE="24" COMMENT="" />
    <EXPORT ORDINAL="1807" NAME="?cgmGetClipPlane@OpenGLErrorChecker@OGL@AIF@@UAEXPBDIIPAN@Z" PURGE="16" COMMENT="" />
    <EXPORT ORDINAL="1808" NAME="?cgmGetClipPlane@OpenGLRekorder@OGL@AIF@@UAEXPBDIIPAN@Z" PURGE="-1" COMMENT="" />
    <EXPORT ORDINAL="1809" NAME="?cgmGetClipPlane@OpenGLTracer@OGL@AIF@@UAEXPBDIIPAN@Z" PURGE="16" COMMENT="" />
    <EXPORT ORDINAL="1810" NAME="?cgmGetClipPlanefOES@OpenGLErrorChecker@OGL@AIF@@UAEXPBDIIPAM@Z" PURGE="16" COMMENT="" />
    <EXPORT ORDINAL="1811" NAME="?cgmGetClipPlanefOES@OpenGLRekorder@OGL@AIF@@UAEXPBDIIPAM@Z" PURGE="-1" COMMENT="" />
    <EXPORT ORDINAL="1812" NAME="?cgmGetClipPlanefOES@OpenGLTracer@OGL@AIF@@UAEXPBDIIPAM@Z" PURGE="16" COMMENT="" />
    <EXPORT ORDINAL="1813" NAME="?cgmGetColorTable@OpenGLErrorChecker@OGL@AIF@@UAEXPBDIIIIPAX@Z" PURGE="24" COMMENT="" />
    <EXPORT ORDINAL="1814" NAME="?cgmGetColorTable@OpenGLRekorder@OGL@AIF@@UAEXPBDIIIIPAX@Z" PURGE="-1" COMMENT="" />
    <EXPORT ORDINAL="1815" NAME="?cgmGetColorTable@OpenGLTracer@OGL@AIF@@UAEXPBDIIIIPAX@Z" PURGE="24" COMMENT="" />
    <EXPORT ORDINAL="1816" NAME="?cgmGetColorTableEXT@OpenGLErrorChecker@OGL@AIF@@UAEXPBDIIIIPAX@Z" PURGE="24" COMMENT="" />
    <EXPORT ORDINAL="1817" NAME="?cgmGetColorTableEXT@OpenGLRekorder@OGL@AIF@@UAEXPBDIIIIPAX@Z" PURGE="-1" COMMENT="" />
    <EXPORT ORDINAL="1818" NAME="?cgmGetColorTableEXT@OpenGLTracer@OGL@AIF@@UAEXPBDIIIIPAX@Z" PURGE="24" COMMENT="" />
    <EXPORT ORDINAL="1819" NAME="?cgmGetColorTableParameterfv@OpenGLErrorChecker@OGL@AIF@@UAEXPBDIIIPAM@Z" PURGE="20" COMMENT="" />
    <EXPORT ORDINAL="1820" NAME="?cgmGetColorTableParameterfv@OpenGLRekorder@OGL@AIF@@UAEXPBDIIIPAM@Z" PURGE="-1" COMMENT="" />
    <EXPORT ORDINAL="1821" NAME="?cgmGetColorTableParameterfv@OpenGLTracer@OGL@AIF@@UAEXPBDIIIPAM@Z" PURGE="20" COMMENT="" />
    <EXPORT ORDINAL="1822" NAME="?cgmGetColorTableParameterfvEXT@OpenGLErrorChecker@OGL@AIF@@UAEXPBDIIIPAM@Z" PURGE="20" COMMENT="" />
    <EXPORT ORDINAL="1823" NAME="?cgmGetColorTableParameterfvEXT@OpenGLRekorder@OGL@AIF@@UAEXPBDIIIPAM@Z" PURGE="-1" COMMENT="" />
    <EXPORT ORDINAL="1824" NAME="?cgmGetColorTableParameterfvEXT@OpenGLTracer@OGL@AIF@@UAEXPBDIIIPAM@Z" PURGE="20" COMMENT="" />
    <EXPORT ORDINAL="1825" NAME="?cgmGetColorTableParameterfvSGI@OpenGLErrorChecker@OGL@AIF@@UAEXPBDIIIPAM@Z" PURGE="20" COMMENT="" />
    <EXPORT ORDINAL="1826" NAME="?cgmGetColorTableParameterfvSGI@OpenGLRekorder@OGL@AIF@@UAEXPBDIIIPAM@Z" PURGE="-1" COMMENT="" />
    <EXPORT ORDINAL="1827" NAME="?cgmGetColorTableParameterfvSGI@OpenGLTracer@OGL@AIF@@UAEXPBDIIIPAM@Z" PURGE="20" COMMENT="" />
    <EXPORT ORDINAL="1828" NAME="?cgmGetColorTableParameteriv@OpenGLErrorChecker@OGL@AIF@@UAEXPBDIIIPAH@Z" PURGE="20" COMMENT="" />
    <EXPORT ORDINAL="1829" NAME="?cgmGetColorTableParameteriv@OpenGLRekorder@OGL@AIF@@UAEXPBDIIIPAH@Z" PURGE="-1" COMMENT="" />
    <EXPORT ORDINAL="1830" NAME="?cgmGetColorTableParameteriv@OpenGLTracer@OGL@AIF@@UAEXPBDIIIPAH@Z" PURGE="20" COMMENT="" />
    <EXPORT ORDINAL="1831" NAME="?cgmGetColorTableParameterivEXT@OpenGLErrorChecker@OGL@AIF@@UAEXPBDIIIPAH@Z" PURGE="20" COMMENT="" />
    <EXPORT ORDINAL="1832" NAME="?cgmGetColorTableParameterivEXT@OpenGLRekorder@OGL@AIF@@UAEXPBDIIIPAH@Z" PURGE="-1" COMMENT="" />
    <EXPORT ORDINAL="1833" NAME="?cgmGetColorTableParameterivEXT@OpenGLTracer@OGL@AIF@@UAEXPBDIIIPAH@Z" PURGE="20" COMMENT="" />
    <EXPORT ORDINAL="1834" NAME="?cgmGetColorTableParameterivSGI@OpenGLErrorChecker@OGL@AIF@@UAEXPBDIIIPAH@Z" PURGE="20" COMMENT="" />
    <EXPORT ORDINAL="1835" NAME="?cgmGetColorTableParameterivSGI@OpenGLRekorder@OGL@AIF@@UAEXPBDIIIPAH@Z" PURGE="-1" COMMENT="" />
    <EXPORT ORDINAL="1836" NAME="?cgmGetColorTableParameterivSGI@OpenGLTracer@OGL@AIF@@UAEXPBDIIIPAH@Z" PURGE="20" COMMENT="" />
    <EXPORT ORDINAL="1837" NAME="?cgmGetColorTableSGI@OpenGLErrorChecker@OGL@AIF@@UAEXPBDIIIIPAX@Z" PURGE="24" COMMENT="" />
    <EXPORT ORDINAL="1838" NAME="?cgmGetColorTableSGI@OpenGLRekorder@OGL@AIF@@UAEXPBDIIIIPAX@Z" PURGE="-1" COMMENT="" />
    <EXPORT ORDINAL="1839" NAME="?cgmGetColorTableSGI@OpenGLTracer@OGL@AIF@@UAEXPBDIIIIPAX@Z" PURGE="24" COMMENT="" />
    <EXPORT ORDINAL="1840" NAME="?cgmGetCombinerInputParameterfvNV@OpenGLErrorChecker@OGL@AIF@@UAEXPBDIIIIIPAM@Z" PURGE="28" COMMENT="" />
    <EXPORT ORDINAL="1841" NAME="?cgmGetCombinerInputParameterfvNV@OpenGLRekorder@OGL@AIF@@UAEXPBDIIIIIPAM@Z" PURGE="-1" COMMENT="" />
    <EXPORT ORDINAL="1842" NAME="?cgmGetCombinerInputParameterfvNV@OpenGLTracer@OGL@AIF@@UAEXPBDIIIIIPAM@Z" PURGE="28" COMMENT="" />
    <EXPORT ORDINAL="1843" NAME="?cgmGetCombinerInputParameterivNV@OpenGLErrorChecker@OGL@AIF@@UAEXPBDIIIIIPAH@Z" PURGE="28" COMMENT="" />
    <EXPORT ORDINAL="1844" NAME="?cgmGetCombinerInputParameterivNV@OpenGLRekorder@OGL@AIF@@UAEXPBDIIIIIPAH@Z" PURGE="-1" COMMENT="" />
    <EXPORT ORDINAL="1845" NAME="?cgmGetCombinerInputParameterivNV@OpenGLTracer@OGL@AIF@@UAEXPBDIIIIIPAH@Z" PURGE="28" COMMENT="" />
    <EXPORT ORDINAL="1846" NAME="?cgmGetCombinerOutputParameterfvNV@OpenGLErrorChecker@OGL@AIF@@UAEXPBDIIIIPAM@Z" PURGE="24" COMMENT="" />
    <EXPORT ORDINAL="1847" NAME="?cgmGetCombinerOutputParameterfvNV@OpenGLRekorder@OGL@AIF@@UAEXPBDIIIIPAM@Z" PURGE="-1" COMMENT="" />
    <EXPORT ORDINAL="1848" NAME="?cgmGetCombinerOutputParameterfvNV@OpenGLTracer@OGL@AIF@@UAEXPBDIIIIPAM@Z" PURGE="24" COMMENT="" />
    <EXPORT ORDINAL="1849" NAME="?cgmGetCombinerOutputParameterivNV@OpenGLErrorChecker@OGL@AIF@@UAEXPBDIIIIPAH@Z" PURGE="24" COMMENT="" />
    <EXPORT ORDINAL="1850" NAME="?cgmGetCombinerOutputParameterivNV@OpenGLRekorder@OGL@AIF@@UAEXPBDIIIIPAH@Z" PURGE="-1" COMMENT="" />
    <EXPORT ORDINAL="1851" NAME="?cgmGetCombinerOutputParameterivNV@OpenGLTracer@OGL@AIF@@UAEXPBDIIIIPAH@Z" PURGE="24" COMMENT="" />
    <EXPORT ORDINAL="1852" NAME="?cgmGetCombinerStageParameterfvNV@OpenGLErrorChecker@OGL@AIF@@UAEXPBDIIIPAM@Z" PURGE="20" COMMENT="" />
    <EXPORT ORDINAL="1853" NAME="?cgmGetCombinerStageParameterfvNV@OpenGLRekorder@OGL@AIF@@UAEXPBDIIIPAM@Z" PURGE="-1" COMMENT="" />
    <EXPORT ORDINAL="1854" NAME="?cgmGetCombinerStageParameterfvNV@OpenGLTracer@OGL@AIF@@UAEXPBDIIIPAM@Z" PURGE="20" COMMENT="" />
    <EXPORT ORDINAL="1855" NAME="?cgmGetCompressedMultiTexImageEXT@OpenGLErrorChecker@OGL@AIF@@UAEXPBDIIIHPAX@Z" PURGE="24" COMMENT="" />
    <EXPORT ORDINAL="1856" NAME="?cgmGetCompressedMultiTexImageEXT@OpenGLRekorder@OGL@AIF@@UAEXPBDIIIHPAX@Z" PURGE="-1" COMMENT="" />
    <EXPORT ORDINAL="1857" NAME="?cgmGetCompressedMultiTexImageEXT@OpenGLTracer@OGL@AIF@@UAEXPBDIIIHPAX@Z" PURGE="24" COMMENT="" />
    <EXPORT ORDINAL="1858" NAME="?cgmGetCompressedTexImage@OpenGLErrorChecker@OGL@AIF@@UAEXPBDIIHPAX@Z" PURGE="20" COMMENT="" />
    <EXPORT ORDINAL="1859" NAME="?cgmGetCompressedTexImage@OpenGLRekorder@OGL@AIF@@UAEXPBDIIHPAX@Z" PURGE="-1" COMMENT="" />
    <EXPORT ORDINAL="1860" NAME="?cgmGetCompressedTexImage@OpenGLTracer@OGL@AIF@@UAEXPBDIIHPAX@Z" PURGE="20" COMMENT="" />
    <EXPORT ORDINAL="1861" NAME="?cgmGetCompressedTexImageARB@OpenGLErrorChecker@OGL@AIF@@UAEXPBDIIHPAX@Z" PURGE="20" COMMENT="" />
    <EXPORT ORDINAL="1862" NAME="?cgmGetCompressedTexImageARB@OpenGLRekorder@OGL@AIF@@UAEXPBDIIHPAX@Z" PURGE="-1" COMMENT="" />
    <EXPORT ORDINAL="1863" NAME="?cgmGetCompressedTexImageARB@OpenGLTracer@OGL@AIF@@UAEXPBDIIHPAX@Z" PURGE="20" COMMENT="" />
    <EXPORT ORDINAL="1864" NAME="?cgmGetCompressedTextureImageEXT@OpenGLErrorChecker@OGL@AIF@@UAEXPBDIIIHPAX@Z" PURGE="24" COMMENT="" />
    <EXPORT ORDINAL="1865" NAME="?cgmGetCompressedTextureImageEXT@OpenGLRekorder@OGL@AIF@@UAEXPBDIIIHPAX@Z" PURGE="-1" COMMENT="" />
    <EXPORT ORDINAL="1866" NAME="?cgmGetCompressedTextureImageEXT@OpenGLTracer@OGL@AIF@@UAEXPBDIIIHPAX@Z" PURGE="24" COMMENT="" />
    <EXPORT ORDINAL="1867" NAME="?cgmGetConvolutionFilter@OpenGLErrorChecker@OGL@AIF@@UAEXPBDIIIIPAX@Z" PURGE="24" COMMENT="" />
    <EXPORT ORDINAL="1868" NAME="?cgmGetConvolutionFilter@OpenGLRekorder@OGL@AIF@@UAEXPBDIIIIPAX@Z" PURGE="-1" COMMENT="" />
    <EXPORT ORDINAL="1869" NAME="?cgmGetConvolutionFilter@OpenGLTracer@OGL@AIF@@UAEXPBDIIIIPAX@Z" PURGE="24" COMMENT="" />
    <EXPORT ORDINAL="1870" NAME="?cgmGetConvolutionFilterEXT@OpenGLErrorChecker@OGL@AIF@@UAEXPBDIIIIPAX@Z" PURGE="24" COMMENT="" />
    <EXPORT ORDINAL="1871" NAME="?cgmGetConvolutionFilterEXT@OpenGLRekorder@OGL@AIF@@UAEXPBDIIIIPAX@Z" PURGE="-1" COMMENT="" />
    <EXPORT ORDINAL="1872" NAME="?cgmGetConvolutionFilterEXT@OpenGLTracer@OGL@AIF@@UAEXPBDIIIIPAX@Z" PURGE="24" COMMENT="" />
    <EXPORT ORDINAL="1873" NAME="?cgmGetConvolutionParameterfv@OpenGLErrorChecker@OGL@AIF@@UAEXPBDIIIPAM@Z" PURGE="20" COMMENT="" />
    <EXPORT ORDINAL="1874" NAME="?cgmGetConvolutionParameterfv@OpenGLRekorder@OGL@AIF@@UAEXPBDIIIPAM@Z" PURGE="-1" COMMENT="" />
    <EXPORT ORDINAL="1875" NAME="?cgmGetConvolutionParameterfv@OpenGLTracer@OGL@AIF@@UAEXPBDIIIPAM@Z" PURGE="20" COMMENT="" />
    <EXPORT ORDINAL="1876" NAME="?cgmGetConvolutionParameterfvEXT@OpenGLErrorChecker@OGL@AIF@@UAEXPBDIIIPAM@Z" PURGE="20" COMMENT="" />
    <EXPORT ORDINAL="1877" NAME="?cgmGetConvolutionParameterfvEXT@OpenGLRekorder@OGL@AIF@@UAEXPBDIIIPAM@Z" PURGE="-1" COMMENT="" />
    <EXPORT ORDINAL="1878" NAME="?cgmGetConvolutionParameterfvEXT@OpenGLTracer@OGL@AIF@@UAEXPBDIIIPAM@Z" PURGE="20" COMMENT="" />
    <EXPORT ORDINAL="1879" NAME="?cgmGetConvolutionParameteriv@OpenGLErrorChecker@OGL@AIF@@UAEXPBDIIIPAH@Z" PURGE="20" COMMENT="" />
    <EXPORT ORDINAL="1880" NAME="?cgmGetConvolutionParameteriv@OpenGLRekorder@OGL@AIF@@UAEXPBDIIIPAH@Z" PURGE="-1" COMMENT="" />
    <EXPORT ORDINAL="1881" NAME="?cgmGetConvolutionParameteriv@OpenGLTracer@OGL@AIF@@UAEXPBDIIIPAH@Z" PURGE="20" COMMENT="" />
    <EXPORT ORDINAL="1882" NAME="?cgmGetConvolutionParameterivEXT@OpenGLErrorChecker@OGL@AIF@@UAEXPBDIIIPAH@Z" PURGE="20" COMMENT="" />
    <EXPORT ORDINAL="1883" NAME="?cgmGetConvolutionParameterivEXT@OpenGLRekorder@OGL@AIF@@UAEXPBDIIIPAH@Z" PURGE="-1" COMMENT="" />
    <EXPORT ORDINAL="1884" NAME="?cgmGetConvolutionParameterivEXT@OpenGLTracer@OGL@AIF@@UAEXPBDIIIPAH@Z" PURGE="20" COMMENT="" />
    <EXPORT ORDINAL="1885" NAME="?cgmGetDetailTexFuncSGIS@OpenGLErrorChecker@OGL@AIF@@UAEXPBDIIPAM@Z" PURGE="16" COMMENT="" />
    <EXPORT ORDINAL="1886" NAME="?cgmGetDetailTexFuncSGIS@OpenGLRekorder@OGL@AIF@@UAEXPBDIIPAM@Z" PURGE="-1" COMMENT="" />
    <EXPORT ORDINAL="1887" NAME="?cgmGetDetailTexFuncSGIS@OpenGLTracer@OGL@AIF@@UAEXPBDIIPAM@Z" PURGE="16" COMMENT="" />
    <EXPORT ORDINAL="1888" NAME="?cgmGetDoubleIndexedvEXT@OpenGLErrorChecker@OGL@AIF@@UAEXPBDIIIPAN@Z" PURGE="20" COMMENT="" />
    <EXPORT ORDINAL="1889" NAME="?cgmGetDoubleIndexedvEXT@OpenGLRekorder@OGL@AIF@@UAEXPBDIIIPAN@Z" PURGE="-1" COMMENT="" />
    <EXPORT ORDINAL="1890" NAME="?cgmGetDoubleIndexedvEXT@OpenGLTracer@OGL@AIF@@UAEXPBDIIIPAN@Z" PURGE="20" COMMENT="" />
    <EXPORT ORDINAL="1891" NAME="?cgmGetDoublev@OpenGLErrorChecker@OGL@AIF@@UAEXPBDIIPAN@Z" PURGE="16" COMMENT="" />
    <EXPORT ORDINAL="1892" NAME="?cgmGetDoublev@OpenGLRekorder@OGL@AIF@@UAEXPBDIIPAN@Z" PURGE="-1" COMMENT="" />
    <EXPORT ORDINAL="1893" NAME="?cgmGetDoublev@OpenGLTracer@OGL@AIF@@UAEXPBDIIPAN@Z" PURGE="16" COMMENT="" />
    <EXPORT ORDINAL="1894" NAME="?cgmGetError@OpenGLErrorChecker@OGL@AIF@@UAEIPBDI@Z" PURGE="8" COMMENT="" />
    <EXPORT ORDINAL="1895" NAME="?cgmGetError@OpenGLRekorder@OGL@AIF@@UAEIPBDI@Z" PURGE="8" COMMENT="" />
    <EXPORT ORDINAL="1896" NAME="?cgmGetError@OpenGLTracer@OGL@AIF@@UAEIPBDI@Z" PURGE="8" COMMENT="" />
    <EXPORT ORDINAL="1897" NAME="?cgmGetFenceivNV@OpenGLErrorChecker@OGL@AIF@@UAEXPBDIIIPAH@Z" PURGE="20" COMMENT="" />
    <EXPORT ORDINAL="1898" NAME="?cgmGetFenceivNV@OpenGLRekorder@OGL@AIF@@UAEXPBDIIIPAH@Z" PURGE="-1" COMMENT="" />
    <EXPORT ORDINAL="1899" NAME="?cgmGetFenceivNV@OpenGLTracer@OGL@AIF@@UAEXPBDIIIPAH@Z" PURGE="20" COMMENT="" />
    <EXPORT ORDINAL="1900" NAME="?cgmGetFinalCombinerInputParameterfvNV@OpenGLErrorChecker@OGL@AIF@@UAEXPBDIIIPAM@Z" PURGE="20" COMMENT="" />
    <EXPORT ORDINAL="1901" NAME="?cgmGetFinalCombinerInputParameterfvNV@OpenGLRekorder@OGL@AIF@@UAEXPBDIIIPAM@Z" PURGE="-1" COMMENT="" />
    <EXPORT ORDINAL="1902" NAME="?cgmGetFinalCombinerInputParameterfvNV@OpenGLTracer@OGL@AIF@@UAEXPBDIIIPAM@Z" PURGE="20" COMMENT="" />
    <EXPORT ORDINAL="1903" NAME="?cgmGetFinalCombinerInputParameterivNV@OpenGLErrorChecker@OGL@AIF@@UAEXPBDIIIPAH@Z" PURGE="20" COMMENT="" />
    <EXPORT ORDINAL="1904" NAME="?cgmGetFinalCombinerInputParameterivNV@OpenGLRekorder@OGL@AIF@@UAEXPBDIIIPAH@Z" PURGE="-1" COMMENT="" />
    <EXPORT ORDINAL="1905" NAME="?cgmGetFinalCombinerInputParameterivNV@OpenGLTracer@OGL@AIF@@UAEXPBDIIIPAH@Z" PURGE="20" COMMENT="" />
    <EXPORT ORDINAL="1906" NAME="?cgmGetFloatIndexedvEXT@OpenGLErrorChecker@OGL@AIF@@UAEXPBDIIIPAM@Z" PURGE="20" COMMENT="" />
    <EXPORT ORDINAL="1907" NAME="?cgmGetFloatIndexedvEXT@OpenGLRekorder@OGL@AIF@@UAEXPBDIIIPAM@Z" PURGE="-1" COMMENT="" />
    <EXPORT ORDINAL="1908" NAME="?cgmGetFloatIndexedvEXT@OpenGLTracer@OGL@AIF@@UAEXPBDIIIPAM@Z" PURGE="20" COMMENT="" />
    <EXPORT ORDINAL="1909" NAME="?cgmGetFloatv@OpenGLErrorChecker@OGL@AIF@@UAEXPBDIIPAM@Z" PURGE="16" COMMENT="" />
    <EXPORT ORDINAL="1910" NAME="?cgmGetFloatv@OpenGLRekorder@OGL@AIF@@UAEXPBDIIPAM@Z" PURGE="16" COMMENT="" />
    <EXPORT ORDINAL="1911" NAME="?cgmGetFloatv@OpenGLTracer@OGL@AIF@@UAEXPBDIIPAM@Z" PURGE="16" COMMENT="" />
    <EXPORT ORDINAL="1912" NAME="?cgmGetFogFuncSGIS@OpenGLErrorChecker@OGL@AIF@@UAEXPBDIPAM@Z" PURGE="12" COMMENT="" />
    <EXPORT ORDINAL="1913" NAME="?cgmGetFogFuncSGIS@OpenGLRekorder@OGL@AIF@@UAEXPBDIPAM@Z" PURGE="-1" COMMENT="" />
    <EXPORT ORDINAL="1914" NAME="?cgmGetFogFuncSGIS@OpenGLTracer@OGL@AIF@@UAEXPBDIPAM@Z" PURGE="12" COMMENT="" />
    <EXPORT ORDINAL="1915" NAME="?cgmGetFragDataLocation@OpenGLErrorChecker@OGL@AIF@@UAEHPBDII0@Z" PURGE="16" COMMENT="" />
    <EXPORT ORDINAL="1916" NAME="?cgmGetFragDataLocation@OpenGLRekorder@OGL@AIF@@UAEHPBDII0@Z" PURGE="-1" COMMENT="" />
    <EXPORT ORDINAL="1917" NAME="?cgmGetFragDataLocation@OpenGLTracer@OGL@AIF@@UAEHPBDII0@Z" PURGE="16" COMMENT="" />
    <EXPORT ORDINAL="1918" NAME="?cgmGetFragDataLocationEXT@OpenGLErrorChecker@OGL@AIF@@UAEHPBDII0@Z" PURGE="16" COMMENT="" />
    <EXPORT ORDINAL="1919" NAME="?cgmGetFragDataLocationEXT@OpenGLRekorder@OGL@AIF@@UAEHPBDII0@Z" PURGE="-1" COMMENT="" />
    <EXPORT ORDINAL="1920" NAME="?cgmGetFragDataLocationEXT@OpenGLTracer@OGL@AIF@@UAEHPBDII0@Z" PURGE="16" COMMENT="" />
    <EXPORT ORDINAL="1921" NAME="?cgmGetFragmentLightfvEXT@OpenGLErrorChecker@OGL@AIF@@UAEXPBDIIIPAM@Z" PURGE="20" COMMENT="" />
    <EXPORT ORDINAL="1922" NAME="?cgmGetFragmentLightfvEXT@OpenGLRekorder@OGL@AIF@@UAEXPBDIIIPAM@Z" PURGE="-1" COMMENT="" />
    <EXPORT ORDINAL="1923" NAME="?cgmGetFragmentLightfvEXT@OpenGLTracer@OGL@AIF@@UAEXPBDIIIPAM@Z" PURGE="20" COMMENT="" />
    <EXPORT ORDINAL="1924" NAME="?cgmGetFragmentLightfvSGIX@OpenGLErrorChecker@OGL@AIF@@UAEXPBDIIIPAM@Z" PURGE="20" COMMENT="" />
    <EXPORT ORDINAL="1925" NAME="?cgmGetFragmentLightfvSGIX@OpenGLRekorder@OGL@AIF@@UAEXPBDIIIPAM@Z" PURGE="-1" COMMENT="" />
    <EXPORT ORDINAL="1926" NAME="?cgmGetFragmentLightfvSGIX@OpenGLTracer@OGL@AIF@@UAEXPBDIIIPAM@Z" PURGE="20" COMMENT="" />
    <EXPORT ORDINAL="1927" NAME="?cgmGetFragmentLightivEXT@OpenGLErrorChecker@OGL@AIF@@UAEXPBDIIIPAH@Z" PURGE="20" COMMENT="" />
    <EXPORT ORDINAL="1928" NAME="?cgmGetFragmentLightivEXT@OpenGLRekorder@OGL@AIF@@UAEXPBDIIIPAH@Z" PURGE="-1" COMMENT="" />
    <EXPORT ORDINAL="1929" NAME="?cgmGetFragmentLightivEXT@OpenGLTracer@OGL@AIF@@UAEXPBDIIIPAH@Z" PURGE="20" COMMENT="" />
    <EXPORT ORDINAL="1930" NAME="?cgmGetFragmentLightivSGIX@OpenGLErrorChecker@OGL@AIF@@UAEXPBDIIIPAH@Z" PURGE="20" COMMENT="" />
    <EXPORT ORDINAL="1931" NAME="?cgmGetFragmentLightivSGIX@OpenGLRekorder@OGL@AIF@@UAEXPBDIIIPAH@Z" PURGE="-1" COMMENT="" />
    <EXPORT ORDINAL="1932" NAME="?cgmGetFragmentLightivSGIX@OpenGLTracer@OGL@AIF@@UAEXPBDIIIPAH@Z" PURGE="20" COMMENT="" />
    <EXPORT ORDINAL="1933" NAME="?cgmGetFragmentMaterialfvEXT@OpenGLErrorChecker@OGL@AIF@@UAEXPBDIIIPBM@Z" PURGE="20" COMMENT="" />
    <EXPORT ORDINAL="1934" NAME="?cgmGetFragmentMaterialfvEXT@OpenGLRekorder@OGL@AIF@@UAEXPBDIIIPBM@Z" PURGE="-1" COMMENT="" />
    <EXPORT ORDINAL="1935" NAME="?cgmGetFragmentMaterialfvEXT@OpenGLTracer@OGL@AIF@@UAEXPBDIIIPBM@Z" PURGE="20" COMMENT="" />
    <EXPORT ORDINAL="1936" NAME="?cgmGetFragmentMaterialfvSGIX@OpenGLErrorChecker@OGL@AIF@@UAEXPBDIIIPBM@Z" PURGE="20" COMMENT="" />
    <EXPORT ORDINAL="1937" NAME="?cgmGetFragmentMaterialfvSGIX@OpenGLRekorder@OGL@AIF@@UAEXPBDIIIPBM@Z" PURGE="-1" COMMENT="" />
    <EXPORT ORDINAL="1938" NAME="?cgmGetFragmentMaterialfvSGIX@OpenGLTracer@OGL@AIF@@UAEXPBDIIIPBM@Z" PURGE="20" COMMENT="" />
    <EXPORT ORDINAL="1939" NAME="?cgmGetFragmentMaterialivEXT@OpenGLErrorChecker@OGL@AIF@@UAEXPBDIIIPBH@Z" PURGE="20" COMMENT="" />
    <EXPORT ORDINAL="1940" NAME="?cgmGetFragmentMaterialivEXT@OpenGLRekorder@OGL@AIF@@UAEXPBDIIIPBH@Z" PURGE="-1" COMMENT="" />
    <EXPORT ORDINAL="1941" NAME="?cgmGetFragmentMaterialivEXT@OpenGLTracer@OGL@AIF@@UAEXPBDIIIPBH@Z" PURGE="20" COMMENT="" />
    <EXPORT ORDINAL="1942" NAME="?cgmGetFragmentMaterialivSGIX@OpenGLErrorChecker@OGL@AIF@@UAEXPBDIIIPBH@Z" PURGE="20" COMMENT="" />
    <EXPORT ORDINAL="1943" NAME="?cgmGetFragmentMaterialivSGIX@OpenGLRekorder@OGL@AIF@@UAEXPBDIIIPBH@Z" PURGE="-1" COMMENT="" />
    <EXPORT ORDINAL="1944" NAME="?cgmGetFragmentMaterialivSGIX@OpenGLTracer@OGL@AIF@@UAEXPBDIIIPBH@Z" PURGE="20" COMMENT="" />
    <EXPORT ORDINAL="1945" NAME="?cgmGetFramebufferAttachmentParameteriv@OpenGLErrorChecker@OGL@AIF@@UAEXPBDIIIIPAH@Z" PURGE="24" COMMENT="" />
    <EXPORT ORDINAL="1946" NAME="?cgmGetFramebufferAttachmentParameteriv@OpenGLRekorder@OGL@AIF@@UAEXPBDIIIIPAH@Z" PURGE="-1" COMMENT="" />
    <EXPORT ORDINAL="1947" NAME="?cgmGetFramebufferAttachmentParameteriv@OpenGLTracer@OGL@AIF@@UAEXPBDIIIIPAH@Z" PURGE="24" COMMENT="" />
    <EXPORT ORDINAL="1948" NAME="?cgmGetFramebufferAttachmentParameterivEXT@OpenGLErrorChecker@OGL@AIF@@UAEXPBDIIIIPAH@Z" PURGE="24" COMMENT="" />
    <EXPORT ORDINAL="1949" NAME="?cgmGetFramebufferAttachmentParameterivEXT@OpenGLRekorder@OGL@AIF@@UAEXPBDIIIIPAH@Z" PURGE="-1" COMMENT="" />
    <EXPORT ORDINAL="1950" NAME="?cgmGetFramebufferAttachmentParameterivEXT@OpenGLTracer@OGL@AIF@@UAEXPBDIIIIPAH@Z" PURGE="24" COMMENT="" />
    <EXPORT ORDINAL="1951" NAME="?cgmGetFramebufferParameterivEXT@OpenGLErrorChecker@OGL@AIF@@UAEXPBDIIIPAH@Z" PURGE="20" COMMENT="" />
    <EXPORT ORDINAL="1952" NAME="?cgmGetFramebufferParameterivEXT@OpenGLRekorder@OGL@AIF@@UAEXPBDIIIPAH@Z" PURGE="-1" COMMENT="" />
    <EXPORT ORDINAL="1953" NAME="?cgmGetFramebufferParameterivEXT@OpenGLTracer@OGL@AIF@@UAEXPBDIIIPAH@Z" PURGE="20" COMMENT="" />
    <EXPORT ORDINAL="1954" NAME="?cgmGetHandleARB@OpenGLErrorChecker@OGL@AIF@@UAEIPBDII@Z" PURGE="12" COMMENT="" />
    <EXPORT ORDINAL="1955" NAME="?cgmGetHandleARB@OpenGLRekorder@OGL@AIF@@UAEIPBDII@Z" PURGE="12" COMMENT="" />
    <EXPORT ORDINAL="1956" NAME="?cgmGetHandleARB@OpenGLTracer@OGL@AIF@@UAEIPBDII@Z" PURGE="12" COMMENT="" />
    <EXPORT ORDINAL="1957" NAME="?cgmGetHistogram@OpenGLErrorChecker@OGL@AIF@@UAEXPBDIIEIIPAX@Z" PURGE="28" COMMENT="" />
    <EXPORT ORDINAL="1958" NAME="?cgmGetHistogram@OpenGLRekorder@OGL@AIF@@UAEXPBDIIEIIPAX@Z" PURGE="-1" COMMENT="" />
    <EXPORT ORDINAL="1959" NAME="?cgmGetHistogram@OpenGLTracer@OGL@AIF@@UAEXPBDIIEIIPAX@Z" PURGE="28" COMMENT="" />
    <EXPORT ORDINAL="1960" NAME="?cgmGetHistogramEXT@OpenGLErrorChecker@OGL@AIF@@UAEXPBDIIEIIPAX@Z" PURGE="28" COMMENT="" />
    <EXPORT ORDINAL="1961" NAME="?cgmGetHistogramEXT@OpenGLRekorder@OGL@AIF@@UAEXPBDIIEIIPAX@Z" PURGE="-1" COMMENT="" />
    <EXPORT ORDINAL="1962" NAME="?cgmGetHistogramEXT@OpenGLTracer@OGL@AIF@@UAEXPBDIIEIIPAX@Z" PURGE="28" COMMENT="" />
    <EXPORT ORDINAL="1963" NAME="?cgmGetHistogramParameterfv@OpenGLErrorChecker@OGL@AIF@@UAEXPBDIIIPAM@Z" PURGE="20" COMMENT="" />
    <EXPORT ORDINAL="1964" NAME="?cgmGetHistogramParameterfv@OpenGLRekorder@OGL@AIF@@UAEXPBDIIIPAM@Z" PURGE="-1" COMMENT="" />
    <EXPORT ORDINAL="1965" NAME="?cgmGetHistogramParameterfv@OpenGLTracer@OGL@AIF@@UAEXPBDIIIPAM@Z" PURGE="20" COMMENT="" />
    <EXPORT ORDINAL="1966" NAME="?cgmGetHistogramParameterfvEXT@OpenGLErrorChecker@OGL@AIF@@UAEXPBDIIIPAM@Z" PURGE="20" COMMENT="" />
    <EXPORT ORDINAL="1967" NAME="?cgmGetHistogramParameterfvEXT@OpenGLRekorder@OGL@AIF@@UAEXPBDIIIPAM@Z" PURGE="-1" COMMENT="" />
    <EXPORT ORDINAL="1968" NAME="?cgmGetHistogramParameterfvEXT@OpenGLTracer@OGL@AIF@@UAEXPBDIIIPAM@Z" PURGE="20" COMMENT="" />
    <EXPORT ORDINAL="1969" NAME="?cgmGetHistogramParameteriv@OpenGLErrorChecker@OGL@AIF@@UAEXPBDIIIPAH@Z" PURGE="20" COMMENT="" />
    <EXPORT ORDINAL="1970" NAME="?cgmGetHistogramParameteriv@OpenGLRekorder@OGL@AIF@@UAEXPBDIIIPAH@Z" PURGE="-1" COMMENT="" />
    <EXPORT ORDINAL="1971" NAME="?cgmGetHistogramParameteriv@OpenGLTracer@OGL@AIF@@UAEXPBDIIIPAH@Z" PURGE="20" COMMENT="" />
    <EXPORT ORDINAL="1972" NAME="?cgmGetHistogramParameterivEXT@OpenGLErrorChecker@OGL@AIF@@UAEXPBDIIIPAH@Z" PURGE="20" COMMENT="" />
    <EXPORT ORDINAL="1973" NAME="?cgmGetHistogramParameterivEXT@OpenGLRekorder@OGL@AIF@@UAEXPBDIIIPAH@Z" PURGE="-1" COMMENT="" />
    <EXPORT ORDINAL="1974" NAME="?cgmGetHistogramParameterivEXT@OpenGLTracer@OGL@AIF@@UAEXPBDIIIPAH@Z" PURGE="20" COMMENT="" />
    <EXPORT ORDINAL="1975" NAME="?cgmGetImageTransformParameterfvHP@OpenGLErrorChecker@OGL@AIF@@UAEXPBDIIIPBM@Z" PURGE="20" COMMENT="" />
    <EXPORT ORDINAL="1976" NAME="?cgmGetImageTransformParameterfvHP@OpenGLRekorder@OGL@AIF@@UAEXPBDIIIPBM@Z" PURGE="-1" COMMENT="" />
    <EXPORT ORDINAL="1977" NAME="?cgmGetImageTransformParameterfvHP@OpenGLTracer@OGL@AIF@@UAEXPBDIIIPBM@Z" PURGE="20" COMMENT="" />
    <EXPORT ORDINAL="1978" NAME="?cgmGetImageTransformParameterivHP@OpenGLErrorChecker@OGL@AIF@@UAEXPBDIIIPBH@Z" PURGE="20" COMMENT="" />
    <EXPORT ORDINAL="1979" NAME="?cgmGetImageTransformParameterivHP@OpenGLRekorder@OGL@AIF@@UAEXPBDIIIPBH@Z" PURGE="-1" COMMENT="" />
    <EXPORT ORDINAL="1980" NAME="?cgmGetImageTransformParameterivHP@OpenGLTracer@OGL@AIF@@UAEXPBDIIIPBH@Z" PURGE="20" COMMENT="" />
    <EXPORT ORDINAL="1981" NAME="?cgmGetInfoLogARB@OpenGLErrorChecker@OGL@AIF@@UAEXPBDIIHPAHPAD@Z" PURGE="24" COMMENT="" />
    <EXPORT ORDINAL="1982" NAME="?cgmGetInfoLogARB@OpenGLRekorder@OGL@AIF@@UAEXPBDIIHPAHPAD@Z" PURGE="24" COMMENT="" />
    <EXPORT ORDINAL="1983" NAME="?cgmGetInfoLogARB@OpenGLTracer@OGL@AIF@@UAEXPBDIIHPAHPAD@Z" PURGE="24" COMMENT="" />
    <EXPORT ORDINAL="1984" NAME="?cgmGetIntegerIndexedvEXT@OpenGLErrorChecker@OGL@AIF@@UAEXPBDIIIPAH@Z" PURGE="20" COMMENT="" />
    <EXPORT ORDINAL="1985" NAME="?cgmGetIntegerIndexedvEXT@OpenGLRekorder@OGL@AIF@@UAEXPBDIIIPAH@Z" PURGE="-1" COMMENT="" />
    <EXPORT ORDINAL="1986" NAME="?cgmGetIntegerIndexedvEXT@OpenGLTracer@OGL@AIF@@UAEXPBDIIIPAH@Z" PURGE="20" COMMENT="" />
    <EXPORT ORDINAL="1987" NAME="?cgmGetIntegeri_v@OpenGLErrorChecker@OGL@AIF@@UAEXPBDIIIPAH@Z" PURGE="20" COMMENT="" />
    <EXPORT ORDINAL="1988" NAME="?cgmGetIntegeri_v@OpenGLRekorder@OGL@AIF@@UAEXPBDIIIPAH@Z" PURGE="-1" COMMENT="" />
    <EXPORT ORDINAL="1989" NAME="?cgmGetIntegeri_v@OpenGLTracer@OGL@AIF@@UAEXPBDIIIPAH@Z" PURGE="20" COMMENT="" />
    <EXPORT ORDINAL="1990" NAME="?cgmGetIntegerui64i_vNV@OpenGLErrorChecker@OGL@AIF@@UAEXPBDIIIQA_K@Z" PURGE="20" COMMENT="" />
    <EXPORT ORDINAL="1991" NAME="?cgmGetIntegerui64i_vNV@OpenGLRekorder@OGL@AIF@@UAEXPBDIIIQA_K@Z" PURGE="20" COMMENT="" />
    <EXPORT ORDINAL="1992" NAME="?cgmGetIntegerui64i_vNV@OpenGLTracer@OGL@AIF@@UAEXPBDIIIQA_K@Z" PURGE="20" COMMENT="" />
    <EXPORT ORDINAL="1993" NAME="?cgmGetIntegerui64vNV@OpenGLErrorChecker@OGL@AIF@@UAEXPBDIIPA_K@Z" PURGE="16" COMMENT="" />
    <EXPORT ORDINAL="1994" NAME="?cgmGetIntegerui64vNV@OpenGLRekorder@OGL@AIF@@UAEXPBDIIPA_K@Z" PURGE="-1" COMMENT="" />
    <EXPORT ORDINAL="1995" NAME="?cgmGetIntegerui64vNV@OpenGLTracer@OGL@AIF@@UAEXPBDIIPA_K@Z" PURGE="16" COMMENT="" />
    <EXPORT ORDINAL="1996" NAME="?cgmGetIntegerv@OpenGLErrorChecker@OGL@AIF@@UAEXPBDIIPAH@Z" PURGE="16" COMMENT="" />
    <EXPORT ORDINAL="1997" NAME="?cgmGetIntegerv@OpenGLRekorder@OGL@AIF@@UAEXPBDIIPAH@Z" PURGE="16" COMMENT="" />
    <EXPORT ORDINAL="1998" NAME="?cgmGetIntegerv@OpenGLTracer@OGL@AIF@@UAEXPBDIIPAH@Z" PURGE="16" COMMENT="" />
    <EXPORT ORDINAL="1999" NAME="?cgmGetInvariantBooleanvEXT@OpenGLErrorChecker@OGL@AIF@@UAEXPBDIIIPAE@Z" PURGE="20" COMMENT="" />
    <EXPORT ORDINAL="2000" NAME="?cgmGetInvariantBooleanvEXT@OpenGLRekorder@OGL@AIF@@UAEXPBDIIIPAE@Z" PURGE="-1" COMMENT="" />
    <EXPORT ORDINAL="2001" NAME="?cgmGetInvariantBooleanvEXT@OpenGLTracer@OGL@AIF@@UAEXPBDIIIPAE@Z" PURGE="20" COMMENT="" />
    <EXPORT ORDINAL="2002" NAME="?cgmGetInvariantFloatvEXT@OpenGLErrorChecker@OGL@AIF@@UAEXPBDIIIPAM@Z" PURGE="20" COMMENT="" />
    <EXPORT ORDINAL="2003" NAME="?cgmGetInvariantFloatvEXT@OpenGLRekorder@OGL@AIF@@UAEXPBDIIIPAM@Z" PURGE="-1" COMMENT="" />
    <EXPORT ORDINAL="2004" NAME="?cgmGetInvariantFloatvEXT@OpenGLTracer@OGL@AIF@@UAEXPBDIIIPAM@Z" PURGE="20" COMMENT="" />
    <EXPORT ORDINAL="2005" NAME="?cgmGetInvariantIntegervEXT@OpenGLErrorChecker@OGL@AIF@@UAEXPBDIIIPAH@Z" PURGE="20" COMMENT="" />
    <EXPORT ORDINAL="2006" NAME="?cgmGetInvariantIntegervEXT@OpenGLRekorder@OGL@AIF@@UAEXPBDIIIPAH@Z" PURGE="-1" COMMENT="" />
    <EXPORT ORDINAL="2007" NAME="?cgmGetInvariantIntegervEXT@OpenGLTracer@OGL@AIF@@UAEXPBDIIIPAH@Z" PURGE="20" COMMENT="" />
    <EXPORT ORDINAL="2008" NAME="?cgmGetLightfv@OpenGLErrorChecker@OGL@AIF@@UAEXPBDIIIPAM@Z" PURGE="20" COMMENT="" />
    <EXPORT ORDINAL="2009" NAME="?cgmGetLightfv@OpenGLRekorder@OGL@AIF@@UAEXPBDIIIPAM@Z" PURGE="-1" COMMENT="" />
    <EXPORT ORDINAL="2010" NAME="?cgmGetLightfv@OpenGLTracer@OGL@AIF@@UAEXPBDIIIPAM@Z" PURGE="20" COMMENT="" />
    <EXPORT ORDINAL="2011" NAME="?cgmGetLightiv@OpenGLErrorChecker@OGL@AIF@@UAEXPBDIIIPAH@Z" PURGE="20" COMMENT="" />
    <EXPORT ORDINAL="2012" NAME="?cgmGetLightiv@OpenGLRekorder@OGL@AIF@@UAEXPBDIIIPAH@Z" PURGE="-1" COMMENT="" />
    <EXPORT ORDINAL="2013" NAME="?cgmGetLightiv@OpenGLTracer@OGL@AIF@@UAEXPBDIIIPAH@Z" PURGE="20" COMMENT="" />
    <EXPORT ORDINAL="2014" NAME="?cgmGetLocalConstantBooleanvEXT@OpenGLErrorChecker@OGL@AIF@@UAEXPBDIIIPAE@Z" PURGE="20" COMMENT="" />
    <EXPORT ORDINAL="2015" NAME="?cgmGetLocalConstantBooleanvEXT@OpenGLRekorder@OGL@AIF@@UAEXPBDIIIPAE@Z" PURGE="-1" COMMENT="" />
    <EXPORT ORDINAL="2016" NAME="?cgmGetLocalConstantBooleanvEXT@OpenGLTracer@OGL@AIF@@UAEXPBDIIIPAE@Z" PURGE="20" COMMENT="" />
    <EXPORT ORDINAL="2017" NAME="?cgmGetLocalConstantFloatvEXT@OpenGLErrorChecker@OGL@AIF@@UAEXPBDIIIPAM@Z" PURGE="20" COMMENT="" />
    <EXPORT ORDINAL="2018" NAME="?cgmGetLocalConstantFloatvEXT@OpenGLRekorder@OGL@AIF@@UAEXPBDIIIPAM@Z" PURGE="-1" COMMENT="" />
    <EXPORT ORDINAL="2019" NAME="?cgmGetLocalConstantFloatvEXT@OpenGLTracer@OGL@AIF@@UAEXPBDIIIPAM@Z" PURGE="20" COMMENT="" />
    <EXPORT ORDINAL="2020" NAME="?cgmGetLocalConstantIntegervEXT@OpenGLErrorChecker@OGL@AIF@@UAEXPBDIIIPAH@Z" PURGE="20" COMMENT="" />
    <EXPORT ORDINAL="2021" NAME="?cgmGetLocalConstantIntegervEXT@OpenGLRekorder@OGL@AIF@@UAEXPBDIIIPAH@Z" PURGE="-1" COMMENT="" />
    <EXPORT ORDINAL="2022" NAME="?cgmGetLocalConstantIntegervEXT@OpenGLTracer@OGL@AIF@@UAEXPBDIIIPAH@Z" PURGE="20" COMMENT="" />
    <EXPORT ORDINAL="2023" NAME="?cgmGetMapAttribParameterfvNV@OpenGLErrorChecker@OGL@AIF@@UAEXPBDIIIIPAM@Z" PURGE="24" COMMENT="" />
    <EXPORT ORDINAL="2024" NAME="?cgmGetMapAttribParameterfvNV@OpenGLRekorder@OGL@AIF@@UAEXPBDIIIIPAM@Z" PURGE="-1" COMMENT="" />
    <EXPORT ORDINAL="2025" NAME="?cgmGetMapAttribParameterfvNV@OpenGLTracer@OGL@AIF@@UAEXPBDIIIIPAM@Z" PURGE="24" COMMENT="" />
    <EXPORT ORDINAL="2026" NAME="?cgmGetMapAttribParameterivNV@OpenGLErrorChecker@OGL@AIF@@UAEXPBDIIIIPAH@Z" PURGE="24" COMMENT="" />
    <EXPORT ORDINAL="2027" NAME="?cgmGetMapAttribParameterivNV@OpenGLRekorder@OGL@AIF@@UAEXPBDIIIIPAH@Z" PURGE="-1" COMMENT="" />
    <EXPORT ORDINAL="2028" NAME="?cgmGetMapAttribParameterivNV@OpenGLTracer@OGL@AIF@@UAEXPBDIIIIPAH@Z" PURGE="24" COMMENT="" />
    <EXPORT ORDINAL="2029" NAME="?cgmGetMapControlPointsNV@OpenGLErrorChecker@OGL@AIF@@UAEXPBDIIIIHHEPAX@Z" PURGE="36" COMMENT="" />
    <EXPORT ORDINAL="2030" NAME="?cgmGetMapControlPointsNV@OpenGLRekorder@OGL@AIF@@UAEXPBDIIIIHHEPAX@Z" PURGE="-1" COMMENT="" />
    <EXPORT ORDINAL="2031" NAME="?cgmGetMapControlPointsNV@OpenGLTracer@OGL@AIF@@UAEXPBDIIIIHHEPAX@Z" PURGE="36" COMMENT="" />
    <EXPORT ORDINAL="2032" NAME="?cgmGetMapParameterfvNV@OpenGLErrorChecker@OGL@AIF@@UAEXPBDIIIPAM@Z" PURGE="20" COMMENT="" />
    <EXPORT ORDINAL="2033" NAME="?cgmGetMapParameterfvNV@OpenGLRekorder@OGL@AIF@@UAEXPBDIIIPAM@Z" PURGE="-1" COMMENT="" />
    <EXPORT ORDINAL="2034" NAME="?cgmGetMapParameterfvNV@OpenGLTracer@OGL@AIF@@UAEXPBDIIIPAM@Z" PURGE="20" COMMENT="" />
    <EXPORT ORDINAL="2035" NAME="?cgmGetMapParameterivNV@OpenGLErrorChecker@OGL@AIF@@UAEXPBDIIIPAH@Z" PURGE="20" COMMENT="" />
    <EXPORT ORDINAL="2036" NAME="?cgmGetMapParameterivNV@OpenGLRekorder@OGL@AIF@@UAEXPBDIIIPAH@Z" PURGE="-1" COMMENT="" />
    <EXPORT ORDINAL="2037" NAME="?cgmGetMapParameterivNV@OpenGLTracer@OGL@AIF@@UAEXPBDIIIPAH@Z" PURGE="20" COMMENT="" />
    <EXPORT ORDINAL="2038" NAME="?cgmGetMapdv@OpenGLErrorChecker@OGL@AIF@@UAEXPBDIIIPAN@Z" PURGE="20" COMMENT="" />
    <EXPORT ORDINAL="2039" NAME="?cgmGetMapdv@OpenGLRekorder@OGL@AIF@@UAEXPBDIIIPAN@Z" PURGE="-1" COMMENT="" />
    <EXPORT ORDINAL="2040" NAME="?cgmGetMapdv@OpenGLTracer@OGL@AIF@@UAEXPBDIIIPAN@Z" PURGE="20" COMMENT="" />
    <EXPORT ORDINAL="2041" NAME="?cgmGetMapfv@OpenGLErrorChecker@OGL@AIF@@UAEXPBDIIIPAM@Z" PURGE="20" COMMENT="" />
    <EXPORT ORDINAL="2042" NAME="?cgmGetMapfv@OpenGLRekorder@OGL@AIF@@UAEXPBDIIIPAM@Z" PURGE="-1" COMMENT="" />
    <EXPORT ORDINAL="2043" NAME="?cgmGetMapfv@OpenGLTracer@OGL@AIF@@UAEXPBDIIIPAM@Z" PURGE="20" COMMENT="" />
    <EXPORT ORDINAL="2044" NAME="?cgmGetMapiv@OpenGLErrorChecker@OGL@AIF@@UAEXPBDIIIPAH@Z" PURGE="20" COMMENT="" />
    <EXPORT ORDINAL="2045" NAME="?cgmGetMapiv@OpenGLRekorder@OGL@AIF@@UAEXPBDIIIPAH@Z" PURGE="-1" COMMENT="" />
    <EXPORT ORDINAL="2046" NAME="?cgmGetMapiv@OpenGLTracer@OGL@AIF@@UAEXPBDIIIPAH@Z" PURGE="20" COMMENT="" />
    <EXPORT ORDINAL="2047" NAME="?cgmGetMaterialfv@OpenGLErrorChecker@OGL@AIF@@UAEXPBDIIIPAM@Z" PURGE="20" COMMENT="" />
    <EXPORT ORDINAL="2048" NAME="?cgmGetMaterialfv@OpenGLRekorder@OGL@AIF@@UAEXPBDIIIPAM@Z" PURGE="-1" COMMENT="" />
    <EXPORT ORDINAL="2049" NAME="?cgmGetMaterialfv@OpenGLTracer@OGL@AIF@@UAEXPBDIIIPAM@Z" PURGE="20" COMMENT="" />
    <EXPORT ORDINAL="2050" NAME="?cgmGetMaterialiv@OpenGLErrorChecker@OGL@AIF@@UAEXPBDIIIPAH@Z" PURGE="20" COMMENT="" />
    <EXPORT ORDINAL="2051" NAME="?cgmGetMaterialiv@OpenGLRekorder@OGL@AIF@@UAEXPBDIIIPAH@Z" PURGE="-1" COMMENT="" />
    <EXPORT ORDINAL="2052" NAME="?cgmGetMaterialiv@OpenGLTracer@OGL@AIF@@UAEXPBDIIIPAH@Z" PURGE="20" COMMENT="" />
    <EXPORT ORDINAL="2053" NAME="?cgmGetMinmax@OpenGLErrorChecker@OGL@AIF@@UAEXPBDIIEIIPAX@Z" PURGE="28" COMMENT="" />
    <EXPORT ORDINAL="2054" NAME="?cgmGetMinmax@OpenGLRekorder@OGL@AIF@@UAEXPBDIIEIIPAX@Z" PURGE="-1" COMMENT="" />
    <EXPORT ORDINAL="2055" NAME="?cgmGetMinmax@OpenGLTracer@OGL@AIF@@UAEXPBDIIEIIPAX@Z" PURGE="28" COMMENT="" />
    <EXPORT ORDINAL="2056" NAME="?cgmGetMinmaxEXT@OpenGLErrorChecker@OGL@AIF@@UAEXPBDIIEIIPAX@Z" PURGE="28" COMMENT="" />
    <EXPORT ORDINAL="2057" NAME="?cgmGetMinmaxEXT@OpenGLRekorder@OGL@AIF@@UAEXPBDIIEIIPAX@Z" PURGE="-1" COMMENT="" />
    <EXPORT ORDINAL="2058" NAME="?cgmGetMinmaxEXT@OpenGLTracer@OGL@AIF@@UAEXPBDIIEIIPAX@Z" PURGE="28" COMMENT="" />
    <EXPORT ORDINAL="2059" NAME="?cgmGetMinmaxParameterfv@OpenGLErrorChecker@OGL@AIF@@UAEXPBDIIIPAM@Z" PURGE="20" COMMENT="" />
    <EXPORT ORDINAL="2060" NAME="?cgmGetMinmaxParameterfv@OpenGLRekorder@OGL@AIF@@UAEXPBDIIIPAM@Z" PURGE="-1" COMMENT="" />
    <EXPORT ORDINAL="2061" NAME="?cgmGetMinmaxParameterfv@OpenGLTracer@OGL@AIF@@UAEXPBDIIIPAM@Z" PURGE="20" COMMENT="" />
    <EXPORT ORDINAL="2062" NAME="?cgmGetMinmaxParameterfvEXT@OpenGLErrorChecker@OGL@AIF@@UAEXPBDIIIPAM@Z" PURGE="20" COMMENT="" />
    <EXPORT ORDINAL="2063" NAME="?cgmGetMinmaxParameterfvEXT@OpenGLRekorder@OGL@AIF@@UAEXPBDIIIPAM@Z" PURGE="-1" COMMENT="" />
    <EXPORT ORDINAL="2064" NAME="?cgmGetMinmaxParameterfvEXT@OpenGLTracer@OGL@AIF@@UAEXPBDIIIPAM@Z" PURGE="20" COMMENT="" />
    <EXPORT ORDINAL="2065" NAME="?cgmGetMinmaxParameteriv@OpenGLErrorChecker@OGL@AIF@@UAEXPBDIIIPAH@Z" PURGE="20" COMMENT="" />
    <EXPORT ORDINAL="2066" NAME="?cgmGetMinmaxParameteriv@OpenGLRekorder@OGL@AIF@@UAEXPBDIIIPAH@Z" PURGE="-1" COMMENT="" />
    <EXPORT ORDINAL="2067" NAME="?cgmGetMinmaxParameteriv@OpenGLTracer@OGL@AIF@@UAEXPBDIIIPAH@Z" PURGE="20" COMMENT="" />
    <EXPORT ORDINAL="2068" NAME="?cgmGetMinmaxParameterivEXT@OpenGLErrorChecker@OGL@AIF@@UAEXPBDIIIPAH@Z" PURGE="20" COMMENT="" />
    <EXPORT ORDINAL="2069" NAME="?cgmGetMinmaxParameterivEXT@OpenGLRekorder@OGL@AIF@@UAEXPBDIIIPAH@Z" PURGE="-1" COMMENT="" />
    <EXPORT ORDINAL="2070" NAME="?cgmGetMinmaxParameterivEXT@OpenGLTracer@OGL@AIF@@UAEXPBDIIIPAH@Z" PURGE="20" COMMENT="" />
    <EXPORT ORDINAL="2071" NAME="?cgmGetMultiTexEnvfvEXT@OpenGLErrorChecker@OGL@AIF@@UAEXPBDIIIIPAM@Z" PURGE="24" COMMENT="" />
    <EXPORT ORDINAL="2072" NAME="?cgmGetMultiTexEnvfvEXT@OpenGLRekorder@OGL@AIF@@UAEXPBDIIIIPAM@Z" PURGE="-1" COMMENT="" />
    <EXPORT ORDINAL="2073" NAME="?cgmGetMultiTexEnvfvEXT@OpenGLTracer@OGL@AIF@@UAEXPBDIIIIPAM@Z" PURGE="24" COMMENT="" />
    <EXPORT ORDINAL="2074" NAME="?cgmGetMultiTexEnvivEXT@OpenGLErrorChecker@OGL@AIF@@UAEXPBDIIIIPAH@Z" PURGE="24" COMMENT="" />
    <EXPORT ORDINAL="2075" NAME="?cgmGetMultiTexEnvivEXT@OpenGLRekorder@OGL@AIF@@UAEXPBDIIIIPAH@Z" PURGE="-1" COMMENT="" />
    <EXPORT ORDINAL="2076" NAME="?cgmGetMultiTexEnvivEXT@OpenGLTracer@OGL@AIF@@UAEXPBDIIIIPAH@Z" PURGE="24" COMMENT="" />
    <EXPORT ORDINAL="2077" NAME="?cgmGetMultiTexGendvEXT@OpenGLErrorChecker@OGL@AIF@@UAEXPBDIIIIPAN@Z" PURGE="24" COMMENT="" />
    <EXPORT ORDINAL="2078" NAME="?cgmGetMultiTexGendvEXT@OpenGLRekorder@OGL@AIF@@UAEXPBDIIIIPAN@Z" PURGE="-1" COMMENT="" />
    <EXPORT ORDINAL="2079" NAME="?cgmGetMultiTexGendvEXT@OpenGLTracer@OGL@AIF@@UAEXPBDIIIIPAN@Z" PURGE="24" COMMENT="" />
    <EXPORT ORDINAL="2080" NAME="?cgmGetMultiTexGenfvEXT@OpenGLErrorChecker@OGL@AIF@@UAEXPBDIIIIPAM@Z" PURGE="24" COMMENT="" />
    <EXPORT ORDINAL="2081" NAME="?cgmGetMultiTexGenfvEXT@OpenGLRekorder@OGL@AIF@@UAEXPBDIIIIPAM@Z" PURGE="-1" COMMENT="" />
    <EXPORT ORDINAL="2082" NAME="?cgmGetMultiTexGenfvEXT@OpenGLTracer@OGL@AIF@@UAEXPBDIIIIPAM@Z" PURGE="24" COMMENT="" />
    <EXPORT ORDINAL="2083" NAME="?cgmGetMultiTexGenivEXT@OpenGLErrorChecker@OGL@AIF@@UAEXPBDIIIIPAH@Z" PURGE="24" COMMENT="" />
    <EXPORT ORDINAL="2084" NAME="?cgmGetMultiTexGenivEXT@OpenGLRekorder@OGL@AIF@@UAEXPBDIIIIPAH@Z" PURGE="-1" COMMENT="" />
    <EXPORT ORDINAL="2085" NAME="?cgmGetMultiTexGenivEXT@OpenGLTracer@OGL@AIF@@UAEXPBDIIIIPAH@Z" PURGE="24" COMMENT="" />
    <EXPORT ORDINAL="2086" NAME="?cgmGetMultiTexImageEXT@OpenGLErrorChecker@OGL@AIF@@UAEXPBDIIIHIIPAX@Z" PURGE="32" COMMENT="" />
    <EXPORT ORDINAL="2087" NAME="?cgmGetMultiTexImageEXT@OpenGLRekorder@OGL@AIF@@UAEXPBDIIIHIIPAX@Z" PURGE="-1" COMMENT="" />
    <EXPORT ORDINAL="2088" NAME="?cgmGetMultiTexImageEXT@OpenGLTracer@OGL@AIF@@UAEXPBDIIIHIIPAX@Z" PURGE="32" COMMENT="" />
    <EXPORT ORDINAL="2089" NAME="?cgmGetMultiTexLevelParameterfvEXT@OpenGLErrorChecker@OGL@AIF@@UAEXPBDIIIHIPAM@Z" PURGE="28" COMMENT="" />
    <EXPORT ORDINAL="2090" NAME="?cgmGetMultiTexLevelParameterfvEXT@OpenGLRekorder@OGL@AIF@@UAEXPBDIIIHIPAM@Z" PURGE="-1" COMMENT="" />
    <EXPORT ORDINAL="2091" NAME="?cgmGetMultiTexLevelParameterfvEXT@OpenGLTracer@OGL@AIF@@UAEXPBDIIIHIPAM@Z" PURGE="28" COMMENT="" />
    <EXPORT ORDINAL="2092" NAME="?cgmGetMultiTexLevelParameterivEXT@OpenGLErrorChecker@OGL@AIF@@UAEXPBDIIIHIPAH@Z" PURGE="28" COMMENT="" />
    <EXPORT ORDINAL="2093" NAME="?cgmGetMultiTexLevelParameterivEXT@OpenGLRekorder@OGL@AIF@@UAEXPBDIIIHIPAH@Z" PURGE="-1" COMMENT="" />
    <EXPORT ORDINAL="2094" NAME="?cgmGetMultiTexLevelParameterivEXT@OpenGLTracer@OGL@AIF@@UAEXPBDIIIHIPAH@Z" PURGE="28" COMMENT="" />
    <EXPORT ORDINAL="2095" NAME="?cgmGetMultiTexParameterIivEXT@OpenGLErrorChecker@OGL@AIF@@UAEXPBDIIIIPAH@Z" PURGE="24" COMMENT="" />
    <EXPORT ORDINAL="2096" NAME="?cgmGetMultiTexParameterIivEXT@OpenGLRekorder@OGL@AIF@@UAEXPBDIIIIPAH@Z" PURGE="-1" COMMENT="" />
    <EXPORT ORDINAL="2097" NAME="?cgmGetMultiTexParameterIivEXT@OpenGLTracer@OGL@AIF@@UAEXPBDIIIIPAH@Z" PURGE="24" COMMENT="" />
    <EXPORT ORDINAL="2098" NAME="?cgmGetMultiTexParameterIuivEXT@OpenGLErrorChecker@OGL@AIF@@UAEXPBDIIIIPAI@Z" PURGE="24" COMMENT="" />
    <EXPORT ORDINAL="2099" NAME="?cgmGetMultiTexParameterIuivEXT@OpenGLRekorder@OGL@AIF@@UAEXPBDIIIIPAI@Z" PURGE="-1" COMMENT="" />
    <EXPORT ORDINAL="2100" NAME="?cgmGetMultiTexParameterIuivEXT@OpenGLTracer@OGL@AIF@@UAEXPBDIIIIPAI@Z" PURGE="24" COMMENT="" />
    <EXPORT ORDINAL="2101" NAME="?cgmGetMultiTexParameterfvEXT@OpenGLErrorChecker@OGL@AIF@@UAEXPBDIIIIPAM@Z" PURGE="24" COMMENT="" />
    <EXPORT ORDINAL="2102" NAME="?cgmGetMultiTexParameterfvEXT@OpenGLRekorder@OGL@AIF@@UAEXPBDIIIIPAM@Z" PURGE="-1" COMMENT="" />
    <EXPORT ORDINAL="2103" NAME="?cgmGetMultiTexParameterfvEXT@OpenGLTracer@OGL@AIF@@UAEXPBDIIIIPAM@Z" PURGE="24" COMMENT="" />
    <EXPORT ORDINAL="2104" NAME="?cgmGetMultiTexParameterivEXT@OpenGLErrorChecker@OGL@AIF@@UAEXPBDIIIIPAH@Z" PURGE="24" COMMENT="" />
    <EXPORT ORDINAL="2105" NAME="?cgmGetMultiTexParameterivEXT@OpenGLRekorder@OGL@AIF@@UAEXPBDIIIIPAH@Z" PURGE="-1" COMMENT="" />
    <EXPORT ORDINAL="2106" NAME="?cgmGetMultiTexParameterivEXT@OpenGLTracer@OGL@AIF@@UAEXPBDIIIIPAH@Z" PURGE="24" COMMENT="" />
    <EXPORT ORDINAL="2107" NAME="?cgmGetMultisamplefvNV@OpenGLErrorChecker@OGL@AIF@@UAEXPBDIIIPAM@Z" PURGE="20" COMMENT="" />
    <EXPORT ORDINAL="2108" NAME="?cgmGetMultisamplefvNV@OpenGLRekorder@OGL@AIF@@UAEXPBDIIIPAM@Z" PURGE="-1" COMMENT="" />
    <EXPORT ORDINAL="2109" NAME="?cgmGetMultisamplefvNV@OpenGLTracer@OGL@AIF@@UAEXPBDIIIPAM@Z" PURGE="20" COMMENT="" />
    <EXPORT ORDINAL="2110" NAME="?cgmGetNamedBufferParameterivEXT@OpenGLErrorChecker@OGL@AIF@@UAEXPBDIIIPAH@Z" PURGE="20" COMMENT="" />
    <EXPORT ORDINAL="2111" NAME="?cgmGetNamedBufferParameterivEXT@OpenGLRekorder@OGL@AIF@@UAEXPBDIIIPAH@Z" PURGE="-1" COMMENT="" />
    <EXPORT ORDINAL="2112" NAME="?cgmGetNamedBufferParameterivEXT@OpenGLTracer@OGL@AIF@@UAEXPBDIIIPAH@Z" PURGE="20" COMMENT="" />
    <EXPORT ORDINAL="2113" NAME="?cgmGetNamedBufferParameterui64vNV@OpenGLErrorChecker@OGL@AIF@@UAEXPBDIIIPA_K@Z" PURGE="20" COMMENT="" />
    <EXPORT ORDINAL="2114" NAME="?cgmGetNamedBufferParameterui64vNV@OpenGLRekorder@OGL@AIF@@UAEXPBDIIIPA_K@Z" PURGE="-1" COMMENT="" />
    <EXPORT ORDINAL="2115" NAME="?cgmGetNamedBufferParameterui64vNV@OpenGLTracer@OGL@AIF@@UAEXPBDIIIPA_K@Z" PURGE="20" COMMENT="" />
    <EXPORT ORDINAL="2116" NAME="?cgmGetNamedBufferPointervEXT@OpenGLErrorChecker@OGL@AIF@@UAEXPBDIIIPAPAX@Z" PURGE="20" COMMENT="" />
    <EXPORT ORDINAL="2117" NAME="?cgmGetNamedBufferPointervEXT@OpenGLRekorder@OGL@AIF@@UAEXPBDIIIPAPAX@Z" PURGE="-1" COMMENT="" />
    <EXPORT ORDINAL="2118" NAME="?cgmGetNamedBufferPointervEXT@OpenGLTracer@OGL@AIF@@UAEXPBDIIIPAPAX@Z" PURGE="20" COMMENT="" />
    <EXPORT ORDINAL="2119" NAME="?cgmGetNamedBufferSubDataEXT@OpenGLErrorChecker@OGL@AIF@@UAEXPBDIIHHPAX@Z" PURGE="24" COMMENT="" />
    <EXPORT ORDINAL="2120" NAME="?cgmGetNamedBufferSubDataEXT@OpenGLRekorder@OGL@AIF@@UAEXPBDIIHHPAX@Z" PURGE="-1" COMMENT="" />
    <EXPORT ORDINAL="2121" NAME="?cgmGetNamedBufferSubDataEXT@OpenGLTracer@OGL@AIF@@UAEXPBDIIHHPAX@Z" PURGE="24" COMMENT="" />
    <EXPORT ORDINAL="2122" NAME="?cgmGetNamedFramebufferAttachmentParameterivEXT@OpenGLErrorChecker@OGL@AIF@@UAEXPBDIIIIPAH@Z" PURGE="24" COMMENT="" />
    <EXPORT ORDINAL="2123" NAME="?cgmGetNamedFramebufferAttachmentParameterivEXT@OpenGLRekorder@OGL@AIF@@UAEXPBDIIIIPAH@Z" PURGE="-1" COMMENT="" />
    <EXPORT ORDINAL="2124" NAME="?cgmGetNamedFramebufferAttachmentParameterivEXT@OpenGLTracer@OGL@AIF@@UAEXPBDIIIIPAH@Z" PURGE="24" COMMENT="" />
    <EXPORT ORDINAL="2125" NAME="?cgmGetNamedProgramLocalParameterIivEXT@OpenGLErrorChecker@OGL@AIF@@UAEXPBDIIIIPAH@Z" PURGE="24" COMMENT="" />
    <EXPORT ORDINAL="2126" NAME="?cgmGetNamedProgramLocalParameterIivEXT@OpenGLRekorder@OGL@AIF@@UAEXPBDIIIIPAH@Z" PURGE="-1" COMMENT="" />
    <EXPORT ORDINAL="2127" NAME="?cgmGetNamedProgramLocalParameterIivEXT@OpenGLTracer@OGL@AIF@@UAEXPBDIIIIPAH@Z" PURGE="24" COMMENT="" />
    <EXPORT ORDINAL="2128" NAME="?cgmGetNamedProgramLocalParameterIuivEXT@OpenGLErrorChecker@OGL@AIF@@UAEXPBDIIIIPAI@Z" PURGE="24" COMMENT="" />
    <EXPORT ORDINAL="2129" NAME="?cgmGetNamedProgramLocalParameterIuivEXT@OpenGLRekorder@OGL@AIF@@UAEXPBDIIIIPAI@Z" PURGE="-1" COMMENT="" />
    <EXPORT ORDINAL="2130" NAME="?cgmGetNamedProgramLocalParameterIuivEXT@OpenGLTracer@OGL@AIF@@UAEXPBDIIIIPAI@Z" PURGE="24" COMMENT="" />
    <EXPORT ORDINAL="2131" NAME="?cgmGetNamedProgramLocalParameterdvEXT@OpenGLErrorChecker@OGL@AIF@@UAEXPBDIIIIPAN@Z" PURGE="24" COMMENT="" />
    <EXPORT ORDINAL="2132" NAME="?cgmGetNamedProgramLocalParameterdvEXT@OpenGLRekorder@OGL@AIF@@UAEXPBDIIIIPAN@Z" PURGE="-1" COMMENT="" />
    <EXPORT ORDINAL="2133" NAME="?cgmGetNamedProgramLocalParameterdvEXT@OpenGLTracer@OGL@AIF@@UAEXPBDIIIIPAN@Z" PURGE="24" COMMENT="" />
    <EXPORT ORDINAL="2134" NAME="?cgmGetNamedProgramLocalParameterfvEXT@OpenGLErrorChecker@OGL@AIF@@UAEXPBDIIIIPAM@Z" PURGE="24" COMMENT="" />
    <EXPORT ORDINAL="2135" NAME="?cgmGetNamedProgramLocalParameterfvEXT@OpenGLRekorder@OGL@AIF@@UAEXPBDIIIIPAM@Z" PURGE="-1" COMMENT="" />
    <EXPORT ORDINAL="2136" NAME="?cgmGetNamedProgramLocalParameterfvEXT@OpenGLTracer@OGL@AIF@@UAEXPBDIIIIPAM@Z" PURGE="24" COMMENT="" />
    <EXPORT ORDINAL="2137" NAME="?cgmGetNamedProgramStringEXT@OpenGLErrorChecker@OGL@AIF@@UAEXPBDIIIIPAX@Z" PURGE="24" COMMENT="" />
    <EXPORT ORDINAL="2138" NAME="?cgmGetNamedProgramStringEXT@OpenGLRekorder@OGL@AIF@@UAEXPBDIIIIPAX@Z" PURGE="-1" COMMENT="" />
    <EXPORT ORDINAL="2139" NAME="?cgmGetNamedProgramStringEXT@OpenGLTracer@OGL@AIF@@UAEXPBDIIIIPAX@Z" PURGE="24" COMMENT="" />
    <EXPORT ORDINAL="2140" NAME="?cgmGetNamedProgramivEXT@OpenGLErrorChecker@OGL@AIF@@UAEXPBDIIIIPAH@Z" PURGE="24" COMMENT="" />
    <EXPORT ORDINAL="2141" NAME="?cgmGetNamedProgramivEXT@OpenGLRekorder@OGL@AIF@@UAEXPBDIIIIPAH@Z" PURGE="-1" COMMENT="" />
    <EXPORT ORDINAL="2142" NAME="?cgmGetNamedProgramivEXT@OpenGLTracer@OGL@AIF@@UAEXPBDIIIIPAH@Z" PURGE="24" COMMENT="" />
    <EXPORT ORDINAL="2143" NAME="?cgmGetNamedRenderbufferParameterivEXT@OpenGLErrorChecker@OGL@AIF@@UAEXPBDIIIPAH@Z" PURGE="20" COMMENT="" />
    <EXPORT ORDINAL="2144" NAME="?cgmGetNamedRenderbufferParameterivEXT@OpenGLRekorder@OGL@AIF@@UAEXPBDIIIPAH@Z" PURGE="-1" COMMENT="" />
    <EXPORT ORDINAL="2145" NAME="?cgmGetNamedRenderbufferParameterivEXT@OpenGLTracer@OGL@AIF@@UAEXPBDIIIPAH@Z" PURGE="20" COMMENT="" />
    <EXPORT ORDINAL="2146" NAME="?cgmGetObjectBufferfvATI@OpenGLErrorChecker@OGL@AIF@@UAEXPBDIIIPAM@Z" PURGE="20" COMMENT="" />
    <EXPORT ORDINAL="2147" NAME="?cgmGetObjectBufferfvATI@OpenGLRekorder@OGL@AIF@@UAEXPBDIIIPAM@Z" PURGE="-1" COMMENT="" />
    <EXPORT ORDINAL="2148" NAME="?cgmGetObjectBufferfvATI@OpenGLTracer@OGL@AIF@@UAEXPBDIIIPAM@Z" PURGE="20" COMMENT="" />
    <EXPORT ORDINAL="2149" NAME="?cgmGetObjectBufferivATI@OpenGLErrorChecker@OGL@AIF@@UAEXPBDIIIPAH@Z" PURGE="20" COMMENT="" />
    <EXPORT ORDINAL="2150" NAME="?cgmGetObjectBufferivATI@OpenGLRekorder@OGL@AIF@@UAEXPBDIIIPAH@Z" PURGE="-1" COMMENT="" />
    <EXPORT ORDINAL="2151" NAME="?cgmGetObjectBufferivATI@OpenGLTracer@OGL@AIF@@UAEXPBDIIIPAH@Z" PURGE="20" COMMENT="" />
    <EXPORT ORDINAL="2152" NAME="?cgmGetObjectParameterfvARB@OpenGLErrorChecker@OGL@AIF@@UAEXPBDIIIPAM@Z" PURGE="20" COMMENT="" />
    <EXPORT ORDINAL="2153" NAME="?cgmGetObjectParameterfvARB@OpenGLRekorder@OGL@AIF@@UAEXPBDIIIPAM@Z" PURGE="20" COMMENT="" />
    <EXPORT ORDINAL="2154" NAME="?cgmGetObjectParameterfvARB@OpenGLTracer@OGL@AIF@@UAEXPBDIIIPAM@Z" PURGE="20" COMMENT="" />
    <EXPORT ORDINAL="2155" NAME="?cgmGetObjectParameterivARB@OpenGLErrorChecker@OGL@AIF@@UAEXPBDIIIPAH@Z" PURGE="20" COMMENT="" />
    <EXPORT ORDINAL="2156" NAME="?cgmGetObjectParameterivARB@OpenGLRekorder@OGL@AIF@@UAEXPBDIIIPAH@Z" PURGE="20" COMMENT="" />
    <EXPORT ORDINAL="2157" NAME="?cgmGetObjectParameterivARB@OpenGLTracer@OGL@AIF@@UAEXPBDIIIPAH@Z" PURGE="20" COMMENT="" />
    <EXPORT ORDINAL="2158" NAME="?cgmGetOcclusionQueryivNV@OpenGLErrorChecker@OGL@AIF@@UAEXPBDIIIPAH@Z" PURGE="20" COMMENT="" />
    <EXPORT ORDINAL="2159" NAME="?cgmGetOcclusionQueryivNV@OpenGLRekorder@OGL@AIF@@UAEXPBDIIIPAH@Z" PURGE="-1" COMMENT="" />
    <EXPORT ORDINAL="2160" NAME="?cgmGetOcclusionQueryivNV@OpenGLTracer@OGL@AIF@@UAEXPBDIIIPAH@Z" PURGE="20" COMMENT="" />
    <EXPORT ORDINAL="2161" NAME="?cgmGetOcclusionQueryuivNV@OpenGLErrorChecker@OGL@AIF@@UAEXPBDIIIPAI@Z" PURGE="20" COMMENT="" />
    <EXPORT ORDINAL="2162" NAME="?cgmGetOcclusionQueryuivNV@OpenGLRekorder@OGL@AIF@@UAEXPBDIIIPAI@Z" PURGE="-1" COMMENT="" />
    <EXPORT ORDINAL="2163" NAME="?cgmGetOcclusionQueryuivNV@OpenGLTracer@OGL@AIF@@UAEXPBDIIIPAI@Z" PURGE="20" COMMENT="" />
    <EXPORT ORDINAL="2164" NAME="?cgmGetPixelMapfv@OpenGLErrorChecker@OGL@AIF@@UAEXPBDIIPAM@Z" PURGE="16" COMMENT="" />
    <EXPORT ORDINAL="2165" NAME="?cgmGetPixelMapfv@OpenGLRekorder@OGL@AIF@@UAEXPBDIIPAM@Z" PURGE="-1" COMMENT="" />
    <EXPORT ORDINAL="2166" NAME="?cgmGetPixelMapfv@OpenGLTracer@OGL@AIF@@UAEXPBDIIPAM@Z" PURGE="16" COMMENT="" />
    <EXPORT ORDINAL="2167" NAME="?cgmGetPixelMapuiv@OpenGLErrorChecker@OGL@AIF@@UAEXPBDIIPAI@Z" PURGE="16" COMMENT="" />
    <EXPORT ORDINAL="2168" NAME="?cgmGetPixelMapuiv@OpenGLRekorder@OGL@AIF@@UAEXPBDIIPAI@Z" PURGE="-1" COMMENT="" />
    <EXPORT ORDINAL="2169" NAME="?cgmGetPixelMapuiv@OpenGLTracer@OGL@AIF@@UAEXPBDIIPAI@Z" PURGE="16" COMMENT="" />
    <EXPORT ORDINAL="2170" NAME="?cgmGetPixelMapusv@OpenGLErrorChecker@OGL@AIF@@UAEXPBDIIPAG@Z" PURGE="16" COMMENT="" />
    <EXPORT ORDINAL="2171" NAME="?cgmGetPixelMapusv@OpenGLRekorder@OGL@AIF@@UAEXPBDIIPAG@Z" PURGE="-1" COMMENT="" />
    <EXPORT ORDINAL="2172" NAME="?cgmGetPixelMapusv@OpenGLTracer@OGL@AIF@@UAEXPBDIIPAG@Z" PURGE="16" COMMENT="" />
    <EXPORT ORDINAL="2173" NAME="?cgmGetPixelTransformParameterfvEXT@OpenGLErrorChecker@OGL@AIF@@UAEXPBDIIIPBM@Z" PURGE="20" COMMENT="" />
    <EXPORT ORDINAL="2174" NAME="?cgmGetPixelTransformParameterfvEXT@OpenGLRekorder@OGL@AIF@@UAEXPBDIIIPBM@Z" PURGE="-1" COMMENT="" />
    <EXPORT ORDINAL="2175" NAME="?cgmGetPixelTransformParameterfvEXT@OpenGLTracer@OGL@AIF@@UAEXPBDIIIPBM@Z" PURGE="20" COMMENT="" />
    <EXPORT ORDINAL="2176" NAME="?cgmGetPixelTransformParameterivEXT@OpenGLErrorChecker@OGL@AIF@@UAEXPBDIIIPBH@Z" PURGE="20" COMMENT="" />
    <EXPORT ORDINAL="2177" NAME="?cgmGetPixelTransformParameterivEXT@OpenGLRekorder@OGL@AIF@@UAEXPBDIIIPBH@Z" PURGE="-1" COMMENT="" />
    <EXPORT ORDINAL="2178" NAME="?cgmGetPixelTransformParameterivEXT@OpenGLTracer@OGL@AIF@@UAEXPBDIIIPBH@Z" PURGE="20" COMMENT="" />
    <EXPORT ORDINAL="2179" NAME="?cgmGetPointerIndexedvEXT@OpenGLErrorChecker@OGL@AIF@@UAEXPBDIIIPAPAX@Z" PURGE="20" COMMENT="" />
    <EXPORT ORDINAL="2180" NAME="?cgmGetPointerIndexedvEXT@OpenGLRekorder@OGL@AIF@@UAEXPBDIIIPAPAX@Z" PURGE="-1" COMMENT="" />
    <EXPORT ORDINAL="2181" NAME="?cgmGetPointerIndexedvEXT@OpenGLTracer@OGL@AIF@@UAEXPBDIIIPAPAX@Z" PURGE="20" COMMENT="" />
    <EXPORT ORDINAL="2182" NAME="?cgmGetPointerv@OpenGLErrorChecker@OGL@AIF@@UAEXPBDIIPAPAX@Z" PURGE="16" COMMENT="" />
    <EXPORT ORDINAL="2183" NAME="?cgmGetPointerv@OpenGLRekorder@OGL@AIF@@UAEXPBDIIPAPAX@Z" PURGE="-1" COMMENT="" />
    <EXPORT ORDINAL="2184" NAME="?cgmGetPointerv@OpenGLTracer@OGL@AIF@@UAEXPBDIIPAPAX@Z" PURGE="16" COMMENT="" />
    <EXPORT ORDINAL="2185" NAME="?cgmGetPointervEXT@OpenGLErrorChecker@OGL@AIF@@UAEXPBDIIPAPAX@Z" PURGE="16" COMMENT="" />
    <EXPORT ORDINAL="2186" NAME="?cgmGetPointervEXT@OpenGLRekorder@OGL@AIF@@UAEXPBDIIPAPAX@Z" PURGE="-1" COMMENT="" />
    <EXPORT ORDINAL="2187" NAME="?cgmGetPointervEXT@OpenGLTracer@OGL@AIF@@UAEXPBDIIPAPAX@Z" PURGE="16" COMMENT="" />
    <EXPORT ORDINAL="2188" NAME="?cgmGetPolygonStipple@OpenGLErrorChecker@OGL@AIF@@UAEXPBDIPAE@Z" PURGE="12" COMMENT="" />
    <EXPORT ORDINAL="2189" NAME="?cgmGetPolygonStipple@OpenGLRekorder@OGL@AIF@@UAEXPBDIPAE@Z" PURGE="-1" COMMENT="" />
    <EXPORT ORDINAL="2190" NAME="?cgmGetPolygonStipple@OpenGLTracer@OGL@AIF@@UAEXPBDIPAE@Z" PURGE="12" COMMENT="" />
    <EXPORT ORDINAL="2191" NAME="?cgmGetProgramEnvParameterdvARB@OpenGLErrorChecker@OGL@AIF@@UAEXPBDIIIPAN@Z" PURGE="20" COMMENT="" />
    <EXPORT ORDINAL="2192" NAME="?cgmGetProgramEnvParameterdvARB@OpenGLRekorder@OGL@AIF@@UAEXPBDIIIPAN@Z" PURGE="-1" COMMENT="" />
    <EXPORT ORDINAL="2193" NAME="?cgmGetProgramEnvParameterdvARB@OpenGLTracer@OGL@AIF@@UAEXPBDIIIPAN@Z" PURGE="20" COMMENT="" />
    <EXPORT ORDINAL="2194" NAME="?cgmGetProgramEnvParameterfvARB@OpenGLErrorChecker@OGL@AIF@@UAEXPBDIIIPAM@Z" PURGE="20" COMMENT="" />
    <EXPORT ORDINAL="2195" NAME="?cgmGetProgramEnvParameterfvARB@OpenGLRekorder@OGL@AIF@@UAEXPBDIIIPAM@Z" PURGE="-1" COMMENT="" />
    <EXPORT ORDINAL="2196" NAME="?cgmGetProgramEnvParameterfvARB@OpenGLTracer@OGL@AIF@@UAEXPBDIIIPAM@Z" PURGE="20" COMMENT="" />
    <EXPORT ORDINAL="2197" NAME="?cgmGetProgramInfoLog@OpenGLErrorChecker@OGL@AIF@@UAEXPBDIIHPAHPAD@Z" PURGE="24" COMMENT="" />
    <EXPORT ORDINAL="2198" NAME="?cgmGetProgramInfoLog@OpenGLRekorder@OGL@AIF@@UAEXPBDIIHPAHPAD@Z" PURGE="24" COMMENT="" />
    <EXPORT ORDINAL="2199" NAME="?cgmGetProgramInfoLog@OpenGLTracer@OGL@AIF@@UAEXPBDIIHPAHPAD@Z" PURGE="24" COMMENT="" />
    <EXPORT ORDINAL="2200" NAME="?cgmGetProgramLocalParameterdvARB@OpenGLErrorChecker@OGL@AIF@@UAEXPBDIIIPAN@Z" PURGE="20" COMMENT="" />
    <EXPORT ORDINAL="2201" NAME="?cgmGetProgramLocalParameterdvARB@OpenGLRekorder@OGL@AIF@@UAEXPBDIIIPAN@Z" PURGE="-1" COMMENT="" />
    <EXPORT ORDINAL="2202" NAME="?cgmGetProgramLocalParameterdvARB@OpenGLTracer@OGL@AIF@@UAEXPBDIIIPAN@Z" PURGE="20" COMMENT="" />
    <EXPORT ORDINAL="2203" NAME="?cgmGetProgramLocalParameterfvARB@OpenGLErrorChecker@OGL@AIF@@UAEXPBDIIIPAM@Z" PURGE="20" COMMENT="" />
    <EXPORT ORDINAL="2204" NAME="?cgmGetProgramLocalParameterfvARB@OpenGLRekorder@OGL@AIF@@UAEXPBDIIIPAM@Z" PURGE="-1" COMMENT="" />
    <EXPORT ORDINAL="2205" NAME="?cgmGetProgramLocalParameterfvARB@OpenGLTracer@OGL@AIF@@UAEXPBDIIIPAM@Z" PURGE="20" COMMENT="" />
    <EXPORT ORDINAL="2206" NAME="?cgmGetProgramNamedParameterdvNV@OpenGLErrorChecker@OGL@AIF@@UAEXPBDIIHPBEPAN@Z" PURGE="24" COMMENT="" />
    <EXPORT ORDINAL="2207" NAME="?cgmGetProgramNamedParameterdvNV@OpenGLRekorder@OGL@AIF@@UAEXPBDIIHPBEPAN@Z" PURGE="-1" COMMENT="" />
    <EXPORT ORDINAL="2208" NAME="?cgmGetProgramNamedParameterdvNV@OpenGLTracer@OGL@AIF@@UAEXPBDIIHPBEPAN@Z" PURGE="24" COMMENT="" />
    <EXPORT ORDINAL="2209" NAME="?cgmGetProgramNamedParameterfvNV@OpenGLErrorChecker@OGL@AIF@@UAEXPBDIIHPBEPAM@Z" PURGE="24" COMMENT="" />
    <EXPORT ORDINAL="2210" NAME="?cgmGetProgramNamedParameterfvNV@OpenGLRekorder@OGL@AIF@@UAEXPBDIIHPBEPAM@Z" PURGE="-1" COMMENT="" />
    <EXPORT ORDINAL="2211" NAME="?cgmGetProgramNamedParameterfvNV@OpenGLTracer@OGL@AIF@@UAEXPBDIIHPBEPAM@Z" PURGE="24" COMMENT="" />
    <EXPORT ORDINAL="2212" NAME="?cgmGetProgramParameterdvNV@OpenGLErrorChecker@OGL@AIF@@UAEXPBDIIIIPAN@Z" PURGE="24" COMMENT="" />
    <EXPORT ORDINAL="2213" NAME="?cgmGetProgramParameterdvNV@OpenGLRekorder@OGL@AIF@@UAEXPBDIIIIPAN@Z" PURGE="-1" COMMENT="" />
    <EXPORT ORDINAL="2214" NAME="?cgmGetProgramParameterdvNV@OpenGLTracer@OGL@AIF@@UAEXPBDIIIIPAN@Z" PURGE="24" COMMENT="" />
    <EXPORT ORDINAL="2215" NAME="?cgmGetProgramParameterfvNV@OpenGLErrorChecker@OGL@AIF@@UAEXPBDIIIIPAM@Z" PURGE="24" COMMENT="" />
    <EXPORT ORDINAL="2216" NAME="?cgmGetProgramParameterfvNV@OpenGLRekorder@OGL@AIF@@UAEXPBDIIIIPAM@Z" PURGE="-1" COMMENT="" />
    <EXPORT ORDINAL="2217" NAME="?cgmGetProgramParameterfvNV@OpenGLTracer@OGL@AIF@@UAEXPBDIIIIPAM@Z" PURGE="24" COMMENT="" />
    <EXPORT ORDINAL="2218" NAME="?cgmGetProgramStringARB@OpenGLErrorChecker@OGL@AIF@@UAEXPBDIIIPAX@Z" PURGE="20" COMMENT="" />
    <EXPORT ORDINAL="2219" NAME="?cgmGetProgramStringARB@OpenGLRekorder@OGL@AIF@@UAEXPBDIIIPAX@Z" PURGE="-1" COMMENT="" />
    <EXPORT ORDINAL="2220" NAME="?cgmGetProgramStringARB@OpenGLTracer@OGL@AIF@@UAEXPBDIIIPAX@Z" PURGE="20" COMMENT="" />
    <EXPORT ORDINAL="2221" NAME="?cgmGetProgramStringNV@OpenGLErrorChecker@OGL@AIF@@UAEXPBDIIIPAE@Z" PURGE="20" COMMENT="" />
    <EXPORT ORDINAL="2222" NAME="?cgmGetProgramStringNV@OpenGLRekorder@OGL@AIF@@UAEXPBDIIIPAE@Z" PURGE="-1" COMMENT="" />
    <EXPORT ORDINAL="2223" NAME="?cgmGetProgramStringNV@OpenGLTracer@OGL@AIF@@UAEXPBDIIIPAE@Z" PURGE="20" COMMENT="" />
    <EXPORT ORDINAL="2224" NAME="?cgmGetProgramiv@OpenGLErrorChecker@OGL@AIF@@UAEXPBDIIIPAH@Z" PURGE="20" COMMENT="" />
    <EXPORT ORDINAL="2225" NAME="?cgmGetProgramiv@OpenGLRekorder@OGL@AIF@@UAEXPBDIIIPAH@Z" PURGE="20" COMMENT="" />
    <EXPORT ORDINAL="2226" NAME="?cgmGetProgramiv@OpenGLTracer@OGL@AIF@@UAEXPBDIIIPAH@Z" PURGE="20" COMMENT="" />
    <EXPORT ORDINAL="2227" NAME="?cgmGetProgramivARB@OpenGLErrorChecker@OGL@AIF@@UAEXPBDIIIPAH@Z" PURGE="20" COMMENT="" />
    <EXPORT ORDINAL="2228" NAME="?cgmGetProgramivARB@OpenGLRekorder@OGL@AIF@@UAEXPBDIIIPAH@Z" PURGE="-1" COMMENT="" />
    <EXPORT ORDINAL="2229" NAME="?cgmGetProgramivARB@OpenGLTracer@OGL@AIF@@UAEXPBDIIIPAH@Z" PURGE="20" COMMENT="" />
    <EXPORT ORDINAL="2230" NAME="?cgmGetProgramivNV@OpenGLErrorChecker@OGL@AIF@@UAEXPBDIIIPAH@Z" PURGE="20" COMMENT="" />
    <EXPORT ORDINAL="2231" NAME="?cgmGetProgramivNV@OpenGLRekorder@OGL@AIF@@UAEXPBDIIIPAH@Z" PURGE="-1" COMMENT="" />
    <EXPORT ORDINAL="2232" NAME="?cgmGetProgramivNV@OpenGLTracer@OGL@AIF@@UAEXPBDIIIPAH@Z" PURGE="20" COMMENT="" />
    <EXPORT ORDINAL="2233" NAME="?cgmGetQueryObjecti64vEXT@OpenGLErrorChecker@OGL@AIF@@UAEXPBDIIIPA_J@Z" PURGE="20" COMMENT="" />
    <EXPORT ORDINAL="2234" NAME="?cgmGetQueryObjecti64vEXT@OpenGLRekorder@OGL@AIF@@UAEXPBDIIIPA_J@Z" PURGE="-1" COMMENT="" />
    <EXPORT ORDINAL="2235" NAME="?cgmGetQueryObjecti64vEXT@OpenGLTracer@OGL@AIF@@UAEXPBDIIIPA_J@Z" PURGE="20" COMMENT="" />
    <EXPORT ORDINAL="2236" NAME="?cgmGetQueryObjectiv@OpenGLErrorChecker@OGL@AIF@@UAEXPBDIIIPAH@Z" PURGE="20" COMMENT="" />
    <EXPORT ORDINAL="2237" NAME="?cgmGetQueryObjectiv@OpenGLRekorder@OGL@AIF@@UAEXPBDIIIPAH@Z" PURGE="-1" COMMENT="" />
    <EXPORT ORDINAL="2238" NAME="?cgmGetQueryObjectiv@OpenGLTracer@OGL@AIF@@UAEXPBDIIIPAH@Z" PURGE="20" COMMENT="" />
    <EXPORT ORDINAL="2239" NAME="?cgmGetQueryObjectivARB@OpenGLErrorChecker@OGL@AIF@@UAEXPBDIIIPAH@Z" PURGE="20" COMMENT="" />
    <EXPORT ORDINAL="2240" NAME="?cgmGetQueryObjectivARB@OpenGLRekorder@OGL@AIF@@UAEXPBDIIIPAH@Z" PURGE="-1" COMMENT="" />
    <EXPORT ORDINAL="2241" NAME="?cgmGetQueryObjectivARB@OpenGLTracer@OGL@AIF@@UAEXPBDIIIPAH@Z" PURGE="20" COMMENT="" />
    <EXPORT ORDINAL="2242" NAME="?cgmGetQueryObjectui64vEXT@OpenGLErrorChecker@OGL@AIF@@UAEXPBDIIIPA_K@Z" PURGE="20" COMMENT="" />
    <EXPORT ORDINAL="2243" NAME="?cgmGetQueryObjectui64vEXT@OpenGLRekorder@OGL@AIF@@UAEXPBDIIIPA_K@Z" PURGE="-1" COMMENT="" />
    <EXPORT ORDINAL="2244" NAME="?cgmGetQueryObjectui64vEXT@OpenGLTracer@OGL@AIF@@UAEXPBDIIIPA_K@Z" PURGE="20" COMMENT="" />
    <EXPORT ORDINAL="2245" NAME="?cgmGetQueryObjectuiv@OpenGLErrorChecker@OGL@AIF@@UAEXPBDIIIPAI@Z" PURGE="20" COMMENT="" />
    <EXPORT ORDINAL="2246" NAME="?cgmGetQueryObjectuiv@OpenGLRekorder@OGL@AIF@@UAEXPBDIIIPAI@Z" PURGE="-1" COMMENT="" />
    <EXPORT ORDINAL="2247" NAME="?cgmGetQueryObjectuiv@OpenGLTracer@OGL@AIF@@UAEXPBDIIIPAI@Z" PURGE="20" COMMENT="" />
    <EXPORT ORDINAL="2248" NAME="?cgmGetQueryObjectuivARB@OpenGLErrorChecker@OGL@AIF@@UAEXPBDIIIPAI@Z" PURGE="20" COMMENT="" />
    <EXPORT ORDINAL="2249" NAME="?cgmGetQueryObjectuivARB@OpenGLRekorder@OGL@AIF@@UAEXPBDIIIPAI@Z" PURGE="-1" COMMENT="" />
    <EXPORT ORDINAL="2250" NAME="?cgmGetQueryObjectuivARB@OpenGLTracer@OGL@AIF@@UAEXPBDIIIPAI@Z" PURGE="20" COMMENT="" />
    <EXPORT ORDINAL="2251" NAME="?cgmGetQueryiv@OpenGLErrorChecker@OGL@AIF@@UAEXPBDIIIPAH@Z" PURGE="20" COMMENT="" />
    <EXPORT ORDINAL="2252" NAME="?cgmGetQueryiv@OpenGLRekorder@OGL@AIF@@UAEXPBDIIIPAH@Z" PURGE="-1" COMMENT="" />
    <EXPORT ORDINAL="2253" NAME="?cgmGetQueryiv@OpenGLTracer@OGL@AIF@@UAEXPBDIIIPAH@Z" PURGE="20" COMMENT="" />
    <EXPORT ORDINAL="2254" NAME="?cgmGetQueryivARB@OpenGLErrorChecker@OGL@AIF@@UAEXPBDIIIPAH@Z" PURGE="20" COMMENT="" />
    <EXPORT ORDINAL="2255" NAME="?cgmGetQueryivARB@OpenGLRekorder@OGL@AIF@@UAEXPBDIIIPAH@Z" PURGE="-1" COMMENT="" />
    <EXPORT ORDINAL="2256" NAME="?cgmGetQueryivARB@OpenGLTracer@OGL@AIF@@UAEXPBDIIIPAH@Z" PURGE="20" COMMENT="" />
    <EXPORT ORDINAL="2257" NAME="?cgmGetRenderbufferParameteriv@OpenGLErrorChecker@OGL@AIF@@UAEXPBDIIIPAH@Z" PURGE="20" COMMENT="" />
    <EXPORT ORDINAL="2258" NAME="?cgmGetRenderbufferParameteriv@OpenGLRekorder@OGL@AIF@@UAEXPBDIIIPAH@Z" PURGE="-1" COMMENT="" />
    <EXPORT ORDINAL="2259" NAME="?cgmGetRenderbufferParameteriv@OpenGLTracer@OGL@AIF@@UAEXPBDIIIPAH@Z" PURGE="20" COMMENT="" />
    <EXPORT ORDINAL="2260" NAME="?cgmGetRenderbufferParameterivEXT@OpenGLErrorChecker@OGL@AIF@@UAEXPBDIIIPAH@Z" PURGE="20" COMMENT="" />
    <EXPORT ORDINAL="2261" NAME="?cgmGetRenderbufferParameterivEXT@OpenGLRekorder@OGL@AIF@@UAEXPBDIIIPAH@Z" PURGE="-1" COMMENT="" />
    <EXPORT ORDINAL="2262" NAME="?cgmGetRenderbufferParameterivEXT@OpenGLTracer@OGL@AIF@@UAEXPBDIIIPAH@Z" PURGE="20" COMMENT="" />
    <EXPORT ORDINAL="2263" NAME="?cgmGetSeparableFilter@OpenGLErrorChecker@OGL@AIF@@UAEXPBDIIIIPAX11@Z" PURGE="32" COMMENT="" />
    <EXPORT ORDINAL="2264" NAME="?cgmGetSeparableFilter@OpenGLRekorder@OGL@AIF@@UAEXPBDIIIIPAX11@Z" PURGE="-1" COMMENT="" />
    <EXPORT ORDINAL="2265" NAME="?cgmGetSeparableFilter@OpenGLTracer@OGL@AIF@@UAEXPBDIIIIPAX11@Z" PURGE="32" COMMENT="" />
    <EXPORT ORDINAL="2266" NAME="?cgmGetSeparableFilterEXT@OpenGLErrorChecker@OGL@AIF@@UAEXPBDIIIIPAX11@Z" PURGE="32" COMMENT="" />
    <EXPORT ORDINAL="2267" NAME="?cgmGetSeparableFilterEXT@OpenGLRekorder@OGL@AIF@@UAEXPBDIIIIPAX11@Z" PURGE="-1" COMMENT="" />
    <EXPORT ORDINAL="2268" NAME="?cgmGetSeparableFilterEXT@OpenGLTracer@OGL@AIF@@UAEXPBDIIIIPAX11@Z" PURGE="32" COMMENT="" />
    <EXPORT ORDINAL="2269" NAME="?cgmGetShaderInfoLog@OpenGLErrorChecker@OGL@AIF@@UAEXPBDIIHPAHPAD@Z" PURGE="24" COMMENT="" />
    <EXPORT ORDINAL="2270" NAME="?cgmGetShaderInfoLog@OpenGLRekorder@OGL@AIF@@UAEXPBDIIHPAHPAD@Z" PURGE="-1" COMMENT="" />
    <EXPORT ORDINAL="2271" NAME="?cgmGetShaderInfoLog@OpenGLTracer@OGL@AIF@@UAEXPBDIIHPAHPAD@Z" PURGE="24" COMMENT="" />
    <EXPORT ORDINAL="2272" NAME="?cgmGetShaderSource@OpenGLErrorChecker@OGL@AIF@@UAEXPBDIHHPAHPAD@Z" PURGE="24" COMMENT="" />
    <EXPORT ORDINAL="2273" NAME="?cgmGetShaderSource@OpenGLRekorder@OGL@AIF@@UAEXPBDIHHPAHPAD@Z" PURGE="-1" COMMENT="" />
    <EXPORT ORDINAL="2274" NAME="?cgmGetShaderSource@OpenGLTracer@OGL@AIF@@UAEXPBDIHHPAHPAD@Z" PURGE="24" COMMENT="" />
    <EXPORT ORDINAL="2275" NAME="?cgmGetShaderSourceARB@OpenGLErrorChecker@OGL@AIF@@UAEXPBDIIHPAHPAD@Z" PURGE="24" COMMENT="" />
    <EXPORT ORDINAL="2276" NAME="?cgmGetShaderSourceARB@OpenGLRekorder@OGL@AIF@@UAEXPBDIIHPAHPAD@Z" PURGE="-1" COMMENT="" />
    <EXPORT ORDINAL="2277" NAME="?cgmGetShaderSourceARB@OpenGLTracer@OGL@AIF@@UAEXPBDIIHPAHPAD@Z" PURGE="24" COMMENT="" />
    <EXPORT ORDINAL="2278" NAME="?cgmGetShaderiv@OpenGLErrorChecker@OGL@AIF@@UAEXPBDIIIPAH@Z" PURGE="20" COMMENT="" />
    <EXPORT ORDINAL="2279" NAME="?cgmGetShaderiv@OpenGLRekorder@OGL@AIF@@UAEXPBDIIIPAH@Z" PURGE="20" COMMENT="" />
    <EXPORT ORDINAL="2280" NAME="?cgmGetShaderiv@OpenGLTracer@OGL@AIF@@UAEXPBDIIIPAH@Z" PURGE="20" COMMENT="" />
    <EXPORT ORDINAL="2281" NAME="?cgmGetSharpenTexFuncSGIS@OpenGLErrorChecker@OGL@AIF@@UAEXPBDIIPAM@Z" PURGE="16" COMMENT="" />
    <EXPORT ORDINAL="2282" NAME="?cgmGetSharpenTexFuncSGIS@OpenGLRekorder@OGL@AIF@@UAEXPBDIIPAM@Z" PURGE="-1" COMMENT="" />
    <EXPORT ORDINAL="2283" NAME="?cgmGetSharpenTexFuncSGIS@OpenGLTracer@OGL@AIF@@UAEXPBDIIPAM@Z" PURGE="16" COMMENT="" />
    <EXPORT ORDINAL="2284" NAME="?cgmGetString@OpenGLErrorChecker@OGL@AIF@@UAEPBEPBDII@Z" PURGE="12" COMMENT="" />
    <EXPORT ORDINAL="2285" NAME="?cgmGetString@OpenGLRekorder@OGL@AIF@@UAEPBEPBDII@Z" PURGE="12" COMMENT="" />
    <EXPORT ORDINAL="2286" NAME="?cgmGetString@OpenGLTracer@OGL@AIF@@UAEPBEPBDII@Z" PURGE="12" COMMENT="" />
    <EXPORT ORDINAL="2287" NAME="?cgmGetStringi@OpenGLErrorChecker@OGL@AIF@@UAEPBEPBDIII@Z" PURGE="16" COMMENT="" />
    <EXPORT ORDINAL="2288" NAME="?cgmGetStringi@OpenGLRekorder@OGL@AIF@@UAEPBEPBDIII@Z" PURGE="16" COMMENT="" />
    <EXPORT ORDINAL="2289" NAME="?cgmGetStringi@OpenGLTracer@OGL@AIF@@UAEPBEPBDIII@Z" PURGE="16" COMMENT="" />
    <EXPORT ORDINAL="2290" NAME="?cgmGetTexBumpParameterfvATI@OpenGLErrorChecker@OGL@AIF@@UAEXPBDIIPAM@Z" PURGE="16" COMMENT="" />
    <EXPORT ORDINAL="2291" NAME="?cgmGetTexBumpParameterfvATI@OpenGLRekorder@OGL@AIF@@UAEXPBDIIPAM@Z" PURGE="-1" COMMENT="" />
    <EXPORT ORDINAL="2292" NAME="?cgmGetTexBumpParameterfvATI@OpenGLTracer@OGL@AIF@@UAEXPBDIIPAM@Z" PURGE="16" COMMENT="" />
    <EXPORT ORDINAL="2293" NAME="?cgmGetTexBumpParameterivATI@OpenGLErrorChecker@OGL@AIF@@UAEXPBDIIPAH@Z" PURGE="16" COMMENT="" />
    <EXPORT ORDINAL="2294" NAME="?cgmGetTexBumpParameterivATI@OpenGLRekorder@OGL@AIF@@UAEXPBDIIPAH@Z" PURGE="-1" COMMENT="" />
    <EXPORT ORDINAL="2295" NAME="?cgmGetTexBumpParameterivATI@OpenGLTracer@OGL@AIF@@UAEXPBDIIPAH@Z" PURGE="16" COMMENT="" />
    <EXPORT ORDINAL="2296" NAME="?cgmGetTexEnvfv@OpenGLErrorChecker@OGL@AIF@@UAEXPBDIIIPAM@Z" PURGE="20" COMMENT="" />
    <EXPORT ORDINAL="2297" NAME="?cgmGetTexEnvfv@OpenGLRekorder@OGL@AIF@@UAEXPBDIIIPAM@Z" PURGE="-1" COMMENT="" />
    <EXPORT ORDINAL="2298" NAME="?cgmGetTexEnvfv@OpenGLTracer@OGL@AIF@@UAEXPBDIIIPAM@Z" PURGE="20" COMMENT="" />
    <EXPORT ORDINAL="2299" NAME="?cgmGetTexEnviv@OpenGLErrorChecker@OGL@AIF@@UAEXPBDIIIPAH@Z" PURGE="20" COMMENT="" />
    <EXPORT ORDINAL="2300" NAME="?cgmGetTexEnviv@OpenGLRekorder@OGL@AIF@@UAEXPBDIIIPAH@Z" PURGE="-1" COMMENT="" />
    <EXPORT ORDINAL="2301" NAME="?cgmGetTexEnviv@OpenGLTracer@OGL@AIF@@UAEXPBDIIIPAH@Z" PURGE="20" COMMENT="" />
    <EXPORT ORDINAL="2302" NAME="?cgmGetTexFilterFuncSGIS@OpenGLErrorChecker@OGL@AIF@@UAEXPBDIIIPAM@Z" PURGE="20" COMMENT="" />
    <EXPORT ORDINAL="2303" NAME="?cgmGetTexFilterFuncSGIS@OpenGLRekorder@OGL@AIF@@UAEXPBDIIIPAM@Z" PURGE="-1" COMMENT="" />
    <EXPORT ORDINAL="2304" NAME="?cgmGetTexFilterFuncSGIS@OpenGLTracer@OGL@AIF@@UAEXPBDIIIPAM@Z" PURGE="20" COMMENT="" />
    <EXPORT ORDINAL="2305" NAME="?cgmGetTexGendv@OpenGLErrorChecker@OGL@AIF@@UAEXPBDIIIPAN@Z" PURGE="20" COMMENT="" />
    <EXPORT ORDINAL="2306" NAME="?cgmGetTexGendv@OpenGLRekorder@OGL@AIF@@UAEXPBDIIIPAN@Z" PURGE="-1" COMMENT="" />
    <EXPORT ORDINAL="2307" NAME="?cgmGetTexGendv@OpenGLTracer@OGL@AIF@@UAEXPBDIIIPAN@Z" PURGE="20" COMMENT="" />
    <EXPORT ORDINAL="2308" NAME="?cgmGetTexGenfv@OpenGLErrorChecker@OGL@AIF@@UAEXPBDIIIPAM@Z" PURGE="20" COMMENT="" />
    <EXPORT ORDINAL="2309" NAME="?cgmGetTexGenfv@OpenGLRekorder@OGL@AIF@@UAEXPBDIIIPAM@Z" PURGE="-1" COMMENT="" />
    <EXPORT ORDINAL="2310" NAME="?cgmGetTexGenfv@OpenGLTracer@OGL@AIF@@UAEXPBDIIIPAM@Z" PURGE="20" COMMENT="" />
    <EXPORT ORDINAL="2311" NAME="?cgmGetTexGeniv@OpenGLErrorChecker@OGL@AIF@@UAEXPBDIIIPAH@Z" PURGE="20" COMMENT="" />
    <EXPORT ORDINAL="2312" NAME="?cgmGetTexGeniv@OpenGLRekorder@OGL@AIF@@UAEXPBDIIIPAH@Z" PURGE="-1" COMMENT="" />
    <EXPORT ORDINAL="2313" NAME="?cgmGetTexGeniv@OpenGLTracer@OGL@AIF@@UAEXPBDIIIPAH@Z" PURGE="20" COMMENT="" />
    <EXPORT ORDINAL="2314" NAME="?cgmGetTexImage@OpenGLErrorChecker@OGL@AIF@@UAEXPBDIIHIIPAX@Z" PURGE="28" COMMENT="" />
    <EXPORT ORDINAL="2315" NAME="?cgmGetTexImage@OpenGLRekorder@OGL@AIF@@UAEXPBDIIHIIPAX@Z" PURGE="-1" COMMENT="" />
    <EXPORT ORDINAL="2316" NAME="?cgmGetTexImage@OpenGLTracer@OGL@AIF@@UAEXPBDIIHIIPAX@Z" PURGE="28" COMMENT="" />
    <EXPORT ORDINAL="2317" NAME="?cgmGetTexLevelParameterfv@OpenGLErrorChecker@OGL@AIF@@UAEXPBDIIHIPAM@Z" PURGE="24" COMMENT="" />
    <EXPORT ORDINAL="2318" NAME="?cgmGetTexLevelParameterfv@OpenGLRekorder@OGL@AIF@@UAEXPBDIIHIPAM@Z" PURGE="24" COMMENT="" />
    <EXPORT ORDINAL="2319" NAME="?cgmGetTexLevelParameterfv@OpenGLTracer@OGL@AIF@@UAEXPBDIIHIPAM@Z" PURGE="24" COMMENT="" />
    <EXPORT ORDINAL="2320" NAME="?cgmGetTexLevelParameteriv@OpenGLErrorChecker@OGL@AIF@@UAEXPBDIIHIPAH@Z" PURGE="24" COMMENT="" />
    <EXPORT ORDINAL="2321" NAME="?cgmGetTexLevelParameteriv@OpenGLRekorder@OGL@AIF@@UAEXPBDIIHIPAH@Z" PURGE="24" COMMENT="" />
    <EXPORT ORDINAL="2322" NAME="?cgmGetTexLevelParameteriv@OpenGLTracer@OGL@AIF@@UAEXPBDIIHIPAH@Z" PURGE="24" COMMENT="" />
    <EXPORT ORDINAL="2323" NAME="?cgmGetTexParameterIiv@OpenGLErrorChecker@OGL@AIF@@UAEXPBDIIIPAH@Z" PURGE="20" COMMENT="" />
    <EXPORT ORDINAL="2324" NAME="?cgmGetTexParameterIiv@OpenGLRekorder@OGL@AIF@@UAEXPBDIIIPAH@Z" PURGE="-1" COMMENT="" />
    <EXPORT ORDINAL="2325" NAME="?cgmGetTexParameterIiv@OpenGLTracer@OGL@AIF@@UAEXPBDIIIPAH@Z" PURGE="20" COMMENT="" />
    <EXPORT ORDINAL="2326" NAME="?cgmGetTexParameterIivEXT@OpenGLErrorChecker@OGL@AIF@@UAEXPBDIIIPAH@Z" PURGE="20" COMMENT="" />
    <EXPORT ORDINAL="2327" NAME="?cgmGetTexParameterIivEXT@OpenGLRekorder@OGL@AIF@@UAEXPBDIIIPAH@Z" PURGE="-1" COMMENT="" />
    <EXPORT ORDINAL="2328" NAME="?cgmGetTexParameterIivEXT@OpenGLTracer@OGL@AIF@@UAEXPBDIIIPAH@Z" PURGE="20" COMMENT="" />
    <EXPORT ORDINAL="2329" NAME="?cgmGetTexParameterIuiv@OpenGLErrorChecker@OGL@AIF@@UAEXPBDIIIPAI@Z" PURGE="20" COMMENT="" />
    <EXPORT ORDINAL="2330" NAME="?cgmGetTexParameterIuiv@OpenGLRekorder@OGL@AIF@@UAEXPBDIIIPAI@Z" PURGE="-1" COMMENT="" />
    <EXPORT ORDINAL="2331" NAME="?cgmGetTexParameterIuiv@OpenGLTracer@OGL@AIF@@UAEXPBDIIIPAI@Z" PURGE="20" COMMENT="" />
    <EXPORT ORDINAL="2332" NAME="?cgmGetTexParameterIuivEXT@OpenGLErrorChecker@OGL@AIF@@UAEXPBDIIIPAI@Z" PURGE="20" COMMENT="" />
    <EXPORT ORDINAL="2333" NAME="?cgmGetTexParameterIuivEXT@OpenGLRekorder@OGL@AIF@@UAEXPBDIIIPAI@Z" PURGE="-1" COMMENT="" />
    <EXPORT ORDINAL="2334" NAME="?cgmGetTexParameterIuivEXT@OpenGLTracer@OGL@AIF@@UAEXPBDIIIPAI@Z" PURGE="20" COMMENT="" />
    <EXPORT ORDINAL="2335" NAME="?cgmGetTexParameterPointervAPPLE@OpenGLErrorChecker@OGL@AIF@@UAEXPBDIIIPAPAX@Z" PURGE="20" COMMENT="" />
    <EXPORT ORDINAL="2336" NAME="?cgmGetTexParameterPointervAPPLE@OpenGLRekorder@OGL@AIF@@UAEXPBDIIIPAPAX@Z" PURGE="-1" COMMENT="" />
    <EXPORT ORDINAL="2337" NAME="?cgmGetTexParameterPointervAPPLE@OpenGLTracer@OGL@AIF@@UAEXPBDIIIPAPAX@Z" PURGE="20" COMMENT="" />
    <EXPORT ORDINAL="2338" NAME="?cgmGetTexParameterfv@OpenGLErrorChecker@OGL@AIF@@UAEXPBDIIIPAM@Z" PURGE="20" COMMENT="" />
    <EXPORT ORDINAL="2339" NAME="?cgmGetTexParameterfv@OpenGLRekorder@OGL@AIF@@UAEXPBDIIIPAM@Z" PURGE="-1" COMMENT="" />
    <EXPORT ORDINAL="2340" NAME="?cgmGetTexParameterfv@OpenGLTracer@OGL@AIF@@UAEXPBDIIIPAM@Z" PURGE="20" COMMENT="" />
    <EXPORT ORDINAL="2341" NAME="?cgmGetTexParameteriv@OpenGLErrorChecker@OGL@AIF@@UAEXPBDIIIPAH@Z" PURGE="20" COMMENT="" />
    <EXPORT ORDINAL="2342" NAME="?cgmGetTexParameteriv@OpenGLRekorder@OGL@AIF@@UAEXPBDIIIPAH@Z" PURGE="-1" COMMENT="" />
    <EXPORT ORDINAL="2343" NAME="?cgmGetTexParameteriv@OpenGLTracer@OGL@AIF@@UAEXPBDIIIPAH@Z" PURGE="20" COMMENT="" />
    <EXPORT ORDINAL="2344" NAME="?cgmGetTextureImageEXT@OpenGLErrorChecker@OGL@AIF@@UAEXPBDIIIHIIPAX@Z" PURGE="32" COMMENT="" />
    <EXPORT ORDINAL="2345" NAME="?cgmGetTextureImageEXT@OpenGLRekorder@OGL@AIF@@UAEXPBDIIIHIIPAX@Z" PURGE="-1" COMMENT="" />
    <EXPORT ORDINAL="2346" NAME="?cgmGetTextureImageEXT@OpenGLTracer@OGL@AIF@@UAEXPBDIIIHIIPAX@Z" PURGE="32" COMMENT="" />
    <EXPORT ORDINAL="2347" NAME="?cgmGetTextureLevelParameterfvEXT@OpenGLErrorChecker@OGL@AIF@@UAEXPBDIIIHIPAM@Z" PURGE="28" COMMENT="" />
    <EXPORT ORDINAL="2348" NAME="?cgmGetTextureLevelParameterfvEXT@OpenGLRekorder@OGL@AIF@@UAEXPBDIIIHIPAM@Z" PURGE="-1" COMMENT="" />
    <EXPORT ORDINAL="2349" NAME="?cgmGetTextureLevelParameterfvEXT@OpenGLTracer@OGL@AIF@@UAEXPBDIIIHIPAM@Z" PURGE="28" COMMENT="" />
    <EXPORT ORDINAL="2350" NAME="?cgmGetTextureLevelParameterivEXT@OpenGLErrorChecker@OGL@AIF@@UAEXPBDIIIHIPAH@Z" PURGE="28" COMMENT="" />
    <EXPORT ORDINAL="2351" NAME="?cgmGetTextureLevelParameterivEXT@OpenGLRekorder@OGL@AIF@@UAEXPBDIIIHIPAH@Z" PURGE="-1" COMMENT="" />
    <EXPORT ORDINAL="2352" NAME="?cgmGetTextureLevelParameterivEXT@OpenGLTracer@OGL@AIF@@UAEXPBDIIIHIPAH@Z" PURGE="28" COMMENT="" />
    <EXPORT ORDINAL="2353" NAME="?cgmGetTextureParameterIivEXT@OpenGLErrorChecker@OGL@AIF@@UAEXPBDIIIIPAH@Z" PURGE="24" COMMENT="" />
    <EXPORT ORDINAL="2354" NAME="?cgmGetTextureParameterIivEXT@OpenGLRekorder@OGL@AIF@@UAEXPBDIIIIPAH@Z" PURGE="-1" COMMENT="" />
    <EXPORT ORDINAL="2355" NAME="?cgmGetTextureParameterIivEXT@OpenGLTracer@OGL@AIF@@UAEXPBDIIIIPAH@Z" PURGE="24" COMMENT="" />
    <EXPORT ORDINAL="2356" NAME="?cgmGetTextureParameterIuivEXT@OpenGLErrorChecker@OGL@AIF@@UAEXPBDIIIIPAI@Z" PURGE="24" COMMENT="" />
    <EXPORT ORDINAL="2357" NAME="?cgmGetTextureParameterIuivEXT@OpenGLRekorder@OGL@AIF@@UAEXPBDIIIIPAI@Z" PURGE="-1" COMMENT="" />
    <EXPORT ORDINAL="2358" NAME="?cgmGetTextureParameterIuivEXT@OpenGLTracer@OGL@AIF@@UAEXPBDIIIIPAI@Z" PURGE="24" COMMENT="" />
    <EXPORT ORDINAL="2359" NAME="?cgmGetTextureParameterfvEXT@OpenGLErrorChecker@OGL@AIF@@UAEXPBDIIIIPAM@Z" PURGE="24" COMMENT="" />
    <EXPORT ORDINAL="2360" NAME="?cgmGetTextureParameterfvEXT@OpenGLRekorder@OGL@AIF@@UAEXPBDIIIIPAM@Z" PURGE="-1" COMMENT="" />
    <EXPORT ORDINAL="2361" NAME="?cgmGetTextureParameterfvEXT@OpenGLTracer@OGL@AIF@@UAEXPBDIIIIPAM@Z" PURGE="24" COMMENT="" />
    <EXPORT ORDINAL="2362" NAME="?cgmGetTextureParameterivEXT@OpenGLErrorChecker@OGL@AIF@@UAEXPBDIIIIPAH@Z" PURGE="24" COMMENT="" />
    <EXPORT ORDINAL="2363" NAME="?cgmGetTextureParameterivEXT@OpenGLRekorder@OGL@AIF@@UAEXPBDIIIIPAH@Z" PURGE="-1" COMMENT="" />
    <EXPORT ORDINAL="2364" NAME="?cgmGetTextureParameterivEXT@OpenGLTracer@OGL@AIF@@UAEXPBDIIIIPAH@Z" PURGE="24" COMMENT="" />
    <EXPORT ORDINAL="2365" NAME="?cgmGetTrackMatrixivNV@OpenGLErrorChecker@OGL@AIF@@UAEXPBDIIIIPAH@Z" PURGE="24" COMMENT="" />
    <EXPORT ORDINAL="2366" NAME="?cgmGetTrackMatrixivNV@OpenGLRekorder@OGL@AIF@@UAEXPBDIIIIPAH@Z" PURGE="-1" COMMENT="" />
    <EXPORT ORDINAL="2367" NAME="?cgmGetTrackMatrixivNV@OpenGLTracer@OGL@AIF@@UAEXPBDIIIIPAH@Z" PURGE="24" COMMENT="" />
    <EXPORT ORDINAL="2368" NAME="?cgmGetTransformFeedbackVarying@OpenGLErrorChecker@OGL@AIF@@UAEXPBDIIIPAH@Z" PURGE="20" COMMENT="" />
    <EXPORT ORDINAL="2369" NAME="?cgmGetTransformFeedbackVarying@OpenGLRekorder@OGL@AIF@@UAEXPBDIIIPAH@Z" PURGE="-1" COMMENT="" />
    <EXPORT ORDINAL="2370" NAME="?cgmGetTransformFeedbackVarying@OpenGLTracer@OGL@AIF@@UAEXPBDIIIPAH@Z" PURGE="20" COMMENT="" />
    <EXPORT ORDINAL="2371" NAME="?cgmGetTransformFeedbackVaryingEXT@OpenGLErrorChecker@OGL@AIF@@UAEXPBDIIIHPAH1PAIPAD@Z" PURGE="36" COMMENT="" />
    <EXPORT ORDINAL="2372" NAME="?cgmGetTransformFeedbackVaryingEXT@OpenGLRekorder@OGL@AIF@@UAEXPBDIIIHPAH1PAIPAD@Z" PURGE="-1" COMMENT="" />
    <EXPORT ORDINAL="2373" NAME="?cgmGetTransformFeedbackVaryingEXT@OpenGLTracer@OGL@AIF@@UAEXPBDIIIHPAH1PAIPAD@Z" PURGE="36" COMMENT="" />
    <EXPORT ORDINAL="2374" NAME="?cgmGetTransformFeedbackVaryingNV@OpenGLErrorChecker@OGL@AIF@@UAEXPBDIIIPAH@Z" PURGE="20" COMMENT="" />
    <EXPORT ORDINAL="2375" NAME="?cgmGetTransformFeedbackVaryingNV@OpenGLRekorder@OGL@AIF@@UAEXPBDIIIPAH@Z" PURGE="-1" COMMENT="" />
    <EXPORT ORDINAL="2376" NAME="?cgmGetTransformFeedbackVaryingNV@OpenGLTracer@OGL@AIF@@UAEXPBDIIIPAH@Z" PURGE="20" COMMENT="" />
    <EXPORT ORDINAL="2377" NAME="?cgmGetUniformBufferSizeEXT@OpenGLErrorChecker@OGL@AIF@@UAEHPBDIIH@Z" PURGE="16" COMMENT="" />
    <EXPORT ORDINAL="2378" NAME="?cgmGetUniformBufferSizeEXT@OpenGLRekorder@OGL@AIF@@UAEHPBDIIH@Z" PURGE="16" COMMENT="" />
    <EXPORT ORDINAL="2379" NAME="?cgmGetUniformBufferSizeEXT@OpenGLTracer@OGL@AIF@@UAEHPBDIIH@Z" PURGE="16" COMMENT="" />
    <EXPORT ORDINAL="2380" NAME="?cgmGetUniformLocation@OpenGLErrorChecker@OGL@AIF@@UAEHPBDII0@Z" PURGE="16" COMMENT="" />
    <EXPORT ORDINAL="2381" NAME="?cgmGetUniformLocation@OpenGLRekorder@OGL@AIF@@UAEHPBDII0@Z" PURGE="16" COMMENT="" />
    <EXPORT ORDINAL="2382" NAME="?cgmGetUniformLocation@OpenGLTracer@OGL@AIF@@UAEHPBDII0@Z" PURGE="16" COMMENT="" />
    <EXPORT ORDINAL="2383" NAME="?cgmGetUniformLocationARB@OpenGLErrorChecker@OGL@AIF@@UAEHPBDII0@Z" PURGE="16" COMMENT="" />
    <EXPORT ORDINAL="2384" NAME="?cgmGetUniformLocationARB@OpenGLRekorder@OGL@AIF@@UAEHPBDII0@Z" PURGE="16" COMMENT="" />
    <EXPORT ORDINAL="2385" NAME="?cgmGetUniformLocationARB@OpenGLTracer@OGL@AIF@@UAEHPBDII0@Z" PURGE="16" COMMENT="" />
    <EXPORT ORDINAL="2386" NAME="?cgmGetUniformOffsetEXT@OpenGLErrorChecker@OGL@AIF@@UAEHPBDIIH@Z" PURGE="16" COMMENT="" />
    <EXPORT ORDINAL="2387" NAME="?cgmGetUniformOffsetEXT@OpenGLRekorder@OGL@AIF@@UAEHPBDIIH@Z" PURGE="16" COMMENT="" />
    <EXPORT ORDINAL="2388" NAME="?cgmGetUniformOffsetEXT@OpenGLTracer@OGL@AIF@@UAEHPBDIIH@Z" PURGE="16" COMMENT="" />
    <EXPORT ORDINAL="2389" NAME="?cgmGetUniformfv@OpenGLErrorChecker@OGL@AIF@@UAEXPBDIIHPAM@Z" PURGE="20" COMMENT="" />
    <EXPORT ORDINAL="2390" NAME="?cgmGetUniformfv@OpenGLRekorder@OGL@AIF@@UAEXPBDIIHPAM@Z" PURGE="-1" COMMENT="" />
    <EXPORT ORDINAL="2391" NAME="?cgmGetUniformfv@OpenGLTracer@OGL@AIF@@UAEXPBDIIHPAM@Z" PURGE="20" COMMENT="" />
    <EXPORT ORDINAL="2392" NAME="?cgmGetUniformfvARB@OpenGLErrorChecker@OGL@AIF@@UAEXPBDIIHPAM@Z" PURGE="20" COMMENT="" />
    <EXPORT ORDINAL="2393" NAME="?cgmGetUniformfvARB@OpenGLRekorder@OGL@AIF@@UAEXPBDIIHPAM@Z" PURGE="-1" COMMENT="" />
    <EXPORT ORDINAL="2394" NAME="?cgmGetUniformfvARB@OpenGLTracer@OGL@AIF@@UAEXPBDIIHPAM@Z" PURGE="20" COMMENT="" />
    <EXPORT ORDINAL="2395" NAME="?cgmGetUniformiv@OpenGLErrorChecker@OGL@AIF@@UAEXPBDIIHPAH@Z" PURGE="20" COMMENT="" />
    <EXPORT ORDINAL="2396" NAME="?cgmGetUniformiv@OpenGLRekorder@OGL@AIF@@UAEXPBDIIHPAH@Z" PURGE="-1" COMMENT="" />
    <EXPORT ORDINAL="2397" NAME="?cgmGetUniformiv@OpenGLTracer@OGL@AIF@@UAEXPBDIIHPAH@Z" PURGE="20" COMMENT="" />
    <EXPORT ORDINAL="2398" NAME="?cgmGetUniformivARB@OpenGLErrorChecker@OGL@AIF@@UAEXPBDIIHPAH@Z" PURGE="20" COMMENT="" />
    <EXPORT ORDINAL="2399" NAME="?cgmGetUniformivARB@OpenGLRekorder@OGL@AIF@@UAEXPBDIIHPAH@Z" PURGE="-1" COMMENT="" />
    <EXPORT ORDINAL="2400" NAME="?cgmGetUniformivARB@OpenGLTracer@OGL@AIF@@UAEXPBDIIHPAH@Z" PURGE="20" COMMENT="" />
    <EXPORT ORDINAL="2401" NAME="?cgmGetUniformui64vNV@OpenGLErrorChecker@OGL@AIF@@UAEXPBDIIHPA_K@Z" PURGE="20" COMMENT="" />
    <EXPORT ORDINAL="2402" NAME="?cgmGetUniformui64vNV@OpenGLRekorder@OGL@AIF@@UAEXPBDIIHPA_K@Z" PURGE="-1" COMMENT="" />
    <EXPORT ORDINAL="2403" NAME="?cgmGetUniformui64vNV@OpenGLTracer@OGL@AIF@@UAEXPBDIIHPA_K@Z" PURGE="20" COMMENT="" />
    <EXPORT ORDINAL="2404" NAME="?cgmGetUniformuiv@OpenGLErrorChecker@OGL@AIF@@UAEXPBDIIHPAI@Z" PURGE="20" COMMENT="" />
    <EXPORT ORDINAL="2405" NAME="?cgmGetUniformuiv@OpenGLRekorder@OGL@AIF@@UAEXPBDIIHPAI@Z" PURGE="-1" COMMENT="" />
    <EXPORT ORDINAL="2406" NAME="?cgmGetUniformuiv@OpenGLTracer@OGL@AIF@@UAEXPBDIIHPAI@Z" PURGE="20" COMMENT="" />
    <EXPORT ORDINAL="2407" NAME="?cgmGetUniformuivEXT@OpenGLErrorChecker@OGL@AIF@@UAEXPBDIIHPAI@Z" PURGE="20" COMMENT="" />
    <EXPORT ORDINAL="2408" NAME="?cgmGetUniformuivEXT@OpenGLRekorder@OGL@AIF@@UAEXPBDIIHPAI@Z" PURGE="-1" COMMENT="" />
    <EXPORT ORDINAL="2409" NAME="?cgmGetUniformuivEXT@OpenGLTracer@OGL@AIF@@UAEXPBDIIHPAI@Z" PURGE="20" COMMENT="" />
    <EXPORT ORDINAL="2410" NAME="?cgmGetVariantArrayObjectfvATI@OpenGLErrorChecker@OGL@AIF@@UAEXPBDIIIPAM@Z" PURGE="20" COMMENT="" />
    <EXPORT ORDINAL="2411" NAME="?cgmGetVariantArrayObjectfvATI@OpenGLRekorder@OGL@AIF@@UAEXPBDIIIPAM@Z" PURGE="-1" COMMENT="" />
    <EXPORT ORDINAL="2412" NAME="?cgmGetVariantArrayObjectfvATI@OpenGLTracer@OGL@AIF@@UAEXPBDIIIPAM@Z" PURGE="20" COMMENT="" />
    <EXPORT ORDINAL="2413" NAME="?cgmGetVariantArrayObjectivATI@OpenGLErrorChecker@OGL@AIF@@UAEXPBDIIIPAH@Z" PURGE="20" COMMENT="" />
    <EXPORT ORDINAL="2414" NAME="?cgmGetVariantArrayObjectivATI@OpenGLRekorder@OGL@AIF@@UAEXPBDIIIPAH@Z" PURGE="-1" COMMENT="" />
    <EXPORT ORDINAL="2415" NAME="?cgmGetVariantArrayObjectivATI@OpenGLTracer@OGL@AIF@@UAEXPBDIIIPAH@Z" PURGE="20" COMMENT="" />
    <EXPORT ORDINAL="2416" NAME="?cgmGetVariantBooleanvEXT@OpenGLErrorChecker@OGL@AIF@@UAEXPBDIIIPAE@Z" PURGE="20" COMMENT="" />
    <EXPORT ORDINAL="2417" NAME="?cgmGetVariantBooleanvEXT@OpenGLRekorder@OGL@AIF@@UAEXPBDIIIPAE@Z" PURGE="-1" COMMENT="" />
    <EXPORT ORDINAL="2418" NAME="?cgmGetVariantBooleanvEXT@OpenGLTracer@OGL@AIF@@UAEXPBDIIIPAE@Z" PURGE="20" COMMENT="" />
    <EXPORT ORDINAL="2419" NAME="?cgmGetVariantFloatvEXT@OpenGLErrorChecker@OGL@AIF@@UAEXPBDIIIPAM@Z" PURGE="20" COMMENT="" />
    <EXPORT ORDINAL="2420" NAME="?cgmGetVariantFloatvEXT@OpenGLRekorder@OGL@AIF@@UAEXPBDIIIPAM@Z" PURGE="-1" COMMENT="" />
    <EXPORT ORDINAL="2421" NAME="?cgmGetVariantFloatvEXT@OpenGLTracer@OGL@AIF@@UAEXPBDIIIPAM@Z" PURGE="20" COMMENT="" />
    <EXPORT ORDINAL="2422" NAME="?cgmGetVariantIntegervEXT@OpenGLErrorChecker@OGL@AIF@@UAEXPBDIIIPAH@Z" PURGE="20" COMMENT="" />
    <EXPORT ORDINAL="2423" NAME="?cgmGetVariantIntegervEXT@OpenGLRekorder@OGL@AIF@@UAEXPBDIIIPAH@Z" PURGE="-1" COMMENT="" />
    <EXPORT ORDINAL="2424" NAME="?cgmGetVariantIntegervEXT@OpenGLTracer@OGL@AIF@@UAEXPBDIIIPAH@Z" PURGE="20" COMMENT="" />
    <EXPORT ORDINAL="2425" NAME="?cgmGetVariantPointervEXT@OpenGLErrorChecker@OGL@AIF@@UAEXPBDIIIPAPAX@Z" PURGE="20" COMMENT="" />
    <EXPORT ORDINAL="2426" NAME="?cgmGetVariantPointervEXT@OpenGLRekorder@OGL@AIF@@UAEXPBDIIIPAPAX@Z" PURGE="-1" COMMENT="" />
    <EXPORT ORDINAL="2427" NAME="?cgmGetVariantPointervEXT@OpenGLTracer@OGL@AIF@@UAEXPBDIIIPAPAX@Z" PURGE="20" COMMENT="" />
    <EXPORT ORDINAL="2428" NAME="?cgmGetVaryingLocationNV@OpenGLErrorChecker@OGL@AIF@@UAEHPBDII0@Z" PURGE="16" COMMENT="" />
    <EXPORT ORDINAL="2429" NAME="?cgmGetVaryingLocationNV@OpenGLRekorder@OGL@AIF@@UAEHPBDII0@Z" PURGE="-1" COMMENT="" />
    <EXPORT ORDINAL="2430" NAME="?cgmGetVaryingLocationNV@OpenGLTracer@OGL@AIF@@UAEHPBDII0@Z" PURGE="16" COMMENT="" />
    <EXPORT ORDINAL="2431" NAME="?cgmGetVertexAttribArrayObjectfvATI@OpenGLErrorChecker@OGL@AIF@@UAEXPBDIIIPAM@Z" PURGE="20" COMMENT="" />
    <EXPORT ORDINAL="2432" NAME="?cgmGetVertexAttribArrayObjectfvATI@OpenGLRekorder@OGL@AIF@@UAEXPBDIIIPAM@Z" PURGE="-1" COMMENT="" />
    <EXPORT ORDINAL="2433" NAME="?cgmGetVertexAttribArrayObjectfvATI@OpenGLTracer@OGL@AIF@@UAEXPBDIIIPAM@Z" PURGE="20" COMMENT="" />
    <EXPORT ORDINAL="2434" NAME="?cgmGetVertexAttribArrayObjectivATI@OpenGLErrorChecker@OGL@AIF@@UAEXPBDIIIPAH@Z" PURGE="20" COMMENT="" />
    <EXPORT ORDINAL="2435" NAME="?cgmGetVertexAttribArrayObjectivATI@OpenGLRekorder@OGL@AIF@@UAEXPBDIIIPAH@Z" PURGE="-1" COMMENT="" />
    <EXPORT ORDINAL="2436" NAME="?cgmGetVertexAttribArrayObjectivATI@OpenGLTracer@OGL@AIF@@UAEXPBDIIIPAH@Z" PURGE="20" COMMENT="" />
    <EXPORT ORDINAL="2437" NAME="?cgmGetVertexAttribIiv@OpenGLErrorChecker@OGL@AIF@@UAEXPBDIIIPAH@Z" PURGE="20" COMMENT="" />
    <EXPORT ORDINAL="2438" NAME="?cgmGetVertexAttribIiv@OpenGLRekorder@OGL@AIF@@UAEXPBDIIIPAH@Z" PURGE="-1" COMMENT="" />
    <EXPORT ORDINAL="2439" NAME="?cgmGetVertexAttribIiv@OpenGLTracer@OGL@AIF@@UAEXPBDIIIPAH@Z" PURGE="20" COMMENT="" />
    <EXPORT ORDINAL="2440" NAME="?cgmGetVertexAttribIivEXT@OpenGLErrorChecker@OGL@AIF@@UAEXPBDIIIPAH@Z" PURGE="20" COMMENT="" />
    <EXPORT ORDINAL="2441" NAME="?cgmGetVertexAttribIivEXT@OpenGLRekorder@OGL@AIF@@UAEXPBDIIIPAH@Z" PURGE="-1" COMMENT="" />
    <EXPORT ORDINAL="2442" NAME="?cgmGetVertexAttribIivEXT@OpenGLTracer@OGL@AIF@@UAEXPBDIIIPAH@Z" PURGE="20" COMMENT="" />
    <EXPORT ORDINAL="2443" NAME="?cgmGetVertexAttribIuiv@OpenGLErrorChecker@OGL@AIF@@UAEXPBDIIIPAI@Z" PURGE="20" COMMENT="" />
    <EXPORT ORDINAL="2444" NAME="?cgmGetVertexAttribIuiv@OpenGLRekorder@OGL@AIF@@UAEXPBDIIIPAI@Z" PURGE="-1" COMMENT="" />
    <EXPORT ORDINAL="2445" NAME="?cgmGetVertexAttribIuiv@OpenGLTracer@OGL@AIF@@UAEXPBDIIIPAI@Z" PURGE="20" COMMENT="" />
    <EXPORT ORDINAL="2446" NAME="?cgmGetVertexAttribIuivEXT@OpenGLErrorChecker@OGL@AIF@@UAEXPBDIIIPAI@Z" PURGE="20" COMMENT="" />
    <EXPORT ORDINAL="2447" NAME="?cgmGetVertexAttribIuivEXT@OpenGLRekorder@OGL@AIF@@UAEXPBDIIIPAI@Z" PURGE="-1" COMMENT="" />
    <EXPORT ORDINAL="2448" NAME="?cgmGetVertexAttribIuivEXT@OpenGLTracer@OGL@AIF@@UAEXPBDIIIPAI@Z" PURGE="20" COMMENT="" />
    <EXPORT ORDINAL="2449" NAME="?cgmGetVertexAttribPointerv@OpenGLErrorChecker@OGL@AIF@@UAEXPBDIIIPAPAX@Z" PURGE="20" COMMENT="" />
    <EXPORT ORDINAL="2450" NAME="?cgmGetVertexAttribPointerv@OpenGLRekorder@OGL@AIF@@UAEXPBDIIIPAPAX@Z" PURGE="-1" COMMENT="" />
    <EXPORT ORDINAL="2451" NAME="?cgmGetVertexAttribPointerv@OpenGLTracer@OGL@AIF@@UAEXPBDIIIPAPAX@Z" PURGE="20" COMMENT="" />
    <EXPORT ORDINAL="2452" NAME="?cgmGetVertexAttribPointervARB@OpenGLErrorChecker@OGL@AIF@@UAEXPBDIIIPAPAX@Z" PURGE="20" COMMENT="" />
    <EXPORT ORDINAL="2453" NAME="?cgmGetVertexAttribPointervARB@OpenGLRekorder@OGL@AIF@@UAEXPBDIIIPAPAX@Z" PURGE="-1" COMMENT="" />
    <EXPORT ORDINAL="2454" NAME="?cgmGetVertexAttribPointervARB@OpenGLTracer@OGL@AIF@@UAEXPBDIIIPAPAX@Z" PURGE="20" COMMENT="" />
    <EXPORT ORDINAL="2455" NAME="?cgmGetVertexAttribPointervNV@OpenGLErrorChecker@OGL@AIF@@UAEXPBDIIIPAPAX@Z" PURGE="20" COMMENT="" />
    <EXPORT ORDINAL="2456" NAME="?cgmGetVertexAttribPointervNV@OpenGLRekorder@OGL@AIF@@UAEXPBDIIIPAPAX@Z" PURGE="-1" COMMENT="" />
    <EXPORT ORDINAL="2457" NAME="?cgmGetVertexAttribPointervNV@OpenGLTracer@OGL@AIF@@UAEXPBDIIIPAPAX@Z" PURGE="20" COMMENT="" />
    <EXPORT ORDINAL="2458" NAME="?cgmGetVertexAttribdv@OpenGLErrorChecker@OGL@AIF@@UAEXPBDIIIPAN@Z" PURGE="20" COMMENT="" />
    <EXPORT ORDINAL="2459" NAME="?cgmGetVertexAttribdv@OpenGLRekorder@OGL@AIF@@UAEXPBDIIIPAN@Z" PURGE="-1" COMMENT="" />
    <EXPORT ORDINAL="2460" NAME="?cgmGetVertexAttribdv@OpenGLTracer@OGL@AIF@@UAEXPBDIIIPAN@Z" PURGE="20" COMMENT="" />
    <EXPORT ORDINAL="2461" NAME="?cgmGetVertexAttribdvARB@OpenGLErrorChecker@OGL@AIF@@UAEXPBDIIIPAN@Z" PURGE="20" COMMENT="" />
    <EXPORT ORDINAL="2462" NAME="?cgmGetVertexAttribdvARB@OpenGLRekorder@OGL@AIF@@UAEXPBDIIIPAN@Z" PURGE="-1" COMMENT="" />
    <EXPORT ORDINAL="2463" NAME="?cgmGetVertexAttribdvARB@OpenGLTracer@OGL@AIF@@UAEXPBDIIIPAN@Z" PURGE="20" COMMENT="" />
    <EXPORT ORDINAL="2464" NAME="?cgmGetVertexAttribdvNV@OpenGLErrorChecker@OGL@AIF@@UAEXPBDIIIPAN@Z" PURGE="20" COMMENT="" />
    <EXPORT ORDINAL="2465" NAME="?cgmGetVertexAttribdvNV@OpenGLRekorder@OGL@AIF@@UAEXPBDIIIPAN@Z" PURGE="-1" COMMENT="" />
    <EXPORT ORDINAL="2466" NAME="?cgmGetVertexAttribdvNV@OpenGLTracer@OGL@AIF@@UAEXPBDIIIPAN@Z" PURGE="20" COMMENT="" />
    <EXPORT ORDINAL="2467" NAME="?cgmGetVertexAttribfv@OpenGLErrorChecker@OGL@AIF@@UAEXPBDIIIPAM@Z" PURGE="20" COMMENT="" />
    <EXPORT ORDINAL="2468" NAME="?cgmGetVertexAttribfv@OpenGLRekorder@OGL@AIF@@UAEXPBDIIIPAM@Z" PURGE="-1" COMMENT="" />
    <EXPORT ORDINAL="2469" NAME="?cgmGetVertexAttribfv@OpenGLTracer@OGL@AIF@@UAEXPBDIIIPAM@Z" PURGE="20" COMMENT="" />
    <EXPORT ORDINAL="2470" NAME="?cgmGetVertexAttribfvARB@OpenGLErrorChecker@OGL@AIF@@UAEXPBDIIIPAM@Z" PURGE="20" COMMENT="" />
    <EXPORT ORDINAL="2471" NAME="?cgmGetVertexAttribfvARB@OpenGLRekorder@OGL@AIF@@UAEXPBDIIIPAM@Z" PURGE="-1" COMMENT="" />
    <EXPORT ORDINAL="2472" NAME="?cgmGetVertexAttribfvARB@OpenGLTracer@OGL@AIF@@UAEXPBDIIIPAM@Z" PURGE="20" COMMENT="" />
    <EXPORT ORDINAL="2473" NAME="?cgmGetVertexAttribfvNV@OpenGLErrorChecker@OGL@AIF@@UAEXPBDIIIPAM@Z" PURGE="20" COMMENT="" />
    <EXPORT ORDINAL="2474" NAME="?cgmGetVertexAttribfvNV@OpenGLRekorder@OGL@AIF@@UAEXPBDIIIPAM@Z" PURGE="-1" COMMENT="" />
    <EXPORT ORDINAL="2475" NAME="?cgmGetVertexAttribfvNV@OpenGLTracer@OGL@AIF@@UAEXPBDIIIPAM@Z" PURGE="20" COMMENT="" />
    <EXPORT ORDINAL="2476" NAME="?cgmGetVertexAttribiv@OpenGLErrorChecker@OGL@AIF@@UAEXPBDIIIPAH@Z" PURGE="20" COMMENT="" />
    <EXPORT ORDINAL="2477" NAME="?cgmGetVertexAttribiv@OpenGLRekorder@OGL@AIF@@UAEXPBDIIIPAH@Z" PURGE="-1" COMMENT="" />
    <EXPORT ORDINAL="2478" NAME="?cgmGetVertexAttribiv@OpenGLTracer@OGL@AIF@@UAEXPBDIIIPAH@Z" PURGE="20" COMMENT="" />
    <EXPORT ORDINAL="2479" NAME="?cgmGetVertexAttribivARB@OpenGLErrorChecker@OGL@AIF@@UAEXPBDIIIPAH@Z" PURGE="20" COMMENT="" />
    <EXPORT ORDINAL="2480" NAME="?cgmGetVertexAttribivARB@OpenGLRekorder@OGL@AIF@@UAEXPBDIIIPAH@Z" PURGE="-1" COMMENT="" />
    <EXPORT ORDINAL="2481" NAME="?cgmGetVertexAttribivARB@OpenGLTracer@OGL@AIF@@UAEXPBDIIIPAH@Z" PURGE="20" COMMENT="" />
    <EXPORT ORDINAL="2482" NAME="?cgmGetVertexAttribivNV@OpenGLErrorChecker@OGL@AIF@@UAEXPBDIIIPAH@Z" PURGE="20" COMMENT="" />
    <EXPORT ORDINAL="2483" NAME="?cgmGetVertexAttribivNV@OpenGLRekorder@OGL@AIF@@UAEXPBDIIIPAH@Z" PURGE="-1" COMMENT="" />
    <EXPORT ORDINAL="2484" NAME="?cgmGetVertexAttribivNV@OpenGLTracer@OGL@AIF@@UAEXPBDIIIPAH@Z" PURGE="20" COMMENT="" />
    <EXPORT ORDINAL="2485" NAME="?cgmGetVideoi64vNV@OpenGLErrorChecker@OGL@AIF@@UAEXPBDIIIPA_J@Z" PURGE="20" COMMENT="" />
    <EXPORT ORDINAL="2486" NAME="?cgmGetVideoi64vNV@OpenGLRekorder@OGL@AIF@@UAEXPBDIIIPA_J@Z" PURGE="-1" COMMENT="" />
    <EXPORT ORDINAL="2487" NAME="?cgmGetVideoi64vNV@OpenGLTracer@OGL@AIF@@UAEXPBDIIIPA_J@Z" PURGE="20" COMMENT="" />
    <EXPORT ORDINAL="2488" NAME="?cgmGetVideoivNV@OpenGLErrorChecker@OGL@AIF@@UAEXPBDIIIPAH@Z" PURGE="20" COMMENT="" />
    <EXPORT ORDINAL="2489" NAME="?cgmGetVideoivNV@OpenGLRekorder@OGL@AIF@@UAEXPBDIIIPAH@Z" PURGE="-1" COMMENT="" />
    <EXPORT ORDINAL="2490" NAME="?cgmGetVideoivNV@OpenGLTracer@OGL@AIF@@UAEXPBDIIIPAH@Z" PURGE="20" COMMENT="" />
    <EXPORT ORDINAL="2491" NAME="?cgmGetVideoui64vNV@OpenGLErrorChecker@OGL@AIF@@UAEXPBDIIIPA_K@Z" PURGE="20" COMMENT="" />
    <EXPORT ORDINAL="2492" NAME="?cgmGetVideoui64vNV@OpenGLRekorder@OGL@AIF@@UAEXPBDIIIPA_K@Z" PURGE="-1" COMMENT="" />
    <EXPORT ORDINAL="2493" NAME="?cgmGetVideoui64vNV@OpenGLTracer@OGL@AIF@@UAEXPBDIIIPA_K@Z" PURGE="20" COMMENT="" />
    <EXPORT ORDINAL="2494" NAME="?cgmGetVideouivNV@OpenGLErrorChecker@OGL@AIF@@UAEXPBDIIIPAI@Z" PURGE="20" COMMENT="" />
    <EXPORT ORDINAL="2495" NAME="?cgmGetVideouivNV@OpenGLRekorder@OGL@AIF@@UAEXPBDIIIPAI@Z" PURGE="-1" COMMENT="" />
    <EXPORT ORDINAL="2496" NAME="?cgmGetVideouivNV@OpenGLTracer@OGL@AIF@@UAEXPBDIIIPAI@Z" PURGE="20" COMMENT="" />
    <EXPORT ORDINAL="2497" NAME="?cgmGlobalAlphaFactorbSUN@OpenGLErrorChecker@OGL@AIF@@UAEXPBDIC@Z" PURGE="12" COMMENT="" />
    <EXPORT ORDINAL="2498" NAME="?cgmGlobalAlphaFactorbSUN@OpenGLRekorder@OGL@AIF@@UAEXPBDIC@Z" PURGE="12" COMMENT="" />
    <EXPORT ORDINAL="2499" NAME="?cgmGlobalAlphaFactorbSUN@OpenGLTracer@OGL@AIF@@UAEXPBDIC@Z" PURGE="12" COMMENT="" />
    <EXPORT ORDINAL="2500" NAME="?cgmGlobalAlphaFactordSUN@OpenGLErrorChecker@OGL@AIF@@UAEXPBDIN@Z" PURGE="16" COMMENT="" />
    <EXPORT ORDINAL="2501" NAME="?cgmGlobalAlphaFactordSUN@OpenGLRekorder@OGL@AIF@@UAEXPBDIN@Z" PURGE="16" COMMENT="" />
    <EXPORT ORDINAL="2502" NAME="?cgmGlobalAlphaFactordSUN@OpenGLTracer@OGL@AIF@@UAEXPBDIN@Z" PURGE="16" COMMENT="" />
    <EXPORT ORDINAL="2503" NAME="?cgmGlobalAlphaFactorfSUN@OpenGLErrorChecker@OGL@AIF@@UAEXPBDIM@Z" PURGE="12" COMMENT="" />
    <EXPORT ORDINAL="2504" NAME="?cgmGlobalAlphaFactorfSUN@OpenGLRekorder@OGL@AIF@@UAEXPBDIM@Z" PURGE="12" COMMENT="" />
    <EXPORT ORDINAL="2505" NAME="?cgmGlobalAlphaFactorfSUN@OpenGLTracer@OGL@AIF@@UAEXPBDIM@Z" PURGE="12" COMMENT="" />
    <EXPORT ORDINAL="2506" NAME="?cgmGlobalAlphaFactoriSUN@OpenGLErrorChecker@OGL@AIF@@UAEXPBDIH@Z" PURGE="12" COMMENT="" />
    <EXPORT ORDINAL="2507" NAME="?cgmGlobalAlphaFactoriSUN@OpenGLRekorder@OGL@AIF@@UAEXPBDIH@Z" PURGE="12" COMMENT="" />
    <EXPORT ORDINAL="2508" NAME="?cgmGlobalAlphaFactoriSUN@OpenGLTracer@OGL@AIF@@UAEXPBDIH@Z" PURGE="12" COMMENT="" />
    <EXPORT ORDINAL="2509" NAME="?cgmGlobalAlphaFactorsSUN@OpenGLErrorChecker@OGL@AIF@@UAEXPBDIF@Z" PURGE="12" COMMENT="" />
    <EXPORT ORDINAL="2510" NAME="?cgmGlobalAlphaFactorsSUN@OpenGLRekorder@OGL@AIF@@UAEXPBDIF@Z" PURGE="12" COMMENT="" />
    <EXPORT ORDINAL="2511" NAME="?cgmGlobalAlphaFactorsSUN@OpenGLTracer@OGL@AIF@@UAEXPBDIF@Z" PURGE="12" COMMENT="" />
    <EXPORT ORDINAL="2512" NAME="?cgmGlobalAlphaFactorubSUN@OpenGLErrorChecker@OGL@AIF@@UAEXPBDIE@Z" PURGE="12" COMMENT="" />
    <EXPORT ORDINAL="2513" NAME="?cgmGlobalAlphaFactorubSUN@OpenGLRekorder@OGL@AIF@@UAEXPBDIE@Z" PURGE="12" COMMENT="" />
    <EXPORT ORDINAL="2514" NAME="?cgmGlobalAlphaFactorubSUN@OpenGLTracer@OGL@AIF@@UAEXPBDIE@Z" PURGE="12" COMMENT="" />
    <EXPORT ORDINAL="2515" NAME="?cgmGlobalAlphaFactoruiSUN@OpenGLErrorChecker@OGL@AIF@@UAEXPBDII@Z" PURGE="12" COMMENT="" />
    <EXPORT ORDINAL="2516" NAME="?cgmGlobalAlphaFactoruiSUN@OpenGLRekorder@OGL@AIF@@UAEXPBDII@Z" PURGE="12" COMMENT="" />
    <EXPORT ORDINAL="2517" NAME="?cgmGlobalAlphaFactoruiSUN@OpenGLTracer@OGL@AIF@@UAEXPBDII@Z" PURGE="12" COMMENT="" />
    <EXPORT ORDINAL="2518" NAME="?cgmGlobalAlphaFactorusSUN@OpenGLErrorChecker@OGL@AIF@@UAEXPBDIG@Z" PURGE="12" COMMENT="" />
    <EXPORT ORDINAL="2519" NAME="?cgmGlobalAlphaFactorusSUN@OpenGLRekorder@OGL@AIF@@UAEXPBDIG@Z" PURGE="12" COMMENT="" />
    <EXPORT ORDINAL="2520" NAME="?cgmGlobalAlphaFactorusSUN@OpenGLTracer@OGL@AIF@@UAEXPBDIG@Z" PURGE="12" COMMENT="" />
    <EXPORT ORDINAL="2521" NAME="?cgmHint@OpenGLErrorChecker@OGL@AIF@@UAEXPBDIII@Z" PURGE="16" COMMENT="" />
    <EXPORT ORDINAL="2522" NAME="?cgmHint@OpenGLRekorder@OGL@AIF@@UAEXPBDIII@Z" PURGE="16" COMMENT="" />
    <EXPORT ORDINAL="2523" NAME="?cgmHint@OpenGLTracer@OGL@AIF@@UAEXPBDIII@Z" PURGE="16" COMMENT="" />
    <EXPORT ORDINAL="2524" NAME="?cgmHistogram@OpenGLErrorChecker@OGL@AIF@@UAEXPBDIIHIE@Z" PURGE="24" COMMENT="" />
    <EXPORT ORDINAL="2525" NAME="?cgmHistogram@OpenGLRekorder@OGL@AIF@@UAEXPBDIIHIE@Z" PURGE="24" COMMENT="" />
    <EXPORT ORDINAL="2526" NAME="?cgmHistogram@OpenGLTracer@OGL@AIF@@UAEXPBDIIHIE@Z" PURGE="24" COMMENT="" />
    <EXPORT ORDINAL="2527" NAME="?cgmHistogramEXT@OpenGLErrorChecker@OGL@AIF@@UAEXPBDIIHIE@Z" PURGE="24" COMMENT="" />
    <EXPORT ORDINAL="2528" NAME="?cgmHistogramEXT@OpenGLRekorder@OGL@AIF@@UAEXPBDIIHIE@Z" PURGE="24" COMMENT="" />
    <EXPORT ORDINAL="2529" NAME="?cgmHistogramEXT@OpenGLTracer@OGL@AIF@@UAEXPBDIIHIE@Z" PURGE="24" COMMENT="" />
    <EXPORT ORDINAL="2530" NAME="?cgmImageTransformParameterfHP@OpenGLErrorChecker@OGL@AIF@@UAEXPBDIIIM@Z" PURGE="20" COMMENT="" />
    <EXPORT ORDINAL="2531" NAME="?cgmImageTransformParameterfHP@OpenGLRekorder@OGL@AIF@@UAEXPBDIIIM@Z" PURGE="20" COMMENT="" />
    <EXPORT ORDINAL="2532" NAME="?cgmImageTransformParameterfHP@OpenGLTracer@OGL@AIF@@UAEXPBDIIIM@Z" PURGE="20" COMMENT="" />
    <EXPORT ORDINAL="2533" NAME="?cgmImageTransformParameterfvHP@OpenGLErrorChecker@OGL@AIF@@UAEXPBDIIIPBM@Z" PURGE="20" COMMENT="" />
    <EXPORT ORDINAL="2534" NAME="?cgmImageTransformParameterfvHP@OpenGLRekorder@OGL@AIF@@UAEXPBDIIIPBM@Z" PURGE="-1" COMMENT="" />
    <EXPORT ORDINAL="2535" NAME="?cgmImageTransformParameterfvHP@OpenGLTracer@OGL@AIF@@UAEXPBDIIIPBM@Z" PURGE="20" COMMENT="" />
    <EXPORT ORDINAL="2536" NAME="?cgmImageTransformParameteriHP@OpenGLErrorChecker@OGL@AIF@@UAEXPBDIIIH@Z" PURGE="20" COMMENT="" />
    <EXPORT ORDINAL="2537" NAME="?cgmImageTransformParameteriHP@OpenGLRekorder@OGL@AIF@@UAEXPBDIIIH@Z" PURGE="20" COMMENT="" />
    <EXPORT ORDINAL="2538" NAME="?cgmImageTransformParameteriHP@OpenGLTracer@OGL@AIF@@UAEXPBDIIIH@Z" PURGE="20" COMMENT="" />
    <EXPORT ORDINAL="2539" NAME="?cgmImageTransformParameterivHP@OpenGLErrorChecker@OGL@AIF@@UAEXPBDIIIPBH@Z" PURGE="20" COMMENT="" />
    <EXPORT ORDINAL="2540" NAME="?cgmImageTransformParameterivHP@OpenGLRekorder@OGL@AIF@@UAEXPBDIIIPBH@Z" PURGE="-1" COMMENT="" />
    <EXPORT ORDINAL="2541" NAME="?cgmImageTransformParameterivHP@OpenGLTracer@OGL@AIF@@UAEXPBDIIIPBH@Z" PURGE="20" COMMENT="" />
    <EXPORT ORDINAL="2542" NAME="?cgmIndexFormatNV@OpenGLErrorChecker@OGL@AIF@@UAEXPBDIIH@Z" PURGE="16" COMMENT="" />
    <EXPORT ORDINAL="2543" NAME="?cgmIndexFormatNV@OpenGLRekorder@OGL@AIF@@UAEXPBDIIH@Z" PURGE="16" COMMENT="" />
    <EXPORT ORDINAL="2544" NAME="?cgmIndexFormatNV@OpenGLTracer@OGL@AIF@@UAEXPBDIIH@Z" PURGE="16" COMMENT="" />
    <EXPORT ORDINAL="2545" NAME="?cgmIndexFuncEXT@OpenGLErrorChecker@OGL@AIF@@UAEXPBDIIM@Z" PURGE="16" COMMENT="" />
    <EXPORT ORDINAL="2546" NAME="?cgmIndexFuncEXT@OpenGLRekorder@OGL@AIF@@UAEXPBDIIM@Z" PURGE="16" COMMENT="" />
    <EXPORT ORDINAL="2547" NAME="?cgmIndexFuncEXT@OpenGLTracer@OGL@AIF@@UAEXPBDIIM@Z" PURGE="16" COMMENT="" />
    <EXPORT ORDINAL="2548" NAME="?cgmIndexMask@OpenGLErrorChecker@OGL@AIF@@UAEXPBDII@Z" PURGE="12" COMMENT="" />
    <EXPORT ORDINAL="2549" NAME="?cgmIndexMask@OpenGLRekorder@OGL@AIF@@UAEXPBDII@Z" PURGE="12" COMMENT="" />
    <EXPORT ORDINAL="2550" NAME="?cgmIndexMask@OpenGLTracer@OGL@AIF@@UAEXPBDII@Z" PURGE="12" COMMENT="" />
    <EXPORT ORDINAL="2551" NAME="?cgmIndexMaterialEXT@OpenGLErrorChecker@OGL@AIF@@UAEXPBDIII@Z" PURGE="16" COMMENT="" />
    <EXPORT ORDINAL="2552" NAME="?cgmIndexMaterialEXT@OpenGLRekorder@OGL@AIF@@UAEXPBDIII@Z" PURGE="16" COMMENT="" />
    <EXPORT ORDINAL="2553" NAME="?cgmIndexMaterialEXT@OpenGLTracer@OGL@AIF@@UAEXPBDIII@Z" PURGE="16" COMMENT="" />
    <EXPORT ORDINAL="2554" NAME="?cgmIndexPointer@OpenGLErrorChecker@OGL@AIF@@UAEXPBDIIHPBX@Z" PURGE="20" COMMENT="" />
    <EXPORT ORDINAL="2555" NAME="?cgmIndexPointer@OpenGLRekorder@OGL@AIF@@UAEXPBDIIHPBX@Z" PURGE="-1" COMMENT="" />
    <EXPORT ORDINAL="2556" NAME="?cgmIndexPointer@OpenGLTracer@OGL@AIF@@UAEXPBDIIHPBX@Z" PURGE="20" COMMENT="" />
    <EXPORT ORDINAL="2557" NAME="?cgmIndexPointerEXT@OpenGLErrorChecker@OGL@AIF@@UAEXPBDIIHHPBX@Z" PURGE="24" COMMENT="" />
    <EXPORT ORDINAL="2558" NAME="?cgmIndexPointerEXT@OpenGLRekorder@OGL@AIF@@UAEXPBDIIHHPBX@Z" PURGE="-1" COMMENT="" />
    <EXPORT ORDINAL="2559" NAME="?cgmIndexPointerEXT@OpenGLTracer@OGL@AIF@@UAEXPBDIIHHPBX@Z" PURGE="24" COMMENT="" />
    <EXPORT ORDINAL="2560" NAME="?cgmIndexPointerListIBM@OpenGLErrorChecker@OGL@AIF@@UAEXPBDIIHPAPBXH@Z" PURGE="24" COMMENT="" />
    <EXPORT ORDINAL="2561" NAME="?cgmIndexPointerListIBM@OpenGLRekorder@OGL@AIF@@UAEXPBDIIHPAPBXH@Z" PURGE="-1" COMMENT="" />
    <EXPORT ORDINAL="2562" NAME="?cgmIndexPointerListIBM@OpenGLTracer@OGL@AIF@@UAEXPBDIIHPAPBXH@Z" PURGE="24" COMMENT="" />
    <EXPORT ORDINAL="2563" NAME="?cgmIndexd@OpenGLErrorChecker@OGL@AIF@@UAEXPBDIN@Z" PURGE="16" COMMENT="" />
    <EXPORT ORDINAL="2564" NAME="?cgmIndexd@OpenGLRekorder@OGL@AIF@@UAEXPBDIN@Z" PURGE="16" COMMENT="" />
    <EXPORT ORDINAL="2565" NAME="?cgmIndexd@OpenGLTracer@OGL@AIF@@UAEXPBDIN@Z" PURGE="16" COMMENT="" />
    <EXPORT ORDINAL="2566" NAME="?cgmIndexdv@OpenGLErrorChecker@OGL@AIF@@UAEXPBDIPBN@Z" PURGE="12" COMMENT="" />
    <EXPORT ORDINAL="2567" NAME="?cgmIndexdv@OpenGLRekorder@OGL@AIF@@UAEXPBDIPBN@Z" PURGE="-1" COMMENT="" />
    <EXPORT ORDINAL="2568" NAME="?cgmIndexdv@OpenGLTracer@OGL@AIF@@UAEXPBDIPBN@Z" PURGE="12" COMMENT="" />
    <EXPORT ORDINAL="2569" NAME="?cgmIndexf@OpenGLErrorChecker@OGL@AIF@@UAEXPBDIM@Z" PURGE="12" COMMENT="" />
    <EXPORT ORDINAL="2570" NAME="?cgmIndexf@OpenGLRekorder@OGL@AIF@@UAEXPBDIM@Z" PURGE="12" COMMENT="" />
    <EXPORT ORDINAL="2571" NAME="?cgmIndexf@OpenGLTracer@OGL@AIF@@UAEXPBDIM@Z" PURGE="12" COMMENT="" />
    <EXPORT ORDINAL="2572" NAME="?cgmIndexfv@OpenGLErrorChecker@OGL@AIF@@UAEXPBDIPBM@Z" PURGE="12" COMMENT="" />
    <EXPORT ORDINAL="2573" NAME="?cgmIndexfv@OpenGLRekorder@OGL@AIF@@UAEXPBDIPBM@Z" PURGE="-1" COMMENT="" />
    <EXPORT ORDINAL="2574" NAME="?cgmIndexfv@OpenGLTracer@OGL@AIF@@UAEXPBDIPBM@Z" PURGE="12" COMMENT="" />
    <EXPORT ORDINAL="2575" NAME="?cgmIndexi@OpenGLErrorChecker@OGL@AIF@@UAEXPBDIH@Z" PURGE="12" COMMENT="" />
    <EXPORT ORDINAL="2576" NAME="?cgmIndexi@OpenGLRekorder@OGL@AIF@@UAEXPBDIH@Z" PURGE="12" COMMENT="" />
    <EXPORT ORDINAL="2577" NAME="?cgmIndexi@OpenGLTracer@OGL@AIF@@UAEXPBDIH@Z" PURGE="12" COMMENT="" />
    <EXPORT ORDINAL="2578" NAME="?cgmIndexiv@OpenGLErrorChecker@OGL@AIF@@UAEXPBDIPBH@Z" PURGE="12" COMMENT="" />
    <EXPORT ORDINAL="2579" NAME="?cgmIndexiv@OpenGLRekorder@OGL@AIF@@UAEXPBDIPBH@Z" PURGE="-1" COMMENT="" />
    <EXPORT ORDINAL="2580" NAME="?cgmIndexiv@OpenGLTracer@OGL@AIF@@UAEXPBDIPBH@Z" PURGE="12" COMMENT="" />
    <EXPORT ORDINAL="2581" NAME="?cgmIndexs@OpenGLErrorChecker@OGL@AIF@@UAEXPBDIF@Z" PURGE="12" COMMENT="" />
    <EXPORT ORDINAL="2582" NAME="?cgmIndexs@OpenGLRekorder@OGL@AIF@@UAEXPBDIF@Z" PURGE="12" COMMENT="" />
    <EXPORT ORDINAL="2583" NAME="?cgmIndexs@OpenGLTracer@OGL@AIF@@UAEXPBDIF@Z" PURGE="12" COMMENT="" />
    <EXPORT ORDINAL="2584" NAME="?cgmIndexsv@OpenGLErrorChecker@OGL@AIF@@UAEXPBDIPBF@Z" PURGE="12" COMMENT="" />
    <EXPORT ORDINAL="2585" NAME="?cgmIndexsv@OpenGLRekorder@OGL@AIF@@UAEXPBDIPBF@Z" PURGE="-1" COMMENT="" />
    <EXPORT ORDINAL="2586" NAME="?cgmIndexsv@OpenGLTracer@OGL@AIF@@UAEXPBDIPBF@Z" PURGE="12" COMMENT="" />
    <EXPORT ORDINAL="2587" NAME="?cgmIndexub@OpenGLErrorChecker@OGL@AIF@@UAEXPBDIE@Z" PURGE="12" COMMENT="" />
    <EXPORT ORDINAL="2588" NAME="?cgmIndexub@OpenGLRekorder@OGL@AIF@@UAEXPBDIE@Z" PURGE="12" COMMENT="" />
    <EXPORT ORDINAL="2589" NAME="?cgmIndexub@OpenGLTracer@OGL@AIF@@UAEXPBDIE@Z" PURGE="12" COMMENT="" />
    <EXPORT ORDINAL="2590" NAME="?cgmIndexubv@OpenGLErrorChecker@OGL@AIF@@UAEXPBDIPBE@Z" PURGE="12" COMMENT="" />
    <EXPORT ORDINAL="2591" NAME="?cgmIndexubv@OpenGLRekorder@OGL@AIF@@UAEXPBDIPBE@Z" PURGE="-1" COMMENT="" />
    <EXPORT ORDINAL="2592" NAME="?cgmIndexubv@OpenGLTracer@OGL@AIF@@UAEXPBDIPBE@Z" PURGE="12" COMMENT="" />
    <EXPORT ORDINAL="2593" NAME="?cgmInitNames@OpenGLErrorChecker@OGL@AIF@@UAEXPBDI@Z" PURGE="8" COMMENT="" />
    <EXPORT ORDINAL="2594" NAME="?cgmInitNames@OpenGLRekorder@OGL@AIF@@UAEXPBDI@Z" PURGE="8" COMMENT="" />
    <EXPORT ORDINAL="2595" NAME="?cgmInitNames@OpenGLTracer@OGL@AIF@@UAEXPBDI@Z" PURGE="8" COMMENT="" />
    <EXPORT ORDINAL="2596" NAME="?cgmInsertComponentEXT@OpenGLErrorChecker@OGL@AIF@@UAEXPBDIIII@Z" PURGE="20" COMMENT="" />
    <EXPORT ORDINAL="2597" NAME="?cgmInsertComponentEXT@OpenGLRekorder@OGL@AIF@@UAEXPBDIIII@Z" PURGE="20" COMMENT="" />
    <EXPORT ORDINAL="2598" NAME="?cgmInsertComponentEXT@OpenGLTracer@OGL@AIF@@UAEXPBDIIII@Z" PURGE="20" COMMENT="" />
    <EXPORT ORDINAL="2599" NAME="?cgmInterleavedArrays@OpenGLErrorChecker@OGL@AIF@@UAEXPBDIIHPBX@Z" PURGE="20" COMMENT="" />
    <EXPORT ORDINAL="2600" NAME="?cgmInterleavedArrays@OpenGLRekorder@OGL@AIF@@UAEXPBDIIHPBX@Z" PURGE="-1" COMMENT="" />
    <EXPORT ORDINAL="2601" NAME="?cgmInterleavedArrays@OpenGLTracer@OGL@AIF@@UAEXPBDIIHPBX@Z" PURGE="20" COMMENT="" />
    <EXPORT ORDINAL="2602" NAME="?cgmIsAsyncMarkerSGIX@OpenGLErrorChecker@OGL@AIF@@UAEEPBDII@Z" PURGE="12" COMMENT="" />
    <EXPORT ORDINAL="2603" NAME="?cgmIsAsyncMarkerSGIX@OpenGLRekorder@OGL@AIF@@UAEEPBDII@Z" PURGE="12" COMMENT="" />
    <EXPORT ORDINAL="2604" NAME="?cgmIsAsyncMarkerSGIX@OpenGLTracer@OGL@AIF@@UAEEPBDII@Z" PURGE="12" COMMENT="" />
    <EXPORT ORDINAL="2605" NAME="?cgmIsBuffer@OpenGLErrorChecker@OGL@AIF@@UAEEPBDII@Z" PURGE="12" COMMENT="" />
    <EXPORT ORDINAL="2606" NAME="?cgmIsBuffer@OpenGLRekorder@OGL@AIF@@UAEEPBDII@Z" PURGE="12" COMMENT="" />
    <EXPORT ORDINAL="2607" NAME="?cgmIsBuffer@OpenGLTracer@OGL@AIF@@UAEEPBDII@Z" PURGE="12" COMMENT="" />
    <EXPORT ORDINAL="2608" NAME="?cgmIsBufferARB@OpenGLErrorChecker@OGL@AIF@@UAEEPBDII@Z" PURGE="12" COMMENT="" />
    <EXPORT ORDINAL="2609" NAME="?cgmIsBufferARB@OpenGLRekorder@OGL@AIF@@UAEEPBDII@Z" PURGE="12" COMMENT="" />
    <EXPORT ORDINAL="2610" NAME="?cgmIsBufferARB@OpenGLTracer@OGL@AIF@@UAEEPBDII@Z" PURGE="12" COMMENT="" />
    <EXPORT ORDINAL="2611" NAME="?cgmIsBufferResidentNV@OpenGLErrorChecker@OGL@AIF@@UAEEPBDII@Z" PURGE="12" COMMENT="" />
    <EXPORT ORDINAL="2612" NAME="?cgmIsBufferResidentNV@OpenGLRekorder@OGL@AIF@@UAEEPBDII@Z" PURGE="12" COMMENT="" />
    <EXPORT ORDINAL="2613" NAME="?cgmIsBufferResidentNV@OpenGLTracer@OGL@AIF@@UAEEPBDII@Z" PURGE="12" COMMENT="" />
    <EXPORT ORDINAL="2614" NAME="?cgmIsEnabled@OpenGLErrorChecker@OGL@AIF@@UAEEPBDII@Z" PURGE="12" COMMENT="" />
    <EXPORT ORDINAL="2615" NAME="?cgmIsEnabled@OpenGLRekorder@OGL@AIF@@UAEEPBDII@Z" PURGE="12" COMMENT="" />
    <EXPORT ORDINAL="2616" NAME="?cgmIsEnabled@OpenGLTracer@OGL@AIF@@UAEEPBDII@Z" PURGE="12" COMMENT="" />
    <EXPORT ORDINAL="2617" NAME="?cgmIsEnabledIndexedEXT@OpenGLErrorChecker@OGL@AIF@@UAEEPBDIII@Z" PURGE="16" COMMENT="" />
    <EXPORT ORDINAL="2618" NAME="?cgmIsEnabledIndexedEXT@OpenGLRekorder@OGL@AIF@@UAEEPBDIII@Z" PURGE="16" COMMENT="" />
    <EXPORT ORDINAL="2619" NAME="?cgmIsEnabledIndexedEXT@OpenGLTracer@OGL@AIF@@UAEEPBDIII@Z" PURGE="16" COMMENT="" />
    <EXPORT ORDINAL="2620" NAME="?cgmIsEnabledi@OpenGLErrorChecker@OGL@AIF@@UAEEPBDIII@Z" PURGE="16" COMMENT="" />
    <EXPORT ORDINAL="2621" NAME="?cgmIsEnabledi@OpenGLRekorder@OGL@AIF@@UAEEPBDIII@Z" PURGE="16" COMMENT="" />
    <EXPORT ORDINAL="2622" NAME="?cgmIsEnabledi@OpenGLTracer@OGL@AIF@@UAEEPBDIII@Z" PURGE="16" COMMENT="" />
    <EXPORT ORDINAL="2623" NAME="?cgmIsFenceAPPLE@OpenGLErrorChecker@OGL@AIF@@UAEEPBDII@Z" PURGE="12" COMMENT="" />
    <EXPORT ORDINAL="2624" NAME="?cgmIsFenceAPPLE@OpenGLRekorder@OGL@AIF@@UAEEPBDII@Z" PURGE="12" COMMENT="" />
    <EXPORT ORDINAL="2625" NAME="?cgmIsFenceAPPLE@OpenGLTracer@OGL@AIF@@UAEEPBDII@Z" PURGE="12" COMMENT="" />
    <EXPORT ORDINAL="2626" NAME="?cgmIsFenceNV@OpenGLErrorChecker@OGL@AIF@@UAEEPBDII@Z" PURGE="12" COMMENT="" />
    <EXPORT ORDINAL="2627" NAME="?cgmIsFenceNV@OpenGLRekorder@OGL@AIF@@UAEEPBDII@Z" PURGE="12" COMMENT="" />
    <EXPORT ORDINAL="2628" NAME="?cgmIsFenceNV@OpenGLTracer@OGL@AIF@@UAEEPBDII@Z" PURGE="12" COMMENT="" />
    <EXPORT ORDINAL="2629" NAME="?cgmIsFramebuffer@OpenGLErrorChecker@OGL@AIF@@UAEEPBDII@Z" PURGE="12" COMMENT="" />
    <EXPORT ORDINAL="2630" NAME="?cgmIsFramebuffer@OpenGLRekorder@OGL@AIF@@UAEEPBDII@Z" PURGE="12" COMMENT="" />
    <EXPORT ORDINAL="2631" NAME="?cgmIsFramebuffer@OpenGLTracer@OGL@AIF@@UAEEPBDII@Z" PURGE="12" COMMENT="" />
    <EXPORT ORDINAL="2632" NAME="?cgmIsFramebufferEXT@OpenGLErrorChecker@OGL@AIF@@UAEEPBDII@Z" PURGE="12" COMMENT="" />
    <EXPORT ORDINAL="2633" NAME="?cgmIsFramebufferEXT@OpenGLRekorder@OGL@AIF@@UAEEPBDII@Z" PURGE="12" COMMENT="" />
    <EXPORT ORDINAL="2634" NAME="?cgmIsFramebufferEXT@OpenGLTracer@OGL@AIF@@UAEEPBDII@Z" PURGE="12" COMMENT="" />
    <EXPORT ORDINAL="2635" NAME="?cgmIsList@OpenGLErrorChecker@OGL@AIF@@UAEEPBDII@Z" PURGE="12" COMMENT="" />
    <EXPORT ORDINAL="2636" NAME="?cgmIsList@OpenGLRekorder@OGL@AIF@@UAEEPBDII@Z" PURGE="12" COMMENT="" />
    <EXPORT ORDINAL="2637" NAME="?cgmIsList@OpenGLTracer@OGL@AIF@@UAEEPBDII@Z" PURGE="12" COMMENT="" />
    <EXPORT ORDINAL="2638" NAME="?cgmIsNamedBufferResidentNV@OpenGLErrorChecker@OGL@AIF@@UAEEPBDII@Z" PURGE="12" COMMENT="" />
    <EXPORT ORDINAL="2639" NAME="?cgmIsNamedBufferResidentNV@OpenGLRekorder@OGL@AIF@@UAEEPBDII@Z" PURGE="12" COMMENT="" />
    <EXPORT ORDINAL="2640" NAME="?cgmIsNamedBufferResidentNV@OpenGLTracer@OGL@AIF@@UAEEPBDII@Z" PURGE="12" COMMENT="" />
    <EXPORT ORDINAL="2641" NAME="?cgmIsObjectBufferATI@OpenGLErrorChecker@OGL@AIF@@UAEEPBDII@Z" PURGE="12" COMMENT="" />
    <EXPORT ORDINAL="2642" NAME="?cgmIsObjectBufferATI@OpenGLRekorder@OGL@AIF@@UAEEPBDII@Z" PURGE="12" COMMENT="" />
    <EXPORT ORDINAL="2643" NAME="?cgmIsObjectBufferATI@OpenGLTracer@OGL@AIF@@UAEEPBDII@Z" PURGE="12" COMMENT="" />
    <EXPORT ORDINAL="2644" NAME="?cgmIsOcclusionQueryNV@OpenGLErrorChecker@OGL@AIF@@UAEEPBDII@Z" PURGE="12" COMMENT="" />
    <EXPORT ORDINAL="2645" NAME="?cgmIsOcclusionQueryNV@OpenGLRekorder@OGL@AIF@@UAEEPBDII@Z" PURGE="12" COMMENT="" />
    <EXPORT ORDINAL="2646" NAME="?cgmIsOcclusionQueryNV@OpenGLTracer@OGL@AIF@@UAEEPBDII@Z" PURGE="12" COMMENT="" />
    <EXPORT ORDINAL="2647" NAME="?cgmIsProgram@OpenGLErrorChecker@OGL@AIF@@UAEEPBDII@Z" PURGE="12" COMMENT="" />
    <EXPORT ORDINAL="2648" NAME="?cgmIsProgram@OpenGLRekorder@OGL@AIF@@UAEEPBDII@Z" PURGE="12" COMMENT="" />
    <EXPORT ORDINAL="2649" NAME="?cgmIsProgram@OpenGLTracer@OGL@AIF@@UAEEPBDII@Z" PURGE="12" COMMENT="" />
    <EXPORT ORDINAL="2650" NAME="?cgmIsProgramARB@OpenGLErrorChecker@OGL@AIF@@UAEEPBDII@Z" PURGE="12" COMMENT="" />
    <EXPORT ORDINAL="2651" NAME="?cgmIsProgramARB@OpenGLRekorder@OGL@AIF@@UAEEPBDII@Z" PURGE="12" COMMENT="" />
    <EXPORT ORDINAL="2652" NAME="?cgmIsProgramARB@OpenGLTracer@OGL@AIF@@UAEEPBDII@Z" PURGE="12" COMMENT="" />
    <EXPORT ORDINAL="2653" NAME="?cgmIsProgramNV@OpenGLErrorChecker@OGL@AIF@@UAEEPBDII@Z" PURGE="12" COMMENT="" />
    <EXPORT ORDINAL="2654" NAME="?cgmIsProgramNV@OpenGLRekorder@OGL@AIF@@UAEEPBDII@Z" PURGE="12" COMMENT="" />
    <EXPORT ORDINAL="2655" NAME="?cgmIsProgramNV@OpenGLTracer@OGL@AIF@@UAEEPBDII@Z" PURGE="12" COMMENT="" />
    <EXPORT ORDINAL="2656" NAME="?cgmIsQuery@OpenGLErrorChecker@OGL@AIF@@UAEEPBDII@Z" PURGE="12" COMMENT="" />
    <EXPORT ORDINAL="2657" NAME="?cgmIsQuery@OpenGLRekorder@OGL@AIF@@UAEEPBDII@Z" PURGE="12" COMMENT="" />
    <EXPORT ORDINAL="2658" NAME="?cgmIsQuery@OpenGLTracer@OGL@AIF@@UAEEPBDII@Z" PURGE="12" COMMENT="" />
    <EXPORT ORDINAL="2659" NAME="?cgmIsQueryARB@OpenGLErrorChecker@OGL@AIF@@UAEEPBDII@Z" PURGE="12" COMMENT="" />
    <EXPORT ORDINAL="2660" NAME="?cgmIsQueryARB@OpenGLRekorder@OGL@AIF@@UAEEPBDII@Z" PURGE="12" COMMENT="" />
    <EXPORT ORDINAL="2661" NAME="?cgmIsQueryARB@OpenGLTracer@OGL@AIF@@UAEEPBDII@Z" PURGE="12" COMMENT="" />
    <EXPORT ORDINAL="2662" NAME="?cgmIsRenderbuffer@OpenGLErrorChecker@OGL@AIF@@UAEEPBDII@Z" PURGE="12" COMMENT="" />
    <EXPORT ORDINAL="2663" NAME="?cgmIsRenderbuffer@OpenGLRekorder@OGL@AIF@@UAEEPBDII@Z" PURGE="12" COMMENT="" />
    <EXPORT ORDINAL="2664" NAME="?cgmIsRenderbuffer@OpenGLTracer@OGL@AIF@@UAEEPBDII@Z" PURGE="12" COMMENT="" />
    <EXPORT ORDINAL="2665" NAME="?cgmIsRenderbufferEXT@OpenGLErrorChecker@OGL@AIF@@UAEEPBDII@Z" PURGE="12" COMMENT="" />
    <EXPORT ORDINAL="2666" NAME="?cgmIsRenderbufferEXT@OpenGLRekorder@OGL@AIF@@UAEEPBDII@Z" PURGE="12" COMMENT="" />
    <EXPORT ORDINAL="2667" NAME="?cgmIsRenderbufferEXT@OpenGLTracer@OGL@AIF@@UAEEPBDII@Z" PURGE="12" COMMENT="" />
    <EXPORT ORDINAL="2668" NAME="?cgmIsShader@OpenGLErrorChecker@OGL@AIF@@UAEEPBDII@Z" PURGE="12" COMMENT="" />
    <EXPORT ORDINAL="2669" NAME="?cgmIsShader@OpenGLRekorder@OGL@AIF@@UAEEPBDII@Z" PURGE="12" COMMENT="" />
    <EXPORT ORDINAL="2670" NAME="?cgmIsShader@OpenGLTracer@OGL@AIF@@UAEEPBDII@Z" PURGE="12" COMMENT="" />
    <EXPORT ORDINAL="2671" NAME="?cgmIsTexture@OpenGLErrorChecker@OGL@AIF@@UAEEPBDII@Z" PURGE="12" COMMENT="" />
    <EXPORT ORDINAL="2672" NAME="?cgmIsTexture@OpenGLRekorder@OGL@AIF@@UAEEPBDII@Z" PURGE="12" COMMENT="" />
    <EXPORT ORDINAL="2673" NAME="?cgmIsTexture@OpenGLTracer@OGL@AIF@@UAEEPBDII@Z" PURGE="12" COMMENT="" />
    <EXPORT ORDINAL="2674" NAME="?cgmIsTextureEXT@OpenGLErrorChecker@OGL@AIF@@UAEEPBDII@Z" PURGE="12" COMMENT="" />
    <EXPORT ORDINAL="2675" NAME="?cgmIsTextureEXT@OpenGLRekorder@OGL@AIF@@UAEEPBDII@Z" PURGE="12" COMMENT="" />
    <EXPORT ORDINAL="2676" NAME="?cgmIsTextureEXT@OpenGLTracer@OGL@AIF@@UAEEPBDII@Z" PURGE="12" COMMENT="" />
    <EXPORT ORDINAL="2677" NAME="?cgmIsVariantEnabledEXT@OpenGLErrorChecker@OGL@AIF@@UAEEPBDIII@Z" PURGE="16" COMMENT="" />
    <EXPORT ORDINAL="2678" NAME="?cgmIsVariantEnabledEXT@OpenGLRekorder@OGL@AIF@@UAEEPBDIII@Z" PURGE="16" COMMENT="" />
    <EXPORT ORDINAL="2679" NAME="?cgmIsVariantEnabledEXT@OpenGLTracer@OGL@AIF@@UAEEPBDIII@Z" PURGE="16" COMMENT="" />
    <EXPORT ORDINAL="2680" NAME="?cgmIsVertexArray@OpenGLErrorChecker@OGL@AIF@@UAEEPBDII@Z" PURGE="12" COMMENT="" />
    <EXPORT ORDINAL="2681" NAME="?cgmIsVertexArray@OpenGLRekorder@OGL@AIF@@UAEEPBDII@Z" PURGE="12" COMMENT="" />
    <EXPORT ORDINAL="2682" NAME="?cgmIsVertexArray@OpenGLTracer@OGL@AIF@@UAEEPBDII@Z" PURGE="12" COMMENT="" />
    <EXPORT ORDINAL="2683" NAME="?cgmIsVertexArrayAPPLE@OpenGLErrorChecker@OGL@AIF@@UAEEPBDII@Z" PURGE="12" COMMENT="" />
    <EXPORT ORDINAL="2684" NAME="?cgmIsVertexArrayAPPLE@OpenGLRekorder@OGL@AIF@@UAEEPBDII@Z" PURGE="12" COMMENT="" />
    <EXPORT ORDINAL="2685" NAME="?cgmIsVertexArrayAPPLE@OpenGLTracer@OGL@AIF@@UAEEPBDII@Z" PURGE="12" COMMENT="" />
    <EXPORT ORDINAL="2686" NAME="?cgmLightEnviEXT@OpenGLErrorChecker@OGL@AIF@@UAEXPBDIIH@Z" PURGE="16" COMMENT="" />
    <EXPORT ORDINAL="2687" NAME="?cgmLightEnviEXT@OpenGLRekorder@OGL@AIF@@UAEXPBDIIH@Z" PURGE="16" COMMENT="" />
    <EXPORT ORDINAL="2688" NAME="?cgmLightEnviEXT@OpenGLTracer@OGL@AIF@@UAEXPBDIIH@Z" PURGE="16" COMMENT="" />
    <EXPORT ORDINAL="2689" NAME="?cgmLightModelf@OpenGLErrorChecker@OGL@AIF@@UAEXPBDIIM@Z" PURGE="16" COMMENT="" />
    <EXPORT ORDINAL="2690" NAME="?cgmLightModelf@OpenGLRekorder@OGL@AIF@@UAEXPBDIIM@Z" PURGE="16" COMMENT="" />
    <EXPORT ORDINAL="2691" NAME="?cgmLightModelf@OpenGLTracer@OGL@AIF@@UAEXPBDIIM@Z" PURGE="16" COMMENT="" />
    <EXPORT ORDINAL="2692" NAME="?cgmLightModelfv@OpenGLErrorChecker@OGL@AIF@@UAEXPBDIIPBM@Z" PURGE="16" COMMENT="" />
    <EXPORT ORDINAL="2693" NAME="?cgmLightModelfv@OpenGLRekorder@OGL@AIF@@UAEXPBDIIPBM@Z" PURGE="-1" COMMENT="" />
    <EXPORT ORDINAL="2694" NAME="?cgmLightModelfv@OpenGLTracer@OGL@AIF@@UAEXPBDIIPBM@Z" PURGE="16" COMMENT="" />
    <EXPORT ORDINAL="2695" NAME="?cgmLightModeli@OpenGLErrorChecker@OGL@AIF@@UAEXPBDIIH@Z" PURGE="16" COMMENT="" />
    <EXPORT ORDINAL="2696" NAME="?cgmLightModeli@OpenGLRekorder@OGL@AIF@@UAEXPBDIIH@Z" PURGE="16" COMMENT="" />
    <EXPORT ORDINAL="2697" NAME="?cgmLightModeli@OpenGLTracer@OGL@AIF@@UAEXPBDIIH@Z" PURGE="16" COMMENT="" />
    <EXPORT ORDINAL="2698" NAME="?cgmLightModeliv@OpenGLErrorChecker@OGL@AIF@@UAEXPBDIIPBH@Z" PURGE="16" COMMENT="" />
    <EXPORT ORDINAL="2699" NAME="?cgmLightModeliv@OpenGLRekorder@OGL@AIF@@UAEXPBDIIPBH@Z" PURGE="-1" COMMENT="" />
    <EXPORT ORDINAL="2700" NAME="?cgmLightModeliv@OpenGLTracer@OGL@AIF@@UAEXPBDIIPBH@Z" PURGE="16" COMMENT="" />
    <EXPORT ORDINAL="2701" NAME="?cgmLightf@OpenGLErrorChecker@OGL@AIF@@UAEXPBDIIIM@Z" PURGE="20" COMMENT="" />
    <EXPORT ORDINAL="2702" NAME="?cgmLightf@OpenGLRekorder@OGL@AIF@@UAEXPBDIIIM@Z" PURGE="20" COMMENT="" />
    <EXPORT ORDINAL="2703" NAME="?cgmLightf@OpenGLTracer@OGL@AIF@@UAEXPBDIIIM@Z" PURGE="20" COMMENT="" />
    <EXPORT ORDINAL="2704" NAME="?cgmLightfv@OpenGLErrorChecker@OGL@AIF@@UAEXPBDIIIPBM@Z" PURGE="20" COMMENT="" />
    <EXPORT ORDINAL="2705" NAME="?cgmLightfv@OpenGLRekorder@OGL@AIF@@UAEXPBDIIIPBM@Z" PURGE="-1" COMMENT="" />
    <EXPORT ORDINAL="2706" NAME="?cgmLightfv@OpenGLTracer@OGL@AIF@@UAEXPBDIIIPBM@Z" PURGE="20" COMMENT="" />
    <EXPORT ORDINAL="2707" NAME="?cgmLighti@OpenGLErrorChecker@OGL@AIF@@UAEXPBDIIIH@Z" PURGE="20" COMMENT="" />
    <EXPORT ORDINAL="2708" NAME="?cgmLighti@OpenGLRekorder@OGL@AIF@@UAEXPBDIIIH@Z" PURGE="20" COMMENT="" />
    <EXPORT ORDINAL="2709" NAME="?cgmLighti@OpenGLTracer@OGL@AIF@@UAEXPBDIIIH@Z" PURGE="20" COMMENT="" />
    <EXPORT ORDINAL="2710" NAME="?cgmLightiv@OpenGLErrorChecker@OGL@AIF@@UAEXPBDIIIPBH@Z" PURGE="20" COMMENT="" />
    <EXPORT ORDINAL="2711" NAME="?cgmLightiv@OpenGLRekorder@OGL@AIF@@UAEXPBDIIIPBH@Z" PURGE="-1" COMMENT="" />
    <EXPORT ORDINAL="2712" NAME="?cgmLightiv@OpenGLTracer@OGL@AIF@@UAEXPBDIIIPBH@Z" PURGE="20" COMMENT="" />
    <EXPORT ORDINAL="2713" NAME="?cgmLineStipple@OpenGLErrorChecker@OGL@AIF@@UAEXPBDIHG@Z" PURGE="16" COMMENT="" />
    <EXPORT ORDINAL="2714" NAME="?cgmLineStipple@OpenGLRekorder@OGL@AIF@@UAEXPBDIHG@Z" PURGE="16" COMMENT="" />
    <EXPORT ORDINAL="2715" NAME="?cgmLineStipple@OpenGLTracer@OGL@AIF@@UAEXPBDIHG@Z" PURGE="16" COMMENT="" />
    <EXPORT ORDINAL="2716" NAME="?cgmLineWidth@OpenGLErrorChecker@OGL@AIF@@UAEXPBDIM@Z" PURGE="12" COMMENT="" />
    <EXPORT ORDINAL="2717" NAME="?cgmLineWidth@OpenGLRekorder@OGL@AIF@@UAEXPBDIM@Z" PURGE="12" COMMENT="" />
    <EXPORT ORDINAL="2718" NAME="?cgmLineWidth@OpenGLTracer@OGL@AIF@@UAEXPBDIM@Z" PURGE="12" COMMENT="" />
    <EXPORT ORDINAL="2719" NAME="?cgmLinkProgram@OpenGLErrorChecker@OGL@AIF@@UAEXPBDII@Z" PURGE="12" COMMENT="" />
    <EXPORT ORDINAL="2720" NAME="?cgmLinkProgram@OpenGLRekorder@OGL@AIF@@UAEXPBDII@Z" PURGE="12" COMMENT="" />
    <EXPORT ORDINAL="2721" NAME="?cgmLinkProgram@OpenGLTracer@OGL@AIF@@UAEXPBDII@Z" PURGE="12" COMMENT="" />
    <EXPORT ORDINAL="2722" NAME="?cgmLinkProgramARB@OpenGLErrorChecker@OGL@AIF@@UAEXPBDII@Z" PURGE="12" COMMENT="" />
    <EXPORT ORDINAL="2723" NAME="?cgmLinkProgramARB@OpenGLRekorder@OGL@AIF@@UAEXPBDII@Z" PURGE="12" COMMENT="" />
    <EXPORT ORDINAL="2724" NAME="?cgmLinkProgramARB@OpenGLTracer@OGL@AIF@@UAEXPBDII@Z" PURGE="12" COMMENT="" />
    <EXPORT ORDINAL="2725" NAME="?cgmListBase@OpenGLErrorChecker@OGL@AIF@@UAEXPBDII@Z" PURGE="12" COMMENT="" />
    <EXPORT ORDINAL="2726" NAME="?cgmListBase@OpenGLRekorder@OGL@AIF@@UAEXPBDII@Z" PURGE="12" COMMENT="" />
    <EXPORT ORDINAL="2727" NAME="?cgmListBase@OpenGLTracer@OGL@AIF@@UAEXPBDII@Z" PURGE="12" COMMENT="" />
    <EXPORT ORDINAL="2728" NAME="?cgmLoadIdentity@OpenGLErrorChecker@OGL@AIF@@UAEXPBDI@Z" PURGE="8" COMMENT="" />
    <EXPORT ORDINAL="2729" NAME="?cgmLoadIdentity@OpenGLRekorder@OGL@AIF@@UAEXPBDI@Z" PURGE="8" COMMENT="" />
    <EXPORT ORDINAL="2730" NAME="?cgmLoadIdentity@OpenGLTracer@OGL@AIF@@UAEXPBDI@Z" PURGE="8" COMMENT="" />
    <EXPORT ORDINAL="2731" NAME="?cgmLoadMatrixd@OpenGLErrorChecker@OGL@AIF@@UAEXPBDIPBN@Z" PURGE="12" COMMENT="" />
    <EXPORT ORDINAL="2732" NAME="?cgmLoadMatrixd@OpenGLRekorder@OGL@AIF@@UAEXPBDIPBN@Z" PURGE="-1" COMMENT="" />
    <EXPORT ORDINAL="2733" NAME="?cgmLoadMatrixd@OpenGLTracer@OGL@AIF@@UAEXPBDIPBN@Z" PURGE="12" COMMENT="" />
    <EXPORT ORDINAL="2734" NAME="?cgmLoadMatrixf@OpenGLErrorChecker@OGL@AIF@@UAEXPBDIPBM@Z" PURGE="12" COMMENT="" />
    <EXPORT ORDINAL="2735" NAME="?cgmLoadMatrixf@OpenGLRekorder@OGL@AIF@@UAEXPBDIPBM@Z" PURGE="12" COMMENT="" />
    <EXPORT ORDINAL="2736" NAME="?cgmLoadMatrixf@OpenGLTracer@OGL@AIF@@UAEXPBDIPBM@Z" PURGE="12" COMMENT="" />
    <EXPORT ORDINAL="2737" NAME="?cgmLoadName@OpenGLErrorChecker@OGL@AIF@@UAEXPBDII@Z" PURGE="12" COMMENT="" />
    <EXPORT ORDINAL="2738" NAME="?cgmLoadName@OpenGLRekorder@OGL@AIF@@UAEXPBDII@Z" PURGE="12" COMMENT="" />
    <EXPORT ORDINAL="2739" NAME="?cgmLoadName@OpenGLTracer@OGL@AIF@@UAEXPBDII@Z" PURGE="12" COMMENT="" />
    <EXPORT ORDINAL="2740" NAME="?cgmLoadProgramNV@OpenGLErrorChecker@OGL@AIF@@UAEXPBDIIIHPBE@Z" PURGE="24" COMMENT="" />
    <EXPORT ORDINAL="2741" NAME="?cgmLoadProgramNV@OpenGLRekorder@OGL@AIF@@UAEXPBDIIIHPBE@Z" PURGE="-1" COMMENT="" />
    <EXPORT ORDINAL="2742" NAME="?cgmLoadProgramNV@OpenGLTracer@OGL@AIF@@UAEXPBDIIIHPBE@Z" PURGE="24" COMMENT="" />
    <EXPORT ORDINAL="2743" NAME="?cgmLoadTransposeMatrixd@OpenGLErrorChecker@OGL@AIF@@UAEXPBDIQBN@Z" PURGE="12" COMMENT="" />
    <EXPORT ORDINAL="2744" NAME="?cgmLoadTransposeMatrixd@OpenGLRekorder@OGL@AIF@@UAEXPBDIQBN@Z" PURGE="12" COMMENT="" />
    <EXPORT ORDINAL="2745" NAME="?cgmLoadTransposeMatrixd@OpenGLTracer@OGL@AIF@@UAEXPBDIQBN@Z" PURGE="12" COMMENT="" />
    <EXPORT ORDINAL="2746" NAME="?cgmLoadTransposeMatrixf@OpenGLErrorChecker@OGL@AIF@@UAEXPBDIQBM@Z" PURGE="12" COMMENT="" />
    <EXPORT ORDINAL="2747" NAME="?cgmLoadTransposeMatrixf@OpenGLRekorder@OGL@AIF@@UAEXPBDIQBM@Z" PURGE="12" COMMENT="" />
    <EXPORT ORDINAL="2748" NAME="?cgmLoadTransposeMatrixf@OpenGLTracer@OGL@AIF@@UAEXPBDIQBM@Z" PURGE="12" COMMENT="" />
    <EXPORT ORDINAL="2749" NAME="?cgmLockArraysEXT@OpenGLErrorChecker@OGL@AIF@@UAEXPBDIHH@Z" PURGE="16" COMMENT="" />
    <EXPORT ORDINAL="2750" NAME="?cgmLockArraysEXT@OpenGLRekorder@OGL@AIF@@UAEXPBDIHH@Z" PURGE="16" COMMENT="" />
    <EXPORT ORDINAL="2751" NAME="?cgmLockArraysEXT@OpenGLTracer@OGL@AIF@@UAEXPBDIHH@Z" PURGE="16" COMMENT="" />
    <EXPORT ORDINAL="2752" NAME="?cgmLogicOp@OpenGLErrorChecker@OGL@AIF@@UAEXPBDII@Z" PURGE="12" COMMENT="" />
    <EXPORT ORDINAL="2753" NAME="?cgmLogicOp@OpenGLRekorder@OGL@AIF@@UAEXPBDII@Z" PURGE="12" COMMENT="" />
    <EXPORT ORDINAL="2754" NAME="?cgmLogicOp@OpenGLTracer@OGL@AIF@@UAEXPBDII@Z" PURGE="12" COMMENT="" />
    <EXPORT ORDINAL="2755" NAME="?cgmMakeBufferNonResidentNV@OpenGLErrorChecker@OGL@AIF@@UAEXPBDII@Z" PURGE="12" COMMENT="" />
    <EXPORT ORDINAL="2756" NAME="?cgmMakeBufferNonResidentNV@OpenGLRekorder@OGL@AIF@@UAEXPBDII@Z" PURGE="12" COMMENT="" />
    <EXPORT ORDINAL="2757" NAME="?cgmMakeBufferNonResidentNV@OpenGLTracer@OGL@AIF@@UAEXPBDII@Z" PURGE="12" COMMENT="" />
    <EXPORT ORDINAL="2758" NAME="?cgmMakeBufferResidentNV@OpenGLErrorChecker@OGL@AIF@@UAEXPBDIII@Z" PURGE="16" COMMENT="" />
    <EXPORT ORDINAL="2759" NAME="?cgmMakeBufferResidentNV@OpenGLRekorder@OGL@AIF@@UAEXPBDIII@Z" PURGE="16" COMMENT="" />
    <EXPORT ORDINAL="2760" NAME="?cgmMakeBufferResidentNV@OpenGLTracer@OGL@AIF@@UAEXPBDIII@Z" PURGE="16" COMMENT="" />
    <EXPORT ORDINAL="2761" NAME="?cgmMap1d@OpenGLErrorChecker@OGL@AIF@@UAEXPBDIINNHHPBN@Z" PURGE="40" COMMENT="" />
    <EXPORT ORDINAL="2762" NAME="?cgmMap1d@OpenGLRekorder@OGL@AIF@@UAEXPBDIINNHHPBN@Z" PURGE="40" COMMENT="" />
    <EXPORT ORDINAL="2763" NAME="?cgmMap1d@OpenGLTracer@OGL@AIF@@UAEXPBDIINNHHPBN@Z" PURGE="40" COMMENT="" />
    <EXPORT ORDINAL="2764" NAME="?cgmMap1f@OpenGLErrorChecker@OGL@AIF@@UAEXPBDIIMMHHPBM@Z" PURGE="32" COMMENT="" />
    <EXPORT ORDINAL="2765" NAME="?cgmMap1f@OpenGLRekorder@OGL@AIF@@UAEXPBDIIMMHHPBM@Z" PURGE="32" COMMENT="" />
    <EXPORT ORDINAL="2766" NAME="?cgmMap1f@OpenGLTracer@OGL@AIF@@UAEXPBDIIMMHHPBM@Z" PURGE="32" COMMENT="" />
    <EXPORT ORDINAL="2767" NAME="?cgmMap2d@OpenGLErrorChecker@OGL@AIF@@UAEXPBDIINNHHNNHHPBN@Z" PURGE="64" COMMENT="" />
    <EXPORT ORDINAL="2768" NAME="?cgmMap2d@OpenGLRekorder@OGL@AIF@@UAEXPBDIINNHHNNHHPBN@Z" PURGE="64" COMMENT="" />
    <EXPORT ORDINAL="2769" NAME="?cgmMap2d@OpenGLTracer@OGL@AIF@@UAEXPBDIINNHHNNHHPBN@Z" PURGE="64" COMMENT="" />
    <EXPORT ORDINAL="2770" NAME="?cgmMap2f@OpenGLErrorChecker@OGL@AIF@@UAEXPBDIIMMHHMMHHPBM@Z" PURGE="48" COMMENT="" />
    <EXPORT ORDINAL="2771" NAME="?cgmMap2f@OpenGLRekorder@OGL@AIF@@UAEXPBDIIMMHHMMHHPBM@Z" PURGE="48" COMMENT="" />
    <EXPORT ORDINAL="2772" NAME="?cgmMap2f@OpenGLTracer@OGL@AIF@@UAEXPBDIIMMHHMMHHPBM@Z" PURGE="48" COMMENT="" />
    <EXPORT ORDINAL="2773" NAME="?cgmMapBuffer@OpenGLErrorChecker@OGL@AIF@@UAEPAXPBDIII@Z" PURGE="16" COMMENT="" />
    <EXPORT ORDINAL="2774" NAME="?cgmMapBuffer@OpenGLRekorder@OGL@AIF@@UAEPAXPBDIII@Z" PURGE="16" COMMENT="" />
    <EXPORT ORDINAL="2775" NAME="?cgmMapBuffer@OpenGLTracer@OGL@AIF@@UAEPAXPBDIII@Z" PURGE="16" COMMENT="" />
    <EXPORT ORDINAL="2776" NAME="?cgmMapBufferARB@OpenGLErrorChecker@OGL@AIF@@UAEPAXPBDIII@Z" PURGE="16" COMMENT="" />
    <EXPORT ORDINAL="2777" NAME="?cgmMapBufferARB@OpenGLRekorder@OGL@AIF@@UAEPAXPBDIII@Z" PURGE="16" COMMENT="" />
    <EXPORT ORDINAL="2778" NAME="?cgmMapBufferARB@OpenGLTracer@OGL@AIF@@UAEPAXPBDIII@Z" PURGE="16" COMMENT="" />
    <EXPORT ORDINAL="2779" NAME="?cgmMapBufferRange@OpenGLErrorChecker@OGL@AIF@@UAEPAXPBDIIHHI@Z" PURGE="24" COMMENT="" />
    <EXPORT ORDINAL="2780" NAME="?cgmMapBufferRange@OpenGLRekorder@OGL@AIF@@UAEPAXPBDIIHHI@Z" PURGE="24" COMMENT="" />
    <EXPORT ORDINAL="2781" NAME="?cgmMapBufferRange@OpenGLTracer@OGL@AIF@@UAEPAXPBDIIHHI@Z" PURGE="24" COMMENT="" />
    <EXPORT ORDINAL="2782" NAME="?cgmMapControlPointsNV@OpenGLErrorChecker@OGL@AIF@@UAEXPBDIIIIHHHHEPBX@Z" PURGE="44" COMMENT="" />
    <EXPORT ORDINAL="2783" NAME="?cgmMapControlPointsNV@OpenGLRekorder@OGL@AIF@@UAEXPBDIIIIHHHHEPBX@Z" PURGE="-1" COMMENT="" />
    <EXPORT ORDINAL="2784" NAME="?cgmMapControlPointsNV@OpenGLTracer@OGL@AIF@@UAEXPBDIIIIHHHHEPBX@Z" PURGE="44" COMMENT="" />
    <EXPORT ORDINAL="2785" NAME="?cgmMapGrid1d@OpenGLErrorChecker@OGL@AIF@@UAEXPBDIHNN@Z" PURGE="28" COMMENT="" />
    <EXPORT ORDINAL="2786" NAME="?cgmMapGrid1d@OpenGLRekorder@OGL@AIF@@UAEXPBDIHNN@Z" PURGE="28" COMMENT="" />
    <EXPORT ORDINAL="2787" NAME="?cgmMapGrid1d@OpenGLTracer@OGL@AIF@@UAEXPBDIHNN@Z" PURGE="28" COMMENT="" />
    <EXPORT ORDINAL="2788" NAME="?cgmMapGrid1f@OpenGLErrorChecker@OGL@AIF@@UAEXPBDIHMM@Z" PURGE="20" COMMENT="" />
    <EXPORT ORDINAL="2789" NAME="?cgmMapGrid1f@OpenGLRekorder@OGL@AIF@@UAEXPBDIHMM@Z" PURGE="20" COMMENT="" />
    <EXPORT ORDINAL="2790" NAME="?cgmMapGrid1f@OpenGLTracer@OGL@AIF@@UAEXPBDIHMM@Z" PURGE="20" COMMENT="" />
    <EXPORT ORDINAL="2791" NAME="?cgmMapGrid2d@OpenGLErrorChecker@OGL@AIF@@UAEXPBDIHNNHNN@Z" PURGE="48" COMMENT="" />
    <EXPORT ORDINAL="2792" NAME="?cgmMapGrid2d@OpenGLRekorder@OGL@AIF@@UAEXPBDIHNNHNN@Z" PURGE="48" COMMENT="" />
    <EXPORT ORDINAL="2793" NAME="?cgmMapGrid2d@OpenGLTracer@OGL@AIF@@UAEXPBDIHNNHNN@Z" PURGE="48" COMMENT="" />
    <EXPORT ORDINAL="2794" NAME="?cgmMapGrid2f@OpenGLErrorChecker@OGL@AIF@@UAEXPBDIHMMHMM@Z" PURGE="32" COMMENT="" />
    <EXPORT ORDINAL="2795" NAME="?cgmMapGrid2f@OpenGLRekorder@OGL@AIF@@UAEXPBDIHMMHMM@Z" PURGE="32" COMMENT="" />
    <EXPORT ORDINAL="2796" NAME="?cgmMapGrid2f@OpenGLTracer@OGL@AIF@@UAEXPBDIHMMHMM@Z" PURGE="32" COMMENT="" />
    <EXPORT ORDINAL="2797" NAME="?cgmMapNamedBufferEXT@OpenGLErrorChecker@OGL@AIF@@UAEPAXPBDIII@Z" PURGE="16" COMMENT="" />
    <EXPORT ORDINAL="2798" NAME="?cgmMapNamedBufferEXT@OpenGLRekorder@OGL@AIF@@UAEPAXPBDIII@Z" PURGE="16" COMMENT="" />
    <EXPORT ORDINAL="2799" NAME="?cgmMapNamedBufferEXT@OpenGLTracer@OGL@AIF@@UAEPAXPBDIII@Z" PURGE="16" COMMENT="" />
    <EXPORT ORDINAL="2800" NAME="?cgmMapObjectBufferATI@OpenGLErrorChecker@OGL@AIF@@UAEPAXPBDII@Z" PURGE="12" COMMENT="" />
    <EXPORT ORDINAL="2801" NAME="?cgmMapObjectBufferATI@OpenGLRekorder@OGL@AIF@@UAEPAXPBDII@Z" PURGE="12" COMMENT="" />
    <EXPORT ORDINAL="2802" NAME="?cgmMapObjectBufferATI@OpenGLTracer@OGL@AIF@@UAEPAXPBDII@Z" PURGE="12" COMMENT="" />
    <EXPORT ORDINAL="2803" NAME="?cgmMapParameterfvNV@OpenGLErrorChecker@OGL@AIF@@UAEXPBDIIIPBM@Z" PURGE="20" COMMENT="" />
    <EXPORT ORDINAL="2804" NAME="?cgmMapParameterfvNV@OpenGLRekorder@OGL@AIF@@UAEXPBDIIIPBM@Z" PURGE="-1" COMMENT="" />
    <EXPORT ORDINAL="2805" NAME="?cgmMapParameterfvNV@OpenGLTracer@OGL@AIF@@UAEXPBDIIIPBM@Z" PURGE="20" COMMENT="" />
    <EXPORT ORDINAL="2806" NAME="?cgmMapParameterivNV@OpenGLErrorChecker@OGL@AIF@@UAEXPBDIIIPBH@Z" PURGE="20" COMMENT="" />
    <EXPORT ORDINAL="2807" NAME="?cgmMapParameterivNV@OpenGLRekorder@OGL@AIF@@UAEXPBDIIIPBH@Z" PURGE="-1" COMMENT="" />
    <EXPORT ORDINAL="2808" NAME="?cgmMapParameterivNV@OpenGLTracer@OGL@AIF@@UAEXPBDIIIPBH@Z" PURGE="20" COMMENT="" />
    <EXPORT ORDINAL="2809" NAME="?cgmMaterialf@OpenGLErrorChecker@OGL@AIF@@UAEXPBDIIIM@Z" PURGE="20" COMMENT="" />
    <EXPORT ORDINAL="2810" NAME="?cgmMaterialf@OpenGLRekorder@OGL@AIF@@UAEXPBDIIIM@Z" PURGE="20" COMMENT="" />
    <EXPORT ORDINAL="2811" NAME="?cgmMaterialf@OpenGLTracer@OGL@AIF@@UAEXPBDIIIM@Z" PURGE="20" COMMENT="" />
    <EXPORT ORDINAL="2812" NAME="?cgmMaterialfv@OpenGLErrorChecker@OGL@AIF@@UAEXPBDIIIPBM@Z" PURGE="20" COMMENT="" />
    <EXPORT ORDINAL="2813" NAME="?cgmMaterialfv@OpenGLRekorder@OGL@AIF@@UAEXPBDIIIPBM@Z" PURGE="-1" COMMENT="" />
    <EXPORT ORDINAL="2814" NAME="?cgmMaterialfv@OpenGLTracer@OGL@AIF@@UAEXPBDIIIPBM@Z" PURGE="20" COMMENT="" />
    <EXPORT ORDINAL="2815" NAME="?cgmMateriali@OpenGLErrorChecker@OGL@AIF@@UAEXPBDIIIH@Z" PURGE="20" COMMENT="" />
    <EXPORT ORDINAL="2816" NAME="?cgmMateriali@OpenGLRekorder@OGL@AIF@@UAEXPBDIIIH@Z" PURGE="20" COMMENT="" />
    <EXPORT ORDINAL="2817" NAME="?cgmMateriali@OpenGLTracer@OGL@AIF@@UAEXPBDIIIH@Z" PURGE="20" COMMENT="" />
    <EXPORT ORDINAL="2818" NAME="?cgmMaterialiv@OpenGLErrorChecker@OGL@AIF@@UAEXPBDIIIPBH@Z" PURGE="20" COMMENT="" />
    <EXPORT ORDINAL="2819" NAME="?cgmMaterialiv@OpenGLRekorder@OGL@AIF@@UAEXPBDIIIPBH@Z" PURGE="-1" COMMENT="" />
    <EXPORT ORDINAL="2820" NAME="?cgmMaterialiv@OpenGLTracer@OGL@AIF@@UAEXPBDIIIPBH@Z" PURGE="20" COMMENT="" />
    <EXPORT ORDINAL="2821" NAME="?cgmMatrixFrustumEXT@OpenGLErrorChecker@OGL@AIF@@UAEXPBDIINNNNNN@Z" PURGE="60" COMMENT="" />
    <EXPORT ORDINAL="2822" NAME="?cgmMatrixFrustumEXT@OpenGLRekorder@OGL@AIF@@UAEXPBDIINNNNNN@Z" PURGE="60" COMMENT="" />
    <EXPORT ORDINAL="2823" NAME="?cgmMatrixFrustumEXT@OpenGLTracer@OGL@AIF@@UAEXPBDIINNNNNN@Z" PURGE="60" COMMENT="" />
    <EXPORT ORDINAL="2824" NAME="?cgmMatrixIndexPointerARB@OpenGLErrorChecker@OGL@AIF@@UAEXPBDIHIHPAX@Z" PURGE="24" COMMENT="" />
    <EXPORT ORDINAL="2825" NAME="?cgmMatrixIndexPointerARB@OpenGLRekorder@OGL@AIF@@UAEXPBDIHIHPAX@Z" PURGE="-1" COMMENT="" />
    <EXPORT ORDINAL="2826" NAME="?cgmMatrixIndexPointerARB@OpenGLTracer@OGL@AIF@@UAEXPBDIHIHPAX@Z" PURGE="24" COMMENT="" />
    <EXPORT ORDINAL="2827" NAME="?cgmMatrixIndexubvARB@OpenGLErrorChecker@OGL@AIF@@UAEXPBDIHPAE@Z" PURGE="16" COMMENT="" />
    <EXPORT ORDINAL="2828" NAME="?cgmMatrixIndexubvARB@OpenGLRekorder@OGL@AIF@@UAEXPBDIHPAE@Z" PURGE="-1" COMMENT="" />
    <EXPORT ORDINAL="2829" NAME="?cgmMatrixIndexubvARB@OpenGLTracer@OGL@AIF@@UAEXPBDIHPAE@Z" PURGE="16" COMMENT="" />
    <EXPORT ORDINAL="2830" NAME="?cgmMatrixIndexuivARB@OpenGLErrorChecker@OGL@AIF@@UAEXPBDIHPAI@Z" PURGE="16" COMMENT="" />
    <EXPORT ORDINAL="2831" NAME="?cgmMatrixIndexuivARB@OpenGLRekorder@OGL@AIF@@UAEXPBDIHPAI@Z" PURGE="-1" COMMENT="" />
    <EXPORT ORDINAL="2832" NAME="?cgmMatrixIndexuivARB@OpenGLTracer@OGL@AIF@@UAEXPBDIHPAI@Z" PURGE="16" COMMENT="" />
    <EXPORT ORDINAL="2833" NAME="?cgmMatrixIndexusvARB@OpenGLErrorChecker@OGL@AIF@@UAEXPBDIHPAG@Z" PURGE="16" COMMENT="" />
    <EXPORT ORDINAL="2834" NAME="?cgmMatrixIndexusvARB@OpenGLRekorder@OGL@AIF@@UAEXPBDIHPAG@Z" PURGE="-1" COMMENT="" />
    <EXPORT ORDINAL="2835" NAME="?cgmMatrixIndexusvARB@OpenGLTracer@OGL@AIF@@UAEXPBDIHPAG@Z" PURGE="16" COMMENT="" />
    <EXPORT ORDINAL="2836" NAME="?cgmMatrixLoadIdentityEXT@OpenGLErrorChecker@OGL@AIF@@UAEXPBDII@Z" PURGE="12" COMMENT="" />
    <EXPORT ORDINAL="2837" NAME="?cgmMatrixLoadIdentityEXT@OpenGLRekorder@OGL@AIF@@UAEXPBDII@Z" PURGE="12" COMMENT="" />
    <EXPORT ORDINAL="2838" NAME="?cgmMatrixLoadIdentityEXT@OpenGLTracer@OGL@AIF@@UAEXPBDII@Z" PURGE="12" COMMENT="" />
    <EXPORT ORDINAL="2839" NAME="?cgmMatrixLoadTransposedEXT@OpenGLErrorChecker@OGL@AIF@@UAEXPBDIIPBN@Z" PURGE="16" COMMENT="" />
    <EXPORT ORDINAL="2840" NAME="?cgmMatrixLoadTransposedEXT@OpenGLRekorder@OGL@AIF@@UAEXPBDIIPBN@Z" PURGE="-1" COMMENT="" />
    <EXPORT ORDINAL="2841" NAME="?cgmMatrixLoadTransposedEXT@OpenGLTracer@OGL@AIF@@UAEXPBDIIPBN@Z" PURGE="16" COMMENT="" />
    <EXPORT ORDINAL="2842" NAME="?cgmMatrixLoadTransposefEXT@OpenGLErrorChecker@OGL@AIF@@UAEXPBDIIPBM@Z" PURGE="16" COMMENT="" />
    <EXPORT ORDINAL="2843" NAME="?cgmMatrixLoadTransposefEXT@OpenGLRekorder@OGL@AIF@@UAEXPBDIIPBM@Z" PURGE="-1" COMMENT="" />
    <EXPORT ORDINAL="2844" NAME="?cgmMatrixLoadTransposefEXT@OpenGLTracer@OGL@AIF@@UAEXPBDIIPBM@Z" PURGE="16" COMMENT="" />
    <EXPORT ORDINAL="2845" NAME="?cgmMatrixLoaddEXT@OpenGLErrorChecker@OGL@AIF@@UAEXPBDIIPBN@Z" PURGE="16" COMMENT="" />
    <EXPORT ORDINAL="2846" NAME="?cgmMatrixLoaddEXT@OpenGLRekorder@OGL@AIF@@UAEXPBDIIPBN@Z" PURGE="-1" COMMENT="" />
    <EXPORT ORDINAL="2847" NAME="?cgmMatrixLoaddEXT@OpenGLTracer@OGL@AIF@@UAEXPBDIIPBN@Z" PURGE="16" COMMENT="" />
    <EXPORT ORDINAL="2848" NAME="?cgmMatrixLoadfEXT@OpenGLErrorChecker@OGL@AIF@@UAEXPBDIIPBM@Z" PURGE="16" COMMENT="" />
    <EXPORT ORDINAL="2849" NAME="?cgmMatrixLoadfEXT@OpenGLRekorder@OGL@AIF@@UAEXPBDIIPBM@Z" PURGE="-1" COMMENT="" />
    <EXPORT ORDINAL="2850" NAME="?cgmMatrixLoadfEXT@OpenGLTracer@OGL@AIF@@UAEXPBDIIPBM@Z" PURGE="16" COMMENT="" />
    <EXPORT ORDINAL="2851" NAME="?cgmMatrixMode@OpenGLErrorChecker@OGL@AIF@@UAEXPBDII@Z" PURGE="12" COMMENT="" />
    <EXPORT ORDINAL="2852" NAME="?cgmMatrixMode@OpenGLRekorder@OGL@AIF@@UAEXPBDII@Z" PURGE="12" COMMENT="" />
    <EXPORT ORDINAL="2853" NAME="?cgmMatrixMode@OpenGLTracer@OGL@AIF@@UAEXPBDII@Z" PURGE="12" COMMENT="" />
    <EXPORT ORDINAL="2854" NAME="?cgmMatrixMultTransposedEXT@OpenGLErrorChecker@OGL@AIF@@UAEXPBDIIPBN@Z" PURGE="16" COMMENT="" />
    <EXPORT ORDINAL="2855" NAME="?cgmMatrixMultTransposedEXT@OpenGLRekorder@OGL@AIF@@UAEXPBDIIPBN@Z" PURGE="-1" COMMENT="" />
    <EXPORT ORDINAL="2856" NAME="?cgmMatrixMultTransposedEXT@OpenGLTracer@OGL@AIF@@UAEXPBDIIPBN@Z" PURGE="16" COMMENT="" />
    <EXPORT ORDINAL="2857" NAME="?cgmMatrixMultTransposefEXT@OpenGLErrorChecker@OGL@AIF@@UAEXPBDIIPBM@Z" PURGE="16" COMMENT="" />
    <EXPORT ORDINAL="2858" NAME="?cgmMatrixMultTransposefEXT@OpenGLRekorder@OGL@AIF@@UAEXPBDIIPBM@Z" PURGE="-1" COMMENT="" />
    <EXPORT ORDINAL="2859" NAME="?cgmMatrixMultTransposefEXT@OpenGLTracer@OGL@AIF@@UAEXPBDIIPBM@Z" PURGE="16" COMMENT="" />
    <EXPORT ORDINAL="2860" NAME="?cgmMatrixMultdEXT@OpenGLErrorChecker@OGL@AIF@@UAEXPBDIIPBN@Z" PURGE="16" COMMENT="" />
    <EXPORT ORDINAL="2861" NAME="?cgmMatrixMultdEXT@OpenGLRekorder@OGL@AIF@@UAEXPBDIIPBN@Z" PURGE="-1" COMMENT="" />
    <EXPORT ORDINAL="2862" NAME="?cgmMatrixMultdEXT@OpenGLTracer@OGL@AIF@@UAEXPBDIIPBN@Z" PURGE="16" COMMENT="" />
    <EXPORT ORDINAL="2863" NAME="?cgmMatrixMultfEXT@OpenGLErrorChecker@OGL@AIF@@UAEXPBDIIPBM@Z" PURGE="16" COMMENT="" />
    <EXPORT ORDINAL="2864" NAME="?cgmMatrixMultfEXT@OpenGLRekorder@OGL@AIF@@UAEXPBDIIPBM@Z" PURGE="-1" COMMENT="" />
    <EXPORT ORDINAL="2865" NAME="?cgmMatrixMultfEXT@OpenGLTracer@OGL@AIF@@UAEXPBDIIPBM@Z" PURGE="16" COMMENT="" />
    <EXPORT ORDINAL="2866" NAME="?cgmMatrixOrthoEXT@OpenGLErrorChecker@OGL@AIF@@UAEXPBDIINNNNNN@Z" PURGE="60" COMMENT="" />
    <EXPORT ORDINAL="2867" NAME="?cgmMatrixOrthoEXT@OpenGLRekorder@OGL@AIF@@UAEXPBDIINNNNNN@Z" PURGE="60" COMMENT="" />
    <EXPORT ORDINAL="2868" NAME="?cgmMatrixOrthoEXT@OpenGLTracer@OGL@AIF@@UAEXPBDIINNNNNN@Z" PURGE="60" COMMENT="" />
    <EXPORT ORDINAL="2869" NAME="?cgmMatrixPopEXT@OpenGLErrorChecker@OGL@AIF@@UAEXPBDII@Z" PURGE="12" COMMENT="" />
    <EXPORT ORDINAL="2870" NAME="?cgmMatrixPopEXT@OpenGLRekorder@OGL@AIF@@UAEXPBDII@Z" PURGE="12" COMMENT="" />
    <EXPORT ORDINAL="2871" NAME="?cgmMatrixPopEXT@OpenGLTracer@OGL@AIF@@UAEXPBDII@Z" PURGE="12" COMMENT="" />
    <EXPORT ORDINAL="2872" NAME="?cgmMatrixPushEXT@OpenGLErrorChecker@OGL@AIF@@UAEXPBDII@Z" PURGE="12" COMMENT="" />
    <EXPORT ORDINAL="2873" NAME="?cgmMatrixPushEXT@OpenGLRekorder@OGL@AIF@@UAEXPBDII@Z" PURGE="12" COMMENT="" />
    <EXPORT ORDINAL="2874" NAME="?cgmMatrixPushEXT@OpenGLTracer@OGL@AIF@@UAEXPBDII@Z" PURGE="12" COMMENT="" />
    <EXPORT ORDINAL="2875" NAME="?cgmMatrixRotatedEXT@OpenGLErrorChecker@OGL@AIF@@UAEXPBDIINNNN@Z" PURGE="44" COMMENT="" />
    <EXPORT ORDINAL="2876" NAME="?cgmMatrixRotatedEXT@OpenGLRekorder@OGL@AIF@@UAEXPBDIINNNN@Z" PURGE="44" COMMENT="" />
    <EXPORT ORDINAL="2877" NAME="?cgmMatrixRotatedEXT@OpenGLTracer@OGL@AIF@@UAEXPBDIINNNN@Z" PURGE="44" COMMENT="" />
    <EXPORT ORDINAL="2878" NAME="?cgmMatrixRotatefEXT@OpenGLErrorChecker@OGL@AIF@@UAEXPBDIIMMMM@Z" PURGE="28" COMMENT="" />
    <EXPORT ORDINAL="2879" NAME="?cgmMatrixRotatefEXT@OpenGLRekorder@OGL@AIF@@UAEXPBDIIMMMM@Z" PURGE="28" COMMENT="" />
    <EXPORT ORDINAL="2880" NAME="?cgmMatrixRotatefEXT@OpenGLTracer@OGL@AIF@@UAEXPBDIIMMMM@Z" PURGE="28" COMMENT="" />
    <EXPORT ORDINAL="2881" NAME="?cgmMatrixScaledEXT@OpenGLErrorChecker@OGL@AIF@@UAEXPBDIINNN@Z" PURGE="36" COMMENT="" />
    <EXPORT ORDINAL="2882" NAME="?cgmMatrixScaledEXT@OpenGLRekorder@OGL@AIF@@UAEXPBDIINNN@Z" PURGE="36" COMMENT="" />
    <EXPORT ORDINAL="2883" NAME="?cgmMatrixScaledEXT@OpenGLTracer@OGL@AIF@@UAEXPBDIINNN@Z" PURGE="36" COMMENT="" />
    <EXPORT ORDINAL="2884" NAME="?cgmMatrixScalefEXT@OpenGLErrorChecker@OGL@AIF@@UAEXPBDIIMMM@Z" PURGE="24" COMMENT="" />
    <EXPORT ORDINAL="2885" NAME="?cgmMatrixScalefEXT@OpenGLRekorder@OGL@AIF@@UAEXPBDIIMMM@Z" PURGE="24" COMMENT="" />
    <EXPORT ORDINAL="2886" NAME="?cgmMatrixScalefEXT@OpenGLTracer@OGL@AIF@@UAEXPBDIIMMM@Z" PURGE="24" COMMENT="" />
    <EXPORT ORDINAL="2887" NAME="?cgmMatrixTranslatedEXT@OpenGLErrorChecker@OGL@AIF@@UAEXPBDIINNN@Z" PURGE="36" COMMENT="" />
    <EXPORT ORDINAL="2888" NAME="?cgmMatrixTranslatedEXT@OpenGLRekorder@OGL@AIF@@UAEXPBDIINNN@Z" PURGE="36" COMMENT="" />
    <EXPORT ORDINAL="2889" NAME="?cgmMatrixTranslatedEXT@OpenGLTracer@OGL@AIF@@UAEXPBDIINNN@Z" PURGE="36" COMMENT="" />
    <EXPORT ORDINAL="2890" NAME="?cgmMatrixTranslatefEXT@OpenGLErrorChecker@OGL@AIF@@UAEXPBDIIMMM@Z" PURGE="24" COMMENT="" />
    <EXPORT ORDINAL="2891" NAME="?cgmMatrixTranslatefEXT@OpenGLRekorder@OGL@AIF@@UAEXPBDIIMMM@Z" PURGE="24" COMMENT="" />
    <EXPORT ORDINAL="2892" NAME="?cgmMatrixTranslatefEXT@OpenGLTracer@OGL@AIF@@UAEXPBDIIMMM@Z" PURGE="24" COMMENT="" />
    <EXPORT ORDINAL="2893" NAME="?cgmMinmax@OpenGLErrorChecker@OGL@AIF@@UAEXPBDIIIE@Z" PURGE="20" COMMENT="" />
    <EXPORT ORDINAL="2894" NAME="?cgmMinmax@OpenGLRekorder@OGL@AIF@@UAEXPBDIIIE@Z" PURGE="20" COMMENT="" />
    <EXPORT ORDINAL="2895" NAME="?cgmMinmax@OpenGLTracer@OGL@AIF@@UAEXPBDIIIE@Z" PURGE="20" COMMENT="" />
    <EXPORT ORDINAL="2896" NAME="?cgmMinmaxEXT@OpenGLErrorChecker@OGL@AIF@@UAEXPBDIIIE@Z" PURGE="20" COMMENT="" />
    <EXPORT ORDINAL="2897" NAME="?cgmMinmaxEXT@OpenGLRekorder@OGL@AIF@@UAEXPBDIIIE@Z" PURGE="20" COMMENT="" />
    <EXPORT ORDINAL="2898" NAME="?cgmMinmaxEXT@OpenGLTracer@OGL@AIF@@UAEXPBDIIIE@Z" PURGE="20" COMMENT="" />
    <EXPORT ORDINAL="2899" NAME="?cgmMultMatrixd@OpenGLErrorChecker@OGL@AIF@@UAEXPBDIPBN@Z" PURGE="12" COMMENT="" />
    <EXPORT ORDINAL="2900" NAME="?cgmMultMatrixd@OpenGLRekorder@OGL@AIF@@UAEXPBDIPBN@Z" PURGE="12" COMMENT="" />
    <EXPORT ORDINAL="2901" NAME="?cgmMultMatrixd@OpenGLTracer@OGL@AIF@@UAEXPBDIPBN@Z" PURGE="12" COMMENT="" />
    <EXPORT ORDINAL="2902" NAME="?cgmMultMatrixf@OpenGLErrorChecker@OGL@AIF@@UAEXPBDIPBM@Z" PURGE="12" COMMENT="" />
    <EXPORT ORDINAL="2903" NAME="?cgmMultMatrixf@OpenGLRekorder@OGL@AIF@@UAEXPBDIPBM@Z" PURGE="12" COMMENT="" />
    <EXPORT ORDINAL="2904" NAME="?cgmMultMatrixf@OpenGLTracer@OGL@AIF@@UAEXPBDIPBM@Z" PURGE="12" COMMENT="" />
    <EXPORT ORDINAL="2905" NAME="?cgmMultTransposeMatrixd@OpenGLErrorChecker@OGL@AIF@@UAEXPBDIQBN@Z" PURGE="12" COMMENT="" />
    <EXPORT ORDINAL="2906" NAME="?cgmMultTransposeMatrixd@OpenGLRekorder@OGL@AIF@@UAEXPBDIQBN@Z" PURGE="12" COMMENT="" />
    <EXPORT ORDINAL="2907" NAME="?cgmMultTransposeMatrixd@OpenGLTracer@OGL@AIF@@UAEXPBDIQBN@Z" PURGE="12" COMMENT="" />
    <EXPORT ORDINAL="2908" NAME="?cgmMultTransposeMatrixf@OpenGLErrorChecker@OGL@AIF@@UAEXPBDIQBM@Z" PURGE="12" COMMENT="" />
    <EXPORT ORDINAL="2909" NAME="?cgmMultTransposeMatrixf@OpenGLRekorder@OGL@AIF@@UAEXPBDIQBM@Z" PURGE="12" COMMENT="" />
    <EXPORT ORDINAL="2910" NAME="?cgmMultTransposeMatrixf@OpenGLTracer@OGL@AIF@@UAEXPBDIQBM@Z" PURGE="12" COMMENT="" />
    <EXPORT ORDINAL="2911" NAME="?cgmMultiDrawArrays@OpenGLErrorChecker@OGL@AIF@@UAEXPBDIIPAH1H@Z" PURGE="24" COMMENT="" />
    <EXPORT ORDINAL="2912" NAME="?cgmMultiDrawArrays@OpenGLRekorder@OGL@AIF@@UAEXPBDIIPAH1H@Z" PURGE="-1" COMMENT="" />
    <EXPORT ORDINAL="2913" NAME="?cgmMultiDrawArrays@OpenGLTracer@OGL@AIF@@UAEXPBDIIPAH1H@Z" PURGE="24" COMMENT="" />
    <EXPORT ORDINAL="2914" NAME="?cgmMultiDrawArraysEXT@OpenGLErrorChecker@OGL@AIF@@UAEXPBDIIPAH1H@Z" PURGE="24" COMMENT="" />
    <EXPORT ORDINAL="2915" NAME="?cgmMultiDrawArraysEXT@OpenGLRekorder@OGL@AIF@@UAEXPBDIIPAH1H@Z" PURGE="-1" COMMENT="" />
    <EXPORT ORDINAL="2916" NAME="?cgmMultiDrawArraysEXT@OpenGLTracer@OGL@AIF@@UAEXPBDIIPAH1H@Z" PURGE="24" COMMENT="" />
    <EXPORT ORDINAL="2917" NAME="?cgmMultiDrawElementArrayAPPLE@OpenGLErrorChecker@OGL@AIF@@UAEXPBDIIPBH1H@Z" PURGE="24" COMMENT="" />
    <EXPORT ORDINAL="2918" NAME="?cgmMultiDrawElementArrayAPPLE@OpenGLRekorder@OGL@AIF@@UAEXPBDIIPBH1H@Z" PURGE="-1" COMMENT="" />
    <EXPORT ORDINAL="2919" NAME="?cgmMultiDrawElementArrayAPPLE@OpenGLTracer@OGL@AIF@@UAEXPBDIIPBH1H@Z" PURGE="24" COMMENT="" />
    <EXPORT ORDINAL="2920" NAME="?cgmMultiDrawElements@OpenGLErrorChecker@OGL@AIF@@UAEXPBDIIPAHIPAPBXH@Z" PURGE="28" COMMENT="" />
    <EXPORT ORDINAL="2921" NAME="?cgmMultiDrawElements@OpenGLRekorder@OGL@AIF@@UAEXPBDIIPAHIPAPBXH@Z" PURGE="-1" COMMENT="" />
    <EXPORT ORDINAL="2922" NAME="?cgmMultiDrawElements@OpenGLTracer@OGL@AIF@@UAEXPBDIIPAHIPAPBXH@Z" PURGE="28" COMMENT="" />
    <EXPORT ORDINAL="2923" NAME="?cgmMultiDrawElementsEXT@OpenGLErrorChecker@OGL@AIF@@UAEXPBDIIPAHIPAPBXH@Z" PURGE="28" COMMENT="" />
    <EXPORT ORDINAL="2924" NAME="?cgmMultiDrawElementsEXT@OpenGLRekorder@OGL@AIF@@UAEXPBDIIPAHIPAPBXH@Z" PURGE="-1" COMMENT="" />
    <EXPORT ORDINAL="2925" NAME="?cgmMultiDrawElementsEXT@OpenGLTracer@OGL@AIF@@UAEXPBDIIPAHIPAPBXH@Z" PURGE="28" COMMENT="" />
    <EXPORT ORDINAL="2926" NAME="?cgmMultiDrawRangeElementArrayAPPLE@OpenGLErrorChecker@OGL@AIF@@UAEXPBDIIIIPBH1H@Z" PURGE="32" COMMENT="" />
    <EXPORT ORDINAL="2927" NAME="?cgmMultiDrawRangeElementArrayAPPLE@OpenGLRekorder@OGL@AIF@@UAEXPBDIIIIPBH1H@Z" PURGE="-1" COMMENT="" />
    <EXPORT ORDINAL="2928" NAME="?cgmMultiDrawRangeElementArrayAPPLE@OpenGLTracer@OGL@AIF@@UAEXPBDIIIIPBH1H@Z" PURGE="32" COMMENT="" />
    <EXPORT ORDINAL="2929" NAME="?cgmMultiModeDrawArraysIBM@OpenGLErrorChecker@OGL@AIF@@UAEXPBDIPBIPBH2HH@Z" PURGE="28" COMMENT="" />
    <EXPORT ORDINAL="2930" NAME="?cgmMultiModeDrawArraysIBM@OpenGLRekorder@OGL@AIF@@UAEXPBDIPBIPBH2HH@Z" PURGE="-1" COMMENT="" />
    <EXPORT ORDINAL="2931" NAME="?cgmMultiModeDrawArraysIBM@OpenGLTracer@OGL@AIF@@UAEXPBDIPBIPBH2HH@Z" PURGE="28" COMMENT="" />
    <EXPORT ORDINAL="2932" NAME="?cgmMultiModeDrawElementsIBM@OpenGLErrorChecker@OGL@AIF@@UAEXPBDIPBIPBHIPBQBXHH@Z" PURGE="32" COMMENT="" />
    <EXPORT ORDINAL="2933" NAME="?cgmMultiModeDrawElementsIBM@OpenGLRekorder@OGL@AIF@@UAEXPBDIPBIPBHIPBQBXHH@Z" PURGE="-1" COMMENT="" />
    <EXPORT ORDINAL="2934" NAME="?cgmMultiModeDrawElementsIBM@OpenGLTracer@OGL@AIF@@UAEXPBDIPBIPBHIPBQBXHH@Z" PURGE="32" COMMENT="" />
    <EXPORT ORDINAL="2935" NAME="?cgmMultiTexBufferEXT@OpenGLErrorChecker@OGL@AIF@@UAEXPBDIIIII@Z" PURGE="24" COMMENT="" />
    <EXPORT ORDINAL="2936" NAME="?cgmMultiTexBufferEXT@OpenGLRekorder@OGL@AIF@@UAEXPBDIIIII@Z" PURGE="24" COMMENT="" />
    <EXPORT ORDINAL="2937" NAME="?cgmMultiTexBufferEXT@OpenGLTracer@OGL@AIF@@UAEXPBDIIIII@Z" PURGE="24" COMMENT="" />
    <EXPORT ORDINAL="2938" NAME="?cgmMultiTexCoord1d@OpenGLErrorChecker@OGL@AIF@@UAEXPBDIIN@Z" PURGE="20" COMMENT="" />
    <EXPORT ORDINAL="2939" NAME="?cgmMultiTexCoord1d@OpenGLRekorder@OGL@AIF@@UAEXPBDIIN@Z" PURGE="20" COMMENT="" />
    <EXPORT ORDINAL="2940" NAME="?cgmMultiTexCoord1d@OpenGLTracer@OGL@AIF@@UAEXPBDIIN@Z" PURGE="20" COMMENT="" />
    <EXPORT ORDINAL="2941" NAME="?cgmMultiTexCoord1dARB@OpenGLErrorChecker@OGL@AIF@@UAEXPBDIIN@Z" PURGE="20" COMMENT="" />
    <EXPORT ORDINAL="2942" NAME="?cgmMultiTexCoord1dARB@OpenGLRekorder@OGL@AIF@@UAEXPBDIIN@Z" PURGE="20" COMMENT="" />
    <EXPORT ORDINAL="2943" NAME="?cgmMultiTexCoord1dARB@OpenGLTracer@OGL@AIF@@UAEXPBDIIN@Z" PURGE="20" COMMENT="" />
    <EXPORT ORDINAL="2944" NAME="?cgmMultiTexCoord1dv@OpenGLErrorChecker@OGL@AIF@@UAEXPBDIIPBN@Z" PURGE="16" COMMENT="" />
    <EXPORT ORDINAL="2945" NAME="?cgmMultiTexCoord1dv@OpenGLRekorder@OGL@AIF@@UAEXPBDIIPBN@Z" PURGE="-1" COMMENT="" />
    <EXPORT ORDINAL="2946" NAME="?cgmMultiTexCoord1dv@OpenGLTracer@OGL@AIF@@UAEXPBDIIPBN@Z" PURGE="16" COMMENT="" />
    <EXPORT ORDINAL="2947" NAME="?cgmMultiTexCoord1dvARB@OpenGLErrorChecker@OGL@AIF@@UAEXPBDIIPBN@Z" PURGE="16" COMMENT="" />
    <EXPORT ORDINAL="2948" NAME="?cgmMultiTexCoord1dvARB@OpenGLRekorder@OGL@AIF@@UAEXPBDIIPBN@Z" PURGE="-1" COMMENT="" />
    <EXPORT ORDINAL="2949" NAME="?cgmMultiTexCoord1dvARB@OpenGLTracer@OGL@AIF@@UAEXPBDIIPBN@Z" PURGE="16" COMMENT="" />
    <EXPORT ORDINAL="2950" NAME="?cgmMultiTexCoord1f@OpenGLErrorChecker@OGL@AIF@@UAEXPBDIIM@Z" PURGE="16" COMMENT="" />
    <EXPORT ORDINAL="2951" NAME="?cgmMultiTexCoord1f@OpenGLRekorder@OGL@AIF@@UAEXPBDIIM@Z" PURGE="16" COMMENT="" />
    <EXPORT ORDINAL="2952" NAME="?cgmMultiTexCoord1f@OpenGLTracer@OGL@AIF@@UAEXPBDIIM@Z" PURGE="16" COMMENT="" />
    <EXPORT ORDINAL="2953" NAME="?cgmMultiTexCoord1fARB@OpenGLErrorChecker@OGL@AIF@@UAEXPBDIIM@Z" PURGE="16" COMMENT="" />
    <EXPORT ORDINAL="2954" NAME="?cgmMultiTexCoord1fARB@OpenGLRekorder@OGL@AIF@@UAEXPBDIIM@Z" PURGE="16" COMMENT="" />
    <EXPORT ORDINAL="2955" NAME="?cgmMultiTexCoord1fARB@OpenGLTracer@OGL@AIF@@UAEXPBDIIM@Z" PURGE="16" COMMENT="" />
    <EXPORT ORDINAL="2956" NAME="?cgmMultiTexCoord1fv@OpenGLErrorChecker@OGL@AIF@@UAEXPBDIIPBM@Z" PURGE="16" COMMENT="" />
    <EXPORT ORDINAL="2957" NAME="?cgmMultiTexCoord1fv@OpenGLRekorder@OGL@AIF@@UAEXPBDIIPBM@Z" PURGE="16" COMMENT="" />
    <EXPORT ORDINAL="2958" NAME="?cgmMultiTexCoord1fv@OpenGLTracer@OGL@AIF@@UAEXPBDIIPBM@Z" PURGE="16" COMMENT="" />
    <EXPORT ORDINAL="2959" NAME="?cgmMultiTexCoord1fvARB@OpenGLErrorChecker@OGL@AIF@@UAEXPBDIIPBM@Z" PURGE="16" COMMENT="" />
    <EXPORT ORDINAL="2960" NAME="?cgmMultiTexCoord1fvARB@OpenGLRekorder@OGL@AIF@@UAEXPBDIIPBM@Z" PURGE="16" COMMENT="" />
    <EXPORT ORDINAL="2961" NAME="?cgmMultiTexCoord1fvARB@OpenGLTracer@OGL@AIF@@UAEXPBDIIPBM@Z" PURGE="16" COMMENT="" />
    <EXPORT ORDINAL="2962" NAME="?cgmMultiTexCoord1hNV@OpenGLErrorChecker@OGL@AIF@@UAEXPBDIII@Z" PURGE="16" COMMENT="" />
    <EXPORT ORDINAL="2963" NAME="?cgmMultiTexCoord1hNV@OpenGLRekorder@OGL@AIF@@UAEXPBDIII@Z" PURGE="16" COMMENT="" />
    <EXPORT ORDINAL="2964" NAME="?cgmMultiTexCoord1hNV@OpenGLTracer@OGL@AIF@@UAEXPBDIII@Z" PURGE="16" COMMENT="" />
    <EXPORT ORDINAL="2965" NAME="?cgmMultiTexCoord1hvNV@OpenGLErrorChecker@OGL@AIF@@UAEXPBDIIPBI@Z" PURGE="16" COMMENT="" />
    <EXPORT ORDINAL="2966" NAME="?cgmMultiTexCoord1hvNV@OpenGLRekorder@OGL@AIF@@UAEXPBDIIPBI@Z" PURGE="-1" COMMENT="" />
    <EXPORT ORDINAL="2967" NAME="?cgmMultiTexCoord1hvNV@OpenGLTracer@OGL@AIF@@UAEXPBDIIPBI@Z" PURGE="16" COMMENT="" />
    <EXPORT ORDINAL="2968" NAME="?cgmMultiTexCoord1i@OpenGLErrorChecker@OGL@AIF@@UAEXPBDIIH@Z" PURGE="16" COMMENT="" />
    <EXPORT ORDINAL="2969" NAME="?cgmMultiTexCoord1i@OpenGLRekorder@OGL@AIF@@UAEXPBDIIH@Z" PURGE="16" COMMENT="" />
    <EXPORT ORDINAL="2970" NAME="?cgmMultiTexCoord1i@OpenGLTracer@OGL@AIF@@UAEXPBDIIH@Z" PURGE="16" COMMENT="" />
    <EXPORT ORDINAL="2971" NAME="?cgmMultiTexCoord1iARB@OpenGLErrorChecker@OGL@AIF@@UAEXPBDIIH@Z" PURGE="16" COMMENT="" />
    <EXPORT ORDINAL="2972" NAME="?cgmMultiTexCoord1iARB@OpenGLRekorder@OGL@AIF@@UAEXPBDIIH@Z" PURGE="16" COMMENT="" />
    <EXPORT ORDINAL="2973" NAME="?cgmMultiTexCoord1iARB@OpenGLTracer@OGL@AIF@@UAEXPBDIIH@Z" PURGE="16" COMMENT="" />
    <EXPORT ORDINAL="2974" NAME="?cgmMultiTexCoord1iv@OpenGLErrorChecker@OGL@AIF@@UAEXPBDIIPBH@Z" PURGE="16" COMMENT="" />
    <EXPORT ORDINAL="2975" NAME="?cgmMultiTexCoord1iv@OpenGLRekorder@OGL@AIF@@UAEXPBDIIPBH@Z" PURGE="16" COMMENT="" />
    <EXPORT ORDINAL="2976" NAME="?cgmMultiTexCoord1iv@OpenGLTracer@OGL@AIF@@UAEXPBDIIPBH@Z" PURGE="16" COMMENT="" />
    <EXPORT ORDINAL="2977" NAME="?cgmMultiTexCoord1ivARB@OpenGLErrorChecker@OGL@AIF@@UAEXPBDIIPBH@Z" PURGE="16" COMMENT="" />
    <EXPORT ORDINAL="2978" NAME="?cgmMultiTexCoord1ivARB@OpenGLRekorder@OGL@AIF@@UAEXPBDIIPBH@Z" PURGE="16" COMMENT="" />
    <EXPORT ORDINAL="2979" NAME="?cgmMultiTexCoord1ivARB@OpenGLTracer@OGL@AIF@@UAEXPBDIIPBH@Z" PURGE="16" COMMENT="" />
    <EXPORT ORDINAL="2980" NAME="?cgmMultiTexCoord1s@OpenGLErrorChecker@OGL@AIF@@UAEXPBDIIF@Z" PURGE="16" COMMENT="" />
    <EXPORT ORDINAL="2981" NAME="?cgmMultiTexCoord1s@OpenGLRekorder@OGL@AIF@@UAEXPBDIIF@Z" PURGE="16" COMMENT="" />
    <EXPORT ORDINAL="2982" NAME="?cgmMultiTexCoord1s@OpenGLTracer@OGL@AIF@@UAEXPBDIIF@Z" PURGE="16" COMMENT="" />
    <EXPORT ORDINAL="2983" NAME="?cgmMultiTexCoord1sARB@OpenGLErrorChecker@OGL@AIF@@UAEXPBDIIF@Z" PURGE="16" COMMENT="" />
    <EXPORT ORDINAL="2984" NAME="?cgmMultiTexCoord1sARB@OpenGLRekorder@OGL@AIF@@UAEXPBDIIF@Z" PURGE="16" COMMENT="" />
    <EXPORT ORDINAL="2985" NAME="?cgmMultiTexCoord1sARB@OpenGLTracer@OGL@AIF@@UAEXPBDIIF@Z" PURGE="16" COMMENT="" />
    <EXPORT ORDINAL="2986" NAME="?cgmMultiTexCoord1sv@OpenGLErrorChecker@OGL@AIF@@UAEXPBDIIPBF@Z" PURGE="16" COMMENT="" />
    <EXPORT ORDINAL="2987" NAME="?cgmMultiTexCoord1sv@OpenGLRekorder@OGL@AIF@@UAEXPBDIIPBF@Z" PURGE="-1" COMMENT="" />
    <EXPORT ORDINAL="2988" NAME="?cgmMultiTexCoord1sv@OpenGLTracer@OGL@AIF@@UAEXPBDIIPBF@Z" PURGE="16" COMMENT="" />
    <EXPORT ORDINAL="2989" NAME="?cgmMultiTexCoord1svARB@OpenGLErrorChecker@OGL@AIF@@UAEXPBDIIPBF@Z" PURGE="16" COMMENT="" />
    <EXPORT ORDINAL="2990" NAME="?cgmMultiTexCoord1svARB@OpenGLRekorder@OGL@AIF@@UAEXPBDIIPBF@Z" PURGE="-1" COMMENT="" />
    <EXPORT ORDINAL="2991" NAME="?cgmMultiTexCoord1svARB@OpenGLTracer@OGL@AIF@@UAEXPBDIIPBF@Z" PURGE="16" COMMENT="" />
    <EXPORT ORDINAL="2992" NAME="?cgmMultiTexCoord2d@OpenGLErrorChecker@OGL@AIF@@UAEXPBDIINN@Z" PURGE="28" COMMENT="" />
    <EXPORT ORDINAL="2993" NAME="?cgmMultiTexCoord2d@OpenGLRekorder@OGL@AIF@@UAEXPBDIINN@Z" PURGE="28" COMMENT="" />
    <EXPORT ORDINAL="2994" NAME="?cgmMultiTexCoord2d@OpenGLTracer@OGL@AIF@@UAEXPBDIINN@Z" PURGE="28" COMMENT="" />
    <EXPORT ORDINAL="2995" NAME="?cgmMultiTexCoord2dARB@OpenGLErrorChecker@OGL@AIF@@UAEXPBDIINN@Z" PURGE="28" COMMENT="" />
    <EXPORT ORDINAL="2996" NAME="?cgmMultiTexCoord2dARB@OpenGLRekorder@OGL@AIF@@UAEXPBDIINN@Z" PURGE="28" COMMENT="" />
    <EXPORT ORDINAL="2997" NAME="?cgmMultiTexCoord2dARB@OpenGLTracer@OGL@AIF@@UAEXPBDIINN@Z" PURGE="28" COMMENT="" />
    <EXPORT ORDINAL="2998" NAME="?cgmMultiTexCoord2dv@OpenGLErrorChecker@OGL@AIF@@UAEXPBDIIPBN@Z" PURGE="16" COMMENT="" />
    <EXPORT ORDINAL="2999" NAME="?cgmMultiTexCoord2dv@OpenGLRekorder@OGL@AIF@@UAEXPBDIIPBN@Z" PURGE="-1" COMMENT="" />
    <EXPORT ORDINAL="3000" NAME="?cgmMultiTexCoord2dv@OpenGLTracer@OGL@AIF@@UAEXPBDIIPBN@Z" PURGE="16" COMMENT="" />
    <EXPORT ORDINAL="3001" NAME="?cgmMultiTexCoord2dvARB@OpenGLErrorChecker@OGL@AIF@@UAEXPBDIIPBN@Z" PURGE="16" COMMENT="" />
    <EXPORT ORDINAL="3002" NAME="?cgmMultiTexCoord2dvARB@OpenGLRekorder@OGL@AIF@@UAEXPBDIIPBN@Z" PURGE="-1" COMMENT="" />
    <EXPORT ORDINAL="3003" NAME="?cgmMultiTexCoord2dvARB@OpenGLTracer@OGL@AIF@@UAEXPBDIIPBN@Z" PURGE="16" COMMENT="" />
    <EXPORT ORDINAL="3004" NAME="?cgmMultiTexCoord2f@OpenGLErrorChecker@OGL@AIF@@UAEXPBDIIMM@Z" PURGE="20" COMMENT="" />
    <EXPORT ORDINAL="3005" NAME="?cgmMultiTexCoord2f@OpenGLRekorder@OGL@AIF@@UAEXPBDIIMM@Z" PURGE="20" COMMENT="" />
    <EXPORT ORDINAL="3006" NAME="?cgmMultiTexCoord2f@OpenGLTracer@OGL@AIF@@UAEXPBDIIMM@Z" PURGE="20" COMMENT="" />
    <EXPORT ORDINAL="3007" NAME="?cgmMultiTexCoord2fARB@OpenGLErrorChecker@OGL@AIF@@UAEXPBDIIMM@Z" PURGE="20" COMMENT="" />
    <EXPORT ORDINAL="3008" NAME="?cgmMultiTexCoord2fARB@OpenGLRekorder@OGL@AIF@@UAEXPBDIIMM@Z" PURGE="20" COMMENT="" />
    <EXPORT ORDINAL="3009" NAME="?cgmMultiTexCoord2fARB@OpenGLTracer@OGL@AIF@@UAEXPBDIIMM@Z" PURGE="20" COMMENT="" />
    <EXPORT ORDINAL="3010" NAME="?cgmMultiTexCoord2fv@OpenGLErrorChecker@OGL@AIF@@UAEXPBDIIPBM@Z" PURGE="16" COMMENT="" />
    <EXPORT ORDINAL="3011" NAME="?cgmMultiTexCoord2fv@OpenGLRekorder@OGL@AIF@@UAEXPBDIIPBM@Z" PURGE="16" COMMENT="" />
    <EXPORT ORDINAL="3012" NAME="?cgmMultiTexCoord2fv@OpenGLTracer@OGL@AIF@@UAEXPBDIIPBM@Z" PURGE="16" COMMENT="" />
    <EXPORT ORDINAL="3013" NAME="?cgmMultiTexCoord2fvARB@OpenGLErrorChecker@OGL@AIF@@UAEXPBDIIPBM@Z" PURGE="16" COMMENT="" />
    <EXPORT ORDINAL="3014" NAME="?cgmMultiTexCoord2fvARB@OpenGLRekorder@OGL@AIF@@UAEXPBDIIPBM@Z" PURGE="16" COMMENT="" />
    <EXPORT ORDINAL="3015" NAME="?cgmMultiTexCoord2fvARB@OpenGLTracer@OGL@AIF@@UAEXPBDIIPBM@Z" PURGE="16" COMMENT="" />
    <EXPORT ORDINAL="3016" NAME="?cgmMultiTexCoord2hNV@OpenGLErrorChecker@OGL@AIF@@UAEXPBDIIII@Z" PURGE="20" COMMENT="" />
    <EXPORT ORDINAL="3017" NAME="?cgmMultiTexCoord2hNV@OpenGLRekorder@OGL@AIF@@UAEXPBDIIII@Z" PURGE="20" COMMENT="" />
    <EXPORT ORDINAL="3018" NAME="?cgmMultiTexCoord2hNV@OpenGLTracer@OGL@AIF@@UAEXPBDIIII@Z" PURGE="20" COMMENT="" />
    <EXPORT ORDINAL="3019" NAME="?cgmMultiTexCoord2hvNV@OpenGLErrorChecker@OGL@AIF@@UAEXPBDIIPBI@Z" PURGE="16" COMMENT="" />
    <EXPORT ORDINAL="3020" NAME="?cgmMultiTexCoord2hvNV@OpenGLRekorder@OGL@AIF@@UAEXPBDIIPBI@Z" PURGE="-1" COMMENT="" />
    <EXPORT ORDINAL="3021" NAME="?cgmMultiTexCoord2hvNV@OpenGLTracer@OGL@AIF@@UAEXPBDIIPBI@Z" PURGE="16" COMMENT="" />
    <EXPORT ORDINAL="3022" NAME="?cgmMultiTexCoord2i@OpenGLErrorChecker@OGL@AIF@@UAEXPBDIIHH@Z" PURGE="20" COMMENT="" />
    <EXPORT ORDINAL="3023" NAME="?cgmMultiTexCoord2i@OpenGLRekorder@OGL@AIF@@UAEXPBDIIHH@Z" PURGE="20" COMMENT="" />
    <EXPORT ORDINAL="3024" NAME="?cgmMultiTexCoord2i@OpenGLTracer@OGL@AIF@@UAEXPBDIIHH@Z" PURGE="20" COMMENT="" />
    <EXPORT ORDINAL="3025" NAME="?cgmMultiTexCoord2iARB@OpenGLErrorChecker@OGL@AIF@@UAEXPBDIIHH@Z" PURGE="20" COMMENT="" />
    <EXPORT ORDINAL="3026" NAME="?cgmMultiTexCoord2iARB@OpenGLRekorder@OGL@AIF@@UAEXPBDIIHH@Z" PURGE="20" COMMENT="" />
    <EXPORT ORDINAL="3027" NAME="?cgmMultiTexCoord2iARB@OpenGLTracer@OGL@AIF@@UAEXPBDIIHH@Z" PURGE="20" COMMENT="" />
    <EXPORT ORDINAL="3028" NAME="?cgmMultiTexCoord2iv@OpenGLErrorChecker@OGL@AIF@@UAEXPBDIIPBH@Z" PURGE="16" COMMENT="" />
    <EXPORT ORDINAL="3029" NAME="?cgmMultiTexCoord2iv@OpenGLRekorder@OGL@AIF@@UAEXPBDIIPBH@Z" PURGE="16" COMMENT="" />
    <EXPORT ORDINAL="3030" NAME="?cgmMultiTexCoord2iv@OpenGLTracer@OGL@AIF@@UAEXPBDIIPBH@Z" PURGE="16" COMMENT="" />
    <EXPORT ORDINAL="3031" NAME="?cgmMultiTexCoord2ivARB@OpenGLErrorChecker@OGL@AIF@@UAEXPBDIIPBH@Z" PURGE="16" COMMENT="" />
    <EXPORT ORDINAL="3032" NAME="?cgmMultiTexCoord2ivARB@OpenGLRekorder@OGL@AIF@@UAEXPBDIIPBH@Z" PURGE="16" COMMENT="" />
    <EXPORT ORDINAL="3033" NAME="?cgmMultiTexCoord2ivARB@OpenGLTracer@OGL@AIF@@UAEXPBDIIPBH@Z" PURGE="16" COMMENT="" />
    <EXPORT ORDINAL="3034" NAME="?cgmMultiTexCoord2s@OpenGLErrorChecker@OGL@AIF@@UAEXPBDIIFF@Z" PURGE="20" COMMENT="" />
    <EXPORT ORDINAL="3035" NAME="?cgmMultiTexCoord2s@OpenGLRekorder@OGL@AIF@@UAEXPBDIIFF@Z" PURGE="20" COMMENT="" />
    <EXPORT ORDINAL="3036" NAME="?cgmMultiTexCoord2s@OpenGLTracer@OGL@AIF@@UAEXPBDIIFF@Z" PURGE="20" COMMENT="" />
    <EXPORT ORDINAL="3037" NAME="?cgmMultiTexCoord2sARB@OpenGLErrorChecker@OGL@AIF@@UAEXPBDIIFF@Z" PURGE="20" COMMENT="" />
    <EXPORT ORDINAL="3038" NAME="?cgmMultiTexCoord2sARB@OpenGLRekorder@OGL@AIF@@UAEXPBDIIFF@Z" PURGE="20" COMMENT="" />
    <EXPORT ORDINAL="3039" NAME="?cgmMultiTexCoord2sARB@OpenGLTracer@OGL@AIF@@UAEXPBDIIFF@Z" PURGE="20" COMMENT="" />
    <EXPORT ORDINAL="3040" NAME="?cgmMultiTexCoord2sv@OpenGLErrorChecker@OGL@AIF@@UAEXPBDIIPBF@Z" PURGE="16" COMMENT="" />
    <EXPORT ORDINAL="3041" NAME="?cgmMultiTexCoord2sv@OpenGLRekorder@OGL@AIF@@UAEXPBDIIPBF@Z" PURGE="-1" COMMENT="" />
    <EXPORT ORDINAL="3042" NAME="?cgmMultiTexCoord2sv@OpenGLTracer@OGL@AIF@@UAEXPBDIIPBF@Z" PURGE="16" COMMENT="" />
    <EXPORT ORDINAL="3043" NAME="?cgmMultiTexCoord2svARB@OpenGLErrorChecker@OGL@AIF@@UAEXPBDIIPBF@Z" PURGE="16" COMMENT="" />
    <EXPORT ORDINAL="3044" NAME="?cgmMultiTexCoord2svARB@OpenGLRekorder@OGL@AIF@@UAEXPBDIIPBF@Z" PURGE="-1" COMMENT="" />
    <EXPORT ORDINAL="3045" NAME="?cgmMultiTexCoord2svARB@OpenGLTracer@OGL@AIF@@UAEXPBDIIPBF@Z" PURGE="16" COMMENT="" />
    <EXPORT ORDINAL="3046" NAME="?cgmMultiTexCoord3d@OpenGLErrorChecker@OGL@AIF@@UAEXPBDIINNN@Z" PURGE="36" COMMENT="" />
    <EXPORT ORDINAL="3047" NAME="?cgmMultiTexCoord3d@OpenGLRekorder@OGL@AIF@@UAEXPBDIINNN@Z" PURGE="36" COMMENT="" />
    <EXPORT ORDINAL="3048" NAME="?cgmMultiTexCoord3d@OpenGLTracer@OGL@AIF@@UAEXPBDIINNN@Z" PURGE="36" COMMENT="" />
    <EXPORT ORDINAL="3049" NAME="?cgmMultiTexCoord3dARB@OpenGLErrorChecker@OGL@AIF@@UAEXPBDIINNN@Z" PURGE="36" COMMENT="" />
    <EXPORT ORDINAL="3050" NAME="?cgmMultiTexCoord3dARB@OpenGLRekorder@OGL@AIF@@UAEXPBDIINNN@Z" PURGE="36" COMMENT="" />
    <EXPORT ORDINAL="3051" NAME="?cgmMultiTexCoord3dARB@OpenGLTracer@OGL@AIF@@UAEXPBDIINNN@Z" PURGE="36" COMMENT="" />
    <EXPORT ORDINAL="3052" NAME="?cgmMultiTexCoord3dv@OpenGLErrorChecker@OGL@AIF@@UAEXPBDIIPBN@Z" PURGE="16" COMMENT="" />
    <EXPORT ORDINAL="3053" NAME="?cgmMultiTexCoord3dv@OpenGLRekorder@OGL@AIF@@UAEXPBDIIPBN@Z" PURGE="-1" COMMENT="" />
    <EXPORT ORDINAL="3054" NAME="?cgmMultiTexCoord3dv@OpenGLTracer@OGL@AIF@@UAEXPBDIIPBN@Z" PURGE="16" COMMENT="" />
    <EXPORT ORDINAL="3055" NAME="?cgmMultiTexCoord3dvARB@OpenGLErrorChecker@OGL@AIF@@UAEXPBDIIPBN@Z" PURGE="16" COMMENT="" />
    <EXPORT ORDINAL="3056" NAME="?cgmMultiTexCoord3dvARB@OpenGLRekorder@OGL@AIF@@UAEXPBDIIPBN@Z" PURGE="-1" COMMENT="" />
    <EXPORT ORDINAL="3057" NAME="?cgmMultiTexCoord3dvARB@OpenGLTracer@OGL@AIF@@UAEXPBDIIPBN@Z" PURGE="16" COMMENT="" />
    <EXPORT ORDINAL="3058" NAME="?cgmMultiTexCoord3f@OpenGLErrorChecker@OGL@AIF@@UAEXPBDIIMMM@Z" PURGE="24" COMMENT="" />
    <EXPORT ORDINAL="3059" NAME="?cgmMultiTexCoord3f@OpenGLRekorder@OGL@AIF@@UAEXPBDIIMMM@Z" PURGE="24" COMMENT="" />
    <EXPORT ORDINAL="3060" NAME="?cgmMultiTexCoord3f@OpenGLTracer@OGL@AIF@@UAEXPBDIIMMM@Z" PURGE="24" COMMENT="" />
    <EXPORT ORDINAL="3061" NAME="?cgmMultiTexCoord3fARB@OpenGLErrorChecker@OGL@AIF@@UAEXPBDIIMMM@Z" PURGE="24" COMMENT="" />
    <EXPORT ORDINAL="3062" NAME="?cgmMultiTexCoord3fARB@OpenGLRekorder@OGL@AIF@@UAEXPBDIIMMM@Z" PURGE="24" COMMENT="" />
    <EXPORT ORDINAL="3063" NAME="?cgmMultiTexCoord3fARB@OpenGLTracer@OGL@AIF@@UAEXPBDIIMMM@Z" PURGE="24" COMMENT="" />
    <EXPORT ORDINAL="3064" NAME="?cgmMultiTexCoord3fv@OpenGLErrorChecker@OGL@AIF@@UAEXPBDIIPBM@Z" PURGE="16" COMMENT="" />
    <EXPORT ORDINAL="3065" NAME="?cgmMultiTexCoord3fv@OpenGLRekorder@OGL@AIF@@UAEXPBDIIPBM@Z" PURGE="16" COMMENT="" />
    <EXPORT ORDINAL="3066" NAME="?cgmMultiTexCoord3fv@OpenGLTracer@OGL@AIF@@UAEXPBDIIPBM@Z" PURGE="16" COMMENT="" />
    <EXPORT ORDINAL="3067" NAME="?cgmMultiTexCoord3fvARB@OpenGLErrorChecker@OGL@AIF@@UAEXPBDIIPBM@Z" PURGE="16" COMMENT="" />
    <EXPORT ORDINAL="3068" NAME="?cgmMultiTexCoord3fvARB@OpenGLRekorder@OGL@AIF@@UAEXPBDIIPBM@Z" PURGE="16" COMMENT="" />
    <EXPORT ORDINAL="3069" NAME="?cgmMultiTexCoord3fvARB@OpenGLTracer@OGL@AIF@@UAEXPBDIIPBM@Z" PURGE="16" COMMENT="" />
    <EXPORT ORDINAL="3070" NAME="?cgmMultiTexCoord3hNV@OpenGLErrorChecker@OGL@AIF@@UAEXPBDIIIII@Z" PURGE="24" COMMENT="" />
    <EXPORT ORDINAL="3071" NAME="?cgmMultiTexCoord3hNV@OpenGLRekorder@OGL@AIF@@UAEXPBDIIIII@Z" PURGE="24" COMMENT="" />
    <EXPORT ORDINAL="3072" NAME="?cgmMultiTexCoord3hNV@OpenGLTracer@OGL@AIF@@UAEXPBDIIIII@Z" PURGE="24" COMMENT="" />
    <EXPORT ORDINAL="3073" NAME="?cgmMultiTexCoord3hvNV@OpenGLErrorChecker@OGL@AIF@@UAEXPBDIIPBI@Z" PURGE="16" COMMENT="" />
    <EXPORT ORDINAL="3074" NAME="?cgmMultiTexCoord3hvNV@OpenGLRekorder@OGL@AIF@@UAEXPBDIIPBI@Z" PURGE="-1" COMMENT="" />
    <EXPORT ORDINAL="3075" NAME="?cgmMultiTexCoord3hvNV@OpenGLTracer@OGL@AIF@@UAEXPBDIIPBI@Z" PURGE="16" COMMENT="" />
    <EXPORT ORDINAL="3076" NAME="?cgmMultiTexCoord3i@OpenGLErrorChecker@OGL@AIF@@UAEXPBDIIHHH@Z" PURGE="24" COMMENT="" />
    <EXPORT ORDINAL="3077" NAME="?cgmMultiTexCoord3i@OpenGLRekorder@OGL@AIF@@UAEXPBDIIHHH@Z" PURGE="24" COMMENT="" />
    <EXPORT ORDINAL="3078" NAME="?cgmMultiTexCoord3i@OpenGLTracer@OGL@AIF@@UAEXPBDIIHHH@Z" PURGE="24" COMMENT="" />
    <EXPORT ORDINAL="3079" NAME="?cgmMultiTexCoord3iARB@OpenGLErrorChecker@OGL@AIF@@UAEXPBDIIHHH@Z" PURGE="24" COMMENT="" />
    <EXPORT ORDINAL="3080" NAME="?cgmMultiTexCoord3iARB@OpenGLRekorder@OGL@AIF@@UAEXPBDIIHHH@Z" PURGE="24" COMMENT="" />
    <EXPORT ORDINAL="3081" NAME="?cgmMultiTexCoord3iARB@OpenGLTracer@OGL@AIF@@UAEXPBDIIHHH@Z" PURGE="24" COMMENT="" />
    <EXPORT ORDINAL="3082" NAME="?cgmMultiTexCoord3iv@OpenGLErrorChecker@OGL@AIF@@UAEXPBDIIPBH@Z" PURGE="16" COMMENT="" />
    <EXPORT ORDINAL="3083" NAME="?cgmMultiTexCoord3iv@OpenGLRekorder@OGL@AIF@@UAEXPBDIIPBH@Z" PURGE="16" COMMENT="" />
    <EXPORT ORDINAL="3084" NAME="?cgmMultiTexCoord3iv@OpenGLTracer@OGL@AIF@@UAEXPBDIIPBH@Z" PURGE="16" COMMENT="" />
    <EXPORT ORDINAL="3085" NAME="?cgmMultiTexCoord3ivARB@OpenGLErrorChecker@OGL@AIF@@UAEXPBDIIPBH@Z" PURGE="16" COMMENT="" />
    <EXPORT ORDINAL="3086" NAME="?cgmMultiTexCoord3ivARB@OpenGLRekorder@OGL@AIF@@UAEXPBDIIPBH@Z" PURGE="16" COMMENT="" />
    <EXPORT ORDINAL="3087" NAME="?cgmMultiTexCoord3ivARB@OpenGLTracer@OGL@AIF@@UAEXPBDIIPBH@Z" PURGE="16" COMMENT="" />
    <EXPORT ORDINAL="3088" NAME="?cgmMultiTexCoord3s@OpenGLErrorChecker@OGL@AIF@@UAEXPBDIIFFF@Z" PURGE="24" COMMENT="" />
    <EXPORT ORDINAL="3089" NAME="?cgmMultiTexCoord3s@OpenGLRekorder@OGL@AIF@@UAEXPBDIIFFF@Z" PURGE="24" COMMENT="" />
    <EXPORT ORDINAL="3090" NAME="?cgmMultiTexCoord3s@OpenGLTracer@OGL@AIF@@UAEXPBDIIFFF@Z" PURGE="24" COMMENT="" />
    <EXPORT ORDINAL="3091" NAME="?cgmMultiTexCoord3sARB@OpenGLErrorChecker@OGL@AIF@@UAEXPBDIIFFF@Z" PURGE="24" COMMENT="" />
    <EXPORT ORDINAL="3092" NAME="?cgmMultiTexCoord3sARB@OpenGLRekorder@OGL@AIF@@UAEXPBDIIFFF@Z" PURGE="24" COMMENT="" />
    <EXPORT ORDINAL="3093" NAME="?cgmMultiTexCoord3sARB@OpenGLTracer@OGL@AIF@@UAEXPBDIIFFF@Z" PURGE="24" COMMENT="" />
    <EXPORT ORDINAL="3094" NAME="?cgmMultiTexCoord3sv@OpenGLErrorChecker@OGL@AIF@@UAEXPBDIIPBF@Z" PURGE="16" COMMENT="" />
    <EXPORT ORDINAL="3095" NAME="?cgmMultiTexCoord3sv@OpenGLRekorder@OGL@AIF@@UAEXPBDIIPBF@Z" PURGE="-1" COMMENT="" />
    <EXPORT ORDINAL="3096" NAME="?cgmMultiTexCoord3sv@OpenGLTracer@OGL@AIF@@UAEXPBDIIPBF@Z" PURGE="16" COMMENT="" />
    <EXPORT ORDINAL="3097" NAME="?cgmMultiTexCoord3svARB@OpenGLErrorChecker@OGL@AIF@@UAEXPBDIIPBF@Z" PURGE="16" COMMENT="" />
    <EXPORT ORDINAL="3098" NAME="?cgmMultiTexCoord3svARB@OpenGLRekorder@OGL@AIF@@UAEXPBDIIPBF@Z" PURGE="-1" COMMENT="" />
    <EXPORT ORDINAL="3099" NAME="?cgmMultiTexCoord3svARB@OpenGLTracer@OGL@AIF@@UAEXPBDIIPBF@Z" PURGE="16" COMMENT="" />
    <EXPORT ORDINAL="3100" NAME="?cgmMultiTexCoord4d@OpenGLErrorChecker@OGL@AIF@@UAEXPBDIINNNN@Z" PURGE="44" COMMENT="" />
    <EXPORT ORDINAL="3101" NAME="?cgmMultiTexCoord4d@OpenGLRekorder@OGL@AIF@@UAEXPBDIINNNN@Z" PURGE="44" COMMENT="" />
    <EXPORT ORDINAL="3102" NAME="?cgmMultiTexCoord4d@OpenGLTracer@OGL@AIF@@UAEXPBDIINNNN@Z" PURGE="44" COMMENT="" />
    <EXPORT ORDINAL="3103" NAME="?cgmMultiTexCoord4dARB@OpenGLErrorChecker@OGL@AIF@@UAEXPBDIINNNN@Z" PURGE="44" COMMENT="" />
    <EXPORT ORDINAL="3104" NAME="?cgmMultiTexCoord4dARB@OpenGLRekorder@OGL@AIF@@UAEXPBDIINNNN@Z" PURGE="44" COMMENT="" />
    <EXPORT ORDINAL="3105" NAME="?cgmMultiTexCoord4dARB@OpenGLTracer@OGL@AIF@@UAEXPBDIINNNN@Z" PURGE="44" COMMENT="" />
    <EXPORT ORDINAL="3106" NAME="?cgmMultiTexCoord4dv@OpenGLErrorChecker@OGL@AIF@@UAEXPBDIIPBN@Z" PURGE="16" COMMENT="" />
    <EXPORT ORDINAL="3107" NAME="?cgmMultiTexCoord4dv@OpenGLRekorder@OGL@AIF@@UAEXPBDIIPBN@Z" PURGE="-1" COMMENT="" />
    <EXPORT ORDINAL="3108" NAME="?cgmMultiTexCoord4dv@OpenGLTracer@OGL@AIF@@UAEXPBDIIPBN@Z" PURGE="16" COMMENT="" />
    <EXPORT ORDINAL="3109" NAME="?cgmMultiTexCoord4dvARB@OpenGLErrorChecker@OGL@AIF@@UAEXPBDIIPBN@Z" PURGE="16" COMMENT="" />
    <EXPORT ORDINAL="3110" NAME="?cgmMultiTexCoord4dvARB@OpenGLRekorder@OGL@AIF@@UAEXPBDIIPBN@Z" PURGE="-1" COMMENT="" />
    <EXPORT ORDINAL="3111" NAME="?cgmMultiTexCoord4dvARB@OpenGLTracer@OGL@AIF@@UAEXPBDIIPBN@Z" PURGE="16" COMMENT="" />
    <EXPORT ORDINAL="3112" NAME="?cgmMultiTexCoord4f@OpenGLErrorChecker@OGL@AIF@@UAEXPBDIIMMMM@Z" PURGE="28" COMMENT="" />
    <EXPORT ORDINAL="3113" NAME="?cgmMultiTexCoord4f@OpenGLRekorder@OGL@AIF@@UAEXPBDIIMMMM@Z" PURGE="28" COMMENT="" />
    <EXPORT ORDINAL="3114" NAME="?cgmMultiTexCoord4f@OpenGLTracer@OGL@AIF@@UAEXPBDIIMMMM@Z" PURGE="28" COMMENT="" />
    <EXPORT ORDINAL="3115" NAME="?cgmMultiTexCoord4fARB@OpenGLErrorChecker@OGL@AIF@@UAEXPBDIIMMMM@Z" PURGE="28" COMMENT="" />
    <EXPORT ORDINAL="3116" NAME="?cgmMultiTexCoord4fARB@OpenGLRekorder@OGL@AIF@@UAEXPBDIIMMMM@Z" PURGE="28" COMMENT="" />
    <EXPORT ORDINAL="3117" NAME="?cgmMultiTexCoord4fARB@OpenGLTracer@OGL@AIF@@UAEXPBDIIMMMM@Z" PURGE="28" COMMENT="" />
    <EXPORT ORDINAL="3118" NAME="?cgmMultiTexCoord4fv@OpenGLErrorChecker@OGL@AIF@@UAEXPBDIIPBM@Z" PURGE="16" COMMENT="" />
    <EXPORT ORDINAL="3119" NAME="?cgmMultiTexCoord4fv@OpenGLRekorder@OGL@AIF@@UAEXPBDIIPBM@Z" PURGE="16" COMMENT="" />
    <EXPORT ORDINAL="3120" NAME="?cgmMultiTexCoord4fv@OpenGLTracer@OGL@AIF@@UAEXPBDIIPBM@Z" PURGE="16" COMMENT="" />
    <EXPORT ORDINAL="3121" NAME="?cgmMultiTexCoord4fvARB@OpenGLErrorChecker@OGL@AIF@@UAEXPBDIIPBM@Z" PURGE="16" COMMENT="" />
    <EXPORT ORDINAL="3122" NAME="?cgmMultiTexCoord4fvARB@OpenGLRekorder@OGL@AIF@@UAEXPBDIIPBM@Z" PURGE="16" COMMENT="" />
    <EXPORT ORDINAL="3123" NAME="?cgmMultiTexCoord4fvARB@OpenGLTracer@OGL@AIF@@UAEXPBDIIPBM@Z" PURGE="16" COMMENT="" />
    <EXPORT ORDINAL="3124" NAME="?cgmMultiTexCoord4hNV@OpenGLErrorChecker@OGL@AIF@@UAEXPBDIIIIII@Z" PURGE="28" COMMENT="" />
    <EXPORT ORDINAL="3125" NAME="?cgmMultiTexCoord4hNV@OpenGLRekorder@OGL@AIF@@UAEXPBDIIIIII@Z" PURGE="28" COMMENT="" />
    <EXPORT ORDINAL="3126" NAME="?cgmMultiTexCoord4hNV@OpenGLTracer@OGL@AIF@@UAEXPBDIIIIII@Z" PURGE="28" COMMENT="" />
    <EXPORT ORDINAL="3127" NAME="?cgmMultiTexCoord4hvNV@OpenGLErrorChecker@OGL@AIF@@UAEXPBDIIPBI@Z" PURGE="16" COMMENT="" />
    <EXPORT ORDINAL="3128" NAME="?cgmMultiTexCoord4hvNV@OpenGLRekorder@OGL@AIF@@UAEXPBDIIPBI@Z" PURGE="-1" COMMENT="" />
    <EXPORT ORDINAL="3129" NAME="?cgmMultiTexCoord4hvNV@OpenGLTracer@OGL@AIF@@UAEXPBDIIPBI@Z" PURGE="16" COMMENT="" />
    <EXPORT ORDINAL="3130" NAME="?cgmMultiTexCoord4i@OpenGLErrorChecker@OGL@AIF@@UAEXPBDIIHHHH@Z" PURGE="28" COMMENT="" />
    <EXPORT ORDINAL="3131" NAME="?cgmMultiTexCoord4i@OpenGLRekorder@OGL@AIF@@UAEXPBDIIHHHH@Z" PURGE="28" COMMENT="" />
    <EXPORT ORDINAL="3132" NAME="?cgmMultiTexCoord4i@OpenGLTracer@OGL@AIF@@UAEXPBDIIHHHH@Z" PURGE="28" COMMENT="" />
    <EXPORT ORDINAL="3133" NAME="?cgmMultiTexCoord4iARB@OpenGLErrorChecker@OGL@AIF@@UAEXPBDIIHHHH@Z" PURGE="28" COMMENT="" />
    <EXPORT ORDINAL="3134" NAME="?cgmMultiTexCoord4iARB@OpenGLRekorder@OGL@AIF@@UAEXPBDIIHHHH@Z" PURGE="28" COMMENT="" />
    <EXPORT ORDINAL="3135" NAME="?cgmMultiTexCoord4iARB@OpenGLTracer@OGL@AIF@@UAEXPBDIIHHHH@Z" PURGE="28" COMMENT="" />
    <EXPORT ORDINAL="3136" NAME="?cgmMultiTexCoord4iv@OpenGLErrorChecker@OGL@AIF@@UAEXPBDIIPBH@Z" PURGE="16" COMMENT="" />
    <EXPORT ORDINAL="3137" NAME="?cgmMultiTexCoord4iv@OpenGLRekorder@OGL@AIF@@UAEXPBDIIPBH@Z" PURGE="16" COMMENT="" />
    <EXPORT ORDINAL="3138" NAME="?cgmMultiTexCoord4iv@OpenGLTracer@OGL@AIF@@UAEXPBDIIPBH@Z" PURGE="16" COMMENT="" />
    <EXPORT ORDINAL="3139" NAME="?cgmMultiTexCoord4ivARB@OpenGLErrorChecker@OGL@AIF@@UAEXPBDIIPBH@Z" PURGE="16" COMMENT="" />
    <EXPORT ORDINAL="3140" NAME="?cgmMultiTexCoord4ivARB@OpenGLRekorder@OGL@AIF@@UAEXPBDIIPBH@Z" PURGE="16" COMMENT="" />
    <EXPORT ORDINAL="3141" NAME="?cgmMultiTexCoord4ivARB@OpenGLTracer@OGL@AIF@@UAEXPBDIIPBH@Z" PURGE="16" COMMENT="" />
    <EXPORT ORDINAL="3142" NAME="?cgmMultiTexCoord4s@OpenGLErrorChecker@OGL@AIF@@UAEXPBDIIFFFF@Z" PURGE="28" COMMENT="" />
    <EXPORT ORDINAL="3143" NAME="?cgmMultiTexCoord4s@OpenGLRekorder@OGL@AIF@@UAEXPBDIIFFFF@Z" PURGE="28" COMMENT="" />
    <EXPORT ORDINAL="3144" NAME="?cgmMultiTexCoord4s@OpenGLTracer@OGL@AIF@@UAEXPBDIIFFFF@Z" PURGE="28" COMMENT="" />
    <EXPORT ORDINAL="3145" NAME="?cgmMultiTexCoord4sARB@OpenGLErrorChecker@OGL@AIF@@UAEXPBDIIFFFF@Z" PURGE="28" COMMENT="" />
    <EXPORT ORDINAL="3146" NAME="?cgmMultiTexCoord4sARB@OpenGLRekorder@OGL@AIF@@UAEXPBDIIFFFF@Z" PURGE="28" COMMENT="" />
    <EXPORT ORDINAL="3147" NAME="?cgmMultiTexCoord4sARB@OpenGLTracer@OGL@AIF@@UAEXPBDIIFFFF@Z" PURGE="28" COMMENT="" />
    <EXPORT ORDINAL="3148" NAME="?cgmMultiTexCoord4sv@OpenGLErrorChecker@OGL@AIF@@UAEXPBDIIPBF@Z" PURGE="16" COMMENT="" />
    <EXPORT ORDINAL="3149" NAME="?cgmMultiTexCoord4sv@OpenGLRekorder@OGL@AIF@@UAEXPBDIIPBF@Z" PURGE="-1" COMMENT="" />
    <EXPORT ORDINAL="3150" NAME="?cgmMultiTexCoord4sv@OpenGLTracer@OGL@AIF@@UAEXPBDIIPBF@Z" PURGE="16" COMMENT="" />
    <EXPORT ORDINAL="3151" NAME="?cgmMultiTexCoord4svARB@OpenGLErrorChecker@OGL@AIF@@UAEXPBDIIPBF@Z" PURGE="16" COMMENT="" />
    <EXPORT ORDINAL="3152" NAME="?cgmMultiTexCoord4svARB@OpenGLRekorder@OGL@AIF@@UAEXPBDIIPBF@Z" PURGE="-1" COMMENT="" />
    <EXPORT ORDINAL="3153" NAME="?cgmMultiTexCoord4svARB@OpenGLTracer@OGL@AIF@@UAEXPBDIIPBF@Z" PURGE="16" COMMENT="" />
    <EXPORT ORDINAL="3154" NAME="?cgmMultiTexCoordPointerEXT@OpenGLErrorChecker@OGL@AIF@@UAEXPBDIIHIHPBX@Z" PURGE="28" COMMENT="" />
    <EXPORT ORDINAL="3155" NAME="?cgmMultiTexCoordPointerEXT@OpenGLRekorder@OGL@AIF@@UAEXPBDIIHIHPBX@Z" PURGE="-1" COMMENT="" />
    <EXPORT ORDINAL="3156" NAME="?cgmMultiTexCoordPointerEXT@OpenGLTracer@OGL@AIF@@UAEXPBDIIHIHPBX@Z" PURGE="28" COMMENT="" />
    <EXPORT ORDINAL="3157" NAME="?cgmMultiTexEnvfEXT@OpenGLErrorChecker@OGL@AIF@@UAEXPBDIIIIM@Z" PURGE="24" COMMENT="" />
    <EXPORT ORDINAL="3158" NAME="?cgmMultiTexEnvfEXT@OpenGLRekorder@OGL@AIF@@UAEXPBDIIIIM@Z" PURGE="24" COMMENT="" />
    <EXPORT ORDINAL="3159" NAME="?cgmMultiTexEnvfEXT@OpenGLTracer@OGL@AIF@@UAEXPBDIIIIM@Z" PURGE="24" COMMENT="" />
    <EXPORT ORDINAL="3160" NAME="?cgmMultiTexEnvfvEXT@OpenGLErrorChecker@OGL@AIF@@UAEXPBDIIIIPBM@Z" PURGE="24" COMMENT="" />
    <EXPORT ORDINAL="3161" NAME="?cgmMultiTexEnvfvEXT@OpenGLRekorder@OGL@AIF@@UAEXPBDIIIIPBM@Z" PURGE="-1" COMMENT="" />
    <EXPORT ORDINAL="3162" NAME="?cgmMultiTexEnvfvEXT@OpenGLTracer@OGL@AIF@@UAEXPBDIIIIPBM@Z" PURGE="24" COMMENT="" />
    <EXPORT ORDINAL="3163" NAME="?cgmMultiTexEnviEXT@OpenGLErrorChecker@OGL@AIF@@UAEXPBDIIIIH@Z" PURGE="24" COMMENT="" />
    <EXPORT ORDINAL="3164" NAME="?cgmMultiTexEnviEXT@OpenGLRekorder@OGL@AIF@@UAEXPBDIIIIH@Z" PURGE="24" COMMENT="" />
    <EXPORT ORDINAL="3165" NAME="?cgmMultiTexEnviEXT@OpenGLTracer@OGL@AIF@@UAEXPBDIIIIH@Z" PURGE="24" COMMENT="" />
    <EXPORT ORDINAL="3166" NAME="?cgmMultiTexEnvivEXT@OpenGLErrorChecker@OGL@AIF@@UAEXPBDIIIIPBH@Z" PURGE="24" COMMENT="" />
    <EXPORT ORDINAL="3167" NAME="?cgmMultiTexEnvivEXT@OpenGLRekorder@OGL@AIF@@UAEXPBDIIIIPBH@Z" PURGE="-1" COMMENT="" />
    <EXPORT ORDINAL="3168" NAME="?cgmMultiTexEnvivEXT@OpenGLTracer@OGL@AIF@@UAEXPBDIIIIPBH@Z" PURGE="24" COMMENT="" />
    <EXPORT ORDINAL="3169" NAME="?cgmMultiTexGendEXT@OpenGLErrorChecker@OGL@AIF@@UAEXPBDIIIIN@Z" PURGE="28" COMMENT="" />
    <EXPORT ORDINAL="3170" NAME="?cgmMultiTexGendEXT@OpenGLRekorder@OGL@AIF@@UAEXPBDIIIIN@Z" PURGE="28" COMMENT="" />
    <EXPORT ORDINAL="3171" NAME="?cgmMultiTexGendEXT@OpenGLTracer@OGL@AIF@@UAEXPBDIIIIN@Z" PURGE="28" COMMENT="" />
    <EXPORT ORDINAL="3172" NAME="?cgmMultiTexGendvEXT@OpenGLErrorChecker@OGL@AIF@@UAEXPBDIIIIPBN@Z" PURGE="24" COMMENT="" />
    <EXPORT ORDINAL="3173" NAME="?cgmMultiTexGendvEXT@OpenGLRekorder@OGL@AIF@@UAEXPBDIIIIPBN@Z" PURGE="-1" COMMENT="" />
    <EXPORT ORDINAL="3174" NAME="?cgmMultiTexGendvEXT@OpenGLTracer@OGL@AIF@@UAEXPBDIIIIPBN@Z" PURGE="24" COMMENT="" />
    <EXPORT ORDINAL="3175" NAME="?cgmMultiTexGenfEXT@OpenGLErrorChecker@OGL@AIF@@UAEXPBDIIIIM@Z" PURGE="24" COMMENT="" />
    <EXPORT ORDINAL="3176" NAME="?cgmMultiTexGenfEXT@OpenGLRekorder@OGL@AIF@@UAEXPBDIIIIM@Z" PURGE="24" COMMENT="" />
    <EXPORT ORDINAL="3177" NAME="?cgmMultiTexGenfEXT@OpenGLTracer@OGL@AIF@@UAEXPBDIIIIM@Z" PURGE="24" COMMENT="" />
    <EXPORT ORDINAL="3178" NAME="?cgmMultiTexGenfvEXT@OpenGLErrorChecker@OGL@AIF@@UAEXPBDIIIIPBM@Z" PURGE="24" COMMENT="" />
    <EXPORT ORDINAL="3179" NAME="?cgmMultiTexGenfvEXT@OpenGLRekorder@OGL@AIF@@UAEXPBDIIIIPBM@Z" PURGE="-1" COMMENT="" />
    <EXPORT ORDINAL="3180" NAME="?cgmMultiTexGenfvEXT@OpenGLTracer@OGL@AIF@@UAEXPBDIIIIPBM@Z" PURGE="24" COMMENT="" />
    <EXPORT ORDINAL="3181" NAME="?cgmMultiTexGeniEXT@OpenGLErrorChecker@OGL@AIF@@UAEXPBDIIIIH@Z" PURGE="24" COMMENT="" />
    <EXPORT ORDINAL="3182" NAME="?cgmMultiTexGeniEXT@OpenGLRekorder@OGL@AIF@@UAEXPBDIIIIH@Z" PURGE="24" COMMENT="" />
    <EXPORT ORDINAL="3183" NAME="?cgmMultiTexGeniEXT@OpenGLTracer@OGL@AIF@@UAEXPBDIIIIH@Z" PURGE="24" COMMENT="" />
    <EXPORT ORDINAL="3184" NAME="?cgmMultiTexGenivEXT@OpenGLErrorChecker@OGL@AIF@@UAEXPBDIIIIPBH@Z" PURGE="24" COMMENT="" />
    <EXPORT ORDINAL="3185" NAME="?cgmMultiTexGenivEXT@OpenGLRekorder@OGL@AIF@@UAEXPBDIIIIPBH@Z" PURGE="-1" COMMENT="" />
    <EXPORT ORDINAL="3186" NAME="?cgmMultiTexGenivEXT@OpenGLTracer@OGL@AIF@@UAEXPBDIIIIPBH@Z" PURGE="24" COMMENT="" />
    <EXPORT ORDINAL="3187" NAME="?cgmMultiTexImage1DEXT@OpenGLErrorChecker@OGL@AIF@@UAEXPBDIIIHHHHIIPBX@Z" PURGE="44" COMMENT="" />
    <EXPORT ORDINAL="3188" NAME="?cgmMultiTexImage1DEXT@OpenGLRekorder@OGL@AIF@@UAEXPBDIIIHHHHIIPBX@Z" PURGE="-1" COMMENT="" />
    <EXPORT ORDINAL="3189" NAME="?cgmMultiTexImage1DEXT@OpenGLTracer@OGL@AIF@@UAEXPBDIIIHHHHIIPBX@Z" PURGE="44" COMMENT="" />
    <EXPORT ORDINAL="3190" NAME="?cgmMultiTexImage2DEXT@OpenGLErrorChecker@OGL@AIF@@UAEXPBDIIIHHHHHIIPBX@Z" PURGE="48" COMMENT="" />
    <EXPORT ORDINAL="3191" NAME="?cgmMultiTexImage2DEXT@OpenGLRekorder@OGL@AIF@@UAEXPBDIIIHHHHHIIPBX@Z" PURGE="-1" COMMENT="" />
    <EXPORT ORDINAL="3192" NAME="?cgmMultiTexImage2DEXT@OpenGLTracer@OGL@AIF@@UAEXPBDIIIHHHHHIIPBX@Z" PURGE="48" COMMENT="" />
    <EXPORT ORDINAL="3193" NAME="?cgmMultiTexImage3DEXT@OpenGLErrorChecker@OGL@AIF@@UAEXPBDIIIHHHHHHIIPBX@Z" PURGE="52" COMMENT="" />
    <EXPORT ORDINAL="3194" NAME="?cgmMultiTexImage3DEXT@OpenGLRekorder@OGL@AIF@@UAEXPBDIIIHHHHHHIIPBX@Z" PURGE="-1" COMMENT="" />
    <EXPORT ORDINAL="3195" NAME="?cgmMultiTexImage3DEXT@OpenGLTracer@OGL@AIF@@UAEXPBDIIIHHHHHHIIPBX@Z" PURGE="52" COMMENT="" />
    <EXPORT ORDINAL="3196" NAME="?cgmMultiTexParameterIivEXT@OpenGLErrorChecker@OGL@AIF@@UAEXPBDIIIIPBH@Z" PURGE="24" COMMENT="" />
    <EXPORT ORDINAL="3197" NAME="?cgmMultiTexParameterIivEXT@OpenGLRekorder@OGL@AIF@@UAEXPBDIIIIPBH@Z" PURGE="-1" COMMENT="" />
    <EXPORT ORDINAL="3198" NAME="?cgmMultiTexParameterIivEXT@OpenGLTracer@OGL@AIF@@UAEXPBDIIIIPBH@Z" PURGE="24" COMMENT="" />
    <EXPORT ORDINAL="3199" NAME="?cgmMultiTexParameterIuivEXT@OpenGLErrorChecker@OGL@AIF@@UAEXPBDIIIIPBI@Z" PURGE="24" COMMENT="" />
    <EXPORT ORDINAL="3200" NAME="?cgmMultiTexParameterIuivEXT@OpenGLRekorder@OGL@AIF@@UAEXPBDIIIIPBI@Z" PURGE="-1" COMMENT="" />
    <EXPORT ORDINAL="3201" NAME="?cgmMultiTexParameterIuivEXT@OpenGLTracer@OGL@AIF@@UAEXPBDIIIIPBI@Z" PURGE="24" COMMENT="" />
    <EXPORT ORDINAL="3202" NAME="?cgmMultiTexParameterfEXT@OpenGLErrorChecker@OGL@AIF@@UAEXPBDIIIIM@Z" PURGE="24" COMMENT="" />
    <EXPORT ORDINAL="3203" NAME="?cgmMultiTexParameterfEXT@OpenGLRekorder@OGL@AIF@@UAEXPBDIIIIM@Z" PURGE="24" COMMENT="" />
    <EXPORT ORDINAL="3204" NAME="?cgmMultiTexParameterfEXT@OpenGLTracer@OGL@AIF@@UAEXPBDIIIIM@Z" PURGE="24" COMMENT="" />
    <EXPORT ORDINAL="3205" NAME="?cgmMultiTexParameterfvEXT@OpenGLErrorChecker@OGL@AIF@@UAEXPBDIIIIPBM@Z" PURGE="24" COMMENT="" />
    <EXPORT ORDINAL="3206" NAME="?cgmMultiTexParameterfvEXT@OpenGLRekorder@OGL@AIF@@UAEXPBDIIIIPBM@Z" PURGE="-1" COMMENT="" />
    <EXPORT ORDINAL="3207" NAME="?cgmMultiTexParameterfvEXT@OpenGLTracer@OGL@AIF@@UAEXPBDIIIIPBM@Z" PURGE="24" COMMENT="" />
    <EXPORT ORDINAL="3208" NAME="?cgmMultiTexParameteriEXT@OpenGLErrorChecker@OGL@AIF@@UAEXPBDIIIIH@Z" PURGE="24" COMMENT="" />
    <EXPORT ORDINAL="3209" NAME="?cgmMultiTexParameteriEXT@OpenGLRekorder@OGL@AIF@@UAEXPBDIIIIH@Z" PURGE="24" COMMENT="" />
    <EXPORT ORDINAL="3210" NAME="?cgmMultiTexParameteriEXT@OpenGLTracer@OGL@AIF@@UAEXPBDIIIIH@Z" PURGE="24" COMMENT="" />
    <EXPORT ORDINAL="3211" NAME="?cgmMultiTexParameterivEXT@OpenGLErrorChecker@OGL@AIF@@UAEXPBDIIIIPBH@Z" PURGE="24" COMMENT="" />
    <EXPORT ORDINAL="3212" NAME="?cgmMultiTexParameterivEXT@OpenGLRekorder@OGL@AIF@@UAEXPBDIIIIPBH@Z" PURGE="-1" COMMENT="" />
    <EXPORT ORDINAL="3213" NAME="?cgmMultiTexParameterivEXT@OpenGLTracer@OGL@AIF@@UAEXPBDIIIIPBH@Z" PURGE="24" COMMENT="" />
    <EXPORT ORDINAL="3214" NAME="?cgmMultiTexRenderbufferEXT@OpenGLErrorChecker@OGL@AIF@@UAEXPBDIIII@Z" PURGE="20" COMMENT="" />
    <EXPORT ORDINAL="3215" NAME="?cgmMultiTexRenderbufferEXT@OpenGLRekorder@OGL@AIF@@UAEXPBDIIII@Z" PURGE="20" COMMENT="" />
    <EXPORT ORDINAL="3216" NAME="?cgmMultiTexRenderbufferEXT@OpenGLTracer@OGL@AIF@@UAEXPBDIIII@Z" PURGE="20" COMMENT="" />
    <EXPORT ORDINAL="3217" NAME="?cgmMultiTexSubImage1DEXT@OpenGLErrorChecker@OGL@AIF@@UAEXPBDIIIHHHIIPBX@Z" PURGE="40" COMMENT="" />
    <EXPORT ORDINAL="3218" NAME="?cgmMultiTexSubImage1DEXT@OpenGLRekorder@OGL@AIF@@UAEXPBDIIIHHHIIPBX@Z" PURGE="-1" COMMENT="" />
    <EXPORT ORDINAL="3219" NAME="?cgmMultiTexSubImage1DEXT@OpenGLTracer@OGL@AIF@@UAEXPBDIIIHHHIIPBX@Z" PURGE="40" COMMENT="" />
    <EXPORT ORDINAL="3220" NAME="?cgmMultiTexSubImage2DEXT@OpenGLErrorChecker@OGL@AIF@@UAEXPBDIIIHHHHHIIPBX@Z" PURGE="48" COMMENT="" />
    <EXPORT ORDINAL="3221" NAME="?cgmMultiTexSubImage2DEXT@OpenGLRekorder@OGL@AIF@@UAEXPBDIIIHHHHHIIPBX@Z" PURGE="-1" COMMENT="" />
    <EXPORT ORDINAL="3222" NAME="?cgmMultiTexSubImage2DEXT@OpenGLTracer@OGL@AIF@@UAEXPBDIIIHHHHHIIPBX@Z" PURGE="48" COMMENT="" />
    <EXPORT ORDINAL="3223" NAME="?cgmMultiTexSubImage3DEXT@OpenGLErrorChecker@OGL@AIF@@UAEXPBDIIIHHHHHHHIIPBX@Z" PURGE="56" COMMENT="" />
    <EXPORT ORDINAL="3224" NAME="?cgmMultiTexSubImage3DEXT@OpenGLRekorder@OGL@AIF@@UAEXPBDIIIHHHHHHHIIPBX@Z" PURGE="-1" COMMENT="" />
    <EXPORT ORDINAL="3225" NAME="?cgmMultiTexSubImage3DEXT@OpenGLTracer@OGL@AIF@@UAEXPBDIIIHHHHHHHIIPBX@Z" PURGE="56" COMMENT="" />
    <EXPORT ORDINAL="3226" NAME="?cgmNamedBufferDataEXT@OpenGLErrorChecker@OGL@AIF@@UAEXPBDIIHPBXI@Z" PURGE="24" COMMENT="" />
    <EXPORT ORDINAL="3227" NAME="?cgmNamedBufferDataEXT@OpenGLRekorder@OGL@AIF@@UAEXPBDIIHPBXI@Z" PURGE="-1" COMMENT="" />
    <EXPORT ORDINAL="3228" NAME="?cgmNamedBufferDataEXT@OpenGLTracer@OGL@AIF@@UAEXPBDIIHPBXI@Z" PURGE="24" COMMENT="" />
    <EXPORT ORDINAL="3229" NAME="?cgmNamedBufferSubDataEXT@OpenGLErrorChecker@OGL@AIF@@UAEXPBDIIHHPBX@Z" PURGE="24" COMMENT="" />
    <EXPORT ORDINAL="3230" NAME="?cgmNamedBufferSubDataEXT@OpenGLRekorder@OGL@AIF@@UAEXPBDIIHHPBX@Z" PURGE="-1" COMMENT="" />
    <EXPORT ORDINAL="3231" NAME="?cgmNamedBufferSubDataEXT@OpenGLTracer@OGL@AIF@@UAEXPBDIIHHPBX@Z" PURGE="24" COMMENT="" />
    <EXPORT ORDINAL="3232" NAME="?cgmNamedFramebufferRenderbufferEXT@OpenGLErrorChecker@OGL@AIF@@UAEXPBDIIIII@Z" PURGE="24" COMMENT="" />
    <EXPORT ORDINAL="3233" NAME="?cgmNamedFramebufferRenderbufferEXT@OpenGLRekorder@OGL@AIF@@UAEXPBDIIIII@Z" PURGE="24" COMMENT="" />
    <EXPORT ORDINAL="3234" NAME="?cgmNamedFramebufferRenderbufferEXT@OpenGLTracer@OGL@AIF@@UAEXPBDIIIII@Z" PURGE="24" COMMENT="" />
    <EXPORT ORDINAL="3235" NAME="?cgmNamedFramebufferTexture1DEXT@OpenGLErrorChecker@OGL@AIF@@UAEXPBDIIIIIH@Z" PURGE="28" COMMENT="" />
    <EXPORT ORDINAL="3236" NAME="?cgmNamedFramebufferTexture1DEXT@OpenGLRekorder@OGL@AIF@@UAEXPBDIIIIIH@Z" PURGE="28" COMMENT="" />
    <EXPORT ORDINAL="3237" NAME="?cgmNamedFramebufferTexture1DEXT@OpenGLTracer@OGL@AIF@@UAEXPBDIIIIIH@Z" PURGE="28" COMMENT="" />
    <EXPORT ORDINAL="3238" NAME="?cgmNamedFramebufferTexture2DEXT@OpenGLErrorChecker@OGL@AIF@@UAEXPBDIIIIIH@Z" PURGE="28" COMMENT="" />
    <EXPORT ORDINAL="3239" NAME="?cgmNamedFramebufferTexture2DEXT@OpenGLRekorder@OGL@AIF@@UAEXPBDIIIIIH@Z" PURGE="28" COMMENT="" />
    <EXPORT ORDINAL="3240" NAME="?cgmNamedFramebufferTexture2DEXT@OpenGLTracer@OGL@AIF@@UAEXPBDIIIIIH@Z" PURGE="28" COMMENT="" />
    <EXPORT ORDINAL="3241" NAME="?cgmNamedFramebufferTexture3DEXT@OpenGLErrorChecker@OGL@AIF@@UAEXPBDIIIIIHH@Z" PURGE="32" COMMENT="" />
    <EXPORT ORDINAL="3242" NAME="?cgmNamedFramebufferTexture3DEXT@OpenGLRekorder@OGL@AIF@@UAEXPBDIIIIIHH@Z" PURGE="32" COMMENT="" />
    <EXPORT ORDINAL="3243" NAME="?cgmNamedFramebufferTexture3DEXT@OpenGLTracer@OGL@AIF@@UAEXPBDIIIIIHH@Z" PURGE="32" COMMENT="" />
    <EXPORT ORDINAL="3244" NAME="?cgmNamedFramebufferTextureEXT@OpenGLErrorChecker@OGL@AIF@@UAEXPBDIIIIH@Z" PURGE="24" COMMENT="" />
    <EXPORT ORDINAL="3245" NAME="?cgmNamedFramebufferTextureEXT@OpenGLRekorder@OGL@AIF@@UAEXPBDIIIIH@Z" PURGE="24" COMMENT="" />
    <EXPORT ORDINAL="3246" NAME="?cgmNamedFramebufferTextureEXT@OpenGLTracer@OGL@AIF@@UAEXPBDIIIIH@Z" PURGE="24" COMMENT="" />
    <EXPORT ORDINAL="3247" NAME="?cgmNamedFramebufferTextureFaceEXT@OpenGLErrorChecker@OGL@AIF@@UAEXPBDIIIIHI@Z" PURGE="28" COMMENT="" />
    <EXPORT ORDINAL="3248" NAME="?cgmNamedFramebufferTextureFaceEXT@OpenGLRekorder@OGL@AIF@@UAEXPBDIIIIHI@Z" PURGE="28" COMMENT="" />
    <EXPORT ORDINAL="3249" NAME="?cgmNamedFramebufferTextureFaceEXT@OpenGLTracer@OGL@AIF@@UAEXPBDIIIIHI@Z" PURGE="28" COMMENT="" />
    <EXPORT ORDINAL="3250" NAME="?cgmNamedFramebufferTextureLayerEXT@OpenGLErrorChecker@OGL@AIF@@UAEXPBDIIIIHH@Z" PURGE="28" COMMENT="" />
    <EXPORT ORDINAL="3251" NAME="?cgmNamedFramebufferTextureLayerEXT@OpenGLRekorder@OGL@AIF@@UAEXPBDIIIIHH@Z" PURGE="28" COMMENT="" />
    <EXPORT ORDINAL="3252" NAME="?cgmNamedFramebufferTextureLayerEXT@OpenGLTracer@OGL@AIF@@UAEXPBDIIIIHH@Z" PURGE="28" COMMENT="" />
    <EXPORT ORDINAL="3253" NAME="?cgmNamedMakeBufferNonResidentNV@OpenGLErrorChecker@OGL@AIF@@UAEXPBDII@Z" PURGE="12" COMMENT="" />
    <EXPORT ORDINAL="3254" NAME="?cgmNamedMakeBufferNonResidentNV@OpenGLRekorder@OGL@AIF@@UAEXPBDII@Z" PURGE="12" COMMENT="" />
    <EXPORT ORDINAL="3255" NAME="?cgmNamedMakeBufferNonResidentNV@OpenGLTracer@OGL@AIF@@UAEXPBDII@Z" PURGE="12" COMMENT="" />
    <EXPORT ORDINAL="3256" NAME="?cgmNamedMakeBufferResidentNV@OpenGLErrorChecker@OGL@AIF@@UAEXPBDIII@Z" PURGE="16" COMMENT="" />
    <EXPORT ORDINAL="3257" NAME="?cgmNamedMakeBufferResidentNV@OpenGLRekorder@OGL@AIF@@UAEXPBDIII@Z" PURGE="16" COMMENT="" />
    <EXPORT ORDINAL="3258" NAME="?cgmNamedMakeBufferResidentNV@OpenGLTracer@OGL@AIF@@UAEXPBDIII@Z" PURGE="16" COMMENT="" />
    <EXPORT ORDINAL="3259" NAME="?cgmNamedProgramLocalParameter4dEXT@OpenGLErrorChecker@OGL@AIF@@UAEXPBDIIIINNNN@Z" PURGE="52" COMMENT="" />
    <EXPORT ORDINAL="3260" NAME="?cgmNamedProgramLocalParameter4dEXT@OpenGLRekorder@OGL@AIF@@UAEXPBDIIIINNNN@Z" PURGE="52" COMMENT="" />
    <EXPORT ORDINAL="3261" NAME="?cgmNamedProgramLocalParameter4dEXT@OpenGLTracer@OGL@AIF@@UAEXPBDIIIINNNN@Z" PURGE="52" COMMENT="" />
    <EXPORT ORDINAL="3262" NAME="?cgmNamedProgramLocalParameter4dvEXT@OpenGLErrorChecker@OGL@AIF@@UAEXPBDIIIIPBN@Z" PURGE="24" COMMENT="" />
    <EXPORT ORDINAL="3263" NAME="?cgmNamedProgramLocalParameter4dvEXT@OpenGLRekorder@OGL@AIF@@UAEXPBDIIIIPBN@Z" PURGE="-1" COMMENT="" />
    <EXPORT ORDINAL="3264" NAME="?cgmNamedProgramLocalParameter4dvEXT@OpenGLTracer@OGL@AIF@@UAEXPBDIIIIPBN@Z" PURGE="24" COMMENT="" />
    <EXPORT ORDINAL="3265" NAME="?cgmNamedProgramLocalParameter4fEXT@OpenGLErrorChecker@OGL@AIF@@UAEXPBDIIIIMMMM@Z" PURGE="36" COMMENT="" />
    <EXPORT ORDINAL="3266" NAME="?cgmNamedProgramLocalParameter4fEXT@OpenGLRekorder@OGL@AIF@@UAEXPBDIIIIMMMM@Z" PURGE="36" COMMENT="" />
    <EXPORT ORDINAL="3267" NAME="?cgmNamedProgramLocalParameter4fEXT@OpenGLTracer@OGL@AIF@@UAEXPBDIIIIMMMM@Z" PURGE="36" COMMENT="" />
    <EXPORT ORDINAL="3268" NAME="?cgmNamedProgramLocalParameter4fvEXT@OpenGLErrorChecker@OGL@AIF@@UAEXPBDIIIIPBM@Z" PURGE="24" COMMENT="" />
    <EXPORT ORDINAL="3269" NAME="?cgmNamedProgramLocalParameter4fvEXT@OpenGLRekorder@OGL@AIF@@UAEXPBDIIIIPBM@Z" PURGE="-1" COMMENT="" />
    <EXPORT ORDINAL="3270" NAME="?cgmNamedProgramLocalParameter4fvEXT@OpenGLTracer@OGL@AIF@@UAEXPBDIIIIPBM@Z" PURGE="24" COMMENT="" />
    <EXPORT ORDINAL="3271" NAME="?cgmNamedProgramLocalParameterI4iEXT@OpenGLErrorChecker@OGL@AIF@@UAEXPBDIIIIHHHH@Z" PURGE="36" COMMENT="" />
    <EXPORT ORDINAL="3272" NAME="?cgmNamedProgramLocalParameterI4iEXT@OpenGLRekorder@OGL@AIF@@UAEXPBDIIIIHHHH@Z" PURGE="36" COMMENT="" />
    <EXPORT ORDINAL="3273" NAME="?cgmNamedProgramLocalParameterI4iEXT@OpenGLTracer@OGL@AIF@@UAEXPBDIIIIHHHH@Z" PURGE="36" COMMENT="" />
    <EXPORT ORDINAL="3274" NAME="?cgmNamedProgramLocalParameterI4ivEXT@OpenGLErrorChecker@OGL@AIF@@UAEXPBDIIIIPBH@Z" PURGE="24" COMMENT="" />
    <EXPORT ORDINAL="3275" NAME="?cgmNamedProgramLocalParameterI4ivEXT@OpenGLRekorder@OGL@AIF@@UAEXPBDIIIIPBH@Z" PURGE="-1" COMMENT="" />
    <EXPORT ORDINAL="3276" NAME="?cgmNamedProgramLocalParameterI4ivEXT@OpenGLTracer@OGL@AIF@@UAEXPBDIIIIPBH@Z" PURGE="24" COMMENT="" />
    <EXPORT ORDINAL="3277" NAME="?cgmNamedProgramLocalParameterI4uiEXT@OpenGLErrorChecker@OGL@AIF@@UAEXPBDIIIIIIII@Z" PURGE="36" COMMENT="" />
    <EXPORT ORDINAL="3278" NAME="?cgmNamedProgramLocalParameterI4uiEXT@OpenGLRekorder@OGL@AIF@@UAEXPBDIIIIIIII@Z" PURGE="36" COMMENT="" />
    <EXPORT ORDINAL="3279" NAME="?cgmNamedProgramLocalParameterI4uiEXT@OpenGLTracer@OGL@AIF@@UAEXPBDIIIIIIII@Z" PURGE="36" COMMENT="" />
    <EXPORT ORDINAL="3280" NAME="?cgmNamedProgramLocalParameterI4uivEXT@OpenGLErrorChecker@OGL@AIF@@UAEXPBDIIIIPBI@Z" PURGE="24" COMMENT="" />
    <EXPORT ORDINAL="3281" NAME="?cgmNamedProgramLocalParameterI4uivEXT@OpenGLRekorder@OGL@AIF@@UAEXPBDIIIIPBI@Z" PURGE="-1" COMMENT="" />
    <EXPORT ORDINAL="3282" NAME="?cgmNamedProgramLocalParameterI4uivEXT@OpenGLTracer@OGL@AIF@@UAEXPBDIIIIPBI@Z" PURGE="24" COMMENT="" />
    <EXPORT ORDINAL="3283" NAME="?cgmNamedProgramLocalParameters4fvEXT@OpenGLErrorChecker@OGL@AIF@@UAEXPBDIIIIHPBM@Z" PURGE="28" COMMENT="" />
    <EXPORT ORDINAL="3284" NAME="?cgmNamedProgramLocalParameters4fvEXT@OpenGLRekorder@OGL@AIF@@UAEXPBDIIIIHPBM@Z" PURGE="-1" COMMENT="" />
    <EXPORT ORDINAL="3285" NAME="?cgmNamedProgramLocalParameters4fvEXT@OpenGLTracer@OGL@AIF@@UAEXPBDIIIIHPBM@Z" PURGE="28" COMMENT="" />
    <EXPORT ORDINAL="3286" NAME="?cgmNamedProgramLocalParametersI4ivEXT@OpenGLErrorChecker@OGL@AIF@@UAEXPBDIIIIHPBH@Z" PURGE="28" COMMENT="" />
    <EXPORT ORDINAL="3287" NAME="?cgmNamedProgramLocalParametersI4ivEXT@OpenGLRekorder@OGL@AIF@@UAEXPBDIIIIHPBH@Z" PURGE="-1" COMMENT="" />
    <EXPORT ORDINAL="3288" NAME="?cgmNamedProgramLocalParametersI4ivEXT@OpenGLTracer@OGL@AIF@@UAEXPBDIIIIHPBH@Z" PURGE="28" COMMENT="" />
    <EXPORT ORDINAL="3289" NAME="?cgmNamedProgramLocalParametersI4uivEXT@OpenGLErrorChecker@OGL@AIF@@UAEXPBDIIIIHPBI@Z" PURGE="28" COMMENT="" />
    <EXPORT ORDINAL="3290" NAME="?cgmNamedProgramLocalParametersI4uivEXT@OpenGLRekorder@OGL@AIF@@UAEXPBDIIIIHPBI@Z" PURGE="-1" COMMENT="" />
    <EXPORT ORDINAL="3291" NAME="?cgmNamedProgramLocalParametersI4uivEXT@OpenGLTracer@OGL@AIF@@UAEXPBDIIIIHPBI@Z" PURGE="28" COMMENT="" />
    <EXPORT ORDINAL="3292" NAME="?cgmNamedProgramStringEXT@OpenGLErrorChecker@OGL@AIF@@UAEXPBDIIIIHPBX@Z" PURGE="28" COMMENT="" />
    <EXPORT ORDINAL="3293" NAME="?cgmNamedProgramStringEXT@OpenGLRekorder@OGL@AIF@@UAEXPBDIIIIHPBX@Z" PURGE="-1" COMMENT="" />
    <EXPORT ORDINAL="3294" NAME="?cgmNamedProgramStringEXT@OpenGLTracer@OGL@AIF@@UAEXPBDIIIIHPBX@Z" PURGE="28" COMMENT="" />
    <EXPORT ORDINAL="3295" NAME="?cgmNamedRenderbufferStorageEXT@OpenGLErrorChecker@OGL@AIF@@UAEXPBDIIIHH@Z" PURGE="24" COMMENT="" />
    <EXPORT ORDINAL="3296" NAME="?cgmNamedRenderbufferStorageEXT@OpenGLRekorder@OGL@AIF@@UAEXPBDIIIHH@Z" PURGE="24" COMMENT="" />
    <EXPORT ORDINAL="3297" NAME="?cgmNamedRenderbufferStorageEXT@OpenGLTracer@OGL@AIF@@UAEXPBDIIIHH@Z" PURGE="24" COMMENT="" />
    <EXPORT ORDINAL="3298" NAME="?cgmNamedRenderbufferStorageMultisampleCoverageEXT@OpenGLErrorChecker@OGL@AIF@@UAEXPBDIIHHIHH@Z" PURGE="32" COMMENT="" />
    <EXPORT ORDINAL="3299" NAME="?cgmNamedRenderbufferStorageMultisampleCoverageEXT@OpenGLRekorder@OGL@AIF@@UAEXPBDIIHHIHH@Z" PURGE="32" COMMENT="" />
    <EXPORT ORDINAL="3300" NAME="?cgmNamedRenderbufferStorageMultisampleCoverageEXT@OpenGLTracer@OGL@AIF@@UAEXPBDIIHHIHH@Z" PURGE="32" COMMENT="" />
    <EXPORT ORDINAL="3301" NAME="?cgmNamedRenderbufferStorageMultisampleEXT@OpenGLErrorChecker@OGL@AIF@@UAEXPBDIIHIHH@Z" PURGE="28" COMMENT="" />
    <EXPORT ORDINAL="3302" NAME="?cgmNamedRenderbufferStorageMultisampleEXT@OpenGLRekorder@OGL@AIF@@UAEXPBDIIHIHH@Z" PURGE="28" COMMENT="" />
    <EXPORT ORDINAL="3303" NAME="?cgmNamedRenderbufferStorageMultisampleEXT@OpenGLTracer@OGL@AIF@@UAEXPBDIIHIHH@Z" PURGE="28" COMMENT="" />
    <EXPORT ORDINAL="3304" NAME="?cgmNewBufferRegionEXT@OpenGLErrorChecker@OGL@AIF@@UAEIPBDII@Z" PURGE="12" COMMENT="" />
    <EXPORT ORDINAL="3305" NAME="?cgmNewBufferRegionEXT@OpenGLRekorder@OGL@AIF@@UAEIPBDII@Z" PURGE="12" COMMENT="" />
    <EXPORT ORDINAL="3306" NAME="?cgmNewBufferRegionEXT@OpenGLTracer@OGL@AIF@@UAEIPBDII@Z" PURGE="12" COMMENT="" />
    <EXPORT ORDINAL="3307" NAME="?cgmNewList@OpenGLErrorChecker@OGL@AIF@@UAEXPBDIII@Z" PURGE="16" COMMENT="" />
    <EXPORT ORDINAL="3308" NAME="?cgmNewList@OpenGLRekorder@OGL@AIF@@UAEXPBDIII@Z" PURGE="16" COMMENT="" />
    <EXPORT ORDINAL="3309" NAME="?cgmNewList@OpenGLTracer@OGL@AIF@@UAEXPBDIII@Z" PURGE="16" COMMENT="" />
    <EXPORT ORDINAL="3310" NAME="?cgmNewObjectBufferATI@OpenGLErrorChecker@OGL@AIF@@UAEIPBDIHPBXI@Z" PURGE="20" COMMENT="" />
    <EXPORT ORDINAL="3311" NAME="?cgmNewObjectBufferATI@OpenGLRekorder@OGL@AIF@@UAEIPBDIHPBXI@Z" PURGE="-1" COMMENT="" />
    <EXPORT ORDINAL="3312" NAME="?cgmNewObjectBufferATI@OpenGLTracer@OGL@AIF@@UAEIPBDIHPBXI@Z" PURGE="20" COMMENT="" />
    <EXPORT ORDINAL="3313" NAME="?cgmNormal3b@OpenGLErrorChecker@OGL@AIF@@UAEXPBDICCC@Z" PURGE="20" COMMENT="" />
    <EXPORT ORDINAL="3314" NAME="?cgmNormal3b@OpenGLRekorder@OGL@AIF@@UAEXPBDICCC@Z" PURGE="20" COMMENT="" />
    <EXPORT ORDINAL="3315" NAME="?cgmNormal3b@OpenGLTracer@OGL@AIF@@UAEXPBDICCC@Z" PURGE="20" COMMENT="" />
    <EXPORT ORDINAL="3316" NAME="?cgmNormal3bv@OpenGLErrorChecker@OGL@AIF@@UAEXPBDIPBC@Z" PURGE="12" COMMENT="" />
    <EXPORT ORDINAL="3317" NAME="?cgmNormal3bv@OpenGLRekorder@OGL@AIF@@UAEXPBDIPBC@Z" PURGE="-1" COMMENT="" />
    <EXPORT ORDINAL="3318" NAME="?cgmNormal3bv@OpenGLTracer@OGL@AIF@@UAEXPBDIPBC@Z" PURGE="12" COMMENT="" />
    <EXPORT ORDINAL="3319" NAME="?cgmNormal3d@OpenGLErrorChecker@OGL@AIF@@UAEXPBDINNN@Z" PURGE="32" COMMENT="" />
    <EXPORT ORDINAL="3320" NAME="?cgmNormal3d@OpenGLRekorder@OGL@AIF@@UAEXPBDINNN@Z" PURGE="32" COMMENT="" />
    <EXPORT ORDINAL="3321" NAME="?cgmNormal3d@OpenGLTracer@OGL@AIF@@UAEXPBDINNN@Z" PURGE="32" COMMENT="" />
    <EXPORT ORDINAL="3322" NAME="?cgmNormal3dv@OpenGLErrorChecker@OGL@AIF@@UAEXPBDIPBN@Z" PURGE="12" COMMENT="" />
    <EXPORT ORDINAL="3323" NAME="?cgmNormal3dv@OpenGLRekorder@OGL@AIF@@UAEXPBDIPBN@Z" PURGE="-1" COMMENT="" />
    <EXPORT ORDINAL="3324" NAME="?cgmNormal3dv@OpenGLTracer@OGL@AIF@@UAEXPBDIPBN@Z" PURGE="12" COMMENT="" />
    <EXPORT ORDINAL="3325" NAME="?cgmNormal3f@OpenGLErrorChecker@OGL@AIF@@UAEXPBDIMMM@Z" PURGE="20" COMMENT="" />
    <EXPORT ORDINAL="3326" NAME="?cgmNormal3f@OpenGLRekorder@OGL@AIF@@UAEXPBDIMMM@Z" PURGE="20" COMMENT="" />
    <EXPORT ORDINAL="3327" NAME="?cgmNormal3f@OpenGLTracer@OGL@AIF@@UAEXPBDIMMM@Z" PURGE="20" COMMENT="" />
    <EXPORT ORDINAL="3328" NAME="?cgmNormal3fVertex3fSUN@OpenGLErrorChecker@OGL@AIF@@UAEXPBDIMMMMMM@Z" PURGE="32" COMMENT="" />
    <EXPORT ORDINAL="3329" NAME="?cgmNormal3fVertex3fSUN@OpenGLRekorder@OGL@AIF@@UAEXPBDIMMMMMM@Z" PURGE="32" COMMENT="" />
    <EXPORT ORDINAL="3330" NAME="?cgmNormal3fVertex3fSUN@OpenGLTracer@OGL@AIF@@UAEXPBDIMMMMMM@Z" PURGE="32" COMMENT="" />
    <EXPORT ORDINAL="3331" NAME="?cgmNormal3fVertex3fvSUN@OpenGLErrorChecker@OGL@AIF@@UAEXPBDIPBM1@Z" PURGE="16" COMMENT="" />
    <EXPORT ORDINAL="3332" NAME="?cgmNormal3fVertex3fvSUN@OpenGLRekorder@OGL@AIF@@UAEXPBDIPBM1@Z" PURGE="-1" COMMENT="" />
    <EXPORT ORDINAL="3333" NAME="?cgmNormal3fVertex3fvSUN@OpenGLTracer@OGL@AIF@@UAEXPBDIPBM1@Z" PURGE="16" COMMENT="" />
    <EXPORT ORDINAL="3334" NAME="?cgmNormal3fv@OpenGLErrorChecker@OGL@AIF@@UAEXPBDIPBM@Z" PURGE="12" COMMENT="" />
    <EXPORT ORDINAL="3335" NAME="?cgmNormal3fv@OpenGLRekorder@OGL@AIF@@UAEXPBDIPBM@Z" PURGE="-1" COMMENT="" />
    <EXPORT ORDINAL="3336" NAME="?cgmNormal3fv@OpenGLTracer@OGL@AIF@@UAEXPBDIPBM@Z" PURGE="12" COMMENT="" />
    <EXPORT ORDINAL="3337" NAME="?cgmNormal3hNV@OpenGLErrorChecker@OGL@AIF@@UAEXPBDIIII@Z" PURGE="20" COMMENT="" />
    <EXPORT ORDINAL="3338" NAME="?cgmNormal3hNV@OpenGLRekorder@OGL@AIF@@UAEXPBDIIII@Z" PURGE="20" COMMENT="" />
    <EXPORT ORDINAL="3339" NAME="?cgmNormal3hNV@OpenGLTracer@OGL@AIF@@UAEXPBDIIII@Z" PURGE="20" COMMENT="" />
    <EXPORT ORDINAL="3340" NAME="?cgmNormal3hvNV@OpenGLErrorChecker@OGL@AIF@@UAEXPBDIPBI@Z" PURGE="12" COMMENT="" />
    <EXPORT ORDINAL="3341" NAME="?cgmNormal3hvNV@OpenGLRekorder@OGL@AIF@@UAEXPBDIPBI@Z" PURGE="-1" COMMENT="" />
    <EXPORT ORDINAL="3342" NAME="?cgmNormal3hvNV@OpenGLTracer@OGL@AIF@@UAEXPBDIPBI@Z" PURGE="12" COMMENT="" />
    <EXPORT ORDINAL="3343" NAME="?cgmNormal3i@OpenGLErrorChecker@OGL@AIF@@UAEXPBDIHHH@Z" PURGE="20" COMMENT="" />
    <EXPORT ORDINAL="3344" NAME="?cgmNormal3i@OpenGLRekorder@OGL@AIF@@UAEXPBDIHHH@Z" PURGE="20" COMMENT="" />
    <EXPORT ORDINAL="3345" NAME="?cgmNormal3i@OpenGLTracer@OGL@AIF@@UAEXPBDIHHH@Z" PURGE="20" COMMENT="" />
    <EXPORT ORDINAL="3346" NAME="?cgmNormal3iv@OpenGLErrorChecker@OGL@AIF@@UAEXPBDIPBH@Z" PURGE="12" COMMENT="" />
    <EXPORT ORDINAL="3347" NAME="?cgmNormal3iv@OpenGLRekorder@OGL@AIF@@UAEXPBDIPBH@Z" PURGE="-1" COMMENT="" />
    <EXPORT ORDINAL="3348" NAME="?cgmNormal3iv@OpenGLTracer@OGL@AIF@@UAEXPBDIPBH@Z" PURGE="12" COMMENT="" />
    <EXPORT ORDINAL="3349" NAME="?cgmNormal3s@OpenGLErrorChecker@OGL@AIF@@UAEXPBDIFFF@Z" PURGE="20" COMMENT="" />
    <EXPORT ORDINAL="3350" NAME="?cgmNormal3s@OpenGLRekorder@OGL@AIF@@UAEXPBDIFFF@Z" PURGE="20" COMMENT="" />
    <EXPORT ORDINAL="3351" NAME="?cgmNormal3s@OpenGLTracer@OGL@AIF@@UAEXPBDIFFF@Z" PURGE="20" COMMENT="" />
    <EXPORT ORDINAL="3352" NAME="?cgmNormal3sv@OpenGLErrorChecker@OGL@AIF@@UAEXPBDIPBF@Z" PURGE="12" COMMENT="" />
    <EXPORT ORDINAL="3353" NAME="?cgmNormal3sv@OpenGLRekorder@OGL@AIF@@UAEXPBDIPBF@Z" PURGE="-1" COMMENT="" />
    <EXPORT ORDINAL="3354" NAME="?cgmNormal3sv@OpenGLTracer@OGL@AIF@@UAEXPBDIPBF@Z" PURGE="12" COMMENT="" />
    <EXPORT ORDINAL="3355" NAME="?cgmNormalFormatNV@OpenGLErrorChecker@OGL@AIF@@UAEXPBDIIH@Z" PURGE="16" COMMENT="" />
    <EXPORT ORDINAL="3356" NAME="?cgmNormalFormatNV@OpenGLRekorder@OGL@AIF@@UAEXPBDIIH@Z" PURGE="16" COMMENT="" />
    <EXPORT ORDINAL="3357" NAME="?cgmNormalFormatNV@OpenGLTracer@OGL@AIF@@UAEXPBDIIH@Z" PURGE="16" COMMENT="" />
    <EXPORT ORDINAL="3358" NAME="?cgmNormalPointer@OpenGLErrorChecker@OGL@AIF@@UAEXPBDIIHPBX@Z" PURGE="20" COMMENT="" />
    <EXPORT ORDINAL="3359" NAME="?cgmNormalPointer@OpenGLRekorder@OGL@AIF@@UAEXPBDIIHPBX@Z" PURGE="-1" COMMENT="" />
    <EXPORT ORDINAL="3360" NAME="?cgmNormalPointer@OpenGLTracer@OGL@AIF@@UAEXPBDIIHPBX@Z" PURGE="20" COMMENT="" />
    <EXPORT ORDINAL="3361" NAME="?cgmNormalPointerEXT@OpenGLErrorChecker@OGL@AIF@@UAEXPBDIIHHPBX@Z" PURGE="24" COMMENT="" />
    <EXPORT ORDINAL="3362" NAME="?cgmNormalPointerEXT@OpenGLRekorder@OGL@AIF@@UAEXPBDIIHHPBX@Z" PURGE="-1" COMMENT="" />
    <EXPORT ORDINAL="3363" NAME="?cgmNormalPointerEXT@OpenGLTracer@OGL@AIF@@UAEXPBDIIHHPBX@Z" PURGE="24" COMMENT="" />
    <EXPORT ORDINAL="3364" NAME="?cgmNormalPointerListIBM@OpenGLErrorChecker@OGL@AIF@@UAEXPBDIIHPAPBXH@Z" PURGE="24" COMMENT="" />
    <EXPORT ORDINAL="3365" NAME="?cgmNormalPointerListIBM@OpenGLRekorder@OGL@AIF@@UAEXPBDIIHPAPBXH@Z" PURGE="-1" COMMENT="" />
    <EXPORT ORDINAL="3366" NAME="?cgmNormalPointerListIBM@OpenGLTracer@OGL@AIF@@UAEXPBDIIHPAPBXH@Z" PURGE="24" COMMENT="" />
    <EXPORT ORDINAL="3367" NAME="?cgmNormalPointervINTEL@OpenGLErrorChecker@OGL@AIF@@UAEXPBDIIPAPBX@Z" PURGE="16" COMMENT="" />
    <EXPORT ORDINAL="3368" NAME="?cgmNormalPointervINTEL@OpenGLRekorder@OGL@AIF@@UAEXPBDIIPAPBX@Z" PURGE="-1" COMMENT="" />
    <EXPORT ORDINAL="3369" NAME="?cgmNormalPointervINTEL@OpenGLTracer@OGL@AIF@@UAEXPBDIIPAPBX@Z" PURGE="16" COMMENT="" />
    <EXPORT ORDINAL="3370" NAME="?cgmNormalStream3bATI@OpenGLErrorChecker@OGL@AIF@@UAEXPBDIICCC@Z" PURGE="24" COMMENT="" />
    <EXPORT ORDINAL="3371" NAME="?cgmNormalStream3bATI@OpenGLRekorder@OGL@AIF@@UAEXPBDIICCC@Z" PURGE="24" COMMENT="" />
    <EXPORT ORDINAL="3372" NAME="?cgmNormalStream3bATI@OpenGLTracer@OGL@AIF@@UAEXPBDIICCC@Z" PURGE="24" COMMENT="" />
    <EXPORT ORDINAL="3373" NAME="?cgmNormalStream3bvATI@OpenGLErrorChecker@OGL@AIF@@UAEXPBDIIPBC@Z" PURGE="16" COMMENT="" />
    <EXPORT ORDINAL="3374" NAME="?cgmNormalStream3bvATI@OpenGLRekorder@OGL@AIF@@UAEXPBDIIPBC@Z" PURGE="-1" COMMENT="" />
    <EXPORT ORDINAL="3375" NAME="?cgmNormalStream3bvATI@OpenGLTracer@OGL@AIF@@UAEXPBDIIPBC@Z" PURGE="16" COMMENT="" />
    <EXPORT ORDINAL="3376" NAME="?cgmNormalStream3dATI@OpenGLErrorChecker@OGL@AIF@@UAEXPBDIINNN@Z" PURGE="36" COMMENT="" />
    <EXPORT ORDINAL="3377" NAME="?cgmNormalStream3dATI@OpenGLRekorder@OGL@AIF@@UAEXPBDIINNN@Z" PURGE="36" COMMENT="" />
    <EXPORT ORDINAL="3378" NAME="?cgmNormalStream3dATI@OpenGLTracer@OGL@AIF@@UAEXPBDIINNN@Z" PURGE="36" COMMENT="" />
    <EXPORT ORDINAL="3379" NAME="?cgmNormalStream3dvATI@OpenGLErrorChecker@OGL@AIF@@UAEXPBDIIPBN@Z" PURGE="16" COMMENT="" />
    <EXPORT ORDINAL="3380" NAME="?cgmNormalStream3dvATI@OpenGLRekorder@OGL@AIF@@UAEXPBDIIPBN@Z" PURGE="-1" COMMENT="" />
    <EXPORT ORDINAL="3381" NAME="?cgmNormalStream3dvATI@OpenGLTracer@OGL@AIF@@UAEXPBDIIPBN@Z" PURGE="16" COMMENT="" />
    <EXPORT ORDINAL="3382" NAME="?cgmNormalStream3fATI@OpenGLErrorChecker@OGL@AIF@@UAEXPBDIIMMM@Z" PURGE="24" COMMENT="" />
    <EXPORT ORDINAL="3383" NAME="?cgmNormalStream3fATI@OpenGLRekorder@OGL@AIF@@UAEXPBDIIMMM@Z" PURGE="24" COMMENT="" />
    <EXPORT ORDINAL="3384" NAME="?cgmNormalStream3fATI@OpenGLTracer@OGL@AIF@@UAEXPBDIIMMM@Z" PURGE="24" COMMENT="" />
    <EXPORT ORDINAL="3385" NAME="?cgmNormalStream3fvATI@OpenGLErrorChecker@OGL@AIF@@UAEXPBDIIPBM@Z" PURGE="16" COMMENT="" />
    <EXPORT ORDINAL="3386" NAME="?cgmNormalStream3fvATI@OpenGLRekorder@OGL@AIF@@UAEXPBDIIPBM@Z" PURGE="-1" COMMENT="" />
    <EXPORT ORDINAL="3387" NAME="?cgmNormalStream3fvATI@OpenGLTracer@OGL@AIF@@UAEXPBDIIPBM@Z" PURGE="16" COMMENT="" />
    <EXPORT ORDINAL="3388" NAME="?cgmNormalStream3iATI@OpenGLErrorChecker@OGL@AIF@@UAEXPBDIIHHH@Z" PURGE="24" COMMENT="" />
    <EXPORT ORDINAL="3389" NAME="?cgmNormalStream3iATI@OpenGLRekorder@OGL@AIF@@UAEXPBDIIHHH@Z" PURGE="24" COMMENT="" />
    <EXPORT ORDINAL="3390" NAME="?cgmNormalStream3iATI@OpenGLTracer@OGL@AIF@@UAEXPBDIIHHH@Z" PURGE="24" COMMENT="" />
    <EXPORT ORDINAL="3391" NAME="?cgmNormalStream3ivATI@OpenGLErrorChecker@OGL@AIF@@UAEXPBDIIPBH@Z" PURGE="16" COMMENT="" />
    <EXPORT ORDINAL="3392" NAME="?cgmNormalStream3ivATI@OpenGLRekorder@OGL@AIF@@UAEXPBDIIPBH@Z" PURGE="-1" COMMENT="" />
    <EXPORT ORDINAL="3393" NAME="?cgmNormalStream3ivATI@OpenGLTracer@OGL@AIF@@UAEXPBDIIPBH@Z" PURGE="16" COMMENT="" />
    <EXPORT ORDINAL="3394" NAME="?cgmNormalStream3sATI@OpenGLErrorChecker@OGL@AIF@@UAEXPBDIIFFF@Z" PURGE="24" COMMENT="" />
    <EXPORT ORDINAL="3395" NAME="?cgmNormalStream3sATI@OpenGLRekorder@OGL@AIF@@UAEXPBDIIFFF@Z" PURGE="24" COMMENT="" />
    <EXPORT ORDINAL="3396" NAME="?cgmNormalStream3sATI@OpenGLTracer@OGL@AIF@@UAEXPBDIIFFF@Z" PURGE="24" COMMENT="" />
    <EXPORT ORDINAL="3397" NAME="?cgmNormalStream3svATI@OpenGLErrorChecker@OGL@AIF@@UAEXPBDIIPBF@Z" PURGE="16" COMMENT="" />
    <EXPORT ORDINAL="3398" NAME="?cgmNormalStream3svATI@OpenGLRekorder@OGL@AIF@@UAEXPBDIIPBF@Z" PURGE="-1" COMMENT="" />
    <EXPORT ORDINAL="3399" NAME="?cgmNormalStream3svATI@OpenGLTracer@OGL@AIF@@UAEXPBDIIPBF@Z" PURGE="16" COMMENT="" />
    <EXPORT ORDINAL="3400" NAME="?cgmOrtho@OpenGLErrorChecker@OGL@AIF@@UAEXPBDINNNNNN@Z" PURGE="56" COMMENT="" />
    <EXPORT ORDINAL="3401" NAME="?cgmOrtho@OpenGLRekorder@OGL@AIF@@UAEXPBDINNNNNN@Z" PURGE="56" COMMENT="" />
    <EXPORT ORDINAL="3402" NAME="?cgmOrtho@OpenGLTracer@OGL@AIF@@UAEXPBDINNNNNN@Z" PURGE="56" COMMENT="" />
    <EXPORT ORDINAL="3403" NAME="?cgmOrthofOES@OpenGLErrorChecker@OGL@AIF@@UAEXPBDIMMMMMM@Z" PURGE="32" COMMENT="" />
    <EXPORT ORDINAL="3404" NAME="?cgmOrthofOES@OpenGLRekorder@OGL@AIF@@UAEXPBDIMMMMMM@Z" PURGE="32" COMMENT="" />
    <EXPORT ORDINAL="3405" NAME="?cgmOrthofOES@OpenGLTracer@OGL@AIF@@UAEXPBDIMMMMMM@Z" PURGE="32" COMMENT="" />
    <EXPORT ORDINAL="3406" NAME="?cgmPNTrianglesfATI@OpenGLErrorChecker@OGL@AIF@@UAEXPBDIIM@Z" PURGE="16" COMMENT="" />
    <EXPORT ORDINAL="3407" NAME="?cgmPNTrianglesfATI@OpenGLRekorder@OGL@AIF@@UAEXPBDIIM@Z" PURGE="16" COMMENT="" />
    <EXPORT ORDINAL="3408" NAME="?cgmPNTrianglesfATI@OpenGLTracer@OGL@AIF@@UAEXPBDIIM@Z" PURGE="16" COMMENT="" />
    <EXPORT ORDINAL="3409" NAME="?cgmPNTrianglesiATI@OpenGLErrorChecker@OGL@AIF@@UAEXPBDIIH@Z" PURGE="16" COMMENT="" />
    <EXPORT ORDINAL="3410" NAME="?cgmPNTrianglesiATI@OpenGLRekorder@OGL@AIF@@UAEXPBDIIH@Z" PURGE="16" COMMENT="" />
    <EXPORT ORDINAL="3411" NAME="?cgmPNTrianglesiATI@OpenGLTracer@OGL@AIF@@UAEXPBDIIH@Z" PURGE="16" COMMENT="" />
    <EXPORT ORDINAL="3412" NAME="?cgmPassTexCoordATI@OpenGLErrorChecker@OGL@AIF@@UAEXPBDIIII@Z" PURGE="20" COMMENT="" />
    <EXPORT ORDINAL="3413" NAME="?cgmPassTexCoordATI@OpenGLRekorder@OGL@AIF@@UAEXPBDIIII@Z" PURGE="20" COMMENT="" />
    <EXPORT ORDINAL="3414" NAME="?cgmPassTexCoordATI@OpenGLTracer@OGL@AIF@@UAEXPBDIIII@Z" PURGE="20" COMMENT="" />
    <EXPORT ORDINAL="3415" NAME="?cgmPassThrough@OpenGLErrorChecker@OGL@AIF@@UAEXPBDIM@Z" PURGE="12" COMMENT="" />
    <EXPORT ORDINAL="3416" NAME="?cgmPassThrough@OpenGLRekorder@OGL@AIF@@UAEXPBDIM@Z" PURGE="12" COMMENT="" />
    <EXPORT ORDINAL="3417" NAME="?cgmPassThrough@OpenGLTracer@OGL@AIF@@UAEXPBDIM@Z" PURGE="12" COMMENT="" />
    <EXPORT ORDINAL="3418" NAME="?cgmPixelDataRangeNV@OpenGLErrorChecker@OGL@AIF@@UAEXPBDIIHPAX@Z" PURGE="20" COMMENT="" />
    <EXPORT ORDINAL="3419" NAME="?cgmPixelDataRangeNV@OpenGLRekorder@OGL@AIF@@UAEXPBDIIHPAX@Z" PURGE="-1" COMMENT="" />
    <EXPORT ORDINAL="3420" NAME="?cgmPixelDataRangeNV@OpenGLTracer@OGL@AIF@@UAEXPBDIIHPAX@Z" PURGE="20" COMMENT="" />
    <EXPORT ORDINAL="3421" NAME="?cgmPixelMapfv@OpenGLErrorChecker@OGL@AIF@@UAEXPBDIIHPBM@Z" PURGE="20" COMMENT="" />
    <EXPORT ORDINAL="3422" NAME="?cgmPixelMapfv@OpenGLRekorder@OGL@AIF@@UAEXPBDIIHPBM@Z" PURGE="-1" COMMENT="" />
    <EXPORT ORDINAL="3423" NAME="?cgmPixelMapfv@OpenGLTracer@OGL@AIF@@UAEXPBDIIHPBM@Z" PURGE="20" COMMENT="" />
    <EXPORT ORDINAL="3424" NAME="?cgmPixelMapuiv@OpenGLErrorChecker@OGL@AIF@@UAEXPBDIIHPBI@Z" PURGE="20" COMMENT="" />
    <EXPORT ORDINAL="3425" NAME="?cgmPixelMapuiv@OpenGLRekorder@OGL@AIF@@UAEXPBDIIHPBI@Z" PURGE="-1" COMMENT="" />
    <EXPORT ORDINAL="3426" NAME="?cgmPixelMapuiv@OpenGLTracer@OGL@AIF@@UAEXPBDIIHPBI@Z" PURGE="20" COMMENT="" />
    <EXPORT ORDINAL="3427" NAME="?cgmPixelMapusv@OpenGLErrorChecker@OGL@AIF@@UAEXPBDIIHPBG@Z" PURGE="20" COMMENT="" />
    <EXPORT ORDINAL="3428" NAME="?cgmPixelMapusv@OpenGLRekorder@OGL@AIF@@UAEXPBDIIHPBG@Z" PURGE="-1" COMMENT="" />
    <EXPORT ORDINAL="3429" NAME="?cgmPixelMapusv@OpenGLTracer@OGL@AIF@@UAEXPBDIIHPBG@Z" PURGE="20" COMMENT="" />
    <EXPORT ORDINAL="3430" NAME="?cgmPixelStoref@OpenGLErrorChecker@OGL@AIF@@UAEXPBDIIM@Z" PURGE="16" COMMENT="" />
    <EXPORT ORDINAL="3431" NAME="?cgmPixelStoref@OpenGLRekorder@OGL@AIF@@UAEXPBDIIM@Z" PURGE="16" COMMENT="" />
    <EXPORT ORDINAL="3432" NAME="?cgmPixelStoref@OpenGLTracer@OGL@AIF@@UAEXPBDIIM@Z" PURGE="16" COMMENT="" />
    <EXPORT ORDINAL="3433" NAME="?cgmPixelStorei@OpenGLErrorChecker@OGL@AIF@@UAEXPBDIIH@Z" PURGE="16" COMMENT="" />
    <EXPORT ORDINAL="3434" NAME="?cgmPixelStorei@OpenGLRekorder@OGL@AIF@@UAEXPBDIIH@Z" PURGE="16" COMMENT="" />
    <EXPORT ORDINAL="3435" NAME="?cgmPixelStorei@OpenGLTracer@OGL@AIF@@UAEXPBDIIH@Z" PURGE="16" COMMENT="" />
    <EXPORT ORDINAL="3436" NAME="?cgmPixelTexGenSGIX@OpenGLErrorChecker@OGL@AIF@@UAEXPBDII@Z" PURGE="12" COMMENT="" />
    <EXPORT ORDINAL="3437" NAME="?cgmPixelTexGenSGIX@OpenGLRekorder@OGL@AIF@@UAEXPBDII@Z" PURGE="12" COMMENT="" />
    <EXPORT ORDINAL="3438" NAME="?cgmPixelTexGenSGIX@OpenGLTracer@OGL@AIF@@UAEXPBDII@Z" PURGE="12" COMMENT="" />
    <EXPORT ORDINAL="3439" NAME="?cgmPixelTransferf@OpenGLErrorChecker@OGL@AIF@@UAEXPBDIIM@Z" PURGE="16" COMMENT="" />
    <EXPORT ORDINAL="3440" NAME="?cgmPixelTransferf@OpenGLRekorder@OGL@AIF@@UAEXPBDIIM@Z" PURGE="16" COMMENT="" />
    <EXPORT ORDINAL="3441" NAME="?cgmPixelTransferf@OpenGLTracer@OGL@AIF@@UAEXPBDIIM@Z" PURGE="16" COMMENT="" />
    <EXPORT ORDINAL="3442" NAME="?cgmPixelTransferi@OpenGLErrorChecker@OGL@AIF@@UAEXPBDIIH@Z" PURGE="16" COMMENT="" />
    <EXPORT ORDINAL="3443" NAME="?cgmPixelTransferi@OpenGLRekorder@OGL@AIF@@UAEXPBDIIH@Z" PURGE="16" COMMENT="" />
    <EXPORT ORDINAL="3444" NAME="?cgmPixelTransferi@OpenGLTracer@OGL@AIF@@UAEXPBDIIH@Z" PURGE="16" COMMENT="" />
    <EXPORT ORDINAL="3445" NAME="?cgmPixelTransformParameterfEXT@OpenGLErrorChecker@OGL@AIF@@UAEXPBDIIIM@Z" PURGE="20" COMMENT="" />
    <EXPORT ORDINAL="3446" NAME="?cgmPixelTransformParameterfEXT@OpenGLRekorder@OGL@AIF@@UAEXPBDIIIM@Z" PURGE="20" COMMENT="" />
    <EXPORT ORDINAL="3447" NAME="?cgmPixelTransformParameterfEXT@OpenGLTracer@OGL@AIF@@UAEXPBDIIIM@Z" PURGE="20" COMMENT="" />
    <EXPORT ORDINAL="3448" NAME="?cgmPixelTransformParameterfvEXT@OpenGLErrorChecker@OGL@AIF@@UAEXPBDIIIPBM@Z" PURGE="20" COMMENT="" />
    <EXPORT ORDINAL="3449" NAME="?cgmPixelTransformParameterfvEXT@OpenGLRekorder@OGL@AIF@@UAEXPBDIIIPBM@Z" PURGE="-1" COMMENT="" />
    <EXPORT ORDINAL="3450" NAME="?cgmPixelTransformParameterfvEXT@OpenGLTracer@OGL@AIF@@UAEXPBDIIIPBM@Z" PURGE="20" COMMENT="" />
    <EXPORT ORDINAL="3451" NAME="?cgmPixelTransformParameteriEXT@OpenGLErrorChecker@OGL@AIF@@UAEXPBDIIIH@Z" PURGE="20" COMMENT="" />
    <EXPORT ORDINAL="3452" NAME="?cgmPixelTransformParameteriEXT@OpenGLRekorder@OGL@AIF@@UAEXPBDIIIH@Z" PURGE="20" COMMENT="" />
    <EXPORT ORDINAL="3453" NAME="?cgmPixelTransformParameteriEXT@OpenGLTracer@OGL@AIF@@UAEXPBDIIIH@Z" PURGE="20" COMMENT="" />
    <EXPORT ORDINAL="3454" NAME="?cgmPixelTransformParameterivEXT@OpenGLErrorChecker@OGL@AIF@@UAEXPBDIIIPBH@Z" PURGE="20" COMMENT="" />
    <EXPORT ORDINAL="3455" NAME="?cgmPixelTransformParameterivEXT@OpenGLRekorder@OGL@AIF@@UAEXPBDIIIPBH@Z" PURGE="-1" COMMENT="" />
    <EXPORT ORDINAL="3456" NAME="?cgmPixelTransformParameterivEXT@OpenGLTracer@OGL@AIF@@UAEXPBDIIIPBH@Z" PURGE="20" COMMENT="" />
    <EXPORT ORDINAL="3457" NAME="?cgmPixelZoom@OpenGLErrorChecker@OGL@AIF@@UAEXPBDIMM@Z" PURGE="16" COMMENT="" />
    <EXPORT ORDINAL="3458" NAME="?cgmPixelZoom@OpenGLRekorder@OGL@AIF@@UAEXPBDIMM@Z" PURGE="16" COMMENT="" />
    <EXPORT ORDINAL="3459" NAME="?cgmPixelZoom@OpenGLTracer@OGL@AIF@@UAEXPBDIMM@Z" PURGE="16" COMMENT="" />
    <EXPORT ORDINAL="3460" NAME="?cgmPointParameterf@OpenGLErrorChecker@OGL@AIF@@UAEXPBDIIM@Z" PURGE="16" COMMENT="" />
    <EXPORT ORDINAL="3461" NAME="?cgmPointParameterf@OpenGLRekorder@OGL@AIF@@UAEXPBDIIM@Z" PURGE="16" COMMENT="" />
    <EXPORT ORDINAL="3462" NAME="?cgmPointParameterf@OpenGLTracer@OGL@AIF@@UAEXPBDIIM@Z" PURGE="16" COMMENT="" />
    <EXPORT ORDINAL="3463" NAME="?cgmPointParameterfARB@OpenGLErrorChecker@OGL@AIF@@UAEXPBDIIM@Z" PURGE="16" COMMENT="" />
    <EXPORT ORDINAL="3464" NAME="?cgmPointParameterfARB@OpenGLRekorder@OGL@AIF@@UAEXPBDIIM@Z" PURGE="16" COMMENT="" />
    <EXPORT ORDINAL="3465" NAME="?cgmPointParameterfARB@OpenGLTracer@OGL@AIF@@UAEXPBDIIM@Z" PURGE="16" COMMENT="" />
    <EXPORT ORDINAL="3466" NAME="?cgmPointParameterfEXT@OpenGLErrorChecker@OGL@AIF@@UAEXPBDIIM@Z" PURGE="16" COMMENT="" />
    <EXPORT ORDINAL="3467" NAME="?cgmPointParameterfEXT@OpenGLRekorder@OGL@AIF@@UAEXPBDIIM@Z" PURGE="16" COMMENT="" />
    <EXPORT ORDINAL="3468" NAME="?cgmPointParameterfEXT@OpenGLTracer@OGL@AIF@@UAEXPBDIIM@Z" PURGE="16" COMMENT="" />
    <EXPORT ORDINAL="3469" NAME="?cgmPointParameterfv@OpenGLErrorChecker@OGL@AIF@@UAEXPBDIIPAM@Z" PURGE="16" COMMENT="" />
    <EXPORT ORDINAL="3470" NAME="?cgmPointParameterfv@OpenGLRekorder@OGL@AIF@@UAEXPBDIIPAM@Z" PURGE="-1" COMMENT="" />
    <EXPORT ORDINAL="3471" NAME="?cgmPointParameterfv@OpenGLTracer@OGL@AIF@@UAEXPBDIIPAM@Z" PURGE="16" COMMENT="" />
    <EXPORT ORDINAL="3472" NAME="?cgmPointParameterfvARB@OpenGLErrorChecker@OGL@AIF@@UAEXPBDIIPAM@Z" PURGE="16" COMMENT="" />
    <EXPORT ORDINAL="3473" NAME="?cgmPointParameterfvARB@OpenGLRekorder@OGL@AIF@@UAEXPBDIIPAM@Z" PURGE="-1" COMMENT="" />
    <EXPORT ORDINAL="3474" NAME="?cgmPointParameterfvARB@OpenGLTracer@OGL@AIF@@UAEXPBDIIPAM@Z" PURGE="16" COMMENT="" />
    <EXPORT ORDINAL="3475" NAME="?cgmPointParameterfvEXT@OpenGLErrorChecker@OGL@AIF@@UAEXPBDIIPAM@Z" PURGE="16" COMMENT="" />
    <EXPORT ORDINAL="3476" NAME="?cgmPointParameterfvEXT@OpenGLRekorder@OGL@AIF@@UAEXPBDIIPAM@Z" PURGE="-1" COMMENT="" />
    <EXPORT ORDINAL="3477" NAME="?cgmPointParameterfvEXT@OpenGLTracer@OGL@AIF@@UAEXPBDIIPAM@Z" PURGE="16" COMMENT="" />
    <EXPORT ORDINAL="3478" NAME="?cgmPointParameteriNV@OpenGLErrorChecker@OGL@AIF@@UAEXPBDIIH@Z" PURGE="16" COMMENT="" />
    <EXPORT ORDINAL="3479" NAME="?cgmPointParameteriNV@OpenGLRekorder@OGL@AIF@@UAEXPBDIIH@Z" PURGE="16" COMMENT="" />
    <EXPORT ORDINAL="3480" NAME="?cgmPointParameteriNV@OpenGLTracer@OGL@AIF@@UAEXPBDIIH@Z" PURGE="16" COMMENT="" />
    <EXPORT ORDINAL="3481" NAME="?cgmPointParameterivNV@OpenGLErrorChecker@OGL@AIF@@UAEXPBDIIPBH@Z" PURGE="16" COMMENT="" />
    <EXPORT ORDINAL="3482" NAME="?cgmPointParameterivNV@OpenGLRekorder@OGL@AIF@@UAEXPBDIIPBH@Z" PURGE="-1" COMMENT="" />
    <EXPORT ORDINAL="3483" NAME="?cgmPointParameterivNV@OpenGLTracer@OGL@AIF@@UAEXPBDIIPBH@Z" PURGE="16" COMMENT="" />
    <EXPORT ORDINAL="3484" NAME="?cgmPointSize@OpenGLErrorChecker@OGL@AIF@@UAEXPBDIM@Z" PURGE="12" COMMENT="" />
    <EXPORT ORDINAL="3485" NAME="?cgmPointSize@OpenGLRekorder@OGL@AIF@@UAEXPBDIM@Z" PURGE="12" COMMENT="" />
    <EXPORT ORDINAL="3486" NAME="?cgmPointSize@OpenGLTracer@OGL@AIF@@UAEXPBDIM@Z" PURGE="12" COMMENT="" />
    <EXPORT ORDINAL="3487" NAME="?cgmPollAsyncSGIX@OpenGLErrorChecker@OGL@AIF@@UAEHPBDIPAI@Z" PURGE="12" COMMENT="" />
    <EXPORT ORDINAL="3488" NAME="?cgmPollAsyncSGIX@OpenGLRekorder@OGL@AIF@@UAEHPBDIPAI@Z" PURGE="-1" COMMENT="" />
    <EXPORT ORDINAL="3489" NAME="?cgmPollAsyncSGIX@OpenGLTracer@OGL@AIF@@UAEHPBDIPAI@Z" PURGE="12" COMMENT="" />
    <EXPORT ORDINAL="3490" NAME="?cgmPolygonMode@OpenGLErrorChecker@OGL@AIF@@UAEXPBDIII@Z" PURGE="16" COMMENT="" />
    <EXPORT ORDINAL="3491" NAME="?cgmPolygonMode@OpenGLRekorder@OGL@AIF@@UAEXPBDIII@Z" PURGE="16" COMMENT="" />
    <EXPORT ORDINAL="3492" NAME="?cgmPolygonMode@OpenGLTracer@OGL@AIF@@UAEXPBDIII@Z" PURGE="16" COMMENT="" />
    <EXPORT ORDINAL="3493" NAME="?cgmPolygonOffset@OpenGLErrorChecker@OGL@AIF@@UAEXPBDIMM@Z" PURGE="16" COMMENT="" />
    <EXPORT ORDINAL="3494" NAME="?cgmPolygonOffset@OpenGLRekorder@OGL@AIF@@UAEXPBDIMM@Z" PURGE="16" COMMENT="" />
    <EXPORT ORDINAL="3495" NAME="?cgmPolygonOffset@OpenGLTracer@OGL@AIF@@UAEXPBDIMM@Z" PURGE="16" COMMENT="" />
    <EXPORT ORDINAL="3496" NAME="?cgmPolygonOffsetEXT@OpenGLErrorChecker@OGL@AIF@@UAEXPBDIMM@Z" PURGE="16" COMMENT="" />
    <EXPORT ORDINAL="3497" NAME="?cgmPolygonOffsetEXT@OpenGLRekorder@OGL@AIF@@UAEXPBDIMM@Z" PURGE="16" COMMENT="" />
    <EXPORT ORDINAL="3498" NAME="?cgmPolygonOffsetEXT@OpenGLTracer@OGL@AIF@@UAEXPBDIMM@Z" PURGE="16" COMMENT="" />
    <EXPORT ORDINAL="3499" NAME="?cgmPolygonStipple@OpenGLErrorChecker@OGL@AIF@@UAEXPBDIPBE@Z" PURGE="12" COMMENT="" />
    <EXPORT ORDINAL="3500" NAME="?cgmPolygonStipple@OpenGLRekorder@OGL@AIF@@UAEXPBDIPBE@Z" PURGE="-1" COMMENT="" />
    <EXPORT ORDINAL="3501" NAME="?cgmPolygonStipple@OpenGLTracer@OGL@AIF@@UAEXPBDIPBE@Z" PURGE="12" COMMENT="" />
    <EXPORT ORDINAL="3502" NAME="?cgmPopAttrib@OpenGLErrorChecker@OGL@AIF@@UAEXPBDI@Z" PURGE="8" COMMENT="" />
    <EXPORT ORDINAL="3503" NAME="?cgmPopAttrib@OpenGLRekorder@OGL@AIF@@UAEXPBDI@Z" PURGE="8" COMMENT="" />
    <EXPORT ORDINAL="3504" NAME="?cgmPopAttrib@OpenGLTracer@OGL@AIF@@UAEXPBDI@Z" PURGE="8" COMMENT="" />
    <EXPORT ORDINAL="3505" NAME="?cgmPopClientAttrib@OpenGLErrorChecker@OGL@AIF@@UAEXPBDI@Z" PURGE="8" COMMENT="" />
    <EXPORT ORDINAL="3506" NAME="?cgmPopClientAttrib@OpenGLRekorder@OGL@AIF@@UAEXPBDI@Z" PURGE="8" COMMENT="" />
    <EXPORT ORDINAL="3507" NAME="?cgmPopClientAttrib@OpenGLTracer@OGL@AIF@@UAEXPBDI@Z" PURGE="8" COMMENT="" />
    <EXPORT ORDINAL="3508" NAME="?cgmPopMatrix@OpenGLErrorChecker@OGL@AIF@@UAEXPBDI@Z" PURGE="8" COMMENT="" />
    <EXPORT ORDINAL="3509" NAME="?cgmPopMatrix@OpenGLRekorder@OGL@AIF@@UAEXPBDI@Z" PURGE="8" COMMENT="" />
    <EXPORT ORDINAL="3510" NAME="?cgmPopMatrix@OpenGLTracer@OGL@AIF@@UAEXPBDI@Z" PURGE="8" COMMENT="" />
    <EXPORT ORDINAL="3511" NAME="?cgmPopName@OpenGLErrorChecker@OGL@AIF@@UAEXPBDI@Z" PURGE="8" COMMENT="" />
    <EXPORT ORDINAL="3512" NAME="?cgmPopName@OpenGLRekorder@OGL@AIF@@UAEXPBDI@Z" PURGE="8" COMMENT="" />
    <EXPORT ORDINAL="3513" NAME="?cgmPopName@OpenGLTracer@OGL@AIF@@UAEXPBDI@Z" PURGE="8" COMMENT="" />
    <EXPORT ORDINAL="3514" NAME="?cgmPresentFrameDualFillNV@OpenGLErrorChecker@OGL@AIF@@UAEXPBDII_KIIIIIIIIIII@Z" PURGE="64" COMMENT="" />
    <EXPORT ORDINAL="3515" NAME="?cgmPresentFrameDualFillNV@OpenGLRekorder@OGL@AIF@@UAEXPBDII_KIIIIIIIIIII@Z" PURGE="64" COMMENT="" />
    <EXPORT ORDINAL="3516" NAME="?cgmPresentFrameDualFillNV@OpenGLTracer@OGL@AIF@@UAEXPBDII_KIIIIIIIIIII@Z" PURGE="64" COMMENT="" />
    <EXPORT ORDINAL="3517" NAME="?cgmPresentFrameKeyedNV@OpenGLErrorChecker@OGL@AIF@@UAEXPBDII_KIIIIIIIII@Z" PURGE="56" COMMENT="" />
    <EXPORT ORDINAL="3518" NAME="?cgmPresentFrameKeyedNV@OpenGLRekorder@OGL@AIF@@UAEXPBDII_KIIIIIIIII@Z" PURGE="56" COMMENT="" />
    <EXPORT ORDINAL="3519" NAME="?cgmPresentFrameKeyedNV@OpenGLTracer@OGL@AIF@@UAEXPBDII_KIIIIIIIII@Z" PURGE="56" COMMENT="" />
    <EXPORT ORDINAL="3520" NAME="?cgmPrimitiveRestartIndexNV@OpenGLErrorChecker@OGL@AIF@@UAEXPBDII@Z" PURGE="12" COMMENT="" />
    <EXPORT ORDINAL="3521" NAME="?cgmPrimitiveRestartIndexNV@OpenGLRekorder@OGL@AIF@@UAEXPBDII@Z" PURGE="12" COMMENT="" />
    <EXPORT ORDINAL="3522" NAME="?cgmPrimitiveRestartIndexNV@OpenGLTracer@OGL@AIF@@UAEXPBDII@Z" PURGE="12" COMMENT="" />
    <EXPORT ORDINAL="3523" NAME="?cgmPrimitiveRestartNV@OpenGLErrorChecker@OGL@AIF@@UAEXPBDI@Z" PURGE="8" COMMENT="" />
    <EXPORT ORDINAL="3524" NAME="?cgmPrimitiveRestartNV@OpenGLRekorder@OGL@AIF@@UAEXPBDI@Z" PURGE="8" COMMENT="" />
    <EXPORT ORDINAL="3525" NAME="?cgmPrimitiveRestartNV@OpenGLTracer@OGL@AIF@@UAEXPBDI@Z" PURGE="8" COMMENT="" />
    <EXPORT ORDINAL="3526" NAME="?cgmPrioritizeTextures@OpenGLErrorChecker@OGL@AIF@@UAEXPBDIHPBIPBM@Z" PURGE="20" COMMENT="" />
    <EXPORT ORDINAL="3527" NAME="?cgmPrioritizeTextures@OpenGLRekorder@OGL@AIF@@UAEXPBDIHPBIPBM@Z" PURGE="-1" COMMENT="" />
    <EXPORT ORDINAL="3528" NAME="?cgmPrioritizeTextures@OpenGLTracer@OGL@AIF@@UAEXPBDIHPBIPBM@Z" PURGE="20" COMMENT="" />
    <EXPORT ORDINAL="3529" NAME="?cgmPrioritizeTexturesEXT@OpenGLErrorChecker@OGL@AIF@@UAEXPBDIHPBIPBM@Z" PURGE="20" COMMENT="" />
    <EXPORT ORDINAL="3530" NAME="?cgmPrioritizeTexturesEXT@OpenGLRekorder@OGL@AIF@@UAEXPBDIHPBIPBM@Z" PURGE="-1" COMMENT="" />
    <EXPORT ORDINAL="3531" NAME="?cgmPrioritizeTexturesEXT@OpenGLTracer@OGL@AIF@@UAEXPBDIHPBIPBM@Z" PURGE="20" COMMENT="" />
    <EXPORT ORDINAL="3532" NAME="?cgmProgramBufferParametersIivNV@OpenGLErrorChecker@OGL@AIF@@UAEXPBDIIIIHPBH@Z" PURGE="28" COMMENT="" />
    <EXPORT ORDINAL="3533" NAME="?cgmProgramBufferParametersIivNV@OpenGLRekorder@OGL@AIF@@UAEXPBDIIIIHPBH@Z" PURGE="-1" COMMENT="" />
    <EXPORT ORDINAL="3534" NAME="?cgmProgramBufferParametersIivNV@OpenGLTracer@OGL@AIF@@UAEXPBDIIIIHPBH@Z" PURGE="28" COMMENT="" />
    <EXPORT ORDINAL="3535" NAME="?cgmProgramBufferParametersIuivNV@OpenGLErrorChecker@OGL@AIF@@UAEXPBDIIIIHPBI@Z" PURGE="28" COMMENT="" />
    <EXPORT ORDINAL="3536" NAME="?cgmProgramBufferParametersIuivNV@OpenGLRekorder@OGL@AIF@@UAEXPBDIIIIHPBI@Z" PURGE="-1" COMMENT="" />
    <EXPORT ORDINAL="3537" NAME="?cgmProgramBufferParametersIuivNV@OpenGLTracer@OGL@AIF@@UAEXPBDIIIIHPBI@Z" PURGE="28" COMMENT="" />
    <EXPORT ORDINAL="3538" NAME="?cgmProgramBufferParametersfvNV@OpenGLErrorChecker@OGL@AIF@@UAEXPBDIIIIHPBM@Z" PURGE="28" COMMENT="" />
    <EXPORT ORDINAL="3539" NAME="?cgmProgramBufferParametersfvNV@OpenGLRekorder@OGL@AIF@@UAEXPBDIIIIHPBM@Z" PURGE="-1" COMMENT="" />
    <EXPORT ORDINAL="3540" NAME="?cgmProgramBufferParametersfvNV@OpenGLTracer@OGL@AIF@@UAEXPBDIIIIHPBM@Z" PURGE="28" COMMENT="" />
    <EXPORT ORDINAL="3541" NAME="?cgmProgramEnvParameter4dARB@OpenGLErrorChecker@OGL@AIF@@UAEXPBDIIINNNN@Z" PURGE="48" COMMENT="" />
    <EXPORT ORDINAL="3542" NAME="?cgmProgramEnvParameter4dARB@OpenGLRekorder@OGL@AIF@@UAEXPBDIIINNNN@Z" PURGE="48" COMMENT="" />
    <EXPORT ORDINAL="3543" NAME="?cgmProgramEnvParameter4dARB@OpenGLTracer@OGL@AIF@@UAEXPBDIIINNNN@Z" PURGE="48" COMMENT="" />
    <EXPORT ORDINAL="3544" NAME="?cgmProgramEnvParameter4dvARB@OpenGLErrorChecker@OGL@AIF@@UAEXPBDIIIPBN@Z" PURGE="20" COMMENT="" />
    <EXPORT ORDINAL="3545" NAME="?cgmProgramEnvParameter4dvARB@OpenGLRekorder@OGL@AIF@@UAEXPBDIIIPBN@Z" PURGE="-1" COMMENT="" />
    <EXPORT ORDINAL="3546" NAME="?cgmProgramEnvParameter4dvARB@OpenGLTracer@OGL@AIF@@UAEXPBDIIIPBN@Z" PURGE="20" COMMENT="" />
    <EXPORT ORDINAL="3547" NAME="?cgmProgramEnvParameter4fARB@OpenGLErrorChecker@OGL@AIF@@UAEXPBDIIIMMMM@Z" PURGE="32" COMMENT="" />
    <EXPORT ORDINAL="3548" NAME="?cgmProgramEnvParameter4fARB@OpenGLRekorder@OGL@AIF@@UAEXPBDIIIMMMM@Z" PURGE="32" COMMENT="" />
    <EXPORT ORDINAL="3549" NAME="?cgmProgramEnvParameter4fARB@OpenGLTracer@OGL@AIF@@UAEXPBDIIIMMMM@Z" PURGE="32" COMMENT="" />
    <EXPORT ORDINAL="3550" NAME="?cgmProgramEnvParameter4fvARB@OpenGLErrorChecker@OGL@AIF@@UAEXPBDIIIPBM@Z" PURGE="20" COMMENT="" />
    <EXPORT ORDINAL="3551" NAME="?cgmProgramEnvParameter4fvARB@OpenGLRekorder@OGL@AIF@@UAEXPBDIIIPBM@Z" PURGE="-1" COMMENT="" />
    <EXPORT ORDINAL="3552" NAME="?cgmProgramEnvParameter4fvARB@OpenGLTracer@OGL@AIF@@UAEXPBDIIIPBM@Z" PURGE="20" COMMENT="" />
    <EXPORT ORDINAL="3553" NAME="?cgmProgramEnvParameterI4iNV@OpenGLErrorChecker@OGL@AIF@@UAEXPBDIIIHHHH@Z" PURGE="32" COMMENT="" />
    <EXPORT ORDINAL="3554" NAME="?cgmProgramEnvParameterI4iNV@OpenGLRekorder@OGL@AIF@@UAEXPBDIIIHHHH@Z" PURGE="32" COMMENT="" />
    <EXPORT ORDINAL="3555" NAME="?cgmProgramEnvParameterI4iNV@OpenGLTracer@OGL@AIF@@UAEXPBDIIIHHHH@Z" PURGE="32" COMMENT="" />
    <EXPORT ORDINAL="3556" NAME="?cgmProgramEnvParameterI4ivNV@OpenGLErrorChecker@OGL@AIF@@UAEXPBDIIIPBH@Z" PURGE="20" COMMENT="" />
    <EXPORT ORDINAL="3557" NAME="?cgmProgramEnvParameterI4ivNV@OpenGLRekorder@OGL@AIF@@UAEXPBDIIIPBH@Z" PURGE="-1" COMMENT="" />
    <EXPORT ORDINAL="3558" NAME="?cgmProgramEnvParameterI4ivNV@OpenGLTracer@OGL@AIF@@UAEXPBDIIIPBH@Z" PURGE="20" COMMENT="" />
    <EXPORT ORDINAL="3559" NAME="?cgmProgramEnvParameterI4uiNV@OpenGLErrorChecker@OGL@AIF@@UAEXPBDIIIIIII@Z" PURGE="32" COMMENT="" />
    <EXPORT ORDINAL="3560" NAME="?cgmProgramEnvParameterI4uiNV@OpenGLRekorder@OGL@AIF@@UAEXPBDIIIIIII@Z" PURGE="32" COMMENT="" />
    <EXPORT ORDINAL="3561" NAME="?cgmProgramEnvParameterI4uiNV@OpenGLTracer@OGL@AIF@@UAEXPBDIIIIIII@Z" PURGE="32" COMMENT="" />
    <EXPORT ORDINAL="3562" NAME="?cgmProgramEnvParameterI4uivNV@OpenGLErrorChecker@OGL@AIF@@UAEXPBDIIIPBI@Z" PURGE="20" COMMENT="" />
    <EXPORT ORDINAL="3563" NAME="?cgmProgramEnvParameterI4uivNV@OpenGLRekorder@OGL@AIF@@UAEXPBDIIIPBI@Z" PURGE="-1" COMMENT="" />
    <EXPORT ORDINAL="3564" NAME="?cgmProgramEnvParameterI4uivNV@OpenGLTracer@OGL@AIF@@UAEXPBDIIIPBI@Z" PURGE="20" COMMENT="" />
    <EXPORT ORDINAL="3565" NAME="?cgmProgramEnvParameters4fvEXT@OpenGLErrorChecker@OGL@AIF@@UAEXPBDIIIHPBM@Z" PURGE="24" COMMENT="" />
    <EXPORT ORDINAL="3566" NAME="?cgmProgramEnvParameters4fvEXT@OpenGLRekorder@OGL@AIF@@UAEXPBDIIIHPBM@Z" PURGE="-1" COMMENT="" />
    <EXPORT ORDINAL="3567" NAME="?cgmProgramEnvParameters4fvEXT@OpenGLTracer@OGL@AIF@@UAEXPBDIIIHPBM@Z" PURGE="24" COMMENT="" />
    <EXPORT ORDINAL="3568" NAME="?cgmProgramEnvParametersI4ivNV@OpenGLErrorChecker@OGL@AIF@@UAEXPBDIIIHPBH@Z" PURGE="24" COMMENT="" />
    <EXPORT ORDINAL="3569" NAME="?cgmProgramEnvParametersI4ivNV@OpenGLRekorder@OGL@AIF@@UAEXPBDIIIHPBH@Z" PURGE="-1" COMMENT="" />
    <EXPORT ORDINAL="3570" NAME="?cgmProgramEnvParametersI4ivNV@OpenGLTracer@OGL@AIF@@UAEXPBDIIIHPBH@Z" PURGE="24" COMMENT="" />
    <EXPORT ORDINAL="3571" NAME="?cgmProgramEnvParametersI4uivNV@OpenGLErrorChecker@OGL@AIF@@UAEXPBDIIIHPBI@Z" PURGE="24" COMMENT="" />
    <EXPORT ORDINAL="3572" NAME="?cgmProgramEnvParametersI4uivNV@OpenGLRekorder@OGL@AIF@@UAEXPBDIIIHPBI@Z" PURGE="-1" COMMENT="" />
    <EXPORT ORDINAL="3573" NAME="?cgmProgramEnvParametersI4uivNV@OpenGLTracer@OGL@AIF@@UAEXPBDIIIHPBI@Z" PURGE="24" COMMENT="" />
    <EXPORT ORDINAL="3574" NAME="?cgmProgramLocalParameter4dARB@OpenGLErrorChecker@OGL@AIF@@UAEXPBDIIINNNN@Z" PURGE="48" COMMENT="" />
    <EXPORT ORDINAL="3575" NAME="?cgmProgramLocalParameter4dARB@OpenGLRekorder@OGL@AIF@@UAEXPBDIIINNNN@Z" PURGE="48" COMMENT="" />
    <EXPORT ORDINAL="3576" NAME="?cgmProgramLocalParameter4dARB@OpenGLTracer@OGL@AIF@@UAEXPBDIIINNNN@Z" PURGE="48" COMMENT="" />
    <EXPORT ORDINAL="3577" NAME="?cgmProgramLocalParameter4dvARB@OpenGLErrorChecker@OGL@AIF@@UAEXPBDIIIPBN@Z" PURGE="20" COMMENT="" />
    <EXPORT ORDINAL="3578" NAME="?cgmProgramLocalParameter4dvARB@OpenGLRekorder@OGL@AIF@@UAEXPBDIIIPBN@Z" PURGE="-1" COMMENT="" />
    <EXPORT ORDINAL="3579" NAME="?cgmProgramLocalParameter4dvARB@OpenGLTracer@OGL@AIF@@UAEXPBDIIIPBN@Z" PURGE="20" COMMENT="" />
    <EXPORT ORDINAL="3580" NAME="?cgmProgramLocalParameter4fARB@OpenGLErrorChecker@OGL@AIF@@UAEXPBDIIIMMMM@Z" PURGE="32" COMMENT="" />
    <EXPORT ORDINAL="3581" NAME="?cgmProgramLocalParameter4fARB@OpenGLRekorder@OGL@AIF@@UAEXPBDIIIMMMM@Z" PURGE="32" COMMENT="" />
    <EXPORT ORDINAL="3582" NAME="?cgmProgramLocalParameter4fARB@OpenGLTracer@OGL@AIF@@UAEXPBDIIIMMMM@Z" PURGE="32" COMMENT="" />
    <EXPORT ORDINAL="3583" NAME="?cgmProgramLocalParameter4fvARB@OpenGLErrorChecker@OGL@AIF@@UAEXPBDIIIPBM@Z" PURGE="20" COMMENT="" />
    <EXPORT ORDINAL="3584" NAME="?cgmProgramLocalParameter4fvARB@OpenGLRekorder@OGL@AIF@@UAEXPBDIIIPBM@Z" PURGE="-1" COMMENT="" />
    <EXPORT ORDINAL="3585" NAME="?cgmProgramLocalParameter4fvARB@OpenGLTracer@OGL@AIF@@UAEXPBDIIIPBM@Z" PURGE="20" COMMENT="" />
    <EXPORT ORDINAL="3586" NAME="?cgmProgramLocalParameterI4iNV@OpenGLErrorChecker@OGL@AIF@@UAEXPBDIIIHHHH@Z" PURGE="32" COMMENT="" />
    <EXPORT ORDINAL="3587" NAME="?cgmProgramLocalParameterI4iNV@OpenGLRekorder@OGL@AIF@@UAEXPBDIIIHHHH@Z" PURGE="32" COMMENT="" />
    <EXPORT ORDINAL="3588" NAME="?cgmProgramLocalParameterI4iNV@OpenGLTracer@OGL@AIF@@UAEXPBDIIIHHHH@Z" PURGE="32" COMMENT="" />
    <EXPORT ORDINAL="3589" NAME="?cgmProgramLocalParameterI4ivNV@OpenGLErrorChecker@OGL@AIF@@UAEXPBDIIIPBH@Z" PURGE="20" COMMENT="" />
    <EXPORT ORDINAL="3590" NAME="?cgmProgramLocalParameterI4ivNV@OpenGLRekorder@OGL@AIF@@UAEXPBDIIIPBH@Z" PURGE="-1" COMMENT="" />
    <EXPORT ORDINAL="3591" NAME="?cgmProgramLocalParameterI4ivNV@OpenGLTracer@OGL@AIF@@UAEXPBDIIIPBH@Z" PURGE="20" COMMENT="" />
    <EXPORT ORDINAL="3592" NAME="?cgmProgramLocalParameterI4uiNV@OpenGLErrorChecker@OGL@AIF@@UAEXPBDIIIIIII@Z" PURGE="32" COMMENT="" />
    <EXPORT ORDINAL="3593" NAME="?cgmProgramLocalParameterI4uiNV@OpenGLRekorder@OGL@AIF@@UAEXPBDIIIIIII@Z" PURGE="32" COMMENT="" />
    <EXPORT ORDINAL="3594" NAME="?cgmProgramLocalParameterI4uiNV@OpenGLTracer@OGL@AIF@@UAEXPBDIIIIIII@Z" PURGE="32" COMMENT="" />
    <EXPORT ORDINAL="3595" NAME="?cgmProgramLocalParameterI4uivNV@OpenGLErrorChecker@OGL@AIF@@UAEXPBDIIIPBI@Z" PURGE="20" COMMENT="" />
    <EXPORT ORDINAL="3596" NAME="?cgmProgramLocalParameterI4uivNV@OpenGLRekorder@OGL@AIF@@UAEXPBDIIIPBI@Z" PURGE="-1" COMMENT="" />
    <EXPORT ORDINAL="3597" NAME="?cgmProgramLocalParameterI4uivNV@OpenGLTracer@OGL@AIF@@UAEXPBDIIIPBI@Z" PURGE="20" COMMENT="" />
    <EXPORT ORDINAL="3598" NAME="?cgmProgramLocalParameters4fvEXT@OpenGLErrorChecker@OGL@AIF@@UAEXPBDIIIHPBM@Z" PURGE="24" COMMENT="" />
    <EXPORT ORDINAL="3599" NAME="?cgmProgramLocalParameters4fvEXT@OpenGLRekorder@OGL@AIF@@UAEXPBDIIIHPBM@Z" PURGE="-1" COMMENT="" />
    <EXPORT ORDINAL="3600" NAME="?cgmProgramLocalParameters4fvEXT@OpenGLTracer@OGL@AIF@@UAEXPBDIIIHPBM@Z" PURGE="24" COMMENT="" />
    <EXPORT ORDINAL="3601" NAME="?cgmProgramLocalParametersI4ivNV@OpenGLErrorChecker@OGL@AIF@@UAEXPBDIIIHPBH@Z" PURGE="24" COMMENT="" />
    <EXPORT ORDINAL="3602" NAME="?cgmProgramLocalParametersI4ivNV@OpenGLRekorder@OGL@AIF@@UAEXPBDIIIHPBH@Z" PURGE="-1" COMMENT="" />
    <EXPORT ORDINAL="3603" NAME="?cgmProgramLocalParametersI4ivNV@OpenGLTracer@OGL@AIF@@UAEXPBDIIIHPBH@Z" PURGE="24" COMMENT="" />
    <EXPORT ORDINAL="3604" NAME="?cgmProgramLocalParametersI4uivNV@OpenGLErrorChecker@OGL@AIF@@UAEXPBDIIIHPBI@Z" PURGE="24" COMMENT="" />
    <EXPORT ORDINAL="3605" NAME="?cgmProgramLocalParametersI4uivNV@OpenGLRekorder@OGL@AIF@@UAEXPBDIIIHPBI@Z" PURGE="-1" COMMENT="" />
    <EXPORT ORDINAL="3606" NAME="?cgmProgramLocalParametersI4uivNV@OpenGLTracer@OGL@AIF@@UAEXPBDIIIHPBI@Z" PURGE="24" COMMENT="" />
    <EXPORT ORDINAL="3607" NAME="?cgmProgramNamedParameter4dNV@OpenGLErrorChecker@OGL@AIF@@UAEXPBDIIHPBENNNN@Z" PURGE="52" COMMENT="" />
    <EXPORT ORDINAL="3608" NAME="?cgmProgramNamedParameter4dNV@OpenGLRekorder@OGL@AIF@@UAEXPBDIIHPBENNNN@Z" PURGE="52" COMMENT="" />
    <EXPORT ORDINAL="3609" NAME="?cgmProgramNamedParameter4dNV@OpenGLTracer@OGL@AIF@@UAEXPBDIIHPBENNNN@Z" PURGE="52" COMMENT="" />
    <EXPORT ORDINAL="3610" NAME="?cgmProgramNamedParameter4dvNV@OpenGLErrorChecker@OGL@AIF@@UAEXPBDIIHPBEQBN@Z" PURGE="24" COMMENT="" />
    <EXPORT ORDINAL="3611" NAME="?cgmProgramNamedParameter4dvNV@OpenGLRekorder@OGL@AIF@@UAEXPBDIIHPBEQBN@Z" PURGE="-1" COMMENT="" />
    <EXPORT ORDINAL="3612" NAME="?cgmProgramNamedParameter4dvNV@OpenGLTracer@OGL@AIF@@UAEXPBDIIHPBEQBN@Z" PURGE="24" COMMENT="" />
    <EXPORT ORDINAL="3613" NAME="?cgmProgramNamedParameter4fNV@OpenGLErrorChecker@OGL@AIF@@UAEXPBDIIHPBEMMMM@Z" PURGE="36" COMMENT="" />
    <EXPORT ORDINAL="3614" NAME="?cgmProgramNamedParameter4fNV@OpenGLRekorder@OGL@AIF@@UAEXPBDIIHPBEMMMM@Z" PURGE="36" COMMENT="" />
    <EXPORT ORDINAL="3615" NAME="?cgmProgramNamedParameter4fNV@OpenGLTracer@OGL@AIF@@UAEXPBDIIHPBEMMMM@Z" PURGE="36" COMMENT="" />
    <EXPORT ORDINAL="3616" NAME="?cgmProgramNamedParameter4fvNV@OpenGLErrorChecker@OGL@AIF@@UAEXPBDIIHPBEQBM@Z" PURGE="24" COMMENT="" />
    <EXPORT ORDINAL="3617" NAME="?cgmProgramNamedParameter4fvNV@OpenGLRekorder@OGL@AIF@@UAEXPBDIIHPBEQBM@Z" PURGE="-1" COMMENT="" />
    <EXPORT ORDINAL="3618" NAME="?cgmProgramNamedParameter4fvNV@OpenGLTracer@OGL@AIF@@UAEXPBDIIHPBEQBM@Z" PURGE="24" COMMENT="" />
    <EXPORT ORDINAL="3619" NAME="?cgmProgramParameter4dNV@OpenGLErrorChecker@OGL@AIF@@UAEXPBDIIINNNN@Z" PURGE="48" COMMENT="" />
    <EXPORT ORDINAL="3620" NAME="?cgmProgramParameter4dNV@OpenGLRekorder@OGL@AIF@@UAEXPBDIIINNNN@Z" PURGE="48" COMMENT="" />
    <EXPORT ORDINAL="3621" NAME="?cgmProgramParameter4dNV@OpenGLTracer@OGL@AIF@@UAEXPBDIIINNNN@Z" PURGE="48" COMMENT="" />
    <EXPORT ORDINAL="3622" NAME="?cgmProgramParameter4dvNV@OpenGLErrorChecker@OGL@AIF@@UAEXPBDIIIPBN@Z" PURGE="20" COMMENT="" />
    <EXPORT ORDINAL="3623" NAME="?cgmProgramParameter4dvNV@OpenGLRekorder@OGL@AIF@@UAEXPBDIIIPBN@Z" PURGE="-1" COMMENT="" />
    <EXPORT ORDINAL="3624" NAME="?cgmProgramParameter4dvNV@OpenGLTracer@OGL@AIF@@UAEXPBDIIIPBN@Z" PURGE="20" COMMENT="" />
    <EXPORT ORDINAL="3625" NAME="?cgmProgramParameter4fNV@OpenGLErrorChecker@OGL@AIF@@UAEXPBDIIIMMMM@Z" PURGE="32" COMMENT="" />
    <EXPORT ORDINAL="3626" NAME="?cgmProgramParameter4fNV@OpenGLRekorder@OGL@AIF@@UAEXPBDIIIMMMM@Z" PURGE="32" COMMENT="" />
    <EXPORT ORDINAL="3627" NAME="?cgmProgramParameter4fNV@OpenGLTracer@OGL@AIF@@UAEXPBDIIIMMMM@Z" PURGE="32" COMMENT="" />
    <EXPORT ORDINAL="3628" NAME="?cgmProgramParameter4fvNV@OpenGLErrorChecker@OGL@AIF@@UAEXPBDIIIPBM@Z" PURGE="20" COMMENT="" />
    <EXPORT ORDINAL="3629" NAME="?cgmProgramParameter4fvNV@OpenGLRekorder@OGL@AIF@@UAEXPBDIIIPBM@Z" PURGE="-1" COMMENT="" />
    <EXPORT ORDINAL="3630" NAME="?cgmProgramParameter4fvNV@OpenGLTracer@OGL@AIF@@UAEXPBDIIIPBM@Z" PURGE="20" COMMENT="" />
    <EXPORT ORDINAL="3631" NAME="?cgmProgramParameteriARB@OpenGLErrorChecker@OGL@AIF@@UAEXPBDIIIH@Z" PURGE="20" COMMENT="" />
    <EXPORT ORDINAL="3632" NAME="?cgmProgramParameteriARB@OpenGLRekorder@OGL@AIF@@UAEXPBDIIIH@Z" PURGE="20" COMMENT="" />
    <EXPORT ORDINAL="3633" NAME="?cgmProgramParameteriARB@OpenGLTracer@OGL@AIF@@UAEXPBDIIIH@Z" PURGE="20" COMMENT="" />
    <EXPORT ORDINAL="3634" NAME="?cgmProgramParameteriEXT@OpenGLErrorChecker@OGL@AIF@@UAEXPBDIIIH@Z" PURGE="20" COMMENT="" />
    <EXPORT ORDINAL="3635" NAME="?cgmProgramParameteriEXT@OpenGLRekorder@OGL@AIF@@UAEXPBDIIIH@Z" PURGE="20" COMMENT="" />
    <EXPORT ORDINAL="3636" NAME="?cgmProgramParameteriEXT@OpenGLTracer@OGL@AIF@@UAEXPBDIIIH@Z" PURGE="20" COMMENT="" />
    <EXPORT ORDINAL="3637" NAME="?cgmProgramParameters4dvNV@OpenGLErrorChecker@OGL@AIF@@UAEXPBDIIIIPBN@Z" PURGE="24" COMMENT="" />
    <EXPORT ORDINAL="3638" NAME="?cgmProgramParameters4dvNV@OpenGLRekorder@OGL@AIF@@UAEXPBDIIIIPBN@Z" PURGE="-1" COMMENT="" />
    <EXPORT ORDINAL="3639" NAME="?cgmProgramParameters4dvNV@OpenGLTracer@OGL@AIF@@UAEXPBDIIIIPBN@Z" PURGE="24" COMMENT="" />
    <EXPORT ORDINAL="3640" NAME="?cgmProgramParameters4fvNV@OpenGLErrorChecker@OGL@AIF@@UAEXPBDIIIIPBM@Z" PURGE="24" COMMENT="" />
    <EXPORT ORDINAL="3641" NAME="?cgmProgramParameters4fvNV@OpenGLRekorder@OGL@AIF@@UAEXPBDIIIIPBM@Z" PURGE="-1" COMMENT="" />
    <EXPORT ORDINAL="3642" NAME="?cgmProgramParameters4fvNV@OpenGLTracer@OGL@AIF@@UAEXPBDIIIIPBM@Z" PURGE="24" COMMENT="" />
    <EXPORT ORDINAL="3643" NAME="?cgmProgramStringARB@OpenGLErrorChecker@OGL@AIF@@UAEXPBDIIIHPBX@Z" PURGE="24" COMMENT="" />
    <EXPORT ORDINAL="3644" NAME="?cgmProgramStringARB@OpenGLRekorder@OGL@AIF@@UAEXPBDIIIHPBX@Z" PURGE="-1" COMMENT="" />
    <EXPORT ORDINAL="3645" NAME="?cgmProgramStringARB@OpenGLTracer@OGL@AIF@@UAEXPBDIIIHPBX@Z" PURGE="24" COMMENT="" />
    <EXPORT ORDINAL="3646" NAME="?cgmProgramUniform1fEXT@OpenGLErrorChecker@OGL@AIF@@UAEXPBDIIHM@Z" PURGE="20" COMMENT="" />
    <EXPORT ORDINAL="3647" NAME="?cgmProgramUniform1fEXT@OpenGLRekorder@OGL@AIF@@UAEXPBDIIHM@Z" PURGE="20" COMMENT="" />
    <EXPORT ORDINAL="3648" NAME="?cgmProgramUniform1fEXT@OpenGLTracer@OGL@AIF@@UAEXPBDIIHM@Z" PURGE="20" COMMENT="" />
    <EXPORT ORDINAL="3649" NAME="?cgmProgramUniform1fvEXT@OpenGLErrorChecker@OGL@AIF@@UAEXPBDIIHHPBM@Z" PURGE="24" COMMENT="" />
    <EXPORT ORDINAL="3650" NAME="?cgmProgramUniform1fvEXT@OpenGLRekorder@OGL@AIF@@UAEXPBDIIHHPBM@Z" PURGE="-1" COMMENT="" />
    <EXPORT ORDINAL="3651" NAME="?cgmProgramUniform1fvEXT@OpenGLTracer@OGL@AIF@@UAEXPBDIIHHPBM@Z" PURGE="24" COMMENT="" />
    <EXPORT ORDINAL="3652" NAME="?cgmProgramUniform1iEXT@OpenGLErrorChecker@OGL@AIF@@UAEXPBDIIHH@Z" PURGE="20" COMMENT="" />
    <EXPORT ORDINAL="3653" NAME="?cgmProgramUniform1iEXT@OpenGLRekorder@OGL@AIF@@UAEXPBDIIHH@Z" PURGE="20" COMMENT="" />
    <EXPORT ORDINAL="3654" NAME="?cgmProgramUniform1iEXT@OpenGLTracer@OGL@AIF@@UAEXPBDIIHH@Z" PURGE="20" COMMENT="" />
    <EXPORT ORDINAL="3655" NAME="?cgmProgramUniform1ivEXT@OpenGLErrorChecker@OGL@AIF@@UAEXPBDIIHHPBH@Z" PURGE="24" COMMENT="" />
    <EXPORT ORDINAL="3656" NAME="?cgmProgramUniform1ivEXT@OpenGLRekorder@OGL@AIF@@UAEXPBDIIHHPBH@Z" PURGE="-1" COMMENT="" />
    <EXPORT ORDINAL="3657" NAME="?cgmProgramUniform1ivEXT@OpenGLTracer@OGL@AIF@@UAEXPBDIIHHPBH@Z" PURGE="24" COMMENT="" />
    <EXPORT ORDINAL="3658" NAME="?cgmProgramUniform1uiEXT@OpenGLErrorChecker@OGL@AIF@@UAEXPBDIIHI@Z" PURGE="20" COMMENT="" />
    <EXPORT ORDINAL="3659" NAME="?cgmProgramUniform1uiEXT@OpenGLRekorder@OGL@AIF@@UAEXPBDIIHI@Z" PURGE="20" COMMENT="" />
    <EXPORT ORDINAL="3660" NAME="?cgmProgramUniform1uiEXT@OpenGLTracer@OGL@AIF@@UAEXPBDIIHI@Z" PURGE="20" COMMENT="" />
    <EXPORT ORDINAL="3661" NAME="?cgmProgramUniform1uivEXT@OpenGLErrorChecker@OGL@AIF@@UAEXPBDIIHHPBI@Z" PURGE="24" COMMENT="" />
    <EXPORT ORDINAL="3662" NAME="?cgmProgramUniform1uivEXT@OpenGLRekorder@OGL@AIF@@UAEXPBDIIHHPBI@Z" PURGE="-1" COMMENT="" />
    <EXPORT ORDINAL="3663" NAME="?cgmProgramUniform1uivEXT@OpenGLTracer@OGL@AIF@@UAEXPBDIIHHPBI@Z" PURGE="24" COMMENT="" />
    <EXPORT ORDINAL="3664" NAME="?cgmProgramUniform2fEXT@OpenGLErrorChecker@OGL@AIF@@UAEXPBDIIHMM@Z" PURGE="24" COMMENT="" />
    <EXPORT ORDINAL="3665" NAME="?cgmProgramUniform2fEXT@OpenGLRekorder@OGL@AIF@@UAEXPBDIIHMM@Z" PURGE="24" COMMENT="" />
    <EXPORT ORDINAL="3666" NAME="?cgmProgramUniform2fEXT@OpenGLTracer@OGL@AIF@@UAEXPBDIIHMM@Z" PURGE="24" COMMENT="" />
    <EXPORT ORDINAL="3667" NAME="?cgmProgramUniform2fvEXT@OpenGLErrorChecker@OGL@AIF@@UAEXPBDIIHHPBM@Z" PURGE="24" COMMENT="" />
    <EXPORT ORDINAL="3668" NAME="?cgmProgramUniform2fvEXT@OpenGLRekorder@OGL@AIF@@UAEXPBDIIHHPBM@Z" PURGE="-1" COMMENT="" />
    <EXPORT ORDINAL="3669" NAME="?cgmProgramUniform2fvEXT@OpenGLTracer@OGL@AIF@@UAEXPBDIIHHPBM@Z" PURGE="24" COMMENT="" />
    <EXPORT ORDINAL="3670" NAME="?cgmProgramUniform2iEXT@OpenGLErrorChecker@OGL@AIF@@UAEXPBDIIHHH@Z" PURGE="24" COMMENT="" />
    <EXPORT ORDINAL="3671" NAME="?cgmProgramUniform2iEXT@OpenGLRekorder@OGL@AIF@@UAEXPBDIIHHH@Z" PURGE="24" COMMENT="" />
    <EXPORT ORDINAL="3672" NAME="?cgmProgramUniform2iEXT@OpenGLTracer@OGL@AIF@@UAEXPBDIIHHH@Z" PURGE="24" COMMENT="" />
    <EXPORT ORDINAL="3673" NAME="?cgmProgramUniform2ivEXT@OpenGLErrorChecker@OGL@AIF@@UAEXPBDIIHHPBH@Z" PURGE="24" COMMENT="" />
    <EXPORT ORDINAL="3674" NAME="?cgmProgramUniform2ivEXT@OpenGLRekorder@OGL@AIF@@UAEXPBDIIHHPBH@Z" PURGE="-1" COMMENT="" />
    <EXPORT ORDINAL="3675" NAME="?cgmProgramUniform2ivEXT@OpenGLTracer@OGL@AIF@@UAEXPBDIIHHPBH@Z" PURGE="24" COMMENT="" />
    <EXPORT ORDINAL="3676" NAME="?cgmProgramUniform2uiEXT@OpenGLErrorChecker@OGL@AIF@@UAEXPBDIIHII@Z" PURGE="24" COMMENT="" />
    <EXPORT ORDINAL="3677" NAME="?cgmProgramUniform2uiEXT@OpenGLRekorder@OGL@AIF@@UAEXPBDIIHII@Z" PURGE="24" COMMENT="" />
    <EXPORT ORDINAL="3678" NAME="?cgmProgramUniform2uiEXT@OpenGLTracer@OGL@AIF@@UAEXPBDIIHII@Z" PURGE="24" COMMENT="" />
    <EXPORT ORDINAL="3679" NAME="?cgmProgramUniform2uivEXT@OpenGLErrorChecker@OGL@AIF@@UAEXPBDIIHHPBI@Z" PURGE="24" COMMENT="" />
    <EXPORT ORDINAL="3680" NAME="?cgmProgramUniform2uivEXT@OpenGLRekorder@OGL@AIF@@UAEXPBDIIHHPBI@Z" PURGE="-1" COMMENT="" />
    <EXPORT ORDINAL="3681" NAME="?cgmProgramUniform2uivEXT@OpenGLTracer@OGL@AIF@@UAEXPBDIIHHPBI@Z" PURGE="24" COMMENT="" />
    <EXPORT ORDINAL="3682" NAME="?cgmProgramUniform3fEXT@OpenGLErrorChecker@OGL@AIF@@UAEXPBDIIHMMM@Z" PURGE="28" COMMENT="" />
    <EXPORT ORDINAL="3683" NAME="?cgmProgramUniform3fEXT@OpenGLRekorder@OGL@AIF@@UAEXPBDIIHMMM@Z" PURGE="28" COMMENT="" />
    <EXPORT ORDINAL="3684" NAME="?cgmProgramUniform3fEXT@OpenGLTracer@OGL@AIF@@UAEXPBDIIHMMM@Z" PURGE="28" COMMENT="" />
    <EXPORT ORDINAL="3685" NAME="?cgmProgramUniform3fvEXT@OpenGLErrorChecker@OGL@AIF@@UAEXPBDIIHHPBM@Z" PURGE="24" COMMENT="" />
    <EXPORT ORDINAL="3686" NAME="?cgmProgramUniform3fvEXT@OpenGLRekorder@OGL@AIF@@UAEXPBDIIHHPBM@Z" PURGE="-1" COMMENT="" />
    <EXPORT ORDINAL="3687" NAME="?cgmProgramUniform3fvEXT@OpenGLTracer@OGL@AIF@@UAEXPBDIIHHPBM@Z" PURGE="24" COMMENT="" />
    <EXPORT ORDINAL="3688" NAME="?cgmProgramUniform3iEXT@OpenGLErrorChecker@OGL@AIF@@UAEXPBDIIHHHH@Z" PURGE="28" COMMENT="" />
    <EXPORT ORDINAL="3689" NAME="?cgmProgramUniform3iEXT@OpenGLRekorder@OGL@AIF@@UAEXPBDIIHHHH@Z" PURGE="28" COMMENT="" />
    <EXPORT ORDINAL="3690" NAME="?cgmProgramUniform3iEXT@OpenGLTracer@OGL@AIF@@UAEXPBDIIHHHH@Z" PURGE="28" COMMENT="" />
    <EXPORT ORDINAL="3691" NAME="?cgmProgramUniform3ivEXT@OpenGLErrorChecker@OGL@AIF@@UAEXPBDIIHHPBH@Z" PURGE="24" COMMENT="" />
    <EXPORT ORDINAL="3692" NAME="?cgmProgramUniform3ivEXT@OpenGLRekorder@OGL@AIF@@UAEXPBDIIHHPBH@Z" PURGE="-1" COMMENT="" />
    <EXPORT ORDINAL="3693" NAME="?cgmProgramUniform3ivEXT@OpenGLTracer@OGL@AIF@@UAEXPBDIIHHPBH@Z" PURGE="24" COMMENT="" />
    <EXPORT ORDINAL="3694" NAME="?cgmProgramUniform3uiEXT@OpenGLErrorChecker@OGL@AIF@@UAEXPBDIIHIII@Z" PURGE="28" COMMENT="" />
    <EXPORT ORDINAL="3695" NAME="?cgmProgramUniform3uiEXT@OpenGLRekorder@OGL@AIF@@UAEXPBDIIHIII@Z" PURGE="28" COMMENT="" />
    <EXPORT ORDINAL="3696" NAME="?cgmProgramUniform3uiEXT@OpenGLTracer@OGL@AIF@@UAEXPBDIIHIII@Z" PURGE="28" COMMENT="" />
    <EXPORT ORDINAL="3697" NAME="?cgmProgramUniform3uivEXT@OpenGLErrorChecker@OGL@AIF@@UAEXPBDIIHHPBI@Z" PURGE="24" COMMENT="" />
    <EXPORT ORDINAL="3698" NAME="?cgmProgramUniform3uivEXT@OpenGLRekorder@OGL@AIF@@UAEXPBDIIHHPBI@Z" PURGE="-1" COMMENT="" />
    <EXPORT ORDINAL="3699" NAME="?cgmProgramUniform3uivEXT@OpenGLTracer@OGL@AIF@@UAEXPBDIIHHPBI@Z" PURGE="24" COMMENT="" />
    <EXPORT ORDINAL="3700" NAME="?cgmProgramUniform4fEXT@OpenGLErrorChecker@OGL@AIF@@UAEXPBDIIHMMMM@Z" PURGE="32" COMMENT="" />
    <EXPORT ORDINAL="3701" NAME="?cgmProgramUniform4fEXT@OpenGLRekorder@OGL@AIF@@UAEXPBDIIHMMMM@Z" PURGE="32" COMMENT="" />
    <EXPORT ORDINAL="3702" NAME="?cgmProgramUniform4fEXT@OpenGLTracer@OGL@AIF@@UAEXPBDIIHMMMM@Z" PURGE="32" COMMENT="" />
    <EXPORT ORDINAL="3703" NAME="?cgmProgramUniform4fvEXT@OpenGLErrorChecker@OGL@AIF@@UAEXPBDIIHHPBM@Z" PURGE="24" COMMENT="" />
    <EXPORT ORDINAL="3704" NAME="?cgmProgramUniform4fvEXT@OpenGLRekorder@OGL@AIF@@UAEXPBDIIHHPBM@Z" PURGE="-1" COMMENT="" />
    <EXPORT ORDINAL="3705" NAME="?cgmProgramUniform4fvEXT@OpenGLTracer@OGL@AIF@@UAEXPBDIIHHPBM@Z" PURGE="24" COMMENT="" />
    <EXPORT ORDINAL="3706" NAME="?cgmProgramUniform4iEXT@OpenGLErrorChecker@OGL@AIF@@UAEXPBDIIHHHHH@Z" PURGE="32" COMMENT="" />
    <EXPORT ORDINAL="3707" NAME="?cgmProgramUniform4iEXT@OpenGLRekorder@OGL@AIF@@UAEXPBDIIHHHHH@Z" PURGE="32" COMMENT="" />
    <EXPORT ORDINAL="3708" NAME="?cgmProgramUniform4iEXT@OpenGLTracer@OGL@AIF@@UAEXPBDIIHHHHH@Z" PURGE="32" COMMENT="" />
    <EXPORT ORDINAL="3709" NAME="?cgmProgramUniform4ivEXT@OpenGLErrorChecker@OGL@AIF@@UAEXPBDIIHHPBH@Z" PURGE="24" COMMENT="" />
    <EXPORT ORDINAL="3710" NAME="?cgmProgramUniform4ivEXT@OpenGLRekorder@OGL@AIF@@UAEXPBDIIHHPBH@Z" PURGE="-1" COMMENT="" />
    <EXPORT ORDINAL="3711" NAME="?cgmProgramUniform4ivEXT@OpenGLTracer@OGL@AIF@@UAEXPBDIIHHPBH@Z" PURGE="24" COMMENT="" />
    <EXPORT ORDINAL="3712" NAME="?cgmProgramUniform4uiEXT@OpenGLErrorChecker@OGL@AIF@@UAEXPBDIIHIIII@Z" PURGE="32" COMMENT="" />
    <EXPORT ORDINAL="3713" NAME="?cgmProgramUniform4uiEXT@OpenGLRekorder@OGL@AIF@@UAEXPBDIIHIIII@Z" PURGE="32" COMMENT="" />
    <EXPORT ORDINAL="3714" NAME="?cgmProgramUniform4uiEXT@OpenGLTracer@OGL@AIF@@UAEXPBDIIHIIII@Z" PURGE="32" COMMENT="" />
    <EXPORT ORDINAL="3715" NAME="?cgmProgramUniform4uivEXT@OpenGLErrorChecker@OGL@AIF@@UAEXPBDIIHHPBI@Z" PURGE="24" COMMENT="" />
    <EXPORT ORDINAL="3716" NAME="?cgmProgramUniform4uivEXT@OpenGLRekorder@OGL@AIF@@UAEXPBDIIHHPBI@Z" PURGE="-1" COMMENT="" />
    <EXPORT ORDINAL="3717" NAME="?cgmProgramUniform4uivEXT@OpenGLTracer@OGL@AIF@@UAEXPBDIIHHPBI@Z" PURGE="24" COMMENT="" />
    <EXPORT ORDINAL="3718" NAME="?cgmProgramUniformMatrix2fvEXT@OpenGLErrorChecker@OGL@AIF@@UAEXPBDIIHHEPBM@Z" PURGE="28" COMMENT="" />
    <EXPORT ORDINAL="3719" NAME="?cgmProgramUniformMatrix2fvEXT@OpenGLRekorder@OGL@AIF@@UAEXPBDIIHHEPBM@Z" PURGE="-1" COMMENT="" />
    <EXPORT ORDINAL="3720" NAME="?cgmProgramUniformMatrix2fvEXT@OpenGLTracer@OGL@AIF@@UAEXPBDIIHHEPBM@Z" PURGE="28" COMMENT="" />
    <EXPORT ORDINAL="3721" NAME="?cgmProgramUniformMatrix2x3fvEXT@OpenGLErrorChecker@OGL@AIF@@UAEXPBDIIHHEPBM@Z" PURGE="28" COMMENT="" />
    <EXPORT ORDINAL="3722" NAME="?cgmProgramUniformMatrix2x3fvEXT@OpenGLRekorder@OGL@AIF@@UAEXPBDIIHHEPBM@Z" PURGE="-1" COMMENT="" />
    <EXPORT ORDINAL="3723" NAME="?cgmProgramUniformMatrix2x3fvEXT@OpenGLTracer@OGL@AIF@@UAEXPBDIIHHEPBM@Z" PURGE="28" COMMENT="" />
    <EXPORT ORDINAL="3724" NAME="?cgmProgramUniformMatrix2x4fvEXT@OpenGLErrorChecker@OGL@AIF@@UAEXPBDIIHHEPBM@Z" PURGE="28" COMMENT="" />
    <EXPORT ORDINAL="3725" NAME="?cgmProgramUniformMatrix2x4fvEXT@OpenGLRekorder@OGL@AIF@@UAEXPBDIIHHEPBM@Z" PURGE="-1" COMMENT="" />
    <EXPORT ORDINAL="3726" NAME="?cgmProgramUniformMatrix2x4fvEXT@OpenGLTracer@OGL@AIF@@UAEXPBDIIHHEPBM@Z" PURGE="28" COMMENT="" />
    <EXPORT ORDINAL="3727" NAME="?cgmProgramUniformMatrix3fvEXT@OpenGLErrorChecker@OGL@AIF@@UAEXPBDIIHHEPBM@Z" PURGE="28" COMMENT="" />
    <EXPORT ORDINAL="3728" NAME="?cgmProgramUniformMatrix3fvEXT@OpenGLRekorder@OGL@AIF@@UAEXPBDIIHHEPBM@Z" PURGE="-1" COMMENT="" />
    <EXPORT ORDINAL="3729" NAME="?cgmProgramUniformMatrix3fvEXT@OpenGLTracer@OGL@AIF@@UAEXPBDIIHHEPBM@Z" PURGE="28" COMMENT="" />
    <EXPORT ORDINAL="3730" NAME="?cgmProgramUniformMatrix3x2fvEXT@OpenGLErrorChecker@OGL@AIF@@UAEXPBDIIHHEPBM@Z" PURGE="28" COMMENT="" />
    <EXPORT ORDINAL="3731" NAME="?cgmProgramUniformMatrix3x2fvEXT@OpenGLRekorder@OGL@AIF@@UAEXPBDIIHHEPBM@Z" PURGE="-1" COMMENT="" />
    <EXPORT ORDINAL="3732" NAME="?cgmProgramUniformMatrix3x2fvEXT@OpenGLTracer@OGL@AIF@@UAEXPBDIIHHEPBM@Z" PURGE="28" COMMENT="" />
    <EXPORT ORDINAL="3733" NAME="?cgmProgramUniformMatrix3x4fvEXT@OpenGLErrorChecker@OGL@AIF@@UAEXPBDIIHHEPBM@Z" PURGE="28" COMMENT="" />
    <EXPORT ORDINAL="3734" NAME="?cgmProgramUniformMatrix3x4fvEXT@OpenGLRekorder@OGL@AIF@@UAEXPBDIIHHEPBM@Z" PURGE="-1" COMMENT="" />
    <EXPORT ORDINAL="3735" NAME="?cgmProgramUniformMatrix3x4fvEXT@OpenGLTracer@OGL@AIF@@UAEXPBDIIHHEPBM@Z" PURGE="28" COMMENT="" />
    <EXPORT ORDINAL="3736" NAME="?cgmProgramUniformMatrix4fvEXT@OpenGLErrorChecker@OGL@AIF@@UAEXPBDIIHHEPBM@Z" PURGE="28" COMMENT="" />
    <EXPORT ORDINAL="3737" NAME="?cgmProgramUniformMatrix4fvEXT@OpenGLRekorder@OGL@AIF@@UAEXPBDIIHHEPBM@Z" PURGE="-1" COMMENT="" />
    <EXPORT ORDINAL="3738" NAME="?cgmProgramUniformMatrix4fvEXT@OpenGLTracer@OGL@AIF@@UAEXPBDIIHHEPBM@Z" PURGE="28" COMMENT="" />
    <EXPORT ORDINAL="3739" NAME="?cgmProgramUniformMatrix4x2fvEXT@OpenGLErrorChecker@OGL@AIF@@UAEXPBDIIHHEPBM@Z" PURGE="28" COMMENT="" />
    <EXPORT ORDINAL="3740" NAME="?cgmProgramUniformMatrix4x2fvEXT@OpenGLRekorder@OGL@AIF@@UAEXPBDIIHHEPBM@Z" PURGE="-1" COMMENT="" />
    <EXPORT ORDINAL="3741" NAME="?cgmProgramUniformMatrix4x2fvEXT@OpenGLTracer@OGL@AIF@@UAEXPBDIIHHEPBM@Z" PURGE="28" COMMENT="" />
    <EXPORT ORDINAL="3742" NAME="?cgmProgramUniformMatrix4x3fvEXT@OpenGLErrorChecker@OGL@AIF@@UAEXPBDIIHHEPBM@Z" PURGE="28" COMMENT="" />
    <EXPORT ORDINAL="3743" NAME="?cgmProgramUniformMatrix4x3fvEXT@OpenGLRekorder@OGL@AIF@@UAEXPBDIIHHEPBM@Z" PURGE="-1" COMMENT="" />
    <EXPORT ORDINAL="3744" NAME="?cgmProgramUniformMatrix4x3fvEXT@OpenGLTracer@OGL@AIF@@UAEXPBDIIHHEPBM@Z" PURGE="28" COMMENT="" />
    <EXPORT ORDINAL="3745" NAME="?cgmProgramUniformui64NV@OpenGLErrorChecker@OGL@AIF@@UAEXPBDIIH_K@Z" PURGE="24" COMMENT="" />
    <EXPORT ORDINAL="3746" NAME="?cgmProgramUniformui64NV@OpenGLRekorder@OGL@AIF@@UAEXPBDIIH_K@Z" PURGE="24" COMMENT="" />
    <EXPORT ORDINAL="3747" NAME="?cgmProgramUniformui64NV@OpenGLTracer@OGL@AIF@@UAEXPBDIIH_K@Z" PURGE="24" COMMENT="" />
    <EXPORT ORDINAL="3748" NAME="?cgmProgramUniformui64vNV@OpenGLErrorChecker@OGL@AIF@@UAEXPBDIIHHPA_K@Z" PURGE="24" COMMENT="" />
    <EXPORT ORDINAL="3749" NAME="?cgmProgramUniformui64vNV@OpenGLRekorder@OGL@AIF@@UAEXPBDIIHHPA_K@Z" PURGE="-1" COMMENT="" />
    <EXPORT ORDINAL="3750" NAME="?cgmProgramUniformui64vNV@OpenGLTracer@OGL@AIF@@UAEXPBDIIHHPA_K@Z" PURGE="24" COMMENT="" />
    <EXPORT ORDINAL="3751" NAME="?cgmProgramVertexLimitNV@OpenGLErrorChecker@OGL@AIF@@UAEXPBDIIH@Z" PURGE="16" COMMENT="" />
    <EXPORT ORDINAL="3752" NAME="?cgmProgramVertexLimitNV@OpenGLRekorder@OGL@AIF@@UAEXPBDIIH@Z" PURGE="16" COMMENT="" />
    <EXPORT ORDINAL="3753" NAME="?cgmProgramVertexLimitNV@OpenGLTracer@OGL@AIF@@UAEXPBDIIH@Z" PURGE="16" COMMENT="" />
    <EXPORT ORDINAL="3754" NAME="?cgmPushAttrib@OpenGLErrorChecker@OGL@AIF@@UAEXPBDII@Z" PURGE="12" COMMENT="" />
    <EXPORT ORDINAL="3755" NAME="?cgmPushAttrib@OpenGLRekorder@OGL@AIF@@UAEXPBDII@Z" PURGE="12" COMMENT="" />
    <EXPORT ORDINAL="3756" NAME="?cgmPushAttrib@OpenGLTracer@OGL@AIF@@UAEXPBDII@Z" PURGE="12" COMMENT="" />
    <EXPORT ORDINAL="3757" NAME="?cgmPushClientAttrib@OpenGLErrorChecker@OGL@AIF@@UAEXPBDII@Z" PURGE="12" COMMENT="" />
    <EXPORT ORDINAL="3758" NAME="?cgmPushClientAttrib@OpenGLRekorder@OGL@AIF@@UAEXPBDII@Z" PURGE="12" COMMENT="" />
    <EXPORT ORDINAL="3759" NAME="?cgmPushClientAttrib@OpenGLTracer@OGL@AIF@@UAEXPBDII@Z" PURGE="12" COMMENT="" />
    <EXPORT ORDINAL="3760" NAME="?cgmPushClientAttribDefaultEXT@OpenGLErrorChecker@OGL@AIF@@UAEXPBDII@Z" PURGE="12" COMMENT="" />
    <EXPORT ORDINAL="3761" NAME="?cgmPushClientAttribDefaultEXT@OpenGLRekorder@OGL@AIF@@UAEXPBDII@Z" PURGE="12" COMMENT="" />
    <EXPORT ORDINAL="3762" NAME="?cgmPushClientAttribDefaultEXT@OpenGLTracer@OGL@AIF@@UAEXPBDII@Z" PURGE="12" COMMENT="" />
    <EXPORT ORDINAL="3763" NAME="?cgmPushMatrix@OpenGLErrorChecker@OGL@AIF@@UAEXPBDI@Z" PURGE="8" COMMENT="" />
    <EXPORT ORDINAL="3764" NAME="?cgmPushMatrix@OpenGLRekorder@OGL@AIF@@UAEXPBDI@Z" PURGE="8" COMMENT="" />
    <EXPORT ORDINAL="3765" NAME="?cgmPushMatrix@OpenGLTracer@OGL@AIF@@UAEXPBDI@Z" PURGE="8" COMMENT="" />
    <EXPORT ORDINAL="3766" NAME="?cgmPushName@OpenGLErrorChecker@OGL@AIF@@UAEXPBDII@Z" PURGE="12" COMMENT="" />
    <EXPORT ORDINAL="3767" NAME="?cgmPushName@OpenGLRekorder@OGL@AIF@@UAEXPBDII@Z" PURGE="12" COMMENT="" />
    <EXPORT ORDINAL="3768" NAME="?cgmPushName@OpenGLTracer@OGL@AIF@@UAEXPBDII@Z" PURGE="12" COMMENT="" />
    <EXPORT ORDINAL="3769" NAME="?cgmRasterPos2d@OpenGLErrorChecker@OGL@AIF@@UAEXPBDINN@Z" PURGE="24" COMMENT="" />
    <EXPORT ORDINAL="3770" NAME="?cgmRasterPos2d@OpenGLRekorder@OGL@AIF@@UAEXPBDINN@Z" PURGE="24" COMMENT="" />
    <EXPORT ORDINAL="3771" NAME="?cgmRasterPos2d@OpenGLTracer@OGL@AIF@@UAEXPBDINN@Z" PURGE="24" COMMENT="" />
    <EXPORT ORDINAL="3772" NAME="?cgmRasterPos2dv@OpenGLErrorChecker@OGL@AIF@@UAEXPBDIPBN@Z" PURGE="12" COMMENT="" />
    <EXPORT ORDINAL="3773" NAME="?cgmRasterPos2dv@OpenGLRekorder@OGL@AIF@@UAEXPBDIPBN@Z" PURGE="-1" COMMENT="" />
    <EXPORT ORDINAL="3774" NAME="?cgmRasterPos2dv@OpenGLTracer@OGL@AIF@@UAEXPBDIPBN@Z" PURGE="12" COMMENT="" />
    <EXPORT ORDINAL="3775" NAME="?cgmRasterPos2f@OpenGLErrorChecker@OGL@AIF@@UAEXPBDIMM@Z" PURGE="16" COMMENT="" />
    <EXPORT ORDINAL="3776" NAME="?cgmRasterPos2f@OpenGLRekorder@OGL@AIF@@UAEXPBDIMM@Z" PURGE="16" COMMENT="" />
    <EXPORT ORDINAL="3777" NAME="?cgmRasterPos2f@OpenGLTracer@OGL@AIF@@UAEXPBDIMM@Z" PURGE="16" COMMENT="" />
    <EXPORT ORDINAL="3778" NAME="?cgmRasterPos2fv@OpenGLErrorChecker@OGL@AIF@@UAEXPBDIPBM@Z" PURGE="12" COMMENT="" />
    <EXPORT ORDINAL="3779" NAME="?cgmRasterPos2fv@OpenGLRekorder@OGL@AIF@@UAEXPBDIPBM@Z" PURGE="-1" COMMENT="" />
    <EXPORT ORDINAL="3780" NAME="?cgmRasterPos2fv@OpenGLTracer@OGL@AIF@@UAEXPBDIPBM@Z" PURGE="12" COMMENT="" />
    <EXPORT ORDINAL="3781" NAME="?cgmRasterPos2i@OpenGLErrorChecker@OGL@AIF@@UAEXPBDIHH@Z" PURGE="16" COMMENT="" />
    <EXPORT ORDINAL="3782" NAME="?cgmRasterPos2i@OpenGLRekorder@OGL@AIF@@UAEXPBDIHH@Z" PURGE="16" COMMENT="" />
    <EXPORT ORDINAL="3783" NAME="?cgmRasterPos2i@OpenGLTracer@OGL@AIF@@UAEXPBDIHH@Z" PURGE="16" COMMENT="" />
    <EXPORT ORDINAL="3784" NAME="?cgmRasterPos2iv@OpenGLErrorChecker@OGL@AIF@@UAEXPBDIPBH@Z" PURGE="12" COMMENT="" />
    <EXPORT ORDINAL="3785" NAME="?cgmRasterPos2iv@OpenGLRekorder@OGL@AIF@@UAEXPBDIPBH@Z" PURGE="-1" COMMENT="" />
    <EXPORT ORDINAL="3786" NAME="?cgmRasterPos2iv@OpenGLTracer@OGL@AIF@@UAEXPBDIPBH@Z" PURGE="12" COMMENT="" />
    <EXPORT ORDINAL="3787" NAME="?cgmRasterPos2s@OpenGLErrorChecker@OGL@AIF@@UAEXPBDIFF@Z" PURGE="16" COMMENT="" />
    <EXPORT ORDINAL="3788" NAME="?cgmRasterPos2s@OpenGLRekorder@OGL@AIF@@UAEXPBDIFF@Z" PURGE="16" COMMENT="" />
    <EXPORT ORDINAL="3789" NAME="?cgmRasterPos2s@OpenGLTracer@OGL@AIF@@UAEXPBDIFF@Z" PURGE="16" COMMENT="" />
    <EXPORT ORDINAL="3790" NAME="?cgmRasterPos2sv@OpenGLErrorChecker@OGL@AIF@@UAEXPBDIPBF@Z" PURGE="12" COMMENT="" />
    <EXPORT ORDINAL="3791" NAME="?cgmRasterPos2sv@OpenGLRekorder@OGL@AIF@@UAEXPBDIPBF@Z" PURGE="-1" COMMENT="" />
    <EXPORT ORDINAL="3792" NAME="?cgmRasterPos2sv@OpenGLTracer@OGL@AIF@@UAEXPBDIPBF@Z" PURGE="12" COMMENT="" />
    <EXPORT ORDINAL="3793" NAME="?cgmRasterPos3d@OpenGLErrorChecker@OGL@AIF@@UAEXPBDINNN@Z" PURGE="32" COMMENT="" />
    <EXPORT ORDINAL="3794" NAME="?cgmRasterPos3d@OpenGLRekorder@OGL@AIF@@UAEXPBDINNN@Z" PURGE="32" COMMENT="" />
    <EXPORT ORDINAL="3795" NAME="?cgmRasterPos3d@OpenGLTracer@OGL@AIF@@UAEXPBDINNN@Z" PURGE="32" COMMENT="" />
    <EXPORT ORDINAL="3796" NAME="?cgmRasterPos3dv@OpenGLErrorChecker@OGL@AIF@@UAEXPBDIPBN@Z" PURGE="12" COMMENT="" />
    <EXPORT ORDINAL="3797" NAME="?cgmRasterPos3dv@OpenGLRekorder@OGL@AIF@@UAEXPBDIPBN@Z" PURGE="-1" COMMENT="" />
    <EXPORT ORDINAL="3798" NAME="?cgmRasterPos3dv@OpenGLTracer@OGL@AIF@@UAEXPBDIPBN@Z" PURGE="12" COMMENT="" />
    <EXPORT ORDINAL="3799" NAME="?cgmRasterPos3f@OpenGLErrorChecker@OGL@AIF@@UAEXPBDIMMM@Z" PURGE="20" COMMENT="" />
    <EXPORT ORDINAL="3800" NAME="?cgmRasterPos3f@OpenGLRekorder@OGL@AIF@@UAEXPBDIMMM@Z" PURGE="20" COMMENT="" />
    <EXPORT ORDINAL="3801" NAME="?cgmRasterPos3f@OpenGLTracer@OGL@AIF@@UAEXPBDIMMM@Z" PURGE="20" COMMENT="" />
    <EXPORT ORDINAL="3802" NAME="?cgmRasterPos3fv@OpenGLErrorChecker@OGL@AIF@@UAEXPBDIPBM@Z" PURGE="12" COMMENT="" />
    <EXPORT ORDINAL="3803" NAME="?cgmRasterPos3fv@OpenGLRekorder@OGL@AIF@@UAEXPBDIPBM@Z" PURGE="-1" COMMENT="" />
    <EXPORT ORDINAL="3804" NAME="?cgmRasterPos3fv@OpenGLTracer@OGL@AIF@@UAEXPBDIPBM@Z" PURGE="12" COMMENT="" />
    <EXPORT ORDINAL="3805" NAME="?cgmRasterPos3i@OpenGLErrorChecker@OGL@AIF@@UAEXPBDIHHH@Z" PURGE="20" COMMENT="" />
    <EXPORT ORDINAL="3806" NAME="?cgmRasterPos3i@OpenGLRekorder@OGL@AIF@@UAEXPBDIHHH@Z" PURGE="20" COMMENT="" />
    <EXPORT ORDINAL="3807" NAME="?cgmRasterPos3i@OpenGLTracer@OGL@AIF@@UAEXPBDIHHH@Z" PURGE="20" COMMENT="" />
    <EXPORT ORDINAL="3808" NAME="?cgmRasterPos3iv@OpenGLErrorChecker@OGL@AIF@@UAEXPBDIPBH@Z" PURGE="12" COMMENT="" />
    <EXPORT ORDINAL="3809" NAME="?cgmRasterPos3iv@OpenGLRekorder@OGL@AIF@@UAEXPBDIPBH@Z" PURGE="-1" COMMENT="" />
    <EXPORT ORDINAL="3810" NAME="?cgmRasterPos3iv@OpenGLTracer@OGL@AIF@@UAEXPBDIPBH@Z" PURGE="12" COMMENT="" />
    <EXPORT ORDINAL="3811" NAME="?cgmRasterPos3s@OpenGLErrorChecker@OGL@AIF@@UAEXPBDIFFF@Z" PURGE="20" COMMENT="" />
    <EXPORT ORDINAL="3812" NAME="?cgmRasterPos3s@OpenGLRekorder@OGL@AIF@@UAEXPBDIFFF@Z" PURGE="20" COMMENT="" />
    <EXPORT ORDINAL="3813" NAME="?cgmRasterPos3s@OpenGLTracer@OGL@AIF@@UAEXPBDIFFF@Z" PURGE="20" COMMENT="" />
    <EXPORT ORDINAL="3814" NAME="?cgmRasterPos3sv@OpenGLErrorChecker@OGL@AIF@@UAEXPBDIPBF@Z" PURGE="12" COMMENT="" />
    <EXPORT ORDINAL="3815" NAME="?cgmRasterPos3sv@OpenGLRekorder@OGL@AIF@@UAEXPBDIPBF@Z" PURGE="-1" COMMENT="" />
    <EXPORT ORDINAL="3816" NAME="?cgmRasterPos3sv@OpenGLTracer@OGL@AIF@@UAEXPBDIPBF@Z" PURGE="12" COMMENT="" />
    <EXPORT ORDINAL="3817" NAME="?cgmRasterPos4d@OpenGLErrorChecker@OGL@AIF@@UAEXPBDINNNN@Z" PURGE="40" COMMENT="" />
    <EXPORT ORDINAL="3818" NAME="?cgmRasterPos4d@OpenGLRekorder@OGL@AIF@@UAEXPBDINNNN@Z" PURGE="40" COMMENT="" />
    <EXPORT ORDINAL="3819" NAME="?cgmRasterPos4d@OpenGLTracer@OGL@AIF@@UAEXPBDINNNN@Z" PURGE="40" COMMENT="" />
    <EXPORT ORDINAL="3820" NAME="?cgmRasterPos4dv@OpenGLErrorChecker@OGL@AIF@@UAEXPBDIPBN@Z" PURGE="12" COMMENT="" />
    <EXPORT ORDINAL="3821" NAME="?cgmRasterPos4dv@OpenGLRekorder@OGL@AIF@@UAEXPBDIPBN@Z" PURGE="-1" COMMENT="" />
    <EXPORT ORDINAL="3822" NAME="?cgmRasterPos4dv@OpenGLTracer@OGL@AIF@@UAEXPBDIPBN@Z" PURGE="12" COMMENT="" />
    <EXPORT ORDINAL="3823" NAME="?cgmRasterPos4f@OpenGLErrorChecker@OGL@AIF@@UAEXPBDIMMMM@Z" PURGE="24" COMMENT="" />
    <EXPORT ORDINAL="3824" NAME="?cgmRasterPos4f@OpenGLRekorder@OGL@AIF@@UAEXPBDIMMMM@Z" PURGE="24" COMMENT="" />
    <EXPORT ORDINAL="3825" NAME="?cgmRasterPos4f@OpenGLTracer@OGL@AIF@@UAEXPBDIMMMM@Z" PURGE="24" COMMENT="" />
    <EXPORT ORDINAL="3826" NAME="?cgmRasterPos4fv@OpenGLErrorChecker@OGL@AIF@@UAEXPBDIPBM@Z" PURGE="12" COMMENT="" />
    <EXPORT ORDINAL="3827" NAME="?cgmRasterPos4fv@OpenGLRekorder@OGL@AIF@@UAEXPBDIPBM@Z" PURGE="-1" COMMENT="" />
    <EXPORT ORDINAL="3828" NAME="?cgmRasterPos4fv@OpenGLTracer@OGL@AIF@@UAEXPBDIPBM@Z" PURGE="12" COMMENT="" />
    <EXPORT ORDINAL="3829" NAME="?cgmRasterPos4i@OpenGLErrorChecker@OGL@AIF@@UAEXPBDIHHHH@Z" PURGE="24" COMMENT="" />
    <EXPORT ORDINAL="3830" NAME="?cgmRasterPos4i@OpenGLRekorder@OGL@AIF@@UAEXPBDIHHHH@Z" PURGE="24" COMMENT="" />
    <EXPORT ORDINAL="3831" NAME="?cgmRasterPos4i@OpenGLTracer@OGL@AIF@@UAEXPBDIHHHH@Z" PURGE="24" COMMENT="" />
    <EXPORT ORDINAL="3832" NAME="?cgmRasterPos4iv@OpenGLErrorChecker@OGL@AIF@@UAEXPBDIPBH@Z" PURGE="12" COMMENT="" />
    <EXPORT ORDINAL="3833" NAME="?cgmRasterPos4iv@OpenGLRekorder@OGL@AIF@@UAEXPBDIPBH@Z" PURGE="-1" COMMENT="" />
    <EXPORT ORDINAL="3834" NAME="?cgmRasterPos4iv@OpenGLTracer@OGL@AIF@@UAEXPBDIPBH@Z" PURGE="12" COMMENT="" />
    <EXPORT ORDINAL="3835" NAME="?cgmRasterPos4s@OpenGLErrorChecker@OGL@AIF@@UAEXPBDIFFFF@Z" PURGE="24" COMMENT="" />
    <EXPORT ORDINAL="3836" NAME="?cgmRasterPos4s@OpenGLRekorder@OGL@AIF@@UAEXPBDIFFFF@Z" PURGE="24" COMMENT="" />
    <EXPORT ORDINAL="3837" NAME="?cgmRasterPos4s@OpenGLTracer@OGL@AIF@@UAEXPBDIFFFF@Z" PURGE="24" COMMENT="" />
    <EXPORT ORDINAL="3838" NAME="?cgmRasterPos4sv@OpenGLErrorChecker@OGL@AIF@@UAEXPBDIPBF@Z" PURGE="12" COMMENT="" />
    <EXPORT ORDINAL="3839" NAME="?cgmRasterPos4sv@OpenGLRekorder@OGL@AIF@@UAEXPBDIPBF@Z" PURGE="-1" COMMENT="" />
    <EXPORT ORDINAL="3840" NAME="?cgmRasterPos4sv@OpenGLTracer@OGL@AIF@@UAEXPBDIPBF@Z" PURGE="12" COMMENT="" />
    <EXPORT ORDINAL="3841" NAME="?cgmReadBuffer@OpenGLErrorChecker@OGL@AIF@@UAEXPBDII@Z" PURGE="12" COMMENT="" />
    <EXPORT ORDINAL="3842" NAME="?cgmReadBuffer@OpenGLRekorder@OGL@AIF@@UAEXPBDII@Z" PURGE="12" COMMENT="" />
    <EXPORT ORDINAL="3843" NAME="?cgmReadBuffer@OpenGLTracer@OGL@AIF@@UAEXPBDII@Z" PURGE="12" COMMENT="" />
    <EXPORT ORDINAL="3844" NAME="?cgmReadBufferRegionEXT@OpenGLErrorChecker@OGL@AIF@@UAEXPBDIIHHHH@Z" PURGE="28" COMMENT="" />
    <EXPORT ORDINAL="3845" NAME="?cgmReadBufferRegionEXT@OpenGLRekorder@OGL@AIF@@UAEXPBDIIHHHH@Z" PURGE="28" COMMENT="" />
    <EXPORT ORDINAL="3846" NAME="?cgmReadBufferRegionEXT@OpenGLTracer@OGL@AIF@@UAEXPBDIIHHHH@Z" PURGE="28" COMMENT="" />
    <EXPORT ORDINAL="3847" NAME="?cgmReadPixels@OpenGLErrorChecker@OGL@AIF@@UAEXPBDIHHHHIIPAX@Z" PURGE="36" COMMENT="" />
    <EXPORT ORDINAL="3848" NAME="?cgmReadPixels@OpenGLRekorder@OGL@AIF@@UAEXPBDIHHHHIIPAX@Z" PURGE="36" COMMENT="" />
    <EXPORT ORDINAL="3849" NAME="?cgmReadPixels@OpenGLTracer@OGL@AIF@@UAEXPBDIHHHHIIPAX@Z" PURGE="36" COMMENT="" />
    <EXPORT ORDINAL="3850" NAME="?cgmReadVideoPixelsSUN@OpenGLErrorChecker@OGL@AIF@@UAEXPBDIHHHHIIPAX@Z" PURGE="36" COMMENT="" />
    <EXPORT ORDINAL="3851" NAME="?cgmReadVideoPixelsSUN@OpenGLRekorder@OGL@AIF@@UAEXPBDIHHHHIIPAX@Z" PURGE="-1" COMMENT="" />
    <EXPORT ORDINAL="3852" NAME="?cgmReadVideoPixelsSUN@OpenGLTracer@OGL@AIF@@UAEXPBDIHHHHIIPAX@Z" PURGE="36" COMMENT="" />
    <EXPORT ORDINAL="3853" NAME="?cgmRectd@OpenGLErrorChecker@OGL@AIF@@UAEXPBDINNNN@Z" PURGE="40" COMMENT="" />
    <EXPORT ORDINAL="3854" NAME="?cgmRectd@OpenGLRekorder@OGL@AIF@@UAEXPBDINNNN@Z" PURGE="40" COMMENT="" />
    <EXPORT ORDINAL="3855" NAME="?cgmRectd@OpenGLTracer@OGL@AIF@@UAEXPBDINNNN@Z" PURGE="40" COMMENT="" />
    <EXPORT ORDINAL="3856" NAME="?cgmRectdv@OpenGLErrorChecker@OGL@AIF@@UAEXPBDIPBN1@Z" PURGE="16" COMMENT="" />
    <EXPORT ORDINAL="3857" NAME="?cgmRectdv@OpenGLRekorder@OGL@AIF@@UAEXPBDIPBN1@Z" PURGE="-1" COMMENT="" />
    <EXPORT ORDINAL="3858" NAME="?cgmRectdv@OpenGLTracer@OGL@AIF@@UAEXPBDIPBN1@Z" PURGE="16" COMMENT="" />
    <EXPORT ORDINAL="3859" NAME="?cgmRectf@OpenGLErrorChecker@OGL@AIF@@UAEXPBDIMMMM@Z" PURGE="24" COMMENT="" />
    <EXPORT ORDINAL="3860" NAME="?cgmRectf@OpenGLRekorder@OGL@AIF@@UAEXPBDIMMMM@Z" PURGE="24" COMMENT="" />
    <EXPORT ORDINAL="3861" NAME="?cgmRectf@OpenGLTracer@OGL@AIF@@UAEXPBDIMMMM@Z" PURGE="24" COMMENT="" />
    <EXPORT ORDINAL="3862" NAME="?cgmRectfv@OpenGLErrorChecker@OGL@AIF@@UAEXPBDIPBM1@Z" PURGE="16" COMMENT="" />
    <EXPORT ORDINAL="3863" NAME="?cgmRectfv@OpenGLRekorder@OGL@AIF@@UAEXPBDIPBM1@Z" PURGE="-1" COMMENT="" />
    <EXPORT ORDINAL="3864" NAME="?cgmRectfv@OpenGLTracer@OGL@AIF@@UAEXPBDIPBM1@Z" PURGE="16" COMMENT="" />
    <EXPORT ORDINAL="3865" NAME="?cgmRecti@OpenGLErrorChecker@OGL@AIF@@UAEXPBDIHHHH@Z" PURGE="24" COMMENT="" />
    <EXPORT ORDINAL="3866" NAME="?cgmRecti@OpenGLRekorder@OGL@AIF@@UAEXPBDIHHHH@Z" PURGE="24" COMMENT="" />
    <EXPORT ORDINAL="3867" NAME="?cgmRecti@OpenGLTracer@OGL@AIF@@UAEXPBDIHHHH@Z" PURGE="24" COMMENT="" />
    <EXPORT ORDINAL="3868" NAME="?cgmRectiv@OpenGLErrorChecker@OGL@AIF@@UAEXPBDIPBH1@Z" PURGE="16" COMMENT="" />
    <EXPORT ORDINAL="3869" NAME="?cgmRectiv@OpenGLRekorder@OGL@AIF@@UAEXPBDIPBH1@Z" PURGE="-1" COMMENT="" />
    <EXPORT ORDINAL="3870" NAME="?cgmRectiv@OpenGLTracer@OGL@AIF@@UAEXPBDIPBH1@Z" PURGE="16" COMMENT="" />
    <EXPORT ORDINAL="3871" NAME="?cgmRects@OpenGLErrorChecker@OGL@AIF@@UAEXPBDIFFFF@Z" PURGE="24" COMMENT="" />
    <EXPORT ORDINAL="3872" NAME="?cgmRects@OpenGLRekorder@OGL@AIF@@UAEXPBDIFFFF@Z" PURGE="24" COMMENT="" />
    <EXPORT ORDINAL="3873" NAME="?cgmRects@OpenGLTracer@OGL@AIF@@UAEXPBDIFFFF@Z" PURGE="24" COMMENT="" />
    <EXPORT ORDINAL="3874" NAME="?cgmRectsv@OpenGLErrorChecker@OGL@AIF@@UAEXPBDIPBF1@Z" PURGE="16" COMMENT="" />
    <EXPORT ORDINAL="3875" NAME="?cgmRectsv@OpenGLRekorder@OGL@AIF@@UAEXPBDIPBF1@Z" PURGE="-1" COMMENT="" />
    <EXPORT ORDINAL="3876" NAME="?cgmRectsv@OpenGLTracer@OGL@AIF@@UAEXPBDIPBF1@Z" PURGE="16" COMMENT="" />
    <EXPORT ORDINAL="3877" NAME="?cgmReferencePlaneSGIX@OpenGLErrorChecker@OGL@AIF@@UAEXPBDIPBN@Z" PURGE="12" COMMENT="" />
    <EXPORT ORDINAL="3878" NAME="?cgmReferencePlaneSGIX@OpenGLRekorder@OGL@AIF@@UAEXPBDIPBN@Z" PURGE="-1" COMMENT="" />
    <EXPORT ORDINAL="3879" NAME="?cgmReferencePlaneSGIX@OpenGLTracer@OGL@AIF@@UAEXPBDIPBN@Z" PURGE="12" COMMENT="" />
    <EXPORT ORDINAL="3880" NAME="?cgmRenderMode@OpenGLErrorChecker@OGL@AIF@@UAEHPBDII@Z" PURGE="12" COMMENT="" />
    <EXPORT ORDINAL="3881" NAME="?cgmRenderMode@OpenGLRekorder@OGL@AIF@@UAEHPBDII@Z" PURGE="12" COMMENT="" />
    <EXPORT ORDINAL="3882" NAME="?cgmRenderMode@OpenGLTracer@OGL@AIF@@UAEHPBDII@Z" PURGE="12" COMMENT="" />
    <EXPORT ORDINAL="3883" NAME="?cgmRenderbufferStorage@OpenGLErrorChecker@OGL@AIF@@UAEXPBDIIIHH@Z" PURGE="24" COMMENT="" />
    <EXPORT ORDINAL="3884" NAME="?cgmRenderbufferStorage@OpenGLRekorder@OGL@AIF@@UAEXPBDIIIHH@Z" PURGE="24" COMMENT="" />
    <EXPORT ORDINAL="3885" NAME="?cgmRenderbufferStorage@OpenGLTracer@OGL@AIF@@UAEXPBDIIIHH@Z" PURGE="24" COMMENT="" />
    <EXPORT ORDINAL="3886" NAME="?cgmRenderbufferStorageEXT@OpenGLErrorChecker@OGL@AIF@@UAEXPBDIIIHH@Z" PURGE="24" COMMENT="" />
    <EXPORT ORDINAL="3887" NAME="?cgmRenderbufferStorageEXT@OpenGLRekorder@OGL@AIF@@UAEXPBDIIIHH@Z" PURGE="24" COMMENT="" />
    <EXPORT ORDINAL="3888" NAME="?cgmRenderbufferStorageEXT@OpenGLTracer@OGL@AIF@@UAEXPBDIIIHH@Z" PURGE="24" COMMENT="" />
    <EXPORT ORDINAL="3889" NAME="?cgmRenderbufferStorageMultisample@OpenGLErrorChecker@OGL@AIF@@UAEXPBDIIHIHH@Z" PURGE="28" COMMENT="" />
    <EXPORT ORDINAL="3890" NAME="?cgmRenderbufferStorageMultisample@OpenGLRekorder@OGL@AIF@@UAEXPBDIIHIHH@Z" PURGE="28" COMMENT="" />
    <EXPORT ORDINAL="3891" NAME="?cgmRenderbufferStorageMultisample@OpenGLTracer@OGL@AIF@@UAEXPBDIIHIHH@Z" PURGE="28" COMMENT="" />
    <EXPORT ORDINAL="3892" NAME="?cgmRenderbufferStorageMultisampleCoverageNV@OpenGLErrorChecker@OGL@AIF@@UAEXPBDIIHHIHH@Z" PURGE="32" COMMENT="" />
    <EXPORT ORDINAL="3893" NAME="?cgmRenderbufferStorageMultisampleCoverageNV@OpenGLRekorder@OGL@AIF@@UAEXPBDIIHHIHH@Z" PURGE="32" COMMENT="" />
    <EXPORT ORDINAL="3894" NAME="?cgmRenderbufferStorageMultisampleCoverageNV@OpenGLTracer@OGL@AIF@@UAEXPBDIIHHIHH@Z" PURGE="32" COMMENT="" />
    <EXPORT ORDINAL="3895" NAME="?cgmRenderbufferStorageMultisampleEXT@OpenGLErrorChecker@OGL@AIF@@UAEXPBDIIHIHH@Z" PURGE="28" COMMENT="" />
    <EXPORT ORDINAL="3896" NAME="?cgmRenderbufferStorageMultisampleEXT@OpenGLRekorder@OGL@AIF@@UAEXPBDIIHIHH@Z" PURGE="28" COMMENT="" />
    <EXPORT ORDINAL="3897" NAME="?cgmRenderbufferStorageMultisampleEXT@OpenGLTracer@OGL@AIF@@UAEXPBDIIHIHH@Z" PURGE="28" COMMENT="" />
    <EXPORT ORDINAL="3898" NAME="?cgmReplacementCodePointerSUN@OpenGLErrorChecker@OGL@AIF@@UAEXPBDIIHPBX@Z" PURGE="20" COMMENT="" />
    <EXPORT ORDINAL="3899" NAME="?cgmReplacementCodePointerSUN@OpenGLRekorder@OGL@AIF@@UAEXPBDIIHPBX@Z" PURGE="-1" COMMENT="" />
    <EXPORT ORDINAL="3900" NAME="?cgmReplacementCodePointerSUN@OpenGLTracer@OGL@AIF@@UAEXPBDIIHPBX@Z" PURGE="20" COMMENT="" />
    <EXPORT ORDINAL="3901" NAME="?cgmReplacementCodeubSUN@OpenGLErrorChecker@OGL@AIF@@UAEXPBDIE@Z" PURGE="12" COMMENT="" />
    <EXPORT ORDINAL="3902" NAME="?cgmReplacementCodeubSUN@OpenGLRekorder@OGL@AIF@@UAEXPBDIE@Z" PURGE="12" COMMENT="" />
    <EXPORT ORDINAL="3903" NAME="?cgmReplacementCodeubSUN@OpenGLTracer@OGL@AIF@@UAEXPBDIE@Z" PURGE="12" COMMENT="" />
    <EXPORT ORDINAL="3904" NAME="?cgmReplacementCodeubvSUN@OpenGLErrorChecker@OGL@AIF@@UAEXPBDIPBE@Z" PURGE="12" COMMENT="" />
    <EXPORT ORDINAL="3905" NAME="?cgmReplacementCodeubvSUN@OpenGLRekorder@OGL@AIF@@UAEXPBDIPBE@Z" PURGE="-1" COMMENT="" />
    <EXPORT ORDINAL="3906" NAME="?cgmReplacementCodeubvSUN@OpenGLTracer@OGL@AIF@@UAEXPBDIPBE@Z" PURGE="12" COMMENT="" />
    <EXPORT ORDINAL="3907" NAME="?cgmReplacementCodeuiColor3fVertex3fSUN@OpenGLErrorChecker@OGL@AIF@@UAEXPBDIIMMMMMM@Z" PURGE="36" COMMENT="" />
    <EXPORT ORDINAL="3908" NAME="?cgmReplacementCodeuiColor3fVertex3fSUN@OpenGLRekorder@OGL@AIF@@UAEXPBDIIMMMMMM@Z" PURGE="36" COMMENT="" />
    <EXPORT ORDINAL="3909" NAME="?cgmReplacementCodeuiColor3fVertex3fSUN@OpenGLTracer@OGL@AIF@@UAEXPBDIIMMMMMM@Z" PURGE="36" COMMENT="" />
    <EXPORT ORDINAL="3910" NAME="?cgmReplacementCodeuiColor3fVertex3fvSUN@OpenGLErrorChecker@OGL@AIF@@UAEXPBDIPBIPBM2@Z" PURGE="20" COMMENT="" />
    <EXPORT ORDINAL="3911" NAME="?cgmReplacementCodeuiColor3fVertex3fvSUN@OpenGLRekorder@OGL@AIF@@UAEXPBDIPBIPBM2@Z" PURGE="-1" COMMENT="" />
    <EXPORT ORDINAL="3912" NAME="?cgmReplacementCodeuiColor3fVertex3fvSUN@OpenGLTracer@OGL@AIF@@UAEXPBDIPBIPBM2@Z" PURGE="20" COMMENT="" />
    <EXPORT ORDINAL="3913" NAME="?cgmReplacementCodeuiColor4fNormal3fVertex3fSUN@OpenGLErrorChecker@OGL@AIF@@UAEXPBDIIMMMMMMMMMM@Z" PURGE="52" COMMENT="" />
    <EXPORT ORDINAL="3914" NAME="?cgmReplacementCodeuiColor4fNormal3fVertex3fSUN@OpenGLRekorder@OGL@AIF@@UAEXPBDIIMMMMMMMMMM@Z" PURGE="52" COMMENT="" />
    <EXPORT ORDINAL="3915" NAME="?cgmReplacementCodeuiColor4fNormal3fVertex3fSUN@OpenGLTracer@OGL@AIF@@UAEXPBDIIMMMMMMMMMM@Z" PURGE="52" COMMENT="" />
    <EXPORT ORDINAL="3916" NAME="?cgmReplacementCodeuiColor4fNormal3fVertex3fvSUN@OpenGLErrorChecker@OGL@AIF@@UAEXPBDIPBIPBM22@Z" PURGE="24" COMMENT="" />
    <EXPORT ORDINAL="3917" NAME="?cgmReplacementCodeuiColor4fNormal3fVertex3fvSUN@OpenGLRekorder@OGL@AIF@@UAEXPBDIPBIPBM22@Z" PURGE="-1" COMMENT="" />
    <EXPORT ORDINAL="3918" NAME="?cgmReplacementCodeuiColor4fNormal3fVertex3fvSUN@OpenGLTracer@OGL@AIF@@UAEXPBDIPBIPBM22@Z" PURGE="24" COMMENT="" />
    <EXPORT ORDINAL="3919" NAME="?cgmReplacementCodeuiColor4ubVertex3fSUN@OpenGLErrorChecker@OGL@AIF@@UAEXPBDIIEEEEMMM@Z" PURGE="40" COMMENT="" />
    <EXPORT ORDINAL="3920" NAME="?cgmReplacementCodeuiColor4ubVertex3fSUN@OpenGLRekorder@OGL@AIF@@UAEXPBDIIEEEEMMM@Z" PURGE="40" COMMENT="" />
    <EXPORT ORDINAL="3921" NAME="?cgmReplacementCodeuiColor4ubVertex3fSUN@OpenGLTracer@OGL@AIF@@UAEXPBDIIEEEEMMM@Z" PURGE="40" COMMENT="" />
    <EXPORT ORDINAL="3922" NAME="?cgmReplacementCodeuiColor4ubVertex3fvSUN@OpenGLErrorChecker@OGL@AIF@@UAEXPBDIPBIPBEPBM@Z" PURGE="20" COMMENT="" />
    <EXPORT ORDINAL="3923" NAME="?cgmReplacementCodeuiColor4ubVertex3fvSUN@OpenGLRekorder@OGL@AIF@@UAEXPBDIPBIPBEPBM@Z" PURGE="-1" COMMENT="" />
    <EXPORT ORDINAL="3924" NAME="?cgmReplacementCodeuiColor4ubVertex3fvSUN@OpenGLTracer@OGL@AIF@@UAEXPBDIPBIPBEPBM@Z" PURGE="20" COMMENT="" />
    <EXPORT ORDINAL="3925" NAME="?cgmReplacementCodeuiNormal3fVertex3fSUN@OpenGLErrorChecker@OGL@AIF@@UAEXPBDIIMMMMMM@Z" PURGE="36" COMMENT="" />
    <EXPORT ORDINAL="3926" NAME="?cgmReplacementCodeuiNormal3fVertex3fSUN@OpenGLRekorder@OGL@AIF@@UAEXPBDIIMMMMMM@Z" PURGE="36" COMMENT="" />
    <EXPORT ORDINAL="3927" NAME="?cgmReplacementCodeuiNormal3fVertex3fSUN@OpenGLTracer@OGL@AIF@@UAEXPBDIIMMMMMM@Z" PURGE="36" COMMENT="" />
    <EXPORT ORDINAL="3928" NAME="?cgmReplacementCodeuiNormal3fVertex3fvSUN@OpenGLErrorChecker@OGL@AIF@@UAEXPBDIPBIPBM2@Z" PURGE="20" COMMENT="" />
    <EXPORT ORDINAL="3929" NAME="?cgmReplacementCodeuiNormal3fVertex3fvSUN@OpenGLRekorder@OGL@AIF@@UAEXPBDIPBIPBM2@Z" PURGE="-1" COMMENT="" />
    <EXPORT ORDINAL="3930" NAME="?cgmReplacementCodeuiNormal3fVertex3fvSUN@OpenGLTracer@OGL@AIF@@UAEXPBDIPBIPBM2@Z" PURGE="20" COMMENT="" />
    <EXPORT ORDINAL="3931" NAME="?cgmReplacementCodeuiSUN@OpenGLErrorChecker@OGL@AIF@@UAEXPBDII@Z" PURGE="12" COMMENT="" />
    <EXPORT ORDINAL="3932" NAME="?cgmReplacementCodeuiSUN@OpenGLRekorder@OGL@AIF@@UAEXPBDII@Z" PURGE="12" COMMENT="" />
    <EXPORT ORDINAL="3933" NAME="?cgmReplacementCodeuiSUN@OpenGLTracer@OGL@AIF@@UAEXPBDII@Z" PURGE="12" COMMENT="" />
    <EXPORT ORDINAL="3934" NAME="?cgmReplacementCodeuiTexCoord2fColor4fNormal3fVertex3fSUN@OpenGLErrorChecker@OGL@AIF@@UAEXPBDIIMMMMMMMMMMMM@Z" PURGE="60" COMMENT="" />
    <EXPORT ORDINAL="3935" NAME="?cgmReplacementCodeuiTexCoord2fColor4fNormal3fVertex3fSUN@OpenGLRekorder@OGL@AIF@@UAEXPBDIIMMMMMMMMMMMM@Z" PURGE="60" COMMENT="" />
    <EXPORT ORDINAL="3936" NAME="?cgmReplacementCodeuiTexCoord2fColor4fNormal3fVertex3fSUN@OpenGLTracer@OGL@AIF@@UAEXPBDIIMMMMMMMMMMMM@Z" PURGE="60" COMMENT="" />
    <EXPORT ORDINAL="3937" NAME="?cgmReplacementCodeuiTexCoord2fColor4fNormal3fVertex3fvSUN@OpenGLErrorChecker@OGL@AIF@@UAEXPBDIPBIPBM222@Z" PURGE="28" COMMENT="" />
    <EXPORT ORDINAL="3938" NAME="?cgmReplacementCodeuiTexCoord2fColor4fNormal3fVertex3fvSUN@OpenGLRekorder@OGL@AIF@@UAEXPBDIPBIPBM222@Z" PURGE="-1" COMMENT="" />
    <EXPORT ORDINAL="3939" NAME="?cgmReplacementCodeuiTexCoord2fColor4fNormal3fVertex3fvSUN@OpenGLTracer@OGL@AIF@@UAEXPBDIPBIPBM222@Z" PURGE="28" COMMENT="" />
    <EXPORT ORDINAL="3940" NAME="?cgmReplacementCodeuiTexCoord2fNormal3fVertex3fSUN@OpenGLErrorChecker@OGL@AIF@@UAEXPBDIIMMMMMMMM@Z" PURGE="44" COMMENT="" />
    <EXPORT ORDINAL="3941" NAME="?cgmReplacementCodeuiTexCoord2fNormal3fVertex3fSUN@OpenGLRekorder@OGL@AIF@@UAEXPBDIIMMMMMMMM@Z" PURGE="44" COMMENT="" />
    <EXPORT ORDINAL="3942" NAME="?cgmReplacementCodeuiTexCoord2fNormal3fVertex3fSUN@OpenGLTracer@OGL@AIF@@UAEXPBDIIMMMMMMMM@Z" PURGE="44" COMMENT="" />
    <EXPORT ORDINAL="3943" NAME="?cgmReplacementCodeuiTexCoord2fNormal3fVertex3fvSUN@OpenGLErrorChecker@OGL@AIF@@UAEXPBDIPBIPBM22@Z" PURGE="24" COMMENT="" />
    <EXPORT ORDINAL="3944" NAME="?cgmReplacementCodeuiTexCoord2fNormal3fVertex3fvSUN@OpenGLRekorder@OGL@AIF@@UAEXPBDIPBIPBM22@Z" PURGE="-1" COMMENT="" />
    <EXPORT ORDINAL="3945" NAME="?cgmReplacementCodeuiTexCoord2fNormal3fVertex3fvSUN@OpenGLTracer@OGL@AIF@@UAEXPBDIPBIPBM22@Z" PURGE="24" COMMENT="" />
    <EXPORT ORDINAL="3946" NAME="?cgmReplacementCodeuiTexCoord2fVertex3fSUN@OpenGLErrorChecker@OGL@AIF@@UAEXPBDIIMMMMM@Z" PURGE="32" COMMENT="" />
    <EXPORT ORDINAL="3947" NAME="?cgmReplacementCodeuiTexCoord2fVertex3fSUN@OpenGLRekorder@OGL@AIF@@UAEXPBDIIMMMMM@Z" PURGE="32" COMMENT="" />
    <EXPORT ORDINAL="3948" NAME="?cgmReplacementCodeuiTexCoord2fVertex3fSUN@OpenGLTracer@OGL@AIF@@UAEXPBDIIMMMMM@Z" PURGE="32" COMMENT="" />
    <EXPORT ORDINAL="3949" NAME="?cgmReplacementCodeuiTexCoord2fVertex3fvSUN@OpenGLErrorChecker@OGL@AIF@@UAEXPBDIPBIPBM2@Z" PURGE="20" COMMENT="" />
    <EXPORT ORDINAL="3950" NAME="?cgmReplacementCodeuiTexCoord2fVertex3fvSUN@OpenGLRekorder@OGL@AIF@@UAEXPBDIPBIPBM2@Z" PURGE="-1" COMMENT="" />
    <EXPORT ORDINAL="3951" NAME="?cgmReplacementCodeuiTexCoord2fVertex3fvSUN@OpenGLTracer@OGL@AIF@@UAEXPBDIPBIPBM2@Z" PURGE="20" COMMENT="" />
    <EXPORT ORDINAL="3952" NAME="?cgmReplacementCodeuiVertex3fSUN@OpenGLErrorChecker@OGL@AIF@@UAEXPBDIIMMM@Z" PURGE="24" COMMENT="" />
    <EXPORT ORDINAL="3953" NAME="?cgmReplacementCodeuiVertex3fSUN@OpenGLRekorder@OGL@AIF@@UAEXPBDIIMMM@Z" PURGE="24" COMMENT="" />
    <EXPORT ORDINAL="3954" NAME="?cgmReplacementCodeuiVertex3fSUN@OpenGLTracer@OGL@AIF@@UAEXPBDIIMMM@Z" PURGE="24" COMMENT="" />
    <EXPORT ORDINAL="3955" NAME="?cgmReplacementCodeuiVertex3fvSUN@OpenGLErrorChecker@OGL@AIF@@UAEXPBDIPBIPBM@Z" PURGE="16" COMMENT="" />
    <EXPORT ORDINAL="3956" NAME="?cgmReplacementCodeuiVertex3fvSUN@OpenGLRekorder@OGL@AIF@@UAEXPBDIPBIPBM@Z" PURGE="-1" COMMENT="" />
    <EXPORT ORDINAL="3957" NAME="?cgmReplacementCodeuiVertex3fvSUN@OpenGLTracer@OGL@AIF@@UAEXPBDIPBIPBM@Z" PURGE="16" COMMENT="" />
    <EXPORT ORDINAL="3958" NAME="?cgmReplacementCodeuivSUN@OpenGLErrorChecker@OGL@AIF@@UAEXPBDIPBI@Z" PURGE="12" COMMENT="" />
    <EXPORT ORDINAL="3959" NAME="?cgmReplacementCodeuivSUN@OpenGLRekorder@OGL@AIF@@UAEXPBDIPBI@Z" PURGE="-1" COMMENT="" />
    <EXPORT ORDINAL="3960" NAME="?cgmReplacementCodeuivSUN@OpenGLTracer@OGL@AIF@@UAEXPBDIPBI@Z" PURGE="12" COMMENT="" />
    <EXPORT ORDINAL="3961" NAME="?cgmReplacementCodeusSUN@OpenGLErrorChecker@OGL@AIF@@UAEXPBDIG@Z" PURGE="12" COMMENT="" />
    <EXPORT ORDINAL="3962" NAME="?cgmReplacementCodeusSUN@OpenGLRekorder@OGL@AIF@@UAEXPBDIG@Z" PURGE="12" COMMENT="" />
    <EXPORT ORDINAL="3963" NAME="?cgmReplacementCodeusSUN@OpenGLTracer@OGL@AIF@@UAEXPBDIG@Z" PURGE="12" COMMENT="" />
    <EXPORT ORDINAL="3964" NAME="?cgmReplacementCodeusvSUN@OpenGLErrorChecker@OGL@AIF@@UAEXPBDIPBG@Z" PURGE="12" COMMENT="" />
    <EXPORT ORDINAL="3965" NAME="?cgmReplacementCodeusvSUN@OpenGLRekorder@OGL@AIF@@UAEXPBDIPBG@Z" PURGE="-1" COMMENT="" />
    <EXPORT ORDINAL="3966" NAME="?cgmReplacementCodeusvSUN@OpenGLTracer@OGL@AIF@@UAEXPBDIPBG@Z" PURGE="12" COMMENT="" />
    <EXPORT ORDINAL="3967" NAME="?cgmRequestResidentProgramsNV@OpenGLErrorChecker@OGL@AIF@@UAEXPBDIHPAI@Z" PURGE="16" COMMENT="" />
    <EXPORT ORDINAL="3968" NAME="?cgmRequestResidentProgramsNV@OpenGLRekorder@OGL@AIF@@UAEXPBDIHPAI@Z" PURGE="-1" COMMENT="" />
    <EXPORT ORDINAL="3969" NAME="?cgmRequestResidentProgramsNV@OpenGLTracer@OGL@AIF@@UAEXPBDIHPAI@Z" PURGE="16" COMMENT="" />
    <EXPORT ORDINAL="3970" NAME="?cgmResetHistogram@OpenGLErrorChecker@OGL@AIF@@UAEXPBDII@Z" PURGE="12" COMMENT="" />
    <EXPORT ORDINAL="3971" NAME="?cgmResetHistogram@OpenGLRekorder@OGL@AIF@@UAEXPBDII@Z" PURGE="12" COMMENT="" />
    <EXPORT ORDINAL="3972" NAME="?cgmResetHistogram@OpenGLTracer@OGL@AIF@@UAEXPBDII@Z" PURGE="12" COMMENT="" />
    <EXPORT ORDINAL="3973" NAME="?cgmResetHistogramEXT@OpenGLErrorChecker@OGL@AIF@@UAEXPBDII@Z" PURGE="12" COMMENT="" />
    <EXPORT ORDINAL="3974" NAME="?cgmResetHistogramEXT@OpenGLRekorder@OGL@AIF@@UAEXPBDII@Z" PURGE="12" COMMENT="" />
    <EXPORT ORDINAL="3975" NAME="?cgmResetHistogramEXT@OpenGLTracer@OGL@AIF@@UAEXPBDII@Z" PURGE="12" COMMENT="" />
    <EXPORT ORDINAL="3976" NAME="?cgmResetMinmax@OpenGLErrorChecker@OGL@AIF@@UAEXPBDII@Z" PURGE="12" COMMENT="" />
    <EXPORT ORDINAL="3977" NAME="?cgmResetMinmax@OpenGLRekorder@OGL@AIF@@UAEXPBDII@Z" PURGE="12" COMMENT="" />
    <EXPORT ORDINAL="3978" NAME="?cgmResetMinmax@OpenGLTracer@OGL@AIF@@UAEXPBDII@Z" PURGE="12" COMMENT="" />
    <EXPORT ORDINAL="3979" NAME="?cgmResetMinmaxEXT@OpenGLErrorChecker@OGL@AIF@@UAEXPBDII@Z" PURGE="12" COMMENT="" />
    <EXPORT ORDINAL="3980" NAME="?cgmResetMinmaxEXT@OpenGLRekorder@OGL@AIF@@UAEXPBDII@Z" PURGE="12" COMMENT="" />
    <EXPORT ORDINAL="3981" NAME="?cgmResetMinmaxEXT@OpenGLTracer@OGL@AIF@@UAEXPBDII@Z" PURGE="12" COMMENT="" />
    <EXPORT ORDINAL="3982" NAME="?cgmResizeBuffersMESA@OpenGLErrorChecker@OGL@AIF@@UAEXPBDI@Z" PURGE="8" COMMENT="" />
    <EXPORT ORDINAL="3983" NAME="?cgmResizeBuffersMESA@OpenGLRekorder@OGL@AIF@@UAEXPBDI@Z" PURGE="8" COMMENT="" />
    <EXPORT ORDINAL="3984" NAME="?cgmResizeBuffersMESA@OpenGLTracer@OGL@AIF@@UAEXPBDI@Z" PURGE="8" COMMENT="" />
    <EXPORT ORDINAL="3985" NAME="?cgmRotated@OpenGLErrorChecker@OGL@AIF@@UAEXPBDINNNN@Z" PURGE="40" COMMENT="" />
    <EXPORT ORDINAL="3986" NAME="?cgmRotated@OpenGLRekorder@OGL@AIF@@UAEXPBDINNNN@Z" PURGE="40" COMMENT="" />
    <EXPORT ORDINAL="3987" NAME="?cgmRotated@OpenGLTracer@OGL@AIF@@UAEXPBDINNNN@Z" PURGE="40" COMMENT="" />
    <EXPORT ORDINAL="3988" NAME="?cgmRotatef@OpenGLErrorChecker@OGL@AIF@@UAEXPBDIMMMM@Z" PURGE="24" COMMENT="" />
    <EXPORT ORDINAL="3989" NAME="?cgmRotatef@OpenGLRekorder@OGL@AIF@@UAEXPBDIMMMM@Z" PURGE="24" COMMENT="" />
    <EXPORT ORDINAL="3990" NAME="?cgmRotatef@OpenGLTracer@OGL@AIF@@UAEXPBDIMMMM@Z" PURGE="24" COMMENT="" />
    <EXPORT ORDINAL="3991" NAME="?cgmSampleCoverage@OpenGLErrorChecker@OGL@AIF@@UAEXPBDIME@Z" PURGE="16" COMMENT="" />
    <EXPORT ORDINAL="3992" NAME="?cgmSampleCoverage@OpenGLRekorder@OGL@AIF@@UAEXPBDIME@Z" PURGE="16" COMMENT="" />
    <EXPORT ORDINAL="3993" NAME="?cgmSampleCoverage@OpenGLTracer@OGL@AIF@@UAEXPBDIME@Z" PURGE="16" COMMENT="" />
    <EXPORT ORDINAL="3994" NAME="?cgmSampleCoverageARB@OpenGLErrorChecker@OGL@AIF@@UAEXPBDIME@Z" PURGE="16" COMMENT="" />
    <EXPORT ORDINAL="3995" NAME="?cgmSampleCoverageARB@OpenGLRekorder@OGL@AIF@@UAEXPBDIME@Z" PURGE="16" COMMENT="" />
    <EXPORT ORDINAL="3996" NAME="?cgmSampleCoverageARB@OpenGLTracer@OGL@AIF@@UAEXPBDIME@Z" PURGE="16" COMMENT="" />
    <EXPORT ORDINAL="3997" NAME="?cgmSampleMapATI@OpenGLErrorChecker@OGL@AIF@@UAEXPBDIIII@Z" PURGE="20" COMMENT="" />
    <EXPORT ORDINAL="3998" NAME="?cgmSampleMapATI@OpenGLRekorder@OGL@AIF@@UAEXPBDIIII@Z" PURGE="20" COMMENT="" />
    <EXPORT ORDINAL="3999" NAME="?cgmSampleMapATI@OpenGLTracer@OGL@AIF@@UAEXPBDIIII@Z" PURGE="20" COMMENT="" />
    <EXPORT ORDINAL="4000" NAME="?cgmSampleMaskEXT@OpenGLErrorChecker@OGL@AIF@@UAEXPBDIME@Z" PURGE="16" COMMENT="" />
    <EXPORT ORDINAL="4001" NAME="?cgmSampleMaskEXT@OpenGLRekorder@OGL@AIF@@UAEXPBDIME@Z" PURGE="16" COMMENT="" />
    <EXPORT ORDINAL="4002" NAME="?cgmSampleMaskEXT@OpenGLTracer@OGL@AIF@@UAEXPBDIME@Z" PURGE="16" COMMENT="" />
    <EXPORT ORDINAL="4003" NAME="?cgmSampleMaskIndexedNV@OpenGLErrorChecker@OGL@AIF@@UAEXPBDIII@Z" PURGE="16" COMMENT="" />
    <EXPORT ORDINAL="4004" NAME="?cgmSampleMaskIndexedNV@OpenGLRekorder@OGL@AIF@@UAEXPBDIII@Z" PURGE="16" COMMENT="" />
    <EXPORT ORDINAL="4005" NAME="?cgmSampleMaskIndexedNV@OpenGLTracer@OGL@AIF@@UAEXPBDIII@Z" PURGE="16" COMMENT="" />
    <EXPORT ORDINAL="4006" NAME="?cgmSampleMaskSGIS@OpenGLErrorChecker@OGL@AIF@@UAEXPBDIME@Z" PURGE="16" COMMENT="" />
    <EXPORT ORDINAL="4007" NAME="?cgmSampleMaskSGIS@OpenGLRekorder@OGL@AIF@@UAEXPBDIME@Z" PURGE="16" COMMENT="" />
    <EXPORT ORDINAL="4008" NAME="?cgmSampleMaskSGIS@OpenGLTracer@OGL@AIF@@UAEXPBDIME@Z" PURGE="16" COMMENT="" />
    <EXPORT ORDINAL="4009" NAME="?cgmSamplePatternEXT@OpenGLErrorChecker@OGL@AIF@@UAEXPBDII@Z" PURGE="12" COMMENT="" />
    <EXPORT ORDINAL="4010" NAME="?cgmSamplePatternEXT@OpenGLRekorder@OGL@AIF@@UAEXPBDII@Z" PURGE="12" COMMENT="" />
    <EXPORT ORDINAL="4011" NAME="?cgmSamplePatternEXT@OpenGLTracer@OGL@AIF@@UAEXPBDII@Z" PURGE="12" COMMENT="" />
    <EXPORT ORDINAL="4012" NAME="?cgmSamplePatternSGIS@OpenGLErrorChecker@OGL@AIF@@UAEXPBDII@Z" PURGE="12" COMMENT="" />
    <EXPORT ORDINAL="4013" NAME="?cgmSamplePatternSGIS@OpenGLRekorder@OGL@AIF@@UAEXPBDII@Z" PURGE="12" COMMENT="" />
    <EXPORT ORDINAL="4014" NAME="?cgmSamplePatternSGIS@OpenGLTracer@OGL@AIF@@UAEXPBDII@Z" PURGE="12" COMMENT="" />
    <EXPORT ORDINAL="4015" NAME="?cgmScaled@OpenGLErrorChecker@OGL@AIF@@UAEXPBDINNN@Z" PURGE="32" COMMENT="" />
    <EXPORT ORDINAL="4016" NAME="?cgmScaled@OpenGLRekorder@OGL@AIF@@UAEXPBDINNN@Z" PURGE="32" COMMENT="" />
    <EXPORT ORDINAL="4017" NAME="?cgmScaled@OpenGLTracer@OGL@AIF@@UAEXPBDINNN@Z" PURGE="32" COMMENT="" />
    <EXPORT ORDINAL="4018" NAME="?cgmScalef@OpenGLErrorChecker@OGL@AIF@@UAEXPBDIMMM@Z" PURGE="20" COMMENT="" />
    <EXPORT ORDINAL="4019" NAME="?cgmScalef@OpenGLRekorder@OGL@AIF@@UAEXPBDIMMM@Z" PURGE="20" COMMENT="" />
    <EXPORT ORDINAL="4020" NAME="?cgmScalef@OpenGLTracer@OGL@AIF@@UAEXPBDIMMM@Z" PURGE="20" COMMENT="" />
    <EXPORT ORDINAL="4021" NAME="?cgmScissor@OpenGLErrorChecker@OGL@AIF@@UAEXPBDIHHHH@Z" PURGE="24" COMMENT="" />
    <EXPORT ORDINAL="4022" NAME="?cgmScissor@OpenGLRekorder@OGL@AIF@@UAEXPBDIHHHH@Z" PURGE="24" COMMENT="" />
    <EXPORT ORDINAL="4023" NAME="?cgmScissor@OpenGLTracer@OGL@AIF@@UAEXPBDIHHHH@Z" PURGE="24" COMMENT="" />
    <EXPORT ORDINAL="4024" NAME="?cgmSecondaryColor3b@OpenGLErrorChecker@OGL@AIF@@UAEXPBDICCC@Z" PURGE="20" COMMENT="" />
    <EXPORT ORDINAL="4025" NAME="?cgmSecondaryColor3b@OpenGLRekorder@OGL@AIF@@UAEXPBDICCC@Z" PURGE="20" COMMENT="" />
    <EXPORT ORDINAL="4026" NAME="?cgmSecondaryColor3b@OpenGLTracer@OGL@AIF@@UAEXPBDICCC@Z" PURGE="20" COMMENT="" />
    <EXPORT ORDINAL="4027" NAME="?cgmSecondaryColor3bEXT@OpenGLErrorChecker@OGL@AIF@@UAEXPBDICCC@Z" PURGE="20" COMMENT="" />
    <EXPORT ORDINAL="4028" NAME="?cgmSecondaryColor3bEXT@OpenGLRekorder@OGL@AIF@@UAEXPBDICCC@Z" PURGE="20" COMMENT="" />
    <EXPORT ORDINAL="4029" NAME="?cgmSecondaryColor3bEXT@OpenGLTracer@OGL@AIF@@UAEXPBDICCC@Z" PURGE="20" COMMENT="" />
    <EXPORT ORDINAL="4030" NAME="?cgmSecondaryColor3bv@OpenGLErrorChecker@OGL@AIF@@UAEXPBDIPBC@Z" PURGE="12" COMMENT="" />
    <EXPORT ORDINAL="4031" NAME="?cgmSecondaryColor3bv@OpenGLRekorder@OGL@AIF@@UAEXPBDIPBC@Z" PURGE="-1" COMMENT="" />
    <EXPORT ORDINAL="4032" NAME="?cgmSecondaryColor3bv@OpenGLTracer@OGL@AIF@@UAEXPBDIPBC@Z" PURGE="12" COMMENT="" />
    <EXPORT ORDINAL="4033" NAME="?cgmSecondaryColor3bvEXT@OpenGLErrorChecker@OGL@AIF@@UAEXPBDIPBC@Z" PURGE="12" COMMENT="" />
    <EXPORT ORDINAL="4034" NAME="?cgmSecondaryColor3bvEXT@OpenGLRekorder@OGL@AIF@@UAEXPBDIPBC@Z" PURGE="-1" COMMENT="" />
    <EXPORT ORDINAL="4035" NAME="?cgmSecondaryColor3bvEXT@OpenGLTracer@OGL@AIF@@UAEXPBDIPBC@Z" PURGE="12" COMMENT="" />
    <EXPORT ORDINAL="4036" NAME="?cgmSecondaryColor3d@OpenGLErrorChecker@OGL@AIF@@UAEXPBDINNN@Z" PURGE="32" COMMENT="" />
    <EXPORT ORDINAL="4037" NAME="?cgmSecondaryColor3d@OpenGLRekorder@OGL@AIF@@UAEXPBDINNN@Z" PURGE="32" COMMENT="" />
    <EXPORT ORDINAL="4038" NAME="?cgmSecondaryColor3d@OpenGLTracer@OGL@AIF@@UAEXPBDINNN@Z" PURGE="32" COMMENT="" />
    <EXPORT ORDINAL="4039" NAME="?cgmSecondaryColor3dEXT@OpenGLErrorChecker@OGL@AIF@@UAEXPBDINNN@Z" PURGE="32" COMMENT="" />
    <EXPORT ORDINAL="4040" NAME="?cgmSecondaryColor3dEXT@OpenGLRekorder@OGL@AIF@@UAEXPBDINNN@Z" PURGE="32" COMMENT="" />
    <EXPORT ORDINAL="4041" NAME="?cgmSecondaryColor3dEXT@OpenGLTracer@OGL@AIF@@UAEXPBDINNN@Z" PURGE="32" COMMENT="" />
    <EXPORT ORDINAL="4042" NAME="?cgmSecondaryColor3dv@OpenGLErrorChecker@OGL@AIF@@UAEXPBDIPBN@Z" PURGE="12" COMMENT="" />
    <EXPORT ORDINAL="4043" NAME="?cgmSecondaryColor3dv@OpenGLRekorder@OGL@AIF@@UAEXPBDIPBN@Z" PURGE="-1" COMMENT="" />
    <EXPORT ORDINAL="4044" NAME="?cgmSecondaryColor3dv@OpenGLTracer@OGL@AIF@@UAEXPBDIPBN@Z" PURGE="12" COMMENT="" />
    <EXPORT ORDINAL="4045" NAME="?cgmSecondaryColor3dvEXT@OpenGLErrorChecker@OGL@AIF@@UAEXPBDIPBN@Z" PURGE="12" COMMENT="" />
    <EXPORT ORDINAL="4046" NAME="?cgmSecondaryColor3dvEXT@OpenGLRekorder@OGL@AIF@@UAEXPBDIPBN@Z" PURGE="-1" COMMENT="" />
    <EXPORT ORDINAL="4047" NAME="?cgmSecondaryColor3dvEXT@OpenGLTracer@OGL@AIF@@UAEXPBDIPBN@Z" PURGE="12" COMMENT="" />
    <EXPORT ORDINAL="4048" NAME="?cgmSecondaryColor3f@OpenGLErrorChecker@OGL@AIF@@UAEXPBDIMMM@Z" PURGE="20" COMMENT="" />
    <EXPORT ORDINAL="4049" NAME="?cgmSecondaryColor3f@OpenGLRekorder@OGL@AIF@@UAEXPBDIMMM@Z" PURGE="20" COMMENT="" />
    <EXPORT ORDINAL="4050" NAME="?cgmSecondaryColor3f@OpenGLTracer@OGL@AIF@@UAEXPBDIMMM@Z" PURGE="20" COMMENT="" />
    <EXPORT ORDINAL="4051" NAME="?cgmSecondaryColor3fEXT@OpenGLErrorChecker@OGL@AIF@@UAEXPBDIMMM@Z" PURGE="20" COMMENT="" />
    <EXPORT ORDINAL="4052" NAME="?cgmSecondaryColor3fEXT@OpenGLRekorder@OGL@AIF@@UAEXPBDIMMM@Z" PURGE="20" COMMENT="" />
    <EXPORT ORDINAL="4053" NAME="?cgmSecondaryColor3fEXT@OpenGLTracer@OGL@AIF@@UAEXPBDIMMM@Z" PURGE="20" COMMENT="" />
    <EXPORT ORDINAL="4054" NAME="?cgmSecondaryColor3fv@OpenGLErrorChecker@OGL@AIF@@UAEXPBDIPBM@Z" PURGE="12" COMMENT="" />
    <EXPORT ORDINAL="4055" NAME="?cgmSecondaryColor3fv@OpenGLRekorder@OGL@AIF@@UAEXPBDIPBM@Z" PURGE="-1" COMMENT="" />
    <EXPORT ORDINAL="4056" NAME="?cgmSecondaryColor3fv@OpenGLTracer@OGL@AIF@@UAEXPBDIPBM@Z" PURGE="12" COMMENT="" />
    <EXPORT ORDINAL="4057" NAME="?cgmSecondaryColor3fvEXT@OpenGLErrorChecker@OGL@AIF@@UAEXPBDIPBM@Z" PURGE="12" COMMENT="" />
    <EXPORT ORDINAL="4058" NAME="?cgmSecondaryColor3fvEXT@OpenGLRekorder@OGL@AIF@@UAEXPBDIPBM@Z" PURGE="-1" COMMENT="" />
    <EXPORT ORDINAL="4059" NAME="?cgmSecondaryColor3fvEXT@OpenGLTracer@OGL@AIF@@UAEXPBDIPBM@Z" PURGE="12" COMMENT="" />
    <EXPORT ORDINAL="4060" NAME="?cgmSecondaryColor3hNV@OpenGLErrorChecker@OGL@AIF@@UAEXPBDIIII@Z" PURGE="20" COMMENT="" />
    <EXPORT ORDINAL="4061" NAME="?cgmSecondaryColor3hNV@OpenGLRekorder@OGL@AIF@@UAEXPBDIIII@Z" PURGE="20" COMMENT="" />
    <EXPORT ORDINAL="4062" NAME="?cgmSecondaryColor3hNV@OpenGLTracer@OGL@AIF@@UAEXPBDIIII@Z" PURGE="20" COMMENT="" />
    <EXPORT ORDINAL="4063" NAME="?cgmSecondaryColor3hvNV@OpenGLErrorChecker@OGL@AIF@@UAEXPBDIPBI@Z" PURGE="12" COMMENT="" />
    <EXPORT ORDINAL="4064" NAME="?cgmSecondaryColor3hvNV@OpenGLRekorder@OGL@AIF@@UAEXPBDIPBI@Z" PURGE="-1" COMMENT="" />
    <EXPORT ORDINAL="4065" NAME="?cgmSecondaryColor3hvNV@OpenGLTracer@OGL@AIF@@UAEXPBDIPBI@Z" PURGE="12" COMMENT="" />
    <EXPORT ORDINAL="4066" NAME="?cgmSecondaryColor3i@OpenGLErrorChecker@OGL@AIF@@UAEXPBDIHHH@Z" PURGE="20" COMMENT="" />
    <EXPORT ORDINAL="4067" NAME="?cgmSecondaryColor3i@OpenGLRekorder@OGL@AIF@@UAEXPBDIHHH@Z" PURGE="20" COMMENT="" />
    <EXPORT ORDINAL="4068" NAME="?cgmSecondaryColor3i@OpenGLTracer@OGL@AIF@@UAEXPBDIHHH@Z" PURGE="20" COMMENT="" />
    <EXPORT ORDINAL="4069" NAME="?cgmSecondaryColor3iEXT@OpenGLErrorChecker@OGL@AIF@@UAEXPBDIHHH@Z" PURGE="20" COMMENT="" />
    <EXPORT ORDINAL="4070" NAME="?cgmSecondaryColor3iEXT@OpenGLRekorder@OGL@AIF@@UAEXPBDIHHH@Z" PURGE="20" COMMENT="" />
    <EXPORT ORDINAL="4071" NAME="?cgmSecondaryColor3iEXT@OpenGLTracer@OGL@AIF@@UAEXPBDIHHH@Z" PURGE="20" COMMENT="" />
    <EXPORT ORDINAL="4072" NAME="?cgmSecondaryColor3iv@OpenGLErrorChecker@OGL@AIF@@UAEXPBDIPBH@Z" PURGE="12" COMMENT="" />
    <EXPORT ORDINAL="4073" NAME="?cgmSecondaryColor3iv@OpenGLRekorder@OGL@AIF@@UAEXPBDIPBH@Z" PURGE="-1" COMMENT="" />
    <EXPORT ORDINAL="4074" NAME="?cgmSecondaryColor3iv@OpenGLTracer@OGL@AIF@@UAEXPBDIPBH@Z" PURGE="12" COMMENT="" />
    <EXPORT ORDINAL="4075" NAME="?cgmSecondaryColor3ivEXT@OpenGLErrorChecker@OGL@AIF@@UAEXPBDIPBH@Z" PURGE="12" COMMENT="" />
    <EXPORT ORDINAL="4076" NAME="?cgmSecondaryColor3ivEXT@OpenGLRekorder@OGL@AIF@@UAEXPBDIPBH@Z" PURGE="-1" COMMENT="" />
    <EXPORT ORDINAL="4077" NAME="?cgmSecondaryColor3ivEXT@OpenGLTracer@OGL@AIF@@UAEXPBDIPBH@Z" PURGE="12" COMMENT="" />
    <EXPORT ORDINAL="4078" NAME="?cgmSecondaryColor3s@OpenGLErrorChecker@OGL@AIF@@UAEXPBDIFFF@Z" PURGE="20" COMMENT="" />
    <EXPORT ORDINAL="4079" NAME="?cgmSecondaryColor3s@OpenGLRekorder@OGL@AIF@@UAEXPBDIFFF@Z" PURGE="20" COMMENT="" />
    <EXPORT ORDINAL="4080" NAME="?cgmSecondaryColor3s@OpenGLTracer@OGL@AIF@@UAEXPBDIFFF@Z" PURGE="20" COMMENT="" />
    <EXPORT ORDINAL="4081" NAME="?cgmSecondaryColor3sEXT@OpenGLErrorChecker@OGL@AIF@@UAEXPBDIFFF@Z" PURGE="20" COMMENT="" />
    <EXPORT ORDINAL="4082" NAME="?cgmSecondaryColor3sEXT@OpenGLRekorder@OGL@AIF@@UAEXPBDIFFF@Z" PURGE="20" COMMENT="" />
    <EXPORT ORDINAL="4083" NAME="?cgmSecondaryColor3sEXT@OpenGLTracer@OGL@AIF@@UAEXPBDIFFF@Z" PURGE="20" COMMENT="" />
    <EXPORT ORDINAL="4084" NAME="?cgmSecondaryColor3sv@OpenGLErrorChecker@OGL@AIF@@UAEXPBDIPBF@Z" PURGE="12" COMMENT="" />
    <EXPORT ORDINAL="4085" NAME="?cgmSecondaryColor3sv@OpenGLRekorder@OGL@AIF@@UAEXPBDIPBF@Z" PURGE="-1" COMMENT="" />
    <EXPORT ORDINAL="4086" NAME="?cgmSecondaryColor3sv@OpenGLTracer@OGL@AIF@@UAEXPBDIPBF@Z" PURGE="12" COMMENT="" />
    <EXPORT ORDINAL="4087" NAME="?cgmSecondaryColor3svEXT@OpenGLErrorChecker@OGL@AIF@@UAEXPBDIPBF@Z" PURGE="12" COMMENT="" />
    <EXPORT ORDINAL="4088" NAME="?cgmSecondaryColor3svEXT@OpenGLRekorder@OGL@AIF@@UAEXPBDIPBF@Z" PURGE="-1" COMMENT="" />
    <EXPORT ORDINAL="4089" NAME="?cgmSecondaryColor3svEXT@OpenGLTracer@OGL@AIF@@UAEXPBDIPBF@Z" PURGE="12" COMMENT="" />
    <EXPORT ORDINAL="4090" NAME="?cgmSecondaryColor3ub@OpenGLErrorChecker@OGL@AIF@@UAEXPBDIEEE@Z" PURGE="20" COMMENT="" />
    <EXPORT ORDINAL="4091" NAME="?cgmSecondaryColor3ub@OpenGLRekorder@OGL@AIF@@UAEXPBDIEEE@Z" PURGE="20" COMMENT="" />
    <EXPORT ORDINAL="4092" NAME="?cgmSecondaryColor3ub@OpenGLTracer@OGL@AIF@@UAEXPBDIEEE@Z" PURGE="20" COMMENT="" />
    <EXPORT ORDINAL="4093" NAME="?cgmSecondaryColor3ubEXT@OpenGLErrorChecker@OGL@AIF@@UAEXPBDIEEE@Z" PURGE="20" COMMENT="" />
    <EXPORT ORDINAL="4094" NAME="?cgmSecondaryColor3ubEXT@OpenGLRekorder@OGL@AIF@@UAEXPBDIEEE@Z" PURGE="20" COMMENT="" />
    <EXPORT ORDINAL="4095" NAME="?cgmSecondaryColor3ubEXT@OpenGLTracer@OGL@AIF@@UAEXPBDIEEE@Z" PURGE="20" COMMENT="" />
    <EXPORT ORDINAL="4096" NAME="?cgmSecondaryColor3ubv@OpenGLErrorChecker@OGL@AIF@@UAEXPBDIPBE@Z" PURGE="12" COMMENT="" />
    <EXPORT ORDINAL="4097" NAME="?cgmSecondaryColor3ubv@OpenGLRekorder@OGL@AIF@@UAEXPBDIPBE@Z" PURGE="-1" COMMENT="" />
    <EXPORT ORDINAL="4098" NAME="?cgmSecondaryColor3ubv@OpenGLTracer@OGL@AIF@@UAEXPBDIPBE@Z" PURGE="12" COMMENT="" />
    <EXPORT ORDINAL="4099" NAME="?cgmSecondaryColor3ubvEXT@OpenGLErrorChecker@OGL@AIF@@UAEXPBDIPBE@Z" PURGE="12" COMMENT="" />
    <EXPORT ORDINAL="4100" NAME="?cgmSecondaryColor3ubvEXT@OpenGLRekorder@OGL@AIF@@UAEXPBDIPBE@Z" PURGE="-1" COMMENT="" />
    <EXPORT ORDINAL="4101" NAME="?cgmSecondaryColor3ubvEXT@OpenGLTracer@OGL@AIF@@UAEXPBDIPBE@Z" PURGE="12" COMMENT="" />
    <EXPORT ORDINAL="4102" NAME="?cgmSecondaryColor3ui@OpenGLErrorChecker@OGL@AIF@@UAEXPBDIIII@Z" PURGE="20" COMMENT="" />
    <EXPORT ORDINAL="4103" NAME="?cgmSecondaryColor3ui@OpenGLRekorder@OGL@AIF@@UAEXPBDIIII@Z" PURGE="20" COMMENT="" />
    <EXPORT ORDINAL="4104" NAME="?cgmSecondaryColor3ui@OpenGLTracer@OGL@AIF@@UAEXPBDIIII@Z" PURGE="20" COMMENT="" />
    <EXPORT ORDINAL="4105" NAME="?cgmSecondaryColor3uiEXT@OpenGLErrorChecker@OGL@AIF@@UAEXPBDIIII@Z" PURGE="20" COMMENT="" />
    <EXPORT ORDINAL="4106" NAME="?cgmSecondaryColor3uiEXT@OpenGLRekorder@OGL@AIF@@UAEXPBDIIII@Z" PURGE="20" COMMENT="" />
    <EXPORT ORDINAL="4107" NAME="?cgmSecondaryColor3uiEXT@OpenGLTracer@OGL@AIF@@UAEXPBDIIII@Z" PURGE="20" COMMENT="" />
    <EXPORT ORDINAL="4108" NAME="?cgmSecondaryColor3uiv@OpenGLErrorChecker@OGL@AIF@@UAEXPBDIPBI@Z" PURGE="12" COMMENT="" />
    <EXPORT ORDINAL="4109" NAME="?cgmSecondaryColor3uiv@OpenGLRekorder@OGL@AIF@@UAEXPBDIPBI@Z" PURGE="-1" COMMENT="" />
    <EXPORT ORDINAL="4110" NAME="?cgmSecondaryColor3uiv@OpenGLTracer@OGL@AIF@@UAEXPBDIPBI@Z" PURGE="12" COMMENT="" />
    <EXPORT ORDINAL="4111" NAME="?cgmSecondaryColor3uivEXT@OpenGLErrorChecker@OGL@AIF@@UAEXPBDIPBI@Z" PURGE="12" COMMENT="" />
    <EXPORT ORDINAL="4112" NAME="?cgmSecondaryColor3uivEXT@OpenGLRekorder@OGL@AIF@@UAEXPBDIPBI@Z" PURGE="-1" COMMENT="" />
