<?xml version="1.0" encoding="UTF-8"?>
<LIBRARY NAME="aoccache.dll" PATH="/DLLArchive/etc/AocCache.dll" DATE="Fri Jul 03 12:18:32 PDT 2020" VERSION="2.0.0.0">
    <EXPORT ORDINAL="1" NAME="??0Aoc@@QAE@ABV?$basic_string@DU?$char_traits@D@std@@V?$allocator@D@2@@std@@ABVAocConfig@@ABV?$vector@V?$PtSmartPointer@VAocCacheableFactory@@@@V?$allocator@V?$PtSmartPointer@VAocCacheableFactory@@@@@std@@@2@@Z" PURGE="12" COMMENT="" />
    <EXPORT ORDINAL="2" NAME="??0Aoc@@QAE@ABV?$basic_string@DU?$char_traits@D@std@@V?$allocator@D@2@@std@@ABVAocConfig@@QAVAocCacheableFactory@@@Z" PURGE="12" COMMENT="" />
    <EXPORT ORDINAL="3" NAME="??0AocCacheable@@IAE@ABV?$basic_string@DU?$char_traits@D@std@@V?$allocator@D@2@@std@@@Z" PURGE="4" COMMENT="" />
    <EXPORT ORDINAL="4" NAME="??0AocCacheable@@IAE@ABV?$basic_string@DU?$char_traits@D@std@@V?$allocator@D@2@@std@@ABV?$PtSmartPointer@VAocBuffer@@@@@Z" PURGE="8" COMMENT="" />
    <EXPORT ORDINAL="5" NAME="??0AocExBase@@IAE@ABV?$basic_string@DU?$char_traits@D@std@@V?$allocator@D@2@@std@@ABVPtExWhere@@PBVPtException@@@Z" PURGE="12" COMMENT="" />
    <EXPORT ORDINAL="6" NAME="??0AocExBase@@QAE@ABV0@@Z" PURGE="4" COMMENT="" />
    <EXPORT ORDINAL="7" NAME="??0AocExCachableNotVerified@@QAE@ABV0@@Z" PURGE="4" COMMENT="" />
    <EXPORT ORDINAL="8" NAME="??0AocExCachableNotVerified@@QAE@ABVPtExWhere@@PBVPtException@@@Z" PURGE="8" COMMENT="" />
    <EXPORT ORDINAL="9" NAME="??0AocExFactoryClassNotFound@@QAE@ABV0@@Z" PURGE="4" COMMENT="" />
    <EXPORT ORDINAL="10" NAME="??0AocExFactoryClassNotFound@@QAE@ABVPtExWhere@@PBVPtException@@@Z" PURGE="8" COMMENT="" />
    <EXPORT ORDINAL="11" NAME="??0AocExFileReadEntry@@QAE@ABV0@@Z" PURGE="4" COMMENT="" />
    <EXPORT ORDINAL="12" NAME="??0AocExFileReadEntry@@QAE@ABVPtExWhere@@PBVPtException@@@Z" PURGE="8" COMMENT="" />
    <EXPORT ORDINAL="13" NAME="??0AocExFileWriteEntry@@QAE@ABV0@@Z" PURGE="4" COMMENT="" />
    <EXPORT ORDINAL="14" NAME="??0AocExFileWriteEntry@@QAE@ABVPtExWhere@@PBVPtException@@@Z" PURGE="8" COMMENT="" />
    <EXPORT ORDINAL="15" NAME="??0AocExFileWriteEntryHeader@@QAE@ABV0@@Z" PURGE="4" COMMENT="" />
    <EXPORT ORDINAL="16" NAME="??0AocExFileWriteEntryHeader@@QAE@ABVPtExWhere@@PBVPtException@@@Z" PURGE="8" COMMENT="" />
    <EXPORT ORDINAL="17" NAME="??0AocExFileWriteExtent@@QAE@ABV0@@Z" PURGE="4" COMMENT="" />
    <EXPORT ORDINAL="18" NAME="??0AocExFileWriteExtent@@QAE@ABVPtExWhere@@PBVPtException@@@Z" PURGE="8" COMMENT="" />
    <EXPORT ORDINAL="19" NAME="??0AocExFileWriteExtentHeader@@QAE@ABV0@@Z" PURGE="4" COMMENT="" />
    <EXPORT ORDINAL="20" NAME="??0AocExFileWriteExtentHeader@@QAE@ABVPtExWhere@@PBVPtException@@@Z" PURGE="8" COMMENT="" />
    <EXPORT ORDINAL="21" NAME="??0AocExUnsupportedFileVersion@@QAE@ABV0@@Z" PURGE="4" COMMENT="" />
    <EXPORT ORDINAL="22" NAME="??0AocExUnsupportedFileVersion@@QAE@ABVPtExWhere@@PBVPtException@@@Z" PURGE="8" COMMENT="" />
    <EXPORT ORDINAL="23" NAME="??0AocSerialize@@QAE@QAVAoc@@@Z" PURGE="4" COMMENT="" />
    <EXPORT ORDINAL="24" NAME="??1Aoc@@QAE@XZ" PURGE="0" COMMENT="" />
    <EXPORT ORDINAL="25" NAME="??1AocCacheable@@MAE@XZ" PURGE="0" COMMENT="" />
    <EXPORT ORDINAL="26" NAME="??1AocExBase@@UAE@XZ" PURGE="0" COMMENT="" />
    <EXPORT ORDINAL="27" NAME="??1AocExCachableNotVerified@@UAE@XZ" PURGE="0" COMMENT="" />
    <EXPORT ORDINAL="28" NAME="??1AocExFactoryClassNotFound@@UAE@XZ" PURGE="0" COMMENT="" />
    <EXPORT ORDINAL="29" NAME="??1AocExFileReadEntry@@UAE@XZ" PURGE="0" COMMENT="" />
    <EXPORT ORDINAL="30" NAME="??1AocExFileWriteEntry@@UAE@XZ" PURGE="0" COMMENT="" />
    <EXPORT ORDINAL="31" NAME="??1AocExFileWriteEntryHeader@@UAE@XZ" PURGE="0" COMMENT="" />
    <EXPORT ORDINAL="32" NAME="??1AocExFileWriteExtent@@UAE@XZ" PURGE="0" COMMENT="" />
    <EXPORT ORDINAL="33" NAME="??1AocExFileWriteExtentHeader@@UAE@XZ" PURGE="0" COMMENT="" />
    <EXPORT ORDINAL="34" NAME="??1AocExUnsupportedFileVersion@@UAE@XZ" PURGE="0" COMMENT="" />
    <EXPORT ORDINAL="35" NAME="??1AocSerialize@@QAE@XZ" PURGE="0" COMMENT="" />
    <EXPORT ORDINAL="36" NAME="??4AocExBase@@QAEAAV0@ABV0@@Z" PURGE="4" COMMENT="" />
    <EXPORT ORDINAL="37" NAME="??4AocExCachableNotVerified@@QAEAAV0@ABV0@@Z" PURGE="4" COMMENT="" />
    <EXPORT ORDINAL="38" NAME="??4AocExFactoryClassNotFound@@QAEAAV0@ABV0@@Z" PURGE="4" COMMENT="" />
    <EXPORT ORDINAL="39" NAME="??4AocExFileReadEntry@@QAEAAV0@ABV0@@Z" PURGE="4" COMMENT="" />
    <EXPORT ORDINAL="40" NAME="??4AocExFileWriteEntry@@QAEAAV0@ABV0@@Z" PURGE="4" COMMENT="" />
    <EXPORT ORDINAL="41" NAME="??4AocExFileWriteEntryHeader@@QAEAAV0@ABV0@@Z" PURGE="4" COMMENT="" />
    <EXPORT ORDINAL="42" NAME="??4AocExFileWriteExtent@@QAEAAV0@ABV0@@Z" PURGE="4" COMMENT="" />
    <EXPORT ORDINAL="43" NAME="??4AocExFileWriteExtentHeader@@QAEAAV0@ABV0@@Z" PURGE="4" COMMENT="" />
    <EXPORT ORDINAL="44" NAME="??4AocExUnsupportedFileVersion@@QAEAAV0@ABV0@@Z" PURGE="4" COMMENT="" />
    <EXPORT ORDINAL="45" NAME="??4AocStatistics@@QAEAAU0@ABU0@@Z" PURGE="4" COMMENT="" />
    <EXPORT ORDINAL="46" NAME="??_7AocCacheable@@6B@" PURGE="-1" COMMENT="" />
    <EXPORT ORDINAL="47" NAME="??_7AocExBase@@6B@" PURGE="-1" COMMENT="" />
    <EXPORT ORDINAL="48" NAME="??_7AocExCachableNotVerified@@6B@" PURGE="-1" COMMENT="" />
    <EXPORT ORDINAL="49" NAME="??_7AocExFactoryClassNotFound@@6B@" PURGE="-1" COMMENT="" />
    <EXPORT ORDINAL="50" NAME="??_7AocExFileReadEntry@@6B@" PURGE="-1" COMMENT="" />
    <EXPORT ORDINAL="51" NAME="??_7AocExFileWriteEntry@@6B@" PURGE="-1" COMMENT="" />
    <EXPORT ORDINAL="52" NAME="??_7AocExFileWriteEntryHeader@@6B@" PURGE="-1" COMMENT="" />
    <EXPORT ORDINAL="53" NAME="??_7AocExFileWriteExtent@@6B@" PURGE="-1" COMMENT="" />
    <EXPORT ORDINAL="54" NAME="??_7AocExFileWriteExtentHeader@@6B@" PURGE="-1" COMMENT="" />
    <EXPORT ORDINAL="55" NAME="??_7AocExUnsupportedFileVersion@@6B@" PURGE="-1" COMMENT="" />
    <EXPORT ORDINAL="56" NAME="?Create@AocCacheable@@SA?AV?$PtSmartPointer@VAocCacheable@@@@ABV?$basic_string@DU?$char_traits@D@std@@V?$allocator@D@2@@std@@ABV?$PtSmartPointer@VAocBuffer@@@@@Z" PURGE="0" COMMENT="" />
    <EXPORT ORDINAL="57" NAME="?CreateCacheFile@Aoc@@SAXABV?$basic_string@DU?$char_traits@D@std@@V?$allocator@D@2@@std@@@Z" PURGE="0" COMMENT="" />
    <EXPORT ORDINAL="58" NAME="?DestroyCacheFile@Aoc@@SAXABV?$basic_string@DU?$char_traits@D@std@@V?$allocator@D@2@@std@@@Z" PURGE="0" COMMENT="" />
    <EXPORT ORDINAL="59" NAME="?cancel@Aoc@@QAEXH@Z" PURGE="4" COMMENT="" />
    <EXPORT ORDINAL="60" NAME="?cancelAll@Aoc@@QAEXXZ" PURGE="0" COMMENT="" />
    <EXPORT ORDINAL="61" NAME="?cloneMe@AocExCachableNotVerified@@MBEPAVPtException@@XZ" PURGE="0" COMMENT="" />
    <EXPORT ORDINAL="62" NAME="?cloneMe@AocExFactoryClassNotFound@@MBEPAVPtException@@XZ" PURGE="0" COMMENT="" />
    <EXPORT ORDINAL="63" NAME="?cloneMe@AocExFileReadEntry@@MBEPAVPtException@@XZ" PURGE="0" COMMENT="" />
    <EXPORT ORDINAL="64" NAME="?cloneMe@AocExFileWriteEntry@@MBEPAVPtException@@XZ" PURGE="0" COMMENT="" />
    <EXPORT ORDINAL="65" NAME="?cloneMe@AocExFileWriteEntryHeader@@MBEPAVPtException@@XZ" PURGE="0" COMMENT="" />
    <EXPORT ORDINAL="66" NAME="?cloneMe@AocExFileWriteExtent@@MBEPAVPtException@@XZ" PURGE="0" COMMENT="" />
    <EXPORT ORDINAL="67" NAME="?cloneMe@AocExFileWriteExtentHeader@@MBEPAVPtException@@XZ" PURGE="0" COMMENT="" />
    <EXPORT ORDINAL="68" NAME="?cloneMe@AocExUnsupportedFileVersion@@MBEPAVPtException@@XZ" PURGE="0" COMMENT="" />
    <EXPORT ORDINAL="69" NAME="?commit@Aoc@@QAEXXZ" PURGE="0" COMMENT="" />
    <EXPORT ORDINAL="70" NAME="?encode@AocCacheable@@UAE?AV?$PtSmartPointer@VAocBuffer@@@@_N@Z" PURGE="8" COMMENT="" />
    <EXPORT ORDINAL="71" NAME="?erase@Aoc@@QAEXABV?$AocCacheKey@$0CA@@@@Z" PURGE="4" COMMENT="" />
    <EXPORT ORDINAL="72" NAME="?find@Aoc@@QAEHABV?$AocCacheKey@$0CA@@@QAVAocCacheableReceiver@@@Z" PURGE="8" COMMENT="" />
    <EXPORT ORDINAL="73" NAME="?find@AocSerialize@@QAEABV?$PtSmartPointer@VAocCacheable@@@@ABV?$AocCacheKey@$0CA@@@@Z" PURGE="4" COMMENT="" />
    <EXPORT ORDINAL="74" NAME="?findCreate@Aoc@@QAEHABV?$AocCacheKey@$0CA@@@ABV?$AocCacheKey@$0BA@@@ABV?$basic_string@DU?$char_traits@D@std@@V?$allocator@D@2@@std@@QAVAocCacheableReceiver@@@Z" PURGE="16" COMMENT="" />
    <EXPORT ORDINAL="75" NAME="?findCreate@AocSerialize@@QAEABV?$PtSmartPointer@VAocCacheable@@@@ABV?$AocCacheKey@$0CA@@@ABV?$AocCacheKey@$0BA@@@ABV?$basic_string@DU?$char_traits@D@std@@V?$allocator@D@2@@std@@@Z" PURGE="12" COMMENT="" />
    <EXPORT ORDINAL="76" NAME="?findPrimaryKeys@Aoc@@QAEXABV?$AocCacheKey@$0BA@@@AAV?$vector@V?$AocCacheKey@$0CA@@@V?$allocator@V?$AocCacheKey@$0CA@@@@std@@@std@@@Z" PURGE="8" COMMENT="" />
    <EXPORT ORDINAL="77" NAME="?getData@AocCacheable@@QBEABV?$PtSmartPointer@VAocBuffer@@@@XZ" PURGE="0" COMMENT="" />
    <EXPORT ORDINAL="78" NAME="?getType@AocCacheable@@QBEABV?$basic_string@DU?$char_traits@D@std@@V?$allocator@D@2@@std@@XZ" PURGE="0" COMMENT="" />
    <EXPORT ORDINAL="79" NAME="?insert@Aoc@@QAEXABV?$AocCacheKey@$0CA@@@ABV?$AocCacheKey@$0BA@@@PAVAocCacheable@@@Z" PURGE="12" COMMENT="" />
    <EXPORT ORDINAL="80" NAME="?isCached@Aoc@@QAE_NABV?$AocCacheKey@$0CA@@@@Z" PURGE="4" COMMENT="" />
    <EXPORT ORDINAL="81" NAME="?purge@Aoc@@QAEXABV?$AocCacheKey@$0CA@@@@Z" PURGE="4" COMMENT="" />
    <EXPORT ORDINAL="82" NAME="?setData@AocCacheable@@QAEXABV?$PtSmartPointer@VAocBuffer@@@@@Z" PURGE="4" COMMENT="" />
    <EXPORT ORDINAL="83" NAME="?size@AocCacheable@@UAEHXZ" PURGE="0" COMMENT="" />
    <EXPORT ORDINAL="84" NAME="?statistics@Aoc@@QAEAAUAocStatistics@@AAU2@@Z" PURGE="4" COMMENT="" />
    <EXPORT ORDINAL="85" NAME="?verify@AocCacheable@@UAE_NXZ" PURGE="0" COMMENT="" />
    <EXPORT ORDINAL="86" NAME="?what@AocExBase@@UBEPBDXZ" PURGE="0" COMMENT="" />
</LIBRARY>

