<?xml version="1.0" encoding="UTF-8"?>
<LIBRARY NAME="aspen.dll" PATH="/DLLArchive/etc/aspen.dll" DATE="Fri Jul 03 12:23:44 PDT 2020" VERSION="">
    <EXPORT ORDINAL="1" NAME="??0CAppObjectBehavior@@QAE@ABV0@@Z" PURGE="4" COMMENT="" />
    <EXPORT ORDINAL="2" NAME="??0CAppObjectBehavior@@QAE@XZ" PURGE="0" COMMENT="" />
    <EXPORT ORDINAL="3" NAME="??0CAspen@@QAE@ABV0@@Z" PURGE="4" COMMENT="" />
    <EXPORT ORDINAL="4" NAME="??0CAspen@@QAE@XZ" PURGE="0" COMMENT="" />
    <EXPORT ORDINAL="5" NAME="??0CBitmap@@QAE@XZ" PURGE="0" COMMENT="" />
    <EXPORT ORDINAL="6" NAME="??0CBoundingBox@@QAE@XZ" PURGE="0" COMMENT="" />
    <EXPORT ORDINAL="7" NAME="??0CBufferMemBlocks@@QAE@XZ" PURGE="0" COMMENT="" />
    <EXPORT ORDINAL="8" NAME="??0CCollisionQueryResult@@QAE@ABV0@@Z" PURGE="4" COMMENT="" />
    <EXPORT ORDINAL="9" NAME="??0CCollisionQueryResult@@QAE@XZ" PURGE="0" COMMENT="" />
    <EXPORT ORDINAL="10" NAME="??0CCollisionQueryResultEllipsoid@@QAE@ABV0@@Z" PURGE="4" COMMENT="" />
    <EXPORT ORDINAL="11" NAME="??0CCollisionQueryResultEllipsoid@@QAE@XZ" PURGE="0" COMMENT="" />
    <EXPORT ORDINAL="12" NAME="??0CCollisionQueryResultTriangles@@QAE@ABV0@@Z" PURGE="4" COMMENT="" />
    <EXPORT ORDINAL="13" NAME="??0CCollisionQueryResultTriangles@@QAE@H@Z" PURGE="4" COMMENT="" />
    <EXPORT ORDINAL="14" NAME="??0CConfig@@QAE@XZ" PURGE="0" COMMENT="" />
    <EXPORT ORDINAL="15" NAME="??0CDisk@@QAE@ABV0@@Z" PURGE="4" COMMENT="" />
    <EXPORT ORDINAL="16" NAME="??0CDisk@@QAE@HPAD@Z" PURGE="8" COMMENT="" />
    <EXPORT ORDINAL="17" NAME="??0CEngClient@@QAE@ABV0@@Z" PURGE="4" COMMENT="" />
    <EXPORT ORDINAL="18" NAME="??0CEngClient@@QAE@XZ" PURGE="0" COMMENT="" />
    <EXPORT ORDINAL="19" NAME="??0CEngConsole@@QAE@ABV0@@Z" PURGE="4" COMMENT="" />
    <EXPORT ORDINAL="20" NAME="??0CEngConsole@@QAE@XZ" PURGE="0" COMMENT="" />
    <EXPORT ORDINAL="21" NAME="??0CEngMapGuide@@QAE@ABV0@@Z" PURGE="4" COMMENT="" />
    <EXPORT ORDINAL="22" NAME="??0CEngMapGuide@@QAE@XZ" PURGE="0" COMMENT="" />
    <EXPORT ORDINAL="23" NAME="??0CEngPolyInterface@@QAE@ABV0@@Z" PURGE="4" COMMENT="" />
    <EXPORT ORDINAL="24" NAME="??0CEngPolyInterface@@QAE@XZ" PURGE="0" COMMENT="" />
    <EXPORT ORDINAL="25" NAME="??0CEngRaytrace@@QAE@ABV0@@Z" PURGE="4" COMMENT="" />
    <EXPORT ORDINAL="26" NAME="??0CEngRaytrace@@QAE@XZ" PURGE="0" COMMENT="" />
    <EXPORT ORDINAL="27" NAME="??0CEngServer@@QAE@ABV0@@Z" PURGE="4" COMMENT="" />
    <EXPORT ORDINAL="28" NAME="??0CEngServer@@QAE@XZ" PURGE="0" COMMENT="" />
    <EXPORT ORDINAL="29" NAME="??0CEngSetup@@QAE@ABV0@@Z" PURGE="4" COMMENT="" />
    <EXPORT ORDINAL="30" NAME="??0CEngSetup@@QAE@XZ" PURGE="0" COMMENT="" />
    <EXPORT ORDINAL="31" NAME="??0CEngTerrainInterface@@QAE@ABV0@@Z" PURGE="4" COMMENT="" />
    <EXPORT ORDINAL="32" NAME="??0CEngTerrainInterface@@QAE@XZ" PURGE="0" COMMENT="" />
    <EXPORT ORDINAL="33" NAME="??0CEngWaterStreamInterface@@QAE@ABV0@@Z" PURGE="4" COMMENT="" />
    <EXPORT ORDINAL="34" NAME="??0CEngWaterStreamInterface@@QAE@XZ" PURGE="0" COMMENT="" />
    <EXPORT ORDINAL="35" NAME="??0CFractal@@QAE@PAVCNoise@@MMM@Z" PURGE="16" COMMENT="" />
    <EXPORT ORDINAL="36" NAME="??0CGrfx@@QAE@ABV0@@Z" PURGE="4" COMMENT="" />
    <EXPORT ORDINAL="37" NAME="??0CGrfx@@QAE@PAVCDisk@@PAVCLog@@@Z" PURGE="8" COMMENT="" />
    <EXPORT ORDINAL="38" NAME="??0CIdGenerator@@QAE@XZ" PURGE="0" COMMENT="" />
    <EXPORT ORDINAL="39" NAME="??0CIndexedText@@QAE@ABV0@@Z" PURGE="4" COMMENT="" />
    <EXPORT ORDINAL="40" NAME="??0CIndexedText@@QAE@PAVCDisk@@@Z" PURGE="4" COMMENT="" />
    <EXPORT ORDINAL="41" NAME="??0CInput@@QAE@PAVCLog@@PAVCGrfx@@@Z" PURGE="8" COMMENT="" />
    <EXPORT ORDINAL="42" NAME="??0CInputWinProc@@QAE@ABV0@@Z" PURGE="4" COMMENT="" />
    <EXPORT ORDINAL="43" NAME="??0CInputWinProc@@QAE@PAVCInput@@@Z" PURGE="4" COMMENT="" />
    <EXPORT ORDINAL="44" NAME="??0CInterpolatedQuaternion@@QAE@XZ" PURGE="0" COMMENT="" />
    <EXPORT ORDINAL="45" NAME="??0CInterpolatedReal@@QAE@XZ" PURGE="0" COMMENT="" />
    <EXPORT ORDINAL="46" NAME="??0CInterpolatedRealXYZ@@QAE@XZ" PURGE="0" COMMENT="" />
    <EXPORT ORDINAL="47" NAME="??0CLog@@QAE@H@Z" PURGE="4" COMMENT="" />
    <EXPORT ORDINAL="48" NAME="??0CMemTempBuffer@@QAE@XZ" PURGE="0" COMMENT="" />
    <EXPORT ORDINAL="49" NAME="??0CMemoryBuffer@@QAE@XZ" PURGE="0" COMMENT="" />
    <EXPORT ORDINAL="50" NAME="??0CNetPipe@@QAE@ABV0@@Z" PURGE="4" COMMENT="" />
    <EXPORT ORDINAL="51" NAME="??0CNetPipe@@QAE@XZ" PURGE="0" COMMENT="" />
    <EXPORT ORDINAL="52" NAME="??0CNetPipeBuffer@@QAE@ABV0@@Z" PURGE="4" COMMENT="" />
    <EXPORT ORDINAL="53" NAME="??0CNetPipeBuffer@@QAE@H@Z" PURGE="4" COMMENT="" />
    <EXPORT ORDINAL="54" NAME="??0CNetPipeInput@@QAE@ABV0@@Z" PURGE="4" COMMENT="" />
    <EXPORT ORDINAL="55" NAME="??0CNetPipeInput@@QAE@XZ" PURGE="0" COMMENT="" />
    <EXPORT ORDINAL="56" NAME="??0CNetPipeIntMonitor@@QAE@ABV0@@Z" PURGE="4" COMMENT="" />
    <EXPORT ORDINAL="57" NAME="??0CNetPipeIntMonitor@@QAE@H@Z" PURGE="4" COMMENT="" />
    <EXPORT ORDINAL="58" NAME="??0CNetPipeList@@QAE@ABV0@@Z" PURGE="4" COMMENT="" />
    <EXPORT ORDINAL="59" NAME="??0CNetPipeList@@QAE@XZ" PURGE="0" COMMENT="" />
    <EXPORT ORDINAL="60" NAME="??0CNetPipeMouse@@QAE@ABV0@@Z" PURGE="4" COMMENT="" />
    <EXPORT ORDINAL="61" NAME="??0CNetPipeMouse@@QAE@H@Z" PURGE="4" COMMENT="" />
    <EXPORT ORDINAL="62" NAME="??0CNetPipeMsg@@QAE@ABV0@@Z" PURGE="4" COMMENT="" />
    <EXPORT ORDINAL="63" NAME="??0CNetPipeMsg@@QAE@H@Z" PURGE="4" COMMENT="" />
    <EXPORT ORDINAL="64" NAME="??0CNoise@@QAE@ABV0@@Z" PURGE="4" COMMENT="" />
    <EXPORT ORDINAL="65" NAME="??0CNoise@@QAE@XZ" PURGE="0" COMMENT="" />
    <EXPORT ORDINAL="66" NAME="??0CPackDisk@@QAE@ABV0@@Z" PURGE="4" COMMENT="" />
    <EXPORT ORDINAL="67" NAME="??0CPackDisk@@QAE@H@Z" PURGE="4" COMMENT="" />
    <EXPORT ORDINAL="68" NAME="??0CPackDiskCreator@@QAE@ABV0@@Z" PURGE="4" COMMENT="" />
    <EXPORT ORDINAL="69" NAME="??0CPackDiskCreator@@QAE@XZ" PURGE="0" COMMENT="" />
    <EXPORT ORDINAL="70" NAME="??0CPeacheySparseConvolutionNoise@@QAE@ABV0@@Z" PURGE="4" COMMENT="" />
    <EXPORT ORDINAL="71" NAME="??0CPeacheySparseConvolutionNoise@@QAE@H@Z" PURGE="4" COMMENT="" />
    <EXPORT ORDINAL="72" NAME="??0CPeacheyValueConvolutionNoise@@QAE@ABV0@@Z" PURGE="4" COMMENT="" />
    <EXPORT ORDINAL="73" NAME="??0CPeacheyValueConvolutionNoise@@QAE@H@Z" PURGE="4" COMMENT="" />
    <EXPORT ORDINAL="74" NAME="??0CPeacheyValueNoise@@QAE@ABV0@@Z" PURGE="4" COMMENT="" />
    <EXPORT ORDINAL="75" NAME="??0CPeacheyValueNoise@@QAE@H@Z" PURGE="4" COMMENT="" />
    <EXPORT ORDINAL="76" NAME="??0CPerlinGradientNoise2@@QAE@ABV0@@Z" PURGE="4" COMMENT="" />
    <EXPORT ORDINAL="77" NAME="??0CPerlinGradientNoise2@@QAE@H@Z" PURGE="4" COMMENT="" />
    <EXPORT ORDINAL="78" NAME="??0CPerlinGradientNoise@@QAE@ABV0@@Z" PURGE="4" COMMENT="" />
    <EXPORT ORDINAL="79" NAME="??0CPerlinGradientNoise@@QAE@H@Z" PURGE="4" COMMENT="" />
    <EXPORT ORDINAL="80" NAME="??0CPlayMovie@@QAE@ABV0@@Z" PURGE="4" COMMENT="" />
    <EXPORT ORDINAL="81" NAME="??0CPlayMovie@@QAE@PAUtagEnginePointers@@@Z" PURGE="4" COMMENT="" />
    <EXPORT ORDINAL="82" NAME="??0CSndfx@@QAE@ABV0@@Z" PURGE="4" COMMENT="" />
    <EXPORT ORDINAL="83" NAME="??0CSndfx@@QAE@PAUHWND__@@PAVCLog@@PAVCDisk@@@Z" PURGE="12" COMMENT="" />
    <EXPORT ORDINAL="84" NAME="??0CSndfxSW@@QAE@ABV0@@Z" PURGE="4" COMMENT="" />
    <EXPORT ORDINAL="85" NAME="??0CSndfxSW@@QAE@PAUHWND__@@PAVCLog@@PAVCDisk@@@Z" PURGE="12" COMMENT="" />
    <EXPORT ORDINAL="86" NAME="??0CSystemDisk@@QAE@ABV0@@Z" PURGE="4" COMMENT="" />
    <EXPORT ORDINAL="87" NAME="??0CSystemDisk@@QAE@H@Z" PURGE="4" COMMENT="" />
    <EXPORT ORDINAL="88" NAME="??0CTextBuffer@@QAE@XZ" PURGE="0" COMMENT="" />
    <EXPORT ORDINAL="89" NAME="??0CThread@@QAE@ABV0@@Z" PURGE="4" COMMENT="" />
    <EXPORT ORDINAL="90" NAME="??0CThread@@QAE@XZ" PURGE="0" COMMENT="" />
    <EXPORT ORDINAL="91" NAME="??0CWinProc@@QAE@ABV0@@Z" PURGE="4" COMMENT="" />
    <EXPORT ORDINAL="92" NAME="??0CWinProc@@QAE@XZ" PURGE="0" COMMENT="" />
    <EXPORT ORDINAL="93" NAME="??1CAppObjectBehavior@@UAE@XZ" PURGE="0" COMMENT="" />
    <EXPORT ORDINAL="94" NAME="??1CBitmap@@QAE@XZ" PURGE="0" COMMENT="" />
    <EXPORT ORDINAL="95" NAME="??1CBoundingBox@@QAE@XZ" PURGE="0" COMMENT="" />
    <EXPORT ORDINAL="96" NAME="??1CBufferMemBlocks@@QAE@XZ" PURGE="0" COMMENT="" />
    <EXPORT ORDINAL="97" NAME="??1CCollisionQueryResult@@UAE@XZ" PURGE="0" COMMENT="" />
    <EXPORT ORDINAL="98" NAME="??1CCollisionQueryResultEllipsoid@@UAE@XZ" PURGE="0" COMMENT="" />
    <EXPORT ORDINAL="99" NAME="??1CCollisionQueryResultTriangles@@UAE@XZ" PURGE="0" COMMENT="" />
    <EXPORT ORDINAL="100" NAME="??1CConfig@@QAE@XZ" PURGE="0" COMMENT="" />
    <EXPORT ORDINAL="101" NAME="??1CDisk@@QAE@XZ" PURGE="0" COMMENT="" />
    <EXPORT ORDINAL="102" NAME="??1CEngClient@@UAE@XZ" PURGE="0" COMMENT="" />
    <EXPORT ORDINAL="103" NAME="??1CEngConsole@@UAE@XZ" PURGE="0" COMMENT="" />
    <EXPORT ORDINAL="104" NAME="??1CEngMapGuide@@UAE@XZ" PURGE="0" COMMENT="" />
    <EXPORT ORDINAL="105" NAME="??1CEngPolyInterface@@UAE@XZ" PURGE="0" COMMENT="" />
    <EXPORT ORDINAL="106" NAME="??1CEngServer@@UAE@XZ" PURGE="0" COMMENT="" />
    <EXPORT ORDINAL="107" NAME="??1CEngSetup@@UAE@XZ" PURGE="0" COMMENT="" />
    <EXPORT ORDINAL="108" NAME="??1CEngTerrainInterface@@UAE@XZ" PURGE="0" COMMENT="" />
    <EXPORT ORDINAL="109" NAME="??1CEngWaterStreamInterface@@UAE@XZ" PURGE="0" COMMENT="" />
    <EXPORT ORDINAL="110" NAME="??1CGrfx@@QAE@XZ" PURGE="0" COMMENT="" />
    <EXPORT ORDINAL="111" NAME="??1CIdGenerator@@QAE@XZ" PURGE="0" COMMENT="" />
    <EXPORT ORDINAL="112" NAME="??1CIndexedText@@QAE@XZ" PURGE="0" COMMENT="" />
    <EXPORT ORDINAL="113" NAME="??1CInput@@QAE@XZ" PURGE="0" COMMENT="" />
    <EXPORT ORDINAL="114" NAME="??1CInputWinProc@@UAE@XZ" PURGE="0" COMMENT="" />
    <EXPORT ORDINAL="115" NAME="??1CLog@@QAE@XZ" PURGE="0" COMMENT="" />
    <EXPORT ORDINAL="116" NAME="??1CMemTempBuffer@@QAE@XZ" PURGE="0" COMMENT="" />
    <EXPORT ORDINAL="117" NAME="??1CMemoryBuffer@@QAE@XZ" PURGE="0" COMMENT="" />
    <EXPORT ORDINAL="118" NAME="??1CNetPipe@@UAE@XZ" PURGE="0" COMMENT="" />
    <EXPORT ORDINAL="119" NAME="??1CNetPipeBuffer@@UAE@XZ" PURGE="0" COMMENT="" />
    <EXPORT ORDINAL="120" NAME="??1CNetPipeInput@@UAE@XZ" PURGE="0" COMMENT="" />
    <EXPORT ORDINAL="121" NAME="??1CNetPipeIntMonitor@@UAE@XZ" PURGE="0" COMMENT="" />
    <EXPORT ORDINAL="122" NAME="??1CNetPipeList@@UAE@XZ" PURGE="0" COMMENT="" />
    <EXPORT ORDINAL="123" NAME="??1CNetPipeMouse@@UAE@XZ" PURGE="0" COMMENT="" />
    <EXPORT ORDINAL="124" NAME="??1CNetPipeMsg@@UAE@XZ" PURGE="0" COMMENT="" />
    <EXPORT ORDINAL="125" NAME="??1CNoise@@UAE@XZ" PURGE="0" COMMENT="" />
    <EXPORT ORDINAL="126" NAME="??1CPackDisk@@QAE@XZ" PURGE="0" COMMENT="" />
    <EXPORT ORDINAL="127" NAME="??1CPackDiskCreator@@QAE@XZ" PURGE="0" COMMENT="" />
    <EXPORT ORDINAL="128" NAME="??1CPeacheySparseConvolutionNoise@@UAE@XZ" PURGE="0" COMMENT="" />
    <EXPORT ORDINAL="129" NAME="??1CPeacheyValueConvolutionNoise@@UAE@XZ" PURGE="0" COMMENT="" />
    <EXPORT ORDINAL="130" NAME="??1CPeacheyValueNoise@@UAE@XZ" PURGE="0" COMMENT="" />
    <EXPORT ORDINAL="131" NAME="??1CPerlinGradientNoise2@@UAE@XZ" PURGE="0" COMMENT="" />
    <EXPORT ORDINAL="132" NAME="??1CPerlinGradientNoise@@UAE@XZ" PURGE="0" COMMENT="" />
    <EXPORT ORDINAL="133" NAME="??1CPlayMovie@@UAE@XZ" PURGE="0" COMMENT="" />
    <EXPORT ORDINAL="134" NAME="??1CSndfx@@QAE@XZ" PURGE="0" COMMENT="" />
    <EXPORT ORDINAL="135" NAME="??1CSndfxSW@@QAE@XZ" PURGE="0" COMMENT="" />
    <EXPORT ORDINAL="136" NAME="??1CSystemDisk@@QAE@XZ" PURGE="0" COMMENT="" />
    <EXPORT ORDINAL="137" NAME="??1CTextBuffer@@QAE@XZ" PURGE="0" COMMENT="" />
    <EXPORT ORDINAL="138" NAME="??1CThread@@QAE@XZ" PURGE="0" COMMENT="" />
    <EXPORT ORDINAL="139" NAME="??1CWinProc@@UAE@XZ" PURGE="0" COMMENT="" />
    <EXPORT ORDINAL="140" NAME="??4CAppObjectBehavior@@QAEAAV0@ABV0@@Z" PURGE="4" COMMENT="" />
    <EXPORT ORDINAL="141" NAME="??4CAspen@@QAEAAV0@ABV0@@Z" PURGE="4" COMMENT="" />
    <EXPORT ORDINAL="142" NAME="??4CBitmap@@QAEAAV0@ABV0@@Z" PURGE="4" COMMENT="" />
    <EXPORT ORDINAL="143" NAME="??4CBoundingBox@@QAEAAV0@ABV0@@Z" PURGE="4" COMMENT="" />
    <EXPORT ORDINAL="144" NAME="??4CBufferMemBlocks@@QAEAAV0@ABV0@@Z" PURGE="4" COMMENT="" />
    <EXPORT ORDINAL="145" NAME="??4CCollisionQueryResult@@QAEAAV0@ABV0@@Z" PURGE="4" COMMENT="" />
    <EXPORT ORDINAL="146" NAME="??4CCollisionQueryResultEllipsoid@@QAEAAV0@ABV0@@Z" PURGE="4" COMMENT="" />
    <EXPORT ORDINAL="147" NAME="??4CCollisionQueryResultTriangles@@QAEAAV0@ABV0@@Z" PURGE="4" COMMENT="" />
    <EXPORT ORDINAL="148" NAME="??4CConfig@@QAEAAV0@ABV0@@Z" PURGE="4" COMMENT="" />
    <EXPORT ORDINAL="149" NAME="??4CDisk@@QAEAAV0@ABV0@@Z" PURGE="4" COMMENT="" />
    <EXPORT ORDINAL="150" NAME="??4CEngClient@@QAEAAV0@ABV0@@Z" PURGE="4" COMMENT="" />
    <EXPORT ORDINAL="151" NAME="??4CEngConsole@@QAEAAV0@ABV0@@Z" PURGE="4" COMMENT="" />
    <EXPORT ORDINAL="152" NAME="??4CEngMapGuide@@QAEAAV0@ABV0@@Z" PURGE="4" COMMENT="" />
    <EXPORT ORDINAL="153" NAME="??4CEngPolyInterface@@QAEAAV0@ABV0@@Z" PURGE="4" COMMENT="" />
    <EXPORT ORDINAL="154" NAME="??4CEngRaytrace@@QAEAAV0@ABV0@@Z" PURGE="4" COMMENT="" />
    <EXPORT ORDINAL="155" NAME="??4CEngServer@@QAEAAV0@ABV0@@Z" PURGE="4" COMMENT="" />
    <EXPORT ORDINAL="156" NAME="??4CEngSetup@@QAEAAV0@ABV0@@Z" PURGE="4" COMMENT="" />
    <EXPORT ORDINAL="157" NAME="??4CEngTerrainInterface@@QAEAAV0@ABV0@@Z" PURGE="4" COMMENT="" />
    <EXPORT ORDINAL="158" NAME="??4CEngWaterStreamInterface@@QAEAAV0@ABV0@@Z" PURGE="4" COMMENT="" />
    <EXPORT ORDINAL="159" NAME="??4CFractal@@QAEAAV0@ABV0@@Z" PURGE="4" COMMENT="" />
    <EXPORT ORDINAL="160" NAME="??4CGrfx@@QAEAAV0@ABV0@@Z" PURGE="4" COMMENT="" />
    <EXPORT ORDINAL="161" NAME="??4CIdGenerator@@QAEAAV0@ABV0@@Z" PURGE="4" COMMENT="" />
    <EXPORT ORDINAL="162" NAME="??4CIndexedText@@QAEAAV0@ABV0@@Z" PURGE="4" COMMENT="" />
    <EXPORT ORDINAL="163" NAME="??4CInput@@QAEAAV0@ABV0@@Z" PURGE="4" COMMENT="" />
    <EXPORT ORDINAL="164" NAME="??4CInputWinProc@@QAEAAV0@ABV0@@Z" PURGE="4" COMMENT="" />
    <EXPORT ORDINAL="165" NAME="??4CInterpolatedQuaternion@@QAEAAV0@ABV0@@Z" PURGE="4" COMMENT="" />
    <EXPORT ORDINAL="166" NAME="??4CInterpolatedReal@@QAEAAV0@ABV0@@Z" PURGE="4" COMMENT="" />
    <EXPORT ORDINAL="167" NAME="??4CInterpolatedRealXYZ@@QAEAAV0@ABV0@@Z" PURGE="4" COMMENT="" />
    <EXPORT ORDINAL="168" NAME="??4CLog@@QAEAAV0@ABV0@@Z" PURGE="4" COMMENT="" />
    <EXPORT ORDINAL="169" NAME="??4CMemTempBuffer@@QAEAAV0@ABV0@@Z" PURGE="4" COMMENT="" />
    <EXPORT ORDINAL="170" NAME="??4CMemoryBuffer@@QAEAAV0@ABV0@@Z" PURGE="4" COMMENT="" />
    <EXPORT ORDINAL="171" NAME="??4CNetPipe@@QAEAAV0@ABV0@@Z" PURGE="4" COMMENT="" />
    <EXPORT ORDINAL="172" NAME="??4CNetPipeBuffer@@QAEAAV0@ABV0@@Z" PURGE="4" COMMENT="" />
    <EXPORT ORDINAL="173" NAME="??4CNetPipeInput@@QAEAAV0@ABV0@@Z" PURGE="4" COMMENT="" />
    <EXPORT ORDINAL="174" NAME="??4CNetPipeIntMonitor@@QAEAAV0@ABV0@@Z" PURGE="4" COMMENT="" />
    <EXPORT ORDINAL="175" NAME="??4CNetPipeList@@QAEAAV0@ABV0@@Z" PURGE="4" COMMENT="" />
    <EXPORT ORDINAL="176" NAME="??4CNetPipeMouse@@QAEAAV0@ABV0@@Z" PURGE="4" COMMENT="" />
    <EXPORT ORDINAL="177" NAME="??4CNetPipeMsg@@QAEAAV0@ABV0@@Z" PURGE="4" COMMENT="" />
    <EXPORT ORDINAL="178" NAME="??4CNoise@@QAEAAV0@ABV0@@Z" PURGE="4" COMMENT="" />
    <EXPORT ORDINAL="179" NAME="??4CPackDisk@@QAEAAV0@ABV0@@Z" PURGE="4" COMMENT="" />
    <EXPORT ORDINAL="180" NAME="??4CPackDiskCreator@@QAEAAV0@ABV0@@Z" PURGE="4" COMMENT="" />
    <EXPORT ORDINAL="181" NAME="??4CPeacheySparseConvolutionNoise@@QAEAAV0@ABV0@@Z" PURGE="4" COMMENT="" />
    <EXPORT ORDINAL="182" NAME="??4CPeacheyValueConvolutionNoise@@QAEAAV0@ABV0@@Z" PURGE="4" COMMENT="" />
    <EXPORT ORDINAL="183" NAME="??4CPeacheyValueNoise@@QAEAAV0@ABV0@@Z" PURGE="4" COMMENT="" />
    <EXPORT ORDINAL="184" NAME="??4CPerlinGradientNoise2@@QAEAAV0@ABV0@@Z" PURGE="4" COMMENT="" />
    <EXPORT ORDINAL="185" NAME="??4CPerlinGradientNoise@@QAEAAV0@ABV0@@Z" PURGE="4" COMMENT="" />
    <EXPORT ORDINAL="186" NAME="??4CPlayMovie@@QAEAAV0@ABV0@@Z" PURGE="4" COMMENT="" />
    <EXPORT ORDINAL="187" NAME="??4CSndfx@@QAEAAV0@ABV0@@Z" PURGE="4" COMMENT="" />
    <EXPORT ORDINAL="188" NAME="??4CSndfxSW@@QAEAAV0@ABV0@@Z" PURGE="4" COMMENT="" />
    <EXPORT ORDINAL="189" NAME="??4CSystemDisk@@QAEAAV0@ABV0@@Z" PURGE="4" COMMENT="" />
    <EXPORT ORDINAL="190" NAME="??4CTextBuffer@@QAEAAV0@ABV0@@Z" PURGE="4" COMMENT="" />
    <EXPORT ORDINAL="191" NAME="??4CThread@@QAEAAV0@ABV0@@Z" PURGE="4" COMMENT="" />
    <EXPORT ORDINAL="192" NAME="??4CWinProc@@QAEAAV0@ABV0@@Z" PURGE="4" COMMENT="" />
    <EXPORT ORDINAL="193" NAME="??_7CAppObjectBehavior@@6B@" PURGE="-1" COMMENT="" />
    <EXPORT ORDINAL="194" NAME="??_7CAspen@@6B@" PURGE="-1" COMMENT="" />
    <EXPORT ORDINAL="195" NAME="??_7CCollisionQueryResult@@6B@" PURGE="-1" COMMENT="" />
    <EXPORT ORDINAL="196" NAME="??_7CCollisionQueryResultEllipsoid@@6B@" PURGE="-1" COMMENT="" />
    <EXPORT ORDINAL="197" NAME="??_7CCollisionQueryResultTriangles@@6B@" PURGE="-1" COMMENT="" />
    <EXPORT ORDINAL="198" NAME="??_7CEngClient@@6B@" PURGE="-1" COMMENT="" />
    <EXPORT ORDINAL="199" NAME="??_7CEngConsole@@6B@" PURGE="-1" COMMENT="" />
    <EXPORT ORDINAL="200" NAME="??_7CEngMapGuide@@6B@" PURGE="-1" COMMENT="" />
    <EXPORT ORDINAL="201" NAME="??_7CEngPolyInterface@@6B@" PURGE="-1" COMMENT="" />
    <EXPORT ORDINAL="202" NAME="??_7CEngRaytrace@@6B@" PURGE="-1" COMMENT="" />
    <EXPORT ORDINAL="203" NAME="??_7CEngServer@@6B@" PURGE="-1" COMMENT="" />
    <EXPORT ORDINAL="204" NAME="??_7CEngSetup@@6B@" PURGE="-1" COMMENT="" />
    <EXPORT ORDINAL="205" NAME="??_7CEngTerrainInterface@@6B@" PURGE="-1" COMMENT="" />
    <EXPORT ORDINAL="206" NAME="??_7CEngWaterStreamInterface@@6B@" PURGE="-1" COMMENT="" />
    <EXPORT ORDINAL="207" NAME="??_7CInputWinProc@@6B@" PURGE="-1" COMMENT="" />
    <EXPORT ORDINAL="208" NAME="??_7CNetPipe@@6B@" PURGE="-1" COMMENT="" />
    <EXPORT ORDINAL="209" NAME="??_7CNetPipeBuffer@@6B@" PURGE="-1" COMMENT="" />
    <EXPORT ORDINAL="210" NAME="??_7CNetPipeInput@@6B@" PURGE="-1" COMMENT="" />
    <EXPORT ORDINAL="211" NAME="??_7CNetPipeIntMonitor@@6B@" PURGE="-1" COMMENT="" />
    <EXPORT ORDINAL="212" NAME="??_7CNetPipeList@@6B@" PURGE="-1" COMMENT="" />
    <EXPORT ORDINAL="213" NAME="??_7CNetPipeMouse@@6B@" PURGE="-1" COMMENT="" />
    <EXPORT ORDINAL="214" NAME="??_7CNetPipeMsg@@6B@" PURGE="-1" COMMENT="" />
    <EXPORT ORDINAL="215" NAME="??_7CNoise@@6B@" PURGE="-1" COMMENT="" />
    <EXPORT ORDINAL="216" NAME="??_7CPeacheySparseConvolutionNoise@@6B@" PURGE="-1" COMMENT="" />
    <EXPORT ORDINAL="217" NAME="??_7CPeacheyValueConvolutionNoise@@6B@" PURGE="-1" COMMENT="" />
    <EXPORT ORDINAL="218" NAME="??_7CPeacheyValueNoise@@6B@" PURGE="-1" COMMENT="" />
    <EXPORT ORDINAL="219" NAME="??_7CPerlinGradientNoise2@@6B@" PURGE="-1" COMMENT="" />
    <EXPORT ORDINAL="220" NAME="??_7CPerlinGradientNoise@@6B@" PURGE="-1" COMMENT="" />
    <EXPORT ORDINAL="221" NAME="??_7CPlayMovie@@6B@" PURGE="-1" COMMENT="" />
    <EXPORT ORDINAL="222" NAME="??_7CSndfx@@6B@" PURGE="-1" COMMENT="" />
    <EXPORT ORDINAL="223" NAME="??_7CSndfxSW@@6B@" PURGE="-1" COMMENT="" />
    <EXPORT ORDINAL="224" NAME="??_7CThread@@6B@" PURGE="-1" COMMENT="" />
    <EXPORT ORDINAL="225" NAME="??_7CWinProc@@6B@" PURGE="-1" COMMENT="" />
    <EXPORT ORDINAL="226" NAME="??_FCLog@@QAEXXZ" PURGE="0" COMMENT="" />
    <EXPORT ORDINAL="227" NAME="?AddBufferSize@CBufferMemBlocks@@AAEHH@Z" PURGE="4" COMMENT="" />
    <EXPORT ORDINAL="228" NAME="?AddFile@CPackDiskCreator@@AAEXPADH@Z" PURGE="8" COMMENT="" />
    <EXPORT ORDINAL="229" NAME="?AddQueryResult@CCollisionQueryResult@@QAEXPAV1@@Z" PURGE="4" COMMENT="" />
    <EXPORT ORDINAL="230" NAME="?AddSpecialArea@CNetPipeMouse@@QAEHPAUtagMouseSpecialArea@@@Z" PURGE="4" COMMENT="" />
    <EXPORT ORDINAL="231" NAME="?AddTriangle@CCollisionQueryResultTriangles@@QAEXPAM000@Z" PURGE="16" COMMENT="" />
    <EXPORT ORDINAL="232" NAME="?AllocBlank@CBitmap@@QAEHXZ" PURGE="0" COMMENT="" />
    <EXPORT ORDINAL="233" NAME="?AllocMemBlock@CBufferMemBlocks@@QAEPAEHPAH@Z" PURGE="8" COMMENT="" />
    <EXPORT ORDINAL="234" NAME="?AllocPlanes@CCollisionQueryResultTriangles@@IAEHHH@Z" PURGE="8" COMMENT="" />
    <EXPORT ORDINAL="235" NAME="?AllocTriangles@CCollisionQueryResultTriangles@@IAEHH@Z" PURGE="4" COMMENT="" />
    <EXPORT ORDINAL="236" NAME="?AnglesToVector@@YAXMMPAM@Z" PURGE="0" COMMENT="" />
    <EXPORT ORDINAL="237" NAME="?BeginScene@CGrfx@@QAEXXZ" PURGE="0" COMMENT="" />
    <EXPORT ORDINAL="238" NAME="?Bind@CInput@@QAEHHH@Z" PURGE="8" COMMENT="" />
    <EXPORT ORDINAL="239" NAME="?Blit2D@CGrfx@@QAEHHHHHHEHEEEKPAMHEEEH@Z" PURGE="68" COMMENT="" />
    <EXPORT ORDINAL="240" NAME="?Blit2DMapped@CGrfx@@QAEHHHHHHHHHHHHEHEEEKHEEE@Z" PURGE="84" COMMENT="" />
    <EXPORT ORDINAL="241" NAME="?CanRenderToAlphaTexture@CGrfx@@QAEHXZ" PURGE="0" COMMENT="" />
    <EXPORT ORDINAL="242" NAME="?CanRenderToTexture@CGrfx@@QAEHXZ" PURGE="0" COMMENT="" />
    <EXPORT ORDINAL="243" NAME="?CaptureKey@CInput@@QAEHXZ" PURGE="0" COMMENT="" />
    <EXPORT ORDINAL="244" NAME="?Catrom2@CPeacheySparseConvolutionNoise@@QAEMM@Z" PURGE="4" COMMENT="" />
    <EXPORT ORDINAL="245" NAME="?Catrom2@CPeacheyValueConvolutionNoise@@QAEMM@Z" PURGE="4" COMMENT="" />
    <EXPORT ORDINAL="246" NAME="?ChangeResValues@CGrfx@@QAEXHH@Z" PURGE="8" COMMENT="" />
    <EXPORT ORDINAL="247" NAME="?CharRead@CInput@@QAEPADXZ" PURGE="0" COMMENT="" />
    <EXPORT ORDINAL="248" NAME="?CheckAABBTriangleOverlap@@YAHPAM0000@Z" PURGE="0" COMMENT="" />
    <EXPORT ORDINAL="249" NAME="?CheckId@CIdGenerator@@QAEHH@Z" PURGE="4" COMMENT="" />
    <EXPORT ORDINAL="250" NAME="?CheckItem@CNetPipeList@@QAEHH@Z" PURGE="4" COMMENT="" />
    <EXPORT ORDINAL="251" NAME="?CheckKatmaiSupport@@YAHXZ" PURGE="0" COMMENT="" />
    <EXPORT ORDINAL="252" NAME="?CheckPointOnTriangle@@YAHPAM00@Z" PURGE="0" COMMENT="" />
    <EXPORT ORDINAL="253" NAME="?CheckSpecialAreas@CNetPipeMouse@@AAEHXZ" PURGE="0" COMMENT="" />
    <EXPORT ORDINAL="254" NAME="?CheckTextureInLastFrame@CGrfx@@QAEHH@Z" PURGE="4" COMMENT="" />
    <EXPORT ORDINAL="255" NAME="?CheckTwoSpheresIntersect@@YAMPAMM0M0@Z" PURGE="0" COMMENT="" />
    <EXPORT ORDINAL="256" NAME="?CheckWillametteSupport@@YAHXZ" PURGE="0" COMMENT="" />
    <EXPORT ORDINAL="257" NAME="?CircleRaytrace@@YAHMMMMMMMPAM0@Z" PURGE="0" COMMENT="" />
    <EXPORT ORDINAL="258" NAME="?ClassifyTrianglesAsPlanes@CCollisionQueryResultTriangles@@QAEHXZ" PURGE="0" COMMENT="" />
    <EXPORT ORDINAL="259" NAME="?Clear@CIndexedText@@AAEXXZ" PURGE="0" COMMENT="" />
    <EXPORT ORDINAL="260" NAME="?ClearBinds@CInput@@QAEXXZ" PURGE="0" COMMENT="" />
    <EXPORT ORDINAL="261" NAME="?ClearChars@CInput@@QAEXXZ" PURGE="0" COMMENT="" />
    <EXPORT ORDINAL="262" NAME="?ClearKeyMap@CInput@@QAEXXZ" PURGE="0" COMMENT="" />
    <EXPORT ORDINAL="263" NAME="?Close@CDisk@@QAEHH@Z" PURGE="4" COMMENT="" />
    <EXPORT ORDINAL="264" NAME="?Close@CPackDisk@@QAEHH@Z" PURGE="4" COMMENT="" />
    <EXPORT ORDINAL="265" NAME="?Close@CSystemDisk@@QAEHH@Z" PURGE="4" COMMENT="" />
    <EXPORT ORDINAL="266" NAME="?CommandRead@CInput@@QAEFH@Z" PURGE="4" COMMENT="" />
    <EXPORT ORDINAL="267" NAME="?CommandRead@CNetPipeInput@@QAEFH@Z" PURGE="4" COMMENT="" />
    <EXPORT ORDINAL="268" NAME="?CommandRead@CNetPipeMouse@@QAEHH@Z" PURGE="4" COMMENT="" />
    <EXPORT ORDINAL="269" NAME="?CommandWrite@CNetPipeInput@@QAEXH@Z" PURGE="4" COMMENT="" />
    <EXPORT ORDINAL="270" NAME="?CompressKeymap@CNetPipeInput@@AAEXPAFPAE@Z" PURGE="8" COMMENT="" />
    <EXPORT ORDINAL="271" NAME="?CompressP3D@@YAXPAMPAGH@Z" PURGE="0" COMMENT="" />
    <EXPORT ORDINAL="272" NAME="?CompressP4D@@YAXPAMPAGH@Z" PURGE="0" COMMENT="" />
    <EXPORT ORDINAL="273" NAME="?CompressQuaternion@@YAXPAMPAE@Z" PURGE="0" COMMENT="" />
    <EXPORT ORDINAL="274" NAME="?CompressReal@@YAGMH@Z" PURGE="0" COMMENT="" />
    <EXPORT ORDINAL="275" NAME="?CompressedQuaternionToUVN@@YAXPAEPAM@Z" PURGE="0" COMMENT="" />
    <EXPORT ORDINAL="276" NAME="?ConvertFloatScreenX@CGrfx@@QAEHM@Z" PURGE="4" COMMENT="" />
    <EXPORT ORDINAL="277" NAME="?ConvertFloatScreenY@CGrfx@@QAEHM@Z" PURGE="4" COMMENT="" />
    <EXPORT ORDINAL="278" NAME="?ConvertFormat@CGrfx@@AAEHPAE0H00HHH0HHKW4tagTextureType@@0@Z" PURGE="56" COMMENT="" />
    <EXPORT ORDINAL="279" NAME="?CopyCQR@@YAPAVCCollisionQueryResult@@PAV1@@Z" PURGE="0" COMMENT="" />
    <EXPORT ORDINAL="280" NAME="?CopyCurrentCommands@CNetPipeMouse@@AAEXXZ" PURGE="0" COMMENT="" />
    <EXPORT ORDINAL="281" NAME="?CreateAspen@@YAPAVCAspen@@PAD00PAUHINSTANCE__@@PAUHWND__@@2P6AXXZHHHPAUtagSetupData@@@Z" PURGE="0" COMMENT="" />
    <EXPORT ORDINAL="282" NAME="?CreatePack@CPackDiskCreator@@QAEHPADPAUtagPackCreatorParams@@H0@Z" PURGE="16" COMMENT="" />
    <EXPORT ORDINAL="283" NAME="?CreateTexture@CGrfx@@QAEHHHKW4tagTextureType@@HW4tagMMapSamplingType@@H@Z" PURGE="28" COMMENT="" />
    <EXPORT ORDINAL="284" NAME="?CreateUVNFromDirUp@@YAXPAM00@Z" PURGE="0" COMMENT="" />
    <EXPORT ORDINAL="285" NAME="?CreateUVNFromVector@@YAXPAM0@Z" PURGE="0" COMMENT="" />
    <EXPORT ORDINAL="286" NAME="?Debug@CLog@@QAAXPADZZ" PURGE="0" COMMENT="" />
    <EXPORT ORDINAL="287" NAME="?DecompressP3D@@YAXPAGPAMH@Z" PURGE="0" COMMENT="" />
    <EXPORT ORDINAL="288" NAME="?DecompressP4D@@YAXPAGPAMH@Z" PURGE="0" COMMENT="" />
    <EXPORT ORDINAL="289" NAME="?DecompressQuaternion@@YAXPAEPAM@Z" PURGE="0" COMMENT="" />
    <EXPORT ORDINAL="290" NAME="?DecompressReal@@YAMGH@Z" PURGE="0" COMMENT="" />
    <EXPORT ORDINAL="291" NAME="?Delete@CDisk@@QAEHPADE@Z" PURGE="8" COMMENT="" />
    <EXPORT ORDINAL="292" NAME="?Delete@CPackDisk@@QAEHPAD@Z" PURGE="4" COMMENT="" />
    <EXPORT ORDINAL="293" NAME="?Delete@CSystemDisk@@QAEHPAD@Z" PURGE="4" COMMENT="" />
    <EXPORT ORDINAL="294" NAME="?DeleteAllItems@CNetPipeList@@QAEXXZ" PURGE="0" COMMENT="" />
    <EXPORT ORDINAL="295" NAME="?DeleteItem@CNetPipeList@@QAEHH@Z" PURGE="4" COMMENT="" />
    <EXPORT ORDINAL="296" NAME="?DeleteMessage@CNetPipeMsg@@AAEXW4tagNPMsgBox@@H@Z" PURGE="8" COMMENT="" />
    <EXPORT ORDINAL="297" NAME="?DeleteOldIncomingMessages@CNetPipeMsg@@AAEXXZ" PURGE="0" COMMENT="" />
    <EXPORT ORDINAL="298" NAME="?DestroyAspen@@YAXPAVCAspen@@@Z" PURGE="0" COMMENT="" />
    <EXPORT ORDINAL="299" NAME="?Draw3DLine@CGrfx@@QAEXPAM0EEEM@Z" PURGE="24" COMMENT="" />
    <EXPORT ORDINAL="300" NAME="?DrawCube@CGrfx@@QAEXPAMEEEMM@Z" PURGE="24" COMMENT="" />
    <EXPORT ORDINAL="301" NAME="?DrawLine@CGrfx@@QAEXHHHHEEEE@Z" PURGE="32" COMMENT="" />
    <EXPORT ORDINAL="302" NAME="?DrawRectangle@CGrfx@@QAEXHHHHEEEE@Z" PURGE="32" COMMENT="" />
    <EXPORT ORDINAL="303" NAME="?DrawScaledText@CGrfx@@QAAHHHHEEEEMMPADZZ" PURGE="0" COMMENT="" />
    <EXPORT ORDINAL="304" NAME="?DrawScaledTextFS@CGrfx@@QAAHHHHEEEEMMPADZZ" PURGE="0" COMMENT="" />
    <EXPORT ORDINAL="305" NAME="?DrawTextA@CGrfx@@QAAHHHHEEEEPADZZ" PURGE="0" COMMENT="" />
    <EXPORT ORDINAL="306" NAME="?DrawTextFS@CGrfx@@QAAHHHHEEEEPADZZ" PURGE="0" COMMENT="" />
    <EXPORT ORDINAL="307" NAME="?DupString@@YAPADPAD@Z" PURGE="0" COMMENT="" />
    <EXPORT ORDINAL="308" NAME="?EnableOriginalPresentParameters@CGrfx@@QAEXXZ" PURGE="0" COMMENT="" />
    <EXPORT ORDINAL="309" NAME="?EnableSpecialPresentParameters@CGrfx@@QAEXXZ" PURGE="0" COMMENT="" />
    <EXPORT ORDINAL="310" NAME="?EndScene@CGrfx@@QAEXXZ" PURGE="0" COMMENT="" />
    <EXPORT ORDINAL="311" NAME="?Error@CLog@@QAAXPADZZ" PURGE="0" COMMENT="" />
    <EXPORT ORDINAL="312" NAME="?EulerToQuaternion@@YAXPAM0@Z" PURGE="0" COMMENT="" />
    <EXPORT ORDINAL="313" NAME="?EulerToUVN@@YAXPAM0@Z" PURGE="0" COMMENT="" />
    <EXPORT ORDINAL="314" NAME="?Exist@CDisk@@QAEHPADE@Z" PURGE="8" COMMENT="" />
    <EXPORT ORDINAL="315" NAME="?Exist@CPackDisk@@QAEHPAD@Z" PURGE="4" COMMENT="" />
    <EXPORT ORDINAL="316" NAME="?Exist@CSystemDisk@@QAEHPAD@Z" PURGE="4" COMMENT="" />
    <EXPORT ORDINAL="317" NAME="?FadeFinished@CSndfx@@QAEHXZ" PURGE="0" COMMENT="" />
    <EXPORT ORDINAL="318" NAME="?FastAlloc@@YAPAXH@Z" PURGE="0" COMMENT="" />
    <EXPORT ORDINAL="319" NAME="?FastBias@@YAMMM@Z" PURGE="0" COMMENT="" />
    <EXPORT ORDINAL="320" NAME="?FastClearAlloc@@YAPAXH@Z" PURGE="0" COMMENT="" />
    <EXPORT ORDINAL="321" NAME="?FastCopy@CBoundingBox@@QAEXPAV1@@Z" PURGE="4" COMMENT="" />
    <EXPORT ORDINAL="322" NAME="?FastFree@@YAXPAX@Z" PURGE="0" COMMENT="" />
    <EXPORT ORDINAL="323" NAME="?FastGain@@YAMMM@Z" PURGE="0" COMMENT="" />
    <EXPORT ORDINAL="324" NAME="?FillRect@CGrfx@@QAEHPAUtagRECT@@HHHHH@Z" PURGE="24" COMMENT="" />
    <EXPORT ORDINAL="325" NAME="?FillScreen@CGrfx@@QAEHHHHHH@Z" PURGE="20" COMMENT="" />
    <EXPORT ORDINAL="326" NAME="?FindAllFiles@CDisk@@QAEHPAD0E@Z" PURGE="12" COMMENT="" />
    <EXPORT ORDINAL="327" NAME="?FindAllFiles@CPackDisk@@QAEHPAD0@Z" PURGE="8" COMMENT="" />
    <EXPORT ORDINAL="328" NAME="?FindAllFiles@CSystemDisk@@QAEHPAD0@Z" PURGE="8" COMMENT="" />
    <EXPORT ORDINAL="329" NAME="?FindDepthStencilFormat@CGrfx@@AAE?AW4_D3DFORMAT@@HW42@@Z" PURGE="8" COMMENT="" />
    <EXPORT ORDINAL="330" NAME="?FindFilesRec@CSystemDisk@@AAEXPAD0@Z" PURGE="8" COMMENT="" />
    <EXPORT ORDINAL="331" NAME="?Finish@CBufferMemBlocks@@QAEXXZ" PURGE="0" COMMENT="" />
    <EXPORT ORDINAL="332" NAME="?Finish@CIdGenerator@@QAEXXZ" PURGE="0" COMMENT="" />
    <EXPORT ORDINAL="333" NAME="?Finish@CInput@@QAEXXZ" PURGE="0" COMMENT="" />
    <EXPORT ORDINAL="334" NAME="?Finish@CLog@@QAEXXZ" PURGE="0" COMMENT="" />
    <EXPORT ORDINAL="335" NAME="?Finish@CMemTempBuffer@@QAEXXZ" PURGE="0" COMMENT="" />
    <EXPORT ORDINAL="336" NAME="?Finish@CMemoryBuffer@@QAEXXZ" PURGE="0" COMMENT="" />
    <EXPORT ORDINAL="337" NAME="?Finish@CNetPipe@@UAEXXZ" PURGE="0" COMMENT="" />
    <EXPORT ORDINAL="338" NAME="?Finish@CSndfx@@QAEXH@Z" PURGE="4" COMMENT="" />
    <EXPORT ORDINAL="339" NAME="?Finish@CTextBuffer@@QAEXXZ" PURGE="0" COMMENT="" />
    <EXPORT ORDINAL="340" NAME="?FromEnd@CDisk@@QAEHHH@Z" PURGE="8" COMMENT="" />
    <EXPORT ORDINAL="341" NAME="?FromEnd@CPackDisk@@QAEHHH@Z" PURGE="8" COMMENT="" />
    <EXPORT ORDINAL="342" NAME="?FromEnd@CSystemDisk@@QAEHHH@Z" PURGE="8" COMMENT="" />
    <EXPORT ORDINAL="343" NAME="?FullCopy@CBoundingBox@@QAEXPAV1@@Z" PURGE="4" COMMENT="" />
    <EXPORT ORDINAL="344" NAME="?GenerateId@CPackDisk@@AAEHXZ" PURGE="0" COMMENT="" />
    <EXPORT ORDINAL="345" NAME="?Get@CConfig@@QAEPADPAD@Z" PURGE="4" COMMENT="" />
    <EXPORT ORDINAL="346" NAME="?GetActivationStatus@CInput@@QAEHXZ" PURGE="0" COMMENT="" />
    <EXPORT ORDINAL="347" NAME="?GetAllListenerParameters@CSndfx@@UAEHPAUtagListenerSettings@@@Z" PURGE="4" COMMENT="" />
    <EXPORT ORDINAL="348" NAME="?GetAllListenerParameters@CSndfxSW@@UAEHPAUtagListenerSettings@@@Z" PURGE="4" COMMENT="" />
    <EXPORT ORDINAL="349" NAME="?GetAllPlaybackParameters@CSndfx@@UAEHHPAUtagPlaybackSettings@@@Z" PURGE="8" COMMENT="" />
    <EXPORT ORDINAL="350" NAME="?GetAllPlaybackParameters@CSndfxSW@@UAEHHPAUtagPlaybackSettings@@@Z" PURGE="8" COMMENT="" />
    <EXPORT ORDINAL="351" NAME="?GetAnisotropicLevel@CGrfx@@QAEHXZ" PURGE="0" COMMENT="" />
    <EXPORT ORDINAL="352" NAME="?GetBPP@CBitmap@@QAEHXZ" PURGE="0" COMMENT="" />
    <EXPORT ORDINAL="353" NAME="?GetBPS@CNetPipe@@QAEXPAH0@Z" PURGE="8" COMMENT="" />
    <EXPORT ORDINAL="354" NAME="?GetBackBuffer@CGrfx@@QAEPAUIDirect3DSurface8@@XZ" PURGE="0" COMMENT="" />
    <EXPORT ORDINAL="355" NAME="?GetBinds@CInput@@QAEPAEXZ" PURGE="0" COMMENT="" />
    <EXPORT ORDINAL="356" NAME="?GetBuffer@CBitmap@@QAEPAEXZ" PURGE="0" COMMENT="" />
    <EXPORT ORDINAL="357" NAME="?GetBuffer@CMemTempBuffer@@QAEPAXH@Z" PURGE="4" COMMENT="" />
    <EXPORT ORDINAL="358" NAME="?GetCMPos@CBoundingBox@@QAEPAMXZ" PURGE="0" COMMENT="" />
    <EXPORT ORDINAL="359" NAME="?GetCRC@CDisk@@QAEHPADPAHE@Z" PURGE="12" COMMENT="" />
    <EXPORT ORDINAL="360" NAME="?GetCRC@CPackDisk@@QAEHPADPAH@Z" PURGE="8" COMMENT="" />
    <EXPORT ORDINAL="361" NAME="?GetCRC@CSystemDisk@@QAEHPADPAH@Z" PURGE="8" COMMENT="" />
    <EXPORT ORDINAL="362" NAME="?GetCenter@CCollisionQueryResultEllipsoid@@QAEPAMXZ" PURGE="0" COMMENT="" />
    <EXPORT ORDINAL="363" NAME="?GetClosestPointOnLine@@YAHPAM000@Z" PURGE="0" COMMENT="" />
    <EXPORT ORDINAL="364" NAME="?GetConfiguration@CBitmap@@QAEHPAH000@Z" PURGE="16" COMMENT="" />
    <EXPORT ORDINAL="365" NAME="?GetCustomData@CMemoryBuffer@@QAEPAEPAH@Z" PURGE="4" COMMENT="" />
    <EXPORT ORDINAL="366" NAME="?GetDIPointer@CInput@@QAEPAUIDirectInput8A@@XZ" PURGE="0" COMMENT="" />
    <EXPORT ORDINAL="367" NAME="?GetDepthBuffer@CGrfx@@QAEPAUIDirect3DSurface8@@XZ" PURGE="0" COMMENT="" />
    <EXPORT ORDINAL="368" NAME="?GetDirect3D@CGrfx@@QAEPAUIDirect3D8@@XZ" PURGE="0" COMMENT="" />
    <EXPORT ORDINAL="369" NAME="?GetDirect3DDevice@CGrfx@@QAEPAUIDirect3DDevice8@@XZ" PURGE="0" COMMENT="" />
    <EXPORT ORDINAL="370" NAME="?GetDistancePointAndLine@@YAMPAM00@Z" PURGE="0" COMMENT="" />
    <EXPORT ORDINAL="371" NAME="?GetFileMemPointer@CDisk@@QAEPAXH@Z" PURGE="4" COMMENT="" />
    <EXPORT ORDINAL="372" NAME="?GetFileMemPointer@CPackDisk@@QAEPAXH@Z" PURGE="4" COMMENT="" />
    <EXPORT ORDINAL="373" NAME="?GetFileMemPointer@CSystemDisk@@QAEPAXH@Z" PURGE="4" COMMENT="" />
    <EXPORT ORDINAL="374" NAME="?GetFirstItem@CNetPipeList@@QAEPAEPAH@Z" PURGE="4" COMMENT="" />
    <EXPORT ORDINAL="375" NAME="?GetFlags@CPackDisk@@QAEHH@Z" PURGE="4" COMMENT="" />
    <EXPORT ORDINAL="376" NAME="?GetFoundFile@CDisk@@QAEHHPADH@Z" PURGE="12" COMMENT="" />
    <EXPORT ORDINAL="377" NAME="?GetFoundFile@CPackDisk@@QAEHHPADH@Z" PURGE="12" COMMENT="" />
    <EXPORT ORDINAL="378" NAME="?GetFoundFile@CSystemDisk@@QAEHHPADH@Z" PURGE="12" COMMENT="" />
    <EXPORT ORDINAL="379" NAME="?GetFreeIndex@CIdGenerator@@AAEHXZ" PURGE="0" COMMENT="" />
    <EXPORT ORDINAL="380" NAME="?GetFullScreenStatus@CGrfx@@QAEHXZ" PURGE="0" COMMENT="" />
    <EXPORT ORDINAL="381" NAME="?GetGamePadPointerAddress@CInput@@QAEPAPAUIDirectInputDevice8A@@XZ" PURGE="0" COMMENT="" />
    <EXPORT ORDINAL="382" NAME="?GetGamma@CGrfx@@QAEMXZ" PURGE="0" COMMENT="" />
    <EXPORT ORDINAL="383" NAME="?GetHasCubicTextures@CGrfx@@QAEHXZ" PURGE="0" COMMENT="" />
    <EXPORT ORDINAL="384" NAME="?GetHasHWTL@CGrfx@@QAEHXZ" PURGE="0" COMMENT="" />
    <EXPORT ORDINAL="385" NAME="?GetHasMultiTexturing@CGrfx@@QAEHXZ" PURGE="0" COMMENT="" />
    <EXPORT ORDINAL="386" NAME="?GetHasTrilinear@CGrfx@@QAEHXZ" PURGE="0" COMMENT="" />
    <EXPORT ORDINAL="387" NAME="?GetHasWFog@CGrfx@@QAEHXZ" PURGE="0" COMMENT="" />
    <EXPORT ORDINAL="388" NAME="?GetHeight@CBitmap@@QAEHXZ" PURGE="0" COMMENT="" />
    <EXPORT ORDINAL="389" NAME="?GetId@CAppObjectBehavior@@QAEHXZ" PURGE="0" COMMENT="" />
    <EXPORT ORDINAL="390" NAME="?GetId@CIdGenerator@@QAEHXZ" PURGE="0" COMMENT="" />
    <EXPORT ORDINAL="391" NAME="?GetIsPlaying@CPlayMovie@@QAEHXZ" PURGE="0" COMMENT="" />
    <EXPORT ORDINAL="392" NAME="?GetIsUpdatedDriver@CGrfx@@QAEHXZ" PURGE="0" COMMENT="" />
    <EXPORT ORDINAL="393" NAME="?GetJPGInfo@@YAHPAVCDisk@@PADPAH22@Z" PURGE="0" COMMENT="" />
    <EXPORT ORDINAL="394" NAME="?GetKey@CIndexedText@@QAAPADPADZZ" PURGE="0" COMMENT="" />
    <EXPORT ORDINAL="395" NAME="?GetKeyMap@CInput@@QAEPAFXZ" PURGE="0" COMMENT="" />
    <EXPORT ORDINAL="396" NAME="?GetKeyReadingStatus@CInput@@QAEHXZ" PURGE="0" COMMENT="" />
    <EXPORT ORDINAL="397" NAME="?GetKeyString@CInput@@QAEPADH@Z" PURGE="4" COMMENT="" />
    <EXPORT ORDINAL="398" NAME="?GetLastFilename@CConfig@@QAEPADXZ" PURGE="0" COMMENT="" />
    <EXPORT ORDINAL="399" NAME="?GetLatency@CNetPipe@@QAEMXZ" PURGE="0" COMMENT="" />
    <EXPORT ORDINAL="400" NAME="?GetLines@CTextBuffer@@QAEHXZ" PURGE="0" COMMENT="" />
    <EXPORT ORDINAL="401" NAME="?GetMainWindow@CGrfx@@QAEPAUHWND__@@XZ" PURGE="0" COMMENT="" />
    <EXPORT ORDINAL="402" NAME="?GetMemBlockPointer@CBufferMemBlocks@@QAEPAEH@Z" PURGE="4" COMMENT="" />
    <EXPORT ORDINAL="403" NAME="?GetMinMax@CBoundingBox@@QAEPAMXZ" PURGE="0" COMMENT="" />
    <EXPORT ORDINAL="404" NAME="?GetMouseAbsPos@CInput@@QAEXPAH0@Z" PURGE="8" COMMENT="" />
    <EXPORT ORDINAL="405" NAME="?GetMousePos@CNetPipeMouse@@QAEXPAM0@Z" PURGE="8" COMMENT="" />
    <EXPORT ORDINAL="406" NAME="?GetNextItem@CNetPipeList@@QAEPAEPAH@Z" PURGE="4" COMMENT="" />
    <EXPORT ORDINAL="407" NAME="?GetNextQueryResult@CCollisionQueryResult@@QAEPAV1@XZ" PURGE="0" COMMENT="" />
    <EXPORT ORDINAL="408" NAME="?GetNumPlanes@CCollisionQueryResultTriangles@@QAEHXZ" PURGE="0" COMMENT="" />
    <EXPORT ORDINAL="409" NAME="?GetNumTriangles@CCollisionQueryResultTriangles@@QAEHXZ" PURGE="0" COMMENT="" />
    <EXPORT ORDINAL="410" NAME="?GetNumTrianglesOfPlane@CCollisionQueryResultTriangles@@QAEHH@Z" PURGE="4" COMMENT="" />
    <EXPORT ORDINAL="411" NAME="?GetNumberOfBlendStages@CGrfx@@QAEHXZ" PURGE="0" COMMENT="" />
    <EXPORT ORDINAL="412" NAME="?GetNumberOfItems@CNetPipeList@@QAEHXZ" PURGE="0" COMMENT="" />
    <EXPORT ORDINAL="413" NAME="?GetNumberOfPlaybacks@CSndfx@@QAEHXZ" PURGE="0" COMMENT="" />
    <EXPORT ORDINAL="414" NAME="?GetNumberOfReadMessages@CNetPipeMsg@@QAEHXZ" PURGE="0" COMMENT="" />
    <EXPORT ORDINAL="415" NAME="?GetNumberOfSimTextures@CGrfx@@QAEHXZ" PURGE="0" COMMENT="" />
    <EXPORT ORDINAL="416" NAME="?GetNumberOfSounds@CSndfx@@QAEHXZ" PURGE="0" COMMENT="" />
    <EXPORT ORDINAL="417" NAME="?GetNumberOfTextures@CGrfx@@QAEHXZ" PURGE="0" COMMENT="" />
    <EXPORT ORDINAL="418" NAME="?GetObjectA@CAppObjectBehavior@@QAEPAVCEngObject@@XZ" PURGE="0" COMMENT="" />
    <EXPORT ORDINAL="419" NAME="?GetOnGround@CBoundingBox@@QAEHXZ" PURGE="0" COMMENT="" />
    <EXPORT ORDINAL="420" NAME="?GetOnGroundTestPoint@CBoundingBox@@QAEXPAM@Z" PURGE="4" COMMENT="" />
    <EXPORT ORDINAL="421" NAME="?GetOutgoingStatus@CNetPipeMouse@@QAEHXZ" PURGE="0" COMMENT="" />
    <EXPORT ORDINAL="422" NAME="?GetOverhead@CNetPipe@@QAEMXZ" PURGE="0" COMMENT="" />
    <EXPORT ORDINAL="423" NAME="?GetOwner@CCollisionQueryResult@@QAEPAXXZ" PURGE="0" COMMENT="" />
    <EXPORT ORDINAL="424" NAME="?GetPCXRes@@YAHPAVCDisk@@PADPAH2@Z" PURGE="0" COMMENT="" />
    <EXPORT ORDINAL="425" NAME="?GetPNGInfo@@YAHPAVCDisk@@PADPAH22222@Z" PURGE="0" COMMENT="" />
    <EXPORT ORDINAL="426" NAME="?GetPackedSize@CPackDisk@@QAEHH@Z" PURGE="4" COMMENT="" />
    <EXPORT ORDINAL="427" NAME="?GetPlaneD@CBoundingBox@@QAEPAMXZ" PURGE="0" COMMENT="" />
    <EXPORT ORDINAL="428" NAME="?GetPlaneDistance@@YAMPAM00@Z" PURGE="0" COMMENT="" />
    <EXPORT ORDINAL="429" NAME="?GetPlaybackPosition@CSndfx@@QAEHH@Z" PURGE="4" COMMENT="" />
    <EXPORT ORDINAL="430" NAME="?GetPointTriangleDist@@YAMPAM000@Z" PURGE="0" COMMENT="" />
    <EXPORT ORDINAL="431" NAME="?GetPos@CCollisionQueryResultTriangles@@QAEPAMXZ" PURGE="0" COMMENT="" />
    <EXPORT ORDINAL="432" NAME="?GetPosition@CDisk@@QAEHH@Z" PURGE="4" COMMENT="" />
    <EXPORT ORDINAL="433" NAME="?GetPosition@CPackDisk@@QAEHH@Z" PURGE="4" COMMENT="" />
    <EXPORT ORDINAL="434" NAME="?GetPosition@CSystemDisk@@QAEHH@Z" PURGE="4" COMMENT="" />
    <EXPORT ORDINAL="435" NAME="?GetPreviousQueryResult@CCollisionQueryResult@@QAEPAV1@XZ" PURGE="0" COMMENT="" />
    <EXPORT ORDINAL="436" NAME="?GetPriority@CThread@@QAE?AW4tagThreadPriority@@XZ" PURGE="0" COMMENT="" />
    <EXPORT ORDINAL="437" NAME="?GetRadius@CBoundingBox@@QAEMXZ" PURGE="0" COMMENT="" />
    <EXPORT ORDINAL="438" NAME="?GetRadius@CCollisionQueryResultEllipsoid@@QAEPAMXZ" PURGE="0" COMMENT="" />
    <EXPORT ORDINAL="439" NAME="?GetRenderWindow@CGrfx@@QAEPAUHWND__@@XZ" PURGE="0" COMMENT="" />
    <EXPORT ORDINAL="440" NAME="?GetScaledTextFSSize@CGrfx@@QAAHHPAH0MMPADZZ" PURGE="0" COMMENT="" />
    <EXPORT ORDINAL="441" NAME="?GetScaledTextSize@CGrfx@@QAAHHPAH0MMPADZZ" PURGE="0" COMMENT="" />
    <EXPORT ORDINAL="442" NAME="?GetScreenShot@CGrfx@@QAEHPAPAEPAH1@Z" PURGE="12" COMMENT="" />
    <EXPORT ORDINAL="443" NAME="?GetSize@CBitmap@@QAEHXZ" PURGE="0" COMMENT="" />
    <EXPORT ORDINAL="444" NAME="?GetSize@CBufferMemBlocks@@QAEHXZ" PURGE="0" COMMENT="" />
    <EXPORT ORDINAL="445" NAME="?GetSize@CDisk@@QAEHH@Z" PURGE="4" COMMENT="" />
    <EXPORT ORDINAL="446" NAME="?GetSize@CPackDisk@@QAEHH@Z" PURGE="4" COMMENT="" />
    <EXPORT ORDINAL="447" NAME="?GetSize@CSystemDisk@@QAEHH@Z" PURGE="4" COMMENT="" />
    <EXPORT ORDINAL="448" NAME="?GetSound@CSndfx@@QAEPAUtagSound@@H@Z" PURGE="4" COMMENT="" />
    <EXPORT ORDINAL="449" NAME="?GetSoundFilename@CSndfx@@QAEPADH@Z" PURGE="4" COMMENT="" />
    <EXPORT ORDINAL="450" NAME="?GetSoundId@CSndfx@@QAEHPAD@Z" PURGE="4" COMMENT="" />
    <EXPORT ORDINAL="451" NAME="?GetSoundSize@CSndfx@@QAEHH@Z" PURGE="4" COMMENT="" />
    <EXPORT ORDINAL="452" NAME="?GetSoundStreamDuration@CSndfx@@QAEMXZ" PURGE="0" COMMENT="" />
    <EXPORT ORDINAL="453" NAME="?GetSoundStreamNotificationEventPointer@CSndfx@@QAEPAPAXXZ" PURGE="0" COMMENT="" />
    <EXPORT ORDINAL="454" NAME="?GetSoundStreamProgress@CSndfx@@QAEMXZ" PURGE="0" COMMENT="" />
    <EXPORT ORDINAL="455" NAME="?GetSoundStreamVolume@CSndfx@@QAEMXZ" PURGE="0" COMMENT="" />
    <EXPORT ORDINAL="456" NAME="?GetSpecialAreaChecking@CNetPipeMouse@@QAEHXZ" PURGE="0" COMMENT="" />
    <EXPORT ORDINAL="457" NAME="?GetSpecialAreaStatus@CNetPipeMouse@@QAEHPAH0@Z" PURGE="8" COMMENT="" />
    <EXPORT ORDINAL="458" NAME="?GetState@CThread@@QAE?AW4tagThreadState@@XZ" PURGE="0" COMMENT="" />
    <EXPORT ORDINAL="459" NAME="?GetStatus@CNetPipeInput@@QAEHXZ" PURGE="0" COMMENT="" />
    <EXPORT ORDINAL="460" NAME="?GetStatus@CNetPipeMouse@@QAEHXZ" PURGE="0" COMMENT="" />
    <EXPORT ORDINAL="461" NAME="?GetStringParm@@YAHPAD00H@Z" PURGE="0" COMMENT="" />
    <EXPORT ORDINAL="462" NAME="?GetTGAInfo@@YAHPAVCDisk@@PADPAH22@Z" PURGE="0" COMMENT="" />
    <EXPORT ORDINAL="463" NAME="?GetTessVert@CBoundingBox@@QAEPAMXZ" PURGE="0" COMMENT="" />
    <EXPORT ORDINAL="464" NAME="?GetTessVertCount@CBoundingBox@@QAEHXZ" PURGE="0" COMMENT="" />
    <EXPORT ORDINAL="465" NAME="?GetText@CIndexedText@@QAAPADPADZZ" PURGE="0" COMMENT="" />
    <EXPORT ORDINAL="466" NAME="?GetText@CTextBuffer@@QAEPADH@Z" PURGE="4" COMMENT="" />
    <EXPORT ORDINAL="467" NAME="?GetTextBuffer@CConfig@@QAEPAVCTextBuffer@@XZ" PURGE="0" COMMENT="" />
    <EXPORT ORDINAL="468" NAME="?GetTextBuffer@CLog@@QAEPAVCTextBuffer@@XZ" PURGE="0" COMMENT="" />
    <EXPORT ORDINAL="469" NAME="?GetTextSize@CGrfx@@QAAHHPAH0PADZZ" PURGE="0" COMMENT="" />
    <EXPORT ORDINAL="470" NAME="?GetTextSizeFS@CGrfx@@QAAHHPAH0PADZZ" PURGE="0" COMMENT="" />
    <EXPORT ORDINAL="471" NAME="?GetTexture@CGrfx@@QAEPAUIDirect3DBaseTexture8@@H@Z" PURGE="4" COMMENT="" />
    <EXPORT ORDINAL="472" NAME="?GetTextureBitmapInfo@CGrfx@@QAEHPADPAH11111@Z" PURGE="28" COMMENT="" />
    <EXPORT ORDINAL="473" NAME="?GetTextureFilename@CGrfx@@QAEPADH@Z" PURGE="4" COMMENT="" />
    <EXPORT ORDINAL="474" NAME="?GetTextureGlobalFlags@CGrfx@@QAEKXZ" PURGE="0" COMMENT="" />
    <EXPORT ORDINAL="475" NAME="?GetTextureId@CGrfx@@QAEHPAD@Z" PURGE="4" COMMENT="" />
    <EXPORT ORDINAL="476" NAME="?GetTextureInfo@CGrfx@@QAEPAUtagTexture@@H@Z" PURGE="4" COMMENT="" />
    <EXPORT ORDINAL="477" NAME="?GetTextureMediumColor@CGrfx@@QAEHHPAE@Z" PURGE="8" COMMENT="" />
    <EXPORT ORDINAL="478" NAME="?GetTextureMemCopy@CGrfx@@QAEPAEH@Z" PURGE="4" COMMENT="" />
    <EXPORT ORDINAL="479" NAME="?GetTextureOptions@CGrfx@@QAEXPAKPAH1@Z" PURGE="12" COMMENT="" />
    <EXPORT ORDINAL="480" NAME="?GetTextureResolution@CGrfx@@QAEHHPAH0H@Z" PURGE="16" COMMENT="" />
    <EXPORT ORDINAL="481" NAME="?GetTextureSize@CGrfx@@QAEHH@Z" PURGE="4" COMMENT="" />
    <EXPORT ORDINAL="482" NAME="?GetTextureType@CGrfx@@QAE?AW4tagTextureType@@H@Z" PURGE="4" COMMENT="" />
    <EXPORT ORDINAL="483" NAME="?GetTime@@YAXPAM@Z" PURGE="0" COMMENT="" />
    <EXPORT ORDINAL="484" NAME="?GetTriIndexOfPlane@CCollisionQueryResultTriangles@@QAEHHH@Z" PURGE="8" COMMENT="" />
    <EXPORT ORDINAL="485" NAME="?GetTriangleNormal@CCollisionQueryResultTriangles@@QAEPAMH@Z" PURGE="4" COMMENT="" />
    <EXPORT ORDINAL="486" NAME="?GetTriangleVerts@CCollisionQueryResultTriangles@@QAEPAMH@Z" PURGE="4" COMMENT="" />
    <EXPORT ORDINAL="487" NAME="?GetType@CCollisionQueryResultEllipsoid@@UAE?AW4tagCollisionQueryResultType@@XZ" PURGE="0" COMMENT="" />
    <EXPORT ORDINAL="488" NAME="?GetType@CCollisionQueryResultTriangles@@UAE?AW4tagCollisionQueryResultType@@XZ" PURGE="0" COMMENT="" />
    <EXPORT ORDINAL="489" NAME="?GetUVN@CBoundingBox@@QAEPAMXZ" PURGE="0" COMMENT="" />
    <EXPORT ORDINAL="490" NAME="?GetUVN@CCollisionQueryResultEllipsoid@@QAEPAMXZ" PURGE="0" COMMENT="" />
    <EXPORT ORDINAL="491" NAME="?GetUVN@CCollisionQueryResultTriangles@@QAEPAMXZ" PURGE="0" COMMENT="" />
    <EXPORT ORDINAL="492" NAME="?GetUsage@CIdGenerator@@QAEHXZ" PURGE="0" COMMENT="" />
    <EXPORT ORDINAL="493" NAME="?GetVPos@CBoundingBox@@QAEPAMXZ" PURGE="0" COMMENT="" />
    <EXPORT ORDINAL="494" NAME="?GetVert@CBoundingBox@@QAEPAMXZ" PURGE="0" COMMENT="" />
    <EXPORT ORDINAL="495" NAME="?GetVideoMode@CGrfx@@QAEHPAH00@Z" PURGE="12" COMMENT="" />
    <EXPORT ORDINAL="496" NAME="?GetViewPortMinMaxZ@CGrfx@@QAEXPAM0@Z" PURGE="8" COMMENT="" />
    <EXPORT ORDINAL="497" NAME="?GetWasStoped@CPlayMovie@@QAEHXZ" PURGE="0" COMMENT="" />
    <EXPORT ORDINAL="498" NAME="?GetWidth@CBitmap@@QAEHXZ" PURGE="0" COMMENT="" />
    <EXPORT ORDINAL="499" NAME="?GuessQuaternion@CInterpolatedQuaternion@@QAEHPAMM@Z" PURGE="8" COMMENT="" />
    <EXPORT ORDINAL="500" NAME="?GuessReal@CInterpolatedReal@@QAEHPAMM@Z" PURGE="8" COMMENT="" />
    <EXPORT ORDINAL="501" NAME="?GuessRealXYZ@CInterpolatedRealXYZ@@QAEHPAMM@Z" PURGE="8" COMMENT="" />
    <EXPORT ORDINAL="502" NAME="?HasBumpMap@CGrfx@@QAEHXZ" PURGE="0" COMMENT="" />
    <EXPORT ORDINAL="503" NAME="?HasNewInfo@CNetPipeBuffer@@QAEHH@Z" PURGE="4" COMMENT="" />
    <EXPORT ORDINAL="504" NAME="?HeteroTerrain@CFractal@@QAEMPAMM@Z" PURGE="8" COMMENT="" />
    <EXPORT ORDINAL="505" NAME="?HybridMultifractal@CFractal@@QAEMPAMMM@Z" PURGE="12" COMMENT="" />
    <EXPORT ORDINAL="506" NAME="?IdToIndex@CIdGenerator@@QAEHH@Z" PURGE="4" COMMENT="" />
    <EXPORT ORDINAL="507" NAME="?Incoming@CNetPipe@@UAEHPAEH@Z" PURGE="8" COMMENT="" />
    <EXPORT ORDINAL="508" NAME="?Incoming@CNetPipeBuffer@@UAEHPAEH@Z" PURGE="8" COMMENT="" />
    <EXPORT ORDINAL="509" NAME="?Incoming@CNetPipeInput@@UAEHPAEH@Z" PURGE="8" COMMENT="" />
    <EXPORT ORDINAL="510" NAME="?Incoming@CNetPipeIntMonitor@@UAEHPAEH@Z" PURGE="8" COMMENT="" />
    <EXPORT ORDINAL="511" NAME="?Incoming@CNetPipeList@@UAEHPAEH@Z" PURGE="8" COMMENT="" />
    <EXPORT ORDINAL="512" NAME="?Incoming@CNetPipeMouse@@UAEHPAEH@Z" PURGE="8" COMMENT="" />
    <EXPORT ORDINAL="513" NAME="?Incoming@CNetPipeMsg@@UAEHPAEH@Z" PURGE="8" COMMENT="" />
    <EXPORT ORDINAL="514" NAME="?Init@CBoundingBox@@QAEXPAM000@Z" PURGE="16" COMMENT="" />
    <EXPORT ORDINAL="515" NAME="?Init@CBufferMemBlocks@@QAEHHH@Z" PURGE="8" COMMENT="" />
    <EXPORT ORDINAL="516" NAME="?Init@CIdGenerator@@QAEHH@Z" PURGE="4" COMMENT="" />
    <EXPORT ORDINAL="517" NAME="?Init@CInput@@QAEHPAUHINSTANCE__@@PAUHWND__@@H@Z" PURGE="12" COMMENT="" />
    <EXPORT ORDINAL="518" NAME="?Init@CInterpolatedQuaternion@@QAEXM@Z" PURGE="4" COMMENT="" />
    <EXPORT ORDINAL="519" NAME="?Init@CInterpolatedReal@@QAEXPAUtagInterInit@@@Z" PURGE="4" COMMENT="" />
    <EXPORT ORDINAL="520" NAME="?Init@CInterpolatedRealXYZ@@QAEXPAUtagInterInit@@@Z" PURGE="4" COMMENT="" />
    <EXPORT ORDINAL="521" NAME="?Init@CLog@@QAEHPAD@Z" PURGE="4" COMMENT="" />
    <EXPORT ORDINAL="522" NAME="?Init@CMemTempBuffer@@QAEHHH@Z" PURGE="8" COMMENT="" />
    <EXPORT ORDINAL="523" NAME="?Init@CMemoryBuffer@@QAEHHH@Z" PURGE="8" COMMENT="" />
    <EXPORT ORDINAL="524" NAME="?Init@CNetPipe@@UAEHXZ" PURGE="0" COMMENT="" />
    <EXPORT ORDINAL="525" NAME="?Init@CNetPipeBuffer@@QAEHHPAE0H@Z" PURGE="16" COMMENT="" />
    <EXPORT ORDINAL="526" NAME="?Init@CNetPipeInput@@QAEHPAVCInput@@PAVCNetPipeBuffer@@@Z" PURGE="8" COMMENT="" />
    <EXPORT ORDINAL="527" NAME="?Init@CNetPipeIntMonitor@@QAEHPAH0@Z" PURGE="8" COMMENT="" />
    <EXPORT ORDINAL="528" NAME="?Init@CNetPipeList@@QAEHHH@Z" PURGE="8" COMMENT="" />
    <EXPORT ORDINAL="529" NAME="?Init@CNetPipeMouse@@QAEHPAVCInput@@@Z" PURGE="4" COMMENT="" />
    <EXPORT ORDINAL="530" NAME="?Init@CNetPipeMsg@@UAEHXZ" PURGE="0" COMMENT="" />
    <EXPORT ORDINAL="531" NAME="?Init@CSndfx@@QAEHHHHH@Z" PURGE="16" COMMENT="" />
    <EXPORT ORDINAL="532" NAME="?Init@CTextBuffer@@QAEHXZ" PURGE="0" COMMENT="" />
    <EXPORT ORDINAL="533" NAME="?InsertItem@CNetPipeList@@QAEHHPAE@Z" PURGE="8" COMMENT="" />
    <EXPORT ORDINAL="534" NAME="?InsertKey@CInterpolatedQuaternion@@QAEXPAMMM@Z" PURGE="12" COMMENT="" />
    <EXPORT ORDINAL="535" NAME="?InsertKey@CInterpolatedReal@@QAEXMMM@Z" PURGE="12" COMMENT="" />
    <EXPORT ORDINAL="536" NAME="?InsertKey@CInterpolatedRealXYZ@@QAEXPAMMM@Z" PURGE="12" COMMENT="" />
    <EXPORT ORDINAL="537" NAME="?InsertLine@CIndexedText@@AAEXPAD@Z" PURGE="4" COMMENT="" />
    <EXPORT ORDINAL="538" NAME="?InsertMessage@CNetPipeMsg@@AAEXW4tagNPMsgBox@@HPAEH@Z" PURGE="16" COMMENT="" />
    <EXPORT ORDINAL="539" NAME="?InsertPackedItem@CNetPipeList@@AAEHHPAEHH@Z" PURGE="16" COMMENT="" />
    <EXPORT ORDINAL="540" NAME="?InternalLoadPack@CPackDisk@@AAEHPBD@Z" PURGE="4" COMMENT="" />
    <EXPORT ORDINAL="541" NAME="?InterpolColor@@YAXPAE00M@Z" PURGE="0" COMMENT="" />
    <EXPORT ORDINAL="542" NAME="?InterpolP3D@@YAXPAM00M@Z" PURGE="0" COMMENT="" />
    <EXPORT ORDINAL="543" NAME="?InterpolVector@@YAXPAM00M@Z" PURGE="0" COMMENT="" />
    <EXPORT ORDINAL="544" NAME="?InterpolateQuaternions@@YAXPAM00M@Z" PURGE="0" COMMENT="" />
    <EXPORT ORDINAL="545" NAME="?InverseMatrix@@YAXPAM0@Z" PURGE="0" COMMENT="" />
    <EXPORT ORDINAL="546" NAME="?IsFSAASupported@CGrfx@@QAEHXZ" PURGE="0" COMMENT="" />
    <EXPORT ORDINAL="547" NAME="?IsOpened@CDisk@@QAEHPADE@Z" PURGE="8" COMMENT="" />
    <EXPORT ORDINAL="548" NAME="?IsOpened@CPackDisk@@QAEHPAD@Z" PURGE="4" COMMENT="" />
    <EXPORT ORDINAL="549" NAME="?IsOpened@CSystemDisk@@QAEHPAD@Z" PURGE="4" COMMENT="" />
    <EXPORT ORDINAL="550" NAME="?IsPlaybackPlaying@CSndfx@@QAEHH@Z" PURGE="4" COMMENT="" />
    <EXPORT ORDINAL="551" NAME="?IsPlayingSoundStream@CSndfx@@QAEHXZ" PURGE="0" COMMENT="" />
    <EXPORT ORDINAL="552" NAME="?KeepKey@CInterpolatedQuaternion@@QAEXMM@Z" PURGE="8" COMMENT="" />
    <EXPORT ORDINAL="553" NAME="?KeepKey@CInterpolatedReal@@QAEXMM@Z" PURGE="8" COMMENT="" />
    <EXPORT ORDINAL="554" NAME="?KeepKey@CInterpolatedRealXYZ@@QAEXMM@Z" PURGE="8" COMMENT="" />
    <EXPORT ORDINAL="555" NAME="?KeyRead@CInput@@QAEFH@Z" PURGE="4" COMMENT="" />
    <EXPORT ORDINAL="556" NAME="?KeyRead@CNetPipeInput@@QAEFH@Z" PURGE="4" COMMENT="" />
    <EXPORT ORDINAL="557" NAME="?KickStart@CGrfx@@QAEHHHHHHHHHPAVCAspen@@PAUHINSTANCE__@@P6GJPAUHWND__@@IIJ@ZPADPAPAU4@5@Z" PURGE="56" COMMENT="" />
    <EXPORT ORDINAL="558" NAME="?KillVoicePlayback@CSndfx@@QAEXH@Z" PURGE="4" COMMENT="" />
    <EXPORT ORDINAL="559" NAME="?Load@CBitmap@@QAEHPADK@Z" PURGE="8" COMMENT="" />
    <EXPORT ORDINAL="560" NAME="?Load@CConfig@@QAEHPAD@Z" PURGE="4" COMMENT="" />
    <EXPORT ORDINAL="561" NAME="?LoadJPG@@YAHPAVCDisk@@PADPAPAEPAH33PAEHH@Z" PURGE="0" COMMENT="" />
    <EXPORT ORDINAL="562" NAME="?LoadPCX@@YAHPAVCDisk@@PADPAPAEPAH3PAEH@Z" PURGE="0" COMMENT="" />
    <EXPORT ORDINAL="563" NAME="?LoadPNG@@YAHPAVCDisk@@PADPAPAEPAH33PAEHH32@Z" PURGE="0" COMMENT="" />
    <EXPORT ORDINAL="564" NAME="?LoadPack@CDisk@@QAEHPAD@Z" PURGE="4" COMMENT="" />
    <EXPORT ORDINAL="565" NAME="?LoadPack@CPackDisk@@QAEHPAD@Z" PURGE="4" COMMENT="" />
    <EXPORT ORDINAL="566" NAME="?LoadPacks@CDisk@@QAEHPAD@Z" PURGE="4" COMMENT="" />
    <EXPORT ORDINAL="567" NAME="?LoadPacks@CPackDisk@@QAEHPAD@Z" PURGE="4" COMMENT="" />
    <EXPORT ORDINAL="568" NAME="?LoadSound@CSndfx@@QAEHPADPAMH@Z" PURGE="12" COMMENT="" />
    <EXPORT ORDINAL="569" NAME="?LoadStatusFromFile@CNetPipe@@UAEHPAVCDisk@@H@Z" PURGE="8" COMMENT="" />
    <EXPORT ORDINAL="570" NAME="?LoadStatusFromFile@CNetPipeBuffer@@UAEHPAVCDisk@@H@Z" PURGE="8" COMMENT="" />
    <EXPORT ORDINAL="571" NAME="?LoadStatusFromFile@CNetPipeInput@@UAEHPAVCDisk@@H@Z" PURGE="8" COMMENT="" />
    <EXPORT ORDINAL="572" NAME="?LoadStatusFromFile@CNetPipeIntMonitor@@UAEHPAVCDisk@@H@Z" PURGE="8" COMMENT="" />
    <EXPORT ORDINAL="573" NAME="?LoadStatusFromFile@CNetPipeList@@UAEHPAVCDisk@@H@Z" PURGE="8" COMMENT="" />
    <EXPORT ORDINAL="574" NAME="?LoadStatusFromFile@CNetPipeMouse@@UAEHPAVCDisk@@H@Z" PURGE="8" COMMENT="" />
    <EXPORT ORDINAL="575" NAME="?LoadStatusFromFile@CNetPipeMsg@@UAEHPAVCDisk@@H@Z" PURGE="8" COMMENT="" />
    <EXPORT ORDINAL="576" NAME="?LoadTGA@@YAHPAVCDisk@@PADPAPAEPAH33PAEHH@Z" PURGE="0" COMMENT="" />
    <EXPORT ORDINAL="577" NAME="?LoadTexture@CGrfx@@QAEHPAD0KHW4tagMMapSamplingType@@H@Z" PURGE="24" COMMENT="" />
    <EXPORT ORDINAL="578" NAME="?LoadTextureBitmap@CGrfx@@QAEHPADPAPAEPAH22PAEHH21@Z" PURGE="40" COMMENT="" />
    <EXPORT ORDINAL="579" NAME="?LoadTextureSplit@CGrfx@@QAEHPADKHHPAHHW4tagMMapSamplingType@@@Z" PURGE="28" COMMENT="" />
    <EXPORT ORDINAL="580" NAME="?LocalMessage@CNetPipeMsg@@QAAXPADZZ" PURGE="0" COMMENT="" />
    <EXPORT ORDINAL="581" NAME="?LocalMessageBin@CNetPipeMsg@@QAEXPAEH@Z" PURGE="8" COMMENT="" />
    <EXPORT ORDINAL="582" NAME="?LogMemoryToFile@@YAHPAD@Z" PURGE="0" COMMENT="" />
    <EXPORT ORDINAL="583" NAME="?MakeNormalFromPoints@@YAXPAM000@Z" PURGE="0" COMMENT="" />
    <EXPORT ORDINAL="584" NAME="?MatchesWildcard@@YAHPBD0@Z" PURGE="0" COMMENT="" />
    <EXPORT ORDINAL="585" NAME="?MatrixDet@@YAMPAM@Z" PURGE="0" COMMENT="" />
    <EXPORT ORDINAL="586" NAME="?MatrixMul@@YAXPAM00@Z" PURGE="0" COMMENT="" />
    <EXPORT ORDINAL="587" NAME="?ModCQRGeometry@@YAXPAVCCollisionQueryResult@@PAM1@Z" PURGE="0" COMMENT="" />
    <EXPORT ORDINAL="588" NAME="?ModGeometry@CCollisionQueryResultEllipsoid@@UAEXPAM0@Z" PURGE="8" COMMENT="" />
    <EXPORT ORDINAL="589" NAME="?ModGeometry@CCollisionQueryResultTriangles@@UAEXPAM0@Z" PURGE="8" COMMENT="" />
    <EXPORT ORDINAL="590" NAME="?Multifractal@CFractal@@QAEMPAM@Z" PURGE="4" COMMENT="" />
    <EXPORT ORDINAL="591" NAME="?NearestPower2Number@@YAKK@Z" PURGE="0" COMMENT="" />
    <EXPORT ORDINAL="592" NAME="?Noise1@CPeacheySparseConvolutionNoise@@UAEMM@Z" PURGE="4" COMMENT="" />
    <EXPORT ORDINAL="593" NAME="?Noise1@CPeacheyValueConvolutionNoise@@UAEMM@Z" PURGE="4" COMMENT="" />
    <EXPORT ORDINAL="594" NAME="?Noise1@CPeacheyValueNoise@@UAEMM@Z" PURGE="4" COMMENT="" />
    <EXPORT ORDINAL="595" NAME="?Noise1@CPerlinGradientNoise2@@UAEMM@Z" PURGE="4" COMMENT="" />
    <EXPORT ORDINAL="596" NAME="?Noise1@CPerlinGradientNoise@@UAEMM@Z" PURGE="4" COMMENT="" />
    <EXPORT ORDINAL="597" NAME="?Noise2@CPeacheySparseConvolutionNoise@@UAEMPAM@Z" PURGE="4" COMMENT="" />
    <EXPORT ORDINAL="598" NAME="?Noise2@CPeacheyValueConvolutionNoise@@UAEMPAM@Z" PURGE="4" COMMENT="" />
    <EXPORT ORDINAL="599" NAME="?Noise2@CPeacheyValueNoise@@UAEMPAM@Z" PURGE="4" COMMENT="" />
    <EXPORT ORDINAL="600" NAME="?Noise2@CPerlinGradientNoise2@@UAEMPAM@Z" PURGE="4" COMMENT="" />
    <EXPORT ORDINAL="601" NAME="?Noise2@CPerlinGradientNoise@@UAEMPAM@Z" PURGE="4" COMMENT="" />
    <EXPORT ORDINAL="602" NAME="?Noise3@CPeacheySparseConvolutionNoise@@UAEMPAM@Z" PURGE="4" COMMENT="" />
    <EXPORT ORDINAL="603" NAME="?Noise3@CPeacheyValueConvolutionNoise@@UAEMPAM@Z" PURGE="4" COMMENT="" />
    <EXPORT ORDINAL="604" NAME="?Noise3@CPeacheyValueNoise@@UAEMPAM@Z" PURGE="4" COMMENT="" />
    <EXPORT ORDINAL="605" NAME="?Noise3@CPerlinGradientNoise2@@UAEMPAM@Z" PURGE="4" COMMENT="" />
    <EXPORT ORDINAL="606" NAME="?Noise3@CPerlinGradientNoise@@UAEMPAM@Z" PURGE="4" COMMENT="" />
    <EXPORT ORDINAL="607" NAME="?Normal@CLog@@QAAXPADZZ" PURGE="0" COMMENT="" />
    <EXPORT ORDINAL="608" NAME="?NormalizeQuaternion@@YAXPAM@Z" PURGE="0" COMMENT="" />
    <EXPORT ORDINAL="609" NAME="?NullIncoming@CNetPipe@@UAEXXZ" PURGE="0" COMMENT="" />
    <EXPORT ORDINAL="610" NAME="?NullIncoming@CNetPipeMsg@@UAEXXZ" PURGE="0" COMMENT="" />
    <EXPORT ORDINAL="611" NAME="?NullOutgoing@CNetPipe@@UAEXXZ" PURGE="0" COMMENT="" />
    <EXPORT ORDINAL="612" NAME="?NullOutgoing@CNetPipeInput@@UAEXXZ" PURGE="0" COMMENT="" />
    <EXPORT ORDINAL="613" NAME="?NullOutgoing@CNetPipeMouse@@UAEXXZ" PURGE="0" COMMENT="" />
    <EXPORT ORDINAL="614" NAME="?Offset@CDisk@@QAEHHH@Z" PURGE="8" COMMENT="" />
    <EXPORT ORDINAL="615" NAME="?Offset@CPackDisk@@QAEHHH@Z" PURGE="8" COMMENT="" />
    <EXPORT ORDINAL="616" NAME="?Offset@CSystemDisk@@QAEHHH@Z" PURGE="8" COMMENT="" />
    <EXPORT ORDINAL="617" NAME="?Open@CDisk@@QAEHPADHE@Z" PURGE="12" COMMENT="" />
    <EXPORT ORDINAL="618" NAME="?Open@CPackDisk@@QAEHPADH@Z" PURGE="8" COMMENT="" />
    <EXPORT ORDINAL="619" NAME="?Open@CSystemDisk@@QAEHPADH@Z" PURGE="8" COMMENT="" />
    <EXPORT ORDINAL="620" NAME="?OrthonormalizeUVN@@YAXPAM@Z" PURGE="0" COMMENT="" />
    <EXPORT ORDINAL="621" NAME="?Outgoing@CNetPipe@@UAEHHPAEPAH@Z" PURGE="12" COMMENT="" />
    <EXPORT ORDINAL="622" NAME="?Outgoing@CNetPipeBuffer@@UAEHHPAEPAH@Z" PURGE="12" COMMENT="" />
    <EXPORT ORDINAL="623" NAME="?Outgoing@CNetPipeInput@@UAEHHPAEPAH@Z" PURGE="12" COMMENT="" />
    <EXPORT ORDINAL="624" NAME="?Outgoing@CNetPipeIntMonitor@@UAEHHPAEPAH@Z" PURGE="12" COMMENT="" />
    <EXPORT ORDINAL="625" NAME="?Outgoing@CNetPipeList@@UAEHHPAEPAH@Z" PURGE="12" COMMENT="" />
    <EXPORT ORDINAL="626" NAME="?Outgoing@CNetPipeMouse@@UAEHHPAEPAH@Z" PURGE="12" COMMENT="" />
    <EXPORT ORDINAL="627" NAME="?Outgoing@CNetPipeMsg@@UAEHHPAEPAH@Z" PURGE="12" COMMENT="" />
    <EXPORT ORDINAL="628" NAME="?PackItem@CNetPipeList@@AAEHPAE0PAH1@Z" PURGE="16" COMMENT="" />
    <EXPORT ORDINAL="629" NAME="?PackMapMemory@CPackDisk@@AAEHHHHPAUtagPackMemoryMap@@@Z" PURGE="16" COMMENT="" />
    <EXPORT ORDINAL="630" NAME="?PackUnmapMemory@CPackDisk@@AAEHPAUtagPackMemoryMap@@@Z" PURGE="4" COMMENT="" />
    <EXPORT ORDINAL="631" NAME="?ParseFontInfo@CGrfx@@AAEHPAUtagFontInfo@@PAH1PAEHHH2@Z" PURGE="32" COMMENT="" />
    <EXPORT ORDINAL="632" NAME="?PatchFileChanged@CPackDiskCreator@@AAEHPAD0PAH11@Z" PURGE="20" COMMENT="" />
    <EXPORT ORDINAL="633" NAME="?PlaneRaytrace@@YAMPAM000@Z" PURGE="0" COMMENT="" />
    <EXPORT ORDINAL="634" NAME="?Playback@CSndfx@@QAEHHPAUtagPlaybackSettings@@H@Z" PURGE="12" COMMENT="" />
    <EXPORT ORDINAL="635" NAME="?PlaybackVoice@CSndfx@@QAEHHH@Z" PURGE="8" COMMENT="" />
    <EXPORT ORDINAL="636" NAME="?PreparePlay@CPlayMovie@@QAEHPAUtagPlayMovieParms@@@Z" PURGE="4" COMMENT="" />
    <EXPORT ORDINAL="637" NAME="?ProcessDirectory@CPackDiskCreator@@AAEXPAD@Z" PURGE="4" COMMENT="" />
    <EXPORT ORDINAL="638" NAME="?ProcessFile@CIndexedText@@QAEHPAD@Z" PURGE="4" COMMENT="" />
    <EXPORT ORDINAL="639" NAME="?ProcessFilebuffer@CPackDisk@@AAEXPAUtagPackFile@@H@Z" PURGE="8" COMMENT="" />
    <EXPORT ORDINAL="640" NAME="?Put@CConfig@@QAAHPADZZ" PURGE="0" COMMENT="" />
    <EXPORT ORDINAL="641" NAME="?PutText@CTextBuffer@@QAAHPADZZ" PURGE="0" COMMENT="" />
    <EXPORT ORDINAL="642" NAME="?QuaternionMul@@YAXPAM00@Z" PURGE="0" COMMENT="" />
    <EXPORT ORDINAL="643" NAME="?QuaternionToEuler@@YAXPAM0@Z" PURGE="0" COMMENT="" />
    <EXPORT ORDINAL="644" NAME="?QuaternionToUVN@@YAXPAM0@Z" PURGE="0" COMMENT="" />
    <EXPORT ORDINAL="645" NAME="?RadianusToUVN@@YAXMMMPAM@Z" PURGE="0" COMMENT="" />
    <EXPORT ORDINAL="646" NAME="?Raytrace@CBoundingBox@@QAEHPAM000@Z" PURGE="16" COMMENT="" />
    <EXPORT ORDINAL="647" NAME="?Raytrace@CCollisionQueryResultEllipsoid@@UAEHPAM0000@Z" PURGE="20" COMMENT="" />
    <EXPORT ORDINAL="648" NAME="?Raytrace@CCollisionQueryResultTriangles@@UAEHPAM0000@Z" PURGE="20" COMMENT="" />
    <EXPORT ORDINAL="649" NAME="?RaytraceCQR@@YAPAVCCollisionQueryResult@@PAV1@PAM1111@Z" PURGE="0" COMMENT="" />
    <EXPORT ORDINAL="650" NAME="?Read@CDisk@@QAEHHPAXHPAH@Z" PURGE="16" COMMENT="" />
    <EXPORT ORDINAL="651" NAME="?Read@CMemoryBuffer@@QAEHHPAXPAH@Z" PURGE="12" COMMENT="" />
    <EXPORT ORDINAL="652" NAME="?Read@CPackDisk@@QAEHHPAXHPAH@Z" PURGE="16" COMMENT="" />
    <EXPORT ORDINAL="653" NAME="?Read@CSystemDisk@@QAEHHPAXHPAH@Z" PURGE="16" COMMENT="" />
    <EXPORT ORDINAL="654" NAME="?ReadItem@CNetPipeList@@QAEPAEH@Z" PURGE="4" COMMENT="" />
    <EXPORT ORDINAL="655" NAME="?ReadMessage@CNetPipeMsg@@QAEPADHPAH@Z" PURGE="8" COMMENT="" />
    <EXPORT ORDINAL="656" NAME="?ReadMessageBin@CNetPipeMsg@@QAEPAEHPAH0@Z" PURGE="12" COMMENT="" />
    <EXPORT ORDINAL="657" NAME="?ReadSoundDuration@CSndfx@@QAEHPADPAM@Z" PURGE="8" COMMENT="" />
    <EXPORT ORDINAL="658" NAME="?ReadString@CDisk@@QAEHHPADH@Z" PURGE="12" COMMENT="" />
    <EXPORT ORDINAL="659" NAME="?ReadString@CPackDisk@@QAEHHPADH@Z" PURGE="12" COMMENT="" />
    <EXPORT ORDINAL="660" NAME="?ReadString@CSystemDisk@@QAEHHPADH@Z" PURGE="12" COMMENT="" />
    <EXPORT ORDINAL="661" NAME="?RecalculateAllSounds@CSndfx@@UAEXXZ" PURGE="0" COMMENT="" />
    <EXPORT ORDINAL="662" NAME="?RecalculateAllSounds@CSndfxSW@@UAEXXZ" PURGE="0" COMMENT="" />
    <EXPORT ORDINAL="663" NAME="?RecalculateSound@CSndfx@@UAEXPAUtagPlayback@@@Z" PURGE="4" COMMENT="" />
    <EXPORT ORDINAL="664" NAME="?RecalculateSound@CSndfxSW@@UAEXPAUtagPlayback@@@Z" PURGE="4" COMMENT="" />
    <EXPORT ORDINAL="665" NAME="?Release@CBitmap@@QAEXXZ" PURGE="0" COMMENT="" />
    <EXPORT ORDINAL="666" NAME="?ReleaseAll@CIdGenerator@@QAEXXZ" PURGE="0" COMMENT="" />
    <EXPORT ORDINAL="667" NAME="?ReleaseAllBlocks@CBufferMemBlocks@@QAEXXZ" PURGE="0" COMMENT="" />
    <EXPORT ORDINAL="668" NAME="?ReleaseAllSounds@CSndfx@@IAEXXZ" PURGE="0" COMMENT="" />
    <EXPORT ORDINAL="669" NAME="?ReleaseAllTextures@CGrfx@@AAEXXZ" PURGE="0" COMMENT="" />
    <EXPORT ORDINAL="670" NAME="?ReleaseBuffer@CMemTempBuffer@@QAEXXZ" PURGE="0" COMMENT="" />
    <EXPORT ORDINAL="671" NAME="?ReleaseCQR@@YAXPAVCCollisionQueryResult@@@Z" PURGE="0" COMMENT="" />
    <EXPORT ORDINAL="672" NAME="?ReleaseId@CIdGenerator@@QAEHH@Z" PURGE="4" COMMENT="" />
    <EXPORT ORDINAL="673" NAME="?ReleaseInterfaces@CPlayMovie@@AAEXXZ" PURGE="0" COMMENT="" />
    <EXPORT ORDINAL="674" NAME="?ReleaseLastBlock@CBufferMemBlocks@@QAEXXZ" PURGE="0" COMMENT="" />
    <EXPORT ORDINAL="675" NAME="?ReleaseTextBuffer@CLog@@QAEXXZ" PURGE="0" COMMENT="" />
    <EXPORT ORDINAL="676" NAME="?ReleaseTimeSlice@CThread@@QAEXXZ" PURGE="0" COMMENT="" />
    <EXPORT ORDINAL="677" NAME="?ReloadAllTextures@CGrfx@@QAEHP6AXM@Z@Z" PURGE="4" COMMENT="" />
    <EXPORT ORDINAL="678" NAME="?RemoveAllSpecialAreas@CNetPipeMouse@@QAEXXZ" PURGE="0" COMMENT="" />
    <EXPORT ORDINAL="679" NAME="?RemoveSpecialArea@CNetPipeMouse@@QAEHH@Z" PURGE="4" COMMENT="" />
    <EXPORT ORDINAL="680" NAME="?ResampleBitmap@CGrfx@@AAEHPAE0HHHH0HHH@Z" PURGE="40" COMMENT="" />
    <EXPORT ORDINAL="681" NAME="?Reset@CBitmap@@AAEXXZ" PURGE="0" COMMENT="" />
    <EXPORT ORDINAL="682" NAME="?ResetAllIncomingMessages@CNetPipeMsg@@QAEXXZ" PURGE="0" COMMENT="" />
    <EXPORT ORDINAL="683" NAME="?ResetAllMessages@CNetPipeMsg@@QAEXXZ" PURGE="0" COMMENT="" />
    <EXPORT ORDINAL="684" NAME="?ResetAllOutgoingMessages@CNetPipeMsg@@QAEXXZ" PURGE="0" COMMENT="" />
    <EXPORT ORDINAL="685" NAME="?ResetAllSounds@CSndfx@@IAEXXZ" PURGE="0" COMMENT="" />
    <EXPORT ORDINAL="686" NAME="?ResetAllTextures@CGrfx@@AAEXXZ" PURGE="0" COMMENT="" />
    <EXPORT ORDINAL="687" NAME="?ResetCurrentCommands@CNetPipeMouse@@AAEXXZ" PURGE="0" COMMENT="" />
    <EXPORT ORDINAL="688" NAME="?ResetDevice@CGrfx@@QAEHXZ" PURGE="0" COMMENT="" />
    <EXPORT ORDINAL="689" NAME="?ResetInterpolation@CInterpolatedQuaternion@@QAEXXZ" PURGE="0" COMMENT="" />
    <EXPORT ORDINAL="690" NAME="?ResetInterpolation@CInterpolatedReal@@QAEXXZ" PURGE="0" COMMENT="" />
    <EXPORT ORDINAL="691" NAME="?ResetInterpolation@CInterpolatedRealXYZ@@QAEXXZ" PURGE="0" COMMENT="" />
    <EXPORT ORDINAL="692" NAME="?Resume@CThread@@QAEXXZ" PURGE="0" COMMENT="" />
    <EXPORT ORDINAL="693" NAME="?RidgedMultifractal@CFractal@@QAEMPAMMM@Z" PURGE="12" COMMENT="" />
    <EXPORT ORDINAL="694" NAME="?RotatePointAroundAxis@@YAXPAM00M@Z" PURGE="0" COMMENT="" />
    <EXPORT ORDINAL="695" NAME="?Run@CAppObjectBehavior@@UAEHM@Z" PURGE="4" COMMENT="" />
    <EXPORT ORDINAL="696" NAME="?Save@CBitmap@@QAEHPAD@Z" PURGE="4" COMMENT="" />
    <EXPORT ORDINAL="697" NAME="?Save@CConfig@@QAEHPAD@Z" PURGE="4" COMMENT="" />
    <EXPORT ORDINAL="698" NAME="?SaveJPG@@YAHPAVCDisk@@PADPAEHHH2HH@Z" PURGE="0" COMMENT="" />
    <EXPORT ORDINAL="699" NAME="?SavePCX@@YAHPAVCDisk@@PADPAEHH2@Z" PURGE="0" COMMENT="" />
    <EXPORT ORDINAL="700" NAME="?SavePNG@@YAHPAVCDisk@@PADPAEHHH2HH@Z" PURGE="0" COMMENT="" />
    <EXPORT ORDINAL="701" NAME="?SaveStatusToFile@CNetPipe@@UAEHPAVCDisk@@H@Z" PURGE="8" COMMENT="" />
    <EXPORT ORDINAL="702" NAME="?SaveStatusToFile@CNetPipeBuffer@@UAEHPAVCDisk@@H@Z" PURGE="8" COMMENT="" />
    <EXPORT ORDINAL="703" NAME="?SaveStatusToFile@CNetPipeInput@@UAEHPAVCDisk@@H@Z" PURGE="8" COMMENT="" />
    <EXPORT ORDINAL="704" NAME="?SaveStatusToFile@CNetPipeIntMonitor@@UAEHPAVCDisk@@H@Z" PURGE="8" COMMENT="" />
    <EXPORT ORDINAL="705" NAME="?SaveStatusToFile@CNetPipeList@@UAEHPAVCDisk@@H@Z" PURGE="8" COMMENT="" />
    <EXPORT ORDINAL="706" NAME="?SaveStatusToFile@CNetPipeMouse@@UAEHPAVCDisk@@H@Z" PURGE="8" COMMENT="" />
    <EXPORT ORDINAL="707" NAME="?SaveStatusToFile@CNetPipeMsg@@UAEHPAVCDisk@@H@Z" PURGE="8" COMMENT="" />
    <EXPORT ORDINAL="708" NAME="?SaveTGA@@YAHPAVCDisk@@PADPAEHHH2H@Z" PURGE="0" COMMENT="" />
    <EXPORT ORDINAL="709" NAME="?SaveTextureBitmap@CGrfx@@QAEHPADPAEHHH1MHH@Z" PURGE="36" COMMENT="" />
    <EXPORT ORDINAL="710" NAME="?SecurePipe@CNetPipe@@UAEHXZ" PURGE="0" COMMENT="" />
    <EXPORT ORDINAL="711" NAME="?SecurePipe@CNetPipeBuffer@@UAEHXZ" PURGE="0" COMMENT="" />
    <EXPORT ORDINAL="712" NAME="?SecurePipe@CNetPipeIntMonitor@@UAEHXZ" PURGE="0" COMMENT="" />
    <EXPORT ORDINAL="713" NAME="?SecurePipe@CNetPipeList@@UAEHXZ" PURGE="0" COMMENT="" />
    <EXPORT ORDINAL="714" NAME="?SecurePipe@CNetPipeMouse@@UAEHXZ" PURGE="0" COMMENT="" />
    <EXPORT ORDINAL="715" NAME="?SecurePipe@CNetPipeMsg@@UAEHXZ" PURGE="0" COMMENT="" />
    <EXPORT ORDINAL="716" NAME="?Seek@CDisk@@QAEHHH@Z" PURGE="8" COMMENT="" />
    <EXPORT ORDINAL="717" NAME="?Seek@CPackDisk@@QAEHHH@Z" PURGE="8" COMMENT="" />
    <EXPORT ORDINAL="718" NAME="?Seek@CSystemDisk@@QAEHHH@Z" PURGE="8" COMMENT="" />
    <EXPORT ORDINAL="719" NAME="?SendMessageA@CNetPipeMsg@@QAAHPADZZ" PURGE="0" COMMENT="" />
    <EXPORT ORDINAL="720" NAME="?SendMessageBin@CNetPipeMsg@@QAEHPAEH@Z" PURGE="8" COMMENT="" />
    <EXPORT ORDINAL="721" NAME="?SetActivationStatus@CInput@@QAEXH@Z" PURGE="4" COMMENT="" />
    <EXPORT ORDINAL="722" NAME="?SetAllListenerParameters@CSndfx@@UAEHPAUtagListenerSettings@@@Z" PURGE="4" COMMENT="" />
    <EXPORT ORDINAL="723" NAME="?SetAllListenerParameters@CSndfxSW@@UAEHPAUtagListenerSettings@@@Z" PURGE="4" COMMENT="" />
    <EXPORT ORDINAL="724" NAME="?SetAllPlaybackParameters@CSndfx@@UAEHHPAUtagPlaybackSettings@@@Z" PURGE="8" COMMENT="" />
    <EXPORT ORDINAL="725" NAME="?SetAllPlaybackParameters@CSndfxSW@@UAEHHPAUtagPlaybackSettings@@@Z" PURGE="8" COMMENT="" />
    <EXPORT ORDINAL="726" NAME="?SetBPS@CNetPipe@@QAEXHH@Z" PURGE="8" COMMENT="" />
    <EXPORT ORDINAL="727" NAME="?SetBilinear@CGrfx@@QAEXH@Z" PURGE="4" COMMENT="" />
    <EXPORT ORDINAL="728" NAME="?SetCMPos@CBoundingBox@@QAEXPAM@Z" PURGE="4" COMMENT="" />
    <EXPORT ORDINAL="729" NAME="?SetConfiguration@CBitmap@@QAEHHHHHH@Z" PURGE="20" COMMENT="" />
    <EXPORT ORDINAL="730" NAME="?SetCustomData@CMemoryBuffer@@QAEHPAEH@Z" PURGE="8" COMMENT="" />
    <EXPORT ORDINAL="731" NAME="?SetData@CCollisionQueryResultEllipsoid@@QAEXPAM00@Z" PURGE="12" COMMENT="" />
    <EXPORT ORDINAL="732" NAME="?SetData@CCollisionQueryResultTriangles@@QAEXPAM0@Z" PURGE="8" COMMENT="" />
    <EXPORT ORDINAL="733" NAME="?SetDisk@CSndfx@@QAEXPAVCDisk@@@Z" PURGE="4" COMMENT="" />
    <EXPORT ORDINAL="734" NAME="?SetFade@CSndfx@@QAEXMM@Z" PURGE="8" COMMENT="" />
    <EXPORT ORDINAL="735" NAME="?SetFakeFSAA@CGrfx@@QAEXH@Z" PURGE="4" COMMENT="" />
    <EXPORT ORDINAL="736" NAME="?SetGamma@CGrfx@@QAEHM@Z" PURGE="4" COMMENT="" />
    <EXPORT ORDINAL="737" NAME="?SetGrfx@CBitmap@@QAEXPAVCGrfx@@@Z" PURGE="4" COMMENT="" />
    <EXPORT ORDINAL="738" NAME="?SetGrfx@CInput@@QAEXPAVCGrfx@@@Z" PURGE="4" COMMENT="" />
    <EXPORT ORDINAL="739" NAME="?SetKeyReadingStatus@CInput@@QAEXH@Z" PURGE="4" COMMENT="" />
    <EXPORT ORDINAL="740" NAME="?SetLatency@CNetPipe@@QAEXM@Z" PURGE="4" COMMENT="" />
    <EXPORT ORDINAL="741" NAME="?SetMaxClickTime@CNetPipeMouse@@QAEXM@Z" PURGE="4" COMMENT="" />
    <EXPORT ORDINAL="742" NAME="?SetMousePos@CNetPipeMouse@@QAEXMM@Z" PURGE="8" COMMENT="" />
    <EXPORT ORDINAL="743" NAME="?SetObjectPointer@CAppObjectBehavior@@QAEXPAVCEngObject@@@Z" PURGE="4" COMMENT="" />
    <EXPORT ORDINAL="744" NAME="?SetOnGround@CBoundingBox@@QAEXH@Z" PURGE="4" COMMENT="" />
    <EXPORT ORDINAL="745" NAME="?SetOutgoingStatus@CNetPipeMouse@@QAEXH@Z" PURGE="4" COMMENT="" />
    <EXPORT ORDINAL="746" NAME="?SetOutputMode@CLog@@QAEXH@Z" PURGE="4" COMMENT="" />
    <EXPORT ORDINAL="747" NAME="?SetOverhead@CNetPipe@@QAEXM@Z" PURGE="4" COMMENT="" />
    <EXPORT ORDINAL="748" NAME="?SetOwner@CCollisionQueryResult@@QAEXPAX@Z" PURGE="4" COMMENT="" />
    <EXPORT ORDINAL="749" NAME="?SetPlaybackPosition@CSndfx@@QAEHHH@Z" PURGE="8" COMMENT="" />
    <EXPORT ORDINAL="750" NAME="?SetPriority@CThread@@QAEXW4tagThreadPriority@@@Z" PURGE="4" COMMENT="" />
    <EXPORT ORDINAL="751" NAME="?SetRenderLost@CGrfx@@QAEXH@Z" PURGE="4" COMMENT="" />
    <EXPORT ORDINAL="752" NAME="?SetSoundStreamDesiredVolume@CSndfx@@QAEXM@Z" PURGE="4" COMMENT="" />
    <EXPORT ORDINAL="753" NAME="?SetSoundStreamVolume@CSndfx@@QAEXM@Z" PURGE="4" COMMENT="" />
    <EXPORT ORDINAL="754" NAME="?SetSpecialAreaChecking@CNetPipeMouse@@QAEXH@Z" PURGE="4" COMMENT="" />
    <EXPORT ORDINAL="755" NAME="?SetStatus@CNetPipeInput@@QAEXH@Z" PURGE="4" COMMENT="" />
    <EXPORT ORDINAL="756" NAME="?SetStatus@CNetPipeMouse@@QAEXH@Z" PURGE="4" COMMENT="" />
    <EXPORT ORDINAL="757" NAME="?SetTextureGlobalFlags@CGrfx@@QAEXK@Z" PURGE="4" COMMENT="" />
    <EXPORT ORDINAL="758" NAME="?SetTextureOptions@CGrfx@@QAEXKHH@Z" PURGE="12" COMMENT="" />
    <EXPORT ORDINAL="759" NAME="?SetUVN@CBoundingBox@@QAEXPAM@Z" PURGE="4" COMMENT="" />
    <EXPORT ORDINAL="760" NAME="?SetVPos@CBoundingBox@@QAEXPAM@Z" PURGE="4" COMMENT="" />
    <EXPORT ORDINAL="761" NAME="?SetVPosUVN@CBoundingBox@@QAEXPAM0@Z" PURGE="8" COMMENT="" />
    <EXPORT ORDINAL="762" NAME="?SetValidDisks@CDisk@@QAEXE@Z" PURGE="4" COMMENT="" />
    <EXPORT ORDINAL="763" NAME="?SetViewPortMinMaxZ@CGrfx@@QAEXMM@Z" PURGE="8" COMMENT="" />
    <EXPORT ORDINAL="764" NAME="?SetWin2K@CInput@@QAEXXZ" PURGE="0" COMMENT="" />
    <EXPORT ORDINAL="765" NAME="?ShowVirtualScreen@CGrfx@@QAEJXZ" PURGE="0" COMMENT="" />
    <EXPORT ORDINAL="766" NAME="?ShutDown@CGrfx@@QAEXXZ" PURGE="0" COMMENT="" />
    <EXPORT ORDINAL="767" NAME="?SoundStreamFillBuffer@CSndfx@@IAEHXZ" PURGE="0" COMMENT="" />
    <EXPORT ORDINAL="768" NAME="?SoundStreamHandleNotification@CSndfx@@QAEHXZ" PURGE="0" COMMENT="" />
    <EXPORT ORDINAL="769" NAME="?SoundStreamRestoreBuffers@CSndfx@@IAEHXZ" PURGE="0" COMMENT="" />
    <EXPORT ORDINAL="770" NAME="?SoundStreamUpdateProgress@CSndfx@@IAEHXZ" PURGE="0" COMMENT="" />
    <EXPORT ORDINAL="771" NAME="?SoundStreamWriteToBuffer@CSndfx@@IAEHPAXK@Z" PURGE="8" COMMENT="" />
    <EXPORT ORDINAL="772" NAME="?SoundSystem@CSndfx@@IAEXXZ" PURGE="0" COMMENT="" />
    <EXPORT ORDINAL="773" NAME="?SphereRaytrace@@YAHPAMM0000@Z" PURGE="0" COMMENT="" />
    <EXPORT ORDINAL="774" NAME="?Spline@CPeacheyValueNoise@@QAEMMHPAM@Z" PURGE="12" COMMENT="" />
    <EXPORT ORDINAL="775" NAME="?StartKeyCapture@CInput@@QAEXXZ" PURGE="0" COMMENT="" />
    <EXPORT ORDINAL="776" NAME="?StartPlay@CPlayMovie@@QAEHXZ" PURGE="0" COMMENT="" />
    <EXPORT ORDINAL="777" NAME="?StartSoundStream@CSndfx@@QAEHPADH@Z" PURGE="8" COMMENT="" />
    <EXPORT ORDINAL="778" NAME="?StartVideoMode@CGrfx@@QAEHHHHHHHHPAVCAspen@@PAUHINSTANCE__@@P6GJPAUHWND__@@IIJ@ZPADPAPAU4@5H@Z" PURGE="56" COMMENT="" />
    <EXPORT ORDINAL="779" NAME="?StopPlay@CPlayMovie@@QAEXXZ" PURGE="0" COMMENT="" />
    <EXPORT ORDINAL="780" NAME="?StopPlayback@CSndfx@@QAEHH@Z" PURGE="4" COMMENT="" />
    <EXPORT ORDINAL="781" NAME="?StopSoundStream@CSndfx@@QAEXH@Z" PURGE="4" COMMENT="" />
    <EXPORT ORDINAL="782" NAME="?Suspend@CThread@@QAEXXZ" PURGE="0" COMMENT="" />
    <EXPORT ORDINAL="783" NAME="?Tesselate@CBoundingBox@@QAEXM@Z" PURGE="4" COMMENT="" />
    <EXPORT ORDINAL="784" NAME="?TestPoint@CBoundingBox@@QAEHPAM@Z" PURGE="4" COMMENT="" />
    <EXPORT ORDINAL="785" NAME="?TestSphere@CBoundingBox@@QAEHPAMM@Z" PURGE="8" COMMENT="" />
    <EXPORT ORDINAL="786" NAME="?ThreadTerminate@CThread@@IAEXXZ" PURGE="0" COMMENT="" />
    <EXPORT ORDINAL="787" NAME="?Turbulence@CFractal@@QAEMPAM@Z" PURGE="4" COMMENT="" />
    <EXPORT ORDINAL="788" NAME="?UVNToCompressedQuaternion@@YAXPAMPAE@Z" PURGE="0" COMMENT="" />
    <EXPORT ORDINAL="789" NAME="?UVNToEuler@@YAXPAM0@Z" PURGE="0" COMMENT="" />
    <EXPORT ORDINAL="790" NAME="?UVNToQuaternion@@YAXPAM0@Z" PURGE="0" COMMENT="" />
    <EXPORT ORDINAL="791" NAME="?UncompressKeymap@CNetPipeInput@@AAEXPAFPAE@Z" PURGE="8" COMMENT="" />
    <EXPORT ORDINAL="792" NAME="?UnloadSound@CSndfx@@QAEHH@Z" PURGE="4" COMMENT="" />
    <EXPORT ORDINAL="793" NAME="?UnloadTexture@CGrfx@@QAEHH@Z" PURGE="4" COMMENT="" />
    <EXPORT ORDINAL="794" NAME="?UntouchAllTextures@CGrfx@@QAEXXZ" PURGE="0" COMMENT="" />
    <EXPORT ORDINAL="795" NAME="?Update@CBoundingBox@@QAEXPAM0@Z" PURGE="8" COMMENT="" />
    <EXPORT ORDINAL="796" NAME="?Update@CInput@@QAEHXZ" PURGE="0" COMMENT="" />
    <EXPORT ORDINAL="797" NAME="?UpdateBuffer@CNetPipeBuffer@@QAEXXZ" PURGE="0" COMMENT="" />
    <EXPORT ORDINAL="798" NAME="?VectorToAngles@@YAXPAM00@Z" PURGE="0" COMMENT="" />
    <EXPORT ORDINAL="799" NAME="?VoiceLoaded@CSndfx@@QAEHH@Z" PURGE="4" COMMENT="" />
    <EXPORT ORDINAL="800" NAME="?VolumeToZeroAndFadeIn@CSndfx@@QAEXM@Z" PURGE="4" COMMENT="" />
    <EXPORT ORDINAL="801" NAME="?Warning@CLog@@QAAXPADZZ" PURGE="0" COMMENT="" />
    <EXPORT ORDINAL="802" NAME="?WindowFunc@CInput@@QAEHPAUHWND__@@IIJPAJ@Z" PURGE="20" COMMENT="" />
    <EXPORT ORDINAL="803" NAME="?WindowFunc@CInputWinProc@@UAEHPAUHWND__@@IIJPAJ@Z" PURGE="20" COMMENT="" />
    <EXPORT ORDINAL="804" NAME="?WindowFunc@CPlayMovie@@UAEHPAUHWND__@@IIJPAJ@Z" PURGE="20" COMMENT="" />
    <EXPORT ORDINAL="805" NAME="?Write@CDisk@@QAEHHPAXH@Z" PURGE="12" COMMENT="" />
    <EXPORT ORDINAL="806" NAME="?Write@CMemoryBuffer@@QAEHPAXH@Z" PURGE="8" COMMENT="" />
    <EXPORT ORDINAL="807" NAME="?Write@CPackDisk@@QAEHHPAXH@Z" PURGE="12" COMMENT="" />
    <EXPORT ORDINAL="808" NAME="?Write@CSystemDisk@@QAEHHPAXH@Z" PURGE="12" COMMENT="" />
    <EXPORT ORDINAL="809" NAME="?WriteCommand@CInput@@QAEXHPAF@Z" PURGE="8" COMMENT="" />
    <EXPORT ORDINAL="810" NAME="?WriteToTexture@CGrfx@@QAEHHPAEHHH@Z" PURGE="20" COMMENT="" />
    <EXPORT ORDINAL="811" NAME="?fBm@CFractal@@QAEMPAM@Z" PURGE="4" COMMENT="" />
    <EXPORT ORDINAL="812" NAME="?stristr@@YAPADPBD0@Z" PURGE="0" COMMENT="" />
</LIBRARY>

