<?xml version="1.0" encoding="UTF-8"?>
<LIBRARY NAME="astrans.dll" PATH="/DLLArchive/etc/astrans.dll" DATE="Fri Jul 03 12:23:45 PDT 2020" VERSION="11.00.0716">
    <EXPORT ORDINAL="1" NAME="??0CSyncMgr@@QAE@ABV0@@Z" PURGE="4" COMMENT="" />
    <EXPORT ORDINAL="2" NAME="??0CSyncMgr@@QAE@XZ" PURGE="0" COMMENT="" />
    <EXPORT ORDINAL="3" NAME="??0CSyncNotifyList@@QAE@ABV0@@Z" PURGE="4" COMMENT="" />
    <EXPORT ORDINAL="4" NAME="??0CSyncNotifyList@@QAE@XZ" PURGE="0" COMMENT="" />
    <EXPORT ORDINAL="5" NAME="??0CSyncNotifyPool@@QAE@ABV0@@Z" PURGE="4" COMMENT="" />
    <EXPORT ORDINAL="6" NAME="??0CSyncNotifyPool@@QAE@XZ" PURGE="0" COMMENT="" />
    <EXPORT ORDINAL="7" NAME="??1CSyncMgr@@QAE@XZ" PURGE="0" COMMENT="" />
    <EXPORT ORDINAL="8" NAME="??1CSyncNotifyList@@QAE@XZ" PURGE="-1" COMMENT="" />
    <EXPORT ORDINAL="9" NAME="??1CSyncNotifyPool@@QAE@XZ" PURGE="-1" COMMENT="" />
    <EXPORT ORDINAL="10" NAME="??4CSyncMgr@@QAEAAV0@ABV0@@Z" PURGE="4" COMMENT="" />
    <EXPORT ORDINAL="11" NAME="??4CSyncNotifyList@@QAEAAV0@ABV0@@Z" PURGE="4" COMMENT="" />
    <EXPORT ORDINAL="12" NAME="??4CSyncNotifyPool@@QAEAAV0@ABV0@@Z" PURGE="4" COMMENT="" />
    <EXPORT ORDINAL="13" NAME="??_7CSyncNotifyList@@6B@" PURGE="11003" COMMENT="" />
    <EXPORT ORDINAL="14" NAME="??_7CSyncNotifyPool@@6B@" PURGE="11003" COMMENT="" />
    <EXPORT ORDINAL="15" NAME="?ActiveOptionDialog@CSyncMgr@@QAEJPAVCWnd@@@Z" PURGE="4" COMMENT="" />
    <EXPORT ORDINAL="16" NAME="?BeginSession@CSyncMgr@@QAEJPAUASTRANS_SESSION@@PAD1@Z" PURGE="12" COMMENT="" />
    <EXPORT ORDINAL="17" NAME="?DeleteObject@CSyncMgr@@QAEJAAUTypeIDPair@@@Z" PURGE="4" COMMENT="" />
    <EXPORT ORDINAL="18" NAME="?DirtyObject@CSyncMgr@@QAEJAAUTypeIDPair@@PAU_FILETIME@@@Z" PURGE="8" COMMENT="" />
    <EXPORT ORDINAL="19" NAME="?EvalChangeHistory@CSyncMgr@@QAEJAAUTypeIDPair@@AAU_FILETIME@@1PAH@Z" PURGE="16" COMMENT="" />
    <EXPORT ORDINAL="20" NAME="?FIsCachedPending@CSyncMgr@@IAEHJ@Z" PURGE="4" COMMENT="" />
    <EXPORT ORDINAL="21" NAME="?FIsDeviceSynchronized@CSyncMgr@@QAEHK@Z" PURGE="4" COMMENT="" />
    <EXPORT ORDINAL="22" NAME="?FIsObjectCached@CSyncMgr@@QAEHAAUTypeIDPair@@@Z" PURGE="4" COMMENT="" />
    <EXPORT ORDINAL="23" NAME="?FindClose@CSyncMgr@@QAEJXZ" PURGE="0" COMMENT="" />
    <EXPORT ORDINAL="24" NAME="?FindFirst@CSyncMgr@@QAEJAAUTypeIDPair@@PAU_FILETIME@@PAH@Z" PURGE="12" COMMENT="" />
    <EXPORT ORDINAL="25" NAME="?FindNext@CSyncMgr@@QAEJAAUTypeIDPair@@PAU_FILETIME@@PAH@Z" PURGE="12" COMMENT="" />
    <EXPORT ORDINAL="26" NAME="?FlushSession@CSyncMgr@@QAEJXZ" PURGE="0" COMMENT="" />
    <EXPORT ORDINAL="27" NAME="?GetCeAcct@CSyncMgr@@IAEJJPAVRecord@SDatastore@@@Z" PURGE="8" COMMENT="" />
    <EXPORT ORDINAL="28" NAME="?GetCeAcctType@CSyncMgr@@SAJVCOfdAcct@@PAJ@Z" PURGE="0" COMMENT="" />
    <EXPORT ORDINAL="29" NAME="?GetCeCat@CSyncMgr@@IAEJJPAVRecord@SDatastore@@PAUTypeIDPair@@@Z" PURGE="12" COMMENT="" />
    <EXPORT ORDINAL="30" NAME="?GetCeInvestment@CSyncMgr@@IAEJJPAVRecord@SDatastore@@@Z" PURGE="8" COMMENT="" />
    <EXPORT ORDINAL="31" NAME="?GetCePayee@CSyncMgr@@IAEJJPAVRecord@SDatastore@@@Z" PURGE="8" COMMENT="" />
    <EXPORT ORDINAL="32" NAME="?GetCeTrn@CSyncMgr@@IAEJJPAVRecord@SDatastore@@PAUTypeIDPair@@@Z" PURGE="12" COMMENT="" />
    <EXPORT ORDINAL="33" NAME="?GetChanged@CSyncMgr@@QAEJAAUTypeIDPair@@PAU_FILETIME@@PAH@Z" PURGE="12" COMMENT="" />
    <EXPORT ORDINAL="34" NAME="?GetCollisionInfo@CSyncMgr@@QAEJAAUTypeIDPair@@PADH@Z" PURGE="12" COMMENT="" />
    <EXPORT ORDINAL="35" NAME="?GetCurrentFilename@CSyncMgr@@QAEXPADH@Z" PURGE="8" COMMENT="" />
    <EXPORT ORDINAL="36" NAME="?GetObjectA@CSyncMgr@@QAEJAAUTypeIDPair@@PAVRecord@SDatastore@@@Z" PURGE="8" COMMENT="" />
    <EXPORT ORDINAL="37" NAME="?GetRelevantChange@CSyncMgr@@QAEJXZ" PURGE="0" COMMENT="" />
    <EXPORT ORDINAL="38" NAME="?GetStoreID@CSyncMgr@@QAEJPADPAH@Z" PURGE="8" COMMENT="" />
    <EXPORT ORDINAL="39" NAME="?IsFolderChanged@CSyncMgr@@QAEJPAH@Z" PURGE="4" COMMENT="" />
    <EXPORT ORDINAL="40" NAME="?IsItemReplicated@CSyncMgr@@QAEJAAUTypeIDPair@@PAH@Z" PURGE="8" COMMENT="" />
    <EXPORT ORDINAL="41" NAME="?OnFinalRelease@CSyncNotifyList@@UAEXXZ" PURGE="0" COMMENT="" />
    <EXPORT ORDINAL="42" NAME="?OnFinalRelease@CSyncNotifyPool@@UAEXXZ" PURGE="0" COMMENT="" />
    <EXPORT ORDINAL="43" NAME="?OnNotification@CSyncMgr@@QAEXABVCOfdList@@HJJJJJ@Z" PURGE="28" COMMENT="" />
    <EXPORT ORDINAL="44" NAME="?OnNotify@CSyncNotifyList@@UAEXABVCOfdList@@HJJJJJ@Z" PURGE="28" COMMENT="" />
    <EXPORT ORDINAL="45" NAME="?OnNotify@CSyncNotifyPool@@UAEXABVCOfdPool@@HJJJJ@Z" PURGE="24" COMMENT="" />
    <EXPORT ORDINAL="46" NAME="?Peng@CSyncMgr@@QAEPAVCOfdEngine@@XZ" PURGE="0" COMMENT="" />
    <EXPORT ORDINAL="47" NAME="?Pfile@CSyncMgr@@QAEPAVCOfdFile@@XZ" PURGE="0" COMMENT="" />
    <EXPORT ORDINAL="48" NAME="?PnotifyList@CSyncMgr@@QAEPAVCSyncNotifyList@@XZ" PURGE="0" COMMENT="" />
    <EXPORT ORDINAL="49" NAME="?Pomgr@CSyncMgr@@QAEPAVCObjectMgr@@XZ" PURGE="0" COMMENT="" />
    <EXPORT ORDINAL="50" NAME="?Pses@CSyncMgr@@QAEPAUASTRANS_SESSION@@XZ" PURGE="0" COMMENT="" />
    <EXPORT ORDINAL="51" NAME="?Psyncmgr@CSyncNotifyList@@QAEPAVCSyncMgr@@XZ" PURGE="0" COMMENT="" />
    <EXPORT ORDINAL="52" NAME="?Psyncmgr@CSyncNotifyPool@@QAEPAVCSyncMgr@@XZ" PURGE="0" COMMENT="" />
    <EXPORT ORDINAL="53" NAME="?ResetMapping@CSyncMgr@@QAEJXZ" PURGE="0" COMMENT="" />
    <EXPORT ORDINAL="54" NAME="?SetFFolderChanged@CSyncMgr@@QAEXH@Z" PURGE="4" COMMENT="" />
    <EXPORT ORDINAL="55" NAME="?SetFile@CSyncMgr@@QAEXVCOfdFile@@@Z" PURGE="8" COMMENT="" />
    <EXPORT ORDINAL="56" NAME="?SetNewDefFile@CSyncMgr@@QAEJPAD@Z" PURGE="4" COMMENT="" />
    <EXPORT ORDINAL="57" NAME="?SetNewDeviceID@CSyncMgr@@QAEJK@Z" PURGE="4" COMMENT="" />
    <EXPORT ORDINAL="58" NAME="?SetObject@CSyncMgr@@QAEJAAUTypeIDPair@@PAVRecord@SDatastore@@@Z" PURGE="8" COMMENT="" />
    <EXPORT ORDINAL="59" NAME="?SetOptionDlg@CSyncNotifyList@@QAEXPAVCOptionDialog@@@Z" PURGE="4" COMMENT="" />
    <EXPORT ORDINAL="60" NAME="?SetPsyncmgr@CSyncNotifyList@@QAEXPAVCSyncMgr@@@Z" PURGE="4" COMMENT="" />
    <EXPORT ORDINAL="61" NAME="?SetPsyncmgr@CSyncNotifyPool@@QAEXPAVCSyncMgr@@@Z" PURGE="4" COMMENT="" />
    <EXPORT ORDINAL="62" NAME="?SetPunkNot@CSyncMgr@@QAEXPAUIUnknown@@@Z" PURGE="4" COMMENT="" />
    <EXPORT ORDINAL="63" NAME="?SetPwndUI@CSyncMgr@@QAEXPAVCWnd@@@Z" PURGE="4" COMMENT="" />
</LIBRARY>

