<?xml version="1.0" encoding="UTF-8"?>
<LIBRARY NAME="backweb.dll" PATH="/DLLArchive/etc/backweb.dll" DATE="Fri Jul 03 12:24:58 PDT 2020" VERSION="Version 7.2.0 (Build 137R)">
    <EXPORT ORDINAL="1" NAME="??0CFileExtractInterface@@QAE@ABV0@@Z" PURGE="4" COMMENT="" />
    <EXPORT ORDINAL="2" NAME="??0CFileExtractInterface@@QAE@PBD0ABVCPrsID@@@Z" PURGE="12" COMMENT="" />
    <EXPORT ORDINAL="3" NAME="??0COMObjectBase@@QAE@ABV0@@Z" PURGE="4" COMMENT="" />
    <EXPORT ORDINAL="4" NAME="??1CFileExtractInterface@@QAE@XZ" PURGE="0" COMMENT="" />
    <EXPORT ORDINAL="5" NAME="??4CFileExtractInterface@@QAEAAV0@ABV0@@Z" PURGE="4" COMMENT="" />
    <EXPORT ORDINAL="6" NAME="??4COMObjectBase@@QAEAAV0@ABV0@@Z" PURGE="4" COMMENT="" />
    <EXPORT ORDINAL="7" NAME="??4RGExtClientSideInterface@@QAEAAV0@ABV0@@Z" PURGE="4" COMMENT="" />
    <EXPORT ORDINAL="8" NAME="??_7COMObjectBase@@6B@" PURGE="-1" COMMENT="" />
    <EXPORT ORDINAL="9" NAME="?AssumeGlobalControl@RGExtClientSideInterface@@SAXXZ" PURGE="0" COMMENT="" />
    <EXPORT ORDINAL="10" NAME="?Base64Decode@RGExtClientSideInterface@@SAHPBDHPADH@Z" PURGE="0" COMMENT="" />
    <EXPORT ORDINAL="11" NAME="?Base64Encode@RGExtClientSideInterface@@SAHPBDHPADH@Z" PURGE="0" COMMENT="" />
    <EXPORT ORDINAL="12" NAME="?BypassChannel@RGExtClientSideInterface@@SAHK@Z" PURGE="0" COMMENT="" />
    <EXPORT ORDINAL="13" NAME="?CacheLookup@RGExtClientSideInterface@@SAHABVCString@@AAVCPrsID@@AAJ@Z" PURGE="0" COMMENT="" />
    <EXPORT ORDINAL="14" NAME="?CalcMD5Digest@RGExtClientSideInterface@@SA?AVCString@@ABV2@@Z" PURGE="0" COMMENT="" />
    <EXPORT ORDINAL="15" NAME="?CheckCache@RGExtClientSideInterface@@SAXAAVCString@@@Z" PURGE="0" COMMENT="" />
    <EXPORT ORDINAL="16" NAME="?DisplayWaitingStatus@RGExtClientSideInterface@@SAXKH@Z" PURGE="0" COMMENT="" />
    <EXPORT ORDINAL="17" NAME="?Get@CFileExtractInterface@@QAEHPADH@Z" PURGE="8" COMMENT="" />
    <EXPORT ORDINAL="18" NAME="?GetAppID@RGExtClientSideInterface@@SA?AVCString@@XZ" PURGE="0" COMMENT="" />
    <EXPORT ORDINAL="19" NAME="?GetBackWebDataDir@RGExtClientSideInterface@@SA?AVCString@@XZ" PURGE="0" COMMENT="" />
    <EXPORT ORDINAL="20" NAME="?GetBackWebDir@RGExtClientSideInterface@@SA?AVCString@@XZ" PURGE="0" COMMENT="" />
    <EXPORT ORDINAL="21" NAME="?GetBackWebRootDataDir@RGExtClientSideInterface@@SA?AVCString@@XZ" PURGE="0" COMMENT="" />
    <EXPORT ORDINAL="22" NAME="?GetCurPrsSize@RGExtClientSideInterface@@SAJABVCPrsID@@@Z" PURGE="0" COMMENT="" />
    <EXPORT ORDINAL="23" NAME="?GetDownloadEnabled@RGExtClientSideInterface@@SAHH@Z" PURGE="0" COMMENT="" />
    <EXPORT ORDINAL="24" NAME="?GetFreeDiskSpaceInK@RGExtClientSideInterface@@SAJXZ" PURGE="0" COMMENT="" />
    <EXPORT ORDINAL="25" NAME="?GetLen@CFileExtractInterface@@QAEJXZ" PURGE="0" COMMENT="" />
    <EXPORT ORDINAL="26" NAME="?GetLocalIPAddr@RGExtClientSideInterface@@SAKXZ" PURGE="0" COMMENT="" />
    <EXPORT ORDINAL="27" NAME="?GetLogLevel@RGExtClientSideInterface@@SAHXZ" PURGE="0" COMMENT="" />
    <EXPORT ORDINAL="28" NAME="?GetLogServer@RGExtClientSideInterface@@SA?AVCString@@XZ" PURGE="0" COMMENT="" />
    <EXPORT ORDINAL="29" NAME="?GetMaxInfoPakFilesToCache@RGExtClientSideInterface@@SAKXZ" PURGE="0" COMMENT="" />
    <EXPORT ORDINAL="30" NAME="?GetMaxLogSize@RGExtClientSideInterface@@SAHXZ" PURGE="0" COMMENT="" />
    <EXPORT ORDINAL="31" NAME="?GetMinFreeDiskInK@RGExtClientSideInterface@@SAHXZ" PURGE="0" COMMENT="" />
    <EXPORT ORDINAL="32" NAME="?GetNCBcastMask@RGExtClientSideInterface@@SA?AVCString@@XZ" PURGE="0" COMMENT="" />
    <EXPORT ORDINAL="33" NAME="?GetNCBcastPort@RGExtClientSideInterface@@SAHXZ" PURGE="0" COMMENT="" />
    <EXPORT ORDINAL="34" NAME="?GetNCHttpServerPort@RGExtClientSideInterface@@SAHXZ" PURGE="0" COMMENT="" />
    <EXPORT ORDINAL="35" NAME="?GetNCMaxServers@RGExtClientSideInterface@@SAHXZ" PURGE="0" COMMENT="" />
    <EXPORT ORDINAL="36" NAME="?GetNCMcastGroup@RGExtClientSideInterface@@SA?AVCString@@XZ" PURGE="0" COMMENT="" />
    <EXPORT ORDINAL="37" NAME="?GetNCMcastPort@RGExtClientSideInterface@@SAHXZ" PURGE="0" COMMENT="" />
    <EXPORT ORDINAL="38" NAME="?GetNCUseMcast@RGExtClientSideInterface@@SAHXZ" PURGE="0" COMMENT="" />
    <EXPORT ORDINAL="39" NAME="?GetNSubnets@RGExtClientSideInterface@@SAHXZ" PURGE="0" COMMENT="" />
    <EXPORT ORDINAL="40" NAME="?GetNeighborCastUsed@RGExtClientSideInterface@@SAHH@Z" PURGE="0" COMMENT="" />
    <EXPORT ORDINAL="41" NAME="?GetTTL@RGExtClientSideInterface@@SAHXZ" PURGE="0" COMMENT="" />
    <EXPORT ORDINAL="42" NAME="?GetThrottle@RGExtClientSideInterface@@SAHXZ" PURGE="0" COMMENT="" />
    <EXPORT ORDINAL="43" NAME="?GetTotPrsSize@RGExtClientSideInterface@@SAJABVCPrsID@@@Z" PURGE="0" COMMENT="" />
    <EXPORT ORDINAL="44" NAME="?GrowCurPrsSize@RGExtClientSideInterface@@SAHABVCPrsID@@J@Z" PURGE="0" COMMENT="" />
    <EXPORT ORDINAL="45" NAME="?InsertFileToInfoPak@RGExtClientSideInterface@@SAHABVCString@@0AAVCPrsID@@0H@Z" PURGE="0" COMMENT="" />
    <EXPORT ORDINAL="46" NAME="?LogToServer@RGExtClientSideInterface@@SAXPBD@Z" PURGE="0" COMMENT="" />
    <EXPORT ORDINAL="47" NAME="?Open@CFileExtractInterface@@QAE?AW4EOpenResult@1@XZ" PURGE="0" COMMENT="" />
    <EXPORT ORDINAL="48" NAME="?OpenAux@CFileExtractInterface@@AAE?AW4EOpenResult@1@PAUIBackWebInfoPakFilesCollection@@H@Z" PURGE="8" COMMENT="" />
    <EXPORT ORDINAL="49" NAME="?PolitenessIgnoreRecvPacket@RGExtClientSideInterface@@SAXXZ" PURGE="0" COMMENT="" />
    <EXPORT ORDINAL="50" NAME="?PolitenessIgnoreSendPacket@RGExtClientSideInterface@@SAXXZ" PURGE="0" COMMENT="" />
    <EXPORT ORDINAL="51" NAME="?RestorePoliteness@RGExtClientSideInterface@@SAXXZ" PURGE="0" COMMENT="" />
    <EXPORT ORDINAL="52" NAME="?ReturnControl@RGExtClientSideInterface@@SAXABVCPrsID@@H@Z" PURGE="0" COMMENT="" />
    <EXPORT ORDINAL="53" NAME="?ReturnGlobalControl@RGExtClientSideInterface@@SAXXZ" PURGE="0" COMMENT="" />
    <EXPORT ORDINAL="54" NAME="?SetCurrentSrc@RGExtClientSideInterface@@SAXKK@Z" PURGE="0" COMMENT="" />
    <EXPORT ORDINAL="55" NAME="?SetNeighborCastUsed@RGExtClientSideInterface@@SAXH@Z" PURGE="0" COMMENT="" />
    <EXPORT ORDINAL="56" NAME="?TurnOffPoliteness@RGExtClientSideInterface@@SAXXZ" PURGE="0" COMMENT="" />
    <EXPORT ORDINAL="57" NAME="?UseNeighborCastForPrs@RGExtClientSideInterface@@SAHABVCPrsID@@@Z" PURGE="0" COMMENT="" />
    <EXPORT ORDINAL="58" NAME="Go" PURGE="0" COMMENT="" />
</LIBRARY>

