<?xml version="1.0" encoding="UTF-8"?>
<LIBRARY NAME="bcgcbpro730.dll" PATH="/DLLArchive/etc/bcgcbpro730.dll" DATE="Fri Jul 03 12:25:10 PDT 2020" VERSION="7, 30, 0, 0">
    <EXPORT ORDINAL="1" NAME="??0BCGP_BASE_UNDO_DATA@@QAE@ABU0@@Z" PURGE="4" COMMENT="" />
    <EXPORT ORDINAL="2" NAME="??0BCGP_BASE_UNDO_DATA@@QAE@XZ" PURGE="0" COMMENT="" />
    <EXPORT ORDINAL="3" NAME="??0BCGP_EDIT_OUTLINE_CHANGES@@QAE@HH@Z" PURGE="8" COMMENT="" />
    <EXPORT ORDINAL="4" NAME="??0BCGP_EDIT_OUTLINE_CHANGES@@QAE@XZ" PURGE="0" COMMENT="" />
    <EXPORT ORDINAL="5" NAME="??0BCGP_EDIT_UNDO_ACTION@@QAE@ABU0@@Z" PURGE="4" COMMENT="" />
    <EXPORT ORDINAL="6" NAME="??0BCGP_EDIT_UNDO_ACTION@@QAE@XZ" PURGE="0" COMMENT="" />
    <EXPORT ORDINAL="7" NAME="??0BCGP_EDIT_UNDO_INDENT_DATA@@QAE@HHH@Z" PURGE="12" COMMENT="" />
    <EXPORT ORDINAL="8" NAME="??0BCGP_EDIT_UNDO_INDENT_DATA@@QAE@XZ" PURGE="0" COMMENT="" />
    <EXPORT ORDINAL="9" NAME="??0BCGP_EDIT_UNDO_OUTLINE_DATA@@QAE@ABU0@@Z" PURGE="4" COMMENT="" />
    <EXPORT ORDINAL="10" NAME="??0BCGP_EDIT_UNDO_OUTLINE_DATA@@QAE@PAUBCGP_EDIT_OUTLINE_CHANGES@@H@Z" PURGE="8" COMMENT="" />
    <EXPORT ORDINAL="11" NAME="??0BCGP_EDIT_UNDO_OUTLINE_DATA@@QAE@XZ" PURGE="0" COMMENT="" />
    <EXPORT ORDINAL="12" NAME="??0BlockType@@QAE@PBD00HHPAVCStringList@@@Z" PURGE="24" COMMENT="" />
    <EXPORT ORDINAL="13" NAME="??0BlockType@@QAE@XZ" PURGE="0" COMMENT="" />
    <EXPORT ORDINAL="14" NAME="??0CBCGPAnimCtrl@@QAE@XZ" PURGE="0" COMMENT="" />
    <EXPORT ORDINAL="15" NAME="??0CBCGPAppBarWnd@@QAE@XZ" PURGE="0" COMMENT="" />
    <EXPORT ORDINAL="16" NAME="??0CBCGPAutoHideButton@@QAE@XZ" PURGE="0" COMMENT="" />
    <EXPORT ORDINAL="17" NAME="??0CBCGPAutoHideDockBar@@QAE@XZ" PURGE="0" COMMENT="" />
    <EXPORT ORDINAL="18" NAME="??0CBCGPAutoHideToolBar@@QAE@XZ" PURGE="0" COMMENT="" />
    <EXPORT ORDINAL="19" NAME="??0CBCGPBarContainer@@QAE@PAVCBCGPBarContainerManager@@PAVCBCGPDockingControlBar@@1PAVCBCGPSlider@@@Z" PURGE="16" COMMENT="" />
    <EXPORT ORDINAL="20" NAME="??0CBCGPBarContainerManager@@QAE@XZ" PURGE="0" COMMENT="" />
    <EXPORT ORDINAL="21" NAME="??0CBCGPBaseControlBar@@QAE@XZ" PURGE="0" COMMENT="" />
    <EXPORT ORDINAL="22" NAME="??0CBCGPBaseIntelliSenseLB@@QAE@XZ" PURGE="0" COMMENT="" />
    <EXPORT ORDINAL="23" NAME="??0CBCGPBaseTabWnd@@QAE@XZ" PURGE="0" COMMENT="" />
    <EXPORT ORDINAL="24" NAME="??0CBCGPBaseTabbedBar@@QAE@H@Z" PURGE="4" COMMENT="" />
    <EXPORT ORDINAL="25" NAME="??0CBCGPBaseToolBar@@QAE@XZ" PURGE="0" COMMENT="" />
    <EXPORT ORDINAL="26" NAME="??0CBCGPButton@@QAE@XZ" PURGE="0" COMMENT="" />
    <EXPORT ORDINAL="27" NAME="??0CBCGPCalculator@@IAE@AAV0@I@Z" PURGE="8" COMMENT="" />
    <EXPORT ORDINAL="28" NAME="??0CBCGPCalculator@@QAE@NIPAVCBCGPEdit@@@Z" PURGE="16" COMMENT="" />
    <EXPORT ORDINAL="29" NAME="??0CBCGPCalculator@@QAE@XZ" PURGE="0" COMMENT="" />
    <EXPORT ORDINAL="30" NAME="??0CBCGPCalendarBar@@IAE@AAV0@IH@Z" PURGE="12" COMMENT="" />
    <EXPORT ORDINAL="31" NAME="??0CBCGPCalendarBar@@IAE@ABVCOleDateTime@ATL@@IPAVCBCGPDateTimeCtrl@@@Z" PURGE="12" COMMENT="" />
    <EXPORT ORDINAL="32" NAME="??0CBCGPCalendarBar@@QAE@XZ" PURGE="0" COMMENT="" />
    <EXPORT ORDINAL="33" NAME="??0CBCGPCalendarButton@@IAE@ABVCOleDateTime@ATL@@H@Z" PURGE="8" COMMENT="" />
    <EXPORT ORDINAL="34" NAME="??0CBCGPCalendarButton@@IAE@XZ" PURGE="0" COMMENT="" />
    <EXPORT ORDINAL="35" NAME="??0CBCGPCalendarMenuButton@@QAE@ABV0@@Z" PURGE="4" COMMENT="" />
    <EXPORT ORDINAL="36" NAME="??0CBCGPCalendarMenuButton@@QAE@IPBD@Z" PURGE="8" COMMENT="" />
    <EXPORT ORDINAL="37" NAME="??0CBCGPCalendarMenuButton@@QAE@XZ" PURGE="0" COMMENT="" />
    <EXPORT ORDINAL="38" NAME="??0CBCGPCaptionBar@@QAE@XZ" PURGE="0" COMMENT="" />
    <EXPORT ORDINAL="39" NAME="??0CBCGPCaptionButton@@QAE@IH@Z" PURGE="8" COMMENT="" />
    <EXPORT ORDINAL="40" NAME="??0CBCGPCaptionButton@@QAE@XZ" PURGE="0" COMMENT="" />
    <EXPORT ORDINAL="41" NAME="??0CBCGPCaptionMenuButton@@QAE@IH@Z" PURGE="8" COMMENT="" />
    <EXPORT ORDINAL="42" NAME="??0CBCGPCaptionMenuButton@@QAE@XZ" PURGE="0" COMMENT="" />
    <EXPORT ORDINAL="43" NAME="??0CBCGPColorBar@@IAE@AAV0@I@Z" PURGE="8" COMMENT="" />
    <EXPORT ORDINAL="44" NAME="??0CBCGPColorBar@@IAE@ABV?$CArray@KK@@KPBD11AAV?$CList@KK@@HHHKIPAVCBCGPColorButton@@@Z" PURGE="48" COMMENT="" />
    <EXPORT ORDINAL="45" NAME="??0CBCGPColorBar@@QAE@XZ" PURGE="0" COMMENT="" />
    <EXPORT ORDINAL="46" NAME="??0CBCGPColorButton@@QAE@XZ" PURGE="0" COMMENT="" />
    <EXPORT ORDINAL="47" NAME="??0CBCGPColorDialog@@QAE@KKPAVCWnd@@PAUHPALETTE__@@@Z" PURGE="16" COMMENT="" />
    <EXPORT ORDINAL="48" NAME="??0CBCGPColorMenuButton@@QAE@IPBDPAVCPalette@@@Z" PURGE="12" COMMENT="" />
    <EXPORT ORDINAL="49" NAME="??0CBCGPColorMenuButton@@QAE@XZ" PURGE="0" COMMENT="" />
    <EXPORT ORDINAL="50" NAME="??0CBCGPColorPickerCtrl@@QAE@XZ" PURGE="0" COMMENT="" />
    <EXPORT ORDINAL="51" NAME="??0CBCGPColorProp@@QAE@ABV?$CStringT@DV?$StrTraitMFC_DLL@DV?$ChTraitsCRT@D@ATL@@@@@ATL@@ABKPAVCPalette@@PBDK@Z" PURGE="20" COMMENT="" />
    <EXPORT ORDINAL="52" NAME="??0CBCGPComboEdit@@QAE@AAVCBCGPToolbarComboBoxButton@@@Z" PURGE="4" COMMENT="" />
    <EXPORT ORDINAL="53" NAME="??0CBCGPCommandManager@@IAE@XZ" PURGE="0" COMMENT="" />
    <EXPORT ORDINAL="54" NAME="??0CBCGPContextMenuManager@@QAE@XZ" PURGE="0" COMMENT="" />
    <EXPORT ORDINAL="55" NAME="??0CBCGPControlBar@@IAE@XZ" PURGE="0" COMMENT="" />
    <EXPORT ORDINAL="56" NAME="??0CBCGPControlBarImpl@@QAE@ABV0@@Z" PURGE="4" COMMENT="" />
    <EXPORT ORDINAL="57" NAME="??0CBCGPControlBarImpl@@QAE@PAVCBCGPControlBar@@@Z" PURGE="4" COMMENT="" />
    <EXPORT ORDINAL="58" NAME="??0CBCGPCustomizeMenuButton@@QAE@ABV0@@Z" PURGE="4" COMMENT="" />
    <EXPORT ORDINAL="59" NAME="??0CBCGPCustomizeMenuButton@@QAE@IPAUHMENU__@@HPBDH@Z" PURGE="20" COMMENT="" />
    <EXPORT ORDINAL="60" NAME="??0CBCGPCustomizeMenuButton@@QAE@XZ" PURGE="0" COMMENT="" />
    <EXPORT ORDINAL="61" NAME="??0CBCGPDateTimeCtrl@@QAE@XZ" PURGE="0" COMMENT="" />
    <EXPORT ORDINAL="62" NAME="??0CBCGPDateTimeProp@@QAE@ABV?$CStringT@DV?$StrTraitMFC_DLL@DV?$ChTraitsCRT@D@ATL@@@@@ATL@@ABVCOleDateTime@2@PBDKI@Z" PURGE="20" COMMENT="" />
    <EXPORT ORDINAL="63" NAME="??0CBCGPDialog@@QAE@IPAVCWnd@@@Z" PURGE="8" COMMENT="" />
    <EXPORT ORDINAL="64" NAME="??0CBCGPDialog@@QAE@PBDPAVCWnd@@@Z" PURGE="8" COMMENT="" />
    <EXPORT ORDINAL="65" NAME="??0CBCGPDialog@@QAE@XZ" PURGE="0" COMMENT="" />
    <EXPORT ORDINAL="66" NAME="??0CBCGPDialogBar@@QAE@XZ" PURGE="0" COMMENT="" />
    <EXPORT ORDINAL="67" NAME="??0CBCGPDlgImpl@@IAE@AAVCWnd@@@Z" PURGE="4" COMMENT="" />
    <EXPORT ORDINAL="68" NAME="??0CBCGPDlgImpl@@QAE@ABV0@@Z" PURGE="4" COMMENT="" />
    <EXPORT ORDINAL="69" NAME="??0CBCGPDockBar@@QAE@XZ" PURGE="0" COMMENT="" />
    <EXPORT ORDINAL="70" NAME="??0CBCGPDockBarRow@@QAE@PAVCBCGPDockBar@@HH@Z" PURGE="12" COMMENT="" />
    <EXPORT ORDINAL="71" NAME="??0CBCGPDockManager@@QAE@XZ" PURGE="0" COMMENT="" />
    <EXPORT ORDINAL="72" NAME="??0CBCGPDockingCBWrapper@@QAE@XZ" PURGE="0" COMMENT="" />
    <EXPORT ORDINAL="73" NAME="??0CBCGPDockingControlBar@@QAE@XZ" PURGE="0" COMMENT="" />
    <EXPORT ORDINAL="74" NAME="??0CBCGPDrawManager@@QAE@AAVCDC@@@Z" PURGE="4" COMMENT="" />
    <EXPORT ORDINAL="75" NAME="??0CBCGPDropDownToolBar@@QAE@XZ" PURGE="0" COMMENT="" />
    <EXPORT ORDINAL="76" NAME="??0CBCGPDropDownToolbarButton@@QAE@PBDPAVCBCGPDropDownToolBar@@@Z" PURGE="8" COMMENT="" />
    <EXPORT ORDINAL="77" NAME="??0CBCGPDropDownToolbarButton@@QAE@XZ" PURGE="0" COMMENT="" />
    <EXPORT ORDINAL="78" NAME="??0CBCGPDurationCtrl@@QAE@XZ" PURGE="0" COMMENT="" />
    <EXPORT ORDINAL="79" NAME="??0CBCGPEdit@@QAE@XZ" PURGE="0" COMMENT="" />
    <EXPORT ORDINAL="80" NAME="??0CBCGPEditCtrl@@QAE@XZ" PURGE="0" COMMENT="" />
    <EXPORT ORDINAL="81" NAME="??0CBCGPEditCtrlDropTarget@@QAE@XZ" PURGE="0" COMMENT="" />
    <EXPORT ORDINAL="82" NAME="??0CBCGPEditListBase@@IAE@XZ" PURGE="0" COMMENT="" />
    <EXPORT ORDINAL="83" NAME="??0CBCGPEditListBox@@QAE@XZ" PURGE="0" COMMENT="" />
    <EXPORT ORDINAL="84" NAME="??0CBCGPEditMarker@@QAE@ABV0@@Z" PURGE="4" COMMENT="" />
    <EXPORT ORDINAL="85" NAME="??0CBCGPEditMarker@@QAE@XZ" PURGE="0" COMMENT="" />
    <EXPORT ORDINAL="86" NAME="??0CBCGPEditView@@QAE@XZ" PURGE="0" COMMENT="" />
    <EXPORT ORDINAL="87" NAME="??0CBCGPFileDialog@@QAE@PBDH00K0PAVCWnd@@@Z" PURGE="28" COMMENT="" />
    <EXPORT ORDINAL="88" NAME="??0CBCGPFileProp@@QAE@ABV?$CStringT@DV?$StrTraitMFC_DLL@DV?$ChTraitsCRT@D@ATL@@@@@ATL@@0KPBD@Z" PURGE="16" COMMENT="" />
    <EXPORT ORDINAL="89" NAME="??0CBCGPFileProp@@QAE@ABV?$CStringT@DV?$StrTraitMFC_DLL@DV?$ChTraitsCRT@D@ATL@@@@@ATL@@H0PBDK11K@Z" PURGE="32" COMMENT="" />
    <EXPORT ORDINAL="90" NAME="??0CBCGPFontComboBox@@QAE@XZ" PURGE="0" COMMENT="" />
    <EXPORT ORDINAL="91" NAME="??0CBCGPFontDesc@@QAE@ABV0@@Z" PURGE="4" COMMENT="" />
    <EXPORT ORDINAL="92" NAME="??0CBCGPFontDesc@@QAE@PBD0EEH@Z" PURGE="20" COMMENT="" />
    <EXPORT ORDINAL="93" NAME="??0CBCGPFontProp@@QAE@ABV?$CStringT@DV?$StrTraitMFC_DLL@DV?$ChTraitsCRT@D@ATL@@@@@ATL@@AAUtagLOGFONTA@@KPBDKK@Z" PURGE="24" COMMENT="" />
    <EXPORT ORDINAL="94" NAME="??0CBCGPFrameImpl@@QAE@PAVCFrameWnd@@@Z" PURGE="4" COMMENT="" />
    <EXPORT ORDINAL="95" NAME="??0CBCGPFrameWnd@@IAE@XZ" PURGE="0" COMMENT="" />
    <EXPORT ORDINAL="96" NAME="??0CBCGPFullScreenImpl@@QAE@ABV0@@Z" PURGE="4" COMMENT="" />
    <EXPORT ORDINAL="97" NAME="??0CBCGPFullScreenImpl@@QAE@PAVCBCGPFrameImpl@@@Z" PURGE="4" COMMENT="" />
    <EXPORT ORDINAL="98" NAME="??0CBCGPGlobalUtils@@QAE@ABV0@@Z" PURGE="4" COMMENT="" />
    <EXPORT ORDINAL="99" NAME="??0CBCGPGlobalUtils@@QAE@XZ" PURGE="0" COMMENT="" />
    <EXPORT ORDINAL="100" NAME="??0CBCGPHeaderCtrl@@QAE@XZ" PURGE="0" COMMENT="" />
    <EXPORT ORDINAL="101" NAME="??0CBCGPHiliteMarker@@QAE@ABV0@@Z" PURGE="4" COMMENT="" />
    <EXPORT ORDINAL="102" NAME="??0CBCGPHiliteMarker@@QAE@XZ" PURGE="0" COMMENT="" />
    <EXPORT ORDINAL="103" NAME="??0CBCGPHotSpot@@QAE@I@Z" PURGE="4" COMMENT="" />
    <EXPORT ORDINAL="104" NAME="??0CBCGPHotSpotImageCtrl@@QAE@XZ" PURGE="0" COMMENT="" />
    <EXPORT ORDINAL="105" NAME="??0CBCGPImageEditDlg@@QAE@PAVCBitmap@@PAVCWnd@@H@Z" PURGE="12" COMMENT="" />
    <EXPORT ORDINAL="106" NAME="??0CBCGPIntelliSenseData@@QAE@XZ" PURGE="0" COMMENT="" />
    <EXPORT ORDINAL="107" NAME="??0CBCGPIntelliSenseLB@@QAE@XZ" PURGE="0" COMMENT="" />
    <EXPORT ORDINAL="108" NAME="??0CBCGPIntelliSenseWnd@@QAE@XZ" PURGE="0" COMMENT="" />
    <EXPORT ORDINAL="109" NAME="??0CBCGPKeyHelper@@QAE@PAUtagACCEL@@@Z" PURGE="4" COMMENT="" />
    <EXPORT ORDINAL="110" NAME="??0CBCGPKeyHelper@@QAE@XZ" PURGE="0" COMMENT="" />
    <EXPORT ORDINAL="111" NAME="??0CBCGPKeyMapDlg@@QAE@PAVCFrameWnd@@H@Z" PURGE="8" COMMENT="" />
    <EXPORT ORDINAL="112" NAME="??0CBCGPKeyboardManager@@QAE@XZ" PURGE="0" COMMENT="" />
    <EXPORT ORDINAL="113" NAME="??0CBCGPLineColorMarker@@QAE@ABV0@@Z" PURGE="4" COMMENT="" />
    <EXPORT ORDINAL="114" NAME="??0CBCGPLineColorMarker@@QAE@XZ" PURGE="0" COMMENT="" />
    <EXPORT ORDINAL="115" NAME="??0CBCGPListCtrl@@QAE@XZ" PURGE="0" COMMENT="" />
    <EXPORT ORDINAL="116" NAME="??0CBCGPMDIChildWnd@@IAE@XZ" PURGE="0" COMMENT="" />
    <EXPORT ORDINAL="117" NAME="??0CBCGPMDIFrameWnd@@IAE@XZ" PURGE="0" COMMENT="" />
    <EXPORT ORDINAL="118" NAME="??0CBCGPMDITabParams@@QAE@XZ" PURGE="0" COMMENT="" />
    <EXPORT ORDINAL="119" NAME="??0CBCGPMainClientAreaWnd@@QAE@XZ" PURGE="0" COMMENT="" />
    <EXPORT ORDINAL="120" NAME="??0CBCGPMaskEdit@@QAE@XZ" PURGE="0" COMMENT="" />
    <EXPORT ORDINAL="121" NAME="??0CBCGPMemDC@@QAE@AAVCDC@@PAVCWnd@@@Z" PURGE="8" COMMENT="" />
    <EXPORT ORDINAL="122" NAME="??0CBCGPMenuBar@@QAE@XZ" PURGE="0" COMMENT="" />
    <EXPORT ORDINAL="123" NAME="??0CBCGPMenuButton@@QAE@XZ" PURGE="0" COMMENT="" />
    <EXPORT ORDINAL="124" NAME="??0CBCGPMiniFrameWnd@@QAE@XZ" PURGE="0" COMMENT="" />
    <EXPORT ORDINAL="125" NAME="??0CBCGPMouseManager@@QAE@XZ" PURGE="0" COMMENT="" />
    <EXPORT ORDINAL="126" NAME="??0CBCGPMultiMiniFrameWnd@@QAE@XZ" PURGE="0" COMMENT="" />
    <EXPORT ORDINAL="127" NAME="??0CBCGPOleCntrFrameWnd@@QAE@PAVCOleIPFrameWnd@@@Z" PURGE="4" COMMENT="" />
    <EXPORT ORDINAL="128" NAME="??0CBCGPOleDocIPFrameWnd@@IAE@XZ" PURGE="0" COMMENT="" />
    <EXPORT ORDINAL="129" NAME="??0CBCGPOleIPFrameWnd@@IAE@XZ" PURGE="0" COMMENT="" />
    <EXPORT ORDINAL="130" NAME="??0CBCGPOleServerDoc@@IAE@XZ" PURGE="0" COMMENT="" />
    <EXPORT ORDINAL="131" NAME="??0CBCGPOutlineBaseNode@@QAE@ABV0@@Z" PURGE="4" COMMENT="" />
    <EXPORT ORDINAL="132" NAME="??0CBCGPOutlineBaseNode@@QAE@XZ" PURGE="0" COMMENT="" />
    <EXPORT ORDINAL="133" NAME="??0CBCGPOutlineNode@@QAE@ABVCBCGPOutlineBaseNode@@@Z" PURGE="4" COMMENT="" />
    <EXPORT ORDINAL="134" NAME="??0CBCGPOutlineNode@@QAE@XZ" PURGE="0" COMMENT="" />
    <EXPORT ORDINAL="135" NAME="??0CBCGPOutlineParser@@QAE@XZ" PURGE="0" COMMENT="" />
    <EXPORT ORDINAL="136" NAME="??0CBCGPOutlookBar@@QAE@XZ" PURGE="0" COMMENT="" />
    <EXPORT ORDINAL="137" NAME="??0CBCGPOutlookBarDockingPane@@QAE@XZ" PURGE="0" COMMENT="" />
    <EXPORT ORDINAL="138" NAME="??0CBCGPOutlookBarPane@@QAE@XZ" PURGE="0" COMMENT="" />
    <EXPORT ORDINAL="139" NAME="??0CBCGPOutlookButton@@QAE@XZ" PURGE="0" COMMENT="" />
    <EXPORT ORDINAL="140" NAME="??0CBCGPOutlookControlBar@@QAE@H@Z" PURGE="4" COMMENT="" />
    <EXPORT ORDINAL="141" NAME="??0CBCGPOutlookWnd@@QAE@XZ" PURGE="0" COMMENT="" />
    <EXPORT ORDINAL="142" NAME="??0CBCGPPopupMenu@@IAE@PAVCBCGPMenuPage@@PBD@Z" PURGE="8" COMMENT="" />
    <EXPORT ORDINAL="143" NAME="??0CBCGPPopupMenu@@QAE@XZ" PURGE="0" COMMENT="" />
    <EXPORT ORDINAL="144" NAME="??0CBCGPPopupMenuBar@@QAE@XZ" PURGE="0" COMMENT="" />
    <EXPORT ORDINAL="145" NAME="??0CBCGPPrintPreviewToolBar@@QAE@XZ" PURGE="0" COMMENT="" />
    <EXPORT ORDINAL="146" NAME="??0CBCGPPrintPreviewView@@IAE@XZ" PURGE="0" COMMENT="" />
    <EXPORT ORDINAL="147" NAME="??0CBCGPProp@@QAE@ABV?$CStringT@DV?$StrTraitMFC_DLL@DV?$ChTraitsCRT@D@ATL@@@@@ATL@@ABV_variant_t@@PBDK222@Z" PURGE="28" COMMENT="" />
    <EXPORT ORDINAL="148" NAME="??0CBCGPProp@@QAE@ABV?$CStringT@DV?$StrTraitMFC_DLL@DV?$ChTraitsCRT@D@ATL@@@@@ATL@@KH@Z" PURGE="12" COMMENT="" />
    <EXPORT ORDINAL="149" NAME="??0CBCGPPropList@@QAE@XZ" PURGE="0" COMMENT="" />
    <EXPORT ORDINAL="150" NAME="??0CBCGPPropSheetCategory@@QAE@PBDHHPBV0@AAVCBCGPPropertySheet@@@Z" PURGE="20" COMMENT="" />
    <EXPORT ORDINAL="151" NAME="??0CBCGPPropertyPage@@QAE@II@Z" PURGE="8" COMMENT="" />
    <EXPORT ORDINAL="152" NAME="??0CBCGPPropertyPage@@QAE@PBDI@Z" PURGE="8" COMMENT="" />
    <EXPORT ORDINAL="153" NAME="??0CBCGPPropertyPage@@QAE@XZ" PURGE="0" COMMENT="" />
    <EXPORT ORDINAL="154" NAME="??0CBCGPPropertySheet@@QAE@IPAVCWnd@@I@Z" PURGE="12" COMMENT="" />
    <EXPORT ORDINAL="155" NAME="??0CBCGPPropertySheet@@QAE@PBDPAVCWnd@@I@Z" PURGE="12" COMMENT="" />
    <EXPORT ORDINAL="156" NAME="??0CBCGPPropertySheet@@QAE@XZ" PURGE="0" COMMENT="" />
    <EXPORT ORDINAL="157" NAME="??0CBCGPReBar@@QAE@XZ" PURGE="0" COMMENT="" />
    <EXPORT ORDINAL="158" NAME="??0CBCGPRegistry@@IAE@XZ" PURGE="0" COMMENT="" />
    <EXPORT ORDINAL="159" NAME="??0CBCGPRegistry@@QAE@HH@Z" PURGE="8" COMMENT="" />
    <EXPORT ORDINAL="160" NAME="??0CBCGPRegistrySP@@QAE@K@Z" PURGE="4" COMMENT="" />
    <EXPORT ORDINAL="161" NAME="??0CBCGPShellList@@QAE@XZ" PURGE="0" COMMENT="" />
    <EXPORT ORDINAL="162" NAME="??0CBCGPShellManager@@QAE@XZ" PURGE="0" COMMENT="" />
    <EXPORT ORDINAL="163" NAME="??0CBCGPShellTree@@QAE@XZ" PURGE="0" COMMENT="" />
    <EXPORT ORDINAL="164" NAME="??0CBCGPSkinManager@@QAE@PBD@Z" PURGE="4" COMMENT="" />
    <EXPORT ORDINAL="165" NAME="??0CBCGPSlider@@QAE@HPAVCWnd@@@Z" PURGE="8" COMMENT="" />
    <EXPORT ORDINAL="166" NAME="??0CBCGPSmartDockingParams@@QAE@XZ" PURGE="0" COMMENT="" />
    <EXPORT ORDINAL="167" NAME="??0CBCGPSpinButtonCtrl@@QAE@XZ" PURGE="0" COMMENT="" />
    <EXPORT ORDINAL="168" NAME="??0CBCGPSplitterWnd@@QAE@XZ" PURGE="0" COMMENT="" />
    <EXPORT ORDINAL="169" NAME="??0CBCGPStatusBar@@QAE@XZ" PURGE="0" COMMENT="" />
    <EXPORT ORDINAL="170" NAME="??0CBCGPSymImagesLB@@QAE@XZ" PURGE="0" COMMENT="" />
    <EXPORT ORDINAL="171" NAME="??0CBCGPTabDropTarget@@QAE@XZ" PURGE="0" COMMENT="" />
    <EXPORT ORDINAL="172" NAME="??0CBCGPTabView@@IAE@XZ" PURGE="0" COMMENT="" />
    <EXPORT ORDINAL="173" NAME="??0CBCGPTabWnd@@QAE@XZ" PURGE="0" COMMENT="" />
    <EXPORT ORDINAL="174" NAME="??0CBCGPTabbedControlBar@@QAE@H@Z" PURGE="4" COMMENT="" />
    <EXPORT ORDINAL="175" NAME="??0CBCGPTabbedToolbar@@QAE@XZ" PURGE="0" COMMENT="" />
    <EXPORT ORDINAL="176" NAME="??0CBCGPTask@@QAE@PAVCBCGPTasksGroup@@PBDHIKPAUHWND__@@HH@Z" PURGE="32" COMMENT="" />
    <EXPORT ORDINAL="177" NAME="??0CBCGPTaskPaneMiniFrameWnd@@QAE@XZ" PURGE="0" COMMENT="" />
    <EXPORT ORDINAL="178" NAME="??0CBCGPTasksGroup@@QAE@PBDHHHPAVCBCGPTasksPanePage@@PAUHICON__@@@Z" PURGE="24" COMMENT="" />
    <EXPORT ORDINAL="179" NAME="??0CBCGPTasksPane@@QAE@XZ" PURGE="0" COMMENT="" />
    <EXPORT ORDINAL="180" NAME="??0CBCGPTasksPanePage@@QAE@PBDPAVCBCGPTasksPane@@@Z" PURGE="8" COMMENT="" />
    <EXPORT ORDINAL="181" NAME="??0CBCGPTearOffManager@@QAE@XZ" PURGE="0" COMMENT="" />
    <EXPORT ORDINAL="182" NAME="??0CBCGPToolBar@@QAE@XZ" PURGE="0" COMMENT="" />
    <EXPORT ORDINAL="183" NAME="??0CBCGPToolBarImages@@QAE@XZ" PURGE="0" COMMENT="" />
    <EXPORT ORDINAL="184" NAME="??0CBCGPToolBarParams@@QAE@XZ" PURGE="0" COMMENT="" />
    <EXPORT ORDINAL="185" NAME="??0CBCGPToolBox@@QAE@XZ" PURGE="0" COMMENT="" />
    <EXPORT ORDINAL="186" NAME="??0CBCGPToolBoxButton@@QAE@XZ" PURGE="0" COMMENT="" />
    <EXPORT ORDINAL="187" NAME="??0CBCGPToolBoxEx@@QAE@XZ" PURGE="0" COMMENT="" />
    <EXPORT ORDINAL="188" NAME="??0CBCGPToolBoxPage@@QAE@XZ" PURGE="0" COMMENT="" />
    <EXPORT ORDINAL="189" NAME="??0CBCGPToolbarButton@@QAE@IHPBDHH@Z" PURGE="20" COMMENT="" />
    <EXPORT ORDINAL="190" NAME="??0CBCGPToolbarButton@@QAE@XZ" PURGE="0" COMMENT="" />
    <EXPORT ORDINAL="191" NAME="??0CBCGPToolbarComboBoxButton@@QAE@IHKH@Z" PURGE="16" COMMENT="" />
    <EXPORT ORDINAL="192" NAME="??0CBCGPToolbarComboBoxButton@@QAE@XZ" PURGE="0" COMMENT="" />
    <EXPORT ORDINAL="193" NAME="??0CBCGPToolbarCustomize@@QAE@PAVCFrameWnd@@HIPAV?$CList@PAUCRuntimeClass@@PAU1@@@@Z" PURGE="16" COMMENT="" />
    <EXPORT ORDINAL="194" NAME="??0CBCGPToolbarDateTimeCtrl@@QAE@IHKH@Z" PURGE="16" COMMENT="" />
    <EXPORT ORDINAL="195" NAME="??0CBCGPToolbarDateTimeCtrl@@QAE@XZ" PURGE="0" COMMENT="" />
    <EXPORT ORDINAL="196" NAME="??0CBCGPToolbarDropSource@@QAE@XZ" PURGE="0" COMMENT="" />
    <EXPORT ORDINAL="197" NAME="??0CBCGPToolbarDropTarget@@QAE@XZ" PURGE="0" COMMENT="" />
    <EXPORT ORDINAL="198" NAME="??0CBCGPToolbarEditBoxButton@@QAE@IHKH@Z" PURGE="16" COMMENT="" />
    <EXPORT ORDINAL="199" NAME="??0CBCGPToolbarEditBoxButton@@QAE@XZ" PURGE="0" COMMENT="" />
    <EXPORT ORDINAL="200" NAME="??0CBCGPToolbarFontCombo@@IAE@XZ" PURGE="0" COMMENT="" />
    <EXPORT ORDINAL="201" NAME="??0CBCGPToolbarFontCombo@@QAE@IHHEKHE@Z" PURGE="28" COMMENT="" />
    <EXPORT ORDINAL="202" NAME="??0CBCGPToolbarFontSizeCombo@@IAE@XZ" PURGE="0" COMMENT="" />
    <EXPORT ORDINAL="203" NAME="??0CBCGPToolbarFontSizeCombo@@QAE@IHKH@Z" PURGE="16" COMMENT="" />
    <EXPORT ORDINAL="204" NAME="??0CBCGPToolbarMenuButton@@QAE@ABV0@@Z" PURGE="4" COMMENT="" />
    <EXPORT ORDINAL="205" NAME="??0CBCGPToolbarMenuButton@@QAE@IPAUHMENU__@@HPBDH@Z" PURGE="20" COMMENT="" />
    <EXPORT ORDINAL="206" NAME="??0CBCGPToolbarMenuButton@@QAE@XZ" PURGE="0" COMMENT="" />
    <EXPORT ORDINAL="207" NAME="??0CBCGPToolbarSpinEditBoxButton@@QAE@IHKH@Z" PURGE="16" COMMENT="" />
    <EXPORT ORDINAL="208" NAME="??0CBCGPToolbarSpinEditBoxButton@@QAE@XZ" PURGE="0" COMMENT="" />
    <EXPORT ORDINAL="209" NAME="??0CBCGPURLLinkButton@@QAE@XZ" PURGE="0" COMMENT="" />
    <EXPORT ORDINAL="210" NAME="??0CBCGPUserTool@@QAE@XZ" PURGE="0" COMMENT="" />
    <EXPORT ORDINAL="211" NAME="??0CBCGPUserToolsManager@@QAE@IIIPAUCRuntimeClass@@II@Z" PURGE="24" COMMENT="" />
    <EXPORT ORDINAL="212" NAME="??0CBCGPUserToolsManager@@QAE@XZ" PURGE="0" COMMENT="" />
    <EXPORT ORDINAL="213" NAME="??0CBCGPVisualManager2003@@QAE@XZ" PURGE="0" COMMENT="" />
    <EXPORT ORDINAL="214" NAME="??0CBCGPVisualManager@@QAE@H@Z" PURGE="4" COMMENT="" />
    <EXPORT ORDINAL="215" NAME="??0CBCGPVisualManagerVS2005@@QAE@XZ" PURGE="0" COMMENT="" />
    <EXPORT ORDINAL="216" NAME="??0CBCGPVisualManagerXP@@IAE@H@Z" PURGE="4" COMMENT="" />
    <EXPORT ORDINAL="217" NAME="??0CBCGPWinXPThemeManager@@QAE@ABV0@@Z" PURGE="4" COMMENT="" />
    <EXPORT ORDINAL="218" NAME="??0CBCGPWinXPThemeManager@@QAE@XZ" PURGE="0" COMMENT="" />
    <EXPORT ORDINAL="219" NAME="??0CBCGPWinXPVisualManager@@QAE@H@Z" PURGE="4" COMMENT="" />
    <EXPORT ORDINAL="220" NAME="??0CBCGPWindowsManagerDlg@@QAE@PAVCBCGPMDIFrameWnd@@H@Z" PURGE="8" COMMENT="" />
    <EXPORT ORDINAL="221" NAME="??0CBCGPWorkspace@@QAE@ABV0@@Z" PURGE="4" COMMENT="" />
    <EXPORT ORDINAL="222" NAME="??0CBCGPWorkspace@@QAE@H@Z" PURGE="4" COMMENT="" />
    <EXPORT ORDINAL="223" NAME="??0CBCGStatusBarPaneInfo@@QAE@XZ" PURGE="0" COMMENT="" />
    <EXPORT ORDINAL="224" NAME="??0CCmdUsageCount@@QAE@XZ" PURGE="0" COMMENT="" />
    <EXPORT ORDINAL="225" NAME="??0CColorPopup@@QAE@ABV?$CArray@KK@@KPBD11AAV?$CList@KK@@HHHKIH@Z" PURGE="48" COMMENT="" />
    <EXPORT ORDINAL="226" NAME="??0CColorPopup@@QAE@PAVCBCGPColorButton@@ABV?$CArray@KK@@KPBD22AAV?$CList@KK@@HK@Z" PURGE="36" COMMENT="" />
    <EXPORT ORDINAL="227" NAME="??0CImagePaintArea@@QAE@PAVCBCGPImageEditDlg@@@Z" PURGE="4" COMMENT="" />
    <EXPORT ORDINAL="228" NAME="??0CKeyAssign@@QAE@XZ" PURGE="0" COMMENT="" />
    <EXPORT ORDINAL="229" NAME="??0GLOBAL_DATA@@QAE@XZ" PURGE="0" COMMENT="" />
    <EXPORT ORDINAL="230" NAME="??0Lexeme@@QAE@HW4LexemType@@HH@Z" PURGE="16" COMMENT="" />
    <EXPORT ORDINAL="231" NAME="??0Lexeme@@QAE@XZ" PURGE="0" COMMENT="" />
    <EXPORT ORDINAL="232" NAME="??1BCGP_BASE_UNDO_DATA@@UAE@XZ" PURGE="0" COMMENT="" />
    <EXPORT ORDINAL="233" NAME="??1BCGP_EDIT_OUTLINE_CHANGES@@UAE@XZ" PURGE="0" COMMENT="" />
    <EXPORT ORDINAL="234" NAME="??1BCGP_EDIT_UNDO_ACTION@@QAE@XZ" PURGE="0" COMMENT="" />
    <EXPORT ORDINAL="235" NAME="??1BCGP_EDIT_UNDO_INDENT_DATA@@UAE@XZ" PURGE="0" COMMENT="" />
    <EXPORT ORDINAL="236" NAME="??1BCGP_EDIT_UNDO_OUTLINE_DATA@@UAE@XZ" PURGE="0" COMMENT="" />
    <EXPORT ORDINAL="237" NAME="??1BlockType@@QAE@XZ" PURGE="0" COMMENT="" />
    <EXPORT ORDINAL="238" NAME="??1CBCGPAnimCtrl@@UAE@XZ" PURGE="0" COMMENT="" />
    <EXPORT ORDINAL="239" NAME="??1CBCGPAppBarWnd@@UAE@XZ" PURGE="0" COMMENT="" />
    <EXPORT ORDINAL="240" NAME="??1CBCGPAutoHideButton@@UAE@XZ" PURGE="0" COMMENT="" />
    <EXPORT ORDINAL="241" NAME="??1CBCGPAutoHideDockBar@@UAE@XZ" PURGE="0" COMMENT="" />
    <EXPORT ORDINAL="242" NAME="??1CBCGPAutoHideToolBar@@UAE@XZ" PURGE="0" COMMENT="" />
    <EXPORT ORDINAL="243" NAME="??1CBCGPBarContainer@@UAE@XZ" PURGE="0" COMMENT="" />
    <EXPORT ORDINAL="244" NAME="??1CBCGPBarContainerManager@@UAE@XZ" PURGE="0" COMMENT="" />
    <EXPORT ORDINAL="245" NAME="??1CBCGPBaseControlBar@@UAE@XZ" PURGE="-1" COMMENT="" />
    <EXPORT ORDINAL="246" NAME="??1CBCGPBaseIntelliSenseLB@@UAE@XZ" PURGE="-1" COMMENT="" />
    <EXPORT ORDINAL="247" NAME="??1CBCGPBaseTabWnd@@UAE@XZ" PURGE="0" COMMENT="" />
    <EXPORT ORDINAL="248" NAME="??1CBCGPBaseTabbedBar@@UAE@XZ" PURGE="0" COMMENT="" />
    <EXPORT ORDINAL="249" NAME="??1CBCGPBaseToolBar@@UAE@XZ" PURGE="0" COMMENT="" />
    <EXPORT ORDINAL="250" NAME="??1CBCGPButton@@UAE@XZ" PURGE="0" COMMENT="" />
    <EXPORT ORDINAL="251" NAME="??1CBCGPCalculator@@UAE@XZ" PURGE="0" COMMENT="" />
    <EXPORT ORDINAL="252" NAME="??1CBCGPCalendarBar@@UAE@XZ" PURGE="0" COMMENT="" />
    <EXPORT ORDINAL="253" NAME="??1CBCGPCalendarButton@@UAE@XZ" PURGE="-1" COMMENT="" />
    <EXPORT ORDINAL="254" NAME="??1CBCGPCalendarMenuButton@@UAE@XZ" PURGE="0" COMMENT="" />
    <EXPORT ORDINAL="255" NAME="??1CBCGPCaptionBar@@UAE@XZ" PURGE="0" COMMENT="" />
    <EXPORT ORDINAL="256" NAME="??1CBCGPCaptionButton@@UAE@XZ" PURGE="0" COMMENT="" />
    <EXPORT ORDINAL="257" NAME="??1CBCGPCaptionMenuButton@@UAE@XZ" PURGE="0" COMMENT="" />
    <EXPORT ORDINAL="258" NAME="??1CBCGPColorBar@@UAE@XZ" PURGE="0" COMMENT="" />
    <EXPORT ORDINAL="259" NAME="??1CBCGPColorButton@@UAE@XZ" PURGE="0" COMMENT="" />
    <EXPORT ORDINAL="260" NAME="??1CBCGPColorDialog@@UAE@XZ" PURGE="0" COMMENT="" />
    <EXPORT ORDINAL="261" NAME="??1CBCGPColorMenuButton@@UAE@XZ" PURGE="0" COMMENT="" />
    <EXPORT ORDINAL="262" NAME="??1CBCGPColorPickerCtrl@@UAE@XZ" PURGE="0" COMMENT="" />
    <EXPORT ORDINAL="263" NAME="??1CBCGPColorProp@@UAE@XZ" PURGE="0" COMMENT="" />
    <EXPORT ORDINAL="264" NAME="??1CBCGPComboEdit@@UAE@XZ" PURGE="-1" COMMENT="" />
    <EXPORT ORDINAL="265" NAME="??1CBCGPCommandManager@@UAE@XZ" PURGE="0" COMMENT="" />
    <EXPORT ORDINAL="266" NAME="??1CBCGPContextMenuManager@@UAE@XZ" PURGE="0" COMMENT="" />
    <EXPORT ORDINAL="267" NAME="??1CBCGPControlBar@@UAE@XZ" PURGE="0" COMMENT="" />
    <EXPORT ORDINAL="268" NAME="??1CBCGPControlBarImpl@@UAE@XZ" PURGE="0" COMMENT="" />
    <EXPORT ORDINAL="269" NAME="??1CBCGPCustomizeMenuButton@@UAE@XZ" PURGE="0" COMMENT="" />
    <EXPORT ORDINAL="270" NAME="??1CBCGPDateTimeCtrl@@UAE@XZ" PURGE="0" COMMENT="" />
    <EXPORT ORDINAL="271" NAME="??1CBCGPDateTimeProp@@UAE@XZ" PURGE="0" COMMENT="" />
    <EXPORT ORDINAL="272" NAME="??1CBCGPDialog@@UAE@XZ" PURGE="0" COMMENT="" />
    <EXPORT ORDINAL="273" NAME="??1CBCGPDialogBar@@UAE@XZ" PURGE="0" COMMENT="" />
    <EXPORT ORDINAL="274" NAME="??1CBCGPDlgImpl@@MAE@XZ" PURGE="0" COMMENT="" />
    <EXPORT ORDINAL="275" NAME="??1CBCGPDockBar@@UAE@XZ" PURGE="0" COMMENT="" />
    <EXPORT ORDINAL="276" NAME="??1CBCGPDockBarRow@@UAE@XZ" PURGE="-1" COMMENT="" />
    <EXPORT ORDINAL="277" NAME="??1CBCGPDockManager@@UAE@XZ" PURGE="0" COMMENT="" />
    <EXPORT ORDINAL="278" NAME="??1CBCGPDockingCBWrapper@@UAE@XZ" PURGE="0" COMMENT="" />
    <EXPORT ORDINAL="279" NAME="??1CBCGPDockingControlBar@@UAE@XZ" PURGE="0" COMMENT="" />
    <EXPORT ORDINAL="280" NAME="??1CBCGPDrawManager@@UAE@XZ" PURGE="0" COMMENT="" />
    <EXPORT ORDINAL="281" NAME="??1CBCGPDropDownToolBar@@UAE@XZ" PURGE="0" COMMENT="" />
    <EXPORT ORDINAL="282" NAME="??1CBCGPDropDownToolbarButton@@UAE@XZ" PURGE="-1" COMMENT="" />
    <EXPORT ORDINAL="283" NAME="??1CBCGPDurationCtrl@@UAE@XZ" PURGE="0" COMMENT="" />
    <EXPORT ORDINAL="284" NAME="??1CBCGPEdit@@UAE@XZ" PURGE="0" COMMENT="" />
    <EXPORT ORDINAL="285" NAME="??1CBCGPEditCtrl@@UAE@XZ" PURGE="0" COMMENT="" />
    <EXPORT ORDINAL="286" NAME="??1CBCGPEditCtrlDropTarget@@UAE@XZ" PURGE="-1" COMMENT="" />
    <EXPORT ORDINAL="287" NAME="??1CBCGPEditListBase@@UAE@XZ" PURGE="0" COMMENT="" />
    <EXPORT ORDINAL="288" NAME="??1CBCGPEditListBox@@UAE@XZ" PURGE="0" COMMENT="" />
    <EXPORT ORDINAL="289" NAME="??1CBCGPEditMarker@@UAE@XZ" PURGE="0" COMMENT="" />
    <EXPORT ORDINAL="290" NAME="??1CBCGPEditView@@MAE@XZ" PURGE="-1" COMMENT="" />
    <EXPORT ORDINAL="291" NAME="??1CBCGPFileDialog@@UAE@XZ" PURGE="0" COMMENT="" />
    <EXPORT ORDINAL="292" NAME="??1CBCGPFileProp@@UAE@XZ" PURGE="0" COMMENT="" />
    <EXPORT ORDINAL="293" NAME="??1CBCGPFontComboBox@@UAE@XZ" PURGE="0" COMMENT="" />
    <EXPORT ORDINAL="294" NAME="??1CBCGPFontDesc@@UAE@XZ" PURGE="-1" COMMENT="" />
    <EXPORT ORDINAL="295" NAME="??1CBCGPFontProp@@UAE@XZ" PURGE="0" COMMENT="" />
    <EXPORT ORDINAL="296" NAME="??1CBCGPFrameImpl@@UAE@XZ" PURGE="0" COMMENT="" />
    <EXPORT ORDINAL="297" NAME="??1CBCGPFrameWnd@@MAE@XZ" PURGE="0" COMMENT="" />
    <EXPORT ORDINAL="298" NAME="??1CBCGPFullScreenImpl@@UAE@XZ" PURGE="-1" COMMENT="" />
    <EXPORT ORDINAL="299" NAME="??1CBCGPGlobalUtils@@UAE@XZ" PURGE="0" COMMENT="" />
    <EXPORT ORDINAL="300" NAME="??1CBCGPHeaderCtrl@@UAE@XZ" PURGE="0" COMMENT="" />
    <EXPORT ORDINAL="301" NAME="??1CBCGPHiliteMarker@@UAE@XZ" PURGE="0" COMMENT="" />
    <EXPORT ORDINAL="302" NAME="??1CBCGPHotSpot@@UAE@XZ" PURGE="0" COMMENT="" />
    <EXPORT ORDINAL="303" NAME="??1CBCGPHotSpotImageCtrl@@UAE@XZ" PURGE="0" COMMENT="" />
    <EXPORT ORDINAL="304" NAME="??1CBCGPImageEditDlg@@UAE@XZ" PURGE="0" COMMENT="" />
    <EXPORT ORDINAL="305" NAME="??1CBCGPIntelliSenseData@@UAE@XZ" PURGE="-1" COMMENT="" />
    <EXPORT ORDINAL="306" NAME="??1CBCGPIntelliSenseLB@@UAE@XZ" PURGE="-1" COMMENT="" />
    <EXPORT ORDINAL="307" NAME="??1CBCGPIntelliSenseWnd@@MAE@XZ" PURGE="0" COMMENT="" />
    <EXPORT ORDINAL="308" NAME="??1CBCGPKeyHelper@@UAE@XZ" PURGE="0" COMMENT="" />
    <EXPORT ORDINAL="309" NAME="??1CBCGPKeyMapDlg@@UAE@XZ" PURGE="0" COMMENT="" />
    <EXPORT ORDINAL="310" NAME="??1CBCGPKeyboardManager@@UAE@XZ" PURGE="0" COMMENT="" />
    <EXPORT ORDINAL="311" NAME="??1CBCGPLineColorMarker@@UAE@XZ" PURGE="0" COMMENT="" />
    <EXPORT ORDINAL="312" NAME="??1CBCGPListCtrl@@UAE@XZ" PURGE="0" COMMENT="" />
    <EXPORT ORDINAL="313" NAME="??1CBCGPMDIChildWnd@@MAE@XZ" PURGE="0" COMMENT="" />
    <EXPORT ORDINAL="314" NAME="??1CBCGPMDIFrameWnd@@MAE@XZ" PURGE="0" COMMENT="" />
    <EXPORT ORDINAL="315" NAME="??1CBCGPMainClientAreaWnd@@UAE@XZ" PURGE="0" COMMENT="" />
    <EXPORT ORDINAL="316" NAME="??1CBCGPMaskEdit@@UAE@XZ" PURGE="-1" COMMENT="" />
    <EXPORT ORDINAL="317" NAME="??1CBCGPMemDC@@UAE@XZ" PURGE="0" COMMENT="" />
    <EXPORT ORDINAL="318" NAME="??1CBCGPMenuBar@@UAE@XZ" PURGE="0" COMMENT="" />
    <EXPORT ORDINAL="319" NAME="??1CBCGPMenuButton@@UAE@XZ" PURGE="0" COMMENT="" />
    <EXPORT ORDINAL="320" NAME="??1CBCGPMiniFrameWnd@@UAE@XZ" PURGE="0" COMMENT="" />
    <EXPORT ORDINAL="321" NAME="??1CBCGPMouseManager@@UAE@XZ" PURGE="0" COMMENT="" />
    <EXPORT ORDINAL="322" NAME="??1CBCGPMultiMiniFrameWnd@@UAE@XZ" PURGE="0" COMMENT="" />
    <EXPORT ORDINAL="323" NAME="??1CBCGPOleCntrFrameWnd@@MAE@XZ" PURGE="0" COMMENT="" />
    <EXPORT ORDINAL="324" NAME="??1CBCGPOleDocIPFrameWnd@@MAE@XZ" PURGE="0" COMMENT="" />
    <EXPORT ORDINAL="325" NAME="??1CBCGPOleIPFrameWnd@@MAE@XZ" PURGE="0" COMMENT="" />
    <EXPORT ORDINAL="326" NAME="??1CBCGPOleServerDoc@@UAE@XZ" PURGE="-1" COMMENT="" />
    <EXPORT ORDINAL="327" NAME="??1CBCGPOutlineBaseNode@@UAE@XZ" PURGE="-1" COMMENT="" />
    <EXPORT ORDINAL="328" NAME="??1CBCGPOutlineNode@@UAE@XZ" PURGE="0" COMMENT="" />
    <EXPORT ORDINAL="329" NAME="??1CBCGPOutlineParser@@UAE@XZ" PURGE="0" COMMENT="" />
    <EXPORT ORDINAL="330" NAME="??1CBCGPOutlookBar@@UAE@XZ" PURGE="0" COMMENT="" />
    <EXPORT ORDINAL="331" NAME="??1CBCGPOutlookBarDockingPane@@UAE@XZ" PURGE="0" COMMENT="" />
    <EXPORT ORDINAL="332" NAME="??1CBCGPOutlookBarPane@@UAE@XZ" PURGE="0" COMMENT="" />
    <EXPORT ORDINAL="333" NAME="??1CBCGPOutlookButton@@UAE@XZ" PURGE="-1" COMMENT="" />
    <EXPORT ORDINAL="334" NAME="??1CBCGPOutlookControlBar@@UAE@XZ" PURGE="0" COMMENT="" />
    <EXPORT ORDINAL="335" NAME="??1CBCGPOutlookWnd@@UAE@XZ" PURGE="0" COMMENT="" />
    <EXPORT ORDINAL="336" NAME="??1CBCGPPopupMenu@@UAE@XZ" PURGE="0" COMMENT="" />
    <EXPORT ORDINAL="337" NAME="??1CBCGPPopupMenuBar@@UAE@XZ" PURGE="0" COMMENT="" />
    <EXPORT ORDINAL="338" NAME="??1CBCGPPrintPreviewToolBar@@UAE@XZ" PURGE="0" COMMENT="" />
    <EXPORT ORDINAL="339" NAME="??1CBCGPPrintPreviewView@@MAE@XZ" PURGE="0" COMMENT="" />
    <EXPORT ORDINAL="340" NAME="??1CBCGPProp@@UAE@XZ" PURGE="0" COMMENT="" />
    <EXPORT ORDINAL="341" NAME="??1CBCGPPropList@@UAE@XZ" PURGE="0" COMMENT="" />
    <EXPORT ORDINAL="342" NAME="??1CBCGPPropSheetCategory@@UAE@XZ" PURGE="0" COMMENT="" />
    <EXPORT ORDINAL="343" NAME="??1CBCGPPropertyPage@@UAE@XZ" PURGE="0" COMMENT="" />
    <EXPORT ORDINAL="344" NAME="??1CBCGPPropertySheet@@UAE@XZ" PURGE="0" COMMENT="" />
    <EXPORT ORDINAL="345" NAME="??1CBCGPReBar@@UAE@XZ" PURGE="0" COMMENT="" />
    <EXPORT ORDINAL="346" NAME="??1CBCGPRegistry@@UAE@XZ" PURGE="-1" COMMENT="" />
    <EXPORT ORDINAL="347" NAME="??1CBCGPRegistrySP@@QAE@XZ" PURGE="0" COMMENT="" />
    <EXPORT ORDINAL="348" NAME="??1CBCGPShellList@@UAE@XZ" PURGE="0" COMMENT="" />
    <EXPORT ORDINAL="349" NAME="??1CBCGPShellManager@@UAE@XZ" PURGE="0" COMMENT="" />
    <EXPORT ORDINAL="350" NAME="??1CBCGPShellTree@@UAE@XZ" PURGE="-1" COMMENT="" />
    <EXPORT ORDINAL="351" NAME="??1CBCGPSkinManager@@UAE@XZ" PURGE="0" COMMENT="" />
    <EXPORT ORDINAL="352" NAME="??1CBCGPSlider@@UAE@XZ" PURGE="-1" COMMENT="" />
    <EXPORT ORDINAL="353" NAME="??1CBCGPSmartDockingParams@@UAE@XZ" PURGE="0" COMMENT="" />
    <EXPORT ORDINAL="354" NAME="??1CBCGPSpinButtonCtrl@@UAE@XZ" PURGE="-1" COMMENT="" />
    <EXPORT ORDINAL="355" NAME="??1CBCGPSplitterWnd@@UAE@XZ" PURGE="-1" COMMENT="" />
    <EXPORT ORDINAL="356" NAME="??1CBCGPStatusBar@@UAE@XZ" PURGE="0" COMMENT="" />
    <EXPORT ORDINAL="357" NAME="??1CBCGPSymImagesLB@@UAE@XZ" PURGE="-1" COMMENT="" />
    <EXPORT ORDINAL="358" NAME="??1CBCGPTabDropTarget@@UAE@XZ" PURGE="-1" COMMENT="" />
    <EXPORT ORDINAL="359" NAME="??1CBCGPTabView@@MAE@XZ" PURGE="0" COMMENT="" />
    <EXPORT ORDINAL="360" NAME="??1CBCGPTabWnd@@UAE@XZ" PURGE="0" COMMENT="" />
    <EXPORT ORDINAL="361" NAME="??1CBCGPTabbedControlBar@@UAE@XZ" PURGE="0" COMMENT="" />
    <EXPORT ORDINAL="362" NAME="??1CBCGPTabbedToolbar@@UAE@XZ" PURGE="0" COMMENT="" />
    <EXPORT ORDINAL="363" NAME="??1CBCGPTask@@UAE@XZ" PURGE="0" COMMENT="" />
    <EXPORT ORDINAL="364" NAME="??1CBCGPTaskPaneMiniFrameWnd@@UAE@XZ" PURGE="0" COMMENT="" />
    <EXPORT ORDINAL="365" NAME="??1CBCGPTasksGroup@@UAE@XZ" PURGE="0" COMMENT="" />
    <EXPORT ORDINAL="366" NAME="??1CBCGPTasksPane@@UAE@XZ" PURGE="0" COMMENT="" />
    <EXPORT ORDINAL="367" NAME="??1CBCGPTasksPanePage@@UAE@XZ" PURGE="-1" COMMENT="" />
    <EXPORT ORDINAL="368" NAME="??1CBCGPTearOffManager@@UAE@XZ" PURGE="0" COMMENT="" />
    <EXPORT ORDINAL="369" NAME="??1CBCGPToolBar@@UAE@XZ" PURGE="0" COMMENT="" />
    <EXPORT ORDINAL="370" NAME="??1CBCGPToolBarImages@@UAE@XZ" PURGE="0" COMMENT="" />
    <EXPORT ORDINAL="371" NAME="??1CBCGPToolBox@@UAE@XZ" PURGE="0" COMMENT="" />
    <EXPORT ORDINAL="372" NAME="??1CBCGPToolBoxButton@@UAE@XZ" PURGE="0" COMMENT="" />
    <EXPORT ORDINAL="373" NAME="??1CBCGPToolBoxEx@@UAE@XZ" PURGE="0" COMMENT="" />
    <EXPORT ORDINAL="374" NAME="??1CBCGPToolBoxPage@@UAE@XZ" PURGE="0" COMMENT="" />
    <EXPORT ORDINAL="375" NAME="??1CBCGPToolbarButton@@UAE@XZ" PURGE="-1" COMMENT="" />
    <EXPORT ORDINAL="376" NAME="??1CBCGPToolbarComboBoxButton@@UAE@XZ" PURGE="0" COMMENT="" />
    <EXPORT ORDINAL="377" NAME="??1CBCGPToolbarCustomize@@UAE@XZ" PURGE="0" COMMENT="" />
    <EXPORT ORDINAL="378" NAME="??1CBCGPToolbarDateTimeCtrl@@UAE@XZ" PURGE="0" COMMENT="" />
    <EXPORT ORDINAL="379" NAME="??1CBCGPToolbarDropSource@@UAE@XZ" PURGE="-1" COMMENT="" />
    <EXPORT ORDINAL="380" NAME="??1CBCGPToolbarDropTarget@@UAE@XZ" PURGE="-1" COMMENT="" />
    <EXPORT ORDINAL="381" NAME="??1CBCGPToolbarEditBoxButton@@UAE@XZ" PURGE="0" COMMENT="" />
    <EXPORT ORDINAL="382" NAME="??1CBCGPToolbarFontCombo@@UAE@XZ" PURGE="0" COMMENT="" />
    <EXPORT ORDINAL="383" NAME="??1CBCGPToolbarFontSizeCombo@@UAE@XZ" PURGE="0" COMMENT="" />
    <EXPORT ORDINAL="384" NAME="??1CBCGPToolbarMenuButton@@UAE@XZ" PURGE="0" COMMENT="" />
    <EXPORT ORDINAL="385" NAME="??1CBCGPToolbarSpinEditBoxButton@@UAE@XZ" PURGE="0" COMMENT="" />
    <EXPORT ORDINAL="386" NAME="??1CBCGPURLLinkButton@@UAE@XZ" PURGE="0" COMMENT="" />
    <EXPORT ORDINAL="387" NAME="??1CBCGPUserTool@@UAE@XZ" PURGE="-1" COMMENT="" />
    <EXPORT ORDINAL="388" NAME="??1CBCGPUserToolsManager@@UAE@XZ" PURGE="0" COMMENT="" />
    <EXPORT ORDINAL="389" NAME="??1CBCGPVisualManager2003@@UAE@XZ" PURGE="0" COMMENT="" />
    <EXPORT ORDINAL="390" NAME="??1CBCGPVisualManager@@UAE@XZ" PURGE="0" COMMENT="" />
    <EXPORT ORDINAL="391" NAME="??1CBCGPVisualManagerVS2005@@UAE@XZ" PURGE="0" COMMENT="" />
    <EXPORT ORDINAL="392" NAME="??1CBCGPVisualManagerXP@@UAE@XZ" PURGE="0" COMMENT="" />
    <EXPORT ORDINAL="393" NAME="??1CBCGPWinXPThemeManager@@UAE@XZ" PURGE="0" COMMENT="" />
    <EXPORT ORDINAL="394" NAME="??1CBCGPWinXPVisualManager@@UAE@XZ" PURGE="0" COMMENT="" />
    <EXPORT ORDINAL="395" NAME="??1CBCGPWindowsManagerDlg@@UAE@XZ" PURGE="0" COMMENT="" />
    <EXPORT ORDINAL="396" NAME="??1CBCGPWorkspace@@UAE@XZ" PURGE="0" COMMENT="" />
    <EXPORT ORDINAL="397" NAME="??1CCmdUsageCount@@UAE@XZ" PURGE="0" COMMENT="" />
    <EXPORT ORDINAL="398" NAME="??1CColorPopup@@UAE@XZ" PURGE="0" COMMENT="" />
    <EXPORT ORDINAL="399" NAME="??1CImagePaintArea@@UAE@XZ" PURGE="0" COMMENT="" />
    <EXPORT ORDINAL="400" NAME="??1CKeyAssign@@UAE@XZ" PURGE="0" COMMENT="" />
    <EXPORT ORDINAL="401" NAME="??1GLOBAL_DATA@@QAE@XZ" PURGE="0" COMMENT="" />
    <EXPORT ORDINAL="402" NAME="??4BCGP_BASE_UNDO_DATA@@QAEAAU0@ABU0@@Z" PURGE="4" COMMENT="" />
    <EXPORT ORDINAL="403" NAME="??4BCGP_EDIT_UNDO_ACTION@@QAEAAU0@ABU0@@Z" PURGE="4" COMMENT="" />
    <EXPORT ORDINAL="404" NAME="??4BCGP_EDIT_UNDO_OUTLINE_DATA@@QAEAAU0@ABU0@@Z" PURGE="4" COMMENT="" />
    <EXPORT ORDINAL="405" NAME="??4CBCGPControlBarImpl@@QAEAAV0@ABV0@@Z" PURGE="4" COMMENT="" />
    <EXPORT ORDINAL="406" NAME="??4CBCGPEditMarker@@UAEAAV0@ABV0@@Z" PURGE="4" COMMENT="" />
    <EXPORT ORDINAL="407" NAME="??4CBCGPFullScreenImpl@@QAEAAV0@ABV0@@Z" PURGE="4" COMMENT="" />
    <EXPORT ORDINAL="408" NAME="??4CBCGPGlobalUtils@@QAEAAV0@ABV0@@Z" PURGE="4" COMMENT="" />
    <EXPORT ORDINAL="409" NAME="??4CBCGPHiliteMarker@@QAEAAV0@ABV0@@Z" PURGE="4" COMMENT="" />
    <EXPORT ORDINAL="410" NAME="??4CBCGPLineColorMarker@@QAEAAV0@ABV0@@Z" PURGE="4" COMMENT="" />
    <EXPORT ORDINAL="411" NAME="??4CBCGPMDITabParams@@QAEAAV0@ABV0@@Z" PURGE="4" COMMENT="" />
    <EXPORT ORDINAL="412" NAME="??4CBCGPOutlineBaseNode@@UAEAAV0@ABV0@@Z" PURGE="4" COMMENT="" />
    <EXPORT ORDINAL="413" NAME="??4CBCGPRebarState@@QAEAAV0@ABV0@@Z" PURGE="4" COMMENT="" />
    <EXPORT ORDINAL="414" NAME="??4CBCGPRegistrySP@@QAEAAV0@ABV0@@Z" PURGE="4" COMMENT="" />
    <EXPORT ORDINAL="415" NAME="??4CBCGPToolBarParams@@QAEAAV0@ABV0@@Z" PURGE="4" COMMENT="" />
    <EXPORT ORDINAL="416" NAME="??4CBCGPWinXPThemeManager@@QAEAAV0@ABV0@@Z" PURGE="4" COMMENT="" />
    <EXPORT ORDINAL="417" NAME="??4CBCGStatusBarPaneInfo@@QAEAAV0@ABV0@@Z" PURGE="4" COMMENT="" />
    <EXPORT ORDINAL="418" NAME="??4CImageHash@@QAEAAV0@ABV0@@Z" PURGE="4" COMMENT="" />
    <EXPORT ORDINAL="419" NAME="??4CMenuImages@@QAEAAV0@ABV0@@Z" PURGE="4" COMMENT="" />
    <EXPORT ORDINAL="420" NAME="??4Lexeme@@QAEAAU0@ABU0@@Z" PURGE="4" COMMENT="" />
    <EXPORT ORDINAL="421" NAME="??8CBCGPFontDesc@@QAE_NABV0@@Z" PURGE="4" COMMENT="" />
    <EXPORT ORDINAL="422" NAME="??_7BCGP_BASE_UNDO_DATA@@6B@" PURGE="-1" COMMENT="" />
    <EXPORT ORDINAL="423" NAME="??_7BCGP_EDIT_OUTLINE_CHANGES@@6B@" PURGE="-1" COMMENT="" />
    <EXPORT ORDINAL="424" NAME="??_7BCGP_EDIT_UNDO_INDENT_DATA@@6B@" PURGE="-1" COMMENT="" />
    <EXPORT ORDINAL="425" NAME="??_7BCGP_EDIT_UNDO_OUTLINE_DATA@@6B@" PURGE="-1" COMMENT="" />
    <EXPORT ORDINAL="426" NAME="??_7CBCGPAnimCtrl@@6B@" PURGE="-1" COMMENT="" />
    <EXPORT ORDINAL="427" NAME="??_7CBCGPAppBarWnd@@6B@" PURGE="-1" COMMENT="" />
    <EXPORT ORDINAL="428" NAME="??_7CBCGPAutoHideButton@@6B@" PURGE="-1" COMMENT="" />
    <EXPORT ORDINAL="429" NAME="??_7CBCGPAutoHideDockBar@@6B@" PURGE="-1" COMMENT="" />
    <EXPORT ORDINAL="430" NAME="??_7CBCGPAutoHideToolBar@@6B@" PURGE="-1" COMMENT="" />
    <EXPORT ORDINAL="431" NAME="??_7CBCGPBarContainer@@6B@" PURGE="-1" COMMENT="" />
    <EXPORT ORDINAL="432" NAME="??_7CBCGPBarContainerManager@@6B@" PURGE="-1" COMMENT="" />
    <EXPORT ORDINAL="433" NAME="??_7CBCGPBaseControlBar@@6B@" PURGE="-1" COMMENT="" />
    <EXPORT ORDINAL="434" NAME="??_7CBCGPBaseIntelliSenseLB@@6B@" PURGE="-1" COMMENT="" />
    <EXPORT ORDINAL="435" NAME="??_7CBCGPBaseTabWnd@@6B@" PURGE="-1" COMMENT="" />
    <EXPORT ORDINAL="436" NAME="??_7CBCGPBaseTabbedBar@@6B@" PURGE="-1" COMMENT="" />
    <EXPORT ORDINAL="437" NAME="??_7CBCGPBaseToolBar@@6B@" PURGE="-1" COMMENT="" />
    <EXPORT ORDINAL="438" NAME="??_7CBCGPButton@@6B@" PURGE="-1" COMMENT="" />
    <EXPORT ORDINAL="439" NAME="??_7CBCGPCalculator@@6B@" PURGE="-1" COMMENT="" />
    <EXPORT ORDINAL="440" NAME="??_7CBCGPCalendarBar@@6B@" PURGE="-1" COMMENT="" />
    <EXPORT ORDINAL="441" NAME="??_7CBCGPCalendarButton@@6B@" PURGE="-1" COMMENT="" />
    <EXPORT ORDINAL="442" NAME="??_7CBCGPCalendarMenuButton@@6B@" PURGE="-1" COMMENT="" />
    <EXPORT ORDINAL="443" NAME="??_7CBCGPCaptionBar@@6B@" PURGE="-1" COMMENT="" />
    <EXPORT ORDINAL="444" NAME="??_7CBCGPCaptionButton@@6B@" PURGE="-1" COMMENT="" />
    <EXPORT ORDINAL="445" NAME="??_7CBCGPCaptionMenuButton@@6B@" PURGE="-1" COMMENT="" />
    <EXPORT ORDINAL="446" NAME="??_7CBCGPColorBar@@6B@" PURGE="-1" COMMENT="" />
    <EXPORT ORDINAL="447" NAME="??_7CBCGPColorButton@@6B@" PURGE="-1" COMMENT="" />
    <EXPORT ORDINAL="448" NAME="??_7CBCGPColorDialog@@6B@" PURGE="-1" COMMENT="" />
    <EXPORT ORDINAL="449" NAME="??_7CBCGPColorMenuButton@@6B@" PURGE="-1" COMMENT="" />
    <EXPORT ORDINAL="450" NAME="??_7CBCGPColorPickerCtrl@@6B@" PURGE="-1" COMMENT="" />
    <EXPORT ORDINAL="451" NAME="??_7CBCGPColorProp@@6B@" PURGE="-1" COMMENT="" />
    <EXPORT ORDINAL="452" NAME="??_7CBCGPComboEdit@@6B@" PURGE="-1" COMMENT="" />
    <EXPORT ORDINAL="453" NAME="??_7CBCGPCommandManager@@6B@" PURGE="-1" COMMENT="" />
    <EXPORT ORDINAL="454" NAME="??_7CBCGPContextMenuManager@@6B@" PURGE="-1" COMMENT="" />
    <EXPORT ORDINAL="455" NAME="??_7CBCGPControlBar@@6B@" PURGE="-1" COMMENT="" />
    <EXPORT ORDINAL="456" NAME="??_7CBCGPControlBarImpl@@6B@" PURGE="-1" COMMENT="" />
    <EXPORT ORDINAL="457" NAME="??_7CBCGPCustomizeMenuButton@@6B@" PURGE="-1" COMMENT="" />
    <EXPORT ORDINAL="458" NAME="??_7CBCGPDateTimeCtrl@@6B@" PURGE="-1" COMMENT="" />
    <EXPORT ORDINAL="459" NAME="??_7CBCGPDateTimeProp@@6B@" PURGE="-1" COMMENT="" />
    <EXPORT ORDINAL="460" NAME="??_7CBCGPDialog@@6B@" PURGE="-1" COMMENT="" />
    <EXPORT ORDINAL="461" NAME="??_7CBCGPDialogBar@@6B@" PURGE="-1" COMMENT="" />
    <EXPORT ORDINAL="462" NAME="??_7CBCGPDlgImpl@@6B@" PURGE="-1" COMMENT="" />
    <EXPORT ORDINAL="463" NAME="??_7CBCGPDockBar@@6B@" PURGE="-1" COMMENT="" />
    <EXPORT ORDINAL="464" NAME="??_7CBCGPDockBarRow@@6B@" PURGE="-1" COMMENT="" />
    <EXPORT ORDINAL="465" NAME="??_7CBCGPDockManager@@6B@" PURGE="-1" COMMENT="" />
    <EXPORT ORDINAL="466" NAME="??_7CBCGPDockingCBWrapper@@6B@" PURGE="-1" COMMENT="" />
    <EXPORT ORDINAL="467" NAME="??_7CBCGPDockingControlBar@@6B@" PURGE="-1" COMMENT="" />
    <EXPORT ORDINAL="468" NAME="??_7CBCGPDrawManager@@6B@" PURGE="-1" COMMENT="" />
    <EXPORT ORDINAL="469" NAME="??_7CBCGPDropDownToolBar@@6B@" PURGE="-1" COMMENT="" />
    <EXPORT ORDINAL="470" NAME="??_7CBCGPDropDownToolbarButton@@6B@" PURGE="-1" COMMENT="" />
    <EXPORT ORDINAL="471" NAME="??_7CBCGPDurationCtrl@@6B@" PURGE="-1" COMMENT="" />
    <EXPORT ORDINAL="472" NAME="??_7CBCGPEdit@@6B@" PURGE="-1" COMMENT="" />
    <EXPORT ORDINAL="473" NAME="??_7CBCGPEditCtrl@@6B@" PURGE="-1" COMMENT="" />
    <EXPORT ORDINAL="474" NAME="??_7CBCGPEditCtrlDropTarget@@6B@" PURGE="-1" COMMENT="" />
    <EXPORT ORDINAL="475" NAME="??_7CBCGPEditListBase@@6B@" PURGE="-1" COMMENT="" />
    <EXPORT ORDINAL="476" NAME="??_7CBCGPEditListBox@@6B@" PURGE="-1" COMMENT="" />
    <EXPORT ORDINAL="477" NAME="??_7CBCGPEditMarker@@6B@" PURGE="-1" COMMENT="" />
    <EXPORT ORDINAL="478" NAME="??_7CBCGPEditView@@6B@" PURGE="-1" COMMENT="" />
    <EXPORT ORDINAL="479" NAME="??_7CBCGPFileDialog@@6B@" PURGE="-1" COMMENT="" />
    <EXPORT ORDINAL="480" NAME="??_7CBCGPFileProp@@6B@" PURGE="-1" COMMENT="" />
    <EXPORT ORDINAL="481" NAME="??_7CBCGPFontComboBox@@6B@" PURGE="-1" COMMENT="" />
    <EXPORT ORDINAL="482" NAME="??_7CBCGPFontDesc@@6B@" PURGE="-1" COMMENT="" />
    <EXPORT ORDINAL="483" NAME="??_7CBCGPFontProp@@6B@" PURGE="-1" COMMENT="" />
    <EXPORT ORDINAL="484" NAME="??_7CBCGPFrameImpl@@6B@" PURGE="-1" COMMENT="" />
    <EXPORT ORDINAL="485" NAME="??_7CBCGPFrameWnd@@6B@" PURGE="-1" COMMENT="" />
    <EXPORT ORDINAL="486" NAME="??_7CBCGPFullScreenImpl@@6B@" PURGE="-1" COMMENT="" />
    <EXPORT ORDINAL="487" NAME="??_7CBCGPGlobalUtils@@6B@" PURGE="-1" COMMENT="" />
    <EXPORT ORDINAL="488" NAME="??_7CBCGPHeaderCtrl@@6B@" PURGE="-1" COMMENT="" />
    <EXPORT ORDINAL="489" NAME="??_7CBCGPHiliteMarker@@6B@" PURGE="-1" COMMENT="" />
    <EXPORT ORDINAL="490" NAME="??_7CBCGPHotSpot@@6B@" PURGE="-1" COMMENT="" />
    <EXPORT ORDINAL="491" NAME="??_7CBCGPHotSpotImageCtrl@@6B@" PURGE="-1" COMMENT="" />
    <EXPORT ORDINAL="492" NAME="??_7CBCGPImageEditDlg@@6B@" PURGE="-1" COMMENT="" />
    <EXPORT ORDINAL="493" NAME="??_7CBCGPIntelliSenseData@@6B@" PURGE="-1" COMMENT="" />
    <EXPORT ORDINAL="494" NAME="??_7CBCGPIntelliSenseLB@@6B@" PURGE="-1" COMMENT="" />
    <EXPORT ORDINAL="495" NAME="??_7CBCGPIntelliSenseWnd@@6B@" PURGE="-1" COMMENT="" />
    <EXPORT ORDINAL="496" NAME="??_7CBCGPKeyHelper@@6B@" PURGE="-1" COMMENT="" />
    <EXPORT ORDINAL="497" NAME="??_7CBCGPKeyMapDlg@@6B@" PURGE="-1" COMMENT="" />
    <EXPORT ORDINAL="498" NAME="??_7CBCGPKeyboardManager@@6B@" PURGE="-1" COMMENT="" />
    <EXPORT ORDINAL="499" NAME="??_7CBCGPLineColorMarker@@6B@" PURGE="-1" COMMENT="" />
    <EXPORT ORDINAL="500" NAME="??_7CBCGPListCtrl@@6B@" PURGE="-1" COMMENT="" />
    <EXPORT ORDINAL="501" NAME="??_7CBCGPMDIChildWnd@@6B@" PURGE="-1" COMMENT="" />
    <EXPORT ORDINAL="502" NAME="??_7CBCGPMDIFrameWnd@@6B@" PURGE="-1" COMMENT="" />
    <EXPORT ORDINAL="503" NAME="??_7CBCGPMainClientAreaWnd@@6B@" PURGE="-1" COMMENT="" />
    <EXPORT ORDINAL="504" NAME="??_7CBCGPMaskEdit@@6B@" PURGE="-1" COMMENT="" />
    <EXPORT ORDINAL="505" NAME="??_7CBCGPMemDC@@6B@" PURGE="-1" COMMENT="" />
    <EXPORT ORDINAL="506" NAME="??_7CBCGPMenuBar@@6B@" PURGE="-1" COMMENT="" />
    <EXPORT ORDINAL="507" NAME="??_7CBCGPMenuButton@@6B@" PURGE="-1" COMMENT="" />
    <EXPORT ORDINAL="508" NAME="??_7CBCGPMiniFrameWnd@@6B@" PURGE="-1" COMMENT="" />
    <EXPORT ORDINAL="509" NAME="??_7CBCGPMouseManager@@6B@" PURGE="-1" COMMENT="" />
    <EXPORT ORDINAL="510" NAME="??_7CBCGPMultiMiniFrameWnd@@6B@" PURGE="-1" COMMENT="" />
    <EXPORT ORDINAL="511" NAME="??_7CBCGPOleCntrFrameWnd@@6B@" PURGE="-1" COMMENT="" />
    <EXPORT ORDINAL="512" NAME="??_7CBCGPOleDocIPFrameWnd@@6B@" PURGE="-1" COMMENT="" />
    <EXPORT ORDINAL="513" NAME="??_7CBCGPOleIPFrameWnd@@6B@" PURGE="-1" COMMENT="" />
    <EXPORT ORDINAL="514" NAME="??_7CBCGPOleServerDoc@@6B@" PURGE="-1" COMMENT="" />
    <EXPORT ORDINAL="515" NAME="??_7CBCGPOutlineBaseNode@@6B@" PURGE="-1" COMMENT="" />
    <EXPORT ORDINAL="516" NAME="??_7CBCGPOutlineNode@@6B@" PURGE="-1" COMMENT="" />
    <EXPORT ORDINAL="517" NAME="??_7CBCGPOutlineParser@@6B@" PURGE="-1" COMMENT="" />
    <EXPORT ORDINAL="518" NAME="??_7CBCGPOutlookBar@@6B@" PURGE="-1" COMMENT="" />
    <EXPORT ORDINAL="519" NAME="??_7CBCGPOutlookBarDockingPane@@6B@" PURGE="-1" COMMENT="" />
    <EXPORT ORDINAL="520" NAME="??_7CBCGPOutlookBarPane@@6B@" PURGE="-1" COMMENT="" />
    <EXPORT ORDINAL="521" NAME="??_7CBCGPOutlookButton@@6B@" PURGE="-1" COMMENT="" />
    <EXPORT ORDINAL="522" NAME="??_7CBCGPOutlookControlBar@@6B@" PURGE="-1" COMMENT="" />
    <EXPORT ORDINAL="523" NAME="??_7CBCGPOutlookWnd@@6B@" PURGE="-1" COMMENT="" />
    <EXPORT ORDINAL="524" NAME="??_7CBCGPPopupMenu@@6B@" PURGE="-1" COMMENT="" />
    <EXPORT ORDINAL="525" NAME="??_7CBCGPPopupMenuBar@@6B@" PURGE="-1" COMMENT="" />
    <EXPORT ORDINAL="526" NAME="??_7CBCGPPrintPreviewToolBar@@6B@" PURGE="-1" COMMENT="" />
    <EXPORT ORDINAL="527" NAME="??_7CBCGPPrintPreviewView@@6B@" PURGE="-1" COMMENT="" />
    <EXPORT ORDINAL="528" NAME="??_7CBCGPProp@@6B@" PURGE="-1" COMMENT="" />
    <EXPORT ORDINAL="529" NAME="??_7CBCGPPropList@@6B@" PURGE="-1" COMMENT="" />
    <EXPORT ORDINAL="530" NAME="??_7CBCGPPropSheetCategory@@6B@" PURGE="-1" COMMENT="" />
    <EXPORT ORDINAL="531" NAME="??_7CBCGPPropertyPage@@6B@" PURGE="-1" COMMENT="" />
    <EXPORT ORDINAL="532" NAME="??_7CBCGPPropertySheet@@6B@" PURGE="-1" COMMENT="" />
    <EXPORT ORDINAL="533" NAME="??_7CBCGPReBar@@6B@" PURGE="-1" COMMENT="" />
    <EXPORT ORDINAL="534" NAME="??_7CBCGPRegistry@@6B@" PURGE="-1" COMMENT="" />
    <EXPORT ORDINAL="535" NAME="??_7CBCGPShellList@@6B@" PURGE="-1" COMMENT="" />
    <EXPORT ORDINAL="536" NAME="??_7CBCGPShellManager@@6B@" PURGE="-1" COMMENT="" />
    <EXPORT ORDINAL="537" NAME="??_7CBCGPShellTree@@6B@" PURGE="-1" COMMENT="" />
    <EXPORT ORDINAL="538" NAME="??_7CBCGPSkinManager@@6B@" PURGE="-1" COMMENT="" />
    <EXPORT ORDINAL="539" NAME="??_7CBCGPSlider@@6B@" PURGE="-1" COMMENT="" />
    <EXPORT ORDINAL="540" NAME="??_7CBCGPSmartDockingParams@@6B@" PURGE="-1" COMMENT="" />
    <EXPORT ORDINAL="541" NAME="??_7CBCGPSpinButtonCtrl@@6B@" PURGE="-1" COMMENT="" />
    <EXPORT ORDINAL="542" NAME="??_7CBCGPSplitterWnd@@6B@" PURGE="-1" COMMENT="" />
    <EXPORT ORDINAL="543" NAME="??_7CBCGPStatusBar@@6B@" PURGE="-1" COMMENT="" />
    <EXPORT ORDINAL="544" NAME="??_7CBCGPSymImagesLB@@6B@" PURGE="-1" COMMENT="" />
    <EXPORT ORDINAL="545" NAME="??_7CBCGPTabDropTarget@@6B@" PURGE="-1" COMMENT="" />
    <EXPORT ORDINAL="546" NAME="??_7CBCGPTabView@@6B@" PURGE="-1" COMMENT="" />
    <EXPORT ORDINAL="547" NAME="??_7CBCGPTabWnd@@6B@" PURGE="-1" COMMENT="" />
    <EXPORT ORDINAL="548" NAME="??_7CBCGPTabbedControlBar@@6B@" PURGE="-1" COMMENT="" />
    <EXPORT ORDINAL="549" NAME="??_7CBCGPTabbedToolbar@@6B@" PURGE="-1" COMMENT="" />
    <EXPORT ORDINAL="550" NAME="??_7CBCGPTask@@6B@" PURGE="-1" COMMENT="" />
    <EXPORT ORDINAL="551" NAME="??_7CBCGPTaskPaneMiniFrameWnd@@6B@" PURGE="-1" COMMENT="" />
    <EXPORT ORDINAL="552" NAME="??_7CBCGPTasksGroup@@6B@" PURGE="-1" COMMENT="" />
    <EXPORT ORDINAL="553" NAME="??_7CBCGPTasksPane@@6B@" PURGE="-1" COMMENT="" />
    <EXPORT ORDINAL="554" NAME="??_7CBCGPTasksPanePage@@6B@" PURGE="-1" COMMENT="" />
    <EXPORT ORDINAL="555" NAME="??_7CBCGPTearOffManager@@6B@" PURGE="-1" COMMENT="" />
    <EXPORT ORDINAL="556" NAME="??_7CBCGPToolBar@@6B@" PURGE="-1" COMMENT="" />
    <EXPORT ORDINAL="557" NAME="??_7CBCGPToolBarImages@@6B@" PURGE="-1" COMMENT="" />
    <EXPORT ORDINAL="558" NAME="??_7CBCGPToolBox@@6B@" PURGE="-1" COMMENT="" />
    <EXPORT ORDINAL="559" NAME="??_7CBCGPToolBoxButton@@6B@" PURGE="-1" COMMENT="" />
    <EXPORT ORDINAL="560" NAME="??_7CBCGPToolBoxEx@@6B@" PURGE="-1" COMMENT="" />
    <EXPORT ORDINAL="561" NAME="??_7CBCGPToolBoxPage@@6B@" PURGE="-1" COMMENT="" />
    <EXPORT ORDINAL="562" NAME="??_7CBCGPToolbarButton@@6B@" PURGE="-1" COMMENT="" />
    <EXPORT ORDINAL="563" NAME="??_7CBCGPToolbarComboBoxButton@@6B@" PURGE="-1" COMMENT="" />
    <EXPORT ORDINAL="564" NAME="??_7CBCGPToolbarCustomize@@6B@" PURGE="-1" COMMENT="" />
    <EXPORT ORDINAL="565" NAME="??_7CBCGPToolbarDateTimeCtrl@@6B@" PURGE="-1" COMMENT="" />
    <EXPORT ORDINAL="566" NAME="??_7CBCGPToolbarDropSource@@6B@" PURGE="-1" COMMENT="" />
    <EXPORT ORDINAL="567" NAME="??_7CBCGPToolbarDropTarget@@6B@" PURGE="-1" COMMENT="" />
    <EXPORT ORDINAL="568" NAME="??_7CBCGPToolbarEditBoxButton@@6B@" PURGE="-1" COMMENT="" />
    <EXPORT ORDINAL="569" NAME="??_7CBCGPToolbarFontCombo@@6B@" PURGE="-1" COMMENT="" />
    <EXPORT ORDINAL="570" NAME="??_7CBCGPToolbarFontSizeCombo@@6B@" PURGE="-1" COMMENT="" />
    <EXPORT ORDINAL="571" NAME="??_7CBCGPToolbarMenuButton@@6B@" PURGE="-1" COMMENT="" />
    <EXPORT ORDINAL="572" NAME="??_7CBCGPToolbarSpinEditBoxButton@@6B@" PURGE="-1" COMMENT="" />
    <EXPORT ORDINAL="573" NAME="??_7CBCGPURLLinkButton@@6B@" PURGE="-1" COMMENT="" />
    <EXPORT ORDINAL="574" NAME="??_7CBCGPUserTool@@6B@" PURGE="-1" COMMENT="" />
    <EXPORT ORDINAL="575" NAME="??_7CBCGPUserToolsManager@@6B@" PURGE="-1" COMMENT="" />
    <EXPORT ORDINAL="576" NAME="??_7CBCGPVisualManager2003@@6BCBCGPVisualManagerXP@@@" PURGE="-1" COMMENT="" />
    <EXPORT ORDINAL="577" NAME="??_7CBCGPVisualManager2003@@6BCBCGPWinXPThemeManager@@@" PURGE="-1" COMMENT="" />
    <EXPORT ORDINAL="578" NAME="??_7CBCGPVisualManager@@6B@" PURGE="-1" COMMENT="" />
    <EXPORT ORDINAL="579" NAME="??_7CBCGPVisualManagerVS2005@@6BCBCGPVisualManagerXP@@@" PURGE="-1" COMMENT="" />
    <EXPORT ORDINAL="580" NAME="??_7CBCGPVisualManagerVS2005@@6BCBCGPWinXPThemeManager@@@" PURGE="-1" COMMENT="" />
    <EXPORT ORDINAL="581" NAME="??_7CBCGPVisualManagerXP@@6B@" PURGE="-1" COMMENT="" />
    <EXPORT ORDINAL="582" NAME="??_7CBCGPWinXPThemeManager@@6B@" PURGE="-1" COMMENT="" />
    <EXPORT ORDINAL="583" NAME="??_7CBCGPWinXPVisualManager@@6BCBCGPVisualManagerXP@@@" PURGE="-1" COMMENT="" />
    <EXPORT ORDINAL="584" NAME="??_7CBCGPWinXPVisualManager@@6BCBCGPWinXPThemeManager@@@" PURGE="-1" COMMENT="" />
    <EXPORT ORDINAL="585" NAME="??_7CBCGPWindowsManagerDlg@@6B@" PURGE="-1" COMMENT="" />
    <EXPORT ORDINAL="586" NAME="??_7CBCGPWorkspace@@6B@" PURGE="-1" COMMENT="" />
    <EXPORT ORDINAL="587" NAME="??_7CCmdUsageCount@@6B@" PURGE="-1" COMMENT="" />
    <EXPORT ORDINAL="588" NAME="??_7CColorPopup@@6B@" PURGE="-1" COMMENT="" />
    <EXPORT ORDINAL="589" NAME="??_7CImagePaintArea@@6B@" PURGE="-1" COMMENT="" />
    <EXPORT ORDINAL="590" NAME="??_7CKeyAssign@@6B@" PURGE="-1" COMMENT="" />
    <EXPORT ORDINAL="591" NAME="??_FCBCGPBarContainer@@QAEXXZ" PURGE="0" COMMENT="" />
    <EXPORT ORDINAL="592" NAME="??_FCBCGPBaseTabbedBar@@QAEXXZ" PURGE="0" COMMENT="" />
    <EXPORT ORDINAL="593" NAME="??_FCBCGPColorDialog@@QAEXXZ" PURGE="0" COMMENT="" />
    <EXPORT ORDINAL="594" NAME="??_FCBCGPHotSpot@@QAEXXZ" PURGE="0" COMMENT="" />
    <EXPORT ORDINAL="595" NAME="??_FCBCGPOutlookControlBar@@QAEXXZ" PURGE="0" COMMENT="" />
    <EXPORT ORDINAL="596" NAME="??_FCBCGPRegistrySP@@QAEXXZ" PURGE="0" COMMENT="" />
    <EXPORT ORDINAL="597" NAME="??_FCBCGPSkinManager@@QAEXXZ" PURGE="0" COMMENT="" />
    <EXPORT ORDINAL="598" NAME="??_FCBCGPSlider@@QAEXXZ" PURGE="0" COMMENT="" />
    <EXPORT ORDINAL="599" NAME="??_FCBCGPTabbedControlBar@@QAEXXZ" PURGE="0" COMMENT="" />
    <EXPORT ORDINAL="600" NAME="??_FCBCGPVisualManager@@QAEXXZ" PURGE="0" COMMENT="" />
    <EXPORT ORDINAL="601" NAME="??_FCBCGPVisualManagerXP@@QAEXXZ" PURGE="0" COMMENT="" />
    <EXPORT ORDINAL="602" NAME="??_FCBCGPWinXPVisualManager@@QAEXXZ" PURGE="0" COMMENT="" />
    <EXPORT ORDINAL="603" NAME="??_FCBCGPWorkspace@@QAEXXZ" PURGE="0" COMMENT="" />
    <EXPORT ORDINAL="604" NAME="?ActivateFrame@CBCGPMDIChildWnd@@UAEXH@Z" PURGE="4" COMMENT="" />
    <EXPORT ORDINAL="605" NAME="?ActivateMDITab@CBCGPTabWnd@@QAEXH@Z" PURGE="4" COMMENT="" />
    <EXPORT ORDINAL="606" NAME="?ActivateOnBtnUp@CBCGPBaseTabWnd@@MBEHXZ" PURGE="0" COMMENT="" />
    <EXPORT ORDINAL="607" NAME="?ActivatePopupMenu@CBCGPPopupMenu@@SAHPAVCFrameWnd@@PAV1@@Z" PURGE="0" COMMENT="" />
    <EXPORT ORDINAL="608" NAME="?AddAutoHideWindow@CBCGPAutoHideToolBar@@QAEPAVCBCGPAutoHideButton@@PAVCBCGPDockingControlBar@@K@Z" PURGE="8" COMMENT="" />
    <EXPORT ORDINAL="609" NAME="?AddBar@CBCGPReBar@@QAEHPAVCWnd@@KKPBDK@Z" PURGE="20" COMMENT="" />
    <EXPORT ORDINAL="610" NAME="?AddBar@CBCGPReBar@@QAEHPAVCWnd@@PBDPAVCBitmap@@K@Z" PURGE="16" COMMENT="" />
    <EXPORT ORDINAL="611" NAME="?AddBasicCommand@CBCGPToolBar@@SAXI@Z" PURGE="0" COMMENT="" />
    <EXPORT ORDINAL="612" NAME="?AddBitmapImage@CBCGPOutlookBarPane@@IAEHPAUHBITMAP__@@@Z" PURGE="4" COMMENT="" />
    <EXPORT ORDINAL="613" NAME="?AddBlock@CBCGPOutlineNode@@UAEPAV1@ABVCBCGPOutlineBaseNode@@AAUBCGP_EDIT_OUTLINE_CHANGES@@@Z" PURGE="8" COMMENT="" />
    <EXPORT ORDINAL="614" NAME="?AddBlockType@CBCGPOutlineParser@@UAEXPBD00HHPAVCStringList@@@Z" PURGE="24" COMMENT="" />
    <EXPORT ORDINAL="615" NAME="?AddButton@CBCGPEditListBase@@QAEHIPBDGEI@Z" PURGE="20" COMMENT="" />
    <EXPORT ORDINAL="616" NAME="?AddButton@CBCGPMiniFrameWnd@@MAEXI@Z" PURGE="4" COMMENT="" />
    <EXPORT ORDINAL="617" NAME="?AddButton@CBCGPOutlookBarPane@@QAEHIIIH@Z" PURGE="16" COMMENT="" />
    <EXPORT ORDINAL="618" NAME="?AddButton@CBCGPOutlookBarPane@@QAEHIPBDIH@Z" PURGE="16" COMMENT="" />
    <EXPORT ORDINAL="619" NAME="?AddButton@CBCGPOutlookBarPane@@QAEHPAUHBITMAP__@@PBDIH@Z" PURGE="16" COMMENT="" />
    <EXPORT ORDINAL="620" NAME="?AddButton@CBCGPOutlookBarPane@@QAEHPAUHICON__@@PBDIHH@Z" PURGE="20" COMMENT="" />
    <EXPORT ORDINAL="621" NAME="?AddButton@CBCGPOutlookBarPane@@QAEHPBD0IH@Z" PURGE="16" COMMENT="" />
    <EXPORT ORDINAL="622" NAME="?AddButton@CBCGPTaskPaneMiniFrameWnd@@MAEXI@Z" PURGE="4" COMMENT="" />
    <EXPORT ORDINAL="623" NAME="?AddButton@CBCGPToolbarCustomize@@QAEXIABVCBCGPToolbarButton@@H@Z" PURGE="12" COMMENT="" />
    <EXPORT ORDINAL="624" NAME="?AddButton@CBCGPToolbarCustomize@@QAEXPBDABVCBCGPToolbarButton@@H@Z" PURGE="12" COMMENT="" />
    <EXPORT ORDINAL="625" NAME="?AddCategoryToTree@CBCGPPropertySheet@@IAEXPAVCBCGPPropSheetCategory@@@Z" PURGE="4" COMMENT="" />
    <EXPORT ORDINAL="626" NAME="?AddCmd@CCmdUsageCount@@QAEXI@Z" PURGE="4" COMMENT="" />
    <EXPORT ORDINAL="627" NAME="?AddColor@CBCGPEditCtrl@@IBEHKAAV?$CArray@KAAK@@@Z" PURGE="8" COMMENT="" />
    <EXPORT ORDINAL="628" NAME="?AddCommandUsage@CBCGPToolBar@@SAXI@Z" PURGE="0" COMMENT="" />
    <EXPORT ORDINAL="629" NAME="?AddContainer@CBCGPSlider@@UAEHAAVCBCGPBarContainerManager@@H@Z" PURGE="8" COMMENT="" />
    <EXPORT ORDINAL="630" NAME="?AddContainer@CBCGPSlider@@UAEHPAVCBCGPDockingControlBar@@AAVCBCGPBarContainerManager@@K@Z" PURGE="12" COMMENT="" />
    <EXPORT ORDINAL="631" NAME="?AddContainerManager@CBCGPBarContainerManager@@UAEHAAV1@H@Z" PURGE="8" COMMENT="" />
    <EXPORT ORDINAL="632" NAME="?AddContainerManager@CBCGPBarContainerManager@@UAEHPAVCBCGPDockingControlBar@@KAAV1@H@Z" PURGE="16" COMMENT="" />
    <EXPORT ORDINAL="633" NAME="?AddContainerManagerToTabWnd@CBCGPBarContainerManager@@UAEHPAVCBCGPDockingControlBar@@AAV1@@Z" PURGE="8" COMMENT="" />
    <EXPORT ORDINAL="634" NAME="?AddControl@CBCGPOutlookWnd@@QAEXPAVCWnd@@PBDHH@Z" PURGE="16" COMMENT="" />
    <EXPORT ORDINAL="635" NAME="?AddControlBar@CBCGPBarContainer@@QAEPAVCBCGPDockingControlBar@@PAV2@@Z" PURGE="4" COMMENT="" />
    <EXPORT ORDINAL="636" NAME="?AddControlBar@CBCGPBarContainerManager@@UAEXPAVCBCGPDockingControlBar@@@Z" PURGE="4" COMMENT="" />
    <EXPORT ORDINAL="637" NAME="?AddControlBar@CBCGPBaseControlBar@@QAEXPAV1@@Z" PURGE="4" COMMENT="" />
    <EXPORT ORDINAL="638" NAME="?AddControlBar@CBCGPDockBarRow@@UAEXPAVCBCGPControlBar@@W4BCGP_DOCK_METHOD@@PBUtagRECT@@H@Z" PURGE="16" COMMENT="" />
    <EXPORT ORDINAL="639" NAME="?AddControlBar@CBCGPDockManager@@QAEHPAVCBCGPBaseControlBar@@HHH@Z" PURGE="16" COMMENT="" />
    <EXPORT ORDINAL="640" NAME="?AddControlBar@CBCGPFrameWnd@@QAEHPAVCBCGPBaseControlBar@@H@Z" PURGE="8" COMMENT="" />
    <EXPORT ORDINAL="641" NAME="?AddControlBar@CBCGPMDIChildWnd@@QAEHPAVCBCGPBaseControlBar@@H@Z" PURGE="8" COMMENT="" />
    <EXPORT ORDINAL="642" NAME="?AddControlBar@CBCGPMDIFrameWnd@@QAEHPAVCBCGPBaseControlBar@@H@Z" PURGE="8" COMMENT="" />
    <EXPORT ORDINAL="643" NAME="?AddControlBar@CBCGPMiniFrameWnd@@UAEXPAVCBCGPBaseControlBar@@@Z" PURGE="4" COMMENT="" />
    <EXPORT ORDINAL="644" NAME="?AddControlBar@CBCGPMultiMiniFrameWnd@@UAEXPAVCBCGPBaseControlBar@@@Z" PURGE="4" COMMENT="" />
    <EXPORT ORDINAL="645" NAME="?AddControlBar@CBCGPOleCntrFrameWnd@@QAEHPAVCBCGPBaseControlBar@@H@Z" PURGE="8" COMMENT="" />
    <EXPORT ORDINAL="646" NAME="?AddControlBar@CBCGPOleDocIPFrameWnd@@QAEHPAVCBCGPBaseControlBar@@H@Z" PURGE="8" COMMENT="" />
    <EXPORT ORDINAL="647" NAME="?AddControlBar@CBCGPOleIPFrameWnd@@QAEHPAVCBCGPBaseControlBar@@H@Z" PURGE="8" COMMENT="" />
    <EXPORT ORDINAL="648" NAME="?AddControlBar@CBCGPSlider@@UAEXPAVCBCGPDockingControlBar@@@Z" PURGE="4" COMMENT="" />
    <EXPORT ORDINAL="649" NAME="?AddControlBarAndContainer@CBCGPBarContainerManager@@IAEHPAVCBCGPDockingControlBar@@PAVCBCGPBarContainer@@K@Z" PURGE="12" COMMENT="" />
    <EXPORT ORDINAL="650" NAME="?AddControlBarAndSlider@CBCGPBarContainerManager@@IAEHPAVCBCGPDockingControlBar@@0PAU__POSITION@@K@Z" PURGE="16" COMMENT="" />
    <EXPORT ORDINAL="651" NAME="?AddControlBarFromRow@CBCGPDockBarRow@@UAEXPAVCBCGPControlBar@@W4BCGP_DOCK_METHOD@@@Z" PURGE="8" COMMENT="" />
    <EXPORT ORDINAL="652" NAME="?AddControlBarToList@CBCGPBarContainerManager@@QAEXPAVCBCGPDockingControlBar@@@Z" PURGE="-1" COMMENT="" />
    <EXPORT ORDINAL="653" NAME="?AddControlBarToRecentContainer@CBCGPBarContainerManager@@UAEPAVCBCGPDockingControlBar@@PAV2@PAVCBCGPBarContainer@@@Z" PURGE="8" COMMENT="" />
    <EXPORT ORDINAL="654" NAME="?AddControlBarsToList@CBCGPBarContainerManager@@QAEXPAVCObList@@0@Z" PURGE="8" COMMENT="" />
    <EXPORT ORDINAL="655" NAME="?AddDefaultButtonsToCustomizePane@CBCGPFrameImpl@@IAEXPAVCBCGPPopupMenu@@I@Z" PURGE="8" COMMENT="" />
    <EXPORT ORDINAL="656" NAME="?AddDockBar@CBCGPDockManager@@QAEHABUBCGP_DOCKBAR_INFO@@PAPAVCBCGPDockBar@@@Z" PURGE="8" COMMENT="" />
    <EXPORT ORDINAL="657" NAME="?AddDockBar@CBCGPFrameWnd@@QAEXXZ" PURGE="0" COMMENT="" />
    <EXPORT ORDINAL="658" NAME="?AddDockBar@CBCGPMDIChildWnd@@QAEXXZ" PURGE="0" COMMENT="" />
    <EXPORT ORDINAL="659" NAME="?AddDockBar@CBCGPMDIFrameWnd@@QAEXXZ" PURGE="0" COMMENT="" />
    <EXPORT ORDINAL="660" NAME="?AddDockBar@CBCGPOleCntrFrameWnd@@QAEXXZ" PURGE="0" COMMENT="" />
    <EXPORT ORDINAL="661" NAME="?AddDockBar@CBCGPOleDocIPFrameWnd@@QAEXXZ" PURGE="0" COMMENT="" />
    <EXPORT ORDINAL="662" NAME="?AddDockBar@CBCGPOleIPFrameWnd@@QAEXXZ" PURGE="0" COMMENT="" />
    <EXPORT ORDINAL="663" NAME="?AddEscapeSequence@CBCGPOutlineParser@@UAEXPBD@Z" PURGE="-1" COMMENT="" />
    <EXPORT ORDINAL="664" NAME="?AddFont@CBCGPToolbarFontCombo@@MAEHPAUtagENUMLOGFONTA@@HPBD@Z" PURGE="12" COMMENT="" />
    <EXPORT ORDINAL="665" NAME="?AddGroup@CBCGPTasksPane@@QAEHHPBDHHPAUHICON__@@@Z" PURGE="20" COMMENT="" />
    <EXPORT ORDINAL="666" NAME="?AddGroup@CBCGPTasksPane@@QAEHPBDHHPAUHICON__@@@Z" PURGE="16" COMMENT="" />
    <EXPORT ORDINAL="667" NAME="?AddHotSpot@CBCGPHotSpotImageCtrl@@QAEHIVCRect@@@Z" PURGE="20" COMMENT="" />
    <EXPORT ORDINAL="668" NAME="?AddHyperlink@CBCGPEditCtrl@@IAEXAAV?$CStringT@DV?$StrTraitMFC_DLL@DV?$ChTraitsCRT@D@ATL@@@@@ATL@@H@Z" PURGE="8" COMMENT="" />
    <EXPORT ORDINAL="669" NAME="?AddIcon@CBCGPToolBarImages@@QAEHPAUHICON__@@H@Z" PURGE="8" COMMENT="" />
    <EXPORT ORDINAL="670" NAME="?AddImage@CBCGPToolBarImages@@QAEHPAUHBITMAP__@@H@Z" PURGE="8" COMMENT="" />
    <EXPORT ORDINAL="671" NAME="?AddItem@CBCGPEditListBox@@UAEHABV?$CStringT@DV?$StrTraitMFC_DLL@DV?$ChTraitsCRT@D@ATL@@@@@ATL@@KH@Z" PURGE="12" COMMENT="" />
    <EXPORT ORDINAL="672" NAME="?AddItem@CBCGPToolbarComboBoxButton@@UAEHPBDK@Z" PURGE="8" COMMENT="" />
    <EXPORT ORDINAL="673" NAME="?AddLabel@CBCGPTasksPane@@QAEHHPBDH@Z" PURGE="12" COMMENT="" />
    <EXPORT ORDINAL="674" NAME="?AddMRUFilesList@CBCGPTasksPane@@QAEHHH@Z" PURGE="8" COMMENT="" />
    <EXPORT ORDINAL="675" NAME="?AddMarker@CBCGPOutlineParser@@MBEHPAVCBCGPOutlineNode@@0AAUBCGP_EDIT_OUTLINE_CHANGES@@@Z" PURGE="12" COMMENT="" />
    <EXPORT ORDINAL="676" NAME="?AddMenu@CBCGPContextMenuManager@@QAEHII@Z" PURGE="8" COMMENT="" />
    <EXPORT ORDINAL="677" NAME="?AddMenu@CBCGPContextMenuManager@@QAEHPBDI@Z" PURGE="8" COMMENT="" />
    <EXPORT ORDINAL="678" NAME="?AddMenu@CBCGPToolbarCustomize@@QAEHI@Z" PURGE="4" COMMENT="" />
    <EXPORT ORDINAL="679" NAME="?AddMenuCommands@CBCGPToolbarCustomize@@QAEXPBVCMenu@@HPBD1@Z" PURGE="16" COMMENT="" />
    <EXPORT ORDINAL="680" NAME="?AddMiniFrame@CBCGPDockManager@@UAEHPAVCBCGPMiniFrameWnd@@@Z" PURGE="4" COMMENT="" />
    <EXPORT ORDINAL="681" NAME="?AddNewItem@CBCGPFileDialog@@QAEXPBDH@Z" PURGE="8" COMMENT="" />
    <EXPORT ORDINAL="682" NAME="?AddNode@CBCGPBarContainer@@IAEXPAV1@@Z" PURGE="4" COMMENT="" />
    <EXPORT ORDINAL="683" NAME="?AddNode@CBCGPOutlineNode@@MAEPAV1@PAV1@AAUBCGP_EDIT_OUTLINE_CHANGES@@@Z" PURGE="8" COMMENT="" />
    <EXPORT ORDINAL="684" NAME="?AddNode@CBCGPOutlineParser@@IBEPAVCBCGPOutlineNode@@PAV2@0AAUBCGP_EDIT_OUTLINE_CHANGES@@@Z" PURGE="12" COMMENT="" />
    <EXPORT ORDINAL="685" NAME="?AddOption@CBCGPProp@@QAEHPBDH@Z" PURGE="8" COMMENT="" />
    <EXPORT ORDINAL="686" NAME="?AddOutlining@CBCGPEditCtrl@@QAEPAVCBCGPOutlineBaseNode@@HHHHPBD@Z" PURGE="20" COMMENT="" />
    <EXPORT ORDINAL="687" NAME="?AddPage@CBCGPPropertySheet@@QAEXPAVCPropertyPage@@@Z" PURGE="4" COMMENT="" />
    <EXPORT ORDINAL="688" NAME="?AddPage@CBCGPTasksPane@@QAEHPBD@Z" PURGE="4" COMMENT="" />
    <EXPORT ORDINAL="689" NAME="?AddPageToTree@CBCGPPropertySheet@@QAEXPAVCBCGPPropSheetCategory@@PAVCBCGPPropertyPage@@HH@Z" PURGE="16" COMMENT="" />
    <EXPORT ORDINAL="690" NAME="?AddProperty@CBCGPPropList@@QAEHPAVCBCGPProp@@HH@Z" PURGE="12" COMMENT="" />
    <EXPORT ORDINAL="691" NAME="?AddRecentControlBar@CBCGPMultiMiniFrameWnd@@UAEHPAVCBCGPDockingControlBar@@@Z" PURGE="4" COMMENT="" />
    <EXPORT ORDINAL="692" NAME="?AddRecentControlBar@CBCGPSlider@@UAEPAVCBCGPDockingControlBar@@PAV2@@Z" PURGE="4" COMMENT="" />
    <EXPORT ORDINAL="693" NAME="?AddRef@CBCGPBarContainer@@QAEXXZ" PURGE="0" COMMENT="" />
    <EXPORT ORDINAL="694" NAME="?AddRemoveBarFromGlobalList@CBCGPMiniFrameWnd@@SAHPAVCBCGPBaseControlBar@@H@Z" PURGE="0" COMMENT="" />
    <EXPORT ORDINAL="695" NAME="?AddRemoveSeparator@CBCGPOutlookBarPane@@MAEXPBVCBCGPToolbarButton@@ABVCPoint@@1@Z" PURGE="12" COMMENT="" />
    <EXPORT ORDINAL="696" NAME="?AddRemoveSeparator@CBCGPToolBar@@MAEXPBVCBCGPToolbarButton@@ABVCPoint@@1@Z" PURGE="12" COMMENT="" />
    <EXPORT ORDINAL="697" NAME="?AddRow@CBCGPDockBar@@QAEPAVCBCGPDockBarRow@@PAU__POSITION@@H@Z" PURGE="8" COMMENT="" />
    <EXPORT ORDINAL="698" NAME="?AddSelectedDay@CBCGPCalendarBar@@IAEXH@Z" PURGE="4" COMMENT="" />
    <EXPORT ORDINAL="699" NAME="?AddSeparator@CBCGPTasksPane@@QAEHH@Z" PURGE="4" COMMENT="" />
    <EXPORT ORDINAL="700" NAME="?AddSkinLibrary@CBCGPSkinManager@@QAEHABV?$CStringT@DV?$StrTraitMFC_DLL@DV?$ChTraitsCRT@D@ATL@@@@@ATL@@H@Z" PURGE="8" COMMENT="" />
    <EXPORT ORDINAL="701" NAME="?AddSortedItem@CBCGPToolbarComboBoxButton@@UAEHPBDK@Z" PURGE="8" COMMENT="" />
    <EXPORT ORDINAL="702" NAME="?AddSubContainer@CBCGPBarContainer@@QAEHPAV1@H@Z" PURGE="8" COMMENT="" />
    <EXPORT ORDINAL="703" NAME="?AddSubItem@CBCGPProp@@QAEHPAV1@@Z" PURGE="4" COMMENT="" />
    <EXPORT ORDINAL="704" NAME="?AddTab@CBCGPBaseTabWnd@@UAEXPAVCWnd@@IIH@Z" PURGE="16" COMMENT="" />
    <EXPORT ORDINAL="705" NAME="?AddTab@CBCGPBaseTabWnd@@UAEXPAVCWnd@@PBDIH@Z" PURGE="16" COMMENT="" />
    <EXPORT ORDINAL="706" NAME="?AddTab@CBCGPBaseTabbedBar@@UAEHPAVCWnd@@HHH@Z" PURGE="16" COMMENT="" />
    <EXPORT ORDINAL="707" NAME="?AddTab@CBCGPTabbedToolbar@@UAEHPAVCBCGPControlBar@@HHH@Z" PURGE="16" COMMENT="" />
    <EXPORT ORDINAL="708" NAME="?AddTask@CBCGPTasksPane@@QAEHHPBDHIK@Z" PURGE="20" COMMENT="" />
    <EXPORT ORDINAL="709" NAME="?AddTearOffToolbar@CBCGPFrameImpl@@IAEXPAVCBCGPBaseControlBar@@@Z" PURGE="-1" COMMENT="" />
    <EXPORT ORDINAL="710" NAME="?AddTerminalProp@CBCGPProp@@IAEXAAV?$CList@PAVCBCGPProp@@PAV1@@@@Z" PURGE="4" COMMENT="" />
    <EXPORT ORDINAL="711" NAME="?AddToolBar@CBCGPToolbarCustomize@@QAEHII@Z" PURGE="8" COMMENT="" />
    <EXPORT ORDINAL="712" NAME="?AddToolBar@CBCGPToolbarCustomize@@QAEHPBDI@Z" PURGE="8" COMMENT="" />
    <EXPORT ORDINAL="713" NAME="?AddToolBarForImageCollection@CBCGPToolBar@@SAHIIIIII@Z" PURGE="0" COMMENT="" />
    <EXPORT ORDINAL="714" NAME="?AddToolsPage@CBCGPToolBox@@QAEHPBDIH0PAUCRuntimeClass@@1@Z" PURGE="24" COMMENT="" />
    <EXPORT ORDINAL="715" NAME="?AddToolsPage@CBCGPToolBox@@QAEHPBDIHABVCStringList@@PAUCRuntimeClass@@2@Z" PURGE="24" COMMENT="" />
    <EXPORT ORDINAL="716" NAME="?AddToolsPage@CBCGPToolBoxEx@@QAEHPBDIH0PAUCRuntimeClass@@1@Z" PURGE="24" COMMENT="" />
    <EXPORT ORDINAL="717" NAME="?AddToolsPage@CBCGPToolBoxEx@@QAEHPBDIHABVCStringList@@PAUCRuntimeClass@@2@Z" PURGE="24" COMMENT="" />
    <EXPORT ORDINAL="718" NAME="?AddTreeCategory@CBCGPPropertySheet@@QAEPAVCBCGPPropSheetCategory@@PBDHHPBV2@@Z" PURGE="16" COMMENT="" />
    <EXPORT ORDINAL="719" NAME="?AddUndoAction@CBCGPEditCtrl@@UAEXAAV?$CStringT@DV?$StrTraitMFC_DLL@DV?$ChTraitsCRT@D@ATL@@@@@ATL@@KHHH@Z" PURGE="20" COMMENT="" />
    <EXPORT ORDINAL="720" NAME="?AddUndoAction@CBCGPEditCtrl@@UAEXDKHH@Z" PURGE="16" COMMENT="" />
    <EXPORT ORDINAL="721" NAME="?AddUndoAction@CBCGPEditCtrl@@UAEXPAUBCGP_BASE_UNDO_DATA@@KH@Z" PURGE="12" COMMENT="" />
    <EXPORT ORDINAL="722" NAME="?AddUndoAction@CBCGPEditCtrl@@UAEXPAUBCGP_EDIT_UNDO_ACTION@@@Z" PURGE="4" COMMENT="" />
    <EXPORT ORDINAL="723" NAME="?AddUserTools@CBCGPToolbarCustomize@@IAEXPBD@Z" PURGE="4" COMMENT="" />
    <EXPORT ORDINAL="724" NAME="?AddView@CBCGPMouseManager@@QAEHHII@Z" PURGE="12" COMMENT="" />
    <EXPORT ORDINAL="725" NAME="?AddView@CBCGPMouseManager@@QAEHHPBDI@Z" PURGE="12" COMMENT="" />
    <EXPORT ORDINAL="726" NAME="?AddView@CBCGPTabView@@QAEHPAUCRuntimeClass@@ABV?$CStringT@DV?$StrTraitMFC_DLL@DV?$ChTraitsCRT@D@ATL@@@@@ATL@@HPAUCCreateContext@@@Z" PURGE="16" COMMENT="" />
    <EXPORT ORDINAL="727" NAME="?AddVirtKeyStr@CBCGPKeyHelper@@IBEXAAV?$CStringT@DV?$StrTraitMFC_DLL@DV?$ChTraitsCRT@D@ATL@@@@@ATL@@IH@Z" PURGE="12" COMMENT="" />
    <EXPORT ORDINAL="728" NAME="?AddWindow@CBCGPTasksPane@@QAEHHPAUHWND__@@HHK@Z" PURGE="20" COMMENT="" />
    <EXPORT ORDINAL="729" NAME="?AddaptColors@CBCGPToolBarImages@@QAEXKK@Z" PURGE="8" COMMENT="" />
    <EXPORT ORDINAL="730" NAME="?AdjustBarFrames@CBCGPDockManager@@UAEXXZ" PURGE="0" COMMENT="" />
    <EXPORT ORDINAL="731" NAME="?AdjustBarFrames@CBCGPMiniFrameWnd@@UAEXXZ" PURGE="0" COMMENT="" />
    <EXPORT ORDINAL="732" NAME="?AdjustBarFrames@CBCGPMultiMiniFrameWnd@@UAEXXZ" PURGE="0" COMMENT="" />
    <EXPORT ORDINAL="733" NAME="?AdjustBarToRowArea@CBCGPDockBarRow@@IAEXPAVCBCGPControlBar@@ABVCRect@@AAPAX@Z" PURGE="12" COMMENT="" />
    <EXPORT ORDINAL="734" NAME="?AdjustButtonRect@CBCGPProp@@UAEXXZ" PURGE="0" COMMENT="" />
    <EXPORT ORDINAL="735" NAME="?AdjustClientArea@CBCGPFrameWnd@@MAEXXZ" PURGE="0" COMMENT="" />
    <EXPORT ORDINAL="736" NAME="?AdjustClientArea@CBCGPMDIChildWnd@@IAEXXZ" PURGE="0" COMMENT="" />
    <EXPORT ORDINAL="737" NAME="?AdjustClientArea@CBCGPMDIFrameWnd@@UAEXXZ" PURGE="0" COMMENT="" />
    <EXPORT ORDINAL="738" NAME="?AdjustClientArea@CBCGPOleCntrFrameWnd@@QAEXXZ" PURGE="0" COMMENT="" />
    <EXPORT ORDINAL="739" NAME="?AdjustControl@CBCGPDateTimeCtrl@@QAEXVCRect@@@Z" PURGE="16" COMMENT="" />
    <EXPORT ORDINAL="740" NAME="?AdjustControl@CBCGPDurationCtrl@@QAEXVCRect@@@Z" PURGE="16" COMMENT="" />
    <EXPORT ORDINAL="741" NAME="?AdjustDockingLayout@CBCGPBaseControlBar@@UAEXPAX@Z" PURGE="4" COMMENT="" />
    <EXPORT ORDINAL="742" NAME="?AdjustDockingLayout@CBCGPDockBar@@UAEXXZ" PURGE="0" COMMENT="" />
    <EXPORT ORDINAL="743" NAME="?AdjustDockingLayout@CBCGPDockManager@@UAEXPAX@Z" PURGE="4" COMMENT="" />
    <EXPORT ORDINAL="744" NAME="?AdjustDockingLayout@CBCGPFrameWnd@@UAEXPAX@Z" PURGE="4" COMMENT="" />
    <EXPORT ORDINAL="745" NAME="?AdjustDockingLayout@CBCGPMDIChildWnd@@UAEXPAX@Z" PURGE="4" COMMENT="" />
    <EXPORT ORDINAL="746" NAME="?AdjustDockingLayout@CBCGPMDIFrameWnd@@UAEXPAX@Z" PURGE="4" COMMENT="" />
    <EXPORT ORDINAL="747" NAME="?AdjustDockingLayout@CBCGPOleCntrFrameWnd@@UAEXPAX@Z" PURGE="4" COMMENT="" />
    <EXPORT ORDINAL="748" NAME="?AdjustDockingLayout@CBCGPOleDocIPFrameWnd@@UAEXPAX@Z" PURGE="-1" COMMENT="" />
    <EXPORT ORDINAL="749" NAME="?AdjustDockingLayout@CBCGPOleIPFrameWnd@@UAEXPAX@Z" PURGE="-1" COMMENT="" />
    <EXPORT ORDINAL="750" NAME="?AdjustLayout@CBCGPBaseControlBar@@UAEXXZ" PURGE="0" COMMENT="" />
    <EXPORT ORDINAL="751" NAME="?AdjustLayout@CBCGPCaptionBar@@MAEXXZ" PURGE="0" COMMENT="" />
    <EXPORT ORDINAL="752" NAME="?AdjustLayout@CBCGPDockBar@@UAEXXZ" PURGE="0" COMMENT="" />
    <EXPORT ORDINAL="753" NAME="?AdjustLayout@CBCGPEditListBase@@IAEXXZ" PURGE="0" COMMENT="" />
    <EXPORT ORDINAL="754" NAME="?AdjustLayout@CBCGPMiniFrameWnd@@UAEXXZ" PURGE="0" COMMENT="" />
    <EXPORT ORDINAL="755" NAME="?AdjustLayout@CBCGPMultiMiniFrameWnd@@UAEXXZ" PURGE="0" COMMENT="" />
    <EXPORT ORDINAL="756" NAME="?AdjustLayout@CBCGPPopupMenuBar@@MAEXXZ" PURGE="0" COMMENT="" />
    <EXPORT ORDINAL="757" NAME="?AdjustLayout@CBCGPPropList@@UAEXXZ" PURGE="0" COMMENT="" />
    <EXPORT ORDINAL="758" NAME="?AdjustLayout@CBCGPToolBar@@UAEXXZ" PURGE="0" COMMENT="" />
    <EXPORT ORDINAL="759" NAME="?AdjustLocations@CBCGPCalculator@@MAEXXZ" PURGE="0" COMMENT="" />
    <EXPORT ORDINAL="760" NAME="?AdjustLocations@CBCGPCalendarBar@@UAEXXZ" PURGE="0" COMMENT="" />
    <EXPORT ORDINAL="761" NAME="?AdjustLocations@CBCGPColorBar@@MAEXXZ" PURGE="0" COMMENT="" />
    <EXPORT ORDINAL="762" NAME="?AdjustLocations@CBCGPMenuBar@@UAEXXZ" PURGE="0" COMMENT="" />
    <EXPORT ORDINAL="763" NAME="?AdjustLocations@CBCGPOutlookBarPane@@MAEXXZ" PURGE="0" COMMENT="" />
    <EXPORT ORDINAL="764" NAME="?AdjustLocations@CBCGPPopupMenuBar@@MAEXXZ" PURGE="0" COMMENT="" />
    <EXPORT ORDINAL="765" NAME="?AdjustLocations@CBCGPToolBar@@MAEXXZ" PURGE="0" COMMENT="" />
    <EXPORT ORDINAL="766" NAME="?AdjustMDIChildren@CBCGPMainClientAreaWnd@@AAEXPAVCBCGPTabWnd@@@Z" PURGE="4" COMMENT="" />
    <EXPORT ORDINAL="767" NAME="?AdjustRect@CBCGPToolbarComboBoxButton@@IAEXXZ" PURGE="0" COMMENT="" />
    <EXPORT ORDINAL="768" NAME="?AdjustRect@CBCGPToolbarDateTimeCtrl@@IAEXXZ" PURGE="0" COMMENT="" />
    <EXPORT ORDINAL="769" NAME="?AdjustRectToClientArea@CBCGPDockManager@@UAEHAAVCRect@@K@Z" PURGE="8" COMMENT="" />
    <EXPORT ORDINAL="770" NAME="?AdjustRectToMargin@CBCGPCaptionBar@@IAEXAAVCRect@@ABV2@HH@Z" PURGE="16" COMMENT="" />
    <EXPORT ORDINAL="771" NAME="?AdjustRectToWorkArea@CBCGPGlobalUtils@@QAEXAAVCRect@@PAV2@@Z" PURGE="8" COMMENT="" />
    <EXPORT ORDINAL="772" NAME="?AdjustScroll@CBCGPPopupMenu@@IAEHH@Z" PURGE="4" COMMENT="" />
    <EXPORT ORDINAL="773" NAME="?AdjustScroll@CBCGPTasksPane@@IAEXXZ" PURGE="0" COMMENT="" />
    <EXPORT ORDINAL="774" NAME="?AdjustSize@CBCGPToolBar@@QAEXXZ" PURGE="0" COMMENT="" />
    <EXPORT ORDINAL="775" NAME="?AdjustSizeImmediate@CBCGPControlBar@@UAEXH@Z" PURGE="4" COMMENT="" />
    <EXPORT ORDINAL="776" NAME="?AdjustSizeImmediate@CBCGPPopupMenuBar@@UAEXH@Z" PURGE="4" COMMENT="" />
    <EXPORT ORDINAL="777" NAME="?AdjustTabs@CBCGPTabWnd@@MAEXXZ" PURGE="0" COMMENT="" />
    <EXPORT ORDINAL="778" NAME="?AdjustTabsScroll@CBCGPTabWnd@@MAEXXZ" PURGE="0" COMMENT="" />
    <EXPORT ORDINAL="779" NAME="?AdjustToolbars@CBCGPVisualManager@@SAXXZ" PURGE="0" COMMENT="" />
    <EXPORT ORDINAL="780" NAME="?AdjustWndScroll@CBCGPTabWnd@@MAEXXZ" PURGE="0" COMMENT="" />
    <EXPORT ORDINAL="781" NAME="?AlignAutoHideBar@CBCGPDockManager@@QAEXPAVCBCGPSlider@@H@Z" PURGE="8" COMMENT="" />
    <EXPORT ORDINAL="782" NAME="?AlignByRect@CBCGPDockManager@@IAEXABVCRect@@AAV2@KHH@Z" PURGE="20" COMMENT="" />
    <EXPORT ORDINAL="783" NAME="?AlignDockBar@CBCGPDockBar@@QAEXABVCRect@@AAV2@H@Z" PURGE="12" COMMENT="" />
    <EXPORT ORDINAL="784" NAME="?AllocElements@CBCGPControlBar@@QAEHHH@Z" PURGE="8" COMMENT="" />
    <EXPORT ORDINAL="785" NAME="?AllowAltCustomization@CBCGPPopupMenuBar@@MBEHXZ" PURGE="0" COMMENT="" />
    <EXPORT ORDINAL="786" NAME="?AllowAltCustomization@CBCGPToolBar@@MBEHXZ" PURGE="0" COMMENT="" />
    <EXPORT ORDINAL="787" NAME="?AllowChangeTextLabels@CBCGPCalculator@@MBEHXZ" PURGE="0" COMMENT="" />
    <EXPORT ORDINAL="788" NAME="?AllowChangeTextLabels@CBCGPCalendarBar@@MBEHXZ" PURGE="0" COMMENT="" />
    <EXPORT ORDINAL="789" NAME="?AllowChangeTextLabels@CBCGPColorBar@@MBEHXZ" PURGE="0" COMMENT="" />
    <EXPORT ORDINAL="790" NAME="?AllowChangeTextLabels@CBCGPMenuBar@@UBEHXZ" PURGE="0" COMMENT="" />
    <EXPORT ORDINAL="791" NAME="?AllowChangeTextLabels@CBCGPToolBar@@UBEHXZ" PURGE="0" COMMENT="" />
    <EXPORT ORDINAL="792" NAME="?AllowDestroyEmptyTabbedBar@CBCGPBaseTabbedBar@@UBEHXZ" PURGE="0" COMMENT="" />
    <EXPORT ORDINAL="793" NAME="?AllowDestroyEmptyTabbedBar@CBCGPOutlookBar@@UBEHXZ" PURGE="-1" COMMENT="" />
    <EXPORT ORDINAL="794" NAME="?AllowDestroyEmptyTabbedBar@CBCGPTabWnd@@UBEHXZ" PURGE="0" COMMENT="" />
    <EXPORT ORDINAL="795" NAME="?AllowEdit@CBCGPProp@@QAEXH@Z" PURGE="4" COMMENT="" />
    <EXPORT ORDINAL="796" NAME="?AllowSelectDisabled@CBCGPPopupMenuBar@@MBEHXZ" PURGE="0" COMMENT="" />
    <EXPORT ORDINAL="797" NAME="?AllowSelectDisabled@CBCGPToolBar@@MBEHXZ" PURGE="0" COMMENT="" />
    <EXPORT ORDINAL="798" NAME="?AllowShowOnList@CBCGPCalculator@@MBEHXZ" PURGE="0" COMMENT="" />
    <EXPORT ORDINAL="799" NAME="?AllowShowOnList@CBCGPCalendarBar@@MBEHXZ" PURGE="0" COMMENT="" />
    <EXPORT ORDINAL="800" NAME="?AllowShowOnList@CBCGPColorBar@@MBEHXZ" PURGE="0" COMMENT="" />
    <EXPORT ORDINAL="801" NAME="?AllowShowOnList@CBCGPOutlookBarPane@@MBEHXZ" PURGE="0" COMMENT="" />
    <EXPORT ORDINAL="802" NAME="?AllowShowOnList@CBCGPPopupMenuBar@@MBEHXZ" PURGE="0" COMMENT="" />
    <EXPORT ORDINAL="803" NAME="?AllowShowOnList@CBCGPToolBar@@MBEHXZ" PURGE="0" COMMENT="" />
    <EXPORT ORDINAL="804" NAME="?AlwaysHighlight3DTabs@CBCGPVisualManager@@UBEHXZ" PURGE="0" COMMENT="" />
    <EXPORT ORDINAL="805" NAME="?AlwaysHighlight3DTabs@CBCGPWinXPVisualManager@@UBEHXZ" PURGE="0" COMMENT="" />
    <EXPORT ORDINAL="806" NAME="?AlwaysShowEmptyToolsEntry@CBCGPPopupMenu@@SAXH@Z" PURGE="0" COMMENT="" />
    <EXPORT ORDINAL="807" NAME="?AppBarCallback@CBCGPAppBarWnd@@QAEJIJ@Z" PURGE="8" COMMENT="" />
    <EXPORT ORDINAL="808" NAME="?ApplyParams@CBCGPMainClientAreaWnd@@AAEXPAVCBCGPTabWnd@@@Z" PURGE="4" COMMENT="" />
    <EXPORT ORDINAL="809" NAME="?ApplyRestoredTabInfo@CBCGPBaseTabWnd@@UAEXH@Z" PURGE="4" COMMENT="" />
    <EXPORT ORDINAL="810" NAME="?ApplyRestoredTabInfo@CBCGPBaseTabbedBar@@UAEXH@Z" PURGE="4" COMMENT="" />
    <EXPORT ORDINAL="811" NAME="?AreAllCommandsShown@CBCGPPopupMenu@@QBEHXZ" PURGE="0" COMMENT="" />
    <EXPORT ORDINAL="812" NAME="?AreMDITabs@CBCGPMDIFrameWnd@@QBEHPAH@Z" PURGE="4" COMMENT="" />
    <EXPORT ORDINAL="813" NAME="?AreTextLabels@CBCGPToolBar@@QBEHXZ" PURGE="0" COMMENT="" />
    <EXPORT ORDINAL="814" NAME="?ArrangeBars@CBCGPDockBarRow@@UAEXPAVCBCGPControlBar@@@Z" PURGE="4" COMMENT="" />
    <EXPORT ORDINAL="815" NAME="?ArrangeBarsRect@CBCGPDockBarRow@@IAEXPAVCBCGPControlBar@@@Z" PURGE="4" COMMENT="" />
    <EXPORT ORDINAL="816" NAME="?ArrangeCaptionButtons@CBCGPMiniFrameWnd@@IAEXXZ" PURGE="0" COMMENT="" />
    <EXPORT ORDINAL="817" NAME="?ArrangeControlBars@CBCGPDockBarRow@@UAEXHH@Z" PURGE="8" COMMENT="" />
    <EXPORT ORDINAL="818" NAME="?AttachToTabWnd@CBCGPDockingControlBar@@UAEPAV1@PAV1@W4BCGP_DOCK_METHOD@@HPAPAV1@@Z" PURGE="16" COMMENT="" />
    <EXPORT ORDINAL="819" NAME="?AutoDestroyWindow@CBCGPBaseTabWnd@@QAEXH@Z" PURGE="4" COMMENT="" />
    <EXPORT ORDINAL="820" NAME="?AutoGrayInactiveImages@CBCGPToolBar@@SAXHHH@Z" PURGE="0" COMMENT="" />
    <EXPORT ORDINAL="821" NAME="?AutoHideBar@CBCGPDockManager@@QAEPAVCBCGPAutoHideToolBar@@PAVCBCGPDockingControlBar@@PAV2@@Z" PURGE="8" COMMENT="" />
    <EXPORT ORDINAL="822" NAME="?AutoSizeWindow@CBCGPTabWnd@@QAEXH@Z" PURGE="4" COMMENT="" />
    <EXPORT ORDINAL="823" NAME="?BCGCBProCleanUp@@YAXXZ" PURGE="0" COMMENT="" />
    <EXPORT ORDINAL="824" NAME="?BCGCBProGetTopLevelFrame@@YAPAVCFrameWnd@@PBVCWnd@@@Z" PURGE="0" COMMENT="" />
    <EXPORT ORDINAL="825" NAME="?BCGCBProSetResourceHandle@@YAXPAUHINSTANCE__@@@Z" PURGE="0" COMMENT="" />
    <EXPORT ORDINAL="826" NAME="?BCGCBProSetTopLevelFrame@@YAXPAVCFrameWnd@@@Z" PURGE="0" COMMENT="" />
    <EXPORT ORDINAL="827" NAME="?BCGDlgMouseProc@CBCGPDlgImpl@@KGJHIJ@Z" PURGE="12" COMMENT="" />
    <EXPORT ORDINAL="828" NAME="?BCGM_ACCGETOBGECT@@3IA" PURGE="-1" COMMENT="" />
    <EXPORT ORDINAL="829" NAME="?BCGM_ACCHITTEST@@3IA" PURGE="-1" COMMENT="" />
    <EXPORT ORDINAL="830" NAME="?BCGM_APPBAR_CALLBACK@@3IA" PURGE="-1" COMMENT="" />
    <EXPORT ORDINAL="831" NAME="?BCGM_CALENDAR_ON_SELCHANGED@@3IA" PURGE="-1" COMMENT="" />
    <EXPORT ORDINAL="832" NAME="?BCGM_CHANGE_ACTIVE_TAB@@3IA" PURGE="-1" COMMENT="" />
    <EXPORT ORDINAL="833" NAME="?BCGM_CHANGING_ACTIVE_TAB@@3IA" PURGE="-1" COMMENT="" />
    <EXPORT ORDINAL="834" NAME="?BCGM_CREATETOOLBAR@@3IA" PURGE="-1" COMMENT="" />
    <EXPORT ORDINAL="835" NAME="?BCGM_CUSTOMIZEHELP@@3IA" PURGE="-1" COMMENT="" />
    <EXPORT ORDINAL="836" NAME="?BCGM_CUSTOMIZETOOLBAR@@3IA" PURGE="-1" COMMENT="" />
    <EXPORT ORDINAL="837" NAME="?BCGM_DELETETOOLBAR@@3IA" PURGE="-1" COMMENT="" />
    <EXPORT ORDINAL="838" NAME="?BCGM_GETDOCUMENTCOLORS@@3IA" PURGE="-1" COMMENT="" />
    <EXPORT ORDINAL="839" NAME="?BCGM_GETDRAGBOUNDS@@3IA" PURGE="-1" COMMENT="" />
    <EXPORT ORDINAL="840" NAME="?BCGM_ON_CANCELTABMOVE@@3IA" PURGE="-1" COMMENT="" />
    <EXPORT ORDINAL="841" NAME="?BCGM_ON_DRAGCOMPLETE@@3IA" PURGE="-1" COMMENT="" />
    <EXPORT ORDINAL="842" NAME="?BCGM_ON_EDITCHANGE@@3IA" PURGE="-1" COMMENT="" />
    <EXPORT ORDINAL="843" NAME="?BCGM_ON_HSCROLL@@3IA" PURGE="-1" COMMENT="" />
    <EXPORT ORDINAL="844" NAME="?BCGM_ON_MOVETABCOMPLETE@@3IA" PURGE="-1" COMMENT="" />
    <EXPORT ORDINAL="845" NAME="?BCGM_ON_MOVE_TAB@@3IA" PURGE="-1" COMMENT="" />
    <EXPORT ORDINAL="846" NAME="?BCGM_ON_PRESS_CLOSE_BUTTON@@3IA" PURGE="-1" COMMENT="" />
    <EXPORT ORDINAL="847" NAME="?BCGM_ON_RENAME_TAB@@3IA" PURGE="-1" COMMENT="" />
    <EXPORT ORDINAL="848" NAME="?BCGM_ON_TABGROUPMOUSEMOVE@@3IA" PURGE="-1" COMMENT="" />
    <EXPORT ORDINAL="849" NAME="?BCGM_PROPERTY_CHANGED@@3IA" PURGE="-1" COMMENT="" />
    <EXPORT ORDINAL="850" NAME="?BCGM_RESETCONTEXTMENU@@3IA" PURGE="-1" COMMENT="" />
    <EXPORT ORDINAL="851" NAME="?BCGM_RESETKEYBOARD@@3IA" PURGE="-1" COMMENT="" />
    <EXPORT ORDINAL="852" NAME="?BCGM_RESETMENU@@3IA" PURGE="-1" COMMENT="" />
    <EXPORT ORDINAL="853" NAME="?BCGM_RESETRPROMPT@@3IA" PURGE="-1" COMMENT="" />
    <EXPORT ORDINAL="854" NAME="?BCGM_RESETTOOLBAR@@3IA" PURGE="-1" COMMENT="" />
    <EXPORT ORDINAL="855" NAME="?BCGM_SHOWREGULARMENU@@3IA" PURGE="-1" COMMENT="" />
    <EXPORT ORDINAL="856" NAME="?BCGM_TOOLBARMENU@@3IA" PURGE="-1" COMMENT="" />
    <EXPORT ORDINAL="857" NAME="?BCGPGetParentFrame@@YAPAVCFrameWnd@@PBVCWnd@@@Z" PURGE="0" COMMENT="" />
    <EXPORT ORDINAL="858" NAME="?BCGPM_CHANGE_CURRENT_FOLDER@@3IA" PURGE="-1" COMMENT="" />
    <EXPORT ORDINAL="859" NAME="?BCGPM_ON_AFTER_SHELL_COMMAND@@3IA" PURGE="-1" COMMENT="" />
    <EXPORT ORDINAL="860" NAME="?BCGPPrintPreview@@YAXPAVCView@@@Z" PURGE="0" COMMENT="" />
    <EXPORT ORDINAL="861" NAME="?BCGToolBarMouseProc@CBCGPToolBar@@KGJHIJ@Z" PURGE="12" COMMENT="" />
    <EXPORT ORDINAL="862" NAME="?BeginTrans@CBCGPDockBarRow@@IAEXXZ" PURGE="0" COMMENT="" />
    <EXPORT ORDINAL="863" NAME="?BitmapToClient@CImagePaintArea@@IAEXAAVCRect@@@Z" PURGE="4" COMMENT="" />
    <EXPORT ORDINAL="864" NAME="?BringBarsToTop@CBCGPDockManager@@QAEXKH@Z" PURGE="8" COMMENT="" />
    <EXPORT ORDINAL="865" NAME="?BringToTop@CBCGPAutoHideButton@@QAEXXZ" PURGE="0" COMMENT="" />
    <EXPORT ORDINAL="866" NAME="?BrowseCallbackProc@CBCGPShellManager@@KGHPAUHWND__@@IJJ@Z" PURGE="16" COMMENT="" />
    <EXPORT ORDINAL="867" NAME="?BrowseForFolder@CBCGPShellManager@@QAEHAAV?$CStringT@DV?$StrTraitMFC_DLL@DV?$ChTraitsCRT@D@ATL@@@@@ATL@@PAVCWnd@@PBD2IPAH@Z" PURGE="24" COMMENT="" />
    <EXPORT ORDINAL="868" NAME="?BuidWidestDate@CBCGPDateTimeCtrl@@IAEXPAVCDC@@@Z" PURGE="4" COMMENT="" />
    <EXPORT ORDINAL="869" NAME="?Build@CBCGPTearOffManager@@QAEXIAAV?$CStringT@DV?$StrTraitMFC_DLL@DV?$ChTraitsCRT@D@ATL@@@@@ATL@@@Z" PURGE="8" COMMENT="" />
    <EXPORT ORDINAL="870" NAME="?BuildColorAreas@CBCGPEditCtrl@@IAEXAAV?$CList@UBCGP_EDIT_COLOR_AREA@@AAU1@@@HHPAUBCGP_EDIT_COLOR_BLOCK@@H@Z" PURGE="20" COMMENT="" />
    <EXPORT ORDINAL="871" NAME="?BuildOrigItems@CBCGPMenuBar@@IAEHI@Z" PURGE="4" COMMENT="" />
    <EXPORT ORDINAL="872" NAME="?BuildTabString@CBCGPEditCtrl@@IAEXAAV?$CStringT@DV?$StrTraitMFC_DLL@DV?$ChTraitsCRT@D@ATL@@@@@ATL@@@Z" PURGE="4" COMMENT="" />
    <EXPORT ORDINAL="873" NAME="?ButtonFromAutoHideWindow@CBCGPAutoHideToolBar@@IAEPAVCBCGPAutoHideButton@@PAVCBCGPDockingControlBar@@@Z" PURGE="4" COMMENT="" />
    <EXPORT ORDINAL="874" NAME="?ButtonFromPoint@CBCGPAutoHideToolBar@@IAEPAVCBCGPAutoHideButton@@VCPoint@@@Z" PURGE="8" COMMENT="" />
    <EXPORT ORDINAL="875" NAME="?ButtonToIndex@CBCGPToolBar@@QBEHPBVCBCGPToolbarButton@@@Z" PURGE="4" COMMENT="" />
    <EXPORT ORDINAL="876" NAME="?CBR_ENABLED@CBCGPCalendarBar@@2IB" PURGE="-1" COMMENT="" />
    <EXPORT ORDINAL="877" NAME="?CBR_MULTISELECTION@CBCGPCalendarBar@@2IB" PURGE="-1" COMMENT="" />
    <EXPORT ORDINAL="878" NAME="?CBR_NAVIGATION_BUTTONS@CBCGPCalendarBar@@2IB" PURGE="-1" COMMENT="" />
    <EXPORT ORDINAL="879" NAME="?CBR_WEEKDAYSEL@CBCGPCalendarBar@@2IB" PURGE="-1" COMMENT="" />
    <EXPORT ORDINAL="880" NAME="?CBR_WEEKNUMBER@CBCGPCalendarBar@@2IB" PURGE="-1" COMMENT="" />
    <EXPORT ORDINAL="881" NAME="?CalcAvailableBarSpace@CBCGPBarContainer@@QAEHHPAVCBCGPControlBar@@PAV1@H@Z" PURGE="16" COMMENT="" />
    <EXPORT ORDINAL="882" NAME="?CalcAvailableSize@CBCGPControlBar@@UAE?AVCSize@@VCRect@@@Z" PURGE="20" COMMENT="" />
    <EXPORT ORDINAL="883" NAME="?CalcAvailableSpace@CBCGPBarContainer@@QAE?AVCSize@@V2@H@Z" PURGE="16" COMMENT="" />
    <EXPORT ORDINAL="884" NAME="?CalcBarOffset@CBCGPDockManager@@IAEXPAVCBCGPAutoHideDockBar@@@Z" PURGE="4" COMMENT="" />
    <EXPORT ORDINAL="885" NAME="?CalcBorderSize@CBCGPAppBarWnd@@UBEXAAVCRect@@@Z" PURGE="4" COMMENT="" />
    <EXPORT ORDINAL="886" NAME="?CalcBorderSize@CBCGPMiniFrameWnd@@UBEXAAVCRect@@@Z" PURGE="4" COMMENT="" />
    <EXPORT ORDINAL="887" NAME="?CalcBorderSize@CBCGPTaskPaneMiniFrameWnd@@UBEXAAVCRect@@@Z" PURGE="4" COMMENT="" />
    <EXPORT ORDINAL="888" NAME="?CalcCorrectOffset@CBCGPDockingControlBar@@IAE?AVCPoint@@VCRect@@H@Z" PURGE="24" COMMENT="" />
    <EXPORT ORDINAL="889" NAME="?CalcExpectedDockedRect@CBCGPDockManager@@QAEXPAVCWnd@@VCPoint@@AAVCRect@@AAHPAPAVCBCGPDockingControlBar@@@Z" PURGE="24" COMMENT="" />
    <EXPORT ORDINAL="890" NAME="?CalcExpectedDockedRect@CBCGPGlobalUtils@@QAEXAAVCBCGPBarContainerManager@@PAVCWnd@@VCPoint@@AAVCRect@@AAHPAPAVCBCGPDockingControlBar@@@Z" PURGE="28" COMMENT="" />
    <EXPORT ORDINAL="891" NAME="?CalcExpectedDockedRect@CBCGPMiniFrameWnd@@UAEXPAVCWnd@@VCPoint@@AAVCRect@@AAHPAPAVCBCGPDockingControlBar@@@Z" PURGE="24" COMMENT="" />
    <EXPORT ORDINAL="892" NAME="?CalcExpectedDockedRect@CBCGPMultiMiniFrameWnd@@UAEXPAVCWnd@@VCPoint@@AAVCRect@@AAHPAPAVCBCGPDockingControlBar@@@Z" PURGE="24" COMMENT="" />
    <EXPORT ORDINAL="893" NAME="?CalcExpectedDockedRect@CBCGPSlider@@UAEXPAVCWnd@@VCPoint@@AAVCRect@@AAHPAPAVCBCGPDockingControlBar@@@Z" PURGE="24" COMMENT="" />
    <EXPORT ORDINAL="894" NAME="?CalcFixedLayout@CBCGPAutoHideToolBar@@UAE?AVCSize@@HH@Z" PURGE="12" COMMENT="" />
    <EXPORT ORDINAL="895" NAME="?CalcFixedLayout@CBCGPBaseControlBar@@UAE?AVCSize@@HH@Z" PURGE="12" COMMENT="" />
    <EXPORT ORDINAL="896" NAME="?CalcFixedLayout@CBCGPCaptionBar@@MAE?AVCSize@@HH@Z" PURGE="12" COMMENT="" />
    <EXPORT ORDINAL="897" NAME="?CalcFixedLayout@CBCGPDockBar@@UAE?AVCSize@@HH@Z" PURGE="12" COMMENT="" />
    <EXPORT ORDINAL="898" NAME="?CalcFixedLayout@CBCGPDockBarRow@@UAE?AVCSize@@HH@Z" PURGE="12" COMMENT="" />
    <EXPORT ORDINAL="899" NAME="?CalcFixedLayout@CBCGPDockingControlBar@@UAE?AVCSize@@HH@Z" PURGE="12" COMMENT="" />
    <EXPORT ORDINAL="900" NAME="?CalcFixedLayout@CBCGPMenuBar@@UAE?AVCSize@@HH@Z" PURGE="12" COMMENT="" />
    <EXPORT ORDINAL="901" NAME="?CalcFixedLayout@CBCGPOutlookBarPane@@MAE?AVCSize@@HH@Z" PURGE="12" COMMENT="" />
    <EXPORT ORDINAL="902" NAME="?CalcFixedLayout@CBCGPReBar@@UAE?AVCSize@@HH@Z" PURGE="12" COMMENT="" />
    <EXPORT ORDINAL="903" NAME="?CalcFixedLayout@CBCGPSlider@@UAE?AVCSize@@HH@Z" PURGE="12" COMMENT="" />
    <EXPORT ORDINAL="904" NAME="?CalcFixedLayout@CBCGPStatusBar@@UAE?AVCSize@@HH@Z" PURGE="12" COMMENT="" />
    <EXPORT ORDINAL="905" NAME="?CalcFixedLayout@CBCGPTabbedToolbar@@UAE?AVCSize@@HH@Z" PURGE="12" COMMENT="" />
    <EXPORT ORDINAL="906" NAME="?CalcFixedLayout@CBCGPToolBar@@UAE?AVCSize@@HH@Z" PURGE="12" COMMENT="" />
    <EXPORT ORDINAL="907" NAME="?CalcInsideRect@CBCGPControlBar@@QBEXAAVCRect@@H@Z" PURGE="8" COMMENT="" />
    <EXPORT ORDINAL="908" NAME="?CalcLastBarOffset@CBCGPDockBarRow@@IAEHXZ" PURGE="0" COMMENT="" />
    <EXPORT ORDINAL="909" NAME="?CalcLayout@CBCGPMenuBar@@UAE?AVCSize@@KH@Z" PURGE="12" COMMENT="" />
    <EXPORT ORDINAL="910" NAME="?CalcLayout@CBCGPToolBar@@MAE?AVCSize@@KH@Z" PURGE="12" COMMENT="" />
    <EXPORT ORDINAL="911" NAME="?CalcMaxButtonHeight@CBCGPMenuBar@@UAEHXZ" PURGE="-1" COMMENT="" />
    <EXPORT ORDINAL="912" NAME="?CalcMaxButtonHeight@CBCGPToolBar@@MAEHXZ" PURGE="0" COMMENT="" />
    <EXPORT ORDINAL="913" NAME="?CalcMinSize@CBCGPMiniFrameWnd@@MAEXAAVCSize@@PAUtagMINMAXINFO@@@Z" PURGE="8" COMMENT="" />
    <EXPORT ORDINAL="914" NAME="?CalcNcSize@CBCGPControlBarImpl@@IAEXPAUtagNCCALCSIZE_PARAMS@@@Z" PURGE="4" COMMENT="" />
    <EXPORT ORDINAL="915" NAME="?CalcPartRects@CBCGPDateTimeCtrl@@IAEXPAVCDC@@@Z" PURGE="4" COMMENT="" />
    <EXPORT ORDINAL="916" NAME="?CalcRecentDockedRect@CBCGPControlBar@@QAEXXZ" PURGE="0" COMMENT="" />
    <EXPORT ORDINAL="917" NAME="?CalcRectEdit@CBCGPOutlookWnd@@UAEXAAVCRect@@@Z" PURGE="4" COMMENT="" />
    <EXPORT ORDINAL="918" NAME="?CalcRectEdit@CBCGPTabWnd@@UAEXAAVCRect@@@Z" PURGE="4" COMMENT="" />
    <EXPORT ORDINAL="919" NAME="?CalcRectForSliding@CBCGPDockingControlBar@@IAEXAAVCRect@@0H@Z" PURGE="12" COMMENT="" />
    <EXPORT ORDINAL="920" NAME="?CalcRects@CBCGPBarContainerManager@@QAEXAAVCRect@@00AAKKVCSize@@2@Z" PURGE="36" COMMENT="" />
    <EXPORT ORDINAL="921" NAME="?CalcResult@CBCGPCalculator@@IAEXXZ" PURGE="0" COMMENT="" />
    <EXPORT ORDINAL="922" NAME="?CalcSize@CBCGPCalculator@@MAE?AVCSize@@H@Z" PURGE="8" COMMENT="" />
    <EXPORT ORDINAL="923" NAME="?CalcSize@CBCGPCalendarBar@@UAE?AVCSize@@H@Z" PURGE="8" COMMENT="" />
    <EXPORT ORDINAL="924" NAME="?CalcSize@CBCGPColorBar@@MAE?AVCSize@@H@Z" PURGE="8" COMMENT="" />
    <EXPORT ORDINAL="925" NAME="?CalcSize@CBCGPControlBar@@UAE?AVCSize@@H@Z" PURGE="8" COMMENT="" />
    <EXPORT ORDINAL="926" NAME="?CalcSize@CBCGPPopupMenuBar@@MAE?AVCSize@@H@Z" PURGE="8" COMMENT="" />
    <EXPORT ORDINAL="927" NAME="?CalcSize@CBCGPToolBar@@UAE?AVCSize@@H@Z" PURGE="8" COMMENT="" />
    <EXPORT ORDINAL="928" NAME="?CalcSysButtonSize@CBCGPMenuBar@@IAEXXZ" PURGE="0" COMMENT="" />
    <EXPORT ORDINAL="929" NAME="?CalcWindowRect@CBCGPDockBar@@MAEXPAUtagRECT@@I@Z" PURGE="-1" COMMENT="" />
    <EXPORT ORDINAL="930" NAME="?CalcWindowRect@CBCGPMainClientAreaWnd@@MAEXPAUtagRECT@@I@Z" PURGE="8" COMMENT="" />
    <EXPORT ORDINAL="931" NAME="?CalcWindowRectForMDITabbedGroups@CBCGPMainClientAreaWnd@@QAEXPAUtagRECT@@I@Z" PURGE="8" COMMENT="" />
    <EXPORT ORDINAL="932" NAME="?CalculateRecentSize@CBCGPBarContainer@@QAEXXZ" PURGE="0" COMMENT="" />
    <EXPORT ORDINAL="933" NAME="?CanAcceptBar@CBCGPAutoHideDockBar@@UBEHPBVCBCGPBaseControlBar@@@Z" PURGE="4" COMMENT="" />
    <EXPORT ORDINAL="934" NAME="?CanAcceptBar@CBCGPBaseControlBar@@UBEHPBV1@@Z" PURGE="4" COMMENT="" />
    <EXPORT ORDINAL="935" NAME="?CanAcceptBar@CBCGPDockBar@@UBEHPBVCBCGPBaseControlBar@@@Z" PURGE="4" COMMENT="" />
    <EXPORT ORDINAL="936" NAME="?CanAcceptBar@CBCGPDockingControlBar@@UBEHPBVCBCGPBaseControlBar@@@Z" PURGE="4" COMMENT="" />
    <EXPORT ORDINAL="937" NAME="?CanAcceptBar@CBCGPOutlookBar@@UBEHPBVCBCGPBaseControlBar@@@Z" PURGE="4" COMMENT="" />
    <EXPORT ORDINAL="938" NAME="?CanAcceptMiniFrame@CBCGPDockingControlBar@@UBEHPAVCBCGPMiniFrameWnd@@@Z" PURGE="-1" COMMENT="" />
    <EXPORT ORDINAL="939" NAME="?CanAdjustLayout@CBCGPDockingControlBar@@UBEHXZ" PURGE="0" COMMENT="" />
    <EXPORT ORDINAL="940" NAME="?CanAutoHide@CBCGPBaseControlBar@@UBEHXZ" PURGE="0" COMMENT="" />
    <EXPORT ORDINAL="941" NAME="?CanAutoHide@CBCGPDockingControlBar@@MBEHXZ" PURGE="0" COMMENT="" />
    <EXPORT ORDINAL="942" NAME="?CanBeAttached@CBCGPBarContainerManager@@UBEHXZ" PURGE="0" COMMENT="" />
    <EXPORT ORDINAL="943" NAME="?CanBeAttached@CBCGPBaseControlBar@@UBEHXZ" PURGE="0" COMMENT="" />
    <EXPORT ORDINAL="944" NAME="?CanBeAttached@CBCGPDockingControlBar@@UBEHXZ" PURGE="0" COMMENT="" />
    <EXPORT ORDINAL="945" NAME="?CanBeAttached@CBCGPGlobalUtils@@QBEHPAVCWnd@@@Z" PURGE="4" COMMENT="" />
    <EXPORT ORDINAL="946" NAME="?CanBeAttached@CBCGPMiniFrameWnd@@UBEHXZ" PURGE="0" COMMENT="" />
    <EXPORT ORDINAL="947" NAME="?CanBeAttached@CBCGPMultiMiniFrameWnd@@UBEHXZ" PURGE="-1" COMMENT="" />
    <EXPORT ORDINAL="948" NAME="?CanBeAttached@CBCGPOutlookBarPane@@UBEHXZ" PURGE="0" COMMENT="" />
    <EXPORT ORDINAL="949" NAME="?CanBeClosed@CBCGPBaseControlBar@@UBEHXZ" PURGE="0" COMMENT="" />
    <EXPORT ORDINAL="950" NAME="?CanBeClosed@CBCGPMenuBar@@UBEHXZ" PURGE="0" COMMENT="" />
    <EXPORT ORDINAL="951" NAME="?CanBeClosed@CBCGPToolBar@@UBEHXZ" PURGE="0" COMMENT="" />
    <EXPORT ORDINAL="952" NAME="?CanBeDocked@CBCGPBaseControlBar@@UBEHPAV1@@Z" PURGE="4" COMMENT="" />
    <EXPORT ORDINAL="953" NAME="?CanBeDocked@CBCGPControlBar@@UBEHPAVCBCGPBaseControlBar@@@Z" PURGE="4" COMMENT="" />
    <EXPORT ORDINAL="954" NAME="?CanBeDockedToBar@CBCGPMiniFrameWnd@@UBEHPBVCBCGPDockingControlBar@@@Z" PURGE="-1" COMMENT="" />
    <EXPORT ORDINAL="955" NAME="?CanBeDockedToBar@CBCGPMultiMiniFrameWnd@@UBEHPBVCBCGPDockingControlBar@@@Z" PURGE="4" COMMENT="" />
    <EXPORT ORDINAL="956" NAME="?CanBeDropped@CBCGPOutlookButton@@UAEHPAVCBCGPToolBar@@@Z" PURGE="4" COMMENT="" />
    <EXPORT ORDINAL="957" NAME="?CanBeDropped@CBCGPToolbarButton@@UAEHPAVCBCGPToolBar@@@Z" PURGE="4" COMMENT="" />
    <EXPORT ORDINAL="958" NAME="?CanBeResized@CBCGPBaseControlBar@@UBEHXZ" PURGE="0" COMMENT="" />
    <EXPORT ORDINAL="959" NAME="?CanBeRestored@CBCGPMenuBar@@UBEHXZ" PURGE="0" COMMENT="" />
    <EXPORT ORDINAL="960" NAME="?CanBeRestored@CBCGPOutlookBarPane@@UBEHXZ" PURGE="0" COMMENT="" />
    <EXPORT ORDINAL="961" NAME="?CanBeRestored@CBCGPToolBar@@UBEHXZ" PURGE="0" COMMENT="" />
    <EXPORT ORDINAL="962" NAME="?CanBeStored@CBCGPToolbarButton@@UBEHXZ" PURGE="0" COMMENT="" />
    <EXPORT ORDINAL="963" NAME="?CanBeStretched@CBCGPToolbarButton@@UBEHXZ" PURGE="0" COMMENT="" />
    <EXPORT ORDINAL="964" NAME="?CanBeStretched@CBCGPToolbarComboBoxButton@@UBEHXZ" PURGE="0" COMMENT="" />
    <EXPORT ORDINAL="965" NAME="?CanBeStretched@CBCGPToolbarDateTimeCtrl@@UBEHXZ" PURGE="0" COMMENT="" />
    <EXPORT ORDINAL="966" NAME="?CanBeStretched@CBCGPToolbarEditBoxButton@@UBEHXZ" PURGE="0" COMMENT="" />
    <EXPORT ORDINAL="967" NAME="?CanFloat@CBCGPBaseControlBar@@UBEHXZ" PURGE="0" COMMENT="" />
    <EXPORT ORDINAL="968" NAME="?CanFloat@CBCGPBaseTabbedBar@@UBEHXZ" PURGE="0" COMMENT="" />
    <EXPORT ORDINAL="969" NAME="?CanFloat@CBCGPOutlookBarPane@@MBEHXZ" PURGE="0" COMMENT="" />
    <EXPORT ORDINAL="970" NAME="?CanFloat@CBCGPReBar@@UBEHXZ" PURGE="0" COMMENT="" />
    <EXPORT ORDINAL="971" NAME="?CanFocus@CBCGPBaseControlBar@@UBEHXZ" PURGE="0" COMMENT="" />
    <EXPORT ORDINAL="972" NAME="?CanFocus@CBCGPToolBar@@UBEHXZ" PURGE="0" COMMENT="" />
    <EXPORT ORDINAL="973" NAME="?CanHandleBrothers@CBCGPToolBar@@QAEHXZ" PURGE="0" COMMENT="" />
    <EXPORT ORDINAL="974" NAME="?CanRedo@CBCGPEditCtrl@@UBEHXZ" PURGE="0" COMMENT="" />
    <EXPORT ORDINAL="975" NAME="?CanRemoveMarker@CBCGPEditCtrl@@UBEHPAVCBCGPEditMarker@@@Z" PURGE="4" COMMENT="" />
    <EXPORT ORDINAL="976" NAME="?CanSetCaptionTextToTabName@CBCGPBaseTabbedBar@@UBEHXZ" PURGE="0" COMMENT="" />
    <EXPORT ORDINAL="977" NAME="?CanSetCaptionTextToTabName@CBCGPOutlookBar@@UBEHXZ" PURGE="0" COMMENT="" />
    <EXPORT ORDINAL="978" NAME="?CanShowFewerPageButtons@CBCGPOutlookWnd@@UBEHXZ" PURGE="0" COMMENT="" />
    <EXPORT ORDINAL="979" NAME="?CanShowMorePageButtons@CBCGPOutlookWnd@@UBEHXZ" PURGE="0" COMMENT="" />
    <EXPORT ORDINAL="980" NAME="?CanShowOnMDITabs@CBCGPMDIChildWnd@@UAEHXZ" PURGE="0" COMMENT="" />
    <EXPORT ORDINAL="981" NAME="?CanUndo@CBCGPEditCtrl@@UBEHXZ" PURGE="0" COMMENT="" />
    <EXPORT ORDINAL="982" NAME="?CanUpdateMarker@CBCGPEditCtrl@@UBEHPAVCBCGPEditMarker@@@Z" PURGE="4" COMMENT="" />
    <EXPORT ORDINAL="983" NAME="?ChangeActivePage@CBCGPTasksPane@@IAEXHH@Z" PURGE="8" COMMENT="" />
    <EXPORT ORDINAL="984" NAME="?ChangeAmPm@CBCGPDateTimeCtrl@@IAEXI@Z" PURGE="4" COMMENT="" />
    <EXPORT ORDINAL="985" NAME="?ChangeMonth@CBCGPDateTimeCtrl@@IAEXI@Z" PURGE="4" COMMENT="" />
    <EXPORT ORDINAL="986" NAME="?CheckAlignment@CBCGPGlobalUtils@@QBEHVCPoint@@PAVCBCGPBaseControlBar@@HPBVCBCGPDockManager@@HAAKKPBUtagRECT@@@Z" PURGE="36" COMMENT="" />
    <EXPORT ORDINAL="987" NAME="?CheckAndRemoveNonValidBar@CBCGPBarContainerManager@@QAEHPAVCWnd@@@Z" PURGE="4" COMMENT="" />
    <EXPORT ORDINAL="988" NAME="?CheckArea@CBCGPPopupMenu@@QBE?AW4MENUAREA_TYPE@1@ABVCPoint@@@Z" PURGE="4" COMMENT="" />
    <EXPORT ORDINAL="989" NAME="?CheckAutoHideCondition@CBCGPDockingControlBar@@MAEHXZ" PURGE="0" COMMENT="" />
    <EXPORT ORDINAL="990" NAME="?CheckChar@CBCGPMaskEdit@@AAEHDH@Z" PURGE="8" COMMENT="" />
    <EXPORT ORDINAL="991" NAME="?CheckControlBars@CBCGPDockBarRow@@IAEHAAVCRect@@PAVCBCGPControlBar@@_NVCPoint@@HAAPAX@Z" PURGE="28" COMMENT="" />
    <EXPORT ORDINAL="992" NAME="?CheckForMiniFrameAndCaption@CBCGPBarContainerManager@@UAEHVCPoint@@PAPAVCBCGPDockingControlBar@@@Z" PURGE="12" COMMENT="" />
    <EXPORT ORDINAL="993" NAME="?CheckGripperVisibility@CBCGPMiniFrameWnd@@UAEXXZ" PURGE="0" COMMENT="" />
    <EXPORT ORDINAL="994" NAME="?CheckGripperVisibility@CBCGPMultiMiniFrameWnd@@UAEXXZ" PURGE="0" COMMENT="" />
    <EXPORT ORDINAL="995" NAME="?CheckNextPrevRadioButton@CBCGPButton@@IAEHH@Z" PURGE="4" COMMENT="" />
    <EXPORT ORDINAL="996" NAME="?CheckRectangle@CBCGPCaptionBar@@IAEHAAVCRect@@ABV2@H@Z" PURGE="12" COMMENT="" />
    <EXPORT ORDINAL="997" NAME="?CheckSliderVisibility@CBCGPBarContainer@@QAEXXZ" PURGE="0" COMMENT="" />
    <EXPORT ORDINAL="998" NAME="?CheckStopSlideCondition@CBCGPDockingControlBar@@MAEHH@Z" PURGE="4" COMMENT="" />
    <EXPORT ORDINAL="999" NAME="?CheckTabbedBarAlignment@CBCGPTabbedControlBar@@MAEHXZ" PURGE="0" COMMENT="" />
    <EXPORT ORDINAL="1000" NAME="?CheckToolsValidity@CBCGPToolbarCustomize@@MAEHABVCObList@@@Z" PURGE="4" COMMENT="" />
    <EXPORT ORDINAL="1001" NAME="?CheckVisibility@CBCGPSlider@@UAEHXZ" PURGE="0" COMMENT="" />
    <EXPORT ORDINAL="1002" NAME="?CleanState@CBCGPWorkspace@@UAEHPBD@Z" PURGE="4" COMMENT="" />
    <EXPORT ORDINAL="1003" NAME="?CleanUp@CBCGPBarContainer@@IAEXXZ" PURGE="0" COMMENT="" />
    <EXPORT ORDINAL="1004" NAME="?CleanUp@CBCGPBaseTabWnd@@UAEXXZ" PURGE="0" COMMENT="" />
    <EXPORT ORDINAL="1005" NAME="?CleanUp@CBCGPButton@@UAEXXZ" PURGE="0" COMMENT="" />
    <EXPORT ORDINAL="1006" NAME="?CleanUp@CBCGPCommandManager@@QAEXXZ" PURGE="0" COMMENT="" />
    <EXPORT ORDINAL="1007" NAME="?CleanUp@CBCGPFontComboBox@@IAEXXZ" PURGE="0" COMMENT="" />
    <EXPORT ORDINAL="1008" NAME="?CleanUp@CBCGPHotSpotImageCtrl@@MAEXXZ" PURGE="0" COMMENT="" />
    <EXPORT ORDINAL="1009" NAME="?CleanUp@CBCGPKeyboardManager@@SAXXZ" PURGE="0" COMMENT="" />
    <EXPORT ORDINAL="1010" NAME="?CleanUp@CBCGPToolBarImages@@SAXXZ" PURGE="0" COMMENT="" />
    <EXPORT ORDINAL="1011" NAME="?CleanUp@CMenuImages@@SAXXZ" PURGE="0" COMMENT="" />
    <EXPORT ORDINAL="1012" NAME="?CleanUp@GLOBAL_DATA@@QAEXXZ" PURGE="0" COMMENT="" />
    <EXPORT ORDINAL="1013" NAME="?CleanUpAutoHideButtons@CBCGPAutoHideToolBar@@IAEXXZ" PURGE="-1" COMMENT="" />
    <EXPORT ORDINAL="1014" NAME="?CleanUpFonts@CBCGPEditCtrl@@IAEXXZ" PURGE="-1" COMMENT="" />
    <EXPORT ORDINAL="1015" NAME="?CleanUpImages@CBCGPToolBar@@SAXXZ" PURGE="0" COMMENT="" />
    <EXPORT ORDINAL="1016" NAME="?CleanUpLockedImages@CBCGPToolBar@@QAEXXZ" PURGE="0" COMMENT="" />
    <EXPORT ORDINAL="1017" NAME="?CleanUpMarkers@CBCGPEditCtrl@@QAEXXZ" PURGE="0" COMMENT="" />
    <EXPORT ORDINAL="1018" NAME="?CleanUpThemes@CBCGPWinXPThemeManager@@IAEXXZ" PURGE="0" COMMENT="" />
    <EXPORT ORDINAL="1019" NAME="?Clear@CBCGPEditCtrl@@UAEHXZ" PURGE="0" COMMENT="" />
    <EXPORT ORDINAL="1020" NAME="?Clear@CBCGPToolBarImages@@QAEXXZ" PURGE="0" COMMENT="" />
    <EXPORT ORDINAL="1021" NAME="?ClearAll@CBCGPOutlookBarPane@@QAEXXZ" PURGE="0" COMMENT="" />
    <EXPORT ORDINAL="1022" NAME="?ClearAllCmdImages@CBCGPCommandManager@@QAEXXZ" PURGE="0" COMMENT="" />
    <EXPORT ORDINAL="1023" NAME="?ClearCmdImage@CBCGPCommandManager@@QAEXI@Z" PURGE="4" COMMENT="" />
    <EXPORT ORDINAL="1024" NAME="?ClearData@CBCGPToolbarComboBoxButton@@UAEXXZ" PURGE="0" COMMENT="" />
    <EXPORT ORDINAL="1025" NAME="?ClearFonts@CBCGPToolbarFontCombo@@KAXXZ" PURGE="0" COMMENT="" />
    <EXPORT ORDINAL="1026" NAME="?ClearHyperlinks@CBCGPEditCtrl@@IAEXXZ" PURGE="0" COMMENT="" />
    <EXPORT ORDINAL="1027" NAME="?ClearImageList@CBCGPBaseTabWnd@@UAEXXZ" PURGE="-1" COMMENT="" />
    <EXPORT ORDINAL="1028" NAME="?ClearImages@CBCGPButton@@IAEXH@Z" PURGE="4" COMMENT="" />
    <EXPORT ORDINAL="1029" NAME="?ClearSelectedDays@CBCGPCalendarBar@@IAEXXZ" PURGE="0" COMMENT="" />
    <EXPORT ORDINAL="1030" NAME="?ClearUserCmdImages@CBCGPCommandManager@@QAEXXZ" PURGE="0" COMMENT="" />
    <EXPORT ORDINAL="1031" NAME="?ClientToVirt@CBCGPEditCtrl@@QAEXAAVCPoint@@@Z" PURGE="4" COMMENT="" />
    <EXPORT ORDINAL="1032" NAME="?ClientToVirt@CBCGPEditCtrl@@QAEXAAVCRect@@@Z" PURGE="4" COMMENT="" />
    <EXPORT ORDINAL="1033" NAME="?ClipPaint@CBCGPDialogBar@@UBEHXZ" PURGE="0" COMMENT="" />
    <EXPORT ORDINAL="1034" NAME="?Close@CBCGPRegistry@@UAEXXZ" PURGE="0" COMMENT="" />
    <EXPORT ORDINAL="1035" NAME="?CloseAllWindows@CBCGPMainClientAreaWnd@@QAEXPAVCBCGPTabWnd@@@Z" PURGE="4" COMMENT="" />
    <EXPORT ORDINAL="1036" NAME="?CloseColorPopup@CBCGPPropList@@UAEXXZ" PURGE="0" COMMENT="" />
    <EXPORT ORDINAL="1037" NAME="?CloseDelayedSubMenu@CBCGPPopupMenuBar@@QAEXXZ" PURGE="0" COMMENT="" />
    <EXPORT ORDINAL="1038" NAME="?CloseMenu@CBCGPPopupMenu@@QAEXH@Z" PURGE="4" COMMENT="" />
    <EXPORT ORDINAL="1039" NAME="?CloseMiniFrame@CBCGPMiniFrameWnd@@MAEXXZ" PURGE="0" COMMENT="" />
    <EXPORT ORDINAL="1040" NAME="?CloseMiniFrame@CBCGPMultiMiniFrameWnd@@UAEXXZ" PURGE="0" COMMENT="" />
    <EXPORT ORDINAL="1041" NAME="?Collapse@CBCGPOutlineBaseNode@@UAEXH@Z" PURGE="4" COMMENT="" />
    <EXPORT ORDINAL="1042" NAME="?CollapseAllGroups@CBCGPTasksPane@@QAEXH@Z" PURGE="4" COMMENT="" />
    <EXPORT ORDINAL="1043" NAME="?CollapseAllGroups@CBCGPTasksPane@@QAEXHH@Z" PURGE="8" COMMENT="" />
    <EXPORT ORDINAL="1044" NAME="?CollapseGroup@CBCGPTasksPane@@QAEHHH@Z" PURGE="8" COMMENT="" />
    <EXPORT ORDINAL="1045" NAME="?CollapseGroup@CBCGPTasksPane@@QAEHPAVCBCGPTasksGroup@@H@Z" PURGE="8" COMMENT="" />
    <EXPORT ORDINAL="1046" NAME="?CollapseSubmenus@CBCGPPopupMenu@@IAEXXZ" PURGE="0" COMMENT="" />
    <EXPORT ORDINAL="1047" NAME="?CollapseToDefinitions@CBCGPEditCtrl@@QAEXXZ" PURGE="-1" COMMENT="" />
    <EXPORT ORDINAL="1048" NAME="?CollectControls@CBCGPFileDialog@@IAEXXZ" PURGE="0" COMMENT="" />
    <EXPORT ORDINAL="1049" NAME="?CommandToIndex@CBCGPStatusBar@@QBEHI@Z" PURGE="4" COMMENT="" />
    <EXPORT ORDINAL="1050" NAME="?CommandToIndex@CBCGPToolBar@@QBEHIH@Z" PURGE="8" COMMENT="" />
    <EXPORT ORDINAL="1051" NAME="?CommitTrans@CBCGPDockBarRow@@IAEXXZ" PURGE="0" COMMENT="" />
    <EXPORT ORDINAL="1052" NAME="?CommonConstruct@CBCGPDialog@@IAEXXZ" PURGE="0" COMMENT="" />
    <EXPORT ORDINAL="1053" NAME="?CommonInit@CBCGPCalculator@@IAEXXZ" PURGE="0" COMMENT="" />
    <EXPORT ORDINAL="1054" NAME="?CommonInit@CBCGPCalendarBar@@IAEXXZ" PURGE="0" COMMENT="" />
    <EXPORT ORDINAL="1055" NAME="?CommonInit@CBCGPHeaderCtrl@@IAEXXZ" PURGE="0" COMMENT="" />
    <EXPORT ORDINAL="1056" NAME="?CommonInit@CBCGPPropertyPage@@IAEXXZ" PURGE="0" COMMENT="" />
    <EXPORT ORDINAL="1057" NAME="?CommonInit@CBCGPPropertySheet@@IAEXXZ" PURGE="0" COMMENT="" />
    <EXPORT ORDINAL="1058" NAME="?Compare@CBCGPOutlineParser@@IBEHABV?$CStringT@DV?$StrTraitMFC_DLL@DV?$ChTraitsCRT@D@ATL@@@@@ATL@@H0AAH@Z" PURGE="16" COMMENT="" />
    <EXPORT ORDINAL="1059" NAME="?Compare@CBCGPToolbarComboBoxButton@@UAEHPBD0@Z" PURGE="8" COMMENT="" />
    <EXPORT ORDINAL="1060" NAME="?CompareData@CBCGPEditMarker@@UBE_NK@Z" PURGE="4" COMMENT="" />
    <EXPORT ORDINAL="1061" NAME="?CompareItem@CBCGPBaseIntelliSenseLB@@UAEHPAUtagCOMPAREITEMSTRUCT@@@Z" PURGE="4" COMMENT="" />
    <EXPORT ORDINAL="1062" NAME="?CompareItem@CBCGPFontComboBox@@UAEHPAUtagCOMPAREITEMSTRUCT@@@Z" PURGE="4" COMMENT="" />
    <EXPORT ORDINAL="1063" NAME="?CompareItem@CBCGPIntelliSenseLB@@UAEHPAUtagCOMPAREITEMSTRUCT@@@Z" PURGE="4" COMMENT="" />
    <EXPORT ORDINAL="1064" NAME="?CompareProc@CBCGPListCtrl@@KGHJJJ@Z" PURGE="12" COMMENT="" />
    <EXPORT ORDINAL="1065" NAME="?CompareProc@CBCGPShellTree@@KGHJJJ@Z" PURGE="12" COMMENT="" />
    <EXPORT ORDINAL="1066" NAME="?CompareProps@CBCGPPropList@@MBEHPBVCBCGPProp@@0@Z" PURGE="8" COMMENT="" />
    <EXPORT ORDINAL="1067" NAME="?CompareWith@CBCGPToolbarButton@@UBEHABV1@@Z" PURGE="4" COMMENT="" />
    <EXPORT ORDINAL="1068" NAME="?CompareWith@CBCGPToolbarMenuButton@@UBEHABVCBCGPToolbarButton@@@Z" PURGE="4" COMMENT="" />
    <EXPORT ORDINAL="1069" NAME="?ConcatenateItem@CBCGPShellManager@@QAEPAU_ITEMIDLIST@@PBU2@0@Z" PURGE="8" COMMENT="" />
    <EXPORT ORDINAL="1070" NAME="?ContextToSize@CBCGPCalendarBar@@QAEXXZ" PURGE="0" COMMENT="" />
    <EXPORT ORDINAL="1071" NAME="?ContextToSize@CBCGPColorBar@@QAEXHH@Z" PURGE="8" COMMENT="" />
    <EXPORT ORDINAL="1072" NAME="?ControlBarFromPoint@CBCGPBarContainerManager@@UAEPAVCBCGPDockingControlBar@@VCPoint@@HHAAH1@Z" PURGE="24" COMMENT="" />
    <EXPORT ORDINAL="1073" NAME="?ControlBarFromPoint@CBCGPBaseControlBar@@QBEPAV1@VCPoint@@H_NPAUCRuntimeClass@@@Z" PURGE="20" COMMENT="" />
    <EXPORT ORDINAL="1074" NAME="?ControlBarFromPoint@CBCGPDockBar@@UAEPAVCBCGPControlBar@@VCPoint@@@Z" PURGE="8" COMMENT="" />
    <EXPORT ORDINAL="1075" NAME="?ControlBarFromPoint@CBCGPDockManager@@UBEPAVCBCGPBaseControlBar@@VCPoint@@HAAKPAUCRuntimeClass@@PBV2@@Z" PURGE="24" COMMENT="" />
    <EXPORT ORDINAL="1076" NAME="?ControlBarFromPoint@CBCGPDockManager@@UBEPAVCBCGPBaseControlBar@@VCPoint@@H_NPAUCRuntimeClass@@HPBV2@@Z" PURGE="28" COMMENT="" />
    <EXPORT ORDINAL="1077" NAME="?ControlBarFromPoint@CBCGPFrameWnd@@QBEPAVCBCGPBaseControlBar@@VCPoint@@HAAKPAUCRuntimeClass@@@Z" PURGE="20" COMMENT="" />
    <EXPORT ORDINAL="1078" NAME="?ControlBarFromPoint@CBCGPFrameWnd@@QBEPAVCBCGPBaseControlBar@@VCPoint@@H_NPAUCRuntimeClass@@@Z" PURGE="20" COMMENT="" />
    <EXPORT ORDINAL="1079" NAME="?ControlBarFromPoint@CBCGPMDIChildWnd@@QBEPAVCBCGPBaseControlBar@@VCPoint@@HAAKPAUCRuntimeClass@@@Z" PURGE="20" COMMENT="" />
    <EXPORT ORDINAL="1080" NAME="?ControlBarFromPoint@CBCGPMDIChildWnd@@QBEPAVCBCGPBaseControlBar@@VCPoint@@H_NPAUCRuntimeClass@@@Z" PURGE="20" COMMENT="" />
    <EXPORT ORDINAL="1081" NAME="?ControlBarFromPoint@CBCGPMDIFrameWnd@@QBEPAVCBCGPBaseControlBar@@VCPoint@@HAAKPAUCRuntimeClass@@@Z" PURGE="20" COMMENT="" />
    <EXPORT ORDINAL="1082" NAME="?ControlBarFromPoint@CBCGPMDIFrameWnd@@QBEPAVCBCGPBaseControlBar@@VCPoint@@H_NPAUCRuntimeClass@@@Z" PURGE="20" COMMENT="" />
    <EXPORT ORDINAL="1083" NAME="?ControlBarFromPoint@CBCGPMiniFrameWnd@@UAEPAVCBCGPBaseControlBar@@VCPoint@@HH@Z" PURGE="16" COMMENT="" />
    <EXPORT ORDINAL="1084" NAME="?ControlBarFromPoint@CBCGPMultiMiniFrameWnd@@UAEPAVCBCGPBaseControlBar@@VCPoint@@HH@Z" PURGE="16" COMMENT="" />
    <EXPORT ORDINAL="1085" NAME="?ControlBarFromPoint@CBCGPOleCntrFrameWnd@@QBEPAVCBCGPBaseControlBar@@VCPoint@@HAAKPAUCRuntimeClass@@@Z" PURGE="20" COMMENT="" />
    <EXPORT ORDINAL="1086" NAME="?ControlBarFromPoint@CBCGPOleCntrFrameWnd@@QBEPAVCBCGPBaseControlBar@@VCPoint@@H_NPAUCRuntimeClass@@@Z" PURGE="20" COMMENT="" />
    <EXPORT ORDINAL="1087" NAME="?ControlBarFromPoint@CBCGPOleDocIPFrameWnd@@QBEPAVCBCGPBaseControlBar@@VCPoint@@HAAKPAUCRuntimeClass@@@Z" PURGE="20" COMMENT="" />
    <EXPORT ORDINAL="1088" NAME="?ControlBarFromPoint@CBCGPOleDocIPFrameWnd@@QBEPAVCBCGPBaseControlBar@@VCPoint@@H_NPAUCRuntimeClass@@@Z" PURGE="20" COMMENT="" />
    <EXPORT ORDINAL="1089" NAME="?ControlBarFromPoint@CBCGPOleIPFrameWnd@@QBEPAVCBCGPBaseControlBar@@VCPoint@@HAAKPAUCRuntimeClass@@@Z" PURGE="20" COMMENT="" />
    <EXPORT ORDINAL="1090" NAME="?ControlBarFromPoint@CBCGPOleIPFrameWnd@@QBEPAVCBCGPBaseControlBar@@VCPoint@@H_NPAUCRuntimeClass@@@Z" PURGE="20" COMMENT="" />
    <EXPORT ORDINAL="1091" NAME="?Copy@CBCGPBarContainer@@QAEPAV1@PAV1@@Z" PURGE="4" COMMENT="" />
    <EXPORT ORDINAL="1092" NAME="?Copy@CBCGPEditCtrl@@UAEHXZ" PURGE="0" COMMENT="" />
    <EXPORT ORDINAL="1093" NAME="?Copy@CBCGPEditMarker@@UAEXABV1@@Z" PURGE="-1" COMMENT="" />
    <EXPORT ORDINAL="1094" NAME="?Copy@CBCGPHiliteMarker@@UAEXABV1@@Z" PURGE="4" COMMENT="" />
    <EXPORT ORDINAL="1095" NAME="?Copy@CBCGPLineColorMarker@@UAEXABV1@@Z" PURGE="4" COMMENT="" />
    <EXPORT ORDINAL="1096" NAME="?Copy@CBCGPOutlineBaseNode@@UAEXABV1@@Z" PURGE="4" COMMENT="" />
    <EXPORT ORDINAL="1097" NAME="?CopyButtonsList@CBCGPOutlookBarPane@@IAEXABVCObList@@AAV2@@Z" PURGE="8" COMMENT="" />
    <EXPORT ORDINAL="1098" NAME="?CopyData@CBCGPEditMarker@@UAEXK@Z" PURGE="4" COMMENT="" />
    <EXPORT ORDINAL="1099" NAME="?CopyData@CBCGPOutlineBaseNode@@UAEXK@Z" PURGE="4" COMMENT="" />
    <EXPORT ORDINAL="1100" NAME="?CopyFrom@CBCGPCalendarMenuButton@@MAEXABVCBCGPToolbarButton@@@Z" PURGE="4" COMMENT="" />
    <EXPORT ORDINAL="1101" NAME="?CopyFrom@CBCGPColorMenuButton@@MAEXABVCBCGPToolbarButton@@@Z" PURGE="4" COMMENT="" />
    <EXPORT ORDINAL="1102" NAME="?CopyFrom@CBCGPCustomizeMenuButton@@MAEXABVCBCGPToolbarButton@@@Z" PURGE="4" COMMENT="" />
    <EXPORT ORDINAL="1103" NAME="?CopyFrom@CBCGPDropDownToolbarButton@@UAEXABVCBCGPToolbarButton@@@Z" PURGE="4" COMMENT="" />
    <EXPORT ORDINAL="1104" NAME="?CopyFrom@CBCGPToolbarButton@@UAEXABV1@@Z" PURGE="4" COMMENT="" />
    <EXPORT ORDINAL="1105" NAME="?CopyFrom@CBCGPToolbarComboBoxButton@@UAEXABVCBCGPToolbarButton@@@Z" PURGE="4" COMMENT="" />
    <EXPORT ORDINAL="1106" NAME="?CopyFrom@CBCGPToolbarDateTimeCtrl@@UAEXABVCBCGPToolbarButton@@@Z" PURGE="4" COMMENT="" />
    <EXPORT ORDINAL="1107" NAME="?CopyFrom@CBCGPToolbarEditBoxButton@@UAEXABVCBCGPToolbarButton@@@Z" PURGE="4" COMMENT="" />
    <EXPORT ORDINAL="1108" NAME="?CopyFrom@CBCGPToolbarFontCombo@@MAEXABVCBCGPToolbarButton@@@Z" PURGE="4" COMMENT="" />
    <EXPORT ORDINAL="1109" NAME="?CopyFrom@CBCGPToolbarMenuButton@@UAEXABVCBCGPToolbarButton@@@Z" PURGE="4" COMMENT="" />
    <EXPORT ORDINAL="1110" NAME="?CopyFrom@CBCGPToolbarSpinEditBoxButton@@MAEXABVCBCGPToolbarButton@@@Z" PURGE="4" COMMENT="" />
    <EXPORT ORDINAL="1111" NAME="?CopyIconToClipboard@CBCGPUserTool@@QAEHXZ" PURGE="0" COMMENT="" />
    <EXPORT ORDINAL="1112" NAME="?CopyImageToClipboard@CBCGPToolBarImages@@QAEHH@Z" PURGE="4" COMMENT="" />
    <EXPORT ORDINAL="1113" NAME="?CopyItem@CBCGPShellManager@@QAEPAU_ITEMIDLIST@@PBU2@@Z" PURGE="4" COMMENT="" />
    <EXPORT ORDINAL="1114" NAME="?CopyKeyMap@CBCGPKeyMapDlg@@MAEXXZ" PURGE="0" COMMENT="" />
    <EXPORT ORDINAL="1115" NAME="?CopyState@CBCGPBaseControlBar@@UAEXPAV1@@Z" PURGE="4" COMMENT="" />
    <EXPORT ORDINAL="1116" NAME="?CopyState@CBCGPControlBar@@UAEXPAV1@@Z" PURGE="4" COMMENT="" />
    <EXPORT ORDINAL="1117" NAME="?CopyState@CBCGPDockingControlBar@@UAEXPAV1@@Z" PURGE="4" COMMENT="" />
    <EXPORT ORDINAL="1118" NAME="?CopyTemp@CBCGPToolBarImages@@IAEXAAV1@@Z" PURGE="4" COMMENT="" />
    <EXPORT ORDINAL="1119" NAME="?CopyTextToClipboard@CBCGPEditCtrl@@IAEHPBDH@Z" PURGE="8" COMMENT="" />
    <EXPORT ORDINAL="1120" NAME="?CopyTextToClipboardInternal@CBCGPEditCtrl@@IAEPAXPBDGH@Z" PURGE="12" COMMENT="" />
    <EXPORT ORDINAL="1121" NAME="?CopyTo@CBCGPSmartDockingParams@@QAEXAAV1@@Z" PURGE="4" COMMENT="" />
    <EXPORT ORDINAL="1122" NAME="?CopyTo@CBCGPToolBarImages@@QAEHAAV1@@Z" PURGE="4" COMMENT="" />
    <EXPORT ORDINAL="1123" NAME="?Create@CBCGPAppBarWnd@@QAEHPBDVCRect@@PAVCWnd@@@Z" PURGE="24" COMMENT="" />
    <EXPORT ORDINAL="1124" NAME="?Create@CBCGPAutoHideButton@@UAEHPAVCBCGPAutoHideToolBar@@PAVCBCGPDockingControlBar@@K@Z" PURGE="12" COMMENT="" />
    <EXPORT ORDINAL="1125" NAME="?Create@CBCGPBarContainerManager@@UAEHPAVCWnd@@PAVCBCGPSlider@@PAUCRuntimeClass@@@Z" PURGE="12" COMMENT="" />
    <EXPORT ORDINAL="1126" NAME="?Create@CBCGPCalculator@@UAEHPAVCWnd@@KI@Z" PURGE="12" COMMENT="" />
    <EXPORT ORDINAL="1127" NAME="?Create@CBCGPCalendarBar@@UAEHPAVCWnd@@KIH@Z" PURGE="16" COMMENT="" />
    <EXPORT ORDINAL="1128" NAME="?Create@CBCGPCaptionBar@@QAEHKPAVCWnd@@IH@Z" PURGE="16" COMMENT="" />
    <EXPORT ORDINAL="1129" NAME="?Create@CBCGPColorBar@@UAEHPAVCWnd@@KIPAVCPalette@@HHH@Z" PURGE="28" COMMENT="" />
    <EXPORT ORDINAL="1130" NAME="?Create@CBCGPControlBar@@UAEHPBDKABUtagRECT@@PAVCWnd@@IKPAUCCreateContext@@@Z" PURGE="28" COMMENT="" />
    <EXPORT ORDINAL="1131" NAME="?Create@CBCGPDialogBar@@QAEHPAVCWnd@@III@Z" PURGE="16" COMMENT="" />
    <EXPORT ORDINAL="1132" NAME="?Create@CBCGPDialogBar@@QAEHPAVCWnd@@PBDII@Z" PURGE="16" COMMENT="" />
    <EXPORT ORDINAL="1133" NAME="?Create@CBCGPDialogBar@@QAEHPBDPAVCWnd@@H0IIKK@Z" PURGE="32" COMMENT="" />
    <EXPORT ORDINAL="1134" NAME="?Create@CBCGPDialogBar@@QAEHPBDPAVCWnd@@HIII@Z" PURGE="24" COMMENT="" />
    <EXPORT ORDINAL="1135" NAME="?Create@CBCGPDockBar@@UAEHKABUtagRECT@@PAVCWnd@@KPAUCCreateContext@@@Z" PURGE="20" COMMENT="" />
    <EXPORT ORDINAL="1136" NAME="?Create@CBCGPDockBarRow@@UAEHXZ" PURGE="0" COMMENT="" />
    <EXPORT ORDINAL="1137" NAME="?Create@CBCGPDockManager@@QAEHPAVCFrameWnd@@@Z" PURGE="4" COMMENT="" />
    <EXPORT ORDINAL="1138" NAME="?Create@CBCGPDockingControlBar@@UAEHPBDPAVCWnd@@ABUtagRECT@@HIKKKPAUCCreateContext@@@Z" PURGE="36" COMMENT="" />
    <EXPORT ORDINAL="1139" NAME="?Create@CBCGPDockingControlBar@@UAEHPBDPAVCWnd@@VCSize@@HIKKK@Z" PURGE="36" COMMENT="" />
    <EXPORT ORDINAL="1140" NAME="?Create@CBCGPEditCtrl@@UAEHKABUtagRECT@@PAVCWnd@@IPAUCCreateContext@@@Z" PURGE="20" COMMENT="" />
    <EXPORT ORDINAL="1141" NAME="?Create@CBCGPHotSpotImageCtrl@@UAEHABUtagRECT@@PAVCWnd@@I@Z" PURGE="12" COMMENT="" />
    <EXPORT ORDINAL="1142" NAME="?Create@CBCGPIntelliSenseWnd@@UAEHAAVCObList@@KVCPoint@@PAVCWnd@@PAVCFont@@PAVCImageList@@PAUCRuntimeClass@@@Z" PURGE="32" COMMENT="" />
    <EXPORT ORDINAL="1143" NAME="?Create@CBCGPKeyMapDlg@@UAEHPAVCWnd@@@Z" PURGE="4" COMMENT="" />
    <EXPORT ORDINAL="1144" NAME="?Create@CBCGPMenuBar@@UAEHPAVCWnd@@KI@Z" PURGE="12" COMMENT="" />
    <EXPORT ORDINAL="1145" NAME="?Create@CBCGPMiniFrameWnd@@UAEHPBDKABUtagRECT@@PAVCWnd@@PAUCCreateContext@@@Z" PURGE="20" COMMENT="" />
    <EXPORT ORDINAL="1146" NAME="?Create@CBCGPOutlookBar@@UAEHPBDPAVCWnd@@ABUtagRECT@@IKKPAUCCreateContext@@@Z" PURGE="28" COMMENT="" />
    <EXPORT ORDINAL="1147" NAME="?Create@CBCGPOutlookBarPane@@UAEHPAVCWnd@@KIK@Z" PURGE="16" COMMENT="" />
    <EXPORT ORDINAL="1148" NAME="?Create@CBCGPOutlookWnd@@UAEHABVCRect@@PAVCWnd@@I@Z" PURGE="12" COMMENT="" />
    <EXPORT ORDINAL="1149" NAME="?Create@CBCGPPopupMenu@@UAEHPAVCWnd@@HHPAUHMENU__@@HH@Z" PURGE="24" COMMENT="" />
    <EXPORT ORDINAL="1150" NAME="?Create@CBCGPPropList@@UAEHKABUtagRECT@@PAVCWnd@@I@Z" PURGE="16" COMMENT="" />
    <EXPORT ORDINAL="1151" NAME="?Create@CBCGPReBar@@QAEHPAVCWnd@@KKI@Z" PURGE="16" COMMENT="" />
    <EXPORT ORDINAL="1152" NAME="?Create@CBCGPRegistrySP@@QAEAAVCBCGPRegistry@@HH@Z" PURGE="8" COMMENT="" />
    <EXPORT ORDINAL="1153" NAME="?Create@CBCGPSlider@@UAEHKABUtagRECT@@PAVCWnd@@IPAUCCreateContext@@@Z" PURGE="20" COMMENT="" />
    <EXPORT ORDINAL="1154" NAME="?Create@CBCGPStatusBar@@QAEHPAVCWnd@@KI@Z" PURGE="12" COMMENT="" />
    <EXPORT ORDINAL="1155" NAME="?Create@CBCGPTabWnd@@QAEHW4Style@1@ABUtagRECT@@PAVCWnd@@IW4Location@CBCGPBaseTabWnd@@H@Z" PURGE="24" COMMENT="" />
    <EXPORT ORDINAL="1156" NAME="?Create@CBCGPTabbedToolbar@@UAEHPAVCWnd@@KIK@Z" PURGE="16" COMMENT="" />
    <EXPORT ORDINAL="1157" NAME="?Create@CBCGPToolBar@@UAEHPAVCWnd@@KI@Z" PURGE="12" COMMENT="" />
    <EXPORT ORDINAL="1158" NAME="?Create@CBCGPToolbarCustomize@@UAEHXZ" PURGE="0" COMMENT="" />
    <EXPORT ORDINAL="1159" NAME="?CreateBoldFont@CBCGPPropList@@IAEXXZ" PURGE="0" COMMENT="" />
    <EXPORT ORDINAL="1160" NAME="?CreateCombo@CBCGPProp@@MAEPAVCComboBox@@PAVCWnd@@VCRect@@@Z" PURGE="20" COMMENT="" />
    <EXPORT ORDINAL="1161" NAME="?CreateCombo@CBCGPToolbarComboBoxButton@@UAEPAVCComboBox@@PAVCWnd@@ABVCRect@@@Z" PURGE="8" COMMENT="" />
    <EXPORT ORDINAL="1162" NAME="?CreateCombo@CBCGPToolbarFontCombo@@MAEPAVCComboBox@@PAVCWnd@@ABVCRect@@@Z" PURGE="8" COMMENT="" />
    <EXPORT ORDINAL="1163" NAME="?CreateCombo@CBCGPToolbarFontSizeCombo@@MAEPAVCComboBox@@PAVCWnd@@ABVCRect@@@Z" PURGE="8" COMMENT="" />
    <EXPORT ORDINAL="1164" NAME="?CreateControl@CBCGPCalculator@@UAEHPAVCWnd@@ABVCRect@@I@Z" PURGE="12" COMMENT="" />
    <EXPORT ORDINAL="1165" NAME="?CreateControl@CBCGPCalendarBar@@UAEHPAVCWnd@@ABVCRect@@IHK@Z" PURGE="20" COMMENT="" />
    <EXPORT ORDINAL="1166" NAME="?CreateControl@CBCGPColorBar@@UAEHPAVCWnd@@ABVCRect@@IHPAVCPalette@@@Z" PURGE="20" COMMENT="" />
    <EXPORT ORDINAL="1167" NAME="?CreateCopy@CMenuImages@@KAXAAVCBCGPToolBarImages@@K@Z" PURGE="0" COMMENT="" />
    <EXPORT ORDINAL="1168" NAME="?CreateCustomPage@CBCGPOutlookBar@@QAEPAVCBCGPOutlookBarPane@@PBDHKH@Z" PURGE="16" COMMENT="" />
    <EXPORT ORDINAL="1169" NAME="?CreateDateTimeCtrl@CBCGPToolbarDateTimeCtrl@@UAEPAVCBCGPDateTimeCtrlWin@@PAVCWnd@@ABVCRect@@@Z" PURGE="8" COMMENT="" />
    <EXPORT ORDINAL="1170" NAME="?CreateDefaultMiniframe@CBCGPBaseControlBar@@UAEPAVCBCGPMiniFrameWnd@@VCRect@@@Z" PURGE="16" COMMENT="" />
    <EXPORT ORDINAL="1171" NAME="?CreateDefaultMiniframe@CBCGPControlBar@@UAEPAVCBCGPMiniFrameWnd@@VCRect@@@Z" PURGE="16" COMMENT="" />
    <EXPORT ORDINAL="1172" NAME="?CreateDefaultMiniframe@CBCGPTasksPane@@UAEPAVCBCGPMiniFrameWnd@@VCRect@@@Z" PURGE="16" COMMENT="" />
    <EXPORT ORDINAL="1173" NAME="?CreateDefaultSlider@CBCGPDockingControlBar@@SAPAVCBCGPSlider@@KPAVCWnd@@PAUCRuntimeClass@@@Z" PURGE="0" COMMENT="" />
    <EXPORT ORDINAL="1174" NAME="?CreateDitherBitmap@GLOBAL_DATA@@IAEPAUHBITMAP__@@PAUHDC__@@@Z" PURGE="4" COMMENT="" />
    <EXPORT ORDINAL="1175" NAME="?CreateDockManager@CBCGPOleCntrFrameWnd@@QAEXXZ" PURGE="0" COMMENT="" />
    <EXPORT ORDINAL="1176" NAME="?CreateDocumentWindow@CBCGPMDIFrameWnd@@UAEPAVCBCGPMDIChildWnd@@PBDPAVCObject@@@Z" PURGE="8" COMMENT="" />
    <EXPORT ORDINAL="1177" NAME="?CreateDroppedButton@CBCGPOutlookBarPane@@MAEPAVCBCGPToolbarButton@@PAVCOleDataObject@@@Z" PURGE="4" COMMENT="" />
    <EXPORT ORDINAL="1178" NAME="?CreateDroppedButton@CBCGPPopupMenuBar@@MAEPAVCBCGPToolbarButton@@PAVCOleDataObject@@@Z" PURGE="4" COMMENT="" />
    <EXPORT ORDINAL="1179" NAME="?CreateDroppedButton@CBCGPToolBar@@MAEPAVCBCGPToolbarButton@@PAVCOleDataObject@@@Z" PURGE="4" COMMENT="" />
    <EXPORT ORDINAL="1180" NAME="?CreateEdit@CBCGPEditView@@MAEPAVCBCGPEditCtrl@@XZ" PURGE="0" COMMENT="" />
    <EXPORT ORDINAL="1181" NAME="?CreateEdit@CBCGPToolbarComboBoxButton@@UAEPAVCBCGPComboEdit@@PAVCWnd@@ABVCRect@@K@Z" PURGE="12" COMMENT="" />
    <EXPORT ORDINAL="1182" NAME="?CreateEdit@CBCGPToolbarEditBoxButton@@UAEPAVCEdit@@PAVCWnd@@ABVCRect@@@Z" PURGE="8" COMMENT="" />
    <EXPORT ORDINAL="1183" NAME="?CreateEdit@CBCGPToolbarSpinEditBoxButton@@MAEPAVCEdit@@PAVCWnd@@ABVCRect@@@Z" PURGE="8" COMMENT="" />
    <EXPORT ORDINAL="1184" NAME="?CreateEx@CBCGPBaseControlBar@@UAEHKPBD0KABUtagRECT@@PAVCWnd@@IKPAUCCreateContext@@@Z" PURGE="36" COMMENT="" />
    <EXPORT ORDINAL="1185" NAME="?CreateEx@CBCGPControlBar@@UAEHKPBDKABUtagRECT@@PAVCWnd@@IKPAUCCreateContext@@@Z" PURGE="32" COMMENT="" />
    <EXPORT ORDINAL="1186" NAME="?CreateEx@CBCGPDockBar@@UAEHKKABUtagRECT@@PAVCWnd@@KPAUCCreateContext@@@Z" PURGE="24" COMMENT="" />
    <EXPORT ORDINAL="1187" NAME="?CreateEx@CBCGPDockingControlBar@@UAEHKPBDPAVCWnd@@ABUtagRECT@@HIKKKPAUCCreateContext@@@Z" PURGE="40" COMMENT="" />
    <EXPORT ORDINAL="1188" NAME="?CreateEx@CBCGPMenuBar@@UAEHPAVCWnd@@KKVCRect@@I@Z" PURGE="32" COMMENT="" />
    <EXPORT ORDINAL="1189" NAME="?CreateEx@CBCGPMiniFrameWnd@@UAEHKPBDKABUtagRECT@@PAVCWnd@@PAUCCreateContext@@@Z" PURGE="24" COMMENT="" />
    <EXPORT ORDINAL="1190" NAME="?CreateEx@CBCGPSlider@@UAEHKKABUtagRECT@@PAVCWnd@@IPAUCCreateContext@@@Z" PURGE="24" COMMENT="" />
    <EXPORT ORDINAL="1191" NAME="?CreateEx@CBCGPStatusBar@@QAEHPAVCWnd@@KKI@Z" PURGE="16" COMMENT="" />
    <EXPORT ORDINAL="1192" NAME="?CreateEx@CBCGPToolBar@@UAEHPAVCWnd@@KKVCRect@@I@Z" PURGE="32" COMMENT="" />
    <EXPORT ORDINAL="1193" NAME="?CreateFonts@CBCGPTasksPane@@IAEXXZ" PURGE="0" COMMENT="" />
    <EXPORT ORDINAL="1194" NAME="?CreateFromImageList@CBCGPToolBarImages@@QAEHABVCImageList@@@Z" PURGE="4" COMMENT="" />
    <EXPORT ORDINAL="1195" NAME="?CreateFromMenu@CBCGPMenuBar@@UAEXPAUHMENU__@@HH@Z" PURGE="12" COMMENT="" />
    <EXPORT ORDINAL="1196" NAME="?CreateFromMenu@CBCGPToolbarMenuButton@@UAEXPAUHMENU__@@@Z" PURGE="4" COMMENT="" />
    <EXPORT ORDINAL="1197" NAME="?CreateFromOleData@CBCGPToolbarButton@@SAPAV1@PAVCOleDataObject@@@Z" PURGE="0" COMMENT="" />
    <EXPORT ORDINAL="1198" NAME="?CreateGripperBrush@CBCGPVisualManagerXP@@MAEXXZ" PURGE="0" COMMENT="" />
    <EXPORT ORDINAL="1199" NAME="?CreateHexGreyScaleBar@CBCGPColorPickerCtrl@@IAEXXZ" PURGE="0" COMMENT="" />
    <EXPORT ORDINAL="1200" NAME="?CreateHexagon@CBCGPColorPickerCtrl@@IAEXXZ" PURGE="0" COMMENT="" />
    <EXPORT ORDINAL="1201" NAME="?CreateInPlaceEdit@CBCGPDateTimeProp@@UAEPAVCWnd@@VCRect@@AAH@Z" PURGE="20" COMMENT="" />
    <EXPORT ORDINAL="1202" NAME="?CreateInPlaceEdit@CBCGPProp@@UAEPAVCWnd@@VCRect@@AAH@Z" PURGE="20" COMMENT="" />
    <EXPORT ORDINAL="1203" NAME="?CreateItem@CBCGPShellManager@@QAEPAU_ITEMIDLIST@@I@Z" PURGE="4" COMMENT="" />
    <EXPORT ORDINAL="1204" NAME="?CreateKey@CBCGPRegistry@@UAEHPBD@Z" PURGE="4" COMMENT="" />
    <EXPORT ORDINAL="1205" NAME="?CreateMask@CBCGPToolBarImages@@IAEXHHH@Z" PURGE="12" COMMENT="" />
    <EXPORT ORDINAL="1206" NAME="?CreateMenu@CBCGPTasksPane@@QBEPAUHMENU__@@XZ" PURGE="0" COMMENT="" />
    <EXPORT ORDINAL="1207" NAME="?CreateMenu@CBCGPToolbarMenuButton@@UBEPAUHMENU__@@XZ" PURGE="0" COMMENT="" />
    <EXPORT ORDINAL="1208" NAME="?CreateNavigationToolbar@CBCGPTasksPane@@IAEHXZ" PURGE="0" COMMENT="" />
    <EXPORT ORDINAL="1209" NAME="?CreateNewItem@CBCGPEditListBase@@MAEXXZ" PURGE="0" COMMENT="" />
    <EXPORT ORDINAL="1210" NAME="?CreateNewTabGroup@CBCGPMainClientAreaWnd@@AAEPAVCBCGPTabWnd@@PAV2@VCRect@@H@Z" PURGE="24" COMMENT="" />
    <EXPORT ORDINAL="1211" NAME="?CreateNewTool@CBCGPUserToolsManager@@QAEPAVCBCGPUserTool@@XZ" PURGE="0" COMMENT="" />
    <EXPORT ORDINAL="1212" NAME="?CreateNewToolBar@CBCGPFrameImpl@@IAEPBVCBCGPToolBar@@PBD@Z" PURGE="4" COMMENT="" />
    <EXPORT ORDINAL="1213" NAME="?CreateObject@CBCGPAppBarWnd@@SGPAVCObject@@XZ" PURGE="0" COMMENT="" />
    <EXPORT ORDINAL="1214" NAME="?CreateObject@CBCGPAutoHideButton@@SGPAVCObject@@XZ" PURGE="0" COMMENT="" />
    <EXPORT ORDINAL="1215" NAME="?CreateObject@CBCGPAutoHideDockBar@@SGPAVCObject@@XZ" PURGE="0" COMMENT="" />
    <EXPORT ORDINAL="1216" NAME="?CreateObject@CBCGPAutoHideToolBar@@SGPAVCObject@@XZ" PURGE="0" COMMENT="" />
    <EXPORT ORDINAL="1217" NAME="?CreateObject@CBCGPBarContainerManager@@SGPAVCObject@@XZ" PURGE="0" COMMENT="" />
    <EXPORT ORDINAL="1218" NAME="?CreateObject@CBCGPBaseIntelliSenseLB@@SGPAVCObject@@XZ" PURGE="0" COMMENT="" />
    <EXPORT ORDINAL="1219" NAME="?CreateObject@CBCGPBaseToolBar@@SGPAVCObject@@XZ" PURGE="0" COMMENT="" />
    <EXPORT ORDINAL="1220" NAME="?CreateObject@CBCGPButton@@SGPAVCObject@@XZ" PURGE="0" COMMENT="" />
    <EXPORT ORDINAL="1221" NAME="?CreateObject@CBCGPCalculator@@SGPAVCObject@@XZ" PURGE="0" COMMENT="" />
    <EXPORT ORDINAL="1222" NAME="?CreateObject@CBCGPCalendarBar@@SGPAVCObject@@XZ" PURGE="0" COMMENT="" />
    <EXPORT ORDINAL="1223" NAME="?CreateObject@CBCGPCalendarButton@@SGPAVCObject@@XZ" PURGE="0" COMMENT="" />
    <EXPORT ORDINAL="1224" NAME="?CreateObject@CBCGPCalendarMenuButton@@SGPAVCObject@@XZ" PURGE="0" COMMENT="" />
    <EXPORT ORDINAL="1225" NAME="?CreateObject@CBCGPCaptionBar@@SGPAVCObject@@XZ" PURGE="0" COMMENT="" />
    <EXPORT ORDINAL="1226" NAME="?CreateObject@CBCGPColorBar@@SGPAVCObject@@XZ" PURGE="0" COMMENT="" />
    <EXPORT ORDINAL="1227" NAME="?CreateObject@CBCGPColorMenuButton@@SGPAVCObject@@XZ" PURGE="0" COMMENT="" />
    <EXPORT ORDINAL="1228" NAME="?CreateObject@CBCGPControlBar@@SGPAVCObject@@XZ" PURGE="0" COMMENT="" />
    <EXPORT ORDINAL="1229" NAME="?CreateObject@CBCGPCustomizeMenuButton@@SGPAVCObject@@XZ" PURGE="0" COMMENT="" />
    <EXPORT ORDINAL="1230" NAME="?CreateObject@CBCGPDialogBar@@SGPAVCObject@@XZ" PURGE="0" COMMENT="" />
    <EXPORT ORDINAL="1231" NAME="?CreateObject@CBCGPDockBar@@SGPAVCObject@@XZ" PURGE="0" COMMENT="" />
    <EXPORT ORDINAL="1232" NAME="?CreateObject@CBCGPDockingCBWrapper@@SGPAVCObject@@XZ" PURGE="0" COMMENT="" />
    <EXPORT ORDINAL="1233" NAME="?CreateObject@CBCGPDockingControlBar@@SGPAVCObject@@XZ" PURGE="0" COMMENT="" />
    <EXPORT ORDINAL="1234" NAME="?CreateObject@CBCGPDropDownToolBar@@SGPAVCObject@@XZ" PURGE="0" COMMENT="" />
    <EXPORT ORDINAL="1235" NAME="?CreateObject@CBCGPDropDownToolbarButton@@SGPAVCObject@@XZ" PURGE="0" COMMENT="" />
    <EXPORT ORDINAL="1236" NAME="?CreateObject@CBCGPEditView@@SGPAVCObject@@XZ" PURGE="0" COMMENT="" />
    <EXPORT ORDINAL="1237" NAME="?CreateObject@CBCGPFrameWnd@@SGPAVCObject@@XZ" PURGE="0" COMMENT="" />
    <EXPORT ORDINAL="1238" NAME="?CreateObject@CBCGPHotSpot@@SGPAVCObject@@XZ" PURGE="0" COMMENT="" />
    <EXPORT ORDINAL="1239" NAME="?CreateObject@CBCGPIntelliSenseLB@@SGPAVCObject@@XZ" PURGE="0" COMMENT="" />
    <EXPORT ORDINAL="1240" NAME="?CreateObject@CBCGPIntelliSenseWnd@@SGPAVCObject@@XZ" PURGE="0" COMMENT="" />
    <EXPORT ORDINAL="1241" NAME="?CreateObject@CBCGPMDIChildWnd@@SGPAVCObject@@XZ" PURGE="0" COMMENT="" />
    <EXPORT ORDINAL="1242" NAME="?CreateObject@CBCGPMDIFrameWnd@@SGPAVCObject@@XZ" PURGE="0" COMMENT="" />
    <EXPORT ORDINAL="1243" NAME="?CreateObject@CBCGPMenuBar@@SGPAVCObject@@XZ" PURGE="0" COMMENT="" />
    <EXPORT ORDINAL="1244" NAME="?CreateObject@CBCGPMiniFrameWnd@@SGPAVCObject@@XZ" PURGE="0" COMMENT="" />
    <EXPORT ORDINAL="1245" NAME="?CreateObject@CBCGPMouseManager@@SGPAVCObject@@XZ" PURGE="0" COMMENT="" />
    <EXPORT ORDINAL="1246" NAME="?CreateObject@CBCGPMultiMiniFrameWnd@@SGPAVCObject@@XZ" PURGE="0" COMMENT="" />
    <EXPORT ORDINAL="1247" NAME="?CreateObject@CBCGPOleDocIPFrameWnd@@SGPAVCObject@@XZ" PURGE="0" COMMENT="" />
    <EXPORT ORDINAL="1248" NAME="?CreateObject@CBCGPOleIPFrameWnd@@SGPAVCObject@@XZ" PURGE="0" COMMENT="" />
    <EXPORT ORDINAL="1249" NAME="?CreateObject@CBCGPOleServerDoc@@SGPAVCObject@@XZ" PURGE="0" COMMENT="" />
    <EXPORT ORDINAL="1250" NAME="?CreateObject@CBCGPOutlineBaseNode@@SGPAVCObject@@XZ" PURGE="0" COMMENT="" />
    <EXPORT ORDINAL="1251" NAME="?CreateObject@CBCGPOutlineNode@@SGPAVCObject@@XZ" PURGE="0" COMMENT="" />
    <EXPORT ORDINAL="1252" NAME="?CreateObject@CBCGPOutlookBar@@SGPAVCObject@@XZ" PURGE="0" COMMENT="" />
    <EXPORT ORDINAL="1253" NAME="?CreateObject@CBCGPOutlookBarDockingPane@@SGPAVCObject@@XZ" PURGE="0" COMMENT="" />
    <EXPORT ORDINAL="1254" NAME="?CreateObject@CBCGPOutlookBarPane@@SGPAVCObject@@XZ" PURGE="0" COMMENT="" />
    <EXPORT ORDINAL="1255" NAME="?CreateObject@CBCGPOutlookButton@@SGPAVCObject@@XZ" PURGE="0" COMMENT="" />
    <EXPORT ORDINAL="1256" NAME="?CreateObject@CBCGPOutlookWnd@@SGPAVCObject@@XZ" PURGE="0" COMMENT="" />
    <EXPORT ORDINAL="1257" NAME="?CreateObject@CBCGPPopupMenu@@SGPAVCObject@@XZ" PURGE="0" COMMENT="" />
    <EXPORT ORDINAL="1258" NAME="?CreateObject@CBCGPPopupMenuBar@@SGPAVCObject@@XZ" PURGE="0" COMMENT="" />
    <EXPORT ORDINAL="1259" NAME="?CreateObject@CBCGPPrintPreviewView@@SGPAVCObject@@XZ" PURGE="0" COMMENT="" />
    <EXPORT ORDINAL="1260" NAME="?CreateObject@CBCGPPropertyPage@@SGPAVCObject@@XZ" PURGE="0" COMMENT="" />
    <EXPORT ORDINAL="1261" NAME="?CreateObject@CBCGPRegistry@@SGPAVCObject@@XZ" PURGE="0" COMMENT="" />
    <EXPORT ORDINAL="1262" NAME="?CreateObject@CBCGPSlider@@SGPAVCObject@@XZ" PURGE="0" COMMENT="" />
    <EXPORT ORDINAL="1263" NAME="?CreateObject@CBCGPSymImagesLB@@SGPAVCObject@@XZ" PURGE="0" COMMENT="" />
    <EXPORT ORDINAL="1264" NAME="?CreateObject@CBCGPTabView@@SGPAVCObject@@XZ" PURGE="0" COMMENT="" />
    <EXPORT ORDINAL="1265" NAME="?CreateObject@CBCGPTabWnd@@SGPAVCObject@@XZ" PURGE="0" COMMENT="" />
    <EXPORT ORDINAL="1266" NAME="?CreateObject@CBCGPTabbedControlBar@@SGPAVCObject@@XZ" PURGE="0" COMMENT="" />
    <EXPORT ORDINAL="1267" NAME="?CreateObject@CBCGPTabbedToolbar@@SGPAVCObject@@XZ" PURGE="0" COMMENT="" />
    <EXPORT ORDINAL="1268" NAME="?CreateObject@CBCGPTaskPaneMiniFrameWnd@@SGPAVCObject@@XZ" PURGE="0" COMMENT="" />
    <EXPORT ORDINAL="1269" NAME="?CreateObject@CBCGPTasksPane@@SGPAVCObject@@XZ" PURGE="0" COMMENT="" />
    <EXPORT ORDINAL="1270" NAME="?CreateObject@CBCGPToolBar@@SGPAVCObject@@XZ" PURGE="0" COMMENT="" />
    <EXPORT ORDINAL="1271" NAME="?CreateObject@CBCGPToolBox@@SGPAVCObject@@XZ" PURGE="0" COMMENT="" />
    <EXPORT ORDINAL="1272" NAME="?CreateObject@CBCGPToolBoxButton@@SGPAVCObject@@XZ" PURGE="0" COMMENT="" />
    <EXPORT ORDINAL="1273" NAME="?CreateObject@CBCGPToolBoxEx@@SGPAVCObject@@XZ" PURGE="0" COMMENT="" />
    <EXPORT ORDINAL="1274" NAME="?CreateObject@CBCGPToolBoxPage@@SGPAVCObject@@XZ" PURGE="0" COMMENT="" />
    <EXPORT ORDINAL="1275" NAME="?CreateObject@CBCGPToolbarButton@@SGPAVCObject@@XZ" PURGE="0" COMMENT="" />
    <EXPORT ORDINAL="1276" NAME="?CreateObject@CBCGPToolbarComboBoxButton@@SGPAVCObject@@XZ" PURGE="0" COMMENT="" />
    <EXPORT ORDINAL="1277" NAME="?CreateObject@CBCGPToolbarDateTimeCtrl@@SGPAVCObject@@XZ" PURGE="0" COMMENT="" />
    <EXPORT ORDINAL="1278" NAME="?CreateObject@CBCGPToolbarEditBoxButton@@SGPAVCObject@@XZ" PURGE="0" COMMENT="" />
    <EXPORT ORDINAL="1279" NAME="?CreateObject@CBCGPToolbarFontCombo@@SGPAVCObject@@XZ" PURGE="0" COMMENT="" />
    <EXPORT ORDINAL="1280" NAME="?CreateObject@CBCGPToolbarFontSizeCombo@@SGPAVCObject@@XZ" PURGE="0" COMMENT="" />
    <EXPORT ORDINAL="1281" NAME="?CreateObject@CBCGPToolbarMenuButton@@SGPAVCObject@@XZ" PURGE="0" COMMENT="" />
    <EXPORT ORDINAL="1282" NAME="?CreateObject@CBCGPToolbarSpinEditBoxButton@@SGPAVCObject@@XZ" PURGE="0" COMMENT="" />
    <EXPORT ORDINAL="1283" NAME="?CreateObject@CBCGPUserTool@@SGPAVCObject@@XZ" PURGE="0" COMMENT="" />
    <EXPORT ORDINAL="1284" NAME="?CreateObject@CBCGPVisualManager2003@@SGPAVCObject@@XZ" PURGE="0" COMMENT="" />
    <EXPORT ORDINAL="1285" NAME="?CreateObject@CBCGPVisualManager@@SGPAVCObject@@XZ" PURGE="0" COMMENT="" />
    <EXPORT ORDINAL="1286" NAME="?CreateObject@CBCGPVisualManagerVS2005@@SGPAVCObject@@XZ" PURGE="0" COMMENT="" />
    <EXPORT ORDINAL="1287" NAME="?CreateObject@CBCGPVisualManagerXP@@SGPAVCObject@@XZ" PURGE="0" COMMENT="" />
    <EXPORT ORDINAL="1288" NAME="?CreateObject@CBCGPWinXPVisualManager@@SGPAVCObject@@XZ" PURGE="0" COMMENT="" />
    <EXPORT ORDINAL="1289" NAME="?CreateOutlineParser@CBCGPEditCtrl@@UBEPAVCBCGPOutlineParser@@XZ" PURGE="0" COMMENT="" />
    <EXPORT ORDINAL="1290" NAME="?CreatePalette@CBCGPColorBar@@KAHABV?$CArray@KK@@AAVCPalette@@@Z" PURGE="0" COMMENT="" />
    <EXPORT ORDINAL="1291" NAME="?CreatePopupMenu@CBCGPCalendarMenuButton@@MAEPAVCBCGPPopupMenu@@XZ" PURGE="0" COMMENT="" />
    <EXPORT ORDINAL="1292" NAME="?CreatePopupMenu@CBCGPColorMenuButton@@MAEPAVCBCGPPopupMenu@@XZ" PURGE="0" COMMENT="" />
    <EXPORT ORDINAL="1293" NAME="?CreatePopupMenu@CBCGPToolbarMenuButton@@UAEPAVCBCGPPopupMenu@@XZ" PURGE="0" COMMENT="" />
    <EXPORT ORDINAL="1294" NAME="?CreateRect@CBCGPHotSpot@@QAEXVCRect@@@Z" PURGE="16" COMMENT="" />
    <EXPORT ORDINAL="1295" NAME="?CreateRegionFromImage@CBCGPToolBarImages@@SAPAUHRGN__@@PAUHBITMAP__@@K@Z" PURGE="0" COMMENT="" />
    <EXPORT ORDINAL="1296" NAME="?CreateRow@CBCGPDockBar@@UAEPAVCBCGPDockBarRow@@PAV1@HH@Z" PURGE="12" COMMENT="" />
    <EXPORT ORDINAL="1297" NAME="?CreateSlider@CBCGPBarContainerManager@@IAEPAVCBCGPSlider@@VCRect@@KH@Z" PURGE="24" COMMENT="" />
    <EXPORT ORDINAL="1298" NAME="?CreateSpinControl@CBCGPProp@@UAEPAVCSpinButtonCtrl@@VCRect@@@Z" PURGE="16" COMMENT="" />
    <EXPORT ORDINAL="1299" NAME="?CreateTabGroup@CBCGPMainClientAreaWnd@@UAEPAVCBCGPTabWnd@@PAV2@@Z" PURGE="4" COMMENT="" />
    <EXPORT ORDINAL="1300" NAME="?CreateTabbedControlBar@CBCGPDockingControlBar@@UAEPAVCBCGPTabbedControlBar@@XZ" PURGE="0" COMMENT="" />
    <EXPORT ORDINAL="1301" NAME="?CreateTearOffBar@CBCGPPopupMenu@@MAEPAVCBCGPControlBar@@PAVCFrameWnd@@IPBD@Z" PURGE="12" COMMENT="" />
    <EXPORT ORDINAL="1302" NAME="?CreateTearOffBar@CColorPopup@@UAEPAVCBCGPControlBar@@PAVCFrameWnd@@IPBD@Z" PURGE="12" COMMENT="" />
    <EXPORT ORDINAL="1303" NAME="?CreateVisualManager@CBCGPVisualManager@@KAPAV1@PAUCRuntimeClass@@@Z" PURGE="0" COMMENT="" />
    <EXPORT ORDINAL="1304" NAME="?CreateWrapper@CBCGPBaseTabWnd@@MAEPAVCWnd@@PAV2@PBDH@Z" PURGE="12" COMMENT="" />
    <EXPORT ORDINAL="1305" NAME="?Cut@CBCGPEditCtrl@@UAEHXZ" PURGE="0" COMMENT="" />
    <EXPORT ORDINAL="1306" NAME="?DRTN_DAYS@CBCGPDurationCtrl@@2IB" PURGE="-1" COMMENT="" />
    <EXPORT ORDINAL="1307" NAME="?DRTN_HOURS_MINS@CBCGPDurationCtrl@@2IB" PURGE="-1" COMMENT="" />
    <EXPORT ORDINAL="1308" NAME="?DRTN_SECONDS@CBCGPDurationCtrl@@2IB" PURGE="-1" COMMENT="" />
    <EXPORT ORDINAL="1309" NAME="?DRTN_SPIN@CBCGPDurationCtrl@@2IB" PURGE="-1" COMMENT="" />
    <EXPORT ORDINAL="1310" NAME="?DTM_CHECKBOX@CBCGPDateTimeCtrl@@2IB" PURGE="-1" COMMENT="" />
    <EXPORT ORDINAL="1311" NAME="?DTM_CHECKED@CBCGPDateTimeCtrl@@2IB" PURGE="-1" COMMENT="" />
    <EXPORT ORDINAL="1312" NAME="?DTM_DATE@CBCGPDateTimeCtrl@@2IB" PURGE="-1" COMMENT="" />
    <EXPORT ORDINAL="1313" NAME="?DTM_DROPCALENDAR@CBCGPDateTimeCtrl@@2IB" PURGE="-1" COMMENT="" />
    <EXPORT ORDINAL="1314" NAME="?DTM_SPIN@CBCGPDateTimeCtrl@@2IB" PURGE="-1" COMMENT="" />
    <EXPORT ORDINAL="1315" NAME="?DTM_TIME24H@CBCGPDateTimeCtrl@@2IB" PURGE="-1" COMMENT="" />
    <EXPORT ORDINAL="1316" NAME="?DTM_TIME24HBYLOCALE@CBCGPDateTimeCtrl@@2IB" PURGE="-1" COMMENT="" />
    <EXPORT ORDINAL="1317" NAME="?DTM_TIME@CBCGPDateTimeCtrl@@2IB" PURGE="-1" COMMENT="" />
    <EXPORT ORDINAL="1318" NAME="?Deactivate@CBCGPToolBar@@UAEXXZ" PURGE="-1" COMMENT="" />
    <EXPORT ORDINAL="1319" NAME="?DeactivateMenu@CBCGPFrameImpl@@IAEXXZ" PURGE="0" COMMENT="" />
    <EXPORT ORDINAL="1320" NAME="?DelayUpdateFrameMenu@CBCGPFrameWnd@@UAEXPAUHMENU__@@@Z" PURGE="4" COMMENT="" />
    <EXPORT ORDINAL="1321" NAME="?DeleteAllBlocks@CBCGPOutlineNode@@QAEXXZ" PURGE="0" COMMENT="" />
    <EXPORT ORDINAL="1322" NAME="?DeleteAllMarkers@CBCGPEditCtrl@@QAEXKH@Z" PURGE="8" COMMENT="" />
    <EXPORT ORDINAL="1323" NAME="?DeleteBlocksInRange@CBCGPOutlineNode@@QAEHHHAAUBCGP_EDIT_OUTLINE_CHANGES@@@Z" PURGE="12" COMMENT="" />
    <EXPORT ORDINAL="1324" NAME="?DeleteControlBar@CBCGPBarContainer@@UAEXPAVCBCGPDockingControlBar@@W4BC_FIND_CRITERIA@1@@Z" PURGE="8" COMMENT="" />
    <EXPORT ORDINAL="1325" NAME="?DeleteIcon@CBCGPUserTool@@MAEXXZ" PURGE="0" COMMENT="" />
    <EXPORT ORDINAL="1326" NAME="?DeleteImage@CBCGPToolBarImages@@QAEHH@Z" PURGE="4" COMMENT="" />
    <EXPORT ORDINAL="1327" NAME="?DeleteInnermostBlock@CBCGPOutlineNode@@QAEHHAAUBCGP_EDIT_OUTLINE_CHANGES@@@Z" PURGE="8" COMMENT="" />
    <EXPORT ORDINAL="1328" NAME="?DeleteItem@CBCGPBaseIntelliSenseLB@@UAEXPAUtagDELETEITEMSTRUCT@@@Z" PURGE="4" COMMENT="" />
    <EXPORT ORDINAL="1329" NAME="?DeleteItem@CBCGPIntelliSenseWnd@@IAEJIJ@Z" PURGE="8" COMMENT="" />
    <EXPORT ORDINAL="1330" NAME="?DeleteItem@CBCGPToolbarComboBoxButton@@QAEHH@Z" PURGE="4" COMMENT="" />
    <EXPORT ORDINAL="1331" NAME="?DeleteItem@CBCGPToolbarComboBoxButton@@QAEHK@Z" PURGE="4" COMMENT="" />
    <EXPORT ORDINAL="1332" NAME="?DeleteItem@CBCGPToolbarComboBoxButton@@QAEHPBD@Z" PURGE="4" COMMENT="" />
    <EXPORT ORDINAL="1333" NAME="?DeleteKey@CBCGPRegistry@@UAEHPBDH@Z" PURGE="8" COMMENT="" />
    <EXPORT ORDINAL="1334" NAME="?DeleteMarker@CBCGPEditCtrl@@QAEHHKH@Z" PURGE="12" COMMENT="" />
    <EXPORT ORDINAL="1335" NAME="?DeleteMarker@CBCGPEditCtrl@@QAEXPAU__POSITION@@@Z" PURGE="4" COMMENT="" />
    <EXPORT ORDINAL="1336" NAME="?DeleteMarkersInRangeByOffset@CBCGPEditCtrl@@QAEHHHKH@Z" PURGE="16" COMMENT="" />
    <EXPORT ORDINAL="1337" NAME="?DeleteSelectedText@CBCGPEditCtrl@@QAEHHHH@Z" PURGE="12" COMMENT="" />
    <EXPORT ORDINAL="1338" NAME="?DeleteText@CBCGPEditCtrl@@QAEHHHH@Z" PURGE="12" COMMENT="" />
    <EXPORT ORDINAL="1339" NAME="?DeleteToolBar@CBCGPFrameImpl@@IAEHPAVCBCGPToolBar@@@Z" PURGE="4" COMMENT="" />
    <EXPORT ORDINAL="1340" NAME="?DeleteValue@CBCGPRegistry@@UAEHPBD@Z" PURGE="4" COMMENT="" />
    <EXPORT ORDINAL="1341" NAME="?DestroyData@CBCGPEditMarker@@UAEXXZ" PURGE="0" COMMENT="" />
    <EXPORT ORDINAL="1342" NAME="?DestroyData@CBCGPOutlineBaseNode@@UAEXXZ" PURGE="0" COMMENT="" />
    <EXPORT ORDINAL="1343" NAME="?DestroyInstance@CBCGPVisualManager@@KAXXZ" PURGE="0" COMMENT="" />
    <EXPORT ORDINAL="1344" NAME="?DestroyRecentMenu@CBCGPFrameImpl@@IAEHXZ" PURGE="0" COMMENT="" />
    <EXPORT ORDINAL="1345" NAME="?DetachControlBar@CBCGPBaseTabbedBar@@UAEHPAVCWnd@@H@Z" PURGE="8" COMMENT="" />
    <EXPORT ORDINAL="1346" NAME="?DetachControlBar@CBCGPTabbedControlBar@@UAEHPAVCWnd@@H@Z" PURGE="8" COMMENT="" />
    <EXPORT ORDINAL="1347" NAME="?DetachTab@CBCGPBaseTabWnd@@UAEHW4BCGP_DOCK_METHOD@@HH@Z" PURGE="12" COMMENT="" />
    <EXPORT ORDINAL="1348" NAME="?DetermineControlBarAndStatus@CBCGPDockManager@@UAE?AW4BCGP_CS_STATUS@@VCPoint@@HKPAPAVCBCGPBaseControlBar@@PBV4@2@Z" PURGE="28" COMMENT="" />
    <EXPORT ORDINAL="1349" NAME="?DisableMask@CBCGPMaskEdit@@QAEXXZ" PURGE="-1" COMMENT="" />
    <EXPORT ORDINAL="1350" NAME="?DisableRestoreDockState@CBCGPDockManager@@QAEXH@Z" PURGE="4" COMMENT="" />
    <EXPORT ORDINAL="1351" NAME="?DisplayFolder@CBCGPShellList@@UAEJPAU_BCGCBITEMINFO@@@Z" PURGE="4" COMMENT="" />
    <EXPORT ORDINAL="1352" NAME="?DisplayFolder@CBCGPShellList@@UAEJPBD@Z" PURGE="4" COMMENT="" />
    <EXPORT ORDINAL="1353" NAME="?DisplayParentFolder@CBCGPShellList@@UAEJXZ" PURGE="0" COMMENT="" />
    <EXPORT ORDINAL="1354" NAME="?DoDataExchange@CBCGPColorDialog@@MAEXPAVCDataExchange@@@Z" PURGE="4" COMMENT="" />
    <EXPORT ORDINAL="1355" NAME="?DoDataExchange@CBCGPImageEditDlg@@MAEXPAVCDataExchange@@@Z" PURGE="4" COMMENT="" />
    <EXPORT ORDINAL="1356" NAME="?DoDataExchange@CBCGPKeyMapDlg@@MAEXPAVCDataExchange@@@Z" PURGE="4" COMMENT="" />
    <EXPORT ORDINAL="1357" NAME="?DoDataExchange@CBCGPWindowsManagerDlg@@MAEXPAVCDataExchange@@@Z" PURGE="4" COMMENT="" />
    <EXPORT ORDINAL="1358" NAME="?DoDefault@CBCGPShellList@@MAEXH@Z" PURGE="4" COMMENT="" />
    <EXPORT ORDINAL="1359" NAME="?DoFindText@CBCGPEditCtrl@@IAEHAAH0PBDHHH@Z" PURGE="24" COMMENT="" />
    <EXPORT ORDINAL="1360" NAME="?DoModal@CBCGPDialog@@UAEHXZ" PURGE="0" COMMENT="" />
    <EXPORT ORDINAL="1361" NAME="?DoModal@CBCGPKeyMapDlg@@UAEHXZ" PURGE="0" COMMENT="" />
    <EXPORT ORDINAL="1362" NAME="?DoPaint@CBCGPAutoHideToolBar@@MAEXPAVCDC@@@Z" PURGE="4" COMMENT="" />
    <EXPORT ORDINAL="1363" NAME="?DoPaint@CBCGPBaseControlBar@@MAEXPAVCDC@@@Z" PURGE="4" COMMENT="" />
    <EXPORT ORDINAL="1364" NAME="?DoPaint@CBCGPColorBar@@MAEXPAVCDC@@@Z" PURGE="4" COMMENT="" />
    <EXPORT ORDINAL="1365" NAME="?DoPaint@CBCGPOutlookBarPane@@MAEXPAVCDC@@@Z" PURGE="4" COMMENT="" />
    <EXPORT ORDINAL="1366" NAME="?DoPaint@CBCGPPopupMenu@@IAEXPAVCDC@@@Z" PURGE="4" COMMENT="" />
    <EXPORT ORDINAL="1367" NAME="?DoPaint@CBCGPStatusBar@@MAEXPAVCDC@@@Z" PURGE="4" COMMENT="" />
    <EXPORT ORDINAL="1368" NAME="?DoPaint@CBCGPToolBar@@MAEXPAVCDC@@@Z" PURGE="4" COMMENT="" />
    <EXPORT ORDINAL="1369" NAME="?DoParse@CBCGPOutlineParser@@MAEXABV?$CStringT@DV?$StrTraitMFC_DLL@DV?$ChTraitsCRT@D@ATL@@@@@ATL@@HHAAVCObList@@@Z" PURGE="16" COMMENT="" />
    <EXPORT ORDINAL="1370" NAME="?DoQueryPos@CBCGPAppBarWnd@@IAEXAAVCRect@@@Z" PURGE="4" COMMENT="" />
    <EXPORT ORDINAL="1371" NAME="?DoSetAutoHide@CBCGPAppBarWnd@@IAEHHHH@Z" PURGE="12" COMMENT="" />
    <EXPORT ORDINAL="1372" NAME="?DoSetPos@CBCGPAppBarWnd@@IAEXIAAVCRect@@HH@Z" PURGE="16" COMMENT="" />
    <EXPORT ORDINAL="1373" NAME="?DoSetSide@CBCGPAppBarWnd@@IAEHIHH@Z" PURGE="12" COMMENT="" />
    <EXPORT ORDINAL="1374" NAME="?DoUpdateOffsets@CBCGPOutlineParser@@MAEXABV?$CStringT@DV?$StrTraitMFC_DLL@DV?$ChTraitsCRT@D@ATL@@@@@ATL@@HHAAVCObList@@@Z" PURGE="16" COMMENT="" />
    <EXPORT ORDINAL="1375" NAME="?Dock@CBCGPBaseTabbedBar@@MAEHPAVCBCGPBaseControlBar@@PBUtagRECT@@W4BCGP_DOCK_METHOD@@@Z" PURGE="12" COMMENT="" />
    <EXPORT ORDINAL="1376" NAME="?Dock@CBCGPControlBar@@MAEHPAVCBCGPBaseControlBar@@PBUtagRECT@@W4BCGP_DOCK_METHOD@@@Z" PURGE="12" COMMENT="" />
    <EXPORT ORDINAL="1377" NAME="?Dock@CBCGPDockingControlBar@@MAEHPAVCBCGPBaseControlBar@@PBUtagRECT@@W4BCGP_DOCK_METHOD@@@Z" PURGE="12" COMMENT="" />
    <EXPORT ORDINAL="1378" NAME="?Dock@CBCGPOutlookBarPane@@UAEHPAVCBCGPBaseControlBar@@PBUtagRECT@@W4BCGP_DOCK_METHOD@@@Z" PURGE="12" COMMENT="" />
    <EXPORT ORDINAL="1379" NAME="?DockBar@CBCGPMultiMiniFrameWnd@@UAEHPAVCBCGPDockingControlBar@@@Z" PURGE="4" COMMENT="" />
    <EXPORT ORDINAL="1380" NAME="?DockByMouse@CBCGPControlBar@@UAEHPAVCBCGPBaseControlBar@@@Z" PURGE="4" COMMENT="" />
    <EXPORT ORDINAL="1381" NAME="?DockContainer@CBCGPDockingControlBar@@UAEHAAVCBCGPBarContainerManager@@KW4BCGP_DOCK_METHOD@@@Z" PURGE="12" COMMENT="" />
    <EXPORT ORDINAL="1382" NAME="?DockControlBar@CBCGPAutoHideDockBar@@UAEXPAVCBCGPControlBar@@W4BCGP_DOCK_METHOD@@PBUtagRECT@@@Z" PURGE="12" COMMENT="" />
    <EXPORT ORDINAL="1383" NAME="?DockControlBar@CBCGPBaseControlBar@@UAEHPAV1@PBUtagRECT@@W4BCGP_DOCK_METHOD@@@Z" PURGE="12" COMMENT="" />
    <EXPORT ORDINAL="1384" NAME="?DockControlBar@CBCGPControlBar@@UAEHPAVCBCGPBaseControlBar@@PBUtagRECT@@W4BCGP_DOCK_METHOD@@@Z" PURGE="12" COMMENT="" />
    <EXPORT ORDINAL="1385" NAME="?DockControlBar@CBCGPDockBar@@UAEXPAVCBCGPControlBar@@W4BCGP_DOCK_METHOD@@PBUtagRECT@@@Z" PURGE="12" COMMENT="" />
    <EXPORT ORDINAL="1386" NAME="?DockControlBar@CBCGPDockManager@@QAEXPAVCBCGPBaseControlBar@@IPBUtagRECT@@@Z" PURGE="12" COMMENT="" />
    <EXPORT ORDINAL="1387" NAME="?DockControlBar@CBCGPFrameWnd@@QAEXPAVCBCGPBaseControlBar@@IPBUtagRECT@@@Z" PURGE="12" COMMENT="" />
    <EXPORT ORDINAL="1388" NAME="?DockControlBar@CBCGPMDIChildWnd@@QAEXPAVCBCGPBaseControlBar@@IPBUtagRECT@@@Z" PURGE="12" COMMENT="" />
    <EXPORT ORDINAL="1389" NAME="?DockControlBar@CBCGPMDIFrameWnd@@QAEXPAVCBCGPBaseControlBar@@IPBUtagRECT@@@Z" PURGE="12" COMMENT="" />
    <EXPORT ORDINAL="1390" NAME="?DockControlBar@CBCGPMiniFrameWnd@@UAEPAVCBCGPDockingControlBar@@AAH@Z" PURGE="4" COMMENT="" />
    <EXPORT ORDINAL="1391" NAME="?DockControlBar@CBCGPOleCntrFrameWnd@@QAEXPAVCBCGPBaseControlBar@@IPBUtagRECT@@@Z" PURGE="12" COMMENT="" />
    <EXPORT ORDINAL="1392" NAME="?DockControlBar@CBCGPOleDocIPFrameWnd@@QAEXPAVCBCGPBaseControlBar@@IPBUtagRECT@@@Z" PURGE="12" COMMENT="" />
    <EXPORT ORDINAL="1393" NAME="?DockControlBar@CBCGPOleIPFrameWnd@@QAEXPAVCBCGPBaseControlBar@@IPBUtagRECT@@@Z" PURGE="12" COMMENT="" />
    <EXPORT ORDINAL="1394" NAME="?DockControlBarLeftOf@CBCGPDockBar@@UAEHPAVCBCGPControlBar@@0@Z" PURGE="8" COMMENT="" />
    <EXPORT ORDINAL="1395" NAME="?DockControlBarLeftOf@CBCGPDockManager@@QAEHPAVCBCGPControlBar@@0@Z" PURGE="8" COMMENT="" />
    <EXPORT ORDINAL="1396" NAME="?DockControlBarLeftOf@CBCGPFrameWnd@@QAEHPAVCBCGPControlBar@@0@Z" PURGE="8" COMMENT="" />
    <EXPORT ORDINAL="1397" NAME="?DockControlBarLeftOf@CBCGPMDIChildWnd@@QAEHPAVCBCGPControlBar@@0@Z" PURGE="8" COMMENT="" />
    <EXPORT ORDINAL="1398" NAME="?DockControlBarLeftOf@CBCGPMDIFrameWnd@@QAEHPAVCBCGPControlBar@@0@Z" PURGE="8" COMMENT="" />
    <EXPORT ORDINAL="1399" NAME="?DockControlBarLeftOf@CBCGPOleCntrFrameWnd@@QAEHPAVCBCGPControlBar@@0@Z" PURGE="8" COMMENT="" />
    <EXPORT ORDINAL="1400" NAME="?DockControlBarLeftOf@CBCGPOleDocIPFrameWnd@@QAEHPAVCBCGPControlBar@@0@Z" PURGE="8" COMMENT="" />
    <EXPORT ORDINAL="1401" NAME="?DockControlBarLeftOf@CBCGPOleIPFrameWnd@@QAEHPAVCBCGPControlBar@@0@Z" PURGE="8" COMMENT="" />
    <EXPORT ORDINAL="1402" NAME="?DockControlBarMap@CBCGPBaseControlBar@@QAEXH@Z" PURGE="4" COMMENT="" />
    <EXPORT ORDINAL="1403" NAME="?DockControlBarStandard@CBCGPControlBar@@UAEPAV1@AAH@Z" PURGE="4" COMMENT="" />
    <EXPORT ORDINAL="1404" NAME="?DockControlBarStandard@CBCGPDockingControlBar@@UAEPAVCBCGPControlBar@@AAH@Z" PURGE="4" COMMENT="" />
    <EXPORT ORDINAL="1405" NAME="?DockControlBarStandard@CBCGPMiniFrameWnd@@MAEPAVCBCGPDockingControlBar@@AAH@Z" PURGE="4" COMMENT="" />
    <EXPORT ORDINAL="1406" NAME="?DockControlBarStandard@CBCGPMultiMiniFrameWnd@@MAEPAVCBCGPDockingControlBar@@AAH@Z" PURGE="4" COMMENT="" />
    <EXPORT ORDINAL="1407" NAME="?DockFrame@CBCGPMultiMiniFrameWnd@@UAEHPAVCBCGPMiniFrameWnd@@W4BCGP_DOCK_METHOD@@@Z" PURGE="8" COMMENT="" />
    <EXPORT ORDINAL="1408" NAME="?DockRecentControlBarToMainFrame@CBCGPMultiMiniFrameWnd@@UAEXPAVCBCGPDockingControlBar@@@Z" PURGE="4" COMMENT="" />
    <EXPORT ORDINAL="1409" NAME="?DockToFrameWindow@CBCGPBaseControlBar@@UAEHKPBUtagRECT@@KPAV1@HH@Z" PURGE="24" COMMENT="" />
    <EXPORT ORDINAL="1410" NAME="?DockToFrameWindow@CBCGPControlBar@@UAEHKPBUtagRECT@@KPAVCBCGPBaseControlBar@@HH@Z" PURGE="24" COMMENT="" />
    <EXPORT ORDINAL="1411" NAME="?DockToFrameWindow@CBCGPDockingControlBar@@UAEHKPBUtagRECT@@KPAVCBCGPBaseControlBar@@HH@Z" PURGE="24" COMMENT="" />
    <EXPORT ORDINAL="1412" NAME="?DockToWindow@CBCGPDockingControlBar@@UAEHPAV1@KPBUtagRECT@@@Z" PURGE="12" COMMENT="" />
    <EXPORT ORDINAL="1413" NAME="?DoesAllowDynInsertBefore@CBCGPBarContainerManager@@UBEHXZ" PURGE="0" COMMENT="" />
    <EXPORT ORDINAL="1414" NAME="?DoesAllowDynInsertBefore@CBCGPBaseControlBar@@UBEHXZ" PURGE="-1" COMMENT="" />
    <EXPORT ORDINAL="1415" NAME="?DoesAllowDynInsertBefore@CBCGPCaptionBar@@UBEHXZ" PURGE="0" COMMENT="" />
    <EXPORT ORDINAL="1416" NAME="?DoesAllowDynInsertBefore@CBCGPDockBar@@UBEHXZ" PURGE="0" COMMENT="" />
    <EXPORT ORDINAL="1417" NAME="?DoesAllowDynInsertBefore@CBCGPOutlookBar@@UBEHXZ" PURGE="0" COMMENT="" />
    <EXPORT ORDINAL="1418" NAME="?DoesAllowDynInsertBefore@CBCGPSlider@@UBEHXZ" PURGE="0" COMMENT="" />
    <EXPORT ORDINAL="1419" NAME="?DoesAllowDynInsertBefore@CBCGPStatusBar@@UBEHXZ" PURGE="0" COMMENT="" />
    <EXPORT ORDINAL="1420" NAME="?DoesAllowSiblingBars@CBCGPControlBar@@UBEHXZ" PURGE="0" COMMENT="" />
    <EXPORT ORDINAL="1421" NAME="?DoesContainFloatingBar@CBCGPBarContainerManager@@UAEHXZ" PURGE="0" COMMENT="" />
    <EXPORT ORDINAL="1422" NAME="?DoesContainFloatingBar@CBCGPSlider@@UAEHXZ" PURGE="0" COMMENT="" />
    <EXPORT ORDINAL="1423" NAME="?DoesMDITabExist@CBCGPMainClientAreaWnd@@QBEHXZ" PURGE="0" COMMENT="" />
    <EXPORT ORDINAL="1424" NAME="?Down@CBCGPEditCtrl@@UAEHHH@Z" PURGE="8" COMMENT="" />
    <EXPORT ORDINAL="1425" NAME="?DownloadSkins@CBCGPSkinManager@@UAEHXZ" PURGE="0" COMMENT="" />
    <EXPORT ORDINAL="1426" NAME="?Draw3DTab@CBCGPTabWnd@@MAEXPAVCDC@@PAVCBCGPTabInfo@@H@Z" PURGE="12" COMMENT="" />
    <EXPORT ORDINAL="1427" NAME="?Draw@CBCGPToolBarImages@@QAEHPAVCDC@@HHHHHHHH@Z" PURGE="36" COMMENT="" />
    <EXPORT ORDINAL="1428" NAME="?Draw@CMenuImages@@SAXPAVCDC@@W4IMAGES_IDS@1@ABVCPoint@@W4IMAGE_STATE@1@ABVCSize@@@Z" PURGE="0" COMMENT="" />
    <EXPORT ORDINAL="1429" NAME="?DrawBorder@CBCGPButton@@IAEXPAVCDC@@AAVCRect@@I@Z" PURGE="12" COMMENT="" />
    <EXPORT ORDINAL="1430" NAME="?DrawButton@CBCGPToolBar@@MAEHPAVCDC@@PAVCBCGPToolbarButton@@PAVCBCGPToolBarImages@@HH@Z" PURGE="20" COMMENT="" />
    <EXPORT ORDINAL="1431" NAME="?DrawCaption@CBCGPDockingControlBar@@MAEXPAVCDC@@VCRect@@@Z" PURGE="20" COMMENT="" />
    <EXPORT ORDINAL="1432" NAME="?DrawCaption@CBCGPTasksPane@@MAEXPAVCDC@@VCRect@@@Z" PURGE="20" COMMENT="" />
    <EXPORT ORDINAL="1433" NAME="?DrawCheckBox@CBCGPCustomizeMenuButton@@MAEXPAVCDC@@ABVCRect@@H@Z" PURGE="12" COMMENT="" />
    <EXPORT ORDINAL="1434" NAME="?DrawCheckBox@CBCGPDateTimeCtrl@@IAEXPAVCDC@@I@Z" PURGE="8" COMMENT="" />
    <EXPORT ORDINAL="1435" NAME="?DrawColorLine@CBCGPEditCtrl@@IAEXPAVCDC@@HVCRect@@@Z" PURGE="24" COMMENT="" />
    <EXPORT ORDINAL="1436" NAME="?DrawComboBorder@CBCGPWinXPThemeManager@@UAEHPAVCDC@@VCRect@@HHH@Z" PURGE="32" COMMENT="" />
    <EXPORT ORDINAL="1437" NAME="?DrawComboBorderWinXP@CBCGPVisualManager2003@@UAEHPAVCDC@@VCRect@@HHH@Z" PURGE="32" COMMENT="" />
    <EXPORT ORDINAL="1438" NAME="?DrawComboBorderWinXP@CBCGPVisualManager@@UAEHPAVCDC@@VCRect@@HHH@Z" PURGE="32" COMMENT="" />
    <EXPORT ORDINAL="1439" NAME="?DrawComboBorderWinXP@CBCGPWinXPVisualManager@@UAEHPAVCDC@@VCRect@@HHH@Z" PURGE="32" COMMENT="" />
    <EXPORT ORDINAL="1440" NAME="?DrawComboDropButton@CBCGPWinXPThemeManager@@UAEHPAVCDC@@VCRect@@HHH@Z" PURGE="32" COMMENT="" />
    <EXPORT ORDINAL="1441" NAME="?DrawComboDropButtonWinXP@CBCGPVisualManager2003@@UAEHPAVCDC@@VCRect@@HHH@Z" PURGE="32" COMMENT="" />
    <EXPORT ORDINAL="1442" NAME="?DrawComboDropButtonWinXP@CBCGPVisualManager@@UAEHPAVCDC@@VCRect@@HHH@Z" PURGE="32" COMMENT="" />
    <EXPORT ORDINAL="1443" NAME="?DrawComboDropButtonWinXP@CBCGPWinXPVisualManager@@UAEHPAVCDC@@VCRect@@HHH@Z" PURGE="32" COMMENT="" />
    <EXPORT ORDINAL="1444" NAME="?DrawCursor@CBCGPColorPickerCtrl@@MAEXPAVCDC@@ABVCRect@@@Z" PURGE="8" COMMENT="" />
    <EXPORT ORDINAL="1445" NAME="?DrawCustomizeButton@CBCGPVisualManager2003@@UAEXPAVCDC@@VCRect@@HW4BCGBUTTON_STATE@CBCGPVisualManager@@HH@Z" PURGE="36" COMMENT="" />
    <EXPORT ORDINAL="1446" NAME="?DrawDateDropButton@CBCGPDateTimeCtrl@@IAEXPAVCDC@@I@Z" PURGE="8" COMMENT="" />
    <EXPORT ORDINAL="1447" NAME="?DrawDocumentIcon@CBCGPToolbarMenuButton@@IAEXPAVCDC@@ABVCRect@@PAUHICON__@@@Z" PURGE="12" COMMENT="" />
    <EXPORT ORDINAL="1448" NAME="?DrawDragMarker@CBCGPPopupMenuBar@@MAEXPAVCDC@@@Z" PURGE="4" COMMENT="" />
    <EXPORT ORDINAL="1449" NAME="?DrawDragMarker@CBCGPToolBar@@MAEXPAVCDC@@@Z" PURGE="4" COMMENT="" />
    <EXPORT ORDINAL="1450" NAME="?DrawFade@CBCGPPopupMenu@@IAEXPAVCDC@@@Z" PURGE="4" COMMENT="" />
    <EXPORT ORDINAL="1451" NAME="?DrawFlatTab@CBCGPTabWnd@@MAEXPAVCDC@@PAVCBCGPTabInfo@@H@Z" PURGE="12" COMMENT="" />
    <EXPORT ORDINAL="1452" NAME="?DrawGradientRing@CBCGPDrawManager@@QAEHVCRect@@KKKHHK@Z" PURGE="40" COMMENT="" />
    <EXPORT ORDINAL="1453" NAME="?DrawHex@CBCGPColorPickerCtrl@@IAEXPAVCDC@@@Z" PURGE="4" COMMENT="" />
    <EXPORT ORDINAL="1454" NAME="?DrawImage@CBCGPPopupMenu@@IAEXPAVCDC@@ABVCRect@@HH@Z" PURGE="16" COMMENT="" />
    <EXPORT ORDINAL="1455" NAME="?DrawItem@CBCGPBaseIntelliSenseLB@@UAEXPAUtagDRAWITEMSTRUCT@@@Z" PURGE="4" COMMENT="" />
    <EXPORT ORDINAL="1456" NAME="?DrawItem@CBCGPButton@@UAEXPAUtagDRAWITEMSTRUCT@@@Z" PURGE="4" COMMENT="" />
    <EXPORT ORDINAL="1457" NAME="?DrawItem@CBCGPColorPickerCtrl@@MAEXPAUtagDRAWITEMSTRUCT@@@Z" PURGE="4" COMMENT="" />
    <EXPORT ORDINAL="1458" NAME="?DrawItem@CBCGPDateTimeCtrl@@UAEXPAUtagDRAWITEMSTRUCT@@@Z" PURGE="4" COMMENT="" />
    <EXPORT ORDINAL="1459" NAME="?DrawItem@CBCGPDurationCtrl@@UAEXPAUtagDRAWITEMSTRUCT@@@Z" PURGE="4" COMMENT="" />
    <EXPORT ORDINAL="1460" NAME="?DrawItem@CBCGPFontComboBox@@UAEXPAUtagDRAWITEMSTRUCT@@@Z" PURGE="4" COMMENT="" />
    <EXPORT ORDINAL="1461" NAME="?DrawItem@CBCGPHotSpotImageCtrl@@UAEXPAUtagDRAWITEMSTRUCT@@@Z" PURGE="4" COMMENT="" />
    <EXPORT ORDINAL="1462" NAME="?DrawItem@CImagePaintArea@@MAEXPAUtagDRAWITEMSTRUCT@@@Z" PURGE="4" COMMENT="" />
    <EXPORT ORDINAL="1463" NAME="?DrawLuminanceBar@CBCGPColorPickerCtrl@@IAEXPAVCDC@@@Z" PURGE="4" COMMENT="" />
    <EXPORT ORDINAL="1464" NAME="?DrawMenuItem@CBCGPCustomizeMenuButton@@MAEXPAVCDC@@ABVCRect@@PAVCBCGPToolBarImages@@HHH@Z" PURGE="24" COMMENT="" />
    <EXPORT ORDINAL="1465" NAME="?DrawMenuItem@CBCGPToolbarMenuButton@@IAEXPAVCDC@@ABVCRect@@PAVCBCGPToolBarImages@@HHH@Z" PURGE="24" COMMENT="" />
    <EXPORT ORDINAL="1466" NAME="?DrawNcArea@CBCGPControlBarImpl@@IAEXXZ" PURGE="0" COMMENT="" />
    <EXPORT ORDINAL="1467" NAME="?DrawNewGroupRect@CBCGPMainClientAreaWnd@@AAEXPBUtagRECT@@0@Z" PURGE="8" COMMENT="" />
    <EXPORT ORDINAL="1468" NAME="?DrawParentBackground@GLOBAL_DATA@@QAEHPAVCWnd@@PAVCDC@@PAUtagRECT@@@Z" PURGE="12" COMMENT="" />
    <EXPORT ORDINAL="1469" NAME="?DrawPicker@CBCGPColorPickerCtrl@@IAEXPAVCDC@@@Z" PURGE="4" COMMENT="" />
    <EXPORT ORDINAL="1470" NAME="?DrawPixel@CImagePaintArea@@IAEXUtagPOINT@@@Z" PURGE="8" COMMENT="" />
    <EXPORT ORDINAL="1471" NAME="?DrawPushButton@CBCGPWinXPThemeManager@@UAEHPAVCDC@@VCRect@@PAVCBCGPButton@@I@Z" PURGE="28" COMMENT="" />
    <EXPORT ORDINAL="1472" NAME="?DrawPushButtonWinXP@CBCGPVisualManager2003@@UAEHPAVCDC@@VCRect@@PAVCBCGPButton@@I@Z" PURGE="28" COMMENT="" />
    <EXPORT ORDINAL="1473" NAME="?DrawPushButtonWinXP@CBCGPVisualManager@@UAEHPAVCDC@@VCRect@@PAVCBCGPButton@@I@Z" PURGE="28" COMMENT="" />
    <EXPORT ORDINAL="1474" NAME="?DrawPushButtonWinXP@CBCGPWinXPVisualManager@@UAEHPAVCDC@@VCRect@@PAVCBCGPButton@@I@Z" PURGE="28" COMMENT="" />
    <EXPORT ORDINAL="1475" NAME="?DrawResizeDragRect@CBCGPTabWnd@@MAEXAAVCRect@@0@Z" PURGE="8" COMMENT="" />
    <EXPORT ORDINAL="1476" NAME="?DrawSeparator@CBCGPPopupMenuBar@@MAEXPAVCDC@@ABVCRect@@H@Z" PURGE="12" COMMENT="" />
    <EXPORT ORDINAL="1477" NAME="?DrawSeparator@CBCGPToolBar@@MAEXPAVCDC@@ABVCRect@@H@Z" PURGE="12" COMMENT="" />
    <EXPORT ORDINAL="1478" NAME="?DrawShadow@CBCGPDrawManager@@QAEHVCRect@@HHHPAVCBitmap@@1KH@Z" PURGE="44" COMMENT="" />
    <EXPORT ORDINAL="1479" NAME="?DrawStatusBarProgress@CBCGPWinXPThemeManager@@UAEHPAVCDC@@PAVCBCGPStatusBar@@VCRect@@HHKKKH@Z" PURGE="48" COMMENT="" />
    <EXPORT ORDINAL="1480" NAME="?DrawString@CBCGPEditCtrl@@MAEHPAVCDC@@PBDVCRect@@HK@Z" PURGE="32" COMMENT="" />
    <EXPORT ORDINAL="1481" NAME="?DrawTabButton@CBCGPOutlookWnd@@IAEXAAVCDC@@HH@Z" PURGE="12" COMMENT="" />
    <EXPORT ORDINAL="1482" NAME="?DrawToolIcon@CBCGPUserTool@@QAEXPAVCDC@@ABVCRect@@@Z" PURGE="8" COMMENT="" />
    <EXPORT ORDINAL="1483" NAME="?DropDownMenu@CBCGPToolBar@@IAEHPAVCBCGPToolbarButton@@@Z" PURGE="4" COMMENT="" />
    <EXPORT ORDINAL="1484" NAME="?DropDownToolbar@CBCGPDropDownToolbarButton@@QAEHPAVCWnd@@@Z" PURGE="4" COMMENT="" />
    <EXPORT ORDINAL="1485" NAME="?DuplicateData@CBCGPToolbarComboBoxButton@@UAEXXZ" PURGE="0" COMMENT="" />
    <EXPORT ORDINAL="1486" NAME="?DuplicateData@CBCGPToolbarDateTimeCtrl@@UAEXXZ" PURGE="0" COMMENT="" />
    <EXPORT ORDINAL="1487" NAME="?EditItem@CBCGPEditListBox@@UAEHH@Z" PURGE="4" COMMENT="" />
    <EXPORT ORDINAL="1488" NAME="?EditItem@CBCGPPropList@@UAEHPAVCBCGPProp@@PAUtagPOINT@@@Z" PURGE="8" COMMENT="" />
    <EXPORT ORDINAL="1489" NAME="?EmptyUndoList@CBCGPEditCtrl@@UAEXXZ" PURGE="0" COMMENT="" />
    <EXPORT ORDINAL="1490" NAME="?Enable@CBCGPProp@@QAEXH@Z" PURGE="4" COMMENT="" />
    <EXPORT ORDINAL="1491" NAME="?EnableAccessibilitySupport@GLOBAL_DATA@@QAEXH@Z" PURGE="4" COMMENT="" />
    <EXPORT ORDINAL="1492" NAME="?EnableActivateLastActive@CBCGPBaseTabWnd@@QAEXH@Z" PURGE="4" COMMENT="" />
    <EXPORT ORDINAL="1493" NAME="?EnableAnimation@CBCGPOutlookWnd@@SAXH@Z" PURGE="0" COMMENT="" />
    <EXPORT ORDINAL="1494" NAME="?EnableAnimation@CBCGPTasksPane@@QAEXH@Z" PURGE="4" COMMENT="" />
    <EXPORT ORDINAL="1495" NAME="?EnableAutoColor@CBCGPBaseTabWnd@@QAEXH@Z" PURGE="4" COMMENT="" />
    <EXPORT ORDINAL="1496" NAME="?EnableAutoHideBars@CBCGPDockManager@@QAEHK@Z" PURGE="4" COMMENT="" />
    <EXPORT ORDINAL="1497" NAME="?EnableAutoHideBars@CBCGPFrameWnd@@QAEHK@Z" PURGE="4" COMMENT="" />
    <EXPORT ORDINAL="1498" NAME="?EnableAutoHideBars@CBCGPMDIChildWnd@@QAEHK@Z" PURGE="4" COMMENT="" />
    <EXPORT ORDINAL="1499" NAME="?EnableAutoHideBars@CBCGPMDIFrameWnd@@QAEHK@Z" PURGE="4" COMMENT="" />
    <EXPORT ORDINAL="1500" NAME="?EnableAutoHideBars@CBCGPOleCntrFrameWnd@@QAEHK@Z" PURGE="4" COMMENT="" />
    <EXPORT ORDINAL="1501" NAME="?EnableAutoHideBars@CBCGPOleDocIPFrameWnd@@QAEHK@Z" PURGE="4" COMMENT="" />
    <EXPORT ORDINAL="1502" NAME="?EnableAutoHideBars@CBCGPOleIPFrameWnd@@QAEHK@Z" PURGE="4" COMMENT="" />
    <EXPORT ORDINAL="1503" NAME="?EnableAutoOutlining@CBCGPEditCtrl@@QAEXH@Z" PURGE="4" COMMENT="" />
    <EXPORT ORDINAL="1504" NAME="?EnableAutohideAll@CBCGPDockingControlBar@@QAEXH@Z" PURGE="4" COMMENT="" />
    <EXPORT ORDINAL="1505" NAME="?EnableAutomaticButton@CBCGPColorBar@@QAEXPBDKH@Z" PURGE="12" COMMENT="" />
    <EXPORT ORDINAL="1506" NAME="?EnableAutomaticButton@CBCGPColorButton@@QAEXPBDKH@Z" PURGE="12" COMMENT="" />
    <EXPORT ORDINAL="1507" NAME="?EnableAutomaticButton@CBCGPColorMenuButton@@QAEXPBDKH@Z" PURGE="12" COMMENT="" />
    <EXPORT ORDINAL="1508" NAME="?EnableAutomaticButton@CBCGPColorProp@@QAEXPBDKH@Z" PURGE="12" COMMENT="" />
    <EXPORT ORDINAL="1509" NAME="?EnableBrowseButton@CBCGPEdit@@QAEXHPBD@Z" PURGE="8" COMMENT="" />
    <EXPORT ORDINAL="1510" NAME="?EnableBrowseButton@CBCGPEditListBase@@QAEXH@Z" PURGE="4" COMMENT="" />
    <EXPORT ORDINAL="1511" NAME="?EnableButton@CBCGPCaptionBar@@QAEXH@Z" PURGE="4" COMMENT="" />
    <EXPORT ORDINAL="1512" NAME="?EnableButton@CBCGPDockingControlBar@@IAEXIH@Z" PURGE="8" COMMENT="" />
    <EXPORT ORDINAL="1513" NAME="?EnableButton@CBCGPEditListBase@@QAEHHH@Z" PURGE="8" COMMENT="" />
    <EXPORT ORDINAL="1514" NAME="?EnableCalculator@CBCGPToolbarEditBoxButton@@QAEXH@Z" PURGE="4" COMMENT="" />
    <EXPORT ORDINAL="1515" NAME="?EnableCalculatorButton@CBCGPEdit@@QAEXPBVCStringList@@@Z" PURGE="4" COMMENT="" />
    <EXPORT ORDINAL="1516" NAME="?EnableContextMenuItems@CBCGPOutlookBarPane@@MAEHPAVCBCGPToolbarButton@@PAVCMenu@@@Z" PURGE="8" COMMENT="" />
    <EXPORT ORDINAL="1517" NAME="?EnableContextMenuItems@CBCGPPopupMenuBar@@MAEHPAVCBCGPToolbarButton@@PAVCMenu@@@Z" PURGE="8" COMMENT="" />
    <EXPORT ORDINAL="1518" NAME="?EnableContextMenuItems@CBCGPToolBar@@MAEHPAVCBCGPToolbarButton@@PAVCMenu@@@Z" PURGE="8" COMMENT="" />
    <EXPORT ORDINAL="1519" NAME="?EnableCustomization@CBCGPCustomizeMenuButton@@QAEXH@Z" PURGE="4" COMMENT="" />
    <EXPORT ORDINAL="1520" NAME="?EnableCustomizeButton@CBCGPToolBar@@QAEXHIABV?$CStringT@DV?$StrTraitMFC_DLL@DV?$ChTraitsCRT@D@ATL@@@@@ATL@@H@Z" PURGE="16" COMMENT="" />
    <EXPORT ORDINAL="1521" NAME="?EnableCustomizeButton@CBCGPToolBar@@QAEXHIIH@Z" PURGE="16" COMMENT="" />
    <EXPORT ORDINAL="1522" NAME="?EnableDescriptionArea@CBCGPPropList@@QAEXH@Z" PURGE="4" COMMENT="" />
    <EXPORT ORDINAL="1523" NAME="?EnableDockBarMenu@CBCGPDockManager@@SAXH@Z" PURGE="0" COMMENT="" />
    <EXPORT ORDINAL="1524" NAME="?EnableDocking@CBCGPBaseControlBar@@UAEXK@Z" PURGE="4" COMMENT="" />
    <EXPORT ORDINAL="1525" NAME="?EnableDocking@CBCGPDockManager@@QAEHK@Z" PURGE="4" COMMENT="" />
    <EXPORT ORDINAL="1526" NAME="?EnableDocking@CBCGPFrameWnd@@QAEHK@Z" PURGE="4" COMMENT="" />
    <EXPORT ORDINAL="1527" NAME="?EnableDocking@CBCGPMDIChildWnd@@QAEHK@Z" PURGE="4" COMMENT="" />
    <EXPORT ORDINAL="1528" NAME="?EnableDocking@CBCGPMDIFrameWnd@@QAEHK@Z" PURGE="4" COMMENT="" />
    <EXPORT ORDINAL="1529" NAME="?EnableDocking@CBCGPOleCntrFrameWnd@@QAEHK@Z" PURGE="4" COMMENT="" />
    <EXPORT ORDINAL="1530" NAME="?EnableDocking@CBCGPOleDocIPFrameWnd@@QAEHK@Z" PURGE="4" COMMENT="" />
    <EXPORT ORDINAL="1531" NAME="?EnableDocking@CBCGPOleIPFrameWnd@@QAEHK@Z" PURGE="4" COMMENT="" />
    <EXPORT ORDINAL="1532" NAME="?EnableDocking@CBCGPToolBar@@UAEXK@Z" PURGE="4" COMMENT="" />
    <EXPORT ORDINAL="1533" NAME="?EnableDocumentColors@CBCGPColorMenuButton@@QAEXPBDH@Z" PURGE="8" COMMENT="" />
    <EXPORT ORDINAL="1534" NAME="?EnableFileBrowseButton@CBCGPEdit@@QAEXPBD0@Z" PURGE="8" COMMENT="" />
    <EXPORT ORDINAL="1535" NAME="?EnableFolderBrowseButton@CBCGPEdit@@QAEXXZ" PURGE="-1" COMMENT="" />
    <EXPORT ORDINAL="1536" NAME="?EnableFullScreenMainMenu@CBCGPFrameImpl@@IAEXH@Z" PURGE="4" COMMENT="" />
    <EXPORT ORDINAL="1537" NAME="?EnableFullScreenMainMenu@CBCGPFrameWnd@@QAEXH@Z" PURGE="4" COMMENT="" />
    <EXPORT ORDINAL="1538" NAME="?EnableFullScreenMainMenu@CBCGPMDIFrameWnd@@QAEXH@Z" PURGE="4" COMMENT="" />
    <EXPORT ORDINAL="1539" NAME="?EnableFullScreenMode@CBCGPFrameWnd@@QAEXI@Z" PURGE="4" COMMENT="" />
    <EXPORT ORDINAL="1540" NAME="?EnableFullScreenMode@CBCGPMDIFrameWnd@@QAEXI@Z" PURGE="4" COMMENT="" />
    <EXPORT ORDINAL="1541" NAME="?EnableFullTextTooltip@CBCGPButton@@QAEXH@Z" PURGE="4" COMMENT="" />
    <EXPORT ORDINAL="1542" NAME="?EnableGetMaskedCharsOnly@CBCGPMaskEdit@@QAEXH@Z" PURGE="4" COMMENT="" />
    <EXPORT ORDINAL="1543" NAME="?EnableGradientMarkers@CBCGPEditCtrl@@QAEXH@Z" PURGE="4" COMMENT="" />
    <EXPORT ORDINAL="1544" NAME="?EnableGripper@CBCGPBaseControlBar@@UAEXH@Z" PURGE="4" COMMENT="" />
    <EXPORT ORDINAL="1545" NAME="?EnableGripper@CBCGPDockingControlBar@@UAEXH@Z" PURGE="4" COMMENT="" />
    <EXPORT ORDINAL="1546" NAME="?EnableGrippers@CBCGPBarContainerManager@@UAEXH@Z" PURGE="4" COMMENT="" />
    <EXPORT ORDINAL="1547" NAME="?EnableGroupCollapse@CBCGPTasksPane@@QAEXH@Z" PURGE="4" COMMENT="" />
    <EXPORT ORDINAL="1548" NAME="?EnableHeaderCtrl@CBCGPPropList@@QAEXHPBD0@Z" PURGE="12" COMMENT="" />
    <EXPORT ORDINAL="1549" NAME="?EnableHelpCombobox@CBCGPMenuBar@@QAEXIPBDH@Z" PURGE="12" COMMENT="" />
    <EXPORT ORDINAL="1550" NAME="?EnableHistoryMenuButtons@CBCGPTasksPane@@QAEXH@Z" PURGE="4" COMMENT="" />
    <EXPORT ORDINAL="1551" NAME="?EnableHyperlinkSupport@CBCGPEditCtrl@@QAEXH@Z" PURGE="4" COMMENT="" />
    <EXPORT ORDINAL="1552" NAME="?EnableInPlaceActivation@CBCGPDockManager@@QAEXXZ" PURGE="0" COMMENT="" />
    <EXPORT ORDINAL="1553" NAME="?EnableInPlaceEdit@CBCGPOutlookWnd@@UAEXH@Z" PURGE="4" COMMENT="" />
    <EXPORT ORDINAL="1554" NAME="?EnableInPlaceEdit@CBCGPTabWnd@@UAEXH@Z" PURGE="4" COMMENT="" />
    <EXPORT ORDINAL="1555" NAME="?EnableIntelliSense@CBCGPEditCtrl@@QAEHH@Z" PURGE="4" COMMENT="" />
    <EXPORT ORDINAL="1556" NAME="?EnableLargeIcons@CBCGPToolBar@@QAEXH@Z" PURGE="4" COMMENT="" />
    <EXPORT ORDINAL="1557" NAME="?EnableLoadDockState@CBCGPFrameWnd@@QAEXH@Z" PURGE="4" COMMENT="" />
    <EXPORT ORDINAL="1558" NAME="?EnableLoadDockState@CBCGPMDIFrameWnd@@QAEXH@Z" PURGE="4" COMMENT="" />
    <EXPORT ORDINAL="1559" NAME="?EnableLoadWindowPlacement@CBCGPWorkspace@@QAEXH@Z" PURGE="4" COMMENT="" />
    <EXPORT ORDINAL="1560" NAME="?EnableMDITabbedGroups@CBCGPMDIFrameWnd@@QAEXHABVCBCGPMDITabParams@@@Z" PURGE="8" COMMENT="" />
    <EXPORT ORDINAL="1561" NAME="?EnableMDITabbedGroups@CBCGPMainClientAreaWnd@@QAEXHABVCBCGPMDITabParams@@@Z" PURGE="8" COMMENT="" />
    <EXPORT ORDINAL="1562" NAME="?EnableMDITabs@CBCGPMDIFrameWnd@@QAEXHHW4Location@CBCGPBaseTabWnd@@HW4Style@CBCGPTabWnd@@@Z" PURGE="20" COMMENT="" />
    <EXPORT ORDINAL="1563" NAME="?EnableMDITabs@CBCGPMainClientAreaWnd@@QAEXHABVCBCGPMDITabParams@@@Z" PURGE="8" COMMENT="" />
    <EXPORT ORDINAL="1564" NAME="?EnableMDITabsLastActiveActivation@CBCGPMDIFrameWnd@@QAEXH@Z" PURGE="4" COMMENT="" />
    <EXPORT ORDINAL="1565" NAME="?EnableMainMenu@CBCGPFullScreenImpl@@QAEXH@Z" PURGE="4" COMMENT="" />
    <EXPORT ORDINAL="1566" NAME="?EnableMarkSortedColumn@CBCGPListCtrl@@QAEXHH@Z" PURGE="8" COMMENT="" />
    <EXPORT ORDINAL="1567" NAME="?EnableMask@CBCGPMaskEdit@@QAEXPBD0D0@Z" PURGE="16" COMMENT="" />
    <EXPORT ORDINAL="1568" NAME="?EnableMenuFont@CBCGPButton@@QAEXHH@Z" PURGE="8" COMMENT="" />
    <EXPORT ORDINAL="1569" NAME="?EnableMenuItemImage@CBCGPCommandManager@@QAEXIH@Z" PURGE="8" COMMENT="" />
    <EXPORT ORDINAL="1570" NAME="?EnableMenuLogo@CBCGPPopupMenu@@QAEXHW4LOGO_LOCATION@1@@Z" PURGE="8" COMMENT="" />
    <EXPORT ORDINAL="1571" NAME="?EnableMenuShadows@CBCGPMenuBar@@SAXH@Z" PURGE="0" COMMENT="" />
    <EXPORT ORDINAL="1572" NAME="?EnableMenuSound@CBCGPPopupMenu@@SAXH@Z" PURGE="0" COMMENT="" />
    <EXPORT ORDINAL="1573" NAME="?EnableMultipleSort@CBCGPHeaderCtrl@@QAEXH@Z" PURGE="4" COMMENT="" />
    <EXPORT ORDINAL="1574" NAME="?EnableMultipleSort@CBCGPListCtrl@@QAEXH@Z" PURGE="4" COMMENT="" />
    <EXPORT ORDINAL="1575" NAME="?EnableNavigationToolbar@CBCGPTasksPane@@QAEXHIVCSize@@0@Z" PURGE="24" COMMENT="" />
    <EXPORT ORDINAL="1576" NAME="?EnableOffsetCustomControls@CBCGPTasksPane@@QAEXH@Z" PURGE="4" COMMENT="" />
    <EXPORT ORDINAL="1577" NAME="?EnableOtherButton@CBCGPColorBar@@QAEXPBDHH@Z" PURGE="12" COMMENT="" />
    <EXPORT ORDINAL="1578" NAME="?EnableOtherButton@CBCGPColorButton@@QAEXPBDHH@Z" PURGE="12" COMMENT="" />
    <EXPORT ORDINAL="1579" NAME="?EnableOtherButton@CBCGPColorMenuButton@@QAEXPBDHH@Z" PURGE="12" COMMENT="" />
    <EXPORT ORDINAL="1580" NAME="?EnableOtherButton@CBCGPColorProp@@QAEXPBDHH@Z" PURGE="12" COMMENT="" />
    <EXPORT ORDINAL="1581" NAME="?EnableOutlineParser@CBCGPEditCtrl@@QAEXH@Z" PURGE="4" COMMENT="" />
    <EXPORT ORDINAL="1582" NAME="?EnableOutlining@CBCGPEditCtrl@@QAEXH@Z" PURGE="4" COMMENT="" />
    <EXPORT ORDINAL="1583" NAME="?EnablePageScrollMode@CBCGPOutlookBarPane@@QAEXH@Z" PURGE="4" COMMENT="" />
    <EXPORT ORDINAL="1584" NAME="?EnablePaneDoubleClick@CBCGPStatusBar@@QAEXH@Z" PURGE="4" COMMENT="" />
    <EXPORT ORDINAL="1585" NAME="?EnablePaneProgressBar@CBCGPStatusBar@@QAEXHJHKKK@Z" PURGE="24" COMMENT="" />
    <EXPORT ORDINAL="1586" NAME="?EnableQuickCustomization@CBCGPToolBar@@SAXH@Z" PURGE="0" COMMENT="" />
    <EXPORT ORDINAL="1587" NAME="?EnableQuickCustomize@CBCGPToolbarMenuButton@@QAEXXZ" PURGE="0" COMMENT="" />
    <EXPORT ORDINAL="1588" NAME="?EnableRTL@CBCGPToolBarImages@@SAXH@Z" PURGE="0" COMMENT="" />
    <EXPORT ORDINAL="1589" NAME="?EnableReflections@CBCGPToolBar@@QAEXH@Z" PURGE="4" COMMENT="" />
    <EXPORT ORDINAL="1590" NAME="?EnableScrollButtons@CBCGPOutlookWnd@@QAEXHHH@Z" PURGE="12" COMMENT="" />
    <EXPORT ORDINAL="1591" NAME="?EnableScrollButtons@CBCGPTasksPane@@QAEXH@Z" PURGE="4" COMMENT="" />
    <EXPORT ORDINAL="1592" NAME="?EnableScrolling@CBCGPPopupMenu@@QAEXH@Z" PURGE="4" COMMENT="" />
    <EXPORT ORDINAL="1593" NAME="?EnableSelectByGroup@CBCGPMaskEdit@@QAEXH@Z" PURGE="4" COMMENT="" />
    <EXPORT ORDINAL="1594" NAME="?EnableSetCaptionTextToTabName@CBCGPBaseTabbedBar@@UAEXH@Z" PURGE="4" COMMENT="" />
    <EXPORT ORDINAL="1595" NAME="?EnableSetMaskedCharsOnly@CBCGPMaskEdit@@QAEXH@Z" PURGE="4" COMMENT="" />
    <EXPORT ORDINAL="1596" NAME="?EnableShellContextMenu@CBCGPShellList@@QAEXH@Z" PURGE="4" COMMENT="" />
    <EXPORT ORDINAL="1597" NAME="?EnableShellContextMenu@CBCGPShellTree@@QAEXH@Z" PURGE="4" COMMENT="" />
    <EXPORT ORDINAL="1598" NAME="?EnableShowTooltips@CBCGPCalendarBar@@QAEXH@Z" PURGE="4" COMMENT="" />
    <EXPORT ORDINAL="1599" NAME="?EnableSkinsDownload@CBCGPSkinManager@@QAEXPBD000@Z" PURGE="16" COMMENT="" />
    <EXPORT ORDINAL="1600" NAME="?EnableSpinControl@CBCGPProp@@QAEXHHH@Z" PURGE="12" COMMENT="" />
    <EXPORT ORDINAL="1601" NAME="?EnableTabAutoColor@CBCGPTabbedControlBar@@SAXH@Z" PURGE="0" COMMENT="" />
    <EXPORT ORDINAL="1602" NAME="?EnableTabDetach@CBCGPBaseTabWnd@@UAEHHH@Z" PURGE="8" COMMENT="" />
    <EXPORT ORDINAL="1603" NAME="?EnableTabDocumentsMenu@CBCGPTabWnd@@QAEXH@Z" PURGE="4" COMMENT="" />
    <EXPORT ORDINAL="1604" NAME="?EnableTabSwap@CBCGPBaseTabWnd@@QAEXH@Z" PURGE="4" COMMENT="" />
    <EXPORT ORDINAL="1605" NAME="?EnableTabsArea@CBCGPFullScreenImpl@@QAEXH@Z" PURGE="4" COMMENT="" />
    <EXPORT ORDINAL="1606" NAME="?EnableTearOff@CBCGPCalendarMenuButton@@QAEXIHH@Z" PURGE="12" COMMENT="" />
    <EXPORT ORDINAL="1607" NAME="?EnableTearOff@CBCGPColorMenuButton@@QAEXIHH@Z" PURGE="12" COMMENT="" />
    <EXPORT ORDINAL="1608" NAME="?EnableTearOffMenus@CBCGPWorkspace@@QAEHPBDII@Z" PURGE="12" COMMENT="" />
    <EXPORT ORDINAL="1609" NAME="?EnableTextLabels@CBCGPToolBar@@QAEXH@Z" PURGE="4" COMMENT="" />
    <EXPORT ORDINAL="1610" NAME="?EnableToolTips@CBCGPEditCtrl@@QAEXH@Z" PURGE="4" COMMENT="" />
    <EXPORT ORDINAL="1611" NAME="?EnableToolbarButtonFill@CBCGPVisualManager@@QAEXH@Z" PURGE="4" COMMENT="" />
    <EXPORT ORDINAL="1612" NAME="?EnableUndoCharMode@CBCGPEditCtrl@@QAEXH@Z" PURGE="4" COMMENT="" />
    <EXPORT ORDINAL="1613" NAME="?EnableUserDefinedToolbars@CBCGPToolbarCustomize@@QAEXH@Z" PURGE="4" COMMENT="" />
    <EXPORT ORDINAL="1614" NAME="?EnableUserTools@CBCGPWorkspace@@QAEHIIIPAUCRuntimeClass@@II@Z" PURGE="24" COMMENT="" />
    <EXPORT ORDINAL="1615" NAME="?EnableWinXPTheme@CBCGPButton@@SAXH@Z" PURGE="0" COMMENT="" />
    <EXPORT ORDINAL="1616" NAME="?EnableWindow@CBCGPToolbarButton@@UAEXH@Z" PURGE="4" COMMENT="" />
    <EXPORT ORDINAL="1617" NAME="?EnableWindow@CBCGPToolbarComboBoxButton@@UAEXH@Z" PURGE="4" COMMENT="" />
    <EXPORT ORDINAL="1618" NAME="?EnableWindowsDialog@CBCGPMDIFrameWnd@@QAEXIIHH@Z" PURGE="16" COMMENT="" />
    <EXPORT ORDINAL="1619" NAME="?EnableWindowsDialog@CBCGPMDIFrameWnd@@QAEXIPBDHH@Z" PURGE="16" COMMENT="" />
    <EXPORT ORDINAL="1620" NAME="?EnableWrapLabels@CBCGPTasksPane@@QAEXH@Z" PURGE="4" COMMENT="" />
    <EXPORT ORDINAL="1621" NAME="?EnableWrapTasks@CBCGPTasksPane@@QAEXH@Z" PURGE="4" COMMENT="" />
    <EXPORT ORDINAL="1622" NAME="?End@CBCGPEditCtrl@@UAEHH@Z" PURGE="4" COMMENT="" />
    <EXPORT ORDINAL="1623" NAME="?EndDrawImage@CBCGPToolBarImages@@QAEXAAUtagDrawState@@@Z" PURGE="4" COMMENT="" />
    <EXPORT ORDINAL="1624" NAME="?EndEditItem@CBCGPPropList@@UAEHH@Z" PURGE="4" COMMENT="" />
    <EXPORT ORDINAL="1625" NAME="?EndOfText@CBCGPEditCtrl@@UAEHH@Z" PURGE="4" COMMENT="" />
    <EXPORT ORDINAL="1626" NAME="?EnsureVisible@CBCGPBaseTabWnd@@UAEHH@Z" PURGE="4" COMMENT="" />
    <EXPORT ORDINAL="1627" NAME="?EnsureVisible@CBCGPPropList@@QAEXPAVCBCGPProp@@H@Z" PURGE="8" COMMENT="" />
    <EXPORT ORDINAL="1628" NAME="?EnsureVisible@CBCGPTabWnd@@UAEHH@Z" PURGE="4" COMMENT="" />
    <EXPORT ORDINAL="1629" NAME="?EnterDragMode@CBCGPBaseTabWnd@@QAEXXZ" PURGE="0" COMMENT="" />
    <EXPORT ORDINAL="1630" NAME="?EnterDragMode@CBCGPControlBar@@MAEXH@Z" PURGE="4" COMMENT="" />
    <EXPORT ORDINAL="1631" NAME="?EnterDragMode@CBCGPDockingControlBar@@MAEXH@Z" PURGE="4" COMMENT="" />
    <EXPORT ORDINAL="1632" NAME="?EnterDragMode@CBCGPMiniFrameWnd@@MAEXPAUHWND__@@@Z" PURGE="4" COMMENT="" />
    <EXPORT ORDINAL="1633" NAME="?EnumFamPrinterCallBackEx@CBCGPToolbarFontCombo@@KGHPAUtagENUMLOGFONTEXA@@PAUtagNEWTEXTMETRICEXA@@HPAX@Z" PURGE="16" COMMENT="" />
    <EXPORT ORDINAL="1634" NAME="?EnumFamScreenCallBackEx@CBCGPToolbarFontCombo@@KGHPAUtagENUMLOGFONTEXA@@PAUtagNEWTEXTMETRICEXA@@HPAX@Z" PURGE="16" COMMENT="" />
    <EXPORT ORDINAL="1635" NAME="?EnumObjects@CBCGPShellList@@MAEJPAUIShellFolder@@PAU_ITEMIDLIST@@@Z" PURGE="8" COMMENT="" />
    <EXPORT ORDINAL="1636" NAME="?EnumObjects@CBCGPShellTree@@MAEJPAU_TREEITEM@@PAUIShellFolder@@PAU_ITEMIDLIST@@@Z" PURGE="12" COMMENT="" />
    <EXPORT ORDINAL="1637" NAME="?EnumSizeCallBack@CBCGPToolbarFontSizeCombo@@KGHPAUtagLOGFONTA@@PAUtagNEWTEXTMETRICA@@HPAX@Z" PURGE="16" COMMENT="" />
    <EXPORT ORDINAL="1638" NAME="?Expand@CBCGPProp@@QAEXH@Z" PURGE="4" COMMENT="" />
    <EXPORT ORDINAL="1639" NAME="?ExpandAll@CBCGPPropList@@QAEXH@Z" PURGE="4" COMMENT="" />
    <EXPORT ORDINAL="1640" NAME="?ExpandDeep@CBCGPProp@@IAEXH@Z" PURGE="4" COMMENT="" />
    <EXPORT ORDINAL="1641" NAME="?ExpandLine@CBCGPEditCtrl@@QAEXH@Z" PURGE="4" COMMENT="" />
    <EXPORT ORDINAL="1642" NAME="?ExpandStretchedBars@CBCGPDockBarRow@@QAEXXZ" PURGE="0" COMMENT="" />
    <EXPORT ORDINAL="1643" NAME="?ExpandStretchedBarsRect@CBCGPDockBarRow@@QAEXXZ" PURGE="0" COMMENT="" />
    <EXPORT ORDINAL="1644" NAME="?ExportBuffer@CBCGPEditCtrl@@QAEPAXPBDHHH@Z" PURGE="16" COMMENT="" />
    <EXPORT ORDINAL="1645" NAME="?ExportToHTML@CBCGPEditCtrl@@QAEXAAV?$CStringT@DV?$StrTraitMFC_DLL@DV?$ChTraitsCRT@D@ATL@@@@@ATL@@@Z" PURGE="4" COMMENT="" />
    <EXPORT ORDINAL="1646" NAME="?ExportToMenu@CBCGPFrameImpl@@IAEHPAVCBCGPPopupMenu@@@Z" PURGE="4" COMMENT="" />
    <EXPORT ORDINAL="1647" NAME="?ExportToMenu@CBCGPPopupMenuBar@@QBEPAUHMENU__@@XZ" PURGE="0" COMMENT="" />
    <EXPORT ORDINAL="1648" NAME="?ExportToMenuButton@CBCGPDropDownToolbarButton@@UBEHAAVCBCGPToolbarMenuButton@@@Z" PURGE="4" COMMENT="" />
    <EXPORT ORDINAL="1649" NAME="?ExportToMenuButton@CBCGPToolbarButton@@UBEHAAVCBCGPToolbarMenuButton@@@Z" PURGE="4" COMMENT="" />
    <EXPORT ORDINAL="1650" NAME="?ExportToMenuButton@CBCGPToolbarComboBoxButton@@UBEHAAVCBCGPToolbarMenuButton@@@Z" PURGE="4" COMMENT="" />
    <EXPORT ORDINAL="1651" NAME="?ExportToMenuButton@CBCGPToolbarDateTimeCtrl@@UBEHAAVCBCGPToolbarMenuButton@@@Z" PURGE="4" COMMENT="" />
    <EXPORT ORDINAL="1652" NAME="?ExportToRTF@CBCGPEditCtrl@@IAEXAAV?$CStringT@DV?$StrTraitMFC_DLL@DV?$ChTraitsCRT@D@ATL@@@@@ATL@@AAV?$CArray@KAAK@@@Z" PURGE="8" COMMENT="" />
    <EXPORT ORDINAL="1653" NAME="?ExportToRTF@CBCGPEditCtrl@@QAEXAAV?$CStringT@DV?$StrTraitMFC_DLL@DV?$ChTraitsCRT@D@ATL@@@@@ATL@@@Z" PURGE="4" COMMENT="" />
    <EXPORT ORDINAL="1654" NAME="?ExtendMenuButton@CBCGPVisualManagerXP@@MAEXPAVCBCGPToolbarMenuButton@@AAVCRect@@@Z" PURGE="8" COMMENT="" />
    <EXPORT ORDINAL="1655" NAME="?ExtractIconA@CBCGPToolBarImages@@QAEPAUHICON__@@H@Z" PURGE="4" COMMENT="" />
    <EXPORT ORDINAL="1656" NAME="?FillAllCommandsList@CBCGPToolbarCustomize@@UBEXAAVCListBox@@@Z" PURGE="4" COMMENT="" />
    <EXPORT ORDINAL="1657" NAME="?FillCategoriesComboBox@CBCGPToolbarCustomize@@QBEXAAVCComboBox@@H@Z" PURGE="8" COMMENT="" />
    <EXPORT ORDINAL="1658" NAME="?FillCategoriesListBox@CBCGPToolbarCustomize@@QBEXAAVCListBox@@H@Z" PURGE="8" COMMENT="" />
    <EXPORT ORDINAL="1659" NAME="?FillDitheredRect@CBCGPToolBarImages@@SAXPAVCDC@@ABVCRect@@@Z" PURGE="0" COMMENT="" />
    <EXPORT ORDINAL="1660" NAME="?FillGradient2@CBCGPDrawManager@@QAEXVCRect@@KKH@Z" PURGE="28" COMMENT="" />
    <EXPORT ORDINAL="1661" NAME="?FillGradient@CBCGPDrawManager@@QAEXVCRect@@KKHHH@Z" PURGE="36" COMMENT="" />
    <EXPORT ORDINAL="1662" NAME="?FillIntelliSenseList@CBCGPEditCtrl@@UBEHAAVCObList@@PBD@Z" PURGE="8" COMMENT="" />
    <EXPORT ORDINAL="1663" NAME="?FillInterior@CBCGPToolbarButton@@IAEXPAVCDC@@ABVCRect@@H@Z" PURGE="12" COMMENT="" />
    <EXPORT ORDINAL="1664" NAME="?FillWindowList@CBCGPWindowsManagerDlg@@IAEXXZ" PURGE="0" COMMENT="" />
    <EXPORT ORDINAL="1665" NAME="?FillWindowRect@CBCGPBaseControlBar@@QAEXXZ" PURGE="0" COMMENT="" />
    <EXPORT ORDINAL="1666" NAME="?FilterCalcKey@CBCGPEdit@@UAEHH@Z" PURGE="4" COMMENT="" />
    <EXPORT ORDINAL="1667" NAME="?FindActiveTabWnd@CBCGPMainClientAreaWnd@@QAEPAVCBCGPTabWnd@@XZ" PURGE="0" COMMENT="" />
    <EXPORT ORDINAL="1668" NAME="?FindActiveTabWndByActiveChild@CBCGPMainClientAreaWnd@@QAEPAVCBCGPTabWnd@@XZ" PURGE="0" COMMENT="" />
    <EXPORT ORDINAL="1669" NAME="?FindAvailablePageID@CBCGPOutlookBar@@IAEIXZ" PURGE="0" COMMENT="" />
    <EXPORT ORDINAL="1670" NAME="?FindBar@CBCGPBarContainerManager@@IAEIVCPoint@@PAPAVCBCGPControlBar@@AAPAU__POSITION@@@Z" PURGE="16" COMMENT="" />
    <EXPORT ORDINAL="1671" NAME="?FindBar@CBCGPBarContainerManager@@IAEIVCRect@@PAPAVCBCGPControlBar@@AAPAU__POSITION@@@Z" PURGE="24" COMMENT="" />
    <EXPORT ORDINAL="1672" NAME="?FindBarByID@CBCGPBaseTabbedBar@@UAEPAVCWnd@@I@Z" PURGE="4" COMMENT="" />
    <EXPORT ORDINAL="1673" NAME="?FindBarByID@CBCGPDockBar@@QAEPAVCBCGPControlBar@@I@Z" PURGE="4" COMMENT="" />
    <EXPORT ORDINAL="1674" NAME="?FindBarByID@CBCGPDockManager@@UAEPAVCBCGPBaseControlBar@@IH@Z" PURGE="8" COMMENT="" />
    <EXPORT ORDINAL="1675" NAME="?FindBarByTabNumber@CBCGPBaseTabbedBar@@UAEPAVCWnd@@HH@Z" PURGE="8" COMMENT="" />
    <EXPORT ORDINAL="1676" NAME="?FindButton@CBCGPDockingControlBar@@IBEPAVCBCGPCaptionButton@@VCPoint@@@Z" PURGE="8" COMMENT="" />
    <EXPORT ORDINAL="1677" NAME="?FindButton@CBCGPMiniFrameWnd@@IBEPAVCBCGPCaptionButton@@I@Z" PURGE="4" COMMENT="" />
    <EXPORT ORDINAL="1678" NAME="?FindButton@CBCGPMiniFrameWnd@@IBEPAVCBCGPCaptionButton@@VCPoint@@@Z" PURGE="8" COMMENT="" />
    <EXPORT ORDINAL="1679" NAME="?FindButton@CBCGPToolBoxPage@@IBEHPAUHWND__@@@Z" PURGE="4" COMMENT="" />
    <EXPORT ORDINAL="1680" NAME="?FindButtonByHit@CBCGPDockingControlBar@@IBEPAVCBCGPCaptionButton@@I@Z" PURGE="4" COMMENT="" />
    <EXPORT ORDINAL="1681" NAME="?FindCloseBlock@CBCGPEditCtrl@@IAEHHPAUBCGP_EDIT_COLOR_BLOCK@@@Z" PURGE="8" COMMENT="" />
    <EXPORT ORDINAL="1682" NAME="?FindCollapsedBlock@CBCGPEditCtrl@@IBEPAVCBCGPOutlineNode@@H@Z" PURGE="4" COMMENT="" />
    <EXPORT ORDINAL="1683" NAME="?FindCollapsedBlock@CBCGPOutlineNode@@QBEPAV1@H@Z" PURGE="4" COMMENT="" />
    <EXPORT ORDINAL="1684" NAME="?FindCollapsedBlockByPoint@CBCGPEditCtrl@@IBEPAVCBCGPOutlineNode@@VCPoint@@H@Z" PURGE="12" COMMENT="" />
    <EXPORT ORDINAL="1685" NAME="?FindCollapsedBlockByPoint@CBCGPOutlineNode@@QBEPAV1@VCPoint@@HH@Z" PURGE="16" COMMENT="" />
    <EXPORT ORDINAL="1686" NAME="?FindCollapsedBlockInRange@CBCGPEditCtrl@@IBEPAVCBCGPOutlineNode@@HHH@Z" PURGE="12" COMMENT="" />
    <EXPORT ORDINAL="1687" NAME="?FindCollapsedBlockInRange@CBCGPOutlineNode@@QBEPAV1@HHH@Z" PURGE="12" COMMENT="" />
    <EXPORT ORDINAL="1688" NAME="?FindContainer@CBCGPBarContainerManager@@UAEPAVCBCGPBarContainer@@PAVCBCGPDockingControlBar@@AAH@Z" PURGE="8" COMMENT="" />
    <EXPORT ORDINAL="1689" NAME="?FindContainer@CBCGPSlider@@QAEPAVCBCGPBarContainer@@PAVCBCGPDockingControlBar@@AAH@Z" PURGE="-1" COMMENT="" />
    <EXPORT ORDINAL="1690" NAME="?FindDefaultAccelerator@CBCGPKeyboardManager@@SAHIAAV?$CStringT@DV?$StrTraitMFC_DLL@DV?$ChTraitsCRT@D@ATL@@@@@ATL@@PAVCFrameWnd@@H@Z" PURGE="0" COMMENT="" />
    <EXPORT ORDINAL="1691" NAME="?FindDestBar@CBCGPPopupMenuBar@@QAEPAVCBCGPToolBar@@VCPoint@@@Z" PURGE="8" COMMENT="" />
    <EXPORT ORDINAL="1692" NAME="?FindDockBar@CBCGPDockManager@@UAEPAVCBCGPDockBar@@KH@Z" PURGE="8" COMMENT="" />
    <EXPORT ORDINAL="1693" NAME="?FindDockBarByControlBar@CBCGPDockManager@@UAEPAVCBCGPDockBar@@PAVCBCGPControlBar@@@Z" PURGE="4" COMMENT="" />
    <EXPORT ORDINAL="1694" NAME="?FindDropIndex@CBCGPMenuBar@@MBEHVCPoint@@AAVCRect@@@Z" PURGE="12" COMMENT="" />
    <EXPORT ORDINAL="1695" NAME="?FindDropIndex@CBCGPPopupMenuBar@@MBEHVCPoint@@AAVCRect@@@Z" PURGE="12" COMMENT="" />
    <EXPORT ORDINAL="1696" NAME="?FindDropIndex@CBCGPToolBar@@MBEHVCPoint@@AAVCRect@@@Z" PURGE="12" COMMENT="" />
    <EXPORT ORDINAL="1697" NAME="?FindFirstVisibleBar@CBCGPDockBarRow@@IAEPAVCBCGPControlBar@@H@Z" PURGE="4" COMMENT="" />
    <EXPORT ORDINAL="1698" NAME="?FindFittingBlock@CBCGPOutlineParser@@MBEPAVCBCGPOutlineNode@@PAV2@0@Z" PURGE="8" COMMENT="" />
    <EXPORT ORDINAL="1699" NAME="?FindFloatingBarByID@CBCGPMiniFrameWnd@@SAPAVCBCGPBaseControlBar@@I@Z" PURGE="0" COMMENT="" />
    <EXPORT ORDINAL="1700" NAME="?FindHotSpot@CBCGPHotSpotImageCtrl@@MBEPAVCBCGPHotSpot@@I@Z" PURGE="4" COMMENT="" />
    <EXPORT ORDINAL="1701" NAME="?FindHyperlinkString@CBCGPEditCtrl@@UAEHHHAAV?$CStringT@DV?$StrTraitMFC_DLL@DV?$ChTraitsCRT@D@ATL@@@@@ATL@@AAH@Z" PURGE="16" COMMENT="" />
    <EXPORT ORDINAL="1702" NAME="?FindItem@CBCGPToolbarComboBoxButton@@QBEHPBD@Z" PURGE="4" COMMENT="" />
    <EXPORT ORDINAL="1703" NAME="?FindItemByData@CBCGPPropList@@QBEPAVCBCGPProp@@KH@Z" PURGE="8" COMMENT="" />
    <EXPORT ORDINAL="1704" NAME="?FindMarkerByData@CBCGPEditCtrl@@UBEPAVCBCGPEditMarker@@K@Z" PURGE="4" COMMENT="" />
    <EXPORT ORDINAL="1705" NAME="?FindMenuItemText@CBCGPMenuBar@@KAHPAUHMENU__@@IAAV?$CStringT@DV?$StrTraitMFC_DLL@DV?$ChTraitsCRT@D@ATL@@@@@ATL@@@Z" PURGE="0" COMMENT="" />
    <EXPORT ORDINAL="1706" NAME="?FindNextVisibleRow@CBCGPDockBar@@IAEPAVCBCGPDockBarRow@@AAPAU__POSITION@@H@Z" PURGE="8" COMMENT="" />
    <EXPORT ORDINAL="1707" NAME="?FindOneOf@CBCGPEditCtrl@@IBEHABV?$CStringT@DV?$StrTraitMFC_DLL@DV?$ChTraitsCRT@D@ATL@@@@@ATL@@H0@Z" PURGE="12" COMMENT="" />
    <EXPORT ORDINAL="1708" NAME="?FindOpenBlock@CBCGPEditCtrl@@IAEHHPAUBCGP_EDIT_COLOR_BLOCK@@@Z" PURGE="8" COMMENT="" />
    <EXPORT ORDINAL="1709" NAME="?FindRelatedImageList@CBCGPMainClientAreaWnd@@QAEPAVCImageList@@PAVCBCGPTabWnd@@@Z" PURGE="4" COMMENT="" />
    <EXPORT ORDINAL="1710" NAME="?FindRowByRect@CBCGPDockBar@@IAEPAVCBCGPDockBarRow@@VCRect@@@Z" PURGE="16" COMMENT="" />
    <EXPORT ORDINAL="1711" NAME="?FindRowIndex@CBCGPDockBar@@QAEHPAVCBCGPDockBarRow@@@Z" PURGE="4" COMMENT="" />
    <EXPORT ORDINAL="1712" NAME="?FindSubContainer@CBCGPBarContainer@@QAEPAV1@PBVCObject@@W4BC_FIND_CRITERIA@1@@Z" PURGE="8" COMMENT="" />
    <EXPORT ORDINAL="1713" NAME="?FindSubItemByCommand@CBCGPPopupMenu@@QBEPAVCBCGPToolbarMenuButton@@I@Z" PURGE="4" COMMENT="" />
    <EXPORT ORDINAL="1714" NAME="?FindSubItemByData@CBCGPProp@@IBEPAV1@K@Z" PURGE="4" COMMENT="" />
    <EXPORT ORDINAL="1715" NAME="?FindTab@CBCGPTabView@@QBEHPAUHWND__@@@Z" PURGE="4" COMMENT="" />
    <EXPORT ORDINAL="1716" NAME="?FindTabInfo@CBCGPBaseTabWnd@@IAEHHPAPAVCBCGPTabInfo@@@Z" PURGE="8" COMMENT="" />
    <EXPORT ORDINAL="1717" NAME="?FindTabbedBar@CBCGPBarContainer@@QAEPAVCBCGPDockingControlBar@@I@Z" PURGE="4" COMMENT="" />
    <EXPORT ORDINAL="1718" NAME="?FindTabbedBar@CBCGPBarContainerManager@@QAEPAVCBCGPDockingControlBar@@I@Z" PURGE="4" COMMENT="" />
    <EXPORT ORDINAL="1719" NAME="?FindTabbedBar@CBCGPSlider@@QAEPAVCBCGPDockingControlBar@@I@Z" PURGE="4" COMMENT="" />
    <EXPORT ORDINAL="1720" NAME="?FindTargetWnd@CBCGPOutlookWnd@@UAEPAVCWnd@@ABVCPoint@@@Z" PURGE="4" COMMENT="" />
    <EXPORT ORDINAL="1721" NAME="?FindTargetWnd@CBCGPTabWnd@@MAEPAVCWnd@@ABVCPoint@@@Z" PURGE="4" COMMENT="" />
    <EXPORT ORDINAL="1722" NAME="?FindTextA@CBCGPEditCtrl@@UAEHPBDHHH@Z" PURGE="16" COMMENT="" />
    <EXPORT ORDINAL="1723" NAME="?FindTextA@CBCGPEditView@@MAEHABV?$CStringT@DV?$StrTraitMFC_DLL@DV?$ChTraitsCRT@D@ATL@@@@@ATL@@K@Z" PURGE="8" COMMENT="" />
    <EXPORT ORDINAL="1724" NAME="?FindTool@CBCGPUserToolsManager@@QBEPAVCBCGPUserTool@@I@Z" PURGE="4" COMMENT="" />
    <EXPORT ORDINAL="1725" NAME="?FindWordStartFinish@CBCGPEditCtrl@@QBEXHABV?$CStringT@DV?$StrTraitMFC_DLL@DV?$ChTraitsCRT@D@ATL@@@@@ATL@@AAH1H@Z" PURGE="20" COMMENT="" />
    <EXPORT ORDINAL="1726" NAME="?FireChangeActiveTab@CBCGPBaseTabWnd@@UAEXH@Z" PURGE="4" COMMENT="" />
    <EXPORT ORDINAL="1727" NAME="?FireChangingActiveTab@CBCGPBaseTabWnd@@UAEHH@Z" PURGE="4" COMMENT="" />
    <EXPORT ORDINAL="1728" NAME="?FixupVirtualRects@CBCGPDockBar@@UAEXXZ" PURGE="0" COMMENT="" />
    <EXPORT ORDINAL="1729" NAME="?FixupVirtualRects@CBCGPDockBarRow@@QAEX_NPAVCBCGPControlBar@@@Z" PURGE="8" COMMENT="" />
    <EXPORT ORDINAL="1730" NAME="?FixupVirtualRects@CBCGPDockManager@@UAEXXZ" PURGE="0" COMMENT="" />
    <EXPORT ORDINAL="1731" NAME="?FlipRect@CBCGPGlobalUtils@@QAEXAAVCRect@@H@Z" PURGE="8" COMMENT="" />
    <EXPORT ORDINAL="1732" NAME="?Float@CBCGPAppBarWnd@@QAEHVCRect@@@Z" PURGE="16" COMMENT="" />
    <EXPORT ORDINAL="1733" NAME="?Float@CBCGPAppBarWnd@@QAEHXZ" PURGE="0" COMMENT="" />
    <EXPORT ORDINAL="1734" NAME="?FloatControlBar@CBCGPBaseControlBar@@UAEHVCRect@@W4BCGP_DOCK_METHOD@@_N@Z" PURGE="24" COMMENT="" />
    <EXPORT ORDINAL="1735" NAME="?FloatControlBar@CBCGPBaseTabbedBar@@MAEHVCRect@@W4BCGP_DOCK_METHOD@@_N@Z" PURGE="24" COMMENT="" />
    <EXPORT ORDINAL="1736" NAME="?FloatControlBar@CBCGPControlBar@@UAEHVCRect@@W4BCGP_DOCK_METHOD@@_N@Z" PURGE="24" COMMENT="" />
    <EXPORT ORDINAL="1737" NAME="?FloatTab@CBCGPBaseTabbedBar@@UAEHPAVCWnd@@HW4BCGP_DOCK_METHOD@@H@Z" PURGE="16" COMMENT="" />
    <EXPORT ORDINAL="1738" NAME="?FloatTab@CBCGPTabbedControlBar@@UAEHPAVCWnd@@HW4BCGP_DOCK_METHOD@@H@Z" PURGE="16" COMMENT="" />
    <EXPORT ORDINAL="1739" NAME="?FloodFil@CImagePaintArea@@IAEXABVCPoint@@@Z" PURGE="4" COMMENT="" />
    <EXPORT ORDINAL="1740" NAME="?ForceShowNavToolbar@CBCGPTasksPane@@IBEHXZ" PURGE="0" COMMENT="" />
    <EXPORT ORDINAL="1741" NAME="?Format@CBCGPKeyHelper@@QBEXAAV?$CStringT@DV?$StrTraitMFC_DLL@DV?$ChTraitsCRT@D@ATL@@@@@ATL@@@Z" PURGE="4" COMMENT="" />
    <EXPORT ORDINAL="1742" NAME="?FormatItem@CBCGPKeyMapDlg@@MBE?AV?$CStringT@DV?$StrTraitMFC_DLL@DV?$ChTraitsCRT@D@ATL@@@@@ATL@@H@Z" PURGE="8" COMMENT="" />
    <EXPORT ORDINAL="1743" NAME="?FormatProperty@CBCGPColorProp@@UAE?AV?$CStringT@DV?$StrTraitMFC_DLL@DV?$ChTraitsCRT@D@ATL@@@@@ATL@@XZ" PURGE="4" COMMENT="" />
    <EXPORT ORDINAL="1744" NAME="?FormatProperty@CBCGPFontProp@@UAE?AV?$CStringT@DV?$StrTraitMFC_DLL@DV?$ChTraitsCRT@D@ATL@@@@@ATL@@XZ" PURGE="4" COMMENT="" />
    <EXPORT ORDINAL="1745" NAME="?FormatProperty@CBCGPProp@@UAE?AV?$CStringT@DV?$StrTraitMFC_DLL@DV?$ChTraitsCRT@D@ATL@@@@@ATL@@XZ" PURGE="4" COMMENT="" />
    <EXPORT ORDINAL="1746" NAME="?FrameFromPoint@CBCGPDockManager@@UBEPAVCBCGPMiniFrameWnd@@VCPoint@@PAV2@H@Z" PURGE="16" COMMENT="" />
    <EXPORT ORDINAL="1747" NAME="?FrameFromPoint@CBCGPMiniFrameWnd@@SAPAV1@VCPoint@@HPAV1@H@Z" PURGE="0" COMMENT="" />
    <EXPORT ORDINAL="1748" NAME="?FreeItem@CBCGPShellManager@@QAEXPAU_ITEMIDLIST@@@Z" PURGE="4" COMMENT="" />
    <EXPORT ORDINAL="1749" NAME="?FreeReleasedContainer@CBCGPBarContainer@@IAEXXZ" PURGE="0" COMMENT="" />
    <EXPORT ORDINAL="1750" NAME="?FromHandlePermanent@CBCGPToolBar@@SAPAV1@PAUHWND__@@@Z" PURGE="0" COMMENT="" />
    <EXPORT ORDINAL="1751" NAME="?GetAHRestoredRect@CBCGPDockingControlBar@@QBE?AVCRect@@XZ" PURGE="4" COMMENT="" />
    <EXPORT ORDINAL="1752" NAME="?GetAHSlideMode@CBCGPDockingControlBar@@UBEIXZ" PURGE="0" COMMENT="" />
    <EXPORT ORDINAL="1753" NAME="?GetAccObjectRes@GLOBAL_DATA@@QAEJPAUBCGPACCDATA@@PAUIAccessible@@@Z" PURGE="8" COMMENT="" />
    <EXPORT ORDINAL="1754" NAME="?GetAccel@CKeyAssign@@QBEPBUtagACCEL@@XZ" PURGE="0" COMMENT="" />
    <EXPORT ORDINAL="1755" NAME="?GetActiveMenu@CBCGPPopupMenu@@SAPAV1@XZ" PURGE="0" COMMENT="" />
    <EXPORT ORDINAL="1756" NAME="?GetActivePage@CBCGPTasksPane@@QBEHXZ" PURGE="0" COMMENT="" />
    <EXPORT ORDINAL="1757" NAME="?GetActivePage@CBCGPToolBox@@QBEHXZ" PURGE="0" COMMENT="" />
    <EXPORT ORDINAL="1758" NAME="?GetActivePopup@CBCGPFrameWnd@@QBEPAVCBCGPPopupMenu@@XZ" PURGE="0" COMMENT="" />
    <EXPORT ORDINAL="1759" NAME="?GetActivePopup@CBCGPMDIFrameWnd@@QBEPAVCBCGPPopupMenu@@XZ" PURGE="0" COMMENT="" />
    <EXPORT ORDINAL="1760" NAME="?GetActivePopup@CBCGPOleDocIPFrameWnd@@QBEPAVCBCGPPopupMenu@@XZ" PURGE="0" COMMENT="" />
    <EXPORT ORDINAL="1761" NAME="?GetActivePopup@CBCGPOleIPFrameWnd@@QBEPAVCBCGPPopupMenu@@XZ" PURGE="0" COMMENT="" />
    <EXPORT ORDINAL="1762" NAME="?GetActiveSkin@CBCGPSkinManager@@QBEHXZ" PURGE="0" COMMENT="" />
    <EXPORT ORDINAL="1763" NAME="?GetActiveTab@CBCGPBaseTabWnd@@UBEHXZ" PURGE="0" COMMENT="" />
    <EXPORT ORDINAL="1764" NAME="?GetActiveTabColor@CBCGPBaseTabWnd@@UBEKXZ" PURGE="0" COMMENT="" />
    <EXPORT ORDINAL="1765" NAME="?GetActiveTabTextColor@CBCGPBaseTabWnd@@UBEKXZ" PURGE="0" COMMENT="" />
    <EXPORT ORDINAL="1766" NAME="?GetActiveView@CBCGPTabView@@QBEPAVCView@@XZ" PURGE="0" COMMENT="" />
    <EXPORT ORDINAL="1767" NAME="?GetActiveWnd@CBCGPBaseTabWnd@@UBEPAVCWnd@@XZ" PURGE="0" COMMENT="" />
    <EXPORT ORDINAL="1768" NAME="?GetAlignRect@CBCGPAutoHideDockBar@@QBEXAAVCRect@@@Z" PURGE="4" COMMENT="" />
    <EXPORT ORDINAL="1769" NAME="?GetAlignment@CBCGPAutoHideButton@@QBEKXZ" PURGE="0" COMMENT="" />
    <EXPORT ORDINAL="1770" NAME="?GetAlignment@CBCGPCaptionBar@@QAE?AW4BarElementAlignment@1@W4BarElement@1@@Z" PURGE="4" COMMENT="" />
    <EXPORT ORDINAL="1771" NAME="?GetAllBlocks@CBCGPOutlineNode@@QBEXAAVCObList@@H@Z" PURGE="8" COMMENT="" />
    <EXPORT ORDINAL="1772" NAME="?GetAllButtons@CBCGPToolBar@@QBEABVCObList@@XZ" PURGE="0" COMMENT="" />
    <EXPORT ORDINAL="1773" NAME="?GetAllToolbars@CBCGPToolBar@@SAABVCObList@@XZ" PURGE="0" COMMENT="" />
    <EXPORT ORDINAL="1774" NAME="?GetAlwaysLight@CBCGPToolBarImages@@QBEHXZ" PURGE="0" COMMENT="" />
    <EXPORT ORDINAL="1775" NAME="?GetAlwaysOnTop@CBCGPAppBarWnd@@QBEHXZ" PURGE="0" COMMENT="" />
    <EXPORT ORDINAL="1776" NAME="?GetAngleFromPoint@CBCGPColorPickerCtrl@@IAEHHH@Z" PURGE="8" COMMENT="" />
    <EXPORT ORDINAL="1777" NAME="?GetAnimationSpeed@CBCGPPopupMenu@@SAIXZ" PURGE="0" COMMENT="" />
    <EXPORT ORDINAL="1778" NAME="?GetAnimationType@CBCGPPopupMenu@@SA?AW4ANIMATION_TYPE@1@XZ" PURGE="0" COMMENT="" />
    <EXPORT ORDINAL="1779" NAME="?GetAppbarState@CBCGPAppBarWnd@@SAPAUtagAPPBARSTATE@1@PAUHWND__@@@Z" PURGE="0" COMMENT="" />
    <EXPORT ORDINAL="1780" NAME="?GetArgumentsMenuID@CBCGPUserToolsManager@@QBEIXZ" PURGE="0" COMMENT="" />
    <EXPORT ORDINAL="1781" NAME="?GetAssociatedSiblingBarIDs@CBCGPBarContainer@@QAEPAV?$CList@II@@PAVCBCGPDockingControlBar@@@Z" PURGE="4" COMMENT="" />
    <EXPORT ORDINAL="1782" NAME="?GetAutoColors@CBCGPBaseTabWnd@@QBEABV?$CArray@KK@@XZ" PURGE="0" COMMENT="" />
    <EXPORT ORDINAL="1783" NAME="?GetAutoHide@CBCGPAppBarWnd@@QBEHXZ" PURGE="0" COMMENT="" />
    <EXPORT ORDINAL="1784" NAME="?GetAutoHideBar@CBCGPAppBarWnd@@QAEPAUHWND__@@I@Z" PURGE="4" COMMENT="" />
    <EXPORT ORDINAL="1785" NAME="?GetAutoHideButton@CBCGPDockingControlBar@@QAEPAVCBCGPAutoHideButton@@XZ" PURGE="0" COMMENT="" />
    <EXPORT ORDINAL="1786" NAME="?GetAutoHideButtonTextColor@CBCGPVisualManager@@UAEKPAVCBCGPAutoHideButton@@@Z" PURGE="4" COMMENT="" />
    <EXPORT ORDINAL="1787" NAME="?GetAutoHideButtonTextColor@CBCGPVisualManagerXP@@MAEKPAVCBCGPAutoHideButton@@@Z" PURGE="4" COMMENT="" />
    <EXPORT ORDINAL="1788" NAME="?GetAutoHideToolBar@CBCGPDockingControlBar@@QBEPAVCBCGPAutoHideToolBar@@XZ" PURGE="0" COMMENT="" />
    <EXPORT ORDINAL="1789" NAME="?GetAutoHideWindow@CBCGPAutoHideButton@@QBEPAVCBCGPDockingControlBar@@XZ" PURGE="0" COMMENT="" />
    <EXPORT ORDINAL="1790" NAME="?GetAutoResize@CBCGPDateTimeCtrl@@QBEHXZ" PURGE="0" COMMENT="" />
    <EXPORT ORDINAL="1791" NAME="?GetAutoResize@CBCGPDurationCtrl@@QBEHXZ" PURGE="0" COMMENT="" />
    <EXPORT ORDINAL="1792" NAME="?GetAutomaticColor@CBCGPColorButton@@QBEKXZ" PURGE="0" COMMENT="" />
    <EXPORT ORDINAL="1793" NAME="?GetAutomaticColor@CBCGPColorMenuButton@@QBEKXZ" PURGE="0" COMMENT="" />
    <EXPORT ORDINAL="1794" NAME="?GetAvailableExpandSize@CBCGPControlBar@@UBEHXZ" PURGE="0" COMMENT="" />
    <EXPORT ORDINAL="1795" NAME="?GetAvailableExpandSize@CBCGPMenuBar@@UBEHXZ" PURGE="0" COMMENT="" />
    <EXPORT ORDINAL="1796" NAME="?GetAvailableLength@CBCGPDockBarRow@@UBEHH@Z" PURGE="4" COMMENT="" />
    <EXPORT ORDINAL="1797" NAME="?GetAvailableLengthRect@CBCGPDockBarRow@@IAEHXZ" PURGE="0" COMMENT="" />
    <EXPORT ORDINAL="1798" NAME="?GetAvailableSpace@CBCGPBarContainerManager@@UBEXAAVCRect@@@Z" PURGE="4" COMMENT="" />
    <EXPORT ORDINAL="1799" NAME="?GetAvailableSpace@CBCGPDockBarRow@@UAEXAAVCRect@@@Z" PURGE="4" COMMENT="" />
    <EXPORT ORDINAL="1800" NAME="?GetAvailableStretchSize@CBCGPControlBar@@UBEHXZ" PURGE="0" COMMENT="" />
    <EXPORT ORDINAL="1801" NAME="?GetBCGStyle@CBCGPBaseControlBar@@UBEKXZ" PURGE="0" COMMENT="" />
    <EXPORT ORDINAL="1802" NAME="?GetBackgroundColor@CBCGPDateTimeCtrl@@QBEKXZ" PURGE="0" COMMENT="" />
    <EXPORT ORDINAL="1803" NAME="?GetBackgroundColor@CBCGPDurationCtrl@@QBEKXZ" PURGE="0" COMMENT="" />
    <EXPORT ORDINAL="1804" NAME="?GetBackgroundColor@CBCGPHotSpotImageCtrl@@QBEKXZ" PURGE="0" COMMENT="" />
    <EXPORT ORDINAL="1805" NAME="?GetBackgroundFromParent@CBCGPControlBarImpl@@IAEHPAVCDC@@@Z" PURGE="4" COMMENT="" />
    <EXPORT ORDINAL="1806" NAME="?GetBarCount@CBCGPBarContainerManager@@QBEHXZ" PURGE="0" COMMENT="" />
    <EXPORT ORDINAL="1807" NAME="?GetBarCount@CBCGPDockBarRow@@QBEHXZ" PURGE="0" COMMENT="" />
    <EXPORT ORDINAL="1808" NAME="?GetBarIcon@CBCGPBaseControlBar@@UAEPAUHICON__@@H@Z" PURGE="4" COMMENT="" />
    <EXPORT ORDINAL="1809" NAME="?GetBarIcon@CBCGPBaseTabbedBar@@UAEPAUHICON__@@H@Z" PURGE="4" COMMENT="" />
    <EXPORT ORDINAL="1810" NAME="?GetBarRect@CBCGPBaseControlBar@@QBEABVCRect@@XZ" PURGE="0" COMMENT="" />
    <EXPORT ORDINAL="1811" NAME="?GetBarStyle@CBCGPBaseControlBar@@UBEKXZ" PURGE="0" COMMENT="" />
    <EXPORT ORDINAL="1812" NAME="?GetBaseThemeColor@CBCGPVisualManager2003@@UAEKXZ" PURGE="0" COMMENT="" />
    <EXPORT ORDINAL="1813" NAME="?GetBasicCommands@CBCGPToolBar@@SAABV?$CList@II@@XZ" PURGE="0" COMMENT="" />
    <EXPORT ORDINAL="1814" NAME="?GetBinary@CBCGPWorkspace@@QAEHPBDPAPAEPAI@Z" PURGE="12" COMMENT="" />
    <EXPORT ORDINAL="1815" NAME="?GetBkColor@CBCGPPropList@@QBEKXZ" PURGE="0" COMMENT="" />
    <EXPORT ORDINAL="1816" NAME="?GetBlockType@CBCGPOutlineParser@@QBEPBUBlockType@@H@Z" PURGE="4" COMMENT="" />
    <EXPORT ORDINAL="1817" NAME="?GetBlocksByState@CBCGPOutlineNode@@QBEXAAVCObList@@HH@Z" PURGE="12" COMMENT="" />
    <EXPORT ORDINAL="1818" NAME="?GetBlocksByStateInRange@CBCGPOutlineNode@@QBEXHHAAVCObList@@HHH@Z" PURGE="24" COMMENT="" />
    <EXPORT ORDINAL="1819" NAME="?GetBlocksInRange@CBCGPOutlineNode@@QBEXHHAAVCObList@@HH@Z" PURGE="20" COMMENT="" />
    <EXPORT ORDINAL="1820" NAME="?GetBorderSize@CBCGPCaptionBar@@QBEHXZ" PURGE="0" COMMENT="" />
    <EXPORT ORDINAL="1821" NAME="?GetBorderSize@CBCGPOutlookWnd@@QBEHXZ" PURGE="0" COMMENT="" />
    <EXPORT ORDINAL="1822" NAME="?GetBorders@CBCGPControlBar@@QBE?AVCRect@@XZ" PURGE="4" COMMENT="" />
    <EXPORT ORDINAL="1823" NAME="?GetBrotherToolbar@CBCGPToolBar@@QAEPAV1@XZ" PURGE="0" COMMENT="" />
    <EXPORT ORDINAL="1824" NAME="?GetButton@CBCGPToolBar@@QBEPAVCBCGPToolbarButton@@H@Z" PURGE="4" COMMENT="" />
    <EXPORT ORDINAL="1825" NAME="?GetButtonExtraBorder@CBCGPVisualManager@@UBE?AVCSize@@XZ" PURGE="4" COMMENT="" />
    <EXPORT ORDINAL="1826" NAME="?GetButtonExtraBorder@CBCGPWinXPVisualManager@@UBE?AVCSize@@XZ" PURGE="4" COMMENT="" />
    <EXPORT ORDINAL="1827" NAME="?GetButtonID@CBCGPEditListBase@@QBEIH@Z" PURGE="4" COMMENT="" />
    <EXPORT ORDINAL="1828" NAME="?GetButtonInfo@CBCGPToolBar@@QBEXHAAI0AAH@Z" PURGE="16" COMMENT="" />
    <EXPORT ORDINAL="1829" NAME="?GetButtonNum@CBCGPEditListBase@@QBEHI@Z" PURGE="4" COMMENT="" />
    <EXPORT ORDINAL="1830" NAME="?GetButtonRect@CBCGPCalendarBar@@IBEHHAAVCRect@@H@Z" PURGE="12" COMMENT="" />
    <EXPORT ORDINAL="1831" NAME="?GetButtonRect@CBCGPCaptionBar@@QBE?AVCRect@@XZ" PURGE="4" COMMENT="" />
    <EXPORT ORDINAL="1832" NAME="?GetButtonSize@CBCGPToolBar@@QBE?AVCSize@@XZ" PURGE="4" COMMENT="" />
    <EXPORT ORDINAL="1833" NAME="?GetButtonStyle@CBCGPToolBar@@QBEIH@Z" PURGE="4" COMMENT="" />
    <EXPORT ORDINAL="1834" NAME="?GetButtonText@CBCGPToolBar@@QBE?AV?$CStringT@DV?$StrTraitMFC_DLL@DV?$ChTraitsCRT@D@ATL@@@@@ATL@@H@Z" PURGE="8" COMMENT="" />
    <EXPORT ORDINAL="1835" NAME="?GetButtonText@CBCGPToolBar@@QBEXHAAV?$CStringT@DV?$StrTraitMFC_DLL@DV?$ChTraitsCRT@D@ATL@@@@@ATL@@@Z" PURGE="8" COMMENT="" />
    <EXPORT ORDINAL="1836" NAME="?GetButtonsCount@CBCGPEditListBase@@QBEHXZ" PURGE="0" COMMENT="" />
    <EXPORT ORDINAL="1837" NAME="?GetButtonsFont@CBCGPOutlookBar@@QBEPAVCFont@@XZ" PURGE="0" COMMENT="" />
    <EXPORT ORDINAL="1838" NAME="?GetByCmd@CBCGPToolbarComboBoxButton@@SAPAV1@IH@Z" PURGE="0" COMMENT="" />
    <EXPORT ORDINAL="1839" NAME="?GetByCmd@CBCGPToolbarDateTimeCtrl@@SAPAV1@I@Z" PURGE="0" COMMENT="" />
    <EXPORT ORDINAL="1840" NAME="?GetByCmd@CBCGPToolbarEditBoxButton@@SAPAV1@I@Z" PURGE="0" COMMENT="" />
    <EXPORT ORDINAL="1841" NAME="?GetCBAndAlignFromPoint@CBCGPGlobalUtils@@QAEHAAVCBCGPBarContainerManager@@VCPoint@@PAPAVCBCGPDockingControlBar@@AAKAAH4@Z" PURGE="28" COMMENT="" />
    <EXPORT ORDINAL="1842" NAME="?GetCalendarByCmdID@CBCGPCalendarMenuButton@@SA?BVCOleDateTime@ATL@@I@Z" PURGE="0" COMMENT="" />
    <EXPORT ORDINAL="1843" NAME="?GetCalendarGridSize@CBCGPCalendarBar@@IBE?AVCSize@@H@Z" PURGE="8" COMMENT="" />
    <EXPORT ORDINAL="1844" NAME="?GetCaptionBarTextColor@CBCGPVisualManager@@UAEKPAVCBCGPCaptionBar@@@Z" PURGE="4" COMMENT="" />
    <EXPORT ORDINAL="1845" NAME="?GetCaptionButtonExtraBorder@CBCGPVisualManager@@UBE?AVCSize@@XZ" PURGE="4" COMMENT="" />
    <EXPORT ORDINAL="1846" NAME="?GetCaptionButtonExtraBorder@CBCGPWinXPVisualManager@@UBE?AVCSize@@XZ" PURGE="4" COMMENT="" />
    <EXPORT ORDINAL="1847" NAME="?GetCaptionButtonTotalWidth@CBCGPMiniFrameWnd@@IBEHXZ" PURGE="0" COMMENT="" />
    <EXPORT ORDINAL="1848" NAME="?GetCaptionHeight@CBCGPBaseControlBar@@UBEHXZ" PURGE="0" COMMENT="" />
    <EXPORT ORDINAL="1849" NAME="?GetCaptionHeight@CBCGPDockingControlBar@@UBEHXZ" PURGE="0" COMMENT="" />
    <EXPORT ORDINAL="1850" NAME="?GetCaptionHeight@CBCGPMiniFrameWnd@@UBEHXZ" PURGE="0" COMMENT="" />
    <EXPORT ORDINAL="1851" NAME="?GetCaptionRect@CBCGPAppBarWnd@@UBEXAAVCRect@@@Z" PURGE="4" COMMENT="" />
    <EXPORT ORDINAL="1852" NAME="?GetCaptionRect@CBCGPMiniFrameWnd@@UBEXAAVCRect@@@Z" PURGE="4" COMMENT="" />
    <EXPORT ORDINAL="1853" NAME="?GetCaptionText@CBCGPAppBarWnd@@UBE?AV?$CStringT@DV?$StrTraitMFC_DLL@DV?$ChTraitsCRT@D@ATL@@@@@ATL@@XZ" PURGE="4" COMMENT="" />
    <EXPORT ORDINAL="1854" NAME="?GetCaptionText@CBCGPMiniFrameWnd@@UAE?AV?$CStringT@DV?$StrTraitMFC_DLL@DV?$ChTraitsCRT@D@ATL@@@@@ATL@@XZ" PURGE="4" COMMENT="" />
    <EXPORT ORDINAL="1855" NAME="?GetCaptionText@CBCGPMultiMiniFrameWnd@@UAE?AV?$CStringT@DV?$StrTraitMFC_DLL@DV?$ChTraitsCRT@D@ATL@@@@@ATL@@XZ" PURGE="4" COMMENT="" />
    <EXPORT ORDINAL="1856" NAME="?GetCaretSize@CBCGPEditCtrl@@UBE?AVCSize@@XZ" PURGE="4" COMMENT="" />
    <EXPORT ORDINAL="1857" NAME="?GetCharAt@CBCGPEditCtrl@@QBEDHH@Z" PURGE="8" COMMENT="" />
    <EXPORT ORDINAL="1858" NAME="?GetChildItems@CBCGPShellTree@@IAEHPAU_TREEITEM@@@Z" PURGE="4" COMMENT="" />
    <EXPORT ORDINAL="1859" NAME="?GetClientAreaBounds@CBCGPDockManager@@QAEXAAVCRect@@@Z" PURGE="4" COMMENT="" />
    <EXPORT ORDINAL="1860" NAME="?GetClientAreaBounds@CBCGPDockManager@@QBE?AVCRect@@XZ" PURGE="4" COMMENT="" />
    <EXPORT ORDINAL="1861" NAME="?GetClientHotSpot@CBCGPControlBar@@QBE?AVCPoint@@XZ" PURGE="4" COMMENT="" />
    <EXPORT ORDINAL="1862" NAME="?GetClientRect@CBCGPDockBarRow@@QBEXAAVCRect@@@Z" PURGE="4" COMMENT="" />
    <EXPORT ORDINAL="1863" NAME="?GetClipboardFormat@CBCGPToolbarButton@@SAGXZ" PURGE="0" COMMENT="" />
    <EXPORT ORDINAL="1864" NAME="?GetCmdImage@CBCGPCommandManager@@QBEHIH@Z" PURGE="8" COMMENT="" />
    <EXPORT ORDINAL="1865" NAME="?GetCmdMgr@@YAPAVCBCGPCommandManager@@XZ" PURGE="0" COMMENT="" />
    <EXPORT ORDINAL="1866" NAME="?GetColdImages@CBCGPToolBar@@SAPAVCBCGPToolBarImages@@XZ" PURGE="0" COMMENT="" />
    <EXPORT ORDINAL="1867" NAME="?GetColor@CBCGPColorBar@@QBEKXZ" PURGE="0" COMMENT="" />
    <EXPORT ORDINAL="1868" NAME="?GetColor@CBCGPColorButton@@QBEKXZ" PURGE="0" COMMENT="" />
    <EXPORT ORDINAL="1869" NAME="?GetColor@CBCGPColorDialog@@QBEKXZ" PURGE="0" COMMENT="" />
    <EXPORT ORDINAL="1870" NAME="?GetColor@CBCGPColorMenuButton@@QBEKXZ" PURGE="0" COMMENT="" />
    <EXPORT ORDINAL="1871" NAME="?GetColor@CBCGPColorPickerCtrl@@QBEKXZ" PURGE="0" COMMENT="" />
    <EXPORT ORDINAL="1872" NAME="?GetColor@CBCGPColorProp@@QBEKXZ" PURGE="0" COMMENT="" />
    <EXPORT ORDINAL="1873" NAME="?GetColor@CBCGPFontProp@@QBEKXZ" PURGE="0" COMMENT="" />
    <EXPORT ORDINAL="1874" NAME="?GetColor@GLOBAL_DATA@@QAEKH@Z" PURGE="-1" COMMENT="" />
    <EXPORT ORDINAL="1875" NAME="?GetColorByCmdID@CBCGPColorMenuButton@@SAKI@Z" PURGE="0" COMMENT="" />
    <EXPORT ORDINAL="1876" NAME="?GetColorGridSize@CBCGPColorBar@@IBE?AVCSize@@H@Z" PURGE="8" COMMENT="" />
    <EXPORT ORDINAL="1877" NAME="?GetColumnFromOffset@CBCGPEditCtrl@@IBEHHH@Z" PURGE="8" COMMENT="" />
    <EXPORT ORDINAL="1878" NAME="?GetColumnState@CBCGPHeaderCtrl@@QBEHH@Z" PURGE="4" COMMENT="" />
    <EXPORT ORDINAL="1879" NAME="?GetColumnWidth@CBCGPMenuBar@@UBEHXZ" PURGE="0" COMMENT="" />
    <EXPORT ORDINAL="1880" NAME="?GetColumnWidth@CBCGPToolBar@@UBEHXZ" PURGE="0" COMMENT="" />
    <EXPORT ORDINAL="1881" NAME="?GetComboBox@CBCGPToolbarComboBoxButton@@QBEPAVCComboBox@@XZ" PURGE="0" COMMENT="" />
    <EXPORT ORDINAL="1882" NAME="?GetCommand@CBCGPUserTool@@QBEABV?$CStringT@DV?$StrTraitMFC_DLL@DV?$ChTraitsCRT@D@ATL@@@@@ATL@@XZ" PURGE="0" COMMENT="" />
    <EXPORT ORDINAL="1883" NAME="?GetCommandButtons@CBCGPToolBar@@SAHIAAVCObList@@@Z" PURGE="0" COMMENT="" />
    <EXPORT ORDINAL="1884" NAME="?GetCommandID@CBCGPCalculator@@QBEIXZ" PURGE="0" COMMENT="" />
    <EXPORT ORDINAL="1885" NAME="?GetCommandID@CBCGPCalendarBar@@QBEIXZ" PURGE="0" COMMENT="" />
    <EXPORT ORDINAL="1886" NAME="?GetCommandID@CBCGPColorBar@@QBEIXZ" PURGE="0" COMMENT="" />
    <EXPORT ORDINAL="1887" NAME="?GetCommandId@CBCGPUserTool@@QBEIXZ" PURGE="0" COMMENT="" />
    <EXPORT ORDINAL="1888" NAME="?GetCommandKeys@CBCGPKeyMapDlg@@MBE?AV?$CStringT@DV?$StrTraitMFC_DLL@DV?$ChTraitsCRT@D@ATL@@@@@ATL@@I@Z" PURGE="8" COMMENT="" />
    <EXPORT ORDINAL="1889" NAME="?GetCommandName@CBCGPToolbarCustomize@@QBEPBDI@Z" PURGE="4" COMMENT="" />
    <EXPORT ORDINAL="1890" NAME="?GetCommandTarget@CBCGPPopupMenuBar@@MBEPAVCWnd@@XZ" PURGE="0" COMMENT="" />
    <EXPORT ORDINAL="1891" NAME="?GetCommandTarget@CBCGPToolBar@@MBEPAVCWnd@@XZ" PURGE="0" COMMENT="" />
    <EXPORT ORDINAL="1892" NAME="?GetCommands@CBCGPToolbarMenuButton@@QBEABVCObList@@XZ" PURGE="0" COMMENT="" />
    <EXPORT ORDINAL="1893" NAME="?GetContainerFrameWindow@CBCGPOleDocIPFrameWnd@@QAEPAVCBCGPOleCntrFrameWnd@@XZ" PURGE="0" COMMENT="" />
    <EXPORT ORDINAL="1894" NAME="?GetContainerFrameWindow@CBCGPOleIPFrameWnd@@QAEPAVCBCGPOleCntrFrameWnd@@XZ" PURGE="0" COMMENT="" />
    <EXPORT ORDINAL="1895" NAME="?GetContainerManager@CBCGPMultiMiniFrameWnd@@QAEAAVCBCGPBarContainerManager@@XZ" PURGE="0" COMMENT="" />
    <EXPORT ORDINAL="1896" NAME="?GetContentsAll@CBCGPToolbarEditBoxButton@@SA?AV?$CStringT@DV?$StrTraitMFC_DLL@DV?$ChTraitsCRT@D@ATL@@@@@ATL@@I@Z" PURGE="0" COMMENT="" />
    <EXPORT ORDINAL="1897" NAME="?GetContextMenuID@CBCGPToolbarComboBoxButton@@QAEIXZ" PURGE="0" COMMENT="" />
    <EXPORT ORDINAL="1898" NAME="?GetContextMenuID@CBCGPToolbarEditBoxButton@@QAEIXZ" PURGE="0" COMMENT="" />
    <EXPORT ORDINAL="1899" NAME="?GetContextMenuManager@CBCGPWorkspace@@QAEPAVCBCGPContextMenuManager@@XZ" PURGE="0" COMMENT="" />
    <EXPORT ORDINAL="1900" NAME="?GetControlBar@CBCGPFrameWnd@@QAEPAVCBCGPBaseControlBar@@I@Z" PURGE="4" COMMENT="" />
    <EXPORT ORDINAL="1901" NAME="?GetControlBar@CBCGPMDIChildWnd@@QAEPAVCBCGPBaseControlBar@@I@Z" PURGE="4" COMMENT="" />
    <EXPORT ORDINAL="1902" NAME="?GetControlBar@CBCGPMDIFrameWnd@@QAEPAVCBCGPBaseControlBar@@I@Z" PURGE="4" COMMENT="" />
    <EXPORT ORDINAL="1903" NAME="?GetControlBar@CBCGPMiniFrameWnd@@UBEPAVCWnd@@XZ" PURGE="0" COMMENT="" />
    <EXPORT ORDINAL="1904" NAME="?GetControlBar@CBCGPMultiMiniFrameWnd@@UBEPAVCWnd@@XZ" PURGE="0" COMMENT="" />
    <EXPORT ORDINAL="1905" NAME="?GetControlBar@CBCGPOleCntrFrameWnd@@QAEPAVCBCGPBaseControlBar@@I@Z" PURGE="4" COMMENT="" />
    <EXPORT ORDINAL="1906" NAME="?GetControlBar@CBCGPOleDocIPFrameWnd@@QAEPAVCBCGPBaseControlBar@@I@Z" PURGE="4" COMMENT="" />
    <EXPORT ORDINAL="1907" NAME="?GetControlBar@CBCGPOleIPFrameWnd@@QAEPAVCBCGPBaseControlBar@@I@Z" PURGE="4" COMMENT="" />
    <EXPORT ORDINAL="1908" NAME="?GetControlBarCount@CBCGPMiniFrameWnd@@UBEHXZ" PURGE="0" COMMENT="" />
    <EXPORT ORDINAL="1909" NAME="?GetControlBarCount@CBCGPMultiMiniFrameWnd@@UBEHXZ" PURGE="0" COMMENT="" />
    <EXPORT ORDINAL="1910" NAME="?GetControlBarList@CBCGPDockBar@@QBEABVCObList@@XZ" PURGE="0" COMMENT="" />
    <EXPORT ORDINAL="1911" NAME="?GetControlBarList@CBCGPDockBarRow@@QBEABVCObList@@XZ" PURGE="0" COMMENT="" />
    <EXPORT ORDINAL="1912" NAME="?GetControlBarList@CBCGPDockManager@@QAEXAAVCObList@@HPAUCRuntimeClass@@@Z" PURGE="12" COMMENT="" />
    <EXPORT ORDINAL="1913" NAME="?GetControlBarList@CBCGPMiniFrameWnd@@KAXAAVCObList@@PAUCRuntimeClass@@@Z" PURGE="0" COMMENT="" />
    <EXPORT ORDINAL="1914" NAME="?GetControlBars@CBCGPSlider@@QAEXAAVCObList@@@Z" PURGE="4" COMMENT="" />
    <EXPORT ORDINAL="1915" NAME="?GetCount@CBCGPEditListBox@@UBEHXZ" PURGE="0" COMMENT="" />
    <EXPORT ORDINAL="1916" NAME="?GetCount@CBCGPOutlineNode@@QBEHH@Z" PURGE="4" COMMENT="" />
    <EXPORT ORDINAL="1917" NAME="?GetCount@CBCGPStatusBar@@QBEHXZ" PURGE="0" COMMENT="" />
    <EXPORT ORDINAL="1918" NAME="?GetCount@CBCGPToolBar@@QBEHXZ" PURGE="0" COMMENT="" />
    <EXPORT ORDINAL="1919" NAME="?GetCount@CBCGPToolBarImages@@QBEHXZ" PURGE="0" COMMENT="" />
    <EXPORT ORDINAL="1920" NAME="?GetCount@CBCGPToolbarComboBoxButton@@QBEHXZ" PURGE="0" COMMENT="" />
    <EXPORT ORDINAL="1921" NAME="?GetCount@CCmdUsageCount@@QBEII@Z" PURGE="4" COMMENT="" />
    <EXPORT ORDINAL="1922" NAME="?GetCountAll@CBCGPToolbarComboBoxButton@@SAHI@Z" PURGE="0" COMMENT="" />
    <EXPORT ORDINAL="1923" NAME="?GetCountInCategory@CBCGPToolbarCustomize@@QBEHPBDABVCObList@@@Z" PURGE="8" COMMENT="" />
    <EXPORT ORDINAL="1924" NAME="?GetCurColumn@CBCGPEditCtrl@@QBEHXZ" PURGE="0" COMMENT="" />
    <EXPORT ORDINAL="1925" NAME="?GetCurOffset@CBCGPEditCtrl@@QBEHXZ" PURGE="0" COMMENT="" />
    <EXPORT ORDINAL="1926" NAME="?GetCurRow@CBCGPEditCtrl@@QBEHXZ" PURGE="0" COMMENT="" />
    <EXPORT ORDINAL="1927" NAME="?GetCurSel@CBCGPPropList@@QBEPAVCBCGPProp@@XZ" PURGE="0" COMMENT="" />
    <EXPORT ORDINAL="1928" NAME="?GetCurSel@CBCGPToolbarComboBoxButton@@QBEHXZ" PURGE="0" COMMENT="" />
    <EXPORT ORDINAL="1929" NAME="?GetCurSelAll@CBCGPToolbarComboBoxButton@@SAHI@Z" PURGE="0" COMMENT="" />
    <EXPORT ORDINAL="1930" NAME="?GetCurrRowEnd@CBCGPEditCtrl@@IBEHH@Z" PURGE="4" COMMENT="" />
    <EXPORT ORDINAL="1931" NAME="?GetCurrRowStart@CBCGPEditCtrl@@IBEHH@Z" PURGE="4" COMMENT="" />
    <EXPORT ORDINAL="1932" NAME="?GetCurrRowTextStart@CBCGPEditCtrl@@IBEHH@Z" PURGE="4" COMMENT="" />
    <EXPORT ORDINAL="1933" NAME="?GetCurrentAlignment@CBCGPBaseControlBar@@UBEKXZ" PURGE="0" COMMENT="" />
    <EXPORT ORDINAL="1934" NAME="?GetCurrentAlignment@CBCGPOutlookBarPane@@MBEKXZ" PURGE="0" COMMENT="" />
    <EXPORT ORDINAL="1935" NAME="?GetCurrentFolder@CBCGPShellList@@QBEHAAV?$CStringT@DV?$StrTraitMFC_DLL@DV?$ChTraitsCRT@D@ATL@@@@@ATL@@@Z" PURGE="4" COMMENT="" />
    <EXPORT ORDINAL="1936" NAME="?GetCurrentFolderName@CBCGPShellList@@QBEHAAV?$CStringT@DV?$StrTraitMFC_DLL@DV?$ChTraitsCRT@D@ATL@@@@@ATL@@@Z" PURGE="4" COMMENT="" />
    <EXPORT ORDINAL="1937" NAME="?GetCurrentFont@CBCGPStatusBar@@IBEPAUHFONT__@@XZ" PURGE="0" COMMENT="" />
    <EXPORT ORDINAL="1938" NAME="?GetCurrentItemIdList@CBCGPShellList@@QBEPAU_ITEMIDLIST@@XZ" PURGE="0" COMMENT="" />
    <EXPORT ORDINAL="1939" NAME="?GetCurrentMenuImageSize@CBCGPPopupMenuBar@@UBE?AVCSize@@XZ" PURGE="4" COMMENT="" />
    <EXPORT ORDINAL="1940" NAME="?GetCurrentShellFolder@CBCGPShellList@@QBEPBUIShellFolder@@XZ" PURGE="0" COMMENT="" />
    <EXPORT ORDINAL="1941" NAME="?GetCurrrentAccMenu@CBCGPFrameWnd@@IBEPAVCMenu@@XZ" PURGE="0" COMMENT="" />
    <EXPORT ORDINAL="1942" NAME="?GetCurrrentAccMenu@CBCGPMDIFrameWnd@@IBEPAVCMenu@@XZ" PURGE="0" COMMENT="" />
    <EXPORT ORDINAL="1943" NAME="?GetCursorPos@CBCGPColorPickerCtrl@@IAE?AVCPoint@@XZ" PURGE="4" COMMENT="" />
    <EXPORT ORDINAL="1944" NAME="?GetCursorRect@CBCGPColorPickerCtrl@@IAE?AVCRect@@XZ" PURGE="4" COMMENT="" />
    <EXPORT ORDINAL="1945" NAME="?GetCustomColors@CBCGPPropList@@QAEXAAK000000@Z" PURGE="28" COMMENT="" />
    <EXPORT ORDINAL="1946" NAME="?GetCustomizeButton@CBCGPToolBar@@QAEPAVCCustomizeButton@@XZ" PURGE="0" COMMENT="" />
    <EXPORT ORDINAL="1947" NAME="?GetDC@CBCGPMemDC@@QAEAAVCDC@@XZ" PURGE="0" COMMENT="" />
    <EXPORT ORDINAL="1948" NAME="?GetData@CBCGPProp@@QBEKXZ" PURGE="0" COMMENT="" />
    <EXPORT ORDINAL="1949" NAME="?GetDataVersion@CBCGPWorkspace@@QBEHXZ" PURGE="0" COMMENT="" />
    <EXPORT ORDINAL="1950" NAME="?GetDataVersionMajor@CBCGPWorkspace@@QBEHXZ" PURGE="0" COMMENT="" />
    <EXPORT ORDINAL="1951" NAME="?GetDataVersionMinor@CBCGPWorkspace@@QBEHXZ" PURGE="0" COMMENT="" />
    <EXPORT ORDINAL="1952" NAME="?GetDate@CBCGPCalendarBar@@QBE?AVCOleDateTime@ATL@@XZ" PURGE="4" COMMENT="" />
    <EXPORT ORDINAL="1953" NAME="?GetDate@CBCGPCalendarMenuButton@@QBE?AVCOleDateTime@ATL@@XZ" PURGE="4" COMMENT="" />
    <EXPORT ORDINAL="1954" NAME="?GetDate@CBCGPDateTimeCtrl@@QAENXZ" PURGE="0" COMMENT="" />
    <EXPORT ORDINAL="1955" NAME="?GetDate@CBCGPDateTimeProp@@QBE?AVCOleDateTime@ATL@@XZ" PURGE="4" COMMENT="" />
    <EXPORT ORDINAL="1956" NAME="?GetDateTimeCtrl@CBCGPToolbarDateTimeCtrl@@QBEPAVCDateTimeCtrl@@XZ" PURGE="0" COMMENT="" />
    <EXPORT ORDINAL="1957" NAME="?GetDayButton@CBCGPCalendarBar@@IBEPAVCBCGPCalendarButton@@H@Z" PURGE="4" COMMENT="" />
    <EXPORT ORDINAL="1958" NAME="?GetDefExt@CBCGPUserToolsManager@@QBEABV?$CStringT@DV?$StrTraitMFC_DLL@DV?$ChTraitsCRT@D@ATL@@@@@ATL@@XZ" PURGE="0" COMMENT="" />
    <EXPORT ORDINAL="1959" NAME="?GetDefaultBackColor@CBCGPEditCtrl@@IBEKXZ" PURGE="0" COMMENT="" />
    <EXPORT ORDINAL="1960" NAME="?GetDefaultImage@CBCGPToolBar@@SAHI@Z" PURGE="0" COMMENT="" />
    <EXPORT ORDINAL="1961" NAME="?GetDefaultMenu@CBCGPMenuBar@@QBEPAUHMENU__@@XZ" PURGE="0" COMMENT="" />
    <EXPORT ORDINAL="1962" NAME="?GetDefaultMenuId@CBCGPPopupMenuBar@@QBEIXZ" PURGE="0" COMMENT="" />
    <EXPORT ORDINAL="1963" NAME="?GetDefaultMenuResId@CBCGPMenuBar@@QBEIXZ" PURGE="0" COMMENT="" />
    <EXPORT ORDINAL="1964" NAME="?GetDefaultResId@CBCGPFrameWnd@@QBEIXZ" PURGE="0" COMMENT="" />
    <EXPORT ORDINAL="1965" NAME="?GetDefaultResId@CBCGPMDIFrameWnd@@QBEIXZ" PURGE="0" COMMENT="" />
    <EXPORT ORDINAL="1966" NAME="?GetDefaultResId@CBCGPOleDocIPFrameWnd@@QBEIXZ" PURGE="0" COMMENT="" />
    <EXPORT ORDINAL="1967" NAME="?GetDefaultResId@CBCGPOleIPFrameWnd@@QBEIXZ" PURGE="0" COMMENT="" />
    <EXPORT ORDINAL="1968" NAME="?GetDefaultSlider@CBCGPBarContainerManager@@QBEPAVCBCGPSlider@@XZ" PURGE="0" COMMENT="" />
    <EXPORT ORDINAL="1969" NAME="?GetDefaultSlider@CBCGPDockingControlBar@@QBEPAVCBCGPSlider@@XZ" PURGE="0" COMMENT="" />
    <EXPORT ORDINAL="1970" NAME="?GetDefaultTabsOrder@CBCGPBaseTabbedBar@@QBEABV?$CArray@HH@@XZ" PURGE="0" COMMENT="" />
    <EXPORT ORDINAL="1971" NAME="?GetDefaultTextColor@CBCGPEditCtrl@@IBEKXZ" PURGE="0" COMMENT="" />
    <EXPORT ORDINAL="1972" NAME="?GetDefaultWidth@CBCGPSlider@@SAHXZ" PURGE="0" COMMENT="" />
    <EXPORT ORDINAL="1973" NAME="?GetDescription@CBCGPProp@@QBEABV?$CStringT@DV?$StrTraitMFC_DLL@DV?$ChTraitsCRT@D@ATL@@@@@ATL@@XZ" PURGE="0" COMMENT="" />
    <EXPORT ORDINAL="1974" NAME="?GetDescriptionHeight@CBCGPPropList@@QBEHXZ" PURGE="0" COMMENT="" />
    <EXPORT ORDINAL="1975" NAME="?GetDeviceScrollPosition@CBCGPHotSpotImageCtrl@@IBE?AVCPoint@@XZ" PURGE="4" COMMENT="" />
    <EXPORT ORDINAL="1976" NAME="?GetDisabledImageAlpha@CBCGPToolBarImages@@SAEXZ" PURGE="0" COMMENT="" />
    <EXPORT ORDINAL="1977" NAME="?GetDisabledImages@CBCGPToolBar@@SAPAVCBCGPToolBarImages@@XZ" PURGE="0" COMMENT="" />
    <EXPORT ORDINAL="1978" NAME="?GetDisabledMenuImages@CBCGPToolBar@@SAPAVCBCGPToolBarImages@@XZ" PURGE="0" COMMENT="" />
    <EXPORT ORDINAL="1979" NAME="?GetDockBar@CBCGPDockBarRow@@QBEPAVCBCGPDockBar@@XZ" PURGE="0" COMMENT="" />
    <EXPORT ORDINAL="1980" NAME="?GetDockBarID@CBCGPDockBar@@UBEIXZ" PURGE="0" COMMENT="" />
    <EXPORT ORDINAL="1981" NAME="?GetDockBarRow@CBCGPControlBar@@QBEPAVCBCGPDockBarRow@@XZ" PURGE="0" COMMENT="" />
    <EXPORT ORDINAL="1982" NAME="?GetDockBarRowsList@CBCGPDockBar@@QBEABVCObList@@XZ" PURGE="0" COMMENT="" />
    <EXPORT ORDINAL="1983" NAME="?GetDockFrame@CBCGPOleIPFrameWnd@@QAEPAVCFrameWnd@@XZ" PURGE="0" COMMENT="" />
    <EXPORT ORDINAL="1984" NAME="?GetDockManager@CBCGPFrameWnd@@QAEPAVCBCGPDockManager@@XZ" PURGE="0" COMMENT="" />
    <EXPORT ORDINAL="1985" NAME="?GetDockManager@CBCGPGlobalUtils@@QAEPAVCBCGPDockManager@@PAVCWnd@@@Z" PURGE="4" COMMENT="" />
    <EXPORT ORDINAL="1986" NAME="?GetDockManager@CBCGPMDIChildWnd@@QAEPAVCBCGPDockManager@@XZ" PURGE="0" COMMENT="" />
    <EXPORT ORDINAL="1987" NAME="?GetDockManager@CBCGPMDIFrameWnd@@IAEPAVCBCGPDockManager@@XZ" PURGE="0" COMMENT="" />
    <EXPORT ORDINAL="1988" NAME="?GetDockManager@CBCGPOleCntrFrameWnd@@QAEPAVCBCGPDockManager@@XZ" PURGE="0" COMMENT="" />
    <EXPORT ORDINAL="1989" NAME="?GetDockManager@CBCGPOleDocIPFrameWnd@@QAEPAVCBCGPDockManager@@XZ" PURGE="0" COMMENT="" />
    <EXPORT ORDINAL="1990" NAME="?GetDockManager@CBCGPOleIPFrameWnd@@QAEPAVCBCGPDockManager@@XZ" PURGE="0" COMMENT="" />
    <EXPORT ORDINAL="1991" NAME="?GetDockMode@CBCGPBaseControlBar@@UBE?AW4BCGP_DOCK_TYPE@@XZ" PURGE="0" COMMENT="" />
    <EXPORT ORDINAL="1992" NAME="?GetDockMode@CBCGPBaseToolBar@@UBE?AW4BCGP_DOCK_TYPE@@XZ" PURGE="0" COMMENT="" />
    <EXPORT ORDINAL="1993" NAME="?GetDockMode@CBCGPDockManager@@SA?AW4BCGP_DOCK_TYPE@@XZ" PURGE="0" COMMENT="" />
    <EXPORT ORDINAL="1994" NAME="?GetDockMode@CBCGPMiniFrameWnd@@UBE?AW4BCGP_DOCK_TYPE@@XZ" PURGE="0" COMMENT="" />
    <EXPORT ORDINAL="1995" NAME="?GetDockMode@CBCGPTasksPane@@UBE?AW4BCGP_DOCK_TYPE@@XZ" PURGE="0" COMMENT="" />
    <EXPORT ORDINAL="1996" NAME="?GetDockMode@CBCGPToolBoxEx@@UBE?AW4BCGP_DOCK_TYPE@@XZ" PURGE="0" COMMENT="" />
    <EXPORT ORDINAL="1997" NAME="?GetDockRow@CBCGPBaseControlBar@@QAEPAVCBCGPDockBarRow@@XZ" PURGE="0" COMMENT="" />
    <EXPORT ORDINAL="1998" NAME="?GetDockSite@CBCGPBarContainerManager@@UAEPAVCWnd@@XZ" PURGE="0" COMMENT="" />
    <EXPORT ORDINAL="1999" NAME="?GetDockSite@CBCGPBaseControlBar@@UBEPAVCWnd@@XZ" PURGE="0" COMMENT="" />
    <EXPORT ORDINAL="2000" NAME="?GetDockSite@CBCGPDockManager@@QBEPAVCFrameWnd@@XZ" PURGE="0" COMMENT="" />
    <EXPORT ORDINAL="2001" NAME="?GetDockStatus@CBCGPDockingControlBar@@UAE?AW4BCGP_CS_STATUS@@VCPoint@@H@Z" PURGE="12" COMMENT="" />
    <EXPORT ORDINAL="2002" NAME="?GetDockStatus@CBCGPOutlookBar@@UAE?AW4BCGP_CS_STATUS@@VCPoint@@H@Z" PURGE="12" COMMENT="" />
    <EXPORT ORDINAL="2003" NAME="?GetDockingTabsBordersSize@CBCGPVisualManager@@UAEHXZ" PURGE="0" COMMENT="" />
    <EXPORT ORDINAL="2004" NAME="?GetDockingTabsBordersSize@CBCGPVisualManagerVS2005@@UAEHXZ" PURGE="0" COMMENT="" />
    <EXPORT ORDINAL="2005" NAME="?GetDocumentIcon@CBCGPTabWnd@@SAPAUHICON__@@I@Z" PURGE="0" COMMENT="" />
    <EXPORT ORDINAL="2006" NAME="?GetDocumentName@CBCGPMDIChildWnd@@UAEPBDPAPAVCObject@@@Z" PURGE="4" COMMENT="" />
    <EXPORT ORDINAL="2007" NAME="?GetDragSencitivity@CBCGPDockingControlBar@@SAABVCSize@@XZ" PURGE="0" COMMENT="" />
    <EXPORT ORDINAL="2008" NAME="?GetDropDirection@CBCGPPopupMenu@@QBE?AW4DROP_DIRECTION@1@XZ" PURGE="0" COMMENT="" />
    <EXPORT ORDINAL="2009" NAME="?GetDropDownToolBar@CBCGPDropDownToolbarButton@@QBEPAVCBCGPToolBar@@XZ" PURGE="0" COMMENT="" />
    <EXPORT ORDINAL="2010" NAME="?GetDroppedDownMenu@CBCGPToolBar@@QBEPAVCBCGPToolbarMenuButton@@PAH@Z" PURGE="4" COMMENT="" />
    <EXPORT ORDINAL="2011" NAME="?GetDuration@CBCGPDurationCtrl@@QBE?AVCOleDateTimeSpan@ATL@@XZ" PURGE="4" COMMENT="" />
    <EXPORT ORDINAL="2012" NAME="?GetEditBorder@CBCGPToolbarEditBoxButton@@UAEXAAVCRect@@@Z" PURGE="4" COMMENT="" />
    <EXPORT ORDINAL="2013" NAME="?GetEditBorder@CBCGPToolbarSpinEditBoxButton@@MAEXAAVCRect@@@Z" PURGE="4" COMMENT="" />
    <EXPORT ORDINAL="2014" NAME="?GetEditBox@CBCGPToolbarEditBoxButton@@QBEPAVCEdit@@XZ" PURGE="0" COMMENT="" />
    <EXPORT ORDINAL="2015" NAME="?GetEditCtrl@CBCGPEditView@@QBEPAVCBCGPEditCtrl@@XZ" PURGE="0" COMMENT="" />
    <EXPORT ORDINAL="2016" NAME="?GetEditCtrl@CBCGPToolbarComboBoxButton@@UAEPAVCEdit@@XZ" PURGE="0" COMMENT="" />
    <EXPORT ORDINAL="2017" NAME="?GetEnabledAlignment@CBCGPBaseControlBar@@UBEKXZ" PURGE="0" COMMENT="" />
    <EXPORT ORDINAL="2018" NAME="?GetEnabledAutoHideAlignment@CBCGPDockManager@@QBEKXZ" PURGE="0" COMMENT="" />
    <EXPORT ORDINAL="2019" NAME="?GetEndOffset@CBCGPOutlineParser@@MAEHABV?$CStringT@DV?$StrTraitMFC_DLL@DV?$ChTraitsCRT@D@ATL@@@@@ATL@@HH@Z" PURGE="12" COMMENT="" />
    <EXPORT ORDINAL="2020" NAME="?GetExclusiveRowMode@CBCGPControlBar@@UBEHXZ" PURGE="0" COMMENT="" />
    <EXPORT ORDINAL="2021" NAME="?GetExpandedSubItems@CBCGPProp@@QBEHXZ" PURGE="0" COMMENT="" />
    <EXPORT ORDINAL="2022" NAME="?GetExtraHeight@CBCGPColorBar@@IBEHH@Z" PURGE="4" COMMENT="" />
    <EXPORT ORDINAL="2023" NAME="?GetFadedImageAlpha@CBCGPToolBarImages@@SAEXZ" PURGE="0" COMMENT="" />
    <EXPORT ORDINAL="2024" NAME="?GetFilter@CBCGPUserToolsManager@@QBEABV?$CStringT@DV?$StrTraitMFC_DLL@DV?$ChTraitsCRT@D@ATL@@@@@ATL@@XZ" PURGE="0" COMMENT="" />
    <EXPORT ORDINAL="2025" NAME="?GetFirstAHWindow@CBCGPAutoHideToolBar@@QAEPAVCBCGPDockingControlBar@@XZ" PURGE="0" COMMENT="" />
    <EXPORT ORDINAL="2026" NAME="?GetFirstBar@CBCGPBarContainerManager@@UBEPAVCBCGPBaseControlBar@@XZ" PURGE="0" COMMENT="" />
    <EXPORT ORDINAL="2027" NAME="?GetFirstBar@CBCGPSlider@@QBEPBVCBCGPBaseControlBar@@XZ" PURGE="0" COMMENT="" />
    <EXPORT ORDINAL="2028" NAME="?GetFirstDayOfWeek@CBCGPCalendarBar@@QBEHXZ" PURGE="0" COMMENT="" />
    <EXPORT ORDINAL="2029" NAME="?GetFirstTabWnd@CBCGPMainClientAreaWnd@@QAEPAVCBCGPTabWnd@@XZ" PURGE="0" COMMENT="" />
    <EXPORT ORDINAL="2030" NAME="?GetFirstVisibleBar@CBCGPBarContainerManager@@UBEPAVCWnd@@XZ" PURGE="0" COMMENT="" />
    <EXPORT ORDINAL="2031" NAME="?GetFirstVisibleBar@CBCGPMiniFrameWnd@@UBEPAVCWnd@@XZ" PURGE="0" COMMENT="" />
    <EXPORT ORDINAL="2032" NAME="?GetFirstVisibleBar@CBCGPMultiMiniFrameWnd@@UBEPAVCWnd@@XZ" PURGE="-1" COMMENT="" />
    <EXPORT ORDINAL="2033" NAME="?GetFirstVisibleLine@CBCGPEditCtrl@@QBEHXZ" PURGE="0" COMMENT="" />
    <EXPORT ORDINAL="2034" NAME="?GetFirstVisibleTab@CBCGPBaseTabWnd@@UAEPAVCWnd@@AAH@Z" PURGE="4" COMMENT="" />
    <EXPORT ORDINAL="2035" NAME="?GetFirstVisibleTab@CBCGPBaseTabWnd@@UAEPAVCWnd@@HAAH@Z" PURGE="8" COMMENT="" />
    <EXPORT ORDINAL="2036" NAME="?GetFirstVisibleTab@CBCGPBaseTabbedBar@@UAEPAVCWnd@@AAH@Z" PURGE="4" COMMENT="" />
    <EXPORT ORDINAL="2037" NAME="?GetFirstVisibleTabNum@CBCGPBaseTabWnd@@UBEHXZ" PURGE="0" COMMENT="" />
    <EXPORT ORDINAL="2038" NAME="?GetFirstVisibleTabNum@CBCGPTabWnd@@UBEHXZ" PURGE="0" COMMENT="" />
    <EXPORT ORDINAL="2039" NAME="?GetFlags@CBCGPAppBarWnd@@QBEKXZ" PURGE="0" COMMENT="" />
    <EXPORT ORDINAL="2040" NAME="?GetFlags@CBCGPShellTree@@QBEKXZ" PURGE="0" COMMENT="" />
    <EXPORT ORDINAL="2041" NAME="?GetFlags@CBCGPToolbarCustomize@@QBEIXZ" PURGE="0" COMMENT="" />
    <EXPORT ORDINAL="2042" NAME="?GetFontDesc@CBCGPToolbarFontCombo@@QBEPBVCBCGPFontDesc@@H@Z" PURGE="4" COMMENT="" />
    <EXPORT ORDINAL="2043" NAME="?GetFontsCount@CBCGPToolbarFontCombo@@KAHPBD@Z" PURGE="0" COMMENT="" />
    <EXPORT ORDINAL="2044" NAME="?GetForceDownArrows@CBCGPMenuBar@@QAEHXZ" PURGE="0" COMMENT="" />
    <EXPORT ORDINAL="2045" NAME="?GetForceMenuFocus@CBCGPPopupMenu@@SAHXZ" PURGE="0" COMMENT="" />
    <EXPORT ORDINAL="2046" NAME="?GetForceShadow@CBCGPPopupMenu@@SAHXZ" PURGE="0" COMMENT="" />
    <EXPORT ORDINAL="2047" NAME="?GetFrameIcon@CBCGPMDIChildWnd@@UBEPAUHICON__@@XZ" PURGE="0" COMMENT="" />
    <EXPORT ORDINAL="2048" NAME="?GetFrameRate@CBCGPAnimCtrl@@QBEIXZ" PURGE="0" COMMENT="" />
    <EXPORT ORDINAL="2049" NAME="?GetFrameText@CBCGPMDIChildWnd@@UBE?AV?$CStringT@DV?$StrTraitMFC_DLL@DV?$ChTraitsCRT@D@ATL@@@@@ATL@@XZ" PURGE="4" COMMENT="" />
    <EXPORT ORDINAL="2050" NAME="?GetFreeCtrlBarID@CBCGPFrameImpl@@KAIIIABVCObList@@@Z" PURGE="0" COMMENT="" />
    <EXPORT ORDINAL="2051" NAME="?GetFreeTearOffID@CBCGPTearOffManager@@IAEIXZ" PURGE="0" COMMENT="" />
    <EXPORT ORDINAL="2052" NAME="?GetFullName@CBCGPFontDesc@@QBE?AV?$CStringT@DV?$StrTraitMFC_DLL@DV?$ChTraitsCRT@D@ATL@@@@@ATL@@XZ" PURGE="4" COMMENT="" />
    <EXPORT ORDINAL="2053" NAME="?GetFullScreeen@CBCGPFrameImpl@@IAE?AVCRect@@XZ" PURGE="4" COMMENT="" />
    <EXPORT ORDINAL="2054" NAME="?GetFullScreenMinMaxInfo@CBCGPFrameImpl@@QAEXPAUtagMINMAXINFO@@@Z" PURGE="4" COMMENT="" />
    <EXPORT ORDINAL="2055" NAME="?GetFullScreenRect@CBCGPFullScreenImpl@@QBE?AVCRect@@XZ" PURGE="4" COMMENT="" />
    <EXPORT ORDINAL="2056" NAME="?GetGrayDisabledButtons@CBCGPToolBar@@QBEHXZ" PURGE="0" COMMENT="" />
    <EXPORT ORDINAL="2057" NAME="?GetGripperRect@CBCGPControlBarImpl@@QAEXAAVCRect@@H@Z" PURGE="8" COMMENT="" />
    <EXPORT ORDINAL="2058" NAME="?GetGroupBounds@CBCGPMaskEdit@@AAEXAAH0HH@Z" PURGE="16" COMMENT="" />
    <EXPORT ORDINAL="2059" NAME="?GetGroupCaptionHeight@CBCGPTasksPane@@QBEHXZ" PURGE="0" COMMENT="" />
    <EXPORT ORDINAL="2060" NAME="?GetGroupCaptionHorzOffset@CBCGPTasksPane@@QBEHXZ" PURGE="0" COMMENT="" />
    <EXPORT ORDINAL="2061" NAME="?GetGroupCaptionVertOffset@CBCGPTasksPane@@QBEHXZ" PURGE="0" COMMENT="" />
    <EXPORT ORDINAL="2062" NAME="?GetGroupCount@CBCGPTasksPane@@QBEHXZ" PURGE="0" COMMENT="" />
    <EXPORT ORDINAL="2063" NAME="?GetGroupFromBar@CBCGPDockBarRow@@QAEXPAVCBCGPControlBar@@AAVCObList@@@Z" PURGE="8" COMMENT="" />
    <EXPORT ORDINAL="2064" NAME="?GetGroupLocation@CBCGPTasksPane@@QBEHPAVCBCGPTasksGroup@@AAH@Z" PURGE="8" COMMENT="" />
    <EXPORT ORDINAL="2065" NAME="?GetGroupVertOffset@CBCGPTasksPane@@QBEHXZ" PURGE="0" COMMENT="" />
    <EXPORT ORDINAL="2066" NAME="?GetHLS@CBCGPColorPickerCtrl@@QAEXPAN00@Z" PURGE="12" COMMENT="" />
    <EXPORT ORDINAL="2067" NAME="?GetHeaderCtrl@CBCGPListCtrl@@UAEAAVCBCGPHeaderCtrl@@XZ" PURGE="0" COMMENT="" />
    <EXPORT ORDINAL="2068" NAME="?GetHeaderCtrl@CBCGPPropList@@UAEAAVCBCGPHeaderCtrl@@XZ" PURGE="0" COMMENT="" />
    <EXPORT ORDINAL="2069" NAME="?GetHeaderHeight@CBCGPPropList@@QBEHXZ" PURGE="0" COMMENT="" />
    <EXPORT ORDINAL="2070" NAME="?GetHelpCombobox@CBCGPMenuBar@@QAEPAVCBCGPToolbarComboBoxButton@@XZ" PURGE="0" COMMENT="" />
    <EXPORT ORDINAL="2071" NAME="?GetHiddenTextFromOffset@CBCGPEditCtrl@@QAEHHAAV?$CStringT@DV?$StrTraitMFC_DLL@DV?$ChTraitsCRT@D@ATL@@@@@ATL@@@Z" PURGE="8" COMMENT="" />
    <EXPORT ORDINAL="2072" NAME="?GetHiddenTextFromPoint@CBCGPEditCtrl@@QAEHVCPoint@@AAV?$CStringT@DV?$StrTraitMFC_DLL@DV?$ChTraitsCRT@D@ATL@@@@@ATL@@@Z" PURGE="12" COMMENT="" />
    <EXPORT ORDINAL="2073" NAME="?GetHierarchyLevel@CBCGPProp@@QBEHXZ" PURGE="0" COMMENT="" />
    <EXPORT ORDINAL="2074" NAME="?GetHighlightedButton@CBCGPToolBar@@QBEPAVCBCGPToolbarButton@@XZ" PURGE="0" COMMENT="" />
    <EXPORT ORDINAL="2075" NAME="?GetHighlightedTab@CBCGPBaseTabWnd@@QBEHXZ" PURGE="0" COMMENT="" />
    <EXPORT ORDINAL="2076" NAME="?GetHit@CBCGPCaptionButton@@QBEIXZ" PURGE="0" COMMENT="" />
    <EXPORT ORDINAL="2077" NAME="?GetHorzMargin@CBCGPCalendarBar@@QBEHXZ" PURGE="0" COMMENT="" />
    <EXPORT ORDINAL="2078" NAME="?GetHorzMargin@CBCGPColorBar@@QAEHXZ" PURGE="0" COMMENT="" />
    <EXPORT ORDINAL="2079" NAME="?GetHorzMargin@CBCGPTasksPane@@QBEHXZ" PURGE="0" COMMENT="" />
    <EXPORT ORDINAL="2080" NAME="?GetHorzRowExtent@CBCGPEditCtrl@@IAEHPAVCDC@@H@Z" PURGE="8" COMMENT="" />
    <EXPORT ORDINAL="2081" NAME="?GetHotBorder@CBCGPToolBar@@QBEHXZ" PURGE="0" COMMENT="" />
    <EXPORT ORDINAL="2082" NAME="?GetHotPoint@CBCGPMiniFrameWnd@@QBE?AVCPoint@@XZ" PURGE="4" COMMENT="" />
    <EXPORT ORDINAL="2083" NAME="?GetHotSpot@CBCGPControlBar@@QBE?AVCPoint@@XZ" PURGE="4" COMMENT="" />
    <EXPORT ORDINAL="2084" NAME="?GetHotSpot@CBCGPHotSpotImageCtrl@@QBEIXZ" PURGE="0" COMMENT="" />
    <EXPORT ORDINAL="2085" NAME="?GetHotTextColor@CBCGPToolBar@@SAKXZ" PURGE="0" COMMENT="" />
    <EXPORT ORDINAL="2086" NAME="?GetHue@CBCGPColorPickerCtrl@@QBENXZ" PURGE="0" COMMENT="" />
    <EXPORT ORDINAL="2087" NAME="?GetHwnd@CBCGPToolbarButton@@UAEPAUHWND__@@XZ" PURGE="0" COMMENT="" />
    <EXPORT ORDINAL="2088" NAME="?GetHwnd@CBCGPToolbarComboBoxButton@@UAEPAUHWND__@@XZ" PURGE="0" COMMENT="" />
    <EXPORT ORDINAL="2089" NAME="?GetHwnd@CBCGPToolbarDateTimeCtrl@@UAEPAUHWND__@@XZ" PURGE="0" COMMENT="" />
    <EXPORT ORDINAL="2090" NAME="?GetHwnd@CBCGPToolbarEditBoxButton@@UAEPAUHWND__@@XZ" PURGE="0" COMMENT="" />
    <EXPORT ORDINAL="2091" NAME="?GetHwndLastFocus@CBCGPToolBar@@QBEPAUHWND__@@XZ" PURGE="0" COMMENT="" />
    <EXPORT ORDINAL="2092" NAME="?GetHyperlinkString@CBCGPEditCtrl@@QAEHAAV?$CStringT@DV?$StrTraitMFC_DLL@DV?$ChTraitsCRT@D@ATL@@@@@ATL@@@Z" PURGE="4" COMMENT="" />
    <EXPORT ORDINAL="2093" NAME="?GetHyperlinkToolTip@CBCGPEditCtrl@@QAEHAAV?$CStringT@DV?$StrTraitMFC_DLL@DV?$ChTraitsCRT@D@ATL@@@@@ATL@@@Z" PURGE="4" COMMENT="" />
    <EXPORT ORDINAL="2094" NAME="?GetID@CBCGPDockBarRow@@QBEHXZ" PURGE="0" COMMENT="" />
    <EXPORT ORDINAL="2095" NAME="?GetIconID@CBCGPCaptionButton@@UBE?AW4IMAGES_IDS@CMenuImages@@HH@Z" PURGE="8" COMMENT="" />
    <EXPORT ORDINAL="2096" NAME="?GetIgnoreSetText@CBCGPToolBar@@QBEHXZ" PURGE="0" COMMENT="" />
    <EXPORT ORDINAL="2097" NAME="?GetImage@CBCGPToolbarButton@@QBEHXZ" PURGE="0" COMMENT="" />
    <EXPORT ORDINAL="2098" NAME="?GetImageHorzMargin@CBCGPButton@@MBEHXZ" PURGE="0" COMMENT="" />
    <EXPORT ORDINAL="2099" NAME="?GetImageList@CBCGPBaseTabWnd@@UBEPBVCImageList@@XZ" PURGE="0" COMMENT="" />
    <EXPORT ORDINAL="2100" NAME="?GetImageList@CBCGPToolBar@@IBEPAVCBCGPToolBarImages@@AAV2@000@Z" PURGE="16" COMMENT="" />
    <EXPORT ORDINAL="2101" NAME="?GetImageOfCommand@CImageHash@@SAIIH@Z" PURGE="0" COMMENT="" />
    <EXPORT ORDINAL="2102" NAME="?GetImageRect@CBCGPToolbarMenuButton@@QAEXAAVCRect@@@Z" PURGE="4" COMMENT="" />
    <EXPORT ORDINAL="2103" NAME="?GetImageSize@CBCGPBaseIntelliSenseLB@@UAE?AVCSize@@H@Z" PURGE="8" COMMENT="" />
    <EXPORT ORDINAL="2104" NAME="?GetImageSize@CBCGPBaseTabWnd@@UBE?AVCSize@@XZ" PURGE="4" COMMENT="" />
    <EXPORT ORDINAL="2105" NAME="?GetImageSize@CBCGPCaptionBar@@IBE?AVCSize@@XZ" PURGE="4" COMMENT="" />
    <EXPORT ORDINAL="2106" NAME="?GetImageSize@CBCGPToolBar@@QBE?AVCSize@@XZ" PURGE="4" COMMENT="" />
    <EXPORT ORDINAL="2107" NAME="?GetImageSize@CBCGPToolBarImages@@QBE?AUtagSIZE@@H@Z" PURGE="8" COMMENT="" />
    <EXPORT ORDINAL="2108" NAME="?GetImageWell@CBCGPToolBarImages@@QBEPAUHBITMAP__@@XZ" PURGE="0" COMMENT="" />
    <EXPORT ORDINAL="2109" NAME="?GetImageWellLight@CBCGPToolBarImages@@QBEPAUHBITMAP__@@XZ" PURGE="0" COMMENT="" />
    <EXPORT ORDINAL="2110" NAME="?GetImages@CBCGPToolBar@@SAPAVCBCGPToolBarImages@@XZ" PURGE="0" COMMENT="" />
    <EXPORT ORDINAL="2111" NAME="?GetImagesOffset@CBCGPToolBar@@QBEHXZ" PURGE="0" COMMENT="" />
    <EXPORT ORDINAL="2112" NAME="?GetInPlaceActiveItem@CBCGPFrameWnd@@MAEPAVCOleClientItem@@XZ" PURGE="0" COMMENT="" />
    <EXPORT ORDINAL="2113" NAME="?GetInPlaceActiveItem@CBCGPMDIFrameWnd@@MAEPAVCOleClientItem@@XZ" PURGE="0" COMMENT="" />
    <EXPORT ORDINAL="2114" NAME="?GetInitialDirMenuID@CBCGPUserToolsManager@@QBEIXZ" PURGE="0" COMMENT="" />
    <EXPORT ORDINAL="2115" NAME="?GetInnermostBlock@CBCGPOutlineNode@@QBEPAV1@H@Z" PURGE="4" COMMENT="" />
    <EXPORT ORDINAL="2116" NAME="?GetInstance@CBCGPVisualManager@@SAPAV1@XZ" PURGE="0" COMMENT="" />
    <EXPORT ORDINAL="2117" NAME="?GetInt@CBCGPWorkspace@@QAEHPBDH@Z" PURGE="8" COMMENT="" />
    <EXPORT ORDINAL="2118" NAME="?GetIntelliSenseImgList@CBCGPEditCtrl@@QBEPAVCImageList@@XZ" PURGE="0" COMMENT="" />
    <EXPORT ORDINAL="2119" NAME="?GetIntelliSenseLBFont@CBCGPEditCtrl@@QBEPAVCFont@@XZ" PURGE="0" COMMENT="" />
    <EXPORT ORDINAL="2120" NAME="?GetInvalidateItemRect@CBCGPToolBar@@UBEXHPAUtagRECT@@@Z" PURGE="8" COMMENT="" />
    <EXPORT ORDINAL="2121" NAME="?GetInvalidateRect@CBCGPToolbarButton@@UBE?BVCRect@@XZ" PURGE="4" COMMENT="" />
    <EXPORT ORDINAL="2122" NAME="?GetInvalidateRect@CBCGPToolbarEditBoxButton@@UBE?BVCRect@@XZ" PURGE="4" COMMENT="" />
    <EXPORT ORDINAL="2123" NAME="?GetItem@CBCGPToolbarComboBoxButton@@QBEPBDH@Z" PURGE="4" COMMENT="" />
    <EXPORT ORDINAL="2124" NAME="?GetItemAll@CBCGPToolbarComboBoxButton@@SAPBDIH@Z" PURGE="0" COMMENT="" />
    <EXPORT ORDINAL="2125" NAME="?GetItemCount@CBCGPShellManager@@QAEIPBU_ITEMIDLIST@@@Z" PURGE="4" COMMENT="" />
    <EXPORT ORDINAL="2126" NAME="?GetItemData@CBCGPEditListBox@@UBEKH@Z" PURGE="4" COMMENT="" />
    <EXPORT ORDINAL="2127" NAME="?GetItemData@CBCGPToolbarComboBoxButton@@QBEKH@Z" PURGE="4" COMMENT="" />
    <EXPORT ORDINAL="2128" NAME="?GetItemDataAll@CBCGPToolbarComboBoxButton@@SAKIH@Z" PURGE="0" COMMENT="" />
    <EXPORT ORDINAL="2129" NAME="?GetItemDataPtrAll@CBCGPToolbarComboBoxButton@@SAPAXIH@Z" PURGE="0" COMMENT="" />
    <EXPORT ORDINAL="2130" NAME="?GetItemID@CBCGPStatusBar@@QBEIH@Z" PURGE="4" COMMENT="" />
    <EXPORT ORDINAL="2131" NAME="?GetItemID@CBCGPToolBar@@QBEIH@Z" PURGE="4" COMMENT="" />
    <EXPORT ORDINAL="2132" NAME="?GetItemPath@CBCGPShellList@@QBEHAAV?$CStringT@DV?$StrTraitMFC_DLL@DV?$ChTraitsCRT@D@ATL@@@@@ATL@@H@Z" PURGE="8" COMMENT="" />
    <EXPORT ORDINAL="2133" NAME="?GetItemPath@CBCGPShellTree@@QBEHAAV?$CStringT@DV?$StrTraitMFC_DLL@DV?$ChTraitsCRT@D@ATL@@@@@ATL@@PAU_TREEITEM@@@Z" PURGE="8" COMMENT="" />
    <EXPORT ORDINAL="2134" NAME="?GetItemRect@CBCGPStatusBar@@QBEXHPAUtagRECT@@@Z" PURGE="8" COMMENT="" />
    <EXPORT ORDINAL="2135" NAME="?GetItemRect@CBCGPToolBar@@UBEXHPAUtagRECT@@@Z" PURGE="8" COMMENT="" />
    <EXPORT ORDINAL="2136" NAME="?GetItemSize@CBCGPShellManager@@QAEIPBU_ITEMIDLIST@@@Z" PURGE="4" COMMENT="" />
    <EXPORT ORDINAL="2137" NAME="?GetItemText@CBCGPEditListBox@@UBE?AV?$CStringT@DV?$StrTraitMFC_DLL@DV?$ChTraitsCRT@D@ATL@@@@@ATL@@H@Z" PURGE="8" COMMENT="" />
    <EXPORT ORDINAL="2138" NAME="?GetItemTypes@CBCGPShellList@@QBEKXZ" PURGE="0" COMMENT="" />
    <EXPORT ORDINAL="2139" NAME="?GetKeyboardManager@CBCGPWorkspace@@QAEPAVCBCGPKeyboardManager@@XZ" PURGE="0" COMMENT="" />
    <EXPORT ORDINAL="2140" NAME="?GetLargeColdImages@CBCGPToolBar@@SAPAVCBCGPToolBarImages@@XZ" PURGE="0" COMMENT="" />
    <EXPORT ORDINAL="2141" NAME="?GetLargeDisabledImages@CBCGPToolBar@@SAPAVCBCGPToolBarImages@@XZ" PURGE="0" COMMENT="" />
    <EXPORT ORDINAL="2142" NAME="?GetLargeImages@CBCGPToolBar@@SAPAVCBCGPToolBarImages@@XZ" PURGE="0" COMMENT="" />
    <EXPORT ORDINAL="2143" NAME="?GetLastClickedTool@CBCGPToolBox@@QBEHH@Z" PURGE="4" COMMENT="" />
    <EXPORT ORDINAL="2144" NAME="?GetLastClickedTool@CBCGPToolBoxEx@@QBEHAAH@Z" PURGE="4" COMMENT="" />
    <EXPORT ORDINAL="2145" NAME="?GetLastCommandIndex@CBCGPPopupMenuBar@@SAHXZ" PURGE="0" COMMENT="" />
    <EXPORT ORDINAL="2146" NAME="?GetLastPercentInContainer@CBCGPDockingControlBar@@QBEHXZ" PURGE="0" COMMENT="" />
    <EXPORT ORDINAL="2147" NAME="?GetLastUndoReason@CBCGPEditCtrl@@UBEKXZ" PURGE="0" COMMENT="" />
    <EXPORT ORDINAL="2148" NAME="?GetLastVisibleTab@CBCGPBaseTabWnd@@UAEPAVCWnd@@AAH@Z" PURGE="4" COMMENT="" />
    <EXPORT ORDINAL="2149" NAME="?GetLeftBar@CBCGPBarContainer@@QBEPBVCBCGPDockingControlBar@@XZ" PURGE="0" COMMENT="" />
    <EXPORT ORDINAL="2150" NAME="?GetLeftColumnWidth@CBCGPPropList@@QBEHXZ" PURGE="0" COMMENT="" />
    <EXPORT ORDINAL="2151" NAME="?GetLeftContainer@CBCGPBarContainer@@QBEPBV1@XZ" PURGE="0" COMMENT="" />
    <EXPORT ORDINAL="2152" NAME="?GetLightPercentage@CBCGPToolBarImages@@QBEHXZ" PURGE="0" COMMENT="" />
    <EXPORT ORDINAL="2153" NAME="?GetLine@CBCGPEditCtrl@@QBEHHPAD@Z" PURGE="8" COMMENT="" />
    <EXPORT ORDINAL="2154" NAME="?GetLine@CBCGPEditCtrl@@QBEHHPADH@Z" PURGE="12" COMMENT="" />
    <EXPORT ORDINAL="2155" NAME="?GetLineCount@CBCGPEditCtrl@@QBEHXZ" PURGE="0" COMMENT="" />
    <EXPORT ORDINAL="2156" NAME="?GetLineHeight@CBCGPEditCtrl@@QBEHXZ" PURGE="0" COMMENT="" />
    <EXPORT ORDINAL="2157" NAME="?GetLineNumbersMarginWidth@CBCGPEditCtrl@@QBEHXZ" PURGE="0" COMMENT="" />
    <EXPORT ORDINAL="2158" NAME="?GetListHwnd@CBCGPEditListBox@@MBEPAUHWND__@@XZ" PURGE="0" COMMENT="" />
    <EXPORT ORDINAL="2159" NAME="?GetListRect@CBCGPPropList@@QBE?AVCRect@@XZ" PURGE="4" COMMENT="" />
    <EXPORT ORDINAL="2160" NAME="?GetLocation@CBCGPBaseTabWnd@@QBE?AW4Location@1@XZ" PURGE="0" COMMENT="" />
    <EXPORT ORDINAL="2161" NAME="?GetLockedImageSize@CBCGPToolBar@@QBE?AVCSize@@XZ" PURGE="4" COMMENT="" />
    <EXPORT ORDINAL="2162" NAME="?GetLockedMenuImages@CBCGPToolBar@@QBEPBVCBCGPToolBarImages@@XZ" PURGE="0" COMMENT="" />
    <EXPORT ORDINAL="2163" NAME="?GetLogFont@CBCGPFontProp@@QAEPAUtagLOGFONTA@@XZ" PURGE="0" COMMENT="" />
    <EXPORT ORDINAL="2164" NAME="?GetLuminance@CBCGPColorPickerCtrl@@QBENXZ" PURGE="0" COMMENT="" />
    <EXPORT ORDINAL="2165" NAME="?GetMDITabGroups@CBCGPMDIFrameWnd@@QBEABVCObList@@XZ" PURGE="0" COMMENT="" />
    <EXPORT ORDINAL="2166" NAME="?GetMDITabGroups@CBCGPMainClientAreaWnd@@QBEABVCObList@@XZ" PURGE="0" COMMENT="" />
    <EXPORT ORDINAL="2167" NAME="?GetMDITabs@CBCGPMDIFrameWnd@@QAEAAVCBCGPTabWnd@@XZ" PURGE="0" COMMENT="" />
    <EXPORT ORDINAL="2168" NAME="?GetMDITabs@CBCGPMainClientAreaWnd@@QAEAAVCBCGPTabWnd@@XZ" PURGE="0" COMMENT="" />
    <EXPORT ORDINAL="2169" NAME="?GetMDITabsBordersSize@CBCGPVisualManager@@UAEHXZ" PURGE="0" COMMENT="" />
    <EXPORT ORDINAL="2170" NAME="?GetMDITabsBordersSize@CBCGPVisualManagerVS2005@@UAEHXZ" PURGE="0" COMMENT="" />
    <EXPORT ORDINAL="2171" NAME="?GetMDITabsContextMenuAllowedItems@CBCGPMDIFrameWnd@@QAEKXZ" PURGE="0" COMMENT="" />
    <EXPORT ORDINAL="2172" NAME="?GetMDITabsContextMenuAllowedItems@CBCGPMainClientAreaWnd@@QAEKXZ" PURGE="0" COMMENT="" />
    <EXPORT ORDINAL="2173" NAME="?GetMRUFileName@CBCGPTasksPane@@MAEHPAVCRecentFileList@@HAAV?$CStringT@DV?$StrTraitMFC_DLL@DV?$ChTraitsCRT@D@ATL@@@@@ATL@@@Z" PURGE="12" COMMENT="" />
    <EXPORT ORDINAL="2174" NAME="?GetMainFrame@CBCGPOleIPFrameWnd@@QAEPAVCFrameWnd@@XZ" PURGE="0" COMMENT="" />
    <EXPORT ORDINAL="2175" NAME="?GetMapTo3DColors@CBCGPToolBarImages@@QBEHXZ" PURGE="0" COMMENT="" />
    <EXPORT ORDINAL="2176" NAME="?GetMargin@CBCGPCaptionBar@@QBEHXZ" PURGE="0" COMMENT="" />
    <EXPORT ORDINAL="2177" NAME="?GetMarkedDays@CBCGPCalendarBar@@QBEABV?$CList@HH@@XZ" PURGE="0" COMMENT="" />
    <EXPORT ORDINAL="2178" NAME="?GetMarker@CBCGPEditCtrl@@QAEPAU__POSITION@@HPAPAVCBCGPEditMarker@@K@Z" PURGE="12" COMMENT="" />
    <EXPORT ORDINAL="2179" NAME="?GetMarker@CBCGPEditCtrl@@QAEPAVCBCGPEditMarker@@PAU__POSITION@@@Z" PURGE="4" COMMENT="" />
    <EXPORT ORDINAL="2180" NAME="?GetMarkerList@CBCGPEditCtrl@@QBEABVCObList@@XZ" PURGE="0" COMMENT="" />
    <EXPORT ORDINAL="2181" NAME="?GetMarkerListByData@CBCGPEditCtrl@@UBEXAAVCObList@@K@Z" PURGE="8" COMMENT="" />
    <EXPORT ORDINAL="2182" NAME="?GetMarkerListByType@CBCGPEditCtrl@@QBEXAAVCObList@@K@Z" PURGE="8" COMMENT="" />
    <EXPORT ORDINAL="2183" NAME="?GetMarkersInRange@CBCGPEditCtrl@@QBEXHAAVCObList@@KH@Z" PURGE="16" COMMENT="" />
    <EXPORT ORDINAL="2184" NAME="?GetMarkersInRangeByOffset@CBCGPEditCtrl@@QBEXHHAAVCObList@@K@Z" PURGE="16" COMMENT="" />
    <EXPORT ORDINAL="2185" NAME="?GetMask@CBCGPToolBarImages@@QAEPAUHBITMAP__@@H@Z" PURGE="4" COMMENT="" />
    <EXPORT ORDINAL="2186" NAME="?GetMaskedValue@CBCGPMaskEdit@@IBE?BV?$CStringT@DV?$StrTraitMFC_DLL@DV?$ChTraitsCRT@D@ATL@@@@@ATL@@H@Z" PURGE="8" COMMENT="" />
    <EXPORT ORDINAL="2187" NAME="?GetMaxBarSize@CBCGPDockBarRow@@IBEHH@Z" PURGE="4" COMMENT="" />
    <EXPORT ORDINAL="2188" NAME="?GetMaxDate@CBCGPDateTimeCtrl@@QAENXZ" PURGE="0" COMMENT="" />
    <EXPORT ORDINAL="2189" NAME="?GetMaxHeight@CBCGPToolBoxPage@@IBEHXZ" PURGE="0" COMMENT="" />
    <EXPORT ORDINAL="2190" NAME="?GetMaxItemSize@CBCGPBaseIntelliSenseLB@@UBE?AVCSize@@XZ" PURGE="4" COMMENT="" />
    <EXPORT ORDINAL="2191" NAME="?GetMaxMonthDay@CBCGPCalendarBar@@KAHVCOleDateTime@ATL@@@Z" PURGE="0" COMMENT="" />
    <EXPORT ORDINAL="2192" NAME="?GetMaxTools@CBCGPUserToolsManager@@QBEHXZ" PURGE="0" COMMENT="" />
    <EXPORT ORDINAL="2193" NAME="?GetMaxWindowSize@CBCGPBaseTabWnd@@UBE?AVCSize@@XZ" PURGE="4" COMMENT="" />
    <EXPORT ORDINAL="2194" NAME="?GetMemValue@CBCGPCalculator@@QBENXZ" PURGE="0" COMMENT="" />
    <EXPORT ORDINAL="2195" NAME="?GetMenu@CBCGPMenuBar@@QBEPAUHMENU__@@XZ" PURGE="0" COMMENT="" />
    <EXPORT ORDINAL="2196" NAME="?GetMenu@CBCGPPopupMenu@@QBEPAUHMENU__@@XZ" PURGE="0" COMMENT="" />
    <EXPORT ORDINAL="2197" NAME="?GetMenuBar@CBCGPFrameImpl@@QAEPAVCBCGPMenuBar@@XZ" PURGE="0" COMMENT="" />
    <EXPORT ORDINAL="2198" NAME="?GetMenuBar@CBCGPFrameImpl@@QBEPBVCBCGPMenuBar@@XZ" PURGE="0" COMMENT="" />
    <EXPORT ORDINAL="2199" NAME="?GetMenuBar@CBCGPFrameWnd@@QBEPBVCBCGPMenuBar@@XZ" PURGE="0" COMMENT="" />
    <EXPORT ORDINAL="2200" NAME="?GetMenuBar@CBCGPMDIFrameWnd@@QBEPBVCBCGPMenuBar@@XZ" PURGE="0" COMMENT="" />
    <EXPORT ORDINAL="2201" NAME="?GetMenuBar@CBCGPOleDocIPFrameWnd@@QBEPBVCBCGPMenuBar@@XZ" PURGE="0" COMMENT="" />
    <EXPORT ORDINAL="2202" NAME="?GetMenuBar@CBCGPOleIPFrameWnd@@QBEPBVCBCGPMenuBar@@XZ" PURGE="0" COMMENT="" />
    <EXPORT ORDINAL="2203" NAME="?GetMenuBar@CBCGPPopupMenu@@UAEPAVCBCGPPopupMenuBar@@XZ" PURGE="0" COMMENT="" />
    <EXPORT ORDINAL="2204" NAME="?GetMenuBar@CColorPopup@@UAEPAVCBCGPPopupMenuBar@@XZ" PURGE="0" COMMENT="" />
    <EXPORT ORDINAL="2205" NAME="?GetMenuButtonSize@CBCGPToolBar@@SA?AVCSize@@XZ" PURGE="0" COMMENT="" />
    <EXPORT ORDINAL="2206" NAME="?GetMenuById@CBCGPContextMenuManager@@QBEPAUHMENU__@@I@Z" PURGE="4" COMMENT="" />
    <EXPORT ORDINAL="2207" NAME="?GetMenuByName@CBCGPContextMenuManager@@QBEPAUHMENU__@@PBDPAI@Z" PURGE="8" COMMENT="" />
    <EXPORT ORDINAL="2208" NAME="?GetMenuFont@CBCGPMenuBar@@SAABVCFont@@H@Z" PURGE="0" COMMENT="" />
    <EXPORT ORDINAL="2209" NAME="?GetMenuImageMargin@CBCGPVisualManager@@UBEHXZ" PURGE="0" COMMENT="" />
    <EXPORT ORDINAL="2210" NAME="?GetMenuImageMargin@CBCGPVisualManagerXP@@MBEHXZ" PURGE="0" COMMENT="" />
    <EXPORT ORDINAL="2211" NAME="?GetMenuImageSize@CBCGPToolBar@@SA?AVCSize@@XZ" PURGE="0" COMMENT="" />
    <EXPORT ORDINAL="2212" NAME="?GetMenuImages@CBCGPToolBar@@SAPAVCBCGPToolBarImages@@XZ" PURGE="0" COMMENT="" />
    <EXPORT ORDINAL="2213" NAME="?GetMenuItem@CBCGPMenuBar@@QBEPAVCBCGPToolbarButton@@H@Z" PURGE="4" COMMENT="" />
    <EXPORT ORDINAL="2214" NAME="?GetMenuItem@CBCGPPopupMenu@@QBEPAVCBCGPToolbarMenuButton@@H@Z" PURGE="4" COMMENT="" />
    <EXPORT ORDINAL="2215" NAME="?GetMenuItemCount@CBCGPPopupMenu@@QBEHXZ" PURGE="0" COMMENT="" />
    <EXPORT ORDINAL="2216" NAME="?GetMenuNames@CBCGPContextMenuManager@@QBEXAAVCStringList@@@Z" PURGE="4" COMMENT="" />
    <EXPORT ORDINAL="2217" NAME="?GetMenuShadowDepth@CBCGPVisualManager@@QBEHXZ" PURGE="0" COMMENT="" />
    <EXPORT ORDINAL="2218" NAME="?GetMessageMap@CBCGPAnimCtrl@@MBEPBUAFX_MSGMAP@@XZ" PURGE="0" COMMENT="" />
    <EXPORT ORDINAL="2219" NAME="?GetMessageMap@CBCGPAppBarWnd@@MBEPBUAFX_MSGMAP@@XZ" PURGE="0" COMMENT="" />
    <EXPORT ORDINAL="2220" NAME="?GetMessageMap@CBCGPAutoHideDockBar@@MBEPBUAFX_MSGMAP@@XZ" PURGE="0" COMMENT="" />
    <EXPORT ORDINAL="2221" NAME="?GetMessageMap@CBCGPAutoHideToolBar@@MBEPBUAFX_MSGMAP@@XZ" PURGE="0" COMMENT="" />
    <EXPORT ORDINAL="2222" NAME="?GetMessageMap@CBCGPBaseControlBar@@MBEPBUAFX_MSGMAP@@XZ" PURGE="0" COMMENT="" />
    <EXPORT ORDINAL="2223" NAME="?GetMessageMap@CBCGPBaseIntelliSenseLB@@MBEPBUAFX_MSGMAP@@XZ" PURGE="0" COMMENT="" />
    <EXPORT ORDINAL="2224" NAME="?GetMessageMap@CBCGPBaseTabWnd@@MBEPBUAFX_MSGMAP@@XZ" PURGE="0" COMMENT="" />
    <EXPORT ORDINAL="2225" NAME="?GetMessageMap@CBCGPBaseTabbedBar@@MBEPBUAFX_MSGMAP@@XZ" PURGE="0" COMMENT="" />
    <EXPORT ORDINAL="2226" NAME="?GetMessageMap@CBCGPBaseToolBar@@MBEPBUAFX_MSGMAP@@XZ" PURGE="0" COMMENT="" />
    <EXPORT ORDINAL="2227" NAME="?GetMessageMap@CBCGPButton@@MBEPBUAFX_MSGMAP@@XZ" PURGE="0" COMMENT="" />
    <EXPORT ORDINAL="2228" NAME="?GetMessageMap@CBCGPCalculator@@MBEPBUAFX_MSGMAP@@XZ" PURGE="0" COMMENT="" />
    <EXPORT ORDINAL="2229" NAME="?GetMessageMap@CBCGPCalendarBar@@MBEPBUAFX_MSGMAP@@XZ" PURGE="0" COMMENT="" />
    <EXPORT ORDINAL="2230" NAME="?GetMessageMap@CBCGPCaptionBar@@MBEPBUAFX_MSGMAP@@XZ" PURGE="0" COMMENT="" />
    <EXPORT ORDINAL="2231" NAME="?GetMessageMap@CBCGPColorBar@@MBEPBUAFX_MSGMAP@@XZ" PURGE="0" COMMENT="" />
    <EXPORT ORDINAL="2232" NAME="?GetMessageMap@CBCGPColorButton@@MBEPBUAFX_MSGMAP@@XZ" PURGE="0" COMMENT="" />
    <EXPORT ORDINAL="2233" NAME="?GetMessageMap@CBCGPColorDialog@@MBEPBUAFX_MSGMAP@@XZ" PURGE="0" COMMENT="" />
    <EXPORT ORDINAL="2234" NAME="?GetMessageMap@CBCGPColorPickerCtrl@@MBEPBUAFX_MSGMAP@@XZ" PURGE="0" COMMENT="" />
    <EXPORT ORDINAL="2235" NAME="?GetMessageMap@CBCGPComboEdit@@MBEPBUAFX_MSGMAP@@XZ" PURGE="0" COMMENT="" />
    <EXPORT ORDINAL="2236" NAME="?GetMessageMap@CBCGPControlBar@@MBEPBUAFX_MSGMAP@@XZ" PURGE="0" COMMENT="" />
    <EXPORT ORDINAL="2237" NAME="?GetMessageMap@CBCGPDateTimeCtrl@@MBEPBUAFX_MSGMAP@@XZ" PURGE="0" COMMENT="" />
    <EXPORT ORDINAL="2238" NAME="?GetMessageMap@CBCGPDialog@@MBEPBUAFX_MSGMAP@@XZ" PURGE="0" COMMENT="" />
    <EXPORT ORDINAL="2239" NAME="?GetMessageMap@CBCGPDialogBar@@MBEPBUAFX_MSGMAP@@XZ" PURGE="0" COMMENT="" />
    <EXPORT ORDINAL="2240" NAME="?GetMessageMap@CBCGPDockBar@@MBEPBUAFX_MSGMAP@@XZ" PURGE="0" COMMENT="" />
    <EXPORT ORDINAL="2241" NAME="?GetMessageMap@CBCGPDockingCBWrapper@@MBEPBUAFX_MSGMAP@@XZ" PURGE="0" COMMENT="" />
    <EXPORT ORDINAL="2242" NAME="?GetMessageMap@CBCGPDockingControlBar@@MBEPBUAFX_MSGMAP@@XZ" PURGE="0" COMMENT="" />
    <EXPORT ORDINAL="2243" NAME="?GetMessageMap@CBCGPDropDownToolBar@@MBEPBUAFX_MSGMAP@@XZ" PURGE="0" COMMENT="" />
    <EXPORT ORDINAL="2244" NAME="?GetMessageMap@CBCGPDurationCtrl@@MBEPBUAFX_MSGMAP@@XZ" PURGE="0" COMMENT="" />
    <EXPORT ORDINAL="2245" NAME="?GetMessageMap@CBCGPEdit@@MBEPBUAFX_MSGMAP@@XZ" PURGE="0" COMMENT="" />
    <EXPORT ORDINAL="2246" NAME="?GetMessageMap@CBCGPEditCtrl@@MBEPBUAFX_MSGMAP@@XZ" PURGE="0" COMMENT="" />
    <EXPORT ORDINAL="2247" NAME="?GetMessageMap@CBCGPEditListBase@@MBEPBUAFX_MSGMAP@@XZ" PURGE="0" COMMENT="" />
    <EXPORT ORDINAL="2248" NAME="?GetMessageMap@CBCGPEditListBox@@MBEPBUAFX_MSGMAP@@XZ" PURGE="0" COMMENT="" />
    <EXPORT ORDINAL="2249" NAME="?GetMessageMap@CBCGPEditView@@MBEPBUAFX_MSGMAP@@XZ" PURGE="0" COMMENT="" />
    <EXPORT ORDINAL="2250" NAME="?GetMessageMap@CBCGPFileDialog@@MBEPBUAFX_MSGMAP@@XZ" PURGE="0" COMMENT="" />
    <EXPORT ORDINAL="2251" NAME="?GetMessageMap@CBCGPFontComboBox@@MBEPBUAFX_MSGMAP@@XZ" PURGE="0" COMMENT="" />
    <EXPORT ORDINAL="2252" NAME="?GetMessageMap@CBCGPFrameWnd@@MBEPBUAFX_MSGMAP@@XZ" PURGE="0" COMMENT="" />
    <EXPORT ORDINAL="2253" NAME="?GetMessageMap@CBCGPHeaderCtrl@@MBEPBUAFX_MSGMAP@@XZ" PURGE="0" COMMENT="" />
    <EXPORT ORDINAL="2254" NAME="?GetMessageMap@CBCGPHotSpotImageCtrl@@MBEPBUAFX_MSGMAP@@XZ" PURGE="0" COMMENT="" />
    <EXPORT ORDINAL="2255" NAME="?GetMessageMap@CBCGPImageEditDlg@@MBEPBUAFX_MSGMAP@@XZ" PURGE="0" COMMENT="" />
    <EXPORT ORDINAL="2256" NAME="?GetMessageMap@CBCGPIntelliSenseLB@@MBEPBUAFX_MSGMAP@@XZ" PURGE="0" COMMENT="" />
    <EXPORT ORDINAL="2257" NAME="?GetMessageMap@CBCGPIntelliSenseWnd@@MBEPBUAFX_MSGMAP@@XZ" PURGE="0" COMMENT="" />
    <EXPORT ORDINAL="2258" NAME="?GetMessageMap@CBCGPKeyMapDlg@@MBEPBUAFX_MSGMAP@@XZ" PURGE="0" COMMENT="" />
    <EXPORT ORDINAL="2259" NAME="?GetMessageMap@CBCGPListCtrl@@MBEPBUAFX_MSGMAP@@XZ" PURGE="0" COMMENT="" />
    <EXPORT ORDINAL="2260" NAME="?GetMessageMap@CBCGPMDIChildWnd@@MBEPBUAFX_MSGMAP@@XZ" PURGE="0" COMMENT="" />
    <EXPORT ORDINAL="2261" NAME="?GetMessageMap@CBCGPMDIFrameWnd@@MBEPBUAFX_MSGMAP@@XZ" PURGE="0" COMMENT="" />
    <EXPORT ORDINAL="2262" NAME="?GetMessageMap@CBCGPMainClientAreaWnd@@MBEPBUAFX_MSGMAP@@XZ" PURGE="0" COMMENT="" />
    <EXPORT ORDINAL="2263" NAME="?GetMessageMap@CBCGPMaskEdit@@MBEPBUAFX_MSGMAP@@XZ" PURGE="0" COMMENT="" />
    <EXPORT ORDINAL="2264" NAME="?GetMessageMap@CBCGPMenuBar@@MBEPBUAFX_MSGMAP@@XZ" PURGE="0" COMMENT="" />
    <EXPORT ORDINAL="2265" NAME="?GetMessageMap@CBCGPMenuButton@@MBEPBUAFX_MSGMAP@@XZ" PURGE="0" COMMENT="" />
    <EXPORT ORDINAL="2266" NAME="?GetMessageMap@CBCGPMiniFrameWnd@@MBEPBUAFX_MSGMAP@@XZ" PURGE="0" COMMENT="" />
    <EXPORT ORDINAL="2267" NAME="?GetMessageMap@CBCGPMultiMiniFrameWnd@@MBEPBUAFX_MSGMAP@@XZ" PURGE="0" COMMENT="" />
    <EXPORT ORDINAL="2268" NAME="?GetMessageMap@CBCGPOleCntrFrameWnd@@MBEPBUAFX_MSGMAP@@XZ" PURGE="0" COMMENT="" />
    <EXPORT ORDINAL="2269" NAME="?GetMessageMap@CBCGPOleDocIPFrameWnd@@MBEPBUAFX_MSGMAP@@XZ" PURGE="0" COMMENT="" />
    <EXPORT ORDINAL="2270" NAME="?GetMessageMap@CBCGPOleIPFrameWnd@@MBEPBUAFX_MSGMAP@@XZ" PURGE="0" COMMENT="" />
    <EXPORT ORDINAL="2271" NAME="?GetMessageMap@CBCGPOleServerDoc@@MBEPBUAFX_MSGMAP@@XZ" PURGE="0" COMMENT="" />
    <EXPORT ORDINAL="2272" NAME="?GetMessageMap@CBCGPOutlookBar@@MBEPBUAFX_MSGMAP@@XZ" PURGE="0" COMMENT="" />
    <EXPORT ORDINAL="2273" NAME="?GetMessageMap@CBCGPOutlookBarDockingPane@@MBEPBUAFX_MSGMAP@@XZ" PURGE="0" COMMENT="" />
    <EXPORT ORDINAL="2274" NAME="?GetMessageMap@CBCGPOutlookBarPane@@MBEPBUAFX_MSGMAP@@XZ" PURGE="0" COMMENT="" />
    <EXPORT ORDINAL="2275" NAME="?GetMessageMap@CBCGPOutlookControlBar@@MBEPBUAFX_MSGMAP@@XZ" PURGE="0" COMMENT="" />
    <EXPORT ORDINAL="2276" NAME="?GetMessageMap@CBCGPOutlookWnd@@MBEPBUAFX_MSGMAP@@XZ" PURGE="0" COMMENT="" />
    <EXPORT ORDINAL="2277" NAME="?GetMessageMap@CBCGPPopupMenu@@MBEPBUAFX_MSGMAP@@XZ" PURGE="0" COMMENT="" />
    <EXPORT ORDINAL="2278" NAME="?GetMessageMap@CBCGPPopupMenuBar@@MBEPBUAFX_MSGMAP@@XZ" PURGE="0" COMMENT="" />
    <EXPORT ORDINAL="2279" NAME="?GetMessageMap@CBCGPPrintPreviewToolBar@@MBEPBUAFX_MSGMAP@@XZ" PURGE="0" COMMENT="" />
    <EXPORT ORDINAL="2280" NAME="?GetMessageMap@CBCGPPrintPreviewView@@MBEPBUAFX_MSGMAP@@XZ" PURGE="0" COMMENT="" />
    <EXPORT ORDINAL="2281" NAME="?GetMessageMap@CBCGPPropList@@MBEPBUAFX_MSGMAP@@XZ" PURGE="0" COMMENT="" />
    <EXPORT ORDINAL="2282" NAME="?GetMessageMap@CBCGPPropertyPage@@MBEPBUAFX_MSGMAP@@XZ" PURGE="0" COMMENT="" />
    <EXPORT ORDINAL="2283" NAME="?GetMessageMap@CBCGPPropertySheet@@MBEPBUAFX_MSGMAP@@XZ" PURGE="0" COMMENT="" />
    <EXPORT ORDINAL="2284" NAME="?GetMessageMap@CBCGPReBar@@MBEPBUAFX_MSGMAP@@XZ" PURGE="0" COMMENT="" />
    <EXPORT ORDINAL="2285" NAME="?GetMessageMap@CBCGPShellList@@MBEPBUAFX_MSGMAP@@XZ" PURGE="0" COMMENT="" />
    <EXPORT ORDINAL="2286" NAME="?GetMessageMap@CBCGPShellTree@@MBEPBUAFX_MSGMAP@@XZ" PURGE="0" COMMENT="" />
    <EXPORT ORDINAL="2287" NAME="?GetMessageMap@CBCGPSlider@@MBEPBUAFX_MSGMAP@@XZ" PURGE="0" COMMENT="" />
    <EXPORT ORDINAL="2288" NAME="?GetMessageMap@CBCGPSpinButtonCtrl@@MBEPBUAFX_MSGMAP@@XZ" PURGE="0" COMMENT="" />
    <EXPORT ORDINAL="2289" NAME="?GetMessageMap@CBCGPSplitterWnd@@MBEPBUAFX_MSGMAP@@XZ" PURGE="0" COMMENT="" />
    <EXPORT ORDINAL="2290" NAME="?GetMessageMap@CBCGPStatusBar@@MBEPBUAFX_MSGMAP@@XZ" PURGE="0" COMMENT="" />
    <EXPORT ORDINAL="2291" NAME="?GetMessageMap@CBCGPSymImagesLB@@MBEPBUAFX_MSGMAP@@XZ" PURGE="0" COMMENT="" />
    <EXPORT ORDINAL="2292" NAME="?GetMessageMap@CBCGPTabView@@MBEPBUAFX_MSGMAP@@XZ" PURGE="0" COMMENT="" />
    <EXPORT ORDINAL="2293" NAME="?GetMessageMap@CBCGPTabWnd@@MBEPBUAFX_MSGMAP@@XZ" PURGE="0" COMMENT="" />
    <EXPORT ORDINAL="2294" NAME="?GetMessageMap@CBCGPTabbedControlBar@@MBEPBUAFX_MSGMAP@@XZ" PURGE="0" COMMENT="" />
    <EXPORT ORDINAL="2295" NAME="?GetMessageMap@CBCGPTabbedToolbar@@MBEPBUAFX_MSGMAP@@XZ" PURGE="0" COMMENT="" />
    <EXPORT ORDINAL="2296" NAME="?GetMessageMap@CBCGPTaskPaneMiniFrameWnd@@MBEPBUAFX_MSGMAP@@XZ" PURGE="0" COMMENT="" />
    <EXPORT ORDINAL="2297" NAME="?GetMessageMap@CBCGPTasksPane@@MBEPBUAFX_MSGMAP@@XZ" PURGE="0" COMMENT="" />
    <EXPORT ORDINAL="2298" NAME="?GetMessageMap@CBCGPToolBar@@MBEPBUAFX_MSGMAP@@XZ" PURGE="0" COMMENT="" />
    <EXPORT ORDINAL="2299" NAME="?GetMessageMap@CBCGPToolBox@@MBEPBUAFX_MSGMAP@@XZ" PURGE="0" COMMENT="" />
    <EXPORT ORDINAL="2300" NAME="?GetMessageMap@CBCGPToolBoxEx@@MBEPBUAFX_MSGMAP@@XZ" PURGE="0" COMMENT="" />
    <EXPORT ORDINAL="2301" NAME="?GetMessageMap@CBCGPToolBoxPage@@MBEPBUAFX_MSGMAP@@XZ" PURGE="0" COMMENT="" />
    <EXPORT ORDINAL="2302" NAME="?GetMessageMap@CBCGPToolbarCustomize@@MBEPBUAFX_MSGMAP@@XZ" PURGE="0" COMMENT="" />
    <EXPORT ORDINAL="2303" NAME="?GetMessageMap@CBCGPToolbarDropSource@@MBEPBUAFX_MSGMAP@@XZ" PURGE="0" COMMENT="" />
    <EXPORT ORDINAL="2304" NAME="?GetMessageMap@CBCGPToolbarDropTarget@@MBEPBUAFX_MSGMAP@@XZ" PURGE="0" COMMENT="" />
    <EXPORT ORDINAL="2305" NAME="?GetMessageMap@CBCGPURLLinkButton@@MBEPBUAFX_MSGMAP@@XZ" PURGE="0" COMMENT="" />
    <EXPORT ORDINAL="2306" NAME="?GetMessageMap@CBCGPWindowsManagerDlg@@MBEPBUAFX_MSGMAP@@XZ" PURGE="0" COMMENT="" />
    <EXPORT ORDINAL="2307" NAME="?GetMessageMap@CColorPopup@@MBEPBUAFX_MSGMAP@@XZ" PURGE="0" COMMENT="" />
    <EXPORT ORDINAL="2308" NAME="?GetMessageMap@CImagePaintArea@@MBEPBUAFX_MSGMAP@@XZ" PURGE="0" COMMENT="" />
    <EXPORT ORDINAL="2309" NAME="?GetMessageMap@CKeyAssign@@MBEPBUAFX_MSGMAP@@XZ" PURGE="0" COMMENT="" />
    <EXPORT ORDINAL="2310" NAME="?GetMessageWnd@CBCGPPopupMenu@@QBEPAVCWnd@@XZ" PURGE="0" COMMENT="" />
    <EXPORT ORDINAL="2311" NAME="?GetMinLength@CBCGPControlBar@@UBEHXZ" PURGE="0" COMMENT="" />
    <EXPORT ORDINAL="2312" NAME="?GetMinMaxOffset@CBCGPBarContainerManager@@UAEXPAVCBCGPSlider@@AAH11@Z" PURGE="16" COMMENT="" />
    <EXPORT ORDINAL="2313" NAME="?GetMinSize@CBCGPBarContainer@@UBEXAAVCSize@@@Z" PURGE="4" COMMENT="" />
    <EXPORT ORDINAL="2314" NAME="?GetMinSize@CBCGPBarContainerManager@@UAEXAAVCSize@@@Z" PURGE="4" COMMENT="" />
    <EXPORT ORDINAL="2315" NAME="?GetMinSize@CBCGPBaseToolBar@@UBEXAAVCSize@@@Z" PURGE="4" COMMENT="" />
    <EXPORT ORDINAL="2316" NAME="?GetMinSize@CBCGPControlBar@@UBEXAAVCSize@@@Z" PURGE="4" COMMENT="" />
    <EXPORT ORDINAL="2317" NAME="?GetMinSizeLeft@CBCGPBarContainer@@UBEXAAVCSize@@@Z" PURGE="4" COMMENT="" />
    <EXPORT ORDINAL="2318" NAME="?GetMinSizeRight@CBCGPBarContainer@@UBEXAAVCSize@@@Z" PURGE="4" COMMENT="" />
    <EXPORT ORDINAL="2319" NAME="?GetMiniFrames@CBCGPDockManager@@QBEABVCObList@@XZ" PURGE="0" COMMENT="" />
    <EXPORT ORDINAL="2320" NAME="?GetMode@CBCGPEdit@@QBE?AW4BrowseMode@1@XZ" PURGE="0" COMMENT="" />
    <EXPORT ORDINAL="2321" NAME="?GetMode@CBCGPImageEditDlg@@IBE?AW4IMAGE_EDIT_MODE@CImagePaintArea@@XZ" PURGE="0" COMMENT="" />
    <EXPORT ORDINAL="2322" NAME="?GetMode@CImagePaintArea@@QBE?AW4IMAGE_EDIT_MODE@1@XZ" PURGE="0" COMMENT="" />
    <EXPORT ORDINAL="2323" NAME="?GetMonthName@CBCGPCalendarBar@@CAPBDH@Z" PURGE="0" COMMENT="" />
    <EXPORT ORDINAL="2324" NAME="?GetMouseManager@CBCGPWorkspace@@QAEPAVCBCGPMouseManager@@XZ" PURGE="0" COMMENT="" />
    <EXPORT ORDINAL="2325" NAME="?GetName@CBCGPProp@@QBEPBDXZ" PURGE="-1" COMMENT="" />
    <EXPORT ORDINAL="2326" NAME="?GetNameOffset@CBCGPOutlineParser@@MAEHABV?$CStringT@DV?$StrTraitMFC_DLL@DV?$ChTraitsCRT@D@ATL@@@@@ATL@@HHPBUBlockType@@AAVCObList@@AAV23@@Z" PURGE="24" COMMENT="" />
    <EXPORT ORDINAL="2327" NAME="?GetNameTooltip@CBCGPProp@@UAE?AV?$CStringT@DV?$StrTraitMFC_DLL@DV?$ChTraitsCRT@D@ATL@@@@@ATL@@XZ" PURGE="4" COMMENT="" />
    <EXPORT ORDINAL="2328" NAME="?GetNewItemIndex@CBCGPFileDialog@@QBEHXZ" PURGE="0" COMMENT="" />
    <EXPORT ORDINAL="2329" NAME="?GetNext@CBCGPOutlineParser@@MAE?AULexeme@@ABV?$CStringT@DV?$StrTraitMFC_DLL@DV?$ChTraitsCRT@D@ATL@@@@@ATL@@AAHH@Z" PURGE="16" COMMENT="" />
    <EXPORT ORDINAL="2330" NAME="?GetNextItem@CBCGPShellManager@@QAEPAU_ITEMIDLIST@@PBU2@@Z" PURGE="4" COMMENT="" />
    <EXPORT ORDINAL="2331" NAME="?GetNextPages@CBCGPTasksPane@@QBEXAAVCStringList@@@Z" PURGE="4" COMMENT="" />
    <EXPORT ORDINAL="2332" NAME="?GetNextTabWnd@CBCGPMainClientAreaWnd@@AAEPAVCBCGPTabWnd@@PAV2@H@Z" PURGE="8" COMMENT="" />
    <EXPORT ORDINAL="2333" NAME="?GetNodeCount@CBCGPBarContainer@@QBEHXZ" PURGE="0" COMMENT="" />
    <EXPORT ORDINAL="2334" NAME="?GetNodeCount@CBCGPBarContainerManager@@QBEHXZ" PURGE="0" COMMENT="" />
    <EXPORT ORDINAL="2335" NAME="?GetNodes@CBCGPOutlineNode@@QAEPAVCObList@@XZ" PURGE="0" COMMENT="" />
    <EXPORT ORDINAL="2336" NAME="?GetNumOfCharsInText@CBCGPEditCtrl@@QAEHABV?$CStringT@DV?$StrTraitMFC_DLL@DV?$ChTraitsCRT@D@ATL@@@@@ATL@@D@Z" PURGE="8" COMMENT="" />
    <EXPORT ORDINAL="2337" NAME="?GetNumOfCharsInText@CBCGPEditCtrl@@QBEHHHDH@Z" PURGE="16" COMMENT="" />
    <EXPORT ORDINAL="2338" NAME="?GetNumOfColumnsInRowByOffset@CBCGPEditCtrl@@IBEHHAAHH@Z" PURGE="12" COMMENT="" />
    <EXPORT ORDINAL="2339" NAME="?GetObjectA@CBCGPWorkspace@@QAEHPBDAAVCObject@@@Z" PURGE="8" COMMENT="" />
    <EXPORT ORDINAL="2340" NAME="?GetOffset@CBCGPPopupMenuBar@@QBEHXZ" PURGE="0" COMMENT="" />
    <EXPORT ORDINAL="2341" NAME="?GetOffsetOfColumnInRow@CBCGPEditCtrl@@IAEHHHHH@Z" PURGE="16" COMMENT="" />
    <EXPORT ORDINAL="2342" NAME="?GetOppositeAlignment@CBCGPGlobalUtils@@QAEKK@Z" PURGE="4" COMMENT="" />
    <EXPORT ORDINAL="2343" NAME="?GetOption@CBCGPProp@@QBEPBDH@Z" PURGE="4" COMMENT="" />
    <EXPORT ORDINAL="2344" NAME="?GetOptionCount@CBCGPProp@@QBEHXZ" PURGE="0" COMMENT="" />
    <EXPORT ORDINAL="2345" NAME="?GetOrigButtons@CBCGPToolBar@@QBEABVCObList@@XZ" PURGE="0" COMMENT="" />
    <EXPORT ORDINAL="2346" NAME="?GetOrigResetButtons@CBCGPToolBar@@QBEABVCObList@@XZ" PURGE="0" COMMENT="" />
    <EXPORT ORDINAL="2347" NAME="?GetOutOfBoundsOffset@CBCGPDockBarRow@@AAEHPAVCBCGPControlBar@@H@Z" PURGE="8" COMMENT="" />
    <EXPORT ORDINAL="2348" NAME="?GetOutOfBoundsOffsetRect@CBCGPDockBarRow@@IAEHPAVCBCGPControlBar@@H@Z" PURGE="8" COMMENT="" />
    <EXPORT ORDINAL="2349" NAME="?GetOuterEdgeBounds@CBCGPDockManager@@QBE?AVCRect@@XZ" PURGE="4" COMMENT="" />
    <EXPORT ORDINAL="2350" NAME="?GetOutlineMarginWidth@CBCGPEditCtrl@@QBEHXZ" PURGE="0" COMMENT="" />
    <EXPORT ORDINAL="2351" NAME="?GetOutputTabbedTextExtent@CBCGPEditCtrl@@IAE?AVCSize@@PAVCDC@@PBDH@Z" PURGE="16" COMMENT="" />
    <EXPORT ORDINAL="2352" NAME="?GetOverrideMode@CBCGPEditCtrl@@UBEHXZ" PURGE="0" COMMENT="" />
    <EXPORT ORDINAL="2353" NAME="?GetPage@CBCGPFileDialog@@QBE?AW4SelectedPage@1@XZ" PURGE="0" COMMENT="" />
    <EXPORT ORDINAL="2354" NAME="?GetPage@CBCGPToolBox@@QBEPAVCBCGPToolBoxPage@@H@Z" PURGE="4" COMMENT="" />
    <EXPORT ORDINAL="2355" NAME="?GetPage@CBCGPToolBoxEx@@QBEPAVCBCGPToolBoxPage@@H@Z" PURGE="4" COMMENT="" />
    <EXPORT ORDINAL="2356" NAME="?GetPageByGroup@CBCGPTasksPane@@QBEHHAAH@Z" PURGE="8" COMMENT="" />
    <EXPORT ORDINAL="2357" NAME="?GetPageCount@CBCGPToolBoxEx@@QBEHXZ" PURGE="0" COMMENT="" />
    <EXPORT ORDINAL="2358" NAME="?GetPageNumber@CBCGPToolBox@@QBEHPAVCBCGPToolBoxPage@@@Z" PURGE="4" COMMENT="" />
    <EXPORT ORDINAL="2359" NAME="?GetPageNumber@CBCGPToolBoxEx@@QBEHPAVCBCGPToolBoxPage@@@Z" PURGE="4" COMMENT="" />
    <EXPORT ORDINAL="2360" NAME="?GetPagesCount@CBCGPTasksPane@@QBEHXZ" PURGE="0" COMMENT="" />
    <EXPORT ORDINAL="2361" NAME="?GetPalette@CBCGPColorDialog@@QBEPAVCPalette@@XZ" PURGE="0" COMMENT="" />
    <EXPORT ORDINAL="2362" NAME="?GetPaletteRows@CBCGPToolbarMenuButton@@QBEHXZ" PURGE="0" COMMENT="" />
    <EXPORT ORDINAL="2363" NAME="?GetPaneInfo@CBCGPStatusBar@@QBEXHAAI0AAH@Z" PURGE="16" COMMENT="" />
    <EXPORT ORDINAL="2364" NAME="?GetPaneProgress@CBCGPStatusBar@@QBEJH@Z" PURGE="4" COMMENT="" />
    <EXPORT ORDINAL="2365" NAME="?GetPaneStyle@CBCGPStatusBar@@QBEIH@Z" PURGE="4" COMMENT="" />
    <EXPORT ORDINAL="2366" NAME="?GetPaneText@CBCGPStatusBar@@QBE?AV?$CStringT@DV?$StrTraitMFC_DLL@DV?$ChTraitsCRT@D@ATL@@@@@ATL@@H@Z" PURGE="8" COMMENT="" />
    <EXPORT ORDINAL="2367" NAME="?GetPaneText@CBCGPStatusBar@@QBEXHAAV?$CStringT@DV?$StrTraitMFC_DLL@DV?$ChTraitsCRT@D@ATL@@@@@ATL@@@Z" PURGE="8" COMMENT="" />
    <EXPORT ORDINAL="2368" NAME="?GetPaneWidth@CBCGPStatusBar@@QBEHH@Z" PURGE="4" COMMENT="" />
    <EXPORT ORDINAL="2369" NAME="?GetParent@CBCGPMiniFrameWnd@@QAEPAVCWnd@@XZ" PURGE="0" COMMENT="" />
    <EXPORT ORDINAL="2370" NAME="?GetParent@CBCGPProp@@QBEPAV1@XZ" PURGE="0" COMMENT="" />
    <EXPORT ORDINAL="2371" NAME="?GetParentBar@CBCGPAutoHideButton@@QAEPAVCBCGPAutoHideToolBar@@XZ" PURGE="0" COMMENT="" />
    <EXPORT ORDINAL="2372" NAME="?GetParentButton@CBCGPPopupMenu@@QBEPAVCBCGPToolbarMenuButton@@XZ" PURGE="0" COMMENT="" />
    <EXPORT ORDINAL="2373" NAME="?GetParentContainer@CBCGPBarContainer@@QBEPAV1@XZ" PURGE="0" COMMENT="" />
    <EXPORT ORDINAL="2374" NAME="?GetParentDockBar@CBCGPBaseControlBar@@UBEPAVCBCGPDockBar@@XZ" PURGE="0" COMMENT="" />
    <EXPORT ORDINAL="2375" NAME="?GetParentEditCtrl@CBCGPBaseIntelliSenseLB@@IAEPAVCBCGPEditCtrl@@XZ" PURGE="0" COMMENT="" />
    <EXPORT ORDINAL="2376" NAME="?GetParentEditCtrl@CBCGPIntelliSenseWnd@@QAEPAVCBCGPEditCtrl@@XZ" PURGE="0" COMMENT="" />
    <EXPORT ORDINAL="2377" NAME="?GetParentItem@CBCGPShellManager@@QAEHPBU_ITEMIDLIST@@AAPAU2@@Z" PURGE="8" COMMENT="" />
    <EXPORT ORDINAL="2378" NAME="?GetParentMiniFrame@CBCGPBaseControlBar@@UBEPAVCBCGPMiniFrameWnd@@H@Z" PURGE="4" COMMENT="" />
    <EXPORT ORDINAL="2379" NAME="?GetParentNode@CBCGPOutlineNode@@QBEPAV1@XZ" PURGE="0" COMMENT="" />
    <EXPORT ORDINAL="2380" NAME="?GetParentPopupMenu@CBCGPPopupMenu@@QBEPAV1@XZ" PURGE="0" COMMENT="" />
    <EXPORT ORDINAL="2381" NAME="?GetParentTabWnd@CBCGPBaseControlBar@@QBEPAVCBCGPBaseTabWnd@@AAPAUHWND__@@@Z" PURGE="4" COMMENT="" />
    <EXPORT ORDINAL="2382" NAME="?GetParentTabbedBar@CBCGPBaseControlBar@@QBEPAVCBCGPBaseTabbedBar@@XZ" PURGE="0" COMMENT="" />
    <EXPORT ORDINAL="2383" NAME="?GetParentToolBar@CBCGPPopupMenu@@QBEPAVCBCGPToolBar@@XZ" PURGE="0" COMMENT="" />
    <EXPORT ORDINAL="2384" NAME="?GetParentToolbar@CBCGPCustomizeMenuButton@@SAPAVCBCGPToolBar@@XZ" PURGE="0" COMMENT="" />
    <EXPORT ORDINAL="2385" NAME="?GetParentWnd@CBCGPToolbarMenuButton@@QBEPAVCWnd@@XZ" PURGE="0" COMMENT="" />
    <EXPORT ORDINAL="2386" NAME="?GetPartFormat@CBCGPDateTimeCtrl@@IBEPBDH@Z" PURGE="4" COMMENT="" />
    <EXPORT ORDINAL="2387" NAME="?GetPartFromPoint@CBCGPDateTimeCtrl@@IAEHUtagPOINT@@@Z" PURGE="8" COMMENT="" />
    <EXPORT ORDINAL="2388" NAME="?GetPartSize@CBCGPDurationCtrl@@IAEXABV?$CStringT@DV?$StrTraitMFC_DLL@DV?$ChTraitsCRT@D@ATL@@@@@ATL@@AAVCSize@@@Z" PURGE="8" COMMENT="" />
    <EXPORT ORDINAL="2389" NAME="?GetPinState@CBCGPMiniFrameWnd@@QBEHXZ" PURGE="0" COMMENT="" />
    <EXPORT ORDINAL="2390" NAME="?GetPopupMenu@CBCGPToolbarMenuButton@@QBEPAVCBCGPPopupMenu@@XZ" PURGE="0" COMMENT="" />
    <EXPORT ORDINAL="2391" NAME="?GetPopupMenuBorderSize@CBCGPVisualManager@@UBEHXZ" PURGE="0" COMMENT="" />
    <EXPORT ORDINAL="2392" NAME="?GetPos@CBCGPAppBarWnd@@QAEXAAVCRect@@@Z" PURGE="4" COMMENT="" />
    <EXPORT ORDINAL="2393" NAME="?GetPreDockState@CBCGPMiniFrameWnd@@QAE?AW4BCGP_PREDOCK_STATE@@XZ" PURGE="0" COMMENT="" />
    <EXPORT ORDINAL="2394" NAME="?GetPrevWord@CBCGPOutlineParser@@MAEHABV?$CStringT@DV?$StrTraitMFC_DLL@DV?$ChTraitsCRT@D@ATL@@@@@ATL@@HHPBDAAV23@@Z" PURGE="20" COMMENT="" />
    <EXPORT ORDINAL="2395" NAME="?GetPreviousPages@CBCGPTasksPane@@QBEXAAVCStringList@@@Z" PURGE="4" COMMENT="" />
    <EXPORT ORDINAL="2396" NAME="?GetPrompt@CBCGPToolbarComboBoxButton@@UBE?AV?$CStringT@DV?$StrTraitMFC_DLL@DV?$ChTraitsCRT@D@ATL@@@@@ATL@@XZ" PURGE="4" COMMENT="" />
    <EXPORT ORDINAL="2397" NAME="?GetProperty@CBCGPPropList@@QBEPAVCBCGPProp@@H@Z" PURGE="4" COMMENT="" />
    <EXPORT ORDINAL="2398" NAME="?GetPropertyColumnWidth@CBCGPPropList@@QBEHXZ" PURGE="0" COMMENT="" />
    <EXPORT ORDINAL="2399" NAME="?GetPropertyCount@CBCGPPropList@@QBEHXZ" PURGE="0" COMMENT="" />
    <EXPORT ORDINAL="2400" NAME="?GetProtectedCommands@CBCGPToolbarButton@@SAABV?$CList@II@@XZ" PURGE="0" COMMENT="" />
    <EXPORT ORDINAL="2401" NAME="?GetQuickCustomizeType@CBCGPPopupMenu@@QBE?AW4QUICK_CUSTOMIZE_TYPE@1@XZ" PURGE="0" COMMENT="" />
    <EXPORT ORDINAL="2402" NAME="?GetRGB@CBCGPColorPickerCtrl@@QBEKXZ" PURGE="0" COMMENT="" />
    <EXPORT ORDINAL="2403" NAME="?GetRange@CBCGPToolbarSpinEditBoxButton@@QAEXAAH0@Z" PURGE="8" COMMENT="" />
    <EXPORT ORDINAL="2404" NAME="?GetRangeToReparse@CBCGPOutlineParser@@MBEPAVCBCGPOutlineNode@@PAV2@AAH1@Z" PURGE="12" COMMENT="" />
    <EXPORT ORDINAL="2405" NAME="?GetReBarCtrl@CBCGPReBar@@QBEAAVCReBarCtrl@@XZ" PURGE="0" COMMENT="" />
    <EXPORT ORDINAL="2406" NAME="?GetRecentFilePath@CBCGPFileDialog@@QBEABV?$CStringT@DV?$StrTraitMFC_DLL@DV?$ChTraitsCRT@D@ATL@@@@@ATL@@XZ" PURGE="0" COMMENT="" />
    <EXPORT ORDINAL="2407" NAME="?GetRecentFloatingRect@CBCGPMiniFrameWnd@@QBE?AVCRect@@XZ" PURGE="4" COMMENT="" />
    <EXPORT ORDINAL="2408" NAME="?GetRecentPercent@CBCGPBarContainer@@QAEHXZ" PURGE="0" COMMENT="" />
    <EXPORT ORDINAL="2409" NAME="?GetRecentSiblingBarInfo@CBCGPDockingControlBar@@QAEXAAV?$CList@IAAI@@@Z" PURGE="4" COMMENT="" />
    <EXPORT ORDINAL="2410" NAME="?GetRecentSliderRect@CBCGPBarContainer@@QBE?AVCRect@@XZ" PURGE="4" COMMENT="" />
    <EXPORT ORDINAL="2411" NAME="?GetRecentSliderStyle@CBCGPBarContainer@@QBEKXZ" PURGE="0" COMMENT="" />
    <EXPORT ORDINAL="2412" NAME="?GetRecentVisibleState@CBCGPBaseControlBar@@UBEHXZ" PURGE="0" COMMENT="" />
    <EXPORT ORDINAL="2413" NAME="?GetRect@CBCGPAutoHideButton@@QBE?AVCRect@@XZ" PURGE="4" COMMENT="" />
    <EXPORT ORDINAL="2414" NAME="?GetRect@CBCGPCaptionButton@@QBE?AVCRect@@XZ" PURGE="4" COMMENT="" />
    <EXPORT ORDINAL="2415" NAME="?GetRect@CBCGPProp@@QBE?AVCRect@@XZ" PURGE="4" COMMENT="" />
    <EXPORT ORDINAL="2416" NAME="?GetRedoActions@CBCGPEditCtrl@@QBEXAAVCDWordArray@@@Z" PURGE="4" COMMENT="" />
    <EXPORT ORDINAL="2417" NAME="?GetRefCount@CBCGPBarContainer@@QAEJXZ" PURGE="0" COMMENT="" />
    <EXPORT ORDINAL="2418" NAME="?GetRegPath@CBCGPTearOffManager@@QBEPBDXZ" PURGE="-1" COMMENT="" />
    <EXPORT ORDINAL="2419" NAME="?GetRegSectionPath@CBCGPWorkspace@@QAE?AV?$CStringT@DV?$StrTraitMFC_DLL@DV?$ChTraitsCRT@D@ATL@@@@@ATL@@PBD@Z" PURGE="8" COMMENT="" />
    <EXPORT ORDINAL="2420" NAME="?GetRegistryBase@CBCGPWorkspace@@QAEPBDXZ" PURGE="-1" COMMENT="" />
    <EXPORT ORDINAL="2421" NAME="?GetRegularColor@CBCGPOutlookBarPane@@QBEKXZ" PURGE="0" COMMENT="" />
    <EXPORT ORDINAL="2422" NAME="?GetRelatedList@CBCGPShellTree@@QBEPAVCBCGPShellList@@XZ" PURGE="0" COMMENT="" />
    <EXPORT ORDINAL="2423" NAME="?GetRelatedTabGroup@CBCGPMDIChildWnd@@QAEPAVCBCGPTabWnd@@XZ" PURGE="0" COMMENT="" />
    <EXPORT ORDINAL="2424" NAME="?GetRelatedTree@CBCGPShellList@@IBEPAVCBCGPShellTree@@XZ" PURGE="0" COMMENT="" />
    <EXPORT ORDINAL="2425" NAME="?GetResizeMode@CBCGPTabWnd@@QBE?AW4ResizeMode@1@XZ" PURGE="0" COMMENT="" />
    <EXPORT ORDINAL="2426" NAME="?GetResizeStep@CBCGPBarContainer@@UBEHXZ" PURGE="0" COMMENT="" />
    <EXPORT ORDINAL="2427" NAME="?GetResizeStep@CBCGPControlBar@@UBEHXZ" PURGE="0" COMMENT="" />
    <EXPORT ORDINAL="2428" NAME="?GetResourceID@CBCGPToolBar@@QBEIXZ" PURGE="0" COMMENT="" />
    <EXPORT ORDINAL="2429" NAME="?GetResourceOffset@CBCGPToolBarImages@@QBEHI@Z" PURGE="4" COMMENT="" />
    <EXPORT ORDINAL="2430" NAME="?GetRightBar@CBCGPBarContainer@@QBEPBVCBCGPDockingControlBar@@XZ" PURGE="0" COMMENT="" />
    <EXPORT ORDINAL="2431" NAME="?GetRightContainer@CBCGPBarContainer@@QBEPBV1@XZ" PURGE="0" COMMENT="" />
    <EXPORT ORDINAL="2432" NAME="?GetRootItems@CBCGPShellTree@@IAEHXZ" PURGE="0" COMMENT="" />
    <EXPORT ORDINAL="2433" NAME="?GetRouteCommandsViaFrame@CBCGPToolBar@@QAEHXZ" PURGE="0" COMMENT="" />
    <EXPORT ORDINAL="2434" NAME="?GetRowAlignment@CBCGPDockBarRow@@QBEKXZ" PURGE="0" COMMENT="" />
    <EXPORT ORDINAL="2435" NAME="?GetRowEndByOffset@CBCGPEditCtrl@@IBEHHH@Z" PURGE="8" COMMENT="" />
    <EXPORT ORDINAL="2436" NAME="?GetRowFromVirtual@CBCGPEditCtrl@@IBEHHH@Z" PURGE="8" COMMENT="" />
    <EXPORT ORDINAL="2437" NAME="?GetRowHeight@CBCGPDockBarRow@@QBEHXZ" PURGE="0" COMMENT="" />
    <EXPORT ORDINAL="2438" NAME="?GetRowHeight@CBCGPMenuBar@@UBEHXZ" PURGE="0" COMMENT="" />
    <EXPORT ORDINAL="2439" NAME="?GetRowHeight@CBCGPPropList@@QBEHXZ" PURGE="0" COMMENT="" />
    <EXPORT ORDINAL="2440" NAME="?GetRowHeight@CBCGPToolBar@@UBEHXZ" PURGE="0" COMMENT="" />
    <EXPORT ORDINAL="2441" NAME="?GetRowOffset@CBCGPDockBarRow@@QBEHXZ" PURGE="0" COMMENT="" />
    <EXPORT ORDINAL="2442" NAME="?GetRowStart@CBCGPEditCtrl@@IBEHHH@Z" PURGE="8" COMMENT="" />
    <EXPORT ORDINAL="2443" NAME="?GetRowStartByOffset@CBCGPEditCtrl@@IBEHHH@Z" PURGE="8" COMMENT="" />
    <EXPORT ORDINAL="2444" NAME="?GetRowTextStart@CBCGPEditCtrl@@IBEHHH@Z" PURGE="8" COMMENT="" />
    <EXPORT ORDINAL="2445" NAME="?GetRuntimeClass@CBCGPAnimCtrl@@UBEPAUCRuntimeClass@@XZ" PURGE="0" COMMENT="" />
    <EXPORT ORDINAL="2446" NAME="?GetRuntimeClass@CBCGPAppBarWnd@@UBEPAUCRuntimeClass@@XZ" PURGE="0" COMMENT="" />
    <EXPORT ORDINAL="2447" NAME="?GetRuntimeClass@CBCGPAutoHideButton@@UBEPAUCRuntimeClass@@XZ" PURGE="0" COMMENT="" />
    <EXPORT ORDINAL="2448" NAME="?GetRuntimeClass@CBCGPAutoHideDockBar@@UBEPAUCRuntimeClass@@XZ" PURGE="0" COMMENT="" />
    <EXPORT ORDINAL="2449" NAME="?GetRuntimeClass@CBCGPAutoHideToolBar@@UBEPAUCRuntimeClass@@XZ" PURGE="0" COMMENT="" />
    <EXPORT ORDINAL="2450" NAME="?GetRuntimeClass@CBCGPBarContainer@@UBEPAUCRuntimeClass@@XZ" PURGE="0" COMMENT="" />
    <EXPORT ORDINAL="2451" NAME="?GetRuntimeClass@CBCGPBarContainerManager@@UBEPAUCRuntimeClass@@XZ" PURGE="0" COMMENT="" />
    <EXPORT ORDINAL="2452" NAME="?GetRuntimeClass@CBCGPBaseControlBar@@UBEPAUCRuntimeClass@@XZ" PURGE="0" COMMENT="" />
    <EXPORT ORDINAL="2453" NAME="?GetRuntimeClass@CBCGPBaseIntelliSenseLB@@UBEPAUCRuntimeClass@@XZ" PURGE="0" COMMENT="" />
    <EXPORT ORDINAL="2454" NAME="?GetRuntimeClass@CBCGPBaseTabWnd@@UBEPAUCRuntimeClass@@XZ" PURGE="0" COMMENT="" />
    <EXPORT ORDINAL="2455" NAME="?GetRuntimeClass@CBCGPBaseTabbedBar@@UBEPAUCRuntimeClass@@XZ" PURGE="0" COMMENT="" />
    <EXPORT ORDINAL="2456" NAME="?GetRuntimeClass@CBCGPBaseToolBar@@UBEPAUCRuntimeClass@@XZ" PURGE="0" COMMENT="" />
    <EXPORT ORDINAL="2457" NAME="?GetRuntimeClass@CBCGPButton@@UBEPAUCRuntimeClass@@XZ" PURGE="0" COMMENT="" />
    <EXPORT ORDINAL="2458" NAME="?GetRuntimeClass@CBCGPCalculator@@UBEPAUCRuntimeClass@@XZ" PURGE="0" COMMENT="" />
    <EXPORT ORDINAL="2459" NAME="?GetRuntimeClass@CBCGPCalendarBar@@UBEPAUCRuntimeClass@@XZ" PURGE="0" COMMENT="" />
    <EXPORT ORDINAL="2460" NAME="?GetRuntimeClass@CBCGPCalendarButton@@UBEPAUCRuntimeClass@@XZ" PURGE="0" COMMENT="" />
    <EXPORT ORDINAL="2461" NAME="?GetRuntimeClass@CBCGPCalendarMenuButton@@UBEPAUCRuntimeClass@@XZ" PURGE="0" COMMENT="" />
    <EXPORT ORDINAL="2462" NAME="?GetRuntimeClass@CBCGPCaptionBar@@UBEPAUCRuntimeClass@@XZ" PURGE="0" COMMENT="" />
    <EXPORT ORDINAL="2463" NAME="?GetRuntimeClass@CBCGPColorBar@@UBEPAUCRuntimeClass@@XZ" PURGE="0" COMMENT="" />
    <EXPORT ORDINAL="2464" NAME="?GetRuntimeClass@CBCGPColorButton@@UBEPAUCRuntimeClass@@XZ" PURGE="0" COMMENT="" />
    <EXPORT ORDINAL="2465" NAME="?GetRuntimeClass@CBCGPColorMenuButton@@UBEPAUCRuntimeClass@@XZ" PURGE="0" COMMENT="" />
    <EXPORT ORDINAL="2466" NAME="?GetRuntimeClass@CBCGPColorProp@@UBEPAUCRuntimeClass@@XZ" PURGE="0" COMMENT="" />
    <EXPORT ORDINAL="2467" NAME="?GetRuntimeClass@CBCGPControlBar@@UBEPAUCRuntimeClass@@XZ" PURGE="0" COMMENT="" />
    <EXPORT ORDINAL="2468" NAME="?GetRuntimeClass@CBCGPCustomizeMenuButton@@UBEPAUCRuntimeClass@@XZ" PURGE="0" COMMENT="" />
    <EXPORT ORDINAL="2469" NAME="?GetRuntimeClass@CBCGPDateTimeCtrl@@UBEPAUCRuntimeClass@@XZ" PURGE="0" COMMENT="" />
    <EXPORT ORDINAL="2470" NAME="?GetRuntimeClass@CBCGPDateTimeProp@@UBEPAUCRuntimeClass@@XZ" PURGE="0" COMMENT="" />
    <EXPORT ORDINAL="2471" NAME="?GetRuntimeClass@CBCGPDialog@@UBEPAUCRuntimeClass@@XZ" PURGE="0" COMMENT="" />
    <EXPORT ORDINAL="2472" NAME="?GetRuntimeClass@CBCGPDialogBar@@UBEPAUCRuntimeClass@@XZ" PURGE="0" COMMENT="" />
    <EXPORT ORDINAL="2473" NAME="?GetRuntimeClass@CBCGPDockBar@@UBEPAUCRuntimeClass@@XZ" PURGE="0" COMMENT="" />
    <EXPORT ORDINAL="2474" NAME="?GetRuntimeClass@CBCGPDockBarRow@@UBEPAUCRuntimeClass@@XZ" PURGE="0" COMMENT="" />
    <EXPORT ORDINAL="2475" NAME="?GetRuntimeClass@CBCGPDockingCBWrapper@@UBEPAUCRuntimeClass@@XZ" PURGE="0" COMMENT="" />
    <EXPORT ORDINAL="2476" NAME="?GetRuntimeClass@CBCGPDockingControlBar@@UBEPAUCRuntimeClass@@XZ" PURGE="0" COMMENT="" />
    <EXPORT ORDINAL="2477" NAME="?GetRuntimeClass@CBCGPDropDownToolBar@@UBEPAUCRuntimeClass@@XZ" PURGE="0" COMMENT="" />
    <EXPORT ORDINAL="2478" NAME="?GetRuntimeClass@CBCGPDropDownToolbarButton@@UBEPAUCRuntimeClass@@XZ" PURGE="0" COMMENT="" />
    <EXPORT ORDINAL="2479" NAME="?GetRuntimeClass@CBCGPEditCtrl@@UBEPAUCRuntimeClass@@XZ" PURGE="0" COMMENT="" />
    <EXPORT ORDINAL="2480" NAME="?GetRuntimeClass@CBCGPEditMarker@@UBEPAUCRuntimeClass@@XZ" PURGE="0" COMMENT="" />
    <EXPORT ORDINAL="2481" NAME="?GetRuntimeClass@CBCGPEditView@@UBEPAUCRuntimeClass@@XZ" PURGE="0" COMMENT="" />
    <EXPORT ORDINAL="2482" NAME="?GetRuntimeClass@CBCGPFileDialog@@UBEPAUCRuntimeClass@@XZ" PURGE="0" COMMENT="" />
    <EXPORT ORDINAL="2483" NAME="?GetRuntimeClass@CBCGPFileProp@@UBEPAUCRuntimeClass@@XZ" PURGE="0" COMMENT="" />
    <EXPORT ORDINAL="2484" NAME="?GetRuntimeClass@CBCGPFontProp@@UBEPAUCRuntimeClass@@XZ" PURGE="0" COMMENT="" />
    <EXPORT ORDINAL="2485" NAME="?GetRuntimeClass@CBCGPFrameWnd@@UBEPAUCRuntimeClass@@XZ" PURGE="0" COMMENT="" />
    <EXPORT ORDINAL="2486" NAME="?GetRuntimeClass@CBCGPHeaderCtrl@@UBEPAUCRuntimeClass@@XZ" PURGE="0" COMMENT="" />
    <EXPORT ORDINAL="2487" NAME="?GetRuntimeClass@CBCGPHiliteMarker@@UBEPAUCRuntimeClass@@XZ" PURGE="0" COMMENT="" />
    <EXPORT ORDINAL="2488" NAME="?GetRuntimeClass@CBCGPHotSpot@@UBEPAUCRuntimeClass@@XZ" PURGE="0" COMMENT="" />
    <EXPORT ORDINAL="2489" NAME="?GetRuntimeClass@CBCGPIntelliSenseLB@@UBEPAUCRuntimeClass@@XZ" PURGE="0" COMMENT="" />
    <EXPORT ORDINAL="2490" NAME="?GetRuntimeClass@CBCGPIntelliSenseWnd@@UBEPAUCRuntimeClass@@XZ" PURGE="0" COMMENT="" />
    <EXPORT ORDINAL="2491" NAME="?GetRuntimeClass@CBCGPLineColorMarker@@UBEPAUCRuntimeClass@@XZ" PURGE="0" COMMENT="" />
    <EXPORT ORDINAL="2492" NAME="?GetRuntimeClass@CBCGPListCtrl@@UBEPAUCRuntimeClass@@XZ" PURGE="0" COMMENT="" />
    <EXPORT ORDINAL="2493" NAME="?GetRuntimeClass@CBCGPMDIChildWnd@@UBEPAUCRuntimeClass@@XZ" PURGE="0" COMMENT="" />
    <EXPORT ORDINAL="2494" NAME="?GetRuntimeClass@CBCGPMDIFrameWnd@@UBEPAUCRuntimeClass@@XZ" PURGE="0" COMMENT="" />
    <EXPORT ORDINAL="2495" NAME="?GetRuntimeClass@CBCGPMainClientAreaWnd@@UBEPAUCRuntimeClass@@XZ" PURGE="0" COMMENT="" />
    <EXPORT ORDINAL="2496" NAME="?GetRuntimeClass@CBCGPMaskEdit@@UBEPAUCRuntimeClass@@XZ" PURGE="0" COMMENT="" />
    <EXPORT ORDINAL="2497" NAME="?GetRuntimeClass@CBCGPMenuBar@@UBEPAUCRuntimeClass@@XZ" PURGE="0" COMMENT="" />
    <EXPORT ORDINAL="2498" NAME="?GetRuntimeClass@CBCGPMenuButton@@UBEPAUCRuntimeClass@@XZ" PURGE="0" COMMENT="" />
    <EXPORT ORDINAL="2499" NAME="?GetRuntimeClass@CBCGPMiniFrameWnd@@UBEPAUCRuntimeClass@@XZ" PURGE="0" COMMENT="" />
    <EXPORT ORDINAL="2500" NAME="?GetRuntimeClass@CBCGPMouseManager@@UBEPAUCRuntimeClass@@XZ" PURGE="0" COMMENT="" />
    <EXPORT ORDINAL="2501" NAME="?GetRuntimeClass@CBCGPMultiMiniFrameWnd@@UBEPAUCRuntimeClass@@XZ" PURGE="0" COMMENT="" />
    <EXPORT ORDINAL="2502" NAME="?GetRuntimeClass@CBCGPOleCntrFrameWnd@@UBEPAUCRuntimeClass@@XZ" PURGE="0" COMMENT="" />
    <EXPORT ORDINAL="2503" NAME="?GetRuntimeClass@CBCGPOleDocIPFrameWnd@@UBEPAUCRuntimeClass@@XZ" PURGE="0" COMMENT="" />
    <EXPORT ORDINAL="2504" NAME="?GetRuntimeClass@CBCGPOleIPFrameWnd@@UBEPAUCRuntimeClass@@XZ" PURGE="0" COMMENT="" />
    <EXPORT ORDINAL="2505" NAME="?GetRuntimeClass@CBCGPOleServerDoc@@UBEPAUCRuntimeClass@@XZ" PURGE="0" COMMENT="" />
    <EXPORT ORDINAL="2506" NAME="?GetRuntimeClass@CBCGPOutlineBaseNode@@UBEPAUCRuntimeClass@@XZ" PURGE="0" COMMENT="" />
    <EXPORT ORDINAL="2507" NAME="?GetRuntimeClass@CBCGPOutlineNode@@UBEPAUCRuntimeClass@@XZ" PURGE="0" COMMENT="" />
    <EXPORT ORDINAL="2508" NAME="?GetRuntimeClass@CBCGPOutlookBar@@UBEPAUCRuntimeClass@@XZ" PURGE="0" COMMENT="" />
    <EXPORT ORDINAL="2509" NAME="?GetRuntimeClass@CBCGPOutlookBarDockingPane@@UBEPAUCRuntimeClass@@XZ" PURGE="0" COMMENT="" />
    <EXPORT ORDINAL="2510" NAME="?GetRuntimeClass@CBCGPOutlookBarPane@@UBEPAUCRuntimeClass@@XZ" PURGE="0" COMMENT="" />
    <EXPORT ORDINAL="2511" NAME="?GetRuntimeClass@CBCGPOutlookButton@@UBEPAUCRuntimeClass@@XZ" PURGE="0" COMMENT="" />
    <EXPORT ORDINAL="2512" NAME="?GetRuntimeClass@CBCGPOutlookControlBar@@UBEPAUCRuntimeClass@@XZ" PURGE="0" COMMENT="" />
    <EXPORT ORDINAL="2513" NAME="?GetRuntimeClass@CBCGPOutlookWnd@@UBEPAUCRuntimeClass@@XZ" PURGE="0" COMMENT="" />
    <EXPORT ORDINAL="2514" NAME="?GetRuntimeClass@CBCGPPopupMenu@@UBEPAUCRuntimeClass@@XZ" PURGE="0" COMMENT="" />
    <EXPORT ORDINAL="2515" NAME="?GetRuntimeClass@CBCGPPopupMenuBar@@UBEPAUCRuntimeClass@@XZ" PURGE="0" COMMENT="" />
    <EXPORT ORDINAL="2516" NAME="?GetRuntimeClass@CBCGPPrintPreviewToolBar@@UBEPAUCRuntimeClass@@XZ" PURGE="0" COMMENT="" />
    <EXPORT ORDINAL="2517" NAME="?GetRuntimeClass@CBCGPPrintPreviewView@@UBEPAUCRuntimeClass@@XZ" PURGE="0" COMMENT="" />
    <EXPORT ORDINAL="2518" NAME="?GetRuntimeClass@CBCGPProp@@UBEPAUCRuntimeClass@@XZ" PURGE="0" COMMENT="" />
    <EXPORT ORDINAL="2519" NAME="?GetRuntimeClass@CBCGPPropList@@UBEPAUCRuntimeClass@@XZ" PURGE="0" COMMENT="" />
    <EXPORT ORDINAL="2520" NAME="?GetRuntimeClass@CBCGPPropSheetCategory@@UBEPAUCRuntimeClass@@XZ" PURGE="0" COMMENT="" />
    <EXPORT ORDINAL="2521" NAME="?GetRuntimeClass@CBCGPPropertyPage@@UBEPAUCRuntimeClass@@XZ" PURGE="0" COMMENT="" />
    <EXPORT ORDINAL="2522" NAME="?GetRuntimeClass@CBCGPPropertySheet@@UBEPAUCRuntimeClass@@XZ" PURGE="0" COMMENT="" />
    <EXPORT ORDINAL="2523" NAME="?GetRuntimeClass@CBCGPReBar@@UBEPAUCRuntimeClass@@XZ" PURGE="0" COMMENT="" />
    <EXPORT ORDINAL="2524" NAME="?GetRuntimeClass@CBCGPRegistry@@UBEPAUCRuntimeClass@@XZ" PURGE="0" COMMENT="" />
    <EXPORT ORDINAL="2525" NAME="?GetRuntimeClass@CBCGPShellList@@UBEPAUCRuntimeClass@@XZ" PURGE="0" COMMENT="" />
    <EXPORT ORDINAL="2526" NAME="?GetRuntimeClass@CBCGPShellTree@@UBEPAUCRuntimeClass@@XZ" PURGE="0" COMMENT="" />
    <EXPORT ORDINAL="2527" NAME="?GetRuntimeClass@CBCGPSlider@@UBEPAUCRuntimeClass@@XZ" PURGE="0" COMMENT="" />
    <EXPORT ORDINAL="2528" NAME="?GetRuntimeClass@CBCGPStatusBar@@UBEPAUCRuntimeClass@@XZ" PURGE="0" COMMENT="" />
    <EXPORT ORDINAL="2529" NAME="?GetRuntimeClass@CBCGPSymImagesLB@@UBEPAUCRuntimeClass@@XZ" PURGE="0" COMMENT="" />
    <EXPORT ORDINAL="2530" NAME="?GetRuntimeClass@CBCGPTabView@@UBEPAUCRuntimeClass@@XZ" PURGE="0" COMMENT="" />
    <EXPORT ORDINAL="2531" NAME="?GetRuntimeClass@CBCGPTabWnd@@UBEPAUCRuntimeClass@@XZ" PURGE="0" COMMENT="" />
    <EXPORT ORDINAL="2532" NAME="?GetRuntimeClass@CBCGPTabbedControlBar@@UBEPAUCRuntimeClass@@XZ" PURGE="0" COMMENT="" />
    <EXPORT ORDINAL="2533" NAME="?GetRuntimeClass@CBCGPTabbedToolbar@@UBEPAUCRuntimeClass@@XZ" PURGE="0" COMMENT="" />
    <EXPORT ORDINAL="2534" NAME="?GetRuntimeClass@CBCGPTaskPaneMiniFrameWnd@@UBEPAUCRuntimeClass@@XZ" PURGE="0" COMMENT="" />
    <EXPORT ORDINAL="2535" NAME="?GetRuntimeClass@CBCGPTasksPane@@UBEPAUCRuntimeClass@@XZ" PURGE="0" COMMENT="" />
    <EXPORT ORDINAL="2536" NAME="?GetRuntimeClass@CBCGPToolBar@@UBEPAUCRuntimeClass@@XZ" PURGE="0" COMMENT="" />
    <EXPORT ORDINAL="2537" NAME="?GetRuntimeClass@CBCGPToolBox@@UBEPAUCRuntimeClass@@XZ" PURGE="0" COMMENT="" />
    <EXPORT ORDINAL="2538" NAME="?GetRuntimeClass@CBCGPToolBoxButton@@UBEPAUCRuntimeClass@@XZ" PURGE="0" COMMENT="" />
    <EXPORT ORDINAL="2539" NAME="?GetRuntimeClass@CBCGPToolBoxEx@@UBEPAUCRuntimeClass@@XZ" PURGE="0" COMMENT="" />
    <EXPORT ORDINAL="2540" NAME="?GetRuntimeClass@CBCGPToolBoxPage@@UBEPAUCRuntimeClass@@XZ" PURGE="0" COMMENT="" />
    <EXPORT ORDINAL="2541" NAME="?GetRuntimeClass@CBCGPToolbarButton@@UBEPAUCRuntimeClass@@XZ" PURGE="0" COMMENT="" />
    <EXPORT ORDINAL="2542" NAME="?GetRuntimeClass@CBCGPToolbarComboBoxButton@@UBEPAUCRuntimeClass@@XZ" PURGE="0" COMMENT="" />
    <EXPORT ORDINAL="2543" NAME="?GetRuntimeClass@CBCGPToolbarCustomize@@UBEPAUCRuntimeClass@@XZ" PURGE="0" COMMENT="" />
    <EXPORT ORDINAL="2544" NAME="?GetRuntimeClass@CBCGPToolbarDateTimeCtrl@@UBEPAUCRuntimeClass@@XZ" PURGE="0" COMMENT="" />
    <EXPORT ORDINAL="2545" NAME="?GetRuntimeClass@CBCGPToolbarEditBoxButton@@UBEPAUCRuntimeClass@@XZ" PURGE="0" COMMENT="" />
    <EXPORT ORDINAL="2546" NAME="?GetRuntimeClass@CBCGPToolbarFontCombo@@UBEPAUCRuntimeClass@@XZ" PURGE="0" COMMENT="" />
    <EXPORT ORDINAL="2547" NAME="?GetRuntimeClass@CBCGPToolbarFontSizeCombo@@UBEPAUCRuntimeClass@@XZ" PURGE="0" COMMENT="" />
    <EXPORT ORDINAL="2548" NAME="?GetRuntimeClass@CBCGPToolbarMenuButton@@UBEPAUCRuntimeClass@@XZ" PURGE="0" COMMENT="" />
    <EXPORT ORDINAL="2549" NAME="?GetRuntimeClass@CBCGPToolbarSpinEditBoxButton@@UBEPAUCRuntimeClass@@XZ" PURGE="0" COMMENT="" />
    <EXPORT ORDINAL="2550" NAME="?GetRuntimeClass@CBCGPURLLinkButton@@UBEPAUCRuntimeClass@@XZ" PURGE="0" COMMENT="" />
    <EXPORT ORDINAL="2551" NAME="?GetRuntimeClass@CBCGPUserTool@@UBEPAUCRuntimeClass@@XZ" PURGE="0" COMMENT="" />
    <EXPORT ORDINAL="2552" NAME="?GetRuntimeClass@CBCGPVisualManager2003@@UBEPAUCRuntimeClass@@XZ" PURGE="0" COMMENT="" />
    <EXPORT ORDINAL="2553" NAME="?GetRuntimeClass@CBCGPVisualManager@@UBEPAUCRuntimeClass@@XZ" PURGE="0" COMMENT="" />
    <EXPORT ORDINAL="2554" NAME="?GetRuntimeClass@CBCGPVisualManagerVS2005@@UBEPAUCRuntimeClass@@XZ" PURGE="0" COMMENT="" />
    <EXPORT ORDINAL="2555" NAME="?GetRuntimeClass@CBCGPVisualManagerXP@@UBEPAUCRuntimeClass@@XZ" PURGE="0" COMMENT="" />
    <EXPORT ORDINAL="2556" NAME="?GetRuntimeClass@CBCGPWinXPVisualManager@@UBEPAUCRuntimeClass@@XZ" PURGE="0" COMMENT="" />
    <EXPORT ORDINAL="2557" NAME="?GetRuntimeClass@CColorPopup@@UBEPAUCRuntimeClass@@XZ" PURGE="0" COMMENT="" />
    <EXPORT ORDINAL="2558" NAME="?GetSDManager@CBCGPDockManager@@QAEPAVCBCGPSmartDockingManager@@XZ" PURGE="0" COMMENT="" />
    <EXPORT ORDINAL="2559" NAME="?GetSDManagerPermanent@CBCGPDockManager@@QBEPAVCBCGPSmartDockingManager@@XZ" PURGE="0" COMMENT="" />
    <EXPORT ORDINAL="2560" NAME="?GetSaturation@CBCGPColorPickerCtrl@@QBENXZ" PURGE="0" COMMENT="" />
    <EXPORT ORDINAL="2561" NAME="?GetScreenRect@CBCGPAppBarWnd@@MBEXAAVCRect@@@Z" PURGE="4" COMMENT="" />
    <EXPORT ORDINAL="2562" NAME="?GetScrollBar@CBCGPTabWnd@@QAEPAVCScrollBar@@XZ" PURGE="0" COMMENT="" />
    <EXPORT ORDINAL="2563" NAME="?GetScrollBarCtrl@CBCGPPropList@@UBEPAVCScrollBar@@H@Z" PURGE="4" COMMENT="" />
    <EXPORT ORDINAL="2564" NAME="?GetScrollBarCtrl@CBCGPTasksPane@@UBEPAVCScrollBar@@H@Z" PURGE="4" COMMENT="" />
    <EXPORT ORDINAL="2565" NAME="?GetSecondValue@CBCGPCalculator@@QBENXZ" PURGE="0" COMMENT="" />
    <EXPORT ORDINAL="2566" NAME="?GetSectionBinary@CBCGPWorkspace@@QAEHPBD0PAPAEPAI@Z" PURGE="16" COMMENT="" />
    <EXPORT ORDINAL="2567" NAME="?GetSectionInt@CBCGPWorkspace@@QAEHPBD0H@Z" PURGE="12" COMMENT="" />
    <EXPORT ORDINAL="2568" NAME="?GetSectionObject@CBCGPWorkspace@@QAEHPBD0AAVCObject@@@Z" PURGE="12" COMMENT="" />
    <EXPORT ORDINAL="2569" NAME="?GetSectionString@CBCGPWorkspace@@QAE?AV?$CStringT@DV?$StrTraitMFC_DLL@DV?$ChTraitsCRT@D@ATL@@@@@ATL@@PBD00@Z" PURGE="16" COMMENT="" />
    <EXPORT ORDINAL="2570" NAME="?GetSel@CBCGPEditCtrl@@QBEXAAH0@Z" PURGE="8" COMMENT="" />
    <EXPORT ORDINAL="2571" NAME="?GetSelFont@CBCGPFontComboBox@@QBEPAVCBCGPFontDesc@@XZ" PURGE="0" COMMENT="" />
    <EXPORT ORDINAL="2572" NAME="?GetSelItem@CBCGPEditListBox@@UBEHXZ" PURGE="0" COMMENT="" />
    <EXPORT ORDINAL="2573" NAME="?GetSelItem@CBCGPPopupMenu@@QAEPAVCBCGPToolbarMenuButton@@XZ" PURGE="0" COMMENT="" />
    <EXPORT ORDINAL="2574" NAME="?GetSelText@CBCGPEditCtrl@@QBE?AV?$CStringT@DV?$StrTraitMFC_DLL@DV?$ChTraitsCRT@D@ATL@@@@@ATL@@XZ" PURGE="4" COMMENT="" />
    <EXPORT ORDINAL="2575" NAME="?GetSelected@CBCGPToolBoxPage@@QBEHXZ" PURGE="0" COMMENT="" />
    <EXPORT ORDINAL="2576" NAME="?GetSelectedDays@CBCGPCalendarBar@@QBEABV?$CList@HH@@XZ" PURGE="0" COMMENT="" />
    <EXPORT ORDINAL="2577" NAME="?GetSelectionRect@CBCGPEditCtrl@@IAEHAAVCRect@@00@Z" PURGE="12" COMMENT="" />
    <EXPORT ORDINAL="2578" NAME="?GetShellImageList@CBCGPShellList@@IAEPAU_IMAGELIST@@H@Z" PURGE="4" COMMENT="" />
    <EXPORT ORDINAL="2579" NAME="?GetShellManager@CBCGPWorkspace@@QAEPAVCBCGPShellManager@@XZ" PURGE="0" COMMENT="" />
    <EXPORT ORDINAL="2580" NAME="?GetShowAllMenuItemsHeight@CBCGPVisualManager2003@@UAEHPAVCDC@@ABVCSize@@@Z" PURGE="8" COMMENT="" />
    <EXPORT ORDINAL="2581" NAME="?GetShowAllMenuItemsHeight@CBCGPVisualManager@@UAEHPAVCDC@@ABVCSize@@@Z" PURGE="8" COMMENT="" />
    <EXPORT ORDINAL="2582" NAME="?GetShowTooltips@CBCGPToolBar@@SAHXZ" PURGE="0" COMMENT="" />
    <EXPORT ORDINAL="2583" NAME="?GetSide@CBCGPAppBarWnd@@QBEIXZ" PURGE="0" COMMENT="" />
    <EXPORT ORDINAL="2584" NAME="?GetSize@CBCGPAutoHideButton@@QBE?AVCSize@@XZ" PURGE="4" COMMENT="" />
    <EXPORT ORDINAL="2585" NAME="?GetSize@CBCGPCaptionButton@@SA?AVCSize@@XZ" PURGE="0" COMMENT="" />
    <EXPORT ORDINAL="2586" NAME="?GetSkinAuthor@CBCGPSkinManager@@QBEPBDH@Z" PURGE="4" COMMENT="" />
    <EXPORT ORDINAL="2587" NAME="?GetSkinAuthorMail@CBCGPSkinManager@@QBEPBDH@Z" PURGE="4" COMMENT="" />
    <EXPORT ORDINAL="2588" NAME="?GetSkinAuthorURL@CBCGPSkinManager@@QBEPBDH@Z" PURGE="4" COMMENT="" />
    <EXPORT ORDINAL="2589" NAME="?GetSkinManager@CBCGPWorkspace@@QAEPAVCBCGPSkinManager@@XZ" PURGE="0" COMMENT="" />
    <EXPORT ORDINAL="2590" NAME="?GetSkinName@CBCGPSkinManager@@QBEPBDH@Z" PURGE="4" COMMENT="" />
    <EXPORT ORDINAL="2591" NAME="?GetSkinsCount@CBCGPSkinManager@@QBEHXZ" PURGE="0" COMMENT="" />
    <EXPORT ORDINAL="2592" NAME="?GetSlider@CBCGPBarContainer@@QBEPBVCBCGPSlider@@XZ" PURGE="0" COMMENT="" />
    <EXPORT ORDINAL="2593" NAME="?GetSliderStyle@CBCGPSlider@@QBEKXZ" PURGE="0" COMMENT="" />
    <EXPORT ORDINAL="2594" NAME="?GetSliders@CBCGPSlider@@QAEXAAVCObList@@@Z" PURGE="4" COMMENT="" />
    <EXPORT ORDINAL="2595" NAME="?GetSmartDockingBaseMarkerColors@CBCGPVisualManager2003@@UAEXAAK0@Z" PURGE="8" COMMENT="" />
    <EXPORT ORDINAL="2596" NAME="?GetSmartDockingBaseMarkerColors@CBCGPVisualManager@@UAEXAAK0@Z" PURGE="8" COMMENT="" />
    <EXPORT ORDINAL="2597" NAME="?GetSmartDockingBaseMarkerColors@CBCGPVisualManagerXP@@MAEXAAK0@Z" PURGE="8" COMMENT="" />
    <EXPORT ORDINAL="2598" NAME="?GetSmartDockingMarkerToneColor@CBCGPVisualManager2003@@UAEKXZ" PURGE="0" COMMENT="" />
    <EXPORT ORDINAL="2599" NAME="?GetSmartDockingMarkerToneColor@CBCGPVisualManager@@UAEKXZ" PURGE="0" COMMENT="" />
    <EXPORT ORDINAL="2600" NAME="?GetSmartDockingParams@CBCGPDockManager@@SAAAVCBCGPSmartDockingParams@@XZ" PURGE="0" COMMENT="" />
    <EXPORT ORDINAL="2601" NAME="?GetSortColumn@CBCGPHeaderCtrl@@QBEHXZ" PURGE="0" COMMENT="" />
    <EXPORT ORDINAL="2602" NAME="?GetSpinControl@CBCGPToolbarSpinEditBoxButton@@QAEPAVCSpinButtonCtrl@@XZ" PURGE="0" COMMENT="" />
    <EXPORT ORDINAL="2603" NAME="?GetStandardWinXPTheme@CBCGPWinXPThemeManager@@UAE?AW4WinXpTheme@1@XZ" PURGE="0" COMMENT="" />
    <EXPORT ORDINAL="2604" NAME="?GetStartOffset@CBCGPOutlineParser@@MAEHABV?$CStringT@DV?$StrTraitMFC_DLL@DV?$ChTraitsCRT@D@ATL@@@@@ATL@@HHAAVCObList@@@Z" PURGE="16" COMMENT="" />
    <EXPORT ORDINAL="2605" NAME="?GetState@CBCGPAppBarWnd@@QAEKXZ" PURGE="0" COMMENT="" />
    <EXPORT ORDINAL="2606" NAME="?GetState@CBCGPCalendarBar@@QBEIXZ" PURGE="0" COMMENT="" />
    <EXPORT ORDINAL="2607" NAME="?GetState@CBCGPDateTimeCtrl@@QBEIXZ" PURGE="0" COMMENT="" />
    <EXPORT ORDINAL="2608" NAME="?GetState@CBCGPDurationCtrl@@QBEIXZ" PURGE="0" COMMENT="" />
    <EXPORT ORDINAL="2609" NAME="?GetStdButtonNum@CBCGPEditListBase@@IBEHI@Z" PURGE="4" COMMENT="" />
    <EXPORT ORDINAL="2610" NAME="?GetString@CBCGPWorkspace@@QAE?AV?$CStringT@DV?$StrTraitMFC_DLL@DV?$ChTraitsCRT@D@ATL@@@@@ATL@@PBD0@Z" PURGE="12" COMMENT="" />
    <EXPORT ORDINAL="2611" NAME="?GetStringExtent@CBCGPEditCtrl@@MAE?AVCSize@@PAVCDC@@PBDH@Z" PURGE="16" COMMENT="" />
    <EXPORT ORDINAL="2612" NAME="?GetSubItem@CBCGPProp@@QBEPAV1@H@Z" PURGE="4" COMMENT="" />
    <EXPORT ORDINAL="2613" NAME="?GetSubItemsCount@CBCGPProp@@QBEHXZ" PURGE="0" COMMENT="" />
    <EXPORT ORDINAL="2614" NAME="?GetSymImgList@CBCGPEditCtrl@@QBEPAVCImageList@@XZ" PURGE="0" COMMENT="" />
    <EXPORT ORDINAL="2615" NAME="?GetSymbolExtraLen@CBCGPEditCtrl@@UAEHAAV?$CStringT@DV?$StrTraitMFC_DLL@DV?$ChTraitsCRT@D@ATL@@@@@ATL@@HH@Z" PURGE="12" COMMENT="" />
    <EXPORT ORDINAL="2616" NAME="?GetSystemButton@CBCGPMenuBar@@QBEPAVCBCGPToolbarMenuButtonsButton@@IH@Z" PURGE="8" COMMENT="" />
    <EXPORT ORDINAL="2617" NAME="?GetSystemButtonsCount@CBCGPMenuBar@@QBEHXZ" PURGE="0" COMMENT="" />
    <EXPORT ORDINAL="2618" NAME="?GetSystemMenu@CBCGPMenuBar@@QBEPAVCBCGPToolbarSystemMenuButton@@XZ" PURGE="0" COMMENT="" />
    <EXPORT ORDINAL="2619" NAME="?GetTab@CBCGPPropertySheet@@QBEAAVCBCGPTabWnd@@XZ" PURGE="0" COMMENT="" />
    <EXPORT ORDINAL="2620" NAME="?GetTabArea@CBCGPDockingControlBar@@UBEXAAVCRect@@0@Z" PURGE="8" COMMENT="" />
    <EXPORT ORDINAL="2621" NAME="?GetTabArea@CBCGPOutlookBar@@UBEXAAVCRect@@0@Z" PURGE="8" COMMENT="" />
    <EXPORT ORDINAL="2622" NAME="?GetTabArea@CBCGPOutlookWnd@@UBEXAAVCRect@@0@Z" PURGE="8" COMMENT="" />
    <EXPORT ORDINAL="2623" NAME="?GetTabArea@CBCGPTabWnd@@UBEXAAVCRect@@0@Z" PURGE="8" COMMENT="" />
    <EXPORT ORDINAL="2624" NAME="?GetTabArea@CBCGPTabbedControlBar@@UBEXAAVCRect@@0@Z" PURGE="8" COMMENT="" />
    <EXPORT ORDINAL="2625" NAME="?GetTabBkColor@CBCGPBaseTabWnd@@UBEKH@Z" PURGE="4" COMMENT="" />
    <EXPORT ORDINAL="2626" NAME="?GetTabBorderSize@CBCGPBaseTabWnd@@UBEHXZ" PURGE="0" COMMENT="" />
    <EXPORT ORDINAL="2627" NAME="?GetTabByID@CBCGPBaseTabWnd@@UBEHH@Z" PURGE="4" COMMENT="" />
    <EXPORT ORDINAL="2628" NAME="?GetTabControl@CBCGPTabView@@QAEAAVCBCGPTabWnd@@XZ" PURGE="0" COMMENT="" />
    <EXPORT ORDINAL="2629" NAME="?GetTabFrameColors@CBCGPVisualManager2003@@UAEXPBVCBCGPBaseTabWnd@@AAK11111AAPAVCBrush@@2@Z" PURGE="36" COMMENT="" />
    <EXPORT ORDINAL="2630" NAME="?GetTabFrameColors@CBCGPVisualManager@@UAEXPBVCBCGPBaseTabWnd@@AAK11111AAPAVCBrush@@2@Z" PURGE="36" COMMENT="" />
    <EXPORT ORDINAL="2631" NAME="?GetTabFrameColors@CBCGPVisualManagerVS2005@@UAEXPBVCBCGPBaseTabWnd@@AAK11111AAPAVCBrush@@2@Z" PURGE="36" COMMENT="" />
    <EXPORT ORDINAL="2632" NAME="?GetTabFromHwnd@CBCGPBaseTabWnd@@UBEHPAUHWND__@@@Z" PURGE="4" COMMENT="" />
    <EXPORT ORDINAL="2633" NAME="?GetTabFromPoint@CBCGPBaseTabWnd@@UBEHAAVCPoint@@@Z" PURGE="4" COMMENT="" />
    <EXPORT ORDINAL="2634" NAME="?GetTabFromPoint@CBCGPTabWnd@@UBEHAAVCPoint@@@Z" PURGE="4" COMMENT="" />
    <EXPORT ORDINAL="2635" NAME="?GetTabHicon@CBCGPBaseTabWnd@@UBEPAUHICON__@@H@Z" PURGE="4" COMMENT="" />
    <EXPORT ORDINAL="2636" NAME="?GetTabID@CBCGPBaseTabWnd@@QBEHH@Z" PURGE="4" COMMENT="" />
    <EXPORT ORDINAL="2637" NAME="?GetTabIcon@CBCGPBaseTabWnd@@UBEIH@Z" PURGE="4" COMMENT="" />
    <EXPORT ORDINAL="2638" NAME="?GetTabLabel@CBCGPBaseTabWnd@@UBEHHAAV?$CStringT@DV?$StrTraitMFC_DLL@DV?$ChTraitsCRT@D@ATL@@@@@ATL@@@Z" PURGE="8" COMMENT="" />
    <EXPORT ORDINAL="2639" NAME="?GetTabMaxWidth@CBCGPTabWnd@@QBEHXZ" PURGE="0" COMMENT="" />
    <EXPORT ORDINAL="2640" NAME="?GetTabNumberToDetach@CBCGPBaseTabWnd@@MBEHH@Z" PURGE="4" COMMENT="" />
    <EXPORT ORDINAL="2641" NAME="?GetTabNumberToDetach@CBCGPOutlookWnd@@MBEHH@Z" PURGE="4" COMMENT="" />
    <EXPORT ORDINAL="2642" NAME="?GetTabRect@CBCGPBaseTabWnd@@UBEHHAAVCRect@@@Z" PURGE="8" COMMENT="" />
    <EXPORT ORDINAL="2643" NAME="?GetTabSize@CBCGPEditCtrl@@QBEHXZ" PURGE="0" COMMENT="" />
    <EXPORT ORDINAL="2644" NAME="?GetTabTextColor@CBCGPBaseTabWnd@@UBEKH@Z" PURGE="4" COMMENT="" />
    <EXPORT ORDINAL="2645" NAME="?GetTabWnd@CBCGPBaseTabWnd@@UBEPAVCWnd@@H@Z" PURGE="4" COMMENT="" />
    <EXPORT ORDINAL="2646" NAME="?GetTabWnd@CBCGPTabbedControlBar@@QBEPAVCBCGPTabWnd@@XZ" PURGE="0" COMMENT="" />
    <EXPORT ORDINAL="2647" NAME="?GetTabWnd@CBCGPToolBox@@QBEPAVCBCGPBaseTabWnd@@XZ" PURGE="-1" COMMENT="" />
    <EXPORT ORDINAL="2648" NAME="?GetTabWndNoWrapper@CBCGPBaseTabWnd@@UBEPAVCWnd@@H@Z" PURGE="4" COMMENT="" />
    <EXPORT ORDINAL="2649" NAME="?GetTabbedControlBarRTC@CBCGPDockingControlBar@@QBEPAUCRuntimeClass@@XZ" PURGE="0" COMMENT="" />
    <EXPORT ORDINAL="2650" NAME="?GetTabsHeight@CBCGPBaseTabWnd@@UBEHXZ" PURGE="0" COMMENT="" />
    <EXPORT ORDINAL="2651" NAME="?GetTabsHeight@CBCGPTabWnd@@UBEHXZ" PURGE="0" COMMENT="" />
    <EXPORT ORDINAL="2652" NAME="?GetTabsNum@CBCGPBaseTabWnd@@UBEHXZ" PURGE="0" COMMENT="" />
    <EXPORT ORDINAL="2653" NAME="?GetTabsNum@CBCGPBaseTabbedBar@@UBEHXZ" PURGE="0" COMMENT="" />
    <EXPORT ORDINAL="2654" NAME="?GetTabsRect@CBCGPBaseTabWnd@@UBEXAAVCRect@@@Z" PURGE="-1" COMMENT="" />
    <EXPORT ORDINAL="2655" NAME="?GetTabsRect@CBCGPTabWnd@@UBEXAAVCRect@@@Z" PURGE="4" COMMENT="" />
    <EXPORT ORDINAL="2656" NAME="?GetTask@CBCGPTasksPane@@QBEPAVCBCGPTask@@HH@Z" PURGE="8" COMMENT="" />
    <EXPORT ORDINAL="2657" NAME="?GetTaskCount@CBCGPTasksPane@@QBEHH@Z" PURGE="4" COMMENT="" />
    <EXPORT ORDINAL="2658" NAME="?GetTaskGroup@CBCGPTasksPane@@QBEPAVCBCGPTasksGroup@@H@Z" PURGE="4" COMMENT="" />
    <EXPORT ORDINAL="2659" NAME="?GetTaskLocation@CBCGPTasksPane@@QBEHIAAH0@Z" PURGE="12" COMMENT="" />
    <EXPORT ORDINAL="2660" NAME="?GetTaskLocation@CBCGPTasksPane@@QBEHPAUHWND__@@AAH1@Z" PURGE="12" COMMENT="" />
    <EXPORT ORDINAL="2661" NAME="?GetTaskLocation@CBCGPTasksPane@@QBEHPAVCBCGPTask@@AAH1@Z" PURGE="12" COMMENT="" />
    <EXPORT ORDINAL="2662" NAME="?GetTasksGroupBorders@CBCGPTasksPane@@MBE?AVCSize@@XZ" PURGE="4" COMMENT="" />
    <EXPORT ORDINAL="2663" NAME="?GetTasksHorzOffset@CBCGPTasksPane@@QBEHXZ" PURGE="0" COMMENT="" />
    <EXPORT ORDINAL="2664" NAME="?GetTasksIconHorzOffset@CBCGPTasksPane@@QBEHXZ" PURGE="0" COMMENT="" />
    <EXPORT ORDINAL="2665" NAME="?GetTasksIconVertOffset@CBCGPTasksPane@@QBEHXZ" PURGE="0" COMMENT="" />
    <EXPORT ORDINAL="2666" NAME="?GetTasksPaneGroupCaptionHeight@CBCGPVisualManager@@QBEHXZ" PURGE="0" COMMENT="" />
    <EXPORT ORDINAL="2667" NAME="?GetTasksPaneGroupCaptionHorzOffset@CBCGPVisualManager@@QBEHXZ" PURGE="0" COMMENT="" />
    <EXPORT ORDINAL="2668" NAME="?GetTasksPaneGroupCaptionVertOffset@CBCGPVisualManager@@QBEHXZ" PURGE="0" COMMENT="" />
    <EXPORT ORDINAL="2669" NAME="?GetTasksPaneGroupVertOffset@CBCGPVisualManager@@QBEHXZ" PURGE="0" COMMENT="" />
    <EXPORT ORDINAL="2670" NAME="?GetTasksPaneHorzMargin@CBCGPVisualManager@@QBEHXZ" PURGE="0" COMMENT="" />
    <EXPORT ORDINAL="2671" NAME="?GetTasksPaneIconHorzOffset@CBCGPVisualManager@@QBEHXZ" PURGE="0" COMMENT="" />
    <EXPORT ORDINAL="2672" NAME="?GetTasksPaneIconVertOffset@CBCGPVisualManager@@QBEHXZ" PURGE="0" COMMENT="" />
    <EXPORT ORDINAL="2673" NAME="?GetTasksPaneTaskHorzOffset@CBCGPVisualManager@@QBEHXZ" PURGE="0" COMMENT="" />
    <EXPORT ORDINAL="2674" NAME="?GetTasksPaneVertMargin@CBCGPVisualManager@@QBEHXZ" PURGE="0" COMMENT="" />
    <EXPORT ORDINAL="2675" NAME="?GetTearOffBars@CBCGPFrameWnd@@QBEABVCObList@@XZ" PURGE="0" COMMENT="" />
    <EXPORT ORDINAL="2676" NAME="?GetTearOffBars@CBCGPMDIFrameWnd@@QBEABVCObList@@XZ" PURGE="0" COMMENT="" />
    <EXPORT ORDINAL="2677" NAME="?GetTearOffBars@CBCGPOleDocIPFrameWnd@@QBEABVCObList@@XZ" PURGE="0" COMMENT="" />
    <EXPORT ORDINAL="2678" NAME="?GetTearOffBars@CBCGPOleIPFrameWnd@@QBEABVCObList@@XZ" PURGE="0" COMMENT="" />
    <EXPORT ORDINAL="2679" NAME="?GetText@CBCGPEditCtrl@@QBEABV?$CStringT@DV?$StrTraitMFC_DLL@DV?$ChTraitsCRT@D@ATL@@@@@ATL@@XZ" PURGE="0" COMMENT="" />
    <EXPORT ORDINAL="2680" NAME="?GetText@CBCGPToolbarComboBoxButton@@QBEPBDXZ" PURGE="-1" COMMENT="" />
    <EXPORT ORDINAL="2681" NAME="?GetTextAll@CBCGPToolbarComboBoxButton@@SAPBDI@Z" PURGE="0" COMMENT="" />
    <EXPORT ORDINAL="2682" NAME="?GetTextColor@CBCGPCalendarButton@@UAEKXZ" PURGE="0" COMMENT="" />
    <EXPORT ORDINAL="2683" NAME="?GetTextColor@CBCGPDateTimeCtrl@@QBEKXZ" PURGE="0" COMMENT="" />
    <EXPORT ORDINAL="2684" NAME="?GetTextColor@CBCGPDurationCtrl@@QBEKXZ" PURGE="0" COMMENT="" />
    <EXPORT ORDINAL="2685" NAME="?GetTextColor@CBCGPPropList@@QBEKXZ" PURGE="0" COMMENT="" />
    <EXPORT ORDINAL="2686" NAME="?GetTextHeight@GLOBAL_DATA@@QAEHH@Z" PURGE="4" COMMENT="" />
    <EXPORT ORDINAL="2687" NAME="?GetTextHorzOffsets@CBCGPToolbarMenuButton@@KAXAAH0@Z" PURGE="0" COMMENT="" />
    <EXPORT ORDINAL="2688" NAME="?GetTextSize@CBCGPAutoHideButton@@UBE?AVCSize@@XZ" PURGE="4" COMMENT="" />
    <EXPORT ORDINAL="2689" NAME="?GetTextSize@CBCGPBaseIntelliSenseLB@@UAE?AVCSize@@AAV?$CStringT@DV?$StrTraitMFC_DLL@DV?$ChTraitsCRT@D@ATL@@@@@ATL@@@Z" PURGE="8" COMMENT="" />
    <EXPORT ORDINAL="2690" NAME="?GetTextSize@CBCGPToolbarButton@@QBE?AUtagSIZE@@XZ" PURGE="4" COMMENT="" />
    <EXPORT ORDINAL="2691" NAME="?GetThemeColor@CBCGPVisualManager2003@@IBEKPAXH@Z" PURGE="8" COMMENT="" />
    <EXPORT ORDINAL="2692" NAME="?GetThisClass@CBCGPAnimCtrl@@SGPAUCRuntimeClass@@XZ" PURGE="0" COMMENT="" />
    <EXPORT ORDINAL="2693" NAME="?GetThisClass@CBCGPAppBarWnd@@SGPAUCRuntimeClass@@XZ" PURGE="0" COMMENT="" />
    <EXPORT ORDINAL="2694" NAME="?GetThisClass@CBCGPAutoHideButton@@SGPAUCRuntimeClass@@XZ" PURGE="0" COMMENT="" />
    <EXPORT ORDINAL="2695" NAME="?GetThisClass@CBCGPAutoHideDockBar@@SGPAUCRuntimeClass@@XZ" PURGE="0" COMMENT="" />
    <EXPORT ORDINAL="2696" NAME="?GetThisClass@CBCGPAutoHideToolBar@@SGPAUCRuntimeClass@@XZ" PURGE="0" COMMENT="" />
    <EXPORT ORDINAL="2697" NAME="?GetThisClass@CBCGPBarContainer@@SGPAUCRuntimeClass@@XZ" PURGE="0" COMMENT="" />
    <EXPORT ORDINAL="2698" NAME="?GetThisClass@CBCGPBarContainerManager@@SGPAUCRuntimeClass@@XZ" PURGE="0" COMMENT="" />
    <EXPORT ORDINAL="2699" NAME="?GetThisClass@CBCGPBaseControlBar@@SGPAUCRuntimeClass@@XZ" PURGE="0" COMMENT="" />
    <EXPORT ORDINAL="2700" NAME="?GetThisClass@CBCGPBaseIntelliSenseLB@@SGPAUCRuntimeClass@@XZ" PURGE="0" COMMENT="" />
    <EXPORT ORDINAL="2701" NAME="?GetThisClass@CBCGPBaseTabWnd@@SGPAUCRuntimeClass@@XZ" PURGE="0" COMMENT="" />
    <EXPORT ORDINAL="2702" NAME="?GetThisClass@CBCGPBaseTabbedBar@@SGPAUCRuntimeClass@@XZ" PURGE="0" COMMENT="" />
    <EXPORT ORDINAL="2703" NAME="?GetThisClass@CBCGPBaseToolBar@@SGPAUCRuntimeClass@@XZ" PURGE="0" COMMENT="" />
    <EXPORT ORDINAL="2704" NAME="?GetThisClass@CBCGPButton@@SGPAUCRuntimeClass@@XZ" PURGE="0" COMMENT="" />
    <EXPORT ORDINAL="2705" NAME="?GetThisClass@CBCGPCalculator@@SGPAUCRuntimeClass@@XZ" PURGE="0" COMMENT="" />
    <EXPORT ORDINAL="2706" NAME="?GetThisClass@CBCGPCalendarBar@@SGPAUCRuntimeClass@@XZ" PURGE="0" COMMENT="" />
    <EXPORT ORDINAL="2707" NAME="?GetThisClass@CBCGPCalendarButton@@SGPAUCRuntimeClass@@XZ" PURGE="0" COMMENT="" />
    <EXPORT ORDINAL="2708" NAME="?GetThisClass@CBCGPCalendarMenuButton@@SGPAUCRuntimeClass@@XZ" PURGE="0" COMMENT="" />
    <EXPORT ORDINAL="2709" NAME="?GetThisClass@CBCGPCaptionBar@@SGPAUCRuntimeClass@@XZ" PURGE="0" COMMENT="" />
    <EXPORT ORDINAL="2710" NAME="?GetThisClass@CBCGPColorBar@@SGPAUCRuntimeClass@@XZ" PURGE="0" COMMENT="" />
    <EXPORT ORDINAL="2711" NAME="?GetThisClass@CBCGPColorButton@@SGPAUCRuntimeClass@@XZ" PURGE="0" COMMENT="" />
    <EXPORT ORDINAL="2712" NAME="?GetThisClass@CBCGPColorMenuButton@@SGPAUCRuntimeClass@@XZ" PURGE="0" COMMENT="" />
    <EXPORT ORDINAL="2713" NAME="?GetThisClass@CBCGPColorProp@@SGPAUCRuntimeClass@@XZ" PURGE="0" COMMENT="" />
    <EXPORT ORDINAL="2714" NAME="?GetThisClass@CBCGPControlBar@@SGPAUCRuntimeClass@@XZ" PURGE="0" COMMENT="" />
    <EXPORT ORDINAL="2715" NAME="?GetThisClass@CBCGPCustomizeMenuButton@@SGPAUCRuntimeClass@@XZ" PURGE="0" COMMENT="" />
    <EXPORT ORDINAL="2716" NAME="?GetThisClass@CBCGPDateTimeCtrl@@SGPAUCRuntimeClass@@XZ" PURGE="0" COMMENT="" />
    <EXPORT ORDINAL="2717" NAME="?GetThisClass@CBCGPDateTimeProp@@SGPAUCRuntimeClass@@XZ" PURGE="0" COMMENT="" />
    <EXPORT ORDINAL="2718" NAME="?GetThisClass@CBCGPDialog@@SGPAUCRuntimeClass@@XZ" PURGE="0" COMMENT="" />
    <EXPORT ORDINAL="2719" NAME="?GetThisClass@CBCGPDialogBar@@SGPAUCRuntimeClass@@XZ" PURGE="0" COMMENT="" />
    <EXPORT ORDINAL="2720" NAME="?GetThisClass@CBCGPDockBar@@SGPAUCRuntimeClass@@XZ" PURGE="0" COMMENT="" />
    <EXPORT ORDINAL="2721" NAME="?GetThisClass@CBCGPDockBarRow@@SGPAUCRuntimeClass@@XZ" PURGE="0" COMMENT="" />
    <EXPORT ORDINAL="2722" NAME="?GetThisClass@CBCGPDockingCBWrapper@@SGPAUCRuntimeClass@@XZ" PURGE="0" COMMENT="" />
    <EXPORT ORDINAL="2723" NAME="?GetThisClass@CBCGPDockingControlBar@@SGPAUCRuntimeClass@@XZ" PURGE="0" COMMENT="" />
    <EXPORT ORDINAL="2724" NAME="?GetThisClass@CBCGPDropDownToolBar@@SGPAUCRuntimeClass@@XZ" PURGE="0" COMMENT="" />
    <EXPORT ORDINAL="2725" NAME="?GetThisClass@CBCGPDropDownToolbarButton@@SGPAUCRuntimeClass@@XZ" PURGE="0" COMMENT="" />
    <EXPORT ORDINAL="2726" NAME="?GetThisClass@CBCGPEditCtrl@@SGPAUCRuntimeClass@@XZ" PURGE="0" COMMENT="" />
    <EXPORT ORDINAL="2727" NAME="?GetThisClass@CBCGPEditMarker@@SGPAUCRuntimeClass@@XZ" PURGE="0" COMMENT="" />
    <EXPORT ORDINAL="2728" NAME="?GetThisClass@CBCGPEditView@@SGPAUCRuntimeClass@@XZ" PURGE="0" COMMENT="" />
    <EXPORT ORDINAL="2729" NAME="?GetThisClass@CBCGPFileDialog@@SGPAUCRuntimeClass@@XZ" PURGE="0" COMMENT="" />
    <EXPORT ORDINAL="2730" NAME="?GetThisClass@CBCGPFileProp@@SGPAUCRuntimeClass@@XZ" PURGE="0" COMMENT="" />
    <EXPORT ORDINAL="2731" NAME="?GetThisClass@CBCGPFontProp@@SGPAUCRuntimeClass@@XZ" PURGE="0" COMMENT="" />
    <EXPORT ORDINAL="2732" NAME="?GetThisClass@CBCGPFrameWnd@@SGPAUCRuntimeClass@@XZ" PURGE="0" COMMENT="" />
    <EXPORT ORDINAL="2733" NAME="?GetThisClass@CBCGPHeaderCtrl@@SGPAUCRuntimeClass@@XZ" PURGE="0" COMMENT="" />
    <EXPORT ORDINAL="2734" NAME="?GetThisClass@CBCGPHiliteMarker@@SGPAUCRuntimeClass@@XZ" PURGE="0" COMMENT="" />
    <EXPORT ORDINAL="2735" NAME="?GetThisClass@CBCGPHotSpot@@SGPAUCRuntimeClass@@XZ" PURGE="0" COMMENT="" />
    <EXPORT ORDINAL="2736" NAME="?GetThisClass@CBCGPIntelliSenseLB@@SGPAUCRuntimeClass@@XZ" PURGE="0" COMMENT="" />
    <EXPORT ORDINAL="2737" NAME="?GetThisClass@CBCGPIntelliSenseWnd@@SGPAUCRuntimeClass@@XZ" PURGE="0" COMMENT="" />
    <EXPORT ORDINAL="2738" NAME="?GetThisClass@CBCGPLineColorMarker@@SGPAUCRuntimeClass@@XZ" PURGE="0" COMMENT="" />
    <EXPORT ORDINAL="2739" NAME="?GetThisClass@CBCGPListCtrl@@SGPAUCRuntimeClass@@XZ" PURGE="0" COMMENT="" />
    <EXPORT ORDINAL="2740" NAME="?GetThisClass@CBCGPMDIChildWnd@@SGPAUCRuntimeClass@@XZ" PURGE="0" COMMENT="" />
    <EXPORT ORDINAL="2741" NAME="?GetThisClass@CBCGPMDIFrameWnd@@SGPAUCRuntimeClass@@XZ" PURGE="0" COMMENT="" />
    <EXPORT ORDINAL="2742" NAME="?GetThisClass@CBCGPMainClientAreaWnd@@SGPAUCRuntimeClass@@XZ" PURGE="0" COMMENT="" />
    <EXPORT ORDINAL="2743" NAME="?GetThisClass@CBCGPMaskEdit@@SGPAUCRuntimeClass@@XZ" PURGE="0" COMMENT="" />
    <EXPORT ORDINAL="2744" NAME="?GetThisClass@CBCGPMenuBar@@SGPAUCRuntimeClass@@XZ" PURGE="0" COMMENT="" />
    <EXPORT ORDINAL="2745" NAME="?GetThisClass@CBCGPMenuButton@@SGPAUCRuntimeClass@@XZ" PURGE="0" COMMENT="" />
    <EXPORT ORDINAL="2746" NAME="?GetThisClass@CBCGPMiniFrameWnd@@SGPAUCRuntimeClass@@XZ" PURGE="0" COMMENT="" />
    <EXPORT ORDINAL="2747" NAME="?GetThisClass@CBCGPMouseManager@@SGPAUCRuntimeClass@@XZ" PURGE="0" COMMENT="" />
    <EXPORT ORDINAL="2748" NAME="?GetThisClass@CBCGPMultiMiniFrameWnd@@SGPAUCRuntimeClass@@XZ" PURGE="0" COMMENT="" />
    <EXPORT ORDINAL="2749" NAME="?GetThisClass@CBCGPOleCntrFrameWnd@@SGPAUCRuntimeClass@@XZ" PURGE="0" COMMENT="" />
    <EXPORT ORDINAL="2750" NAME="?GetThisClass@CBCGPOleDocIPFrameWnd@@SGPAUCRuntimeClass@@XZ" PURGE="0" COMMENT="" />
    <EXPORT ORDINAL="2751" NAME="?GetThisClass@CBCGPOleIPFrameWnd@@SGPAUCRuntimeClass@@XZ" PURGE="0" COMMENT="" />
    <EXPORT ORDINAL="2752" NAME="?GetThisClass@CBCGPOleServerDoc@@SGPAUCRuntimeClass@@XZ" PURGE="0" COMMENT="" />
    <EXPORT ORDINAL="2753" NAME="?GetThisClass@CBCGPOutlineBaseNode@@SGPAUCRuntimeClass@@XZ" PURGE="0" COMMENT="" />
    <EXPORT ORDINAL="2754" NAME="?GetThisClass@CBCGPOutlineNode@@SGPAUCRuntimeClass@@XZ" PURGE="0" COMMENT="" />
    <EXPORT ORDINAL="2755" NAME="?GetThisClass@CBCGPOutlookBar@@SGPAUCRuntimeClass@@XZ" PURGE="0" COMMENT="" />
    <EXPORT ORDINAL="2756" NAME="?GetThisClass@CBCGPOutlookBarDockingPane@@SGPAUCRuntimeClass@@XZ" PURGE="0" COMMENT="" />
    <EXPORT ORDINAL="2757" NAME="?GetThisClass@CBCGPOutlookBarPane@@SGPAUCRuntimeClass@@XZ" PURGE="0" COMMENT="" />
    <EXPORT ORDINAL="2758" NAME="?GetThisClass@CBCGPOutlookButton@@SGPAUCRuntimeClass@@XZ" PURGE="0" COMMENT="" />
    <EXPORT ORDINAL="2759" NAME="?GetThisClass@CBCGPOutlookControlBar@@SGPAUCRuntimeClass@@XZ" PURGE="0" COMMENT="" />
    <EXPORT ORDINAL="2760" NAME="?GetThisClass@CBCGPOutlookWnd@@SGPAUCRuntimeClass@@XZ" PURGE="0" COMMENT="" />
    <EXPORT ORDINAL="2761" NAME="?GetThisClass@CBCGPPopupMenu@@SGPAUCRuntimeClass@@XZ" PURGE="0" COMMENT="" />
    <EXPORT ORDINAL="2762" NAME="?GetThisClass@CBCGPPopupMenuBar@@SGPAUCRuntimeClass@@XZ" PURGE="0" COMMENT="" />
    <EXPORT ORDINAL="2763" NAME="?GetThisClass@CBCGPPrintPreviewToolBar@@SGPAUCRuntimeClass@@XZ" PURGE="0" COMMENT="" />
    <EXPORT ORDINAL="2764" NAME="?GetThisClass@CBCGPPrintPreviewView@@SGPAUCRuntimeClass@@XZ" PURGE="0" COMMENT="" />
    <EXPORT ORDINAL="2765" NAME="?GetThisClass@CBCGPProp@@SGPAUCRuntimeClass@@XZ" PURGE="0" COMMENT="" />
    <EXPORT ORDINAL="2766" NAME="?GetThisClass@CBCGPPropList@@SGPAUCRuntimeClass@@XZ" PURGE="0" COMMENT="" />
    <EXPORT ORDINAL="2767" NAME="?GetThisClass@CBCGPPropSheetCategory@@SGPAUCRuntimeClass@@XZ" PURGE="0" COMMENT="" />
    <EXPORT ORDINAL="2768" NAME="?GetThisClass@CBCGPPropertyPage@@SGPAUCRuntimeClass@@XZ" PURGE="0" COMMENT="" />
    <EXPORT ORDINAL="2769" NAME="?GetThisClass@CBCGPPropertySheet@@SGPAUCRuntimeClass@@XZ" PURGE="0" COMMENT="" />
    <EXPORT ORDINAL="2770" NAME="?GetThisClass@CBCGPReBar@@SGPAUCRuntimeClass@@XZ" PURGE="0" COMMENT="" />
    <EXPORT ORDINAL="2771" NAME="?GetThisClass@CBCGPRegistry@@SGPAUCRuntimeClass@@XZ" PURGE="0" COMMENT="" />
    <EXPORT ORDINAL="2772" NAME="?GetThisClass@CBCGPShellList@@SGPAUCRuntimeClass@@XZ" PURGE="0" COMMENT="" />
    <EXPORT ORDINAL="2773" NAME="?GetThisClass@CBCGPShellTree@@SGPAUCRuntimeClass@@XZ" PURGE="0" COMMENT="" />
    <EXPORT ORDINAL="2774" NAME="?GetThisClass@CBCGPSlider@@SGPAUCRuntimeClass@@XZ" PURGE="0" COMMENT="" />
    <EXPORT ORDINAL="2775" NAME="?GetThisClass@CBCGPStatusBar@@SGPAUCRuntimeClass@@XZ" PURGE="0" COMMENT="" />
    <EXPORT ORDINAL="2776" NAME="?GetThisClass@CBCGPSymImagesLB@@SGPAUCRuntimeClass@@XZ" PURGE="0" COMMENT="" />
    <EXPORT ORDINAL="2777" NAME="?GetThisClass@CBCGPTabView@@SGPAUCRuntimeClass@@XZ" PURGE="0" COMMENT="" />
    <EXPORT ORDINAL="2778" NAME="?GetThisClass@CBCGPTabWnd@@SGPAUCRuntimeClass@@XZ" PURGE="0" COMMENT="" />
    <EXPORT ORDINAL="2779" NAME="?GetThisClass@CBCGPTabbedControlBar@@SGPAUCRuntimeClass@@XZ" PURGE="0" COMMENT="" />
    <EXPORT ORDINAL="2780" NAME="?GetThisClass@CBCGPTabbedToolbar@@SGPAUCRuntimeClass@@XZ" PURGE="0" COMMENT="" />
    <EXPORT ORDINAL="2781" NAME="?GetThisClass@CBCGPTaskPaneMiniFrameWnd@@SGPAUCRuntimeClass@@XZ" PURGE="0" COMMENT="" />
    <EXPORT ORDINAL="2782" NAME="?GetThisClass@CBCGPTasksPane@@SGPAUCRuntimeClass@@XZ" PURGE="0" COMMENT="" />
    <EXPORT ORDINAL="2783" NAME="?GetThisClass@CBCGPToolBar@@SGPAUCRuntimeClass@@XZ" PURGE="0" COMMENT="" />
    <EXPORT ORDINAL="2784" NAME="?GetThisClass@CBCGPToolBox@@SGPAUCRuntimeClass@@XZ" PURGE="0" COMMENT="" />
    <EXPORT ORDINAL="2785" NAME="?GetThisClass@CBCGPToolBoxButton@@SGPAUCRuntimeClass@@XZ" PURGE="0" COMMENT="" />
    <EXPORT ORDINAL="2786" NAME="?GetThisClass@CBCGPToolBoxEx@@SGPAUCRuntimeClass@@XZ" PURGE="0" COMMENT="" />
    <EXPORT ORDINAL="2787" NAME="?GetThisClass@CBCGPToolBoxPage@@SGPAUCRuntimeClass@@XZ" PURGE="0" COMMENT="" />
    <EXPORT ORDINAL="2788" NAME="?GetThisClass@CBCGPToolbarButton@@SGPAUCRuntimeClass@@XZ" PURGE="0" COMMENT="" />
    <EXPORT ORDINAL="2789" NAME="?GetThisClass@CBCGPToolbarComboBoxButton@@SGPAUCRuntimeClass@@XZ" PURGE="0" COMMENT="" />
    <EXPORT ORDINAL="2790" NAME="?GetThisClass@CBCGPToolbarCustomize@@SGPAUCRuntimeClass@@XZ" PURGE="0" COMMENT="" />
    <EXPORT ORDINAL="2791" NAME="?GetThisClass@CBCGPToolbarDateTimeCtrl@@SGPAUCRuntimeClass@@XZ" PURGE="0" COMMENT="" />
    <EXPORT ORDINAL="2792" NAME="?GetThisClass@CBCGPToolbarEditBoxButton@@SGPAUCRuntimeClass@@XZ" PURGE="0" COMMENT="" />
    <EXPORT ORDINAL="2793" NAME="?GetThisClass@CBCGPToolbarFontCombo@@SGPAUCRuntimeClass@@XZ" PURGE="0" COMMENT="" />
    <EXPORT ORDINAL="2794" NAME="?GetThisClass@CBCGPToolbarFontSizeCombo@@SGPAUCRuntimeClass@@XZ" PURGE="0" COMMENT="" />
    <EXPORT ORDINAL="2795" NAME="?GetThisClass@CBCGPToolbarMenuButton@@SGPAUCRuntimeClass@@XZ" PURGE="0" COMMENT="" />
    <EXPORT ORDINAL="2796" NAME="?GetThisClass@CBCGPToolbarSpinEditBoxButton@@SGPAUCRuntimeClass@@XZ" PURGE="0" COMMENT="" />
    <EXPORT ORDINAL="2797" NAME="?GetThisClass@CBCGPURLLinkButton@@SGPAUCRuntimeClass@@XZ" PURGE="0" COMMENT="" />
    <EXPORT ORDINAL="2798" NAME="?GetThisClass@CBCGPUserTool@@SGPAUCRuntimeClass@@XZ" PURGE="0" COMMENT="" />
    <EXPORT ORDINAL="2799" NAME="?GetThisClass@CBCGPVisualManager2003@@SGPAUCRuntimeClass@@XZ" PURGE="0" COMMENT="" />
    <EXPORT ORDINAL="2800" NAME="?GetThisClass@CBCGPVisualManager@@SGPAUCRuntimeClass@@XZ" PURGE="0" COMMENT="" />
    <EXPORT ORDINAL="2801" NAME="?GetThisClass@CBCGPVisualManagerVS2005@@SGPAUCRuntimeClass@@XZ" PURGE="0" COMMENT="" />
    <EXPORT ORDINAL="2802" NAME="?GetThisClass@CBCGPVisualManagerXP@@SGPAUCRuntimeClass@@XZ" PURGE="0" COMMENT="" />
    <EXPORT ORDINAL="2803" NAME="?GetThisClass@CBCGPWinXPVisualManager@@SGPAUCRuntimeClass@@XZ" PURGE="0" COMMENT="" />
    <EXPORT ORDINAL="2804" NAME="?GetThisClass@CColorPopup@@SGPAUCRuntimeClass@@XZ" PURGE="0" COMMENT="" />
    <EXPORT ORDINAL="2805" NAME="?GetThisMessageMap@CBCGPAnimCtrl@@KGPBUAFX_MSGMAP@@XZ" PURGE="0" COMMENT="" />
    <EXPORT ORDINAL="2806" NAME="?GetThisMessageMap@CBCGPAppBarWnd@@KGPBUAFX_MSGMAP@@XZ" PURGE="0" COMMENT="" />
    <EXPORT ORDINAL="2807" NAME="?GetThisMessageMap@CBCGPAutoHideDockBar@@KGPBUAFX_MSGMAP@@XZ" PURGE="0" COMMENT="" />
    <EXPORT ORDINAL="2808" NAME="?GetThisMessageMap@CBCGPAutoHideToolBar@@KGPBUAFX_MSGMAP@@XZ" PURGE="0" COMMENT="" />
    <EXPORT ORDINAL="2809" NAME="?GetThisMessageMap@CBCGPBaseControlBar@@KGPBUAFX_MSGMAP@@XZ" PURGE="0" COMMENT="" />
    <EXPORT ORDINAL="2810" NAME="?GetThisMessageMap@CBCGPBaseIntelliSenseLB@@KGPBUAFX_MSGMAP@@XZ" PURGE="0" COMMENT="" />
    <EXPORT ORDINAL="2811" NAME="?GetThisMessageMap@CBCGPBaseTabWnd@@KGPBUAFX_MSGMAP@@XZ" PURGE="0" COMMENT="" />
    <EXPORT ORDINAL="2812" NAME="?GetThisMessageMap@CBCGPBaseTabbedBar@@KGPBUAFX_MSGMAP@@XZ" PURGE="0" COMMENT="" />
    <EXPORT ORDINAL="2813" NAME="?GetThisMessageMap@CBCGPBaseToolBar@@KGPBUAFX_MSGMAP@@XZ" PURGE="0" COMMENT="" />
    <EXPORT ORDINAL="2814" NAME="?GetThisMessageMap@CBCGPButton@@KGPBUAFX_MSGMAP@@XZ" PURGE="0" COMMENT="" />
    <EXPORT ORDINAL="2815" NAME="?GetThisMessageMap@CBCGPCalculator@@KGPBUAFX_MSGMAP@@XZ" PURGE="0" COMMENT="" />
    <EXPORT ORDINAL="2816" NAME="?GetThisMessageMap@CBCGPCalendarBar@@KGPBUAFX_MSGMAP@@XZ" PURGE="0" COMMENT="" />
    <EXPORT ORDINAL="2817" NAME="?GetThisMessageMap@CBCGPCaptionBar@@KGPBUAFX_MSGMAP@@XZ" PURGE="0" COMMENT="" />
    <EXPORT ORDINAL="2818" NAME="?GetThisMessageMap@CBCGPColorBar@@KGPBUAFX_MSGMAP@@XZ" PURGE="0" COMMENT="" />
    <EXPORT ORDINAL="2819" NAME="?GetThisMessageMap@CBCGPColorButton@@KGPBUAFX_MSGMAP@@XZ" PURGE="0" COMMENT="" />
    <EXPORT ORDINAL="2820" NAME="?GetThisMessageMap@CBCGPColorDialog@@KGPBUAFX_MSGMAP@@XZ" PURGE="0" COMMENT="" />
    <EXPORT ORDINAL="2821" NAME="?GetThisMessageMap@CBCGPColorPickerCtrl@@KGPBUAFX_MSGMAP@@XZ" PURGE="0" COMMENT="" />
    <EXPORT ORDINAL="2822" NAME="?GetThisMessageMap@CBCGPComboEdit@@KGPBUAFX_MSGMAP@@XZ" PURGE="0" COMMENT="" />
    <EXPORT ORDINAL="2823" NAME="?GetThisMessageMap@CBCGPControlBar@@KGPBUAFX_MSGMAP@@XZ" PURGE="0" COMMENT="" />
    <EXPORT ORDINAL="2824" NAME="?GetThisMessageMap@CBCGPDateTimeCtrl@@KGPBUAFX_MSGMAP@@XZ" PURGE="0" COMMENT="" />
    <EXPORT ORDINAL="2825" NAME="?GetThisMessageMap@CBCGPDialog@@KGPBUAFX_MSGMAP@@XZ" PURGE="0" COMMENT="" />
    <EXPORT ORDINAL="2826" NAME="?GetThisMessageMap@CBCGPDialogBar@@KGPBUAFX_MSGMAP@@XZ" PURGE="0" COMMENT="" />
    <EXPORT ORDINAL="2827" NAME="?GetThisMessageMap@CBCGPDockBar@@KGPBUAFX_MSGMAP@@XZ" PURGE="0" COMMENT="" />
    <EXPORT ORDINAL="2828" NAME="?GetThisMessageMap@CBCGPDockingCBWrapper@@KGPBUAFX_MSGMAP@@XZ" PURGE="0" COMMENT="" />
    <EXPORT ORDINAL="2829" NAME="?GetThisMessageMap@CBCGPDockingControlBar@@KGPBUAFX_MSGMAP@@XZ" PURGE="0" COMMENT="" />
    <EXPORT ORDINAL="2830" NAME="?GetThisMessageMap@CBCGPDropDownToolBar@@KGPBUAFX_MSGMAP@@XZ" PURGE="0" COMMENT="" />
    <EXPORT ORDINAL="2831" NAME="?GetThisMessageMap@CBCGPDurationCtrl@@KGPBUAFX_MSGMAP@@XZ" PURGE="0" COMMENT="" />
    <EXPORT ORDINAL="2832" NAME="?GetThisMessageMap@CBCGPEdit@@KGPBUAFX_MSGMAP@@XZ" PURGE="0" COMMENT="" />
    <EXPORT ORDINAL="2833" NAME="?GetThisMessageMap@CBCGPEditCtrl@@KGPBUAFX_MSGMAP@@XZ" PURGE="0" COMMENT="" />
    <EXPORT ORDINAL="2834" NAME="?GetThisMessageMap@CBCGPEditListBase@@KGPBUAFX_MSGMAP@@XZ" PURGE="0" COMMENT="" />
    <EXPORT ORDINAL="2835" NAME="?GetThisMessageMap@CBCGPEditListBox@@KGPBUAFX_MSGMAP@@XZ" PURGE="0" COMMENT="" />
    <EXPORT ORDINAL="2836" NAME="?GetThisMessageMap@CBCGPEditView@@KGPBUAFX_MSGMAP@@XZ" PURGE="0" COMMENT="" />
    <EXPORT ORDINAL="2837" NAME="?GetThisMessageMap@CBCGPFileDialog@@KGPBUAFX_MSGMAP@@XZ" PURGE="0" COMMENT="" />
    <EXPORT ORDINAL="2838" NAME="?GetThisMessageMap@CBCGPFontComboBox@@KGPBUAFX_MSGMAP@@XZ" PURGE="0" COMMENT="" />
    <EXPORT ORDINAL="2839" NAME="?GetThisMessageMap@CBCGPFrameWnd@@KGPBUAFX_MSGMAP@@XZ" PURGE="0" COMMENT="" />
    <EXPORT ORDINAL="2840" NAME="?GetThisMessageMap@CBCGPHeaderCtrl@@KGPBUAFX_MSGMAP@@XZ" PURGE="0" COMMENT="" />
    <EXPORT ORDINAL="2841" NAME="?GetThisMessageMap@CBCGPHotSpotImageCtrl@@KGPBUAFX_MSGMAP@@XZ" PURGE="0" COMMENT="" />
    <EXPORT ORDINAL="2842" NAME="?GetThisMessageMap@CBCGPImageEditDlg@@KGPBUAFX_MSGMAP@@XZ" PURGE="0" COMMENT="" />
    <EXPORT ORDINAL="2843" NAME="?GetThisMessageMap@CBCGPIntelliSenseLB@@KGPBUAFX_MSGMAP@@XZ" PURGE="0" COMMENT="" />
    <EXPORT ORDINAL="2844" NAME="?GetThisMessageMap@CBCGPIntelliSenseWnd@@KGPBUAFX_MSGMAP@@XZ" PURGE="0" COMMENT="" />
    <EXPORT ORDINAL="2845" NAME="?GetThisMessageMap@CBCGPKeyMapDlg@@KGPBUAFX_MSGMAP@@XZ" PURGE="0" COMMENT="" />
    <EXPORT ORDINAL="2846" NAME="?GetThisMessageMap@CBCGPListCtrl@@KGPBUAFX_MSGMAP@@XZ" PURGE="0" COMMENT="" />
    <EXPORT ORDINAL="2847" NAME="?GetThisMessageMap@CBCGPMDIChildWnd@@KGPBUAFX_MSGMAP@@XZ" PURGE="0" COMMENT="" />
    <EXPORT ORDINAL="2848" NAME="?GetThisMessageMap@CBCGPMDIFrameWnd@@KGPBUAFX_MSGMAP@@XZ" PURGE="0" COMMENT="" />
    <EXPORT ORDINAL="2849" NAME="?GetThisMessageMap@CBCGPMainClientAreaWnd@@KGPBUAFX_MSGMAP@@XZ" PURGE="0" COMMENT="" />
    <EXPORT ORDINAL="2850" NAME="?GetThisMessageMap@CBCGPMaskEdit@@KGPBUAFX_MSGMAP@@XZ" PURGE="0" COMMENT="" />
    <EXPORT ORDINAL="2851" NAME="?GetThisMessageMap@CBCGPMenuBar@@KGPBUAFX_MSGMAP@@XZ" PURGE="0" COMMENT="" />
    <EXPORT ORDINAL="2852" NAME="?GetThisMessageMap@CBCGPMenuButton@@KGPBUAFX_MSGMAP@@XZ" PURGE="0" COMMENT="" />
    <EXPORT ORDINAL="2853" NAME="?GetThisMessageMap@CBCGPMiniFrameWnd@@KGPBUAFX_MSGMAP@@XZ" PURGE="0" COMMENT="" />
    <EXPORT ORDINAL="2854" NAME="?GetThisMessageMap@CBCGPMultiMiniFrameWnd@@KGPBUAFX_MSGMAP@@XZ" PURGE="0" COMMENT="" />
    <EXPORT ORDINAL="2855" NAME="?GetThisMessageMap@CBCGPOleCntrFrameWnd@@KGPBUAFX_MSGMAP@@XZ" PURGE="0" COMMENT="" />
    <EXPORT ORDINAL="2856" NAME="?GetThisMessageMap@CBCGPOleDocIPFrameWnd@@KGPBUAFX_MSGMAP@@XZ" PURGE="0" COMMENT="" />
    <EXPORT ORDINAL="2857" NAME="?GetThisMessageMap@CBCGPOleIPFrameWnd@@KGPBUAFX_MSGMAP@@XZ" PURGE="0" COMMENT="" />
    <EXPORT ORDINAL="2858" NAME="?GetThisMessageMap@CBCGPOleServerDoc@@KGPBUAFX_MSGMAP@@XZ" PURGE="0" COMMENT="" />
    <EXPORT ORDINAL="2859" NAME="?GetThisMessageMap@CBCGPOutlookBar@@KGPBUAFX_MSGMAP@@XZ" PURGE="0" COMMENT="" />
    <EXPORT ORDINAL="2860" NAME="?GetThisMessageMap@CBCGPOutlookBarDockingPane@@KGPBUAFX_MSGMAP@@XZ" PURGE="0" COMMENT="" />
    <EXPORT ORDINAL="2861" NAME="?GetThisMessageMap@CBCGPOutlookBarPane@@KGPBUAFX_MSGMAP@@XZ" PURGE="0" COMMENT="" />
    <EXPORT ORDINAL="2862" NAME="?GetThisMessageMap@CBCGPOutlookControlBar@@KGPBUAFX_MSGMAP@@XZ" PURGE="0" COMMENT="" />
    <EXPORT ORDINAL="2863" NAME="?GetThisMessageMap@CBCGPOutlookWnd@@KGPBUAFX_MSGMAP@@XZ" PURGE="0" COMMENT="" />
    <EXPORT ORDINAL="2864" NAME="?GetThisMessageMap@CBCGPPopupMenu@@KGPBUAFX_MSGMAP@@XZ" PURGE="0" COMMENT="" />
    <EXPORT ORDINAL="2865" NAME="?GetThisMessageMap@CBCGPPopupMenuBar@@KGPBUAFX_MSGMAP@@XZ" PURGE="0" COMMENT="" />
    <EXPORT ORDINAL="2866" NAME="?GetThisMessageMap@CBCGPPrintPreviewToolBar@@KGPBUAFX_MSGMAP@@XZ" PURGE="0" COMMENT="" />
    <EXPORT ORDINAL="2867" NAME="?GetThisMessageMap@CBCGPPrintPreviewView@@KGPBUAFX_MSGMAP@@XZ" PURGE="0" COMMENT="" />
    <EXPORT ORDINAL="2868" NAME="?GetThisMessageMap@CBCGPPropList@@KGPBUAFX_MSGMAP@@XZ" PURGE="0" COMMENT="" />
    <EXPORT ORDINAL="2869" NAME="?GetThisMessageMap@CBCGPPropertyPage@@KGPBUAFX_MSGMAP@@XZ" PURGE="0" COMMENT="" />
    <EXPORT ORDINAL="2870" NAME="?GetThisMessageMap@CBCGPPropertySheet@@KGPBUAFX_MSGMAP@@XZ" PURGE="0" COMMENT="" />
    <EXPORT ORDINAL="2871" NAME="?GetThisMessageMap@CBCGPReBar@@KGPBUAFX_MSGMAP@@XZ" PURGE="0" COMMENT="" />
    <EXPORT ORDINAL="2872" NAME="?GetThisMessageMap@CBCGPShellList@@KGPBUAFX_MSGMAP@@XZ" PURGE="0" COMMENT="" />
    <EXPORT ORDINAL="2873" NAME="?GetThisMessageMap@CBCGPShellTree@@KGPBUAFX_MSGMAP@@XZ" PURGE="0" COMMENT="" />
    <EXPORT ORDINAL="2874" NAME="?GetThisMessageMap@CBCGPSlider@@KGPBUAFX_MSGMAP@@XZ" PURGE="0" COMMENT="" />
    <EXPORT ORDINAL="2875" NAME="?GetThisMessageMap@CBCGPSpinButtonCtrl@@KGPBUAFX_MSGMAP@@XZ" PURGE="0" COMMENT="" />
    <EXPORT ORDINAL="2876" NAME="?GetThisMessageMap@CBCGPSplitterWnd@@KGPBUAFX_MSGMAP@@XZ" PURGE="0" COMMENT="" />
    <EXPORT ORDINAL="2877" NAME="?GetThisMessageMap@CBCGPStatusBar@@KGPBUAFX_MSGMAP@@XZ" PURGE="0" COMMENT="" />
    <EXPORT ORDINAL="2878" NAME="?GetThisMessageMap@CBCGPSymImagesLB@@KGPBUAFX_MSGMAP@@XZ" PURGE="0" COMMENT="" />
    <EXPORT ORDINAL="2879" NAME="?GetThisMessageMap@CBCGPTabView@@KGPBUAFX_MSGMAP@@XZ" PURGE="0" COMMENT="" />
    <EXPORT ORDINAL="2880" NAME="?GetThisMessageMap@CBCGPTabWnd@@KGPBUAFX_MSGMAP@@XZ" PURGE="0" COMMENT="" />
    <EXPORT ORDINAL="2881" NAME="?GetThisMessageMap@CBCGPTabbedControlBar@@KGPBUAFX_MSGMAP@@XZ" PURGE="0" COMMENT="" />
    <EXPORT ORDINAL="2882" NAME="?GetThisMessageMap@CBCGPTabbedToolbar@@KGPBUAFX_MSGMAP@@XZ" PURGE="0" COMMENT="" />
    <EXPORT ORDINAL="2883" NAME="?GetThisMessageMap@CBCGPTaskPaneMiniFrameWnd@@KGPBUAFX_MSGMAP@@XZ" PURGE="0" COMMENT="" />
    <EXPORT ORDINAL="2884" NAME="?GetThisMessageMap@CBCGPTasksPane@@KGPBUAFX_MSGMAP@@XZ" PURGE="0" COMMENT="" />
    <EXPORT ORDINAL="2885" NAME="?GetThisMessageMap@CBCGPToolBar@@KGPBUAFX_MSGMAP@@XZ" PURGE="0" COMMENT="" />
    <EXPORT ORDINAL="2886" NAME="?GetThisMessageMap@CBCGPToolBox@@KGPBUAFX_MSGMAP@@XZ" PURGE="0" COMMENT="" />
    <EXPORT ORDINAL="2887" NAME="?GetThisMessageMap@CBCGPToolBoxEx@@KGPBUAFX_MSGMAP@@XZ" PURGE="0" COMMENT="" />
    <EXPORT ORDINAL="2888" NAME="?GetThisMessageMap@CBCGPToolBoxPage@@KGPBUAFX_MSGMAP@@XZ" PURGE="0" COMMENT="" />
    <EXPORT ORDINAL="2889" NAME="?GetThisMessageMap@CBCGPToolbarCustomize@@KGPBUAFX_MSGMAP@@XZ" PURGE="0" COMMENT="" />
    <EXPORT ORDINAL="2890" NAME="?GetThisMessageMap@CBCGPToolbarDropSource@@KGPBUAFX_MSGMAP@@XZ" PURGE="0" COMMENT="" />
    <EXPORT ORDINAL="2891" NAME="?GetThisMessageMap@CBCGPToolbarDropTarget@@KGPBUAFX_MSGMAP@@XZ" PURGE="0" COMMENT="" />
    <EXPORT ORDINAL="2892" NAME="?GetThisMessageMap@CBCGPURLLinkButton@@KGPBUAFX_MSGMAP@@XZ" PURGE="0" COMMENT="" />
    <EXPORT ORDINAL="2893" NAME="?GetThisMessageMap@CBCGPWindowsManagerDlg@@KGPBUAFX_MSGMAP@@XZ" PURGE="0" COMMENT="" />
    <EXPORT ORDINAL="2894" NAME="?GetThisMessageMap@CColorPopup@@KGPBUAFX_MSGMAP@@XZ" PURGE="0" COMMENT="" />
    <EXPORT ORDINAL="2895" NAME="?GetThisMessageMap@CImagePaintArea@@KGPBUAFX_MSGMAP@@XZ" PURGE="0" COMMENT="" />
    <EXPORT ORDINAL="2896" NAME="?GetThisMessageMap@CKeyAssign@@KGPBUAFX_MSGMAP@@XZ" PURGE="0" COMMENT="" />
    <EXPORT ORDINAL="2897" NAME="?GetTime@CBCGPToolbarDateTimeCtrl@@QBEHAAVCOleDateTime@ATL@@@Z" PURGE="-1" COMMENT="" />
    <EXPORT ORDINAL="2898" NAME="?GetTime@CBCGPToolbarDateTimeCtrl@@QBEKAAVCTime@ATL@@@Z" PURGE="-1" COMMENT="" />
    <EXPORT ORDINAL="2899" NAME="?GetTime@CBCGPToolbarDateTimeCtrl@@QBEKPAU_SYSTEMTIME@@@Z" PURGE="4" COMMENT="" />
    <EXPORT ORDINAL="2900" NAME="?GetTimeAll@CBCGPToolbarDateTimeCtrl@@SAHIAAVCOleDateTime@ATL@@@Z" PURGE="0" COMMENT="" />
    <EXPORT ORDINAL="2901" NAME="?GetTimeAll@CBCGPToolbarDateTimeCtrl@@SAKIAAVCTime@ATL@@@Z" PURGE="0" COMMENT="" />
    <EXPORT ORDINAL="2902" NAME="?GetTimeAll@CBCGPToolbarDateTimeCtrl@@SAKIPAU_SYSTEMTIME@@@Z" PURGE="0" COMMENT="" />
    <EXPORT ORDINAL="2903" NAME="?GetTipText@CBCGPStatusBar@@QBE?AV?$CStringT@DV?$StrTraitMFC_DLL@DV?$ChTraitsCRT@D@ATL@@@@@ATL@@H@Z" PURGE="8" COMMENT="" />
    <EXPORT ORDINAL="2904" NAME="?GetToolBarCustomizeButtonMargin@CBCGPVisualManager2003@@UBEHXZ" PURGE="0" COMMENT="" />
    <EXPORT ORDINAL="2905" NAME="?GetToolBarCustomizeButtonMargin@CBCGPVisualManager@@UBEHXZ" PURGE="0" COMMENT="" />
    <EXPORT ORDINAL="2906" NAME="?GetToolTipCtrl@CBCGPBaseTabWnd@@QBEAAVCToolTipCtrl@@XZ" PURGE="0" COMMENT="" />
    <EXPORT ORDINAL="2907" NAME="?GetToolTipCtrl@CBCGPButton@@QAEAAVCToolTipCtrl@@XZ" PURGE="0" COMMENT="" />
    <EXPORT ORDINAL="2908" NAME="?GetToolbarButtonTextColor@CBCGPVisualManager@@UAEKPAVCBCGPToolbarButton@@W4BCGBUTTON_STATE@1@@Z" PURGE="8" COMMENT="" />
    <EXPORT ORDINAL="2909" NAME="?GetToolbarButtonTextColor@CBCGPVisualManagerXP@@MAEKPAVCBCGPToolbarButton@@W4BCGBUTTON_STATE@CBCGPVisualManager@@@Z" PURGE="8" COMMENT="" />
    <EXPORT ORDINAL="2910" NAME="?GetToolbarButtonTextColor@CBCGPWinXPVisualManager@@UAEKPAVCBCGPToolbarButton@@W4BCGBUTTON_STATE@CBCGPVisualManager@@@Z" PURGE="8" COMMENT="" />
    <EXPORT ORDINAL="2911" NAME="?GetToolbarButtonToolTipText@CBCGPFrameWnd@@UAEHPAVCBCGPToolbarButton@@AAV?$CStringT@DV?$StrTraitMFC_DLL@DV?$ChTraitsCRT@D@ATL@@@@@ATL@@@Z" PURGE="8" COMMENT="" />
    <EXPORT ORDINAL="2912" NAME="?GetToolbarButtonToolTipText@CBCGPMDIChildWnd@@UAEHPAVCBCGPToolbarButton@@AAV?$CStringT@DV?$StrTraitMFC_DLL@DV?$ChTraitsCRT@D@ATL@@@@@ATL@@@Z" PURGE="8" COMMENT="" />
    <EXPORT ORDINAL="2913" NAME="?GetToolbarButtonToolTipText@CBCGPMDIFrameWnd@@UAEHPAVCBCGPToolbarButton@@AAV?$CStringT@DV?$StrTraitMFC_DLL@DV?$ChTraitsCRT@D@ATL@@@@@ATL@@@Z" PURGE="8" COMMENT="" />
    <EXPORT ORDINAL="2914" NAME="?GetToolbarButtonToolTipText@CBCGPOleDocIPFrameWnd@@UAEHPAVCBCGPToolbarButton@@AAV?$CStringT@DV?$StrTraitMFC_DLL@DV?$ChTraitsCRT@D@ATL@@@@@ATL@@@Z" PURGE="8" COMMENT="" />
    <EXPORT ORDINAL="2915" NAME="?GetToolbarButtonToolTipText@CBCGPOleIPFrameWnd@@UAEHPAVCBCGPToolbarButton@@AAV?$CStringT@DV?$StrTraitMFC_DLL@DV?$ChTraitsCRT@D@ATL@@@@@ATL@@@Z" PURGE="8" COMMENT="" />
    <EXPORT ORDINAL="2916" NAME="?GetToolsEntryCmd@CBCGPUserToolsManager@@QBEIXZ" PURGE="0" COMMENT="" />
    <EXPORT ORDINAL="2917" NAME="?GetTopBlocksInRange@CBCGPOutlineNode@@IBEXHHAAVCObList@@@Z" PURGE="12" COMMENT="" />
    <EXPORT ORDINAL="2918" NAME="?GetTotalItems@CBCGPPropList@@IBEHXZ" PURGE="0" COMMENT="" />
    <EXPORT ORDINAL="2919" NAME="?GetTotalRefCount@CBCGPBarContainerManager@@QBEHXZ" PURGE="0" COMMENT="" />
    <EXPORT ORDINAL="2920" NAME="?GetTotalReferenceCount@CBCGPBarContainer@@QBEHXZ" PURGE="0" COMMENT="" />
    <EXPORT ORDINAL="2921" NAME="?GetTransparentColor@CBCGPToolBarImages@@QBEKXZ" PURGE="0" COMMENT="" />
    <EXPORT ORDINAL="2922" NAME="?GetTwipSize@CBCGPToolbarFontSizeCombo@@QBEHXZ" PURGE="0" COMMENT="" />
    <EXPORT ORDINAL="2923" NAME="?GetTwipsLast@CBCGPToolbarFontSizeCombo@@QBEHXZ" PURGE="0" COMMENT="" />
    <EXPORT ORDINAL="2924" NAME="?GetUnderlinedWindow@CBCGPBaseTabbedBar@@UAEPAVCBCGPBaseTabWnd@@XZ" PURGE="0" COMMENT="" />
    <EXPORT ORDINAL="2925" NAME="?GetUnderlinedWindow@CBCGPTabbedToolbar@@UAEPAVCBCGPTabWnd@@XZ" PURGE="0" COMMENT="" />
    <EXPORT ORDINAL="2926" NAME="?GetUndoActions@CBCGPEditCtrl@@QBEXAAVCDWordArray@@@Z" PURGE="4" COMMENT="" />
    <EXPORT ORDINAL="2927" NAME="?GetUserBarByIndex@CBCGPFrameImpl@@IBEPAVCBCGPToolBar@@H@Z" PURGE="4" COMMENT="" />
    <EXPORT ORDINAL="2928" NAME="?GetUserBarByIndex@CBCGPFrameWnd@@IBEPAVCBCGPToolBar@@H@Z" PURGE="4" COMMENT="" />
    <EXPORT ORDINAL="2929" NAME="?GetUserBarByIndex@CBCGPMDIFrameWnd@@IBEPAVCBCGPToolBar@@H@Z" PURGE="4" COMMENT="" />
    <EXPORT ORDINAL="2930" NAME="?GetUserBarByIndex@CBCGPOleDocIPFrameWnd@@IBEPAVCBCGPToolBar@@H@Z" PURGE="4" COMMENT="" />
    <EXPORT ORDINAL="2931" NAME="?GetUserBarByIndex@CBCGPOleIPFrameWnd@@IBEPAVCBCGPToolBar@@H@Z" PURGE="4" COMMENT="" />
    <EXPORT ORDINAL="2932" NAME="?GetUserImages@CBCGPToolBar@@SAPAVCBCGPToolBarImages@@XZ" PURGE="0" COMMENT="" />
    <EXPORT ORDINAL="2933" NAME="?GetUserTools@CBCGPUserToolsManager@@QBEABVCObList@@XZ" PURGE="0" COMMENT="" />
    <EXPORT ORDINAL="2934" NAME="?GetUserToolsManager@CBCGPWorkspace@@QAEPAVCBCGPUserToolsManager@@XZ" PURGE="0" COMMENT="" />
    <EXPORT ORDINAL="2935" NAME="?GetValue@CBCGPCalculator@@QBENXZ" PURGE="0" COMMENT="" />
    <EXPORT ORDINAL="2936" NAME="?GetValue@CBCGPMaskEdit@@IBE?BV?$CStringT@DV?$StrTraitMFC_DLL@DV?$ChTraitsCRT@D@ATL@@@@@ATL@@XZ" PURGE="4" COMMENT="" />
    <EXPORT ORDINAL="2937" NAME="?GetValue@CBCGPOutlineNode@@QAEPAVCBCGPOutlineBaseNode@@XZ" PURGE="0" COMMENT="" />
    <EXPORT ORDINAL="2938" NAME="?GetValue@CBCGPProp@@QBEABV_variant_t@@XZ" PURGE="0" COMMENT="" />
    <EXPORT ORDINAL="2939" NAME="?GetValueTooltip@CBCGPProp@@UAE?AV?$CStringT@DV?$StrTraitMFC_DLL@DV?$ChTraitsCRT@D@ATL@@@@@ATL@@XZ" PURGE="4" COMMENT="" />
    <EXPORT ORDINAL="2940" NAME="?GetVertMargin@CBCGPButton@@MBEHXZ" PURGE="0" COMMENT="" />
    <EXPORT ORDINAL="2941" NAME="?GetVertMargin@CBCGPCalendarBar@@QBEHXZ" PURGE="0" COMMENT="" />
    <EXPORT ORDINAL="2942" NAME="?GetVertMargin@CBCGPColorBar@@QBEHXZ" PURGE="0" COMMENT="" />
    <EXPORT ORDINAL="2943" NAME="?GetVertMargin@CBCGPTasksPane@@QBEHXZ" PURGE="0" COMMENT="" />
    <EXPORT ORDINAL="2944" NAME="?GetViewDblClickCommand@CBCGPMouseManager@@QBEIH@Z" PURGE="4" COMMENT="" />
    <EXPORT ORDINAL="2945" NAME="?GetViewIconId@CBCGPMouseManager@@QBEIH@Z" PURGE="4" COMMENT="" />
    <EXPORT ORDINAL="2946" NAME="?GetViewIdByName@CBCGPMouseManager@@QBEHPBD@Z" PURGE="4" COMMENT="" />
    <EXPORT ORDINAL="2947" NAME="?GetViewNames@CBCGPMouseManager@@QBEXAAVCStringList@@@Z" PURGE="4" COMMENT="" />
    <EXPORT ORDINAL="2948" NAME="?GetVirtualRect@CBCGPControlBar@@QBEXAAVCRect@@@Z" PURGE="4" COMMENT="" />
    <EXPORT ORDINAL="2949" NAME="?GetVirtualRow@CBCGPEditCtrl@@IBEHHH@Z" PURGE="8" COMMENT="" />
    <EXPORT ORDINAL="2950" NAME="?GetVisibleBarCount@CBCGPBarContainerManager@@UBEHXZ" PURGE="0" COMMENT="" />
    <EXPORT ORDINAL="2951" NAME="?GetVisibleBarCount@CBCGPMiniFrameWnd@@UBEHXZ" PURGE="0" COMMENT="" />
    <EXPORT ORDINAL="2952" NAME="?GetVisibleBarCount@CBCGPMultiMiniFrameWnd@@UBEHXZ" PURGE="-1" COMMENT="" />
    <EXPORT ORDINAL="2953" NAME="?GetVisibleCount@CBCGPAutoHideToolBar@@QAEHXZ" PURGE="0" COMMENT="" />
    <EXPORT ORDINAL="2954" NAME="?GetVisibleCount@CBCGPDockBarRow@@UAEHXZ" PURGE="0" COMMENT="" />
    <EXPORT ORDINAL="2955" NAME="?GetVisiblePageButtons@CBCGPOutlookWnd@@QBEHXZ" PURGE="0" COMMENT="" />
    <EXPORT ORDINAL="2956" NAME="?GetVisibleTabsNum@CBCGPBaseTabWnd@@UBEHXZ" PURGE="0" COMMENT="" />
    <EXPORT ORDINAL="2957" NAME="?GetVisibleTabsNum@CBCGPBaseTabbedBar@@UBEHXZ" PURGE="0" COMMENT="" />
    <EXPORT ORDINAL="2958" NAME="?GetVisibleText@CBCGPEditCtrl@@QBE?AV?$CStringT@DV?$StrTraitMFC_DLL@DV?$ChTraitsCRT@D@ATL@@@@@ATL@@HH@Z" PURGE="12" COMMENT="" />
    <EXPORT ORDINAL="2959" NAME="?GetWeekNo@CBCGPCalendarBar@@KAHABVCOleDateTime@ATL@@H@Z" PURGE="0" COMMENT="" />
    <EXPORT ORDINAL="2960" NAME="?GetWidth@CBCGPSlider@@QBEHXZ" PURGE="0" COMMENT="" />
    <EXPORT ORDINAL="2961" NAME="?GetWindowColor@CBCGPVisualManager2003@@MBEKXZ" PURGE="0" COMMENT="" />
    <EXPORT ORDINAL="2962" NAME="?GetWindowColor@CBCGPVisualManagerXP@@MBEKXZ" PURGE="0" COMMENT="" />
    <EXPORT ORDINAL="2963" NAME="?GetWindowMenuPopup@CBCGPMDIFrameWnd@@MAEPAUHMENU__@@PAU2@@Z" PURGE="4" COMMENT="" />
    <EXPORT ORDINAL="2964" NAME="?GetWindowRect@CBCGPBarContainer@@UBEXAAVCRect@@H@Z" PURGE="8" COMMENT="" />
    <EXPORT ORDINAL="2965" NAME="?GetWindowRect@CBCGPBarContainerManager@@UBEXAAVCRect@@@Z" PURGE="4" COMMENT="" />
    <EXPORT ORDINAL="2966" NAME="?GetWindowRect@CBCGPDockBarRow@@QBEXAAVCRect@@@Z" PURGE="4" COMMENT="" />
    <EXPORT ORDINAL="2967" NAME="?GetWindowTextA@CBCGPMaskEdit@@QBEHPADH@Z" PURGE="8" COMMENT="" />
    <EXPORT ORDINAL="2968" NAME="?GetWindowTextA@CBCGPMaskEdit@@QBEXAAV?$CStringT@DV?$StrTraitMFC_DLL@DV?$ChTraitsCRT@D@ATL@@@@@ATL@@@Z" PURGE="4" COMMENT="" />
    <EXPORT ORDINAL="2969" NAME="?GetWndArea@CBCGPTabWnd@@QBEXAAVCRect@@@Z" PURGE="4" COMMENT="" />
    <EXPORT ORDINAL="2970" NAME="?GetWordFromOffset@CBCGPEditCtrl@@QAEHHAAV?$CStringT@DV?$StrTraitMFC_DLL@DV?$ChTraitsCRT@D@ATL@@@@@ATL@@@Z" PURGE="8" COMMENT="" />
    <EXPORT ORDINAL="2971" NAME="?GetWordFromPoint@CBCGPEditCtrl@@QAEHVCPoint@@AAV?$CStringT@DV?$StrTraitMFC_DLL@DV?$ChTraitsCRT@D@ATL@@@@@ATL@@@Z" PURGE="12" COMMENT="" />
    <EXPORT ORDINAL="2972" NAME="?GetWorkspace@@YAPAVCBCGPWorkspace@@XZ" PURGE="0" COMMENT="" />
    <EXPORT ORDINAL="2973" NAME="?GetWrappedWnd@CBCGPDockingCBWrapper@@UBEPAVCWnd@@XZ" PURGE="0" COMMENT="" />
    <EXPORT ORDINAL="2974" NAME="?GiveFeedback@CBCGPToolbarDropSource@@UAEJK@Z" PURGE="4" COMMENT="" />
    <EXPORT ORDINAL="2975" NAME="?GoToLine@CBCGPEditCtrl@@UAEHHHH@Z" PURGE="12" COMMENT="" />
    <EXPORT ORDINAL="2976" NAME="?GoToMarker@CBCGPEditCtrl@@UAEHPBVCBCGPEditMarker@@@Z" PURGE="4" COMMENT="" />
    <EXPORT ORDINAL="2977" NAME="?GoToNextMarker@CBCGPEditCtrl@@QAEHKH@Z" PURGE="8" COMMENT="" />
    <EXPORT ORDINAL="2978" NAME="?GrayImages@CBCGPToolBarImages@@QAEHH@Z" PURGE="4" COMMENT="" />
    <EXPORT ORDINAL="2979" NAME="?GrayRect@CBCGPDrawManager@@QAEHVCRect@@HK@Z" PURGE="24" COMMENT="" />
    <EXPORT ORDINAL="2980" NAME="?GroupCaptionHitTest@CBCGPTasksPane@@MBEPAVCBCGPTasksGroup@@VCPoint@@@Z" PURGE="8" COMMENT="" />
    <EXPORT ORDINAL="2981" NAME="?HLStoRGB_ONE@CBCGPDrawManager@@SAKNNN@Z" PURGE="0" COMMENT="" />
    <EXPORT ORDINAL="2982" NAME="?HLStoRGB_TWO@CBCGPDrawManager@@SAKNNN@Z" PURGE="0" COMMENT="" />
    <EXPORT ORDINAL="2983" NAME="?HSVtoRGB@CBCGPDrawManager@@SAKNNN@Z" PURGE="0" COMMENT="" />
    <EXPORT ORDINAL="2984" NAME="?HandleInitDialog@CBCGPBaseControlBar@@IAEJIJ@Z" PURGE="8" COMMENT="" />
    <EXPORT ORDINAL="2985" NAME="?HandleInitDialog@CBCGPDialogBar@@QAEJIJ@Z" PURGE="8" COMMENT="" />
    <EXPORT ORDINAL="2986" NAME="?HasAutoHideMode@CBCGPBaseTabbedBar@@UBEHXZ" PURGE="0" COMMENT="" />
    <EXPORT ORDINAL="2987" NAME="?HasAutoHideMode@CBCGPDockingControlBar@@UBEHXZ" PURGE="0" COMMENT="" />
    <EXPORT ORDINAL="2988" NAME="?HasAutoHideMode@CBCGPTabbedControlBar@@UBEHXZ" PURGE="0" COMMENT="" />
    <EXPORT ORDINAL="2989" NAME="?HasButton@CBCGPProp@@MBEHXZ" PURGE="0" COMMENT="" />
    <EXPORT ORDINAL="2990" NAME="?HasControlBar@CBCGPDockBarRow@@QAEHPAVCBCGPBaseControlBar@@@Z" PURGE="4" COMMENT="" />
    <EXPORT ORDINAL="2991" NAME="?HasEnouthInformation@CCmdUsageCount@@QBEHXZ" PURGE="0" COMMENT="" />
    <EXPORT ORDINAL="2992" NAME="?HasFocus@CBCGPToolbarButton@@UBEHXZ" PURGE="0" COMMENT="" />
    <EXPORT ORDINAL="2993" NAME="?HasFocus@CBCGPToolbarComboBoxButton@@UBEHXZ" PURGE="0" COMMENT="" />
    <EXPORT ORDINAL="2994" NAME="?HasHotImage@CBCGPHotSpotImageCtrl@@MBEHXZ" PURGE="0" COMMENT="" />
    <EXPORT ORDINAL="2995" NAME="?HasImage@CBCGPBaseTabWnd@@UBEHH@Z" PURGE="4" COMMENT="" />
    <EXPORT ORDINAL="2996" NAME="?HasMarkers@CBCGPEditCtrl@@UAEHK@Z" PURGE="4" COMMENT="" />
    <EXPORT ORDINAL="2997" NAME="?HasValueField@CBCGPProp@@MBEHXZ" PURGE="0" COMMENT="" />
    <EXPORT ORDINAL="2998" NAME="?HaveHotBorder@CBCGPToolbarButton@@UBEHXZ" PURGE="0" COMMENT="" />
    <EXPORT ORDINAL="2999" NAME="?HaveHotBorder@CBCGPToolbarDateTimeCtrl@@UBEHXZ" PURGE="0" COMMENT="" />
    <EXPORT ORDINAL="3000" NAME="?HaveHotBorder@CBCGPToolbarEditBoxButton@@UBEHXZ" PURGE="0" COMMENT="" />
    <EXPORT ORDINAL="3001" NAME="?HaveHotBorder@CBCGPToolbarMenuButton@@UBEHXZ" PURGE="0" COMMENT="" />
    <EXPORT ORDINAL="3002" NAME="?Hide@CBCGPAppBarWnd@@QAEXXZ" PURGE="0" COMMENT="" />
    <EXPORT ORDINAL="3003" NAME="?HideActiveWindowHorzScrollBar@CBCGPTabWnd@@QAEXXZ" PURGE="0" COMMENT="" />
    <EXPORT ORDINAL="3004" NAME="?HideAll@CBCGPBarContainerManager@@UAEXXZ" PURGE="0" COMMENT="" />
    <EXPORT ORDINAL="3005" NAME="?HideAutoHideBars@CBCGPDockManager@@QAEXPAVCBCGPDockingControlBar@@H@Z" PURGE="8" COMMENT="" />
    <EXPORT ORDINAL="3006" NAME="?HideForPrintPreview@CBCGPDockManager@@IAEXABVCObList@@@Z" PURGE="4" COMMENT="" />
    <EXPORT ORDINAL="3007" NAME="?HideInactiveWindow@CBCGPTabWnd@@QAEXH@Z" PURGE="4" COMMENT="" />
    <EXPORT ORDINAL="3008" NAME="?HideNoTabs@CBCGPTabWnd@@QAEXH@Z" PURGE="4" COMMENT="" />
    <EXPORT ORDINAL="3009" NAME="?HideRarelyUsedCommands@CBCGPPopupMenu@@QBEHXZ" PURGE="0" COMMENT="" />
    <EXPORT ORDINAL="3010" NAME="?HideSelection@CBCGPEditCtrl@@QAEXXZ" PURGE="0" COMMENT="" />
    <EXPORT ORDINAL="3011" NAME="?HideSingleTab@CBCGPBaseTabWnd@@UAEXH@Z" PURGE="4" COMMENT="" />
    <EXPORT ORDINAL="3012" NAME="?HideSingleTab@CBCGPTabWnd@@UAEXH@Z" PURGE="4" COMMENT="" />
    <EXPORT ORDINAL="3013" NAME="?HighlightDisabledItems@CBCGPMenuBar@@SAXH@Z" PURGE="0" COMMENT="" />
    <EXPORT ORDINAL="3014" NAME="?HighlightRect@CBCGPDrawManager@@QAEHVCRect@@HKH@Z" PURGE="28" COMMENT="" />
    <EXPORT ORDINAL="3015" NAME="?HitTest@CBCGPAppBarWnd@@MAEIVCPoint@@H@Z" PURGE="12" COMMENT="" />
    <EXPORT ORDINAL="3016" NAME="?HitTest@CBCGPDockingControlBar@@UAEHVCPoint@@H@Z" PURGE="12" COMMENT="" />
    <EXPORT ORDINAL="3017" NAME="?HitTest@CBCGPEditCtrl@@QAEHAAVCPoint@@HH@Z" PURGE="12" COMMENT="" />
    <EXPORT ORDINAL="3018" NAME="?HitTest@CBCGPHotSpotImageCtrl@@MAEPAVCBCGPHotSpot@@VCPoint@@@Z" PURGE="8" COMMENT="" />
    <EXPORT ORDINAL="3019" NAME="?HitTest@CBCGPMiniFrameWnd@@UAEIVCPoint@@H@Z" PURGE="12" COMMENT="" />
    <EXPORT ORDINAL="3020" NAME="?HitTest@CBCGPProp@@QAEPAV1@VCPoint@@PAW4ClickArea@1@@Z" PURGE="12" COMMENT="" />
    <EXPORT ORDINAL="3021" NAME="?HitTest@CBCGPPropList@@QBEPAVCBCGPProp@@VCPoint@@PAW4ClickArea@2@H@Z" PURGE="16" COMMENT="" />
    <EXPORT ORDINAL="3022" NAME="?HitTest@CBCGPStatusBar@@IBEPAVCBCGStatusBarPaneInfo@@VCPoint@@@Z" PURGE="8" COMMENT="" />
    <EXPORT ORDINAL="3023" NAME="?HitTest@CBCGPToolBar@@UAEHVCPoint@@@Z" PURGE="8" COMMENT="" />
    <EXPORT ORDINAL="3024" NAME="?Home@CBCGPEditCtrl@@UAEHH@Z" PURGE="4" COMMENT="" />
    <EXPORT ORDINAL="3025" NAME="?HtmlHelpA@CBCGPFrameWnd@@MAEXKI@Z" PURGE="8" COMMENT="" />
    <EXPORT ORDINAL="3026" NAME="?HtmlHelpA@CBCGPMDIFrameWnd@@MAEXKI@Z" PURGE="8" COMMENT="" />
    <EXPORT ORDINAL="3027" NAME="?HtmlHelpA@CBCGPOleDocIPFrameWnd@@MAEXKI@Z" PURGE="8" COMMENT="" />
    <EXPORT ORDINAL="3028" NAME="?HtmlHelpA@CBCGPOleIPFrameWnd@@MAEXKI@Z" PURGE="8" COMMENT="" />
    <EXPORT ORDINAL="3029" NAME="?HueToRGB@CBCGPDrawManager@@SAEMMM@Z" PURGE="0" COMMENT="" />
    <EXPORT ORDINAL="3030" NAME="?HuetoRGB@CBCGPDrawManager@@SANNNN@Z" PURGE="0" COMMENT="" />
    <EXPORT ORDINAL="3031" NAME="?HyperlinkClick@CBCGPEditCtrl@@QAEXXZ" PURGE="0" COMMENT="" />
    <EXPORT ORDINAL="3032" NAME="?ImportFromMenu@CBCGPPopupMenuBar@@QAEHPAUHMENU__@@H@Z" PURGE="8" COMMENT="" />
    <EXPORT ORDINAL="3033" NAME="?InCommand@CBCGPPopupMenu@@UAEHXZ" PURGE="0" COMMENT="" />
    <EXPORT ORDINAL="3034" NAME="?IndentSelection@CBCGPEditCtrl@@UAEHH@Z" PURGE="4" COMMENT="" />
    <EXPORT ORDINAL="3035" NAME="?IndentText@CBCGPEditCtrl@@QAEHHHHHHAAVCStringArray@@H@Z" PURGE="28" COMMENT="" />
    <EXPORT ORDINAL="3036" NAME="?Init@CBCGPEditListBase@@IAEXXZ" PURGE="0" COMMENT="" />
    <EXPORT ORDINAL="3037" NAME="?Init@CBCGPFontComboBox@@IAEXXZ" PURGE="0" COMMENT="" />
    <EXPORT ORDINAL="3038" NAME="?Init@CBCGPOutlineParser@@UAEXXZ" PURGE="0" COMMENT="" />
    <EXPORT ORDINAL="3039" NAME="?Init@CBCGPProp@@IAEXXZ" PURGE="0" COMMENT="" />
    <EXPORT ORDINAL="3040" NAME="?Init@CBCGPPropList@@MAEXXZ" PURGE="0" COMMENT="" />
    <EXPORT ORDINAL="3041" NAME="?Init@CBCGPToolbarSpinEditBoxButton@@IAEXXZ" PURGE="0" COMMENT="" />
    <EXPORT ORDINAL="3042" NAME="?InitAutoColors@CBCGPBaseTabWnd@@MAEXXZ" PURGE="0" COMMENT="" />
    <EXPORT ORDINAL="3043" NAME="?InitColors@CBCGPColorBar@@KAHPAVCPalette@@AAV?$CArray@KK@@@Z" PURGE="0" COMMENT="" />
    <EXPORT ORDINAL="3044" NAME="?InitColors@CBCGPEditCtrl@@IAEXXZ" PURGE="0" COMMENT="" />
    <EXPORT ORDINAL="3045" NAME="?InitColors@CBCGPListCtrl@@IAEXXZ" PURGE="0" COMMENT="" />
    <EXPORT ORDINAL="3046" NAME="?InitContextMenuManager@CBCGPWorkspace@@QAEHXZ" PURGE="0" COMMENT="" />
    <EXPORT ORDINAL="3047" NAME="?InitHeader@CBCGPListCtrl@@MAEXXZ" PURGE="0" COMMENT="" />
    <EXPORT ORDINAL="3048" NAME="?InitHeader@CBCGPPropList@@UAEXXZ" PURGE="0" COMMENT="" />
    <EXPORT ORDINAL="3049" NAME="?InitKeyboardManager@CBCGPWorkspace@@QAEHXZ" PURGE="0" COMMENT="" />
    <EXPORT ORDINAL="3050" NAME="?InitList@CBCGPListCtrl@@IAEHXZ" PURGE="0" COMMENT="" />
    <EXPORT ORDINAL="3051" NAME="?InitList@CBCGPShellList@@IAEHXZ" PURGE="0" COMMENT="" />
    <EXPORT ORDINAL="3052" NAME="?InitMenuBar@CBCGPPopupMenu@@MAEHXZ" PURGE="0" COMMENT="" />
    <EXPORT ORDINAL="3053" NAME="?InitMouseManager@CBCGPWorkspace@@QAEHXZ" PURGE="0" COMMENT="" />
    <EXPORT ORDINAL="3054" NAME="?InitNavigationControl@CBCGPPropertySheet@@UAEPAVCWnd@@XZ" PURGE="0" COMMENT="" />
    <EXPORT ORDINAL="3055" NAME="?InitPage@CBCGPToolBoxPage@@IAEHIHABVCStringList@@PAUCRuntimeClass@@@Z" PURGE="16" COMMENT="" />
    <EXPORT ORDINAL="3056" NAME="?InitShellManager@CBCGPWorkspace@@QAEHXZ" PURGE="0" COMMENT="" />
    <EXPORT ORDINAL="3057" NAME="?InitSkinManager@CBCGPWorkspace@@QAEHPBD@Z" PURGE="4" COMMENT="" />
    <EXPORT ORDINAL="3058" NAME="?InitStyle@CBCGPButton@@IAEXK@Z" PURGE="4" COMMENT="" />
    <EXPORT ORDINAL="3059" NAME="?InitTree@CBCGPShellTree@@IAEXXZ" PURGE="0" COMMENT="" />
    <EXPORT ORDINAL="3060" NAME="?InitUserToolbars@CBCGPFrameImpl@@IAEXPBDII@Z" PURGE="12" COMMENT="" />
    <EXPORT ORDINAL="3061" NAME="?InitUserToolbars@CBCGPFrameWnd@@IAEXPBDII@Z" PURGE="12" COMMENT="" />
    <EXPORT ORDINAL="3062" NAME="?InitUserToolbars@CBCGPMDIFrameWnd@@IAEXPBDII@Z" PURGE="12" COMMENT="" />
    <EXPORT ORDINAL="3063" NAME="?InitUserToolbars@CBCGPOleDocIPFrameWnd@@IAEXPBDII@Z" PURGE="12" COMMENT="" />
    <EXPORT ORDINAL="3064" NAME="?InitUserToolbars@CBCGPOleIPFrameWnd@@IAEXPBDII@Z" PURGE="12" COMMENT="" />
    <EXPORT ORDINAL="3065" NAME="?Initialize@CBCGPCalendarMenuButton@@IAEXXZ" PURGE="0" COMMENT="" />
    <EXPORT ORDINAL="3066" NAME="?Initialize@CBCGPColorMenuButton@@IAEXXZ" PURGE="0" COMMENT="" />
    <EXPORT ORDINAL="3067" NAME="?Initialize@CBCGPEditCtrl@@IAEXXZ" PURGE="0" COMMENT="" />
    <EXPORT ORDINAL="3068" NAME="?Initialize@CBCGPPopupMenu@@IAEXXZ" PURGE="0" COMMENT="" />
    <EXPORT ORDINAL="3069" NAME="?Initialize@CBCGPTearOffManager@@QAEHPBDII@Z" PURGE="12" COMMENT="" />
    <EXPORT ORDINAL="3070" NAME="?Initialize@CBCGPToolbarButton@@IAEXXZ" PURGE="0" COMMENT="" />
    <EXPORT ORDINAL="3071" NAME="?Initialize@CBCGPToolbarComboBoxButton@@IAEXXZ" PURGE="0" COMMENT="" />
    <EXPORT ORDINAL="3072" NAME="?Initialize@CBCGPToolbarDateTimeCtrl@@IAEXXZ" PURGE="0" COMMENT="" />
    <EXPORT ORDINAL="3073" NAME="?Initialize@CBCGPToolbarEditBoxButton@@IAEXXZ" PURGE="0" COMMENT="" />
    <EXPORT ORDINAL="3074" NAME="?Initialize@CBCGPToolbarMenuButton@@IAEXIPAUHMENU__@@HPBDH@Z" PURGE="20" COMMENT="" />
    <EXPORT ORDINAL="3075" NAME="?Initialize@CBCGPToolbarMenuButton@@IAEXXZ" PURGE="0" COMMENT="" />
    <EXPORT ORDINAL="3076" NAME="?Initialize@CMenuImages@@KAHXZ" PURGE="0" COMMENT="" />
    <EXPORT ORDINAL="3077" NAME="?InsertButton@CBCGPToolBar@@MAEHPAVCBCGPToolbarButton@@H@Z" PURGE="8" COMMENT="" />
    <EXPORT ORDINAL="3078" NAME="?InsertButton@CBCGPToolBar@@UAEHABVCBCGPToolbarButton@@H@Z" PURGE="8" COMMENT="" />
    <EXPORT ORDINAL="3079" NAME="?InsertChar@CBCGPEditCtrl@@UAEHDH@Z" PURGE="8" COMMENT="" />
    <EXPORT ORDINAL="3080" NAME="?InsertControlBar@CBCGPBarContainerManager@@UAEHPAVCBCGPDockingControlBar@@0KPBUtagRECT@@W4BCGP_DOCK_METHOD@@@Z" PURGE="20" COMMENT="" />
    <EXPORT ORDINAL="3081" NAME="?InsertControlBar@CBCGPBaseControlBar@@QAEHPAV1@0H@Z" PURGE="12" COMMENT="" />
    <EXPORT ORDINAL="3082" NAME="?InsertControlBar@CBCGPDockManager@@QAEHPAVCBCGPBaseControlBar@@0H@Z" PURGE="12" COMMENT="" />
    <EXPORT ORDINAL="3083" NAME="?InsertControlBar@CBCGPFrameWnd@@QAEHPAVCBCGPBaseControlBar@@0H@Z" PURGE="12" COMMENT="" />
    <EXPORT ORDINAL="3084" NAME="?InsertControlBar@CBCGPMDIChildWnd@@QAEHPAVCBCGPBaseControlBar@@0H@Z" PURGE="12" COMMENT="" />
    <EXPORT ORDINAL="3085" NAME="?InsertControlBar@CBCGPMDIFrameWnd@@QAEHPAVCBCGPBaseControlBar@@0H@Z" PURGE="12" COMMENT="" />
    <EXPORT ORDINAL="3086" NAME="?InsertControlBar@CBCGPMultiMiniFrameWnd@@UAEHPAVCBCGPBaseControlBar@@0H@Z" PURGE="12" COMMENT="" />
    <EXPORT ORDINAL="3087" NAME="?InsertControlBar@CBCGPOleCntrFrameWnd@@QAEHPAVCBCGPBaseControlBar@@0H@Z" PURGE="12" COMMENT="" />
    <EXPORT ORDINAL="3088" NAME="?InsertControlBar@CBCGPOleDocIPFrameWnd@@QAEHPAVCBCGPBaseControlBar@@0H@Z" PURGE="12" COMMENT="" />
    <EXPORT ORDINAL="3089" NAME="?InsertControlBar@CBCGPOleIPFrameWnd@@QAEHPAVCBCGPBaseControlBar@@0H@Z" PURGE="12" COMMENT="" />
    <EXPORT ORDINAL="3090" NAME="?InsertControlBar@CBCGPSlider@@UAEHPAVCBCGPDockingControlBar@@0KPBUtagRECT@@@Z" PURGE="16" COMMENT="" />
    <EXPORT ORDINAL="3091" NAME="?InsertDataToEditCtrl@CBCGPBaseIntelliSenseLB@@MAEXXZ" PURGE="0" COMMENT="" />
    <EXPORT ORDINAL="3092" NAME="?InsertDataToEditCtrl@CBCGPIntelliSenseLB@@MAEXXZ" PURGE="0" COMMENT="" />
    <EXPORT ORDINAL="3093" NAME="?InsertDataToEditCtrl@CBCGPSymImagesLB@@MAEXXZ" PURGE="0" COMMENT="" />
    <EXPORT ORDINAL="3094" NAME="?InsertDockBar@CBCGPDockManager@@QAEHABUBCGP_DOCKBAR_INFO@@KPAPAVCBCGPDockBar@@@Z" PURGE="12" COMMENT="" />
    <EXPORT ORDINAL="3095" NAME="?InsertItem@CBCGPPopupMenu@@QAEHABVCBCGPToolbarMenuButton@@H@Z" PURGE="-1" COMMENT="" />
    <EXPORT ORDINAL="3096" NAME="?InsertMarker@CBCGPEditCtrl@@QAEPAU__POSITION@@PAVCBCGPEditMarker@@H@Z" PURGE="8" COMMENT="" />
    <EXPORT ORDINAL="3097" NAME="?InsertNewLine@CBCGPEditCtrl@@UAEHHHHH@Z" PURGE="16" COMMENT="" />
    <EXPORT ORDINAL="3098" NAME="?InsertSeparator@CBCGPPopupMenu@@QAEHH@Z" PURGE="4" COMMENT="" />
    <EXPORT ORDINAL="3099" NAME="?InsertSeparator@CBCGPToolBar@@QAEHH@Z" PURGE="4" COMMENT="" />
    <EXPORT ORDINAL="3100" NAME="?InsertSize@CBCGPToolbarFontSizeCombo@@IAEXH@Z" PURGE="4" COMMENT="" />
    <EXPORT ORDINAL="3101" NAME="?InsertTab@CBCGPBaseTabWnd@@UAEXPAVCWnd@@IHIH@Z" PURGE="20" COMMENT="" />
    <EXPORT ORDINAL="3102" NAME="?InsertTab@CBCGPBaseTabWnd@@UAEXPAVCWnd@@PBDHIH@Z" PURGE="20" COMMENT="" />
    <EXPORT ORDINAL="3103" NAME="?InsertTab@CBCGPEditCtrl@@UAEHH@Z" PURGE="4" COMMENT="" />
    <EXPORT ORDINAL="3104" NAME="?InsertText@CBCGPEditCtrl@@UAEHPBDHHHHHH@Z" PURGE="28" COMMENT="" />
    <EXPORT ORDINAL="3105" NAME="?InsertTextAsBlock@CBCGPEditCtrl@@UAEHPBDHHHHH@Z" PURGE="24" COMMENT="" />
    <EXPORT ORDINAL="3106" NAME="?IntelliSenseCharUpdate@CBCGPEditCtrl@@UAEHABV?$CStringT@DV?$StrTraitMFC_DLL@DV?$ChTraitsCRT@D@ATL@@@@@ATL@@HDAAV23@@Z" PURGE="16" COMMENT="" />
    <EXPORT ORDINAL="3107" NAME="?InternalAddButton@CBCGPOutlookBarPane@@IAEHHPBDIH@Z" PURGE="16" COMMENT="" />
    <EXPORT ORDINAL="3108" NAME="?InternalAddPage@CBCGPPropertySheet@@IAEXH@Z" PURGE="4" COMMENT="" />
    <EXPORT ORDINAL="3109" NAME="?InvalidateButton@CBCGPToolBar@@QAEPAVCBCGPToolbarButton@@H@Z" PURGE="4" COMMENT="" />
    <EXPORT ORDINAL="3110" NAME="?InvalidatePaneContent@CBCGPStatusBar@@QAEXH@Z" PURGE="4" COMMENT="" />
    <EXPORT ORDINAL="3111" NAME="?InvalidateTab@CBCGPBaseTabWnd@@QAEXH@Z" PURGE="4" COMMENT="" />
    <EXPORT ORDINAL="3112" NAME="?Invoke@CBCGPUserTool@@UAEHXZ" PURGE="0" COMMENT="" />
    <EXPORT ORDINAL="3113" NAME="?InvokeIntelliSense@CBCGPEditCtrl@@UAEHAAVCObList@@VCPoint@@@Z" PURGE="12" COMMENT="" />
    <EXPORT ORDINAL="3114" NAME="?InvokeIntelliSense@CBCGPEditCtrl@@UAEHXZ" PURGE="0" COMMENT="" />
    <EXPORT ORDINAL="3115" NAME="?InvokeMenuCommand@CBCGPPopupMenuBar@@IAEXIPBVCBCGPToolbarButton@@@Z" PURGE="8" COMMENT="" />
    <EXPORT ORDINAL="3116" NAME="?InvokeSymList@CBCGPEditCtrl@@UAEHAAVCObList@@VCPoint@@@Z" PURGE="12" COMMENT="" />
    <EXPORT ORDINAL="3117" NAME="?InvokeSymList@CBCGPEditCtrl@@UAEHXZ" PURGE="0" COMMENT="" />
    <EXPORT ORDINAL="3118" NAME="?InvokeTool@CBCGPUserToolsManager@@QAEHI@Z" PURGE="4" COMMENT="" />
    <EXPORT ORDINAL="3119" NAME="?Is32BitIcons@GLOBAL_DATA@@QBEHXZ" PURGE="0" COMMENT="" />
    <EXPORT ORDINAL="3120" NAME="?Is32BitTransparencySupported@CBCGPToolBarImages@@SAHXZ" PURGE="0" COMMENT="" />
    <EXPORT ORDINAL="3121" NAME="?IsAccessibilitySupport@GLOBAL_DATA@@QBEHXZ" PURGE="0" COMMENT="" />
    <EXPORT ORDINAL="3122" NAME="?IsActive@CBCGPAutoHideButton@@QBEHXZ" PURGE="0" COMMENT="" />
    <EXPORT ORDINAL="3123" NAME="?IsActiveInMDITabGroup@CBCGPTabWnd@@QBEHXZ" PURGE="0" COMMENT="" />
    <EXPORT ORDINAL="3124" NAME="?IsActiveTabBoldFont@CBCGPTabWnd@@QBEHXZ" PURGE="0" COMMENT="" />
    <EXPORT ORDINAL="3125" NAME="?IsActualDay@CBCGPCalendarButton@@MBEHXZ" PURGE="0" COMMENT="" />
    <EXPORT ORDINAL="3126" NAME="?IsAddRemoveQuickCustomize@CBCGPToolBar@@QAEHXZ" PURGE="0" COMMENT="" />
    <EXPORT ORDINAL="3127" NAME="?IsAllowEdit@CBCGPProp@@QBEHXZ" PURGE="0" COMMENT="" />
    <EXPORT ORDINAL="3128" NAME="?IsAlphabeticMode@CBCGPPropList@@QBEHXZ" PURGE="0" COMMENT="" />
    <EXPORT ORDINAL="3129" NAME="?IsAltCustomizeMode@CBCGPToolBar@@SAHXZ" PURGE="0" COMMENT="" />
    <EXPORT ORDINAL="3130" NAME="?IsAlwaysShowEmptyToolsEntry@CBCGPPopupMenu@@SAHXZ" PURGE="0" COMMENT="" />
    <EXPORT ORDINAL="3131" NAME="?IsAnimation@CBCGPOutlookWnd@@SAHXZ" PURGE="0" COMMENT="" />
    <EXPORT ORDINAL="3132" NAME="?IsAnimationEnabled@CBCGPTasksPane@@QBEHXZ" PURGE="0" COMMENT="" />
    <EXPORT ORDINAL="3133" NAME="?IsAscending@CBCGPHeaderCtrl@@QBEHXZ" PURGE="0" COMMENT="" />
    <EXPORT ORDINAL="3134" NAME="?IsAutoCheck@CBCGPButton@@QBEHXZ" PURGE="0" COMMENT="" />
    <EXPORT ORDINAL="3135" NAME="?IsAutoColor@CBCGPBaseTabWnd@@QBEHXZ" PURGE="0" COMMENT="" />
    <EXPORT ORDINAL="3136" NAME="?IsAutoDestroy@CBCGPVisualManager@@QBEHXZ" PURGE="0" COMMENT="" />
    <EXPORT ORDINAL="3137" NAME="?IsAutoDestroyWindow@CBCGPBaseTabWnd@@QBEHXZ" PURGE="0" COMMENT="" />
    <EXPORT ORDINAL="3138" NAME="?IsAutoGrayInactiveImages@CBCGPToolBar@@SAHXZ" PURGE="0" COMMENT="" />
    <EXPORT ORDINAL="3139" NAME="?IsAutoHideMode@CBCGPBarContainerManager@@QBEHXZ" PURGE="0" COMMENT="" />
    <EXPORT ORDINAL="3140" NAME="?IsAutoHideMode@CBCGPControlBar@@UBEHXZ" PURGE="0" COMMENT="" />
    <EXPORT ORDINAL="3141" NAME="?IsAutoHideMode@CBCGPDockingControlBar@@UBEHXZ" PURGE="0" COMMENT="" />
    <EXPORT ORDINAL="3142" NAME="?IsAutoHideMode@CBCGPSlider@@QBEHXZ" PURGE="0" COMMENT="" />
    <EXPORT ORDINAL="3143" NAME="?IsAutoOutliningEnabled@CBCGPEditCtrl@@QBEHXZ" PURGE="0" COMMENT="" />
    <EXPORT ORDINAL="3144" NAME="?IsAutohideAllEnabled@CBCGPDockingControlBar@@UBEHXZ" PURGE="0" COMMENT="" />
    <EXPORT ORDINAL="3145" NAME="?IsAutorepeatCommandMode@CBCGPButton@@QBEHXZ" PURGE="0" COMMENT="" />
    <EXPORT ORDINAL="3146" NAME="?IsBackButtonEnabled@CBCGPTasksPane@@QBEHXZ" PURGE="0" COMMENT="" />
    <EXPORT ORDINAL="3147" NAME="?IsBackgroundTexture@CBCGPOutlookBarPane@@QBEHXZ" PURGE="0" COMMENT="" />
    <EXPORT ORDINAL="3148" NAME="?IsBarVisible@CBCGPBaseControlBar@@QBEHXZ" PURGE="0" COMMENT="" />
    <EXPORT ORDINAL="3149" NAME="?IsBasicCommand@CBCGPToolBar@@SAHI@Z" PURGE="0" COMMENT="" />
    <EXPORT ORDINAL="3150" NAME="?IsBlockName@CBCGPOutlineParser@@MAEHABV?$CStringT@DV?$StrTraitMFC_DLL@DV?$ChTraitsCRT@D@ATL@@@@@ATL@@AAV23@HH@Z" PURGE="16" COMMENT="" />
    <EXPORT ORDINAL="3151" NAME="?IsBorder@CBCGPToolbarMenuButton@@UBEHXZ" PURGE="0" COMMENT="" />
    <EXPORT ORDINAL="3152" NAME="?IsBrother@CBCGPToolBar@@QAEHXZ" PURGE="0" COMMENT="" />
    <EXPORT ORDINAL="3153" NAME="?IsBrowseButton@CBCGPEditListBase@@QBEHXZ" PURGE="0" COMMENT="" />
    <EXPORT ORDINAL="3154" NAME="?IsButtonEnabled@CBCGPDockingControlBar@@IBEHI@Z" PURGE="4" COMMENT="" />
    <EXPORT ORDINAL="3155" NAME="?IsButtonExtraSizeAvailable@CBCGPMenuBar@@UBEHXZ" PURGE="0" COMMENT="" />
    <EXPORT ORDINAL="3156" NAME="?IsButtonExtraSizeAvailable@CBCGPPopupMenuBar@@MBEHXZ" PURGE="0" COMMENT="" />
    <EXPORT ORDINAL="3157" NAME="?IsButtonExtraSizeAvailable@CBCGPToolBar@@UBEHXZ" PURGE="0" COMMENT="" />
    <EXPORT ORDINAL="3158" NAME="?IsButtonHighlighted@CBCGPToolBar@@QBEHH@Z" PURGE="4" COMMENT="" />
    <EXPORT ORDINAL="3159" NAME="?IsCalculator@CBCGPToolbarEditBoxButton@@QBEHXZ" PURGE="0" COMMENT="" />
    <EXPORT ORDINAL="3160" NAME="?IsCaptured@CBCGPMiniFrameWnd@@QBEHXZ" PURGE="0" COMMENT="" />
    <EXPORT ORDINAL="3161" NAME="?IsCenterVert@CBCGPToolbarComboBoxButton@@SAHXZ" PURGE="0" COMMENT="" />
    <EXPORT ORDINAL="3162" NAME="?IsChangeState@CBCGPControlBar@@UBE?AW4BCGP_CS_STATUS@@HPAPAVCBCGPBaseControlBar@@@Z" PURGE="8" COMMENT="" />
    <EXPORT ORDINAL="3163" NAME="?IsChangeState@CBCGPDockingControlBar@@UBE?AW4BCGP_CS_STATUS@@HPAPAVCBCGPBaseControlBar@@@Z" PURGE="8" COMMENT="" />
    <EXPORT ORDINAL="3164" NAME="?IsChangeState@CBCGPOutlookBarPane@@UBE?AW4BCGP_CS_STATUS@@HPAPAVCBCGPBaseControlBar@@@Z" PURGE="8" COMMENT="" />
    <EXPORT ORDINAL="3165" NAME="?IsCharBlockSymbol@CBCGPEditCtrl@@IAEHD@Z" PURGE="4" COMMENT="" />
    <EXPORT ORDINAL="3166" NAME="?IsCheckBox@CBCGPButton@@QBEHXZ" PURGE="0" COMMENT="" />
    <EXPORT ORDINAL="3167" NAME="?IsChecked@CBCGPButton@@QBEHXZ" PURGE="0" COMMENT="" />
    <EXPORT ORDINAL="3168" NAME="?IsClickedOnMenu@CBCGPToolbarMenuButton@@QBEHXZ" PURGE="0" COMMENT="" />
    <EXPORT ORDINAL="3169" NAME="?IsCollapsed@CBCGPOutlineBaseNode@@QBEHXZ" PURGE="0" COMMENT="" />
    <EXPORT ORDINAL="3170" NAME="?IsColored@CBCGPBaseTabWnd@@UBEHXZ" PURGE="0" COMMENT="" />
    <EXPORT ORDINAL="3171" NAME="?IsColoredLine@CBCGPEditCtrl@@IAEHHAAK0@Z" PURGE="12" COMMENT="" />
    <EXPORT ORDINAL="3172" NAME="?IsCommandExist@CBCGPCustomizeMenuButton@@SAHI@Z" PURGE="0" COMMENT="" />
    <EXPORT ORDINAL="3173" NAME="?IsCommandPermitted@CBCGPToolBar@@SAHI@Z" PURGE="0" COMMENT="" />
    <EXPORT ORDINAL="3174" NAME="?IsCommandRarelyUsed@CBCGPToolBar@@SAHI@Z" PURGE="0" COMMENT="" />
    <EXPORT ORDINAL="3175" NAME="?IsConerArrowsEnabled@CBCGPAppBarWnd@@MBEHXZ" PURGE="0" COMMENT="" />
    <EXPORT ORDINAL="3176" NAME="?IsContainerEmpty@CBCGPBarContainer@@QBEHXZ" PURGE="0" COMMENT="" />
    <EXPORT ORDINAL="3177" NAME="?IsContainerVisible@CBCGPBarContainer@@QBEHXZ" PURGE="0" COMMENT="" />
    <EXPORT ORDINAL="3178" NAME="?IsCopyEnabled@CBCGPEditCtrl@@UBEHXZ" PURGE="0" COMMENT="" />
    <EXPORT ORDINAL="3179" NAME="?IsCurrMonth@CBCGPCalendarButton@@UBEHXZ" PURGE="0" COMMENT="" />
    <EXPORT ORDINAL="3180" NAME="?IsCustModeAndNotFloatingToolbar@CBCGPMiniFrameWnd@@IBEHXZ" PURGE="0" COMMENT="" />
    <EXPORT ORDINAL="3181" NAME="?IsCustomizeMode@CBCGPToolBar@@SAHXZ" PURGE="0" COMMENT="" />
    <EXPORT ORDINAL="3182" NAME="?IsCustomizePane@CBCGPFrameImpl@@IBEHPBVCBCGPPopupMenu@@@Z" PURGE="4" COMMENT="" />
    <EXPORT ORDINAL="3183" NAME="?IsCustomizePane@CBCGPPopupMenu@@QAEHXZ" PURGE="0" COMMENT="" />
    <EXPORT ORDINAL="3184" NAME="?IsCutEnabled@CBCGPEditCtrl@@UBEHXZ" PURGE="0" COMMENT="" />
    <EXPORT ORDINAL="3185" NAME="?IsDatePart@CBCGPDateTimeCtrl@@IBEHH@Z" PURGE="4" COMMENT="" />
    <EXPORT ORDINAL="3186" NAME="?IsDateValid@CBCGPDateTimeCtrl@@IBEHAAVCOleDateTime@ATL@@@Z" PURGE="4" COMMENT="" />
    <EXPORT ORDINAL="3187" NAME="?IsDaySelected@CBCGPCalendarBar@@IBEHABVCOleDateTime@ATL@@@Z" PURGE="4" COMMENT="" />
    <EXPORT ORDINAL="3188" NAME="?IsDefault@CBCGPSlider@@QBEHXZ" PURGE="0" COMMENT="" />
    <EXPORT ORDINAL="3189" NAME="?IsDefaultWinXPColorsEnabled@CBCGPVisualManager2003@@SAHXZ" PURGE="0" COMMENT="" />
    <EXPORT ORDINAL="3190" NAME="?IsDescriptionArea@CBCGPPropList@@QBEHXZ" PURGE="0" COMMENT="" />
    <EXPORT ORDINAL="3191" NAME="?IsDesktop@CBCGPShellList@@QBEHXZ" PURGE="0" COMMENT="" />
    <EXPORT ORDINAL="3192" NAME="?IsDialogControl@CBCGPBaseControlBar@@QBEHXZ" PURGE="0" COMMENT="" />
    <EXPORT ORDINAL="3193" NAME="?IsDialogControl@CBCGPBaseTabWnd@@QBEHXZ" PURGE="0" COMMENT="" />
    <EXPORT ORDINAL="3194" NAME="?IsDialogControl@CBCGPHeaderCtrl@@QBEHXZ" PURGE="0" COMMENT="" />
    <EXPORT ORDINAL="3195" NAME="?IsDisposed@CBCGPBarContainer@@QBEHXZ" PURGE="0" COMMENT="" />
    <EXPORT ORDINAL="3196" NAME="?IsDockBarMenu@CBCGPDockManager@@SAHXZ" PURGE="0" COMMENT="" />
    <EXPORT ORDINAL="3197" NAME="?IsDockStateValid@CBCGPFrameImpl@@IAEHABVCDockState@@@Z" PURGE="4" COMMENT="" />
    <EXPORT ORDINAL="3198" NAME="?IsDockStateValid@CBCGPFrameWnd@@IAEHABVCDockState@@@Z" PURGE="4" COMMENT="" />
    <EXPORT ORDINAL="3199" NAME="?IsDockStateValid@CBCGPMDIFrameWnd@@IAEHABVCDockState@@@Z" PURGE="4" COMMENT="" />
    <EXPORT ORDINAL="3200" NAME="?IsDockStateValid@CBCGPOleDocIPFrameWnd@@IAEHABVCDockState@@@Z" PURGE="4" COMMENT="" />
    <EXPORT ORDINAL="3201" NAME="?IsDockStateValid@CBCGPOleIPFrameWnd@@IAEHABVCDockState@@@Z" PURGE="4" COMMENT="" />
    <EXPORT ORDINAL="3202" NAME="?IsDocked@CBCGPBaseControlBar@@UBEHXZ" PURGE="0" COMMENT="" />
    <EXPORT ORDINAL="3203" NAME="?IsDocked@CBCGPDockingControlBar@@UBEHXZ" PURGE="0" COMMENT="" />
    <EXPORT ORDINAL="3204" NAME="?IsDownloadAvailable@CBCGPSkinManager@@QBEHXZ" PURGE="0" COMMENT="" />
    <EXPORT ORDINAL="3205" NAME="?IsDragButton@CBCGPToolBar@@QBEHPBVCBCGPToolbarButton@@@Z" PURGE="4" COMMENT="" />
    <EXPORT ORDINAL="3206" NAME="?IsDragMode@CBCGPControlBar@@UBEHXZ" PURGE="0" COMMENT="" />
    <EXPORT ORDINAL="3207" NAME="?IsDragMode@CBCGPDockBar@@UBEHXZ" PURGE="0" COMMENT="" />
    <EXPORT ORDINAL="3208" NAME="?IsDrawCaption@CBCGPDockingControlBar@@SAHXZ" PURGE="0" COMMENT="" />
    <EXPORT ORDINAL="3209" NAME="?IsDrawFrame@CBCGPTabWnd@@QBEHXZ" PURGE="0" COMMENT="" />
    <EXPORT ORDINAL="3210" NAME="?IsDrawImage@CBCGPToolbarButton@@QBEHXZ" PURGE="0" COMMENT="" />
    <EXPORT ORDINAL="3211" NAME="?IsDrawNoPrefix@CBCGPBaseTabWnd@@QBEHXZ" PURGE="0" COMMENT="" />
    <EXPORT ORDINAL="3212" NAME="?IsDrawShadedHighlight@CBCGPOutlookBarPane@@QBEHXZ" PURGE="0" COMMENT="" />
    <EXPORT ORDINAL="3213" NAME="?IsDrawText@CBCGPToolbarButton@@QBEHXZ" PURGE="0" COMMENT="" />
    <EXPORT ORDINAL="3214" NAME="?IsDrawXPTheme@CBCGPColorButton@@IBEHXZ" PURGE="0" COMMENT="" />
    <EXPORT ORDINAL="3215" NAME="?IsDropDown@CBCGPDropDownToolbarButton@@QBEHXZ" PURGE="0" COMMENT="" />
    <EXPORT ORDINAL="3216" NAME="?IsDroppedDown@CBCGPToolbarButton@@UBEHXZ" PURGE="0" COMMENT="" />
    <EXPORT ORDINAL="3217" NAME="?IsDroppedDown@CBCGPToolbarMenuButton@@UBEHXZ" PURGE="0" COMMENT="" />
    <EXPORT ORDINAL="3218" NAME="?IsDynamicID@CBCGPTearOffManager@@QBEHI@Z" PURGE="4" COMMENT="" />
    <EXPORT ORDINAL="3219" NAME="?IsEditable@CBCGPToolbarButton@@UBEHXZ" PURGE="0" COMMENT="" />
    <EXPORT ORDINAL="3220" NAME="?IsEmbossDisabledImage@CBCGPVisualManager@@QBEHXZ" PURGE="0" COMMENT="" />
    <EXPORT ORDINAL="3221" NAME="?IsEmpty@CBCGPBarContainerManager@@QBEHXZ" PURGE="0" COMMENT="" />
    <EXPORT ORDINAL="3222" NAME="?IsEmpty@CBCGPDockBarRow@@UBEHXZ" PURGE="0" COMMENT="" />
    <EXPORT ORDINAL="3223" NAME="?IsEmptyMenuAllowed@CBCGPCalendarMenuButton@@MBEHXZ" PURGE="0" COMMENT="" />
    <EXPORT ORDINAL="3224" NAME="?IsEmptyMenuAllowed@CBCGPColorMenuButton@@MBEHXZ" PURGE="0" COMMENT="" />
    <EXPORT ORDINAL="3225" NAME="?IsEmptyMenuAllowed@CBCGPToolbarMenuButton@@UBEHXZ" PURGE="0" COMMENT="" />
    <EXPORT ORDINAL="3226" NAME="?IsEnabled@CBCGPProp@@QBEHXZ" PURGE="0" COMMENT="" />
    <EXPORT ORDINAL="3227" NAME="?IsEnoughSpaceToMove@CBCGPDockBarRow@@AAEHPAVCBCGPControlBar@@_NAAH@Z" PURGE="12" COMMENT="" />
    <EXPORT ORDINAL="3228" NAME="?IsEscapeSequence@CBCGPOutlineParser@@IBEHABV?$CStringT@DV?$StrTraitMFC_DLL@DV?$ChTraitsCRT@D@ATL@@@@@ATL@@AAH@Z" PURGE="8" COMMENT="" />
    <EXPORT ORDINAL="3229" NAME="?IsExclusive@CBCGPToolbarMenuButton@@UBEHXZ" PURGE="0" COMMENT="" />
    <EXPORT ORDINAL="3230" NAME="?IsExclusiveRow@CBCGPDockBarRow@@UBEHXZ" PURGE="0" COMMENT="" />
    <EXPORT ORDINAL="3231" NAME="?IsExistCustomizeButton@CBCGPToolBar@@QAEHXZ" PURGE="0" COMMENT="" />
    <EXPORT ORDINAL="3232" NAME="?IsExpanded@CBCGPProp@@QBEHXZ" PURGE="0" COMMENT="" />
    <EXPORT ORDINAL="3233" NAME="?IsExtraSize@CBCGPDropDownToolbarButton@@UBEHXZ" PURGE="0" COMMENT="" />
    <EXPORT ORDINAL="3234" NAME="?IsExtraSize@CBCGPToolbarButton@@UBEHXZ" PURGE="0" COMMENT="" />
    <EXPORT ORDINAL="3235" NAME="?IsFadeInactiveImage@CBCGPVisualManager@@QBEHXZ" PURGE="0" COMMENT="" />
    <EXPORT ORDINAL="3236" NAME="?IsFlatFrame@CBCGPBaseTabWnd@@UBEHXZ" PURGE="0" COMMENT="" />
    <EXPORT ORDINAL="3237" NAME="?IsFlatFrame@CBCGPTabWnd@@UBEHXZ" PURGE="0" COMMENT="" />
    <EXPORT ORDINAL="3238" NAME="?IsFlatMode@CBCGPToolbarComboBoxButton@@SAHXZ" PURGE="0" COMMENT="" />
    <EXPORT ORDINAL="3239" NAME="?IsFlatMode@CBCGPToolbarEditBoxButton@@SAHXZ" PURGE="0" COMMENT="" />
    <EXPORT ORDINAL="3240" NAME="?IsFlatTab@CBCGPBaseTabWnd@@UBEHXZ" PURGE="0" COMMENT="" />
    <EXPORT ORDINAL="3241" NAME="?IsFlatTab@CBCGPTabWnd@@UBEHXZ" PURGE="0" COMMENT="" />
    <EXPORT ORDINAL="3242" NAME="?IsFloating@CBCGPBaseControlBar@@UBEHXZ" PURGE="0" COMMENT="" />
    <EXPORT ORDINAL="3243" NAME="?IsFloatingMulti@CBCGPBaseControlBar@@UBEHXZ" PURGE="0" COMMENT="" />
    <EXPORT ORDINAL="3244" NAME="?IsFloatingMulti@CBCGPControlBar@@UBEHXZ" PURGE="0" COMMENT="" />
    <EXPORT ORDINAL="3245" NAME="?IsFloatingMulti@CBCGPDockingControlBar@@UBEHXZ" PURGE="0" COMMENT="" />
    <EXPORT ORDINAL="3246" NAME="?IsForwardButtonEnabled@CBCGPTasksPane@@QBEHXZ" PURGE="0" COMMENT="" />
    <EXPORT ORDINAL="3247" NAME="?IsFreqeuntlyUsedCmd@CCmdUsageCount@@QBEHI@Z" PURGE="4" COMMENT="" />
    <EXPORT ORDINAL="3248" NAME="?IsFullScreeen@CBCGPFrameImpl@@IBEHXZ" PURGE="0" COMMENT="" />
    <EXPORT ORDINAL="3249" NAME="?IsFullScreen@CBCGPFrameWnd@@QBEHXZ" PURGE="0" COMMENT="" />
    <EXPORT ORDINAL="3250" NAME="?IsFullScreen@CBCGPFullScreenImpl@@QBEHXZ" PURGE="0" COMMENT="" />
    <EXPORT ORDINAL="3251" NAME="?IsFullScreen@CBCGPMDIFrameWnd@@QBEHXZ" PURGE="0" COMMENT="" />
    <EXPORT ORDINAL="3252" NAME="?IsGradientMarkersEnabled@CBCGPEditCtrl@@QBEHXZ" PURGE="0" COMMENT="" />
    <EXPORT ORDINAL="3253" NAME="?IsGrayDisabledButtons@CBCGPEditListBase@@QBEHXZ" PURGE="0" COMMENT="" />
    <EXPORT ORDINAL="3254" NAME="?IsGroup@CBCGPProp@@QBEHXZ" PURGE="0" COMMENT="" />
    <EXPORT ORDINAL="3255" NAME="?IsGroupCollapseEnabled@CBCGPTasksPane@@QBEHXZ" PURGE="0" COMMENT="" />
    <EXPORT ORDINAL="3256" NAME="?IsGroupNameFullWidth@CBCGPPropList@@QBEHXZ" PURGE="0" COMMENT="" />
    <EXPORT ORDINAL="3257" NAME="?IsHeaderCtrl@CBCGPPropList@@QBEHXZ" PURGE="0" COMMENT="" />
    <EXPORT ORDINAL="3258" NAME="?IsHelpKey@CBCGPFrameImpl@@KAHPAUtagMSG@@@Z" PURGE="0" COMMENT="" />
    <EXPORT ORDINAL="3259" NAME="?IsHidden@CBCGPToolbarButton@@QBEHXZ" PURGE="0" COMMENT="" />
    <EXPORT ORDINAL="3260" NAME="?IsHideDisabledButtons@CBCGPDockingControlBar@@SAHXZ" PURGE="0" COMMENT="" />
    <EXPORT ORDINAL="3261" NAME="?IsHideInAutoHideMode@CBCGPDockingControlBar@@UBEHXZ" PURGE="0" COMMENT="" />
    <EXPORT ORDINAL="3262" NAME="?IsHideSingleTab@CBCGPBaseTabWnd@@UBEHXZ" PURGE="0" COMMENT="" />
    <EXPORT ORDINAL="3263" NAME="?IsHideSingleTab@CBCGPBaseTabbedBar@@UBEHXZ" PURGE="0" COMMENT="" />
    <EXPORT ORDINAL="3264" NAME="?IsHighlight@CBCGPCalendarButton@@UBEHXZ" PURGE="0" COMMENT="" />
    <EXPORT ORDINAL="3265" NAME="?IsHighlightDisabledItems@CBCGPMenuBar@@SAHXZ" PURGE="0" COMMENT="" />
    <EXPORT ORDINAL="3266" NAME="?IsHighlightOneNoteTabs@CBCGPVisualManager2003@@UBEHXZ" PURGE="0" COMMENT="" />
    <EXPORT ORDINAL="3267" NAME="?IsHighlightOneNoteTabs@CBCGPVisualManager@@UBEHXZ" PURGE="0" COMMENT="" />
    <EXPORT ORDINAL="3268" NAME="?IsHighlighted@CBCGPButton@@QBEHXZ" PURGE="0" COMMENT="" />
    <EXPORT ORDINAL="3269" NAME="?IsHilitedText@CBCGPEditCtrl@@IAEHHAAK0@Z" PURGE="12" COMMENT="" />
    <EXPORT ORDINAL="3270" NAME="?IsHistoryMenuButtonsEnabled@CBCGPTasksPane@@QBEHXZ" PURGE="0" COMMENT="" />
    <EXPORT ORDINAL="3271" NAME="?IsHorizontal@CBCGPAutoHideButton@@QBEHXZ" PURGE="0" COMMENT="" />
    <EXPORT ORDINAL="3272" NAME="?IsHorizontal@CBCGPBaseControlBar@@UBEHXZ" PURGE="0" COMMENT="" />
    <EXPORT ORDINAL="3273" NAME="?IsHorizontal@CBCGPDockBarRow@@QBE_NXZ" PURGE="0" COMMENT="" />
    <EXPORT ORDINAL="3274" NAME="?IsHorizontal@CBCGPSlider@@UBEHXZ" PURGE="0" COMMENT="" />
    <EXPORT ORDINAL="3275" NAME="?IsHorizontal@CBCGPToolbarButton@@QBEHXZ" PURGE="0" COMMENT="" />
    <EXPORT ORDINAL="3276" NAME="?IsHyperlinksSupportEnabled@CBCGPEditCtrl@@QBEHXZ" PURGE="0" COMMENT="" />
    <EXPORT ORDINAL="3277" NAME="?IsIdle@CBCGPPopupMenu@@UBEHXZ" PURGE="0" COMMENT="" />
    <EXPORT ORDINAL="3278" NAME="?IsImageSet@CBCGPCaptionBar@@IBE_NXZ" PURGE="0" COMMENT="" />
    <EXPORT ORDINAL="3279" NAME="?IsInAdjustLayout@CBCGPDockManager@@QBEHXZ" PURGE="0" COMMENT="" />
    <EXPORT ORDINAL="3280" NAME="?IsInBlock@CBCGPEditCtrl@@QAEHHDDAAH0@Z" PURGE="20" COMMENT="" />
    <EXPORT ORDINAL="3281" NAME="?IsInPlaceEdit@CBCGPBaseTabWnd@@UBEHXZ" PURGE="0" COMMENT="" />
    <EXPORT ORDINAL="3282" NAME="?IsInPlaceEditing@CBCGPProp@@QBEHXZ" PURGE="0" COMMENT="" />
    <EXPORT ORDINAL="3283" NAME="?IsInRange@CBCGPEditMarker@@UBE?AW4CBCGPEditMarkerRange@@HH@Z" PURGE="8" COMMENT="" />
    <EXPORT ORDINAL="3284" NAME="?IsInRange@CBCGPHiliteMarker@@UBE?AW4CBCGPEditMarkerRange@@HH@Z" PURGE="8" COMMENT="" />
    <EXPORT ORDINAL="3285" NAME="?IsInRange@CBCGPLineColorMarker@@UBE?AW4CBCGPEditMarkerRange@@HH@Z" PURGE="8" COMMENT="" />
    <EXPORT ORDINAL="3286" NAME="?IsInRangeByOffset@CBCGPEditMarker@@UBE?AW4CBCGPEditMarkerRange@@HH@Z" PURGE="8" COMMENT="" />
    <EXPORT ORDINAL="3287" NAME="?IsInRangeByOffset@CBCGPHiliteMarker@@UBE?AW4CBCGPEditMarkerRange@@HH@Z" PURGE="8" COMMENT="" />
    <EXPORT ORDINAL="3288" NAME="?IsInRangeByOffset@CBCGPOutlineBaseNode@@UBE?AW4CBCGPEditMarkerRange@@HH@Z" PURGE="8" COMMENT="" />
    <EXPORT ORDINAL="3289" NAME="?IsIndentEnabled@CBCGPEditCtrl@@UAEHH@Z" PURGE="4" COMMENT="" />
    <EXPORT ORDINAL="3290" NAME="?IsInsideSelection@CBCGPEditCtrl@@IAEHHAAVCPoint@@VCRect@@H@Z" PURGE="28" COMMENT="" />
    <EXPORT ORDINAL="3291" NAME="?IsIntelliSenseEnabled@CBCGPEditCtrl@@QBEHXZ" PURGE="0" COMMENT="" />
    <EXPORT ORDINAL="3292" NAME="?IsKeepClientEdge@CBCGPMainClientAreaWnd@@AAEHXZ" PURGE="0" COMMENT="" />
    <EXPORT ORDINAL="3293" NAME="?IsKeyDefined@CKeyAssign@@QBEHXZ" PURGE="0" COMMENT="" />
    <EXPORT ORDINAL="3294" NAME="?IsKeyHandled@CBCGPKeyboardManager@@SAHGEPAVCFrameWnd@@H@Z" PURGE="0" COMMENT="" />
    <EXPORT ORDINAL="3295" NAME="?IsKeyPrintable@CBCGPKeyboardManager@@SAHI@Z" PURGE="0" COMMENT="" />
    <EXPORT ORDINAL="3296" NAME="?IsLargeIcons@CBCGPToolBar@@SAHXZ" PURGE="0" COMMENT="" />
    <EXPORT ORDINAL="3297" NAME="?IsLastBarOnLastRow@CBCGPControlBar@@QBE_NXZ" PURGE="0" COMMENT="" />
    <EXPORT ORDINAL="3298" NAME="?IsLastCommandFromButton@CBCGPToolBar@@SAHPAVCBCGPToolbarButton@@@Z" PURGE="0" COMMENT="" />
    <EXPORT ORDINAL="3299" NAME="?IsLastRow@CBCGPDockBar@@QBE_NPAVCBCGPDockBarRow@@@Z" PURGE="4" COMMENT="" />
    <EXPORT ORDINAL="3300" NAME="?IsLeftBar@CBCGPBarContainer@@QBEHPAVCBCGPDockingControlBar@@@Z" PURGE="4" COMMENT="" />
    <EXPORT ORDINAL="3301" NAME="?IsLeftContainer@CBCGPBarContainer@@QBEHXZ" PURGE="0" COMMENT="" />
    <EXPORT ORDINAL="3302" NAME="?IsLeftOf@CBCGPControlBar@@QBE_NVCRect@@_N@Z" PURGE="20" COMMENT="" />
    <EXPORT ORDINAL="3303" NAME="?IsLeftPartEmpty@CBCGPBarContainer@@QBEHH@Z" PURGE="4" COMMENT="" />
    <EXPORT ORDINAL="3304" NAME="?IsLineNumbersMarginVisible@CBCGPEditCtrl@@QBEHXZ" PURGE="0" COMMENT="" />
    <EXPORT ORDINAL="3305" NAME="?IsLocked@CBCGPToolBar@@QBEHXZ" PURGE="0" COMMENT="" />
    <EXPORT ORDINAL="3306" NAME="?IsLocked@CBCGPToolbarButton@@QBEHXZ" PURGE="0" COMMENT="" />
    <EXPORT ORDINAL="3307" NAME="?IsLook2000@CBCGPToolBar@@SAHXZ" PURGE="0" COMMENT="" />
    <EXPORT ORDINAL="3308" NAME="?IsLook2000@CBCGPVisualManager@@QBEHXZ" PURGE="0" COMMENT="" />
    <EXPORT ORDINAL="3309" NAME="?IsLook2000Allowed@CBCGPVisualManager@@UBEHXZ" PURGE="0" COMMENT="" />
    <EXPORT ORDINAL="3310" NAME="?IsLook2000Allowed@CBCGPVisualManagerXP@@MBEHXZ" PURGE="0" COMMENT="" />
    <EXPORT ORDINAL="3311" NAME="?IsMDITab@CBCGPBaseTabWnd@@QBEHXZ" PURGE="0" COMMENT="" />
    <EXPORT ORDINAL="3312" NAME="?IsMDITabGroup@CBCGPTabWnd@@UBEHXZ" PURGE="0" COMMENT="" />
    <EXPORT ORDINAL="3313" NAME="?IsMDITabbedGroup@CBCGPMDIFrameWnd@@QBEHXZ" PURGE="0" COMMENT="" />
    <EXPORT ORDINAL="3314" NAME="?IsMDITabbedGroup@CBCGPMainClientAreaWnd@@QBEHXZ" PURGE="0" COMMENT="" />
    <EXPORT ORDINAL="3315" NAME="?IsMaskedChar@CBCGPMaskEdit@@MBEHDD@Z" PURGE="8" COMMENT="" />
    <EXPORT ORDINAL="3316" NAME="?IsMemDC@CBCGPMemDC@@QBEHXZ" PURGE="0" COMMENT="" />
    <EXPORT ORDINAL="3317" NAME="?IsMemberOfMDITabGroup@CBCGPMDIFrameWnd@@QAEHPAVCWnd@@@Z" PURGE="4" COMMENT="" />
    <EXPORT ORDINAL="3318" NAME="?IsMemberOfMDITabGroup@CBCGPMainClientAreaWnd@@QAEHPAVCWnd@@@Z" PURGE="4" COMMENT="" />
    <EXPORT ORDINAL="3319" NAME="?IsMenuBarAvailable@CBCGPFrameWnd@@QBEHXZ" PURGE="0" COMMENT="" />
    <EXPORT ORDINAL="3320" NAME="?IsMenuBarAvailable@CBCGPMDIFrameWnd@@QBEHXZ" PURGE="0" COMMENT="" />
    <EXPORT ORDINAL="3321" NAME="?IsMenuBarAvailable@CBCGPOleDocIPFrameWnd@@QBEHXZ" PURGE="0" COMMENT="" />
    <EXPORT ORDINAL="3322" NAME="?IsMenuBarAvailable@CBCGPOleIPFrameWnd@@QBEHXZ" PURGE="0" COMMENT="" />
    <EXPORT ORDINAL="3323" NAME="?IsMenuFlatLook@CBCGPVisualManager@@QBEHXZ" PURGE="0" COMMENT="" />
    <EXPORT ORDINAL="3324" NAME="?IsMenuItemWithoutImage@CBCGPCommandManager@@QBEHI@Z" PURGE="4" COMMENT="" />
    <EXPORT ORDINAL="3325" NAME="?IsMenuPaletteMode@CBCGPToolbarMenuButton@@QBEHXZ" PURGE="0" COMMENT="" />
    <EXPORT ORDINAL="3326" NAME="?IsMenuShadows@CBCGPMenuBar@@SAHXZ" PURGE="0" COMMENT="" />
    <EXPORT ORDINAL="3327" NAME="?IsMenuSound@CBCGPPopupMenu@@SAIXZ" PURGE="0" COMMENT="" />
    <EXPORT ORDINAL="3328" NAME="?IsMode2003@CBCGPOutlookBar@@QBEHXZ" PURGE="0" COMMENT="" />
    <EXPORT ORDINAL="3329" NAME="?IsMode2003@CBCGPOutlookWnd@@QBEHXZ" PURGE="0" COMMENT="" />
    <EXPORT ORDINAL="3330" NAME="?IsModified@CBCGPEditCtrl@@UBEHXZ" PURGE="0" COMMENT="" />
    <EXPORT ORDINAL="3331" NAME="?IsMultipleSort@CBCGPHeaderCtrl@@QBEHXZ" PURGE="0" COMMENT="" />
    <EXPORT ORDINAL="3332" NAME="?IsMultipleSort@CBCGPListCtrl@@QBEHXZ" PURGE="0" COMMENT="" />
    <EXPORT ORDINAL="3333" NAME="?IsNavigationToolbarEnabled@CBCGPTasksPane@@QBEHXZ" PURGE="0" COMMENT="" />
    <EXPORT ORDINAL="3334" NAME="?IsOLEContainerMode@CBCGPDockManager@@QBEHXZ" PURGE="0" COMMENT="" />
    <EXPORT ORDINAL="3335" NAME="?IsOfficeStyleMenus@CBCGPWinXPVisualManager@@QBEHXZ" PURGE="0" COMMENT="" />
    <EXPORT ORDINAL="3336" NAME="?IsOfficeXPStyleMenus@CBCGPVisualManager@@UBEHXZ" PURGE="0" COMMENT="" />
    <EXPORT ORDINAL="3337" NAME="?IsOfficeXPStyleMenus@CBCGPWinXPVisualManager@@UBEHXZ" PURGE="0" COMMENT="" />
    <EXPORT ORDINAL="3338" NAME="?IsOffsetAtColorBlock@CBCGPEditCtrl@@IAEHH@Z" PURGE="4" COMMENT="" />
    <EXPORT ORDINAL="3339" NAME="?IsOffsetPressedButton@CBCGPVisualManager2003@@UBEHXZ" PURGE="0" COMMENT="" />
    <EXPORT ORDINAL="3340" NAME="?IsOffsetPressedButton@CBCGPVisualManager@@UBEHXZ" PURGE="0" COMMENT="" />
    <EXPORT ORDINAL="3341" NAME="?IsOneNoteStyle@CBCGPBaseTabWnd@@UBEHXZ" PURGE="0" COMMENT="" />
    <EXPORT ORDINAL="3342" NAME="?IsOneNoteStyle@CBCGPTabWnd@@UBEHXZ" PURGE="0" COMMENT="" />
    <EXPORT ORDINAL="3343" NAME="?IsOneRowWithBrother@CBCGPToolBar@@QAEHXZ" PURGE="0" COMMENT="" />
    <EXPORT ORDINAL="3344" NAME="?IsOutlineMarginVisible@CBCGPEditCtrl@@QBEHXZ" PURGE="0" COMMENT="" />
    <EXPORT ORDINAL="3345" NAME="?IsOutliningEnabled@CBCGPEditCtrl@@QBEHXZ" PURGE="0" COMMENT="" />
    <EXPORT ORDINAL="3346" NAME="?IsOwnerOf@CBCGPToolbarButton@@UAEHPAUHWND__@@@Z" PURGE="4" COMMENT="" />
    <EXPORT ORDINAL="3347" NAME="?IsOwnerOf@CBCGPToolbarComboBoxButton@@UAEHPAUHWND__@@@Z" PURGE="4" COMMENT="" />
    <EXPORT ORDINAL="3348" NAME="?IsPaletteMode@CBCGPPopupMenuBar@@QBEHXZ" PURGE="0" COMMENT="" />
    <EXPORT ORDINAL="3349" NAME="?IsParentExpanded@CBCGPProp@@QBEHXZ" PURGE="0" COMMENT="" />
    <EXPORT ORDINAL="3350" NAME="?IsPasteEnabled@CBCGPEditCtrl@@UBEHXZ" PURGE="0" COMMENT="" />
    <EXPORT ORDINAL="3351" NAME="?IsPointInSelectionRect@CBCGPEditCtrl@@QAEHVCPoint@@@Z" PURGE="8" COMMENT="" />
    <EXPORT ORDINAL="3352" NAME="?IsPointNearDockBar@CBCGPBaseControlBar@@QBEHVCPoint@@AAKAAH@Z" PURGE="16" COMMENT="" />
    <EXPORT ORDINAL="3353" NAME="?IsPointNearDockBar@CBCGPDockManager@@QBEHVCPoint@@AAKAAH@Z" PURGE="16" COMMENT="" />
    <EXPORT ORDINAL="3354" NAME="?IsPointNearDockBar@CBCGPFrameWnd@@QBEHVCPoint@@AAKAAH@Z" PURGE="16" COMMENT="" />
    <EXPORT ORDINAL="3355" NAME="?IsPointNearDockBar@CBCGPMDIChildWnd@@QBEHVCPoint@@AAKAAH@Z" PURGE="16" COMMENT="" />
    <EXPORT ORDINAL="3356" NAME="?IsPointNearDockBar@CBCGPMDIFrameWnd@@QBEHVCPoint@@AAKAAH@Z" PURGE="16" COMMENT="" />
    <EXPORT ORDINAL="3357" NAME="?IsPointNearDockBar@CBCGPOleCntrFrameWnd@@QBEHVCPoint@@AAKAAH@Z" PURGE="16" COMMENT="" />
    <EXPORT ORDINAL="3358" NAME="?IsPointNearDockBar@CBCGPOleDocIPFrameWnd@@QBEHVCPoint@@AAKAAH@Z" PURGE="16" COMMENT="" />
    <EXPORT ORDINAL="3359" NAME="?IsPointNearDockBar@CBCGPOleIPFrameWnd@@QBEHVCPoint@@AAKAAH@Z" PURGE="16" COMMENT="" />
    <EXPORT ORDINAL="3360" NAME="?IsPointWithin@CBCGPHotSpot@@UBEHVCPoint@@@Z" PURGE="8" COMMENT="" />
    <EXPORT ORDINAL="3361" NAME="?IsPressed@CBCGPButton@@QBEHXZ" PURGE="0" COMMENT="" />
    <EXPORT ORDINAL="3362" NAME="?IsPrintPreviewValid@CBCGPDockManager@@QBEHXZ" PURGE="0" COMMENT="" />
    <EXPORT ORDINAL="3363" NAME="?IsProcessFirstClick@CBCGPProp@@MBEHXZ" PURGE="0" COMMENT="" />
    <EXPORT ORDINAL="3364" NAME="?IsPtInTabArea@CBCGPOutlookWnd@@UBEHVCPoint@@@Z" PURGE="8" COMMENT="" />
    <EXPORT ORDINAL="3365" NAME="?IsPtInTabArea@CBCGPTabWnd@@UBEHVCPoint@@@Z" PURGE="8" COMMENT="" />
    <EXPORT ORDINAL="3366" NAME="?IsPureMenuButton@CBCGPMenuBar@@MBEHPAVCBCGPToolbarButton@@@Z" PURGE="4" COMMENT="" />
    <EXPORT ORDINAL="3367" NAME="?IsPureMenuButton@CBCGPToolBar@@MBEHPAVCBCGPToolbarButton@@@Z" PURGE="4" COMMENT="" />
    <EXPORT ORDINAL="3368" NAME="?IsPushed@CBCGPButton@@QBEHXZ" PURGE="0" COMMENT="" />
    <EXPORT ORDINAL="3369" NAME="?IsQuickCustomize@CBCGPPopupMenu@@QAEHXZ" PURGE="0" COMMENT="" />
    <EXPORT ORDINAL="3370" NAME="?IsQuickMode@CBCGPToolbarMenuButton@@QAEHXZ" PURGE="0" COMMENT="" />
    <EXPORT ORDINAL="3371" NAME="?IsRTL@CBCGPToolBarImages@@SAHXZ" PURGE="0" COMMENT="" />
    <EXPORT ORDINAL="3372" NAME="?IsRadioButton@CBCGPButton@@QBEHXZ" PURGE="0" COMMENT="" />
    <EXPORT ORDINAL="3373" NAME="?IsReadOnly@CBCGPEditCtrl@@QBEHXZ" PURGE="0" COMMENT="" />
    <EXPORT ORDINAL="3374" NAME="?IsReadOnly@CBCGPMDIChildWnd@@UAEHXZ" PURGE="0" COMMENT="" />
    <EXPORT ORDINAL="3375" NAME="?IsReadOnly@CBCGPToolBarImages@@QBEHXZ" PURGE="0" COMMENT="" />
    <EXPORT ORDINAL="3376" NAME="?IsRecentlyUsedMenus@CBCGPMenuBar@@SAHXZ" PURGE="0" COMMENT="" />
    <EXPORT ORDINAL="3377" NAME="?IsRectWithinDockBar@CBCGPDockBar@@QAEHVCRect@@AAVCPoint@@@Z" PURGE="20" COMMENT="" />
    <EXPORT ORDINAL="3378" NAME="?IsResizable@CBCGPBaseControlBar@@UBEHXZ" PURGE="0" COMMENT="" />
    <EXPORT ORDINAL="3379" NAME="?IsResizable@CBCGPControlBar@@UBEHXZ" PURGE="0" COMMENT="" />
    <EXPORT ORDINAL="3380" NAME="?IsResizable@CBCGPDockBar@@UBEHXZ" PURGE="0" COMMENT="" />
    <EXPORT ORDINAL="3381" NAME="?IsResizable@CBCGPDockingControlBar@@UBEHXZ" PURGE="0" COMMENT="" />
    <EXPORT ORDINAL="3382" NAME="?IsResourceChanged@CBCGPToolBar@@UBEHXZ" PURGE="0" COMMENT="" />
    <EXPORT ORDINAL="3383" NAME="?IsResourceSmartUpdate@CBCGPWorkspace@@QBEHXZ" PURGE="0" COMMENT="" />
    <EXPORT ORDINAL="3384" NAME="?IsRestoredFromRegistry@CBCGPBaseControlBar@@UBEHXZ" PURGE="0" COMMENT="" />
    <EXPORT ORDINAL="3385" NAME="?IsRightAlign@CBCGPPopupMenu@@QBEHXZ" PURGE="0" COMMENT="" />
    <EXPORT ORDINAL="3386" NAME="?IsRightPartEmpty@CBCGPBarContainer@@QBEHH@Z" PURGE="4" COMMENT="" />
    <EXPORT ORDINAL="3387" NAME="?IsRollDown@CBCGPMiniFrameWnd@@UBEHXZ" PURGE="0" COMMENT="" />
    <EXPORT ORDINAL="3388" NAME="?IsRollUp@CBCGPMiniFrameWnd@@UBEHXZ" PURGE="0" COMMENT="" />
    <EXPORT ORDINAL="3389" NAME="?IsRootContainerVisible@CBCGPBarContainerManager@@UBEHXZ" PURGE="0" COMMENT="" />
    <EXPORT ORDINAL="3390" NAME="?IsRunning@CBCGPAnimCtrl@@QBEHXZ" PURGE="0" COMMENT="" />
    <EXPORT ORDINAL="3391" NAME="?IsScrollBar@CBCGPTabView@@MBEHXZ" PURGE="0" COMMENT="" />
    <EXPORT ORDINAL="3392" NAME="?IsScrollDnAvailable@CBCGPPopupMenu@@IAEHXZ" PURGE="0" COMMENT="" />
    <EXPORT ORDINAL="3393" NAME="?IsScrollDnAvailable@CBCGPTasksPane@@IAEHXZ" PURGE="0" COMMENT="" />
    <EXPORT ORDINAL="3394" NAME="?IsScrollUpAvailable@CBCGPPopupMenu@@IAEHXZ" PURGE="0" COMMENT="" />
    <EXPORT ORDINAL="3395" NAME="?IsScrollUpAvailable@CBCGPTasksPane@@IAEHXZ" PURGE="0" COMMENT="" />
    <EXPORT ORDINAL="3396" NAME="?IsScrollable@CBCGPPopupMenu@@QBEHXZ" PURGE="0" COMMENT="" />
    <EXPORT ORDINAL="3397" NAME="?IsSelected@CBCGPCalendarButton@@MBEHXZ" PURGE="0" COMMENT="" />
    <EXPORT ORDINAL="3398" NAME="?IsSelected@CBCGPProp@@QBEHXZ" PURGE="0" COMMENT="" />
    <EXPORT ORDINAL="3399" NAME="?IsSendMenuSelectMsg@CBCGPPopupMenu@@SAHXZ" PURGE="0" COMMENT="" />
    <EXPORT ORDINAL="3400" NAME="?IsShadowHighlightedImage@CBCGPVisualManager@@QBEHXZ" PURGE="0" COMMENT="" />
    <EXPORT ORDINAL="3401" NAME="?IsSharedScroll@CBCGPTabWnd@@QBEHXZ" PURGE="0" COMMENT="" />
    <EXPORT ORDINAL="3402" NAME="?IsShowAllAccelerators@CBCGPKeyboardManager@@SAHXZ" PURGE="0" COMMENT="" />
    <EXPORT ORDINAL="3403" NAME="?IsShowAllCommands@CBCGPMenuBar@@SAHXZ" PURGE="0" COMMENT="" />
    <EXPORT ORDINAL="3404" NAME="?IsShowAllCommandsDelay@CBCGPMenuBar@@SAHXZ" PURGE="0" COMMENT="" />
    <EXPORT ORDINAL="3405" NAME="?IsShowDragContext@CBCGPPropList@@QBEHXZ" PURGE="0" COMMENT="" />
    <EXPORT ORDINAL="3406" NAME="?IsShowTooltips@CBCGPCalendarBar@@QBEHXZ" PURGE="0" COMMENT="" />
    <EXPORT ORDINAL="3407" NAME="?IsShown@CBCGPPopupMenu@@QBEHXZ" PURGE="0" COMMENT="" />
    <EXPORT ORDINAL="3408" NAME="?IsSliderHorz@CBCGPBarContainer@@IBEHXZ" PURGE="0" COMMENT="" />
    <EXPORT ORDINAL="3409" NAME="?IsStateExists@CBCGPWorkspace@@QAEHPBD@Z" PURGE="4" COMMENT="" />
    <EXPORT ORDINAL="3410" NAME="?IsStatusBarOfficeXPLook@CBCGPVisualManager2003@@SAHXZ" PURGE="0" COMMENT="" />
    <EXPORT ORDINAL="3411" NAME="?IsStringHasBlockSymbols@CBCGPEditCtrl@@IAEHABV?$CStringT@DV?$StrTraitMFC_DLL@DV?$ChTraitsCRT@D@ATL@@@@@ATL@@@Z" PURGE="4" COMMENT="" />
    <EXPORT ORDINAL="3412" NAME="?IsSubItem@CBCGPProp@@IBEHPAV1@@Z" PURGE="4" COMMENT="" />
    <EXPORT ORDINAL="3413" NAME="?IsTabDetachable@CBCGPBaseTabWnd@@UBEHH@Z" PURGE="4" COMMENT="" />
    <EXPORT ORDINAL="3414" NAME="?IsTabDetachable@CBCGPOutlookWnd@@UBEHH@Z" PURGE="4" COMMENT="" />
    <EXPORT ORDINAL="3415" NAME="?IsTabDocumentsMenu@CBCGPTabWnd@@QBEHXZ" PURGE="0" COMMENT="" />
    <EXPORT ORDINAL="3416" NAME="?IsTabIconOnly@CBCGPBaseTabWnd@@UBEHH@Z" PURGE="4" COMMENT="" />
    <EXPORT ORDINAL="3417" NAME="?IsTabLocationBottom@CBCGPDockingControlBar@@UBEHXZ" PURGE="0" COMMENT="" />
    <EXPORT ORDINAL="3418" NAME="?IsTabLocationBottom@CBCGPTabbedControlBar@@UBEHXZ" PURGE="0" COMMENT="" />
    <EXPORT ORDINAL="3419" NAME="?IsTabSwapEnabled@CBCGPBaseTabWnd@@QBEHXZ" PURGE="0" COMMENT="" />
    <EXPORT ORDINAL="3420" NAME="?IsTabVisible@CBCGPBaseTabWnd@@UBEHH@Z" PURGE="4" COMMENT="" />
    <EXPORT ORDINAL="3421" NAME="?IsTabbed@CBCGPBaseControlBar@@UBEHXZ" PURGE="0" COMMENT="" />
    <EXPORT ORDINAL="3422" NAME="?IsTabbed@CBCGPControlBar@@UBEHXZ" PURGE="0" COMMENT="" />
    <EXPORT ORDINAL="3423" NAME="?IsTearOff@CBCGPCalendarBar@@QBEHXZ" PURGE="0" COMMENT="" />
    <EXPORT ORDINAL="3424" NAME="?IsTearOff@CBCGPColorBar@@QBEHXZ" PURGE="0" COMMENT="" />
    <EXPORT ORDINAL="3425" NAME="?IsTearOffMenu@CBCGPToolbarMenuButton@@UBEHXZ" PURGE="0" COMMENT="" />
    <EXPORT ORDINAL="3426" NAME="?IsTimePart@CBCGPDateTimeCtrl@@IBEHH@Z" PURGE="4" COMMENT="" />
    <EXPORT ORDINAL="3427" NAME="?IsToolBox@CBCGPTasksPane@@UBEHXZ" PURGE="0" COMMENT="" />
    <EXPORT ORDINAL="3428" NAME="?IsToolBox@CBCGPToolBoxEx@@UBEHXZ" PURGE="0" COMMENT="" />
    <EXPORT ORDINAL="3429" NAME="?IsToolbarButtonFillEnabled@CBCGPVisualManager@@QBEHXZ" PURGE="0" COMMENT="" />
    <EXPORT ORDINAL="3430" NAME="?IsTooltipTopmost@CBCGPBaseControlBar@@SAHXZ" PURGE="0" COMMENT="" />
    <EXPORT ORDINAL="3431" NAME="?IsTop@CBCGPAutoHideButton@@QBEHXZ" PURGE="0" COMMENT="" />
    <EXPORT ORDINAL="3432" NAME="?IsTracked@CBCGPDockingControlBar@@QBEHXZ" PURGE="0" COMMENT="" />
    <EXPORT ORDINAL="3433" NAME="?IsUseGlobalTheme@CBCGPVisualManager2003@@SAHXZ" PURGE="0" COMMENT="" />
    <EXPORT ORDINAL="3434" NAME="?IsUserDefined@CBCGPToolBar@@QBEHXZ" PURGE="0" COMMENT="" />
    <EXPORT ORDINAL="3435" NAME="?IsUserDefinedToolbar@CBCGPFrameImpl@@IBEHPBVCBCGPToolBar@@@Z" PURGE="4" COMMENT="" />
    <EXPORT ORDINAL="3436" NAME="?IsUserImagesList@CBCGPToolBarImages@@QBEHXZ" PURGE="0" COMMENT="" />
    <EXPORT ORDINAL="3437" NAME="?IsUserToolCmd@CBCGPUserToolsManager@@QBEHI@Z" PURGE="4" COMMENT="" />
    <EXPORT ORDINAL="3438" NAME="?IsVS2005Style@CBCGPBaseTabWnd@@UBEHXZ" PURGE="0" COMMENT="" />
    <EXPORT ORDINAL="3439" NAME="?IsVS2005Style@CBCGPTabWnd@@UBEHXZ" PURGE="0" COMMENT="" />
    <EXPORT ORDINAL="3440" NAME="?IsVSDotNetLook@CBCGPPropList@@QBEHXZ" PURGE="0" COMMENT="" />
    <EXPORT ORDINAL="3441" NAME="?IsValid@CBCGPToolBarImages@@QBEHXZ" PURGE="0" COMMENT="" />
    <EXPORT ORDINAL="3442" NAME="?IsValuedChar@CBCGPOutlineParser@@QBEHD@Z" PURGE="4" COMMENT="" />
    <EXPORT ORDINAL="3443" NAME="?IsVisible@CBCGPAutoHideButton@@UBEHXZ" PURGE="0" COMMENT="" />
    <EXPORT ORDINAL="3444" NAME="?IsVisible@CBCGPBaseControlBar@@UBEHXZ" PURGE="0" COMMENT="" />
    <EXPORT ORDINAL="3445" NAME="?IsVisible@CBCGPDockBarRow@@UBEHXZ" PURGE="0" COMMENT="" />
    <EXPORT ORDINAL="3446" NAME="?IsVisible@CBCGPDockingControlBar@@UBEHXZ" PURGE="0" COMMENT="" />
    <EXPORT ORDINAL="3447" NAME="?IsVisible@CBCGPToolbarButton@@QBEHXZ" PURGE="0" COMMENT="" />
    <EXPORT ORDINAL="3448" NAME="?IsWinXPThemeAvailible@CBCGPWinXPVisualManager@@SAHXZ" PURGE="0" COMMENT="" />
    <EXPORT ORDINAL="3449" NAME="?IsWinXPThemeEnabled@CBCGPButton@@SAHXZ" PURGE="0" COMMENT="" />
    <EXPORT ORDINAL="3450" NAME="?IsWinXPThemeSupported@CBCGPVisualManager2003@@UBEHXZ" PURGE="0" COMMENT="" />
    <EXPORT ORDINAL="3451" NAME="?IsWinXPThemeSupported@CBCGPVisualManager@@UBEHXZ" PURGE="0" COMMENT="" />
    <EXPORT ORDINAL="3452" NAME="?IsWinXPThemeSupported@CBCGPWinXPVisualManager@@UBEHXZ" PURGE="0" COMMENT="" />
    <EXPORT ORDINAL="3453" NAME="?IsWindowVisible@CBCGPToolbarButton@@UAEHXZ" PURGE="0" COMMENT="" />
    <EXPORT ORDINAL="3454" NAME="?IsWindowVisible@CBCGPToolbarComboBoxButton@@UAEHXZ" PURGE="0" COMMENT="" />
    <EXPORT ORDINAL="3455" NAME="?IsWindowsLayerSupportAvailable@GLOBAL_DATA@@QBEHXZ" PURGE="0" COMMENT="" />
    <EXPORT ORDINAL="3456" NAME="?IsWndCanFloatMulti@CBCGPGlobalUtils@@QBEHPAVCWnd@@@Z" PURGE="4" COMMENT="" />
    <EXPORT ORDINAL="3457" NAME="?IsWrapLabelsEnabled@CBCGPTasksPane@@QBEHXZ" PURGE="0" COMMENT="" />
    <EXPORT ORDINAL="3458" NAME="?IsWrapTasksEnabled@CBCGPTasksPane@@QBEHXZ" PURGE="0" COMMENT="" />
    <EXPORT ORDINAL="3459" NAME="?ItemFromPath@CBCGPShellManager@@QAEJPBDAAPAU_ITEMIDLIST@@@Z" PURGE="8" COMMENT="" />
    <EXPORT ORDINAL="3460" NAME="?KillDockTimer@CBCGPMiniFrameWnd@@QAEXXZ" PURGE="0" COMMENT="" />
    <EXPORT ORDINAL="3461" NAME="?KillRollupTimer@CBCGPMiniFrameWnd@@IAEXXZ" PURGE="0" COMMENT="" />
    <EXPORT ORDINAL="3462" NAME="?Left@CBCGPEditCtrl@@UAEHH@Z" PURGE="4" COMMENT="" />
    <EXPORT ORDINAL="3463" NAME="?LineFromChar@CBCGPEditCtrl@@QBEHH@Z" PURGE="4" COMMENT="" />
    <EXPORT ORDINAL="3464" NAME="?LineIndex@CBCGPEditCtrl@@QBEHH@Z" PURGE="4" COMMENT="" />
    <EXPORT ORDINAL="3465" NAME="?LineLength@CBCGPEditCtrl@@QBEHH@Z" PURGE="4" COMMENT="" />
    <EXPORT ORDINAL="3466" NAME="?LineScroll@CBCGPEditCtrl@@QAEXHH@Z" PURGE="8" COMMENT="" />
    <EXPORT ORDINAL="3467" NAME="?Load@CBCGPToolBarImages@@QAEHIPAUHINSTANCE__@@H@Z" PURGE="12" COMMENT="" />
    <EXPORT ORDINAL="3468" NAME="?Load@CBCGPToolBarImages@@QAEHPBD@Z" PURGE="4" COMMENT="" />
    <EXPORT ORDINAL="3469" NAME="?LoadAccelaratorState@CBCGPKeyboardManager@@IAEHPBDIAAPAUHACCEL__@@@Z" PURGE="12" COMMENT="" />
    <EXPORT ORDINAL="3470" NAME="?LoadAllSkins@CBCGPSkinManager@@MAEXXZ" PURGE="0" COMMENT="" />
    <EXPORT ORDINAL="3471" NAME="?LoadBitmapA@CBCGPDropDownToolBar@@UAEHIIIHII@Z" PURGE="24" COMMENT="" />
    <EXPORT ORDINAL="3472" NAME="?LoadBitmapA@CBCGPToolBar@@UAEHIIIHII@Z" PURGE="24" COMMENT="" />
    <EXPORT ORDINAL="3473" NAME="?LoadBitmapEx@CBCGPToolBar@@UAEHAAVCBCGPToolBarParams@@H@Z" PURGE="8" COMMENT="" />
    <EXPORT ORDINAL="3474" NAME="?LoadCustomState@CBCGPWorkspace@@MAEXXZ" PURGE="0" COMMENT="" />
    <EXPORT ORDINAL="3475" NAME="?LoadDefaultIcon@CBCGPUserTool@@MAEPAUHICON__@@XZ" PURGE="0" COMMENT="" />
    <EXPORT ORDINAL="3476" NAME="?LoadDockState@CBCGPFrameImpl@@IAEXPBD@Z" PURGE="4" COMMENT="" />
    <EXPORT ORDINAL="3477" NAME="?LoadFrame@CBCGPFrameWnd@@UAEHIKPAVCWnd@@PAUCCreateContext@@@Z" PURGE="16" COMMENT="" />
    <EXPORT ORDINAL="3478" NAME="?LoadFrame@CBCGPMDIFrameWnd@@UAEHIKPAVCWnd@@PAUCCreateContext@@@Z" PURGE="16" COMMENT="" />
    <EXPORT ORDINAL="3479" NAME="?LoadFrame@CBCGPOleDocIPFrameWnd@@UAEHIKPAVCWnd@@PAUCCreateContext@@@Z" PURGE="16" COMMENT="" />
    <EXPORT ORDINAL="3480" NAME="?LoadFrame@CBCGPOleIPFrameWnd@@UAEHIKPAVCWnd@@PAUCCreateContext@@@Z" PURGE="16" COMMENT="" />
    <EXPORT ORDINAL="3481" NAME="?LoadFromHash@CBCGPPopupMenuBar@@QAEHPAUHMENU__@@@Z" PURGE="4" COMMENT="" />
    <EXPORT ORDINAL="3482" NAME="?LoadHyperlinkXMLSettings@CBCGPEditCtrl@@UAEHAAV?$CStringT@DV?$StrTraitMFC_DLL@DV?$ChTraitsCRT@D@ATL@@@@@ATL@@@Z" PURGE="4" COMMENT="" />
    <EXPORT ORDINAL="3483" NAME="?LoadLargeIconsState@CBCGPFrameImpl@@IAEHXZ" PURGE="0" COMMENT="" />
    <EXPORT ORDINAL="3484" NAME="?LoadLargeIconsState@CBCGPToolBar@@SAHPBD@Z" PURGE="0" COMMENT="" />
    <EXPORT ORDINAL="3485" NAME="?LoadLastOriginalState@CBCGPToolBar@@MAEHAAVCBCGPRegistry@@@Z" PURGE="4" COMMENT="" />
    <EXPORT ORDINAL="3486" NAME="?LoadMDIState@CBCGPMDIFrameWnd@@UAEHPBD@Z" PURGE="4" COMMENT="" />
    <EXPORT ORDINAL="3487" NAME="?LoadOutlineParserXMLSettings@CBCGPEditCtrl@@UAEHAAV?$CStringT@DV?$StrTraitMFC_DLL@DV?$ChTraitsCRT@D@ATL@@@@@ATL@@@Z" PURGE="4" COMMENT="" />
    <EXPORT ORDINAL="3488" NAME="?LoadParameters@CBCGPToolBar@@SAHPBD@Z" PURGE="0" COMMENT="" />
    <EXPORT ORDINAL="3489" NAME="?LoadRebarStateProc@CBCGPRebarState@@CGHPAUHWND__@@J@Z" PURGE="8" COMMENT="" />
    <EXPORT ORDINAL="3490" NAME="?LoadResetOriginalState@CBCGPToolBar@@IAEHAAVCBCGPRegistry@@@Z" PURGE="4" COMMENT="" />
    <EXPORT ORDINAL="3491" NAME="?LoadSiblingBarIDs@CBCGPBaseTabbedBar@@SAXAAVCArchive@@AAV?$CList@II@@@Z" PURGE="0" COMMENT="" />
    <EXPORT ORDINAL="3492" NAME="?LoadState@CBCGPAppBarWnd@@UAEHPBDH@Z" PURGE="8" COMMENT="" />
    <EXPORT ORDINAL="3493" NAME="?LoadState@CBCGPBaseControlBar@@UAEHPBDHI@Z" PURGE="12" COMMENT="" />
    <EXPORT ORDINAL="3494" NAME="?LoadState@CBCGPBaseTabbedBar@@MAEHPBDHI@Z" PURGE="12" COMMENT="" />
    <EXPORT ORDINAL="3495" NAME="?LoadState@CBCGPCommandManager@@QAEHPBD@Z" PURGE="4" COMMENT="" />
    <EXPORT ORDINAL="3496" NAME="?LoadState@CBCGPContextMenuManager@@UAEHPBD@Z" PURGE="4" COMMENT="" />
    <EXPORT ORDINAL="3497" NAME="?LoadState@CBCGPControlBar@@UAEHPBDHI@Z" PURGE="12" COMMENT="" />
    <EXPORT ORDINAL="3498" NAME="?LoadState@CBCGPDockManager@@UAEHPBDI@Z" PURGE="8" COMMENT="" />
    <EXPORT ORDINAL="3499" NAME="?LoadState@CBCGPDockingCBWrapper@@UAEHPBDHI@Z" PURGE="12" COMMENT="" />
    <EXPORT ORDINAL="3500" NAME="?LoadState@CBCGPDockingControlBar@@UAEHPBDHI@Z" PURGE="12" COMMENT="" />
    <EXPORT ORDINAL="3501" NAME="?LoadState@CBCGPKeyboardManager@@QAEHPBDPAVCFrameWnd@@@Z" PURGE="8" COMMENT="" />
    <EXPORT ORDINAL="3502" NAME="?LoadState@CBCGPMainClientAreaWnd@@QAEHPBDI@Z" PURGE="8" COMMENT="" />
    <EXPORT ORDINAL="3503" NAME="?LoadState@CBCGPMenuBar@@UAEHPBDHI@Z" PURGE="12" COMMENT="" />
    <EXPORT ORDINAL="3504" NAME="?LoadState@CBCGPMiniFrameWnd@@UAEHPBDI@Z" PURGE="8" COMMENT="" />
    <EXPORT ORDINAL="3505" NAME="?LoadState@CBCGPMouseManager@@QAEHPBD@Z" PURGE="4" COMMENT="" />
    <EXPORT ORDINAL="3506" NAME="?LoadState@CBCGPMultiMiniFrameWnd@@UAEHPBDI@Z" PURGE="8" COMMENT="" />
    <EXPORT ORDINAL="3507" NAME="?LoadState@CBCGPOutlookBar@@UAEHPBDHI@Z" PURGE="12" COMMENT="" />
    <EXPORT ORDINAL="3508" NAME="?LoadState@CBCGPRebarState@@SAXAAV?$CStringT@DV?$StrTraitMFC_DLL@DV?$ChTraitsCRT@D@ATL@@@@@ATL@@PAVCFrameWnd@@@Z" PURGE="0" COMMENT="" />
    <EXPORT ORDINAL="3509" NAME="?LoadState@CBCGPSkinManager@@QAEHPBD@Z" PURGE="4" COMMENT="" />
    <EXPORT ORDINAL="3510" NAME="?LoadState@CBCGPTasksPane@@UAEHPBDHI@Z" PURGE="12" COMMENT="" />
    <EXPORT ORDINAL="3511" NAME="?LoadState@CBCGPToolBar@@UAEHPBDHI@Z" PURGE="12" COMMENT="" />
    <EXPORT ORDINAL="3512" NAME="?LoadState@CBCGPUserToolsManager@@QAEHPBD@Z" PURGE="4" COMMENT="" />
    <EXPORT ORDINAL="3513" NAME="?LoadState@CBCGPWorkspace@@QAEHPAVCBCGPFrameWnd@@PBD@Z" PURGE="8" COMMENT="" />
    <EXPORT ORDINAL="3514" NAME="?LoadState@CBCGPWorkspace@@QAEHPAVCBCGPMDIFrameWnd@@PBD@Z" PURGE="8" COMMENT="" />
    <EXPORT ORDINAL="3515" NAME="?LoadState@CBCGPWorkspace@@QAEHPAVCBCGPOleIPFrameWnd@@PBD@Z" PURGE="8" COMMENT="" />
    <EXPORT ORDINAL="3516" NAME="?LoadState@CBCGPWorkspace@@UAEHPBDPAVCBCGPFrameImpl@@@Z" PURGE="8" COMMENT="" />
    <EXPORT ORDINAL="3517" NAME="?LoadTabbedBar@CBCGPBarContainer@@IAEPAVCBCGPDockingControlBar@@AAVCArchive@@AAV?$CList@II@@@Z" PURGE="8" COMMENT="" />
    <EXPORT ORDINAL="3518" NAME="?LoadTearOffMenus@CBCGPFrameImpl@@IAEXXZ" PURGE="0" COMMENT="" />
    <EXPORT ORDINAL="3519" NAME="?LoadTearOffMenus@CBCGPFrameWnd@@IAEXXZ" PURGE="0" COMMENT="" />
    <EXPORT ORDINAL="3520" NAME="?LoadTearOffMenus@CBCGPMDIFrameWnd@@IAEXXZ" PURGE="0" COMMENT="" />
    <EXPORT ORDINAL="3521" NAME="?LoadTearOffMenus@CBCGPOleDocIPFrameWnd@@IAEXXZ" PURGE="0" COMMENT="" />
    <EXPORT ORDINAL="3522" NAME="?LoadTearOffMenus@CBCGPOleIPFrameWnd@@IAEXXZ" PURGE="0" COMMENT="" />
    <EXPORT ORDINAL="3523" NAME="?LoadToolBar@CBCGPDropDownToolBar@@UAEHIIIHIII@Z" PURGE="28" COMMENT="" />
    <EXPORT ORDINAL="3524" NAME="?LoadToolBar@CBCGPToolBar@@UAEHIIIHIII@Z" PURGE="28" COMMENT="" />
    <EXPORT ORDINAL="3525" NAME="?LoadToolBarEx@CBCGPToolBar@@UAEHIAAVCBCGPToolBarParams@@H@Z" PURGE="12" COMMENT="" />
    <EXPORT ORDINAL="3526" NAME="?LoadUserToolbars@CBCGPFrameImpl@@IAEXXZ" PURGE="0" COMMENT="" />
    <EXPORT ORDINAL="3527" NAME="?LoadUserToolbars@CBCGPFrameWnd@@IAEXXZ" PURGE="0" COMMENT="" />
    <EXPORT ORDINAL="3528" NAME="?LoadUserToolbars@CBCGPMDIFrameWnd@@IAEXXZ" PURGE="0" COMMENT="" />
    <EXPORT ORDINAL="3529" NAME="?LoadUserToolbars@CBCGPOleDocIPFrameWnd@@IAEXXZ" PURGE="0" COMMENT="" />
    <EXPORT ORDINAL="3530" NAME="?LoadUserToolbars@CBCGPOleIPFrameWnd@@IAEXXZ" PURGE="0" COMMENT="" />
    <EXPORT ORDINAL="3531" NAME="?LoadWindowPlacement@CBCGPWorkspace@@MAEHAAVCRect@@AAH1@Z" PURGE="12" COMMENT="" />
    <EXPORT ORDINAL="3532" NAME="?LoadXMLSettings@CBCGPEditCtrl@@UAEHABV?$CStringT@DV?$StrTraitMFC_DLL@DV?$ChTraitsCRT@D@ATL@@@@@ATL@@@Z" PURGE="4" COMMENT="" />
    <EXPORT ORDINAL="3533" NAME="?LoadXMLSettingsFromBuffer@CBCGPEditCtrl@@UAEHABV?$CStringT@DV?$StrTraitMFC_DLL@DV?$ChTraitsCRT@D@ATL@@@@@ATL@@@Z" PURGE="4" COMMENT="" />
    <EXPORT ORDINAL="3534" NAME="?LockCurrentFolder@CBCGPShellList@@IAEJPAU_BCGCBITEMINFO@@@Z" PURGE="4" COMMENT="" />
    <EXPORT ORDINAL="3535" NAME="?LockUpdate@CBCGPDockManager@@QAEXH@Z" PURGE="4" COMMENT="" />
    <EXPORT ORDINAL="3536" NAME="?LookUpSymbol@CBCGPEditCtrl@@UAEHPBDHHDAAUBCGP_EDIT_SYM_DEF@@AAHH@Z" PURGE="28" COMMENT="" />
    <EXPORT ORDINAL="3537" NAME="?LookupHyperlinkByOffset@CBCGPEditCtrl@@IAEHH@Z" PURGE="4" COMMENT="" />
    <EXPORT ORDINAL="3538" NAME="?LumFromPoint@CBCGPColorPickerCtrl@@IAENH@Z" PURGE="4" COMMENT="" />
    <EXPORT ORDINAL="3539" NAME="?MDIMessage@CBCGPWindowsManagerDlg@@IAEXII@Z" PURGE="8" COMMENT="" />
    <EXPORT ORDINAL="3540" NAME="?MDITabMoveToNextGroup@CBCGPMDIFrameWnd@@QAEXH@Z" PURGE="4" COMMENT="" />
    <EXPORT ORDINAL="3541" NAME="?MDITabMoveToNextGroup@CBCGPMainClientAreaWnd@@QAEXH@Z" PURGE="4" COMMENT="" />
    <EXPORT ORDINAL="3542" NAME="?MDITabNewGroup@CBCGPMDIFrameWnd@@QAEXH@Z" PURGE="4" COMMENT="" />
    <EXPORT ORDINAL="3543" NAME="?MDITabNewGroup@CBCGPMainClientAreaWnd@@QAEXH@Z" PURGE="4" COMMENT="" />
    <EXPORT ORDINAL="3544" NAME="?MakeSelection@CBCGPEditCtrl@@UAEHW4BCGP_EDIT_SEL_TYPE@1@@Z" PURGE="4" COMMENT="" />
    <EXPORT ORDINAL="3545" NAME="?MapBmpTo3dColors@CBCGPToolBarImages@@KAHAAPAUHBITMAP__@@HKK@Z" PURGE="0" COMMENT="" />
    <EXPORT ORDINAL="3546" NAME="?MapFromSysColor@CBCGPToolBarImages@@SAKKH@Z" PURGE="0" COMMENT="" />
    <EXPORT ORDINAL="3547" NAME="?MapTo3dColors@CBCGPToolBarImages@@QAEHHKK@Z" PURGE="12" COMMENT="" />
    <EXPORT ORDINAL="3548" NAME="?MapToSysColor@CBCGPToolBarImages@@SAKKH@Z" PURGE="0" COMMENT="" />
    <EXPORT ORDINAL="3549" NAME="?MapToSysColorAlpha@CBCGPToolBarImages@@SAKK@Z" PURGE="0" COMMENT="" />
    <EXPORT ORDINAL="3550" NAME="?MarkDays@CBCGPCalendarBar@@QAEXABV?$CList@HH@@H@Z" PURGE="8" COMMENT="" />
    <EXPORT ORDINAL="3551" NAME="?MeasureItem@CBCGPBaseIntelliSenseLB@@UAEXPAUtagMEASUREITEMSTRUCT@@@Z" PURGE="4" COMMENT="" />
    <EXPORT ORDINAL="3552" NAME="?MeasureItem@CBCGPFontComboBox@@UAEXPAUtagMEASUREITEMSTRUCT@@@Z" PURGE="4" COMMENT="" />
    <EXPORT ORDINAL="3553" NAME="?Mirror@CBCGPToolBarImages@@QAEHXZ" PURGE="0" COMMENT="" />
    <EXPORT ORDINAL="3554" NAME="?MirrorBitmap@CBCGPToolBarImages@@SAHAAPAUHBITMAP__@@H@Z" PURGE="0" COMMENT="" />
    <EXPORT ORDINAL="3555" NAME="?MirrorRect@CBCGPDrawManager@@QAEXVCRect@@H@Z" PURGE="20" COMMENT="" />
    <EXPORT ORDINAL="3556" NAME="?ModifyGlobalColors@CBCGPVisualManager2003@@MAEXXZ" PURGE="0" COMMENT="" />
    <EXPORT ORDINAL="3557" NAME="?ModifyTabStyle@CBCGPTabWnd@@IAEHW4Style@1@@Z" PURGE="4" COMMENT="" />
    <EXPORT ORDINAL="3558" NAME="?Move@CBCGPAutoHideButton@@QAEXH@Z" PURGE="4" COMMENT="" />
    <EXPORT ORDINAL="3559" NAME="?Move@CBCGPBarContainer@@UAEXVCPoint@@@Z" PURGE="8" COMMENT="" />
    <EXPORT ORDINAL="3560" NAME="?Move@CBCGPCaptionButton@@QAEXABVCPoint@@H@Z" PURGE="8" COMMENT="" />
    <EXPORT ORDINAL="3561" NAME="?Move@CBCGPDockBarRow@@UAEXH@Z" PURGE="4" COMMENT="" />
    <EXPORT ORDINAL="3562" NAME="?Move@CBCGPOutlineBaseNode@@UAEXH@Z" PURGE="4" COMMENT="" />
    <EXPORT ORDINAL="3563" NAME="?MoveByAlignment@CBCGPControlBar@@QAEHKH@Z" PURGE="8" COMMENT="" />
    <EXPORT ORDINAL="3564" NAME="?MoveControlBar@CBCGPControlBar@@UAE?AVCSize@@VCRect@@HAAPAX@Z" PURGE="28" COMMENT="" />
    <EXPORT ORDINAL="3565" NAME="?MoveControlBar@CBCGPDockBar@@UAEHPAVCBCGPControlBar@@IVCPoint@@@Z" PURGE="16" COMMENT="" />
    <EXPORT ORDINAL="3566" NAME="?MoveControlBar@CBCGPDockBarRow@@QAEXPAVCBCGPControlBar@@HAAPAX@Z" PURGE="12" COMMENT="" />
    <EXPORT ORDINAL="3567" NAME="?MoveControlBar@CBCGPDockBarRow@@QAEXPAVCBCGPControlBar@@H_NAAPAX@Z" PURGE="16" COMMENT="" />
    <EXPORT ORDINAL="3568" NAME="?MoveControlBar@CBCGPDockBarRow@@QAEXPAVCBCGPControlBar@@VCPoint@@HAAPAX@Z" PURGE="20" COMMENT="" />
    <EXPORT ORDINAL="3569" NAME="?MoveControlBar@CBCGPDockBarRow@@QAEXPAVCBCGPControlBar@@VCRect@@AAPAX@Z" PURGE="24" COMMENT="" />
    <EXPORT ORDINAL="3570" NAME="?MoveControlBarRect@CBCGPDockBarRow@@IAEXPAVCBCGPControlBar@@H_N@Z" PURGE="12" COMMENT="" />
    <EXPORT ORDINAL="3571" NAME="?MoveDragFrame@CBCGPMiniFrameWnd@@IAEXXZ" PURGE="0" COMMENT="" />
    <EXPORT ORDINAL="3572" NAME="?MoveMiniFrame@CBCGPMiniFrameWnd@@IAEHXZ" PURGE="0" COMMENT="" />
    <EXPORT ORDINAL="3573" NAME="?MoveSlider@CBCGPSlider@@UAEXAAVCPoint@@H@Z" PURGE="8" COMMENT="" />
    <EXPORT ORDINAL="3574" NAME="?MoveTab@CBCGPBaseTabWnd@@UAEXHH@Z" PURGE="8" COMMENT="" />
    <EXPORT ORDINAL="3575" NAME="?MoveTab@CBCGPTabWnd@@UAEXHH@Z" PURGE="8" COMMENT="" />
    <EXPORT ORDINAL="3576" NAME="?MoveTo@CBCGPPopupMenu@@QAEXABVCPoint@@@Z" PURGE="-1" COMMENT="" />
    <EXPORT ORDINAL="3577" NAME="?MoveToolDown@CBCGPUserToolsManager@@QAEHPAVCBCGPUserTool@@@Z" PURGE="4" COMMENT="" />
    <EXPORT ORDINAL="3578" NAME="?MoveToolUp@CBCGPUserToolsManager@@QAEHPAVCBCGPUserTool@@@Z" PURGE="4" COMMENT="" />
    <EXPORT ORDINAL="3579" NAME="?MoveTrailingBars@CBCGPDockBarRow@@AAEXPAU__POSITION@@VCPoint@@_NPAVCBCGPControlBar@@AAPAX@Z" PURGE="24" COMMENT="" />
    <EXPORT ORDINAL="3580" NAME="?MoveWindow@CBCGPBaseControlBar@@UAEPAXAAVCRect@@HPAX@Z" PURGE="12" COMMENT="" />
    <EXPORT ORDINAL="3581" NAME="?MoveWindowToTabGroup@CBCGPMainClientAreaWnd@@QAEHPAVCBCGPTabWnd@@0H@Z" PURGE="12" COMMENT="" />
    <EXPORT ORDINAL="3582" NAME="?MoveWnd@CBCGPBarContainer@@IAEXPAVCWnd@@HH@Z" PURGE="12" COMMENT="" />
    <EXPORT ORDINAL="3583" NAME="?NegotiateBorderSpace@CBCGPFrameWnd@@UAEHIPAUtagRECT@@@Z" PURGE="8" COMMENT="" />
    <EXPORT ORDINAL="3584" NAME="?NegotiateBorderSpace@CBCGPMDIFrameWnd@@UAEHIPAUtagRECT@@@Z" PURGE="8" COMMENT="" />
    <EXPORT ORDINAL="3585" NAME="?NextMenu@CBCGPToolBar@@UAEHXZ" PURGE="0" COMMENT="" />
    <EXPORT ORDINAL="3586" NAME="?NextRow@CBCGPEditCtrl@@IBEXAAH00@Z" PURGE="12" COMMENT="" />
    <EXPORT ORDINAL="3587" NAME="?NextWord@CBCGPEditCtrl@@UAEHH@Z" PURGE="4" COMMENT="" />
    <EXPORT ORDINAL="3588" NAME="?NotifyAboutRelease@CBCGPSlider@@UAEXXZ" PURGE="0" COMMENT="" />
    <EXPORT ORDINAL="3589" NAME="?NotifyCommand@CBCGPToolbarButton@@UAEHH@Z" PURGE="4" COMMENT="" />
    <EXPORT ORDINAL="3590" NAME="?NotifyCommand@CBCGPToolbarComboBoxButton@@UAEHH@Z" PURGE="4" COMMENT="" />
    <EXPORT ORDINAL="3591" NAME="?NotifyCommand@CBCGPToolbarDateTimeCtrl@@UAEHH@Z" PURGE="4" COMMENT="" />
    <EXPORT ORDINAL="3592" NAME="?NotifyCommand@CBCGPToolbarEditBoxButton@@UAEHH@Z" PURGE="4" COMMENT="" />
    <EXPORT ORDINAL="3593" NAME="?NotifyControlCommand@CBCGPToolBar@@MAEHPAVCBCGPToolbarButton@@HHIJ@Z" PURGE="20" COMMENT="" />
    <EXPORT ORDINAL="3594" NAME="?NotifyParent@CBCGPColorPickerCtrl@@IAEXXZ" PURGE="0" COMMENT="" />
    <EXPORT ORDINAL="3595" NAME="?NotifyParentDlg@CBCGPPopupMenu@@IAEHH@Z" PURGE="4" COMMENT="" />
    <EXPORT ORDINAL="3596" NAME="?NotifySlider@CBCGPBarContainerManager@@QAEXXZ" PURGE="0" COMMENT="" />
    <EXPORT ORDINAL="3597" NAME="?OffsetFromRect@CBCGPDockBarRow@@AAEXABVCRect@@AAVCPoint@@_N@Z" PURGE="12" COMMENT="" />
    <EXPORT ORDINAL="3598" NAME="?OffsetRectForSliding@CBCGPDockingControlBar@@IAEXAAVCRect@@HH@Z" PURGE="12" COMMENT="" />
    <EXPORT ORDINAL="3599" NAME="?OffsetToPoint@CBCGPEditCtrl@@QAEHHAAVCPoint@@PAUtagPOINT@@PAH@Z" PURGE="16" COMMENT="" />
    <EXPORT ORDINAL="3600" NAME="?OnAccGetState@CBCGPPopupMenu@@IAEJIJ@Z" PURGE="8" COMMENT="" />
    <EXPORT ORDINAL="3601" NAME="?OnAccHitTest@CBCGPPopupMenu@@IAEJIJ@Z" PURGE="8" COMMENT="" />
    <EXPORT ORDINAL="3602" NAME="?OnActivate@CBCGPAppBarWnd@@IAEXIPAVCWnd@@H@Z" PURGE="12" COMMENT="" />
    <EXPORT ORDINAL="3603" NAME="?OnActivate@CBCGPDialog@@IAEXIPAVCWnd@@H@Z" PURGE="12" COMMENT="" />
    <EXPORT ORDINAL="3604" NAME="?OnActivate@CBCGPDlgImpl@@IAEXIPAVCWnd@@@Z" PURGE="8" COMMENT="" />
    <EXPORT ORDINAL="3605" NAME="?OnActivate@CBCGPFrameWnd@@QAEXIPAVCWnd@@H@Z" PURGE="12" COMMENT="" />
    <EXPORT ORDINAL="3606" NAME="?OnActivate@CBCGPMDIFrameWnd@@IAEXIPAVCWnd@@H@Z" PURGE="12" COMMENT="" />
    <EXPORT ORDINAL="3607" NAME="?OnActivate@CBCGPOleDocIPFrameWnd@@IAEXIPAVCWnd@@H@Z" PURGE="12" COMMENT="" />
    <EXPORT ORDINAL="3608" NAME="?OnActivate@CBCGPOleIPFrameWnd@@IAEXIPAVCWnd@@H@Z" PURGE="12" COMMENT="" />
    <EXPORT ORDINAL="3609" NAME="?OnActivate@CBCGPPropertyPage@@IAEXIPAVCWnd@@H@Z" PURGE="12" COMMENT="" />
    <EXPORT ORDINAL="3610" NAME="?OnActivate@CBCGPWindowsManagerDlg@@IAEXXZ" PURGE="0" COMMENT="" />
    <EXPORT ORDINAL="3611" NAME="?OnActivateApp@CBCGPFrameWnd@@QAEXHK@Z" PURGE="8" COMMENT="" />
    <EXPORT ORDINAL="3612" NAME="?OnActivateApp@CBCGPMDIFrameWnd@@IAEXHK@Z" PURGE="8" COMMENT="" />
    <EXPORT ORDINAL="3613" NAME="?OnActivateApp@CBCGPPopupMenu@@IAEXHK@Z" PURGE="8" COMMENT="" />
    <EXPORT ORDINAL="3614" NAME="?OnActivateFrame@CBCGPDockManager@@UAEXH@Z" PURGE="4" COMMENT="" />
    <EXPORT ORDINAL="3615" NAME="?OnActivatePage@CBCGPPropertySheet@@UAEXPAVCPropertyPage@@@Z" PURGE="4" COMMENT="" />
    <EXPORT ORDINAL="3616" NAME="?OnActivatePage@CBCGPToolBox@@UAEXH@Z" PURGE="4" COMMENT="" />
    <EXPORT ORDINAL="3617" NAME="?OnActivateTab@CBCGPBaseTabbedBar@@MAEXH@Z" PURGE="4" COMMENT="" />
    <EXPORT ORDINAL="3618" NAME="?OnActivateTasksPanePage@CBCGPTasksPane@@MAEXXZ" PURGE="0" COMMENT="" />
    <EXPORT ORDINAL="3619" NAME="?OnActivateView@CBCGPTabView@@MAEXPAVCView@@@Z" PURGE="4" COMMENT="" />
    <EXPORT ORDINAL="3620" NAME="?OnAddToCustomizePage@CBCGPToolbarButton@@UAEXXZ" PURGE="0" COMMENT="" />
    <EXPORT ORDINAL="3621" NAME="?OnAddToCustomizePage@CBCGPToolbarComboBoxButton@@UAEXXZ" PURGE="0" COMMENT="" />
    <EXPORT ORDINAL="3622" NAME="?OnAddToCustomizePage@CBCGPToolbarDateTimeCtrl@@UAEXXZ" PURGE="0" COMMENT="" />
    <EXPORT ORDINAL="3623" NAME="?OnAddToCustomizePage@CBCGPToolbarEditBoxButton@@UAEXXZ" PURGE="0" COMMENT="" />
    <EXPORT ORDINAL="3624" NAME="?OnAfterActivatePage@CBCGPPropertySheet@@IAEJIJ@Z" PURGE="8" COMMENT="" />
    <EXPORT ORDINAL="3625" NAME="?OnAfterAddItem@CBCGPEditListBase@@UAEXH@Z" PURGE="4" COMMENT="" />
    <EXPORT ORDINAL="3626" NAME="?OnAfterAnimation@CBCGPOutlookBar@@UAEXH@Z" PURGE="4" COMMENT="" />
    <EXPORT ORDINAL="3627" NAME="?OnAfterButtonDelete@CBCGPPopupMenuBar@@MAEXXZ" PURGE="0" COMMENT="" />
    <EXPORT ORDINAL="3628" NAME="?OnAfterButtonDelete@CBCGPToolBar@@MAEXXZ" PURGE="0" COMMENT="" />
    <EXPORT ORDINAL="3629" NAME="?OnAfterChangeParent@CBCGPBaseControlBar@@UAEXPAVCWnd@@@Z" PURGE="4" COMMENT="" />
    <EXPORT ORDINAL="3630" NAME="?OnAfterChangeParent@CBCGPBaseToolBar@@UAEXPAVCWnd@@@Z" PURGE="4" COMMENT="" />
    <EXPORT ORDINAL="3631" NAME="?OnAfterChangeParent@CBCGPControlBar@@UAEXPAVCWnd@@@Z" PURGE="4" COMMENT="" />
    <EXPORT ORDINAL="3632" NAME="?OnAfterChangeParent@CBCGPDockingControlBar@@UAEXPAVCWnd@@@Z" PURGE="4" COMMENT="" />
    <EXPORT ORDINAL="3633" NAME="?OnAfterChangeTool@CBCGPToolbarCustomize@@MAEXPAVCBCGPUserTool@@@Z" PURGE="4" COMMENT="" />
    <EXPORT ORDINAL="3634" NAME="?OnAfterDock@CBCGPControlBar@@MAEXPAVCBCGPBaseControlBar@@PBUtagRECT@@W4BCGP_DOCK_METHOD@@@Z" PURGE="12" COMMENT="" />
    <EXPORT ORDINAL="3635" NAME="?OnAfterDock@CBCGPDockingControlBar@@MAEXPAVCBCGPBaseControlBar@@PBUtagRECT@@W4BCGP_DOCK_METHOD@@@Z" PURGE="12" COMMENT="" />
    <EXPORT ORDINAL="3636" NAME="?OnAfterDockFromMiniFrame@CBCGPDockingControlBar@@UAEXXZ" PURGE="0" COMMENT="" />
    <EXPORT ORDINAL="3637" NAME="?OnAfterDownloadSkins@CBCGPWorkspace@@UAEXABV?$CStringT@DV?$StrTraitMFC_DLL@DV?$ChTraitsCRT@D@ATL@@@@@ATL@@@Z" PURGE="4" COMMENT="" />
    <EXPORT ORDINAL="3638" NAME="?OnAfterFloat@CBCGPControlBar@@UAEXXZ" PURGE="0" COMMENT="" />
    <EXPORT ORDINAL="3639" NAME="?OnAfterFloat@CBCGPToolBar@@MAEXXZ" PURGE="0" COMMENT="" />
    <EXPORT ORDINAL="3640" NAME="?OnAfterMoveItemDown@CBCGPEditListBase@@UAEXH@Z" PURGE="4" COMMENT="" />
    <EXPORT ORDINAL="3641" NAME="?OnAfterMoveItemUp@CBCGPEditListBase@@UAEXH@Z" PURGE="4" COMMENT="" />
    <EXPORT ORDINAL="3642" NAME="?OnAfterRenameItem@CBCGPEditListBase@@UAEXH@Z" PURGE="4" COMMENT="" />
    <EXPORT ORDINAL="3643" NAME="?OnAfterStretch@CBCGPBaseToolBar@@MAEXH@Z" PURGE="4" COMMENT="" />
    <EXPORT ORDINAL="3644" NAME="?OnAfterStretch@CBCGPControlBar@@MAEXH@Z" PURGE="4" COMMENT="" />
    <EXPORT ORDINAL="3645" NAME="?OnAfterTextChanged@CBCGPEditCtrl@@UAEXHABV?$CStringT@DV?$StrTraitMFC_DLL@DV?$ChTraitsCRT@D@ATL@@@@@ATL@@H@Z" PURGE="12" COMMENT="" />
    <EXPORT ORDINAL="3646" NAME="?OnAfterUndoRedo@CBCGPEditCtrl@@UAEXPAUBCGP_EDIT_UNDO_ACTION@@@Z" PURGE="4" COMMENT="" />
    <EXPORT ORDINAL="3647" NAME="?OnAfterUpdate@CBCGPEdit@@UAEXXZ" PURGE="0" COMMENT="" />
    <EXPORT ORDINAL="3648" NAME="?OnAppBarFullScreenApp@CBCGPAppBarWnd@@UAEXH@Z" PURGE="4" COMMENT="" />
    <EXPORT ORDINAL="3649" NAME="?OnAppBarPosChanged@CBCGPAppBarWnd@@UAEXXZ" PURGE="0" COMMENT="" />
    <EXPORT ORDINAL="3650" NAME="?OnAppBarStateChange@CBCGPAppBarWnd@@UAEXHH@Z" PURGE="8" COMMENT="" />
    <EXPORT ORDINAL="3651" NAME="?OnAppBarWindowArrange@CBCGPAppBarWnd@@UAEXH@Z" PURGE="4" COMMENT="" />
    <EXPORT ORDINAL="3652" NAME="?OnAppContextHelp@CBCGPWorkspace@@UAEXPAVCWnd@@QBK@Z" PURGE="8" COMMENT="" />
    <EXPORT ORDINAL="3653" NAME="?OnAssignKey@CBCGPToolbarCustomize@@MAEHPAUtagACCEL@@@Z" PURGE="4" COMMENT="" />
    <EXPORT ORDINAL="3654" NAME="?OnBack@CBCGPTasksPane@@IAEXXZ" PURGE="0" COMMENT="" />
    <EXPORT ORDINAL="3655" NAME="?OnBarCheck@CBCGPFrameWnd@@QAEHI@Z" PURGE="4" COMMENT="" />
    <EXPORT ORDINAL="3656" NAME="?OnBarCheck@CBCGPMDIFrameWnd@@IAEHI@Z" PURGE="4" COMMENT="" />
    <EXPORT ORDINAL="3657" NAME="?OnBarCheck@CBCGPOleDocIPFrameWnd@@IAEHI@Z" PURGE="4" COMMENT="" />
    <EXPORT ORDINAL="3658" NAME="?OnBarCheck@CBCGPOleIPFrameWnd@@IAEHI@Z" PURGE="4" COMMENT="" />
    <EXPORT ORDINAL="3659" NAME="?OnBarRecalcLayout@CBCGPMiniFrameWnd@@UAEXXZ" PURGE="0" COMMENT="" />
    <EXPORT ORDINAL="3660" NAME="?OnBarRecalcLayout@CBCGPMultiMiniFrameWnd@@UAEXXZ" PURGE="0" COMMENT="" />
    <EXPORT ORDINAL="3661" NAME="?OnBcgToolClear@CBCGPImageEditDlg@@IAEXXZ" PURGE="0" COMMENT="" />
    <EXPORT ORDINAL="3662" NAME="?OnBcgToolCopy@CBCGPImageEditDlg@@IAEXXZ" PURGE="0" COMMENT="" />
    <EXPORT ORDINAL="3663" NAME="?OnBcgToolEllipse@CBCGPImageEditDlg@@IAEXXZ" PURGE="0" COMMENT="" />
    <EXPORT ORDINAL="3664" NAME="?OnBcgToolFill@CBCGPImageEditDlg@@IAEXXZ" PURGE="0" COMMENT="" />
    <EXPORT ORDINAL="3665" NAME="?OnBcgToolLine@CBCGPImageEditDlg@@IAEXXZ" PURGE="0" COMMENT="" />
    <EXPORT ORDINAL="3666" NAME="?OnBcgToolPaste@CBCGPImageEditDlg@@IAEXXZ" PURGE="0" COMMENT="" />
    <EXPORT ORDINAL="3667" NAME="?OnBcgToolPen@CBCGPImageEditDlg@@IAEXXZ" PURGE="0" COMMENT="" />
    <EXPORT ORDINAL="3668" NAME="?OnBcgToolPick@CBCGPImageEditDlg@@IAEXXZ" PURGE="0" COMMENT="" />
    <EXPORT ORDINAL="3669" NAME="?OnBcgToolRect@CBCGPImageEditDlg@@IAEXXZ" PURGE="0" COMMENT="" />
    <EXPORT ORDINAL="3670" NAME="?OnBcgbarresCopyImage@CBCGPToolBar@@IAEXXZ" PURGE="0" COMMENT="" />
    <EXPORT ORDINAL="3671" NAME="?OnBcgbarresToolbarNewMenu@CBCGPToolBar@@IAEXXZ" PURGE="0" COMMENT="" />
    <EXPORT ORDINAL="3672" NAME="?OnBcgbarresToolbarReset@CBCGPToolBar@@IAEXXZ" PURGE="0" COMMENT="" />
    <EXPORT ORDINAL="3673" NAME="?OnBcgbarresWindowHelp@CBCGPWindowsManagerDlg@@IAEXXZ" PURGE="0" COMMENT="" />
    <EXPORT ORDINAL="3674" NAME="?OnBeforeAddUndoAction@CBCGPEditCtrl@@UAEHPAUBCGP_EDIT_UNDO_ACTION@@@Z" PURGE="4" COMMENT="" />
    <EXPORT ORDINAL="3675" NAME="?OnBeforeAnimation@CBCGPOutlookBar@@UAEHH@Z" PURGE="4" COMMENT="" />
    <EXPORT ORDINAL="3676" NAME="?OnBeforeChangeParent@CBCGPBaseControlBar@@UAEXPAVCWnd@@H@Z" PURGE="8" COMMENT="" />
    <EXPORT ORDINAL="3677" NAME="?OnBeforeChangeParent@CBCGPControlBar@@UAEXPAVCWnd@@H@Z" PURGE="8" COMMENT="" />
    <EXPORT ORDINAL="3678" NAME="?OnBeforeChangeParent@CBCGPDockingControlBar@@UAEXPAVCWnd@@H@Z" PURGE="8" COMMENT="" />
    <EXPORT ORDINAL="3679" NAME="?OnBeforeChangeTool@CBCGPToolbarCustomize@@MAEXPAVCBCGPUserTool@@@Z" PURGE="4" COMMENT="" />
    <EXPORT ORDINAL="3680" NAME="?OnBeforeDock@CBCGPControlBar@@MAEHPAPAVCBCGPBaseControlBar@@PBUtagRECT@@W4BCGP_DOCK_METHOD@@@Z" PURGE="12" COMMENT="" />
    <EXPORT ORDINAL="3681" NAME="?OnBeforeDock@CBCGPMiniFrameWnd@@UAEHXZ" PURGE="0" COMMENT="" />
    <EXPORT ORDINAL="3682" NAME="?OnBeforeDrag@CBCGPToolbarButton@@UBEHXZ" PURGE="0" COMMENT="" />
    <EXPORT ORDINAL="3683" NAME="?OnBeforeDrag@CBCGPToolbarMenuButton@@UBEHXZ" PURGE="0" COMMENT="" />
    <EXPORT ORDINAL="3684" NAME="?OnBeforeDrop@CBCGPToolbarButton@@UAEHPAVCBCGPToolBar@@@Z" PURGE="4" COMMENT="" />
    <EXPORT ORDINAL="3685" NAME="?OnBeforeFloat@CBCGPControlBar@@UAEHAAVCRect@@W4BCGP_DOCK_METHOD@@@Z" PURGE="8" COMMENT="" />
    <EXPORT ORDINAL="3686" NAME="?OnBeforeFloat@CBCGPDockingControlBar@@UAEHAAVCRect@@W4BCGP_DOCK_METHOD@@@Z" PURGE="8" COMMENT="" />
    <EXPORT ORDINAL="3687" NAME="?OnBeforeFloat@CBCGPOutlookBarPane@@UAEHAAVCRect@@W4BCGP_DOCK_METHOD@@@Z" PURGE="8" COMMENT="" />
    <EXPORT ORDINAL="3688" NAME="?OnBeforeInvokeIntelliSense@CBCGPEditCtrl@@UBEHABV?$CStringT@DV?$StrTraitMFC_DLL@DV?$ChTraitsCRT@D@ATL@@@@@ATL@@AAHAAV23@@Z" PURGE="12" COMMENT="" />
    <EXPORT ORDINAL="3689" NAME="?OnBeforeRemoveButton@CBCGPToolBar@@UAEHPAVCBCGPToolbarButton@@K@Z" PURGE="8" COMMENT="" />
    <EXPORT ORDINAL="3690" NAME="?OnBeforeRemoveItem@CBCGPEditListBase@@UAEHH@Z" PURGE="4" COMMENT="" />
    <EXPORT ORDINAL="3691" NAME="?OnBeforeStretch@CBCGPControlBar@@MAEXAAH@Z" PURGE="4" COMMENT="" />
    <EXPORT ORDINAL="3692" NAME="?OnBeforeTextDeleted@CBCGPEditCtrl@@UAEHHABV?$CStringT@DV?$StrTraitMFC_DLL@DV?$ChTraitsCRT@D@ATL@@@@@ATL@@@Z" PURGE="8" COMMENT="" />
    <EXPORT ORDINAL="3693" NAME="?OnBeforeTextInserted@CBCGPEditCtrl@@UAEHAAV?$CStringT@DV?$StrTraitMFC_DLL@DV?$ChTraitsCRT@D@ATL@@@@@ATL@@H@Z" PURGE="8" COMMENT="" />
    <EXPORT ORDINAL="3694" NAME="?OnBeforeUndoRedo@CBCGPEditCtrl@@UAEHPAUBCGP_EDIT_UNDO_ACTION@@@Z" PURGE="4" COMMENT="" />
    <EXPORT ORDINAL="3695" NAME="?OnBeginDrag@CBCGPToolbarDropSource@@UAEHPAVCWnd@@@Z" PURGE="4" COMMENT="" />
    <EXPORT ORDINAL="3696" NAME="?OnBeginPrinting@CBCGPEditCtrl@@UAEXPAVCDC@@PAUCPrintInfo@@@Z" PURGE="8" COMMENT="" />
    <EXPORT ORDINAL="3697" NAME="?OnBeginPrinting@CBCGPEditView@@MAEXPAVCDC@@PAUCPrintInfo@@@Z" PURGE="8" COMMENT="" />
    <EXPORT ORDINAL="3698" NAME="?OnBrowse@CBCGPEdit@@UAEXXZ" PURGE="0" COMMENT="" />
    <EXPORT ORDINAL="3699" NAME="?OnBrowse@CBCGPEditListBase@@UAEXXZ" PURGE="0" COMMENT="" />
    <EXPORT ORDINAL="3700" NAME="?OnCalcOutlineSymbol@CBCGPEditCtrl@@UAEXPAVCDC@@VCPoint@@PAVCBCGPOutlineBaseNode@@@Z" PURGE="16" COMMENT="" />
    <EXPORT ORDINAL="3701" NAME="?OnCalcSeparatorRect@CBCGPPopupMenuBar@@MAEXPAVCBCGPToolbarButton@@AAVCRect@@H@Z" PURGE="12" COMMENT="" />
    <EXPORT ORDINAL="3702" NAME="?OnCalcSeparatorRect@CBCGPToolBar@@MAEXPAVCBCGPToolbarButton@@AAVCRect@@H@Z" PURGE="12" COMMENT="" />
    <EXPORT ORDINAL="3703" NAME="?OnCalculateSize@CBCGPCustomizeMenuButton@@MAE?AUtagSIZE@@PAVCDC@@ABVCSize@@H@Z" PURGE="16" COMMENT="" />
    <EXPORT ORDINAL="3704" NAME="?OnCalculateSize@CBCGPDropDownToolbarButton@@UAE?AUtagSIZE@@PAVCDC@@ABVCSize@@H@Z" PURGE="16" COMMENT="" />
    <EXPORT ORDINAL="3705" NAME="?OnCalculateSize@CBCGPOutlookButton@@UAE?AUtagSIZE@@PAVCDC@@ABVCSize@@H@Z" PURGE="16" COMMENT="" />
    <EXPORT ORDINAL="3706" NAME="?OnCalculateSize@CBCGPToolbarButton@@UAE?AUtagSIZE@@PAVCDC@@ABVCSize@@H@Z" PURGE="16" COMMENT="" />
    <EXPORT ORDINAL="3707" NAME="?OnCalculateSize@CBCGPToolbarComboBoxButton@@UAE?AUtagSIZE@@PAVCDC@@ABVCSize@@H@Z" PURGE="16" COMMENT="" />
    <EXPORT ORDINAL="3708" NAME="?OnCalculateSize@CBCGPToolbarDateTimeCtrl@@UAE?AUtagSIZE@@PAVCDC@@ABVCSize@@H@Z" PURGE="16" COMMENT="" />
    <EXPORT ORDINAL="3709" NAME="?OnCalculateSize@CBCGPToolbarEditBoxButton@@UAE?AUtagSIZE@@PAVCDC@@ABVCSize@@H@Z" PURGE="16" COMMENT="" />
    <EXPORT ORDINAL="3710" NAME="?OnCalculateSize@CBCGPToolbarMenuButton@@UAE?AUtagSIZE@@PAVCDC@@ABVCSize@@H@Z" PURGE="16" COMMENT="" />
    <EXPORT ORDINAL="3711" NAME="?OnCalculatorUserCommand@CBCGPEdit@@UAEXPAVCBCGPCalculator@@I@Z" PURGE="8" COMMENT="" />
    <EXPORT ORDINAL="3712" NAME="?OnCancel@CBCGPTasksPane@@UAEXXZ" PURGE="-1" COMMENT="" />
    <EXPORT ORDINAL="3713" NAME="?OnCancelMode@CBCGPAppBarWnd@@IAEXXZ" PURGE="0" COMMENT="" />
    <EXPORT ORDINAL="3714" NAME="?OnCancelMode@CBCGPBaseTabWnd@@IAEXXZ" PURGE="0" COMMENT="" />
    <EXPORT ORDINAL="3715" NAME="?OnCancelMode@CBCGPButton@@IAEXXZ" PURGE="0" COMMENT="" />
    <EXPORT ORDINAL="3716" NAME="?OnCancelMode@CBCGPColorPickerCtrl@@IAEXXZ" PURGE="-1" COMMENT="" />
    <EXPORT ORDINAL="3717" NAME="?OnCancelMode@CBCGPControlBar@@IAEXXZ" PURGE="0" COMMENT="" />
    <EXPORT ORDINAL="3718" NAME="?OnCancelMode@CBCGPDockingControlBar@@IAEXXZ" PURGE="0" COMMENT="" />
    <EXPORT ORDINAL="3719" NAME="?OnCancelMode@CBCGPDropDownToolbarButton@@UAEXXZ" PURGE="0" COMMENT="" />
    <EXPORT ORDINAL="3720" NAME="?OnCancelMode@CBCGPEdit@@IAEXXZ" PURGE="0" COMMENT="" />
    <EXPORT ORDINAL="3721" NAME="?OnCancelMode@CBCGPHeaderCtrl@@IAEXXZ" PURGE="0" COMMENT="" />
    <EXPORT ORDINAL="3722" NAME="?OnCancelMode@CBCGPHotSpotImageCtrl@@IAEXXZ" PURGE="0" COMMENT="" />
    <EXPORT ORDINAL="3723" NAME="?OnCancelMode@CBCGPMiniFrameWnd@@IAEXXZ" PURGE="0" COMMENT="" />
    <EXPORT ORDINAL="3724" NAME="?OnCancelMode@CBCGPOutlookWnd@@IAEXXZ" PURGE="0" COMMENT="" />
    <EXPORT ORDINAL="3725" NAME="?OnCancelMode@CBCGPPropList@@IAEXXZ" PURGE="-1" COMMENT="" />
    <EXPORT ORDINAL="3726" NAME="?OnCancelMode@CBCGPSlider@@IAEXXZ" PURGE="-1" COMMENT="" />
    <EXPORT ORDINAL="3727" NAME="?OnCancelMode@CBCGPSpinButtonCtrl@@IAEXXZ" PURGE="0" COMMENT="" />
    <EXPORT ORDINAL="3728" NAME="?OnCancelMode@CBCGPTabWnd@@IAEXXZ" PURGE="0" COMMENT="" />
    <EXPORT ORDINAL="3729" NAME="?OnCancelMode@CBCGPTasksPane@@IAEXXZ" PURGE="0" COMMENT="" />
    <EXPORT ORDINAL="3730" NAME="?OnCancelMode@CBCGPToolBar@@IAEXXZ" PURGE="0" COMMENT="" />
    <EXPORT ORDINAL="3731" NAME="?OnCancelMode@CBCGPToolbarButton@@UAEXXZ" PURGE="0" COMMENT="" />
    <EXPORT ORDINAL="3732" NAME="?OnCancelMode@CBCGPToolbarMenuButton@@UAEXXZ" PURGE="0" COMMENT="" />
    <EXPORT ORDINAL="3733" NAME="?OnCancelMode@CImagePaintArea@@IAEXXZ" PURGE="0" COMMENT="" />
    <EXPORT ORDINAL="3734" NAME="?OnCancelTabMove@CBCGPMainClientAreaWnd@@IAEJIJ@Z" PURGE="8" COMMENT="" />
    <EXPORT ORDINAL="3735" NAME="?OnCapture@CBCGPMiniFrameWnd@@MAEXH@Z" PURGE="4" COMMENT="" />
    <EXPORT ORDINAL="3736" NAME="?OnCascade@CBCGPWindowsManagerDlg@@IAEXXZ" PURGE="0" COMMENT="" />
    <EXPORT ORDINAL="3737" NAME="?OnChange@CBCGPComboEdit@@IAEXXZ" PURGE="0" COMMENT="" />
    <EXPORT ORDINAL="3738" NAME="?OnChangeActiveTab@CBCGPBaseTabbedBar@@IAEJIJ@Z" PURGE="8" COMMENT="" />
    <EXPORT ORDINAL="3739" NAME="?OnChangeActiveTab@CBCGPTabView@@IAEJIJ@Z" PURGE="8" COMMENT="" />
    <EXPORT ORDINAL="3740" NAME="?OnChangeActiveTab@CBCGPTabbedToolbar@@IAEJIJ@Z" PURGE="8" COMMENT="" />
    <EXPORT ORDINAL="3741" NAME="?OnChangeFont@CBCGPEditCtrl@@IAEXPAVCDC@@@Z" PURGE="4" COMMENT="" />
    <EXPORT ORDINAL="3742" NAME="?OnChangeHot@CBCGPMenuBar@@UAEXH@Z" PURGE="4" COMMENT="" />
    <EXPORT ORDINAL="3743" NAME="?OnChangeHot@CBCGPPopupMenuBar@@MAEXH@Z" PURGE="4" COMMENT="" />
    <EXPORT ORDINAL="3744" NAME="?OnChangeHot@CBCGPToolBar@@UAEXH@Z" PURGE="4" COMMENT="" />
    <EXPORT ORDINAL="3745" NAME="?OnChangeLayout@CBCGPEdit@@UAEXXZ" PURGE="0" COMMENT="" />
    <EXPORT ORDINAL="3746" NAME="?OnChangeParentWnd@CBCGPCalendarButton@@MAEXPAVCWnd@@@Z" PURGE="4" COMMENT="" />
    <EXPORT ORDINAL="3747" NAME="?OnChangeParentWnd@CBCGPCalendarMenuButton@@UAEXPAVCWnd@@@Z" PURGE="4" COMMENT="" />
    <EXPORT ORDINAL="3748" NAME="?OnChangeParentWnd@CBCGPColorMenuButton@@UAEXPAVCWnd@@@Z" PURGE="4" COMMENT="" />
    <EXPORT ORDINAL="3749" NAME="?OnChangeParentWnd@CBCGPDropDownToolbarButton@@UAEXPAVCWnd@@@Z" PURGE="4" COMMENT="" />
    <EXPORT ORDINAL="3750" NAME="?OnChangeParentWnd@CBCGPOutlookButton@@UAEXPAVCWnd@@@Z" PURGE="4" COMMENT="" />
    <EXPORT ORDINAL="3751" NAME="?OnChangeParentWnd@CBCGPToolbarButton@@UAEXPAVCWnd@@@Z" PURGE="4" COMMENT="" />
    <EXPORT ORDINAL="3752" NAME="?OnChangeParentWnd@CBCGPToolbarComboBoxButton@@UAEXPAVCWnd@@@Z" PURGE="4" COMMENT="" />
    <EXPORT ORDINAL="3753" NAME="?OnChangeParentWnd@CBCGPToolbarDateTimeCtrl@@UAEXPAVCWnd@@@Z" PURGE="4" COMMENT="" />
    <EXPORT ORDINAL="3754" NAME="?OnChangeParentWnd@CBCGPToolbarEditBoxButton@@UAEXPAVCWnd@@@Z" PURGE="4" COMMENT="" />
    <EXPORT ORDINAL="3755" NAME="?OnChangeParentWnd@CBCGPToolbarMenuButton@@UAEXPAVCWnd@@@Z" PURGE="4" COMMENT="" />
    <EXPORT ORDINAL="3756" NAME="?OnChangeSelection@CBCGPPropList@@UAEXPAVCBCGPProp@@0@Z" PURGE="8" COMMENT="" />
    <EXPORT ORDINAL="3757" NAME="?OnChangeTabs@CBCGPBaseTabWnd@@UAEXXZ" PURGE="0" COMMENT="" />
    <EXPORT ORDINAL="3758" NAME="?OnChangeTabs@CBCGPOutlookWnd@@UAEXXZ" PURGE="0" COMMENT="" />
    <EXPORT ORDINAL="3759" NAME="?OnChar@CBCGPControlBar@@IAEXIII@Z" PURGE="12" COMMENT="" />
    <EXPORT ORDINAL="3760" NAME="?OnChar@CBCGPEditCtrl@@IAEXIII@Z" PURGE="12" COMMENT="" />
    <EXPORT ORDINAL="3761" NAME="?OnChar@CBCGPIntelliSenseLB@@IAEXIII@Z" PURGE="12" COMMENT="" />
    <EXPORT ORDINAL="3762" NAME="?OnChar@CBCGPMaskEdit@@IAEXIII@Z" PURGE="12" COMMENT="" />
    <EXPORT ORDINAL="3763" NAME="?OnChar@CBCGPMiniFrameWnd@@IAEXIII@Z" PURGE="12" COMMENT="" />
    <EXPORT ORDINAL="3764" NAME="?OnChar@CBCGPPropList@@IAEXIII@Z" PURGE="12" COMMENT="" />
    <EXPORT ORDINAL="3765" NAME="?OnChar@CBCGPSymImagesLB@@IAEXIII@Z" PURGE="12" COMMENT="" />
    <EXPORT ORDINAL="3766" NAME="?OnCharBackspace@CBCGPMaskEdit@@AAEXIII@Z" PURGE="12" COMMENT="" />
    <EXPORT ORDINAL="3767" NAME="?OnCharDelete@CBCGPMaskEdit@@AAEXIII@Z" PURGE="12" COMMENT="" />
    <EXPORT ORDINAL="3768" NAME="?OnCharPrintchar@CBCGPMaskEdit@@AAEXIII@Z" PURGE="12" COMMENT="" />
    <EXPORT ORDINAL="3769" NAME="?OnCheckEmptyState@CBCGPMiniFrameWnd@@IAEJIJ@Z" PURGE="8" COMMENT="" />
    <EXPORT ORDINAL="3770" NAME="?OnCheckEmptyState@CBCGPMultiMiniFrameWnd@@IAEJIJ@Z" PURGE="8" COMMENT="" />
    <EXPORT ORDINAL="3771" NAME="?OnCheckRollState@CBCGPMiniFrameWnd@@MAEXXZ" PURGE="0" COMMENT="" />
    <EXPORT ORDINAL="3772" NAME="?OnChildNotify@CBCGPShellTree@@UAEHIIJPAJ@Z" PURGE="16" COMMENT="" />
    <EXPORT ORDINAL="3773" NAME="?OnClick@CBCGPCalendarMenuButton@@MAEHPAVCWnd@@H@Z" PURGE="8" COMMENT="" />
    <EXPORT ORDINAL="3774" NAME="?OnClick@CBCGPDropDownToolbarButton@@UAEHPAVCWnd@@H@Z" PURGE="8" COMMENT="" />
    <EXPORT ORDINAL="3775" NAME="?OnClick@CBCGPToolbarButton@@UAEHPAVCWnd@@H@Z" PURGE="8" COMMENT="" />
    <EXPORT ORDINAL="3776" NAME="?OnClick@CBCGPToolbarComboBoxButton@@UAEHPAVCWnd@@H@Z" PURGE="8" COMMENT="" />
    <EXPORT ORDINAL="3777" NAME="?OnClick@CBCGPToolbarDateTimeCtrl@@UAEHPAVCWnd@@H@Z" PURGE="8" COMMENT="" />
    <EXPORT ORDINAL="3778" NAME="?OnClick@CBCGPToolbarEditBoxButton@@UAEHPAVCWnd@@H@Z" PURGE="8" COMMENT="" />
    <EXPORT ORDINAL="3779" NAME="?OnClick@CBCGPToolbarMenuButton@@UAEHPAVCWnd@@H@Z" PURGE="8" COMMENT="" />
    <EXPORT ORDINAL="3780" NAME="?OnClickButton@CBCGPColorProp@@UAEXVCPoint@@@Z" PURGE="8" COMMENT="" />
    <EXPORT ORDINAL="3781" NAME="?OnClickButton@CBCGPEditListBase@@UAEXH@Z" PURGE="4" COMMENT="" />
    <EXPORT ORDINAL="3782" NAME="?OnClickButton@CBCGPFileProp@@UAEXVCPoint@@@Z" PURGE="8" COMMENT="" />
    <EXPORT ORDINAL="3783" NAME="?OnClickButton@CBCGPFontProp@@UAEXVCPoint@@@Z" PURGE="8" COMMENT="" />
    <EXPORT ORDINAL="3784" NAME="?OnClickButton@CBCGPProp@@UAEXVCPoint@@@Z" PURGE="8" COMMENT="" />
    <EXPORT ORDINAL="3785" NAME="?OnClickButton@CBCGPPropList@@UAEXVCPoint@@@Z" PURGE="8" COMMENT="" />
    <EXPORT ORDINAL="3786" NAME="?OnClickMenuItem@CBCGPCustomizeMenuButton@@MAEHXZ" PURGE="0" COMMENT="" />
    <EXPORT ORDINAL="3787" NAME="?OnClickMenuItem@CBCGPToolbarMenuButton@@UAEHXZ" PURGE="0" COMMENT="" />
    <EXPORT ORDINAL="3788" NAME="?OnClickName@CBCGPProp@@UAEXVCPoint@@@Z" PURGE="8" COMMENT="" />
    <EXPORT ORDINAL="3789" NAME="?OnClickTask@CBCGPTasksPane@@UAEXHHIK@Z" PURGE="16" COMMENT="" />
    <EXPORT ORDINAL="3790" NAME="?OnClickTool@CBCGPToolBox@@UAEXHH@Z" PURGE="8" COMMENT="" />
    <EXPORT ORDINAL="3791" NAME="?OnClickTool@CBCGPToolBoxEx@@UAEXHH@Z" PURGE="8" COMMENT="" />
    <EXPORT ORDINAL="3792" NAME="?OnClickUp@CBCGPDropDownToolbarButton@@UAEHXZ" PURGE="0" COMMENT="" />
    <EXPORT ORDINAL="3793" NAME="?OnClickUp@CBCGPToolbarButton@@UAEHXZ" PURGE="0" COMMENT="" />
    <EXPORT ORDINAL="3794" NAME="?OnClickValue@CBCGPProp@@UAEHIVCPoint@@@Z" PURGE="12" COMMENT="" />
    <EXPORT ORDINAL="3795" NAME="?OnClicked@CBCGPURLLinkButton@@IAEXXZ" PURGE="0" COMMENT="" />
    <EXPORT ORDINAL="3796" NAME="?OnClose@CBCGPDockingControlBar@@IAEXXZ" PURGE="-1" COMMENT="" />
    <EXPORT ORDINAL="3797" NAME="?OnClose@CBCGPFrameWnd@@QAEXXZ" PURGE="-1" COMMENT="" />
    <EXPORT ORDINAL="3798" NAME="?OnClose@CBCGPMDIFrameWnd@@IAEXXZ" PURGE="0" COMMENT="" />
    <EXPORT ORDINAL="3799" NAME="?OnClose@CBCGPMiniFrameWnd@@IAEXXZ" PURGE="0" COMMENT="" />
    <EXPORT ORDINAL="3800" NAME="?OnClose@CBCGPOleDocIPFrameWnd@@IAEXXZ" PURGE="-1" COMMENT="" />
    <EXPORT ORDINAL="3801" NAME="?OnClose@CBCGPOleIPFrameWnd@@IAEXXZ" PURGE="-1" COMMENT="" />
    <EXPORT ORDINAL="3802" NAME="?OnClose@CBCGPTasksPane@@IAEXXZ" PURGE="-1" COMMENT="" />
    <EXPORT ORDINAL="3803" NAME="?OnClose@CBCGPWindowsManagerDlg@@IAEXXZ" PURGE="0" COMMENT="" />
    <EXPORT ORDINAL="3804" NAME="?OnCloseCombo@CBCGPProp@@UAEXXZ" PURGE="-1" COMMENT="" />
    <EXPORT ORDINAL="3805" NAME="?OnCloseCombo@CBCGPPropList@@IAEXXZ" PURGE="0" COMMENT="" />
    <EXPORT ORDINAL="3806" NAME="?OnCloseDockingBar@CBCGPFrameWnd@@UAEHPAVCBCGPDockingControlBar@@@Z" PURGE="4" COMMENT="" />
    <EXPORT ORDINAL="3807" NAME="?OnCloseDockingBar@CBCGPMDIFrameWnd@@UAEHPAVCBCGPDockingControlBar@@@Z" PURGE="4" COMMENT="" />
    <EXPORT ORDINAL="3808" NAME="?OnCloseDockingBar@CBCGPOleDocIPFrameWnd@@UAEHPAVCBCGPDockingControlBar@@@Z" PURGE="4" COMMENT="" />
    <EXPORT ORDINAL="3809" NAME="?OnCloseDockingBar@CBCGPOleIPFrameWnd@@UAEHPAVCBCGPDockingControlBar@@@Z" PURGE="4" COMMENT="" />
    <EXPORT ORDINAL="3810" NAME="?OnCloseFrame@CBCGPFrameImpl@@IAEXXZ" PURGE="0" COMMENT="" />
    <EXPORT ORDINAL="3811" NAME="?OnCloseMiniFrame@CBCGPFrameWnd@@UAEHPAVCBCGPMiniFrameWnd@@@Z" PURGE="4" COMMENT="" />
    <EXPORT ORDINAL="3812" NAME="?OnCloseMiniFrame@CBCGPMDIFrameWnd@@UAEHPAVCBCGPMiniFrameWnd@@@Z" PURGE="4" COMMENT="" />
    <EXPORT ORDINAL="3813" NAME="?OnCloseMiniFrame@CBCGPMiniFrameWnd@@MAEHXZ" PURGE="0" COMMENT="" />
    <EXPORT ORDINAL="3814" NAME="?OnCloseMiniFrame@CBCGPOleDocIPFrameWnd@@UAEHPAVCBCGPMiniFrameWnd@@@Z" PURGE="4" COMMENT="" />
    <EXPORT ORDINAL="3815" NAME="?OnCloseMiniFrame@CBCGPOleIPFrameWnd@@UAEHPAVCBCGPMiniFrameWnd@@@Z" PURGE="4" COMMENT="" />
    <EXPORT ORDINAL="3816" NAME="?OnClosePopupMenu@CBCGPFrameWnd@@UAEXPAVCBCGPPopupMenu@@@Z" PURGE="4" COMMENT="" />
    <EXPORT ORDINAL="3817" NAME="?OnClosePopupMenu@CBCGPMDIFrameWnd@@UAEXPAVCBCGPPopupMenu@@@Z" PURGE="4" COMMENT="" />
    <EXPORT ORDINAL="3818" NAME="?OnClosePopupMenu@CBCGPOleDocIPFrameWnd@@UAEXPAVCBCGPPopupMenu@@@Z" PURGE="4" COMMENT="" />
    <EXPORT ORDINAL="3819" NAME="?OnClosePopupMenu@CBCGPOleIPFrameWnd@@UAEXPAVCBCGPPopupMenu@@@Z" PURGE="4" COMMENT="" />
    <EXPORT ORDINAL="3820" NAME="?OnClosingMainFrame@CBCGPWorkspace@@MAEXPAVCBCGPFrameImpl@@@Z" PURGE="4" COMMENT="" />
    <EXPORT ORDINAL="3821" NAME="?OnCmdMsg@CBCGPPopupMenu@@UAEHIHPAXPAUAFX_CMDHANDLERINFO@@@Z" PURGE="16" COMMENT="" />
    <EXPORT ORDINAL="3822" NAME="?OnColorSelect@CBCGPColorDialog@@IAEXXZ" PURGE="0" COMMENT="" />
    <EXPORT ORDINAL="3823" NAME="?OnColors@CBCGPImageEditDlg@@IAEXXZ" PURGE="0" COMMENT="" />
    <EXPORT ORDINAL="3824" NAME="?OnColumnClick@CBCGPListCtrl@@IAEXPAUtagNMHDR@@PAJ@Z" PURGE="8" COMMENT="" />
    <EXPORT ORDINAL="3825" NAME="?OnComboKillFocus@CBCGPPropList@@IAEXXZ" PURGE="0" COMMENT="" />
    <EXPORT ORDINAL="3826" NAME="?OnCommand@CBCGPDialog@@MAEHIJ@Z" PURGE="8" COMMENT="" />
    <EXPORT ORDINAL="3827" NAME="?OnCommand@CBCGPDlgImpl@@IAEHIJ@Z" PURGE="8" COMMENT="" />
    <EXPORT ORDINAL="3828" NAME="?OnCommand@CBCGPEditListBase@@MAEHIJ@Z" PURGE="8" COMMENT="" />
    <EXPORT ORDINAL="3829" NAME="?OnCommand@CBCGPFrameWnd@@MAEHIJ@Z" PURGE="8" COMMENT="" />
    <EXPORT ORDINAL="3830" NAME="?OnCommand@CBCGPMDIFrameWnd@@MAEHIJ@Z" PURGE="8" COMMENT="" />
    <EXPORT ORDINAL="3831" NAME="?OnCommand@CBCGPOleDocIPFrameWnd@@MAEHIJ@Z" PURGE="8" COMMENT="" />
    <EXPORT ORDINAL="3832" NAME="?OnCommand@CBCGPOleIPFrameWnd@@MAEHIJ@Z" PURGE="8" COMMENT="" />
    <EXPORT ORDINAL="3833" NAME="?OnCommand@CBCGPOutlookWnd@@MAEHIJ@Z" PURGE="8" COMMENT="" />
    <EXPORT ORDINAL="3834" NAME="?OnCommand@CBCGPPropertyPage@@MAEHIJ@Z" PURGE="8" COMMENT="" />
    <EXPORT ORDINAL="3835" NAME="?OnCommand@CBCGPTabWnd@@MAEHIJ@Z" PURGE="8" COMMENT="" />
    <EXPORT ORDINAL="3836" NAME="?OnCommand@CBCGPToolBar@@MAEHIJ@Z" PURGE="8" COMMENT="" />
    <EXPORT ORDINAL="3837" NAME="?OnCommand@CBCGPToolBoxPage@@MAEHIJ@Z" PURGE="8" COMMENT="" />
    <EXPORT ORDINAL="3838" NAME="?OnCommand@CBCGPToolbarCustomize@@MAEHIJ@Z" PURGE="8" COMMENT="" />
    <EXPORT ORDINAL="3839" NAME="?OnCompareItems@CBCGPListCtrl@@UAEHJJH@Z" PURGE="12" COMMENT="" />
    <EXPORT ORDINAL="3840" NAME="?OnCompareItems@CBCGPShellList@@UAEHJJH@Z" PURGE="12" COMMENT="" />
    <EXPORT ORDINAL="3841" NAME="?OnContextHelp@CBCGPDropDownToolbarButton@@UAEHPAVCWnd@@@Z" PURGE="4" COMMENT="" />
    <EXPORT ORDINAL="3842" NAME="?OnContextHelp@CBCGPFrameWnd@@QAEXXZ" PURGE="0" COMMENT="" />
    <EXPORT ORDINAL="3843" NAME="?OnContextHelp@CBCGPMDIFrameWnd@@IAEXXZ" PURGE="0" COMMENT="" />
    <EXPORT ORDINAL="3844" NAME="?OnContextHelp@CBCGPOleDocIPFrameWnd@@IAEXXZ" PURGE="0" COMMENT="" />
    <EXPORT ORDINAL="3845" NAME="?OnContextHelp@CBCGPOleIPFrameWnd@@IAEXXZ" PURGE="0" COMMENT="" />
    <EXPORT ORDINAL="3846" NAME="?OnContextHelp@CBCGPToolbarButton@@UAEHPAVCWnd@@@Z" PURGE="4" COMMENT="" />
    <EXPORT ORDINAL="3847" NAME="?OnContextHelp@CBCGPToolbarMenuButton@@UAEHPAVCWnd@@@Z" PURGE="4" COMMENT="" />
    <EXPORT ORDINAL="3848" NAME="?OnContextMenu@CBCGPComboEdit@@IAEXPAVCWnd@@VCPoint@@@Z" PURGE="12" COMMENT="" />
    <EXPORT ORDINAL="3849" NAME="?OnContextMenu@CBCGPControlBar@@IAEXPAVCWnd@@VCPoint@@@Z" PURGE="12" COMMENT="" />
    <EXPORT ORDINAL="3850" NAME="?OnContextMenu@CBCGPDockBar@@IAEXPAVCWnd@@VCPoint@@@Z" PURGE="12" COMMENT="" />
    <EXPORT ORDINAL="3851" NAME="?OnContextMenu@CBCGPDockingControlBar@@IAEXPAVCWnd@@VCPoint@@@Z" PURGE="12" COMMENT="" />
    <EXPORT ORDINAL="3852" NAME="?OnContextMenu@CBCGPMDIFrameWnd@@IAEXPAVCWnd@@VCPoint@@@Z" PURGE="12" COMMENT="" />
    <EXPORT ORDINAL="3853" NAME="?OnContextMenu@CBCGPMiniFrameWnd@@IAEXPAVCWnd@@VCPoint@@@Z" PURGE="12" COMMENT="" />
    <EXPORT ORDINAL="3854" NAME="?OnContextMenu@CBCGPPrintPreviewToolBar@@IAEXPAVCWnd@@VCPoint@@@Z" PURGE="12" COMMENT="" />
    <EXPORT ORDINAL="3855" NAME="?OnContextMenu@CBCGPShellList@@IAEXPAVCWnd@@VCPoint@@@Z" PURGE="12" COMMENT="" />
    <EXPORT ORDINAL="3856" NAME="?OnContextMenu@CBCGPShellTree@@IAEXPAVCWnd@@VCPoint@@@Z" PURGE="12" COMMENT="" />
    <EXPORT ORDINAL="3857" NAME="?OnContextMenu@CBCGPToolBar@@IAEXPAVCWnd@@VCPoint@@@Z" PURGE="12" COMMENT="" />
    <EXPORT ORDINAL="3858" NAME="?OnContextMenu@CBCGPToolbarCustomize@@IAEXPAVCWnd@@VCPoint@@@Z" PURGE="12" COMMENT="" />
    <EXPORT ORDINAL="3859" NAME="?OnContinueMoving@CBCGPControlBar@@MAEXXZ" PURGE="0" COMMENT="" />
    <EXPORT ORDINAL="3860" NAME="?OnContinueMoving@CBCGPDockingControlBar@@MAEXXZ" PURGE="0" COMMENT="" />
    <EXPORT ORDINAL="3861" NAME="?OnCopy@CBCGPKeyMapDlg@@IAEXXZ" PURGE="-1" COMMENT="" />
    <EXPORT ORDINAL="3862" NAME="?OnCreate@CBCGPAutoHideToolBar@@IAEHPAUtagCREATESTRUCTA@@@Z" PURGE="4" COMMENT="" />
    <EXPORT ORDINAL="3863" NAME="?OnCreate@CBCGPBaseTabWnd@@IAEHPAUtagCREATESTRUCTA@@@Z" PURGE="4" COMMENT="" />
    <EXPORT ORDINAL="3864" NAME="?OnCreate@CBCGPCalculator@@IAEHPAUtagCREATESTRUCTA@@@Z" PURGE="4" COMMENT="" />
    <EXPORT ORDINAL="3865" NAME="?OnCreate@CBCGPCalendarBar@@IAEHPAUtagCREATESTRUCTA@@@Z" PURGE="4" COMMENT="" />
    <EXPORT ORDINAL="3866" NAME="?OnCreate@CBCGPCaptionBar@@IAEHPAUtagCREATESTRUCTA@@@Z" PURGE="4" COMMENT="" />
    <EXPORT ORDINAL="3867" NAME="?OnCreate@CBCGPColorBar@@IAEHPAUtagCREATESTRUCTA@@@Z" PURGE="4" COMMENT="" />
    <EXPORT ORDINAL="3868" NAME="?OnCreate@CBCGPDateTimeCtrl@@IAEHPAUtagCREATESTRUCTA@@@Z" PURGE="4" COMMENT="" />
    <EXPORT ORDINAL="3869" NAME="?OnCreate@CBCGPDockingControlBar@@IAEHPAUtagCREATESTRUCTA@@@Z" PURGE="4" COMMENT="" />
    <EXPORT ORDINAL="3870" NAME="?OnCreate@CBCGPEditCtrl@@IAEHPAUtagCREATESTRUCTA@@@Z" PURGE="4" COMMENT="" />
    <EXPORT ORDINAL="3871" NAME="?OnCreate@CBCGPEditListBase@@IAEHPAUtagCREATESTRUCTA@@@Z" PURGE="4" COMMENT="" />
    <EXPORT ORDINAL="3872" NAME="?OnCreate@CBCGPEditView@@IAEHPAUtagCREATESTRUCTA@@@Z" PURGE="4" COMMENT="" />
    <EXPORT ORDINAL="3873" NAME="?OnCreate@CBCGPFontComboBox@@IAEHPAUtagCREATESTRUCTA@@@Z" PURGE="4" COMMENT="" />
    <EXPORT ORDINAL="3874" NAME="?OnCreate@CBCGPHeaderCtrl@@IAEHPAUtagCREATESTRUCTA@@@Z" PURGE="4" COMMENT="" />
    <EXPORT ORDINAL="3875" NAME="?OnCreate@CBCGPHotSpotImageCtrl@@IAEHPAUtagCREATESTRUCTA@@@Z" PURGE="4" COMMENT="" />
    <EXPORT ORDINAL="3876" NAME="?OnCreate@CBCGPIntelliSenseLB@@IAEHPAUtagCREATESTRUCTA@@@Z" PURGE="4" COMMENT="" />
    <EXPORT ORDINAL="3877" NAME="?OnCreate@CBCGPListCtrl@@IAEHPAUtagCREATESTRUCTA@@@Z" PURGE="4" COMMENT="" />
    <EXPORT ORDINAL="3878" NAME="?OnCreate@CBCGPMDIChildWnd@@IAEHPAUtagCREATESTRUCTA@@@Z" PURGE="4" COMMENT="" />
    <EXPORT ORDINAL="3879" NAME="?OnCreate@CBCGPMDIFrameWnd@@IAEHPAUtagCREATESTRUCTA@@@Z" PURGE="4" COMMENT="" />
    <EXPORT ORDINAL="3880" NAME="?OnCreate@CBCGPMaskEdit@@IAEHPAUtagCREATESTRUCTA@@@Z" PURGE="4" COMMENT="" />
    <EXPORT ORDINAL="3881" NAME="?OnCreate@CBCGPMenuBar@@IAEHPAUtagCREATESTRUCTA@@@Z" PURGE="4" COMMENT="" />
    <EXPORT ORDINAL="3882" NAME="?OnCreate@CBCGPMiniFrameWnd@@IAEHPAUtagCREATESTRUCTA@@@Z" PURGE="4" COMMENT="" />
    <EXPORT ORDINAL="3883" NAME="?OnCreate@CBCGPMultiMiniFrameWnd@@IAEHPAUtagCREATESTRUCTA@@@Z" PURGE="4" COMMENT="" />
    <EXPORT ORDINAL="3884" NAME="?OnCreate@CBCGPOutlookBar@@IAEHPAUtagCREATESTRUCTA@@@Z" PURGE="4" COMMENT="" />
    <EXPORT ORDINAL="3885" NAME="?OnCreate@CBCGPOutlookBarPane@@IAEHPAUtagCREATESTRUCTA@@@Z" PURGE="4" COMMENT="" />
    <EXPORT ORDINAL="3886" NAME="?OnCreate@CBCGPOutlookControlBar@@IAEHPAUtagCREATESTRUCTA@@@Z" PURGE="4" COMMENT="" />
    <EXPORT ORDINAL="3887" NAME="?OnCreate@CBCGPOutlookWnd@@IAEHPAUtagCREATESTRUCTA@@@Z" PURGE="4" COMMENT="" />
    <EXPORT ORDINAL="3888" NAME="?OnCreate@CBCGPPopupMenu@@IAEHPAUtagCREATESTRUCTA@@@Z" PURGE="4" COMMENT="" />
    <EXPORT ORDINAL="3889" NAME="?OnCreate@CBCGPPopupMenuBar@@IAEHPAUtagCREATESTRUCTA@@@Z" PURGE="4" COMMENT="" />
    <EXPORT ORDINAL="3890" NAME="?OnCreate@CBCGPPrintPreviewView@@IAEHPAUtagCREATESTRUCTA@@@Z" PURGE="4" COMMENT="" />
    <EXPORT ORDINAL="3891" NAME="?OnCreate@CBCGPPropList@@IAEHPAUtagCREATESTRUCTA@@@Z" PURGE="4" COMMENT="" />
    <EXPORT ORDINAL="3892" NAME="?OnCreate@CBCGPShellList@@IAEHPAUtagCREATESTRUCTA@@@Z" PURGE="4" COMMENT="" />
    <EXPORT ORDINAL="3893" NAME="?OnCreate@CBCGPShellTree@@IAEHPAUtagCREATESTRUCTA@@@Z" PURGE="4" COMMENT="" />
    <EXPORT ORDINAL="3894" NAME="?OnCreate@CBCGPSlider@@IAEHPAUtagCREATESTRUCTA@@@Z" PURGE="4" COMMENT="" />
    <EXPORT ORDINAL="3895" NAME="?OnCreate@CBCGPStatusBar@@IAEHPAUtagCREATESTRUCTA@@@Z" PURGE="4" COMMENT="" />
    <EXPORT ORDINAL="3896" NAME="?OnCreate@CBCGPTabView@@IAEHPAUtagCREATESTRUCTA@@@Z" PURGE="4" COMMENT="" />
    <EXPORT ORDINAL="3897" NAME="?OnCreate@CBCGPTabWnd@@IAEHPAUtagCREATESTRUCTA@@@Z" PURGE="4" COMMENT="" />
    <EXPORT ORDINAL="3898" NAME="?OnCreate@CBCGPTabbedControlBar@@IAEHPAUtagCREATESTRUCTA@@@Z" PURGE="4" COMMENT="" />
    <EXPORT ORDINAL="3899" NAME="?OnCreate@CBCGPTabbedToolbar@@IAEHPAUtagCREATESTRUCTA@@@Z" PURGE="4" COMMENT="" />
    <EXPORT ORDINAL="3900" NAME="?OnCreate@CBCGPTasksPane@@IAEHPAUtagCREATESTRUCTA@@@Z" PURGE="4" COMMENT="" />
    <EXPORT ORDINAL="3901" NAME="?OnCreate@CBCGPToolBar@@IAEHPAUtagCREATESTRUCTA@@@Z" PURGE="4" COMMENT="" />
    <EXPORT ORDINAL="3902" NAME="?OnCreate@CBCGPToolBox@@IAEHPAUtagCREATESTRUCTA@@@Z" PURGE="4" COMMENT="" />
    <EXPORT ORDINAL="3903" NAME="?OnCreate@CBCGPToolBoxEx@@IAEHPAUtagCREATESTRUCTA@@@Z" PURGE="4" COMMENT="" />
    <EXPORT ORDINAL="3904" NAME="?OnCreate@CBCGPToolbarCustomize@@IAEHPAUtagCREATESTRUCTA@@@Z" PURGE="4" COMMENT="" />
    <EXPORT ORDINAL="3905" NAME="?OnCreate@CColorPopup@@IAEHPAUtagCREATESTRUCTA@@@Z" PURGE="4" COMMENT="" />
    <EXPORT ORDINAL="3906" NAME="?OnCreateClient@CBCGPMDIFrameWnd@@MAEHPAUtagCREATESTRUCTA@@PAUCCreateContext@@@Z" PURGE="8" COMMENT="" />
    <EXPORT ORDINAL="3907" NAME="?OnCreateControlBars@CBCGPOleDocIPFrameWnd@@MAEHPAVCFrameWnd@@0@Z" PURGE="8" COMMENT="" />
    <EXPORT ORDINAL="3908" NAME="?OnCreateControlBars@CBCGPOleIPFrameWnd@@MAEHPAVCFrameWnd@@0@Z" PURGE="8" COMMENT="" />
    <EXPORT ORDINAL="3909" NAME="?OnCreateList@CBCGPEditListBox@@MAEPAVCWnd@@XZ" PURGE="0" COMMENT="" />
    <EXPORT ORDINAL="3910" NAME="?OnCtlColor@CBCGPDialog@@IAEPAUHBRUSH__@@PAVCDC@@PAVCWnd@@I@Z" PURGE="12" COMMENT="" />
    <EXPORT ORDINAL="3911" NAME="?OnCtlColor@CBCGPProp@@MAEPAUHBRUSH__@@PAVCDC@@I@Z" PURGE="8" COMMENT="" />
    <EXPORT ORDINAL="3912" NAME="?OnCtlColor@CBCGPPropList@@IAEPAUHBRUSH__@@PAVCDC@@PAVCWnd@@I@Z" PURGE="12" COMMENT="" />
    <EXPORT ORDINAL="3913" NAME="?OnCtlColor@CBCGPToolBar@@IAEPAUHBRUSH__@@PAVCDC@@PAVCWnd@@I@Z" PURGE="12" COMMENT="" />
    <EXPORT ORDINAL="3914" NAME="?OnCtlColor@CBCGPToolbarButton@@UAEPAUHBRUSH__@@PAVCDC@@I@Z" PURGE="8" COMMENT="" />
    <EXPORT ORDINAL="3915" NAME="?OnCtlColor@CBCGPToolbarComboBoxButton@@UAEPAUHBRUSH__@@PAVCDC@@I@Z" PURGE="8" COMMENT="" />
    <EXPORT ORDINAL="3916" NAME="?OnCtlColor@CBCGPToolbarDateTimeCtrl@@UAEPAUHBRUSH__@@PAVCDC@@I@Z" PURGE="8" COMMENT="" />
    <EXPORT ORDINAL="3917" NAME="?OnCtlColor@CBCGPToolbarEditBoxButton@@UAEPAUHBRUSH__@@PAVCDC@@I@Z" PURGE="8" COMMENT="" />
    <EXPORT ORDINAL="3918" NAME="?OnCustomDraw@CBCGPListCtrl@@IAEXPAUtagNMHDR@@PAJ@Z" PURGE="8" COMMENT="" />
    <EXPORT ORDINAL="3919" NAME="?OnCustomizeMenu@CBCGPDropDownToolbarButton@@UAEHPAVCMenu@@@Z" PURGE="4" COMMENT="" />
    <EXPORT ORDINAL="3920" NAME="?OnCustomizeMenu@CBCGPToolbarButton@@UAEHPAVCMenu@@@Z" PURGE="4" COMMENT="" />
    <EXPORT ORDINAL="3921" NAME="?OnCustomizeMode@CBCGPToolBar@@MAEXH@Z" PURGE="4" COMMENT="" />
    <EXPORT ORDINAL="3922" NAME="?OnDateChanged@CBCGPDateTimeCtrl@@MAEXXZ" PURGE="0" COMMENT="" />
    <EXPORT ORDINAL="3923" NAME="?OnDblClick@CBCGPProp@@UAEHVCPoint@@@Z" PURGE="8" COMMENT="" />
    <EXPORT ORDINAL="3924" NAME="?OnDblClick@CBCGPToolbarButton@@UAEXPAVCWnd@@@Z" PURGE="4" COMMENT="" />
    <EXPORT ORDINAL="3925" NAME="?OnDblclk@CBCGPBaseIntelliSenseLB@@IAEXXZ" PURGE="0" COMMENT="" />
    <EXPORT ORDINAL="3926" NAME="?OnDblclk@CBCGPShellList@@IAEXPAUtagNMHDR@@PAJ@Z" PURGE="8" COMMENT="" />
    <EXPORT ORDINAL="3927" NAME="?OnDblclkList@CBCGPEditListBox@@IAEXPAUtagNMHDR@@PAJ@Z" PURGE="8" COMMENT="" />
    <EXPORT ORDINAL="3928" NAME="?OnDefaultMenuLoaded@CBCGPMenuBar@@UAEXPAUHMENU__@@@Z" PURGE="4" COMMENT="" />
    <EXPORT ORDINAL="3929" NAME="?OnDelete@CBCGPEditCtrl@@UAEHHH@Z" PURGE="8" COMMENT="" />
    <EXPORT ORDINAL="3930" NAME="?OnDeleteTextFromBuffer@CBCGPEditCtrl@@UAEXHHPBD@Z" PURGE="12" COMMENT="" />
    <EXPORT ORDINAL="3931" NAME="?OnDeleteitem@CBCGPShellList@@IAEXPAUtagNMHDR@@PAJ@Z" PURGE="8" COMMENT="" />
    <EXPORT ORDINAL="3932" NAME="?OnDeleteitem@CBCGPShellTree@@IAEXPAUtagNMHDR@@PAJ@Z" PURGE="8" COMMENT="" />
    <EXPORT ORDINAL="3933" NAME="?OnDestroy@CBCGPAppBarWnd@@IAEXXZ" PURGE="-1" COMMENT="" />
    <EXPORT ORDINAL="3934" NAME="?OnDestroy@CBCGPBaseIntelliSenseLB@@IAEXXZ" PURGE="-1" COMMENT="" />
    <EXPORT ORDINAL="3935" NAME="?OnDestroy@CBCGPBaseTabWnd@@IAEXXZ" PURGE="-1" COMMENT="" />
    <EXPORT ORDINAL="3936" NAME="?OnDestroy@CBCGPCalculator@@IAEXXZ" PURGE="0" COMMENT="" />
    <EXPORT ORDINAL="3937" NAME="?OnDestroy@CBCGPCalendarBar@@IAEXXZ" PURGE="0" COMMENT="" />
    <EXPORT ORDINAL="3938" NAME="?OnDestroy@CBCGPColorBar@@IAEXXZ" PURGE="0" COMMENT="" />
    <EXPORT ORDINAL="3939" NAME="?OnDestroy@CBCGPColorDialog@@IAEXXZ" PURGE="-1" COMMENT="" />
    <EXPORT ORDINAL="3940" NAME="?OnDestroy@CBCGPControlBar@@IAEXXZ" PURGE="0" COMMENT="" />
    <EXPORT ORDINAL="3941" NAME="?OnDestroy@CBCGPDialog@@IAEXXZ" PURGE="-1" COMMENT="" />
    <EXPORT ORDINAL="3942" NAME="?OnDestroy@CBCGPDlgImpl@@IAEXXZ" PURGE="0" COMMENT="" />
    <EXPORT ORDINAL="3943" NAME="?OnDestroy@CBCGPDockBar@@IAEXXZ" PURGE="-1" COMMENT="" />
    <EXPORT ORDINAL="3944" NAME="?OnDestroy@CBCGPDockingControlBar@@IAEXXZ" PURGE="0" COMMENT="" />
    <EXPORT ORDINAL="3945" NAME="?OnDestroy@CBCGPEditView@@IAEXXZ" PURGE="-1" COMMENT="" />
    <EXPORT ORDINAL="3946" NAME="?OnDestroy@CBCGPFontComboBox@@IAEXXZ" PURGE="-1" COMMENT="" />
    <EXPORT ORDINAL="3947" NAME="?OnDestroy@CBCGPFrameWnd@@QAEXXZ" PURGE="0" COMMENT="" />
    <EXPORT ORDINAL="3948" NAME="?OnDestroy@CBCGPIntelliSenseWnd@@IAEXXZ" PURGE="-1" COMMENT="" />
    <EXPORT ORDINAL="3949" NAME="?OnDestroy@CBCGPKeyMapDlg@@IAEXXZ" PURGE="0" COMMENT="" />
    <EXPORT ORDINAL="3950" NAME="?OnDestroy@CBCGPMDIChildWnd@@IAEXXZ" PURGE="0" COMMENT="" />
    <EXPORT ORDINAL="3951" NAME="?OnDestroy@CBCGPMDIFrameWnd@@IAEXXZ" PURGE="0" COMMENT="" />
    <EXPORT ORDINAL="3952" NAME="?OnDestroy@CBCGPMiniFrameWnd@@IAEXXZ" PURGE="-1" COMMENT="" />
    <EXPORT ORDINAL="3953" NAME="?OnDestroy@CBCGPOleDocIPFrameWnd@@IAEXXZ" PURGE="0" COMMENT="" />
    <EXPORT ORDINAL="3954" NAME="?OnDestroy@CBCGPOleIPFrameWnd@@IAEXXZ" PURGE="0" COMMENT="" />
    <EXPORT ORDINAL="3955" NAME="?OnDestroy@CBCGPPopupMenu@@IAEXXZ" PURGE="-1" COMMENT="" />
    <EXPORT ORDINAL="3956" NAME="?OnDestroy@CBCGPPopupMenuBar@@IAEXXZ" PURGE="0" COMMENT="" />
    <EXPORT ORDINAL="3957" NAME="?OnDestroy@CBCGPPrintPreviewToolBar@@IAEXXZ" PURGE="0" COMMENT="" />
    <EXPORT ORDINAL="3958" NAME="?OnDestroy@CBCGPPropList@@IAEXXZ" PURGE="-1" COMMENT="" />
    <EXPORT ORDINAL="3959" NAME="?OnDestroy@CBCGPShellList@@IAEXXZ" PURGE="-1" COMMENT="" />
    <EXPORT ORDINAL="3960" NAME="?OnDestroy@CBCGPShellTree@@IAEXXZ" PURGE="-1" COMMENT="" />
    <EXPORT ORDINAL="3961" NAME="?OnDestroy@CBCGPSlider@@IAEXXZ" PURGE="-1" COMMENT="" />
    <EXPORT ORDINAL="3962" NAME="?OnDestroy@CBCGPStatusBar@@IAEXXZ" PURGE="0" COMMENT="" />
    <EXPORT ORDINAL="3963" NAME="?OnDestroy@CBCGPTabWnd@@IAEXXZ" PURGE="-1" COMMENT="" />
    <EXPORT ORDINAL="3964" NAME="?OnDestroy@CBCGPTabbedControlBar@@IAEXXZ" PURGE="0" COMMENT="" />
    <EXPORT ORDINAL="3965" NAME="?OnDestroy@CBCGPTasksPane@@IAEXXZ" PURGE="0" COMMENT="" />
    <EXPORT ORDINAL="3966" NAME="?OnDestroy@CBCGPToolBar@@IAEXXZ" PURGE="0" COMMENT="" />
    <EXPORT ORDINAL="3967" NAME="?OnDestroyWindow@CBCGPProp@@MAEXXZ" PURGE="0" COMMENT="" />
    <EXPORT ORDINAL="3968" NAME="?OnDisplayPageNumber@CBCGPPrintPreviewView@@MAEXII@Z" PURGE="8" COMMENT="" />
    <EXPORT ORDINAL="3969" NAME="?OnDockToRecentPos@CBCGPMiniFrameWnd@@UAEXXZ" PURGE="0" COMMENT="" />
    <EXPORT ORDINAL="3970" NAME="?OnDockToRecentPos@CBCGPMultiMiniFrameWnd@@UAEXXZ" PURGE="0" COMMENT="" />
    <EXPORT ORDINAL="3971" NAME="?OnDragComplete@CBCGPMainClientAreaWnd@@IAEJIJ@Z" PURGE="8" COMMENT="" />
    <EXPORT ORDINAL="3972" NAME="?OnDragEnter@CBCGPBaseTabWnd@@UAEKPAVCOleDataObject@@KVCPoint@@@Z" PURGE="16" COMMENT="" />
    <EXPORT ORDINAL="3973" NAME="?OnDragEnter@CBCGPEditCtrl@@UAEKPAVCOleDataObject@@KVCPoint@@@Z" PURGE="16" COMMENT="" />
    <EXPORT ORDINAL="3974" NAME="?OnDragEnter@CBCGPEditCtrlDropTarget@@UAEKPAVCWnd@@PAVCOleDataObject@@KVCPoint@@@Z" PURGE="20" COMMENT="" />
    <EXPORT ORDINAL="3975" NAME="?OnDragEnter@CBCGPOutlookWnd@@MAEKPAVCOleDataObject@@KVCPoint@@@Z" PURGE="16" COMMENT="" />
    <EXPORT ORDINAL="3976" NAME="?OnDragEnter@CBCGPTabDropTarget@@UAEKPAVCWnd@@PAVCOleDataObject@@KVCPoint@@@Z" PURGE="20" COMMENT="" />
    <EXPORT ORDINAL="3977" NAME="?OnDragEnter@CBCGPTabWnd@@UAEKPAVCOleDataObject@@KVCPoint@@@Z" PURGE="16" COMMENT="" />
    <EXPORT ORDINAL="3978" NAME="?OnDragEnter@CBCGPToolBar@@MAEKPAVCOleDataObject@@KVCPoint@@@Z" PURGE="16" COMMENT="" />
    <EXPORT ORDINAL="3979" NAME="?OnDragEnter@CBCGPToolbarDropTarget@@UAEKPAVCWnd@@PAVCOleDataObject@@KVCPoint@@@Z" PURGE="20" COMMENT="" />
    <EXPORT ORDINAL="3980" NAME="?OnDragLeave@CBCGPBaseTabWnd@@UAEXXZ" PURGE="0" COMMENT="" />
    <EXPORT ORDINAL="3981" NAME="?OnDragLeave@CBCGPEditCtrl@@UAEXXZ" PURGE="0" COMMENT="" />
    <EXPORT ORDINAL="3982" NAME="?OnDragLeave@CBCGPEditCtrlDropTarget@@UAEXPAVCWnd@@@Z" PURGE="4" COMMENT="" />
    <EXPORT ORDINAL="3983" NAME="?OnDragLeave@CBCGPTabDropTarget@@UAEXPAVCWnd@@@Z" PURGE="4" COMMENT="" />
    <EXPORT ORDINAL="3984" NAME="?OnDragLeave@CBCGPToolBar@@MAEXXZ" PURGE="0" COMMENT="" />
    <EXPORT ORDINAL="3985" NAME="?OnDragLeave@CBCGPToolbarDropTarget@@UAEXPAVCWnd@@@Z" PURGE="4" COMMENT="" />
    <EXPORT ORDINAL="3986" NAME="?OnDragOver@CBCGPBaseTabWnd@@UAEKPAVCOleDataObject@@KVCPoint@@@Z" PURGE="16" COMMENT="" />
    <EXPORT ORDINAL="3987" NAME="?OnDragOver@CBCGPEditCtrl@@UAEKPAVCOleDataObject@@KVCPoint@@@Z" PURGE="16" COMMENT="" />
    <EXPORT ORDINAL="3988" NAME="?OnDragOver@CBCGPEditCtrlDropTarget@@UAEKPAVCWnd@@PAVCOleDataObject@@KVCPoint@@@Z" PURGE="20" COMMENT="" />
    <EXPORT ORDINAL="3989" NAME="?OnDragOver@CBCGPOutlookBarPane@@MAEKPAVCOleDataObject@@KVCPoint@@@Z" PURGE="16" COMMENT="" />
    <EXPORT ORDINAL="3990" NAME="?OnDragOver@CBCGPOutlookWnd@@MAEKPAVCOleDataObject@@KVCPoint@@@Z" PURGE="16" COMMENT="" />
    <EXPORT ORDINAL="3991" NAME="?OnDragOver@CBCGPPopupMenuBar@@MAEKPAVCOleDataObject@@KVCPoint@@@Z" PURGE="16" COMMENT="" />
    <EXPORT ORDINAL="3992" NAME="?OnDragOver@CBCGPTabDropTarget@@UAEKPAVCWnd@@PAVCOleDataObject@@KVCPoint@@@Z" PURGE="20" COMMENT="" />
    <EXPORT ORDINAL="3993" NAME="?OnDragOver@CBCGPTabWnd@@UAEKPAVCOleDataObject@@KVCPoint@@@Z" PURGE="16" COMMENT="" />
    <EXPORT ORDINAL="3994" NAME="?OnDragOver@CBCGPToolBar@@MAEKPAVCOleDataObject@@KVCPoint@@@Z" PURGE="16" COMMENT="" />
    <EXPORT ORDINAL="3995" NAME="?OnDragOver@CBCGPToolbarDropTarget@@UAEKPAVCWnd@@PAVCOleDataObject@@KVCPoint@@@Z" PURGE="20" COMMENT="" />
    <EXPORT ORDINAL="3996" NAME="?OnDraw@CBCGPAutoHideButton@@UAEXPAVCDC@@@Z" PURGE="4" COMMENT="" />
    <EXPORT ORDINAL="3997" NAME="?OnDraw@CBCGPButton@@MAEXPAVCDC@@ABVCRect@@I@Z" PURGE="12" COMMENT="" />
    <EXPORT ORDINAL="3998" NAME="?OnDraw@CBCGPCalendarButton@@MAEXPAVCDC@@ABVCRect@@PAVCBCGPToolBarImages@@HHHHH@Z" PURGE="32" COMMENT="" />
    <EXPORT ORDINAL="3999" NAME="?OnDraw@CBCGPCalendarMenuButton@@MAEXPAVCDC@@ABVCRect@@PAVCBCGPToolBarImages@@HHHHH@Z" PURGE="32" COMMENT="" />
    <EXPORT ORDINAL="4000" NAME="?OnDraw@CBCGPCaptionButton@@UAEXPAVCDC@@HHHH@Z" PURGE="20" COMMENT="" />
    <EXPORT ORDINAL="4001" NAME="?OnDraw@CBCGPCaptionMenuButton@@UAEXPAVCDC@@HHHH@Z" PURGE="20" COMMENT="" />
    <EXPORT ORDINAL="4002" NAME="?OnDraw@CBCGPColorButton@@MAEXPAVCDC@@ABVCRect@@I@Z" PURGE="12" COMMENT="" />
    <EXPORT ORDINAL="4003" NAME="?OnDraw@CBCGPColorMenuButton@@MAEXPAVCDC@@ABVCRect@@PAVCBCGPToolBarImages@@HHHHH@Z" PURGE="32" COMMENT="" />
    <EXPORT ORDINAL="4004" NAME="?OnDraw@CBCGPCustomizeMenuButton@@MAEXPAVCDC@@ABVCRect@@PAVCBCGPToolBarImages@@HHHHH@Z" PURGE="32" COMMENT="" />
    <EXPORT ORDINAL="4005" NAME="?OnDraw@CBCGPDropDownToolbarButton@@UAEXPAVCDC@@ABVCRect@@PAVCBCGPToolBarImages@@HHHHH@Z" PURGE="32" COMMENT="" />
    <EXPORT ORDINAL="4006" NAME="?OnDraw@CBCGPEditView@@MAEXPAVCDC@@@Z" PURGE="4" COMMENT="" />
    <EXPORT ORDINAL="4007" NAME="?OnDraw@CBCGPMenuButton@@MAEXPAVCDC@@ABVCRect@@I@Z" PURGE="12" COMMENT="" />
    <EXPORT ORDINAL="4008" NAME="?OnDraw@CBCGPOutlookButton@@UAEXPAVCDC@@ABVCRect@@PAVCBCGPToolBarImages@@HHHHH@Z" PURGE="32" COMMENT="" />
    <EXPORT ORDINAL="4009" NAME="?OnDraw@CBCGPTabView@@MAEXPAVCDC@@@Z" PURGE="4" COMMENT="" />
    <EXPORT ORDINAL="4010" NAME="?OnDraw@CBCGPToolbarButton@@UAEXPAVCDC@@ABVCRect@@PAVCBCGPToolBarImages@@HHHHH@Z" PURGE="32" COMMENT="" />
    <EXPORT ORDINAL="4011" NAME="?OnDraw@CBCGPToolbarComboBoxButton@@UAEXPAVCDC@@ABVCRect@@PAVCBCGPToolBarImages@@HHHHH@Z" PURGE="32" COMMENT="" />
    <EXPORT ORDINAL="4012" NAME="?OnDraw@CBCGPToolbarDateTimeCtrl@@UAEXPAVCDC@@ABVCRect@@PAVCBCGPToolBarImages@@HHHHH@Z" PURGE="32" COMMENT="" />
    <EXPORT ORDINAL="4013" NAME="?OnDraw@CBCGPToolbarEditBoxButton@@UAEXPAVCDC@@ABVCRect@@PAVCBCGPToolBarImages@@HHHHH@Z" PURGE="32" COMMENT="" />
    <EXPORT ORDINAL="4014" NAME="?OnDraw@CBCGPToolbarMenuButton@@UAEXPAVCDC@@ABVCRect@@PAVCBCGPToolBarImages@@HHHHH@Z" PURGE="32" COMMENT="" />
    <EXPORT ORDINAL="4015" NAME="?OnDraw@CBCGPURLLinkButton@@MAEXPAVCDC@@ABVCRect@@I@Z" PURGE="12" COMMENT="" />
    <EXPORT ORDINAL="4016" NAME="?OnDrawAppBarBorder@CBCGPVisualManager@@UAEXPAVCDC@@PAVCBCGPAppBarWnd@@VCRect@@2@Z" PURGE="40" COMMENT="" />
    <EXPORT ORDINAL="4017" NAME="?OnDrawAppBarBorder@CBCGPVisualManagerXP@@MAEXPAVCDC@@PAVCBCGPAppBarWnd@@VCRect@@2@Z" PURGE="40" COMMENT="" />
    <EXPORT ORDINAL="4018" NAME="?OnDrawAppBarCaption@CBCGPVisualManager@@UAEXPAVCDC@@PAVCBCGPAppBarWnd@@VCRect@@V?$CStringT@DV?$StrTraitMFC_DLL@DV?$ChTraitsCRT@D@ATL@@@@@ATL@@@Z" PURGE="28" COMMENT="" />
    <EXPORT ORDINAL="4019" NAME="?OnDrawAutoHideButtonBorder@CBCGPVisualManager2003@@UAEXPAVCDC@@VCRect@@1PAVCBCGPAutoHideButton@@@Z" PURGE="40" COMMENT="" />
    <EXPORT ORDINAL="4020" NAME="?OnDrawAutoHideButtonBorder@CBCGPVisualManager@@UAEXPAVCDC@@VCRect@@1PAVCBCGPAutoHideButton@@@Z" PURGE="40" COMMENT="" />
    <EXPORT ORDINAL="4021" NAME="?OnDrawAutoHideButtonBorder@CBCGPVisualManagerVS2005@@UAEXPAVCDC@@VCRect@@1PAVCBCGPAutoHideButton@@@Z" PURGE="40" COMMENT="" />
    <EXPORT ORDINAL="4022" NAME="?OnDrawBackground@CBCGPCaptionBar@@MAEXPAVCDC@@VCRect@@@Z" PURGE="20" COMMENT="" />
    <EXPORT ORDINAL="4023" NAME="?OnDrawBarBorder@CBCGPVisualManager2003@@UAEXPAVCDC@@PAVCBCGPBaseControlBar@@AAVCRect@@@Z" PURGE="12" COMMENT="" />
    <EXPORT ORDINAL="4024" NAME="?OnDrawBarBorder@CBCGPVisualManager@@UAEXPAVCDC@@PAVCBCGPBaseControlBar@@AAVCRect@@@Z" PURGE="12" COMMENT="" />
    <EXPORT ORDINAL="4025" NAME="?OnDrawBarBorder@CBCGPVisualManagerXP@@MAEXPAVCDC@@PAVCBCGPBaseControlBar@@AAVCRect@@@Z" PURGE="12" COMMENT="" />
    <EXPORT ORDINAL="4026" NAME="?OnDrawBarGripper@CBCGPVisualManager2003@@UAEXPAVCDC@@VCRect@@HPAVCBCGPBaseControlBar@@@Z" PURGE="28" COMMENT="" />
    <EXPORT ORDINAL="4027" NAME="?OnDrawBarGripper@CBCGPVisualManager@@UAEXPAVCDC@@VCRect@@HPAVCBCGPBaseControlBar@@@Z" PURGE="28" COMMENT="" />
    <EXPORT ORDINAL="4028" NAME="?OnDrawBarGripper@CBCGPVisualManagerXP@@MAEXPAVCDC@@VCRect@@HPAVCBCGPBaseControlBar@@@Z" PURGE="28" COMMENT="" />
    <EXPORT ORDINAL="4029" NAME="?OnDrawBarGripper@CBCGPWinXPVisualManager@@UAEXPAVCDC@@VCRect@@HPAVCBCGPBaseControlBar@@@Z" PURGE="28" COMMENT="" />
    <EXPORT ORDINAL="4030" NAME="?OnDrawBorder@CBCGPAppBarWnd@@MAEXPAVCDC@@@Z" PURGE="4" COMMENT="" />
    <EXPORT ORDINAL="4031" NAME="?OnDrawBorder@CBCGPAutoHideButton@@UAEXPAVCDC@@VCRect@@1@Z" PURGE="36" COMMENT="" />
    <EXPORT ORDINAL="4032" NAME="?OnDrawBorder@CBCGPButton@@MAEXPAVCDC@@AAVCRect@@I@Z" PURGE="12" COMMENT="" />
    <EXPORT ORDINAL="4033" NAME="?OnDrawBorder@CBCGPCaptionBar@@MAEXPAVCDC@@VCRect@@@Z" PURGE="20" COMMENT="" />
    <EXPORT ORDINAL="4034" NAME="?OnDrawBorder@CBCGPColorButton@@MAEXPAVCDC@@AAVCRect@@I@Z" PURGE="12" COMMENT="" />
    <EXPORT ORDINAL="4035" NAME="?OnDrawBorder@CBCGPEditCtrl@@UAEXPAVCDC@@VCRect@@@Z" PURGE="20" COMMENT="" />
    <EXPORT ORDINAL="4036" NAME="?OnDrawBorder@CBCGPMiniFrameWnd@@MAEXPAVCDC@@@Z" PURGE="4" COMMENT="" />
    <EXPORT ORDINAL="4037" NAME="?OnDrawBorder@CBCGPPropList@@MAEXPAVCDC@@@Z" PURGE="4" COMMENT="" />
    <EXPORT ORDINAL="4038" NAME="?OnDrawBorder@CBCGPTaskPaneMiniFrameWnd@@MAEXPAVCDC@@@Z" PURGE="4" COMMENT="" />
    <EXPORT ORDINAL="4039" NAME="?OnDrawBorder@CBCGPToolBoxButton@@UAEXPAVCDC@@AAVCRect@@I@Z" PURGE="12" COMMENT="" />
    <EXPORT ORDINAL="4040" NAME="?OnDrawBrowseButton@CBCGPEdit@@UAEXPAVCDC@@VCRect@@HH@Z" PURGE="28" COMMENT="" />
    <EXPORT ORDINAL="4041" NAME="?OnDrawBrowseButton@CBCGPVisualManager2003@@UAEHPAVCDC@@VCRect@@PAVCBCGPEdit@@W4BCGBUTTON_STATE@CBCGPVisualManager@@AAK@Z" PURGE="32" COMMENT="" />
    <EXPORT ORDINAL="4042" NAME="?OnDrawBrowseButton@CBCGPVisualManager@@UAEHPAVCDC@@VCRect@@PAVCBCGPEdit@@W4BCGBUTTON_STATE@1@AAK@Z" PURGE="32" COMMENT="" />
    <EXPORT ORDINAL="4043" NAME="?OnDrawBrowseButton@CBCGPVisualManagerXP@@MAEHPAVCDC@@VCRect@@PAVCBCGPEdit@@W4BCGBUTTON_STATE@CBCGPVisualManager@@AAK@Z" PURGE="32" COMMENT="" />
    <EXPORT ORDINAL="4044" NAME="?OnDrawBrowseButton@CBCGPWinXPVisualManager@@UAEHPAVCDC@@VCRect@@PAVCBCGPEdit@@W4BCGBUTTON_STATE@CBCGPVisualManager@@AAK@Z" PURGE="32" COMMENT="" />
    <EXPORT ORDINAL="4045" NAME="?OnDrawButton@CBCGPCalculator@@MAEHPAVCDC@@VCRect@@PAVCBCGPToolbarButton@@W4BCGBUTTON_STATE@CBCGPVisualManager@@H@Z" PURGE="32" COMMENT="" />
    <EXPORT ORDINAL="4046" NAME="?OnDrawButton@CBCGPCaptionBar@@MAEXPAVCDC@@VCRect@@ABV?$CStringT@DV?$StrTraitMFC_DLL@DV?$ChTraitsCRT@D@ATL@@@@@ATL@@H@Z" PURGE="28" COMMENT="" />
    <EXPORT ORDINAL="4047" NAME="?OnDrawButton@CBCGPProp@@UAEXPAVCDC@@VCRect@@@Z" PURGE="20" COMMENT="" />
    <EXPORT ORDINAL="4048" NAME="?OnDrawButtonBorder@CBCGPVisualManager2003@@UAEXPAVCDC@@PAVCBCGPToolbarButton@@VCRect@@W4BCGBUTTON_STATE@CBCGPVisualManager@@@Z" PURGE="28" COMMENT="" />
    <EXPORT ORDINAL="4049" NAME="?OnDrawButtonBorder@CBCGPVisualManager@@UAEXPAVCDC@@PAVCBCGPToolbarButton@@VCRect@@W4BCGBUTTON_STATE@1@@Z" PURGE="28" COMMENT="" />
    <EXPORT ORDINAL="4050" NAME="?OnDrawButtonBorder@CBCGPVisualManagerXP@@MAEXPAVCDC@@PAVCBCGPToolbarButton@@VCRect@@W4BCGBUTTON_STATE@CBCGPVisualManager@@@Z" PURGE="28" COMMENT="" />
    <EXPORT ORDINAL="4051" NAME="?OnDrawButtonBorder@CBCGPWinXPVisualManager@@UAEXPAVCDC@@PAVCBCGPToolbarButton@@VCRect@@W4BCGBUTTON_STATE@CBCGPVisualManager@@@Z" PURGE="28" COMMENT="" />
    <EXPORT ORDINAL="4052" NAME="?OnDrawButtonSeparator@CBCGPVisualManager@@UAEXPAVCDC@@PAVCBCGPToolbarButton@@VCRect@@W4BCGBUTTON_STATE@1@H@Z" PURGE="32" COMMENT="" />
    <EXPORT ORDINAL="4053" NAME="?OnDrawButtonSeparator@CBCGPWinXPVisualManager@@UAEXPAVCDC@@PAVCBCGPToolbarButton@@VCRect@@W4BCGBUTTON_STATE@CBCGPVisualManager@@H@Z" PURGE="32" COMMENT="" />
    <EXPORT ORDINAL="4054" NAME="?OnDrawCalculatorButton@CBCGPVisualManager2003@@UAEHPAVCDC@@VCRect@@PAVCBCGPToolbarButton@@W4BCGBUTTON_STATE@CBCGPVisualManager@@HPAVCBCGPCalculator@@@Z" PURGE="36" COMMENT="" />
    <EXPORT ORDINAL="4055" NAME="?OnDrawCalculatorButton@CBCGPVisualManager@@UAEHPAVCDC@@VCRect@@PAVCBCGPToolbarButton@@W4BCGBUTTON_STATE@1@HPAVCBCGPCalculator@@@Z" PURGE="36" COMMENT="" />
    <EXPORT ORDINAL="4056" NAME="?OnDrawCalculatorButton@CBCGPVisualManagerXP@@MAEHPAVCDC@@VCRect@@PAVCBCGPToolbarButton@@W4BCGBUTTON_STATE@CBCGPVisualManager@@HPAVCBCGPCalculator@@@Z" PURGE="36" COMMENT="" />
    <EXPORT ORDINAL="4057" NAME="?OnDrawCalculatorButton@CBCGPWinXPVisualManager@@UAEHPAVCDC@@VCRect@@PAVCBCGPToolbarButton@@W4BCGBUTTON_STATE@CBCGPVisualManager@@HPAVCBCGPCalculator@@@Z" PURGE="36" COMMENT="" />
    <EXPORT ORDINAL="4058" NAME="?OnDrawCalculatorDisplay@CBCGPVisualManager2003@@UAEHPAVCDC@@VCRect@@ABV?$CStringT@DV?$StrTraitMFC_DLL@DV?$ChTraitsCRT@D@ATL@@@@@ATL@@HPAVCBCGPCalculator@@@Z" PURGE="32" COMMENT="" />
    <EXPORT ORDINAL="4059" NAME="?OnDrawCalculatorDisplay@CBCGPVisualManager@@UAEHPAVCDC@@VCRect@@ABV?$CStringT@DV?$StrTraitMFC_DLL@DV?$ChTraitsCRT@D@ATL@@@@@ATL@@HPAVCBCGPCalculator@@@Z" PURGE="32" COMMENT="" />
    <EXPORT ORDINAL="4060" NAME="?OnDrawCalculatorDisplay@CBCGPVisualManagerXP@@MAEHPAVCDC@@VCRect@@ABV?$CStringT@DV?$StrTraitMFC_DLL@DV?$ChTraitsCRT@D@ATL@@@@@ATL@@HPAVCBCGPCalculator@@@Z" PURGE="32" COMMENT="" />
    <EXPORT ORDINAL="4061" NAME="?OnDrawCaption@CBCGPAppBarWnd@@MAEXPAVCDC@@@Z" PURGE="4" COMMENT="" />
    <EXPORT ORDINAL="4062" NAME="?OnDrawCaption@CBCGPBaseControlBar@@UAEXXZ" PURGE="0" COMMENT="" />
    <EXPORT ORDINAL="4063" NAME="?OnDrawCaptionBarBorder@CBCGPVisualManager2003@@UAEXPAVCDC@@PAVCBCGPCaptionBar@@VCRect@@KH@Z" PURGE="32" COMMENT="" />
    <EXPORT ORDINAL="4064" NAME="?OnDrawCaptionBarBorder@CBCGPVisualManager@@UAEXPAVCDC@@PAVCBCGPCaptionBar@@VCRect@@KH@Z" PURGE="32" COMMENT="" />
    <EXPORT ORDINAL="4065" NAME="?OnDrawCaptionButton@CBCGPVisualManager@@UAEXPAVCDC@@PAVCBCGPCaptionButton@@HHHHH@Z" PURGE="28" COMMENT="" />
    <EXPORT ORDINAL="4066" NAME="?OnDrawCaptionButton@CBCGPVisualManagerVS2005@@UAEXPAVCDC@@PAVCBCGPCaptionButton@@HHHHH@Z" PURGE="28" COMMENT="" />
    <EXPORT ORDINAL="4067" NAME="?OnDrawCaptionButton@CBCGPVisualManagerXP@@MAEXPAVCDC@@PAVCBCGPCaptionButton@@HHHHH@Z" PURGE="28" COMMENT="" />
    <EXPORT ORDINAL="4068" NAME="?OnDrawCaptionButton@CBCGPWinXPVisualManager@@UAEXPAVCDC@@PAVCBCGPCaptionButton@@HHHHH@Z" PURGE="28" COMMENT="" />
    <EXPORT ORDINAL="4069" NAME="?OnDrawCaptionButtonIcon@CBCGPVisualManagerXP@@MAEXPAVCDC@@PAVCBCGPCaptionButton@@W4IMAGES_IDS@CMenuImages@@HHVCPoint@@@Z" PURGE="28" COMMENT="" />
    <EXPORT ORDINAL="4070" NAME="?OnDrawCaptionButtonIcon@CBCGPWinXPVisualManager@@UAEXPAVCDC@@PAVCBCGPCaptionButton@@W4IMAGES_IDS@CMenuImages@@HHVCPoint@@@Z" PURGE="28" COMMENT="" />
    <EXPORT ORDINAL="4071" NAME="?OnDrawCaptionButtons@CBCGPMiniFrameWnd@@MAEXPAVCDC@@@Z" PURGE="4" COMMENT="" />
    <EXPORT ORDINAL="4072" NAME="?OnDrawCaptionButtons@CBCGPTaskPaneMiniFrameWnd@@MAEXPAVCDC@@@Z" PURGE="4" COMMENT="" />
    <EXPORT ORDINAL="4073" NAME="?OnDrawCheckBox@CBCGPVisualManager@@UAEXPAVCDC@@VCRect@@HHH@Z" PURGE="32" COMMENT="" />
    <EXPORT ORDINAL="4074" NAME="?OnDrawCheckBox@CBCGPWinXPVisualManager@@UAEXPAVCDC@@VCRect@@HHH@Z" PURGE="32" COMMENT="" />
    <EXPORT ORDINAL="4075" NAME="?OnDrawComboBorder@CBCGPVisualManager2003@@UAEXPAVCDC@@VCRect@@HHHPAVCBCGPToolbarComboBoxButton@@@Z" PURGE="36" COMMENT="" />
    <EXPORT ORDINAL="4076" NAME="?OnDrawComboBorder@CBCGPVisualManager@@UAEXPAVCDC@@VCRect@@HHHPAVCBCGPToolbarComboBoxButton@@@Z" PURGE="36" COMMENT="" />
    <EXPORT ORDINAL="4077" NAME="?OnDrawComboBorder@CBCGPVisualManagerXP@@MAEXPAVCDC@@VCRect@@HHHPAVCBCGPToolbarComboBoxButton@@@Z" PURGE="36" COMMENT="" />
    <EXPORT ORDINAL="4078" NAME="?OnDrawComboBorder@CBCGPWinXPVisualManager@@UAEXPAVCDC@@VCRect@@HHHPAVCBCGPToolbarComboBoxButton@@@Z" PURGE="36" COMMENT="" />
    <EXPORT ORDINAL="4079" NAME="?OnDrawComboDropButton@CBCGPVisualManager2003@@UAEXPAVCDC@@VCRect@@HHHPAVCBCGPToolbarComboBoxButton@@@Z" PURGE="36" COMMENT="" />
    <EXPORT ORDINAL="4080" NAME="?OnDrawComboDropButton@CBCGPVisualManager@@UAEXPAVCDC@@VCRect@@HHHPAVCBCGPToolbarComboBoxButton@@@Z" PURGE="36" COMMENT="" />
    <EXPORT ORDINAL="4081" NAME="?OnDrawComboDropButton@CBCGPVisualManagerXP@@MAEXPAVCDC@@VCRect@@HHHPAVCBCGPToolbarComboBoxButton@@@Z" PURGE="36" COMMENT="" />
    <EXPORT ORDINAL="4082" NAME="?OnDrawComboDropButton@CBCGPWinXPVisualManager@@UAEXPAVCDC@@VCRect@@HHHPAVCBCGPToolbarComboBoxButton@@@Z" PURGE="36" COMMENT="" />
    <EXPORT ORDINAL="4083" NAME="?OnDrawControlBarCaption@CBCGPVisualManager2003@@UAEKPAVCDC@@PAVCBCGPDockingControlBar@@HVCRect@@2@Z" PURGE="44" COMMENT="" />
    <EXPORT ORDINAL="4084" NAME="?OnDrawControlBarCaption@CBCGPVisualManager@@UAEKPAVCDC@@PAVCBCGPDockingControlBar@@HVCRect@@2@Z" PURGE="44" COMMENT="" />
    <EXPORT ORDINAL="4085" NAME="?OnDrawControlBarCaption@CBCGPVisualManagerVS2005@@UAEKPAVCDC@@PAVCBCGPDockingControlBar@@HVCRect@@2@Z" PURGE="44" COMMENT="" />
    <EXPORT ORDINAL="4086" NAME="?OnDrawControlBarCaption@CBCGPVisualManagerXP@@MAEKPAVCDC@@PAVCBCGPDockingControlBar@@HVCRect@@2@Z" PURGE="44" COMMENT="" />
    <EXPORT ORDINAL="4087" NAME="?OnDrawControlBorder@CBCGPVisualManager2003@@UAEXPAVCWnd@@@Z" PURGE="4" COMMENT="" />
    <EXPORT ORDINAL="4088" NAME="?OnDrawControlBorder@CBCGPVisualManager@@UAEXPAVCWnd@@@Z" PURGE="4" COMMENT="" />
    <EXPORT ORDINAL="4089" NAME="?OnDrawControlBorder@CBCGPVisualManagerXP@@MAEXPAVCWnd@@@Z" PURGE="4" COMMENT="" />
    <EXPORT ORDINAL="4090" NAME="?OnDrawControlBorder@CBCGPWinXPVisualManager@@UAEXPAVCWnd@@@Z" PURGE="4" COMMENT="" />
    <EXPORT ORDINAL="4091" NAME="?OnDrawDescription@CBCGPProp@@UAEXPAVCDC@@VCRect@@@Z" PURGE="20" COMMENT="" />
    <EXPORT ORDINAL="4092" NAME="?OnDrawDescription@CBCGPPropList@@MAEXPAVCDC@@VCRect@@@Z" PURGE="20" COMMENT="" />
    <EXPORT ORDINAL="4093" NAME="?OnDrawDisplay@CBCGPCalculator@@MAEHPAVCDC@@VCRect@@ABV?$CStringT@DV?$StrTraitMFC_DLL@DV?$ChTraitsCRT@D@ATL@@@@@ATL@@H@Z" PURGE="28" COMMENT="" />
    <EXPORT ORDINAL="4094" NAME="?OnDrawDragRect@CBCGPControlBar@@MAEXPBUtagRECT@@0@Z" PURGE="8" COMMENT="" />
    <EXPORT ORDINAL="4095" NAME="?OnDrawDragRect@CBCGPDockingControlBar@@MAEXPBUtagRECT@@0@Z" PURGE="8" COMMENT="" />
    <EXPORT ORDINAL="4096" NAME="?OnDrawEditBorder@CBCGPVisualManager@@UAEXPAVCDC@@VCRect@@HHPAVCBCGPToolbarEditBoxButton@@@Z" PURGE="32" COMMENT="" />
    <EXPORT ORDINAL="4097" NAME="?OnDrawEditBorder@CBCGPVisualManagerXP@@MAEXPAVCDC@@VCRect@@HHPAVCBCGPToolbarEditBoxButton@@@Z" PURGE="32" COMMENT="" />
    <EXPORT ORDINAL="4098" NAME="?OnDrawEditBorder@CBCGPWinXPVisualManager@@UAEXPAVCDC@@VCRect@@HHPAVCBCGPToolbarEditBoxButton@@@Z" PURGE="32" COMMENT="" />
    <EXPORT ORDINAL="4099" NAME="?OnDrawExpandBox@CBCGPProp@@UAEXPAVCDC@@VCRect@@@Z" PURGE="20" COMMENT="" />
    <EXPORT ORDINAL="4100" NAME="?OnDrawExpandingBox@CBCGPVisualManager2003@@UAEXPAVCDC@@VCRect@@HK@Z" PURGE="28" COMMENT="" />
    <EXPORT ORDINAL="4101" NAME="?OnDrawExpandingBox@CBCGPVisualManager@@UAEXPAVCDC@@VCRect@@HK@Z" PURGE="28" COMMENT="" />
    <EXPORT ORDINAL="4102" NAME="?OnDrawExpandingBox@CBCGPWinXPVisualManager@@UAEXPAVCDC@@VCRect@@HK@Z" PURGE="28" COMMENT="" />
    <EXPORT ORDINAL="4103" NAME="?OnDrawFloatingToolbarBorder@CBCGPVisualManager@@UAEXPAVCDC@@PAVCBCGPBaseToolBar@@VCRect@@2@Z" PURGE="40" COMMENT="" />
    <EXPORT ORDINAL="4104" NAME="?OnDrawFloatingToolbarBorder@CBCGPVisualManagerXP@@MAEXPAVCDC@@PAVCBCGPBaseToolBar@@VCRect@@2@Z" PURGE="40" COMMENT="" />
    <EXPORT ORDINAL="4105" NAME="?OnDrawFocusRect@CBCGPButton@@MAEXPAVCDC@@ABVCRect@@@Z" PURGE="8" COMMENT="" />
    <EXPORT ORDINAL="4106" NAME="?OnDrawFocusRect@CBCGPColorButton@@MAEXPAVCDC@@ABVCRect@@@Z" PURGE="8" COMMENT="" />
    <EXPORT ORDINAL="4107" NAME="?OnDrawFocusRect@CBCGPURLLinkButton@@MAEXPAVCDC@@ABVCRect@@@Z" PURGE="8" COMMENT="" />
    <EXPORT ORDINAL="4108" NAME="?OnDrawHeaderCtrlBorder@CBCGPVisualManager2003@@UAEXPAVCBCGPHeaderCtrl@@PAVCDC@@AAVCRect@@HH@Z" PURGE="20" COMMENT="" />
    <EXPORT ORDINAL="4109" NAME="?OnDrawHeaderCtrlBorder@CBCGPVisualManager@@UAEXPAVCBCGPHeaderCtrl@@PAVCDC@@AAVCRect@@HH@Z" PURGE="20" COMMENT="" />
    <EXPORT ORDINAL="4110" NAME="?OnDrawHeaderCtrlBorder@CBCGPWinXPVisualManager@@UAEXPAVCBCGPHeaderCtrl@@PAVCDC@@AAVCRect@@HH@Z" PURGE="20" COMMENT="" />
    <EXPORT ORDINAL="4111" NAME="?OnDrawHeaderCtrlSortArrow@CBCGPVisualManager@@UAEXPAVCBCGPHeaderCtrl@@PAVCDC@@AAVCRect@@H@Z" PURGE="16" COMMENT="" />
    <EXPORT ORDINAL="4112" NAME="?OnDrawHeaderCtrlSortArrow@CBCGPWinXPVisualManager@@UAEXPAVCBCGPHeaderCtrl@@PAVCDC@@AAVCRect@@H@Z" PURGE="16" COMMENT="" />
    <EXPORT ORDINAL="4113" NAME="?OnDrawHotSpot@CBCGPHotSpotImageCtrl@@MAEXPAVCDC@@VCRect@@PAVCBCGPHotSpot@@@Z" PURGE="24" COMMENT="" />
    <EXPORT ORDINAL="4114" NAME="?OnDrawImage@CBCGPCaptionBar@@MAEXPAVCDC@@VCRect@@@Z" PURGE="20" COMMENT="" />
    <EXPORT ORDINAL="4115" NAME="?OnDrawImage@CBCGPHotSpotImageCtrl@@MAEXPAVCDC@@VCRect@@@Z" PURGE="20" COMMENT="" />
    <EXPORT ORDINAL="4116" NAME="?OnDrawItem@CBCGPHeaderCtrl@@MAEXPAVCDC@@HVCRect@@HH@Z" PURGE="32" COMMENT="" />
    <EXPORT ORDINAL="4117" NAME="?OnDrawItem@CBCGPWindowsManagerDlg@@IAEXHPAUtagDRAWITEMSTRUCT@@@Z" PURGE="8" COMMENT="" />
    <EXPORT ORDINAL="4118" NAME="?OnDrawLineNumber@CBCGPEditCtrl@@UAEXPAVCDC@@VCRect@@H@Z" PURGE="24" COMMENT="" />
    <EXPORT ORDINAL="4119" NAME="?OnDrawLineNumbersBar@CBCGPEditCtrl@@UAEXPAVCDC@@VCRect@@@Z" PURGE="20" COMMENT="" />
    <EXPORT ORDINAL="4120" NAME="?OnDrawList@CBCGPPropList@@MAEXPAVCDC@@@Z" PURGE="4" COMMENT="" />
    <EXPORT ORDINAL="4121" NAME="?OnDrawMarker@CBCGPEditCtrl@@UAEXPAVCDC@@VCRect@@PBVCBCGPEditMarker@@@Z" PURGE="24" COMMENT="" />
    <EXPORT ORDINAL="4122" NAME="?OnDrawMenuArrowOnCustomizeList@CBCGPVisualManager@@UAEXPAVCDC@@VCRect@@H@Z" PURGE="24" COMMENT="" />
    <EXPORT ORDINAL="4123" NAME="?OnDrawMenuArrowOnCustomizeList@CBCGPVisualManagerXP@@MAEXPAVCDC@@VCRect@@H@Z" PURGE="24" COMMENT="" />
    <EXPORT ORDINAL="4124" NAME="?OnDrawMenuBorder@CBCGPVisualManager2003@@UAEXPAVCDC@@PAVCBCGPPopupMenu@@VCRect@@@Z" PURGE="24" COMMENT="" />
    <EXPORT ORDINAL="4125" NAME="?OnDrawMenuBorder@CBCGPVisualManager@@UAEXPAVCDC@@PAVCBCGPPopupMenu@@VCRect@@@Z" PURGE="24" COMMENT="" />
    <EXPORT ORDINAL="4126" NAME="?OnDrawMenuBorder@CBCGPVisualManagerXP@@MAEXPAVCDC@@PAVCBCGPPopupMenu@@VCRect@@@Z" PURGE="24" COMMENT="" />
    <EXPORT ORDINAL="4127" NAME="?OnDrawMenuBorder@CBCGPWinXPVisualManager@@UAEXPAVCDC@@PAVCBCGPPopupMenu@@VCRect@@@Z" PURGE="24" COMMENT="" />
    <EXPORT ORDINAL="4128" NAME="?OnDrawMenuImage@CBCGPFrameWnd@@UAEHPAVCDC@@PBVCBCGPToolbarMenuButton@@ABVCRect@@@Z" PURGE="12" COMMENT="" />
    <EXPORT ORDINAL="4129" NAME="?OnDrawMenuImage@CBCGPMDIFrameWnd@@UAEHPAVCDC@@PBVCBCGPToolbarMenuButton@@ABVCRect@@@Z" PURGE="12" COMMENT="" />
    <EXPORT ORDINAL="4130" NAME="?OnDrawMenuImage@CBCGPOleDocIPFrameWnd@@UAEHPAVCDC@@PBVCBCGPToolbarMenuButton@@ABVCRect@@@Z" PURGE="12" COMMENT="" />
    <EXPORT ORDINAL="4131" NAME="?OnDrawMenuImage@CBCGPOleIPFrameWnd@@UAEHPAVCDC@@PBVCBCGPToolbarMenuButton@@ABVCRect@@@Z" PURGE="12" COMMENT="" />
    <EXPORT ORDINAL="4132" NAME="?OnDrawMenuLogo@CBCGPFrameWnd@@UAEXPAVCDC@@PAVCBCGPPopupMenu@@ABVCRect@@@Z" PURGE="12" COMMENT="" />
    <EXPORT ORDINAL="4133" NAME="?OnDrawMenuLogo@CBCGPMDIFrameWnd@@UAEXPAVCDC@@PAVCBCGPPopupMenu@@ABVCRect@@@Z" PURGE="12" COMMENT="" />
    <EXPORT ORDINAL="4134" NAME="?OnDrawMenuLogo@CBCGPOleDocIPFrameWnd@@UAEXPAVCDC@@PAVCBCGPPopupMenu@@ABVCRect@@@Z" PURGE="12" COMMENT="" />
    <EXPORT ORDINAL="4135" NAME="?OnDrawMenuLogo@CBCGPOleIPFrameWnd@@UAEXPAVCDC@@PAVCBCGPPopupMenu@@ABVCRect@@@Z" PURGE="12" COMMENT="" />
    <EXPORT ORDINAL="4136" NAME="?OnDrawMenuShadow@CBCGPVisualManager@@UAEXPAVCDC@@ABVCRect@@1HHHPAVCBitmap@@2H@Z" PURGE="36" COMMENT="" />
    <EXPORT ORDINAL="4137" NAME="?OnDrawMenuShadow@CBCGPVisualManagerXP@@MAEXPAVCDC@@ABVCRect@@1HHHPAVCBitmap@@2H@Z" PURGE="36" COMMENT="" />
    <EXPORT ORDINAL="4138" NAME="?OnDrawMenuSystemButton@CBCGPVisualManager@@UAEXPAVCDC@@VCRect@@IIH@Z" PURGE="32" COMMENT="" />
    <EXPORT ORDINAL="4139" NAME="?OnDrawMenuSystemButton@CBCGPVisualManagerXP@@MAEXPAVCDC@@VCRect@@IIH@Z" PURGE="32" COMMENT="" />
    <EXPORT ORDINAL="4140" NAME="?OnDrawMenuSystemButton@CBCGPWinXPVisualManager@@UAEXPAVCDC@@VCRect@@IIH@Z" PURGE="32" COMMENT="" />
    <EXPORT ORDINAL="4141" NAME="?OnDrawMiniFrameBorder@CBCGPVisualManager@@UAEXPAVCDC@@PAVCBCGPMiniFrameWnd@@VCRect@@2@Z" PURGE="40" COMMENT="" />
    <EXPORT ORDINAL="4142" NAME="?OnDrawMiniFrameBorder@CBCGPVisualManagerXP@@MAEXPAVCDC@@PAVCBCGPMiniFrameWnd@@VCRect@@2@Z" PURGE="40" COMMENT="" />
    <EXPORT ORDINAL="4143" NAME="?OnDrawMiniFrameBorder@CBCGPWinXPVisualManager@@UAEXPAVCDC@@PAVCBCGPMiniFrameWnd@@VCRect@@2@Z" PURGE="40" COMMENT="" />
    <EXPORT ORDINAL="4144" NAME="?OnDrawName@CBCGPProp@@UAEXPAVCDC@@VCRect@@@Z" PURGE="20" COMMENT="" />
    <EXPORT ORDINAL="4145" NAME="?OnDrawOnCustomizeList@CBCGPCalendarMenuButton@@MAEHPAVCDC@@ABVCRect@@H@Z" PURGE="12" COMMENT="" />
    <EXPORT ORDINAL="4146" NAME="?OnDrawOnCustomizeList@CBCGPColorMenuButton@@MAEHPAVCDC@@ABVCRect@@H@Z" PURGE="12" COMMENT="" />
    <EXPORT ORDINAL="4147" NAME="?OnDrawOnCustomizeList@CBCGPDropDownToolbarButton@@UAEHPAVCDC@@ABVCRect@@H@Z" PURGE="12" COMMENT="" />
    <EXPORT ORDINAL="4148" NAME="?OnDrawOnCustomizeList@CBCGPToolbarButton@@UAEHPAVCDC@@ABVCRect@@H@Z" PURGE="12" COMMENT="" />
    <EXPORT ORDINAL="4149" NAME="?OnDrawOnCustomizeList@CBCGPToolbarComboBoxButton@@UAEHPAVCDC@@ABVCRect@@H@Z" PURGE="12" COMMENT="" />
    <EXPORT ORDINAL="4150" NAME="?OnDrawOnCustomizeList@CBCGPToolbarDateTimeCtrl@@UAEHPAVCDC@@ABVCRect@@H@Z" PURGE="12" COMMENT="" />
    <EXPORT ORDINAL="4151" NAME="?OnDrawOnCustomizeList@CBCGPToolbarEditBoxButton@@UAEHPAVCDC@@ABVCRect@@H@Z" PURGE="12" COMMENT="" />
    <EXPORT ORDINAL="4152" NAME="?OnDrawOnCustomizeList@CBCGPToolbarMenuButton@@UAEHPAVCDC@@ABVCRect@@H@Z" PURGE="12" COMMENT="" />
    <EXPORT ORDINAL="4153" NAME="?OnDrawOutlineBar@CBCGPEditCtrl@@UAEXPAVCDC@@VCRect@@@Z" PURGE="20" COMMENT="" />
    <EXPORT ORDINAL="4154" NAME="?OnDrawOutlineButton@CBCGPEditCtrl@@UAEXPAVCDC@@VCRect@@PAVCBCGPOutlineBaseNode@@HHH@Z" PURGE="36" COMMENT="" />
    <EXPORT ORDINAL="4155" NAME="?OnDrawOutlineSymbol@CBCGPEditCtrl@@UAEXPAVCDC@@PAVCBCGPOutlineBaseNode@@KK@Z" PURGE="16" COMMENT="" />
    <EXPORT ORDINAL="4156" NAME="?OnDrawOutlookBarSplitter@CBCGPVisualManager2003@@UAEXPAVCDC@@VCRect@@@Z" PURGE="20" COMMENT="" />
    <EXPORT ORDINAL="4157" NAME="?OnDrawOutlookBarSplitter@CBCGPVisualManager@@UAEXPAVCDC@@VCRect@@@Z" PURGE="20" COMMENT="" />
    <EXPORT ORDINAL="4158" NAME="?OnDrawOutlookPageButtonBorder@CBCGPVisualManager2003@@UAEXPAVCDC@@AAVCRect@@HH@Z" PURGE="16" COMMENT="" />
    <EXPORT ORDINAL="4159" NAME="?OnDrawOutlookPageButtonBorder@CBCGPVisualManager@@UAEXPAVCDC@@AAVCRect@@HH@Z" PURGE="16" COMMENT="" />
    <EXPORT ORDINAL="4160" NAME="?OnDrawOutlookPageButtonBorder@CBCGPWinXPVisualManager@@UAEXPAVCDC@@AAVCRect@@HH@Z" PURGE="16" COMMENT="" />
    <EXPORT ORDINAL="4161" NAME="?OnDrawPane@CBCGPStatusBar@@MAEXPAVCDC@@PAVCBCGStatusBarPaneInfo@@@Z" PURGE="8" COMMENT="" />
    <EXPORT ORDINAL="4162" NAME="?OnDrawProperty@CBCGPPropList@@UBEHPAVCDC@@PAVCBCGPProp@@@Z" PURGE="8" COMMENT="" />
    <EXPORT ORDINAL="4163" NAME="?OnDrawScrollButtons@CBCGPVisualManager2003@@UAEXPAVCDC@@ABVCRect@@HHH@Z" PURGE="20" COMMENT="" />
    <EXPORT ORDINAL="4164" NAME="?OnDrawScrollButtons@CBCGPVisualManager@@UAEXPAVCDC@@ABVCRect@@HHH@Z" PURGE="20" COMMENT="" />
    <EXPORT ORDINAL="4165" NAME="?OnDrawScrollButtons@CBCGPVisualManagerXP@@MAEXPAVCDC@@ABVCRect@@HHH@Z" PURGE="20" COMMENT="" />
    <EXPORT ORDINAL="4166" NAME="?OnDrawScrollButtons@CBCGPWinXPVisualManager@@UAEXPAVCDC@@ABVCRect@@HHH@Z" PURGE="20" COMMENT="" />
    <EXPORT ORDINAL="4167" NAME="?OnDrawSeparator@CBCGPVisualManager2003@@UAEXPAVCDC@@PAVCBCGPBaseControlBar@@VCRect@@H@Z" PURGE="28" COMMENT="" />
    <EXPORT ORDINAL="4168" NAME="?OnDrawSeparator@CBCGPVisualManager@@UAEXPAVCDC@@PAVCBCGPBaseControlBar@@VCRect@@H@Z" PURGE="28" COMMENT="" />
    <EXPORT ORDINAL="4169" NAME="?OnDrawSeparator@CBCGPVisualManagerVS2005@@UAEXPAVCDC@@PAVCBCGPBaseControlBar@@VCRect@@H@Z" PURGE="28" COMMENT="" />
    <EXPORT ORDINAL="4170" NAME="?OnDrawSeparator@CBCGPVisualManagerXP@@MAEXPAVCDC@@PAVCBCGPBaseControlBar@@VCRect@@H@Z" PURGE="28" COMMENT="" />
    <EXPORT ORDINAL="4171" NAME="?OnDrawSeparator@CBCGPWinXPVisualManager@@UAEXPAVCDC@@PAVCBCGPBaseControlBar@@VCRect@@H@Z" PURGE="28" COMMENT="" />
    <EXPORT ORDINAL="4172" NAME="?OnDrawShowAllMenuItems@CBCGPVisualManager2003@@UAEXPAVCDC@@VCRect@@W4BCGBUTTON_STATE@CBCGPVisualManager@@@Z" PURGE="24" COMMENT="" />
    <EXPORT ORDINAL="4173" NAME="?OnDrawShowAllMenuItems@CBCGPVisualManager@@UAEXPAVCDC@@VCRect@@W4BCGBUTTON_STATE@1@@Z" PURGE="24" COMMENT="" />
    <EXPORT ORDINAL="4174" NAME="?OnDrawSideBar@CBCGPEditCtrl@@UAEXPAVCDC@@VCRect@@@Z" PURGE="20" COMMENT="" />
    <EXPORT ORDINAL="4175" NAME="?OnDrawSlider@CBCGPVisualManager@@UAEXPAVCDC@@PAVCBCGPSlider@@VCRect@@H@Z" PURGE="28" COMMENT="" />
    <EXPORT ORDINAL="4176" NAME="?OnDrawSortArrow@CBCGPHeaderCtrl@@MAEXPAVCDC@@VCRect@@@Z" PURGE="20" COMMENT="" />
    <EXPORT ORDINAL="4177" NAME="?OnDrawSpinButtons@CBCGPVisualManager@@UAEXPAVCDC@@VCRect@@HHPAVCBCGPSpinButtonCtrl@@@Z" PURGE="32" COMMENT="" />
    <EXPORT ORDINAL="4178" NAME="?OnDrawSpinButtons@CBCGPVisualManagerXP@@MAEXPAVCDC@@VCRect@@HHPAVCBCGPSpinButtonCtrl@@@Z" PURGE="32" COMMENT="" />
    <EXPORT ORDINAL="4179" NAME="?OnDrawSpinButtons@CBCGPWinXPVisualManager@@UAEXPAVCDC@@VCRect@@HHPAVCBCGPSpinButtonCtrl@@@Z" PURGE="32" COMMENT="" />
    <EXPORT ORDINAL="4180" NAME="?OnDrawSplitter@CBCGPSplitterWnd@@UAEXPAVCDC@@W4ESplitType@CSplitterWnd@@ABVCRect@@@Z" PURGE="12" COMMENT="" />
    <EXPORT ORDINAL="4181" NAME="?OnDrawSplitterBorder@CBCGPVisualManager@@UAEXPAVCDC@@PAVCBCGPSplitterWnd@@VCRect@@@Z" PURGE="24" COMMENT="" />
    <EXPORT ORDINAL="4182" NAME="?OnDrawSplitterBorder@CBCGPVisualManagerXP@@MAEXPAVCDC@@PAVCBCGPSplitterWnd@@VCRect@@@Z" PURGE="24" COMMENT="" />
    <EXPORT ORDINAL="4183" NAME="?OnDrawSplitterBox@CBCGPVisualManager@@UAEXPAVCDC@@PAVCBCGPSplitterWnd@@AAVCRect@@@Z" PURGE="12" COMMENT="" />
    <EXPORT ORDINAL="4184" NAME="?OnDrawSplitterBox@CBCGPVisualManagerXP@@MAEXPAVCDC@@PAVCBCGPSplitterWnd@@AAVCRect@@@Z" PURGE="12" COMMENT="" />
    <EXPORT ORDINAL="4185" NAME="?OnDrawStatusBarPaneBorder@CBCGPVisualManager@@UAEXPAVCDC@@PAVCBCGPStatusBar@@VCRect@@II@Z" PURGE="32" COMMENT="" />
    <EXPORT ORDINAL="4186" NAME="?OnDrawStatusBarPaneBorder@CBCGPVisualManagerVS2005@@UAEXPAVCDC@@PAVCBCGPStatusBar@@VCRect@@II@Z" PURGE="32" COMMENT="" />
    <EXPORT ORDINAL="4187" NAME="?OnDrawStatusBarPaneBorder@CBCGPVisualManagerXP@@MAEXPAVCDC@@PAVCBCGPStatusBar@@VCRect@@II@Z" PURGE="32" COMMENT="" />
    <EXPORT ORDINAL="4188" NAME="?OnDrawStatusBarPaneBorder@CBCGPWinXPVisualManager@@UAEXPAVCDC@@PAVCBCGPStatusBar@@VCRect@@II@Z" PURGE="32" COMMENT="" />
    <EXPORT ORDINAL="4189" NAME="?OnDrawStatusBarProgress@CBCGPVisualManager2003@@UAEXPAVCDC@@PAVCBCGPStatusBar@@VCRect@@HHKKKH@Z" PURGE="48" COMMENT="" />
    <EXPORT ORDINAL="4190" NAME="?OnDrawStatusBarProgress@CBCGPVisualManager@@UAEXPAVCDC@@PAVCBCGPStatusBar@@VCRect@@HHKKKH@Z" PURGE="48" COMMENT="" />
    <EXPORT ORDINAL="4191" NAME="?OnDrawStatusBarProgress@CBCGPWinXPVisualManager@@UAEXPAVCDC@@PAVCBCGPStatusBar@@VCRect@@HHKKKH@Z" PURGE="48" COMMENT="" />
    <EXPORT ORDINAL="4192" NAME="?OnDrawStatusBarSizeBox@CBCGPVisualManager2003@@UAEXPAVCDC@@PAVCBCGPStatusBar@@VCRect@@@Z" PURGE="24" COMMENT="" />
    <EXPORT ORDINAL="4193" NAME="?OnDrawStatusBarSizeBox@CBCGPVisualManager@@UAEXPAVCDC@@PAVCBCGPStatusBar@@VCRect@@@Z" PURGE="24" COMMENT="" />
    <EXPORT ORDINAL="4194" NAME="?OnDrawStatusBarSizeBox@CBCGPWinXPVisualManager@@UAEXPAVCDC@@PAVCBCGPStatusBar@@VCRect@@@Z" PURGE="24" COMMENT="" />
    <EXPORT ORDINAL="4195" NAME="?OnDrawSymbol@CBCGPEditCtrl@@UAEHPAVCDC@@VCRect@@AAUBCGP_EDIT_SYM_DEF@@@Z" PURGE="24" COMMENT="" />
    <EXPORT ORDINAL="4196" NAME="?OnDrawTab@CBCGPVisualManager2003@@UAEXPAVCDC@@VCRect@@HHPBVCBCGPBaseTabWnd@@@Z" PURGE="32" COMMENT="" />
    <EXPORT ORDINAL="4197" NAME="?OnDrawTab@CBCGPVisualManager@@UAEXPAVCDC@@VCRect@@HHPBVCBCGPBaseTabWnd@@@Z" PURGE="32" COMMENT="" />
    <EXPORT ORDINAL="4198" NAME="?OnDrawTab@CBCGPVisualManagerVS2005@@UAEXPAVCDC@@VCRect@@HHPBVCBCGPBaseTabWnd@@@Z" PURGE="32" COMMENT="" />
    <EXPORT ORDINAL="4199" NAME="?OnDrawTab@CBCGPVisualManagerXP@@MAEXPAVCDC@@VCRect@@HHPBVCBCGPBaseTabWnd@@@Z" PURGE="32" COMMENT="" />
    <EXPORT ORDINAL="4200" NAME="?OnDrawTab@CBCGPWinXPVisualManager@@UAEXPAVCDC@@VCRect@@HHPBVCBCGPBaseTabWnd@@@Z" PURGE="32" COMMENT="" />
    <EXPORT ORDINAL="4201" NAME="?OnDrawTabContent@CBCGPVisualManager@@UAEXPAVCDC@@VCRect@@HHPBVCBCGPBaseTabWnd@@K@Z" PURGE="36" COMMENT="" />
    <EXPORT ORDINAL="4202" NAME="?OnDrawTabsButtonBorder@CBCGPVisualManager@@UAEXPAVCDC@@AAVCRect@@PAVCBCGPButton@@IPAVCBCGPBaseTabWnd@@@Z" PURGE="20" COMMENT="" />
    <EXPORT ORDINAL="4203" NAME="?OnDrawTabsButtonBorder@CBCGPVisualManagerXP@@MAEXPAVCDC@@AAVCRect@@PAVCBCGPButton@@IPAVCBCGPBaseTabWnd@@@Z" PURGE="20" COMMENT="" />
    <EXPORT ORDINAL="4204" NAME="?OnDrawTabsButtonBorder@CBCGPWinXPVisualManager@@UAEXPAVCDC@@AAVCRect@@PAVCBCGPButton@@IPAVCBCGPBaseTabWnd@@@Z" PURGE="20" COMMENT="" />
    <EXPORT ORDINAL="4205" NAME="?OnDrawTask@CBCGPVisualManager2003@@UAEXPAVCDC@@PAVCBCGPTask@@PAVCImageList@@HH@Z" PURGE="20" COMMENT="" />
    <EXPORT ORDINAL="4206" NAME="?OnDrawTask@CBCGPVisualManager@@UAEXPAVCDC@@PAVCBCGPTask@@PAVCImageList@@HH@Z" PURGE="20" COMMENT="" />
    <EXPORT ORDINAL="4207" NAME="?OnDrawTask@CBCGPVisualManagerXP@@MAEXPAVCDC@@PAVCBCGPTask@@PAVCImageList@@HH@Z" PURGE="20" COMMENT="" />
    <EXPORT ORDINAL="4208" NAME="?OnDrawTask@CBCGPWinXPVisualManager@@UAEXPAVCDC@@PAVCBCGPTask@@PAVCImageList@@HH@Z" PURGE="20" COMMENT="" />
    <EXPORT ORDINAL="4209" NAME="?OnDrawTasks@CBCGPTasksPane@@MAEXPAVCDC@@VCRect@@@Z" PURGE="20" COMMENT="" />
    <EXPORT ORDINAL="4210" NAME="?OnDrawTasksGroupAreaBorder@CBCGPVisualManager2003@@UAEXPAVCDC@@VCRect@@HH@Z" PURGE="28" COMMENT="" />
    <EXPORT ORDINAL="4211" NAME="?OnDrawTasksGroupAreaBorder@CBCGPVisualManager@@UAEXPAVCDC@@VCRect@@HH@Z" PURGE="28" COMMENT="" />
    <EXPORT ORDINAL="4212" NAME="?OnDrawTasksGroupAreaBorder@CBCGPVisualManagerXP@@MAEXPAVCDC@@VCRect@@HH@Z" PURGE="28" COMMENT="" />
    <EXPORT ORDINAL="4213" NAME="?OnDrawTasksGroupAreaBorder@CBCGPWinXPVisualManager@@UAEXPAVCDC@@VCRect@@HH@Z" PURGE="28" COMMENT="" />
    <EXPORT ORDINAL="4214" NAME="?OnDrawTasksGroupCaption@CBCGPVisualManager2003@@UAEXPAVCDC@@PAVCBCGPTasksGroup@@HHH@Z" PURGE="20" COMMENT="" />
    <EXPORT ORDINAL="4215" NAME="?OnDrawTasksGroupCaption@CBCGPVisualManager@@UAEXPAVCDC@@PAVCBCGPTasksGroup@@HHH@Z" PURGE="20" COMMENT="" />
    <EXPORT ORDINAL="4216" NAME="?OnDrawTasksGroupCaption@CBCGPVisualManagerXP@@MAEXPAVCDC@@PAVCBCGPTasksGroup@@HHH@Z" PURGE="20" COMMENT="" />
    <EXPORT ORDINAL="4217" NAME="?OnDrawTasksGroupCaption@CBCGPWinXPVisualManager@@UAEXPAVCDC@@PAVCBCGPTasksGroup@@HHH@Z" PURGE="20" COMMENT="" />
    <EXPORT ORDINAL="4218" NAME="?OnDrawTearOffCaption@CBCGPVisualManager2003@@UAEXPAVCDC@@VCRect@@H@Z" PURGE="24" COMMENT="" />
    <EXPORT ORDINAL="4219" NAME="?OnDrawTearOffCaption@CBCGPVisualManager@@UAEXPAVCDC@@VCRect@@H@Z" PURGE="24" COMMENT="" />
    <EXPORT ORDINAL="4220" NAME="?OnDrawTearOffCaption@CBCGPVisualManagerXP@@MAEXPAVCDC@@VCRect@@H@Z" PURGE="24" COMMENT="" />
    <EXPORT ORDINAL="4221" NAME="?OnDrawTearOffCaption@CBCGPWinXPVisualManager@@UAEXPAVCDC@@VCRect@@H@Z" PURGE="24" COMMENT="" />
    <EXPORT ORDINAL="4222" NAME="?OnDrawText@CBCGPButton@@MAEXPAVCDC@@ABVCRect@@ABV?$CStringT@DV?$StrTraitMFC_DLL@DV?$ChTraitsCRT@D@ATL@@@@@ATL@@II@Z" PURGE="20" COMMENT="" />
    <EXPORT ORDINAL="4223" NAME="?OnDrawText@CBCGPCaptionBar@@MAEXPAVCDC@@VCRect@@ABV?$CStringT@DV?$StrTraitMFC_DLL@DV?$ChTraitsCRT@D@ATL@@@@@ATL@@@Z" PURGE="24" COMMENT="" />
    <EXPORT ORDINAL="4224" NAME="?OnDrawText@CBCGPEditCtrl@@UAEXPAVCDC@@@Z" PURGE="4" COMMENT="" />
    <EXPORT ORDINAL="4225" NAME="?OnDrawToolBoxButtonBorder@CBCGPVisualManager2003@@UAEHPAVCDC@@AAVCRect@@PAVCBCGPButton@@I@Z" PURGE="16" COMMENT="" />
    <EXPORT ORDINAL="4226" NAME="?OnDrawToolBoxButtonBorder@CBCGPVisualManager@@UAEHPAVCDC@@AAVCRect@@PAVCBCGPButton@@I@Z" PURGE="16" COMMENT="" />
    <EXPORT ORDINAL="4227" NAME="?OnDrawValue@CBCGPColorProp@@UAEXPAVCDC@@VCRect@@@Z" PURGE="20" COMMENT="" />
    <EXPORT ORDINAL="4228" NAME="?OnDrawValue@CBCGPDateTimeProp@@UAEXPAVCDC@@VCRect@@@Z" PURGE="20" COMMENT="" />
    <EXPORT ORDINAL="4229" NAME="?OnDrawValue@CBCGPProp@@UAEXPAVCDC@@VCRect@@@Z" PURGE="20" COMMENT="" />
    <EXPORT ORDINAL="4230" NAME="?OnDrop@CBCGPBaseTabWnd@@UAEHPAVCOleDataObject@@KVCPoint@@@Z" PURGE="16" COMMENT="" />
    <EXPORT ORDINAL="4231" NAME="?OnDrop@CBCGPEditCtrl@@UAEHPAVCOleDataObject@@KVCPoint@@@Z" PURGE="16" COMMENT="" />
    <EXPORT ORDINAL="4232" NAME="?OnDrop@CBCGPToolBar@@MAEHPAVCOleDataObject@@KVCPoint@@@Z" PURGE="16" COMMENT="" />
    <EXPORT ORDINAL="4233" NAME="?OnDropEx@CBCGPEditCtrlDropTarget@@UAEKPAVCWnd@@PAVCOleDataObject@@KKVCPoint@@@Z" PURGE="24" COMMENT="" />
    <EXPORT ORDINAL="4234" NAME="?OnDropEx@CBCGPTabDropTarget@@UAEKPAVCWnd@@PAVCOleDataObject@@KKVCPoint@@@Z" PURGE="24" COMMENT="" />
    <EXPORT ORDINAL="4235" NAME="?OnDropEx@CBCGPToolbarDropTarget@@UAEKPAVCWnd@@PAVCOleDataObject@@KKVCPoint@@@Z" PURGE="24" COMMENT="" />
    <EXPORT ORDINAL="4236" NAME="?OnDurationChanged@CBCGPDurationCtrl@@MAEXXZ" PURGE="0" COMMENT="" />
    <EXPORT ORDINAL="4237" NAME="?OnEdit@CBCGPColorProp@@UAEHPAUtagPOINT@@@Z" PURGE="4" COMMENT="" />
    <EXPORT ORDINAL="4238" NAME="?OnEdit@CBCGPProp@@UAEHPAUtagPOINT@@@Z" PURGE="4" COMMENT="" />
    <EXPORT ORDINAL="4239" NAME="?OnEditChange@CBCGPEditView@@IAEJIJ@Z" PURGE="8" COMMENT="" />
    <EXPORT ORDINAL="4240" NAME="?OnEditCopy@CBCGPEditView@@IAEXXZ" PURGE="0" COMMENT="" />
    <EXPORT ORDINAL="4241" NAME="?OnEditCut@CBCGPEditView@@IAEXXZ" PURGE="0" COMMENT="" />
    <EXPORT ORDINAL="4242" NAME="?OnEditFind@CBCGPEditView@@IAEXXZ" PURGE="0" COMMENT="" />
    <EXPORT ORDINAL="4243" NAME="?OnEditKillFocus@CBCGPColorProp@@MAEHXZ" PURGE="0" COMMENT="" />
    <EXPORT ORDINAL="4244" NAME="?OnEditKillFocus@CBCGPProp@@MAEHXZ" PURGE="0" COMMENT="" />
    <EXPORT ORDINAL="4245" NAME="?OnEditKillFocus@CBCGPPropList@@IAEXXZ" PURGE="0" COMMENT="" />
    <EXPORT ORDINAL="4246" NAME="?OnEditPaste@CBCGPEditView@@IAEXXZ" PURGE="0" COMMENT="" />
    <EXPORT ORDINAL="4247" NAME="?OnEditRedo@CBCGPEditView@@IAEXXZ" PURGE="0" COMMENT="" />
    <EXPORT ORDINAL="4248" NAME="?OnEditReplace@CBCGPEditView@@IAEXXZ" PURGE="0" COMMENT="" />
    <EXPORT ORDINAL="4249" NAME="?OnEditSelectAll@CBCGPEditView@@IAEXXZ" PURGE="0" COMMENT="" />
    <EXPORT ORDINAL="4250" NAME="?OnEditToolbarMenuImage@CBCGPToolbarCustomize@@UAEHPAVCWnd@@AAVCBitmap@@H@Z" PURGE="12" COMMENT="" />
    <EXPORT ORDINAL="4251" NAME="?OnEditUndo@CBCGPEditView@@IAEXXZ" PURGE="0" COMMENT="" />
    <EXPORT ORDINAL="4252" NAME="?OnEnable@CBCGPButton@@IAEXH@Z" PURGE="4" COMMENT="" />
    <EXPORT ORDINAL="4253" NAME="?OnEnable@CBCGPEditListBase@@IAEXH@Z" PURGE="4" COMMENT="" />
    <EXPORT ORDINAL="4254" NAME="?OnEndEdit@CBCGPProp@@UAEHXZ" PURGE="0" COMMENT="" />
    <EXPORT ORDINAL="4255" NAME="?OnEndEditLabel@CBCGPEditListBase@@UAEXPBD@Z" PURGE="4" COMMENT="" />
    <EXPORT ORDINAL="4256" NAME="?OnEndLabelEdit@CBCGPEditListBox@@IAEXPAUtagNMHDR@@PAJ@Z" PURGE="8" COMMENT="" />
    <EXPORT ORDINAL="4257" NAME="?OnEndPrinting@CBCGPEditCtrl@@UAEXPAVCDC@@PAUCPrintInfo@@@Z" PURGE="8" COMMENT="" />
    <EXPORT ORDINAL="4258" NAME="?OnEndPrinting@CBCGPEditView@@MAEXPAVCDC@@PAUCPrintInfo@@@Z" PURGE="8" COMMENT="" />
    <EXPORT ORDINAL="4259" NAME="?OnEnterSizeMove@CBCGPAppBarWnd@@IAEJIJ@Z" PURGE="8" COMMENT="" />
    <EXPORT ORDINAL="4260" NAME="?OnEraseBkgnd@CBCGPAnimCtrl@@IAEHPAVCDC@@@Z" PURGE="4" COMMENT="" />
    <EXPORT ORDINAL="4261" NAME="?OnEraseBkgnd@CBCGPBaseControlBar@@IAEHPAVCDC@@@Z" PURGE="4" COMMENT="" />
    <EXPORT ORDINAL="4262" NAME="?OnEraseBkgnd@CBCGPBaseIntelliSenseLB@@IAEHPAVCDC@@@Z" PURGE="4" COMMENT="" />
    <EXPORT ORDINAL="4263" NAME="?OnEraseBkgnd@CBCGPBaseTabbedBar@@IAEHPAVCDC@@@Z" PURGE="4" COMMENT="" />
    <EXPORT ORDINAL="4264" NAME="?OnEraseBkgnd@CBCGPButton@@IAEHPAVCDC@@@Z" PURGE="4" COMMENT="" />
    <EXPORT ORDINAL="4265" NAME="?OnEraseBkgnd@CBCGPCaptionBar@@IAEHPAVCDC@@@Z" PURGE="4" COMMENT="" />
    <EXPORT ORDINAL="4266" NAME="?OnEraseBkgnd@CBCGPColorPickerCtrl@@IAEHPAVCDC@@@Z" PURGE="4" COMMENT="" />
    <EXPORT ORDINAL="4267" NAME="?OnEraseBkgnd@CBCGPDateTimeCtrl@@IAEHPAVCDC@@@Z" PURGE="4" COMMENT="" />
    <EXPORT ORDINAL="4268" NAME="?OnEraseBkgnd@CBCGPDialog@@IAEHPAVCDC@@@Z" PURGE="4" COMMENT="" />
    <EXPORT ORDINAL="4269" NAME="?OnEraseBkgnd@CBCGPDialogBar@@QAEHPAVCDC@@@Z" PURGE="4" COMMENT="" />
    <EXPORT ORDINAL="4270" NAME="?OnEraseBkgnd@CBCGPDockBar@@IAEHPAVCDC@@@Z" PURGE="4" COMMENT="" />
    <EXPORT ORDINAL="4271" NAME="?OnEraseBkgnd@CBCGPDurationCtrl@@IAEHPAVCDC@@@Z" PURGE="4" COMMENT="" />
    <EXPORT ORDINAL="4272" NAME="?OnEraseBkgnd@CBCGPEditCtrl@@IAEHPAVCDC@@@Z" PURGE="4" COMMENT="" />
    <EXPORT ORDINAL="4273" NAME="?OnEraseBkgnd@CBCGPEditListBase@@IAEHPAVCDC@@@Z" PURGE="4" COMMENT="" />
    <EXPORT ORDINAL="4274" NAME="?OnEraseBkgnd@CBCGPEditView@@IAEHPAVCDC@@@Z" PURGE="4" COMMENT="" />
    <EXPORT ORDINAL="4275" NAME="?OnEraseBkgnd@CBCGPHeaderCtrl@@IAEHPAVCDC@@@Z" PURGE="4" COMMENT="" />
    <EXPORT ORDINAL="4276" NAME="?OnEraseBkgnd@CBCGPHotSpotImageCtrl@@IAEHPAVCDC@@@Z" PURGE="4" COMMENT="" />
    <EXPORT ORDINAL="4277" NAME="?OnEraseBkgnd@CBCGPListCtrl@@IAEHPAVCDC@@@Z" PURGE="4" COMMENT="" />
    <EXPORT ORDINAL="4278" NAME="?OnEraseBkgnd@CBCGPMainClientAreaWnd@@IAEHPAVCDC@@@Z" PURGE="4" COMMENT="" />
    <EXPORT ORDINAL="4279" NAME="?OnEraseBkgnd@CBCGPMiniFrameWnd@@IAEHPAVCDC@@@Z" PURGE="4" COMMENT="" />
    <EXPORT ORDINAL="4280" NAME="?OnEraseBkgnd@CBCGPOutlookBarPane@@IAEHPAVCDC@@@Z" PURGE="4" COMMENT="" />
    <EXPORT ORDINAL="4281" NAME="?OnEraseBkgnd@CBCGPOutlookWnd@@IAEHPAVCDC@@@Z" PURGE="4" COMMENT="" />
    <EXPORT ORDINAL="4282" NAME="?OnEraseBkgnd@CBCGPPopupMenu@@IAEHPAVCDC@@@Z" PURGE="4" COMMENT="" />
    <EXPORT ORDINAL="4283" NAME="?OnEraseBkgnd@CBCGPPropList@@IAEHPAVCDC@@@Z" PURGE="4" COMMENT="" />
    <EXPORT ORDINAL="4284" NAME="?OnEraseBkgnd@CBCGPReBar@@IAEHPAVCDC@@@Z" PURGE="4" COMMENT="" />
    <EXPORT ORDINAL="4285" NAME="?OnEraseBkgnd@CBCGPSlider@@IAEHPAVCDC@@@Z" PURGE="4" COMMENT="" />
    <EXPORT ORDINAL="4286" NAME="?OnEraseBkgnd@CBCGPSpinButtonCtrl@@IAEHPAVCDC@@@Z" PURGE="4" COMMENT="" />
    <EXPORT ORDINAL="4287" NAME="?OnEraseBkgnd@CBCGPTabWnd@@IAEHPAVCDC@@@Z" PURGE="4" COMMENT="" />
    <EXPORT ORDINAL="4288" NAME="?OnEraseBkgnd@CBCGPTasksPane@@IAEHPAVCDC@@@Z" PURGE="4" COMMENT="" />
    <EXPORT ORDINAL="4289" NAME="?OnEraseBkgnd@CBCGPToolBar@@IAEHPAVCDC@@@Z" PURGE="4" COMMENT="" />
    <EXPORT ORDINAL="4290" NAME="?OnEraseBkgnd@CBCGPToolBoxPage@@IAEHPAVCDC@@@Z" PURGE="4" COMMENT="" />
    <EXPORT ORDINAL="4291" NAME="?OnEraseBkgnd@CImagePaintArea@@IAEHPAVCDC@@@Z" PURGE="4" COMMENT="" />
    <EXPORT ORDINAL="4292" NAME="?OnEraseMDIClientBackground@CBCGPMDIFrameWnd@@UAEHPAVCDC@@@Z" PURGE="4" COMMENT="" />
    <EXPORT ORDINAL="4293" NAME="?OnEraseTabsArea@CBCGPVisualManager2003@@UAEXPAVCDC@@VCRect@@PBVCBCGPBaseTabWnd@@@Z" PURGE="24" COMMENT="" />
    <EXPORT ORDINAL="4294" NAME="?OnEraseTabsArea@CBCGPVisualManager@@UAEXPAVCDC@@VCRect@@PBVCBCGPBaseTabWnd@@@Z" PURGE="24" COMMENT="" />
    <EXPORT ORDINAL="4295" NAME="?OnEraseTabsArea@CBCGPVisualManagerVS2005@@UAEXPAVCDC@@VCRect@@PBVCBCGPBaseTabWnd@@@Z" PURGE="24" COMMENT="" />
    <EXPORT ORDINAL="4296" NAME="?OnEraseTabsArea@CBCGPVisualManagerXP@@MAEXPAVCDC@@VCRect@@PBVCBCGPBaseTabWnd@@@Z" PURGE="24" COMMENT="" />
    <EXPORT ORDINAL="4297" NAME="?OnEraseTabsArea@CBCGPWinXPVisualManager@@UAEXPAVCDC@@VCRect@@PBVCBCGPBaseTabWnd@@@Z" PURGE="24" COMMENT="" />
    <EXPORT ORDINAL="4298" NAME="?OnEraseTabsButton@CBCGPVisualManager2003@@UAEXPAVCDC@@VCRect@@PAVCBCGPButton@@PAVCBCGPBaseTabWnd@@@Z" PURGE="28" COMMENT="" />
    <EXPORT ORDINAL="4299" NAME="?OnEraseTabsButton@CBCGPVisualManager@@UAEXPAVCDC@@VCRect@@PAVCBCGPButton@@PAVCBCGPBaseTabWnd@@@Z" PURGE="28" COMMENT="" />
    <EXPORT ORDINAL="4300" NAME="?OnEraseTabsButton@CBCGPVisualManagerXP@@MAEXPAVCDC@@VCRect@@PAVCBCGPButton@@PAVCBCGPBaseTabWnd@@@Z" PURGE="28" COMMENT="" />
    <EXPORT ORDINAL="4301" NAME="?OnEraseTabsButton@CBCGPWinXPVisualManager@@UAEXPAVCDC@@VCRect@@PAVCBCGPButton@@PAVCBCGPBaseTabWnd@@@Z" PURGE="28" COMMENT="" />
    <EXPORT ORDINAL="4302" NAME="?OnEraseTabsFrame@CBCGPVisualManager2003@@UAEHPAVCDC@@VCRect@@PBVCBCGPBaseTabWnd@@@Z" PURGE="24" COMMENT="" />
    <EXPORT ORDINAL="4303" NAME="?OnEraseTabsFrame@CBCGPVisualManager@@UAEHPAVCDC@@VCRect@@PBVCBCGPBaseTabWnd@@@Z" PURGE="24" COMMENT="" />
    <EXPORT ORDINAL="4304" NAME="?OnEraseTabsFrame@CBCGPWinXPVisualManager@@UAEHPAVCDC@@VCRect@@PBVCBCGPBaseTabWnd@@@Z" PURGE="24" COMMENT="" />
    <EXPORT ORDINAL="4305" NAME="?OnEraseToolBoxButton@CBCGPVisualManager2003@@UAEHPAVCDC@@VCRect@@PAVCBCGPButton@@@Z" PURGE="24" COMMENT="" />
    <EXPORT ORDINAL="4306" NAME="?OnEraseToolBoxButton@CBCGPVisualManager@@UAEHPAVCDC@@VCRect@@PAVCBCGPButton@@@Z" PURGE="24" COMMENT="" />
    <EXPORT ORDINAL="4307" NAME="?OnEraseWorkArea@CBCGPOutlookBarPane@@MAEXPAVCDC@@VCRect@@@Z" PURGE="20" COMMENT="" />
    <EXPORT ORDINAL="4308" NAME="?OnExitSizeMove@CBCGPAppBarWnd@@IAEJIJ@Z" PURGE="8" COMMENT="" />
    <EXPORT ORDINAL="4309" NAME="?OnExitSizeMove@CBCGPFrameWnd@@QAEJIJ@Z" PURGE="8" COMMENT="" />
    <EXPORT ORDINAL="4310" NAME="?OnExitSizeMove@CBCGPMDIFrameWnd@@IAEJIJ@Z" PURGE="8" COMMENT="" />
    <EXPORT ORDINAL="4311" NAME="?OnExitSizeMove@CBCGPMiniFrameWnd@@IAEJIJ@Z" PURGE="8" COMMENT="" />
    <EXPORT ORDINAL="4312" NAME="?OnFailedOperation@CBCGPEditCtrl@@UAEXK@Z" PURGE="4" COMMENT="" />
    <EXPORT ORDINAL="4313" NAME="?OnFilePrintPreview@CBCGPEditView@@IAEXXZ" PURGE="0" COMMENT="" />
    <EXPORT ORDINAL="4314" NAME="?OnFillAutoHideButtonBackground@CBCGPVisualManager2003@@UAEXPAVCDC@@VCRect@@PAVCBCGPAutoHideButton@@@Z" PURGE="24" COMMENT="" />
    <EXPORT ORDINAL="4315" NAME="?OnFillAutoHideButtonBackground@CBCGPVisualManager@@UAEXPAVCDC@@VCRect@@PAVCBCGPAutoHideButton@@@Z" PURGE="24" COMMENT="" />
    <EXPORT ORDINAL="4316" NAME="?OnFillAutoHideButtonBackground@CBCGPVisualManagerVS2005@@UAEXPAVCDC@@VCRect@@PAVCBCGPAutoHideButton@@@Z" PURGE="24" COMMENT="" />
    <EXPORT ORDINAL="4317" NAME="?OnFillBackground@CBCGPAutoHideButton@@UAEXPAVCDC@@VCRect@@@Z" PURGE="20" COMMENT="" />
    <EXPORT ORDINAL="4318" NAME="?OnFillBackground@CBCGPButton@@MAEXPAVCDC@@ABVCRect@@@Z" PURGE="8" COMMENT="" />
    <EXPORT ORDINAL="4319" NAME="?OnFillBackground@CBCGPCalendarBar@@UAEXPAVCDC@@@Z" PURGE="4" COMMENT="" />
    <EXPORT ORDINAL="4320" NAME="?OnFillBackground@CBCGPColorButton@@MAEXPAVCDC@@ABVCRect@@@Z" PURGE="8" COMMENT="" />
    <EXPORT ORDINAL="4321" NAME="?OnFillBackground@CBCGPEditCtrl@@UAEXPAVCDC@@@Z" PURGE="4" COMMENT="" />
    <EXPORT ORDINAL="4322" NAME="?OnFillBackground@CBCGPHeaderCtrl@@MAEXPAVCDC@@@Z" PURGE="4" COMMENT="" />
    <EXPORT ORDINAL="4323" NAME="?OnFillBackground@CBCGPPopupMenuBar@@MAEXPAVCDC@@@Z" PURGE="4" COMMENT="" />
    <EXPORT ORDINAL="4324" NAME="?OnFillBackground@CBCGPPropList@@MAEXPAVCDC@@VCRect@@@Z" PURGE="20" COMMENT="" />
    <EXPORT ORDINAL="4325" NAME="?OnFillBackground@CBCGPTasksPane@@MAEXPAVCDC@@VCRect@@@Z" PURGE="20" COMMENT="" />
    <EXPORT ORDINAL="4326" NAME="?OnFillBackground@CBCGPToolBar@@UAEXPAVCDC@@@Z" PURGE="4" COMMENT="" />
    <EXPORT ORDINAL="4327" NAME="?OnFillBackground@CBCGPToolBoxButton@@UAEXPAVCDC@@ABVCRect@@@Z" PURGE="8" COMMENT="" />
    <EXPORT ORDINAL="4328" NAME="?OnFillBackground@CBCGPToolBoxEx@@UAEXPAVCDC@@VCRect@@@Z" PURGE="20" COMMENT="" />
    <EXPORT ORDINAL="4329" NAME="?OnFillBarBackground@CBCGPVisualManager2003@@UAEXPAVCDC@@PAVCBCGPBaseControlBar@@VCRect@@2H@Z" PURGE="44" COMMENT="" />
    <EXPORT ORDINAL="4330" NAME="?OnFillBarBackground@CBCGPVisualManager@@UAEXPAVCDC@@PAVCBCGPBaseControlBar@@VCRect@@2H@Z" PURGE="44" COMMENT="" />
    <EXPORT ORDINAL="4331" NAME="?OnFillBarBackground@CBCGPVisualManagerVS2005@@UAEXPAVCDC@@PAVCBCGPBaseControlBar@@VCRect@@2H@Z" PURGE="44" COMMENT="" />
    <EXPORT ORDINAL="4332" NAME="?OnFillBarBackground@CBCGPVisualManagerXP@@MAEXPAVCDC@@PAVCBCGPBaseControlBar@@VCRect@@2H@Z" PURGE="44" COMMENT="" />
    <EXPORT ORDINAL="4333" NAME="?OnFillBarBackground@CBCGPWinXPVisualManager@@UAEXPAVCDC@@PAVCBCGPBaseControlBar@@VCRect@@2H@Z" PURGE="44" COMMENT="" />
    <EXPORT ORDINAL="4334" NAME="?OnFillButtonInterior@CBCGPVisualManager2003@@UAEXPAVCDC@@PAVCBCGPToolbarButton@@VCRect@@W4BCGBUTTON_STATE@CBCGPVisualManager@@@Z" PURGE="28" COMMENT="" />
    <EXPORT ORDINAL="4335" NAME="?OnFillButtonInterior@CBCGPVisualManager@@UAEXPAVCDC@@PAVCBCGPToolbarButton@@VCRect@@W4BCGBUTTON_STATE@1@@Z" PURGE="28" COMMENT="" />
    <EXPORT ORDINAL="4336" NAME="?OnFillButtonInterior@CBCGPVisualManagerXP@@MAEXPAVCDC@@PAVCBCGPToolbarButton@@VCRect@@W4BCGBUTTON_STATE@CBCGPVisualManager@@@Z" PURGE="28" COMMENT="" />
    <EXPORT ORDINAL="4337" NAME="?OnFillButtonInterior@CBCGPWinXPVisualManager@@UAEXPAVCDC@@PAVCBCGPToolbarButton@@VCRect@@W4BCGBUTTON_STATE@CBCGPVisualManager@@@Z" PURGE="28" COMMENT="" />
    <EXPORT ORDINAL="4338" NAME="?OnFillCalendarBarNavigationRow@CBCGPVisualManager@@UAEKPAVCDC@@VCRect@@@Z" PURGE="20" COMMENT="" />
    <EXPORT ORDINAL="4339" NAME="?OnFillCalendarBarNavigationRow@CBCGPVisualManagerXP@@MAEKPAVCDC@@VCRect@@@Z" PURGE="20" COMMENT="" />
    <EXPORT ORDINAL="4340" NAME="?OnFillCalendarBarNavigationRow@CBCGPWinXPVisualManager@@UAEKPAVCDC@@VCRect@@@Z" PURGE="20" COMMENT="" />
    <EXPORT ORDINAL="4341" NAME="?OnFillCalendarBarWeekColumn@CBCGPVisualManager@@UAEXPAVCDC@@VCRect@@AAK2@Z" PURGE="28" COMMENT="" />
    <EXPORT ORDINAL="4342" NAME="?OnFillCalendarBarWeekColumn@CBCGPVisualManagerXP@@MAEXPAVCDC@@VCRect@@AAK2@Z" PURGE="28" COMMENT="" />
    <EXPORT ORDINAL="4343" NAME="?OnFillCommandsListBackground@CBCGPVisualManager2003@@UAEKPAVCDC@@VCRect@@H@Z" PURGE="24" COMMENT="" />
    <EXPORT ORDINAL="4344" NAME="?OnFillCommandsListBackground@CBCGPVisualManager@@UAEKPAVCDC@@VCRect@@H@Z" PURGE="24" COMMENT="" />
    <EXPORT ORDINAL="4345" NAME="?OnFillCommandsListBackground@CBCGPVisualManagerXP@@MAEKPAVCDC@@VCRect@@H@Z" PURGE="24" COMMENT="" />
    <EXPORT ORDINAL="4346" NAME="?OnFillCommandsListBackground@CBCGPWinXPVisualManager@@UAEKPAVCDC@@VCRect@@H@Z" PURGE="24" COMMENT="" />
    <EXPORT ORDINAL="4347" NAME="?OnFillHeaderCtrlBackground@CBCGPVisualManager2003@@UAEXPAVCBCGPHeaderCtrl@@PAVCDC@@VCRect@@@Z" PURGE="24" COMMENT="" />
    <EXPORT ORDINAL="4348" NAME="?OnFillHeaderCtrlBackground@CBCGPVisualManager@@UAEXPAVCBCGPHeaderCtrl@@PAVCDC@@VCRect@@@Z" PURGE="24" COMMENT="" />
    <EXPORT ORDINAL="4349" NAME="?OnFillHighlightedArea@CBCGPVisualManager2003@@UAEXPAVCDC@@VCRect@@PAVCBrush@@PAVCBCGPToolbarButton@@@Z" PURGE="28" COMMENT="" />
    <EXPORT ORDINAL="4350" NAME="?OnFillHighlightedArea@CBCGPVisualManagerVS2005@@UAEXPAVCDC@@VCRect@@PAVCBrush@@PAVCBCGPToolbarButton@@@Z" PURGE="28" COMMENT="" />
    <EXPORT ORDINAL="4351" NAME="?OnFillHighlightedArea@CBCGPVisualManagerXP@@MAEXPAVCDC@@VCRect@@PAVCBrush@@PAVCBCGPToolbarButton@@@Z" PURGE="28" COMMENT="" />
    <EXPORT ORDINAL="4352" NAME="?OnFillIntelliSenseList@CBCGPEditCtrl@@UBEHAAHAAVCObList@@@Z" PURGE="8" COMMENT="" />
    <EXPORT ORDINAL="4353" NAME="?OnFillMiniFrameCaption@CBCGPVisualManager@@UAEKPAVCDC@@VCRect@@PAVCBCGPMiniFrameWnd@@H@Z" PURGE="28" COMMENT="" />
    <EXPORT ORDINAL="4354" NAME="?OnFillMiniFrameCaption@CBCGPVisualManagerXP@@MAEKPAVCDC@@VCRect@@PAVCBCGPMiniFrameWnd@@H@Z" PURGE="28" COMMENT="" />
    <EXPORT ORDINAL="4355" NAME="?OnFillMiniFrameCaption@CBCGPWinXPVisualManager@@UAEKPAVCDC@@VCRect@@PAVCBCGPMiniFrameWnd@@H@Z" PURGE="28" COMMENT="" />
    <EXPORT ORDINAL="4356" NAME="?OnFillOutlookBarCaption@CBCGPVisualManager2003@@UAEXPAVCDC@@VCRect@@AAK@Z" PURGE="24" COMMENT="" />
    <EXPORT ORDINAL="4357" NAME="?OnFillOutlookBarCaption@CBCGPVisualManager@@UAEXPAVCDC@@VCRect@@AAK@Z" PURGE="24" COMMENT="" />
    <EXPORT ORDINAL="4358" NAME="?OnFillOutlookPageButton@CBCGPVisualManager2003@@UAEXPAVCDC@@ABVCRect@@HHAAK@Z" PURGE="20" COMMENT="" />
    <EXPORT ORDINAL="4359" NAME="?OnFillOutlookPageButton@CBCGPVisualManager@@UAEXPAVCDC@@ABVCRect@@HHAAK@Z" PURGE="20" COMMENT="" />
    <EXPORT ORDINAL="4360" NAME="?OnFillOutlookPageButton@CBCGPWinXPVisualManager@@UAEXPAVCDC@@ABVCRect@@HHAAK@Z" PURGE="20" COMMENT="" />
    <EXPORT ORDINAL="4361" NAME="?OnFillSplitterBackground@CBCGPVisualManager@@UAEXPAVCDC@@PAVCBCGPSplitterWnd@@VCRect@@@Z" PURGE="24" COMMENT="" />
    <EXPORT ORDINAL="4362" NAME="?OnFillSymListData@CBCGPEditCtrl@@UBEHAAHAAVCObList@@@Z" PURGE="8" COMMENT="" />
    <EXPORT ORDINAL="4363" NAME="?OnFillTab@CBCGPVisualManager2003@@UAEXPAVCDC@@VCRect@@PAVCBrush@@HHPBVCBCGPBaseTabWnd@@@Z" PURGE="36" COMMENT="" />
    <EXPORT ORDINAL="4364" NAME="?OnFillTab@CBCGPVisualManager@@UAEXPAVCDC@@VCRect@@PAVCBrush@@HHPBVCBCGPBaseTabWnd@@@Z" PURGE="36" COMMENT="" />
    <EXPORT ORDINAL="4365" NAME="?OnFillTab@CBCGPVisualManagerXP@@MAEXPAVCDC@@VCRect@@PAVCBrush@@HHPBVCBCGPBaseTabWnd@@@Z" PURGE="36" COMMENT="" />
    <EXPORT ORDINAL="4366" NAME="?OnFillTasksGroupInterior@CBCGPVisualManager2003@@UAEXPAVCDC@@VCRect@@H@Z" PURGE="24" COMMENT="" />
    <EXPORT ORDINAL="4367" NAME="?OnFillTasksGroupInterior@CBCGPVisualManager@@UAEXPAVCDC@@VCRect@@H@Z" PURGE="24" COMMENT="" />
    <EXPORT ORDINAL="4368" NAME="?OnFillTasksGroupInterior@CBCGPVisualManagerXP@@MAEXPAVCDC@@VCRect@@H@Z" PURGE="24" COMMENT="" />
    <EXPORT ORDINAL="4369" NAME="?OnFillTasksGroupInterior@CBCGPWinXPVisualManager@@UAEXPAVCDC@@VCRect@@H@Z" PURGE="24" COMMENT="" />
    <EXPORT ORDINAL="4370" NAME="?OnFillTasksPaneBackground@CBCGPVisualManager2003@@UAEXPAVCDC@@VCRect@@@Z" PURGE="20" COMMENT="" />
    <EXPORT ORDINAL="4371" NAME="?OnFillTasksPaneBackground@CBCGPVisualManager@@UAEXPAVCDC@@VCRect@@@Z" PURGE="20" COMMENT="" />
    <EXPORT ORDINAL="4372" NAME="?OnFillTasksPaneBackground@CBCGPWinXPVisualManager@@UAEXPAVCDC@@VCRect@@@Z" PURGE="20" COMMENT="" />
    <EXPORT ORDINAL="4373" NAME="?OnFindReplace@CBCGPEditView@@IAEJIJ@Z" PURGE="8" COMMENT="" />
    <EXPORT ORDINAL="4374" NAME="?OnFloatStatus@CBCGPMiniFrameWnd@@IAEJIJ@Z" PURGE="8" COMMENT="" />
    <EXPORT ORDINAL="4375" NAME="?OnFormatFileDate@CBCGPShellList@@UAEXABVCTime@ATL@@AAV?$CStringT@DV?$StrTraitMFC_DLL@DV?$ChTraitsCRT@D@ATL@@@@@3@@Z" PURGE="8" COMMENT="" />
    <EXPORT ORDINAL="4376" NAME="?OnFormatFileSize@CBCGPShellList@@UAEXJAAV?$CStringT@DV?$StrTraitMFC_DLL@DV?$ChTraitsCRT@D@ATL@@@@@ATL@@@Z" PURGE="8" COMMENT="" />
    <EXPORT ORDINAL="4377" NAME="?OnForward@CBCGPTasksPane@@IAEXXZ" PURGE="0" COMMENT="" />
    <EXPORT ORDINAL="4378" NAME="?OnGetButton@CBCGPToolBar@@IAEJIJ@Z" PURGE="8" COMMENT="" />
    <EXPORT ORDINAL="4379" NAME="?OnGetButtonCount@CBCGPToolBar@@IAEJIJ@Z" PURGE="8" COMMENT="" />
    <EXPORT ORDINAL="4380" NAME="?OnGetButtonText@CBCGPToolBar@@IAEJIJ@Z" PURGE="8" COMMENT="" />
    <EXPORT ORDINAL="4381" NAME="?OnGetCellBkColor@CBCGPListCtrl@@UAEKHH@Z" PURGE="8" COMMENT="" />
    <EXPORT ORDINAL="4382" NAME="?OnGetCellFont@CBCGPListCtrl@@UAEPAUHFONT__@@HHK@Z" PURGE="12" COMMENT="" />
    <EXPORT ORDINAL="4383" NAME="?OnGetCellTextColor@CBCGPListCtrl@@UAEKHH@Z" PURGE="8" COMMENT="" />
    <EXPORT ORDINAL="4384" NAME="?OnGetCharColor@CBCGPEditCtrl@@UAEXDHAAK0@Z" PURGE="16" COMMENT="" />
    <EXPORT ORDINAL="4385" NAME="?OnGetCheck@CBCGPButton@@IAEJIJ@Z" PURGE="8" COMMENT="" />
    <EXPORT ORDINAL="4386" NAME="?OnGetCustomToolTipText@CBCGPToolbarButton@@UAEHAAV?$CStringT@DV?$StrTraitMFC_DLL@DV?$ChTraitsCRT@D@ATL@@@@@ATL@@@Z" PURGE="4" COMMENT="" />
    <EXPORT ORDINAL="4387" NAME="?OnGetDispInfo@CBCGPPropertySheet@@IAEXPAUtagNMHDR@@PAJ@Z" PURGE="8" COMMENT="" />
    <EXPORT ORDINAL="4388" NAME="?OnGetDlgCode@CBCGPColorButton@@IAEIXZ" PURGE="0" COMMENT="" />
    <EXPORT ORDINAL="4389" NAME="?OnGetDlgCode@CBCGPColorPickerCtrl@@IAEIXZ" PURGE="0" COMMENT="" />
    <EXPORT ORDINAL="4390" NAME="?OnGetDlgCode@CBCGPDateTimeCtrl@@IAEIXZ" PURGE="0" COMMENT="" />
    <EXPORT ORDINAL="4391" NAME="?OnGetDlgCode@CBCGPDurationCtrl@@IAEIXZ" PURGE="0" COMMENT="" />
    <EXPORT ORDINAL="4392" NAME="?OnGetDlgCode@CBCGPEditCtrl@@IAEIXZ" PURGE="0" COMMENT="" />
    <EXPORT ORDINAL="4393" NAME="?OnGetDlgCode@CBCGPEditListBase@@IAEIXZ" PURGE="0" COMMENT="" />
    <EXPORT ORDINAL="4394" NAME="?OnGetDlgCode@CBCGPMenuButton@@IAEIXZ" PURGE="0" COMMENT="" />
    <EXPORT ORDINAL="4395" NAME="?OnGetDlgCode@CBCGPPropList@@IAEIXZ" PURGE="0" COMMENT="" />
    <EXPORT ORDINAL="4396" NAME="?OnGetDragBounds@CBCGPMainClientAreaWnd@@IAEJIJ@Z" PURGE="8" COMMENT="" />
    <EXPORT ORDINAL="4397" NAME="?OnGetEmbeddedItem@CBCGPOleServerDoc@@MAEPAVCOleServerItem@@XZ" PURGE="0" COMMENT="" />
    <EXPORT ORDINAL="4398" NAME="?OnGetFont@CBCGPButton@@IAEJIJ@Z" PURGE="8" COMMENT="" />
    <EXPORT ORDINAL="4399" NAME="?OnGetFont@CBCGPCaptionBar@@IAEJIJ@Z" PURGE="8" COMMENT="" />
    <EXPORT ORDINAL="4400" NAME="?OnGetFont@CBCGPDateTimeCtrl@@IAEJIJ@Z" PURGE="8" COMMENT="" />
    <EXPORT ORDINAL="4401" NAME="?OnGetFont@CBCGPDurationCtrl@@IAEJIJ@Z" PURGE="8" COMMENT="" />
    <EXPORT ORDINAL="4402" NAME="?OnGetFont@CBCGPEditCtrl@@IAEJIJ@Z" PURGE="8" COMMENT="" />
    <EXPORT ORDINAL="4403" NAME="?OnGetFont@CBCGPEditListBase@@IAEJIJ@Z" PURGE="8" COMMENT="" />
    <EXPORT ORDINAL="4404" NAME="?OnGetFont@CBCGPPropList@@IAEJIJ@Z" PURGE="8" COMMENT="" />
    <EXPORT ORDINAL="4405" NAME="?OnGetFont@CBCGPStatusBar@@IAEJIJ@Z" PURGE="8" COMMENT="" />
    <EXPORT ORDINAL="4406" NAME="?OnGetFont@CBCGPTasksPane@@IAEJIJ@Z" PURGE="8" COMMENT="" />
    <EXPORT ORDINAL="4407" NAME="?OnGetHyperlinkString@CBCGPEditCtrl@@UAEHHAAV?$CStringT@DV?$StrTraitMFC_DLL@DV?$ChTraitsCRT@D@ATL@@@@@ATL@@@Z" PURGE="8" COMMENT="" />
    <EXPORT ORDINAL="4408" NAME="?OnGetHyperlinkToolTip@CBCGPEditCtrl@@UAEHHAAV?$CStringT@DV?$StrTraitMFC_DLL@DV?$ChTraitsCRT@D@ATL@@@@@ATL@@@Z" PURGE="8" COMMENT="" />
    <EXPORT ORDINAL="4409" NAME="?OnGetImage@CBCGPButton@@IAEJIJ@Z" PURGE="8" COMMENT="" />
    <EXPORT ORDINAL="4410" NAME="?OnGetImage@CBCGPEditListBase@@UAEHPAUtagLVITEMA@@@Z" PURGE="4" COMMENT="" />
    <EXPORT ORDINAL="4411" NAME="?OnGetItemIcon@CBCGPShellList@@UAEHHPAU_BCGCBITEMINFO@@@Z" PURGE="8" COMMENT="" />
    <EXPORT ORDINAL="4412" NAME="?OnGetItemIcon@CBCGPShellTree@@UAEHPAU_BCGCBITEMINFO@@H@Z" PURGE="8" COMMENT="" />
    <EXPORT ORDINAL="4413" NAME="?OnGetItemRect@CBCGPToolBar@@IAEJIJ@Z" PURGE="8" COMMENT="" />
    <EXPORT ORDINAL="4414" NAME="?OnGetItemText@CBCGPShellList@@UAE?AV?$CStringT@DV?$StrTraitMFC_DLL@DV?$ChTraitsCRT@D@ATL@@@@@ATL@@HHPAU_BCGCBITEMINFO@@@Z" PURGE="16" COMMENT="" />
    <EXPORT ORDINAL="4415" NAME="?OnGetItemText@CBCGPShellTree@@UAE?AV?$CStringT@DV?$StrTraitMFC_DLL@DV?$ChTraitsCRT@D@ATL@@@@@ATL@@PAU_BCGCBITEMINFO@@@Z" PURGE="8" COMMENT="" />
    <EXPORT ORDINAL="4416" NAME="?OnGetMinMaxInfo@CBCGPFrameWnd@@QAEXPAUtagMINMAXINFO@@@Z" PURGE="4" COMMENT="" />
    <EXPORT ORDINAL="4417" NAME="?OnGetMinMaxInfo@CBCGPFullScreenImpl@@QAEXPAUtagMINMAXINFO@@@Z" PURGE="4" COMMENT="" />
    <EXPORT ORDINAL="4418" NAME="?OnGetMinMaxInfo@CBCGPMDIChildWnd@@IAEXPAUtagMINMAXINFO@@@Z" PURGE="4" COMMENT="" />
    <EXPORT ORDINAL="4419" NAME="?OnGetMinMaxInfo@CBCGPMDIFrameWnd@@IAEXPAUtagMINMAXINFO@@@Z" PURGE="4" COMMENT="" />
    <EXPORT ORDINAL="4420" NAME="?OnGetMinMaxInfo@CBCGPMiniFrameWnd@@IAEXPAUtagMINMAXINFO@@@Z" PURGE="4" COMMENT="" />
    <EXPORT ORDINAL="4421" NAME="?OnGetMinMaxInfo@CBCGPMultiMiniFrameWnd@@IAEXPAUtagMINMAXINFO@@@Z" PURGE="4" COMMENT="" />
    <EXPORT ORDINAL="4422" NAME="?OnGetObject@CBCGPPopupMenu@@IAEJIJ@Z" PURGE="8" COMMENT="" />
    <EXPORT ORDINAL="4423" NAME="?OnGetText@CBCGPEditCtrl@@IAEJIJ@Z" PURGE="8" COMMENT="" />
    <EXPORT ORDINAL="4424" NAME="?OnGetText@CBCGPStatusBar@@IAEJIJ@Z" PURGE="8" COMMENT="" />
    <EXPORT ORDINAL="4425" NAME="?OnGetTextColor@CBCGPEditCtrl@@UBEHHHAAK0H@Z" PURGE="20" COMMENT="" />
    <EXPORT ORDINAL="4426" NAME="?OnGetTextLength@CBCGPEditCtrl@@IAEJIJ@Z" PURGE="8" COMMENT="" />
    <EXPORT ORDINAL="4427" NAME="?OnGetTextLength@CBCGPStatusBar@@IAEJIJ@Z" PURGE="8" COMMENT="" />
    <EXPORT ORDINAL="4428" NAME="?OnGetTipText@CBCGPEditCtrl@@UAEHAAV?$CStringT@DV?$StrTraitMFC_DLL@DV?$ChTraitsCRT@D@ATL@@@@@ATL@@@Z" PURGE="4" COMMENT="" />
    <EXPORT ORDINAL="4429" NAME="?OnGetWordColor@CBCGPEditCtrl@@UAEHABV?$CStringT@DV?$StrTraitMFC_DLL@DV?$ChTraitsCRT@D@ATL@@@@@ATL@@AAK1H@Z" PURGE="16" COMMENT="" />
    <EXPORT ORDINAL="4430" NAME="?OnGetdispinfo@CBCGPEditListBox@@IAEXPAUtagNMHDR@@PAJ@Z" PURGE="8" COMMENT="" />
    <EXPORT ORDINAL="4431" NAME="?OnGlobalFontsChanged@CBCGPToolBar@@UAEXXZ" PURGE="0" COMMENT="" />
    <EXPORT ORDINAL="4432" NAME="?OnGlobalFontsChanged@CBCGPToolbarButton@@UAEXXZ" PURGE="0" COMMENT="" />
    <EXPORT ORDINAL="4433" NAME="?OnGlobalFontsChanged@CBCGPToolbarComboBoxButton@@UAEXXZ" PURGE="0" COMMENT="" />
    <EXPORT ORDINAL="4434" NAME="?OnGlobalFontsChanged@CBCGPToolbarDateTimeCtrl@@UAEXXZ" PURGE="0" COMMENT="" />
    <EXPORT ORDINAL="4435" NAME="?OnGlobalFontsChanged@CBCGPToolbarEditBoxButton@@UAEXXZ" PURGE="0" COMMENT="" />
    <EXPORT ORDINAL="4436" NAME="?OnHScroll@CBCGPEditCtrl@@IAEXIIPAVCScrollBar@@@Z" PURGE="12" COMMENT="" />
    <EXPORT ORDINAL="4437" NAME="?OnHScroll@CBCGPHotSpotImageCtrl@@IAEXIIPAVCScrollBar@@@Z" PURGE="12" COMMENT="" />
    <EXPORT ORDINAL="4438" NAME="?OnHScroll@CBCGPTabWnd@@IAEXIIPAVCScrollBar@@@Z" PURGE="12" COMMENT="" />
    <EXPORT ORDINAL="4439" NAME="?OnHeaderEndTrack@CBCGPPropList@@IAEXPAUtagNMHDR@@PAJ@Z" PURGE="8" COMMENT="" />
    <EXPORT ORDINAL="4440" NAME="?OnHeaderItemChanged@CBCGPPropList@@IAEXPAUtagNMHDR@@PAJ@Z" PURGE="8" COMMENT="" />
    <EXPORT ORDINAL="4441" NAME="?OnHeaderTrack@CBCGPPropList@@IAEXPAUtagNMHDR@@PAJ@Z" PURGE="8" COMMENT="" />
    <EXPORT ORDINAL="4442" NAME="?OnHeightChange@CBCGPReBar@@IAEXPAUtagNMHDR@@PAJ@Z" PURGE="8" COMMENT="" />
    <EXPORT ORDINAL="4443" NAME="?OnHelpHitTest@CBCGPBaseControlBar@@IAEJIJ@Z" PURGE="8" COMMENT="" />
    <EXPORT ORDINAL="4444" NAME="?OnHelpHitTest@CBCGPToolBar@@IAEJIJ@Z" PURGE="8" COMMENT="" />
    <EXPORT ORDINAL="4445" NAME="?OnHelpInfo@CBCGPToolbarCustomize@@IAEHPAUtagHELPINFO@@@Z" PURGE="4" COMMENT="" />
    <EXPORT ORDINAL="4446" NAME="?OnHelpInfo@CBCGPWindowsManagerDlg@@IAEHPAUtagHELPINFO@@@Z" PURGE="4" COMMENT="" />
    <EXPORT ORDINAL="4447" NAME="?OnHideCalendarPopup@CBCGPDateTimeCtrl@@MAEXXZ" PURGE="0" COMMENT="" />
    <EXPORT ORDINAL="4448" NAME="?OnHighlightMenuItem@CBCGPVisualManager@@UAEXPAVCDC@@PAVCBCGPToolbarMenuButton@@VCRect@@AAK@Z" PURGE="28" COMMENT="" />
    <EXPORT ORDINAL="4449" NAME="?OnHighlightMenuItem@CBCGPVisualManagerXP@@MAEXPAVCDC@@PAVCBCGPToolbarMenuButton@@VCRect@@AAK@Z" PURGE="28" COMMENT="" />
    <EXPORT ORDINAL="4450" NAME="?OnHighlightMenuItem@CBCGPWinXPVisualManager@@UAEXPAVCDC@@PAVCBCGPToolbarMenuButton@@VCRect@@AAK@Z" PURGE="28" COMMENT="" />
    <EXPORT ORDINAL="4451" NAME="?OnHighlightQuickCustomizeMenuButton@CBCGPVisualManager2003@@UAEXPAVCDC@@PAVCBCGPToolbarMenuButton@@VCRect@@@Z" PURGE="24" COMMENT="" />
    <EXPORT ORDINAL="4452" NAME="?OnHighlightQuickCustomizeMenuButton@CBCGPVisualManagerXP@@MAEXPAVCDC@@PAVCBCGPToolbarMenuButton@@VCRect@@@Z" PURGE="24" COMMENT="" />
    <EXPORT ORDINAL="4453" NAME="?OnHighlightRarelyUsedMenuItems@CBCGPVisualManager2003@@UAEXPAVCDC@@VCRect@@@Z" PURGE="20" COMMENT="" />
    <EXPORT ORDINAL="4454" NAME="?OnHighlightRarelyUsedMenuItems@CBCGPVisualManager@@UAEXPAVCDC@@VCRect@@@Z" PURGE="20" COMMENT="" />
    <EXPORT ORDINAL="4455" NAME="?OnHighlightRarelyUsedMenuItems@CBCGPVisualManagerXP@@MAEXPAVCDC@@VCRect@@@Z" PURGE="20" COMMENT="" />
    <EXPORT ORDINAL="4456" NAME="?OnHighlightRarelyUsedMenuItems@CBCGPWinXPVisualManager@@UAEXPAVCDC@@VCRect@@@Z" PURGE="20" COMMENT="" />
    <EXPORT ORDINAL="4457" NAME="?OnHome@CBCGPTasksPane@@IAEXXZ" PURGE="-1" COMMENT="" />
    <EXPORT ORDINAL="4458" NAME="?OnHyperlinkClick@CBCGPEditCtrl@@UAEXHPBD@Z" PURGE="8" COMMENT="" />
    <EXPORT ORDINAL="4459" NAME="?OnIdleUpdateCmdUI@CBCGPAppBarWnd@@IAEJIJ@Z" PURGE="8" COMMENT="" />
    <EXPORT ORDINAL="4460" NAME="?OnIdleUpdateCmdUI@CBCGPBaseControlBar@@IAEJIJ@Z" PURGE="8" COMMENT="" />
    <EXPORT ORDINAL="4461" NAME="?OnIdleUpdateCmdUI@CBCGPFrameWnd@@QAEJIJ@Z" PURGE="8" COMMENT="" />
    <EXPORT ORDINAL="4462" NAME="?OnIdleUpdateCmdUI@CBCGPMDIChildWnd@@IAEJIJ@Z" PURGE="8" COMMENT="" />
    <EXPORT ORDINAL="4463" NAME="?OnIdleUpdateCmdUI@CBCGPMDIFrameWnd@@IAEJIJ@Z" PURGE="8" COMMENT="" />
    <EXPORT ORDINAL="4464" NAME="?OnIdleUpdateCmdUI@CBCGPMiniFrameWnd@@IAEJIJ@Z" PURGE="8" COMMENT="" />
    <EXPORT ORDINAL="4465" NAME="?OnIdleUpdateCmdUI@CBCGPMultiMiniFrameWnd@@IAEJIJ@Z" PURGE="8" COMMENT="" />
    <EXPORT ORDINAL="4466" NAME="?OnIdleUpdateCmdUI@CBCGPOleCntrFrameWnd@@IAEXXZ" PURGE="0" COMMENT="" />
    <EXPORT ORDINAL="4467" NAME="?OnIdleUpdateCmdUI@CBCGPOleDocIPFrameWnd@@IAEJIJ@Z" PURGE="8" COMMENT="" />
    <EXPORT ORDINAL="4468" NAME="?OnIdleUpdateCmdUI@CBCGPOleIPFrameWnd@@IAEJIJ@Z" PURGE="8" COMMENT="" />
    <EXPORT ORDINAL="4469" NAME="?OnIdleUpdateCmdUI@CBCGPPopupMenuBar@@IAEJIJ@Z" PURGE="8" COMMENT="" />
    <EXPORT ORDINAL="4470" NAME="?OnInitDialog@CBCGPColorDialog@@MAEHXZ" PURGE="0" COMMENT="" />
    <EXPORT ORDINAL="4471" NAME="?OnInitDialog@CBCGPImageEditDlg@@MAEHXZ" PURGE="0" COMMENT="" />
    <EXPORT ORDINAL="4472" NAME="?OnInitDialog@CBCGPKeyMapDlg@@MAEHXZ" PURGE="0" COMMENT="" />
    <EXPORT ORDINAL="4473" NAME="?OnInitDialog@CBCGPPropertySheet@@UAEHXZ" PURGE="0" COMMENT="" />
    <EXPORT ORDINAL="4474" NAME="?OnInitDialog@CBCGPToolbarCustomize@@UAEHXZ" PURGE="0" COMMENT="" />
    <EXPORT ORDINAL="4475" NAME="?OnInitDialog@CBCGPWindowsManagerDlg@@MAEHXZ" PURGE="0" COMMENT="" />
    <EXPORT ORDINAL="4476" NAME="?OnInitDone@CBCGPFileDialog@@MAEXXZ" PURGE="0" COMMENT="" />
    <EXPORT ORDINAL="4477" NAME="?OnInitToolsPage@CBCGPToolbarCustomize@@MAEXXZ" PURGE="0" COMMENT="" />
    <EXPORT ORDINAL="4478" NAME="?OnInsertControlBar@CBCGPDockBarRow@@MAEXPAVCBCGPControlBar@@@Z" PURGE="4" COMMENT="" />
