<?xml version="1.0" encoding="UTF-8"?>
<LIBRARY NAME="bdasmdll.dll" PATH="/DLLArchive/etc/bdasmdll.dll" DATE="Wed Dec 07 13:08:26 PST 2005" VERSION="">
    <EXPORT ORDINAL="1" NAME="??0CDataRefTree@@QAE@ABV0@@Z" PURGE="4" COMMENT="" />
    <EXPORT ORDINAL="2" NAME="??0CDataRefTree@@QAE@XZ" PURGE="0" COMMENT="" />
    <EXPORT ORDINAL="3" NAME="??0CImpConst@@QAE@ABV0@@Z" PURGE="4" COMMENT="" />
    <EXPORT ORDINAL="4" NAME="??0CImpConst@@QAE@PAU_IMP_CONST_DEF@@@Z" PURGE="4" COMMENT="" />
    <EXPORT ORDINAL="5" NAME="??0CImpConst@@QAE@XZ" PURGE="0" COMMENT="" />
    <EXPORT ORDINAL="6" NAME="??0CImpDef@@QAE@ABV0@@Z" PURGE="4" COMMENT="" />
    <EXPORT ORDINAL="7" NAME="??0CImpDef@@QAE@PAU_IMP_DEF@@AAV?$vector@U_IMP_PARAM_DATA@@V?$allocator@U_IMP_PARAM_DATA@@@std@@@std@@AAV?$vector@V?$basic_string@DU?$char_traits@D@std@@V?$allocator@D@2@@std@@V?$allocator@V?$basic_string@DU?$char_traits@D@std@@V?$allocator@D@2@@std@@@2@@3@@Z" PURGE="12" COMMENT="" />
    <EXPORT ORDINAL="8" NAME="??0CImpDef@@QAE@XZ" PURGE="0" COMMENT="" />
    <EXPORT ORDINAL="9" NAME="??0CImpLib@@QAE@ABV0@@Z" PURGE="4" COMMENT="" />
    <EXPORT ORDINAL="10" NAME="??0CImpLib@@QAE@XZ" PURGE="0" COMMENT="" />
    <EXPORT ORDINAL="11" NAME="??0CImpParam@@QAE@ABV0@@Z" PURGE="4" COMMENT="" />
    <EXPORT ORDINAL="12" NAME="??0CImpParam@@QAE@PAU_IMP_PARAM_DATA@@PAK@Z" PURGE="8" COMMENT="" />
    <EXPORT ORDINAL="13" NAME="??0CImpParam@@QAE@XZ" PURGE="0" COMMENT="" />
    <EXPORT ORDINAL="14" NAME="??0CImpStruct@@QAE@ABV0@@Z" PURGE="4" COMMENT="" />
    <EXPORT ORDINAL="15" NAME="??0CImpStruct@@QAE@PAU_STRUCT_DATA_DEF@@AAV?$vector@KV?$allocator@K@std@@@std@@AAV?$vector@V?$basic_string@DU?$char_traits@D@std@@V?$allocator@D@2@@std@@V?$allocator@V?$basic_string@DU?$char_traits@D@std@@V?$allocator@D@2@@std@@@2@@3@AAV?$vector@EV?$allocator@E@std@@@3@@Z" PURGE="16" COMMENT="" />
    <EXPORT ORDINAL="16" NAME="??0CImpStruct@@QAE@PAU_STRUCT_DATA_DEF@@K@Z" PURGE="8" COMMENT="" />
    <EXPORT ORDINAL="17" NAME="??0CImpStruct@@QAE@PAU_STRUCT_DATA_DEF@@PAK@Z" PURGE="8" COMMENT="" />
    <EXPORT ORDINAL="18" NAME="??0CImpStruct@@QAE@XZ" PURGE="0" COMMENT="" />
    <EXPORT ORDINAL="19" NAME="??0CMappedFile@@QAE@XZ" PURGE="0" COMMENT="" />
    <EXPORT ORDINAL="20" NAME="??0I_CCPUDecoder@@QAE@ABV0@@Z" PURGE="4" COMMENT="" />
    <EXPORT ORDINAL="21" NAME="??0I_CCPUDecoder@@QAE@XZ" PURGE="0" COMMENT="" />
    <EXPORT ORDINAL="22" NAME="??0I_CCPUDecoderEx@@QAE@ABV0@@Z" PURGE="4" COMMENT="" />
    <EXPORT ORDINAL="23" NAME="??0I_CCPUDecoderEx@@QAE@XZ" PURGE="0" COMMENT="" />
    <EXPORT ORDINAL="24" NAME="??0I_CExMapFormatReader@@QAE@ABV0@@Z" PURGE="4" COMMENT="" />
    <EXPORT ORDINAL="25" NAME="??0I_CExMapFormatReader@@QAE@XZ" PURGE="0" COMMENT="" />
    <EXPORT ORDINAL="26" NAME="??0I_CFormatReader@@QAE@ABV0@@Z" PURGE="4" COMMENT="" />
    <EXPORT ORDINAL="27" NAME="??0I_CFormatReader@@QAE@XZ" PURGE="0" COMMENT="" />
    <EXPORT ORDINAL="28" NAME="??0I_CMappedFormatReader@@QAE@ABV0@@Z" PURGE="4" COMMENT="" />
    <EXPORT ORDINAL="29" NAME="??0I_CMappedFormatReader@@QAE@XZ" PURGE="0" COMMENT="" />
    <EXPORT ORDINAL="30" NAME="??0I_CSymbolCollection@@QAE@ABV0@@Z" PURGE="4" COMMENT="" />
    <EXPORT ORDINAL="31" NAME="??0I_CSymbolCollection@@QAE@XZ" PURGE="0" COMMENT="" />
    <EXPORT ORDINAL="32" NAME="??0ImpCallStruct@@QAE@ABV0@@Z" PURGE="4" COMMENT="" />
    <EXPORT ORDINAL="33" NAME="??0ImpCallStruct@@QAE@PAD0G@Z" PURGE="12" COMMENT="" />
    <EXPORT ORDINAL="34" NAME="??0JmpRefList@@QAE@ABV0@@Z" PURGE="4" COMMENT="" />
    <EXPORT ORDINAL="35" NAME="??0JmpRefList@@QAE@XZ" PURGE="0" COMMENT="" />
    <EXPORT ORDINAL="36" NAME="??0RefAddr@@QAE@ABV0@@Z" PURGE="4" COMMENT="" />
    <EXPORT ORDINAL="37" NAME="??0RefAddr@@QAE@XZ" PURGE="0" COMMENT="" />
    <EXPORT ORDINAL="38" NAME="??0routine_def@@QAE@ABV0@@Z" PURGE="4" COMMENT="" />
    <EXPORT ORDINAL="39" NAME="??0routine_def@@QAE@PBD@Z" PURGE="4" COMMENT="" />
    <EXPORT ORDINAL="40" NAME="??0routine_def@@QAE@XZ" PURGE="0" COMMENT="" />
    <EXPORT ORDINAL="41" NAME="??1CDataRefTree@@QAE@XZ" PURGE="0" COMMENT="" />
    <EXPORT ORDINAL="42" NAME="??1CImpDef@@QAE@XZ" PURGE="0" COMMENT="" />
    <EXPORT ORDINAL="43" NAME="??1CImpLib@@QAE@XZ" PURGE="0" COMMENT="" />
    <EXPORT ORDINAL="44" NAME="??1CImpParam@@QAE@XZ" PURGE="0" COMMENT="" />
    <EXPORT ORDINAL="45" NAME="??1CImpStruct@@QAE@XZ" PURGE="0" COMMENT="" />
    <EXPORT ORDINAL="46" NAME="??1CMappedFile@@QAE@XZ" PURGE="0" COMMENT="" />
    <EXPORT ORDINAL="47" NAME="??1I_CCPUDecoder@@QAE@XZ" PURGE="0" COMMENT="" />
    <EXPORT ORDINAL="48" NAME="??1I_CCPUDecoderEx@@QAE@XZ" PURGE="0" COMMENT="" />
    <EXPORT ORDINAL="49" NAME="??1I_CExMapFormatReader@@QAE@XZ" PURGE="0" COMMENT="" />
    <EXPORT ORDINAL="50" NAME="??1I_CMappedFormatReader@@QAE@XZ" PURGE="0" COMMENT="" />
    <EXPORT ORDINAL="51" NAME="??1I_CSymbolCollection@@QAE@XZ" PURGE="0" COMMENT="" />
    <EXPORT ORDINAL="52" NAME="??1ImpCallStruct@@QAE@XZ" PURGE="0" COMMENT="" />
    <EXPORT ORDINAL="53" NAME="??1JmpRefList@@QAE@XZ" PURGE="0" COMMENT="" />
    <EXPORT ORDINAL="54" NAME="??1RefAddr@@QAE@XZ" PURGE="0" COMMENT="" />
    <EXPORT ORDINAL="55" NAME="??1routine_def@@QAE@XZ" PURGE="0" COMMENT="" />
    <EXPORT ORDINAL="56" NAME="??4CDataRefTree@@QAEAAV0@ABV0@@Z" PURGE="4" COMMENT="" />
    <EXPORT ORDINAL="57" NAME="??4CImpConst@@QAEAAV0@ABV0@@Z" PURGE="4" COMMENT="" />
    <EXPORT ORDINAL="58" NAME="??4CImpDef@@QAEAAV0@ABV0@@Z" PURGE="4" COMMENT="" />
    <EXPORT ORDINAL="59" NAME="??4CImpLib@@QAEAAV0@ABV0@@Z" PURGE="4" COMMENT="" />
    <EXPORT ORDINAL="60" NAME="??4CImpParam@@QAEAAV0@ABV0@@Z" PURGE="4" COMMENT="" />
    <EXPORT ORDINAL="61" NAME="??4CImpStruct@@QAEAAV0@ABV0@@Z" PURGE="4" COMMENT="" />
    <EXPORT ORDINAL="62" NAME="??4CMappedFile@@QAEAAV0@ABV0@@Z" PURGE="4" COMMENT="" />
    <EXPORT ORDINAL="63" NAME="??4I_CCPUDecoder@@QAEAAV0@ABV0@@Z" PURGE="4" COMMENT="" />
    <EXPORT ORDINAL="64" NAME="??4I_CCPUDecoderEx@@QAEAAV0@ABV0@@Z" PURGE="4" COMMENT="" />
    <EXPORT ORDINAL="65" NAME="??4I_CExMapFormatReader@@QAEAAV0@ABV0@@Z" PURGE="4" COMMENT="" />
    <EXPORT ORDINAL="66" NAME="??4I_CFormatReader@@QAEAAV0@ABV0@@Z" PURGE="4" COMMENT="" />
    <EXPORT ORDINAL="67" NAME="??4I_CMappedFormatReader@@QAEAAV0@ABV0@@Z" PURGE="4" COMMENT="" />
    <EXPORT ORDINAL="68" NAME="??4I_CSymbolCollection@@QAEAAV0@ABV0@@Z" PURGE="4" COMMENT="" />
    <EXPORT ORDINAL="69" NAME="??4ImpCallStruct@@QAEAAV0@ABV0@@Z" PURGE="4" COMMENT="" />
    <EXPORT ORDINAL="70" NAME="??4JmpRefList@@QAEAAV0@ABV0@@Z" PURGE="4" COMMENT="" />
    <EXPORT ORDINAL="71" NAME="??4RefAddr@@QAEAAV0@ABV0@@Z" PURGE="4" COMMENT="" />
    <EXPORT ORDINAL="72" NAME="??4routine_def@@QAEAAV0@ABV0@@Z" PURGE="4" COMMENT="" />
    <EXPORT ORDINAL="73" NAME="??MCImpConst@@QAEHABV0@@Z" PURGE="4" COMMENT="" />
    <EXPORT ORDINAL="74" NAME="??MCImpDef@@QAEHABV0@@Z" PURGE="4" COMMENT="" />
    <EXPORT ORDINAL="75" NAME="??_7I_CCPUDecoder@@6B@" PURGE="-1" COMMENT="" />
    <EXPORT ORDINAL="76" NAME="??_7I_CCPUDecoderEx@@6B@" PURGE="-1" COMMENT="" />
    <EXPORT ORDINAL="77" NAME="??_7I_CExMapFormatReader@@6B@" PURGE="-1" COMMENT="" />
    <EXPORT ORDINAL="78" NAME="??_7I_CFormatReader@@6B@" PURGE="-1" COMMENT="" />
    <EXPORT ORDINAL="79" NAME="??_7I_CMappedFormatReader@@6B@" PURGE="-1" COMMENT="" />
    <EXPORT ORDINAL="80" NAME="?Add@I_CSymbolCollection@@QAEXKPAUBDASM_SYMBOL@@@Z" PURGE="8" COMMENT="" />
    <EXPORT ORDINAL="81" NAME="?AddAddr@CDataRefTree@@QAEXKK@Z" PURGE="8" COMMENT="" />
    <EXPORT ORDINAL="82" NAME="?AddAddr@JmpRefList@@QAEXKKE@Z" PURGE="12" COMMENT="" />
    <EXPORT ORDINAL="83" NAME="?AddAddr@RefAddr@@QAEXKE@Z" PURGE="8" COMMENT="" />
    <EXPORT ORDINAL="84" NAME="?AddAddrNoCheck@JmpRefList@@QAEXKKEPAD@Z" PURGE="16" COMMENT="" />
    <EXPORT ORDINAL="85" NAME="?AddConstName@CImpLib@@QAEKPAD@Z" PURGE="4" COMMENT="" />
    <EXPORT ORDINAL="86" NAME="?AddImpConst@CImpLib@@QAEHPAU_IMP_CONST_DEF@@@Z" PURGE="4" COMMENT="" />
    <EXPORT ORDINAL="87" NAME="?AddImpDef@CImpLib@@QAEHPAU_IMP_DEF@@AAV?$vector@U_IMP_PARAM_DATA@@V?$allocator@U_IMP_PARAM_DATA@@@std@@@std@@AAV?$vector@V?$basic_string@DU?$char_traits@D@std@@V?$allocator@D@2@@std@@V?$allocator@V?$basic_string@DU?$char_traits@D@std@@V?$allocator@D@2@@std@@@2@@4@@Z" PURGE="12" COMMENT="" />
    <EXPORT ORDINAL="88" NAME="?AddImpName@CImpLib@@QAEKPAD@Z" PURGE="4" COMMENT="" />
    <EXPORT ORDINAL="89" NAME="?AddImpStruct@CImpLib@@QAEHPAU_STRUCT_DATA_DEF@@AAV?$vector@KV?$allocator@K@std@@@std@@AAV?$vector@V?$basic_string@DU?$char_traits@D@std@@V?$allocator@D@2@@std@@V?$allocator@V?$basic_string@DU?$char_traits@D@std@@V?$allocator@D@2@@std@@@2@@4@AAV?$vector@EV?$allocator@E@std@@@4@@Z" PURGE="16" COMMENT="" />
    <EXPORT ORDINAL="90" NAME="?AddImpStruct@CImpLib@@QAEHPAU_STRUCT_DATA_DEF@@K@Z" PURGE="8" COMMENT="" />
    <EXPORT ORDINAL="91" NAME="?AddImpStruct@CImpLib@@QAEHPAU_STRUCT_DATA_DEF@@PAK@Z" PURGE="8" COMMENT="" />
    <EXPORT ORDINAL="92" NAME="?AddLibName@CImpLib@@QAEKPAD@Z" PURGE="4" COMMENT="" />
    <EXPORT ORDINAL="93" NAME="?AddMember@CImpStruct@@QAEKK@Z" PURGE="4" COMMENT="" />
    <EXPORT ORDINAL="94" NAME="?AddSegment@I_CCPUDecoderEx@@UAEHAAUBDASMSegment@@@Z" PURGE="4" COMMENT="" />
    <EXPORT ORDINAL="95" NAME="?AddSymbolName@CImpLib@@QAEKPAD@Z" PURGE="4" COMMENT="" />
    <EXPORT ORDINAL="96" NAME="?AllocBuffer@I_CCPUDecoderEx@@UAEHK@Z" PURGE="4" COMMENT="" />
    <EXPORT ORDINAL="97" NAME="?AnalizeCodeRefTree@I_CCPUDecoderEx@@UAEXXZ" PURGE="0" COMMENT="" />
    <EXPORT ORDINAL="98" NAME="?AnalizeDataRefTree@I_CCPUDecoderEx@@UAEXXZ" PURGE="0" COMMENT="" />
    <EXPORT ORDINAL="99" NAME="?BuildExportList@I_CExMapFormatReader@@UAEHXZ" PURGE="0" COMMENT="" />
    <EXPORT ORDINAL="100" NAME="?BuildImportList@I_CExMapFormatReader@@UAEHXZ" PURGE="0" COMMENT="" />
    <EXPORT ORDINAL="101" NAME="?BuildRoutinesList@I_CCPUDecoderEx@@UAEXH@Z" PURGE="4" COMMENT="" />
    <EXPORT ORDINAL="102" NAME="?BuildRoutinesListEx@I_CCPUDecoderEx@@UAEXHP6AHPAX@Z0@Z" PURGE="12" COMMENT="" />
    <EXPORT ORDINAL="103" NAME="?BuildStringTable@CImpLib@@AAEHAAV?$vector@V?$basic_string@DU?$char_traits@D@std@@V?$allocator@D@2@@std@@V?$allocator@V?$basic_string@DU?$char_traits@D@std@@V?$allocator@D@2@@std@@@2@@std@@PADK@Z" PURGE="12" COMMENT="" />
    <EXPORT ORDINAL="104" NAME="?CheckJmpRangeFrom@JmpRefList@@QAEKAAKKAAViterator@?$_Tree@V?$_Tmap_traits@KVRefAddr@@U?$less@K@std@@V?$allocator@U?$pair@$$CBKVRefAddr@@@std@@@3@$0A@@std@@@std@@@Z" PURGE="12" COMMENT="" />
    <EXPORT ORDINAL="105" NAME="?Clear@CDataRefTree@@QAEXXZ" PURGE="0" COMMENT="" />
    <EXPORT ORDINAL="106" NAME="?Clear@I_CSymbolCollection@@QAEXXZ" PURGE="0" COMMENT="" />
    <EXPORT ORDINAL="107" NAME="?Clear@JmpRefList@@QAEXXZ" PURGE="0" COMMENT="" />
    <EXPORT ORDINAL="108" NAME="?ClearMsgList@I_CCPUDecoderEx@@UAEXXZ" PURGE="0" COMMENT="" />
    <EXPORT ORDINAL="109" NAME="?Close@CImpLib@@QAEXXZ" PURGE="0" COMMENT="" />
    <EXPORT ORDINAL="110" NAME="?Close@CMappedFile@@QAEXXZ" PURGE="0" COMMENT="" />
    <EXPORT ORDINAL="111" NAME="?Count@CDataRefTree@@QAEKXZ" PURGE="0" COMMENT="" />
    <EXPORT ORDINAL="112" NAME="?Count@JmpRefList@@QAEKXZ" PURGE="0" COMMENT="" />
    <EXPORT ORDINAL="113" NAME="?Count@RefAddr@@QAEKXZ" PURGE="0" COMMENT="" />
    <EXPORT ORDINAL="114" NAME="?Create@CMappedFile@@QAEHPADKK@Z" PURGE="12" COMMENT="" />
    <EXPORT ORDINAL="115" NAME="?DeleteSegmentByIndex@I_CCPUDecoderEx@@UAEHH@Z" PURGE="4" COMMENT="" />
    <EXPORT ORDINAL="116" NAME="?DeleteSegments@I_CCPUDecoderEx@@UAEXXZ" PURGE="0" COMMENT="" />
    <EXPORT ORDINAL="117" NAME="?EnableImportRefs@I_CExMapFormatReader@@UAEXHPAVCImpLib@@@Z" PURGE="8" COMMENT="" />
    <EXPORT ORDINAL="118" NAME="?EnableStackTrace@I_CCPUDecoderEx@@UAEXH@Z" PURGE="4" COMMENT="" />
    <EXPORT ORDINAL="119" NAME="?EnableStringRefs@I_CCPUDecoderEx@@UAEXH@Z" PURGE="4" COMMENT="" />
    <EXPORT ORDINAL="120" NAME="?EnumAllRefs@CDataRefTree@@QAEXPAX@Z" PURGE="4" COMMENT="" />
    <EXPORT ORDINAL="121" NAME="?EnumAllRefs@JmpRefList@@QAEXPAX@Z" PURGE="4" COMMENT="" />
    <EXPORT ORDINAL="122" NAME="?FillIndexArray@CImpParam@@QAEHGPAK@Z" PURGE="8" COMMENT="" />
    <EXPORT ORDINAL="123" NAME="?Find@CDataRefTree@@QAEPAVRefAddr@@K@Z" PURGE="4" COMMENT="" />
    <EXPORT ORDINAL="124" NAME="?Find@JmpRefList@@QAEPAVRefAddr@@K@Z" PURGE="4" COMMENT="" />
    <EXPORT ORDINAL="125" NAME="?FindByName@I_CSymbolCollection@@QAEPAUBDASM_SYMBOL@@PAEPAK@Z" PURGE="8" COMMENT="" />
    <EXPORT ORDINAL="126" NAME="?FindByType@I_CSymbolCollection@@QAEPAUBDASM_SYMBOL@@KE@Z" PURGE="8" COMMENT="" />
    <EXPORT ORDINAL="127" NAME="?FindConstantNameIndexByName@CImpLib@@QAEHPADPAK@Z" PURGE="8" COMMENT="" />
    <EXPORT ORDINAL="128" NAME="?FindInRange@JmpRefList@@QAE?AViterator@?$_Tree@V?$_Tmap_traits@KVRefAddr@@U?$less@K@std@@V?$allocator@U?$pair@$$CBKVRefAddr@@@std@@@3@$0A@@std@@@std@@KK@Z" PURGE="12" COMMENT="" />
    <EXPORT ORDINAL="129" NAME="?FindLibNameIndexByName@CImpLib@@QAEHPADPAK@Z" PURGE="8" COMMENT="" />
    <EXPORT ORDINAL="130" NAME="?FindSymbolIndexByName@CImpLib@@QAEHPADPAK@Z" PURGE="8" COMMENT="" />
    <EXPORT ORDINAL="131" NAME="?FindSymbolNameIndexByName@CImpLib@@QAEHPADPAK@Z" PURGE="8" COMMENT="" />
    <EXPORT ORDINAL="132" NAME="?FreeBuffer@I_CCPUDecoderEx@@UAEHXZ" PURGE="0" COMMENT="" />
    <EXPORT ORDINAL="133" NAME="?FreeRefList@I_CCPUDecoderEx@@UAEXXZ" PURGE="0" COMMENT="" />
    <EXPORT ORDINAL="134" NAME="?GeParamStruct@CImpDef@@QAEPBVCImpStruct@@KAAV?$vector@VCImpStruct@@V?$allocator@VCImpStruct@@@std@@@std@@@Z" PURGE="8" COMMENT="" />
    <EXPORT ORDINAL="135" NAME="?GetBaseAddr@CMappedFile@@QAIPAXXZ" PURGE="0" COMMENT="" />
    <EXPORT ORDINAL="136" NAME="?GetBinaryCPUSize@I_CExMapFormatReader@@UAEEXZ" PURGE="0" COMMENT="" />
    <EXPORT ORDINAL="137" NAME="?GetBuffer@I_CCPUDecoderEx@@UAEPAEXZ" PURGE="0" COMMENT="" />
    <EXPORT ORDINAL="138" NAME="?GetBufferAddr@I_CCPUDecoderEx@@UAEPAEXZ" PURGE="0" COMMENT="" />
    <EXPORT ORDINAL="139" NAME="?GetBufferPos@I_CCPUDecoderEx@@UAEKXZ" PURGE="0" COMMENT="" />
    <EXPORT ORDINAL="140" NAME="?GetBufferSize@I_CCPUDecoderEx@@UAEKXZ" PURGE="0" COMMENT="" />
    <EXPORT ORDINAL="141" NAME="?GetCPUEncodingOrder@I_CCPUDecoderEx@@UAEEXZ" PURGE="0" COMMENT="" />
    <EXPORT ORDINAL="142" NAME="?GetCallEndAddr@I_CCPUDecoderEx@@UAEKViterator@?$_Tree@V?$_Tmap_traits@KVRefAddr@@U?$less@K@std@@V?$allocator@U?$pair@$$CBKVRefAddr@@@std@@@3@$0A@@std@@@std@@0@Z" PURGE="8" COMMENT="" />
    <EXPORT ORDINAL="143" NAME="?GetConstCount@CImpLib@@QAEKXZ" PURGE="0" COMMENT="" />
    <EXPORT ORDINAL="144" NAME="?GetConstantByName@CImpLib@@QAEPAVCImpConst@@PAD@Z" PURGE="4" COMMENT="" />
    <EXPORT ORDINAL="145" NAME="?GetCount@I_CSymbolCollection@@QAEKXZ" PURGE="0" COMMENT="" />
    <EXPORT ORDINAL="146" NAME="?GetCurrentVA@I_CCPUDecoderEx@@UAEKXZ" PURGE="0" COMMENT="" />
    <EXPORT ORDINAL="147" NAME="?GetData@CImpConst@@QAEHPAU_IMP_CONST_DEF@@@Z" PURGE="4" COMMENT="" />
    <EXPORT ORDINAL="148" NAME="?GetExpFuncByAddr@I_CExMapFormatReader@@UAEPAVImpCallStruct@@K@Z" PURGE="4" COMMENT="" />
    <EXPORT ORDINAL="149" NAME="?GetFileName@CMappedFile@@QAEPADXZ" PURGE="0" COMMENT="" />
    <EXPORT ORDINAL="150" NAME="?GetFileName@I_CMappedFormatReader@@QAEPADXZ" PURGE="0" COMMENT="" />
    <EXPORT ORDINAL="151" NAME="?GetFirst@CDataRefTree@@QAE?AViterator@?$_Tree@V?$_Tmap_traits@KVRefAddr@@U?$less@K@std@@V?$allocator@U?$pair@$$CBKVRefAddr@@@std@@@3@$0A@@std@@@std@@XZ" PURGE="4" COMMENT="" />
    <EXPORT ORDINAL="152" NAME="?GetFirst@CImpDef@@QAEPAVCImpParam@@XZ" PURGE="0" COMMENT="" />
    <EXPORT ORDINAL="153" NAME="?GetFirst@JmpRefList@@QAE?AViterator@?$_Tree@V?$_Tmap_traits@KVRefAddr@@U?$less@K@std@@V?$allocator@U?$pair@$$CBKVRefAddr@@@std@@@3@$0A@@std@@@std@@XZ" PURGE="4" COMMENT="" />
    <EXPORT ORDINAL="154" NAME="?GetFirst@RefAddr@@QAE?AViterator@?$list@URefAddrStruct@@V?$allocator@URefAddrStruct@@@std@@@std@@XZ" PURGE="4" COMMENT="" />
    <EXPORT ORDINAL="155" NAME="?GetImpByName@CImpLib@@QAEPAVCImpDef@@PAD@Z" PURGE="4" COMMENT="" />
    <EXPORT ORDINAL="156" NAME="?GetImpCount@CImpLib@@QAEKXZ" PURGE="0" COMMENT="" />
    <EXPORT ORDINAL="157" NAME="?GetImpFuncByAddr@I_CExMapFormatReader@@UAEPAVImpCallStruct@@K@Z" PURGE="4" COMMENT="" />
    <EXPORT ORDINAL="158" NAME="?GetIndexToName@CImpStruct@@QAEKXZ" PURGE="0" COMMENT="" />
    <EXPORT ORDINAL="159" NAME="?GetLast@CDataRefTree@@QAE?AViterator@?$_Tree@V?$_Tmap_traits@KVRefAddr@@U?$less@K@std@@V?$allocator@U?$pair@$$CBKVRefAddr@@@std@@@3@$0A@@std@@@std@@XZ" PURGE="4" COMMENT="" />
    <EXPORT ORDINAL="160" NAME="?GetLast@CImpDef@@QAEPAVCImpParam@@XZ" PURGE="0" COMMENT="" />
    <EXPORT ORDINAL="161" NAME="?GetLast@JmpRefList@@QAE?AViterator@?$_Tree@V?$_Tmap_traits@KVRefAddr@@U?$less@K@std@@V?$allocator@U?$pair@$$CBKVRefAddr@@@std@@@3@$0A@@std@@@std@@XZ" PURGE="4" COMMENT="" />
    <EXPORT ORDINAL="162" NAME="?GetLast@RefAddr@@QAE?AViterator@?$list@URefAddrStruct@@V?$allocator@URefAddrStruct@@@std@@@std@@XZ" PURGE="4" COMMENT="" />
    <EXPORT ORDINAL="163" NAME="?GetLastImpDef@CImpLib@@QAEPAVCImpDef@@XZ" PURGE="0" COMMENT="" />
    <EXPORT ORDINAL="164" NAME="?GetLastSymbol@CImpLib@@QAEPAVCImpStruct@@XZ" PURGE="0" COMMENT="" />
    <EXPORT ORDINAL="165" NAME="?GetLibName@CImpDef@@QAEPBDAAV?$vector@V?$basic_string@DU?$char_traits@D@std@@V?$allocator@D@2@@std@@V?$allocator@V?$basic_string@DU?$char_traits@D@std@@V?$allocator@D@2@@std@@@2@@std@@@Z" PURGE="4" COMMENT="" />
    <EXPORT ORDINAL="166" NAME="?GetListOfConstantNames@CImpLib@@QAEAAV?$vector@V?$basic_string@DU?$char_traits@D@std@@V?$allocator@D@2@@std@@V?$allocator@V?$basic_string@DU?$char_traits@D@std@@V?$allocator@D@2@@std@@@2@@std@@XZ" PURGE="0" COMMENT="" />
    <EXPORT ORDINAL="167" NAME="?GetListOfImpNames@CImpLib@@QAEAAV?$vector@V?$basic_string@DU?$char_traits@D@std@@V?$allocator@D@2@@std@@V?$allocator@V?$basic_string@DU?$char_traits@D@std@@V?$allocator@D@2@@std@@@2@@std@@XZ" PURGE="0" COMMENT="" />
    <EXPORT ORDINAL="168" NAME="?GetListOfLibNames@CImpLib@@QAEAAV?$vector@V?$basic_string@DU?$char_traits@D@std@@V?$allocator@D@2@@std@@V?$allocator@V?$basic_string@DU?$char_traits@D@std@@V?$allocator@D@2@@std@@@2@@std@@XZ" PURGE="0" COMMENT="" />
    <EXPORT ORDINAL="169" NAME="?GetListOfSymbolNames@CImpLib@@QAEAAV?$vector@V?$basic_string@DU?$char_traits@D@std@@V?$allocator@D@2@@std@@V?$allocator@V?$basic_string@DU?$char_traits@D@std@@V?$allocator@D@2@@std@@@2@@std@@XZ" PURGE="0" COMMENT="" />
    <EXPORT ORDINAL="170" NAME="?GetMappAddr@I_CMappedFormatReader@@QAEPAXXZ" PURGE="0" COMMENT="" />
    <EXPORT ORDINAL="171" NAME="?GetMappSize@I_CMappedFormatReader@@QAEKXZ" PURGE="0" COMMENT="" />
    <EXPORT ORDINAL="172" NAME="?GetMaxOfType@RefAddr@@QAEKE@Z" PURGE="4" COMMENT="" />
    <EXPORT ORDINAL="173" NAME="?GetMaxOfTypeBetween@RefAddr@@QAEKEKK@Z" PURGE="12" COMMENT="" />
    <EXPORT ORDINAL="174" NAME="?GetMemberArraySize@CImpStruct@@QAEEK@Z" PURGE="4" COMMENT="" />
    <EXPORT ORDINAL="175" NAME="?GetMemberArraySize@CImpStruct@@QAEKXZ" PURGE="0" COMMENT="" />
    <EXPORT ORDINAL="176" NAME="?GetMemberName@CImpStruct@@QAEPBDK@Z" PURGE="4" COMMENT="" />
    <EXPORT ORDINAL="177" NAME="?GetMemberTypeIndex@CImpStruct@@QAEKK@Z" PURGE="4" COMMENT="" />
    <EXPORT ORDINAL="178" NAME="?GetMemberTypeName@CImpStruct@@QAEPBDKAAV?$vector@V?$basic_string@DU?$char_traits@D@std@@V?$allocator@D@2@@std@@V?$allocator@V?$basic_string@DU?$char_traits@D@std@@V?$allocator@D@2@@std@@@2@@std@@@Z" PURGE="8" COMMENT="" />
    <EXPORT ORDINAL="179" NAME="?GetModuleCount@CImpLib@@QAEKXZ" PURGE="0" COMMENT="" />
    <EXPORT ORDINAL="180" NAME="?GetMsgList@I_CCPUDecoderEx@@UAEPAV?$list@V?$basic_string@DU?$char_traits@D@std@@V?$allocator@D@2@@std@@V?$allocator@V?$basic_string@DU?$char_traits@D@std@@V?$allocator@D@2@@std@@@2@@std@@XZ" PURGE="0" COMMENT="" />
    <EXPORT ORDINAL="181" NAME="?GetName@CImpConst@@QAEPBDAAV?$vector@V?$basic_string@DU?$char_traits@D@std@@V?$allocator@D@2@@std@@V?$allocator@V?$basic_string@DU?$char_traits@D@std@@V?$allocator@D@2@@std@@@2@@std@@@Z" PURGE="4" COMMENT="" />
    <EXPORT ORDINAL="182" NAME="?GetName@CImpDef@@QAEPBDAAV?$vector@V?$basic_string@DU?$char_traits@D@std@@V?$allocator@D@2@@std@@V?$allocator@V?$basic_string@DU?$char_traits@D@std@@V?$allocator@D@2@@std@@@2@@std@@@Z" PURGE="4" COMMENT="" />
    <EXPORT ORDINAL="183" NAME="?GetName@CImpStruct@@QAEPBDAAV?$vector@V?$basic_string@DU?$char_traits@D@std@@V?$allocator@D@2@@std@@V?$allocator@V?$basic_string@DU?$char_traits@D@std@@V?$allocator@D@2@@std@@@2@@std@@@Z" PURGE="4" COMMENT="" />
    <EXPORT ORDINAL="184" NAME="?GetName@RefAddr@@QAEPBDXZ" PURGE="0" COMMENT="" />
    <EXPORT ORDINAL="185" NAME="?GetName@routine_def@@QAEPBDXZ" PURGE="0" COMMENT="" />
    <EXPORT ORDINAL="186" NAME="?GetNameLength@routine_def@@QAEHXZ" PURGE="0" COMMENT="" />
    <EXPORT ORDINAL="187" NAME="?GetNumOfMembers@CImpStruct@@QAEKXZ" PURGE="0" COMMENT="" />
    <EXPORT ORDINAL="188" NAME="?GetNumOfParams@CImpDef@@QAEKXZ" PURGE="0" COMMENT="" />
    <EXPORT ORDINAL="189" NAME="?GetNumberOfConstIndexes@CImpParam@@QAEKXZ" PURGE="0" COMMENT="" />
    <EXPORT ORDINAL="190" NAME="?GetOperandSize@I_CCPUDecoderEx@@UAEEXZ" PURGE="0" COMMENT="" />
    <EXPORT ORDINAL="191" NAME="?GetParamData@CImpDef@@QAEPBVCImpParam@@K@Z" PURGE="4" COMMENT="" />
    <EXPORT ORDINAL="192" NAME="?GetParamIndexesToConst@CImpParam@@QAEHABV?$vector@VCImpConst@@V?$allocator@VCImpConst@@@std@@@std@@AAV23@@Z" PURGE="8" COMMENT="" />
    <EXPORT ORDINAL="193" NAME="?GetParamName@CImpDef@@QAEPBDK@Z" PURGE="4" COMMENT="" />
    <EXPORT ORDINAL="194" NAME="?GetParamTypeName@CImpParam@@QAEPBDABV?$vector@V?$basic_string@DU?$char_traits@D@std@@V?$allocator@D@2@@std@@V?$allocator@V?$basic_string@DU?$char_traits@D@std@@V?$allocator@D@2@@std@@@2@@std@@@Z" PURGE="4" COMMENT="" />
    <EXPORT ORDINAL="195" NAME="?GetParamsAsStr@CImpDef@@QAEHPADABV?$vector@V?$basic_string@DU?$char_traits@D@std@@V?$allocator@D@2@@std@@V?$allocator@V?$basic_string@DU?$char_traits@D@std@@V?$allocator@D@2@@std@@@2@@std@@@Z" PURGE="8" COMMENT="" />
    <EXPORT ORDINAL="196" NAME="?GetPointerPos@CMappedFile@@QAIKXZ" PURGE="0" COMMENT="" />
    <EXPORT ORDINAL="197" NAME="?GetProcessMode@I_CCPUDecoderEx@@UAEEXZ" PURGE="0" COMMENT="" />
    <EXPORT ORDINAL="198" NAME="?GetPtrToSymMap@I_CSymbolCollection@@QAEPAV?$multimap@KUBDASM_SYMBOL@@U?$greater@K@std@@V?$allocator@U?$pair@$$CBKUBDASM_SYMBOL@@@std@@@3@@std@@XZ" PURGE="0" COMMENT="" />
    <EXPORT ORDINAL="199" NAME="?GetRefNameByAddr@JmpRefList@@QAEPBDK@Z" PURGE="4" COMMENT="" />
    <EXPORT ORDINAL="200" NAME="?GetRetData@CImpDef@@QAEPAVCImpStruct@@AAV?$vector@VCImpStruct@@V?$allocator@VCImpStruct@@@std@@@std@@@Z" PURGE="4" COMMENT="" />
    <EXPORT ORDINAL="201" NAME="?GetReturnTypeAsStr@CImpDef@@QAEPBDABV?$vector@V?$basic_string@DU?$char_traits@D@std@@V?$allocator@D@2@@std@@V?$allocator@V?$basic_string@DU?$char_traits@D@std@@V?$allocator@D@2@@std@@@2@@std@@@Z" PURGE="4" COMMENT="" />
    <EXPORT ORDINAL="202" NAME="?GetSegmentByAddress@I_CCPUDecoderEx@@UAEPBUBDASMSegment@@K@Z" PURGE="4" COMMENT="" />
    <EXPORT ORDINAL="203" NAME="?GetSegmentByIndex@I_CCPUDecoderEx@@UAEPBUBDASMSegment@@H@Z" PURGE="4" COMMENT="" />
    <EXPORT ORDINAL="204" NAME="?GetSegmentByName@I_CCPUDecoderEx@@UAEPBUBDASMSegment@@PAD@Z" PURGE="4" COMMENT="" />
    <EXPORT ORDINAL="205" NAME="?GetSegmentCount@I_CCPUDecoderEx@@UAEJXZ" PURGE="0" COMMENT="" />
    <EXPORT ORDINAL="206" NAME="?GetSegmentIndex@RefAddr@@QAEHXZ" PURGE="0" COMMENT="" />
    <EXPORT ORDINAL="207" NAME="?GetSegmentIndexByAddress@I_CCPUDecoderEx@@UAEJK@Z" PURGE="4" COMMENT="" />
    <EXPORT ORDINAL="208" NAME="?GetSize@CImpStruct@@AAEKAAV?$vector@VCImpStruct@@V?$allocator@VCImpStruct@@@std@@@std@@@Z" PURGE="4" COMMENT="" />
    <EXPORT ORDINAL="209" NAME="?GetSize@CMappedFile@@QAEKPAK@Z" PURGE="4" COMMENT="" />
    <EXPORT ORDINAL="210" NAME="?GetStruct@CImpParam@@QAEPBVCImpStruct@@AAV?$vector@VCImpStruct@@V?$allocator@VCImpStruct@@@std@@@std@@@Z" PURGE="4" COMMENT="" />
    <EXPORT ORDINAL="211" NAME="?GetSymbolByName@CImpLib@@QAEPAVCImpStruct@@PAD@Z" PURGE="4" COMMENT="" />
    <EXPORT ORDINAL="212" NAME="?GetSymbolCount@CImpLib@@QAEKXZ" PURGE="0" COMMENT="" />
    <EXPORT ORDINAL="213" NAME="?GetType@CImpParam@@QAEEXZ" PURGE="0" COMMENT="" />
    <EXPORT ORDINAL="214" NAME="?GetVAFromBuffAddress@I_CCPUDecoderEx@@UAEKPAE@Z" PURGE="4" COMMENT="" />
    <EXPORT ORDINAL="215" NAME="?GetValue@CImpConst@@QAEKXZ" PURGE="0" COMMENT="" />
    <EXPORT ORDINAL="216" NAME="?IdentifyImports@I_CExMapFormatReader@@UAEHXZ" PURGE="0" COMMENT="" />
    <EXPORT ORDINAL="217" NAME="?IsImportLibLoaded@I_CExMapFormatReader@@UAEHXZ" PURGE="0" COMMENT="" />
    <EXPORT ORDINAL="218" NAME="?IsImportRefsEnabled@I_CExMapFormatReader@@UAEHXZ" PURGE="0" COMMENT="" />
    <EXPORT ORDINAL="219" NAME="?IsStackTraceEnabled@I_CCPUDecoderEx@@UAEHXZ" PURGE="0" COMMENT="" />
    <EXPORT ORDINAL="220" NAME="?IsStringRefsEnabled@I_CCPUDecoderEx@@UAEHXZ" PURGE="0" COMMENT="" />
    <EXPORT ORDINAL="221" NAME="?IsValidFormat@I_CFormatReader@@UAEHPAD@Z" PURGE="4" COMMENT="" />
    <EXPORT ORDINAL="222" NAME="?Lock@CMappedFile@@QAEHKKKK@Z" PURGE="16" COMMENT="" />
    <EXPORT ORDINAL="223" NAME="?Open@CImpLib@@QAEHPBDK@Z" PURGE="8" COMMENT="" />
    <EXPORT ORDINAL="224" NAME="?OutPutList@RefAddr@@QAEXPAUHWND__@@PAD@Z" PURGE="8" COMMENT="" />
    <EXPORT ORDINAL="225" NAME="?OutputDebugMsg@I_CCPUDecoderEx@@UAEXPAD@Z" PURGE="4" COMMENT="" />
    <EXPORT ORDINAL="226" NAME="?Read@CMappedFile@@QAIHPAXKPAK@Z" PURGE="8" COMMENT="" />
    <EXPORT ORDINAL="227" NAME="?ReadDataRefTree@I_CCPUDecoderEx@@UAEHPAXAAK@Z" PURGE="8" COMMENT="" />
    <EXPORT ORDINAL="228" NAME="?ReadRefTree@I_CCPUDecoderEx@@UAEHPAXAAK@Z" PURGE="8" COMMENT="" />
    <EXPORT ORDINAL="229" NAME="?ReadRoutineList@I_CCPUDecoderEx@@UAEHPAXAAK@Z" PURGE="8" COMMENT="" />
    <EXPORT ORDINAL="230" NAME="?Release@I_CFormatReader@@UAEXXZ" PURGE="0" COMMENT="" />
    <EXPORT ORDINAL="231" NAME="?Remove@I_CSymbolCollection@@QAEKK@Z" PURGE="4" COMMENT="" />
    <EXPORT ORDINAL="232" NAME="?Remove@I_CSymbolCollection@@QAE_NKPAUBDASM_SYMBOL@@@Z" PURGE="8" COMMENT="" />
    <EXPORT ORDINAL="233" NAME="?RemoveFromTo@I_CSymbolCollection@@QAE_NKK@Z" PURGE="8" COMMENT="" />
    <EXPORT ORDINAL="234" NAME="?SetArraySizes@CImpStruct@@QAEHPAEK@Z" PURGE="8" COMMENT="" />
    <EXPORT ORDINAL="235" NAME="?SetBinaryCPUSize@I_CExMapFormatReader@@UAEXE@Z" PURGE="4" COMMENT="" />
    <EXPORT ORDINAL="236" NAME="?SetBuffer@I_CCPUDecoderEx@@UAEHPAXK@Z" PURGE="8" COMMENT="" />
    <EXPORT ORDINAL="237" NAME="?SetCPUEncodingOrder@I_CCPUDecoderEx@@UAEXE@Z" PURGE="4" COMMENT="" />
    <EXPORT ORDINAL="238" NAME="?SetEOF@CMappedFile@@QAEHXZ" PURGE="0" COMMENT="" />
    <EXPORT ORDINAL="239" NAME="?SetEnumCallBack@CDataRefTree@@QAEHP6AXViterator@?$_Tree@V?$_Tmap_traits@KVRefAddr@@U?$less@K@std@@V?$allocator@U?$pair@$$CBKVRefAddr@@@std@@@3@$0A@@std@@@std@@PAX@Z@Z" PURGE="4" COMMENT="" />
    <EXPORT ORDINAL="240" NAME="?SetEnumCallBack@I_CCPUDecoderEx@@UAEHP6AXPAUDASMINFO@@PAVI_CCPUDecoder@@PAX@Z@Z" PURGE="4" COMMENT="" />
    <EXPORT ORDINAL="241" NAME="?SetEnumCallBack@JmpRefList@@QAEHP6AXViterator@?$_Tree@V?$_Tmap_traits@KVRefAddr@@U?$less@K@std@@V?$allocator@U?$pair@$$CBKVRefAddr@@@std@@@3@$0A@@std@@@std@@PAX@Z@Z" PURGE="4" COMMENT="" />
    <EXPORT ORDINAL="242" NAME="?SetImgBase@I_CCPUDecoderEx@@UAEXKK@Z" PURGE="8" COMMENT="" />
    <EXPORT ORDINAL="243" NAME="?SetMappedEntryPoint@I_CCPUDecoderEx@@UAEHPAE@Z" PURGE="4" COMMENT="" />
    <EXPORT ORDINAL="244" NAME="?SetName@RefAddr@@QAEXPAD@Z" PURGE="4" COMMENT="" />
    <EXPORT ORDINAL="245" NAME="?SetName@routine_def@@QAEXAAV?$basic_string@DU?$char_traits@D@std@@V?$allocator@D@2@@std@@@Z" PURGE="-1" COMMENT="" />
    <EXPORT ORDINAL="246" NAME="?SetName@routine_def@@QAEXPAD@Z" PURGE="4" COMMENT="" />
    <EXPORT ORDINAL="247" NAME="?SetOperandSize@I_CCPUDecoderEx@@UAEXE@Z" PURGE="4" COMMENT="" />
    <EXPORT ORDINAL="248" NAME="?SetPointerPos@CMappedFile@@QAIHJPAJK@Z" PURGE="8" COMMENT="" />
    <EXPORT ORDINAL="249" NAME="?SetSegmentIndex@RefAddr@@QAEXH@Z" PURGE="4" COMMENT="" />
    <EXPORT ORDINAL="250" NAME="?SetValidRanges@CDataRefTree@@QAEXKK@Z" PURGE="8" COMMENT="" />
    <EXPORT ORDINAL="251" NAME="?SetValidRanges@JmpRefList@@QAEXKK@Z" PURGE="8" COMMENT="" />
    <EXPORT ORDINAL="252" NAME="?ShowLastError@@YAXXZ" PURGE="0" COMMENT="" />
    <EXPORT ORDINAL="253" NAME="?SortConstants@CImpLib@@QAEXXZ" PURGE="0" COMMENT="" />
    <EXPORT ORDINAL="254" NAME="?SortImps@CImpLib@@QAEXXZ" PURGE="0" COMMENT="" />
    <EXPORT ORDINAL="255" NAME="?UnLock@CMappedFile@@QAEHKKKK@Z" PURGE="16" COMMENT="" />
    <EXPORT ORDINAL="256" NAME="?VAToBuffAddr@I_CCPUDecoderEx@@UAEKK@Z" PURGE="4" COMMENT="" />
    <EXPORT ORDINAL="257" NAME="?Write@CImpDef@@AAEHPAU_iobuf@@@Z" PURGE="4" COMMENT="" />
    <EXPORT ORDINAL="258" NAME="?Write@CImpLib@@QAEHPBD@Z" PURGE="4" COMMENT="" />
    <EXPORT ORDINAL="259" NAME="?Write@CImpParam@@AAEHPAU_iobuf@@@Z" PURGE="4" COMMENT="" />
    <EXPORT ORDINAL="260" NAME="?Write@CImpStruct@@AAEHPAU_iobuf@@@Z" PURGE="4" COMMENT="" />
    <EXPORT ORDINAL="261" NAME="?Write@CMappedFile@@QAIHPBXKPAK@Z" PURGE="8" COMMENT="" />
    <EXPORT ORDINAL="262" NAME="?WriteDataRefTree@I_CCPUDecoderEx@@UAEHPAXAAK@Z" PURGE="8" COMMENT="" />
    <EXPORT ORDINAL="263" NAME="?WriteRefTree@I_CCPUDecoderEx@@UAEHPAXAAK@Z" PURGE="8" COMMENT="" />
    <EXPORT ORDINAL="264" NAME="?WriteRoutineList@I_CCPUDecoderEx@@UAEHPAXAAK@Z" PURGE="8" COMMENT="" />
    <EXPORT ORDINAL="265" NAME="?WriteString@CMappedFile@@QAIHPBDPAK@Z" PURGE="4" COMMENT="" />
</LIBRARY>

