<?xml version="1.0" encoding="UTF-8"?>
<LIBRARY NAME="btnexgenipl32.dll" PATH="/DLLArchive/etc/BTNexgenIPL32.dll" DATE="Wed May 25 12:51:26 PDT 2005" VERSION="2.9.5 RC3 Build 20030508">
    <EXPORT ORDINAL="1" NAME="??0BTCColor@@QAE@ABV0@@Z" PURGE="-1" COMMENT="" />
    <EXPORT ORDINAL="2" NAME="??0BTCColor@@QAE@XZ" PURGE="-1" COMMENT="" />
    <EXPORT ORDINAL="3" NAME="??0BTCDecoderOptions@@QAE@ABV0@@Z" PURGE="-1" COMMENT="" />
    <EXPORT ORDINAL="4" NAME="??0BTCDecoderOptions@@QAE@XZ" PURGE="-1" COMMENT="" />
    <EXPORT ORDINAL="5" NAME="??0BTCDecoderOptionsGIF@@QAE@ABV0@@Z" PURGE="-1" COMMENT="" />
    <EXPORT ORDINAL="6" NAME="??0BTCDecoderOptionsGIF@@QAE@XZ" PURGE="-1" COMMENT="" />
    <EXPORT ORDINAL="7" NAME="??0BTCDecoderOptionsJPEG@@QAE@ABV0@@Z" PURGE="-1" COMMENT="" />
    <EXPORT ORDINAL="8" NAME="??0BTCDecoderOptionsJPEG@@QAE@XZ" PURGE="-1" COMMENT="" />
    <EXPORT ORDINAL="9" NAME="??0BTCDecoderOptionsMNG@@QAE@ABV0@@Z" PURGE="-1" COMMENT="" />
    <EXPORT ORDINAL="10" NAME="??0BTCDecoderOptionsMNG@@QAE@XZ" PURGE="-1" COMMENT="" />
    <EXPORT ORDINAL="11" NAME="??0BTCDecoderOptionsPNG@@QAE@ABV0@@Z" PURGE="-1" COMMENT="" />
    <EXPORT ORDINAL="12" NAME="??0BTCDecoderOptionsPNG@@QAE@XZ" PURGE="-1" COMMENT="" />
    <EXPORT ORDINAL="13" NAME="??0BTCDecoderOptionsPXM@@QAE@ABV0@@Z" PURGE="-1" COMMENT="" />
    <EXPORT ORDINAL="14" NAME="??0BTCDecoderOptionsPXM@@QAE@XZ" PURGE="-1" COMMENT="" />
    <EXPORT ORDINAL="15" NAME="??0BTCDecoderOptionsTIFF@@QAE@ABV0@@Z" PURGE="-1" COMMENT="" />
    <EXPORT ORDINAL="16" NAME="??0BTCDecoderOptionsTIFF@@QAE@XZ" PURGE="-1" COMMENT="" />
    <EXPORT ORDINAL="17" NAME="??0BTCEncoderOptions@@QAE@ABV0@@Z" PURGE="-1" COMMENT="" />
    <EXPORT ORDINAL="18" NAME="??0BTCEncoderOptions@@QAE@XZ" PURGE="-1" COMMENT="" />
    <EXPORT ORDINAL="19" NAME="??0BTCEncoderOptionsBMP@@QAE@ABV0@@Z" PURGE="-1" COMMENT="" />
    <EXPORT ORDINAL="20" NAME="??0BTCEncoderOptionsBMP@@QAE@XZ" PURGE="-1" COMMENT="" />
    <EXPORT ORDINAL="21" NAME="??0BTCEncoderOptionsGIF@@QAE@ABV0@@Z" PURGE="-1" COMMENT="" />
    <EXPORT ORDINAL="22" NAME="??0BTCEncoderOptionsGIF@@QAE@XZ" PURGE="-1" COMMENT="" />
    <EXPORT ORDINAL="23" NAME="??0BTCEncoderOptionsJP2@@QAE@ABV0@@Z" PURGE="-1" COMMENT="" />
    <EXPORT ORDINAL="24" NAME="??0BTCEncoderOptionsJP2@@QAE@XZ" PURGE="-1" COMMENT="" />
    <EXPORT ORDINAL="25" NAME="??0BTCEncoderOptionsJPEG@@QAE@ABV0@@Z" PURGE="-1" COMMENT="" />
    <EXPORT ORDINAL="26" NAME="??0BTCEncoderOptionsJPEG@@QAE@XZ" PURGE="-1" COMMENT="" />
    <EXPORT ORDINAL="27" NAME="??0BTCEncoderOptionsMNG@@QAE@ABV0@@Z" PURGE="-1" COMMENT="" />
    <EXPORT ORDINAL="28" NAME="??0BTCEncoderOptionsMNG@@QAE@XZ" PURGE="-1" COMMENT="" />
    <EXPORT ORDINAL="29" NAME="??0BTCEncoderOptionsPNG@@QAE@ABV0@@Z" PURGE="-1" COMMENT="" />
    <EXPORT ORDINAL="30" NAME="??0BTCEncoderOptionsPNG@@QAE@XZ" PURGE="-1" COMMENT="" />
    <EXPORT ORDINAL="31" NAME="??0BTCEncoderOptionsPXM@@QAE@ABV0@@Z" PURGE="-1" COMMENT="" />
    <EXPORT ORDINAL="32" NAME="??0BTCEncoderOptionsPXM@@QAE@XZ" PURGE="-1" COMMENT="" />
    <EXPORT ORDINAL="33" NAME="??0BTCEncoderOptionsTGA@@QAE@ABV0@@Z" PURGE="-1" COMMENT="" />
    <EXPORT ORDINAL="34" NAME="??0BTCEncoderOptionsTGA@@QAE@XZ" PURGE="-1" COMMENT="" />
    <EXPORT ORDINAL="35" NAME="??0BTCEncoderOptionsTIFF@@QAE@ABV0@@Z" PURGE="-1" COMMENT="" />
    <EXPORT ORDINAL="36" NAME="??0BTCEncoderOptionsTIFF@@QAE@XZ" PURGE="-1" COMMENT="" />
    <EXPORT ORDINAL="37" NAME="??0BTCHistogram@@QAE@ABV0@@Z" PURGE="-1" COMMENT="" />
    <EXPORT ORDINAL="38" NAME="??0BTCHistogram@@QAE@XZ" PURGE="-1" COMMENT="" />
    <EXPORT ORDINAL="39" NAME="??0BTCImageData@@QAE@ABV0@@Z" PURGE="-1" COMMENT="" />
    <EXPORT ORDINAL="40" NAME="??0BTCImageData@@QAE@XZ" PURGE="-1" COMMENT="" />
    <EXPORT ORDINAL="41" NAME="??0BTCImageObject@@QAE@ABV0@@Z" PURGE="-1" COMMENT="" />
    <EXPORT ORDINAL="42" NAME="??0BTCImageObject@@QAE@XZ" PURGE="-1" COMMENT="" />
    <EXPORT ORDINAL="43" NAME="??0BTCOptions@@QAE@ABV0@@Z" PURGE="-1" COMMENT="" />
    <EXPORT ORDINAL="44" NAME="??0BTCOptions@@QAE@XZ" PURGE="-1" COMMENT="" />
    <EXPORT ORDINAL="45" NAME="??0BTCString@@QAE@ABV0@@Z" PURGE="-1" COMMENT="" />
    <EXPORT ORDINAL="46" NAME="??0BTCString@@QAE@PBD@Z" PURGE="-1" COMMENT="" />
    <EXPORT ORDINAL="47" NAME="??0BTCString@@QAE@PBDK@Z" PURGE="-1" COMMENT="" />
    <EXPORT ORDINAL="48" NAME="??0BTCString@@QAE@XZ" PURGE="-1" COMMENT="" />
    <EXPORT ORDINAL="49" NAME="??1BTCColor@@UAE@XZ" PURGE="-1" COMMENT="" />
    <EXPORT ORDINAL="50" NAME="??1BTCDecoderOptions@@UAE@XZ" PURGE="-1" COMMENT="" />
    <EXPORT ORDINAL="51" NAME="??1BTCDecoderOptionsGIF@@UAE@XZ" PURGE="-1" COMMENT="" />
    <EXPORT ORDINAL="52" NAME="??1BTCDecoderOptionsJPEG@@UAE@XZ" PURGE="-1" COMMENT="" />
    <EXPORT ORDINAL="53" NAME="??1BTCDecoderOptionsMNG@@UAE@XZ" PURGE="-1" COMMENT="" />
    <EXPORT ORDINAL="54" NAME="??1BTCDecoderOptionsPNG@@UAE@XZ" PURGE="-1" COMMENT="" />
    <EXPORT ORDINAL="55" NAME="??1BTCDecoderOptionsPXM@@UAE@XZ" PURGE="-1" COMMENT="" />
    <EXPORT ORDINAL="56" NAME="??1BTCDecoderOptionsTIFF@@UAE@XZ" PURGE="-1" COMMENT="" />
    <EXPORT ORDINAL="57" NAME="??1BTCEncoderOptions@@UAE@XZ" PURGE="-1" COMMENT="" />
    <EXPORT ORDINAL="58" NAME="??1BTCEncoderOptionsBMP@@UAE@XZ" PURGE="-1" COMMENT="" />
    <EXPORT ORDINAL="59" NAME="??1BTCEncoderOptionsGIF@@UAE@XZ" PURGE="-1" COMMENT="" />
    <EXPORT ORDINAL="60" NAME="??1BTCEncoderOptionsJP2@@UAE@XZ" PURGE="-1" COMMENT="" />
    <EXPORT ORDINAL="61" NAME="??1BTCEncoderOptionsJPEG@@UAE@XZ" PURGE="-1" COMMENT="" />
    <EXPORT ORDINAL="62" NAME="??1BTCEncoderOptionsMNG@@UAE@XZ" PURGE="-1" COMMENT="" />
    <EXPORT ORDINAL="63" NAME="??1BTCEncoderOptionsPNG@@UAE@XZ" PURGE="-1" COMMENT="" />
    <EXPORT ORDINAL="64" NAME="??1BTCEncoderOptionsPXM@@UAE@XZ" PURGE="-1" COMMENT="" />
    <EXPORT ORDINAL="65" NAME="??1BTCEncoderOptionsTGA@@UAE@XZ" PURGE="-1" COMMENT="" />
    <EXPORT ORDINAL="66" NAME="??1BTCEncoderOptionsTIFF@@UAE@XZ" PURGE="-1" COMMENT="" />
    <EXPORT ORDINAL="67" NAME="??1BTCHistogram@@UAE@XZ" PURGE="-1" COMMENT="" />
    <EXPORT ORDINAL="68" NAME="??1BTCImageData@@UAE@XZ" PURGE="-1" COMMENT="" />
    <EXPORT ORDINAL="69" NAME="??1BTCImageObject@@UAE@XZ" PURGE="-1" COMMENT="" />
    <EXPORT ORDINAL="70" NAME="??1BTCOptions@@UAE@XZ" PURGE="-1" COMMENT="" />
    <EXPORT ORDINAL="71" NAME="??1BTCString@@UAE@XZ" PURGE="-1" COMMENT="" />
    <EXPORT ORDINAL="72" NAME="??4BTCColor@@QAEAAV0@ABV0@@Z" PURGE="-1" COMMENT="" />
    <EXPORT ORDINAL="73" NAME="??4BTCDecoderOptions@@QAEAAV0@ABV0@@Z" PURGE="-1" COMMENT="" />
    <EXPORT ORDINAL="74" NAME="??4BTCDecoderOptionsGIF@@QAEAAV0@ABV0@@Z" PURGE="-1" COMMENT="" />
    <EXPORT ORDINAL="75" NAME="??4BTCDecoderOptionsJPEG@@QAEAAV0@ABV0@@Z" PURGE="-1" COMMENT="" />
    <EXPORT ORDINAL="76" NAME="??4BTCDecoderOptionsMNG@@QAEAAV0@ABV0@@Z" PURGE="-1" COMMENT="" />
    <EXPORT ORDINAL="77" NAME="??4BTCDecoderOptionsPNG@@QAEAAV0@ABV0@@Z" PURGE="-1" COMMENT="" />
    <EXPORT ORDINAL="78" NAME="??4BTCDecoderOptionsPXM@@QAEAAV0@ABV0@@Z" PURGE="-1" COMMENT="" />
    <EXPORT ORDINAL="79" NAME="??4BTCDecoderOptionsTIFF@@QAEAAV0@ABV0@@Z" PURGE="-1" COMMENT="" />
    <EXPORT ORDINAL="80" NAME="??4BTCEncoderOptions@@QAEAAV0@ABV0@@Z" PURGE="-1" COMMENT="" />
    <EXPORT ORDINAL="81" NAME="??4BTCEncoderOptionsBMP@@QAEAAV0@ABV0@@Z" PURGE="-1" COMMENT="" />
    <EXPORT ORDINAL="82" NAME="??4BTCEncoderOptionsGIF@@QAEAAV0@ABV0@@Z" PURGE="-1" COMMENT="" />
    <EXPORT ORDINAL="83" NAME="??4BTCEncoderOptionsJP2@@QAEAAV0@ABV0@@Z" PURGE="-1" COMMENT="" />
    <EXPORT ORDINAL="84" NAME="??4BTCEncoderOptionsJPEG@@QAEAAV0@ABV0@@Z" PURGE="-1" COMMENT="" />
    <EXPORT ORDINAL="85" NAME="??4BTCEncoderOptionsMNG@@QAEAAV0@ABV0@@Z" PURGE="-1" COMMENT="" />
    <EXPORT ORDINAL="86" NAME="??4BTCEncoderOptionsPNG@@QAEAAV0@ABV0@@Z" PURGE="-1" COMMENT="" />
    <EXPORT ORDINAL="87" NAME="??4BTCEncoderOptionsPXM@@QAEAAV0@ABV0@@Z" PURGE="-1" COMMENT="" />
    <EXPORT ORDINAL="88" NAME="??4BTCEncoderOptionsTGA@@QAEAAV0@ABV0@@Z" PURGE="-1" COMMENT="" />
    <EXPORT ORDINAL="89" NAME="??4BTCEncoderOptionsTIFF@@QAEAAV0@ABV0@@Z" PURGE="-1" COMMENT="" />
    <EXPORT ORDINAL="90" NAME="??4BTCHistogram@@QAEAAV0@ABV0@@Z" PURGE="-1" COMMENT="" />
    <EXPORT ORDINAL="91" NAME="??4BTCImageData@@QAEAAV0@AAV0@@Z" PURGE="-1" COMMENT="" />
    <EXPORT ORDINAL="92" NAME="??4BTCImageObject@@QAEAAV0@AAV0@@Z" PURGE="-1" COMMENT="" />
    <EXPORT ORDINAL="93" NAME="??4BTCOptions@@QAEAAV0@ABV0@@Z" PURGE="-1" COMMENT="" />
    <EXPORT ORDINAL="94" NAME="??4BTCString@@QAEABV0@ABV0@@Z" PURGE="-1" COMMENT="" />
    <EXPORT ORDINAL="95" NAME="??4BTCString@@QAEABV0@PBD@Z" PURGE="-1" COMMENT="" />
    <EXPORT ORDINAL="96" NAME="??8BTCString@@UAE_NABV0@@Z" PURGE="-1" COMMENT="" />
    <EXPORT ORDINAL="97" NAME="??9BTCString@@UAE_NABV0@@Z" PURGE="-1" COMMENT="" />
    <EXPORT ORDINAL="98" NAME="??BBTCString@@QBEPADXZ" PURGE="-1" COMMENT="" />
    <EXPORT ORDINAL="99" NAME="??BBTCString@@QBEPBDXZ" PURGE="-1" COMMENT="" />
    <EXPORT ORDINAL="100" NAME="??YBTCString@@QAEABV0@ABV0@@Z" PURGE="-1" COMMENT="" />
    <EXPORT ORDINAL="101" NAME="??YBTCString@@QAEABV0@D@Z" PURGE="-1" COMMENT="" />
    <EXPORT ORDINAL="102" NAME="??YBTCString@@QAEABV0@PBD@Z" PURGE="-1" COMMENT="" />
    <EXPORT ORDINAL="103" NAME="??_7BTCColor@@6B@" PURGE="-1" COMMENT="" />
    <EXPORT ORDINAL="104" NAME="??_7BTCDecoderOptions@@6B@" PURGE="-1" COMMENT="" />
    <EXPORT ORDINAL="105" NAME="??_7BTCDecoderOptionsGIF@@6B@" PURGE="30951" COMMENT="" />
    <EXPORT ORDINAL="106" NAME="??_7BTCDecoderOptionsJPEG@@6B@" PURGE="1130" COMMENT="" />
    <EXPORT ORDINAL="107" NAME="??_7BTCDecoderOptionsMNG@@6B@" PURGE="10322" COMMENT="" />
    <EXPORT ORDINAL="108" NAME="??_7BTCDecoderOptionsPNG@@6B@" PURGE="0" COMMENT="" />
    <EXPORT ORDINAL="109" NAME="??_7BTCDecoderOptionsPXM@@6B@" PURGE="-1" COMMENT="" />
    <EXPORT ORDINAL="110" NAME="??_7BTCDecoderOptionsTIFF@@6B@" PURGE="0" COMMENT="" />
    <EXPORT ORDINAL="111" NAME="??_7BTCEncoderOptions@@6B@" PURGE="-1" COMMENT="" />
    <EXPORT ORDINAL="112" NAME="??_7BTCEncoderOptionsBMP@@6B@" PURGE="35045" COMMENT="" />
    <EXPORT ORDINAL="113" NAME="??_7BTCEncoderOptionsGIF@@6B@" PURGE="-1" COMMENT="" />
    <EXPORT ORDINAL="114" NAME="??_7BTCEncoderOptionsJP2@@6B@" PURGE="30951" COMMENT="" />
    <EXPORT ORDINAL="115" NAME="??_7BTCEncoderOptionsJPEG@@6B@" PURGE="1130" COMMENT="" />
    <EXPORT ORDINAL="116" NAME="??_7BTCEncoderOptionsMNG@@6B@" PURGE="0" COMMENT="" />
    <EXPORT ORDINAL="117" NAME="??_7BTCEncoderOptionsPNG@@6B@" PURGE="0" COMMENT="" />
    <EXPORT ORDINAL="118" NAME="??_7BTCEncoderOptionsPXM@@6B@" PURGE="0" COMMENT="" />
    <EXPORT ORDINAL="119" NAME="??_7BTCEncoderOptionsTGA@@6B@" PURGE="35045" COMMENT="" />
    <EXPORT ORDINAL="120" NAME="??_7BTCEncoderOptionsTIFF@@6B@" PURGE="0" COMMENT="" />
    <EXPORT ORDINAL="121" NAME="??_7BTCHistogram@@6B@" PURGE="-1" COMMENT="" />
    <EXPORT ORDINAL="122" NAME="??_7BTCImageData@@6B@" PURGE="0" COMMENT="" />
    <EXPORT ORDINAL="123" NAME="??_7BTCImageObject@@6B@" PURGE="-1" COMMENT="" />
    <EXPORT ORDINAL="124" NAME="??_7BTCOptions@@6B@" PURGE="-1" COMMENT="" />
    <EXPORT ORDINAL="125" NAME="??_7BTCString@@6B@" PURGE="-1" COMMENT="" />
    <EXPORT ORDINAL="126" NAME="?AddCodec@BTCImageObject@@QAEJPAVBTICodec@@@Z" PURGE="-1" COMMENT="" />
    <EXPORT ORDINAL="127" NAME="?AdjustBlue@BTCImageData@@QAE_NH@Z" PURGE="-1" COMMENT="" />
    <EXPORT ORDINAL="128" NAME="?AdjustBrightness@BTCImageData@@QAE_NH@Z" PURGE="-1" COMMENT="" />
    <EXPORT ORDINAL="129" NAME="?AdjustContrast@BTCImageData@@QAE_NH@Z" PURGE="-1" COMMENT="" />
    <EXPORT ORDINAL="130" NAME="?AdjustGamma@BTCImageData@@QAE_NNNN@Z" PURGE="-1" COMMENT="" />
    <EXPORT ORDINAL="131" NAME="?AdjustGreen@BTCImageData@@QAE_NH@Z" PURGE="-1" COMMENT="" />
    <EXPORT ORDINAL="132" NAME="?AdjustHLS@BTCImageData@@QAE_NHHH@Z" PURGE="-1" COMMENT="" />
    <EXPORT ORDINAL="133" NAME="?AdjustHighlight@BTCImageData@@QAE_NH@Z" PURGE="-1" COMMENT="" />
    <EXPORT ORDINAL="134" NAME="?AdjustHue@BTCImageData@@QAE_NH@Z" PURGE="-1" COMMENT="" />
    <EXPORT ORDINAL="135" NAME="?AdjustLightness@BTCImageData@@QAE_NH@Z" PURGE="-1" COMMENT="" />
    <EXPORT ORDINAL="136" NAME="?AdjustMidtone@BTCImageData@@QAE_NH@Z" PURGE="-1" COMMENT="" />
    <EXPORT ORDINAL="137" NAME="?AdjustRGB@BTCImageData@@QAE_NHHH@Z" PURGE="-1" COMMENT="" />
    <EXPORT ORDINAL="138" NAME="?AdjustRed@BTCImageData@@QAE_NH@Z" PURGE="-1" COMMENT="" />
    <EXPORT ORDINAL="139" NAME="?AdjustSaturation@BTCImageData@@QAE_NH@Z" PURGE="-1" COMMENT="" />
    <EXPORT ORDINAL="140" NAME="?AdjustShadow@BTCImageData@@QAE_NH@Z" PURGE="-1" COMMENT="" />
    <EXPORT ORDINAL="141" NAME="?Antialias@BTCImageData@@QAE_NNHH@Z" PURGE="-1" COMMENT="" />
    <EXPORT ORDINAL="142" NAME="?Attach@BTCImageObject@@QAE_NAAVBTCImageData@@@Z" PURGE="-1" COMMENT="" />
    <EXPORT ORDINAL="143" NAME="?Blend@BTCImageData@@QAE_NAAV1@HHHK@Z" PURGE="-1" COMMENT="" />
    <EXPORT ORDINAL="144" NAME="?Blur@BTCImageData@@QAE_NXZ" PURGE="-1" COMMENT="" />
    <EXPORT ORDINAL="145" NAME="?Combine@BTCImageData@@QAE_NPAV1@W4BTCombineFunction@1@HHH_NHH@Z" PURGE="-1" COMMENT="" />
    <EXPORT ORDINAL="146" NAME="?CombineChannels@BTCImageData@@QAE_NPAV1@000@Z" PURGE="-1" COMMENT="" />
    <EXPORT ORDINAL="147" NAME="?Compare@BTCImageData@@QAEHPAV1@@Z" PURGE="-1" COMMENT="" />
    <EXPORT ORDINAL="148" NAME="?Compare@BTCString@@QBEHABV1@@Z" PURGE="-1" COMMENT="" />
    <EXPORT ORDINAL="149" NAME="?CompareNoCase@BTCString@@QBEHABV1@@Z" PURGE="-1" COMMENT="" />
    <EXPORT ORDINAL="150" NAME="?ConvertTo24BPP@BTCImageData@@QAE_NXZ" PURGE="-1" COMMENT="" />
    <EXPORT ORDINAL="151" NAME="?ConvertTo32BPP@BTCImageData@@QAE_NXZ" PURGE="-1" COMMENT="" />
    <EXPORT ORDINAL="152" NAME="?Convolve@BTCImageData@@QAE_NPBNHHH_N@Z" PURGE="-1" COMMENT="" />
    <EXPORT ORDINAL="153" NAME="?Copy@BTCImageData@@QAE_NAAV1@ABUtagRECT@@@Z" PURGE="-1" COMMENT="" />
    <EXPORT ORDINAL="154" NAME="?Copy@BTCImageData@@QAE_NAAV1@HHHH@Z" PURGE="-1" COMMENT="" />
    <EXPORT ORDINAL="155" NAME="?Create@BTCImageData@@QAE_NHHH@Z" PURGE="-1" COMMENT="" />
    <EXPORT ORDINAL="156" NAME="?Crop@BTCImageData@@QAE_NABUtagRECT@@@Z" PURGE="-1" COMMENT="" />
    <EXPORT ORDINAL="157" NAME="?Crop@BTCImageData@@QAE_NHHHH@Z" PURGE="-1" COMMENT="" />
    <EXPORT ORDINAL="158" NAME="?DeInterlace@BTCImageData@@QAE_N_NABW4BTDeInterlaceType@1@@Z" PURGE="-1" COMMENT="" />
    <EXPORT ORDINAL="159" NAME="?DeleteObject@BTCImageData@@QAEXXZ" PURGE="-1" COMMENT="" />
    <EXPORT ORDINAL="160" NAME="?Detail@BTCImageData@@QAE_NXZ" PURGE="-1" COMMENT="" />
    <EXPORT ORDINAL="161" NAME="?Dilate@BTCImageData@@QAE_NH@Z" PURGE="-1" COMMENT="" />
    <EXPORT ORDINAL="162" NAME="?Draw@BTCImageData@@QAEHPAUHDC__@@HHHHHHHK@Z" PURGE="-1" COMMENT="" />
    <EXPORT ORDINAL="163" NAME="?DrawDithered@BTCImageData@@QAEHPAUHDC__@@HHHHHH@Z" PURGE="-1" COMMENT="" />
    <EXPORT ORDINAL="164" NAME="?DrawSemiTransparent@BTCImageData@@QAE_NPAUHDC__@@HHHHHHK@Z" PURGE="-1" COMMENT="" />
    <EXPORT ORDINAL="165" NAME="?DrawTransparent@BTCImageData@@QAE_NPAUHDC__@@HHHHHHK@Z" PURGE="-1" COMMENT="" />
    <EXPORT ORDINAL="166" NAME="?EdgeEnhance@BTCImageData@@QAE_NXZ" PURGE="-1" COMMENT="" />
    <EXPORT ORDINAL="167" NAME="?EdgeEnhanceMore@BTCImageData@@QAE_NXZ" PURGE="-1" COMMENT="" />
    <EXPORT ORDINAL="168" NAME="?Emboss@BTCImageData@@QAE_NXZ" PURGE="-1" COMMENT="" />
    <EXPORT ORDINAL="169" NAME="?Empty@BTCString@@QAEXXZ" PURGE="-1" COMMENT="" />
    <EXPORT ORDINAL="170" NAME="?Erode@BTCImageData@@QAE_NH@Z" PURGE="-1" COMMENT="" />
    <EXPORT ORDINAL="171" NAME="?Fill@BTCImageData@@QAE_NABUtagRECT@@K@Z" PURGE="-1" COMMENT="" />
    <EXPORT ORDINAL="172" NAME="?Fill@BTCImageData@@QAE_NHHHHK@Z" PURGE="-1" COMMENT="" />
    <EXPORT ORDINAL="173" NAME="?FillColorTable@BTCImageData@@QAE_NPBUtagRGBQUAD@@H@Z" PURGE="-1" COMMENT="" />
    <EXPORT ORDINAL="174" NAME="?FindEdge@BTCImageData@@QAE_NN@Z" PURGE="-1" COMMENT="" />
    <EXPORT ORDINAL="175" NAME="?FindNearestPaletteColor@BTCImageData@@QAEHK@Z" PURGE="-1" COMMENT="" />
    <EXPORT ORDINAL="176" NAME="?Flip@BTCImageData@@QAE_NXZ" PURGE="-1" COMMENT="" />
    <EXPORT ORDINAL="177" NAME="?FromDC@BTCImageData@@QAE_NPAUHDC__@@HHHHHHK@Z" PURGE="-1" COMMENT="" />
    <EXPORT ORDINAL="178" NAME="?FromDIB@BTCImageData@@QAE_NPAX@Z" PURGE="-1" COMMENT="" />
    <EXPORT ORDINAL="179" NAME="?FromHandle@BTCImageData@@QAE_NPAUHBITMAP__@@@Z" PURGE="-1" COMMENT="" />
    <EXPORT ORDINAL="180" NAME="?GetBitmap@BTCImageData@@QAEPAUHBITMAP__@@XZ" PURGE="-1" COMMENT="" />
    <EXPORT ORDINAL="181" NAME="?GetBitmapInfo@BTCImageData@@QAEPAUtagBITMAPINFO@@XZ" PURGE="-1" COMMENT="" />
    <EXPORT ORDINAL="182" NAME="?GetBitmapInfoHeader@BTCImageData@@QAEPAUtagBITMAPINFOHEADER@@XZ" PURGE="-1" COMMENT="" />
    <EXPORT ORDINAL="183" NAME="?GetBits@BTCImageData@@QAEPAEHH@Z" PURGE="-1" COMMENT="" />
    <EXPORT ORDINAL="184" NAME="?GetBits@BTCImageData@@QAEPAEXZ" PURGE="-1" COMMENT="" />
    <EXPORT ORDINAL="185" NAME="?GetBitsPerPixel@BTCImageData@@QBEHXZ" PURGE="-1" COMMENT="" />
    <EXPORT ORDINAL="186" NAME="?GetBrightness@BTCColor@@SANUtagBTColorRGB@@@Z" PURGE="-1" COMMENT="" />
    <EXPORT ORDINAL="187" NAME="?GetBytesPerLine@BTCImageData@@QBEJXZ" PURGE="-1" COMMENT="" />
    <EXPORT ORDINAL="188" NAME="?GetBytesPerLine@BTCImageData@@SAJHH@Z" PURGE="-1" COMMENT="" />
    <EXPORT ORDINAL="189" NAME="?GetBytesPerPixel@BTCImageData@@QBEHXZ" PURGE="-1" COMMENT="" />
    <EXPORT ORDINAL="190" NAME="?GetChannel@BTCImageData@@QAE_NPAV1@ABW4BTChannel@1@@Z" PURGE="-1" COMMENT="" />
    <EXPORT ORDINAL="191" NAME="?GetCodecIdFromExtension@BTCImageObject@@QAEJVBTCString@@ABW4BTCodecType@@@Z" PURGE="-1" COMMENT="" />
    <EXPORT ORDINAL="192" NAME="?GetCodecIdFromFormat@BTCImageObject@@QAEJVBTCString@@ABW4BTCodecType@@@Z" PURGE="-1" COMMENT="" />
    <EXPORT ORDINAL="193" NAME="?GetCodecs@BTCImageObject@@QAEPAVBTICodecList@@ABW4BTCodecType@@@Z" PURGE="-1" COMMENT="" />
    <EXPORT ORDINAL="194" NAME="?GetColorFromIndex@BTCImageData@@QAEKH@Z" PURGE="-1" COMMENT="" />
    <EXPORT ORDINAL="195" NAME="?GetColorFromPixel@BTCImageData@@QAEKHH@Z" PURGE="-1" COMMENT="" />
    <EXPORT ORDINAL="196" NAME="?GetColorManagementSystem@BTIColorManagementSystem@@SAPAV1@XZ" PURGE="-1" COMMENT="" />
    <EXPORT ORDINAL="197" NAME="?GetColorSpace@BTIColorSpace@@SAPAV1@W4BTColorSpace@@@Z" PURGE="-1" COMMENT="" />
    <EXPORT ORDINAL="198" NAME="?GetColorTable@BTCImageData@@QAEPAUtagRGBQUAD@@XZ" PURGE="-1" COMMENT="" />
    <EXPORT ORDINAL="199" NAME="?GetColorTableSize@BTCImageData@@QBEHXZ" PURGE="-1" COMMENT="" />
    <EXPORT ORDINAL="200" NAME="?GetColorTableSize@BTCImageData@@SAHH@Z" PURGE="-1" COMMENT="" />
    <EXPORT ORDINAL="201" NAME="?GetDIB@BTCImageData@@QAEPAXXZ" PURGE="-1" COMMENT="" />
    <EXPORT ORDINAL="202" NAME="?GetDepth@BTCImageData@@QBEHXZ" PURGE="-1" COMMENT="" />
    <EXPORT ORDINAL="203" NAME="?GetFileType@BTCImageObject@@QAEJIPAXPBD@Z" PURGE="-1" COMMENT="" />
    <EXPORT ORDINAL="204" NAME="?GetFileType@BTCImageObject@@QAEJPAEJ@Z" PURGE="-1" COMMENT="" />
    <EXPORT ORDINAL="205" NAME="?GetFileType@BTCImageObject@@QAEJPBDPAX0@Z" PURGE="-1" COMMENT="" />
    <EXPORT ORDINAL="206" NAME="?GetFileType@BTCImageObject@@UAEJPAVBTCIStream@@@Z" PURGE="-1" COMMENT="" />
    <EXPORT ORDINAL="207" NAME="?GetHeight@BTCImageData@@QBEJXZ" PURGE="-1" COMMENT="" />
    <EXPORT ORDINAL="208" NAME="?GetHistogram@BTCImageData@@QAE_NPAVBTCHistogram@@@Z" PURGE="-1" COMMENT="" />
    <EXPORT ORDINAL="209" NAME="?GetHue@BTCColor@@SANUtagBTColorRGB@@@Z" PURGE="-1" COMMENT="" />
    <EXPORT ORDINAL="210" NAME="?GetImageSize@BTCImageData@@QBEJXZ" PURGE="-1" COMMENT="" />
    <EXPORT ORDINAL="211" NAME="?GetImageSize@BTCImageData@@SAJHHH@Z" PURGE="-1" COMMENT="" />
    <EXPORT ORDINAL="212" NAME="?GetIndexFromColor@BTCImageData@@QAEHK@Z" PURGE="-1" COMMENT="" />
    <EXPORT ORDINAL="213" NAME="?GetIndexFromPixel@BTCImageData@@QAEHHH@Z" PURGE="-1" COMMENT="" />
    <EXPORT ORDINAL="214" NAME="?GetIntensity@BTCColor@@SANUtagBTColorRGB@@@Z" PURGE="-1" COMMENT="" />
    <EXPORT ORDINAL="215" NAME="?GetLength@BTCString@@QBEKXZ" PURGE="-1" COMMENT="" />
    <EXPORT ORDINAL="216" NAME="?GetLightness@BTCColor@@SANUtagBTColorRGB@@@Z" PURGE="-1" COMMENT="" />
    <EXPORT ORDINAL="217" NAME="?GetLuminance@BTCColor@@SANUtagBTColorRGB@@@Z" PURGE="-1" COMMENT="" />
    <EXPORT ORDINAL="218" NAME="?GetMeanValue@BTCHistogram@@QBENABW4BTChannel@1@@Z" PURGE="-1" COMMENT="" />
    <EXPORT ORDINAL="219" NAME="?GetNumColorEntries@BTCImageData@@QBEHXZ" PURGE="-1" COMMENT="" />
    <EXPORT ORDINAL="220" NAME="?GetNumColorEntries@BTCImageData@@SAHH@Z" PURGE="-1" COMMENT="" />
    <EXPORT ORDINAL="221" NAME="?GetNumPixels@BTCHistogram@@QBEJXZ" PURGE="-1" COMMENT="" />
    <EXPORT ORDINAL="222" NAME="?GetObjectData@BTCImageObject@@QBE?AVBTCImageData@@XZ" PURGE="-1" COMMENT="" />
    <EXPORT ORDINAL="223" NAME="?GetObjectDataPtr@BTCImageObject@@QAEPAVBTCImageData@@XZ" PURGE="-1" COMMENT="" />
    <EXPORT ORDINAL="224" NAME="?GetOption@BTCDecoderOptions@@UAEJJAAH@Z" PURGE="-1" COMMENT="" />
    <EXPORT ORDINAL="225" NAME="?GetOption@BTCDecoderOptions@@UAEJJAAJ@Z" PURGE="-1" COMMENT="" />
    <EXPORT ORDINAL="226" NAME="?GetOption@BTCDecoderOptions@@UAEJJAAN@Z" PURGE="-1" COMMENT="" />
    <EXPORT ORDINAL="227" NAME="?GetOption@BTCDecoderOptions@@UAEJJAAUtagBTColorRGB@@@Z" PURGE="-1" COMMENT="" />
    <EXPORT ORDINAL="228" NAME="?GetOption@BTCDecoderOptions@@UAEJJAAVBTCString@@@Z" PURGE="-1" COMMENT="" />
    <EXPORT ORDINAL="229" NAME="?GetOption@BTCDecoderOptions@@UAEJJAA_N@Z" PURGE="-1" COMMENT="" />
    <EXPORT ORDINAL="230" NAME="?GetOption@BTCDecoderOptions@@UAEJJPAPAVBTCOStream@@@Z" PURGE="-1" COMMENT="" />
    <EXPORT ORDINAL="231" NAME="?GetOption@BTCDecoderOptionsGIF@@UAEJJAAH@Z" PURGE="-1" COMMENT="" />
    <EXPORT ORDINAL="232" NAME="?GetOption@BTCDecoderOptionsGIF@@UAEJJAAUtagBTColorRGB@@@Z" PURGE="-1" COMMENT="" />
    <EXPORT ORDINAL="233" NAME="?GetOption@BTCDecoderOptionsGIF@@UAEJJAAVBTCString@@@Z" PURGE="-1" COMMENT="" />
    <EXPORT ORDINAL="234" NAME="?GetOption@BTCDecoderOptionsGIF@@UAEJJAA_N@Z" PURGE="-1" COMMENT="" />
    <EXPORT ORDINAL="235" NAME="?GetOption@BTCDecoderOptionsJPEG@@UAEJJAAH@Z" PURGE="-1" COMMENT="" />
    <EXPORT ORDINAL="236" NAME="?GetOption@BTCDecoderOptionsJPEG@@UAEJJAA_N@Z" PURGE="-1" COMMENT="" />
    <EXPORT ORDINAL="237" NAME="?GetOption@BTCDecoderOptionsJPEG@@UAEJJPAPAVBTCOStream@@@Z" PURGE="-1" COMMENT="" />
    <EXPORT ORDINAL="238" NAME="?GetOption@BTCDecoderOptionsMNG@@UAEJJAAVBTCString@@@Z" PURGE="-1" COMMENT="" />
    <EXPORT ORDINAL="239" NAME="?GetOption@BTCDecoderOptionsPNG@@UAEJJAAH@Z" PURGE="-1" COMMENT="" />
    <EXPORT ORDINAL="240" NAME="?GetOption@BTCDecoderOptionsPNG@@UAEJJAAUtagBTColorRGB@@@Z" PURGE="-1" COMMENT="" />
    <EXPORT ORDINAL="241" NAME="?GetOption@BTCDecoderOptionsPNG@@UAEJJAAVBTCString@@@Z" PURGE="-1" COMMENT="" />
    <EXPORT ORDINAL="242" NAME="?GetOption@BTCDecoderOptionsPNG@@UAEJJAA_N@Z" PURGE="-1" COMMENT="" />
    <EXPORT ORDINAL="243" NAME="?GetOption@BTCDecoderOptionsPXM@@UAEJJAAH@Z" PURGE="-1" COMMENT="" />
    <EXPORT ORDINAL="244" NAME="?GetOption@BTCDecoderOptionsPXM@@UAEJJAAVBTCString@@@Z" PURGE="-1" COMMENT="" />
    <EXPORT ORDINAL="245" NAME="?GetOption@BTCDecoderOptionsTIFF@@UAEJJAAVBTCString@@@Z" PURGE="-1" COMMENT="" />
    <EXPORT ORDINAL="246" NAME="?GetOption@BTCDecoderOptionsTIFF@@UAEJJAA_N@Z" PURGE="-1" COMMENT="" />
    <EXPORT ORDINAL="247" NAME="?GetOption@BTCDecoderOptionsTIFF@@UAEJJPAPAVBTCOStream@@@Z" PURGE="-1" COMMENT="" />
    <EXPORT ORDINAL="248" NAME="?GetOption@BTCEncoderOptions@@UAEJJAAH@Z" PURGE="-1" COMMENT="" />
    <EXPORT ORDINAL="249" NAME="?GetOption@BTCEncoderOptions@@UAEJJAAJ@Z" PURGE="-1" COMMENT="" />
    <EXPORT ORDINAL="250" NAME="?GetOption@BTCEncoderOptions@@UAEJJAAN@Z" PURGE="-1" COMMENT="" />
    <EXPORT ORDINAL="251" NAME="?GetOption@BTCEncoderOptions@@UAEJJAAUtagBTColorRGB@@@Z" PURGE="-1" COMMENT="" />
    <EXPORT ORDINAL="252" NAME="?GetOption@BTCEncoderOptions@@UAEJJAAVBTCString@@@Z" PURGE="-1" COMMENT="" />
    <EXPORT ORDINAL="253" NAME="?GetOption@BTCEncoderOptions@@UAEJJAA_N@Z" PURGE="-1" COMMENT="" />
    <EXPORT ORDINAL="254" NAME="?GetOption@BTCEncoderOptions@@UAEJJPAPAVBTCIStream@@@Z" PURGE="-1" COMMENT="" />
    <EXPORT ORDINAL="255" NAME="?GetOption@BTCEncoderOptionsBMP@@UAEJJAA_N@Z" PURGE="-1" COMMENT="" />
    <EXPORT ORDINAL="256" NAME="?GetOption@BTCEncoderOptionsGIF@@UAEJJAAH@Z" PURGE="-1" COMMENT="" />
    <EXPORT ORDINAL="257" NAME="?GetOption@BTCEncoderOptionsGIF@@UAEJJAAVBTCString@@@Z" PURGE="-1" COMMENT="" />
    <EXPORT ORDINAL="258" NAME="?GetOption@BTCEncoderOptionsJP2@@UAEJJAAH@Z" PURGE="-1" COMMENT="" />
    <EXPORT ORDINAL="259" NAME="?GetOption@BTCEncoderOptionsJP2@@UAEJJAAN@Z" PURGE="-1" COMMENT="" />
    <EXPORT ORDINAL="260" NAME="?GetOption@BTCEncoderOptionsJPEG@@UAEJJAAH@Z" PURGE="-1" COMMENT="" />
    <EXPORT ORDINAL="261" NAME="?GetOption@BTCEncoderOptionsJPEG@@UAEJJAA_N@Z" PURGE="-1" COMMENT="" />
    <EXPORT ORDINAL="262" NAME="?GetOption@BTCEncoderOptionsJPEG@@UAEJJPAPAVBTCIStream@@@Z" PURGE="-1" COMMENT="" />
    <EXPORT ORDINAL="263" NAME="?GetOption@BTCEncoderOptionsMNG@@UAEJJAAH@Z" PURGE="-1" COMMENT="" />
    <EXPORT ORDINAL="264" NAME="?GetOption@BTCEncoderOptionsMNG@@UAEJJAAVBTCString@@@Z" PURGE="-1" COMMENT="" />
    <EXPORT ORDINAL="265" NAME="?GetOption@BTCEncoderOptionsPNG@@UAEJJAAUtagBTColorRGB@@@Z" PURGE="-1" COMMENT="" />
    <EXPORT ORDINAL="266" NAME="?GetOption@BTCEncoderOptionsPNG@@UAEJJAAVBTCString@@@Z" PURGE="-1" COMMENT="" />
    <EXPORT ORDINAL="267" NAME="?GetOption@BTCEncoderOptionsPNG@@UAEJJAA_N@Z" PURGE="-1" COMMENT="" />
    <EXPORT ORDINAL="268" NAME="?GetOption@BTCEncoderOptionsPXM@@UAEJJAAH@Z" PURGE="-1" COMMENT="" />
    <EXPORT ORDINAL="269" NAME="?GetOption@BTCEncoderOptionsPXM@@UAEJJAAVBTCString@@@Z" PURGE="-1" COMMENT="" />
    <EXPORT ORDINAL="270" NAME="?GetOption@BTCEncoderOptionsTGA@@UAEJJAA_N@Z" PURGE="-1" COMMENT="" />
    <EXPORT ORDINAL="271" NAME="?GetOption@BTCEncoderOptionsTIFF@@UAEJJAAJ@Z" PURGE="-1" COMMENT="" />
    <EXPORT ORDINAL="272" NAME="?GetOption@BTCEncoderOptionsTIFF@@UAEJJAAVBTCString@@@Z" PURGE="-1" COMMENT="" />
    <EXPORT ORDINAL="273" NAME="?GetPalette@BTCImageData@@QBEPAUHPALETTE__@@XZ" PURGE="-1" COMMENT="" />
    <EXPORT ORDINAL="274" NAME="?GetPlanes@BTCImageData@@QBEHXZ" PURGE="-1" COMMENT="" />
    <EXPORT ORDINAL="275" NAME="?GetResolution@BTCImageData@@QBE?AUtagBTResolution@@ABW4BTResolutionMetric@@@Z" PURGE="-1" COMMENT="" />
    <EXPORT ORDINAL="276" NAME="?GetSaturation@BTCColor@@SANUtagBTColorRGB@@@Z" PURGE="-1" COMMENT="" />
    <EXPORT ORDINAL="277" NAME="?GetWidth@BTCImageData@@QBEJXZ" PURGE="-1" COMMENT="" />
    <EXPORT ORDINAL="278" NAME="?Grayscale@BTCImageData@@QAE_NXZ" PURGE="-1" COMMENT="" />
    <EXPORT ORDINAL="279" NAME="?HSBtoRGB@BTCColor@@SA?AUtagBTColorRGB@@NNN@Z" PURGE="-1" COMMENT="" />
    <EXPORT ORDINAL="280" NAME="?HSBtoRGB@BTCColor@@SA?AUtagBTColorRGB@@UtagBTColorHSB@@@Z" PURGE="-1" COMMENT="" />
    <EXPORT ORDINAL="281" NAME="?HSLtoRGB@BTCColor@@SA?AUtagBTColorRGB@@NNN@Z" PURGE="-1" COMMENT="" />
    <EXPORT ORDINAL="282" NAME="?HSLtoRGB@BTCColor@@SA?AUtagBTColorRGB@@UtagBTColorHSL@@@Z" PURGE="-1" COMMENT="" />
    <EXPORT ORDINAL="283" NAME="?Initialize@BTCHistogram@@QAE_NPAVBTCImageData@@@Z" PURGE="-1" COMMENT="" />
    <EXPORT ORDINAL="284" NAME="?Initialize@BTIColorManagementSystem@@SA_NXZ" PURGE="-1" COMMENT="" />
    <EXPORT ORDINAL="285" NAME="?IsColorInColorTable@BTCImageData@@QAE_NK@Z" PURGE="-1" COMMENT="" />
    <EXPORT ORDINAL="286" NAME="?IsEmpty@BTCString@@QBE_NXZ" PURGE="-1" COMMENT="" />
    <EXPORT ORDINAL="287" NAME="?IsInitialized@BTIColorManagementSystem@@SA_NXZ" PURGE="-1" COMMENT="" />
    <EXPORT ORDINAL="288" NAME="?IsLoaded@BTCImageData@@QBE_NXZ" PURGE="-1" COMMENT="" />
    <EXPORT ORDINAL="289" NAME="?Load@BTCImageObject@@QAEJIPAVBTCDecoderOptions@@PAXPBD@Z" PURGE="-1" COMMENT="" />
    <EXPORT ORDINAL="290" NAME="?Load@BTCImageObject@@QAEJPAEJPAVBTCDecoderOptions@@@Z" PURGE="-1" COMMENT="" />
    <EXPORT ORDINAL="291" NAME="?Load@BTCImageObject@@QAEJPBDPAVBTCDecoderOptions@@PAX0@Z" PURGE="-1" COMMENT="" />
    <EXPORT ORDINAL="292" NAME="?Load@BTCImageObject@@UAEJPAVBTCIStream@@PAVBTCDecoderOptions@@@Z" PURGE="-1" COMMENT="" />
    <EXPORT ORDINAL="293" NAME="?Median@BTCImageData@@QAE_NH@Z" PURGE="-1" COMMENT="" />
    <EXPORT ORDINAL="294" NAME="?Mirror@BTCImageData@@QAE_NXZ" PURGE="-1" COMMENT="" />
    <EXPORT ORDINAL="295" NAME="?Negate@BTCImageData@@QAE_NXZ" PURGE="-1" COMMENT="" />
    <EXPORT ORDINAL="296" NAME="?Noise@BTCImageData@@QAE_NW4BTNoiseType@1@@Z" PURGE="-1" COMMENT="" />
    <EXPORT ORDINAL="297" NAME="?Normalize@BTCImageData@@QAE_NXZ" PURGE="-1" COMMENT="" />
    <EXPORT ORDINAL="298" NAME="?OilPaint@BTCImageData@@QAE_NHH@Z" PURGE="-1" COMMENT="" />
    <EXPORT ORDINAL="299" NAME="?Posterize@BTCImageData@@QAE_NH@Z" PURGE="-1" COMMENT="" />
    <EXPORT ORDINAL="300" NAME="?Quantize@BTCImageData@@QAE_NH@Z" PURGE="-1" COMMENT="" />
    <EXPORT ORDINAL="301" NAME="?RGBtoHSB@BTCColor@@SA?AUtagBTColorHSB@@EEE@Z" PURGE="-1" COMMENT="" />
    <EXPORT ORDINAL="302" NAME="?RGBtoHSB@BTCColor@@SA?AUtagBTColorHSB@@UtagBTColorRGB@@@Z" PURGE="-1" COMMENT="" />
    <EXPORT ORDINAL="303" NAME="?RGBtoHSL@BTCColor@@SA?AUtagBTColorHSL@@EEE@Z" PURGE="-1" COMMENT="" />
    <EXPORT ORDINAL="304" NAME="?RGBtoHSL@BTCColor@@SA?AUtagBTColorHSL@@UtagBTColorRGB@@@Z" PURGE="-1" COMMENT="" />
    <EXPORT ORDINAL="305" NAME="?RemoveCodec@BTCImageObject@@QAEJJABW4BTCodecType@@@Z" PURGE="-1" COMMENT="" />
    <EXPORT ORDINAL="306" NAME="?Resize@BTCImageData@@QAE_NAAV1@HHABW4BTResizeFilter@1@@Z" PURGE="-1" COMMENT="" />
    <EXPORT ORDINAL="307" NAME="?Resize@BTCImageData@@QAE_NHHABW4BTResizeFilter@1@@Z" PURGE="-1" COMMENT="" />
    <EXPORT ORDINAL="308" NAME="?Rotate90@BTCImageData@@QAE_NABW4BTDirection@1@@Z" PURGE="-1" COMMENT="" />
    <EXPORT ORDINAL="309" NAME="?Rotate@BTCImageData@@QAE_NNABW4BTDirection@1@K@Z" PURGE="-1" COMMENT="" />
    <EXPORT ORDINAL="310" NAME="?Save@BTCImageObject@@QAEJVBTCString@@JPAVBTCEncoderOptions@@@Z" PURGE="-1" COMMENT="" />
    <EXPORT ORDINAL="311" NAME="?Save@BTCImageObject@@UAEJPAVBTCOStream@@JPAVBTCEncoderOptions@@@Z" PURGE="-1" COMMENT="" />
    <EXPORT ORDINAL="312" NAME="?SetChannel@BTCImageData@@QAE_NPAV1@ABW4BTChannel@1@@Z" PURGE="-1" COMMENT="" />
    <EXPORT ORDINAL="313" NAME="?SetColorForColor@BTCImageData@@QAE_NKK@Z" PURGE="-1" COMMENT="" />
    <EXPORT ORDINAL="314" NAME="?SetColorForIndex@BTCImageData@@QAE_NHK@Z" PURGE="-1" COMMENT="" />
    <EXPORT ORDINAL="315" NAME="?SetColorForPixel@BTCImageData@@QAE_NHHH@Z" PURGE="-1" COMMENT="" />
    <EXPORT ORDINAL="316" NAME="?SetColorForPixel@BTCImageData@@QAE_NHHK@Z" PURGE="-1" COMMENT="" />
    <EXPORT ORDINAL="317" NAME="?SetOption@BTCDecoderOptions@@UAEJJH@Z" PURGE="-1" COMMENT="" />
    <EXPORT ORDINAL="318" NAME="?SetOption@BTCDecoderOptions@@UAEJJJ@Z" PURGE="-1" COMMENT="" />
    <EXPORT ORDINAL="319" NAME="?SetOption@BTCDecoderOptions@@UAEJJN@Z" PURGE="-1" COMMENT="" />
    <EXPORT ORDINAL="320" NAME="?SetOption@BTCDecoderOptions@@UAEJJPAVBTCOStream@@@Z" PURGE="-1" COMMENT="" />
    <EXPORT ORDINAL="321" NAME="?SetOption@BTCDecoderOptions@@UAEJJUtagBTColorRGB@@@Z" PURGE="-1" COMMENT="" />
    <EXPORT ORDINAL="322" NAME="?SetOption@BTCDecoderOptions@@UAEJJVBTCString@@@Z" PURGE="-1" COMMENT="" />
    <EXPORT ORDINAL="323" NAME="?SetOption@BTCDecoderOptions@@UAEJJ_N@Z" PURGE="-1" COMMENT="" />
    <EXPORT ORDINAL="324" NAME="?SetOption@BTCDecoderOptionsGIF@@UAEJJH@Z" PURGE="-1" COMMENT="" />
    <EXPORT ORDINAL="325" NAME="?SetOption@BTCDecoderOptionsGIF@@UAEJJUtagBTColorRGB@@@Z" PURGE="-1" COMMENT="" />
    <EXPORT ORDINAL="326" NAME="?SetOption@BTCDecoderOptionsGIF@@UAEJJVBTCString@@@Z" PURGE="-1" COMMENT="" />
    <EXPORT ORDINAL="327" NAME="?SetOption@BTCDecoderOptionsGIF@@UAEJJ_N@Z" PURGE="-1" COMMENT="" />
    <EXPORT ORDINAL="328" NAME="?SetOption@BTCDecoderOptionsJPEG@@UAEJJH@Z" PURGE="-1" COMMENT="" />
    <EXPORT ORDINAL="329" NAME="?SetOption@BTCDecoderOptionsJPEG@@UAEJJPAVBTCOStream@@@Z" PURGE="-1" COMMENT="" />
    <EXPORT ORDINAL="330" NAME="?SetOption@BTCDecoderOptionsJPEG@@UAEJJ_N@Z" PURGE="-1" COMMENT="" />
    <EXPORT ORDINAL="331" NAME="?SetOption@BTCDecoderOptionsMNG@@UAEJJVBTCString@@@Z" PURGE="-1" COMMENT="" />
    <EXPORT ORDINAL="332" NAME="?SetOption@BTCDecoderOptionsPNG@@UAEJJH@Z" PURGE="-1" COMMENT="" />
    <EXPORT ORDINAL="333" NAME="?SetOption@BTCDecoderOptionsPNG@@UAEJJUtagBTColorRGB@@@Z" PURGE="-1" COMMENT="" />
    <EXPORT ORDINAL="334" NAME="?SetOption@BTCDecoderOptionsPNG@@UAEJJVBTCString@@@Z" PURGE="-1" COMMENT="" />
    <EXPORT ORDINAL="335" NAME="?SetOption@BTCDecoderOptionsPNG@@UAEJJ_N@Z" PURGE="-1" COMMENT="" />
    <EXPORT ORDINAL="336" NAME="?SetOption@BTCDecoderOptionsPXM@@UAEJJH@Z" PURGE="-1" COMMENT="" />
    <EXPORT ORDINAL="337" NAME="?SetOption@BTCDecoderOptionsPXM@@UAEJJVBTCString@@@Z" PURGE="-1" COMMENT="" />
    <EXPORT ORDINAL="338" NAME="?SetOption@BTCDecoderOptionsTIFF@@UAEJJPAVBTCOStream@@@Z" PURGE="-1" COMMENT="" />
    <EXPORT ORDINAL="339" NAME="?SetOption@BTCDecoderOptionsTIFF@@UAEJJVBTCString@@@Z" PURGE="-1" COMMENT="" />
    <EXPORT ORDINAL="340" NAME="?SetOption@BTCDecoderOptionsTIFF@@UAEJJ_N@Z" PURGE="-1" COMMENT="" />
    <EXPORT ORDINAL="341" NAME="?SetOption@BTCEncoderOptions@@UAEJJH@Z" PURGE="-1" COMMENT="" />
    <EXPORT ORDINAL="342" NAME="?SetOption@BTCEncoderOptions@@UAEJJJ@Z" PURGE="-1" COMMENT="" />
    <EXPORT ORDINAL="343" NAME="?SetOption@BTCEncoderOptions@@UAEJJN@Z" PURGE="-1" COMMENT="" />
    <EXPORT ORDINAL="344" NAME="?SetOption@BTCEncoderOptions@@UAEJJPAVBTCIStream@@@Z" PURGE="-1" COMMENT="" />
    <EXPORT ORDINAL="345" NAME="?SetOption@BTCEncoderOptions@@UAEJJUtagBTColorRGB@@@Z" PURGE="-1" COMMENT="" />
    <EXPORT ORDINAL="346" NAME="?SetOption@BTCEncoderOptions@@UAEJJVBTCString@@@Z" PURGE="-1" COMMENT="" />
    <EXPORT ORDINAL="347" NAME="?SetOption@BTCEncoderOptions@@UAEJJ_N@Z" PURGE="-1" COMMENT="" />
    <EXPORT ORDINAL="348" NAME="?SetOption@BTCEncoderOptionsBMP@@UAEJJ_N@Z" PURGE="-1" COMMENT="" />
    <EXPORT ORDINAL="349" NAME="?SetOption@BTCEncoderOptionsGIF@@UAEJJH@Z" PURGE="-1" COMMENT="" />
    <EXPORT ORDINAL="350" NAME="?SetOption@BTCEncoderOptionsGIF@@UAEJJVBTCString@@@Z" PURGE="-1" COMMENT="" />
    <EXPORT ORDINAL="351" NAME="?SetOption@BTCEncoderOptionsJP2@@UAEJJH@Z" PURGE="-1" COMMENT="" />
    <EXPORT ORDINAL="352" NAME="?SetOption@BTCEncoderOptionsJP2@@UAEJJN@Z" PURGE="-1" COMMENT="" />
    <EXPORT ORDINAL="353" NAME="?SetOption@BTCEncoderOptionsJPEG@@UAEJJH@Z" PURGE="-1" COMMENT="" />
    <EXPORT ORDINAL="354" NAME="?SetOption@BTCEncoderOptionsJPEG@@UAEJJPAVBTCIStream@@@Z" PURGE="-1" COMMENT="" />
    <EXPORT ORDINAL="355" NAME="?SetOption@BTCEncoderOptionsJPEG@@UAEJJ_N@Z" PURGE="-1" COMMENT="" />
    <EXPORT ORDINAL="356" NAME="?SetOption@BTCEncoderOptionsMNG@@UAEJJH@Z" PURGE="-1" COMMENT="" />
    <EXPORT ORDINAL="357" NAME="?SetOption@BTCEncoderOptionsMNG@@UAEJJVBTCString@@@Z" PURGE="-1" COMMENT="" />
    <EXPORT ORDINAL="358" NAME="?SetOption@BTCEncoderOptionsPNG@@UAEJJUtagBTColorRGB@@@Z" PURGE="-1" COMMENT="" />
    <EXPORT ORDINAL="359" NAME="?SetOption@BTCEncoderOptionsPNG@@UAEJJVBTCString@@@Z" PURGE="-1" COMMENT="" />
    <EXPORT ORDINAL="360" NAME="?SetOption@BTCEncoderOptionsPNG@@UAEJJ_N@Z" PURGE="-1" COMMENT="" />
    <EXPORT ORDINAL="361" NAME="?SetOption@BTCEncoderOptionsPXM@@UAEJJH@Z" PURGE="-1" COMMENT="" />
    <EXPORT ORDINAL="362" NAME="?SetOption@BTCEncoderOptionsPXM@@UAEJJVBTCString@@@Z" PURGE="-1" COMMENT="" />
    <EXPORT ORDINAL="363" NAME="?SetOption@BTCEncoderOptionsTGA@@UAEJJ_N@Z" PURGE="-1" COMMENT="" />
    <EXPORT ORDINAL="364" NAME="?SetOption@BTCEncoderOptionsTIFF@@UAEJJJ@Z" PURGE="-1" COMMENT="" />
    <EXPORT ORDINAL="365" NAME="?SetOption@BTCEncoderOptionsTIFF@@UAEJJVBTCString@@@Z" PURGE="-1" COMMENT="" />
    <EXPORT ORDINAL="366" NAME="?SetPalette@BTCImageData@@QAE_NPAUHPALETTE__@@@Z" PURGE="-1" COMMENT="" />
    <EXPORT ORDINAL="367" NAME="?SetProgressNotification@BTCImageObject@@QAEXPAVBTIProgressNotification@@@Z" PURGE="-1" COMMENT="" />
    <EXPORT ORDINAL="368" NAME="?Sharpen@BTCImageData@@QAE_NXZ" PURGE="-1" COMMENT="" />
    <EXPORT ORDINAL="369" NAME="?Smooth@BTCImageData@@QAE_NH@Z" PURGE="-1" COMMENT="" />
    <EXPORT ORDINAL="370" NAME="?Solarize@BTCImageData@@QAE_NN@Z" PURGE="-1" COMMENT="" />
    <EXPORT ORDINAL="371" NAME="?SplitChannels@BTCImageData@@QAE_NPAV1@000@Z" PURGE="-1" COMMENT="" />
    <EXPORT ORDINAL="372" NAME="?Stretch@BTCImageData@@QAEHPAUHDC__@@HHHHHHHHHK@Z" PURGE="-1" COMMENT="" />
    <EXPORT ORDINAL="373" NAME="?StretchTransparent@BTCImageData@@QAE_NPAUHDC__@@HHHHHHHHK@Z" PURGE="-1" COMMENT="" />
    <EXPORT ORDINAL="374" NAME="?SwapPaletteIndex@BTCImageData@@QAE_NEE@Z" PURGE="-1" COMMENT="" />
    <EXPORT ORDINAL="375" NAME="?Terminate@BTIColorManagementSystem@@SAXXZ" PURGE="-1" COMMENT="" />
    <EXPORT ORDINAL="376" NAME="?Threshold@BTCImageData@@QAE_NH@Z" PURGE="-1" COMMENT="" />
</LIBRARY>

