<?xml version="1.0" encoding="UTF-8"?>
<LIBRARY NAME="cddvdaccess.dll" PATH="/DLLArchive/etc/CDDVDAccess.dll" DATE="Fri Jul 03 12:26:21 PDT 2020" VERSION="">
    <EXPORT ORDINAL="1" NAME="??0mcCDDVDAudio@@QAE@ABV0@@Z" PURGE="4" COMMENT="" />
    <EXPORT ORDINAL="2" NAME="??0mcCDDVDAudio@@QAE@XZ" PURGE="0" COMMENT="" />
    <EXPORT ORDINAL="3" NAME="??0mcCDDVDBurn@@QAE@ABV0@@Z" PURGE="4" COMMENT="" />
    <EXPORT ORDINAL="4" NAME="??0mcCDDVDBurn@@QAE@XZ" PURGE="0" COMMENT="" />
    <EXPORT ORDINAL="5" NAME="??0mcCDDVDServices@@QAE@ABV0@@Z" PURGE="4" COMMENT="" />
    <EXPORT ORDINAL="6" NAME="??0mcCDDVDServices@@QAE@_N@Z" PURGE="4" COMMENT="" />
    <EXPORT ORDINAL="7" NAME="??1mcCDDVDAudio@@UAE@XZ" PURGE="0" COMMENT="" />
    <EXPORT ORDINAL="8" NAME="??1mcCDDVDBurn@@UAE@XZ" PURGE="0" COMMENT="" />
    <EXPORT ORDINAL="9" NAME="??1mcCDDVDServices@@UAE@XZ" PURGE="0" COMMENT="" />
    <EXPORT ORDINAL="10" NAME="??4CDDVDAccess@@QAEAAV0@ABV0@@Z" PURGE="4" COMMENT="" />
    <EXPORT ORDINAL="11" NAME="??4mcCDDVDAudio@@QAEAAV0@ABV0@@Z" PURGE="4" COMMENT="" />
    <EXPORT ORDINAL="12" NAME="??4mcCDDVDBurn@@QAEAAV0@ABV0@@Z" PURGE="4" COMMENT="" />
    <EXPORT ORDINAL="13" NAME="??4mcCDDVDServices@@QAEAAV0@ABV0@@Z" PURGE="4" COMMENT="" />
    <EXPORT ORDINAL="14" NAME="??_7mcCDDVDAudio@@6B@" PURGE="-1" COMMENT="" />
    <EXPORT ORDINAL="15" NAME="??_7mcCDDVDBurn@@6B@" PURGE="-1" COMMENT="" />
    <EXPORT ORDINAL="16" NAME="??_7mcCDDVDServices@@6B@" PURGE="-1" COMMENT="" />
    <EXPORT ORDINAL="17" NAME="??_FmcCDDVDServices@@QAEXXZ" PURGE="0" COMMENT="" />
    <EXPORT ORDINAL="18" NAME="?AddAudioTrack@mcCDDVDBurn@@UAE?AW4meCDDVDAccessResult@@PBUsCdText@@_J_KP6AKPAEKPAKK@Z@Z" PURGE="24" COMMENT="" />
    <EXPORT ORDINAL="19" NAME="?AddDataFile@mcCDDVDBurn@@UAE?AW4meCDDVDAccessResult@@ABV?$basic_string@GU?$char_traits@G@std@@V?$allocator@G@2@@std@@_J_KP6AKPAEKPAKK@ZAAU_FILETIME@@@Z" PURGE="-1" COMMENT="" />
    <EXPORT ORDINAL="20" NAME="?AddFolder@mcCDDVDBurn@@UAE?AW4meCDDVDAccessResult@@ABV?$basic_string@GU?$char_traits@G@std@@V?$allocator@G@2@@std@@@Z" PURGE="4" COMMENT="" />
    <EXPORT ORDINAL="21" NAME="?AnalogPauseResume@mcCDDVDAudio@@UAE?AW4meCDDVDAccessResult@@_N@Z" PURGE="4" COMMENT="" />
    <EXPORT ORDINAL="22" NAME="?AnalogPlay@mcCDDVDAudio@@UAE?AW4meCDDVDAccessResult@@V?$basic_string@GU?$char_traits@G@std@@V?$allocator@G@2@@std@@II@Z" PURGE="36" COMMENT="" />
    <EXPORT ORDINAL="23" NAME="?AnalogPlay@mcCDDVDAudio@@UAE?AW4meCDDVDAccessResult@@V?$basic_string@GU?$char_traits@G@std@@V?$allocator@G@2@@std@@IIIIII@Z" PURGE="52" COMMENT="" />
    <EXPORT ORDINAL="24" NAME="?AnalogPosition@mcCDDVDAudio@@UAE?AW4meCDDVDAccessResult@@AAI0@Z" PURGE="8" COMMENT="" />
    <EXPORT ORDINAL="25" NAME="?AnalogStop@mcCDDVDAudio@@UAE?AW4meCDDVDAccessResult@@XZ" PURGE="0" COMMENT="" />
    <EXPORT ORDINAL="26" NAME="?BurnDisc@mcCDDVDBurn@@UAE?AW4meCDDVDAccessResult@@_N0AAUsBurnResults@@@Z" PURGE="12" COMMENT="" />
    <EXPORT ORDINAL="27" NAME="?BurnProgressEvent@mcCDDVDBurn@@QAEXKKW4meProgressStatus@1@@Z" PURGE="12" COMMENT="" />
    <EXPORT ORDINAL="28" NAME="?CancelBurn@mcCDDVDBurn@@UAE?AW4meCDDVDAccessResult@@XZ" PURGE="0" COMMENT="" />
    <EXPORT ORDINAL="29" NAME="?CleanUp@mcCDDVDBurn@@IAEXXZ" PURGE="0" COMMENT="" />
    <EXPORT ORDINAL="30" NAME="?DeviceMediaChangeEvent@mcCDDVDServices@@QAEXV?$basic_string@GU?$char_traits@G@std@@V?$allocator@G@2@@std@@W4eDeviceMediaCallBackType@@@Z" PURGE="32" COMMENT="" />
    <EXPORT ORDINAL="31" NAME="?Eject@mcCDDVDAudio@@UAE?AW4meCDDVDAccessResult@@V?$basic_string@GU?$char_traits@G@std@@V?$allocator@G@2@@std@@_N@Z" PURGE="32" COMMENT="" />
    <EXPORT ORDINAL="32" NAME="?EndSession@mcCDDVDBurn@@UAE?AW4meCDDVDAccessResult@@XZ" PURGE="0" COMMENT="" />
    <EXPORT ORDINAL="33" NAME="?EnumerateDevices@mcCDDVDServices@@UAE?AW4meCDDVDAccessResult@@AAV?$vector@V?$basic_string@GU?$char_traits@G@std@@V?$allocator@G@2@@std@@V?$allocator@V?$basic_string@GU?$char_traits@G@std@@V?$allocator@G@2@@std@@@2@@std@@@Z" PURGE="4" COMMENT="" />
    <EXPORT ORDINAL="34" NAME="?EraseDisc@mcCDDVDBurn@@UAE?AW4meCDDVDAccessResult@@ABV?$basic_string@GU?$char_traits@G@std@@V?$allocator@G@2@@std@@_N1@Z" PURGE="12" COMMENT="" />
    <EXPORT ORDINAL="35" NAME="?EraseProgressEvent@mcCDDVDBurn@@QAEXKKW4meProgressStatus@1@@Z" PURGE="12" COMMENT="" />
    <EXPORT ORDINAL="36" NAME="?GetAudioSizingInfo@mcCDDVDBurn@@SA?AW4meCDDVDAccessResult@@PAI@Z" PURGE="0" COMMENT="" />
    <EXPORT ORDINAL="37" NAME="?GetCDIdSerialNumber@mcCDDVDBurn@@UAE?AW4meCDDVDAccessResult@@AAI@Z" PURGE="4" COMMENT="" />
    <EXPORT ORDINAL="38" NAME="?GetDeviceCapabilities@mcCDDVDServices@@UAE?AW4meCDDVDAccessResult@@V?$basic_string@GU?$char_traits@G@std@@V?$allocator@G@2@@std@@AAUsDeviceProperties@@@Z" PURGE="32" COMMENT="" />
    <EXPORT ORDINAL="39" NAME="?GetDeviceCapabilities@mcCDDVDServices@@UAE?AW4meCDDVDAccessResult@@V?$vector@V?$basic_string@GU?$char_traits@G@std@@V?$allocator@G@2@@std@@V?$allocator@V?$basic_string@GU?$char_traits@G@std@@V?$allocator@G@2@@std@@@2@@std@@AAV?$vector@UsDeviceProperties@@V?$allocator@UsDeviceProperties@@@std@@@4@@Z" PURGE="20" COMMENT="" />
    <EXPORT ORDINAL="40" NAME="?GetFSDataSizingInfo@mcCDDVDBurn@@SA?AW4meCDDVDAccessResult@@W4eMediaType@@PAUmtFSDataSizeInformation@@@Z" PURGE="0" COMMENT="" />
    <EXPORT ORDINAL="41" NAME="?GetLBAFromMSF@mcCDDVDAudio@@AAEHIII@Z" PURGE="12" COMMENT="" />
    <EXPORT ORDINAL="42" NAME="?GetMSFfromLBA@mcCDDVDAudio@@AAEXHPAI00@Z" PURGE="16" COMMENT="" />
    <EXPORT ORDINAL="43" NAME="?Init@CDDVDAccess@@SA?AW4meCDDVDAccessResult@@XZ" PURGE="0" COMMENT="" />
    <EXPORT ORDINAL="44" NAME="?LockDrive@mcCDDVDBurn@@IAEKKK@Z" PURGE="8" COMMENT="" />
    <EXPORT ORDINAL="45" NAME="?LockTray@mcCDDVDServices@@UAE?AW4meCDDVDAccessResult@@V?$basic_string@GU?$char_traits@G@std@@V?$allocator@G@2@@std@@_N@Z" PURGE="32" COMMENT="" />
    <EXPORT ORDINAL="46" NAME="?ReadDisc@mcCDDVDAudio@@UAE?AW4meCDDVDAccessResult@@V?$basic_string@GU?$char_traits@G@std@@V?$allocator@G@2@@std@@IIPAEI_NAAI@Z" PURGE="52" COMMENT="" />
    <EXPORT ORDINAL="47" NAME="?SampleMedia@mcCDDVDServices@@UAE?AW4meCDDVDAccessResult@@V?$basic_string@GU?$char_traits@G@std@@V?$allocator@G@2@@std@@AAUsMediaProperties@@@Z" PURGE="32" COMMENT="" />
    <EXPORT ORDINAL="48" NAME="?SampleMedia@mcCDDVDServices@@UAE?AW4meCDDVDAccessResult@@V?$vector@V?$basic_string@GU?$char_traits@G@std@@V?$allocator@G@2@@std@@V?$allocator@V?$basic_string@GU?$char_traits@G@std@@V?$allocator@G@2@@std@@@2@@std@@AAV?$vector@UsMediaProperties@@V?$allocator@UsMediaProperties@@@std@@@4@@Z" PURGE="20" COMMENT="" />
    <EXPORT ORDINAL="49" NAME="?SetToDefaultCDSpeed@mcCDDVDAudio@@AAEXXZ" PURGE="0" COMMENT="" />
    <EXPORT ORDINAL="50" NAME="?StartSession@mcCDDVDBurn@@UAE?AW4meCDDVDAccessResult@@ABV?$basic_string@GU?$char_traits@G@std@@V?$allocator@G@2@@std@@ABUsAudioBurnProperties@@@Z" PURGE="8" COMMENT="" />
    <EXPORT ORDINAL="51" NAME="?StartSession@mcCDDVDBurn@@UAE?AW4meCDDVDAccessResult@@ABV?$basic_string@GU?$char_traits@G@std@@V?$allocator@G@2@@std@@ABUsDataBurnProperties@@@Z" PURGE="8" COMMENT="" />
    <EXPORT ORDINAL="52" NAME="?StoreCdText@mcCDDVDBurn@@IAEXABV?$basic_string@GU?$char_traits@G@std@@V?$allocator@G@2@@std@@00@Z" PURGE="12" COMMENT="" />
    <EXPORT ORDINAL="53" NAME="?Term@CDDVDAccess@@SAXXZ" PURGE="0" COMMENT="" />
    <EXPORT ORDINAL="54" NAME="?UnlockDrive@mcCDDVDBurn@@IAEKKK_N@Z" PURGE="12" COMMENT="" />
    <EXPORT ORDINAL="55" NAME="?ValidateName@mcCDDVDBurn@@SA?AW4meCDDVDAccessResult@@W4eMediaType@@W4meNameType@1@ABV?$basic_string@GU?$char_traits@G@std@@V?$allocator@G@2@@std@@AAV56@@Z" PURGE="0" COMMENT="" />
    <EXPORT ORDINAL="56" NAME="?WriteAudioImage@mcCDDVDBurn@@IAE?AW4meCDDVDAccessResult@@_N@Z" PURGE="4" COMMENT="" />
    <EXPORT ORDINAL="57" NAME="?WriteDataImage@mcCDDVDBurn@@IAE?AW4meCDDVDAccessResult@@_N@Z" PURGE="4" COMMENT="" />
    <EXPORT ORDINAL="58" NAME="?__RemoveAllEventHandlers@mcCDDVDBurn@@QAEXPAX@Z" PURGE="4" COMMENT="" />
    <EXPORT ORDINAL="59" NAME="?__RemoveAllEventHandlers@mcCDDVDServices@@QAEXPAX@Z" PURGE="4" COMMENT="" />
</LIBRARY>

