<?xml version="1.0" encoding="UTF-8"?>
<LIBRARY NAME="cdintf400.dll" PATH="/DLLArchive/etc/cdintf400.dll" DATE="Fri Jul 03 12:26:27 PDT 2020" VERSION="4.0.1.4">
    <EXPORT ORDINAL="1" NAME="??0?$CSmartPtr@VAnnotation@@@@QAE@H@Z" PURGE="4" COMMENT="" />
    <EXPORT ORDINAL="2" NAME="??0?$CSmartPtr@VArcSegment@@@@QAE@H@Z" PURGE="4" COMMENT="" />
    <EXPORT ORDINAL="3" NAME="??0?$CSmartPtr@VArcSegment@@@@QAE@PAUSmartPtrDataPublic@@@Z" PURGE="4" COMMENT="" />
    <EXPORT ORDINAL="4" NAME="??0?$CSmartPtr@VBrush@@@@QAE@AAV0@@Z" PURGE="4" COMMENT="" />
    <EXPORT ORDINAL="5" NAME="??0?$CSmartPtr@VBrush@@@@QAE@H@Z" PURGE="4" COMMENT="" />
    <EXPORT ORDINAL="6" NAME="??0?$CSmartPtr@VBrush@@@@QAE@PAUSmartPtrDataPublic@@@Z" PURGE="4" COMMENT="" />
    <EXPORT ORDINAL="7" NAME="??0?$CSmartPtr@VCAImage@@@@QAE@AAV0@@Z" PURGE="4" COMMENT="" />
    <EXPORT ORDINAL="8" NAME="??0?$CSmartPtr@VCAImage@@@@QAE@H@Z" PURGE="4" COMMENT="" />
    <EXPORT ORDINAL="9" NAME="??0?$CSmartPtr@VCanvas@@@@QAE@AAV0@@Z" PURGE="4" COMMENT="" />
    <EXPORT ORDINAL="10" NAME="??0?$CSmartPtr@VCanvas@@@@QAE@H@Z" PURGE="4" COMMENT="" />
    <EXPORT ORDINAL="11" NAME="??0?$CSmartPtr@VCanvas@@@@QAE@PAUSmartPtrDataPublic@@@Z" PURGE="4" COMMENT="" />
    <EXPORT ORDINAL="12" NAME="??0?$CSmartPtr@VContentTypeLookup@@@@QAE@AAV0@@Z" PURGE="4" COMMENT="" />
    <EXPORT ORDINAL="13" NAME="??0?$CSmartPtr@VContentTypeLookup@@@@QAE@H@Z" PURGE="4" COMMENT="" />
    <EXPORT ORDINAL="14" NAME="??0?$CSmartPtr@VContentTypeParser@@@@QAE@H@Z" PURGE="4" COMMENT="" />
    <EXPORT ORDINAL="15" NAME="??0?$CSmartPtr@VDigitalSignature@@@@QAE@H@Z" PURGE="4" COMMENT="" />
    <EXPORT ORDINAL="16" NAME="??0?$CSmartPtr@VDocumentOutline@@@@QAE@AAV0@@Z" PURGE="4" COMMENT="" />
    <EXPORT ORDINAL="17" NAME="??0?$CSmartPtr@VDocumentOutline@@@@QAE@H@Z" PURGE="4" COMMENT="" />
    <EXPORT ORDINAL="18" NAME="??0?$CSmartPtr@VDocumentStructure@@@@QAE@AAV0@@Z" PURGE="4" COMMENT="" />
    <EXPORT ORDINAL="19" NAME="??0?$CSmartPtr@VDocumentStructure@@@@QAE@H@Z" PURGE="4" COMMENT="" />
    <EXPORT ORDINAL="20" NAME="??0?$CSmartPtr@VFigureStructure@@@@QAE@H@Z" PURGE="4" COMMENT="" />
    <EXPORT ORDINAL="21" NAME="??0?$CSmartPtr@VFigureStructure@@@@QAE@PAUSmartPtrDataPublic@@@Z" PURGE="4" COMMENT="" />
    <EXPORT ORDINAL="22" NAME="??0?$CSmartPtr@VFixedDocument@@@@QAE@AAV0@@Z" PURGE="4" COMMENT="" />
    <EXPORT ORDINAL="23" NAME="??0?$CSmartPtr@VFixedDocument@@@@QAE@H@Z" PURGE="4" COMMENT="" />
    <EXPORT ORDINAL="24" NAME="??0?$CSmartPtr@VFixedDocumentParser@@@@QAE@H@Z" PURGE="4" COMMENT="" />
    <EXPORT ORDINAL="25" NAME="??0?$CSmartPtr@VFixedDocumentSequence@@@@QAE@H@Z" PURGE="4" COMMENT="" />
    <EXPORT ORDINAL="26" NAME="??0?$CSmartPtr@VFixedPage@@@@QAE@AAV0@@Z" PURGE="4" COMMENT="" />
    <EXPORT ORDINAL="27" NAME="??0?$CSmartPtr@VFixedPage@@@@QAE@H@Z" PURGE="4" COMMENT="" />
    <EXPORT ORDINAL="28" NAME="??0?$CSmartPtr@VFont@@@@QAE@AAV0@@Z" PURGE="4" COMMENT="" />
    <EXPORT ORDINAL="29" NAME="??0?$CSmartPtr@VFont@@@@QAE@H@Z" PURGE="4" COMMENT="" />
    <EXPORT ORDINAL="30" NAME="??0?$CSmartPtr@VGlyphs@@@@QAE@AAV0@@Z" PURGE="4" COMMENT="" />
    <EXPORT ORDINAL="31" NAME="??0?$CSmartPtr@VGlyphs@@@@QAE@H@Z" PURGE="4" COMMENT="" />
    <EXPORT ORDINAL="32" NAME="??0?$CSmartPtr@VGlyphs@@@@QAE@PAUSmartPtrDataPublic@@@Z" PURGE="4" COMMENT="" />
    <EXPORT ORDINAL="33" NAME="??0?$CSmartPtr@VGradientBrush@@@@QAE@PAUSmartPtrDataPublic@@@Z" PURGE="4" COMMENT="" />
    <EXPORT ORDINAL="34" NAME="??0?$CSmartPtr@VGradientStop@@@@QAE@AAV0@@Z" PURGE="4" COMMENT="" />
    <EXPORT ORDINAL="35" NAME="??0?$CSmartPtr@VGradientStop@@@@QAE@H@Z" PURGE="4" COMMENT="" />
    <EXPORT ORDINAL="36" NAME="??0?$CSmartPtr@VImage@@@@QAE@AAV0@@Z" PURGE="4" COMMENT="" />
    <EXPORT ORDINAL="37" NAME="??0?$CSmartPtr@VImage@@@@QAE@H@Z" PURGE="4" COMMENT="" />
    <EXPORT ORDINAL="38" NAME="??0?$CSmartPtr@VImageBrush@@@@QAE@AAV0@@Z" PURGE="4" COMMENT="" />
    <EXPORT ORDINAL="39" NAME="??0?$CSmartPtr@VImageBrush@@@@QAE@H@Z" PURGE="4" COMMENT="" />
    <EXPORT ORDINAL="40" NAME="??0?$CSmartPtr@VImageBrush@@@@QAE@PAUSmartPtrDataPublic@@@Z" PURGE="4" COMMENT="" />
    <EXPORT ORDINAL="41" NAME="??0?$CSmartPtr@VLang@@@@QAE@AAV0@@Z" PURGE="4" COMMENT="" />
    <EXPORT ORDINAL="42" NAME="??0?$CSmartPtr@VLang@@@@QAE@H@Z" PURGE="4" COMMENT="" />
    <EXPORT ORDINAL="43" NAME="??0?$CSmartPtr@VLinearGradientBrush@@@@QAE@H@Z" PURGE="4" COMMENT="" />
    <EXPORT ORDINAL="44" NAME="??0?$CSmartPtr@VLinearGradientBrush@@@@QAE@PAUSmartPtrDataPublic@@@Z" PURGE="4" COMMENT="" />
    <EXPORT ORDINAL="45" NAME="??0?$CSmartPtr@VLinkTarget@@@@QAE@AAV0@@Z" PURGE="4" COMMENT="" />
    <EXPORT ORDINAL="46" NAME="??0?$CSmartPtr@VLinkTarget@@@@QAE@H@Z" PURGE="4" COMMENT="" />
    <EXPORT ORDINAL="47" NAME="??0?$CSmartPtr@VListItemStructure@@@@QAE@AAV0@@Z" PURGE="4" COMMENT="" />
    <EXPORT ORDINAL="48" NAME="??0?$CSmartPtr@VListItemStructure@@@@QAE@H@Z" PURGE="4" COMMENT="" />
    <EXPORT ORDINAL="49" NAME="??0?$CSmartPtr@VListItemStructure@@@@QAE@PAUSmartPtrDataPublic@@@Z" PURGE="4" COMMENT="" />
    <EXPORT ORDINAL="50" NAME="??0?$CSmartPtr@VListStructure@@@@QAE@H@Z" PURGE="4" COMMENT="" />
    <EXPORT ORDINAL="51" NAME="??0?$CSmartPtr@VListStructure@@@@QAE@PAUSmartPtrDataPublic@@@Z" PURGE="4" COMMENT="" />
    <EXPORT ORDINAL="52" NAME="??0?$CSmartPtr@VMetroData@@@@QAE@AAV0@@Z" PURGE="4" COMMENT="" />
    <EXPORT ORDINAL="53" NAME="??0?$CSmartPtr@VMetroData@@@@QAE@H@Z" PURGE="4" COMMENT="" />
    <EXPORT ORDINAL="54" NAME="??0?$CSmartPtr@VMetroPart@@@@QAE@AAV0@@Z" PURGE="4" COMMENT="" />
    <EXPORT ORDINAL="55" NAME="??0?$CSmartPtr@VMetroPart@@@@QAE@H@Z" PURGE="4" COMMENT="" />
    <EXPORT ORDINAL="56" NAME="??0?$CSmartPtr@VMetroPart@@@@QAE@PAUSmartPtrDataPublic@@@Z" PURGE="4" COMMENT="" />
    <EXPORT ORDINAL="57" NAME="??0?$CSmartPtr@VMetroReader@@@@QAE@AAV0@@Z" PURGE="4" COMMENT="" />
    <EXPORT ORDINAL="58" NAME="??0?$CSmartPtr@VMetroReader@@@@QAE@H@Z" PURGE="4" COMMENT="" />
    <EXPORT ORDINAL="59" NAME="??0?$CSmartPtr@VMetroReader@@@@QAE@PAUSmartPtrDataPublic@@@Z" PURGE="4" COMMENT="" />
    <EXPORT ORDINAL="60" NAME="??0?$CSmartPtr@VMetroWriter@@@@QAE@AAV0@@Z" PURGE="4" COMMENT="" />
    <EXPORT ORDINAL="61" NAME="??0?$CSmartPtr@VMetroWriter@@@@QAE@H@Z" PURGE="4" COMMENT="" />
    <EXPORT ORDINAL="62" NAME="??0?$CSmartPtr@VMetroWriter@@@@QAE@PAUSmartPtrDataPublic@@@Z" PURGE="4" COMMENT="" />
    <EXPORT ORDINAL="63" NAME="??0?$CSmartPtr@VNamedElement@@@@QAE@AAV0@@Z" PURGE="4" COMMENT="" />
    <EXPORT ORDINAL="64" NAME="??0?$CSmartPtr@VNamedElement@@@@QAE@H@Z" PURGE="4" COMMENT="" />
    <EXPORT ORDINAL="65" NAME="??0?$CSmartPtr@VOutlineEntry@@@@QAE@AAV0@@Z" PURGE="4" COMMENT="" />
    <EXPORT ORDINAL="66" NAME="??0?$CSmartPtr@VOutlineEntry@@@@QAE@H@Z" PURGE="4" COMMENT="" />
    <EXPORT ORDINAL="67" NAME="??0?$CSmartPtr@VPackURI@@@@QAE@AAV0@@Z" PURGE="4" COMMENT="" />
    <EXPORT ORDINAL="68" NAME="??0?$CSmartPtr@VPackURI@@@@QAE@H@Z" PURGE="4" COMMENT="" />
    <EXPORT ORDINAL="69" NAME="??0?$CSmartPtr@VPackURI@@@@QAE@PAUSmartPtrDataPublic@@@Z" PURGE="4" COMMENT="" />
    <EXPORT ORDINAL="70" NAME="??0?$CSmartPtr@VPageContent@@@@QAE@AAV0@@Z" PURGE="4" COMMENT="" />
    <EXPORT ORDINAL="71" NAME="??0?$CSmartPtr@VPageContent@@@@QAE@H@Z" PURGE="4" COMMENT="" />
    <EXPORT ORDINAL="72" NAME="??0?$CSmartPtr@VPageElement@@@@QAE@AAV0@@Z" PURGE="4" COMMENT="" />
    <EXPORT ORDINAL="73" NAME="??0?$CSmartPtr@VPageElement@@@@QAE@H@Z" PURGE="4" COMMENT="" />
    <EXPORT ORDINAL="74" NAME="??0?$CSmartPtr@VPageElement@@@@QAE@PAUSmartPtrDataPublic@@@Z" PURGE="4" COMMENT="" />
    <EXPORT ORDINAL="75" NAME="??0?$CSmartPtr@VParagraphStructure@@@@QAE@H@Z" PURGE="4" COMMENT="" />
    <EXPORT ORDINAL="76" NAME="??0?$CSmartPtr@VParagraphStructure@@@@QAE@PAUSmartPtrDataPublic@@@Z" PURGE="4" COMMENT="" />
    <EXPORT ORDINAL="77" NAME="??0?$CSmartPtr@VPartName@@@@QAE@AAV0@@Z" PURGE="4" COMMENT="" />
    <EXPORT ORDINAL="78" NAME="??0?$CSmartPtr@VPartName@@@@QAE@H@Z" PURGE="4" COMMENT="" />
    <EXPORT ORDINAL="79" NAME="??0?$CSmartPtr@VPath@@@@QAE@AAV0@@Z" PURGE="4" COMMENT="" />
    <EXPORT ORDINAL="80" NAME="??0?$CSmartPtr@VPath@@@@QAE@H@Z" PURGE="4" COMMENT="" />
    <EXPORT ORDINAL="81" NAME="??0?$CSmartPtr@VPath@@@@QAE@PAUSmartPtrDataPublic@@@Z" PURGE="4" COMMENT="" />
    <EXPORT ORDINAL="82" NAME="??0?$CSmartPtr@VPathFigure@@@@QAE@AAV0@@Z" PURGE="4" COMMENT="" />
    <EXPORT ORDINAL="83" NAME="??0?$CSmartPtr@VPathFigure@@@@QAE@H@Z" PURGE="4" COMMENT="" />
    <EXPORT ORDINAL="84" NAME="??0?$CSmartPtr@VPathFigure@@@@QAE@PAUSmartPtrDataPublic@@@Z" PURGE="4" COMMENT="" />
    <EXPORT ORDINAL="85" NAME="??0?$CSmartPtr@VPathGeometry@@@@QAE@AAV0@@Z" PURGE="4" COMMENT="" />
    <EXPORT ORDINAL="86" NAME="??0?$CSmartPtr@VPathGeometry@@@@QAE@H@Z" PURGE="4" COMMENT="" />
    <EXPORT ORDINAL="87" NAME="??0?$CSmartPtr@VPathGeometry@@@@QAE@PAUSmartPtrDataPublic@@@Z" PURGE="4" COMMENT="" />
    <EXPORT ORDINAL="88" NAME="??0?$CSmartPtr@VPolyBezierSegment@@@@QAE@H@Z" PURGE="4" COMMENT="" />
    <EXPORT ORDINAL="89" NAME="??0?$CSmartPtr@VPolyBezierSegment@@@@QAE@PAUSmartPtrDataPublic@@@Z" PURGE="4" COMMENT="" />
    <EXPORT ORDINAL="90" NAME="??0?$CSmartPtr@VPolyLineSegment@@@@QAE@H@Z" PURGE="4" COMMENT="" />
    <EXPORT ORDINAL="91" NAME="??0?$CSmartPtr@VPolyLineSegment@@@@QAE@PAUSmartPtrDataPublic@@@Z" PURGE="4" COMMENT="" />
    <EXPORT ORDINAL="92" NAME="??0?$CSmartPtr@VPolyQuadraticBezierSegment@@@@QAE@H@Z" PURGE="4" COMMENT="" />
    <EXPORT ORDINAL="93" NAME="??0?$CSmartPtr@VPolyQuadraticBezierSegment@@@@QAE@PAUSmartPtrDataPublic@@@Z" PURGE="4" COMMENT="" />
    <EXPORT ORDINAL="94" NAME="??0?$CSmartPtr@VPrintTicket@@@@QAE@H@Z" PURGE="4" COMMENT="" />
    <EXPORT ORDINAL="95" NAME="??0?$CSmartPtr@VRadialGradientBrush@@@@QAE@H@Z" PURGE="4" COMMENT="" />
    <EXPORT ORDINAL="96" NAME="??0?$CSmartPtr@VReachPackage@@@@QAE@AAV0@@Z" PURGE="4" COMMENT="" />
    <EXPORT ORDINAL="97" NAME="??0?$CSmartPtr@VReachPackage@@@@QAE@H@Z" PURGE="4" COMMENT="" />
    <EXPORT ORDINAL="98" NAME="??0?$CSmartPtr@VRelationship@@@@QAE@AAV0@@Z" PURGE="4" COMMENT="" />
    <EXPORT ORDINAL="99" NAME="??0?$CSmartPtr@VRelationship@@@@QAE@H@Z" PURGE="4" COMMENT="" />
    <EXPORT ORDINAL="100" NAME="??0?$CSmartPtr@VRelationshipID@@@@QAE@AAV0@@Z" PURGE="4" COMMENT="" />
    <EXPORT ORDINAL="101" NAME="??0?$CSmartPtr@VRelationshipID@@@@QAE@H@Z" PURGE="4" COMMENT="" />
    <EXPORT ORDINAL="102" NAME="??0?$CSmartPtr@VRelationships@@@@QAE@AAV0@@Z" PURGE="4" COMMENT="" />
    <EXPORT ORDINAL="103" NAME="??0?$CSmartPtr@VRelationships@@@@QAE@H@Z" PURGE="4" COMMENT="" />
    <EXPORT ORDINAL="104" NAME="??0?$CSmartPtr@VST_Boolean@@@@QAE@AAV0@@Z" PURGE="4" COMMENT="" />
    <EXPORT ORDINAL="105" NAME="??0?$CSmartPtr@VST_Boolean@@@@QAE@H@Z" PURGE="4" COMMENT="" />
    <EXPORT ORDINAL="106" NAME="??0?$CSmartPtr@VST_CaretStop@@@@QAE@AAV0@@Z" PURGE="4" COMMENT="" />
    <EXPORT ORDINAL="107" NAME="??0?$CSmartPtr@VST_CaretStop@@@@QAE@H@Z" PURGE="4" COMMENT="" />
    <EXPORT ORDINAL="108" NAME="??0?$CSmartPtr@VST_EvenArray@@@@QAE@AAV0@@Z" PURGE="4" COMMENT="" />
    <EXPORT ORDINAL="109" NAME="??0?$CSmartPtr@VST_EvenArray@@@@QAE@H@Z" PURGE="4" COMMENT="" />
    <EXPORT ORDINAL="110" NAME="??0?$CSmartPtr@VST_GEZero@@@@QAE@AAV0@@Z" PURGE="4" COMMENT="" />
    <EXPORT ORDINAL="111" NAME="??0?$CSmartPtr@VST_GEZero@@@@QAE@H@Z" PURGE="4" COMMENT="" />
    <EXPORT ORDINAL="112" NAME="??0?$CSmartPtr@VST_Indices@@@@QAE@AAV0@@Z" PURGE="4" COMMENT="" />
    <EXPORT ORDINAL="113" NAME="??0?$CSmartPtr@VST_Indices@@@@QAE@H@Z" PURGE="4" COMMENT="" />
    <EXPORT ORDINAL="114" NAME="??0?$CSmartPtr@VST_IntGEOne@@@@QAE@AAV0@@Z" PURGE="4" COMMENT="" />
    <EXPORT ORDINAL="115" NAME="??0?$CSmartPtr@VST_IntGEOne@@@@QAE@H@Z" PURGE="4" COMMENT="" />
    <EXPORT ORDINAL="116" NAME="??0?$CSmartPtr@VST_Name@@@@QAE@AAV0@@Z" PURGE="4" COMMENT="" />
    <EXPORT ORDINAL="117" NAME="??0?$CSmartPtr@VST_Name@@@@QAE@H@Z" PURGE="4" COMMENT="" />
    <EXPORT ORDINAL="118" NAME="??0?$CSmartPtr@VST_RscRefColor@@@@QAE@AAV0@@Z" PURGE="4" COMMENT="" />
    <EXPORT ORDINAL="119" NAME="??0?$CSmartPtr@VST_RscRefColor@@@@QAE@H@Z" PURGE="4" COMMENT="" />
    <EXPORT ORDINAL="120" NAME="??0?$CSmartPtr@VST_RscRefMatrix@@@@QAE@AAV0@@Z" PURGE="4" COMMENT="" />
    <EXPORT ORDINAL="121" NAME="??0?$CSmartPtr@VST_RscRefMatrix@@@@QAE@H@Z" PURGE="4" COMMENT="" />
    <EXPORT ORDINAL="122" NAME="??0?$CSmartPtr@VST_TableSpan@@@@QAE@AAV0@@Z" PURGE="4" COMMENT="" />
    <EXPORT ORDINAL="123" NAME="??0?$CSmartPtr@VST_TableSpan@@@@QAE@H@Z" PURGE="4" COMMENT="" />
    <EXPORT ORDINAL="124" NAME="??0?$CSmartPtr@VST_UnicodeString@@@@QAE@AAV0@@Z" PURGE="4" COMMENT="" />
    <EXPORT ORDINAL="125" NAME="??0?$CSmartPtr@VST_UnicodeString@@@@QAE@H@Z" PURGE="4" COMMENT="" />
    <EXPORT ORDINAL="126" NAME="??0?$CSmartPtr@VST_ZeroOne@@@@QAE@AAV0@@Z" PURGE="4" COMMENT="" />
    <EXPORT ORDINAL="127" NAME="??0?$CSmartPtr@VST_ZeroOne@@@@QAE@H@Z" PURGE="4" COMMENT="" />
    <EXPORT ORDINAL="128" NAME="??0?$CSmartPtr@VSectionStructure@@@@QAE@H@Z" PURGE="4" COMMENT="" />
    <EXPORT ORDINAL="129" NAME="??0?$CSmartPtr@VSectionStructure@@@@QAE@PAUSmartPtrDataPublic@@@Z" PURGE="4" COMMENT="" />
    <EXPORT ORDINAL="130" NAME="??0?$CSmartPtr@VSegment@@@@QAE@AAV0@@Z" PURGE="4" COMMENT="" />
    <EXPORT ORDINAL="131" NAME="??0?$CSmartPtr@VSegment@@@@QAE@H@Z" PURGE="4" COMMENT="" />
    <EXPORT ORDINAL="132" NAME="??0?$CSmartPtr@VSegment@@@@QAE@PAUSmartPtrDataPublic@@@Z" PURGE="4" COMMENT="" />
    <EXPORT ORDINAL="133" NAME="??0?$CSmartPtr@VSolidColorBrush@@@@QAE@AAV0@@Z" PURGE="4" COMMENT="" />
    <EXPORT ORDINAL="134" NAME="??0?$CSmartPtr@VSolidColorBrush@@@@QAE@H@Z" PURGE="4" COMMENT="" />
    <EXPORT ORDINAL="135" NAME="??0?$CSmartPtr@VSolidColorBrush@@@@QAE@PAUSmartPtrDataPublic@@@Z" PURGE="4" COMMENT="" />
    <EXPORT ORDINAL="136" NAME="??0?$CSmartPtr@VStory@@@@QAE@AAV0@@Z" PURGE="4" COMMENT="" />
    <EXPORT ORDINAL="137" NAME="??0?$CSmartPtr@VStory@@@@QAE@H@Z" PURGE="4" COMMENT="" />
    <EXPORT ORDINAL="138" NAME="??0?$CSmartPtr@VStoryFragment@@@@QAE@AAV0@@Z" PURGE="4" COMMENT="" />
    <EXPORT ORDINAL="139" NAME="??0?$CSmartPtr@VStoryFragment@@@@QAE@H@Z" PURGE="4" COMMENT="" />
    <EXPORT ORDINAL="140" NAME="??0?$CSmartPtr@VStoryFragmentReference@@@@QAE@AAV0@@Z" PURGE="4" COMMENT="" />
    <EXPORT ORDINAL="141" NAME="??0?$CSmartPtr@VStoryFragmentReference@@@@QAE@H@Z" PURGE="4" COMMENT="" />
    <EXPORT ORDINAL="142" NAME="??0?$CSmartPtr@VStoryFragments@@@@QAE@AAV0@@Z" PURGE="4" COMMENT="" />
    <EXPORT ORDINAL="143" NAME="??0?$CSmartPtr@VStoryFragments@@@@QAE@H@Z" PURGE="4" COMMENT="" />
    <EXPORT ORDINAL="144" NAME="??0?$CSmartPtr@VStructure@@@@QAE@AAV0@@Z" PURGE="4" COMMENT="" />
    <EXPORT ORDINAL="145" NAME="??0?$CSmartPtr@VStructure@@@@QAE@H@Z" PURGE="4" COMMENT="" />
    <EXPORT ORDINAL="146" NAME="??0?$CSmartPtr@VStructure@@@@QAE@PAUSmartPtrDataPublic@@@Z" PURGE="4" COMMENT="" />
    <EXPORT ORDINAL="147" NAME="??0?$CSmartPtr@VStructureElement@@@@QAE@AAV0@@Z" PURGE="4" COMMENT="" />
    <EXPORT ORDINAL="148" NAME="??0?$CSmartPtr@VStructureElement@@@@QAE@H@Z" PURGE="4" COMMENT="" />
    <EXPORT ORDINAL="149" NAME="??0?$CSmartPtr@VStructureElement@@@@QAE@PAUSmartPtrDataPublic@@@Z" PURGE="4" COMMENT="" />
    <EXPORT ORDINAL="150" NAME="??0?$CSmartPtr@VTableCellStructure@@@@QAE@AAV0@@Z" PURGE="4" COMMENT="" />
    <EXPORT ORDINAL="151" NAME="??0?$CSmartPtr@VTableCellStructure@@@@QAE@H@Z" PURGE="4" COMMENT="" />
    <EXPORT ORDINAL="152" NAME="??0?$CSmartPtr@VTableCellStructure@@@@QAE@PAUSmartPtrDataPublic@@@Z" PURGE="4" COMMENT="" />
    <EXPORT ORDINAL="153" NAME="??0?$CSmartPtr@VTableRowGroupStructure@@@@QAE@AAV0@@Z" PURGE="4" COMMENT="" />
    <EXPORT ORDINAL="154" NAME="??0?$CSmartPtr@VTableRowGroupStructure@@@@QAE@H@Z" PURGE="4" COMMENT="" />
    <EXPORT ORDINAL="155" NAME="??0?$CSmartPtr@VTableRowGroupStructure@@@@QAE@PAUSmartPtrDataPublic@@@Z" PURGE="4" COMMENT="" />
    <EXPORT ORDINAL="156" NAME="??0?$CSmartPtr@VTableRowStructure@@@@QAE@AAV0@@Z" PURGE="4" COMMENT="" />
    <EXPORT ORDINAL="157" NAME="??0?$CSmartPtr@VTableRowStructure@@@@QAE@H@Z" PURGE="4" COMMENT="" />
    <EXPORT ORDINAL="158" NAME="??0?$CSmartPtr@VTableRowStructure@@@@QAE@PAUSmartPtrDataPublic@@@Z" PURGE="4" COMMENT="" />
    <EXPORT ORDINAL="159" NAME="??0?$CSmartPtr@VTableStructure@@@@QAE@H@Z" PURGE="4" COMMENT="" />
    <EXPORT ORDINAL="160" NAME="??0?$CSmartPtr@VTableStructure@@@@QAE@PAUSmartPtrDataPublic@@@Z" PURGE="4" COMMENT="" />
    <EXPORT ORDINAL="161" NAME="??0?$CSmartPtr@VThumbnail@@@@QAE@H@Z" PURGE="4" COMMENT="" />
    <EXPORT ORDINAL="162" NAME="??0?$CSmartPtr@VVisualBrush@@@@QAE@AAV0@@Z" PURGE="4" COMMENT="" />
    <EXPORT ORDINAL="163" NAME="??0?$CSmartPtr@VVisualBrush@@@@QAE@H@Z" PURGE="4" COMMENT="" />
    <EXPORT ORDINAL="164" NAME="??0?$CSmartPtr@VX_Key@@@@QAE@AAV0@@Z" PURGE="4" COMMENT="" />
    <EXPORT ORDINAL="165" NAME="??0?$CSmartPtr@VX_Key@@@@QAE@H@Z" PURGE="4" COMMENT="" />
    <EXPORT ORDINAL="166" NAME="??0?$CSmartPtr@VZipReader@@@@QAE@H@Z" PURGE="4" COMMENT="" />
    <EXPORT ORDINAL="167" NAME="??0?$CSmartPtr@VZipWriter@@@@QAE@H@Z" PURGE="4" COMMENT="" />
    <EXPORT ORDINAL="168" NAME="??0?$CSmartPtrToNonClass@D@@QAE@AAV0@@Z" PURGE="4" COMMENT="" />
    <EXPORT ORDINAL="169" NAME="??0?$CSmartPtrToNonClass@D@@QAE@H@Z" PURGE="4" COMMENT="" />
    <EXPORT ORDINAL="170" NAME="??0?$CSmartPtrToNonClass@D@@QAE@XZ" PURGE="0" COMMENT="" />
    <EXPORT ORDINAL="171" NAME="??0?$CSmartPtrToNonClass@VAnnotation@@@@QAE@H@Z" PURGE="4" COMMENT="" />
    <EXPORT ORDINAL="172" NAME="??0?$CSmartPtrToNonClass@VArcSegment@@@@QAE@H@Z" PURGE="4" COMMENT="" />
    <EXPORT ORDINAL="173" NAME="??0?$CSmartPtrToNonClass@VArcSegment@@@@QAE@PAUSmartPtrDataPublic@@@Z" PURGE="4" COMMENT="" />
    <EXPORT ORDINAL="174" NAME="??0?$CSmartPtrToNonClass@VBrush@@@@QAE@AAV0@@Z" PURGE="4" COMMENT="" />
    <EXPORT ORDINAL="175" NAME="??0?$CSmartPtrToNonClass@VBrush@@@@QAE@H@Z" PURGE="4" COMMENT="" />
    <EXPORT ORDINAL="176" NAME="??0?$CSmartPtrToNonClass@VBrush@@@@QAE@PAUSmartPtrDataPublic@@@Z" PURGE="4" COMMENT="" />
    <EXPORT ORDINAL="177" NAME="??0?$CSmartPtrToNonClass@VCAImage@@@@QAE@AAV0@@Z" PURGE="4" COMMENT="" />
    <EXPORT ORDINAL="178" NAME="??0?$CSmartPtrToNonClass@VCAImage@@@@QAE@H@Z" PURGE="4" COMMENT="" />
    <EXPORT ORDINAL="179" NAME="??0?$CSmartPtrToNonClass@VCanvas@@@@QAE@AAV0@@Z" PURGE="4" COMMENT="" />
    <EXPORT ORDINAL="180" NAME="??0?$CSmartPtrToNonClass@VCanvas@@@@QAE@H@Z" PURGE="4" COMMENT="" />
    <EXPORT ORDINAL="181" NAME="??0?$CSmartPtrToNonClass@VCanvas@@@@QAE@PAUSmartPtrDataPublic@@@Z" PURGE="4" COMMENT="" />
    <EXPORT ORDINAL="182" NAME="??0?$CSmartPtrToNonClass@VContentTypeLookup@@@@QAE@AAV0@@Z" PURGE="4" COMMENT="" />
    <EXPORT ORDINAL="183" NAME="??0?$CSmartPtrToNonClass@VContentTypeLookup@@@@QAE@H@Z" PURGE="4" COMMENT="" />
    <EXPORT ORDINAL="184" NAME="??0?$CSmartPtrToNonClass@VContentTypeParser@@@@QAE@H@Z" PURGE="4" COMMENT="" />
    <EXPORT ORDINAL="185" NAME="??0?$CSmartPtrToNonClass@VDigitalSignature@@@@QAE@H@Z" PURGE="4" COMMENT="" />
    <EXPORT ORDINAL="186" NAME="??0?$CSmartPtrToNonClass@VDocumentOutline@@@@QAE@AAV0@@Z" PURGE="4" COMMENT="" />
    <EXPORT ORDINAL="187" NAME="??0?$CSmartPtrToNonClass@VDocumentOutline@@@@QAE@H@Z" PURGE="4" COMMENT="" />
    <EXPORT ORDINAL="188" NAME="??0?$CSmartPtrToNonClass@VDocumentStructure@@@@QAE@AAV0@@Z" PURGE="4" COMMENT="" />
    <EXPORT ORDINAL="189" NAME="??0?$CSmartPtrToNonClass@VDocumentStructure@@@@QAE@H@Z" PURGE="4" COMMENT="" />
    <EXPORT ORDINAL="190" NAME="??0?$CSmartPtrToNonClass@VFigureStructure@@@@QAE@H@Z" PURGE="4" COMMENT="" />
    <EXPORT ORDINAL="191" NAME="??0?$CSmartPtrToNonClass@VFigureStructure@@@@QAE@PAUSmartPtrDataPublic@@@Z" PURGE="4" COMMENT="" />
    <EXPORT ORDINAL="192" NAME="??0?$CSmartPtrToNonClass@VFixedDocument@@@@QAE@AAV0@@Z" PURGE="4" COMMENT="" />
    <EXPORT ORDINAL="193" NAME="??0?$CSmartPtrToNonClass@VFixedDocument@@@@QAE@H@Z" PURGE="4" COMMENT="" />
    <EXPORT ORDINAL="194" NAME="??0?$CSmartPtrToNonClass@VFixedDocumentParser@@@@QAE@H@Z" PURGE="4" COMMENT="" />
    <EXPORT ORDINAL="195" NAME="??0?$CSmartPtrToNonClass@VFixedDocumentSequence@@@@QAE@H@Z" PURGE="4" COMMENT="" />
    <EXPORT ORDINAL="196" NAME="??0?$CSmartPtrToNonClass@VFixedPage@@@@QAE@AAV0@@Z" PURGE="4" COMMENT="" />
    <EXPORT ORDINAL="197" NAME="??0?$CSmartPtrToNonClass@VFixedPage@@@@QAE@H@Z" PURGE="4" COMMENT="" />
    <EXPORT ORDINAL="198" NAME="??0?$CSmartPtrToNonClass@VFont@@@@QAE@AAV0@@Z" PURGE="4" COMMENT="" />
    <EXPORT ORDINAL="199" NAME="??0?$CSmartPtrToNonClass@VFont@@@@QAE@H@Z" PURGE="4" COMMENT="" />
    <EXPORT ORDINAL="200" NAME="??0?$CSmartPtrToNonClass@VGlyphs@@@@QAE@AAV0@@Z" PURGE="4" COMMENT="" />
    <EXPORT ORDINAL="201" NAME="??0?$CSmartPtrToNonClass@VGlyphs@@@@QAE@H@Z" PURGE="4" COMMENT="" />
    <EXPORT ORDINAL="202" NAME="??0?$CSmartPtrToNonClass@VGlyphs@@@@QAE@PAUSmartPtrDataPublic@@@Z" PURGE="4" COMMENT="" />
    <EXPORT ORDINAL="203" NAME="??0?$CSmartPtrToNonClass@VGradientBrush@@@@QAE@PAUSmartPtrDataPublic@@@Z" PURGE="4" COMMENT="" />
    <EXPORT ORDINAL="204" NAME="??0?$CSmartPtrToNonClass@VGradientStop@@@@QAE@AAV0@@Z" PURGE="4" COMMENT="" />
    <EXPORT ORDINAL="205" NAME="??0?$CSmartPtrToNonClass@VGradientStop@@@@QAE@H@Z" PURGE="4" COMMENT="" />
    <EXPORT ORDINAL="206" NAME="??0?$CSmartPtrToNonClass@VImage@@@@QAE@AAV0@@Z" PURGE="4" COMMENT="" />
    <EXPORT ORDINAL="207" NAME="??0?$CSmartPtrToNonClass@VImage@@@@QAE@H@Z" PURGE="4" COMMENT="" />
    <EXPORT ORDINAL="208" NAME="??0?$CSmartPtrToNonClass@VImageBrush@@@@QAE@AAV0@@Z" PURGE="4" COMMENT="" />
    <EXPORT ORDINAL="209" NAME="??0?$CSmartPtrToNonClass@VImageBrush@@@@QAE@H@Z" PURGE="4" COMMENT="" />
    <EXPORT ORDINAL="210" NAME="??0?$CSmartPtrToNonClass@VImageBrush@@@@QAE@PAUSmartPtrDataPublic@@@Z" PURGE="4" COMMENT="" />
    <EXPORT ORDINAL="211" NAME="??0?$CSmartPtrToNonClass@VLang@@@@QAE@AAV0@@Z" PURGE="4" COMMENT="" />
    <EXPORT ORDINAL="212" NAME="??0?$CSmartPtrToNonClass@VLang@@@@QAE@H@Z" PURGE="4" COMMENT="" />
    <EXPORT ORDINAL="213" NAME="??0?$CSmartPtrToNonClass@VLinearGradientBrush@@@@QAE@H@Z" PURGE="4" COMMENT="" />
    <EXPORT ORDINAL="214" NAME="??0?$CSmartPtrToNonClass@VLinearGradientBrush@@@@QAE@PAUSmartPtrDataPublic@@@Z" PURGE="4" COMMENT="" />
    <EXPORT ORDINAL="215" NAME="??0?$CSmartPtrToNonClass@VLinkTarget@@@@QAE@AAV0@@Z" PURGE="4" COMMENT="" />
    <EXPORT ORDINAL="216" NAME="??0?$CSmartPtrToNonClass@VLinkTarget@@@@QAE@H@Z" PURGE="4" COMMENT="" />
    <EXPORT ORDINAL="217" NAME="??0?$CSmartPtrToNonClass@VListItemStructure@@@@QAE@AAV0@@Z" PURGE="4" COMMENT="" />
    <EXPORT ORDINAL="218" NAME="??0?$CSmartPtrToNonClass@VListItemStructure@@@@QAE@H@Z" PURGE="4" COMMENT="" />
    <EXPORT ORDINAL="219" NAME="??0?$CSmartPtrToNonClass@VListItemStructure@@@@QAE@PAUSmartPtrDataPublic@@@Z" PURGE="4" COMMENT="" />
    <EXPORT ORDINAL="220" NAME="??0?$CSmartPtrToNonClass@VListStructure@@@@QAE@H@Z" PURGE="4" COMMENT="" />
    <EXPORT ORDINAL="221" NAME="??0?$CSmartPtrToNonClass@VListStructure@@@@QAE@PAUSmartPtrDataPublic@@@Z" PURGE="4" COMMENT="" />
    <EXPORT ORDINAL="222" NAME="??0?$CSmartPtrToNonClass@VMetroData@@@@QAE@AAV0@@Z" PURGE="4" COMMENT="" />
    <EXPORT ORDINAL="223" NAME="??0?$CSmartPtrToNonClass@VMetroData@@@@QAE@H@Z" PURGE="4" COMMENT="" />
    <EXPORT ORDINAL="224" NAME="??0?$CSmartPtrToNonClass@VMetroPart@@@@QAE@AAV0@@Z" PURGE="4" COMMENT="" />
    <EXPORT ORDINAL="225" NAME="??0?$CSmartPtrToNonClass@VMetroPart@@@@QAE@H@Z" PURGE="4" COMMENT="" />
    <EXPORT ORDINAL="226" NAME="??0?$CSmartPtrToNonClass@VMetroPart@@@@QAE@PAUSmartPtrDataPublic@@@Z" PURGE="4" COMMENT="" />
    <EXPORT ORDINAL="227" NAME="??0?$CSmartPtrToNonClass@VMetroReader@@@@QAE@AAV0@@Z" PURGE="4" COMMENT="" />
    <EXPORT ORDINAL="228" NAME="??0?$CSmartPtrToNonClass@VMetroReader@@@@QAE@H@Z" PURGE="4" COMMENT="" />
    <EXPORT ORDINAL="229" NAME="??0?$CSmartPtrToNonClass@VMetroReader@@@@QAE@PAUSmartPtrDataPublic@@@Z" PURGE="4" COMMENT="" />
    <EXPORT ORDINAL="230" NAME="??0?$CSmartPtrToNonClass@VMetroWriter@@@@QAE@AAV0@@Z" PURGE="4" COMMENT="" />
    <EXPORT ORDINAL="231" NAME="??0?$CSmartPtrToNonClass@VMetroWriter@@@@QAE@H@Z" PURGE="4" COMMENT="" />
    <EXPORT ORDINAL="232" NAME="??0?$CSmartPtrToNonClass@VMetroWriter@@@@QAE@PAUSmartPtrDataPublic@@@Z" PURGE="4" COMMENT="" />
    <EXPORT ORDINAL="233" NAME="??0?$CSmartPtrToNonClass@VNamedElement@@@@QAE@AAV0@@Z" PURGE="4" COMMENT="" />
    <EXPORT ORDINAL="234" NAME="??0?$CSmartPtrToNonClass@VNamedElement@@@@QAE@H@Z" PURGE="4" COMMENT="" />
    <EXPORT ORDINAL="235" NAME="??0?$CSmartPtrToNonClass@VOutlineEntry@@@@QAE@AAV0@@Z" PURGE="4" COMMENT="" />
    <EXPORT ORDINAL="236" NAME="??0?$CSmartPtrToNonClass@VOutlineEntry@@@@QAE@H@Z" PURGE="4" COMMENT="" />
    <EXPORT ORDINAL="237" NAME="??0?$CSmartPtrToNonClass@VPackURI@@@@QAE@AAV0@@Z" PURGE="4" COMMENT="" />
    <EXPORT ORDINAL="238" NAME="??0?$CSmartPtrToNonClass@VPackURI@@@@QAE@H@Z" PURGE="4" COMMENT="" />
    <EXPORT ORDINAL="239" NAME="??0?$CSmartPtrToNonClass@VPackURI@@@@QAE@PAUSmartPtrDataPublic@@@Z" PURGE="4" COMMENT="" />
    <EXPORT ORDINAL="240" NAME="??0?$CSmartPtrToNonClass@VPageContent@@@@QAE@AAV0@@Z" PURGE="4" COMMENT="" />
    <EXPORT ORDINAL="241" NAME="??0?$CSmartPtrToNonClass@VPageContent@@@@QAE@H@Z" PURGE="4" COMMENT="" />
    <EXPORT ORDINAL="242" NAME="??0?$CSmartPtrToNonClass@VPageElement@@@@QAE@AAV0@@Z" PURGE="4" COMMENT="" />
    <EXPORT ORDINAL="243" NAME="??0?$CSmartPtrToNonClass@VPageElement@@@@QAE@H@Z" PURGE="4" COMMENT="" />
    <EXPORT ORDINAL="244" NAME="??0?$CSmartPtrToNonClass@VPageElement@@@@QAE@PAUSmartPtrDataPublic@@@Z" PURGE="4" COMMENT="" />
    <EXPORT ORDINAL="245" NAME="??0?$CSmartPtrToNonClass@VParagraphStructure@@@@QAE@H@Z" PURGE="4" COMMENT="" />
    <EXPORT ORDINAL="246" NAME="??0?$CSmartPtrToNonClass@VParagraphStructure@@@@QAE@PAUSmartPtrDataPublic@@@Z" PURGE="4" COMMENT="" />
    <EXPORT ORDINAL="247" NAME="??0?$CSmartPtrToNonClass@VPartName@@@@QAE@AAV0@@Z" PURGE="4" COMMENT="" />
    <EXPORT ORDINAL="248" NAME="??0?$CSmartPtrToNonClass@VPartName@@@@QAE@H@Z" PURGE="4" COMMENT="" />
    <EXPORT ORDINAL="249" NAME="??0?$CSmartPtrToNonClass@VPath@@@@QAE@AAV0@@Z" PURGE="4" COMMENT="" />
    <EXPORT ORDINAL="250" NAME="??0?$CSmartPtrToNonClass@VPath@@@@QAE@H@Z" PURGE="4" COMMENT="" />
    <EXPORT ORDINAL="251" NAME="??0?$CSmartPtrToNonClass@VPath@@@@QAE@PAUSmartPtrDataPublic@@@Z" PURGE="4" COMMENT="" />
    <EXPORT ORDINAL="252" NAME="??0?$CSmartPtrToNonClass@VPathFigure@@@@QAE@AAV0@@Z" PURGE="4" COMMENT="" />
    <EXPORT ORDINAL="253" NAME="??0?$CSmartPtrToNonClass@VPathFigure@@@@QAE@H@Z" PURGE="4" COMMENT="" />
    <EXPORT ORDINAL="254" NAME="??0?$CSmartPtrToNonClass@VPathFigure@@@@QAE@PAUSmartPtrDataPublic@@@Z" PURGE="4" COMMENT="" />
    <EXPORT ORDINAL="255" NAME="??0?$CSmartPtrToNonClass@VPathGeometry@@@@QAE@AAV0@@Z" PURGE="4" COMMENT="" />
    <EXPORT ORDINAL="256" NAME="??0?$CSmartPtrToNonClass@VPathGeometry@@@@QAE@H@Z" PURGE="4" COMMENT="" />
    <EXPORT ORDINAL="257" NAME="??0?$CSmartPtrToNonClass@VPathGeometry@@@@QAE@PAUSmartPtrDataPublic@@@Z" PURGE="4" COMMENT="" />
    <EXPORT ORDINAL="258" NAME="??0?$CSmartPtrToNonClass@VPolyBezierSegment@@@@QAE@H@Z" PURGE="4" COMMENT="" />
    <EXPORT ORDINAL="259" NAME="??0?$CSmartPtrToNonClass@VPolyBezierSegment@@@@QAE@PAUSmartPtrDataPublic@@@Z" PURGE="4" COMMENT="" />
    <EXPORT ORDINAL="260" NAME="??0?$CSmartPtrToNonClass@VPolyLineSegment@@@@QAE@H@Z" PURGE="4" COMMENT="" />
    <EXPORT ORDINAL="261" NAME="??0?$CSmartPtrToNonClass@VPolyLineSegment@@@@QAE@PAUSmartPtrDataPublic@@@Z" PURGE="4" COMMENT="" />
    <EXPORT ORDINAL="262" NAME="??0?$CSmartPtrToNonClass@VPolyQuadraticBezierSegment@@@@QAE@H@Z" PURGE="4" COMMENT="" />
    <EXPORT ORDINAL="263" NAME="??0?$CSmartPtrToNonClass@VPolyQuadraticBezierSegment@@@@QAE@PAUSmartPtrDataPublic@@@Z" PURGE="4" COMMENT="" />
    <EXPORT ORDINAL="264" NAME="??0?$CSmartPtrToNonClass@VPrintTicket@@@@QAE@H@Z" PURGE="4" COMMENT="" />
    <EXPORT ORDINAL="265" NAME="??0?$CSmartPtrToNonClass@VRadialGradientBrush@@@@QAE@H@Z" PURGE="4" COMMENT="" />
    <EXPORT ORDINAL="266" NAME="??0?$CSmartPtrToNonClass@VReachPackage@@@@QAE@AAV0@@Z" PURGE="4" COMMENT="" />
    <EXPORT ORDINAL="267" NAME="??0?$CSmartPtrToNonClass@VReachPackage@@@@QAE@H@Z" PURGE="4" COMMENT="" />
    <EXPORT ORDINAL="268" NAME="??0?$CSmartPtrToNonClass@VRelationship@@@@QAE@AAV0@@Z" PURGE="4" COMMENT="" />
    <EXPORT ORDINAL="269" NAME="??0?$CSmartPtrToNonClass@VRelationship@@@@QAE@H@Z" PURGE="4" COMMENT="" />
    <EXPORT ORDINAL="270" NAME="??0?$CSmartPtrToNonClass@VRelationshipID@@@@QAE@AAV0@@Z" PURGE="4" COMMENT="" />
    <EXPORT ORDINAL="271" NAME="??0?$CSmartPtrToNonClass@VRelationshipID@@@@QAE@H@Z" PURGE="4" COMMENT="" />
    <EXPORT ORDINAL="272" NAME="??0?$CSmartPtrToNonClass@VRelationships@@@@QAE@AAV0@@Z" PURGE="4" COMMENT="" />
    <EXPORT ORDINAL="273" NAME="??0?$CSmartPtrToNonClass@VRelationships@@@@QAE@H@Z" PURGE="4" COMMENT="" />
    <EXPORT ORDINAL="274" NAME="??0?$CSmartPtrToNonClass@VST_Boolean@@@@QAE@AAV0@@Z" PURGE="4" COMMENT="" />
    <EXPORT ORDINAL="275" NAME="??0?$CSmartPtrToNonClass@VST_Boolean@@@@QAE@H@Z" PURGE="4" COMMENT="" />
    <EXPORT ORDINAL="276" NAME="??0?$CSmartPtrToNonClass@VST_CaretStop@@@@QAE@AAV0@@Z" PURGE="4" COMMENT="" />
    <EXPORT ORDINAL="277" NAME="??0?$CSmartPtrToNonClass@VST_CaretStop@@@@QAE@H@Z" PURGE="4" COMMENT="" />
    <EXPORT ORDINAL="278" NAME="??0?$CSmartPtrToNonClass@VST_EvenArray@@@@QAE@AAV0@@Z" PURGE="4" COMMENT="" />
    <EXPORT ORDINAL="279" NAME="??0?$CSmartPtrToNonClass@VST_EvenArray@@@@QAE@H@Z" PURGE="4" COMMENT="" />
    <EXPORT ORDINAL="280" NAME="??0?$CSmartPtrToNonClass@VST_GEZero@@@@QAE@AAV0@@Z" PURGE="4" COMMENT="" />
    <EXPORT ORDINAL="281" NAME="??0?$CSmartPtrToNonClass@VST_GEZero@@@@QAE@H@Z" PURGE="4" COMMENT="" />
    <EXPORT ORDINAL="282" NAME="??0?$CSmartPtrToNonClass@VST_Indices@@@@QAE@AAV0@@Z" PURGE="4" COMMENT="" />
    <EXPORT ORDINAL="283" NAME="??0?$CSmartPtrToNonClass@VST_Indices@@@@QAE@H@Z" PURGE="4" COMMENT="" />
    <EXPORT ORDINAL="284" NAME="??0?$CSmartPtrToNonClass@VST_IntGEOne@@@@QAE@AAV0@@Z" PURGE="4" COMMENT="" />
    <EXPORT ORDINAL="285" NAME="??0?$CSmartPtrToNonClass@VST_IntGEOne@@@@QAE@H@Z" PURGE="4" COMMENT="" />
    <EXPORT ORDINAL="286" NAME="??0?$CSmartPtrToNonClass@VST_Name@@@@QAE@AAV0@@Z" PURGE="4" COMMENT="" />
    <EXPORT ORDINAL="287" NAME="??0?$CSmartPtrToNonClass@VST_Name@@@@QAE@H@Z" PURGE="4" COMMENT="" />
    <EXPORT ORDINAL="288" NAME="??0?$CSmartPtrToNonClass@VST_RscRefColor@@@@QAE@AAV0@@Z" PURGE="4" COMMENT="" />
    <EXPORT ORDINAL="289" NAME="??0?$CSmartPtrToNonClass@VST_RscRefColor@@@@QAE@H@Z" PURGE="4" COMMENT="" />
    <EXPORT ORDINAL="290" NAME="??0?$CSmartPtrToNonClass@VST_RscRefMatrix@@@@QAE@AAV0@@Z" PURGE="4" COMMENT="" />
    <EXPORT ORDINAL="291" NAME="??0?$CSmartPtrToNonClass@VST_RscRefMatrix@@@@QAE@H@Z" PURGE="4" COMMENT="" />
    <EXPORT ORDINAL="292" NAME="??0?$CSmartPtrToNonClass@VST_TableSpan@@@@QAE@AAV0@@Z" PURGE="4" COMMENT="" />
    <EXPORT ORDINAL="293" NAME="??0?$CSmartPtrToNonClass@VST_TableSpan@@@@QAE@H@Z" PURGE="4" COMMENT="" />
    <EXPORT ORDINAL="294" NAME="??0?$CSmartPtrToNonClass@VST_UnicodeString@@@@QAE@AAV0@@Z" PURGE="4" COMMENT="" />
    <EXPORT ORDINAL="295" NAME="??0?$CSmartPtrToNonClass@VST_UnicodeString@@@@QAE@H@Z" PURGE="4" COMMENT="" />
    <EXPORT ORDINAL="296" NAME="??0?$CSmartPtrToNonClass@VST_ZeroOne@@@@QAE@AAV0@@Z" PURGE="4" COMMENT="" />
    <EXPORT ORDINAL="297" NAME="??0?$CSmartPtrToNonClass@VST_ZeroOne@@@@QAE@H@Z" PURGE="4" COMMENT="" />
    <EXPORT ORDINAL="298" NAME="??0?$CSmartPtrToNonClass@VSectionStructure@@@@QAE@H@Z" PURGE="4" COMMENT="" />
    <EXPORT ORDINAL="299" NAME="??0?$CSmartPtrToNonClass@VSectionStructure@@@@QAE@PAUSmartPtrDataPublic@@@Z" PURGE="4" COMMENT="" />
    <EXPORT ORDINAL="300" NAME="??0?$CSmartPtrToNonClass@VSegment@@@@QAE@AAV0@@Z" PURGE="4" COMMENT="" />
    <EXPORT ORDINAL="301" NAME="??0?$CSmartPtrToNonClass@VSegment@@@@QAE@H@Z" PURGE="4" COMMENT="" />
    <EXPORT ORDINAL="302" NAME="??0?$CSmartPtrToNonClass@VSegment@@@@QAE@PAUSmartPtrDataPublic@@@Z" PURGE="4" COMMENT="" />
    <EXPORT ORDINAL="303" NAME="??0?$CSmartPtrToNonClass@VSolidColorBrush@@@@QAE@AAV0@@Z" PURGE="4" COMMENT="" />
    <EXPORT ORDINAL="304" NAME="??0?$CSmartPtrToNonClass@VSolidColorBrush@@@@QAE@H@Z" PURGE="4" COMMENT="" />
    <EXPORT ORDINAL="305" NAME="??0?$CSmartPtrToNonClass@VSolidColorBrush@@@@QAE@PAUSmartPtrDataPublic@@@Z" PURGE="4" COMMENT="" />
    <EXPORT ORDINAL="306" NAME="??0?$CSmartPtrToNonClass@VStory@@@@QAE@AAV0@@Z" PURGE="4" COMMENT="" />
    <EXPORT ORDINAL="307" NAME="??0?$CSmartPtrToNonClass@VStory@@@@QAE@H@Z" PURGE="4" COMMENT="" />
    <EXPORT ORDINAL="308" NAME="??0?$CSmartPtrToNonClass@VStoryFragment@@@@QAE@AAV0@@Z" PURGE="4" COMMENT="" />
    <EXPORT ORDINAL="309" NAME="??0?$CSmartPtrToNonClass@VStoryFragment@@@@QAE@H@Z" PURGE="4" COMMENT="" />
    <EXPORT ORDINAL="310" NAME="??0?$CSmartPtrToNonClass@VStoryFragmentReference@@@@QAE@AAV0@@Z" PURGE="4" COMMENT="" />
    <EXPORT ORDINAL="311" NAME="??0?$CSmartPtrToNonClass@VStoryFragmentReference@@@@QAE@H@Z" PURGE="4" COMMENT="" />
    <EXPORT ORDINAL="312" NAME="??0?$CSmartPtrToNonClass@VStoryFragments@@@@QAE@AAV0@@Z" PURGE="4" COMMENT="" />
    <EXPORT ORDINAL="313" NAME="??0?$CSmartPtrToNonClass@VStoryFragments@@@@QAE@H@Z" PURGE="4" COMMENT="" />
    <EXPORT ORDINAL="314" NAME="??0?$CSmartPtrToNonClass@VStructure@@@@QAE@AAV0@@Z" PURGE="4" COMMENT="" />
    <EXPORT ORDINAL="315" NAME="??0?$CSmartPtrToNonClass@VStructure@@@@QAE@H@Z" PURGE="4" COMMENT="" />
    <EXPORT ORDINAL="316" NAME="??0?$CSmartPtrToNonClass@VStructure@@@@QAE@PAUSmartPtrDataPublic@@@Z" PURGE="4" COMMENT="" />
    <EXPORT ORDINAL="317" NAME="??0?$CSmartPtrToNonClass@VStructureElement@@@@QAE@AAV0@@Z" PURGE="4" COMMENT="" />
    <EXPORT ORDINAL="318" NAME="??0?$CSmartPtrToNonClass@VStructureElement@@@@QAE@H@Z" PURGE="4" COMMENT="" />
    <EXPORT ORDINAL="319" NAME="??0?$CSmartPtrToNonClass@VStructureElement@@@@QAE@PAUSmartPtrDataPublic@@@Z" PURGE="4" COMMENT="" />
    <EXPORT ORDINAL="320" NAME="??0?$CSmartPtrToNonClass@VTableCellStructure@@@@QAE@AAV0@@Z" PURGE="4" COMMENT="" />
    <EXPORT ORDINAL="321" NAME="??0?$CSmartPtrToNonClass@VTableCellStructure@@@@QAE@H@Z" PURGE="4" COMMENT="" />
    <EXPORT ORDINAL="322" NAME="??0?$CSmartPtrToNonClass@VTableCellStructure@@@@QAE@PAUSmartPtrDataPublic@@@Z" PURGE="4" COMMENT="" />
    <EXPORT ORDINAL="323" NAME="??0?$CSmartPtrToNonClass@VTableRowGroupStructure@@@@QAE@AAV0@@Z" PURGE="4" COMMENT="" />
    <EXPORT ORDINAL="324" NAME="??0?$CSmartPtrToNonClass@VTableRowGroupStructure@@@@QAE@H@Z" PURGE="4" COMMENT="" />
    <EXPORT ORDINAL="325" NAME="??0?$CSmartPtrToNonClass@VTableRowGroupStructure@@@@QAE@PAUSmartPtrDataPublic@@@Z" PURGE="4" COMMENT="" />
    <EXPORT ORDINAL="326" NAME="??0?$CSmartPtrToNonClass@VTableRowStructure@@@@QAE@AAV0@@Z" PURGE="4" COMMENT="" />
    <EXPORT ORDINAL="327" NAME="??0?$CSmartPtrToNonClass@VTableRowStructure@@@@QAE@H@Z" PURGE="4" COMMENT="" />
    <EXPORT ORDINAL="328" NAME="??0?$CSmartPtrToNonClass@VTableRowStructure@@@@QAE@PAUSmartPtrDataPublic@@@Z" PURGE="4" COMMENT="" />
    <EXPORT ORDINAL="329" NAME="??0?$CSmartPtrToNonClass@VTableStructure@@@@QAE@H@Z" PURGE="4" COMMENT="" />
    <EXPORT ORDINAL="330" NAME="??0?$CSmartPtrToNonClass@VTableStructure@@@@QAE@PAUSmartPtrDataPublic@@@Z" PURGE="4" COMMENT="" />
    <EXPORT ORDINAL="331" NAME="??0?$CSmartPtrToNonClass@VThumbnail@@@@QAE@H@Z" PURGE="4" COMMENT="" />
    <EXPORT ORDINAL="332" NAME="??0?$CSmartPtrToNonClass@VVisualBrush@@@@QAE@AAV0@@Z" PURGE="4" COMMENT="" />
    <EXPORT ORDINAL="333" NAME="??0?$CSmartPtrToNonClass@VVisualBrush@@@@QAE@H@Z" PURGE="4" COMMENT="" />
    <EXPORT ORDINAL="334" NAME="??0?$CSmartPtrToNonClass@VX_Key@@@@QAE@AAV0@@Z" PURGE="4" COMMENT="" />
    <EXPORT ORDINAL="335" NAME="??0?$CSmartPtrToNonClass@VX_Key@@@@QAE@H@Z" PURGE="4" COMMENT="" />
    <EXPORT ORDINAL="336" NAME="??0?$CSmartPtrToNonClass@VZipReader@@@@QAE@H@Z" PURGE="4" COMMENT="" />
    <EXPORT ORDINAL="337" NAME="??0?$CSmartPtrToNonClass@VZipWriter@@@@QAE@H@Z" PURGE="4" COMMENT="" />
    <EXPORT ORDINAL="338" NAME="??1?$CSmartPtr@VAnnotation@@@@UAE@XZ" PURGE="0" COMMENT="" />
    <EXPORT ORDINAL="339" NAME="??1?$CSmartPtr@VArcSegment@@@@UAE@XZ" PURGE="0" COMMENT="" />
    <EXPORT ORDINAL="340" NAME="??1?$CSmartPtr@VBrush@@@@UAE@XZ" PURGE="0" COMMENT="" />
    <EXPORT ORDINAL="341" NAME="??1?$CSmartPtr@VCAImage@@@@QAE@XZ" PURGE="0" COMMENT="" />
    <EXPORT ORDINAL="342" NAME="??1?$CSmartPtr@VCanvas@@@@UAE@XZ" PURGE="0" COMMENT="" />
    <EXPORT ORDINAL="343" NAME="??1?$CSmartPtr@VContentTypeLookup@@@@UAE@XZ" PURGE="0" COMMENT="" />
    <EXPORT ORDINAL="344" NAME="??1?$CSmartPtr@VContentTypeParser@@@@UAE@XZ" PURGE="0" COMMENT="" />
    <EXPORT ORDINAL="345" NAME="??1?$CSmartPtr@VDigitalSignature@@@@UAE@XZ" PURGE="0" COMMENT="" />
    <EXPORT ORDINAL="346" NAME="??1?$CSmartPtr@VDocumentOutline@@@@UAE@XZ" PURGE="0" COMMENT="" />
    <EXPORT ORDINAL="347" NAME="??1?$CSmartPtr@VDocumentStructure@@@@UAE@XZ" PURGE="0" COMMENT="" />
    <EXPORT ORDINAL="348" NAME="??1?$CSmartPtr@VFigureStructure@@@@UAE@XZ" PURGE="0" COMMENT="" />
    <EXPORT ORDINAL="349" NAME="??1?$CSmartPtr@VFixedDocument@@@@UAE@XZ" PURGE="0" COMMENT="" />
    <EXPORT ORDINAL="350" NAME="??1?$CSmartPtr@VFixedDocumentParser@@@@UAE@XZ" PURGE="0" COMMENT="" />
    <EXPORT ORDINAL="351" NAME="??1?$CSmartPtr@VFixedDocumentSequence@@@@UAE@XZ" PURGE="0" COMMENT="" />
    <EXPORT ORDINAL="352" NAME="??1?$CSmartPtr@VFixedPage@@@@UAE@XZ" PURGE="0" COMMENT="" />
    <EXPORT ORDINAL="353" NAME="??1?$CSmartPtr@VFont@@@@UAE@XZ" PURGE="0" COMMENT="" />
    <EXPORT ORDINAL="354" NAME="??1?$CSmartPtr@VGlyphs@@@@UAE@XZ" PURGE="0" COMMENT="" />
    <EXPORT ORDINAL="355" NAME="??1?$CSmartPtr@VGradientBrush@@@@UAE@XZ" PURGE="0" COMMENT="" />
    <EXPORT ORDINAL="356" NAME="??1?$CSmartPtr@VGradientStop@@@@UAE@XZ" PURGE="0" COMMENT="" />
    <EXPORT ORDINAL="357" NAME="??1?$CSmartPtr@VImage@@@@UAE@XZ" PURGE="0" COMMENT="" />
    <EXPORT ORDINAL="358" NAME="??1?$CSmartPtr@VImageBrush@@@@UAE@XZ" PURGE="0" COMMENT="" />
    <EXPORT ORDINAL="359" NAME="??1?$CSmartPtr@VLang@@@@UAE@XZ" PURGE="0" COMMENT="" />
    <EXPORT ORDINAL="360" NAME="??1?$CSmartPtr@VLinearGradientBrush@@@@UAE@XZ" PURGE="0" COMMENT="" />
    <EXPORT ORDINAL="361" NAME="??1?$CSmartPtr@VLinkTarget@@@@UAE@XZ" PURGE="0" COMMENT="" />
    <EXPORT ORDINAL="362" NAME="??1?$CSmartPtr@VListItemStructure@@@@UAE@XZ" PURGE="0" COMMENT="" />
    <EXPORT ORDINAL="363" NAME="??1?$CSmartPtr@VListStructure@@@@UAE@XZ" PURGE="0" COMMENT="" />
    <EXPORT ORDINAL="364" NAME="??1?$CSmartPtr@VMetroData@@@@UAE@XZ" PURGE="0" COMMENT="" />
    <EXPORT ORDINAL="365" NAME="??1?$CSmartPtr@VMetroPart@@@@UAE@XZ" PURGE="0" COMMENT="" />
    <EXPORT ORDINAL="366" NAME="??1?$CSmartPtr@VMetroReader@@@@UAE@XZ" PURGE="0" COMMENT="" />
    <EXPORT ORDINAL="367" NAME="??1?$CSmartPtr@VMetroWriter@@@@UAE@XZ" PURGE="0" COMMENT="" />
    <EXPORT ORDINAL="368" NAME="??1?$CSmartPtr@VNamedElement@@@@UAE@XZ" PURGE="0" COMMENT="" />
    <EXPORT ORDINAL="369" NAME="??1?$CSmartPtr@VOutlineEntry@@@@UAE@XZ" PURGE="0" COMMENT="" />
    <EXPORT ORDINAL="370" NAME="??1?$CSmartPtr@VPackURI@@@@UAE@XZ" PURGE="0" COMMENT="" />
    <EXPORT ORDINAL="371" NAME="??1?$CSmartPtr@VPageContent@@@@UAE@XZ" PURGE="0" COMMENT="" />
    <EXPORT ORDINAL="372" NAME="??1?$CSmartPtr@VPageElement@@@@UAE@XZ" PURGE="0" COMMENT="" />
    <EXPORT ORDINAL="373" NAME="??1?$CSmartPtr@VParagraphStructure@@@@UAE@XZ" PURGE="0" COMMENT="" />
    <EXPORT ORDINAL="374" NAME="??1?$CSmartPtr@VPartName@@@@UAE@XZ" PURGE="0" COMMENT="" />
    <EXPORT ORDINAL="375" NAME="??1?$CSmartPtr@VPath@@@@UAE@XZ" PURGE="0" COMMENT="" />
    <EXPORT ORDINAL="376" NAME="??1?$CSmartPtr@VPathFigure@@@@UAE@XZ" PURGE="0" COMMENT="" />
    <EXPORT ORDINAL="377" NAME="??1?$CSmartPtr@VPathGeometry@@@@UAE@XZ" PURGE="0" COMMENT="" />
    <EXPORT ORDINAL="378" NAME="??1?$CSmartPtr@VPolyBezierSegment@@@@UAE@XZ" PURGE="0" COMMENT="" />
    <EXPORT ORDINAL="379" NAME="??1?$CSmartPtr@VPolyLineSegment@@@@UAE@XZ" PURGE="0" COMMENT="" />
    <EXPORT ORDINAL="380" NAME="??1?$CSmartPtr@VPolyQuadraticBezierSegment@@@@UAE@XZ" PURGE="0" COMMENT="" />
    <EXPORT ORDINAL="381" NAME="??1?$CSmartPtr@VPrintTicket@@@@UAE@XZ" PURGE="0" COMMENT="" />
    <EXPORT ORDINAL="382" NAME="??1?$CSmartPtr@VRadialGradientBrush@@@@UAE@XZ" PURGE="0" COMMENT="" />
    <EXPORT ORDINAL="383" NAME="??1?$CSmartPtr@VReachPackage@@@@UAE@XZ" PURGE="0" COMMENT="" />
    <EXPORT ORDINAL="384" NAME="??1?$CSmartPtr@VRelationship@@@@UAE@XZ" PURGE="0" COMMENT="" />
    <EXPORT ORDINAL="385" NAME="??1?$CSmartPtr@VRelationshipID@@@@UAE@XZ" PURGE="0" COMMENT="" />
    <EXPORT ORDINAL="386" NAME="??1?$CSmartPtr@VRelationships@@@@UAE@XZ" PURGE="0" COMMENT="" />
    <EXPORT ORDINAL="387" NAME="??1?$CSmartPtr@VST_Boolean@@@@UAE@XZ" PURGE="0" COMMENT="" />
    <EXPORT ORDINAL="388" NAME="??1?$CSmartPtr@VST_CaretStop@@@@UAE@XZ" PURGE="0" COMMENT="" />
    <EXPORT ORDINAL="389" NAME="??1?$CSmartPtr@VST_EvenArray@@@@UAE@XZ" PURGE="0" COMMENT="" />
    <EXPORT ORDINAL="390" NAME="??1?$CSmartPtr@VST_GEZero@@@@UAE@XZ" PURGE="0" COMMENT="" />
    <EXPORT ORDINAL="391" NAME="??1?$CSmartPtr@VST_Indices@@@@UAE@XZ" PURGE="0" COMMENT="" />
    <EXPORT ORDINAL="392" NAME="??1?$CSmartPtr@VST_IntGEOne@@@@UAE@XZ" PURGE="0" COMMENT="" />
    <EXPORT ORDINAL="393" NAME="??1?$CSmartPtr@VST_Name@@@@UAE@XZ" PURGE="0" COMMENT="" />
    <EXPORT ORDINAL="394" NAME="??1?$CSmartPtr@VST_RscRefColor@@@@UAE@XZ" PURGE="0" COMMENT="" />
    <EXPORT ORDINAL="395" NAME="??1?$CSmartPtr@VST_RscRefMatrix@@@@UAE@XZ" PURGE="0" COMMENT="" />
    <EXPORT ORDINAL="396" NAME="??1?$CSmartPtr@VST_TableSpan@@@@UAE@XZ" PURGE="0" COMMENT="" />
    <EXPORT ORDINAL="397" NAME="??1?$CSmartPtr@VST_UnicodeString@@@@UAE@XZ" PURGE="0" COMMENT="" />
    <EXPORT ORDINAL="398" NAME="??1?$CSmartPtr@VST_ZeroOne@@@@UAE@XZ" PURGE="0" COMMENT="" />
    <EXPORT ORDINAL="399" NAME="??1?$CSmartPtr@VSectionStructure@@@@UAE@XZ" PURGE="0" COMMENT="" />
    <EXPORT ORDINAL="400" NAME="??1?$CSmartPtr@VSegment@@@@UAE@XZ" PURGE="0" COMMENT="" />
    <EXPORT ORDINAL="401" NAME="??1?$CSmartPtr@VSolidColorBrush@@@@UAE@XZ" PURGE="0" COMMENT="" />
    <EXPORT ORDINAL="402" NAME="??1?$CSmartPtr@VStory@@@@UAE@XZ" PURGE="0" COMMENT="" />
    <EXPORT ORDINAL="403" NAME="??1?$CSmartPtr@VStoryFragment@@@@UAE@XZ" PURGE="0" COMMENT="" />
    <EXPORT ORDINAL="404" NAME="??1?$CSmartPtr@VStoryFragmentReference@@@@UAE@XZ" PURGE="0" COMMENT="" />
    <EXPORT ORDINAL="405" NAME="??1?$CSmartPtr@VStoryFragments@@@@UAE@XZ" PURGE="0" COMMENT="" />
    <EXPORT ORDINAL="406" NAME="??1?$CSmartPtr@VStructure@@@@UAE@XZ" PURGE="0" COMMENT="" />
    <EXPORT ORDINAL="407" NAME="??1?$CSmartPtr@VStructureElement@@@@UAE@XZ" PURGE="0" COMMENT="" />
    <EXPORT ORDINAL="408" NAME="??1?$CSmartPtr@VTableCellStructure@@@@UAE@XZ" PURGE="0" COMMENT="" />
    <EXPORT ORDINAL="409" NAME="??1?$CSmartPtr@VTableRowGroupStructure@@@@UAE@XZ" PURGE="0" COMMENT="" />
    <EXPORT ORDINAL="410" NAME="??1?$CSmartPtr@VTableRowStructure@@@@UAE@XZ" PURGE="0" COMMENT="" />
    <EXPORT ORDINAL="411" NAME="??1?$CSmartPtr@VTableStructure@@@@UAE@XZ" PURGE="0" COMMENT="" />
    <EXPORT ORDINAL="412" NAME="??1?$CSmartPtr@VThumbnail@@@@UAE@XZ" PURGE="0" COMMENT="" />
    <EXPORT ORDINAL="413" NAME="??1?$CSmartPtr@VVisualBrush@@@@UAE@XZ" PURGE="0" COMMENT="" />
    <EXPORT ORDINAL="414" NAME="??1?$CSmartPtr@VX_Key@@@@UAE@XZ" PURGE="0" COMMENT="" />
    <EXPORT ORDINAL="415" NAME="??1?$CSmartPtr@VZipReader@@@@UAE@XZ" PURGE="0" COMMENT="" />
    <EXPORT ORDINAL="416" NAME="??1?$CSmartPtr@VZipWriter@@@@UAE@XZ" PURGE="0" COMMENT="" />
    <EXPORT ORDINAL="417" NAME="??1?$CSmartPtrToNonClass@D@@QAE@XZ" PURGE="0" COMMENT="" />
    <EXPORT ORDINAL="418" NAME="??1?$CSmartPtrToNonClass@VAnnotation@@@@UAE@XZ" PURGE="0" COMMENT="" />
    <EXPORT ORDINAL="419" NAME="??1?$CSmartPtrToNonClass@VArcSegment@@@@UAE@XZ" PURGE="0" COMMENT="" />
    <EXPORT ORDINAL="420" NAME="??1?$CSmartPtrToNonClass@VBrush@@@@UAE@XZ" PURGE="0" COMMENT="" />
    <EXPORT ORDINAL="421" NAME="??1?$CSmartPtrToNonClass@VCAImage@@@@QAE@XZ" PURGE="0" COMMENT="" />
    <EXPORT ORDINAL="422" NAME="??1?$CSmartPtrToNonClass@VCanvas@@@@UAE@XZ" PURGE="0" COMMENT="" />
    <EXPORT ORDINAL="423" NAME="??1?$CSmartPtrToNonClass@VContentTypeLookup@@@@UAE@XZ" PURGE="0" COMMENT="" />
    <EXPORT ORDINAL="424" NAME="??1?$CSmartPtrToNonClass@VContentTypeParser@@@@UAE@XZ" PURGE="0" COMMENT="" />
    <EXPORT ORDINAL="425" NAME="??1?$CSmartPtrToNonClass@VDigitalSignature@@@@UAE@XZ" PURGE="0" COMMENT="" />
    <EXPORT ORDINAL="426" NAME="??1?$CSmartPtrToNonClass@VDocumentOutline@@@@UAE@XZ" PURGE="0" COMMENT="" />
    <EXPORT ORDINAL="427" NAME="??1?$CSmartPtrToNonClass@VDocumentStructure@@@@UAE@XZ" PURGE="0" COMMENT="" />
    <EXPORT ORDINAL="428" NAME="??1?$CSmartPtrToNonClass@VFigureStructure@@@@UAE@XZ" PURGE="0" COMMENT="" />
    <EXPORT ORDINAL="429" NAME="??1?$CSmartPtrToNonClass@VFixedDocument@@@@UAE@XZ" PURGE="0" COMMENT="" />
    <EXPORT ORDINAL="430" NAME="??1?$CSmartPtrToNonClass@VFixedDocumentParser@@@@UAE@XZ" PURGE="0" COMMENT="" />
    <EXPORT ORDINAL="431" NAME="??1?$CSmartPtrToNonClass@VFixedDocumentSequence@@@@UAE@XZ" PURGE="0" COMMENT="" />
    <EXPORT ORDINAL="432" NAME="??1?$CSmartPtrToNonClass@VFixedPage@@@@UAE@XZ" PURGE="0" COMMENT="" />
    <EXPORT ORDINAL="433" NAME="??1?$CSmartPtrToNonClass@VFont@@@@UAE@XZ" PURGE="0" COMMENT="" />
    <EXPORT ORDINAL="434" NAME="??1?$CSmartPtrToNonClass@VGlyphs@@@@UAE@XZ" PURGE="0" COMMENT="" />
    <EXPORT ORDINAL="435" NAME="??1?$CSmartPtrToNonClass@VGradientBrush@@@@UAE@XZ" PURGE="0" COMMENT="" />
    <EXPORT ORDINAL="436" NAME="??1?$CSmartPtrToNonClass@VGradientStop@@@@UAE@XZ" PURGE="0" COMMENT="" />
    <EXPORT ORDINAL="437" NAME="??1?$CSmartPtrToNonClass@VImage@@@@UAE@XZ" PURGE="0" COMMENT="" />
    <EXPORT ORDINAL="438" NAME="??1?$CSmartPtrToNonClass@VImageBrush@@@@UAE@XZ" PURGE="0" COMMENT="" />
    <EXPORT ORDINAL="439" NAME="??1?$CSmartPtrToNonClass@VLang@@@@UAE@XZ" PURGE="0" COMMENT="" />
    <EXPORT ORDINAL="440" NAME="??1?$CSmartPtrToNonClass@VLinearGradientBrush@@@@UAE@XZ" PURGE="0" COMMENT="" />
    <EXPORT ORDINAL="441" NAME="??1?$CSmartPtrToNonClass@VLinkTarget@@@@UAE@XZ" PURGE="0" COMMENT="" />
    <EXPORT ORDINAL="442" NAME="??1?$CSmartPtrToNonClass@VListItemStructure@@@@UAE@XZ" PURGE="0" COMMENT="" />
    <EXPORT ORDINAL="443" NAME="??1?$CSmartPtrToNonClass@VListStructure@@@@UAE@XZ" PURGE="0" COMMENT="" />
    <EXPORT ORDINAL="444" NAME="??1?$CSmartPtrToNonClass@VMetroData@@@@UAE@XZ" PURGE="0" COMMENT="" />
    <EXPORT ORDINAL="445" NAME="??1?$CSmartPtrToNonClass@VMetroPart@@@@UAE@XZ" PURGE="0" COMMENT="" />
    <EXPORT ORDINAL="446" NAME="??1?$CSmartPtrToNonClass@VMetroReader@@@@UAE@XZ" PURGE="0" COMMENT="" />
    <EXPORT ORDINAL="447" NAME="??1?$CSmartPtrToNonClass@VMetroWriter@@@@UAE@XZ" PURGE="0" COMMENT="" />
    <EXPORT ORDINAL="448" NAME="??1?$CSmartPtrToNonClass@VNamedElement@@@@UAE@XZ" PURGE="0" COMMENT="" />
    <EXPORT ORDINAL="449" NAME="??1?$CSmartPtrToNonClass@VOutlineEntry@@@@UAE@XZ" PURGE="0" COMMENT="" />
    <EXPORT ORDINAL="450" NAME="??1?$CSmartPtrToNonClass@VPackURI@@@@UAE@XZ" PURGE="0" COMMENT="" />
    <EXPORT ORDINAL="451" NAME="??1?$CSmartPtrToNonClass@VPageContent@@@@UAE@XZ" PURGE="0" COMMENT="" />
    <EXPORT ORDINAL="452" NAME="??1?$CSmartPtrToNonClass@VPageElement@@@@UAE@XZ" PURGE="0" COMMENT="" />
    <EXPORT ORDINAL="453" NAME="??1?$CSmartPtrToNonClass@VParagraphStructure@@@@UAE@XZ" PURGE="0" COMMENT="" />
    <EXPORT ORDINAL="454" NAME="??1?$CSmartPtrToNonClass@VPartName@@@@UAE@XZ" PURGE="0" COMMENT="" />
    <EXPORT ORDINAL="455" NAME="??1?$CSmartPtrToNonClass@VPath@@@@UAE@XZ" PURGE="0" COMMENT="" />
    <EXPORT ORDINAL="456" NAME="??1?$CSmartPtrToNonClass@VPathFigure@@@@UAE@XZ" PURGE="0" COMMENT="" />
    <EXPORT ORDINAL="457" NAME="??1?$CSmartPtrToNonClass@VPathGeometry@@@@UAE@XZ" PURGE="0" COMMENT="" />
    <EXPORT ORDINAL="458" NAME="??1?$CSmartPtrToNonClass@VPolyBezierSegment@@@@UAE@XZ" PURGE="0" COMMENT="" />
    <EXPORT ORDINAL="459" NAME="??1?$CSmartPtrToNonClass@VPolyLineSegment@@@@UAE@XZ" PURGE="0" COMMENT="" />
    <EXPORT ORDINAL="460" NAME="??1?$CSmartPtrToNonClass@VPolyQuadraticBezierSegment@@@@UAE@XZ" PURGE="0" COMMENT="" />
    <EXPORT ORDINAL="461" NAME="??1?$CSmartPtrToNonClass@VPrintTicket@@@@UAE@XZ" PURGE="0" COMMENT="" />
    <EXPORT ORDINAL="462" NAME="??1?$CSmartPtrToNonClass@VRadialGradientBrush@@@@UAE@XZ" PURGE="0" COMMENT="" />
    <EXPORT ORDINAL="463" NAME="??1?$CSmartPtrToNonClass@VReachPackage@@@@UAE@XZ" PURGE="0" COMMENT="" />
    <EXPORT ORDINAL="464" NAME="??1?$CSmartPtrToNonClass@VRelationship@@@@UAE@XZ" PURGE="0" COMMENT="" />
    <EXPORT ORDINAL="465" NAME="??1?$CSmartPtrToNonClass@VRelationshipID@@@@UAE@XZ" PURGE="0" COMMENT="" />
    <EXPORT ORDINAL="466" NAME="??1?$CSmartPtrToNonClass@VRelationships@@@@UAE@XZ" PURGE="0" COMMENT="" />
    <EXPORT ORDINAL="467" NAME="??1?$CSmartPtrToNonClass@VST_Boolean@@@@UAE@XZ" PURGE="0" COMMENT="" />
    <EXPORT ORDINAL="468" NAME="??1?$CSmartPtrToNonClass@VST_CaretStop@@@@UAE@XZ" PURGE="0" COMMENT="" />
    <EXPORT ORDINAL="469" NAME="??1?$CSmartPtrToNonClass@VST_EvenArray@@@@UAE@XZ" PURGE="0" COMMENT="" />
    <EXPORT ORDINAL="470" NAME="??1?$CSmartPtrToNonClass@VST_GEZero@@@@UAE@XZ" PURGE="0" COMMENT="" />
    <EXPORT ORDINAL="471" NAME="??1?$CSmartPtrToNonClass@VST_Indices@@@@UAE@XZ" PURGE="0" COMMENT="" />
    <EXPORT ORDINAL="472" NAME="??1?$CSmartPtrToNonClass@VST_IntGEOne@@@@UAE@XZ" PURGE="0" COMMENT="" />
    <EXPORT ORDINAL="473" NAME="??1?$CSmartPtrToNonClass@VST_Name@@@@UAE@XZ" PURGE="0" COMMENT="" />
    <EXPORT ORDINAL="474" NAME="??1?$CSmartPtrToNonClass@VST_RscRefColor@@@@UAE@XZ" PURGE="0" COMMENT="" />
    <EXPORT ORDINAL="475" NAME="??1?$CSmartPtrToNonClass@VST_RscRefMatrix@@@@UAE@XZ" PURGE="0" COMMENT="" />
    <EXPORT ORDINAL="476" NAME="??1?$CSmartPtrToNonClass@VST_TableSpan@@@@UAE@XZ" PURGE="0" COMMENT="" />
    <EXPORT ORDINAL="477" NAME="??1?$CSmartPtrToNonClass@VST_UnicodeString@@@@UAE@XZ" PURGE="0" COMMENT="" />
    <EXPORT ORDINAL="478" NAME="??1?$CSmartPtrToNonClass@VST_ZeroOne@@@@UAE@XZ" PURGE="0" COMMENT="" />
    <EXPORT ORDINAL="479" NAME="??1?$CSmartPtrToNonClass@VSectionStructure@@@@UAE@XZ" PURGE="0" COMMENT="" />
    <EXPORT ORDINAL="480" NAME="??1?$CSmartPtrToNonClass@VSegment@@@@UAE@XZ" PURGE="0" COMMENT="" />
    <EXPORT ORDINAL="481" NAME="??1?$CSmartPtrToNonClass@VSolidColorBrush@@@@UAE@XZ" PURGE="0" COMMENT="" />
    <EXPORT ORDINAL="482" NAME="??1?$CSmartPtrToNonClass@VStory@@@@UAE@XZ" PURGE="0" COMMENT="" />
    <EXPORT ORDINAL="483" NAME="??1?$CSmartPtrToNonClass@VStoryFragment@@@@UAE@XZ" PURGE="0" COMMENT="" />
    <EXPORT ORDINAL="484" NAME="??1?$CSmartPtrToNonClass@VStoryFragmentReference@@@@UAE@XZ" PURGE="0" COMMENT="" />
    <EXPORT ORDINAL="485" NAME="??1?$CSmartPtrToNonClass@VStoryFragments@@@@UAE@XZ" PURGE="0" COMMENT="" />
    <EXPORT ORDINAL="486" NAME="??1?$CSmartPtrToNonClass@VStructure@@@@UAE@XZ" PURGE="0" COMMENT="" />
    <EXPORT ORDINAL="487" NAME="??1?$CSmartPtrToNonClass@VStructureElement@@@@UAE@XZ" PURGE="0" COMMENT="" />
    <EXPORT ORDINAL="488" NAME="??1?$CSmartPtrToNonClass@VTableCellStructure@@@@UAE@XZ" PURGE="0" COMMENT="" />
    <EXPORT ORDINAL="489" NAME="??1?$CSmartPtrToNonClass@VTableRowGroupStructure@@@@UAE@XZ" PURGE="0" COMMENT="" />
    <EXPORT ORDINAL="490" NAME="??1?$CSmartPtrToNonClass@VTableRowStructure@@@@UAE@XZ" PURGE="0" COMMENT="" />
    <EXPORT ORDINAL="491" NAME="??1?$CSmartPtrToNonClass@VTableStructure@@@@UAE@XZ" PURGE="0" COMMENT="" />
    <EXPORT ORDINAL="492" NAME="??1?$CSmartPtrToNonClass@VThumbnail@@@@UAE@XZ" PURGE="0" COMMENT="" />
    <EXPORT ORDINAL="493" NAME="??1?$CSmartPtrToNonClass@VVisualBrush@@@@UAE@XZ" PURGE="0" COMMENT="" />
    <EXPORT ORDINAL="494" NAME="??1?$CSmartPtrToNonClass@VX_Key@@@@UAE@XZ" PURGE="0" COMMENT="" />
    <EXPORT ORDINAL="495" NAME="??1?$CSmartPtrToNonClass@VZipReader@@@@UAE@XZ" PURGE="0" COMMENT="" />
    <EXPORT ORDINAL="496" NAME="??1?$CSmartPtrToNonClass@VZipWriter@@@@UAE@XZ" PURGE="0" COMMENT="" />
    <EXPORT ORDINAL="497" NAME="??4?$CSmartPtr@VAnnotation@@@@QAEAAV0@AAV0@@Z" PURGE="4" COMMENT="" />
    <EXPORT ORDINAL="498" NAME="??4?$CSmartPtr@VBrush@@@@QAEAAV0@AAV0@@Z" PURGE="4" COMMENT="" />
    <EXPORT ORDINAL="499" NAME="??4?$CSmartPtr@VBrush@@@@QAEAAV0@PAUSmartPtrDataPublic@@@Z" PURGE="4" COMMENT="" />
    <EXPORT ORDINAL="500" NAME="??4?$CSmartPtr@VContentTypeLookup@@@@QAEAAV0@AAV0@@Z" PURGE="4" COMMENT="" />
    <EXPORT ORDINAL="501" NAME="??4?$CSmartPtr@VDocumentOutline@@@@QAEAAV0@AAV0@@Z" PURGE="4" COMMENT="" />
    <EXPORT ORDINAL="502" NAME="??4?$CSmartPtr@VDocumentStructure@@@@QAEAAV0@AAV0@@Z" PURGE="4" COMMENT="" />
    <EXPORT ORDINAL="503" NAME="??4?$CSmartPtr@VFixedDocument@@@@QAEAAV0@AAV0@@Z" PURGE="4" COMMENT="" />
    <EXPORT ORDINAL="504" NAME="??4?$CSmartPtr@VFixedPage@@@@QAEAAV0@AAV0@@Z" PURGE="4" COMMENT="" />
    <EXPORT ORDINAL="505" NAME="??4?$CSmartPtr@VFont@@@@QAEAAV0@AAV0@@Z" PURGE="4" COMMENT="" />
    <EXPORT ORDINAL="506" NAME="??4?$CSmartPtr@VFont@@@@QAEAAV0@PAUSmartPtrDataPublic@@@Z" PURGE="4" COMMENT="" />
    <EXPORT ORDINAL="507" NAME="??4?$CSmartPtr@VGradientStop@@@@QAEAAV0@AAV0@@Z" PURGE="4" COMMENT="" />
    <EXPORT ORDINAL="508" NAME="??4?$CSmartPtr@VImage@@@@QAEAAV0@AAV0@@Z" PURGE="4" COMMENT="" />
    <EXPORT ORDINAL="509" NAME="??4?$CSmartPtr@VLang@@@@QAEAAV0@AAV0@@Z" PURGE="4" COMMENT="" />
    <EXPORT ORDINAL="510" NAME="??4?$CSmartPtr@VLinkTarget@@@@QAEAAV0@AAV0@@Z" PURGE="4" COMMENT="" />
    <EXPORT ORDINAL="511" NAME="??4?$CSmartPtr@VListItemStructure@@@@QAEAAV0@AAV0@@Z" PURGE="4" COMMENT="" />
    <EXPORT ORDINAL="512" NAME="??4?$CSmartPtr@VMetroData@@@@QAEAAV0@AAV0@@Z" PURGE="4" COMMENT="" />
    <EXPORT ORDINAL="513" NAME="??4?$CSmartPtr@VMetroPart@@@@QAEAAV0@AAV0@@Z" PURGE="4" COMMENT="" />
    <EXPORT ORDINAL="514" NAME="??4?$CSmartPtr@VMetroReader@@@@QAEAAV0@AAV0@@Z" PURGE="4" COMMENT="" />
    <EXPORT ORDINAL="515" NAME="??4?$CSmartPtr@VMetroReader@@@@QAEAAV0@PAUSmartPtrDataPublic@@@Z" PURGE="4" COMMENT="" />
    <EXPORT ORDINAL="516" NAME="??4?$CSmartPtr@VMetroWriter@@@@QAEAAV0@AAV0@@Z" PURGE="4" COMMENT="" />
    <EXPORT ORDINAL="517" NAME="??4?$CSmartPtr@VMetroWriter@@@@QAEAAV0@PAUSmartPtrDataPublic@@@Z" PURGE="4" COMMENT="" />
    <EXPORT ORDINAL="518" NAME="??4?$CSmartPtr@VNamedElement@@@@QAEAAV0@AAV0@@Z" PURGE="4" COMMENT="" />
    <EXPORT ORDINAL="519" NAME="??4?$CSmartPtr@VOutlineEntry@@@@QAEAAV0@AAV0@@Z" PURGE="4" COMMENT="" />
    <EXPORT ORDINAL="520" NAME="??4?$CSmartPtr@VPackURI@@@@QAEAAV0@AAV0@@Z" PURGE="4" COMMENT="" />
    <EXPORT ORDINAL="521" NAME="??4?$CSmartPtr@VPageContent@@@@QAEAAV0@AAV0@@Z" PURGE="4" COMMENT="" />
    <EXPORT ORDINAL="522" NAME="??4?$CSmartPtr@VPageElement@@@@QAEAAV0@AAV0@@Z" PURGE="4" COMMENT="" />
    <EXPORT ORDINAL="523" NAME="??4?$CSmartPtr@VPartName@@@@QAEAAV0@AAV0@@Z" PURGE="4" COMMENT="" />
    <EXPORT ORDINAL="524" NAME="??4?$CSmartPtr@VPath@@@@QAEAAV0@AAV0@@Z" PURGE="4" COMMENT="" />
    <EXPORT ORDINAL="525" NAME="??4?$CSmartPtr@VPath@@@@QAEAAV0@PAUSmartPtrDataPublic@@@Z" PURGE="4" COMMENT="" />
    <EXPORT ORDINAL="526" NAME="??4?$CSmartPtr@VPathFigure@@@@QAEAAV0@AAV0@@Z" PURGE="4" COMMENT="" />
    <EXPORT ORDINAL="527" NAME="??4?$CSmartPtr@VPathGeometry@@@@QAEAAV0@AAV0@@Z" PURGE="4" COMMENT="" />
    <EXPORT ORDINAL="528" NAME="??4?$CSmartPtr@VPolyLineSegment@@@@QAEAAV0@AAV0@@Z" PURGE="4" COMMENT="" />
    <EXPORT ORDINAL="529" NAME="??4?$CSmartPtr@VPrintTicket@@@@QAEAAV0@AAV0@@Z" PURGE="4" COMMENT="" />
    <EXPORT ORDINAL="530" NAME="??4?$CSmartPtr@VReachPackage@@@@QAEAAV0@AAV0@@Z" PURGE="4" COMMENT="" />
    <EXPORT ORDINAL="531" NAME="??4?$CSmartPtr@VRelationship@@@@QAEAAV0@AAV0@@Z" PURGE="4" COMMENT="" />
    <EXPORT ORDINAL="532" NAME="??4?$CSmartPtr@VRelationshipID@@@@QAEAAV0@AAV0@@Z" PURGE="4" COMMENT="" />
    <EXPORT ORDINAL="533" NAME="??4?$CSmartPtr@VRelationships@@@@QAEAAV0@AAV0@@Z" PURGE="4" COMMENT="" />
    <EXPORT ORDINAL="534" NAME="??4?$CSmartPtr@VST_CaretStop@@@@QAEAAV0@AAV0@@Z" PURGE="4" COMMENT="" />
    <EXPORT ORDINAL="535" NAME="??4?$CSmartPtr@VST_EvenArray@@@@QAEAAV0@AAV0@@Z" PURGE="4" COMMENT="" />
    <EXPORT ORDINAL="536" NAME="??4?$CSmartPtr@VST_GEZero@@@@QAEAAV0@AAV0@@Z" PURGE="4" COMMENT="" />
    <EXPORT ORDINAL="537" NAME="??4?$CSmartPtr@VST_Indices@@@@QAEAAV0@AAV0@@Z" PURGE="4" COMMENT="" />
    <EXPORT ORDINAL="538" NAME="??4?$CSmartPtr@VST_IntGEOne@@@@QAEAAV0@AAV0@@Z" PURGE="4" COMMENT="" />
    <EXPORT ORDINAL="539" NAME="??4?$CSmartPtr@VST_Name@@@@QAEAAV0@AAV0@@Z" PURGE="4" COMMENT="" />
    <EXPORT ORDINAL="540" NAME="??4?$CSmartPtr@VST_RscRefMatrix@@@@QAEAAV0@AAV0@@Z" PURGE="4" COMMENT="" />
    <EXPORT ORDINAL="541" NAME="??4?$CSmartPtr@VST_TableSpan@@@@QAEAAV0@AAV0@@Z" PURGE="4" COMMENT="" />
    <EXPORT ORDINAL="542" NAME="??4?$CSmartPtr@VST_UnicodeString@@@@QAEAAV0@AAV0@@Z" PURGE="4" COMMENT="" />
    <EXPORT ORDINAL="543" NAME="??4?$CSmartPtr@VST_ZeroOne@@@@QAEAAV0@AAV0@@Z" PURGE="4" COMMENT="" />
    <EXPORT ORDINAL="544" NAME="??4?$CSmartPtr@VSegment@@@@QAEAAV0@AAV0@@Z" PURGE="4" COMMENT="" />
    <EXPORT ORDINAL="545" NAME="??4?$CSmartPtr@VSolidColorBrush@@@@QAEAAV0@AAV0@@Z" PURGE="4" COMMENT="" />
    <EXPORT ORDINAL="546" NAME="??4?$CSmartPtr@VStory@@@@QAEAAV0@AAV0@@Z" PURGE="4" COMMENT="" />
    <EXPORT ORDINAL="547" NAME="??4?$CSmartPtr@VStoryFragment@@@@QAEAAV0@AAV0@@Z" PURGE="4" COMMENT="" />
    <EXPORT ORDINAL="548" NAME="??4?$CSmartPtr@VStoryFragmentReference@@@@QAEAAV0@AAV0@@Z" PURGE="4" COMMENT="" />
    <EXPORT ORDINAL="549" NAME="??4?$CSmartPtr@VStoryFragments@@@@QAEAAV0@AAV0@@Z" PURGE="4" COMMENT="" />
    <EXPORT ORDINAL="550" NAME="??4?$CSmartPtr@VStructure@@@@QAEAAV0@AAV0@@Z" PURGE="4" COMMENT="" />
    <EXPORT ORDINAL="551" NAME="??4?$CSmartPtr@VStructureElement@@@@QAEAAV0@AAV0@@Z" PURGE="4" COMMENT="" />
    <EXPORT ORDINAL="552" NAME="??4?$CSmartPtr@VTableCellStructure@@@@QAEAAV0@AAV0@@Z" PURGE="4" COMMENT="" />
    <EXPORT ORDINAL="553" NAME="??4?$CSmartPtr@VTableRowGroupStructure@@@@QAEAAV0@AAV0@@Z" PURGE="4" COMMENT="" />
    <EXPORT ORDINAL="554" NAME="??4?$CSmartPtr@VTableRowStructure@@@@QAEAAV0@AAV0@@Z" PURGE="4" COMMENT="" />
    <EXPORT ORDINAL="555" NAME="??4?$CSmartPtr@VThumbnail@@@@QAEAAV0@AAV0@@Z" PURGE="4" COMMENT="" />
    <EXPORT ORDINAL="556" NAME="??4?$CSmartPtr@VVisualBrush@@@@QAEAAV0@PAUSmartPtrDataPublic@@@Z" PURGE="4" COMMENT="" />
    <EXPORT ORDINAL="557" NAME="??4?$CSmartPtr@VX_Key@@@@QAEAAV0@AAV0@@Z" PURGE="4" COMMENT="" />
    <EXPORT ORDINAL="558" NAME="??4?$CSmartPtr@VZipWriter@@@@QAEAAV0@PAUSmartPtrDataPublic@@@Z" PURGE="4" COMMENT="" />
    <EXPORT ORDINAL="559" NAME="??4?$CSmartPtrToNonClass@D@@QAEAAV0@AAV0@@Z" PURGE="4" COMMENT="" />
    <EXPORT ORDINAL="560" NAME="??4?$CSmartPtrToNonClass@VAnnotation@@@@QAEAAV0@AAV0@@Z" PURGE="4" COMMENT="" />
    <EXPORT ORDINAL="561" NAME="??4?$CSmartPtrToNonClass@VBrush@@@@QAEAAV0@AAV0@@Z" PURGE="4" COMMENT="" />
    <EXPORT ORDINAL="562" NAME="??4?$CSmartPtrToNonClass@VBrush@@@@QAEAAV0@PAUSmartPtrDataPublic@@@Z" PURGE="4" COMMENT="" />
    <EXPORT ORDINAL="563" NAME="??4?$CSmartPtrToNonClass@VContentTypeLookup@@@@QAEAAV0@AAV0@@Z" PURGE="4" COMMENT="" />
    <EXPORT ORDINAL="564" NAME="??4?$CSmartPtrToNonClass@VDocumentOutline@@@@QAEAAV0@AAV0@@Z" PURGE="4" COMMENT="" />
    <EXPORT ORDINAL="565" NAME="??4?$CSmartPtrToNonClass@VDocumentStructure@@@@QAEAAV0@AAV0@@Z" PURGE="4" COMMENT="" />
    <EXPORT ORDINAL="566" NAME="??4?$CSmartPtrToNonClass@VFixedDocument@@@@QAEAAV0@AAV0@@Z" PURGE="4" COMMENT="" />
    <EXPORT ORDINAL="567" NAME="??4?$CSmartPtrToNonClass@VFixedPage@@@@QAEAAV0@AAV0@@Z" PURGE="4" COMMENT="" />
    <EXPORT ORDINAL="568" NAME="??4?$CSmartPtrToNonClass@VFont@@@@QAEAAV0@AAV0@@Z" PURGE="4" COMMENT="" />
    <EXPORT ORDINAL="569" NAME="??4?$CSmartPtrToNonClass@VFont@@@@QAEAAV0@PAUSmartPtrDataPublic@@@Z" PURGE="4" COMMENT="" />
    <EXPORT ORDINAL="570" NAME="??4?$CSmartPtrToNonClass@VGradientStop@@@@QAEAAV0@AAV0@@Z" PURGE="4" COMMENT="" />
    <EXPORT ORDINAL="571" NAME="??4?$CSmartPtrToNonClass@VImage@@@@QAEAAV0@AAV0@@Z" PURGE="4" COMMENT="" />
    <EXPORT ORDINAL="572" NAME="??4?$CSmartPtrToNonClass@VLang@@@@QAEAAV0@AAV0@@Z" PURGE="4" COMMENT="" />
    <EXPORT ORDINAL="573" NAME="??4?$CSmartPtrToNonClass@VLinkTarget@@@@QAEAAV0@AAV0@@Z" PURGE="4" COMMENT="" />
    <EXPORT ORDINAL="574" NAME="??4?$CSmartPtrToNonClass@VListItemStructure@@@@QAEAAV0@AAV0@@Z" PURGE="4" COMMENT="" />
    <EXPORT ORDINAL="575" NAME="??4?$CSmartPtrToNonClass@VMetroData@@@@QAEAAV0@AAV0@@Z" PURGE="4" COMMENT="" />
    <EXPORT ORDINAL="576" NAME="??4?$CSmartPtrToNonClass@VMetroPart@@@@QAEAAV0@AAV0@@Z" PURGE="4" COMMENT="" />
    <EXPORT ORDINAL="577" NAME="??4?$CSmartPtrToNonClass@VMetroReader@@@@QAEAAV0@AAV0@@Z" PURGE="4" COMMENT="" />
    <EXPORT ORDINAL="578" NAME="??4?$CSmartPtrToNonClass@VMetroReader@@@@QAEAAV0@PAUSmartPtrDataPublic@@@Z" PURGE="4" COMMENT="" />
    <EXPORT ORDINAL="579" NAME="??4?$CSmartPtrToNonClass@VMetroWriter@@@@QAEAAV0@AAV0@@Z" PURGE="4" COMMENT="" />
    <EXPORT ORDINAL="580" NAME="??4?$CSmartPtrToNonClass@VMetroWriter@@@@QAEAAV0@PAUSmartPtrDataPublic@@@Z" PURGE="4" COMMENT="" />
    <EXPORT ORDINAL="581" NAME="??4?$CSmartPtrToNonClass@VNamedElement@@@@QAEAAV0@AAV0@@Z" PURGE="4" COMMENT="" />
    <EXPORT ORDINAL="582" NAME="??4?$CSmartPtrToNonClass@VOutlineEntry@@@@QAEAAV0@AAV0@@Z" PURGE="4" COMMENT="" />
    <EXPORT ORDINAL="583" NAME="??4?$CSmartPtrToNonClass@VPackURI@@@@QAEAAV0@AAV0@@Z" PURGE="4" COMMENT="" />
    <EXPORT ORDINAL="584" NAME="??4?$CSmartPtrToNonClass@VPageContent@@@@QAEAAV0@AAV0@@Z" PURGE="4" COMMENT="" />
    <EXPORT ORDINAL="585" NAME="??4?$CSmartPtrToNonClass@VPageElement@@@@QAEAAV0@AAV0@@Z" PURGE="4" COMMENT="" />
    <EXPORT ORDINAL="586" NAME="??4?$CSmartPtrToNonClass@VPartName@@@@QAEAAV0@AAV0@@Z" PURGE="4" COMMENT="" />
    <EXPORT ORDINAL="587" NAME="??4?$CSmartPtrToNonClass@VPath@@@@QAEAAV0@AAV0@@Z" PURGE="4" COMMENT="" />
    <EXPORT ORDINAL="588" NAME="??4?$CSmartPtrToNonClass@VPath@@@@QAEAAV0@PAUSmartPtrDataPublic@@@Z" PURGE="4" COMMENT="" />
    <EXPORT ORDINAL="589" NAME="??4?$CSmartPtrToNonClass@VPathFigure@@@@QAEAAV0@AAV0@@Z" PURGE="4" COMMENT="" />
    <EXPORT ORDINAL="590" NAME="??4?$CSmartPtrToNonClass@VPathGeometry@@@@QAEAAV0@AAV0@@Z" PURGE="4" COMMENT="" />
    <EXPORT ORDINAL="591" NAME="??4?$CSmartPtrToNonClass@VPolyLineSegment@@@@QAEAAV0@AAV0@@Z" PURGE="4" COMMENT="" />
    <EXPORT ORDINAL="592" NAME="??4?$CSmartPtrToNonClass@VPrintTicket@@@@QAEAAV0@AAV0@@Z" PURGE="4" COMMENT="" />
    <EXPORT ORDINAL="593" NAME="??4?$CSmartPtrToNonClass@VReachPackage@@@@QAEAAV0@AAV0@@Z" PURGE="4" COMMENT="" />
    <EXPORT ORDINAL="594" NAME="??4?$CSmartPtrToNonClass@VRelationship@@@@QAEAAV0@AAV0@@Z" PURGE="4" COMMENT="" />
    <EXPORT ORDINAL="595" NAME="??4?$CSmartPtrToNonClass@VRelationshipID@@@@QAEAAV0@AAV0@@Z" PURGE="4" COMMENT="" />
    <EXPORT ORDINAL="596" NAME="??4?$CSmartPtrToNonClass@VRelationships@@@@QAEAAV0@AAV0@@Z" PURGE="4" COMMENT="" />
    <EXPORT ORDINAL="597" NAME="??4?$CSmartPtrToNonClass@VST_CaretStop@@@@QAEAAV0@AAV0@@Z" PURGE="4" COMMENT="" />
    <EXPORT ORDINAL="598" NAME="??4?$CSmartPtrToNonClass@VST_EvenArray@@@@QAEAAV0@AAV0@@Z" PURGE="4" COMMENT="" />
    <EXPORT ORDINAL="599" NAME="??4?$CSmartPtrToNonClass@VST_GEZero@@@@QAEAAV0@AAV0@@Z" PURGE="4" COMMENT="" />
    <EXPORT ORDINAL="600" NAME="??4?$CSmartPtrToNonClass@VST_Indices@@@@QAEAAV0@AAV0@@Z" PURGE="4" COMMENT="" />
    <EXPORT ORDINAL="601" NAME="??4?$CSmartPtrToNonClass@VST_IntGEOne@@@@QAEAAV0@AAV0@@Z" PURGE="4" COMMENT="" />
    <EXPORT ORDINAL="602" NAME="??4?$CSmartPtrToNonClass@VST_Name@@@@QAEAAV0@AAV0@@Z" PURGE="4" COMMENT="" />
    <EXPORT ORDINAL="603" NAME="??4?$CSmartPtrToNonClass@VST_RscRefMatrix@@@@QAEAAV0@AAV0@@Z" PURGE="4" COMMENT="" />
    <EXPORT ORDINAL="604" NAME="??4?$CSmartPtrToNonClass@VST_TableSpan@@@@QAEAAV0@AAV0@@Z" PURGE="4" COMMENT="" />
    <EXPORT ORDINAL="605" NAME="??4?$CSmartPtrToNonClass@VST_UnicodeString@@@@QAEAAV0@AAV0@@Z" PURGE="4" COMMENT="" />
    <EXPORT ORDINAL="606" NAME="??4?$CSmartPtrToNonClass@VST_ZeroOne@@@@QAEAAV0@AAV0@@Z" PURGE="4" COMMENT="" />
    <EXPORT ORDINAL="607" NAME="??4?$CSmartPtrToNonClass@VSegment@@@@QAEAAV0@AAV0@@Z" PURGE="4" COMMENT="" />
    <EXPORT ORDINAL="608" NAME="??4?$CSmartPtrToNonClass@VSolidColorBrush@@@@QAEAAV0@AAV0@@Z" PURGE="4" COMMENT="" />
    <EXPORT ORDINAL="609" NAME="??4?$CSmartPtrToNonClass@VStory@@@@QAEAAV0@AAV0@@Z" PURGE="4" COMMENT="" />
    <EXPORT ORDINAL="610" NAME="??4?$CSmartPtrToNonClass@VStoryFragment@@@@QAEAAV0@AAV0@@Z" PURGE="4" COMMENT="" />
    <EXPORT ORDINAL="611" NAME="??4?$CSmartPtrToNonClass@VStoryFragmentReference@@@@QAEAAV0@AAV0@@Z" PURGE="4" COMMENT="" />
    <EXPORT ORDINAL="612" NAME="??4?$CSmartPtrToNonClass@VStoryFragments@@@@QAEAAV0@AAV0@@Z" PURGE="4" COMMENT="" />
    <EXPORT ORDINAL="613" NAME="??4?$CSmartPtrToNonClass@VStructure@@@@QAEAAV0@AAV0@@Z" PURGE="4" COMMENT="" />
    <EXPORT ORDINAL="614" NAME="??4?$CSmartPtrToNonClass@VStructureElement@@@@QAEAAV0@AAV0@@Z" PURGE="4" COMMENT="" />
    <EXPORT ORDINAL="615" NAME="??4?$CSmartPtrToNonClass@VTableCellStructure@@@@QAEAAV0@AAV0@@Z" PURGE="4" COMMENT="" />
    <EXPORT ORDINAL="616" NAME="??4?$CSmartPtrToNonClass@VTableRowGroupStructure@@@@QAEAAV0@AAV0@@Z" PURGE="4" COMMENT="" />
    <EXPORT ORDINAL="617" NAME="??4?$CSmartPtrToNonClass@VTableRowStructure@@@@QAEAAV0@AAV0@@Z" PURGE="4" COMMENT="" />
    <EXPORT ORDINAL="618" NAME="??4?$CSmartPtrToNonClass@VThumbnail@@@@QAEAAV0@AAV0@@Z" PURGE="4" COMMENT="" />
    <EXPORT ORDINAL="619" NAME="??4?$CSmartPtrToNonClass@VVisualBrush@@@@QAEAAV0@PAUSmartPtrDataPublic@@@Z" PURGE="4" COMMENT="" />
    <EXPORT ORDINAL="620" NAME="??4?$CSmartPtrToNonClass@VX_Key@@@@QAEAAV0@AAV0@@Z" PURGE="4" COMMENT="" />
    <EXPORT ORDINAL="621" NAME="??4?$CSmartPtrToNonClass@VZipWriter@@@@QAEAAV0@PAUSmartPtrDataPublic@@@Z" PURGE="4" COMMENT="" />
    <EXPORT ORDINAL="622" NAME="??A?$CSmartPtrToNonClass@VCAImage@@@@QBEAAVCAImage@@H@Z" PURGE="4" COMMENT="" />
    <EXPORT ORDINAL="623" NAME="??A?$CSmartPtrToNonClass@VCAImage@@@@QBEAAVCAImage@@I@Z" PURGE="4" COMMENT="" />
    <EXPORT ORDINAL="624" NAME="??B?$CSmartPtrToNonClass@D@@QBEPADXZ" PURGE="0" COMMENT="" />
    <EXPORT ORDINAL="625" NAME="??_7?$CSmartPtr@VAnnotation@@@@6B@" PURGE="-1" COMMENT="" />
    <EXPORT ORDINAL="626" NAME="??_7?$CSmartPtr@VArcSegment@@@@6B@" PURGE="-1" COMMENT="" />
    <EXPORT ORDINAL="627" NAME="??_7?$CSmartPtr@VBrush@@@@6B@" PURGE="-1" COMMENT="" />
    <EXPORT ORDINAL="628" NAME="??_7?$CSmartPtr@VCanvas@@@@6B@" PURGE="-1" COMMENT="" />
    <EXPORT ORDINAL="629" NAME="??_7?$CSmartPtr@VContentTypeLookup@@@@6B@" PURGE="-1" COMMENT="" />
    <EXPORT ORDINAL="630" NAME="??_7?$CSmartPtr@VContentTypeParser@@@@6B@" PURGE="-1" COMMENT="" />
    <EXPORT ORDINAL="631" NAME="??_7?$CSmartPtr@VDigitalSignature@@@@6B@" PURGE="-1" COMMENT="" />
    <EXPORT ORDINAL="632" NAME="??_7?$CSmartPtr@VDocumentOutline@@@@6B@" PURGE="-1" COMMENT="" />
    <EXPORT ORDINAL="633" NAME="??_7?$CSmartPtr@VDocumentStructure@@@@6B@" PURGE="-1" COMMENT="" />
    <EXPORT ORDINAL="634" NAME="??_7?$CSmartPtr@VFigureStructure@@@@6B@" PURGE="-1" COMMENT="" />
    <EXPORT ORDINAL="635" NAME="??_7?$CSmartPtr@VFixedDocument@@@@6B@" PURGE="-1" COMMENT="" />
    <EXPORT ORDINAL="636" NAME="??_7?$CSmartPtr@VFixedDocumentParser@@@@6B@" PURGE="-1" COMMENT="" />
    <EXPORT ORDINAL="637" NAME="??_7?$CSmartPtr@VFixedDocumentSequence@@@@6B@" PURGE="-1" COMMENT="" />
    <EXPORT ORDINAL="638" NAME="??_7?$CSmartPtr@VFixedPage@@@@6B@" PURGE="-1" COMMENT="" />
    <EXPORT ORDINAL="639" NAME="??_7?$CSmartPtr@VFont@@@@6B@" PURGE="-1" COMMENT="" />
    <EXPORT ORDINAL="640" NAME="??_7?$CSmartPtr@VGlyphs@@@@6B@" PURGE="-1" COMMENT="" />
    <EXPORT ORDINAL="641" NAME="??_7?$CSmartPtr@VGradientBrush@@@@6B@" PURGE="-1" COMMENT="" />
    <EXPORT ORDINAL="642" NAME="??_7?$CSmartPtr@VGradientStop@@@@6B@" PURGE="-1" COMMENT="" />
    <EXPORT ORDINAL="643" NAME="??_7?$CSmartPtr@VImage@@@@6B@" PURGE="-1" COMMENT="" />
    <EXPORT ORDINAL="644" NAME="??_7?$CSmartPtr@VImageBrush@@@@6B@" PURGE="-1" COMMENT="" />
    <EXPORT ORDINAL="645" NAME="??_7?$CSmartPtr@VLang@@@@6B@" PURGE="-1" COMMENT="" />
    <EXPORT ORDINAL="646" NAME="??_7?$CSmartPtr@VLinearGradientBrush@@@@6B@" PURGE="-1" COMMENT="" />
    <EXPORT ORDINAL="647" NAME="??_7?$CSmartPtr@VLinkTarget@@@@6B@" PURGE="-1" COMMENT="" />
    <EXPORT ORDINAL="648" NAME="??_7?$CSmartPtr@VListItemStructure@@@@6B@" PURGE="-1" COMMENT="" />
    <EXPORT ORDINAL="649" NAME="??_7?$CSmartPtr@VListStructure@@@@6B@" PURGE="-1" COMMENT="" />
    <EXPORT ORDINAL="650" NAME="??_7?$CSmartPtr@VMetroData@@@@6B@" PURGE="-1" COMMENT="" />
    <EXPORT ORDINAL="651" NAME="??_7?$CSmartPtr@VMetroPart@@@@6B@" PURGE="-1" COMMENT="" />
    <EXPORT ORDINAL="652" NAME="??_7?$CSmartPtr@VMetroReader@@@@6B@" PURGE="-1" COMMENT="" />
    <EXPORT ORDINAL="653" NAME="??_7?$CSmartPtr@VMetroWriter@@@@6B@" PURGE="-1" COMMENT="" />
    <EXPORT ORDINAL="654" NAME="??_7?$CSmartPtr@VNamedElement@@@@6B@" PURGE="-1" COMMENT="" />
    <EXPORT ORDINAL="655" NAME="??_7?$CSmartPtr@VOutlineEntry@@@@6B@" PURGE="-1" COMMENT="" />
    <EXPORT ORDINAL="656" NAME="??_7?$CSmartPtr@VPackURI@@@@6B@" PURGE="-1" COMMENT="" />
    <EXPORT ORDINAL="657" NAME="??_7?$CSmartPtr@VPageContent@@@@6B@" PURGE="-1" COMMENT="" />
    <EXPORT ORDINAL="658" NAME="??_7?$CSmartPtr@VPageElement@@@@6B@" PURGE="-1" COMMENT="" />
    <EXPORT ORDINAL="659" NAME="??_7?$CSmartPtr@VParagraphStructure@@@@6B@" PURGE="-1" COMMENT="" />
    <EXPORT ORDINAL="660" NAME="??_7?$CSmartPtr@VPartName@@@@6B@" PURGE="-1" COMMENT="" />
    <EXPORT ORDINAL="661" NAME="??_7?$CSmartPtr@VPath@@@@6B@" PURGE="-1" COMMENT="" />
    <EXPORT ORDINAL="662" NAME="??_7?$CSmartPtr@VPathFigure@@@@6B@" PURGE="-1" COMMENT="" />
    <EXPORT ORDINAL="663" NAME="??_7?$CSmartPtr@VPathGeometry@@@@6B@" PURGE="-1" COMMENT="" />
    <EXPORT ORDINAL="664" NAME="??_7?$CSmartPtr@VPolyBezierSegment@@@@6B@" PURGE="-1" COMMENT="" />
    <EXPORT ORDINAL="665" NAME="??_7?$CSmartPtr@VPolyLineSegment@@@@6B@" PURGE="-1" COMMENT="" />
    <EXPORT ORDINAL="666" NAME="??_7?$CSmartPtr@VPolyQuadraticBezierSegment@@@@6B@" PURGE="-1" COMMENT="" />
    <EXPORT ORDINAL="667" NAME="??_7?$CSmartPtr@VPrintTicket@@@@6B@" PURGE="-1" COMMENT="" />
    <EXPORT ORDINAL="668" NAME="??_7?$CSmartPtr@VRadialGradientBrush@@@@6B@" PURGE="-1" COMMENT="" />
    <EXPORT ORDINAL="669" NAME="??_7?$CSmartPtr@VReachPackage@@@@6B@" PURGE="-1" COMMENT="" />
    <EXPORT ORDINAL="670" NAME="??_7?$CSmartPtr@VRelationship@@@@6B@" PURGE="-1" COMMENT="" />
    <EXPORT ORDINAL="671" NAME="??_7?$CSmartPtr@VRelationshipID@@@@6B@" PURGE="-1" COMMENT="" />
    <EXPORT ORDINAL="672" NAME="??_7?$CSmartPtr@VRelationships@@@@6B@" PURGE="-1" COMMENT="" />
    <EXPORT ORDINAL="673" NAME="??_7?$CSmartPtr@VST_Boolean@@@@6B@" PURGE="-1" COMMENT="" />
    <EXPORT ORDINAL="674" NAME="??_7?$CSmartPtr@VST_CaretStop@@@@6B@" PURGE="-1" COMMENT="" />
    <EXPORT ORDINAL="675" NAME="??_7?$CSmartPtr@VST_EvenArray@@@@6B@" PURGE="-1" COMMENT="" />
    <EXPORT ORDINAL="676" NAME="??_7?$CSmartPtr@VST_GEZero@@@@6B@" PURGE="-1" COMMENT="" />
    <EXPORT ORDINAL="677" NAME="??_7?$CSmartPtr@VST_Indices@@@@6B@" PURGE="-1" COMMENT="" />
    <EXPORT ORDINAL="678" NAME="??_7?$CSmartPtr@VST_IntGEOne@@@@6B@" PURGE="-1" COMMENT="" />
    <EXPORT ORDINAL="679" NAME="??_7?$CSmartPtr@VST_Name@@@@6B@" PURGE="-1" COMMENT="" />
    <EXPORT ORDINAL="680" NAME="??_7?$CSmartPtr@VST_RscRefColor@@@@6B@" PURGE="-1" COMMENT="" />
    <EXPORT ORDINAL="681" NAME="??_7?$CSmartPtr@VST_RscRefMatrix@@@@6B@" PURGE="-1" COMMENT="" />
    <EXPORT ORDINAL="682" NAME="??_7?$CSmartPtr@VST_TableSpan@@@@6B@" PURGE="-1" COMMENT="" />
    <EXPORT ORDINAL="683" NAME="??_7?$CSmartPtr@VST_UnicodeString@@@@6B@" PURGE="-1" COMMENT="" />
    <EXPORT ORDINAL="684" NAME="??_7?$CSmartPtr@VST_ZeroOne@@@@6B@" PURGE="-1" COMMENT="" />
    <EXPORT ORDINAL="685" NAME="??_7?$CSmartPtr@VSectionStructure@@@@6B@" PURGE="-1" COMMENT="" />
    <EXPORT ORDINAL="686" NAME="??_7?$CSmartPtr@VSegment@@@@6B@" PURGE="-1" COMMENT="" />
    <EXPORT ORDINAL="687" NAME="??_7?$CSmartPtr@VSolidColorBrush@@@@6B@" PURGE="-1" COMMENT="" />
    <EXPORT ORDINAL="688" NAME="??_7?$CSmartPtr@VStory@@@@6B@" PURGE="-1" COMMENT="" />
    <EXPORT ORDINAL="689" NAME="??_7?$CSmartPtr@VStoryFragment@@@@6B@" PURGE="-1" COMMENT="" />
    <EXPORT ORDINAL="690" NAME="??_7?$CSmartPtr@VStoryFragmentReference@@@@6B@" PURGE="-1" COMMENT="" />
    <EXPORT ORDINAL="691" NAME="??_7?$CSmartPtr@VStoryFragments@@@@6B@" PURGE="-1" COMMENT="" />
    <EXPORT ORDINAL="692" NAME="??_7?$CSmartPtr@VStructure@@@@6B@" PURGE="-1" COMMENT="" />
    <EXPORT ORDINAL="693" NAME="??_7?$CSmartPtr@VStructureElement@@@@6B@" PURGE="-1" COMMENT="" />
    <EXPORT ORDINAL="694" NAME="??_7?$CSmartPtr@VTableCellStructure@@@@6B@" PURGE="-1" COMMENT="" />
    <EXPORT ORDINAL="695" NAME="??_7?$CSmartPtr@VTableRowGroupStructure@@@@6B@" PURGE="-1" COMMENT="" />
    <EXPORT ORDINAL="696" NAME="??_7?$CSmartPtr@VTableRowStructure@@@@6B@" PURGE="-1" COMMENT="" />
    <EXPORT ORDINAL="697" NAME="??_7?$CSmartPtr@VTableStructure@@@@6B@" PURGE="-1" COMMENT="" />
    <EXPORT ORDINAL="698" NAME="??_7?$CSmartPtr@VThumbnail@@@@6B@" PURGE="-1" COMMENT="" />
    <EXPORT ORDINAL="699" NAME="??_7?$CSmartPtr@VVisualBrush@@@@6B@" PURGE="-1" COMMENT="" />
    <EXPORT ORDINAL="700" NAME="??_7?$CSmartPtr@VX_Key@@@@6B@" PURGE="-1" COMMENT="" />
    <EXPORT ORDINAL="701" NAME="??_7?$CSmartPtr@VZipReader@@@@6B@" PURGE="-1" COMMENT="" />
    <EXPORT ORDINAL="702" NAME="??_7?$CSmartPtr@VZipWriter@@@@6B@" PURGE="-1" COMMENT="" />
    <EXPORT ORDINAL="703" NAME="??_7?$CSmartPtrToNonClass@VAnnotation@@@@6B@" PURGE="-1" COMMENT="" />
    <EXPORT ORDINAL="704" NAME="??_7?$CSmartPtrToNonClass@VArcSegment@@@@6B@" PURGE="-1" COMMENT="" />
    <EXPORT ORDINAL="705" NAME="??_7?$CSmartPtrToNonClass@VBrush@@@@6B@" PURGE="-1" COMMENT="" />
    <EXPORT ORDINAL="706" NAME="??_7?$CSmartPtrToNonClass@VCanvas@@@@6B@" PURGE="-1" COMMENT="" />
    <EXPORT ORDINAL="707" NAME="??_7?$CSmartPtrToNonClass@VContentTypeLookup@@@@6B@" PURGE="-1" COMMENT="" />
    <EXPORT ORDINAL="708" NAME="??_7?$CSmartPtrToNonClass@VContentTypeParser@@@@6B@" PURGE="-1" COMMENT="" />
    <EXPORT ORDINAL="709" NAME="??_7?$CSmartPtrToNonClass@VDigitalSignature@@@@6B@" PURGE="-1" COMMENT="" />
    <EXPORT ORDINAL="710" NAME="??_7?$CSmartPtrToNonClass@VDocumentOutline@@@@6B@" PURGE="-1" COMMENT="" />
    <EXPORT ORDINAL="711" NAME="??_7?$CSmartPtrToNonClass@VDocumentStructure@@@@6B@" PURGE="-1" COMMENT="" />
    <EXPORT ORDINAL="712" NAME="??_7?$CSmartPtrToNonClass@VFigureStructure@@@@6B@" PURGE="-1" COMMENT="" />
    <EXPORT ORDINAL="713" NAME="??_7?$CSmartPtrToNonClass@VFixedDocument@@@@6B@" PURGE="-1" COMMENT="" />
    <EXPORT ORDINAL="714" NAME="??_7?$CSmartPtrToNonClass@VFixedDocumentParser@@@@6B@" PURGE="-1" COMMENT="" />
    <EXPORT ORDINAL="715" NAME="??_7?$CSmartPtrToNonClass@VFixedDocumentSequence@@@@6B@" PURGE="-1" COMMENT="" />
    <EXPORT ORDINAL="716" NAME="??_7?$CSmartPtrToNonClass@VFixedPage@@@@6B@" PURGE="-1" COMMENT="" />
    <EXPORT ORDINAL="717" NAME="??_7?$CSmartPtrToNonClass@VFont@@@@6B@" PURGE="-1" COMMENT="" />
    <EXPORT ORDINAL="718" NAME="??_7?$CSmartPtrToNonClass@VGlyphs@@@@6B@" PURGE="-1" COMMENT="" />
    <EXPORT ORDINAL="719" NAME="??_7?$CSmartPtrToNonClass@VGradientBrush@@@@6B@" PURGE="-1" COMMENT="" />
    <EXPORT ORDINAL="720" NAME="??_7?$CSmartPtrToNonClass@VGradientStop@@@@6B@" PURGE="-1" COMMENT="" />
    <EXPORT ORDINAL="721" NAME="??_7?$CSmartPtrToNonClass@VImage@@@@6B@" PURGE="-1" COMMENT="" />
    <EXPORT ORDINAL="722" NAME="??_7?$CSmartPtrToNonClass@VImageBrush@@@@6B@" PURGE="-1" COMMENT="" />
    <EXPORT ORDINAL="723" NAME="??_7?$CSmartPtrToNonClass@VLang@@@@6B@" PURGE="-1" COMMENT="" />
    <EXPORT ORDINAL="724" NAME="??_7?$CSmartPtrToNonClass@VLinearGradientBrush@@@@6B@" PURGE="-1" COMMENT="" />
    <EXPORT ORDINAL="725" NAME="??_7?$CSmartPtrToNonClass@VLinkTarget@@@@6B@" PURGE="-1" COMMENT="" />
    <EXPORT ORDINAL="726" NAME="??_7?$CSmartPtrToNonClass@VListItemStructure@@@@6B@" PURGE="-1" COMMENT="" />
    <EXPORT ORDINAL="727" NAME="??_7?$CSmartPtrToNonClass@VListStructure@@@@6B@" PURGE="-1" COMMENT="" />
    <EXPORT ORDINAL="728" NAME="??_7?$CSmartPtrToNonClass@VMetroData@@@@6B@" PURGE="-1" COMMENT="" />
    <EXPORT ORDINAL="729" NAME="??_7?$CSmartPtrToNonClass@VMetroPart@@@@6B@" PURGE="-1" COMMENT="" />
    <EXPORT ORDINAL="730" NAME="??_7?$CSmartPtrToNonClass@VMetroReader@@@@6B@" PURGE="-1" COMMENT="" />
    <EXPORT ORDINAL="731" NAME="??_7?$CSmartPtrToNonClass@VMetroWriter@@@@6B@" PURGE="-1" COMMENT="" />
    <EXPORT ORDINAL="732" NAME="??_7?$CSmartPtrToNonClass@VNamedElement@@@@6B@" PURGE="-1" COMMENT="" />
    <EXPORT ORDINAL="733" NAME="??_7?$CSmartPtrToNonClass@VOutlineEntry@@@@6B@" PURGE="-1" COMMENT="" />
    <EXPORT ORDINAL="734" NAME="??_7?$CSmartPtrToNonClass@VPackURI@@@@6B@" PURGE="-1" COMMENT="" />
    <EXPORT ORDINAL="735" NAME="??_7?$CSmartPtrToNonClass@VPageContent@@@@6B@" PURGE="-1" COMMENT="" />
    <EXPORT ORDINAL="736" NAME="??_7?$CSmartPtrToNonClass@VPageElement@@@@6B@" PURGE="-1" COMMENT="" />
    <EXPORT ORDINAL="737" NAME="??_7?$CSmartPtrToNonClass@VParagraphStructure@@@@6B@" PURGE="-1" COMMENT="" />
    <EXPORT ORDINAL="738" NAME="??_7?$CSmartPtrToNonClass@VPartName@@@@6B@" PURGE="-1" COMMENT="" />
    <EXPORT ORDINAL="739" NAME="??_7?$CSmartPtrToNonClass@VPath@@@@6B@" PURGE="-1" COMMENT="" />
    <EXPORT ORDINAL="740" NAME="??_7?$CSmartPtrToNonClass@VPathFigure@@@@6B@" PURGE="-1" COMMENT="" />
    <EXPORT ORDINAL="741" NAME="??_7?$CSmartPtrToNonClass@VPathGeometry@@@@6B@" PURGE="-1" COMMENT="" />
    <EXPORT ORDINAL="742" NAME="??_7?$CSmartPtrToNonClass@VPolyBezierSegment@@@@6B@" PURGE="-1" COMMENT="" />
    <EXPORT ORDINAL="743" NAME="??_7?$CSmartPtrToNonClass@VPolyLineSegment@@@@6B@" PURGE="-1" COMMENT="" />
    <EXPORT ORDINAL="744" NAME="??_7?$CSmartPtrToNonClass@VPolyQuadraticBezierSegment@@@@6B@" PURGE="-1" COMMENT="" />
    <EXPORT ORDINAL="745" NAME="??_7?$CSmartPtrToNonClass@VPrintTicket@@@@6B@" PURGE="-1" COMMENT="" />
    <EXPORT ORDINAL="746" NAME="??_7?$CSmartPtrToNonClass@VRadialGradientBrush@@@@6B@" PURGE="-1" COMMENT="" />
    <EXPORT ORDINAL="747" NAME="??_7?$CSmartPtrToNonClass@VReachPackage@@@@6B@" PURGE="-1" COMMENT="" />
    <EXPORT ORDINAL="748" NAME="??_7?$CSmartPtrToNonClass@VRelationship@@@@6B@" PURGE="-1" COMMENT="" />
    <EXPORT ORDINAL="749" NAME="??_7?$CSmartPtrToNonClass@VRelationshipID@@@@6B@" PURGE="-1" COMMENT="" />
    <EXPORT ORDINAL="750" NAME="??_7?$CSmartPtrToNonClass@VRelationships@@@@6B@" PURGE="-1" COMMENT="" />
    <EXPORT ORDINAL="751" NAME="??_7?$CSmartPtrToNonClass@VST_Boolean@@@@6B@" PURGE="-1" COMMENT="" />
    <EXPORT ORDINAL="752" NAME="??_7?$CSmartPtrToNonClass@VST_CaretStop@@@@6B@" PURGE="-1" COMMENT="" />
    <EXPORT ORDINAL="753" NAME="??_7?$CSmartPtrToNonClass@VST_EvenArray@@@@6B@" PURGE="-1" COMMENT="" />
    <EXPORT ORDINAL="754" NAME="??_7?$CSmartPtrToNonClass@VST_GEZero@@@@6B@" PURGE="-1" COMMENT="" />
    <EXPORT ORDINAL="755" NAME="??_7?$CSmartPtrToNonClass@VST_Indices@@@@6B@" PURGE="-1" COMMENT="" />
    <EXPORT ORDINAL="756" NAME="??_7?$CSmartPtrToNonClass@VST_IntGEOne@@@@6B@" PURGE="-1" COMMENT="" />
    <EXPORT ORDINAL="757" NAME="??_7?$CSmartPtrToNonClass@VST_Name@@@@6B@" PURGE="-1" COMMENT="" />
    <EXPORT ORDINAL="758" NAME="??_7?$CSmartPtrToNonClass@VST_RscRefColor@@@@6B@" PURGE="-1" COMMENT="" />
    <EXPORT ORDINAL="759" NAME="??_7?$CSmartPtrToNonClass@VST_RscRefMatrix@@@@6B@" PURGE="-1" COMMENT="" />
    <EXPORT ORDINAL="760" NAME="??_7?$CSmartPtrToNonClass@VST_TableSpan@@@@6B@" PURGE="-1" COMMENT="" />
    <EXPORT ORDINAL="761" NAME="??_7?$CSmartPtrToNonClass@VST_UnicodeString@@@@6B@" PURGE="-1" COMMENT="" />
    <EXPORT ORDINAL="762" NAME="??_7?$CSmartPtrToNonClass@VST_ZeroOne@@@@6B@" PURGE="-1" COMMENT="" />
    <EXPORT ORDINAL="763" NAME="??_7?$CSmartPtrToNonClass@VSectionStructure@@@@6B@" PURGE="-1" COMMENT="" />
    <EXPORT ORDINAL="764" NAME="??_7?$CSmartPtrToNonClass@VSegment@@@@6B@" PURGE="-1" COMMENT="" />
    <EXPORT ORDINAL="765" NAME="??_7?$CSmartPtrToNonClass@VSolidColorBrush@@@@6B@" PURGE="-1" COMMENT="" />
    <EXPORT ORDINAL="766" NAME="??_7?$CSmartPtrToNonClass@VStory@@@@6B@" PURGE="-1" COMMENT="" />
    <EXPORT ORDINAL="767" NAME="??_7?$CSmartPtrToNonClass@VStoryFragment@@@@6B@" PURGE="-1" COMMENT="" />
    <EXPORT ORDINAL="768" NAME="??_7?$CSmartPtrToNonClass@VStoryFragmentReference@@@@6B@" PURGE="-1" COMMENT="" />
    <EXPORT ORDINAL="769" NAME="??_7?$CSmartPtrToNonClass@VStoryFragments@@@@6B@" PURGE="-1" COMMENT="" />
    <EXPORT ORDINAL="770" NAME="??_7?$CSmartPtrToNonClass@VStructure@@@@6B@" PURGE="-1" COMMENT="" />
    <EXPORT ORDINAL="771" NAME="??_7?$CSmartPtrToNonClass@VStructureElement@@@@6B@" PURGE="-1" COMMENT="" />
    <EXPORT ORDINAL="772" NAME="??_7?$CSmartPtrToNonClass@VTableCellStructure@@@@6B@" PURGE="-1" COMMENT="" />
    <EXPORT ORDINAL="773" NAME="??_7?$CSmartPtrToNonClass@VTableRowGroupStructure@@@@6B@" PURGE="-1" COMMENT="" />
    <EXPORT ORDINAL="774" NAME="??_7?$CSmartPtrToNonClass@VTableRowStructure@@@@6B@" PURGE="-1" COMMENT="" />
    <EXPORT ORDINAL="775" NAME="??_7?$CSmartPtrToNonClass@VTableStructure@@@@6B@" PURGE="-1" COMMENT="" />
    <EXPORT ORDINAL="776" NAME="??_7?$CSmartPtrToNonClass@VThumbnail@@@@6B@" PURGE="-1" COMMENT="" />
    <EXPORT ORDINAL="777" NAME="??_7?$CSmartPtrToNonClass@VVisualBrush@@@@6B@" PURGE="-1" COMMENT="" />
    <EXPORT ORDINAL="778" NAME="??_7?$CSmartPtrToNonClass@VX_Key@@@@6B@" PURGE="-1" COMMENT="" />
    <EXPORT ORDINAL="779" NAME="??_7?$CSmartPtrToNonClass@VZipReader@@@@6B@" PURGE="-1" COMMENT="" />
    <EXPORT ORDINAL="780" NAME="??_7?$CSmartPtrToNonClass@VZipWriter@@@@6B@" PURGE="-1" COMMENT="" />
    <EXPORT ORDINAL="781" NAME="?AttachWithNoDeallocation@?$CSmartPtrToNonClass@VPackURI@@@@QAEXPAVPackURI@@@Z" PURGE="4" COMMENT="" />
    <EXPORT ORDINAL="782" NAME="?AttachWithNoDeallocation@?$CSmartPtrToNonClass@VPartName@@@@QAEXPAVPartName@@@Z" PURGE="4" COMMENT="" />
    <EXPORT ORDINAL="783" NAME="?CastToPointer@?$CSmartPtr@VAnnotation@@@@QBEPAVAnnotation@@XZ" PURGE="0" COMMENT="" />
    <EXPORT ORDINAL="784" NAME="?CastToPointer@?$CSmartPtr@VArcSegment@@@@QBEPAVArcSegment@@XZ" PURGE="0" COMMENT="" />
    <EXPORT ORDINAL="785" NAME="?CastToPointer@?$CSmartPtr@VBrush@@@@QBEPAVBrush@@XZ" PURGE="0" COMMENT="" />
    <EXPORT ORDINAL="786" NAME="?CastToPointer@?$CSmartPtr@VCanvas@@@@QBEPAVCanvas@@XZ" PURGE="0" COMMENT="" />
    <EXPORT ORDINAL="787" NAME="?CastToPointer@?$CSmartPtr@VContentTypeLookup@@@@QBEPAVContentTypeLookup@@XZ" PURGE="0" COMMENT="" />
    <EXPORT ORDINAL="788" NAME="?CastToPointer@?$CSmartPtr@VContentTypeParser@@@@QBEPAVContentTypeParser@@XZ" PURGE="0" COMMENT="" />
    <EXPORT ORDINAL="789" NAME="?CastToPointer@?$CSmartPtr@VDocumentOutline@@@@QBEPAVDocumentOutline@@XZ" PURGE="0" COMMENT="" />
    <EXPORT ORDINAL="790" NAME="?CastToPointer@?$CSmartPtr@VDocumentStructure@@@@QBEPAVDocumentStructure@@XZ" PURGE="0" COMMENT="" />
    <EXPORT ORDINAL="791" NAME="?CastToPointer@?$CSmartPtr@VFigureStructure@@@@QBEPAVFigureStructure@@XZ" PURGE="0" COMMENT="" />
    <EXPORT ORDINAL="792" NAME="?CastToPointer@?$CSmartPtr@VFixedDocument@@@@QBEPAVFixedDocument@@XZ" PURGE="0" COMMENT="" />
    <EXPORT ORDINAL="793" NAME="?CastToPointer@?$CSmartPtr@VFixedDocumentParser@@@@QBEPAVFixedDocumentParser@@XZ" PURGE="0" COMMENT="" />
    <EXPORT ORDINAL="794" NAME="?CastToPointer@?$CSmartPtr@VFixedDocumentSequence@@@@QBEPAVFixedDocumentSequence@@XZ" PURGE="0" COMMENT="" />
    <EXPORT ORDINAL="795" NAME="?CastToPointer@?$CSmartPtr@VFixedPage@@@@QBEPAVFixedPage@@XZ" PURGE="0" COMMENT="" />
    <EXPORT ORDINAL="796" NAME="?CastToPointer@?$CSmartPtr@VFont@@@@QBEPAVFont@@XZ" PURGE="0" COMMENT="" />
    <EXPORT ORDINAL="797" NAME="?CastToPointer@?$CSmartPtr@VGlyphs@@@@QBEPAVGlyphs@@XZ" PURGE="0" COMMENT="" />
    <EXPORT ORDINAL="798" NAME="?CastToPointer@?$CSmartPtr@VGradientBrush@@@@QBEPAVGradientBrush@@XZ" PURGE="0" COMMENT="" />
    <EXPORT ORDINAL="799" NAME="?CastToPointer@?$CSmartPtr@VGradientStop@@@@QBEPAVGradientStop@@XZ" PURGE="0" COMMENT="" />
    <EXPORT ORDINAL="800" NAME="?CastToPointer@?$CSmartPtr@VImage@@@@QBEPAVImage@@XZ" PURGE="0" COMMENT="" />
    <EXPORT ORDINAL="801" NAME="?CastToPointer@?$CSmartPtr@VImageBrush@@@@QBEPAVImageBrush@@XZ" PURGE="0" COMMENT="" />
    <EXPORT ORDINAL="802" NAME="?CastToPointer@?$CSmartPtr@VLang@@@@QBEPAVLang@@XZ" PURGE="0" COMMENT="" />
    <EXPORT ORDINAL="803" NAME="?CastToPointer@?$CSmartPtr@VLinearGradientBrush@@@@QBEPAVLinearGradientBrush@@XZ" PURGE="0" COMMENT="" />
    <EXPORT ORDINAL="804" NAME="?CastToPointer@?$CSmartPtr@VLinkTarget@@@@QBEPAVLinkTarget@@XZ" PURGE="0" COMMENT="" />
    <EXPORT ORDINAL="805" NAME="?CastToPointer@?$CSmartPtr@VListItemStructure@@@@QBEPAVListItemStructure@@XZ" PURGE="0" COMMENT="" />
    <EXPORT ORDINAL="806" NAME="?CastToPointer@?$CSmartPtr@VListStructure@@@@QBEPAVListStructure@@XZ" PURGE="0" COMMENT="" />
    <EXPORT ORDINAL="807" NAME="?CastToPointer@?$CSmartPtr@VMetroData@@@@QBEPAVMetroData@@XZ" PURGE="0" COMMENT="" />
    <EXPORT ORDINAL="808" NAME="?CastToPointer@?$CSmartPtr@VMetroPart@@@@QBEPAVMetroPart@@XZ" PURGE="0" COMMENT="" />
    <EXPORT ORDINAL="809" NAME="?CastToPointer@?$CSmartPtr@VMetroReader@@@@QBEPAVMetroReader@@XZ" PURGE="0" COMMENT="" />
    <EXPORT ORDINAL="810" NAME="?CastToPointer@?$CSmartPtr@VMetroWriter@@@@QBEPAVMetroWriter@@XZ" PURGE="0" COMMENT="" />
    <EXPORT ORDINAL="811" NAME="?CastToPointer@?$CSmartPtr@VNamedElement@@@@QBEPAVNamedElement@@XZ" PURGE="0" COMMENT="" />
    <EXPORT ORDINAL="812" NAME="?CastToPointer@?$CSmartPtr@VOutlineEntry@@@@QBEPAVOutlineEntry@@XZ" PURGE="0" COMMENT="" />
    <EXPORT ORDINAL="813" NAME="?CastToPointer@?$CSmartPtr@VPackURI@@@@QBEPAVPackURI@@XZ" PURGE="0" COMMENT="" />
    <EXPORT ORDINAL="814" NAME="?CastToPointer@?$CSmartPtr@VPageContent@@@@QBEPAVPageContent@@XZ" PURGE="0" COMMENT="" />
    <EXPORT ORDINAL="815" NAME="?CastToPointer@?$CSmartPtr@VPageElement@@@@QBEPAVPageElement@@XZ" PURGE="0" COMMENT="" />
    <EXPORT ORDINAL="816" NAME="?CastToPointer@?$CSmartPtr@VParagraphStructure@@@@QBEPAVParagraphStructure@@XZ" PURGE="0" COMMENT="" />
    <EXPORT ORDINAL="817" NAME="?CastToPointer@?$CSmartPtr@VPartName@@@@QBEPAVPartName@@XZ" PURGE="0" COMMENT="" />
    <EXPORT ORDINAL="818" NAME="?CastToPointer@?$CSmartPtr@VPath@@@@QBEPAVPath@@XZ" PURGE="0" COMMENT="" />
    <EXPORT ORDINAL="819" NAME="?CastToPointer@?$CSmartPtr@VPathFigure@@@@QBEPAVPathFigure@@XZ" PURGE="0" COMMENT="" />
    <EXPORT ORDINAL="820" NAME="?CastToPointer@?$CSmartPtr@VPathGeometry@@@@QBEPAVPathGeometry@@XZ" PURGE="0" COMMENT="" />
    <EXPORT ORDINAL="821" NAME="?CastToPointer@?$CSmartPtr@VPolyBezierSegment@@@@QBEPAVPolyBezierSegment@@XZ" PURGE="0" COMMENT="" />
    <EXPORT ORDINAL="822" NAME="?CastToPointer@?$CSmartPtr@VPolyLineSegment@@@@QBEPAVPolyLineSegment@@XZ" PURGE="0" COMMENT="" />
    <EXPORT ORDINAL="823" NAME="?CastToPointer@?$CSmartPtr@VPolyQuadraticBezierSegment@@@@QBEPAVPolyQuadraticBezierSegment@@XZ" PURGE="0" COMMENT="" />
    <EXPORT ORDINAL="824" NAME="?CastToPointer@?$CSmartPtr@VPrintTicket@@@@QBEPAVPrintTicket@@XZ" PURGE="0" COMMENT="" />
    <EXPORT ORDINAL="825" NAME="?CastToPointer@?$CSmartPtr@VRadialGradientBrush@@@@QBEPAVRadialGradientBrush@@XZ" PURGE="0" COMMENT="" />
    <EXPORT ORDINAL="826" NAME="?CastToPointer@?$CSmartPtr@VReachPackage@@@@QBEPAVReachPackage@@XZ" PURGE="0" COMMENT="" />
    <EXPORT ORDINAL="827" NAME="?CastToPointer@?$CSmartPtr@VRelationship@@@@QBEPAVRelationship@@XZ" PURGE="0" COMMENT="" />
    <EXPORT ORDINAL="828" NAME="?CastToPointer@?$CSmartPtr@VRelationshipID@@@@QBEPAVRelationshipID@@XZ" PURGE="0" COMMENT="" />
    <EXPORT ORDINAL="829" NAME="?CastToPointer@?$CSmartPtr@VRelationships@@@@QBEPAVRelationships@@XZ" PURGE="0" COMMENT="" />
    <EXPORT ORDINAL="830" NAME="?CastToPointer@?$CSmartPtr@VST_Boolean@@@@QBEPAVST_Boolean@@XZ" PURGE="0" COMMENT="" />
    <EXPORT ORDINAL="831" NAME="?CastToPointer@?$CSmartPtr@VST_CaretStop@@@@QBEPAVST_CaretStop@@XZ" PURGE="0" COMMENT="" />
    <EXPORT ORDINAL="832" NAME="?CastToPointer@?$CSmartPtr@VST_EvenArray@@@@QBEPAVST_EvenArray@@XZ" PURGE="0" COMMENT="" />
    <EXPORT ORDINAL="833" NAME="?CastToPointer@?$CSmartPtr@VST_GEZero@@@@QBEPAVST_GEZero@@XZ" PURGE="0" COMMENT="" />
    <EXPORT ORDINAL="834" NAME="?CastToPointer@?$CSmartPtr@VST_Indices@@@@QBEPAVST_Indices@@XZ" PURGE="0" COMMENT="" />
    <EXPORT ORDINAL="835" NAME="?CastToPointer@?$CSmartPtr@VST_IntGEOne@@@@QBEPAVST_IntGEOne@@XZ" PURGE="0" COMMENT="" />
    <EXPORT ORDINAL="836" NAME="?CastToPointer@?$CSmartPtr@VST_Name@@@@QBEPAVST_Name@@XZ" PURGE="0" COMMENT="" />
    <EXPORT ORDINAL="837" NAME="?CastToPointer@?$CSmartPtr@VST_RscRefColor@@@@QBEPAVST_RscRefColor@@XZ" PURGE="0" COMMENT="" />
    <EXPORT ORDINAL="838" NAME="?CastToPointer@?$CSmartPtr@VST_RscRefMatrix@@@@QBEPAVST_RscRefMatrix@@XZ" PURGE="0" COMMENT="" />
    <EXPORT ORDINAL="839" NAME="?CastToPointer@?$CSmartPtr@VST_TableSpan@@@@QBEPAVST_TableSpan@@XZ" PURGE="0" COMMENT="" />
    <EXPORT ORDINAL="840" NAME="?CastToPointer@?$CSmartPtr@VST_UnicodeString@@@@QBEPAVST_UnicodeString@@XZ" PURGE="0" COMMENT="" />
    <EXPORT ORDINAL="841" NAME="?CastToPointer@?$CSmartPtr@VST_ZeroOne@@@@QBEPAVST_ZeroOne@@XZ" PURGE="0" COMMENT="" />
    <EXPORT ORDINAL="842" NAME="?CastToPointer@?$CSmartPtr@VSectionStructure@@@@QBEPAVSectionStructure@@XZ" PURGE="0" COMMENT="" />
    <EXPORT ORDINAL="843" NAME="?CastToPointer@?$CSmartPtr@VSegment@@@@QBEPAVSegment@@XZ" PURGE="0" COMMENT="" />
    <EXPORT ORDINAL="844" NAME="?CastToPointer@?$CSmartPtr@VSolidColorBrush@@@@QBEPAVSolidColorBrush@@XZ" PURGE="0" COMMENT="" />
    <EXPORT ORDINAL="845" NAME="?CastToPointer@?$CSmartPtr@VStory@@@@QBEPAVStory@@XZ" PURGE="0" COMMENT="" />
    <EXPORT ORDINAL="846" NAME="?CastToPointer@?$CSmartPtr@VStoryFragment@@@@QBEPAVStoryFragment@@XZ" PURGE="0" COMMENT="" />
    <EXPORT ORDINAL="847" NAME="?CastToPointer@?$CSmartPtr@VStoryFragmentReference@@@@QBEPAVStoryFragmentReference@@XZ" PURGE="0" COMMENT="" />
    <EXPORT ORDINAL="848" NAME="?CastToPointer@?$CSmartPtr@VStoryFragments@@@@QBEPAVStoryFragments@@XZ" PURGE="0" COMMENT="" />
    <EXPORT ORDINAL="849" NAME="?CastToPointer@?$CSmartPtr@VStructure@@@@QBEPAVStructure@@XZ" PURGE="0" COMMENT="" />
    <EXPORT ORDINAL="850" NAME="?CastToPointer@?$CSmartPtr@VStructureElement@@@@QBEPAVStructureElement@@XZ" PURGE="0" COMMENT="" />
    <EXPORT ORDINAL="851" NAME="?CastToPointer@?$CSmartPtr@VTableCellStructure@@@@QBEPAVTableCellStructure@@XZ" PURGE="0" COMMENT="" />
    <EXPORT ORDINAL="852" NAME="?CastToPointer@?$CSmartPtr@VTableRowGroupStructure@@@@QBEPAVTableRowGroupStructure@@XZ" PURGE="0" COMMENT="" />
    <EXPORT ORDINAL="853" NAME="?CastToPointer@?$CSmartPtr@VTableRowStructure@@@@QBEPAVTableRowStructure@@XZ" PURGE="0" COMMENT="" />
    <EXPORT ORDINAL="854" NAME="?CastToPointer@?$CSmartPtr@VTableStructure@@@@QBEPAVTableStructure@@XZ" PURGE="0" COMMENT="" />
    <EXPORT ORDINAL="855" NAME="?CastToPointer@?$CSmartPtr@VThumbnail@@@@QBEPAVThumbnail@@XZ" PURGE="0" COMMENT="" />
    <EXPORT ORDINAL="856" NAME="?CastToPointer@?$CSmartPtr@VVisualBrush@@@@QBEPAVVisualBrush@@XZ" PURGE="0" COMMENT="" />
    <EXPORT ORDINAL="857" NAME="?CastToPointer@?$CSmartPtr@VX_Key@@@@QBEPAVX_Key@@XZ" PURGE="0" COMMENT="" />
    <EXPORT ORDINAL="858" NAME="?CastToPointer@?$CSmartPtr@VZipReader@@@@QBEPAVZipReader@@XZ" PURGE="0" COMMENT="" />
    <EXPORT ORDINAL="859" NAME="?CastToPointer@?$CSmartPtr@VZipWriter@@@@QBEPAVZipWriter@@XZ" PURGE="0" COMMENT="" />
    <EXPORT ORDINAL="860" NAME="?CastToPointer@?$CSmartPtrToNonClass@VAnnotation@@@@QBEPAVAnnotation@@XZ" PURGE="0" COMMENT="" />
    <EXPORT ORDINAL="861" NAME="?CastToPointer@?$CSmartPtrToNonClass@VArcSegment@@@@QBEPAVArcSegment@@XZ" PURGE="0" COMMENT="" />
    <EXPORT ORDINAL="862" NAME="?CastToPointer@?$CSmartPtrToNonClass@VBrush@@@@QBEPAVBrush@@XZ" PURGE="0" COMMENT="" />
    <EXPORT ORDINAL="863" NAME="?CastToPointer@?$CSmartPtrToNonClass@VCanvas@@@@QBEPAVCanvas@@XZ" PURGE="0" COMMENT="" />
    <EXPORT ORDINAL="864" NAME="?CastToPointer@?$CSmartPtrToNonClass@VContentTypeLookup@@@@QBEPAVContentTypeLookup@@XZ" PURGE="0" COMMENT="" />
    <EXPORT ORDINAL="865" NAME="?CastToPointer@?$CSmartPtrToNonClass@VContentTypeParser@@@@QBEPAVContentTypeParser@@XZ" PURGE="0" COMMENT="" />
    <EXPORT ORDINAL="866" NAME="?CastToPointer@?$CSmartPtrToNonClass@VDocumentOutline@@@@QBEPAVDocumentOutline@@XZ" PURGE="0" COMMENT="" />
    <EXPORT ORDINAL="867" NAME="?CastToPointer@?$CSmartPtrToNonClass@VDocumentStructure@@@@QBEPAVDocumentStructure@@XZ" PURGE="0" COMMENT="" />
    <EXPORT ORDINAL="868" NAME="?CastToPointer@?$CSmartPtrToNonClass@VFigureStructure@@@@QBEPAVFigureStructure@@XZ" PURGE="0" COMMENT="" />
    <EXPORT ORDINAL="869" NAME="?CastToPointer@?$CSmartPtrToNonClass@VFixedDocument@@@@QBEPAVFixedDocument@@XZ" PURGE="0" COMMENT="" />
    <EXPORT ORDINAL="870" NAME="?CastToPointer@?$CSmartPtrToNonClass@VFixedDocumentParser@@@@QBEPAVFixedDocumentParser@@XZ" PURGE="0" COMMENT="" />
    <EXPORT ORDINAL="871" NAME="?CastToPointer@?$CSmartPtrToNonClass@VFixedDocumentSequence@@@@QBEPAVFixedDocumentSequence@@XZ" PURGE="0" COMMENT="" />
    <EXPORT ORDINAL="872" NAME="?CastToPointer@?$CSmartPtrToNonClass@VFixedPage@@@@QBEPAVFixedPage@@XZ" PURGE="0" COMMENT="" />
    <EXPORT ORDINAL="873" NAME="?CastToPointer@?$CSmartPtrToNonClass@VFont@@@@QBEPAVFont@@XZ" PURGE="0" COMMENT="" />
    <EXPORT ORDINAL="874" NAME="?CastToPointer@?$CSmartPtrToNonClass@VGlyphs@@@@QBEPAVGlyphs@@XZ" PURGE="0" COMMENT="" />
    <EXPORT ORDINAL="875" NAME="?CastToPointer@?$CSmartPtrToNonClass@VGradientBrush@@@@QBEPAVGradientBrush@@XZ" PURGE="0" COMMENT="" />
    <EXPORT ORDINAL="876" NAME="?CastToPointer@?$CSmartPtrToNonClass@VGradientStop@@@@QBEPAVGradientStop@@XZ" PURGE="0" COMMENT="" />
    <EXPORT ORDINAL="877" NAME="?CastToPointer@?$CSmartPtrToNonClass@VImage@@@@QBEPAVImage@@XZ" PURGE="0" COMMENT="" />
    <EXPORT ORDINAL="878" NAME="?CastToPointer@?$CSmartPtrToNonClass@VImageBrush@@@@QBEPAVImageBrush@@XZ" PURGE="0" COMMENT="" />
    <EXPORT ORDINAL="879" NAME="?CastToPointer@?$CSmartPtrToNonClass@VLang@@@@QBEPAVLang@@XZ" PURGE="0" COMMENT="" />
    <EXPORT ORDINAL="880" NAME="?CastToPointer@?$CSmartPtrToNonClass@VLinearGradientBrush@@@@QBEPAVLinearGradientBrush@@XZ" PURGE="0" COMMENT="" />
    <EXPORT ORDINAL="881" NAME="?CastToPointer@?$CSmartPtrToNonClass@VLinkTarget@@@@QBEPAVLinkTarget@@XZ" PURGE="0" COMMENT="" />
    <EXPORT ORDINAL="882" NAME="?CastToPointer@?$CSmartPtrToNonClass@VListItemStructure@@@@QBEPAVListItemStructure@@XZ" PURGE="0" COMMENT="" />
    <EXPORT ORDINAL="883" NAME="?CastToPointer@?$CSmartPtrToNonClass@VListStructure@@@@QBEPAVListStructure@@XZ" PURGE="0" COMMENT="" />
    <EXPORT ORDINAL="884" NAME="?CastToPointer@?$CSmartPtrToNonClass@VMetroData@@@@QBEPAVMetroData@@XZ" PURGE="0" COMMENT="" />
    <EXPORT ORDINAL="885" NAME="?CastToPointer@?$CSmartPtrToNonClass@VMetroPart@@@@QBEPAVMetroPart@@XZ" PURGE="0" COMMENT="" />
    <EXPORT ORDINAL="886" NAME="?CastToPointer@?$CSmartPtrToNonClass@VMetroReader@@@@QBEPAVMetroReader@@XZ" PURGE="0" COMMENT="" />
    <EXPORT ORDINAL="887" NAME="?CastToPointer@?$CSmartPtrToNonClass@VMetroWriter@@@@QBEPAVMetroWriter@@XZ" PURGE="0" COMMENT="" />
    <EXPORT ORDINAL="888" NAME="?CastToPointer@?$CSmartPtrToNonClass@VNamedElement@@@@QBEPAVNamedElement@@XZ" PURGE="0" COMMENT="" />
    <EXPORT ORDINAL="889" NAME="?CastToPointer@?$CSmartPtrToNonClass@VOutlineEntry@@@@QBEPAVOutlineEntry@@XZ" PURGE="0" COMMENT="" />
    <EXPORT ORDINAL="890" NAME="?CastToPointer@?$CSmartPtrToNonClass@VPackURI@@@@QBEPAVPackURI@@XZ" PURGE="0" COMMENT="" />
    <EXPORT ORDINAL="891" NAME="?CastToPointer@?$CSmartPtrToNonClass@VPageContent@@@@QBEPAVPageContent@@XZ" PURGE="0" COMMENT="" />
    <EXPORT ORDINAL="892" NAME="?CastToPointer@?$CSmartPtrToNonClass@VPageElement@@@@QBEPAVPageElement@@XZ" PURGE="0" COMMENT="" />
    <EXPORT ORDINAL="893" NAME="?CastToPointer@?$CSmartPtrToNonClass@VParagraphStructure@@@@QBEPAVParagraphStructure@@XZ" PURGE="0" COMMENT="" />
    <EXPORT ORDINAL="894" NAME="?CastToPointer@?$CSmartPtrToNonClass@VPartName@@@@QBEPAVPartName@@XZ" PURGE="0" COMMENT="" />
    <EXPORT ORDINAL="895" NAME="?CastToPointer@?$CSmartPtrToNonClass@VPath@@@@QBEPAVPath@@XZ" PURGE="0" COMMENT="" />
    <EXPORT ORDINAL="896" NAME="?CastToPointer@?$CSmartPtrToNonClass@VPathFigure@@@@QBEPAVPathFigure@@XZ" PURGE="0" COMMENT="" />
    <EXPORT ORDINAL="897" NAME="?CastToPointer@?$CSmartPtrToNonClass@VPathGeometry@@@@QBEPAVPathGeometry@@XZ" PURGE="0" COMMENT="" />
    <EXPORT ORDINAL="898" NAME="?CastToPointer@?$CSmartPtrToNonClass@VPolyBezierSegment@@@@QBEPAVPolyBezierSegment@@XZ" PURGE="0" COMMENT="" />
    <EXPORT ORDINAL="899" NAME="?CastToPointer@?$CSmartPtrToNonClass@VPolyLineSegment@@@@QBEPAVPolyLineSegment@@XZ" PURGE="0" COMMENT="" />
    <EXPORT ORDINAL="900" NAME="?CastToPointer@?$CSmartPtrToNonClass@VPolyQuadraticBezierSegment@@@@QBEPAVPolyQuadraticBezierSegment@@XZ" PURGE="0" COMMENT="" />
    <EXPORT ORDINAL="901" NAME="?CastToPointer@?$CSmartPtrToNonClass@VPrintTicket@@@@QBEPAVPrintTicket@@XZ" PURGE="0" COMMENT="" />
    <EXPORT ORDINAL="902" NAME="?CastToPointer@?$CSmartPtrToNonClass@VRadialGradientBrush@@@@QBEPAVRadialGradientBrush@@XZ" PURGE="0" COMMENT="" />
    <EXPORT ORDINAL="903" NAME="?CastToPointer@?$CSmartPtrToNonClass@VReachPackage@@@@QBEPAVReachPackage@@XZ" PURGE="0" COMMENT="" />
    <EXPORT ORDINAL="904" NAME="?CastToPointer@?$CSmartPtrToNonClass@VRelationship@@@@QBEPAVRelationship@@XZ" PURGE="0" COMMENT="" />
    <EXPORT ORDINAL="905" NAME="?CastToPointer@?$CSmartPtrToNonClass@VRelationshipID@@@@QBEPAVRelationshipID@@XZ" PURGE="0" COMMENT="" />
    <EXPORT ORDINAL="906" NAME="?CastToPointer@?$CSmartPtrToNonClass@VRelationships@@@@QBEPAVRelationships@@XZ" PURGE="0" COMMENT="" />
    <EXPORT ORDINAL="907" NAME="?CastToPointer@?$CSmartPtrToNonClass@VST_Boolean@@@@QBEPAVST_Boolean@@XZ" PURGE="0" COMMENT="" />
    <EXPORT ORDINAL="908" NAME="?CastToPointer@?$CSmartPtrToNonClass@VST_CaretStop@@@@QBEPAVST_CaretStop@@XZ" PURGE="0" COMMENT="" />
    <EXPORT ORDINAL="909" NAME="?CastToPointer@?$CSmartPtrToNonClass@VST_EvenArray@@@@QBEPAVST_EvenArray@@XZ" PURGE="0" COMMENT="" />
    <EXPORT ORDINAL="910" NAME="?CastToPointer@?$CSmartPtrToNonClass@VST_GEZero@@@@QBEPAVST_GEZero@@XZ" PURGE="0" COMMENT="" />
    <EXPORT ORDINAL="911" NAME="?CastToPointer@?$CSmartPtrToNonClass@VST_Indices@@@@QBEPAVST_Indices@@XZ" PURGE="0" COMMENT="" />
    <EXPORT ORDINAL="912" NAME="?CastToPointer@?$CSmartPtrToNonClass@VST_IntGEOne@@@@QBEPAVST_IntGEOne@@XZ" PURGE="0" COMMENT="" />
    <EXPORT ORDINAL="913" NAME="?CastToPointer@?$CSmartPtrToNonClass@VST_Name@@@@QBEPAVST_Name@@XZ" PURGE="0" COMMENT="" />
    <EXPORT ORDINAL="914" NAME="?CastToPointer@?$CSmartPtrToNonClass@VST_RscRefColor@@@@QBEPAVST_RscRefColor@@XZ" PURGE="0" COMMENT="" />
    <EXPORT ORDINAL="915" NAME="?CastToPointer@?$CSmartPtrToNonClass@VST_RscRefMatrix@@@@QBEPAVST_RscRefMatrix@@XZ" PURGE="0" COMMENT="" />
    <EXPORT ORDINAL="916" NAME="?CastToPointer@?$CSmartPtrToNonClass@VST_TableSpan@@@@QBEPAVST_TableSpan@@XZ" PURGE="0" COMMENT="" />
    <EXPORT ORDINAL="917" NAME="?CastToPointer@?$CSmartPtrToNonClass@VST_UnicodeString@@@@QBEPAVST_UnicodeString@@XZ" PURGE="0" COMMENT="" />
    <EXPORT ORDINAL="918" NAME="?CastToPointer@?$CSmartPtrToNonClass@VST_ZeroOne@@@@QBEPAVST_ZeroOne@@XZ" PURGE="0" COMMENT="" />
    <EXPORT ORDINAL="919" NAME="?CastToPointer@?$CSmartPtrToNonClass@VSectionStructure@@@@QBEPAVSectionStructure@@XZ" PURGE="0" COMMENT="" />
    <EXPORT ORDINAL="920" NAME="?CastToPointer@?$CSmartPtrToNonClass@VSegment@@@@QBEPAVSegment@@XZ" PURGE="0" COMMENT="" />
    <EXPORT ORDINAL="921" NAME="?CastToPointer@?$CSmartPtrToNonClass@VSolidColorBrush@@@@QBEPAVSolidColorBrush@@XZ" PURGE="0" COMMENT="" />
    <EXPORT ORDINAL="922" NAME="?CastToPointer@?$CSmartPtrToNonClass@VStory@@@@QBEPAVStory@@XZ" PURGE="0" COMMENT="" />
    <EXPORT ORDINAL="923" NAME="?CastToPointer@?$CSmartPtrToNonClass@VStoryFragment@@@@QBEPAVStoryFragment@@XZ" PURGE="0" COMMENT="" />
    <EXPORT ORDINAL="924" NAME="?CastToPointer@?$CSmartPtrToNonClass@VStoryFragmentReference@@@@QBEPAVStoryFragmentReference@@XZ" PURGE="0" COMMENT="" />
    <EXPORT ORDINAL="925" NAME="?CastToPointer@?$CSmartPtrToNonClass@VStoryFragments@@@@QBEPAVStoryFragments@@XZ" PURGE="0" COMMENT="" />
    <EXPORT ORDINAL="926" NAME="?CastToPointer@?$CSmartPtrToNonClass@VStructure@@@@QBEPAVStructure@@XZ" PURGE="0" COMMENT="" />
    <EXPORT ORDINAL="927" NAME="?CastToPointer@?$CSmartPtrToNonClass@VStructureElement@@@@QBEPAVStructureElement@@XZ" PURGE="0" COMMENT="" />
    <EXPORT ORDINAL="928" NAME="?CastToPointer@?$CSmartPtrToNonClass@VTableCellStructure@@@@QBEPAVTableCellStructure@@XZ" PURGE="0" COMMENT="" />
    <EXPORT ORDINAL="929" NAME="?CastToPointer@?$CSmartPtrToNonClass@VTableRowGroupStructure@@@@QBEPAVTableRowGroupStructure@@XZ" PURGE="0" COMMENT="" />
    <EXPORT ORDINAL="930" NAME="?CastToPointer@?$CSmartPtrToNonClass@VTableRowStructure@@@@QBEPAVTableRowStructure@@XZ" PURGE="0" COMMENT="" />
    <EXPORT ORDINAL="931" NAME="?CastToPointer@?$CSmartPtrToNonClass@VTableStructure@@@@QBEPAVTableStructure@@XZ" PURGE="0" COMMENT="" />
    <EXPORT ORDINAL="932" NAME="?CastToPointer@?$CSmartPtrToNonClass@VThumbnail@@@@QBEPAVThumbnail@@XZ" PURGE="0" COMMENT="" />
    <EXPORT ORDINAL="933" NAME="?CastToPointer@?$CSmartPtrToNonClass@VVisualBrush@@@@QBEPAVVisualBrush@@XZ" PURGE="0" COMMENT="" />
    <EXPORT ORDINAL="934" NAME="?CastToPointer@?$CSmartPtrToNonClass@VX_Key@@@@QBEPAVX_Key@@XZ" PURGE="0" COMMENT="" />
    <EXPORT ORDINAL="935" NAME="?CastToPointer@?$CSmartPtrToNonClass@VZipReader@@@@QBEPAVZipReader@@XZ" PURGE="0" COMMENT="" />
    <EXPORT ORDINAL="936" NAME="?CastToPointer@?$CSmartPtrToNonClass@VZipWriter@@@@QBEPAVZipWriter@@XZ" PURGE="0" COMMENT="" />
    <EXPORT ORDINAL="937" NAME="?CreateInstance@?$CSmartPtrToNonClass@VAnnotation@@@@KAPAVAnnotation@@H@Z" PURGE="0" COMMENT="" />
    <EXPORT ORDINAL="938" NAME="?CreateInstance@?$CSmartPtrToNonClass@VArcSegment@@@@KAPAVArcSegment@@H@Z" PURGE="0" COMMENT="" />
    <EXPORT ORDINAL="939" NAME="?CreateInstance@?$CSmartPtrToNonClass@VBrush@@@@KAPAVBrush@@H@Z" PURGE="0" COMMENT="" />
    <EXPORT ORDINAL="940" NAME="?CreateInstance@?$CSmartPtrToNonClass@VCanvas@@@@KAPAVCanvas@@H@Z" PURGE="0" COMMENT="" />
    <EXPORT ORDINAL="941" NAME="?CreateInstance@?$CSmartPtrToNonClass@VContentTypeLookup@@@@KAPAVContentTypeLookup@@H@Z" PURGE="0" COMMENT="" />
    <EXPORT ORDINAL="942" NAME="?CreateInstance@?$CSmartPtrToNonClass@VContentTypeParser@@@@KAPAVContentTypeParser@@H@Z" PURGE="0" COMMENT="" />
    <EXPORT ORDINAL="943" NAME="?CreateInstance@?$CSmartPtrToNonClass@VDigitalSignature@@@@KAPAVDigitalSignature@@H@Z" PURGE="0" COMMENT="" />
    <EXPORT ORDINAL="944" NAME="?CreateInstance@?$CSmartPtrToNonClass@VDocumentOutline@@@@KAPAVDocumentOutline@@H@Z" PURGE="0" COMMENT="" />
    <EXPORT ORDINAL="945" NAME="?CreateInstance@?$CSmartPtrToNonClass@VDocumentStructure@@@@KAPAVDocumentStructure@@H@Z" PURGE="0" COMMENT="" />
    <EXPORT ORDINAL="946" NAME="?CreateInstance@?$CSmartPtrToNonClass@VFigureStructure@@@@KAPAVFigureStructure@@H@Z" PURGE="0" COMMENT="" />
    <EXPORT ORDINAL="947" NAME="?CreateInstance@?$CSmartPtrToNonClass@VFixedDocument@@@@KAPAVFixedDocument@@H@Z" PURGE="0" COMMENT="" />
    <EXPORT ORDINAL="948" NAME="?CreateInstance@?$CSmartPtrToNonClass@VFixedDocumentParser@@@@KAPAVFixedDocumentParser@@H@Z" PURGE="0" COMMENT="" />
    <EXPORT ORDINAL="949" NAME="?CreateInstance@?$CSmartPtrToNonClass@VFixedDocumentSequence@@@@KAPAVFixedDocumentSequence@@H@Z" PURGE="0" COMMENT="" />
    <EXPORT ORDINAL="950" NAME="?CreateInstance@?$CSmartPtrToNonClass@VFixedPage@@@@KAPAVFixedPage@@H@Z" PURGE="0" COMMENT="" />
    <EXPORT ORDINAL="951" NAME="?CreateInstance@?$CSmartPtrToNonClass@VFont@@@@KAPAVFont@@H@Z" PURGE="0" COMMENT="" />
    <EXPORT ORDINAL="952" NAME="?CreateInstance@?$CSmartPtrToNonClass@VGlyphs@@@@KAPAVGlyphs@@H@Z" PURGE="0" COMMENT="" />
    <EXPORT ORDINAL="953" NAME="?CreateInstance@?$CSmartPtrToNonClass@VGradientStop@@@@KAPAVGradientStop@@H@Z" PURGE="0" COMMENT="" />
    <EXPORT ORDINAL="954" NAME="?CreateInstance@?$CSmartPtrToNonClass@VImage@@@@KAPAVImage@@H@Z" PURGE="0" COMMENT="" />
    <EXPORT ORDINAL="955" NAME="?CreateInstance@?$CSmartPtrToNonClass@VImageBrush@@@@KAPAVImageBrush@@H@Z" PURGE="0" COMMENT="" />
    <EXPORT ORDINAL="956" NAME="?CreateInstance@?$CSmartPtrToNonClass@VLang@@@@KAPAVLang@@H@Z" PURGE="0" COMMENT="" />
    <EXPORT ORDINAL="957" NAME="?CreateInstance@?$CSmartPtrToNonClass@VLinearGradientBrush@@@@KAPAVLinearGradientBrush@@H@Z" PURGE="0" COMMENT="" />
    <EXPORT ORDINAL="958" NAME="?CreateInstance@?$CSmartPtrToNonClass@VLinkTarget@@@@KAPAVLinkTarget@@H@Z" PURGE="0" COMMENT="" />
    <EXPORT ORDINAL="959" NAME="?CreateInstance@?$CSmartPtrToNonClass@VListItemStructure@@@@KAPAVListItemStructure@@H@Z" PURGE="0" COMMENT="" />
    <EXPORT ORDINAL="960" NAME="?CreateInstance@?$CSmartPtrToNonClass@VListStructure@@@@KAPAVListStructure@@H@Z" PURGE="0" COMMENT="" />
    <EXPORT ORDINAL="961" NAME="?CreateInstance@?$CSmartPtrToNonClass@VMetroData@@@@KAPAVMetroData@@H@Z" PURGE="0" COMMENT="" />
    <EXPORT ORDINAL="962" NAME="?CreateInstance@?$CSmartPtrToNonClass@VMetroPart@@@@KAPAVMetroPart@@H@Z" PURGE="0" COMMENT="" />
    <EXPORT ORDINAL="963" NAME="?CreateInstance@?$CSmartPtrToNonClass@VMetroReader@@@@KAPAVMetroReader@@H@Z" PURGE="0" COMMENT="" />
    <EXPORT ORDINAL="964" NAME="?CreateInstance@?$CSmartPtrToNonClass@VMetroWriter@@@@KAPAVMetroWriter@@H@Z" PURGE="0" COMMENT="" />
    <EXPORT ORDINAL="965" NAME="?CreateInstance@?$CSmartPtrToNonClass@VNamedElement@@@@KAPAVNamedElement@@H@Z" PURGE="0" COMMENT="" />
    <EXPORT ORDINAL="966" NAME="?CreateInstance@?$CSmartPtrToNonClass@VOutlineEntry@@@@KAPAVOutlineEntry@@H@Z" PURGE="0" COMMENT="" />
    <EXPORT ORDINAL="967" NAME="?CreateInstance@?$CSmartPtrToNonClass@VPackURI@@@@KAPAVPackURI@@H@Z" PURGE="0" COMMENT="" />
    <EXPORT ORDINAL="968" NAME="?CreateInstance@?$CSmartPtrToNonClass@VPageContent@@@@KAPAVPageContent@@H@Z" PURGE="0" COMMENT="" />
    <EXPORT ORDINAL="969" NAME="?CreateInstance@?$CSmartPtrToNonClass@VPageElement@@@@KAPAVPageElement@@H@Z" PURGE="0" COMMENT="" />
    <EXPORT ORDINAL="970" NAME="?CreateInstance@?$CSmartPtrToNonClass@VParagraphStructure@@@@KAPAVParagraphStructure@@H@Z" PURGE="0" COMMENT="" />
    <EXPORT ORDINAL="971" NAME="?CreateInstance@?$CSmartPtrToNonClass@VPartName@@@@KAPAVPartName@@H@Z" PURGE="0" COMMENT="" />
    <EXPORT ORDINAL="972" NAME="?CreateInstance@?$CSmartPtrToNonClass@VPath@@@@KAPAVPath@@H@Z" PURGE="0" COMMENT="" />
    <EXPORT ORDINAL="973" NAME="?CreateInstance@?$CSmartPtrToNonClass@VPathFigure@@@@KAPAVPathFigure@@H@Z" PURGE="0" COMMENT="" />
    <EXPORT ORDINAL="974" NAME="?CreateInstance@?$CSmartPtrToNonClass@VPathGeometry@@@@KAPAVPathGeometry@@H@Z" PURGE="0" COMMENT="" />
    <EXPORT ORDINAL="975" NAME="?CreateInstance@?$CSmartPtrToNonClass@VPolyBezierSegment@@@@KAPAVPolyBezierSegment@@H@Z" PURGE="0" COMMENT="" />
    <EXPORT ORDINAL="976" NAME="?CreateInstance@?$CSmartPtrToNonClass@VPolyLineSegment@@@@KAPAVPolyLineSegment@@H@Z" PURGE="0" COMMENT="" />
    <EXPORT ORDINAL="977" NAME="?CreateInstance@?$CSmartPtrToNonClass@VPolyQuadraticBezierSegment@@@@KAPAVPolyQuadraticBezierSegment@@H@Z" PURGE="0" COMMENT="" />
    <EXPORT ORDINAL="978" NAME="?CreateInstance@?$CSmartPtrToNonClass@VPrintTicket@@@@KAPAVPrintTicket@@H@Z" PURGE="0" COMMENT="" />
    <EXPORT ORDINAL="979" NAME="?CreateInstance@?$CSmartPtrToNonClass@VRadialGradientBrush@@@@KAPAVRadialGradientBrush@@H@Z" PURGE="0" COMMENT="" />
    <EXPORT ORDINAL="980" NAME="?CreateInstance@?$CSmartPtrToNonClass@VReachPackage@@@@KAPAVReachPackage@@H@Z" PURGE="0" COMMENT="" />
    <EXPORT ORDINAL="981" NAME="?CreateInstance@?$CSmartPtrToNonClass@VRelationship@@@@KAPAVRelationship@@H@Z" PURGE="0" COMMENT="" />
    <EXPORT ORDINAL="982" NAME="?CreateInstance@?$CSmartPtrToNonClass@VRelationshipID@@@@KAPAVRelationshipID@@H@Z" PURGE="0" COMMENT="" />
    <EXPORT ORDINAL="983" NAME="?CreateInstance@?$CSmartPtrToNonClass@VRelationships@@@@KAPAVRelationships@@H@Z" PURGE="0" COMMENT="" />
    <EXPORT ORDINAL="984" NAME="?CreateInstance@?$CSmartPtrToNonClass@VST_Boolean@@@@KAPAVST_Boolean@@H@Z" PURGE="0" COMMENT="" />
    <EXPORT ORDINAL="985" NAME="?CreateInstance@?$CSmartPtrToNonClass@VST_CaretStop@@@@KAPAVST_CaretStop@@H@Z" PURGE="0" COMMENT="" />
    <EXPORT ORDINAL="986" NAME="?CreateInstance@?$CSmartPtrToNonClass@VST_EvenArray@@@@KAPAVST_EvenArray@@H@Z" PURGE="0" COMMENT="" />
    <EXPORT ORDINAL="987" NAME="?CreateInstance@?$CSmartPtrToNonClass@VST_GEZero@@@@KAPAVST_GEZero@@H@Z" PURGE="0" COMMENT="" />
    <EXPORT ORDINAL="988" NAME="?CreateInstance@?$CSmartPtrToNonClass@VST_Indices@@@@KAPAVST_Indices@@H@Z" PURGE="0" COMMENT="" />
    <EXPORT ORDINAL="989" NAME="?CreateInstance@?$CSmartPtrToNonClass@VST_IntGEOne@@@@KAPAVST_IntGEOne@@H@Z" PURGE="0" COMMENT="" />
    <EXPORT ORDINAL="990" NAME="?CreateInstance@?$CSmartPtrToNonClass@VST_Name@@@@KAPAVST_Name@@H@Z" PURGE="0" COMMENT="" />
    <EXPORT ORDINAL="991" NAME="?CreateInstance@?$CSmartPtrToNonClass@VST_RscRefColor@@@@KAPAVST_RscRefColor@@H@Z" PURGE="0" COMMENT="" />
    <EXPORT ORDINAL="992" NAME="?CreateInstance@?$CSmartPtrToNonClass@VST_RscRefMatrix@@@@KAPAVST_RscRefMatrix@@H@Z" PURGE="0" COMMENT="" />
    <EXPORT ORDINAL="993" NAME="?CreateInstance@?$CSmartPtrToNonClass@VST_TableSpan@@@@KAPAVST_TableSpan@@H@Z" PURGE="0" COMMENT="" />
    <EXPORT ORDINAL="994" NAME="?CreateInstance@?$CSmartPtrToNonClass@VST_UnicodeString@@@@KAPAVST_UnicodeString@@H@Z" PURGE="0" COMMENT="" />
    <EXPORT ORDINAL="995" NAME="?CreateInstance@?$CSmartPtrToNonClass@VST_ZeroOne@@@@KAPAVST_ZeroOne@@H@Z" PURGE="0" COMMENT="" />
    <EXPORT ORDINAL="996" NAME="?CreateInstance@?$CSmartPtrToNonClass@VSectionStructure@@@@KAPAVSectionStructure@@H@Z" PURGE="0" COMMENT="" />
    <EXPORT ORDINAL="997" NAME="?CreateInstance@?$CSmartPtrToNonClass@VSegment@@@@KAPAVSegment@@H@Z" PURGE="0" COMMENT="" />
    <EXPORT ORDINAL="998" NAME="?CreateInstance@?$CSmartPtrToNonClass@VSolidColorBrush@@@@KAPAVSolidColorBrush@@H@Z" PURGE="0" COMMENT="" />
    <EXPORT ORDINAL="999" NAME="?CreateInstance@?$CSmartPtrToNonClass@VStory@@@@KAPAVStory@@H@Z" PURGE="0" COMMENT="" />
    <EXPORT ORDINAL="1000" NAME="?CreateInstance@?$CSmartPtrToNonClass@VStoryFragment@@@@KAPAVStoryFragment@@H@Z" PURGE="0" COMMENT="" />
    <EXPORT ORDINAL="1001" NAME="?CreateInstance@?$CSmartPtrToNonClass@VStoryFragmentReference@@@@KAPAVStoryFragmentReference@@H@Z" PURGE="0" COMMENT="" />
    <EXPORT ORDINAL="1002" NAME="?CreateInstance@?$CSmartPtrToNonClass@VStoryFragments@@@@KAPAVStoryFragments@@H@Z" PURGE="0" COMMENT="" />
    <EXPORT ORDINAL="1003" NAME="?CreateInstance@?$CSmartPtrToNonClass@VStructure@@@@KAPAVStructure@@H@Z" PURGE="0" COMMENT="" />
    <EXPORT ORDINAL="1004" NAME="?CreateInstance@?$CSmartPtrToNonClass@VStructureElement@@@@KAPAVStructureElement@@H@Z" PURGE="0" COMMENT="" />
    <EXPORT ORDINAL="1005" NAME="?CreateInstance@?$CSmartPtrToNonClass@VTableCellStructure@@@@KAPAVTableCellStructure@@H@Z" PURGE="0" COMMENT="" />
    <EXPORT ORDINAL="1006" NAME="?CreateInstance@?$CSmartPtrToNonClass@VTableRowGroupStructure@@@@KAPAVTableRowGroupStructure@@H@Z" PURGE="0" COMMENT="" />
    <EXPORT ORDINAL="1007" NAME="?CreateInstance@?$CSmartPtrToNonClass@VTableRowStructure@@@@KAPAVTableRowStructure@@H@Z" PURGE="0" COMMENT="" />
    <EXPORT ORDINAL="1008" NAME="?CreateInstance@?$CSmartPtrToNonClass@VTableStructure@@@@KAPAVTableStructure@@H@Z" PURGE="0" COMMENT="" />
    <EXPORT ORDINAL="1009" NAME="?CreateInstance@?$CSmartPtrToNonClass@VThumbnail@@@@KAPAVThumbnail@@H@Z" PURGE="0" COMMENT="" />
    <EXPORT ORDINAL="1010" NAME="?CreateInstance@?$CSmartPtrToNonClass@VVisualBrush@@@@KAPAVVisualBrush@@H@Z" PURGE="0" COMMENT="" />
    <EXPORT ORDINAL="1011" NAME="?CreateInstance@?$CSmartPtrToNonClass@VX_Key@@@@KAPAVX_Key@@H@Z" PURGE="0" COMMENT="" />
    <EXPORT ORDINAL="1012" NAME="?CreateInstance@?$CSmartPtrToNonClass@VZipReader@@@@KAPAVZipReader@@H@Z" PURGE="0" COMMENT="" />
    <EXPORT ORDINAL="1013" NAME="?CreateInstance@?$CSmartPtrToNonClass@VZipWriter@@@@KAPAVZipWriter@@H@Z" PURGE="0" COMMENT="" />
    <EXPORT ORDINAL="1014" NAME="?Detach@?$CSmartPtrToNonClass@D@@QAEPADXZ" PURGE="0" COMMENT="" />
    <EXPORT ORDINAL="1015" NAME="?GetArraySize@?$CSmartPtrToNonClass@VAnnotation@@@@QBEIXZ" PURGE="0" COMMENT="" />
    <EXPORT ORDINAL="1016" NAME="?GetArraySize@?$CSmartPtrToNonClass@VBrush@@@@QBEIXZ" PURGE="0" COMMENT="" />
    <EXPORT ORDINAL="1017" NAME="?GetArraySize@?$CSmartPtrToNonClass@VDocumentOutline@@@@QBEIXZ" PURGE="0" COMMENT="" />
    <EXPORT ORDINAL="1018" NAME="?GetArraySize@?$CSmartPtrToNonClass@VFixedDocument@@@@QBEIXZ" PURGE="0" COMMENT="" />
    <EXPORT ORDINAL="1019" NAME="?GetArraySize@?$CSmartPtrToNonClass@VFixedDocumentSequence@@@@QBEIXZ" PURGE="0" COMMENT="" />
    <EXPORT ORDINAL="1020" NAME="?GetArraySize@?$CSmartPtrToNonClass@VLang@@@@QBEIXZ" PURGE="0" COMMENT="" />
    <EXPORT ORDINAL="1021" NAME="?GetArraySize@?$CSmartPtrToNonClass@VMetroData@@@@QBEIXZ" PURGE="0" COMMENT="" />
    <EXPORT ORDINAL="1022" NAME="?GetArraySize@?$CSmartPtrToNonClass@VMetroPart@@@@QBEIXZ" PURGE="0" COMMENT="" />
    <EXPORT ORDINAL="1023" NAME="?GetArraySize@?$CSmartPtrToNonClass@VPackURI@@@@QBEIXZ" PURGE="0" COMMENT="" />
    <EXPORT ORDINAL="1024" NAME="?GetArraySize@?$CSmartPtrToNonClass@VPageElement@@@@QBEIXZ" PURGE="0" COMMENT="" />
    <EXPORT ORDINAL="1025" NAME="?GetArraySize@?$CSmartPtrToNonClass@VPartName@@@@QBEIXZ" PURGE="0" COMMENT="" />
    <EXPORT ORDINAL="1026" NAME="?GetArraySize@?$CSmartPtrToNonClass@VPathGeometry@@@@QBEIXZ" PURGE="0" COMMENT="" />
    <EXPORT ORDINAL="1027" NAME="?GetArraySize@?$CSmartPtrToNonClass@VPrintTicket@@@@QBEIXZ" PURGE="0" COMMENT="" />
    <EXPORT ORDINAL="1028" NAME="?GetArraySize@?$CSmartPtrToNonClass@VRelationships@@@@QBEIXZ" PURGE="0" COMMENT="" />
    <EXPORT ORDINAL="1029" NAME="?GetArraySize@?$CSmartPtrToNonClass@VST_CaretStop@@@@QBEIXZ" PURGE="0" COMMENT="" />
    <EXPORT ORDINAL="1030" NAME="?GetArraySize@?$CSmartPtrToNonClass@VST_EvenArray@@@@QBEIXZ" PURGE="0" COMMENT="" />
    <EXPORT ORDINAL="1031" NAME="?GetArraySize@?$CSmartPtrToNonClass@VST_GEZero@@@@QBEIXZ" PURGE="0" COMMENT="" />
    <EXPORT ORDINAL="1032" NAME="?GetArraySize@?$CSmartPtrToNonClass@VST_IntGEOne@@@@QBEIXZ" PURGE="0" COMMENT="" />
    <EXPORT ORDINAL="1033" NAME="?GetArraySize@?$CSmartPtrToNonClass@VST_Name@@@@QBEIXZ" PURGE="0" COMMENT="" />
    <EXPORT ORDINAL="1034" NAME="?GetArraySize@?$CSmartPtrToNonClass@VST_RscRefColor@@@@QBEIXZ" PURGE="0" COMMENT="" />
    <EXPORT ORDINAL="1035" NAME="?GetArraySize@?$CSmartPtrToNonClass@VST_RscRefMatrix@@@@QBEIXZ" PURGE="0" COMMENT="" />
    <EXPORT ORDINAL="1036" NAME="?GetArraySize@?$CSmartPtrToNonClass@VST_TableSpan@@@@QBEIXZ" PURGE="0" COMMENT="" />
    <EXPORT ORDINAL="1037" NAME="?GetArraySize@?$CSmartPtrToNonClass@VST_UnicodeString@@@@QBEIXZ" PURGE="0" COMMENT="" />
    <EXPORT ORDINAL="1038" NAME="?GetArraySize@?$CSmartPtrToNonClass@VST_ZeroOne@@@@QBEIXZ" PURGE="0" COMMENT="" />
    <EXPORT ORDINAL="1039" NAME="?GetArraySize@?$CSmartPtrToNonClass@VThumbnail@@@@QBEIXZ" PURGE="0" COMMENT="" />
    <EXPORT ORDINAL="1040" NAME="?GetArraySize@?$CSmartPtrToNonClass@VX_Key@@@@QBEIXZ" PURGE="0" COMMENT="" />
    <EXPORT ORDINAL="1041" NAME="GetSmtpPassword" PURGE="0" COMMENT="" />
    <EXPORT ORDINAL="1042" NAME="GetSmtpUsername" PURGE="0" COMMENT="" />
    <EXPORT ORDINAL="1043" NAME="?IsNull@?$CSmartPtrToNonClass@VBrush@@@@QAEHXZ" PURGE="0" COMMENT="" />
    <EXPORT ORDINAL="1044" NAME="?IsNull@?$CSmartPtrToNonClass@VContentTypeLookup@@@@QAEHXZ" PURGE="0" COMMENT="" />
    <EXPORT ORDINAL="1045" NAME="?IsNull@?$CSmartPtrToNonClass@VMetroPart@@@@QAEHXZ" PURGE="0" COMMENT="" />
    <EXPORT ORDINAL="1046" NAME="?IsNull@?$CSmartPtrToNonClass@VPackURI@@@@QAEHXZ" PURGE="0" COMMENT="" />
    <EXPORT ORDINAL="1047" NAME="?IsNull@?$CSmartPtrToNonClass@VPageContent@@@@QAEHXZ" PURGE="0" COMMENT="" />
    <EXPORT ORDINAL="1048" NAME="?IsNull@?$CSmartPtrToNonClass@VPageElement@@@@QAEHXZ" PURGE="0" COMMENT="" />
    <EXPORT ORDINAL="1049" NAME="?IsNull@?$CSmartPtrToNonClass@VPathGeometry@@@@QAEHXZ" PURGE="0" COMMENT="" />
    <EXPORT ORDINAL="1050" NAME="?IsNull@?$CSmartPtrToNonClass@VRelationships@@@@QAEHXZ" PURGE="0" COMMENT="" />
    <EXPORT ORDINAL="1051" NAME="?IsNull@?$CSmartPtrToNonClass@VSegment@@@@QAEHXZ" PURGE="0" COMMENT="" />
    <EXPORT ORDINAL="1052" NAME="?SmartCast@?$CSmartPtrToNonClass@VAnnotation@@@@QAEPAUSmartPtrDataPublic@@XZ" PURGE="0" COMMENT="" />
    <EXPORT ORDINAL="1053" NAME="?SmartCast@?$CSmartPtrToNonClass@VArcSegment@@@@QAEPAUSmartPtrDataPublic@@XZ" PURGE="0" COMMENT="" />
    <EXPORT ORDINAL="1054" NAME="?SmartCast@?$CSmartPtrToNonClass@VBrush@@@@QAEPAUSmartPtrDataPublic@@XZ" PURGE="0" COMMENT="" />
    <EXPORT ORDINAL="1055" NAME="?SmartCast@?$CSmartPtrToNonClass@VCanvas@@@@QAEPAUSmartPtrDataPublic@@XZ" PURGE="0" COMMENT="" />
    <EXPORT ORDINAL="1056" NAME="?SmartCast@?$CSmartPtrToNonClass@VDigitalSignature@@@@QAEPAUSmartPtrDataPublic@@XZ" PURGE="0" COMMENT="" />
    <EXPORT ORDINAL="1057" NAME="?SmartCast@?$CSmartPtrToNonClass@VDocumentStructure@@@@QAEPAUSmartPtrDataPublic@@XZ" PURGE="0" COMMENT="" />
    <EXPORT ORDINAL="1058" NAME="?SmartCast@?$CSmartPtrToNonClass@VFigureStructure@@@@QAEPAUSmartPtrDataPublic@@XZ" PURGE="0" COMMENT="" />
    <EXPORT ORDINAL="1059" NAME="?SmartCast@?$CSmartPtrToNonClass@VFixedDocument@@@@QAEPAUSmartPtrDataPublic@@XZ" PURGE="0" COMMENT="" />
    <EXPORT ORDINAL="1060" NAME="?SmartCast@?$CSmartPtrToNonClass@VFixedDocumentSequence@@@@QAEPAUSmartPtrDataPublic@@XZ" PURGE="0" COMMENT="" />
    <EXPORT ORDINAL="1061" NAME="?SmartCast@?$CSmartPtrToNonClass@VFixedPage@@@@QAEPAUSmartPtrDataPublic@@XZ" PURGE="0" COMMENT="" />
    <EXPORT ORDINAL="1062" NAME="?SmartCast@?$CSmartPtrToNonClass@VFont@@@@QAEPAUSmartPtrDataPublic@@XZ" PURGE="0" COMMENT="" />
    <EXPORT ORDINAL="1063" NAME="?SmartCast@?$CSmartPtrToNonClass@VGlyphs@@@@QAEPAUSmartPtrDataPublic@@XZ" PURGE="0" COMMENT="" />
    <EXPORT ORDINAL="1064" NAME="?SmartCast@?$CSmartPtrToNonClass@VImage@@@@QAEPAUSmartPtrDataPublic@@XZ" PURGE="0" COMMENT="" />
    <EXPORT ORDINAL="1065" NAME="?SmartCast@?$CSmartPtrToNonClass@VImageBrush@@@@QAEPAUSmartPtrDataPublic@@XZ" PURGE="0" COMMENT="" />
    <EXPORT ORDINAL="1066" NAME="?SmartCast@?$CSmartPtrToNonClass@VLinearGradientBrush@@@@QAEPAUSmartPtrDataPublic@@XZ" PURGE="0" COMMENT="" />
    <EXPORT ORDINAL="1067" NAME="?SmartCast@?$CSmartPtrToNonClass@VListItemStructure@@@@QAEPAUSmartPtrDataPublic@@XZ" PURGE="0" COMMENT="" />
    <EXPORT ORDINAL="1068" NAME="?SmartCast@?$CSmartPtrToNonClass@VListStructure@@@@QAEPAUSmartPtrDataPublic@@XZ" PURGE="0" COMMENT="" />
    <EXPORT ORDINAL="1069" NAME="?SmartCast@?$CSmartPtrToNonClass@VMetroPart@@@@QAEPAUSmartPtrDataPublic@@XZ" PURGE="0" COMMENT="" />
    <EXPORT ORDINAL="1070" NAME="?SmartCast@?$CSmartPtrToNonClass@VPackURI@@@@QAEPAUSmartPtrDataPublic@@XZ" PURGE="0" COMMENT="" />
    <EXPORT ORDINAL="1071" NAME="?SmartCast@?$CSmartPtrToNonClass@VPageElement@@@@QAEPAUSmartPtrDataPublic@@XZ" PURGE="0" COMMENT="" />
    <EXPORT ORDINAL="1072" NAME="?SmartCast@?$CSmartPtrToNonClass@VParagraphStructure@@@@QAEPAUSmartPtrDataPublic@@XZ" PURGE="0" COMMENT="" />
    <EXPORT ORDINAL="1073" NAME="?SmartCast@?$CSmartPtrToNonClass@VPartName@@@@QAEPAUSmartPtrDataPublic@@XZ" PURGE="0" COMMENT="" />
    <EXPORT ORDINAL="1074" NAME="?SmartCast@?$CSmartPtrToNonClass@VPath@@@@QAEPAUSmartPtrDataPublic@@XZ" PURGE="0" COMMENT="" />
    <EXPORT ORDINAL="1075" NAME="?SmartCast@?$CSmartPtrToNonClass@VPathFigure@@@@QAEPAUSmartPtrDataPublic@@XZ" PURGE="0" COMMENT="" />
    <EXPORT ORDINAL="1076" NAME="?SmartCast@?$CSmartPtrToNonClass@VPathGeometry@@@@QAEPAUSmartPtrDataPublic@@XZ" PURGE="0" COMMENT="" />
    <EXPORT ORDINAL="1077" NAME="?SmartCast@?$CSmartPtrToNonClass@VPolyBezierSegment@@@@QAEPAUSmartPtrDataPublic@@XZ" PURGE="0" COMMENT="" />
    <EXPORT ORDINAL="1078" NAME="?SmartCast@?$CSmartPtrToNonClass@VPolyLineSegment@@@@QAEPAUSmartPtrDataPublic@@XZ" PURGE="0" COMMENT="" />
    <EXPORT ORDINAL="1079" NAME="?SmartCast@?$CSmartPtrToNonClass@VPolyQuadraticBezierSegment@@@@QAEPAUSmartPtrDataPublic@@XZ" PURGE="0" COMMENT="" />
    <EXPORT ORDINAL="1080" NAME="?SmartCast@?$CSmartPtrToNonClass@VPrintTicket@@@@QAEPAUSmartPtrDataPublic@@XZ" PURGE="0" COMMENT="" />
    <EXPORT ORDINAL="1081" NAME="?SmartCast@?$CSmartPtrToNonClass@VRadialGradientBrush@@@@QAEPAUSmartPtrDataPublic@@XZ" PURGE="0" COMMENT="" />
    <EXPORT ORDINAL="1082" NAME="?SmartCast@?$CSmartPtrToNonClass@VSectionStructure@@@@QAEPAUSmartPtrDataPublic@@XZ" PURGE="0" COMMENT="" />
    <EXPORT ORDINAL="1083" NAME="?SmartCast@?$CSmartPtrToNonClass@VSegment@@@@QAEPAUSmartPtrDataPublic@@XZ" PURGE="0" COMMENT="" />
    <EXPORT ORDINAL="1084" NAME="?SmartCast@?$CSmartPtrToNonClass@VSolidColorBrush@@@@QAEPAUSmartPtrDataPublic@@XZ" PURGE="0" COMMENT="" />
    <EXPORT ORDINAL="1085" NAME="?SmartCast@?$CSmartPtrToNonClass@VStructure@@@@QAEPAUSmartPtrDataPublic@@XZ" PURGE="0" COMMENT="" />
    <EXPORT ORDINAL="1086" NAME="?SmartCast@?$CSmartPtrToNonClass@VTableCellStructure@@@@QAEPAUSmartPtrDataPublic@@XZ" PURGE="0" COMMENT="" />
    <EXPORT ORDINAL="1087" NAME="?SmartCast@?$CSmartPtrToNonClass@VTableRowGroupStructure@@@@QAEPAUSmartPtrDataPublic@@XZ" PURGE="0" COMMENT="" />
    <EXPORT ORDINAL="1088" NAME="?SmartCast@?$CSmartPtrToNonClass@VTableRowStructure@@@@QAEPAUSmartPtrDataPublic@@XZ" PURGE="0" COMMENT="" />
    <EXPORT ORDINAL="1089" NAME="?SmartCast@?$CSmartPtrToNonClass@VTableStructure@@@@QAEPAUSmartPtrDataPublic@@XZ" PURGE="0" COMMENT="" />
    <EXPORT ORDINAL="1090" NAME="?SmartCast@?$CSmartPtrToNonClass@VThumbnail@@@@QAEPAUSmartPtrDataPublic@@XZ" PURGE="0" COMMENT="" />
    <EXPORT ORDINAL="1091" NAME="?SmartCast@?$CSmartPtrToNonClass@VVisualBrush@@@@QAEPAUSmartPtrDataPublic@@XZ" PURGE="0" COMMENT="" />
    <EXPORT ORDINAL="1092" NAME="?SmartCast@?$CSmartPtrToNonClass@VZipReader@@@@QAEPAUSmartPtrDataPublic@@XZ" PURGE="0" COMMENT="" />
    <EXPORT ORDINAL="1093" NAME="?SmartCast@?$CSmartPtrToNonClass@VZipWriter@@@@QAEPAUSmartPtrDataPublic@@XZ" PURGE="0" COMMENT="" />
    <EXPORT ORDINAL="1094" NAME="BatchConvertEx" PURGE="8" COMMENT="" />
    <EXPORT ORDINAL="1095" NAME="CDICreateDC" PURGE="4" COMMENT="" />
    <EXPORT ORDINAL="1096" NAME="CDISetDefaultPrinter" PURGE="4" COMMENT="" />
    <EXPORT ORDINAL="1097" NAME="CaptureEvents" PURGE="8" COMMENT="" />
    <EXPORT ORDINAL="1098" NAME="ConcatenateFiles" PURGE="12" COMMENT="" />
    <EXPORT ORDINAL="1099" NAME="DllCanUnloadNow" PURGE="0" COMMENT="" />
    <EXPORT ORDINAL="1100" NAME="DllGetClassObject" PURGE="12" COMMENT="" />
    <EXPORT ORDINAL="1101" NAME="DllRegisterServer" PURGE="0" COMMENT="" />
    <EXPORT ORDINAL="1102" NAME="DllUnregisterServer" PURGE="0" COMMENT="" />
    <EXPORT ORDINAL="1103" NAME="DocAddFileAttachmentA" PURGE="20" COMMENT="" />
    <EXPORT ORDINAL="1104" NAME="DocAddFileAttachmentW" PURGE="20" COMMENT="" />
    <EXPORT ORDINAL="1105" NAME="DocAppend" PURGE="8" COMMENT="" />
    <EXPORT ORDINAL="1106" NAME="DocAutoBookmarksA" PURGE="16" COMMENT="" />
    <EXPORT ORDINAL="1107" NAME="DocAutoBookmarksW" PURGE="16" COMMENT="" />
    <EXPORT ORDINAL="1108" NAME="DocAutoHyperLinksA" PURGE="8" COMMENT="" />
    <EXPORT ORDINAL="1109" NAME="DocAutoHyperLinksW" PURGE="8" COMMENT="" />
    <EXPORT ORDINAL="1110" NAME="DocClose" PURGE="4" COMMENT="" />
    <EXPORT ORDINAL="1111" NAME="DocConvertToEXCELA" PURGE="12" COMMENT="" />
    <EXPORT ORDINAL="1112" NAME="DocConvertToEXCELW" PURGE="12" COMMENT="" />
    <EXPORT ORDINAL="1113" NAME="DocConvertToHTMLA" PURGE="12" COMMENT="" />
    <EXPORT ORDINAL="1114" NAME="DocConvertToHTMLW" PURGE="12" COMMENT="" />
    <EXPORT ORDINAL="1115" NAME="DocConvertToJPEGA" PURGE="16" COMMENT="" />
    <EXPORT ORDINAL="1116" NAME="DocConvertToJPEGW" PURGE="16" COMMENT="" />
    <EXPORT ORDINAL="1117" NAME="DocConvertToRTFA" PURGE="16" COMMENT="" />
    <EXPORT ORDINAL="1118" NAME="DocConvertToRTFW" PURGE="16" COMMENT="" />
    <EXPORT ORDINAL="1119" NAME="DocConvertToTIFFA" PURGE="16" COMMENT="" />
    <EXPORT ORDINAL="1120" NAME="DocConvertToTIFFW" PURGE="16" COMMENT="" />
    <EXPORT ORDINAL="1121" NAME="DocConvertToXPSA" PURGE="12" COMMENT="" />
    <EXPORT ORDINAL="1122" NAME="DocConvertToXPSW" PURGE="12" COMMENT="" />
    <EXPORT ORDINAL="1123" NAME="DocDeleteFileAttachmentA" PURGE="8" COMMENT="" />
    <EXPORT ORDINAL="1124" NAME="DocDeleteFileAttachmentW" PURGE="8" COMMENT="" />
    <EXPORT ORDINAL="1125" NAME="DocDigitalSignatureA" PURGE="44" COMMENT="" />
    <EXPORT ORDINAL="1126" NAME="DocDigitalSignatureW" PURGE="44" COMMENT="" />
    <EXPORT ORDINAL="1127" NAME="DocEmailMapiA" PURGE="32" COMMENT="" />
    <EXPORT ORDINAL="1128" NAME="DocEmailMapiW" PURGE="32" COMMENT="" />
    <EXPORT ORDINAL="1129" NAME="DocEmailSmtpA" PURGE="40" COMMENT="" />
    <EXPORT ORDINAL="1130" NAME="DocEmailSmtpExA" PURGE="48" COMMENT="" />
    <EXPORT ORDINAL="1131" NAME="DocEmailSmtpExW" PURGE="48" COMMENT="" />
    <EXPORT ORDINAL="1132" NAME="DocEmailSmtpW" PURGE="40" COMMENT="" />
    <EXPORT ORDINAL="1133" NAME="DocEncrypt128A" PURGE="16" COMMENT="" />
    <EXPORT ORDINAL="1134" NAME="DocEncrypt128W" PURGE="16" COMMENT="" />
    <EXPORT ORDINAL="1135" NAME="DocEncryptA" PURGE="16" COMMENT="" />
    <EXPORT ORDINAL="1136" NAME="DocEncryptW" PURGE="16" COMMENT="" />
    <EXPORT ORDINAL="1137" NAME="DocExtractFileAttachmentA" PURGE="12" COMMENT="" />
    <EXPORT ORDINAL="1138" NAME="DocExtractFileAttachmentW" PURGE="12" COMMENT="" />
    <EXPORT ORDINAL="1139" NAME="DocLinearize" PURGE="4" COMMENT="" />
    <EXPORT ORDINAL="1140" NAME="DocMerge" PURGE="16" COMMENT="" />
    <EXPORT ORDINAL="1141" NAME="DocOpenA" PURGE="12" COMMENT="" />
    <EXPORT ORDINAL="1142" NAME="DocOpenW" PURGE="12" COMMENT="" />
    <EXPORT ORDINAL="1143" NAME="DocOptimize" PURGE="8" COMMENT="" />
    <EXPORT ORDINAL="1144" NAME="DocPrintA" PURGE="20" COMMENT="" />
    <EXPORT ORDINAL="1145" NAME="DocPrintW" PURGE="20" COMMENT="" />
    <EXPORT ORDINAL="1146" NAME="DocSaveA" PURGE="8" COMMENT="" />
    <EXPORT ORDINAL="1147" NAME="DocSaveExA" PURGE="12" COMMENT="" />
    <EXPORT ORDINAL="1148" NAME="DocSaveExW" PURGE="12" COMMENT="" />
    <EXPORT ORDINAL="1149" NAME="DocSaveW" PURGE="8" COMMENT="" />
    <EXPORT ORDINAL="1150" NAME="DocSetAuthorA" PURGE="8" COMMENT="" />
    <EXPORT ORDINAL="1151" NAME="DocSetBookmarkXYA" PURGE="24" COMMENT="" />
    <EXPORT ORDINAL="1152" NAME="DocSetBookmarkXYW" PURGE="24" COMMENT="" />
    <EXPORT ORDINAL="1153" NAME="DocSetCreatorA" PURGE="8" COMMENT="" />
    <EXPORT ORDINAL="1154" NAME="DocSetHyperLinkInternal" PURGE="36" COMMENT="" />
    <EXPORT ORDINAL="1155" NAME="DocSetHyperLinkURLA" PURGE="28" COMMENT="" />
    <EXPORT ORDINAL="1156" NAME="DocSetHyperLinkURLW" PURGE="28" COMMENT="" />
    <EXPORT ORDINAL="1157" NAME="DocSetKeywordsA" PURGE="8" COMMENT="" />
    <EXPORT ORDINAL="1158" NAME="DocSetMarkedContentA" PURGE="32" COMMENT="" />
    <EXPORT ORDINAL="1159" NAME="DocSetMarkedContentW" PURGE="32" COMMENT="" />
    <EXPORT ORDINAL="1160" NAME="DocSetSubjectA" PURGE="8" COMMENT="" />
    <EXPORT ORDINAL="1161" NAME="DocSetTitleA" PURGE="8" COMMENT="" />
    <EXPORT ORDINAL="1162" NAME="DocSplitA" PURGE="8" COMMENT="" />
    <EXPORT ORDINAL="1163" NAME="DocSplitW" PURGE="8" COMMENT="" />
    <EXPORT ORDINAL="1164" NAME="DocSplitXYA" PURGE="16" COMMENT="" />
    <EXPORT ORDINAL="1165" NAME="DocSplitXYW" PURGE="16" COMMENT="" />
    <EXPORT ORDINAL="1166" NAME="DriverEnd" PURGE="4" COMMENT="" />
    <EXPORT ORDINAL="1167" NAME="DriverInit" PURGE="4" COMMENT="" />
    <EXPORT ORDINAL="1168" NAME="EMFDriverInit" PURGE="4" COMMENT="" />
    <EXPORT ORDINAL="1169" NAME="EnablePrinter" PURGE="12" COMMENT="" />
    <EXPORT ORDINAL="1170" NAME="EncryptPDFDocument128" PURGE="16" COMMENT="" />
    <EXPORT ORDINAL="1171" NAME="EncryptPDFDocument" PURGE="16" COMMENT="" />
    <EXPORT ORDINAL="1172" NAME="GLock" PURGE="4" COMMENT="" />
    <EXPORT ORDINAL="1173" NAME="GUnlock" PURGE="4" COMMENT="" />
    <EXPORT ORDINAL="1174" NAME="GetCompression" PURGE="4" COMMENT="" />
    <EXPORT ORDINAL="1175" NAME="GetDevmodeFlags" PURGE="4" COMMENT="" />
    <EXPORT ORDINAL="1176" NAME="GetDocumentTitle" PURGE="16" COMMENT="" />
    <EXPORT ORDINAL="1177" NAME="GetEmailOptions" PURGE="4" COMMENT="" />
    <EXPORT ORDINAL="1178" NAME="GetEncryption" PURGE="4" COMMENT="" />
    <EXPORT ORDINAL="1179" NAME="GetFontEmbedding" PURGE="4" COMMENT="" />
    <EXPORT ORDINAL="1180" NAME="GetGeneratedFilename" PURGE="12" COMMENT="" />
    <EXPORT ORDINAL="1181" NAME="GetHorizontalMargin" PURGE="4" COMMENT="" />
    <EXPORT ORDINAL="1182" NAME="GetImageOptions" PURGE="4" COMMENT="" />
    <EXPORT ORDINAL="1183" NAME="GetInlineImageMaxSize" PURGE="4" COMMENT="" />
    <EXPORT ORDINAL="1184" NAME="GetJPEGCompression" PURGE="4" COMMENT="" />
    <EXPORT ORDINAL="1185" NAME="GetJPegLevel" PURGE="4" COMMENT="" />
    <EXPORT ORDINAL="1186" NAME="GetLastErrorMsg" PURGE="8" COMMENT="" />
    <EXPORT ORDINAL="1187" NAME="GetOrientation" PURGE="4" COMMENT="" />
    <EXPORT ORDINAL="1188" NAME="GetOwnerPassword" PURGE="12" COMMENT="" />
    <EXPORT ORDINAL="1189" NAME="GetPaperLength" PURGE="4" COMMENT="" />
    <EXPORT ORDINAL="1190" NAME="GetPaperSize" PURGE="4" COMMENT="" />
    <EXPORT ORDINAL="1191" NAME="GetPaperWidth" PURGE="4" COMMENT="" />
    <EXPORT ORDINAL="1192" NAME="GetPermissions" PURGE="4" COMMENT="" />
    <EXPORT ORDINAL="1193" NAME="GetPrinterAttributes" PURGE="4" COMMENT="" />
    <EXPORT ORDINAL="1194" NAME="GetPrinterLanguage" PURGE="4" COMMENT="" />
    <EXPORT ORDINAL="1195" NAME="GetPrinterParamInt" PURGE="8" COMMENT="" />
    <EXPORT ORDINAL="1196" NAME="GetPrinterParamStr" PURGE="16" COMMENT="" />
    <EXPORT ORDINAL="1197" NAME="GetResolution" PURGE="4" COMMENT="" />
    <EXPORT ORDINAL="1198" NAME="GetScalingColumns" PURGE="4" COMMENT="" />
    <EXPORT ORDINAL="1199" NAME="GetScalingHeight" PURGE="4" COMMENT="" />
    <EXPORT ORDINAL="1200" NAME="GetScalingOption" PURGE="4" COMMENT="" />
    <EXPORT ORDINAL="1201" NAME="GetScalingPaperSize" PURGE="4" COMMENT="" />
    <EXPORT ORDINAL="1202" NAME="GetScalingPercent" PURGE="4" COMMENT="" />
    <EXPORT ORDINAL="1203" NAME="GetScalingRows" PURGE="4" COMMENT="" />
    <EXPORT ORDINAL="1204" NAME="GetScalingWidth" PURGE="4" COMMENT="" />
    <EXPORT ORDINAL="1205" NAME="GetSimPostscript" PURGE="4" COMMENT="" />
    <EXPORT ORDINAL="1206" NAME="GetStringMaxSize" PURGE="4" COMMENT="" />
    <EXPORT ORDINAL="1207" NAME="GetUserPassword" PURGE="12" COMMENT="" />
    <EXPORT ORDINAL="1208" NAME="GetVersionInformation" PURGE="20" COMMENT="" />
    <EXPORT ORDINAL="1209" NAME="GetVerticalMargin" PURGE="4" COMMENT="" />
    <EXPORT ORDINAL="1210" NAME="HTMLDriverInit" PURGE="4" COMMENT="" />
    <EXPORT ORDINAL="1211" NAME="KeepPreProcessed" PURGE="8" COMMENT="" />
    <EXPORT ORDINAL="1212" NAME="LinearizePDFDocument" PURGE="4" COMMENT="" />
    <EXPORT ORDINAL="1213" NAME="LoadSavedConfig" PURGE="8" COMMENT="" />
    <EXPORT ORDINAL="1214" NAME="Lock" PURGE="8" COMMENT="" />
    <EXPORT ORDINAL="1215" NAME="MergeFiles" PURGE="16" COMMENT="" />
    <EXPORT ORDINAL="1216" NAME="PDF2EXCEL" PURGE="20" COMMENT="" />
    <EXPORT ORDINAL="1217" NAME="PDF2HTML" PURGE="20" COMMENT="" />
    <EXPORT ORDINAL="1218" NAME="PDF2JPEG" PURGE="20" COMMENT="" />
    <EXPORT ORDINAL="1219" NAME="PDF2RTF" PURGE="20" COMMENT="" />
    <EXPORT ORDINAL="1220" NAME="PDF2TIFF" PURGE="20" COMMENT="" />
    <EXPORT ORDINAL="1221" NAME="PDF2XPS" PURGE="20" COMMENT="" />
    <EXPORT ORDINAL="1222" NAME="PDFDriverInit" PURGE="4" COMMENT="" />
    <EXPORT ORDINAL="1223" NAME="PPEndDoc" PURGE="4" COMMENT="" />
    <EXPORT ORDINAL="1224" NAME="PPEndObject" PURGE="4" COMMENT="" />
    <EXPORT ORDINAL="1225" NAME="PPEndPage" PURGE="4" COMMENT="" />
    <EXPORT ORDINAL="1226" NAME="PPInit" PURGE="0" COMMENT="" />
    <EXPORT ORDINAL="1227" NAME="PPStartDoc" PURGE="8" COMMENT="" />
    <EXPORT ORDINAL="1228" NAME="PPStartObject" PURGE="4" COMMENT="" />
    <EXPORT ORDINAL="1229" NAME="PPStartPage" PURGE="4" COMMENT="" />
    <EXPORT ORDINAL="1230" NAME="PPWriteBuffer" PURGE="12" COMMENT="" />
    <EXPORT ORDINAL="1231" NAME="PrintPDFDocument" PURGE="20" COMMENT="" />
    <EXPORT ORDINAL="1232" NAME="PrintPDFDocumentEx" PURGE="24" COMMENT="" />
    <EXPORT ORDINAL="1233" NAME="RTFDriverInit" PURGE="4" COMMENT="" />
    <EXPORT ORDINAL="1234" NAME="RestoreDefaultPrinter" PURGE="4" COMMENT="" />
    <EXPORT ORDINAL="1235" NAME="SaveCurrentConfig" PURGE="12" COMMENT="" />
    <EXPORT ORDINAL="1236" NAME="SendMail" PURGE="28" COMMENT="" />
    <EXPORT ORDINAL="1237" NAME="SendMailW" PURGE="28" COMMENT="" />
    <EXPORT ORDINAL="1238" NAME="SendMessagesTo" PURGE="8" COMMENT="" />
    <EXPORT ORDINAL="1239" NAME="SendSmtpMail" PURGE="36" COMMENT="" />
    <EXPORT ORDINAL="1240" NAME="SendSmtpMailEx" PURGE="44" COMMENT="" />
    <EXPORT ORDINAL="1241" NAME="SendSmtpMailExW" PURGE="44" COMMENT="" />
    <EXPORT ORDINAL="1242" NAME="SendSmtpMailW" PURGE="36" COMMENT="" />
    <EXPORT ORDINAL="1243" NAME="SetBookmark" PURGE="12" COMMENT="" />
    <EXPORT ORDINAL="1244" NAME="SetColorProfile" PURGE="8" COMMENT="" />
    <EXPORT ORDINAL="1245" NAME="SetCompression" PURGE="8" COMMENT="" />
    <EXPORT ORDINAL="1246" NAME="SetDefaultConfig" PURGE="4" COMMENT="" />
    <EXPORT ORDINAL="1247" NAME="SetDefaultConfigEx" PURGE="4" COMMENT="" />
    <EXPORT ORDINAL="1248" NAME="SetDefaultDirectory" PURGE="8" COMMENT="" />
    <EXPORT ORDINAL="1249" NAME="SetDefaultFileName" PURGE="8" COMMENT="" />
    <EXPORT ORDINAL="1250" NAME="SetDefaultPrinter" PURGE="4" COMMENT="" />
    <EXPORT ORDINAL="1251" NAME="SetDevmodeFlags" PURGE="8" COMMENT="" />
    <EXPORT ORDINAL="1252" NAME="SetDocFileProps" PURGE="20" COMMENT="" />
    <EXPORT ORDINAL="1253" NAME="SetEmailFieldBCC" PURGE="8" COMMENT="" />
    <EXPORT ORDINAL="1254" NAME="SetEmailFieldCC" PURGE="8" COMMENT="" />
    <EXPORT ORDINAL="1255" NAME="SetEmailFieldFrom" PURGE="8" COMMENT="" />
    <EXPORT ORDINAL="1256" NAME="SetEmailFieldTo" PURGE="8" COMMENT="" />
    <EXPORT ORDINAL="1257" NAME="SetEmailMessage" PURGE="8" COMMENT="" />
    <EXPORT ORDINAL="1258" NAME="SetEmailOptions" PURGE="8" COMMENT="" />
    <EXPORT ORDINAL="1259" NAME="SetEmailPrompt" PURGE="8" COMMENT="" />
    <EXPORT ORDINAL="1260" NAME="SetEmailSubject" PURGE="8" COMMENT="" />
    <EXPORT ORDINAL="1261" NAME="SetEncryption" PURGE="8" COMMENT="" />
    <EXPORT ORDINAL="1262" NAME="SetFileNameOptions" PURGE="8" COMMENT="" />
    <EXPORT ORDINAL="1263" NAME="SetFontEmbedding" PURGE="8" COMMENT="" />
    <EXPORT ORDINAL="1264" NAME="SetHorizontalMargin" PURGE="8" COMMENT="" />
    <EXPORT ORDINAL="1265" NAME="SetHyperLink" PURGE="8" COMMENT="" />
    <EXPORT ORDINAL="1266" NAME="SetImageOptions" PURGE="8" COMMENT="" />
    <EXPORT ORDINAL="1267" NAME="SetInlineImageMaxSize" PURGE="8" COMMENT="" />
    <EXPORT ORDINAL="1268" NAME="SetJPEGCompression" PURGE="8" COMMENT="" />
    <EXPORT ORDINAL="1269" NAME="SetJPegLevel" PURGE="8" COMMENT="" />
    <EXPORT ORDINAL="1270" NAME="SetLicenseKeyA" PURGE="8" COMMENT="" />
    <EXPORT ORDINAL="1271" NAME="SetLicenseKeyW" PURGE="8" COMMENT="" />
    <EXPORT ORDINAL="1272" NAME="SetOrientation" PURGE="8" COMMENT="" />
    <EXPORT ORDINAL="1273" NAME="SetOwnerPassword" PURGE="8" COMMENT="" />
    <EXPORT ORDINAL="1274" NAME="SetPageProcessor" PURGE="8" COMMENT="" />
    <EXPORT ORDINAL="1275" NAME="SetPaperLength" PURGE="8" COMMENT="" />
    <EXPORT ORDINAL="1276" NAME="SetPaperSize" PURGE="8" COMMENT="" />
    <EXPORT ORDINAL="1277" NAME="SetPaperWidth" PURGE="8" COMMENT="" />
    <EXPORT ORDINAL="1278" NAME="SetPermissions" PURGE="8" COMMENT="" />
    <EXPORT ORDINAL="1279" NAME="SetPrinterAttributes" PURGE="8" COMMENT="" />
    <EXPORT ORDINAL="1280" NAME="SetPrinterConfig" PURGE="8" COMMENT="" />
    <EXPORT ORDINAL="1281" NAME="SetPrinterLanguage" PURGE="8" COMMENT="" />
    <EXPORT ORDINAL="1282" NAME="SetPrinterParamInt" PURGE="12" COMMENT="" />
    <EXPORT ORDINAL="1283" NAME="SetPrinterParamStr" PURGE="12" COMMENT="" />
    <EXPORT ORDINAL="1284" NAME="SetResolution" PURGE="8" COMMENT="" />
    <EXPORT ORDINAL="1285" NAME="SetScalingColumns" PURGE="8" COMMENT="" />
    <EXPORT ORDINAL="1286" NAME="SetScalingOption" PURGE="8" COMMENT="" />
    <EXPORT ORDINAL="1287" NAME="SetScalingPaperSize" PURGE="8" COMMENT="" />
    <EXPORT ORDINAL="1288" NAME="SetScalingPercent" PURGE="8" COMMENT="" />
    <EXPORT ORDINAL="1289" NAME="SetScalingRows" PURGE="8" COMMENT="" />
    <EXPORT ORDINAL="1290" NAME="SetScalingWidth" PURGE="8" COMMENT="" />
    <EXPORT ORDINAL="1291" NAME="SetServerAddress" PURGE="8" COMMENT="" />
    <EXPORT ORDINAL="1292" NAME="SetServerPort" PURGE="8" COMMENT="" />
    <EXPORT ORDINAL="1293" NAME="SetServerUsername" PURGE="8" COMMENT="" />
    <EXPORT ORDINAL="1294" NAME="SetSimPostscript" PURGE="8" COMMENT="" />
    <EXPORT ORDINAL="1295" NAME="SetSmtpPassword" PURGE="8" COMMENT="" />
    <EXPORT ORDINAL="1296" NAME="SetSmtpPort" PURGE="8" COMMENT="" />
    <EXPORT ORDINAL="1297" NAME="SetSmtpServer" PURGE="8" COMMENT="" />
    <EXPORT ORDINAL="1298" NAME="SetSmtpUsername" PURGE="8" COMMENT="" />
    <EXPORT ORDINAL="1299" NAME="SetStringMaxSize" PURGE="8" COMMENT="" />
    <EXPORT ORDINAL="1300" NAME="SetTargetPrinterName" PURGE="8" COMMENT="" />
    <EXPORT ORDINAL="1301" NAME="SetUserPassword" PURGE="8" COMMENT="" />
    <EXPORT ORDINAL="1302" NAME="SetVerticalMargin" PURGE="8" COMMENT="" />
    <EXPORT ORDINAL="1303" NAME="SetWatermark" PURGE="36" COMMENT="" />
    <EXPORT ORDINAL="1304" NAME="TestLock" PURGE="8" COMMENT="" />
    <EXPORT ORDINAL="1305" NAME="Unlock" PURGE="12" COMMENT="" />
    <EXPORT ORDINAL="1306" NAME="_SetModuleFilePathName" PURGE="0" COMMENT="" />
</LIBRARY>

