<?xml version="1.0" encoding="UTF-8"?>
<LIBRARY NAME="cmdobjs.dll" PATH="/DLLArchive/etc/CmdObjs.dll" DATE="Fri Jul 03 12:27:07 PDT 2020" VERSION="10.00.4033">
    <EXPORT ORDINAL="1" NAME="??0?$CComObjectRootEx@VCComMultiThreadModel@ATL@@@ATL@@QAE@XZ" PURGE="0" COMMENT="" />
    <EXPORT ORDINAL="2" NAME="??0?$CComObjectRootEx@VCComSingleThreadModel@ATL@@@ATL@@QAE@XZ" PURGE="0" COMMENT="" />
    <EXPORT ORDINAL="3" NAME="??0?$IProvideClassInfoImpl@$1?_GUID_023c9e7c_6808_4613_86ec_38f5780edd52@@3U__s_GUID@@B$1?m_libid@CAtlModule@ATL@@2U_GUID@@A$00$0A@VCComTypeInfoHolder@ATL@@@ATL@@QAE@ABV01@@Z" PURGE="4" COMMENT="" />
    <EXPORT ORDINAL="4" NAME="??0?$IProvideClassInfoImpl@$1?_GUID_023c9e7c_6808_4613_86ec_38f5780edd52@@3U__s_GUID@@B$1?m_libid@CAtlModule@ATL@@2U_GUID@@A$00$0A@VCComTypeInfoHolder@ATL@@@ATL@@QAE@XZ" PURGE="0" COMMENT="" />
    <EXPORT ORDINAL="5" NAME="??0?$IProvideClassInfoImpl@$1?_GUID_afcdb803_505d_4e11_9885_9eb4e7a12679@@3U__s_GUID@@B$1?m_libid@CAtlModule@ATL@@2U_GUID@@A$00$0A@VCComTypeInfoHolder@ATL@@@ATL@@QAE@ABV01@@Z" PURGE="4" COMMENT="" />
    <EXPORT ORDINAL="6" NAME="??0?$IProvideClassInfoImpl@$1?_GUID_afcdb803_505d_4e11_9885_9eb4e7a12679@@3U__s_GUID@@B$1?m_libid@CAtlModule@ATL@@2U_GUID@@A$00$0A@VCComTypeInfoHolder@ATL@@@ATL@@QAE@XZ" PURGE="0" COMMENT="" />
    <EXPORT ORDINAL="7" NAME="??0?$IProvideClassInfoImpl@$1?_GUID_bd13b4c0_2798_4c56_b572_fc3c62e2cdde@@3U__s_GUID@@B$1?m_libid@CAtlModule@ATL@@2U_GUID@@A$00$0A@VCComTypeInfoHolder@ATL@@@ATL@@QAE@ABV01@@Z" PURGE="4" COMMENT="" />
    <EXPORT ORDINAL="8" NAME="??0?$IProvideClassInfoImpl@$1?_GUID_bd13b4c0_2798_4c56_b572_fc3c62e2cdde@@3U__s_GUID@@B$1?m_libid@CAtlModule@ATL@@2U_GUID@@A$00$0A@VCComTypeInfoHolder@ATL@@@ATL@@QAE@XZ" PURGE="0" COMMENT="" />
    <EXPORT ORDINAL="9" NAME="??0?$mcCustomEvSink@U_miMIMBrowseContentEvent@@$1?IID__miMIMBrowseContentEvent@@3U_GUID@@B@@QAE@ABV0@@Z" PURGE="4" COMMENT="" />
    <EXPORT ORDINAL="10" NAME="??0?$mcCustomEvSink@U_miMIMBrowseContentEvent@@$1?IID__miMIMBrowseContentEvent@@3U_GUID@@B@@QAE@XZ" PURGE="0" COMMENT="" />
    <EXPORT ORDINAL="11" NAME="??0?$mcCustomEvSink@U_miMIMDeviceEvent@@$1?IID__miMIMDeviceEvent@@3U_GUID@@B@@QAE@ABV0@@Z" PURGE="4" COMMENT="" />
    <EXPORT ORDINAL="12" NAME="??0?$mcCustomEvSink@U_miMIMDeviceEvent@@$1?IID__miMIMDeviceEvent@@3U_GUID@@B@@QAE@XZ" PURGE="0" COMMENT="" />
    <EXPORT ORDINAL="13" NAME="??0?$mcCustomEvSink@U_miMIMQueryContentEvent@@$1?IID__miMIMQueryContentEvent@@3U_GUID@@B@@QAE@ABV0@@Z" PURGE="4" COMMENT="" />
    <EXPORT ORDINAL="14" NAME="??0?$mcCustomEvSink@U_miMIMQueryContentEvent@@$1?IID__miMIMQueryContentEvent@@3U_GUID@@B@@QAE@XZ" PURGE="0" COMMENT="" />
    <EXPORT ORDINAL="15" NAME="??0mcMIMAddObjectCmd@@QAE@ABV0@@Z" PURGE="4" COMMENT="" />
    <EXPORT ORDINAL="16" NAME="??0mcMIMAddObjectCmd@@QAE@ABV?$basic_string@GU?$char_traits@G@std@@V?$allocator@G@2@@std@@ABV?$vector@V?$basic_string@GU?$char_traits@G@std@@V?$allocator@G@2@@std@@V?$allocator@V?$basic_string@GU?$char_traits@G@std@@V?$allocator@G@2@@std@@@2@@2@@Z" PURGE="8" COMMENT="" />
    <EXPORT ORDINAL="17" NAME="??0mcMIMAddObjectCmd@@QAE@W4meMIMObjectType@0@@Z" PURGE="4" COMMENT="" />
    <EXPORT ORDINAL="18" NAME="??0mcMIMAddToStreamCacheCmd@@QAE@ABV0@@Z" PURGE="4" COMMENT="" />
    <EXPORT ORDINAL="19" NAME="??0mcMIMAddToStreamCacheCmd@@QAE@XZ" PURGE="0" COMMENT="" />
    <EXPORT ORDINAL="20" NAME="??0mcMIMAddToTODCacheCmd@@QAE@ABV0@@Z" PURGE="4" COMMENT="" />
    <EXPORT ORDINAL="21" NAME="??0mcMIMAddToTODCacheCmd@@QAE@XZ" PURGE="0" COMMENT="" />
    <EXPORT ORDINAL="22" NAME="??0mcMIMAddTracksToPlaylistCmd@@QAE@ABV0@@Z" PURGE="4" COMMENT="" />
    <EXPORT ORDINAL="23" NAME="??0mcMIMAddTracksToPlaylistCmd@@QAE@ABV?$basic_string@GU?$char_traits@G@std@@V?$allocator@G@2@@std@@0ABV?$vector@V?$basic_string@GU?$char_traits@G@std@@V?$allocator@G@2@@std@@V?$allocator@V?$basic_string@GU?$char_traits@G@std@@V?$allocator@G@2@@std@@@2@@2@J@Z" PURGE="16" COMMENT="" />
    <EXPORT ORDINAL="24" NAME="??0mcMIMBrokenLinksCmd@@QAE@ABV0@@Z" PURGE="4" COMMENT="" />
    <EXPORT ORDINAL="25" NAME="??0mcMIMBrokenLinksCmd@@QAE@XZ" PURGE="0" COMMENT="" />
    <EXPORT ORDINAL="26" NAME="??0mcMIMBrowseCmd@@QAE@ABV0@@Z" PURGE="4" COMMENT="" />
    <EXPORT ORDINAL="27" NAME="??0mcMIMBrowseCmd@@QAE@ABVmcMIMBrowseFilter@@@Z" PURGE="4" COMMENT="" />
    <EXPORT ORDINAL="28" NAME="??0mcMIMBrowseCmd@@QAE@XZ" PURGE="0" COMMENT="" />
    <EXPORT ORDINAL="29" NAME="??0mcMIMBrowseFilter@@QAE@ABV0@@Z" PURGE="4" COMMENT="" />
    <EXPORT ORDINAL="30" NAME="??0mcMIMBrowseFilter@@QAE@XZ" PURGE="0" COMMENT="" />
    <EXPORT ORDINAL="31" NAME="??0mcMIMBrowseObjectsCmd@@QAE@ABV0@@Z" PURGE="4" COMMENT="" />
    <EXPORT ORDINAL="32" NAME="??0mcMIMBrowseObjectsCmd@@QAE@XZ" PURGE="0" COMMENT="" />
    <EXPORT ORDINAL="33" NAME="??0mcMIMCdBurnedCmd@@QAE@ABV0@@Z" PURGE="4" COMMENT="" />
    <EXPORT ORDINAL="34" NAME="??0mcMIMCdBurnedCmd@@QAE@V?$basic_string@GU?$char_traits@G@std@@V?$allocator@G@2@@std@@@Z" PURGE="28" COMMENT="" />
    <EXPORT ORDINAL="35" NAME="??0mcMIMCdBurnedCmd@@QAE@V?$basic_string@GU?$char_traits@G@std@@V?$allocator@G@2@@std@@PAUmiMetadata@@_N2@Z" PURGE="40" COMMENT="" />
    <EXPORT ORDINAL="36" NAME="??0mcMIMContentEventSink@@QAE@ABV0@@Z" PURGE="4" COMMENT="" />
    <EXPORT ORDINAL="37" NAME="??0mcMIMContentEventSink@@QAE@ABVmcMIMBrowseFilter@@@Z" PURGE="4" COMMENT="" />
    <EXPORT ORDINAL="38" NAME="??0mcMIMContentEventSink@@QAE@ABVmcMIMMetadataFilter@@@Z" PURGE="4" COMMENT="" />
    <EXPORT ORDINAL="39" NAME="??0mcMIMContextMenuCmd@@QAE@ABV0@@Z" PURGE="4" COMMENT="" />
    <EXPORT ORDINAL="40" NAME="??0mcMIMContextMenuCmd@@QAE@XZ" PURGE="0" COMMENT="" />
    <EXPORT ORDINAL="41" NAME="??0mcMIMCopyCmd@@QAE@ABV0@@Z" PURGE="4" COMMENT="" />
    <EXPORT ORDINAL="42" NAME="??0mcMIMCopyCmd@@QAE@ABV?$vector@V?$basic_string@GU?$char_traits@G@std@@V?$allocator@G@2@@std@@V?$allocator@V?$basic_string@GU?$char_traits@G@std@@V?$allocator@G@2@@std@@@2@@std@@_N1ABV?$basic_string@GU?$char_traits@G@std@@V?$allocator@G@2@@2@@Z" PURGE="16" COMMENT="" />
    <EXPORT ORDINAL="43" NAME="??0mcMIMCopyCmd@@QAE@XZ" PURGE="0" COMMENT="" />
    <EXPORT ORDINAL="44" NAME="??0mcMIMDeleteCmd@@QAE@ABV0@@Z" PURGE="4" COMMENT="" />
    <EXPORT ORDINAL="45" NAME="??0mcMIMDeleteCmd@@QAE@ABV?$vector@V?$basic_string@GU?$char_traits@G@std@@V?$allocator@G@2@@std@@V?$allocator@V?$basic_string@GU?$char_traits@G@std@@V?$allocator@G@2@@std@@@2@@std@@W4tagDeleteOptions@0@_N@Z" PURGE="12" COMMENT="" />
    <EXPORT ORDINAL="46" NAME="??0mcMIMDeleteCmd@@QAE@ABVmcMIMMetadataFilter@@W4tagDeleteOptions@0@_N@Z" PURGE="12" COMMENT="" />
    <EXPORT ORDINAL="47" NAME="??0mcMIMDeleteCmd@@QAE@_N@Z" PURGE="4" COMMENT="" />
    <EXPORT ORDINAL="48" NAME="??0mcMIMDeviceEventSink@@QAE@ABV0@@Z" PURGE="4" COMMENT="" />
    <EXPORT ORDINAL="49" NAME="??0mcMIMDeviceEventSink@@QAE@ABVmcMIMDeviceFilter@@@Z" PURGE="4" COMMENT="" />
    <EXPORT ORDINAL="50" NAME="??0mcMIMDeviceFilter@@QAE@ABV0@@Z" PURGE="4" COMMENT="" />
    <EXPORT ORDINAL="51" NAME="??0mcMIMDeviceFilter@@QAE@ABV?$basic_string@GU?$char_traits@G@std@@V?$allocator@G@2@@std@@_N@Z" PURGE="8" COMMENT="" />
    <EXPORT ORDINAL="52" NAME="??0mcMIMDeviceFilter@@QAE@XZ" PURGE="0" COMMENT="" />
    <EXPORT ORDINAL="53" NAME="??0mcMIMDeviceInfoCmd@@QAE@ABV0@@Z" PURGE="4" COMMENT="" />
    <EXPORT ORDINAL="54" NAME="??0mcMIMDeviceInfoCmd@@QAE@ABV?$basic_string@GU?$char_traits@G@std@@V?$allocator@G@2@@std@@_N@Z" PURGE="8" COMMENT="" />
    <EXPORT ORDINAL="55" NAME="??0mcMIMDeviceInfoCmd@@QAE@ABVmcMIMDeviceFilter@@@Z" PURGE="4" COMMENT="" />
    <EXPORT ORDINAL="56" NAME="??0mcMIMDeviceInfoCmd@@QAE@XZ" PURGE="0" COMMENT="" />
    <EXPORT ORDINAL="57" NAME="??0mcMIMDoComponentUpdatesCmd@@QAE@ABV0@@Z" PURGE="4" COMMENT="" />
    <EXPORT ORDINAL="58" NAME="??0mcMIMDoComponentUpdatesCmd@@QAE@W4meComponentManagerClients@@@Z" PURGE="4" COMMENT="" />
    <EXPORT ORDINAL="59" NAME="??0mcMIMDoComponentUpdatesCmd@@QAE@XZ" PURGE="0" COMMENT="" />
    <EXPORT ORDINAL="60" NAME="??0mcMIMFindDuplicatesCmd@@QAE@ABV0@@Z" PURGE="4" COMMENT="" />
    <EXPORT ORDINAL="61" NAME="??0mcMIMFindDuplicatesCmd@@QAE@ABV?$basic_string@GU?$char_traits@G@std@@V?$allocator@G@2@@std@@ABV?$vector@V?$basic_string@GU?$char_traits@G@std@@V?$allocator@G@2@@std@@V?$allocator@V?$basic_string@GU?$char_traits@G@std@@V?$allocator@G@2@@std@@@2@@2@1@Z" PURGE="12" COMMENT="" />
    <EXPORT ORDINAL="62" NAME="??0mcMIMFindDuplicatesCmd@@QAE@XZ" PURGE="0" COMMENT="" />
    <EXPORT ORDINAL="63" NAME="??0mcMIMGetFieldsCmd@@QAE@ABV0@@Z" PURGE="4" COMMENT="" />
    <EXPORT ORDINAL="64" NAME="??0mcMIMGetFieldsCmd@@QAE@XZ" PURGE="0" COMMENT="" />
    <EXPORT ORDINAL="65" NAME="??0mcMIMGetMetadataCmd@@QAE@ABV0@@Z" PURGE="4" COMMENT="" />
    <EXPORT ORDINAL="66" NAME="??0mcMIMGetMetadataCmd@@QAE@ABV?$basic_string@GU?$char_traits@G@std@@V?$allocator@G@2@@std@@0_N@Z" PURGE="12" COMMENT="" />
    <EXPORT ORDINAL="67" NAME="??0mcMIMGetMetadataCmd@@QAE@ABV?$basic_string@GU?$char_traits@G@std@@V?$allocator@G@2@@std@@ABVmcFieldSet@@_N@Z" PURGE="12" COMMENT="" />
    <EXPORT ORDINAL="68" NAME="??0mcMIMGetMetadataCmd@@QAE@ABV?$vector@V?$basic_string@GU?$char_traits@G@std@@V?$allocator@G@2@@std@@V?$allocator@V?$basic_string@GU?$char_traits@G@std@@V?$allocator@G@2@@std@@@2@@std@@ABVmcFieldSet@@_N@Z" PURGE="12" COMMENT="" />
    <EXPORT ORDINAL="69" NAME="??0mcMIMGetMetadataCmd@@QAE@XZ" PURGE="0" COMMENT="" />
    <EXPORT ORDINAL="70" NAME="??0mcMIMHoldOffBackgroundJobsCmd@@QAE@ABV0@@Z" PURGE="4" COMMENT="" />
    <EXPORT ORDINAL="71" NAME="??0mcMIMHoldOffBackgroundJobsCmd@@QAE@XZ" PURGE="0" COMMENT="" />
    <EXPORT ORDINAL="72" NAME="??0mcMIMImportLibCmd@@QAE@ABV0@@Z" PURGE="4" COMMENT="" />
    <EXPORT ORDINAL="73" NAME="??0mcMIMImportLibCmd@@QAE@ABV?$basic_string@GU?$char_traits@G@std@@V?$allocator@G@2@@std@@@Z" PURGE="4" COMMENT="" />
    <EXPORT ORDINAL="74" NAME="??0mcMIMImportLibCmd@@QAE@XZ" PURGE="0" COMMENT="" />
    <EXPORT ORDINAL="75" NAME="??0mcMIMLookupTagCmd@@QAE@ABV0@@Z" PURGE="4" COMMENT="" />
    <EXPORT ORDINAL="76" NAME="??0mcMIMLookupTagCmd@@QAE@PAUmiMetadataIColl@@JJ@Z" PURGE="12" COMMENT="" />
    <EXPORT ORDINAL="77" NAME="??0mcMIMLookupTagCmd@@QAE@XZ" PURGE="0" COMMENT="" />
    <EXPORT ORDINAL="78" NAME="??0mcMIMManagePortablesCmd@@QAE@ABV0@@Z" PURGE="4" COMMENT="" />
    <EXPORT ORDINAL="79" NAME="??0mcMIMManagePortablesCmd@@QAE@XZ" PURGE="0" COMMENT="" />
    <EXPORT ORDINAL="80" NAME="??0mcMIMMetadataFilter@@QAE@ABV0@@Z" PURGE="4" COMMENT="" />
    <EXPORT ORDINAL="81" NAME="??0mcMIMMetadataFilter@@QAE@XZ" PURGE="0" COMMENT="" />
    <EXPORT ORDINAL="82" NAME="??0mcMIMMetadataQueryCmd@@QAE@ABV0@@Z" PURGE="4" COMMENT="" />
    <EXPORT ORDINAL="83" NAME="??0mcMIMMetadataQueryCmd@@QAE@ABVmcMIMMetadataQueryFilter@@@Z" PURGE="4" COMMENT="" />
    <EXPORT ORDINAL="84" NAME="??0mcMIMMetadataQueryCmd@@QAE@XZ" PURGE="0" COMMENT="" />
    <EXPORT ORDINAL="85" NAME="??0mcMIMMetadataQueryFilter@@QAE@ABV0@@Z" PURGE="4" COMMENT="" />
    <EXPORT ORDINAL="86" NAME="??0mcMIMMetadataQueryFilter@@QAE@ABVmcMIMMetadataFilter@@@Z" PURGE="4" COMMENT="" />
    <EXPORT ORDINAL="87" NAME="??0mcMIMMetadataQueryFilter@@QAE@XZ" PURGE="0" COMMENT="" />
    <EXPORT ORDINAL="88" NAME="??0mcMIMPrepareVolumeCmd@@QAE@ABV0@@Z" PURGE="4" COMMENT="" />
    <EXPORT ORDINAL="89" NAME="??0mcMIMPrepareVolumeCmd@@QAE@ABV?$vector@V?$basic_string@GU?$char_traits@G@std@@V?$allocator@G@2@@std@@V?$allocator@V?$basic_string@GU?$char_traits@G@std@@V?$allocator@G@2@@std@@@2@@std@@J_N@Z" PURGE="12" COMMENT="" />
    <EXPORT ORDINAL="90" NAME="??0mcMIMPrepareVolumeCmd@@QAE@XZ" PURGE="0" COMMENT="" />
    <EXPORT ORDINAL="91" NAME="??0mcMIMRBCDMetadataCmd@@QAE@ABV0@@Z" PURGE="4" COMMENT="" />
    <EXPORT ORDINAL="92" NAME="??0mcMIMRBCDMetadataCmd@@QAE@XZ" PURGE="0" COMMENT="" />
    <EXPORT ORDINAL="93" NAME="??0mcMIMRemoveTagsCmd@@QAE@ABV0@@Z" PURGE="4" COMMENT="" />
    <EXPORT ORDINAL="94" NAME="??0mcMIMRemoveTagsCmd@@QAE@ABV?$basic_string@GU?$char_traits@G@std@@V?$allocator@G@2@@std@@@Z" PURGE="4" COMMENT="" />
    <EXPORT ORDINAL="95" NAME="??0mcMIMRemoveTagsCmd@@QAE@ABV?$vector@V?$basic_string@GU?$char_traits@G@std@@V?$allocator@G@2@@std@@V?$allocator@V?$basic_string@GU?$char_traits@G@std@@V?$allocator@G@2@@std@@@2@@std@@@Z" PURGE="4" COMMENT="" />
    <EXPORT ORDINAL="96" NAME="??0mcMIMRemoveTagsCmd@@QAE@XZ" PURGE="0" COMMENT="" />
    <EXPORT ORDINAL="97" NAME="??0mcMIMRenameCmd@@QAE@ABV0@@Z" PURGE="4" COMMENT="" />
    <EXPORT ORDINAL="98" NAME="??0mcMIMRenameCmd@@QAE@ABV?$vector@V?$basic_string@GU?$char_traits@G@std@@V?$allocator@G@2@@std@@V?$allocator@V?$basic_string@GU?$char_traits@G@std@@V?$allocator@G@2@@std@@@2@@std@@0@Z" PURGE="8" COMMENT="" />
    <EXPORT ORDINAL="99" NAME="??0mcMIMRenameCmd@@QAE@XZ" PURGE="0" COMMENT="" />
    <EXPORT ORDINAL="100" NAME="??0mcMIMSyncContentCmd@@QAE@ABV0@@Z" PURGE="4" COMMENT="" />
    <EXPORT ORDINAL="101" NAME="??0mcMIMSyncContentCmd@@QAE@ABV?$basic_string@GU?$char_traits@G@std@@V?$allocator@G@2@@std@@0@Z" PURGE="8" COMMENT="" />
    <EXPORT ORDINAL="102" NAME="??0mcMIMSyncContentCmd@@QAE@XZ" PURGE="0" COMMENT="" />
    <EXPORT ORDINAL="103" NAME="??0mcMIMUniqueNameCmd@@QAE@ABV0@@Z" PURGE="4" COMMENT="" />
    <EXPORT ORDINAL="104" NAME="??0mcMIMUniqueNameCmd@@QAE@XZ" PURGE="0" COMMENT="" />
    <EXPORT ORDINAL="105" NAME="??0mcMIMUpdateMetadataCmd@@QAE@ABV0@@Z" PURGE="4" COMMENT="" />
    <EXPORT ORDINAL="106" NAME="??0mcMIMUpdateMetadataCmd@@QAE@PAUmiMetadata@@@Z" PURGE="4" COMMENT="" />
    <EXPORT ORDINAL="107" NAME="??0mcMIMUpdateMetadataCmd@@QAE@PAUmiMetadataIColl@@@Z" PURGE="4" COMMENT="" />
    <EXPORT ORDINAL="108" NAME="??0mcMIMUpdateMetadataCmd@@QAE@XZ" PURGE="0" COMMENT="" />
    <EXPORT ORDINAL="109" NAME="??0miMIMChangeEventSink@@QAE@ABV0@@Z" PURGE="4" COMMENT="" />
    <EXPORT ORDINAL="110" NAME="??0miMIMChangeEventSink@@QAE@XZ" PURGE="0" COMMENT="" />
    <EXPORT ORDINAL="111" NAME="??0miMIMDataFilter@@QAE@ABV0@@Z" PURGE="4" COMMENT="" />
    <EXPORT ORDINAL="112" NAME="??0miMIMDataFilter@@QAE@XZ" PURGE="0" COMMENT="" />
    <EXPORT ORDINAL="113" NAME="??0miMIMJobBase@@QAE@ABV0@@Z" PURGE="4" COMMENT="" />
    <EXPORT ORDINAL="114" NAME="??0miMIMJobBase@@QAE@ABV?$basic_string@GU?$char_traits@G@std@@V?$allocator@G@2@@std@@W4meJobPriority@0@KABV?$CComPtr@UmiMIMJobCtrl@@@ATL@@PAUHWND__@@J@Z" PURGE="24" COMMENT="" />
    <EXPORT ORDINAL="115" NAME="??0moBrokenLinksSink@@QAE@ABV0@@Z" PURGE="4" COMMENT="" />
    <EXPORT ORDINAL="116" NAME="??0moBrokenLinksSink@@QAE@XZ" PURGE="0" COMMENT="" />
    <EXPORT ORDINAL="117" NAME="??0moDoComponentUpdatesSink@@QAE@ABV0@@Z" PURGE="4" COMMENT="" />
    <EXPORT ORDINAL="118" NAME="??0moDoComponentUpdatesSink@@QAE@XZ" PURGE="0" COMMENT="" />
    <EXPORT ORDINAL="119" NAME="??0moMIMJobSink@@QAE@ABV0@@Z" PURGE="4" COMMENT="" />
    <EXPORT ORDINAL="120" NAME="??0moMIMJobSink@@QAE@XZ" PURGE="0" COMMENT="" />
    <EXPORT ORDINAL="121" NAME="??1?$CComObjectRootEx@VCComMultiThreadModel@ATL@@@ATL@@QAE@XZ" PURGE="0" COMMENT="" />
    <EXPORT ORDINAL="122" NAME="??1?$mcCustomEvSink@U_miMIMBrowseContentEvent@@$1?IID__miMIMBrowseContentEvent@@3U_GUID@@B@@UAE@XZ" PURGE="0" COMMENT="" />
    <EXPORT ORDINAL="123" NAME="??1?$mcCustomEvSink@U_miMIMDeviceEvent@@$1?IID__miMIMDeviceEvent@@3U_GUID@@B@@UAE@XZ" PURGE="0" COMMENT="" />
    <EXPORT ORDINAL="124" NAME="??1?$mcCustomEvSink@U_miMIMQueryContentEvent@@$1?IID__miMIMQueryContentEvent@@3U_GUID@@B@@UAE@XZ" PURGE="0" COMMENT="" />
    <EXPORT ORDINAL="125" NAME="??1mcMIMAddObjectCmd@@UAE@XZ" PURGE="0" COMMENT="" />
    <EXPORT ORDINAL="126" NAME="??1mcMIMAddToStreamCacheCmd@@UAE@XZ" PURGE="0" COMMENT="" />
    <EXPORT ORDINAL="127" NAME="??1mcMIMAddToTODCacheCmd@@UAE@XZ" PURGE="0" COMMENT="" />
    <EXPORT ORDINAL="128" NAME="??1mcMIMAddTracksToPlaylistCmd@@UAE@XZ" PURGE="0" COMMENT="" />
    <EXPORT ORDINAL="129" NAME="??1mcMIMBrokenLinksCmd@@UAE@XZ" PURGE="0" COMMENT="" />
    <EXPORT ORDINAL="130" NAME="??1mcMIMBrowseCmd@@UAE@XZ" PURGE="0" COMMENT="" />
    <EXPORT ORDINAL="131" NAME="??1mcMIMBrowseFilter@@UAE@XZ" PURGE="0" COMMENT="" />
    <EXPORT ORDINAL="132" NAME="??1mcMIMBrowseObjectsCmd@@UAE@XZ" PURGE="0" COMMENT="" />
    <EXPORT ORDINAL="133" NAME="??1mcMIMCdBurnedCmd@@UAE@XZ" PURGE="0" COMMENT="" />
    <EXPORT ORDINAL="134" NAME="??1mcMIMContentEventSink@@UAE@XZ" PURGE="0" COMMENT="" />
    <EXPORT ORDINAL="135" NAME="??1mcMIMContextMenuCmd@@UAE@XZ" PURGE="0" COMMENT="" />
    <EXPORT ORDINAL="136" NAME="??1mcMIMCopyCmd@@UAE@XZ" PURGE="0" COMMENT="" />
    <EXPORT ORDINAL="137" NAME="??1mcMIMDeleteCmd@@UAE@XZ" PURGE="0" COMMENT="" />
    <EXPORT ORDINAL="138" NAME="??1mcMIMDeviceEventSink@@UAE@XZ" PURGE="0" COMMENT="" />
    <EXPORT ORDINAL="139" NAME="??1mcMIMDeviceFilter@@UAE@XZ" PURGE="0" COMMENT="" />
    <EXPORT ORDINAL="140" NAME="??1mcMIMDeviceInfoCmd@@UAE@XZ" PURGE="0" COMMENT="" />
    <EXPORT ORDINAL="141" NAME="??1mcMIMDoComponentUpdatesCmd@@UAE@XZ" PURGE="0" COMMENT="" />
    <EXPORT ORDINAL="142" NAME="??1mcMIMFindDuplicatesCmd@@UAE@XZ" PURGE="0" COMMENT="" />
    <EXPORT ORDINAL="143" NAME="??1mcMIMGetFieldsCmd@@UAE@XZ" PURGE="0" COMMENT="" />
    <EXPORT ORDINAL="144" NAME="??1mcMIMGetMetadataCmd@@UAE@XZ" PURGE="0" COMMENT="" />
    <EXPORT ORDINAL="145" NAME="??1mcMIMHoldOffBackgroundJobsCmd@@UAE@XZ" PURGE="0" COMMENT="" />
    <EXPORT ORDINAL="146" NAME="??1mcMIMImportLibCmd@@UAE@XZ" PURGE="0" COMMENT="" />
    <EXPORT ORDINAL="147" NAME="??1mcMIMLookupTagCmd@@UAE@XZ" PURGE="0" COMMENT="" />
    <EXPORT ORDINAL="148" NAME="??1mcMIMManagePortablesCmd@@UAE@XZ" PURGE="0" COMMENT="" />
    <EXPORT ORDINAL="149" NAME="??1mcMIMMetadataFilter@@UAE@XZ" PURGE="0" COMMENT="" />
    <EXPORT ORDINAL="150" NAME="??1mcMIMMetadataQueryCmd@@UAE@XZ" PURGE="0" COMMENT="" />
    <EXPORT ORDINAL="151" NAME="??1mcMIMMetadataQueryFilter@@UAE@XZ" PURGE="0" COMMENT="" />
    <EXPORT ORDINAL="152" NAME="??1mcMIMPrepareVolumeCmd@@UAE@XZ" PURGE="0" COMMENT="" />
    <EXPORT ORDINAL="153" NAME="??1mcMIMRBCDMetadataCmd@@UAE@XZ" PURGE="0" COMMENT="" />
    <EXPORT ORDINAL="154" NAME="??1mcMIMRemoveTagsCmd@@UAE@XZ" PURGE="0" COMMENT="" />
    <EXPORT ORDINAL="155" NAME="??1mcMIMRenameCmd@@UAE@XZ" PURGE="0" COMMENT="" />
    <EXPORT ORDINAL="156" NAME="??1mcMIMSyncContentCmd@@UAE@XZ" PURGE="0" COMMENT="" />
    <EXPORT ORDINAL="157" NAME="??1mcMIMUniqueNameCmd@@UAE@XZ" PURGE="0" COMMENT="" />
    <EXPORT ORDINAL="158" NAME="??1mcMIMUpdateMetadataCmd@@UAE@XZ" PURGE="0" COMMENT="" />
    <EXPORT ORDINAL="159" NAME="??1miMIMChangeEventSink@@UAE@XZ" PURGE="0" COMMENT="" />
    <EXPORT ORDINAL="160" NAME="??1miMIMDataFilter@@UAE@XZ" PURGE="0" COMMENT="" />
    <EXPORT ORDINAL="161" NAME="??1miMIMJobBase@@UAE@XZ" PURGE="0" COMMENT="" />
    <EXPORT ORDINAL="162" NAME="??1moBrokenLinksSink@@QAE@XZ" PURGE="0" COMMENT="" />
    <EXPORT ORDINAL="163" NAME="??1moMIMJobSink@@QAE@XZ" PURGE="0" COMMENT="" />
    <EXPORT ORDINAL="164" NAME="??4?$CComCoClass@VmoBrokenLinksSink@@$1?_GUID_afcdb803_505d_4e11_9885_9eb4e7a12679@@3U__s_GUID@@B@ATL@@QAEAAV01@ABV01@@Z" PURGE="4" COMMENT="" />
    <EXPORT ORDINAL="165" NAME="??4?$CComCoClass@VmoDoComponentUpdatesSink@@$1?_GUID_023c9e7c_6808_4613_86ec_38f5780edd52@@3U__s_GUID@@B@ATL@@QAEAAV01@ABV01@@Z" PURGE="4" COMMENT="" />
    <EXPORT ORDINAL="166" NAME="??4?$CComCoClass@VmoMIMJobSink@@$1?_GUID_bd13b4c0_2798_4c56_b572_fc3c62e2cdde@@3U__s_GUID@@B@ATL@@QAEAAV01@ABV01@@Z" PURGE="4" COMMENT="" />
    <EXPORT ORDINAL="167" NAME="??4?$CComObjectRootEx@VCComMultiThreadModel@ATL@@@ATL@@QAEAAV01@ABV01@@Z" PURGE="4" COMMENT="" />
    <EXPORT ORDINAL="168" NAME="??4?$CComObjectRootEx@VCComSingleThreadModel@ATL@@@ATL@@QAEAAV01@ABV01@@Z" PURGE="4" COMMENT="" />
    <EXPORT ORDINAL="169" NAME="??4?$IProvideClassInfoImpl@$1?_GUID_023c9e7c_6808_4613_86ec_38f5780edd52@@3U__s_GUID@@B$1?m_libid@CAtlModule@ATL@@2U_GUID@@A$00$0A@VCComTypeInfoHolder@ATL@@@ATL@@QAEAAV01@ABV01@@Z" PURGE="4" COMMENT="" />
    <EXPORT ORDINAL="170" NAME="??4?$IProvideClassInfoImpl@$1?_GUID_afcdb803_505d_4e11_9885_9eb4e7a12679@@3U__s_GUID@@B$1?m_libid@CAtlModule@ATL@@2U_GUID@@A$00$0A@VCComTypeInfoHolder@ATL@@@ATL@@QAEAAV01@ABV01@@Z" PURGE="4" COMMENT="" />
    <EXPORT ORDINAL="171" NAME="??4?$IProvideClassInfoImpl@$1?_GUID_bd13b4c0_2798_4c56_b572_fc3c62e2cdde@@3U__s_GUID@@B$1?m_libid@CAtlModule@ATL@@2U_GUID@@A$00$0A@VCComTypeInfoHolder@ATL@@@ATL@@QAEAAV01@ABV01@@Z" PURGE="4" COMMENT="" />
    <EXPORT ORDINAL="172" NAME="??4?$mcCustomEvSink@U_miMIMBrowseContentEvent@@$1?IID__miMIMBrowseContentEvent@@3U_GUID@@B@@QAEAAV0@ABV0@@Z" PURGE="4" COMMENT="" />
    <EXPORT ORDINAL="173" NAME="??4?$mcCustomEvSink@U_miMIMDeviceEvent@@$1?IID__miMIMDeviceEvent@@3U_GUID@@B@@QAEAAV0@ABV0@@Z" PURGE="4" COMMENT="" />
    <EXPORT ORDINAL="174" NAME="??4?$mcCustomEvSink@U_miMIMQueryContentEvent@@$1?IID__miMIMQueryContentEvent@@3U_GUID@@B@@QAEAAV0@ABV0@@Z" PURGE="4" COMMENT="" />
    <EXPORT ORDINAL="175" NAME="??4mcMIMAddObjectCmd@@QAEAAV0@ABV0@@Z" PURGE="4" COMMENT="" />
    <EXPORT ORDINAL="176" NAME="??4mcMIMAddToStreamCacheCmd@@QAEAAV0@ABV0@@Z" PURGE="4" COMMENT="" />
    <EXPORT ORDINAL="177" NAME="??4mcMIMAddToTODCacheCmd@@QAEAAV0@ABV0@@Z" PURGE="4" COMMENT="" />
    <EXPORT ORDINAL="178" NAME="??4mcMIMAddTracksToPlaylistCmd@@QAEAAV0@ABV0@@Z" PURGE="4" COMMENT="" />
    <EXPORT ORDINAL="179" NAME="??4mcMIMBrokenLinksCmd@@QAEAAV0@ABV0@@Z" PURGE="4" COMMENT="" />
    <EXPORT ORDINAL="180" NAME="??4mcMIMBrowseCmd@@QAEAAV0@ABV0@@Z" PURGE="4" COMMENT="" />
    <EXPORT ORDINAL="181" NAME="??4mcMIMBrowseCmd@@QAEAAV0@ABVmcMIMBrowseFilter@@@Z" PURGE="4" COMMENT="" />
    <EXPORT ORDINAL="182" NAME="??4mcMIMBrowseFilter@@QAEAAV0@ABV0@@Z" PURGE="4" COMMENT="" />
    <EXPORT ORDINAL="183" NAME="??4mcMIMBrowseObjectsCmd@@QAEAAV0@ABV0@@Z" PURGE="4" COMMENT="" />
    <EXPORT ORDINAL="184" NAME="??4mcMIMCdBurnedCmd@@QAEAAV0@ABV0@@Z" PURGE="4" COMMENT="" />
    <EXPORT ORDINAL="185" NAME="??4mcMIMContentEventSink@@QAEAAV0@ABV0@@Z" PURGE="4" COMMENT="" />
    <EXPORT ORDINAL="186" NAME="??4mcMIMContextMenuCmd@@QAEAAV0@ABV0@@Z" PURGE="4" COMMENT="" />
    <EXPORT ORDINAL="187" NAME="??4mcMIMCopyCmd@@QAEAAV0@ABV0@@Z" PURGE="4" COMMENT="" />
    <EXPORT ORDINAL="188" NAME="??4mcMIMDeleteCmd@@QAEAAV0@ABV0@@Z" PURGE="4" COMMENT="" />
    <EXPORT ORDINAL="189" NAME="??4mcMIMDeleteCmd@@QAEAAV0@ABVmcMIMMetadataFilter@@@Z" PURGE="4" COMMENT="" />
    <EXPORT ORDINAL="190" NAME="??4mcMIMDeviceEventSink@@QAEAAV0@ABV0@@Z" PURGE="4" COMMENT="" />
    <EXPORT ORDINAL="191" NAME="??4mcMIMDeviceFilter@@QAEAAV0@ABV0@@Z" PURGE="4" COMMENT="" />
    <EXPORT ORDINAL="192" NAME="??4mcMIMDeviceInfoCmd@@QAEAAV0@ABV0@@Z" PURGE="4" COMMENT="" />
    <EXPORT ORDINAL="193" NAME="??4mcMIMDoComponentUpdatesCmd@@QAEAAV0@ABV0@@Z" PURGE="4" COMMENT="" />
    <EXPORT ORDINAL="194" NAME="??4mcMIMFindDuplicatesCmd@@QAEAAV0@ABV0@@Z" PURGE="4" COMMENT="" />
    <EXPORT ORDINAL="195" NAME="??4mcMIMGetFieldsCmd@@QAEAAV0@ABV0@@Z" PURGE="4" COMMENT="" />
    <EXPORT ORDINAL="196" NAME="??4mcMIMGetMetadataCmd@@QAEAAV0@ABV0@@Z" PURGE="4" COMMENT="" />
    <EXPORT ORDINAL="197" NAME="??4mcMIMHoldOffBackgroundJobsCmd@@QAEAAV0@ABV0@@Z" PURGE="4" COMMENT="" />
    <EXPORT ORDINAL="198" NAME="??4mcMIMImportLibCmd@@QAEAAV0@ABV0@@Z" PURGE="4" COMMENT="" />
    <EXPORT ORDINAL="199" NAME="??4mcMIMLookupTagCmd@@QAEAAV0@ABV0@@Z" PURGE="4" COMMENT="" />
    <EXPORT ORDINAL="200" NAME="??4mcMIMManagePortablesCmd@@QAEAAV0@ABV0@@Z" PURGE="4" COMMENT="" />
    <EXPORT ORDINAL="201" NAME="??4mcMIMMetadataFilter@@QAEAAV0@ABV0@@Z" PURGE="4" COMMENT="" />
    <EXPORT ORDINAL="202" NAME="??4mcMIMMetadataQueryCmd@@QAEAAV0@ABV0@@Z" PURGE="4" COMMENT="" />
    <EXPORT ORDINAL="203" NAME="??4mcMIMMetadataQueryCmd@@QAEAAV0@ABVmcMIMMetadataQueryFilter@@@Z" PURGE="4" COMMENT="" />
    <EXPORT ORDINAL="204" NAME="??4mcMIMMetadataQueryFilter@@QAEAAV0@ABV0@@Z" PURGE="4" COMMENT="" />
    <EXPORT ORDINAL="205" NAME="??4mcMIMPrepareVolumeCmd@@QAEAAV0@ABV0@@Z" PURGE="4" COMMENT="" />
    <EXPORT ORDINAL="206" NAME="??4mcMIMRBCDMetadataCmd@@QAEAAV0@ABV0@@Z" PURGE="4" COMMENT="" />
    <EXPORT ORDINAL="207" NAME="??4mcMIMRemoveTagsCmd@@QAEAAV0@ABV0@@Z" PURGE="4" COMMENT="" />
    <EXPORT ORDINAL="208" NAME="??4mcMIMRenameCmd@@QAEAAV0@ABV0@@Z" PURGE="4" COMMENT="" />
    <EXPORT ORDINAL="209" NAME="??4mcMIMSyncContentCmd@@QAEAAV0@ABV0@@Z" PURGE="4" COMMENT="" />
    <EXPORT ORDINAL="210" NAME="??4mcMIMUniqueNameCmd@@QAEAAV0@ABV0@@Z" PURGE="4" COMMENT="" />
    <EXPORT ORDINAL="211" NAME="??4mcMIMUpdateMetadataCmd@@QAEAAV0@ABV0@@Z" PURGE="4" COMMENT="" />
    <EXPORT ORDINAL="212" NAME="??4miMIMChangeEventSink@@QAEAAV0@ABV0@@Z" PURGE="4" COMMENT="" />
    <EXPORT ORDINAL="213" NAME="??4miMIMDataFilter@@QAEAAV0@ABV0@@Z" PURGE="4" COMMENT="" />
    <EXPORT ORDINAL="214" NAME="??4miMIMJobBase@@QAEAAV0@ABV0@@Z" PURGE="4" COMMENT="" />
    <EXPORT ORDINAL="215" NAME="??4moBrokenLinksSink@@QAEAAV0@ABV0@@Z" PURGE="4" COMMENT="" />
    <EXPORT ORDINAL="216" NAME="??4moDoComponentUpdatesSink@@QAEAAV0@ABV0@@Z" PURGE="4" COMMENT="" />
    <EXPORT ORDINAL="217" NAME="??4moMIMJobSink@@QAEAAV0@ABV0@@Z" PURGE="4" COMMENT="" />
    <EXPORT ORDINAL="218" NAME="??_7?$mcCustomEvSink@U_miMIMBrowseContentEvent@@$1?IID__miMIMBrowseContentEvent@@3U_GUID@@B@@6B@" PURGE="-1" COMMENT="" />
    <EXPORT ORDINAL="219" NAME="??_7?$mcCustomEvSink@U_miMIMDeviceEvent@@$1?IID__miMIMDeviceEvent@@3U_GUID@@B@@6B@" PURGE="-1" COMMENT="" />
    <EXPORT ORDINAL="220" NAME="??_7?$mcCustomEvSink@U_miMIMQueryContentEvent@@$1?IID__miMIMQueryContentEvent@@3U_GUID@@B@@6B@" PURGE="-1" COMMENT="" />
    <EXPORT ORDINAL="221" NAME="??_7mcMIMAddObjectCmd@@6B@" PURGE="-1" COMMENT="" />
    <EXPORT ORDINAL="222" NAME="??_7mcMIMAddToStreamCacheCmd@@6B@" PURGE="-1" COMMENT="" />
    <EXPORT ORDINAL="223" NAME="??_7mcMIMAddToTODCacheCmd@@6B@" PURGE="-1" COMMENT="" />
    <EXPORT ORDINAL="224" NAME="??_7mcMIMAddTracksToPlaylistCmd@@6B@" PURGE="-1" COMMENT="" />
    <EXPORT ORDINAL="225" NAME="??_7mcMIMBrokenLinksCmd@@6B@" PURGE="-1" COMMENT="" />
    <EXPORT ORDINAL="226" NAME="??_7mcMIMBrowseCmd@@6BmcMIMBrowseFilter@@@" PURGE="-1" COMMENT="" />
    <EXPORT ORDINAL="227" NAME="??_7mcMIMBrowseCmd@@6BmiMIMJobBase@@@" PURGE="-1" COMMENT="" />
    <EXPORT ORDINAL="228" NAME="??_7mcMIMBrowseFilter@@6B@" PURGE="-1" COMMENT="" />
    <EXPORT ORDINAL="229" NAME="??_7mcMIMBrowseObjectsCmd@@6BmcMIMDeviceFilter@@@" PURGE="-1" COMMENT="" />
    <EXPORT ORDINAL="230" NAME="??_7mcMIMBrowseObjectsCmd@@6BmiMIMJobBase@@@" PURGE="-1" COMMENT="" />
    <EXPORT ORDINAL="231" NAME="??_7mcMIMCdBurnedCmd@@6B@" PURGE="-1" COMMENT="" />
    <EXPORT ORDINAL="232" NAME="??_7mcMIMContentEventSink@@6B?$mcCustomEvSink@U_miMIMBrowseContentEvent@@$1?IID__miMIMBrowseContentEvent@@3U_GUID@@B@@@" PURGE="-1" COMMENT="" />
    <EXPORT ORDINAL="233" NAME="??_7mcMIMContentEventSink@@6B?$mcCustomEvSink@U_miMIMQueryContentEvent@@$1?IID__miMIMQueryContentEvent@@3U_GUID@@B@@@" PURGE="-1" COMMENT="" />
    <EXPORT ORDINAL="234" NAME="??_7mcMIMContentEventSink@@6BmiMIMChangeEventSink@@@" PURGE="-1" COMMENT="" />
    <EXPORT ORDINAL="235" NAME="??_7mcMIMContextMenuCmd@@6B@" PURGE="-1" COMMENT="" />
    <EXPORT ORDINAL="236" NAME="??_7mcMIMCopyCmd@@6B@" PURGE="-1" COMMENT="" />
    <EXPORT ORDINAL="237" NAME="??_7mcMIMDeleteCmd@@6BmcMIMMetadataFilter@@@" PURGE="-1" COMMENT="" />
    <EXPORT ORDINAL="238" NAME="??_7mcMIMDeleteCmd@@6BmiMIMJobBase@@@" PURGE="-1" COMMENT="" />
    <EXPORT ORDINAL="239" NAME="??_7mcMIMDeviceEventSink@@6B?$mcCustomEvSink@U_miMIMDeviceEvent@@$1?IID__miMIMDeviceEvent@@3U_GUID@@B@@@" PURGE="-1" COMMENT="" />
    <EXPORT ORDINAL="240" NAME="??_7mcMIMDeviceEventSink@@6BmiMIMChangeEventSink@@@" PURGE="-1" COMMENT="" />
    <EXPORT ORDINAL="241" NAME="??_7mcMIMDeviceFilter@@6B@" PURGE="-1" COMMENT="" />
    <EXPORT ORDINAL="242" NAME="??_7mcMIMDeviceInfoCmd@@6BmcMIMDeviceFilter@@@" PURGE="-1" COMMENT="" />
    <EXPORT ORDINAL="243" NAME="??_7mcMIMDeviceInfoCmd@@6BmiMIMJobBase@@@" PURGE="-1" COMMENT="" />
    <EXPORT ORDINAL="244" NAME="??_7mcMIMDoComponentUpdatesCmd@@6B@" PURGE="-1" COMMENT="" />
    <EXPORT ORDINAL="245" NAME="??_7mcMIMFindDuplicatesCmd@@6B@" PURGE="-1" COMMENT="" />
    <EXPORT ORDINAL="246" NAME="??_7mcMIMGetFieldsCmd@@6B@" PURGE="-1" COMMENT="" />
    <EXPORT ORDINAL="247" NAME="??_7mcMIMGetMetadataCmd@@6B@" PURGE="-1" COMMENT="" />
    <EXPORT ORDINAL="248" NAME="??_7mcMIMHoldOffBackgroundJobsCmd@@6B@" PURGE="-1" COMMENT="" />
    <EXPORT ORDINAL="249" NAME="??_7mcMIMImportLibCmd@@6B@" PURGE="-1" COMMENT="" />
    <EXPORT ORDINAL="250" NAME="??_7mcMIMLookupTagCmd@@6B@" PURGE="-1" COMMENT="" />
    <EXPORT ORDINAL="251" NAME="??_7mcMIMManagePortablesCmd@@6B@" PURGE="-1" COMMENT="" />
    <EXPORT ORDINAL="252" NAME="??_7mcMIMMetadataFilter@@6B@" PURGE="-1" COMMENT="" />
    <EXPORT ORDINAL="253" NAME="??_7mcMIMMetadataQueryCmd@@6BmcMIMMetadataQueryFilter@@@" PURGE="-1" COMMENT="" />
    <EXPORT ORDINAL="254" NAME="??_7mcMIMMetadataQueryCmd@@6BmiMIMJobBase@@@" PURGE="-1" COMMENT="" />
    <EXPORT ORDINAL="255" NAME="??_7mcMIMMetadataQueryFilter@@6B@" PURGE="-1" COMMENT="" />
    <EXPORT ORDINAL="256" NAME="??_7mcMIMPrepareVolumeCmd@@6B@" PURGE="-1" COMMENT="" />
    <EXPORT ORDINAL="257" NAME="??_7mcMIMRBCDMetadataCmd@@6B@" PURGE="-1" COMMENT="" />
    <EXPORT ORDINAL="258" NAME="??_7mcMIMRemoveTagsCmd@@6B@" PURGE="-1" COMMENT="" />
    <EXPORT ORDINAL="259" NAME="??_7mcMIMRenameCmd@@6B@" PURGE="-1" COMMENT="" />
    <EXPORT ORDINAL="260" NAME="??_7mcMIMSyncContentCmd@@6B@" PURGE="-1" COMMENT="" />
    <EXPORT ORDINAL="261" NAME="??_7mcMIMUniqueNameCmd@@6B@" PURGE="-1" COMMENT="" />
    <EXPORT ORDINAL="262" NAME="??_7mcMIMUpdateMetadataCmd@@6B@" PURGE="-1" COMMENT="" />
    <EXPORT ORDINAL="263" NAME="??_7miMIMChangeEventSink@@6B@" PURGE="-1" COMMENT="" />
    <EXPORT ORDINAL="264" NAME="??_7miMIMDataFilter@@6B@" PURGE="-1" COMMENT="" />
    <EXPORT ORDINAL="265" NAME="??_7miMIMJobBase@@6B@" PURGE="-1" COMMENT="" />
    <EXPORT ORDINAL="266" NAME="??_FmcMIMDeleteCmd@@QAEXXZ" PURGE="0" COMMENT="" />
    <EXPORT ORDINAL="267" NAME="??_FmiMIMJobBase@@QAEXXZ" PURGE="0" COMMENT="" />
    <EXPORT ORDINAL="268" NAME="?AddPlaylist@mcMIMAddObjectCmd@@QAEXABV?$basic_string@GU?$char_traits@G@std@@V?$allocator@G@2@@std@@@Z" PURGE="4" COMMENT="" />
    <EXPORT ORDINAL="269" NAME="?AddPlaylist@mcMIMAddObjectCmd@@QAEXABV?$basic_string@GU?$char_traits@G@std@@V?$allocator@G@2@@std@@ABV?$vector@V?$basic_string@GU?$char_traits@G@std@@V?$allocator@G@2@@std@@V?$allocator@V?$basic_string@GU?$char_traits@G@std@@V?$allocator@G@2@@std@@@2@@3@@Z" PURGE="8" COMMENT="" />
    <EXPORT ORDINAL="270" NAME="?AddQueryFilter@mcMIMMetadataFilter@@UAEXABVmcFilter@query@@@Z" PURGE="4" COMMENT="" />
    <EXPORT ORDINAL="271" NAME="?AddRBCDToUpdate@mcMIMRBCDMetadataCmd@@QAEXPAUmiRBCDMetadata@@@Z" PURGE="4" COMMENT="" />
    <EXPORT ORDINAL="272" NAME="?AddRef@?$mcCustomEvSink@U_miMIMBrowseContentEvent@@$1?IID__miMIMBrowseContentEvent@@3U_GUID@@B@@UAGKXZ" PURGE="4" COMMENT="" />
    <EXPORT ORDINAL="273" NAME="?AddRef@?$mcCustomEvSink@U_miMIMDeviceEvent@@$1?IID__miMIMDeviceEvent@@3U_GUID@@B@@UAGKXZ" PURGE="4" COMMENT="" />
    <EXPORT ORDINAL="274" NAME="?AddRef@?$mcCustomEvSink@U_miMIMQueryContentEvent@@$1?IID__miMIMQueryContentEvent@@3U_GUID@@B@@UAGKXZ" PURGE="4" COMMENT="" />
    <EXPORT ORDINAL="275" NAME="?AddRequestedField@mcMIMMetadataQueryFilter@@QAEXABV?$basic_string@GU?$char_traits@G@std@@V?$allocator@G@2@@std@@@Z" PURGE="4" COMMENT="" />
    <EXPORT ORDINAL="276" NAME="?AddScope@mcMIMMetadataFilter@@UAEXABV?$basic_string@GU?$char_traits@G@std@@V?$allocator@G@2@@std@@@Z" PURGE="4" COMMENT="" />
    <EXPORT ORDINAL="277" NAME="?AddStream@mcMIMAddObjectCmd@@QAEXABV?$basic_string@GU?$char_traits@G@std@@V?$allocator@G@2@@std@@0_NJ@Z" PURGE="16" COMMENT="" />
    <EXPORT ORDINAL="278" NAME="?AddToStreamCache@mcMIMAddToStreamCacheCmd@@QAEXABV?$_com_ptr_t@V?$_com_IIID@UmiMetadata@@$1?_GUID_6588f136_a15f_41b4_a40b_a5644258e4b3@@3U__s_GUID@@B@@@@@Z" PURGE="4" COMMENT="" />
    <EXPORT ORDINAL="279" NAME="?AddToTODCache@mcMIMAddToTODCacheCmd@@QAEXABV?$basic_string@GU?$char_traits@G@std@@V?$allocator@G@2@@std@@AAV?$vector@V?$basic_string@GU?$char_traits@G@std@@V?$allocator@G@2@@std@@V?$allocator@V?$basic_string@GU?$char_traits@G@std@@V?$allocator@G@2@@std@@@2@@3@_N@Z" PURGE="12" COMMENT="" />
    <EXPORT ORDINAL="280" NAME="?AddTrack@mcMIMLookupTagCmd@@QAEXPAUmiTrackMetadata@@@Z" PURGE="4" COMMENT="" />
    <EXPORT ORDINAL="281" NAME="?AddTracks@mcMIMLookupTagCmd@@QAEXPAUmiMetadataIColl@@@Z" PURGE="4" COMMENT="" />
    <EXPORT ORDINAL="282" NAME="?AddUpdateItem@mcMIMUpdateMetadataCmd@@QAEXPAUmiMetadata@@@Z" PURGE="4" COMMENT="" />
    <EXPORT ORDINAL="283" NAME="?AddUpdateItems@mcMIMUpdateMetadataCmd@@QAEXPAUmiMetadataIColl@@@Z" PURGE="4" COMMENT="" />
    <EXPORT ORDINAL="284" NAME="?AddUrl@mcMIMDeleteCmd@@QAEXABV?$basic_string@GU?$char_traits@G@std@@V?$allocator@G@2@@std@@@Z" PURGE="4" COMMENT="" />
    <EXPORT ORDINAL="285" NAME="?AddUrl@mcMIMGetMetadataCmd@@QAEXABV?$basic_string@GU?$char_traits@G@std@@V?$allocator@G@2@@std@@@Z" PURGE="4" COMMENT="" />
    <EXPORT ORDINAL="286" NAME="?AddUser@mcMIMMetadataFilter@@UAEXABV?$basic_string@GU?$char_traits@G@std@@V?$allocator@G@2@@std@@@Z" PURGE="4" COMMENT="" />
    <EXPORT ORDINAL="287" NAME="?BulkUpdate@mcMIMContentEventSink@@UAGJXZ" PURGE="4" COMMENT="" />
    <EXPORT ORDINAL="288" NAME="?CanInstallComponentNow@mcMIMDoComponentUpdatesCmd@@UAGJPAW4meCanInstallComponentNow@@@Z" PURGE="8" COMMENT="" />
    <EXPORT ORDINAL="289" NAME="?CanInstallComponentNow@moDoComponentUpdatesSink@@UAGJPAGPAW4meCanInstallComponentNow@@@Z" PURGE="12" COMMENT="" />
    <EXPORT ORDINAL="290" NAME="?CdBurned@mcMIMCdBurnedCmd@@QAEXXZ" PURGE="0" COMMENT="" />
    <EXPORT ORDINAL="291" NAME="?ChangeFilter@mcMIMContentEventSink@@QAEXABVmcMIMMetadataFilter@@@Z" PURGE="4" COMMENT="" />
    <EXPORT ORDINAL="292" NAME="?ComponentNeeded@mcMIMDeviceEventSink@@UAGJJ@Z" PURGE="8" COMMENT="" />
    <EXPORT ORDINAL="293" NAME="?CreateFolder@mcMIMBrowseObjectsCmd@@QAEXABV?$basic_string@GU?$char_traits@G@std@@V?$allocator@G@2@@std@@PAUmiFolderMetadata@@PAPAU4@@Z" PURGE="12" COMMENT="" />
    <EXPORT ORDINAL="294" NAME="?CreatePlaylist@mcMIMBrowseObjectsCmd@@QAEXABV?$basic_string@GU?$char_traits@G@std@@V?$allocator@G@2@@std@@PAUmiExternalPlaylistMetadata@@PAPAUmiMetadata@@@Z" PURGE="12" COMMENT="" />
    <EXPORT ORDINAL="295" NAME="?DeviceArrival@mcMIMDeviceEventSink@@UAGJPAUmiDeviceMetadata@@@Z" PURGE="8" COMMENT="" />
    <EXPORT ORDINAL="296" NAME="?DeviceDeparture@mcMIMDeviceEventSink@@UAGJPAG@Z" PURGE="8" COMMENT="" />
    <EXPORT ORDINAL="297" NAME="?DeviceInitComplete@mcMIMDeviceEventSink@@UAGJXZ" PURGE="4" COMMENT="" />
    <EXPORT ORDINAL="298" NAME="?Error@?$CComCoClass@VmoBrokenLinksSink@@$1?_GUID_afcdb803_505d_4e11_9885_9eb4e7a12679@@3U__s_GUID@@B@ATL@@SGJIABU_GUID@@JPAUHINSTANCE__@@@Z" PURGE="16" COMMENT="" />
    <EXPORT ORDINAL="299" NAME="?Error@?$CComCoClass@VmoBrokenLinksSink@@$1?_GUID_afcdb803_505d_4e11_9885_9eb4e7a12679@@3U__s_GUID@@B@ATL@@SGJIKPBGABU_GUID@@JPAUHINSTANCE__@@@Z" PURGE="24" COMMENT="" />
    <EXPORT ORDINAL="300" NAME="?Error@?$CComCoClass@VmoBrokenLinksSink@@$1?_GUID_afcdb803_505d_4e11_9885_9eb4e7a12679@@3U__s_GUID@@B@ATL@@SGJPBDABU_GUID@@J@Z" PURGE="12" COMMENT="" />
    <EXPORT ORDINAL="301" NAME="?Error@?$CComCoClass@VmoBrokenLinksSink@@$1?_GUID_afcdb803_505d_4e11_9885_9eb4e7a12679@@3U__s_GUID@@B@ATL@@SGJPBDK0ABU_GUID@@J@Z" PURGE="20" COMMENT="" />
    <EXPORT ORDINAL="302" NAME="?Error@?$CComCoClass@VmoBrokenLinksSink@@$1?_GUID_afcdb803_505d_4e11_9885_9eb4e7a12679@@3U__s_GUID@@B@ATL@@SGJPBGABU_GUID@@J@Z" PURGE="12" COMMENT="" />
    <EXPORT ORDINAL="303" NAME="?Error@?$CComCoClass@VmoBrokenLinksSink@@$1?_GUID_afcdb803_505d_4e11_9885_9eb4e7a12679@@3U__s_GUID@@B@ATL@@SGJPBGK0ABU_GUID@@J@Z" PURGE="20" COMMENT="" />
    <EXPORT ORDINAL="304" NAME="?Error@?$CComCoClass@VmoDoComponentUpdatesSink@@$1?_GUID_023c9e7c_6808_4613_86ec_38f5780edd52@@3U__s_GUID@@B@ATL@@SGJIABU_GUID@@JPAUHINSTANCE__@@@Z" PURGE="16" COMMENT="" />
    <EXPORT ORDINAL="305" NAME="?Error@?$CComCoClass@VmoDoComponentUpdatesSink@@$1?_GUID_023c9e7c_6808_4613_86ec_38f5780edd52@@3U__s_GUID@@B@ATL@@SGJIKPBGABU_GUID@@JPAUHINSTANCE__@@@Z" PURGE="24" COMMENT="" />
    <EXPORT ORDINAL="306" NAME="?Error@?$CComCoClass@VmoDoComponentUpdatesSink@@$1?_GUID_023c9e7c_6808_4613_86ec_38f5780edd52@@3U__s_GUID@@B@ATL@@SGJPBDABU_GUID@@J@Z" PURGE="12" COMMENT="" />
    <EXPORT ORDINAL="307" NAME="?Error@?$CComCoClass@VmoDoComponentUpdatesSink@@$1?_GUID_023c9e7c_6808_4613_86ec_38f5780edd52@@3U__s_GUID@@B@ATL@@SGJPBDK0ABU_GUID@@J@Z" PURGE="20" COMMENT="" />
    <EXPORT ORDINAL="308" NAME="?Error@?$CComCoClass@VmoDoComponentUpdatesSink@@$1?_GUID_023c9e7c_6808_4613_86ec_38f5780edd52@@3U__s_GUID@@B@ATL@@SGJPBGABU_GUID@@J@Z" PURGE="12" COMMENT="" />
    <EXPORT ORDINAL="309" NAME="?Error@?$CComCoClass@VmoDoComponentUpdatesSink@@$1?_GUID_023c9e7c_6808_4613_86ec_38f5780edd52@@3U__s_GUID@@B@ATL@@SGJPBGK0ABU_GUID@@J@Z" PURGE="20" COMMENT="" />
    <EXPORT ORDINAL="310" NAME="?Error@?$CComCoClass@VmoMIMJobSink@@$1?_GUID_bd13b4c0_2798_4c56_b572_fc3c62e2cdde@@3U__s_GUID@@B@ATL@@SGJIABU_GUID@@JPAUHINSTANCE__@@@Z" PURGE="16" COMMENT="" />
    <EXPORT ORDINAL="311" NAME="?Error@?$CComCoClass@VmoMIMJobSink@@$1?_GUID_bd13b4c0_2798_4c56_b572_fc3c62e2cdde@@3U__s_GUID@@B@ATL@@SGJIKPBGABU_GUID@@JPAUHINSTANCE__@@@Z" PURGE="24" COMMENT="" />
    <EXPORT ORDINAL="312" NAME="?Error@?$CComCoClass@VmoMIMJobSink@@$1?_GUID_bd13b4c0_2798_4c56_b572_fc3c62e2cdde@@3U__s_GUID@@B@ATL@@SGJPBDABU_GUID@@J@Z" PURGE="12" COMMENT="" />
    <EXPORT ORDINAL="313" NAME="?Error@?$CComCoClass@VmoMIMJobSink@@$1?_GUID_bd13b4c0_2798_4c56_b572_fc3c62e2cdde@@3U__s_GUID@@B@ATL@@SGJPBDK0ABU_GUID@@J@Z" PURGE="20" COMMENT="" />
    <EXPORT ORDINAL="314" NAME="?Error@?$CComCoClass@VmoMIMJobSink@@$1?_GUID_bd13b4c0_2798_4c56_b572_fc3c62e2cdde@@3U__s_GUID@@B@ATL@@SGJPBGABU_GUID@@J@Z" PURGE="12" COMMENT="" />
    <EXPORT ORDINAL="315" NAME="?Error@?$CComCoClass@VmoMIMJobSink@@$1?_GUID_bd13b4c0_2798_4c56_b572_fc3c62e2cdde@@3U__s_GUID@@B@ATL@@SGJPBGK0ABU_GUID@@J@Z" PURGE="20" COMMENT="" />
    <EXPORT ORDINAL="316" NAME="?Execute@mcMIMAddObjectCmd@@QAEXAAV?$basic_string@GU?$char_traits@G@std@@V?$allocator@G@2@@std@@@Z" PURGE="4" COMMENT="" />
    <EXPORT ORDINAL="317" NAME="?Execute@mcMIMAddToStreamCacheCmd@@EAEXXZ" PURGE="0" COMMENT="" />
    <EXPORT ORDINAL="318" NAME="?Execute@mcMIMAddToTODCacheCmd@@EAEXXZ" PURGE="0" COMMENT="" />
    <EXPORT ORDINAL="319" NAME="?Execute@mcMIMBrowseCmd@@UAEXPAPAUmiMetadataIColl@@@Z" PURGE="4" COMMENT="" />
    <EXPORT ORDINAL="320" NAME="?Execute@mcMIMContextMenuCmd@@MAEXXZ" PURGE="0" COMMENT="" />
    <EXPORT ORDINAL="321" NAME="?Execute@mcMIMDeviceInfoCmd@@UAEXPAPAUmiMetadataIColl@@@Z" PURGE="4" COMMENT="" />
    <EXPORT ORDINAL="322" NAME="?Execute@mcMIMDeviceInfoCmd@@UAEXXZ" PURGE="0" COMMENT="" />
    <EXPORT ORDINAL="323" NAME="?Execute@mcMIMGetFieldsCmd@@EAEXXZ" PURGE="0" COMMENT="" />
    <EXPORT ORDINAL="324" NAME="?Execute@mcMIMGetMetadataCmd@@UAEXPAPAUmiMetadataIColl@@@Z" PURGE="4" COMMENT="" />
    <EXPORT ORDINAL="325" NAME="?Execute@mcMIMGetMetadataCmd@@UAEXXZ" PURGE="0" COMMENT="" />
    <EXPORT ORDINAL="326" NAME="?Execute@mcMIMManagePortablesCmd@@EAEXXZ" PURGE="0" COMMENT="" />
    <EXPORT ORDINAL="327" NAME="?Execute@mcMIMMetadataQueryCmd@@QAEXPAPAUmiMetadataIColl@@@Z" PURGE="4" COMMENT="" />
    <EXPORT ORDINAL="328" NAME="?Execute@mcMIMMetadataQueryCmd@@UAEXXZ" PURGE="0" COMMENT="" />
    <EXPORT ORDINAL="329" NAME="?Execute@mcMIMUniqueNameCmd@@EAEXXZ" PURGE="0" COMMENT="" />
    <EXPORT ORDINAL="330" NAME="?Execute@miMIMJobBase@@UAEXXZ" PURGE="0" COMMENT="" />
    <EXPORT ORDINAL="331" NAME="?FinalConstruct@moBrokenLinksSink@@QAEJXZ" PURGE="0" COMMENT="" />
    <EXPORT ORDINAL="332" NAME="?FinalConstruct@moDoComponentUpdatesSink@@QAEJXZ" PURGE="0" COMMENT="" />
    <EXPORT ORDINAL="333" NAME="?FinalConstruct@moMIMJobSink@@QAEJXZ" PURGE="0" COMMENT="" />
    <EXPORT ORDINAL="334" NAME="?FinalRelease@moBrokenLinksSink@@QAEXXZ" PURGE="0" COMMENT="" />
    <EXPORT ORDINAL="335" NAME="?FinalRelease@moDoComponentUpdatesSink@@QAEXXZ" PURGE="0" COMMENT="" />
    <EXPORT ORDINAL="336" NAME="?FinalRelease@moMIMJobSink@@QAEXXZ" PURGE="0" COMMENT="" />
    <EXPORT ORDINAL="337" NAME="?Fix@mcMIMBrokenLinksCmd@@UAGJPAUmiTrackMetadata@@PAPAU2@@Z" PURGE="12" COMMENT="" />
    <EXPORT ORDINAL="338" NAME="?Fix@moBrokenLinksSink@@UAGJPAUmiTrackMetadata@@PAPAU2@@Z" PURGE="12" COMMENT="" />
    <EXPORT ORDINAL="339" NAME="?GenerateQuerySpec@mcMIMMetadataQueryCmd@@AAEXPAPAUmiQuerySpec@@@Z" PURGE="4" COMMENT="" />
    <EXPORT ORDINAL="340" NAME="?GetActivePortableMedia@mcMIMManagePortablesCmd@@QAEXPAPAUmiMediaMetadata@@@Z" PURGE="4" COMMENT="" />
    <EXPORT ORDINAL="341" NAME="?GetAllPortableDevices@mcMIMManagePortablesCmd@@QAEXPAPAUmiMetadataIColl@@@Z" PURGE="4" COMMENT="" />
    <EXPORT ORDINAL="342" NAME="?GetAllPortableMedia@mcMIMManagePortablesCmd@@QAEXPAPAUmiMetadataIColl@@@Z" PURGE="4" COMMENT="" />
    <EXPORT ORDINAL="343" NAME="?GetBrowseFilter@mcMIMContentEventSink@@QAEPAVmcMIMBrowseFilter@@XZ" PURGE="0" COMMENT="" />
    <EXPORT ORDINAL="344" NAME="?GetClassInfoW@?$IProvideClassInfoImpl@$1?_GUID_023c9e7c_6808_4613_86ec_38f5780edd52@@3U__s_GUID@@B$1?m_libid@CAtlModule@ATL@@2U_GUID@@A$00$0A@VCComTypeInfoHolder@ATL@@@ATL@@UAGJPAPAUITypeInfo@@@Z" PURGE="8" COMMENT="" />
    <EXPORT ORDINAL="345" NAME="?GetClassInfoW@?$IProvideClassInfoImpl@$1?_GUID_afcdb803_505d_4e11_9885_9eb4e7a12679@@3U__s_GUID@@B$1?m_libid@CAtlModule@ATL@@2U_GUID@@A$00$0A@VCComTypeInfoHolder@ATL@@@ATL@@UAGJPAPAUITypeInfo@@@Z" PURGE="8" COMMENT="" />
    <EXPORT ORDINAL="346" NAME="?GetClassInfoW@?$IProvideClassInfoImpl@$1?_GUID_bd13b4c0_2798_4c56_b572_fc3c62e2cdde@@3U__s_GUID@@B$1?m_libid@CAtlModule@ATL@@2U_GUID@@A$00$0A@VCComTypeInfoHolder@ATL@@@ATL@@UAGJPAPAUITypeInfo@@@Z" PURGE="8" COMMENT="" />
    <EXPORT ORDINAL="347" NAME="?GetComponentManagerClient@mcMIMDoComponentUpdatesCmd@@QBE?BW4meComponentManagerClients@@XZ" PURGE="0" COMMENT="" />
    <EXPORT ORDINAL="348" NAME="?GetContentFilter@mcMIMBrowseFilter@@QBEJXZ" PURGE="0" COMMENT="" />
    <EXPORT ORDINAL="349" NAME="?GetContextMenus@mcMIMContextMenuCmd@@QAEXABV?$basic_string@GU?$char_traits@G@std@@V?$allocator@G@2@@std@@ABV?$vector@V?$basic_string@GU?$char_traits@G@std@@V?$allocator@G@2@@std@@V?$allocator@V?$basic_string@GU?$char_traits@G@std@@V?$allocator@G@2@@std@@@2@@3@AAV?$vector@UmsMenuItem@mcMIMContextMenuCmd@@V?$allocator@UmsMenuItem@mcMIMContextMenuCmd@@@std@@@3@@Z" PURGE="12" COMMENT="" />
    <EXPORT ORDINAL="350" NAME="?GetDuplicateRules@mcMIMFindDuplicatesCmd@@QBEABV?$vector@V?$basic_string@GU?$char_traits@G@std@@V?$allocator@G@2@@std@@V?$allocator@V?$basic_string@GU?$char_traits@G@std@@V?$allocator@G@2@@std@@@2@@std@@XZ" PURGE="0" COMMENT="" />
    <EXPORT ORDINAL="351" NAME="?GetEventsOfInterest@miMIMDataFilter@@QBE?AW4meMIMSinkEventTypes@@XZ" PURGE="0" COMMENT="" />
    <EXPORT ORDINAL="352" NAME="?GetFilterSpec@mcMIMMetadataFilter@@QAEAAVmcFilterSpec@query@@XZ" PURGE="0" COMMENT="" />
    <EXPORT ORDINAL="353" NAME="?GetFilterSpec@mcMIMMetadataFilter@@QBEABVmcFilterSpec@query@@XZ" PURGE="0" COMMENT="" />
    <EXPORT ORDINAL="354" NAME="?GetItemMediaInfo@mcMIMDeviceInfoCmd@@QAEXABV?$basic_string@GU?$char_traits@G@std@@V?$allocator@G@2@@std@@PAPAUmiMediaMetadata@@@Z" PURGE="8" COMMENT="" />
    <EXPORT ORDINAL="355" NAME="?GetItemProgressCount@miMIMJobBase@@QAEJXZ" PURGE="0" COMMENT="" />
    <EXPORT ORDINAL="356" NAME="?GetMIMPtr@miMIMJobBase@@IAEABV?$_com_ptr_t@V?$_com_IIID@UmiMIM@@$1?_GUID_7c9a00fd_57bd_4410_aabe_97bcc99f5405@@3U__s_GUID@@B@@@@XZ" PURGE="0" COMMENT="" />
    <EXPORT ORDINAL="357" NAME="?GetMIMPtrFromCache@miMIMJobBase@@AAEXXZ" PURGE="0" COMMENT="" />
    <EXPORT ORDINAL="358" NAME="?GetMessageParent@miMIMJobBase@@QAEPAUHWND__@@XZ" PURGE="0" COMMENT="" />
    <EXPORT ORDINAL="359" NAME="?GetMetadataFilter@mcMIMContentEventSink@@QAEPAVmcMIMMetadataFilter@@XZ" PURGE="0" COMMENT="" />
    <EXPORT ORDINAL="360" NAME="?GetObjectCLSID@?$CComCoClass@VmoBrokenLinksSink@@$1?_GUID_afcdb803_505d_4e11_9885_9eb4e7a12679@@3U__s_GUID@@B@ATL@@SGABU_GUID@@XZ" PURGE="0" COMMENT="" />
    <EXPORT ORDINAL="361" NAME="?GetObjectCLSID@?$CComCoClass@VmoDoComponentUpdatesSink@@$1?_GUID_023c9e7c_6808_4613_86ec_38f5780edd52@@3U__s_GUID@@B@ATL@@SGABU_GUID@@XZ" PURGE="0" COMMENT="" />
    <EXPORT ORDINAL="362" NAME="?GetObjectCLSID@?$CComCoClass@VmoMIMJobSink@@$1?_GUID_bd13b4c0_2798_4c56_b572_fc3c62e2cdde@@3U__s_GUID@@B@ATL@@SGABU_GUID@@XZ" PURGE="0" COMMENT="" />
    <EXPORT ORDINAL="363" NAME="?GetObjectDescription@?$CComCoClass@VmoBrokenLinksSink@@$1?_GUID_afcdb803_505d_4e11_9885_9eb4e7a12679@@3U__s_GUID@@B@ATL@@SGPBGXZ" PURGE="0" COMMENT="" />
    <EXPORT ORDINAL="364" NAME="?GetObjectDescription@?$CComCoClass@VmoDoComponentUpdatesSink@@$1?_GUID_023c9e7c_6808_4613_86ec_38f5780edd52@@3U__s_GUID@@B@ATL@@SGPBGXZ" PURGE="0" COMMENT="" />
    <EXPORT ORDINAL="365" NAME="?GetObjectDescription@?$CComCoClass@VmoMIMJobSink@@$1?_GUID_bd13b4c0_2798_4c56_b572_fc3c62e2cdde@@3U__s_GUID@@B@ATL@@SGPBGXZ" PURGE="0" COMMENT="" />
    <EXPORT ORDINAL="366" NAME="?GetObjectFriendlyName@moBrokenLinksSink@@SAPBGXZ" PURGE="0" COMMENT="" />
    <EXPORT ORDINAL="367" NAME="?GetObjectFriendlyName@moDoComponentUpdatesSink@@SAPBGXZ" PURGE="0" COMMENT="" />
    <EXPORT ORDINAL="368" NAME="?GetObjectFriendlyName@moMIMJobSink@@SAPBGXZ" PURGE="0" COMMENT="" />
    <EXPORT ORDINAL="369" NAME="?GetOpCodes@moBrokenLinksSink@@SAPAKXZ" PURGE="0" COMMENT="" />
    <EXPORT ORDINAL="370" NAME="?GetOpCodes@moDoComponentUpdatesSink@@SAPAKXZ" PURGE="0" COMMENT="" />
    <EXPORT ORDINAL="371" NAME="?GetOpCodes@moMIMJobSink@@SAPAKXZ" PURGE="0" COMMENT="" />
    <EXPORT ORDINAL="372" NAME="?GetOpcodeBinaryVals@moBrokenLinksSink@@SAPAURGSBinary@ATL@@XZ" PURGE="0" COMMENT="" />
    <EXPORT ORDINAL="373" NAME="?GetOpcodeBinaryVals@moDoComponentUpdatesSink@@SAPAURGSBinary@ATL@@XZ" PURGE="0" COMMENT="" />
    <EXPORT ORDINAL="374" NAME="?GetOpcodeBinaryVals@moMIMJobSink@@SAPAURGSBinary@ATL@@XZ" PURGE="0" COMMENT="" />
    <EXPORT ORDINAL="375" NAME="?GetOpcodeDWORDVals@moBrokenLinksSink@@SAPAURGSDWORD@ATL@@XZ" PURGE="0" COMMENT="" />
    <EXPORT ORDINAL="376" NAME="?GetOpcodeDWORDVals@moDoComponentUpdatesSink@@SAPAURGSDWORD@ATL@@XZ" PURGE="0" COMMENT="" />
    <EXPORT ORDINAL="377" NAME="?GetOpcodeDWORDVals@moMIMJobSink@@SAPAURGSDWORD@ATL@@XZ" PURGE="0" COMMENT="" />
    <EXPORT ORDINAL="378" NAME="?GetOpcodeStringVals@moBrokenLinksSink@@SAPAURGSStrings@ATL@@XZ" PURGE="0" COMMENT="" />
    <EXPORT ORDINAL="379" NAME="?GetOpcodeStringVals@moDoComponentUpdatesSink@@SAPAURGSStrings@ATL@@XZ" PURGE="0" COMMENT="" />
    <EXPORT ORDINAL="380" NAME="?GetOpcodeStringVals@moMIMJobSink@@SAPAURGSStrings@ATL@@XZ" PURGE="0" COMMENT="" />
    <EXPORT ORDINAL="381" NAME="?GetPortableUserSettings@mcMIMManagePortablesCmd@@QAEXABV?$basic_string@GU?$char_traits@G@std@@V?$allocator@G@2@@std@@PAPAUmiPortableMediaUserSettings@@@Z" PURGE="8" COMMENT="" />
    <EXPORT ORDINAL="382" NAME="?GetPortableUserSettings@mcMIMManagePortablesCmd@@QAEXPAUmiMediaMetadata@@PAPAUmiPortableMediaUserSettings@@@Z" PURGE="8" COMMENT="" />
    <EXPORT ORDINAL="383" NAME="?GetProgID@moBrokenLinksSink@@SAPBGXZ" PURGE="0" COMMENT="" />
    <EXPORT ORDINAL="384" NAME="?GetProgID@moDoComponentUpdatesSink@@SAPBGXZ" PURGE="0" COMMENT="" />
    <EXPORT ORDINAL="385" NAME="?GetProgID@moMIMJobSink@@SAPBGXZ" PURGE="0" COMMENT="" />
    <EXPORT ORDINAL="386" NAME="?GetQueryCount@mcMIMMetadataQueryCmd@@UAEJXZ" PURGE="0" COMMENT="" />
    <EXPORT ORDINAL="387" NAME="?GetQueryFilter@mcMIMMetadataFilter@@QBEABVmcFilter@query@@XZ" PURGE="0" COMMENT="" />
    <EXPORT ORDINAL="388" NAME="?GetQueryFilterString@mcMIMMetadataFilter@@QBE?AV?$basic_string@GU?$char_traits@G@std@@V?$allocator@G@2@@std@@XZ" PURGE="4" COMMENT="" />
    <EXPORT ORDINAL="389" NAME="?GetRBCDMetadata@mcMIMRBCDMetadataCmd@@QAEXABV?$basic_string@GU?$char_traits@G@std@@V?$allocator@G@2@@std@@PAPAUmiRBCDMetadata@@@Z" PURGE="8" COMMENT="" />
    <EXPORT ORDINAL="390" NAME="?GetRefCount@mcMIMContentEventSink@@SAJXZ" PURGE="0" COMMENT="" />
    <EXPORT ORDINAL="391" NAME="?GetRefCount@mcMIMDeviceEventSink@@SAJXZ" PURGE="0" COMMENT="" />
    <EXPORT ORDINAL="392" NAME="?GetRelatedFields@mcMIMGetFieldsCmd@@QAEXABV?$basic_string@GU?$char_traits@G@std@@V?$allocator@G@2@@std@@AAVmcFieldSet@@@Z" PURGE="8" COMMENT="" />
    <EXPORT ORDINAL="393" NAME="?GetRelatedFields@mcMIMGetFieldsCmd@@QAEXABV?$basic_string@GU?$char_traits@G@std@@V?$allocator@G@2@@std@@AAVmcFields@query@@@Z" PURGE="8" COMMENT="" />
    <EXPORT ORDINAL="394" NAME="?GetRequestedContainerFields@mcMIMBrowseFilter@@QBEABVmcFieldSet@@XZ" PURGE="0" COMMENT="" />
    <EXPORT ORDINAL="395" NAME="?GetRequestedFields@mcMIMFindDuplicatesCmd@@QBEABV?$vector@V?$basic_string@GU?$char_traits@G@std@@V?$allocator@G@2@@std@@V?$allocator@V?$basic_string@GU?$char_traits@G@std@@V?$allocator@G@2@@std@@@2@@std@@XZ" PURGE="0" COMMENT="" />
    <EXPORT ORDINAL="396" NAME="?GetRequestedFields@mcMIMMetadataQueryFilter@@QBEABVmcFieldSet@@XZ" PURGE="0" COMMENT="" />
    <EXPORT ORDINAL="397" NAME="?GetRequestedTrackFields@mcMIMBrowseFilter@@QBEABVmcFieldSet@@XZ" PURGE="0" COMMENT="" />
    <EXPORT ORDINAL="398" NAME="?GetRollupFieldNames@mcMIMGetFieldsCmd@@QAEXABV?$basic_string@GU?$char_traits@G@std@@V?$allocator@G@2@@std@@ABV?$vector@V?$basic_string@GU?$char_traits@G@std@@V?$allocator@G@2@@std@@V?$allocator@V?$basic_string@GU?$char_traits@G@std@@V?$allocator@G@2@@std@@@2@@3@AAVmcFieldSet@@@Z" PURGE="12" COMMENT="" />
    <EXPORT ORDINAL="399" NAME="?GetRollupFieldNames@mcMIMGetFieldsCmd@@QAEXABV?$basic_string@GU?$char_traits@G@std@@V?$allocator@G@2@@std@@ABV?$vector@V?$basic_string@GU?$char_traits@G@std@@V?$allocator@G@2@@std@@V?$allocator@V?$basic_string@GU?$char_traits@G@std@@V?$allocator@G@2@@std@@@2@@3@AAVmcFields@query@@@Z" PURGE="12" COMMENT="" />
    <EXPORT ORDINAL="400" NAME="?GetRollupFromURI@mcMIMGetMetadataCmd@@QAE?AV?$basic_string@GU?$char_traits@G@std@@V?$allocator@G@2@@std@@ABV23@AAV23@@Z" PURGE="12" COMMENT="" />
    <EXPORT ORDINAL="401" NAME="?GetRollups@mcMIMMetadataQueryFilter@@QBEABV?$vector@V?$basic_string@GU?$char_traits@G@std@@V?$allocator@G@2@@std@@V?$allocator@V?$basic_string@GU?$char_traits@G@std@@V?$allocator@G@2@@std@@@2@@std@@XZ" PURGE="0" COMMENT="" />
    <EXPORT ORDINAL="402" NAME="?GetScopes@mcMIMMetadataFilter@@QBEABVmcScope@query@@XZ" PURGE="0" COMMENT="" />
    <EXPORT ORDINAL="403" NAME="?GetScopesString@mcMIMMetadataFilter@@QBE?AV?$basic_string@GU?$char_traits@G@std@@V?$allocator@G@2@@std@@XZ" PURGE="4" COMMENT="" />
    <EXPORT ORDINAL="404" NAME="?GetSortOrder@mcMIMMetadataQueryFilter@@QBEABVmcSort@query@@XZ" PURGE="0" COMMENT="" />
    <EXPORT ORDINAL="405" NAME="?GetStaticMessageParent@miMIMJobBase@@SAPAUHWND__@@XZ" PURGE="0" COMMENT="" />
    <EXPORT ORDINAL="406" NAME="?GetTarget@mcMIMFindDuplicatesCmd@@QBEABV?$basic_string@GU?$char_traits@G@std@@V?$allocator@G@2@@std@@XZ" PURGE="0" COMMENT="" />
    <EXPORT ORDINAL="407" NAME="?GetTarget@mcMIMMetadataFilter@@QBE?AV?$basic_string@GU?$char_traits@G@std@@V?$allocator@G@2@@std@@XZ" PURGE="4" COMMENT="" />
    <EXPORT ORDINAL="408" NAME="?GetTargetDeviceCategory@mcMIMDeviceFilter@@QBE?BV?$basic_string@GU?$char_traits@G@std@@V?$allocator@G@2@@std@@XZ" PURGE="4" COMMENT="" />
    <EXPORT ORDINAL="409" NAME="?GetTargetDeviceURI@mcMIMDeviceFilter@@QBE?BV?$basic_string@GU?$char_traits@G@std@@V?$allocator@G@2@@std@@XZ" PURGE="4" COMMENT="" />
    <EXPORT ORDINAL="410" NAME="?GetTargetURI@mcMIMBrowseFilter@@QBE?AV?$basic_string@GU?$char_traits@G@std@@V?$allocator@G@2@@std@@XZ" PURGE="4" COMMENT="" />
    <EXPORT ORDINAL="411" NAME="?GetURIFromRollup@mcMIMGetMetadataCmd@@QAE?AV?$basic_string@GU?$char_traits@G@std@@V?$allocator@G@2@@std@@ABV23@0@Z" PURGE="12" COMMENT="" />
    <EXPORT ORDINAL="412" NAME="?GetURIs@mcMIMCopyCmd@@QAE?AV?$vector@V?$basic_string@GU?$char_traits@G@std@@V?$allocator@G@2@@std@@V?$allocator@V?$basic_string@GU?$char_traits@G@std@@V?$allocator@G@2@@std@@@2@@std@@XZ" PURGE="4" COMMENT="" />
    <EXPORT ORDINAL="413" NAME="?GetURLFromURI@mcMIMGetMetadataCmd@@QAE?AV?$basic_string@GU?$char_traits@G@std@@V?$allocator@G@2@@std@@ABV23@@Z" PURGE="8" COMMENT="" />
    <EXPORT ORDINAL="414" NAME="?GetURLsFromURIs@mcMIMGetMetadataCmd@@QAEXABV?$vector@V?$basic_string@GU?$char_traits@G@std@@V?$allocator@G@2@@std@@V?$allocator@V?$basic_string@GU?$char_traits@G@std@@V?$allocator@G@2@@std@@@2@@std@@AAV23@@Z" PURGE="8" COMMENT="" />
    <EXPORT ORDINAL="415" NAME="?GetUnidentifiedRBCDs@mcMIMRBCDMetadataCmd@@QAEXPAPAUmiMetadataIColl@@@Z" PURGE="4" COMMENT="" />
    <EXPORT ORDINAL="416" NAME="?GetUniqueName@mcMIMUniqueNameCmd@@QAE?AV?$basic_string@GU?$char_traits@G@std@@V?$allocator@G@2@@std@@ABV23@00@Z" PURGE="16" COMMENT="" />
    <EXPORT ORDINAL="417" NAME="?GetUnknown@moBrokenLinksSink@@QAEPAUIUnknown@@XZ" PURGE="0" COMMENT="" />
    <EXPORT ORDINAL="418" NAME="?GetUnknown@moDoComponentUpdatesSink@@QAEPAUIUnknown@@XZ" PURGE="0" COMMENT="" />
    <EXPORT ORDINAL="419" NAME="?GetUnknown@moMIMJobSink@@QAEPAUIUnknown@@XZ" PURGE="0" COMMENT="" />
    <EXPORT ORDINAL="420" NAME="?GetUsers@mcMIMMetadataFilter@@QBEABVmcUsers@query@@XZ" PURGE="0" COMMENT="" />
    <EXPORT ORDINAL="421" NAME="?GetUsersString@mcMIMMetadataFilter@@QBE?AV?$basic_string@GU?$char_traits@G@std@@V?$allocator@G@2@@std@@XZ" PURGE="4" COMMENT="" />
    <EXPORT ORDINAL="422" NAME="?GetVersionIndependentProgID@moBrokenLinksSink@@SAPBGXZ" PURGE="0" COMMENT="" />
    <EXPORT ORDINAL="423" NAME="?GetVersionIndependentProgID@moDoComponentUpdatesSink@@SAPBGXZ" PURGE="0" COMMENT="" />
    <EXPORT ORDINAL="424" NAME="?GetVersionIndependentProgID@moMIMJobSink@@SAPBGXZ" PURGE="0" COMMENT="" />
    <EXPORT ORDINAL="425" NAME="?HookToMIMEventController@mcMIMContentEventSink@@EAEXXZ" PURGE="0" COMMENT="" />
    <EXPORT ORDINAL="426" NAME="?HookToMIMEventController@mcMIMDeviceEventSink@@EAEXXZ" PURGE="0" COMMENT="" />
    <EXPORT ORDINAL="427" NAME="?InternalAddRef@?$CComObjectRootEx@VCComMultiThreadModel@ATL@@@ATL@@QAEKXZ" PURGE="0" COMMENT="" />
    <EXPORT ORDINAL="428" NAME="?InternalAddRef@?$CComObjectRootEx@VCComSingleThreadModel@ATL@@@ATL@@QAEKXZ" PURGE="0" COMMENT="" />
    <EXPORT ORDINAL="429" NAME="?InternalFinalConstructAddRef@moBrokenLinksSink@@QAEXXZ" PURGE="0" COMMENT="" />
    <EXPORT ORDINAL="430" NAME="?InternalFinalConstructAddRef@moDoComponentUpdatesSink@@QAEXXZ" PURGE="0" COMMENT="" />
    <EXPORT ORDINAL="431" NAME="?InternalFinalConstructRelease@moBrokenLinksSink@@QAEXXZ" PURGE="0" COMMENT="" />
    <EXPORT ORDINAL="432" NAME="?InternalFinalConstructRelease@moDoComponentUpdatesSink@@QAEXXZ" PURGE="0" COMMENT="" />
    <EXPORT ORDINAL="433" NAME="?InternalRelease@?$CComObjectRootEx@VCComMultiThreadModel@ATL@@@ATL@@QAEKXZ" PURGE="0" COMMENT="" />
    <EXPORT ORDINAL="434" NAME="?InternalRelease@?$CComObjectRootEx@VCComSingleThreadModel@ATL@@@ATL@@QAEKXZ" PURGE="0" COMMENT="" />
    <EXPORT ORDINAL="435" NAME="?InvokeCommand@mcMIMContextMenuCmd@@QAEXABV?$basic_string@GU?$char_traits@G@std@@V?$allocator@G@2@@std@@ABV?$vector@V?$basic_string@GU?$char_traits@G@std@@V?$allocator@G@2@@std@@V?$allocator@V?$basic_string@GU?$char_traits@G@std@@V?$allocator@G@2@@std@@@2@@3@ABUmsMenuItem@1@@Z" PURGE="12" COMMENT="" />
    <EXPORT ORDINAL="436" NAME="?IsDeviceInfoByCategory@mcMIMDeviceFilter@@QBE_NXZ" PURGE="0" COMMENT="" />
    <EXPORT ORDINAL="437" NAME="?IsExecuting@miMIMJobBase@@QAE_NXZ" PURGE="0" COMMENT="" />
    <EXPORT ORDINAL="438" NAME="?IsFolderRecursive@mcMIMBrowseFilter@@QBE_NXZ" PURGE="0" COMMENT="" />
    <EXPORT ORDINAL="439" NAME="?IsInitializing@miMIMJobBase@@QAE_NXZ" PURGE="0" COMMENT="" />
    <EXPORT ORDINAL="440" NAME="?IsPending@miMIMJobBase@@QAE_NXZ" PURGE="0" COMMENT="" />
    <EXPORT ORDINAL="441" NAME="?IsPlaylistRecursive@mcMIMBrowseFilter@@QBE_NXZ" PURGE="0" COMMENT="" />
    <EXPORT ORDINAL="442" NAME="?IsRegistered@?$mcCustomEvSink@U_miMIMBrowseContentEvent@@$1?IID__miMIMBrowseContentEvent@@3U_GUID@@B@@QAE_NXZ" PURGE="0" COMMENT="" />
    <EXPORT ORDINAL="443" NAME="?IsRegistered@?$mcCustomEvSink@U_miMIMDeviceEvent@@$1?IID__miMIMDeviceEvent@@3U_GUID@@B@@QAE_NXZ" PURGE="0" COMMENT="" />
    <EXPORT ORDINAL="444" NAME="?IsRegistered@?$mcCustomEvSink@U_miMIMQueryContentEvent@@$1?IID__miMIMQueryContentEvent@@3U_GUID@@B@@QAE_NXZ" PURGE="0" COMMENT="" />
    <EXPORT ORDINAL="445" NAME="?IsUniqueName@mcMIMUniqueNameCmd@@QAE_NABV?$basic_string@GU?$char_traits@G@std@@V?$allocator@G@2@@std@@0@Z" PURGE="8" COMMENT="" />
    <EXPORT ORDINAL="446" NAME="?IsValidParams@mcMIMAddObjectCmd@@UAE_NXZ" PURGE="0" COMMENT="" />
    <EXPORT ORDINAL="447" NAME="?IsValidParams@mcMIMAddToStreamCacheCmd@@EAE_NXZ" PURGE="0" COMMENT="" />
    <EXPORT ORDINAL="448" NAME="?IsValidParams@mcMIMAddToTODCacheCmd@@EAE_NXZ" PURGE="0" COMMENT="" />
    <EXPORT ORDINAL="449" NAME="?IsValidParams@mcMIMAddTracksToPlaylistCmd@@UAE_NXZ" PURGE="0" COMMENT="" />
    <EXPORT ORDINAL="450" NAME="?IsValidParams@mcMIMBrokenLinksCmd@@UAE_NXZ" PURGE="0" COMMENT="" />
    <EXPORT ORDINAL="451" NAME="?IsValidParams@mcMIMBrowseCmd@@UAE_NXZ" PURGE="-1" COMMENT="" />
    <EXPORT ORDINAL="452" NAME="?IsValidParams@mcMIMBrowseObjectsCmd@@UAE_NXZ" PURGE="0" COMMENT="" />
    <EXPORT ORDINAL="453" NAME="?IsValidParams@mcMIMCdBurnedCmd@@UAE_NXZ" PURGE="0" COMMENT="" />
    <EXPORT ORDINAL="454" NAME="?IsValidParams@mcMIMContextMenuCmd@@UAE_NXZ" PURGE="0" COMMENT="" />
    <EXPORT ORDINAL="455" NAME="?IsValidParams@mcMIMCopyCmd@@UAE_NXZ" PURGE="0" COMMENT="" />
    <EXPORT ORDINAL="456" NAME="?IsValidParams@mcMIMDeleteCmd@@UAE_NXZ" PURGE="0" COMMENT="" />
    <EXPORT ORDINAL="457" NAME="?IsValidParams@mcMIMDeviceInfoCmd@@UAE_NXZ" PURGE="-1" COMMENT="" />
    <EXPORT ORDINAL="458" NAME="?IsValidParams@mcMIMDoComponentUpdatesCmd@@UAE_NXZ" PURGE="0" COMMENT="" />
    <EXPORT ORDINAL="459" NAME="?IsValidParams@mcMIMFindDuplicatesCmd@@UAE_NXZ" PURGE="0" COMMENT="" />
    <EXPORT ORDINAL="460" NAME="?IsValidParams@mcMIMGetFieldsCmd@@EAE_NXZ" PURGE="0" COMMENT="" />
    <EXPORT ORDINAL="461" NAME="?IsValidParams@mcMIMGetMetadataCmd@@UAE_NXZ" PURGE="0" COMMENT="" />
    <EXPORT ORDINAL="462" NAME="?IsValidParams@mcMIMHoldOffBackgroundJobsCmd@@MAE_NXZ" PURGE="0" COMMENT="" />
    <EXPORT ORDINAL="463" NAME="?IsValidParams@mcMIMImportLibCmd@@UAE_NXZ" PURGE="0" COMMENT="" />
    <EXPORT ORDINAL="464" NAME="?IsValidParams@mcMIMLookupTagCmd@@UAE_NXZ" PURGE="0" COMMENT="" />
    <EXPORT ORDINAL="465" NAME="?IsValidParams@mcMIMManagePortablesCmd@@UAE_NXZ" PURGE="0" COMMENT="" />
    <EXPORT ORDINAL="466" NAME="?IsValidParams@mcMIMMetadataQueryCmd@@UAE_NXZ" PURGE="-1" COMMENT="" />
    <EXPORT ORDINAL="467" NAME="?IsValidParams@mcMIMPrepareVolumeCmd@@UAE_NXZ" PURGE="0" COMMENT="" />
    <EXPORT ORDINAL="468" NAME="?IsValidParams@mcMIMRBCDMetadataCmd@@UAE_NXZ" PURGE="0" COMMENT="" />
    <EXPORT ORDINAL="469" NAME="?IsValidParams@mcMIMRemoveTagsCmd@@UAE_NXZ" PURGE="0" COMMENT="" />
    <EXPORT ORDINAL="470" NAME="?IsValidParams@mcMIMRenameCmd@@UAE_NXZ" PURGE="0" COMMENT="" />
    <EXPORT ORDINAL="471" NAME="?IsValidParams@mcMIMSyncContentCmd@@UAE_NXZ" PURGE="0" COMMENT="" />
    <EXPORT ORDINAL="472" NAME="?IsValidParams@mcMIMUniqueNameCmd@@EAE_NXZ" PURGE="0" COMMENT="" />
    <EXPORT ORDINAL="473" NAME="?IsValidParams@mcMIMUpdateMetadataCmd@@UAE_NXZ" PURGE="0" COMMENT="" />
    <EXPORT ORDINAL="474" NAME="?JobComplete@miMIMJobBase@@MAGJPAUmiMIMJobComplete@@@Z" PURGE="8" COMMENT="" />
    <EXPORT ORDINAL="475" NAME="?JobComplete@moMIMJobSink@@UAGJPAUmiMIMJobComplete@@@Z" PURGE="8" COMMENT="" />
    <EXPORT ORDINAL="476" NAME="?JobMessage@miMIMJobBase@@MAGJPAUmiMIMJobMessage@@PAJ@Z" PURGE="12" COMMENT="" />
    <EXPORT ORDINAL="477" NAME="?JobMessage@moMIMJobSink@@UAGJPAUmiMIMJobMessage@@PAJ@Z" PURGE="12" COMMENT="" />
    <EXPORT ORDINAL="478" NAME="?JobMessageCustom@moMIMJobSink@@UAGJPAUmiMIMJobMessage@@PAJ@Z" PURGE="12" COMMENT="" />
    <EXPORT ORDINAL="479" NAME="?JobPaused@miMIMJobBase@@MAGJPAUmiMIMJobPaused@@@Z" PURGE="8" COMMENT="" />
    <EXPORT ORDINAL="480" NAME="?JobPaused@moMIMJobSink@@UAGJPAUmiMIMJobPaused@@@Z" PURGE="8" COMMENT="" />
    <EXPORT ORDINAL="481" NAME="?JobProgress@miMIMJobBase@@MAGJPAUmiMIMJobProgress@@PAUmiMetadataIColl@@PAJ@Z" PURGE="16" COMMENT="" />
    <EXPORT ORDINAL="482" NAME="?JobProgress@moMIMJobSink@@UAGJPAUmiMIMJobProgress@@PAUmiMetadataIColl@@PAJ@Z" PURGE="16" COMMENT="" />
    <EXPORT ORDINAL="483" NAME="?JobStart@miMIMJobBase@@MAGJPAUmiMIMJobStart@@PAJ@Z" PURGE="12" COMMENT="" />
    <EXPORT ORDINAL="484" NAME="?JobStart@moMIMJobSink@@UAGJPAUmiMIMJobStart@@PAJ@Z" PURGE="12" COMMENT="" />
    <EXPORT ORDINAL="485" NAME="?LoadMIMPtr@miMIMJobBase@@AAEXXZ" PURGE="0" COMMENT="" />
    <EXPORT ORDINAL="486" NAME="?Lock@?$CComObjectRootEx@VCComMultiThreadModel@ATL@@@ATL@@QAEXXZ" PURGE="0" COMMENT="" />
    <EXPORT ORDINAL="487" NAME="?Lock@?$CComObjectRootEx@VCComSingleThreadModel@ATL@@@ATL@@QAEXXZ" PURGE="0" COMMENT="" />
    <EXPORT ORDINAL="488" NAME="?MakeTargetSpec@mcMIMDeleteCmd@@AAE?AV?$_com_ptr_t@V?$_com_IIID@UmiTargetSpec@@$1?_GUID_2f3c5ac5_e891_40da_a54c_0f71fd4efd45@@3U__s_GUID@@B@@@@XZ" PURGE="4" COMMENT="" />
    <EXPORT ORDINAL="489" NAME="?MakeTargetSpec@mcMIMGetMetadataCmd@@AAE?AV?$_com_ptr_t@V?$_com_IIID@UmiTargetSpec@@$1?_GUID_2f3c5ac5_e891_40da_a54c_0f71fd4efd45@@3U__s_GUID@@B@@@@XZ" PURGE="4" COMMENT="" />
    <EXPORT ORDINAL="490" NAME="?MediaArrival@mcMIMDeviceEventSink@@UAGJPAUmiMediaMetadata@@@Z" PURGE="8" COMMENT="" />
    <EXPORT ORDINAL="491" NAME="?MediaDeparture@mcMIMDeviceEventSink@@UAGJPAG0@Z" PURGE="12" COMMENT="" />
    <EXPORT ORDINAL="492" NAME="?ObjectAdded@mcMIMContentEventSink@@UAGJPAUmiMetadata@@@Z" PURGE="8" COMMENT="" />
    <EXPORT ORDINAL="493" NAME="?ObjectAdded@mcMIMContentEventSink@@UAGJPAUmiMetadata@@PAPAUtagSAFEARRAY@@@Z" PURGE="12" COMMENT="" />
    <EXPORT ORDINAL="494" NAME="?ObjectDeleted@mcMIMContentEventSink@@UAGJPAGPAPAUtagSAFEARRAY@@@Z" PURGE="12" COMMENT="" />
    <EXPORT ORDINAL="495" NAME="?ObjectDeleted@mcMIMContentEventSink@@UAGJPAUmiMetadata@@@Z" PURGE="8" COMMENT="" />
    <EXPORT ORDINAL="496" NAME="?ObjectRenamed@mcMIMContentEventSink@@UAGJPAUmiMetadata@@PAGPAPAUtagSAFEARRAY@@@Z" PURGE="16" COMMENT="" />
    <EXPORT ORDINAL="497" NAME="?ObjectUpdated@mcMIMContentEventSink@@UAGJPAUmiMetadata@@0@Z" PURGE="12" COMMENT="" />
    <EXPORT ORDINAL="498" NAME="?ObjectUpdated@mcMIMContentEventSink@@UAGJPAUmiMetadata@@PAPAUtagSAFEARRAY@@@Z" PURGE="12" COMMENT="" />
    <EXPORT ORDINAL="499" NAME="?OnBrowseObjectAdded@mcMIMContentEventSink@@QAEXPAUmiMetadata@@ABV?$vector@V?$basic_string@GU?$char_traits@G@std@@V?$allocator@G@2@@std@@V?$allocator@V?$basic_string@GU?$char_traits@G@std@@V?$allocator@G@2@@std@@@2@@std@@@Z" PURGE="8" COMMENT="" />
    <EXPORT ORDINAL="500" NAME="?OnBrowseObjectDeleted@mcMIMContentEventSink@@QAEXPAGABV?$vector@V?$basic_string@GU?$char_traits@G@std@@V?$allocator@G@2@@std@@V?$allocator@V?$basic_string@GU?$char_traits@G@std@@V?$allocator@G@2@@std@@@2@@std@@@Z" PURGE="8" COMMENT="" />
    <EXPORT ORDINAL="501" NAME="?OnBrowseObjectUpdated@mcMIMContentEventSink@@QAEXPAUmiMetadata@@ABV?$vector@V?$basic_string@GU?$char_traits@G@std@@V?$allocator@G@2@@std@@V?$allocator@V?$basic_string@GU?$char_traits@G@std@@V?$allocator@G@2@@std@@@2@@std@@@Z" PURGE="8" COMMENT="" />
    <EXPORT ORDINAL="502" NAME="?OnBulkUpdate@mcMIMContentEventSink@@QAEXXZ" PURGE="0" COMMENT="" />
    <EXPORT ORDINAL="503" NAME="?OnCanInstallComponentNow@mcMIMDoComponentUpdatesCmd@@QAEXPAW4meCanInstallComponentNow@@@Z" PURGE="4" COMMENT="" />
    <EXPORT ORDINAL="504" NAME="?OnComponentNeeded@mcMIMDeviceEventSink@@QAEXJ@Z" PURGE="4" COMMENT="" />
    <EXPORT ORDINAL="505" NAME="?OnDeviceArrival@mcMIMDeviceEventSink@@QAEXPAUmiDeviceMetadata@@@Z" PURGE="4" COMMENT="" />
    <EXPORT ORDINAL="506" NAME="?OnDeviceDeparture@mcMIMDeviceEventSink@@QAEXABV?$basic_string@GU?$char_traits@G@std@@V?$allocator@G@2@@std@@@Z" PURGE="4" COMMENT="" />
    <EXPORT ORDINAL="507" NAME="?OnDeviceInitComplete@mcMIMDeviceEventSink@@QAEXXZ" PURGE="0" COMMENT="" />
    <EXPORT ORDINAL="508" NAME="?OnFixTrack@mcMIMBrokenLinksCmd@@QAEXPAUmiTrackMetadata@@PAPAU2@@Z" PURGE="8" COMMENT="" />
    <EXPORT ORDINAL="509" NAME="?OnJobComplete@miMIMJobBase@@IAEXJW4meMIMJobCompleteState@@J@Z" PURGE="12" COMMENT="" />
    <EXPORT ORDINAL="510" NAME="?OnJobMessage@miMIMJobBase@@IAEXJABV?$basic_string@GU?$char_traits@G@std@@V?$allocator@G@2@@std@@0J_NABV?$vector@V?$_com_ptr_t@V?$_com_IIID@UmiMIMMessageButton@@$1?_GUID_66cbc27a_dcb2_4d9b_b6b5_140229b96aad@@3U__s_GUID@@B@@@@V?$allocator@V?$_com_ptr_t@V?$_com_IIID@UmiMIMMessageButton@@$1?_GUID_66cbc27a_dcb2_4d9b_b6b5_140229b96aad@@3U__s_GUID@@B@@@@@std@@@3@JPAJ@Z" PURGE="32" COMMENT="" />
    <EXPORT ORDINAL="511" NAME="?OnJobPaused@miMIMJobBase@@IAEXJ@Z" PURGE="4" COMMENT="" />
    <EXPORT ORDINAL="512" NAME="?OnJobProgress@miMIMJobBase@@IAEXJW4meMIMJobProgressState@@JJPAUmiMetadataIColl@@PAJ@Z" PURGE="24" COMMENT="" />
    <EXPORT ORDINAL="513" NAME="?OnJobStart@miMIMJobBase@@IAEXJJABV?$vector@V?$basic_string@GU?$char_traits@G@std@@V?$allocator@G@2@@std@@V?$allocator@V?$basic_string@GU?$char_traits@G@std@@V?$allocator@G@2@@std@@@2@@std@@PAJ@Z" PURGE="16" COMMENT="" />
    <EXPORT ORDINAL="514" NAME="?OnMIMRestarted@miMIMChangeEventSink@@SAXXZ" PURGE="0" COMMENT="" />
    <EXPORT ORDINAL="515" NAME="?OnMediaArrival@mcMIMDeviceEventSink@@QAEXPAUmiMediaMetadata@@@Z" PURGE="4" COMMENT="" />
    <EXPORT ORDINAL="516" NAME="?OnMediaDeparture@mcMIMDeviceEventSink@@QAEXABV?$basic_string@GU?$char_traits@G@std@@V?$allocator@G@2@@std@@0@Z" PURGE="8" COMMENT="" />
    <EXPORT ORDINAL="517" NAME="?OnObjectAdded@mcMIMContentEventSink@@QAEXPAUmiMetadata@@@Z" PURGE="4" COMMENT="" />
    <EXPORT ORDINAL="518" NAME="?OnObjectDeleted@mcMIMContentEventSink@@QAEXPAUmiMetadata@@@Z" PURGE="4" COMMENT="" />
    <EXPORT ORDINAL="519" NAME="?OnObjectUpdated@mcMIMContentEventSink@@QAEXPAUmiMetadata@@0@Z" PURGE="8" COMMENT="" />
    <EXPORT ORDINAL="520" NAME="?Pause@miMIMJobBase@@QAEXXZ" PURGE="0" COMMENT="" />
    <EXPORT ORDINAL="521" NAME="?ProtectPlaylistTracks@mcMIMDeleteCmd@@QAEX_N@Z" PURGE="4" COMMENT="" />
    <EXPORT ORDINAL="522" NAME="?QueryDeviceCategories@mcMIMDeviceInfoCmd@@QAEXAAV?$vector@V?$basic_string@GU?$char_traits@G@std@@V?$allocator@G@2@@std@@V?$allocator@V?$basic_string@GU?$char_traits@G@std@@V?$allocator@G@2@@std@@@2@@std@@@Z" PURGE="4" COMMENT="" />
    <EXPORT ORDINAL="523" NAME="?QueryInterface@?$mcCustomEvSink@U_miMIMBrowseContentEvent@@$1?IID__miMIMBrowseContentEvent@@3U_GUID@@B@@UAGJABU_GUID@@PAPAX@Z" PURGE="12" COMMENT="" />
    <EXPORT ORDINAL="524" NAME="?QueryInterface@?$mcCustomEvSink@U_miMIMDeviceEvent@@$1?IID__miMIMDeviceEvent@@3U_GUID@@B@@UAGJABU_GUID@@PAPAX@Z" PURGE="12" COMMENT="" />
    <EXPORT ORDINAL="525" NAME="?QueryInterface@?$mcCustomEvSink@U_miMIMQueryContentEvent@@$1?IID__miMIMQueryContentEvent@@3U_GUID@@B@@UAGJABU_GUID@@PAPAX@Z" PURGE="12" COMMENT="" />
    <EXPORT ORDINAL="526" NAME="?RefreshDevices@mcMIMManagePortablesCmd@@QAEXXZ" PURGE="0" COMMENT="" />
    <EXPORT ORDINAL="527" NAME="?Register@?$mcCustomEvSink@U_miMIMBrowseContentEvent@@$1?IID__miMIMBrowseContentEvent@@3U_GUID@@B@@QAEXPAUIUnknown@@@Z" PURGE="4" COMMENT="" />
    <EXPORT ORDINAL="528" NAME="?Register@?$mcCustomEvSink@U_miMIMDeviceEvent@@$1?IID__miMIMDeviceEvent@@3U_GUID@@B@@QAEXPAUIUnknown@@@Z" PURGE="4" COMMENT="" />
    <EXPORT ORDINAL="529" NAME="?Register@?$mcCustomEvSink@U_miMIMQueryContentEvent@@$1?IID__miMIMQueryContentEvent@@3U_GUID@@B@@QAEXPAUIUnknown@@@Z" PURGE="4" COMMENT="" />
    <EXPORT ORDINAL="530" NAME="?RegisterEvents@moBrokenLinksSink@@QAEXPAVmcMIMBrokenLinksCmd@@@Z" PURGE="4" COMMENT="" />
    <EXPORT ORDINAL="531" NAME="?RegisterEvents@moDoComponentUpdatesSink@@QAEXPAVmcMIMDoComponentUpdatesCmd@@@Z" PURGE="4" COMMENT="" />
    <EXPORT ORDINAL="532" NAME="?RegisterEvents@moMIMJobSink@@QAEXPAVmiMIMJobBase@@@Z" PURGE="4" COMMENT="" />
    <EXPORT ORDINAL="533" NAME="?Release@?$mcCustomEvSink@U_miMIMBrowseContentEvent@@$1?IID__miMIMBrowseContentEvent@@3U_GUID@@B@@UAGKXZ" PURGE="4" COMMENT="" />
    <EXPORT ORDINAL="534" NAME="?Release@?$mcCustomEvSink@U_miMIMDeviceEvent@@$1?IID__miMIMDeviceEvent@@3U_GUID@@B@@UAGKXZ" PURGE="4" COMMENT="" />
    <EXPORT ORDINAL="535" NAME="?Release@?$mcCustomEvSink@U_miMIMQueryContentEvent@@$1?IID__miMIMQueryContentEvent@@3U_GUID@@B@@UAGKXZ" PURGE="4" COMMENT="" />
    <EXPORT ORDINAL="536" NAME="?ReleaseHold@mcMIMHoldOffBackgroundJobsCmd@@QAEXXZ" PURGE="0" COMMENT="" />
    <EXPORT ORDINAL="537" NAME="?RemoveRequestedField@mcMIMMetadataQueryFilter@@QAEXABV?$basic_string@GU?$char_traits@G@std@@V?$allocator@G@2@@std@@@Z" PURGE="4" COMMENT="" />
    <EXPORT ORDINAL="538" NAME="?ResetRBCDsToUpdate@mcMIMRBCDMetadataCmd@@QAEXXZ" PURGE="0" COMMENT="" />
    <EXPORT ORDINAL="539" NAME="?Resume@miMIMJobBase@@QAEXXZ" PURGE="0" COMMENT="" />
    <EXPORT ORDINAL="540" NAME="?SetActivePortableMedia@mcMIMManagePortablesCmd@@QAEXABV?$basic_string@GU?$char_traits@G@std@@V?$allocator@G@2@@std@@@Z" PURGE="4" COMMENT="" />
    <EXPORT ORDINAL="541" NAME="?SetBaseParams@mcMIMCopyCmd@@QAEX_N0@Z" PURGE="8" COMMENT="" />
    <EXPORT ORDINAL="542" NAME="?SetBaseParams@mcMIMImportLibCmd@@QAEXABV?$basic_string@GU?$char_traits@G@std@@V?$allocator@G@2@@std@@@Z" PURGE="4" COMMENT="" />
    <EXPORT ORDINAL="543" NAME="?SetBaseParams@mcMIMPrepareVolumeCmd@@QAEXJ_N@Z" PURGE="8" COMMENT="" />
    <EXPORT ORDINAL="544" NAME="?SetComponentManagerClient@mcMIMDoComponentUpdatesCmd@@QAEXW4meComponentManagerClients@@@Z" PURGE="4" COMMENT="" />
    <EXPORT ORDINAL="545" NAME="?SetContentFilter@mcMIMBrowseFilter@@QAEXJ@Z" PURGE="4" COMMENT="" />
    <EXPORT ORDINAL="546" NAME="?SetDeleteBySpec@mcMIMDeleteCmd@@QAEXXZ" PURGE="0" COMMENT="" />
    <EXPORT ORDINAL="547" NAME="?SetDeleteOption@mcMIMDeleteCmd@@QAEXW4tagDeleteOptions@1@@Z" PURGE="4" COMMENT="" />
    <EXPORT ORDINAL="548" NAME="?SetDeleteParams@mcMIMDeleteCmd@@QAEXABV?$vector@V?$basic_string@GU?$char_traits@G@std@@V?$allocator@G@2@@std@@V?$allocator@V?$basic_string@GU?$char_traits@G@std@@V?$allocator@G@2@@std@@@2@@std@@W4tagDeleteOptions@1@@Z" PURGE="8" COMMENT="" />
    <EXPORT ORDINAL="549" NAME="?SetDestination@mcMIMSyncContentCmd@@QAEXABV?$basic_string@GU?$char_traits@G@std@@V?$allocator@G@2@@std@@@Z" PURGE="-1" COMMENT="" />
    <EXPORT ORDINAL="550" NAME="?SetDuplicateRules@mcMIMFindDuplicatesCmd@@QAEXABV?$vector@V?$basic_string@GU?$char_traits@G@std@@V?$allocator@G@2@@std@@V?$allocator@V?$basic_string@GU?$char_traits@G@std@@V?$allocator@G@2@@std@@@2@@std@@@Z" PURGE="4" COMMENT="" />
    <EXPORT ORDINAL="551" NAME="?SetEjectAfterBurn@mcMIMCdBurnedCmd@@QAEX_N@Z" PURGE="4" COMMENT="" />
    <EXPORT ORDINAL="552" NAME="?SetEventsOfInterest@miMIMDataFilter@@QAEXW4meMIMSinkEventTypes@@@Z" PURGE="4" COMMENT="" />
    <EXPORT ORDINAL="553" NAME="?SetFilter@mcMIMBrowseCmd@@QAEXABVmcMIMBrowseFilter@@@Z" PURGE="4" COMMENT="" />
    <EXPORT ORDINAL="554" NAME="?SetFilter@mcMIMContentEventSink@@QAEXABVmcMIMBrowseFilter@@@Z" PURGE="4" COMMENT="" />
    <EXPORT ORDINAL="555" NAME="?SetFilter@mcMIMContentEventSink@@QAEXABVmcMIMMetadataFilter@@@Z" PURGE="4" COMMENT="" />
    <EXPORT ORDINAL="556" NAME="?SetFilter@mcMIMMetadataQueryCmd@@QAEXABVmcMIMMetadataQueryFilter@@@Z" PURGE="4" COMMENT="" />
    <EXPORT ORDINAL="557" NAME="?SetFilterSpec@mcMIMDeleteCmd@@QAEXABVmcFilterSpec@query@@@Z" PURGE="4" COMMENT="" />
    <EXPORT ORDINAL="558" NAME="?SetFilterSpec@mcMIMDeleteCmd@@QAEXABVmcMIMMetadataFilter@@@Z" PURGE="4" COMMENT="" />
    <EXPORT ORDINAL="559" NAME="?SetFilterSpec@mcMIMGetMetadataCmd@@QAEXABV?$basic_string@GU?$char_traits@G@std@@V?$allocator@G@2@@std@@00@Z" PURGE="12" COMMENT="" />
    <EXPORT ORDINAL="560" NAME="?SetFilterSpec@mcMIMGetMetadataCmd@@QAEXABVmcFilterSpec@query@@@Z" PURGE="4" COMMENT="" />
    <EXPORT ORDINAL="561" NAME="?SetFilterSpec@mcMIMGetMetadataCmd@@QAEXABVmcMIMMetadataFilter@@@Z" PURGE="4" COMMENT="" />
    <EXPORT ORDINAL="562" NAME="?SetFolderRecursive@mcMIMBrowseCmd@@QAEX_N@Z" PURGE="4" COMMENT="" />
    <EXPORT ORDINAL="563" NAME="?SetFolderRecursive@mcMIMBrowseFilter@@QAEX_N@Z" PURGE="4" COMMENT="" />
    <EXPORT ORDINAL="564" NAME="?SetItemProgressCount@mcMIMPrepareVolumeCmd@@QAEXJ@Z" PURGE="4" COMMENT="" />
    <EXPORT ORDINAL="565" NAME="?SetItemProgressCount@miMIMJobBase@@QAEXJ@Z" PURGE="4" COMMENT="" />
    <EXPORT ORDINAL="566" NAME="?SetItemProgressGranularity@mcMIMCopyCmd@@QAEXJ@Z" PURGE="4" COMMENT="" />
    <EXPORT ORDINAL="567" NAME="?SetMessageParent@miMIMJobBase@@QAEXPAUHWND__@@@Z" PURGE="4" COMMENT="" />
    <EXPORT ORDINAL="568" NAME="?SetNames@mcMIMRenameCmd@@QAEXABV?$vector@V?$basic_string@GU?$char_traits@G@std@@V?$allocator@G@2@@std@@V?$allocator@V?$basic_string@GU?$char_traits@G@std@@V?$allocator@G@2@@std@@@2@@std@@0@Z" PURGE="8" COMMENT="" />
    <EXPORT ORDINAL="569" NAME="?SetObjectType@mcMIMDeviceFilter@@UAEXV?$basic_string@GU?$char_traits@G@std@@V?$allocator@G@2@@std@@@Z" PURGE="28" COMMENT="" />
    <EXPORT ORDINAL="570" NAME="?SetParams@mcMIMGetMetadataCmd@@QAEXABV?$vector@V?$basic_string@GU?$char_traits@G@std@@V?$allocator@G@2@@std@@V?$allocator@V?$basic_string@GU?$char_traits@G@std@@V?$allocator@G@2@@std@@@2@@std@@ABVmcFieldSet@@_N@Z" PURGE="12" COMMENT="" />
    <EXPORT ORDINAL="571" NAME="?SetParams@mcMIMRemoveTagsCmd@@QAEXABV?$vector@V?$basic_string@GU?$char_traits@G@std@@V?$allocator@G@2@@std@@V?$allocator@V?$basic_string@GU?$char_traits@G@std@@V?$allocator@G@2@@std@@@2@@std@@@Z" PURGE="4" COMMENT="" />
    <EXPORT ORDINAL="572" NAME="?SetPlaybackAfterBurn@mcMIMCdBurnedCmd@@QAEX_N@Z" PURGE="4" COMMENT="" />
    <EXPORT ORDINAL="573" NAME="?SetPlaylistRecursive@mcMIMBrowseCmd@@QAEX_N@Z" PURGE="4" COMMENT="" />
    <EXPORT ORDINAL="574" NAME="?SetPlaylistRecursive@mcMIMBrowseFilter@@QAEX_N@Z" PURGE="4" COMMENT="" />
    <EXPORT ORDINAL="575" NAME="?SetPlaylistTarget@mcMIMCopyCmd@@QAEXABV?$basic_string@GU?$char_traits@G@std@@V?$allocator@G@2@@std@@H@Z" PURGE="8" COMMENT="" />
    <EXPORT ORDINAL="576" NAME="?SetPortableUserSettings@mcMIMManagePortablesCmd@@QAEXABV?$basic_string@GU?$char_traits@G@std@@V?$allocator@G@2@@std@@PAUmiPortableMediaUserSettings@@@Z" PURGE="8" COMMENT="" />
    <EXPORT ORDINAL="577" NAME="?SetPortableUserSettings@mcMIMManagePortablesCmd@@QAEXPAUmiMediaMetadata@@PAUmiPortableMediaUserSettings@@@Z" PURGE="8" COMMENT="" />
    <EXPORT ORDINAL="578" NAME="?SetPriority@miMIMJobBase@@QAEXW4meJobPriority@1@@Z" PURGE="4" COMMENT="" />
    <EXPORT ORDINAL="579" NAME="?SetQueryFilter@mcMIMMetadataFilter@@UAEXABVmcFilter@query@@@Z" PURGE="4" COMMENT="" />
    <EXPORT ORDINAL="580" NAME="?SetRange@mcMIMLookupTagCmd@@QAEXJJ@Z" PURGE="8" COMMENT="" />
    <EXPORT ORDINAL="581" NAME="?SetReadFromMedia@mcMIMGetMetadataCmd@@QAEX_N@Z" PURGE="4" COMMENT="" />
    <EXPORT ORDINAL="582" NAME="?SetRequestedContainerFields@mcMIMBrowseFilter@@QAEXABVmcFieldSet@@@Z" PURGE="4" COMMENT="" />
    <EXPORT ORDINAL="583" NAME="?SetRequestedDataChunkSize@miMIMJobBase@@QAEXK@Z" PURGE="4" COMMENT="" />
    <EXPORT ORDINAL="584" NAME="?SetRequestedFields@mcMIMFindDuplicatesCmd@@QAEXABV?$vector@V?$basic_string@GU?$char_traits@G@std@@V?$allocator@G@2@@std@@V?$allocator@V?$basic_string@GU?$char_traits@G@std@@V?$allocator@G@2@@std@@@2@@std@@@Z" PURGE="4" COMMENT="" />
    <EXPORT ORDINAL="585" NAME="?SetRequestedFields@mcMIMGetMetadataCmd@@QAEXABVmcFieldSet@@@Z" PURGE="4" COMMENT="" />
    <EXPORT ORDINAL="586" NAME="?SetRequestedFields@mcMIMMetadataQueryFilter@@QAEXABV?$list@V?$basic_string@GU?$char_traits@G@std@@V?$allocator@G@2@@std@@V?$allocator@V?$basic_string@GU?$char_traits@G@std@@V?$allocator@G@2@@std@@@2@@std@@@Z" PURGE="4" COMMENT="" />
    <EXPORT ORDINAL="587" NAME="?SetRequestedFields@mcMIMMetadataQueryFilter@@QAEXABV?$vector@V?$basic_string@GU?$char_traits@G@std@@V?$allocator@G@2@@std@@V?$allocator@V?$basic_string@GU?$char_traits@G@std@@V?$allocator@G@2@@std@@@2@@std@@@Z" PURGE="4" COMMENT="" />
    <EXPORT ORDINAL="588" NAME="?SetRequestedFields@mcMIMMetadataQueryFilter@@QAEXABVmcFieldSet@@@Z" PURGE="4" COMMENT="" />
    <EXPORT ORDINAL="589" NAME="?SetRequestedTrackFields@mcMIMBrowseFilter@@QAEXABVmcFieldSet@@@Z" PURGE="4" COMMENT="" />
    <EXPORT ORDINAL="590" NAME="?SetRollupItems@mcMIMMetadataQueryFilter@@QAEXABV?$vector@V?$basic_string@GU?$char_traits@G@std@@V?$allocator@G@2@@std@@V?$allocator@V?$basic_string@GU?$char_traits@G@std@@V?$allocator@G@2@@std@@@2@@std@@@Z" PURGE="4" COMMENT="" />
    <EXPORT ORDINAL="591" NAME="?SetRunAsBackgroundJob@miMIMJobBase@@QAEXXZ" PURGE="0" COMMENT="" />
    <EXPORT ORDINAL="592" NAME="?SetRunAsForegroundJob@miMIMJobBase@@QAEXXZ" PURGE="0" COMMENT="" />
    <EXPORT ORDINAL="593" NAME="?SetScope@mcMIMMetadataFilter@@UAEXABV?$basic_string@GU?$char_traits@G@std@@V?$allocator@G@2@@std@@@Z" PURGE="4" COMMENT="" />
    <EXPORT ORDINAL="594" NAME="?SetScopes@mcMIMMetadataFilter@@UAEXABV?$vector@V?$basic_string@GU?$char_traits@G@std@@V?$allocator@G@2@@std@@V?$allocator@V?$basic_string@GU?$char_traits@G@std@@V?$allocator@G@2@@std@@@2@@std@@@Z" PURGE="4" COMMENT="" />
    <EXPORT ORDINAL="595" NAME="?SetSortOrder@mcMIMMetadataQueryFilter@@QAEXABVmcSort@query@@@Z" PURGE="4" COMMENT="" />
    <EXPORT ORDINAL="596" NAME="?SetSource@mcMIMSyncContentCmd@@QAEXABV?$basic_string@GU?$char_traits@G@std@@V?$allocator@G@2@@std@@@Z" PURGE="-1" COMMENT="" />
    <EXPORT ORDINAL="597" NAME="?SetStaticMessageParent@miMIMJobBase@@SAXPAUHWND__@@@Z" PURGE="0" COMMENT="" />
    <EXPORT ORDINAL="598" NAME="?SetTarget@mcMIMFindDuplicatesCmd@@QAEXABV?$basic_string@GU?$char_traits@G@std@@V?$allocator@G@2@@std@@@Z" PURGE="-1" COMMENT="" />
    <EXPORT ORDINAL="599" NAME="?SetTarget@mcMIMMetadataFilter@@UAEXABV?$basic_string@GU?$char_traits@G@std@@V?$allocator@G@2@@std@@@Z" PURGE="4" COMMENT="" />
    <EXPORT ORDINAL="600" NAME="?SetTargetDeviceCategory@mcMIMDeviceFilter@@QAEXABV?$basic_string@GU?$char_traits@G@std@@V?$allocator@G@2@@std@@@Z" PURGE="-1" COMMENT="" />
    <EXPORT ORDINAL="601" NAME="?SetTargetDeviceURI@mcMIMDeviceFilter@@QAEXABV?$basic_string@GU?$char_traits@G@std@@V?$allocator@G@2@@std@@@Z" PURGE="-1" COMMENT="" />
    <EXPORT ORDINAL="602" NAME="?SetTargetURI@mcMIMBrowseFilter@@QAEXABV?$basic_string@GU?$char_traits@G@std@@V?$allocator@G@2@@std@@@Z" PURGE="-1" COMMENT="" />
    <EXPORT ORDINAL="603" NAME="?SetTrackDestAttrs@mcMIMRBCDMetadataCmd@@QAEXV?$_com_ptr_t@V?$_com_IIID@UmiTrackDestination@@$1?_GUID_e91e3022_661d_490b_87c9_628235b6ffe8@@3U__s_GUID@@B@@@@@Z" PURGE="4" COMMENT="" />
    <EXPORT ORDINAL="604" NAME="?SetTrackDestinationAttrs@mcMIMCopyCmd@@QAEXPAUmiTrackDestination@@@Z" PURGE="4" COMMENT="" />
    <EXPORT ORDINAL="605" NAME="?SetTrackEffects@mcMIMCopyCmd@@QAEXPAUmiTrackEffects@@@Z" PURGE="4" COMMENT="" />
    <EXPORT ORDINAL="606" NAME="?SetTrackEffects@mcMIMCopyCmd@@QAEX_N0@Z" PURGE="8" COMMENT="" />
    <EXPORT ORDINAL="607" NAME="?SetTrackFormat@mcMIMCopyCmd@@QAEXABV?$basic_string@GU?$char_traits@G@std@@V?$allocator@G@2@@std@@JJU_GUID@@_NJABV?$vector@V?$basic_string@GU?$char_traits@G@std@@V?$allocator@G@2@@std@@V?$allocator@V?$basic_string@GU?$char_traits@G@std@@V?$allocator@G@2@@std@@@2@@3@22@Z" PURGE="48" COMMENT="" />
    <EXPORT ORDINAL="608" NAME="?SetTrackFormat@mcMIMCopyCmd@@QAEXPAUmiTrackEncodingFormat@@@Z" PURGE="4" COMMENT="" />
    <EXPORT ORDINAL="609" NAME="?SetURIQueryMode@mcMIMMetadataQueryFilter@@QAEX_N@Z" PURGE="4" COMMENT="" />
    <EXPORT ORDINAL="610" NAME="?SetURIorURLs@mcMIMPrepareVolumeCmd@@QAEXABV?$vector@V?$basic_string@GU?$char_traits@G@std@@V?$allocator@G@2@@std@@V?$allocator@V?$basic_string@GU?$char_traits@G@std@@V?$allocator@G@2@@std@@@2@@std@@@Z" PURGE="4" COMMENT="" />
    <EXPORT ORDINAL="611" NAME="?SetURIs@mcMIMCopyCmd@@QAEXABV?$vector@V?$basic_string@GU?$char_traits@G@std@@V?$allocator@G@2@@std@@V?$allocator@V?$basic_string@GU?$char_traits@G@std@@V?$allocator@G@2@@std@@@2@@std@@@Z" PURGE="4" COMMENT="" />
    <EXPORT ORDINAL="612" NAME="?SetUnidentifiedRBCD@mcMIMRBCDMetadataCmd@@QAEXABV?$basic_string@GU?$char_traits@G@std@@V?$allocator@G@2@@std@@@Z" PURGE="4" COMMENT="" />
    <EXPORT ORDINAL="613" NAME="?SetUpdateMedia@mcMIMUpdateMetadataCmd@@QAEX_N@Z" PURGE="4" COMMENT="" />
    <EXPORT ORDINAL="614" NAME="?SetUrls@mcMIMGetMetadataCmd@@QAEXABV?$vector@V?$basic_string@GU?$char_traits@G@std@@V?$allocator@G@2@@std@@V?$allocator@V?$basic_string@GU?$char_traits@G@std@@V?$allocator@G@2@@std@@@2@@std@@@Z" PURGE="4" COMMENT="" />
    <EXPORT ORDINAL="615" NAME="?SetUser@mcMIMMetadataFilter@@UAEXABV?$basic_string@GU?$char_traits@G@std@@V?$allocator@G@2@@std@@@Z" PURGE="4" COMMENT="" />
    <EXPORT ORDINAL="616" NAME="?SetUsers@mcMIMMetadataFilter@@UAEXABV?$vector@V?$basic_string@GU?$char_traits@G@std@@V?$allocator@G@2@@std@@V?$allocator@V?$basic_string@GU?$char_traits@G@std@@V?$allocator@G@2@@std@@@2@@std@@@Z" PURGE="4" COMMENT="" />
    <EXPORT ORDINAL="617" NAME="?SetupJob@mcMIMAddObjectCmd@@MAEXV?$_com_ptr_t@V?$_com_IIID@UmiMIMJobs@@$1?_GUID_fe312492_b746_47df_87fc_1582be20967e@@3U__s_GUID@@B@@@@PAU_miMIMJobEvent@@@Z" PURGE="8" COMMENT="" />
    <EXPORT ORDINAL="618" NAME="?SetupJob@mcMIMAddToStreamCacheCmd@@EAEXV?$_com_ptr_t@V?$_com_IIID@UmiMIMJobs@@$1?_GUID_fe312492_b746_47df_87fc_1582be20967e@@3U__s_GUID@@B@@@@PAU_miMIMJobEvent@@@Z" PURGE="8" COMMENT="" />
    <EXPORT ORDINAL="619" NAME="?SetupJob@mcMIMAddToTODCacheCmd@@EAEXV?$_com_ptr_t@V?$_com_IIID@UmiMIMJobs@@$1?_GUID_fe312492_b746_47df_87fc_1582be20967e@@3U__s_GUID@@B@@@@PAU_miMIMJobEvent@@@Z" PURGE="8" COMMENT="" />
    <EXPORT ORDINAL="620" NAME="?SetupJob@mcMIMAddTracksToPlaylistCmd@@MAEXV?$_com_ptr_t@V?$_com_IIID@UmiMIMJobs@@$1?_GUID_fe312492_b746_47df_87fc_1582be20967e@@3U__s_GUID@@B@@@@PAU_miMIMJobEvent@@@Z" PURGE="8" COMMENT="" />
    <EXPORT ORDINAL="621" NAME="?SetupJob@mcMIMBrokenLinksCmd@@MAEXV?$_com_ptr_t@V?$_com_IIID@UmiMIMJobs@@$1?_GUID_fe312492_b746_47df_87fc_1582be20967e@@3U__s_GUID@@B@@@@PAU_miMIMJobEvent@@@Z" PURGE="8" COMMENT="" />
    <EXPORT ORDINAL="622" NAME="?SetupJob@mcMIMBrowseCmd@@MAEXV?$_com_ptr_t@V?$_com_IIID@UmiMIMJobs@@$1?_GUID_fe312492_b746_47df_87fc_1582be20967e@@3U__s_GUID@@B@@@@PAU_miMIMJobEvent@@@Z" PURGE="8" COMMENT="" />
    <EXPORT ORDINAL="623" NAME="?SetupJob@mcMIMBrowseObjectsCmd@@MAEXV?$_com_ptr_t@V?$_com_IIID@UmiMIMJobs@@$1?_GUID_fe312492_b746_47df_87fc_1582be20967e@@3U__s_GUID@@B@@@@PAU_miMIMJobEvent@@@Z" PURGE="8" COMMENT="" />
    <EXPORT ORDINAL="624" NAME="?SetupJob@mcMIMCdBurnedCmd@@MAEXV?$_com_ptr_t@V?$_com_IIID@UmiMIMJobs@@$1?_GUID_fe312492_b746_47df_87fc_1582be20967e@@3U__s_GUID@@B@@@@PAU_miMIMJobEvent@@@Z" PURGE="8" COMMENT="" />
    <EXPORT ORDINAL="625" NAME="?SetupJob@mcMIMContextMenuCmd@@MAEXV?$_com_ptr_t@V?$_com_IIID@UmiMIMJobs@@$1?_GUID_fe312492_b746_47df_87fc_1582be20967e@@3U__s_GUID@@B@@@@PAU_miMIMJobEvent@@@Z" PURGE="8" COMMENT="" />
    <EXPORT ORDINAL="626" NAME="?SetupJob@mcMIMCopyCmd@@MAEXV?$_com_ptr_t@V?$_com_IIID@UmiMIMJobs@@$1?_GUID_fe312492_b746_47df_87fc_1582be20967e@@3U__s_GUID@@B@@@@PAU_miMIMJobEvent@@@Z" PURGE="8" COMMENT="" />
    <EXPORT ORDINAL="627" NAME="?SetupJob@mcMIMDeleteCmd@@MAEXV?$_com_ptr_t@V?$_com_IIID@UmiMIMJobs@@$1?_GUID_fe312492_b746_47df_87fc_1582be20967e@@3U__s_GUID@@B@@@@PAU_miMIMJobEvent@@@Z" PURGE="8" COMMENT="" />
    <EXPORT ORDINAL="628" NAME="?SetupJob@mcMIMDeviceInfoCmd@@MAEXV?$_com_ptr_t@V?$_com_IIID@UmiMIMJobs@@$1?_GUID_fe312492_b746_47df_87fc_1582be20967e@@3U__s_GUID@@B@@@@PAU_miMIMJobEvent@@@Z" PURGE="8" COMMENT="" />
    <EXPORT ORDINAL="629" NAME="?SetupJob@mcMIMDoComponentUpdatesCmd@@MAEXV?$_com_ptr_t@V?$_com_IIID@UmiMIMJobs@@$1?_GUID_fe312492_b746_47df_87fc_1582be20967e@@3U__s_GUID@@B@@@@PAU_miMIMJobEvent@@@Z" PURGE="8" COMMENT="" />
    <EXPORT ORDINAL="630" NAME="?SetupJob@mcMIMFindDuplicatesCmd@@MAEXV?$_com_ptr_t@V?$_com_IIID@UmiMIMJobs@@$1?_GUID_fe312492_b746_47df_87fc_1582be20967e@@3U__s_GUID@@B@@@@PAU_miMIMJobEvent@@@Z" PURGE="8" COMMENT="" />
    <EXPORT ORDINAL="631" NAME="?SetupJob@mcMIMGetFieldsCmd@@EAEXV?$_com_ptr_t@V?$_com_IIID@UmiMIMJobs@@$1?_GUID_fe312492_b746_47df_87fc_1582be20967e@@3U__s_GUID@@B@@@@PAU_miMIMJobEvent@@@Z" PURGE="8" COMMENT="" />
    <EXPORT ORDINAL="632" NAME="?SetupJob@mcMIMGetMetadataCmd@@MAEXV?$_com_ptr_t@V?$_com_IIID@UmiMIMJobs@@$1?_GUID_fe312492_b746_47df_87fc_1582be20967e@@3U__s_GUID@@B@@@@PAU_miMIMJobEvent@@@Z" PURGE="8" COMMENT="" />
    <EXPORT ORDINAL="633" NAME="?SetupJob@mcMIMHoldOffBackgroundJobsCmd@@MAEXV?$_com_ptr_t@V?$_com_IIID@UmiMIMJobs@@$1?_GUID_fe312492_b746_47df_87fc_1582be20967e@@3U__s_GUID@@B@@@@PAU_miMIMJobEvent@@@Z" PURGE="8" COMMENT="" />
    <EXPORT ORDINAL="634" NAME="?SetupJob@mcMIMImportLibCmd@@MAEXV?$_com_ptr_t@V?$_com_IIID@UmiMIMJobs@@$1?_GUID_fe312492_b746_47df_87fc_1582be20967e@@3U__s_GUID@@B@@@@PAU_miMIMJobEvent@@@Z" PURGE="8" COMMENT="" />
    <EXPORT ORDINAL="635" NAME="?SetupJob@mcMIMLookupTagCmd@@MAEXV?$_com_ptr_t@V?$_com_IIID@UmiMIMJobs@@$1?_GUID_fe312492_b746_47df_87fc_1582be20967e@@3U__s_GUID@@B@@@@PAU_miMIMJobEvent@@@Z" PURGE="8" COMMENT="" />
    <EXPORT ORDINAL="636" NAME="?SetupJob@mcMIMManagePortablesCmd@@MAEXV?$_com_ptr_t@V?$_com_IIID@UmiMIMJobs@@$1?_GUID_fe312492_b746_47df_87fc_1582be20967e@@3U__s_GUID@@B@@@@PAU_miMIMJobEvent@@@Z" PURGE="8" COMMENT="" />
    <EXPORT ORDINAL="637" NAME="?SetupJob@mcMIMMetadataQueryCmd@@MAEXV?$_com_ptr_t@V?$_com_IIID@UmiMIMJobs@@$1?_GUID_fe312492_b746_47df_87fc_1582be20967e@@3U__s_GUID@@B@@@@PAU_miMIMJobEvent@@@Z" PURGE="8" COMMENT="" />
    <EXPORT ORDINAL="638" NAME="?SetupJob@mcMIMPrepareVolumeCmd@@MAEXV?$_com_ptr_t@V?$_com_IIID@UmiMIMJobs@@$1?_GUID_fe312492_b746_47df_87fc_1582be20967e@@3U__s_GUID@@B@@@@PAU_miMIMJobEvent@@@Z" PURGE="8" COMMENT="" />
    <EXPORT ORDINAL="639" NAME="?SetupJob@mcMIMRBCDMetadataCmd@@MAEXV?$_com_ptr_t@V?$_com_IIID@UmiMIMJobs@@$1?_GUID_fe312492_b746_47df_87fc_1582be20967e@@3U__s_GUID@@B@@@@PAU_miMIMJobEvent@@@Z" PURGE="8" COMMENT="" />
    <EXPORT ORDINAL="640" NAME="?SetupJob@mcMIMRemoveTagsCmd@@MAEXV?$_com_ptr_t@V?$_com_IIID@UmiMIMJobs@@$1?_GUID_fe312492_b746_47df_87fc_1582be20967e@@3U__s_GUID@@B@@@@PAU_miMIMJobEvent@@@Z" PURGE="8" COMMENT="" />
    <EXPORT ORDINAL="641" NAME="?SetupJob@mcMIMRenameCmd@@MAEXV?$_com_ptr_t@V?$_com_IIID@UmiMIMJobs@@$1?_GUID_fe312492_b746_47df_87fc_1582be20967e@@3U__s_GUID@@B@@@@PAU_miMIMJobEvent@@@Z" PURGE="8" COMMENT="" />
    <EXPORT ORDINAL="642" NAME="?SetupJob@mcMIMSyncContentCmd@@MAEXV?$_com_ptr_t@V?$_com_IIID@UmiMIMJobs@@$1?_GUID_fe312492_b746_47df_87fc_1582be20967e@@3U__s_GUID@@B@@@@PAU_miMIMJobEvent@@@Z" PURGE="8" COMMENT="" />
    <EXPORT ORDINAL="643" NAME="?SetupJob@mcMIMUniqueNameCmd@@EAEXV?$_com_ptr_t@V?$_com_IIID@UmiMIMJobs@@$1?_GUID_fe312492_b746_47df_87fc_1582be20967e@@3U__s_GUID@@B@@@@PAU_miMIMJobEvent@@@Z" PURGE="8" COMMENT="" />
    <EXPORT ORDINAL="644" NAME="?SetupJob@mcMIMUpdateMetadataCmd@@MAEXV?$_com_ptr_t@V?$_com_IIID@UmiMIMJobs@@$1?_GUID_fe312492_b746_47df_87fc_1582be20967e@@3U__s_GUID@@B@@@@PAU_miMIMJobEvent@@@Z" PURGE="8" COMMENT="" />
    <EXPORT ORDINAL="645" NAME="?Stop@miMIMJobBase@@QAE_NXZ" PURGE="0" COMMENT="" />
    <EXPORT ORDINAL="646" NAME="?UnhookFromMIMEventController@mcMIMContentEventSink@@EAEXXZ" PURGE="0" COMMENT="" />
    <EXPORT ORDINAL="647" NAME="?UnhookFromMIMEventController@mcMIMDeviceEventSink@@EAEXXZ" PURGE="0" COMMENT="" />
    <EXPORT ORDINAL="648" NAME="?UnloadMIMPtr@miMIMJobBase@@AAEXXZ" PURGE="0" COMMENT="" />
    <EXPORT ORDINAL="649" NAME="?Unlock@?$CComObjectRootEx@VCComMultiThreadModel@ATL@@@ATL@@QAEXXZ" PURGE="0" COMMENT="" />
    <EXPORT ORDINAL="650" NAME="?Unlock@?$CComObjectRootEx@VCComSingleThreadModel@ATL@@@ATL@@QAEXXZ" PURGE="0" COMMENT="" />
    <EXPORT ORDINAL="651" NAME="?Unregister@?$mcCustomEvSink@U_miMIMBrowseContentEvent@@$1?IID__miMIMBrowseContentEvent@@3U_GUID@@B@@QAEXXZ" PURGE="0" COMMENT="" />
    <EXPORT ORDINAL="652" NAME="?Unregister@?$mcCustomEvSink@U_miMIMDeviceEvent@@$1?IID__miMIMDeviceEvent@@3U_GUID@@B@@QAEXXZ" PURGE="0" COMMENT="" />
    <EXPORT ORDINAL="653" NAME="?Unregister@?$mcCustomEvSink@U_miMIMQueryContentEvent@@$1?IID__miMIMQueryContentEvent@@3U_GUID@@B@@QAEXXZ" PURGE="0" COMMENT="" />
    <EXPORT ORDINAL="654" NAME="?UnregisterEvents@moBrokenLinksSink@@QAEXPAVmcMIMBrokenLinksCmd@@@Z" PURGE="4" COMMENT="" />
    <EXPORT ORDINAL="655" NAME="?UnregisterEvents@moDoComponentUpdatesSink@@QAEXPAVmcMIMDoComponentUpdatesCmd@@@Z" PURGE="4" COMMENT="" />
    <EXPORT ORDINAL="656" NAME="?UnregisterEvents@moMIMJobSink@@QAEXPAVmiMIMJobBase@@@Z" PURGE="4" COMMENT="" />
    <EXPORT ORDINAL="657" NAME="?UpdateItem@mcMIMUpdateMetadataCmd@@QAEXPAUmiMetadata@@_N@Z" PURGE="8" COMMENT="" />
    <EXPORT ORDINAL="658" NAME="?UpdatePlaylist@mcMIMUpdateMetadataCmd@@QAEXABV?$basic_string@GU?$char_traits@G@std@@V?$allocator@G@2@@std@@0ABV?$vector@V?$basic_string@GU?$char_traits@G@std@@V?$allocator@G@2@@std@@V?$allocator@V?$basic_string@GU?$char_traits@G@std@@V?$allocator@G@2@@std@@@2@@3@@Z" PURGE="12" COMMENT="" />
    <EXPORT ORDINAL="659" NAME="?UpdateRegistry@moBrokenLinksSink@@SGJH@Z" PURGE="4" COMMENT="" />
    <EXPORT ORDINAL="660" NAME="?UpdateRegistry@moDoComponentUpdatesSink@@SGJH@Z" PURGE="4" COMMENT="" />
    <EXPORT ORDINAL="661" NAME="?UpdateRegistry@moMIMJobSink@@SGJH@Z" PURGE="4" COMMENT="" />
    <EXPORT ORDINAL="662" NAME="?UpdateTrackLastPlayedLog@mcMIMUpdateMetadataCmd@@QAEXABV?$basic_string@GU?$char_traits@G@std@@V?$allocator@G@2@@std@@@Z" PURGE="4" COMMENT="" />
    <EXPORT ORDINAL="663" NAME="?ValidateMIMPtr@miMIMJobBase@@IAEXXZ" PURGE="0" COMMENT="" />
    <EXPORT ORDINAL="664" NAME="?VerifyFilter@mcMIMBrowseFilter@@UBE_NXZ" PURGE="0" COMMENT="" />
    <EXPORT ORDINAL="665" NAME="?VerifyFilter@mcMIMDeviceFilter@@UBE_NXZ" PURGE="0" COMMENT="" />
    <EXPORT ORDINAL="666" NAME="?VerifyFilter@mcMIMMetadataFilter@@UBE_NXZ" PURGE="0" COMMENT="" />
    <EXPORT ORDINAL="667" NAME="?VerifyFilter@mcMIMMetadataQueryFilter@@UBE_NXZ" PURGE="0" COMMENT="" />
    <EXPORT ORDINAL="668" NAME="?_Cache@moBrokenLinksSink@@SGJPAXABU_GUID@@PAPAXK@Z" PURGE="16" COMMENT="" />
    <EXPORT ORDINAL="669" NAME="?_Cache@moDoComponentUpdatesSink@@SGJPAXABU_GUID@@PAPAXK@Z" PURGE="16" COMMENT="" />
    <EXPORT ORDINAL="670" NAME="?_Cache@moMIMJobSink@@SGJPAXABU_GUID@@PAPAXK@Z" PURGE="16" COMMENT="" />
    <EXPORT ORDINAL="671" NAME="?_GetEntries@moBrokenLinksSink@@SGPBU_ATL_INTMAP_ENTRY@ATL@@XZ" PURGE="0" COMMENT="" />
    <EXPORT ORDINAL="672" NAME="?_GetEntries@moDoComponentUpdatesSink@@SGPBU_ATL_INTMAP_ENTRY@ATL@@XZ" PURGE="0" COMMENT="" />
    <EXPORT ORDINAL="673" NAME="?_GetEntries@moMIMJobSink@@SGPBU_ATL_INTMAP_ENTRY@ATL@@XZ" PURGE="0" COMMENT="" />
    <EXPORT ORDINAL="674" NAME="?_GetRawUnknown@moBrokenLinksSink@@QAEPAUIUnknown@@XZ" PURGE="0" COMMENT="" />
    <EXPORT ORDINAL="675" NAME="?_GetRawUnknown@moDoComponentUpdatesSink@@QAEPAUIUnknown@@XZ" PURGE="0" COMMENT="" />
    <EXPORT ORDINAL="676" NAME="?_GetRawUnknown@moMIMJobSink@@QAEPAUIUnknown@@XZ" PURGE="0" COMMENT="" />
    <EXPORT ORDINAL="677" NAME="?_InternalQueryInterface@moBrokenLinksSink@@QAEJABU_GUID@@PAPAX@Z" PURGE="8" COMMENT="" />
    <EXPORT ORDINAL="678" NAME="?_InternalQueryInterface@moDoComponentUpdatesSink@@QAEJABU_GUID@@PAPAX@Z" PURGE="8" COMMENT="" />
    <EXPORT ORDINAL="679" NAME="?_InternalQueryInterface@moMIMJobSink@@QAEJABU_GUID@@PAPAX@Z" PURGE="8" COMMENT="" />
    <EXPORT ORDINAL="680" NAME="?__RemoveAllEventHandlers@mcMIMBrokenLinksCmd@@QAEXPAX@Z" PURGE="4" COMMENT="" />
    <EXPORT ORDINAL="681" NAME="?__RemoveAllEventHandlers@mcMIMContentEventSink@@QAEXPAX@Z" PURGE="4" COMMENT="" />
    <EXPORT ORDINAL="682" NAME="?__RemoveAllEventHandlers@mcMIMDeviceEventSink@@QAEXPAX@Z" PURGE="4" COMMENT="" />
    <EXPORT ORDINAL="683" NAME="?__RemoveAllEventHandlers@mcMIMDoComponentUpdatesCmd@@QAEXPAX@Z" PURGE="4" COMMENT="" />
    <EXPORT ORDINAL="684" NAME="?__RemoveAllEventHandlers@miMIMJobBase@@QAEXPAX@Z" PURGE="4" COMMENT="" />
    <EXPORT ORDINAL="685" NAME="?_entries@?1??_GetEntries@moBrokenLinksSink@@SGPBU_ATL_INTMAP_ENTRY@ATL@@XZ@4QBU34@B" PURGE="-1" COMMENT="" />
    <EXPORT ORDINAL="686" NAME="?_entries@?1??_GetEntries@moDoComponentUpdatesSink@@SGPBU_ATL_INTMAP_ENTRY@ATL@@XZ@4QBU34@B" PURGE="-1" COMMENT="" />
    <EXPORT ORDINAL="687" NAME="?_entries@?1??_GetEntries@moMIMJobSink@@SGPBU_ATL_INTMAP_ENTRY@ATL@@XZ@4QBU34@B" PURGE="-1" COMMENT="" />
    <EXPORT ORDINAL="688" NAME="?_tih@?$IProvideClassInfoImpl@$1?_GUID_023c9e7c_6808_4613_86ec_38f5780edd52@@3U__s_GUID@@B$1?m_libid@CAtlModule@ATL@@2U_GUID@@A$00$0A@VCComTypeInfoHolder@ATL@@@ATL@@1VCComTypeInfoHolder@2@A" PURGE="-1" COMMENT="" />
    <EXPORT ORDINAL="689" NAME="?_tih@?$IProvideClassInfoImpl@$1?_GUID_afcdb803_505d_4e11_9885_9eb4e7a12679@@3U__s_GUID@@B$1?m_libid@CAtlModule@ATL@@2U_GUID@@A$00$0A@VCComTypeInfoHolder@ATL@@@ATL@@1VCComTypeInfoHolder@2@A" PURGE="-1" COMMENT="" />
    <EXPORT ORDINAL="690" NAME="?_tih@?$IProvideClassInfoImpl@$1?_GUID_bd13b4c0_2798_4c56_b572_fc3c62e2cdde@@3U__s_GUID@@B$1?m_libid@CAtlModule@ATL@@2U_GUID@@A$00$0A@VCComTypeInfoHolder@ATL@@@ATL@@1VCComTypeInfoHolder@2@A" PURGE="-1" COMMENT="" />
    <EXPORT ORDINAL="691" NAME="?m_dwMIMCookie@miMIMJobBase@@0KA" PURGE="-1" COMMENT="" />
    <EXPORT ORDINAL="692" NAME="?m_hwndStaticMsgParent@miMIMJobBase@@1PAUHWND__@@A" PURGE="-1" COMMENT="" />
    <EXPORT ORDINAL="693" NAME="?m_nMIMRefCount@miMIMJobBase@@0JA" PURGE="-1" COMMENT="" />
    <EXPORT ORDINAL="694" NAME="?m_nRefCount@mcMIMContentEventSink@@0JA" PURGE="-1" COMMENT="" />
    <EXPORT ORDINAL="695" NAME="?m_nRefCount@mcMIMDeviceEventSink@@0JA" PURGE="-1" COMMENT="" />
    <EXPORT ORDINAL="696" NAME="?rgBinary@?1??GetOpcodeBinaryVals@moBrokenLinksSink@@SAPAURGSBinary@ATL@@XZ@4PAU34@A" PURGE="-1" COMMENT="" />
    <EXPORT ORDINAL="697" NAME="?rgBinary@?1??GetOpcodeBinaryVals@moDoComponentUpdatesSink@@SAPAURGSBinary@ATL@@XZ@4PAU34@A" PURGE="-1" COMMENT="" />
    <EXPORT ORDINAL="698" NAME="?rgBinary@?1??GetOpcodeBinaryVals@moMIMJobSink@@SAPAURGSBinary@ATL@@XZ@4PAU34@A" PURGE="-1" COMMENT="" />
    <EXPORT ORDINAL="699" NAME="?rgDWORDS@?1??GetOpcodeDWORDVals@moBrokenLinksSink@@SAPAURGSDWORD@ATL@@XZ@4PAU34@A" PURGE="-1" COMMENT="" />
    <EXPORT ORDINAL="700" NAME="?rgDWORDS@?1??GetOpcodeDWORDVals@moDoComponentUpdatesSink@@SAPAURGSDWORD@ATL@@XZ@4PAU34@A" PURGE="-1" COMMENT="" />
    <EXPORT ORDINAL="701" NAME="?rgDWORDS@?1??GetOpcodeDWORDVals@moMIMJobSink@@SAPAURGSDWORD@ATL@@XZ@4PAU34@A" PURGE="-1" COMMENT="" />
    <EXPORT ORDINAL="702" NAME="?rgOps@?1??GetOpCodes@moBrokenLinksSink@@SAPAKXZ@4PAKA" PURGE="-1" COMMENT="" />
    <EXPORT ORDINAL="703" NAME="?rgOps@?1??GetOpCodes@moDoComponentUpdatesSink@@SAPAKXZ@4PAKA" PURGE="-1" COMMENT="" />
    <EXPORT ORDINAL="704" NAME="?rgOps@?1??GetOpCodes@moMIMJobSink@@SAPAKXZ@4PAKA" PURGE="-1" COMMENT="" />
    <EXPORT ORDINAL="705" NAME="?rgStrings@?1??GetOpcodeStringVals@moBrokenLinksSink@@SAPAURGSStrings@ATL@@XZ@4PAU34@A" PURGE="-1" COMMENT="" />
    <EXPORT ORDINAL="706" NAME="?rgStrings@?1??GetOpcodeStringVals@moDoComponentUpdatesSink@@SAPAURGSStrings@ATL@@XZ@4PAU34@A" PURGE="-1" COMMENT="" />
    <EXPORT ORDINAL="707" NAME="?rgStrings@?1??GetOpcodeStringVals@moMIMJobSink@@SAPAURGSStrings@ATL@@XZ@4PAU34@A" PURGE="-1" COMMENT="" />
    <EXPORT ORDINAL="708" NAME="DllCanUnloadNow" PURGE="0" COMMENT="" />
    <EXPORT ORDINAL="709" NAME="DllGetClassObject" PURGE="12" COMMENT="" />
    <EXPORT ORDINAL="710" NAME="DllMain" PURGE="12" COMMENT="" />
    <EXPORT ORDINAL="711" NAME="DllRegisterServer" PURGE="0" COMMENT="" />
    <EXPORT ORDINAL="712" NAME="DllUnregisterServer" PURGE="0" COMMENT="" />
</LIBRARY>

