<?xml version="1.0" encoding="UTF-8"?>
<LIBRARY NAME="cv210.dll" PATH="/DLLArchive/etc/cv210.dll" DATE="Fri Jul 03 12:28:37 PDT 2020" VERSION="">
    <EXPORT ORDINAL="1" NAME="??0?$AutoBuffer@C$0BAAI@@cv@@QAE@XZ" PURGE="0" COMMENT="" />
    <EXPORT ORDINAL="2" NAME="??0?$AutoBuffer@D$0BAAI@@cv@@QAE@XZ" PURGE="0" COMMENT="" />
    <EXPORT ORDINAL="3" NAME="??0?$AutoBuffer@E$0BAAI@@cv@@QAE@I@Z" PURGE="4" COMMENT="" />
    <EXPORT ORDINAL="4" NAME="??0?$AutoBuffer@E$0BAAI@@cv@@QAE@XZ" PURGE="0" COMMENT="" />
    <EXPORT ORDINAL="5" NAME="??0?$AutoBuffer@H$0EAI@@cv@@QAE@I@Z" PURGE="4" COMMENT="" />
    <EXPORT ORDINAL="6" NAME="??0?$AutoBuffer@H$0EAI@@cv@@QAE@XZ" PURGE="0" COMMENT="" />
    <EXPORT ORDINAL="7" NAME="??0?$AutoBuffer@M$0BAAA@@cv@@QAE@I@Z" PURGE="4" COMMENT="" />
    <EXPORT ORDINAL="8" NAME="??0?$AutoBuffer@M$0EAI@@cv@@QAE@I@Z" PURGE="4" COMMENT="" />
    <EXPORT ORDINAL="9" NAME="??0?$AutoBuffer@M$0EAI@@cv@@QAE@XZ" PURGE="0" COMMENT="" />
    <EXPORT ORDINAL="10" NAME="??0?$AutoBuffer@N$0CAI@@cv@@QAE@I@Z" PURGE="4" COMMENT="" />
    <EXPORT ORDINAL="11" NAME="??0?$AutoBuffer@N$0CAI@@cv@@QAE@XZ" PURGE="0" COMMENT="" />
    <EXPORT ORDINAL="12" NAME="??0?$AutoBuffer@PAM$0EAA@@cv@@QAE@I@Z" PURGE="4" COMMENT="" />
    <EXPORT ORDINAL="13" NAME="??0?$AutoBuffer@PAUCvPoint@@$0EAI@@cv@@QAE@XZ" PURGE="0" COMMENT="" />
    <EXPORT ORDINAL="14" NAME="??0?$AutoBuffer@PAU_CvTrianAttr@@$0EAI@@cv@@QAE@I@Z" PURGE="4" COMMENT="" />
    <EXPORT ORDINAL="15" NAME="??0?$AutoBuffer@PAU_CvTrianAttr@@$0EAI@@cv@@QAE@XZ" PURGE="0" COMMENT="" />
    <EXPORT ORDINAL="16" NAME="??0?$AutoBuffer@UCvFFillSegment@@$0BFN@@cv@@QAE@XZ" PURGE="0" COMMENT="" />
    <EXPORT ORDINAL="17" NAME="??0?$AutoBuffer@UCvPoint2D32f@@$0CAI@@cv@@QAE@I@Z" PURGE="4" COMMENT="" />
    <EXPORT ORDINAL="18" NAME="??0?$AutoBuffer@UCvPoint2D32f@@$0CAI@@cv@@QAE@XZ" PURGE="0" COMMENT="" />
    <EXPORT ORDINAL="19" NAME="??0?$AutoBuffer@UDecimateAlpha@cv@@$0BFN@@cv@@QAE@I@Z" PURGE="4" COMMENT="" />
    <EXPORT ORDINAL="20" NAME="??0?$AutoBuffer@U_CvPtInfo@@$0NE@@cv@@QAE@I@Z" PURGE="4" COMMENT="" />
    <EXPORT ORDINAL="21" NAME="??0?$MatExpr_@V?$MatExpr_Op2_@VMat@cv@@V12@V12@V?$MatOp_Sub_@VMat@cv@@@2@@cv@@VMat@2@@cv@@QAE@ABV01@@Z" PURGE="4" COMMENT="" />
    <EXPORT ORDINAL="22" NAME="??0?$MatExpr_@V?$MatExpr_Op2_@VMat@cv@@V12@V12@V?$MatOp_Sub_@VMat@cv@@@2@@cv@@VMat@2@@cv@@QAE@ABV?$MatExpr_Op2_@VMat@cv@@V12@V12@V?$MatOp_Sub_@VMat@cv@@@2@@1@@Z" PURGE="4" COMMENT="" />
    <EXPORT ORDINAL="23" NAME="??0?$MatExpr_@V?$MatExpr_Op2_@VMat@cv@@V?$Scalar_@N@2@V12@V?$MatOp_AddS_@VMat@cv@@@2@@cv@@VMat@2@@cv@@QAE@ABV01@@Z" PURGE="4" COMMENT="" />
    <EXPORT ORDINAL="24" NAME="??0?$MatExpr_@V?$MatExpr_Op2_@VMat@cv@@V?$Scalar_@N@2@V12@V?$MatOp_AddS_@VMat@cv@@@2@@cv@@VMat@2@@cv@@QAE@ABV?$MatExpr_Op2_@VMat@cv@@V?$Scalar_@N@2@V12@V?$MatOp_AddS_@VMat@cv@@@2@@1@@Z" PURGE="4" COMMENT="" />
    <EXPORT ORDINAL="25" NAME="??0?$MatExpr_@V?$MatExpr_Op3_@VMat@cv@@NHV12@V?$MatOp_CmpS_@VMat@cv@@@2@@cv@@VMat@2@@cv@@QAE@ABV01@@Z" PURGE="4" COMMENT="" />
    <EXPORT ORDINAL="26" NAME="??0?$MatExpr_@V?$MatExpr_Op3_@VMat@cv@@NHV12@V?$MatOp_CmpS_@VMat@cv@@@2@@cv@@VMat@2@@cv@@QAE@ABV?$MatExpr_Op3_@VMat@cv@@NHV12@V?$MatOp_CmpS_@VMat@cv@@@2@@1@@Z" PURGE="4" COMMENT="" />
    <EXPORT ORDINAL="27" NAME="??0?$MatExpr_@V?$MatExpr_Op3_@VMat@cv@@V12@HV12@V?$MatOp_Bin_@VMat@cv@@@2@@cv@@VMat@2@@cv@@QAE@ABV01@@Z" PURGE="4" COMMENT="" />
    <EXPORT ORDINAL="28" NAME="??0?$MatExpr_@V?$MatExpr_Op3_@VMat@cv@@V12@HV12@V?$MatOp_Bin_@VMat@cv@@@2@@cv@@VMat@2@@cv@@QAE@ABV?$MatExpr_Op3_@VMat@cv@@V12@HV12@V?$MatOp_Bin_@VMat@cv@@@2@@1@@Z" PURGE="4" COMMENT="" />
    <EXPORT ORDINAL="29" NAME="??0?$MatExpr_@V?$MatExpr_Op3_@VMat@cv@@V12@HV12@V?$MatOp_Cmp_@VMat@cv@@@2@@cv@@VMat@2@@cv@@QAE@ABV01@@Z" PURGE="4" COMMENT="" />
    <EXPORT ORDINAL="30" NAME="??0?$MatExpr_@V?$MatExpr_Op3_@VMat@cv@@V12@HV12@V?$MatOp_Cmp_@VMat@cv@@@2@@cv@@VMat@2@@cv@@QAE@ABV?$MatExpr_Op3_@VMat@cv@@V12@HV12@V?$MatOp_Cmp_@VMat@cv@@@2@@1@@Z" PURGE="4" COMMENT="" />
    <EXPORT ORDINAL="31" NAME="??0?$MatExpr_@V?$MatExpr_Op3_@VMat@cv@@V?$Scalar_@N@2@HV12@V?$MatOp_BinS_@VMat@cv@@@2@@cv@@VMat@2@@cv@@QAE@ABV01@@Z" PURGE="4" COMMENT="" />
    <EXPORT ORDINAL="32" NAME="??0?$MatExpr_@V?$MatExpr_Op3_@VMat@cv@@V?$Scalar_@N@2@HV12@V?$MatOp_BinS_@VMat@cv@@@2@@cv@@VMat@2@@cv@@QAE@ABV?$MatExpr_Op3_@VMat@cv@@V?$Scalar_@N@2@HV12@V?$MatOp_BinS_@VMat@cv@@@2@@1@@Z" PURGE="4" COMMENT="" />
    <EXPORT ORDINAL="33" NAME="??0?$MatExpr_@V?$MatExpr_Op4_@VMat@cv@@V12@NHV12@V?$MatOp_MatMul_@VMat@cv@@@2@@cv@@VMat@2@@cv@@QAE@ABV01@@Z" PURGE="4" COMMENT="" />
    <EXPORT ORDINAL="34" NAME="??0?$MatExpr_@V?$MatExpr_Op4_@VMat@cv@@V12@NHV12@V?$MatOp_MatMul_@VMat@cv@@@2@@cv@@VMat@2@@cv@@QAE@ABV?$MatExpr_Op4_@VMat@cv@@V12@NHV12@V?$MatOp_MatMul_@VMat@cv@@@2@@1@@Z" PURGE="4" COMMENT="" />
    <EXPORT ORDINAL="35" NAME="??0?$MatExpr_@V?$MatExpr_Op5_@VMat@cv@@NV12@NNV12@V?$MatOp_AddEx_@VMat@cv@@@2@@cv@@VMat@2@@cv@@QAE@ABV01@@Z" PURGE="4" COMMENT="" />
    <EXPORT ORDINAL="36" NAME="??0?$MatExpr_@V?$MatExpr_Op5_@VMat@cv@@NV12@NNV12@V?$MatOp_AddEx_@VMat@cv@@@2@@cv@@VMat@2@@cv@@QAE@ABV?$MatExpr_Op5_@VMat@cv@@NV12@NNV12@V?$MatOp_AddEx_@VMat@cv@@@2@@1@@Z" PURGE="4" COMMENT="" />
    <EXPORT ORDINAL="37" NAME="??0?$MatExpr_@V?$MatExpr_Op6_@VMat@cv@@V12@NV12@NHV12@V?$MatOp_MatMulAdd_@VMat@cv@@@2@@cv@@VMat@2@@cv@@QAE@ABV01@@Z" PURGE="4" COMMENT="" />
    <EXPORT ORDINAL="38" NAME="??0?$MatExpr_@V?$MatExpr_Op6_@VMat@cv@@V12@NV12@NHV12@V?$MatOp_MatMulAdd_@VMat@cv@@@2@@cv@@VMat@2@@cv@@QAE@ABV?$MatExpr_Op6_@VMat@cv@@V12@NV12@NHV12@V?$MatOp_MatMulAdd_@VMat@cv@@@2@@1@@Z" PURGE="4" COMMENT="" />
    <EXPORT ORDINAL="39" NAME="??0?$MatExpr_Base_@VMat@cv@@@cv@@QAE@ABV01@@Z" PURGE="4" COMMENT="" />
    <EXPORT ORDINAL="40" NAME="??0?$MatExpr_Base_@VMat@cv@@@cv@@QAE@XZ" PURGE="0" COMMENT="" />
    <EXPORT ORDINAL="41" NAME="??0?$MatExpr_Op2_@VMat@cv@@V12@V12@V?$MatOp_Sub_@VMat@cv@@@2@@cv@@QAE@ABV01@@Z" PURGE="4" COMMENT="" />
    <EXPORT ORDINAL="42" NAME="??0?$MatExpr_Op2_@VMat@cv@@V12@V12@V?$MatOp_Sub_@VMat@cv@@@2@@cv@@QAE@ABVMat@1@0@Z" PURGE="8" COMMENT="" />
    <EXPORT ORDINAL="43" NAME="??0?$MatExpr_Op2_@VMat@cv@@V?$Scalar_@N@2@V12@V?$MatOp_AddS_@VMat@cv@@@2@@cv@@QAE@ABV01@@Z" PURGE="4" COMMENT="" />
    <EXPORT ORDINAL="44" NAME="??0?$MatExpr_Op2_@VMat@cv@@V?$Scalar_@N@2@V12@V?$MatOp_AddS_@VMat@cv@@@2@@cv@@QAE@ABVMat@1@ABV?$Scalar_@N@1@@Z" PURGE="8" COMMENT="" />
    <EXPORT ORDINAL="45" NAME="??0?$MatExpr_Op3_@VMat@cv@@NHV12@V?$MatOp_CmpS_@VMat@cv@@@2@@cv@@QAE@ABV01@@Z" PURGE="4" COMMENT="" />
    <EXPORT ORDINAL="46" NAME="??0?$MatExpr_Op3_@VMat@cv@@NHV12@V?$MatOp_CmpS_@VMat@cv@@@2@@cv@@QAE@ABVMat@1@ABNABH@Z" PURGE="12" COMMENT="" />
    <EXPORT ORDINAL="47" NAME="??0?$MatExpr_Op3_@VMat@cv@@V12@HV12@V?$MatOp_Bin_@VMat@cv@@@2@@cv@@QAE@ABV01@@Z" PURGE="4" COMMENT="" />
    <EXPORT ORDINAL="48" NAME="??0?$MatExpr_Op3_@VMat@cv@@V12@HV12@V?$MatOp_Bin_@VMat@cv@@@2@@cv@@QAE@ABVMat@1@0ABH@Z" PURGE="12" COMMENT="" />
    <EXPORT ORDINAL="49" NAME="??0?$MatExpr_Op3_@VMat@cv@@V12@HV12@V?$MatOp_Cmp_@VMat@cv@@@2@@cv@@QAE@ABV01@@Z" PURGE="4" COMMENT="" />
    <EXPORT ORDINAL="50" NAME="??0?$MatExpr_Op3_@VMat@cv@@V12@HV12@V?$MatOp_Cmp_@VMat@cv@@@2@@cv@@QAE@ABVMat@1@0ABH@Z" PURGE="12" COMMENT="" />
    <EXPORT ORDINAL="51" NAME="??0?$MatExpr_Op3_@VMat@cv@@V?$Scalar_@N@2@HV12@V?$MatOp_BinS_@VMat@cv@@@2@@cv@@QAE@ABV01@@Z" PURGE="4" COMMENT="" />
    <EXPORT ORDINAL="52" NAME="??0?$MatExpr_Op3_@VMat@cv@@V?$Scalar_@N@2@HV12@V?$MatOp_BinS_@VMat@cv@@@2@@cv@@QAE@ABVMat@1@ABV?$Scalar_@N@1@ABH@Z" PURGE="12" COMMENT="" />
    <EXPORT ORDINAL="53" NAME="??0?$MatExpr_Op4_@VMat@cv@@V12@NHV12@V?$MatOp_MatMul_@VMat@cv@@@2@@cv@@QAE@ABV01@@Z" PURGE="4" COMMENT="" />
    <EXPORT ORDINAL="54" NAME="??0?$MatExpr_Op4_@VMat@cv@@V12@NHV12@V?$MatOp_MatMul_@VMat@cv@@@2@@cv@@QAE@ABVMat@1@0ABNABH@Z" PURGE="16" COMMENT="" />
    <EXPORT ORDINAL="55" NAME="??0?$MatExpr_Op5_@VMat@cv@@NV12@NNV12@V?$MatOp_AddEx_@VMat@cv@@@2@@cv@@QAE@ABV01@@Z" PURGE="4" COMMENT="" />
    <EXPORT ORDINAL="56" NAME="??0?$MatExpr_Op5_@VMat@cv@@NV12@NNV12@V?$MatOp_AddEx_@VMat@cv@@@2@@cv@@QAE@ABVMat@1@ABN011@Z" PURGE="20" COMMENT="" />
    <EXPORT ORDINAL="57" NAME="??0?$MatExpr_Op6_@VMat@cv@@V12@NV12@NHV12@V?$MatOp_MatMulAdd_@VMat@cv@@@2@@cv@@QAE@ABV01@@Z" PURGE="4" COMMENT="" />
    <EXPORT ORDINAL="58" NAME="??0?$MatExpr_Op6_@VMat@cv@@V12@NV12@NHV12@V?$MatOp_MatMulAdd_@VMat@cv@@@2@@cv@@QAE@ABVMat@1@0ABN01ABH@Z" PURGE="24" COMMENT="" />
    <EXPORT ORDINAL="59" NAME="??0?$Mat_@N@cv@@QAE@ABV?$MatExpr_Base_@VMat@cv@@@1@@Z" PURGE="4" COMMENT="" />
    <EXPORT ORDINAL="60" NAME="??0?$Mat_@N@cv@@QAE@ABVMat@1@@Z" PURGE="4" COMMENT="" />
    <EXPORT ORDINAL="61" NAME="??0?$Mat_@N@cv@@QAE@XZ" PURGE="0" COMMENT="" />
    <EXPORT ORDINAL="62" NAME="??0?$Point3_@M@cv@@QAE@ABV01@@Z" PURGE="4" COMMENT="" />
    <EXPORT ORDINAL="63" NAME="??0?$Point3_@M@cv@@QAE@XZ" PURGE="0" COMMENT="" />
    <EXPORT ORDINAL="64" NAME="??0?$Point3_@N@cv@@QAE@ABV01@@Z" PURGE="4" COMMENT="" />
    <EXPORT ORDINAL="65" NAME="??0?$Point3_@N@cv@@QAE@NNN@Z" PURGE="24" COMMENT="" />
    <EXPORT ORDINAL="66" NAME="??0?$Point_@F@cv@@QAE@FF@Z" PURGE="8" COMMENT="" />
    <EXPORT ORDINAL="67" NAME="??0?$Point_@H@cv@@QAE@ABUCvPoint@@@Z" PURGE="4" COMMENT="" />
    <EXPORT ORDINAL="68" NAME="??0?$Point_@H@cv@@QAE@ABV01@@Z" PURGE="4" COMMENT="" />
    <EXPORT ORDINAL="69" NAME="??0?$Point_@H@cv@@QAE@HH@Z" PURGE="8" COMMENT="" />
    <EXPORT ORDINAL="70" NAME="??0?$Point_@H@cv@@QAE@XZ" PURGE="0" COMMENT="" />
    <EXPORT ORDINAL="71" NAME="??0?$Point_@M@cv@@QAE@ABUCvPoint2D32f@@@Z" PURGE="4" COMMENT="" />
    <EXPORT ORDINAL="72" NAME="??0?$Point_@M@cv@@QAE@ABUCvPoint@@@Z" PURGE="4" COMMENT="" />
    <EXPORT ORDINAL="73" NAME="??0?$Point_@M@cv@@QAE@ABV01@@Z" PURGE="4" COMMENT="" />
    <EXPORT ORDINAL="74" NAME="??0?$Point_@M@cv@@QAE@MM@Z" PURGE="8" COMMENT="" />
    <EXPORT ORDINAL="75" NAME="??0?$Point_@M@cv@@QAE@XZ" PURGE="0" COMMENT="" />
    <EXPORT ORDINAL="76" NAME="??0?$Ptr@UCvFileStorage@@@cv@@QAE@ABV01@@Z" PURGE="4" COMMENT="" />
    <EXPORT ORDINAL="77" NAME="??0?$Ptr@UCvHaarClassifierCascade@@@cv@@QAE@ABV01@@Z" PURGE="4" COMMENT="" />
    <EXPORT ORDINAL="78" NAME="??0?$Ptr@UCvHaarClassifierCascade@@@cv@@QAE@PAUCvHaarClassifierCascade@@@Z" PURGE="4" COMMENT="" />
    <EXPORT ORDINAL="79" NAME="??0?$Ptr@UCvHaarClassifierCascade@@@cv@@QAE@XZ" PURGE="0" COMMENT="" />
    <EXPORT ORDINAL="80" NAME="??0?$Ptr@UCvHistogram@@@cv@@QAE@PAUCvHistogram@@@Z" PURGE="4" COMMENT="" />
    <EXPORT ORDINAL="81" NAME="??0?$Ptr@UCvHistogram@@@cv@@QAE@XZ" PURGE="0" COMMENT="" />
    <EXPORT ORDINAL="82" NAME="??0?$Ptr@UCvMat@@@cv@@QAE@ABV01@@Z" PURGE="4" COMMENT="" />
    <EXPORT ORDINAL="83" NAME="??0?$Ptr@UCvMat@@@cv@@QAE@PAUCvMat@@@Z" PURGE="4" COMMENT="" />
    <EXPORT ORDINAL="84" NAME="??0?$Ptr@UCvMat@@@cv@@QAE@XZ" PURGE="0" COMMENT="" />
    <EXPORT ORDINAL="85" NAME="??0?$Ptr@UCvMemStorage@@@cv@@QAE@PAUCvMemStorage@@@Z" PURGE="4" COMMENT="" />
    <EXPORT ORDINAL="86" NAME="??0?$Ptr@UCvMemStorage@@@cv@@QAE@XZ" PURGE="0" COMMENT="" />
    <EXPORT ORDINAL="87" NAME="??0?$Ptr@UCvStereoBMState@@@cv@@QAE@ABV01@@Z" PURGE="4" COMMENT="" />
    <EXPORT ORDINAL="88" NAME="??0?$Ptr@UCvStereoBMState@@@cv@@QAE@PAUCvStereoBMState@@@Z" PURGE="4" COMMENT="" />
    <EXPORT ORDINAL="89" NAME="??0?$Ptr@UCvStereoBMState@@@cv@@QAE@XZ" PURGE="0" COMMENT="" />
    <EXPORT ORDINAL="90" NAME="??0?$Ptr@U_IplConvKernel@@@cv@@QAE@PAU_IplConvKernel@@@Z" PURGE="4" COMMENT="" />
    <EXPORT ORDINAL="91" NAME="??0?$Ptr@U_IplConvKernel@@@cv@@QAE@XZ" PURGE="0" COMMENT="" />
    <EXPORT ORDINAL="92" NAME="??0?$Ptr@V?$vector@UFeature@HaarEvaluator@cv@@V?$allocator@UFeature@HaarEvaluator@cv@@@std@@@std@@@cv@@QAE@PAV?$vector@UFeature@HaarEvaluator@cv@@V?$allocator@UFeature@HaarEvaluator@cv@@@std@@@std@@@Z" PURGE="4" COMMENT="" />
    <EXPORT ORDINAL="93" NAME="??0?$Ptr@V?$vector@UFeature@HaarEvaluator@cv@@V?$allocator@UFeature@HaarEvaluator@cv@@@std@@@std@@@cv@@QAE@XZ" PURGE="0" COMMENT="" />
    <EXPORT ORDINAL="94" NAME="??0?$Ptr@V?$vector@UFeature@LBPEvaluator@cv@@V?$allocator@UFeature@LBPEvaluator@cv@@@std@@@std@@@cv@@QAE@PAV?$vector@UFeature@LBPEvaluator@cv@@V?$allocator@UFeature@LBPEvaluator@cv@@@std@@@std@@@Z" PURGE="4" COMMENT="" />
    <EXPORT ORDINAL="95" NAME="??0?$Ptr@V?$vector@UFeature@LBPEvaluator@cv@@V?$allocator@UFeature@LBPEvaluator@cv@@@std@@@std@@@cv@@QAE@XZ" PURGE="0" COMMENT="" />
    <EXPORT ORDINAL="96" NAME="??0?$Ptr@VBaseColumnFilter@cv@@@cv@@QAE@ABV01@@Z" PURGE="4" COMMENT="" />
    <EXPORT ORDINAL="97" NAME="??0?$Ptr@VBaseColumnFilter@cv@@@cv@@QAE@PAVBaseColumnFilter@1@@Z" PURGE="4" COMMENT="" />
    <EXPORT ORDINAL="98" NAME="??0?$Ptr@VBaseColumnFilter@cv@@@cv@@QAE@XZ" PURGE="0" COMMENT="" />
    <EXPORT ORDINAL="99" NAME="??0?$Ptr@VBaseFilter@cv@@@cv@@QAE@ABV01@@Z" PURGE="4" COMMENT="" />
    <EXPORT ORDINAL="100" NAME="??0?$Ptr@VBaseFilter@cv@@@cv@@QAE@PAVBaseFilter@1@@Z" PURGE="4" COMMENT="" />
    <EXPORT ORDINAL="101" NAME="??0?$Ptr@VBaseFilter@cv@@@cv@@QAE@XZ" PURGE="0" COMMENT="" />
    <EXPORT ORDINAL="102" NAME="??0?$Ptr@VBaseRowFilter@cv@@@cv@@QAE@ABV01@@Z" PURGE="4" COMMENT="" />
    <EXPORT ORDINAL="103" NAME="??0?$Ptr@VBaseRowFilter@cv@@@cv@@QAE@PAVBaseRowFilter@1@@Z" PURGE="4" COMMENT="" />
    <EXPORT ORDINAL="104" NAME="??0?$Ptr@VBaseRowFilter@cv@@@cv@@QAE@XZ" PURGE="0" COMMENT="" />
    <EXPORT ORDINAL="105" NAME="??0?$Ptr@VCvPriorityQueueFloat@@@cv@@QAE@PAVCvPriorityQueueFloat@@@Z" PURGE="4" COMMENT="" />
    <EXPORT ORDINAL="106" NAME="??0?$Ptr@VCvPriorityQueueFloat@@@cv@@QAE@XZ" PURGE="0" COMMENT="" />
    <EXPORT ORDINAL="107" NAME="??0?$Ptr@VFeatureEvaluator@cv@@@cv@@QAE@ABV01@@Z" PURGE="4" COMMENT="" />
    <EXPORT ORDINAL="108" NAME="??0?$Ptr@VFeatureEvaluator@cv@@@cv@@QAE@PAVFeatureEvaluator@1@@Z" PURGE="4" COMMENT="" />
    <EXPORT ORDINAL="109" NAME="??0?$Ptr@VFeatureEvaluator@cv@@@cv@@QAE@XZ" PURGE="0" COMMENT="" />
    <EXPORT ORDINAL="110" NAME="??0?$Ptr@VFilterEngine@cv@@@cv@@QAE@PAVFilterEngine@1@@Z" PURGE="4" COMMENT="" />
    <EXPORT ORDINAL="111" NAME="??0?$Ptr@VFilterEngine@cv@@@cv@@QAE@XZ" PURGE="0" COMMENT="" />
    <EXPORT ORDINAL="112" NAME="??0?$Rect_@H@cv@@QAE@ABUCvRect@@@Z" PURGE="4" COMMENT="" />
    <EXPORT ORDINAL="113" NAME="??0?$Rect_@H@cv@@QAE@ABV01@@Z" PURGE="4" COMMENT="" />
    <EXPORT ORDINAL="114" NAME="??0?$Rect_@H@cv@@QAE@HHHH@Z" PURGE="16" COMMENT="" />
    <EXPORT ORDINAL="115" NAME="??0?$Rect_@H@cv@@QAE@XZ" PURGE="0" COMMENT="" />
    <EXPORT ORDINAL="116" NAME="??0?$Rect_@M@cv@@QAE@MMMM@Z" PURGE="16" COMMENT="" />
    <EXPORT ORDINAL="117" NAME="??0?$Rect_@M@cv@@QAE@XZ" PURGE="0" COMMENT="" />
    <EXPORT ORDINAL="118" NAME="??0?$Scalar_@E@cv@@QAE@ABV01@@Z" PURGE="4" COMMENT="" />
    <EXPORT ORDINAL="119" NAME="??0?$Scalar_@E@cv@@QAE@EEEE@Z" PURGE="16" COMMENT="" />
    <EXPORT ORDINAL="120" NAME="??0?$Scalar_@F@cv@@QAE@ABV01@@Z" PURGE="4" COMMENT="" />
    <EXPORT ORDINAL="121" NAME="??0?$Scalar_@F@cv@@QAE@FFFF@Z" PURGE="16" COMMENT="" />
    <EXPORT ORDINAL="122" NAME="??0?$Scalar_@G@cv@@QAE@ABV01@@Z" PURGE="4" COMMENT="" />
    <EXPORT ORDINAL="123" NAME="??0?$Scalar_@G@cv@@QAE@GGGG@Z" PURGE="16" COMMENT="" />
    <EXPORT ORDINAL="124" NAME="??0?$Scalar_@H@cv@@QAE@ABV01@@Z" PURGE="4" COMMENT="" />
    <EXPORT ORDINAL="125" NAME="??0?$Scalar_@H@cv@@QAE@HHHH@Z" PURGE="16" COMMENT="" />
    <EXPORT ORDINAL="126" NAME="??0?$Scalar_@M@cv@@QAE@ABV01@@Z" PURGE="4" COMMENT="" />
    <EXPORT ORDINAL="127" NAME="??0?$Scalar_@M@cv@@QAE@MMMM@Z" PURGE="16" COMMENT="" />
    <EXPORT ORDINAL="128" NAME="??0?$Scalar_@N@cv@@QAE@ABUCvScalar@@@Z" PURGE="4" COMMENT="" />
    <EXPORT ORDINAL="129" NAME="??0?$Scalar_@N@cv@@QAE@ABV01@@Z" PURGE="4" COMMENT="" />
    <EXPORT ORDINAL="130" NAME="??0?$Scalar_@N@cv@@QAE@N@Z" PURGE="8" COMMENT="" />
    <EXPORT ORDINAL="131" NAME="??0?$Scalar_@N@cv@@QAE@NNNN@Z" PURGE="32" COMMENT="" />
    <EXPORT ORDINAL="132" NAME="??0?$Scalar_@N@cv@@QAE@XZ" PURGE="0" COMMENT="" />
    <EXPORT ORDINAL="133" NAME="??0?$Seq@PAUCvSeq@@@cv@@QAE@PBUCvSeq@@@Z" PURGE="4" COMMENT="" />
    <EXPORT ORDINAL="134" NAME="??0?$Seq@PAUCvSeq@@@cv@@QAE@XZ" PURGE="0" COMMENT="" />
    <EXPORT ORDINAL="135" NAME="??0?$Seq@UCvAvgComp@@@cv@@QAE@PBUCvSeq@@@Z" PURGE="4" COMMENT="" />
    <EXPORT ORDINAL="136" NAME="??0?$Seq@UCvSURFPoint@@@cv@@QAE@PBUCvSeq@@@Z" PURGE="4" COMMENT="" />
    <EXPORT ORDINAL="137" NAME="??0?$Seq@UCvSURFPoint@@@cv@@QAE@XZ" PURGE="0" COMMENT="" />
    <EXPORT ORDINAL="138" NAME="??0?$Seq@UCvStarKeypoint@@@cv@@QAE@PBUCvSeq@@@Z" PURGE="4" COMMENT="" />
    <EXPORT ORDINAL="139" NAME="??0?$Seq@V?$Point_@H@cv@@@cv@@QAE@PBUCvSeq@@@Z" PURGE="4" COMMENT="" />
    <EXPORT ORDINAL="140" NAME="??0?$Seq@V?$Point_@M@cv@@@cv@@QAE@PBUCvSeq@@@Z" PURGE="4" COMMENT="" />
    <EXPORT ORDINAL="141" NAME="??0?$Seq@V?$Vec@H$03@cv@@@cv@@QAE@PBUCvSeq@@@Z" PURGE="4" COMMENT="" />
    <EXPORT ORDINAL="142" NAME="??0?$Seq@V?$Vec@M$01@cv@@@cv@@QAE@PBUCvSeq@@@Z" PURGE="4" COMMENT="" />
    <EXPORT ORDINAL="143" NAME="??0?$Seq@V?$Vec@M$02@cv@@@cv@@QAE@PBUCvSeq@@@Z" PURGE="4" COMMENT="" />
    <EXPORT ORDINAL="144" NAME="??0?$SeqIterator@PAUCvSeq@@@cv@@QAE@ABV?$Seq@PAUCvSeq@@@1@_N@Z" PURGE="8" COMMENT="" />
    <EXPORT ORDINAL="145" NAME="??0?$SeqIterator@UCvSURFPoint@@@cv@@QAE@ABV?$Seq@UCvSURFPoint@@@1@_N@Z" PURGE="8" COMMENT="" />
    <EXPORT ORDINAL="146" NAME="??0?$SeqIterator@UCvStarKeypoint@@@cv@@QAE@ABV?$Seq@UCvStarKeypoint@@@1@_N@Z" PURGE="8" COMMENT="" />
    <EXPORT ORDINAL="147" NAME="??0?$Size_@H@cv@@QAE@ABUCvSize@@@Z" PURGE="4" COMMENT="" />
    <EXPORT ORDINAL="148" NAME="??0?$Size_@H@cv@@QAE@ABV01@@Z" PURGE="4" COMMENT="" />
    <EXPORT ORDINAL="149" NAME="??0?$Size_@H@cv@@QAE@HH@Z" PURGE="8" COMMENT="" />
    <EXPORT ORDINAL="150" NAME="??0?$Size_@H@cv@@QAE@XZ" PURGE="0" COMMENT="" />
    <EXPORT ORDINAL="151" NAME="??0?$Size_@M@cv@@QAE@ABUCvSize2D32f@@@Z" PURGE="4" COMMENT="" />
    <EXPORT ORDINAL="152" NAME="??0?$Size_@M@cv@@QAE@ABV01@@Z" PURGE="4" COMMENT="" />
    <EXPORT ORDINAL="153" NAME="??0?$Size_@M@cv@@QAE@XZ" PURGE="0" COMMENT="" />
    <EXPORT ORDINAL="154" NAME="??0?$Vec@E$02@cv@@QAE@ABV01@@Z" PURGE="4" COMMENT="" />
    <EXPORT ORDINAL="155" NAME="??0?$Vec@E$03@cv@@QAE@ABV01@@Z" PURGE="4" COMMENT="" />
    <EXPORT ORDINAL="156" NAME="??0?$Vec@E$03@cv@@QAE@XZ" PURGE="0" COMMENT="" />
    <EXPORT ORDINAL="157" NAME="??0?$Vec@F$03@cv@@QAE@ABV01@@Z" PURGE="4" COMMENT="" />
    <EXPORT ORDINAL="158" NAME="??0?$Vec@F$03@cv@@QAE@XZ" PURGE="0" COMMENT="" />
    <EXPORT ORDINAL="159" NAME="??0?$Vec@G$03@cv@@QAE@ABV01@@Z" PURGE="4" COMMENT="" />
    <EXPORT ORDINAL="160" NAME="??0?$Vec@G$03@cv@@QAE@XZ" PURGE="0" COMMENT="" />
    <EXPORT ORDINAL="161" NAME="??0?$Vec@H$03@cv@@QAE@ABV01@@Z" PURGE="4" COMMENT="" />
    <EXPORT ORDINAL="162" NAME="??0?$Vec@H$03@cv@@QAE@HHHH@Z" PURGE="16" COMMENT="" />
    <EXPORT ORDINAL="163" NAME="??0?$Vec@H$03@cv@@QAE@XZ" PURGE="0" COMMENT="" />
    <EXPORT ORDINAL="164" NAME="??0?$Vec@M$01@cv@@QAE@ABV01@@Z" PURGE="4" COMMENT="" />
    <EXPORT ORDINAL="165" NAME="??0?$Vec@M$01@cv@@QAE@XZ" PURGE="0" COMMENT="" />
    <EXPORT ORDINAL="166" NAME="??0?$Vec@M$02@cv@@QAE@ABV01@@Z" PURGE="4" COMMENT="" />
    <EXPORT ORDINAL="167" NAME="??0?$Vec@M$02@cv@@QAE@MMM@Z" PURGE="12" COMMENT="" />
    <EXPORT ORDINAL="168" NAME="??0?$Vec@M$02@cv@@QAE@XZ" PURGE="0" COMMENT="" />
    <EXPORT ORDINAL="169" NAME="??0?$Vec@M$03@cv@@QAE@ABV01@@Z" PURGE="4" COMMENT="" />
    <EXPORT ORDINAL="170" NAME="??0?$Vec@M$03@cv@@QAE@XZ" PURGE="0" COMMENT="" />
    <EXPORT ORDINAL="171" NAME="??0?$Vec@N$02@cv@@QAE@ABV01@@Z" PURGE="4" COMMENT="" />
    <EXPORT ORDINAL="172" NAME="??0?$Vec@N$02@cv@@QAE@NNN@Z" PURGE="24" COMMENT="" />
    <EXPORT ORDINAL="173" NAME="??0?$Vec@N$02@cv@@QAE@XZ" PURGE="0" COMMENT="" />
    <EXPORT ORDINAL="174" NAME="??0?$Vec@N$03@cv@@QAE@ABV01@@Z" PURGE="4" COMMENT="" />
    <EXPORT ORDINAL="175" NAME="??0?$Vec@N$03@cv@@QAE@XZ" PURGE="0" COMMENT="" />
    <EXPORT ORDINAL="176" NAME="??0AutotunedIndexParams@flann@cv@@QAE@ABU012@@Z" PURGE="4" COMMENT="" />
    <EXPORT ORDINAL="177" NAME="??0AutotunedIndexParams@flann@cv@@QAE@MMMM@Z" PURGE="16" COMMENT="" />
    <EXPORT ORDINAL="178" NAME="??0BaseColumnFilter@cv@@QAE@ABV01@@Z" PURGE="4" COMMENT="" />
    <EXPORT ORDINAL="179" NAME="??0BaseColumnFilter@cv@@QAE@XZ" PURGE="0" COMMENT="" />
    <EXPORT ORDINAL="180" NAME="??0BaseFilter@cv@@QAE@ABV01@@Z" PURGE="4" COMMENT="" />
    <EXPORT ORDINAL="181" NAME="??0BaseFilter@cv@@QAE@XZ" PURGE="0" COMMENT="" />
    <EXPORT ORDINAL="182" NAME="??0BaseRowFilter@cv@@QAE@ABV01@@Z" PURGE="4" COMMENT="" />
    <EXPORT ORDINAL="183" NAME="??0BaseRowFilter@cv@@QAE@XZ" PURGE="0" COMMENT="" />
    <EXPORT ORDINAL="184" NAME="??0CascadeClassifier@cv@@QAE@ABV01@@Z" PURGE="4" COMMENT="" />
    <EXPORT ORDINAL="185" NAME="??0CascadeClassifier@cv@@QAE@ABV?$basic_string@DU?$char_traits@D@std@@V?$allocator@D@2@@std@@@Z" PURGE="4" COMMENT="" />
    <EXPORT ORDINAL="186" NAME="??0CascadeClassifier@cv@@QAE@XZ" PURGE="0" COMMENT="" />
    <EXPORT ORDINAL="187" NAME="??0CompositeIndexParams@flann@cv@@QAE@ABU012@@Z" PURGE="4" COMMENT="" />
    <EXPORT ORDINAL="188" NAME="??0CompositeIndexParams@flann@cv@@QAE@HHHW4flann_centers_init_t@12@M@Z" PURGE="20" COMMENT="" />
    <EXPORT ORDINAL="189" NAME="??0CvLevMarq@@QAE@ABV0@@Z" PURGE="4" COMMENT="" />
    <EXPORT ORDINAL="190" NAME="??0CvLevMarq@@QAE@HHUCvTermCriteria@@_N@Z" PURGE="28" COMMENT="" />
    <EXPORT ORDINAL="191" NAME="??0CvLevMarq@@QAE@XZ" PURGE="0" COMMENT="" />
    <EXPORT ORDINAL="192" NAME="??0Exception@cv@@QAE@ABV01@@Z" PURGE="4" COMMENT="" />
    <EXPORT ORDINAL="193" NAME="??0Exception@cv@@QAE@HABV?$basic_string@DU?$char_traits@D@std@@V?$allocator@D@2@@std@@00H@Z" PURGE="20" COMMENT="" />
    <EXPORT ORDINAL="194" NAME="??0Exception@cv@@QAE@XZ" PURGE="0" COMMENT="" />
    <EXPORT ORDINAL="195" NAME="??0FeatureEvaluator@cv@@QAE@ABV01@@Z" PURGE="4" COMMENT="" />
    <EXPORT ORDINAL="196" NAME="??0FeatureEvaluator@cv@@QAE@XZ" PURGE="0" COMMENT="" />
    <EXPORT ORDINAL="197" NAME="??0FileNode@cv@@QAE@ABV01@@Z" PURGE="4" COMMENT="" />
    <EXPORT ORDINAL="198" NAME="??0FileNode@cv@@QAE@PBUCvFileStorage@@PBUCvFileNode@@@Z" PURGE="8" COMMENT="" />
    <EXPORT ORDINAL="199" NAME="??0FileNode@cv@@QAE@XZ" PURGE="0" COMMENT="" />
    <EXPORT ORDINAL="200" NAME="??0FileStorage@cv@@QAE@ABV01@@Z" PURGE="4" COMMENT="" />
    <EXPORT ORDINAL="201" NAME="??0FilterEngine@cv@@QAE@ABV01@@Z" PURGE="4" COMMENT="" />
    <EXPORT ORDINAL="202" NAME="??0FilterEngine@cv@@QAE@ABV?$Ptr@VBaseFilter@cv@@@1@ABV?$Ptr@VBaseRowFilter@cv@@@1@ABV?$Ptr@VBaseColumnFilter@cv@@@1@HHHHHABV?$Scalar_@N@1@@Z" PURGE="36" COMMENT="" />
    <EXPORT ORDINAL="203" NAME="??0FilterEngine@cv@@QAE@XZ" PURGE="0" COMMENT="" />
    <EXPORT ORDINAL="204" NAME="??0Hdr@SparseMat@cv@@QAE@ABU012@@Z" PURGE="4" COMMENT="" />
    <EXPORT ORDINAL="205" NAME="??0IndexFactory@flann@cv@@QAE@ABV012@@Z" PURGE="4" COMMENT="" />
    <EXPORT ORDINAL="206" NAME="??0IndexFactory@flann@cv@@QAE@XZ" PURGE="0" COMMENT="" />
    <EXPORT ORDINAL="207" NAME="??0IndexParams@flann@cv@@IAE@XZ" PURGE="0" COMMENT="" />
    <EXPORT ORDINAL="208" NAME="??0IndexParams@flann@cv@@QAE@ABU012@@Z" PURGE="4" COMMENT="" />
    <EXPORT ORDINAL="209" NAME="??0KDTree@cv@@QAE@ABV01@@Z" PURGE="4" COMMENT="" />
    <EXPORT ORDINAL="210" NAME="??0KDTreeIndexParams@flann@cv@@QAE@ABU012@@Z" PURGE="4" COMMENT="" />
    <EXPORT ORDINAL="211" NAME="??0KDTreeIndexParams@flann@cv@@QAE@H@Z" PURGE="4" COMMENT="" />
    <EXPORT ORDINAL="212" NAME="??0KMeansIndexParams@flann@cv@@QAE@ABU012@@Z" PURGE="4" COMMENT="" />
    <EXPORT ORDINAL="213" NAME="??0KMeansIndexParams@flann@cv@@QAE@HHW4flann_centers_init_t@12@M@Z" PURGE="16" COMMENT="" />
    <EXPORT ORDINAL="214" NAME="??0KalmanFilter@cv@@QAE@ABV01@@Z" PURGE="4" COMMENT="" />
    <EXPORT ORDINAL="215" NAME="??0KalmanFilter@cv@@QAE@HHH@Z" PURGE="12" COMMENT="" />
    <EXPORT ORDINAL="216" NAME="??0KalmanFilter@cv@@QAE@XZ" PURGE="0" COMMENT="" />
    <EXPORT ORDINAL="217" NAME="??0KeyPoint@cv@@QAE@ABV01@@Z" PURGE="4" COMMENT="" />
    <EXPORT ORDINAL="218" NAME="??0KeyPoint@cv@@QAE@MMMMMHH@Z" PURGE="28" COMMENT="" />
    <EXPORT ORDINAL="219" NAME="??0KeyPoint@cv@@QAE@V?$Point_@M@1@MMMHH@Z" PURGE="28" COMMENT="" />
    <EXPORT ORDINAL="220" NAME="??0KeyPoint@cv@@QAE@XZ" PURGE="0" COMMENT="" />
    <EXPORT ORDINAL="221" NAME="??0LinearIndexParams@flann@cv@@QAE@ABU012@@Z" PURGE="4" COMMENT="" />
    <EXPORT ORDINAL="222" NAME="??0LinearIndexParams@flann@cv@@QAE@XZ" PURGE="0" COMMENT="" />
    <EXPORT ORDINAL="223" NAME="??0MSER@cv@@QAE@HHHMMHNNH@Z" PURGE="44" COMMENT="" />
    <EXPORT ORDINAL="224" NAME="??0MSER@cv@@QAE@XZ" PURGE="0" COMMENT="" />
    <EXPORT ORDINAL="225" NAME="??0Mat@cv@@QAE@ABV01@@Z" PURGE="4" COMMENT="" />
    <EXPORT ORDINAL="226" NAME="??0Mat@cv@@QAE@ABV01@ABV?$Rect_@H@1@@Z" PURGE="8" COMMENT="" />
    <EXPORT ORDINAL="227" NAME="??0Mat@cv@@QAE@ABV01@ABVRange@1@1@Z" PURGE="12" COMMENT="" />
    <EXPORT ORDINAL="228" NAME="??0Mat@cv@@QAE@ABV?$MatExpr_Base_@VMat@cv@@@1@@Z" PURGE="4" COMMENT="" />
    <EXPORT ORDINAL="229" NAME="??0Mat@cv@@QAE@HHH@Z" PURGE="12" COMMENT="" />
    <EXPORT ORDINAL="230" NAME="??0Mat@cv@@QAE@HHHABV?$Scalar_@N@1@@Z" PURGE="16" COMMENT="" />
    <EXPORT ORDINAL="231" NAME="??0Mat@cv@@QAE@HHHPAXI@Z" PURGE="20" COMMENT="" />
    <EXPORT ORDINAL="232" NAME="??0Mat@cv@@QAE@PBUCvMat@@_N@Z" PURGE="8" COMMENT="" />
    <EXPORT ORDINAL="233" NAME="??0Mat@cv@@QAE@V?$Size_@H@1@H@Z" PURGE="12" COMMENT="" />
    <EXPORT ORDINAL="234" NAME="??0Mat@cv@@QAE@V?$Size_@H@1@HABV?$Scalar_@N@1@@Z" PURGE="16" COMMENT="" />
    <EXPORT ORDINAL="235" NAME="??0Mat@cv@@QAE@V?$Size_@H@1@HPAXI@Z" PURGE="20" COMMENT="" />
    <EXPORT ORDINAL="236" NAME="??0Mat@cv@@QAE@XZ" PURGE="0" COMMENT="" />
    <EXPORT ORDINAL="237" NAME="??0MatND@cv@@QAE@ABV01@@Z" PURGE="4" COMMENT="" />
    <EXPORT ORDINAL="238" NAME="??0MatND@cv@@QAE@ABVMat@1@@Z" PURGE="4" COMMENT="" />
    <EXPORT ORDINAL="239" NAME="??0MatND@cv@@QAE@HPBHH@Z" PURGE="12" COMMENT="" />
    <EXPORT ORDINAL="240" NAME="??0MatND@cv@@QAE@HPBHHABV?$Scalar_@N@1@@Z" PURGE="16" COMMENT="" />
    <EXPORT ORDINAL="241" NAME="??0MatND@cv@@QAE@PBUCvMatND@@_N@Z" PURGE="8" COMMENT="" />
    <EXPORT ORDINAL="242" NAME="??0MatND@cv@@QAE@XZ" PURGE="0" COMMENT="" />
    <EXPORT ORDINAL="243" NAME="??0Moments@cv@@QAE@ABUCvMoments@@@Z" PURGE="4" COMMENT="" />
    <EXPORT ORDINAL="244" NAME="??0Moments@cv@@QAE@NNNNNNNNNN@Z" PURGE="80" COMMENT="" />
    <EXPORT ORDINAL="245" NAME="??0Moments@cv@@QAE@XZ" PURGE="0" COMMENT="" />
    <EXPORT ORDINAL="246" NAME="??0NAryMatNDIterator@cv@@QAE@ABV01@@Z" PURGE="4" COMMENT="" />
    <EXPORT ORDINAL="247" NAME="??0NAryMatNDIterator@cv@@QAE@XZ" PURGE="0" COMMENT="" />
    <EXPORT ORDINAL="248" NAME="??0PCA@cv@@QAE@ABV01@@Z" PURGE="4" COMMENT="" />
    <EXPORT ORDINAL="249" NAME="??0RNG@cv@@QAE@XZ" PURGE="0" COMMENT="" />
    <EXPORT ORDINAL="250" NAME="??0RNG@cv@@QAE@_K@Z" PURGE="8" COMMENT="" />
    <EXPORT ORDINAL="251" NAME="??0Range@cv@@QAE@ABUCvSlice@@@Z" PURGE="4" COMMENT="" />
    <EXPORT ORDINAL="252" NAME="??0Range@cv@@QAE@HH@Z" PURGE="8" COMMENT="" />
    <EXPORT ORDINAL="253" NAME="??0Range@cv@@QAE@XZ" PURGE="0" COMMENT="" />
    <EXPORT ORDINAL="254" NAME="??0RotatedRect@cv@@QAE@ABUCvBox2D@@@Z" PURGE="4" COMMENT="" />
    <EXPORT ORDINAL="255" NAME="??0RotatedRect@cv@@QAE@ABV01@@Z" PURGE="4" COMMENT="" />
    <EXPORT ORDINAL="256" NAME="??0RotatedRect@cv@@QAE@ABV?$Point_@M@1@ABV?$Size_@M@1@M@Z" PURGE="12" COMMENT="" />
    <EXPORT ORDINAL="257" NAME="??0RotatedRect@cv@@QAE@XZ" PURGE="0" COMMENT="" />
    <EXPORT ORDINAL="258" NAME="??0SURF@cv@@QAE@NHH_N@Z" PURGE="20" COMMENT="" />
    <EXPORT ORDINAL="259" NAME="??0SURF@cv@@QAE@XZ" PURGE="0" COMMENT="" />
    <EXPORT ORDINAL="260" NAME="??0SVD@cv@@QAE@ABV01@@Z" PURGE="4" COMMENT="" />
    <EXPORT ORDINAL="261" NAME="??0SVD@cv@@QAE@ABVMat@1@H@Z" PURGE="8" COMMENT="" />
    <EXPORT ORDINAL="262" NAME="??0SVD@cv@@QAE@XZ" PURGE="0" COMMENT="" />
    <EXPORT ORDINAL="263" NAME="??0SavedIndexParams@flann@cv@@QAE@ABU012@@Z" PURGE="4" COMMENT="" />
    <EXPORT ORDINAL="264" NAME="??0SavedIndexParams@flann@cv@@QAE@V?$basic_string@DU?$char_traits@D@std@@V?$allocator@D@2@@std@@@Z" PURGE="28" COMMENT="" />
    <EXPORT ORDINAL="265" NAME="??0SavedIndexParams@flann@cv@@QAE@XZ" PURGE="0" COMMENT="" />
    <EXPORT ORDINAL="266" NAME="??0SearchParams@flann@cv@@QAE@H@Z" PURGE="4" COMMENT="" />
    <EXPORT ORDINAL="267" NAME="??0SimilarRects@cv@@QAE@N@Z" PURGE="8" COMMENT="" />
    <EXPORT ORDINAL="268" NAME="??0SparseMat@cv@@QAE@ABV01@@Z" PURGE="4" COMMENT="" />
    <EXPORT ORDINAL="269" NAME="??0SparseMat@cv@@QAE@HPBHH@Z" PURGE="12" COMMENT="" />
    <EXPORT ORDINAL="270" NAME="??0SparseMat@cv@@QAE@XZ" PURGE="0" COMMENT="" />
    <EXPORT ORDINAL="271" NAME="??0SparseMatConstIterator@cv@@QAE@ABV01@@Z" PURGE="4" COMMENT="" />
    <EXPORT ORDINAL="272" NAME="??0SparseMatConstIterator@cv@@QAE@XZ" PURGE="0" COMMENT="" />
    <EXPORT ORDINAL="273" NAME="??0SparseMatIterator@cv@@QAE@ABV01@@Z" PURGE="4" COMMENT="" />
    <EXPORT ORDINAL="274" NAME="??0SparseMatIterator@cv@@QAE@PAVSparseMat@1@@Z" PURGE="4" COMMENT="" />
    <EXPORT ORDINAL="275" NAME="??0SparseMatIterator@cv@@QAE@XZ" PURGE="0" COMMENT="" />
    <EXPORT ORDINAL="276" NAME="??0StarDetector@cv@@QAE@HHHHH@Z" PURGE="20" COMMENT="" />
    <EXPORT ORDINAL="277" NAME="??0StarDetector@cv@@QAE@XZ" PURGE="0" COMMENT="" />
    <EXPORT ORDINAL="278" NAME="??0StereoBM@cv@@QAE@ABV01@@Z" PURGE="4" COMMENT="" />
    <EXPORT ORDINAL="279" NAME="??0StereoBM@cv@@QAE@HHH@Z" PURGE="12" COMMENT="" />
    <EXPORT ORDINAL="280" NAME="??0StereoBM@cv@@QAE@XZ" PURGE="0" COMMENT="" />
    <EXPORT ORDINAL="281" NAME="??0StereoSGBM@cv@@QAE@ABV01@@Z" PURGE="4" COMMENT="" />
    <EXPORT ORDINAL="282" NAME="??0StereoSGBM@cv@@QAE@HHHHHHHHHH_N@Z" PURGE="44" COMMENT="" />
    <EXPORT ORDINAL="283" NAME="??0StereoSGBM@cv@@QAE@XZ" PURGE="0" COMMENT="" />
    <EXPORT ORDINAL="284" NAME="??0TermCriteria@cv@@QAE@ABUCvTermCriteria@@@Z" PURGE="4" COMMENT="" />
    <EXPORT ORDINAL="285" NAME="??0TermCriteria@cv@@QAE@HHN@Z" PURGE="16" COMMENT="" />
    <EXPORT ORDINAL="286" NAME="??0TermCriteria@cv@@QAE@XZ" PURGE="0" COMMENT="" />
    <EXPORT ORDINAL="287" NAME="??0WriteStructContext@cv@@QAE@AAVFileStorage@1@ABV?$basic_string@DU?$char_traits@D@std@@V?$allocator@D@2@@std@@H1@Z" PURGE="16" COMMENT="" />
    <EXPORT ORDINAL="288" NAME="??1?$AutoBuffer@C$0BAAI@@cv@@QAE@XZ" PURGE="0" COMMENT="" />
    <EXPORT ORDINAL="289" NAME="??1?$AutoBuffer@D$0BAAI@@cv@@QAE@XZ" PURGE="0" COMMENT="" />
    <EXPORT ORDINAL="290" NAME="??1?$AutoBuffer@E$0BAAI@@cv@@QAE@XZ" PURGE="0" COMMENT="" />
    <EXPORT ORDINAL="291" NAME="??1?$AutoBuffer@H$0EAI@@cv@@QAE@XZ" PURGE="0" COMMENT="" />
    <EXPORT ORDINAL="292" NAME="??1?$AutoBuffer@M$0BAAA@@cv@@QAE@XZ" PURGE="0" COMMENT="" />
    <EXPORT ORDINAL="293" NAME="??1?$AutoBuffer@M$0EAI@@cv@@QAE@XZ" PURGE="0" COMMENT="" />
    <EXPORT ORDINAL="294" NAME="??1?$AutoBuffer@N$0CAI@@cv@@QAE@XZ" PURGE="0" COMMENT="" />
    <EXPORT ORDINAL="295" NAME="??1?$AutoBuffer@PAM$0EAA@@cv@@QAE@XZ" PURGE="0" COMMENT="" />
    <EXPORT ORDINAL="296" NAME="??1?$AutoBuffer@PAUCvPoint@@$0EAI@@cv@@QAE@XZ" PURGE="0" COMMENT="" />
    <EXPORT ORDINAL="297" NAME="??1?$AutoBuffer@PAU_CvTrianAttr@@$0EAI@@cv@@QAE@XZ" PURGE="0" COMMENT="" />
    <EXPORT ORDINAL="298" NAME="??1?$AutoBuffer@UCvFFillSegment@@$0BFN@@cv@@QAE@XZ" PURGE="0" COMMENT="" />
    <EXPORT ORDINAL="299" NAME="??1?$AutoBuffer@UCvPoint2D32f@@$0CAI@@cv@@QAE@XZ" PURGE="0" COMMENT="" />
    <EXPORT ORDINAL="300" NAME="??1?$AutoBuffer@UDecimateAlpha@cv@@$0BFN@@cv@@QAE@XZ" PURGE="0" COMMENT="" />
    <EXPORT ORDINAL="301" NAME="??1?$AutoBuffer@U_CvPtInfo@@$0NE@@cv@@QAE@XZ" PURGE="0" COMMENT="" />
    <EXPORT ORDINAL="302" NAME="??1?$MatExpr_@V?$MatExpr_Op2_@VMat@cv@@V12@V12@V?$MatOp_Sub_@VMat@cv@@@2@@cv@@VMat@2@@cv@@UAE@XZ" PURGE="0" COMMENT="" />
    <EXPORT ORDINAL="303" NAME="??1?$MatExpr_@V?$MatExpr_Op2_@VMat@cv@@V?$Scalar_@N@2@V12@V?$MatOp_AddS_@VMat@cv@@@2@@cv@@VMat@2@@cv@@UAE@XZ" PURGE="0" COMMENT="" />
    <EXPORT ORDINAL="304" NAME="??1?$MatExpr_@V?$MatExpr_Op3_@VMat@cv@@NHV12@V?$MatOp_CmpS_@VMat@cv@@@2@@cv@@VMat@2@@cv@@UAE@XZ" PURGE="0" COMMENT="" />
    <EXPORT ORDINAL="305" NAME="??1?$MatExpr_@V?$MatExpr_Op3_@VMat@cv@@V12@HV12@V?$MatOp_Bin_@VMat@cv@@@2@@cv@@VMat@2@@cv@@UAE@XZ" PURGE="0" COMMENT="" />
    <EXPORT ORDINAL="306" NAME="??1?$MatExpr_@V?$MatExpr_Op3_@VMat@cv@@V12@HV12@V?$MatOp_Cmp_@VMat@cv@@@2@@cv@@VMat@2@@cv@@UAE@XZ" PURGE="0" COMMENT="" />
    <EXPORT ORDINAL="307" NAME="??1?$MatExpr_@V?$MatExpr_Op3_@VMat@cv@@V?$Scalar_@N@2@HV12@V?$MatOp_BinS_@VMat@cv@@@2@@cv@@VMat@2@@cv@@UAE@XZ" PURGE="0" COMMENT="" />
    <EXPORT ORDINAL="308" NAME="??1?$MatExpr_@V?$MatExpr_Op4_@VMat@cv@@V12@NHV12@V?$MatOp_MatMul_@VMat@cv@@@2@@cv@@VMat@2@@cv@@UAE@XZ" PURGE="0" COMMENT="" />
    <EXPORT ORDINAL="309" NAME="??1?$MatExpr_@V?$MatExpr_Op5_@VMat@cv@@NV12@NNV12@V?$MatOp_AddEx_@VMat@cv@@@2@@cv@@VMat@2@@cv@@UAE@XZ" PURGE="0" COMMENT="" />
    <EXPORT ORDINAL="310" NAME="??1?$MatExpr_@V?$MatExpr_Op6_@VMat@cv@@V12@NV12@NHV12@V?$MatOp_MatMulAdd_@VMat@cv@@@2@@cv@@VMat@2@@cv@@UAE@XZ" PURGE="0" COMMENT="" />
    <EXPORT ORDINAL="311" NAME="??1?$MatExpr_Base_@VMat@cv@@@cv@@UAE@XZ" PURGE="0" COMMENT="" />
    <EXPORT ORDINAL="312" NAME="??1?$MatExpr_Op2_@VMat@cv@@V12@V12@V?$MatOp_Sub_@VMat@cv@@@2@@cv@@QAE@XZ" PURGE="0" COMMENT="" />
    <EXPORT ORDINAL="313" NAME="??1?$MatExpr_Op2_@VMat@cv@@V?$Scalar_@N@2@V12@V?$MatOp_AddS_@VMat@cv@@@2@@cv@@QAE@XZ" PURGE="0" COMMENT="" />
    <EXPORT ORDINAL="314" NAME="??1?$MatExpr_Op3_@VMat@cv@@NHV12@V?$MatOp_CmpS_@VMat@cv@@@2@@cv@@QAE@XZ" PURGE="0" COMMENT="" />
    <EXPORT ORDINAL="315" NAME="??1?$MatExpr_Op3_@VMat@cv@@V12@HV12@V?$MatOp_Bin_@VMat@cv@@@2@@cv@@QAE@XZ" PURGE="0" COMMENT="" />
    <EXPORT ORDINAL="316" NAME="??1?$MatExpr_Op3_@VMat@cv@@V12@HV12@V?$MatOp_Cmp_@VMat@cv@@@2@@cv@@QAE@XZ" PURGE="0" COMMENT="" />
    <EXPORT ORDINAL="317" NAME="??1?$MatExpr_Op3_@VMat@cv@@V?$Scalar_@N@2@HV12@V?$MatOp_BinS_@VMat@cv@@@2@@cv@@QAE@XZ" PURGE="0" COMMENT="" />
    <EXPORT ORDINAL="318" NAME="??1?$MatExpr_Op4_@VMat@cv@@V12@NHV12@V?$MatOp_MatMul_@VMat@cv@@@2@@cv@@QAE@XZ" PURGE="0" COMMENT="" />
    <EXPORT ORDINAL="319" NAME="??1?$MatExpr_Op5_@VMat@cv@@NV12@NNV12@V?$MatOp_AddEx_@VMat@cv@@@2@@cv@@QAE@XZ" PURGE="0" COMMENT="" />
    <EXPORT ORDINAL="320" NAME="??1?$MatExpr_Op6_@VMat@cv@@V12@NV12@NHV12@V?$MatOp_MatMulAdd_@VMat@cv@@@2@@cv@@QAE@XZ" PURGE="0" COMMENT="" />
    <EXPORT ORDINAL="321" NAME="??1?$Mat_@N@cv@@QAE@XZ" PURGE="0" COMMENT="" />
    <EXPORT ORDINAL="322" NAME="??1?$Ptr@UCvFileStorage@@@cv@@QAE@XZ" PURGE="0" COMMENT="" />
    <EXPORT ORDINAL="323" NAME="??1?$Ptr@UCvHaarClassifierCascade@@@cv@@QAE@XZ" PURGE="0" COMMENT="" />
    <EXPORT ORDINAL="324" NAME="??1?$Ptr@UCvHistogram@@@cv@@QAE@XZ" PURGE="0" COMMENT="" />
    <EXPORT ORDINAL="325" NAME="??1?$Ptr@UCvMat@@@cv@@QAE@XZ" PURGE="0" COMMENT="" />
    <EXPORT ORDINAL="326" NAME="??1?$Ptr@UCvMemStorage@@@cv@@QAE@XZ" PURGE="0" COMMENT="" />
    <EXPORT ORDINAL="327" NAME="??1?$Ptr@UCvStereoBMState@@@cv@@QAE@XZ" PURGE="0" COMMENT="" />
    <EXPORT ORDINAL="328" NAME="??1?$Ptr@U_IplConvKernel@@@cv@@QAE@XZ" PURGE="0" COMMENT="" />
    <EXPORT ORDINAL="329" NAME="??1?$Ptr@V?$vector@UFeature@HaarEvaluator@cv@@V?$allocator@UFeature@HaarEvaluator@cv@@@std@@@std@@@cv@@QAE@XZ" PURGE="0" COMMENT="" />
    <EXPORT ORDINAL="330" NAME="??1?$Ptr@V?$vector@UFeature@LBPEvaluator@cv@@V?$allocator@UFeature@LBPEvaluator@cv@@@std@@@std@@@cv@@QAE@XZ" PURGE="0" COMMENT="" />
    <EXPORT ORDINAL="331" NAME="??1?$Ptr@VBaseColumnFilter@cv@@@cv@@QAE@XZ" PURGE="0" COMMENT="" />
    <EXPORT ORDINAL="332" NAME="??1?$Ptr@VBaseFilter@cv@@@cv@@QAE@XZ" PURGE="0" COMMENT="" />
    <EXPORT ORDINAL="333" NAME="??1?$Ptr@VBaseRowFilter@cv@@@cv@@QAE@XZ" PURGE="0" COMMENT="" />
    <EXPORT ORDINAL="334" NAME="??1?$Ptr@VCvPriorityQueueFloat@@@cv@@QAE@XZ" PURGE="0" COMMENT="" />
    <EXPORT ORDINAL="335" NAME="??1?$Ptr@VFeatureEvaluator@cv@@@cv@@QAE@XZ" PURGE="0" COMMENT="" />
    <EXPORT ORDINAL="336" NAME="??1?$Ptr@VFilterEngine@cv@@@cv@@QAE@XZ" PURGE="0" COMMENT="" />
    <EXPORT ORDINAL="337" NAME="??1?$SparseMat_@M@cv@@QAE@XZ" PURGE="0" COMMENT="" />
    <EXPORT ORDINAL="338" NAME="??1AutotunedIndexParams@flann@cv@@UAE@XZ" PURGE="0" COMMENT="" />
    <EXPORT ORDINAL="339" NAME="??1BaseColumnFilter@cv@@UAE@XZ" PURGE="0" COMMENT="" />
    <EXPORT ORDINAL="340" NAME="??1BaseFilter@cv@@UAE@XZ" PURGE="0" COMMENT="" />
    <EXPORT ORDINAL="341" NAME="??1BaseRowFilter@cv@@UAE@XZ" PURGE="0" COMMENT="" />
    <EXPORT ORDINAL="342" NAME="??1CascadeClassifier@cv@@QAE@XZ" PURGE="0" COMMENT="" />
    <EXPORT ORDINAL="343" NAME="??1CompositeIndexParams@flann@cv@@UAE@XZ" PURGE="0" COMMENT="" />
    <EXPORT ORDINAL="344" NAME="??1CvLevMarq@@QAE@XZ" PURGE="0" COMMENT="" />
    <EXPORT ORDINAL="345" NAME="??1Exception@cv@@UAE@XZ" PURGE="-1" COMMENT="" />
    <EXPORT ORDINAL="346" NAME="??1FeatureEvaluator@cv@@UAE@XZ" PURGE="0" COMMENT="" />
    <EXPORT ORDINAL="347" NAME="??1FilterEngine@cv@@UAE@XZ" PURGE="0" COMMENT="" />
    <EXPORT ORDINAL="348" NAME="??1Hdr@SparseMat@cv@@QAE@XZ" PURGE="0" COMMENT="" />
    <EXPORT ORDINAL="349" NAME="??1IndexFactory@flann@cv@@UAE@XZ" PURGE="0" COMMENT="" />
    <EXPORT ORDINAL="350" NAME="??1IndexParams@flann@cv@@UAE@XZ" PURGE="0" COMMENT="" />
    <EXPORT ORDINAL="351" NAME="??1KDTree@cv@@QAE@XZ" PURGE="0" COMMENT="" />
    <EXPORT ORDINAL="352" NAME="??1KDTreeIndexParams@flann@cv@@UAE@XZ" PURGE="0" COMMENT="" />
    <EXPORT ORDINAL="353" NAME="??1KMeansIndexParams@flann@cv@@UAE@XZ" PURGE="0" COMMENT="" />
    <EXPORT ORDINAL="354" NAME="??1KalmanFilter@cv@@QAE@XZ" PURGE="0" COMMENT="" />
    <EXPORT ORDINAL="355" NAME="??1LinearIndexParams@flann@cv@@UAE@XZ" PURGE="0" COMMENT="" />
    <EXPORT ORDINAL="356" NAME="??1Mat@cv@@QAE@XZ" PURGE="0" COMMENT="" />
    <EXPORT ORDINAL="357" NAME="??1MatND@cv@@QAE@XZ" PURGE="0" COMMENT="" />
    <EXPORT ORDINAL="358" NAME="??1NAryMatNDIterator@cv@@QAE@XZ" PURGE="0" COMMENT="" />
    <EXPORT ORDINAL="359" NAME="??1PCA@cv@@QAE@XZ" PURGE="0" COMMENT="" />
    <EXPORT ORDINAL="360" NAME="??1SVD@cv@@QAE@XZ" PURGE="0" COMMENT="" />
    <EXPORT ORDINAL="361" NAME="??1SavedIndexParams@flann@cv@@UAE@XZ" PURGE="0" COMMENT="" />
    <EXPORT ORDINAL="362" NAME="??1SparseMat@cv@@QAE@XZ" PURGE="0" COMMENT="" />
    <EXPORT ORDINAL="363" NAME="??1StereoBM@cv@@QAE@XZ" PURGE="0" COMMENT="" />
    <EXPORT ORDINAL="364" NAME="??1StereoSGBM@cv@@UAE@XZ" PURGE="0" COMMENT="" />
    <EXPORT ORDINAL="365" NAME="??1WriteStructContext@cv@@QAE@XZ" PURGE="0" COMMENT="" />
    <EXPORT ORDINAL="366" NAME="??4?$AutoBuffer@C$0BAAI@@cv@@QAEAAV01@ABV01@@Z" PURGE="4" COMMENT="" />
    <EXPORT ORDINAL="367" NAME="??4?$AutoBuffer@D$0BAAI@@cv@@QAEAAV01@ABV01@@Z" PURGE="4" COMMENT="" />
    <EXPORT ORDINAL="368" NAME="??4?$AutoBuffer@E$0BAAI@@cv@@QAEAAV01@ABV01@@Z" PURGE="4" COMMENT="" />
    <EXPORT ORDINAL="369" NAME="??4?$AutoBuffer@H$0EAI@@cv@@QAEAAV01@ABV01@@Z" PURGE="4" COMMENT="" />
    <EXPORT ORDINAL="370" NAME="??4?$AutoBuffer@M$0BAAA@@cv@@QAEAAV01@ABV01@@Z" PURGE="4" COMMENT="" />
    <EXPORT ORDINAL="371" NAME="??4?$AutoBuffer@M$0EAI@@cv@@QAEAAV01@ABV01@@Z" PURGE="4" COMMENT="" />
    <EXPORT ORDINAL="372" NAME="??4?$AutoBuffer@N$0CAI@@cv@@QAEAAV01@ABV01@@Z" PURGE="4" COMMENT="" />
    <EXPORT ORDINAL="373" NAME="??4?$AutoBuffer@PAM$0EAA@@cv@@QAEAAV01@ABV01@@Z" PURGE="4" COMMENT="" />
    <EXPORT ORDINAL="374" NAME="??4?$AutoBuffer@PAUCvPoint@@$0EAI@@cv@@QAEAAV01@ABV01@@Z" PURGE="4" COMMENT="" />
    <EXPORT ORDINAL="375" NAME="??4?$AutoBuffer@PAU_CvTrianAttr@@$0EAI@@cv@@QAEAAV01@ABV01@@Z" PURGE="4" COMMENT="" />
    <EXPORT ORDINAL="376" NAME="??4?$AutoBuffer@UCvFFillSegment@@$0BFN@@cv@@QAEAAV01@ABV01@@Z" PURGE="4" COMMENT="" />
    <EXPORT ORDINAL="377" NAME="??4?$AutoBuffer@UCvPoint2D32f@@$0CAI@@cv@@QAEAAV01@ABV01@@Z" PURGE="4" COMMENT="" />
    <EXPORT ORDINAL="378" NAME="??4?$AutoBuffer@UDecimateAlpha@cv@@$0BFN@@cv@@QAEAAV01@ABV01@@Z" PURGE="4" COMMENT="" />
    <EXPORT ORDINAL="379" NAME="??4?$AutoBuffer@U_CvPtInfo@@$0NE@@cv@@QAEAAV01@ABV01@@Z" PURGE="4" COMMENT="" />
    <EXPORT ORDINAL="380" NAME="??4?$MatExpr_@V?$MatExpr_Op2_@VMat@cv@@V12@V12@V?$MatOp_Sub_@VMat@cv@@@2@@cv@@VMat@2@@cv@@QAEAAV01@ABV01@@Z" PURGE="4" COMMENT="" />
    <EXPORT ORDINAL="381" NAME="??4?$MatExpr_@V?$MatExpr_Op2_@VMat@cv@@V?$Scalar_@N@2@V12@V?$MatOp_AddS_@VMat@cv@@@2@@cv@@VMat@2@@cv@@QAEAAV01@ABV01@@Z" PURGE="4" COMMENT="" />
    <EXPORT ORDINAL="382" NAME="??4?$MatExpr_@V?$MatExpr_Op3_@VMat@cv@@NHV12@V?$MatOp_CmpS_@VMat@cv@@@2@@cv@@VMat@2@@cv@@QAEAAV01@ABV01@@Z" PURGE="4" COMMENT="" />
    <EXPORT ORDINAL="383" NAME="??4?$MatExpr_@V?$MatExpr_Op3_@VMat@cv@@V12@HV12@V?$MatOp_Bin_@VMat@cv@@@2@@cv@@VMat@2@@cv@@QAEAAV01@ABV01@@Z" PURGE="4" COMMENT="" />
    <EXPORT ORDINAL="384" NAME="??4?$MatExpr_@V?$MatExpr_Op3_@VMat@cv@@V12@HV12@V?$MatOp_Cmp_@VMat@cv@@@2@@cv@@VMat@2@@cv@@QAEAAV01@ABV01@@Z" PURGE="4" COMMENT="" />
    <EXPORT ORDINAL="385" NAME="??4?$MatExpr_@V?$MatExpr_Op3_@VMat@cv@@V?$Scalar_@N@2@HV12@V?$MatOp_BinS_@VMat@cv@@@2@@cv@@VMat@2@@cv@@QAEAAV01@ABV01@@Z" PURGE="4" COMMENT="" />
    <EXPORT ORDINAL="386" NAME="??4?$MatExpr_@V?$MatExpr_Op4_@VMat@cv@@V12@NHV12@V?$MatOp_MatMul_@VMat@cv@@@2@@cv@@VMat@2@@cv@@QAEAAV01@ABV01@@Z" PURGE="4" COMMENT="" />
    <EXPORT ORDINAL="387" NAME="??4?$MatExpr_@V?$MatExpr_Op5_@VMat@cv@@NV12@NNV12@V?$MatOp_AddEx_@VMat@cv@@@2@@cv@@VMat@2@@cv@@QAEAAV01@ABV01@@Z" PURGE="4" COMMENT="" />
    <EXPORT ORDINAL="388" NAME="??4?$MatExpr_@V?$MatExpr_Op6_@VMat@cv@@V12@NV12@NHV12@V?$MatOp_MatMulAdd_@VMat@cv@@@2@@cv@@VMat@2@@cv@@QAEAAV01@ABV01@@Z" PURGE="4" COMMENT="" />
    <EXPORT ORDINAL="389" NAME="??4?$MatExpr_Base_@VMat@cv@@@cv@@QAEAAV01@ABV01@@Z" PURGE="4" COMMENT="" />
    <EXPORT ORDINAL="390" NAME="??4?$MatExpr_Op2_@VMat@cv@@V12@V12@V?$MatOp_Sub_@VMat@cv@@@2@@cv@@QAEAAV01@ABV01@@Z" PURGE="4" COMMENT="" />
    <EXPORT ORDINAL="391" NAME="??4?$MatExpr_Op2_@VMat@cv@@V?$Scalar_@N@2@V12@V?$MatOp_AddS_@VMat@cv@@@2@@cv@@QAEAAV01@ABV01@@Z" PURGE="4" COMMENT="" />
    <EXPORT ORDINAL="392" NAME="??4?$MatExpr_Op3_@VMat@cv@@NHV12@V?$MatOp_CmpS_@VMat@cv@@@2@@cv@@QAEAAV01@ABV01@@Z" PURGE="4" COMMENT="" />
    <EXPORT ORDINAL="393" NAME="??4?$MatExpr_Op3_@VMat@cv@@V12@HV12@V?$MatOp_Bin_@VMat@cv@@@2@@cv@@QAEAAV01@ABV01@@Z" PURGE="4" COMMENT="" />
    <EXPORT ORDINAL="394" NAME="??4?$MatExpr_Op3_@VMat@cv@@V12@HV12@V?$MatOp_Cmp_@VMat@cv@@@2@@cv@@QAEAAV01@ABV01@@Z" PURGE="4" COMMENT="" />
    <EXPORT ORDINAL="395" NAME="??4?$MatExpr_Op3_@VMat@cv@@V?$Scalar_@N@2@HV12@V?$MatOp_BinS_@VMat@cv@@@2@@cv@@QAEAAV01@ABV01@@Z" PURGE="4" COMMENT="" />
    <EXPORT ORDINAL="396" NAME="??4?$MatExpr_Op4_@VMat@cv@@V12@NHV12@V?$MatOp_MatMul_@VMat@cv@@@2@@cv@@QAEAAV01@ABV01@@Z" PURGE="4" COMMENT="" />
    <EXPORT ORDINAL="397" NAME="??4?$MatExpr_Op5_@VMat@cv@@NV12@NNV12@V?$MatOp_AddEx_@VMat@cv@@@2@@cv@@QAEAAV01@ABV01@@Z" PURGE="4" COMMENT="" />
    <EXPORT ORDINAL="398" NAME="??4?$MatExpr_Op6_@VMat@cv@@V12@NV12@NHV12@V?$MatOp_MatMulAdd_@VMat@cv@@@2@@cv@@QAEAAV01@ABV01@@Z" PURGE="4" COMMENT="" />
    <EXPORT ORDINAL="399" NAME="??4?$MatOp_AddEx_@VMat@cv@@@cv@@QAEAAV01@ABV01@@Z" PURGE="4" COMMENT="" />
    <EXPORT ORDINAL="400" NAME="??4?$MatOp_AddS_@VMat@cv@@@cv@@QAEAAV01@ABV01@@Z" PURGE="4" COMMENT="" />
    <EXPORT ORDINAL="401" NAME="??4?$MatOp_BinS_@VMat@cv@@@cv@@QAEAAV01@ABV01@@Z" PURGE="4" COMMENT="" />
    <EXPORT ORDINAL="402" NAME="??4?$MatOp_Bin_@VMat@cv@@@cv@@QAEAAV01@ABV01@@Z" PURGE="4" COMMENT="" />
    <EXPORT ORDINAL="403" NAME="??4?$MatOp_CmpS_@VMat@cv@@@cv@@QAEAAV01@ABV01@@Z" PURGE="4" COMMENT="" />
    <EXPORT ORDINAL="404" NAME="??4?$MatOp_Cmp_@VMat@cv@@@cv@@QAEAAV01@ABV01@@Z" PURGE="4" COMMENT="" />
    <EXPORT ORDINAL="405" NAME="??4?$MatOp_DivRS_@VMat@cv@@@cv@@QAEAAV01@ABV01@@Z" PURGE="4" COMMENT="" />
    <EXPORT ORDINAL="406" NAME="??4?$MatOp_Inv_@VMat@cv@@@cv@@QAEAAV01@ABV01@@Z" PURGE="4" COMMENT="" />
    <EXPORT ORDINAL="407" NAME="??4?$MatOp_MatMulAdd_@VMat@cv@@@cv@@QAEAAV01@ABV01@@Z" PURGE="4" COMMENT="" />
    <EXPORT ORDINAL="408" NAME="??4?$MatOp_MatMul_@VMat@cv@@@cv@@QAEAAV01@ABV01@@Z" PURGE="4" COMMENT="" />
    <EXPORT ORDINAL="409" NAME="??4?$MatOp_MulDiv_@VMat@cv@@@cv@@QAEAAV01@ABV01@@Z" PURGE="4" COMMENT="" />
    <EXPORT ORDINAL="410" NAME="??4?$MatOp_Scale_@VMat@cv@@@cv@@QAEAAV01@ABV01@@Z" PURGE="4" COMMENT="" />
    <EXPORT ORDINAL="411" NAME="??4?$MatOp_Set_@VMat@cv@@@cv@@QAEAAV01@ABV01@@Z" PURGE="4" COMMENT="" />
    <EXPORT ORDINAL="412" NAME="??4?$MatOp_Sub_@VMat@cv@@@cv@@QAEAAV01@ABV01@@Z" PURGE="4" COMMENT="" />
    <EXPORT ORDINAL="413" NAME="??4?$MatOp_T_@VMat@cv@@@cv@@QAEAAV01@ABV01@@Z" PURGE="4" COMMENT="" />
    <EXPORT ORDINAL="414" NAME="??4?$Mat_@N@cv@@QAEAAV01@ABN@Z" PURGE="4" COMMENT="" />
    <EXPORT ORDINAL="415" NAME="??4?$Mat_@N@cv@@QAEAAV01@ABV01@@Z" PURGE="4" COMMENT="" />
    <EXPORT ORDINAL="416" NAME="??4?$Mat_@N@cv@@QAEAAV01@ABV?$MatExpr_Base_@VMat@cv@@@1@@Z" PURGE="4" COMMENT="" />
    <EXPORT ORDINAL="417" NAME="??4?$Mat_@N@cv@@QAEAAV01@ABVMat@1@@Z" PURGE="4" COMMENT="" />
    <EXPORT ORDINAL="418" NAME="??4?$Point3_@M@cv@@QAEAAV01@ABV01@@Z" PURGE="4" COMMENT="" />
    <EXPORT ORDINAL="419" NAME="??4?$Point3_@N@cv@@QAEAAV01@ABV01@@Z" PURGE="4" COMMENT="" />
    <EXPORT ORDINAL="420" NAME="??4?$Point_@F@cv@@QAEAAV01@ABV01@@Z" PURGE="4" COMMENT="" />
    <EXPORT ORDINAL="421" NAME="??4?$Point_@H@cv@@QAEAAV01@ABV01@@Z" PURGE="4" COMMENT="" />
    <EXPORT ORDINAL="422" NAME="??4?$Point_@M@cv@@QAEAAV01@ABV01@@Z" PURGE="4" COMMENT="" />
    <EXPORT ORDINAL="423" NAME="??4?$Ptr@UCvFileStorage@@@cv@@QAEAAV01@ABV01@@Z" PURGE="4" COMMENT="" />
    <EXPORT ORDINAL="424" NAME="??4?$Ptr@UCvHaarClassifierCascade@@@cv@@QAEAAV01@ABV01@@Z" PURGE="4" COMMENT="" />
    <EXPORT ORDINAL="425" NAME="??4?$Ptr@UCvHistogram@@@cv@@QAEAAV01@ABV01@@Z" PURGE="4" COMMENT="" />
    <EXPORT ORDINAL="426" NAME="??4?$Ptr@UCvMat@@@cv@@QAEAAV01@ABV01@@Z" PURGE="4" COMMENT="" />
    <EXPORT ORDINAL="427" NAME="??4?$Ptr@UCvMemStorage@@@cv@@QAEAAV01@ABV01@@Z" PURGE="4" COMMENT="" />
    <EXPORT ORDINAL="428" NAME="??4?$Ptr@UCvStereoBMState@@@cv@@QAEAAV01@ABV01@@Z" PURGE="4" COMMENT="" />
    <EXPORT ORDINAL="429" NAME="??4?$Ptr@U_IplConvKernel@@@cv@@QAEAAV01@ABV01@@Z" PURGE="4" COMMENT="" />
    <EXPORT ORDINAL="430" NAME="??4?$Ptr@V?$vector@UFeature@HaarEvaluator@cv@@V?$allocator@UFeature@HaarEvaluator@cv@@@std@@@std@@@cv@@QAEAAV01@ABV01@@Z" PURGE="4" COMMENT="" />
    <EXPORT ORDINAL="431" NAME="??4?$Ptr@V?$vector@UFeature@LBPEvaluator@cv@@V?$allocator@UFeature@LBPEvaluator@cv@@@std@@@std@@@cv@@QAEAAV01@ABV01@@Z" PURGE="4" COMMENT="" />
    <EXPORT ORDINAL="432" NAME="??4?$Ptr@VBaseColumnFilter@cv@@@cv@@QAEAAV01@ABV01@@Z" PURGE="4" COMMENT="" />
    <EXPORT ORDINAL="433" NAME="??4?$Ptr@VBaseFilter@cv@@@cv@@QAEAAV01@ABV01@@Z" PURGE="4" COMMENT="" />
    <EXPORT ORDINAL="434" NAME="??4?$Ptr@VBaseRowFilter@cv@@@cv@@QAEAAV01@ABV01@@Z" PURGE="4" COMMENT="" />
    <EXPORT ORDINAL="435" NAME="??4?$Ptr@VCvPriorityQueueFloat@@@cv@@QAEAAV01@ABV01@@Z" PURGE="4" COMMENT="" />
    <EXPORT ORDINAL="436" NAME="??4?$Ptr@VFeatureEvaluator@cv@@@cv@@QAEAAV01@ABV01@@Z" PURGE="4" COMMENT="" />
    <EXPORT ORDINAL="437" NAME="??4?$Ptr@VFilterEngine@cv@@@cv@@QAEAAV01@ABV01@@Z" PURGE="4" COMMENT="" />
    <EXPORT ORDINAL="438" NAME="??4?$Rect_@H@cv@@QAEAAV01@ABV01@@Z" PURGE="4" COMMENT="" />
    <EXPORT ORDINAL="439" NAME="??4?$Rect_@M@cv@@QAEAAV01@ABV01@@Z" PURGE="4" COMMENT="" />
    <EXPORT ORDINAL="440" NAME="??4?$Scalar_@E@cv@@QAEAAV01@ABV01@@Z" PURGE="4" COMMENT="" />
    <EXPORT ORDINAL="441" NAME="??4?$Scalar_@F@cv@@QAEAAV01@ABV01@@Z" PURGE="4" COMMENT="" />
    <EXPORT ORDINAL="442" NAME="??4?$Scalar_@G@cv@@QAEAAV01@ABV01@@Z" PURGE="4" COMMENT="" />
    <EXPORT ORDINAL="443" NAME="??4?$Scalar_@H@cv@@QAEAAV01@ABV01@@Z" PURGE="4" COMMENT="" />
    <EXPORT ORDINAL="444" NAME="??4?$Scalar_@M@cv@@QAEAAV01@ABV01@@Z" PURGE="4" COMMENT="" />
    <EXPORT ORDINAL="445" NAME="??4?$Scalar_@N@cv@@QAEAAV01@ABV01@@Z" PURGE="4" COMMENT="" />
    <EXPORT ORDINAL="446" NAME="??4?$Seq@PAUCvSeq@@@cv@@QAEAAV01@ABV01@@Z" PURGE="4" COMMENT="" />
    <EXPORT ORDINAL="447" NAME="??4?$Seq@UCvAvgComp@@@cv@@QAEAAV01@ABV01@@Z" PURGE="4" COMMENT="" />
    <EXPORT ORDINAL="448" NAME="??4?$Seq@UCvSURFPoint@@@cv@@QAEAAV01@ABV01@@Z" PURGE="4" COMMENT="" />
    <EXPORT ORDINAL="449" NAME="??4?$Seq@UCvStarKeypoint@@@cv@@QAEAAV01@ABV01@@Z" PURGE="4" COMMENT="" />
    <EXPORT ORDINAL="450" NAME="??4?$Seq@V?$Point_@H@cv@@@cv@@QAEAAV01@ABV01@@Z" PURGE="4" COMMENT="" />
    <EXPORT ORDINAL="451" NAME="??4?$Seq@V?$Point_@M@cv@@@cv@@QAEAAV01@ABV01@@Z" PURGE="4" COMMENT="" />
    <EXPORT ORDINAL="452" NAME="??4?$Seq@V?$Vec@H$03@cv@@@cv@@QAEAAV01@ABV01@@Z" PURGE="4" COMMENT="" />
    <EXPORT ORDINAL="453" NAME="??4?$Seq@V?$Vec@M$01@cv@@@cv@@QAEAAV01@ABV01@@Z" PURGE="4" COMMENT="" />
    <EXPORT ORDINAL="454" NAME="??4?$Seq@V?$Vec@M$02@cv@@@cv@@QAEAAV01@ABV01@@Z" PURGE="4" COMMENT="" />
    <EXPORT ORDINAL="455" NAME="??4?$SeqIterator@PAUCvSeq@@@cv@@QAEAAV01@ABV01@@Z" PURGE="4" COMMENT="" />
    <EXPORT ORDINAL="456" NAME="??4?$SeqIterator@UCvSURFPoint@@@cv@@QAEAAV01@ABV01@@Z" PURGE="4" COMMENT="" />
    <EXPORT ORDINAL="457" NAME="??4?$SeqIterator@UCvStarKeypoint@@@cv@@QAEAAV01@ABV01@@Z" PURGE="4" COMMENT="" />
    <EXPORT ORDINAL="458" NAME="??4?$Size_@H@cv@@QAEAAV01@ABV01@@Z" PURGE="4" COMMENT="" />
    <EXPORT ORDINAL="459" NAME="??4?$Size_@M@cv@@QAEAAV01@ABV01@@Z" PURGE="4" COMMENT="" />
    <EXPORT ORDINAL="460" NAME="??4?$Vec@E$02@cv@@QAEAAV01@ABV01@@Z" PURGE="4" COMMENT="" />
    <EXPORT ORDINAL="461" NAME="??4?$Vec@E$03@cv@@QAEAAV01@ABV01@@Z" PURGE="4" COMMENT="" />
    <EXPORT ORDINAL="462" NAME="??4?$Vec@F$03@cv@@QAEAAV01@ABV01@@Z" PURGE="4" COMMENT="" />
    <EXPORT ORDINAL="463" NAME="??4?$Vec@G$03@cv@@QAEAAV01@ABV01@@Z" PURGE="4" COMMENT="" />
    <EXPORT ORDINAL="464" NAME="??4?$Vec@H$01@cv@@QAEAAV01@ABV01@@Z" PURGE="4" COMMENT="" />
    <EXPORT ORDINAL="465" NAME="??4?$Vec@H$03@cv@@QAEAAV01@ABV01@@Z" PURGE="4" COMMENT="" />
    <EXPORT ORDINAL="466" NAME="??4?$Vec@M$01@cv@@QAEAAV01@ABV01@@Z" PURGE="4" COMMENT="" />
    <EXPORT ORDINAL="467" NAME="??4?$Vec@M$02@cv@@QAEAAV01@ABV01@@Z" PURGE="4" COMMENT="" />
    <EXPORT ORDINAL="468" NAME="??4?$Vec@M$03@cv@@QAEAAV01@ABV01@@Z" PURGE="4" COMMENT="" />
    <EXPORT ORDINAL="469" NAME="??4?$Vec@M$05@cv@@QAEAAV01@ABV01@@Z" PURGE="4" COMMENT="" />
    <EXPORT ORDINAL="470" NAME="??4?$Vec@N$02@cv@@QAEAAV01@ABV01@@Z" PURGE="4" COMMENT="" />
    <EXPORT ORDINAL="471" NAME="??4?$Vec@N$03@cv@@QAEAAV01@ABV01@@Z" PURGE="4" COMMENT="" />
    <EXPORT ORDINAL="472" NAME="??4AutotunedIndexParams@flann@cv@@QAEAAU012@ABU012@@Z" PURGE="4" COMMENT="" />
    <EXPORT ORDINAL="473" NAME="??4BaseColumnFilter@cv@@QAEAAV01@ABV01@@Z" PURGE="4" COMMENT="" />
    <EXPORT ORDINAL="474" NAME="??4BaseFilter@cv@@QAEAAV01@ABV01@@Z" PURGE="4" COMMENT="" />
    <EXPORT ORDINAL="475" NAME="??4BaseRowFilter@cv@@QAEAAV01@ABV01@@Z" PURGE="4" COMMENT="" />
    <EXPORT ORDINAL="476" NAME="??4CascadeClassifier@cv@@QAEAAV01@ABV01@@Z" PURGE="4" COMMENT="" />
    <EXPORT ORDINAL="477" NAME="??4CompositeIndexParams@flann@cv@@QAEAAU012@ABU012@@Z" PURGE="4" COMMENT="" />
    <EXPORT ORDINAL="478" NAME="??4CvLevMarq@@QAEAAV0@ABV0@@Z" PURGE="4" COMMENT="" />
    <EXPORT ORDINAL="479" NAME="??4CvModule@@QAEAAU0@ABU0@@Z" PURGE="4" COMMENT="" />
    <EXPORT ORDINAL="480" NAME="??4CvType@@QAEAAU0@ABU0@@Z" PURGE="4" COMMENT="" />
    <EXPORT ORDINAL="481" NAME="??4DTree@CascadeClassifier@cv@@QAEAAU012@ABU012@@Z" PURGE="4" COMMENT="" />
    <EXPORT ORDINAL="482" NAME="??4DTreeNode@CascadeClassifier@cv@@QAEAAU012@ABU012@@Z" PURGE="4" COMMENT="" />
    <EXPORT ORDINAL="483" NAME="??4Exception@cv@@QAEAAV01@ABV01@@Z" PURGE="4" COMMENT="" />
    <EXPORT ORDINAL="484" NAME="??4FeatureEvaluator@cv@@QAEAAV01@ABV01@@Z" PURGE="4" COMMENT="" />
    <EXPORT ORDINAL="485" NAME="??4FileNode@cv@@QAEAAV01@ABV01@@Z" PURGE="4" COMMENT="" />
    <EXPORT ORDINAL="486" NAME="??4FileNodeIterator@cv@@QAEAAV01@ABV01@@Z" PURGE="4" COMMENT="" />
    <EXPORT ORDINAL="487" NAME="??4FileStorage@cv@@QAEAAV01@ABV01@@Z" PURGE="4" COMMENT="" />
    <EXPORT ORDINAL="488" NAME="??4FilterEngine@cv@@QAEAAV01@ABV01@@Z" PURGE="4" COMMENT="" />
    <EXPORT ORDINAL="489" NAME="??4Hdr@SparseMat@cv@@QAEAAU012@ABU012@@Z" PURGE="4" COMMENT="" />
    <EXPORT ORDINAL="490" NAME="??4Index@flann@cv@@QAEAAV012@ABV012@@Z" PURGE="4" COMMENT="" />
    <EXPORT ORDINAL="491" NAME="??4IndexFactory@flann@cv@@QAEAAV012@ABV012@@Z" PURGE="4" COMMENT="" />
    <EXPORT ORDINAL="492" NAME="??4IndexParams@flann@cv@@QAEAAU012@ABU012@@Z" PURGE="4" COMMENT="" />
    <EXPORT ORDINAL="493" NAME="??4KDTree@cv@@QAEAAV01@ABV01@@Z" PURGE="4" COMMENT="" />
    <EXPORT ORDINAL="494" NAME="??4KDTreeIndexParams@flann@cv@@QAEAAU012@ABU012@@Z" PURGE="4" COMMENT="" />
    <EXPORT ORDINAL="495" NAME="??4KMeansIndexParams@flann@cv@@QAEAAU012@ABU012@@Z" PURGE="4" COMMENT="" />
    <EXPORT ORDINAL="496" NAME="??4KalmanFilter@cv@@QAEAAV01@ABV01@@Z" PURGE="4" COMMENT="" />
    <EXPORT ORDINAL="497" NAME="??4KeyPoint@cv@@QAEAAV01@ABV01@@Z" PURGE="4" COMMENT="" />
    <EXPORT ORDINAL="498" NAME="??4LineIterator@cv@@QAEAAV01@ABV01@@Z" PURGE="4" COMMENT="" />
    <EXPORT ORDINAL="499" NAME="??4LinearIndexParams@flann@cv@@QAEAAU012@ABU012@@Z" PURGE="4" COMMENT="" />
    <EXPORT ORDINAL="500" NAME="??4MSER@cv@@QAEAAV01@ABV01@@Z" PURGE="4" COMMENT="" />
    <EXPORT ORDINAL="501" NAME="??4Mat@cv@@QAEAAV01@ABV01@@Z" PURGE="4" COMMENT="" />
    <EXPORT ORDINAL="502" NAME="??4Mat@cv@@QAEAAV01@ABV?$MatExpr_Base_@VMat@cv@@@1@@Z" PURGE="4" COMMENT="" />
    <EXPORT ORDINAL="503" NAME="??4MatND@cv@@QAEAAV01@ABV01@@Z" PURGE="4" COMMENT="" />
    <EXPORT ORDINAL="504" NAME="??4Moments@cv@@QAEAAV01@ABV01@@Z" PURGE="4" COMMENT="" />
    <EXPORT ORDINAL="505" NAME="??4NAryMatNDIterator@cv@@QAEAAV01@ABV01@@Z" PURGE="4" COMMENT="" />
    <EXPORT ORDINAL="506" NAME="??4Node@SparseMat@cv@@QAEAAU012@ABU012@@Z" PURGE="4" COMMENT="" />
    <EXPORT ORDINAL="507" NAME="??4PCA@cv@@QAEAAV01@ABV01@@Z" PURGE="4" COMMENT="" />
    <EXPORT ORDINAL="508" NAME="??4RNG@cv@@QAEAAV01@ABV01@@Z" PURGE="4" COMMENT="" />
    <EXPORT ORDINAL="509" NAME="??4Range@cv@@QAEAAV01@ABV01@@Z" PURGE="4" COMMENT="" />
    <EXPORT ORDINAL="510" NAME="??4RotatedRect@cv@@QAEAAV01@ABV01@@Z" PURGE="4" COMMENT="" />
    <EXPORT ORDINAL="511" NAME="??4SURF@cv@@QAEAAV01@ABV01@@Z" PURGE="4" COMMENT="" />
    <EXPORT ORDINAL="512" NAME="??4SVD@cv@@QAEAAV01@ABV01@@Z" PURGE="4" COMMENT="" />
    <EXPORT ORDINAL="513" NAME="??4SavedIndexParams@flann@cv@@QAEAAU012@ABU012@@Z" PURGE="4" COMMENT="" />
    <EXPORT ORDINAL="514" NAME="??4SearchParams@flann@cv@@QAEAAU012@ABU012@@Z" PURGE="4" COMMENT="" />
    <EXPORT ORDINAL="515" NAME="??4SimilarRects@cv@@QAEAAV01@ABV01@@Z" PURGE="4" COMMENT="" />
    <EXPORT ORDINAL="516" NAME="??4SparseMat@cv@@QAEAAV01@ABV01@@Z" PURGE="4" COMMENT="" />
    <EXPORT ORDINAL="517" NAME="??4SparseMat@cv@@QAEAAV01@ABVMat@1@@Z" PURGE="4" COMMENT="" />
    <EXPORT ORDINAL="518" NAME="??4SparseMat@cv@@QAEAAV01@ABVMatND@1@@Z" PURGE="4" COMMENT="" />
    <EXPORT ORDINAL="519" NAME="??4SparseMatConstIterator@cv@@QAEAAV01@ABV01@@Z" PURGE="4" COMMENT="" />
    <EXPORT ORDINAL="520" NAME="??4SparseMatIterator@cv@@QAEAAV01@ABV01@@Z" PURGE="4" COMMENT="" />
    <EXPORT ORDINAL="521" NAME="??4Stage@CascadeClassifier@cv@@QAEAAU012@ABU012@@Z" PURGE="4" COMMENT="" />
    <EXPORT ORDINAL="522" NAME="??4StarDetector@cv@@QAEAAV01@ABV01@@Z" PURGE="4" COMMENT="" />
    <EXPORT ORDINAL="523" NAME="??4StereoBM@cv@@QAEAAV01@ABV01@@Z" PURGE="4" COMMENT="" />
    <EXPORT ORDINAL="524" NAME="??4StereoSGBM@cv@@QAEAAV01@ABV01@@Z" PURGE="4" COMMENT="" />
    <EXPORT ORDINAL="525" NAME="??4TermCriteria@cv@@QAEAAV01@ABV01@@Z" PURGE="4" COMMENT="" />
    <EXPORT ORDINAL="526" NAME="??4WriteStructContext@cv@@QAEAAV01@ABV01@@Z" PURGE="4" COMMENT="" />
    <EXPORT ORDINAL="527" NAME="??A?$Vec@E$02@cv@@QBEEH@Z" PURGE="4" COMMENT="" />
    <EXPORT ORDINAL="528" NAME="??A?$Vec@E$03@cv@@QAEAAEH@Z" PURGE="4" COMMENT="" />
    <EXPORT ORDINAL="529" NAME="??A?$Vec@F$03@cv@@QAEAAFH@Z" PURGE="4" COMMENT="" />
    <EXPORT ORDINAL="530" NAME="??A?$Vec@G$03@cv@@QAEAAGH@Z" PURGE="4" COMMENT="" />
    <EXPORT ORDINAL="531" NAME="??A?$Vec@H$03@cv@@QAEAAHH@Z" PURGE="4" COMMENT="" />
    <EXPORT ORDINAL="532" NAME="??A?$Vec@H$03@cv@@QBEHH@Z" PURGE="4" COMMENT="" />
    <EXPORT ORDINAL="533" NAME="??A?$Vec@M$02@cv@@QAEAAMH@Z" PURGE="4" COMMENT="" />
    <EXPORT ORDINAL="534" NAME="??A?$Vec@M$02@cv@@QBEMH@Z" PURGE="4" COMMENT="" />
    <EXPORT ORDINAL="535" NAME="??A?$Vec@M$03@cv@@QAEAAMH@Z" PURGE="4" COMMENT="" />
    <EXPORT ORDINAL="536" NAME="??A?$Vec@M$05@cv@@QAEAAMH@Z" PURGE="4" COMMENT="" />
    <EXPORT ORDINAL="537" NAME="??A?$Vec@N$02@cv@@QAEAANH@Z" PURGE="4" COMMENT="" />
    <EXPORT ORDINAL="538" NAME="??A?$Vec@N$02@cv@@QBENH@Z" PURGE="4" COMMENT="" />
    <EXPORT ORDINAL="539" NAME="??A?$Vec@N$03@cv@@QAEAANH@Z" PURGE="4" COMMENT="" />
    <EXPORT ORDINAL="540" NAME="??A?$Vec@N$03@cv@@QBENH@Z" PURGE="4" COMMENT="" />
    <EXPORT ORDINAL="541" NAME="??AFileNode@cv@@QBE?AV01@ABV?$basic_string@DU?$char_traits@D@std@@V?$allocator@D@2@@std@@@Z" PURGE="8" COMMENT="" />
    <EXPORT ORDINAL="542" NAME="??AFileNode@cv@@QBE?AV01@H@Z" PURGE="8" COMMENT="" />
    <EXPORT ORDINAL="543" NAME="??AFileNode@cv@@QBE?AV01@PBD@Z" PURGE="8" COMMENT="" />
    <EXPORT ORDINAL="544" NAME="??AFileStorage@cv@@QBE?AVFileNode@1@ABV?$basic_string@DU?$char_traits@D@std@@V?$allocator@D@2@@std@@@Z" PURGE="8" COMMENT="" />
    <EXPORT ORDINAL="545" NAME="??AFileStorage@cv@@QBE?AVFileNode@1@PBD@Z" PURGE="8" COMMENT="" />
    <EXPORT ORDINAL="546" NAME="??B?$AutoBuffer@C$0BAAI@@cv@@QAEPACXZ" PURGE="0" COMMENT="" />
    <EXPORT ORDINAL="547" NAME="??B?$AutoBuffer@D$0BAAI@@cv@@QAEPADXZ" PURGE="0" COMMENT="" />
    <EXPORT ORDINAL="548" NAME="??B?$AutoBuffer@E$0BAAI@@cv@@QAEPAEXZ" PURGE="0" COMMENT="" />
    <EXPORT ORDINAL="549" NAME="??B?$AutoBuffer@H$0EAI@@cv@@QAEPAHXZ" PURGE="0" COMMENT="" />
    <EXPORT ORDINAL="550" NAME="??B?$AutoBuffer@M$0BAAA@@cv@@QAEPAMXZ" PURGE="0" COMMENT="" />
    <EXPORT ORDINAL="551" NAME="??B?$AutoBuffer@M$0EAI@@cv@@QAEPAMXZ" PURGE="0" COMMENT="" />
    <EXPORT ORDINAL="552" NAME="??B?$AutoBuffer@N$0CAI@@cv@@QAEPANXZ" PURGE="0" COMMENT="" />
    <EXPORT ORDINAL="553" NAME="??B?$AutoBuffer@PAM$0EAA@@cv@@QAEPAPAMXZ" PURGE="0" COMMENT="" />
    <EXPORT ORDINAL="554" NAME="??B?$AutoBuffer@PAUCvPoint@@$0EAI@@cv@@QAEPAPAUCvPoint@@XZ" PURGE="0" COMMENT="" />
    <EXPORT ORDINAL="555" NAME="??B?$AutoBuffer@PAU_CvTrianAttr@@$0EAI@@cv@@QAEPAPAU_CvTrianAttr@@XZ" PURGE="0" COMMENT="" />
    <EXPORT ORDINAL="556" NAME="??B?$AutoBuffer@UCvFFillSegment@@$0BFN@@cv@@QAEPAUCvFFillSegment@@XZ" PURGE="0" COMMENT="" />
    <EXPORT ORDINAL="557" NAME="??B?$AutoBuffer@UCvPoint2D32f@@$0CAI@@cv@@QAEPAUCvPoint2D32f@@XZ" PURGE="0" COMMENT="" />
    <EXPORT ORDINAL="558" NAME="??B?$AutoBuffer@UDecimateAlpha@cv@@$0BFN@@cv@@QAEPAUDecimateAlpha@1@XZ" PURGE="0" COMMENT="" />
    <EXPORT ORDINAL="559" NAME="??B?$AutoBuffer@U_CvPtInfo@@$0NE@@cv@@QAEPAU_CvPtInfo@@XZ" PURGE="0" COMMENT="" />
    <EXPORT ORDINAL="560" NAME="??B?$MatExpr_Op4_@VMat@cv@@V12@NHV12@V?$MatOp_MatMul_@VMat@cv@@@2@@cv@@QBE?AVMat@1@XZ" PURGE="4" COMMENT="" />
    <EXPORT ORDINAL="561" NAME="??B?$Point_@H@cv@@QBE?AUCvPoint@@XZ" PURGE="4" COMMENT="" />
    <EXPORT ORDINAL="562" NAME="??B?$Point_@M@cv@@QBE?AUCvPoint2D32f@@XZ" PURGE="4" COMMENT="" />
    <EXPORT ORDINAL="563" NAME="??B?$Ptr@UCvFileStorage@@@cv@@QAEPAUCvFileStorage@@XZ" PURGE="0" COMMENT="" />
    <EXPORT ORDINAL="564" NAME="??B?$Ptr@UCvFileStorage@@@cv@@QBEPBUCvFileStorage@@XZ" PURGE="0" COMMENT="" />
    <EXPORT ORDINAL="565" NAME="??B?$Ptr@UCvHaarClassifierCascade@@@cv@@QAEPAUCvHaarClassifierCascade@@XZ" PURGE="0" COMMENT="" />
    <EXPORT ORDINAL="566" NAME="??B?$Ptr@UCvHistogram@@@cv@@QAEPAUCvHistogram@@XZ" PURGE="0" COMMENT="" />
    <EXPORT ORDINAL="567" NAME="??B?$Ptr@UCvMat@@@cv@@QAEPAUCvMat@@XZ" PURGE="0" COMMENT="" />
    <EXPORT ORDINAL="568" NAME="??B?$Ptr@UCvMemStorage@@@cv@@QAEPAUCvMemStorage@@XZ" PURGE="0" COMMENT="" />
    <EXPORT ORDINAL="569" NAME="??B?$Ptr@UCvStereoBMState@@@cv@@QAEPAUCvStereoBMState@@XZ" PURGE="0" COMMENT="" />
    <EXPORT ORDINAL="570" NAME="??B?$Ptr@U_IplConvKernel@@@cv@@QAEPAU_IplConvKernel@@XZ" PURGE="0" COMMENT="" />
    <EXPORT ORDINAL="571" NAME="??B?$Ptr@V?$vector@UFeature@HaarEvaluator@cv@@V?$allocator@UFeature@HaarEvaluator@cv@@@std@@@std@@@cv@@QAEPAV?$vector@UFeature@HaarEvaluator@cv@@V?$allocator@UFeature@HaarEvaluator@cv@@@std@@@std@@XZ" PURGE="0" COMMENT="" />
    <EXPORT ORDINAL="572" NAME="??B?$Ptr@V?$vector@UFeature@LBPEvaluator@cv@@V?$allocator@UFeature@LBPEvaluator@cv@@@std@@@std@@@cv@@QAEPAV?$vector@UFeature@LBPEvaluator@cv@@V?$allocator@UFeature@LBPEvaluator@cv@@@std@@@std@@XZ" PURGE="0" COMMENT="" />
    <EXPORT ORDINAL="573" NAME="??B?$Ptr@VBaseColumnFilter@cv@@@cv@@QAEPAVBaseColumnFilter@1@XZ" PURGE="0" COMMENT="" />
    <EXPORT ORDINAL="574" NAME="??B?$Ptr@VBaseFilter@cv@@@cv@@QAEPAVBaseFilter@1@XZ" PURGE="0" COMMENT="" />
    <EXPORT ORDINAL="575" NAME="??B?$Ptr@VBaseFilter@cv@@@cv@@QBEPBVBaseFilter@1@XZ" PURGE="0" COMMENT="" />
    <EXPORT ORDINAL="576" NAME="??B?$Ptr@VBaseRowFilter@cv@@@cv@@QAEPAVBaseRowFilter@1@XZ" PURGE="0" COMMENT="" />
    <EXPORT ORDINAL="577" NAME="??B?$Ptr@VCvPriorityQueueFloat@@@cv@@QAEPAVCvPriorityQueueFloat@@XZ" PURGE="0" COMMENT="" />
    <EXPORT ORDINAL="578" NAME="??B?$Ptr@VFeatureEvaluator@cv@@@cv@@QAEPAVFeatureEvaluator@1@XZ" PURGE="0" COMMENT="" />
    <EXPORT ORDINAL="579" NAME="??B?$Rect_@H@cv@@QBE?AUCvRect@@XZ" PURGE="4" COMMENT="" />
    <EXPORT ORDINAL="580" NAME="??B?$Scalar_@N@cv@@QBE?AUCvScalar@@XZ" PURGE="4" COMMENT="" />
    <EXPORT ORDINAL="581" NAME="??B?$Size_@H@cv@@QBE?AUCvSize@@XZ" PURGE="4" COMMENT="" />
    <EXPORT ORDINAL="582" NAME="??B?$Size_@M@cv@@QBE?AUCvSize2D32f@@XZ" PURGE="4" COMMENT="" />
    <EXPORT ORDINAL="583" NAME="??BFileNode@cv@@QBE?AV?$basic_string@DU?$char_traits@D@std@@V?$allocator@D@2@@std@@XZ" PURGE="4" COMMENT="" />
    <EXPORT ORDINAL="584" NAME="??BFileNode@cv@@QBEHXZ" PURGE="0" COMMENT="" />
    <EXPORT ORDINAL="585" NAME="??BFileNode@cv@@QBEMXZ" PURGE="0" COMMENT="" />
    <EXPORT ORDINAL="586" NAME="??BFileNode@cv@@QBENXZ" PURGE="0" COMMENT="" />
    <EXPORT ORDINAL="587" NAME="??BMat@cv@@QBE?AUCvMat@@XZ" PURGE="4" COMMENT="" />
    <EXPORT ORDINAL="588" NAME="??BMat@cv@@QBE?AU_IplImage@@XZ" PURGE="4" COMMENT="" />
    <EXPORT ORDINAL="589" NAME="??BMat@cv@@QBE?AV?$MatExpr_@VMat@cv@@V12@@1@XZ" PURGE="4" COMMENT="" />
    <EXPORT ORDINAL="590" NAME="??BMoments@cv@@QBE?AUCvMoments@@XZ" PURGE="4" COMMENT="" />
    <EXPORT ORDINAL="591" NAME="??BRNG@cv@@QAECXZ" PURGE="0" COMMENT="" />
    <EXPORT ORDINAL="592" NAME="??BRNG@cv@@QAEEXZ" PURGE="0" COMMENT="" />
    <EXPORT ORDINAL="593" NAME="??BRNG@cv@@QAEFXZ" PURGE="0" COMMENT="" />
    <EXPORT ORDINAL="594" NAME="??BRNG@cv@@QAEGXZ" PURGE="0" COMMENT="" />
    <EXPORT ORDINAL="595" NAME="??BRNG@cv@@QAEHXZ" PURGE="0" COMMENT="" />
    <EXPORT ORDINAL="596" NAME="??BRNG@cv@@QAEIXZ" PURGE="0" COMMENT="" />
    <EXPORT ORDINAL="597" NAME="??BRNG@cv@@QAEMXZ" PURGE="0" COMMENT="" />
    <EXPORT ORDINAL="598" NAME="??BRNG@cv@@QAENXZ" PURGE="0" COMMENT="" />
    <EXPORT ORDINAL="599" NAME="??BRange@cv@@QBE?AUCvSlice@@XZ" PURGE="4" COMMENT="" />
    <EXPORT ORDINAL="600" NAME="??BRotatedRect@cv@@QBE?AUCvBox2D@@XZ" PURGE="4" COMMENT="" />
    <EXPORT ORDINAL="601" NAME="??BTermCriteria@cv@@QBE?AUCvTermCriteria@@XZ" PURGE="4" COMMENT="" />
    <EXPORT ORDINAL="602" NAME="??C?$Ptr@UCvMat@@@cv@@QAEPAUCvMat@@XZ" PURGE="0" COMMENT="" />
    <EXPORT ORDINAL="603" NAME="??C?$Ptr@UCvStereoBMState@@@cv@@QAEPAUCvStereoBMState@@XZ" PURGE="0" COMMENT="" />
    <EXPORT ORDINAL="604" NAME="??C?$Ptr@V?$vector@UFeature@HaarEvaluator@cv@@V?$allocator@UFeature@HaarEvaluator@cv@@@std@@@std@@@cv@@QAEPAV?$vector@UFeature@HaarEvaluator@cv@@V?$allocator@UFeature@HaarEvaluator@cv@@@std@@@std@@XZ" PURGE="0" COMMENT="" />
    <EXPORT ORDINAL="605" NAME="??C?$Ptr@V?$vector@UFeature@LBPEvaluator@cv@@V?$allocator@UFeature@LBPEvaluator@cv@@@std@@@std@@@cv@@QAEPAV?$vector@UFeature@LBPEvaluator@cv@@V?$allocator@UFeature@LBPEvaluator@cv@@@std@@@std@@XZ" PURGE="0" COMMENT="" />
    <EXPORT ORDINAL="606" NAME="??C?$Ptr@VBaseColumnFilter@cv@@@cv@@QAEPAVBaseColumnFilter@1@XZ" PURGE="0" COMMENT="" />
    <EXPORT ORDINAL="607" NAME="??C?$Ptr@VBaseFilter@cv@@@cv@@QAEPAVBaseFilter@1@XZ" PURGE="0" COMMENT="" />
    <EXPORT ORDINAL="608" NAME="??C?$Ptr@VBaseRowFilter@cv@@@cv@@QAEPAVBaseRowFilter@1@XZ" PURGE="0" COMMENT="" />
    <EXPORT ORDINAL="609" NAME="??C?$Ptr@VCvPriorityQueueFloat@@@cv@@QAEPAVCvPriorityQueueFloat@@XZ" PURGE="0" COMMENT="" />
    <EXPORT ORDINAL="610" NAME="??C?$Ptr@VFeatureEvaluator@cv@@@cv@@QAEPAVFeatureEvaluator@1@XZ" PURGE="0" COMMENT="" />
    <EXPORT ORDINAL="611" NAME="??C?$Ptr@VFilterEngine@cv@@@cv@@QAEPAVFilterEngine@1@XZ" PURGE="0" COMMENT="" />
    <EXPORT ORDINAL="612" NAME="??CFileNodeIterator@cv@@QBE?AVFileNode@1@XZ" PURGE="4" COMMENT="" />
    <EXPORT ORDINAL="613" NAME="??D?$SeqIterator@PAUCvSeq@@@cv@@QAEAAPAUCvSeq@@XZ" PURGE="0" COMMENT="" />
    <EXPORT ORDINAL="614" NAME="??D?$SeqIterator@UCvSURFPoint@@@cv@@QAEAAUCvSURFPoint@@XZ" PURGE="0" COMMENT="" />
    <EXPORT ORDINAL="615" NAME="??D?$SeqIterator@UCvStarKeypoint@@@cv@@QAEAAUCvStarKeypoint@@XZ" PURGE="0" COMMENT="" />
    <EXPORT ORDINAL="616" NAME="??DFileNode@cv@@QAEPAUCvFileNode@@XZ" PURGE="0" COMMENT="" />
    <EXPORT ORDINAL="617" NAME="??DFileNode@cv@@QBEPBUCvFileNode@@XZ" PURGE="0" COMMENT="" />
    <EXPORT ORDINAL="618" NAME="??DFileNodeIterator@cv@@QBE?AVFileNode@1@XZ" PURGE="4" COMMENT="" />
    <EXPORT ORDINAL="619" NAME="??DFileStorage@cv@@QAEPAUCvFileStorage@@XZ" PURGE="0" COMMENT="" />
    <EXPORT ORDINAL="620" NAME="??DFileStorage@cv@@QBEPBUCvFileStorage@@XZ" PURGE="0" COMMENT="" />
    <EXPORT ORDINAL="621" NAME="??DLineIterator@cv@@QAEPAEXZ" PURGE="0" COMMENT="" />
    <EXPORT ORDINAL="622" NAME="??E?$SeqIterator@PAUCvSeq@@@cv@@QAEAAV01@XZ" PURGE="0" COMMENT="" />
    <EXPORT ORDINAL="623" NAME="??E?$SeqIterator@UCvSURFPoint@@@cv@@QAEAAV01@XZ" PURGE="0" COMMENT="" />
    <EXPORT ORDINAL="624" NAME="??E?$SeqIterator@UCvStarKeypoint@@@cv@@QAEAAV01@XZ" PURGE="0" COMMENT="" />
    <EXPORT ORDINAL="625" NAME="??ELineIterator@cv@@QAE?AV01@H@Z" PURGE="8" COMMENT="" />
    <EXPORT ORDINAL="626" NAME="??ELineIterator@cv@@QAEAAV01@XZ" PURGE="0" COMMENT="" />
    <EXPORT ORDINAL="627" NAME="??ESparseMatConstIterator@cv@@QAE?AV01@H@Z" PURGE="8" COMMENT="" />
    <EXPORT ORDINAL="628" NAME="??ESparseMatIterator@cv@@QAE?AV01@H@Z" PURGE="8" COMMENT="" />
    <EXPORT ORDINAL="629" NAME="??ESparseMatIterator@cv@@QAEAAV01@XZ" PURGE="0" COMMENT="" />
    <EXPORT ORDINAL="630" NAME="??R?$Mat_@N@cv@@QAEAANHH@Z" PURGE="8" COMMENT="" />
    <EXPORT ORDINAL="631" NAME="??R?$SparseMat_@M@cv@@QBEMPBHPAI@Z" PURGE="8" COMMENT="" />
    <EXPORT ORDINAL="632" NAME="??RMSER@cv@@QBEXABVMat@1@AAV?$vector@V?$vector@V?$Point_@H@cv@@V?$allocator@V?$Point_@H@cv@@@std@@@std@@V?$allocator@V?$vector@V?$Point_@H@cv@@V?$allocator@V?$Point_@H@cv@@@std@@@std@@@2@@std@@0@Z" PURGE="12" COMMENT="" />
    <EXPORT ORDINAL="633" NAME="??RMat@cv@@QBE?AV01@ABV?$Rect_@H@1@@Z" PURGE="8" COMMENT="" />
    <EXPORT ORDINAL="634" NAME="??RMat@cv@@QBE?AV01@VRange@1@0@Z" PURGE="20" COMMENT="" />
    <EXPORT ORDINAL="635" NAME="??RMatND@cv@@QBE?AV01@PBVRange@1@@Z" PURGE="8" COMMENT="" />
    <EXPORT ORDINAL="636" NAME="??RRNG@cv@@QAEII@Z" PURGE="4" COMMENT="" />
    <EXPORT ORDINAL="637" NAME="??RRNG@cv@@QAEIXZ" PURGE="0" COMMENT="" />
    <EXPORT ORDINAL="638" NAME="??RSURF@cv@@QBEXABVMat@1@0AAV?$vector@VKeyPoint@cv@@V?$allocator@VKeyPoint@cv@@@std@@@std@@@Z" PURGE="12" COMMENT="" />
    <EXPORT ORDINAL="639" NAME="??RSURF@cv@@QBEXABVMat@1@0AAV?$vector@VKeyPoint@cv@@V?$allocator@VKeyPoint@cv@@@std@@@std@@AAV?$vector@MV?$allocator@M@std@@@4@_N@Z" PURGE="20" COMMENT="" />
    <EXPORT ORDINAL="640" NAME="??RSimilarRects@cv@@QBE_NABV?$Rect_@H@1@0@Z" PURGE="8" COMMENT="" />
    <EXPORT ORDINAL="641" NAME="??RStarDetector@cv@@QBEXABVMat@1@AAV?$vector@VKeyPoint@cv@@V?$allocator@VKeyPoint@cv@@@std@@@std@@@Z" PURGE="8" COMMENT="" />
    <EXPORT ORDINAL="642" NAME="??RStereoBM@cv@@QAEXABVMat@1@0AAV21@H@Z" PURGE="16" COMMENT="" />
    <EXPORT ORDINAL="643" NAME="??RStereoSGBM@cv@@UAEXABVMat@1@0AAV21@@Z" PURGE="12" COMMENT="" />
    <EXPORT ORDINAL="644" NAME="??_7?$MatExpr_@V?$MatExpr_Op2_@VMat@cv@@V12@V12@V?$MatOp_Sub_@VMat@cv@@@2@@cv@@VMat@2@@cv@@6B@" PURGE="-1" COMMENT="" />
    <EXPORT ORDINAL="645" NAME="??_7?$MatExpr_@V?$MatExpr_Op2_@VMat@cv@@V?$Scalar_@N@2@V12@V?$MatOp_AddS_@VMat@cv@@@2@@cv@@VMat@2@@cv@@6B@" PURGE="-1" COMMENT="" />
    <EXPORT ORDINAL="646" NAME="??_7?$MatExpr_@V?$MatExpr_Op3_@VMat@cv@@NHV12@V?$MatOp_CmpS_@VMat@cv@@@2@@cv@@VMat@2@@cv@@6B@" PURGE="-1" COMMENT="" />
    <EXPORT ORDINAL="647" NAME="??_7?$MatExpr_@V?$MatExpr_Op3_@VMat@cv@@V12@HV12@V?$MatOp_Bin_@VMat@cv@@@2@@cv@@VMat@2@@cv@@6B@" PURGE="-1" COMMENT="" />
    <EXPORT ORDINAL="648" NAME="??_7?$MatExpr_@V?$MatExpr_Op3_@VMat@cv@@V12@HV12@V?$MatOp_Cmp_@VMat@cv@@@2@@cv@@VMat@2@@cv@@6B@" PURGE="-1" COMMENT="" />
    <EXPORT ORDINAL="649" NAME="??_7?$MatExpr_@V?$MatExpr_Op3_@VMat@cv@@V?$Scalar_@N@2@HV12@V?$MatOp_BinS_@VMat@cv@@@2@@cv@@VMat@2@@cv@@6B@" PURGE="-1" COMMENT="" />
    <EXPORT ORDINAL="650" NAME="??_7?$MatExpr_@V?$MatExpr_Op4_@VMat@cv@@V12@NHV12@V?$MatOp_MatMul_@VMat@cv@@@2@@cv@@VMat@2@@cv@@6B@" PURGE="-1" COMMENT="" />
    <EXPORT ORDINAL="651" NAME="??_7?$MatExpr_@V?$MatExpr_Op5_@VMat@cv@@NV12@NNV12@V?$MatOp_AddEx_@VMat@cv@@@2@@cv@@VMat@2@@cv@@6B@" PURGE="-1" COMMENT="" />
    <EXPORT ORDINAL="652" NAME="??_7?$MatExpr_@V?$MatExpr_Op6_@VMat@cv@@V12@NV12@NHV12@V?$MatOp_MatMulAdd_@VMat@cv@@@2@@cv@@VMat@2@@cv@@6B@" PURGE="-1" COMMENT="" />
    <EXPORT ORDINAL="653" NAME="??_7?$MatExpr_Base_@VMat@cv@@@cv@@6B@" PURGE="-1" COMMENT="" />
    <EXPORT ORDINAL="654" NAME="??_7AutotunedIndexParams@flann@cv@@6B@" PURGE="-1" COMMENT="" />
    <EXPORT ORDINAL="655" NAME="??_7BaseColumnFilter@cv@@6B@" PURGE="-1" COMMENT="" />
    <EXPORT ORDINAL="656" NAME="??_7BaseFilter@cv@@6B@" PURGE="-1" COMMENT="" />
    <EXPORT ORDINAL="657" NAME="??_7BaseRowFilter@cv@@6B@" PURGE="-1" COMMENT="" />
    <EXPORT ORDINAL="658" NAME="??_7CompositeIndexParams@flann@cv@@6B@" PURGE="-1" COMMENT="" />
    <EXPORT ORDINAL="659" NAME="??_7Exception@cv@@6B@" PURGE="-1" COMMENT="" />
    <EXPORT ORDINAL="660" NAME="??_7FeatureEvaluator@cv@@6B@" PURGE="-1" COMMENT="" />
    <EXPORT ORDINAL="661" NAME="??_7FileStorage@cv@@6B@" PURGE="-1" COMMENT="" />
    <EXPORT ORDINAL="662" NAME="??_7FilterEngine@cv@@6B@" PURGE="-1" COMMENT="" />
    <EXPORT ORDINAL="663" NAME="??_7IndexFactory@flann@cv@@6B@" PURGE="-1" COMMENT="" />
    <EXPORT ORDINAL="664" NAME="??_7IndexParams@flann@cv@@6B@" PURGE="-1" COMMENT="" />
    <EXPORT ORDINAL="665" NAME="??_7KDTreeIndexParams@flann@cv@@6B@" PURGE="-1" COMMENT="" />
    <EXPORT ORDINAL="666" NAME="??_7KMeansIndexParams@flann@cv@@6B@" PURGE="-1" COMMENT="" />
    <EXPORT ORDINAL="667" NAME="??_7LinearIndexParams@flann@cv@@6B@" PURGE="-1" COMMENT="" />
    <EXPORT ORDINAL="668" NAME="??_7SavedIndexParams@flann@cv@@6B@" PURGE="-1" COMMENT="" />
    <EXPORT ORDINAL="669" NAME="??_7StereoSGBM@cv@@6B@" PURGE="-1" COMMENT="" />
    <EXPORT ORDINAL="670" NAME="??_FAutotunedIndexParams@flann@cv@@QAEXXZ" PURGE="0" COMMENT="" />
    <EXPORT ORDINAL="671" NAME="??_FCompositeIndexParams@flann@cv@@QAEXXZ" PURGE="0" COMMENT="" />
    <EXPORT ORDINAL="672" NAME="??_FKDTreeIndexParams@flann@cv@@QAEXXZ" PURGE="0" COMMENT="" />
    <EXPORT ORDINAL="673" NAME="??_FKMeansIndexParams@flann@cv@@QAEXXZ" PURGE="0" COMMENT="" />
    <EXPORT ORDINAL="674" NAME="??_FSearchParams@flann@cv@@QAEXXZ" PURGE="0" COMMENT="" />
    <EXPORT ORDINAL="675" NAME="?CamShift@cv@@YA?AVRotatedRect@1@ABVMat@1@AAV?$Rect_@H@1@VTermCriteria@1@@Z" PURGE="0" COMMENT="" />
    <EXPORT ORDINAL="676" NAME="?Canny@cv@@YAXABVMat@1@AAV21@NNH_N@Z" PURGE="0" COMMENT="" />
    <EXPORT ORDINAL="677" NAME="?GaussianBlur@cv@@YAXABVMat@1@AAV21@V?$Size_@H@1@NNH@Z" PURGE="0" COMMENT="" />
    <EXPORT ORDINAL="678" NAME="?HoughCircles@cv@@YAXABVMat@1@AAV?$vector@V?$Vec@M$02@cv@@V?$allocator@V?$Vec@M$02@cv@@@std@@@std@@HNNNNHH@Z" PURGE="0" COMMENT="" />
    <EXPORT ORDINAL="679" NAME="?HoughLines@cv@@YAXABVMat@1@AAV?$vector@V?$Vec@M$01@cv@@V?$allocator@V?$Vec@M$01@cv@@@std@@@std@@NNHNN@Z" PURGE="0" COMMENT="" />
    <EXPORT ORDINAL="680" NAME="?HoughLinesP@cv@@YAXAAVMat@1@AAV?$vector@V?$Vec@H$03@cv@@V?$allocator@V?$Vec@H$03@cv@@@std@@@std@@NNHNN@Z" PURGE="0" COMMENT="" />
    <EXPORT ORDINAL="681" NAME="?HuMoments@cv@@YAXABVMoments@1@QAN@Z" PURGE="0" COMMENT="" />
    <EXPORT ORDINAL="682" NAME="?Laplacian@cv@@YAXABVMat@1@AAV21@HHNNH@Z" PURGE="0" COMMENT="" />
    <EXPORT ORDINAL="683" NAME="?RQDecomp3x3@cv@@YA?AV?$Vec@N$02@1@ABVMat@1@AAV31@1111@Z" PURGE="0" COMMENT="" />
    <EXPORT ORDINAL="684" NAME="?RQDecomp3x3@cv@@YAXABVMat@1@AAV21@1@Z" PURGE="0" COMMENT="" />
    <EXPORT ORDINAL="685" NAME="?Rodrigues@cv@@YAXABVMat@1@AAV21@1@Z" PURGE="0" COMMENT="" />
    <EXPORT ORDINAL="686" NAME="?Rodrigues@cv@@YAXABVMat@1@AAV21@@Z" PURGE="0" COMMENT="" />
    <EXPORT ORDINAL="687" NAME="?Scharr@cv@@YAXABVMat@1@AAV21@HHHNNH@Z" PURGE="0" COMMENT="" />
    <EXPORT ORDINAL="688" NAME="?Sobel@cv@@YAXABVMat@1@AAV21@HHHHNNH@Z" PURGE="0" COMMENT="" />
    <EXPORT ORDINAL="689" NAME="?accumulate@cv@@YAXABVMat@1@AAV21@0@Z" PURGE="0" COMMENT="" />
    <EXPORT ORDINAL="690" NAME="?accumulateProduct@cv@@YAXABVMat@1@0AAV21@0@Z" PURGE="0" COMMENT="" />
    <EXPORT ORDINAL="691" NAME="?accumulateSquare@cv@@YAXABVMat@1@AAV21@0@Z" PURGE="0" COMMENT="" />
    <EXPORT ORDINAL="692" NAME="?accumulateWeighted@cv@@YAXABVMat@1@AAV21@N0@Z" PURGE="0" COMMENT="" />
    <EXPORT ORDINAL="693" NAME="?adaptiveThreshold@cv@@YAXABVMat@1@AAV21@NHHHN@Z" PURGE="0" COMMENT="" />
    <EXPORT ORDINAL="694" NAME="?addref@?$Ptr@UCvFileStorage@@@cv@@QAEXXZ" PURGE="0" COMMENT="" />
    <EXPORT ORDINAL="695" NAME="?addref@?$Ptr@UCvHaarClassifierCascade@@@cv@@QAEXXZ" PURGE="0" COMMENT="" />
    <EXPORT ORDINAL="696" NAME="?addref@?$Ptr@UCvMat@@@cv@@QAEXXZ" PURGE="0" COMMENT="" />
    <EXPORT ORDINAL="697" NAME="?addref@?$Ptr@UCvStereoBMState@@@cv@@QAEXXZ" PURGE="0" COMMENT="" />
    <EXPORT ORDINAL="698" NAME="?addref@?$Ptr@VBaseColumnFilter@cv@@@cv@@QAEXXZ" PURGE="0" COMMENT="" />
    <EXPORT ORDINAL="699" NAME="?addref@?$Ptr@VBaseFilter@cv@@@cv@@QAEXXZ" PURGE="0" COMMENT="" />
    <EXPORT ORDINAL="700" NAME="?addref@?$Ptr@VBaseRowFilter@cv@@@cv@@QAEXXZ" PURGE="0" COMMENT="" />
    <EXPORT ORDINAL="701" NAME="?addref@?$Ptr@VFeatureEvaluator@cv@@@cv@@QAEXXZ" PURGE="0" COMMENT="" />
    <EXPORT ORDINAL="702" NAME="?addref@Mat@cv@@QAEXXZ" PURGE="0" COMMENT="" />
    <EXPORT ORDINAL="703" NAME="?addref@MatND@cv@@QAEXXZ" PURGE="0" COMMENT="" />
    <EXPORT ORDINAL="704" NAME="?addref@SparseMat@cv@@QAEXXZ" PURGE="0" COMMENT="" />
    <EXPORT ORDINAL="705" NAME="?adjustROI@Mat@cv@@QAEAAV12@HHHH@Z" PURGE="16" COMMENT="" />
    <EXPORT ORDINAL="706" NAME="?all@?$Scalar_@N@cv@@SA?AV12@N@Z" PURGE="0" COMMENT="" />
    <EXPORT ORDINAL="707" NAME="?all@Range@cv@@SA?AV12@XZ" PURGE="0" COMMENT="" />
    <EXPORT ORDINAL="708" NAME="?allocate@?$AutoBuffer@C$0BAAI@@cv@@QAEXI@Z" PURGE="4" COMMENT="" />
    <EXPORT ORDINAL="709" NAME="?allocate@?$AutoBuffer@D$0BAAI@@cv@@QAEXI@Z" PURGE="4" COMMENT="" />
    <EXPORT ORDINAL="710" NAME="?allocate@?$AutoBuffer@E$0BAAI@@cv@@QAEXI@Z" PURGE="4" COMMENT="" />
    <EXPORT ORDINAL="711" NAME="?allocate@?$AutoBuffer@H$0EAI@@cv@@QAEXI@Z" PURGE="4" COMMENT="" />
    <EXPORT ORDINAL="712" NAME="?allocate@?$AutoBuffer@M$0BAAA@@cv@@QAEXI@Z" PURGE="4" COMMENT="" />
    <EXPORT ORDINAL="713" NAME="?allocate@?$AutoBuffer@M$0EAI@@cv@@QAEXI@Z" PURGE="4" COMMENT="" />
    <EXPORT ORDINAL="714" NAME="?allocate@?$AutoBuffer@N$0CAI@@cv@@QAEXI@Z" PURGE="4" COMMENT="" />
    <EXPORT ORDINAL="715" NAME="?allocate@?$AutoBuffer@PAM$0EAA@@cv@@QAEXI@Z" PURGE="4" COMMENT="" />
    <EXPORT ORDINAL="716" NAME="?allocate@?$AutoBuffer@PAUCvPoint@@$0EAI@@cv@@QAEXI@Z" PURGE="4" COMMENT="" />
    <EXPORT ORDINAL="717" NAME="?allocate@?$AutoBuffer@PAU_CvTrianAttr@@$0EAI@@cv@@QAEXI@Z" PURGE="4" COMMENT="" />
    <EXPORT ORDINAL="718" NAME="?allocate@?$AutoBuffer@UCvFFillSegment@@$0BFN@@cv@@QAEXI@Z" PURGE="4" COMMENT="" />
    <EXPORT ORDINAL="719" NAME="?allocate@?$AutoBuffer@UCvPoint2D32f@@$0CAI@@cv@@QAEXI@Z" PURGE="4" COMMENT="" />
    <EXPORT ORDINAL="720" NAME="?allocate@?$AutoBuffer@UDecimateAlpha@cv@@$0BFN@@cv@@QAEXI@Z" PURGE="4" COMMENT="" />
    <EXPORT ORDINAL="721" NAME="?allocate@?$AutoBuffer@U_CvPtInfo@@$0NE@@cv@@QAEXI@Z" PURGE="4" COMMENT="" />
    <EXPORT ORDINAL="722" NAME="?apply@?$MatOp_AddEx_@VMat@cv@@@cv@@SAXABVMat@2@N0NNAAV32@H@Z" PURGE="0" COMMENT="" />
    <EXPORT ORDINAL="723" NAME="?apply@?$MatOp_AddS_@VMat@cv@@@cv@@SAXABVMat@2@ABV?$Scalar_@N@2@AAV32@H@Z" PURGE="0" COMMENT="" />
    <EXPORT ORDINAL="724" NAME="?apply@?$MatOp_BinS_@VMat@cv@@@cv@@SAXABVMat@2@ABV?$Scalar_@N@2@HAAV32@H@Z" PURGE="0" COMMENT="" />
    <EXPORT ORDINAL="725" NAME="?apply@?$MatOp_Bin_@VMat@cv@@@cv@@SAXABVMat@2@0HAAV32@H@Z" PURGE="0" COMMENT="" />
    <EXPORT ORDINAL="726" NAME="?apply@?$MatOp_CmpS_@VMat@cv@@@cv@@SAXABVMat@2@NHAAV32@H@Z" PURGE="0" COMMENT="" />
    <EXPORT ORDINAL="727" NAME="?apply@?$MatOp_Cmp_@VMat@cv@@@cv@@SAXABVMat@2@0HAAV32@H@Z" PURGE="0" COMMENT="" />
    <EXPORT ORDINAL="728" NAME="?apply@?$MatOp_DivRS_@VMat@cv@@@cv@@SAXABVMat@2@NAAV32@H@Z" PURGE="0" COMMENT="" />
    <EXPORT ORDINAL="729" NAME="?apply@?$MatOp_Inv_@VMat@cv@@@cv@@SAXABVMat@2@HAAV32@H@Z" PURGE="0" COMMENT="" />
    <EXPORT ORDINAL="730" NAME="?apply@?$MatOp_MatMulAdd_@VMat@cv@@@cv@@SAXABVMat@2@0N0NHAAV32@H@Z" PURGE="0" COMMENT="" />
    <EXPORT ORDINAL="731" NAME="?apply@?$MatOp_MatMul_@VMat@cv@@@cv@@SAXABVMat@2@0NHAAV32@H@Z" PURGE="0" COMMENT="" />
    <EXPORT ORDINAL="732" NAME="?apply@?$MatOp_MulDiv_@VMat@cv@@@cv@@SAXABVMat@2@0NDAAV32@H@Z" PURGE="0" COMMENT="" />
    <EXPORT ORDINAL="733" NAME="?apply@?$MatOp_Scale_@VMat@cv@@@cv@@SAXABVMat@2@NAAV32@H@Z" PURGE="0" COMMENT="" />
    <EXPORT ORDINAL="734" NAME="?apply@?$MatOp_Set_@VMat@cv@@@cv@@SAXV?$Size_@H@2@HABV?$Scalar_@N@2@HAAVMat@2@H@Z" PURGE="0" COMMENT="" />
    <EXPORT ORDINAL="735" NAME="?apply@?$MatOp_Sub_@VMat@cv@@@cv@@SAXABVMat@2@0AAV32@H@Z" PURGE="0" COMMENT="" />
    <EXPORT ORDINAL="736" NAME="?apply@?$MatOp_T_@VMat@cv@@@cv@@SAXABVMat@2@NAAV32@H@Z" PURGE="0" COMMENT="" />
    <EXPORT ORDINAL="737" NAME="?apply@FilterEngine@cv@@UAEXABVMat@2@AAV32@ABV?$Rect_@H@2@V?$Point_@H@2@_N@Z" PURGE="24" COMMENT="" />
    <EXPORT ORDINAL="738" NAME="?approxPolyDP@cv@@YAXABVMat@1@AAV?$vector@V?$Point_@H@cv@@V?$allocator@V?$Point_@H@cv@@@std@@@std@@N_N@Z" PURGE="0" COMMENT="" />
    <EXPORT ORDINAL="739" NAME="?approxPolyDP@cv@@YAXABVMat@1@AAV?$vector@V?$Point_@M@cv@@V?$allocator@V?$Point_@M@cv@@@std@@@std@@N_N@Z" PURGE="0" COMMENT="" />
    <EXPORT ORDINAL="740" NAME="?arcLength@cv@@YANABVMat@1@_N@Z" PURGE="0" COMMENT="" />
    <EXPORT ORDINAL="741" NAME="?area@?$Rect_@H@cv@@QBEHXZ" PURGE="0" COMMENT="" />
    <EXPORT ORDINAL="742" NAME="?area@?$Size_@H@cv@@QBEHXZ" PURGE="0" COMMENT="" />
    <EXPORT ORDINAL="743" NAME="?assignTo@?$MatExpr_@V?$MatExpr_Op2_@VMat@cv@@V12@V12@V?$MatOp_Sub_@VMat@cv@@@2@@cv@@VMat@2@@cv@@UBEXAAVMat@2@H@Z" PURGE="8" COMMENT="" />
    <EXPORT ORDINAL="744" NAME="?assignTo@?$MatExpr_@V?$MatExpr_Op2_@VMat@cv@@V?$Scalar_@N@2@V12@V?$MatOp_AddS_@VMat@cv@@@2@@cv@@VMat@2@@cv@@UBEXAAVMat@2@H@Z" PURGE="8" COMMENT="" />
    <EXPORT ORDINAL="745" NAME="?assignTo@?$MatExpr_@V?$MatExpr_Op3_@VMat@cv@@NHV12@V?$MatOp_CmpS_@VMat@cv@@@2@@cv@@VMat@2@@cv@@UBEXAAVMat@2@H@Z" PURGE="8" COMMENT="" />
    <EXPORT ORDINAL="746" NAME="?assignTo@?$MatExpr_@V?$MatExpr_Op3_@VMat@cv@@V12@HV12@V?$MatOp_Bin_@VMat@cv@@@2@@cv@@VMat@2@@cv@@UBEXAAVMat@2@H@Z" PURGE="8" COMMENT="" />
    <EXPORT ORDINAL="747" NAME="?assignTo@?$MatExpr_@V?$MatExpr_Op3_@VMat@cv@@V12@HV12@V?$MatOp_Cmp_@VMat@cv@@@2@@cv@@VMat@2@@cv@@UBEXAAVMat@2@H@Z" PURGE="8" COMMENT="" />
    <EXPORT ORDINAL="748" NAME="?assignTo@?$MatExpr_@V?$MatExpr_Op3_@VMat@cv@@V?$Scalar_@N@2@HV12@V?$MatOp_BinS_@VMat@cv@@@2@@cv@@VMat@2@@cv@@UBEXAAVMat@2@H@Z" PURGE="8" COMMENT="" />
    <EXPORT ORDINAL="749" NAME="?assignTo@?$MatExpr_@V?$MatExpr_Op4_@VMat@cv@@V12@NHV12@V?$MatOp_MatMul_@VMat@cv@@@2@@cv@@VMat@2@@cv@@UBEXAAVMat@2@H@Z" PURGE="8" COMMENT="" />
    <EXPORT ORDINAL="750" NAME="?assignTo@?$MatExpr_@V?$MatExpr_Op5_@VMat@cv@@NV12@NNV12@V?$MatOp_AddEx_@VMat@cv@@@2@@cv@@VMat@2@@cv@@UBEXAAVMat@2@H@Z" PURGE="8" COMMENT="" />
    <EXPORT ORDINAL="751" NAME="?assignTo@?$MatExpr_@V?$MatExpr_Op6_@VMat@cv@@V12@NV12@NHV12@V?$MatOp_MatMulAdd_@VMat@cv@@@2@@cv@@VMat@2@@cv@@UBEXAAVMat@2@H@Z" PURGE="8" COMMENT="" />
    <EXPORT ORDINAL="752" NAME="?assignTo@?$MatExpr_Op2_@VMat@cv@@V12@V12@V?$MatOp_Sub_@VMat@cv@@@2@@cv@@QBEXAAVMat@2@H@Z" PURGE="8" COMMENT="" />
    <EXPORT ORDINAL="753" NAME="?assignTo@?$MatExpr_Op2_@VMat@cv@@V?$Scalar_@N@2@V12@V?$MatOp_AddS_@VMat@cv@@@2@@cv@@QBEXAAVMat@2@H@Z" PURGE="8" COMMENT="" />
    <EXPORT ORDINAL="754" NAME="?assignTo@?$MatExpr_Op3_@VMat@cv@@NHV12@V?$MatOp_CmpS_@VMat@cv@@@2@@cv@@QBEXAAVMat@2@H@Z" PURGE="8" COMMENT="" />
    <EXPORT ORDINAL="755" NAME="?assignTo@?$MatExpr_Op3_@VMat@cv@@V12@HV12@V?$MatOp_Bin_@VMat@cv@@@2@@cv@@QBEXAAVMat@2@H@Z" PURGE="8" COMMENT="" />
    <EXPORT ORDINAL="756" NAME="?assignTo@?$MatExpr_Op3_@VMat@cv@@V12@HV12@V?$MatOp_Cmp_@VMat@cv@@@2@@cv@@QBEXAAVMat@2@H@Z" PURGE="8" COMMENT="" />
    <EXPORT ORDINAL="757" NAME="?assignTo@?$MatExpr_Op3_@VMat@cv@@V?$Scalar_@N@2@HV12@V?$MatOp_BinS_@VMat@cv@@@2@@cv@@QBEXAAVMat@2@H@Z" PURGE="8" COMMENT="" />
    <EXPORT ORDINAL="758" NAME="?assignTo@?$MatExpr_Op4_@VMat@cv@@V12@NHV12@V?$MatOp_MatMul_@VMat@cv@@@2@@cv@@QBEXAAVMat@2@H@Z" PURGE="8" COMMENT="" />
    <EXPORT ORDINAL="759" NAME="?assignTo@?$MatExpr_Op5_@VMat@cv@@NV12@NNV12@V?$MatOp_AddEx_@VMat@cv@@@2@@cv@@QBEXAAVMat@2@H@Z" PURGE="8" COMMENT="" />
    <EXPORT ORDINAL="760" NAME="?assignTo@?$MatExpr_Op6_@VMat@cv@@V12@NV12@NHV12@V?$MatOp_MatMulAdd_@VMat@cv@@@2@@cv@@QBEXAAVMat@2@H@Z" PURGE="8" COMMENT="" />
    <EXPORT ORDINAL="761" NAME="?assignTo@Mat@cv@@QBEXAAV12@H@Z" PURGE="8" COMMENT="" />
    <EXPORT ORDINAL="762" NAME="?assignTo@MatND@cv@@QBEXAAV12@H@Z" PURGE="8" COMMENT="" />
    <EXPORT ORDINAL="763" NAME="?assignTo@SparseMat@cv@@QBEXAAV12@H@Z" PURGE="8" COMMENT="" />
    <EXPORT ORDINAL="764" NAME="?begin@?$Seq@PAUCvSeq@@@cv@@QBE?AV?$SeqIterator@PAUCvSeq@@@2@XZ" PURGE="4" COMMENT="" />
    <EXPORT ORDINAL="765" NAME="?begin@?$Seq@UCvSURFPoint@@@cv@@QBE?AV?$SeqIterator@UCvSURFPoint@@@2@XZ" PURGE="4" COMMENT="" />
    <EXPORT ORDINAL="766" NAME="?begin@?$Seq@UCvStarKeypoint@@@cv@@QBE?AV?$SeqIterator@UCvStarKeypoint@@@2@XZ" PURGE="4" COMMENT="" />
    <EXPORT ORDINAL="767" NAME="?begin@FileNode@cv@@QBE?AVFileNodeIterator@2@XZ" PURGE="4" COMMENT="" />
    <EXPORT ORDINAL="768" NAME="?begin@SparseMat@cv@@QAE?AVSparseMatIterator@2@XZ" PURGE="4" COMMENT="" />
    <EXPORT ORDINAL="769" NAME="?begin@SparseMat@cv@@QBE?AVSparseMatConstIterator@2@XZ" PURGE="4" COMMENT="" />
    <EXPORT ORDINAL="770" NAME="?bilateralFilter@cv@@YAXABVMat@1@AAV21@HNNH@Z" PURGE="0" COMMENT="" />
    <EXPORT ORDINAL="771" NAME="?borderInterpolate@cv@@YAHHHH@Z" PURGE="0" COMMENT="" />
    <EXPORT ORDINAL="772" NAME="?boundingRect@RotatedRect@cv@@QBE?AV?$Rect_@H@2@XZ" PURGE="4" COMMENT="" />
    <EXPORT ORDINAL="773" NAME="?boundingRect@cv@@YA?AV?$Rect_@H@1@ABVMat@1@@Z" PURGE="0" COMMENT="" />
    <EXPORT ORDINAL="774" NAME="?boxFilter@cv@@YAXABVMat@1@AAV21@HV?$Size_@H@1@V?$Point_@H@1@_NH@Z" PURGE="0" COMMENT="" />
    <EXPORT ORDINAL="775" NAME="?buildPyramid@cv@@YAXABVMat@1@AAV?$vector@VMat@cv@@V?$allocator@VMat@cv@@@std@@@std@@H@Z" PURGE="0" COMMENT="" />
    <EXPORT ORDINAL="776" NAME="?calcBackProject@cv@@YAXPBVMat@1@HPBHABVMatND@1@AAV21@PAPBMN_N@Z" PURGE="0" COMMENT="" />
    <EXPORT ORDINAL="777" NAME="?calcBackProject@cv@@YAXPBVMat@1@HPBHABVSparseMat@1@AAV21@PAPBMN_N@Z" PURGE="0" COMMENT="" />
    <EXPORT ORDINAL="778" NAME="?calcCat@FeatureEvaluator@cv@@UBEHH@Z" PURGE="4" COMMENT="" />
    <EXPORT ORDINAL="779" NAME="?calcGlobalOrientation@cv@@YANABVMat@1@00NN@Z" PURGE="0" COMMENT="" />
    <EXPORT ORDINAL="780" NAME="?calcHist@cv@@YAXPBVMat@1@HPBHABV21@AAVMatND@1@H1PAPBM_N5@Z" PURGE="0" COMMENT="" />
    <EXPORT ORDINAL="781" NAME="?calcHist@cv@@YAXPBVMat@1@HPBHABV21@AAVSparseMat@1@H1PAPBM_N5@Z" PURGE="0" COMMENT="" />
    <EXPORT ORDINAL="782" NAME="?calcMotionGradient@cv@@YAXABVMat@1@AAV21@1NNH@Z" PURGE="0" COMMENT="" />
    <EXPORT ORDINAL="783" NAME="?calcOpticalFlowFarneback@cv@@YAXABVMat@1@0AAV21@NHHHHNH@Z" PURGE="0" COMMENT="" />
    <EXPORT ORDINAL="784" NAME="?calcOpticalFlowPyrLK@cv@@YAXABVMat@1@0ABV?$vector@V?$Point_@M@cv@@V?$allocator@V?$Point_@M@cv@@@std@@@std@@AAV34@AAV?$vector@EV?$allocator@E@std@@@4@AAV?$vector@MV?$allocator@M@std@@@4@V?$Size_@H@1@HVTermCriteria@1@NH@Z" PURGE="0" COMMENT="" />
    <EXPORT ORDINAL="785" NAME="?calcOrd@FeatureEvaluator@cv@@UBENH@Z" PURGE="4" COMMENT="" />
    <EXPORT ORDINAL="786" NAME="?calibrateCamera@cv@@YANABV?$vector@V?$vector@V?$Point3_@M@cv@@V?$allocator@V?$Point3_@M@cv@@@std@@@std@@V?$allocator@V?$vector@V?$Point3_@M@cv@@V?$allocator@V?$Point3_@M@cv@@@std@@@std@@@2@@std@@ABV?$vector@V?$vector@V?$Point_@M@cv@@V?$allocator@V?$Point_@M@cv@@@std@@@std@@V?$allocator@V?$vector@V?$Point_@M@cv@@V?$allocator@V?$Point_@M@cv@@@std@@@std@@@2@@3@V?$Size_@H@1@AAVMat@1@3AAV?$vector@VMat@cv@@V?$allocator@VMat@cv@@@std@@@3@4H@Z" PURGE="0" COMMENT="" />
    <EXPORT ORDINAL="787" NAME="?calibrationMatrixValues@cv@@YAXABVMat@1@V?$Size_@H@1@NNAAN22AAV?$Point_@N@1@2@Z" PURGE="0" COMMENT="" />
    <EXPORT ORDINAL="788" NAME="?channels@Mat@cv@@QBEHXZ" PURGE="0" COMMENT="" />
    <EXPORT ORDINAL="789" NAME="?channels@MatND@cv@@QBEHXZ" PURGE="0" COMMENT="" />
    <EXPORT ORDINAL="790" NAME="?channels@SparseMat@cv@@QBEHXZ" PURGE="0" COMMENT="" />
    <EXPORT ORDINAL="791" NAME="?clear@CvLevMarq@@QAEXXZ" PURGE="0" COMMENT="" />
    <EXPORT ORDINAL="792" NAME="?clone@FeatureEvaluator@cv@@UBE?AV?$Ptr@VFeatureEvaluator@cv@@@2@XZ" PURGE="4" COMMENT="" />
    <EXPORT ORDINAL="793" NAME="?clone@Mat@cv@@QBE?AV12@XZ" PURGE="4" COMMENT="" />
    <EXPORT ORDINAL="794" NAME="?clone@MatND@cv@@QBE?AV12@XZ" PURGE="4" COMMENT="" />
    <EXPORT ORDINAL="795" NAME="?clone@SparseMat@cv@@QBE?AV12@XZ" PURGE="4" COMMENT="" />
    <EXPORT ORDINAL="796" NAME="?col@Mat@cv@@QBE?AV12@H@Z" PURGE="8" COMMENT="" />
    <EXPORT ORDINAL="797" NAME="?colRange@Mat@cv@@QBE?AV12@ABVRange@2@@Z" PURGE="8" COMMENT="" />
    <EXPORT ORDINAL="798" NAME="?colRange@Mat@cv@@QBE?AV12@HH@Z" PURGE="12" COMMENT="" />
    <EXPORT ORDINAL="799" NAME="?compareHist@cv@@YANABVMatND@1@0H@Z" PURGE="0" COMMENT="" />
    <EXPORT ORDINAL="800" NAME="?compareHist@cv@@YANABVSparseMat@1@0H@Z" PURGE="0" COMMENT="" />
    <EXPORT ORDINAL="801" NAME="?composeRT@cv@@YAXABVMat@1@000AAV21@111111111@Z" PURGE="0" COMMENT="" />
    <EXPORT ORDINAL="802" NAME="?composeRT@cv@@YAXABVMat@1@000AAV21@1@Z" PURGE="0" COMMENT="" />
    <EXPORT ORDINAL="803" NAME="?computeCorrespondEpilines@cv@@YAXABVMat@1@H0AAV?$vector@V?$Vec@M$02@cv@@V?$allocator@V?$Vec@M$02@cv@@@std@@@std@@@Z" PURGE="0" COMMENT="" />
    <EXPORT ORDINAL="804" NAME="?contains@?$Rect_@H@cv@@QBE_NABV?$Point_@H@2@@Z" PURGE="4" COMMENT="" />
    <EXPORT ORDINAL="805" NAME="?contourArea@cv@@YANABVMat@1@_N@Z" PURGE="0" COMMENT="" />
    <EXPORT ORDINAL="806" NAME="?convertMaps@cv@@YAXABVMat@1@0AAV21@1H_N@Z" PURGE="0" COMMENT="" />
    <EXPORT ORDINAL="807" NAME="?convertPointsHomogeneous@cv@@YAXABVMat@1@AAV?$vector@V?$Point3_@M@cv@@V?$allocator@V?$Point3_@M@cv@@@std@@@std@@@Z" PURGE="0" COMMENT="" />
    <EXPORT ORDINAL="808" NAME="?convertPointsHomogeneous@cv@@YAXABVMat@1@AAV?$vector@V?$Point_@M@cv@@V?$allocator@V?$Point_@M@cv@@@std@@@std@@@Z" PURGE="0" COMMENT="" />
    <EXPORT ORDINAL="809" NAME="?convexHull@cv@@YAXABVMat@1@AAV?$vector@HV?$allocator@H@std@@@std@@_N@Z" PURGE="0" COMMENT="" />
    <EXPORT ORDINAL="810" NAME="?convexHull@cv@@YAXABVMat@1@AAV?$vector@V?$Point_@H@cv@@V?$allocator@V?$Point_@H@cv@@@std@@@std@@_N@Z" PURGE="0" COMMENT="" />
    <EXPORT ORDINAL="811" NAME="?convexHull@cv@@YAXABVMat@1@AAV?$vector@V?$Point_@M@cv@@V?$allocator@V?$Point_@M@cv@@@std@@@std@@_N@Z" PURGE="0" COMMENT="" />
    <EXPORT ORDINAL="812" NAME="?copyMakeBorder@cv@@YAXABVMat@1@AAV21@HHHHHABV?$Scalar_@N@1@@Z" PURGE="0" COMMENT="" />
    <EXPORT ORDINAL="813" NAME="?copyTo@?$Seq@UCvAvgComp@@@cv@@QBEXAAV?$vector@UCvAvgComp@@V?$allocator@UCvAvgComp@@@std@@@std@@ABVRange@2@@Z" PURGE="8" COMMENT="" />
    <EXPORT ORDINAL="814" NAME="?copyTo@?$Seq@V?$Point_@H@cv@@@cv@@QBEXAAV?$vector@V?$Point_@H@cv@@V?$allocator@V?$Point_@H@cv@@@std@@@std@@ABVRange@2@@Z" PURGE="8" COMMENT="" />
    <EXPORT ORDINAL="815" NAME="?copyTo@?$Seq@V?$Point_@M@cv@@@cv@@QBEXAAV?$vector@V?$Point_@M@cv@@V?$allocator@V?$Point_@M@cv@@@std@@@std@@ABVRange@2@@Z" PURGE="8" COMMENT="" />
    <EXPORT ORDINAL="816" NAME="?copyTo@?$Seq@V?$Vec@H$03@cv@@@cv@@QBEXAAV?$vector@V?$Vec@H$03@cv@@V?$allocator@V?$Vec@H$03@cv@@@std@@@std@@ABVRange@2@@Z" PURGE="8" COMMENT="" />
    <EXPORT ORDINAL="817" NAME="?copyTo@?$Seq@V?$Vec@M$01@cv@@@cv@@QBEXAAV?$vector@V?$Vec@M$01@cv@@V?$allocator@V?$Vec@M$01@cv@@@std@@@std@@ABVRange@2@@Z" PURGE="8" COMMENT="" />
    <EXPORT ORDINAL="818" NAME="?copyTo@?$Seq@V?$Vec@M$02@cv@@@cv@@QBEXAAV?$vector@V?$Vec@M$02@cv@@V?$allocator@V?$Vec@M$02@cv@@@std@@@std@@ABVRange@2@@Z" PURGE="8" COMMENT="" />
    <EXPORT ORDINAL="819" NAME="?cornerEigenValsAndVecs@cv@@YAXABVMat@1@AAV21@HHH@Z" PURGE="0" COMMENT="" />
    <EXPORT ORDINAL="820" NAME="?cornerHarris@cv@@YAXABVMat@1@AAV21@HHNH@Z" PURGE="0" COMMENT="" />
    <EXPORT ORDINAL="821" NAME="?cornerMinEigenVal@cv@@YAXABVMat@1@AAV21@HHH@Z" PURGE="0" COMMENT="" />
    <EXPORT ORDINAL="822" NAME="?cornerSubPix@cv@@YAXABVMat@1@AAV?$vector@V?$Point_@M@cv@@V?$allocator@V?$Point_@M@cv@@@std@@@std@@V?$Size_@H@1@2VTermCriteria@1@@Z" PURGE="0" COMMENT="" />
    <EXPORT ORDINAL="823" NAME="?correct@KalmanFilter@cv@@QAEABVMat@2@ABV32@@Z" PURGE="4" COMMENT="" />
    <EXPORT ORDINAL="824" NAME="?create@?$Mat_@N@cv@@QAEXHH@Z" PURGE="8" COMMENT="" />
    <EXPORT ORDINAL="825" NAME="?create@FeatureEvaluator@cv@@SA?AV?$Ptr@VFeatureEvaluator@cv@@@2@H@Z" PURGE="0" COMMENT="" />
    <EXPORT ORDINAL="826" NAME="?create@Mat@cv@@QAEXHHH@Z" PURGE="12" COMMENT="" />
    <EXPORT ORDINAL="827" NAME="?create@Mat@cv@@QAEXV?$Size_@H@2@H@Z" PURGE="12" COMMENT="" />
    <EXPORT ORDINAL="828" NAME="?createBoxFilter@cv@@YA?AV?$Ptr@VFilterEngine@cv@@@1@HHV?$Size_@H@1@V?$Point_@H@1@_NH@Z" PURGE="0" COMMENT="" />
    <EXPORT ORDINAL="829" NAME="?createDerivFilter@cv@@YA?AV?$Ptr@VFilterEngine@cv@@@1@HHHHHH@Z" PURGE="0" COMMENT="" />
    <EXPORT ORDINAL="830" NAME="?createGaussianFilter@cv@@YA?AV?$Ptr@VFilterEngine@cv@@@1@HV?$Size_@H@1@NNH@Z" PURGE="0" COMMENT="" />
    <EXPORT ORDINAL="831" NAME="?createLinearFilter@cv@@YA?AV?$Ptr@VFilterEngine@cv@@@1@HHABVMat@1@V?$Point_@H@1@NHHABV?$Scalar_@N@1@@Z" PURGE="0" COMMENT="" />
    <EXPORT ORDINAL="832" NAME="?createMorphologyFilter@cv@@YA?AV?$Ptr@VFilterEngine@cv@@@1@HHABVMat@1@V?$Point_@H@1@HHABV?$Scalar_@N@1@@Z" PURGE="0" COMMENT="" />
    <EXPORT ORDINAL="833" NAME="?createSeparableLinearFilter@cv@@YA?AV?$Ptr@VFilterEngine@cv@@@1@HHABVMat@1@0V?$Point_@H@1@NHHABV?$Scalar_@N@1@@Z" PURGE="0" COMMENT="" />
    <EXPORT ORDINAL="834" NAME="?cross@?$Vec@M$02@cv@@QBE?AV12@ABV12@@Z" PURGE="8" COMMENT="" />
    <EXPORT ORDINAL="835" NAME="?cross@?$Vec@N$02@cv@@QBE?AV12@ABV12@@Z" PURGE="8" COMMENT="" />
    <EXPORT ORDINAL="836" NAME="?cvtColor@cv@@YAXABVMat@1@AAV21@HH@Z" PURGE="0" COMMENT="" />
    <EXPORT ORDINAL="837" NAME="?ddot@?$Point_@M@cv@@QBENABV12@@Z" PURGE="4" COMMENT="" />
    <EXPORT ORDINAL="838" NAME="?deallocate@?$AutoBuffer@C$0BAAI@@cv@@QAEXXZ" PURGE="0" COMMENT="" />
    <EXPORT ORDINAL="839" NAME="?deallocate@?$AutoBuffer@D$0BAAI@@cv@@QAEXXZ" PURGE="0" COMMENT="" />
    <EXPORT ORDINAL="840" NAME="?deallocate@?$AutoBuffer@E$0BAAI@@cv@@QAEXXZ" PURGE="0" COMMENT="" />
    <EXPORT ORDINAL="841" NAME="?deallocate@?$AutoBuffer@H$0EAI@@cv@@QAEXXZ" PURGE="0" COMMENT="" />
    <EXPORT ORDINAL="842" NAME="?deallocate@?$AutoBuffer@M$0BAAA@@cv@@QAEXXZ" PURGE="0" COMMENT="" />
    <EXPORT ORDINAL="843" NAME="?deallocate@?$AutoBuffer@M$0EAI@@cv@@QAEXXZ" PURGE="0" COMMENT="" />
    <EXPORT ORDINAL="844" NAME="?deallocate@?$AutoBuffer@N$0CAI@@cv@@QAEXXZ" PURGE="0" COMMENT="" />
    <EXPORT ORDINAL="845" NAME="?deallocate@?$AutoBuffer@PAM$0EAA@@cv@@QAEXXZ" PURGE="0" COMMENT="" />
    <EXPORT ORDINAL="846" NAME="?deallocate@?$AutoBuffer@PAUCvPoint@@$0EAI@@cv@@QAEXXZ" PURGE="0" COMMENT="" />
    <EXPORT ORDINAL="847" NAME="?deallocate@?$AutoBuffer@PAU_CvTrianAttr@@$0EAI@@cv@@QAEXXZ" PURGE="0" COMMENT="" />
    <EXPORT ORDINAL="848" NAME="?deallocate@?$AutoBuffer@UCvFFillSegment@@$0BFN@@cv@@QAEXXZ" PURGE="0" COMMENT="" />
    <EXPORT ORDINAL="849" NAME="?deallocate@?$AutoBuffer@UCvPoint2D32f@@$0CAI@@cv@@QAEXXZ" PURGE="0" COMMENT="" />
    <EXPORT ORDINAL="850" NAME="?deallocate@?$AutoBuffer@UDecimateAlpha@cv@@$0BFN@@cv@@QAEXXZ" PURGE="0" COMMENT="" />
    <EXPORT ORDINAL="851" NAME="?deallocate@?$AutoBuffer@U_CvPtInfo@@$0NE@@cv@@QAEXXZ" PURGE="0" COMMENT="" />
    <EXPORT ORDINAL="852" NAME="?decomposeProjectionMatrix@cv@@YAXABVMat@1@AAV21@11111AAV?$Vec@N$02@1@@Z" PURGE="0" COMMENT="" />
    <EXPORT ORDINAL="853" NAME="?decomposeProjectionMatrix@cv@@YAXABVMat@1@AAV21@11@Z" PURGE="0" COMMENT="" />
    <EXPORT ORDINAL="854" NAME="?delete_obj@?$Ptr@UCvFileStorage@@@cv@@QAEXXZ" PURGE="0" COMMENT="" />
    <EXPORT ORDINAL="855" NAME="?delete_obj@?$Ptr@UCvHaarClassifierCascade@@@cv@@QAEXXZ" PURGE="0" COMMENT="" />
    <EXPORT ORDINAL="856" NAME="?delete_obj@?$Ptr@UCvHistogram@@@cv@@QAEXXZ" PURGE="0" COMMENT="" />
    <EXPORT ORDINAL="857" NAME="?delete_obj@?$Ptr@UCvMat@@@cv@@QAEXXZ" PURGE="0" COMMENT="" />
    <EXPORT ORDINAL="858" NAME="?delete_obj@?$Ptr@UCvMatND@@@cv@@QAEXXZ" PURGE="0" COMMENT="" />
    <EXPORT ORDINAL="859" NAME="?delete_obj@?$Ptr@UCvMemStorage@@@cv@@QAEXXZ" PURGE="0" COMMENT="" />
    <EXPORT ORDINAL="860" NAME="?delete_obj@?$Ptr@UCvSparseMat@@@cv@@QAEXXZ" PURGE="0" COMMENT="" />
    <EXPORT ORDINAL="861" NAME="?delete_obj@?$Ptr@UCvStereoBMState@@@cv@@QAEXXZ" PURGE="0" COMMENT="" />
    <EXPORT ORDINAL="862" NAME="?delete_obj@?$Ptr@U_IplConvKernel@@@cv@@QAEXXZ" PURGE="0" COMMENT="" />
    <EXPORT ORDINAL="863" NAME="?delete_obj@?$Ptr@U_IplImage@@@cv@@QAEXXZ" PURGE="0" COMMENT="" />
    <EXPORT ORDINAL="864" NAME="?delete_obj@?$Ptr@V?$vector@UFeature@HaarEvaluator@cv@@V?$allocator@UFeature@HaarEvaluator@cv@@@std@@@std@@@cv@@QAEXXZ" PURGE="0" COMMENT="" />
    <EXPORT ORDINAL="865" NAME="?delete_obj@?$Ptr@V?$vector@UFeature@LBPEvaluator@cv@@V?$allocator@UFeature@LBPEvaluator@cv@@@std@@@std@@@cv@@QAEXXZ" PURGE="0" COMMENT="" />
    <EXPORT ORDINAL="866" NAME="?delete_obj@?$Ptr@VBaseColumnFilter@cv@@@cv@@QAEXXZ" PURGE="0" COMMENT="" />
    <EXPORT ORDINAL="867" NAME="?delete_obj@?$Ptr@VBaseFilter@cv@@@cv@@QAEXXZ" PURGE="0" COMMENT="" />
    <EXPORT ORDINAL="868" NAME="?delete_obj@?$Ptr@VBaseRowFilter@cv@@@cv@@QAEXXZ" PURGE="0" COMMENT="" />
    <EXPORT ORDINAL="869" NAME="?delete_obj@?$Ptr@VCvPriorityQueueFloat@@@cv@@QAEXXZ" PURGE="0" COMMENT="" />
    <EXPORT ORDINAL="870" NAME="?delete_obj@?$Ptr@VFeatureEvaluator@cv@@@cv@@QAEXXZ" PURGE="0" COMMENT="" />
    <EXPORT ORDINAL="871" NAME="?delete_obj@?$Ptr@VFilterEngine@cv@@@cv@@QAEXXZ" PURGE="0" COMMENT="" />
    <EXPORT ORDINAL="872" NAME="?depth@Mat@cv@@QBEHXZ" PURGE="0" COMMENT="" />
    <EXPORT ORDINAL="873" NAME="?depth@MatND@cv@@QBEHXZ" PURGE="0" COMMENT="" />
    <EXPORT ORDINAL="874" NAME="?depth@SparseMat@cv@@QBEHXZ" PURGE="0" COMMENT="" />
    <EXPORT ORDINAL="875" NAME="?descriptorSize@SURF@cv@@QBEHXZ" PURGE="0" COMMENT="" />
    <EXPORT ORDINAL="876" NAME="?detectMultiScale@CascadeClassifier@cv@@QAEXABVMat@2@AAV?$vector@V?$Rect_@H@cv@@V?$allocator@V?$Rect_@H@cv@@@std@@@std@@NHHV?$Size_@H@2@@Z" PURGE="32" COMMENT="" />
    <EXPORT ORDINAL="877" NAME="?diag@Mat@cv@@QBE?AV12@H@Z" PURGE="8" COMMENT="" />
    <EXPORT ORDINAL="878" NAME="?diag@Mat@cv@@SA?AV12@ABV12@@Z" PURGE="0" COMMENT="" />
    <EXPORT ORDINAL="879" NAME="?dilate@cv@@YAXABVMat@1@AAV21@0V?$Point_@H@1@HHABV?$Scalar_@N@1@@Z" PURGE="0" COMMENT="" />
    <EXPORT ORDINAL="880" NAME="?dims@SparseMat@cv@@QBEHXZ" PURGE="0" COMMENT="" />
    <EXPORT ORDINAL="881" NAME="?distanceTransform@cv@@YAXABVMat@1@AAV21@1HH@Z" PURGE="0" COMMENT="" />
    <EXPORT ORDINAL="882" NAME="?distanceTransform@cv@@YAXABVMat@1@AAV21@HH@Z" PURGE="0" COMMENT="" />
    <EXPORT ORDINAL="883" NAME="?dot@?$Point3_@N@cv@@QBENABV12@@Z" PURGE="4" COMMENT="" />
    <EXPORT ORDINAL="884" NAME="?dot@?$Vec@M$02@cv@@QBEMABV12@@Z" PURGE="4" COMMENT="" />
    <EXPORT ORDINAL="885" NAME="?drawChessboardCorners@cv@@YAXAAVMat@1@V?$Size_@H@1@ABV21@_N@Z" PURGE="0" COMMENT="" />
    <EXPORT ORDINAL="886" NAME="?drawContours@cv@@YAXAAVMat@1@ABV?$vector@V?$vector@V?$Point_@H@cv@@V?$allocator@V?$Point_@H@cv@@@std@@@std@@V?$allocator@V?$vector@V?$Point_@H@cv@@V?$allocator@V?$Point_@H@cv@@@std@@@std@@@2@@std@@HABV?$Scalar_@N@1@HHABV?$vector@V?$Vec@H$03@cv@@V?$allocator@V?$Vec@H$03@cv@@@std@@@4@HV?$Point_@H@1@@Z" PURGE="0" COMMENT="" />
    <EXPORT ORDINAL="887" NAME="?elemSize1@Mat@cv@@QBEIXZ" PURGE="0" COMMENT="" />
    <EXPORT ORDINAL="888" NAME="?elemSize1@MatND@cv@@QBEIXZ" PURGE="0" COMMENT="" />
    <EXPORT ORDINAL="889" NAME="?elemSize1@SparseMat@cv@@QBEIXZ" PURGE="0" COMMENT="" />
    <EXPORT ORDINAL="890" NAME="?elemSize@Mat@cv@@QBEIXZ" PURGE="0" COMMENT="" />
    <EXPORT ORDINAL="891" NAME="?elemSize@MatND@cv@@QBEIXZ" PURGE="0" COMMENT="" />
    <EXPORT ORDINAL="892" NAME="?elemSize@SparseMat@cv@@QBEIXZ" PURGE="0" COMMENT="" />
    <EXPORT ORDINAL="893" NAME="?empty@?$Ptr@UCvHaarClassifierCascade@@@cv@@QBE_NXZ" PURGE="0" COMMENT="" />
    <EXPORT ORDINAL="894" NAME="?empty@?$Ptr@UCvMat@@@cv@@QBE_NXZ" PURGE="0" COMMENT="" />
    <EXPORT ORDINAL="895" NAME="?empty@?$Ptr@VBaseColumnFilter@cv@@@cv@@QBE_NXZ" PURGE="0" COMMENT="" />
    <EXPORT ORDINAL="896" NAME="?empty@?$Ptr@VBaseFilter@cv@@@cv@@QBE_NXZ" PURGE="0" COMMENT="" />
    <EXPORT ORDINAL="897" NAME="?empty@?$Ptr@VBaseRowFilter@cv@@@cv@@QBE_NXZ" PURGE="0" COMMENT="" />
    <EXPORT ORDINAL="898" NAME="?empty@CascadeClassifier@cv@@QBE_NXZ" PURGE="0" COMMENT="" />
    <EXPORT ORDINAL="899" NAME="?empty@FileNode@cv@@QBE_NXZ" PURGE="0" COMMENT="" />
    <EXPORT ORDINAL="900" NAME="?empty@Mat@cv@@QBE_NXZ" PURGE="0" COMMENT="" />
    <EXPORT ORDINAL="901" NAME="?empty@Range@cv@@QBE_NXZ" PURGE="0" COMMENT="" />
    <EXPORT ORDINAL="902" NAME="?end@FileNode@cv@@QBE?AVFileNodeIterator@2@XZ" PURGE="4" COMMENT="" />
    <EXPORT ORDINAL="903" NAME="?end@SparseMat@cv@@QAE?AVSparseMatIterator@2@XZ" PURGE="4" COMMENT="" />
    <EXPORT ORDINAL="904" NAME="?end@SparseMat@cv@@QBE?AVSparseMatConstIterator@2@XZ" PURGE="4" COMMENT="" />
    <EXPORT ORDINAL="905" NAME="?equalizeHist@cv@@YAXABVMat@1@AAV21@@Z" PURGE="0" COMMENT="" />
    <EXPORT ORDINAL="906" NAME="?erode@cv@@YAXABVMat@1@AAV21@0V?$Point_@H@1@HHABV?$Scalar_@N@1@@Z" PURGE="0" COMMENT="" />
    <EXPORT ORDINAL="907" NAME="?estimateAffine3D@cv@@YAHABVMat@1@0AAV21@AAV?$vector@EV?$allocator@E@std@@@std@@NN@Z" PURGE="0" COMMENT="" />
    <EXPORT ORDINAL="908" NAME="?estimateRigidTransform@cv@@YA?AVMat@1@ABV21@0_N@Z" PURGE="0" COMMENT="" />
    <EXPORT ORDINAL="909" NAME="?eye@?$Mat_@N@cv@@SA?AV?$MatExpr_@V?$MatExpr_Op4_@V?$Size_@H@cv@@HV?$Scalar_@N@2@HVMat@2@V?$MatOp_Set_@VMat@cv@@@2@@cv@@VMat@2@@2@HH@Z" PURGE="0" COMMENT="" />
    <EXPORT ORDINAL="910" NAME="?eye@Mat@cv@@SA?AV?$MatExpr_@V?$MatExpr_Op4_@V?$Size_@H@cv@@HV?$Scalar_@N@2@HVMat@2@V?$MatOp_Set_@VMat@cv@@@2@@cv@@VMat@2@@2@HHH@Z" PURGE="0" COMMENT="" />
    <EXPORT ORDINAL="911" NAME="?eye@Mat@cv@@SA?AV?$MatExpr_@V?$MatExpr_Op4_@V?$Size_@H@cv@@HV?$Scalar_@N@2@HVMat@2@V?$MatOp_Set_@VMat@cv@@@2@@cv@@VMat@2@@2@V?$Size_@H@2@H@Z" PURGE="0" COMMENT="" />
    <EXPORT ORDINAL="912" NAME="?filter2D@cv@@YAXABVMat@1@AAV21@H0V?$Point_@H@1@NH@Z" PURGE="0" COMMENT="" />
    <EXPORT ORDINAL="913" NAME="?filterSpeckles@cv@@YAXAAVMat@1@NHN0@Z" PURGE="0" COMMENT="" />
    <EXPORT ORDINAL="914" NAME="?findChessboardCorners@cv@@YA_NABVMat@1@V?$Size_@H@1@AAV?$vector@V?$Point_@M@cv@@V?$allocator@V?$Point_@M@cv@@@std@@@std@@H@Z" PURGE="0" COMMENT="" />
    <EXPORT ORDINAL="915" NAME="?findContours@cv@@YAXAAVMat@1@AAV?$vector@V?$vector@V?$Point_@H@cv@@V?$allocator@V?$Point_@H@cv@@@std@@@std@@V?$allocator@V?$vector@V?$Point_@H@cv@@V?$allocator@V?$Point_@H@cv@@@std@@@std@@@2@@std@@AAV?$vector@V?$Vec@H$03@cv@@V?$allocator@V?$Vec@H$03@cv@@@std@@@4@HHV?$Point_@H@1@@Z" PURGE="0" COMMENT="" />
    <EXPORT ORDINAL="916" NAME="?findContours@cv@@YAXAAVMat@1@AAV?$vector@V?$vector@V?$Point_@H@cv@@V?$allocator@V?$Point_@H@cv@@@std@@@std@@V?$allocator@V?$vector@V?$Point_@H@cv@@V?$allocator@V?$Point_@H@cv@@@std@@@std@@@2@@std@@HHV?$Point_@H@1@@Z" PURGE="0" COMMENT="" />
    <EXPORT ORDINAL="917" NAME="?findFundamentalMat@cv@@YA?AVMat@1@ABV21@0AAV?$vector@EV?$allocator@E@std@@@std@@HNN@Z" PURGE="0" COMMENT="" />
    <EXPORT ORDINAL="918" NAME="?findFundamentalMat@cv@@YA?AVMat@1@ABV21@0HNN@Z" PURGE="0" COMMENT="" />
    <EXPORT ORDINAL="919" NAME="?findHomography@cv@@YA?AVMat@1@ABV21@0AAV?$vector@EV?$allocator@E@std@@@std@@HN@Z" PURGE="0" COMMENT="" />
    <EXPORT ORDINAL="920" NAME="?findHomography@cv@@YA?AVMat@1@ABV21@0HN@Z" PURGE="0" COMMENT="" />
    <EXPORT ORDINAL="921" NAME="?fitEllipse@cv@@YA?AVRotatedRect@1@ABVMat@1@@Z" PURGE="0" COMMENT="" />
    <EXPORT ORDINAL="922" NAME="?fitLine@cv@@YAXABVMat@1@AAV?$Vec@M$03@1@HNNN@Z" PURGE="0" COMMENT="" />
    <EXPORT ORDINAL="923" NAME="?fitLine@cv@@YAXABVMat@1@AAV?$Vec@M$05@1@HNNN@Z" PURGE="0" COMMENT="" />
    <EXPORT ORDINAL="924" NAME="?floodFill@cv@@YAHAAVMat@1@0V?$Point_@H@1@V?$Scalar_@N@1@PAV?$Rect_@H@1@22H@Z" PURGE="0" COMMENT="" />
    <EXPORT ORDINAL="925" NAME="?floodFill@cv@@YAHAAVMat@1@V?$Point_@H@1@V?$Scalar_@N@1@PAV?$Rect_@H@1@22H@Z" PURGE="0" COMMENT="" />
    <EXPORT ORDINAL="926" NAME="?formatMessage@Exception@cv@@QAEXXZ" PURGE="0" COMMENT="" />
    <EXPORT ORDINAL="927" NAME="?gaussian@RNG@cv@@QAENN@Z" PURGE="8" COMMENT="" />
    <EXPORT ORDINAL="928" NAME="?getAffineTransform@cv@@YA?AVMat@1@QBV?$Point_@M@1@0@Z" PURGE="0" COMMENT="" />
    <EXPORT ORDINAL="929" NAME="?getColumnSumFilter@cv@@YA?AV?$Ptr@VBaseColumnFilter@cv@@@1@HHHHN@Z" PURGE="0" COMMENT="" />
    <EXPORT ORDINAL="930" NAME="?getDefaultNewCameraMatrix@cv@@YA?AVMat@1@ABV21@V?$Size_@H@1@_N@Z" PURGE="0" COMMENT="" />
    <EXPORT ORDINAL="931" NAME="?getDerivKernels@cv@@YAXAAVMat@1@0HHH_NH@Z" PURGE="0" COMMENT="" />
    <EXPORT ORDINAL="932" NAME="?getFeatureType@FeatureEvaluator@cv@@UBEHXZ" PURGE="0" COMMENT="" />
    <EXPORT ORDINAL="933" NAME="?getFirstTopLevelNode@FileStorage@cv@@QBE?AVFileNode@2@XZ" PURGE="4" COMMENT="" />
    <EXPORT ORDINAL="934" NAME="?getGaussianKernel@cv@@YA?AVMat@1@HNH@Z" PURGE="0" COMMENT="" />
    <EXPORT ORDINAL="935" NAME="?getKernelType@cv@@YAHABVMat@1@V?$Point_@H@1@@Z" PURGE="0" COMMENT="" />
    <EXPORT ORDINAL="936" NAME="?getLinearColumnFilter@cv@@YA?AV?$Ptr@VBaseColumnFilter@cv@@@1@HHABVMat@1@HHNH@Z" PURGE="0" COMMENT="" />
    <EXPORT ORDINAL="937" NAME="?getLinearFilter@cv@@YA?AV?$Ptr@VBaseFilter@cv@@@1@HHABVMat@1@V?$Point_@H@1@NH@Z" PURGE="0" COMMENT="" />
    <EXPORT ORDINAL="938" NAME="?getLinearRowFilter@cv@@YA?AV?$Ptr@VBaseRowFilter@cv@@@1@HHABVMat@1@HH@Z" PURGE="0" COMMENT="" />
    <EXPORT ORDINAL="939" NAME="?getMorphologyColumnFilter@cv@@YA?AV?$Ptr@VBaseColumnFilter@cv@@@1@HHHH@Z" PURGE="0" COMMENT="" />
    <EXPORT ORDINAL="940" NAME="?getMorphologyFilter@cv@@YA?AV?$Ptr@VBaseFilter@cv@@@1@HHABVMat@1@V?$Point_@H@1@@Z" PURGE="0" COMMENT="" />
    <EXPORT ORDINAL="941" NAME="?getMorphologyRowFilter@cv@@YA?AV?$Ptr@VBaseRowFilter@cv@@@1@HHHH@Z" PURGE="0" COMMENT="" />
    <EXPORT ORDINAL="942" NAME="?getOptimalNewCameraMatrix@cv@@YA?AVMat@1@ABV21@0V?$Size_@H@1@N1PAV?$Rect_@H@1@@Z" PURGE="0" COMMENT="" />
    <EXPORT ORDINAL="943" NAME="?getPerspectiveTransform@cv@@YA?AVMat@1@QBV?$Point_@M@1@0@Z" PURGE="0" COMMENT="" />
    <EXPORT ORDINAL="944" NAME="?getRectSubPix@cv@@YAXABVMat@1@V?$Size_@H@1@V?$Point_@M@1@AAV21@H@Z" PURGE="0" COMMENT="" />
    <EXPORT ORDINAL="945" NAME="?getRotationMatrix2D@cv@@YA?AVMat@1@V?$Point_@M@1@NN@Z" PURGE="0" COMMENT="" />
    <EXPORT ORDINAL="946" NAME="?getRowSumFilter@cv@@YA?AV?$Ptr@VBaseRowFilter@cv@@@1@HHHH@Z" PURGE="0" COMMENT="" />
    <EXPORT ORDINAL="947" NAME="?getStructuringElement@cv@@YA?AVMat@1@HV?$Size_@H@1@V?$Point_@H@1@@Z" PURGE="0" COMMENT="" />
    <EXPORT ORDINAL="948" NAME="?getValidDisparityROI@cv@@YA?AV?$Rect_@H@1@V21@0HHH@Z" PURGE="0" COMMENT="" />
    <EXPORT ORDINAL="949" NAME="?goodFeaturesToTrack@cv@@YAXABVMat@1@AAV?$vector@V?$Point_@M@cv@@V?$allocator@V?$Point_@M@cv@@@std@@@std@@HNN0H_NN@Z" PURGE="0" COMMENT="" />
    <EXPORT ORDINAL="950" NAME="?grabCut@cv@@YAXABVMat@1@AAV21@V?$Rect_@H@1@11HH@Z" PURGE="0" COMMENT="" />
    <EXPORT ORDINAL="951" NAME="?groupRectangles@cv@@YAXAAV?$vector@V?$Rect_@H@cv@@V?$allocator@V?$Rect_@H@cv@@@std@@@std@@AAV?$vector@HV?$allocator@H@std@@@3@HN@Z" PURGE="0" COMMENT="" />
    <EXPORT ORDINAL="952" NAME="?groupRectangles@cv@@YAXAAV?$vector@V?$Rect_@H@cv@@V?$allocator@V?$Rect_@H@cv@@@std@@@std@@HN@Z" PURGE="0" COMMENT="" />
    <EXPORT ORDINAL="953" NAME="?hash@SparseMat@cv@@QBEIH@Z" PURGE="4" COMMENT="" />
    <EXPORT ORDINAL="954" NAME="?hash@SparseMat@cv@@QBEIHH@Z" PURGE="8" COMMENT="" />
    <EXPORT ORDINAL="955" NAME="?hash@SparseMat@cv@@QBEIHHH@Z" PURGE="12" COMMENT="" />
    <EXPORT ORDINAL="956" NAME="?hash@SparseMat@cv@@QBEIPBH@Z" PURGE="4" COMMENT="" />
    <EXPORT ORDINAL="957" NAME="?init@CvLevMarq@@QAEXHHUCvTermCriteria@@_N@Z" PURGE="28" COMMENT="" />
    <EXPORT ORDINAL="958" NAME="?init@FilterEngine@cv@@QAEXABV?$Ptr@VBaseFilter@cv@@@2@ABV?$Ptr@VBaseRowFilter@cv@@@2@ABV?$Ptr@VBaseColumnFilter@cv@@@2@HHHHHABV?$Scalar_@N@2@@Z" PURGE="36" COMMENT="" />
    <EXPORT ORDINAL="959" NAME="?init@KalmanFilter@cv@@QAEXHHH@Z" PURGE="12" COMMENT="" />
    <EXPORT ORDINAL="960" NAME="?init@StereoBM@cv@@QAEXHHH@Z" PURGE="12" COMMENT="" />
    <EXPORT ORDINAL="961" NAME="?initCameraMatrix2D@cv@@YA?AVMat@1@ABV?$vector@V?$vector@V?$Point3_@M@cv@@V?$allocator@V?$Point3_@M@cv@@@std@@@std@@V?$allocator@V?$vector@V?$Point3_@M@cv@@V?$allocator@V?$Point3_@M@cv@@@std@@@std@@@2@@std@@ABV?$vector@V?$vector@V?$Point_@M@cv@@V?$allocator@V?$Point_@M@cv@@@std@@@std@@V?$allocator@V?$vector@V?$Point_@M@cv@@V?$allocator@V?$Point_@M@cv@@@std@@@std@@@2@@4@V?$Size_@H@1@N@Z" PURGE="0" COMMENT="" />
    <EXPORT ORDINAL="962" NAME="?initUndistortRectifyMap@cv@@YAXABVMat@1@000V?$Size_@H@1@HAAV21@2@Z" PURGE="0" COMMENT="" />
    <EXPORT ORDINAL="963" NAME="?inpaint@cv@@YAXABVMat@1@0AAV21@NH@Z" PURGE="0" COMMENT="" />
    <EXPORT ORDINAL="964" NAME="?inside@?$Point_@H@cv@@QBE_NABV?$Rect_@H@2@@Z" PURGE="4" COMMENT="" />
    <EXPORT ORDINAL="965" NAME="?integral@cv@@YAXABVMat@1@AAV21@11H@Z" PURGE="0" COMMENT="" />
    <EXPORT ORDINAL="966" NAME="?integral@cv@@YAXABVMat@1@AAV21@1H@Z" PURGE="0" COMMENT="" />
    <EXPORT ORDINAL="967" NAME="?integral@cv@@YAXABVMat@1@AAV21@H@Z" PURGE="0" COMMENT="" />
    <EXPORT ORDINAL="968" NAME="?inv@?$MatExpr_@V?$MatExpr_Op4_@VMat@cv@@V12@NHV12@V?$MatOp_MatMul_@VMat@cv@@@2@@cv@@VMat@2@@cv@@QBE?AV?$MatExpr_@V?$MatExpr_Op2_@VMat@cv@@HV12@V?$MatOp_Inv_@VMat@cv@@@2@@cv@@VMat@2@@2@H@Z" PURGE="8" COMMENT="" />
    <EXPORT ORDINAL="969" NAME="?inv@?$Mat_@N@cv@@QBE?AV?$MatExpr_@V?$MatExpr_Op2_@VMat@cv@@HV12@V?$MatOp_Inv_@VMat@cv@@@2@@cv@@VMat@2@@2@H@Z" PURGE="8" COMMENT="" />
    <EXPORT ORDINAL="970" NAME="?inv@Mat@cv@@QBE?AV?$MatExpr_@V?$MatExpr_Op2_@VMat@cv@@HV12@V?$MatOp_Inv_@VMat@cv@@@2@@cv@@VMat@2@@2@H@Z" PURGE="8" COMMENT="" />
    <EXPORT ORDINAL="971" NAME="?invertAffineTransform@cv@@YAXABVMat@1@AAV21@@Z" PURGE="0" COMMENT="" />
    <EXPORT ORDINAL="972" NAME="?isContinuous@Mat@cv@@QBE_NXZ" PURGE="0" COMMENT="" />
    <EXPORT ORDINAL="973" NAME="?isContinuous@MatND@cv@@QBE_NXZ" PURGE="0" COMMENT="" />
    <EXPORT ORDINAL="974" NAME="?isContourConvex@cv@@YA_NABVMat@1@@Z" PURGE="0" COMMENT="" />
    <EXPORT ORDINAL="975" NAME="?isInt@FileNode@cv@@QBE_NXZ" PURGE="0" COMMENT="" />
    <EXPORT ORDINAL="976" NAME="?isMap@FileNode@cv@@QBE_NXZ" PURGE="0" COMMENT="" />
    <EXPORT ORDINAL="977" NAME="?isNamed@FileNode@cv@@QBE_NXZ" PURGE="0" COMMENT="" />
    <EXPORT ORDINAL="978" NAME="?isNone@FileNode@cv@@QBE_NXZ" PURGE="0" COMMENT="" />
    <EXPORT ORDINAL="979" NAME="?isReal@FileNode@cv@@QBE_NXZ" PURGE="0" COMMENT="" />
    <EXPORT ORDINAL="980" NAME="?isSeparable@FilterEngine@cv@@QBE_NXZ" PURGE="0" COMMENT="" />
    <EXPORT ORDINAL="981" NAME="?isSeq@FileNode@cv@@QBE_NXZ" PURGE="0" COMMENT="" />
    <EXPORT ORDINAL="982" NAME="?isString@FileNode@cv@@QBE_NXZ" PURGE="0" COMMENT="" />
    <EXPORT ORDINAL="983" NAME="?load@CascadeClassifier@cv@@QAE_NABV?$basic_string@DU?$char_traits@D@std@@V?$allocator@D@2@@std@@@Z" PURGE="4" COMMENT="" />
    <EXPORT ORDINAL="984" NAME="?locateROI@Mat@cv@@QBEXAAV?$Size_@H@2@AAV?$Point_@H@2@@Z" PURGE="8" COMMENT="" />
    <EXPORT ORDINAL="985" NAME="?matMulDeriv@cv@@YAXABVMat@1@0AAV21@1@Z" PURGE="0" COMMENT="" />
    <EXPORT ORDINAL="986" NAME="?matchShapes@cv@@YANABVMat@1@0HN@Z" PURGE="0" COMMENT="" />
    <EXPORT ORDINAL="987" NAME="?matchTemplate@cv@@YAXABVMat@1@0AAV21@H@Z" PURGE="0" COMMENT="" />
    <EXPORT ORDINAL="988" NAME="?meanShift@cv@@YAHABVMat@1@AAV?$Rect_@H@1@VTermCriteria@1@@Z" PURGE="0" COMMENT="" />
    <EXPORT ORDINAL="989" NAME="?medianBlur@cv@@YAXABVMat@1@AAV21@H@Z" PURGE="0" COMMENT="" />
    <EXPORT ORDINAL="990" NAME="?minAreaRect@cv@@YA?AVRotatedRect@1@ABVMat@1@@Z" PURGE="0" COMMENT="" />
    <EXPORT ORDINAL="991" NAME="?minEnclosingCircle@cv@@YAXABVMat@1@AAV?$Point_@M@1@AAM@Z" PURGE="0" COMMENT="" />
    <EXPORT ORDINAL="992" NAME="?moments@cv@@YA?AVMoments@1@ABVMat@1@_N@Z" PURGE="0" COMMENT="" />
    <EXPORT ORDINAL="993" NAME="?morphologyEx@cv@@YAXABVMat@1@AAV21@H0V?$Point_@H@1@HHABV?$Scalar_@N@1@@Z" PURGE="0" COMMENT="" />
    <EXPORT ORDINAL="994" NAME="?mul@Mat@cv@@QBE?AV?$MatExpr_@V?$MatExpr_Op4_@VMat@cv@@V12@NDV12@V?$MatOp_MulDiv_@VMat@cv@@@2@@cv@@VMat@2@@2@ABV12@N@Z" PURGE="16" COMMENT="" />
    <EXPORT ORDINAL="995" NAME="?mul@Mat@cv@@QBE?AV?$MatExpr_@V?$MatExpr_Op4_@VMat@cv@@V12@NDV12@V?$MatOp_MulDiv_@VMat@cv@@@2@@cv@@VMat@2@@2@ABV?$MatExpr_@V?$MatExpr_Op2_@VMat@cv@@NV12@V?$MatOp_DivRS_@VMat@cv@@@2@@cv@@VMat@2@@2@N@Z" PURGE="16" COMMENT="" />
    <EXPORT ORDINAL="996" NAME="?mul@Mat@cv@@QBE?AV?$MatExpr_@V?$MatExpr_Op4_@VMat@cv@@V12@NDV12@V?$MatOp_MulDiv_@VMat@cv@@@2@@cv@@VMat@2@@2@ABV?$MatExpr_@V?$MatExpr_Op2_@VMat@cv@@NV12@V?$MatOp_Scale_@VMat@cv@@@2@@cv@@VMat@2@@2@N@Z" PURGE="16" COMMENT="" />
    <EXPORT ORDINAL="997" NAME="?name@FileNode@cv@@QBE?AV?$basic_string@DU?$char_traits@D@std@@V?$allocator@D@2@@std@@XZ" PURGE="4" COMMENT="" />
    <EXPORT ORDINAL="998" NAME="?next@RNG@cv@@QAEIXZ" PURGE="0" COMMENT="" />
    <EXPORT ORDINAL="999" NAME="?node@SparseMat@cv@@QAEPAUNode@12@I@Z" PURGE="4" COMMENT="" />
    <EXPORT ORDINAL="1000" NAME="?node@SparseMat@cv@@QBEPBUNode@12@I@Z" PURGE="4" COMMENT="" />
    <EXPORT ORDINAL="1001" NAME="?node@SparseMatConstIterator@cv@@QBEPBUNode@SparseMat@2@XZ" PURGE="0" COMMENT="" />
    <EXPORT ORDINAL="1002" NAME="?node@SparseMatIterator@cv@@QBEPAUNode@SparseMat@2@XZ" PURGE="0" COMMENT="" />
    <EXPORT ORDINAL="1003" NAME="?nzcount@SparseMat@cv@@QBEIXZ" PURGE="0" COMMENT="" />
    <EXPORT ORDINAL="1004" NAME="?ones@Mat@cv@@SA?AV?$MatExpr_@V?$MatExpr_Op4_@V?$Size_@H@cv@@HV?$Scalar_@N@2@HVMat@2@V?$MatOp_Set_@VMat@cv@@@2@@cv@@VMat@2@@2@HHH@Z" PURGE="0" COMMENT="" />
    <EXPORT ORDINAL="1005" NAME="?ones@Mat@cv@@SA?AV?$MatExpr_@V?$MatExpr_Op4_@V?$Size_@H@cv@@HV?$Scalar_@N@2@HVMat@2@V?$MatOp_Set_@VMat@cv@@@2@@cv@@VMat@2@@2@V?$Size_@H@2@H@Z" PURGE="0" COMMENT="" />
    <EXPORT ORDINAL="1006" NAME="?pointPolygonTest@cv@@YANABVMat@1@V?$Point_@M@1@_N@Z" PURGE="0" COMMENT="" />
    <EXPORT ORDINAL="1007" NAME="?points@RotatedRect@cv@@QBEXQAV?$Point_@M@2@@Z" PURGE="4" COMMENT="" />
    <EXPORT ORDINAL="1008" NAME="?preCornerDetect@cv@@YAXABVMat@1@AAV21@HH@Z" PURGE="0" COMMENT="" />
    <EXPORT ORDINAL="1009" NAME="?predict@KalmanFilter@cv@@QAEABVMat@2@ABV32@@Z" PURGE="4" COMMENT="" />
    <EXPORT ORDINAL="1010" NAME="?proceed@FilterEngine@cv@@UAEHPBEHHPAEH@Z" PURGE="20" COMMENT="" />
    <EXPORT ORDINAL="1011" NAME="?projectPoints@cv@@YAXABVMat@1@0000AAV?$vector@V?$Point_@M@cv@@V?$allocator@V?$Point_@M@cv@@@std@@@std@@@Z" PURGE="0" COMMENT="" />
    <EXPORT ORDINAL="1012" NAME="?projectPoints@cv@@YAXABVMat@1@0000AAV?$vector@V?$Point_@M@cv@@V?$allocator@V?$Point_@M@cv@@@std@@@std@@AAV21@2222N@Z" PURGE="0" COMMENT="" />
    <EXPORT ORDINAL="1013" NAME="?ptr@Mat@cv@@QAEPAEH@Z" PURGE="4" COMMENT="" />
    <EXPORT ORDINAL="1014" NAME="?ptr@Mat@cv@@QBEPBEH@Z" PURGE="4" COMMENT="" />
    <EXPORT ORDINAL="1015" NAME="?ptr@MatND@cv@@QAEPAEH@Z" PURGE="4" COMMENT="" />
    <EXPORT ORDINAL="1016" NAME="?ptr@MatND@cv@@QAEPAEHH@Z" PURGE="8" COMMENT="" />
    <EXPORT ORDINAL="1017" NAME="?ptr@MatND@cv@@QAEPAEHHH@Z" PURGE="12" COMMENT="" />
    <EXPORT ORDINAL="1018" NAME="?ptr@MatND@cv@@QAEPAEPBH@Z" PURGE="4" COMMENT="" />
    <EXPORT ORDINAL="1019" NAME="?ptr@MatND@cv@@QBEPBEH@Z" PURGE="4" COMMENT="" />
    <EXPORT ORDINAL="1020" NAME="?ptr@MatND@cv@@QBEPBEHH@Z" PURGE="8" COMMENT="" />
    <EXPORT ORDINAL="1021" NAME="?ptr@MatND@cv@@QBEPBEHHH@Z" PURGE="12" COMMENT="" />
    <EXPORT ORDINAL="1022" NAME="?ptr@MatND@cv@@QBEPBEPBH@Z" PURGE="4" COMMENT="" />
    <EXPORT ORDINAL="1023" NAME="?push_back@?$Seq@UCvSURFPoint@@@cv@@QAEXABUCvSURFPoint@@@Z" PURGE="4" COMMENT="" />
    <EXPORT ORDINAL="1024" NAME="?pyrDown@cv@@YAXABVMat@1@AAV21@ABV?$Size_@H@1@@Z" PURGE="0" COMMENT="" />
    <EXPORT ORDINAL="1025" NAME="?pyrUp@cv@@YAXABVMat@1@AAV21@ABV?$Size_@H@1@@Z" PURGE="0" COMMENT="" />
    <EXPORT ORDINAL="1026" NAME="?read@CascadeClassifier@cv@@QAE_NABVFileNode@2@@Z" PURGE="4" COMMENT="" />
    <EXPORT ORDINAL="1027" NAME="?read@FeatureEvaluator@cv@@UAE_NABVFileNode@2@@Z" PURGE="4" COMMENT="" />
    <EXPORT ORDINAL="1028" NAME="?read@cv@@YAXABVFileNode@1@AAV?$vector@VKeyPoint@cv@@V?$allocator@VKeyPoint@cv@@@std@@@std@@@Z" PURGE="0" COMMENT="" />
    <EXPORT ORDINAL="1029" NAME="?readRaw@FileNode@cv@@QBEXABV?$basic_string@DU?$char_traits@D@std@@V?$allocator@D@2@@std@@PAEI@Z" PURGE="12" COMMENT="" />
    <EXPORT ORDINAL="1030" NAME="?release@?$Ptr@UCvFileStorage@@@cv@@QAEXXZ" PURGE="0" COMMENT="" />
    <EXPORT ORDINAL="1031" NAME="?release@?$Ptr@UCvHaarClassifierCascade@@@cv@@QAEXXZ" PURGE="0" COMMENT="" />
    <EXPORT ORDINAL="1032" NAME="?release@?$Ptr@UCvHistogram@@@cv@@QAEXXZ" PURGE="0" COMMENT="" />
    <EXPORT ORDINAL="1033" NAME="?release@?$Ptr@UCvMat@@@cv@@QAEXXZ" PURGE="0" COMMENT="" />
    <EXPORT ORDINAL="1034" NAME="?release@?$Ptr@UCvMemStorage@@@cv@@QAEXXZ" PURGE="0" COMMENT="" />
    <EXPORT ORDINAL="1035" NAME="?release@?$Ptr@UCvStereoBMState@@@cv@@QAEXXZ" PURGE="0" COMMENT="" />
    <EXPORT ORDINAL="1036" NAME="?release@?$Ptr@U_IplConvKernel@@@cv@@QAEXXZ" PURGE="0" COMMENT="" />
    <EXPORT ORDINAL="1037" NAME="?release@?$Ptr@V?$vector@UFeature@HaarEvaluator@cv@@V?$allocator@UFeature@HaarEvaluator@cv@@@std@@@std@@@cv@@QAEXXZ" PURGE="0" COMMENT="" />
    <EXPORT ORDINAL="1038" NAME="?release@?$Ptr@V?$vector@UFeature@LBPEvaluator@cv@@V?$allocator@UFeature@LBPEvaluator@cv@@@std@@@std@@@cv@@QAEXXZ" PURGE="0" COMMENT="" />
    <EXPORT ORDINAL="1039" NAME="?release@?$Ptr@VBaseColumnFilter@cv@@@cv@@QAEXXZ" PURGE="0" COMMENT="" />
    <EXPORT ORDINAL="1040" NAME="?release@?$Ptr@VBaseFilter@cv@@@cv@@QAEXXZ" PURGE="0" COMMENT="" />
    <EXPORT ORDINAL="1041" NAME="?release@?$Ptr@VBaseRowFilter@cv@@@cv@@QAEXXZ" PURGE="0" COMMENT="" />
    <EXPORT ORDINAL="1042" NAME="?release@?$Ptr@VCvPriorityQueueFloat@@@cv@@QAEXXZ" PURGE="0" COMMENT="" />
    <EXPORT ORDINAL="1043" NAME="?release@?$Ptr@VFeatureEvaluator@cv@@@cv@@QAEXXZ" PURGE="0" COMMENT="" />
    <EXPORT ORDINAL="1044" NAME="?release@?$Ptr@VFilterEngine@cv@@@cv@@QAEXXZ" PURGE="0" COMMENT="" />
    <EXPORT ORDINAL="1045" NAME="?release@Mat@cv@@QAEXXZ" PURGE="0" COMMENT="" />
    <EXPORT ORDINAL="1046" NAME="?release@MatND@cv@@QAEXXZ" PURGE="0" COMMENT="" />
    <EXPORT ORDINAL="1047" NAME="?release@SparseMat@cv@@QAEXXZ" PURGE="0" COMMENT="" />
    <EXPORT ORDINAL="1048" NAME="?remainingInputRows@FilterEngine@cv@@QBEHXZ" PURGE="0" COMMENT="" />
    <EXPORT ORDINAL="1049" NAME="?remainingOutputRows@FilterEngine@cv@@QBEHXZ" PURGE="0" COMMENT="" />
    <EXPORT ORDINAL="1050" NAME="?remap@cv@@YAXABVMat@1@AAV21@00HHABV?$Scalar_@N@1@@Z" PURGE="0" COMMENT="" />
    <EXPORT ORDINAL="1051" NAME="?reprojectImageTo3D@cv@@YAXABVMat@1@AAV21@0_N@Z" PURGE="0" COMMENT="" />
    <EXPORT ORDINAL="1052" NAME="?reset@BaseColumnFilter@cv@@UAEXXZ" PURGE="0" COMMENT="" />
    <EXPORT ORDINAL="1053" NAME="?reset@BaseFilter@cv@@UAEXXZ" PURGE="0" COMMENT="" />
    <EXPORT ORDINAL="1054" NAME="?resize@cv@@YAXABVMat@1@AAV21@V?$Size_@H@1@NNH@Z" PURGE="0" COMMENT="" />
    <EXPORT ORDINAL="1055" NAME="?row@Mat@cv@@QBE?AV12@H@Z" PURGE="8" COMMENT="" />
    <EXPORT ORDINAL="1056" NAME="?rowRange@Mat@cv@@QBE?AV12@ABVRange@2@@Z" PURGE="8" COMMENT="" />
    <EXPORT ORDINAL="1057" NAME="?rowRange@Mat@cv@@QBE?AV12@HH@Z" PURGE="12" COMMENT="" />
    <EXPORT ORDINAL="1058" NAME="?runAt@CascadeClassifier@cv@@QAEHAAV?$Ptr@VFeatureEvaluator@cv@@@2@V?$Point_@H@2@@Z" PURGE="12" COMMENT="" />
    <EXPORT ORDINAL="1059" NAME="?seekEnd@SparseMatConstIterator@cv@@QAEXXZ" PURGE="0" COMMENT="" />
    <EXPORT ORDINAL="1060" NAME="?sepFilter2D@cv@@YAXABVMat@1@AAV21@H00V?$Point_@H@1@NH@Z" PURGE="0" COMMENT="" />
    <EXPORT ORDINAL="1061" NAME="?setImage@CascadeClassifier@cv@@QAE_NAAV?$Ptr@VFeatureEvaluator@cv@@@2@ABVMat@2@@Z" PURGE="8" COMMENT="" />
    <EXPORT ORDINAL="1062" NAME="?setImage@FeatureEvaluator@cv@@UAE_NABVMat@2@V?$Size_@H@2@@Z" PURGE="12" COMMENT="" />
    <EXPORT ORDINAL="1063" NAME="?setWindow@FeatureEvaluator@cv@@UAE_NV?$Point_@H@2@@Z" PURGE="8" COMMENT="" />
    <EXPORT ORDINAL="1064" NAME="?size@?$Seq@PAUCvSeq@@@cv@@QBEIXZ" PURGE="0" COMMENT="" />
    <EXPORT ORDINAL="1065" NAME="?size@?$Seq@UCvSURFPoint@@@cv@@QBEIXZ" PURGE="0" COMMENT="" />
    <EXPORT ORDINAL="1066" NAME="?size@?$Seq@UCvStarKeypoint@@@cv@@QBEIXZ" PURGE="0" COMMENT="" />
    <EXPORT ORDINAL="1067" NAME="?size@FileNode@cv@@QBEIXZ" PURGE="0" COMMENT="" />
    <EXPORT ORDINAL="1068" NAME="?size@Mat@cv@@QBE?AV?$Size_@H@2@XZ" PURGE="4" COMMENT="" />
    <EXPORT ORDINAL="1069" NAME="?size@Range@cv@@QBEHXZ" PURGE="0" COMMENT="" />
    <EXPORT ORDINAL="1070" NAME="?size@SparseMat@cv@@QBEHH@Z" PURGE="4" COMMENT="" />
    <EXPORT ORDINAL="1071" NAME="?size@SparseMat@cv@@QBEPBHXZ" PURGE="0" COMMENT="" />
    <EXPORT ORDINAL="1072" NAME="?solvePnP@cv@@YAXABVMat@1@000AAV21@1_N@Z" PURGE="0" COMMENT="" />
    <EXPORT ORDINAL="1073" NAME="?solveZ@SVD@cv@@SAXABVMat@2@AAV32@@Z" PURGE="0" COMMENT="" />
    <EXPORT ORDINAL="1074" NAME="?start@FilterEngine@cv@@UAEHABVMat@2@ABV?$Rect_@H@2@_NH@Z" PURGE="16" COMMENT="" />
    <EXPORT ORDINAL="1075" NAME="?start@FilterEngine@cv@@UAEHV?$Size_@H@2@V?$Rect_@H@2@H@Z" PURGE="28" COMMENT="" />
    <EXPORT ORDINAL="1076" NAME="?step1@Mat@cv@@QBEIXZ" PURGE="0" COMMENT="" />
    <EXPORT ORDINAL="1077" NAME="?step1@MatND@cv@@QBEIH@Z" PURGE="4" COMMENT="" />
    <EXPORT ORDINAL="1078" NAME="?step@CvLevMarq@@QAEXXZ" PURGE="0" COMMENT="" />
    <EXPORT ORDINAL="1079" NAME="?stereoCalibrate@cv@@YANABV?$vector@V?$vector@V?$Point3_@M@cv@@V?$allocator@V?$Point3_@M@cv@@@std@@@std@@V?$allocator@V?$vector@V?$Point3_@M@cv@@V?$allocator@V?$Point3_@M@cv@@@std@@@std@@@2@@std@@ABV?$vector@V?$vector@V?$Point_@M@cv@@V?$allocator@V?$Point_@M@cv@@@std@@@std@@V?$allocator@V?$vector@V?$Point_@M@cv@@V?$allocator@V?$Point_@M@cv@@@std@@@std@@@2@@3@1AAVMat@1@222V?$Size_@H@1@2222VTermCriteria@1@H@Z" PURGE="0" COMMENT="" />
    <EXPORT ORDINAL="1080" NAME="?stereoRectify@cv@@YAXABVMat@1@000V?$Size_@H@1@00AAV21@2222H@Z" PURGE="0" COMMENT="" />
    <EXPORT ORDINAL="1081" NAME="?stereoRectify@cv@@YAXABVMat@1@000V?$Size_@H@1@00AAV21@2222N1PAV?$Rect_@H@1@3H@Z" PURGE="0" COMMENT="" />
    <EXPORT ORDINAL="1082" NAME="?stereoRectifyUncalibrated@cv@@YA_NABVMat@1@00V?$Size_@H@1@AAV21@2N@Z" PURGE="0" COMMENT="" />
    <EXPORT ORDINAL="1083" NAME="?t@?$Mat_@N@cv@@QBE?AV?$MatExpr_@V?$MatExpr_Op2_@VMat@cv@@NV12@V?$MatOp_T_@VMat@cv@@@2@@cv@@VMat@2@@2@XZ" PURGE="4" COMMENT="" />
    <EXPORT ORDINAL="1084" NAME="?t@Mat@cv@@QBE?AV?$MatExpr_@V?$MatExpr_Op2_@VMat@cv@@NV12@V?$MatOp_T_@VMat@cv@@@2@@cv@@VMat@2@@2@XZ" PURGE="4" COMMENT="" />
    <EXPORT ORDINAL="1085" NAME="?threshold@cv@@YANABVMat@1@AAV21@NNH@Z" PURGE="0" COMMENT="" />
    <EXPORT ORDINAL="1086" NAME="?type@?$Mat_@N@cv@@QBEHXZ" PURGE="0" COMMENT="" />
    <EXPORT ORDINAL="1087" NAME="?type@FileNode@cv@@QBEHXZ" PURGE="0" COMMENT="" />
    <EXPORT ORDINAL="1088" NAME="?type@Mat@cv@@QBEHXZ" PURGE="0" COMMENT="" />
    <EXPORT ORDINAL="1089" NAME="?type@MatND@cv@@QBEHXZ" PURGE="0" COMMENT="" />
    <EXPORT ORDINAL="1090" NAME="?type@SparseMat@cv@@QBEHXZ" PURGE="0" COMMENT="" />
    <EXPORT ORDINAL="1091" NAME="?undistort@cv@@YAXABVMat@1@AAV21@000@Z" PURGE="0" COMMENT="" />
    <EXPORT ORDINAL="1092" NAME="?undistortPoints@cv@@YAXABVMat@1@AAV21@0000@Z" PURGE="0" COMMENT="" />
    <EXPORT ORDINAL="1093" NAME="?undistortPoints@cv@@YAXABVMat@1@AAV?$vector@V?$Point_@M@cv@@V?$allocator@V?$Point_@M@cv@@@std@@@std@@0000@Z" PURGE="0" COMMENT="" />
    <EXPORT ORDINAL="1094" NAME="?uniform@RNG@cv@@QAEHHH@Z" PURGE="8" COMMENT="" />
    <EXPORT ORDINAL="1095" NAME="?uniform@RNG@cv@@QAEMMM@Z" PURGE="8" COMMENT="" />
    <EXPORT ORDINAL="1096" NAME="?uniform@RNG@cv@@QAENNN@Z" PURGE="16" COMMENT="" />
    <EXPORT ORDINAL="1097" NAME="?update@CvLevMarq@@QAE_NAAPBUCvMat@@AAPAU2@1@Z" PURGE="12" COMMENT="" />
    <EXPORT ORDINAL="1098" NAME="?updateAlt@CvLevMarq@@QAE_NAAPBUCvMat@@AAPAU2@1AAPAN@Z" PURGE="16" COMMENT="" />
    <EXPORT ORDINAL="1099" NAME="?updateMotionHistory@cv@@YAXABVMat@1@AAV21@NN@Z" PURGE="0" COMMENT="" />
    <EXPORT ORDINAL="1100" NAME="?validateDisparity@cv@@YAXAAVMat@1@ABV21@HHH@Z" PURGE="0" COMMENT="" />
    <EXPORT ORDINAL="1101" NAME="?warpAffine@cv@@YAXABVMat@1@AAV21@0V?$Size_@H@1@HHABV?$Scalar_@N@1@@Z" PURGE="0" COMMENT="" />
    <EXPORT ORDINAL="1102" NAME="?warpPerspective@cv@@YAXABVMat@1@AAV21@0V?$Size_@H@1@HHABV?$Scalar_@N@1@@Z" PURGE="0" COMMENT="" />
    <EXPORT ORDINAL="1103" NAME="?watershed@cv@@YAXABVMat@1@AAV21@@Z" PURGE="0" COMMENT="" />
    <EXPORT ORDINAL="1104" NAME="?what@Exception@cv@@UBEPBDXZ" PURGE="-1" COMMENT="" />
    <EXPORT ORDINAL="1105" NAME="?write@cv@@YAXAAVFileStorage@1@ABV?$basic_string@DU?$char_traits@D@std@@V?$allocator@D@2@@std@@ABV?$vector@VKeyPoint@cv@@V?$allocator@VKeyPoint@cv@@@std@@@4@@Z" PURGE="0" COMMENT="" />
    <EXPORT ORDINAL="1106" NAME="?zeros@?$Mat_@N@cv@@SA?AV?$MatExpr_@V?$MatExpr_Op4_@V?$Size_@H@cv@@HV?$Scalar_@N@2@HVMat@2@V?$MatOp_Set_@VMat@cv@@@2@@cv@@VMat@2@@2@HH@Z" PURGE="0" COMMENT="" />
    <EXPORT ORDINAL="1107" NAME="?zeros@Mat@cv@@SA?AV?$MatExpr_@V?$MatExpr_Op4_@V?$Size_@H@cv@@HV?$Scalar_@N@2@HVMat@2@V?$MatOp_Set_@VMat@cv@@@2@@cv@@VMat@2@@2@HHH@Z" PURGE="0" COMMENT="" />
    <EXPORT ORDINAL="1108" NAME="?zeros@Mat@cv@@SA?AV?$MatExpr_@V?$MatExpr_Op4_@V?$Size_@H@cv@@HV?$Scalar_@N@2@HVMat@2@V?$MatOp_Set_@VMat@cv@@@2@@cv@@VMat@2@@2@V?$Size_@H@2@H@Z" PURGE="0" COMMENT="" />
    <EXPORT ORDINAL="1109" NAME="LSHSize" PURGE="0" COMMENT="" />
    <EXPORT ORDINAL="1110" NAME="cv2DRotationMatrix" PURGE="0" COMMENT="" />
    <EXPORT ORDINAL="1111" NAME="cvAcc" PURGE="0" COMMENT="" />
    <EXPORT ORDINAL="1112" NAME="cvAdaptiveThreshold" PURGE="0" COMMENT="" />
    <EXPORT ORDINAL="1113" NAME="cvApproxChains" PURGE="0" COMMENT="" />
    <EXPORT ORDINAL="1114" NAME="cvApproxPoly" PURGE="0" COMMENT="" />
    <EXPORT ORDINAL="1115" NAME="cvArcLength" PURGE="0" COMMENT="" />
    <EXPORT ORDINAL="1116" NAME="cvBoundingRect" PURGE="0" COMMENT="" />
    <EXPORT ORDINAL="1117" NAME="cvBoxPoints" PURGE="0" COMMENT="" />
    <EXPORT ORDINAL="1118" NAME="cvCalcAffineFlowPyrLK" PURGE="0" COMMENT="" />
    <EXPORT ORDINAL="1119" NAME="cvCalcArrBackProject" PURGE="0" COMMENT="" />
    <EXPORT ORDINAL="1120" NAME="cvCalcArrBackProjectPatch" PURGE="0" COMMENT="" />
    <EXPORT ORDINAL="1121" NAME="cvCalcArrHist" PURGE="0" COMMENT="" />
    <EXPORT ORDINAL="1122" NAME="cvCalcBayesianProb" PURGE="0" COMMENT="" />
    <EXPORT ORDINAL="1123" NAME="cvCalcEMD2" PURGE="0" COMMENT="" />
    <EXPORT ORDINAL="1124" NAME="cvCalcGlobalOrientation" PURGE="0" COMMENT="" />
    <EXPORT ORDINAL="1125" NAME="cvCalcMatMulDeriv" PURGE="0" COMMENT="" />
    <EXPORT ORDINAL="1126" NAME="cvCalcMotionGradient" PURGE="0" COMMENT="" />
    <EXPORT ORDINAL="1127" NAME="cvCalcOpticalFlowBM" PURGE="0" COMMENT="" />
    <EXPORT ORDINAL="1128" NAME="cvCalcOpticalFlowFarneback" PURGE="0" COMMENT="" />
    <EXPORT ORDINAL="1129" NAME="cvCalcOpticalFlowHS" PURGE="0" COMMENT="" />
    <EXPORT ORDINAL="1130" NAME="cvCalcOpticalFlowLK" PURGE="0" COMMENT="" />
    <EXPORT ORDINAL="1131" NAME="cvCalcOpticalFlowPyrLK" PURGE="0" COMMENT="" />
    <EXPORT ORDINAL="1132" NAME="cvCalcProbDensity" PURGE="0" COMMENT="" />
    <EXPORT ORDINAL="1133" NAME="cvCalcSubdivVoronoi2D" PURGE="0" COMMENT="" />
    <EXPORT ORDINAL="1134" NAME="cvCalibrateCamera2" PURGE="0" COMMENT="" />
    <EXPORT ORDINAL="1135" NAME="cvCalibrationMatrixValues" PURGE="0" COMMENT="" />
    <EXPORT ORDINAL="1136" NAME="cvCamShift" PURGE="0" COMMENT="" />
    <EXPORT ORDINAL="1137" NAME="cvCanny" PURGE="0" COMMENT="" />
    <EXPORT ORDINAL="1138" NAME="cvCheckChessboard" PURGE="0" COMMENT="" />
    <EXPORT ORDINAL="1139" NAME="cvCheckContourConvexity" PURGE="0" COMMENT="" />
    <EXPORT ORDINAL="1140" NAME="cvClearHist" PURGE="0" COMMENT="" />
    <EXPORT ORDINAL="1141" NAME="cvClearSubdivVoronoi2D" PURGE="0" COMMENT="" />
    <EXPORT ORDINAL="1142" NAME="cvCompareHist" PURGE="0" COMMENT="" />
    <EXPORT ORDINAL="1143" NAME="cvComposeRT" PURGE="0" COMMENT="" />
    <EXPORT ORDINAL="1144" NAME="cvComputeCorrespondEpilines" PURGE="0" COMMENT="" />
    <EXPORT ORDINAL="1145" NAME="cvContourArea" PURGE="0" COMMENT="" />
    <EXPORT ORDINAL="1146" NAME="cvContourFromContourTree" PURGE="0" COMMENT="" />
    <EXPORT ORDINAL="1147" NAME="cvConvertMaps" PURGE="0" COMMENT="" />
    <EXPORT ORDINAL="1148" NAME="cvConvertPointsHomogeneous" PURGE="0" COMMENT="" />
    <EXPORT ORDINAL="1149" NAME="cvConvexHull2" PURGE="0" COMMENT="" />
    <EXPORT ORDINAL="1150" NAME="cvConvexityDefects" PURGE="0" COMMENT="" />
    <EXPORT ORDINAL="1151" NAME="cvCopyHist" PURGE="0" COMMENT="" />
    <EXPORT ORDINAL="1152" NAME="cvCopyMakeBorder" PURGE="0" COMMENT="" />
    <EXPORT ORDINAL="1153" NAME="cvCornerEigenValsAndVecs" PURGE="0" COMMENT="" />
    <EXPORT ORDINAL="1154" NAME="cvCornerHarris" PURGE="0" COMMENT="" />
    <EXPORT ORDINAL="1155" NAME="cvCornerMinEigenVal" PURGE="0" COMMENT="" />
    <EXPORT ORDINAL="1156" NAME="cvCorrectMatches" PURGE="0" COMMENT="" />
    <EXPORT ORDINAL="1157" NAME="cvCreateContourTree" PURGE="0" COMMENT="" />
    <EXPORT ORDINAL="1158" NAME="cvCreateHist" PURGE="0" COMMENT="" />
    <EXPORT ORDINAL="1159" NAME="cvCreateKDTree" PURGE="0" COMMENT="" />
    <EXPORT ORDINAL="1160" NAME="cvCreateKalman" PURGE="0" COMMENT="" />
    <EXPORT ORDINAL="1161" NAME="cvCreateLSH" PURGE="0" COMMENT="" />
    <EXPORT ORDINAL="1162" NAME="cvCreateMemoryLSH" PURGE="0" COMMENT="" />
    <EXPORT ORDINAL="1163" NAME="cvCreatePOSITObject" PURGE="0" COMMENT="" />
    <EXPORT ORDINAL="1164" NAME="cvCreatePyramid" PURGE="0" COMMENT="" />
    <EXPORT ORDINAL="1165" NAME="cvCreateSpillTree" PURGE="0" COMMENT="" />
    <EXPORT ORDINAL="1166" NAME="cvCreateStereoBMState" PURGE="0" COMMENT="" />
    <EXPORT ORDINAL="1167" NAME="cvCreateStereoGCState" PURGE="0" COMMENT="" />
    <EXPORT ORDINAL="1168" NAME="cvCreateStructuringElementEx" PURGE="0" COMMENT="" />
    <EXPORT ORDINAL="1169" NAME="cvCreateSubdiv2D" PURGE="0" COMMENT="" />
    <EXPORT ORDINAL="1170" NAME="cvCvtColor" PURGE="0" COMMENT="" />
    <EXPORT ORDINAL="1171" NAME="cvDecomposeProjectionMatrix" PURGE="0" COMMENT="" />
    <EXPORT ORDINAL="1172" NAME="cvDilate" PURGE="0" COMMENT="" />
    <EXPORT ORDINAL="1173" NAME="cvDistTransform" PURGE="0" COMMENT="" />
    <EXPORT ORDINAL="1174" NAME="cvDrawChessboardCorners" PURGE="0" COMMENT="" />
    <EXPORT ORDINAL="1175" NAME="cvEndFindContours" PURGE="0" COMMENT="" />
    <EXPORT ORDINAL="1176" NAME="cvEqualizeHist" PURGE="0" COMMENT="" />
    <EXPORT ORDINAL="1177" NAME="cvErode" PURGE="0" COMMENT="" />
    <EXPORT ORDINAL="1178" NAME="cvEstimateRigidTransform" PURGE="0" COMMENT="" />
    <EXPORT ORDINAL="1179" NAME="cvExtractMSER" PURGE="0" COMMENT="" />
    <EXPORT ORDINAL="1180" NAME="cvExtractSURF" PURGE="0" COMMENT="" />
    <EXPORT ORDINAL="1181" NAME="cvFilter2D" PURGE="0" COMMENT="" />
    <EXPORT ORDINAL="1182" NAME="cvFindChessboardCorners" PURGE="0" COMMENT="" />
    <EXPORT ORDINAL="1183" NAME="cvFindContours" PURGE="0" COMMENT="" />
    <EXPORT ORDINAL="1184" NAME="cvFindCornerSubPix" PURGE="0" COMMENT="" />
    <EXPORT ORDINAL="1185" NAME="cvFindExtrinsicCameraParams2" PURGE="0" COMMENT="" />
    <EXPORT ORDINAL="1186" NAME="cvFindFeatures" PURGE="0" COMMENT="" />
    <EXPORT ORDINAL="1187" NAME="cvFindFeaturesBoxed" PURGE="0" COMMENT="" />
    <EXPORT ORDINAL="1188" NAME="cvFindFundamentalMat" PURGE="0" COMMENT="" />
    <EXPORT ORDINAL="1189" NAME="cvFindHomography" PURGE="0" COMMENT="" />
    <EXPORT ORDINAL="1190" NAME="cvFindNearestPoint2D" PURGE="0" COMMENT="" />
    <EXPORT ORDINAL="1191" NAME="cvFindNextContour" PURGE="0" COMMENT="" />
    <EXPORT ORDINAL="1192" NAME="cvFindStereoCorrespondenceBM" PURGE="0" COMMENT="" />
    <EXPORT ORDINAL="1193" NAME="cvFindStereoCorrespondenceGC" PURGE="0" COMMENT="" />
    <EXPORT ORDINAL="1194" NAME="cvFitEllipse2" PURGE="0" COMMENT="" />
    <EXPORT ORDINAL="1195" NAME="cvFitLine" PURGE="0" COMMENT="" />
    <EXPORT ORDINAL="1196" NAME="cvFloodFill" PURGE="0" COMMENT="" />
    <EXPORT ORDINAL="1197" NAME="cvGetAffineTransform" PURGE="0" COMMENT="" />
    <EXPORT ORDINAL="1198" NAME="cvGetCentralMoment" PURGE="0" COMMENT="" />
    <EXPORT ORDINAL="1199" NAME="cvGetHuMoments" PURGE="0" COMMENT="" />
    <EXPORT ORDINAL="1200" NAME="cvGetMinMaxHistValue" PURGE="0" COMMENT="" />
    <EXPORT ORDINAL="1201" NAME="cvGetNormalizedCentralMoment" PURGE="0" COMMENT="" />
    <EXPORT ORDINAL="1202" NAME="cvGetOptimalNewCameraMatrix" PURGE="0" COMMENT="" />
    <EXPORT ORDINAL="1203" NAME="cvGetPerspectiveTransform" PURGE="0" COMMENT="" />
    <EXPORT ORDINAL="1204" NAME="cvGetQuadrangleSubPix" PURGE="0" COMMENT="" />
    <EXPORT ORDINAL="1205" NAME="cvGetRectSubPix" PURGE="0" COMMENT="" />
    <EXPORT ORDINAL="1206" NAME="cvGetSpatialMoment" PURGE="0" COMMENT="" />
    <EXPORT ORDINAL="1207" NAME="cvGetStarKeypoints" PURGE="0" COMMENT="" />
    <EXPORT ORDINAL="1208" NAME="cvGetValidDisparityROI" PURGE="0" COMMENT="" />
    <EXPORT ORDINAL="1209" NAME="cvGoodFeaturesToTrack" PURGE="0" COMMENT="" />
    <EXPORT ORDINAL="1210" NAME="cvHaarDetectObjects" PURGE="0" COMMENT="" />
    <EXPORT ORDINAL="1211" NAME="cvHoughCircles" PURGE="0" COMMENT="" />
    <EXPORT ORDINAL="1212" NAME="cvHoughLines2" PURGE="0" COMMENT="" />
    <EXPORT ORDINAL="1213" NAME="cvInitIntrinsicParams2D" PURGE="0" COMMENT="" />
    <EXPORT ORDINAL="1214" NAME="cvInitSubdivDelaunay2D" PURGE="0" COMMENT="" />
    <EXPORT ORDINAL="1215" NAME="cvInitUndistortMap" PURGE="0" COMMENT="" />
    <EXPORT ORDINAL="1216" NAME="cvInitUndistortRectifyMap" PURGE="0" COMMENT="" />
    <EXPORT ORDINAL="1217" NAME="cvInpaint" PURGE="0" COMMENT="" />
    <EXPORT ORDINAL="1218" NAME="cvIntegral" PURGE="0" COMMENT="" />
    <EXPORT ORDINAL="1219" NAME="cvKalmanCorrect" PURGE="0" COMMENT="" />
    <EXPORT ORDINAL="1220" NAME="cvKalmanPredict" PURGE="0" COMMENT="" />
    <EXPORT ORDINAL="1221" NAME="cvLSHAdd" PURGE="0" COMMENT="" />
    <EXPORT ORDINAL="1222" NAME="cvLSHQuery" PURGE="0" COMMENT="" />
    <EXPORT ORDINAL="1223" NAME="cvLSHRemove" PURGE="0" COMMENT="" />
    <EXPORT ORDINAL="1224" NAME="cvLaplace" PURGE="0" COMMENT="" />
    <EXPORT ORDINAL="1225" NAME="cvLinearPolar" PURGE="0" COMMENT="" />
    <EXPORT ORDINAL="1226" NAME="cvLoadHaarClassifierCascade" PURGE="0" COMMENT="" />
    <EXPORT ORDINAL="1227" NAME="cvLogPolar" PURGE="0" COMMENT="" />
    <EXPORT ORDINAL="1228" NAME="cvMSERParams" PURGE="0" COMMENT="" />
    <EXPORT ORDINAL="1229" NAME="cvMakeHistHeaderForArray" PURGE="0" COMMENT="" />
    <EXPORT ORDINAL="1230" NAME="cvMatchContourTrees" PURGE="0" COMMENT="" />
    <EXPORT ORDINAL="1231" NAME="cvMatchShapes" PURGE="0" COMMENT="" />
    <EXPORT ORDINAL="1232" NAME="cvMatchTemplate" PURGE="0" COMMENT="" />
    <EXPORT ORDINAL="1233" NAME="cvMaxRect" PURGE="0" COMMENT="" />
    <EXPORT ORDINAL="1234" NAME="cvMeanShift" PURGE="0" COMMENT="" />
    <EXPORT ORDINAL="1235" NAME="cvMinAreaRect2" PURGE="0" COMMENT="" />
    <EXPORT ORDINAL="1236" NAME="cvMinEnclosingCircle" PURGE="0" COMMENT="" />
    <EXPORT ORDINAL="1237" NAME="cvMoments" PURGE="0" COMMENT="" />
    <EXPORT ORDINAL="1238" NAME="cvMorphologyEx" PURGE="0" COMMENT="" />
    <EXPORT ORDINAL="1239" NAME="cvMultiplyAcc" PURGE="0" COMMENT="" />
    <EXPORT ORDINAL="1240" NAME="cvNormalizeHist" PURGE="0" COMMENT="" />
    <EXPORT ORDINAL="1241" NAME="cvPOSIT" PURGE="0" COMMENT="" />
    <EXPORT ORDINAL="1242" NAME="cvPointPolygonTest" PURGE="0" COMMENT="" />
    <EXPORT ORDINAL="1243" NAME="cvPointSeqFromMat" PURGE="0" COMMENT="" />
    <EXPORT ORDINAL="1244" NAME="cvPreCornerDetect" PURGE="0" COMMENT="" />
    <EXPORT ORDINAL="1245" NAME="cvProjectPoints2" PURGE="0" COMMENT="" />
    <EXPORT ORDINAL="1246" NAME="cvPyrDown" PURGE="0" COMMENT="" />
    <EXPORT ORDINAL="1247" NAME="cvPyrMeanShiftFiltering" PURGE="0" COMMENT="" />
    <EXPORT ORDINAL="1248" NAME="cvPyrSegmentation" PURGE="0" COMMENT="" />
    <EXPORT ORDINAL="1249" NAME="cvPyrUp" PURGE="0" COMMENT="" />
    <EXPORT ORDINAL="1250" NAME="cvRANSACUpdateNumIters" PURGE="0" COMMENT="" />
    <EXPORT ORDINAL="1251" NAME="cvRQDecomp3x3" PURGE="0" COMMENT="" />
    <EXPORT ORDINAL="1252" NAME="cvReadChainPoint" PURGE="0" COMMENT="" />
    <EXPORT ORDINAL="1253" NAME="cvReleaseFeatureTree" PURGE="0" COMMENT="" />
    <EXPORT ORDINAL="1254" NAME="cvReleaseHaarClassifierCascade" PURGE="0" COMMENT="" />
    <EXPORT ORDINAL="1255" NAME="cvReleaseHist" PURGE="0" COMMENT="" />
    <EXPORT ORDINAL="1256" NAME="cvReleaseKalman" PURGE="0" COMMENT="" />
    <EXPORT ORDINAL="1257" NAME="cvReleaseLSH" PURGE="0" COMMENT="" />
    <EXPORT ORDINAL="1258" NAME="cvReleasePOSITObject" PURGE="0" COMMENT="" />
    <EXPORT ORDINAL="1259" NAME="cvReleasePyramid" PURGE="0" COMMENT="" />
    <EXPORT ORDINAL="1260" NAME="cvReleaseStereoBMState" PURGE="0" COMMENT="" />
    <EXPORT ORDINAL="1261" NAME="cvReleaseStereoGCState" PURGE="0" COMMENT="" />
    <EXPORT ORDINAL="1262" NAME="cvReleaseStructuringElement" PURGE="0" COMMENT="" />
    <EXPORT ORDINAL="1263" NAME="cvRemap" PURGE="0" COMMENT="" />
    <EXPORT ORDINAL="1264" NAME="cvReprojectImageTo3D" PURGE="0" COMMENT="" />
    <EXPORT ORDINAL="1265" NAME="cvResize" PURGE="0" COMMENT="" />
    <EXPORT ORDINAL="1266" NAME="cvRodrigues2" PURGE="0" COMMENT="" />
    <EXPORT ORDINAL="1267" NAME="cvRunHaarClassifierCascade" PURGE="0" COMMENT="" />
    <EXPORT ORDINAL="1268" NAME="cvRunningAvg" PURGE="0" COMMENT="" />
    <EXPORT ORDINAL="1269" NAME="cvSURFParams" PURGE="0" COMMENT="" />
    <EXPORT ORDINAL="1270" NAME="cvSampleLine" PURGE="0" COMMENT="" />
    <EXPORT ORDINAL="1271" NAME="cvSegmentMotion" PURGE="0" COMMENT="" />
    <EXPORT ORDINAL="1272" NAME="cvSetHistBinRanges" PURGE="0" COMMENT="" />
    <EXPORT ORDINAL="1273" NAME="cvSetImagesForHaarClassifierCascade" PURGE="0" COMMENT="" />
    <EXPORT ORDINAL="1274" NAME="cvSmooth" PURGE="0" COMMENT="" />
    <EXPORT ORDINAL="1275" NAME="cvSnakeImage" PURGE="0" COMMENT="" />
    <EXPORT ORDINAL="1276" NAME="cvSobel" PURGE="0" COMMENT="" />
    <EXPORT ORDINAL="1277" NAME="cvSquareAcc" PURGE="0" COMMENT="" />
    <EXPORT ORDINAL="1278" NAME="cvStartFindContours" PURGE="0" COMMENT="" />
    <EXPORT ORDINAL="1279" NAME="cvStartReadChainPoints" PURGE="0" COMMENT="" />
    <EXPORT ORDINAL="1280" NAME="cvStereoCalibrate" PURGE="0" COMMENT="" />
    <EXPORT ORDINAL="1281" NAME="cvStereoRectify" PURGE="0" COMMENT="" />
    <EXPORT ORDINAL="1282" NAME="cvStereoRectifyUncalibrated" PURGE="0" COMMENT="" />
    <EXPORT ORDINAL="1283" NAME="cvSubdiv2DLocate" PURGE="0" COMMENT="" />
    <EXPORT ORDINAL="1284" NAME="cvSubdivDelaunay2DInsert" PURGE="0" COMMENT="" />
    <EXPORT ORDINAL="1285" NAME="cvSubstituteContour" PURGE="0" COMMENT="" />
    <EXPORT ORDINAL="1286" NAME="cvThreshHist" PURGE="0" COMMENT="" />
    <EXPORT ORDINAL="1287" NAME="cvThreshold" PURGE="0" COMMENT="" />
    <EXPORT ORDINAL="1288" NAME="cvTriangulatePoints" PURGE="0" COMMENT="" />
    <EXPORT ORDINAL="1289" NAME="cvUndistort2" PURGE="0" COMMENT="" />
    <EXPORT ORDINAL="1290" NAME="cvUndistortPoints" PURGE="0" COMMENT="" />
    <EXPORT ORDINAL="1291" NAME="cvUpdateMotionHistory" PURGE="0" COMMENT="" />
    <EXPORT ORDINAL="1292" NAME="cvValidateDisparity" PURGE="0" COMMENT="" />
    <EXPORT ORDINAL="1293" NAME="cvWarpAffine" PURGE="0" COMMENT="" />
    <EXPORT ORDINAL="1294" NAME="cvWarpPerspective" PURGE="0" COMMENT="" />
    <EXPORT ORDINAL="1295" NAME="cvWatershed" PURGE="0" COMMENT="" />
</LIBRARY>

