<?xml version="1.0" encoding="UTF-8"?>
<LIBRARY NAME="dec2lha.dll" PATH="/DLLArchive/etc/DEC2LHA.DLL" DATE="Fri Jul 03 12:30:46 PDT 2020" VERSION="3.02.08.32">
    <EXPORT ORDINAL="1" NAME="?DecDeleteEngine@@YAJPAVIDecEngine@@@Z" PURGE="0" COMMENT="" />
    <EXPORT ORDINAL="2" NAME="?DecDeleteLHAEngine@@YAJPAVIDecEngine@@@Z" PURGE="0" COMMENT="" />
    <EXPORT ORDINAL="3" NAME="?DecNewEngine@@YAJPAPAVIDecEngine@@@Z" PURGE="0" COMMENT="" />
    <EXPORT ORDINAL="4" NAME="?DecNewLHAEngine@@YAJPAPAVIDecEngine@@@Z" PURGE="0" COMMENT="" />
    <EXPORT ORDINAL="5" NAME="?LIST_Append@@YGIPAPAXPAX@Z" PURGE="8" COMMENT="" />
    <EXPORT ORDINAL="6" NAME="?LIST_BFind@@YGPAXPAXW4LIST_DTYPE@@I0PAI@Z" PURGE="20" COMMENT="" />
    <EXPORT ORDINAL="7" NAME="?LIST_Delete@@YG_NPAXI@Z" PURGE="8" COMMENT="" />
    <EXPORT ORDINAL="8" NAME="?LIST_Free@@YG_NPAX@Z" PURGE="4" COMMENT="" />
    <EXPORT ORDINAL="9" NAME="?LIST_GetCount@@YGIPAX@Z" PURGE="4" COMMENT="" />
    <EXPORT ORDINAL="10" NAME="?LIST_GetCurrentItem@@YGPAXPAX@Z" PURGE="4" COMMENT="" />
    <EXPORT ORDINAL="11" NAME="?LIST_GetFirstItem@@YGPAXPAX@Z" PURGE="4" COMMENT="" />
    <EXPORT ORDINAL="12" NAME="?LIST_GetNextItem@@YGPAXPAX@Z" PURGE="4" COMMENT="" />
    <EXPORT ORDINAL="13" NAME="?LIST_Insert@@YGIPAPAXPAXI@Z" PURGE="12" COMMENT="" />
    <EXPORT ORDINAL="14" NAME="?LIST_IsValid@@YG_NPAX@Z" PURGE="4" COMMENT="" />
    <EXPORT ORDINAL="15" NAME="?LIST_LFind@@YGPAXPAXW4LIST_DTYPE@@I0PAI@Z" PURGE="20" COMMENT="" />
    <EXPORT ORDINAL="16" NAME="?LIST_Malloc@@YGPAXII@Z" PURGE="8" COMMENT="" />
    <EXPORT ORDINAL="17" NAME="?LIST_New@@YGPAXPAPAX@Z" PURGE="4" COMMENT="" />
    <EXPORT ORDINAL="18" NAME="?LIST_Realloc@@YGPAXPAXI@Z" PURGE="8" COMMENT="" />
    <EXPORT ORDINAL="19" NAME="?LIST_SetCurrentItem@@YGPAXPAXI@Z" PURGE="8" COMMENT="" />
    <EXPORT ORDINAL="20" NAME="?ZipPack@@YGJPAX@Z" PURGE="4" COMMENT="" />
</LIBRARY>

