<?xml version="1.0" encoding="UTF-8"?>
<LIBRARY NAME="dicomdll.dll" PATH="/DLLArchive/etc/DICOMDLL.DLL" DATE="Fri Jul 03 12:31:12 PDT 2020" VERSION="2.1.2.352">
    <EXPORT ORDINAL="1" NAME="??0?$CArray@PAV?$CStringT@DV?$StrTraitMFC_DLL@DV?$ChTraitsCRT@D@ATL@@@@@ATL@@PAV12@@@QAE@XZ" PURGE="0" COMMENT="" />
    <EXPORT ORDINAL="2" NAME="??0?$CArray@PAVCResult@@PAV1@@@QAE@XZ" PURGE="0" COMMENT="" />
    <EXPORT ORDINAL="3" NAME="??0CBasicFilmBox@@QAE@XZ" PURGE="0" COMMENT="" />
    <EXPORT ORDINAL="4" NAME="??0CBasicFilmSession@@QAE@ABV0@@Z" PURGE="4" COMMENT="" />
    <EXPORT ORDINAL="5" NAME="??0CBasicFilmSession@@QAE@XZ" PURGE="0" COMMENT="" />
    <EXPORT ORDINAL="6" NAME="??0CBasicGrayscaleImageBox@@QAE@ABV0@@Z" PURGE="4" COMMENT="" />
    <EXPORT ORDINAL="7" NAME="??0CBasicGrayscaleImageBox@@QAE@XZ" PURGE="0" COMMENT="" />
    <EXPORT ORDINAL="8" NAME="??0CBasicRecordset@@QAE@PAVCDatabase@@@Z" PURGE="4" COMMENT="" />
    <EXPORT ORDINAL="9" NAME="??0CCRStorage@@QAE@AAV?$CStringT@DV?$StrTraitMFC_DLL@DV?$ChTraitsCRT@D@ATL@@@@@ATL@@@Z" PURGE="4" COMMENT="" />
    <EXPORT ORDINAL="10" NAME="??0CCRStorage@@QAE@ABV0@@Z" PURGE="4" COMMENT="" />
    <EXPORT ORDINAL="11" NAME="??0CCRStorage@@QAE@XZ" PURGE="0" COMMENT="" />
    <EXPORT ORDINAL="12" NAME="??0CCTStorage@@QAE@AAV?$CStringT@DV?$StrTraitMFC_DLL@DV?$ChTraitsCRT@D@ATL@@@@@ATL@@@Z" PURGE="4" COMMENT="" />
    <EXPORT ORDINAL="13" NAME="??0CCTStorage@@QAE@ABV0@@Z" PURGE="4" COMMENT="" />
    <EXPORT ORDINAL="14" NAME="??0CCTStorage@@QAE@XZ" PURGE="0" COMMENT="" />
    <EXPORT ORDINAL="15" NAME="??0CDXRStorage@@QAE@AAV?$CStringT@DV?$StrTraitMFC_DLL@DV?$ChTraitsCRT@D@ATL@@@@@ATL@@@Z" PURGE="4" COMMENT="" />
    <EXPORT ORDINAL="16" NAME="??0CDXRStorage@@QAE@ABV0@@Z" PURGE="4" COMMENT="" />
    <EXPORT ORDINAL="17" NAME="??0CDXRStorage@@QAE@XZ" PURGE="0" COMMENT="" />
    <EXPORT ORDINAL="18" NAME="??0CDXStorage@@QAE@AAV?$CStringT@DV?$StrTraitMFC_DLL@DV?$ChTraitsCRT@D@ATL@@@@@ATL@@@Z" PURGE="4" COMMENT="" />
    <EXPORT ORDINAL="19" NAME="??0CDXStorage@@QAE@ABV0@@Z" PURGE="4" COMMENT="" />
    <EXPORT ORDINAL="20" NAME="??0CDXStorage@@QAE@XZ" PURGE="0" COMMENT="" />
    <EXPORT ORDINAL="21" NAME="??0CDestination@@QAE@AAV?$CStringT@DV?$StrTraitMFC_DLL@DV?$ChTraitsCRT@D@ATL@@@@@ATL@@0@Z" PURGE="8" COMMENT="" />
    <EXPORT ORDINAL="22" NAME="??0CDestination@@QAE@ABV0@@Z" PURGE="4" COMMENT="" />
    <EXPORT ORDINAL="23" NAME="??0CDestination@@QAE@XZ" PURGE="0" COMMENT="" />
    <EXPORT ORDINAL="24" NAME="??0CDicomDirectory@@QAE@XZ" PURGE="0" COMMENT="" />
    <EXPORT ORDINAL="25" NAME="??0CDirSelectDlg@@QAE@ABV0@@Z" PURGE="4" COMMENT="" />
    <EXPORT ORDINAL="26" NAME="??0CImageSet@@QAE@PAVCDatabase@@@Z" PURGE="4" COMMENT="" />
    <EXPORT ORDINAL="27" NAME="??0CImages@@QAE@ABV0@@Z" PURGE="4" COMMENT="" />
    <EXPORT ORDINAL="28" NAME="??0CImages@@QAE@XZ" PURGE="0" COMMENT="" />
    <EXPORT ORDINAL="29" NAME="??0CLoginSet@@QAE@PAVCDatabase@@@Z" PURGE="4" COMMENT="" />
    <EXPORT ORDINAL="30" NAME="??0CMGRStorage@@QAE@AAV?$CStringT@DV?$StrTraitMFC_DLL@DV?$ChTraitsCRT@D@ATL@@@@@ATL@@@Z" PURGE="4" COMMENT="" />
    <EXPORT ORDINAL="31" NAME="??0CMGRStorage@@QAE@ABV0@@Z" PURGE="4" COMMENT="" />
    <EXPORT ORDINAL="32" NAME="??0CMGRStorage@@QAE@XZ" PURGE="0" COMMENT="" />
    <EXPORT ORDINAL="33" NAME="??0CMGStorage@@QAE@AAV?$CStringT@DV?$StrTraitMFC_DLL@DV?$ChTraitsCRT@D@ATL@@@@@ATL@@@Z" PURGE="4" COMMENT="" />
    <EXPORT ORDINAL="34" NAME="??0CMGStorage@@QAE@ABV0@@Z" PURGE="4" COMMENT="" />
    <EXPORT ORDINAL="35" NAME="??0CMGStorage@@QAE@XZ" PURGE="0" COMMENT="" />
    <EXPORT ORDINAL="36" NAME="??0CMRStorage@@QAE@AAV?$CStringT@DV?$StrTraitMFC_DLL@DV?$ChTraitsCRT@D@ATL@@@@@ATL@@@Z" PURGE="4" COMMENT="" />
    <EXPORT ORDINAL="37" NAME="??0CMRStorage@@QAE@ABV0@@Z" PURGE="4" COMMENT="" />
    <EXPORT ORDINAL="38" NAME="??0CMRStorage@@QAE@XZ" PURGE="0" COMMENT="" />
    <EXPORT ORDINAL="39" NAME="??0CMitraReportQuery@@QAE@XZ" PURGE="0" COMMENT="" />
    <EXPORT ORDINAL="40" NAME="??0CModalityWorklistQuery@@QAE@XZ" PURGE="0" COMMENT="" />
    <EXPORT ORDINAL="41" NAME="??0CNMNStorage@@QAE@AAV?$CStringT@DV?$StrTraitMFC_DLL@DV?$ChTraitsCRT@D@ATL@@@@@ATL@@@Z" PURGE="4" COMMENT="" />
    <EXPORT ORDINAL="42" NAME="??0CNMNStorage@@QAE@ABV0@@Z" PURGE="4" COMMENT="" />
    <EXPORT ORDINAL="43" NAME="??0CNMNStorage@@QAE@XZ" PURGE="0" COMMENT="" />
    <EXPORT ORDINAL="44" NAME="??0CNMStorage@@QAE@AAV?$CStringT@DV?$StrTraitMFC_DLL@DV?$ChTraitsCRT@D@ATL@@@@@ATL@@@Z" PURGE="4" COMMENT="" />
    <EXPORT ORDINAL="45" NAME="??0CNMStorage@@QAE@ABV0@@Z" PURGE="4" COMMENT="" />
    <EXPORT ORDINAL="46" NAME="??0CNMStorage@@QAE@XZ" PURGE="0" COMMENT="" />
    <EXPORT ORDINAL="47" NAME="??0COtherObjects@@QAE@ABV0@@Z" PURGE="4" COMMENT="" />
    <EXPORT ORDINAL="48" NAME="??0COtherObjects@@QAE@XZ" PURGE="0" COMMENT="" />
    <EXPORT ORDINAL="49" NAME="??0CPETStorage@@QAE@AAV?$CStringT@DV?$StrTraitMFC_DLL@DV?$ChTraitsCRT@D@ATL@@@@@ATL@@@Z" PURGE="4" COMMENT="" />
    <EXPORT ORDINAL="50" NAME="??0CPETStorage@@QAE@ABV0@@Z" PURGE="4" COMMENT="" />
    <EXPORT ORDINAL="51" NAME="??0CPETStorage@@QAE@XZ" PURGE="0" COMMENT="" />
    <EXPORT ORDINAL="52" NAME="??0CParser@@QAE@ABV0@@Z" PURGE="4" COMMENT="" />
    <EXPORT ORDINAL="53" NAME="??0CPatient@@QAE@XZ" PURGE="0" COMMENT="" />
    <EXPORT ORDINAL="54" NAME="??0CPatientNameParser@@QAE@ABV0@@Z" PURGE="4" COMMENT="" />
    <EXPORT ORDINAL="55" NAME="??0CPatientNameParser@@QAE@V?$CStringT@DV?$StrTraitMFC_DLL@DV?$ChTraitsCRT@D@ATL@@@@@ATL@@0000@Z" PURGE="20" COMMENT="" />
    <EXPORT ORDINAL="56" NAME="??0CPatientNameParser@@QAE@V?$CStringT@DV?$StrTraitMFC_DLL@DV?$ChTraitsCRT@D@ATL@@@@@ATL@@H@Z" PURGE="8" COMMENT="" />
    <EXPORT ORDINAL="57" NAME="??0CPatientNameParser@@QAE@XZ" PURGE="0" COMMENT="" />
    <EXPORT ORDINAL="58" NAME="??0CPatientQuerySet@@QAE@PAVCDatabase@@@Z" PURGE="4" COMMENT="" />
    <EXPORT ORDINAL="59" NAME="??0CPatientRootQuery@@QAE@ABV0@@Z" PURGE="4" COMMENT="" />
    <EXPORT ORDINAL="60" NAME="??0CPatientRootQuery@@QAE@PAVCResultsArray@@@Z" PURGE="4" COMMENT="" />
    <EXPORT ORDINAL="61" NAME="??0CPatientRootRetrieve@@QAE@ABV0@@Z" PURGE="4" COMMENT="" />
    <EXPORT ORDINAL="62" NAME="??0CPatientRootRetrieve@@QAE@PAVCResultsArray@@@Z" PURGE="4" COMMENT="" />
    <EXPORT ORDINAL="63" NAME="??0CPatientRootRetrieve@@QAE@PAVCResultsArray@@AAV?$CStringT@DV?$StrTraitMFC_DLL@DV?$ChTraitsCRT@D@ATL@@@@@ATL@@1@Z" PURGE="12" COMMENT="" />
    <EXPORT ORDINAL="64" NAME="??0CPatientSet@@QAE@PAVCDatabase@@@Z" PURGE="4" COMMENT="" />
    <EXPORT ORDINAL="65" NAME="??0CPreformattedGrayscaleImage@@QAE@ABV0@@Z" PURGE="4" COMMENT="" />
    <EXPORT ORDINAL="66" NAME="??0CPreformattedGrayscaleImage@@QAE@XZ" PURGE="0" COMMENT="" />
    <EXPORT ORDINAL="67" NAME="??0CPresetsSet@@QAE@PAVCDatabase@@@Z" PURGE="4" COMMENT="" />
    <EXPORT ORDINAL="68" NAME="??0CPrintJob@@QAE@ABV0@@Z" PURGE="4" COMMENT="" />
    <EXPORT ORDINAL="69" NAME="??0CPrintJob@@QAE@XZ" PURGE="0" COMMENT="" />
    <EXPORT ORDINAL="70" NAME="??0CPrinter@@QAE@ABV0@@Z" PURGE="4" COMMENT="" />
    <EXPORT ORDINAL="71" NAME="??0CPrinter@@QAE@XZ" PURGE="0" COMMENT="" />
    <EXPORT ORDINAL="72" NAME="??0CProcessManager@@QAE@ABV0@@Z" PURGE="4" COMMENT="" />
    <EXPORT ORDINAL="73" NAME="??0CQueueManager@@QAE@ABV0@@Z" PURGE="4" COMMENT="" />
    <EXPORT ORDINAL="74" NAME="??0CRFStorage@@QAE@AAV?$CStringT@DV?$StrTraitMFC_DLL@DV?$ChTraitsCRT@D@ATL@@@@@ATL@@@Z" PURGE="4" COMMENT="" />
    <EXPORT ORDINAL="75" NAME="??0CRFStorage@@QAE@ABV0@@Z" PURGE="4" COMMENT="" />
    <EXPORT ORDINAL="76" NAME="??0CRFStorage@@QAE@XZ" PURGE="0" COMMENT="" />
    <EXPORT ORDINAL="77" NAME="??0CRTStorage@@QAE@AAV?$CStringT@DV?$StrTraitMFC_DLL@DV?$ChTraitsCRT@D@ATL@@@@@ATL@@@Z" PURGE="4" COMMENT="" />
    <EXPORT ORDINAL="78" NAME="??0CRTStorage@@QAE@ABV0@@Z" PURGE="4" COMMENT="" />
    <EXPORT ORDINAL="79" NAME="??0CRTStorage@@QAE@XZ" PURGE="0" COMMENT="" />
    <EXPORT ORDINAL="80" NAME="??0CResult@@QAE@XZ" PURGE="0" COMMENT="" />
    <EXPORT ORDINAL="81" NAME="??0CResultsArray@@QAE@XZ" PURGE="0" COMMENT="" />
    <EXPORT ORDINAL="82" NAME="??0CSCStorage@@QAE@AAV?$CStringT@DV?$StrTraitMFC_DLL@DV?$ChTraitsCRT@D@ATL@@@@@ATL@@@Z" PURGE="4" COMMENT="" />
    <EXPORT ORDINAL="83" NAME="??0CSCStorage@@QAE@ABV0@@Z" PURGE="4" COMMENT="" />
    <EXPORT ORDINAL="84" NAME="??0CSCStorage@@QAE@XZ" PURGE="0" COMMENT="" />
    <EXPORT ORDINAL="85" NAME="??0CSeries@@QAE@XZ" PURGE="0" COMMENT="" />
    <EXPORT ORDINAL="86" NAME="??0CSeriesQuerySet@@QAE@PAVCDatabase@@@Z" PURGE="4" COMMENT="" />
    <EXPORT ORDINAL="87" NAME="??0CSeriesSet@@QAE@PAVCDatabase@@@Z" PURGE="4" COMMENT="" />
    <EXPORT ORDINAL="88" NAME="??0CServersSet@@QAE@PAVCDatabase@@@Z" PURGE="4" COMMENT="" />
    <EXPORT ORDINAL="89" NAME="??0CStandardStorage@@QAE@ABV0@@Z" PURGE="4" COMMENT="" />
    <EXPORT ORDINAL="90" NAME="??0CStandardStorage@@QAE@XZ" PURGE="0" COMMENT="" />
    <EXPORT ORDINAL="91" NAME="??0CStorage@@QAE@ABV0@@Z" PURGE="4" COMMENT="" />
    <EXPORT ORDINAL="92" NAME="??0CStorage@@QAE@XZ" PURGE="0" COMMENT="" />
    <EXPORT ORDINAL="93" NAME="??0CStudy@@QAE@XZ" PURGE="0" COMMENT="" />
    <EXPORT ORDINAL="94" NAME="??0CStudyQuerySet@@QAE@PAVCDatabase@@@Z" PURGE="4" COMMENT="" />
    <EXPORT ORDINAL="95" NAME="??0CStudyRootQuery@@QAE@ABV0@@Z" PURGE="4" COMMENT="" />
    <EXPORT ORDINAL="96" NAME="??0CStudyRootQuery@@QAE@PAVCResultsArray@@PAVCDaoDatabase@@@Z" PURGE="8" COMMENT="" />
    <EXPORT ORDINAL="97" NAME="??0CStudyRootQuery@@QAE@PAVCResultsArray@@PAVCDatabase@@@Z" PURGE="8" COMMENT="" />
    <EXPORT ORDINAL="98" NAME="??0CStudyRootRetrieve@@QAE@AAV?$CStringT@DV?$StrTraitMFC_DLL@DV?$ChTraitsCRT@D@ATL@@@@@ATL@@0000@Z" PURGE="20" COMMENT="" />
    <EXPORT ORDINAL="99" NAME="??0CStudyRootRetrieve@@QAE@AAV?$CStringT@DV?$StrTraitMFC_DLL@DV?$ChTraitsCRT@D@ATL@@@@@ATL@@0@Z" PURGE="8" COMMENT="" />
    <EXPORT ORDINAL="100" NAME="??0CStudyRootRetrieve@@QAE@ABV0@@Z" PURGE="4" COMMENT="" />
    <EXPORT ORDINAL="101" NAME="??0CStudySet@@QAE@PAVCDatabase@@@Z" PURGE="4" COMMENT="" />
    <EXPORT ORDINAL="102" NAME="??0CTemplateAttachmentSet@@QAE@PAVCDatabase@@@Z" PURGE="4" COMMENT="" />
    <EXPORT ORDINAL="103" NAME="??0CTemplateSet@@QAE@PAVCDatabase@@@Z" PURGE="4" COMMENT="" />
    <EXPORT ORDINAL="104" NAME="??0CUSMStorage@@QAE@AAV?$CStringT@DV?$StrTraitMFC_DLL@DV?$ChTraitsCRT@D@ATL@@@@@ATL@@@Z" PURGE="4" COMMENT="" />
    <EXPORT ORDINAL="105" NAME="??0CUSMStorage@@QAE@ABV0@@Z" PURGE="4" COMMENT="" />
    <EXPORT ORDINAL="106" NAME="??0CUSMStorage@@QAE@XZ" PURGE="0" COMMENT="" />
    <EXPORT ORDINAL="107" NAME="??0CUSNMStorage@@QAE@AAV?$CStringT@DV?$StrTraitMFC_DLL@DV?$ChTraitsCRT@D@ATL@@@@@ATL@@@Z" PURGE="4" COMMENT="" />
    <EXPORT ORDINAL="108" NAME="??0CUSNMStorage@@QAE@ABV0@@Z" PURGE="4" COMMENT="" />
    <EXPORT ORDINAL="109" NAME="??0CUSNMStorage@@QAE@XZ" PURGE="0" COMMENT="" />
    <EXPORT ORDINAL="110" NAME="??0CUSNStorage@@QAE@AAV?$CStringT@DV?$StrTraitMFC_DLL@DV?$ChTraitsCRT@D@ATL@@@@@ATL@@@Z" PURGE="4" COMMENT="" />
    <EXPORT ORDINAL="111" NAME="??0CUSNStorage@@QAE@ABV0@@Z" PURGE="4" COMMENT="" />
    <EXPORT ORDINAL="112" NAME="??0CUSNStorage@@QAE@XZ" PURGE="0" COMMENT="" />
    <EXPORT ORDINAL="113" NAME="??0CUSStorage@@QAE@AAV?$CStringT@DV?$StrTraitMFC_DLL@DV?$ChTraitsCRT@D@ATL@@@@@ATL@@@Z" PURGE="4" COMMENT="" />
    <EXPORT ORDINAL="114" NAME="??0CUSStorage@@QAE@ABV0@@Z" PURGE="4" COMMENT="" />
    <EXPORT ORDINAL="115" NAME="??0CUSStorage@@QAE@XZ" PURGE="0" COMMENT="" />
    <EXPORT ORDINAL="116" NAME="??0CUnknownStorage@@QAE@ABV0@@Z" PURGE="4" COMMENT="" />
    <EXPORT ORDINAL="117" NAME="??0CUnknownStorage@@QAE@XZ" PURGE="0" COMMENT="" />
    <EXPORT ORDINAL="118" NAME="??0CVerification@@QAE@ABV0@@Z" PURGE="4" COMMENT="" />
    <EXPORT ORDINAL="119" NAME="??0CVerification@@QAE@XZ" PURGE="0" COMMENT="" />
    <EXPORT ORDINAL="120" NAME="??0CXABiStorage@@QAE@AAV?$CStringT@DV?$StrTraitMFC_DLL@DV?$ChTraitsCRT@D@ATL@@@@@ATL@@@Z" PURGE="4" COMMENT="" />
    <EXPORT ORDINAL="121" NAME="??0CXABiStorage@@QAE@ABV0@@Z" PURGE="4" COMMENT="" />
    <EXPORT ORDINAL="122" NAME="??0CXABiStorage@@QAE@XZ" PURGE="0" COMMENT="" />
    <EXPORT ORDINAL="123" NAME="??0CXAStorage@@QAE@AAV?$CStringT@DV?$StrTraitMFC_DLL@DV?$ChTraitsCRT@D@ATL@@@@@ATL@@@Z" PURGE="4" COMMENT="" />
    <EXPORT ORDINAL="124" NAME="??0CXAStorage@@QAE@ABV0@@Z" PURGE="4" COMMENT="" />
    <EXPORT ORDINAL="125" NAME="??0CXAStorage@@QAE@XZ" PURGE="0" COMMENT="" />
    <EXPORT ORDINAL="126" NAME="??1?$CArray@PAV?$CStringT@DV?$StrTraitMFC_DLL@DV?$ChTraitsCRT@D@ATL@@@@@ATL@@PAV12@@@UAE@XZ" PURGE="0" COMMENT="" />
    <EXPORT ORDINAL="127" NAME="??1?$CArray@PAVCResult@@PAV1@@@UAE@XZ" PURGE="0" COMMENT="" />
    <EXPORT ORDINAL="128" NAME="??1CBasicFilmBox@@UAE@XZ" PURGE="0" COMMENT="" />
    <EXPORT ORDINAL="129" NAME="??1CBasicFilmSession@@UAE@XZ" PURGE="0" COMMENT="" />
    <EXPORT ORDINAL="130" NAME="??1CBasicGrayscaleImageBox@@UAE@XZ" PURGE="0" COMMENT="" />
    <EXPORT ORDINAL="131" NAME="??1CBasicRecordset@@UAE@XZ" PURGE="-1" COMMENT="" />
    <EXPORT ORDINAL="132" NAME="??1CCRStorage@@UAE@XZ" PURGE="0" COMMENT="" />
    <EXPORT ORDINAL="133" NAME="??1CCTStorage@@UAE@XZ" PURGE="0" COMMENT="" />
    <EXPORT ORDINAL="134" NAME="??1CDXRStorage@@UAE@XZ" PURGE="0" COMMENT="" />
    <EXPORT ORDINAL="135" NAME="??1CDXStorage@@UAE@XZ" PURGE="0" COMMENT="" />
    <EXPORT ORDINAL="136" NAME="??1CDestination@@UAE@XZ" PURGE="-1" COMMENT="" />
    <EXPORT ORDINAL="137" NAME="??1CDicomDirectory@@UAE@XZ" PURGE="0" COMMENT="" />
    <EXPORT ORDINAL="138" NAME="??1CImageSet@@UAE@XZ" PURGE="-1" COMMENT="" />
    <EXPORT ORDINAL="139" NAME="??1CImages@@UAE@XZ" PURGE="-1" COMMENT="" />
    <EXPORT ORDINAL="140" NAME="??1CLoginSet@@UAE@XZ" PURGE="-1" COMMENT="" />
    <EXPORT ORDINAL="141" NAME="??1CMGRStorage@@UAE@XZ" PURGE="0" COMMENT="" />
    <EXPORT ORDINAL="142" NAME="??1CMGStorage@@UAE@XZ" PURGE="0" COMMENT="" />
    <EXPORT ORDINAL="143" NAME="??1CMRStorage@@UAE@XZ" PURGE="0" COMMENT="" />
    <EXPORT ORDINAL="144" NAME="??1CMitraReportQuery@@UAE@XZ" PURGE="0" COMMENT="" />
    <EXPORT ORDINAL="145" NAME="??1CModalityWorklistQuery@@UAE@XZ" PURGE="0" COMMENT="" />
    <EXPORT ORDINAL="146" NAME="??1CNMNStorage@@UAE@XZ" PURGE="0" COMMENT="" />
    <EXPORT ORDINAL="147" NAME="??1CNMStorage@@UAE@XZ" PURGE="0" COMMENT="" />
    <EXPORT ORDINAL="148" NAME="??1COtherObjects@@UAE@XZ" PURGE="-1" COMMENT="" />
    <EXPORT ORDINAL="149" NAME="??1CPETStorage@@UAE@XZ" PURGE="0" COMMENT="" />
    <EXPORT ORDINAL="150" NAME="??1CPatient@@UAE@XZ" PURGE="0" COMMENT="" />
    <EXPORT ORDINAL="151" NAME="??1CPatientNameParser@@UAE@XZ" PURGE="-1" COMMENT="" />
    <EXPORT ORDINAL="152" NAME="??1CPatientQuerySet@@UAE@XZ" PURGE="-1" COMMENT="" />
    <EXPORT ORDINAL="153" NAME="??1CPatientRootQuery@@UAE@XZ" PURGE="-1" COMMENT="" />
    <EXPORT ORDINAL="154" NAME="??1CPatientRootRetrieve@@UAE@XZ" PURGE="-1" COMMENT="" />
    <EXPORT ORDINAL="155" NAME="??1CPatientSet@@UAE@XZ" PURGE="-1" COMMENT="" />
    <EXPORT ORDINAL="156" NAME="??1CPreformattedGrayscaleImage@@UAE@XZ" PURGE="-1" COMMENT="" />
    <EXPORT ORDINAL="157" NAME="??1CPresetsSet@@UAE@XZ" PURGE="-1" COMMENT="" />
    <EXPORT ORDINAL="158" NAME="??1CPrintJob@@UAE@XZ" PURGE="0" COMMENT="" />
    <EXPORT ORDINAL="159" NAME="??1CPrinter@@UAE@XZ" PURGE="0" COMMENT="" />
    <EXPORT ORDINAL="160" NAME="??1CRFStorage@@UAE@XZ" PURGE="0" COMMENT="" />
    <EXPORT ORDINAL="161" NAME="??1CRTStorage@@UAE@XZ" PURGE="0" COMMENT="" />
    <EXPORT ORDINAL="162" NAME="??1CResult@@UAE@XZ" PURGE="0" COMMENT="" />
    <EXPORT ORDINAL="163" NAME="??1CResultsArray@@UAE@XZ" PURGE="0" COMMENT="" />
    <EXPORT ORDINAL="164" NAME="??1CSCStorage@@UAE@XZ" PURGE="0" COMMENT="" />
    <EXPORT ORDINAL="165" NAME="??1CSeries@@UAE@XZ" PURGE="0" COMMENT="" />
    <EXPORT ORDINAL="166" NAME="??1CSeriesQuerySet@@UAE@XZ" PURGE="-1" COMMENT="" />
    <EXPORT ORDINAL="167" NAME="??1CSeriesSet@@UAE@XZ" PURGE="-1" COMMENT="" />
    <EXPORT ORDINAL="168" NAME="??1CServersSet@@UAE@XZ" PURGE="-1" COMMENT="" />
    <EXPORT ORDINAL="169" NAME="??1CStandardStorage@@UAE@XZ" PURGE="0" COMMENT="" />
    <EXPORT ORDINAL="170" NAME="??1CStorage@@UAE@XZ" PURGE="-1" COMMENT="" />
    <EXPORT ORDINAL="171" NAME="??1CStudy@@UAE@XZ" PURGE="0" COMMENT="" />
    <EXPORT ORDINAL="172" NAME="??1CStudyQuerySet@@UAE@XZ" PURGE="-1" COMMENT="" />
    <EXPORT ORDINAL="173" NAME="??1CStudyRootQuery@@UAE@XZ" PURGE="-1" COMMENT="" />
    <EXPORT ORDINAL="174" NAME="??1CStudyRootRetrieve@@UAE@XZ" PURGE="-1" COMMENT="" />
    <EXPORT ORDINAL="175" NAME="??1CStudySet@@UAE@XZ" PURGE="-1" COMMENT="" />
    <EXPORT ORDINAL="176" NAME="??1CTemplateAttachmentSet@@UAE@XZ" PURGE="-1" COMMENT="" />
    <EXPORT ORDINAL="177" NAME="??1CTemplateSet@@UAE@XZ" PURGE="-1" COMMENT="" />
    <EXPORT ORDINAL="178" NAME="??1CUSMStorage@@UAE@XZ" PURGE="0" COMMENT="" />
    <EXPORT ORDINAL="179" NAME="??1CUSNMStorage@@UAE@XZ" PURGE="0" COMMENT="" />
    <EXPORT ORDINAL="180" NAME="??1CUSNStorage@@UAE@XZ" PURGE="0" COMMENT="" />
    <EXPORT ORDINAL="181" NAME="??1CUSStorage@@UAE@XZ" PURGE="0" COMMENT="" />
    <EXPORT ORDINAL="182" NAME="??1CUnknownStorage@@UAE@XZ" PURGE="0" COMMENT="" />
    <EXPORT ORDINAL="183" NAME="??1CVerification@@UAE@XZ" PURGE="0" COMMENT="" />
    <EXPORT ORDINAL="184" NAME="??1CXABiStorage@@UAE@XZ" PURGE="0" COMMENT="" />
    <EXPORT ORDINAL="185" NAME="??1CXAStorage@@UAE@XZ" PURGE="0" COMMENT="" />
    <EXPORT ORDINAL="186" NAME="??4CBasicFilmSession@@QAEAAV0@AAV0@@Z" PURGE="4" COMMENT="" />
    <EXPORT ORDINAL="187" NAME="??4CBasicGrayscaleImageBox@@QAEAAV0@AAV0@@Z" PURGE="4" COMMENT="" />
    <EXPORT ORDINAL="188" NAME="??4CCRStorage@@QAEAAV0@AAV0@@Z" PURGE="4" COMMENT="" />
    <EXPORT ORDINAL="189" NAME="??4CCTStorage@@QAEAAV0@AAV0@@Z" PURGE="4" COMMENT="" />
    <EXPORT ORDINAL="190" NAME="??4CDXRStorage@@QAEAAV0@AAV0@@Z" PURGE="4" COMMENT="" />
    <EXPORT ORDINAL="191" NAME="??4CDXStorage@@QAEAAV0@AAV0@@Z" PURGE="4" COMMENT="" />
    <EXPORT ORDINAL="192" NAME="??4CDestination@@QAEAAV0@ABV0@@Z" PURGE="4" COMMENT="" />
    <EXPORT ORDINAL="193" NAME="??4CDirSelectDlg@@QAEAAV0@ABV0@@Z" PURGE="4" COMMENT="" />
    <EXPORT ORDINAL="194" NAME="??4CImages@@QAEAAV0@ABV0@@Z" PURGE="4" COMMENT="" />
    <EXPORT ORDINAL="195" NAME="??4CMGRStorage@@QAEAAV0@AAV0@@Z" PURGE="4" COMMENT="" />
    <EXPORT ORDINAL="196" NAME="??4CMGStorage@@QAEAAV0@AAV0@@Z" PURGE="4" COMMENT="" />
    <EXPORT ORDINAL="197" NAME="??4CMRStorage@@QAEAAV0@AAV0@@Z" PURGE="4" COMMENT="" />
    <EXPORT ORDINAL="198" NAME="??4CNMNStorage@@QAEAAV0@AAV0@@Z" PURGE="4" COMMENT="" />
    <EXPORT ORDINAL="199" NAME="??4CNMStorage@@QAEAAV0@AAV0@@Z" PURGE="4" COMMENT="" />
    <EXPORT ORDINAL="200" NAME="??4COtherObjects@@QAEAAV0@ABV0@@Z" PURGE="4" COMMENT="" />
    <EXPORT ORDINAL="201" NAME="??4CPETStorage@@QAEAAV0@AAV0@@Z" PURGE="4" COMMENT="" />
    <EXPORT ORDINAL="202" NAME="??4CParser@@QAEAAV0@ABV0@@Z" PURGE="4" COMMENT="" />
    <EXPORT ORDINAL="203" NAME="??4CPatientNameParser@@QAEAAV0@ABV0@@Z" PURGE="4" COMMENT="" />
    <EXPORT ORDINAL="204" NAME="??4CPatientRootQuery@@QAEAAV0@ABV0@@Z" PURGE="4" COMMENT="" />
    <EXPORT ORDINAL="205" NAME="??4CPatientRootRetrieve@@QAEAAV0@ABV0@@Z" PURGE="4" COMMENT="" />
    <EXPORT ORDINAL="206" NAME="??4CPreformattedGrayscaleImage@@QAEAAV0@ABV0@@Z" PURGE="4" COMMENT="" />
    <EXPORT ORDINAL="207" NAME="??4CPrintJob@@QAEAAV0@ABV0@@Z" PURGE="4" COMMENT="" />
    <EXPORT ORDINAL="208" NAME="??4CPrinter@@QAEAAV0@AAV0@@Z" PURGE="4" COMMENT="" />
    <EXPORT ORDINAL="209" NAME="??4CProcessManager@@QAEAAV0@ABV0@@Z" PURGE="4" COMMENT="" />
    <EXPORT ORDINAL="210" NAME="??4CQueueManager@@QAEAAV0@ABV0@@Z" PURGE="4" COMMENT="" />
    <EXPORT ORDINAL="211" NAME="??4CRFStorage@@QAEAAV0@AAV0@@Z" PURGE="4" COMMENT="" />
    <EXPORT ORDINAL="212" NAME="??4CRTStorage@@QAEAAV0@AAV0@@Z" PURGE="4" COMMENT="" />
    <EXPORT ORDINAL="213" NAME="??4CSCStorage@@QAEAAV0@AAV0@@Z" PURGE="4" COMMENT="" />
    <EXPORT ORDINAL="214" NAME="??4CStandardStorage@@QAEAAV0@AAV0@@Z" PURGE="4" COMMENT="" />
    <EXPORT ORDINAL="215" NAME="??4CStorage@@QAEAAV0@ABV0@@Z" PURGE="4" COMMENT="" />
    <EXPORT ORDINAL="216" NAME="??4CStringsConvHelper@@QAEAAV0@ABV0@@Z" PURGE="4" COMMENT="" />
    <EXPORT ORDINAL="217" NAME="??4CStudyRootQuery@@QAEAAV0@ABV0@@Z" PURGE="4" COMMENT="" />
    <EXPORT ORDINAL="218" NAME="??4CStudyRootRetrieve@@QAEAAV0@ABV0@@Z" PURGE="4" COMMENT="" />
    <EXPORT ORDINAL="219" NAME="??4CUSMStorage@@QAEAAV0@AAV0@@Z" PURGE="4" COMMENT="" />
    <EXPORT ORDINAL="220" NAME="??4CUSNMStorage@@QAEAAV0@AAV0@@Z" PURGE="4" COMMENT="" />
    <EXPORT ORDINAL="221" NAME="??4CUSNStorage@@QAEAAV0@AAV0@@Z" PURGE="4" COMMENT="" />
    <EXPORT ORDINAL="222" NAME="??4CUSStorage@@QAEAAV0@AAV0@@Z" PURGE="4" COMMENT="" />
    <EXPORT ORDINAL="223" NAME="??4CUnknownStorage@@QAEAAV0@ABV0@@Z" PURGE="4" COMMENT="" />
    <EXPORT ORDINAL="224" NAME="??4CVerification@@QAEAAV0@ABV0@@Z" PURGE="4" COMMENT="" />
    <EXPORT ORDINAL="225" NAME="??4CXABiStorage@@QAEAAV0@AAV0@@Z" PURGE="4" COMMENT="" />
    <EXPORT ORDINAL="226" NAME="??4CXAStorage@@QAEAAV0@AAV0@@Z" PURGE="4" COMMENT="" />
    <EXPORT ORDINAL="227" NAME="??A?$CArray@PAV?$CStringT@DV?$StrTraitMFC_DLL@DV?$ChTraitsCRT@D@ATL@@@@@ATL@@PAV12@@@QAEAAPAV?$CStringT@DV?$StrTraitMFC_DLL@DV?$ChTraitsCRT@D@ATL@@@@@ATL@@H@Z" PURGE="4" COMMENT="" />
    <EXPORT ORDINAL="228" NAME="??A?$CArray@PAV?$CStringT@DV?$StrTraitMFC_DLL@DV?$ChTraitsCRT@D@ATL@@@@@ATL@@PAV12@@@QBEABQAV?$CStringT@DV?$StrTraitMFC_DLL@DV?$ChTraitsCRT@D@ATL@@@@@ATL@@H@Z" PURGE="4" COMMENT="" />
    <EXPORT ORDINAL="229" NAME="??A?$CArray@PAVCResult@@PAV1@@@QAEAAPAVCResult@@H@Z" PURGE="4" COMMENT="" />
    <EXPORT ORDINAL="230" NAME="??A?$CArray@PAVCResult@@PAV1@@@QBEABQAVCResult@@H@Z" PURGE="4" COMMENT="" />
    <EXPORT ORDINAL="231" NAME="??_7?$CArray@PAV?$CStringT@DV?$StrTraitMFC_DLL@DV?$ChTraitsCRT@D@ATL@@@@@ATL@@PAV12@@@6B@" PURGE="-1" COMMENT="" />
    <EXPORT ORDINAL="232" NAME="??_7?$CArray@PAVCResult@@PAV1@@@6B@" PURGE="-1" COMMENT="" />
    <EXPORT ORDINAL="233" NAME="??_7CBasicFilmBox@@6BNActionRQ@@@" PURGE="-1" COMMENT="" />
    <EXPORT ORDINAL="234" NAME="??_7CBasicFilmBox@@6BNActionRSP@@@" PURGE="-1" COMMENT="" />
    <EXPORT ORDINAL="235" NAME="??_7CBasicFilmBox@@6BNCreateRQ@@@" PURGE="-1" COMMENT="" />
    <EXPORT ORDINAL="236" NAME="??_7CBasicFilmBox@@6BNCreateRSP@@@" PURGE="-1" COMMENT="" />
    <EXPORT ORDINAL="237" NAME="??_7CBasicFilmBox@@6BNDeleteRQ@@@" PURGE="-1" COMMENT="" />
    <EXPORT ORDINAL="238" NAME="??_7CBasicFilmBox@@6BNDeleteRSP@@@" PURGE="-1" COMMENT="" />
    <EXPORT ORDINAL="239" NAME="??_7CBasicFilmBox@@6BNSetRQ@@@" PURGE="-1" COMMENT="" />
    <EXPORT ORDINAL="240" NAME="??_7CBasicFilmBox@@6BNSetRSP@@@" PURGE="-1" COMMENT="" />
    <EXPORT ORDINAL="241" NAME="??_7CBasicFilmSession@@6BNActionRQ@@@" PURGE="-1" COMMENT="" />
    <EXPORT ORDINAL="242" NAME="??_7CBasicFilmSession@@6BNActionRSP@@@" PURGE="-1" COMMENT="" />
    <EXPORT ORDINAL="243" NAME="??_7CBasicFilmSession@@6BNCreateRQ@@@" PURGE="-1" COMMENT="" />
    <EXPORT ORDINAL="244" NAME="??_7CBasicFilmSession@@6BNCreateRSP@@@" PURGE="-1" COMMENT="" />
    <EXPORT ORDINAL="245" NAME="??_7CBasicFilmSession@@6BNDeleteRQ@@@" PURGE="-1" COMMENT="" />
    <EXPORT ORDINAL="246" NAME="??_7CBasicFilmSession@@6BNDeleteRSP@@@" PURGE="-1" COMMENT="" />
    <EXPORT ORDINAL="247" NAME="??_7CBasicFilmSession@@6BNSetRQ@@@" PURGE="-1" COMMENT="" />
    <EXPORT ORDINAL="248" NAME="??_7CBasicFilmSession@@6BNSetRSP@@@" PURGE="-1" COMMENT="" />
    <EXPORT ORDINAL="249" NAME="??_7CBasicGrayscaleImageBox@@6BNSetRQ@@@" PURGE="-1" COMMENT="" />
    <EXPORT ORDINAL="250" NAME="??_7CBasicGrayscaleImageBox@@6BNSetRSP@@@" PURGE="-1" COMMENT="" />
    <EXPORT ORDINAL="251" NAME="??_7CBasicRecordset@@6B@" PURGE="-1" COMMENT="" />
    <EXPORT ORDINAL="252" NAME="??_7CCRStorage@@6BCRImageIODModule@@@" PURGE="-1" COMMENT="" />
    <EXPORT ORDINAL="253" NAME="??_7CCRStorage@@6BCStorage@@@" PURGE="-1" COMMENT="" />
    <EXPORT ORDINAL="254" NAME="??_7CCRStorage@@6BCStoreRQ@@@" PURGE="-1" COMMENT="" />
    <EXPORT ORDINAL="255" NAME="??_7CCRStorage@@6BCStoreRSP@@@" PURGE="-1" COMMENT="" />
    <EXPORT ORDINAL="256" NAME="??_7CCTStorage@@6BCStorage@@@" PURGE="-1" COMMENT="" />
    <EXPORT ORDINAL="257" NAME="??_7CCTStorage@@6BCStoreRQ@@@" PURGE="-1" COMMENT="" />
    <EXPORT ORDINAL="258" NAME="??_7CCTStorage@@6BCStoreRSP@@@" PURGE="-1" COMMENT="" />
    <EXPORT ORDINAL="259" NAME="??_7CCTStorage@@6BCTImageIODModule@@@" PURGE="-1" COMMENT="" />
    <EXPORT ORDINAL="260" NAME="??_7CDXRStorage@@6BCStorage@@@" PURGE="-1" COMMENT="" />
    <EXPORT ORDINAL="261" NAME="??_7CDXRStorage@@6BCStoreRQ@@@" PURGE="-1" COMMENT="" />
    <EXPORT ORDINAL="262" NAME="??_7CDXRStorage@@6BCStoreRSP@@@" PURGE="-1" COMMENT="" />
    <EXPORT ORDINAL="263" NAME="??_7CDXRStorage@@6BDXRImageIODModule@@@" PURGE="-1" COMMENT="" />
    <EXPORT ORDINAL="264" NAME="??_7CDXStorage@@6BCStorage@@@" PURGE="-1" COMMENT="" />
    <EXPORT ORDINAL="265" NAME="??_7CDXStorage@@6BCStoreRQ@@@" PURGE="-1" COMMENT="" />
    <EXPORT ORDINAL="266" NAME="??_7CDXStorage@@6BCStoreRSP@@@" PURGE="-1" COMMENT="" />
    <EXPORT ORDINAL="267" NAME="??_7CDXStorage@@6BDXImageIODModule@@@" PURGE="-1" COMMENT="" />
    <EXPORT ORDINAL="268" NAME="??_7CDestination@@6B@" PURGE="-1" COMMENT="" />
    <EXPORT ORDINAL="269" NAME="??_7CDicomDirectory@@6B@" PURGE="-1" COMMENT="" />
    <EXPORT ORDINAL="270" NAME="??_7CDirSelectDlg@@6B@" PURGE="-1" COMMENT="" />
    <EXPORT ORDINAL="271" NAME="??_7CImageSet@@6B@" PURGE="-1" COMMENT="" />
    <EXPORT ORDINAL="272" NAME="??_7CImages@@6B@" PURGE="-1" COMMENT="" />
    <EXPORT ORDINAL="273" NAME="??_7CLoginSet@@6B@" PURGE="-1" COMMENT="" />
    <EXPORT ORDINAL="274" NAME="??_7CMGRStorage@@6BCStorage@@@" PURGE="-1" COMMENT="" />
    <EXPORT ORDINAL="275" NAME="??_7CMGRStorage@@6BCStoreRQ@@@" PURGE="-1" COMMENT="" />
    <EXPORT ORDINAL="276" NAME="??_7CMGRStorage@@6BCStoreRSP@@@" PURGE="-1" COMMENT="" />
    <EXPORT ORDINAL="277" NAME="??_7CMGRStorage@@6BMGRImageIODModule@@@" PURGE="-1" COMMENT="" />
    <EXPORT ORDINAL="278" NAME="??_7CMGStorage@@6BCStorage@@@" PURGE="-1" COMMENT="" />
    <EXPORT ORDINAL="279" NAME="??_7CMGStorage@@6BCStoreRQ@@@" PURGE="-1" COMMENT="" />
    <EXPORT ORDINAL="280" NAME="??_7CMGStorage@@6BCStoreRSP@@@" PURGE="-1" COMMENT="" />
    <EXPORT ORDINAL="281" NAME="??_7CMGStorage@@6BMGImageIODModule@@@" PURGE="-1" COMMENT="" />
    <EXPORT ORDINAL="282" NAME="??_7CMRStorage@@6BCStorage@@@" PURGE="-1" COMMENT="" />
    <EXPORT ORDINAL="283" NAME="??_7CMRStorage@@6BCStoreRQ@@@" PURGE="-1" COMMENT="" />
    <EXPORT ORDINAL="284" NAME="??_7CMRStorage@@6BCStoreRSP@@@" PURGE="-1" COMMENT="" />
    <EXPORT ORDINAL="285" NAME="??_7CMRStorage@@6BMRImageIODModule@@@" PURGE="-1" COMMENT="" />
    <EXPORT ORDINAL="286" NAME="??_7CMitraReportQuery@@6BCFindRQ@@@" PURGE="-1" COMMENT="" />
    <EXPORT ORDINAL="287" NAME="??_7CMitraReportQuery@@6BCFindRSP@@@" PURGE="-1" COMMENT="" />
    <EXPORT ORDINAL="288" NAME="??_7CModalityWorklistQuery@@6BCFindRQ@@@" PURGE="-1" COMMENT="" />
    <EXPORT ORDINAL="289" NAME="??_7CModalityWorklistQuery@@6BCFindRSP@@@" PURGE="-1" COMMENT="" />
    <EXPORT ORDINAL="290" NAME="??_7CNMNStorage@@6BCStorage@@@" PURGE="-1" COMMENT="" />
    <EXPORT ORDINAL="291" NAME="??_7CNMNStorage@@6BCStoreRQ@@@" PURGE="-1" COMMENT="" />
    <EXPORT ORDINAL="292" NAME="??_7CNMNStorage@@6BCStoreRSP@@@" PURGE="-1" COMMENT="" />
    <EXPORT ORDINAL="293" NAME="??_7CNMNStorage@@6BNMNImageIODModule@@@" PURGE="-1" COMMENT="" />
    <EXPORT ORDINAL="294" NAME="??_7CNMStorage@@6BCStorage@@@" PURGE="-1" COMMENT="" />
    <EXPORT ORDINAL="295" NAME="??_7CNMStorage@@6BCStoreRQ@@@" PURGE="-1" COMMENT="" />
    <EXPORT ORDINAL="296" NAME="??_7CNMStorage@@6BCStoreRSP@@@" PURGE="-1" COMMENT="" />
    <EXPORT ORDINAL="297" NAME="??_7CNMStorage@@6BNMImageIODModule@@@" PURGE="-1" COMMENT="" />
    <EXPORT ORDINAL="298" NAME="??_7COtherObjects@@6B@" PURGE="-1" COMMENT="" />
    <EXPORT ORDINAL="299" NAME="??_7CPETStorage@@6BCStorage@@@" PURGE="-1" COMMENT="" />
    <EXPORT ORDINAL="300" NAME="??_7CPETStorage@@6BCStoreRQ@@@" PURGE="-1" COMMENT="" />
    <EXPORT ORDINAL="301" NAME="??_7CPETStorage@@6BCStoreRSP@@@" PURGE="-1" COMMENT="" />
    <EXPORT ORDINAL="302" NAME="??_7CPETStorage@@6BPETImageIODModule@@@" PURGE="-1" COMMENT="" />
    <EXPORT ORDINAL="303" NAME="??_7CParser@@6B@" PURGE="-1" COMMENT="" />
    <EXPORT ORDINAL="304" NAME="??_7CPatient@@6B@" PURGE="-1" COMMENT="" />
    <EXPORT ORDINAL="305" NAME="??_7CPatientNameParser@@6B@" PURGE="-1" COMMENT="" />
    <EXPORT ORDINAL="306" NAME="??_7CPatientQuerySet@@6B@" PURGE="-1" COMMENT="" />
    <EXPORT ORDINAL="307" NAME="??_7CPatientRootQuery@@6BCFindRQ@@@" PURGE="-1" COMMENT="" />
    <EXPORT ORDINAL="308" NAME="??_7CPatientRootQuery@@6BCFindRSP@@@" PURGE="-1" COMMENT="" />
    <EXPORT ORDINAL="309" NAME="??_7CPatientRootRetrieve@@6BCMoveRQ@@@" PURGE="-1" COMMENT="" />
    <EXPORT ORDINAL="310" NAME="??_7CPatientRootRetrieve@@6BCMoveRSP@@@" PURGE="-1" COMMENT="" />
    <EXPORT ORDINAL="311" NAME="??_7CPatientSet@@6B@" PURGE="-1" COMMENT="" />
    <EXPORT ORDINAL="312" NAME="??_7CPreformattedGrayscaleImage@@6B@" PURGE="-1" COMMENT="" />
    <EXPORT ORDINAL="313" NAME="??_7CPresetsSet@@6B@" PURGE="-1" COMMENT="" />
    <EXPORT ORDINAL="314" NAME="??_7CPrintJob@@6B@" PURGE="-1" COMMENT="" />
    <EXPORT ORDINAL="315" NAME="??_7CPrinter@@6BNGetRQ@@@" PURGE="-1" COMMENT="" />
    <EXPORT ORDINAL="316" NAME="??_7CPrinter@@6BNGetRSP@@@" PURGE="-1" COMMENT="" />
    <EXPORT ORDINAL="317" NAME="??_7CPrinter@@6BPrinterIODModule@@@" PURGE="-1" COMMENT="" />
    <EXPORT ORDINAL="318" NAME="??_7CProcessManager@@6B@" PURGE="-1" COMMENT="" />
    <EXPORT ORDINAL="319" NAME="??_7CQueueManager@@6B@" PURGE="-1" COMMENT="" />
    <EXPORT ORDINAL="320" NAME="??_7CRFStorage@@6BCStorage@@@" PURGE="-1" COMMENT="" />
    <EXPORT ORDINAL="321" NAME="??_7CRFStorage@@6BCStoreRQ@@@" PURGE="-1" COMMENT="" />
    <EXPORT ORDINAL="322" NAME="??_7CRFStorage@@6BCStoreRSP@@@" PURGE="-1" COMMENT="" />
    <EXPORT ORDINAL="323" NAME="??_7CRFStorage@@6BRFImageIODModule@@@" PURGE="-1" COMMENT="" />
    <EXPORT ORDINAL="324" NAME="??_7CRTStorage@@6BCStorage@@@" PURGE="-1" COMMENT="" />
    <EXPORT ORDINAL="325" NAME="??_7CRTStorage@@6BCStoreRQ@@@" PURGE="-1" COMMENT="" />
    <EXPORT ORDINAL="326" NAME="??_7CRTStorage@@6BCStoreRSP@@@" PURGE="-1" COMMENT="" />
    <EXPORT ORDINAL="327" NAME="??_7CRTStorage@@6BRTImageIODModule@@@" PURGE="-1" COMMENT="" />
    <EXPORT ORDINAL="328" NAME="??_7CResult@@6B@" PURGE="-1" COMMENT="" />
    <EXPORT ORDINAL="329" NAME="??_7CResultsArray@@6B@" PURGE="-1" COMMENT="" />
    <EXPORT ORDINAL="330" NAME="??_7CSCStorage@@6BCStorage@@@" PURGE="-1" COMMENT="" />
    <EXPORT ORDINAL="331" NAME="??_7CSCStorage@@6BCStoreRQ@@@" PURGE="-1" COMMENT="" />
    <EXPORT ORDINAL="332" NAME="??_7CSCStorage@@6BCStoreRSP@@@" PURGE="-1" COMMENT="" />
    <EXPORT ORDINAL="333" NAME="??_7CSCStorage@@6BSCImageIODModule@@@" PURGE="-1" COMMENT="" />
    <EXPORT ORDINAL="334" NAME="??_7CSeries@@6B@" PURGE="-1" COMMENT="" />
    <EXPORT ORDINAL="335" NAME="??_7CSeriesQuerySet@@6B@" PURGE="-1" COMMENT="" />
    <EXPORT ORDINAL="336" NAME="??_7CSeriesSet@@6B@" PURGE="-1" COMMENT="" />
    <EXPORT ORDINAL="337" NAME="??_7CServersSet@@6B@" PURGE="-1" COMMENT="" />
    <EXPORT ORDINAL="338" NAME="??_7CStandardStorage@@6BCStoreRQ@@@" PURGE="-1" COMMENT="" />
    <EXPORT ORDINAL="339" NAME="??_7CStandardStorage@@6BCStoreRSP@@@" PURGE="-1" COMMENT="" />
    <EXPORT ORDINAL="340" NAME="??_7CStorage@@6B@" PURGE="-1" COMMENT="" />
    <EXPORT ORDINAL="341" NAME="??_7CStudy@@6B@" PURGE="-1" COMMENT="" />
    <EXPORT ORDINAL="342" NAME="??_7CStudyQuerySet@@6B@" PURGE="-1" COMMENT="" />
    <EXPORT ORDINAL="343" NAME="??_7CStudyRootQuery@@6BCFindRQ@@@" PURGE="-1" COMMENT="" />
    <EXPORT ORDINAL="344" NAME="??_7CStudyRootQuery@@6BCFindRSP@@@" PURGE="-1" COMMENT="" />
    <EXPORT ORDINAL="345" NAME="??_7CStudyRootRetrieve@@6BCMoveRQ@@@" PURGE="-1" COMMENT="" />
    <EXPORT ORDINAL="346" NAME="??_7CStudyRootRetrieve@@6BCMoveRSP@@@" PURGE="-1" COMMENT="" />
    <EXPORT ORDINAL="347" NAME="??_7CStudySet@@6B@" PURGE="-1" COMMENT="" />
    <EXPORT ORDINAL="348" NAME="??_7CTemplateAttachmentSet@@6B@" PURGE="-1" COMMENT="" />
    <EXPORT ORDINAL="349" NAME="??_7CTemplateSet@@6B@" PURGE="-1" COMMENT="" />
    <EXPORT ORDINAL="350" NAME="??_7CUSMStorage@@6BCStorage@@@" PURGE="-1" COMMENT="" />
    <EXPORT ORDINAL="351" NAME="??_7CUSMStorage@@6BCStoreRQ@@@" PURGE="-1" COMMENT="" />
    <EXPORT ORDINAL="352" NAME="??_7CUSMStorage@@6BCStoreRSP@@@" PURGE="-1" COMMENT="" />
    <EXPORT ORDINAL="353" NAME="??_7CUSMStorage@@6BUSNMultiframeImageIODModule@@@" PURGE="-1" COMMENT="" />
    <EXPORT ORDINAL="354" NAME="??_7CUSNMStorage@@6BCStorage@@@" PURGE="-1" COMMENT="" />
    <EXPORT ORDINAL="355" NAME="??_7CUSNMStorage@@6BCStoreRQ@@@" PURGE="-1" COMMENT="" />
    <EXPORT ORDINAL="356" NAME="??_7CUSNMStorage@@6BCStoreRSP@@@" PURGE="-1" COMMENT="" />
    <EXPORT ORDINAL="357" NAME="??_7CUSNMStorage@@6BUSNMultiframeImageIODModule@@@" PURGE="-1" COMMENT="" />
    <EXPORT ORDINAL="358" NAME="??_7CUSNStorage@@6BCStorage@@@" PURGE="-1" COMMENT="" />
    <EXPORT ORDINAL="359" NAME="??_7CUSNStorage@@6BCStoreRQ@@@" PURGE="-1" COMMENT="" />
    <EXPORT ORDINAL="360" NAME="??_7CUSNStorage@@6BCStoreRSP@@@" PURGE="-1" COMMENT="" />
    <EXPORT ORDINAL="361" NAME="??_7CUSNStorage@@6BUSImageIODModule@@@" PURGE="-1" COMMENT="" />
    <EXPORT ORDINAL="362" NAME="??_7CUSStorage@@6BCStorage@@@" PURGE="-1" COMMENT="" />
    <EXPORT ORDINAL="363" NAME="??_7CUSStorage@@6BCStoreRQ@@@" PURGE="-1" COMMENT="" />
    <EXPORT ORDINAL="364" NAME="??_7CUSStorage@@6BCStoreRSP@@@" PURGE="-1" COMMENT="" />
    <EXPORT ORDINAL="365" NAME="??_7CUSStorage@@6BUSImageIODModule@@@" PURGE="-1" COMMENT="" />
    <EXPORT ORDINAL="366" NAME="??_7CUnknownStorage@@6BCStoreRQ@@@" PURGE="-1" COMMENT="" />
    <EXPORT ORDINAL="367" NAME="??_7CUnknownStorage@@6BCStoreRSP@@@" PURGE="-1" COMMENT="" />
    <EXPORT ORDINAL="368" NAME="??_7CVerification@@6BCEchoRQ@@@" PURGE="-1" COMMENT="" />
    <EXPORT ORDINAL="369" NAME="??_7CVerification@@6BCEchoRSP@@@" PURGE="-1" COMMENT="" />
    <EXPORT ORDINAL="370" NAME="??_7CXABiStorage@@6BCStorage@@@" PURGE="-1" COMMENT="" />
    <EXPORT ORDINAL="371" NAME="??_7CXABiStorage@@6BCStoreRQ@@@" PURGE="-1" COMMENT="" />
    <EXPORT ORDINAL="372" NAME="??_7CXABiStorage@@6BCStoreRSP@@@" PURGE="-1" COMMENT="" />
    <EXPORT ORDINAL="373" NAME="??_7CXABiStorage@@6BXABiImageIODModule@@@" PURGE="-1" COMMENT="" />
    <EXPORT ORDINAL="374" NAME="??_7CXAStorage@@6BCStorage@@@" PURGE="-1" COMMENT="" />
    <EXPORT ORDINAL="375" NAME="??_7CXAStorage@@6BCStoreRQ@@@" PURGE="-1" COMMENT="" />
    <EXPORT ORDINAL="376" NAME="??_7CXAStorage@@6BCStoreRSP@@@" PURGE="-1" COMMENT="" />
    <EXPORT ORDINAL="377" NAME="??_7CXAStorage@@6BXAImageIODModule@@@" PURGE="-1" COMMENT="" />
    <EXPORT ORDINAL="378" NAME="??_FCBasicRecordset@@QAEXXZ" PURGE="0" COMMENT="" />
    <EXPORT ORDINAL="379" NAME="??_FCImageSet@@QAEXXZ" PURGE="0" COMMENT="" />
    <EXPORT ORDINAL="380" NAME="??_FCLoginSet@@QAEXXZ" PURGE="0" COMMENT="" />
    <EXPORT ORDINAL="381" NAME="??_FCPatientQuerySet@@QAEXXZ" PURGE="0" COMMENT="" />
    <EXPORT ORDINAL="382" NAME="??_FCPatientSet@@QAEXXZ" PURGE="0" COMMENT="" />
    <EXPORT ORDINAL="383" NAME="??_FCPresetsSet@@QAEXXZ" PURGE="0" COMMENT="" />
    <EXPORT ORDINAL="384" NAME="??_FCSeriesQuerySet@@QAEXXZ" PURGE="0" COMMENT="" />
    <EXPORT ORDINAL="385" NAME="??_FCSeriesSet@@QAEXXZ" PURGE="0" COMMENT="" />
    <EXPORT ORDINAL="386" NAME="??_FCServersSet@@QAEXXZ" PURGE="0" COMMENT="" />
    <EXPORT ORDINAL="387" NAME="??_FCStudyQuerySet@@QAEXXZ" PURGE="0" COMMENT="" />
    <EXPORT ORDINAL="388" NAME="??_FCStudySet@@QAEXXZ" PURGE="0" COMMENT="" />
    <EXPORT ORDINAL="389" NAME="??_FCTemplateAttachmentSet@@QAEXXZ" PURGE="0" COMMENT="" />
    <EXPORT ORDINAL="390" NAME="??_FCTemplateSet@@QAEXXZ" PURGE="0" COMMENT="" />
    <EXPORT ORDINAL="391" NAME="?Add@?$CArray@PAV?$CStringT@DV?$StrTraitMFC_DLL@DV?$ChTraitsCRT@D@ATL@@@@@ATL@@PAV12@@@QAEHPAV?$CStringT@DV?$StrTraitMFC_DLL@DV?$ChTraitsCRT@D@ATL@@@@@ATL@@@Z" PURGE="4" COMMENT="" />
    <EXPORT ORDINAL="392" NAME="?Add@?$CArray@PAVCResult@@PAV1@@@QAEHPAVCResult@@@Z" PURGE="4" COMMENT="" />
    <EXPORT ORDINAL="393" NAME="?AddNew@CBasicRecordset@@UAEXXZ" PURGE="0" COMMENT="" />
    <EXPORT ORDINAL="394" NAME="?AddParameter@CModalityWorklistQuery@@QAEXAAV?$CStringT@DV?$StrTraitMFC_DLL@DV?$ChTraitsCRT@D@ATL@@@@@ATL@@000@Z" PURGE="16" COMMENT="" />
    <EXPORT ORDINAL="395" NAME="?AddParameter@CStudyRootQuery@@QAEXAAV?$CStringT@DV?$StrTraitMFC_DLL@DV?$ChTraitsCRT@D@ATL@@@@@ATL@@000@Z" PURGE="16" COMMENT="" />
    <EXPORT ORDINAL="396" NAME="?AnyUnsupportedObjects@CDicomDirectory@@QAE_NXZ" PURGE="0" COMMENT="" />
    <EXPORT ORDINAL="397" NAME="?Append@?$CArray@PAV?$CStringT@DV?$StrTraitMFC_DLL@DV?$ChTraitsCRT@D@ATL@@@@@ATL@@PAV12@@@QAEHABV1@@Z" PURGE="4" COMMENT="" />
    <EXPORT ORDINAL="398" NAME="?Append@?$CArray@PAVCResult@@PAV1@@@QAEHABV1@@Z" PURGE="4" COMMENT="" />
    <EXPORT ORDINAL="399" NAME="?ArrangeElements@CDicomDirectory@@AAEXPAVDICOMObject@@PAV?$CArray@PAVCPatient@@PAV1@@@PAV?$CArray@PAVCStudy@@PAV1@@@PAV?$CArray@PAVCSeries@@PAV1@@@PAV?$CArray@PAVCImages@@PAV1@@@@Z" PURGE="20" COMMENT="" />
    <EXPORT ORDINAL="400" NAME="?CallBack@CMitraReportQuery@@UAEHPAVDICOMCommandObject@@PAVDICOMDataObject@@@Z" PURGE="8" COMMENT="" />
    <EXPORT ORDINAL="401" NAME="?CallBack@CModalityWorklistQuery@@UAEHPAVDICOMCommandObject@@PAVDICOMDataObject@@@Z" PURGE="8" COMMENT="" />
    <EXPORT ORDINAL="402" NAME="?CallBack@CPatientRootQuery@@UAEHPAVDICOMCommandObject@@PAVDICOMDataObject@@@Z" PURGE="8" COMMENT="" />
    <EXPORT ORDINAL="403" NAME="?CallBack@CPatientRootRetrieve@@UAEHPAVDICOMCommandObject@@PAVDICOMDataObject@@@Z" PURGE="8" COMMENT="" />
    <EXPORT ORDINAL="404" NAME="?CallBack@CStudyRootQuery@@UAEHPAVDICOMCommandObject@@PAVDICOMDataObject@@@Z" PURGE="8" COMMENT="" />
    <EXPORT ORDINAL="405" NAME="?CallBack@CStudyRootRetrieve@@UAEHPAVDICOMCommandObject@@PAVDICOMDataObject@@@Z" PURGE="8" COMMENT="" />
    <EXPORT ORDINAL="406" NAME="?CheckObject@CUnknownStorage@@UAEGPAVDICOMDataObject@@@Z" PURGE="4" COMMENT="" />
    <EXPORT ORDINAL="407" NAME="?CleanUp@CDicomDirectory@@AAEXXZ" PURGE="0" COMMENT="" />
    <EXPORT ORDINAL="408" NAME="?CleanUpImages@CSeries@@AAEXXZ" PURGE="0" COMMENT="" />
    <EXPORT ORDINAL="409" NAME="?CleanUpOtherObjects@CSeries@@AAEXXZ" PURGE="0" COMMENT="" />
    <EXPORT ORDINAL="410" NAME="?CleanUpSeries@CStudy@@AAEXXZ" PURGE="0" COMMENT="" />
    <EXPORT ORDINAL="411" NAME="?CleanUpStudies@CPatient@@AAEXXZ" PURGE="0" COMMENT="" />
    <EXPORT ORDINAL="412" NAME="?CleanupUnsupportedSOPClassesAndEmptySeries@CDicomDirectory@@AAEXXZ" PURGE="0" COMMENT="" />
    <EXPORT ORDINAL="413" NAME="?Client@CMitraReportQuery@@QAEHPAVDICOMDataObject@@AAV?$CStringT@DV?$StrTraitMFC_DLL@DV?$ChTraitsCRT@D@ATL@@@@@ATL@@111PAW4DCMDLL_STATUS@@@Z" PURGE="24" COMMENT="" />
    <EXPORT ORDINAL="414" NAME="?Client@CModalityWorklistQuery@@QAEHPAVDICOMDataObject@@AAV?$CStringT@DV?$StrTraitMFC_DLL@DV?$ChTraitsCRT@D@ATL@@@@@ATL@@111PAW4DCMDLL_STATUS@@@Z" PURGE="24" COMMENT="" />
    <EXPORT ORDINAL="415" NAME="?Client@CPatientRootQuery@@QAEHPAVDICOMDataObject@@AAV?$CStringT@DV?$StrTraitMFC_DLL@DV?$ChTraitsCRT@D@ATL@@@@@ATL@@111PAW4DCMDLL_STATUS@@@Z" PURGE="24" COMMENT="" />
    <EXPORT ORDINAL="416" NAME="?Client@CPatientRootRetrieve@@QAEHPAVDICOMDataObject@@AAV?$CStringT@DV?$StrTraitMFC_DLL@DV?$ChTraitsCRT@D@ATL@@@@@ATL@@111PAW4DCMDLL_STATUS@@@Z" PURGE="24" COMMENT="" />
    <EXPORT ORDINAL="417" NAME="?Client@CPrinter@@QAEHAAV?$CStringT@DV?$StrTraitMFC_DLL@DV?$ChTraitsCRT@D@ATL@@@@@ATL@@000PAW4DCMDLL_STATUS@@@Z" PURGE="20" COMMENT="" />
    <EXPORT ORDINAL="418" NAME="?Client@CStandardStorage@@QAEHPAVDICOMDataObject@@AAV?$CStringT@DV?$StrTraitMFC_DLL@DV?$ChTraitsCRT@D@ATL@@@@@ATL@@111PAW4DCMDLL_STATUS@@@Z" PURGE="24" COMMENT="" />
    <EXPORT ORDINAL="419" NAME="?Client@CStorage@@QAEHAAV?$CStringT@DV?$StrTraitMFC_DLL@DV?$ChTraitsCRT@D@ATL@@@@@ATL@@000PADPAW4DCMDLL_STATUS@@@Z" PURGE="24" COMMENT="" />
    <EXPORT ORDINAL="420" NAME="?Client@CStorage@@QAEHPAVDICOMDataObject@@AAV?$CStringT@DV?$StrTraitMFC_DLL@DV?$ChTraitsCRT@D@ATL@@@@@ATL@@111PAW4DCMDLL_STATUS@@@Z" PURGE="24" COMMENT="" />
    <EXPORT ORDINAL="421" NAME="?Client@CStudyRootQuery@@QAEHPAVDICOMDataObject@@AAV?$CStringT@DV?$StrTraitMFC_DLL@DV?$ChTraitsCRT@D@ATL@@@@@ATL@@111PAW4DCMDLL_STATUS@@@Z" PURGE="24" COMMENT="" />
    <EXPORT ORDINAL="422" NAME="?Client@CStudyRootRetrieve@@QAEHPAVDICOMDataObject@@AAV?$CStringT@DV?$StrTraitMFC_DLL@DV?$ChTraitsCRT@D@ATL@@@@@ATL@@111PAW4DCMDLL_STATUS@@@Z" PURGE="24" COMMENT="" />
    <EXPORT ORDINAL="423" NAME="?Client@CUnknownStorage@@QAEHPAVDICOMDataObject@@AAV?$CStringT@DV?$StrTraitMFC_DLL@DV?$ChTraitsCRT@D@ATL@@@@@ATL@@111PAW4DCMDLL_STATUS@@@Z" PURGE="24" COMMENT="" />
    <EXPORT ORDINAL="424" NAME="?Client@CVerification@@QAEHAAV?$CStringT@DV?$StrTraitMFC_DLL@DV?$ChTraitsCRT@D@ATL@@@@@ATL@@000PAW4DCMDLL_STATUS@@@Z" PURGE="20" COMMENT="" />
    <EXPORT ORDINAL="425" NAME="?Close@CBasicFilmSession@@QAEHXZ" PURGE="0" COMMENT="" />
    <EXPORT ORDINAL="426" NAME="?Close@CBasicRecordset@@UAEXXZ" PURGE="-1" COMMENT="" />
    <EXPORT ORDINAL="427" NAME="?ConstructStudyQueryFilter@CStudyRootQuery@@QAE?AV?$CStringT@DV?$StrTraitMFC_DLL@DV?$ChTraitsCRT@D@ATL@@@@@ATL@@V23@000000000@Z" PURGE="44" COMMENT="" />
    <EXPORT ORDINAL="428" NAME="?ContainsCaret@CPatientNameParser@@QAEHV?$CStringT@DV?$StrTraitMFC_DLL@DV?$ChTraitsCRT@D@ATL@@@@@ATL@@@Z" PURGE="4" COMMENT="" />
    <EXPORT ORDINAL="429" NAME="?ContainsComma@CPatientNameParser@@QAEHV?$CStringT@DV?$StrTraitMFC_DLL@DV?$ChTraitsCRT@D@ATL@@@@@ATL@@@Z" PURGE="4" COMMENT="" />
    <EXPORT ORDINAL="430" NAME="?ContainsSpace@CPatientNameParser@@QAEHV?$CStringT@DV?$StrTraitMFC_DLL@DV?$ChTraitsCRT@D@ATL@@@@@ATL@@@Z" PURGE="4" COMMENT="" />
    <EXPORT ORDINAL="431" NAME="?ConvertDICOM2RISModality@CModalityWorklistQuery@@QAEXAAV?$CStringT@DV?$StrTraitMFC_DLL@DV?$ChTraitsCRT@D@ATL@@@@@ATL@@0@Z" PURGE="8" COMMENT="" />
    <EXPORT ORDINAL="432" NAME="?ConvertRIS2DICOMModality@CModalityWorklistQuery@@QAEXAAV?$CStringT@DV?$StrTraitMFC_DLL@DV?$ChTraitsCRT@D@ATL@@@@@ATL@@0@Z" PURGE="8" COMMENT="" />
    <EXPORT ORDINAL="433" NAME="?Copy@?$CArray@PAV?$CStringT@DV?$StrTraitMFC_DLL@DV?$ChTraitsCRT@D@ATL@@@@@ATL@@PAV12@@@QAEXABV1@@Z" PURGE="4" COMMENT="" />
    <EXPORT ORDINAL="434" NAME="?Copy@?$CArray@PAVCResult@@PAV1@@@QAEXABV1@@Z" PURGE="4" COMMENT="" />
    <EXPORT ORDINAL="435" NAME="?CreateAssociation@CStorage@@SAPAVPDU_Service@@AAV?$CStringT@DV?$StrTraitMFC_DLL@DV?$ChTraitsCRT@D@ATL@@@@@ATL@@0000PAD@Z" PURGE="0" COMMENT="" />
    <EXPORT ORDINAL="436" NAME="?CreateSCStorage@CStandardStorage@@SAPAVCSCStorage@@XZ" PURGE="0" COMMENT="" />
    <EXPORT ORDINAL="437" NAME="?Delete@CBasicRecordset@@UAEXXZ" PURGE="0" COMMENT="" />
    <EXPORT ORDINAL="438" NAME="?DeleteAll@CResult@@QAEXXZ" PURGE="0" COMMENT="" />
    <EXPORT ORDINAL="439" NAME="?DeleteAll@CResultsArray@@QAEXXZ" PURGE="0" COMMENT="" />
    <EXPORT ORDINAL="440" NAME="?DoFieldExchange@CImageSet@@UAEXPAVCFieldExchange@@@Z" PURGE="4" COMMENT="" />
    <EXPORT ORDINAL="441" NAME="?DoFieldExchange@CLoginSet@@UAEXPAVCFieldExchange@@@Z" PURGE="4" COMMENT="" />
    <EXPORT ORDINAL="442" NAME="?DoFieldExchange@CPatientQuerySet@@UAEXPAVCFieldExchange@@@Z" PURGE="4" COMMENT="" />
    <EXPORT ORDINAL="443" NAME="?DoFieldExchange@CPatientSet@@UAEXPAVCFieldExchange@@@Z" PURGE="4" COMMENT="" />
    <EXPORT ORDINAL="444" NAME="?DoFieldExchange@CPresetsSet@@UAEXPAVCFieldExchange@@@Z" PURGE="4" COMMENT="" />
    <EXPORT ORDINAL="445" NAME="?DoFieldExchange@CSeriesQuerySet@@UAEXPAVCFieldExchange@@@Z" PURGE="4" COMMENT="" />
    <EXPORT ORDINAL="446" NAME="?DoFieldExchange@CSeriesSet@@UAEXPAVCFieldExchange@@@Z" PURGE="4" COMMENT="" />
    <EXPORT ORDINAL="447" NAME="?DoFieldExchange@CServersSet@@UAEXPAVCFieldExchange@@@Z" PURGE="4" COMMENT="" />
    <EXPORT ORDINAL="448" NAME="?DoFieldExchange@CStudyQuerySet@@UAEXPAVCFieldExchange@@@Z" PURGE="4" COMMENT="" />
    <EXPORT ORDINAL="449" NAME="?DoFieldExchange@CStudySet@@UAEXPAVCFieldExchange@@@Z" PURGE="4" COMMENT="" />
    <EXPORT ORDINAL="450" NAME="?DoFieldExchange@CTemplateAttachmentSet@@UAEXPAVCFieldExchange@@@Z" PURGE="4" COMMENT="" />
    <EXPORT ORDINAL="451" NAME="?DoFieldExchange@CTemplateSet@@UAEXPAVCFieldExchange@@@Z" PURGE="4" COMMENT="" />
    <EXPORT ORDINAL="452" NAME="?DoesStudyExist@CStorage@@QAEHPAVCDatabase@@AAJ@Z" PURGE="8" COMMENT="" />
    <EXPORT ORDINAL="453" NAME="?Edit@CBasicRecordset@@UAEXXZ" PURGE="0" COMMENT="" />
    <EXPORT ORDINAL="454" NAME="?ElementAt@?$CArray@PAV?$CStringT@DV?$StrTraitMFC_DLL@DV?$ChTraitsCRT@D@ATL@@@@@ATL@@PAV12@@@QAEAAPAV?$CStringT@DV?$StrTraitMFC_DLL@DV?$ChTraitsCRT@D@ATL@@@@@ATL@@H@Z" PURGE="4" COMMENT="" />
    <EXPORT ORDINAL="455" NAME="?ElementAt@?$CArray@PAV?$CStringT@DV?$StrTraitMFC_DLL@DV?$ChTraitsCRT@D@ATL@@@@@ATL@@PAV12@@@QBEABQAV?$CStringT@DV?$StrTraitMFC_DLL@DV?$ChTraitsCRT@D@ATL@@@@@ATL@@H@Z" PURGE="4" COMMENT="" />
    <EXPORT ORDINAL="456" NAME="?ElementAt@?$CArray@PAVCResult@@PAV1@@@QAEAAPAVCResult@@H@Z" PURGE="4" COMMENT="" />
    <EXPORT ORDINAL="457" NAME="?ElementAt@?$CArray@PAVCResult@@PAV1@@@QBEABQAVCResult@@H@Z" PURGE="4" COMMENT="" />
    <EXPORT ORDINAL="458" NAME="?ExtractElements@CDicomDirectory@@QAEXPAVDICOMObject@@@Z" PURGE="4" COMMENT="" />
    <EXPORT ORDINAL="459" NAME="?FindImage@CDicomDirectory@@AAEPAVCImages@@PAVCSeries@@PAV?$CArray@PAVCImages@@PAV1@@@V?$CStringT@DV?$StrTraitMFC_DLL@DV?$ChTraitsCRT@D@ATL@@@@@ATL@@@Z" PURGE="12" COMMENT="" />
    <EXPORT ORDINAL="460" NAME="?FindImageFromFile@CDicomDirectory@@AAE?AV?$CStringT@DV?$StrTraitMFC_DLL@DV?$ChTraitsCRT@D@ATL@@@@@ATL@@I@Z" PURGE="8" COMMENT="" />
    <EXPORT ORDINAL="461" NAME="?FindSeries@CDicomDirectory@@AAEPAVCSeries@@PAVCStudy@@PAV?$CArray@PAVCSeries@@PAV1@@@V?$CStringT@DV?$StrTraitMFC_DLL@DV?$ChTraitsCRT@D@ATL@@@@@ATL@@@Z" PURGE="12" COMMENT="" />
    <EXPORT ORDINAL="462" NAME="?FindSeriesFromFile@CDicomDirectory@@AAE?AV?$CStringT@DV?$StrTraitMFC_DLL@DV?$ChTraitsCRT@D@ATL@@@@@ATL@@I@Z" PURGE="8" COMMENT="" />
    <EXPORT ORDINAL="463" NAME="?FindStudy@CDicomDirectory@@AAEPAVCStudy@@PAVCPatient@@PAV?$CArray@PAVCStudy@@PAV1@@@V?$CStringT@DV?$StrTraitMFC_DLL@DV?$ChTraitsCRT@D@ATL@@@@@ATL@@@Z" PURGE="12" COMMENT="" />
    <EXPORT ORDINAL="464" NAME="?FindStudyFromFile@CDicomDirectory@@AAE?AV?$CStringT@DV?$StrTraitMFC_DLL@DV?$ChTraitsCRT@D@ATL@@@@@ATL@@I@Z" PURGE="8" COMMENT="" />
    <EXPORT ORDINAL="465" NAME="?FormatEnglishName@CPatientNameParser@@QAEXV?$CStringT@DV?$StrTraitMFC_DLL@DV?$ChTraitsCRT@D@ATL@@@@@ATL@@0000@Z" PURGE="20" COMMENT="" />
    <EXPORT ORDINAL="466" NAME="?FormateFilmEnglishName@CPatientNameParser@@QAEXV?$CStringT@DV?$StrTraitMFC_DLL@DV?$ChTraitsCRT@D@ATL@@@@@ATL@@0000@Z" PURGE="20" COMMENT="" />
    <EXPORT ORDINAL="467" NAME="?FreeExtra@?$CArray@PAV?$CStringT@DV?$StrTraitMFC_DLL@DV?$ChTraitsCRT@D@ATL@@@@@ATL@@PAV12@@@QAEXXZ" PURGE="0" COMMENT="" />
    <EXPORT ORDINAL="468" NAME="?FreeExtra@?$CArray@PAVCResult@@PAV1@@@QAEXXZ" PURGE="0" COMMENT="" />
    <EXPORT ORDINAL="469" NAME="?GenerateDICOMName@CPatientNameParser@@QAEXV?$CStringT@DV?$StrTraitMFC_DLL@DV?$ChTraitsCRT@D@ATL@@@@@ATL@@0000@Z" PURGE="20" COMMENT="" />
    <EXPORT ORDINAL="470" NAME="?Get@CCRStorage@@UAEPAVDICOMDataObject@@XZ" PURGE="0" COMMENT="" />
    <EXPORT ORDINAL="471" NAME="?Get@CCTStorage@@UAEPAVDICOMDataObject@@XZ" PURGE="0" COMMENT="" />
    <EXPORT ORDINAL="472" NAME="?Get@CDXRStorage@@UAEPAVDICOMDataObject@@XZ" PURGE="0" COMMENT="" />
    <EXPORT ORDINAL="473" NAME="?Get@CDXStorage@@UAEPAVDICOMDataObject@@XZ" PURGE="0" COMMENT="" />
    <EXPORT ORDINAL="474" NAME="?Get@CMGRStorage@@UAEPAVDICOMDataObject@@XZ" PURGE="0" COMMENT="" />
    <EXPORT ORDINAL="475" NAME="?Get@CMGStorage@@UAEPAVDICOMDataObject@@XZ" PURGE="0" COMMENT="" />
    <EXPORT ORDINAL="476" NAME="?Get@CMRStorage@@UAEPAVDICOMDataObject@@XZ" PURGE="0" COMMENT="" />
    <EXPORT ORDINAL="477" NAME="?Get@CNMNStorage@@UAEPAVDICOMDataObject@@XZ" PURGE="0" COMMENT="" />
    <EXPORT ORDINAL="478" NAME="?Get@CNMStorage@@UAEPAVDICOMDataObject@@XZ" PURGE="0" COMMENT="" />
    <EXPORT ORDINAL="479" NAME="?Get@CPETStorage@@UAEPAVDICOMDataObject@@XZ" PURGE="0" COMMENT="" />
    <EXPORT ORDINAL="480" NAME="?Get@CRFStorage@@UAEPAVDICOMDataObject@@XZ" PURGE="0" COMMENT="" />
    <EXPORT ORDINAL="481" NAME="?Get@CRTStorage@@UAEPAVDICOMDataObject@@XZ" PURGE="0" COMMENT="" />
    <EXPORT ORDINAL="482" NAME="?Get@CSCStorage@@UAEPAVDICOMDataObject@@XZ" PURGE="0" COMMENT="" />
    <EXPORT ORDINAL="483" NAME="?Get@CUSMStorage@@UAEPAVDICOMDataObject@@XZ" PURGE="0" COMMENT="" />
    <EXPORT ORDINAL="484" NAME="?Get@CUSNMStorage@@UAEPAVDICOMDataObject@@XZ" PURGE="0" COMMENT="" />
    <EXPORT ORDINAL="485" NAME="?Get@CUSNStorage@@UAEPAVDICOMDataObject@@XZ" PURGE="0" COMMENT="" />
    <EXPORT ORDINAL="486" NAME="?Get@CUSStorage@@UAEPAVDICOMDataObject@@XZ" PURGE="0" COMMENT="" />
    <EXPORT ORDINAL="487" NAME="?Get@CXABiStorage@@UAEPAVDICOMDataObject@@XZ" PURGE="0" COMMENT="" />
    <EXPORT ORDINAL="488" NAME="?Get@CXAStorage@@UAEPAVDICOMDataObject@@XZ" PURGE="0" COMMENT="" />
    <EXPORT ORDINAL="489" NAME="?GetAnnotationDisplayFormatID@CBasicFilmBox@@QAEAAV?$CStringT@DV?$StrTraitMFC_DLL@DV?$ChTraitsCRT@D@ATL@@@@@ATL@@XZ" PURGE="0" COMMENT="" />
    <EXPORT ORDINAL="490" NAME="?GetApprovalModule@CRTStorage@@QAEPAVCO_ApprovalModule@@XZ" PURGE="0" COMMENT="" />
    <EXPORT ORDINAL="491" NAME="?GetAt@?$CArray@PAV?$CStringT@DV?$StrTraitMFC_DLL@DV?$ChTraitsCRT@D@ATL@@@@@ATL@@PAV12@@@QAEAAPAV?$CStringT@DV?$StrTraitMFC_DLL@DV?$ChTraitsCRT@D@ATL@@@@@ATL@@H@Z" PURGE="4" COMMENT="" />
    <EXPORT ORDINAL="492" NAME="?GetAt@?$CArray@PAV?$CStringT@DV?$StrTraitMFC_DLL@DV?$ChTraitsCRT@D@ATL@@@@@ATL@@PAV12@@@QBEABQAV?$CStringT@DV?$StrTraitMFC_DLL@DV?$ChTraitsCRT@D@ATL@@@@@ATL@@H@Z" PURGE="4" COMMENT="" />
    <EXPORT ORDINAL="493" NAME="?GetAt@?$CArray@PAVCResult@@PAV1@@@QAEAAPAVCResult@@H@Z" PURGE="4" COMMENT="" />
    <EXPORT ORDINAL="494" NAME="?GetAt@?$CArray@PAVCResult@@PAV1@@@QBEABQAVCResult@@H@Z" PURGE="4" COMMENT="" />
    <EXPORT ORDINAL="495" NAME="?GetAudioModule@CRTStorage@@QAEPAVCO_AudioModule@@XZ" PURGE="0" COMMENT="" />
    <EXPORT ORDINAL="496" NAME="?GetBasicFilmSessionSOPInstanceUID@CBasicFilmBox@@QAEAAVUID@@XZ" PURGE="0" COMMENT="" />
    <EXPORT ORDINAL="497" NAME="?GetBitsAllocated@CPreformattedGrayscaleImage@@QAEGXZ" PURGE="0" COMMENT="" />
    <EXPORT ORDINAL="498" NAME="?GetBitsStored@CPreformattedGrayscaleImage@@QAEGXZ" PURGE="0" COMMENT="" />
    <EXPORT ORDINAL="499" NAME="?GetBorderDensity@CBasicFilmBox@@QAEAAV?$CStringT@DV?$StrTraitMFC_DLL@DV?$ChTraitsCRT@D@ATL@@@@@ATL@@XZ" PURGE="0" COMMENT="" />
    <EXPORT ORDINAL="500" NAME="?GetCRImageModule@CDXRStorage@@QAEPAVCO_CRImageModule@@XZ" PURGE="0" COMMENT="" />
    <EXPORT ORDINAL="501" NAME="?GetCRImageModule@CDXStorage@@QAEPAVCO_CRImageModule@@XZ" PURGE="0" COMMENT="" />
    <EXPORT ORDINAL="502" NAME="?GetCRImageModule@CMGRStorage@@QAEPAVCO_CRImageModule@@XZ" PURGE="0" COMMENT="" />
    <EXPORT ORDINAL="503" NAME="?GetCRImageModule@CMGStorage@@QAEPAVCO_CRImageModule@@XZ" PURGE="0" COMMENT="" />
    <EXPORT ORDINAL="504" NAME="?GetCRSeriesModule@CCRStorage@@QAEPAVCO_CRSeriesModule@@XZ" PURGE="0" COMMENT="" />
    <EXPORT ORDINAL="505" NAME="?GetCRSeriesModule@CDXRStorage@@QAEPAVCO_CRSeriesModule@@XZ" PURGE="0" COMMENT="" />
    <EXPORT ORDINAL="506" NAME="?GetCRSeriesModule@CDXStorage@@QAEPAVCO_CRSeriesModule@@XZ" PURGE="0" COMMENT="" />
    <EXPORT ORDINAL="507" NAME="?GetCRSeriesModule@CMGRStorage@@QAEPAVCO_CRSeriesModule@@XZ" PURGE="0" COMMENT="" />
    <EXPORT ORDINAL="508" NAME="?GetCRSeriesModule@CMGStorage@@QAEPAVCO_CRSeriesModule@@XZ" PURGE="0" COMMENT="" />
    <EXPORT ORDINAL="509" NAME="?GetCTImageModule@CCTStorage@@QAEPAVCO_CTImageModule@@XZ" PURGE="0" COMMENT="" />
    <EXPORT ORDINAL="510" NAME="?GetCTImageModule@CSCStorage@@QAEPAVCO_CTImageModule@@XZ" PURGE="0" COMMENT="" />
    <EXPORT ORDINAL="511" NAME="?GetCineModule@CRTStorage@@QAEPAVCO_CineModule@@XZ" PURGE="0" COMMENT="" />
    <EXPORT ORDINAL="512" NAME="?GetColumns@CPreformattedGrayscaleImage@@QAEGXZ" PURGE="0" COMMENT="" />
    <EXPORT ORDINAL="513" NAME="?GetConfigurationInformation@CBasicFilmBox@@QAEAAV?$CStringT@DV?$StrTraitMFC_DLL@DV?$ChTraitsCRT@D@ATL@@@@@ATL@@XZ" PURGE="0" COMMENT="" />
    <EXPORT ORDINAL="514" NAME="?GetContrastBolusModule@CCTStorage@@QAEPAVCO_ContrastBolusModule@@XZ" PURGE="0" COMMENT="" />
    <EXPORT ORDINAL="515" NAME="?GetContrastBolusModule@CMRStorage@@QAEPAVCO_ContrastBolusModule@@XZ" PURGE="0" COMMENT="" />
    <EXPORT ORDINAL="516" NAME="?GetContrastBolusModule@CRFStorage@@QAEPAVCO_ContrastBolusModule@@XZ" PURGE="0" COMMENT="" />
    <EXPORT ORDINAL="517" NAME="?GetContrastBolusModule@CRTStorage@@QAEPAVCO_ContrastBolusModule@@XZ" PURGE="0" COMMENT="" />
    <EXPORT ORDINAL="518" NAME="?GetContrastBolusModule@CUSMStorage@@QAEPAVCO_ContrastBolusModule@@XZ" PURGE="0" COMMENT="" />
    <EXPORT ORDINAL="519" NAME="?GetContrastBolusModule@CUSNMStorage@@QAEPAVCO_ContrastBolusModule@@XZ" PURGE="0" COMMENT="" />
    <EXPORT ORDINAL="520" NAME="?GetContrastBolusModule@CUSNStorage@@QAEPAVCO_ContrastBolusModule@@XZ" PURGE="0" COMMENT="" />
    <EXPORT ORDINAL="521" NAME="?GetContrastBolusModule@CUSStorage@@QAEPAVCO_ContrastBolusModule@@XZ" PURGE="0" COMMENT="" />
    <EXPORT ORDINAL="522" NAME="?GetContrastBolusModule@CXABiStorage@@QAEPAVCO_ContrastBolusModule@@XZ" PURGE="0" COMMENT="" />
    <EXPORT ORDINAL="523" NAME="?GetCount@?$CArray@PAV?$CStringT@DV?$StrTraitMFC_DLL@DV?$ChTraitsCRT@D@ATL@@@@@ATL@@PAV12@@@QBEHXZ" PURGE="0" COMMENT="" />
    <EXPORT ORDINAL="524" NAME="?GetCount@?$CArray@PAVCResult@@PAV1@@@QBEHXZ" PURGE="0" COMMENT="" />
    <EXPORT ORDINAL="525" NAME="?GetCurveModule@CRTStorage@@QAEPAVCO_CurveModule@@XZ" PURGE="0" COMMENT="" />
    <EXPORT ORDINAL="526" NAME="?GetDICOMPN@CPatientNameParser@@QAE?AV?$CStringT@DV?$StrTraitMFC_DLL@DV?$ChTraitsCRT@D@ATL@@@@@ATL@@XZ" PURGE="4" COMMENT="" />
    <EXPORT ORDINAL="527" NAME="?GetDXImageModule@CCRStorage@@QAEPAVCO_DXImageModule@@XZ" PURGE="0" COMMENT="" />
    <EXPORT ORDINAL="528" NAME="?GetDXImageModule@CDXRStorage@@QAEPAVCO_DXImageModule@@XZ" PURGE="0" COMMENT="" />
    <EXPORT ORDINAL="529" NAME="?GetDXImageModule@CDXStorage@@QAEPAVCO_DXImageModule@@XZ" PURGE="0" COMMENT="" />
    <EXPORT ORDINAL="530" NAME="?GetDXImageModule@CMGRStorage@@QAEPAVCO_DXImageModule@@XZ" PURGE="0" COMMENT="" />
    <EXPORT ORDINAL="531" NAME="?GetDXImageModule@CMGStorage@@QAEPAVCO_DXImageModule@@XZ" PURGE="0" COMMENT="" />
    <EXPORT ORDINAL="532" NAME="?GetData@?$CArray@PAV?$CStringT@DV?$StrTraitMFC_DLL@DV?$ChTraitsCRT@D@ATL@@@@@ATL@@PAV12@@@QAEPAPAV?$CStringT@DV?$StrTraitMFC_DLL@DV?$ChTraitsCRT@D@ATL@@@@@ATL@@XZ" PURGE="0" COMMENT="" />
    <EXPORT ORDINAL="533" NAME="?GetData@?$CArray@PAV?$CStringT@DV?$StrTraitMFC_DLL@DV?$ChTraitsCRT@D@ATL@@@@@ATL@@PAV12@@@QBEPBQAV?$CStringT@DV?$StrTraitMFC_DLL@DV?$ChTraitsCRT@D@ATL@@@@@ATL@@XZ" PURGE="0" COMMENT="" />
    <EXPORT ORDINAL="534" NAME="?GetData@?$CArray@PAVCResult@@PAV1@@@QAEPAPAVCResult@@XZ" PURGE="0" COMMENT="" />
    <EXPORT ORDINAL="535" NAME="?GetData@?$CArray@PAVCResult@@PAV1@@@QBEPBQAVCResult@@XZ" PURGE="0" COMMENT="" />
    <EXPORT ORDINAL="536" NAME="?GetDateOfLastCalibration@CPrinter@@QAE?AV?$CStringT@DV?$StrTraitMFC_DLL@DV?$ChTraitsCRT@D@ATL@@@@@ATL@@XZ" PURGE="4" COMMENT="" />
    <EXPORT ORDINAL="537" NAME="?GetDefaultConnect@CImageSet@@UAE?AV?$CStringT@DV?$StrTraitMFC_DLL@DV?$ChTraitsCRT@D@ATL@@@@@ATL@@XZ" PURGE="4" COMMENT="" />
    <EXPORT ORDINAL="538" NAME="?GetDefaultConnect@CLoginSet@@UAE?AV?$CStringT@DV?$StrTraitMFC_DLL@DV?$ChTraitsCRT@D@ATL@@@@@ATL@@XZ" PURGE="4" COMMENT="" />
    <EXPORT ORDINAL="539" NAME="?GetDefaultConnect@CPatientQuerySet@@UAE?AV?$CStringT@DV?$StrTraitMFC_DLL@DV?$ChTraitsCRT@D@ATL@@@@@ATL@@XZ" PURGE="4" COMMENT="" />
    <EXPORT ORDINAL="540" NAME="?GetDefaultConnect@CPatientSet@@UAE?AV?$CStringT@DV?$StrTraitMFC_DLL@DV?$ChTraitsCRT@D@ATL@@@@@ATL@@XZ" PURGE="4" COMMENT="" />
    <EXPORT ORDINAL="541" NAME="?GetDefaultConnect@CPresetsSet@@UAE?AV?$CStringT@DV?$StrTraitMFC_DLL@DV?$ChTraitsCRT@D@ATL@@@@@ATL@@XZ" PURGE="4" COMMENT="" />
    <EXPORT ORDINAL="542" NAME="?GetDefaultConnect@CSeriesQuerySet@@UAE?AV?$CStringT@DV?$StrTraitMFC_DLL@DV?$ChTraitsCRT@D@ATL@@@@@ATL@@XZ" PURGE="4" COMMENT="" />
    <EXPORT ORDINAL="543" NAME="?GetDefaultConnect@CSeriesSet@@UAE?AV?$CStringT@DV?$StrTraitMFC_DLL@DV?$ChTraitsCRT@D@ATL@@@@@ATL@@XZ" PURGE="4" COMMENT="" />
    <EXPORT ORDINAL="544" NAME="?GetDefaultConnect@CServersSet@@UAE?AV?$CStringT@DV?$StrTraitMFC_DLL@DV?$ChTraitsCRT@D@ATL@@@@@ATL@@XZ" PURGE="4" COMMENT="" />
    <EXPORT ORDINAL="545" NAME="?GetDefaultConnect@CStudyQuerySet@@UAE?AV?$CStringT@DV?$StrTraitMFC_DLL@DV?$ChTraitsCRT@D@ATL@@@@@ATL@@XZ" PURGE="4" COMMENT="" />
    <EXPORT ORDINAL="546" NAME="?GetDefaultConnect@CStudySet@@UAE?AV?$CStringT@DV?$StrTraitMFC_DLL@DV?$ChTraitsCRT@D@ATL@@@@@ATL@@XZ" PURGE="4" COMMENT="" />
    <EXPORT ORDINAL="547" NAME="?GetDefaultConnect@CTemplateAttachmentSet@@UAE?AV?$CStringT@DV?$StrTraitMFC_DLL@DV?$ChTraitsCRT@D@ATL@@@@@ATL@@XZ" PURGE="4" COMMENT="" />
    <EXPORT ORDINAL="548" NAME="?GetDefaultConnect@CTemplateSet@@UAE?AV?$CStringT@DV?$StrTraitMFC_DLL@DV?$ChTraitsCRT@D@ATL@@@@@ATL@@XZ" PURGE="4" COMMENT="" />
    <EXPORT ORDINAL="549" NAME="?GetDefaultSQL@CImageSet@@UAE?AV?$CStringT@DV?$StrTraitMFC_DLL@DV?$ChTraitsCRT@D@ATL@@@@@ATL@@XZ" PURGE="4" COMMENT="" />
    <EXPORT ORDINAL="550" NAME="?GetDefaultSQL@CLoginSet@@UAE?AV?$CStringT@DV?$StrTraitMFC_DLL@DV?$ChTraitsCRT@D@ATL@@@@@ATL@@XZ" PURGE="4" COMMENT="" />
    <EXPORT ORDINAL="551" NAME="?GetDefaultSQL@CPatientQuerySet@@UAE?AV?$CStringT@DV?$StrTraitMFC_DLL@DV?$ChTraitsCRT@D@ATL@@@@@ATL@@XZ" PURGE="4" COMMENT="" />
    <EXPORT ORDINAL="552" NAME="?GetDefaultSQL@CPatientSet@@UAE?AV?$CStringT@DV?$StrTraitMFC_DLL@DV?$ChTraitsCRT@D@ATL@@@@@ATL@@XZ" PURGE="4" COMMENT="" />
    <EXPORT ORDINAL="553" NAME="?GetDefaultSQL@CPresetsSet@@UAE?AV?$CStringT@DV?$StrTraitMFC_DLL@DV?$ChTraitsCRT@D@ATL@@@@@ATL@@XZ" PURGE="4" COMMENT="" />
    <EXPORT ORDINAL="554" NAME="?GetDefaultSQL@CSeriesQuerySet@@UAE?AV?$CStringT@DV?$StrTraitMFC_DLL@DV?$ChTraitsCRT@D@ATL@@@@@ATL@@XZ" PURGE="4" COMMENT="" />
    <EXPORT ORDINAL="555" NAME="?GetDefaultSQL@CSeriesSet@@UAE?AV?$CStringT@DV?$StrTraitMFC_DLL@DV?$ChTraitsCRT@D@ATL@@@@@ATL@@XZ" PURGE="4" COMMENT="" />
    <EXPORT ORDINAL="556" NAME="?GetDefaultSQL@CServersSet@@UAE?AV?$CStringT@DV?$StrTraitMFC_DLL@DV?$ChTraitsCRT@D@ATL@@@@@ATL@@XZ" PURGE="4" COMMENT="" />
    <EXPORT ORDINAL="557" NAME="?GetDefaultSQL@CStudyQuerySet@@UAE?AV?$CStringT@DV?$StrTraitMFC_DLL@DV?$ChTraitsCRT@D@ATL@@@@@ATL@@XZ" PURGE="4" COMMENT="" />
    <EXPORT ORDINAL="558" NAME="?GetDefaultSQL@CStudySet@@UAE?AV?$CStringT@DV?$StrTraitMFC_DLL@DV?$ChTraitsCRT@D@ATL@@@@@ATL@@XZ" PURGE="4" COMMENT="" />
    <EXPORT ORDINAL="559" NAME="?GetDefaultSQL@CTemplateAttachmentSet@@UAE?AV?$CStringT@DV?$StrTraitMFC_DLL@DV?$ChTraitsCRT@D@ATL@@@@@ATL@@XZ" PURGE="4" COMMENT="" />
    <EXPORT ORDINAL="560" NAME="?GetDefaultSQL@CTemplateSet@@UAE?AV?$CStringT@DV?$StrTraitMFC_DLL@DV?$ChTraitsCRT@D@ATL@@@@@ATL@@XZ" PURGE="4" COMMENT="" />
    <EXPORT ORDINAL="561" NAME="?GetDeviceSerialNumber@CPrinter@@QAE?AV?$CStringT@DV?$StrTraitMFC_DLL@DV?$ChTraitsCRT@D@ATL@@@@@ATL@@XZ" PURGE="4" COMMENT="" />
    <EXPORT ORDINAL="562" NAME="?GetElement@CMitraReportQuery@@QAE?AV?$CStringT@DV?$StrTraitMFC_DLL@DV?$ChTraitsCRT@D@ATL@@@@@ATL@@IIPAVDICOMDataObject@@@Z" PURGE="16" COMMENT="" />
    <EXPORT ORDINAL="563" NAME="?GetEmptyImageDensity@CBasicFilmBox@@QAEAAV?$CStringT@DV?$StrTraitMFC_DLL@DV?$ChTraitsCRT@D@ATL@@@@@ATL@@XZ" PURGE="0" COMMENT="" />
    <EXPORT ORDINAL="564" NAME="?GetEnglishPN@CPatientNameParser@@QAE?AV?$CStringT@DV?$StrTraitMFC_DLL@DV?$ChTraitsCRT@D@ATL@@@@@ATL@@XZ" PURGE="4" COMMENT="" />
    <EXPORT ORDINAL="565" NAME="?GetFilmDestination@CBasicFilmSession@@QAEAAV?$CStringT@DV?$StrTraitMFC_DLL@DV?$ChTraitsCRT@D@ATL@@@@@ATL@@XZ" PURGE="0" COMMENT="" />
    <EXPORT ORDINAL="566" NAME="?GetFilmOrientation@CBasicFilmBox@@QAEAAV?$CStringT@DV?$StrTraitMFC_DLL@DV?$ChTraitsCRT@D@ATL@@@@@ATL@@XZ" PURGE="0" COMMENT="" />
    <EXPORT ORDINAL="567" NAME="?GetFilmSessionLabel@CBasicFilmSession@@QAEAAV?$CStringT@DV?$StrTraitMFC_DLL@DV?$ChTraitsCRT@D@ATL@@@@@ATL@@XZ" PURGE="0" COMMENT="" />
    <EXPORT ORDINAL="568" NAME="?GetFilmSizeID@CBasicFilmBox@@QAEAAV?$CStringT@DV?$StrTraitMFC_DLL@DV?$ChTraitsCRT@D@ATL@@@@@ATL@@XZ" PURGE="0" COMMENT="" />
    <EXPORT ORDINAL="569" NAME="?GetFirstName@CPatientNameParser@@QAE?AV?$CStringT@DV?$StrTraitMFC_DLL@DV?$ChTraitsCRT@D@ATL@@@@@ATL@@XZ" PURGE="4" COMMENT="" />
    <EXPORT ORDINAL="570" NAME="?GetFrameOfReferenceModule@CCTStorage@@UAEPAVCO_FrameOfReferenceModule@@XZ" PURGE="0" COMMENT="" />
    <EXPORT ORDINAL="571" NAME="?GetFrameOfReferenceModule@CMRStorage@@UAEPAVCO_FrameOfReferenceModule@@XZ" PURGE="0" COMMENT="" />
    <EXPORT ORDINAL="572" NAME="?GetFrameOfReferenceModule@CPETStorage@@UAEPAVCO_FrameOfReferenceModule@@XZ" PURGE="0" COMMENT="" />
    <EXPORT ORDINAL="573" NAME="?GetFrameOfReferenceModule@CRTStorage@@UAEPAVCO_FrameOfReferenceModule@@XZ" PURGE="0" COMMENT="" />
    <EXPORT ORDINAL="574" NAME="?GetFrameOfReferenceModule@CStorage@@UAEPAVCO_FrameOfReferenceModule@@XZ" PURGE="0" COMMENT="" />
    <EXPORT ORDINAL="575" NAME="?GetFrameOfReferenceModule@CUSMStorage@@UAEPAVCO_FrameOfReferenceModule@@XZ" PURGE="0" COMMENT="" />
    <EXPORT ORDINAL="576" NAME="?GetFrameOfReferenceModule@CUSNMStorage@@UAEPAVCO_FrameOfReferenceModule@@XZ" PURGE="0" COMMENT="" />
    <EXPORT ORDINAL="577" NAME="?GetFrameOfReferenceModule@CUSNStorage@@UAEPAVCO_FrameOfReferenceModule@@XZ" PURGE="0" COMMENT="" />
    <EXPORT ORDINAL="578" NAME="?GetFrameOfReferenceModule@CUSStorage@@UAEPAVCO_FrameOfReferenceModule@@XZ" PURGE="0" COMMENT="" />
    <EXPORT ORDINAL="579" NAME="?GetGeneralEquipmentModule@CCRStorage@@UAEPAVCO_GeneralEquipmentModule@@XZ" PURGE="0" COMMENT="" />
    <EXPORT ORDINAL="580" NAME="?GetGeneralEquipmentModule@CCTStorage@@UAEPAVCO_GeneralEquipmentModule@@XZ" PURGE="0" COMMENT="" />
    <EXPORT ORDINAL="581" NAME="?GetGeneralEquipmentModule@CDXRStorage@@UAEPAVCO_GeneralEquipmentModule@@XZ" PURGE="0" COMMENT="" />
    <EXPORT ORDINAL="582" NAME="?GetGeneralEquipmentModule@CDXStorage@@UAEPAVCO_GeneralEquipmentModule@@XZ" PURGE="0" COMMENT="" />
    <EXPORT ORDINAL="583" NAME="?GetGeneralEquipmentModule@CMGRStorage@@UAEPAVCO_GeneralEquipmentModule@@XZ" PURGE="0" COMMENT="" />
    <EXPORT ORDINAL="584" NAME="?GetGeneralEquipmentModule@CMGStorage@@UAEPAVCO_GeneralEquipmentModule@@XZ" PURGE="0" COMMENT="" />
    <EXPORT ORDINAL="585" NAME="?GetGeneralEquipmentModule@CMRStorage@@UAEPAVCO_GeneralEquipmentModule@@XZ" PURGE="0" COMMENT="" />
    <EXPORT ORDINAL="586" NAME="?GetGeneralEquipmentModule@CNMNStorage@@UAEPAVCO_GeneralEquipmentModule@@XZ" PURGE="0" COMMENT="" />
    <EXPORT ORDINAL="587" NAME="?GetGeneralEquipmentModule@CNMStorage@@UAEPAVCO_GeneralEquipmentModule@@XZ" PURGE="0" COMMENT="" />
    <EXPORT ORDINAL="588" NAME="?GetGeneralEquipmentModule@CPETStorage@@UAEPAVCO_GeneralEquipmentModule@@XZ" PURGE="0" COMMENT="" />
    <EXPORT ORDINAL="589" NAME="?GetGeneralEquipmentModule@CRFStorage@@UAEPAVCO_GeneralEquipmentModule@@XZ" PURGE="0" COMMENT="" />
    <EXPORT ORDINAL="590" NAME="?GetGeneralEquipmentModule@CRTStorage@@UAEPAVCO_GeneralEquipmentModule@@XZ" PURGE="0" COMMENT="" />
    <EXPORT ORDINAL="591" NAME="?GetGeneralEquipmentModule@CSCStorage@@UAEPAVCO_GeneralEquipmentModule@@XZ" PURGE="0" COMMENT="" />
    <EXPORT ORDINAL="592" NAME="?GetGeneralEquipmentModule@CUSMStorage@@UAEPAVCO_GeneralEquipmentModule@@XZ" PURGE="0" COMMENT="" />
    <EXPORT ORDINAL="593" NAME="?GetGeneralEquipmentModule@CUSNMStorage@@UAEPAVCO_GeneralEquipmentModule@@XZ" PURGE="0" COMMENT="" />
    <EXPORT ORDINAL="594" NAME="?GetGeneralEquipmentModule@CUSNStorage@@UAEPAVCO_GeneralEquipmentModule@@XZ" PURGE="0" COMMENT="" />
    <EXPORT ORDINAL="595" NAME="?GetGeneralEquipmentModule@CUSStorage@@UAEPAVCO_GeneralEquipmentModule@@XZ" PURGE="0" COMMENT="" />
    <EXPORT ORDINAL="596" NAME="?GetGeneralEquipmentModule@CXABiStorage@@UAEPAVCO_GeneralEquipmentModule@@XZ" PURGE="0" COMMENT="" />
    <EXPORT ORDINAL="597" NAME="?GetGeneralEquipmentModule@CXAStorage@@UAEPAVCO_GeneralEquipmentModule@@XZ" PURGE="0" COMMENT="" />
    <EXPORT ORDINAL="598" NAME="?GetGeneralImageModule@CCRStorage@@UAEPAVCO_GeneralImageModule@@XZ" PURGE="0" COMMENT="" />
    <EXPORT ORDINAL="599" NAME="?GetGeneralImageModule@CCTStorage@@UAEPAVCO_GeneralImageModule@@XZ" PURGE="0" COMMENT="" />
    <EXPORT ORDINAL="600" NAME="?GetGeneralImageModule@CDXRStorage@@UAEPAVCO_GeneralImageModule@@XZ" PURGE="0" COMMENT="" />
    <EXPORT ORDINAL="601" NAME="?GetGeneralImageModule@CDXStorage@@UAEPAVCO_GeneralImageModule@@XZ" PURGE="0" COMMENT="" />
    <EXPORT ORDINAL="602" NAME="?GetGeneralImageModule@CMGRStorage@@UAEPAVCO_GeneralImageModule@@XZ" PURGE="0" COMMENT="" />
    <EXPORT ORDINAL="603" NAME="?GetGeneralImageModule@CMGStorage@@UAEPAVCO_GeneralImageModule@@XZ" PURGE="0" COMMENT="" />
    <EXPORT ORDINAL="604" NAME="?GetGeneralImageModule@CMRStorage@@UAEPAVCO_GeneralImageModule@@XZ" PURGE="0" COMMENT="" />
    <EXPORT ORDINAL="605" NAME="?GetGeneralImageModule@CNMNStorage@@UAEPAVCO_GeneralImageModule@@XZ" PURGE="0" COMMENT="" />
    <EXPORT ORDINAL="606" NAME="?GetGeneralImageModule@CNMStorage@@UAEPAVCO_GeneralImageModule@@XZ" PURGE="0" COMMENT="" />
    <EXPORT ORDINAL="607" NAME="?GetGeneralImageModule@CPETStorage@@UAEPAVCO_GeneralImageModule@@XZ" PURGE="0" COMMENT="" />
    <EXPORT ORDINAL="608" NAME="?GetGeneralImageModule@CRFStorage@@UAEPAVCO_GeneralImageModule@@XZ" PURGE="0" COMMENT="" />
    <EXPORT ORDINAL="609" NAME="?GetGeneralImageModule@CRTStorage@@UAEPAVCO_GeneralImageModule@@XZ" PURGE="0" COMMENT="" />
    <EXPORT ORDINAL="610" NAME="?GetGeneralImageModule@CSCStorage@@UAEPAVCO_GeneralImageModule@@XZ" PURGE="0" COMMENT="" />
    <EXPORT ORDINAL="611" NAME="?GetGeneralImageModule@CUSMStorage@@UAEPAVCO_GeneralImageModule@@XZ" PURGE="0" COMMENT="" />
    <EXPORT ORDINAL="612" NAME="?GetGeneralImageModule@CUSNMStorage@@UAEPAVCO_GeneralImageModule@@XZ" PURGE="0" COMMENT="" />
    <EXPORT ORDINAL="613" NAME="?GetGeneralImageModule@CUSNStorage@@UAEPAVCO_GeneralImageModule@@XZ" PURGE="0" COMMENT="" />
    <EXPORT ORDINAL="614" NAME="?GetGeneralImageModule@CUSStorage@@UAEPAVCO_GeneralImageModule@@XZ" PURGE="0" COMMENT="" />
    <EXPORT ORDINAL="615" NAME="?GetGeneralImageModule@CXABiStorage@@UAEPAVCO_GeneralImageModule@@XZ" PURGE="0" COMMENT="" />
    <EXPORT ORDINAL="616" NAME="?GetGeneralImageModule@CXAStorage@@UAEPAVCO_GeneralImageModule@@XZ" PURGE="0" COMMENT="" />
    <EXPORT ORDINAL="617" NAME="?GetGeneralSeriesModule@CCRStorage@@UAEPAVCO_GeneralSeriesModule@@XZ" PURGE="0" COMMENT="" />
    <EXPORT ORDINAL="618" NAME="?GetGeneralSeriesModule@CCTStorage@@UAEPAVCO_GeneralSeriesModule@@XZ" PURGE="0" COMMENT="" />
    <EXPORT ORDINAL="619" NAME="?GetGeneralSeriesModule@CDXRStorage@@UAEPAVCO_GeneralSeriesModule@@XZ" PURGE="0" COMMENT="" />
    <EXPORT ORDINAL="620" NAME="?GetGeneralSeriesModule@CDXStorage@@UAEPAVCO_GeneralSeriesModule@@XZ" PURGE="0" COMMENT="" />
    <EXPORT ORDINAL="621" NAME="?GetGeneralSeriesModule@CMGRStorage@@UAEPAVCO_GeneralSeriesModule@@XZ" PURGE="0" COMMENT="" />
    <EXPORT ORDINAL="622" NAME="?GetGeneralSeriesModule@CMGStorage@@UAEPAVCO_GeneralSeriesModule@@XZ" PURGE="0" COMMENT="" />
    <EXPORT ORDINAL="623" NAME="?GetGeneralSeriesModule@CMRStorage@@UAEPAVCO_GeneralSeriesModule@@XZ" PURGE="0" COMMENT="" />
    <EXPORT ORDINAL="624" NAME="?GetGeneralSeriesModule@CNMNStorage@@UAEPAVCO_GeneralSeriesModule@@XZ" PURGE="0" COMMENT="" />
    <EXPORT ORDINAL="625" NAME="?GetGeneralSeriesModule@CNMStorage@@UAEPAVCO_GeneralSeriesModule@@XZ" PURGE="0" COMMENT="" />
    <EXPORT ORDINAL="626" NAME="?GetGeneralSeriesModule@CPETStorage@@UAEPAVCO_GeneralSeriesModule@@XZ" PURGE="0" COMMENT="" />
    <EXPORT ORDINAL="627" NAME="?GetGeneralSeriesModule@CRFStorage@@UAEPAVCO_GeneralSeriesModule@@XZ" PURGE="0" COMMENT="" />
    <EXPORT ORDINAL="628" NAME="?GetGeneralSeriesModule@CRTStorage@@UAEPAVCO_GeneralSeriesModule@@XZ" PURGE="0" COMMENT="" />
    <EXPORT ORDINAL="629" NAME="?GetGeneralSeriesModule@CSCStorage@@UAEPAVCO_GeneralSeriesModule@@XZ" PURGE="0" COMMENT="" />
    <EXPORT ORDINAL="630" NAME="?GetGeneralSeriesModule@CUSMStorage@@UAEPAVCO_GeneralSeriesModule@@XZ" PURGE="0" COMMENT="" />
    <EXPORT ORDINAL="631" NAME="?GetGeneralSeriesModule@CUSNMStorage@@UAEPAVCO_GeneralSeriesModule@@XZ" PURGE="0" COMMENT="" />
    <EXPORT ORDINAL="632" NAME="?GetGeneralSeriesModule@CUSNStorage@@UAEPAVCO_GeneralSeriesModule@@XZ" PURGE="0" COMMENT="" />
    <EXPORT ORDINAL="633" NAME="?GetGeneralSeriesModule@CUSStorage@@UAEPAVCO_GeneralSeriesModule@@XZ" PURGE="0" COMMENT="" />
    <EXPORT ORDINAL="634" NAME="?GetGeneralSeriesModule@CXABiStorage@@UAEPAVCO_GeneralSeriesModule@@XZ" PURGE="0" COMMENT="" />
    <EXPORT ORDINAL="635" NAME="?GetGeneralSeriesModule@CXAStorage@@UAEPAVCO_GeneralSeriesModule@@XZ" PURGE="0" COMMENT="" />
    <EXPORT ORDINAL="636" NAME="?GetGeneralStudyModule@CCRStorage@@UAEPAVCO_GeneralStudyModule@@XZ" PURGE="0" COMMENT="" />
    <EXPORT ORDINAL="637" NAME="?GetGeneralStudyModule@CCTStorage@@UAEPAVCO_GeneralStudyModule@@XZ" PURGE="0" COMMENT="" />
    <EXPORT ORDINAL="638" NAME="?GetGeneralStudyModule@CDXRStorage@@UAEPAVCO_GeneralStudyModule@@XZ" PURGE="0" COMMENT="" />
    <EXPORT ORDINAL="639" NAME="?GetGeneralStudyModule@CDXStorage@@UAEPAVCO_GeneralStudyModule@@XZ" PURGE="0" COMMENT="" />
    <EXPORT ORDINAL="640" NAME="?GetGeneralStudyModule@CMGRStorage@@UAEPAVCO_GeneralStudyModule@@XZ" PURGE="0" COMMENT="" />
    <EXPORT ORDINAL="641" NAME="?GetGeneralStudyModule@CMGStorage@@UAEPAVCO_GeneralStudyModule@@XZ" PURGE="0" COMMENT="" />
    <EXPORT ORDINAL="642" NAME="?GetGeneralStudyModule@CMRStorage@@UAEPAVCO_GeneralStudyModule@@XZ" PURGE="0" COMMENT="" />
    <EXPORT ORDINAL="643" NAME="?GetGeneralStudyModule@CNMNStorage@@UAEPAVCO_GeneralStudyModule@@XZ" PURGE="0" COMMENT="" />
    <EXPORT ORDINAL="644" NAME="?GetGeneralStudyModule@CNMStorage@@UAEPAVCO_GeneralStudyModule@@XZ" PURGE="0" COMMENT="" />
    <EXPORT ORDINAL="645" NAME="?GetGeneralStudyModule@CPETStorage@@UAEPAVCO_GeneralStudyModule@@XZ" PURGE="0" COMMENT="" />
    <EXPORT ORDINAL="646" NAME="?GetGeneralStudyModule@CRFStorage@@UAEPAVCO_GeneralStudyModule@@XZ" PURGE="0" COMMENT="" />
    <EXPORT ORDINAL="647" NAME="?GetGeneralStudyModule@CRTStorage@@UAEPAVCO_GeneralStudyModule@@XZ" PURGE="0" COMMENT="" />
    <EXPORT ORDINAL="648" NAME="?GetGeneralStudyModule@CSCStorage@@UAEPAVCO_GeneralStudyModule@@XZ" PURGE="0" COMMENT="" />
    <EXPORT ORDINAL="649" NAME="?GetGeneralStudyModule@CUSMStorage@@UAEPAVCO_GeneralStudyModule@@XZ" PURGE="0" COMMENT="" />
    <EXPORT ORDINAL="650" NAME="?GetGeneralStudyModule@CUSNMStorage@@UAEPAVCO_GeneralStudyModule@@XZ" PURGE="0" COMMENT="" />
    <EXPORT ORDINAL="651" NAME="?GetGeneralStudyModule@CUSNStorage@@UAEPAVCO_GeneralStudyModule@@XZ" PURGE="0" COMMENT="" />
    <EXPORT ORDINAL="652" NAME="?GetGeneralStudyModule@CUSStorage@@UAEPAVCO_GeneralStudyModule@@XZ" PURGE="0" COMMENT="" />
    <EXPORT ORDINAL="653" NAME="?GetGeneralStudyModule@CXABiStorage@@UAEPAVCO_GeneralStudyModule@@XZ" PURGE="0" COMMENT="" />
    <EXPORT ORDINAL="654" NAME="?GetGeneralStudyModule@CXAStorage@@UAEPAVCO_GeneralStudyModule@@XZ" PURGE="0" COMMENT="" />
    <EXPORT ORDINAL="655" NAME="?GetHighBit@CPreformattedGrayscaleImage@@QAEGXZ" PURGE="0" COMMENT="" />
    <EXPORT ORDINAL="656" NAME="?GetImageDisplayFormat@CBasicFilmBox@@QAEAAV?$CStringT@DV?$StrTraitMFC_DLL@DV?$ChTraitsCRT@D@ATL@@@@@ATL@@XZ" PURGE="0" COMMENT="" />
    <EXPORT ORDINAL="657" NAME="?GetImagePixelModule@CCRStorage@@UAEPAVCO_ImagePixelModule@@XZ" PURGE="0" COMMENT="" />
    <EXPORT ORDINAL="658" NAME="?GetImagePixelModule@CCTStorage@@UAEPAVCO_ImagePixelModule@@XZ" PURGE="0" COMMENT="" />
    <EXPORT ORDINAL="659" NAME="?GetImagePixelModule@CDXRStorage@@UAEPAVCO_ImagePixelModule@@XZ" PURGE="0" COMMENT="" />
    <EXPORT ORDINAL="660" NAME="?GetImagePixelModule@CDXStorage@@UAEPAVCO_ImagePixelModule@@XZ" PURGE="0" COMMENT="" />
    <EXPORT ORDINAL="661" NAME="?GetImagePixelModule@CMGRStorage@@UAEPAVCO_ImagePixelModule@@XZ" PURGE="0" COMMENT="" />
    <EXPORT ORDINAL="662" NAME="?GetImagePixelModule@CMGStorage@@UAEPAVCO_ImagePixelModule@@XZ" PURGE="0" COMMENT="" />
    <EXPORT ORDINAL="663" NAME="?GetImagePixelModule@CMRStorage@@UAEPAVCO_ImagePixelModule@@XZ" PURGE="0" COMMENT="" />
    <EXPORT ORDINAL="664" NAME="?GetImagePixelModule@CNMNStorage@@UAEPAVCO_ImagePixelModule@@XZ" PURGE="0" COMMENT="" />
    <EXPORT ORDINAL="665" NAME="?GetImagePixelModule@CNMStorage@@UAEPAVCO_ImagePixelModule@@XZ" PURGE="0" COMMENT="" />
    <EXPORT ORDINAL="666" NAME="?GetImagePixelModule@CPETStorage@@UAEPAVCO_ImagePixelModule@@XZ" PURGE="0" COMMENT="" />
    <EXPORT ORDINAL="667" NAME="?GetImagePixelModule@CRFStorage@@UAEPAVCO_ImagePixelModule@@XZ" PURGE="0" COMMENT="" />
    <EXPORT ORDINAL="668" NAME="?GetImagePixelModule@CRTStorage@@UAEPAVCO_ImagePixelModule@@XZ" PURGE="0" COMMENT="" />
    <EXPORT ORDINAL="669" NAME="?GetImagePixelModule@CSCStorage@@UAEPAVCO_ImagePixelModule@@XZ" PURGE="0" COMMENT="" />
    <EXPORT ORDINAL="670" NAME="?GetImagePixelModule@CUSMStorage@@UAEPAVCO_ImagePixelModule@@XZ" PURGE="0" COMMENT="" />
    <EXPORT ORDINAL="671" NAME="?GetImagePixelModule@CUSNMStorage@@UAEPAVCO_ImagePixelModule@@XZ" PURGE="0" COMMENT="" />
    <EXPORT ORDINAL="672" NAME="?GetImagePixelModule@CUSNStorage@@UAEPAVCO_ImagePixelModule@@XZ" PURGE="0" COMMENT="" />
    <EXPORT ORDINAL="673" NAME="?GetImagePixelModule@CUSStorage@@UAEPAVCO_ImagePixelModule@@XZ" PURGE="0" COMMENT="" />
    <EXPORT ORDINAL="674" NAME="?GetImagePixelModule@CXABiStorage@@UAEPAVCO_ImagePixelModule@@XZ" PURGE="0" COMMENT="" />
    <EXPORT ORDINAL="675" NAME="?GetImagePixelModule@CXAStorage@@UAEPAVCO_ImagePixelModule@@XZ" PURGE="0" COMMENT="" />
    <EXPORT ORDINAL="676" NAME="?GetImagePlaneModule@CCRStorage@@UAEPAVCO_ImagePlaneModule@@XZ" PURGE="0" COMMENT="" />
    <EXPORT ORDINAL="677" NAME="?GetImagePlaneModule@CCTStorage@@UAEPAVCO_ImagePlaneModule@@XZ" PURGE="0" COMMENT="" />
    <EXPORT ORDINAL="678" NAME="?GetImagePlaneModule@CMRStorage@@UAEPAVCO_ImagePlaneModule@@XZ" PURGE="0" COMMENT="" />
    <EXPORT ORDINAL="679" NAME="?GetImagePlaneModule@CNMNStorage@@UAEPAVCO_ImagePlaneModule@@XZ" PURGE="0" COMMENT="" />
    <EXPORT ORDINAL="680" NAME="?GetImagePlaneModule@CNMStorage@@UAEPAVCO_ImagePlaneModule@@XZ" PURGE="0" COMMENT="" />
    <EXPORT ORDINAL="681" NAME="?GetImagePlaneModule@CPETStorage@@UAEPAVCO_ImagePlaneModule@@XZ" PURGE="0" COMMENT="" />
    <EXPORT ORDINAL="682" NAME="?GetImagePlaneModule@CStorage@@UAEPAVCO_ImagePlaneModule@@XZ" PURGE="0" COMMENT="" />
    <EXPORT ORDINAL="683" NAME="?GetImagePosition@CBasicGrayscaleImageBox@@QAEAAGXZ" PURGE="0" COMMENT="" />
    <EXPORT ORDINAL="684" NAME="?GetLastName@CPatientNameParser@@QAE?AV?$CStringT@DV?$StrTraitMFC_DLL@DV?$ChTraitsCRT@D@ATL@@@@@ATL@@XZ" PURGE="4" COMMENT="" />
    <EXPORT ORDINAL="685" NAME="?GetMRImageModule@CMRStorage@@QAEPAVCO_MRImageModule@@XZ" PURGE="0" COMMENT="" />
    <EXPORT ORDINAL="686" NAME="?GetMagnificationType@CBasicFilmBox@@QAEAAV?$CStringT@DV?$StrTraitMFC_DLL@DV?$ChTraitsCRT@D@ATL@@@@@ATL@@XZ" PURGE="0" COMMENT="" />
    <EXPORT ORDINAL="687" NAME="?GetMagnificationType@CBasicGrayscaleImageBox@@QAEAAV?$CStringT@DV?$StrTraitMFC_DLL@DV?$ChTraitsCRT@D@ATL@@@@@ATL@@XZ" PURGE="0" COMMENT="" />
    <EXPORT ORDINAL="688" NAME="?GetManufacturer@CPrinter@@QAE?AV?$CStringT@DV?$StrTraitMFC_DLL@DV?$ChTraitsCRT@D@ATL@@@@@ATL@@XZ" PURGE="4" COMMENT="" />
    <EXPORT ORDINAL="689" NAME="?GetManufacturerModelName@CPrinter@@QAE?AV?$CStringT@DV?$StrTraitMFC_DLL@DV?$ChTraitsCRT@D@ATL@@@@@ATL@@XZ" PURGE="4" COMMENT="" />
    <EXPORT ORDINAL="690" NAME="?GetMaxDensity@CBasicFilmBox@@QAEAAGXZ" PURGE="0" COMMENT="" />
    <EXPORT ORDINAL="691" NAME="?GetMediumType@CBasicFilmSession@@QAEAAV?$CStringT@DV?$StrTraitMFC_DLL@DV?$ChTraitsCRT@D@ATL@@@@@ATL@@XZ" PURGE="0" COMMENT="" />
    <EXPORT ORDINAL="692" NAME="?GetMemoryAllocation@CBasicFilmSession@@QAEAAV?$CStringT@DV?$StrTraitMFC_DLL@DV?$ChTraitsCRT@D@ATL@@@@@ATL@@XZ" PURGE="0" COMMENT="" />
    <EXPORT ORDINAL="693" NAME="?GetMiddleName@CPatientNameParser@@QAE?AV?$CStringT@DV?$StrTraitMFC_DLL@DV?$ChTraitsCRT@D@ATL@@@@@ATL@@XZ" PURGE="4" COMMENT="" />
    <EXPORT ORDINAL="694" NAME="?GetMinDensity@CBasicFilmBox@@QAEAAGXZ" PURGE="0" COMMENT="" />
    <EXPORT ORDINAL="695" NAME="?GetModalityLUTModule@CRTStorage@@QAEPAVCO_ModalityLUTModule@@XZ" PURGE="0" COMMENT="" />
    <EXPORT ORDINAL="696" NAME="?GetModalityLUTModule@CSCStorage@@QAEPAVCO_ModalityLUTModule@@XZ" PURGE="0" COMMENT="" />
    <EXPORT ORDINAL="697" NAME="?GetMultiframeModule@CNMNStorage@@QAEPAVCO_MultiframeModule@@XZ" PURGE="0" COMMENT="" />
    <EXPORT ORDINAL="698" NAME="?GetMultiframeModule@CNMStorage@@QAEPAVCO_MultiframeModule@@XZ" PURGE="0" COMMENT="" />
    <EXPORT ORDINAL="699" NAME="?GetMultiframeModule@CRFStorage@@QAEPAVCO_MultiframeModule@@XZ" PURGE="0" COMMENT="" />
    <EXPORT ORDINAL="700" NAME="?GetMultiframeModule@CRTStorage@@QAEPAVCO_MultiframeModule@@XZ" PURGE="0" COMMENT="" />
    <EXPORT ORDINAL="701" NAME="?GetMultiframeModule@CUSMStorage@@QAEPAVCO_MultiframeModule@@XZ" PURGE="0" COMMENT="" />
    <EXPORT ORDINAL="702" NAME="?GetMultiframeModule@CUSNMStorage@@QAEPAVCO_MultiframeModule@@XZ" PURGE="0" COMMENT="" />
    <EXPORT ORDINAL="703" NAME="?GetMultiframeModule@CXAStorage@@QAEPAVCO_MultiframeModule@@XZ" PURGE="0" COMMENT="" />
    <EXPORT ORDINAL="704" NAME="?GetNMImageModule@CNMStorage@@QAEPAVCO_NMImageModule@@XZ" PURGE="0" COMMENT="" />
    <EXPORT ORDINAL="705" NAME="?GetNMSeriesModule@CNMStorage@@QAEPAVCO_NMSeriesModule@@XZ" PURGE="0" COMMENT="" />
    <EXPORT ORDINAL="706" NAME="?GetNamePrefix@CPatientNameParser@@QAE?AV?$CStringT@DV?$StrTraitMFC_DLL@DV?$ChTraitsCRT@D@ATL@@@@@ATL@@XZ" PURGE="4" COMMENT="" />
    <EXPORT ORDINAL="707" NAME="?GetNameSuffix@CPatientNameParser@@QAE?AV?$CStringT@DV?$StrTraitMFC_DLL@DV?$ChTraitsCRT@D@ATL@@@@@ATL@@XZ" PURGE="4" COMMENT="" />
    <EXPORT ORDINAL="708" NAME="?GetNumberOfComponents@CPatientNameParser@@QAEHV?$CStringT@DV?$StrTraitMFC_DLL@DV?$ChTraitsCRT@D@ATL@@@@@ATL@@AAV23@@Z" PURGE="8" COMMENT="" />
    <EXPORT ORDINAL="709" NAME="?GetNumberOfCopies@CBasicFilmSession@@QAEAAV?$CStringT@DV?$StrTraitMFC_DLL@DV?$ChTraitsCRT@D@ATL@@@@@ATL@@XZ" PURGE="0" COMMENT="" />
    <EXPORT ORDINAL="710" NAME="?GetPDU_Service@CBasicFilmSession@@QAEPAVPDU_Service@@XZ" PURGE="0" COMMENT="" />
    <EXPORT ORDINAL="711" NAME="?GetPETImageModule@CPETStorage@@QAEPAVCO_PETImageModule@@XZ" PURGE="0" COMMENT="" />
    <EXPORT ORDINAL="712" NAME="?GetPETSeriesModule@CPETStorage@@QAEPAVCO_PETSeriesModule@@XZ" PURGE="0" COMMENT="" />
    <EXPORT ORDINAL="713" NAME="?GetPatientModule@CCRStorage@@UAEPAVCO_PatientModule@@XZ" PURGE="0" COMMENT="" />
    <EXPORT ORDINAL="714" NAME="?GetPatientModule@CCTStorage@@UAEPAVCO_PatientModule@@XZ" PURGE="0" COMMENT="" />
    <EXPORT ORDINAL="715" NAME="?GetPatientModule@CDXRStorage@@UAEPAVCO_PatientModule@@XZ" PURGE="0" COMMENT="" />
    <EXPORT ORDINAL="716" NAME="?GetPatientModule@CDXStorage@@UAEPAVCO_PatientModule@@XZ" PURGE="0" COMMENT="" />
    <EXPORT ORDINAL="717" NAME="?GetPatientModule@CMGRStorage@@UAEPAVCO_PatientModule@@XZ" PURGE="0" COMMENT="" />
    <EXPORT ORDINAL="718" NAME="?GetPatientModule@CMGStorage@@UAEPAVCO_PatientModule@@XZ" PURGE="0" COMMENT="" />
    <EXPORT ORDINAL="719" NAME="?GetPatientModule@CMRStorage@@UAEPAVCO_PatientModule@@XZ" PURGE="0" COMMENT="" />
    <EXPORT ORDINAL="720" NAME="?GetPatientModule@CNMNStorage@@UAEPAVCO_PatientModule@@XZ" PURGE="0" COMMENT="" />
    <EXPORT ORDINAL="721" NAME="?GetPatientModule@CNMStorage@@UAEPAVCO_PatientModule@@XZ" PURGE="0" COMMENT="" />
    <EXPORT ORDINAL="722" NAME="?GetPatientModule@CPETStorage@@UAEPAVCO_PatientModule@@XZ" PURGE="0" COMMENT="" />
    <EXPORT ORDINAL="723" NAME="?GetPatientModule@CRFStorage@@UAEPAVCO_PatientModule@@XZ" PURGE="0" COMMENT="" />
    <EXPORT ORDINAL="724" NAME="?GetPatientModule@CRTStorage@@UAEPAVCO_PatientModule@@XZ" PURGE="0" COMMENT="" />
    <EXPORT ORDINAL="725" NAME="?GetPatientModule@CSCStorage@@UAEPAVCO_PatientModule@@XZ" PURGE="0" COMMENT="" />
    <EXPORT ORDINAL="726" NAME="?GetPatientModule@CUSMStorage@@UAEPAVCO_PatientModule@@XZ" PURGE="0" COMMENT="" />
    <EXPORT ORDINAL="727" NAME="?GetPatientModule@CUSNMStorage@@UAEPAVCO_PatientModule@@XZ" PURGE="0" COMMENT="" />
    <EXPORT ORDINAL="728" NAME="?GetPatientModule@CUSNStorage@@UAEPAVCO_PatientModule@@XZ" PURGE="0" COMMENT="" />
    <EXPORT ORDINAL="729" NAME="?GetPatientModule@CUSStorage@@UAEPAVCO_PatientModule@@XZ" PURGE="0" COMMENT="" />
    <EXPORT ORDINAL="730" NAME="?GetPatientModule@CXABiStorage@@UAEPAVCO_PatientModule@@XZ" PURGE="0" COMMENT="" />
    <EXPORT ORDINAL="731" NAME="?GetPatientModule@CXAStorage@@UAEPAVCO_PatientModule@@XZ" PURGE="0" COMMENT="" />
    <EXPORT ORDINAL="732" NAME="?GetPatientStudyModule@CCRStorage@@UAEPAVCO_PatientStudyModule@@XZ" PURGE="0" COMMENT="" />
    <EXPORT ORDINAL="733" NAME="?GetPatientStudyModule@CCTStorage@@UAEPAVCO_PatientStudyModule@@XZ" PURGE="0" COMMENT="" />
    <EXPORT ORDINAL="734" NAME="?GetPatientStudyModule@CDXRStorage@@UAEPAVCO_PatientStudyModule@@XZ" PURGE="0" COMMENT="" />
    <EXPORT ORDINAL="735" NAME="?GetPatientStudyModule@CDXStorage@@UAEPAVCO_PatientStudyModule@@XZ" PURGE="0" COMMENT="" />
    <EXPORT ORDINAL="736" NAME="?GetPatientStudyModule@CMGRStorage@@UAEPAVCO_PatientStudyModule@@XZ" PURGE="0" COMMENT="" />
    <EXPORT ORDINAL="737" NAME="?GetPatientStudyModule@CMGStorage@@UAEPAVCO_PatientStudyModule@@XZ" PURGE="0" COMMENT="" />
    <EXPORT ORDINAL="738" NAME="?GetPatientStudyModule@CMRStorage@@UAEPAVCO_PatientStudyModule@@XZ" PURGE="0" COMMENT="" />
    <EXPORT ORDINAL="739" NAME="?GetPatientStudyModule@CNMNStorage@@UAEPAVCO_PatientStudyModule@@XZ" PURGE="0" COMMENT="" />
    <EXPORT ORDINAL="740" NAME="?GetPatientStudyModule@CNMStorage@@UAEPAVCO_PatientStudyModule@@XZ" PURGE="0" COMMENT="" />
    <EXPORT ORDINAL="741" NAME="?GetPatientStudyModule@CPETStorage@@UAEPAVCO_PatientStudyModule@@XZ" PURGE="0" COMMENT="" />
    <EXPORT ORDINAL="742" NAME="?GetPatientStudyModule@CRFStorage@@UAEPAVCO_PatientStudyModule@@XZ" PURGE="0" COMMENT="" />
    <EXPORT ORDINAL="743" NAME="?GetPatientStudyModule@CRTStorage@@UAEPAVCO_PatientStudyModule@@XZ" PURGE="0" COMMENT="" />
    <EXPORT ORDINAL="744" NAME="?GetPatientStudyModule@CSCStorage@@UAEPAVCO_PatientStudyModule@@XZ" PURGE="0" COMMENT="" />
    <EXPORT ORDINAL="745" NAME="?GetPatientStudyModule@CUSMStorage@@UAEPAVCO_PatientStudyModule@@XZ" PURGE="0" COMMENT="" />
    <EXPORT ORDINAL="746" NAME="?GetPatientStudyModule@CUSNMStorage@@UAEPAVCO_PatientStudyModule@@XZ" PURGE="0" COMMENT="" />
    <EXPORT ORDINAL="747" NAME="?GetPatientStudyModule@CUSNStorage@@UAEPAVCO_PatientStudyModule@@XZ" PURGE="0" COMMENT="" />
    <EXPORT ORDINAL="748" NAME="?GetPatientStudyModule@CUSStorage@@UAEPAVCO_PatientStudyModule@@XZ" PURGE="0" COMMENT="" />
    <EXPORT ORDINAL="749" NAME="?GetPatientStudyModule@CXABiStorage@@UAEPAVCO_PatientStudyModule@@XZ" PURGE="0" COMMENT="" />
    <EXPORT ORDINAL="750" NAME="?GetPatientStudyModule@CXAStorage@@UAEPAVCO_PatientStudyModule@@XZ" PURGE="0" COMMENT="" />
    <EXPORT ORDINAL="751" NAME="?GetPhotometricInterpretation@CPreformattedGrayscaleImage@@QAEAAV?$CStringT@DV?$StrTraitMFC_DLL@DV?$ChTraitsCRT@D@ATL@@@@@ATL@@XZ" PURGE="0" COMMENT="" />
    <EXPORT ORDINAL="752" NAME="?GetPixelAspectRatio@CPreformattedGrayscaleImage@@QAEAAV?$CStringT@DV?$StrTraitMFC_DLL@DV?$ChTraitsCRT@D@ATL@@@@@ATL@@XZ" PURGE="0" COMMENT="" />
    <EXPORT ORDINAL="753" NAME="?GetPixelData@CPreformattedGrayscaleImage@@QAEPAEXZ" PURGE="0" COMMENT="" />
    <EXPORT ORDINAL="754" NAME="?GetPixelRepresentation@CPreformattedGrayscaleImage@@QAEGXZ" PURGE="0" COMMENT="" />
    <EXPORT ORDINAL="755" NAME="?GetPolarity@CBasicGrayscaleImageBox@@QAEAAV?$CStringT@DV?$StrTraitMFC_DLL@DV?$ChTraitsCRT@D@ATL@@@@@ATL@@XZ" PURGE="0" COMMENT="" />
    <EXPORT ORDINAL="756" NAME="?GetPostIncludingString@CPatientNameParser@@QAE?AV?$CStringT@DV?$StrTraitMFC_DLL@DV?$ChTraitsCRT@D@ATL@@@@@ATL@@V23@0@Z" PURGE="12" COMMENT="" />
    <EXPORT ORDINAL="757" NAME="?GetPostString@CPatientNameParser@@QAE?AV?$CStringT@DV?$StrTraitMFC_DLL@DV?$ChTraitsCRT@D@ATL@@@@@ATL@@V23@0@Z" PURGE="12" COMMENT="" />
    <EXPORT ORDINAL="758" NAME="?GetPreString@CPatientNameParser@@QAE?AV?$CStringT@DV?$StrTraitMFC_DLL@DV?$ChTraitsCRT@D@ATL@@@@@ATL@@V23@0@Z" PURGE="12" COMMENT="" />
    <EXPORT ORDINAL="759" NAME="?GetPrintPriority@CBasicFilmSession@@QAEAAV?$CStringT@DV?$StrTraitMFC_DLL@DV?$ChTraitsCRT@D@ATL@@@@@ATL@@XZ" PURGE="0" COMMENT="" />
    <EXPORT ORDINAL="760" NAME="?GetPrinterName@CPrinter@@QAE?AV?$CStringT@DV?$StrTraitMFC_DLL@DV?$ChTraitsCRT@D@ATL@@@@@ATL@@XZ" PURGE="4" COMMENT="" />
    <EXPORT ORDINAL="761" NAME="?GetPrinterStatus@CPrinter@@QAE?AV?$CStringT@DV?$StrTraitMFC_DLL@DV?$ChTraitsCRT@D@ATL@@@@@ATL@@XZ" PURGE="4" COMMENT="" />
    <EXPORT ORDINAL="762" NAME="?GetPrinterStatusInfo@CPrinter@@QAE?AV?$CStringT@DV?$StrTraitMFC_DLL@DV?$ChTraitsCRT@D@ATL@@@@@ATL@@XZ" PURGE="4" COMMENT="" />
    <EXPORT ORDINAL="763" NAME="?GetRFImageModule@CRFStorage@@QAEPAVCO_RFImageModule@@XZ" PURGE="0" COMMENT="" />
    <EXPORT ORDINAL="764" NAME="?GetRTImageModule@CRTStorage@@QAEPAVCO_RTImageModule@@XZ" PURGE="0" COMMENT="" />
    <EXPORT ORDINAL="765" NAME="?GetRTSeriesModule@CRTStorage@@QAEPAVCO_RTSeriesModule@@XZ" PURGE="0" COMMENT="" />
    <EXPORT ORDINAL="766" NAME="?GetRequestedDecimateCropBehaviour@CBasicGrayscaleImageBox@@QAEAAV?$CStringT@DV?$StrTraitMFC_DLL@DV?$ChTraitsCRT@D@ATL@@@@@ATL@@XZ" PURGE="0" COMMENT="" />
    <EXPORT ORDINAL="767" NAME="?GetRequestedImageSize@CBasicGrayscaleImageBox@@QAEAAV?$CStringT@DV?$StrTraitMFC_DLL@DV?$ChTraitsCRT@D@ATL@@@@@ATL@@XZ" PURGE="0" COMMENT="" />
    <EXPORT ORDINAL="768" NAME="?GetRows@CPreformattedGrayscaleImage@@QAEGXZ" PURGE="0" COMMENT="" />
    <EXPORT ORDINAL="769" NAME="?GetRuntimeClass@CBasicRecordset@@UBEPAUCRuntimeClass@@XZ" PURGE="0" COMMENT="" />
    <EXPORT ORDINAL="770" NAME="?GetRuntimeClass@CImageSet@@UBEPAUCRuntimeClass@@XZ" PURGE="0" COMMENT="" />
    <EXPORT ORDINAL="771" NAME="?GetRuntimeClass@CLoginSet@@UBEPAUCRuntimeClass@@XZ" PURGE="0" COMMENT="" />
    <EXPORT ORDINAL="772" NAME="?GetRuntimeClass@CPatientQuerySet@@UBEPAUCRuntimeClass@@XZ" PURGE="0" COMMENT="" />
    <EXPORT ORDINAL="773" NAME="?GetRuntimeClass@CPatientSet@@UBEPAUCRuntimeClass@@XZ" PURGE="0" COMMENT="" />
    <EXPORT ORDINAL="774" NAME="?GetRuntimeClass@CPresetsSet@@UBEPAUCRuntimeClass@@XZ" PURGE="0" COMMENT="" />
    <EXPORT ORDINAL="775" NAME="?GetRuntimeClass@CSeriesQuerySet@@UBEPAUCRuntimeClass@@XZ" PURGE="0" COMMENT="" />
    <EXPORT ORDINAL="776" NAME="?GetRuntimeClass@CSeriesSet@@UBEPAUCRuntimeClass@@XZ" PURGE="0" COMMENT="" />
    <EXPORT ORDINAL="777" NAME="?GetRuntimeClass@CServersSet@@UBEPAUCRuntimeClass@@XZ" PURGE="0" COMMENT="" />
    <EXPORT ORDINAL="778" NAME="?GetRuntimeClass@CStudyQuerySet@@UBEPAUCRuntimeClass@@XZ" PURGE="0" COMMENT="" />
    <EXPORT ORDINAL="779" NAME="?GetRuntimeClass@CStudySet@@UBEPAUCRuntimeClass@@XZ" PURGE="0" COMMENT="" />
    <EXPORT ORDINAL="780" NAME="?GetRuntimeClass@CTemplateAttachmentSet@@UBEPAUCRuntimeClass@@XZ" PURGE="0" COMMENT="" />
    <EXPORT ORDINAL="781" NAME="?GetRuntimeClass@CTemplateSet@@UBEPAUCRuntimeClass@@XZ" PURGE="0" COMMENT="" />
    <EXPORT ORDINAL="782" NAME="?GetSCEquipmentModule@CSCStorage@@QAEPAVCO_SCEquipmentModule@@XZ" PURGE="0" COMMENT="" />
    <EXPORT ORDINAL="783" NAME="?GetSCImageModule@CSCStorage@@QAEPAVCO_SCImageModule@@XZ" PURGE="0" COMMENT="" />
    <EXPORT ORDINAL="784" NAME="?GetSOPClassDescription@CDicomDirectory@@AAE?AV?$CStringT@DV?$StrTraitMFC_DLL@DV?$ChTraitsCRT@D@ATL@@@@@ATL@@V23@@Z" PURGE="8" COMMENT="" />
    <EXPORT ORDINAL="785" NAME="?GetSOPCommonModule@CCRStorage@@UAEPAVCO_SOPCommonModule@@XZ" PURGE="0" COMMENT="" />
    <EXPORT ORDINAL="786" NAME="?GetSOPCommonModule@CCTStorage@@UAEPAVCO_SOPCommonModule@@XZ" PURGE="0" COMMENT="" />
    <EXPORT ORDINAL="787" NAME="?GetSOPCommonModule@CDXRStorage@@UAEPAVCO_SOPCommonModule@@XZ" PURGE="0" COMMENT="" />
    <EXPORT ORDINAL="788" NAME="?GetSOPCommonModule@CDXStorage@@UAEPAVCO_SOPCommonModule@@XZ" PURGE="0" COMMENT="" />
    <EXPORT ORDINAL="789" NAME="?GetSOPCommonModule@CMGRStorage@@UAEPAVCO_SOPCommonModule@@XZ" PURGE="0" COMMENT="" />
    <EXPORT ORDINAL="790" NAME="?GetSOPCommonModule@CMGStorage@@UAEPAVCO_SOPCommonModule@@XZ" PURGE="0" COMMENT="" />
    <EXPORT ORDINAL="791" NAME="?GetSOPCommonModule@CMRStorage@@UAEPAVCO_SOPCommonModule@@XZ" PURGE="0" COMMENT="" />
    <EXPORT ORDINAL="792" NAME="?GetSOPCommonModule@CNMNStorage@@UAEPAVCO_SOPCommonModule@@XZ" PURGE="0" COMMENT="" />
    <EXPORT ORDINAL="793" NAME="?GetSOPCommonModule@CNMStorage@@UAEPAVCO_SOPCommonModule@@XZ" PURGE="0" COMMENT="" />
    <EXPORT ORDINAL="794" NAME="?GetSOPCommonModule@CPETStorage@@UAEPAVCO_SOPCommonModule@@XZ" PURGE="0" COMMENT="" />
    <EXPORT ORDINAL="795" NAME="?GetSOPCommonModule@CRFStorage@@UAEPAVCO_SOPCommonModule@@XZ" PURGE="0" COMMENT="" />
    <EXPORT ORDINAL="796" NAME="?GetSOPCommonModule@CRTStorage@@UAEPAVCO_SOPCommonModule@@XZ" PURGE="0" COMMENT="" />
    <EXPORT ORDINAL="797" NAME="?GetSOPCommonModule@CSCStorage@@UAEPAVCO_SOPCommonModule@@XZ" PURGE="0" COMMENT="" />
    <EXPORT ORDINAL="798" NAME="?GetSOPCommonModule@CUSMStorage@@UAEPAVCO_SOPCommonModule@@XZ" PURGE="0" COMMENT="" />
    <EXPORT ORDINAL="799" NAME="?GetSOPCommonModule@CUSNMStorage@@UAEPAVCO_SOPCommonModule@@XZ" PURGE="0" COMMENT="" />
    <EXPORT ORDINAL="800" NAME="?GetSOPCommonModule@CUSNStorage@@UAEPAVCO_SOPCommonModule@@XZ" PURGE="0" COMMENT="" />
    <EXPORT ORDINAL="801" NAME="?GetSOPCommonModule@CUSStorage@@UAEPAVCO_SOPCommonModule@@XZ" PURGE="0" COMMENT="" />
    <EXPORT ORDINAL="802" NAME="?GetSOPCommonModule@CXABiStorage@@UAEPAVCO_SOPCommonModule@@XZ" PURGE="0" COMMENT="" />
    <EXPORT ORDINAL="803" NAME="?GetSOPCommonModule@CXAStorage@@UAEPAVCO_SOPCommonModule@@XZ" PURGE="0" COMMENT="" />
    <EXPORT ORDINAL="804" NAME="?GetSOPInstanceUID@CBasicFilmBox@@QAEAAVUID@@XZ" PURGE="0" COMMENT="" />
    <EXPORT ORDINAL="805" NAME="?GetSOPInstanceUID@CBasicFilmSession@@QAEAAVUID@@XZ" PURGE="0" COMMENT="" />
    <EXPORT ORDINAL="806" NAME="?GetSOPInstanceUID@CBasicGrayscaleImageBox@@QAEAAVUID@@XZ" PURGE="0" COMMENT="" />
    <EXPORT ORDINAL="807" NAME="?GetSamplesPerPixel@CPreformattedGrayscaleImage@@QAEGXZ" PURGE="0" COMMENT="" />
    <EXPORT ORDINAL="808" NAME="?GetSize@?$CArray@PAV?$CStringT@DV?$StrTraitMFC_DLL@DV?$ChTraitsCRT@D@ATL@@@@@ATL@@PAV12@@@QBEHXZ" PURGE="0" COMMENT="" />
    <EXPORT ORDINAL="809" NAME="?GetSize@?$CArray@PAVCResult@@PAV1@@@QBEHXZ" PURGE="0" COMMENT="" />
    <EXPORT ORDINAL="810" NAME="?GetSmoothingType@CBasicFilmBox@@QAEAAV?$CStringT@DV?$StrTraitMFC_DLL@DV?$ChTraitsCRT@D@ATL@@@@@ATL@@XZ" PURGE="0" COMMENT="" />
    <EXPORT ORDINAL="811" NAME="?GetSmoothingType@CBasicGrayscaleImageBox@@QAEAAV?$CStringT@DV?$StrTraitMFC_DLL@DV?$ChTraitsCRT@D@ATL@@@@@ATL@@XZ" PURGE="0" COMMENT="" />
    <EXPORT ORDINAL="812" NAME="?GetSoftwareVersions@CPrinter@@QAE?AV?$CStringT@DV?$StrTraitMFC_DLL@DV?$ChTraitsCRT@D@ATL@@@@@ATL@@XZ" PURGE="4" COMMENT="" />
    <EXPORT ORDINAL="813" NAME="?GetThisClass@CBasicRecordset@@SGPAUCRuntimeClass@@XZ" PURGE="0" COMMENT="" />
    <EXPORT ORDINAL="814" NAME="?GetThisClass@CImageSet@@SGPAUCRuntimeClass@@XZ" PURGE="0" COMMENT="" />
    <EXPORT ORDINAL="815" NAME="?GetThisClass@CLoginSet@@SGPAUCRuntimeClass@@XZ" PURGE="0" COMMENT="" />
    <EXPORT ORDINAL="816" NAME="?GetThisClass@CPatientQuerySet@@SGPAUCRuntimeClass@@XZ" PURGE="0" COMMENT="" />
    <EXPORT ORDINAL="817" NAME="?GetThisClass@CPatientSet@@SGPAUCRuntimeClass@@XZ" PURGE="0" COMMENT="" />
    <EXPORT ORDINAL="818" NAME="?GetThisClass@CPresetsSet@@SGPAUCRuntimeClass@@XZ" PURGE="0" COMMENT="" />
    <EXPORT ORDINAL="819" NAME="?GetThisClass@CSeriesQuerySet@@SGPAUCRuntimeClass@@XZ" PURGE="0" COMMENT="" />
    <EXPORT ORDINAL="820" NAME="?GetThisClass@CSeriesSet@@SGPAUCRuntimeClass@@XZ" PURGE="0" COMMENT="" />
    <EXPORT ORDINAL="821" NAME="?GetThisClass@CServersSet@@SGPAUCRuntimeClass@@XZ" PURGE="0" COMMENT="" />
    <EXPORT ORDINAL="822" NAME="?GetThisClass@CStudyQuerySet@@SGPAUCRuntimeClass@@XZ" PURGE="0" COMMENT="" />
    <EXPORT ORDINAL="823" NAME="?GetThisClass@CStudySet@@SGPAUCRuntimeClass@@XZ" PURGE="0" COMMENT="" />
    <EXPORT ORDINAL="824" NAME="?GetThisClass@CTemplateAttachmentSet@@SGPAUCRuntimeClass@@XZ" PURGE="0" COMMENT="" />
    <EXPORT ORDINAL="825" NAME="?GetThisClass@CTemplateSet@@SGPAUCRuntimeClass@@XZ" PURGE="0" COMMENT="" />
    <EXPORT ORDINAL="826" NAME="?GetTimeOfLastCalibration@CPrinter@@QAE?AV?$CStringT@DV?$StrTraitMFC_DLL@DV?$ChTraitsCRT@D@ATL@@@@@ATL@@XZ" PURGE="4" COMMENT="" />
    <EXPORT ORDINAL="827" NAME="?GetTrim@CBasicFilmBox@@QAEAAV?$CStringT@DV?$StrTraitMFC_DLL@DV?$ChTraitsCRT@D@ATL@@@@@ATL@@XZ" PURGE="0" COMMENT="" />
    <EXPORT ORDINAL="828" NAME="?GetUID@CBasicFilmBox@@UAEHAAVUID@@@Z" PURGE="4" COMMENT="" />
    <EXPORT ORDINAL="829" NAME="?GetUID@CBasicFilmSession@@UAEHAAVUID@@@Z" PURGE="4" COMMENT="" />
    <EXPORT ORDINAL="830" NAME="?GetUID@CBasicGrayscaleImageBox@@UAEHAAVUID@@@Z" PURGE="4" COMMENT="" />
    <EXPORT ORDINAL="831" NAME="?GetUID@CCRStorage@@UAEHAAVUID@@@Z" PURGE="4" COMMENT="" />
    <EXPORT ORDINAL="832" NAME="?GetUID@CCTStorage@@UAEHAAVUID@@@Z" PURGE="4" COMMENT="" />
    <EXPORT ORDINAL="833" NAME="?GetUID@CDXRStorage@@UAEHAAVUID@@@Z" PURGE="4" COMMENT="" />
    <EXPORT ORDINAL="834" NAME="?GetUID@CDXStorage@@UAEHAAVUID@@@Z" PURGE="4" COMMENT="" />
    <EXPORT ORDINAL="835" NAME="?GetUID@CMGRStorage@@UAEHAAVUID@@@Z" PURGE="4" COMMENT="" />
    <EXPORT ORDINAL="836" NAME="?GetUID@CMGStorage@@UAEHAAVUID@@@Z" PURGE="4" COMMENT="" />
    <EXPORT ORDINAL="837" NAME="?GetUID@CMRStorage@@UAEHAAVUID@@@Z" PURGE="4" COMMENT="" />
    <EXPORT ORDINAL="838" NAME="?GetUID@CNMNStorage@@UAEHAAVUID@@@Z" PURGE="4" COMMENT="" />
    <EXPORT ORDINAL="839" NAME="?GetUID@CNMStorage@@UAEHAAVUID@@@Z" PURGE="4" COMMENT="" />
    <EXPORT ORDINAL="840" NAME="?GetUID@CPETStorage@@UAEHAAVUID@@@Z" PURGE="4" COMMENT="" />
    <EXPORT ORDINAL="841" NAME="?GetUID@CPrinter@@UAEHAAVUID@@@Z" PURGE="4" COMMENT="" />
    <EXPORT ORDINAL="842" NAME="?GetUID@CRFStorage@@UAEHAAVUID@@@Z" PURGE="4" COMMENT="" />
    <EXPORT ORDINAL="843" NAME="?GetUID@CRTStorage@@UAEHAAVUID@@@Z" PURGE="4" COMMENT="" />
    <EXPORT ORDINAL="844" NAME="?GetUID@CSCStorage@@UAEHAAVUID@@@Z" PURGE="4" COMMENT="" />
    <EXPORT ORDINAL="845" NAME="?GetUID@CStandardStorage@@UAEHAAVUID@@@Z" PURGE="4" COMMENT="" />
    <EXPORT ORDINAL="846" NAME="?GetUID@CStorage@@QAEHAAV?$CStringT@DV?$StrTraitMFC_DLL@DV?$ChTraitsCRT@D@ATL@@@@@ATL@@@Z" PURGE="4" COMMENT="" />
    <EXPORT ORDINAL="847" NAME="?GetUID@CUSMStorage@@UAEHAAVUID@@@Z" PURGE="4" COMMENT="" />
    <EXPORT ORDINAL="848" NAME="?GetUID@CUSNMStorage@@UAEHAAVUID@@@Z" PURGE="4" COMMENT="" />
    <EXPORT ORDINAL="849" NAME="?GetUID@CUSNStorage@@UAEHAAVUID@@@Z" PURGE="4" COMMENT="" />
    <EXPORT ORDINAL="850" NAME="?GetUID@CUSStorage@@UAEHAAVUID@@@Z" PURGE="4" COMMENT="" />
    <EXPORT ORDINAL="851" NAME="?GetUID@CXABiStorage@@UAEHAAVUID@@@Z" PURGE="4" COMMENT="" />
    <EXPORT ORDINAL="852" NAME="?GetUID@CXAStorage@@UAEHAAVUID@@@Z" PURGE="4" COMMENT="" />
    <EXPORT ORDINAL="853" NAME="?GetUSImageModule@CUSMStorage@@QAEPAVCO_USImageModule@@XZ" PURGE="0" COMMENT="" />
    <EXPORT ORDINAL="854" NAME="?GetUSImageModule@CUSNMStorage@@QAEPAVCO_USImageModule@@XZ" PURGE="0" COMMENT="" />
    <EXPORT ORDINAL="855" NAME="?GetUSImageModule@CUSNStorage@@QAEPAVCO_USImageModule@@XZ" PURGE="0" COMMENT="" />
    <EXPORT ORDINAL="856" NAME="?GetUSImageModule@CUSStorage@@QAEPAVCO_USImageModule@@XZ" PURGE="0" COMMENT="" />
    <EXPORT ORDINAL="857" NAME="?GetUnsupportedMessage@CDicomDirectory@@QAEXAAV?$CStringT@DV?$StrTraitMFC_DLL@DV?$ChTraitsCRT@D@ATL@@@@@ATL@@@Z" PURGE="4" COMMENT="" />
    <EXPORT ORDINAL="858" NAME="?GetUpperBound@?$CArray@PAV?$CStringT@DV?$StrTraitMFC_DLL@DV?$ChTraitsCRT@D@ATL@@@@@ATL@@PAV12@@@QBEHXZ" PURGE="0" COMMENT="" />
    <EXPORT ORDINAL="859" NAME="?GetUpperBound@?$CArray@PAVCResult@@PAV1@@@QBEHXZ" PURGE="0" COMMENT="" />
    <EXPORT ORDINAL="860" NAME="?GetVOILUTModule@CCRStorage@@UAEPAVCO_VOILUTModule@@XZ" PURGE="0" COMMENT="" />
    <EXPORT ORDINAL="861" NAME="?GetVOILUTModule@CCTStorage@@UAEPAVCO_VOILUTModule@@XZ" PURGE="0" COMMENT="" />
    <EXPORT ORDINAL="862" NAME="?GetVOILUTModule@CDXRStorage@@UAEPAVCO_VOILUTModule@@XZ" PURGE="0" COMMENT="" />
    <EXPORT ORDINAL="863" NAME="?GetVOILUTModule@CDXStorage@@UAEPAVCO_VOILUTModule@@XZ" PURGE="0" COMMENT="" />
    <EXPORT ORDINAL="864" NAME="?GetVOILUTModule@CMGRStorage@@UAEPAVCO_VOILUTModule@@XZ" PURGE="0" COMMENT="" />
    <EXPORT ORDINAL="865" NAME="?GetVOILUTModule@CMGStorage@@UAEPAVCO_VOILUTModule@@XZ" PURGE="0" COMMENT="" />
    <EXPORT ORDINAL="866" NAME="?GetVOILUTModule@CMRStorage@@UAEPAVCO_VOILUTModule@@XZ" PURGE="0" COMMENT="" />
    <EXPORT ORDINAL="867" NAME="?GetVOILUTModule@CNMNStorage@@UAEPAVCO_VOILUTModule@@XZ" PURGE="0" COMMENT="" />
    <EXPORT ORDINAL="868" NAME="?GetVOILUTModule@CNMStorage@@UAEPAVCO_VOILUTModule@@XZ" PURGE="0" COMMENT="" />
    <EXPORT ORDINAL="869" NAME="?GetVOILUTModule@CPETStorage@@UAEPAVCO_VOILUTModule@@XZ" PURGE="0" COMMENT="" />
    <EXPORT ORDINAL="870" NAME="?GetVOILUTModule@CRFStorage@@UAEPAVCO_VOILUTModule@@XZ" PURGE="0" COMMENT="" />
    <EXPORT ORDINAL="871" NAME="?GetVOILUTModule@CRTStorage@@UAEPAVCO_VOILUTModule@@XZ" PURGE="0" COMMENT="" />
    <EXPORT ORDINAL="872" NAME="?GetVOILUTModule@CSCStorage@@UAEPAVCO_VOILUTModule@@XZ" PURGE="0" COMMENT="" />
    <EXPORT ORDINAL="873" NAME="?GetVOILUTModule@CUSMStorage@@UAEPAVCO_VOILUTModule@@XZ" PURGE="0" COMMENT="" />
    <EXPORT ORDINAL="874" NAME="?GetVOILUTModule@CUSNMStorage@@UAEPAVCO_VOILUTModule@@XZ" PURGE="0" COMMENT="" />
    <EXPORT ORDINAL="875" NAME="?GetVOILUTModule@CUSNStorage@@UAEPAVCO_VOILUTModule@@XZ" PURGE="0" COMMENT="" />
    <EXPORT ORDINAL="876" NAME="?GetVOILUTModule@CUSStorage@@UAEPAVCO_VOILUTModule@@XZ" PURGE="0" COMMENT="" />
    <EXPORT ORDINAL="877" NAME="?GetVOILUTModule@CXABiStorage@@UAEPAVCO_VOILUTModule@@XZ" PURGE="0" COMMENT="" />
    <EXPORT ORDINAL="878" NAME="?GetVOILUTModule@CXAStorage@@UAEPAVCO_VOILUTModule@@XZ" PURGE="0" COMMENT="" />
    <EXPORT ORDINAL="879" NAME="?ImageQuery@CPatientRootQuery@@QAEXV?$CStringT@DV?$StrTraitMFC_DLL@DV?$ChTraitsCRT@D@ATL@@@@@ATL@@00000PAW4DCMDLL_STATUS@@@Z" PURGE="28" COMMENT="" />
    <EXPORT ORDINAL="880" NAME="?ImageQuery@CStudyRootQuery@@QAEXV?$CStringT@DV?$StrTraitMFC_DLL@DV?$ChTraitsCRT@D@ATL@@@@@ATL@@00000PAW4DCMDLL_STATUS@@@Z" PURGE="28" COMMENT="" />
    <EXPORT ORDINAL="881" NAME="?InsertAt@?$CArray@PAV?$CStringT@DV?$StrTraitMFC_DLL@DV?$ChTraitsCRT@D@ATL@@@@@ATL@@PAV12@@@QAEXHPAV1@@Z" PURGE="8" COMMENT="" />
    <EXPORT ORDINAL="882" NAME="?InsertAt@?$CArray@PAV?$CStringT@DV?$StrTraitMFC_DLL@DV?$ChTraitsCRT@D@ATL@@@@@ATL@@PAV12@@@QAEXHPAV?$CStringT@DV?$StrTraitMFC_DLL@DV?$ChTraitsCRT@D@ATL@@@@@ATL@@H@Z" PURGE="12" COMMENT="" />
    <EXPORT ORDINAL="883" NAME="?InsertAt@?$CArray@PAVCResult@@PAV1@@@QAEXHPAV1@@Z" PURGE="8" COMMENT="" />
    <EXPORT ORDINAL="884" NAME="?InsertAt@?$CArray@PAVCResult@@PAV1@@@QAEXHPAVCResult@@H@Z" PURGE="12" COMMENT="" />
    <EXPORT ORDINAL="885" NAME="?InsertElements@CDicomDirectory@@QAEXPAVDICOMDataObject@@@Z" PURGE="4" COMMENT="" />
    <EXPORT ORDINAL="886" NAME="?InsertImage@CDicomDirectory@@QAEXPAVCImages@@PAVDICOMDataObject@@@Z" PURGE="8" COMMENT="" />
    <EXPORT ORDINAL="887" NAME="?InsertPatient@CDicomDirectory@@QAEXPAVCPatient@@PAVDICOMDataObject@@@Z" PURGE="8" COMMENT="" />
    <EXPORT ORDINAL="888" NAME="?InsertSeries@CDicomDirectory@@QAEXPAVCSeries@@PAVDICOMDataObject@@@Z" PURGE="8" COMMENT="" />
    <EXPORT ORDINAL="889" NAME="?InsertStudy@CDicomDirectory@@QAEXPAVCStudy@@PAVDICOMDataObject@@@Z" PURGE="8" COMMENT="" />
    <EXPORT ORDINAL="890" NAME="?IsEmpty@?$CArray@PAV?$CStringT@DV?$StrTraitMFC_DLL@DV?$ChTraitsCRT@D@ATL@@@@@ATL@@PAV12@@@QBEHXZ" PURGE="0" COMMENT="" />
    <EXPORT ORDINAL="891" NAME="?IsEmpty@?$CArray@PAVCResult@@PAV1@@@QBEHXZ" PURGE="0" COMMENT="" />
    <EXPORT ORDINAL="892" NAME="?IsImageLossy@CStandardStorage@@QAEHXZ" PURGE="0" COMMENT="" />
    <EXPORT ORDINAL="893" NAME="?IsSOPClassSupported@CDicomDirectory@@AAE_NV?$CStringT@DV?$StrTraitMFC_DLL@DV?$ChTraitsCRT@D@ATL@@@@@ATL@@@Z" PURGE="4" COMMENT="" />
    <EXPORT ORDINAL="894" NAME="?IsSUIDValid@CStorage@@QAEHAAV?$CStringT@DV?$StrTraitMFC_DLL@DV?$ChTraitsCRT@D@ATL@@@@@ATL@@@Z" PURGE="4" COMMENT="" />
    <EXPORT ORDINAL="895" NAME="?Load@CDicomDirectory@@QAEHAAV?$CStringT@DV?$StrTraitMFC_DLL@DV?$ChTraitsCRT@D@ATL@@@@@ATL@@@Z" PURGE="4" COMMENT="" />
    <EXPORT ORDINAL="896" NAME="?Load@CStandardStorage@@QAEPAVCStorage@@AAV?$CStringT@DV?$StrTraitMFC_DLL@DV?$ChTraitsCRT@D@ATL@@@@@ATL@@PADH@Z" PURGE="12" COMMENT="" />
    <EXPORT ORDINAL="897" NAME="?MAKEUINT16@CRTStorage@@AAEGEE@Z" PURGE="8" COMMENT="" />
    <EXPORT ORDINAL="898" NAME="?MapElement@CModalityWorklistQuery@@QAEXIIPAXI@Z" PURGE="16" COMMENT="" />
    <EXPORT ORDINAL="899" NAME="?Move@CBasicRecordset@@UAEXJG@Z" PURGE="8" COMMENT="" />
    <EXPORT ORDINAL="900" NAME="?NAction@CBasicFilmBox@@QAEHPAVPDU_Service@@@Z" PURGE="4" COMMENT="" />
    <EXPORT ORDINAL="901" NAME="?NAction@CBasicFilmBox@@QAEHPAVPDU_Service@@PAVDICOMDataObject@@PAVUID@@@Z" PURGE="12" COMMENT="" />
    <EXPORT ORDINAL="902" NAME="?NAction@CBasicFilmSession@@QAEHPAVPDU_Service@@PAVDICOMDataObject@@PAVUID@@@Z" PURGE="12" COMMENT="" />
    <EXPORT ORDINAL="903" NAME="?NAction@CBasicFilmSession@@QAEHXZ" PURGE="0" COMMENT="" />
    <EXPORT ORDINAL="904" NAME="?NCreate@CBasicFilmBox@@QAEHPAVPDU_Service@@@Z" PURGE="4" COMMENT="" />
    <EXPORT ORDINAL="905" NAME="?NCreate@CBasicFilmBox@@QAEHPAVPDU_Service@@PAVDICOMDataObject@@PAVUID@@@Z" PURGE="12" COMMENT="" />
    <EXPORT ORDINAL="906" NAME="?NCreate@CBasicFilmSession@@QAEHPAVPDU_Service@@PAVDICOMDataObject@@PAVUID@@@Z" PURGE="12" COMMENT="" />
    <EXPORT ORDINAL="907" NAME="?NCreate@CBasicFilmSession@@QAEHXZ" PURGE="0" COMMENT="" />
    <EXPORT ORDINAL="908" NAME="?NDelete@CBasicFilmBox@@QAEHPAVPDU_Service@@@Z" PURGE="4" COMMENT="" />
    <EXPORT ORDINAL="909" NAME="?NDelete@CBasicFilmBox@@QAEHPAVPDU_Service@@PAVDICOMDataObject@@PAVUID@@@Z" PURGE="12" COMMENT="" />
    <EXPORT ORDINAL="910" NAME="?NDelete@CBasicFilmSession@@QAEHPAVPDU_Service@@PAVDICOMDataObject@@PAVUID@@@Z" PURGE="12" COMMENT="" />
    <EXPORT ORDINAL="911" NAME="?NDelete@CBasicFilmSession@@QAEHXZ" PURGE="0" COMMENT="" />
    <EXPORT ORDINAL="912" NAME="?NSet@CBasicFilmBox@@QAEHPAVPDU_Service@@@Z" PURGE="4" COMMENT="" />
    <EXPORT ORDINAL="913" NAME="?NSet@CBasicFilmBox@@QAEHPAVPDU_Service@@PAVDICOMDataObject@@PAVUID@@@Z" PURGE="12" COMMENT="" />
    <EXPORT ORDINAL="914" NAME="?NSet@CBasicFilmSession@@QAEHPAVPDU_Service@@PAVDICOMDataObject@@PAVUID@@@Z" PURGE="12" COMMENT="" />
    <EXPORT ORDINAL="915" NAME="?NSet@CBasicFilmSession@@QAEHXZ" PURGE="0" COMMENT="" />
    <EXPORT ORDINAL="916" NAME="?NSet@CBasicGrayscaleImageBox@@QAEHPAVPDU_Service@@@Z" PURGE="4" COMMENT="" />
    <EXPORT ORDINAL="917" NAME="?NSet@CBasicGrayscaleImageBox@@QAEHPAVPDU_Service@@PAVDICOMDataObject@@PAVUID@@@Z" PURGE="12" COMMENT="" />
    <EXPORT ORDINAL="918" NAME="?Open@CBasicFilmSession@@QAEHAAV?$CStringT@DV?$StrTraitMFC_DLL@DV?$ChTraitsCRT@D@ATL@@@@@ATL@@000@Z" PURGE="16" COMMENT="" />
    <EXPORT ORDINAL="919" NAME="?Open@CBasicRecordset@@UAEHIPBDK@Z" PURGE="12" COMMENT="" />
    <EXPORT ORDINAL="920" NAME="?Open@CStandardStorage@@QAEPAVDICOMDataObject@@AAV?$CStringT@DV?$StrTraitMFC_DLL@DV?$ChTraitsCRT@D@ATL@@@@@ATL@@@Z" PURGE="4" COMMENT="" />
    <EXPORT ORDINAL="921" NAME="?Open@CStorage@@QAEXAAV?$CStringT@DV?$StrTraitMFC_DLL@DV?$ChTraitsCRT@D@ATL@@@@@ATL@@@Z" PURGE="4" COMMENT="" />
    <EXPORT ORDINAL="922" NAME="?Parse@CPatientNameParser@@QAEXV?$CStringT@DV?$StrTraitMFC_DLL@DV?$ChTraitsCRT@D@ATL@@@@@ATL@@H@Z" PURGE="8" COMMENT="" />
    <EXPORT ORDINAL="923" NAME="?ParseCommaToEnglish@CPatientNameParser@@AAEXV?$CStringT@DV?$StrTraitMFC_DLL@DV?$ChTraitsCRT@D@ATL@@@@@ATL@@H@Z" PURGE="8" COMMENT="" />
    <EXPORT ORDINAL="924" NAME="?ParseDICOMToEnglish@CPatientNameParser@@AAEXV?$CStringT@DV?$StrTraitMFC_DLL@DV?$ChTraitsCRT@D@ATL@@@@@ATL@@H@Z" PURGE="8" COMMENT="" />
    <EXPORT ORDINAL="925" NAME="?ParseSpaceToEnglish@CPatientNameParser@@AAEXV?$CStringT@DV?$StrTraitMFC_DLL@DV?$ChTraitsCRT@D@ATL@@@@@ATL@@H@Z" PURGE="8" COMMENT="" />
    <EXPORT ORDINAL="926" NAME="?PatientQuery@CPatientRootQuery@@QAEXV?$CStringT@DV?$StrTraitMFC_DLL@DV?$ChTraitsCRT@D@ATL@@@@@ATL@@00000PAW4DCMDLL_STATUS@@@Z" PURGE="28" COMMENT="" />
    <EXPORT ORDINAL="927" NAME="?PixelData@CStorage@@QAEPAXXZ" PURGE="0" COMMENT="" />
    <EXPORT ORDINAL="928" NAME="?QualifyOn@CPatientRootRetrieve@@UAEHPAE000@Z" PURGE="16" COMMENT="" />
    <EXPORT ORDINAL="929" NAME="?QualifyOn@CStudyRootRetrieve@@UAEHPAE000@Z" PURGE="16" COMMENT="" />
    <EXPORT ORDINAL="930" NAME="?Query@CMitraReportQuery@@QAEXV?$CStringT@DV?$StrTraitMFC_DLL@DV?$ChTraitsCRT@D@ATL@@@@@ATL@@00000PAW4DCMDLL_STATUS@@@Z" PURGE="28" COMMENT="" />
    <EXPORT ORDINAL="931" NAME="?Query@CModalityWorklistQuery@@QAEXV?$CStringT@DV?$StrTraitMFC_DLL@DV?$ChTraitsCRT@D@ATL@@@@@ATL@@0000000PAW4DCMDLL_STATUS@@@Z" PURGE="36" COMMENT="" />
    <EXPORT ORDINAL="932" NAME="?RejectSave@CStorage@@QAEHPAVDICOMDataObject@@PAD@Z" PURGE="8" COMMENT="" />
    <EXPORT ORDINAL="933" NAME="?ReleaseAssociation@CStorage@@SAXPAVPDU_Service@@@Z" PURGE="0" COMMENT="" />
    <EXPORT ORDINAL="934" NAME="?RemoveAll@?$CArray@PAV?$CStringT@DV?$StrTraitMFC_DLL@DV?$ChTraitsCRT@D@ATL@@@@@ATL@@PAV12@@@QAEXXZ" PURGE="0" COMMENT="" />
    <EXPORT ORDINAL="935" NAME="?RemoveAll@?$CArray@PAVCResult@@PAV1@@@QAEXXZ" PURGE="0" COMMENT="" />
    <EXPORT ORDINAL="936" NAME="?RemoveAt@?$CArray@PAV?$CStringT@DV?$StrTraitMFC_DLL@DV?$ChTraitsCRT@D@ATL@@@@@ATL@@PAV12@@@QAEXHH@Z" PURGE="8" COMMENT="" />
    <EXPORT ORDINAL="937" NAME="?RemoveAt@?$CArray@PAVCResult@@PAV1@@@QAEXHH@Z" PURGE="8" COMMENT="" />
    <EXPORT ORDINAL="938" NAME="?RemoveTerminatingCarets@CPatientNameParser@@QAE?AV?$CStringT@DV?$StrTraitMFC_DLL@DV?$ChTraitsCRT@D@ATL@@@@@ATL@@V23@@Z" PURGE="8" COMMENT="" />
    <EXPORT ORDINAL="939" NAME="?ReplaceWildcard@CStudyRootQuery@@QAEXAAV?$CStringT@DV?$StrTraitMFC_DLL@DV?$ChTraitsCRT@D@ATL@@@@@ATL@@@Z" PURGE="4" COMMENT="" />
    <EXPORT ORDINAL="940" NAME="?Retrieve@CPatientRootRetrieve@@QAEXAAV?$CStringT@DV?$StrTraitMFC_DLL@DV?$ChTraitsCRT@D@ATL@@@@@ATL@@0000000PAW4DCMDLL_STATUS@@@Z" PURGE="36" COMMENT="" />
    <EXPORT ORDINAL="941" NAME="?Retrieve@CPatientRootRetrieve@@QAEXAAV?$CStringT@DV?$StrTraitMFC_DLL@DV?$ChTraitsCRT@D@ATL@@@@@ATL@@000000PAW4DCMDLL_STATUS@@@Z" PURGE="32" COMMENT="" />
    <EXPORT ORDINAL="942" NAME="?Retrieve@CPatientRootRetrieve@@QAEXAAV?$CStringT@DV?$StrTraitMFC_DLL@DV?$ChTraitsCRT@D@ATL@@@@@ATL@@00000PAW4DCMDLL_STATUS@@@Z" PURGE="28" COMMENT="" />
    <EXPORT ORDINAL="943" NAME="?Retrieve@CPatientRootRetrieve@@QAEXAAV?$CStringT@DV?$StrTraitMFC_DLL@DV?$ChTraitsCRT@D@ATL@@@@@ATL@@0000PAW4DCMDLL_STATUS@@@Z" PURGE="24" COMMENT="" />
    <EXPORT ORDINAL="944" NAME="?Retrieve@CStudyRootRetrieve@@QAEXAAV?$CStringT@DV?$StrTraitMFC_DLL@DV?$ChTraitsCRT@D@ATL@@@@@ATL@@000000PAW4DCMDLL_STATUS@@@Z" PURGE="32" COMMENT="" />
    <EXPORT ORDINAL="945" NAME="?Retrieve@CStudyRootRetrieve@@QAEXAAV?$CStringT@DV?$StrTraitMFC_DLL@DV?$ChTraitsCRT@D@ATL@@@@@ATL@@00000PAW4DCMDLL_STATUS@@@Z" PURGE="28" COMMENT="" />
    <EXPORT ORDINAL="946" NAME="?Retrieve@CStudyRootRetrieve@@QAEXAAV?$CStringT@DV?$StrTraitMFC_DLL@DV?$ChTraitsCRT@D@ATL@@@@@ATL@@0000PAW4DCMDLL_STATUS@@@Z" PURGE="24" COMMENT="" />
    <EXPORT ORDINAL="947" NAME="?Retrieve@CStudyRootRetrieve@@QAEXPAW4DCMDLL_STATUS@@@Z" PURGE="4" COMMENT="" />
    <EXPORT ORDINAL="948" NAME="?RetrieveOn@CPatientRootRetrieve@@UAEHPAVDICOMDataObject@@PAPAV2@PAPAVStandardStorage@@@Z" PURGE="12" COMMENT="" />
    <EXPORT ORDINAL="949" NAME="?RetrieveOn@CStudyRootRetrieve@@UAEHPAVDICOMDataObject@@PAPAV2@PAPAVStandardStorage@@@Z" PURGE="12" COMMENT="" />
    <EXPORT ORDINAL="950" NAME="?SQLStringFormat@CStorage@@QAEXAAV?$CStringT@DV?$StrTraitMFC_DLL@DV?$ChTraitsCRT@D@ATL@@@@@ATL@@@Z" PURGE="4" COMMENT="" />
    <EXPORT ORDINAL="951" NAME="?Save@CStorage@@QAEHH@Z" PURGE="4" COMMENT="" />
    <EXPORT ORDINAL="952" NAME="?Save@CStorage@@QAEHPAVDICOMDataObject@@AAV?$CStringT@DV?$StrTraitMFC_DLL@DV?$ChTraitsCRT@D@ATL@@@@@ATL@@PAD@Z" PURGE="12" COMMENT="" />
    <EXPORT ORDINAL="953" NAME="?Save@CStorage@@QAEHPAVDICOMDataObject@@PAD@Z" PURGE="8" COMMENT="" />
    <EXPORT ORDINAL="954" NAME="?SaveAs@CStorage@@QAEHAAV?$CStringT@DV?$StrTraitMFC_DLL@DV?$ChTraitsCRT@D@ATL@@@@@ATL@@@Z" PURGE="4" COMMENT="" />
    <EXPORT ORDINAL="955" NAME="?SaveAs@CStorage@@QAEHAAV?$CStringT@DV?$StrTraitMFC_DLL@DV?$ChTraitsCRT@D@ATL@@@@@ATL@@PAVDICOMDataObject@@PAD@Z" PURGE="12" COMMENT="" />
    <EXPORT ORDINAL="956" NAME="?SearchOn@CMitraReportQuery@@UAEHPAVDICOMDataObject@@PAV?$Array@PAVDICOMDataObject@@@@0@Z" PURGE="12" COMMENT="" />
    <EXPORT ORDINAL="957" NAME="?SearchOn@CModalityWorklistQuery@@UAEHPAVDICOMDataObject@@PAV?$Array@PAVDICOMDataObject@@@@0@Z" PURGE="12" COMMENT="" />
    <EXPORT ORDINAL="958" NAME="?SearchOn@CPatientRootQuery@@UAEHPAVDICOMDataObject@@PAV?$Array@PAVDICOMDataObject@@@@0@Z" PURGE="12" COMMENT="" />
    <EXPORT ORDINAL="959" NAME="?SearchOn@CPatientRootRetrieve@@UAEHPAVDICOMDataObject@@PAV?$Array@PAVDICOMDataObject@@@@0@Z" PURGE="12" COMMENT="" />
    <EXPORT ORDINAL="960" NAME="?SearchOn@CStudyRootQuery@@UAEHPAVDICOMDataObject@@PAV?$Array@PAVDICOMDataObject@@@@0@Z" PURGE="12" COMMENT="" />
    <EXPORT ORDINAL="961" NAME="?SearchOn@CStudyRootRetrieve@@UAEHPAVDICOMDataObject@@PAV?$Array@PAVDICOMDataObject@@@@0@Z" PURGE="12" COMMENT="" />
    <EXPORT ORDINAL="962" NAME="?SelfTest@CDicomDirectory@@IAE_NXZ" PURGE="0" COMMENT="" />
    <EXPORT ORDINAL="963" NAME="?Send@CStorage@@QAEHPAVPDU_Service@@AAV?$CStringT@DV?$StrTraitMFC_DLL@DV?$ChTraitsCRT@D@ATL@@@@@ATL@@111@Z" PURGE="20" COMMENT="" />
    <EXPORT ORDINAL="964" NAME="?Serialize@?$CArray@PAV?$CStringT@DV?$StrTraitMFC_DLL@DV?$ChTraitsCRT@D@ATL@@@@@ATL@@PAV12@@@UAEXAAVCArchive@@@Z" PURGE="4" COMMENT="" />
    <EXPORT ORDINAL="965" NAME="?Serialize@?$CArray@PAVCResult@@PAV1@@@UAEXAAVCArchive@@@Z" PURGE="4" COMMENT="" />
    <EXPORT ORDINAL="966" NAME="?SeriesQuery@CPatientRootQuery@@QAEXV?$CStringT@DV?$StrTraitMFC_DLL@DV?$ChTraitsCRT@D@ATL@@@@@ATL@@0000PAW4DCMDLL_STATUS@@@Z" PURGE="24" COMMENT="" />
    <EXPORT ORDINAL="967" NAME="?SeriesQuery@CStudyRootQuery@@QAEXV?$CStringT@DV?$StrTraitMFC_DLL@DV?$ChTraitsCRT@D@ATL@@@@@ATL@@0000PAW4DCMDLL_STATUS@@@Z" PURGE="24" COMMENT="" />
    <EXPORT ORDINAL="968" NAME="?Set@CCRStorage@@UAEHPAVDICOMDataObject@@@Z" PURGE="4" COMMENT="" />
    <EXPORT ORDINAL="969" NAME="?Set@CCTStorage@@UAEHPAVDICOMDataObject@@@Z" PURGE="4" COMMENT="" />
    <EXPORT ORDINAL="970" NAME="?Set@CDXRStorage@@UAEHPAVDICOMDataObject@@@Z" PURGE="4" COMMENT="" />
    <EXPORT ORDINAL="971" NAME="?Set@CDXStorage@@UAEHPAVDICOMDataObject@@@Z" PURGE="4" COMMENT="" />
    <EXPORT ORDINAL="972" NAME="?Set@CMGRStorage@@UAEHPAVDICOMDataObject@@@Z" PURGE="4" COMMENT="" />
    <EXPORT ORDINAL="973" NAME="?Set@CMGStorage@@UAEHPAVDICOMDataObject@@@Z" PURGE="4" COMMENT="" />
    <EXPORT ORDINAL="974" NAME="?Set@CMRStorage@@UAEHPAVDICOMDataObject@@@Z" PURGE="4" COMMENT="" />
    <EXPORT ORDINAL="975" NAME="?Set@CNMNStorage@@UAEHPAVDICOMDataObject@@@Z" PURGE="4" COMMENT="" />
    <EXPORT ORDINAL="976" NAME="?Set@CNMStorage@@UAEHPAVDICOMDataObject@@@Z" PURGE="4" COMMENT="" />
    <EXPORT ORDINAL="977" NAME="?Set@CPETStorage@@UAEHPAVDICOMDataObject@@@Z" PURGE="4" COMMENT="" />
    <EXPORT ORDINAL="978" NAME="?Set@CRFStorage@@UAEHPAVDICOMDataObject@@@Z" PURGE="4" COMMENT="" />
    <EXPORT ORDINAL="979" NAME="?Set@CRTStorage@@UAEHPAVDICOMDataObject@@@Z" PURGE="4" COMMENT="" />
    <EXPORT ORDINAL="980" NAME="?Set@CSCStorage@@UAEHPAVDICOMDataObject@@@Z" PURGE="4" COMMENT="" />
    <EXPORT ORDINAL="981" NAME="?Set@CUSMStorage@@UAEHPAVDICOMDataObject@@@Z" PURGE="4" COMMENT="" />
    <EXPORT ORDINAL="982" NAME="?Set@CUSNMStorage@@UAEHPAVDICOMDataObject@@@Z" PURGE="4" COMMENT="" />
    <EXPORT ORDINAL="983" NAME="?Set@CUSNStorage@@UAEHPAVDICOMDataObject@@@Z" PURGE="4" COMMENT="" />
    <EXPORT ORDINAL="984" NAME="?Set@CUSStorage@@UAEHPAVDICOMDataObject@@@Z" PURGE="4" COMMENT="" />
    <EXPORT ORDINAL="985" NAME="?Set@CXABiStorage@@UAEHPAVDICOMDataObject@@@Z" PURGE="4" COMMENT="" />
    <EXPORT ORDINAL="986" NAME="?Set@CXAStorage@@UAEHPAVDICOMDataObject@@@Z" PURGE="4" COMMENT="" />
    <EXPORT ORDINAL="987" NAME="?SetAnnotationDisplayFormatID@CBasicFilmBox@@QAEXAAV?$CStringT@DV?$StrTraitMFC_DLL@DV?$ChTraitsCRT@D@ATL@@@@@ATL@@@Z" PURGE="4" COMMENT="" />
    <EXPORT ORDINAL="988" NAME="?SetAt@?$CArray@PAV?$CStringT@DV?$StrTraitMFC_DLL@DV?$ChTraitsCRT@D@ATL@@@@@ATL@@PAV12@@@QAEXHPAV?$CStringT@DV?$StrTraitMFC_DLL@DV?$ChTraitsCRT@D@ATL@@@@@ATL@@@Z" PURGE="8" COMMENT="" />
    <EXPORT ORDINAL="989" NAME="?SetAt@?$CArray@PAVCResult@@PAV1@@@QAEXHPAVCResult@@@Z" PURGE="8" COMMENT="" />
    <EXPORT ORDINAL="990" NAME="?SetAtGrow@?$CArray@PAV?$CStringT@DV?$StrTraitMFC_DLL@DV?$ChTraitsCRT@D@ATL@@@@@ATL@@PAV12@@@QAEXHPAV?$CStringT@DV?$StrTraitMFC_DLL@DV?$ChTraitsCRT@D@ATL@@@@@ATL@@@Z" PURGE="8" COMMENT="" />
    <EXPORT ORDINAL="991" NAME="?SetAtGrow@?$CArray@PAVCResult@@PAV1@@@QAEXHPAVCResult@@@Z" PURGE="8" COMMENT="" />
    <EXPORT ORDINAL="992" NAME="?SetBasicFilmSessionSOPInstanceUID@CBasicFilmBox@@QAEXAAVUID@@@Z" PURGE="4" COMMENT="" />
    <EXPORT ORDINAL="993" NAME="?SetBitsAllocated@CPreformattedGrayscaleImage@@QAEXG@Z" PURGE="4" COMMENT="" />
    <EXPORT ORDINAL="994" NAME="?SetBitsStored@CPreformattedGrayscaleImage@@QAEXG@Z" PURGE="4" COMMENT="" />
    <EXPORT ORDINAL="995" NAME="?SetBorderDensity@CBasicFilmBox@@QAEXAAV?$CStringT@DV?$StrTraitMFC_DLL@DV?$ChTraitsCRT@D@ATL@@@@@ATL@@@Z" PURGE="4" COMMENT="" />
    <EXPORT ORDINAL="996" NAME="?SetColumns@CPreformattedGrayscaleImage@@QAEXG@Z" PURGE="4" COMMENT="" />
    <EXPORT ORDINAL="997" NAME="?SetConfigurationInformation@CBasicFilmBox@@QAEXAAV?$CStringT@DV?$StrTraitMFC_DLL@DV?$ChTraitsCRT@D@ATL@@@@@ATL@@@Z" PURGE="4" COMMENT="" />
    <EXPORT ORDINAL="998" NAME="?SetDXImageModule@CCRStorage@@QAEHPAV?$CStringT@DV?$StrTraitMFC_DLL@DV?$ChTraitsCRT@D@ATL@@@@@ATL@@0@Z" PURGE="8" COMMENT="" />
    <EXPORT ORDINAL="999" NAME="?SetDXImageModule@CDXRStorage@@QAEHPAV?$CStringT@DV?$StrTraitMFC_DLL@DV?$ChTraitsCRT@D@ATL@@@@@ATL@@0@Z" PURGE="8" COMMENT="" />
    <EXPORT ORDINAL="1000" NAME="?SetDXImageModule@CDXStorage@@QAEHPAV?$CStringT@DV?$StrTraitMFC_DLL@DV?$ChTraitsCRT@D@ATL@@@@@ATL@@0@Z" PURGE="8" COMMENT="" />
    <EXPORT ORDINAL="1001" NAME="?SetDXImageModule@CMGRStorage@@QAEHPAV?$CStringT@DV?$StrTraitMFC_DLL@DV?$ChTraitsCRT@D@ATL@@@@@ATL@@0@Z" PURGE="8" COMMENT="" />
    <EXPORT ORDINAL="1002" NAME="?SetDXImageModule@CMGStorage@@QAEHPAV?$CStringT@DV?$StrTraitMFC_DLL@DV?$ChTraitsCRT@D@ATL@@@@@ATL@@0@Z" PURGE="8" COMMENT="" />
    <EXPORT ORDINAL="1003" NAME="?SetEmptyImageDensity@CBasicFilmBox@@QAEXAAV?$CStringT@DV?$StrTraitMFC_DLL@DV?$ChTraitsCRT@D@ATL@@@@@ATL@@@Z" PURGE="4" COMMENT="" />
    <EXPORT ORDINAL="1004" NAME="?SetExceptionOnFailure@CBasicFilmBox@@QAEXXZ" PURGE="0" COMMENT="" />
    <EXPORT ORDINAL="1005" NAME="?SetExceptionOnFailure@CBasicFilmSession@@QAEXXZ" PURGE="0" COMMENT="" />
    <EXPORT ORDINAL="1006" NAME="?SetExceptionOnFailure@CBasicGrayscaleImageBox@@QAEXXZ" PURGE="0" COMMENT="" />
    <EXPORT ORDINAL="1007" NAME="?SetExceptionOnWarning@CBasicFilmBox@@QAEXXZ" PURGE="0" COMMENT="" />
    <EXPORT ORDINAL="1008" NAME="?SetExceptionOnWarning@CBasicFilmSession@@QAEXXZ" PURGE="0" COMMENT="" />
    <EXPORT ORDINAL="1009" NAME="?SetExceptionOnWarning@CBasicGrayscaleImageBox@@QAEXXZ" PURGE="0" COMMENT="" />
    <EXPORT ORDINAL="1010" NAME="?SetFilmDestination@CBasicFilmSession@@QAEXAAV?$CStringT@DV?$StrTraitMFC_DLL@DV?$ChTraitsCRT@D@ATL@@@@@ATL@@@Z" PURGE="4" COMMENT="" />
    <EXPORT ORDINAL="1011" NAME="?SetFilmOrientation@CBasicFilmBox@@QAEXAAV?$CStringT@DV?$StrTraitMFC_DLL@DV?$ChTraitsCRT@D@ATL@@@@@ATL@@@Z" PURGE="4" COMMENT="" />
    <EXPORT ORDINAL="1012" NAME="?SetFilmSessionLabel@CBasicFilmSession@@QAEXAAV?$CStringT@DV?$StrTraitMFC_DLL@DV?$ChTraitsCRT@D@ATL@@@@@ATL@@@Z" PURGE="4" COMMENT="" />
    <EXPORT ORDINAL="1013" NAME="?SetFilmSizeID@CBasicFilmBox@@QAEXAAV?$CStringT@DV?$StrTraitMFC_DLL@DV?$ChTraitsCRT@D@ATL@@@@@ATL@@@Z" PURGE="4" COMMENT="" />
    <EXPORT ORDINAL="1014" NAME="?SetGeneralEquipmentModule@CStorage@@QAEXPAV?$CStringT@DV?$StrTraitMFC_DLL@DV?$ChTraitsCRT@D@ATL@@@@@ATL@@0000000000PAF@Z" PURGE="48" COMMENT="" />
    <EXPORT ORDINAL="1015" NAME="?SetGeneralImageModule@CStorage@@QAEXPAV?$CStringT@DV?$StrTraitMFC_DLL@DV?$ChTraitsCRT@D@ATL@@@@@ATL@@0000000PAX0100@Z" PURGE="52" COMMENT="" />
    <EXPORT ORDINAL="1016" NAME="?SetGeneralSeriesModule@CStorage@@QAEXPAV?$CStringT@DV?$StrTraitMFC_DLL@DV?$ChTraitsCRT@D@ATL@@@@@ATL@@000000000PAX00PAF2@Z" PURGE="60" COMMENT="" />
    <EXPORT ORDINAL="1017" NAME="?SetGeneralStudyModule@CStorage@@QAEXPAV?$CStringT@DV?$StrTraitMFC_DLL@DV?$ChTraitsCRT@D@ATL@@@@@ATL@@0000000PAX@Z" PURGE="36" COMMENT="" />
    <EXPORT ORDINAL="1018" NAME="?SetHighBit@CPreformattedGrayscaleImage@@QAEXG@Z" PURGE="4" COMMENT="" />
    <EXPORT ORDINAL="1019" NAME="?SetImageDisplayFormat@CBasicFilmBox@@QAEXAAV?$CStringT@DV?$StrTraitMFC_DLL@DV?$ChTraitsCRT@D@ATL@@@@@ATL@@@Z" PURGE="4" COMMENT="" />
    <EXPORT ORDINAL="1020" NAME="?SetImagePixelModule@CStorage@@QAEXPAGPAV?$CStringT@DV?$StrTraitMFC_DLL@DV?$ChTraitsCRT@D@ATL@@@@@ATL@@000000PAX011@Z" PURGE="48" COMMENT="" />
    <EXPORT ORDINAL="1021" NAME="?SetImagePlaneModule@CStorage@@QAEXPAV?$CStringT@DV?$StrTraitMFC_DLL@DV?$ChTraitsCRT@D@ATL@@@@@ATL@@0@Z" PURGE="8" COMMENT="" />
    <EXPORT ORDINAL="1022" NAME="?SetImagePosition@CBasicGrayscaleImageBox@@QAEXG@Z" PURGE="4" COMMENT="" />
    <EXPORT ORDINAL="1023" NAME="?SetMagnificationType@CBasicFilmBox@@QAEXAAV?$CStringT@DV?$StrTraitMFC_DLL@DV?$ChTraitsCRT@D@ATL@@@@@ATL@@@Z" PURGE="4" COMMENT="" />
    <EXPORT ORDINAL="1024" NAME="?SetMagnificationType@CBasicGrayscaleImageBox@@QAEXAAV?$CStringT@DV?$StrTraitMFC_DLL@DV?$ChTraitsCRT@D@ATL@@@@@ATL@@@Z" PURGE="4" COMMENT="" />
    <EXPORT ORDINAL="1025" NAME="?SetMaxDensity@CBasicFilmBox@@QAEXG@Z" PURGE="4" COMMENT="" />
    <EXPORT ORDINAL="1026" NAME="?SetMediumType@CBasicFilmSession@@QAEXAAV?$CStringT@DV?$StrTraitMFC_DLL@DV?$ChTraitsCRT@D@ATL@@@@@ATL@@@Z" PURGE="4" COMMENT="" />
    <EXPORT ORDINAL="1027" NAME="?SetMemoryAllocation@CBasicFilmSession@@QAEXAAV?$CStringT@DV?$StrTraitMFC_DLL@DV?$ChTraitsCRT@D@ATL@@@@@ATL@@@Z" PURGE="4" COMMENT="" />
    <EXPORT ORDINAL="1028" NAME="?SetMinDensity@CBasicFilmBox@@QAEXG@Z" PURGE="4" COMMENT="" />
    <EXPORT ORDINAL="1029" NAME="?SetNumberOfCopies@CBasicFilmSession@@QAEXAAV?$CStringT@DV?$StrTraitMFC_DLL@DV?$ChTraitsCRT@D@ATL@@@@@ATL@@@Z" PURGE="4" COMMENT="" />
    <EXPORT ORDINAL="1030" NAME="?SetPatientModule@CStorage@@QAEXPAV?$CStringT@DV?$StrTraitMFC_DLL@DV?$ChTraitsCRT@D@ATL@@@@@ATL@@000PAX00000@Z" PURGE="40" COMMENT="" />
    <EXPORT ORDINAL="1031" NAME="?SetPatientStudyModule@CStorage@@QAEXPAV?$CStringT@DV?$StrTraitMFC_DLL@DV?$ChTraitsCRT@D@ATL@@@@@ATL@@00000@Z" PURGE="24" COMMENT="" />
    <EXPORT ORDINAL="1032" NAME="?SetPhotometricInterpretation@CPreformattedGrayscaleImage@@QAEXAAV?$CStringT@DV?$StrTraitMFC_DLL@DV?$ChTraitsCRT@D@ATL@@@@@ATL@@@Z" PURGE="4" COMMENT="" />
    <EXPORT ORDINAL="1033" NAME="?SetPixelAspectRatio@CPreformattedGrayscaleImage@@QAEXAAV?$CStringT@DV?$StrTraitMFC_DLL@DV?$ChTraitsCRT@D@ATL@@@@@ATL@@@Z" PURGE="4" COMMENT="" />
    <EXPORT ORDINAL="1034" NAME="?SetPixelData@CPreformattedGrayscaleImage@@QAEXPAEI@Z" PURGE="8" COMMENT="" />
    <EXPORT ORDINAL="1035" NAME="?SetPixelRepresentation@CPreformattedGrayscaleImage@@QAEXG@Z" PURGE="4" COMMENT="" />
    <EXPORT ORDINAL="1036" NAME="?SetPolarity@CBasicGrayscaleImageBox@@QAEXAAV?$CStringT@DV?$StrTraitMFC_DLL@DV?$ChTraitsCRT@D@ATL@@@@@ATL@@@Z" PURGE="4" COMMENT="" />
    <EXPORT ORDINAL="1037" NAME="?SetPreformattedGrayscaleImageSequence@CBasicGrayscaleImageBox@@QAEXGAAV?$CStringT@DV?$StrTraitMFC_DLL@DV?$ChTraitsCRT@D@ATL@@@@@ATL@@GG0GGGGPAEI@Z" PURGE="44" COMMENT="" />
    <EXPORT ORDINAL="1038" NAME="?SetPrintPriority@CBasicFilmSession@@QAEXAAV?$CStringT@DV?$StrTraitMFC_DLL@DV?$ChTraitsCRT@D@ATL@@@@@ATL@@@Z" PURGE="4" COMMENT="" />
    <EXPORT ORDINAL="1039" NAME="?SetRequestedDecimateCropBehaviour@CBasicGrayscaleImageBox@@QAEXAAV?$CStringT@DV?$StrTraitMFC_DLL@DV?$ChTraitsCRT@D@ATL@@@@@ATL@@@Z" PURGE="4" COMMENT="" />
    <EXPORT ORDINAL="1040" NAME="?SetRequestedImageSize@CBasicGrayscaleImageBox@@QAEXAAV?$CStringT@DV?$StrTraitMFC_DLL@DV?$ChTraitsCRT@D@ATL@@@@@ATL@@@Z" PURGE="4" COMMENT="" />
    <EXPORT ORDINAL="1041" NAME="?SetRows@CPreformattedGrayscaleImage@@QAEXG@Z" PURGE="4" COMMENT="" />
    <EXPORT ORDINAL="1042" NAME="?SetSCEquipmentModule@CSCStorage@@QAEXPAV?$CStringT@DV?$StrTraitMFC_DLL@DV?$ChTraitsCRT@D@ATL@@@@@ATL@@0000000@Z" PURGE="32" COMMENT="" />
    <EXPORT ORDINAL="1043" NAME="?SetSCImageModule@CSCStorage@@QAEXPAV?$CStringT@DV?$StrTraitMFC_DLL@DV?$ChTraitsCRT@D@ATL@@@@@ATL@@0000PAX@Z" PURGE="24" COMMENT="" />
    <EXPORT ORDINAL="1044" NAME="?SetSOPCommonModule@CStorage@@QAEXPAV?$CStringT@DV?$StrTraitMFC_DLL@DV?$ChTraitsCRT@D@ATL@@@@@ATL@@00000@Z" PURGE="24" COMMENT="" />
    <EXPORT ORDINAL="1045" NAME="?SetSamplesPerPixel@CPreformattedGrayscaleImage@@QAEXG@Z" PURGE="4" COMMENT="" />
    <EXPORT ORDINAL="1046" NAME="?SetShowErrorMessage@CStudyRootQuery@@QAEXH@Z" PURGE="4" COMMENT="" />
    <EXPORT ORDINAL="1047" NAME="?SetSize@?$CArray@PAV?$CStringT@DV?$StrTraitMFC_DLL@DV?$ChTraitsCRT@D@ATL@@@@@ATL@@PAV12@@@QAEXHH@Z" PURGE="8" COMMENT="" />
    <EXPORT ORDINAL="1048" NAME="?SetSize@?$CArray@PAVCResult@@PAV1@@@QAEXHH@Z" PURGE="8" COMMENT="" />
    <EXPORT ORDINAL="1049" NAME="?SetSmoothingType@CBasicFilmBox@@QAEXAAV?$CStringT@DV?$StrTraitMFC_DLL@DV?$ChTraitsCRT@D@ATL@@@@@ATL@@@Z" PURGE="4" COMMENT="" />
    <EXPORT ORDINAL="1050" NAME="?SetSmoothingType@CBasicGrayscaleImageBox@@QAEXAAV?$CStringT@DV?$StrTraitMFC_DLL@DV?$ChTraitsCRT@D@ATL@@@@@ATL@@@Z" PURGE="4" COMMENT="" />
    <EXPORT ORDINAL="1051" NAME="?SetTagValueAsString@CRTStorage@@AAEXAAVVR@@AAV?$CStringT@DV?$StrTraitMFC_DLL@DV?$ChTraitsCRT@D@ATL@@@@@ATL@@@Z" PURGE="8" COMMENT="" />
    <EXPORT ORDINAL="1052" NAME="?SetTrim@CBasicFilmBox@@QAEXAAV?$CStringT@DV?$StrTraitMFC_DLL@DV?$ChTraitsCRT@D@ATL@@@@@ATL@@@Z" PURGE="4" COMMENT="" />
    <EXPORT ORDINAL="1053" NAME="?SetUID@CStandardStorage@@QAEHAAVUID@@@Z" PURGE="4" COMMENT="" />
    <EXPORT ORDINAL="1054" NAME="?SetUID@CStandardStorage@@QAEHPAVDICOMDataObject@@@Z" PURGE="4" COMMENT="" />
    <EXPORT ORDINAL="1055" NAME="?SetUID@CStandardStorage@@QAEHPAVVR@@@Z" PURGE="4" COMMENT="" />
    <EXPORT ORDINAL="1056" NAME="?SetWindowWidthCenter@CStorage@@QAEXMM@Z" PURGE="8" COMMENT="" />
    <EXPORT ORDINAL="1057" NAME="?SetupPatient@CDicomDirectory@@AAEXPAVCPatient@@PAV?$CArray@PAVCStudy@@PAV1@@@PAV?$CArray@PAVCSeries@@PAV1@@@PAV?$CArray@PAVCImages@@PAV1@@@@Z" PURGE="16" COMMENT="" />
    <EXPORT ORDINAL="1058" NAME="?SetupSeries@CDicomDirectory@@AAEXPAVCSeries@@PAV?$CArray@PAVCImages@@PAV1@@@@Z" PURGE="8" COMMENT="" />
    <EXPORT ORDINAL="1059" NAME="?SetupStudy@CDicomDirectory@@AAEXPAVCStudy@@PAV?$CArray@PAVCSeries@@PAV1@@@PAV?$CArray@PAVCImages@@PAV1@@@@Z" PURGE="12" COMMENT="" />
    <EXPORT ORDINAL="1060" NAME="?SortElements@CDicomDirectory@@AAEHPAV?$CArray@PAVCPatient@@PAV1@@@PAV?$CArray@PAVCStudy@@PAV1@@@PAV?$CArray@PAVCSeries@@PAV1@@@PAV?$CArray@PAVCImages@@PAV1@@@@Z" PURGE="16" COMMENT="" />
    <EXPORT ORDINAL="1061" NAME="?StudyQuery@CDicomDirectory@@QAEPAVCResultsArray@@V?$CStringT@DV?$StrTraitMFC_DLL@DV?$ChTraitsCRT@D@ATL@@@@@ATL@@000000@Z" PURGE="28" COMMENT="" />
    <EXPORT ORDINAL="1062" NAME="?StudyQuery@CPatientRootQuery@@QAEXV?$CStringT@DV?$StrTraitMFC_DLL@DV?$ChTraitsCRT@D@ATL@@@@@ATL@@00000PAW4DCMDLL_STATUS@@@Z" PURGE="28" COMMENT="" />
    <EXPORT ORDINAL="1063" NAME="?StudyQuery@CStudyRootQuery@@QAEXPAVCDatabase@@V?$CStringT@DV?$StrTraitMFC_DLL@DV?$ChTraitsCRT@D@ATL@@@@@ATL@@111111111111HHPAW4DCMDLL_STATUS@@@Z" PURGE="68" COMMENT="" />
    <EXPORT ORDINAL="1064" NAME="?SyncReferenceSequence@CBasicFilmBox@@QAEHPAVVR@@PAVUID@@1@Z" PURGE="12" COMMENT="" />
    <EXPORT ORDINAL="1065" NAME="?Test@CPatientNameParser@@QAEHXZ" PURGE="0" COMMENT="" />
    <EXPORT ORDINAL="1066" NAME="?TestContains@CPatientNameParser@@AAEHPAHH@Z" PURGE="8" COMMENT="" />
    <EXPORT ORDINAL="1067" NAME="?TestCopyConstructor@CPatientNameParser@@AAEHPAHH@Z" PURGE="8" COMMENT="" />
    <EXPORT ORDINAL="1068" NAME="?TestDefaultConstructor@CPatientNameParser@@AAEHPAHH@Z" PURGE="8" COMMENT="" />
    <EXPORT ORDINAL="1069" NAME="?TestFormatEnglishName@CPatientNameParser@@AAEHPAHH@Z" PURGE="8" COMMENT="" />
    <EXPORT ORDINAL="1070" NAME="?TestFormateFilmEnglishName@CPatientNameParser@@AAEHPAHH@Z" PURGE="8" COMMENT="" />
    <EXPORT ORDINAL="1071" NAME="?TestGenerateDICOMName@CPatientNameParser@@AAEHPAHH@Z" PURGE="8" COMMENT="" />
    <EXPORT ORDINAL="1072" NAME="?TestGetNumberOfComponents@CPatientNameParser@@AAEHPAHH@Z" PURGE="8" COMMENT="" />
    <EXPORT ORDINAL="1073" NAME="?TestGetPostIncludingString@CPatientNameParser@@AAEHPAHH@Z" PURGE="8" COMMENT="" />
    <EXPORT ORDINAL="1074" NAME="?TestParse@CPatientNameParser@@AAEHPAHH@Z" PURGE="8" COMMENT="" />
    <EXPORT ORDINAL="1075" NAME="?TestParseCommaToEnglish@CPatientNameParser@@AAEHPAHH@Z" PURGE="8" COMMENT="" />
    <EXPORT ORDINAL="1076" NAME="?TestParseDICOMToEnglish@CPatientNameParser@@AAEHPAHH@Z" PURGE="8" COMMENT="" />
    <EXPORT ORDINAL="1077" NAME="?TestParseSpaceToEnglish@CPatientNameParser@@AAEHPAHH@Z" PURGE="8" COMMENT="" />
    <EXPORT ORDINAL="1078" NAME="?TestPostString@CPatientNameParser@@AAEHPAHH@Z" PURGE="8" COMMENT="" />
    <EXPORT ORDINAL="1079" NAME="?TestPreString@CPatientNameParser@@AAEHPAHH@Z" PURGE="8" COMMENT="" />
    <EXPORT ORDINAL="1080" NAME="?TestRemoveTerminatingCarets@CPatientNameParser@@AAEHPAHH@Z" PURGE="8" COMMENT="" />
    <EXPORT ORDINAL="1081" NAME="?TestUnknownConstructor@CPatientNameParser@@AAEHPAHH@Z" PURGE="8" COMMENT="" />
    <EXPORT ORDINAL="1082" NAME="?Update@CBasicRecordset@@UAEHXZ" PURGE="0" COMMENT="" />
    <EXPORT ORDINAL="1083" NAME="?UpdateDatabase@CStorage@@UAEHPAVCDatabase@@PAD@Z" PURGE="8" COMMENT="" />
    <EXPORT ORDINAL="1084" NAME="?UpdateDatabase@CStorage@@UAEHPAVCDatabase@@PAV?$CArray@PAVCDestination@@PAV1@@@HPAD@Z" PURGE="16" COMMENT="" />
    <EXPORT ORDINAL="1085" NAME="?UpdateImageTable@CCRStorage@@UAEHPAVCDatabase@@AAHPAD@Z" PURGE="12" COMMENT="" />
    <EXPORT ORDINAL="1086" NAME="?UpdateImageTable@CCTStorage@@UAEHPAVCDatabase@@AAHPAD@Z" PURGE="12" COMMENT="" />
    <EXPORT ORDINAL="1087" NAME="?UpdateImageTable@CDXRStorage@@UAEHPAVCDatabase@@AAHPAD@Z" PURGE="12" COMMENT="" />
    <EXPORT ORDINAL="1088" NAME="?UpdateImageTable@CDXStorage@@UAEHPAVCDatabase@@AAHPAD@Z" PURGE="12" COMMENT="" />
    <EXPORT ORDINAL="1089" NAME="?UpdateImageTable@CMGRStorage@@UAEHPAVCDatabase@@AAHPAD@Z" PURGE="12" COMMENT="" />
    <EXPORT ORDINAL="1090" NAME="?UpdateImageTable@CMGStorage@@UAEHPAVCDatabase@@AAHPAD@Z" PURGE="12" COMMENT="" />
    <EXPORT ORDINAL="1091" NAME="?UpdateImageTable@CMRStorage@@UAEHPAVCDatabase@@AAHPAD@Z" PURGE="12" COMMENT="" />
    <EXPORT ORDINAL="1092" NAME="?UpdateImageTable@CNMNStorage@@UAEHPAVCDatabase@@AAHPAD@Z" PURGE="12" COMMENT="" />
    <EXPORT ORDINAL="1093" NAME="?UpdateImageTable@CNMStorage@@UAEHPAVCDatabase@@AAHPAD@Z" PURGE="12" COMMENT="" />
    <EXPORT ORDINAL="1094" NAME="?UpdateImageTable@CPETStorage@@UAEHPAVCDatabase@@AAHPAD@Z" PURGE="12" COMMENT="" />
    <EXPORT ORDINAL="1095" NAME="?UpdateImageTable@CRFStorage@@UAEHPAVCDatabase@@AAHPAD@Z" PURGE="12" COMMENT="" />
    <EXPORT ORDINAL="1096" NAME="?UpdateImageTable@CRTStorage@@UAEHPAVCDatabase@@AAHPAD@Z" PURGE="12" COMMENT="" />
    <EXPORT ORDINAL="1097" NAME="?UpdateImageTable@CStorage@@UAEHPAVCDatabase@@AAHPAD@Z" PURGE="12" COMMENT="" />
    <EXPORT ORDINAL="1098" NAME="?UpdateImageTable@CUSMStorage@@UAEHPAVCDatabase@@AAHPAD@Z" PURGE="12" COMMENT="" />
    <EXPORT ORDINAL="1099" NAME="?UpdateImageTable@CUSNMStorage@@UAEHPAVCDatabase@@AAHPAD@Z" PURGE="12" COMMENT="" />
    <EXPORT ORDINAL="1100" NAME="?UpdateImageTable@CXAStorage@@UAEHPAVCDatabase@@AAHPAD@Z" PURGE="12" COMMENT="" />
    <EXPORT ORDINAL="1101" NAME="?UpdatePatientTable@CStorage@@UAEHPAVCDatabase@@AAJH@Z" PURGE="12" COMMENT="" />
    <EXPORT ORDINAL="1102" NAME="?UpdateSeriesTable@CStorage@@UAEHPAVCDatabase@@H@Z" PURGE="8" COMMENT="" />
    <EXPORT ORDINAL="1103" NAME="?UpdateStudyTable@CStorage@@UAEHPAVCDatabase@@JHH@Z" PURGE="16" COMMENT="" />
    <EXPORT ORDINAL="1104" NAME="?UpdateUnsupportedObjects@CDicomDirectory@@QAE_NV?$CStringT@DV?$StrTraitMFC_DLL@DV?$ChTraitsCRT@D@ATL@@@@@ATL@@00000000@Z" PURGE="36" COMMENT="" />
    <EXPORT ORDINAL="1105" NAME="?Write@CCRStorage@@UAEHPAVPDU_Service@@PAVDICOMDataObject@@@Z" PURGE="8" COMMENT="" />
    <EXPORT ORDINAL="1106" NAME="?Write@CCTStorage@@UAEHPAVPDU_Service@@PAVDICOMDataObject@@@Z" PURGE="8" COMMENT="" />
    <EXPORT ORDINAL="1107" NAME="?Write@CDXRStorage@@UAEHPAVPDU_Service@@PAVDICOMDataObject@@@Z" PURGE="8" COMMENT="" />
    <EXPORT ORDINAL="1108" NAME="?Write@CDXStorage@@UAEHPAVPDU_Service@@PAVDICOMDataObject@@@Z" PURGE="8" COMMENT="" />
    <EXPORT ORDINAL="1109" NAME="?Write@CMGRStorage@@UAEHPAVPDU_Service@@PAVDICOMDataObject@@@Z" PURGE="8" COMMENT="" />
    <EXPORT ORDINAL="1110" NAME="?Write@CMGStorage@@UAEHPAVPDU_Service@@PAVDICOMDataObject@@@Z" PURGE="8" COMMENT="" />
    <EXPORT ORDINAL="1111" NAME="?Write@CMRStorage@@UAEHPAVPDU_Service@@PAVDICOMDataObject@@@Z" PURGE="8" COMMENT="" />
    <EXPORT ORDINAL="1112" NAME="?Write@CNMNStorage@@UAEHPAVPDU_Service@@PAVDICOMDataObject@@@Z" PURGE="8" COMMENT="" />
    <EXPORT ORDINAL="1113" NAME="?Write@CNMStorage@@UAEHPAVPDU_Service@@PAVDICOMDataObject@@@Z" PURGE="8" COMMENT="" />
    <EXPORT ORDINAL="1114" NAME="?Write@CPETStorage@@UAEHPAVPDU_Service@@PAVDICOMDataObject@@@Z" PURGE="8" COMMENT="" />
    <EXPORT ORDINAL="1115" NAME="?Write@CPrinter@@QAEHPAVPDU_Service@@PAVDICOMDataObject@@PAVUID@@@Z" PURGE="12" COMMENT="" />
    <EXPORT ORDINAL="1116" NAME="?Write@CRFStorage@@UAEHPAVPDU_Service@@PAVDICOMDataObject@@@Z" PURGE="8" COMMENT="" />
    <EXPORT ORDINAL="1117" NAME="?Write@CRTStorage@@UAEHPAVPDU_Service@@PAVDICOMDataObject@@@Z" PURGE="8" COMMENT="" />
    <EXPORT ORDINAL="1118" NAME="?Write@CSCStorage@@UAEHPAVPDU_Service@@PAVDICOMDataObject@@@Z" PURGE="8" COMMENT="" />
    <EXPORT ORDINAL="1119" NAME="?Write@CUSMStorage@@UAEHPAVPDU_Service@@PAVDICOMDataObject@@@Z" PURGE="8" COMMENT="" />
    <EXPORT ORDINAL="1120" NAME="?Write@CUSNMStorage@@UAEHPAVPDU_Service@@PAVDICOMDataObject@@@Z" PURGE="8" COMMENT="" />
    <EXPORT ORDINAL="1121" NAME="?Write@CUSNStorage@@UAEHPAVPDU_Service@@PAVDICOMDataObject@@@Z" PURGE="8" COMMENT="" />
    <EXPORT ORDINAL="1122" NAME="?Write@CUSStorage@@UAEHPAVPDU_Service@@PAVDICOMDataObject@@@Z" PURGE="8" COMMENT="" />
    <EXPORT ORDINAL="1123" NAME="?Write@CXABiStorage@@UAEHPAVPDU_Service@@PAVDICOMDataObject@@@Z" PURGE="8" COMMENT="" />
    <EXPORT ORDINAL="1124" NAME="?Write@CXAStorage@@UAEHPAVPDU_Service@@PAVDICOMDataObject@@@Z" PURGE="8" COMMENT="" />
    <EXPORT ORDINAL="1125" NAME="?WriteDICOMDIR@CDicomDirectory@@QAEHAAV?$CStringT@DV?$StrTraitMFC_DLL@DV?$ChTraitsCRT@D@ATL@@@@@ATL@@@Z" PURGE="4" COMMENT="" />
    <EXPORT ORDINAL="1126" NAME="?classCBasicRecordset@CBasicRecordset@@2UCRuntimeClass@@B" PURGE="-1" COMMENT="" />
    <EXPORT ORDINAL="1127" NAME="?classCImageSet@CImageSet@@2UCRuntimeClass@@B" PURGE="-1" COMMENT="" />
    <EXPORT ORDINAL="1128" NAME="?classCLoginSet@CLoginSet@@2UCRuntimeClass@@B" PURGE="-1" COMMENT="" />
    <EXPORT ORDINAL="1129" NAME="?classCPatientQuerySet@CPatientQuerySet@@2UCRuntimeClass@@B" PURGE="-1" COMMENT="" />
    <EXPORT ORDINAL="1130" NAME="?classCPatientSet@CPatientSet@@2UCRuntimeClass@@B" PURGE="-1" COMMENT="" />
    <EXPORT ORDINAL="1131" NAME="?classCPresetsSet@CPresetsSet@@2UCRuntimeClass@@B" PURGE="-1" COMMENT="" />
    <EXPORT ORDINAL="1132" NAME="?classCSeriesQuerySet@CSeriesQuerySet@@2UCRuntimeClass@@B" PURGE="-1" COMMENT="" />
    <EXPORT ORDINAL="1133" NAME="?classCSeriesSet@CSeriesSet@@2UCRuntimeClass@@B" PURGE="-1" COMMENT="" />
    <EXPORT ORDINAL="1134" NAME="?classCServersSet@CServersSet@@2UCRuntimeClass@@B" PURGE="-1" COMMENT="" />
    <EXPORT ORDINAL="1135" NAME="?classCStudyQuerySet@CStudyQuerySet@@2UCRuntimeClass@@B" PURGE="-1" COMMENT="" />
    <EXPORT ORDINAL="1136" NAME="?classCStudySet@CStudySet@@2UCRuntimeClass@@B" PURGE="-1" COMMENT="" />
    <EXPORT ORDINAL="1137" NAME="?classCTemplateAttachmentSet@CTemplateAttachmentSet@@2UCRuntimeClass@@B" PURGE="-1" COMMENT="" />
    <EXPORT ORDINAL="1138" NAME="?classCTemplateSet@CTemplateSet@@2UCRuntimeClass@@B" PURGE="-1" COMMENT="" />
    <EXPORT ORDINAL="1139" NAME="?uGetUID@CStandardStorage@@UAEHAAVUID@@@Z" PURGE="-1" COMMENT="" />
</LIBRARY>

