<?xml version="1.0" encoding="UTF-8"?>
<LIBRARY NAME="ftpapi.dll" PATH="/DLLArchive/etc/FTPAPI.dll" DATE="Fri Jul 03 12:35:08 PDT 2020" VERSION="2.0.982.36">
    <EXPORT ORDINAL="1" NAME="DllGetVersion" PURGE="4" COMMENT="" />
    <EXPORT ORDINAL="2" NAME="??0CFTPDirectory@@QAE@ABV0@@Z" PURGE="4" COMMENT="" />
    <EXPORT ORDINAL="3" NAME="??0CFTPDirectory@@QAE@XZ" PURGE="0" COMMENT="" />
    <EXPORT ORDINAL="4" NAME="??0CFTPFile@@QAE@AAV0@@Z" PURGE="4" COMMENT="" />
    <EXPORT ORDINAL="5" NAME="??0CFTPFile@@QAE@PAUtagFtpFileInfo@@@Z" PURGE="4" COMMENT="" />
    <EXPORT ORDINAL="6" NAME="??0CFTPFile@@QAE@XZ" PURGE="0" COMMENT="" />
    <EXPORT ORDINAL="7" NAME="??0CIPRepeaterClient@@QAE@PB_W0@Z" PURGE="8" COMMENT="" />
    <EXPORT ORDINAL="8" NAME="??0CIPRepeaterClient@@QAE@XZ" PURGE="0" COMMENT="" />
    <EXPORT ORDINAL="9" NAME="??1CFTPDirectory@@UAE@XZ" PURGE="0" COMMENT="" />
    <EXPORT ORDINAL="10" NAME="??1CFTPFile@@UAE@XZ" PURGE="0" COMMENT="" />
    <EXPORT ORDINAL="11" NAME="??1CIPRepeaterClient@@QAE@XZ" PURGE="0" COMMENT="" />
    <EXPORT ORDINAL="12" NAME="??4CFTPFile@@QAEXABV0@@Z" PURGE="4" COMMENT="" />
    <EXPORT ORDINAL="13" NAME="?AddStaticPortMapping@CUPNPNATManager@@QAEJJPB_W@Z" PURGE="8" COMMENT="" />
    <EXPORT ORDINAL="14" NAME="?Close@CFTPAPIManager@@QAEHPAVCFTPConnect@@@Z" PURGE="4" COMMENT="" />
    <EXPORT ORDINAL="15" NAME="?CloseAll@CFTPAPIManager@@QAEXXZ" PURGE="0" COMMENT="" />
    <EXPORT ORDINAL="16" NAME="?Create@CFTPAPIManager@@QAEPAVCFTPConnect@@XZ" PURGE="0" COMMENT="" />
    <EXPORT ORDINAL="17" NAME="?DecodeIsDosFormat@CFTPDirectory@@QAEHPB_W@Z" PURGE="4" COMMENT="" />
    <EXPORT ORDINAL="18" NAME="?DecodeIsEPLFFormat@CFTPDirectory@@QAEHPB_W@Z" PURGE="4" COMMENT="" />
    <EXPORT ORDINAL="19" NAME="?DecodeIsNovellFormat@CFTPDirectory@@QAEHPB_W@Z" PURGE="4" COMMENT="" />
    <EXPORT ORDINAL="20" NAME="?DecodeIsUnixFormat@CFTPDirectory@@QAEHPB_W@Z" PURGE="4" COMMENT="" />
    <EXPORT ORDINAL="21" NAME="?DecodeLine@CFTPDirectory@@QAEKPB_WPAVCFTPFile@@W4HOSTTYPE@@W4FTPSERVER@@@Z" PURGE="16" COMMENT="" />
    <EXPORT ORDINAL="22" NAME="?DecodeLine@CFTPDirectory@@QAEKPB_WW4HOSTTYPE@@W4FTPSERVER@@@Z" PURGE="12" COMMENT="" />
    <EXPORT ORDINAL="23" NAME="?DecodeList@CFTPDirectory@@QAEKPB_WKW4HOSTTYPE@@W4FTPSERVER@@@Z" PURGE="16" COMMENT="" />
    <EXPORT ORDINAL="24" NAME="?FTPAPI_Abort@@YAKPAUHFTPCONNECT__@@@Z" PURGE="0" COMMENT="" />
    <EXPORT ORDINAL="25" NAME="?FTPAPI_BlockingConnect@@YAKPAUHFTPCONNECT__@@@Z" PURGE="0" COMMENT="" />
    <EXPORT ORDINAL="26" NAME="?FTPAPI_CertFreeCertificateContext@@YAHPBU_CERT_CONTEXT@@@Z" PURGE="0" COMMENT="" />
    <EXPORT ORDINAL="27" NAME="?FTPAPI_CommandFromString@@YA?AW4FTPCMD@@PB_W@Z" PURGE="0" COMMENT="" />
    <EXPORT ORDINAL="28" NAME="?FTPAPI_Connect@@YAKPAUHFTPCONNECT__@@PAUtagFTPConnect@@P6GJIPAXK@ZK@Z" PURGE="0" COMMENT="" />
    <EXPORT ORDINAL="29" NAME="?FTPAPI_CreateDirectory@@YAKPAUHFTPCONNECT__@@PB_W1@Z" PURGE="0" COMMENT="" />
    <EXPORT ORDINAL="30" NAME="?FTPAPI_DeleteDirectory@@YAKPAUHFTPCONNECT__@@PB_W1@Z" PURGE="0" COMMENT="" />
    <EXPORT ORDINAL="31" NAME="?FTPAPI_DeleteFile@@YAKPAUHFTPCONNECT__@@PB_W1@Z" PURGE="0" COMMENT="" />
    <EXPORT ORDINAL="32" NAME="?FTPAPI_Disconnect@@YAHPAUHFTPCONNECT__@@@Z" PURGE="0" COMMENT="" />
    <EXPORT ORDINAL="33" NAME="?FTPAPI_EmptyCache@@YAHPB_W@Z" PURGE="0" COMMENT="" />
    <EXPORT ORDINAL="34" NAME="?FTPAPI_EnableCache@@YAHPAUHFTPCONNECT__@@H@Z" PURGE="0" COMMENT="" />
    <EXPORT ORDINAL="35" NAME="?FTPAPI_EnableUTF8@@YAHPAUHFTPCONNECT__@@H@Z" PURGE="0" COMMENT="" />
    <EXPORT ORDINAL="36" NAME="?FTPAPI_EnumDirectory@@YAHPAUHFTPCONNECT__@@P6GJIPAVCFTPFile@@K@ZK@Z" PURGE="0" COMMENT="" />
    <EXPORT ORDINAL="37" NAME="?FTPAPI_FindClose@@YAHPAUHFTPCONNECT__@@@Z" PURGE="0" COMMENT="" />
    <EXPORT ORDINAL="38" NAME="?FTPAPI_FindFirstFile@@YAPAUHFINDFILE__@@PAUHFTPCONNECT__@@PAVCFTPFile@@@Z" PURGE="0" COMMENT="" />
    <EXPORT ORDINAL="39" NAME="?FTPAPI_FindNextFile@@YAPAUHFINDFILE__@@PAUHFTPCONNECT__@@PAU1@PAVCFTPFile@@@Z" PURGE="0" COMMENT="" />
    <EXPORT ORDINAL="40" NAME="?FTPAPI_FixLocalFileName@@YAXAAV?$CStringT@_WV?$StrTraitMFC@_WV?$ChTraitsCRT@_W@ATL@@@@@ATL@@@Z" PURGE="0" COMMENT="" />
    <EXPORT ORDINAL="41" NAME="?FTPAPI_FixLocalFileName@@YAXPA_W@Z" PURGE="0" COMMENT="" />
    <EXPORT ORDINAL="42" NAME="?FTPAPI_FixLocalPath@@YAXAAV?$CStringT@_WV?$StrTraitMFC@_WV?$ChTraitsCRT@_W@ATL@@@@@ATL@@@Z" PURGE="0" COMMENT="" />
    <EXPORT ORDINAL="43" NAME="?FTPAPI_FixLocalPath@@YAXPA_W@Z" PURGE="0" COMMENT="" />
    <EXPORT ORDINAL="44" NAME="?FTPAPI_FixUnicodeName@@YAHPB_WPA_WH@Z" PURGE="0" COMMENT="" />
    <EXPORT ORDINAL="45" NAME="?FTPAPI_FixUnicodeName@@YAXPB_WAAV?$CStringT@_WV?$StrTraitMFC@_WV?$ChTraitsCRT@_W@ATL@@@@@ATL@@@Z" PURGE="0" COMMENT="" />
    <EXPORT ORDINAL="46" NAME="?FTPAPI_GetCacheInfo@@YAHPB_WPAUtagCacheInfo@@@Z" PURGE="0" COMMENT="" />
    <EXPORT ORDINAL="47" NAME="?FTPAPI_GetCertContext@@YAKPAUHFTPCONNECT__@@PAPBU_CERT_CONTEXT@@@Z" PURGE="0" COMMENT="" />
    <EXPORT ORDINAL="48" NAME="?FTPAPI_GetConnectionInfo@@YAKPAUHFTPCONNECT__@@PAU_SecPkgContext_ConnectionInfo@@@Z" PURGE="0" COMMENT="" />
    <EXPORT ORDINAL="49" NAME="?FTPAPI_GetCurrentDirectory@@YAHPAUHFTPCONNECT__@@AAV?$CStringT@_WV?$StrTraitMFC@_WV?$ChTraitsCRT@_W@ATL@@@@@ATL@@@Z" PURGE="0" COMMENT="" />
    <EXPORT ORDINAL="50" NAME="?FTPAPI_GetCurrentDirectory@@YAHPAUHFTPCONNECT__@@PA_WH@Z" PURGE="0" COMMENT="" />
    <EXPORT ORDINAL="51" NAME="?FTPAPI_GetFTPDirectory@@YAAAVCFTPDirectory@@PAUHFTPCONNECT__@@@Z" PURGE="0" COMMENT="" />
    <EXPORT ORDINAL="52" NAME="?FTPAPI_GetFeature@@YAHPAUHFTPCONNECT__@@V?$CStringT@_WV?$StrTraitMFC@_WV?$ChTraitsCRT@_W@ATL@@@@@ATL@@AAV23@@Z" PURGE="0" COMMENT="" />
    <EXPORT ORDINAL="53" NAME="?FTPAPI_GetFileCount@@YAKPAUHFTPCONNECT__@@@Z" PURGE="0" COMMENT="" />
    <EXPORT ORDINAL="54" NAME="?FTPAPI_GetFileInfo@@YAHPAUHFTPCONNECT__@@PB_WPAVCFTPFile@@@Z" PURGE="0" COMMENT="" />
    <EXPORT ORDINAL="55" NAME="?FTPAPI_GetLastError@@YAKPAUHFTPCONNECT__@@@Z" PURGE="0" COMMENT="" />
    <EXPORT ORDINAL="56" NAME="?FTPAPI_GetLastErrorCode@@YAHPAUHFTPCONNECT__@@@Z" PURGE="0" COMMENT="" />
    <EXPORT ORDINAL="57" NAME="?FTPAPI_GetListParameter@@YAHPAUHFTPCONNECT__@@@Z" PURGE="0" COMMENT="" />
    <EXPORT ORDINAL="58" NAME="?FTPAPI_GetLocalFileInfo@@YAHPB_WPAUtagLocalFileInfo@@@Z" PURGE="0" COMMENT="" />
    <EXPORT ORDINAL="59" NAME="?FTPAPI_GetPort@@YAHH@Z" PURGE="0" COMMENT="" />
    <EXPORT ORDINAL="60" NAME="?FTPAPI_GetProtoType@@YAHPAUHFTPCONNECT__@@@Z" PURGE="0" COMMENT="" />
    <EXPORT ORDINAL="61" NAME="?FTPAPI_GetResumeFlag@@YAIPAUHFTPCONNECT__@@@Z" PURGE="0" COMMENT="" />
    <EXPORT ORDINAL="62" NAME="?FTPAPI_GetServerInfo@@YAHPAUHFTPCONNECT__@@PAUtagServerInfo@@@Z" PURGE="0" COMMENT="" />
    <EXPORT ORDINAL="63" NAME="?FTPAPI_GetServerSoftware@@YA?AW4FTPSERVER@@PAUHFTPCONNECT__@@@Z" PURGE="0" COMMENT="" />
    <EXPORT ORDINAL="64" NAME="?FTPAPI_GetServerType@@YA?AW4HOSTTYPE@@PAUHFTPCONNECT__@@@Z" PURGE="0" COMMENT="" />
    <EXPORT ORDINAL="65" NAME="?FTPAPI_GetServerURL@@YAHPAUHFTPCONNECT__@@AAVCURL@@@Z" PURGE="0" COMMENT="" />
    <EXPORT ORDINAL="66" NAME="?FTPAPI_GetStatisticInfo@@YAHPAUHFTPCONNECT__@@PAUtagFtpStatistic@@@Z" PURGE="0" COMMENT="" />
    <EXPORT ORDINAL="67" NAME="?FTPAPI_GetTotalBytesDown@@YA_JXZ" PURGE="0" COMMENT="" />
    <EXPORT ORDINAL="68" NAME="?FTPAPI_GetTotalBytesUp@@YA_JXZ" PURGE="0" COMMENT="" />
    <EXPORT ORDINAL="69" NAME="?FTPAPI_GetTotalRateDown@@YAHXZ" PURGE="0" COMMENT="" />
    <EXPORT ORDINAL="70" NAME="?FTPAPI_GetTotalRateUp@@YAHXZ" PURGE="0" COMMENT="" />
    <EXPORT ORDINAL="71" NAME="?FTPAPI_GetTransferMethod@@YA?AW4TRANSFERMETHOD@@PAUHFTPCONNECT__@@@Z" PURGE="0" COMMENT="" />
    <EXPORT ORDINAL="72" NAME="?FTPAPI_GetTransferMode@@YA?AW4TRANSFERMODE@@PAUHFTPCONNECT__@@@Z" PURGE="0" COMMENT="" />
    <EXPORT ORDINAL="73" NAME="?FTPAPI_GetTransferType@@YA?AW4TRANSFERTYPE@@PAUHFTPCONNECT__@@@Z" PURGE="0" COMMENT="" />
    <EXPORT ORDINAL="74" NAME="?FTPAPI_InitConnect@@YAKPAUHFTPCONNECT__@@PAUtagFTPConnect@@@Z" PURGE="0" COMMENT="" />
    <EXPORT ORDINAL="75" NAME="?FTPAPI_InitStatusCallBack@@YAKPAUHFTPCONNECT__@@P6GJIPAXK@ZK@Z" PURGE="0" COMMENT="" />
    <EXPORT ORDINAL="76" NAME="?FTPAPI_IsBusy@@YAHPAUHFTPCONNECT__@@@Z" PURGE="0" COMMENT="" />
    <EXPORT ORDINAL="77" NAME="?FTPAPI_IsConnected@@YAHPAUHFTPCONNECT__@@@Z" PURGE="0" COMMENT="" />
    <EXPORT ORDINAL="78" NAME="?FTPAPI_IsPrivateIP@@YAHPAUHFTPCONNECT__@@@Z" PURGE="0" COMMENT="" />
    <EXPORT ORDINAL="79" NAME="?FTPAPI_IsServerFeatureAvailable@@YAHPAUHFTPCONNECT__@@W4FTPSERVERFEATURE@@@Z" PURGE="0" COMMENT="" />
    <EXPORT ORDINAL="80" NAME="?FTPAPI_MoveDirectory@@YAKPAUHFTPCONNECT__@@PB_W11@Z" PURGE="0" COMMENT="" />
    <EXPORT ORDINAL="81" NAME="?FTPAPI_MoveFile@@YAKPAUHFTPCONNECT__@@PB_W11@Z" PURGE="0" COMMENT="" />
    <EXPORT ORDINAL="82" NAME="?FTPAPI_QueryFileSize@@YAKPAUHFTPCONNECT__@@PB_WAA_J@Z" PURGE="0" COMMENT="" />
    <EXPORT ORDINAL="83" NAME="?FTPAPI_ReadDirectory@@YAKPAUHFTPCONNECT__@@PB_WHP6GJIPAXK@ZK@Z" PURGE="0" COMMENT="" />
    <EXPORT ORDINAL="84" NAME="?FTPAPI_ReadDirectoryNull@@YAKPAUHFTPCONNECT__@@PB_WP6GJIPAXK@ZK@Z" PURGE="0" COMMENT="" />
    <EXPORT ORDINAL="85" NAME="?FTPAPI_ReadDirectoryRaw@@YAKPAUHFTPCONNECT__@@PB_WHP6GJIPAXK@ZK@Z" PURGE="0" COMMENT="" />
    <EXPORT ORDINAL="86" NAME="?FTPAPI_ReadFile@@YAKPAUHFTPCONNECT__@@PB_W1_J2W4TRANSFERTYPE@@P6GJIPAXK@ZK@Z" PURGE="0" COMMENT="" />
    <EXPORT ORDINAL="87" NAME="?FTPAPI_RegisterNotifyWindow@@YAHPAUHWND__@@I@Z" PURGE="0" COMMENT="" />
    <EXPORT ORDINAL="88" NAME="?FTPAPI_ReloadCacheDirectory@@YAKPAUHFTPCONNECT__@@PB_WP6GJIPAXK@ZK@Z" PURGE="0" COMMENT="" />
    <EXPORT ORDINAL="89" NAME="?FTPAPI_RemoveNotifyWindow@@YAHPAUHWND__@@I@Z" PURGE="0" COMMENT="" />
    <EXPORT ORDINAL="90" NAME="?FTPAPI_RenameDirectory@@YAKPAUHFTPCONNECT__@@PB_W11@Z" PURGE="0" COMMENT="" />
    <EXPORT ORDINAL="91" NAME="?FTPAPI_RenameFile@@YAKPAUHFTPCONNECT__@@PB_W11@Z" PURGE="0" COMMENT="" />
    <EXPORT ORDINAL="92" NAME="?FTPAPI_ResolveHost@@YAHPB_WIPAUsockaddr_storage@@@Z" PURGE="0" COMMENT="" />
    <EXPORT ORDINAL="93" NAME="?FTPAPI_SendCommand@@YAKPAUHFTPCONNECT__@@IPB_W@Z" PURGE="0" COMMENT="" />
    <EXPORT ORDINAL="94" NAME="?FTPAPI_ServerToServer@@YAKPAUHFTPCONNECT__@@0PB_W1_J2W4TRANSFERTYPE@@P6GJIPAXK@ZKK@Z" PURGE="0" COMMENT="" />
    <EXPORT ORDINAL="95" NAME="?FTPAPI_SetAutoIndexing@@YAHPAUHFTPCONNECT__@@HK@Z" PURGE="0" COMMENT="" />
    <EXPORT ORDINAL="96" NAME="?FTPAPI_SetCacheExpireMode@@YAHPAUHFTPCONNECT__@@W4CACHEEXPIREMODE@@@Z" PURGE="0" COMMENT="" />
    <EXPORT ORDINAL="97" NAME="?FTPAPI_SetCacheHoldTime@@YAHPAUHFTPCONNECT__@@K@Z" PURGE="0" COMMENT="" />
    <EXPORT ORDINAL="98" NAME="?FTPAPI_SetClientCompressionLevel@@YAHPAUHFTPCONNECT__@@H@Z" PURGE="0" COMMENT="" />
    <EXPORT ORDINAL="99" NAME="?FTPAPI_SetDataConnectionMode@@YAHPAUHFTPCONNECT__@@W4DATACONNECTIONMODE@@@Z" PURGE="0" COMMENT="" />
    <EXPORT ORDINAL="100" NAME="?FTPAPI_SetDataPath@@YAXPB_W@Z" PURGE="0" COMMENT="" />
    <EXPORT ORDINAL="101" NAME="?FTPAPI_SetFileAttribute@@YAKPAUHFTPCONNECT__@@PB_WK@Z" PURGE="0" COMMENT="" />
    <EXPORT ORDINAL="102" NAME="?FTPAPI_SetFileTime@@YAKPAUHFTPCONNECT__@@PB_WQAU_FILETIME@@@Z" PURGE="0" COMMENT="" />
    <EXPORT ORDINAL="103" NAME="?FTPAPI_SetListParameter@@YAHPAUHFTPCONNECT__@@H@Z" PURGE="0" COMMENT="" />
    <EXPORT ORDINAL="104" NAME="?FTPAPI_SetLocalFileTime@@YAKPB_WQAU_FILETIME@@@Z" PURGE="0" COMMENT="" />
    <EXPORT ORDINAL="105" NAME="?FTPAPI_SetMinMaxPort@@YAXHH@Z" PURGE="0" COMMENT="" />
    <EXPORT ORDINAL="106" NAME="?FTPAPI_SetRateDown@@YAKPAUHFTPCONNECT__@@K@Z" PURGE="0" COMMENT="" />
    <EXPORT ORDINAL="107" NAME="?FTPAPI_SetRateUp@@YAKPAUHFTPCONNECT__@@K@Z" PURGE="0" COMMENT="" />
    <EXPORT ORDINAL="108" NAME="?FTPAPI_SetServerCompressionLevel@@YAHPAUHFTPCONNECT__@@H@Z" PURGE="0" COMMENT="" />
    <EXPORT ORDINAL="109" NAME="?FTPAPI_SetTotalRateDown@@YAKK@Z" PURGE="0" COMMENT="" />
    <EXPORT ORDINAL="110" NAME="?FTPAPI_SetTotalRateUp@@YAKK@Z" PURGE="0" COMMENT="" />
    <EXPORT ORDINAL="111" NAME="?FTPAPI_SetTransferMethod@@YAHPAUHFTPCONNECT__@@W4TRANSFERMETHOD@@@Z" PURGE="0" COMMENT="" />
    <EXPORT ORDINAL="112" NAME="?FTPAPI_SetTransferMode@@YAHPAUHFTPCONNECT__@@W4TRANSFERMODE@@@Z" PURGE="0" COMMENT="" />
    <EXPORT ORDINAL="113" NAME="?FTPAPI_SetTransferSpeed@@YAKPAUHFTPCONNECT__@@K@Z" PURGE="0" COMMENT="" />
    <EXPORT ORDINAL="114" NAME="?FTPAPI_SetTransferType@@YAHPAUHFTPCONNECT__@@W4TRANSFERTYPE@@@Z" PURGE="0" COMMENT="" />
    <EXPORT ORDINAL="115" NAME="?FTPAPI_SetWorkingDirectory@@YAKPAUHFTPCONNECT__@@PB_W@Z" PURGE="0" COMMENT="" />
    <EXPORT ORDINAL="116" NAME="?FTPAPI_SetupIdent@@YAHPB_W0I@Z" PURGE="0" COMMENT="" />
    <EXPORT ORDINAL="117" NAME="?FTPAPI_StartIdent@@YAHXZ" PURGE="0" COMMENT="" />
    <EXPORT ORDINAL="118" NAME="?FTPAPI_StopIdent@@YAHXZ" PURGE="0" COMMENT="" />
    <EXPORT ORDINAL="119" NAME="?FTPAPI_WriteFile@@YAKPAUHFTPCONNECT__@@PB_W1_J2HW4TRANSFERTYPE@@P6GJIPAXK@ZK@Z" PURGE="0" COMMENT="" />
    <EXPORT ORDINAL="120" NAME="?FindClose@CFTPDirectory@@QAEHXZ" PURGE="0" COMMENT="" />
    <EXPORT ORDINAL="121" NAME="?FindFirstFileW@CFTPDirectory@@QAEPAUHFINDFILE__@@PAVCFTPFile@@@Z" PURGE="4" COMMENT="" />
    <EXPORT ORDINAL="122" NAME="?FindNextFileW@CFTPDirectory@@QAEPAUHFINDFILE__@@PAU2@PAVCFTPFile@@@Z" PURGE="8" COMMENT="" />
    <EXPORT ORDINAL="123" NAME="?GetAttribute@CFTPFile@@QAEKXZ" PURGE="0" COMMENT="" />
    <EXPORT ORDINAL="124" NAME="?GetCount@CFTPAPIManager@@QAEKXZ" PURGE="0" COMMENT="" />
    <EXPORT ORDINAL="125" NAME="?GetCount@CFTPDirectory@@QAEKXZ" PURGE="0" COMMENT="" />
    <EXPORT ORDINAL="126" NAME="?GetDescription@CFTPFile@@QAEPB_WXZ" PURGE="0" COMMENT="" />
    <EXPORT ORDINAL="127" NAME="?GetExternalIPAddress@CUPNPNATManager@@QAEPB_WXZ" PURGE="0" COMMENT="" />
    <EXPORT ORDINAL="128" NAME="?GetFileInfo@CFTPDirectory@@QAEHPB_WPAVCFTPFile@@H@Z" PURGE="12" COMMENT="" />
    <EXPORT ORDINAL="129" NAME="?GetFirstItem@CFTPDirectory@@QAEPAVCFTPFile@@AAPAU__POSITION@@@Z" PURGE="4" COMMENT="" />
    <EXPORT ORDINAL="130" NAME="?GetGroup@CFTPFile@@QAEPB_WXZ" PURGE="0" COMMENT="" />
    <EXPORT ORDINAL="131" NAME="?GetIP@CIPRepeaterClient@@QAEHPAUin_addr@@@Z" PURGE="4" COMMENT="" />
    <EXPORT ORDINAL="132" NAME="?GetInstance@CFTPAPIManager@@SAPAV1@XZ" PURGE="0" COMMENT="" />
    <EXPORT ORDINAL="133" NAME="?GetInstance@CUPNPNATManager@@SAPAV1@XZ" PURGE="0" COMMENT="" />
    <EXPORT ORDINAL="134" NAME="?GetLinkPoint@CFTPFile@@QAEPB_WXZ" PURGE="0" COMMENT="" />
    <EXPORT ORDINAL="135" NAME="?GetName@CFTPFile@@QAEPB_WXZ" PURGE="0" COMMENT="" />
    <EXPORT ORDINAL="136" NAME="?GetNextItem@CFTPDirectory@@QAEPAVCFTPFile@@AAPAU__POSITION@@@Z" PURGE="4" COMMENT="" />
    <EXPORT ORDINAL="137" NAME="?GetOwner@CFTPFile@@QAEPB_WXZ" PURGE="0" COMMENT="" />
    <EXPORT ORDINAL="138" NAME="?GetSize@CFTPFile@@QAE_JXZ" PURGE="0" COMMENT="" />
    <EXPORT ORDINAL="139" NAME="?GetTime@CFTPFile@@QAEABU_FILETIME@@XZ" PURGE="0" COMMENT="" />
    <EXPORT ORDINAL="140" NAME="?GetTime@CFTPFile@@QAEPAU_FILETIME@@PAU2@@Z" PURGE="4" COMMENT="" />
    <EXPORT ORDINAL="141" NAME="?IsUPNPNAT@CUPNPNATManager@@QAE_NXZ" PURGE="0" COMMENT="" />
    <EXPORT ORDINAL="142" NAME="?IsUTC@CFTPFile@@QAEHXZ" PURGE="0" COMMENT="" />
    <EXPORT ORDINAL="143" NAME="?Lock@CFTPAPIManager@@QAEKPAVCFTPConnect@@@Z" PURGE="4" COMMENT="" />
    <EXPORT ORDINAL="144" NAME="?RemoveStaticPortMapping@CUPNPNATManager@@QAEJJ@Z" PURGE="4" COMMENT="" />
    <EXPORT ORDINAL="145" NAME="?SafeDetectStyle@CFTPDirectory@@QAE?AW4HOSTTYPE@@PB_W@Z" PURGE="4" COMMENT="" />
    <EXPORT ORDINAL="146" NAME="?Serialize@CFTPFile@@UAEXAAVCArchive@@@Z" PURGE="4" COMMENT="" />
    <EXPORT ORDINAL="147" NAME="?SetAttribute@CFTPFile@@QAEXK@Z" PURGE="4" COMMENT="" />
    <EXPORT ORDINAL="148" NAME="?SetDescription@CFTPFile@@QAEXPB_W@Z" PURGE="4" COMMENT="" />
    <EXPORT ORDINAL="149" NAME="?SetGroup@CFTPFile@@QAEXPB_W@Z" PURGE="4" COMMENT="" />
    <EXPORT ORDINAL="150" NAME="?SetHost@CIPRepeaterClient@@QAEXPB_W@Z" PURGE="4" COMMENT="" />
    <EXPORT ORDINAL="151" NAME="?SetName@CFTPFile@@QAEXPB_W@Z" PURGE="4" COMMENT="" />
    <EXPORT ORDINAL="152" NAME="?SetOwner@CFTPFile@@QAEXPB_W@Z" PURGE="4" COMMENT="" />
    <EXPORT ORDINAL="153" NAME="?SetSize@CFTPFile@@QAEX_J@Z" PURGE="8" COMMENT="" />
    <EXPORT ORDINAL="154" NAME="?SetTime@CFTPFile@@QAEXU_FILETIME@@@Z" PURGE="8" COMMENT="" />
    <EXPORT ORDINAL="155" NAME="?SetURI@CIPRepeaterClient@@QAEXPB_W@Z" PURGE="4" COMMENT="" />
    <EXPORT ORDINAL="156" NAME="?SetUTC@CFTPFile@@QAEXH@Z" PURGE="4" COMMENT="" />
    <EXPORT ORDINAL="157" NAME="?Unlock@CFTPAPIManager@@QAEKPAVCFTPConnect@@@Z" PURGE="4" COMMENT="" />
    <EXPORT ORDINAL="158" NAME="?WaitForEmptyList@CFTPAPIManager@@QAEXXZ" PURGE="0" COMMENT="" />
</LIBRARY>

