<?xml version="1.0" encoding="UTF-8"?>
<LIBRARY NAME="gfxengine.dll" PATH="/DLLArchive/etc/gfxengine.dll" DATE="Fri Jul 03 21:35:50 CEST 2020" VERSION="">
    <EXPORT ORDINAL="1" NAME="??0IGfxEngine@@QAE@XZ" PURGE="0" COMMENT="" />
    <EXPORT ORDINAL="2" NAME="??1IGfxEngine@@QAE@XZ" PURGE="0" COMMENT="" />
    <EXPORT ORDINAL="3" NAME="??4IGfxEngine@@QAEAAV0@ABV0@@Z" PURGE="4" COMMENT="" />
    <EXPORT ORDINAL="4" NAME="?BeginWriteToSurface@IGfxEngine@@QAGPAGHAAI@Z" PURGE="12" COMMENT="" />
    <EXPORT ORDINAL="5" NAME="?BeginWriteToVideoSurface@IGfxEngine@@QAGPAGAAI@Z" PURGE="8" COMMENT="" />
    <EXPORT ORDINAL="6" NAME="?BlitFrameToDIB@IGfxEngine@@QAG_NPAUHBITMAP__@@@Z" PURGE="8" COMMENT="" />
    <EXPORT ORDINAL="7" NAME="?CanChangeGround@IGfxEngine@@QAG_NHHH@Z" PURGE="16" COMMENT="" />
    <EXPORT ORDINAL="8" NAME="?CheckRenderConfiguration@IGfxEngine@@QAG_NUSGfxRenderConfiguration@@@Z" PURGE="44" COMMENT="" />
    <EXPORT ORDINAL="9" NAME="?ConvertMapPositionToWorldScreenOffsets@IGfxEngine@@QAGXHHAAM0@Z" PURGE="20" COMMENT="" />
    <EXPORT ORDINAL="10" NAME="?ConvertRgbToHicol@IGfxEngine@@SGGHHH@Z" PURGE="12" COMMENT="" />
    <EXPORT ORDINAL="11" NAME="?CreateGuiSurface@IGfxEngine@@QAGHHPAUGFX_ENGINE_GUI_SURFACE_DESCRIPTION@@@Z" PURGE="12" COMMENT="" />
    <EXPORT ORDINAL="12" NAME="?CreateGuiSurface@IGfxEngine@@QAGHPAUGFX_ENGINE_GUI_SURFACE_DESCRIPTION@@@Z" PURGE="8" COMMENT="" />
    <EXPORT ORDINAL="13" NAME="?DestroyGuiSurface@IGfxEngine@@QAG_NH@Z" PURGE="8" COMMENT="" />
    <EXPORT ORDINAL="14" NAME="?DrawRectangle@IGfxEngine@@QAGXPAUtagRECT@@G@Z" PURGE="12" COMMENT="" />
    <EXPORT ORDINAL="15" NAME="?EnableIconLayer@IGfxEngine@@QAGX_N@Z" PURGE="8" COMMENT="" />
    <EXPORT ORDINAL="16" NAME="?EnableMiniMap@IGfxEngine@@QAG_N_NHH@Z" PURGE="16" COMMENT="" />
    <EXPORT ORDINAL="17" NAME="?EnableVideoMode@IGfxEngine@@QAG_N_N@Z" PURGE="8" COMMENT="" />
    <EXPORT ORDINAL="18" NAME="?EndWriteToSurface@IGfxEngine@@QAG_NH@Z" PURGE="8" COMMENT="" />
    <EXPORT ORDINAL="19" NAME="?EndWriteToVideoSurface@IGfxEngine@@QAG_NXZ" PURGE="4" COMMENT="" />
    <EXPORT ORDINAL="20" NAME="?FixCursor@IGfxEngine@@QAGX_N0@Z" PURGE="12" COMMENT="" />
    <EXPORT ORDINAL="21" NAME="?ForceMiniMapRefresh@IGfxEngine@@QAGXXZ" PURGE="4" COMMENT="" />
    <EXPORT ORDINAL="22" NAME="?GetClosestMapPoint@IGfxEngine@@QAGHHH@Z" PURGE="12" COMMENT="" />
    <EXPORT ORDINAL="23" NAME="?GetClosestMapPoint@IGfxEngine@@QAGHHHAAH0@Z" PURGE="20" COMMENT="" />
    <EXPORT ORDINAL="24" NAME="?GetCurrentZoomFactor@IGfxEngine@@QAGMXZ" PURGE="4" COMMENT="" />
    <EXPORT ORDINAL="25" NAME="?GetCursorShape@IGfxEngine@@QAGHXZ" PURGE="4" COMMENT="" />
    <EXPORT ORDINAL="26" NAME="?GetGfxInterfaceVersion@@YGIXZ" PURGE="0" COMMENT="" />
    <EXPORT ORDINAL="27" NAME="?GetGfxMode@IGfxEngine@@QAGHXZ" PURGE="4" COMMENT="" />
    <EXPORT ORDINAL="28" NAME="?GetGuiSurfaceDC@IGfxEngine@@QAG_NHPAPAUHDC__@@@Z" PURGE="12" COMMENT="" />
    <EXPORT ORDINAL="29" NAME="?GetGuiSurfacePosition@IGfxEngine@@QAG_NHAAUtagRECT@@@Z" PURGE="12" COMMENT="" />
    <EXPORT ORDINAL="30" NAME="?GetOutputHeight@IGfxEngine@@QAGHXZ" PURGE="4" COMMENT="" />
    <EXPORT ORDINAL="31" NAME="?GetOutputWidth@IGfxEngine@@QAGHXZ" PURGE="4" COMMENT="" />
    <EXPORT ORDINAL="32" NAME="?GetPlayerColor@IGfxEngine@@QAG_NHAAUSGfxColor@@@Z" PURGE="12" COMMENT="" />
    <EXPORT ORDINAL="33" NAME="?GetScreenOffsetsByMapIndices@IGfxEngine@@SGHHAAH0@Z" PURGE="12" COMMENT="" />
    <EXPORT ORDINAL="34" NAME="?GetScreenOffsetsByMapIndices@IGfxEngine@@SGHHHAAH0@Z" PURGE="16" COMMENT="" />
    <EXPORT ORDINAL="35" NAME="?InitEngine@IGfxEngine@@QAG_NUSGfxRenderConfiguration@@_NAAH22@Z" PURGE="60" COMMENT="" />
    <EXPORT ORDINAL="36" NAME="?IsCursorFixed@IGfxEngine@@QAG_NXZ" PURGE="4" COMMENT="" />
    <EXPORT ORDINAL="37" NAME="?IsCursorVisible@IGfxEngine@@QAG_NXZ" PURGE="4" COMMENT="" />
    <EXPORT ORDINAL="38" NAME="?IsGfxEngineRebuilded@IGfxEngine@@QAG_NXZ" PURGE="4" COMMENT="" />
    <EXPORT ORDINAL="39" NAME="?IsGuiMode@IGfxEngine@@QAG_NXZ" PURGE="4" COMMENT="" />
    <EXPORT ORDINAL="40" NAME="?IsHardwareEngine@IGfxEngine@@QAG_NXZ" PURGE="4" COMMENT="" />
    <EXPORT ORDINAL="41" NAME="?IsHardwareRenderingAvailable@IGfxEngine@@AAE_NXZ" PURGE="0" COMMENT="" />
    <EXPORT ORDINAL="42" NAME="?IsHardwareRenderingPossible@IGfxEngine@@QAG_NXZ" PURGE="4" COMMENT="" />
    <EXPORT ORDINAL="43" NAME="?IsInitialized@IGfxEngine@@QAG_NXZ" PURGE="4" COMMENT="" />
    <EXPORT ORDINAL="44" NAME="?IsResolutionPossible@IGfxEngine@@QAG_NH@Z" PURGE="8" COMMENT="" />
    <EXPORT ORDINAL="45" NAME="?IsSoftwareRenderingAvailable@IGfxEngine@@AAE_NXZ" PURGE="0" COMMENT="" />
    <EXPORT ORDINAL="46" NAME="?IsSoftwareRenderingPossible@IGfxEngine@@QAG_NXZ" PURGE="4" COMMENT="" />
    <EXPORT ORDINAL="47" NAME="?PutAccessoryIcon@IGfxEngine@@QAG_NHPAX0@Z" PURGE="16" COMMENT="" />
    <EXPORT ORDINAL="48" NAME="?PutLandscapeObject@IGfxEngine@@QAG_NHPAX0@Z" PURGE="16" COMMENT="" />
    <EXPORT ORDINAL="49" NAME="?RebuildRenderEnvironment@IGfxEngine@@QAG_NUSGfxRenderConfiguration@@@Z" PURGE="44" COMMENT="" />
    <EXPORT ORDINAL="50" NAME="?ReleaseGuiSurfaceDC@IGfxEngine@@QAG_NHPAUHDC__@@@Z" PURGE="12" COMMENT="" />
    <EXPORT ORDINAL="51" NAME="?RenderCursor@IGfxEngine@@QAGXXZ" PURGE="4" COMMENT="" />
    <EXPORT ORDINAL="52" NAME="?RenderFrame@IGfxEngine@@QAG_N_N@Z" PURGE="8" COMMENT="" />
    <EXPORT ORDINAL="53" NAME="?RenderObject@IGfxEngine@@QAG_NHHPAUSGfxObjectInfo@@HH@Z" PURGE="24" COMMENT="" />
    <EXPORT ORDINAL="54" NAME="?RenderResource@IGfxEngine@@QAG_NHHPAX00H@Z" PURGE="28" COMMENT="" />
    <EXPORT ORDINAL="55" NAME="?SetCameraMode@IGfxEngine@@QAGXH@Z" PURGE="8" COMMENT="" />
    <EXPORT ORDINAL="56" NAME="?SetCursorShape@IGfxEngine@@QAGX_NH@Z" PURGE="12" COMMENT="" />
    <EXPORT ORDINAL="57" NAME="?SetDarkLand@IGfxEngine@@QAGXHH_N@Z" PURGE="16" COMMENT="" />
    <EXPORT ORDINAL="58" NAME="?SetEffectSystemInterfacePtr@IGfxEngine@@QAGXPAVIGfxEffects@@@Z" PURGE="8" COMMENT="" />
    <EXPORT ORDINAL="59" NAME="?SetFoggingFadingStep@IGfxEngine@@QAGXH@Z" PURGE="8" COMMENT="" />
    <EXPORT ORDINAL="60" NAME="?SetFoggingRange@IGfxEngine@@QAGXHH@Z" PURGE="12" COMMENT="" />
    <EXPORT ORDINAL="61" NAME="?SetFoggingUpdateMode@IGfxEngine@@QAGXH@Z" PURGE="8" COMMENT="" />
    <EXPORT ORDINAL="62" NAME="?SetGfxLayerAccess@IGfxEngine@@QAGXHPAUT_GFX_MAP_ELEMENT@@@Z" PURGE="12" COMMENT="" />
    <EXPORT ORDINAL="63" NAME="?SetGfxObject@IGfxEngine@@QAGXPAUSGfxObject@@@Z" PURGE="8" COMMENT="" />
    <EXPORT ORDINAL="64" NAME="?SetGuiSurfacePosition@IGfxEngine@@QAG_NHHH@Z" PURGE="16" COMMENT="" />
    <EXPORT ORDINAL="65" NAME="?SetIconCallbacks@IGfxEngine@@QAGXP6IXH@ZP6IEH@Z@Z" PURGE="12" COMMENT="" />
    <EXPORT ORDINAL="66" NAME="?SetIndexBorderstone@IGfxEngine@@QAGXHH@Z" PURGE="12" COMMENT="" />
    <EXPORT ORDINAL="67" NAME="?SetIndexWave10@IGfxEngine@@QAGXHH@Z" PURGE="12" COMMENT="" />
    <EXPORT ORDINAL="68" NAME="?SetIndexWave11@IGfxEngine@@QAGXHH@Z" PURGE="12" COMMENT="" />
    <EXPORT ORDINAL="69" NAME="?SetIndexWave12@IGfxEngine@@QAGXHH@Z" PURGE="12" COMMENT="" />
    <EXPORT ORDINAL="70" NAME="?SetIndexWave13@IGfxEngine@@QAGXHH@Z" PURGE="12" COMMENT="" />
    <EXPORT ORDINAL="71" NAME="?SetIndexWave14@IGfxEngine@@QAGXHH@Z" PURGE="12" COMMENT="" />
    <EXPORT ORDINAL="72" NAME="?SetIndexWave15@IGfxEngine@@QAGXHH@Z" PURGE="12" COMMENT="" />
    <EXPORT ORDINAL="73" NAME="?SetIndexWave16@IGfxEngine@@QAGXHH@Z" PURGE="12" COMMENT="" />
    <EXPORT ORDINAL="74" NAME="?SetIndexWave17@IGfxEngine@@QAGXHH@Z" PURGE="12" COMMENT="" />
    <EXPORT ORDINAL="75" NAME="?SetIndexWave18@IGfxEngine@@QAGXHH@Z" PURGE="12" COMMENT="" />
    <EXPORT ORDINAL="76" NAME="?SetIndexWave1@IGfxEngine@@QAGXHH@Z" PURGE="12" COMMENT="" />
    <EXPORT ORDINAL="77" NAME="?SetIndexWave2@IGfxEngine@@QAGXHH@Z" PURGE="12" COMMENT="" />
    <EXPORT ORDINAL="78" NAME="?SetIndexWave3@IGfxEngine@@QAGXHH@Z" PURGE="12" COMMENT="" />
    <EXPORT ORDINAL="79" NAME="?SetIndexWave4@IGfxEngine@@QAGXHH@Z" PURGE="12" COMMENT="" />
    <EXPORT ORDINAL="80" NAME="?SetIndexWave5@IGfxEngine@@QAGXHH@Z" PURGE="12" COMMENT="" />
    <EXPORT ORDINAL="81" NAME="?SetIndexWave6@IGfxEngine@@QAGXHH@Z" PURGE="12" COMMENT="" />
    <EXPORT ORDINAL="82" NAME="?SetIndexWave7@IGfxEngine@@QAGXHH@Z" PURGE="12" COMMENT="" />
    <EXPORT ORDINAL="83" NAME="?SetIndexWave8@IGfxEngine@@QAGXHH@Z" PURGE="12" COMMENT="" />
    <EXPORT ORDINAL="84" NAME="?SetIndexWave9@IGfxEngine@@QAGXHH@Z" PURGE="12" COMMENT="" />
    <EXPORT ORDINAL="85" NAME="?SetMiniMapColorCallback@IGfxEngine@@QAGXP6IPAUSGfxColor@@I@Z@Z" PURGE="8" COMMENT="" />
    <EXPORT ORDINAL="86" NAME="?SetObjectLayerAccess@IGfxEngine@@QAGXP6IPAUSGfxObjectInfo@@IH@ZPAG1@Z" PURGE="16" COMMENT="" />
    <EXPORT ORDINAL="87" NAME="?SetOwnerIDCallback@IGfxEngine@@QAGXP6IHH@Z@Z" PURGE="8" COMMENT="" />
    <EXPORT ORDINAL="88" NAME="?SetPlayerColor@IGfxEngine@@QAG_NHAAUSGfxColor@@@Z" PURGE="12" COMMENT="" />
    <EXPORT ORDINAL="89" NAME="?SetReloadCallback@IGfxEngine@@QAGXP6GPAXH_N0@Z@Z" PURGE="8" COMMENT="" />
    <EXPORT ORDINAL="90" NAME="?SetScrollOffsets@IGfxEngine@@QAGXHH@Z" PURGE="12" COMMENT="" />
    <EXPORT ORDINAL="91" NAME="?SetTemporaryText@IGfxEngine@@QAG_NPADHHHHH@Z" PURGE="28" COMMENT="" />
    <EXPORT ORDINAL="92" NAME="?SetTickCounterAdress@IGfxEngine@@QAGXPAI@Z" PURGE="8" COMMENT="" />
    <EXPORT ORDINAL="93" NAME="?SetTriangleSize@IGfxEngine@@QAGXH@Z" PURGE="8" COMMENT="" />
    <EXPORT ORDINAL="94" NAME="?SetVisibilityOfGuiSurface@IGfxEngine@@QAG_NH_N@Z" PURGE="12" COMMENT="" />
    <EXPORT ORDINAL="95" NAME="?SetWidthOfLeftGuiBorder@IGfxEngine@@QAGXH@Z" PURGE="8" COMMENT="" />
    <EXPORT ORDINAL="96" NAME="?SetWindowPosition@IGfxEngine@@QAGXHH@Z" PURGE="12" COMMENT="" />
    <EXPORT ORDINAL="97" NAME="?ShowCachePage@IGfxEngine@@QAGXHH@Z" PURGE="12" COMMENT="" />
    <EXPORT ORDINAL="98" NAME="?ShowFrame@IGfxEngine@@QAG_NXZ" PURGE="4" COMMENT="" />
    <EXPORT ORDINAL="99" NAME="?SolidColorFillGuiSurface@IGfxEngine@@QAG_NHEEE@Z" PURGE="20" COMMENT="" />
    <EXPORT ORDINAL="100" NAME="?SolidColorFillGuiSurface@IGfxEngine@@QAG_NHEEEUtagRECT@@@Z" PURGE="36" COMMENT="" />
    <EXPORT ORDINAL="101" NAME="?UpdateWorldPosition@IGfxEngine@@QAGXH@Z" PURGE="8" COMMENT="" />
    <EXPORT ORDINAL="102" NAME="?UpdateWorldPosition@IGfxEngine@@QAGXHH@Z" PURGE="12" COMMENT="" />
    <EXPORT ORDINAL="103" NAME="?Use4444Palettes@IGfxEngine@@QAG_NXZ" PURGE="4" COMMENT="" />
</LIBRARY>

