<?xml version="1.0" encoding="UTF-8"?>
<LIBRARY NAME="gkgfx.dll" PATH="/DLLArchive/etc/gkgfx.dll" DATE="Fri Jul 03 12:35:54 PDT 2020" VERSION="1.4: 2003062408">
    <EXPORT ORDINAL="1" NAME="??0DeviceContextImpl@@QAE@ABV0@@Z" PURGE="4" COMMENT="" />
    <EXPORT ORDINAL="2" NAME="??0DeviceContextImpl@@QAE@XZ" PURGE="0" COMMENT="" />
    <EXPORT ORDINAL="3" NAME="??0RgnRect@nsRegion@@QAE@ABU01@@Z" PURGE="4" COMMENT="" />
    <EXPORT ORDINAL="4" NAME="??0RgnRect@nsRegion@@QAE@ABUnsRectFast@@@Z" PURGE="4" COMMENT="" />
    <EXPORT ORDINAL="5" NAME="??0RgnRect@nsRegion@@QAE@HHHH@Z" PURGE="16" COMMENT="" />
    <EXPORT ORDINAL="6" NAME="??0RgnRect@nsRegion@@QAE@XZ" PURGE="0" COMMENT="" />
    <EXPORT ORDINAL="7" NAME="??0nsBlender@@QAE@ABV0@@Z" PURGE="4" COMMENT="" />
    <EXPORT ORDINAL="8" NAME="??0nsBlender@@QAE@XZ" PURGE="0" COMMENT="" />
    <EXPORT ORDINAL="9" NAME="??0nsFont@@QAE@ABU0@@Z" PURGE="4" COMMENT="" />
    <EXPORT ORDINAL="10" NAME="??0nsFont@@QAE@ABVnsString@@EEGEHM@Z" PURGE="28" COMMENT="" />
    <EXPORT ORDINAL="11" NAME="??0nsFont@@QAE@PBDEEGEHM@Z" PURGE="28" COMMENT="" />
    <EXPORT ORDINAL="12" NAME="??0nsFont@@QAE@XZ" PURGE="0" COMMENT="" />
    <EXPORT ORDINAL="13" NAME="??0nsFontList@@QAE@ABV0@@Z" PURGE="4" COMMENT="" />
    <EXPORT ORDINAL="14" NAME="??0nsFontList@@QAE@XZ" PURGE="0" COMMENT="" />
    <EXPORT ORDINAL="15" NAME="??0nsPrintOptions@@QAE@ABV0@@Z" PURGE="4" COMMENT="" />
    <EXPORT ORDINAL="16" NAME="??0nsPrintOptions@@QAE@XZ" PURGE="0" COMMENT="" />
    <EXPORT ORDINAL="17" NAME="??0nsPrintSession@@QAE@ABV0@@Z" PURGE="4" COMMENT="" />
    <EXPORT ORDINAL="18" NAME="??0nsPrintSession@@QAE@XZ" PURGE="0" COMMENT="" />
    <EXPORT ORDINAL="19" NAME="??0nsPrintSettings@@QAE@ABV0@@Z" PURGE="4" COMMENT="" />
    <EXPORT ORDINAL="20" NAME="??0nsPrintSettings@@QAE@XZ" PURGE="0" COMMENT="" />
    <EXPORT ORDINAL="21" NAME="??0nsRect@@QAE@ABU0@@Z" PURGE="4" COMMENT="" />
    <EXPORT ORDINAL="22" NAME="??0nsRect@@QAE@ABUnsPoint@@ABUnsSize@@@Z" PURGE="8" COMMENT="" />
    <EXPORT ORDINAL="23" NAME="??0nsRect@@QAE@HHHH@Z" PURGE="16" COMMENT="" />
    <EXPORT ORDINAL="24" NAME="??0nsRect@@QAE@XZ" PURGE="0" COMMENT="" />
    <EXPORT ORDINAL="25" NAME="??0nsRegion@@QAE@ABUnsRectFast@@@Z" PURGE="4" COMMENT="" />
    <EXPORT ORDINAL="26" NAME="??0nsRegion@@QAE@XZ" PURGE="0" COMMENT="" />
    <EXPORT ORDINAL="27" NAME="??0nsScriptableRegion@@QAE@ABV0@@Z" PURGE="4" COMMENT="" />
    <EXPORT ORDINAL="28" NAME="??0nsScriptableRegion@@QAE@PAVnsIRegion@@@Z" PURGE="4" COMMENT="" />
    <EXPORT ORDINAL="29" NAME="??0nsTransform2D@@QAE@PAV0@@Z" PURGE="4" COMMENT="" />
    <EXPORT ORDINAL="30" NAME="??0nsTransform2D@@QAE@XZ" PURGE="0" COMMENT="" />
    <EXPORT ORDINAL="31" NAME="??1DeviceContextImpl@@MAE@XZ" PURGE="0" COMMENT="" />
    <EXPORT ORDINAL="32" NAME="??1nsBlender@@MAE@XZ" PURGE="-1" COMMENT="" />
    <EXPORT ORDINAL="33" NAME="??1nsFont@@QAE@XZ" PURGE="-1" COMMENT="" />
    <EXPORT ORDINAL="34" NAME="??1nsFontList@@UAE@XZ" PURGE="0" COMMENT="" />
    <EXPORT ORDINAL="35" NAME="??1nsPrintOptions@@UAE@XZ" PURGE="0" COMMENT="" />
    <EXPORT ORDINAL="36" NAME="??1nsPrintSession@@UAE@XZ" PURGE="-1" COMMENT="" />
    <EXPORT ORDINAL="37" NAME="??1nsPrintSettings@@UAE@XZ" PURGE="-1" COMMENT="" />
    <EXPORT ORDINAL="38" NAME="??1nsRegion@@QAE@XZ" PURGE="0" COMMENT="" />
    <EXPORT ORDINAL="39" NAME="??1nsScriptableRegion@@UAE@XZ" PURGE="0" COMMENT="" />
    <EXPORT ORDINAL="40" NAME="??1nsTransform2D@@QAE@XZ" PURGE="0" COMMENT="" />
    <EXPORT ORDINAL="41" NAME="??2RgnRect@nsRegion@@SAPAXI@Z" PURGE="0" COMMENT="" />
    <EXPORT ORDINAL="42" NAME="??3RgnRect@nsRegion@@SAXPAXI@Z" PURGE="0" COMMENT="" />
    <EXPORT ORDINAL="43" NAME="??4DeviceContextImpl@@QAEAAV0@ABV0@@Z" PURGE="4" COMMENT="" />
    <EXPORT ORDINAL="44" NAME="??4RgnRect@nsRegion@@QAEAAU01@ABU01@@Z" PURGE="4" COMMENT="" />
    <EXPORT ORDINAL="45" NAME="??4nsBlender@@QAEAAV0@ABV0@@Z" PURGE="4" COMMENT="" />
    <EXPORT ORDINAL="46" NAME="??4nsColorNames@@QAEAAV0@ABV0@@Z" PURGE="4" COMMENT="" />
    <EXPORT ORDINAL="47" NAME="??4nsFont@@QAEAAU0@ABU0@@Z" PURGE="4" COMMENT="" />
    <EXPORT ORDINAL="48" NAME="??4nsFontList@@QAEAAV0@ABV0@@Z" PURGE="4" COMMENT="" />
    <EXPORT ORDINAL="49" NAME="??4nsPrintOptions@@QAEAAV0@ABV0@@Z" PURGE="4" COMMENT="" />
    <EXPORT ORDINAL="50" NAME="??4nsPrintSession@@QAEAAV0@ABV0@@Z" PURGE="4" COMMENT="" />
    <EXPORT ORDINAL="51" NAME="??4nsPrintSettings@@UAEAAV0@ABV0@@Z" PURGE="4" COMMENT="" />
    <EXPORT ORDINAL="52" NAME="??4nsRect@@QAEAAU0@ABU0@@Z" PURGE="4" COMMENT="" />
    <EXPORT ORDINAL="53" NAME="??4nsScriptableRegion@@QAEAAV0@ABV0@@Z" PURGE="4" COMMENT="" />
    <EXPORT ORDINAL="54" NAME="??4nsTransform2D@@QAEAAV0@ABV0@@Z" PURGE="4" COMMENT="" />
    <EXPORT ORDINAL="55" NAME="??6@YAPAU_iobuf@@PAU0@ABUnsRect@@@Z" PURGE="0" COMMENT="" />
    <EXPORT ORDINAL="56" NAME="??8nsFont@@QBEHABU0@@Z" PURGE="4" COMMENT="" />
    <EXPORT ORDINAL="57" NAME="??8nsRect@@QBEHABU0@@Z" PURGE="4" COMMENT="" />
    <EXPORT ORDINAL="58" NAME="??9nsRect@@QBEHABU0@@Z" PURGE="4" COMMENT="" />
    <EXPORT ORDINAL="59" NAME="??GnsRect@@QBE?AU0@ABU0@@Z" PURGE="8" COMMENT="" />
    <EXPORT ORDINAL="60" NAME="??HnsRect@@QBE?AU0@ABU0@@Z" PURGE="8" COMMENT="" />
    <EXPORT ORDINAL="61" NAME="??XnsRect@@QAEAAU0@M@Z" PURGE="4" COMMENT="" />
    <EXPORT ORDINAL="62" NAME="??YnsRect@@QAEAAU0@ABUnsPoint@@@Z" PURGE="4" COMMENT="" />
    <EXPORT ORDINAL="63" NAME="??ZnsRect@@QAEAAU0@ABUnsPoint@@@Z" PURGE="4" COMMENT="" />
    <EXPORT ORDINAL="64" NAME="??_7DeviceContextImpl@@6BnsIDeviceContext@@@" PURGE="-1" COMMENT="" />
    <EXPORT ORDINAL="65" NAME="??_7DeviceContextImpl@@6BnsIObserver@@@" PURGE="-1" COMMENT="" />
    <EXPORT ORDINAL="66" NAME="??_7DeviceContextImpl@@6BnsSupportsWeakReference@@@" PURGE="-1" COMMENT="" />
    <EXPORT ORDINAL="67" NAME="??_7nsBlender@@6B@" PURGE="-1" COMMENT="" />
    <EXPORT ORDINAL="68" NAME="??_7nsFontList@@6B@" PURGE="-1" COMMENT="" />
    <EXPORT ORDINAL="69" NAME="??_7nsPrintOptions@@6BnsIPrintOptions@@@" PURGE="-1" COMMENT="" />
    <EXPORT ORDINAL="70" NAME="??_7nsPrintOptions@@6BnsIPrintSettingsService@@@" PURGE="-1" COMMENT="" />
    <EXPORT ORDINAL="71" NAME="??_7nsPrintSession@@6BnsIPrintSession@@@" PURGE="-1" COMMENT="" />
    <EXPORT ORDINAL="72" NAME="??_7nsPrintSession@@6BnsSupportsWeakReference@@@" PURGE="-1" COMMENT="" />
    <EXPORT ORDINAL="73" NAME="??_7nsPrintSettings@@6B@" PURGE="-1" COMMENT="" />
    <EXPORT ORDINAL="74" NAME="??_7nsScriptableRegion@@6B@" PURGE="-1" COMMENT="" />
    <EXPORT ORDINAL="75" NAME="?AbortDocument@DeviceContextImpl@@UAGIXZ" PURGE="4" COMMENT="" />
    <EXPORT ORDINAL="76" NAME="?AddRef@DeviceContextImpl@@UAGKXZ" PURGE="4" COMMENT="" />
    <EXPORT ORDINAL="77" NAME="?AddRef@nsBlender@@UAGKXZ" PURGE="4" COMMENT="" />
    <EXPORT ORDINAL="78" NAME="?AddRef@nsFontList@@UAGKXZ" PURGE="4" COMMENT="" />
    <EXPORT ORDINAL="79" NAME="?AddRef@nsPrintOptions@@UAGKXZ" PURGE="4" COMMENT="" />
    <EXPORT ORDINAL="80" NAME="?AddRef@nsPrintSession@@UAGKXZ" PURGE="4" COMMENT="" />
    <EXPORT ORDINAL="81" NAME="?AddRef@nsPrintSettings@@UAGKXZ" PURGE="4" COMMENT="" />
    <EXPORT ORDINAL="82" NAME="?AddRef@nsScriptableRegion@@UAGKXZ" PURGE="4" COMMENT="" />
    <EXPORT ORDINAL="83" NAME="?AddRefTable@nsColorNames@@SAXXZ" PURGE="0" COMMENT="" />
    <EXPORT ORDINAL="84" NAME="?AddScale@nsTransform2D@@QAEXMM@Z" PURGE="8" COMMENT="" />
    <EXPORT ORDINAL="85" NAME="?AddTranslation@nsTransform2D@@QAEXMM@Z" PURGE="8" COMMENT="" />
    <EXPORT ORDINAL="86" NAME="?AliasFont@DeviceContextImpl@@IAEIABVnsString@@00H@Z" PURGE="16" COMMENT="" />
    <EXPORT ORDINAL="87" NAME="?And@nsRegion@@QAEAAV1@ABUnsRectFast@@0@Z" PURGE="8" COMMENT="" />
    <EXPORT ORDINAL="88" NAME="?And@nsRegion@@QAEAAV1@ABUnsRectFast@@ABV1@@Z" PURGE="8" COMMENT="" />
    <EXPORT ORDINAL="89" NAME="?And@nsRegion@@QAEAAV1@ABV1@0@Z" PURGE="8" COMMENT="" />
    <EXPORT ORDINAL="90" NAME="?And@nsRegion@@QAEAAV1@ABV1@ABUnsRectFast@@@Z" PURGE="8" COMMENT="" />
    <EXPORT ORDINAL="91" NAME="?Assign@nsPrintSettings@@UAGIPAVnsIPrintSettings@@@Z" PURGE="8" COMMENT="" />
    <EXPORT ORDINAL="92" NAME="?AvailableFonts@nsFontList@@UAGIPBG0PAPAVnsISimpleEnumerator@@@Z" PURGE="16" COMMENT="" />
    <EXPORT ORDINAL="93" NAME="?AvailablePrinters@nsPrintOptions@@UAGIPAPAVnsISimpleEnumerator@@@Z" PURGE="8" COMMENT="" />
    <EXPORT ORDINAL="94" NAME="?Blend@nsBlender@@IAEIPAEH0H0HHM@Z" PURGE="32" COMMENT="" />
    <EXPORT ORDINAL="95" NAME="?Blend@nsBlender@@UAGIHHHHPAVnsIRenderingContext@@0HHM0II@Z" PURGE="52" COMMENT="" />
    <EXPORT ORDINAL="96" NAME="?Blend@nsBlender@@UAGIHHHHPAX0HHM0II@Z" PURGE="52" COMMENT="" />
    <EXPORT ORDINAL="97" NAME="?Clone@nsPrintSettings@@UAGIPAPAVnsIPrintSettings@@@Z" PURGE="8" COMMENT="" />
    <EXPORT ORDINAL="98" NAME="?CommonInit@DeviceContextImpl@@IAEXXZ" PURGE="0" COMMENT="" />
    <EXPORT ORDINAL="99" NAME="?Concatenate@nsTransform2D@@QAEXPAV1@@Z" PURGE="4" COMMENT="" />
    <EXPORT ORDINAL="100" NAME="?Contains@nsRect@@QBEHABU1@@Z" PURGE="4" COMMENT="" />
    <EXPORT ORDINAL="101" NAME="?Contains@nsRect@@QBEHABUnsPoint@@@Z" PURGE="4" COMMENT="" />
    <EXPORT ORDINAL="102" NAME="?Contains@nsRect@@QBEHHH@Z" PURGE="8" COMMENT="" />
    <EXPORT ORDINAL="103" NAME="?ContainsRect@nsScriptableRegion@@UAGIHHHHPAH@Z" PURGE="24" COMMENT="" />
    <EXPORT ORDINAL="104" NAME="?Copy@nsRegion@@QAEAAV1@ABUnsRectFast@@@Z" PURGE="4" COMMENT="" />
    <EXPORT ORDINAL="105" NAME="?Copy@nsRegion@@QAEAAV1@ABV1@@Z" PURGE="4" COMMENT="" />
    <EXPORT ORDINAL="106" NAME="?CreateFontAliasTable@DeviceContextImpl@@MAEIXZ" PURGE="0" COMMENT="" />
    <EXPORT ORDINAL="107" NAME="?CreateFontCache@DeviceContextImpl@@UAGIXZ" PURGE="4" COMMENT="" />
    <EXPORT ORDINAL="108" NAME="?CreatePrintSettings@nsPrintOptions@@UAGIPAPAVnsIPrintSettings@@@Z" PURGE="8" COMMENT="" />
    <EXPORT ORDINAL="109" NAME="?CreateRenderingContext@DeviceContextImpl@@UAGIAAPAVnsIRenderingContext@@@Z" PURGE="8" COMMENT="" />
    <EXPORT ORDINAL="110" NAME="?CreateRenderingContext@DeviceContextImpl@@UAGIPAVnsIView@@AAPAVnsIRenderingContext@@@Z" PURGE="12" COMMENT="" />
    <EXPORT ORDINAL="111" NAME="?CreateRenderingContext@DeviceContextImpl@@UAGIPAVnsIWidget@@AAPAVnsIRenderingContext@@@Z" PURGE="12" COMMENT="" />
    <EXPORT ORDINAL="112" NAME="?CreateRenderingContext@DeviceContextImpl@@UAGIPAXAAPAVnsIRenderingContext@@@Z" PURGE="12" COMMENT="" />
    <EXPORT ORDINAL="113" NAME="?CreateRenderingContextInstance@DeviceContextImpl@@UAGIAAPAVnsIRenderingContext@@@Z" PURGE="8" COMMENT="" />
    <EXPORT ORDINAL="114" NAME="?Deflate@nsRect@@QAEXABUnsMargin@@@Z" PURGE="4" COMMENT="" />
    <EXPORT ORDINAL="115" NAME="?Deflate@nsRect@@QAEXABUnsSize@@@Z" PURGE="4" COMMENT="" />
    <EXPORT ORDINAL="116" NAME="?Deflate@nsRect@@QAEXHH@Z" PURGE="8" COMMENT="" />
    <EXPORT ORDINAL="117" NAME="?DisplayJobProperties@nsPrintOptions@@UAGIPBGPAVnsIPrintSettings@@PAH@Z" PURGE="16" COMMENT="" />
    <EXPORT ORDINAL="118" NAME="?Do16Blend@nsBlender@@IAEXMHHPAE00HHW4nsBlendQuality@@@Z" PURGE="36" COMMENT="" />
    <EXPORT ORDINAL="119" NAME="?Do24Blend@nsBlender@@IAEXMHHPAE00HHW4nsBlendQuality@@@Z" PURGE="36" COMMENT="" />
    <EXPORT ORDINAL="120" NAME="?Do32Blend@nsBlender@@IAEXMHHPAE00HHW4nsBlendQuality@@@Z" PURGE="36" COMMENT="" />
    <EXPORT ORDINAL="121" NAME="?Empty@nsRect@@QAEXXZ" PURGE="0" COMMENT="" />
    <EXPORT ORDINAL="122" NAME="?EnumerateFamilies@nsFont@@QBEHP6AHABVnsString@@HPAX@Z1@Z" PURGE="8" COMMENT="" />
    <EXPORT ORDINAL="123" NAME="?Equals@nsFont@@QBEHABU1@@Z" PURGE="4" COMMENT="" />
    <EXPORT ORDINAL="124" NAME="?FirstExistingFont@DeviceContextImpl@@UAGIABUnsFont@@AAVnsString@@@Z" PURGE="12" COMMENT="" />
    <EXPORT ORDINAL="125" NAME="?FlushFontCache@DeviceContextImpl@@UAGIXZ" PURGE="4" COMMENT="" />
    <EXPORT ORDINAL="126" NAME="?FontMetricsDeleted@DeviceContextImpl@@UAGIPBVnsIFontMetrics@@@Z" PURGE="8" COMMENT="" />
    <EXPORT ORDINAL="127" NAME="?GetAlphas@nsBlender@@UAGIABUnsRect@@PAX1PAPAE@Z" PURGE="20" COMMENT="" />
    <EXPORT ORDINAL="128" NAME="?GetAltDevice@DeviceContextImpl@@UAGIPAPAVnsIDeviceContext@@@Z" PURGE="8" COMMENT="" />
    <EXPORT ORDINAL="129" NAME="?GetAppUnitsToDevUnits@DeviceContextImpl@@UBGIAAM@Z" PURGE="8" COMMENT="" />
    <EXPORT ORDINAL="130" NAME="?GetBoundingBox@nsScriptableRegion@@UAGIPAH000@Z" PURGE="20" COMMENT="" />
    <EXPORT ORDINAL="131" NAME="?GetBounds@nsRegion@@QBE?AUnsRect@@XZ" PURGE="4" COMMENT="" />
    <EXPORT ORDINAL="132" NAME="?GetCanonicalPixelScale@DeviceContextImpl@@UBGIAAM@Z" PURGE="8" COMMENT="" />
    <EXPORT ORDINAL="133" NAME="?GetDefaultFont@nsPrintOptions@@UAGIAAUnsFont@@@Z" PURGE="8" COMMENT="" />
    <EXPORT ORDINAL="134" NAME="?GetDefaultPrinterName@nsPrintOptions@@UAGIPAPAG@Z" PURGE="8" COMMENT="" />
    <EXPORT ORDINAL="135" NAME="?GetDepth@DeviceContextImpl@@UAGIAAI@Z" PURGE="8" COMMENT="" />
    <EXPORT ORDINAL="136" NAME="?GetDevUnitsToAppUnits@DeviceContextImpl@@UBGIAAM@Z" PURGE="8" COMMENT="" />
    <EXPORT ORDINAL="137" NAME="?GetDevUnitsToTwips@DeviceContextImpl@@UBGIAAM@Z" PURGE="8" COMMENT="" />
    <EXPORT ORDINAL="138" NAME="?GetDocURL@nsPrintSettings@@UAGIPAPAG@Z" PURGE="8" COMMENT="" />
    <EXPORT ORDINAL="139" NAME="?GetEndPageRange@nsPrintSettings@@UAGIPAH@Z" PURGE="8" COMMENT="" />
    <EXPORT ORDINAL="140" NAME="?GetFirstFamily@nsFont@@QBEXAAVnsString@@@Z" PURGE="4" COMMENT="" />
    <EXPORT ORDINAL="141" NAME="?GetFooterStrCenter@nsPrintSettings@@UAGIPAPAG@Z" PURGE="8" COMMENT="" />
    <EXPORT ORDINAL="142" NAME="?GetFooterStrLeft@nsPrintSettings@@UAGIPAPAG@Z" PURGE="8" COMMENT="" />
    <EXPORT ORDINAL="143" NAME="?GetFooterStrRight@nsPrintSettings@@UAGIPAPAG@Z" PURGE="8" COMMENT="" />
    <EXPORT ORDINAL="144" NAME="?GetGenericID@nsFont@@SAXABVnsString@@PAE@Z" PURGE="0" COMMENT="" />
    <EXPORT ORDINAL="145" NAME="?GetGlobalPrintSettings@nsPrintOptions@@UAGIPAPAVnsIPrintSettings@@@Z" PURGE="8" COMMENT="" />
    <EXPORT ORDINAL="146" NAME="?GetHeaderStrCenter@nsPrintSettings@@UAGIPAPAG@Z" PURGE="8" COMMENT="" />
    <EXPORT ORDINAL="147" NAME="?GetHeaderStrLeft@nsPrintSettings@@UAGIPAPAG@Z" PURGE="8" COMMENT="" />
    <EXPORT ORDINAL="148" NAME="?GetHeaderStrRight@nsPrintSettings@@UAGIPAPAG@Z" PURGE="8" COMMENT="" />
    <EXPORT ORDINAL="149" NAME="?GetHowToEnableFrameUI@nsPrintSettings@@UAGIPAF@Z" PURGE="8" COMMENT="" />
    <EXPORT ORDINAL="150" NAME="?GetIsCancelled@nsPrintSettings@@UAGIPAH@Z" PURGE="8" COMMENT="" />
    <EXPORT ORDINAL="151" NAME="?GetIsInitializedFromPrefs@nsPrintSettings@@UAGIPAH@Z" PURGE="8" COMMENT="" />
    <EXPORT ORDINAL="152" NAME="?GetIsInitializedFromPrinter@nsPrintSettings@@UAGIPAH@Z" PURGE="8" COMMENT="" />
    <EXPORT ORDINAL="153" NAME="?GetLocalFontName@DeviceContextImpl@@UAGIABVnsString@@AAV2@AAH@Z" PURGE="16" COMMENT="" />
    <EXPORT ORDINAL="154" NAME="?GetLocaleLangGroup@DeviceContextImpl@@IAEXXZ" PURGE="0" COMMENT="" />
    <EXPORT ORDINAL="155" NAME="?GetMarginBottom@nsPrintSettings@@UAGIPAN@Z" PURGE="8" COMMENT="" />
    <EXPORT ORDINAL="156" NAME="?GetMarginInTwips@nsPrintSettings@@UAGIAAUnsMargin@@@Z" PURGE="8" COMMENT="" />
    <EXPORT ORDINAL="157" NAME="?GetMarginLeft@nsPrintSettings@@UAGIPAN@Z" PURGE="8" COMMENT="" />
    <EXPORT ORDINAL="158" NAME="?GetMarginRight@nsPrintSettings@@UAGIPAN@Z" PURGE="8" COMMENT="" />
    <EXPORT ORDINAL="159" NAME="?GetMarginStrs@nsPrintSettings@@IAEIPAPAGW4nsHeaderFooterEnum@1@F@Z" PURGE="12" COMMENT="" />
    <EXPORT ORDINAL="160" NAME="?GetMarginTop@nsPrintSettings@@UAGIPAN@Z" PURGE="8" COMMENT="" />
    <EXPORT ORDINAL="161" NAME="?GetMetricsFor@DeviceContextImpl@@UAGIABUnsFont@@AAPAVnsIFontMetrics@@@Z" PURGE="12" COMMENT="" />
    <EXPORT ORDINAL="162" NAME="?GetMetricsFor@DeviceContextImpl@@UAGIABUnsFont@@PAVnsIAtom@@AAPAVnsIFontMetrics@@@Z" PURGE="16" COMMENT="" />
    <EXPORT ORDINAL="163" NAME="?GetNativeData@nsPrintOptions@@UAGIFPAPAX@Z" PURGE="12" COMMENT="" />
    <EXPORT ORDINAL="164" NAME="?GetNewPrintSettings@nsPrintOptions@@UAGIPAPAVnsIPrintSettings@@@Z" PURGE="8" COMMENT="" />
    <EXPORT ORDINAL="165" NAME="?GetNumCopies@nsPrintSettings@@UAGIPAH@Z" PURGE="8" COMMENT="" />
    <EXPORT ORDINAL="166" NAME="?GetNumRects@nsRegion@@QBEIXZ" PURGE="0" COMMENT="" />
    <EXPORT ORDINAL="167" NAME="?GetOrientation@nsPrintSettings@@UAGIPAH@Z" PURGE="8" COMMENT="" />
    <EXPORT ORDINAL="168" NAME="?GetPageSizeInTwips@nsPrintSettings@@UAGIPAH0@Z" PURGE="12" COMMENT="" />
    <EXPORT ORDINAL="169" NAME="?GetPaletteInfo@DeviceContextImpl@@UAGIAAUnsPaletteInfo@@@Z" PURGE="8" COMMENT="" />
    <EXPORT ORDINAL="170" NAME="?GetPaperData@nsPrintSettings@@UAGIPAF@Z" PURGE="8" COMMENT="" />
    <EXPORT ORDINAL="171" NAME="?GetPaperHeight@nsPrintSettings@@UAGIPAN@Z" PURGE="8" COMMENT="" />
    <EXPORT ORDINAL="172" NAME="?GetPaperName@nsPrintSettings@@UAGIPAPAG@Z" PURGE="8" COMMENT="" />
    <EXPORT ORDINAL="173" NAME="?GetPaperSize@nsPrintSettings@@UAGIPAH@Z" PURGE="8" COMMENT="" />
    <EXPORT ORDINAL="174" NAME="?GetPaperSizeType@nsPrintSettings@@UAGIPAF@Z" PURGE="8" COMMENT="" />
    <EXPORT ORDINAL="175" NAME="?GetPaperSizeUnit@nsPrintSettings@@UAGIPAF@Z" PURGE="8" COMMENT="" />
    <EXPORT ORDINAL="176" NAME="?GetPaperWidth@nsPrintSettings@@UAGIPAN@Z" PURGE="8" COMMENT="" />
    <EXPORT ORDINAL="177" NAME="?GetPrefName@nsPrintOptions@@IAEPBDPBDABVnsString@@@Z" PURGE="8" COMMENT="" />
    <EXPORT ORDINAL="178" NAME="?GetPrintBGColors@nsPrintSettings@@UAGIPAH@Z" PURGE="8" COMMENT="" />
    <EXPORT ORDINAL="179" NAME="?GetPrintBGImages@nsPrintSettings@@UAGIPAH@Z" PURGE="8" COMMENT="" />
    <EXPORT ORDINAL="180" NAME="?GetPrintCommand@nsPrintSettings@@UAGIPAPAG@Z" PURGE="8" COMMENT="" />
    <EXPORT ORDINAL="181" NAME="?GetPrintFrameType@nsPrintSettings@@UAGIPAF@Z" PURGE="8" COMMENT="" />
    <EXPORT ORDINAL="182" NAME="?GetPrintFrameTypeUsage@nsPrintSettings@@UAGIPAF@Z" PURGE="8" COMMENT="" />
    <EXPORT ORDINAL="183" NAME="?GetPrintInColor@nsPrintSettings@@UAGIPAH@Z" PURGE="8" COMMENT="" />
    <EXPORT ORDINAL="184" NAME="?GetPrintOptions@nsPrintSettings@@UAGIHPAH@Z" PURGE="12" COMMENT="" />
    <EXPORT ORDINAL="185" NAME="?GetPrintOptionsBits@nsPrintSettings@@UAGIPAH@Z" PURGE="8" COMMENT="" />
    <EXPORT ORDINAL="186" NAME="?GetPrintPageDelay@nsPrintSettings@@UAGIPAH@Z" PURGE="8" COMMENT="" />
    <EXPORT ORDINAL="187" NAME="?GetPrintRange@nsPrintSettings@@UAGIPAF@Z" PURGE="8" COMMENT="" />
    <EXPORT ORDINAL="188" NAME="?GetPrintReversed@nsPrintSettings@@UAGIPAH@Z" PURGE="8" COMMENT="" />
    <EXPORT ORDINAL="189" NAME="?GetPrintSession@nsPrintSettings@@UAGIPAPAVnsIPrintSession@@@Z" PURGE="8" COMMENT="" />
    <EXPORT ORDINAL="190" NAME="?GetPrintSilent@nsPrintSettings@@UAGIPAH@Z" PURGE="8" COMMENT="" />
    <EXPORT ORDINAL="191" NAME="?GetPrintToFile@nsPrintSettings@@UAGIPAH@Z" PURGE="8" COMMENT="" />
    <EXPORT ORDINAL="192" NAME="?GetPrinterName@nsPrintSettings@@UAGIPAPAG@Z" PURGE="8" COMMENT="" />
    <EXPORT ORDINAL="193" NAME="?GetPrinterPrefInt@nsPrintOptions@@UAGIPAVnsIPrintSettings@@PBGPAH@Z" PURGE="16" COMMENT="" />
    <EXPORT ORDINAL="194" NAME="?GetRegion@nsScriptableRegion@@UAGIPAPAVnsIRegion@@@Z" PURGE="8" COMMENT="" />
    <EXPORT ORDINAL="195" NAME="?GetScaling@nsPrintSettings@@UAGIPAN@Z" PURGE="8" COMMENT="" />
    <EXPORT ORDINAL="196" NAME="?GetShowPrintProgress@nsPrintSettings@@UAGIPAH@Z" PURGE="8" COMMENT="" />
    <EXPORT ORDINAL="197" NAME="?GetShrinkToFit@nsPrintSettings@@UAGIPAH@Z" PURGE="8" COMMENT="" />
    <EXPORT ORDINAL="198" NAME="?GetStartPageRange@nsPrintSettings@@UAGIPAH@Z" PURGE="8" COMMENT="" />
    <EXPORT ORDINAL="199" NAME="?GetStringValue@nsColorNames@@SAABVnsAFlatCString@@W4nsColorName@@@Z" PURGE="0" COMMENT="" />
    <EXPORT ORDINAL="200" NAME="?GetTextZoom@DeviceContextImpl@@UBGIAAM@Z" PURGE="8" COMMENT="" />
    <EXPORT ORDINAL="201" NAME="?GetTitle@nsPrintSettings@@UAGIPAPAG@Z" PURGE="8" COMMENT="" />
    <EXPORT ORDINAL="202" NAME="?GetToFileName@nsPrintSettings@@UAGIPAPAG@Z" PURGE="8" COMMENT="" />
    <EXPORT ORDINAL="203" NAME="?GetTranslation@nsTransform2D@@QAEXPAM0@Z" PURGE="8" COMMENT="" />
    <EXPORT ORDINAL="204" NAME="?GetTranslationCoord@nsTransform2D@@QAEXPAH0@Z" PURGE="8" COMMENT="" />
    <EXPORT ORDINAL="205" NAME="?GetTwipsToDevUnits@DeviceContextImpl@@UBGIAAM@Z" PURGE="8" COMMENT="" />
    <EXPORT ORDINAL="206" NAME="?GetType@nsTransform2D@@QAEGXZ" PURGE="0" COMMENT="" />
    <EXPORT ORDINAL="207" NAME="?GetXTranslation@nsTransform2D@@QAEMXZ" PURGE="0" COMMENT="" />
    <EXPORT ORDINAL="208" NAME="?GetXTranslationCoord@nsTransform2D@@QAEHXZ" PURGE="-1" COMMENT="" />
    <EXPORT ORDINAL="209" NAME="?GetYTranslation@nsTransform2D@@QAEMXZ" PURGE="0" COMMENT="" />
    <EXPORT ORDINAL="210" NAME="?GetYTranslationCoord@nsTransform2D@@QAEHXZ" PURGE="-1" COMMENT="" />
    <EXPORT ORDINAL="211" NAME="?GetZoom@DeviceContextImpl@@UBGIAAM@Z" PURGE="8" COMMENT="" />
    <EXPORT ORDINAL="212" NAME="?Inflate@nsRect@@QAEXABUnsMargin@@@Z" PURGE="4" COMMENT="" />
    <EXPORT ORDINAL="213" NAME="?Inflate@nsRect@@QAEXABUnsSize@@@Z" PURGE="4" COMMENT="" />
    <EXPORT ORDINAL="214" NAME="?Inflate@nsRect@@QAEXHH@Z" PURGE="8" COMMENT="" />
    <EXPORT ORDINAL="215" NAME="?Init@DeviceContextImpl@@UAGIPAX@Z" PURGE="8" COMMENT="" />
    <EXPORT ORDINAL="216" NAME="?Init@nsBlender@@UAGIPAVnsIDeviceContext@@@Z" PURGE="8" COMMENT="" />
    <EXPORT ORDINAL="217" NAME="?Init@nsPrintSession@@UAEIXZ" PURGE="0" COMMENT="" />
    <EXPORT ORDINAL="218" NAME="?Init@nsRegion@@AAEXXZ" PURGE="0" COMMENT="" />
    <EXPORT ORDINAL="219" NAME="?Init@nsScriptableRegion@@UAGIXZ" PURGE="4" COMMENT="" />
    <EXPORT ORDINAL="220" NAME="?InitPrintSettingsFromPrefs@nsPrintOptions@@UAGIPAVnsIPrintSettings@@HI@Z" PURGE="16" COMMENT="" />
    <EXPORT ORDINAL="221" NAME="?InitPrintSettingsFromPrinter@nsPrintOptions@@UAGIPBGPAVnsIPrintSettings@@@Z" PURGE="12" COMMENT="" />
    <EXPORT ORDINAL="222" NAME="?InitRenderingContext@DeviceContextImpl@@AAEIPAVnsIRenderingContext@@PAVnsIWidget@@@Z" PURGE="8" COMMENT="" />
    <EXPORT ORDINAL="223" NAME="?InitRenderingContext@DeviceContextImpl@@AAEIPAVnsIRenderingContext@@PAX@Z" PURGE="8" COMMENT="" />
    <EXPORT ORDINAL="224" NAME="?InsertAfter@nsRegion@@AAEXPAURgnRect@1@0@Z" PURGE="8" COMMENT="" />
    <EXPORT ORDINAL="225" NAME="?InsertBefore@nsRegion@@AAEXPAURgnRect@1@0@Z" PURGE="8" COMMENT="" />
    <EXPORT ORDINAL="226" NAME="?InsertInPlace@nsRegion@@AAEXPAURgnRect@1@H@Z" PURGE="8" COMMENT="" />
    <EXPORT ORDINAL="227" NAME="?IntersectRect@nsRect@@QAEHABU1@0@Z" PURGE="8" COMMENT="" />
    <EXPORT ORDINAL="228" NAME="?IntersectRect@nsScriptableRegion@@UAGIHHHH@Z" PURGE="20" COMMENT="" />
    <EXPORT ORDINAL="229" NAME="?IntersectRegion@nsScriptableRegion@@UAGIPAVnsIScriptableRegion@@@Z" PURGE="8" COMMENT="" />
    <EXPORT ORDINAL="230" NAME="?Intersects@nsRect@@QBEHABU1@@Z" PURGE="4" COMMENT="" />
    <EXPORT ORDINAL="231" NAME="?IsComplex@nsRegion@@QBEHXZ" PURGE="0" COMMENT="" />
    <EXPORT ORDINAL="232" NAME="?IsEmpty@nsRect@@QBEHXZ" PURGE="0" COMMENT="" />
    <EXPORT ORDINAL="233" NAME="?IsEmpty@nsRegion@@QBEHXZ" PURGE="0" COMMENT="" />
    <EXPORT ORDINAL="234" NAME="?IsEmpty@nsScriptableRegion@@UAGIPAH@Z" PURGE="8" COMMENT="" />
    <EXPORT ORDINAL="235" NAME="?IsEqual@nsRegion@@QBEHABV1@@Z" PURGE="4" COMMENT="" />
    <EXPORT ORDINAL="236" NAME="?IsEqualRegion@nsScriptableRegion@@UAGIPAVnsIScriptableRegion@@PAH@Z" PURGE="12" COMMENT="" />
    <EXPORT ORDINAL="237" NAME="?LookupName@nsColorNames@@SA?AW4nsColorName@@ABVnsACString@@@Z" PURGE="0" COMMENT="" />
    <EXPORT ORDINAL="238" NAME="?LookupName@nsColorNames@@SA?AW4nsColorName@@ABVnsAString@@@Z" PURGE="0" COMMENT="" />
    <EXPORT ORDINAL="239" NAME="?Merge@nsRegion@@AAEXABV1@0@Z" PURGE="8" COMMENT="" />
    <EXPORT ORDINAL="240" NAME="?MoveBy@nsRect@@QAEXHH@Z" PURGE="8" COMMENT="" />
    <EXPORT ORDINAL="241" NAME="?MoveBy@nsRegion@@QAEXHH@Z" PURGE="8" COMMENT="" />
    <EXPORT ORDINAL="242" NAME="?MoveInto@nsRegion@@AAEXAAV1@@Z" PURGE="4" COMMENT="" />
    <EXPORT ORDINAL="243" NAME="?MoveInto@nsRegion@@AAEXAAV1@PBURgnRect@1@@Z" PURGE="8" COMMENT="" />
    <EXPORT ORDINAL="244" NAME="?MoveTo@nsRect@@QAEXABUnsPoint@@@Z" PURGE="4" COMMENT="" />
    <EXPORT ORDINAL="245" NAME="?MoveTo@nsRect@@QAEXHH@Z" PURGE="8" COMMENT="" />
    <EXPORT ORDINAL="246" NAME="?Observe@DeviceContextImpl@@UAGIPAVnsISupports@@PBDPBG@Z" PURGE="16" COMMENT="" />
    <EXPORT ORDINAL="247" NAME="?Offset@nsScriptableRegion@@UAGIHH@Z" PURGE="12" COMMENT="" />
    <EXPORT ORDINAL="248" NAME="?Optimize@nsRegion@@AAEXXZ" PURGE="0" COMMENT="" />
    <EXPORT ORDINAL="249" NAME="?Or@nsRegion@@QAEAAV1@ABUnsRectFast@@0@Z" PURGE="8" COMMENT="" />
    <EXPORT ORDINAL="250" NAME="?Or@nsRegion@@QAEAAV1@ABUnsRectFast@@ABV1@@Z" PURGE="8" COMMENT="" />
    <EXPORT ORDINAL="251" NAME="?Or@nsRegion@@QAEAAV1@ABV1@0@Z" PURGE="8" COMMENT="" />
    <EXPORT ORDINAL="252" NAME="?Or@nsRegion@@QAEAAV1@ABV1@ABUnsRectFast@@@Z" PURGE="8" COMMENT="" />
    <EXPORT ORDINAL="253" NAME="?PreConcatenate@nsTransform2D@@QAEXPAV1@@Z" PURGE="4" COMMENT="" />
    <EXPORT ORDINAL="254" NAME="?PrepareDocument@DeviceContextImpl@@UAGIPAG0@Z" PURGE="12" COMMENT="" />
    <EXPORT ORDINAL="255" NAME="?QueryInterface@DeviceContextImpl@@UAGIABUnsID@@PAPAX@Z" PURGE="12" COMMENT="" />
    <EXPORT ORDINAL="256" NAME="?QueryInterface@nsBlender@@UAGIABUnsID@@PAPAX@Z" PURGE="12" COMMENT="" />
    <EXPORT ORDINAL="257" NAME="?QueryInterface@nsFontList@@UAGIABUnsID@@PAPAX@Z" PURGE="12" COMMENT="" />
    <EXPORT ORDINAL="258" NAME="?QueryInterface@nsPrintOptions@@UAGIABUnsID@@PAPAX@Z" PURGE="12" COMMENT="" />
    <EXPORT ORDINAL="259" NAME="?QueryInterface@nsPrintSession@@UAGIABUnsID@@PAPAX@Z" PURGE="12" COMMENT="" />
    <EXPORT ORDINAL="260" NAME="?QueryInterface@nsPrintSettings@@UAGIABUnsID@@PAPAX@Z" PURGE="12" COMMENT="" />
    <EXPORT ORDINAL="261" NAME="?QueryInterface@nsScriptableRegion@@UAGIABUnsID@@PAPAX@Z" PURGE="12" COMMENT="" />
    <EXPORT ORDINAL="262" NAME="?ReadInchesToTwipsPref@nsPrintOptions@@IAEXPBDAAH@Z" PURGE="8" COMMENT="" />
    <EXPORT ORDINAL="263" NAME="?ReadJustification@nsPrintOptions@@IAEXPBDAAFF@Z" PURGE="12" COMMENT="" />
    <EXPORT ORDINAL="264" NAME="?ReadPrefDouble@nsPrintOptions@@IAEIPBDAAN@Z" PURGE="8" COMMENT="" />
    <EXPORT ORDINAL="265" NAME="?ReadPrefString@nsPrintOptions@@IAEIPBDAAVnsString@@@Z" PURGE="8" COMMENT="" />
    <EXPORT ORDINAL="266" NAME="?ReadPrefs@nsPrintOptions@@MAEIPAVnsIPrintSettings@@ABVnsString@@I@Z" PURGE="12" COMMENT="" />
    <EXPORT ORDINAL="267" NAME="?Release@DeviceContextImpl@@UAGKXZ" PURGE="4" COMMENT="" />
    <EXPORT ORDINAL="268" NAME="?Release@nsBlender@@UAGKXZ" PURGE="4" COMMENT="" />
    <EXPORT ORDINAL="269" NAME="?Release@nsFontList@@UAGKXZ" PURGE="4" COMMENT="" />
    <EXPORT ORDINAL="270" NAME="?Release@nsPrintOptions@@UAGKXZ" PURGE="4" COMMENT="" />
    <EXPORT ORDINAL="271" NAME="?Release@nsPrintSession@@UAGKXZ" PURGE="4" COMMENT="" />
    <EXPORT ORDINAL="272" NAME="?Release@nsPrintSettings@@UAGKXZ" PURGE="4" COMMENT="" />
    <EXPORT ORDINAL="273" NAME="?Release@nsScriptableRegion@@UAGKXZ" PURGE="4" COMMENT="" />
    <EXPORT ORDINAL="274" NAME="?ReleaseTable@nsColorNames@@SAXXZ" PURGE="0" COMMENT="" />
    <EXPORT ORDINAL="275" NAME="?Remove@nsRegion@@AAEPAURgnRect@1@PAU21@@Z" PURGE="4" COMMENT="" />
    <EXPORT ORDINAL="276" NAME="?RestoreLinkChain@nsRegion@@AAEXXZ" PURGE="0" COMMENT="" />
    <EXPORT ORDINAL="277" NAME="?SaveLinkChain@nsRegion@@AAEXXZ" PURGE="0" COMMENT="" />
    <EXPORT ORDINAL="278" NAME="?SavePrintSettingsToPrefs@nsPrintOptions@@UAGIPAVnsIPrintSettings@@HI@Z" PURGE="16" COMMENT="" />
    <EXPORT ORDINAL="279" NAME="?ScaleRoundIn@nsRect@@QAEAAU1@M@Z" PURGE="4" COMMENT="" />
    <EXPORT ORDINAL="280" NAME="?ScaleRoundOut@nsRect@@QAEAAU1@M@Z" PURGE="4" COMMENT="" />
    <EXPORT ORDINAL="281" NAME="?ScaleXCoords@nsTransform2D@@QAEXPBHIPAH@Z" PURGE="12" COMMENT="" />
    <EXPORT ORDINAL="282" NAME="?ScaleYCoords@nsTransform2D@@QAEXPBHIPAH@Z" PURGE="12" COMMENT="" />
    <EXPORT ORDINAL="283" NAME="?SetAltDevice@DeviceContextImpl@@UAGIPAVnsIDeviceContext@@@Z" PURGE="8" COMMENT="" />
    <EXPORT ORDINAL="284" NAME="?SetAppUnitsToDevUnits@DeviceContextImpl@@UAGIM@Z" PURGE="8" COMMENT="" />
    <EXPORT ORDINAL="285" NAME="?SetCanonicalPixelScale@DeviceContextImpl@@UAGIM@Z" PURGE="8" COMMENT="" />
    <EXPORT ORDINAL="286" NAME="?SetDefaultFont@nsPrintOptions@@UAGIAAUnsFont@@@Z" PURGE="8" COMMENT="" />
    <EXPORT ORDINAL="287" NAME="?SetDevUnitsToAppUnits@DeviceContextImpl@@UAGIM@Z" PURGE="8" COMMENT="" />
    <EXPORT ORDINAL="288" NAME="?SetDocURL@nsPrintSettings@@UAGIPBG@Z" PURGE="8" COMMENT="" />
    <EXPORT ORDINAL="289" NAME="?SetEmpty@nsRegion@@QAEXXZ" PURGE="0" COMMENT="" />
    <EXPORT ORDINAL="290" NAME="?SetEndPageRange@nsPrintSettings@@UAGIH@Z" PURGE="8" COMMENT="" />
    <EXPORT ORDINAL="291" NAME="?SetFontNamePointSize@nsPrintOptions@@UAGIAAVnsString@@H@Z" PURGE="12" COMMENT="" />
    <EXPORT ORDINAL="292" NAME="?SetFooterStrCenter@nsPrintSettings@@UAGIPBG@Z" PURGE="8" COMMENT="" />
    <EXPORT ORDINAL="293" NAME="?SetFooterStrLeft@nsPrintSettings@@UAGIPBG@Z" PURGE="8" COMMENT="" />
    <EXPORT ORDINAL="294" NAME="?SetFooterStrRight@nsPrintSettings@@UAGIPBG@Z" PURGE="8" COMMENT="" />
    <EXPORT ORDINAL="295" NAME="?SetHeaderStrCenter@nsPrintSettings@@UAGIPBG@Z" PURGE="8" COMMENT="" />
    <EXPORT ORDINAL="296" NAME="?SetHeaderStrLeft@nsPrintSettings@@UAGIPBG@Z" PURGE="8" COMMENT="" />
    <EXPORT ORDINAL="297" NAME="?SetHeaderStrRight@nsPrintSettings@@UAGIPBG@Z" PURGE="8" COMMENT="" />
    <EXPORT ORDINAL="298" NAME="?SetHowToEnableFrameUI@nsPrintSettings@@UAGIF@Z" PURGE="8" COMMENT="" />
    <EXPORT ORDINAL="299" NAME="?SetIsCancelled@nsPrintSettings@@UAGIH@Z" PURGE="8" COMMENT="" />
    <EXPORT ORDINAL="300" NAME="?SetIsInitializedFromPrefs@nsPrintSettings@@UAGIH@Z" PURGE="8" COMMENT="" />
    <EXPORT ORDINAL="301" NAME="?SetIsInitializedFromPrinter@nsPrintSettings@@UAGIH@Z" PURGE="8" COMMENT="" />
    <EXPORT ORDINAL="302" NAME="?SetMarginBottom@nsPrintSettings@@UAGIN@Z" PURGE="12" COMMENT="" />
    <EXPORT ORDINAL="303" NAME="?SetMarginInTwips@nsPrintSettings@@UAGIAAUnsMargin@@@Z" PURGE="8" COMMENT="" />
    <EXPORT ORDINAL="304" NAME="?SetMarginLeft@nsPrintSettings@@UAGIN@Z" PURGE="12" COMMENT="" />
    <EXPORT ORDINAL="305" NAME="?SetMarginRight@nsPrintSettings@@UAGIN@Z" PURGE="12" COMMENT="" />
    <EXPORT ORDINAL="306" NAME="?SetMarginStrs@nsPrintSettings@@IAEIPBGW4nsHeaderFooterEnum@1@F@Z" PURGE="12" COMMENT="" />
    <EXPORT ORDINAL="307" NAME="?SetMarginTop@nsPrintSettings@@UAGIN@Z" PURGE="12" COMMENT="" />
    <EXPORT ORDINAL="308" NAME="?SetMatrix@nsTransform2D@@QAEXPAV1@@Z" PURGE="4" COMMENT="" />
    <EXPORT ORDINAL="309" NAME="?SetNumCopies@nsPrintSettings@@UAGIH@Z" PURGE="8" COMMENT="" />
    <EXPORT ORDINAL="310" NAME="?SetOrientation@nsPrintSettings@@UAGIH@Z" PURGE="8" COMMENT="" />
    <EXPORT ORDINAL="311" NAME="?SetPaperData@nsPrintSettings@@UAGIF@Z" PURGE="8" COMMENT="" />
    <EXPORT ORDINAL="312" NAME="?SetPaperHeight@nsPrintSettings@@UAGIN@Z" PURGE="12" COMMENT="" />
    <EXPORT ORDINAL="313" NAME="?SetPaperName@nsPrintSettings@@UAGIPBG@Z" PURGE="8" COMMENT="" />
    <EXPORT ORDINAL="314" NAME="?SetPaperSize@nsPrintSettings@@UAGIH@Z" PURGE="8" COMMENT="" />
    <EXPORT ORDINAL="315" NAME="?SetPaperSizeType@nsPrintSettings@@UAGIF@Z" PURGE="8" COMMENT="" />
    <EXPORT ORDINAL="316" NAME="?SetPaperSizeUnit@nsPrintSettings@@UAGIF@Z" PURGE="8" COMMENT="" />
    <EXPORT ORDINAL="317" NAME="?SetPaperWidth@nsPrintSettings@@UAGIN@Z" PURGE="12" COMMENT="" />
    <EXPORT ORDINAL="318" NAME="?SetPrintBGColors@nsPrintSettings@@UAGIH@Z" PURGE="8" COMMENT="" />
    <EXPORT ORDINAL="319" NAME="?SetPrintBGImages@nsPrintSettings@@UAGIH@Z" PURGE="8" COMMENT="" />
    <EXPORT ORDINAL="320" NAME="?SetPrintCommand@nsPrintSettings@@UAGIPBG@Z" PURGE="8" COMMENT="" />
    <EXPORT ORDINAL="321" NAME="?SetPrintFrameType@nsPrintSettings@@UAGIF@Z" PURGE="8" COMMENT="" />
    <EXPORT ORDINAL="322" NAME="?SetPrintFrameTypeUsage@nsPrintSettings@@UAGIF@Z" PURGE="8" COMMENT="" />
    <EXPORT ORDINAL="323" NAME="?SetPrintInColor@nsPrintSettings@@UAGIH@Z" PURGE="8" COMMENT="" />
    <EXPORT ORDINAL="324" NAME="?SetPrintOptions@nsPrintSettings@@UAGIHH@Z" PURGE="12" COMMENT="" />
    <EXPORT ORDINAL="325" NAME="?SetPrintPageDelay@nsPrintSettings@@UAGIH@Z" PURGE="8" COMMENT="" />
    <EXPORT ORDINAL="326" NAME="?SetPrintRange@nsPrintSettings@@UAGIF@Z" PURGE="8" COMMENT="" />
    <EXPORT ORDINAL="327" NAME="?SetPrintReversed@nsPrintSettings@@UAGIH@Z" PURGE="8" COMMENT="" />
    <EXPORT ORDINAL="328" NAME="?SetPrintSession@nsPrintSettings@@UAGIPAVnsIPrintSession@@@Z" PURGE="8" COMMENT="" />
    <EXPORT ORDINAL="329" NAME="?SetPrintSilent@nsPrintSettings@@UAGIH@Z" PURGE="8" COMMENT="" />
    <EXPORT ORDINAL="330" NAME="?SetPrintToFile@nsPrintSettings@@UAGIH@Z" PURGE="8" COMMENT="" />
    <EXPORT ORDINAL="331" NAME="?SetPrinterName@nsPrintSettings@@UAGIPBG@Z" PURGE="8" COMMENT="" />
    <EXPORT ORDINAL="332" NAME="?SetRect@nsRect@@QAEXHHHH@Z" PURGE="16" COMMENT="" />
    <EXPORT ORDINAL="333" NAME="?SetScaling@nsPrintSettings@@UAGIN@Z" PURGE="12" COMMENT="" />
    <EXPORT ORDINAL="334" NAME="?SetShowPrintProgress@nsPrintSettings@@UAGIH@Z" PURGE="8" COMMENT="" />
    <EXPORT ORDINAL="335" NAME="?SetShrinkToFit@nsPrintSettings@@UAGIH@Z" PURGE="8" COMMENT="" />
    <EXPORT ORDINAL="336" NAME="?SetStartPageRange@nsPrintSettings@@UAGIH@Z" PURGE="8" COMMENT="" />
    <EXPORT ORDINAL="337" NAME="?SetTextZoom@DeviceContextImpl@@UAGIM@Z" PURGE="8" COMMENT="" />
    <EXPORT ORDINAL="338" NAME="?SetTitle@nsPrintSettings@@UAGIPBG@Z" PURGE="8" COMMENT="" />
    <EXPORT ORDINAL="339" NAME="?SetToElements@nsRegion@@AAEXI@Z" PURGE="4" COMMENT="" />
    <EXPORT ORDINAL="340" NAME="?SetToFileName@nsPrintSettings@@UAGIPBG@Z" PURGE="8" COMMENT="" />
    <EXPORT ORDINAL="341" NAME="?SetToIdentity@nsTransform2D@@QAEXXZ" PURGE="0" COMMENT="" />
    <EXPORT ORDINAL="342" NAME="?SetToRect@nsScriptableRegion@@UAGIHHHH@Z" PURGE="20" COMMENT="" />
    <EXPORT ORDINAL="343" NAME="?SetToRegion@nsScriptableRegion@@UAGIPAVnsIScriptableRegion@@@Z" PURGE="8" COMMENT="" />
    <EXPORT ORDINAL="344" NAME="?SetToScale@nsTransform2D@@QAEXMM@Z" PURGE="8" COMMENT="" />
    <EXPORT ORDINAL="345" NAME="?SetToTranslate@nsTransform2D@@QAEXMM@Z" PURGE="8" COMMENT="" />
    <EXPORT ORDINAL="346" NAME="?SetTranslation@nsTransform2D@@QAEXMM@Z" PURGE="8" COMMENT="" />
    <EXPORT ORDINAL="347" NAME="?SetUseAltDC@DeviceContextImpl@@UAGIEH@Z" PURGE="12" COMMENT="" />
    <EXPORT ORDINAL="348" NAME="?SetZoom@DeviceContextImpl@@UAGIM@Z" PURGE="8" COMMENT="" />
    <EXPORT ORDINAL="349" NAME="?ShowPrintSetupDialog@nsPrintOptions@@UAGIPAVnsIPrintSettings@@@Z" PURGE="8" COMMENT="" />
    <EXPORT ORDINAL="350" NAME="?SizeBy@nsRect@@QAEXHH@Z" PURGE="8" COMMENT="" />
    <EXPORT ORDINAL="351" NAME="?SizeTo@nsRect@@QAEXABUnsSize@@@Z" PURGE="4" COMMENT="" />
    <EXPORT ORDINAL="352" NAME="?SizeTo@nsRect@@QAEXHH@Z" PURGE="8" COMMENT="" />
    <EXPORT ORDINAL="353" NAME="?Sub@nsRegion@@QAEAAV1@ABUnsRectFast@@0@Z" PURGE="8" COMMENT="" />
    <EXPORT ORDINAL="354" NAME="?Sub@nsRegion@@QAEAAV1@ABUnsRectFast@@ABV1@@Z" PURGE="8" COMMENT="" />
    <EXPORT ORDINAL="355" NAME="?Sub@nsRegion@@QAEAAV1@ABV1@0@Z" PURGE="8" COMMENT="" />
    <EXPORT ORDINAL="356" NAME="?Sub@nsRegion@@QAEAAV1@ABV1@ABUnsRectFast@@@Z" PURGE="8" COMMENT="" />
    <EXPORT ORDINAL="357" NAME="?SubRect@nsRegion@@ABEXABUnsRectFast@@AAV1@1@Z" PURGE="12" COMMENT="" />
    <EXPORT ORDINAL="358" NAME="?SubRect@nsRegion@@ABEXABUnsRectFast@@AAV1@@Z" PURGE="8" COMMENT="" />
    <EXPORT ORDINAL="359" NAME="?SubRegion@nsRegion@@ABEXABV1@AAV1@@Z" PURGE="8" COMMENT="" />
    <EXPORT ORDINAL="360" NAME="?SubtractRect@nsScriptableRegion@@UAGIHHHH@Z" PURGE="20" COMMENT="" />
    <EXPORT ORDINAL="361" NAME="?SubtractRegion@nsScriptableRegion@@UAGIPAVnsIScriptableRegion@@@Z" PURGE="8" COMMENT="" />
    <EXPORT ORDINAL="362" NAME="?Transform@nsTransform2D@@QAEXPAM000@Z" PURGE="16" COMMENT="" />
    <EXPORT ORDINAL="363" NAME="?Transform@nsTransform2D@@QAEXPAM0@Z" PURGE="8" COMMENT="" />
    <EXPORT ORDINAL="364" NAME="?TransformCoord@nsTransform2D@@QAEXPAH000@Z" PURGE="16" COMMENT="" />
    <EXPORT ORDINAL="365" NAME="?TransformCoord@nsTransform2D@@QAEXPAH0@Z" PURGE="8" COMMENT="" />
    <EXPORT ORDINAL="366" NAME="?TransformNoXLate@nsTransform2D@@QAEXPAM0@Z" PURGE="8" COMMENT="" />
    <EXPORT ORDINAL="367" NAME="?TransformNoXLateCoord@nsTransform2D@@QAEXPAH0@Z" PURGE="8" COMMENT="" />
    <EXPORT ORDINAL="368" NAME="?UnionRect@nsRect@@QAEHABU1@0@Z" PURGE="8" COMMENT="" />
    <EXPORT ORDINAL="369" NAME="?UnionRect@nsScriptableRegion@@UAGIHHHH@Z" PURGE="20" COMMENT="" />
    <EXPORT ORDINAL="370" NAME="?UnionRegion@nsScriptableRegion@@UAGIPAVnsIScriptableRegion@@@Z" PURGE="8" COMMENT="" />
    <EXPORT ORDINAL="371" NAME="?WriteInchesFromTwipsPref@nsPrintOptions@@IAEXPBDH@Z" PURGE="8" COMMENT="" />
    <EXPORT ORDINAL="372" NAME="?WriteJustification@nsPrintOptions@@IAEXPBDF@Z" PURGE="8" COMMENT="" />
    <EXPORT ORDINAL="373" NAME="?WritePrefDouble@nsPrintOptions@@IAEIPBDN@Z" PURGE="12" COMMENT="" />
    <EXPORT ORDINAL="374" NAME="?WritePrefString@nsPrintOptions@@IAEIAAPAGPBD@Z" PURGE="8" COMMENT="" />
    <EXPORT ORDINAL="375" NAME="?WritePrefString@nsPrintOptions@@IAEIPBDAAVnsString@@@Z" PURGE="8" COMMENT="" />
    <EXPORT ORDINAL="376" NAME="?WritePrefs@nsPrintOptions@@MAEIPAVnsIPrintSettings@@ABVnsString@@I@Z" PURGE="12" COMMENT="" />
    <EXPORT ORDINAL="377" NAME="?XMost@nsRect@@QBEHXZ" PURGE="0" COMMENT="" />
    <EXPORT ORDINAL="378" NAME="?Xor@nsRegion@@QAEAAV1@ABUnsRectFast@@0@Z" PURGE="8" COMMENT="" />
    <EXPORT ORDINAL="379" NAME="?Xor@nsRegion@@QAEAAV1@ABUnsRectFast@@ABV1@@Z" PURGE="8" COMMENT="" />
    <EXPORT ORDINAL="380" NAME="?Xor@nsRegion@@QAEAAV1@ABV1@0@Z" PURGE="8" COMMENT="" />
    <EXPORT ORDINAL="381" NAME="?Xor@nsRegion@@QAEAAV1@ABV1@ABUnsRectFast@@@Z" PURGE="8" COMMENT="" />
    <EXPORT ORDINAL="382" NAME="?YMost@nsRect@@QBEHXZ" PURGE="0" COMMENT="" />
    <EXPORT ORDINAL="383" NAME="?_Assign@nsPrintSettings@@MAEIPAVnsIPrintSettings@@@Z" PURGE="4" COMMENT="" />
    <EXPORT ORDINAL="384" NAME="?_Clone@nsPrintSettings@@MAEIPAPAVnsIPrintSettings@@@Z" PURGE="4" COMMENT="" />
    <EXPORT ORDINAL="385" NAME="?_CreatePrintSettings@nsPrintOptions@@MAEIPAPAVnsIPrintSettings@@@Z" PURGE="4" COMMENT="" />
    <EXPORT ORDINAL="386" NAME="?kColors@nsColorNames@@2QBIB" PURGE="-1" COMMENT="" />
    <EXPORT ORDINAL="387" NAME="?sDefaultFont@nsPrintOptions@@1PAUnsFont@@A" PURGE="-1" COMMENT="" />
    <EXPORT ORDINAL="388" NAME="_NS_BrightenColor@4" PURGE="4" COMMENT="" />
    <EXPORT ORDINAL="389" NAME="_NS_ColorNameToRGB@8" PURGE="8" COMMENT="" />
    <EXPORT ORDINAL="390" NAME="_NS_DarkenColor@4" PURGE="4" COMMENT="" />
    <EXPORT ORDINAL="391" NAME="_NS_HSL2RGB@12" PURGE="12" COMMENT="" />
    <EXPORT ORDINAL="392" NAME="_NS_HexToRGB@8" PURGE="8" COMMENT="" />
    <EXPORT ORDINAL="393" NAME="_NS_LooseHexToRGB@8" PURGE="8" COMMENT="" />
</LIBRARY>

