<?xml version="1.0" encoding="UTF-8"?>
<LIBRARY NAME="helper.dll" PATH="/DLLArchive/etc/helper.dll" DATE="Fri Jul 03 12:36:38 PDT 2020" VERSION="1, 0, 0, 1">
    <EXPORT ORDINAL="1" NAME="??0C_Calc@@QAE@H@Z" PURGE="4" COMMENT="" />
    <EXPORT ORDINAL="2" NAME="??0C_Helper@@QAE@XZ" PURGE="0" COMMENT="" />
    <EXPORT ORDINAL="3" NAME="??0C_OleDiskStorage@@QAE@XZ" PURGE="0" COMMENT="" />
    <EXPORT ORDINAL="4" NAME="??1C_Calc@@QAE@XZ" PURGE="0" COMMENT="" />
    <EXPORT ORDINAL="5" NAME="??1C_Helper@@QAE@XZ" PURGE="0" COMMENT="" />
    <EXPORT ORDINAL="6" NAME="??1C_OleDiskStorage@@QAE@XZ" PURGE="0" COMMENT="" />
    <EXPORT ORDINAL="7" NAME="??4C_Helper@@QAEAAV0@ABV0@@Z" PURGE="4" COMMENT="" />
    <EXPORT ORDINAL="8" NAME="??4C_OleDiskStorage@@QAEAAV0@ABV0@@Z" PURGE="4" COMMENT="" />
    <EXPORT ORDINAL="9" NAME="??4C_Options@@QAEAAV0@ABV0@@Z" PURGE="4" COMMENT="" />
    <EXPORT ORDINAL="10" NAME="?AddColorVars@C_Helper@@QAEXPAVC_Calc@@PAH111@Z" PURGE="20" COMMENT="" />
    <EXPORT ORDINAL="11" NAME="?AddIntToStr@C_Helper@@QAEXAAVCString@@H@Z" PURGE="8" COMMENT="" />
    <EXPORT ORDINAL="12" NAME="?AddOutputBytes@C_Calc@@AAEXPAEHPAPAE@Z" PURGE="12" COMMENT="" />
    <EXPORT ORDINAL="13" NAME="?AddOutputConst@C_Calc@@AAEXNPAPAE@Z" PURGE="12" COMMENT="" />
    <EXPORT ORDINAL="14" NAME="?AddOutputToken@C_Calc@@AAEXEPAPAE@Z" PURGE="8" COMMENT="" />
    <EXPORT ORDINAL="15" NAME="?AddXFormVars@C_Helper@@QAEXPAVC_Calc@@PAH111111@Z" PURGE="32" COMMENT="" />
    <EXPORT ORDINAL="16" NAME="?AllocAnyMapBuffer@C_Helper@@QAEPAXPAXPAPAXKH@Z" PURGE="16" COMMENT="" />
    <EXPORT ORDINAL="17" NAME="?AllocFileMapBuffer@C_Helper@@QAEPAXPAXPAPAXKH@Z" PURGE="16" COMMENT="" />
    <EXPORT ORDINAL="18" NAME="?AllocSysMapBuffer@C_Helper@@QAEPAXPAPAXK@Z" PURGE="8" COMMENT="" />
    <EXPORT ORDINAL="19" NAME="?BoundIntControl@C_Helper@@QAEHPAVCWnd@@HH@Z" PURGE="12" COMMENT="" />
    <EXPORT ORDINAL="20" NAME="?BoundIntMinMax@C_Helper@@QAEHPAHHH@Z" PURGE="12" COMMENT="" />
    <EXPORT ORDINAL="21" NAME="?BoundIntMinMaxArray@C_Helper@@QAEXPAHHHH@Z" PURGE="16" COMMENT="" />
    <EXPORT ORDINAL="22" NAME="?BrowseForFolderName@C_Helper@@QAEHAAVCString@@0PAVCWnd@@@Z" PURGE="12" COMMENT="" />
    <EXPORT ORDINAL="23" NAME="?CalcNBytesScan@C_Helper@@QAEKJG@Z" PURGE="8" COMMENT="" />
    <EXPORT ORDINAL="24" NAME="?CalcOneGamma@C_Helper@@QAEEHN@Z" PURGE="12" COMMENT="" />
    <EXPORT ORDINAL="25" NAME="?ChangeRGBQHSV@C_Helper@@QAEXPAUtagRGBQUAD@@KPAH@Z" PURGE="12" COMMENT="" />
    <EXPORT ORDINAL="26" NAME="?ChangeRGBQYUV@C_Helper@@QAEXPAUtagRGBQUAD@@KPAH@Z" PURGE="12" COMMENT="" />
    <EXPORT ORDINAL="27" NAME="?ChangeSpinBuddy@C_Helper@@QAEXPAUtagNMHDR@@@Z" PURGE="4" COMMENT="" />
    <EXPORT ORDINAL="28" NAME="?ClearReferences@C_Calc@@QAEXXZ" PURGE="0" COMMENT="" />
    <EXPORT ORDINAL="29" NAME="?Close@C_OleDiskStorage@@QAEXXZ" PURGE="0" COMMENT="" />
    <EXPORT ORDINAL="30" NAME="?CloseAr@C_OleDiskStorage@@QAEXPAPAVCArchive@@@Z" PURGE="4" COMMENT="" />
    <EXPORT ORDINAL="31" NAME="?CloseFileAndArchive@C_Helper@@QAEXAAVCFile@@PAPAVCArchive@@@Z" PURGE="8" COMMENT="" />
    <EXPORT ORDINAL="32" NAME="?CloseStream@C_OleDiskStorage@@QAEXPAPAVCOleStreamFile@@@Z" PURGE="4" COMMENT="" />
    <EXPORT ORDINAL="33" NAME="?CommonRenameRecycleFile@C_Helper@@AAEHPAVCWnd@@HAAVCString@@1@Z" PURGE="16" COMMENT="" />
    <EXPORT ORDINAL="34" NAME="?CompileExpr@C_Calc@@QAEHPBDPAE@Z" PURGE="8" COMMENT="" />
    <EXPORT ORDINAL="35" NAME="?ConcatPidls@C_Helper@@QAEPAU_ITEMIDLIST@@PBU2@0@Z" PURGE="8" COMMENT="" />
    <EXPORT ORDINAL="36" NAME="?ConsumeIntFromString@C_Helper@@QAEHAAVCString@@PAH@Z" PURGE="8" COMMENT="" />
    <EXPORT ORDINAL="37" NAME="?Convert1BitTo8BitScan@C_Helper@@QAEXPAE0J@Z" PURGE="12" COMMENT="" />
    <EXPORT ORDINAL="38" NAME="?Convert4BitTo8BitScan@C_Helper@@QAEXPAE0J@Z" PURGE="12" COMMENT="" />
    <EXPORT ORDINAL="39" NAME="?Convert8BitTo1BitScan@C_Helper@@QAEXPAE0J@Z" PURGE="12" COMMENT="" />
    <EXPORT ORDINAL="40" NAME="?Convert8BitTo4BitScan@C_Helper@@QAEXPAE0J@Z" PURGE="12" COMMENT="" />
    <EXPORT ORDINAL="41" NAME="?CopyITEMID@C_Helper@@QAEPAU_ITEMIDLIST@@PAUIMalloc@@PAU2@@Z" PURGE="8" COMMENT="" />
    <EXPORT ORDINAL="42" NAME="?Create@C_Helper@@QAEPAU_ITEMIDLIST@@I@Z" PURGE="4" COMMENT="" />
    <EXPORT ORDINAL="43" NAME="?Create@C_OleDiskStorage@@QAEHVCString@@H@Z" PURGE="8" COMMENT="" />
    <EXPORT ORDINAL="44" NAME="?CreateCalc@C_Helper@@QAEPAVC_Calc@@H@Z" PURGE="4" COMMENT="" />
    <EXPORT ORDINAL="45" NAME="?CreateMaskedColors@C_Helper@@QAEXPAUtagRGBQUAD@@0KH@Z" PURGE="16" COMMENT="" />
    <EXPORT ORDINAL="46" NAME="?CreatePalette@C_Helper@@QAEHAAVCPalette@@PAUtagRGBQUAD@@K@Z" PURGE="12" COMMENT="" />
    <EXPORT ORDINAL="47" NAME="?CreatePointFontWithAttr@C_Helper@@QAEHPAVCFont@@VCString@@HHHHHPAVCDC@@@Z" PURGE="32" COMMENT="" />
    <EXPORT ORDINAL="48" NAME="?CreateShellLink@C_Helper@@QAEHAAVCString@@0@Z" PURGE="8" COMMENT="" />
    <EXPORT ORDINAL="49" NAME="?CreateStream@C_OleDiskStorage@@QAEPAVCOleStreamFile@@VCString@@H@Z" PURGE="8" COMMENT="" />
    <EXPORT ORDINAL="50" NAME="?CreateTmp@C_OleDiskStorage@@QAEHHH@Z" PURGE="8" COMMENT="" />
    <EXPORT ORDINAL="51" NAME="?CreateVars@C_Calc@@AAEXXZ" PURGE="0" COMMENT="" />
    <EXPORT ORDINAL="52" NAME="?CreatedOK@C_Calc@@QAEHXZ" PURGE="0" COMMENT="" />
    <EXPORT ORDINAL="53" NAME="?DeStackVal@C_Calc@@QAENXZ" PURGE="0" COMMENT="" />
    <EXPORT ORDINAL="54" NAME="?DefineNewVar@C_Calc@@QAEHPBDN@Z" PURGE="12" COMMENT="" />
    <EXPORT ORDINAL="55" NAME="?DirectoryExists@C_Helper@@QAEHPBD@Z" PURGE="4" COMMENT="" />
    <EXPORT ORDINAL="56" NAME="?DoShellContextMenu@C_Helper@@QAEXPAVCWnd@@PAUIShellFolder@@PAU_ITEMIDLIST@@VCPoint@@@Z" PURGE="20" COMMENT="" />
    <EXPORT ORDINAL="57" NAME="?DuplicateGammaTables@C_Helper@@QAEXPAE0@Z" PURGE="8" COMMENT="" />
    <EXPORT ORDINAL="58" NAME="?EnableFontSmoothing@C_Helper@@QAEHH@Z" PURGE="4" COMMENT="" />
    <EXPORT ORDINAL="59" NAME="?EndMouseHook@C_Helper@@QAEXXZ" PURGE="0" COMMENT="" />
    <EXPORT ORDINAL="60" NAME="?ErrorMessage@C_Helper@@QAEXPBD@Z" PURGE="4" COMMENT="" />
    <EXPORT ORDINAL="61" NAME="?EvalCompiledExpr@C_Calc@@QAENPAE@Z" PURGE="4" COMMENT="" />
    <EXPORT ORDINAL="62" NAME="?EvalExpr@C_Calc@@QAENPBD@Z" PURGE="4" COMMENT="" />
    <EXPORT ORDINAL="63" NAME="?EvalInitialColorExpr@C_Helper@@QAEHVCString@@PAHPAVC_Calc@@PAUS_CalcColorError@@@Z" PURGE="16" COMMENT="" />
    <EXPORT ORDINAL="64" NAME="?FileIOErrorMessage@C_Helper@@QAEXPBD@Z" PURGE="4" COMMENT="" />
    <EXPORT ORDINAL="65" NAME="?FileIOWarningMessage@C_Helper@@QAEXPBD@Z" PURGE="4" COMMENT="" />
    <EXPORT ORDINAL="66" NAME="?FileNameOnDir@C_Helper@@QAEXPADPBD@Z" PURGE="8" COMMENT="" />
    <EXPORT ORDINAL="67" NAME="?FileNameWithExt@C_Helper@@QAEXPADPBD@Z" PURGE="8" COMMENT="" />
    <EXPORT ORDINAL="68" NAME="?FileOrFolderExists@C_Helper@@QAEHPBD@Z" PURGE="4" COMMENT="" />
    <EXPORT ORDINAL="69" NAME="?FillBIH@C_Helper@@QAEXPAUtagBITMAPINFOHEADER@@JJGK@Z" PURGE="20" COMMENT="" />
    <EXPORT ORDINAL="70" NAME="?FillContrastTable@C_Helper@@QAEXPAEH@Z" PURGE="8" COMMENT="" />
    <EXPORT ORDINAL="71" NAME="?FillExpContrastTable@C_Helper@@QAEXPAEH@Z" PURGE="8" COMMENT="" />
    <EXPORT ORDINAL="72" NAME="?FillGammaTable@C_Helper@@QAEXPAEN@Z" PURGE="12" COMMENT="" />
    <EXPORT ORDINAL="73" NAME="?FillListBoxWithSubFolders@C_Helper@@QAEXPBDAAVCListBox@@@Z" PURGE="8" COMMENT="" />
    <EXPORT ORDINAL="74" NAME="?FillLogContrastTable@C_Helper@@QAEXPAEH@Z" PURGE="8" COMMENT="" />
    <EXPORT ORDINAL="75" NAME="?FillOneColorOperLUT@C_Helper@@QAEHVCString@@PAHPAVC_Calc@@PAUS_CalcColorError@@PAE@Z" PURGE="20" COMMENT="" />
    <EXPORT ORDINAL="76" NAME="?FillRGBOffTable@C_Helper@@QAEXPAEH@Z" PURGE="8" COMMENT="" />
    <EXPORT ORDINAL="77" NAME="?FillSineHContrastTable@C_Helper@@QAEXPAEH@Z" PURGE="8" COMMENT="" />
    <EXPORT ORDINAL="78" NAME="?FillUserColorOperLUTs@C_Helper@@QAEHPAUS_OneUserColorOper@@PAUS_CalcColorError@@PAE22@Z" PURGE="20" COMMENT="" />
    <EXPORT ORDINAL="79" NAME="?FindConstByName@C_Calc@@AAEPBUS_OneConst@@PBD@Z" PURGE="4" COMMENT="" />
    <EXPORT ORDINAL="80" NAME="?FindFunctionByName@C_Calc@@AAEPBUS_OneFunction@@PBD@Z" PURGE="4" COMMENT="" />
    <EXPORT ORDINAL="81" NAME="?FindOrDefineVar@C_Calc@@QAEHPBD@Z" PURGE="4" COMMENT="" />
    <EXPORT ORDINAL="82" NAME="?FindVarByName@C_Calc@@AAEPAUS_OneVar@@PBDPAH@Z" PURGE="8" COMMENT="" />
    <EXPORT ORDINAL="83" NAME="?FitFindHForW@C_Helper@@QAEJJJJ@Z" PURGE="12" COMMENT="" />
    <EXPORT ORDINAL="84" NAME="?FitFindWForH@C_Helper@@QAEJJJJ@Z" PURGE="12" COMMENT="" />
    <EXPORT ORDINAL="85" NAME="?FitIfGreater@C_Helper@@QAEHPAJ0JJ@Z" PURGE="16" COMMENT="" />
    <EXPORT ORDINAL="86" NAME="?FitWHOnNewWH@C_Helper@@QAEXPAJ0JJ@Z" PURGE="16" COMMENT="" />
    <EXPORT ORDINAL="87" NAME="?FormatError@C_Calc@@QAEPBDH@Z" PURGE="4" COMMENT="" />
    <EXPORT ORDINAL="88" NAME="?FreeMapBuffer@C_Helper@@QAEXPAPAXPAX@Z" PURGE="8" COMMENT="" />
    <EXPORT ORDINAL="89" NAME="?GetAllowDefineVars@C_Calc@@QAEHXZ" PURGE="0" COMMENT="" />
    <EXPORT ORDINAL="90" NAME="?GetDefault16Palette@C_Helper@@QAEXPAUtagRGBQUAD@@@Z" PURGE="4" COMMENT="" />
    <EXPORT ORDINAL="91" NAME="?GetDefault256Palette@C_Helper@@QAEXPAUtagRGBQUAD@@@Z" PURGE="4" COMMENT="" />
    <EXPORT ORDINAL="92" NAME="?GetExpectedToken@C_Calc@@AAEXEHPAPAD@Z" PURGE="12" COMMENT="" />
    <EXPORT ORDINAL="93" NAME="?GetExt@C_Helper@@QAEXPADPBD@Z" PURGE="8" COMMENT="" />
    <EXPORT ORDINAL="94" NAME="?GetFileAttributesExA@C_Helper@@QAEHPBDPAU_WIN32_FIND_DATAA@@@Z" PURGE="8" COMMENT="" />
    <EXPORT ORDINAL="95" NAME="?GetFileOpenSaveName@C_Helper@@QAEHHVCString@@IIIPAVCWnd@@PAV2@H@Z" PURGE="32" COMMENT="" />
    <EXPORT ORDINAL="96" NAME="?GetFullyQualPidl@C_Helper@@QAEPAU_ITEMIDLIST@@PAUIShellFolder@@PAU2@PAK2@Z" PURGE="16" COMMENT="" />
    <EXPORT ORDINAL="97" NAME="?GetFullyQualPidl@C_Helper@@QAEPAU_ITEMIDLIST@@PBDPAK1@Z" PURGE="12" COMMENT="" />
    <EXPORT ORDINAL="98" NAME="?GetIcon@C_Helper@@QAEHPAU_ITEMIDLIST@@I@Z" PURGE="8" COMMENT="" />
    <EXPORT ORDINAL="99" NAME="?GetInputToken@C_Calc@@AAEEPAPAD@Z" PURGE="4" COMMENT="" />
    <EXPORT ORDINAL="100" NAME="?GetInputTokenIfMatches@C_Calc@@AAEHEPAPADPAD@Z" PURGE="12" COMMENT="" />
    <EXPORT ORDINAL="101" NAME="?GetLastError@C_Calc@@QAEHXZ" PURGE="0" COMMENT="" />
    <EXPORT ORDINAL="102" NAME="?GetMainWindowDC@C_Helper@@QAEPAVCDC@@XZ" PURGE="0" COMMENT="" />
    <EXPORT ORDINAL="103" NAME="?GetName@C_Helper@@QAEHPAUIShellFolder@@PAU_ITEMIDLIST@@KPAD@Z" PURGE="16" COMMENT="" />
    <EXPORT ORDINAL="104" NAME="?GetNormalAndSelectedIcons@C_Helper@@QAEXPAU_ITEMIDLIST@@PAUtagTVITEMA@@@Z" PURGE="8" COMMENT="" />
    <EXPORT ORDINAL="105" NAME="?GetPathName@C_OleDiskStorage@@QAEXAAVCString@@@Z" PURGE="4" COMMENT="" />
    <EXPORT ORDINAL="106" NAME="?GetProgramDir@C_Helper@@QAEXPAD@Z" PURGE="4" COMMENT="" />
    <EXPORT ORDINAL="107" NAME="?GetRegistryFileType@C_Helper@@QAEHPAD0@Z" PURGE="8" COMMENT="" />
    <EXPORT ORDINAL="108" NAME="?GetSize@C_Helper@@QAEIPBU_ITEMIDLIST@@@Z" PURGE="4" COMMENT="" />
    <EXPORT ORDINAL="109" NAME="?GetSpinBuddy@C_Helper@@QAEIPAUtagNMHDR@@@Z" PURGE="4" COMMENT="" />
    <EXPORT ORDINAL="110" NAME="?GetSysPalette@C_Helper@@QAEKPAUtagRGBQUAD@@@Z" PURGE="4" COMMENT="" />
    <EXPORT ORDINAL="111" NAME="?GetTmpFileName@C_Helper@@QAEXAAVCString@@@Z" PURGE="4" COMMENT="" />
    <EXPORT ORDINAL="112" NAME="?GetTmpFilePath@C_Helper@@QAEXAAVCString@@@Z" PURGE="4" COMMENT="" />
    <EXPORT ORDINAL="113" NAME="?GetVarReferred@C_Calc@@QAEHH@Z" PURGE="4" COMMENT="" />
    <EXPORT ORDINAL="114" NAME="?GetVarVal@C_Calc@@QAENH@Z" PURGE="4" COMMENT="" />
    <EXPORT ORDINAL="115" NAME="?GetVarVal@C_Calc@@QAENPBD@Z" PURGE="4" COMMENT="" />
    <EXPORT ORDINAL="116" NAME="?HSLFromRGB@C_Helper@@QAEXGGGPAE00@Z" PURGE="24" COMMENT="" />
    <EXPORT ORDINAL="117" NAME="?HSVFromRGB@C_Helper@@QAEXEEEPAHPAE1@Z" PURGE="24" COMMENT="" />
    <EXPORT ORDINAL="118" NAME="?InitEmptyUserColorOper@C_Helper@@QAEXPAUS_OneUserColorOper@@@Z" PURGE="4" COMMENT="" />
    <EXPORT ORDINAL="119" NAME="?IsAltKeyPressed@C_Helper@@QAEHXZ" PURGE="0" COMMENT="" />
    <EXPORT ORDINAL="120" NAME="?IsControlKeyPressed@C_Helper@@QAEHXZ" PURGE="0" COMMENT="" />
    <EXPORT ORDINAL="121" NAME="?IsPaletteMode@C_Helper@@QAEHXZ" PURGE="0" COMMENT="" />
    <EXPORT ORDINAL="122" NAME="?IsShiftKeyPressed@C_Helper@@QAEHXZ" PURGE="0" COMMENT="" />
    <EXPORT ORDINAL="123" NAME="?IsTmp@C_OleDiskStorage@@QAEHXZ" PURGE="0" COMMENT="" />
    <EXPORT ORDINAL="124" NAME="?IsTrueColorMode@C_Helper@@QAEHXZ" PURGE="0" COMMENT="" />
    <EXPORT ORDINAL="125" NAME="?IsWin16Mode@C_Helper@@QAEHXZ" PURGE="0" COMMENT="" />
    <EXPORT ORDINAL="126" NAME="?ItemIDToItemList@C_Helper@@QAEPAU_ITEMIDLIST@@PAUIMalloc@@PAU2@@Z" PURGE="8" COMMENT="" />
    <EXPORT ORDINAL="127" NAME="?LoadBmpWell2@C_Helper@@QAEPAUHBITMAP__@@HQAUBMP_XFORM_COLORMAP@@H@Z" PURGE="12" COMMENT="" />
    <EXPORT ORDINAL="128" NAME="?LoadBmpWell@C_Helper@@QAEPAUHBITMAP__@@H@Z" PURGE="4" COMMENT="" />
    <EXPORT ORDINAL="129" NAME="?LogInBase@C_Helper@@QAENNN@Z" PURGE="16" COMMENT="" />
    <EXPORT ORDINAL="130" NAME="?LongWithCommas@C_Helper@@QAEXKAAVCString@@@Z" PURGE="8" COMMENT="" />
    <EXPORT ORDINAL="131" NAME="?MakeTmpFileName@C_Helper@@QAEPAXAAVCString@@@Z" PURGE="4" COMMENT="" />
    <EXPORT ORDINAL="132" NAME="?Next@C_Helper@@QAEPAU_ITEMIDLIST@@PBU2@@Z" PURGE="4" COMMENT="" />
    <EXPORT ORDINAL="133" NAME="?OffsetHSV@C_Helper@@QAEXPAEPAH@Z" PURGE="8" COMMENT="" />
    <EXPORT ORDINAL="134" NAME="?OffsetYUV@C_Helper@@QAEXPAEPAH@Z" PURGE="8" COMMENT="" />
    <EXPORT ORDINAL="135" NAME="?OnlyDir@C_Helper@@QAEXPAD@Z" PURGE="4" COMMENT="" />
    <EXPORT ORDINAL="136" NAME="?OnlyFNameAndExt@C_Helper@@QAEXPAD@Z" PURGE="4" COMMENT="" />
    <EXPORT ORDINAL="137" NAME="?Open@C_OleDiskStorage@@QAEHVCString@@H@Z" PURGE="8" COMMENT="" />
    <EXPORT ORDINAL="138" NAME="?OpenArchive@C_OleDiskStorage@@QAEPAVCArchive@@PAVCOleStreamFile@@H@Z" PURGE="8" COMMENT="" />
    <EXPORT ORDINAL="139" NAME="?OpenFileAndArchive@C_Helper@@QAEHHVCString@@AAVCFile@@PAPAVCArchive@@@Z" PURGE="16" COMMENT="" />
    <EXPORT ORDINAL="140" NAME="?OpenStream@C_OleDiskStorage@@QAEPAVCOleStreamFile@@VCString@@H@Z" PURGE="8" COMMENT="" />
    <EXPORT ORDINAL="141" NAME="?PaintButton@C_Helper@@QAEXPAVCWnd@@PAVCDC@@PAVCRect@@HHPBV4@3@Z" PURGE="28" COMMENT="" />
    <EXPORT ORDINAL="142" NAME="?RGBFromHSL@C_Helper@@QAEXGGGPAE00@Z" PURGE="24" COMMENT="" />
    <EXPORT ORDINAL="143" NAME="?RGBFromHSV@C_Helper@@QAEXHEEPAE00@Z" PURGE="24" COMMENT="" />
    <EXPORT ORDINAL="144" NAME="?RGBFromYUV@C_Helper@@QAEXEEEPAE00@Z" PURGE="24" COMMENT="" />
    <EXPORT ORDINAL="145" NAME="?Random0Max@C_Helper@@QAEHH@Z" PURGE="4" COMMENT="" />
    <EXPORT ORDINAL="146" NAME="?Random@C_Helper@@QAEHXZ" PURGE="0" COMMENT="" />
    <EXPORT ORDINAL="147" NAME="?Randomize@C_Helper@@QAEXXZ" PURGE="0" COMMENT="" />
    <EXPORT ORDINAL="148" NAME="?ReadConnectedLogical@C_Calc@@AAEXPAPADPADPAPAE@Z" PURGE="12" COMMENT="" />
    <EXPORT ORDINAL="149" NAME="?ReadExpr@C_Calc@@AAEXPAPADPADPAPAE@Z" PURGE="12" COMMENT="" />
    <EXPORT ORDINAL="150" NAME="?ReadExprSequence@C_Calc@@AAEXPAPADPADPAPAE@Z" PURGE="12" COMMENT="" />
    <EXPORT ORDINAL="151" NAME="?ReadFactor@C_Calc@@AAEXPAPADPADPAPAE@Z" PURGE="12" COMMENT="" />
    <EXPORT ORDINAL="152" NAME="?ReadInputValue@C_Calc@@AAENPAPAD@Z" PURGE="4" COMMENT="" />
    <EXPORT ORDINAL="153" NAME="?ReadLogical@C_Calc@@AAEXPAPADPADPAPAE@Z" PURGE="12" COMMENT="" />
    <EXPORT ORDINAL="154" NAME="?ReadPaletteFile@C_Helper@@QAEHPBDPAUtagRGBQUAD@@PAK@Z" PURGE="12" COMMENT="" />
    <EXPORT ORDINAL="155" NAME="?ReadPot@C_Calc@@AAEXPAPADPADPAPAE@Z" PURGE="12" COMMENT="" />
    <EXPORT ORDINAL="156" NAME="?ReadPrimary@C_Calc@@AAEXPAPADPADPAPAE@Z" PURGE="12" COMMENT="" />
    <EXPORT ORDINAL="157" NAME="?ReadTerm@C_Calc@@AAEXPAPADPADPAPAE@Z" PURGE="12" COMMENT="" />
    <EXPORT ORDINAL="158" NAME="?RecursRemoveDirectory@C_Helper@@QAEHPBD@Z" PURGE="4" COMMENT="" />
    <EXPORT ORDINAL="159" NAME="?RecycleFile@C_Helper@@QAEHPAVCWnd@@AAVCString@@@Z" PURGE="8" COMMENT="" />
    <EXPORT ORDINAL="160" NAME="?ReleaseMainWindowDC@C_Helper@@QAEXPAVCDC@@@Z" PURGE="4" COMMENT="" />
    <EXPORT ORDINAL="161" NAME="?ReleaseStorage@C_OleDiskStorage@@AAEXXZ" PURGE="0" COMMENT="" />
    <EXPORT ORDINAL="162" NAME="?ReleaseVars@C_Calc@@AAEXXZ" PURGE="0" COMMENT="" />
    <EXPORT ORDINAL="163" NAME="?RenameFile@C_Helper@@QAEHPAVCWnd@@AAVCString@@1@Z" PURGE="12" COMMENT="" />
    <EXPORT ORDINAL="164" NAME="?ResetError@C_Calc@@QAEXXZ" PURGE="0" COMMENT="" />
    <EXPORT ORDINAL="165" NAME="?ResetToNoVars@C_Calc@@QAEXXZ" PURGE="0" COMMENT="" />
    <EXPORT ORDINAL="166" NAME="?SetAllowDefineVars@C_Calc@@QAEXH@Z" PURGE="4" COMMENT="" />
    <EXPORT ORDINAL="167" NAME="?SetLastError@C_Calc@@AAEXH@Z" PURGE="4" COMMENT="" />
    <EXPORT ORDINAL="168" NAME="?SetVarVal@C_Calc@@QAEXHN@Z" PURGE="12" COMMENT="" />
    <EXPORT ORDINAL="169" NAME="?SetVarVal@C_Calc@@QAEXPBDN@Z" PURGE="12" COMMENT="" />
    <EXPORT ORDINAL="170" NAME="?SetupMouseHook@C_Helper@@QAEHPAVCWnd@@@Z" PURGE="4" COMMENT="" />
    <EXPORT ORDINAL="171" NAME="?ShowLastErrorMessage@C_Helper@@QAEXXZ" PURGE="0" COMMENT="" />
    <EXPORT ORDINAL="172" NAME="?SortRGBQs@C_Helper@@QAEHPAUtagRGBQUAD@@KPAUS_SortPalData@@PAKPAEPAUS_CalcSortError@@@Z" PURGE="24" COMMENT="" />
    <EXPORT ORDINAL="173" NAME="?StackVal@C_Calc@@QAEXN@Z" PURGE="8" COMMENT="" />
    <EXPORT ORDINAL="174" NAME="?StripWhites@C_Calc@@AAEXPAD@Z" PURGE="4" COMMENT="" />
    <EXPORT ORDINAL="175" NAME="?TrackPopupMenu@C_Helper@@QAEHIVCPoint@@PAVCWnd@@@Z" PURGE="16" COMMENT="" />
    <EXPORT ORDINAL="176" NAME="?UngetInputToken@C_Calc@@AAEXPAPADPAD@Z" PURGE="8" COMMENT="" />
    <EXPORT ORDINAL="177" NAME="?UpdateParamSensitivity@C_Helper@@QAEXPAUS_OneUserColorOper@@@Z" PURGE="4" COMMENT="" />
    <EXPORT ORDINAL="178" NAME="?UserChooseColor@C_Helper@@QAEHPAVCWnd@@AAKPAK@Z" PURGE="12" COMMENT="" />
    <EXPORT ORDINAL="179" NAME="?WarningMessage@C_Helper@@QAEXPBD@Z" PURGE="4" COMMENT="" />
    <EXPORT ORDINAL="180" NAME="?WritePaletteFile@C_Helper@@QAEHPBDPAUtagRGBQUAD@@K@Z" PURGE="12" COMMENT="" />
    <EXPORT ORDINAL="181" NAME="?YFromRGB@C_Helper@@QAEEEEE@Z" PURGE="12" COMMENT="" />
    <EXPORT ORDINAL="182" NAME="?YUVFromRGB@C_Helper@@QAEXEEEPAE00@Z" PURGE="24" COMMENT="" />
</LIBRARY>

