<?xml version="1.0" encoding="UTF-8"?>
<LIBRARY NAME="icuin22.dll" PATH="/DLLArchive/etc/icuin22.dll" DATE="Fri Jul 03 12:39:40 PDT 2020" VERSION="2, 2, 0, 0">
    <EXPORT ORDINAL="1" NAME="??0AnyTransliterator@icu_2_2@@AAE@ABVUnicodeString@1@00W4UScriptCode@@AAW4UErrorCode@@@Z" PURGE="20" COMMENT="" />
    <EXPORT ORDINAL="2" NAME="??0AnyTransliterator@icu_2_2@@QAE@ABV01@@Z" PURGE="4" COMMENT="" />
    <EXPORT ORDINAL="3" NAME="??0Calendar@icu_2_2@@IAE@AAW4UErrorCode@@@Z" PURGE="4" COMMENT="" />
    <EXPORT ORDINAL="4" NAME="??0Calendar@icu_2_2@@IAE@ABV01@@Z" PURGE="4" COMMENT="" />
    <EXPORT ORDINAL="5" NAME="??0Calendar@icu_2_2@@IAE@ABVTimeZone@1@ABVLocale@1@AAW4UErrorCode@@@Z" PURGE="12" COMMENT="" />
    <EXPORT ORDINAL="6" NAME="??0Calendar@icu_2_2@@IAE@PAVTimeZone@1@ABVLocale@1@AAW4UErrorCode@@@Z" PURGE="12" COMMENT="" />
    <EXPORT ORDINAL="7" NAME="??0CanonicalIterator@icu_2_2@@QAE@ABV01@@Z" PURGE="4" COMMENT="" />
    <EXPORT ORDINAL="8" NAME="??0CanonicalIterator@icu_2_2@@QAE@VUnicodeString@1@AAW4UErrorCode@@@Z" PURGE="36" COMMENT="" />
    <EXPORT ORDINAL="9" NAME="??0ChoiceFormat@icu_2_2@@AAE@ABVUnicodeString@1@AAU_UParseError@@AAW4UErrorCode@@@Z" PURGE="12" COMMENT="" />
    <EXPORT ORDINAL="10" NAME="??0ChoiceFormat@icu_2_2@@QAE@ABV01@@Z" PURGE="4" COMMENT="" />
    <EXPORT ORDINAL="11" NAME="??0ChoiceFormat@icu_2_2@@QAE@ABVUnicodeString@1@AAW4UErrorCode@@@Z" PURGE="8" COMMENT="" />
    <EXPORT ORDINAL="12" NAME="??0ChoiceFormat@icu_2_2@@QAE@PBNPBCPBVUnicodeString@1@J@Z" PURGE="16" COMMENT="" />
    <EXPORT ORDINAL="13" NAME="??0ChoiceFormat@icu_2_2@@QAE@PBNPBVUnicodeString@1@J@Z" PURGE="12" COMMENT="" />
    <EXPORT ORDINAL="14" NAME="??0CollationElementIterator@icu_2_2@@IAE@ABVCharacterIterator@1@PBVRuleBasedCollator@1@AAW4UErrorCode@@@Z" PURGE="12" COMMENT="" />
    <EXPORT ORDINAL="15" NAME="??0CollationElementIterator@icu_2_2@@IAE@ABVUnicodeString@1@PBVRuleBasedCollator@1@AAW4UErrorCode@@@Z" PURGE="12" COMMENT="" />
    <EXPORT ORDINAL="16" NAME="??0CollationElementIterator@icu_2_2@@QAE@ABV01@@Z" PURGE="4" COMMENT="" />
    <EXPORT ORDINAL="17" NAME="??0CollationKey@icu_2_2@@QAE@ABV01@@Z" PURGE="4" COMMENT="" />
    <EXPORT ORDINAL="18" NAME="??0CollationKey@icu_2_2@@QAE@PBEJ@Z" PURGE="8" COMMENT="" />
    <EXPORT ORDINAL="19" NAME="??0CollationKey@icu_2_2@@QAE@XZ" PURGE="0" COMMENT="" />
    <EXPORT ORDINAL="20" NAME="??0Collator@icu_2_2@@IAE@ABV01@@Z" PURGE="4" COMMENT="" />
    <EXPORT ORDINAL="21" NAME="??0Collator@icu_2_2@@IAE@W4UColAttributeValue@@W4UNormalizationMode@@@Z" PURGE="8" COMMENT="" />
    <EXPORT ORDINAL="22" NAME="??0Collator@icu_2_2@@IAE@XZ" PURGE="0" COMMENT="" />
    <EXPORT ORDINAL="23" NAME="??0CompoundTransliterator@icu_2_2@@AAE@AAVUVector@1@AAU_UParseError@@AAW4UErrorCode@@@Z" PURGE="12" COMMENT="" />
    <EXPORT ORDINAL="24" NAME="??0CompoundTransliterator@icu_2_2@@AAE@ABVUnicodeString@1@0JPAVTransliterator@1@AAW4UErrorCode@@@Z" PURGE="20" COMMENT="" />
    <EXPORT ORDINAL="25" NAME="??0CompoundTransliterator@icu_2_2@@QAE@ABV01@@Z" PURGE="4" COMMENT="" />
    <EXPORT ORDINAL="26" NAME="??0CompoundTransliterator@icu_2_2@@QAE@ABVUnicodeString@1@AAU_UParseError@@AAW4UErrorCode@@@Z" PURGE="12" COMMENT="" />
    <EXPORT ORDINAL="27" NAME="??0CompoundTransliterator@icu_2_2@@QAE@ABVUnicodeString@1@W4_UTransDirection@@PAVUnicodeFilter@1@AAU_UParseError@@AAW4UErrorCode@@@Z" PURGE="20" COMMENT="" />
    <EXPORT ORDINAL="28" NAME="??0CompoundTransliterator@icu_2_2@@QAE@QBQAVTransliterator@1@JPAVUnicodeFilter@1@@Z" PURGE="12" COMMENT="" />
    <EXPORT ORDINAL="29" NAME="??0DateFormat@icu_2_2@@IAE@ABV01@@Z" PURGE="4" COMMENT="" />
    <EXPORT ORDINAL="30" NAME="??0DateFormat@icu_2_2@@IAE@XZ" PURGE="0" COMMENT="" />
    <EXPORT ORDINAL="31" NAME="??0DateFormatSymbols@icu_2_2@@QAE@AAW4UErrorCode@@@Z" PURGE="4" COMMENT="" />
    <EXPORT ORDINAL="32" NAME="??0DateFormatSymbols@icu_2_2@@QAE@ABV01@@Z" PURGE="4" COMMENT="" />
    <EXPORT ORDINAL="33" NAME="??0DateFormatSymbols@icu_2_2@@QAE@ABVLocale@1@AAW4UErrorCode@@@Z" PURGE="8" COMMENT="" />
    <EXPORT ORDINAL="34" NAME="??0DecimalFormat@icu_2_2@@QAE@AAW4UErrorCode@@@Z" PURGE="4" COMMENT="" />
    <EXPORT ORDINAL="35" NAME="??0DecimalFormat@icu_2_2@@QAE@ABV01@@Z" PURGE="4" COMMENT="" />
    <EXPORT ORDINAL="36" NAME="??0DecimalFormat@icu_2_2@@QAE@ABVUnicodeString@1@AAW4UErrorCode@@@Z" PURGE="8" COMMENT="" />
    <EXPORT ORDINAL="37" NAME="??0DecimalFormat@icu_2_2@@QAE@ABVUnicodeString@1@ABVDecimalFormatSymbols@1@AAW4UErrorCode@@@Z" PURGE="12" COMMENT="" />
    <EXPORT ORDINAL="38" NAME="??0DecimalFormat@icu_2_2@@QAE@ABVUnicodeString@1@PAVDecimalFormatSymbols@1@AAU_UParseError@@AAW4UErrorCode@@@Z" PURGE="16" COMMENT="" />
    <EXPORT ORDINAL="39" NAME="??0DecimalFormat@icu_2_2@@QAE@ABVUnicodeString@1@PAVDecimalFormatSymbols@1@AAW4UErrorCode@@@Z" PURGE="12" COMMENT="" />
    <EXPORT ORDINAL="40" NAME="??0DecimalFormatSymbols@icu_2_2@@QAE@AAW4UErrorCode@@@Z" PURGE="4" COMMENT="" />
    <EXPORT ORDINAL="41" NAME="??0DecimalFormatSymbols@icu_2_2@@QAE@ABV01@@Z" PURGE="4" COMMENT="" />
    <EXPORT ORDINAL="42" NAME="??0DecimalFormatSymbols@icu_2_2@@QAE@ABVLocale@1@AAW4UErrorCode@@@Z" PURGE="8" COMMENT="" />
    <EXPORT ORDINAL="43" NAME="??0EscapeTransliterator@icu_2_2@@QAE@ABV01@@Z" PURGE="4" COMMENT="" />
    <EXPORT ORDINAL="44" NAME="??0EscapeTransliterator@icu_2_2@@QAE@ABVUnicodeString@1@00JJCPAV01@@Z" PURGE="28" COMMENT="" />
    <EXPORT ORDINAL="45" NAME="??0FieldPosition@icu_2_2@@QAE@ABV01@@Z" PURGE="4" COMMENT="" />
    <EXPORT ORDINAL="46" NAME="??0FieldPosition@icu_2_2@@QAE@J@Z" PURGE="4" COMMENT="" />
    <EXPORT ORDINAL="47" NAME="??0FieldPosition@icu_2_2@@QAE@XZ" PURGE="0" COMMENT="" />
    <EXPORT ORDINAL="48" NAME="??0Format@icu_2_2@@IAE@ABV01@@Z" PURGE="4" COMMENT="" />
    <EXPORT ORDINAL="49" NAME="??0Format@icu_2_2@@IAE@XZ" PURGE="0" COMMENT="" />
    <EXPORT ORDINAL="50" NAME="??0Formattable@icu_2_2@@QAE@ABV01@@Z" PURGE="4" COMMENT="" />
    <EXPORT ORDINAL="51" NAME="??0Formattable@icu_2_2@@QAE@ABVUnicodeString@1@@Z" PURGE="4" COMMENT="" />
    <EXPORT ORDINAL="52" NAME="??0Formattable@icu_2_2@@QAE@J@Z" PURGE="4" COMMENT="" />
    <EXPORT ORDINAL="53" NAME="??0Formattable@icu_2_2@@QAE@N@Z" PURGE="8" COMMENT="" />
    <EXPORT ORDINAL="54" NAME="??0Formattable@icu_2_2@@QAE@NW4ISDATE@01@@Z" PURGE="12" COMMENT="" />
    <EXPORT ORDINAL="55" NAME="??0Formattable@icu_2_2@@QAE@PAVUnicodeString@1@@Z" PURGE="4" COMMENT="" />
    <EXPORT ORDINAL="56" NAME="??0Formattable@icu_2_2@@QAE@PBD@Z" PURGE="4" COMMENT="" />
    <EXPORT ORDINAL="57" NAME="??0Formattable@icu_2_2@@QAE@PBV01@J@Z" PURGE="8" COMMENT="" />
    <EXPORT ORDINAL="58" NAME="??0Formattable@icu_2_2@@QAE@XZ" PURGE="0" COMMENT="" />
    <EXPORT ORDINAL="59" NAME="??0GregorianCalendar@icu_2_2@@QAE@AAW4UErrorCode@@@Z" PURGE="4" COMMENT="" />
    <EXPORT ORDINAL="60" NAME="??0GregorianCalendar@icu_2_2@@QAE@ABV01@@Z" PURGE="4" COMMENT="" />
    <EXPORT ORDINAL="61" NAME="??0GregorianCalendar@icu_2_2@@QAE@ABVLocale@1@AAW4UErrorCode@@@Z" PURGE="8" COMMENT="" />
    <EXPORT ORDINAL="62" NAME="??0GregorianCalendar@icu_2_2@@QAE@ABVTimeZone@1@AAW4UErrorCode@@@Z" PURGE="8" COMMENT="" />
    <EXPORT ORDINAL="63" NAME="??0GregorianCalendar@icu_2_2@@QAE@ABVTimeZone@1@ABVLocale@1@AAW4UErrorCode@@@Z" PURGE="12" COMMENT="" />
    <EXPORT ORDINAL="64" NAME="??0GregorianCalendar@icu_2_2@@QAE@JJJAAW4UErrorCode@@@Z" PURGE="16" COMMENT="" />
    <EXPORT ORDINAL="65" NAME="??0GregorianCalendar@icu_2_2@@QAE@JJJJJAAW4UErrorCode@@@Z" PURGE="24" COMMENT="" />
    <EXPORT ORDINAL="66" NAME="??0GregorianCalendar@icu_2_2@@QAE@JJJJJJAAW4UErrorCode@@@Z" PURGE="28" COMMENT="" />
    <EXPORT ORDINAL="67" NAME="??0GregorianCalendar@icu_2_2@@QAE@PAVTimeZone@1@AAW4UErrorCode@@@Z" PURGE="8" COMMENT="" />
    <EXPORT ORDINAL="68" NAME="??0GregorianCalendar@icu_2_2@@QAE@PAVTimeZone@1@ABVLocale@1@AAW4UErrorCode@@@Z" PURGE="12" COMMENT="" />
    <EXPORT ORDINAL="69" NAME="??0HexToUnicodeTransliterator@icu_2_2@@QAE@ABV01@@Z" PURGE="4" COMMENT="" />
    <EXPORT ORDINAL="70" NAME="??0HexToUnicodeTransliterator@icu_2_2@@QAE@ABVUnicodeString@1@AAW4UErrorCode@@@Z" PURGE="8" COMMENT="" />
    <EXPORT ORDINAL="71" NAME="??0HexToUnicodeTransliterator@icu_2_2@@QAE@ABVUnicodeString@1@PAVUnicodeFilter@1@AAW4UErrorCode@@@Z" PURGE="12" COMMENT="" />
    <EXPORT ORDINAL="72" NAME="??0HexToUnicodeTransliterator@icu_2_2@@QAE@PAVUnicodeFilter@1@@Z" PURGE="4" COMMENT="" />
    <EXPORT ORDINAL="73" NAME="??0LowercaseTransliterator@icu_2_2@@QAE@ABV01@@Z" PURGE="4" COMMENT="" />
    <EXPORT ORDINAL="74" NAME="??0LowercaseTransliterator@icu_2_2@@QAE@ABVLocale@1@@Z" PURGE="4" COMMENT="" />
    <EXPORT ORDINAL="75" NAME="??0MessageFormat@icu_2_2@@QAE@ABV01@@Z" PURGE="4" COMMENT="" />
    <EXPORT ORDINAL="76" NAME="??0MessageFormat@icu_2_2@@QAE@ABVUnicodeString@1@AAW4UErrorCode@@@Z" PURGE="8" COMMENT="" />
    <EXPORT ORDINAL="77" NAME="??0MessageFormat@icu_2_2@@QAE@ABVUnicodeString@1@ABVLocale@1@AAU_UParseError@@AAW4UErrorCode@@@Z" PURGE="16" COMMENT="" />
    <EXPORT ORDINAL="78" NAME="??0MessageFormat@icu_2_2@@QAE@ABVUnicodeString@1@ABVLocale@1@AAW4UErrorCode@@@Z" PURGE="12" COMMENT="" />
    <EXPORT ORDINAL="79" NAME="??0NameUnicodeTransliterator@icu_2_2@@QAE@ABV01@@Z" PURGE="4" COMMENT="" />
    <EXPORT ORDINAL="80" NAME="??0NameUnicodeTransliterator@icu_2_2@@QAE@KKPAVUnicodeFilter@1@@Z" PURGE="12" COMMENT="" />
    <EXPORT ORDINAL="81" NAME="??0NameUnicodeTransliterator@icu_2_2@@QAE@PAVUnicodeFilter@1@@Z" PURGE="4" COMMENT="" />
    <EXPORT ORDINAL="82" NAME="??0NormalizationTransliterator@icu_2_2@@AAE@ABVUnicodeString@1@W4UNormalizationMode@@J@Z" PURGE="12" COMMENT="" />
    <EXPORT ORDINAL="83" NAME="??0NormalizationTransliterator@icu_2_2@@QAE@ABV01@@Z" PURGE="4" COMMENT="" />
    <EXPORT ORDINAL="84" NAME="??0NullTransliterator@icu_2_2@@QAE@ABV01@@Z" PURGE="4" COMMENT="" />
    <EXPORT ORDINAL="85" NAME="??0NullTransliterator@icu_2_2@@QAE@XZ" PURGE="0" COMMENT="" />
    <EXPORT ORDINAL="86" NAME="??0NumberFormat@icu_2_2@@IAE@ABV01@@Z" PURGE="4" COMMENT="" />
    <EXPORT ORDINAL="87" NAME="??0NumberFormat@icu_2_2@@IAE@XZ" PURGE="0" COMMENT="" />
    <EXPORT ORDINAL="88" NAME="??0RemoveTransliterator@icu_2_2@@QAE@ABV01@@Z" PURGE="4" COMMENT="" />
    <EXPORT ORDINAL="89" NAME="??0RemoveTransliterator@icu_2_2@@QAE@XZ" PURGE="0" COMMENT="" />
    <EXPORT ORDINAL="90" NAME="??0RuleBasedCollator@icu_2_2@@AAE@ABVLocale@1@AAW4UErrorCode@@@Z" PURGE="8" COMMENT="" />
    <EXPORT ORDINAL="91" NAME="??0RuleBasedCollator@icu_2_2@@AAE@PAUUCollator@@PAVUnicodeString@1@@Z" PURGE="8" COMMENT="" />
    <EXPORT ORDINAL="92" NAME="??0RuleBasedCollator@icu_2_2@@AAE@XZ" PURGE="0" COMMENT="" />
    <EXPORT ORDINAL="93" NAME="??0RuleBasedCollator@icu_2_2@@QAE@ABV01@@Z" PURGE="4" COMMENT="" />
    <EXPORT ORDINAL="94" NAME="??0RuleBasedCollator@icu_2_2@@QAE@ABVUnicodeString@1@AAW4UErrorCode@@@Z" PURGE="8" COMMENT="" />
    <EXPORT ORDINAL="95" NAME="??0RuleBasedCollator@icu_2_2@@QAE@ABVUnicodeString@1@W4ECollationStrength@Collator@1@AAW4UErrorCode@@@Z" PURGE="12" COMMENT="" />
    <EXPORT ORDINAL="96" NAME="??0RuleBasedCollator@icu_2_2@@QAE@ABVUnicodeString@1@W4ECollationStrength@Collator@1@W4EMode@Normalizer@1@AAW4UErrorCode@@@Z" PURGE="16" COMMENT="" />
    <EXPORT ORDINAL="97" NAME="??0RuleBasedCollator@icu_2_2@@QAE@ABVUnicodeString@1@W4ECollationStrength@Collator@1@W4UColAttributeValue@@AAW4UErrorCode@@@Z" PURGE="16" COMMENT="" />
    <EXPORT ORDINAL="98" NAME="??0RuleBasedCollator@icu_2_2@@QAE@ABVUnicodeString@1@W4EMode@Normalizer@1@AAW4UErrorCode@@@Z" PURGE="12" COMMENT="" />
    <EXPORT ORDINAL="99" NAME="??0RuleBasedCollator@icu_2_2@@QAE@ABVUnicodeString@1@W4UColAttributeValue@@AAW4UErrorCode@@@Z" PURGE="12" COMMENT="" />
    <EXPORT ORDINAL="100" NAME="??0RuleBasedNumberFormat@icu_2_2@@QAE@ABV01@@Z" PURGE="4" COMMENT="" />
    <EXPORT ORDINAL="101" NAME="??0RuleBasedNumberFormat@icu_2_2@@QAE@ABVUnicodeString@1@ABVLocale@1@AAU_UParseError@@AAW4UErrorCode@@@Z" PURGE="16" COMMENT="" />
    <EXPORT ORDINAL="102" NAME="??0RuleBasedNumberFormat@icu_2_2@@QAE@W4URBNFRuleSetTag@1@ABVLocale@1@AAW4UErrorCode@@@Z" PURGE="12" COMMENT="" />
    <EXPORT ORDINAL="103" NAME="??0RuleBasedTransliterator@icu_2_2@@AAE@ABVUnicodeString@1@PAVTransliterationRuleData@1@C@Z" PURGE="12" COMMENT="" />
    <EXPORT ORDINAL="104" NAME="??0RuleBasedTransliterator@icu_2_2@@AAE@ABVUnicodeString@1@PBVTransliterationRuleData@1@PAVUnicodeFilter@1@@Z" PURGE="12" COMMENT="" />
    <EXPORT ORDINAL="105" NAME="??0RuleBasedTransliterator@icu_2_2@@QAE@ABV01@@Z" PURGE="4" COMMENT="" />
    <EXPORT ORDINAL="106" NAME="??0RuleBasedTransliterator@icu_2_2@@QAE@ABVUnicodeString@1@0AAW4UErrorCode@@@Z" PURGE="12" COMMENT="" />
    <EXPORT ORDINAL="107" NAME="??0RuleBasedTransliterator@icu_2_2@@QAE@ABVUnicodeString@1@0PAVUnicodeFilter@1@AAW4UErrorCode@@@Z" PURGE="16" COMMENT="" />
    <EXPORT ORDINAL="108" NAME="??0RuleBasedTransliterator@icu_2_2@@QAE@ABVUnicodeString@1@0W4_UTransDirection@@AAW4UErrorCode@@@Z" PURGE="16" COMMENT="" />
    <EXPORT ORDINAL="109" NAME="??0RuleBasedTransliterator@icu_2_2@@QAE@ABVUnicodeString@1@0W4_UTransDirection@@PAVUnicodeFilter@1@AAU_UParseError@@AAW4UErrorCode@@@Z" PURGE="24" COMMENT="" />
    <EXPORT ORDINAL="110" NAME="??0RuleBasedTransliterator@icu_2_2@@QAE@ABVUnicodeString@1@0W4_UTransDirection@@PAVUnicodeFilter@1@AAW4UErrorCode@@@Z" PURGE="20" COMMENT="" />
    <EXPORT ORDINAL="111" NAME="??0SearchIterator@icu_2_2@@IAE@AAVCharacterIterator@1@PAVBreakIterator@1@@Z" PURGE="8" COMMENT="" />
    <EXPORT ORDINAL="112" NAME="??0SearchIterator@icu_2_2@@IAE@ABVUnicodeString@1@PAVBreakIterator@1@@Z" PURGE="8" COMMENT="" />
    <EXPORT ORDINAL="113" NAME="??0SearchIterator@icu_2_2@@IAE@XZ" PURGE="0" COMMENT="" />
    <EXPORT ORDINAL="114" NAME="??0SearchIterator@icu_2_2@@QAE@ABV01@@Z" PURGE="4" COMMENT="" />
    <EXPORT ORDINAL="115" NAME="??0SimpleDateFormat@icu_2_2@@AAE@ABVLocale@1@AAW4UErrorCode@@@Z" PURGE="8" COMMENT="" />
    <EXPORT ORDINAL="116" NAME="??0SimpleDateFormat@icu_2_2@@AAE@W4EStyle@DateFormat@1@0ABVLocale@1@AAW4UErrorCode@@@Z" PURGE="16" COMMENT="" />
    <EXPORT ORDINAL="117" NAME="??0SimpleDateFormat@icu_2_2@@QAE@AAW4UErrorCode@@@Z" PURGE="4" COMMENT="" />
    <EXPORT ORDINAL="118" NAME="??0SimpleDateFormat@icu_2_2@@QAE@ABV01@@Z" PURGE="4" COMMENT="" />
    <EXPORT ORDINAL="119" NAME="??0SimpleDateFormat@icu_2_2@@QAE@ABVUnicodeString@1@AAW4UErrorCode@@@Z" PURGE="8" COMMENT="" />
    <EXPORT ORDINAL="120" NAME="??0SimpleDateFormat@icu_2_2@@QAE@ABVUnicodeString@1@ABVDateFormatSymbols@1@AAW4UErrorCode@@@Z" PURGE="12" COMMENT="" />
    <EXPORT ORDINAL="121" NAME="??0SimpleDateFormat@icu_2_2@@QAE@ABVUnicodeString@1@ABVLocale@1@AAW4UErrorCode@@@Z" PURGE="12" COMMENT="" />
    <EXPORT ORDINAL="122" NAME="??0SimpleDateFormat@icu_2_2@@QAE@ABVUnicodeString@1@PAVDateFormatSymbols@1@AAW4UErrorCode@@@Z" PURGE="12" COMMENT="" />
    <EXPORT ORDINAL="123" NAME="??0SimpleTimeZone@icu_2_2@@AAE@ABUDSTZone@@ABVUnicodeString@1@@Z" PURGE="8" COMMENT="" />
    <EXPORT ORDINAL="124" NAME="??0SimpleTimeZone@icu_2_2@@AAE@ABUStandardZone@@ABVUnicodeString@1@@Z" PURGE="8" COMMENT="" />
    <EXPORT ORDINAL="125" NAME="??0SimpleTimeZone@icu_2_2@@QAE@ABV01@@Z" PURGE="4" COMMENT="" />
    <EXPORT ORDINAL="126" NAME="??0SimpleTimeZone@icu_2_2@@QAE@JABVUnicodeString@1@@Z" PURGE="8" COMMENT="" />
    <EXPORT ORDINAL="127" NAME="??0SimpleTimeZone@icu_2_2@@QAE@JABVUnicodeString@1@CCCJCCCJAAW4UErrorCode@@@Z" PURGE="44" COMMENT="" />
    <EXPORT ORDINAL="128" NAME="??0SimpleTimeZone@icu_2_2@@QAE@JABVUnicodeString@1@CCCJCCCJJAAW4UErrorCode@@@Z" PURGE="48" COMMENT="" />
    <EXPORT ORDINAL="129" NAME="??0SimpleTimeZone@icu_2_2@@QAE@JABVUnicodeString@1@CCCJW4TimeMode@01@CCCJ1JAAW4UErrorCode@@@Z" PURGE="56" COMMENT="" />
    <EXPORT ORDINAL="130" NAME="??0StringSearch@icu_2_2@@QAE@ABV01@@Z" PURGE="4" COMMENT="" />
    <EXPORT ORDINAL="131" NAME="??0StringSearch@icu_2_2@@QAE@ABVUnicodeString@1@0ABVLocale@1@PAVBreakIterator@1@AAW4UErrorCode@@@Z" PURGE="20" COMMENT="" />
    <EXPORT ORDINAL="132" NAME="??0StringSearch@icu_2_2@@QAE@ABVUnicodeString@1@0PAVRuleBasedCollator@1@PAVBreakIterator@1@AAW4UErrorCode@@@Z" PURGE="20" COMMENT="" />
    <EXPORT ORDINAL="133" NAME="??0StringSearch@icu_2_2@@QAE@ABVUnicodeString@1@AAVCharacterIterator@1@ABVLocale@1@PAVBreakIterator@1@AAW4UErrorCode@@@Z" PURGE="20" COMMENT="" />
    <EXPORT ORDINAL="134" NAME="??0StringSearch@icu_2_2@@QAE@ABVUnicodeString@1@AAVCharacterIterator@1@PAVRuleBasedCollator@1@PAVBreakIterator@1@AAW4UErrorCode@@@Z" PURGE="20" COMMENT="" />
    <EXPORT ORDINAL="135" NAME="??0TimeZone@icu_2_2@@IAE@ABV01@@Z" PURGE="4" COMMENT="" />
    <EXPORT ORDINAL="136" NAME="??0TimeZone@icu_2_2@@IAE@ABVUnicodeString@1@@Z" PURGE="4" COMMENT="" />
    <EXPORT ORDINAL="137" NAME="??0TimeZone@icu_2_2@@IAE@XZ" PURGE="0" COMMENT="" />
    <EXPORT ORDINAL="138" NAME="??0TitlecaseTransliterator@icu_2_2@@QAE@ABV01@@Z" PURGE="4" COMMENT="" />
    <EXPORT ORDINAL="139" NAME="??0TitlecaseTransliterator@icu_2_2@@QAE@ABVLocale@1@@Z" PURGE="4" COMMENT="" />
    <EXPORT ORDINAL="140" NAME="??0TransliterationRuleData@icu_2_2@@QAE@AAW4UErrorCode@@@Z" PURGE="4" COMMENT="" />
    <EXPORT ORDINAL="141" NAME="??0TransliterationRuleData@icu_2_2@@QAE@ABV01@@Z" PURGE="4" COMMENT="" />
    <EXPORT ORDINAL="142" NAME="??0TransliterationRuleSet@icu_2_2@@QAE@AAW4UErrorCode@@@Z" PURGE="4" COMMENT="" />
    <EXPORT ORDINAL="143" NAME="??0TransliterationRuleSet@icu_2_2@@QAE@ABV01@@Z" PURGE="4" COMMENT="" />
    <EXPORT ORDINAL="144" NAME="??0Transliterator@icu_2_2@@IAE@ABV01@@Z" PURGE="4" COMMENT="" />
    <EXPORT ORDINAL="145" NAME="??0Transliterator@icu_2_2@@IAE@ABVUnicodeString@1@PAVUnicodeFilter@1@@Z" PURGE="8" COMMENT="" />
    <EXPORT ORDINAL="146" NAME="??0UnescapeTransliterator@icu_2_2@@QAE@ABV01@@Z" PURGE="4" COMMENT="" />
    <EXPORT ORDINAL="147" NAME="??0UnescapeTransliterator@icu_2_2@@QAE@ABVUnicodeString@1@PBG@Z" PURGE="8" COMMENT="" />
    <EXPORT ORDINAL="148" NAME="??0UnicodeFilterLogic@icu_2_2@@AAE@XZ" PURGE="0" COMMENT="" />
    <EXPORT ORDINAL="149" NAME="??0UnicodeNameTransliterator@icu_2_2@@QAE@ABV01@@Z" PURGE="4" COMMENT="" />
    <EXPORT ORDINAL="150" NAME="??0UnicodeNameTransliterator@icu_2_2@@QAE@KKPAVUnicodeFilter@1@@Z" PURGE="12" COMMENT="" />
    <EXPORT ORDINAL="151" NAME="??0UnicodeNameTransliterator@icu_2_2@@QAE@PAVUnicodeFilter@1@@Z" PURGE="4" COMMENT="" />
    <EXPORT ORDINAL="152" NAME="??0UnicodeReplacer@icu_2_2@@QAE@ABV01@@Z" PURGE="4" COMMENT="" />
    <EXPORT ORDINAL="153" NAME="??0UnicodeReplacer@icu_2_2@@QAE@XZ" PURGE="0" COMMENT="" />
    <EXPORT ORDINAL="154" NAME="??0UnicodeToHexTransliterator@icu_2_2@@QAE@ABV01@@Z" PURGE="4" COMMENT="" />
    <EXPORT ORDINAL="155" NAME="??0UnicodeToHexTransliterator@icu_2_2@@QAE@ABVUnicodeString@1@AAW4UErrorCode@@@Z" PURGE="8" COMMENT="" />
    <EXPORT ORDINAL="156" NAME="??0UnicodeToHexTransliterator@icu_2_2@@QAE@ABVUnicodeString@1@CPAVUnicodeFilter@1@AAW4UErrorCode@@@Z" PURGE="16" COMMENT="" />
    <EXPORT ORDINAL="157" NAME="??0UnicodeToHexTransliterator@icu_2_2@@QAE@PAVUnicodeFilter@1@@Z" PURGE="4" COMMENT="" />
    <EXPORT ORDINAL="158" NAME="??0UppercaseTransliterator@icu_2_2@@QAE@ABV01@@Z" PURGE="4" COMMENT="" />
    <EXPORT ORDINAL="159" NAME="??0UppercaseTransliterator@icu_2_2@@QAE@ABVLocale@1@@Z" PURGE="4" COMMENT="" />
    <EXPORT ORDINAL="160" NAME="??1AnyTransliterator@icu_2_2@@UAE@XZ" PURGE="0" COMMENT="" />
    <EXPORT ORDINAL="161" NAME="??1Calendar@icu_2_2@@UAE@XZ" PURGE="0" COMMENT="" />
    <EXPORT ORDINAL="162" NAME="??1CanonicalIterator@icu_2_2@@UAE@XZ" PURGE="0" COMMENT="" />
    <EXPORT ORDINAL="163" NAME="??1ChoiceFormat@icu_2_2@@UAE@XZ" PURGE="0" COMMENT="" />
    <EXPORT ORDINAL="164" NAME="??1CollationElementIterator@icu_2_2@@UAE@XZ" PURGE="0" COMMENT="" />
    <EXPORT ORDINAL="165" NAME="??1CollationKey@icu_2_2@@UAE@XZ" PURGE="0" COMMENT="" />
    <EXPORT ORDINAL="166" NAME="??1Collator@icu_2_2@@UAE@XZ" PURGE="0" COMMENT="" />
    <EXPORT ORDINAL="167" NAME="??1CompoundTransliterator@icu_2_2@@UAE@XZ" PURGE="0" COMMENT="" />
    <EXPORT ORDINAL="168" NAME="??1DateFormat@icu_2_2@@UAE@XZ" PURGE="0" COMMENT="" />
    <EXPORT ORDINAL="169" NAME="??1DateFormatSymbols@icu_2_2@@UAE@XZ" PURGE="0" COMMENT="" />
    <EXPORT ORDINAL="170" NAME="??1DecimalFormat@icu_2_2@@UAE@XZ" PURGE="0" COMMENT="" />
    <EXPORT ORDINAL="171" NAME="??1DecimalFormatSymbols@icu_2_2@@UAE@XZ" PURGE="0" COMMENT="" />
    <EXPORT ORDINAL="172" NAME="??1EscapeTransliterator@icu_2_2@@UAE@XZ" PURGE="0" COMMENT="" />
    <EXPORT ORDINAL="173" NAME="??1FieldPosition@icu_2_2@@UAE@XZ" PURGE="0" COMMENT="" />
    <EXPORT ORDINAL="174" NAME="??1Format@icu_2_2@@UAE@XZ" PURGE="0" COMMENT="" />
    <EXPORT ORDINAL="175" NAME="??1Formattable@icu_2_2@@UAE@XZ" PURGE="0" COMMENT="" />
    <EXPORT ORDINAL="176" NAME="??1GregorianCalendar@icu_2_2@@UAE@XZ" PURGE="0" COMMENT="" />
    <EXPORT ORDINAL="177" NAME="??1HexToUnicodeTransliterator@icu_2_2@@UAE@XZ" PURGE="0" COMMENT="" />
    <EXPORT ORDINAL="178" NAME="??1LowercaseTransliterator@icu_2_2@@UAE@XZ" PURGE="0" COMMENT="" />
    <EXPORT ORDINAL="179" NAME="??1MessageFormat@icu_2_2@@UAE@XZ" PURGE="0" COMMENT="" />
    <EXPORT ORDINAL="180" NAME="??1NameUnicodeTransliterator@icu_2_2@@UAE@XZ" PURGE="0" COMMENT="" />
    <EXPORT ORDINAL="181" NAME="??1NormalizationTransliterator@icu_2_2@@UAE@XZ" PURGE="0" COMMENT="" />
    <EXPORT ORDINAL="182" NAME="??1NullTransliterator@icu_2_2@@UAE@XZ" PURGE="0" COMMENT="" />
    <EXPORT ORDINAL="183" NAME="??1NumberFormat@icu_2_2@@UAE@XZ" PURGE="0" COMMENT="" />
    <EXPORT ORDINAL="184" NAME="??1RemoveTransliterator@icu_2_2@@UAE@XZ" PURGE="0" COMMENT="" />
    <EXPORT ORDINAL="185" NAME="??1RuleBasedCollator@icu_2_2@@UAE@XZ" PURGE="0" COMMENT="" />
    <EXPORT ORDINAL="186" NAME="??1RuleBasedNumberFormat@icu_2_2@@UAE@XZ" PURGE="0" COMMENT="" />
    <EXPORT ORDINAL="187" NAME="??1RuleBasedTransliterator@icu_2_2@@UAE@XZ" PURGE="0" COMMENT="" />
    <EXPORT ORDINAL="188" NAME="??1SearchIterator@icu_2_2@@UAE@XZ" PURGE="0" COMMENT="" />
    <EXPORT ORDINAL="189" NAME="??1SimpleDateFormat@icu_2_2@@UAE@XZ" PURGE="0" COMMENT="" />
    <EXPORT ORDINAL="190" NAME="??1SimpleTimeZone@icu_2_2@@UAE@XZ" PURGE="0" COMMENT="" />
    <EXPORT ORDINAL="191" NAME="??1StringSearch@icu_2_2@@UAE@XZ" PURGE="0" COMMENT="" />
    <EXPORT ORDINAL="192" NAME="??1TimeZone@icu_2_2@@UAE@XZ" PURGE="0" COMMENT="" />
    <EXPORT ORDINAL="193" NAME="??1TitlecaseTransliterator@icu_2_2@@UAE@XZ" PURGE="0" COMMENT="" />
    <EXPORT ORDINAL="194" NAME="??1TransliterationRuleData@icu_2_2@@UAE@XZ" PURGE="0" COMMENT="" />
    <EXPORT ORDINAL="195" NAME="??1TransliterationRuleSet@icu_2_2@@UAE@XZ" PURGE="0" COMMENT="" />
    <EXPORT ORDINAL="196" NAME="??1Transliterator@icu_2_2@@UAE@XZ" PURGE="0" COMMENT="" />
    <EXPORT ORDINAL="197" NAME="??1UnescapeTransliterator@icu_2_2@@UAE@XZ" PURGE="0" COMMENT="" />
    <EXPORT ORDINAL="198" NAME="??1UnicodeNameTransliterator@icu_2_2@@UAE@XZ" PURGE="0" COMMENT="" />
    <EXPORT ORDINAL="199" NAME="??1UnicodeToHexTransliterator@icu_2_2@@UAE@XZ" PURGE="0" COMMENT="" />
    <EXPORT ORDINAL="200" NAME="??1UppercaseTransliterator@icu_2_2@@UAE@XZ" PURGE="0" COMMENT="" />
    <EXPORT ORDINAL="201" NAME="??4AnyTransliterator@icu_2_2@@QAEAAV01@ABV01@@Z" PURGE="4" COMMENT="" />
    <EXPORT ORDINAL="202" NAME="??4Calendar@icu_2_2@@IAEAAV01@ABV01@@Z" PURGE="4" COMMENT="" />
    <EXPORT ORDINAL="203" NAME="??4CanonicalIterator@icu_2_2@@QAEAAV01@ABV01@@Z" PURGE="4" COMMENT="" />
    <EXPORT ORDINAL="204" NAME="??4ChoiceFormat@icu_2_2@@QAEABV01@ABV01@@Z" PURGE="4" COMMENT="" />
    <EXPORT ORDINAL="205" NAME="??4CollationElementIterator@icu_2_2@@IAEABV01@ABV01@@Z" PURGE="4" COMMENT="" />
    <EXPORT ORDINAL="206" NAME="??4CollationKey@icu_2_2@@QAEABV01@ABV01@@Z" PURGE="4" COMMENT="" />
    <EXPORT ORDINAL="207" NAME="??4Collator@icu_2_2@@QAEAAV01@ABV01@@Z" PURGE="4" COMMENT="" />
    <EXPORT ORDINAL="208" NAME="??4CompoundTransliterator@icu_2_2@@QAEAAV01@ABV01@@Z" PURGE="4" COMMENT="" />
    <EXPORT ORDINAL="209" NAME="??4DateFormat@icu_2_2@@IAEAAV01@ABV01@@Z" PURGE="4" COMMENT="" />
    <EXPORT ORDINAL="210" NAME="??4DateFormatSymbols@icu_2_2@@QAEAAV01@ABV01@@Z" PURGE="4" COMMENT="" />
    <EXPORT ORDINAL="211" NAME="??4DecimalFormat@icu_2_2@@QAEAAV01@ABV01@@Z" PURGE="4" COMMENT="" />
    <EXPORT ORDINAL="212" NAME="??4DecimalFormatSymbols@icu_2_2@@QAEAAV01@ABV01@@Z" PURGE="4" COMMENT="" />
    <EXPORT ORDINAL="213" NAME="??4EscapeTransliterator@icu_2_2@@QAEAAV01@ABV01@@Z" PURGE="4" COMMENT="" />
    <EXPORT ORDINAL="214" NAME="??4FieldPosition@icu_2_2@@QAEAAV01@ABV01@@Z" PURGE="4" COMMENT="" />
    <EXPORT ORDINAL="215" NAME="??4Format@icu_2_2@@IAEAAV01@ABV01@@Z" PURGE="4" COMMENT="" />
    <EXPORT ORDINAL="216" NAME="??4Formattable@icu_2_2@@QAEAAV01@ABV01@@Z" PURGE="4" COMMENT="" />
    <EXPORT ORDINAL="217" NAME="??4GregorianCalendar@icu_2_2@@QAEAAV01@ABV01@@Z" PURGE="4" COMMENT="" />
    <EXPORT ORDINAL="218" NAME="??4HexToUnicodeTransliterator@icu_2_2@@QAEAAV01@ABV01@@Z" PURGE="4" COMMENT="" />
    <EXPORT ORDINAL="219" NAME="??4LowercaseTransliterator@icu_2_2@@QAEAAV01@ABV01@@Z" PURGE="4" COMMENT="" />
    <EXPORT ORDINAL="220" NAME="??4MessageFormat@icu_2_2@@QAEABV01@ABV01@@Z" PURGE="4" COMMENT="" />
    <EXPORT ORDINAL="221" NAME="??4NameUnicodeTransliterator@icu_2_2@@QAEAAV01@ABV01@@Z" PURGE="4" COMMENT="" />
    <EXPORT ORDINAL="222" NAME="??4NormalizationTransliterator@icu_2_2@@QAEAAV01@ABV01@@Z" PURGE="4" COMMENT="" />
    <EXPORT ORDINAL="223" NAME="??4NullTransliterator@icu_2_2@@QAEAAV01@ABV01@@Z" PURGE="4" COMMENT="" />
    <EXPORT ORDINAL="224" NAME="??4NumberFormat@icu_2_2@@IAEAAV01@ABV01@@Z" PURGE="4" COMMENT="" />
    <EXPORT ORDINAL="225" NAME="??4RemoveTransliterator@icu_2_2@@QAEAAV01@ABV01@@Z" PURGE="4" COMMENT="" />
    <EXPORT ORDINAL="226" NAME="??4RuleBasedCollator@icu_2_2@@QAEAAV01@ABV01@@Z" PURGE="4" COMMENT="" />
    <EXPORT ORDINAL="227" NAME="??4RuleBasedNumberFormat@icu_2_2@@QAEAAV01@ABV01@@Z" PURGE="4" COMMENT="" />
    <EXPORT ORDINAL="228" NAME="??4RuleBasedTransliterator@icu_2_2@@QAEAAV01@ABV01@@Z" PURGE="4" COMMENT="" />
    <EXPORT ORDINAL="229" NAME="??4SearchIterator@icu_2_2@@IAEAAV01@ABV01@@Z" PURGE="4" COMMENT="" />
    <EXPORT ORDINAL="230" NAME="??4SimpleDateFormat@icu_2_2@@QAEAAV01@ABV01@@Z" PURGE="4" COMMENT="" />
    <EXPORT ORDINAL="231" NAME="??4SimpleTimeZone@icu_2_2@@QAEAAV01@ABV01@@Z" PURGE="4" COMMENT="" />
    <EXPORT ORDINAL="232" NAME="??4StringSearch@icu_2_2@@QAEAAV01@ABV01@@Z" PURGE="4" COMMENT="" />
    <EXPORT ORDINAL="233" NAME="??4TimeZone@icu_2_2@@IAEAAV01@ABV01@@Z" PURGE="4" COMMENT="" />
    <EXPORT ORDINAL="234" NAME="??4TitlecaseTransliterator@icu_2_2@@QAEAAV01@ABV01@@Z" PURGE="4" COMMENT="" />
    <EXPORT ORDINAL="235" NAME="??4TransliterationRuleData@icu_2_2@@QAEAAV01@ABV01@@Z" PURGE="4" COMMENT="" />
    <EXPORT ORDINAL="236" NAME="??4TransliterationRuleSet@icu_2_2@@QAEAAV01@ABV01@@Z" PURGE="4" COMMENT="" />
    <EXPORT ORDINAL="237" NAME="??4Transliterator@icu_2_2@@IAEAAV01@ABV01@@Z" PURGE="4" COMMENT="" />
    <EXPORT ORDINAL="238" NAME="??4UnescapeTransliterator@icu_2_2@@QAEAAV01@ABV01@@Z" PURGE="4" COMMENT="" />
    <EXPORT ORDINAL="239" NAME="??4UnicodeFilterLogic@icu_2_2@@QAEAAV01@ABV01@@Z" PURGE="4" COMMENT="" />
    <EXPORT ORDINAL="240" NAME="??4UnicodeNameTransliterator@icu_2_2@@QAEAAV01@ABV01@@Z" PURGE="4" COMMENT="" />
    <EXPORT ORDINAL="241" NAME="??4UnicodeReplacer@icu_2_2@@QAEAAV01@ABV01@@Z" PURGE="4" COMMENT="" />
    <EXPORT ORDINAL="242" NAME="??4UnicodeToHexTransliterator@icu_2_2@@QAEAAV01@ABV01@@Z" PURGE="4" COMMENT="" />
    <EXPORT ORDINAL="243" NAME="??4UppercaseTransliterator@icu_2_2@@QAEAAV01@ABV01@@Z" PURGE="4" COMMENT="" />
    <EXPORT ORDINAL="244" NAME="??8Calendar@icu_2_2@@UBECABV01@@Z" PURGE="4" COMMENT="" />
    <EXPORT ORDINAL="245" NAME="??8ChoiceFormat@icu_2_2@@UBECABVFormat@1@@Z" PURGE="4" COMMENT="" />
    <EXPORT ORDINAL="246" NAME="??8CollationElementIterator@icu_2_2@@QBECABV01@@Z" PURGE="4" COMMENT="" />
    <EXPORT ORDINAL="247" NAME="??8CollationKey@icu_2_2@@QBECABV01@@Z" PURGE="4" COMMENT="" />
    <EXPORT ORDINAL="248" NAME="??8Collator@icu_2_2@@UBECABV01@@Z" PURGE="4" COMMENT="" />
    <EXPORT ORDINAL="249" NAME="??8DateFormat@icu_2_2@@UBECABVFormat@1@@Z" PURGE="4" COMMENT="" />
    <EXPORT ORDINAL="250" NAME="??8DateFormatSymbols@icu_2_2@@QBECABV01@@Z" PURGE="4" COMMENT="" />
    <EXPORT ORDINAL="251" NAME="??8DecimalFormat@icu_2_2@@UBECABVFormat@1@@Z" PURGE="4" COMMENT="" />
    <EXPORT ORDINAL="252" NAME="??8DecimalFormatSymbols@icu_2_2@@QBECABV01@@Z" PURGE="4" COMMENT="" />
    <EXPORT ORDINAL="253" NAME="??8FieldPosition@icu_2_2@@QBECABV01@@Z" PURGE="4" COMMENT="" />
    <EXPORT ORDINAL="254" NAME="??8Format@icu_2_2@@UBECABV01@@Z" PURGE="4" COMMENT="" />
    <EXPORT ORDINAL="255" NAME="??8Formattable@icu_2_2@@QBECABV01@@Z" PURGE="4" COMMENT="" />
    <EXPORT ORDINAL="256" NAME="??8GregorianCalendar@icu_2_2@@UBECABVCalendar@1@@Z" PURGE="4" COMMENT="" />
    <EXPORT ORDINAL="257" NAME="??8MessageFormat@icu_2_2@@UBECABVFormat@1@@Z" PURGE="4" COMMENT="" />
    <EXPORT ORDINAL="258" NAME="??8NumberFormat@icu_2_2@@UBECABVFormat@1@@Z" PURGE="4" COMMENT="" />
    <EXPORT ORDINAL="259" NAME="??8RuleBasedCollator@icu_2_2@@UBECABVCollator@1@@Z" PURGE="4" COMMENT="" />
    <EXPORT ORDINAL="260" NAME="??8RuleBasedNumberFormat@icu_2_2@@UBECABVFormat@1@@Z" PURGE="4" COMMENT="" />
    <EXPORT ORDINAL="261" NAME="??8SearchIterator@icu_2_2@@UBECABV01@@Z" PURGE="4" COMMENT="" />
    <EXPORT ORDINAL="262" NAME="??8SimpleDateFormat@icu_2_2@@UBECABVFormat@1@@Z" PURGE="4" COMMENT="" />
    <EXPORT ORDINAL="263" NAME="??8SimpleTimeZone@icu_2_2@@UBECABVTimeZone@1@@Z" PURGE="4" COMMENT="" />
    <EXPORT ORDINAL="264" NAME="??8StringSearch@icu_2_2@@UBECABVSearchIterator@1@@Z" PURGE="4" COMMENT="" />
    <EXPORT ORDINAL="265" NAME="??8TimeZone@icu_2_2@@UBECABV01@@Z" PURGE="4" COMMENT="" />
    <EXPORT ORDINAL="266" NAME="??9Calendar@icu_2_2@@QBECABV01@@Z" PURGE="4" COMMENT="" />
    <EXPORT ORDINAL="267" NAME="??9CollationElementIterator@icu_2_2@@QBECABV01@@Z" PURGE="4" COMMENT="" />
    <EXPORT ORDINAL="268" NAME="??9CollationKey@icu_2_2@@QBECABV01@@Z" PURGE="4" COMMENT="" />
    <EXPORT ORDINAL="269" NAME="??9Collator@icu_2_2@@UBECABV01@@Z" PURGE="4" COMMENT="" />
    <EXPORT ORDINAL="270" NAME="??9DateFormatSymbols@icu_2_2@@QBECABV01@@Z" PURGE="4" COMMENT="" />
    <EXPORT ORDINAL="271" NAME="??9DecimalFormatSymbols@icu_2_2@@QBECABV01@@Z" PURGE="4" COMMENT="" />
    <EXPORT ORDINAL="272" NAME="??9FieldPosition@icu_2_2@@QBECABV01@@Z" PURGE="4" COMMENT="" />
    <EXPORT ORDINAL="273" NAME="??9Format@icu_2_2@@QBECABV01@@Z" PURGE="4" COMMENT="" />
    <EXPORT ORDINAL="274" NAME="??9Formattable@icu_2_2@@QBECABV01@@Z" PURGE="4" COMMENT="" />
    <EXPORT ORDINAL="275" NAME="??9RuleBasedCollator@icu_2_2@@UBECABVCollator@1@@Z" PURGE="4" COMMENT="" />
    <EXPORT ORDINAL="276" NAME="??9SearchIterator@icu_2_2@@QBECABV01@@Z" PURGE="4" COMMENT="" />
    <EXPORT ORDINAL="277" NAME="??9TimeZone@icu_2_2@@QBECABV01@@Z" PURGE="4" COMMENT="" />
    <EXPORT ORDINAL="278" NAME="??AFormattable@icu_2_2@@QAEAAV01@J@Z" PURGE="4" COMMENT="" />
    <EXPORT ORDINAL="279" NAME="??_7AnyTransliterator@icu_2_2@@6B@" PURGE="-1" COMMENT="" />
    <EXPORT ORDINAL="280" NAME="??_7Calendar@icu_2_2@@6B@" PURGE="-1" COMMENT="" />
    <EXPORT ORDINAL="281" NAME="??_7CanonicalIterator@icu_2_2@@6B@" PURGE="-1" COMMENT="" />
    <EXPORT ORDINAL="282" NAME="??_7ChoiceFormat@icu_2_2@@6B@" PURGE="-1" COMMENT="" />
    <EXPORT ORDINAL="283" NAME="??_7CollationElementIterator@icu_2_2@@6B@" PURGE="-1" COMMENT="" />
    <EXPORT ORDINAL="284" NAME="??_7CollationKey@icu_2_2@@6B@" PURGE="-1" COMMENT="" />
    <EXPORT ORDINAL="285" NAME="??_7Collator@icu_2_2@@6B@" PURGE="-1" COMMENT="" />
    <EXPORT ORDINAL="286" NAME="??_7CompoundTransliterator@icu_2_2@@6B@" PURGE="-1" COMMENT="" />
    <EXPORT ORDINAL="287" NAME="??_7DateFormat@icu_2_2@@6B@" PURGE="-1" COMMENT="" />
    <EXPORT ORDINAL="288" NAME="??_7DateFormatSymbols@icu_2_2@@6B@" PURGE="-1" COMMENT="" />
    <EXPORT ORDINAL="289" NAME="??_7DecimalFormat@icu_2_2@@6B@" PURGE="-1" COMMENT="" />
    <EXPORT ORDINAL="290" NAME="??_7DecimalFormatSymbols@icu_2_2@@6B@" PURGE="-1" COMMENT="" />
    <EXPORT ORDINAL="291" NAME="??_7EscapeTransliterator@icu_2_2@@6B@" PURGE="-1" COMMENT="" />
    <EXPORT ORDINAL="292" NAME="??_7FieldPosition@icu_2_2@@6B@" PURGE="-1" COMMENT="" />
    <EXPORT ORDINAL="293" NAME="??_7Format@icu_2_2@@6B@" PURGE="-1" COMMENT="" />
    <EXPORT ORDINAL="294" NAME="??_7Formattable@icu_2_2@@6B@" PURGE="-1" COMMENT="" />
    <EXPORT ORDINAL="295" NAME="??_7GregorianCalendar@icu_2_2@@6B@" PURGE="-1" COMMENT="" />
    <EXPORT ORDINAL="296" NAME="??_7HexToUnicodeTransliterator@icu_2_2@@6B@" PURGE="-1" COMMENT="" />
    <EXPORT ORDINAL="297" NAME="??_7LowercaseTransliterator@icu_2_2@@6B@" PURGE="-1" COMMENT="" />
    <EXPORT ORDINAL="298" NAME="??_7MessageFormat@icu_2_2@@6B@" PURGE="-1" COMMENT="" />
    <EXPORT ORDINAL="299" NAME="??_7NameUnicodeTransliterator@icu_2_2@@6B@" PURGE="-1" COMMENT="" />
    <EXPORT ORDINAL="300" NAME="??_7NormalizationTransliterator@icu_2_2@@6B@" PURGE="-1" COMMENT="" />
    <EXPORT ORDINAL="301" NAME="??_7NullTransliterator@icu_2_2@@6B@" PURGE="-1" COMMENT="" />
    <EXPORT ORDINAL="302" NAME="??_7NumberFormat@icu_2_2@@6B@" PURGE="-1" COMMENT="" />
    <EXPORT ORDINAL="303" NAME="??_7RemoveTransliterator@icu_2_2@@6B@" PURGE="-1" COMMENT="" />
    <EXPORT ORDINAL="304" NAME="??_7RuleBasedCollator@icu_2_2@@6B@" PURGE="-1" COMMENT="" />
    <EXPORT ORDINAL="305" NAME="??_7RuleBasedNumberFormat@icu_2_2@@6B@" PURGE="-1" COMMENT="" />
    <EXPORT ORDINAL="306" NAME="??_7RuleBasedTransliterator@icu_2_2@@6B@" PURGE="-1" COMMENT="" />
    <EXPORT ORDINAL="307" NAME="??_7SearchIterator@icu_2_2@@6B@" PURGE="-1" COMMENT="" />
    <EXPORT ORDINAL="308" NAME="??_7SimpleDateFormat@icu_2_2@@6B@" PURGE="-1" COMMENT="" />
    <EXPORT ORDINAL="309" NAME="??_7SimpleTimeZone@icu_2_2@@6B@" PURGE="-1" COMMENT="" />
    <EXPORT ORDINAL="310" NAME="??_7StringSearch@icu_2_2@@6B@" PURGE="-1" COMMENT="" />
    <EXPORT ORDINAL="311" NAME="??_7TimeZone@icu_2_2@@6B@" PURGE="-1" COMMENT="" />
    <EXPORT ORDINAL="312" NAME="??_7TitlecaseTransliterator@icu_2_2@@6B@" PURGE="-1" COMMENT="" />
    <EXPORT ORDINAL="313" NAME="??_7TransliterationRuleData@icu_2_2@@6B@" PURGE="-1" COMMENT="" />
    <EXPORT ORDINAL="314" NAME="??_7TransliterationRuleSet@icu_2_2@@6B@" PURGE="-1" COMMENT="" />
    <EXPORT ORDINAL="315" NAME="??_7Transliterator@icu_2_2@@6B@" PURGE="-1" COMMENT="" />
    <EXPORT ORDINAL="316" NAME="??_7UnescapeTransliterator@icu_2_2@@6B@" PURGE="-1" COMMENT="" />
    <EXPORT ORDINAL="317" NAME="??_7UnicodeNameTransliterator@icu_2_2@@6B@" PURGE="-1" COMMENT="" />
    <EXPORT ORDINAL="318" NAME="??_7UnicodeReplacer@icu_2_2@@6B@" PURGE="-1" COMMENT="" />
    <EXPORT ORDINAL="319" NAME="??_7UnicodeToHexTransliterator@icu_2_2@@6B@" PURGE="-1" COMMENT="" />
    <EXPORT ORDINAL="320" NAME="??_7UppercaseTransliterator@icu_2_2@@6B@" PURGE="-1" COMMENT="" />
    <EXPORT ORDINAL="321" NAME="??_FHexToUnicodeTransliterator@icu_2_2@@QAEXXZ" PURGE="0" COMMENT="" />
    <EXPORT ORDINAL="322" NAME="??_FLowercaseTransliterator@icu_2_2@@QAEXXZ" PURGE="0" COMMENT="" />
    <EXPORT ORDINAL="323" NAME="??_FNameUnicodeTransliterator@icu_2_2@@QAEXXZ" PURGE="0" COMMENT="" />
    <EXPORT ORDINAL="324" NAME="??_FTitlecaseTransliterator@icu_2_2@@QAEXXZ" PURGE="0" COMMENT="" />
    <EXPORT ORDINAL="325" NAME="??_FUnicodeNameTransliterator@icu_2_2@@QAEXXZ" PURGE="0" COMMENT="" />
    <EXPORT ORDINAL="326" NAME="??_FUnicodeToHexTransliterator@icu_2_2@@QAEXXZ" PURGE="0" COMMENT="" />
    <EXPORT ORDINAL="327" NAME="??_FUppercaseTransliterator@icu_2_2@@QAEXXZ" PURGE="0" COMMENT="" />
    <EXPORT ORDINAL="328" NAME="?CHARINDEX@RuleBasedCollator@icu_2_2@@0JB" PURGE="-1" COMMENT="" />
    <EXPORT ORDINAL="329" NAME="?COLELEMENTSTART@RuleBasedCollator@icu_2_2@@0JB" PURGE="-1" COMMENT="" />
    <EXPORT ORDINAL="330" NAME="?CONTRACTCHARINDEX@RuleBasedCollator@icu_2_2@@0JB" PURGE="-1" COMMENT="" />
    <EXPORT ORDINAL="331" NAME="?DEFAULT_PATTERN@HexToUnicodeTransliterator@icu_2_2@@0QBGB" PURGE="-1" COMMENT="" />
    <EXPORT ORDINAL="332" NAME="?EXPANDCHARINDEX@RuleBasedCollator@icu_2_2@@0JB" PURGE="-1" COMMENT="" />
    <EXPORT ORDINAL="333" NAME="?FILEID@RuleBasedCollator@icu_2_2@@0FB" PURGE="-1" COMMENT="" />
    <EXPORT ORDINAL="334" NAME="?HEX_DIGITS@UnicodeToHexTransliterator@icu_2_2@@0QBGB" PURGE="-1" COMMENT="" />
    <EXPORT ORDINAL="335" NAME="?ID@NullTransliterator@icu_2_2@@2QBGB" PURGE="-1" COMMENT="" />
    <EXPORT ORDINAL="336" NAME="?IGNORABLEMASK@RuleBasedCollator@icu_2_2@@0JB" PURGE="-1" COMMENT="" />
    <EXPORT ORDINAL="337" NAME="?NULLORDER@CollationElementIterator@icu_2_2@@2JB" PURGE="-1" COMMENT="" />
    <EXPORT ORDINAL="338" NAME="?PRIMARYDIFFERENCEONLY@RuleBasedCollator@icu_2_2@@0JB" PURGE="-1" COMMENT="" />
    <EXPORT ORDINAL="339" NAME="?PRIMARYLOWZEROMASK@RuleBasedCollator@icu_2_2@@0JB" PURGE="-1" COMMENT="" />
    <EXPORT ORDINAL="340" NAME="?PRIMARYORDERINCREMENT@RuleBasedCollator@icu_2_2@@0JB" PURGE="-1" COMMENT="" />
    <EXPORT ORDINAL="341" NAME="?PRIMARYORDERMASK@RuleBasedCollator@icu_2_2@@0JB" PURGE="-1" COMMENT="" />
    <EXPORT ORDINAL="342" NAME="?PRIMARYORDERSHIFT@RuleBasedCollator@icu_2_2@@0JB" PURGE="-1" COMMENT="" />
    <EXPORT ORDINAL="343" NAME="?PRIMIGNORABLE@RuleBasedCollator@icu_2_2@@0JB" PURGE="-1" COMMENT="" />
    <EXPORT ORDINAL="344" NAME="?RESETSECONDARYTERTIARY@RuleBasedCollator@icu_2_2@@0JB" PURGE="-1" COMMENT="" />
    <EXPORT ORDINAL="345" NAME="?RESETTERTIARY@RuleBasedCollator@icu_2_2@@0JB" PURGE="-1" COMMENT="" />
    <EXPORT ORDINAL="346" NAME="?SECONDARYDIFFERENCEONLY@RuleBasedCollator@icu_2_2@@0JB" PURGE="-1" COMMENT="" />
    <EXPORT ORDINAL="347" NAME="?SECONDARYORDERINCREMENT@RuleBasedCollator@icu_2_2@@0JB" PURGE="-1" COMMENT="" />
    <EXPORT ORDINAL="348" NAME="?SECONDARYORDERMASK@RuleBasedCollator@icu_2_2@@0JB" PURGE="-1" COMMENT="" />
    <EXPORT ORDINAL="349" NAME="?SECONDARYORDERSHIFT@RuleBasedCollator@icu_2_2@@0JB" PURGE="-1" COMMENT="" />
    <EXPORT ORDINAL="350" NAME="?SHORT_ID@NullTransliterator@icu_2_2@@2QBGB" PURGE="-1" COMMENT="" />
    <EXPORT ORDINAL="351" NAME="?TERTIARYORDERINCREMENT@RuleBasedCollator@icu_2_2@@0JB" PURGE="-1" COMMENT="" />
    <EXPORT ORDINAL="352" NAME="?TERTIARYORDERMASK@RuleBasedCollator@icu_2_2@@0JB" PURGE="-1" COMMENT="" />
    <EXPORT ORDINAL="353" NAME="?UNMAPPED@RuleBasedCollator@icu_2_2@@0JB" PURGE="-1" COMMENT="" />
    <EXPORT ORDINAL="354" NAME="?_ID@HexToUnicodeTransliterator@icu_2_2@@0QBDB" PURGE="-1" COMMENT="" />
    <EXPORT ORDINAL="355" NAME="?_ID@LowercaseTransliterator@icu_2_2@@0QBDB" PURGE="-1" COMMENT="" />
    <EXPORT ORDINAL="356" NAME="?_ID@NameUnicodeTransliterator@icu_2_2@@0QBDB" PURGE="-1" COMMENT="" />
    <EXPORT ORDINAL="357" NAME="?_ID@TitlecaseTransliterator@icu_2_2@@0QBDB" PURGE="-1" COMMENT="" />
    <EXPORT ORDINAL="358" NAME="?_ID@UnicodeNameTransliterator@icu_2_2@@0QBDB" PURGE="-1" COMMENT="" />
    <EXPORT ORDINAL="359" NAME="?_ID@UnicodeToHexTransliterator@icu_2_2@@0QBDB" PURGE="-1" COMMENT="" />
    <EXPORT ORDINAL="360" NAME="?_ID@UppercaseTransliterator@icu_2_2@@0QBDB" PURGE="-1" COMMENT="" />
    <EXPORT ORDINAL="361" NAME="?_construct@RuleBasedTransliterator@icu_2_2@@AAEXABVUnicodeString@2@W4_UTransDirection@@AAU_UParseError@@AAW4UErrorCode@@@Z" PURGE="16" COMMENT="" />
    <EXPORT ORDINAL="362" NAME="?_countAvailableSources@Transliterator@icu_2_2@@KAJXZ" PURGE="-1" COMMENT="" />
    <EXPORT ORDINAL="363" NAME="?_countAvailableTargets@Transliterator@icu_2_2@@KAJABVUnicodeString@2@@Z" PURGE="0" COMMENT="" />
    <EXPORT ORDINAL="364" NAME="?_countAvailableVariants@Transliterator@icu_2_2@@KAJABVUnicodeString@2@0@Z" PURGE="0" COMMENT="" />
    <EXPORT ORDINAL="365" NAME="?_create@NormalizationTransliterator@icu_2_2@@CAPAVTransliterator@2@ABVUnicodeString@2@TToken@32@@Z" PURGE="0" COMMENT="" />
    <EXPORT ORDINAL="366" NAME="?_create@RemoveTransliterator@icu_2_2@@CAPAVTransliterator@2@ABVUnicodeString@2@TToken@32@@Z" PURGE="0" COMMENT="" />
    <EXPORT ORDINAL="367" NAME="?_createAny@UnescapeTransliterator@icu_2_2@@CAPAVTransliterator@2@ABVUnicodeString@2@TToken@32@@Z" PURGE="0" COMMENT="" />
    <EXPORT ORDINAL="368" NAME="?_createC@EscapeTransliterator@icu_2_2@@CAPAVTransliterator@2@ABVUnicodeString@2@TToken@32@@Z" PURGE="0" COMMENT="" />
    <EXPORT ORDINAL="369" NAME="?_createC@UnescapeTransliterator@icu_2_2@@CAPAVTransliterator@2@ABVUnicodeString@2@TToken@32@@Z" PURGE="0" COMMENT="" />
    <EXPORT ORDINAL="370" NAME="?_createJava@EscapeTransliterator@icu_2_2@@CAPAVTransliterator@2@ABVUnicodeString@2@TToken@32@@Z" PURGE="0" COMMENT="" />
    <EXPORT ORDINAL="371" NAME="?_createJava@UnescapeTransliterator@icu_2_2@@CAPAVTransliterator@2@ABVUnicodeString@2@TToken@32@@Z" PURGE="0" COMMENT="" />
    <EXPORT ORDINAL="372" NAME="?_createPerl@EscapeTransliterator@icu_2_2@@CAPAVTransliterator@2@ABVUnicodeString@2@TToken@32@@Z" PURGE="0" COMMENT="" />
    <EXPORT ORDINAL="373" NAME="?_createPerl@UnescapeTransliterator@icu_2_2@@CAPAVTransliterator@2@ABVUnicodeString@2@TToken@32@@Z" PURGE="0" COMMENT="" />
    <EXPORT ORDINAL="374" NAME="?_createUnicode@EscapeTransliterator@icu_2_2@@CAPAVTransliterator@2@ABVUnicodeString@2@TToken@32@@Z" PURGE="0" COMMENT="" />
    <EXPORT ORDINAL="375" NAME="?_createUnicode@UnescapeTransliterator@icu_2_2@@CAPAVTransliterator@2@ABVUnicodeString@2@TToken@32@@Z" PURGE="0" COMMENT="" />
    <EXPORT ORDINAL="376" NAME="?_createXML10@EscapeTransliterator@icu_2_2@@CAPAVTransliterator@2@ABVUnicodeString@2@TToken@32@@Z" PURGE="0" COMMENT="" />
    <EXPORT ORDINAL="377" NAME="?_createXML10@UnescapeTransliterator@icu_2_2@@CAPAVTransliterator@2@ABVUnicodeString@2@TToken@32@@Z" PURGE="0" COMMENT="" />
    <EXPORT ORDINAL="378" NAME="?_createXML@EscapeTransliterator@icu_2_2@@CAPAVTransliterator@2@ABVUnicodeString@2@TToken@32@@Z" PURGE="0" COMMENT="" />
    <EXPORT ORDINAL="379" NAME="?_createXML@UnescapeTransliterator@icu_2_2@@CAPAVTransliterator@2@ABVUnicodeString@2@TToken@32@@Z" PURGE="0" COMMENT="" />
    <EXPORT ORDINAL="380" NAME="?_getAvailableSource@Transliterator@icu_2_2@@KAAAVUnicodeString@2@JAAV32@@Z" PURGE="0" COMMENT="" />
    <EXPORT ORDINAL="381" NAME="?_getAvailableTarget@Transliterator@icu_2_2@@KAAAVUnicodeString@2@JABV32@AAV32@@Z" PURGE="0" COMMENT="" />
    <EXPORT ORDINAL="382" NAME="?_getAvailableVariant@Transliterator@icu_2_2@@KAAAVUnicodeString@2@JABV32@0AAV32@@Z" PURGE="0" COMMENT="" />
    <EXPORT ORDINAL="383" NAME="?_getZoneIndex@DateFormatSymbols@icu_2_2@@ABEJABVUnicodeString@2@@Z" PURGE="4" COMMENT="" />
    <EXPORT ORDINAL="384" NAME="?_registerFactory@Transliterator@icu_2_2@@KAXABVUnicodeString@2@P6APAV12@0TToken@12@@Z1@Z" PURGE="0" COMMENT="" />
    <EXPORT ORDINAL="385" NAME="?_registerInstance@Transliterator@icu_2_2@@KAXPAV12@@Z" PURGE="0" COMMENT="" />
    <EXPORT ORDINAL="386" NAME="?_registerSpecialInverse@Transliterator@icu_2_2@@KAXABVUnicodeString@2@0C@Z" PURGE="0" COMMENT="" />
    <EXPORT ORDINAL="387" NAME="?_transliterate@Transliterator@icu_2_2@@ABEXAAVReplaceable@2@AAU_UTransPosition@@PBVUnicodeString@2@AAW4UErrorCode@@@Z" PURGE="16" COMMENT="" />
    <EXPORT ORDINAL="388" NAME="?add@GregorianCalendar@icu_2_2@@UAEXW4EDateFields@Calendar@2@JAAW4UErrorCode@@@Z" PURGE="12" COMMENT="" />
    <EXPORT ORDINAL="389" NAME="?addPadding@DecimalFormat@icu_2_2@@ABEXAAVUnicodeString@2@AAVFieldPosition@2@CC@Z" PURGE="16" COMMENT="" />
    <EXPORT ORDINAL="390" NAME="?addRule@TransliterationRuleSet@icu_2_2@@UAEXPAVTransliterationRule@2@AAW4UErrorCode@@@Z" PURGE="8" COMMENT="" />
    <EXPORT ORDINAL="391" NAME="?adopt@CollationKey@icu_2_2@@AAEXPAEJ@Z" PURGE="8" COMMENT="" />
    <EXPORT ORDINAL="392" NAME="?adoptArray@Formattable@icu_2_2@@QAEXPAV12@J@Z" PURGE="8" COMMENT="" />
    <EXPORT ORDINAL="393" NAME="?adoptCalendar@DateFormat@icu_2_2@@UAEXPAVCalendar@2@@Z" PURGE="4" COMMENT="" />
    <EXPORT ORDINAL="394" NAME="?adoptChoices@ChoiceFormat@icu_2_2@@UAEXPANPACPAVUnicodeString@2@J@Z" PURGE="16" COMMENT="" />
    <EXPORT ORDINAL="395" NAME="?adoptChoices@ChoiceFormat@icu_2_2@@UAEXPANPAVUnicodeString@2@J@Z" PURGE="12" COMMENT="" />
    <EXPORT ORDINAL="396" NAME="?adoptDateFormatSymbols@SimpleDateFormat@icu_2_2@@UAEXPAVDateFormatSymbols@2@@Z" PURGE="4" COMMENT="" />
    <EXPORT ORDINAL="397" NAME="?adoptDecimalFormatSymbols@DecimalFormat@icu_2_2@@UAEXPAVDecimalFormatSymbols@2@@Z" PURGE="4" COMMENT="" />
    <EXPORT ORDINAL="398" NAME="?adoptDefault@TimeZone@icu_2_2@@SAXPAV12@@Z" PURGE="0" COMMENT="" />
    <EXPORT ORDINAL="399" NAME="?adoptFilter@Transliterator@icu_2_2@@QAEXPAVUnicodeFilter@2@@Z" PURGE="4" COMMENT="" />
    <EXPORT ORDINAL="400" NAME="?adoptFormat@MessageFormat@icu_2_2@@UAEXJPAVFormat@2@@Z" PURGE="8" COMMENT="" />
    <EXPORT ORDINAL="401" NAME="?adoptFormats@MessageFormat@icu_2_2@@UAEXPAPAVFormat@2@J@Z" PURGE="8" COMMENT="" />
    <EXPORT ORDINAL="402" NAME="?adoptNumberFormat@DateFormat@icu_2_2@@UAEXPAVNumberFormat@2@@Z" PURGE="-1" COMMENT="" />
    <EXPORT ORDINAL="403" NAME="?adoptString@Formattable@icu_2_2@@QAEXPAVUnicodeString@2@@Z" PURGE="4" COMMENT="" />
    <EXPORT ORDINAL="404" NAME="?adoptTimeZone@Calendar@icu_2_2@@QAEXPAVTimeZone@2@@Z" PURGE="4" COMMENT="" />
    <EXPORT ORDINAL="405" NAME="?adoptTimeZone@DateFormat@icu_2_2@@UAEXPAVTimeZone@2@@Z" PURGE="4" COMMENT="" />
    <EXPORT ORDINAL="406" NAME="?adoptTransliterators@CompoundTransliterator@icu_2_2@@QAEXQAPAVTransliterator@2@J@Z" PURGE="8" COMMENT="" />
    <EXPORT ORDINAL="407" NAME="?after@Calendar@icu_2_2@@QBECABV12@AAW4UErrorCode@@@Z" PURGE="8" COMMENT="" />
    <EXPORT ORDINAL="408" NAME="?aggregateStamp@GregorianCalendar@icu_2_2@@AAEJJJ@Z" PURGE="8" COMMENT="" />
    <EXPORT ORDINAL="409" NAME="?appendAffix@DecimalFormat@icu_2_2@@ABEXAAVUnicodeString@2@ABV32@C@Z" PURGE="12" COMMENT="" />
    <EXPORT ORDINAL="410" NAME="?appendAffix@DecimalFormat@icu_2_2@@ABEXAAVUnicodeString@2@PBV32@ABV32@C@Z" PURGE="16" COMMENT="" />
    <EXPORT ORDINAL="411" NAME="?applyLocalizedPattern@DecimalFormat@icu_2_2@@UAEXABVUnicodeString@2@AAU_UParseError@@AAW4UErrorCode@@@Z" PURGE="12" COMMENT="" />
    <EXPORT ORDINAL="412" NAME="?applyLocalizedPattern@DecimalFormat@icu_2_2@@UAEXABVUnicodeString@2@AAW4UErrorCode@@@Z" PURGE="8" COMMENT="" />
    <EXPORT ORDINAL="413" NAME="?applyLocalizedPattern@SimpleDateFormat@icu_2_2@@UAEXABVUnicodeString@2@AAW4UErrorCode@@@Z" PURGE="8" COMMENT="" />
    <EXPORT ORDINAL="414" NAME="?applyPattern@ChoiceFormat@icu_2_2@@UAEXABVUnicodeString@2@AAU_UParseError@@AAW4UErrorCode@@@Z" PURGE="12" COMMENT="" />
    <EXPORT ORDINAL="415" NAME="?applyPattern@ChoiceFormat@icu_2_2@@UAEXABVUnicodeString@2@AAW4UErrorCode@@@Z" PURGE="8" COMMENT="" />
    <EXPORT ORDINAL="416" NAME="?applyPattern@DecimalFormat@icu_2_2@@AAEXABVUnicodeString@2@CAAU_UParseError@@AAW4UErrorCode@@@Z" PURGE="16" COMMENT="" />
    <EXPORT ORDINAL="417" NAME="?applyPattern@DecimalFormat@icu_2_2@@UAEXABVUnicodeString@2@AAU_UParseError@@AAW4UErrorCode@@@Z" PURGE="12" COMMENT="" />
    <EXPORT ORDINAL="418" NAME="?applyPattern@DecimalFormat@icu_2_2@@UAEXABVUnicodeString@2@AAW4UErrorCode@@@Z" PURGE="8" COMMENT="" />
    <EXPORT ORDINAL="419" NAME="?applyPattern@HexToUnicodeTransliterator@icu_2_2@@QAEXABVUnicodeString@2@AAW4UErrorCode@@@Z" PURGE="8" COMMENT="" />
    <EXPORT ORDINAL="420" NAME="?applyPattern@MessageFormat@icu_2_2@@UAEXABVUnicodeString@2@AAU_UParseError@@AAW4UErrorCode@@@Z" PURGE="12" COMMENT="" />
    <EXPORT ORDINAL="421" NAME="?applyPattern@MessageFormat@icu_2_2@@UAEXABVUnicodeString@2@AAW4UErrorCode@@@Z" PURGE="8" COMMENT="" />
    <EXPORT ORDINAL="422" NAME="?applyPattern@SimpleDateFormat@icu_2_2@@UAEXABVUnicodeString@2@@Z" PURGE="-1" COMMENT="" />
    <EXPORT ORDINAL="423" NAME="?applyPattern@UnicodeToHexTransliterator@icu_2_2@@QAEXABVUnicodeString@2@AAW4UErrorCode@@@Z" PURGE="8" COMMENT="" />
    <EXPORT ORDINAL="424" NAME="?arrayCompare@DateFormatSymbols@icu_2_2@@CACPBVUnicodeString@2@0J@Z" PURGE="0" COMMENT="" />
    <EXPORT ORDINAL="425" NAME="?assignArray@DateFormatSymbols@icu_2_2@@CAXAAPAVUnicodeString@2@AAJPBV32@J@Z" PURGE="0" COMMENT="" />
    <EXPORT ORDINAL="426" NAME="?before@Calendar@icu_2_2@@QBECABV12@AAW4UErrorCode@@@Z" PURGE="8" COMMENT="" />
    <EXPORT ORDINAL="427" NAME="?boundsCheck@GregorianCalendar@icu_2_2@@ABECJW4EDateFields@Calendar@2@@Z" PURGE="8" COMMENT="" />
    <EXPORT ORDINAL="428" NAME="?cleanPieces@CanonicalIterator@icu_2_2@@AAEXXZ" PURGE="0" COMMENT="" />
    <EXPORT ORDINAL="429" NAME="?cleanup@NormalizationTransliterator@icu_2_2@@SAXXZ" PURGE="0" COMMENT="" />
    <EXPORT ORDINAL="430" NAME="?cleanup@TitlecaseTransliterator@icu_2_2@@SAXXZ" PURGE="0" COMMENT="" />
    <EXPORT ORDINAL="431" NAME="?clear@Calendar@icu_2_2@@QAEXW4EDateFields@12@@Z" PURGE="4" COMMENT="" />
    <EXPORT ORDINAL="432" NAME="?clear@Calendar@icu_2_2@@QAEXXZ" PURGE="0" COMMENT="" />
    <EXPORT ORDINAL="433" NAME="?clone@AnyTransliterator@icu_2_2@@UBEPAVTransliterator@2@XZ" PURGE="0" COMMENT="" />
    <EXPORT ORDINAL="434" NAME="?clone@ChoiceFormat@icu_2_2@@UBEPAVFormat@2@XZ" PURGE="0" COMMENT="" />
    <EXPORT ORDINAL="435" NAME="?clone@CompoundTransliterator@icu_2_2@@UBEPAVTransliterator@2@XZ" PURGE="0" COMMENT="" />
    <EXPORT ORDINAL="436" NAME="?clone@DecimalFormat@icu_2_2@@UBEPAVFormat@2@XZ" PURGE="0" COMMENT="" />
    <EXPORT ORDINAL="437" NAME="?clone@EscapeTransliterator@icu_2_2@@UBEPAVTransliterator@2@XZ" PURGE="0" COMMENT="" />
    <EXPORT ORDINAL="438" NAME="?clone@GregorianCalendar@icu_2_2@@UBEPAVCalendar@2@XZ" PURGE="0" COMMENT="" />
    <EXPORT ORDINAL="439" NAME="?clone@HexToUnicodeTransliterator@icu_2_2@@UBEPAVTransliterator@2@XZ" PURGE="0" COMMENT="" />
    <EXPORT ORDINAL="440" NAME="?clone@LowercaseTransliterator@icu_2_2@@UBEPAVTransliterator@2@XZ" PURGE="0" COMMENT="" />
    <EXPORT ORDINAL="441" NAME="?clone@MessageFormat@icu_2_2@@UBEPAVFormat@2@XZ" PURGE="0" COMMENT="" />
    <EXPORT ORDINAL="442" NAME="?clone@NameUnicodeTransliterator@icu_2_2@@UBEPAVTransliterator@2@XZ" PURGE="0" COMMENT="" />
    <EXPORT ORDINAL="443" NAME="?clone@NormalizationTransliterator@icu_2_2@@UBEPAVTransliterator@2@XZ" PURGE="0" COMMENT="" />
    <EXPORT ORDINAL="444" NAME="?clone@NullTransliterator@icu_2_2@@UBEPAVTransliterator@2@XZ" PURGE="0" COMMENT="" />
    <EXPORT ORDINAL="445" NAME="?clone@RemoveTransliterator@icu_2_2@@UBEPAVTransliterator@2@XZ" PURGE="0" COMMENT="" />
    <EXPORT ORDINAL="446" NAME="?clone@RuleBasedCollator@icu_2_2@@UBEPAVCollator@2@XZ" PURGE="0" COMMENT="" />
    <EXPORT ORDINAL="447" NAME="?clone@RuleBasedNumberFormat@icu_2_2@@UBEPAVFormat@2@XZ" PURGE="0" COMMENT="" />
    <EXPORT ORDINAL="448" NAME="?clone@RuleBasedTransliterator@icu_2_2@@UBEPAVTransliterator@2@XZ" PURGE="0" COMMENT="" />
    <EXPORT ORDINAL="449" NAME="?clone@SimpleDateFormat@icu_2_2@@UBEPAVFormat@2@XZ" PURGE="0" COMMENT="" />
    <EXPORT ORDINAL="450" NAME="?clone@SimpleTimeZone@icu_2_2@@UBEPAVTimeZone@2@XZ" PURGE="0" COMMENT="" />
    <EXPORT ORDINAL="451" NAME="?clone@TitlecaseTransliterator@icu_2_2@@UBEPAVTransliterator@2@XZ" PURGE="0" COMMENT="" />
    <EXPORT ORDINAL="452" NAME="?clone@Transliterator@icu_2_2@@UBEPAV12@XZ" PURGE="0" COMMENT="" />
    <EXPORT ORDINAL="453" NAME="?clone@UnescapeTransliterator@icu_2_2@@UBEPAVTransliterator@2@XZ" PURGE="0" COMMENT="" />
    <EXPORT ORDINAL="454" NAME="?clone@UnicodeNameTransliterator@icu_2_2@@UBEPAVTransliterator@2@XZ" PURGE="0" COMMENT="" />
    <EXPORT ORDINAL="455" NAME="?clone@UnicodeToHexTransliterator@icu_2_2@@UBEPAVTransliterator@2@XZ" PURGE="0" COMMENT="" />
    <EXPORT ORDINAL="456" NAME="?clone@UppercaseTransliterator@icu_2_2@@UBEPAVTransliterator@2@XZ" PURGE="0" COMMENT="" />
    <EXPORT ORDINAL="457" NAME="?cloneRuleData@RuleBasedCollator@icu_2_2@@QAEPAEAAJAAW4UErrorCode@@@Z" PURGE="8" COMMENT="" />
    <EXPORT ORDINAL="458" NAME="?compare@RuleBasedCollator@icu_2_2@@UBE?AW4EComparisonResult@Collator@2@ABVUnicodeString@2@0@Z" PURGE="8" COMMENT="" />
    <EXPORT ORDINAL="459" NAME="?compare@RuleBasedCollator@icu_2_2@@UBE?AW4EComparisonResult@Collator@2@ABVUnicodeString@2@0J@Z" PURGE="12" COMMENT="" />
    <EXPORT ORDINAL="460" NAME="?compare@RuleBasedCollator@icu_2_2@@UBE?AW4EComparisonResult@Collator@2@PBGJ0J@Z" PURGE="16" COMMENT="" />
    <EXPORT ORDINAL="461" NAME="?compareTo@CollationKey@icu_2_2@@QBE?AW4EComparisonResult@Collator@2@ABV12@@Z" PURGE="4" COMMENT="" />
    <EXPORT ORDINAL="462" NAME="?compareToRule@SimpleTimeZone@icu_2_2@@CAJCCCCCJJW4EMode@12@CCCJ@Z" PURGE="0" COMMENT="" />
    <EXPORT ORDINAL="463" NAME="?complete@Calendar@icu_2_2@@IAEXAAW4UErrorCode@@@Z" PURGE="4" COMMENT="" />
    <EXPORT ORDINAL="464" NAME="?computeDOYfromWOY@GregorianCalendar@icu_2_2@@ABEJN@Z" PURGE="8" COMMENT="" />
    <EXPORT ORDINAL="465" NAME="?computeFields@GregorianCalendar@icu_2_2@@MAEXAAW4UErrorCode@@@Z" PURGE="4" COMMENT="" />
    <EXPORT ORDINAL="466" NAME="?computeJulianDay@GregorianCalendar@icu_2_2@@AAENCJ@Z" PURGE="8" COMMENT="" />
    <EXPORT ORDINAL="467" NAME="?computeJulianDayOfYear@GregorianCalendar@icu_2_2@@CANCJAAC@Z" PURGE="0" COMMENT="" />
    <EXPORT ORDINAL="468" NAME="?computeMaximumContextLength@CompoundTransliterator@icu_2_2@@AAEXXZ" PURGE="0" COMMENT="" />
    <EXPORT ORDINAL="469" NAME="?computeRelativeDOW@GregorianCalendar@icu_2_2@@ABEJN@Z" PURGE="8" COMMENT="" />
    <EXPORT ORDINAL="470" NAME="?computeRelativeDOW@GregorianCalendar@icu_2_2@@ABEJXZ" PURGE="0" COMMENT="" />
    <EXPORT ORDINAL="471" NAME="?computeTime@GregorianCalendar@icu_2_2@@MAEXAAW4UErrorCode@@@Z" PURGE="4" COMMENT="" />
    <EXPORT ORDINAL="472" NAME="?construct@DecimalFormat@icu_2_2@@AAEXAAW4UErrorCode@@AAU_UParseError@@PBVUnicodeString@2@PAVDecimalFormatSymbols@2@@Z" PURGE="16" COMMENT="" />
    <EXPORT ORDINAL="473" NAME="?construct@RuleBasedCollator@icu_2_2@@AAEXABVUnicodeString@2@W4UColAttributeValue@@1AAW4UErrorCode@@@Z" PURGE="16" COMMENT="" />
    <EXPORT ORDINAL="474" NAME="?construct@SimpleDateFormat@icu_2_2@@AAEXW4EStyle@DateFormat@2@0ABVLocale@2@AAW4UErrorCode@@@Z" PURGE="16" COMMENT="" />
    <EXPORT ORDINAL="475" NAME="?construct@SimpleTimeZone@icu_2_2@@AAEXJCCCJW4TimeMode@12@CCCJ0JAAW4UErrorCode@@@Z" PURGE="52" COMMENT="" />
    <EXPORT ORDINAL="476" NAME="?copyAndFixQuotes@MessageFormat@icu_2_2@@CAXABVUnicodeString@2@JJAAV32@@Z" PURGE="0" COMMENT="" />
    <EXPORT ORDINAL="477" NAME="?copyData@DateFormatSymbols@icu_2_2@@AAEXABV12@@Z" PURGE="4" COMMENT="" />
    <EXPORT ORDINAL="478" NAME="?copySpec@UnescapeTransliterator@icu_2_2@@CAPAGPBG@Z" PURGE="0" COMMENT="" />
    <EXPORT ORDINAL="479" NAME="?countAvailableIDs@Transliterator@icu_2_2@@SAJXZ" PURGE="0" COMMENT="" />
    <EXPORT ORDINAL="480" NAME="?countAvailableSources@Transliterator@icu_2_2@@SAJXZ" PURGE="0" COMMENT="" />
    <EXPORT ORDINAL="481" NAME="?countAvailableTargets@Transliterator@icu_2_2@@SAJABVUnicodeString@2@@Z" PURGE="0" COMMENT="" />
    <EXPORT ORDINAL="482" NAME="?countAvailableVariants@Transliterator@icu_2_2@@SAJABVUnicodeString@2@0@Z" PURGE="0" COMMENT="" />
    <EXPORT ORDINAL="483" NAME="?countEquivalentIDs@TimeZone@icu_2_2@@SAJABVUnicodeString@2@@Z" PURGE="0" COMMENT="" />
    <EXPORT ORDINAL="484" NAME="?create@DateFormat@icu_2_2@@CAPAV12@W4EStyle@12@0ABVLocale@2@@Z" PURGE="0" COMMENT="" />
    <EXPORT ORDINAL="485" NAME="?createAdoptingAnd@UnicodeFilterLogic@icu_2_2@@SAPAVUnicodeFilter@2@PAV32@0@Z" PURGE="0" COMMENT="" />
    <EXPORT ORDINAL="486" NAME="?createAnd@UnicodeFilterLogic@icu_2_2@@SAPAVUnicodeFilter@2@PBV32@0@Z" PURGE="0" COMMENT="" />
    <EXPORT ORDINAL="487" NAME="?createArrayCopy@Formattable@icu_2_2@@CAPAV12@PBV12@J@Z" PURGE="0" COMMENT="" />
    <EXPORT ORDINAL="488" NAME="?createAvailableIDs@TimeZone@icu_2_2@@SAPAPBVUnicodeString@2@AAJ@Z" PURGE="0" COMMENT="" />
    <EXPORT ORDINAL="489" NAME="?createAvailableIDs@TimeZone@icu_2_2@@SAPAPBVUnicodeString@2@JAAJ@Z" PURGE="0" COMMENT="" />
    <EXPORT ORDINAL="490" NAME="?createAvailableIDs@TimeZone@icu_2_2@@SAPAPBVUnicodeString@2@PBDAAJ@Z" PURGE="0" COMMENT="" />
    <EXPORT ORDINAL="491" NAME="?createBasicInstance@Transliterator@icu_2_2@@KAPAV12@ABVUnicodeString@2@PBV32@@Z" PURGE="0" COMMENT="" />
    <EXPORT ORDINAL="492" NAME="?createCollationElementIterator@RuleBasedCollator@icu_2_2@@UBEPAVCollationElementIterator@2@ABVCharacterIterator@2@@Z" PURGE="4" COMMENT="" />
    <EXPORT ORDINAL="493" NAME="?createCollationElementIterator@RuleBasedCollator@icu_2_2@@UBEPAVCollationElementIterator@2@ABVUnicodeString@2@@Z" PURGE="4" COMMENT="" />
    <EXPORT ORDINAL="494" NAME="?createCurrencyInstance@NumberFormat@icu_2_2@@SAPAV12@AAW4UErrorCode@@@Z" PURGE="0" COMMENT="" />
    <EXPORT ORDINAL="495" NAME="?createCurrencyInstance@NumberFormat@icu_2_2@@SAPAV12@ABVLocale@2@AAW4UErrorCode@@@Z" PURGE="0" COMMENT="" />
    <EXPORT ORDINAL="496" NAME="?createCustomTimeZone@TimeZone@icu_2_2@@CAPAV12@ABVUnicodeString@2@@Z" PURGE="0" COMMENT="" />
    <EXPORT ORDINAL="497" NAME="?createDateInstance@DateFormat@icu_2_2@@SAPAV12@W4EStyle@12@ABVLocale@2@@Z" PURGE="0" COMMENT="" />
    <EXPORT ORDINAL="498" NAME="?createDateTimeInstance@DateFormat@icu_2_2@@SAPAV12@W4EStyle@12@0ABVLocale@2@@Z" PURGE="0" COMMENT="" />
    <EXPORT ORDINAL="499" NAME="?createDefault@TimeZone@icu_2_2@@SAPAV12@XZ" PURGE="0" COMMENT="" />
    <EXPORT ORDINAL="500" NAME="?createFromRules@Transliterator@icu_2_2@@SAPAV12@ABVUnicodeString@2@0W4_UTransDirection@@AAU_UParseError@@AAW4UErrorCode@@@Z" PURGE="0" COMMENT="" />
    <EXPORT ORDINAL="501" NAME="?createInstance@Calendar@icu_2_2@@SAPAV12@AAW4UErrorCode@@@Z" PURGE="0" COMMENT="" />
    <EXPORT ORDINAL="502" NAME="?createInstance@Calendar@icu_2_2@@SAPAV12@ABVLocale@2@AAW4UErrorCode@@@Z" PURGE="0" COMMENT="" />
    <EXPORT ORDINAL="503" NAME="?createInstance@Calendar@icu_2_2@@SAPAV12@ABVTimeZone@2@AAW4UErrorCode@@@Z" PURGE="0" COMMENT="" />
    <EXPORT ORDINAL="504" NAME="?createInstance@Calendar@icu_2_2@@SAPAV12@ABVTimeZone@2@ABVLocale@2@AAW4UErrorCode@@@Z" PURGE="0" COMMENT="" />
    <EXPORT ORDINAL="505" NAME="?createInstance@Calendar@icu_2_2@@SAPAV12@PAVTimeZone@2@AAW4UErrorCode@@@Z" PURGE="0" COMMENT="" />
    <EXPORT ORDINAL="506" NAME="?createInstance@Calendar@icu_2_2@@SAPAV12@PAVTimeZone@2@ABVLocale@2@AAW4UErrorCode@@@Z" PURGE="0" COMMENT="" />
    <EXPORT ORDINAL="507" NAME="?createInstance@Collator@icu_2_2@@SAPAV12@AAW4UErrorCode@@@Z" PURGE="0" COMMENT="" />
    <EXPORT ORDINAL="508" NAME="?createInstance@Collator@icu_2_2@@SAPAV12@ABVLocale@2@AAW4UErrorCode@@@Z" PURGE="0" COMMENT="" />
    <EXPORT ORDINAL="509" NAME="?createInstance@Collator@icu_2_2@@SAPAV12@ABVLocale@2@QAEAAW4UErrorCode@@@Z" PURGE="0" COMMENT="" />
    <EXPORT ORDINAL="510" NAME="?createInstance@DateFormat@icu_2_2@@SAPAV12@XZ" PURGE="0" COMMENT="" />
    <EXPORT ORDINAL="511" NAME="?createInstance@NumberFormat@icu_2_2@@CAPAV12@ABVLocale@2@W4EStyles@12@AAW4UErrorCode@@@Z" PURGE="0" COMMENT="" />
    <EXPORT ORDINAL="512" NAME="?createInstance@NumberFormat@icu_2_2@@SAPAV12@AAW4UErrorCode@@@Z" PURGE="0" COMMENT="" />
    <EXPORT ORDINAL="513" NAME="?createInstance@NumberFormat@icu_2_2@@SAPAV12@ABVLocale@2@AAW4UErrorCode@@@Z" PURGE="0" COMMENT="" />
    <EXPORT ORDINAL="514" NAME="?createInstance@Transliterator@icu_2_2@@SAPAV12@ABVUnicodeString@2@W4_UTransDirection@@AAU_UParseError@@AAW4UErrorCode@@@Z" PURGE="0" COMMENT="" />
    <EXPORT ORDINAL="515" NAME="?createInstance@Transliterator@icu_2_2@@SAPAV12@ABVUnicodeString@2@W4_UTransDirection@@AAW4UErrorCode@@@Z" PURGE="0" COMMENT="" />
    <EXPORT ORDINAL="516" NAME="?createIntegerFormat@MessageFormat@icu_2_2@@ABEPAVNumberFormat@2@ABVLocale@2@AAW4UErrorCode@@@Z" PURGE="8" COMMENT="" />
    <EXPORT ORDINAL="517" NAME="?createInverse@Transliterator@icu_2_2@@QBEPAV12@AAW4UErrorCode@@@Z" PURGE="4" COMMENT="" />
    <EXPORT ORDINAL="518" NAME="?createNot@UnicodeFilterLogic@icu_2_2@@SAPAVUnicodeFilter@2@PBV32@@Z" PURGE="0" COMMENT="" />
    <EXPORT ORDINAL="519" NAME="?createOr@UnicodeFilterLogic@icu_2_2@@SAPAVUnicodeFilter@2@PBV32@0@Z" PURGE="0" COMMENT="" />
    <EXPORT ORDINAL="520" NAME="?createPercentInstance@NumberFormat@icu_2_2@@SAPAV12@AAW4UErrorCode@@@Z" PURGE="0" COMMENT="" />
    <EXPORT ORDINAL="521" NAME="?createPercentInstance@NumberFormat@icu_2_2@@SAPAV12@ABVLocale@2@AAW4UErrorCode@@@Z" PURGE="0" COMMENT="" />
    <EXPORT ORDINAL="522" NAME="?createScientificInstance@NumberFormat@icu_2_2@@SAPAV12@AAW4UErrorCode@@@Z" PURGE="0" COMMENT="" />
    <EXPORT ORDINAL="523" NAME="?createScientificInstance@NumberFormat@icu_2_2@@SAPAV12@ABVLocale@2@AAW4UErrorCode@@@Z" PURGE="0" COMMENT="" />
    <EXPORT ORDINAL="524" NAME="?createSystemTimeZone@TimeZone@icu_2_2@@CAPAV12@ABVUnicodeString@2@@Z" PURGE="0" COMMENT="" />
    <EXPORT ORDINAL="525" NAME="?createTimeInstance@DateFormat@icu_2_2@@SAPAV12@W4EStyle@12@ABVLocale@2@@Z" PURGE="0" COMMENT="" />
    <EXPORT ORDINAL="526" NAME="?createTimeZone@TimeZone@icu_2_2@@SAPAV12@ABVUnicodeString@2@@Z" PURGE="0" COMMENT="" />
    <EXPORT ORDINAL="527" NAME="?createZoneStrings@DateFormatSymbols@icu_2_2@@AAEXPBQBVUnicodeString@2@@Z" PURGE="4" COMMENT="" />
    <EXPORT ORDINAL="528" NAME="?decodeEndRule@SimpleTimeZone@icu_2_2@@AAEXAAW4UErrorCode@@@Z" PURGE="4" COMMENT="" />
    <EXPORT ORDINAL="529" NAME="?decodeRules@SimpleTimeZone@icu_2_2@@AAEXAAW4UErrorCode@@@Z" PURGE="4" COMMENT="" />
    <EXPORT ORDINAL="530" NAME="?decodeStartRule@SimpleTimeZone@icu_2_2@@AAEXAAW4UErrorCode@@@Z" PURGE="4" COMMENT="" />
    <EXPORT ORDINAL="531" NAME="?dispose@DateFormatSymbols@icu_2_2@@AAEXXZ" PURGE="0" COMMENT="" />
    <EXPORT ORDINAL="532" NAME="?dispose@Formattable@icu_2_2@@AAEXXZ" PURGE="0" COMMENT="" />
    <EXPORT ORDINAL="533" NAME="?dispose@RuleBasedNumberFormat@icu_2_2@@AAEXXZ" PURGE="0" COMMENT="" />
    <EXPORT ORDINAL="534" NAME="?disposeZoneStrings@DateFormatSymbols@icu_2_2@@AAEXXZ" PURGE="0" COMMENT="" />
    <EXPORT ORDINAL="535" NAME="?dtos@ChoiceFormat@icu_2_2@@CAAAVUnicodeString@2@NAAV32@@Z" PURGE="0" COMMENT="" />
    <EXPORT ORDINAL="536" NAME="?ensureCapacity@CollationKey@icu_2_2@@AAEAAV12@J@Z" PURGE="4" COMMENT="" />
    <EXPORT ORDINAL="537" NAME="?equals@Calendar@icu_2_2@@QBECABV12@AAW4UErrorCode@@@Z" PURGE="8" COMMENT="" />
    <EXPORT ORDINAL="538" NAME="?equals@Collator@icu_2_2@@QBECABVUnicodeString@2@0@Z" PURGE="8" COMMENT="" />
    <EXPORT ORDINAL="539" NAME="?expandAffix@DecimalFormat@icu_2_2@@ABEXABVUnicodeString@2@AAV32@@Z" PURGE="8" COMMENT="" />
    <EXPORT ORDINAL="540" NAME="?expandAffixes@DecimalFormat@icu_2_2@@AAEXXZ" PURGE="0" COMMENT="" />
    <EXPORT ORDINAL="541" NAME="?extract@CanonicalIterator@icu_2_2@@AAEPAVHashtable@2@KPBGJJAAW4UErrorCode@@@Z" PURGE="20" COMMENT="" />
    <EXPORT ORDINAL="542" NAME="?fgAmPmMarkersTag@DateFormatSymbols@icu_2_2@@0QBDB" PURGE="-1" COMMENT="" />
    <EXPORT ORDINAL="543" NAME="?fgClassID@AnyTransliterator@icu_2_2@@0DB" PURGE="-1" COMMENT="" />
    <EXPORT ORDINAL="544" NAME="?fgClassID@CanonicalIterator@icu_2_2@@0DB" PURGE="-1" COMMENT="" />
    <EXPORT ORDINAL="545" NAME="?fgClassID@ChoiceFormat@icu_2_2@@0DB" PURGE="-1" COMMENT="" />
    <EXPORT ORDINAL="546" NAME="?fgClassID@CollationElementIterator@icu_2_2@@0DB" PURGE="-1" COMMENT="" />
    <EXPORT ORDINAL="547" NAME="?fgClassID@CollationKey@icu_2_2@@0DB" PURGE="-1" COMMENT="" />
    <EXPORT ORDINAL="548" NAME="?fgClassID@CompoundTransliterator@icu_2_2@@0DB" PURGE="-1" COMMENT="" />
    <EXPORT ORDINAL="549" NAME="?fgClassID@DateFormatSymbols@icu_2_2@@0DB" PURGE="-1" COMMENT="" />
    <EXPORT ORDINAL="550" NAME="?fgClassID@DecimalFormat@icu_2_2@@0DB" PURGE="-1" COMMENT="" />
    <EXPORT ORDINAL="551" NAME="?fgClassID@DecimalFormatSymbols@icu_2_2@@0DB" PURGE="-1" COMMENT="" />
    <EXPORT ORDINAL="552" NAME="?fgClassID@EscapeTransliterator@icu_2_2@@0DB" PURGE="-1" COMMENT="" />
    <EXPORT ORDINAL="553" NAME="?fgClassID@FieldPosition@icu_2_2@@0DB" PURGE="-1" COMMENT="" />
    <EXPORT ORDINAL="554" NAME="?fgClassID@Formattable@icu_2_2@@0DB" PURGE="-1" COMMENT="" />
    <EXPORT ORDINAL="555" NAME="?fgClassID@GregorianCalendar@icu_2_2@@0DB" PURGE="-1" COMMENT="" />
    <EXPORT ORDINAL="556" NAME="?fgClassID@HexToUnicodeTransliterator@icu_2_2@@0DB" PURGE="-1" COMMENT="" />
    <EXPORT ORDINAL="557" NAME="?fgClassID@LowercaseTransliterator@icu_2_2@@0DB" PURGE="-1" COMMENT="" />
    <EXPORT ORDINAL="558" NAME="?fgClassID@MessageFormat@icu_2_2@@0DB" PURGE="-1" COMMENT="" />
    <EXPORT ORDINAL="559" NAME="?fgClassID@NameUnicodeTransliterator@icu_2_2@@0DB" PURGE="-1" COMMENT="" />
    <EXPORT ORDINAL="560" NAME="?fgClassID@NormalizationTransliterator@icu_2_2@@0DB" PURGE="-1" COMMENT="" />
    <EXPORT ORDINAL="561" NAME="?fgClassID@NullTransliterator@icu_2_2@@0DB" PURGE="-1" COMMENT="" />
    <EXPORT ORDINAL="562" NAME="?fgClassID@NumberFormat@icu_2_2@@0DB" PURGE="-1" COMMENT="" />
    <EXPORT ORDINAL="563" NAME="?fgClassID@RemoveTransliterator@icu_2_2@@0DB" PURGE="-1" COMMENT="" />
    <EXPORT ORDINAL="564" NAME="?fgClassID@RuleBasedCollator@icu_2_2@@0DB" PURGE="-1" COMMENT="" />
    <EXPORT ORDINAL="565" NAME="?fgClassID@RuleBasedNumberFormat@icu_2_2@@0DB" PURGE="-1" COMMENT="" />
    <EXPORT ORDINAL="566" NAME="?fgClassID@RuleBasedTransliterator@icu_2_2@@0DB" PURGE="-1" COMMENT="" />
    <EXPORT ORDINAL="567" NAME="?fgClassID@SimpleDateFormat@icu_2_2@@0DB" PURGE="-1" COMMENT="" />
    <EXPORT ORDINAL="568" NAME="?fgClassID@SimpleTimeZone@icu_2_2@@0DB" PURGE="-1" COMMENT="" />
    <EXPORT ORDINAL="569" NAME="?fgClassID@StringSearch@icu_2_2@@0DB" PURGE="-1" COMMENT="" />
    <EXPORT ORDINAL="570" NAME="?fgClassID@TimeZone@icu_2_2@@0DB" PURGE="-1" COMMENT="" />
    <EXPORT ORDINAL="571" NAME="?fgClassID@TitlecaseTransliterator@icu_2_2@@0DB" PURGE="-1" COMMENT="" />
    <EXPORT ORDINAL="572" NAME="?fgClassID@TransliterationRuleData@icu_2_2@@0DB" PURGE="-1" COMMENT="" />
    <EXPORT ORDINAL="573" NAME="?fgClassID@TransliterationRuleSet@icu_2_2@@0DB" PURGE="-1" COMMENT="" />
    <EXPORT ORDINAL="574" NAME="?fgClassID@Transliterator@icu_2_2@@0DB" PURGE="-1" COMMENT="" />
    <EXPORT ORDINAL="575" NAME="?fgClassID@UnescapeTransliterator@icu_2_2@@0DB" PURGE="-1" COMMENT="" />
    <EXPORT ORDINAL="576" NAME="?fgClassID@UnicodeNameTransliterator@icu_2_2@@0DB" PURGE="-1" COMMENT="" />
    <EXPORT ORDINAL="577" NAME="?fgClassID@UnicodeToHexTransliterator@icu_2_2@@0DB" PURGE="-1" COMMENT="" />
    <EXPORT ORDINAL="578" NAME="?fgClassID@UppercaseTransliterator@icu_2_2@@0DB" PURGE="-1" COMMENT="" />
    <EXPORT ORDINAL="579" NAME="?fgCurrencyElements@DecimalFormatSymbols@icu_2_2@@0QBDB" PURGE="-1" COMMENT="" />
    <EXPORT ORDINAL="580" NAME="?fgDateTimePatternsTag@SimpleDateFormat@icu_2_2@@0QBDB" PURGE="-1" COMMENT="" />
    <EXPORT ORDINAL="581" NAME="?fgDayAbbreviationsTag@DateFormatSymbols@icu_2_2@@0QBDB" PURGE="-1" COMMENT="" />
    <EXPORT ORDINAL="582" NAME="?fgDayNamesTag@DateFormatSymbols@icu_2_2@@0QBDB" PURGE="-1" COMMENT="" />
    <EXPORT ORDINAL="583" NAME="?fgDefaultPattern@SimpleDateFormat@icu_2_2@@0QBGB" PURGE="-1" COMMENT="" />
    <EXPORT ORDINAL="584" NAME="?fgErasTag@DateFormatSymbols@icu_2_2@@0QBDB" PURGE="-1" COMMENT="" />
    <EXPORT ORDINAL="585" NAME="?fgGmt@SimpleDateFormat@icu_2_2@@0QBGB" PURGE="-1" COMMENT="" />
    <EXPORT ORDINAL="586" NAME="?fgGmtMinus@SimpleDateFormat@icu_2_2@@0QBGB" PURGE="-1" COMMENT="" />
    <EXPORT ORDINAL="587" NAME="?fgGmtPlus@SimpleDateFormat@icu_2_2@@0QBGB" PURGE="-1" COMMENT="" />
    <EXPORT ORDINAL="588" NAME="?fgLastResortNumberPatterns@NumberFormat@icu_2_2@@0QBQBGB" PURGE="-1" COMMENT="" />
    <EXPORT ORDINAL="589" NAME="?fgLocalPatternCharsTag@DateFormatSymbols@icu_2_2@@0QBDB" PURGE="-1" COMMENT="" />
    <EXPORT ORDINAL="590" NAME="?fgMaxIntegerDigits@NumberFormat@icu_2_2@@1JB" PURGE="-1" COMMENT="" />
    <EXPORT ORDINAL="591" NAME="?fgMinIntegerDigits@NumberFormat@icu_2_2@@1JB" PURGE="-1" COMMENT="" />
    <EXPORT ORDINAL="592" NAME="?fgMonthAbbreviationsTag@DateFormatSymbols@icu_2_2@@0QBDB" PURGE="-1" COMMENT="" />
    <EXPORT ORDINAL="593" NAME="?fgMonthNamesTag@DateFormatSymbols@icu_2_2@@0QBDB" PURGE="-1" COMMENT="" />
    <EXPORT ORDINAL="594" NAME="?fgNegativeInfinity@ChoiceFormat@icu_2_2@@0QBGB" PURGE="-1" COMMENT="" />
    <EXPORT ORDINAL="595" NAME="?fgNumberElements@DecimalFormatSymbols@icu_2_2@@0QBDB" PURGE="-1" COMMENT="" />
    <EXPORT ORDINAL="596" NAME="?fgNumberPatterns@DecimalFormat@icu_2_2@@2QBDB" PURGE="-1" COMMENT="" />
    <EXPORT ORDINAL="597" NAME="?fgNumberPatternsCount@NumberFormat@icu_2_2@@0JB" PURGE="-1" COMMENT="" />
    <EXPORT ORDINAL="598" NAME="?fgPatternIndexToCalendarField@SimpleDateFormat@icu_2_2@@0QBW4EDateFields@Calendar@2@B" PURGE="-1" COMMENT="" />
    <EXPORT ORDINAL="599" NAME="?fgPatternIndexToDateFormatField@SimpleDateFormat@icu_2_2@@0QBW4EField@DateFormat@2@B" PURGE="-1" COMMENT="" />
    <EXPORT ORDINAL="600" NAME="?fgPositiveInfinity@ChoiceFormat@icu_2_2@@0QBGB" PURGE="-1" COMMENT="" />
    <EXPORT ORDINAL="601" NAME="?fgSystemDefaultCentury@SimpleDateFormat@icu_2_2@@2NB" PURGE="-1" COMMENT="" />
    <EXPORT ORDINAL="602" NAME="?fgSystemDefaultCenturyStart@SimpleDateFormat@icu_2_2@@0NA" PURGE="-1" COMMENT="" />
    <EXPORT ORDINAL="603" NAME="?fgSystemDefaultCenturyStartYear@SimpleDateFormat@icu_2_2@@0JA" PURGE="-1" COMMENT="" />
    <EXPORT ORDINAL="604" NAME="?fgSystemDefaultCenturyYear@SimpleDateFormat@icu_2_2@@0JB" PURGE="-1" COMMENT="" />
    <EXPORT ORDINAL="605" NAME="?fgZoneStringsTag@DateFormatSymbols@icu_2_2@@0QBDB" PURGE="-1" COMMENT="" />
    <EXPORT ORDINAL="606" NAME="?fieldDifference@Calendar@icu_2_2@@UAEJNW4EDateFields@12@AAW4UErrorCode@@@Z" PURGE="16" COMMENT="" />
    <EXPORT ORDINAL="607" NAME="?filteredTransliterate@Transliterator@icu_2_2@@EBEXAAVReplaceable@2@AAU_UTransPosition@@CC@Z" PURGE="16" COMMENT="" />
    <EXPORT ORDINAL="608" NAME="?filteredTransliterate@Transliterator@icu_2_2@@MBEXAAVReplaceable@2@AAU_UTransPosition@@C@Z" PURGE="12" COMMENT="" />
    <EXPORT ORDINAL="609" NAME="?findKeyword@MessageFormat@icu_2_2@@CAJABVUnicodeString@2@PBQBG@Z" PURGE="0" COMMENT="" />
    <EXPORT ORDINAL="610" NAME="?findRuleSet@RuleBasedNumberFormat@icu_2_2@@ABEPAVNFRuleSet@2@ABVUnicodeString@2@AAW4UErrorCode@@@Z" PURGE="8" COMMENT="" />
    <EXPORT ORDINAL="611" NAME="?finishTransliteration@Transliterator@icu_2_2@@UBEXAAVReplaceable@2@AAU_UTransPosition@@@Z" PURGE="8" COMMENT="" />
    <EXPORT ORDINAL="612" NAME="?first@SearchIterator@icu_2_2@@QAEJAAW4UErrorCode@@@Z" PURGE="4" COMMENT="" />
    <EXPORT ORDINAL="613" NAME="?floorDivide@GregorianCalendar@icu_2_2@@CAJJJ@Z" PURGE="0" COMMENT="" />
    <EXPORT ORDINAL="614" NAME="?floorDivide@GregorianCalendar@icu_2_2@@CAJJJQAJ@Z" PURGE="0" COMMENT="" />
    <EXPORT ORDINAL="615" NAME="?floorDivide@GregorianCalendar@icu_2_2@@CAJNJQAJ@Z" PURGE="0" COMMENT="" />
    <EXPORT ORDINAL="616" NAME="?floorDivide@GregorianCalendar@icu_2_2@@CANNN@Z" PURGE="0" COMMENT="" />
    <EXPORT ORDINAL="617" NAME="?following@SearchIterator@icu_2_2@@QAEJJAAW4UErrorCode@@@Z" PURGE="8" COMMENT="" />
    <EXPORT ORDINAL="618" NAME="?format@ChoiceFormat@icu_2_2@@QBEAAVUnicodeString@2@ABVFormattable@2@AAV32@AAW4UErrorCode@@@Z" PURGE="12" COMMENT="" />
    <EXPORT ORDINAL="619" NAME="?format@ChoiceFormat@icu_2_2@@QBEAAVUnicodeString@2@JAAV32@@Z" PURGE="8" COMMENT="" />
    <EXPORT ORDINAL="620" NAME="?format@ChoiceFormat@icu_2_2@@QBEAAVUnicodeString@2@NAAV32@@Z" PURGE="12" COMMENT="" />
    <EXPORT ORDINAL="621" NAME="?format@ChoiceFormat@icu_2_2@@UBEAAVUnicodeString@2@ABVFormattable@2@AAV32@AAVFieldPosition@2@AAW4UErrorCode@@@Z" PURGE="16" COMMENT="" />
    <EXPORT ORDINAL="622" NAME="?format@ChoiceFormat@icu_2_2@@UBEAAVUnicodeString@2@JAAV32@AAVFieldPosition@2@@Z" PURGE="12" COMMENT="" />
    <EXPORT ORDINAL="623" NAME="?format@ChoiceFormat@icu_2_2@@UBEAAVUnicodeString@2@NAAV32@AAVFieldPosition@2@@Z" PURGE="16" COMMENT="" />
    <EXPORT ORDINAL="624" NAME="?format@ChoiceFormat@icu_2_2@@UBEAAVUnicodeString@2@PBVFormattable@2@JAAV32@AAVFieldPosition@2@AAW4UErrorCode@@@Z" PURGE="20" COMMENT="" />
    <EXPORT ORDINAL="625" NAME="?format@DateFormat@icu_2_2@@QBEAAVUnicodeString@2@ABVFormattable@2@AAV32@AAW4UErrorCode@@@Z" PURGE="12" COMMENT="" />
    <EXPORT ORDINAL="626" NAME="?format@DateFormat@icu_2_2@@QBEAAVUnicodeString@2@NAAV32@@Z" PURGE="12" COMMENT="" />
    <EXPORT ORDINAL="627" NAME="?format@DateFormat@icu_2_2@@QBEAAVUnicodeString@2@NAAV32@AAVFieldPosition@2@@Z" PURGE="16" COMMENT="" />
    <EXPORT ORDINAL="628" NAME="?format@DateFormat@icu_2_2@@UBEAAVUnicodeString@2@ABVFormattable@2@AAV32@AAVFieldPosition@2@AAW4UErrorCode@@@Z" PURGE="16" COMMENT="" />
    <EXPORT ORDINAL="629" NAME="?format@DecimalFormat@icu_2_2@@QBEAAVUnicodeString@2@ABVFormattable@2@AAV32@AAW4UErrorCode@@@Z" PURGE="12" COMMENT="" />
    <EXPORT ORDINAL="630" NAME="?format@DecimalFormat@icu_2_2@@QBEAAVUnicodeString@2@JAAV32@@Z" PURGE="8" COMMENT="" />
    <EXPORT ORDINAL="631" NAME="?format@DecimalFormat@icu_2_2@@QBEAAVUnicodeString@2@NAAV32@@Z" PURGE="12" COMMENT="" />
    <EXPORT ORDINAL="632" NAME="?format@DecimalFormat@icu_2_2@@UBEAAVUnicodeString@2@ABVFormattable@2@AAV32@AAVFieldPosition@2@AAW4UErrorCode@@@Z" PURGE="16" COMMENT="" />
    <EXPORT ORDINAL="633" NAME="?format@DecimalFormat@icu_2_2@@UBEAAVUnicodeString@2@JAAV32@AAVFieldPosition@2@@Z" PURGE="12" COMMENT="" />
    <EXPORT ORDINAL="634" NAME="?format@DecimalFormat@icu_2_2@@UBEAAVUnicodeString@2@NAAV32@AAVFieldPosition@2@@Z" PURGE="16" COMMENT="" />
    <EXPORT ORDINAL="635" NAME="?format@Format@icu_2_2@@QBEAAVUnicodeString@2@ABVFormattable@2@AAV32@AAW4UErrorCode@@@Z" PURGE="12" COMMENT="" />
    <EXPORT ORDINAL="636" NAME="?format@MessageFormat@icu_2_2@@ABEAAVUnicodeString@2@PBVFormattable@2@JAAV32@AAVFieldPosition@2@JAAW4UErrorCode@@@Z" PURGE="24" COMMENT="" />
    <EXPORT ORDINAL="637" NAME="?format@MessageFormat@icu_2_2@@QBEAAVUnicodeString@2@ABVFormattable@2@AAV32@AAW4UErrorCode@@@Z" PURGE="12" COMMENT="" />
    <EXPORT ORDINAL="638" NAME="?format@MessageFormat@icu_2_2@@QBEAAVUnicodeString@2@PBVFormattable@2@JAAV32@AAVFieldPosition@2@AAW4UErrorCode@@@Z" PURGE="20" COMMENT="" />
    <EXPORT ORDINAL="639" NAME="?format@MessageFormat@icu_2_2@@SAAAVUnicodeString@2@ABV32@PBVFormattable@2@JAAV32@AAW4UErrorCode@@@Z" PURGE="0" COMMENT="" />
    <EXPORT ORDINAL="640" NAME="?format@MessageFormat@icu_2_2@@UBEAAVUnicodeString@2@ABVFormattable@2@AAV32@AAVFieldPosition@2@AAW4UErrorCode@@@Z" PURGE="16" COMMENT="" />
    <EXPORT ORDINAL="641" NAME="?format@NumberFormat@icu_2_2@@QBEAAVUnicodeString@2@ABVFormattable@2@AAV32@AAW4UErrorCode@@@Z" PURGE="12" COMMENT="" />
    <EXPORT ORDINAL="642" NAME="?format@NumberFormat@icu_2_2@@QBEAAVUnicodeString@2@JAAV32@@Z" PURGE="8" COMMENT="" />
    <EXPORT ORDINAL="643" NAME="?format@NumberFormat@icu_2_2@@QBEAAVUnicodeString@2@NAAV32@@Z" PURGE="12" COMMENT="" />
    <EXPORT ORDINAL="644" NAME="?format@NumberFormat@icu_2_2@@UBEAAVUnicodeString@2@ABVFormattable@2@AAV32@AAVFieldPosition@2@AAW4UErrorCode@@@Z" PURGE="16" COMMENT="" />
    <EXPORT ORDINAL="645" NAME="?format@RuleBasedNumberFormat@icu_2_2@@QBEAAVUnicodeString@2@ABVFormattable@2@AAV32@AAW4UErrorCode@@@Z" PURGE="12" COMMENT="" />
    <EXPORT ORDINAL="646" NAME="?format@RuleBasedNumberFormat@icu_2_2@@QBEAAVUnicodeString@2@JAAV32@@Z" PURGE="8" COMMENT="" />
    <EXPORT ORDINAL="647" NAME="?format@RuleBasedNumberFormat@icu_2_2@@QBEAAVUnicodeString@2@NAAV32@@Z" PURGE="12" COMMENT="" />
    <EXPORT ORDINAL="648" NAME="?format@RuleBasedNumberFormat@icu_2_2@@UBEAAVUnicodeString@2@ABVFormattable@2@AAV32@AAVFieldPosition@2@AAW4UErrorCode@@@Z" PURGE="16" COMMENT="" />
    <EXPORT ORDINAL="649" NAME="?format@RuleBasedNumberFormat@icu_2_2@@UBEAAVUnicodeString@2@JAAV32@AAVFieldPosition@2@@Z" PURGE="12" COMMENT="" />
    <EXPORT ORDINAL="650" NAME="?format@RuleBasedNumberFormat@icu_2_2@@UBEAAVUnicodeString@2@JABV32@AAV32@AAVFieldPosition@2@AAW4UErrorCode@@@Z" PURGE="20" COMMENT="" />
    <EXPORT ORDINAL="651" NAME="?format@RuleBasedNumberFormat@icu_2_2@@UBEAAVUnicodeString@2@NAAV32@AAVFieldPosition@2@@Z" PURGE="16" COMMENT="" />
    <EXPORT ORDINAL="652" NAME="?format@RuleBasedNumberFormat@icu_2_2@@UBEAAVUnicodeString@2@NABV32@AAV32@AAVFieldPosition@2@AAW4UErrorCode@@@Z" PURGE="24" COMMENT="" />
    <EXPORT ORDINAL="653" NAME="?format@RuleBasedNumberFormat@icu_2_2@@UBEAAVUnicodeString@2@_JAAV32@AAVFieldPosition@2@@Z" PURGE="16" COMMENT="" />
    <EXPORT ORDINAL="654" NAME="?format@RuleBasedNumberFormat@icu_2_2@@UBEAAVUnicodeString@2@_JABV32@AAV32@AAVFieldPosition@2@AAW4UErrorCode@@@Z" PURGE="24" COMMENT="" />
    <EXPORT ORDINAL="655" NAME="?format@SimpleDateFormat@icu_2_2@@QBEAAVUnicodeString@2@ABVFormattable@2@AAV32@AAW4UErrorCode@@@Z" PURGE="12" COMMENT="" />
    <EXPORT ORDINAL="656" NAME="?format@SimpleDateFormat@icu_2_2@@QBEAAVUnicodeString@2@NAAV32@@Z" PURGE="12" COMMENT="" />
    <EXPORT ORDINAL="657" NAME="?format@SimpleDateFormat@icu_2_2@@QBEAAVUnicodeString@2@NAAV32@AAVFieldPosition@2@@Z" PURGE="16" COMMENT="" />
    <EXPORT ORDINAL="658" NAME="?format@SimpleDateFormat@icu_2_2@@UBEAAVUnicodeString@2@AAVCalendar@2@AAV32@AAVFieldPosition@2@@Z" PURGE="12" COMMENT="" />
    <EXPORT ORDINAL="659" NAME="?format@SimpleDateFormat@icu_2_2@@UBEAAVUnicodeString@2@ABVFormattable@2@AAV32@AAVFieldPosition@2@AAW4UErrorCode@@@Z" PURGE="16" COMMENT="" />
    <EXPORT ORDINAL="660" NAME="?freeTransliterators@CompoundTransliterator@icu_2_2@@AAEXXZ" PURGE="0" COMMENT="" />
    <EXPORT ORDINAL="661" NAME="?freeze@TransliterationRuleSet@icu_2_2@@UAEXAAU_UParseError@@AAW4UErrorCode@@@Z" PURGE="8" COMMENT="" />
    <EXPORT ORDINAL="662" NAME="?get2DigitYearStart@SimpleDateFormat@icu_2_2@@QBENAAW4UErrorCode@@@Z" PURGE="4" COMMENT="" />
    <EXPORT ORDINAL="663" NAME="?get@Calendar@icu_2_2@@QBEJW4EDateFields@12@AAW4UErrorCode@@@Z" PURGE="8" COMMENT="" />
    <EXPORT ORDINAL="664" NAME="?getActualMaximum@Calendar@icu_2_2@@QBEJW4EDateFields@12@AAW4UErrorCode@@@Z" PURGE="8" COMMENT="" />
    <EXPORT ORDINAL="665" NAME="?getActualMaximum@GregorianCalendar@icu_2_2@@QBEJW4EDateFields@Calendar@2@@Z" PURGE="4" COMMENT="" />
    <EXPORT ORDINAL="666" NAME="?getActualMinimum@Calendar@icu_2_2@@QBEJW4EDateFields@12@AAW4UErrorCode@@@Z" PURGE="8" COMMENT="" />
    <EXPORT ORDINAL="667" NAME="?getActualMinimum@GregorianCalendar@icu_2_2@@QBEJW4EDateFields@Calendar@2@@Z" PURGE="-1" COMMENT="" />
    <EXPORT ORDINAL="668" NAME="?getAmPmStrings@DateFormatSymbols@icu_2_2@@QBEPBVUnicodeString@2@AAJ@Z" PURGE="4" COMMENT="" />
    <EXPORT ORDINAL="669" NAME="?getArray@Formattable@icu_2_2@@QBEPBV12@AAJ@Z" PURGE="4" COMMENT="" />
    <EXPORT ORDINAL="670" NAME="?getAttribute@RuleBasedCollator@icu_2_2@@UAE?AW4UColAttributeValue@@W4UColAttribute@@AAW4UErrorCode@@@Z" PURGE="8" COMMENT="" />
    <EXPORT ORDINAL="671" NAME="?getAttribute@SearchIterator@icu_2_2@@QBE?AW4USearchAttributeValue@@W4USearchAttribute@@@Z" PURGE="4" COMMENT="" />
    <EXPORT ORDINAL="672" NAME="?getAvailableID@Transliterator@icu_2_2@@SAABVUnicodeString@2@J@Z" PURGE="0" COMMENT="" />
    <EXPORT ORDINAL="673" NAME="?getAvailableLocales@Calendar@icu_2_2@@SAPBVLocale@2@AAJ@Z" PURGE="-1" COMMENT="" />
    <EXPORT ORDINAL="674" NAME="?getAvailableLocales@Collator@icu_2_2@@SAPBVLocale@2@AAJ@Z" PURGE="-1" COMMENT="" />
    <EXPORT ORDINAL="675" NAME="?getAvailableLocales@DateFormat@icu_2_2@@SAPBVLocale@2@AAJ@Z" PURGE="-1" COMMENT="" />
    <EXPORT ORDINAL="676" NAME="?getAvailableLocales@NumberFormat@icu_2_2@@SAPBVLocale@2@AAJ@Z" PURGE="-1" COMMENT="" />
    <EXPORT ORDINAL="677" NAME="?getAvailableSource@Transliterator@icu_2_2@@SAAAVUnicodeString@2@JAAV32@@Z" PURGE="0" COMMENT="" />
    <EXPORT ORDINAL="678" NAME="?getAvailableTarget@Transliterator@icu_2_2@@SAAAVUnicodeString@2@JABV32@AAV32@@Z" PURGE="0" COMMENT="" />
    <EXPORT ORDINAL="679" NAME="?getAvailableVariant@Transliterator@icu_2_2@@SAAAVUnicodeString@2@JABV32@0AAV32@@Z" PURGE="0" COMMENT="" />
    <EXPORT ORDINAL="680" NAME="?getBeginIndex@FieldPosition@icu_2_2@@QBEJXZ" PURGE="0" COMMENT="" />
    <EXPORT ORDINAL="681" NAME="?getBound@Collator@icu_2_2@@SAJPBEJW4UColBoundMode@@KPAEJAAW4UErrorCode@@@Z" PURGE="0" COMMENT="" />
    <EXPORT ORDINAL="682" NAME="?getBreakIterator@SearchIterator@icu_2_2@@QBEPBVBreakIterator@2@XZ" PURGE="0" COMMENT="" />
    <EXPORT ORDINAL="683" NAME="?getByteArray@CollationKey@icu_2_2@@QBEPBEAAJ@Z" PURGE="4" COMMENT="" />
    <EXPORT ORDINAL="684" NAME="?getCalendar@DateFormat@icu_2_2@@UBEPBVCalendar@2@XZ" PURGE="0" COMMENT="" />
    <EXPORT ORDINAL="685" NAME="?getClosures@ChoiceFormat@icu_2_2@@UBEPBCAAJ@Z" PURGE="4" COMMENT="" />
    <EXPORT ORDINAL="686" NAME="?getCollationKey@RuleBasedCollator@icu_2_2@@UBEAAVCollationKey@2@ABVUnicodeString@2@AAV32@AAW4UErrorCode@@@Z" PURGE="12" COMMENT="" />
    <EXPORT ORDINAL="687" NAME="?getCollationKey@RuleBasedCollator@icu_2_2@@UBEAAVCollationKey@2@PBGJAAV32@AAW4UErrorCode@@@Z" PURGE="16" COMMENT="" />
    <EXPORT ORDINAL="688" NAME="?getCollator@RuleBasedNumberFormat@icu_2_2@@ABEPAVCollator@2@XZ" PURGE="0" COMMENT="" />
    <EXPORT ORDINAL="689" NAME="?getCollator@StringSearch@icu_2_2@@QBEPAVRuleBasedCollator@2@XZ" PURGE="0" COMMENT="" />
    <EXPORT ORDINAL="690" NAME="?getCount@CompoundTransliterator@icu_2_2@@UBEJXZ" PURGE="0" COMMENT="" />
    <EXPORT ORDINAL="691" NAME="?getCurrency@DecimalFormat@icu_2_2@@QBEPBGXZ" PURGE="0" COMMENT="" />
    <EXPORT ORDINAL="692" NAME="?getDSTSavings@SimpleTimeZone@icu_2_2@@QBEJXZ" PURGE="0" COMMENT="" />
    <EXPORT ORDINAL="693" NAME="?getDate@Formattable@icu_2_2@@QBENXZ" PURGE="0" COMMENT="" />
    <EXPORT ORDINAL="694" NAME="?getDateFormatSymbols@SimpleDateFormat@icu_2_2@@UBEPBVDateFormatSymbols@2@XZ" PURGE="0" COMMENT="" />
    <EXPORT ORDINAL="695" NAME="?getDecimalFormatSymbols@DecimalFormat@icu_2_2@@UBEPBVDecimalFormatSymbols@2@XZ" PURGE="0" COMMENT="" />
    <EXPORT ORDINAL="696" NAME="?getDecimalFormatSymbols@RuleBasedNumberFormat@icu_2_2@@ABEPAVDecimalFormatSymbols@2@XZ" PURGE="0" COMMENT="" />
    <EXPORT ORDINAL="697" NAME="?getDecomposition@RuleBasedCollator@icu_2_2@@UBE?AW4EMode@Normalizer@2@XZ" PURGE="0" COMMENT="" />
    <EXPORT ORDINAL="698" NAME="?getDefaultRuleSet@RuleBasedNumberFormat@icu_2_2@@ABEPAVNFRuleSet@2@XZ" PURGE="0" COMMENT="" />
    <EXPORT ORDINAL="699" NAME="?getDisplayName@Collator@icu_2_2@@SAAAVUnicodeString@2@ABVLocale@2@0AAV32@@Z" PURGE="0" COMMENT="" />
    <EXPORT ORDINAL="700" NAME="?getDisplayName@Collator@icu_2_2@@SAAAVUnicodeString@2@ABVLocale@2@AAV32@@Z" PURGE="0" COMMENT="" />
    <EXPORT ORDINAL="701" NAME="?getDisplayName@TimeZone@icu_2_2@@QBEAAVUnicodeString@2@AAV32@@Z" PURGE="4" COMMENT="" />
    <EXPORT ORDINAL="702" NAME="?getDisplayName@TimeZone@icu_2_2@@QBEAAVUnicodeString@2@ABVLocale@2@AAV32@@Z" PURGE="8" COMMENT="" />
    <EXPORT ORDINAL="703" NAME="?getDisplayName@TimeZone@icu_2_2@@QBEAAVUnicodeString@2@CW4EDisplayType@12@AAV32@@Z" PURGE="12" COMMENT="" />
    <EXPORT ORDINAL="704" NAME="?getDisplayName@TimeZone@icu_2_2@@QBEAAVUnicodeString@2@CW4EDisplayType@12@ABVLocale@2@AAV32@@Z" PURGE="16" COMMENT="" />
    <EXPORT ORDINAL="705" NAME="?getDisplayName@Transliterator@icu_2_2@@SAAAVUnicodeString@2@ABV32@AAV32@@Z" PURGE="0" COMMENT="" />
    <EXPORT ORDINAL="706" NAME="?getDisplayName@Transliterator@icu_2_2@@SAAAVUnicodeString@2@ABV32@ABVLocale@2@AAV32@@Z" PURGE="0" COMMENT="" />
    <EXPORT ORDINAL="707" NAME="?getDouble@Formattable@icu_2_2@@QBENXZ" PURGE="0" COMMENT="" />
    <EXPORT ORDINAL="708" NAME="?getDynamicClassID@AnyTransliterator@icu_2_2@@UBEPAXXZ" PURGE="0" COMMENT="" />
    <EXPORT ORDINAL="709" NAME="?getDynamicClassID@CanonicalIterator@icu_2_2@@UBEPAXXZ" PURGE="0" COMMENT="" />
    <EXPORT ORDINAL="710" NAME="?getDynamicClassID@ChoiceFormat@icu_2_2@@UBEPAXXZ" PURGE="0" COMMENT="" />
    <EXPORT ORDINAL="711" NAME="?getDynamicClassID@CollationElementIterator@icu_2_2@@UBEPAXXZ" PURGE="0" COMMENT="" />
    <EXPORT ORDINAL="712" NAME="?getDynamicClassID@CollationKey@icu_2_2@@UBEPAXXZ" PURGE="0" COMMENT="" />
    <EXPORT ORDINAL="713" NAME="?getDynamicClassID@CompoundTransliterator@icu_2_2@@MBEPAXXZ" PURGE="0" COMMENT="" />
    <EXPORT ORDINAL="714" NAME="?getDynamicClassID@DateFormatSymbols@icu_2_2@@UBEPAXXZ" PURGE="0" COMMENT="" />
    <EXPORT ORDINAL="715" NAME="?getDynamicClassID@DecimalFormat@icu_2_2@@UBEPAXXZ" PURGE="0" COMMENT="" />
    <EXPORT ORDINAL="716" NAME="?getDynamicClassID@DecimalFormatSymbols@icu_2_2@@UBEPAXXZ" PURGE="0" COMMENT="" />
    <EXPORT ORDINAL="717" NAME="?getDynamicClassID@EscapeTransliterator@icu_2_2@@UBEPAXXZ" PURGE="0" COMMENT="" />
    <EXPORT ORDINAL="718" NAME="?getDynamicClassID@FieldPosition@icu_2_2@@UBEPAXXZ" PURGE="0" COMMENT="" />
    <EXPORT ORDINAL="719" NAME="?getDynamicClassID@Formattable@icu_2_2@@UBEPAXXZ" PURGE="0" COMMENT="" />
    <EXPORT ORDINAL="720" NAME="?getDynamicClassID@GregorianCalendar@icu_2_2@@UBEPAXXZ" PURGE="0" COMMENT="" />
    <EXPORT ORDINAL="721" NAME="?getDynamicClassID@HexToUnicodeTransliterator@icu_2_2@@UBEPAXXZ" PURGE="0" COMMENT="" />
    <EXPORT ORDINAL="722" NAME="?getDynamicClassID@LowercaseTransliterator@icu_2_2@@UBEPAXXZ" PURGE="0" COMMENT="" />
    <EXPORT ORDINAL="723" NAME="?getDynamicClassID@MessageFormat@icu_2_2@@UBEPAXXZ" PURGE="0" COMMENT="" />
    <EXPORT ORDINAL="724" NAME="?getDynamicClassID@NameUnicodeTransliterator@icu_2_2@@UBEPAXXZ" PURGE="0" COMMENT="" />
    <EXPORT ORDINAL="725" NAME="?getDynamicClassID@NormalizationTransliterator@icu_2_2@@UBEPAXXZ" PURGE="0" COMMENT="" />
    <EXPORT ORDINAL="726" NAME="?getDynamicClassID@NullTransliterator@icu_2_2@@UBEPAXXZ" PURGE="0" COMMENT="" />
    <EXPORT ORDINAL="727" NAME="?getDynamicClassID@NumberFormat@icu_2_2@@UBEPAXXZ" PURGE="0" COMMENT="" />
    <EXPORT ORDINAL="728" NAME="?getDynamicClassID@RemoveTransliterator@icu_2_2@@UBEPAXXZ" PURGE="0" COMMENT="" />
    <EXPORT ORDINAL="729" NAME="?getDynamicClassID@RuleBasedCollator@icu_2_2@@UBEPAXXZ" PURGE="0" COMMENT="" />
    <EXPORT ORDINAL="730" NAME="?getDynamicClassID@RuleBasedNumberFormat@icu_2_2@@UBEPAXXZ" PURGE="0" COMMENT="" />
    <EXPORT ORDINAL="731" NAME="?getDynamicClassID@RuleBasedTransliterator@icu_2_2@@UBEPAXXZ" PURGE="0" COMMENT="" />
    <EXPORT ORDINAL="732" NAME="?getDynamicClassID@SimpleDateFormat@icu_2_2@@UBEPAXXZ" PURGE="0" COMMENT="" />
    <EXPORT ORDINAL="733" NAME="?getDynamicClassID@SimpleTimeZone@icu_2_2@@UBEPAXXZ" PURGE="0" COMMENT="" />
    <EXPORT ORDINAL="734" NAME="?getDynamicClassID@StringSearch@icu_2_2@@UBEPAXXZ" PURGE="0" COMMENT="" />
    <EXPORT ORDINAL="735" NAME="?getDynamicClassID@TitlecaseTransliterator@icu_2_2@@UBEPAXXZ" PURGE="0" COMMENT="" />
    <EXPORT ORDINAL="736" NAME="?getDynamicClassID@TransliterationRuleData@icu_2_2@@UBEPAXXZ" PURGE="0" COMMENT="" />
    <EXPORT ORDINAL="737" NAME="?getDynamicClassID@TransliterationRuleSet@icu_2_2@@UBEPAXXZ" PURGE="0" COMMENT="" />
    <EXPORT ORDINAL="738" NAME="?getDynamicClassID@Transliterator@icu_2_2@@UBEPAXXZ" PURGE="0" COMMENT="" />
    <EXPORT ORDINAL="739" NAME="?getDynamicClassID@UnescapeTransliterator@icu_2_2@@UBEPAXXZ" PURGE="0" COMMENT="" />
    <EXPORT ORDINAL="740" NAME="?getDynamicClassID@UnicodeNameTransliterator@icu_2_2@@UBEPAXXZ" PURGE="0" COMMENT="" />
    <EXPORT ORDINAL="741" NAME="?getDynamicClassID@UnicodeToHexTransliterator@icu_2_2@@UBEPAXXZ" PURGE="0" COMMENT="" />
    <EXPORT ORDINAL="742" NAME="?getDynamicClassID@UppercaseTransliterator@icu_2_2@@UBEPAXXZ" PURGE="0" COMMENT="" />
    <EXPORT ORDINAL="743" NAME="?getECollationStrength@RuleBasedCollator@icu_2_2@@ABE?AW4ECollationStrength@Collator@2@ABW4UColAttributeValue@@@Z" PURGE="4" COMMENT="" />
    <EXPORT ORDINAL="744" NAME="?getEComparisonResult@RuleBasedCollator@icu_2_2@@ABE?AW4EComparisonResult@Collator@2@ABW4UCollationResult@@@Z" PURGE="4" COMMENT="" />
    <EXPORT ORDINAL="745" NAME="?getEndIndex@FieldPosition@icu_2_2@@QBEJXZ" PURGE="0" COMMENT="" />
    <EXPORT ORDINAL="746" NAME="?getEpochDay@GregorianCalendar@icu_2_2@@AAENAAW4UErrorCode@@@Z" PURGE="4" COMMENT="" />
    <EXPORT ORDINAL="747" NAME="?getEquivalentID@TimeZone@icu_2_2@@SA?BVUnicodeString@2@ABV32@J@Z" PURGE="0" COMMENT="" />
    <EXPORT ORDINAL="748" NAME="?getEquivalents2@CanonicalIterator@icu_2_2@@AAEPAVHashtable@2@PBGJAAW4UErrorCode@@@Z" PURGE="12" COMMENT="" />
    <EXPORT ORDINAL="749" NAME="?getEquivalents@CanonicalIterator@icu_2_2@@AAEPAVUnicodeString@2@ABV32@AAJAAW4UErrorCode@@@Z" PURGE="12" COMMENT="" />
    <EXPORT ORDINAL="750" NAME="?getEras@DateFormatSymbols@icu_2_2@@QBEPBVUnicodeString@2@AAJ@Z" PURGE="4" COMMENT="" />
    <EXPORT ORDINAL="751" NAME="?getField@FieldPosition@icu_2_2@@QBEJXZ" PURGE="0" COMMENT="" />
    <EXPORT ORDINAL="752" NAME="?getFilter@Transliterator@icu_2_2@@QBEPBVUnicodeFilter@2@XZ" PURGE="0" COMMENT="" />
    <EXPORT ORDINAL="753" NAME="?getFirstDayOfWeek@Calendar@icu_2_2@@QBE?AW4EDaysOfWeek@12@XZ" PURGE="0" COMMENT="" />
    <EXPORT ORDINAL="754" NAME="?getFormatTypeList@MessageFormat@icu_2_2@@QAEPBW4Type@Formattable@2@AAJ@Z" PURGE="4" COMMENT="" />
    <EXPORT ORDINAL="755" NAME="?getFormatWidth@DecimalFormat@icu_2_2@@UAEJXZ" PURGE="0" COMMENT="" />
    <EXPORT ORDINAL="756" NAME="?getFormats@ChoiceFormat@icu_2_2@@UBEPBVUnicodeString@2@AAJ@Z" PURGE="4" COMMENT="" />
    <EXPORT ORDINAL="757" NAME="?getFormats@MessageFormat@icu_2_2@@UBEPAPBVFormat@2@AAJ@Z" PURGE="4" COMMENT="" />
    <EXPORT ORDINAL="758" NAME="?getGMT@TimeZone@icu_2_2@@SAPBV12@XZ" PURGE="0" COMMENT="" />
    <EXPORT ORDINAL="759" NAME="?getGreatestMinimum@GregorianCalendar@icu_2_2@@UBEJW4EDateFields@Calendar@2@@Z" PURGE="4" COMMENT="" />
    <EXPORT ORDINAL="760" NAME="?getGregorianChange@GregorianCalendar@icu_2_2@@QBENXZ" PURGE="0" COMMENT="" />
    <EXPORT ORDINAL="761" NAME="?getGroupingSize@DecimalFormat@icu_2_2@@QBEJXZ" PURGE="0" COMMENT="" />
    <EXPORT ORDINAL="762" NAME="?getID@TimeZone@icu_2_2@@QBEAAVUnicodeString@2@AAV32@@Z" PURGE="4" COMMENT="" />
    <EXPORT ORDINAL="763" NAME="?getID@Transliterator@icu_2_2@@UBEABVUnicodeString@2@XZ" PURGE="0" COMMENT="" />
    <EXPORT ORDINAL="764" NAME="?getLeastMaximum@GregorianCalendar@icu_2_2@@UBEJW4EDateFields@Calendar@2@@Z" PURGE="4" COMMENT="" />
    <EXPORT ORDINAL="765" NAME="?getLimits@ChoiceFormat@icu_2_2@@UBEPBNAAJ@Z" PURGE="4" COMMENT="" />
    <EXPORT ORDINAL="766" NAME="?getLocalPatternChars@DateFormatSymbols@icu_2_2@@QBEAAVUnicodeString@2@AAV32@@Z" PURGE="4" COMMENT="" />
    <EXPORT ORDINAL="767" NAME="?getLocale@DecimalFormatSymbols@icu_2_2@@QBE?AVLocale@2@XZ" PURGE="4" COMMENT="" />
    <EXPORT ORDINAL="768" NAME="?getLocale@MessageFormat@icu_2_2@@UBEABVLocale@2@XZ" PURGE="0" COMMENT="" />
    <EXPORT ORDINAL="769" NAME="?getLocale@RuleBasedCollator@icu_2_2@@UBE?BVLocale@2@W4ULocDataLocaleType@@AAW4UErrorCode@@@Z" PURGE="12" COMMENT="" />
    <EXPORT ORDINAL="770" NAME="?getLong@Formattable@icu_2_2@@QBEJXZ" PURGE="0" COMMENT="" />
    <EXPORT ORDINAL="771" NAME="?getMatchedLength@SearchIterator@icu_2_2@@QBEJXZ" PURGE="0" COMMENT="" />
    <EXPORT ORDINAL="772" NAME="?getMatchedStart@SearchIterator@icu_2_2@@QBEJXZ" PURGE="0" COMMENT="" />
    <EXPORT ORDINAL="773" NAME="?getMatchedText@SearchIterator@icu_2_2@@QBEXAAVUnicodeString@2@@Z" PURGE="4" COMMENT="" />
    <EXPORT ORDINAL="774" NAME="?getMaxExpansion@CollationElementIterator@icu_2_2@@QBEJJ@Z" PURGE="4" COMMENT="" />
    <EXPORT ORDINAL="775" NAME="?getMaxExpansion@RuleBasedCollator@icu_2_2@@QBEJJ@Z" PURGE="4" COMMENT="" />
    <EXPORT ORDINAL="776" NAME="?getMaximum@GregorianCalendar@icu_2_2@@UBEJW4EDateFields@Calendar@2@@Z" PURGE="4" COMMENT="" />
    <EXPORT ORDINAL="777" NAME="?getMaximumContextLength@TransliterationRuleSet@icu_2_2@@UBEJXZ" PURGE="0" COMMENT="" />
    <EXPORT ORDINAL="778" NAME="?getMaximumContextLength@Transliterator@icu_2_2@@QBEJXZ" PURGE="0" COMMENT="" />
    <EXPORT ORDINAL="779" NAME="?getMaximumFractionDigits@NumberFormat@icu_2_2@@QBEJXZ" PURGE="0" COMMENT="" />
    <EXPORT ORDINAL="780" NAME="?getMaximumIntegerDigits@NumberFormat@icu_2_2@@QBEJXZ" PURGE="0" COMMENT="" />
    <EXPORT ORDINAL="781" NAME="?getMinimalDaysInFirstWeek@Calendar@icu_2_2@@QBEEXZ" PURGE="0" COMMENT="" />
    <EXPORT ORDINAL="782" NAME="?getMinimum@GregorianCalendar@icu_2_2@@UBEJW4EDateFields@Calendar@2@@Z" PURGE="4" COMMENT="" />
    <EXPORT ORDINAL="783" NAME="?getMinimumExponentDigits@DecimalFormat@icu_2_2@@UAECXZ" PURGE="0" COMMENT="" />
    <EXPORT ORDINAL="784" NAME="?getMinimumFractionDigits@NumberFormat@icu_2_2@@QBEJXZ" PURGE="0" COMMENT="" />
    <EXPORT ORDINAL="785" NAME="?getMinimumIntegerDigits@NumberFormat@icu_2_2@@QBEJXZ" PURGE="0" COMMENT="" />
    <EXPORT ORDINAL="786" NAME="?getMonths@DateFormatSymbols@icu_2_2@@QBEPBVUnicodeString@2@AAJ@Z" PURGE="4" COMMENT="" />
    <EXPORT ORDINAL="787" NAME="?getMultiplier@DecimalFormat@icu_2_2@@QBEJXZ" PURGE="0" COMMENT="" />
    <EXPORT ORDINAL="788" NAME="?getNegativePrefix@DecimalFormat@icu_2_2@@QBEAAVUnicodeString@2@AAV32@@Z" PURGE="4" COMMENT="" />
    <EXPORT ORDINAL="789" NAME="?getNegativeSuffix@DecimalFormat@icu_2_2@@QBEAAVUnicodeString@2@AAV32@@Z" PURGE="4" COMMENT="" />
    <EXPORT ORDINAL="790" NAME="?getNow@Calendar@icu_2_2@@SANXZ" PURGE="0" COMMENT="" />
    <EXPORT ORDINAL="791" NAME="?getNumberFormat@DateFormat@icu_2_2@@UBEPBVNumberFormat@2@XZ" PURGE="0" COMMENT="" />
    <EXPORT ORDINAL="792" NAME="?getNumberOfRuleSetNames@RuleBasedNumberFormat@icu_2_2@@UBEJXZ" PURGE="0" COMMENT="" />
    <EXPORT ORDINAL="793" NAME="?getOffset@CollationElementIterator@icu_2_2@@QBEJXZ" PURGE="0" COMMENT="" />
    <EXPORT ORDINAL="794" NAME="?getOffset@SimpleTimeZone@icu_2_2@@UBEJEJJJEJ@Z" PURGE="24" COMMENT="" />
    <EXPORT ORDINAL="795" NAME="?getOffset@SimpleTimeZone@icu_2_2@@UBEJEJJJEJAAW4UErrorCode@@@Z" PURGE="28" COMMENT="" />
    <EXPORT ORDINAL="796" NAME="?getOffset@SimpleTimeZone@icu_2_2@@UBEJEJJJEJJAAW4UErrorCode@@@Z" PURGE="32" COMMENT="" />
    <EXPORT ORDINAL="797" NAME="?getOffset@SimpleTimeZone@icu_2_2@@UBEJEJJJEJJJAAW4UErrorCode@@@Z" PURGE="36" COMMENT="" />
    <EXPORT ORDINAL="798" NAME="?getOffset@StringSearch@icu_2_2@@UBEJXZ" PURGE="0" COMMENT="" />
    <EXPORT ORDINAL="799" NAME="?getPadCharacterString@DecimalFormat@icu_2_2@@UAE?AVUnicodeString@2@XZ" PURGE="4" COMMENT="" />
    <EXPORT ORDINAL="800" NAME="?getPadPosition@DecimalFormat@icu_2_2@@UAE?AW4EPadPosition@12@XZ" PURGE="0" COMMENT="" />
    <EXPORT ORDINAL="801" NAME="?getPattern@StringSearch@icu_2_2@@QBEABVUnicodeString@2@XZ" PURGE="0" COMMENT="" />
    <EXPORT ORDINAL="802" NAME="?getPatternChars@DateFormatSymbols@icu_2_2@@SAABVUnicodeString@2@XZ" PURGE="0" COMMENT="" />
    <EXPORT ORDINAL="803" NAME="?getPatternUChars@DateFormatSymbols@icu_2_2@@SAPBGXZ" PURGE="0" COMMENT="" />
    <EXPORT ORDINAL="804" NAME="?getPositivePrefix@DecimalFormat@icu_2_2@@QBEAAVUnicodeString@2@AAV32@@Z" PURGE="4" COMMENT="" />
    <EXPORT ORDINAL="805" NAME="?getPositiveSuffix@DecimalFormat@icu_2_2@@QBEAAVUnicodeString@2@AAV32@@Z" PURGE="4" COMMENT="" />
    <EXPORT ORDINAL="806" NAME="?getRawOffset@SimpleTimeZone@icu_2_2@@UBEJXZ" PURGE="0" COMMENT="" />
    <EXPORT ORDINAL="807" NAME="?getRoundingIncrement@DecimalFormat@icu_2_2@@UAENXZ" PURGE="0" COMMENT="" />
    <EXPORT ORDINAL="808" NAME="?getRoundingMode@DecimalFormat@icu_2_2@@UAE?AW4ERoundingMode@12@XZ" PURGE="0" COMMENT="" />
    <EXPORT ORDINAL="809" NAME="?getRuleSetName@RuleBasedNumberFormat@icu_2_2@@UBE?AVUnicodeString@2@J@Z" PURGE="8" COMMENT="" />
    <EXPORT ORDINAL="810" NAME="?getRules@RuleBasedCollator@icu_2_2@@QAEXW4UColRuleOption@@AAVUnicodeString@2@@Z" PURGE="8" COMMENT="" />
    <EXPORT ORDINAL="811" NAME="?getRules@RuleBasedCollator@icu_2_2@@QBEABVUnicodeString@2@XZ" PURGE="0" COMMENT="" />
    <EXPORT ORDINAL="812" NAME="?getRules@RuleBasedNumberFormat@icu_2_2@@UBE?AVUnicodeString@2@XZ" PURGE="4" COMMENT="" />
    <EXPORT ORDINAL="813" NAME="?getSecondaryGroupingSize@DecimalFormat@icu_2_2@@QBEJXZ" PURGE="0" COMMENT="" />
    <EXPORT ORDINAL="814" NAME="?getShortMonths@DateFormatSymbols@icu_2_2@@QBEPBVUnicodeString@2@AAJ@Z" PURGE="4" COMMENT="" />
    <EXPORT ORDINAL="815" NAME="?getShortWeekdays@DateFormatSymbols@icu_2_2@@QBEPBVUnicodeString@2@AAJ@Z" PURGE="4" COMMENT="" />
    <EXPORT ORDINAL="816" NAME="?getSortKey@RuleBasedCollator@icu_2_2@@UBEJABVUnicodeString@2@PAEJ@Z" PURGE="12" COMMENT="" />
    <EXPORT ORDINAL="817" NAME="?getSortKey@RuleBasedCollator@icu_2_2@@UBEJPBGJPAEJ@Z" PURGE="16" COMMENT="" />
    <EXPORT ORDINAL="818" NAME="?getSource@CanonicalIterator@icu_2_2@@QAE?AVUnicodeString@2@XZ" PURGE="4" COMMENT="" />
    <EXPORT ORDINAL="819" NAME="?getSourceSet@Transliterator@icu_2_2@@QBEAAVUnicodeSet@2@AAV32@@Z" PURGE="4" COMMENT="" />
    <EXPORT ORDINAL="820" NAME="?getSourceTargetSet@TransliterationRuleSet@icu_2_2@@QBEAAVUnicodeSet@2@AAV32@C@Z" PURGE="8" COMMENT="" />
    <EXPORT ORDINAL="821" NAME="?getStaticClassID@AnyTransliterator@icu_2_2@@SAPAXXZ" PURGE="0" COMMENT="" />
    <EXPORT ORDINAL="822" NAME="?getStaticClassID@CanonicalIterator@icu_2_2@@SAPAXXZ" PURGE="0" COMMENT="" />
    <EXPORT ORDINAL="823" NAME="?getStaticClassID@ChoiceFormat@icu_2_2@@SAPAXXZ" PURGE="0" COMMENT="" />
    <EXPORT ORDINAL="824" NAME="?getStaticClassID@CollationElementIterator@icu_2_2@@SAPAXXZ" PURGE="0" COMMENT="" />
    <EXPORT ORDINAL="825" NAME="?getStaticClassID@CollationKey@icu_2_2@@SAPAXXZ" PURGE="0" COMMENT="" />
    <EXPORT ORDINAL="826" NAME="?getStaticClassID@CompoundTransliterator@icu_2_2@@KAPAXXZ" PURGE="0" COMMENT="" />
    <EXPORT ORDINAL="827" NAME="?getStaticClassID@DateFormatSymbols@icu_2_2@@SAPAXXZ" PURGE="0" COMMENT="" />
    <EXPORT ORDINAL="828" NAME="?getStaticClassID@DecimalFormat@icu_2_2@@SAPAXXZ" PURGE="0" COMMENT="" />
    <EXPORT ORDINAL="829" NAME="?getStaticClassID@DecimalFormatSymbols@icu_2_2@@SAPAXXZ" PURGE="0" COMMENT="" />
    <EXPORT ORDINAL="830" NAME="?getStaticClassID@EscapeTransliterator@icu_2_2@@SAPAXXZ" PURGE="0" COMMENT="" />
    <EXPORT ORDINAL="831" NAME="?getStaticClassID@FieldPosition@icu_2_2@@SAPAXXZ" PURGE="0" COMMENT="" />
    <EXPORT ORDINAL="832" NAME="?getStaticClassID@Formattable@icu_2_2@@SAPAXXZ" PURGE="0" COMMENT="" />
    <EXPORT ORDINAL="833" NAME="?getStaticClassID@GregorianCalendar@icu_2_2@@SAPAXXZ" PURGE="0" COMMENT="" />
    <EXPORT ORDINAL="834" NAME="?getStaticClassID@HexToUnicodeTransliterator@icu_2_2@@SAPAXXZ" PURGE="0" COMMENT="" />
    <EXPORT ORDINAL="835" NAME="?getStaticClassID@LowercaseTransliterator@icu_2_2@@SAPAXXZ" PURGE="0" COMMENT="" />
    <EXPORT ORDINAL="836" NAME="?getStaticClassID@MessageFormat@icu_2_2@@SAPAXXZ" PURGE="0" COMMENT="" />
    <EXPORT ORDINAL="837" NAME="?getStaticClassID@NameUnicodeTransliterator@icu_2_2@@SAPAXXZ" PURGE="0" COMMENT="" />
    <EXPORT ORDINAL="838" NAME="?getStaticClassID@NormalizationTransliterator@icu_2_2@@SAPAXXZ" PURGE="0" COMMENT="" />
    <EXPORT ORDINAL="839" NAME="?getStaticClassID@NullTransliterator@icu_2_2@@SAPAXXZ" PURGE="0" COMMENT="" />
    <EXPORT ORDINAL="840" NAME="?getStaticClassID@NumberFormat@icu_2_2@@SAPAXXZ" PURGE="0" COMMENT="" />
    <EXPORT ORDINAL="841" NAME="?getStaticClassID@RemoveTransliterator@icu_2_2@@SAPAXXZ" PURGE="0" COMMENT="" />
    <EXPORT ORDINAL="842" NAME="?getStaticClassID@RuleBasedCollator@icu_2_2@@SAPAXXZ" PURGE="0" COMMENT="" />
    <EXPORT ORDINAL="843" NAME="?getStaticClassID@RuleBasedNumberFormat@icu_2_2@@SAPAXXZ" PURGE="0" COMMENT="" />
    <EXPORT ORDINAL="844" NAME="?getStaticClassID@RuleBasedTransliterator@icu_2_2@@SAPAXXZ" PURGE="0" COMMENT="" />
    <EXPORT ORDINAL="845" NAME="?getStaticClassID@SimpleDateFormat@icu_2_2@@SAPAXXZ" PURGE="0" COMMENT="" />
    <EXPORT ORDINAL="846" NAME="?getStaticClassID@SimpleTimeZone@icu_2_2@@SAPAXXZ" PURGE="0" COMMENT="" />
    <EXPORT ORDINAL="847" NAME="?getStaticClassID@StringSearch@icu_2_2@@SAPAXXZ" PURGE="0" COMMENT="" />
    <EXPORT ORDINAL="848" NAME="?getStaticClassID@TimeZone@icu_2_2@@SAPAXXZ" PURGE="0" COMMENT="" />
    <EXPORT ORDINAL="849" NAME="?getStaticClassID@TitlecaseTransliterator@icu_2_2@@SAPAXXZ" PURGE="0" COMMENT="" />
    <EXPORT ORDINAL="850" NAME="?getStaticClassID@TransliterationRuleData@icu_2_2@@SAPAXXZ" PURGE="0" COMMENT="" />
    <EXPORT ORDINAL="851" NAME="?getStaticClassID@TransliterationRuleSet@icu_2_2@@SAPAXXZ" PURGE="0" COMMENT="" />
    <EXPORT ORDINAL="852" NAME="?getStaticClassID@Transliterator@icu_2_2@@SAPAXXZ" PURGE="0" COMMENT="" />
    <EXPORT ORDINAL="853" NAME="?getStaticClassID@UnescapeTransliterator@icu_2_2@@SAPAXXZ" PURGE="0" COMMENT="" />
    <EXPORT ORDINAL="854" NAME="?getStaticClassID@UnicodeNameTransliterator@icu_2_2@@SAPAXXZ" PURGE="0" COMMENT="" />
    <EXPORT ORDINAL="855" NAME="?getStaticClassID@UnicodeToHexTransliterator@icu_2_2@@SAPAXXZ" PURGE="0" COMMENT="" />
    <EXPORT ORDINAL="856" NAME="?getStaticClassID@UppercaseTransliterator@icu_2_2@@SAPAXXZ" PURGE="0" COMMENT="" />
    <EXPORT ORDINAL="857" NAME="?getStrength@RuleBasedCollator@icu_2_2@@UBE?AW4ECollationStrength@Collator@2@XZ" PURGE="0" COMMENT="" />
    <EXPORT ORDINAL="858" NAME="?getString@Formattable@icu_2_2@@QAEAAVUnicodeString@2@XZ" PURGE="0" COMMENT="" />
    <EXPORT ORDINAL="859" NAME="?getString@Formattable@icu_2_2@@QBEAAVUnicodeString@2@AAV32@@Z" PURGE="4" COMMENT="" />
    <EXPORT ORDINAL="860" NAME="?getString@Formattable@icu_2_2@@QBEABVUnicodeString@2@XZ" PURGE="0" COMMENT="" />
    <EXPORT ORDINAL="861" NAME="?getSymbol@DecimalFormatSymbols@icu_2_2@@QBE?AVUnicodeString@2@W4ENumberFormatSymbol@12@@Z" PURGE="8" COMMENT="" />
    <EXPORT ORDINAL="862" NAME="?getTargetSet@CompoundTransliterator@icu_2_2@@UBEAAVUnicodeSet@2@AAV32@@Z" PURGE="4" COMMENT="" />
    <EXPORT ORDINAL="863" NAME="?getTargetSet@RuleBasedTransliterator@icu_2_2@@UBEAAVUnicodeSet@2@AAV32@@Z" PURGE="4" COMMENT="" />
    <EXPORT ORDINAL="864" NAME="?getTargetSet@Transliterator@icu_2_2@@UBEAAVUnicodeSet@2@AAV32@@Z" PURGE="4" COMMENT="" />
    <EXPORT ORDINAL="865" NAME="?getText@SearchIterator@icu_2_2@@QBEABVUnicodeString@2@XZ" PURGE="0" COMMENT="" />
    <EXPORT ORDINAL="866" NAME="?getTime@Calendar@icu_2_2@@QBENAAW4UErrorCode@@@Z" PURGE="4" COMMENT="" />
    <EXPORT ORDINAL="867" NAME="?getTimeInMillis@Calendar@icu_2_2@@IBENAAW4UErrorCode@@@Z" PURGE="4" COMMENT="" />
    <EXPORT ORDINAL="868" NAME="?getTimeZone@Calendar@icu_2_2@@QBEABVTimeZone@2@XZ" PURGE="0" COMMENT="" />
    <EXPORT ORDINAL="869" NAME="?getTimeZone@DateFormat@icu_2_2@@UBEABVTimeZone@2@XZ" PURGE="0" COMMENT="" />
    <EXPORT ORDINAL="870" NAME="?getTransliterator@AnyTransliterator@icu_2_2@@ABEPAVTransliterator@2@W4UScriptCode@@@Z" PURGE="4" COMMENT="" />
    <EXPORT ORDINAL="871" NAME="?getTransliterator@CompoundTransliterator@icu_2_2@@UBEABVTransliterator@2@J@Z" PURGE="4" COMMENT="" />
    <EXPORT ORDINAL="872" NAME="?getType@Formattable@icu_2_2@@QBE?AW4Type@12@XZ" PURGE="0" COMMENT="" />
    <EXPORT ORDINAL="873" NAME="?getUCollationStrength@RuleBasedCollator@icu_2_2@@ABE?AW4UColAttributeValue@@ABW4ECollationStrength@Collator@2@@Z" PURGE="4" COMMENT="" />
    <EXPORT ORDINAL="874" NAME="?getUCollator@RuleBasedCollator@icu_2_2@@AAEPBUUCollator@@XZ" PURGE="0" COMMENT="" />
    <EXPORT ORDINAL="875" NAME="?getVariableTop@RuleBasedCollator@icu_2_2@@UBEKAAW4UErrorCode@@@Z" PURGE="4" COMMENT="" />
    <EXPORT ORDINAL="876" NAME="?getVersion@RuleBasedCollator@icu_2_2@@UBEXQAE@Z" PURGE="4" COMMENT="" />
    <EXPORT ORDINAL="877" NAME="?getWeekdays@DateFormatSymbols@icu_2_2@@QBEPBVUnicodeString@2@AAJ@Z" PURGE="4" COMMENT="" />
    <EXPORT ORDINAL="878" NAME="?getZoneIndex@DateFormatSymbols@icu_2_2@@ABEJABVUnicodeString@2@@Z" PURGE="4" COMMENT="" />
    <EXPORT ORDINAL="879" NAME="?getZoneStrings@DateFormatSymbols@icu_2_2@@QBEPAPBVUnicodeString@2@AAJ0@Z" PURGE="8" COMMENT="" />
    <EXPORT ORDINAL="880" NAME="?greater@Collator@icu_2_2@@QBECABVUnicodeString@2@0@Z" PURGE="8" COMMENT="" />
    <EXPORT ORDINAL="881" NAME="?greaterOrEqual@Collator@icu_2_2@@QBECABVUnicodeString@2@0@Z" PURGE="8" COMMENT="" />
    <EXPORT ORDINAL="882" NAME="?handleGetSourceSet@CompoundTransliterator@icu_2_2@@MBEXAAVUnicodeSet@2@@Z" PURGE="4" COMMENT="" />
    <EXPORT ORDINAL="883" NAME="?handleGetSourceSet@RuleBasedTransliterator@icu_2_2@@MBEXAAVUnicodeSet@2@@Z" PURGE="4" COMMENT="" />
    <EXPORT ORDINAL="884" NAME="?handleGetSourceSet@Transliterator@icu_2_2@@UBEXAAVUnicodeSet@2@@Z" PURGE="4" COMMENT="" />
    <EXPORT ORDINAL="885" NAME="?handleNext@StringSearch@icu_2_2@@MAEJJAAW4UErrorCode@@@Z" PURGE="8" COMMENT="" />
    <EXPORT ORDINAL="886" NAME="?handlePrev@StringSearch@icu_2_2@@MAEJJAAW4UErrorCode@@@Z" PURGE="8" COMMENT="" />
    <EXPORT ORDINAL="887" NAME="?handleTransliterate@AnyTransliterator@icu_2_2@@UBEXAAVReplaceable@2@AAU_UTransPosition@@C@Z" PURGE="12" COMMENT="" />
    <EXPORT ORDINAL="888" NAME="?handleTransliterate@CompoundTransliterator@icu_2_2@@MBEXAAVReplaceable@2@AAU_UTransPosition@@C@Z" PURGE="12" COMMENT="" />
    <EXPORT ORDINAL="889" NAME="?handleTransliterate@EscapeTransliterator@icu_2_2@@MBEXAAVReplaceable@2@AAU_UTransPosition@@C@Z" PURGE="12" COMMENT="" />
    <EXPORT ORDINAL="890" NAME="?handleTransliterate@HexToUnicodeTransliterator@icu_2_2@@UBEXAAVReplaceable@2@AAU_UTransPosition@@C@Z" PURGE="12" COMMENT="" />
    <EXPORT ORDINAL="891" NAME="?handleTransliterate@LowercaseTransliterator@icu_2_2@@MBEXAAVReplaceable@2@AAU_UTransPosition@@C@Z" PURGE="12" COMMENT="" />
    <EXPORT ORDINAL="892" NAME="?handleTransliterate@NameUnicodeTransliterator@icu_2_2@@MBEXAAVReplaceable@2@AAU_UTransPosition@@C@Z" PURGE="12" COMMENT="" />
    <EXPORT ORDINAL="893" NAME="?handleTransliterate@NormalizationTransliterator@icu_2_2@@MBEXAAVReplaceable@2@AAU_UTransPosition@@C@Z" PURGE="12" COMMENT="" />
    <EXPORT ORDINAL="894" NAME="?handleTransliterate@NullTransliterator@icu_2_2@@UBEXAAVReplaceable@2@AAU_UTransPosition@@C@Z" PURGE="12" COMMENT="" />
    <EXPORT ORDINAL="895" NAME="?handleTransliterate@RemoveTransliterator@icu_2_2@@UBEXAAVReplaceable@2@AAU_UTransPosition@@C@Z" PURGE="12" COMMENT="" />
    <EXPORT ORDINAL="896" NAME="?handleTransliterate@RuleBasedTransliterator@icu_2_2@@MBEXAAVReplaceable@2@AAU_UTransPosition@@C@Z" PURGE="12" COMMENT="" />
    <EXPORT ORDINAL="897" NAME="?handleTransliterate@TitlecaseTransliterator@icu_2_2@@MBEXAAVReplaceable@2@AAU_UTransPosition@@C@Z" PURGE="12" COMMENT="" />
    <EXPORT ORDINAL="898" NAME="?handleTransliterate@UnescapeTransliterator@icu_2_2@@MBEXAAVReplaceable@2@AAU_UTransPosition@@C@Z" PURGE="12" COMMENT="" />
    <EXPORT ORDINAL="899" NAME="?handleTransliterate@UnicodeNameTransliterator@icu_2_2@@MBEXAAVReplaceable@2@AAU_UTransPosition@@C@Z" PURGE="12" COMMENT="" />
    <EXPORT ORDINAL="900" NAME="?handleTransliterate@UnicodeToHexTransliterator@icu_2_2@@UBEXAAVReplaceable@2@AAU_UTransPosition@@C@Z" PURGE="12" COMMENT="" />
    <EXPORT ORDINAL="901" NAME="?handleTransliterate@UppercaseTransliterator@icu_2_2@@MBEXAAVReplaceable@2@AAU_UTransPosition@@C@Z" PURGE="12" COMMENT="" />
    <EXPORT ORDINAL="902" NAME="?hasSameRules@SimpleTimeZone@icu_2_2@@UBECABVTimeZone@2@@Z" PURGE="4" COMMENT="" />
    <EXPORT ORDINAL="903" NAME="?hasSameRules@TimeZone@icu_2_2@@UBECABV12@@Z" PURGE="4" COMMENT="" />
    <EXPORT ORDINAL="904" NAME="?hashCode@CollationKey@icu_2_2@@QBEJXZ" PURGE="0" COMMENT="" />
    <EXPORT ORDINAL="905" NAME="?hashCode@RuleBasedCollator@icu_2_2@@UBEJXZ" PURGE="0" COMMENT="" />
    <EXPORT ORDINAL="906" NAME="?inDaylightTime@GregorianCalendar@icu_2_2@@UBECAAW4UErrorCode@@@Z" PURGE="4" COMMENT="" />
    <EXPORT ORDINAL="907" NAME="?inDaylightTime@SimpleTimeZone@icu_2_2@@UBECNAAW4UErrorCode@@@Z" PURGE="12" COMMENT="" />
    <EXPORT ORDINAL="908" NAME="?init@CompoundTransliterator@icu_2_2@@AAEXAAVUVector@2@W4_UTransDirection@@CAAW4UErrorCode@@@Z" PURGE="16" COMMENT="" />
    <EXPORT ORDINAL="909" NAME="?init@CompoundTransliterator@icu_2_2@@AAEXABVUnicodeString@2@W4_UTransDirection@@JPAVTransliterator@2@CAAW4UErrorCode@@@Z" PURGE="24" COMMENT="" />
    <EXPORT ORDINAL="910" NAME="?init@RuleBasedNumberFormat@icu_2_2@@AAEXABVUnicodeString@2@AAU_UParseError@@AAW4UErrorCode@@@Z" PURGE="12" COMMENT="" />
    <EXPORT ORDINAL="911" NAME="?initDefault@TimeZone@icu_2_2@@CAXXZ" PURGE="0" COMMENT="" />
    <EXPORT ORDINAL="912" NAME="?initDefaultRuleSet@RuleBasedNumberFormat@icu_2_2@@AAEXXZ" PURGE="0" COMMENT="" />
    <EXPORT ORDINAL="913" NAME="?initField@DateFormatSymbols@icu_2_2@@AAEXPAPAVUnicodeString@2@AAJPBGW4LastResortSize@12@3AAW4UErrorCode@@@Z" PURGE="24" COMMENT="" />
    <EXPORT ORDINAL="914" NAME="?initField@DateFormatSymbols@icu_2_2@@AAEXPAPAVUnicodeString@2@AAJVResourceBundle@2@AAW4UErrorCode@@@Z" PURGE="24" COMMENT="" />
    <EXPORT ORDINAL="915" NAME="?initStatics@NormalizationTransliterator@icu_2_2@@CAXXZ" PURGE="0" COMMENT="" />
    <EXPORT ORDINAL="916" NAME="?initialize@DecimalFormatSymbols@icu_2_2@@AAEXABVLocale@2@AAW4UErrorCode@@C@Z" PURGE="12" COMMENT="" />
    <EXPORT ORDINAL="917" NAME="?initialize@DecimalFormatSymbols@icu_2_2@@AAEXPBVUnicodeString@2@0@Z" PURGE="8" COMMENT="" />
    <EXPORT ORDINAL="918" NAME="?initialize@DecimalFormatSymbols@icu_2_2@@AAEXXZ" PURGE="0" COMMENT="" />
    <EXPORT ORDINAL="919" NAME="?initialize@SimpleDateFormat@icu_2_2@@AAEXABVLocale@2@AAW4UErrorCode@@@Z" PURGE="8" COMMENT="" />
    <EXPORT ORDINAL="920" NAME="?initializeData@DateFormatSymbols@icu_2_2@@AAEXABVLocale@2@AAW4UErrorCode@@C@Z" PURGE="12" COMMENT="" />
    <EXPORT ORDINAL="921" NAME="?initializeDefaultCentury@SimpleDateFormat@icu_2_2@@AAEXXZ" PURGE="0" COMMENT="" />
    <EXPORT ORDINAL="922" NAME="?initializeRegistry@Transliterator@icu_2_2@@CAXXZ" PURGE="0" COMMENT="" />
    <EXPORT ORDINAL="923" NAME="?initializeSystemDefaultCentury@SimpleDateFormat@icu_2_2@@CAXXZ" PURGE="0" COMMENT="" />
    <EXPORT ORDINAL="924" NAME="?integerToken@Transliterator@icu_2_2@@SA?ATToken@12@J@Z" PURGE="0" COMMENT="" />
    <EXPORT ORDINAL="925" NAME="?internalGet@Calendar@icu_2_2@@IBEJW4EDateFields@12@@Z" PURGE="4" COMMENT="" />
    <EXPORT ORDINAL="926" NAME="?internalGetDefaultCenturyStart@SimpleDateFormat@icu_2_2@@ABENXZ" PURGE="0" COMMENT="" />
    <EXPORT ORDINAL="927" NAME="?internalGetDefaultCenturyStartYear@SimpleDateFormat@icu_2_2@@ABEJXZ" PURGE="0" COMMENT="" />
    <EXPORT ORDINAL="928" NAME="?internalGetEra@GregorianCalendar@icu_2_2@@ABEJXZ" PURGE="0" COMMENT="" />
    <EXPORT ORDINAL="929" NAME="?internalGetTime@Calendar@icu_2_2@@IBENXZ" PURGE="0" COMMENT="" />
    <EXPORT ORDINAL="930" NAME="?internalSet@Calendar@icu_2_2@@IAEXW4EDateFields@12@J@Z" PURGE="8" COMMENT="" />
    <EXPORT ORDINAL="931" NAME="?internalSetTime@Calendar@icu_2_2@@IAEXN@Z" PURGE="8" COMMENT="" />
    <EXPORT ORDINAL="932" NAME="?isBogus@CollationKey@icu_2_2@@QBECXZ" PURGE="0" COMMENT="" />
    <EXPORT ORDINAL="933" NAME="?isDecimalSeparatorAlwaysShown@DecimalFormat@icu_2_2@@QBECXZ" PURGE="0" COMMENT="" />
    <EXPORT ORDINAL="934" NAME="?isExponentSignAlwaysShown@DecimalFormat@icu_2_2@@UAECXZ" PURGE="0" COMMENT="" />
    <EXPORT ORDINAL="935" NAME="?isGroupingPosition@DecimalFormat@icu_2_2@@ABECJ@Z" PURGE="4" COMMENT="" />
    <EXPORT ORDINAL="936" NAME="?isGroupingUsed@NumberFormat@icu_2_2@@QBECXZ" PURGE="0" COMMENT="" />
    <EXPORT ORDINAL="937" NAME="?isIgnorable@CollationElementIterator@icu_2_2@@SACJ@Z" PURGE="0" COMMENT="" />
    <EXPORT ORDINAL="938" NAME="?isLeapYear@GregorianCalendar@icu_2_2@@QBECJ@Z" PURGE="4" COMMENT="" />
    <EXPORT ORDINAL="939" NAME="?isLenient@Calendar@icu_2_2@@QBECXZ" PURGE="0" COMMENT="" />
    <EXPORT ORDINAL="940" NAME="?isLenient@DateFormat@icu_2_2@@UBECXZ" PURGE="0" COMMENT="" />
    <EXPORT ORDINAL="941" NAME="?isLenient@RuleBasedNumberFormat@icu_2_2@@UBECXZ" PURGE="0" COMMENT="" />
    <EXPORT ORDINAL="942" NAME="?isParseIntegerOnly@NumberFormat@icu_2_2@@QBECXZ" PURGE="0" COMMENT="" />
    <EXPORT ORDINAL="943" NAME="?isScientificNotation@DecimalFormat@icu_2_2@@UAECXZ" PURGE="0" COMMENT="" />
    <EXPORT ORDINAL="944" NAME="?isSet@Calendar@icu_2_2@@QBECW4EDateFields@12@@Z" PURGE="4" COMMENT="" />
    <EXPORT ORDINAL="945" NAME="?isUppercase@UnicodeToHexTransliterator@icu_2_2@@UBECXZ" PURGE="0" COMMENT="" />
    <EXPORT ORDINAL="946" NAME="?itos@MessageFormat@icu_2_2@@CAAAVUnicodeString@2@JAAV32@@Z" PURGE="0" COMMENT="" />
    <EXPORT ORDINAL="947" NAME="?joinIDs@CompoundTransliterator@icu_2_2@@AAE?AVUnicodeString@2@QBQAVTransliterator@2@J@Z" PURGE="12" COMMENT="" />
    <EXPORT ORDINAL="948" NAME="?julianDayToDayOfWeek@GregorianCalendar@icu_2_2@@CAEN@Z" PURGE="0" COMMENT="" />
    <EXPORT ORDINAL="949" NAME="?julianDayToMillis@GregorianCalendar@icu_2_2@@CANN@Z" PURGE="0" COMMENT="" />
    <EXPORT ORDINAL="950" NAME="?kCurrencySign@DecimalFormat@icu_2_2@@0GB" PURGE="-1" COMMENT="" />
    <EXPORT ORDINAL="951" NAME="?kDateTimeElements@Calendar@icu_2_2@@0QBDB" PURGE="-1" COMMENT="" />
    <EXPORT ORDINAL="952" NAME="?kDoubleFractionDigits@DecimalFormat@icu_2_2@@1JB" PURGE="-1" COMMENT="" />
    <EXPORT ORDINAL="953" NAME="?kDoubleIntegerDigits@DecimalFormat@icu_2_2@@1JB" PURGE="-1" COMMENT="" />
    <EXPORT ORDINAL="954" NAME="?kFilenameSuffix@RuleBasedCollator@icu_2_2@@0QBDB" PURGE="-1" COMMENT="" />
    <EXPORT ORDINAL="955" NAME="?kPatternDecimalSeparator@DecimalFormat@icu_2_2@@0GB" PURGE="-1" COMMENT="" />
    <EXPORT ORDINAL="956" NAME="?kPatternDigit@DecimalFormat@icu_2_2@@0GB" PURGE="-1" COMMENT="" />
    <EXPORT ORDINAL="957" NAME="?kPatternExponent@DecimalFormat@icu_2_2@@0GB" PURGE="-1" COMMENT="" />
    <EXPORT ORDINAL="958" NAME="?kPatternGroupingSeparator@DecimalFormat@icu_2_2@@0GB" PURGE="-1" COMMENT="" />
    <EXPORT ORDINAL="959" NAME="?kPatternMinus@DecimalFormat@icu_2_2@@0GB" PURGE="-1" COMMENT="" />
    <EXPORT ORDINAL="960" NAME="?kPatternPadEscape@DecimalFormat@icu_2_2@@0GB" PURGE="-1" COMMENT="" />
    <EXPORT ORDINAL="961" NAME="?kPatternPerMill@DecimalFormat@icu_2_2@@0GB" PURGE="-1" COMMENT="" />
    <EXPORT ORDINAL="962" NAME="?kPatternPercent@DecimalFormat@icu_2_2@@0GB" PURGE="-1" COMMENT="" />
    <EXPORT ORDINAL="963" NAME="?kPatternPlus@DecimalFormat@icu_2_2@@0GB" PURGE="-1" COMMENT="" />
    <EXPORT ORDINAL="964" NAME="?kPatternSeparator@DecimalFormat@icu_2_2@@0GB" PURGE="-1" COMMENT="" />
    <EXPORT ORDINAL="965" NAME="?kPatternZeroDigit@DecimalFormat@icu_2_2@@0GB" PURGE="-1" COMMENT="" />
    <EXPORT ORDINAL="966" NAME="?kQuote@DecimalFormat@icu_2_2@@0GB" PURGE="-1" COMMENT="" />
    <EXPORT ORDINAL="967" NAME="?last@SearchIterator@icu_2_2@@QAEJAAW4UErrorCode@@@Z" PURGE="4" COMMENT="" />
    <EXPORT ORDINAL="968" NAME="?lookup@TransliterationRuleData@icu_2_2@@QBEPAVUnicodeFunctor@2@K@Z" PURGE="4" COMMENT="" />
    <EXPORT ORDINAL="969" NAME="?lookupMatcher@TransliterationRuleData@icu_2_2@@QBEPAVUnicodeMatcher@2@K@Z" PURGE="4" COMMENT="" />
    <EXPORT ORDINAL="970" NAME="?lookupReplacer@TransliterationRuleData@icu_2_2@@QBEPAVUnicodeReplacer@2@K@Z" PURGE="4" COMMENT="" />
    <EXPORT ORDINAL="971" NAME="?makeFormat@MessageFormat@icu_2_2@@AAEJJPAVUnicodeString@2@AAU_UParseError@@AAW4UErrorCode@@@Z" PURGE="16" COMMENT="" />
    <EXPORT ORDINAL="972" NAME="?matchString@SimpleDateFormat@icu_2_2@@ABEJABVUnicodeString@2@JW4EDateFields@Calendar@2@PBV32@JAAV52@@Z" PURGE="24" COMMENT="" />
    <EXPORT ORDINAL="973" NAME="?millisToJulianDay@GregorianCalendar@icu_2_2@@CANN@Z" PURGE="0" COMMENT="" />
    <EXPORT ORDINAL="974" NAME="?monthLength@GregorianCalendar@icu_2_2@@ABEJJ@Z" PURGE="4" COMMENT="" />
    <EXPORT ORDINAL="975" NAME="?monthLength@GregorianCalendar@icu_2_2@@ABEJJJ@Z" PURGE="8" COMMENT="" />
    <EXPORT ORDINAL="976" NAME="?next@CanonicalIterator@icu_2_2@@QAE?AVUnicodeString@2@XZ" PURGE="4" COMMENT="" />
    <EXPORT ORDINAL="977" NAME="?next@CollationElementIterator@icu_2_2@@QAEJAAW4UErrorCode@@@Z" PURGE="4" COMMENT="" />
    <EXPORT ORDINAL="978" NAME="?next@SearchIterator@icu_2_2@@QAEJAAW4UErrorCode@@@Z" PURGE="4" COMMENT="" />
    <EXPORT ORDINAL="979" NAME="?nextDouble@ChoiceFormat@icu_2_2@@SANN@Z" PURGE="0" COMMENT="" />
    <EXPORT ORDINAL="980" NAME="?nextDouble@ChoiceFormat@icu_2_2@@SANNC@Z" PURGE="0" COMMENT="" />
    <EXPORT ORDINAL="981" NAME="?orphanFilter@Transliterator@icu_2_2@@QAEPAVUnicodeFilter@2@XZ" PURGE="0" COMMENT="" />
    <EXPORT ORDINAL="982" NAME="?orphanTimeZone@Calendar@icu_2_2@@QAEPAVTimeZone@2@XZ" PURGE="0" COMMENT="" />
    <EXPORT ORDINAL="983" NAME="?parse@ChoiceFormat@icu_2_2@@UBEXABVUnicodeString@2@AAVFormattable@2@AAVParsePosition@2@@Z" PURGE="12" COMMENT="" />
    <EXPORT ORDINAL="984" NAME="?parse@ChoiceFormat@icu_2_2@@UBEXABVUnicodeString@2@AAVFormattable@2@AAW4UErrorCode@@@Z" PURGE="12" COMMENT="" />
    <EXPORT ORDINAL="985" NAME="?parse@DateFormat@icu_2_2@@QBENABVUnicodeString@2@AAVParsePosition@2@@Z" PURGE="8" COMMENT="" />
    <EXPORT ORDINAL="986" NAME="?parse@DateFormat@icu_2_2@@UBENABVUnicodeString@2@AAW4UErrorCode@@@Z" PURGE="8" COMMENT="" />
    <EXPORT ORDINAL="987" NAME="?parse@DecimalFormat@icu_2_2@@UBEXABVUnicodeString@2@AAVFormattable@2@AAVParsePosition@2@@Z" PURGE="12" COMMENT="" />
    <EXPORT ORDINAL="988" NAME="?parse@DecimalFormat@icu_2_2@@UBEXABVUnicodeString@2@AAVFormattable@2@AAW4UErrorCode@@@Z" PURGE="12" COMMENT="" />
    <EXPORT ORDINAL="989" NAME="?parse@MessageFormat@icu_2_2@@UBEPAVFormattable@2@ABVUnicodeString@2@AAJAAW4UErrorCode@@@Z" PURGE="12" COMMENT="" />
    <EXPORT ORDINAL="990" NAME="?parse@MessageFormat@icu_2_2@@UBEPAVFormattable@2@ABVUnicodeString@2@AAVParsePosition@2@AAJ@Z" PURGE="12" COMMENT="" />
    <EXPORT ORDINAL="991" NAME="?parse@NumberFormat@icu_2_2@@UBEXABVUnicodeString@2@AAVFormattable@2@AAW4UErrorCode@@@Z" PURGE="12" COMMENT="" />
    <EXPORT ORDINAL="992" NAME="?parse@RuleBasedNumberFormat@icu_2_2@@UBEXABVUnicodeString@2@AAVFormattable@2@AAVParsePosition@2@@Z" PURGE="12" COMMENT="" />
    <EXPORT ORDINAL="993" NAME="?parse@RuleBasedNumberFormat@icu_2_2@@UBEXABVUnicodeString@2@AAVFormattable@2@AAW4UErrorCode@@@Z" PURGE="12" COMMENT="" />
    <EXPORT ORDINAL="994" NAME="?parse@SimpleDateFormat@icu_2_2@@QBENABVUnicodeString@2@AAVParsePosition@2@@Z" PURGE="8" COMMENT="" />
    <EXPORT ORDINAL="995" NAME="?parse@SimpleDateFormat@icu_2_2@@UBENABVUnicodeString@2@AAW4UErrorCode@@@Z" PURGE="8" COMMENT="" />
    <EXPORT ORDINAL="996" NAME="?parse@SimpleDateFormat@icu_2_2@@UBEXABVUnicodeString@2@AAVCalendar@2@AAVParsePosition@2@@Z" PURGE="12" COMMENT="" />
    <EXPORT ORDINAL="997" NAME="?parseAmbiguousDatesAsAfter@SimpleDateFormat@icu_2_2@@AAEXNAAW4UErrorCode@@@Z" PURGE="12" COMMENT="" />
    <EXPORT ORDINAL="998" NAME="?parseObject@DateFormat@icu_2_2@@UBEXABVUnicodeString@2@AAVFormattable@2@AAVParsePosition@2@@Z" PURGE="12" COMMENT="" />
    <EXPORT ORDINAL="999" NAME="?parseObject@Format@icu_2_2@@QBEXABVUnicodeString@2@AAVFormattable@2@AAW4UErrorCode@@@Z" PURGE="12" COMMENT="" />
    <EXPORT ORDINAL="1000" NAME="?parseObject@MessageFormat@icu_2_2@@UBEXABVUnicodeString@2@AAVFormattable@2@AAVParsePosition@2@@Z" PURGE="12" COMMENT="" />
    <EXPORT ORDINAL="1001" NAME="?parseObject@NumberFormat@icu_2_2@@UBEXABVUnicodeString@2@AAVFormattable@2@AAVParsePosition@2@@Z" PURGE="-1" COMMENT="" />
    <EXPORT ORDINAL="1002" NAME="?permute@CanonicalIterator@icu_2_2@@SAXAAVUnicodeString@2@CPAVHashtable@2@AAW4UErrorCode@@@Z" PURGE="0" COMMENT="" />
    <EXPORT ORDINAL="1003" NAME="?pinDayOfMonth@GregorianCalendar@icu_2_2@@AAEXXZ" PURGE="0" COMMENT="" />
    <EXPORT ORDINAL="1004" NAME="?pointerToken@Transliterator@icu_2_2@@SA?ATToken@12@PAX@Z" PURGE="0" COMMENT="" />
    <EXPORT ORDINAL="1005" NAME="?preceding@SearchIterator@icu_2_2@@QAEJJAAW4UErrorCode@@@Z" PURGE="8" COMMENT="" />
    <EXPORT ORDINAL="1006" NAME="?previous@CollationElementIterator@icu_2_2@@QAEJAAW4UErrorCode@@@Z" PURGE="4" COMMENT="" />
    <EXPORT ORDINAL="1007" NAME="?previous@SearchIterator@icu_2_2@@QAEJAAW4UErrorCode@@@Z" PURGE="4" COMMENT="" />
    <EXPORT ORDINAL="1008" NAME="?previousDouble@ChoiceFormat@icu_2_2@@SANN@Z" PURGE="0" COMMENT="" />
    <EXPORT ORDINAL="1009" NAME="?primaryOrder@CollationElementIterator@icu_2_2@@SAJJ@Z" PURGE="0" COMMENT="" />
    <EXPORT ORDINAL="1010" NAME="?registerFactory@Transliterator@icu_2_2@@SAXABVUnicodeString@2@P6APAV12@0TToken@12@@Z1@Z" PURGE="0" COMMENT="" />
    <EXPORT ORDINAL="1011" NAME="?registerIDs@AnyTransliterator@icu_2_2@@CAXXZ" PURGE="0" COMMENT="" />
    <EXPORT ORDINAL="1012" NAME="?registerIDs@EscapeTransliterator@icu_2_2@@SAXXZ" PURGE="0" COMMENT="" />
    <EXPORT ORDINAL="1013" NAME="?registerIDs@NormalizationTransliterator@icu_2_2@@SAXXZ" PURGE="0" COMMENT="" />
    <EXPORT ORDINAL="1014" NAME="?registerIDs@RemoveTransliterator@icu_2_2@@SAXXZ" PURGE="0" COMMENT="" />
    <EXPORT ORDINAL="1015" NAME="?registerIDs@UnescapeTransliterator@icu_2_2@@SAXXZ" PURGE="0" COMMENT="" />
    <EXPORT ORDINAL="1016" NAME="?registerInstance@Transliterator@icu_2_2@@SAXPAV12@@Z" PURGE="0" COMMENT="" />
    <EXPORT ORDINAL="1017" NAME="?reset@CanonicalIterator@icu_2_2@@QAEXXZ" PURGE="0" COMMENT="" />
    <EXPORT ORDINAL="1018" NAME="?reset@CollationElementIterator@icu_2_2@@QAEXXZ" PURGE="0" COMMENT="" />
    <EXPORT ORDINAL="1019" NAME="?reset@CollationKey@icu_2_2@@AAEAAV12@XZ" PURGE="0" COMMENT="" />
    <EXPORT ORDINAL="1020" NAME="?reset@SearchIterator@icu_2_2@@UAEXXZ" PURGE="0" COMMENT="" />
    <EXPORT ORDINAL="1021" NAME="?reset@StringSearch@icu_2_2@@UAEXXZ" PURGE="0" COMMENT="" />
    <EXPORT ORDINAL="1022" NAME="?roll@Calendar@icu_2_2@@QAEXW4EDateFields@12@CAAW4UErrorCode@@@Z" PURGE="12" COMMENT="" />
    <EXPORT ORDINAL="1023" NAME="?roll@GregorianCalendar@icu_2_2@@UAEXW4EDateFields@Calendar@2@JAAW4UErrorCode@@@Z" PURGE="12" COMMENT="" />
    <EXPORT ORDINAL="1024" NAME="?round@DecimalFormat@icu_2_2@@CANNW4ERoundingMode@12@C@Z" PURGE="0" COMMENT="" />
    <EXPORT ORDINAL="1025" NAME="?safeClone@RuleBasedCollator@icu_2_2@@UAEPAVCollator@2@XZ" PURGE="0" COMMENT="" />
    <EXPORT ORDINAL="1026" NAME="?safeClone@StringSearch@icu_2_2@@UBEPAVSearchIterator@2@XZ" PURGE="0" COMMENT="" />
    <EXPORT ORDINAL="1027" NAME="?scriptNameToCode@AnyTransliterator@icu_2_2@@CA?AW4UScriptCode@@ABVUnicodeString@2@@Z" PURGE="0" COMMENT="" />
    <EXPORT ORDINAL="1028" NAME="?secondaryOrder@CollationElementIterator@icu_2_2@@SAJJ@Z" PURGE="0" COMMENT="" />
    <EXPORT ORDINAL="1029" NAME="?set2DigitYearStart@SimpleDateFormat@icu_2_2@@UAEXNAAW4UErrorCode@@@Z" PURGE="12" COMMENT="" />
    <EXPORT ORDINAL="1030" NAME="?set@Calendar@icu_2_2@@QAEXJJJ@Z" PURGE="12" COMMENT="" />
    <EXPORT ORDINAL="1031" NAME="?set@Calendar@icu_2_2@@QAEXJJJJJ@Z" PURGE="20" COMMENT="" />
    <EXPORT ORDINAL="1032" NAME="?set@Calendar@icu_2_2@@QAEXJJJJJJ@Z" PURGE="24" COMMENT="" />
    <EXPORT ORDINAL="1033" NAME="?set@Calendar@icu_2_2@@QAEXW4EDateFields@12@J@Z" PURGE="8" COMMENT="" />
    <EXPORT ORDINAL="1034" NAME="?setAmPmStrings@DateFormatSymbols@icu_2_2@@QAEXPBVUnicodeString@2@J@Z" PURGE="8" COMMENT="" />
    <EXPORT ORDINAL="1035" NAME="?setArray@Formattable@icu_2_2@@QAEXPBV12@J@Z" PURGE="8" COMMENT="" />
    <EXPORT ORDINAL="1036" NAME="?setAttribute@RuleBasedCollator@icu_2_2@@UAEXW4UColAttribute@@W4UColAttributeValue@@AAW4UErrorCode@@@Z" PURGE="12" COMMENT="" />
    <EXPORT ORDINAL="1037" NAME="?setAttribute@SearchIterator@icu_2_2@@QAEXW4USearchAttribute@@W4USearchAttributeValue@@AAW4UErrorCode@@@Z" PURGE="12" COMMENT="" />
    <EXPORT ORDINAL="1038" NAME="?setBeginIndex@FieldPosition@icu_2_2@@QAEXJ@Z" PURGE="4" COMMENT="" />
    <EXPORT ORDINAL="1039" NAME="?setBreakIterator@SearchIterator@icu_2_2@@QAEXPAVBreakIterator@2@AAW4UErrorCode@@@Z" PURGE="8" COMMENT="" />
    <EXPORT ORDINAL="1040" NAME="?setCalendar@DateFormat@icu_2_2@@UAEXABVCalendar@2@@Z" PURGE="4" COMMENT="" />
    <EXPORT ORDINAL="1041" NAME="?setChoices@ChoiceFormat@icu_2_2@@UAEXPBNPBCPBVUnicodeString@2@J@Z" PURGE="16" COMMENT="" />
    <EXPORT ORDINAL="1042" NAME="?setChoices@ChoiceFormat@icu_2_2@@UAEXPBNPBVUnicodeString@2@J@Z" PURGE="12" COMMENT="" />
    <EXPORT ORDINAL="1043" NAME="?setCollator@StringSearch@icu_2_2@@QAEXPAVRuleBasedCollator@2@AAW4UErrorCode@@@Z" PURGE="8" COMMENT="" />
    <EXPORT ORDINAL="1044" NAME="?setCurrency@DecimalFormat@icu_2_2@@QAEXPBG@Z" PURGE="4" COMMENT="" />
    <EXPORT ORDINAL="1045" NAME="?setCurrencyForLocale@DecimalFormat@icu_2_2@@AAEXPBDAAW4UErrorCode@@@Z" PURGE="8" COMMENT="" />
    <EXPORT ORDINAL="1046" NAME="?setCurrencyForSymbols@DecimalFormat@icu_2_2@@AAEXXZ" PURGE="0" COMMENT="" />
    <EXPORT ORDINAL="1047" NAME="?setDSTSavings@SimpleTimeZone@icu_2_2@@QAEXJAAW4UErrorCode@@@Z" PURGE="8" COMMENT="" />
    <EXPORT ORDINAL="1048" NAME="?setData@TransliterationRuleSet@icu_2_2@@QAEXPBVTransliterationRuleData@2@@Z" PURGE="4" COMMENT="" />
    <EXPORT ORDINAL="1049" NAME="?setDate@Formattable@icu_2_2@@QAEXN@Z" PURGE="8" COMMENT="" />
    <EXPORT ORDINAL="1050" NAME="?setDateFormatSymbols@SimpleDateFormat@icu_2_2@@UAEXABVDateFormatSymbols@2@@Z" PURGE="4" COMMENT="" />
    <EXPORT ORDINAL="1051" NAME="?setDecimalFormatSymbols@DecimalFormat@icu_2_2@@UAEXABVDecimalFormatSymbols@2@@Z" PURGE="4" COMMENT="" />
    <EXPORT ORDINAL="1052" NAME="?setDecimalSeparatorAlwaysShown@DecimalFormat@icu_2_2@@UAEXC@Z" PURGE="4" COMMENT="" />
    <EXPORT ORDINAL="1053" NAME="?setDecomposition@RuleBasedCollator@icu_2_2@@UAEXW4EMode@Normalizer@2@@Z" PURGE="4" COMMENT="" />
    <EXPORT ORDINAL="1054" NAME="?setDefault@TimeZone@icu_2_2@@SAXABV12@@Z" PURGE="0" COMMENT="" />
    <EXPORT ORDINAL="1055" NAME="?setDefaultRuleSet@RuleBasedNumberFormat@icu_2_2@@UAEXABVUnicodeString@2@AAW4UErrorCode@@@Z" PURGE="8" COMMENT="" />
    <EXPORT ORDINAL="1056" NAME="?setDouble@Formattable@icu_2_2@@QAEXN@Z" PURGE="8" COMMENT="" />
    <EXPORT ORDINAL="1057" NAME="?setEndIndex@FieldPosition@icu_2_2@@QAEXJ@Z" PURGE="4" COMMENT="" />
    <EXPORT ORDINAL="1058" NAME="?setEndRule@SimpleTimeZone@icu_2_2@@QAEXJJJAAW4UErrorCode@@@Z" PURGE="16" COMMENT="" />
    <EXPORT ORDINAL="1059" NAME="?setEndRule@SimpleTimeZone@icu_2_2@@QAEXJJJJAAW4UErrorCode@@@Z" PURGE="20" COMMENT="" />
    <EXPORT ORDINAL="1060" NAME="?setEndRule@SimpleTimeZone@icu_2_2@@QAEXJJJJCAAW4UErrorCode@@@Z" PURGE="24" COMMENT="" />
    <EXPORT ORDINAL="1061" NAME="?setEndRule@SimpleTimeZone@icu_2_2@@QAEXJJJJW4TimeMode@12@AAW4UErrorCode@@@Z" PURGE="24" COMMENT="" />
    <EXPORT ORDINAL="1062" NAME="?setEndRule@SimpleTimeZone@icu_2_2@@QAEXJJJJW4TimeMode@12@CAAW4UErrorCode@@@Z" PURGE="28" COMMENT="" />
    <EXPORT ORDINAL="1063" NAME="?setEndRule@SimpleTimeZone@icu_2_2@@QAEXJJJW4TimeMode@12@AAW4UErrorCode@@@Z" PURGE="20" COMMENT="" />
    <EXPORT ORDINAL="1064" NAME="?setEras@DateFormatSymbols@icu_2_2@@QAEXPBVUnicodeString@2@J@Z" PURGE="8" COMMENT="" />
    <EXPORT ORDINAL="1065" NAME="?setExponentSignAlwaysShown@DecimalFormat@icu_2_2@@UAEXC@Z" PURGE="4" COMMENT="" />
    <EXPORT ORDINAL="1066" NAME="?setField@FieldPosition@icu_2_2@@QAEXJ@Z" PURGE="4" COMMENT="" />
    <EXPORT ORDINAL="1067" NAME="?setFirstDayOfWeek@Calendar@icu_2_2@@QAEXW4EDaysOfWeek@12@@Z" PURGE="4" COMMENT="" />
    <EXPORT ORDINAL="1068" NAME="?setFormat@MessageFormat@icu_2_2@@UAEXJABVFormat@2@@Z" PURGE="8" COMMENT="" />
    <EXPORT ORDINAL="1069" NAME="?setFormatWidth@DecimalFormat@icu_2_2@@UAEXJ@Z" PURGE="4" COMMENT="" />
    <EXPORT ORDINAL="1070" NAME="?setFormats@MessageFormat@icu_2_2@@UAEXPAPBVFormat@2@J@Z" PURGE="8" COMMENT="" />
    <EXPORT ORDINAL="1071" NAME="?setGregorianChange@GregorianCalendar@icu_2_2@@QAEXNAAW4UErrorCode@@@Z" PURGE="12" COMMENT="" />
    <EXPORT ORDINAL="1072" NAME="?setGroupingSize@DecimalFormat@icu_2_2@@UAEXJ@Z" PURGE="4" COMMENT="" />
    <EXPORT ORDINAL="1073" NAME="?setGroupingUsed@NumberFormat@icu_2_2@@UAEXC@Z" PURGE="4" COMMENT="" />
    <EXPORT ORDINAL="1074" NAME="?setID@TimeZone@icu_2_2@@QAEXABVUnicodeString@2@@Z" PURGE="-1" COMMENT="" />
    <EXPORT ORDINAL="1075" NAME="?setID@Transliterator@icu_2_2@@IAEXABVUnicodeString@2@@Z" PURGE="-1" COMMENT="" />
    <EXPORT ORDINAL="1076" NAME="?setLenient@Calendar@icu_2_2@@QAEXC@Z" PURGE="4" COMMENT="" />
    <EXPORT ORDINAL="1077" NAME="?setLenient@DateFormat@icu_2_2@@UAEXC@Z" PURGE="4" COMMENT="" />
    <EXPORT ORDINAL="1078" NAME="?setLenient@RuleBasedNumberFormat@icu_2_2@@UAEXC@Z" PURGE="4" COMMENT="" />
    <EXPORT ORDINAL="1079" NAME="?setLocalPatternChars@DateFormatSymbols@icu_2_2@@QAEXABVUnicodeString@2@@Z" PURGE="-1" COMMENT="" />
    <EXPORT ORDINAL="1080" NAME="?setLocale@MessageFormat@icu_2_2@@UAEXABVLocale@2@@Z" PURGE="-1" COMMENT="" />
    <EXPORT ORDINAL="1081" NAME="?setLong@Formattable@icu_2_2@@QAEXJ@Z" PURGE="4" COMMENT="" />
    <EXPORT ORDINAL="1082" NAME="?setMatchLength@SearchIterator@icu_2_2@@MAEXJ@Z" PURGE="4" COMMENT="" />
    <EXPORT ORDINAL="1083" NAME="?setMatchNotFound@SearchIterator@icu_2_2@@IAEXXZ" PURGE="0" COMMENT="" />
    <EXPORT ORDINAL="1084" NAME="?setMatchStart@SearchIterator@icu_2_2@@MAEXJ@Z" PURGE="4" COMMENT="" />
    <EXPORT ORDINAL="1085" NAME="?setMaximumContextLength@Transliterator@icu_2_2@@IAEXJ@Z" PURGE="4" COMMENT="" />
    <EXPORT ORDINAL="1086" NAME="?setMaximumFractionDigits@DecimalFormat@icu_2_2@@UAEXJ@Z" PURGE="4" COMMENT="" />
    <EXPORT ORDINAL="1087" NAME="?setMaximumFractionDigits@NumberFormat@icu_2_2@@UAEXJ@Z" PURGE="4" COMMENT="" />
    <EXPORT ORDINAL="1088" NAME="?setMaximumIntegerDigits@DecimalFormat@icu_2_2@@UAEXJ@Z" PURGE="4" COMMENT="" />
    <EXPORT ORDINAL="1089" NAME="?setMaximumIntegerDigits@NumberFormat@icu_2_2@@UAEXJ@Z" PURGE="4" COMMENT="" />
    <EXPORT ORDINAL="1090" NAME="?setMinimalDaysInFirstWeek@Calendar@icu_2_2@@QAEXE@Z" PURGE="4" COMMENT="" />
    <EXPORT ORDINAL="1091" NAME="?setMinimumExponentDigits@DecimalFormat@icu_2_2@@UAEXC@Z" PURGE="4" COMMENT="" />
    <EXPORT ORDINAL="1092" NAME="?setMinimumFractionDigits@DecimalFormat@icu_2_2@@UAEXJ@Z" PURGE="4" COMMENT="" />
    <EXPORT ORDINAL="1093" NAME="?setMinimumFractionDigits@NumberFormat@icu_2_2@@UAEXJ@Z" PURGE="4" COMMENT="" />
    <EXPORT ORDINAL="1094" NAME="?setMinimumIntegerDigits@DecimalFormat@icu_2_2@@UAEXJ@Z" PURGE="4" COMMENT="" />
    <EXPORT ORDINAL="1095" NAME="?setMinimumIntegerDigits@NumberFormat@icu_2_2@@UAEXJ@Z" PURGE="4" COMMENT="" />
    <EXPORT ORDINAL="1096" NAME="?setMonths@DateFormatSymbols@icu_2_2@@QAEXPBVUnicodeString@2@J@Z" PURGE="8" COMMENT="" />
    <EXPORT ORDINAL="1097" NAME="?setMultiplier@DecimalFormat@icu_2_2@@UAEXJ@Z" PURGE="4" COMMENT="" />
    <EXPORT ORDINAL="1098" NAME="?setNegativePrefix@DecimalFormat@icu_2_2@@UAEXABVUnicodeString@2@@Z" PURGE="4" COMMENT="" />
    <EXPORT ORDINAL="1099" NAME="?setNegativeSuffix@DecimalFormat@icu_2_2@@UAEXABVUnicodeString@2@@Z" PURGE="4" COMMENT="" />
    <EXPORT ORDINAL="1100" NAME="?setNumberFormat@DateFormat@icu_2_2@@UAEXABVNumberFormat@2@@Z" PURGE="4" COMMENT="" />
    <EXPORT ORDINAL="1101" NAME="?setOffset@CollationElementIterator@icu_2_2@@QAEXJAAW4UErrorCode@@@Z" PURGE="8" COMMENT="" />
    <EXPORT ORDINAL="1102" NAME="?setOffset@StringSearch@icu_2_2@@UAEXJAAW4UErrorCode@@@Z" PURGE="8" COMMENT="" />
    <EXPORT ORDINAL="1103" NAME="?setPadCharacter@DecimalFormat@icu_2_2@@UAEXVUnicodeString@2@@Z" PURGE="32" COMMENT="" />
    <EXPORT ORDINAL="1104" NAME="?setPadPosition@DecimalFormat@icu_2_2@@UAEXW4EPadPosition@12@@Z" PURGE="4" COMMENT="" />
    <EXPORT ORDINAL="1105" NAME="?setParseIntegerOnly@NumberFormat@icu_2_2@@UAEXC@Z" PURGE="4" COMMENT="" />
    <EXPORT ORDINAL="1106" NAME="?setPattern@StringSearch@icu_2_2@@QAEXABVUnicodeString@2@AAW4UErrorCode@@@Z" PURGE="8" COMMENT="" />
    <EXPORT ORDINAL="1107" NAME="?setPositivePrefix@DecimalFormat@icu_2_2@@UAEXABVUnicodeString@2@@Z" PURGE="4" COMMENT="" />
    <EXPORT ORDINAL="1108" NAME="?setPositiveSuffix@DecimalFormat@icu_2_2@@UAEXABVUnicodeString@2@@Z" PURGE="4" COMMENT="" />
    <EXPORT ORDINAL="1109" NAME="?setRawOffset@SimpleTimeZone@icu_2_2@@UAEXJ@Z" PURGE="4" COMMENT="" />
    <EXPORT ORDINAL="1110" NAME="?setRoundingIncrement@DecimalFormat@icu_2_2@@UAEXN@Z" PURGE="8" COMMENT="" />
    <EXPORT ORDINAL="1111" NAME="?setRoundingMode@DecimalFormat@icu_2_2@@UAEXW4ERoundingMode@12@@Z" PURGE="4" COMMENT="" />
    <EXPORT ORDINAL="1112" NAME="?setScientificNotation@DecimalFormat@icu_2_2@@UAEXC@Z" PURGE="4" COMMENT="" />
    <EXPORT ORDINAL="1113" NAME="?setSecondaryGroupingSize@DecimalFormat@icu_2_2@@UAEXJ@Z" PURGE="4" COMMENT="" />
    <EXPORT ORDINAL="1114" NAME="?setShortMonths@DateFormatSymbols@icu_2_2@@QAEXPBVUnicodeString@2@J@Z" PURGE="8" COMMENT="" />
    <EXPORT ORDINAL="1115" NAME="?setShortWeekdays@DateFormatSymbols@icu_2_2@@QAEXPBVUnicodeString@2@J@Z" PURGE="8" COMMENT="" />
    <EXPORT ORDINAL="1116" NAME="?setSource@CanonicalIterator@icu_2_2@@QAEXABVUnicodeString@2@AAW4UErrorCode@@@Z" PURGE="8" COMMENT="" />
    <EXPORT ORDINAL="1117" NAME="?setStartRule@SimpleTimeZone@icu_2_2@@QAEXJJJAAW4UErrorCode@@@Z" PURGE="16" COMMENT="" />
    <EXPORT ORDINAL="1118" NAME="?setStartRule@SimpleTimeZone@icu_2_2@@QAEXJJJJAAW4UErrorCode@@@Z" PURGE="20" COMMENT="" />
    <EXPORT ORDINAL="1119" NAME="?setStartRule@SimpleTimeZone@icu_2_2@@QAEXJJJJCAAW4UErrorCode@@@Z" PURGE="24" COMMENT="" />
    <EXPORT ORDINAL="1120" NAME="?setStartRule@SimpleTimeZone@icu_2_2@@QAEXJJJJW4TimeMode@12@AAW4UErrorCode@@@Z" PURGE="24" COMMENT="" />
    <EXPORT ORDINAL="1121" NAME="?setStartRule@SimpleTimeZone@icu_2_2@@QAEXJJJJW4TimeMode@12@CAAW4UErrorCode@@@Z" PURGE="28" COMMENT="" />
    <EXPORT ORDINAL="1122" NAME="?setStartRule@SimpleTimeZone@icu_2_2@@QAEXJJJW4TimeMode@12@AAW4UErrorCode@@@Z" PURGE="20" COMMENT="" />
    <EXPORT ORDINAL="1123" NAME="?setStartYear@SimpleTimeZone@icu_2_2@@QAEXJ@Z" PURGE="4" COMMENT="" />
    <EXPORT ORDINAL="1124" NAME="?setStrength@RuleBasedCollator@icu_2_2@@UAEXW4ECollationStrength@Collator@2@@Z" PURGE="4" COMMENT="" />
    <EXPORT ORDINAL="1125" NAME="?setString@Formattable@icu_2_2@@QAEXABVUnicodeString@2@@Z" PURGE="4" COMMENT="" />
    <EXPORT ORDINAL="1126" NAME="?setSymbol@DecimalFormatSymbols@icu_2_2@@QAEXW4ENumberFormatSymbol@12@VUnicodeString@2@@Z" PURGE="36" COMMENT="" />
    <EXPORT ORDINAL="1127" NAME="?setText@CollationElementIterator@icu_2_2@@QAEXAAVCharacterIterator@2@AAW4UErrorCode@@@Z" PURGE="8" COMMENT="" />
    <EXPORT ORDINAL="1128" NAME="?setText@CollationElementIterator@icu_2_2@@QAEXABVUnicodeString@2@AAW4UErrorCode@@@Z" PURGE="8" COMMENT="" />
    <EXPORT ORDINAL="1129" NAME="?setText@SearchIterator@icu_2_2@@UAEXAAVCharacterIterator@2@AAW4UErrorCode@@@Z" PURGE="8" COMMENT="" />
    <EXPORT ORDINAL="1130" NAME="?setText@SearchIterator@icu_2_2@@UAEXABVUnicodeString@2@AAW4UErrorCode@@@Z" PURGE="8" COMMENT="" />
    <EXPORT ORDINAL="1131" NAME="?setText@StringSearch@icu_2_2@@UAEXAAVCharacterIterator@2@AAW4UErrorCode@@@Z" PURGE="8" COMMENT="" />
    <EXPORT ORDINAL="1132" NAME="?setText@StringSearch@icu_2_2@@UAEXABVUnicodeString@2@AAW4UErrorCode@@@Z" PURGE="8" COMMENT="" />
    <EXPORT ORDINAL="1133" NAME="?setTime@Calendar@icu_2_2@@QAEXNAAW4UErrorCode@@@Z" PURGE="12" COMMENT="" />
    <EXPORT ORDINAL="1134" NAME="?setTimeInMillis@Calendar@icu_2_2@@IAEXNAAW4UErrorCode@@@Z" PURGE="12" COMMENT="" />
    <EXPORT ORDINAL="1135" NAME="?setTimeZone@Calendar@icu_2_2@@QAEXABVTimeZone@2@@Z" PURGE="4" COMMENT="" />
    <EXPORT ORDINAL="1136" NAME="?setTimeZone@DateFormat@icu_2_2@@UAEXABVTimeZone@2@@Z" PURGE="4" COMMENT="" />
    <EXPORT ORDINAL="1137" NAME="?setToBogus@CollationKey@icu_2_2@@AAEAAV12@XZ" PURGE="0" COMMENT="" />
    <EXPORT ORDINAL="1138" NAME="?setTransliterators@CompoundTransliterator@icu_2_2@@QAEXQBQAVTransliterator@2@J@Z" PURGE="8" COMMENT="" />
    <EXPORT ORDINAL="1139" NAME="?setUCollator@RuleBasedCollator@icu_2_2@@AAEXABVLocale@2@AAW4UErrorCode@@@Z" PURGE="8" COMMENT="" />
    <EXPORT ORDINAL="1140" NAME="?setUCollator@RuleBasedCollator@icu_2_2@@AAEXPAUUCollator@@@Z" PURGE="4" COMMENT="" />
    <EXPORT ORDINAL="1141" NAME="?setUCollator@RuleBasedCollator@icu_2_2@@AAEXPAUUCollator@@PAVUnicodeString@2@@Z" PURGE="8" COMMENT="" />
    <EXPORT ORDINAL="1142" NAME="?setUCollator@RuleBasedCollator@icu_2_2@@AAEXPBDAAW4UErrorCode@@@Z" PURGE="8" COMMENT="" />
    <EXPORT ORDINAL="1143" NAME="?setUppercase@UnicodeToHexTransliterator@icu_2_2@@UAEXC@Z" PURGE="4" COMMENT="" />
    <EXPORT ORDINAL="1144" NAME="?setVariableTop@RuleBasedCollator@icu_2_2@@UAEKPBGJAAW4UErrorCode@@@Z" PURGE="12" COMMENT="" />
    <EXPORT ORDINAL="1145" NAME="?setVariableTop@RuleBasedCollator@icu_2_2@@UAEKVUnicodeString@2@AAW4UErrorCode@@@Z" PURGE="36" COMMENT="" />
    <EXPORT ORDINAL="1146" NAME="?setVariableTop@RuleBasedCollator@icu_2_2@@UAEXKAAW4UErrorCode@@@Z" PURGE="8" COMMENT="" />
    <EXPORT ORDINAL="1147" NAME="?setWeekCountData@Calendar@icu_2_2@@AAEXABVLocale@2@AAW4UErrorCode@@@Z" PURGE="8" COMMENT="" />
    <EXPORT ORDINAL="1148" NAME="?setWeekdays@DateFormatSymbols@icu_2_2@@QAEXPBVUnicodeString@2@J@Z" PURGE="8" COMMENT="" />
    <EXPORT ORDINAL="1149" NAME="?setZoneStrings@DateFormatSymbols@icu_2_2@@QAEXPBQBVUnicodeString@2@JJ@Z" PURGE="12" COMMENT="" />
    <EXPORT ORDINAL="1150" NAME="?staticMonthLength@SimpleTimeZone@icu_2_2@@0QBCB" PURGE="-1" COMMENT="" />
    <EXPORT ORDINAL="1151" NAME="?stod@ChoiceFormat@icu_2_2@@CANABVUnicodeString@2@@Z" PURGE="0" COMMENT="" />
    <EXPORT ORDINAL="1152" NAME="?stoi@MessageFormat@icu_2_2@@CAJABVUnicodeString@2@@Z" PURGE="0" COMMENT="" />
    <EXPORT ORDINAL="1153" NAME="?strengthOrder@CollationElementIterator@icu_2_2@@QBEJJ@Z" PURGE="4" COMMENT="" />
    <EXPORT ORDINAL="1154" NAME="?stripWhitespace@RuleBasedNumberFormat@icu_2_2@@AAEXAAVUnicodeString@2@@Z" PURGE="4" COMMENT="" />
    <EXPORT ORDINAL="1155" NAME="?subFormat@SimpleDateFormat@icu_2_2@@ABEAAVUnicodeString@2@AAV32@GJJAAVFieldPosition@2@AAVCalendar@2@AAW4UErrorCode@@@Z" PURGE="28" COMMENT="" />
    <EXPORT ORDINAL="1156" NAME="?subParse@SimpleDateFormat@icu_2_2@@ABEJABVUnicodeString@2@AAJGJCQACAAVCalendar@2@@Z" PURGE="28" COMMENT="" />
    <EXPORT ORDINAL="1157" NAME="?subformat@DecimalFormat@icu_2_2@@ABEAAVUnicodeString@2@AAV32@AAVFieldPosition@2@AAVDigitList@2@C@Z" PURGE="16" COMMENT="" />
    <EXPORT ORDINAL="1158" NAME="?subparse@DecimalFormat@icu_2_2@@ABECABVUnicodeString@2@AAVParsePosition@2@AAVDigitList@2@PAC@Z" PURGE="16" COMMENT="" />
    <EXPORT ORDINAL="1159" NAME="?syntaxError@Format@icu_2_2@@IAEXABVUnicodeString@2@JAAU_UParseError@@@Z" PURGE="12" COMMENT="" />
    <EXPORT ORDINAL="1160" NAME="?tertiaryOrder@CollationElementIterator@icu_2_2@@SAJJ@Z" PURGE="0" COMMENT="" />
    <EXPORT ORDINAL="1161" NAME="?timeToFields@GregorianCalendar@icu_2_2@@AAEXNCAAW4UErrorCode@@@Z" PURGE="16" COMMENT="" />
    <EXPORT ORDINAL="1162" NAME="?toByteArray@CollationKey@icu_2_2@@QBEPAEAAJ@Z" PURGE="4" COMMENT="" />
    <EXPORT ORDINAL="1163" NAME="?toLocalizedPattern@DecimalFormat@icu_2_2@@UBEAAVUnicodeString@2@AAV32@@Z" PURGE="4" COMMENT="" />
    <EXPORT ORDINAL="1164" NAME="?toLocalizedPattern@SimpleDateFormat@icu_2_2@@UBEAAVUnicodeString@2@AAV32@AAW4UErrorCode@@@Z" PURGE="8" COMMENT="" />
    <EXPORT ORDINAL="1165" NAME="?toPattern@ChoiceFormat@icu_2_2@@UBEAAVUnicodeString@2@AAV32@@Z" PURGE="4" COMMENT="" />
    <EXPORT ORDINAL="1166" NAME="?toPattern@DecimalFormat@icu_2_2@@ABEAAVUnicodeString@2@AAV32@C@Z" PURGE="8" COMMENT="" />
    <EXPORT ORDINAL="1167" NAME="?toPattern@DecimalFormat@icu_2_2@@UBEAAVUnicodeString@2@AAV32@@Z" PURGE="4" COMMENT="" />
    <EXPORT ORDINAL="1168" NAME="?toPattern@HexToUnicodeTransliterator@icu_2_2@@QBEABVUnicodeString@2@XZ" PURGE="0" COMMENT="" />
    <EXPORT ORDINAL="1169" NAME="?toPattern@MessageFormat@icu_2_2@@UBEAAVUnicodeString@2@AAV32@@Z" PURGE="4" COMMENT="" />
    <EXPORT ORDINAL="1170" NAME="?toPattern@SimpleDateFormat@icu_2_2@@UBEAAVUnicodeString@2@AAV32@@Z" PURGE="4" COMMENT="" />
    <EXPORT ORDINAL="1171" NAME="?toPattern@UnicodeToHexTransliterator@icu_2_2@@QBEABVUnicodeString@2@XZ" PURGE="0" COMMENT="" />
    <EXPORT ORDINAL="1172" NAME="?toRules@CompoundTransliterator@icu_2_2@@UBEAAVUnicodeString@2@AAV32@C@Z" PURGE="8" COMMENT="" />
    <EXPORT ORDINAL="1173" NAME="?toRules@RuleBasedTransliterator@icu_2_2@@UBEAAVUnicodeString@2@AAV32@C@Z" PURGE="-1" COMMENT="" />
    <EXPORT ORDINAL="1174" NAME="?toRules@TransliterationRuleSet@icu_2_2@@UBEAAVUnicodeString@2@AAV32@C@Z" PURGE="8" COMMENT="" />
    <EXPORT ORDINAL="1175" NAME="?toRules@Transliterator@icu_2_2@@UBEAAVUnicodeString@2@AAV32@C@Z" PURGE="8" COMMENT="" />
    <EXPORT ORDINAL="1176" NAME="?translatePattern@SimpleDateFormat@icu_2_2@@CAXABVUnicodeString@2@AAV32@00AAW4UErrorCode@@@Z" PURGE="0" COMMENT="" />
    <EXPORT ORDINAL="1177" NAME="?transliterate@TransliterationRuleSet@icu_2_2@@QAECAAVReplaceable@2@AAU_UTransPosition@@C@Z" PURGE="12" COMMENT="" />
    <EXPORT ORDINAL="1178" NAME="?transliterate@Transliterator@icu_2_2@@UBEJAAVReplaceable@2@JJ@Z" PURGE="12" COMMENT="" />
    <EXPORT ORDINAL="1179" NAME="?transliterate@Transliterator@icu_2_2@@UBEXAAVReplaceable@2@@Z" PURGE="4" COMMENT="" />
    <EXPORT ORDINAL="1180" NAME="?transliterate@Transliterator@icu_2_2@@UBEXAAVReplaceable@2@AAU_UTransPosition@@AAW4UErrorCode@@@Z" PURGE="12" COMMENT="" />
    <EXPORT ORDINAL="1181" NAME="?transliterate@Transliterator@icu_2_2@@UBEXAAVReplaceable@2@AAU_UTransPosition@@ABVUnicodeString@2@AAW4UErrorCode@@@Z" PURGE="16" COMMENT="" />
    <EXPORT ORDINAL="1182" NAME="?transliterate@Transliterator@icu_2_2@@UBEXAAVReplaceable@2@AAU_UTransPosition@@KAAW4UErrorCode@@@Z" PURGE="16" COMMENT="" />
    <EXPORT ORDINAL="1183" NAME="?unregister@Transliterator@icu_2_2@@SAXABVUnicodeString@2@@Z" PURGE="0" COMMENT="" />
    <EXPORT ORDINAL="1184" NAME="?updateTime@Calendar@icu_2_2@@AAEXAAW4UErrorCode@@@Z" PURGE="4" COMMENT="" />
    <EXPORT ORDINAL="1185" NAME="?useDaylightTime@SimpleTimeZone@icu_2_2@@UBECXZ" PURGE="0" COMMENT="" />
    <EXPORT ORDINAL="1186" NAME="?validateFields@GregorianCalendar@icu_2_2@@ABECXZ" PURGE="0" COMMENT="" />
    <EXPORT ORDINAL="1187" NAME="?weekNumber@GregorianCalendar@icu_2_2@@AAEJJJ@Z" PURGE="8" COMMENT="" />
    <EXPORT ORDINAL="1188" NAME="?yearLength@GregorianCalendar@icu_2_2@@ABEJJ@Z" PURGE="4" COMMENT="" />
    <EXPORT ORDINAL="1189" NAME="?yearLength@GregorianCalendar@icu_2_2@@ABEJXZ" PURGE="0" COMMENT="" />
    <EXPORT ORDINAL="1190" NAME="?zeroPaddingNumber@SimpleDateFormat@icu_2_2@@ABEAAVUnicodeString@2@AAV32@JJJ@Z" PURGE="16" COMMENT="" />
    <EXPORT ORDINAL="1191" NAME="u_formatMessageWithError_2_2" PURGE="0" COMMENT="" />
    <EXPORT ORDINAL="1192" NAME="u_formatMessage_2_2" PURGE="0" COMMENT="" />
    <EXPORT ORDINAL="1193" NAME="u_parseMessageWithError_2_2" PURGE="0" COMMENT="" />
    <EXPORT ORDINAL="1194" NAME="u_parseMessage_2_2" PURGE="0" COMMENT="" />
    <EXPORT ORDINAL="1195" NAME="u_vformatMessageWithError_2_2" PURGE="0" COMMENT="" />
    <EXPORT ORDINAL="1196" NAME="u_vformatMessage_2_2" PURGE="0" COMMENT="" />
    <EXPORT ORDINAL="1197" NAME="u_vparseMessageWithError_2_2" PURGE="0" COMMENT="" />
    <EXPORT ORDINAL="1198" NAME="u_vparseMessage_2_2" PURGE="0" COMMENT="" />
    <EXPORT ORDINAL="1199" NAME="ucal_add_2_2" PURGE="0" COMMENT="" />
    <EXPORT ORDINAL="1200" NAME="ucal_clearField_2_2" PURGE="0" COMMENT="" />
    <EXPORT ORDINAL="1201" NAME="ucal_clear_2_2" PURGE="0" COMMENT="" />
    <EXPORT ORDINAL="1202" NAME="ucal_close_2_2" PURGE="0" COMMENT="" />
    <EXPORT ORDINAL="1203" NAME="ucal_countAvailableTZIDs_2_2" PURGE="0" COMMENT="" />
    <EXPORT ORDINAL="1204" NAME="ucal_countAvailable_2_2" PURGE="-1" COMMENT="" />
    <EXPORT ORDINAL="1205" NAME="ucal_equivalentTo_2_2" PURGE="0" COMMENT="" />
    <EXPORT ORDINAL="1206" NAME="ucal_getAttribute_2_2" PURGE="0" COMMENT="" />
    <EXPORT ORDINAL="1207" NAME="ucal_getAvailableTZIDs_2_2" PURGE="0" COMMENT="" />
    <EXPORT ORDINAL="1208" NAME="ucal_getAvailable_2_2" PURGE="-1" COMMENT="" />
    <EXPORT ORDINAL="1209" NAME="ucal_getLimit_2_2" PURGE="0" COMMENT="" />
    <EXPORT ORDINAL="1210" NAME="ucal_getMillis_2_2" PURGE="0" COMMENT="" />
    <EXPORT ORDINAL="1211" NAME="ucal_getNow_2_2" PURGE="0" COMMENT="" />
    <EXPORT ORDINAL="1212" NAME="ucal_getTimeZoneDisplayName_2_2" PURGE="0" COMMENT="" />
    <EXPORT ORDINAL="1213" NAME="ucal_get_2_2" PURGE="0" COMMENT="" />
    <EXPORT ORDINAL="1214" NAME="ucal_inDaylightTime_2_2" PURGE="0" COMMENT="" />
    <EXPORT ORDINAL="1215" NAME="ucal_isSet_2_2" PURGE="0" COMMENT="" />
    <EXPORT ORDINAL="1216" NAME="ucal_open_2_2" PURGE="0" COMMENT="" />
    <EXPORT ORDINAL="1217" NAME="ucal_roll_2_2" PURGE="0" COMMENT="" />
    <EXPORT ORDINAL="1218" NAME="ucal_setAttribute_2_2" PURGE="0" COMMENT="" />
    <EXPORT ORDINAL="1219" NAME="ucal_setDateTime_2_2" PURGE="0" COMMENT="" />
    <EXPORT ORDINAL="1220" NAME="ucal_setDate_2_2" PURGE="0" COMMENT="" />
    <EXPORT ORDINAL="1221" NAME="ucal_setMillis_2_2" PURGE="0" COMMENT="" />
    <EXPORT ORDINAL="1222" NAME="ucal_setTimeZone_2_2" PURGE="0" COMMENT="" />
    <EXPORT ORDINAL="1223" NAME="ucal_set_2_2" PURGE="0" COMMENT="" />
    <EXPORT ORDINAL="1224" NAME="ucol_cloneRuleData_2_2" PURGE="0" COMMENT="" />
    <EXPORT ORDINAL="1225" NAME="ucol_closeElements_2_2" PURGE="0" COMMENT="" />
    <EXPORT ORDINAL="1226" NAME="ucol_close_2_2" PURGE="0" COMMENT="" />
    <EXPORT ORDINAL="1227" NAME="ucol_countAvailable_2_2" PURGE="-1" COMMENT="" />
    <EXPORT ORDINAL="1228" NAME="ucol_equal_2_2" PURGE="0" COMMENT="" />
    <EXPORT ORDINAL="1229" NAME="ucol_getAttribute_2_2" PURGE="0" COMMENT="" />
    <EXPORT ORDINAL="1230" NAME="ucol_getAvailable_2_2" PURGE="-1" COMMENT="" />
    <EXPORT ORDINAL="1231" NAME="ucol_getBound_2_2" PURGE="0" COMMENT="" />
    <EXPORT ORDINAL="1232" NAME="ucol_getDisplayName_2_2" PURGE="0" COMMENT="" />
    <EXPORT ORDINAL="1233" NAME="ucol_getFirstCE_2_2" PURGE="0" COMMENT="" />
    <EXPORT ORDINAL="1234" NAME="ucol_getLocale_2_2" PURGE="0" COMMENT="" />
    <EXPORT ORDINAL="1235" NAME="ucol_getMaxExpansion_2_2" PURGE="0" COMMENT="" />
    <EXPORT ORDINAL="1236" NAME="ucol_getNextCE_2_2" PURGE="0" COMMENT="" />
    <EXPORT ORDINAL="1237" NAME="ucol_getNormalization_2_2" PURGE="0" COMMENT="" />
    <EXPORT ORDINAL="1238" NAME="ucol_getOffset_2_2" PURGE="0" COMMENT="" />
    <EXPORT ORDINAL="1239" NAME="ucol_getPrevCE_2_2" PURGE="0" COMMENT="" />
    <EXPORT ORDINAL="1240" NAME="ucol_getRulesEx_2_2" PURGE="0" COMMENT="" />
    <EXPORT ORDINAL="1241" NAME="ucol_getRules_2_2" PURGE="0" COMMENT="" />
    <EXPORT ORDINAL="1242" NAME="ucol_getSortKey_2_2" PURGE="0" COMMENT="" />
    <EXPORT ORDINAL="1243" NAME="ucol_getStrength_2_2" PURGE="0" COMMENT="" />
    <EXPORT ORDINAL="1244" NAME="ucol_getVariableTop_2_2" PURGE="0" COMMENT="" />
    <EXPORT ORDINAL="1245" NAME="ucol_getVersion_2_2" PURGE="0" COMMENT="" />
    <EXPORT ORDINAL="1246" NAME="ucol_greaterOrEqual_2_2" PURGE="0" COMMENT="" />
    <EXPORT ORDINAL="1247" NAME="ucol_greater_2_2" PURGE="0" COMMENT="" />
    <EXPORT ORDINAL="1248" NAME="ucol_initInverseUCA_2_2" PURGE="0" COMMENT="" />
    <EXPORT ORDINAL="1249" NAME="ucol_inv_getNextCE_2_2" PURGE="0" COMMENT="" />
    <EXPORT ORDINAL="1250" NAME="ucol_inv_getPrevCE_2_2" PURGE="0" COMMENT="" />
    <EXPORT ORDINAL="1251" NAME="ucol_isTailored_2_2" PURGE="0" COMMENT="" />
    <EXPORT ORDINAL="1252" NAME="ucol_keyHashCode_2_2" PURGE="0" COMMENT="" />
    <EXPORT ORDINAL="1253" NAME="ucol_mergeSortkeys_2_2" PURGE="0" COMMENT="" />
    <EXPORT ORDINAL="1254" NAME="ucol_next_2_2" PURGE="0" COMMENT="" />
    <EXPORT ORDINAL="1255" NAME="ucol_openElements_2_2" PURGE="0" COMMENT="" />
    <EXPORT ORDINAL="1256" NAME="ucol_openRules_2_2" PURGE="0" COMMENT="" />
    <EXPORT ORDINAL="1257" NAME="ucol_openVersion_2_2" PURGE="0" COMMENT="" />
    <EXPORT ORDINAL="1258" NAME="ucol_open_2_2" PURGE="0" COMMENT="" />
    <EXPORT ORDINAL="1259" NAME="ucol_previous_2_2" PURGE="0" COMMENT="" />
    <EXPORT ORDINAL="1260" NAME="ucol_reset_2_2" PURGE="0" COMMENT="" />
    <EXPORT ORDINAL="1261" NAME="ucol_restoreVariableTop_2_2" PURGE="0" COMMENT="" />
    <EXPORT ORDINAL="1262" NAME="ucol_safeClone_2_2" PURGE="0" COMMENT="" />
    <EXPORT ORDINAL="1263" NAME="ucol_setAttribute_2_2" PURGE="0" COMMENT="" />
    <EXPORT ORDINAL="1264" NAME="ucol_setNormalization_2_2" PURGE="0" COMMENT="" />
    <EXPORT ORDINAL="1265" NAME="ucol_setOffset_2_2" PURGE="0" COMMENT="" />
    <EXPORT ORDINAL="1266" NAME="ucol_setStrength_2_2" PURGE="0" COMMENT="" />
    <EXPORT ORDINAL="1267" NAME="ucol_setText_2_2" PURGE="0" COMMENT="" />
    <EXPORT ORDINAL="1268" NAME="ucol_setVariableTop_2_2" PURGE="0" COMMENT="" />
    <EXPORT ORDINAL="1269" NAME="ucol_sortKeyToString_2_2" PURGE="0" COMMENT="" />
    <EXPORT ORDINAL="1270" NAME="ucol_strcoll_2_2" PURGE="0" COMMENT="" />
    <EXPORT ORDINAL="1271" NAME="ucol_tok_getNextArgument_2_2" PURGE="0" COMMENT="" />
    <EXPORT ORDINAL="1272" NAME="ucol_tok_parseNextToken_2_2" PURGE="0" COMMENT="" />
    <EXPORT ORDINAL="1273" NAME="ucurr_forLocale_2_2" PURGE="0" COMMENT="" />
    <EXPORT ORDINAL="1274" NAME="ucurr_getDefaultFractionDigits_2_2" PURGE="0" COMMENT="" />
    <EXPORT ORDINAL="1275" NAME="ucurr_getRoundingIncrement_2_2" PURGE="0" COMMENT="" />
    <EXPORT ORDINAL="1276" NAME="ucurr_getSymbol_2_2" PURGE="0" COMMENT="" />
    <EXPORT ORDINAL="1277" NAME="udat_applyPattern_2_2" PURGE="0" COMMENT="" />
    <EXPORT ORDINAL="1278" NAME="udat_clone_2_2" PURGE="0" COMMENT="" />
    <EXPORT ORDINAL="1279" NAME="udat_close_2_2" PURGE="0" COMMENT="" />
    <EXPORT ORDINAL="1280" NAME="udat_countAvailable_2_2" PURGE="-1" COMMENT="" />
    <EXPORT ORDINAL="1281" NAME="udat_countSymbols_2_2" PURGE="0" COMMENT="" />
    <EXPORT ORDINAL="1282" NAME="udat_format_2_2" PURGE="0" COMMENT="" />
    <EXPORT ORDINAL="1283" NAME="udat_get2DigitYearStart_2_2" PURGE="0" COMMENT="" />
    <EXPORT ORDINAL="1284" NAME="udat_getAvailable_2_2" PURGE="-1" COMMENT="" />
    <EXPORT ORDINAL="1285" NAME="udat_getCalendar_2_2" PURGE="-1" COMMENT="" />
    <EXPORT ORDINAL="1286" NAME="udat_getNumberFormat_2_2" PURGE="-1" COMMENT="" />
    <EXPORT ORDINAL="1287" NAME="udat_getSymbols_2_2" PURGE="0" COMMENT="" />
    <EXPORT ORDINAL="1288" NAME="udat_isLenient_2_2" PURGE="-1" COMMENT="" />
    <EXPORT ORDINAL="1289" NAME="udat_open_2_2" PURGE="0" COMMENT="" />
    <EXPORT ORDINAL="1290" NAME="udat_parseCalendar_2_2" PURGE="0" COMMENT="" />
    <EXPORT ORDINAL="1291" NAME="udat_parse_2_2" PURGE="0" COMMENT="" />
    <EXPORT ORDINAL="1292" NAME="udat_set2DigitYearStart_2_2" PURGE="0" COMMENT="" />
    <EXPORT ORDINAL="1293" NAME="udat_setCalendar_2_2" PURGE="0" COMMENT="" />
    <EXPORT ORDINAL="1294" NAME="udat_setLenient_2_2" PURGE="0" COMMENT="" />
    <EXPORT ORDINAL="1295" NAME="udat_setNumberFormat_2_2" PURGE="0" COMMENT="" />
    <EXPORT ORDINAL="1296" NAME="udat_setSymbols_2_2" PURGE="0" COMMENT="" />
    <EXPORT ORDINAL="1297" NAME="udat_toPattern_2_2" PURGE="0" COMMENT="" />
    <EXPORT ORDINAL="1298" NAME="umsg_applyPattern_2_2" PURGE="0" COMMENT="" />
    <EXPORT ORDINAL="1299" NAME="umsg_clone_2_2" PURGE="0" COMMENT="" />
    <EXPORT ORDINAL="1300" NAME="umsg_close_2_2" PURGE="0" COMMENT="" />
    <EXPORT ORDINAL="1301" NAME="umsg_format_2_2" PURGE="0" COMMENT="" />
    <EXPORT ORDINAL="1302" NAME="umsg_getLocale_2_2" PURGE="0" COMMENT="" />
    <EXPORT ORDINAL="1303" NAME="umsg_open_2_2" PURGE="0" COMMENT="" />
    <EXPORT ORDINAL="1304" NAME="umsg_parse_2_2" PURGE="0" COMMENT="" />
    <EXPORT ORDINAL="1305" NAME="umsg_setLocale_2_2" PURGE="0" COMMENT="" />
    <EXPORT ORDINAL="1306" NAME="umsg_toPattern_2_2" PURGE="0" COMMENT="" />
    <EXPORT ORDINAL="1307" NAME="umsg_vformat_2_2" PURGE="0" COMMENT="" />
    <EXPORT ORDINAL="1308" NAME="umsg_vparse_2_2" PURGE="0" COMMENT="" />
    <EXPORT ORDINAL="1309" NAME="unum_applyPattern_2_2" PURGE="0" COMMENT="" />
    <EXPORT ORDINAL="1310" NAME="unum_clone_2_2" PURGE="0" COMMENT="" />
    <EXPORT ORDINAL="1311" NAME="unum_close_2_2" PURGE="0" COMMENT="" />
    <EXPORT ORDINAL="1312" NAME="unum_countAvailable_2_2" PURGE="-1" COMMENT="" />
    <EXPORT ORDINAL="1313" NAME="unum_formatDouble_2_2" PURGE="0" COMMENT="" />
    <EXPORT ORDINAL="1314" NAME="unum_format_2_2" PURGE="0" COMMENT="" />
    <EXPORT ORDINAL="1315" NAME="unum_getAttribute_2_2" PURGE="0" COMMENT="" />
    <EXPORT ORDINAL="1316" NAME="unum_getAvailable_2_2" PURGE="-1" COMMENT="" />
    <EXPORT ORDINAL="1317" NAME="unum_getDoubleAttribute_2_2" PURGE="0" COMMENT="" />
    <EXPORT ORDINAL="1318" NAME="unum_getSymbol_2_2" PURGE="0" COMMENT="" />
    <EXPORT ORDINAL="1319" NAME="unum_getTextAttribute_2_2" PURGE="0" COMMENT="" />
    <EXPORT ORDINAL="1320" NAME="unum_open_2_2" PURGE="0" COMMENT="" />
    <EXPORT ORDINAL="1321" NAME="unum_parseDouble_2_2" PURGE="0" COMMENT="" />
    <EXPORT ORDINAL="1322" NAME="unum_parse_2_2" PURGE="0" COMMENT="" />
    <EXPORT ORDINAL="1323" NAME="unum_setAttribute_2_2" PURGE="0" COMMENT="" />
    <EXPORT ORDINAL="1324" NAME="unum_setDoubleAttribute_2_2" PURGE="0" COMMENT="" />
    <EXPORT ORDINAL="1325" NAME="unum_setSymbol_2_2" PURGE="0" COMMENT="" />
    <EXPORT ORDINAL="1326" NAME="unum_setTextAttribute_2_2" PURGE="0" COMMENT="" />
    <EXPORT ORDINAL="1327" NAME="unum_toPattern_2_2" PURGE="0" COMMENT="" />
    <EXPORT ORDINAL="1328" NAME="uprv_cnttab_addContraction_2_2" PURGE="0" COMMENT="" />
    <EXPORT ORDINAL="1329" NAME="uprv_cnttab_changeContraction_2_2" PURGE="0" COMMENT="" />
    <EXPORT ORDINAL="1330" NAME="uprv_cnttab_changeLastCE_2_2" PURGE="0" COMMENT="" />
    <EXPORT ORDINAL="1331" NAME="uprv_cnttab_clone_2_2" PURGE="0" COMMENT="" />
    <EXPORT ORDINAL="1332" NAME="uprv_cnttab_close_2_2" PURGE="0" COMMENT="" />
    <EXPORT ORDINAL="1333" NAME="uprv_cnttab_constructTable_2_2" PURGE="0" COMMENT="" />
    <EXPORT ORDINAL="1334" NAME="uprv_cnttab_findCE_2_2" PURGE="0" COMMENT="" />
    <EXPORT ORDINAL="1335" NAME="uprv_cnttab_findCP_2_2" PURGE="0" COMMENT="" />
    <EXPORT ORDINAL="1336" NAME="uprv_cnttab_getCE_2_2" PURGE="0" COMMENT="" />
    <EXPORT ORDINAL="1337" NAME="uprv_cnttab_insertContraction_2_2" PURGE="0" COMMENT="" />
    <EXPORT ORDINAL="1338" NAME="uprv_cnttab_isTailored_2_2" PURGE="0" COMMENT="" />
    <EXPORT ORDINAL="1339" NAME="uprv_cnttab_open_2_2" PURGE="0" COMMENT="" />
    <EXPORT ORDINAL="1340" NAME="uprv_cnttab_setContraction_2_2" PURGE="0" COMMENT="" />
    <EXPORT ORDINAL="1341" NAME="uprv_init_collIterate_2_2" PURGE="0" COMMENT="" />
    <EXPORT ORDINAL="1342" NAME="uprv_uca_addAnElement_2_2" PURGE="0" COMMENT="" />
    <EXPORT ORDINAL="1343" NAME="uprv_uca_assembleTable_2_2" PURGE="0" COMMENT="" />
    <EXPORT ORDINAL="1344" NAME="uprv_uca_canonicalClosure_2_2" PURGE="0" COMMENT="" />
    <EXPORT ORDINAL="1345" NAME="uprv_uca_cloneTempTable_2_2" PURGE="0" COMMENT="" />
    <EXPORT ORDINAL="1346" NAME="uprv_uca_closeTempTable_2_2" PURGE="0" COMMENT="" />
    <EXPORT ORDINAL="1347" NAME="uprv_uca_initImplicitConstants_2_2" PURGE="0" COMMENT="" />
    <EXPORT ORDINAL="1348" NAME="uprv_uca_initTempTable_2_2" PURGE="0" COMMENT="" />
    <EXPORT ORDINAL="1349" NAME="usearch_close_2_2" PURGE="0" COMMENT="" />
    <EXPORT ORDINAL="1350" NAME="usearch_first_2_2" PURGE="0" COMMENT="" />
    <EXPORT ORDINAL="1351" NAME="usearch_following_2_2" PURGE="0" COMMENT="" />
    <EXPORT ORDINAL="1352" NAME="usearch_getAttribute_2_2" PURGE="0" COMMENT="" />
    <EXPORT ORDINAL="1353" NAME="usearch_getBreakIterator_2_2" PURGE="0" COMMENT="" />
    <EXPORT ORDINAL="1354" NAME="usearch_getCollator_2_2" PURGE="0" COMMENT="" />
    <EXPORT ORDINAL="1355" NAME="usearch_getMatchedLength_2_2" PURGE="0" COMMENT="" />
    <EXPORT ORDINAL="1356" NAME="usearch_getMatchedStart_2_2" PURGE="0" COMMENT="" />
    <EXPORT ORDINAL="1357" NAME="usearch_getMatchedText_2_2" PURGE="0" COMMENT="" />
    <EXPORT ORDINAL="1358" NAME="usearch_getOffset_2_2" PURGE="0" COMMENT="" />
    <EXPORT ORDINAL="1359" NAME="usearch_getPattern_2_2" PURGE="0" COMMENT="" />
    <EXPORT ORDINAL="1360" NAME="usearch_getText_2_2" PURGE="0" COMMENT="" />
    <EXPORT ORDINAL="1361" NAME="usearch_last_2_2" PURGE="0" COMMENT="" />
    <EXPORT ORDINAL="1362" NAME="usearch_next_2_2" PURGE="0" COMMENT="" />
    <EXPORT ORDINAL="1363" NAME="usearch_openFromCollator_2_2" PURGE="0" COMMENT="" />
    <EXPORT ORDINAL="1364" NAME="usearch_open_2_2" PURGE="0" COMMENT="" />
    <EXPORT ORDINAL="1365" NAME="usearch_preceding_2_2" PURGE="0" COMMENT="" />
    <EXPORT ORDINAL="1366" NAME="usearch_previous_2_2" PURGE="0" COMMENT="" />
    <EXPORT ORDINAL="1367" NAME="usearch_reset_2_2" PURGE="0" COMMENT="" />
    <EXPORT ORDINAL="1368" NAME="usearch_setAttribute_2_2" PURGE="0" COMMENT="" />
    <EXPORT ORDINAL="1369" NAME="usearch_setBreakIterator_2_2" PURGE="0" COMMENT="" />
    <EXPORT ORDINAL="1370" NAME="usearch_setCollator_2_2" PURGE="0" COMMENT="" />
    <EXPORT ORDINAL="1371" NAME="usearch_setOffset_2_2" PURGE="0" COMMENT="" />
    <EXPORT ORDINAL="1372" NAME="usearch_setPattern_2_2" PURGE="0" COMMENT="" />
    <EXPORT ORDINAL="1373" NAME="usearch_setText_2_2" PURGE="0" COMMENT="" />
    <EXPORT ORDINAL="1374" NAME="utrans_clone_2_2" PURGE="0" COMMENT="" />
    <EXPORT ORDINAL="1375" NAME="utrans_close_2_2" PURGE="0" COMMENT="" />
    <EXPORT ORDINAL="1376" NAME="utrans_countAvailableIDs_2_2" PURGE="0" COMMENT="" />
    <EXPORT ORDINAL="1377" NAME="utrans_getAvailableID_2_2" PURGE="0" COMMENT="" />
    <EXPORT ORDINAL="1378" NAME="utrans_getID_2_2" PURGE="0" COMMENT="" />
    <EXPORT ORDINAL="1379" NAME="utrans_openInverse_2_2" PURGE="0" COMMENT="" />
    <EXPORT ORDINAL="1380" NAME="utrans_open_2_2" PURGE="0" COMMENT="" />
    <EXPORT ORDINAL="1381" NAME="utrans_register_2_2" PURGE="0" COMMENT="" />
    <EXPORT ORDINAL="1382" NAME="utrans_setFilter_2_2" PURGE="0" COMMENT="" />
    <EXPORT ORDINAL="1383" NAME="utrans_transIncrementalUChars_2_2" PURGE="0" COMMENT="" />
    <EXPORT ORDINAL="1384" NAME="utrans_transIncremental_2_2" PURGE="0" COMMENT="" />
    <EXPORT ORDINAL="1385" NAME="utrans_transUChars_2_2" PURGE="0" COMMENT="" />
    <EXPORT ORDINAL="1386" NAME="utrans_trans_2_2" PURGE="0" COMMENT="" />
    <EXPORT ORDINAL="1387" NAME="utrans_unregister_2_2" PURGE="0" COMMENT="" />
</LIBRARY>

