<?xml version="1.0" encoding="UTF-8"?>
<LIBRARY NAME="icuin44.dll" PATH="/DLLArchive/etc/icuin44.dll" DATE="Fri Jul 03 12:39:45 PDT 2020" VERSION="4, 4, 0, 0">
    <EXPORT ORDINAL="1" NAME="??0?$MaybeStackArray@D$0DE@@icu_44@@AAE@ABV01@@Z" PURGE="4" COMMENT="" />
    <EXPORT ORDINAL="2" NAME="??0?$MaybeStackArray@D$0DE@@icu_44@@QAE@XZ" PURGE="0" COMMENT="" />
    <EXPORT ORDINAL="3" NAME="??0AnnualTimeZoneRule@icu_44@@QAE@ABV01@@Z" PURGE="4" COMMENT="" />
    <EXPORT ORDINAL="4" NAME="??0AnnualTimeZoneRule@icu_44@@QAE@ABVUnicodeString@1@HHABVDateTimeRule@1@HH@Z" PURGE="24" COMMENT="" />
    <EXPORT ORDINAL="5" NAME="??0AnnualTimeZoneRule@icu_44@@QAE@ABVUnicodeString@1@HHPAVDateTimeRule@1@HH@Z" PURGE="24" COMMENT="" />
    <EXPORT ORDINAL="6" NAME="??0BasicTimeZone@icu_44@@IAE@ABV01@@Z" PURGE="4" COMMENT="" />
    <EXPORT ORDINAL="7" NAME="??0BasicTimeZone@icu_44@@IAE@ABVUnicodeString@1@@Z" PURGE="4" COMMENT="" />
    <EXPORT ORDINAL="8" NAME="??0BasicTimeZone@icu_44@@IAE@XZ" PURGE="0" COMMENT="" />
    <EXPORT ORDINAL="9" NAME="??0BoyerMooreSearch@icu_44@@QAE@ABV01@@Z" PURGE="4" COMMENT="" />
    <EXPORT ORDINAL="10" NAME="??0BoyerMooreSearch@icu_44@@QAE@PAVCollData@1@ABVUnicodeString@1@PBV31@AAW4UErrorCode@@@Z" PURGE="16" COMMENT="" />
    <EXPORT ORDINAL="11" NAME="??0CECalendar@icu_44@@IAE@ABV01@@Z" PURGE="4" COMMENT="" />
    <EXPORT ORDINAL="12" NAME="??0CECalendar@icu_44@@IAE@ABVLocale@1@AAW4UErrorCode@@@Z" PURGE="8" COMMENT="" />
    <EXPORT ORDINAL="13" NAME="??0CEList@icu_44@@QAE@ABV01@@Z" PURGE="4" COMMENT="" />
    <EXPORT ORDINAL="14" NAME="??0CEList@icu_44@@QAE@PAUUCollator@@ABVUnicodeString@1@AAW4UErrorCode@@@Z" PURGE="12" COMMENT="" />
    <EXPORT ORDINAL="15" NAME="??0Calendar@icu_44@@IAE@AAW4UErrorCode@@@Z" PURGE="4" COMMENT="" />
    <EXPORT ORDINAL="16" NAME="??0Calendar@icu_44@@IAE@ABV01@@Z" PURGE="4" COMMENT="" />
    <EXPORT ORDINAL="17" NAME="??0Calendar@icu_44@@IAE@ABVTimeZone@1@ABVLocale@1@AAW4UErrorCode@@@Z" PURGE="12" COMMENT="" />
    <EXPORT ORDINAL="18" NAME="??0Calendar@icu_44@@IAE@PAVTimeZone@1@ABVLocale@1@AAW4UErrorCode@@@Z" PURGE="12" COMMENT="" />
    <EXPORT ORDINAL="19" NAME="??0CalendarAstronomer@icu_44@@QAE@N@Z" PURGE="8" COMMENT="" />
    <EXPORT ORDINAL="20" NAME="??0CalendarAstronomer@icu_44@@QAE@NN@Z" PURGE="16" COMMENT="" />
    <EXPORT ORDINAL="21" NAME="??0CalendarAstronomer@icu_44@@QAE@XZ" PURGE="0" COMMENT="" />
    <EXPORT ORDINAL="22" NAME="??0ChoiceFormat@icu_44@@AAE@ABVUnicodeString@1@AAUUParseError@@AAW4UErrorCode@@@Z" PURGE="12" COMMENT="" />
    <EXPORT ORDINAL="23" NAME="??0ChoiceFormat@icu_44@@QAE@ABV01@@Z" PURGE="4" COMMENT="" />
    <EXPORT ORDINAL="24" NAME="??0ChoiceFormat@icu_44@@QAE@ABVUnicodeString@1@AAW4UErrorCode@@@Z" PURGE="8" COMMENT="" />
    <EXPORT ORDINAL="25" NAME="??0ChoiceFormat@icu_44@@QAE@PBNPBCPBVUnicodeString@1@H@Z" PURGE="16" COMMENT="" />
    <EXPORT ORDINAL="26" NAME="??0ChoiceFormat@icu_44@@QAE@PBNPBVUnicodeString@1@H@Z" PURGE="12" COMMENT="" />
    <EXPORT ORDINAL="27" NAME="??0CollData@icu_44@@AAE@PAUUCollator@@PADHAAW4UErrorCode@@@Z" PURGE="16" COMMENT="" />
    <EXPORT ORDINAL="28" NAME="??0CollData@icu_44@@AAE@XZ" PURGE="0" COMMENT="" />
    <EXPORT ORDINAL="29" NAME="??0CollData@icu_44@@QAE@ABV01@@Z" PURGE="4" COMMENT="" />
    <EXPORT ORDINAL="30" NAME="??0CollationElementIterator@icu_44@@IAE@ABVCharacterIterator@1@PBVRuleBasedCollator@1@AAW4UErrorCode@@@Z" PURGE="12" COMMENT="" />
    <EXPORT ORDINAL="31" NAME="??0CollationElementIterator@icu_44@@IAE@ABVUnicodeString@1@PBVRuleBasedCollator@1@AAW4UErrorCode@@@Z" PURGE="12" COMMENT="" />
    <EXPORT ORDINAL="32" NAME="??0CollationElementIterator@icu_44@@QAE@ABV01@@Z" PURGE="4" COMMENT="" />
    <EXPORT ORDINAL="33" NAME="??0CollationKey@icu_44@@QAE@ABV01@@Z" PURGE="4" COMMENT="" />
    <EXPORT ORDINAL="34" NAME="??0CollationKey@icu_44@@QAE@PBEH@Z" PURGE="8" COMMENT="" />
    <EXPORT ORDINAL="35" NAME="??0CollationKey@icu_44@@QAE@XZ" PURGE="0" COMMENT="" />
    <EXPORT ORDINAL="36" NAME="??0Collator@icu_44@@IAE@ABV01@@Z" PURGE="4" COMMENT="" />
    <EXPORT ORDINAL="37" NAME="??0Collator@icu_44@@IAE@W4UColAttributeValue@@W4UNormalizationMode@@@Z" PURGE="8" COMMENT="" />
    <EXPORT ORDINAL="38" NAME="??0Collator@icu_44@@IAE@XZ" PURGE="0" COMMENT="" />
    <EXPORT ORDINAL="39" NAME="??0CollatorFactory@icu_44@@QAE@ABV01@@Z" PURGE="4" COMMENT="" />
    <EXPORT ORDINAL="40" NAME="??0CollatorFactory@icu_44@@QAE@XZ" PURGE="0" COMMENT="" />
    <EXPORT ORDINAL="41" NAME="??0CompoundTransliterator@icu_44@@AAE@AAVUVector@1@AAUUParseError@@AAW4UErrorCode@@@Z" PURGE="12" COMMENT="" />
    <EXPORT ORDINAL="42" NAME="??0CompoundTransliterator@icu_44@@AAE@AAVUVector@1@HAAUUParseError@@AAW4UErrorCode@@@Z" PURGE="16" COMMENT="" />
    <EXPORT ORDINAL="43" NAME="??0CompoundTransliterator@icu_44@@AAE@ABVUnicodeString@1@AAVUVector@1@PAVUnicodeFilter@1@HAAUUParseError@@AAW4UErrorCode@@@Z" PURGE="24" COMMENT="" />
    <EXPORT ORDINAL="44" NAME="??0CompoundTransliterator@icu_44@@QAE@ABV01@@Z" PURGE="4" COMMENT="" />
    <EXPORT ORDINAL="45" NAME="??0CompoundTransliterator@icu_44@@QAE@ABVUnicodeString@1@AAUUParseError@@AAW4UErrorCode@@@Z" PURGE="12" COMMENT="" />
    <EXPORT ORDINAL="46" NAME="??0CompoundTransliterator@icu_44@@QAE@ABVUnicodeString@1@W4UTransDirection@@PAVUnicodeFilter@1@AAUUParseError@@AAW4UErrorCode@@@Z" PURGE="20" COMMENT="" />
    <EXPORT ORDINAL="47" NAME="??0CompoundTransliterator@icu_44@@QAE@QBQAVTransliterator@1@HPAVUnicodeFilter@1@@Z" PURGE="12" COMMENT="" />
    <EXPORT ORDINAL="48" NAME="??0CurrencyAmount@icu_44@@QAE@ABV01@@Z" PURGE="4" COMMENT="" />
    <EXPORT ORDINAL="49" NAME="??0CurrencyAmount@icu_44@@QAE@ABVFormattable@1@PB_WAAW4UErrorCode@@@Z" PURGE="12" COMMENT="" />
    <EXPORT ORDINAL="50" NAME="??0CurrencyAmount@icu_44@@QAE@NPB_WAAW4UErrorCode@@@Z" PURGE="16" COMMENT="" />
    <EXPORT ORDINAL="51" NAME="??0CurrencyPluralInfo@icu_44@@QAE@AAW4UErrorCode@@@Z" PURGE="4" COMMENT="" />
    <EXPORT ORDINAL="52" NAME="??0CurrencyPluralInfo@icu_44@@QAE@ABV01@@Z" PURGE="4" COMMENT="" />
    <EXPORT ORDINAL="53" NAME="??0CurrencyPluralInfo@icu_44@@QAE@ABVLocale@1@AAW4UErrorCode@@@Z" PURGE="8" COMMENT="" />
    <EXPORT ORDINAL="54" NAME="??0CurrencyUnit@icu_44@@QAE@ABV01@@Z" PURGE="4" COMMENT="" />
    <EXPORT ORDINAL="55" NAME="??0CurrencyUnit@icu_44@@QAE@PB_WAAW4UErrorCode@@@Z" PURGE="8" COMMENT="" />
    <EXPORT ORDINAL="56" NAME="??0DateFormat@icu_44@@IAE@ABV01@@Z" PURGE="4" COMMENT="" />
    <EXPORT ORDINAL="57" NAME="??0DateFormat@icu_44@@IAE@XZ" PURGE="0" COMMENT="" />
    <EXPORT ORDINAL="58" NAME="??0DateFormatSymbols@icu_44@@QAE@AAW4UErrorCode@@@Z" PURGE="4" COMMENT="" />
    <EXPORT ORDINAL="59" NAME="??0DateFormatSymbols@icu_44@@QAE@ABV01@@Z" PURGE="4" COMMENT="" />
    <EXPORT ORDINAL="60" NAME="??0DateFormatSymbols@icu_44@@QAE@ABVLocale@1@AAW4UErrorCode@@@Z" PURGE="8" COMMENT="" />
    <EXPORT ORDINAL="61" NAME="??0DateFormatSymbols@icu_44@@QAE@ABVLocale@1@PBDAAW4UErrorCode@@@Z" PURGE="12" COMMENT="" />
    <EXPORT ORDINAL="62" NAME="??0DateFormatSymbols@icu_44@@QAE@PBDAAW4UErrorCode@@@Z" PURGE="8" COMMENT="" />
    <EXPORT ORDINAL="63" NAME="??0DateIntervalFormat@icu_44@@AAE@ABVLocale@1@PAVDateIntervalInfo@1@PBVUnicodeString@1@AAW4UErrorCode@@@Z" PURGE="16" COMMENT="" />
    <EXPORT ORDINAL="64" NAME="??0DateIntervalFormat@icu_44@@AAE@XZ" PURGE="0" COMMENT="" />
    <EXPORT ORDINAL="65" NAME="??0DateIntervalFormat@icu_44@@IAE@ABV01@@Z" PURGE="4" COMMENT="" />
    <EXPORT ORDINAL="66" NAME="??0DateIntervalInfo@icu_44@@QAE@AAW4UErrorCode@@@Z" PURGE="4" COMMENT="" />
    <EXPORT ORDINAL="67" NAME="??0DateIntervalInfo@icu_44@@QAE@ABV01@@Z" PURGE="4" COMMENT="" />
    <EXPORT ORDINAL="68" NAME="??0DateIntervalInfo@icu_44@@QAE@ABVLocale@1@AAW4UErrorCode@@@Z" PURGE="8" COMMENT="" />
    <EXPORT ORDINAL="69" NAME="??0DateTimePatternGenerator@icu_44@@AAE@AAW4UErrorCode@@@Z" PURGE="4" COMMENT="" />
    <EXPORT ORDINAL="70" NAME="??0DateTimePatternGenerator@icu_44@@AAE@ABV01@@Z" PURGE="4" COMMENT="" />
    <EXPORT ORDINAL="71" NAME="??0DateTimePatternGenerator@icu_44@@AAE@ABVLocale@1@AAW4UErrorCode@@@Z" PURGE="8" COMMENT="" />
    <EXPORT ORDINAL="72" NAME="??0DateTimeRule@icu_44@@QAE@ABV01@@Z" PURGE="4" COMMENT="" />
    <EXPORT ORDINAL="73" NAME="??0DateTimeRule@icu_44@@QAE@HHHCHW4TimeRuleType@01@@Z" PURGE="24" COMMENT="" />
    <EXPORT ORDINAL="74" NAME="??0DateTimeRule@icu_44@@QAE@HHHHW4TimeRuleType@01@@Z" PURGE="20" COMMENT="" />
    <EXPORT ORDINAL="75" NAME="??0DateTimeRule@icu_44@@QAE@HHHW4TimeRuleType@01@@Z" PURGE="16" COMMENT="" />
    <EXPORT ORDINAL="76" NAME="??0DecimalFormat@icu_44@@QAE@AAW4UErrorCode@@@Z" PURGE="4" COMMENT="" />
    <EXPORT ORDINAL="77" NAME="??0DecimalFormat@icu_44@@QAE@ABV01@@Z" PURGE="4" COMMENT="" />
    <EXPORT ORDINAL="78" NAME="??0DecimalFormat@icu_44@@QAE@ABVUnicodeString@1@AAW4UErrorCode@@@Z" PURGE="8" COMMENT="" />
    <EXPORT ORDINAL="79" NAME="??0DecimalFormat@icu_44@@QAE@ABVUnicodeString@1@ABVDecimalFormatSymbols@1@AAW4UErrorCode@@@Z" PURGE="12" COMMENT="" />
    <EXPORT ORDINAL="80" NAME="??0DecimalFormat@icu_44@@QAE@ABVUnicodeString@1@PAVDecimalFormatSymbols@1@AAUUParseError@@AAW4UErrorCode@@@Z" PURGE="16" COMMENT="" />
    <EXPORT ORDINAL="81" NAME="??0DecimalFormat@icu_44@@QAE@ABVUnicodeString@1@PAVDecimalFormatSymbols@1@AAW4UErrorCode@@@Z" PURGE="12" COMMENT="" />
    <EXPORT ORDINAL="82" NAME="??0DecimalFormat@icu_44@@QAE@ABVUnicodeString@1@PAVDecimalFormatSymbols@1@W4EStyles@NumberFormat@1@AAW4UErrorCode@@@Z" PURGE="16" COMMENT="" />
    <EXPORT ORDINAL="83" NAME="??0DecimalFormatSymbols@icu_44@@QAE@AAW4UErrorCode@@@Z" PURGE="4" COMMENT="" />
    <EXPORT ORDINAL="84" NAME="??0DecimalFormatSymbols@icu_44@@QAE@ABV01@@Z" PURGE="4" COMMENT="" />
    <EXPORT ORDINAL="85" NAME="??0DecimalFormatSymbols@icu_44@@QAE@ABVLocale@1@AAW4UErrorCode@@@Z" PURGE="8" COMMENT="" />
    <EXPORT ORDINAL="86" NAME="??0DigitList@icu_44@@QAE@ABV01@@Z" PURGE="4" COMMENT="" />
    <EXPORT ORDINAL="87" NAME="??0DigitList@icu_44@@QAE@XZ" PURGE="0" COMMENT="" />
    <EXPORT ORDINAL="88" NAME="??0Ecliptic@CalendarAstronomer@icu_44@@QAE@NN@Z" PURGE="16" COMMENT="" />
    <EXPORT ORDINAL="89" NAME="??0Equatorial@CalendarAstronomer@icu_44@@QAE@NN@Z" PURGE="16" COMMENT="" />
    <EXPORT ORDINAL="90" NAME="??0FieldPosition@icu_44@@QAE@ABV01@@Z" PURGE="4" COMMENT="" />
    <EXPORT ORDINAL="91" NAME="??0FieldPosition@icu_44@@QAE@H@Z" PURGE="4" COMMENT="" />
    <EXPORT ORDINAL="92" NAME="??0FieldPosition@icu_44@@QAE@XZ" PURGE="0" COMMENT="" />
    <EXPORT ORDINAL="93" NAME="??0FieldPositionIterator@icu_44@@QAE@ABV01@@Z" PURGE="4" COMMENT="" />
    <EXPORT ORDINAL="94" NAME="??0FieldPositionIterator@icu_44@@QAE@XZ" PURGE="0" COMMENT="" />
    <EXPORT ORDINAL="95" NAME="??0Format@icu_44@@IAE@ABV01@@Z" PURGE="4" COMMENT="" />
    <EXPORT ORDINAL="96" NAME="??0Format@icu_44@@IAE@XZ" PURGE="0" COMMENT="" />
    <EXPORT ORDINAL="97" NAME="??0Formattable@icu_44@@QAE@ABV01@@Z" PURGE="4" COMMENT="" />
    <EXPORT ORDINAL="98" NAME="??0Formattable@icu_44@@QAE@ABVStringPiece@1@AAW4UErrorCode@@@Z" PURGE="8" COMMENT="" />
    <EXPORT ORDINAL="99" NAME="??0Formattable@icu_44@@QAE@ABVUnicodeString@1@@Z" PURGE="4" COMMENT="" />
    <EXPORT ORDINAL="100" NAME="??0Formattable@icu_44@@QAE@H@Z" PURGE="4" COMMENT="" />
    <EXPORT ORDINAL="101" NAME="??0Formattable@icu_44@@QAE@N@Z" PURGE="8" COMMENT="" />
    <EXPORT ORDINAL="102" NAME="??0Formattable@icu_44@@QAE@NW4ISDATE@01@@Z" PURGE="12" COMMENT="" />
    <EXPORT ORDINAL="103" NAME="??0Formattable@icu_44@@QAE@PAVUObject@1@@Z" PURGE="4" COMMENT="" />
    <EXPORT ORDINAL="104" NAME="??0Formattable@icu_44@@QAE@PAVUnicodeString@1@@Z" PURGE="4" COMMENT="" />
    <EXPORT ORDINAL="105" NAME="??0Formattable@icu_44@@QAE@PBD@Z" PURGE="4" COMMENT="" />
    <EXPORT ORDINAL="106" NAME="??0Formattable@icu_44@@QAE@PBV01@H@Z" PURGE="8" COMMENT="" />
    <EXPORT ORDINAL="107" NAME="??0Formattable@icu_44@@QAE@XZ" PURGE="0" COMMENT="" />
    <EXPORT ORDINAL="108" NAME="??0Formattable@icu_44@@QAE@_J@Z" PURGE="8" COMMENT="" />
    <EXPORT ORDINAL="109" NAME="??0GregorianCalendar@icu_44@@QAE@AAW4UErrorCode@@@Z" PURGE="4" COMMENT="" />
    <EXPORT ORDINAL="110" NAME="??0GregorianCalendar@icu_44@@QAE@ABV01@@Z" PURGE="4" COMMENT="" />
    <EXPORT ORDINAL="111" NAME="??0GregorianCalendar@icu_44@@QAE@ABVLocale@1@AAW4UErrorCode@@@Z" PURGE="8" COMMENT="" />
    <EXPORT ORDINAL="112" NAME="??0GregorianCalendar@icu_44@@QAE@ABVTimeZone@1@AAW4UErrorCode@@@Z" PURGE="8" COMMENT="" />
    <EXPORT ORDINAL="113" NAME="??0GregorianCalendar@icu_44@@QAE@ABVTimeZone@1@ABVLocale@1@AAW4UErrorCode@@@Z" PURGE="12" COMMENT="" />
    <EXPORT ORDINAL="114" NAME="??0GregorianCalendar@icu_44@@QAE@HHHAAW4UErrorCode@@@Z" PURGE="16" COMMENT="" />
    <EXPORT ORDINAL="115" NAME="??0GregorianCalendar@icu_44@@QAE@HHHHHAAW4UErrorCode@@@Z" PURGE="24" COMMENT="" />
    <EXPORT ORDINAL="116" NAME="??0GregorianCalendar@icu_44@@QAE@HHHHHHAAW4UErrorCode@@@Z" PURGE="28" COMMENT="" />
    <EXPORT ORDINAL="117" NAME="??0GregorianCalendar@icu_44@@QAE@PAVTimeZone@1@AAW4UErrorCode@@@Z" PURGE="8" COMMENT="" />
    <EXPORT ORDINAL="118" NAME="??0GregorianCalendar@icu_44@@QAE@PAVTimeZone@1@ABVLocale@1@AAW4UErrorCode@@@Z" PURGE="12" COMMENT="" />
    <EXPORT ORDINAL="119" NAME="??0HebrewCalendar@icu_44@@QAE@ABV01@@Z" PURGE="4" COMMENT="" />
    <EXPORT ORDINAL="120" NAME="??0HebrewCalendar@icu_44@@QAE@ABVLocale@1@AAW4UErrorCode@@@Z" PURGE="8" COMMENT="" />
    <EXPORT ORDINAL="121" NAME="??0Horizon@CalendarAstronomer@icu_44@@QAE@NN@Z" PURGE="16" COMMENT="" />
    <EXPORT ORDINAL="122" NAME="??0InitialTimeZoneRule@icu_44@@QAE@ABV01@@Z" PURGE="4" COMMENT="" />
    <EXPORT ORDINAL="123" NAME="??0InitialTimeZoneRule@icu_44@@QAE@ABVUnicodeString@1@HH@Z" PURGE="12" COMMENT="" />
    <EXPORT ORDINAL="124" NAME="??0LocaleDisplayNames@icu_44@@QAE@ABV01@@Z" PURGE="4" COMMENT="" />
    <EXPORT ORDINAL="125" NAME="??0LocaleDisplayNames@icu_44@@QAE@XZ" PURGE="0" COMMENT="" />
    <EXPORT ORDINAL="126" NAME="??0Measure@icu_44@@IAE@XZ" PURGE="0" COMMENT="" />
    <EXPORT ORDINAL="127" NAME="??0Measure@icu_44@@QAE@ABV01@@Z" PURGE="4" COMMENT="" />
    <EXPORT ORDINAL="128" NAME="??0Measure@icu_44@@QAE@ABVFormattable@1@PAVMeasureUnit@1@AAW4UErrorCode@@@Z" PURGE="12" COMMENT="" />
    <EXPORT ORDINAL="129" NAME="??0MeasureFormat@icu_44@@IAE@XZ" PURGE="0" COMMENT="" />
    <EXPORT ORDINAL="130" NAME="??0MeasureFormat@icu_44@@QAE@ABV01@@Z" PURGE="4" COMMENT="" />
    <EXPORT ORDINAL="131" NAME="??0MeasureUnit@icu_44@@IAE@XZ" PURGE="0" COMMENT="" />
    <EXPORT ORDINAL="132" NAME="??0MeasureUnit@icu_44@@QAE@ABV01@@Z" PURGE="4" COMMENT="" />
    <EXPORT ORDINAL="133" NAME="??0MessageFormat@icu_44@@QAE@ABV01@@Z" PURGE="4" COMMENT="" />
    <EXPORT ORDINAL="134" NAME="??0MessageFormat@icu_44@@QAE@ABVUnicodeString@1@AAW4UErrorCode@@@Z" PURGE="8" COMMENT="" />
    <EXPORT ORDINAL="135" NAME="??0MessageFormat@icu_44@@QAE@ABVUnicodeString@1@ABVLocale@1@AAUUParseError@@AAW4UErrorCode@@@Z" PURGE="16" COMMENT="" />
    <EXPORT ORDINAL="136" NAME="??0MessageFormat@icu_44@@QAE@ABVUnicodeString@1@ABVLocale@1@AAW4UErrorCode@@@Z" PURGE="12" COMMENT="" />
    <EXPORT ORDINAL="137" NAME="??0MoonAge@CalendarAstronomer@icu_44@@QAE@N@Z" PURGE="8" COMMENT="" />
    <EXPORT ORDINAL="138" NAME="??0NumberFormat@icu_44@@IAE@ABV01@@Z" PURGE="4" COMMENT="" />
    <EXPORT ORDINAL="139" NAME="??0NumberFormat@icu_44@@IAE@XZ" PURGE="0" COMMENT="" />
    <EXPORT ORDINAL="140" NAME="??0NumberFormatFactory@icu_44@@QAE@ABV01@@Z" PURGE="4" COMMENT="" />
    <EXPORT ORDINAL="141" NAME="??0NumberFormatFactory@icu_44@@QAE@XZ" PURGE="0" COMMENT="" />
    <EXPORT ORDINAL="142" NAME="??0NumberingSystem@icu_44@@QAE@ABV01@@Z" PURGE="4" COMMENT="" />
    <EXPORT ORDINAL="143" NAME="??0NumberingSystem@icu_44@@QAE@XZ" PURGE="0" COMMENT="" />
    <EXPORT ORDINAL="144" NAME="??0PluralFormat@icu_44@@QAE@AAW4UErrorCode@@@Z" PURGE="4" COMMENT="" />
    <EXPORT ORDINAL="145" NAME="??0PluralFormat@icu_44@@QAE@ABV01@@Z" PURGE="4" COMMENT="" />
    <EXPORT ORDINAL="146" NAME="??0PluralFormat@icu_44@@QAE@ABVLocale@1@AAW4UErrorCode@@@Z" PURGE="8" COMMENT="" />
    <EXPORT ORDINAL="147" NAME="??0PluralFormat@icu_44@@QAE@ABVLocale@1@ABVPluralRules@1@AAW4UErrorCode@@@Z" PURGE="12" COMMENT="" />
    <EXPORT ORDINAL="148" NAME="??0PluralFormat@icu_44@@QAE@ABVLocale@1@ABVPluralRules@1@ABVUnicodeString@1@AAW4UErrorCode@@@Z" PURGE="16" COMMENT="" />
    <EXPORT ORDINAL="149" NAME="??0PluralFormat@icu_44@@QAE@ABVLocale@1@ABVUnicodeString@1@AAW4UErrorCode@@@Z" PURGE="12" COMMENT="" />
    <EXPORT ORDINAL="150" NAME="??0PluralFormat@icu_44@@QAE@ABVPluralRules@1@AAW4UErrorCode@@@Z" PURGE="8" COMMENT="" />
    <EXPORT ORDINAL="151" NAME="??0PluralFormat@icu_44@@QAE@ABVPluralRules@1@ABVUnicodeString@1@AAW4UErrorCode@@@Z" PURGE="12" COMMENT="" />
    <EXPORT ORDINAL="152" NAME="??0PluralFormat@icu_44@@QAE@ABVUnicodeString@1@AAW4UErrorCode@@@Z" PURGE="8" COMMENT="" />
    <EXPORT ORDINAL="153" NAME="??0PluralRules@icu_44@@QAE@AAW4UErrorCode@@@Z" PURGE="4" COMMENT="" />
    <EXPORT ORDINAL="154" NAME="??0PluralRules@icu_44@@QAE@ABV01@@Z" PURGE="4" COMMENT="" />
    <EXPORT ORDINAL="155" NAME="??0RegexMatcher@icu_44@@AAE@PBVRegexPattern@1@@Z" PURGE="4" COMMENT="" />
    <EXPORT ORDINAL="156" NAME="??0RegexMatcher@icu_44@@QAE@ABVUnicodeString@1@0IAAW4UErrorCode@@@Z" PURGE="16" COMMENT="" />
    <EXPORT ORDINAL="157" NAME="??0RegexMatcher@icu_44@@QAE@ABVUnicodeString@1@IAAW4UErrorCode@@@Z" PURGE="12" COMMENT="" />
    <EXPORT ORDINAL="158" NAME="??0RegexMatcher@icu_44@@QAE@PAUUText@@0IAAW4UErrorCode@@@Z" PURGE="16" COMMENT="" />
    <EXPORT ORDINAL="159" NAME="??0RegexMatcher@icu_44@@QAE@PAUUText@@IAAW4UErrorCode@@@Z" PURGE="12" COMMENT="" />
    <EXPORT ORDINAL="160" NAME="??0RegexPattern@icu_44@@QAE@ABV01@@Z" PURGE="4" COMMENT="" />
    <EXPORT ORDINAL="161" NAME="??0RegexPattern@icu_44@@QAE@XZ" PURGE="0" COMMENT="" />
    <EXPORT ORDINAL="162" NAME="??0RuleBasedCollator@icu_44@@AAE@ABVLocale@1@AAW4UErrorCode@@@Z" PURGE="8" COMMENT="" />
    <EXPORT ORDINAL="163" NAME="??0RuleBasedCollator@icu_44@@AAE@XZ" PURGE="0" COMMENT="" />
    <EXPORT ORDINAL="164" NAME="??0RuleBasedCollator@icu_44@@QAE@ABV01@@Z" PURGE="4" COMMENT="" />
    <EXPORT ORDINAL="165" NAME="??0RuleBasedCollator@icu_44@@QAE@ABVUnicodeString@1@AAW4UErrorCode@@@Z" PURGE="8" COMMENT="" />
    <EXPORT ORDINAL="166" NAME="??0RuleBasedCollator@icu_44@@QAE@ABVUnicodeString@1@W4ECollationStrength@Collator@1@AAW4UErrorCode@@@Z" PURGE="12" COMMENT="" />
    <EXPORT ORDINAL="167" NAME="??0RuleBasedCollator@icu_44@@QAE@ABVUnicodeString@1@W4ECollationStrength@Collator@1@W4UColAttributeValue@@AAW4UErrorCode@@@Z" PURGE="16" COMMENT="" />
    <EXPORT ORDINAL="168" NAME="??0RuleBasedCollator@icu_44@@QAE@ABVUnicodeString@1@W4UColAttributeValue@@AAW4UErrorCode@@@Z" PURGE="12" COMMENT="" />
    <EXPORT ORDINAL="169" NAME="??0RuleBasedCollator@icu_44@@QAE@PBEHPBV01@AAW4UErrorCode@@@Z" PURGE="16" COMMENT="" />
    <EXPORT ORDINAL="170" NAME="??0RuleBasedNumberFormat@icu_44@@AAE@ABVUnicodeString@1@PAVLocalizationInfo@1@ABVLocale@1@AAUUParseError@@AAW4UErrorCode@@@Z" PURGE="20" COMMENT="" />
    <EXPORT ORDINAL="171" NAME="??0RuleBasedNumberFormat@icu_44@@QAE@ABV01@@Z" PURGE="4" COMMENT="" />
    <EXPORT ORDINAL="172" NAME="??0RuleBasedNumberFormat@icu_44@@QAE@ABVUnicodeString@1@0AAUUParseError@@AAW4UErrorCode@@@Z" PURGE="16" COMMENT="" />
    <EXPORT ORDINAL="173" NAME="??0RuleBasedNumberFormat@icu_44@@QAE@ABVUnicodeString@1@0ABVLocale@1@AAUUParseError@@AAW4UErrorCode@@@Z" PURGE="20" COMMENT="" />
    <EXPORT ORDINAL="174" NAME="??0RuleBasedNumberFormat@icu_44@@QAE@ABVUnicodeString@1@AAUUParseError@@AAW4UErrorCode@@@Z" PURGE="12" COMMENT="" />
    <EXPORT ORDINAL="175" NAME="??0RuleBasedNumberFormat@icu_44@@QAE@ABVUnicodeString@1@ABVLocale@1@AAUUParseError@@AAW4UErrorCode@@@Z" PURGE="16" COMMENT="" />
    <EXPORT ORDINAL="176" NAME="??0RuleBasedNumberFormat@icu_44@@QAE@W4URBNFRuleSetTag@1@ABVLocale@1@AAW4UErrorCode@@@Z" PURGE="12" COMMENT="" />
    <EXPORT ORDINAL="177" NAME="??0RuleBasedTimeZone@icu_44@@QAE@ABV01@@Z" PURGE="4" COMMENT="" />
    <EXPORT ORDINAL="178" NAME="??0RuleBasedTimeZone@icu_44@@QAE@ABVUnicodeString@1@PAVInitialTimeZoneRule@1@@Z" PURGE="8" COMMENT="" />
    <EXPORT ORDINAL="179" NAME="??0SearchIterator@icu_44@@IAE@AAVCharacterIterator@1@PAVBreakIterator@1@@Z" PURGE="8" COMMENT="" />
    <EXPORT ORDINAL="180" NAME="??0SearchIterator@icu_44@@IAE@ABVUnicodeString@1@PAVBreakIterator@1@@Z" PURGE="8" COMMENT="" />
    <EXPORT ORDINAL="181" NAME="??0SearchIterator@icu_44@@IAE@XZ" PURGE="0" COMMENT="" />
    <EXPORT ORDINAL="182" NAME="??0SearchIterator@icu_44@@QAE@ABV01@@Z" PURGE="4" COMMENT="" />
    <EXPORT ORDINAL="183" NAME="??0SelectFormat@icu_44@@QAE@ABV01@@Z" PURGE="4" COMMENT="" />
    <EXPORT ORDINAL="184" NAME="??0SelectFormat@icu_44@@QAE@ABVUnicodeString@1@AAW4UErrorCode@@@Z" PURGE="8" COMMENT="" />
    <EXPORT ORDINAL="185" NAME="??0SimpleDateFormat@icu_44@@AAE@ABVLocale@1@AAW4UErrorCode@@@Z" PURGE="8" COMMENT="" />
    <EXPORT ORDINAL="186" NAME="??0SimpleDateFormat@icu_44@@AAE@W4EStyle@DateFormat@1@0ABVLocale@1@AAW4UErrorCode@@@Z" PURGE="16" COMMENT="" />
    <EXPORT ORDINAL="187" NAME="??0SimpleDateFormat@icu_44@@QAE@AAW4UErrorCode@@@Z" PURGE="4" COMMENT="" />
    <EXPORT ORDINAL="188" NAME="??0SimpleDateFormat@icu_44@@QAE@ABV01@@Z" PURGE="4" COMMENT="" />
    <EXPORT ORDINAL="189" NAME="??0SimpleDateFormat@icu_44@@QAE@ABVUnicodeString@1@0AAW4UErrorCode@@@Z" PURGE="12" COMMENT="" />
    <EXPORT ORDINAL="190" NAME="??0SimpleDateFormat@icu_44@@QAE@ABVUnicodeString@1@0ABVLocale@1@AAW4UErrorCode@@@Z" PURGE="16" COMMENT="" />
    <EXPORT ORDINAL="191" NAME="??0SimpleDateFormat@icu_44@@QAE@ABVUnicodeString@1@AAW4UErrorCode@@@Z" PURGE="8" COMMENT="" />
    <EXPORT ORDINAL="192" NAME="??0SimpleDateFormat@icu_44@@QAE@ABVUnicodeString@1@ABVDateFormatSymbols@1@AAW4UErrorCode@@@Z" PURGE="12" COMMENT="" />
    <EXPORT ORDINAL="193" NAME="??0SimpleDateFormat@icu_44@@QAE@ABVUnicodeString@1@ABVLocale@1@AAW4UErrorCode@@@Z" PURGE="12" COMMENT="" />
    <EXPORT ORDINAL="194" NAME="??0SimpleDateFormat@icu_44@@QAE@ABVUnicodeString@1@PAVDateFormatSymbols@1@AAW4UErrorCode@@@Z" PURGE="12" COMMENT="" />
    <EXPORT ORDINAL="195" NAME="??0SimpleNumberFormatFactory@icu_44@@QAE@ABV01@@Z" PURGE="4" COMMENT="" />
    <EXPORT ORDINAL="196" NAME="??0SimpleNumberFormatFactory@icu_44@@QAE@ABVLocale@1@C@Z" PURGE="8" COMMENT="" />
    <EXPORT ORDINAL="197" NAME="??0SimpleTimeZone@icu_44@@QAE@ABV01@@Z" PURGE="4" COMMENT="" />
    <EXPORT ORDINAL="198" NAME="??0SimpleTimeZone@icu_44@@QAE@HABVUnicodeString@1@@Z" PURGE="8" COMMENT="" />
    <EXPORT ORDINAL="199" NAME="??0SimpleTimeZone@icu_44@@QAE@HABVUnicodeString@1@CCCHCCCHAAW4UErrorCode@@@Z" PURGE="44" COMMENT="" />
    <EXPORT ORDINAL="200" NAME="??0SimpleTimeZone@icu_44@@QAE@HABVUnicodeString@1@CCCHCCCHHAAW4UErrorCode@@@Z" PURGE="48" COMMENT="" />
    <EXPORT ORDINAL="201" NAME="??0SimpleTimeZone@icu_44@@QAE@HABVUnicodeString@1@CCCHW4TimeMode@01@CCCH1HAAW4UErrorCode@@@Z" PURGE="56" COMMENT="" />
    <EXPORT ORDINAL="202" NAME="??0StringList@icu_44@@QAE@AAW4UErrorCode@@@Z" PURGE="4" COMMENT="" />
    <EXPORT ORDINAL="203" NAME="??0StringList@icu_44@@QAE@ABV01@@Z" PURGE="4" COMMENT="" />
    <EXPORT ORDINAL="204" NAME="??0StringSearch@icu_44@@QAE@ABV01@@Z" PURGE="4" COMMENT="" />
    <EXPORT ORDINAL="205" NAME="??0StringSearch@icu_44@@QAE@ABVUnicodeString@1@0ABVLocale@1@PAVBreakIterator@1@AAW4UErrorCode@@@Z" PURGE="20" COMMENT="" />
    <EXPORT ORDINAL="206" NAME="??0StringSearch@icu_44@@QAE@ABVUnicodeString@1@0PAVRuleBasedCollator@1@PAVBreakIterator@1@AAW4UErrorCode@@@Z" PURGE="20" COMMENT="" />
    <EXPORT ORDINAL="207" NAME="??0StringSearch@icu_44@@QAE@ABVUnicodeString@1@AAVCharacterIterator@1@ABVLocale@1@PAVBreakIterator@1@AAW4UErrorCode@@@Z" PURGE="20" COMMENT="" />
    <EXPORT ORDINAL="208" NAME="??0StringSearch@icu_44@@QAE@ABVUnicodeString@1@AAVCharacterIterator@1@PAVRuleBasedCollator@1@PAVBreakIterator@1@AAW4UErrorCode@@@Z" PURGE="20" COMMENT="" />
    <EXPORT ORDINAL="209" NAME="??0TimeArrayTimeZoneRule@icu_44@@QAE@ABV01@@Z" PURGE="4" COMMENT="" />
    <EXPORT ORDINAL="210" NAME="??0TimeArrayTimeZoneRule@icu_44@@QAE@ABVUnicodeString@1@HHPBNHW4TimeRuleType@DateTimeRule@1@@Z" PURGE="24" COMMENT="" />
    <EXPORT ORDINAL="211" NAME="??0TimeUnit@icu_44@@AAE@W4UTimeUnitFields@01@@Z" PURGE="4" COMMENT="" />
    <EXPORT ORDINAL="212" NAME="??0TimeUnit@icu_44@@QAE@ABV01@@Z" PURGE="4" COMMENT="" />
    <EXPORT ORDINAL="213" NAME="??0TimeUnitAmount@icu_44@@QAE@ABV01@@Z" PURGE="4" COMMENT="" />
    <EXPORT ORDINAL="214" NAME="??0TimeUnitAmount@icu_44@@QAE@ABVFormattable@1@W4UTimeUnitFields@TimeUnit@1@AAW4UErrorCode@@@Z" PURGE="12" COMMENT="" />
    <EXPORT ORDINAL="215" NAME="??0TimeUnitAmount@icu_44@@QAE@NW4UTimeUnitFields@TimeUnit@1@AAW4UErrorCode@@@Z" PURGE="16" COMMENT="" />
    <EXPORT ORDINAL="216" NAME="??0TimeUnitFormat@icu_44@@QAE@AAW4UErrorCode@@@Z" PURGE="4" COMMENT="" />
    <EXPORT ORDINAL="217" NAME="??0TimeUnitFormat@icu_44@@QAE@ABV01@@Z" PURGE="4" COMMENT="" />
    <EXPORT ORDINAL="218" NAME="??0TimeUnitFormat@icu_44@@QAE@ABVLocale@1@AAW4UErrorCode@@@Z" PURGE="8" COMMENT="" />
    <EXPORT ORDINAL="219" NAME="??0TimeUnitFormat@icu_44@@QAE@ABVLocale@1@W4EStyle@01@AAW4UErrorCode@@@Z" PURGE="12" COMMENT="" />
    <EXPORT ORDINAL="220" NAME="??0TimeZone@icu_44@@IAE@ABV01@@Z" PURGE="4" COMMENT="" />
    <EXPORT ORDINAL="221" NAME="??0TimeZone@icu_44@@IAE@ABVUnicodeString@1@@Z" PURGE="4" COMMENT="" />
    <EXPORT ORDINAL="222" NAME="??0TimeZone@icu_44@@IAE@XZ" PURGE="0" COMMENT="" />
    <EXPORT ORDINAL="223" NAME="??0TimeZoneRule@icu_44@@IAE@ABV01@@Z" PURGE="4" COMMENT="" />
    <EXPORT ORDINAL="224" NAME="??0TimeZoneRule@icu_44@@IAE@ABVUnicodeString@1@HH@Z" PURGE="12" COMMENT="" />
    <EXPORT ORDINAL="225" NAME="??0TimeZoneTransition@icu_44@@QAE@ABV01@@Z" PURGE="4" COMMENT="" />
    <EXPORT ORDINAL="226" NAME="??0TimeZoneTransition@icu_44@@QAE@NABVTimeZoneRule@1@0@Z" PURGE="16" COMMENT="" />
    <EXPORT ORDINAL="227" NAME="??0TimeZoneTransition@icu_44@@QAE@XZ" PURGE="0" COMMENT="" />
    <EXPORT ORDINAL="228" NAME="??0Transliterator@icu_44@@IAE@ABV01@@Z" PURGE="4" COMMENT="" />
    <EXPORT ORDINAL="229" NAME="??0Transliterator@icu_44@@IAE@ABVUnicodeString@1@PAVUnicodeFilter@1@@Z" PURGE="8" COMMENT="" />
    <EXPORT ORDINAL="230" NAME="??0UnicodeReplacer@icu_44@@QAE@ABV01@@Z" PURGE="4" COMMENT="" />
    <EXPORT ORDINAL="231" NAME="??0UnicodeReplacer@icu_44@@QAE@XZ" PURGE="0" COMMENT="" />
    <EXPORT ORDINAL="232" NAME="??0VTimeZone@icu_44@@AAE@XZ" PURGE="0" COMMENT="" />
    <EXPORT ORDINAL="233" NAME="??0VTimeZone@icu_44@@QAE@ABV01@@Z" PURGE="4" COMMENT="" />
    <EXPORT ORDINAL="234" NAME="??1?$MaybeStackArray@D$0DE@@icu_44@@QAE@XZ" PURGE="0" COMMENT="" />
    <EXPORT ORDINAL="235" NAME="??1AnnualTimeZoneRule@icu_44@@UAE@XZ" PURGE="0" COMMENT="" />
    <EXPORT ORDINAL="236" NAME="??1BasicTimeZone@icu_44@@UAE@XZ" PURGE="0" COMMENT="" />
    <EXPORT ORDINAL="237" NAME="??1BoyerMooreSearch@icu_44@@UAE@XZ" PURGE="0" COMMENT="" />
    <EXPORT ORDINAL="238" NAME="??1CECalendar@icu_44@@MAE@XZ" PURGE="0" COMMENT="" />
    <EXPORT ORDINAL="239" NAME="??1CEList@icu_44@@UAE@XZ" PURGE="0" COMMENT="" />
    <EXPORT ORDINAL="240" NAME="??1Calendar@icu_44@@UAE@XZ" PURGE="0" COMMENT="" />
    <EXPORT ORDINAL="241" NAME="??1CalendarAstronomer@icu_44@@QAE@XZ" PURGE="0" COMMENT="" />
    <EXPORT ORDINAL="242" NAME="??1ChoiceFormat@icu_44@@UAE@XZ" PURGE="0" COMMENT="" />
    <EXPORT ORDINAL="243" NAME="??1CollData@icu_44@@EAE@XZ" PURGE="0" COMMENT="" />
    <EXPORT ORDINAL="244" NAME="??1CollationElementIterator@icu_44@@UAE@XZ" PURGE="0" COMMENT="" />
    <EXPORT ORDINAL="245" NAME="??1CollationKey@icu_44@@UAE@XZ" PURGE="0" COMMENT="" />
    <EXPORT ORDINAL="246" NAME="??1Collator@icu_44@@UAE@XZ" PURGE="0" COMMENT="" />
    <EXPORT ORDINAL="247" NAME="??1CollatorFactory@icu_44@@UAE@XZ" PURGE="0" COMMENT="" />
    <EXPORT ORDINAL="248" NAME="??1CompoundTransliterator@icu_44@@UAE@XZ" PURGE="0" COMMENT="" />
    <EXPORT ORDINAL="249" NAME="??1CurrencyAmount@icu_44@@UAE@XZ" PURGE="0" COMMENT="" />
    <EXPORT ORDINAL="250" NAME="??1CurrencyPluralInfo@icu_44@@UAE@XZ" PURGE="0" COMMENT="" />
    <EXPORT ORDINAL="251" NAME="??1CurrencyUnit@icu_44@@UAE@XZ" PURGE="0" COMMENT="" />
    <EXPORT ORDINAL="252" NAME="??1DateFormat@icu_44@@UAE@XZ" PURGE="0" COMMENT="" />
    <EXPORT ORDINAL="253" NAME="??1DateFormatSymbols@icu_44@@UAE@XZ" PURGE="0" COMMENT="" />
    <EXPORT ORDINAL="254" NAME="??1DateIntervalFormat@icu_44@@UAE@XZ" PURGE="0" COMMENT="" />
    <EXPORT ORDINAL="255" NAME="??1DateIntervalInfo@icu_44@@UAE@XZ" PURGE="0" COMMENT="" />
    <EXPORT ORDINAL="256" NAME="??1DateTimePatternGenerator@icu_44@@UAE@XZ" PURGE="0" COMMENT="" />
    <EXPORT ORDINAL="257" NAME="??1DateTimeRule@icu_44@@UAE@XZ" PURGE="0" COMMENT="" />
    <EXPORT ORDINAL="258" NAME="??1DecimalFormat@icu_44@@UAE@XZ" PURGE="0" COMMENT="" />
    <EXPORT ORDINAL="259" NAME="??1DecimalFormatSymbols@icu_44@@UAE@XZ" PURGE="0" COMMENT="" />
    <EXPORT ORDINAL="260" NAME="??1DigitList@icu_44@@QAE@XZ" PURGE="0" COMMENT="" />
    <EXPORT ORDINAL="261" NAME="??1FieldPosition@icu_44@@UAE@XZ" PURGE="0" COMMENT="" />
    <EXPORT ORDINAL="262" NAME="??1FieldPositionIterator@icu_44@@UAE@XZ" PURGE="0" COMMENT="" />
    <EXPORT ORDINAL="263" NAME="??1Format@icu_44@@UAE@XZ" PURGE="0" COMMENT="" />
    <EXPORT ORDINAL="264" NAME="??1Formattable@icu_44@@UAE@XZ" PURGE="0" COMMENT="" />
    <EXPORT ORDINAL="265" NAME="??1GregorianCalendar@icu_44@@UAE@XZ" PURGE="0" COMMENT="" />
    <EXPORT ORDINAL="266" NAME="??1HebrewCalendar@icu_44@@UAE@XZ" PURGE="0" COMMENT="" />
    <EXPORT ORDINAL="267" NAME="??1InitialTimeZoneRule@icu_44@@UAE@XZ" PURGE="0" COMMENT="" />
    <EXPORT ORDINAL="268" NAME="??1LocaleDisplayNames@icu_44@@UAE@XZ" PURGE="0" COMMENT="" />
    <EXPORT ORDINAL="269" NAME="??1Measure@icu_44@@UAE@XZ" PURGE="0" COMMENT="" />
    <EXPORT ORDINAL="270" NAME="??1MeasureFormat@icu_44@@UAE@XZ" PURGE="0" COMMENT="" />
    <EXPORT ORDINAL="271" NAME="??1MeasureUnit@icu_44@@UAE@XZ" PURGE="0" COMMENT="" />
    <EXPORT ORDINAL="272" NAME="??1MessageFormat@icu_44@@UAE@XZ" PURGE="0" COMMENT="" />
    <EXPORT ORDINAL="273" NAME="??1NumberFormat@icu_44@@UAE@XZ" PURGE="0" COMMENT="" />
    <EXPORT ORDINAL="274" NAME="??1NumberFormatFactory@icu_44@@UAE@XZ" PURGE="0" COMMENT="" />
    <EXPORT ORDINAL="275" NAME="??1NumberingSystem@icu_44@@UAE@XZ" PURGE="0" COMMENT="" />
    <EXPORT ORDINAL="276" NAME="??1PluralFormat@icu_44@@UAE@XZ" PURGE="0" COMMENT="" />
    <EXPORT ORDINAL="277" NAME="??1PluralRules@icu_44@@UAE@XZ" PURGE="0" COMMENT="" />
    <EXPORT ORDINAL="278" NAME="??1RegexMatcher@icu_44@@UAE@XZ" PURGE="0" COMMENT="" />
    <EXPORT ORDINAL="279" NAME="??1RegexPattern@icu_44@@UAE@XZ" PURGE="0" COMMENT="" />
    <EXPORT ORDINAL="280" NAME="??1RuleBasedCollator@icu_44@@UAE@XZ" PURGE="0" COMMENT="" />
    <EXPORT ORDINAL="281" NAME="??1RuleBasedNumberFormat@icu_44@@UAE@XZ" PURGE="0" COMMENT="" />
    <EXPORT ORDINAL="282" NAME="??1RuleBasedTimeZone@icu_44@@UAE@XZ" PURGE="0" COMMENT="" />
    <EXPORT ORDINAL="283" NAME="??1SearchIterator@icu_44@@UAE@XZ" PURGE="0" COMMENT="" />
    <EXPORT ORDINAL="284" NAME="??1SelectFormat@icu_44@@UAE@XZ" PURGE="0" COMMENT="" />
    <EXPORT ORDINAL="285" NAME="??1SimpleDateFormat@icu_44@@UAE@XZ" PURGE="0" COMMENT="" />
    <EXPORT ORDINAL="286" NAME="??1SimpleNumberFormatFactory@icu_44@@UAE@XZ" PURGE="0" COMMENT="" />
    <EXPORT ORDINAL="287" NAME="??1SimpleTimeZone@icu_44@@UAE@XZ" PURGE="0" COMMENT="" />
    <EXPORT ORDINAL="288" NAME="??1StringList@icu_44@@UAE@XZ" PURGE="0" COMMENT="" />
    <EXPORT ORDINAL="289" NAME="??1StringSearch@icu_44@@UAE@XZ" PURGE="0" COMMENT="" />
    <EXPORT ORDINAL="290" NAME="??1TimeArrayTimeZoneRule@icu_44@@UAE@XZ" PURGE="0" COMMENT="" />
    <EXPORT ORDINAL="291" NAME="??1TimeUnit@icu_44@@UAE@XZ" PURGE="0" COMMENT="" />
    <EXPORT ORDINAL="292" NAME="??1TimeUnitAmount@icu_44@@UAE@XZ" PURGE="0" COMMENT="" />
    <EXPORT ORDINAL="293" NAME="??1TimeUnitFormat@icu_44@@UAE@XZ" PURGE="0" COMMENT="" />
    <EXPORT ORDINAL="294" NAME="??1TimeZone@icu_44@@UAE@XZ" PURGE="0" COMMENT="" />
    <EXPORT ORDINAL="295" NAME="??1TimeZoneRule@icu_44@@UAE@XZ" PURGE="0" COMMENT="" />
    <EXPORT ORDINAL="296" NAME="??1TimeZoneTransition@icu_44@@UAE@XZ" PURGE="0" COMMENT="" />
    <EXPORT ORDINAL="297" NAME="??1Transliterator@icu_44@@UAE@XZ" PURGE="0" COMMENT="" />
    <EXPORT ORDINAL="298" NAME="??1UnicodeReplacer@icu_44@@UAE@XZ" PURGE="0" COMMENT="" />
    <EXPORT ORDINAL="299" NAME="??1VTimeZone@icu_44@@UAE@XZ" PURGE="0" COMMENT="" />
    <EXPORT ORDINAL="300" NAME="??4?$MaybeStackArray@D$0DE@@icu_44@@AAEXABV01@@Z" PURGE="4" COMMENT="" />
    <EXPORT ORDINAL="301" NAME="??4AnnualTimeZoneRule@icu_44@@QAEAAV01@ABV01@@Z" PURGE="4" COMMENT="" />
    <EXPORT ORDINAL="302" NAME="??4BasicTimeZone@icu_44@@QAEAAV01@ABV01@@Z" PURGE="4" COMMENT="" />
    <EXPORT ORDINAL="303" NAME="??4BoyerMooreSearch@icu_44@@QAEAAV01@ABV01@@Z" PURGE="4" COMMENT="" />
    <EXPORT ORDINAL="304" NAME="??4CECalendar@icu_44@@IAEAAV01@ABV01@@Z" PURGE="4" COMMENT="" />
    <EXPORT ORDINAL="305" NAME="??4CEList@icu_44@@QAEAAV01@ABV01@@Z" PURGE="4" COMMENT="" />
    <EXPORT ORDINAL="306" NAME="??4Calendar@icu_44@@IAEAAV01@ABV01@@Z" PURGE="4" COMMENT="" />
    <EXPORT ORDINAL="307" NAME="??4CalendarAstronomer@icu_44@@QAEAAV01@ABV01@@Z" PURGE="4" COMMENT="" />
    <EXPORT ORDINAL="308" NAME="??4ChoiceFormat@icu_44@@QAEABV01@ABV01@@Z" PURGE="4" COMMENT="" />
    <EXPORT ORDINAL="309" NAME="??4CollData@icu_44@@QAEAAV01@ABV01@@Z" PURGE="4" COMMENT="" />
    <EXPORT ORDINAL="310" NAME="??4CollationElementIterator@icu_44@@IAEABV01@ABV01@@Z" PURGE="4" COMMENT="" />
    <EXPORT ORDINAL="311" NAME="??4CollationKey@icu_44@@QAEABV01@ABV01@@Z" PURGE="4" COMMENT="" />
    <EXPORT ORDINAL="312" NAME="??4CollatorFactory@icu_44@@QAEAAV01@ABV01@@Z" PURGE="4" COMMENT="" />
    <EXPORT ORDINAL="313" NAME="??4CompoundTransliterator@icu_44@@AAEAAV01@ABV01@@Z" PURGE="4" COMMENT="" />
    <EXPORT ORDINAL="314" NAME="??4CurrencyAmount@icu_44@@QAEAAV01@ABV01@@Z" PURGE="4" COMMENT="" />
    <EXPORT ORDINAL="315" NAME="??4CurrencyPluralInfo@icu_44@@QAEAAV01@ABV01@@Z" PURGE="4" COMMENT="" />
    <EXPORT ORDINAL="316" NAME="??4CurrencyUnit@icu_44@@QAEAAV01@ABV01@@Z" PURGE="4" COMMENT="" />
    <EXPORT ORDINAL="317" NAME="??4DateFormat@icu_44@@IAEAAV01@ABV01@@Z" PURGE="4" COMMENT="" />
    <EXPORT ORDINAL="318" NAME="??4DateFormatSymbols@icu_44@@QAEAAV01@ABV01@@Z" PURGE="4" COMMENT="" />
    <EXPORT ORDINAL="319" NAME="??4DateIntervalFormat@icu_44@@IAEAAV01@ABV01@@Z" PURGE="4" COMMENT="" />
    <EXPORT ORDINAL="320" NAME="??4DateIntervalInfo@icu_44@@QAEAAV01@ABV01@@Z" PURGE="4" COMMENT="" />
    <EXPORT ORDINAL="321" NAME="??4DateTimePatternGenerator@icu_44@@AAEAAV01@ABV01@@Z" PURGE="4" COMMENT="" />
    <EXPORT ORDINAL="322" NAME="??4DateTimeRule@icu_44@@QAEAAV01@ABV01@@Z" PURGE="4" COMMENT="" />
    <EXPORT ORDINAL="323" NAME="??4DecimalFormat@icu_44@@QAEAAV01@ABV01@@Z" PURGE="4" COMMENT="" />
    <EXPORT ORDINAL="324" NAME="??4DecimalFormatSymbols@icu_44@@QAEAAV01@ABV01@@Z" PURGE="4" COMMENT="" />
    <EXPORT ORDINAL="325" NAME="??4DigitList@icu_44@@QAEAAV01@ABV01@@Z" PURGE="4" COMMENT="" />
    <EXPORT ORDINAL="326" NAME="??4Ecliptic@CalendarAstronomer@icu_44@@QAEAAV012@ABV012@@Z" PURGE="4" COMMENT="" />
    <EXPORT ORDINAL="327" NAME="??4Equatorial@CalendarAstronomer@icu_44@@QAEAAV012@ABV012@@Z" PURGE="4" COMMENT="" />
    <EXPORT ORDINAL="328" NAME="??4FieldPosition@icu_44@@QAEAAV01@ABV01@@Z" PURGE="4" COMMENT="" />
    <EXPORT ORDINAL="329" NAME="??4FieldPositionIterator@icu_44@@QAEAAV01@ABV01@@Z" PURGE="4" COMMENT="" />
    <EXPORT ORDINAL="330" NAME="??4Format@icu_44@@IAEAAV01@ABV01@@Z" PURGE="4" COMMENT="" />
    <EXPORT ORDINAL="331" NAME="??4Formattable@icu_44@@QAEAAV01@ABV01@@Z" PURGE="4" COMMENT="" />
    <EXPORT ORDINAL="332" NAME="??4GregorianCalendar@icu_44@@QAEAAV01@ABV01@@Z" PURGE="4" COMMENT="" />
    <EXPORT ORDINAL="333" NAME="??4Horizon@CalendarAstronomer@icu_44@@QAEAAV012@ABV012@@Z" PURGE="4" COMMENT="" />
    <EXPORT ORDINAL="334" NAME="??4InitialTimeZoneRule@icu_44@@QAEAAV01@ABV01@@Z" PURGE="4" COMMENT="" />
    <EXPORT ORDINAL="335" NAME="??4LocaleDisplayNames@icu_44@@QAEAAV01@ABV01@@Z" PURGE="4" COMMENT="" />
    <EXPORT ORDINAL="336" NAME="??4Measure@icu_44@@QAEAAV01@ABV01@@Z" PURGE="4" COMMENT="" />
    <EXPORT ORDINAL="337" NAME="??4MeasureFormat@icu_44@@QAEAAV01@ABV01@@Z" PURGE="4" COMMENT="" />
    <EXPORT ORDINAL="338" NAME="??4MeasureUnit@icu_44@@QAEAAV01@ABV01@@Z" PURGE="4" COMMENT="" />
    <EXPORT ORDINAL="339" NAME="??4MessageFormat@icu_44@@QAEABV01@ABV01@@Z" PURGE="4" COMMENT="" />
    <EXPORT ORDINAL="340" NAME="??4MoonAge@CalendarAstronomer@icu_44@@QAEAAV012@ABV012@@Z" PURGE="4" COMMENT="" />
    <EXPORT ORDINAL="341" NAME="??4NumberFormat@icu_44@@IAEAAV01@ABV01@@Z" PURGE="4" COMMENT="" />
    <EXPORT ORDINAL="342" NAME="??4NumberFormatFactory@icu_44@@QAEAAV01@ABV01@@Z" PURGE="4" COMMENT="" />
    <EXPORT ORDINAL="343" NAME="??4NumberingSystem@icu_44@@QAEAAV01@ABV01@@Z" PURGE="4" COMMENT="" />
    <EXPORT ORDINAL="344" NAME="??4PluralFormat@icu_44@@QAEAAV01@ABV01@@Z" PURGE="4" COMMENT="" />
    <EXPORT ORDINAL="345" NAME="??4PluralRules@icu_44@@QAEAAV01@ABV01@@Z" PURGE="4" COMMENT="" />
    <EXPORT ORDINAL="346" NAME="??4RegexPattern@icu_44@@QAEAAV01@ABV01@@Z" PURGE="4" COMMENT="" />
    <EXPORT ORDINAL="347" NAME="??4RuleBasedCollator@icu_44@@QAEAAV01@ABV01@@Z" PURGE="4" COMMENT="" />
    <EXPORT ORDINAL="348" NAME="??4RuleBasedNumberFormat@icu_44@@QAEAAV01@ABV01@@Z" PURGE="4" COMMENT="" />
    <EXPORT ORDINAL="349" NAME="??4RuleBasedTimeZone@icu_44@@QAEAAV01@ABV01@@Z" PURGE="4" COMMENT="" />
    <EXPORT ORDINAL="350" NAME="??4SearchIterator@icu_44@@IAEAAV01@ABV01@@Z" PURGE="4" COMMENT="" />
    <EXPORT ORDINAL="351" NAME="??4SelectFormat@icu_44@@QAEAAV01@ABV01@@Z" PURGE="4" COMMENT="" />
    <EXPORT ORDINAL="352" NAME="??4SimpleDateFormat@icu_44@@QAEAAV01@ABV01@@Z" PURGE="4" COMMENT="" />
    <EXPORT ORDINAL="353" NAME="??4SimpleTimeZone@icu_44@@QAEAAV01@ABV01@@Z" PURGE="4" COMMENT="" />
    <EXPORT ORDINAL="354" NAME="??4StringList@icu_44@@QAEAAV01@ABV01@@Z" PURGE="4" COMMENT="" />
    <EXPORT ORDINAL="355" NAME="??4StringSearch@icu_44@@QAEAAV01@ABV01@@Z" PURGE="4" COMMENT="" />
    <EXPORT ORDINAL="356" NAME="??4TimeArrayTimeZoneRule@icu_44@@QAEAAV01@ABV01@@Z" PURGE="4" COMMENT="" />
    <EXPORT ORDINAL="357" NAME="??4TimeUnit@icu_44@@QAEAAV01@ABV01@@Z" PURGE="4" COMMENT="" />
    <EXPORT ORDINAL="358" NAME="??4TimeUnitAmount@icu_44@@QAEAAV01@ABV01@@Z" PURGE="4" COMMENT="" />
    <EXPORT ORDINAL="359" NAME="??4TimeUnitFormat@icu_44@@QAEAAV01@ABV01@@Z" PURGE="4" COMMENT="" />
    <EXPORT ORDINAL="360" NAME="??4TimeZone@icu_44@@IAEAAV01@ABV01@@Z" PURGE="4" COMMENT="" />
    <EXPORT ORDINAL="361" NAME="??4TimeZoneRule@icu_44@@IAEAAV01@ABV01@@Z" PURGE="4" COMMENT="" />
    <EXPORT ORDINAL="362" NAME="??4TimeZoneTransition@icu_44@@QAEAAV01@ABV01@@Z" PURGE="4" COMMENT="" />
    <EXPORT ORDINAL="363" NAME="??4Transliterator@icu_44@@IAEAAV01@ABV01@@Z" PURGE="4" COMMENT="" />
    <EXPORT ORDINAL="364" NAME="??4UnicodeReplacer@icu_44@@QAEAAV01@ABV01@@Z" PURGE="4" COMMENT="" />
    <EXPORT ORDINAL="365" NAME="??4VTimeZone@icu_44@@QAEAAV01@ABV01@@Z" PURGE="4" COMMENT="" />
    <EXPORT ORDINAL="366" NAME="??4ZoneMeta@icu_44@@QAEAAV01@ABV01@@Z" PURGE="4" COMMENT="" />
    <EXPORT ORDINAL="367" NAME="??8?$MaybeStackArray@D$0DE@@icu_44@@AAE_NABV01@@Z" PURGE="4" COMMENT="" />
    <EXPORT ORDINAL="368" NAME="??8AnnualTimeZoneRule@icu_44@@UBECABVTimeZoneRule@1@@Z" PURGE="4" COMMENT="" />
    <EXPORT ORDINAL="369" NAME="??8Calendar@icu_44@@UBECABV01@@Z" PURGE="4" COMMENT="" />
    <EXPORT ORDINAL="370" NAME="??8ChoiceFormat@icu_44@@UBECABVFormat@1@@Z" PURGE="4" COMMENT="" />
    <EXPORT ORDINAL="371" NAME="??8CollationElementIterator@icu_44@@QBECABV01@@Z" PURGE="4" COMMENT="" />
    <EXPORT ORDINAL="372" NAME="??8CollationKey@icu_44@@QBECABV01@@Z" PURGE="4" COMMENT="" />
    <EXPORT ORDINAL="373" NAME="??8Collator@icu_44@@UBECABV01@@Z" PURGE="4" COMMENT="" />
    <EXPORT ORDINAL="374" NAME="??8CurrencyPluralInfo@icu_44@@QBECABV01@@Z" PURGE="4" COMMENT="" />
    <EXPORT ORDINAL="375" NAME="??8CurrencyUnit@icu_44@@UBECABVUObject@1@@Z" PURGE="4" COMMENT="" />
    <EXPORT ORDINAL="376" NAME="??8DateFormat@icu_44@@UBECABVFormat@1@@Z" PURGE="4" COMMENT="" />
    <EXPORT ORDINAL="377" NAME="??8DateFormatSymbols@icu_44@@QBECABV01@@Z" PURGE="4" COMMENT="" />
    <EXPORT ORDINAL="378" NAME="??8DateIntervalFormat@icu_44@@UBECABVFormat@1@@Z" PURGE="4" COMMENT="" />
    <EXPORT ORDINAL="379" NAME="??8DateIntervalInfo@icu_44@@UBECABV01@@Z" PURGE="4" COMMENT="" />
    <EXPORT ORDINAL="380" NAME="??8DateTimePatternGenerator@icu_44@@QBECABV01@@Z" PURGE="4" COMMENT="" />
    <EXPORT ORDINAL="381" NAME="??8DateTimeRule@icu_44@@QBECABV01@@Z" PURGE="4" COMMENT="" />
    <EXPORT ORDINAL="382" NAME="??8DecimalFormat@icu_44@@UBECABVFormat@1@@Z" PURGE="4" COMMENT="" />
    <EXPORT ORDINAL="383" NAME="??8DecimalFormatSymbols@icu_44@@QBECABV01@@Z" PURGE="4" COMMENT="" />
    <EXPORT ORDINAL="384" NAME="??8DigitList@icu_44@@QBECABV01@@Z" PURGE="4" COMMENT="" />
    <EXPORT ORDINAL="385" NAME="??8FieldPosition@icu_44@@QBECABV01@@Z" PURGE="4" COMMENT="" />
    <EXPORT ORDINAL="386" NAME="??8FieldPositionIterator@icu_44@@QBECABV01@@Z" PURGE="4" COMMENT="" />
    <EXPORT ORDINAL="387" NAME="??8Format@icu_44@@UBECABV01@@Z" PURGE="4" COMMENT="" />
    <EXPORT ORDINAL="388" NAME="??8Formattable@icu_44@@QBECABV01@@Z" PURGE="4" COMMENT="" />
    <EXPORT ORDINAL="389" NAME="??8InitialTimeZoneRule@icu_44@@UBECABVTimeZoneRule@1@@Z" PURGE="4" COMMENT="" />
    <EXPORT ORDINAL="390" NAME="??8Measure@icu_44@@QBECABVUObject@1@@Z" PURGE="4" COMMENT="" />
    <EXPORT ORDINAL="391" NAME="??8MessageFormat@icu_44@@UBECABVFormat@1@@Z" PURGE="4" COMMENT="" />
    <EXPORT ORDINAL="392" NAME="??8NumberFormat@icu_44@@UBECABVFormat@1@@Z" PURGE="4" COMMENT="" />
    <EXPORT ORDINAL="393" NAME="??8PluralFormat@icu_44@@UBECABVFormat@1@@Z" PURGE="4" COMMENT="" />
    <EXPORT ORDINAL="394" NAME="??8PluralRules@icu_44@@UBECABV01@@Z" PURGE="4" COMMENT="" />
    <EXPORT ORDINAL="395" NAME="??8RegexPattern@icu_44@@QBECABV01@@Z" PURGE="4" COMMENT="" />
    <EXPORT ORDINAL="396" NAME="??8RuleBasedCollator@icu_44@@UBECABVCollator@1@@Z" PURGE="4" COMMENT="" />
    <EXPORT ORDINAL="397" NAME="??8RuleBasedNumberFormat@icu_44@@UBECABVFormat@1@@Z" PURGE="4" COMMENT="" />
    <EXPORT ORDINAL="398" NAME="??8RuleBasedTimeZone@icu_44@@UBECABVTimeZone@1@@Z" PURGE="4" COMMENT="" />
    <EXPORT ORDINAL="399" NAME="??8SearchIterator@icu_44@@UBECABV01@@Z" PURGE="4" COMMENT="" />
    <EXPORT ORDINAL="400" NAME="??8SelectFormat@icu_44@@UBECABVFormat@1@@Z" PURGE="4" COMMENT="" />
    <EXPORT ORDINAL="401" NAME="??8SimpleDateFormat@icu_44@@UBECABVFormat@1@@Z" PURGE="4" COMMENT="" />
    <EXPORT ORDINAL="402" NAME="??8SimpleTimeZone@icu_44@@UBECABVTimeZone@1@@Z" PURGE="4" COMMENT="" />
    <EXPORT ORDINAL="403" NAME="??8StringSearch@icu_44@@UBECABVSearchIterator@1@@Z" PURGE="4" COMMENT="" />
    <EXPORT ORDINAL="404" NAME="??8TimeArrayTimeZoneRule@icu_44@@UBECABVTimeZoneRule@1@@Z" PURGE="4" COMMENT="" />
    <EXPORT ORDINAL="405" NAME="??8TimeUnit@icu_44@@UBECABVUObject@1@@Z" PURGE="4" COMMENT="" />
    <EXPORT ORDINAL="406" NAME="??8TimeUnitAmount@icu_44@@UBECABVUObject@1@@Z" PURGE="4" COMMENT="" />
    <EXPORT ORDINAL="407" NAME="??8TimeUnitFormat@icu_44@@UBECABVFormat@1@@Z" PURGE="4" COMMENT="" />
    <EXPORT ORDINAL="408" NAME="??8TimeZone@icu_44@@UBECABV01@@Z" PURGE="4" COMMENT="" />
    <EXPORT ORDINAL="409" NAME="??8TimeZoneRule@icu_44@@UBECABV01@@Z" PURGE="4" COMMENT="" />
    <EXPORT ORDINAL="410" NAME="??8TimeZoneTransition@icu_44@@QBECABV01@@Z" PURGE="4" COMMENT="" />
    <EXPORT ORDINAL="411" NAME="??8VTimeZone@icu_44@@UBECABVTimeZone@1@@Z" PURGE="4" COMMENT="" />
    <EXPORT ORDINAL="412" NAME="??9?$MaybeStackArray@D$0DE@@icu_44@@AAE_NABV01@@Z" PURGE="4" COMMENT="" />
    <EXPORT ORDINAL="413" NAME="??9AnnualTimeZoneRule@icu_44@@UBECABVTimeZoneRule@1@@Z" PURGE="4" COMMENT="" />
    <EXPORT ORDINAL="414" NAME="??9Calendar@icu_44@@QBECABV01@@Z" PURGE="4" COMMENT="" />
    <EXPORT ORDINAL="415" NAME="??9CollationElementIterator@icu_44@@QBECABV01@@Z" PURGE="4" COMMENT="" />
    <EXPORT ORDINAL="416" NAME="??9CollationKey@icu_44@@QBECABV01@@Z" PURGE="4" COMMENT="" />
    <EXPORT ORDINAL="417" NAME="??9Collator@icu_44@@UBECABV01@@Z" PURGE="4" COMMENT="" />
    <EXPORT ORDINAL="418" NAME="??9CurrencyPluralInfo@icu_44@@QBECABV01@@Z" PURGE="4" COMMENT="" />
    <EXPORT ORDINAL="419" NAME="??9DateFormatSymbols@icu_44@@QBECABV01@@Z" PURGE="4" COMMENT="" />
    <EXPORT ORDINAL="420" NAME="??9DateIntervalFormat@icu_44@@QBECABVFormat@1@@Z" PURGE="4" COMMENT="" />
    <EXPORT ORDINAL="421" NAME="??9DateIntervalInfo@icu_44@@QBECABV01@@Z" PURGE="4" COMMENT="" />
    <EXPORT ORDINAL="422" NAME="??9DateTimePatternGenerator@icu_44@@QBECABV01@@Z" PURGE="4" COMMENT="" />
    <EXPORT ORDINAL="423" NAME="??9DateTimeRule@icu_44@@QBECABV01@@Z" PURGE="4" COMMENT="" />
    <EXPORT ORDINAL="424" NAME="??9DecimalFormatSymbols@icu_44@@QBECABV01@@Z" PURGE="4" COMMENT="" />
    <EXPORT ORDINAL="425" NAME="??9DigitList@icu_44@@QBECABV01@@Z" PURGE="4" COMMENT="" />
    <EXPORT ORDINAL="426" NAME="??9FieldPosition@icu_44@@QBECABV01@@Z" PURGE="4" COMMENT="" />
    <EXPORT ORDINAL="427" NAME="??9FieldPositionIterator@icu_44@@QBECABV01@@Z" PURGE="4" COMMENT="" />
    <EXPORT ORDINAL="428" NAME="??9Format@icu_44@@QBECABV01@@Z" PURGE="4" COMMENT="" />
    <EXPORT ORDINAL="429" NAME="??9Formattable@icu_44@@QBECABV01@@Z" PURGE="4" COMMENT="" />
    <EXPORT ORDINAL="430" NAME="??9InitialTimeZoneRule@icu_44@@UBECABVTimeZoneRule@1@@Z" PURGE="4" COMMENT="" />
    <EXPORT ORDINAL="431" NAME="??9PluralFormat@icu_44@@UBECABVFormat@1@@Z" PURGE="4" COMMENT="" />
    <EXPORT ORDINAL="432" NAME="??9PluralRules@icu_44@@QBECABV01@@Z" PURGE="4" COMMENT="" />
    <EXPORT ORDINAL="433" NAME="??9RegexPattern@icu_44@@QBECABV01@@Z" PURGE="4" COMMENT="" />
    <EXPORT ORDINAL="434" NAME="??9RuleBasedCollator@icu_44@@UBECABVCollator@1@@Z" PURGE="4" COMMENT="" />
    <EXPORT ORDINAL="435" NAME="??9RuleBasedTimeZone@icu_44@@UBECABVTimeZone@1@@Z" PURGE="4" COMMENT="" />
    <EXPORT ORDINAL="436" NAME="??9SearchIterator@icu_44@@QBECABV01@@Z" PURGE="4" COMMENT="" />
    <EXPORT ORDINAL="437" NAME="??9SelectFormat@icu_44@@UBECABVFormat@1@@Z" PURGE="4" COMMENT="" />
    <EXPORT ORDINAL="438" NAME="??9TimeArrayTimeZoneRule@icu_44@@UBECABVTimeZoneRule@1@@Z" PURGE="4" COMMENT="" />
    <EXPORT ORDINAL="439" NAME="??9TimeUnit@icu_44@@QBECABVUObject@1@@Z" PURGE="4" COMMENT="" />
    <EXPORT ORDINAL="440" NAME="??9TimeUnitAmount@icu_44@@QBECABVUObject@1@@Z" PURGE="4" COMMENT="" />
    <EXPORT ORDINAL="441" NAME="??9TimeUnitFormat@icu_44@@QBECABVFormat@1@@Z" PURGE="4" COMMENT="" />
    <EXPORT ORDINAL="442" NAME="??9TimeZone@icu_44@@QBECABV01@@Z" PURGE="4" COMMENT="" />
    <EXPORT ORDINAL="443" NAME="??9TimeZoneRule@icu_44@@UBECABV01@@Z" PURGE="4" COMMENT="" />
    <EXPORT ORDINAL="444" NAME="??9TimeZoneTransition@icu_44@@QBECABV01@@Z" PURGE="4" COMMENT="" />
    <EXPORT ORDINAL="445" NAME="??9VTimeZone@icu_44@@UBECABVTimeZone@1@@Z" PURGE="4" COMMENT="" />
    <EXPORT ORDINAL="446" NAME="??A?$MaybeStackArray@D$0DE@@icu_44@@QAEAADH@Z" PURGE="4" COMMENT="" />
    <EXPORT ORDINAL="447" NAME="??ACEList@icu_44@@QBEAAIH@Z" PURGE="4" COMMENT="" />
    <EXPORT ORDINAL="448" NAME="??AFormattable@icu_44@@QAEAAV01@H@Z" PURGE="4" COMMENT="" />
    <EXPORT ORDINAL="449" NAME="??B?$MaybeStackArray@D$0DE@@icu_44@@QBEPADXZ" PURGE="0" COMMENT="" />
    <EXPORT ORDINAL="450" NAME="??_7AnnualTimeZoneRule@icu_44@@6B@" PURGE="-1" COMMENT="" />
    <EXPORT ORDINAL="451" NAME="??_7BasicTimeZone@icu_44@@6B@" PURGE="-1" COMMENT="" />
    <EXPORT ORDINAL="452" NAME="??_7BoyerMooreSearch@icu_44@@6B@" PURGE="-1" COMMENT="" />
    <EXPORT ORDINAL="453" NAME="??_7CECalendar@icu_44@@6B@" PURGE="-1" COMMENT="" />
    <EXPORT ORDINAL="454" NAME="??_7CEList@icu_44@@6B@" PURGE="-1" COMMENT="" />
    <EXPORT ORDINAL="455" NAME="??_7Calendar@icu_44@@6B@" PURGE="-1" COMMENT="" />
    <EXPORT ORDINAL="456" NAME="??_7ChoiceFormat@icu_44@@6B@" PURGE="-1" COMMENT="" />
    <EXPORT ORDINAL="457" NAME="??_7CollData@icu_44@@6B@" PURGE="-1" COMMENT="" />
    <EXPORT ORDINAL="458" NAME="??_7CollationElementIterator@icu_44@@6B@" PURGE="-1" COMMENT="" />
    <EXPORT ORDINAL="459" NAME="??_7CollationKey@icu_44@@6B@" PURGE="-1" COMMENT="" />
    <EXPORT ORDINAL="460" NAME="??_7Collator@icu_44@@6B@" PURGE="-1" COMMENT="" />
    <EXPORT ORDINAL="461" NAME="??_7CollatorFactory@icu_44@@6B@" PURGE="-1" COMMENT="" />
    <EXPORT ORDINAL="462" NAME="??_7CompoundTransliterator@icu_44@@6B@" PURGE="-1" COMMENT="" />
    <EXPORT ORDINAL="463" NAME="??_7CurrencyAmount@icu_44@@6B@" PURGE="-1" COMMENT="" />
    <EXPORT ORDINAL="464" NAME="??_7CurrencyPluralInfo@icu_44@@6B@" PURGE="-1" COMMENT="" />
    <EXPORT ORDINAL="465" NAME="??_7CurrencyUnit@icu_44@@6B@" PURGE="-1" COMMENT="" />
    <EXPORT ORDINAL="466" NAME="??_7DateFormat@icu_44@@6B@" PURGE="-1" COMMENT="" />
    <EXPORT ORDINAL="467" NAME="??_7DateFormatSymbols@icu_44@@6B@" PURGE="-1" COMMENT="" />
    <EXPORT ORDINAL="468" NAME="??_7DateIntervalFormat@icu_44@@6B@" PURGE="-1" COMMENT="" />
    <EXPORT ORDINAL="469" NAME="??_7DateIntervalInfo@icu_44@@6B@" PURGE="-1" COMMENT="" />
    <EXPORT ORDINAL="470" NAME="??_7DateTimePatternGenerator@icu_44@@6B@" PURGE="-1" COMMENT="" />
    <EXPORT ORDINAL="471" NAME="??_7DateTimeRule@icu_44@@6B@" PURGE="-1" COMMENT="" />
    <EXPORT ORDINAL="472" NAME="??_7DecimalFormat@icu_44@@6B@" PURGE="-1" COMMENT="" />
    <EXPORT ORDINAL="473" NAME="??_7DecimalFormatSymbols@icu_44@@6B@" PURGE="-1" COMMENT="" />
    <EXPORT ORDINAL="474" NAME="??_7FieldPosition@icu_44@@6B@" PURGE="-1" COMMENT="" />
    <EXPORT ORDINAL="475" NAME="??_7FieldPositionIterator@icu_44@@6B@" PURGE="-1" COMMENT="" />
    <EXPORT ORDINAL="476" NAME="??_7Format@icu_44@@6B@" PURGE="-1" COMMENT="" />
    <EXPORT ORDINAL="477" NAME="??_7Formattable@icu_44@@6B@" PURGE="-1" COMMENT="" />
    <EXPORT ORDINAL="478" NAME="??_7GregorianCalendar@icu_44@@6B@" PURGE="-1" COMMENT="" />
    <EXPORT ORDINAL="479" NAME="??_7HebrewCalendar@icu_44@@6B@" PURGE="-1" COMMENT="" />
    <EXPORT ORDINAL="480" NAME="??_7InitialTimeZoneRule@icu_44@@6B@" PURGE="-1" COMMENT="" />
    <EXPORT ORDINAL="481" NAME="??_7LocaleDisplayNames@icu_44@@6B@" PURGE="-1" COMMENT="" />
    <EXPORT ORDINAL="482" NAME="??_7Measure@icu_44@@6B@" PURGE="-1" COMMENT="" />
    <EXPORT ORDINAL="483" NAME="??_7MeasureFormat@icu_44@@6B@" PURGE="-1" COMMENT="" />
    <EXPORT ORDINAL="484" NAME="??_7MeasureUnit@icu_44@@6B@" PURGE="-1" COMMENT="" />
    <EXPORT ORDINAL="485" NAME="??_7MessageFormat@icu_44@@6B@" PURGE="-1" COMMENT="" />
    <EXPORT ORDINAL="486" NAME="??_7NumberFormat@icu_44@@6B@" PURGE="-1" COMMENT="" />
    <EXPORT ORDINAL="487" NAME="??_7NumberFormatFactory@icu_44@@6B@" PURGE="-1" COMMENT="" />
    <EXPORT ORDINAL="488" NAME="??_7NumberingSystem@icu_44@@6B@" PURGE="-1" COMMENT="" />
    <EXPORT ORDINAL="489" NAME="??_7PluralFormat@icu_44@@6B@" PURGE="-1" COMMENT="" />
    <EXPORT ORDINAL="490" NAME="??_7PluralRules@icu_44@@6B@" PURGE="-1" COMMENT="" />
    <EXPORT ORDINAL="491" NAME="??_7RegexMatcher@icu_44@@6B@" PURGE="-1" COMMENT="" />
    <EXPORT ORDINAL="492" NAME="??_7RegexPattern@icu_44@@6B@" PURGE="-1" COMMENT="" />
    <EXPORT ORDINAL="493" NAME="??_7RuleBasedCollator@icu_44@@6B@" PURGE="-1" COMMENT="" />
    <EXPORT ORDINAL="494" NAME="??_7RuleBasedNumberFormat@icu_44@@6B@" PURGE="-1" COMMENT="" />
    <EXPORT ORDINAL="495" NAME="??_7RuleBasedTimeZone@icu_44@@6B@" PURGE="-1" COMMENT="" />
    <EXPORT ORDINAL="496" NAME="??_7SearchIterator@icu_44@@6B@" PURGE="-1" COMMENT="" />
    <EXPORT ORDINAL="497" NAME="??_7SelectFormat@icu_44@@6B@" PURGE="-1" COMMENT="" />
    <EXPORT ORDINAL="498" NAME="??_7SimpleDateFormat@icu_44@@6B@" PURGE="-1" COMMENT="" />
    <EXPORT ORDINAL="499" NAME="??_7SimpleNumberFormatFactory@icu_44@@6B@" PURGE="-1" COMMENT="" />
    <EXPORT ORDINAL="500" NAME="??_7SimpleTimeZone@icu_44@@6B@" PURGE="-1" COMMENT="" />
    <EXPORT ORDINAL="501" NAME="??_7StringList@icu_44@@6B@" PURGE="-1" COMMENT="" />
    <EXPORT ORDINAL="502" NAME="??_7StringSearch@icu_44@@6B@" PURGE="-1" COMMENT="" />
    <EXPORT ORDINAL="503" NAME="??_7TimeArrayTimeZoneRule@icu_44@@6B@" PURGE="-1" COMMENT="" />
    <EXPORT ORDINAL="504" NAME="??_7TimeUnit@icu_44@@6B@" PURGE="-1" COMMENT="" />
    <EXPORT ORDINAL="505" NAME="??_7TimeUnitAmount@icu_44@@6B@" PURGE="-1" COMMENT="" />
    <EXPORT ORDINAL="506" NAME="??_7TimeUnitFormat@icu_44@@6B@" PURGE="-1" COMMENT="" />
    <EXPORT ORDINAL="507" NAME="??_7TimeZone@icu_44@@6B@" PURGE="-1" COMMENT="" />
    <EXPORT ORDINAL="508" NAME="??_7TimeZoneRule@icu_44@@6B@" PURGE="-1" COMMENT="" />
    <EXPORT ORDINAL="509" NAME="??_7TimeZoneTransition@icu_44@@6B@" PURGE="-1" COMMENT="" />
    <EXPORT ORDINAL="510" NAME="??_7Transliterator@icu_44@@6B@" PURGE="-1" COMMENT="" />
    <EXPORT ORDINAL="511" NAME="??_7UnicodeReplacer@icu_44@@6B@" PURGE="-1" COMMENT="" />
    <EXPORT ORDINAL="512" NAME="??_7VTimeZone@icu_44@@6B@" PURGE="-1" COMMENT="" />
    <EXPORT ORDINAL="513" NAME="??_FEcliptic@CalendarAstronomer@icu_44@@QAEXXZ" PURGE="0" COMMENT="" />
    <EXPORT ORDINAL="514" NAME="??_FEquatorial@CalendarAstronomer@icu_44@@QAEXXZ" PURGE="0" COMMENT="" />
    <EXPORT ORDINAL="515" NAME="??_FHorizon@CalendarAstronomer@icu_44@@QAEXXZ" PURGE="0" COMMENT="" />
    <EXPORT ORDINAL="516" NAME="?FULL_MOON@CalendarAstronomer@icu_44@@SA?BVMoonAge@12@XZ" PURGE="0" COMMENT="" />
    <EXPORT ORDINAL="517" NAME="?IncrementTime@RegexMatcher@icu_44@@AAEXAAW4UErrorCode@@@Z" PURGE="4" COMMENT="" />
    <EXPORT ORDINAL="518" NAME="?MAX_YEAR@AnnualTimeZoneRule@icu_44@@2HB" PURGE="-1" COMMENT="" />
    <EXPORT ORDINAL="519" NAME="?MatchAt@RegexMatcher@icu_44@@AAEX_JCAAW4UErrorCode@@@Z" PURGE="16" COMMENT="" />
    <EXPORT ORDINAL="520" NAME="?MatchChunkAt@RegexMatcher@icu_44@@AAEXHCAAW4UErrorCode@@@Z" PURGE="12" COMMENT="" />
    <EXPORT ORDINAL="521" NAME="?NEW_MOON@CalendarAstronomer@icu_44@@SA?BVMoonAge@12@XZ" PURGE="0" COMMENT="" />
    <EXPORT ORDINAL="522" NAME="?PASS_STRING@CompoundTransliterator@icu_44@@2QB_WB" PURGE="-1" COMMENT="" />
    <EXPORT ORDINAL="523" NAME="?PI@CalendarAstronomer@icu_44@@2NB" PURGE="-1" COMMENT="" />
    <EXPORT ORDINAL="524" NAME="?STATICMONTHLENGTH@SimpleTimeZone@icu_44@@0QBCB" PURGE="-1" COMMENT="" />
    <EXPORT ORDINAL="525" NAME="?SUMMER_SOLSTICE@CalendarAstronomer@icu_44@@SANXZ" PURGE="0" COMMENT="" />
    <EXPORT ORDINAL="526" NAME="?SYNODIC_MONTH@CalendarAstronomer@icu_44@@2NB" PURGE="-1" COMMENT="" />
    <EXPORT ORDINAL="527" NAME="?StateSave@RegexMatcher@icu_44@@AAEPAUREStackFrame@2@PAU32@_JAAW4UErrorCode@@@Z" PURGE="16" COMMENT="" />
    <EXPORT ORDINAL="528" NAME="?WINTER_SOLSTICE@CalendarAstronomer@icu_44@@SANXZ" PURGE="0" COMMENT="" />
    <EXPORT ORDINAL="529" NAME="?_countAvailableSources@Transliterator@icu_44@@KAHXZ" PURGE="0" COMMENT="" />
    <EXPORT ORDINAL="530" NAME="?_countAvailableTargets@Transliterator@icu_44@@KAHABVUnicodeString@2@@Z" PURGE="0" COMMENT="" />
    <EXPORT ORDINAL="531" NAME="?_countAvailableVariants@Transliterator@icu_44@@KAHABVUnicodeString@2@0@Z" PURGE="0" COMMENT="" />
    <EXPORT ORDINAL="532" NAME="?_format@DecimalFormat@icu_44@@ABEAAVUnicodeString@2@ABVDigitList@2@AAV32@AAVFieldPositionHandler@2@AAW4UErrorCode@@@Z" PURGE="16" COMMENT="" />
    <EXPORT ORDINAL="533" NAME="?_format@DecimalFormat@icu_44@@ABEAAVUnicodeString@2@NAAV32@AAVFieldPositionHandler@2@@Z" PURGE="16" COMMENT="" />
    <EXPORT ORDINAL="534" NAME="?_format@DecimalFormat@icu_44@@ABEAAVUnicodeString@2@_JAAV32@AAVFieldPositionHandler@2@@Z" PURGE="16" COMMENT="" />
    <EXPORT ORDINAL="535" NAME="?_format@SimpleDateFormat@icu_44@@ABEAAVUnicodeString@2@AAVCalendar@2@AAV32@AAVFieldPositionHandler@2@AAW4UErrorCode@@@Z" PURGE="16" COMMENT="" />
    <EXPORT ORDINAL="536" NAME="?_getAvailableSource@Transliterator@icu_44@@KAAAVUnicodeString@2@HAAV32@@Z" PURGE="0" COMMENT="" />
    <EXPORT ORDINAL="537" NAME="?_getAvailableTarget@Transliterator@icu_44@@KAAAVUnicodeString@2@HABV32@AAV32@@Z" PURGE="0" COMMENT="" />
    <EXPORT ORDINAL="538" NAME="?_getAvailableVariant@Transliterator@icu_44@@KAAAVUnicodeString@2@HABV32@0AAV32@@Z" PURGE="0" COMMENT="" />
    <EXPORT ORDINAL="539" NAME="?_registerAlias@Transliterator@icu_44@@KAXABVUnicodeString@2@0@Z" PURGE="0" COMMENT="" />
    <EXPORT ORDINAL="540" NAME="?_registerFactory@Transliterator@icu_44@@KAXABVUnicodeString@2@P6APAV12@0TToken@12@@Z1@Z" PURGE="0" COMMENT="" />
    <EXPORT ORDINAL="541" NAME="?_registerInstance@Transliterator@icu_44@@KAXPAV12@@Z" PURGE="0" COMMENT="" />
    <EXPORT ORDINAL="542" NAME="?_registerSpecialInverse@Transliterator@icu_44@@KAXABVUnicodeString@2@0C@Z" PURGE="0" COMMENT="" />
    <EXPORT ORDINAL="543" NAME="?_transliterate@Transliterator@icu_44@@ABEXAAVReplaceable@2@AAUUTransPosition@@PBVUnicodeString@2@AAW4UErrorCode@@@Z" PURGE="16" COMMENT="" />
    <EXPORT ORDINAL="544" NAME="?absoluteDayToDayOfWeek@HebrewCalendar@icu_44@@CAHH@Z" PURGE="0" COMMENT="" />
    <EXPORT ORDINAL="545" NAME="?add@CEList@icu_44@@AAEXIAAW4UErrorCode@@@Z" PURGE="8" COMMENT="" />
    <EXPORT ORDINAL="546" NAME="?add@Calendar@icu_44@@UAEXW4EDateFields@12@HAAW4UErrorCode@@@Z" PURGE="12" COMMENT="" />
    <EXPORT ORDINAL="547" NAME="?add@Calendar@icu_44@@UAEXW4UCalendarDateFields@@HAAW4UErrorCode@@@Z" PURGE="12" COMMENT="" />
    <EXPORT ORDINAL="548" NAME="?add@HebrewCalendar@icu_44@@UAEXW4EDateFields@Calendar@2@HAAW4UErrorCode@@@Z" PURGE="12" COMMENT="" />
    <EXPORT ORDINAL="549" NAME="?add@HebrewCalendar@icu_44@@UAEXW4UCalendarDateFields@@HAAW4UErrorCode@@@Z" PURGE="12" COMMENT="" />
    <EXPORT ORDINAL="550" NAME="?add@StringList@icu_44@@QAEXPBVUnicodeString@2@AAW4UErrorCode@@@Z" PURGE="8" COMMENT="" />
    <EXPORT ORDINAL="551" NAME="?add@StringList@icu_44@@QAEXPB_WHAAW4UErrorCode@@@Z" PURGE="12" COMMENT="" />
    <EXPORT ORDINAL="552" NAME="?addCLDRData@DateTimePatternGenerator@icu_44@@AAEXABVLocale@2@AAW4UErrorCode@@@Z" PURGE="8" COMMENT="" />
    <EXPORT ORDINAL="553" NAME="?addCanonicalItems@DateTimePatternGenerator@icu_44@@AAEXXZ" PURGE="0" COMMENT="" />
    <EXPORT ORDINAL="554" NAME="?addICUPatterns@DateTimePatternGenerator@icu_44@@AAEXABVLocale@2@AAW4UErrorCode@@@Z" PURGE="8" COMMENT="" />
    <EXPORT ORDINAL="555" NAME="?addPadding@DecimalFormat@icu_44@@ABEXAAVUnicodeString@2@AAVFieldPositionHandler@2@HH@Z" PURGE="16" COMMENT="" />
    <EXPORT ORDINAL="556" NAME="?addPattern@DateTimePatternGenerator@icu_44@@QAE?AW4UDateTimePatternConflict@@ABVUnicodeString@2@CAAV42@AAW4UErrorCode@@@Z" PURGE="16" COMMENT="" />
    <EXPORT ORDINAL="557" NAME="?addPatternWithSkeleton@DateTimePatternGenerator@icu_44@@AAE?AW4UDateTimePatternConflict@@ABVUnicodeString@2@PBV42@CAAV42@AAW4UErrorCode@@@Z" PURGE="20" COMMENT="" />
    <EXPORT ORDINAL="558" NAME="?addRules@PluralRules@icu_44@@AAEXAAVRuleChain@2@@Z" PURGE="4" COMMENT="" />
    <EXPORT ORDINAL="559" NAME="?addTransitionRule@RuleBasedTimeZone@icu_44@@QAEXPAVTimeZoneRule@2@AAW4UErrorCode@@@Z" PURGE="8" COMMENT="" />
    <EXPORT ORDINAL="560" NAME="?adjustFieldTypes@DateTimePatternGenerator@icu_44@@AAE?AVUnicodeString@2@ABV32@PBVPtnSkeleton@2@CW4UDateTimePatternMatchOptions@@@Z" PURGE="20" COMMENT="" />
    <EXPORT ORDINAL="561" NAME="?adjustFieldWidth@DateIntervalFormat@icu_44@@CAXABVUnicodeString@2@00CAAV32@@Z" PURGE="0" COMMENT="" />
    <EXPORT ORDINAL="562" NAME="?adopt@CollationKey@icu_44@@AAEXPAEH@Z" PURGE="8" COMMENT="" />
    <EXPORT ORDINAL="563" NAME="?adoptArray@Formattable@icu_44@@QAEXPAV12@H@Z" PURGE="8" COMMENT="" />
    <EXPORT ORDINAL="564" NAME="?adoptCalendar@DateFormat@icu_44@@UAEXPAVCalendar@2@@Z" PURGE="4" COMMENT="" />
    <EXPORT ORDINAL="565" NAME="?adoptCalendar@SimpleDateFormat@icu_44@@UAEXPAVCalendar@2@@Z" PURGE="4" COMMENT="" />
    <EXPORT ORDINAL="566" NAME="?adoptCurrencyPluralInfo@DecimalFormat@icu_44@@UAEXPAVCurrencyPluralInfo@2@@Z" PURGE="4" COMMENT="" />
    <EXPORT ORDINAL="567" NAME="?adoptDateFormatSymbols@SimpleDateFormat@icu_44@@UAEXPAVDateFormatSymbols@2@@Z" PURGE="4" COMMENT="" />
    <EXPORT ORDINAL="568" NAME="?adoptDecimalFormatSymbols@DecimalFormat@icu_44@@UAEXPAVDecimalFormatSymbols@2@@Z" PURGE="4" COMMENT="" />
    <EXPORT ORDINAL="569" NAME="?adoptDefault@TimeZone@icu_44@@SAXPAV12@@Z" PURGE="0" COMMENT="" />
    <EXPORT ORDINAL="570" NAME="?adoptDigitList@Formattable@icu_44@@QAEXPAVDigitList@2@@Z" PURGE="4" COMMENT="" />
    <EXPORT ORDINAL="571" NAME="?adoptFilter@Transliterator@icu_44@@QAEXPAVUnicodeFilter@2@@Z" PURGE="4" COMMENT="" />
    <EXPORT ORDINAL="572" NAME="?adoptFormat@MessageFormat@icu_44@@UAEXABVUnicodeString@2@PAVFormat@2@AAW4UErrorCode@@@Z" PURGE="12" COMMENT="" />
    <EXPORT ORDINAL="573" NAME="?adoptFormat@MessageFormat@icu_44@@UAEXHPAVFormat@2@@Z" PURGE="8" COMMENT="" />
    <EXPORT ORDINAL="574" NAME="?adoptFormats@MessageFormat@icu_44@@UAEXPAPAVFormat@2@H@Z" PURGE="8" COMMENT="" />
    <EXPORT ORDINAL="575" NAME="?adoptFrom@TimeZoneTransition@icu_44@@QAEXPAVTimeZoneRule@2@@Z" PURGE="4" COMMENT="" />
    <EXPORT ORDINAL="576" NAME="?adoptNumberFormat@DateFormat@icu_44@@UAEXPAVNumberFormat@2@@Z" PURGE="4" COMMENT="" />
    <EXPORT ORDINAL="577" NAME="?adoptObject@Formattable@icu_44@@QAEXPAVUObject@2@@Z" PURGE="4" COMMENT="" />
    <EXPORT ORDINAL="578" NAME="?adoptString@Formattable@icu_44@@QAEXPAVUnicodeString@2@@Z" PURGE="4" COMMENT="" />
    <EXPORT ORDINAL="579" NAME="?adoptTimeZone@Calendar@icu_44@@QAEXPAVTimeZone@2@@Z" PURGE="4" COMMENT="" />
    <EXPORT ORDINAL="580" NAME="?adoptTimeZone@DateFormat@icu_44@@UAEXPAVTimeZone@2@@Z" PURGE="4" COMMENT="" />
    <EXPORT ORDINAL="581" NAME="?adoptTo@TimeZoneTransition@icu_44@@QAEXPAVTimeZoneRule@2@@Z" PURGE="4" COMMENT="" />
    <EXPORT ORDINAL="582" NAME="?adoptTransliterators@CompoundTransliterator@icu_44@@QAEXQAPAVTransliterator@2@H@Z" PURGE="8" COMMENT="" />
    <EXPORT ORDINAL="583" NAME="?after@Calendar@icu_44@@QBECABV12@AAW4UErrorCode@@@Z" PURGE="8" COMMENT="" />
    <EXPORT ORDINAL="584" NAME="?aggregateStamp@GregorianCalendar@icu_44@@AAEHHH@Z" PURGE="8" COMMENT="" />
    <EXPORT ORDINAL="585" NAME="?aliasInstead@?$MaybeStackArray@D$0DE@@icu_44@@QAEXPADH@Z" PURGE="8" COMMENT="" />
    <EXPORT ORDINAL="586" NAME="?allocateArgTypes@MessageFormat@icu_44@@AAECH@Z" PURGE="4" COMMENT="" />
    <EXPORT ORDINAL="587" NAME="?allocateSubformats@MessageFormat@icu_44@@AAECH@Z" PURGE="4" COMMENT="" />
    <EXPORT ORDINAL="588" NAME="?append@DigitList@icu_44@@QAEXD@Z" PURGE="4" COMMENT="" />
    <EXPORT ORDINAL="589" NAME="?appendAffix@DecimalFormat@icu_44@@ABEHAAVUnicodeString@2@NAAVFieldPositionHandler@2@CC@Z" PURGE="24" COMMENT="" />
    <EXPORT ORDINAL="590" NAME="?appendAffixPattern@DecimalFormat@icu_44@@ABEXAAVUnicodeString@2@ABV32@C@Z" PURGE="12" COMMENT="" />
    <EXPORT ORDINAL="591" NAME="?appendAffixPattern@DecimalFormat@icu_44@@ABEXAAVUnicodeString@2@PBV32@ABV32@C@Z" PURGE="16" COMMENT="" />
    <EXPORT ORDINAL="592" NAME="?appendGMT@SimpleDateFormat@icu_44@@ABEXPAVNumberFormat@2@AAVUnicodeString@2@AAVCalendar@2@AAW4UErrorCode@@@Z" PURGE="16" COMMENT="" />
    <EXPORT ORDINAL="593" NAME="?appendGroup@RegexMatcher@icu_44@@ABE_JHPAUUText@@AAW4UErrorCode@@@Z" PURGE="12" COMMENT="" />
    <EXPORT ORDINAL="594" NAME="?appendReplacement@RegexMatcher@icu_44@@UAEAAV12@AAVUnicodeString@2@ABV32@AAW4UErrorCode@@@Z" PURGE="12" COMMENT="" />
    <EXPORT ORDINAL="595" NAME="?appendReplacement@RegexMatcher@icu_44@@UAEAAV12@PAUUText@@0AAW4UErrorCode@@@Z" PURGE="12" COMMENT="" />
    <EXPORT ORDINAL="596" NAME="?appendTail@RegexMatcher@icu_44@@UAEAAVUnicodeString@2@AAV32@@Z" PURGE="4" COMMENT="" />
    <EXPORT ORDINAL="597" NAME="?appendTail@RegexMatcher@icu_44@@UAEPAUUText@@PAU3@@Z" PURGE="4" COMMENT="" />
    <EXPORT ORDINAL="598" NAME="?appendUNTIL@VTimeZone@icu_44@@ABEXAAVVTZWriter@2@ABVUnicodeString@2@AAW4UErrorCode@@@Z" PURGE="12" COMMENT="" />
    <EXPORT ORDINAL="599" NAME="?applyLocalizedPattern@DecimalFormat@icu_44@@UAEXABVUnicodeString@2@AAUUParseError@@AAW4UErrorCode@@@Z" PURGE="12" COMMENT="" />
    <EXPORT ORDINAL="600" NAME="?applyLocalizedPattern@DecimalFormat@icu_44@@UAEXABVUnicodeString@2@AAW4UErrorCode@@@Z" PURGE="8" COMMENT="" />
    <EXPORT ORDINAL="601" NAME="?applyLocalizedPattern@SimpleDateFormat@icu_44@@UAEXABVUnicodeString@2@AAW4UErrorCode@@@Z" PURGE="8" COMMENT="" />
    <EXPORT ORDINAL="602" NAME="?applyPattern@ChoiceFormat@icu_44@@UAEXABVUnicodeString@2@AAUUParseError@@AAW4UErrorCode@@@Z" PURGE="12" COMMENT="" />
    <EXPORT ORDINAL="603" NAME="?applyPattern@ChoiceFormat@icu_44@@UAEXABVUnicodeString@2@AAW4UErrorCode@@@Z" PURGE="8" COMMENT="" />
    <EXPORT ORDINAL="604" NAME="?applyPattern@DecimalFormat@icu_44@@AAEXABVUnicodeString@2@CAAUUParseError@@AAW4UErrorCode@@@Z" PURGE="16" COMMENT="" />
    <EXPORT ORDINAL="605" NAME="?applyPattern@DecimalFormat@icu_44@@UAEXABVUnicodeString@2@AAUUParseError@@AAW4UErrorCode@@@Z" PURGE="12" COMMENT="" />
    <EXPORT ORDINAL="606" NAME="?applyPattern@DecimalFormat@icu_44@@UAEXABVUnicodeString@2@AAW4UErrorCode@@@Z" PURGE="8" COMMENT="" />
    <EXPORT ORDINAL="607" NAME="?applyPattern@MessageFormat@icu_44@@UAEXABVUnicodeString@2@AAUUParseError@@AAW4UErrorCode@@@Z" PURGE="12" COMMENT="" />
    <EXPORT ORDINAL="608" NAME="?applyPattern@MessageFormat@icu_44@@UAEXABVUnicodeString@2@AAW4UErrorCode@@@Z" PURGE="8" COMMENT="" />
    <EXPORT ORDINAL="609" NAME="?applyPattern@PluralFormat@icu_44@@QAEXABVUnicodeString@2@AAW4UErrorCode@@@Z" PURGE="8" COMMENT="" />
    <EXPORT ORDINAL="610" NAME="?applyPattern@SelectFormat@icu_44@@QAEXABVUnicodeString@2@AAW4UErrorCode@@@Z" PURGE="8" COMMENT="" />
    <EXPORT ORDINAL="611" NAME="?applyPattern@SimpleDateFormat@icu_44@@UAEXABVUnicodeString@2@@Z" PURGE="4" COMMENT="" />
    <EXPORT ORDINAL="612" NAME="?applyPatternInternally@DecimalFormat@icu_44@@AAEXABVUnicodeString@2@0CAAUUParseError@@AAW4UErrorCode@@@Z" PURGE="20" COMMENT="" />
    <EXPORT ORDINAL="613" NAME="?applyPatternWithoutExpandAffix@DecimalFormat@icu_44@@AAEXABVUnicodeString@2@CAAUUParseError@@AAW4UErrorCode@@@Z" PURGE="16" COMMENT="" />
    <EXPORT ORDINAL="614" NAME="?areSignificantDigitsUsed@DecimalFormat@icu_44@@QBECXZ" PURGE="0" COMMENT="" />
    <EXPORT ORDINAL="615" NAME="?arrayCompare@DateFormatSymbols@icu_44@@CACPBVUnicodeString@2@0H@Z" PURGE="0" COMMENT="" />
    <EXPORT ORDINAL="616" NAME="?assignArray@DateFormatSymbols@icu_44@@CAXAAPAVUnicodeString@2@AAHPBV32@H@Z" PURGE="0" COMMENT="" />
    <EXPORT ORDINAL="617" NAME="?autoQuoteApostrophe@MessageFormat@icu_44@@SA?AVUnicodeString@2@ABV32@AAW4UErrorCode@@@Z" PURGE="0" COMMENT="" />
    <EXPORT ORDINAL="618" NAME="?before@Calendar@icu_44@@QBECABV12@AAW4UErrorCode@@@Z" PURGE="8" COMMENT="" />
    <EXPORT ORDINAL="619" NAME="?beginRRULE@VTimeZone@icu_44@@ABEXAAVVTZWriter@2@HAAW4UErrorCode@@@Z" PURGE="12" COMMENT="" />
    <EXPORT ORDINAL="620" NAME="?beginZoneProps@VTimeZone@icu_44@@ABEXAAVVTZWriter@2@CABVUnicodeString@2@HHNAAW4UErrorCode@@@Z" PURGE="32" COMMENT="" />
    <EXPORT ORDINAL="621" NAME="?boundsCheck@GregorianCalendar@icu_44@@ABECHW4UCalendarDateFields@@@Z" PURGE="8" COMMENT="" />
    <EXPORT ORDINAL="622" NAME="?calendarFieldToIntervalIndex@DateIntervalInfo@icu_44@@CA?AW4IntervalPatternIndex@12@W4UCalendarDateFields@@AAW4UErrorCode@@@Z" PURGE="0" COMMENT="" />
    <EXPORT ORDINAL="623" NAME="?ceToJD@CECalendar@icu_44@@KAHHHHH@Z" PURGE="0" COMMENT="" />
    <EXPORT ORDINAL="624" NAME="?checkConsistency@TimeUnitFormat@icu_44@@AAEXW4EStyle@12@PBDAAW4UErrorCode@@@Z" PURGE="12" COMMENT="" />
    <EXPORT ORDINAL="625" NAME="?checkIntSuffix@SimpleDateFormat@icu_44@@ABEHABVUnicodeString@2@HHC@Z" PURGE="16" COMMENT="" />
    <EXPORT ORDINAL="626" NAME="?checkOwned@RuleBasedCollator@icu_44@@AAEXXZ" PURGE="0" COMMENT="" />
    <EXPORT ORDINAL="627" NAME="?checkSufficientDefinition@PluralFormat@icu_44@@AAECXZ" PURGE="0" COMMENT="" />
    <EXPORT ORDINAL="628" NAME="?checkSufficientDefinition@SelectFormat@icu_44@@AAECXZ" PURGE="0" COMMENT="" />
    <EXPORT ORDINAL="629" NAME="?checkValidKeyword@SelectFormat@icu_44@@ABECABVUnicodeString@2@@Z" PURGE="4" COMMENT="" />
    <EXPORT ORDINAL="630" NAME="?classifyCharacter@SelectFormat@icu_44@@ABE?AW4classesForSelectFormat@12@_W@Z" PURGE="4" COMMENT="" />
    <EXPORT ORDINAL="631" NAME="?clear@Calendar@icu_44@@QAEXW4UCalendarDateFields@@@Z" PURGE="4" COMMENT="" />
    <EXPORT ORDINAL="632" NAME="?clear@Calendar@icu_44@@QAEXXZ" PURGE="0" COMMENT="" />
    <EXPORT ORDINAL="633" NAME="?clear@DigitList@icu_44@@QAEXXZ" PURGE="0" COMMENT="" />
    <EXPORT ORDINAL="634" NAME="?clearCache@CalendarAstronomer@icu_44@@AAEXXZ" PURGE="0" COMMENT="" />
    <EXPORT ORDINAL="635" NAME="?clearTransitionRules@SimpleTimeZone@icu_44@@AAEXXZ" PURGE="0" COMMENT="" />
    <EXPORT ORDINAL="636" NAME="?clone@AnnualTimeZoneRule@icu_44@@UBEPAV12@XZ" PURGE="0" COMMENT="" />
    <EXPORT ORDINAL="637" NAME="?clone@ChoiceFormat@icu_44@@UBEPAVFormat@2@XZ" PURGE="0" COMMENT="" />
    <EXPORT ORDINAL="638" NAME="?clone@CompoundTransliterator@icu_44@@UBEPAVTransliterator@2@XZ" PURGE="0" COMMENT="" />
    <EXPORT ORDINAL="639" NAME="?clone@CurrencyAmount@icu_44@@UBEPAVUObject@2@XZ" PURGE="0" COMMENT="" />
    <EXPORT ORDINAL="640" NAME="?clone@CurrencyPluralInfo@icu_44@@QBEPAV12@XZ" PURGE="0" COMMENT="" />
    <EXPORT ORDINAL="641" NAME="?clone@CurrencyUnit@icu_44@@UBEPAVUObject@2@XZ" PURGE="0" COMMENT="" />
    <EXPORT ORDINAL="642" NAME="?clone@DateIntervalFormat@icu_44@@UBEPAVFormat@2@XZ" PURGE="0" COMMENT="" />
    <EXPORT ORDINAL="643" NAME="?clone@DateIntervalInfo@icu_44@@UBEPAV12@XZ" PURGE="0" COMMENT="" />
    <EXPORT ORDINAL="644" NAME="?clone@DateTimePatternGenerator@icu_44@@QBEPAV12@XZ" PURGE="0" COMMENT="" />
    <EXPORT ORDINAL="645" NAME="?clone@DateTimeRule@icu_44@@QBEPAV12@XZ" PURGE="0" COMMENT="" />
    <EXPORT ORDINAL="646" NAME="?clone@DecimalFormat@icu_44@@UBEPAVFormat@2@XZ" PURGE="0" COMMENT="" />
    <EXPORT ORDINAL="647" NAME="?clone@FieldPosition@icu_44@@QBEPAV12@XZ" PURGE="0" COMMENT="" />
    <EXPORT ORDINAL="648" NAME="?clone@Formattable@icu_44@@QBEPAV12@XZ" PURGE="0" COMMENT="" />
    <EXPORT ORDINAL="649" NAME="?clone@GregorianCalendar@icu_44@@UBEPAVCalendar@2@XZ" PURGE="0" COMMENT="" />
    <EXPORT ORDINAL="650" NAME="?clone@HebrewCalendar@icu_44@@UBEPAVCalendar@2@XZ" PURGE="0" COMMENT="" />
    <EXPORT ORDINAL="651" NAME="?clone@InitialTimeZoneRule@icu_44@@UBEPAV12@XZ" PURGE="0" COMMENT="" />
    <EXPORT ORDINAL="652" NAME="?clone@MessageFormat@icu_44@@UBEPAVFormat@2@XZ" PURGE="0" COMMENT="" />
    <EXPORT ORDINAL="653" NAME="?clone@PluralFormat@icu_44@@UBEPAVFormat@2@XZ" PURGE="0" COMMENT="" />
    <EXPORT ORDINAL="654" NAME="?clone@PluralRules@icu_44@@QBEPAV12@XZ" PURGE="0" COMMENT="" />
    <EXPORT ORDINAL="655" NAME="?clone@RegexPattern@icu_44@@UBEPAV12@XZ" PURGE="0" COMMENT="" />
    <EXPORT ORDINAL="656" NAME="?clone@RuleBasedCollator@icu_44@@UBEPAVCollator@2@XZ" PURGE="0" COMMENT="" />
    <EXPORT ORDINAL="657" NAME="?clone@RuleBasedNumberFormat@icu_44@@UBEPAVFormat@2@XZ" PURGE="0" COMMENT="" />
    <EXPORT ORDINAL="658" NAME="?clone@RuleBasedTimeZone@icu_44@@UBEPAVTimeZone@2@XZ" PURGE="0" COMMENT="" />
    <EXPORT ORDINAL="659" NAME="?clone@SelectFormat@icu_44@@UBEPAVFormat@2@XZ" PURGE="0" COMMENT="" />
    <EXPORT ORDINAL="660" NAME="?clone@SimpleDateFormat@icu_44@@UBEPAVFormat@2@XZ" PURGE="0" COMMENT="" />
    <EXPORT ORDINAL="661" NAME="?clone@SimpleTimeZone@icu_44@@UBEPAVTimeZone@2@XZ" PURGE="0" COMMENT="" />
    <EXPORT ORDINAL="662" NAME="?clone@StringSearch@icu_44@@QBEPAV12@XZ" PURGE="0" COMMENT="" />
    <EXPORT ORDINAL="663" NAME="?clone@TimeArrayTimeZoneRule@icu_44@@UBEPAV12@XZ" PURGE="0" COMMENT="" />
    <EXPORT ORDINAL="664" NAME="?clone@TimeUnit@icu_44@@UBEPAVUObject@2@XZ" PURGE="0" COMMENT="" />
    <EXPORT ORDINAL="665" NAME="?clone@TimeUnitAmount@icu_44@@UBEPAVUObject@2@XZ" PURGE="0" COMMENT="" />
    <EXPORT ORDINAL="666" NAME="?clone@TimeUnitFormat@icu_44@@UBEPAVFormat@2@XZ" PURGE="0" COMMENT="" />
    <EXPORT ORDINAL="667" NAME="?clone@TimeZoneTransition@icu_44@@QBEPAV12@XZ" PURGE="0" COMMENT="" />
    <EXPORT ORDINAL="668" NAME="?clone@Transliterator@icu_44@@UBEPAV12@XZ" PURGE="0" COMMENT="" />
    <EXPORT ORDINAL="669" NAME="?clone@VTimeZone@icu_44@@UBEPAVTimeZone@2@XZ" PURGE="0" COMMENT="" />
    <EXPORT ORDINAL="670" NAME="?cloneBinary@RuleBasedCollator@icu_44@@QAEHPAEHAAW4UErrorCode@@@Z" PURGE="12" COMMENT="" />
    <EXPORT ORDINAL="671" NAME="?cloneRuleData@RuleBasedCollator@icu_44@@QAEPAEAAHAAW4UErrorCode@@@Z" PURGE="8" COMMENT="" />
    <EXPORT ORDINAL="672" NAME="?close@CollData@icu_44@@SAXPAV12@@Z" PURGE="0" COMMENT="" />
    <EXPORT ORDINAL="673" NAME="?collDataCache@CollData@icu_44@@0PAVCollDataCache@2@A" PURGE="-1" COMMENT="" />
    <EXPORT ORDINAL="674" NAME="?compare@Collator@icu_44@@UBE?AW4EComparisonResult@12@ABVUnicodeString@2@0@Z" PURGE="8" COMMENT="" />
    <EXPORT ORDINAL="675" NAME="?compare@Collator@icu_44@@UBE?AW4EComparisonResult@12@ABVUnicodeString@2@0H@Z" PURGE="12" COMMENT="" />
    <EXPORT ORDINAL="676" NAME="?compare@Collator@icu_44@@UBE?AW4EComparisonResult@12@PB_WH0H@Z" PURGE="16" COMMENT="" />
    <EXPORT ORDINAL="677" NAME="?compare@Collator@icu_44@@UBE?AW4UCollationResult@@AAUUCharIterator@@0AAW4UErrorCode@@@Z" PURGE="12" COMMENT="" />
    <EXPORT ORDINAL="678" NAME="?compare@DigitList@icu_44@@QAEHABV12@@Z" PURGE="4" COMMENT="" />
    <EXPORT ORDINAL="679" NAME="?compare@RuleBasedCollator@icu_44@@UBE?AW4EComparisonResult@Collator@2@ABVUnicodeString@2@0@Z" PURGE="8" COMMENT="" />
    <EXPORT ORDINAL="680" NAME="?compare@RuleBasedCollator@icu_44@@UBE?AW4EComparisonResult@Collator@2@ABVUnicodeString@2@0H@Z" PURGE="12" COMMENT="" />
    <EXPORT ORDINAL="681" NAME="?compare@RuleBasedCollator@icu_44@@UBE?AW4EComparisonResult@Collator@2@PB_WH0H@Z" PURGE="16" COMMENT="" />
    <EXPORT ORDINAL="682" NAME="?compare@RuleBasedCollator@icu_44@@UBE?AW4UCollationResult@@AAUUCharIterator@@0AAW4UErrorCode@@@Z" PURGE="12" COMMENT="" />
    <EXPORT ORDINAL="683" NAME="?compare@RuleBasedCollator@icu_44@@UBE?AW4UCollationResult@@ABVUnicodeString@2@0AAW4UErrorCode@@@Z" PURGE="12" COMMENT="" />
    <EXPORT ORDINAL="684" NAME="?compare@RuleBasedCollator@icu_44@@UBE?AW4UCollationResult@@ABVUnicodeString@2@0HAAW4UErrorCode@@@Z" PURGE="16" COMMENT="" />
    <EXPORT ORDINAL="685" NAME="?compare@RuleBasedCollator@icu_44@@UBE?AW4UCollationResult@@PB_WH0HAAW4UErrorCode@@@Z" PURGE="20" COMMENT="" />
    <EXPORT ORDINAL="686" NAME="?compareAffix@DecimalFormat@icu_44@@ABEHABVUnicodeString@2@HCCPBV32@CCPA_W@Z" PURGE="32" COMMENT="" />
    <EXPORT ORDINAL="687" NAME="?compareComplexAffix@DecimalFormat@icu_44@@ABEHABVUnicodeString@2@0HCPA_W@Z" PURGE="20" COMMENT="" />
    <EXPORT ORDINAL="688" NAME="?compareSimpleAffix@DecimalFormat@icu_44@@CAHABVUnicodeString@2@0H@Z" PURGE="0" COMMENT="" />
    <EXPORT ORDINAL="689" NAME="?compareSimpleAffix@SimpleDateFormat@icu_44@@ABEHABVUnicodeString@2@0H@Z" PURGE="12" COMMENT="" />
    <EXPORT ORDINAL="690" NAME="?compareTo@CollationKey@icu_44@@QBE?AW4EComparisonResult@Collator@2@ABV12@@Z" PURGE="4" COMMENT="" />
    <EXPORT ORDINAL="691" NAME="?compareTo@CollationKey@icu_44@@QBE?AW4UCollationResult@@ABV12@AAW4UErrorCode@@@Z" PURGE="8" COMMENT="" />
    <EXPORT ORDINAL="692" NAME="?compareToRule@SimpleTimeZone@icu_44@@CAHCCCCCHHW4EMode@12@CCCH@Z" PURGE="0" COMMENT="" />
    <EXPORT ORDINAL="693" NAME="?compareUTF8@Collator@icu_44@@UBE?AW4UCollationResult@@ABVStringPiece@2@0AAW4UErrorCode@@@Z" PURGE="12" COMMENT="" />
    <EXPORT ORDINAL="694" NAME="?compile@RegexPattern@icu_44@@SAPAV12@ABVUnicodeString@2@AAUUParseError@@AAW4UErrorCode@@@Z" PURGE="0" COMMENT="" />
    <EXPORT ORDINAL="695" NAME="?compile@RegexPattern@icu_44@@SAPAV12@ABVUnicodeString@2@IAAUUParseError@@AAW4UErrorCode@@@Z" PURGE="0" COMMENT="" />
    <EXPORT ORDINAL="696" NAME="?compile@RegexPattern@icu_44@@SAPAV12@ABVUnicodeString@2@IAAW4UErrorCode@@@Z" PURGE="0" COMMENT="" />
    <EXPORT ORDINAL="697" NAME="?compile@RegexPattern@icu_44@@SAPAV12@PAUUText@@AAUUParseError@@AAW4UErrorCode@@@Z" PURGE="0" COMMENT="" />
    <EXPORT ORDINAL="698" NAME="?compile@RegexPattern@icu_44@@SAPAV12@PAUUText@@IAAUUParseError@@AAW4UErrorCode@@@Z" PURGE="0" COMMENT="" />
    <EXPORT ORDINAL="699" NAME="?compile@RegexPattern@icu_44@@SAPAV12@PAUUText@@IAAW4UErrorCode@@@Z" PURGE="0" COMMENT="" />
    <EXPORT ORDINAL="700" NAME="?complete@Calendar@icu_44@@IAEXAAW4UErrorCode@@@Z" PURGE="4" COMMENT="" />
    <EXPORT ORDINAL="701" NAME="?complete@RuleBasedTimeZone@icu_44@@QAEXAAW4UErrorCode@@@Z" PURGE="4" COMMENT="" />
    <EXPORT ORDINAL="702" NAME="?computeFields@Calendar@icu_44@@MAEXAAW4UErrorCode@@@Z" PURGE="4" COMMENT="" />
    <EXPORT ORDINAL="703" NAME="?computeGregorianAndDOWFields@Calendar@icu_44@@AAEXHAAW4UErrorCode@@@Z" PURGE="8" COMMENT="" />
    <EXPORT ORDINAL="704" NAME="?computeGregorianFields@Calendar@icu_44@@IAEXHAAW4UErrorCode@@@Z" PURGE="8" COMMENT="" />
    <EXPORT ORDINAL="705" NAME="?computeJulianDay@Calendar@icu_44@@IAEHXZ" PURGE="0" COMMENT="" />
    <EXPORT ORDINAL="706" NAME="?computeJulianDayOfYear@GregorianCalendar@icu_44@@CANCHAAC@Z" PURGE="0" COMMENT="" />
    <EXPORT ORDINAL="707" NAME="?computeMaximumContextLength@CompoundTransliterator@icu_44@@AAEXXZ" PURGE="0" COMMENT="" />
    <EXPORT ORDINAL="708" NAME="?computeMillisInDay@Calendar@icu_44@@IAEHXZ" PURGE="0" COMMENT="" />
    <EXPORT ORDINAL="709" NAME="?computeTime@Calendar@icu_44@@MAEXAAW4UErrorCode@@@Z" PURGE="4" COMMENT="" />
    <EXPORT ORDINAL="710" NAME="?computeWeekFields@Calendar@icu_44@@AAEXAAW4UErrorCode@@@Z" PURGE="4" COMMENT="" />
    <EXPORT ORDINAL="711" NAME="?computeZoneOffset@Calendar@icu_44@@IAEHNHAAW4UErrorCode@@@Z" PURGE="16" COMMENT="" />
    <EXPORT ORDINAL="712" NAME="?concatSingleDate2TimeInterval@DateIntervalFormat@icu_44@@AAEXPB_WHABVUnicodeString@2@W4UCalendarDateFields@@AAW4UErrorCode@@@Z" PURGE="20" COMMENT="" />
    <EXPORT ORDINAL="713" NAME="?construct@DecimalFormat@icu_44@@AAEXAAW4UErrorCode@@AAUUParseError@@PBVUnicodeString@2@PAVDecimalFormatSymbols@2@@Z" PURGE="16" COMMENT="" />
    <EXPORT ORDINAL="714" NAME="?construct@RuleBasedCollator@icu_44@@AAEXABVUnicodeString@2@W4UColAttributeValue@@1AAW4UErrorCode@@@Z" PURGE="16" COMMENT="" />
    <EXPORT ORDINAL="715" NAME="?construct@SimpleDateFormat@icu_44@@AAEXW4EStyle@DateFormat@2@0ABVLocale@2@AAW4UErrorCode@@@Z" PURGE="16" COMMENT="" />
    <EXPORT ORDINAL="716" NAME="?construct@SimpleTimeZone@icu_44@@AAEXHCCCHW4TimeMode@12@CCCH0HAAW4UErrorCode@@@Z" PURGE="52" COMMENT="" />
    <EXPORT ORDINAL="717" NAME="?copyAndFixQuotes@MessageFormat@icu_44@@CAXABVUnicodeString@2@HHAAV32@@Z" PURGE="0" COMMENT="" />
    <EXPORT ORDINAL="718" NAME="?copyData@DateFormatSymbols@icu_44@@AAEXABV12@@Z" PURGE="4" COMMENT="" />
    <EXPORT ORDINAL="719" NAME="?copyHash@CurrencyPluralInfo@icu_44@@AAEXPBVHashtable@2@PAV32@AAW4UErrorCode@@@Z" PURGE="12" COMMENT="" />
    <EXPORT ORDINAL="720" NAME="?copyHash@DateIntervalInfo@icu_44@@AAEXPBVHashtable@2@PAV32@AAW4UErrorCode@@@Z" PURGE="12" COMMENT="" />
    <EXPORT ORDINAL="721" NAME="?copyHash@TimeUnitFormat@icu_44@@AAEXPBVHashtable@2@PAV32@AAW4UErrorCode@@@Z" PURGE="12" COMMENT="" />
    <EXPORT ORDINAL="722" NAME="?copyHashForAffix@DecimalFormat@icu_44@@AAEXPBVHashtable@2@PAV32@AAW4UErrorCode@@@Z" PURGE="12" COMMENT="" />
    <EXPORT ORDINAL="723" NAME="?copyHashForAffixPattern@DecimalFormat@icu_44@@AAEXPBVHashtable@2@PAV32@AAW4UErrorCode@@@Z" PURGE="12" COMMENT="" />
    <EXPORT ORDINAL="724" NAME="?copyHashtable@DateTimePatternGenerator@icu_44@@AAEXPAVHashtable@2@AAW4UErrorCode@@@Z" PURGE="8" COMMENT="" />
    <EXPORT ORDINAL="725" NAME="?copyHashtable@PluralFormat@icu_44@@AAEXPAVHashtable@2@AAW4UErrorCode@@@Z" PURGE="8" COMMENT="" />
    <EXPORT ORDINAL="726" NAME="?copyHashtable@SelectFormat@icu_44@@AAEXPAVHashtable@2@AAW4UErrorCode@@@Z" PURGE="8" COMMENT="" />
    <EXPORT ORDINAL="727" NAME="?copyRules@RuleBasedTimeZone@icu_44@@AAEPAVUVector@2@PAV32@@Z" PURGE="4" COMMENT="" />
    <EXPORT ORDINAL="728" NAME="?countAvailableIDs@Transliterator@icu_44@@SAHXZ" PURGE="0" COMMENT="" />
    <EXPORT ORDINAL="729" NAME="?countAvailableSources@Transliterator@icu_44@@SAHXZ" PURGE="0" COMMENT="" />
    <EXPORT ORDINAL="730" NAME="?countAvailableTargets@Transliterator@icu_44@@SAHABVUnicodeString@2@@Z" PURGE="0" COMMENT="" />
    <EXPORT ORDINAL="731" NAME="?countAvailableVariants@Transliterator@icu_44@@SAHABVUnicodeString@2@0@Z" PURGE="0" COMMENT="" />
    <EXPORT ORDINAL="732" NAME="?countElements@Transliterator@icu_44@@QBEHXZ" PURGE="0" COMMENT="" />
    <EXPORT ORDINAL="733" NAME="?countEquivalentIDs@TimeZone@icu_44@@SAHABVUnicodeString@2@@Z" PURGE="0" COMMENT="" />
    <EXPORT ORDINAL="734" NAME="?countStartTimes@TimeArrayTimeZoneRule@icu_44@@QBEHXZ" PURGE="0" COMMENT="" />
    <EXPORT ORDINAL="735" NAME="?countTransitionRules@RuleBasedTimeZone@icu_44@@UAEHAAW4UErrorCode@@@Z" PURGE="4" COMMENT="" />
    <EXPORT ORDINAL="736" NAME="?countTransitionRules@SimpleTimeZone@icu_44@@UAEHAAW4UErrorCode@@@Z" PURGE="4" COMMENT="" />
    <EXPORT ORDINAL="737" NAME="?countTransitionRules@VTimeZone@icu_44@@UAEHAAW4UErrorCode@@@Z" PURGE="4" COMMENT="" />
    <EXPORT ORDINAL="738" NAME="?create@DateFormat@icu_44@@CAPAV12@W4EStyle@12@0ABVLocale@2@@Z" PURGE="0" COMMENT="" />
    <EXPORT ORDINAL="739" NAME="?create@DateIntervalFormat@icu_44@@CAPAV12@ABVLocale@2@PAVDateIntervalInfo@2@PBVUnicodeString@2@AAW4UErrorCode@@@Z" PURGE="0" COMMENT="" />
    <EXPORT ORDINAL="740" NAME="?create@TimeUnitFormat@icu_44@@AAEXABVLocale@2@W4EStyle@12@AAW4UErrorCode@@@Z" PURGE="12" COMMENT="" />
    <EXPORT ORDINAL="741" NAME="?createBasicInstance@Transliterator@icu_44@@KAPAV12@ABVUnicodeString@2@PBV32@@Z" PURGE="0" COMMENT="" />
    <EXPORT ORDINAL="742" NAME="?createCollationElementIterator@RuleBasedCollator@icu_44@@UBEPAVCollationElementIterator@2@ABVCharacterIterator@2@@Z" PURGE="4" COMMENT="" />
    <EXPORT ORDINAL="743" NAME="?createCollationElementIterator@RuleBasedCollator@icu_44@@UBEPAVCollationElementIterator@2@ABVUnicodeString@2@@Z" PURGE="4" COMMENT="" />
    <EXPORT ORDINAL="744" NAME="?createCurrencyFormat@MeasureFormat@icu_44@@SAPAV12@AAW4UErrorCode@@@Z" PURGE="0" COMMENT="" />
    <EXPORT ORDINAL="745" NAME="?createCurrencyFormat@MeasureFormat@icu_44@@SAPAV12@ABVLocale@2@AAW4UErrorCode@@@Z" PURGE="0" COMMENT="" />
    <EXPORT ORDINAL="746" NAME="?createCurrencyInstance@NumberFormat@icu_44@@SAPAV12@AAW4UErrorCode@@@Z" PURGE="0" COMMENT="" />
    <EXPORT ORDINAL="747" NAME="?createCurrencyInstance@NumberFormat@icu_44@@SAPAV12@ABVLocale@2@AAW4UErrorCode@@@Z" PURGE="0" COMMENT="" />
    <EXPORT ORDINAL="748" NAME="?createCustomTimeZone@TimeZone@icu_44@@CAPAV12@ABVUnicodeString@2@@Z" PURGE="0" COMMENT="" />
    <EXPORT ORDINAL="749" NAME="?createDateInstance@DateFormat@icu_44@@SAPAV12@W4EStyle@12@ABVLocale@2@@Z" PURGE="0" COMMENT="" />
    <EXPORT ORDINAL="750" NAME="?createDateTimeInstance@DateFormat@icu_44@@SAPAV12@W4EStyle@12@0ABVLocale@2@@Z" PURGE="0" COMMENT="" />
    <EXPORT ORDINAL="751" NAME="?createDefault@TimeZone@icu_44@@SAPAV12@XZ" PURGE="0" COMMENT="" />
    <EXPORT ORDINAL="752" NAME="?createDefaultRules@PluralRules@icu_44@@SAPAV12@AAW4UErrorCode@@@Z" PURGE="0" COMMENT="" />
    <EXPORT ORDINAL="753" NAME="?createEmptyInstance@DateTimePatternGenerator@icu_44@@SAPAV12@AAW4UErrorCode@@@Z" PURGE="0" COMMENT="" />
    <EXPORT ORDINAL="754" NAME="?createEnumeration@TimeZone@icu_44@@SAPAVStringEnumeration@2@H@Z" PURGE="0" COMMENT="" />
    <EXPORT ORDINAL="755" NAME="?createEnumeration@TimeZone@icu_44@@SAPAVStringEnumeration@2@PBD@Z" PURGE="0" COMMENT="" />
    <EXPORT ORDINAL="756" NAME="?createEnumeration@TimeZone@icu_44@@SAPAVStringEnumeration@2@XZ" PURGE="0" COMMENT="" />
    <EXPORT ORDINAL="757" NAME="?createFromRules@Transliterator@icu_44@@SAPAV12@ABVUnicodeString@2@0W4UTransDirection@@AAUUParseError@@AAW4UErrorCode@@@Z" PURGE="0" COMMENT="" />
    <EXPORT ORDINAL="758" NAME="?createInstance@Calendar@icu_44@@SAPAV12@AAW4UErrorCode@@@Z" PURGE="0" COMMENT="" />
    <EXPORT ORDINAL="759" NAME="?createInstance@Calendar@icu_44@@SAPAV12@ABVLocale@2@AAW4UErrorCode@@@Z" PURGE="0" COMMENT="" />
    <EXPORT ORDINAL="760" NAME="?createInstance@Calendar@icu_44@@SAPAV12@ABVTimeZone@2@AAW4UErrorCode@@@Z" PURGE="0" COMMENT="" />
    <EXPORT ORDINAL="761" NAME="?createInstance@Calendar@icu_44@@SAPAV12@ABVTimeZone@2@ABVLocale@2@AAW4UErrorCode@@@Z" PURGE="0" COMMENT="" />
    <EXPORT ORDINAL="762" NAME="?createInstance@Calendar@icu_44@@SAPAV12@PAVTimeZone@2@AAW4UErrorCode@@@Z" PURGE="0" COMMENT="" />
    <EXPORT ORDINAL="763" NAME="?createInstance@Calendar@icu_44@@SAPAV12@PAVTimeZone@2@ABVLocale@2@AAW4UErrorCode@@@Z" PURGE="0" COMMENT="" />
    <EXPORT ORDINAL="764" NAME="?createInstance@Collator@icu_44@@SAPAV12@AAW4UErrorCode@@@Z" PURGE="0" COMMENT="" />
    <EXPORT ORDINAL="765" NAME="?createInstance@Collator@icu_44@@SAPAV12@ABVLocale@2@AAW4UErrorCode@@@Z" PURGE="0" COMMENT="" />
    <EXPORT ORDINAL="766" NAME="?createInstance@DateFormat@icu_44@@SAPAV12@XZ" PURGE="0" COMMENT="" />
    <EXPORT ORDINAL="767" NAME="?createInstance@DateIntervalFormat@icu_44@@SAPAV12@ABVUnicodeString@2@AAW4UErrorCode@@@Z" PURGE="0" COMMENT="" />
    <EXPORT ORDINAL="768" NAME="?createInstance@DateIntervalFormat@icu_44@@SAPAV12@ABVUnicodeString@2@ABVDateIntervalInfo@2@AAW4UErrorCode@@@Z" PURGE="0" COMMENT="" />
    <EXPORT ORDINAL="769" NAME="?createInstance@DateIntervalFormat@icu_44@@SAPAV12@ABVUnicodeString@2@ABVLocale@2@AAW4UErrorCode@@@Z" PURGE="0" COMMENT="" />
    <EXPORT ORDINAL="770" NAME="?createInstance@DateIntervalFormat@icu_44@@SAPAV12@ABVUnicodeString@2@ABVLocale@2@ABVDateIntervalInfo@2@AAW4UErrorCode@@@Z" PURGE="0" COMMENT="" />
    <EXPORT ORDINAL="771" NAME="?createInstance@DateTimePatternGenerator@icu_44@@SAPAV12@AAW4UErrorCode@@@Z" PURGE="0" COMMENT="" />
    <EXPORT ORDINAL="772" NAME="?createInstance@DateTimePatternGenerator@icu_44@@SAPAV12@ABVLocale@2@AAW4UErrorCode@@@Z" PURGE="0" COMMENT="" />
    <EXPORT ORDINAL="773" NAME="?createInstance@LocaleDisplayNames@icu_44@@SAPAV12@ABVLocale@2@@Z" PURGE="0" COMMENT="" />
    <EXPORT ORDINAL="774" NAME="?createInstance@LocaleDisplayNames@icu_44@@SAPAV12@ABVLocale@2@W4UDialectHandling@@@Z" PURGE="0" COMMENT="" />
    <EXPORT ORDINAL="775" NAME="?createInstance@NumberFormat@icu_44@@SAPAV12@AAW4UErrorCode@@@Z" PURGE="0" COMMENT="" />
    <EXPORT ORDINAL="776" NAME="?createInstance@NumberFormat@icu_44@@SAPAV12@ABVLocale@2@AAW4UErrorCode@@@Z" PURGE="0" COMMENT="" />
    <EXPORT ORDINAL="777" NAME="?createInstance@NumberFormat@icu_44@@SAPAV12@ABVLocale@2@W4EStyles@12@AAW4UErrorCode@@@Z" PURGE="0" COMMENT="" />
    <EXPORT ORDINAL="778" NAME="?createInstance@NumberingSystem@icu_44@@SAPAV12@AAW4UErrorCode@@@Z" PURGE="0" COMMENT="" />
    <EXPORT ORDINAL="779" NAME="?createInstance@NumberingSystem@icu_44@@SAPAV12@ABVLocale@2@AAW4UErrorCode@@@Z" PURGE="0" COMMENT="" />
    <EXPORT ORDINAL="780" NAME="?createInstance@NumberingSystem@icu_44@@SAPAV12@HCABVUnicodeString@2@AAW4UErrorCode@@@Z" PURGE="0" COMMENT="" />
    <EXPORT ORDINAL="781" NAME="?createInstance@TimeUnit@icu_44@@SAPAV12@W4UTimeUnitFields@12@AAW4UErrorCode@@@Z" PURGE="0" COMMENT="" />
    <EXPORT ORDINAL="782" NAME="?createInstance@Transliterator@icu_44@@SAPAV12@ABVUnicodeString@2@W4UTransDirection@@AAUUParseError@@AAW4UErrorCode@@@Z" PURGE="0" COMMENT="" />
    <EXPORT ORDINAL="783" NAME="?createInstance@Transliterator@icu_44@@SAPAV12@ABVUnicodeString@2@W4UTransDirection@@AAW4UErrorCode@@@Z" PURGE="0" COMMENT="" />
    <EXPORT ORDINAL="784" NAME="?createInstanceByName@NumberingSystem@icu_44@@SAPAV12@PBDAAW4UErrorCode@@@Z" PURGE="0" COMMENT="" />
    <EXPORT ORDINAL="785" NAME="?createIntegerFormat@MessageFormat@icu_44@@ABEPAVNumberFormat@2@ABVLocale@2@AAW4UErrorCode@@@Z" PURGE="8" COMMENT="" />
    <EXPORT ORDINAL="786" NAME="?createInverse@Transliterator@icu_44@@QBEPAV12@AAW4UErrorCode@@@Z" PURGE="4" COMMENT="" />
    <EXPORT ORDINAL="787" NAME="?createMetazoneMappings@ZoneMeta@icu_44@@CAPAVUVector@2@ABVUnicodeString@2@@Z" PURGE="0" COMMENT="" />
    <EXPORT ORDINAL="788" NAME="?createPercentInstance@NumberFormat@icu_44@@SAPAV12@AAW4UErrorCode@@@Z" PURGE="0" COMMENT="" />
    <EXPORT ORDINAL="789" NAME="?createPercentInstance@NumberFormat@icu_44@@SAPAV12@ABVLocale@2@AAW4UErrorCode@@@Z" PURGE="0" COMMENT="" />
    <EXPORT ORDINAL="790" NAME="?createRules@PluralRules@icu_44@@SAPAV12@ABVUnicodeString@2@AAW4UErrorCode@@@Z" PURGE="0" COMMENT="" />
    <EXPORT ORDINAL="791" NAME="?createSDFPatternInstance@DateIntervalFormat@icu_44@@CAPAVSimpleDateFormat@2@ABVUnicodeString@2@ABVLocale@2@PAVDateTimePatternGenerator@2@AAW4UErrorCode@@@Z" PURGE="0" COMMENT="" />
    <EXPORT ORDINAL="792" NAME="?createScientificInstance@NumberFormat@icu_44@@SAPAV12@AAW4UErrorCode@@@Z" PURGE="0" COMMENT="" />
    <EXPORT ORDINAL="793" NAME="?createScientificInstance@NumberFormat@icu_44@@SAPAV12@ABVLocale@2@AAW4UErrorCode@@@Z" PURGE="0" COMMENT="" />
    <EXPORT ORDINAL="794" NAME="?createSystemTimeZone@TimeZone@icu_44@@CAPAV12@ABVUnicodeString@2@@Z" PURGE="0" COMMENT="" />
    <EXPORT ORDINAL="795" NAME="?createTimeInstance@DateFormat@icu_44@@SAPAV12@W4EStyle@12@ABVLocale@2@@Z" PURGE="0" COMMENT="" />
    <EXPORT ORDINAL="796" NAME="?createTimeZone@TimeZone@icu_44@@SAPAV12@ABVUnicodeString@2@@Z" PURGE="0" COMMENT="" />
    <EXPORT ORDINAL="797" NAME="?createUCollator@Collator@icu_44@@SAPAUUCollator@@PBDPAW4UErrorCode@@@Z" PURGE="0" COMMENT="" />
    <EXPORT ORDINAL="798" NAME="?createVTimeZone@VTimeZone@icu_44@@SAPAV12@ABVUnicodeString@2@AAW4UErrorCode@@@Z" PURGE="0" COMMENT="" />
    <EXPORT ORDINAL="799" NAME="?createVTimeZoneByID@VTimeZone@icu_44@@SAPAV12@ABVUnicodeString@2@@Z" PURGE="0" COMMENT="" />
    <EXPORT ORDINAL="800" NAME="?createZoneStrings@DateFormatSymbols@icu_44@@AAEXPBQBVUnicodeString@2@@Z" PURGE="4" COMMENT="" />
    <EXPORT ORDINAL="801" NAME="?decodeEndRule@SimpleTimeZone@icu_44@@AAEXAAW4UErrorCode@@@Z" PURGE="4" COMMENT="" />
    <EXPORT ORDINAL="802" NAME="?decodeRules@SimpleTimeZone@icu_44@@AAEXAAW4UErrorCode@@@Z" PURGE="4" COMMENT="" />
    <EXPORT ORDINAL="803" NAME="?decodeStartRule@SimpleTimeZone@icu_44@@AAEXAAW4UErrorCode@@@Z" PURGE="4" COMMENT="" />
    <EXPORT ORDINAL="804" NAME="?defaultCenturyStart@GregorianCalendar@icu_44@@UBENXZ" PURGE="0" COMMENT="" />
    <EXPORT ORDINAL="805" NAME="?defaultCenturyStart@HebrewCalendar@icu_44@@MBENXZ" PURGE="0" COMMENT="" />
    <EXPORT ORDINAL="806" NAME="?defaultCenturyStartYear@GregorianCalendar@icu_44@@UBEHXZ" PURGE="0" COMMENT="" />
    <EXPORT ORDINAL="807" NAME="?defaultCenturyStartYear@HebrewCalendar@icu_44@@MBEHXZ" PURGE="0" COMMENT="" />
    <EXPORT ORDINAL="808" NAME="?deleteHash@CurrencyPluralInfo@icu_44@@AAEXPAVHashtable@2@@Z" PURGE="4" COMMENT="" />
    <EXPORT ORDINAL="809" NAME="?deleteHash@DateIntervalInfo@icu_44@@AAEXPAVHashtable@2@@Z" PURGE="4" COMMENT="" />
    <EXPORT ORDINAL="810" NAME="?deleteHash@TimeUnitFormat@icu_44@@AAEXPAVHashtable@2@@Z" PURGE="4" COMMENT="" />
    <EXPORT ORDINAL="811" NAME="?deleteHashForAffix@DecimalFormat@icu_44@@AAEXAAPAVHashtable@2@@Z" PURGE="4" COMMENT="" />
    <EXPORT ORDINAL="812" NAME="?deleteHashForAffixPattern@DecimalFormat@icu_44@@AAEXXZ" PURGE="0" COMMENT="" />
    <EXPORT ORDINAL="813" NAME="?deleteRules@RuleBasedTimeZone@icu_44@@AAEXXZ" PURGE="0" COMMENT="" />
    <EXPORT ORDINAL="814" NAME="?deleteTransitionRules@SimpleTimeZone@icu_44@@AAEXXZ" PURGE="0" COMMENT="" />
    <EXPORT ORDINAL="815" NAME="?deleteTransitions@RuleBasedTimeZone@icu_44@@AAEXXZ" PURGE="0" COMMENT="" />
    <EXPORT ORDINAL="816" NAME="?dereferOlsonLink@TimeZone@icu_44@@CAPB_WABVUnicodeString@2@@Z" PURGE="0" COMMENT="" />
    <EXPORT ORDINAL="817" NAME="?digits@DigitList@icu_44@@QBEHXZ" PURGE="0" COMMENT="" />
    <EXPORT ORDINAL="818" NAME="?dispose@DateFormatSymbols@icu_44@@AAEXXZ" PURGE="0" COMMENT="" />
    <EXPORT ORDINAL="819" NAME="?dispose@Formattable@icu_44@@AAEXXZ" PURGE="0" COMMENT="" />
    <EXPORT ORDINAL="820" NAME="?dispose@RuleBasedNumberFormat@icu_44@@AAEXXZ" PURGE="0" COMMENT="" />
    <EXPORT ORDINAL="821" NAME="?disposeZoneStrings@DateFormatSymbols@icu_44@@AAEXXZ" PURGE="0" COMMENT="" />
    <EXPORT ORDINAL="822" NAME="?div@DigitList@icu_44@@QAEXABV12@AAW4UErrorCode@@@Z" PURGE="8" COMMENT="" />
    <EXPORT ORDINAL="823" NAME="?dtos@ChoiceFormat@icu_44@@CAAAVUnicodeString@2@NAAV32@@Z" PURGE="0" COMMENT="" />
    <EXPORT ORDINAL="824" NAME="?eclipticObliquity@CalendarAstronomer@icu_44@@AAENXZ" PURGE="0" COMMENT="" />
    <EXPORT ORDINAL="825" NAME="?eclipticToEquatorial@CalendarAstronomer@icu_44@@QAEAAVEquatorial@12@AAV312@ABVEcliptic@12@@Z" PURGE="8" COMMENT="" />
    <EXPORT ORDINAL="826" NAME="?eclipticToEquatorial@CalendarAstronomer@icu_44@@QAEAAVEquatorial@12@AAV312@N@Z" PURGE="12" COMMENT="" />
    <EXPORT ORDINAL="827" NAME="?eclipticToEquatorial@CalendarAstronomer@icu_44@@QAEAAVEquatorial@12@AAV312@NN@Z" PURGE="20" COMMENT="" />
    <EXPORT ORDINAL="828" NAME="?eclipticToHorizon@CalendarAstronomer@icu_44@@QAEAAVHorizon@12@AAV312@N@Z" PURGE="12" COMMENT="" />
    <EXPORT ORDINAL="829" NAME="?empty@BoyerMooreSearch@icu_44@@QAECXZ" PURGE="0" COMMENT="" />
    <EXPORT ORDINAL="830" NAME="?end@RegexMatcher@icu_44@@UBEHAAW4UErrorCode@@@Z" PURGE="4" COMMENT="" />
    <EXPORT ORDINAL="831" NAME="?end@RegexMatcher@icu_44@@UBEHHAAW4UErrorCode@@@Z" PURGE="8" COMMENT="" />
    <EXPORT ORDINAL="832" NAME="?endZoneProps@VTimeZone@icu_44@@ABEXAAVVTZWriter@2@CAAW4UErrorCode@@@Z" PURGE="12" COMMENT="" />
    <EXPORT ORDINAL="833" NAME="?ensureCapacity@CollationKey@icu_44@@AAEAAV12@H@Z" PURGE="4" COMMENT="" />
    <EXPORT ORDINAL="834" NAME="?ensureCapacity@DigitList@icu_44@@QAEXHAAW4UErrorCode@@@Z" PURGE="8" COMMENT="" />
    <EXPORT ORDINAL="835" NAME="?equals@Calendar@icu_44@@QBECABV12@AAW4UErrorCode@@@Z" PURGE="8" COMMENT="" />
    <EXPORT ORDINAL="836" NAME="?equals@Collator@icu_44@@QBECABVUnicodeString@2@0@Z" PURGE="8" COMMENT="" />
    <EXPORT ORDINAL="837" NAME="?expandAffix@DecimalFormat@icu_44@@ABEXABVUnicodeString@2@AAV32@NAAVFieldPositionHandler@2@CPBV32@@Z" PURGE="28" COMMENT="" />
    <EXPORT ORDINAL="838" NAME="?expandAffixAdjustWidth@DecimalFormat@icu_44@@AAEXPBVUnicodeString@2@@Z" PURGE="4" COMMENT="" />
    <EXPORT ORDINAL="839" NAME="?expandAffixes@DecimalFormat@icu_44@@AAEXPBVUnicodeString@2@@Z" PURGE="4" COMMENT="" />
    <EXPORT ORDINAL="840" NAME="?fallbackFormat@DateIntervalFormat@icu_44@@ABEAAVUnicodeString@2@AAVCalendar@2@0AAV32@AAVFieldPosition@2@AAW4UErrorCode@@@Z" PURGE="20" COMMENT="" />
    <EXPORT ORDINAL="841" NAME="?fgCalendarFieldToLevel@SimpleDateFormat@icu_44@@0QBHB" PURGE="-1" COMMENT="" />
    <EXPORT ORDINAL="842" NAME="?fgCalendarFieldToPatternLetter@DateIntervalFormat@icu_44@@0QB_WB" PURGE="-1" COMMENT="" />
    <EXPORT ORDINAL="843" NAME="?fgNumberPatterns@DecimalFormat@icu_44@@2QBDB" PURGE="-1" COMMENT="" />
    <EXPORT ORDINAL="844" NAME="?fgPatternCharToLevel@SimpleDateFormat@icu_44@@0QBHB" PURGE="-1" COMMENT="" />
    <EXPORT ORDINAL="845" NAME="?fgPatternIndexToCalendarField@SimpleDateFormat@icu_44@@0QBW4UCalendarDateFields@@B" PURGE="-1" COMMENT="" />
    <EXPORT ORDINAL="846" NAME="?fgPatternIndexToDateFormatField@SimpleDateFormat@icu_44@@0QBW4UDateFormatField@@B" PURGE="-1" COMMENT="" />
    <EXPORT ORDINAL="847" NAME="?fgSystemDefaultCentury@GregorianCalendar@icu_44@@0NB" PURGE="-1" COMMENT="" />
    <EXPORT ORDINAL="848" NAME="?fgSystemDefaultCentury@HebrewCalendar@icu_44@@0NB" PURGE="-1" COMMENT="" />
    <EXPORT ORDINAL="849" NAME="?fgSystemDefaultCenturyStart@GregorianCalendar@icu_44@@0NA" PURGE="-1" COMMENT="" />
    <EXPORT ORDINAL="850" NAME="?fgSystemDefaultCenturyStart@HebrewCalendar@icu_44@@0NA" PURGE="-1" COMMENT="" />
    <EXPORT ORDINAL="851" NAME="?fgSystemDefaultCenturyStartYear@GregorianCalendar@icu_44@@0HA" PURGE="-1" COMMENT="" />
    <EXPORT ORDINAL="852" NAME="?fgSystemDefaultCenturyStartYear@HebrewCalendar@icu_44@@0HA" PURGE="-1" COMMENT="" />
    <EXPORT ORDINAL="853" NAME="?fgSystemDefaultCenturyYear@GregorianCalendar@icu_44@@0HB" PURGE="-1" COMMENT="" />
    <EXPORT ORDINAL="854" NAME="?fgSystemDefaultCenturyYear@HebrewCalendar@icu_44@@0HB" PURGE="-1" COMMENT="" />
    <EXPORT ORDINAL="855" NAME="?fieldDifference@Calendar@icu_44@@UAEHNW4EDateFields@12@AAW4UErrorCode@@@Z" PURGE="16" COMMENT="" />
    <EXPORT ORDINAL="856" NAME="?fieldDifference@Calendar@icu_44@@UAEHNW4UCalendarDateFields@@AAW4UErrorCode@@@Z" PURGE="16" COMMENT="" />
    <EXPORT ORDINAL="857" NAME="?fieldExistsInSkeleton@DateIntervalFormat@icu_44@@CACW4UCalendarDateFields@@ABVUnicodeString@2@@Z" PURGE="0" COMMENT="" />
    <EXPORT ORDINAL="858" NAME="?filteredTransliterate@Transliterator@icu_44@@EBEXAAVReplaceable@2@AAUUTransPosition@@CC@Z" PURGE="16" COMMENT="" />
    <EXPORT ORDINAL="859" NAME="?filteredTransliterate@Transliterator@icu_44@@UBEXAAVReplaceable@2@AAUUTransPosition@@C@Z" PURGE="12" COMMENT="" />
    <EXPORT ORDINAL="860" NAME="?find@RegexMatcher@icu_44@@UAECHAAW4UErrorCode@@@Z" PURGE="8" COMMENT="" />
    <EXPORT ORDINAL="861" NAME="?find@RegexMatcher@icu_44@@UAECXZ" PURGE="0" COMMENT="" />
    <EXPORT ORDINAL="862" NAME="?findKeyword@MessageFormat@icu_44@@CAHABVUnicodeString@2@PBQB_W@Z" PURGE="0" COMMENT="" />
    <EXPORT ORDINAL="863" NAME="?findNext@RuleBasedTimeZone@icu_44@@ABECNCAANAAPAVTimeZoneRule@2@1@Z" PURGE="24" COMMENT="" />
    <EXPORT ORDINAL="864" NAME="?findPrev@RuleBasedTimeZone@icu_44@@ABECNCAANAAPAVTimeZoneRule@2@1@Z" PURGE="24" COMMENT="" />
    <EXPORT ORDINAL="865" NAME="?findRuleInFinal@RuleBasedTimeZone@icu_44@@ABEPAVTimeZoneRule@2@NCHH@Z" PURGE="20" COMMENT="" />
    <EXPORT ORDINAL="866" NAME="?findRuleSet@RuleBasedNumberFormat@icu_44@@ABEPAVNFRuleSet@2@ABVUnicodeString@2@AAW4UErrorCode@@@Z" PURGE="8" COMMENT="" />
    <EXPORT ORDINAL="867" NAME="?findUsingChunk@RegexMatcher@icu_44@@AAECXZ" PURGE="0" COMMENT="" />
    <EXPORT ORDINAL="868" NAME="?finishTransliteration@Transliterator@icu_44@@UBEXAAVReplaceable@2@AAUUTransPosition@@@Z" PURGE="8" COMMENT="" />
    <EXPORT ORDINAL="869" NAME="?first@SearchIterator@icu_44@@QAEHAAW4UErrorCode@@@Z" PURGE="4" COMMENT="" />
    <EXPORT ORDINAL="870" NAME="?fitsIntoInt64@DigitList@icu_44@@QAECC@Z" PURGE="4" COMMENT="" />
    <EXPORT ORDINAL="871" NAME="?fitsIntoLong@DigitList@icu_44@@QAECC@Z" PURGE="4" COMMENT="" />
    <EXPORT ORDINAL="872" NAME="?flags@RegexPattern@icu_44@@UBEIXZ" PURGE="0" COMMENT="" />
    <EXPORT ORDINAL="873" NAME="?flushCollDataCache@CollData@icu_44@@SAXXZ" PURGE="0" COMMENT="" />
    <EXPORT ORDINAL="874" NAME="?following@SearchIterator@icu_44@@QAEHHAAW4UErrorCode@@@Z" PURGE="8" COMMENT="" />
    <EXPORT ORDINAL="875" NAME="?forLocale@PluralRules@icu_44@@SAPAV12@ABVLocale@2@AAW4UErrorCode@@@Z" PURGE="0" COMMENT="" />
    <EXPORT ORDINAL="876" NAME="?format@ChoiceFormat@icu_44@@QBEAAVUnicodeString@2@ABVFormattable@2@AAV32@AAW4UErrorCode@@@Z" PURGE="12" COMMENT="" />
    <EXPORT ORDINAL="877" NAME="?format@ChoiceFormat@icu_44@@QBEAAVUnicodeString@2@HAAV32@@Z" PURGE="8" COMMENT="" />
    <EXPORT ORDINAL="878" NAME="?format@ChoiceFormat@icu_44@@QBEAAVUnicodeString@2@NAAV32@@Z" PURGE="12" COMMENT="" />
    <EXPORT ORDINAL="879" NAME="?format@ChoiceFormat@icu_44@@UBEAAVUnicodeString@2@ABVFormattable@2@AAV32@AAVFieldPosition@2@AAW4UErrorCode@@@Z" PURGE="16" COMMENT="" />
    <EXPORT ORDINAL="880" NAME="?format@ChoiceFormat@icu_44@@UBEAAVUnicodeString@2@HAAV32@AAVFieldPosition@2@@Z" PURGE="12" COMMENT="" />
    <EXPORT ORDINAL="881" NAME="?format@ChoiceFormat@icu_44@@UBEAAVUnicodeString@2@NAAV32@AAVFieldPosition@2@@Z" PURGE="16" COMMENT="" />
    <EXPORT ORDINAL="882" NAME="?format@ChoiceFormat@icu_44@@UBEAAVUnicodeString@2@PBVFormattable@2@HAAV32@AAVFieldPosition@2@AAW4UErrorCode@@@Z" PURGE="20" COMMENT="" />
    <EXPORT ORDINAL="883" NAME="?format@ChoiceFormat@icu_44@@UBEAAVUnicodeString@2@_JAAV32@AAVFieldPosition@2@@Z" PURGE="16" COMMENT="" />
    <EXPORT ORDINAL="884" NAME="?format@DateFormat@icu_44@@QBEAAVUnicodeString@2@ABVFormattable@2@AAV32@AAW4UErrorCode@@@Z" PURGE="12" COMMENT="" />
    <EXPORT ORDINAL="885" NAME="?format@DateFormat@icu_44@@QBEAAVUnicodeString@2@NAAV32@@Z" PURGE="12" COMMENT="" />
    <EXPORT ORDINAL="886" NAME="?format@DateFormat@icu_44@@QBEAAVUnicodeString@2@NAAV32@AAVFieldPosition@2@@Z" PURGE="16" COMMENT="" />
    <EXPORT ORDINAL="887" NAME="?format@DateFormat@icu_44@@QBEAAVUnicodeString@2@NAAV32@PAVFieldPositionIterator@2@AAW4UErrorCode@@@Z" PURGE="20" COMMENT="" />
    <EXPORT ORDINAL="888" NAME="?format@DateFormat@icu_44@@UBEAAVUnicodeString@2@AAVCalendar@2@AAV32@PAVFieldPositionIterator@2@AAW4UErrorCode@@@Z" PURGE="16" COMMENT="" />
    <EXPORT ORDINAL="889" NAME="?format@DateFormat@icu_44@@UBEAAVUnicodeString@2@ABVFormattable@2@AAV32@AAVFieldPosition@2@AAW4UErrorCode@@@Z" PURGE="16" COMMENT="" />
    <EXPORT ORDINAL="890" NAME="?format@DateFormat@icu_44@@UBEAAVUnicodeString@2@ABVFormattable@2@AAV32@PAVFieldPositionIterator@2@AAW4UErrorCode@@@Z" PURGE="16" COMMENT="" />
    <EXPORT ORDINAL="891" NAME="?format@DateIntervalFormat@icu_44@@QBEAAVUnicodeString@2@AAVCalendar@2@0AAV32@AAVFieldPosition@2@AAW4UErrorCode@@@Z" PURGE="20" COMMENT="" />
    <EXPORT ORDINAL="892" NAME="?format@DateIntervalFormat@icu_44@@QBEAAVUnicodeString@2@PBVDateInterval@2@AAV32@AAVFieldPosition@2@AAW4UErrorCode@@@Z" PURGE="16" COMMENT="" />
    <EXPORT ORDINAL="893" NAME="?format@DateIntervalFormat@icu_44@@UBEAAVUnicodeString@2@ABVFormattable@2@AAV32@AAVFieldPosition@2@AAW4UErrorCode@@@Z" PURGE="16" COMMENT="" />
    <EXPORT ORDINAL="894" NAME="?format@DecimalFormat@icu_44@@QBEAAVUnicodeString@2@ABVFormattable@2@AAV32@AAW4UErrorCode@@@Z" PURGE="12" COMMENT="" />
    <EXPORT ORDINAL="895" NAME="?format@DecimalFormat@icu_44@@QBEAAVUnicodeString@2@HAAV32@@Z" PURGE="8" COMMENT="" />
    <EXPORT ORDINAL="896" NAME="?format@DecimalFormat@icu_44@@QBEAAVUnicodeString@2@NAAV32@@Z" PURGE="12" COMMENT="" />
    <EXPORT ORDINAL="897" NAME="?format@DecimalFormat@icu_44@@UBEAAVUnicodeString@2@ABVDigitList@2@AAV32@AAVFieldPosition@2@AAW4UErrorCode@@@Z" PURGE="16" COMMENT="" />
    <EXPORT ORDINAL="898" NAME="?format@DecimalFormat@icu_44@@UBEAAVUnicodeString@2@ABVDigitList@2@AAV32@PAVFieldPositionIterator@2@AAW4UErrorCode@@@Z" PURGE="16" COMMENT="" />
    <EXPORT ORDINAL="899" NAME="?format@DecimalFormat@icu_44@@UBEAAVUnicodeString@2@ABVFormattable@2@AAV32@AAVFieldPosition@2@AAW4UErrorCode@@@Z" PURGE="16" COMMENT="" />
    <EXPORT ORDINAL="900" NAME="?format@DecimalFormat@icu_44@@UBEAAVUnicodeString@2@ABVStringPiece@2@AAV32@PAVFieldPositionIterator@2@AAW4UErrorCode@@@Z" PURGE="16" COMMENT="" />
    <EXPORT ORDINAL="901" NAME="?format@DecimalFormat@icu_44@@UBEAAVUnicodeString@2@HAAV32@AAVFieldPosition@2@@Z" PURGE="12" COMMENT="" />
    <EXPORT ORDINAL="902" NAME="?format@DecimalFormat@icu_44@@UBEAAVUnicodeString@2@HAAV32@PAVFieldPositionIterator@2@AAW4UErrorCode@@@Z" PURGE="16" COMMENT="" />
    <EXPORT ORDINAL="903" NAME="?format@DecimalFormat@icu_44@@UBEAAVUnicodeString@2@NAAV32@AAVFieldPosition@2@@Z" PURGE="16" COMMENT="" />
    <EXPORT ORDINAL="904" NAME="?format@DecimalFormat@icu_44@@UBEAAVUnicodeString@2@NAAV32@PAVFieldPositionIterator@2@AAW4UErrorCode@@@Z" PURGE="20" COMMENT="" />
    <EXPORT ORDINAL="905" NAME="?format@DecimalFormat@icu_44@@UBEAAVUnicodeString@2@_JAAV32@AAVFieldPosition@2@@Z" PURGE="16" COMMENT="" />
    <EXPORT ORDINAL="906" NAME="?format@DecimalFormat@icu_44@@UBEAAVUnicodeString@2@_JAAV32@PAVFieldPositionIterator@2@AAW4UErrorCode@@@Z" PURGE="20" COMMENT="" />
    <EXPORT ORDINAL="907" NAME="?format@Format@icu_44@@QBEAAVUnicodeString@2@ABVFormattable@2@AAV32@AAW4UErrorCode@@@Z" PURGE="12" COMMENT="" />
    <EXPORT ORDINAL="908" NAME="?format@Format@icu_44@@UBEAAVUnicodeString@2@ABVFormattable@2@AAV32@PAVFieldPositionIterator@2@AAW4UErrorCode@@@Z" PURGE="16" COMMENT="" />
    <EXPORT ORDINAL="909" NAME="?format@MessageFormat@icu_44@@ABEAAVUnicodeString@2@PBVFormattable@2@HAAV32@AAVFieldPosition@2@HAAW4UErrorCode@@@Z" PURGE="24" COMMENT="" />
    <EXPORT ORDINAL="910" NAME="?format@MessageFormat@icu_44@@ABEAAVUnicodeString@2@PBVFormattable@2@PBV32@HAAV32@AAVFieldPosition@2@HAAW4UErrorCode@@@Z" PURGE="28" COMMENT="" />
    <EXPORT ORDINAL="911" NAME="?format@MessageFormat@icu_44@@QBEAAVUnicodeString@2@ABVFormattable@2@AAV32@AAW4UErrorCode@@@Z" PURGE="12" COMMENT="" />
    <EXPORT ORDINAL="912" NAME="?format@MessageFormat@icu_44@@QBEAAVUnicodeString@2@PBV32@PBVFormattable@2@HAAV32@AAW4UErrorCode@@@Z" PURGE="20" COMMENT="" />
    <EXPORT ORDINAL="913" NAME="?format@MessageFormat@icu_44@@QBEAAVUnicodeString@2@PBVFormattable@2@HAAV32@AAVFieldPosition@2@AAW4UErrorCode@@@Z" PURGE="20" COMMENT="" />
    <EXPORT ORDINAL="914" NAME="?format@MessageFormat@icu_44@@SAAAVUnicodeString@2@ABV32@PBVFormattable@2@HAAV32@AAW4UErrorCode@@@Z" PURGE="0" COMMENT="" />
    <EXPORT ORDINAL="915" NAME="?format@MessageFormat@icu_44@@UBEAAVUnicodeString@2@ABVFormattable@2@AAV32@AAVFieldPosition@2@AAW4UErrorCode@@@Z" PURGE="16" COMMENT="" />
    <EXPORT ORDINAL="916" NAME="?format@NumberFormat@icu_44@@QBEAAVUnicodeString@2@ABVFormattable@2@AAV32@AAW4UErrorCode@@@Z" PURGE="12" COMMENT="" />
    <EXPORT ORDINAL="917" NAME="?format@NumberFormat@icu_44@@QBEAAVUnicodeString@2@HAAV32@@Z" PURGE="8" COMMENT="" />
    <EXPORT ORDINAL="918" NAME="?format@NumberFormat@icu_44@@QBEAAVUnicodeString@2@NAAV32@@Z" PURGE="12" COMMENT="" />
    <EXPORT ORDINAL="919" NAME="?format@NumberFormat@icu_44@@QBEAAVUnicodeString@2@_JAAV32@@Z" PURGE="12" COMMENT="" />
    <EXPORT ORDINAL="920" NAME="?format@NumberFormat@icu_44@@UBEAAVUnicodeString@2@ABVDigitList@2@AAV32@AAVFieldPosition@2@AAW4UErrorCode@@@Z" PURGE="16" COMMENT="" />
    <EXPORT ORDINAL="921" NAME="?format@NumberFormat@icu_44@@UBEAAVUnicodeString@2@ABVDigitList@2@AAV32@PAVFieldPositionIterator@2@AAW4UErrorCode@@@Z" PURGE="16" COMMENT="" />
    <EXPORT ORDINAL="922" NAME="?format@NumberFormat@icu_44@@UBEAAVUnicodeString@2@ABVFormattable@2@AAV32@AAVFieldPosition@2@AAW4UErrorCode@@@Z" PURGE="16" COMMENT="" />
    <EXPORT ORDINAL="923" NAME="?format@NumberFormat@icu_44@@UBEAAVUnicodeString@2@ABVFormattable@2@AAV32@PAVFieldPositionIterator@2@AAW4UErrorCode@@@Z" PURGE="16" COMMENT="" />
    <EXPORT ORDINAL="924" NAME="?format@NumberFormat@icu_44@@UBEAAVUnicodeString@2@ABVStringPiece@2@AAV32@PAVFieldPositionIterator@2@AAW4UErrorCode@@@Z" PURGE="16" COMMENT="" />
    <EXPORT ORDINAL="925" NAME="?format@NumberFormat@icu_44@@UBEAAVUnicodeString@2@HAAV32@PAVFieldPositionIterator@2@AAW4UErrorCode@@@Z" PURGE="16" COMMENT="" />
    <EXPORT ORDINAL="926" NAME="?format@NumberFormat@icu_44@@UBEAAVUnicodeString@2@NAAV32@PAVFieldPositionIterator@2@AAW4UErrorCode@@@Z" PURGE="20" COMMENT="" />
    <EXPORT ORDINAL="927" NAME="?format@NumberFormat@icu_44@@UBEAAVUnicodeString@2@_JAAV32@AAVFieldPosition@2@@Z" PURGE="16" COMMENT="" />
    <EXPORT ORDINAL="928" NAME="?format@NumberFormat@icu_44@@UBEAAVUnicodeString@2@_JAAV32@PAVFieldPositionIterator@2@AAW4UErrorCode@@@Z" PURGE="20" COMMENT="" />
    <EXPORT ORDINAL="929" NAME="?format@PluralFormat@icu_44@@QBE?AVUnicodeString@2@HAAW4UErrorCode@@@Z" PURGE="12" COMMENT="" />
    <EXPORT ORDINAL="930" NAME="?format@PluralFormat@icu_44@@QBE?AVUnicodeString@2@NAAW4UErrorCode@@@Z" PURGE="16" COMMENT="" />
    <EXPORT ORDINAL="931" NAME="?format@PluralFormat@icu_44@@QBEAAVUnicodeString@2@HAAV32@AAVFieldPosition@2@AAW4UErrorCode@@@Z" PURGE="16" COMMENT="" />
    <EXPORT ORDINAL="932" NAME="?format@PluralFormat@icu_44@@QBEAAVUnicodeString@2@NAAV32@AAVFieldPosition@2@AAW4UErrorCode@@@Z" PURGE="20" COMMENT="" />
    <EXPORT ORDINAL="933" NAME="?format@PluralFormat@icu_44@@UBEAAVUnicodeString@2@ABVFormattable@2@AAV32@AAVFieldPosition@2@AAW4UErrorCode@@@Z" PURGE="16" COMMENT="" />
    <EXPORT ORDINAL="934" NAME="?format@RuleBasedNumberFormat@icu_44@@QBEAAVUnicodeString@2@ABVFormattable@2@AAV32@AAW4UErrorCode@@@Z" PURGE="12" COMMENT="" />
    <EXPORT ORDINAL="935" NAME="?format@RuleBasedNumberFormat@icu_44@@QBEAAVUnicodeString@2@HAAV32@@Z" PURGE="8" COMMENT="" />
    <EXPORT ORDINAL="936" NAME="?format@RuleBasedNumberFormat@icu_44@@QBEAAVUnicodeString@2@NAAV32@@Z" PURGE="12" COMMENT="" />
    <EXPORT ORDINAL="937" NAME="?format@RuleBasedNumberFormat@icu_44@@UBEAAVUnicodeString@2@ABVFormattable@2@AAV32@AAVFieldPosition@2@AAW4UErrorCode@@@Z" PURGE="16" COMMENT="" />
    <EXPORT ORDINAL="938" NAME="?format@RuleBasedNumberFormat@icu_44@@UBEAAVUnicodeString@2@HAAV32@AAVFieldPosition@2@@Z" PURGE="12" COMMENT="" />
    <EXPORT ORDINAL="939" NAME="?format@RuleBasedNumberFormat@icu_44@@UBEAAVUnicodeString@2@HABV32@AAV32@AAVFieldPosition@2@AAW4UErrorCode@@@Z" PURGE="20" COMMENT="" />
    <EXPORT ORDINAL="940" NAME="?format@RuleBasedNumberFormat@icu_44@@UBEAAVUnicodeString@2@NAAV32@AAVFieldPosition@2@@Z" PURGE="16" COMMENT="" />
    <EXPORT ORDINAL="941" NAME="?format@RuleBasedNumberFormat@icu_44@@UBEAAVUnicodeString@2@NABV32@AAV32@AAVFieldPosition@2@AAW4UErrorCode@@@Z" PURGE="24" COMMENT="" />
    <EXPORT ORDINAL="942" NAME="?format@RuleBasedNumberFormat@icu_44@@UBEAAVUnicodeString@2@_JAAV32@AAVFieldPosition@2@@Z" PURGE="16" COMMENT="" />
    <EXPORT ORDINAL="943" NAME="?format@RuleBasedNumberFormat@icu_44@@UBEAAVUnicodeString@2@_JABV32@AAV32@AAVFieldPosition@2@AAW4UErrorCode@@@Z" PURGE="24" COMMENT="" />
    <EXPORT ORDINAL="944" NAME="?format@SelectFormat@icu_44@@QBEAAVUnicodeString@2@ABV32@AAV32@AAVFieldPosition@2@AAW4UErrorCode@@@Z" PURGE="16" COMMENT="" />
    <EXPORT ORDINAL="945" NAME="?format@SelectFormat@icu_44@@UBEAAVUnicodeString@2@ABVFormattable@2@AAV32@AAVFieldPosition@2@AAW4UErrorCode@@@Z" PURGE="16" COMMENT="" />
    <EXPORT ORDINAL="946" NAME="?format@SimpleDateFormat@icu_44@@QBEAAVUnicodeString@2@ABVFormattable@2@AAV32@AAW4UErrorCode@@@Z" PURGE="12" COMMENT="" />
    <EXPORT ORDINAL="947" NAME="?format@SimpleDateFormat@icu_44@@QBEAAVUnicodeString@2@NAAV32@@Z" PURGE="12" COMMENT="" />
    <EXPORT ORDINAL="948" NAME="?format@SimpleDateFormat@icu_44@@QBEAAVUnicodeString@2@NAAV32@AAVFieldPosition@2@@Z" PURGE="16" COMMENT="" />
    <EXPORT ORDINAL="949" NAME="?format@SimpleDateFormat@icu_44@@QBEAAVUnicodeString@2@NAAV32@PAVFieldPositionIterator@2@AAW4UErrorCode@@@Z" PURGE="20" COMMENT="" />
    <EXPORT ORDINAL="950" NAME="?format@SimpleDateFormat@icu_44@@UBEAAVUnicodeString@2@AAVCalendar@2@AAV32@AAVFieldPosition@2@@Z" PURGE="12" COMMENT="" />
    <EXPORT ORDINAL="951" NAME="?format@SimpleDateFormat@icu_44@@UBEAAVUnicodeString@2@AAVCalendar@2@AAV32@PAVFieldPositionIterator@2@AAW4UErrorCode@@@Z" PURGE="16" COMMENT="" />
    <EXPORT ORDINAL="952" NAME="?format@SimpleDateFormat@icu_44@@UBEAAVUnicodeString@2@ABVFormattable@2@AAV32@AAVFieldPosition@2@AAW4UErrorCode@@@Z" PURGE="16" COMMENT="" />
    <EXPORT ORDINAL="953" NAME="?format@SimpleDateFormat@icu_44@@UBEAAVUnicodeString@2@ABVFormattable@2@AAV32@PAVFieldPositionIterator@2@AAW4UErrorCode@@@Z" PURGE="16" COMMENT="" />
    <EXPORT ORDINAL="954" NAME="?format@TimeUnitFormat@icu_44@@UBEAAVUnicodeString@2@ABVFormattable@2@AAV32@AAVFieldPosition@2@AAW4UErrorCode@@@Z" PURGE="16" COMMENT="" />
    <EXPORT ORDINAL="955" NAME="?formatCustomID@TimeZone@icu_44@@CAAAVUnicodeString@2@HHHCAAV32@@Z" PURGE="0" COMMENT="" />
    <EXPORT ORDINAL="956" NAME="?formatGMTDefault@SimpleDateFormat@icu_44@@ABEXPAVNumberFormat@2@AAVUnicodeString@2@H@Z" PURGE="12" COMMENT="" />
    <EXPORT ORDINAL="957" NAME="?formatRFC822TZ@SimpleDateFormat@icu_44@@ABEXAAVUnicodeString@2@H@Z" PURGE="8" COMMENT="" />
    <EXPORT ORDINAL="958" NAME="?freeCEList@CollData@icu_44@@QAEXPBVCEList@2@@Z" PURGE="4" COMMENT="" />
    <EXPORT ORDINAL="959" NAME="?freeCollDataCache@CollData@icu_44@@SAXXZ" PURGE="0" COMMENT="" />
    <EXPORT ORDINAL="960" NAME="?freeTransliterators@CompoundTransliterator@icu_44@@AAEXXZ" PURGE="0" COMMENT="" />
    <EXPORT ORDINAL="961" NAME="?get2DigitYearStart@SimpleDateFormat@icu_44@@QBENAAW4UErrorCode@@@Z" PURGE="4" COMMENT="" />
    <EXPORT ORDINAL="962" NAME="?get@CEList@icu_44@@QBEIH@Z" PURGE="4" COMMENT="" />
    <EXPORT ORDINAL="963" NAME="?get@Calendar@icu_44@@QBEHW4UCalendarDateFields@@AAW4UErrorCode@@@Z" PURGE="8" COMMENT="" />
    <EXPORT ORDINAL="964" NAME="?get@StringList@icu_44@@QBEPBVUnicodeString@2@H@Z" PURGE="4" COMMENT="" />
    <EXPORT ORDINAL="965" NAME="?getActualHelper@Calendar@icu_44@@ABEHW4UCalendarDateFields@@HHAAW4UErrorCode@@@Z" PURGE="16" COMMENT="" />
    <EXPORT ORDINAL="966" NAME="?getActualMaximum@Calendar@icu_44@@UBEHW4UCalendarDateFields@@AAW4UErrorCode@@@Z" PURGE="8" COMMENT="" />
    <EXPORT ORDINAL="967" NAME="?getActualMaximum@GregorianCalendar@icu_44@@UBEHW4UCalendarDateFields@@AAW4UErrorCode@@@Z" PURGE="8" COMMENT="" />
    <EXPORT ORDINAL="968" NAME="?getActualMinimum@Calendar@icu_44@@QBEHW4EDateFields@12@AAW4UErrorCode@@@Z" PURGE="8" COMMENT="" />
    <EXPORT ORDINAL="969" NAME="?getActualMinimum@Calendar@icu_44@@UBEHW4UCalendarDateFields@@AAW4UErrorCode@@@Z" PURGE="8" COMMENT="" />
    <EXPORT ORDINAL="970" NAME="?getActualMinimum@GregorianCalendar@icu_44@@QBEHW4EDateFields@Calendar@2@@Z" PURGE="4" COMMENT="" />
    <EXPORT ORDINAL="971" NAME="?getActualMinimum@GregorianCalendar@icu_44@@QBEHW4EDateFields@Calendar@2@AAW4UErrorCode@@@Z" PURGE="8" COMMENT="" />
    <EXPORT ORDINAL="972" NAME="?getActualMinimum@GregorianCalendar@icu_44@@UBEHW4UCalendarDateFields@@AAW4UErrorCode@@@Z" PURGE="8" COMMENT="" />
    <EXPORT ORDINAL="973" NAME="?getAlias@?$MaybeStackArray@D$0DE@@icu_44@@QBEPADXZ" PURGE="0" COMMENT="" />
    <EXPORT ORDINAL="974" NAME="?getAmPmStrings@DateFormatSymbols@icu_44@@QBEPBVUnicodeString@2@AAH@Z" PURGE="4" COMMENT="" />
    <EXPORT ORDINAL="975" NAME="?getAppendFormatNumber@DateTimePatternGenerator@icu_44@@ABE?AW4UDateTimePatternField@@PBD@Z" PURGE="4" COMMENT="" />
    <EXPORT ORDINAL="976" NAME="?getAppendItemFormat@DateTimePatternGenerator@icu_44@@QBEABVUnicodeString@2@W4UDateTimePatternField@@@Z" PURGE="4" COMMENT="" />
    <EXPORT ORDINAL="977" NAME="?getAppendItemName@DateTimePatternGenerator@icu_44@@QBEABVUnicodeString@2@W4UDateTimePatternField@@@Z" PURGE="4" COMMENT="" />
    <EXPORT ORDINAL="978" NAME="?getAppendName@DateTimePatternGenerator@icu_44@@AAEXW4UDateTimePatternField@@AAVUnicodeString@2@@Z" PURGE="8" COMMENT="" />
    <EXPORT ORDINAL="979" NAME="?getAppendNameNumber@DateTimePatternGenerator@icu_44@@ABE?AW4UDateTimePatternField@@PBD@Z" PURGE="4" COMMENT="" />
    <EXPORT ORDINAL="980" NAME="?getArgTypeCount@MessageFormat@icu_44@@QBEHXZ" PURGE="0" COMMENT="" />
    <EXPORT ORDINAL="981" NAME="?getArgTypeList@MessageFormat@icu_44@@ABEPBW4Type@Formattable@2@AAH@Z" PURGE="4" COMMENT="" />
    <EXPORT ORDINAL="982" NAME="?getArray@Formattable@icu_44@@QBEPBV12@AAH@Z" PURGE="4" COMMENT="" />
    <EXPORT ORDINAL="983" NAME="?getArray@Formattable@icu_44@@QBEPBV12@AAHAAW4UErrorCode@@@Z" PURGE="8" COMMENT="" />
    <EXPORT ORDINAL="984" NAME="?getArrayLimit@?$MaybeStackArray@D$0DE@@icu_44@@QBEPADXZ" PURGE="0" COMMENT="" />
    <EXPORT ORDINAL="985" NAME="?getAttribute@RuleBasedCollator@icu_44@@UAE?AW4UColAttributeValue@@W4UColAttribute@@AAW4UErrorCode@@@Z" PURGE="8" COMMENT="" />
    <EXPORT ORDINAL="986" NAME="?getAttribute@SearchIterator@icu_44@@QBE?AW4USearchAttributeValue@@W4USearchAttribute@@@Z" PURGE="4" COMMENT="" />
    <EXPORT ORDINAL="987" NAME="?getAvailableID@Transliterator@icu_44@@SAABVUnicodeString@2@H@Z" PURGE="0" COMMENT="" />
    <EXPORT ORDINAL="988" NAME="?getAvailableIDs@Transliterator@icu_44@@SAPAVStringEnumeration@2@AAW4UErrorCode@@@Z" PURGE="0" COMMENT="" />
    <EXPORT ORDINAL="989" NAME="?getAvailableLocales@Calendar@icu_44@@SAPBVLocale@2@AAH@Z" PURGE="0" COMMENT="" />
    <EXPORT ORDINAL="990" NAME="?getAvailableLocales@Collator@icu_44@@SAPAVStringEnumeration@2@XZ" PURGE="0" COMMENT="" />
    <EXPORT ORDINAL="991" NAME="?getAvailableLocales@Collator@icu_44@@SAPBVLocale@2@AAH@Z" PURGE="0" COMMENT="" />
    <EXPORT ORDINAL="992" NAME="?getAvailableLocales@DateFormat@icu_44@@SAPBVLocale@2@AAH@Z" PURGE="0" COMMENT="" />
    <EXPORT ORDINAL="993" NAME="?getAvailableLocales@NumberFormat@icu_44@@SAPAVStringEnumeration@2@XZ" PURGE="0" COMMENT="" />
    <EXPORT ORDINAL="994" NAME="?getAvailableLocales@NumberFormat@icu_44@@SAPBVLocale@2@AAH@Z" PURGE="0" COMMENT="" />
    <EXPORT ORDINAL="995" NAME="?getAvailableSource@Transliterator@icu_44@@SAAAVUnicodeString@2@HAAV32@@Z" PURGE="0" COMMENT="" />
    <EXPORT ORDINAL="996" NAME="?getAvailableTarget@Transliterator@icu_44@@SAAAVUnicodeString@2@HABV32@AAV32@@Z" PURGE="0" COMMENT="" />
    <EXPORT ORDINAL="997" NAME="?getAvailableVariant@Transliterator@icu_44@@SAAAVUnicodeString@2@HABV32@0AAV32@@Z" PURGE="0" COMMENT="" />
    <EXPORT ORDINAL="998" NAME="?getBadCharacterTable@BoyerMooreSearch@icu_44@@QAEPAVBadCharacterTable@2@XZ" PURGE="0" COMMENT="" />
    <EXPORT ORDINAL="999" NAME="?getBaseSkeleton@DateTimePatternGenerator@icu_44@@QAE?AVUnicodeString@2@ABV32@AAW4UErrorCode@@@Z" PURGE="12" COMMENT="" />
    <EXPORT ORDINAL="1000" NAME="?getBaseSkeletons@DateTimePatternGenerator@icu_44@@QBEPAVStringEnumeration@2@AAW4UErrorCode@@@Z" PURGE="4" COMMENT="" />
    <EXPORT ORDINAL="1001" NAME="?getBeginIndex@FieldPosition@icu_44@@QBEHXZ" PURGE="0" COMMENT="" />
    <EXPORT ORDINAL="1002" NAME="?getBestAppending@DateTimePatternGenerator@icu_44@@AAE?AVUnicodeString@2@HW4UDateTimePatternMatchOptions@@@Z" PURGE="12" COMMENT="" />
    <EXPORT ORDINAL="1003" NAME="?getBestPattern@DateTimePatternGenerator@icu_44@@QAE?AVUnicodeString@2@ABV32@AAW4UErrorCode@@@Z" PURGE="12" COMMENT="" />
    <EXPORT ORDINAL="1004" NAME="?getBestPattern@DateTimePatternGenerator@icu_44@@QAE?AVUnicodeString@2@ABV32@W4UDateTimePatternMatchOptions@@AAW4UErrorCode@@@Z" PURGE="16" COMMENT="" />
    <EXPORT ORDINAL="1005" NAME="?getBestRaw@DateTimePatternGenerator@icu_44@@AAEPBVUnicodeString@2@AAVDateTimeMatcher@2@HPAVDistanceInfo@2@PAPBVPtnSkeleton@2@@Z" PURGE="16" COMMENT="" />
    <EXPORT ORDINAL="1006" NAME="?getBestSkeleton@DateIntervalInfo@icu_44@@ABEPBVUnicodeString@2@ABV32@AAC@Z" PURGE="8" COMMENT="" />
    <EXPORT ORDINAL="1007" NAME="?getBogus@Formattable@icu_44@@ABEPAVUnicodeString@2@XZ" PURGE="0" COMMENT="" />
    <EXPORT ORDINAL="1008" NAME="?getBound@Collator@icu_44@@SAHPBEHW4UColBoundMode@@IPAEHAAW4UErrorCode@@@Z" PURGE="0" COMMENT="" />
    <EXPORT ORDINAL="1009" NAME="?getBreakIterator@SearchIterator@icu_44@@QBEPBVBreakIterator@2@XZ" PURGE="0" COMMENT="" />
    <EXPORT ORDINAL="1010" NAME="?getByteArray@CollationKey@icu_44@@QBEPBEAAH@Z" PURGE="4" COMMENT="" />
    <EXPORT ORDINAL="1011" NAME="?getCEList@CollData@icu_44@@QBEPBVCEList@2@PBVUnicodeString@2@@Z" PURGE="4" COMMENT="" />
    <EXPORT ORDINAL="1012" NAME="?getCalendar@DateFormat@icu_44@@UBEPBVCalendar@2@XZ" PURGE="0" COMMENT="" />
    <EXPORT ORDINAL="1013" NAME="?getCanonicalCountry@ZoneMeta@icu_44@@SAAAVUnicodeString@2@ABV32@AAV32@@Z" PURGE="0" COMMENT="" />
    <EXPORT ORDINAL="1014" NAME="?getCanonicalID@TimeZone@icu_44@@SAAAVUnicodeString@2@ABV32@AAV32@AACAAW4UErrorCode@@@Z" PURGE="0" COMMENT="" />
    <EXPORT ORDINAL="1015" NAME="?getCanonicalID@TimeZone@icu_44@@SAAAVUnicodeString@2@ABV32@AAV32@AAW4UErrorCode@@@Z" PURGE="0" COMMENT="" />
    <EXPORT ORDINAL="1016" NAME="?getCanonicalSystemID@ZoneMeta@icu_44@@SAAAVUnicodeString@2@ABV32@AAV32@AAW4UErrorCode@@@Z" PURGE="0" COMMENT="" />
    <EXPORT ORDINAL="1017" NAME="?getCapacity@?$MaybeStackArray@D$0DE@@icu_44@@QBEHXZ" PURGE="0" COMMENT="" />
    <EXPORT ORDINAL="1018" NAME="?getClosures@ChoiceFormat@icu_44@@UBEPBCAAH@Z" PURGE="4" COMMENT="" />
    <EXPORT ORDINAL="1019" NAME="?getCollDataCache@CollData@icu_44@@CAPAVCollDataCache@2@XZ" PURGE="0" COMMENT="" />
    <EXPORT ORDINAL="1020" NAME="?getCollationKey@RuleBasedCollator@icu_44@@UBEAAVCollationKey@2@ABVUnicodeString@2@AAV32@AAW4UErrorCode@@@Z" PURGE="12" COMMENT="" />
    <EXPORT ORDINAL="1021" NAME="?getCollationKey@RuleBasedCollator@icu_44@@UBEAAVCollationKey@2@PB_WHAAV32@AAW4UErrorCode@@@Z" PURGE="16" COMMENT="" />
    <EXPORT ORDINAL="1022" NAME="?getCollator@CollData@icu_44@@QBEPAUUCollator@@XZ" PURGE="0" COMMENT="" />
    <EXPORT ORDINAL="1023" NAME="?getCollator@RuleBasedNumberFormat@icu_44@@ABEPAVCollator@2@XZ" PURGE="0" COMMENT="" />
    <EXPORT ORDINAL="1024" NAME="?getCollator@StringSearch@icu_44@@QBEPAVRuleBasedCollator@2@XZ" PURGE="0" COMMENT="" />
    <EXPORT ORDINAL="1025" NAME="?getConstSymbol@DecimalFormat@icu_44@@ABEABVUnicodeString@2@W4ENumberFormatSymbol@DecimalFormatSymbols@2@@Z" PURGE="4" COMMENT="" />
    <EXPORT ORDINAL="1026" NAME="?getConstSymbol@DecimalFormatSymbols@icu_44@@QBEABVUnicodeString@2@W4ENumberFormatSymbol@12@@Z" PURGE="4" COMMENT="" />
    <EXPORT ORDINAL="1027" NAME="?getCount@CompoundTransliterator@icu_44@@UBEHXZ" PURGE="0" COMMENT="" />
    <EXPORT ORDINAL="1028" NAME="?getCount@DigitList@icu_44@@QBEHXZ" PURGE="0" COMMENT="" />
    <EXPORT ORDINAL="1029" NAME="?getCurrency@CurrencyAmount@icu_44@@QBEABVCurrencyUnit@2@XZ" PURGE="0" COMMENT="" />
    <EXPORT ORDINAL="1030" NAME="?getCurrency@NumberFormat@icu_44@@QBEPB_WXZ" PURGE="0" COMMENT="" />
    <EXPORT ORDINAL="1031" NAME="?getCurrencyPattern@DecimalFormatSymbols@icu_44@@QBEPB_WXZ" PURGE="0" COMMENT="" />
    <EXPORT ORDINAL="1032" NAME="?getCurrencyPluralInfo@DecimalFormat@icu_44@@UBEPBVCurrencyPluralInfo@2@XZ" PURGE="0" COMMENT="" />
    <EXPORT ORDINAL="1033" NAME="?getCurrencyPluralPattern@CurrencyPluralInfo@icu_44@@QBEAAVUnicodeString@2@ABV32@AAV32@@Z" PURGE="8" COMMENT="" />
    <EXPORT ORDINAL="1034" NAME="?getCurrentEra@JapaneseCalendar@icu_44@@SAIXZ" PURGE="0" COMMENT="" />
    <EXPORT ORDINAL="1035" NAME="?getCustomID@TimeZone@icu_44@@CAAAVUnicodeString@2@ABV32@AAV32@AAW4UErrorCode@@@Z" PURGE="0" COMMENT="" />
    <EXPORT ORDINAL="1036" NAME="?getDSTSavings@SimpleTimeZone@icu_44@@UBEHXZ" PURGE="0" COMMENT="" />
    <EXPORT ORDINAL="1037" NAME="?getDSTSavings@TimeZone@icu_44@@UBEHXZ" PURGE="0" COMMENT="" />
    <EXPORT ORDINAL="1038" NAME="?getDSTSavings@TimeZoneRule@icu_44@@QBEHXZ" PURGE="0" COMMENT="" />
    <EXPORT ORDINAL="1039" NAME="?getData@BoyerMooreSearch@icu_44@@QAEPAVCollData@2@XZ" PURGE="0" COMMENT="" />
    <EXPORT ORDINAL="1040" NAME="?getDate@Formattable@icu_44@@QBENAAW4UErrorCode@@@Z" PURGE="4" COMMENT="" />
    <EXPORT ORDINAL="1041" NAME="?getDate@Formattable@icu_44@@QBENXZ" PURGE="0" COMMENT="" />
    <EXPORT ORDINAL="1042" NAME="?getDateFormat@DateIntervalFormat@icu_44@@QBEPBVDateFormat@2@XZ" PURGE="0" COMMENT="" />
    <EXPORT ORDINAL="1043" NAME="?getDateFormatSymbols@SimpleDateFormat@icu_44@@UBEPBVDateFormatSymbols@2@XZ" PURGE="0" COMMENT="" />
    <EXPORT ORDINAL="1044" NAME="?getDateIntervalInfo@DateIntervalFormat@icu_44@@QBEPBVDateIntervalInfo@2@XZ" PURGE="0" COMMENT="" />
    <EXPORT ORDINAL="1045" NAME="?getDateRuleType@DateTimeRule@icu_44@@QBE?AW4DateRuleType@12@XZ" PURGE="0" COMMENT="" />
    <EXPORT ORDINAL="1046" NAME="?getDateTimeFormat@DateTimePatternGenerator@icu_44@@QBEABVUnicodeString@2@XZ" PURGE="0" COMMENT="" />
    <EXPORT ORDINAL="1047" NAME="?getDateTimeSkeleton@DateIntervalFormat@icu_44@@CAXABVUnicodeString@2@AAV32@111@Z" PURGE="0" COMMENT="" />
    <EXPORT ORDINAL="1048" NAME="?getDayOfWeekType@Calendar@icu_44@@UBE?AW4UCalendarWeekdayType@@W4UCalendarDaysOfWeek@@AAW4UErrorCode@@@Z" PURGE="8" COMMENT="" />
    <EXPORT ORDINAL="1049" NAME="?getDecimal@DateTimePatternGenerator@icu_44@@QBEABVUnicodeString@2@XZ" PURGE="0" COMMENT="" />
    <EXPORT ORDINAL="1050" NAME="?getDecimal@DigitList@icu_44@@QAEXAAVDecimalNumberString@2@AAW4UErrorCode@@@Z" PURGE="8" COMMENT="" />
    <EXPORT ORDINAL="1051" NAME="?getDecimalAt@DigitList@icu_44@@QAEHXZ" PURGE="0" COMMENT="" />
    <EXPORT ORDINAL="1052" NAME="?getDecimalFormatSymbols@DecimalFormat@icu_44@@UBEPBVDecimalFormatSymbols@2@XZ" PURGE="0" COMMENT="" />
    <EXPORT ORDINAL="1053" NAME="?getDecimalFormatSymbols@RuleBasedNumberFormat@icu_44@@ABEPAVDecimalFormatSymbols@2@XZ" PURGE="0" COMMENT="" />
    <EXPORT ORDINAL="1054" NAME="?getDecimalNumber@Formattable@icu_44@@QAE?AVStringPiece@2@AAW4UErrorCode@@@Z" PURGE="8" COMMENT="" />
    <EXPORT ORDINAL="1055" NAME="?getDefaultDateFormat@MessageFormat@icu_44@@ABEPBVDateFormat@2@AAW4UErrorCode@@@Z" PURGE="4" COMMENT="" />
    <EXPORT ORDINAL="1056" NAME="?getDefaultDayInMonth@Calendar@icu_44@@MAEHHH@Z" PURGE="8" COMMENT="" />
    <EXPORT ORDINAL="1057" NAME="?getDefaultMonthInYear@Calendar@icu_44@@MAEHH@Z" PURGE="4" COMMENT="" />
    <EXPORT ORDINAL="1058" NAME="?getDefaultNumberFormat@MessageFormat@icu_44@@ABEPBVNumberFormat@2@AAW4UErrorCode@@@Z" PURGE="4" COMMENT="" />
    <EXPORT ORDINAL="1059" NAME="?getDefaultOrder@DateIntervalInfo@icu_44@@QBECXZ" PURGE="0" COMMENT="" />
    <EXPORT ORDINAL="1060" NAME="?getDefaultRuleSet@RuleBasedNumberFormat@icu_44@@ABEPAVNFRuleSet@2@XZ" PURGE="0" COMMENT="" />
    <EXPORT ORDINAL="1061" NAME="?getDefaultRuleSetName@RuleBasedNumberFormat@icu_44@@UBE?AVUnicodeString@2@XZ" PURGE="4" COMMENT="" />
    <EXPORT ORDINAL="1062" NAME="?getDescription@NumberingSystem@icu_44@@UAE?AVUnicodeString@2@XZ" PURGE="4" COMMENT="" />
    <EXPORT ORDINAL="1063" NAME="?getDigit@DigitList@icu_44@@QAEDH@Z" PURGE="4" COMMENT="" />
    <EXPORT ORDINAL="1064" NAME="?getDigitList@Formattable@icu_44@@QBEPAVDigitList@2@XZ" PURGE="0" COMMENT="" />
    <EXPORT ORDINAL="1065" NAME="?getDisplayName@Collator@icu_44@@SAAAVUnicodeString@2@ABVLocale@2@0AAV32@@Z" PURGE="0" COMMENT="" />
    <EXPORT ORDINAL="1066" NAME="?getDisplayName@Collator@icu_44@@SAAAVUnicodeString@2@ABVLocale@2@AAV32@@Z" PURGE="0" COMMENT="" />
    <EXPORT ORDINAL="1067" NAME="?getDisplayName@CollatorFactory@icu_44@@UAEAAVUnicodeString@2@ABVLocale@2@0AAV32@@Z" PURGE="12" COMMENT="" />
    <EXPORT ORDINAL="1068" NAME="?getDisplayName@TimeZone@icu_44@@QBEAAVUnicodeString@2@AAV32@@Z" PURGE="4" COMMENT="" />
    <EXPORT ORDINAL="1069" NAME="?getDisplayName@TimeZone@icu_44@@QBEAAVUnicodeString@2@ABVLocale@2@AAV32@@Z" PURGE="8" COMMENT="" />
    <EXPORT ORDINAL="1070" NAME="?getDisplayName@TimeZone@icu_44@@QBEAAVUnicodeString@2@CW4EDisplayType@12@AAV32@@Z" PURGE="12" COMMENT="" />
    <EXPORT ORDINAL="1071" NAME="?getDisplayName@TimeZone@icu_44@@QBEAAVUnicodeString@2@CW4EDisplayType@12@ABVLocale@2@AAV32@@Z" PURGE="16" COMMENT="" />
    <EXPORT ORDINAL="1072" NAME="?getDisplayName@Transliterator@icu_44@@SAAAVUnicodeString@2@ABV32@AAV32@@Z" PURGE="0" COMMENT="" />
    <EXPORT ORDINAL="1073" NAME="?getDisplayName@Transliterator@icu_44@@SAAAVUnicodeString@2@ABV32@ABVLocale@2@AAV32@@Z" PURGE="0" COMMENT="" />
    <EXPORT ORDINAL="1074" NAME="?getDouble@DigitList@icu_44@@QBENXZ" PURGE="0" COMMENT="" />
    <EXPORT ORDINAL="1075" NAME="?getDouble@Formattable@icu_44@@QBENAAW4UErrorCode@@@Z" PURGE="4" COMMENT="" />
    <EXPORT ORDINAL="1076" NAME="?getDouble@Formattable@icu_44@@QBENXZ" PURGE="0" COMMENT="" />
    <EXPORT ORDINAL="1077" NAME="?getDynamicClassID@AnnualTimeZoneRule@icu_44@@UBEPAXXZ" PURGE="0" COMMENT="" />
    <EXPORT ORDINAL="1078" NAME="?getDynamicClassID@BoyerMooreSearch@icu_44@@UBEPAXXZ" PURGE="0" COMMENT="" />
    <EXPORT ORDINAL="1079" NAME="?getDynamicClassID@CEList@icu_44@@UBEPAXXZ" PURGE="0" COMMENT="" />
    <EXPORT ORDINAL="1080" NAME="?getDynamicClassID@ChoiceFormat@icu_44@@UBEPAXXZ" PURGE="0" COMMENT="" />
    <EXPORT ORDINAL="1081" NAME="?getDynamicClassID@CollData@icu_44@@UBEPAXXZ" PURGE="0" COMMENT="" />
    <EXPORT ORDINAL="1082" NAME="?getDynamicClassID@CollationElementIterator@icu_44@@UBEPAXXZ" PURGE="0" COMMENT="" />
    <EXPORT ORDINAL="1083" NAME="?getDynamicClassID@CollationKey@icu_44@@UBEPAXXZ" PURGE="0" COMMENT="" />
    <EXPORT ORDINAL="1084" NAME="?getDynamicClassID@CompoundTransliterator@icu_44@@UBEPAXXZ" PURGE="0" COMMENT="" />
    <EXPORT ORDINAL="1085" NAME="?getDynamicClassID@CurrencyAmount@icu_44@@UBEPAXXZ" PURGE="0" COMMENT="" />
    <EXPORT ORDINAL="1086" NAME="?getDynamicClassID@CurrencyPluralInfo@icu_44@@UBEPAXXZ" PURGE="0" COMMENT="" />
    <EXPORT ORDINAL="1087" NAME="?getDynamicClassID@CurrencyUnit@icu_44@@UBEPAXXZ" PURGE="0" COMMENT="" />
    <EXPORT ORDINAL="1088" NAME="?getDynamicClassID@DateFormatSymbols@icu_44@@UBEPAXXZ" PURGE="0" COMMENT="" />
    <EXPORT ORDINAL="1089" NAME="?getDynamicClassID@DateIntervalFormat@icu_44@@UBEPAXXZ" PURGE="0" COMMENT="" />
    <EXPORT ORDINAL="1090" NAME="?getDynamicClassID@DateIntervalInfo@icu_44@@UBEPAXXZ" PURGE="0" COMMENT="" />
    <EXPORT ORDINAL="1091" NAME="?getDynamicClassID@DateTimePatternGenerator@icu_44@@UBEPAXXZ" PURGE="0" COMMENT="" />
    <EXPORT ORDINAL="1092" NAME="?getDynamicClassID@DateTimeRule@icu_44@@UBEPAXXZ" PURGE="0" COMMENT="" />
    <EXPORT ORDINAL="1093" NAME="?getDynamicClassID@DecimalFormat@icu_44@@UBEPAXXZ" PURGE="0" COMMENT="" />
    <EXPORT ORDINAL="1094" NAME="?getDynamicClassID@DecimalFormatSymbols@icu_44@@UBEPAXXZ" PURGE="0" COMMENT="" />
    <EXPORT ORDINAL="1095" NAME="?getDynamicClassID@FieldPosition@icu_44@@UBEPAXXZ" PURGE="0" COMMENT="" />
    <EXPORT ORDINAL="1096" NAME="?getDynamicClassID@FieldPositionIterator@icu_44@@UBEPAXXZ" PURGE="0" COMMENT="" />
    <EXPORT ORDINAL="1097" NAME="?getDynamicClassID@Formattable@icu_44@@UBEPAXXZ" PURGE="0" COMMENT="" />
    <EXPORT ORDINAL="1098" NAME="?getDynamicClassID@GregorianCalendar@icu_44@@UBEPAXXZ" PURGE="0" COMMENT="" />
    <EXPORT ORDINAL="1099" NAME="?getDynamicClassID@HebrewCalendar@icu_44@@UBEPAXXZ" PURGE="0" COMMENT="" />
    <EXPORT ORDINAL="1100" NAME="?getDynamicClassID@InitialTimeZoneRule@icu_44@@UBEPAXXZ" PURGE="0" COMMENT="" />
    <EXPORT ORDINAL="1101" NAME="?getDynamicClassID@MessageFormat@icu_44@@UBEPAXXZ" PURGE="0" COMMENT="" />
    <EXPORT ORDINAL="1102" NAME="?getDynamicClassID@NumberingSystem@icu_44@@UBEPAXXZ" PURGE="0" COMMENT="" />
    <EXPORT ORDINAL="1103" NAME="?getDynamicClassID@PluralFormat@icu_44@@UBEPAXXZ" PURGE="0" COMMENT="" />
    <EXPORT ORDINAL="1104" NAME="?getDynamicClassID@PluralRules@icu_44@@UBEPAXXZ" PURGE="0" COMMENT="" />
    <EXPORT ORDINAL="1105" NAME="?getDynamicClassID@RegexMatcher@icu_44@@UBEPAXXZ" PURGE="0" COMMENT="" />
    <EXPORT ORDINAL="1106" NAME="?getDynamicClassID@RegexPattern@icu_44@@UBEPAXXZ" PURGE="0" COMMENT="" />
    <EXPORT ORDINAL="1107" NAME="?getDynamicClassID@RuleBasedCollator@icu_44@@UBEPAXXZ" PURGE="0" COMMENT="" />
    <EXPORT ORDINAL="1108" NAME="?getDynamicClassID@RuleBasedNumberFormat@icu_44@@UBEPAXXZ" PURGE="0" COMMENT="" />
    <EXPORT ORDINAL="1109" NAME="?getDynamicClassID@RuleBasedTimeZone@icu_44@@UBEPAXXZ" PURGE="0" COMMENT="" />
    <EXPORT ORDINAL="1110" NAME="?getDynamicClassID@SelectFormat@icu_44@@UBEPAXXZ" PURGE="0" COMMENT="" />
    <EXPORT ORDINAL="1111" NAME="?getDynamicClassID@SimpleDateFormat@icu_44@@UBEPAXXZ" PURGE="0" COMMENT="" />
    <EXPORT ORDINAL="1112" NAME="?getDynamicClassID@SimpleTimeZone@icu_44@@UBEPAXXZ" PURGE="0" COMMENT="" />
    <EXPORT ORDINAL="1113" NAME="?getDynamicClassID@StringList@icu_44@@UBEPAXXZ" PURGE="0" COMMENT="" />
    <EXPORT ORDINAL="1114" NAME="?getDynamicClassID@StringSearch@icu_44@@UBEPAXXZ" PURGE="0" COMMENT="" />
    <EXPORT ORDINAL="1115" NAME="?getDynamicClassID@TimeArrayTimeZoneRule@icu_44@@UBEPAXXZ" PURGE="0" COMMENT="" />
    <EXPORT ORDINAL="1116" NAME="?getDynamicClassID@TimeUnit@icu_44@@UBEPAXXZ" PURGE="0" COMMENT="" />
    <EXPORT ORDINAL="1117" NAME="?getDynamicClassID@TimeUnitAmount@icu_44@@UBEPAXXZ" PURGE="0" COMMENT="" />
    <EXPORT ORDINAL="1118" NAME="?getDynamicClassID@TimeUnitFormat@icu_44@@UBEPAXXZ" PURGE="0" COMMENT="" />
    <EXPORT ORDINAL="1119" NAME="?getDynamicClassID@TimeZoneTransition@icu_44@@UBEPAXXZ" PURGE="0" COMMENT="" />
    <EXPORT ORDINAL="1120" NAME="?getDynamicClassID@VTimeZone@icu_44@@UBEPAXXZ" PURGE="0" COMMENT="" />
    <EXPORT ORDINAL="1121" NAME="?getECollationStrength@RuleBasedCollator@icu_44@@ABE?AW4ECollationStrength@Collator@2@ABW4UColAttributeValue@@@Z" PURGE="4" COMMENT="" />
    <EXPORT ORDINAL="1122" NAME="?getEComparisonResult@RuleBasedCollator@icu_44@@ABE?AW4EComparisonResult@Collator@2@ABW4UCollationResult@@@Z" PURGE="4" COMMENT="" />
    <EXPORT ORDINAL="1123" NAME="?getEffectiveCurrency@DecimalFormat@icu_44@@MBEXPA_WAAW4UErrorCode@@@Z" PURGE="8" COMMENT="" />
    <EXPORT ORDINAL="1124" NAME="?getEffectiveCurrency@NumberFormat@icu_44@@MBEXPA_WAAW4UErrorCode@@@Z" PURGE="8" COMMENT="" />
    <EXPORT ORDINAL="1125" NAME="?getElement@Transliterator@icu_44@@QBEABV12@HAAW4UErrorCode@@@Z" PURGE="8" COMMENT="" />
    <EXPORT ORDINAL="1126" NAME="?getEndIndex@FieldPosition@icu_44@@QBEHXZ" PURGE="0" COMMENT="" />
    <EXPORT ORDINAL="1127" NAME="?getEndYear@AnnualTimeZoneRule@icu_44@@QBEHXZ" PURGE="0" COMMENT="" />
    <EXPORT ORDINAL="1128" NAME="?getEpochDay@GregorianCalendar@icu_44@@MAENAAW4UErrorCode@@@Z" PURGE="4" COMMENT="" />
    <EXPORT ORDINAL="1129" NAME="?getEquivalentID@TimeZone@icu_44@@SA?BVUnicodeString@2@ABV32@H@Z" PURGE="0" COMMENT="" />
    <EXPORT ORDINAL="1130" NAME="?getEraNames@DateFormatSymbols@icu_44@@QBEPBVUnicodeString@2@AAH@Z" PURGE="4" COMMENT="" />
    <EXPORT ORDINAL="1131" NAME="?getEras@DateFormatSymbols@icu_44@@QBEPBVUnicodeString@2@AAH@Z" PURGE="4" COMMENT="" />
    <EXPORT ORDINAL="1132" NAME="?getFallbackIntervalPattern@DateIntervalInfo@icu_44@@QBEAAVUnicodeString@2@AAV32@@Z" PURGE="4" COMMENT="" />
    <EXPORT ORDINAL="1133" NAME="?getField@FieldPosition@icu_44@@QBEHXZ" PURGE="0" COMMENT="" />
    <EXPORT ORDINAL="1134" NAME="?getFieldResolutionTable@Calendar@icu_44@@MBEPAY1M@7$$CBHXZ" PURGE="0" COMMENT="" />
    <EXPORT ORDINAL="1135" NAME="?getFilter@Transliterator@icu_44@@QBEPBVUnicodeFilter@2@XZ" PURGE="0" COMMENT="" />
    <EXPORT ORDINAL="1136" NAME="?getFinalStart@AnnualTimeZoneRule@icu_44@@UBECHHAAN@Z" PURGE="12" COMMENT="" />
    <EXPORT ORDINAL="1137" NAME="?getFinalStart@InitialTimeZoneRule@icu_44@@UBECHHAAN@Z" PURGE="12" COMMENT="" />
    <EXPORT ORDINAL="1138" NAME="?getFinalStart@TimeArrayTimeZoneRule@icu_44@@UBECHHAAN@Z" PURGE="12" COMMENT="" />
    <EXPORT ORDINAL="1139" NAME="?getFirstDayOfWeek@Calendar@icu_44@@QBE?AW4EDaysOfWeek@12@XZ" PURGE="0" COMMENT="" />
    <EXPORT ORDINAL="1140" NAME="?getFirstDayOfWeek@Calendar@icu_44@@QBE?AW4UCalendarDaysOfWeek@@AAW4UErrorCode@@@Z" PURGE="4" COMMENT="" />
    <EXPORT ORDINAL="1141" NAME="?getFirstStart@AnnualTimeZoneRule@icu_44@@UBECHHAAN@Z" PURGE="12" COMMENT="" />
    <EXPORT ORDINAL="1142" NAME="?getFirstStart@InitialTimeZoneRule@icu_44@@UBECHHAAN@Z" PURGE="12" COMMENT="" />
    <EXPORT ORDINAL="1143" NAME="?getFirstStart@TimeArrayTimeZoneRule@icu_44@@UBECHHAAN@Z" PURGE="12" COMMENT="" />
    <EXPORT ORDINAL="1144" NAME="?getFormat@MessageFormat@icu_44@@UAEPAVFormat@2@ABVUnicodeString@2@AAW4UErrorCode@@@Z" PURGE="8" COMMENT="" />
    <EXPORT ORDINAL="1145" NAME="?getFormatNames@MessageFormat@icu_44@@UAEPAVStringEnumeration@2@AAW4UErrorCode@@@Z" PURGE="4" COMMENT="" />
    <EXPORT ORDINAL="1146" NAME="?getFormatWidth@DecimalFormat@icu_44@@UBEHXZ" PURGE="0" COMMENT="" />
    <EXPORT ORDINAL="1147" NAME="?getFormats@ChoiceFormat@icu_44@@UBEPBVUnicodeString@2@AAH@Z" PURGE="4" COMMENT="" />
    <EXPORT ORDINAL="1148" NAME="?getFormats@MessageFormat@icu_44@@UBEPAPBVFormat@2@AAH@Z" PURGE="4" COMMENT="" />
    <EXPORT ORDINAL="1149" NAME="?getFrom@TimeZoneTransition@icu_44@@QBEPBVTimeZoneRule@2@XZ" PURGE="0" COMMENT="" />
    <EXPORT ORDINAL="1150" NAME="?getFunctionalEquivalent@Collator@icu_44@@SA?AVLocale@2@PBDABV32@AACAAW4UErrorCode@@@Z" PURGE="0" COMMENT="" />
    <EXPORT ORDINAL="1151" NAME="?getGMT@TimeZone@icu_44@@SAPBV12@XZ" PURGE="0" COMMENT="" />
    <EXPORT ORDINAL="1152" NAME="?getGoodSuffixTable@BoyerMooreSearch@icu_44@@QAEPAVGoodSuffixTable@2@XZ" PURGE="0" COMMENT="" />
    <EXPORT ORDINAL="1153" NAME="?getGreatestMinimum@Calendar@icu_44@@UBEHW4EDateFields@12@@Z" PURGE="4" COMMENT="" />
    <EXPORT ORDINAL="1154" NAME="?getGreatestMinimum@Calendar@icu_44@@UBEHW4UCalendarDateFields@@@Z" PURGE="4" COMMENT="" />
    <EXPORT ORDINAL="1155" NAME="?getGreenwichSidereal@CalendarAstronomer@icu_44@@QAENXZ" PURGE="0" COMMENT="" />
    <EXPORT ORDINAL="1156" NAME="?getGregorianChange@GregorianCalendar@icu_44@@QBENXZ" PURGE="0" COMMENT="" />
    <EXPORT ORDINAL="1157" NAME="?getGregorianDayOfMonth@Calendar@icu_44@@IBEHXZ" PURGE="0" COMMENT="" />
    <EXPORT ORDINAL="1158" NAME="?getGregorianDayOfYear@Calendar@icu_44@@IBEHXZ" PURGE="0" COMMENT="" />
    <EXPORT ORDINAL="1159" NAME="?getGregorianMonth@Calendar@icu_44@@IBEHXZ" PURGE="0" COMMENT="" />
    <EXPORT ORDINAL="1160" NAME="?getGregorianYear@Calendar@icu_44@@IBEHXZ" PURGE="0" COMMENT="" />
    <EXPORT ORDINAL="1161" NAME="?getGroupingSize@DecimalFormat@icu_44@@QBEHXZ" PURGE="0" COMMENT="" />
    <EXPORT ORDINAL="1162" NAME="?getID@TimeZone@icu_44@@QBEAAVUnicodeString@2@AAV32@@Z" PURGE="4" COMMENT="" />
    <EXPORT ORDINAL="1163" NAME="?getID@Transliterator@icu_44@@UBEABVUnicodeString@2@XZ" PURGE="0" COMMENT="" />
    <EXPORT ORDINAL="1164" NAME="?getISOCurrency@CurrencyAmount@icu_44@@QBEPB_WXZ" PURGE="0" COMMENT="" />
    <EXPORT ORDINAL="1165" NAME="?getISOCurrency@CurrencyUnit@icu_44@@QBEPB_WXZ" PURGE="0" COMMENT="" />
    <EXPORT ORDINAL="1166" NAME="?getInput@RegexMatcher@icu_44@@UBEPAUUText@@PAU3@@Z" PURGE="4" COMMENT="" />
    <EXPORT ORDINAL="1167" NAME="?getInt64@DigitList@icu_44@@QAE_JXZ" PURGE="0" COMMENT="" />
    <EXPORT ORDINAL="1168" NAME="?getInt64@Formattable@icu_44@@QBE_JAAW4UErrorCode@@@Z" PURGE="4" COMMENT="" />
    <EXPORT ORDINAL="1169" NAME="?getInt64@Formattable@icu_44@@QBE_JXZ" PURGE="0" COMMENT="" />
    <EXPORT ORDINAL="1170" NAME="?getIntervalPattern@DateIntervalInfo@icu_44@@QBEAAVUnicodeString@2@ABV32@W4UCalendarDateFields@@AAV32@AAW4UErrorCode@@@Z" PURGE="16" COMMENT="" />
    <EXPORT ORDINAL="1171" NAME="?getJulianCentury@CalendarAstronomer@icu_44@@QAENXZ" PURGE="0" COMMENT="" />
    <EXPORT ORDINAL="1172" NAME="?getJulianDay@CalendarAstronomer@icu_44@@QAENXZ" PURGE="0" COMMENT="" />
    <EXPORT ORDINAL="1173" NAME="?getKeywordOther@PluralRules@icu_44@@QBE?AVUnicodeString@2@XZ" PURGE="4" COMMENT="" />
    <EXPORT ORDINAL="1174" NAME="?getKeywordValues@Collator@icu_44@@SAPAVStringEnumeration@2@PBDAAW4UErrorCode@@@Z" PURGE="0" COMMENT="" />
    <EXPORT ORDINAL="1175" NAME="?getKeywordValuesForLocale@Calendar@icu_44@@SAPAVStringEnumeration@2@PBDABVLocale@2@CAAW4UErrorCode@@@Z" PURGE="0" COMMENT="" />
    <EXPORT ORDINAL="1176" NAME="?getKeywordValuesForLocale@Collator@icu_44@@SAPAVStringEnumeration@2@PBDABVLocale@2@CAAW4UErrorCode@@@Z" PURGE="0" COMMENT="" />
    <EXPORT ORDINAL="1177" NAME="?getKeywords@Collator@icu_44@@SAPAVStringEnumeration@2@AAW4UErrorCode@@@Z" PURGE="0" COMMENT="" />
    <EXPORT ORDINAL="1178" NAME="?getKeywords@PluralRules@icu_44@@QBEPAVStringEnumeration@2@AAW4UErrorCode@@@Z" PURGE="4" COMMENT="" />
    <EXPORT ORDINAL="1179" NAME="?getLastModified@VTimeZone@icu_44@@QBECAAN@Z" PURGE="4" COMMENT="" />
    <EXPORT ORDINAL="1180" NAME="?getLeastMaximum@Calendar@icu_44@@UBEHW4EDateFields@12@@Z" PURGE="4" COMMENT="" />
    <EXPORT ORDINAL="1181" NAME="?getLeastMaximum@Calendar@icu_44@@UBEHW4UCalendarDateFields@@@Z" PURGE="4" COMMENT="" />
    <EXPORT ORDINAL="1182" NAME="?getLimit@Calendar@icu_44@@MBEHW4UCalendarDateFields@@W4ELimitType@12@@Z" PURGE="8" COMMENT="" />
    <EXPORT ORDINAL="1183" NAME="?getLimits@ChoiceFormat@icu_44@@UBEPBNAAH@Z" PURGE="4" COMMENT="" />
    <EXPORT ORDINAL="1184" NAME="?getLocalDOW@Calendar@icu_44@@IAEHXZ" PURGE="0" COMMENT="" />
    <EXPORT ORDINAL="1185" NAME="?getLocalDelta@RuleBasedTimeZone@icu_44@@ABEHHHHHHH@Z" PURGE="24" COMMENT="" />
    <EXPORT ORDINAL="1186" NAME="?getLocalPatternChars@DateFormatSymbols@icu_44@@QBEAAVUnicodeString@2@AAV32@@Z" PURGE="4" COMMENT="" />
    <EXPORT ORDINAL="1187" NAME="?getLocalSidereal@CalendarAstronomer@icu_44@@QAENXZ" PURGE="0" COMMENT="" />
    <EXPORT ORDINAL="1188" NAME="?getLocale@Calendar@icu_44@@QBE?AVLocale@2@W4ULocDataLocaleType@@AAW4UErrorCode@@@Z" PURGE="12" COMMENT="" />
    <EXPORT ORDINAL="1189" NAME="?getLocale@CurrencyPluralInfo@icu_44@@QBEABVLocale@2@XZ" PURGE="0" COMMENT="" />
    <EXPORT ORDINAL="1190" NAME="?getLocale@DateFormatSymbols@icu_44@@QBE?AVLocale@2@W4ULocDataLocaleType@@AAW4UErrorCode@@@Z" PURGE="12" COMMENT="" />
    <EXPORT ORDINAL="1191" NAME="?getLocale@DecimalFormatSymbols@icu_44@@QBE?AVLocale@2@W4ULocDataLocaleType@@AAW4UErrorCode@@@Z" PURGE="12" COMMENT="" />
    <EXPORT ORDINAL="1192" NAME="?getLocale@DecimalFormatSymbols@icu_44@@QBE?AVLocale@2@XZ" PURGE="4" COMMENT="" />
    <EXPORT ORDINAL="1193" NAME="?getLocale@Format@icu_44@@QBE?AVLocale@2@W4ULocDataLocaleType@@AAW4UErrorCode@@@Z" PURGE="12" COMMENT="" />
    <EXPORT ORDINAL="1194" NAME="?getLocale@MessageFormat@icu_44@@UBEABVLocale@2@XZ" PURGE="0" COMMENT="" />
    <EXPORT ORDINAL="1195" NAME="?getLocale@RuleBasedCollator@icu_44@@UBE?BVLocale@2@W4ULocDataLocaleType@@AAW4UErrorCode@@@Z" PURGE="12" COMMENT="" />
    <EXPORT ORDINAL="1196" NAME="?getLocaleID@Calendar@icu_44@@QBEPBDW4ULocDataLocaleType@@AAW4UErrorCode@@@Z" PURGE="8" COMMENT="" />
    <EXPORT ORDINAL="1197" NAME="?getLocaleID@Format@icu_44@@QBEPBDW4ULocDataLocaleType@@AAW4UErrorCode@@@Z" PURGE="8" COMMENT="" />
    <EXPORT ORDINAL="1198" NAME="?getLong@DigitList@icu_44@@QAEHXZ" PURGE="0" COMMENT="" />
    <EXPORT ORDINAL="1199" NAME="?getLong@Formattable@icu_44@@QBEHAAW4UErrorCode@@@Z" PURGE="4" COMMENT="" />
    <EXPORT ORDINAL="1200" NAME="?getLong@Formattable@icu_44@@QBEHPAW4UErrorCode@@@Z" PURGE="4" COMMENT="" />
    <EXPORT ORDINAL="1201" NAME="?getLong@Formattable@icu_44@@QBEHXZ" PURGE="0" COMMENT="" />
    <EXPORT ORDINAL="1202" NAME="?getMatchCallback@RegexMatcher@icu_44@@UAEXAAP6ACPBXH@ZAAPBXAAW4UErrorCode@@@Z" PURGE="12" COMMENT="" />
    <EXPORT ORDINAL="1203" NAME="?getMatchedLength@SearchIterator@icu_44@@QBEHXZ" PURGE="0" COMMENT="" />
    <EXPORT ORDINAL="1204" NAME="?getMatchedStart@SearchIterator@icu_44@@QBEHXZ" PURGE="0" COMMENT="" />
    <EXPORT ORDINAL="1205" NAME="?getMatchedText@SearchIterator@icu_44@@QBEXAAVUnicodeString@2@@Z" PURGE="4" COMMENT="" />
    <EXPORT ORDINAL="1206" NAME="?getMaxExpansion@CollationElementIterator@icu_44@@QBEHH@Z" PURGE="4" COMMENT="" />
    <EXPORT ORDINAL="1207" NAME="?getMaxExpansion@RuleBasedCollator@icu_44@@QBEHH@Z" PURGE="4" COMMENT="" />
    <EXPORT ORDINAL="1208" NAME="?getMaximum@Calendar@icu_44@@UBEHW4EDateFields@12@@Z" PURGE="4" COMMENT="" />
    <EXPORT ORDINAL="1209" NAME="?getMaximum@Calendar@icu_44@@UBEHW4UCalendarDateFields@@@Z" PURGE="4" COMMENT="" />
    <EXPORT ORDINAL="1210" NAME="?getMaximumContextLength@Transliterator@icu_44@@QBEHXZ" PURGE="0" COMMENT="" />
    <EXPORT ORDINAL="1211" NAME="?getMaximumFractionDigits@NumberFormat@icu_44@@QBEHXZ" PURGE="0" COMMENT="" />
    <EXPORT ORDINAL="1212" NAME="?getMaximumIntegerDigits@NumberFormat@icu_44@@QBEHXZ" PURGE="0" COMMENT="" />
    <EXPORT ORDINAL="1213" NAME="?getMaximumSignificantDigits@DecimalFormat@icu_44@@QBEHXZ" PURGE="0" COMMENT="" />
    <EXPORT ORDINAL="1214" NAME="?getMetazoneID@ZoneMeta@icu_44@@SAAAVUnicodeString@2@ABV32@NAAV32@@Z" PURGE="0" COMMENT="" />
    <EXPORT ORDINAL="1215" NAME="?getMetazoneMappings@ZoneMeta@icu_44@@SAPBVUVector@2@ABVUnicodeString@2@@Z" PURGE="0" COMMENT="" />
    <EXPORT ORDINAL="1216" NAME="?getMinimalDaysInFirstWeek@Calendar@icu_44@@QBEEXZ" PURGE="0" COMMENT="" />
    <EXPORT ORDINAL="1217" NAME="?getMinimum@Calendar@icu_44@@UBEHW4EDateFields@12@@Z" PURGE="4" COMMENT="" />
    <EXPORT ORDINAL="1218" NAME="?getMinimum@Calendar@icu_44@@UBEHW4UCalendarDateFields@@@Z" PURGE="4" COMMENT="" />
    <EXPORT ORDINAL="1219" NAME="?getMinimumExponentDigits@DecimalFormat@icu_44@@UBECXZ" PURGE="0" COMMENT="" />
    <EXPORT ORDINAL="1220" NAME="?getMinimumFractionDigits@NumberFormat@icu_44@@QBEHXZ" PURGE="0" COMMENT="" />
    <EXPORT ORDINAL="1221" NAME="?getMinimumIntegerDigits@NumberFormat@icu_44@@QBEHXZ" PURGE="0" COMMENT="" />
    <EXPORT ORDINAL="1222" NAME="?getMinimumSignificantDigits@DecimalFormat@icu_44@@QBEHXZ" PURGE="0" COMMENT="" />
    <EXPORT ORDINAL="1223" NAME="?getMonths@DateFormatSymbols@icu_44@@QBEPBVUnicodeString@2@AAH@Z" PURGE="4" COMMENT="" />
    <EXPORT ORDINAL="1224" NAME="?getMonths@DateFormatSymbols@icu_44@@QBEPBVUnicodeString@2@AAHW4DtContextType@12@W4DtWidthType@12@@Z" PURGE="12" COMMENT="" />
    <EXPORT ORDINAL="1225" NAME="?getMoonAge@CalendarAstronomer@icu_44@@QAENXZ" PURGE="0" COMMENT="" />
    <EXPORT ORDINAL="1226" NAME="?getMoonPhase@CalendarAstronomer@icu_44@@QAENXZ" PURGE="0" COMMENT="" />
    <EXPORT ORDINAL="1227" NAME="?getMoonPosition@CalendarAstronomer@icu_44@@QAEABVEquatorial@12@XZ" PURGE="0" COMMENT="" />
    <EXPORT ORDINAL="1228" NAME="?getMoonRiseSet@CalendarAstronomer@icu_44@@QAENC@Z" PURGE="4" COMMENT="" />
    <EXPORT ORDINAL="1229" NAME="?getMoonTime@CalendarAstronomer@icu_44@@QAENABVMoonAge@12@C@Z" PURGE="8" COMMENT="" />
    <EXPORT ORDINAL="1230" NAME="?getMoonTime@CalendarAstronomer@icu_44@@QAENNC@Z" PURGE="12" COMMENT="" />
    <EXPORT ORDINAL="1231" NAME="?getMultiplier@DecimalFormat@icu_44@@QBEHXZ" PURGE="0" COMMENT="" />
    <EXPORT ORDINAL="1232" NAME="?getName@TimeZoneRule@icu_44@@QBEAAVUnicodeString@2@AAV32@@Z" PURGE="4" COMMENT="" />
    <EXPORT ORDINAL="1233" NAME="?getNarrowEras@DateFormatSymbols@icu_44@@QBEPBVUnicodeString@2@AAH@Z" PURGE="4" COMMENT="" />
    <EXPORT ORDINAL="1234" NAME="?getNegativePrefix@DecimalFormat@icu_44@@QBEAAVUnicodeString@2@AAV32@@Z" PURGE="4" COMMENT="" />
    <EXPORT ORDINAL="1235" NAME="?getNegativeSuffix@DecimalFormat@icu_44@@QBEAAVUnicodeString@2@AAV32@@Z" PURGE="4" COMMENT="" />
    <EXPORT ORDINAL="1236" NAME="?getNextLocale@PluralRules@icu_44@@AAEXABVUnicodeString@2@PAHAAV32@@Z" PURGE="12" COMMENT="" />
    <EXPORT ORDINAL="1237" NAME="?getNextStart@AnnualTimeZoneRule@icu_44@@UBECNHHCAAN@Z" PURGE="24" COMMENT="" />
    <EXPORT ORDINAL="1238" NAME="?getNextStart@InitialTimeZoneRule@icu_44@@UBECNHHCAAN@Z" PURGE="24" COMMENT="" />
    <EXPORT ORDINAL="1239" NAME="?getNextStart@TimeArrayTimeZoneRule@icu_44@@UBECNHHCAAN@Z" PURGE="24" COMMENT="" />
    <EXPORT ORDINAL="1240" NAME="?getNextTransition@RuleBasedTimeZone@icu_44@@UAECNCAAVTimeZoneTransition@2@@Z" PURGE="16" COMMENT="" />
    <EXPORT ORDINAL="1241" NAME="?getNextTransition@SimpleTimeZone@icu_44@@UAECNCAAVTimeZoneTransition@2@@Z" PURGE="16" COMMENT="" />
    <EXPORT ORDINAL="1242" NAME="?getNextTransition@VTimeZone@icu_44@@UAECNCAAVTimeZoneTransition@2@@Z" PURGE="16" COMMENT="" />
    <EXPORT ORDINAL="1243" NAME="?getNow@Calendar@icu_44@@SANXZ" PURGE="0" COMMENT="" />
    <EXPORT ORDINAL="1244" NAME="?getNumber@Measure@icu_44@@QBEABVFormattable@2@XZ" PURGE="0" COMMENT="" />
    <EXPORT ORDINAL="1245" NAME="?getNumberFormat@DateFormat@icu_44@@UBEPBVNumberFormat@2@XZ" PURGE="0" COMMENT="" />
    <EXPORT ORDINAL="1246" NAME="?getNumberFormat@SimpleDateFormat@icu_44@@ABEPAVNumberFormat@2@W4UDateFormatField@@@Z" PURGE="4" COMMENT="" />
    <EXPORT ORDINAL="1247" NAME="?getNumberOfRuleSetDisplayNameLocales@RuleBasedNumberFormat@icu_44@@UBEHXZ" PURGE="0" COMMENT="" />
    <EXPORT ORDINAL="1248" NAME="?getNumberOfRuleSetNames@RuleBasedNumberFormat@icu_44@@UBEHXZ" PURGE="0" COMMENT="" />
    <EXPORT ORDINAL="1249" NAME="?getNumberValue@PluralRules@icu_44@@ABEHABVUnicodeString@2@@Z" PURGE="4" COMMENT="" />
    <EXPORT ORDINAL="1250" NAME="?getObject@Formattable@icu_44@@QBEPBVUObject@2@XZ" PURGE="0" COMMENT="" />
    <EXPORT ORDINAL="1251" NAME="?getOffset@CollationElementIterator@icu_44@@QBEHXZ" PURGE="0" COMMENT="" />
    <EXPORT ORDINAL="1252" NAME="?getOffset@RuleBasedTimeZone@icu_44@@UBEHEHHHEHAAW4UErrorCode@@@Z" PURGE="28" COMMENT="" />
    <EXPORT ORDINAL="1253" NAME="?getOffset@RuleBasedTimeZone@icu_44@@UBEHEHHHEHHAAW4UErrorCode@@@Z" PURGE="32" COMMENT="" />
    <EXPORT ORDINAL="1254" NAME="?getOffset@RuleBasedTimeZone@icu_44@@UBEXNCAAH0AAW4UErrorCode@@@Z" PURGE="24" COMMENT="" />
    <EXPORT ORDINAL="1255" NAME="?getOffset@SimpleTimeZone@icu_44@@UBEHEHHHEHAAW4UErrorCode@@@Z" PURGE="28" COMMENT="" />
    <EXPORT ORDINAL="1256" NAME="?getOffset@SimpleTimeZone@icu_44@@UBEHEHHHEHHAAW4UErrorCode@@@Z" PURGE="32" COMMENT="" />
    <EXPORT ORDINAL="1257" NAME="?getOffset@SimpleTimeZone@icu_44@@UBEHEHHHEHHHAAW4UErrorCode@@@Z" PURGE="36" COMMENT="" />
    <EXPORT ORDINAL="1258" NAME="?getOffset@SimpleTimeZone@icu_44@@UBEXNCAAH0AAW4UErrorCode@@@Z" PURGE="24" COMMENT="" />
    <EXPORT ORDINAL="1259" NAME="?getOffset@StringSearch@icu_44@@UBEHXZ" PURGE="0" COMMENT="" />
    <EXPORT ORDINAL="1260" NAME="?getOffset@TimeZone@icu_44@@UBEXNCAAH0AAW4UErrorCode@@@Z" PURGE="24" COMMENT="" />
    <EXPORT ORDINAL="1261" NAME="?getOffset@VTimeZone@icu_44@@UBEHEHHHEHAAW4UErrorCode@@@Z" PURGE="28" COMMENT="" />
    <EXPORT ORDINAL="1262" NAME="?getOffset@VTimeZone@icu_44@@UBEHEHHHEHHAAW4UErrorCode@@@Z" PURGE="32" COMMENT="" />
    <EXPORT ORDINAL="1263" NAME="?getOffset@VTimeZone@icu_44@@UBEXNCAAH0AAW4UErrorCode@@@Z" PURGE="24" COMMENT="" />
    <EXPORT ORDINAL="1264" NAME="?getOffsetFromLocal@BasicTimeZone@icu_44@@UAEXNHHAAH0AAW4UErrorCode@@@Z" PURGE="28" COMMENT="" />
    <EXPORT ORDINAL="1265" NAME="?getOffsetFromLocal@RuleBasedTimeZone@icu_44@@UAEXNHHAAH0AAW4UErrorCode@@@Z" PURGE="28" COMMENT="" />
    <EXPORT ORDINAL="1266" NAME="?getOffsetFromLocal@SimpleTimeZone@icu_44@@UAEXNHHAAH0AAW4UErrorCode@@@Z" PURGE="28" COMMENT="" />
    <EXPORT ORDINAL="1267" NAME="?getOffsetInternal@RuleBasedTimeZone@icu_44@@ABEXNCHHAAH0AAW4UErrorCode@@@Z" PURGE="32" COMMENT="" />
    <EXPORT ORDINAL="1268" NAME="?getPadCharacterString@DecimalFormat@icu_44@@UBE?AVUnicodeString@2@XZ" PURGE="4" COMMENT="" />
    <EXPORT ORDINAL="1269" NAME="?getPadPosition@DecimalFormat@icu_44@@UBE?AW4EPadPosition@12@XZ" PURGE="0" COMMENT="" />
    <EXPORT ORDINAL="1270" NAME="?getPattern@StringSearch@icu_44@@QBEABVUnicodeString@2@XZ" PURGE="0" COMMENT="" />
    <EXPORT ORDINAL="1271" NAME="?getPatternCEs@BoyerMooreSearch@icu_44@@QAEPAVCEList@2@XZ" PURGE="0" COMMENT="" />
    <EXPORT ORDINAL="1272" NAME="?getPatternForCurrencySpacing@DecimalFormatSymbols@icu_44@@QBEABVUnicodeString@2@W4ECurrencySpacing@12@CAAW4UErrorCode@@@Z" PURGE="12" COMMENT="" />
    <EXPORT ORDINAL="1273" NAME="?getPatternForSkeleton@DateTimePatternGenerator@icu_44@@QBEABVUnicodeString@2@ABV32@@Z" PURGE="4" COMMENT="" />
    <EXPORT ORDINAL="1274" NAME="?getPatternUChars@DateFormatSymbols@icu_44@@SAPB_WXZ" PURGE="0" COMMENT="" />
    <EXPORT ORDINAL="1275" NAME="?getPluralRules@CurrencyPluralInfo@icu_44@@QBEPBVPluralRules@2@XZ" PURGE="0" COMMENT="" />
    <EXPORT ORDINAL="1276" NAME="?getPositivePrefix@DecimalFormat@icu_44@@QBEAAVUnicodeString@2@AAV32@@Z" PURGE="4" COMMENT="" />
    <EXPORT ORDINAL="1277" NAME="?getPositiveSuffix@DecimalFormat@icu_44@@QBEAAVUnicodeString@2@AAV32@@Z" PURGE="4" COMMENT="" />
    <EXPORT ORDINAL="1278" NAME="?getPreviousStart@AnnualTimeZoneRule@icu_44@@UBECNHHCAAN@Z" PURGE="24" COMMENT="" />
    <EXPORT ORDINAL="1279" NAME="?getPreviousStart@InitialTimeZoneRule@icu_44@@UBECNHHCAAN@Z" PURGE="24" COMMENT="" />
    <EXPORT ORDINAL="1280" NAME="?getPreviousStart@TimeArrayTimeZoneRule@icu_44@@UBECNHHCAAN@Z" PURGE="24" COMMENT="" />
    <EXPORT ORDINAL="1281" NAME="?getPreviousTransition@RuleBasedTimeZone@icu_44@@UAECNCAAVTimeZoneTransition@2@@Z" PURGE="16" COMMENT="" />
    <EXPORT ORDINAL="1282" NAME="?getPreviousTransition@SimpleTimeZone@icu_44@@UAECNCAAVTimeZoneTransition@2@@Z" PURGE="16" COMMENT="" />
    <EXPORT ORDINAL="1283" NAME="?getPreviousTransition@VTimeZone@icu_44@@UAECNCAAVTimeZoneTransition@2@@Z" PURGE="16" COMMENT="" />
    <EXPORT ORDINAL="1284" NAME="?getQuarters@DateFormatSymbols@icu_44@@QBEPBVUnicodeString@2@AAHW4DtContextType@12@W4DtWidthType@12@@Z" PURGE="12" COMMENT="" />
    <EXPORT ORDINAL="1285" NAME="?getRadix@NumberingSystem@icu_44@@QAEHXZ" PURGE="0" COMMENT="" />
    <EXPORT ORDINAL="1286" NAME="?getRawOffset@RuleBasedTimeZone@icu_44@@UBEHXZ" PURGE="0" COMMENT="" />
    <EXPORT ORDINAL="1287" NAME="?getRawOffset@SimpleTimeZone@icu_44@@UBEHXZ" PURGE="0" COMMENT="" />
    <EXPORT ORDINAL="1288" NAME="?getRawOffset@TimeZoneRule@icu_44@@QBEHXZ" PURGE="0" COMMENT="" />
    <EXPORT ORDINAL="1289" NAME="?getRawOffset@VTimeZone@icu_44@@UBEHXZ" PURGE="0" COMMENT="" />
    <EXPORT ORDINAL="1290" NAME="?getRedundants@DateTimePatternGenerator@icu_44@@QAEPAVStringEnumeration@2@AAW4UErrorCode@@@Z" PURGE="4" COMMENT="" />
    <EXPORT ORDINAL="1291" NAME="?getRegion@TimeZone@icu_44@@CAPB_WABVUnicodeString@2@@Z" PURGE="0" COMMENT="" />
    <EXPORT ORDINAL="1292" NAME="?getRepeatLimit@PluralRules@icu_44@@ABEHXZ" PURGE="0" COMMENT="" />
    <EXPORT ORDINAL="1293" NAME="?getRoundingIncrement@DecimalFormat@icu_44@@UBENXZ" PURGE="0" COMMENT="" />
    <EXPORT ORDINAL="1294" NAME="?getRoundingMode@DecimalFormat@icu_44@@UBE?AW4ERoundingMode@12@XZ" PURGE="0" COMMENT="" />
    <EXPORT ORDINAL="1295" NAME="?getRule@AnnualTimeZoneRule@icu_44@@QBEPBVDateTimeRule@2@XZ" PURGE="0" COMMENT="" />
    <EXPORT ORDINAL="1296" NAME="?getRuleDayOfMonth@DateTimeRule@icu_44@@QBEHXZ" PURGE="0" COMMENT="" />
    <EXPORT ORDINAL="1297" NAME="?getRuleDayOfWeek@DateTimeRule@icu_44@@QBEHXZ" PURGE="0" COMMENT="" />
    <EXPORT ORDINAL="1298" NAME="?getRuleFromResource@PluralRules@icu_44@@AAE?AVUnicodeString@2@ABVLocale@2@AAW4UErrorCode@@@Z" PURGE="12" COMMENT="" />
    <EXPORT ORDINAL="1299" NAME="?getRuleMillisInDay@DateTimeRule@icu_44@@QBEHXZ" PURGE="0" COMMENT="" />
    <EXPORT ORDINAL="1300" NAME="?getRuleMonth@DateTimeRule@icu_44@@QBEHXZ" PURGE="0" COMMENT="" />
    <EXPORT ORDINAL="1301" NAME="?getRuleSetDisplayName@RuleBasedNumberFormat@icu_44@@UAE?AVUnicodeString@2@ABV32@ABVLocale@2@@Z" PURGE="12" COMMENT="" />
    <EXPORT ORDINAL="1302" NAME="?getRuleSetDisplayName@RuleBasedNumberFormat@icu_44@@UAE?AVUnicodeString@2@HABVLocale@2@@Z" PURGE="12" COMMENT="" />
    <EXPORT ORDINAL="1303" NAME="?getRuleSetDisplayNameLocale@RuleBasedNumberFormat@icu_44@@UBE?AVLocale@2@HAAW4UErrorCode@@@Z" PURGE="12" COMMENT="" />
    <EXPORT ORDINAL="1304" NAME="?getRuleSetName@RuleBasedNumberFormat@icu_44@@UBE?AVUnicodeString@2@H@Z" PURGE="8" COMMENT="" />
    <EXPORT ORDINAL="1305" NAME="?getRuleWeekInMonth@DateTimeRule@icu_44@@QBEHXZ" PURGE="0" COMMENT="" />
    <EXPORT ORDINAL="1306" NAME="?getRules@RuleBasedCollator@icu_44@@QAEXW4UColRuleOption@@AAVUnicodeString@2@@Z" PURGE="8" COMMENT="" />
    <EXPORT ORDINAL="1307" NAME="?getRules@RuleBasedCollator@icu_44@@QBEABVUnicodeString@2@XZ" PURGE="0" COMMENT="" />
    <EXPORT ORDINAL="1308" NAME="?getRules@RuleBasedNumberFormat@icu_44@@UBE?AVUnicodeString@2@XZ" PURGE="4" COMMENT="" />
    <EXPORT ORDINAL="1309" NAME="?getSecondaryGroupingSize@DecimalFormat@icu_44@@QBEHXZ" PURGE="0" COMMENT="" />
    <EXPORT ORDINAL="1310" NAME="?getShortMonths@DateFormatSymbols@icu_44@@QBEPBVUnicodeString@2@AAH@Z" PURGE="4" COMMENT="" />
    <EXPORT ORDINAL="1311" NAME="?getShortWeekdays@DateFormatSymbols@icu_44@@QBEPBVUnicodeString@2@AAH@Z" PURGE="4" COMMENT="" />
    <EXPORT ORDINAL="1312" NAME="?getSiderealOffset@CalendarAstronomer@icu_44@@AAENXZ" PURGE="0" COMMENT="" />
    <EXPORT ORDINAL="1313" NAME="?getSimpleRulesNear@BasicTimeZone@icu_44@@UAEXNAAPAVInitialTimeZoneRule@2@AAPAVAnnualTimeZoneRule@2@1AAW4UErrorCode@@@Z" PURGE="24" COMMENT="" />
    <EXPORT ORDINAL="1314" NAME="?getSingleCountry@ZoneMeta@icu_44@@SAAAVUnicodeString@2@ABV32@AAV32@@Z" PURGE="0" COMMENT="" />
    <EXPORT ORDINAL="1315" NAME="?getSkeleton@DateTimePatternGenerator@icu_44@@QAE?AVUnicodeString@2@ABV32@AAW4UErrorCode@@@Z" PURGE="12" COMMENT="" />
    <EXPORT ORDINAL="1316" NAME="?getSkeletons@DateTimePatternGenerator@icu_44@@QBEPAVStringEnumeration@2@AAW4UErrorCode@@@Z" PURGE="4" COMMENT="" />
    <EXPORT ORDINAL="1317" NAME="?getSmpFmtLocale@SimpleDateFormat@icu_44@@QBEABVLocale@2@XZ" PURGE="0" COMMENT="" />
    <EXPORT ORDINAL="1318" NAME="?getSortKey@RuleBasedCollator@icu_44@@UBEHABVUnicodeString@2@PAEH@Z" PURGE="12" COMMENT="" />
    <EXPORT ORDINAL="1319" NAME="?getSortKey@RuleBasedCollator@icu_44@@UBEHPB_WHPAEH@Z" PURGE="16" COMMENT="" />
    <EXPORT ORDINAL="1320" NAME="?getSourceSet@Transliterator@icu_44@@QBEAAVUnicodeSet@2@AAV32@@Z" PURGE="4" COMMENT="" />
    <EXPORT ORDINAL="1321" NAME="?getStackLimit@RegexMatcher@icu_44@@UBEHXZ" PURGE="0" COMMENT="" />
    <EXPORT ORDINAL="1322" NAME="?getStartInYear@AnnualTimeZoneRule@icu_44@@QBECHHHAAN@Z" PURGE="16" COMMENT="" />
    <EXPORT ORDINAL="1323" NAME="?getStartTimeAt@TimeArrayTimeZoneRule@icu_44@@QBECHAAN@Z" PURGE="8" COMMENT="" />
    <EXPORT ORDINAL="1324" NAME="?getStartYear@AnnualTimeZoneRule@icu_44@@QBEHXZ" PURGE="0" COMMENT="" />
    <EXPORT ORDINAL="1325" NAME="?getStaticClassID@AnnualTimeZoneRule@icu_44@@SAPAXXZ" PURGE="0" COMMENT="" />
    <EXPORT ORDINAL="1326" NAME="?getStaticClassID@AnyTransliterator@icu_44@@SAPAXXZ" PURGE="0" COMMENT="" />
    <EXPORT ORDINAL="1327" NAME="?getStaticClassID@BoyerMooreSearch@icu_44@@SAPAXXZ" PURGE="0" COMMENT="" />
    <EXPORT ORDINAL="1328" NAME="?getStaticClassID@BreakTransliterator@icu_44@@SAPAXXZ" PURGE="0" COMMENT="" />
    <EXPORT ORDINAL="1329" NAME="?getStaticClassID@BuddhistCalendar@icu_44@@SAPAXXZ" PURGE="0" COMMENT="" />
    <EXPORT ORDINAL="1330" NAME="?getStaticClassID@CEList@icu_44@@SAPAXXZ" PURGE="0" COMMENT="" />
    <EXPORT ORDINAL="1331" NAME="?getStaticClassID@CaseMapTransliterator@icu_44@@SAPAXXZ" PURGE="0" COMMENT="" />
    <EXPORT ORDINAL="1332" NAME="?getStaticClassID@ChineseCalendar@icu_44@@SAPAXXZ" PURGE="0" COMMENT="" />
    <EXPORT ORDINAL="1333" NAME="?getStaticClassID@ChoiceFormat@icu_44@@SAPAXXZ" PURGE="0" COMMENT="" />
    <EXPORT ORDINAL="1334" NAME="?getStaticClassID@CollData@icu_44@@SAPAXXZ" PURGE="0" COMMENT="" />
    <EXPORT ORDINAL="1335" NAME="?getStaticClassID@CollationElementIterator@icu_44@@SAPAXXZ" PURGE="0" COMMENT="" />
    <EXPORT ORDINAL="1336" NAME="?getStaticClassID@CollationKey@icu_44@@SAPAXXZ" PURGE="0" COMMENT="" />
    <EXPORT ORDINAL="1337" NAME="?getStaticClassID@CompoundTransliterator@icu_44@@SAPAXXZ" PURGE="0" COMMENT="" />
    <EXPORT ORDINAL="1338" NAME="?getStaticClassID@CopticCalendar@icu_44@@SAPAXXZ" PURGE="0" COMMENT="" />
    <EXPORT ORDINAL="1339" NAME="?getStaticClassID@CurrencyAmount@icu_44@@SAPAXXZ" PURGE="0" COMMENT="" />
    <EXPORT ORDINAL="1340" NAME="?getStaticClassID@CurrencyPluralInfo@icu_44@@SAPAXXZ" PURGE="0" COMMENT="" />
    <EXPORT ORDINAL="1341" NAME="?getStaticClassID@CurrencyUnit@icu_44@@SAPAXXZ" PURGE="0" COMMENT="" />
    <EXPORT ORDINAL="1342" NAME="?getStaticClassID@DateFormatSymbols@icu_44@@SAPAXXZ" PURGE="0" COMMENT="" />
    <EXPORT ORDINAL="1343" NAME="?getStaticClassID@DateIntervalFormat@icu_44@@SAPAXXZ" PURGE="0" COMMENT="" />
    <EXPORT ORDINAL="1344" NAME="?getStaticClassID@DateIntervalInfo@icu_44@@SAPAXXZ" PURGE="0" COMMENT="" />
    <EXPORT ORDINAL="1345" NAME="?getStaticClassID@DateTimePatternGenerator@icu_44@@SAPAXXZ" PURGE="0" COMMENT="" />
    <EXPORT ORDINAL="1346" NAME="?getStaticClassID@DateTimeRule@icu_44@@SAPAXXZ" PURGE="0" COMMENT="" />
    <EXPORT ORDINAL="1347" NAME="?getStaticClassID@DecimalFormat@icu_44@@SAPAXXZ" PURGE="0" COMMENT="" />
    <EXPORT ORDINAL="1348" NAME="?getStaticClassID@DecimalFormatSymbols@icu_44@@SAPAXXZ" PURGE="0" COMMENT="" />
    <EXPORT ORDINAL="1349" NAME="?getStaticClassID@EscapeTransliterator@icu_44@@SAPAXXZ" PURGE="0" COMMENT="" />
    <EXPORT ORDINAL="1350" NAME="?getStaticClassID@EthiopicCalendar@icu_44@@SAPAXXZ" PURGE="0" COMMENT="" />
    <EXPORT ORDINAL="1351" NAME="?getStaticClassID@FieldPosition@icu_44@@SAPAXXZ" PURGE="0" COMMENT="" />
    <EXPORT ORDINAL="1352" NAME="?getStaticClassID@FieldPositionIterator@icu_44@@SAPAXXZ" PURGE="0" COMMENT="" />
    <EXPORT ORDINAL="1353" NAME="?getStaticClassID@Formattable@icu_44@@SAPAXXZ" PURGE="0" COMMENT="" />
    <EXPORT ORDINAL="1354" NAME="?getStaticClassID@GregorianCalendar@icu_44@@SAPAXXZ" PURGE="0" COMMENT="" />
    <EXPORT ORDINAL="1355" NAME="?getStaticClassID@HebrewCalendar@icu_44@@SAPAXXZ" PURGE="0" COMMENT="" />
    <EXPORT ORDINAL="1356" NAME="?getStaticClassID@IndianCalendar@icu_44@@SAPAXXZ" PURGE="0" COMMENT="" />
    <EXPORT ORDINAL="1357" NAME="?getStaticClassID@InitialTimeZoneRule@icu_44@@SAPAXXZ" PURGE="0" COMMENT="" />
    <EXPORT ORDINAL="1358" NAME="?getStaticClassID@IslamicCalendar@icu_44@@SAPAXXZ" PURGE="0" COMMENT="" />
    <EXPORT ORDINAL="1359" NAME="?getStaticClassID@JapaneseCalendar@icu_44@@SAPAXXZ" PURGE="0" COMMENT="" />
    <EXPORT ORDINAL="1360" NAME="?getStaticClassID@LocaleDisplayNames@icu_44@@SAPAXXZ" PURGE="0" COMMENT="" />
    <EXPORT ORDINAL="1361" NAME="?getStaticClassID@LowercaseTransliterator@icu_44@@SAPAXXZ" PURGE="0" COMMENT="" />
    <EXPORT ORDINAL="1362" NAME="?getStaticClassID@MessageFormat@icu_44@@SAPAXXZ" PURGE="0" COMMENT="" />
    <EXPORT ORDINAL="1363" NAME="?getStaticClassID@NameUnicodeTransliterator@icu_44@@SAPAXXZ" PURGE="0" COMMENT="" />
    <EXPORT ORDINAL="1364" NAME="?getStaticClassID@NormalizationTransliterator@icu_44@@SAPAXXZ" PURGE="0" COMMENT="" />
    <EXPORT ORDINAL="1365" NAME="?getStaticClassID@NullTransliterator@icu_44@@SAPAXXZ" PURGE="0" COMMENT="" />
    <EXPORT ORDINAL="1366" NAME="?getStaticClassID@NumberFormat@icu_44@@SAPAXXZ" PURGE="0" COMMENT="" />
    <EXPORT ORDINAL="1367" NAME="?getStaticClassID@NumberingSystem@icu_44@@SAPAXXZ" PURGE="0" COMMENT="" />
    <EXPORT ORDINAL="1368" NAME="?getStaticClassID@OlsonTimeZone@icu_44@@SAPAXXZ" PURGE="0" COMMENT="" />
    <EXPORT ORDINAL="1369" NAME="?getStaticClassID@PersianCalendar@icu_44@@SAPAXXZ" PURGE="0" COMMENT="" />
    <EXPORT ORDINAL="1370" NAME="?getStaticClassID@PluralFormat@icu_44@@SAPAXXZ" PURGE="0" COMMENT="" />
    <EXPORT ORDINAL="1371" NAME="?getStaticClassID@PluralRules@icu_44@@SAPAXXZ" PURGE="0" COMMENT="" />
    <EXPORT ORDINAL="1372" NAME="?getStaticClassID@RegexMatcher@icu_44@@SAPAXXZ" PURGE="0" COMMENT="" />
    <EXPORT ORDINAL="1373" NAME="?getStaticClassID@RegexPattern@icu_44@@SAPAXXZ" PURGE="0" COMMENT="" />
    <EXPORT ORDINAL="1374" NAME="?getStaticClassID@RelativeDateFormat@icu_44@@SAPAXXZ" PURGE="0" COMMENT="" />
    <EXPORT ORDINAL="1375" NAME="?getStaticClassID@RemoveTransliterator@icu_44@@SAPAXXZ" PURGE="0" COMMENT="" />
    <EXPORT ORDINAL="1376" NAME="?getStaticClassID@RuleBasedCollator@icu_44@@SAPAXXZ" PURGE="0" COMMENT="" />
    <EXPORT ORDINAL="1377" NAME="?getStaticClassID@RuleBasedNumberFormat@icu_44@@SAPAXXZ" PURGE="0" COMMENT="" />
    <EXPORT ORDINAL="1378" NAME="?getStaticClassID@RuleBasedTimeZone@icu_44@@SAPAXXZ" PURGE="0" COMMENT="" />
    <EXPORT ORDINAL="1379" NAME="?getStaticClassID@RuleBasedTransliterator@icu_44@@SAPAXXZ" PURGE="0" COMMENT="" />
    <EXPORT ORDINAL="1380" NAME="?getStaticClassID@SelectFormat@icu_44@@SAPAXXZ" PURGE="0" COMMENT="" />
    <EXPORT ORDINAL="1381" NAME="?getStaticClassID@SimpleDateFormat@icu_44@@SAPAXXZ" PURGE="0" COMMENT="" />
    <EXPORT ORDINAL="1382" NAME="?getStaticClassID@SimpleTimeZone@icu_44@@SAPAXXZ" PURGE="0" COMMENT="" />
    <EXPORT ORDINAL="1383" NAME="?getStaticClassID@StringList@icu_44@@SAPAXXZ" PURGE="0" COMMENT="" />
    <EXPORT ORDINAL="1384" NAME="?getStaticClassID@StringSearch@icu_44@@SAPAXXZ" PURGE="0" COMMENT="" />
    <EXPORT ORDINAL="1385" NAME="?getStaticClassID@TaiwanCalendar@icu_44@@SAPAXXZ" PURGE="0" COMMENT="" />
    <EXPORT ORDINAL="1386" NAME="?getStaticClassID@TimeArrayTimeZoneRule@icu_44@@SAPAXXZ" PURGE="0" COMMENT="" />
    <EXPORT ORDINAL="1387" NAME="?getStaticClassID@TimeUnit@icu_44@@SAPAXXZ" PURGE="0" COMMENT="" />
    <EXPORT ORDINAL="1388" NAME="?getStaticClassID@TimeUnitAmount@icu_44@@SAPAXXZ" PURGE="0" COMMENT="" />
    <EXPORT ORDINAL="1389" NAME="?getStaticClassID@TimeUnitFormat@icu_44@@SAPAXXZ" PURGE="0" COMMENT="" />
    <EXPORT ORDINAL="1390" NAME="?getStaticClassID@TimeZone@icu_44@@SAPAXXZ" PURGE="0" COMMENT="" />
    <EXPORT ORDINAL="1391" NAME="?getStaticClassID@TimeZoneTransition@icu_44@@SAPAXXZ" PURGE="0" COMMENT="" />
    <EXPORT ORDINAL="1392" NAME="?getStaticClassID@TitlecaseTransliterator@icu_44@@SAPAXXZ" PURGE="0" COMMENT="" />
    <EXPORT ORDINAL="1393" NAME="?getStaticClassID@Transliterator@icu_44@@SAPAXXZ" PURGE="0" COMMENT="" />
    <EXPORT ORDINAL="1394" NAME="?getStaticClassID@UnescapeTransliterator@icu_44@@SAPAXXZ" PURGE="0" COMMENT="" />
    <EXPORT ORDINAL="1395" NAME="?getStaticClassID@UnicodeNameTransliterator@icu_44@@SAPAXXZ" PURGE="0" COMMENT="" />
    <EXPORT ORDINAL="1396" NAME="?getStaticClassID@UppercaseTransliterator@icu_44@@SAPAXXZ" PURGE="0" COMMENT="" />
    <EXPORT ORDINAL="1397" NAME="?getStaticClassID@VTimeZone@icu_44@@SAPAXXZ" PURGE="0" COMMENT="" />
    <EXPORT ORDINAL="1398" NAME="?getStaticClassID@Win32DateFormat@icu_44@@SAPAXXZ" PURGE="0" COMMENT="" />
    <EXPORT ORDINAL="1399" NAME="?getStaticClassID@Win32NumberFormat@icu_44@@SAPAXXZ" PURGE="0" COMMENT="" />
    <EXPORT ORDINAL="1400" NAME="?getStrength@RuleBasedCollator@icu_44@@UBE?AW4ECollationStrength@Collator@2@XZ" PURGE="0" COMMENT="" />
    <EXPORT ORDINAL="1401" NAME="?getString@Formattable@icu_44@@QAEAAVUnicodeString@2@AAW4UErrorCode@@@Z" PURGE="4" COMMENT="" />
    <EXPORT ORDINAL="1402" NAME="?getString@Formattable@icu_44@@QAEAAVUnicodeString@2@XZ" PURGE="0" COMMENT="" />
    <EXPORT ORDINAL="1403" NAME="?getString@Formattable@icu_44@@QBEAAVUnicodeString@2@AAV32@@Z" PURGE="4" COMMENT="" />
    <EXPORT ORDINAL="1404" NAME="?getString@Formattable@icu_44@@QBEAAVUnicodeString@2@AAV32@AAW4UErrorCode@@@Z" PURGE="8" COMMENT="" />
    <EXPORT ORDINAL="1405" NAME="?getString@Formattable@icu_44@@QBEABVUnicodeString@2@AAW4UErrorCode@@@Z" PURGE="4" COMMENT="" />
    <EXPORT ORDINAL="1406" NAME="?getString@Formattable@icu_44@@QBEABVUnicodeString@2@XZ" PURGE="0" COMMENT="" />
    <EXPORT ORDINAL="1407" NAME="?getStringList@CollData@icu_44@@QBEPBVStringList@2@H@Z" PURGE="4" COMMENT="" />
    <EXPORT ORDINAL="1408" NAME="?getSunLongitude@CalendarAstronomer@icu_44@@QAENXZ" PURGE="0" COMMENT="" />
    <EXPORT ORDINAL="1409" NAME="?getSunLongitude@CalendarAstronomer@icu_44@@QAEXNAAN0@Z" PURGE="16" COMMENT="" />
    <EXPORT ORDINAL="1410" NAME="?getSunPosition@CalendarAstronomer@icu_44@@QAEAAVEquatorial@12@AAV312@@Z" PURGE="4" COMMENT="" />
    <EXPORT ORDINAL="1411" NAME="?getSunRiseSet@CalendarAstronomer@icu_44@@QAENC@Z" PURGE="4" COMMENT="" />
    <EXPORT ORDINAL="1412" NAME="?getSunTime@CalendarAstronomer@icu_44@@QAENNC@Z" PURGE="12" COMMENT="" />
    <EXPORT ORDINAL="1413" NAME="?getSupportedIDs@SimpleNumberFormatFactory@icu_44@@UBEPBVUnicodeString@2@AAHAAW4UErrorCode@@@Z" PURGE="8" COMMENT="" />
    <EXPORT ORDINAL="1414" NAME="?getSymbol@DecimalFormatSymbols@icu_44@@QBE?AVUnicodeString@2@W4ENumberFormatSymbol@12@@Z" PURGE="8" COMMENT="" />
    <EXPORT ORDINAL="1415" NAME="?getTZDataVersion@TimeZone@icu_44@@SAPBDAAW4UErrorCode@@@Z" PURGE="0" COMMENT="" />
    <EXPORT ORDINAL="1416" NAME="?getTZURL@VTimeZone@icu_44@@QBECAAVUnicodeString@2@@Z" PURGE="4" COMMENT="" />
    <EXPORT ORDINAL="1417" NAME="?getTailoredSet@Collator@icu_44@@UBEPAVUnicodeSet@2@AAW4UErrorCode@@@Z" PURGE="4" COMMENT="" />
    <EXPORT ORDINAL="1418" NAME="?getTailoredSet@RuleBasedCollator@icu_44@@UBEPAVUnicodeSet@2@AAW4UErrorCode@@@Z" PURGE="4" COMMENT="" />
    <EXPORT ORDINAL="1419" NAME="?getTargetSet@CompoundTransliterator@icu_44@@UBEAAVUnicodeSet@2@AAV32@@Z" PURGE="4" COMMENT="" />
    <EXPORT ORDINAL="1420" NAME="?getTargetSet@Transliterator@icu_44@@UBEAAVUnicodeSet@2@AAV32@@Z" PURGE="4" COMMENT="" />
    <EXPORT ORDINAL="1421" NAME="?getText@SearchIterator@icu_44@@QBEABVUnicodeString@2@XZ" PURGE="0" COMMENT="" />
    <EXPORT ORDINAL="1422" NAME="?getTime@Calendar@icu_44@@QBENAAW4UErrorCode@@@Z" PURGE="4" COMMENT="" />
    <EXPORT ORDINAL="1423" NAME="?getTime@CalendarAstronomer@icu_44@@QAENXZ" PURGE="0" COMMENT="" />
    <EXPORT ORDINAL="1424" NAME="?getTime@TimeZoneTransition@icu_44@@QBENXZ" PURGE="0" COMMENT="" />
    <EXPORT ORDINAL="1425" NAME="?getTimeInMillis@Calendar@icu_44@@IBENAAW4UErrorCode@@@Z" PURGE="4" COMMENT="" />
    <EXPORT ORDINAL="1426" NAME="?getTimeLimit@RegexMatcher@icu_44@@UBEHXZ" PURGE="0" COMMENT="" />
    <EXPORT ORDINAL="1427" NAME="?getTimeRuleType@DateTimeRule@icu_44@@QBE?AW4TimeRuleType@12@XZ" PURGE="0" COMMENT="" />
    <EXPORT ORDINAL="1428" NAME="?getTimeType@TimeArrayTimeZoneRule@icu_44@@QBE?AW4TimeRuleType@DateTimeRule@2@XZ" PURGE="0" COMMENT="" />
    <EXPORT ORDINAL="1429" NAME="?getTimeUnit@TimeUnitAmount@icu_44@@QBEABVTimeUnit@2@XZ" PURGE="0" COMMENT="" />
    <EXPORT ORDINAL="1430" NAME="?getTimeUnitField@TimeUnit@icu_44@@QBE?AW4UTimeUnitFields@12@XZ" PURGE="0" COMMENT="" />
    <EXPORT ORDINAL="1431" NAME="?getTimeUnitField@TimeUnitAmount@icu_44@@QBE?AW4UTimeUnitFields@TimeUnit@2@XZ" PURGE="0" COMMENT="" />
    <EXPORT ORDINAL="1432" NAME="?getTimeUnitName@TimeUnitFormat@icu_44@@CAPBDW4UTimeUnitFields@TimeUnit@2@AAW4UErrorCode@@@Z" PURGE="0" COMMENT="" />
    <EXPORT ORDINAL="1433" NAME="?getTimeZone@Calendar@icu_44@@QBEABVTimeZone@2@XZ" PURGE="0" COMMENT="" />
    <EXPORT ORDINAL="1434" NAME="?getTimeZone@DateFormat@icu_44@@UBEABVTimeZone@2@XZ" PURGE="0" COMMENT="" />
    <EXPORT ORDINAL="1435" NAME="?getTimeZoneRules@RuleBasedTimeZone@icu_44@@UAEXAAPBVInitialTimeZoneRule@2@QAPBVTimeZoneRule@2@AAHAAW4UErrorCode@@@Z" PURGE="16" COMMENT="" />
    <EXPORT ORDINAL="1436" NAME="?getTimeZoneRules@SimpleTimeZone@icu_44@@UAEXAAPBVInitialTimeZoneRule@2@QAPBVTimeZoneRule@2@AAHAAW4UErrorCode@@@Z" PURGE="16" COMMENT="" />
    <EXPORT ORDINAL="1437" NAME="?getTimeZoneRules@VTimeZone@icu_44@@UAEXAAPBVInitialTimeZoneRule@2@QAPBVTimeZoneRule@2@AAHAAW4UErrorCode@@@Z" PURGE="16" COMMENT="" />
    <EXPORT ORDINAL="1438" NAME="?getTimeZoneRulesAfter@BasicTimeZone@icu_44@@IAEXNAAPAVInitialTimeZoneRule@2@AAPAVUVector@2@AAW4UErrorCode@@@Z" PURGE="20" COMMENT="" />
    <EXPORT ORDINAL="1439" NAME="?getTo@TimeZoneTransition@icu_44@@QBEPBVTimeZoneRule@2@XZ" PURGE="0" COMMENT="" />
    <EXPORT ORDINAL="1440" NAME="?getTopBitNumber@DateTimePatternGenerator@icu_44@@AAEHH@Z" PURGE="4" COMMENT="" />
    <EXPORT ORDINAL="1441" NAME="?getTransitionTime@RuleBasedTimeZone@icu_44@@ABENPAUTransition@2@CHH@Z" PURGE="16" COMMENT="" />
    <EXPORT ORDINAL="1442" NAME="?getTransliterator@CompoundTransliterator@icu_44@@UBEABVTransliterator@2@H@Z" PURGE="4" COMMENT="" />
    <EXPORT ORDINAL="1443" NAME="?getType@Formattable@icu_44@@QBE?AW4Type@12@XZ" PURGE="0" COMMENT="" />
    <EXPORT ORDINAL="1444" NAME="?getType@GregorianCalendar@icu_44@@UBEPBDXZ" PURGE="0" COMMENT="" />
    <EXPORT ORDINAL="1445" NAME="?getType@HebrewCalendar@icu_44@@UBEPBDXZ" PURGE="0" COMMENT="" />
    <EXPORT ORDINAL="1446" NAME="?getUCollationStrength@RuleBasedCollator@icu_44@@ABE?AW4UColAttributeValue@@ABW4ECollationStrength@Collator@2@@Z" PURGE="4" COMMENT="" />
    <EXPORT ORDINAL="1447" NAME="?getUCollator@RuleBasedCollator@icu_44@@QAEPBUUCollator@@XZ" PURGE="0" COMMENT="" />
    <EXPORT ORDINAL="1448" NAME="?getUTC@TimeArrayTimeZoneRule@icu_44@@ABENNHH@Z" PURGE="16" COMMENT="" />
    <EXPORT ORDINAL="1449" NAME="?getUnit@Measure@icu_44@@QBEABVMeasureUnit@2@XZ" PURGE="0" COMMENT="" />
    <EXPORT ORDINAL="1450" NAME="?getVariableTop@RuleBasedCollator@icu_44@@UBEIAAW4UErrorCode@@@Z" PURGE="4" COMMENT="" />
    <EXPORT ORDINAL="1451" NAME="?getVersion@RuleBasedCollator@icu_44@@UBEXQAE@Z" PURGE="4" COMMENT="" />
    <EXPORT ORDINAL="1452" NAME="?getWeekdays@DateFormatSymbols@icu_44@@QBEPBVUnicodeString@2@AAH@Z" PURGE="4" COMMENT="" />
    <EXPORT ORDINAL="1453" NAME="?getWeekdays@DateFormatSymbols@icu_44@@QBEPBVUnicodeString@2@AAHW4DtContextType@12@W4DtWidthType@12@@Z" PURGE="12" COMMENT="" />
    <EXPORT ORDINAL="1454" NAME="?getWeekendTransition@Calendar@icu_44@@UBEHW4UCalendarDaysOfWeek@@AAW4UErrorCode@@@Z" PURGE="8" COMMENT="" />
    <EXPORT ORDINAL="1455" NAME="?getZoneIdByMetazone@ZoneMeta@icu_44@@SAAAVUnicodeString@2@ABV32@0AAV32@@Z" PURGE="0" COMMENT="" />
    <EXPORT ORDINAL="1456" NAME="?getZoneStringFormat@DateFormatSymbols@icu_44@@ABEPBVZoneStringFormat@2@XZ" PURGE="0" COMMENT="" />
    <EXPORT ORDINAL="1457" NAME="?getZoneStrings@DateFormatSymbols@icu_44@@QBEPAPBVUnicodeString@2@AAH0@Z" PURGE="8" COMMENT="" />
    <EXPORT ORDINAL="1458" NAME="?greater@Collator@icu_44@@QBECABVUnicodeString@2@0@Z" PURGE="8" COMMENT="" />
    <EXPORT ORDINAL="1459" NAME="?greaterOrEqual@Collator@icu_44@@QBECABVUnicodeString@2@0@Z" PURGE="8" COMMENT="" />
    <EXPORT ORDINAL="1460" NAME="?group@RegexMatcher@icu_44@@UBE?AVUnicodeString@2@AAW4UErrorCode@@@Z" PURGE="8" COMMENT="" />
    <EXPORT ORDINAL="1461" NAME="?group@RegexMatcher@icu_44@@UBE?AVUnicodeString@2@HAAW4UErrorCode@@@Z" PURGE="12" COMMENT="" />
    <EXPORT ORDINAL="1462" NAME="?group@RegexMatcher@icu_44@@UBEPAUUText@@HPAU3@AAW4UErrorCode@@@Z" PURGE="12" COMMENT="" />
    <EXPORT ORDINAL="1463" NAME="?group@RegexMatcher@icu_44@@UBEPAUUText@@PAU3@W4MatcherDestIsUTextFlag@12@AAW4UErrorCode@@@Z" PURGE="12" COMMENT="" />
    <EXPORT ORDINAL="1464" NAME="?groupCount@RegexMatcher@icu_44@@UBEHXZ" PURGE="0" COMMENT="" />
    <EXPORT ORDINAL="1465" NAME="?hackTimes@DateTimePatternGenerator@icu_44@@AAEXABVUnicodeString@2@AAW4UErrorCode@@@Z" PURGE="8" COMMENT="" />
    <EXPORT ORDINAL="1466" NAME="?handleComputeFields@Calendar@icu_44@@MAEXHAAW4UErrorCode@@@Z" PURGE="8" COMMENT="" />
    <EXPORT ORDINAL="1467" NAME="?handleComputeFields@GregorianCalendar@icu_44@@MAEXHAAW4UErrorCode@@@Z" PURGE="8" COMMENT="" />
    <EXPORT ORDINAL="1468" NAME="?handleComputeFields@HebrewCalendar@icu_44@@MAEXHAAW4UErrorCode@@@Z" PURGE="8" COMMENT="" />
    <EXPORT ORDINAL="1469" NAME="?handleComputeJulianDay@Calendar@icu_44@@MAEHW4UCalendarDateFields@@@Z" PURGE="4" COMMENT="" />
    <EXPORT ORDINAL="1470" NAME="?handleComputeJulianDay@GregorianCalendar@icu_44@@MAEHW4UCalendarDateFields@@@Z" PURGE="4" COMMENT="" />
    <EXPORT ORDINAL="1471" NAME="?handleComputeMonthStart@CECalendar@icu_44@@MBEHHHC@Z" PURGE="12" COMMENT="" />
    <EXPORT ORDINAL="1472" NAME="?handleComputeMonthStart@GregorianCalendar@icu_44@@MBEHHHC@Z" PURGE="12" COMMENT="" />
    <EXPORT ORDINAL="1473" NAME="?handleComputeMonthStart@HebrewCalendar@icu_44@@MBEHHHC@Z" PURGE="12" COMMENT="" />
    <EXPORT ORDINAL="1474" NAME="?handleGetExtendedYear@GregorianCalendar@icu_44@@MAEHXZ" PURGE="0" COMMENT="" />
    <EXPORT ORDINAL="1475" NAME="?handleGetExtendedYear@HebrewCalendar@icu_44@@MAEHXZ" PURGE="0" COMMENT="" />
    <EXPORT ORDINAL="1476" NAME="?handleGetExtendedYearFromWeekFields@Calendar@icu_44@@MAEHHH@Z" PURGE="8" COMMENT="" />
    <EXPORT ORDINAL="1477" NAME="?handleGetExtendedYearFromWeekFields@GregorianCalendar@icu_44@@MAEHHH@Z" PURGE="8" COMMENT="" />
    <EXPORT ORDINAL="1478" NAME="?handleGetLimit@CECalendar@icu_44@@MBEHW4UCalendarDateFields@@W4ELimitType@Calendar@2@@Z" PURGE="8" COMMENT="" />
    <EXPORT ORDINAL="1479" NAME="?handleGetLimit@GregorianCalendar@icu_44@@MBEHW4UCalendarDateFields@@W4ELimitType@Calendar@2@@Z" PURGE="8" COMMENT="" />
    <EXPORT ORDINAL="1480" NAME="?handleGetLimit@HebrewCalendar@icu_44@@MBEHW4UCalendarDateFields@@W4ELimitType@Calendar@2@@Z" PURGE="8" COMMENT="" />
    <EXPORT ORDINAL="1481" NAME="?handleGetMonthLength@Calendar@icu_44@@MBEHHH@Z" PURGE="8" COMMENT="" />
    <EXPORT ORDINAL="1482" NAME="?handleGetMonthLength@GregorianCalendar@icu_44@@MBEHHH@Z" PURGE="8" COMMENT="" />
    <EXPORT ORDINAL="1483" NAME="?handleGetMonthLength@HebrewCalendar@icu_44@@MBEHHH@Z" PURGE="8" COMMENT="" />
    <EXPORT ORDINAL="1484" NAME="?handleGetSourceSet@CompoundTransliterator@icu_44@@MBEXAAVUnicodeSet@2@@Z" PURGE="4" COMMENT="" />
    <EXPORT ORDINAL="1485" NAME="?handleGetSourceSet@Transliterator@icu_44@@UBEXAAVUnicodeSet@2@@Z" PURGE="4" COMMENT="" />
    <EXPORT ORDINAL="1486" NAME="?handleGetYearLength@Calendar@icu_44@@MBEHH@Z" PURGE="4" COMMENT="" />
    <EXPORT ORDINAL="1487" NAME="?handleGetYearLength@GregorianCalendar@icu_44@@MBEHH@Z" PURGE="4" COMMENT="" />
    <EXPORT ORDINAL="1488" NAME="?handleGetYearLength@HebrewCalendar@icu_44@@MBEHH@Z" PURGE="4" COMMENT="" />
    <EXPORT ORDINAL="1489" NAME="?handleNext@StringSearch@icu_44@@MAEHHAAW4UErrorCode@@@Z" PURGE="8" COMMENT="" />
    <EXPORT ORDINAL="1490" NAME="?handlePrev@StringSearch@icu_44@@MAEHHAAW4UErrorCode@@@Z" PURGE="8" COMMENT="" />
    <EXPORT ORDINAL="1491" NAME="?handleTransliterate@CompoundTransliterator@icu_44@@MBEXAAVReplaceable@2@AAUUTransPosition@@C@Z" PURGE="12" COMMENT="" />
    <EXPORT ORDINAL="1492" NAME="?hasAnchoringBounds@RegexMatcher@icu_44@@UBECXZ" PURGE="0" COMMENT="" />
    <EXPORT ORDINAL="1493" NAME="?hasEquivalentTransitions@BasicTimeZone@icu_44@@UAECAAV12@NNCAAW4UErrorCode@@@Z" PURGE="28" COMMENT="" />
    <EXPORT ORDINAL="1494" NAME="?hasSameRules@RuleBasedTimeZone@icu_44@@UBECABVTimeZone@2@@Z" PURGE="4" COMMENT="" />
    <EXPORT ORDINAL="1495" NAME="?hasSameRules@SimpleTimeZone@icu_44@@UBECABVTimeZone@2@@Z" PURGE="4" COMMENT="" />
    <EXPORT ORDINAL="1496" NAME="?hasSameRules@TimeZone@icu_44@@UBECABV12@@Z" PURGE="4" COMMENT="" />
    <EXPORT ORDINAL="1497" NAME="?hasSameRules@VTimeZone@icu_44@@UBECABVTimeZone@2@@Z" PURGE="4" COMMENT="" />
    <EXPORT ORDINAL="1498" NAME="?hasTransparentBounds@RegexMatcher@icu_44@@UBECXZ" PURGE="0" COMMENT="" />
    <EXPORT ORDINAL="1499" NAME="?hashCode@CollationKey@icu_44@@QBEHXZ" PURGE="0" COMMENT="" />
    <EXPORT ORDINAL="1500" NAME="?hashCode@RuleBasedCollator@icu_44@@UBEHXZ" PURGE="0" COMMENT="" />
    <EXPORT ORDINAL="1501" NAME="?haveDefaultCentury@CECalendar@icu_44@@MBECXZ" PURGE="0" COMMENT="" />
    <EXPORT ORDINAL="1502" NAME="?haveDefaultCentury@GregorianCalendar@icu_44@@UBECXZ" PURGE="0" COMMENT="" />
    <EXPORT ORDINAL="1503" NAME="?haveDefaultCentury@HebrewCalendar@icu_44@@MBECXZ" PURGE="0" COMMENT="" />
    <EXPORT ORDINAL="1504" NAME="?hitEnd@RegexMatcher@icu_44@@UBECXZ" PURGE="0" COMMENT="" />
    <EXPORT ORDINAL="1505" NAME="?inDaylightTime@CECalendar@icu_44@@MBECAAW4UErrorCode@@@Z" PURGE="4" COMMENT="" />
    <EXPORT ORDINAL="1506" NAME="?inDaylightTime@GregorianCalendar@icu_44@@UBECAAW4UErrorCode@@@Z" PURGE="4" COMMENT="" />
    <EXPORT ORDINAL="1507" NAME="?inDaylightTime@HebrewCalendar@icu_44@@MBECAAW4UErrorCode@@@Z" PURGE="4" COMMENT="" />
    <EXPORT ORDINAL="1508" NAME="?inDaylightTime@RuleBasedTimeZone@icu_44@@UBECNAAW4UErrorCode@@@Z" PURGE="12" COMMENT="" />
    <EXPORT ORDINAL="1509" NAME="?inDaylightTime@SimpleTimeZone@icu_44@@UBECNAAW4UErrorCode@@@Z" PURGE="12" COMMENT="" />
    <EXPORT ORDINAL="1510" NAME="?inDaylightTime@VTimeZone@icu_44@@UBECNAAW4UErrorCode@@@Z" PURGE="12" COMMENT="" />
    <EXPORT ORDINAL="1511" NAME="?inRange@PluralFormat@icu_44@@AAEC_WAAW4fmtToken@12@@Z" PURGE="8" COMMENT="" />
    <EXPORT ORDINAL="1512" NAME="?init2@RegexMatcher@icu_44@@AAEXPAUUText@@AAW4UErrorCode@@@Z" PURGE="8" COMMENT="" />
    <EXPORT ORDINAL="1513" NAME="?init@CompoundTransliterator@icu_44@@AAEXAAVUVector@2@W4UTransDirection@@CAAW4UErrorCode@@@Z" PURGE="16" COMMENT="" />
    <EXPORT ORDINAL="1514" NAME="?init@CompoundTransliterator@icu_44@@AAEXABVUnicodeString@2@W4UTransDirection@@CAAW4UErrorCode@@@Z" PURGE="16" COMMENT="" />
    <EXPORT ORDINAL="1515" NAME="?init@DecimalFormat@icu_44@@AAEXXZ" PURGE="0" COMMENT="" />
    <EXPORT ORDINAL="1516" NAME="?init@Formattable@icu_44@@AAEXXZ" PURGE="0" COMMENT="" />
    <EXPORT ORDINAL="1517" NAME="?init@PluralFormat@icu_44@@AAEXPBVPluralRules@2@ABVLocale@2@AAW4UErrorCode@@@Z" PURGE="12" COMMENT="" />
    <EXPORT ORDINAL="1518" NAME="?init@RegexMatcher@icu_44@@AAEXAAW4UErrorCode@@@Z" PURGE="4" COMMENT="" />
    <EXPORT ORDINAL="1519" NAME="?init@RegexPattern@icu_44@@AAEXXZ" PURGE="0" COMMENT="" />
    <EXPORT ORDINAL="1520" NAME="?init@RuleBasedNumberFormat@icu_44@@AAEXABVUnicodeString@2@PAVLocalizationInfo@2@AAUUParseError@@AAW4UErrorCode@@@Z" PURGE="16" COMMENT="" />
    <EXPORT ORDINAL="1521" NAME="?init@SelectFormat@icu_44@@AAEXAAW4UErrorCode@@@Z" PURGE="4" COMMENT="" />
    <EXPORT ORDINAL="1522" NAME="?initData@DateTimePatternGenerator@icu_44@@AAEXABVLocale@2@AAW4UErrorCode@@@Z" PURGE="8" COMMENT="" />
    <EXPORT ORDINAL="1523" NAME="?initDataMembers@TimeUnitFormat@icu_44@@AAEXAAW4UErrorCode@@@Z" PURGE="4" COMMENT="" />
    <EXPORT ORDINAL="1524" NAME="?initDefault@TimeZone@icu_44@@CAXXZ" PURGE="0" COMMENT="" />
    <EXPORT ORDINAL="1525" NAME="?initDefaultRuleSet@RuleBasedNumberFormat@icu_44@@AAEXXZ" PURGE="0" COMMENT="" />
    <EXPORT ORDINAL="1526" NAME="?initGMTFormatters@SimpleDateFormat@icu_44@@AAEXAAW4UErrorCode@@@Z" PURGE="4" COMMENT="" />
    <EXPORT ORDINAL="1527" NAME="?initHash@CurrencyPluralInfo@icu_44@@AAEPAVHashtable@2@AAW4UErrorCode@@@Z" PURGE="4" COMMENT="" />
    <EXPORT ORDINAL="1528" NAME="?initHash@DateIntervalInfo@icu_44@@AAEPAVHashtable@2@AAW4UErrorCode@@@Z" PURGE="4" COMMENT="" />
    <EXPORT ORDINAL="1529" NAME="?initHash@TimeUnitFormat@icu_44@@AAEPAVHashtable@2@AAW4UErrorCode@@@Z" PURGE="4" COMMENT="" />
    <EXPORT ORDINAL="1530" NAME="?initHashForAffix@DecimalFormat@icu_44@@AAEPAVHashtable@2@AAW4UErrorCode@@@Z" PURGE="4" COMMENT="" />
    <EXPORT ORDINAL="1531" NAME="?initHashForAffixPattern@DecimalFormat@icu_44@@AAEPAVHashtable@2@AAW4UErrorCode@@@Z" PURGE="4" COMMENT="" />
    <EXPORT ORDINAL="1532" NAME="?initHashtable@DateTimePatternGenerator@icu_44@@AAEXAAW4UErrorCode@@@Z" PURGE="4" COMMENT="" />
    <EXPORT ORDINAL="1533" NAME="?initNumberFormatters@SimpleDateFormat@icu_44@@AAEXABVLocale@2@AAW4UErrorCode@@@Z" PURGE="8" COMMENT="" />
    <EXPORT ORDINAL="1534" NAME="?initStartTimes@TimeArrayTimeZoneRule@icu_44@@AAECQBNHAAW4UErrorCode@@@Z" PURGE="12" COMMENT="" />
    <EXPORT ORDINAL="1535" NAME="?initTransitionRules@SimpleTimeZone@icu_44@@AAEXAAW4UErrorCode@@@Z" PURGE="4" COMMENT="" />
    <EXPORT ORDINAL="1536" NAME="?initZoneStringFormat@DateFormatSymbols@icu_44@@AAEXXZ" PURGE="0" COMMENT="" />
    <EXPORT ORDINAL="1537" NAME="?initZoneStringsArray@DateFormatSymbols@icu_44@@AAEXXZ" PURGE="0" COMMENT="" />
    <EXPORT ORDINAL="1538" NAME="?initialize@CurrencyPluralInfo@icu_44@@AAEXABVLocale@2@AAW4UErrorCode@@@Z" PURGE="8" COMMENT="" />
    <EXPORT ORDINAL="1539" NAME="?initialize@DecimalFormatSymbols@icu_44@@AAEXABVLocale@2@AAW4UErrorCode@@C@Z" PURGE="12" COMMENT="" />
    <EXPORT ORDINAL="1540" NAME="?initialize@DecimalFormatSymbols@icu_44@@AAEXPAPB_WPAHH@Z" PURGE="12" COMMENT="" />
    <EXPORT ORDINAL="1541" NAME="?initialize@DecimalFormatSymbols@icu_44@@AAEXXZ" PURGE="0" COMMENT="" />
    <EXPORT ORDINAL="1542" NAME="?initialize@SimpleDateFormat@icu_44@@AAEXABVLocale@2@AAW4UErrorCode@@@Z" PURGE="8" COMMENT="" />
    <EXPORT ORDINAL="1543" NAME="?initializeCalendar@SimpleDateFormat@icu_44@@AAEPAVCalendar@2@PAVTimeZone@2@ABVLocale@2@AAW4UErrorCode@@@Z" PURGE="12" COMMENT="" />
    <EXPORT ORDINAL="1544" NAME="?initializeData@DateFormatSymbols@icu_44@@AAEXABVLocale@2@PBDAAW4UErrorCode@@C@Z" PURGE="16" COMMENT="" />
    <EXPORT ORDINAL="1545" NAME="?initializeData@DateIntervalInfo@icu_44@@AAEXABVLocale@2@AAW4UErrorCode@@@Z" PURGE="8" COMMENT="" />
    <EXPORT ORDINAL="1546" NAME="?initializeDefaultCentury@SimpleDateFormat@icu_44@@AAEXXZ" PURGE="0" COMMENT="" />
    <EXPORT ORDINAL="1547" NAME="?initializePattern@DateIntervalFormat@icu_44@@AAEXAAW4UErrorCode@@@Z" PURGE="4" COMMENT="" />
    <EXPORT ORDINAL="1548" NAME="?initializeRegistry@Transliterator@icu_44@@CACAAW4UErrorCode@@@Z" PURGE="0" COMMENT="" />
    <EXPORT ORDINAL="1549" NAME="?initializeSymbols@SimpleDateFormat@icu_44@@AAEXABVLocale@2@PAVCalendar@2@AAW4UErrorCode@@@Z" PURGE="12" COMMENT="" />
    <EXPORT ORDINAL="1550" NAME="?initializeSystemDefaultCentury@GregorianCalendar@icu_44@@CAXXZ" PURGE="0" COMMENT="" />
    <EXPORT ORDINAL="1551" NAME="?initializeSystemDefaultCentury@HebrewCalendar@icu_44@@CAXXZ" PURGE="0" COMMENT="" />
    <EXPORT ORDINAL="1552" NAME="?input@RegexMatcher@icu_44@@UBEABVUnicodeString@2@XZ" PURGE="0" COMMENT="" />
    <EXPORT ORDINAL="1553" NAME="?inputText@RegexMatcher@icu_44@@UBEPAUUText@@XZ" PURGE="0" COMMENT="" />
    <EXPORT ORDINAL="1554" NAME="?insertFormattedNumber@PluralFormat@icu_44@@ABE?AVUnicodeString@2@NAAV32@0AAVFieldPosition@2@@Z" PURGE="24" COMMENT="" />
    <EXPORT ORDINAL="1555" NAME="?integerToken@Transliterator@icu_44@@SA?ATToken@12@H@Z" PURGE="0" COMMENT="" />
    <EXPORT ORDINAL="1556" NAME="?internalGet@Calendar@icu_44@@IBEHW4EDateFields@12@@Z" PURGE="4" COMMENT="" />
    <EXPORT ORDINAL="1557" NAME="?internalGet@Calendar@icu_44@@IBEHW4UCalendarDateFields@@@Z" PURGE="4" COMMENT="" />
    <EXPORT ORDINAL="1558" NAME="?internalGet@Calendar@icu_44@@IBEHW4UCalendarDateFields@@H@Z" PURGE="8" COMMENT="" />
    <EXPORT ORDINAL="1559" NAME="?internalGetDefaultCenturyStart@GregorianCalendar@icu_44@@ABENXZ" PURGE="0" COMMENT="" />
    <EXPORT ORDINAL="1560" NAME="?internalGetDefaultCenturyStart@HebrewCalendar@icu_44@@ABENXZ" PURGE="0" COMMENT="" />
    <EXPORT ORDINAL="1561" NAME="?internalGetDefaultCenturyStartYear@GregorianCalendar@icu_44@@ABEHXZ" PURGE="0" COMMENT="" />
    <EXPORT ORDINAL="1562" NAME="?internalGetDefaultCenturyStartYear@HebrewCalendar@icu_44@@ABEHXZ" PURGE="0" COMMENT="" />
    <EXPORT ORDINAL="1563" NAME="?internalGetEra@GregorianCalendar@icu_44@@MBEHXZ" PURGE="0" COMMENT="" />
    <EXPORT ORDINAL="1564" NAME="?internalGetTime@Calendar@icu_44@@IBENXZ" PURGE="0" COMMENT="" />
    <EXPORT ORDINAL="1565" NAME="?internalSet@Calendar@icu_44@@IAEXW4EDateFields@12@H@Z" PURGE="8" COMMENT="" />
    <EXPORT ORDINAL="1566" NAME="?internalSet@Calendar@icu_44@@IAEXW4UCalendarDateFields@@H@Z" PURGE="8" COMMENT="" />
    <EXPORT ORDINAL="1567" NAME="?internalSetTime@Calendar@icu_44@@IAEXN@Z" PURGE="8" COMMENT="" />
    <EXPORT ORDINAL="1568" NAME="?isAlgorithmic@NumberingSystem@icu_44@@QBECXZ" PURGE="0" COMMENT="" />
    <EXPORT ORDINAL="1569" NAME="?isAvailableFormatSet@DateTimePatternGenerator@icu_44@@ABECABVUnicodeString@2@@Z" PURGE="4" COMMENT="" />
    <EXPORT ORDINAL="1570" NAME="?isBogus@CollationKey@icu_44@@QBECXZ" PURGE="0" COMMENT="" />
    <EXPORT ORDINAL="1571" NAME="?isCanonicalItem@DateTimePatternGenerator@icu_44@@ABECABVUnicodeString@2@@Z" PURGE="4" COMMENT="" />
    <EXPORT ORDINAL="1572" NAME="?isChunkWordBoundary@RegexMatcher@icu_44@@AAECH@Z" PURGE="4" COMMENT="" />
    <EXPORT ORDINAL="1573" NAME="?isDecimalSeparatorAlwaysShown@DecimalFormat@icu_44@@QBECXZ" PURGE="0" COMMENT="" />
    <EXPORT ORDINAL="1574" NAME="?isDefaultGMTFormat@SimpleDateFormat@icu_44@@ABECXZ" PURGE="0" COMMENT="" />
    <EXPORT ORDINAL="1575" NAME="?isEquivalentTo@AnnualTimeZoneRule@icu_44@@UBECABVTimeZoneRule@2@@Z" PURGE="4" COMMENT="" />
    <EXPORT ORDINAL="1576" NAME="?isEquivalentTo@Calendar@icu_44@@UBECABV12@@Z" PURGE="4" COMMENT="" />
    <EXPORT ORDINAL="1577" NAME="?isEquivalentTo@GregorianCalendar@icu_44@@UBECABVCalendar@2@@Z" PURGE="4" COMMENT="" />
    <EXPORT ORDINAL="1578" NAME="?isEquivalentTo@InitialTimeZoneRule@icu_44@@UBECABVTimeZoneRule@2@@Z" PURGE="4" COMMENT="" />
    <EXPORT ORDINAL="1579" NAME="?isEquivalentTo@TimeArrayTimeZoneRule@icu_44@@UBECABVTimeZoneRule@2@@Z" PURGE="4" COMMENT="" />
    <EXPORT ORDINAL="1580" NAME="?isEquivalentTo@TimeZoneRule@icu_44@@UBECABV12@@Z" PURGE="4" COMMENT="" />
    <EXPORT ORDINAL="1581" NAME="?isExponentSignAlwaysShown@DecimalFormat@icu_44@@UAECXZ" PURGE="0" COMMENT="" />
    <EXPORT ORDINAL="1582" NAME="?isFieldUnitIgnored@SimpleDateFormat@icu_44@@QBECW4UCalendarDateFields@@@Z" PURGE="4" COMMENT="" />
    <EXPORT ORDINAL="1583" NAME="?isFieldUnitIgnored@SimpleDateFormat@icu_44@@SACABVUnicodeString@2@W4UCalendarDateFields@@@Z" PURGE="0" COMMENT="" />
    <EXPORT ORDINAL="1584" NAME="?isGroupingPosition@DecimalFormat@icu_44@@ABECH@Z" PURGE="4" COMMENT="" />
    <EXPORT ORDINAL="1585" NAME="?isGroupingUsed@NumberFormat@icu_44@@QBECXZ" PURGE="0" COMMENT="" />
    <EXPORT ORDINAL="1586" NAME="?isIgnorable@CollationElementIterator@icu_44@@SACH@Z" PURGE="0" COMMENT="" />
    <EXPORT ORDINAL="1587" NAME="?isInfinite@DigitList@icu_44@@QBECXZ" PURGE="0" COMMENT="" />
    <EXPORT ORDINAL="1588" NAME="?isKeyword@PluralRules@icu_44@@QBECABVUnicodeString@2@@Z" PURGE="4" COMMENT="" />
    <EXPORT ORDINAL="1589" NAME="?isLeapYear@GregorianCalendar@icu_44@@QBECH@Z" PURGE="4" COMMENT="" />
    <EXPORT ORDINAL="1590" NAME="?isLeapYear@HebrewCalendar@icu_44@@SACH@Z" PURGE="0" COMMENT="" />
    <EXPORT ORDINAL="1591" NAME="?isLegalArgName@MessageFormat@icu_44@@ABECABVUnicodeString@2@@Z" PURGE="4" COMMENT="" />
    <EXPORT ORDINAL="1592" NAME="?isLenient@Calendar@icu_44@@QBECXZ" PURGE="0" COMMENT="" />
    <EXPORT ORDINAL="1593" NAME="?isLenient@DateFormat@icu_44@@UBECXZ" PURGE="0" COMMENT="" />
    <EXPORT ORDINAL="1594" NAME="?isLenient@RuleBasedNumberFormat@icu_44@@UBECXZ" PURGE="0" COMMENT="" />
    <EXPORT ORDINAL="1595" NAME="?isNaN@DigitList@icu_44@@QBECXZ" PURGE="0" COMMENT="" />
    <EXPORT ORDINAL="1596" NAME="?isNumeric@Formattable@icu_44@@QBECXZ" PURGE="0" COMMENT="" />
    <EXPORT ORDINAL="1597" NAME="?isNumeric@SimpleDateFormat@icu_44@@CAC_WH@Z" PURGE="0" COMMENT="" />
    <EXPORT ORDINAL="1598" NAME="?isParseIntegerOnly@NumberFormat@icu_44@@QBECXZ" PURGE="0" COMMENT="" />
    <EXPORT ORDINAL="1599" NAME="?isPositive@DigitList@icu_44@@QBECXZ" PURGE="0" COMMENT="" />
    <EXPORT ORDINAL="1600" NAME="?isScientificNotation@DecimalFormat@icu_44@@UAECXZ" PURGE="0" COMMENT="" />
    <EXPORT ORDINAL="1601" NAME="?isSet@Calendar@icu_44@@QBECW4UCalendarDateFields@@@Z" PURGE="4" COMMENT="" />
    <EXPORT ORDINAL="1602" NAME="?isUWordBoundary@RegexMatcher@icu_44@@AAEC_J@Z" PURGE="8" COMMENT="" />
    <EXPORT ORDINAL="1603" NAME="?isValidDigitString@NumberingSystem@icu_44@@CACABVUnicodeString@2@@Z" PURGE="0" COMMENT="" />
    <EXPORT ORDINAL="1604" NAME="?isWeekend@Calendar@icu_44@@UBECNAAW4UErrorCode@@@Z" PURGE="12" COMMENT="" />
    <EXPORT ORDINAL="1605" NAME="?isWeekend@Calendar@icu_44@@UBECXZ" PURGE="0" COMMENT="" />
    <EXPORT ORDINAL="1606" NAME="?isWordBoundary@RegexMatcher@icu_44@@AAEC_J@Z" PURGE="8" COMMENT="" />
    <EXPORT ORDINAL="1607" NAME="?isZero@DigitList@icu_44@@QBECXZ" PURGE="0" COMMENT="" />
    <EXPORT ORDINAL="1608" NAME="?jdToCE@CECalendar@icu_44@@KAXHHAAH00@Z" PURGE="0" COMMENT="" />
    <EXPORT ORDINAL="1609" NAME="?joinIDs@CompoundTransliterator@icu_44@@AAE?AVUnicodeString@2@QBQAVTransliterator@2@H@Z" PURGE="12" COMMENT="" />
    <EXPORT ORDINAL="1610" NAME="?julianDayToDayOfWeek@Calendar@icu_44@@KAEN@Z" PURGE="0" COMMENT="" />
    <EXPORT ORDINAL="1611" NAME="?julianDayToMillis@GregorianCalendar@icu_44@@CANN@Z" PURGE="0" COMMENT="" />
    <EXPORT ORDINAL="1612" NAME="?kDOWPrecedence@Calendar@icu_44@@1QAY1M@7$$CBHA" PURGE="-1" COMMENT="" />
    <EXPORT ORDINAL="1613" NAME="?kDatePrecedence@Calendar@icu_44@@1QAY1M@7$$CBHA" PURGE="-1" COMMENT="" />
    <EXPORT ORDINAL="1614" NAME="?kDoubleFractionDigits@DecimalFormat@icu_44@@1HB" PURGE="-1" COMMENT="" />
    <EXPORT ORDINAL="1615" NAME="?kDoubleIntegerDigits@DecimalFormat@icu_44@@1HB" PURGE="-1" COMMENT="" />
    <EXPORT ORDINAL="1616" NAME="?kMaxScientificIntegerDigits@DecimalFormat@icu_44@@1HB" PURGE="-1" COMMENT="" />
    <EXPORT ORDINAL="1617" NAME="?kYearPrecedence@Calendar@icu_44@@1QAY1M@7$$CBHA" PURGE="-1" COMMENT="" />
    <EXPORT ORDINAL="1618" NAME="?last@SearchIterator@icu_44@@QAEHAAW4UErrorCode@@@Z" PURGE="4" COMMENT="" />
    <EXPORT ORDINAL="1619" NAME="?load@VTimeZone@icu_44@@AAEXAAVVTZReader@2@AAW4UErrorCode@@@Z" PURGE="8" COMMENT="" />
    <EXPORT ORDINAL="1620" NAME="?loadRule@TimeZone@icu_44@@KAPAUUResourceBundle@@PBU3@ABVUnicodeString@2@PAU3@AAW4UErrorCode@@@Z" PURGE="0" COMMENT="" />
    <EXPORT ORDINAL="1621" NAME="?lookingAt@RegexMatcher@icu_44@@UAECAAW4UErrorCode@@@Z" PURGE="4" COMMENT="" />
    <EXPORT ORDINAL="1622" NAME="?lookingAt@RegexMatcher@icu_44@@UAECHAAW4UErrorCode@@@Z" PURGE="8" COMMENT="" />
    <EXPORT ORDINAL="1623" NAME="?lstToUT@CalendarAstronomer@icu_44@@QAENN@Z" PURGE="8" COMMENT="" />
    <EXPORT ORDINAL="1624" NAME="?makeFormat@MessageFormat@icu_44@@AAEXHPAVUnicodeString@2@AAUUParseError@@AAW4UErrorCode@@@Z" PURGE="16" COMMENT="" />
    <EXPORT ORDINAL="1625" NAME="?makeInstance@Collator@icu_44@@CAPAV12@ABVLocale@2@AAW4UErrorCode@@@Z" PURGE="0" COMMENT="" />
    <EXPORT ORDINAL="1626" NAME="?makeInstance@NumberFormat@icu_44@@CAPAV12@ABVLocale@2@W4EStyles@12@AAW4UErrorCode@@@Z" PURGE="0" COMMENT="" />
    <EXPORT ORDINAL="1627" NAME="?match@DecimalFormat@icu_44@@CAHABVUnicodeString@2@H0@Z" PURGE="0" COMMENT="" />
    <EXPORT ORDINAL="1628" NAME="?match@DecimalFormat@icu_44@@CAHABVUnicodeString@2@HH@Z" PURGE="0" COMMENT="" />
    <EXPORT ORDINAL="1629" NAME="?matchQuarterString@SimpleDateFormat@icu_44@@ABEHABVUnicodeString@2@HW4UCalendarDateFields@@PBV32@HAAVCalendar@2@@Z" PURGE="24" COMMENT="" />
    <EXPORT ORDINAL="1630" NAME="?matchString@SimpleDateFormat@icu_44@@ABEHABVUnicodeString@2@HW4UCalendarDateFields@@PBV32@HAAVCalendar@2@@Z" PURGE="24" COMMENT="" />
    <EXPORT ORDINAL="1631" NAME="?matcher@RegexPattern@icu_44@@UBEPAVRegexMatcher@2@AAW4UErrorCode@@@Z" PURGE="4" COMMENT="" />
    <EXPORT ORDINAL="1632" NAME="?matcher@RegexPattern@icu_44@@UBEPAVRegexMatcher@2@ABVUnicodeString@2@AAW4UErrorCode@@@Z" PURGE="8" COMMENT="" />
    <EXPORT ORDINAL="1633" NAME="?matcher@RegexPattern@icu_44@@UBEPAVRegexMatcher@2@PAUUText@@W4PatternIsUTextFlag@12@AAW4UErrorCode@@@Z" PURGE="12" COMMENT="" />
    <EXPORT ORDINAL="1634" NAME="?matches@RegexMatcher@icu_44@@UAECAAW4UErrorCode@@@Z" PURGE="4" COMMENT="" />
    <EXPORT ORDINAL="1635" NAME="?matches@RegexMatcher@icu_44@@UAECHAAW4UErrorCode@@@Z" PURGE="8" COMMENT="" />
    <EXPORT ORDINAL="1636" NAME="?matches@RegexPattern@icu_44@@SACABVUnicodeString@2@0AAUUParseError@@AAW4UErrorCode@@@Z" PURGE="0" COMMENT="" />
    <EXPORT ORDINAL="1637" NAME="?matches@RegexPattern@icu_44@@SACPAUUText@@0AAUUParseError@@AAW4UErrorCode@@@Z" PURGE="0" COMMENT="" />
    <EXPORT ORDINAL="1638" NAME="?matchesAt@CEList@icu_44@@QBECHPBV12@@Z" PURGE="8" COMMENT="" />
    <EXPORT ORDINAL="1639" NAME="?millisToJulianDay@GregorianCalendar@icu_44@@CANN@Z" PURGE="0" COMMENT="" />
    <EXPORT ORDINAL="1640" NAME="?minLengthInChars@CollData@icu_44@@QBEHPBVCEList@2@H@Z" PURGE="8" COMMENT="" />
    <EXPORT ORDINAL="1641" NAME="?minLengthInChars@CollData@icu_44@@QBEHPBVCEList@2@HPAH@Z" PURGE="12" COMMENT="" />
    <EXPORT ORDINAL="1642" NAME="?monthLength@GregorianCalendar@icu_44@@MBEHH@Z" PURGE="4" COMMENT="" />
    <EXPORT ORDINAL="1643" NAME="?monthLength@GregorianCalendar@icu_44@@MBEHHH@Z" PURGE="8" COMMENT="" />
    <EXPORT ORDINAL="1644" NAME="?monthsInYear@HebrewCalendar@icu_44@@CAHH@Z" PURGE="0" COMMENT="" />
    <EXPORT ORDINAL="1645" NAME="?mult@DigitList@icu_44@@QAEXABV12@AAW4UErrorCode@@@Z" PURGE="8" COMMENT="" />
    <EXPORT ORDINAL="1646" NAME="?newerField@Calendar@icu_44@@IBE?AW4UCalendarDateFields@@W43@0@Z" PURGE="8" COMMENT="" />
    <EXPORT ORDINAL="1647" NAME="?newestStamp@Calendar@icu_44@@IBEHW4UCalendarDateFields@@0H@Z" PURGE="12" COMMENT="" />
    <EXPORT ORDINAL="1648" NAME="?next@CollationElementIterator@icu_44@@QAEHAAW4UErrorCode@@@Z" PURGE="4" COMMENT="" />
    <EXPORT ORDINAL="1649" NAME="?next@FieldPositionIterator@icu_44@@QAECAAVFieldPosition@2@@Z" PURGE="4" COMMENT="" />
    <EXPORT ORDINAL="1650" NAME="?next@SearchIterator@icu_44@@QAEHAAW4UErrorCode@@@Z" PURGE="4" COMMENT="" />
    <EXPORT ORDINAL="1651" NAME="?open@CollData@icu_44@@SAPAV12@PAUUCollator@@AAW4UErrorCode@@@Z" PURGE="0" COMMENT="" />
    <EXPORT ORDINAL="1652" NAME="?orphanFilter@Transliterator@icu_44@@QAEPAVUnicodeFilter@2@XZ" PURGE="0" COMMENT="" />
    <EXPORT ORDINAL="1653" NAME="?orphanOrClone@?$MaybeStackArray@D$0DE@@icu_44@@QAEPADHAAH@Z" PURGE="8" COMMENT="" />
    <EXPORT ORDINAL="1654" NAME="?orphanTimeZone@Calendar@icu_44@@QAEPAVTimeZone@2@XZ" PURGE="0" COMMENT="" />
    <EXPORT ORDINAL="1655" NAME="?parse@ChoiceFormat@icu_44@@UBEXABVUnicodeString@2@AAVFormattable@2@AAVParsePosition@2@@Z" PURGE="12" COMMENT="" />
    <EXPORT ORDINAL="1656" NAME="?parse@ChoiceFormat@icu_44@@UBEXABVUnicodeString@2@AAVFormattable@2@AAW4UErrorCode@@@Z" PURGE="12" COMMENT="" />
    <EXPORT ORDINAL="1657" NAME="?parse@DateFormat@icu_44@@QBENABVUnicodeString@2@AAVParsePosition@2@@Z" PURGE="8" COMMENT="" />
    <EXPORT ORDINAL="1658" NAME="?parse@DateFormat@icu_44@@UBENABVUnicodeString@2@AAW4UErrorCode@@@Z" PURGE="8" COMMENT="" />
    <EXPORT ORDINAL="1659" NAME="?parse@DecimalFormat@icu_44@@ABEXABVUnicodeString@2@AAVFormattable@2@AAVParsePosition@2@C@Z" PURGE="16" COMMENT="" />
    <EXPORT ORDINAL="1660" NAME="?parse@DecimalFormat@icu_44@@UBEXABVUnicodeString@2@AAVFormattable@2@AAVParsePosition@2@@Z" PURGE="12" COMMENT="" />
    <EXPORT ORDINAL="1661" NAME="?parse@DecimalFormat@icu_44@@UBEXABVUnicodeString@2@AAVFormattable@2@AAW4UErrorCode@@@Z" PURGE="12" COMMENT="" />
    <EXPORT ORDINAL="1662" NAME="?parse@MessageFormat@icu_44@@UBEPAVFormattable@2@ABVUnicodeString@2@AAHAAW4UErrorCode@@@Z" PURGE="12" COMMENT="" />
    <EXPORT ORDINAL="1663" NAME="?parse@MessageFormat@icu_44@@UBEPAVFormattable@2@ABVUnicodeString@2@AAVParsePosition@2@AAH@Z" PURGE="12" COMMENT="" />
    <EXPORT ORDINAL="1664" NAME="?parse@NumberFormat@icu_44@@UBEXABVUnicodeString@2@AAVFormattable@2@AAW4UErrorCode@@@Z" PURGE="12" COMMENT="" />
    <EXPORT ORDINAL="1665" NAME="?parse@RuleBasedNumberFormat@icu_44@@UBEXABVUnicodeString@2@AAVFormattable@2@AAVParsePosition@2@@Z" PURGE="12" COMMENT="" />
    <EXPORT ORDINAL="1666" NAME="?parse@RuleBasedNumberFormat@icu_44@@UBEXABVUnicodeString@2@AAVFormattable@2@AAW4UErrorCode@@@Z" PURGE="12" COMMENT="" />
    <EXPORT ORDINAL="1667" NAME="?parse@SimpleDateFormat@icu_44@@QBENABVUnicodeString@2@AAVParsePosition@2@@Z" PURGE="8" COMMENT="" />
    <EXPORT ORDINAL="1668" NAME="?parse@SimpleDateFormat@icu_44@@UBENABVUnicodeString@2@AAW4UErrorCode@@@Z" PURGE="8" COMMENT="" />
    <EXPORT ORDINAL="1669" NAME="?parse@SimpleDateFormat@icu_44@@UBEXABVUnicodeString@2@AAVCalendar@2@AAVParsePosition@2@@Z" PURGE="12" COMMENT="" />
    <EXPORT ORDINAL="1670" NAME="?parse@VTimeZone@icu_44@@AAEXAAW4UErrorCode@@@Z" PURGE="4" COMMENT="" />
    <EXPORT ORDINAL="1671" NAME="?parseAmbiguousDatesAsAfter@SimpleDateFormat@icu_44@@AAEXNAAW4UErrorCode@@@Z" PURGE="12" COMMENT="" />
    <EXPORT ORDINAL="1672" NAME="?parseCurrency@DecimalFormat@icu_44@@UBEAAVFormattable@2@ABVUnicodeString@2@AAV32@AAVParsePosition@2@@Z" PURGE="12" COMMENT="" />
    <EXPORT ORDINAL="1673" NAME="?parseCurrency@NumberFormat@icu_44@@UBEAAVFormattable@2@ABVUnicodeString@2@AAV32@AAVParsePosition@2@@Z" PURGE="12" COMMENT="" />
    <EXPORT ORDINAL="1674" NAME="?parseCustomID@TimeZone@icu_44@@CACABVUnicodeString@2@AAH111@Z" PURGE="0" COMMENT="" />
    <EXPORT ORDINAL="1675" NAME="?parseDescription@PluralRules@icu_44@@AAEXAAVUnicodeString@2@AAVRuleChain@2@AAW4UErrorCode@@@Z" PURGE="12" COMMENT="" />
    <EXPORT ORDINAL="1676" NAME="?parseForCurrency@DecimalFormat@icu_44@@ABECABVUnicodeString@2@AAVParsePosition@2@AAVDigitList@2@PACPA_W@Z" PURGE="20" COMMENT="" />
    <EXPORT ORDINAL="1677" NAME="?parseGMT@SimpleDateFormat@icu_44@@ABEHABVUnicodeString@2@AAVParsePosition@2@@Z" PURGE="8" COMMENT="" />
    <EXPORT ORDINAL="1678" NAME="?parseGMTDefault@SimpleDateFormat@icu_44@@ABEHABVUnicodeString@2@AAVParsePosition@2@@Z" PURGE="8" COMMENT="" />
    <EXPORT ORDINAL="1679" NAME="?parseInt@SimpleDateFormat@icu_44@@ABEXABVUnicodeString@2@AAVFormattable@2@AAVParsePosition@2@CPAVNumberFormat@2@@Z" PURGE="20" COMMENT="" />
    <EXPORT ORDINAL="1680" NAME="?parseInt@SimpleDateFormat@icu_44@@ABEXABVUnicodeString@2@AAVFormattable@2@HAAVParsePosition@2@CPAVNumberFormat@2@@Z" PURGE="24" COMMENT="" />
    <EXPORT ORDINAL="1681" NAME="?parseObject@DateFormat@icu_44@@UBEXABVUnicodeString@2@AAVFormattable@2@AAVParsePosition@2@@Z" PURGE="12" COMMENT="" />
    <EXPORT ORDINAL="1682" NAME="?parseObject@DateIntervalFormat@icu_44@@UBEXABVUnicodeString@2@AAVFormattable@2@AAVParsePosition@2@@Z" PURGE="12" COMMENT="" />
    <EXPORT ORDINAL="1683" NAME="?parseObject@Format@icu_44@@QBEXABVUnicodeString@2@AAVFormattable@2@AAW4UErrorCode@@@Z" PURGE="12" COMMENT="" />
    <EXPORT ORDINAL="1684" NAME="?parseObject@MessageFormat@icu_44@@UBEXABVUnicodeString@2@AAVFormattable@2@AAVParsePosition@2@@Z" PURGE="12" COMMENT="" />
    <EXPORT ORDINAL="1685" NAME="?parseObject@NumberFormat@icu_44@@UBEXABVUnicodeString@2@AAVFormattable@2@AAVParsePosition@2@@Z" PURGE="12" COMMENT="" />
    <EXPORT ORDINAL="1686" NAME="?parseObject@PluralFormat@icu_44@@UBEXABVUnicodeString@2@AAVFormattable@2@AAVParsePosition@2@@Z" PURGE="12" COMMENT="" />
    <EXPORT ORDINAL="1687" NAME="?parseObject@SelectFormat@icu_44@@UBEXABVUnicodeString@2@AAVFormattable@2@AAVParsePosition@2@@Z" PURGE="12" COMMENT="" />
    <EXPORT ORDINAL="1688" NAME="?parseObject@TimeUnitFormat@icu_44@@UBEXABVUnicodeString@2@AAVFormattable@2@AAVParsePosition@2@@Z" PURGE="12" COMMENT="" />
    <EXPORT ORDINAL="1689" NAME="?parseSkeleton@DateIntervalInfo@icu_44@@CAXABVUnicodeString@2@PAH@Z" PURGE="0" COMMENT="" />
    <EXPORT ORDINAL="1690" NAME="?pattern@RegexMatcher@icu_44@@UBEABVRegexPattern@2@XZ" PURGE="0" COMMENT="" />
    <EXPORT ORDINAL="1691" NAME="?pattern@RegexPattern@icu_44@@UBE?AVUnicodeString@2@XZ" PURGE="4" COMMENT="" />
    <EXPORT ORDINAL="1692" NAME="?patternText@RegexPattern@icu_44@@UBEPAUUText@@XZ" PURGE="0" COMMENT="" />
    <EXPORT ORDINAL="1693" NAME="?pinDayOfMonth@GregorianCalendar@icu_44@@IAEXXZ" PURGE="0" COMMENT="" />
    <EXPORT ORDINAL="1694" NAME="?pinField@Calendar@icu_44@@MAEXW4UCalendarDateFields@@AAW4UErrorCode@@@Z" PURGE="8" COMMENT="" />
    <EXPORT ORDINAL="1695" NAME="?pointerToken@Transliterator@icu_44@@SA?ATToken@12@PAX@Z" PURGE="0" COMMENT="" />
    <EXPORT ORDINAL="1696" NAME="?preceding@SearchIterator@icu_44@@QAEHHAAW4UErrorCode@@@Z" PURGE="8" COMMENT="" />
    <EXPORT ORDINAL="1697" NAME="?precision@DecimalFormat@icu_44@@ABEHXZ" PURGE="0" COMMENT="" />
    <EXPORT ORDINAL="1698" NAME="?prepareGetActual@Calendar@icu_44@@MAEXW4UCalendarDateFields@@CAAW4UErrorCode@@@Z" PURGE="12" COMMENT="" />
    <EXPORT ORDINAL="1699" NAME="?previous@CollationElementIterator@icu_44@@QAEHAAW4UErrorCode@@@Z" PURGE="4" COMMENT="" />
    <EXPORT ORDINAL="1700" NAME="?previous@SearchIterator@icu_44@@QAEHAAW4UErrorCode@@@Z" PURGE="4" COMMENT="" />
    <EXPORT ORDINAL="1701" NAME="?primaryOrder@CollationElementIterator@icu_44@@SAHH@Z" PURGE="0" COMMENT="" />
    <EXPORT ORDINAL="1702" NAME="?processOverrideString@SimpleDateFormat@icu_44@@AAEXABVLocale@2@ABVUnicodeString@2@CAAW4UErrorCode@@@Z" PURGE="16" COMMENT="" />
    <EXPORT ORDINAL="1703" NAME="?readFromCurrentLocale@TimeUnitFormat@icu_44@@AAEXW4EStyle@12@PBDAAW4UErrorCode@@@Z" PURGE="12" COMMENT="" />
    <EXPORT ORDINAL="1704" NAME="?reduce@DigitList@icu_44@@QAEXXZ" PURGE="0" COMMENT="" />
    <EXPORT ORDINAL="1705" NAME="?region@RegexMatcher@icu_44@@UAEAAV12@HHAAW4UErrorCode@@@Z" PURGE="12" COMMENT="" />
    <EXPORT ORDINAL="1706" NAME="?regionEnd@RegexMatcher@icu_44@@UBEHXZ" PURGE="0" COMMENT="" />
    <EXPORT ORDINAL="1707" NAME="?regionStart@RegexMatcher@icu_44@@UBEHXZ" PURGE="0" COMMENT="" />
    <EXPORT ORDINAL="1708" NAME="?registerAlias@Transliterator@icu_44@@SAXABVUnicodeString@2@0@Z" PURGE="0" COMMENT="" />
    <EXPORT ORDINAL="1709" NAME="?registerFactory@Calendar@icu_44@@SAPBXPAVICUServiceFactory@2@AAW4UErrorCode@@@Z" PURGE="0" COMMENT="" />
    <EXPORT ORDINAL="1710" NAME="?registerFactory@Collator@icu_44@@SAPBXPAVCollatorFactory@2@AAW4UErrorCode@@@Z" PURGE="0" COMMENT="" />
    <EXPORT ORDINAL="1711" NAME="?registerFactory@NumberFormat@icu_44@@SAPBXPAVNumberFormatFactory@2@AAW4UErrorCode@@@Z" PURGE="0" COMMENT="" />
    <EXPORT ORDINAL="1712" NAME="?registerFactory@Transliterator@icu_44@@SAXABVUnicodeString@2@P6APAV12@0TToken@12@@Z1@Z" PURGE="0" COMMENT="" />
    <EXPORT ORDINAL="1713" NAME="?registerInstance@Collator@icu_44@@SAPBXPAV12@ABVLocale@2@AAW4UErrorCode@@@Z" PURGE="0" COMMENT="" />
    <EXPORT ORDINAL="1714" NAME="?registerInstance@Transliterator@icu_44@@SAXPAV12@@Z" PURGE="0" COMMENT="" />
    <EXPORT ORDINAL="1715" NAME="?releaseArray@?$MaybeStackArray@D$0DE@@icu_44@@AAEXXZ" PURGE="0" COMMENT="" />
    <EXPORT ORDINAL="1716" NAME="?replaceAll@RegexMatcher@icu_44@@UAE?AVUnicodeString@2@ABV32@AAW4UErrorCode@@@Z" PURGE="12" COMMENT="" />
    <EXPORT ORDINAL="1717" NAME="?replaceAll@RegexMatcher@icu_44@@UAEPAUUText@@PAU3@0AAW4UErrorCode@@@Z" PURGE="12" COMMENT="" />
    <EXPORT ORDINAL="1718" NAME="?replaceFieldTypes@DateTimePatternGenerator@icu_44@@QAE?AVUnicodeString@2@ABV32@0AAW4UErrorCode@@@Z" PURGE="16" COMMENT="" />
    <EXPORT ORDINAL="1719" NAME="?replaceFieldTypes@DateTimePatternGenerator@icu_44@@QAE?AVUnicodeString@2@ABV32@0W4UDateTimePatternMatchOptions@@AAW4UErrorCode@@@Z" PURGE="20" COMMENT="" />
    <EXPORT ORDINAL="1720" NAME="?replaceFirst@RegexMatcher@icu_44@@UAE?AVUnicodeString@2@ABV32@AAW4UErrorCode@@@Z" PURGE="12" COMMENT="" />
    <EXPORT ORDINAL="1721" NAME="?replaceFirst@RegexMatcher@icu_44@@UAEPAUUText@@PAU3@0AAW4UErrorCode@@@Z" PURGE="12" COMMENT="" />
    <EXPORT ORDINAL="1722" NAME="?requireEnd@RegexMatcher@icu_44@@UBECXZ" PURGE="0" COMMENT="" />
    <EXPORT ORDINAL="1723" NAME="?reset@CollationElementIterator@icu_44@@QAEXXZ" PURGE="0" COMMENT="" />
    <EXPORT ORDINAL="1724" NAME="?reset@CollationKey@icu_44@@AAEAAV12@XZ" PURGE="0" COMMENT="" />
    <EXPORT ORDINAL="1725" NAME="?reset@RegexMatcher@icu_44@@UAEAAV12@ABVUnicodeString@2@@Z" PURGE="4" COMMENT="" />
    <EXPORT ORDINAL="1726" NAME="?reset@RegexMatcher@icu_44@@UAEAAV12@HAAW4UErrorCode@@@Z" PURGE="8" COMMENT="" />
    <EXPORT ORDINAL="1727" NAME="?reset@RegexMatcher@icu_44@@UAEAAV12@PAUUText@@@Z" PURGE="4" COMMENT="" />
    <EXPORT ORDINAL="1728" NAME="?reset@RegexMatcher@icu_44@@UAEAAV12@XZ" PURGE="0" COMMENT="" />
    <EXPORT ORDINAL="1729" NAME="?reset@SearchIterator@icu_44@@UAEXXZ" PURGE="0" COMMENT="" />
    <EXPORT ORDINAL="1730" NAME="?reset@StringSearch@icu_44@@UAEXXZ" PURGE="0" COMMENT="" />
    <EXPORT ORDINAL="1731" NAME="?resetPreserveRegion@RegexMatcher@icu_44@@QAEXXZ" PURGE="0" COMMENT="" />
    <EXPORT ORDINAL="1732" NAME="?resetStack@RegexMatcher@icu_44@@AAEPAUREStackFrame@2@XZ" PURGE="0" COMMENT="" />
    <EXPORT ORDINAL="1733" NAME="?resize@?$MaybeStackArray@D$0DE@@icu_44@@QAEPADHH@Z" PURGE="8" COMMENT="" />
    <EXPORT ORDINAL="1734" NAME="?resolveFields@Calendar@icu_44@@IAE?AW4UCalendarDateFields@@PAY1M@7$$CBH@Z" PURGE="4" COMMENT="" />
    <EXPORT ORDINAL="1735" NAME="?riseOrSet@CalendarAstronomer@icu_44@@QAENAAVCoordFunc@12@CNNN@Z" PURGE="32" COMMENT="" />
    <EXPORT ORDINAL="1736" NAME="?roll@Calendar@icu_44@@QAEXW4EDateFields@12@CAAW4UErrorCode@@@Z" PURGE="12" COMMENT="" />
    <EXPORT ORDINAL="1737" NAME="?roll@Calendar@icu_44@@QAEXW4UCalendarDateFields@@CAAW4UErrorCode@@@Z" PURGE="12" COMMENT="" />
    <EXPORT ORDINAL="1738" NAME="?roll@Calendar@icu_44@@UAEXW4EDateFields@12@HAAW4UErrorCode@@@Z" PURGE="12" COMMENT="" />
    <EXPORT ORDINAL="1739" NAME="?roll@Calendar@icu_44@@UAEXW4UCalendarDateFields@@HAAW4UErrorCode@@@Z" PURGE="12" COMMENT="" />
    <EXPORT ORDINAL="1740" NAME="?roll@GregorianCalendar@icu_44@@UAEXW4EDateFields@Calendar@2@HAAW4UErrorCode@@@Z" PURGE="12" COMMENT="" />
    <EXPORT ORDINAL="1741" NAME="?roll@GregorianCalendar@icu_44@@UAEXW4UCalendarDateFields@@HAAW4UErrorCode@@@Z" PURGE="12" COMMENT="" />
    <EXPORT ORDINAL="1742" NAME="?roll@HebrewCalendar@icu_44@@UAEXW4EDateFields@Calendar@2@HAAW4UErrorCode@@@Z" PURGE="12" COMMENT="" />
    <EXPORT ORDINAL="1743" NAME="?roll@HebrewCalendar@icu_44@@UAEXW4UCalendarDateFields@@HAAW4UErrorCode@@@Z" PURGE="12" COMMENT="" />
    <EXPORT ORDINAL="1744" NAME="?round@DigitList@icu_44@@QAEXH@Z" PURGE="4" COMMENT="" />
    <EXPORT ORDINAL="1745" NAME="?roundFixedPoint@DigitList@icu_44@@QAEXH@Z" PURGE="4" COMMENT="" />
    <EXPORT ORDINAL="1746" NAME="?safeClone@RuleBasedCollator@icu_44@@UAEPAVCollator@2@XZ" PURGE="0" COMMENT="" />
    <EXPORT ORDINAL="1747" NAME="?safeClone@StringSearch@icu_44@@UBEPAVSearchIterator@2@XZ" PURGE="0" COMMENT="" />
    <EXPORT ORDINAL="1748" NAME="?search@BoyerMooreSearch@icu_44@@QAECHAAH0@Z" PURGE="12" COMMENT="" />
    <EXPORT ORDINAL="1749" NAME="?searchInLocaleChain@TimeUnitFormat@icu_44@@AAEXW4EStyle@12@PBDW4UTimeUnitFields@TimeUnit@2@11PAVHashtable@2@AAW4UErrorCode@@@Z" PURGE="28" COMMENT="" />
    <EXPORT ORDINAL="1750" NAME="?secondaryOrder@CollationElementIterator@icu_44@@SAHH@Z" PURGE="0" COMMENT="" />
    <EXPORT ORDINAL="1751" NAME="?select@PluralRules@icu_44@@QBE?AVUnicodeString@2@H@Z" PURGE="8" COMMENT="" />
    <EXPORT ORDINAL="1752" NAME="?select@PluralRules@icu_44@@QBE?AVUnicodeString@2@N@Z" PURGE="12" COMMENT="" />
    <EXPORT ORDINAL="1753" NAME="?set2DigitYearStart@SimpleDateFormat@icu_44@@UAEXNAAW4UErrorCode@@@Z" PURGE="12" COMMENT="" />
    <EXPORT ORDINAL="1754" NAME="?set@Calendar@icu_44@@QAEXHHH@Z" PURGE="12" COMMENT="" />
    <EXPORT ORDINAL="1755" NAME="?set@Calendar@icu_44@@QAEXHHHHH@Z" PURGE="20" COMMENT="" />
    <EXPORT ORDINAL="1756" NAME="?set@Calendar@icu_44@@QAEXHHHHHH@Z" PURGE="24" COMMENT="" />
    <EXPORT ORDINAL="1757" NAME="?set@Calendar@icu_44@@QAEXW4UCalendarDateFields@@H@Z" PURGE="8" COMMENT="" />
    <EXPORT ORDINAL="1758" NAME="?set@DigitList@icu_44@@QAEXABVStringPiece@2@AAW4UErrorCode@@@Z" PURGE="8" COMMENT="" />
    <EXPORT ORDINAL="1759" NAME="?set@DigitList@icu_44@@QAEXH@Z" PURGE="4" COMMENT="" />
    <EXPORT ORDINAL="1760" NAME="?set@DigitList@icu_44@@QAEXN@Z" PURGE="8" COMMENT="" />
    <EXPORT ORDINAL="1761" NAME="?set@DigitList@icu_44@@QAEX_J@Z" PURGE="8" COMMENT="" />
    <EXPORT ORDINAL="1762" NAME="?set@Ecliptic@CalendarAstronomer@icu_44@@QAEXNN@Z" PURGE="16" COMMENT="" />
    <EXPORT ORDINAL="1763" NAME="?set@Equatorial@CalendarAstronomer@icu_44@@QAEXNN@Z" PURGE="16" COMMENT="" />
    <EXPORT ORDINAL="1764" NAME="?set@Horizon@CalendarAstronomer@icu_44@@QAEXNN@Z" PURGE="16" COMMENT="" />
    <EXPORT ORDINAL="1765" NAME="?set@MoonAge@CalendarAstronomer@icu_44@@QAEXN@Z" PURGE="8" COMMENT="" />
    <EXPORT ORDINAL="1766" NAME="?setAlgorithmic@NumberingSystem@icu_44@@AAEXC@Z" PURGE="4" COMMENT="" />
    <EXPORT ORDINAL="1767" NAME="?setAmPmStrings@DateFormatSymbols@icu_44@@QAEXPBVUnicodeString@2@H@Z" PURGE="8" COMMENT="" />
    <EXPORT ORDINAL="1768" NAME="?setAppendItemFormat@DateTimePatternGenerator@icu_44@@QAEXW4UDateTimePatternField@@ABVUnicodeString@2@@Z" PURGE="8" COMMENT="" />
    <EXPORT ORDINAL="1769" NAME="?setAppendItemName@DateTimePatternGenerator@icu_44@@QAEXW4UDateTimePatternField@@ABVUnicodeString@2@@Z" PURGE="8" COMMENT="" />
    <EXPORT ORDINAL="1770" NAME="?setArray@Formattable@icu_44@@QAEXPBV12@H@Z" PURGE="8" COMMENT="" />
    <EXPORT ORDINAL="1771" NAME="?setAttribute@RuleBasedCollator@icu_44@@UAEXW4UColAttribute@@W4UColAttributeValue@@AAW4UErrorCode@@@Z" PURGE="12" COMMENT="" />
    <EXPORT ORDINAL="1772" NAME="?setAttribute@SearchIterator@icu_44@@QAEXW4USearchAttribute@@W4USearchAttributeValue@@AAW4UErrorCode@@@Z" PURGE="12" COMMENT="" />
    <EXPORT ORDINAL="1773" NAME="?setAvailableFormat@DateTimePatternGenerator@icu_44@@AAEXABVUnicodeString@2@AAW4UErrorCode@@@Z" PURGE="8" COMMENT="" />
    <EXPORT ORDINAL="1774" NAME="?setBeginIndex@FieldPosition@icu_44@@QAEXH@Z" PURGE="4" COMMENT="" />
    <EXPORT ORDINAL="1775" NAME="?setBreakIterator@SearchIterator@icu_44@@QAEXPAVBreakIterator@2@AAW4UErrorCode@@@Z" PURGE="8" COMMENT="" />
    <EXPORT ORDINAL="1776" NAME="?setCalendar@DateFormat@icu_44@@UAEXABVCalendar@2@@Z" PURGE="4" COMMENT="" />
    <EXPORT ORDINAL="1777" NAME="?setChoices@ChoiceFormat@icu_44@@UAEXPBNPBCPBVUnicodeString@2@H@Z" PURGE="16" COMMENT="" />
    <EXPORT ORDINAL="1778" NAME="?setChoices@ChoiceFormat@icu_44@@UAEXPBNPBVUnicodeString@2@H@Z" PURGE="12" COMMENT="" />
    <EXPORT ORDINAL="1779" NAME="?setCollator@StringSearch@icu_44@@QAEXPAVRuleBasedCollator@2@AAW4UErrorCode@@@Z" PURGE="8" COMMENT="" />
    <EXPORT ORDINAL="1780" NAME="?setCount@DigitList@icu_44@@QAEXH@Z" PURGE="4" COMMENT="" />
    <EXPORT ORDINAL="1781" NAME="?setCurrency@DecimalFormat@icu_44@@UAEXPB_W@Z" PURGE="4" COMMENT="" />
    <EXPORT ORDINAL="1782" NAME="?setCurrency@DecimalFormat@icu_44@@UAEXPB_WAAW4UErrorCode@@@Z" PURGE="8" COMMENT="" />
    <EXPORT ORDINAL="1783" NAME="?setCurrency@NumberFormat@icu_44@@UAEXPB_WAAW4UErrorCode@@@Z" PURGE="8" COMMENT="" />
    <EXPORT ORDINAL="1784" NAME="?setCurrencyForSymbols@DecimalFormat@icu_44@@AAEXXZ" PURGE="0" COMMENT="" />
    <EXPORT ORDINAL="1785" NAME="?setCurrencyInternally@DecimalFormat@icu_44@@EAEXPB_WAAW4UErrorCode@@@Z" PURGE="8" COMMENT="" />
    <EXPORT ORDINAL="1786" NAME="?setCurrencyPluralInfo@DecimalFormat@icu_44@@UAEXABVCurrencyPluralInfo@2@@Z" PURGE="4" COMMENT="" />
    <EXPORT ORDINAL="1787" NAME="?setCurrencyPluralPattern@CurrencyPluralInfo@icu_44@@QAEXABVUnicodeString@2@0AAW4UErrorCode@@@Z" PURGE="12" COMMENT="" />
    <EXPORT ORDINAL="1788" NAME="?setDSTSavings@SimpleTimeZone@icu_44@@QAEXHAAW4UErrorCode@@@Z" PURGE="8" COMMENT="" />
    <EXPORT ORDINAL="1789" NAME="?setData@FieldPositionIterator@icu_44@@AAEXPAVUVector32@2@AAW4UErrorCode@@@Z" PURGE="8" COMMENT="" />
    <EXPORT ORDINAL="1790" NAME="?setDate@CalendarAstronomer@icu_44@@QAEXN@Z" PURGE="8" COMMENT="" />
    <EXPORT ORDINAL="1791" NAME="?setDate@Formattable@icu_44@@QAEXN@Z" PURGE="8" COMMENT="" />
    <EXPORT ORDINAL="1792" NAME="?setDateFormatSymbols@SimpleDateFormat@icu_44@@UAEXABVDateFormatSymbols@2@@Z" PURGE="4" COMMENT="" />
    <EXPORT ORDINAL="1793" NAME="?setDateIntervalInfo@DateIntervalFormat@icu_44@@QAEXABVDateIntervalInfo@2@AAW4UErrorCode@@@Z" PURGE="8" COMMENT="" />
    <EXPORT ORDINAL="1794" NAME="?setDateTimeFormat@DateTimePatternGenerator@icu_44@@QAEXABVUnicodeString@2@@Z" PURGE="4" COMMENT="" />
    <EXPORT ORDINAL="1795" NAME="?setDateTimeFromCalendar@DateTimePatternGenerator@icu_44@@AAEXABVLocale@2@AAW4UErrorCode@@@Z" PURGE="8" COMMENT="" />
    <EXPORT ORDINAL="1796" NAME="?setDecimal@DateTimePatternGenerator@icu_44@@QAEXABVUnicodeString@2@@Z" PURGE="4" COMMENT="" />
    <EXPORT ORDINAL="1797" NAME="?setDecimalAt@DigitList@icu_44@@QAEXH@Z" PURGE="4" COMMENT="" />
    <EXPORT ORDINAL="1798" NAME="?setDecimalFormatSymbols@DecimalFormat@icu_44@@UAEXABVDecimalFormatSymbols@2@@Z" PURGE="4" COMMENT="" />
    <EXPORT ORDINAL="1799" NAME="?setDecimalNumber@Formattable@icu_44@@QAEXABVStringPiece@2@AAW4UErrorCode@@@Z" PURGE="8" COMMENT="" />
    <EXPORT ORDINAL="1800" NAME="?setDecimalSeparatorAlwaysShown@DecimalFormat@icu_44@@UAEXC@Z" PURGE="4" COMMENT="" />
    <EXPORT ORDINAL="1801" NAME="?setDecimalSymbols@DateTimePatternGenerator@icu_44@@AAEXABVLocale@2@AAW4UErrorCode@@@Z" PURGE="8" COMMENT="" />
    <EXPORT ORDINAL="1802" NAME="?setDefault@TimeZone@icu_44@@SAXABV12@@Z" PURGE="0" COMMENT="" />
    <EXPORT ORDINAL="1803" NAME="?setDefaultRuleSet@RuleBasedNumberFormat@icu_44@@UAEXABVUnicodeString@2@AAW4UErrorCode@@@Z" PURGE="8" COMMENT="" />
    <EXPORT ORDINAL="1804" NAME="?setDesc@NumberingSystem@icu_44@@AAEXVUnicodeString@2@@Z" PURGE="36" COMMENT="" />
    <EXPORT ORDINAL="1805" NAME="?setDigit@DigitList@icu_44@@QAEXHD@Z" PURGE="8" COMMENT="" />
    <EXPORT ORDINAL="1806" NAME="?setDouble@Formattable@icu_44@@QAEXN@Z" PURGE="8" COMMENT="" />
    <EXPORT ORDINAL="1807" NAME="?setEndIndex@FieldPosition@icu_44@@QAEXH@Z" PURGE="4" COMMENT="" />
    <EXPORT ORDINAL="1808" NAME="?setEndRule@SimpleTimeZone@icu_44@@QAEXHHHAAW4UErrorCode@@@Z" PURGE="16" COMMENT="" />
    <EXPORT ORDINAL="1809" NAME="?setEndRule@SimpleTimeZone@icu_44@@QAEXHHHHAAW4UErrorCode@@@Z" PURGE="20" COMMENT="" />
    <EXPORT ORDINAL="1810" NAME="?setEndRule@SimpleTimeZone@icu_44@@QAEXHHHHCAAW4UErrorCode@@@Z" PURGE="24" COMMENT="" />
    <EXPORT ORDINAL="1811" NAME="?setEndRule@SimpleTimeZone@icu_44@@QAEXHHHHW4TimeMode@12@AAW4UErrorCode@@@Z" PURGE="24" COMMENT="" />
    <EXPORT ORDINAL="1812" NAME="?setEndRule@SimpleTimeZone@icu_44@@QAEXHHHHW4TimeMode@12@CAAW4UErrorCode@@@Z" PURGE="28" COMMENT="" />
    <EXPORT ORDINAL="1813" NAME="?setEndRule@SimpleTimeZone@icu_44@@QAEXHHHW4TimeMode@12@AAW4UErrorCode@@@Z" PURGE="20" COMMENT="" />
    <EXPORT ORDINAL="1814" NAME="?setEraNames@DateFormatSymbols@icu_44@@QAEXPBVUnicodeString@2@H@Z" PURGE="8" COMMENT="" />
    <EXPORT ORDINAL="1815" NAME="?setEras@DateFormatSymbols@icu_44@@QAEXPBVUnicodeString@2@H@Z" PURGE="8" COMMENT="" />
    <EXPORT ORDINAL="1816" NAME="?setExponentSignAlwaysShown@DecimalFormat@icu_44@@UAEXC@Z" PURGE="4" COMMENT="" />
    <EXPORT ORDINAL="1817" NAME="?setFallbackIntervalPattern@DateIntervalInfo@icu_44@@QAEXABVUnicodeString@2@AAW4UErrorCode@@@Z" PURGE="8" COMMENT="" />
    <EXPORT ORDINAL="1818" NAME="?setFallbackPattern@DateIntervalFormat@icu_44@@AAEXW4UCalendarDateFields@@ABVUnicodeString@2@AAW4UErrorCode@@@Z" PURGE="12" COMMENT="" />
    <EXPORT ORDINAL="1819" NAME="?setField@FieldPosition@icu_44@@QAEXH@Z" PURGE="4" COMMENT="" />
    <EXPORT ORDINAL="1820" NAME="?setFirstDayOfWeek@Calendar@icu_44@@QAEXW4UCalendarDaysOfWeek@@@Z" PURGE="4" COMMENT="" />
    <EXPORT ORDINAL="1821" NAME="?setFormat@MessageFormat@icu_44@@UAEXABVUnicodeString@2@ABVFormat@2@AAW4UErrorCode@@@Z" PURGE="12" COMMENT="" />
    <EXPORT ORDINAL="1822" NAME="?setFormat@MessageFormat@icu_44@@UAEXHABVFormat@2@@Z" PURGE="8" COMMENT="" />
    <EXPORT ORDINAL="1823" NAME="?setFormatWidth@DecimalFormat@icu_44@@UAEXH@Z" PURGE="4" COMMENT="" />
    <EXPORT ORDINAL="1824" NAME="?setFormats@MessageFormat@icu_44@@UAEXPAPBVFormat@2@H@Z" PURGE="8" COMMENT="" />
    <EXPORT ORDINAL="1825" NAME="?setFrom@TimeZoneTransition@icu_44@@QAEXABVTimeZoneRule@2@@Z" PURGE="4" COMMENT="" />
    <EXPORT ORDINAL="1826" NAME="?setGregorianChange@GregorianCalendar@icu_44@@QAEXNAAW4UErrorCode@@@Z" PURGE="12" COMMENT="" />
    <EXPORT ORDINAL="1827" NAME="?setGroupingSize@DecimalFormat@icu_44@@UAEXH@Z" PURGE="4" COMMENT="" />
    <EXPORT ORDINAL="1828" NAME="?setGroupingUsed@NumberFormat@icu_44@@UAEXC@Z" PURGE="4" COMMENT="" />
    <EXPORT ORDINAL="1829" NAME="?setID@TimeZone@icu_44@@QAEXABVUnicodeString@2@@Z" PURGE="4" COMMENT="" />
    <EXPORT ORDINAL="1830" NAME="?setID@Transliterator@icu_44@@IAEXABVUnicodeString@2@@Z" PURGE="4" COMMENT="" />
    <EXPORT ORDINAL="1831" NAME="?setInt64@Formattable@icu_44@@QAEX_J@Z" PURGE="8" COMMENT="" />
    <EXPORT ORDINAL="1832" NAME="?setIntervalPattern@DateIntervalFormat@icu_44@@AAECW4UCalendarDateFields@@PBVUnicodeString@2@1CPAV42@2@Z" PURGE="24" COMMENT="" />
    <EXPORT ORDINAL="1833" NAME="?setIntervalPattern@DateIntervalFormat@icu_44@@AAEXW4UCalendarDateFields@@ABVUnicodeString@2@@Z" PURGE="8" COMMENT="" />
    <EXPORT ORDINAL="1834" NAME="?setIntervalPattern@DateIntervalFormat@icu_44@@AAEXW4UCalendarDateFields@@ABVUnicodeString@2@C@Z" PURGE="12" COMMENT="" />
    <EXPORT ORDINAL="1835" NAME="?setIntervalPattern@DateIntervalInfo@icu_44@@QAEXABVUnicodeString@2@W4UCalendarDateFields@@0AAW4UErrorCode@@@Z" PURGE="16" COMMENT="" />
    <EXPORT ORDINAL="1836" NAME="?setIntervalPatternInternally@DateIntervalInfo@icu_44@@AAEXABVUnicodeString@2@W4UCalendarDateFields@@0AAW4UErrorCode@@@Z" PURGE="16" COMMENT="" />
    <EXPORT ORDINAL="1837" NAME="?setJulianDay@CalendarAstronomer@icu_44@@QAEXN@Z" PURGE="8" COMMENT="" />
    <EXPORT ORDINAL="1838" NAME="?setLastModified@VTimeZone@icu_44@@QAEXN@Z" PURGE="8" COMMENT="" />
    <EXPORT ORDINAL="1839" NAME="?setLenient@Calendar@icu_44@@QAEXC@Z" PURGE="4" COMMENT="" />
    <EXPORT ORDINAL="1840" NAME="?setLenient@DateFormat@icu_44@@UAEXC@Z" PURGE="4" COMMENT="" />
    <EXPORT ORDINAL="1841" NAME="?setLenient@RuleBasedNumberFormat@icu_44@@UAEXC@Z" PURGE="4" COMMENT="" />
    <EXPORT ORDINAL="1842" NAME="?setLocalPatternChars@DateFormatSymbols@icu_44@@QAEXABVUnicodeString@2@@Z" PURGE="4" COMMENT="" />
    <EXPORT ORDINAL="1843" NAME="?setLocale@CurrencyPluralInfo@icu_44@@QAEXABVLocale@2@AAW4UErrorCode@@@Z" PURGE="8" COMMENT="" />
    <EXPORT ORDINAL="1844" NAME="?setLocale@MessageFormat@icu_44@@UAEXABVLocale@2@@Z" PURGE="4" COMMENT="" />
    <EXPORT ORDINAL="1845" NAME="?setLocale@PluralFormat@icu_44@@QAEXABVLocale@2@AAW4UErrorCode@@@Z" PURGE="8" COMMENT="" />
    <EXPORT ORDINAL="1846" NAME="?setLocale@TimeUnitFormat@icu_44@@QAEXABVLocale@2@AAW4UErrorCode@@@Z" PURGE="8" COMMENT="" />
    <EXPORT ORDINAL="1847" NAME="?setLocaleIDs@Format@icu_44@@IAEXPBD0@Z" PURGE="8" COMMENT="" />
    <EXPORT ORDINAL="1848" NAME="?setLocales@Collator@icu_44@@MAEXABVLocale@2@00@Z" PURGE="12" COMMENT="" />
    <EXPORT ORDINAL="1849" NAME="?setLocales@RuleBasedCollator@icu_44@@MAEXABVLocale@2@00@Z" PURGE="12" COMMENT="" />
    <EXPORT ORDINAL="1850" NAME="?setLong@Formattable@icu_44@@QAEXH@Z" PURGE="4" COMMENT="" />
    <EXPORT ORDINAL="1851" NAME="?setMatchCallback@RegexMatcher@icu_44@@UAEXP6ACPBXH@Z0AAW4UErrorCode@@@Z" PURGE="12" COMMENT="" />
    <EXPORT ORDINAL="1852" NAME="?setMatchLength@SearchIterator@icu_44@@MAEXH@Z" PURGE="4" COMMENT="" />
    <EXPORT ORDINAL="1853" NAME="?setMatchNotFound@SearchIterator@icu_44@@IAEXXZ" PURGE="0" COMMENT="" />
    <EXPORT ORDINAL="1854" NAME="?setMatchStart@SearchIterator@icu_44@@MAEXH@Z" PURGE="4" COMMENT="" />
    <EXPORT ORDINAL="1855" NAME="?setMaximumContextLength@Transliterator@icu_44@@IAEXH@Z" PURGE="4" COMMENT="" />
    <EXPORT ORDINAL="1856" NAME="?setMaximumFractionDigits@DecimalFormat@icu_44@@UAEXH@Z" PURGE="4" COMMENT="" />
    <EXPORT ORDINAL="1857" NAME="?setMaximumFractionDigits@NumberFormat@icu_44@@UAEXH@Z" PURGE="4" COMMENT="" />
    <EXPORT ORDINAL="1858" NAME="?setMaximumIntegerDigits@DecimalFormat@icu_44@@UAEXH@Z" PURGE="4" COMMENT="" />
    <EXPORT ORDINAL="1859" NAME="?setMaximumIntegerDigits@NumberFormat@icu_44@@UAEXH@Z" PURGE="4" COMMENT="" />
    <EXPORT ORDINAL="1860" NAME="?setMaximumSignificantDigits@DecimalFormat@icu_44@@QAEXH@Z" PURGE="4" COMMENT="" />
    <EXPORT ORDINAL="1861" NAME="?setMinimalDaysInFirstWeek@Calendar@icu_44@@QAEXE@Z" PURGE="4" COMMENT="" />
    <EXPORT ORDINAL="1862" NAME="?setMinimumExponentDigits@DecimalFormat@icu_44@@UAEXC@Z" PURGE="4" COMMENT="" />
    <EXPORT ORDINAL="1863" NAME="?setMinimumFractionDigits@DecimalFormat@icu_44@@UAEXH@Z" PURGE="4" COMMENT="" />
    <EXPORT ORDINAL="1864" NAME="?setMinimumFractionDigits@NumberFormat@icu_44@@UAEXH@Z" PURGE="4" COMMENT="" />
    <EXPORT ORDINAL="1865" NAME="?setMinimumIntegerDigits@DecimalFormat@icu_44@@UAEXH@Z" PURGE="4" COMMENT="" />
    <EXPORT ORDINAL="1866" NAME="?setMinimumIntegerDigits@NumberFormat@icu_44@@UAEXH@Z" PURGE="4" COMMENT="" />
    <EXPORT ORDINAL="1867" NAME="?setMinimumSignificantDigits@DecimalFormat@icu_44@@QAEXH@Z" PURGE="4" COMMENT="" />
    <EXPORT ORDINAL="1868" NAME="?setMonths@DateFormatSymbols@icu_44@@QAEXPBVUnicodeString@2@H@Z" PURGE="8" COMMENT="" />
    <EXPORT ORDINAL="1869" NAME="?setMonths@DateFormatSymbols@icu_44@@QAEXPBVUnicodeString@2@HW4DtContextType@12@W4DtWidthType@12@@Z" PURGE="16" COMMENT="" />
    <EXPORT ORDINAL="1870" NAME="?setMultiplier@DecimalFormat@icu_44@@UAEXH@Z" PURGE="4" COMMENT="" />
    <EXPORT ORDINAL="1871" NAME="?setNarrowEras@DateFormatSymbols@icu_44@@QAEXPBVUnicodeString@2@H@Z" PURGE="8" COMMENT="" />
    <EXPORT ORDINAL="1872" NAME="?setNegativePrefix@DecimalFormat@icu_44@@UAEXABVUnicodeString@2@@Z" PURGE="4" COMMENT="" />
    <EXPORT ORDINAL="1873" NAME="?setNegativeSuffix@DecimalFormat@icu_44@@UAEXABVUnicodeString@2@@Z" PURGE="4" COMMENT="" />
    <EXPORT ORDINAL="1874" NAME="?setNumberFormat@DateFormat@icu_44@@UAEXABVNumberFormat@2@@Z" PURGE="4" COMMENT="" />
    <EXPORT ORDINAL="1875" NAME="?setNumberFormat@PluralFormat@icu_44@@QAEXPBVNumberFormat@2@AAW4UErrorCode@@@Z" PURGE="8" COMMENT="" />
    <EXPORT ORDINAL="1876" NAME="?setNumberFormat@TimeUnitFormat@icu_44@@QAEXABVNumberFormat@2@AAW4UErrorCode@@@Z" PURGE="8" COMMENT="" />
    <EXPORT ORDINAL="1877" NAME="?setOffset@CollationElementIterator@icu_44@@QAEXHAAW4UErrorCode@@@Z" PURGE="8" COMMENT="" />
    <EXPORT ORDINAL="1878" NAME="?setOffset@StringSearch@icu_44@@UAEXHAAW4UErrorCode@@@Z" PURGE="8" COMMENT="" />
    <EXPORT ORDINAL="1879" NAME="?setPadCharacter@DecimalFormat@icu_44@@UAEXABVUnicodeString@2@@Z" PURGE="4" COMMENT="" />
    <EXPORT ORDINAL="1880" NAME="?setPadPosition@DecimalFormat@icu_44@@UAEXW4EPadPosition@12@@Z" PURGE="4" COMMENT="" />
    <EXPORT ORDINAL="1881" NAME="?setParseIntegerOnly@NumberFormat@icu_44@@UAEXC@Z" PURGE="4" COMMENT="" />
    <EXPORT ORDINAL="1882" NAME="?setPattern@StringSearch@icu_44@@QAEXABVUnicodeString@2@AAW4UErrorCode@@@Z" PURGE="8" COMMENT="" />
    <EXPORT ORDINAL="1883" NAME="?setPatternForCurrencySpacing@DecimalFormatSymbols@icu_44@@QAEXW4ECurrencySpacing@12@CABVUnicodeString@2@@Z" PURGE="12" COMMENT="" />
    <EXPORT ORDINAL="1884" NAME="?setPatternInfo@DateIntervalFormat@icu_44@@AAEXW4UCalendarDateFields@@PBVUnicodeString@2@1C@Z" PURGE="16" COMMENT="" />
    <EXPORT ORDINAL="1885" NAME="?setPluralRules@CurrencyPluralInfo@icu_44@@QAEXABVUnicodeString@2@AAW4UErrorCode@@@Z" PURGE="8" COMMENT="" />
    <EXPORT ORDINAL="1886" NAME="?setPositive@DigitList@icu_44@@QAEXC@Z" PURGE="4" COMMENT="" />
    <EXPORT ORDINAL="1887" NAME="?setPositivePrefix@DecimalFormat@icu_44@@UAEXABVUnicodeString@2@@Z" PURGE="4" COMMENT="" />
    <EXPORT ORDINAL="1888" NAME="?setPositiveSuffix@DecimalFormat@icu_44@@UAEXABVUnicodeString@2@@Z" PURGE="4" COMMENT="" />
    <EXPORT ORDINAL="1889" NAME="?setQuarters@DateFormatSymbols@icu_44@@QAEXPBVUnicodeString@2@HW4DtContextType@12@W4DtWidthType@12@@Z" PURGE="16" COMMENT="" />
    <EXPORT ORDINAL="1890" NAME="?setRadix@NumberingSystem@icu_44@@AAEXH@Z" PURGE="4" COMMENT="" />
    <EXPORT ORDINAL="1891" NAME="?setRawOffset@RuleBasedTimeZone@icu_44@@UAEXH@Z" PURGE="4" COMMENT="" />
    <EXPORT ORDINAL="1892" NAME="?setRawOffset@SimpleTimeZone@icu_44@@UAEXH@Z" PURGE="4" COMMENT="" />
    <EXPORT ORDINAL="1893" NAME="?setRawOffset@VTimeZone@icu_44@@UAEXH@Z" PURGE="4" COMMENT="" />
    <EXPORT ORDINAL="1894" NAME="?setRoundingIncrement@DecimalFormat@icu_44@@UAEXN@Z" PURGE="8" COMMENT="" />
    <EXPORT ORDINAL="1895" NAME="?setRoundingMode@DecimalFormat@icu_44@@UAEXW4ERoundingMode@12@@Z" PURGE="4" COMMENT="" />
    <EXPORT ORDINAL="1896" NAME="?setRoundingMode@DigitList@icu_44@@QAEXW4ERoundingMode@DecimalFormat@2@@Z" PURGE="4" COMMENT="" />
    <EXPORT ORDINAL="1897" NAME="?setRuleStringFromCollator@RuleBasedCollator@icu_44@@AAEXXZ" PURGE="0" COMMENT="" />
    <EXPORT ORDINAL="1898" NAME="?setScientificNotation@DecimalFormat@icu_44@@UAEXC@Z" PURGE="4" COMMENT="" />
    <EXPORT ORDINAL="1899" NAME="?setSecondaryGroupingSize@DecimalFormat@icu_44@@UAEXH@Z" PURGE="4" COMMENT="" />
    <EXPORT ORDINAL="1900" NAME="?setSeparateDateTimePtn@DateIntervalFormat@icu_44@@AAECABVUnicodeString@2@0@Z" PURGE="8" COMMENT="" />
    <EXPORT ORDINAL="1901" NAME="?setShortMonths@DateFormatSymbols@icu_44@@QAEXPBVUnicodeString@2@H@Z" PURGE="8" COMMENT="" />
    <EXPORT ORDINAL="1902" NAME="?setShortWeekdays@DateFormatSymbols@icu_44@@QAEXPBVUnicodeString@2@H@Z" PURGE="8" COMMENT="" />
    <EXPORT ORDINAL="1903" NAME="?setSignificantDigitsUsed@DecimalFormat@icu_44@@QAEXC@Z" PURGE="4" COMMENT="" />
    <EXPORT ORDINAL="1904" NAME="?setStackLimit@RegexMatcher@icu_44@@UAEXHAAW4UErrorCode@@@Z" PURGE="8" COMMENT="" />
    <EXPORT ORDINAL="1905" NAME="?setStartRule@SimpleTimeZone@icu_44@@QAEXHHHAAW4UErrorCode@@@Z" PURGE="16" COMMENT="" />
    <EXPORT ORDINAL="1906" NAME="?setStartRule@SimpleTimeZone@icu_44@@QAEXHHHHAAW4UErrorCode@@@Z" PURGE="20" COMMENT="" />
    <EXPORT ORDINAL="1907" NAME="?setStartRule@SimpleTimeZone@icu_44@@QAEXHHHHCAAW4UErrorCode@@@Z" PURGE="24" COMMENT="" />
    <EXPORT ORDINAL="1908" NAME="?setStartRule@SimpleTimeZone@icu_44@@QAEXHHHHW4TimeMode@12@AAW4UErrorCode@@@Z" PURGE="24" COMMENT="" />
    <EXPORT ORDINAL="1909" NAME="?setStartRule@SimpleTimeZone@icu_44@@QAEXHHHHW4TimeMode@12@CAAW4UErrorCode@@@Z" PURGE="28" COMMENT="" />
    <EXPORT ORDINAL="1910" NAME="?setStartRule@SimpleTimeZone@icu_44@@QAEXHHHW4TimeMode@12@AAW4UErrorCode@@@Z" PURGE="20" COMMENT="" />
    <EXPORT ORDINAL="1911" NAME="?setStartYear@SimpleTimeZone@icu_44@@QAEXH@Z" PURGE="4" COMMENT="" />
    <EXPORT ORDINAL="1912" NAME="?setStrength@RuleBasedCollator@icu_44@@UAEXW4ECollationStrength@Collator@2@@Z" PURGE="4" COMMENT="" />
    <EXPORT ORDINAL="1913" NAME="?setString@Formattable@icu_44@@QAEXABVUnicodeString@2@@Z" PURGE="4" COMMENT="" />
    <EXPORT ORDINAL="1914" NAME="?setSymbol@DecimalFormatSymbols@icu_44@@QAEXW4ENumberFormatSymbol@12@ABVUnicodeString@2@@Z" PURGE="8" COMMENT="" />
    <EXPORT ORDINAL="1915" NAME="?setTZURL@VTimeZone@icu_44@@QAEXABVUnicodeString@2@@Z" PURGE="4" COMMENT="" />
    <EXPORT ORDINAL="1916" NAME="?setTargetString@BoyerMooreSearch@icu_44@@QAEXPBVUnicodeString@2@AAW4UErrorCode@@@Z" PURGE="8" COMMENT="" />
    <EXPORT ORDINAL="1917" NAME="?setText@CollationElementIterator@icu_44@@QAEXAAVCharacterIterator@2@AAW4UErrorCode@@@Z" PURGE="8" COMMENT="" />
    <EXPORT ORDINAL="1918" NAME="?setText@CollationElementIterator@icu_44@@QAEXABVUnicodeString@2@AAW4UErrorCode@@@Z" PURGE="8" COMMENT="" />
    <EXPORT ORDINAL="1919" NAME="?setText@SearchIterator@icu_44@@UAEXAAVCharacterIterator@2@AAW4UErrorCode@@@Z" PURGE="8" COMMENT="" />
    <EXPORT ORDINAL="1920" NAME="?setText@SearchIterator@icu_44@@UAEXABVUnicodeString@2@AAW4UErrorCode@@@Z" PURGE="8" COMMENT="" />
    <EXPORT ORDINAL="1921" NAME="?setText@StringSearch@icu_44@@UAEXAAVCharacterIterator@2@AAW4UErrorCode@@@Z" PURGE="8" COMMENT="" />
    <EXPORT ORDINAL="1922" NAME="?setText@StringSearch@icu_44@@UAEXABVUnicodeString@2@AAW4UErrorCode@@@Z" PURGE="8" COMMENT="" />
    <EXPORT ORDINAL="1923" NAME="?setTime@Calendar@icu_44@@QAEXNAAW4UErrorCode@@@Z" PURGE="12" COMMENT="" />
    <EXPORT ORDINAL="1924" NAME="?setTime@CalendarAstronomer@icu_44@@QAEXN@Z" PURGE="8" COMMENT="" />
    <EXPORT ORDINAL="1925" NAME="?setTime@TimeZoneTransition@icu_44@@QAEXN@Z" PURGE="8" COMMENT="" />
    <EXPORT ORDINAL="1926" NAME="?setTimeInMillis@Calendar@icu_44@@IAEXNAAW4UErrorCode@@@Z" PURGE="12" COMMENT="" />
    <EXPORT ORDINAL="1927" NAME="?setTimeLimit@RegexMatcher@icu_44@@UAEXHAAW4UErrorCode@@@Z" PURGE="8" COMMENT="" />
    <EXPORT ORDINAL="1928" NAME="?setTimeZone@Calendar@icu_44@@QAEXABVTimeZone@2@@Z" PURGE="4" COMMENT="" />
    <EXPORT ORDINAL="1929" NAME="?setTimeZone@DateFormat@icu_44@@UAEXABVTimeZone@2@@Z" PURGE="4" COMMENT="" />
    <EXPORT ORDINAL="1930" NAME="?setTo@TimeZoneTransition@icu_44@@QAEXABVTimeZoneRule@2@@Z" PURGE="4" COMMENT="" />
    <EXPORT ORDINAL="1931" NAME="?setToBogus@CollationKey@icu_44@@AAEAAV12@XZ" PURGE="0" COMMENT="" />
    <EXPORT ORDINAL="1932" NAME="?setToZero@DigitList@icu_44@@QAEXXZ" PURGE="0" COMMENT="" />
    <EXPORT ORDINAL="1933" NAME="?setTrace@RegexMatcher@icu_44@@QAEXC@Z" PURGE="4" COMMENT="" />
    <EXPORT ORDINAL="1934" NAME="?setTransliterators@CompoundTransliterator@icu_44@@QAEXQBQAVTransliterator@2@H@Z" PURGE="8" COMMENT="" />
    <EXPORT ORDINAL="1935" NAME="?setUCollator@RuleBasedCollator@icu_44@@AAEXABVLocale@2@AAW4UErrorCode@@@Z" PURGE="8" COMMENT="" />
    <EXPORT ORDINAL="1936" NAME="?setUCollator@RuleBasedCollator@icu_44@@AAEXPAUUCollator@@@Z" PURGE="4" COMMENT="" />
    <EXPORT ORDINAL="1937" NAME="?setUCollator@RuleBasedCollator@icu_44@@AAEXPBDAAW4UErrorCode@@@Z" PURGE="8" COMMENT="" />
    <EXPORT ORDINAL="1938" NAME="?setVariableTop@RuleBasedCollator@icu_44@@UAEIPB_WHAAW4UErrorCode@@@Z" PURGE="12" COMMENT="" />
    <EXPORT ORDINAL="1939" NAME="?setVariableTop@RuleBasedCollator@icu_44@@UAEIVUnicodeString@2@AAW4UErrorCode@@@Z" PURGE="40" COMMENT="" />
    <EXPORT ORDINAL="1940" NAME="?setVariableTop@RuleBasedCollator@icu_44@@UAEXIAAW4UErrorCode@@@Z" PURGE="8" COMMENT="" />
    <EXPORT ORDINAL="1941" NAME="?setWeekData@Calendar@icu_44@@AAEXABVLocale@2@PBDAAW4UErrorCode@@@Z" PURGE="12" COMMENT="" />
    <EXPORT ORDINAL="1942" NAME="?setWeekdays@DateFormatSymbols@icu_44@@QAEXPBVUnicodeString@2@H@Z" PURGE="8" COMMENT="" />
    <EXPORT ORDINAL="1943" NAME="?setWeekdays@DateFormatSymbols@icu_44@@QAEXPBVUnicodeString@2@HW4DtContextType@12@W4DtWidthType@12@@Z" PURGE="16" COMMENT="" />
    <EXPORT ORDINAL="1944" NAME="?setZoneStrings@DateFormatSymbols@icu_44@@QAEXPBQBVUnicodeString@2@HH@Z" PURGE="12" COMMENT="" />
    <EXPORT ORDINAL="1945" NAME="?setup@TimeUnitFormat@icu_44@@AAEXAAW4UErrorCode@@@Z" PURGE="4" COMMENT="" />
    <EXPORT ORDINAL="1946" NAME="?setupCurrencyAffixPatterns@DecimalFormat@icu_44@@AAEXAAW4UErrorCode@@@Z" PURGE="4" COMMENT="" />
    <EXPORT ORDINAL="1947" NAME="?setupCurrencyAffixes@DecimalFormat@icu_44@@AAEXABVUnicodeString@2@CCAAW4UErrorCode@@@Z" PURGE="16" COMMENT="" />
    <EXPORT ORDINAL="1948" NAME="?setupCurrencyPluralPattern@CurrencyPluralInfo@icu_44@@AAEXABVLocale@2@AAW4UErrorCode@@@Z" PURGE="8" COMMENT="" />
    <EXPORT ORDINAL="1949" NAME="?size@CEList@icu_44@@QBEHXZ" PURGE="0" COMMENT="" />
    <EXPORT ORDINAL="1950" NAME="?size@StringList@icu_44@@QBEHXZ" PURGE="0" COMMENT="" />
    <EXPORT ORDINAL="1951" NAME="?skipPadding@DecimalFormat@icu_44@@ABEHABVUnicodeString@2@H@Z" PURGE="8" COMMENT="" />
    <EXPORT ORDINAL="1952" NAME="?skipRuleWhiteSpace@DecimalFormat@icu_44@@CAHABVUnicodeString@2@H@Z" PURGE="0" COMMENT="" />
    <EXPORT ORDINAL="1953" NAME="?skipRuleWhiteSpace@SimpleDateFormat@icu_44@@ABEHABVUnicodeString@2@H@Z" PURGE="8" COMMENT="" />
    <EXPORT ORDINAL="1954" NAME="?skipUWhiteSpace@DecimalFormat@icu_44@@CAHABVUnicodeString@2@H@Z" PURGE="0" COMMENT="" />
    <EXPORT ORDINAL="1955" NAME="?skipUWhiteSpace@SimpleDateFormat@icu_44@@ABEHABVUnicodeString@2@H@Z" PURGE="8" COMMENT="" />
    <EXPORT ORDINAL="1956" NAME="?split@RegexMatcher@icu_44@@UAEHABVUnicodeString@2@QAV32@HAAW4UErrorCode@@@Z" PURGE="16" COMMENT="" />
    <EXPORT ORDINAL="1957" NAME="?split@RegexMatcher@icu_44@@UAEHPAUUText@@QAPAU3@HAAW4UErrorCode@@@Z" PURGE="16" COMMENT="" />
    <EXPORT ORDINAL="1958" NAME="?split@RegexPattern@icu_44@@UBEHABVUnicodeString@2@QAV32@HAAW4UErrorCode@@@Z" PURGE="16" COMMENT="" />
    <EXPORT ORDINAL="1959" NAME="?split@RegexPattern@icu_44@@UBEHPAUUText@@QAPAU3@HAAW4UErrorCode@@@Z" PURGE="16" COMMENT="" />
    <EXPORT ORDINAL="1960" NAME="?splitPatternInto2Part@DateIntervalFormat@icu_44@@CAHABVUnicodeString@2@@Z" PURGE="0" COMMENT="" />
    <EXPORT ORDINAL="1961" NAME="?start@RegexMatcher@icu_44@@UBEHAAW4UErrorCode@@@Z" PURGE="4" COMMENT="" />
    <EXPORT ORDINAL="1962" NAME="?start@RegexMatcher@icu_44@@UBEHHAAW4UErrorCode@@@Z" PURGE="8" COMMENT="" />
    <EXPORT ORDINAL="1963" NAME="?startOfYear@HebrewCalendar@icu_44@@CAHHAAW4UErrorCode@@@Z" PURGE="0" COMMENT="" />
    <EXPORT ORDINAL="1964" NAME="?stod@ChoiceFormat@icu_44@@CANABVUnicodeString@2@@Z" PURGE="0" COMMENT="" />
    <EXPORT ORDINAL="1965" NAME="?strengthOrder@CollationElementIterator@icu_44@@QBEHH@Z" PURGE="4" COMMENT="" />
    <EXPORT ORDINAL="1966" NAME="?stringNumeric@DateIntervalInfo@icu_44@@CACHHD@Z" PURGE="0" COMMENT="" />
    <EXPORT ORDINAL="1967" NAME="?stripWhitespace@RuleBasedNumberFormat@icu_44@@AAEXAAVUnicodeString@2@@Z" PURGE="4" COMMENT="" />
    <EXPORT ORDINAL="1968" NAME="?subFormat@SimpleDateFormat@icu_44@@ABEXAAVUnicodeString@2@_WHAAVFieldPositionHandler@2@AAVCalendar@2@AAW4UErrorCode@@@Z" PURGE="24" COMMENT="" />
    <EXPORT ORDINAL="1969" NAME="?subParse@SimpleDateFormat@icu_44@@ABEHABVUnicodeString@2@AAH_WHCCQAC1AAVCalendar@2@H@Z" PURGE="40" COMMENT="" />
    <EXPORT ORDINAL="1970" NAME="?subformat@DecimalFormat@icu_44@@ABEAAVUnicodeString@2@AAV32@AAVFieldPositionHandler@2@AAVDigitList@2@C@Z" PURGE="16" COMMENT="" />
    <EXPORT ORDINAL="1971" NAME="?subparse@DecimalFormat@icu_44@@ABECABVUnicodeString@2@PBV32@111CCAAVParsePosition@2@AAVDigitList@2@PACPA_W@Z" PURGE="44" COMMENT="" />
    <EXPORT ORDINAL="1972" NAME="?syntaxError@Format@icu_44@@KAXABVUnicodeString@2@HAAUUParseError@@@Z" PURGE="0" COMMENT="" />
    <EXPORT ORDINAL="1973" NAME="?tertiaryOrder@CollationElementIterator@icu_44@@SAHH@Z" PURGE="0" COMMENT="" />
    <EXPORT ORDINAL="1974" NAME="?timeOfAngle@CalendarAstronomer@icu_44@@QAENAAVAngleFunc@12@NNNC@Z" PURGE="32" COMMENT="" />
    <EXPORT ORDINAL="1975" NAME="?toIntegralValue@DigitList@icu_44@@QAEXXZ" PURGE="0" COMMENT="" />
    <EXPORT ORDINAL="1976" NAME="?toLocalizedPattern@DecimalFormat@icu_44@@UBEAAVUnicodeString@2@AAV32@@Z" PURGE="4" COMMENT="" />
    <EXPORT ORDINAL="1977" NAME="?toLocalizedPattern@SimpleDateFormat@icu_44@@UBEAAVUnicodeString@2@AAV32@AAW4UErrorCode@@@Z" PURGE="8" COMMENT="" />
    <EXPORT ORDINAL="1978" NAME="?toPattern@ChoiceFormat@icu_44@@UBEAAVUnicodeString@2@AAV32@@Z" PURGE="4" COMMENT="" />
    <EXPORT ORDINAL="1979" NAME="?toPattern@DecimalFormat@icu_44@@ABEAAVUnicodeString@2@AAV32@C@Z" PURGE="8" COMMENT="" />
    <EXPORT ORDINAL="1980" NAME="?toPattern@DecimalFormat@icu_44@@UBEAAVUnicodeString@2@AAV32@@Z" PURGE="4" COMMENT="" />
    <EXPORT ORDINAL="1981" NAME="?toPattern@MessageFormat@icu_44@@UBEAAVUnicodeString@2@AAV32@@Z" PURGE="4" COMMENT="" />
    <EXPORT ORDINAL="1982" NAME="?toPattern@PluralFormat@icu_44@@QAEAAVUnicodeString@2@AAV32@@Z" PURGE="4" COMMENT="" />
    <EXPORT ORDINAL="1983" NAME="?toPattern@SelectFormat@icu_44@@QAEAAVUnicodeString@2@AAV32@@Z" PURGE="4" COMMENT="" />
    <EXPORT ORDINAL="1984" NAME="?toPattern@SimpleDateFormat@icu_44@@UBEAAVUnicodeString@2@AAV32@@Z" PURGE="4" COMMENT="" />
    <EXPORT ORDINAL="1985" NAME="?toRules@CompoundTransliterator@icu_44@@UBEAAVUnicodeString@2@AAV32@C@Z" PURGE="8" COMMENT="" />
    <EXPORT ORDINAL="1986" NAME="?toRules@Transliterator@icu_44@@UBEAAVUnicodeString@2@AAV32@C@Z" PURGE="8" COMMENT="" />
    <EXPORT ORDINAL="1987" NAME="?toString@Ecliptic@CalendarAstronomer@icu_44@@QBE?AVUnicodeString@3@XZ" PURGE="4" COMMENT="" />
    <EXPORT ORDINAL="1988" NAME="?toString@Equatorial@CalendarAstronomer@icu_44@@QBE?AVUnicodeString@3@XZ" PURGE="4" COMMENT="" />
    <EXPORT ORDINAL="1989" NAME="?toString@Horizon@CalendarAstronomer@icu_44@@QBE?AVUnicodeString@3@XZ" PURGE="4" COMMENT="" />
    <EXPORT ORDINAL="1990" NAME="?translatePattern@SimpleDateFormat@icu_44@@CAXABVUnicodeString@2@AAV32@00AAW4UErrorCode@@@Z" PURGE="0" COMMENT="" />
    <EXPORT ORDINAL="1991" NAME="?transliterate@Transliterator@icu_44@@UBEHAAVReplaceable@2@HH@Z" PURGE="12" COMMENT="" />
    <EXPORT ORDINAL="1992" NAME="?transliterate@Transliterator@icu_44@@UBEXAAVReplaceable@2@@Z" PURGE="4" COMMENT="" />
    <EXPORT ORDINAL="1993" NAME="?transliterate@Transliterator@icu_44@@UBEXAAVReplaceable@2@AAUUTransPosition@@AAW4UErrorCode@@@Z" PURGE="12" COMMENT="" />
    <EXPORT ORDINAL="1994" NAME="?transliterate@Transliterator@icu_44@@UBEXAAVReplaceable@2@AAUUTransPosition@@ABVUnicodeString@2@AAW4UErrorCode@@@Z" PURGE="16" COMMENT="" />
    <EXPORT ORDINAL="1995" NAME="?transliterate@Transliterator@icu_44@@UBEXAAVReplaceable@2@AAUUTransPosition@@HAAW4UErrorCode@@@Z" PURGE="16" COMMENT="" />
    <EXPORT ORDINAL="1996" NAME="?trim@DigitList@icu_44@@QAEXXZ" PURGE="0" COMMENT="" />
    <EXPORT ORDINAL="1997" NAME="?unregister@Calendar@icu_44@@SACPBXAAW4UErrorCode@@@Z" PURGE="0" COMMENT="" />
    <EXPORT ORDINAL="1998" NAME="?unregister@Collator@icu_44@@SACPBXAAW4UErrorCode@@@Z" PURGE="0" COMMENT="" />
    <EXPORT ORDINAL="1999" NAME="?unregister@NumberFormat@icu_44@@SACPBXAAW4UErrorCode@@@Z" PURGE="0" COMMENT="" />
    <EXPORT ORDINAL="2000" NAME="?unregister@Transliterator@icu_44@@SAXABVUnicodeString@2@@Z" PURGE="0" COMMENT="" />
    <EXPORT ORDINAL="2001" NAME="?updateTime@Calendar@icu_44@@AAEXAAW4UErrorCode@@@Z" PURGE="4" COMMENT="" />
    <EXPORT ORDINAL="2002" NAME="?useAnchoringBounds@RegexMatcher@icu_44@@UAEAAV12@C@Z" PURGE="4" COMMENT="" />
    <EXPORT ORDINAL="2003" NAME="?useDaylightTime@RuleBasedTimeZone@icu_44@@UBECXZ" PURGE="0" COMMENT="" />
    <EXPORT ORDINAL="2004" NAME="?useDaylightTime@SimpleTimeZone@icu_44@@UBECXZ" PURGE="0" COMMENT="" />
    <EXPORT ORDINAL="2005" NAME="?useDaylightTime@VTimeZone@icu_44@@UBECXZ" PURGE="0" COMMENT="" />
    <EXPORT ORDINAL="2006" NAME="?useTransparentBounds@RegexMatcher@icu_44@@UAEAAV12@C@Z" PURGE="4" COMMENT="" />
    <EXPORT ORDINAL="2007" NAME="?usesNamedArguments@MessageFormat@icu_44@@QBECXZ" PURGE="0" COMMENT="" />
    <EXPORT ORDINAL="2008" NAME="?validateField@Calendar@icu_44@@AAEXW4UCalendarDateFields@@HHAAW4UErrorCode@@@Z" PURGE="16" COMMENT="" />
    <EXPORT ORDINAL="2009" NAME="?validateField@Calendar@icu_44@@EAEXW4UCalendarDateFields@@AAW4UErrorCode@@@Z" PURGE="8" COMMENT="" />
    <EXPORT ORDINAL="2010" NAME="?validateFields@Calendar@icu_44@@AAEXAAW4UErrorCode@@@Z" PURGE="4" COMMENT="" />
    <EXPORT ORDINAL="2011" NAME="?validateFields@GregorianCalendar@icu_44@@ABECXZ" PURGE="0" COMMENT="" />
    <EXPORT ORDINAL="2012" NAME="?visible@CollatorFactory@icu_44@@UBECXZ" PURGE="0" COMMENT="" />
    <EXPORT ORDINAL="2013" NAME="?visible@SimpleNumberFormatFactory@icu_44@@UBECXZ" PURGE="0" COMMENT="" />
    <EXPORT ORDINAL="2014" NAME="?weekNumber@Calendar@icu_44@@IAEHHH@Z" PURGE="8" COMMENT="" />
    <EXPORT ORDINAL="2015" NAME="?weekNumber@Calendar@icu_44@@IAEHHHH@Z" PURGE="12" COMMENT="" />
    <EXPORT ORDINAL="2016" NAME="?write@VTimeZone@icu_44@@AAEXNAAVVTZWriter@2@AAW4UErrorCode@@@Z" PURGE="16" COMMENT="" />
    <EXPORT ORDINAL="2017" NAME="?write@VTimeZone@icu_44@@ABEXAAVVTZWriter@2@AAW4UErrorCode@@@Z" PURGE="8" COMMENT="" />
    <EXPORT ORDINAL="2018" NAME="?write@VTimeZone@icu_44@@QAEXNAAVUnicodeString@2@AAW4UErrorCode@@@Z" PURGE="16" COMMENT="" />
    <EXPORT ORDINAL="2019" NAME="?write@VTimeZone@icu_44@@QBEXAAVUnicodeString@2@AAW4UErrorCode@@@Z" PURGE="8" COMMENT="" />
    <EXPORT ORDINAL="2020" NAME="?writeFinalRule@VTimeZone@icu_44@@ABEXAAVVTZWriter@2@CPBVAnnualTimeZoneRule@2@HHNAAW4UErrorCode@@@Z" PURGE="32" COMMENT="" />
    <EXPORT ORDINAL="2021" NAME="?writeFooter@VTimeZone@icu_44@@ABEXAAVVTZWriter@2@AAW4UErrorCode@@@Z" PURGE="8" COMMENT="" />
    <EXPORT ORDINAL="2022" NAME="?writeHeaders@VTimeZone@icu_44@@ABEXAAVVTZWriter@2@AAW4UErrorCode@@@Z" PURGE="8" COMMENT="" />
    <EXPORT ORDINAL="2023" NAME="?writeSimple@VTimeZone@icu_44@@AAEXNAAVVTZWriter@2@AAW4UErrorCode@@@Z" PURGE="16" COMMENT="" />
    <EXPORT ORDINAL="2024" NAME="?writeSimple@VTimeZone@icu_44@@QAEXNAAVUnicodeString@2@AAW4UErrorCode@@@Z" PURGE="16" COMMENT="" />
    <EXPORT ORDINAL="2025" NAME="?writeZone@VTimeZone@icu_44@@ABEXAAVVTZWriter@2@AAVBasicTimeZone@2@PAVUVector@2@AAW4UErrorCode@@@Z" PURGE="16" COMMENT="" />
    <EXPORT ORDINAL="2026" NAME="?writeZonePropsByDOM@VTimeZone@icu_44@@ABEXAAVVTZWriter@2@CABVUnicodeString@2@HHHHNNAAW4UErrorCode@@@Z" PURGE="48" COMMENT="" />
    <EXPORT ORDINAL="2027" NAME="?writeZonePropsByDOW@VTimeZone@icu_44@@ABEXAAVVTZWriter@2@CABVUnicodeString@2@HHHHHNNAAW4UErrorCode@@@Z" PURGE="52" COMMENT="" />
    <EXPORT ORDINAL="2028" NAME="?writeZonePropsByDOW_GEQ_DOM@VTimeZone@icu_44@@ABEXAAVVTZWriter@2@CABVUnicodeString@2@HHHHHNNAAW4UErrorCode@@@Z" PURGE="52" COMMENT="" />
    <EXPORT ORDINAL="2029" NAME="?writeZonePropsByDOW_GEQ_DOM_sub@VTimeZone@icu_44@@ABEXAAVVTZWriter@2@HHHHNHAAW4UErrorCode@@@Z" PURGE="36" COMMENT="" />
    <EXPORT ORDINAL="2030" NAME="?writeZonePropsByDOW_LEQ_DOM@VTimeZone@icu_44@@ABEXAAVVTZWriter@2@CABVUnicodeString@2@HHHHHNNAAW4UErrorCode@@@Z" PURGE="52" COMMENT="" />
    <EXPORT ORDINAL="2031" NAME="?writeZonePropsByTime@VTimeZone@icu_44@@ABEXAAVVTZWriter@2@CABVUnicodeString@2@HHNCAAW4UErrorCode@@@Z" PURGE="36" COMMENT="" />
    <EXPORT ORDINAL="2032" NAME="?yearLength@GregorianCalendar@icu_44@@IBEHH@Z" PURGE="4" COMMENT="" />
    <EXPORT ORDINAL="2033" NAME="?yearLength@GregorianCalendar@icu_44@@IBEHXZ" PURGE="0" COMMENT="" />
    <EXPORT ORDINAL="2034" NAME="?yearType@HebrewCalendar@icu_44@@ABEHH@Z" PURGE="4" COMMENT="" />
    <EXPORT ORDINAL="2035" NAME="?zap@RegexPattern@icu_44@@AAEXXZ" PURGE="0" COMMENT="" />
    <EXPORT ORDINAL="2036" NAME="?zeroPaddingNumber@SimpleDateFormat@icu_44@@ABEXPAVNumberFormat@2@AAVUnicodeString@2@HHH@Z" PURGE="20" COMMENT="" />
    <EXPORT ORDINAL="2037" NAME="bms_close_44" PURGE="0" COMMENT="" />
    <EXPORT ORDINAL="2038" NAME="bms_empty_44" PURGE="0" COMMENT="" />
    <EXPORT ORDINAL="2039" NAME="bms_getData_44" PURGE="0" COMMENT="" />
    <EXPORT ORDINAL="2040" NAME="bms_open_44" PURGE="0" COMMENT="" />
    <EXPORT ORDINAL="2041" NAME="bms_search_44" PURGE="0" COMMENT="" />
    <EXPORT ORDINAL="2042" NAME="bms_setTargetString_44" PURGE="0" COMMENT="" />
    <EXPORT ORDINAL="2043" NAME="izrule_clone_44" PURGE="0" COMMENT="" />
    <EXPORT ORDINAL="2044" NAME="izrule_close_44" PURGE="0" COMMENT="" />
    <EXPORT ORDINAL="2045" NAME="izrule_equals_44" PURGE="0" COMMENT="" />
    <EXPORT ORDINAL="2046" NAME="izrule_getDSTSavings_44" PURGE="0" COMMENT="" />
    <EXPORT ORDINAL="2047" NAME="izrule_getDynamicClassID_44" PURGE="0" COMMENT="" />
    <EXPORT ORDINAL="2048" NAME="izrule_getFinalStart_44" PURGE="0" COMMENT="" />
    <EXPORT ORDINAL="2049" NAME="izrule_getFirstStart_44" PURGE="0" COMMENT="" />
    <EXPORT ORDINAL="2050" NAME="izrule_getName_44" PURGE="0" COMMENT="" />
    <EXPORT ORDINAL="2051" NAME="izrule_getNextStart_44" PURGE="0" COMMENT="" />
    <EXPORT ORDINAL="2052" NAME="izrule_getPreviousStart_44" PURGE="0" COMMENT="" />
    <EXPORT ORDINAL="2053" NAME="izrule_getRawOffset_44" PURGE="0" COMMENT="" />
    <EXPORT ORDINAL="2054" NAME="izrule_getStaticClassID_44" PURGE="0" COMMENT="" />
    <EXPORT ORDINAL="2055" NAME="izrule_isEquivalentTo_44" PURGE="0" COMMENT="" />
    <EXPORT ORDINAL="2056" NAME="izrule_open_44" PURGE="0" COMMENT="" />
    <EXPORT ORDINAL="2057" NAME="u_formatMessageWithError_44" PURGE="0" COMMENT="" />
    <EXPORT ORDINAL="2058" NAME="u_formatMessage_44" PURGE="0" COMMENT="" />
    <EXPORT ORDINAL="2059" NAME="u_parseMessageWithError_44" PURGE="0" COMMENT="" />
    <EXPORT ORDINAL="2060" NAME="u_parseMessage_44" PURGE="0" COMMENT="" />
    <EXPORT ORDINAL="2061" NAME="u_vformatMessageWithError_44" PURGE="0" COMMENT="" />
    <EXPORT ORDINAL="2062" NAME="u_vformatMessage_44" PURGE="0" COMMENT="" />
    <EXPORT ORDINAL="2063" NAME="u_vparseMessageWithError_44" PURGE="0" COMMENT="" />
    <EXPORT ORDINAL="2064" NAME="u_vparseMessage_44" PURGE="0" COMMENT="" />
    <EXPORT ORDINAL="2065" NAME="ucal_add_44" PURGE="0" COMMENT="" />
    <EXPORT ORDINAL="2066" NAME="ucal_clearField_44" PURGE="0" COMMENT="" />
    <EXPORT ORDINAL="2067" NAME="ucal_clear_44" PURGE="0" COMMENT="" />
    <EXPORT ORDINAL="2068" NAME="ucal_clone_44" PURGE="0" COMMENT="" />
    <EXPORT ORDINAL="2069" NAME="ucal_close_44" PURGE="0" COMMENT="" />
    <EXPORT ORDINAL="2070" NAME="ucal_countAvailable_44" PURGE="0" COMMENT="" />
    <EXPORT ORDINAL="2071" NAME="ucal_equivalentTo_44" PURGE="0" COMMENT="" />
    <EXPORT ORDINAL="2072" NAME="ucal_getAttribute_44" PURGE="0" COMMENT="" />
    <EXPORT ORDINAL="2073" NAME="ucal_getAvailable_44" PURGE="0" COMMENT="" />
    <EXPORT ORDINAL="2074" NAME="ucal_getCanonicalTimeZoneID_44" PURGE="0" COMMENT="" />
    <EXPORT ORDINAL="2075" NAME="ucal_getDSTSavings_44" PURGE="0" COMMENT="" />
    <EXPORT ORDINAL="2076" NAME="ucal_getDayOfWeekType_44" PURGE="0" COMMENT="" />
    <EXPORT ORDINAL="2077" NAME="ucal_getDefaultTimeZone_44" PURGE="0" COMMENT="" />
    <EXPORT ORDINAL="2078" NAME="ucal_getGregorianChange_44" PURGE="0" COMMENT="" />
    <EXPORT ORDINAL="2079" NAME="ucal_getKeywordValuesForLocale_44" PURGE="0" COMMENT="" />
    <EXPORT ORDINAL="2080" NAME="ucal_getLimit_44" PURGE="0" COMMENT="" />
    <EXPORT ORDINAL="2081" NAME="ucal_getLocaleByType_44" PURGE="0" COMMENT="" />
    <EXPORT ORDINAL="2082" NAME="ucal_getMillis_44" PURGE="0" COMMENT="" />
    <EXPORT ORDINAL="2083" NAME="ucal_getNow_44" PURGE="0" COMMENT="" />
    <EXPORT ORDINAL="2084" NAME="ucal_getTZDataVersion_44" PURGE="0" COMMENT="" />
    <EXPORT ORDINAL="2085" NAME="ucal_getTimeZoneDisplayName_44" PURGE="0" COMMENT="" />
    <EXPORT ORDINAL="2086" NAME="ucal_getType_44" PURGE="0" COMMENT="" />
    <EXPORT ORDINAL="2087" NAME="ucal_getWeekendTransition_44" PURGE="0" COMMENT="" />
    <EXPORT ORDINAL="2088" NAME="ucal_get_44" PURGE="0" COMMENT="" />
    <EXPORT ORDINAL="2089" NAME="ucal_inDaylightTime_44" PURGE="0" COMMENT="" />
    <EXPORT ORDINAL="2090" NAME="ucal_isSet_44" PURGE="0" COMMENT="" />
    <EXPORT ORDINAL="2091" NAME="ucal_isWeekend_44" PURGE="0" COMMENT="" />
    <EXPORT ORDINAL="2092" NAME="ucal_openCountryTimeZones_44" PURGE="0" COMMENT="" />
    <EXPORT ORDINAL="2093" NAME="ucal_openTimeZones_44" PURGE="0" COMMENT="" />
    <EXPORT ORDINAL="2094" NAME="ucal_open_44" PURGE="0" COMMENT="" />
    <EXPORT ORDINAL="2095" NAME="ucal_roll_44" PURGE="0" COMMENT="" />
    <EXPORT ORDINAL="2096" NAME="ucal_setAttribute_44" PURGE="0" COMMENT="" />
    <EXPORT ORDINAL="2097" NAME="ucal_setDateTime_44" PURGE="0" COMMENT="" />
    <EXPORT ORDINAL="2098" NAME="ucal_setDate_44" PURGE="0" COMMENT="" />
    <EXPORT ORDINAL="2099" NAME="ucal_setDefaultTimeZone_44" PURGE="0" COMMENT="" />
    <EXPORT ORDINAL="2100" NAME="ucal_setGregorianChange_44" PURGE="0" COMMENT="" />
    <EXPORT ORDINAL="2101" NAME="ucal_setMillis_44" PURGE="0" COMMENT="" />
    <EXPORT ORDINAL="2102" NAME="ucal_setTimeZone_44" PURGE="0" COMMENT="" />
    <EXPORT ORDINAL="2103" NAME="ucal_set_44" PURGE="0" COMMENT="" />
    <EXPORT ORDINAL="2104" NAME="ucd_close_44" PURGE="0" COMMENT="" />
    <EXPORT ORDINAL="2105" NAME="ucd_flushCache_44" PURGE="0" COMMENT="" />
    <EXPORT ORDINAL="2106" NAME="ucd_freeCache_44" PURGE="0" COMMENT="" />
    <EXPORT ORDINAL="2107" NAME="ucd_getCollator_44" PURGE="0" COMMENT="" />
    <EXPORT ORDINAL="2108" NAME="ucd_open_44" PURGE="0" COMMENT="" />
    <EXPORT ORDINAL="2109" NAME="ucol_cloneBinary_44" PURGE="0" COMMENT="" />
    <EXPORT ORDINAL="2110" NAME="ucol_closeElements_44" PURGE="0" COMMENT="" />
    <EXPORT ORDINAL="2111" NAME="ucol_close_44" PURGE="0" COMMENT="" />
    <EXPORT ORDINAL="2112" NAME="ucol_countAvailable_44" PURGE="0" COMMENT="" />
    <EXPORT ORDINAL="2113" NAME="ucol_equal_44" PURGE="0" COMMENT="" />
    <EXPORT ORDINAL="2114" NAME="ucol_equals_44" PURGE="0" COMMENT="" />
    <EXPORT ORDINAL="2115" NAME="ucol_forceHanImplicit_44" PURGE="0" COMMENT="" />
    <EXPORT ORDINAL="2116" NAME="ucol_forgetUCA_44" PURGE="0" COMMENT="" />
    <EXPORT ORDINAL="2117" NAME="ucol_getAttributeOrDefault_44" PURGE="0" COMMENT="" />
    <EXPORT ORDINAL="2118" NAME="ucol_getAttribute_44" PURGE="0" COMMENT="" />
    <EXPORT ORDINAL="2119" NAME="ucol_getAvailable_44" PURGE="0" COMMENT="" />
    <EXPORT ORDINAL="2120" NAME="ucol_getBound_44" PURGE="0" COMMENT="" />
    <EXPORT ORDINAL="2121" NAME="ucol_getContractionsAndExpansions_44" PURGE="0" COMMENT="" />
    <EXPORT ORDINAL="2122" NAME="ucol_getContractions_44" PURGE="0" COMMENT="" />
    <EXPORT ORDINAL="2123" NAME="ucol_getDisplayName_44" PURGE="0" COMMENT="" />
    <EXPORT ORDINAL="2124" NAME="ucol_getFunctionalEquivalent_44" PURGE="0" COMMENT="" />
    <EXPORT ORDINAL="2125" NAME="ucol_getKeywordValuesForLocale_44" PURGE="0" COMMENT="" />
    <EXPORT ORDINAL="2126" NAME="ucol_getKeywordValues_44" PURGE="0" COMMENT="" />
    <EXPORT ORDINAL="2127" NAME="ucol_getKeywords_44" PURGE="0" COMMENT="" />
    <EXPORT ORDINAL="2128" NAME="ucol_getLocaleByType_44" PURGE="0" COMMENT="" />
    <EXPORT ORDINAL="2129" NAME="ucol_getLocale_44" PURGE="0" COMMENT="" />
    <EXPORT ORDINAL="2130" NAME="ucol_getMaxExpansion_44" PURGE="0" COMMENT="" />
    <EXPORT ORDINAL="2131" NAME="ucol_getNextCE_44" PURGE="0" COMMENT="" />
    <EXPORT ORDINAL="2132" NAME="ucol_getOffset_44" PURGE="0" COMMENT="" />
    <EXPORT ORDINAL="2133" NAME="ucol_getRulesEx_44" PURGE="0" COMMENT="" />
    <EXPORT ORDINAL="2134" NAME="ucol_getRules_44" PURGE="0" COMMENT="" />
    <EXPORT ORDINAL="2135" NAME="ucol_getShortDefinitionString_44" PURGE="0" COMMENT="" />
    <EXPORT ORDINAL="2136" NAME="ucol_getSortKey_44" PURGE="0" COMMENT="" />
    <EXPORT ORDINAL="2137" NAME="ucol_getStrength_44" PURGE="0" COMMENT="" />
    <EXPORT ORDINAL="2138" NAME="ucol_getTailoredSet_44" PURGE="0" COMMENT="" />
    <EXPORT ORDINAL="2139" NAME="ucol_getUCAVersion_44" PURGE="0" COMMENT="" />
    <EXPORT ORDINAL="2140" NAME="ucol_getUnsafeSet_44" PURGE="0" COMMENT="" />
    <EXPORT ORDINAL="2141" NAME="ucol_getVariableTop_44" PURGE="0" COMMENT="" />
    <EXPORT ORDINAL="2142" NAME="ucol_getVersion_44" PURGE="0" COMMENT="" />
    <EXPORT ORDINAL="2143" NAME="ucol_greaterOrEqual_44" PURGE="0" COMMENT="" />
    <EXPORT ORDINAL="2144" NAME="ucol_greater_44" PURGE="0" COMMENT="" />
    <EXPORT ORDINAL="2145" NAME="ucol_initInverseUCA_44" PURGE="0" COMMENT="" />
    <EXPORT ORDINAL="2146" NAME="ucol_inv_getNextCE_44" PURGE="0" COMMENT="" />
    <EXPORT ORDINAL="2147" NAME="ucol_isTailored_44" PURGE="0" COMMENT="" />
    <EXPORT ORDINAL="2148" NAME="ucol_keyHashCode_44" PURGE="0" COMMENT="" />
    <EXPORT ORDINAL="2149" NAME="ucol_mergeSortkeys_44" PURGE="0" COMMENT="" />
    <EXPORT ORDINAL="2150" NAME="ucol_nextProcessed_44" PURGE="0" COMMENT="" />
    <EXPORT ORDINAL="2151" NAME="ucol_nextSortKeyPart_44" PURGE="0" COMMENT="" />
    <EXPORT ORDINAL="2152" NAME="ucol_next_44" PURGE="0" COMMENT="" />
    <EXPORT ORDINAL="2153" NAME="ucol_normalizeShortDefinitionString_44" PURGE="0" COMMENT="" />
    <EXPORT ORDINAL="2154" NAME="ucol_openAvailableLocales_44" PURGE="0" COMMENT="" />
    <EXPORT ORDINAL="2155" NAME="ucol_openBinary_44" PURGE="0" COMMENT="" />
    <EXPORT ORDINAL="2156" NAME="ucol_openElements_44" PURGE="0" COMMENT="" />
    <EXPORT ORDINAL="2157" NAME="ucol_openFromShortString_44" PURGE="0" COMMENT="" />
    <EXPORT ORDINAL="2158" NAME="ucol_openRules_44" PURGE="0" COMMENT="" />
    <EXPORT ORDINAL="2159" NAME="ucol_open_44" PURGE="0" COMMENT="" />
    <EXPORT ORDINAL="2160" NAME="ucol_prepareShortStringOpen_44" PURGE="0" COMMENT="" />
    <EXPORT ORDINAL="2161" NAME="ucol_previousProcessed_44" PURGE="0" COMMENT="" />
    <EXPORT ORDINAL="2162" NAME="ucol_previous_44" PURGE="0" COMMENT="" />
    <EXPORT ORDINAL="2163" NAME="ucol_primaryOrder_44" PURGE="0" COMMENT="" />
    <EXPORT ORDINAL="2164" NAME="ucol_reset_44" PURGE="0" COMMENT="" />
    <EXPORT ORDINAL="2165" NAME="ucol_restoreVariableTop_44" PURGE="0" COMMENT="" />
    <EXPORT ORDINAL="2166" NAME="ucol_safeClone_44" PURGE="0" COMMENT="" />
    <EXPORT ORDINAL="2167" NAME="ucol_secondaryOrder_44" PURGE="0" COMMENT="" />
    <EXPORT ORDINAL="2168" NAME="ucol_setAttribute_44" PURGE="0" COMMENT="" />
    <EXPORT ORDINAL="2169" NAME="ucol_setOffset_44" PURGE="0" COMMENT="" />
    <EXPORT ORDINAL="2170" NAME="ucol_setStrength_44" PURGE="0" COMMENT="" />
    <EXPORT ORDINAL="2171" NAME="ucol_setText_44" PURGE="0" COMMENT="" />
    <EXPORT ORDINAL="2172" NAME="ucol_setVariableTop_44" PURGE="0" COMMENT="" />
    <EXPORT ORDINAL="2173" NAME="ucol_strcollIter_44" PURGE="0" COMMENT="" />
    <EXPORT ORDINAL="2174" NAME="ucol_strcoll_44" PURGE="0" COMMENT="" />
    <EXPORT ORDINAL="2175" NAME="ucol_tertiaryOrder_44" PURGE="0" COMMENT="" />
    <EXPORT ORDINAL="2176" NAME="ucol_tok_getNextArgument_44" PURGE="0" COMMENT="" />
    <EXPORT ORDINAL="2177" NAME="ucol_tok_parseNextToken_44" PURGE="0" COMMENT="" />
    <EXPORT ORDINAL="2178" NAME="ucsdet_close_44" PURGE="0" COMMENT="" />
    <EXPORT ORDINAL="2179" NAME="ucsdet_detectAll_44" PURGE="0" COMMENT="" />
    <EXPORT ORDINAL="2180" NAME="ucsdet_detect_44" PURGE="0" COMMENT="" />
    <EXPORT ORDINAL="2181" NAME="ucsdet_enableInputFilter_44" PURGE="0" COMMENT="" />
    <EXPORT ORDINAL="2182" NAME="ucsdet_getAllDetectableCharsets_44" PURGE="0" COMMENT="" />
    <EXPORT ORDINAL="2183" NAME="ucsdet_getConfidence_44" PURGE="0" COMMENT="" />
    <EXPORT ORDINAL="2184" NAME="ucsdet_getLanguage_44" PURGE="0" COMMENT="" />
    <EXPORT ORDINAL="2185" NAME="ucsdet_getName_44" PURGE="0" COMMENT="" />
    <EXPORT ORDINAL="2186" NAME="ucsdet_getUChars_44" PURGE="0" COMMENT="" />
    <EXPORT ORDINAL="2187" NAME="ucsdet_isInputFilterEnabled_44" PURGE="0" COMMENT="" />
    <EXPORT ORDINAL="2188" NAME="ucsdet_open_44" PURGE="0" COMMENT="" />
    <EXPORT ORDINAL="2189" NAME="ucsdet_setDeclaredEncoding_44" PURGE="0" COMMENT="" />
    <EXPORT ORDINAL="2190" NAME="ucsdet_setText_44" PURGE="0" COMMENT="" />
    <EXPORT ORDINAL="2191" NAME="ucurr_countCurrencies_44" PURGE="0" COMMENT="" />
    <EXPORT ORDINAL="2192" NAME="ucurr_forLocaleAndDate_44" PURGE="0" COMMENT="" />
    <EXPORT ORDINAL="2193" NAME="ucurr_forLocale_44" PURGE="0" COMMENT="" />
    <EXPORT ORDINAL="2194" NAME="ucurr_getDefaultFractionDigits_44" PURGE="0" COMMENT="" />
    <EXPORT ORDINAL="2195" NAME="ucurr_getKeywordValuesForLocale_44" PURGE="0" COMMENT="" />
    <EXPORT ORDINAL="2196" NAME="ucurr_getName_44" PURGE="0" COMMENT="" />
    <EXPORT ORDINAL="2197" NAME="ucurr_getPluralName_44" PURGE="0" COMMENT="" />
    <EXPORT ORDINAL="2198" NAME="ucurr_getRoundingIncrement_44" PURGE="0" COMMENT="" />
    <EXPORT ORDINAL="2199" NAME="ucurr_openISOCurrencies_44" PURGE="0" COMMENT="" />
    <EXPORT ORDINAL="2200" NAME="ucurr_register_44" PURGE="0" COMMENT="" />
    <EXPORT ORDINAL="2201" NAME="ucurr_unregister_44" PURGE="0" COMMENT="" />
    <EXPORT ORDINAL="2202" NAME="udat_applyPatternRelative_44" PURGE="0" COMMENT="" />
    <EXPORT ORDINAL="2203" NAME="udat_applyPattern_44" PURGE="0" COMMENT="" />
    <EXPORT ORDINAL="2204" NAME="udat_clone_44" PURGE="0" COMMENT="" />
    <EXPORT ORDINAL="2205" NAME="udat_close_44" PURGE="0" COMMENT="" />
    <EXPORT ORDINAL="2206" NAME="udat_countAvailable_44" PURGE="0" COMMENT="" />
    <EXPORT ORDINAL="2207" NAME="udat_countSymbols_44" PURGE="0" COMMENT="" />
    <EXPORT ORDINAL="2208" NAME="udat_format_44" PURGE="0" COMMENT="" />
    <EXPORT ORDINAL="2209" NAME="udat_get2DigitYearStart_44" PURGE="0" COMMENT="" />
    <EXPORT ORDINAL="2210" NAME="udat_getAvailable_44" PURGE="0" COMMENT="" />
    <EXPORT ORDINAL="2211" NAME="udat_getCalendar_44" PURGE="0" COMMENT="" />
    <EXPORT ORDINAL="2212" NAME="udat_getLocaleByType_44" PURGE="0" COMMENT="" />
    <EXPORT ORDINAL="2213" NAME="udat_getNumberFormat_44" PURGE="0" COMMENT="" />
    <EXPORT ORDINAL="2214" NAME="udat_getSymbols_44" PURGE="0" COMMENT="" />
    <EXPORT ORDINAL="2215" NAME="udat_isLenient_44" PURGE="0" COMMENT="" />
    <EXPORT ORDINAL="2216" NAME="udat_open_44" PURGE="0" COMMENT="" />
    <EXPORT ORDINAL="2217" NAME="udat_parseCalendar_44" PURGE="0" COMMENT="" />
    <EXPORT ORDINAL="2218" NAME="udat_parse_44" PURGE="0" COMMENT="" />
    <EXPORT ORDINAL="2219" NAME="udat_set2DigitYearStart_44" PURGE="0" COMMENT="" />
    <EXPORT ORDINAL="2220" NAME="udat_setCalendar_44" PURGE="0" COMMENT="" />
    <EXPORT ORDINAL="2221" NAME="udat_setLenient_44" PURGE="0" COMMENT="" />
    <EXPORT ORDINAL="2222" NAME="udat_setNumberFormat_44" PURGE="0" COMMENT="" />
    <EXPORT ORDINAL="2223" NAME="udat_setSymbols_44" PURGE="0" COMMENT="" />
    <EXPORT ORDINAL="2224" NAME="udat_toCalendarDateField_44" PURGE="0" COMMENT="" />
    <EXPORT ORDINAL="2225" NAME="udat_toPatternRelativeDate_44" PURGE="0" COMMENT="" />
    <EXPORT ORDINAL="2226" NAME="udat_toPatternRelativeTime_44" PURGE="0" COMMENT="" />
    <EXPORT ORDINAL="2227" NAME="udat_toPattern_44" PURGE="0" COMMENT="" />
    <EXPORT ORDINAL="2228" NAME="udatpg_addPattern_44" PURGE="0" COMMENT="" />
    <EXPORT ORDINAL="2229" NAME="udatpg_clone_44" PURGE="0" COMMENT="" />
    <EXPORT ORDINAL="2230" NAME="udatpg_close_44" PURGE="0" COMMENT="" />
    <EXPORT ORDINAL="2231" NAME="udatpg_getAppendItemFormat_44" PURGE="0" COMMENT="" />
    <EXPORT ORDINAL="2232" NAME="udatpg_getAppendItemName_44" PURGE="0" COMMENT="" />
    <EXPORT ORDINAL="2233" NAME="udatpg_getBaseSkeleton_44" PURGE="0" COMMENT="" />
    <EXPORT ORDINAL="2234" NAME="udatpg_getBestPatternWithOptions_44" PURGE="0" COMMENT="" />
    <EXPORT ORDINAL="2235" NAME="udatpg_getBestPattern_44" PURGE="0" COMMENT="" />
    <EXPORT ORDINAL="2236" NAME="udatpg_getDateTimeFormat_44" PURGE="0" COMMENT="" />
    <EXPORT ORDINAL="2237" NAME="udatpg_getDecimal_44" PURGE="0" COMMENT="" />
    <EXPORT ORDINAL="2238" NAME="udatpg_getPatternForSkeleton_44" PURGE="0" COMMENT="" />
    <EXPORT ORDINAL="2239" NAME="udatpg_getSkeleton_44" PURGE="0" COMMENT="" />
    <EXPORT ORDINAL="2240" NAME="udatpg_openBaseSkeletons_44" PURGE="0" COMMENT="" />
    <EXPORT ORDINAL="2241" NAME="udatpg_openEmpty_44" PURGE="0" COMMENT="" />
    <EXPORT ORDINAL="2242" NAME="udatpg_openSkeletons_44" PURGE="0" COMMENT="" />
    <EXPORT ORDINAL="2243" NAME="udatpg_open_44" PURGE="0" COMMENT="" />
    <EXPORT ORDINAL="2244" NAME="udatpg_replaceFieldTypesWithOptions_44" PURGE="0" COMMENT="" />
    <EXPORT ORDINAL="2245" NAME="udatpg_replaceFieldTypes_44" PURGE="0" COMMENT="" />
    <EXPORT ORDINAL="2246" NAME="udatpg_setAppendItemFormat_44" PURGE="0" COMMENT="" />
    <EXPORT ORDINAL="2247" NAME="udatpg_setAppendItemName_44" PURGE="0" COMMENT="" />
    <EXPORT ORDINAL="2248" NAME="udatpg_setDateTimeFormat_44" PURGE="0" COMMENT="" />
    <EXPORT ORDINAL="2249" NAME="udatpg_setDecimal_44" PURGE="0" COMMENT="" />
    <EXPORT ORDINAL="2250" NAME="uldn_close_44" PURGE="0" COMMENT="" />
    <EXPORT ORDINAL="2251" NAME="uldn_getDialectHandling_44" PURGE="0" COMMENT="" />
    <EXPORT ORDINAL="2252" NAME="uldn_getLocale_44" PURGE="0" COMMENT="" />
    <EXPORT ORDINAL="2253" NAME="uldn_keyDisplayName_44" PURGE="0" COMMENT="" />
    <EXPORT ORDINAL="2254" NAME="uldn_keyValueDisplayName_44" PURGE="0" COMMENT="" />
    <EXPORT ORDINAL="2255" NAME="uldn_languageDisplayName_44" PURGE="0" COMMENT="" />
    <EXPORT ORDINAL="2256" NAME="uldn_localeDisplayName_44" PURGE="0" COMMENT="" />
    <EXPORT ORDINAL="2257" NAME="uldn_open_44" PURGE="0" COMMENT="" />
    <EXPORT ORDINAL="2258" NAME="uldn_regionDisplayName_44" PURGE="0" COMMENT="" />
    <EXPORT ORDINAL="2259" NAME="uldn_scriptCodeDisplayName_44" PURGE="0" COMMENT="" />
    <EXPORT ORDINAL="2260" NAME="uldn_scriptDisplayName_44" PURGE="0" COMMENT="" />
    <EXPORT ORDINAL="2261" NAME="uldn_variantDisplayName_44" PURGE="0" COMMENT="" />
    <EXPORT ORDINAL="2262" NAME="ulocdata_close_44" PURGE="0" COMMENT="" />
    <EXPORT ORDINAL="2263" NAME="ulocdata_getCLDRVersion_44" PURGE="0" COMMENT="" />
    <EXPORT ORDINAL="2264" NAME="ulocdata_getDelimiter_44" PURGE="0" COMMENT="" />
    <EXPORT ORDINAL="2265" NAME="ulocdata_getExemplarSet_44" PURGE="0" COMMENT="" />
    <EXPORT ORDINAL="2266" NAME="ulocdata_getLocaleDisplayPattern_44" PURGE="0" COMMENT="" />
    <EXPORT ORDINAL="2267" NAME="ulocdata_getLocaleSeparator_44" PURGE="0" COMMENT="" />
    <EXPORT ORDINAL="2268" NAME="ulocdata_getMeasurementSystem_44" PURGE="0" COMMENT="" />
    <EXPORT ORDINAL="2269" NAME="ulocdata_getNoSubstitute_44" PURGE="0" COMMENT="" />
    <EXPORT ORDINAL="2270" NAME="ulocdata_getPaperSize_44" PURGE="0" COMMENT="" />
    <EXPORT ORDINAL="2271" NAME="ulocdata_open_44" PURGE="0" COMMENT="" />
    <EXPORT ORDINAL="2272" NAME="ulocdata_setNoSubstitute_44" PURGE="0" COMMENT="" />
    <EXPORT ORDINAL="2273" NAME="umsg_applyPattern_44" PURGE="0" COMMENT="" />
    <EXPORT ORDINAL="2274" NAME="umsg_autoQuoteApostrophe_44" PURGE="0" COMMENT="" />
    <EXPORT ORDINAL="2275" NAME="umsg_clone_44" PURGE="0" COMMENT="" />
    <EXPORT ORDINAL="2276" NAME="umsg_close_44" PURGE="0" COMMENT="" />
    <EXPORT ORDINAL="2277" NAME="umsg_format_44" PURGE="0" COMMENT="" />
    <EXPORT ORDINAL="2278" NAME="umsg_getLocale_44" PURGE="0" COMMENT="" />
    <EXPORT ORDINAL="2279" NAME="umsg_open_44" PURGE="0" COMMENT="" />
    <EXPORT ORDINAL="2280" NAME="umsg_parse_44" PURGE="0" COMMENT="" />
    <EXPORT ORDINAL="2281" NAME="umsg_setLocale_44" PURGE="0" COMMENT="" />
    <EXPORT ORDINAL="2282" NAME="umsg_toPattern_44" PURGE="0" COMMENT="" />
    <EXPORT ORDINAL="2283" NAME="umsg_vformat_44" PURGE="0" COMMENT="" />
    <EXPORT ORDINAL="2284" NAME="umsg_vparse_44" PURGE="0" COMMENT="" />
    <EXPORT ORDINAL="2285" NAME="unum_applyPattern_44" PURGE="0" COMMENT="" />
    <EXPORT ORDINAL="2286" NAME="unum_clone_44" PURGE="0" COMMENT="" />
    <EXPORT ORDINAL="2287" NAME="unum_close_44" PURGE="0" COMMENT="" />
    <EXPORT ORDINAL="2288" NAME="unum_countAvailable_44" PURGE="0" COMMENT="" />
    <EXPORT ORDINAL="2289" NAME="unum_formatDoubleCurrency_44" PURGE="0" COMMENT="" />
    <EXPORT ORDINAL="2290" NAME="unum_formatDouble_44" PURGE="0" COMMENT="" />
    <EXPORT ORDINAL="2291" NAME="unum_formatInt64_44" PURGE="0" COMMENT="" />
    <EXPORT ORDINAL="2292" NAME="unum_format_44" PURGE="0" COMMENT="" />
    <EXPORT ORDINAL="2293" NAME="unum_getAttribute_44" PURGE="0" COMMENT="" />
    <EXPORT ORDINAL="2294" NAME="unum_getAvailable_44" PURGE="0" COMMENT="" />
    <EXPORT ORDINAL="2295" NAME="unum_getDoubleAttribute_44" PURGE="0" COMMENT="" />
    <EXPORT ORDINAL="2296" NAME="unum_getLocaleByType_44" PURGE="0" COMMENT="" />
    <EXPORT ORDINAL="2297" NAME="unum_getSymbol_44" PURGE="0" COMMENT="" />
    <EXPORT ORDINAL="2298" NAME="unum_getTextAttribute_44" PURGE="0" COMMENT="" />
    <EXPORT ORDINAL="2299" NAME="unum_open_44" PURGE="0" COMMENT="" />
    <EXPORT ORDINAL="2300" NAME="unum_parseDoubleCurrency_44" PURGE="0" COMMENT="" />
    <EXPORT ORDINAL="2301" NAME="unum_parseDouble_44" PURGE="0" COMMENT="" />
    <EXPORT ORDINAL="2302" NAME="unum_parseInt64_44" PURGE="0" COMMENT="" />
    <EXPORT ORDINAL="2303" NAME="unum_parse_44" PURGE="0" COMMENT="" />
    <EXPORT ORDINAL="2304" NAME="unum_setAttribute_44" PURGE="0" COMMENT="" />
    <EXPORT ORDINAL="2305" NAME="unum_setDoubleAttribute_44" PURGE="0" COMMENT="" />
    <EXPORT ORDINAL="2306" NAME="unum_setSymbol_44" PURGE="0" COMMENT="" />
    <EXPORT ORDINAL="2307" NAME="unum_setTextAttribute_44" PURGE="0" COMMENT="" />
    <EXPORT ORDINAL="2308" NAME="unum_toPattern_44" PURGE="0" COMMENT="" />
    <EXPORT ORDINAL="2309" NAME="uprv_cnttab_addContraction_44" PURGE="0" COMMENT="" />
    <EXPORT ORDINAL="2310" NAME="uprv_cnttab_changeContraction_44" PURGE="0" COMMENT="" />
    <EXPORT ORDINAL="2311" NAME="uprv_cnttab_changeLastCE_44" PURGE="0" COMMENT="" />
    <EXPORT ORDINAL="2312" NAME="uprv_cnttab_clone_44" PURGE="0" COMMENT="" />
    <EXPORT ORDINAL="2313" NAME="uprv_cnttab_close_44" PURGE="0" COMMENT="" />
    <EXPORT ORDINAL="2314" NAME="uprv_cnttab_constructTable_44" PURGE="0" COMMENT="" />
    <EXPORT ORDINAL="2315" NAME="uprv_cnttab_findCE_44" PURGE="0" COMMENT="" />
    <EXPORT ORDINAL="2316" NAME="uprv_cnttab_findCP_44" PURGE="0" COMMENT="" />
    <EXPORT ORDINAL="2317" NAME="uprv_cnttab_getCE_44" PURGE="0" COMMENT="" />
    <EXPORT ORDINAL="2318" NAME="uprv_cnttab_insertContraction_44" PURGE="0" COMMENT="" />
    <EXPORT ORDINAL="2319" NAME="uprv_cnttab_isTailored_44" PURGE="0" COMMENT="" />
    <EXPORT ORDINAL="2320" NAME="uprv_cnttab_open_44" PURGE="0" COMMENT="" />
    <EXPORT ORDINAL="2321" NAME="uprv_cnttab_setContraction_44" PURGE="0" COMMENT="" />
    <EXPORT ORDINAL="2322" NAME="uprv_collIterateAtEnd_44" PURGE="0" COMMENT="" />
    <EXPORT ORDINAL="2323" NAME="uprv_decContextClearStatus_44" PURGE="0" COMMENT="" />
    <EXPORT ORDINAL="2324" NAME="uprv_decContextDefault_44" PURGE="0" COMMENT="" />
    <EXPORT ORDINAL="2325" NAME="uprv_decContextGetRounding_44" PURGE="0" COMMENT="" />
    <EXPORT ORDINAL="2326" NAME="uprv_decContextGetStatus_44" PURGE="0" COMMENT="" />
    <EXPORT ORDINAL="2327" NAME="uprv_decContextRestoreStatus_44" PURGE="0" COMMENT="" />
    <EXPORT ORDINAL="2328" NAME="uprv_decContextSaveStatus_44" PURGE="0" COMMENT="" />
    <EXPORT ORDINAL="2329" NAME="uprv_decContextSetRounding_44" PURGE="0" COMMENT="" />
    <EXPORT ORDINAL="2330" NAME="uprv_decContextSetStatusFromStringQuiet_44" PURGE="0" COMMENT="" />
    <EXPORT ORDINAL="2331" NAME="uprv_decContextSetStatusFromString_44" PURGE="0" COMMENT="" />
    <EXPORT ORDINAL="2332" NAME="uprv_decContextSetStatusQuiet_44" PURGE="0" COMMENT="" />
    <EXPORT ORDINAL="2333" NAME="uprv_decContextSetStatus_44" PURGE="0" COMMENT="" />
    <EXPORT ORDINAL="2334" NAME="uprv_decContextStatusToString_44" PURGE="0" COMMENT="" />
    <EXPORT ORDINAL="2335" NAME="uprv_decContextTestEndian_44" PURGE="0" COMMENT="" />
    <EXPORT ORDINAL="2336" NAME="uprv_decContextTestSavedStatus_44" PURGE="0" COMMENT="" />
    <EXPORT ORDINAL="2337" NAME="uprv_decContextTestStatus_44" PURGE="0" COMMENT="" />
    <EXPORT ORDINAL="2338" NAME="uprv_decContextZeroStatus_44" PURGE="0" COMMENT="" />
    <EXPORT ORDINAL="2339" NAME="uprv_decNumberAbs_44" PURGE="0" COMMENT="" />
    <EXPORT ORDINAL="2340" NAME="uprv_decNumberAdd_44" PURGE="0" COMMENT="" />
    <EXPORT ORDINAL="2341" NAME="uprv_decNumberAnd_44" PURGE="0" COMMENT="" />
    <EXPORT ORDINAL="2342" NAME="uprv_decNumberClassToString_44" PURGE="0" COMMENT="" />
    <EXPORT ORDINAL="2343" NAME="uprv_decNumberCompareSignal_44" PURGE="0" COMMENT="" />
    <EXPORT ORDINAL="2344" NAME="uprv_decNumberCompareTotalMag_44" PURGE="0" COMMENT="" />
    <EXPORT ORDINAL="2345" NAME="uprv_decNumberCompareTotal_44" PURGE="0" COMMENT="" />
    <EXPORT ORDINAL="2346" NAME="uprv_decNumberCompare_44" PURGE="0" COMMENT="" />
    <EXPORT ORDINAL="2347" NAME="uprv_decNumberCopyAbs_44" PURGE="0" COMMENT="" />
    <EXPORT ORDINAL="2348" NAME="uprv_decNumberCopyNegate_44" PURGE="0" COMMENT="" />
    <EXPORT ORDINAL="2349" NAME="uprv_decNumberCopySign_44" PURGE="0" COMMENT="" />
    <EXPORT ORDINAL="2350" NAME="uprv_decNumberCopy_44" PURGE="0" COMMENT="" />
    <EXPORT ORDINAL="2351" NAME="uprv_decNumberDivideInteger_44" PURGE="0" COMMENT="" />
    <EXPORT ORDINAL="2352" NAME="uprv_decNumberDivide_44" PURGE="0" COMMENT="" />
    <EXPORT ORDINAL="2353" NAME="uprv_decNumberExp_44" PURGE="0" COMMENT="" />
    <EXPORT ORDINAL="2354" NAME="uprv_decNumberFMA_44" PURGE="0" COMMENT="" />
    <EXPORT ORDINAL="2355" NAME="uprv_decNumberFromInt32_44" PURGE="0" COMMENT="" />
    <EXPORT ORDINAL="2356" NAME="uprv_decNumberFromString_44" PURGE="0" COMMENT="" />
    <EXPORT ORDINAL="2357" NAME="uprv_decNumberFromUInt32_44" PURGE="0" COMMENT="" />
    <EXPORT ORDINAL="2358" NAME="uprv_decNumberGetBCD_44" PURGE="0" COMMENT="" />
    <EXPORT ORDINAL="2359" NAME="uprv_decNumberInvert_44" PURGE="0" COMMENT="" />
    <EXPORT ORDINAL="2360" NAME="uprv_decNumberIsNormal_44" PURGE="0" COMMENT="" />
    <EXPORT ORDINAL="2361" NAME="uprv_decNumberIsSubnormal_44" PURGE="0" COMMENT="" />
    <EXPORT ORDINAL="2362" NAME="uprv_decNumberLn_44" PURGE="0" COMMENT="" />
    <EXPORT ORDINAL="2363" NAME="uprv_decNumberLog10_44" PURGE="0" COMMENT="" />
    <EXPORT ORDINAL="2364" NAME="uprv_decNumberLogB_44" PURGE="0" COMMENT="" />
    <EXPORT ORDINAL="2365" NAME="uprv_decNumberMaxMag_44" PURGE="0" COMMENT="" />
    <EXPORT ORDINAL="2366" NAME="uprv_decNumberMax_44" PURGE="0" COMMENT="" />
    <EXPORT ORDINAL="2367" NAME="uprv_decNumberMinMag_44" PURGE="0" COMMENT="" />
    <EXPORT ORDINAL="2368" NAME="uprv_decNumberMin_44" PURGE="0" COMMENT="" />
    <EXPORT ORDINAL="2369" NAME="uprv_decNumberMinus_44" PURGE="0" COMMENT="" />
    <EXPORT ORDINAL="2370" NAME="uprv_decNumberMultiply_44" PURGE="0" COMMENT="" />
    <EXPORT ORDINAL="2371" NAME="uprv_decNumberNextMinus_44" PURGE="0" COMMENT="" />
    <EXPORT ORDINAL="2372" NAME="uprv_decNumberNextPlus_44" PURGE="0" COMMENT="" />
    <EXPORT ORDINAL="2373" NAME="uprv_decNumberNextToward_44" PURGE="0" COMMENT="" />
    <EXPORT ORDINAL="2374" NAME="uprv_decNumberNormalize_44" PURGE="0" COMMENT="" />
    <EXPORT ORDINAL="2375" NAME="uprv_decNumberOr_44" PURGE="0" COMMENT="" />
    <EXPORT ORDINAL="2376" NAME="uprv_decNumberPlus_44" PURGE="0" COMMENT="" />
    <EXPORT ORDINAL="2377" NAME="uprv_decNumberPower_44" PURGE="0" COMMENT="" />
    <EXPORT ORDINAL="2378" NAME="uprv_decNumberQuantize_44" PURGE="0" COMMENT="" />
    <EXPORT ORDINAL="2379" NAME="uprv_decNumberReduce_44" PURGE="0" COMMENT="" />
    <EXPORT ORDINAL="2380" NAME="uprv_decNumberRemainderNear_44" PURGE="0" COMMENT="" />
    <EXPORT ORDINAL="2381" NAME="uprv_decNumberRemainder_44" PURGE="0" COMMENT="" />
    <EXPORT ORDINAL="2382" NAME="uprv_decNumberRescale_44" PURGE="0" COMMENT="" />
    <EXPORT ORDINAL="2383" NAME="uprv_decNumberRotate_44" PURGE="0" COMMENT="" />
    <EXPORT ORDINAL="2384" NAME="uprv_decNumberSameQuantum_44" PURGE="0" COMMENT="" />
    <EXPORT ORDINAL="2385" NAME="uprv_decNumberScaleB_44" PURGE="0" COMMENT="" />
    <EXPORT ORDINAL="2386" NAME="uprv_decNumberSetBCD_44" PURGE="0" COMMENT="" />
    <EXPORT ORDINAL="2387" NAME="uprv_decNumberShift_44" PURGE="0" COMMENT="" />
    <EXPORT ORDINAL="2388" NAME="uprv_decNumberSquareRoot_44" PURGE="0" COMMENT="" />
    <EXPORT ORDINAL="2389" NAME="uprv_decNumberSubtract_44" PURGE="0" COMMENT="" />
    <EXPORT ORDINAL="2390" NAME="uprv_decNumberToEngString_44" PURGE="0" COMMENT="" />
    <EXPORT ORDINAL="2391" NAME="uprv_decNumberToInt32_44" PURGE="0" COMMENT="" />
    <EXPORT ORDINAL="2392" NAME="uprv_decNumberToIntegralExact_44" PURGE="0" COMMENT="" />
    <EXPORT ORDINAL="2393" NAME="uprv_decNumberToIntegralValue_44" PURGE="0" COMMENT="" />
    <EXPORT ORDINAL="2394" NAME="uprv_decNumberToString_44" PURGE="0" COMMENT="" />
    <EXPORT ORDINAL="2395" NAME="uprv_decNumberToUInt32_44" PURGE="0" COMMENT="" />
    <EXPORT ORDINAL="2396" NAME="uprv_decNumberTrim_44" PURGE="0" COMMENT="" />
    <EXPORT ORDINAL="2397" NAME="uprv_decNumberVersion_44" PURGE="0" COMMENT="" />
    <EXPORT ORDINAL="2398" NAME="uprv_decNumberXor_44" PURGE="0" COMMENT="" />
    <EXPORT ORDINAL="2399" NAME="uprv_decNumberZero_44" PURGE="0" COMMENT="" />
    <EXPORT ORDINAL="2400" NAME="uprv_delete_collIterate_44" PURGE="0" COMMENT="" />
    <EXPORT ORDINAL="2401" NAME="uprv_getWindowsTimeZoneInfo" PURGE="0" COMMENT="" />
    <EXPORT ORDINAL="2402" NAME="uprv_init_collIterate_44" PURGE="0" COMMENT="" />
    <EXPORT ORDINAL="2403" NAME="uprv_init_pce_44" PURGE="0" COMMENT="" />
    <EXPORT ORDINAL="2404" NAME="uprv_new_collIterate_44" PURGE="0" COMMENT="" />
    <EXPORT ORDINAL="2405" NAME="uprv_uca_addAnElement_44" PURGE="0" COMMENT="" />
    <EXPORT ORDINAL="2406" NAME="uprv_uca_assembleTable_44" PURGE="0" COMMENT="" />
    <EXPORT ORDINAL="2407" NAME="uprv_uca_canonicalClosure_44" PURGE="0" COMMENT="" />
    <EXPORT ORDINAL="2408" NAME="uprv_uca_closeTempTable_44" PURGE="0" COMMENT="" />
    <EXPORT ORDINAL="2409" NAME="uprv_uca_getCodePointFromRaw_44" PURGE="0" COMMENT="" />
    <EXPORT ORDINAL="2410" NAME="uprv_uca_getImplicitFromRaw_44" PURGE="0" COMMENT="" />
    <EXPORT ORDINAL="2411" NAME="uprv_uca_getRawFromCodePoint_44" PURGE="0" COMMENT="" />
    <EXPORT ORDINAL="2412" NAME="uprv_uca_getRawFromImplicit_44" PURGE="0" COMMENT="" />
    <EXPORT ORDINAL="2413" NAME="uprv_uca_initImplicitConstants_44" PURGE="0" COMMENT="" />
    <EXPORT ORDINAL="2414" NAME="uprv_uca_initTempTable_44" PURGE="0" COMMENT="" />
    <EXPORT ORDINAL="2415" NAME="uregex_appendReplacementUText_44" PURGE="0" COMMENT="" />
    <EXPORT ORDINAL="2416" NAME="uregex_appendReplacement_44" PURGE="0" COMMENT="" />
    <EXPORT ORDINAL="2417" NAME="uregex_appendTailUText_44" PURGE="0" COMMENT="" />
    <EXPORT ORDINAL="2418" NAME="uregex_appendTail_44" PURGE="0" COMMENT="" />
    <EXPORT ORDINAL="2419" NAME="uregex_clone_44" PURGE="0" COMMENT="" />
    <EXPORT ORDINAL="2420" NAME="uregex_close_44" PURGE="0" COMMENT="" />
    <EXPORT ORDINAL="2421" NAME="uregex_end_44" PURGE="0" COMMENT="" />
    <EXPORT ORDINAL="2422" NAME="uregex_findNext_44" PURGE="0" COMMENT="" />
    <EXPORT ORDINAL="2423" NAME="uregex_find_44" PURGE="0" COMMENT="" />
    <EXPORT ORDINAL="2424" NAME="uregex_flags_44" PURGE="0" COMMENT="" />
    <EXPORT ORDINAL="2425" NAME="uregex_getMatchCallback_44" PURGE="0" COMMENT="" />
    <EXPORT ORDINAL="2426" NAME="uregex_getStackLimit_44" PURGE="0" COMMENT="" />
    <EXPORT ORDINAL="2427" NAME="uregex_getText_44" PURGE="0" COMMENT="" />
    <EXPORT ORDINAL="2428" NAME="uregex_getTimeLimit_44" PURGE="0" COMMENT="" />
    <EXPORT ORDINAL="2429" NAME="uregex_getUText_44" PURGE="0" COMMENT="" />
    <EXPORT ORDINAL="2430" NAME="uregex_groupCount_44" PURGE="0" COMMENT="" />
    <EXPORT ORDINAL="2431" NAME="uregex_groupUText_44" PURGE="0" COMMENT="" />
    <EXPORT ORDINAL="2432" NAME="uregex_group_44" PURGE="0" COMMENT="" />
    <EXPORT ORDINAL="2433" NAME="uregex_hasAnchoringBounds_44" PURGE="0" COMMENT="" />
    <EXPORT ORDINAL="2434" NAME="uregex_hasTransparentBounds_44" PURGE="0" COMMENT="" />
    <EXPORT ORDINAL="2435" NAME="uregex_hitEnd_44" PURGE="0" COMMENT="" />
    <EXPORT ORDINAL="2436" NAME="uregex_lookingAt_44" PURGE="0" COMMENT="" />
    <EXPORT ORDINAL="2437" NAME="uregex_matches_44" PURGE="0" COMMENT="" />
    <EXPORT ORDINAL="2438" NAME="uregex_openC_44" PURGE="0" COMMENT="" />
    <EXPORT ORDINAL="2439" NAME="uregex_openUText_44" PURGE="0" COMMENT="" />
    <EXPORT ORDINAL="2440" NAME="uregex_open_44" PURGE="0" COMMENT="" />
    <EXPORT ORDINAL="2441" NAME="uregex_patternUText_44" PURGE="0" COMMENT="" />
    <EXPORT ORDINAL="2442" NAME="uregex_pattern_44" PURGE="0" COMMENT="" />
    <EXPORT ORDINAL="2443" NAME="uregex_regionEnd_44" PURGE="0" COMMENT="" />
    <EXPORT ORDINAL="2444" NAME="uregex_regionStart_44" PURGE="0" COMMENT="" />
    <EXPORT ORDINAL="2445" NAME="uregex_replaceAllUText_44" PURGE="0" COMMENT="" />
    <EXPORT ORDINAL="2446" NAME="uregex_replaceAll_44" PURGE="0" COMMENT="" />
    <EXPORT ORDINAL="2447" NAME="uregex_replaceFirstUText_44" PURGE="0" COMMENT="" />
    <EXPORT ORDINAL="2448" NAME="uregex_replaceFirst_44" PURGE="0" COMMENT="" />
    <EXPORT ORDINAL="2449" NAME="uregex_requireEnd_44" PURGE="0" COMMENT="" />
    <EXPORT ORDINAL="2450" NAME="uregex_reset_44" PURGE="0" COMMENT="" />
    <EXPORT ORDINAL="2451" NAME="uregex_setMatchCallback_44" PURGE="0" COMMENT="" />
    <EXPORT ORDINAL="2452" NAME="uregex_setRegion_44" PURGE="0" COMMENT="" />
    <EXPORT ORDINAL="2453" NAME="uregex_setStackLimit_44" PURGE="0" COMMENT="" />
    <EXPORT ORDINAL="2454" NAME="uregex_setText_44" PURGE="0" COMMENT="" />
    <EXPORT ORDINAL="2455" NAME="uregex_setTimeLimit_44" PURGE="0" COMMENT="" />
    <EXPORT ORDINAL="2456" NAME="uregex_setUText_44" PURGE="0" COMMENT="" />
    <EXPORT ORDINAL="2457" NAME="uregex_splitUText_44" PURGE="0" COMMENT="" />
    <EXPORT ORDINAL="2458" NAME="uregex_split_44" PURGE="0" COMMENT="" />
    <EXPORT ORDINAL="2459" NAME="uregex_start_44" PURGE="0" COMMENT="" />
    <EXPORT ORDINAL="2460" NAME="uregex_useAnchoringBounds_44" PURGE="0" COMMENT="" />
    <EXPORT ORDINAL="2461" NAME="uregex_useTransparentBounds_44" PURGE="0" COMMENT="" />
    <EXPORT ORDINAL="2462" NAME="usearch_close_44" PURGE="0" COMMENT="" />
    <EXPORT ORDINAL="2463" NAME="usearch_first_44" PURGE="0" COMMENT="" />
    <EXPORT ORDINAL="2464" NAME="usearch_following_44" PURGE="0" COMMENT="" />
    <EXPORT ORDINAL="2465" NAME="usearch_getAttribute_44" PURGE="0" COMMENT="" />
    <EXPORT ORDINAL="2466" NAME="usearch_getBreakIterator_44" PURGE="0" COMMENT="" />
    <EXPORT ORDINAL="2467" NAME="usearch_getCollator_44" PURGE="0" COMMENT="" />
    <EXPORT ORDINAL="2468" NAME="usearch_getMatchedLength_44" PURGE="0" COMMENT="" />
    <EXPORT ORDINAL="2469" NAME="usearch_getMatchedStart_44" PURGE="0" COMMENT="" />
    <EXPORT ORDINAL="2470" NAME="usearch_getMatchedText_44" PURGE="0" COMMENT="" />
    <EXPORT ORDINAL="2471" NAME="usearch_getOffset_44" PURGE="0" COMMENT="" />
    <EXPORT ORDINAL="2472" NAME="usearch_getPattern_44" PURGE="0" COMMENT="" />
    <EXPORT ORDINAL="2473" NAME="usearch_getText_44" PURGE="0" COMMENT="" />
    <EXPORT ORDINAL="2474" NAME="usearch_last_44" PURGE="0" COMMENT="" />
    <EXPORT ORDINAL="2475" NAME="usearch_next_44" PURGE="0" COMMENT="" />
    <EXPORT ORDINAL="2476" NAME="usearch_openFromCollator_44" PURGE="0" COMMENT="" />
    <EXPORT ORDINAL="2477" NAME="usearch_open_44" PURGE="0" COMMENT="" />
    <EXPORT ORDINAL="2478" NAME="usearch_preceding_44" PURGE="0" COMMENT="" />
    <EXPORT ORDINAL="2479" NAME="usearch_previous_44" PURGE="0" COMMENT="" />
    <EXPORT ORDINAL="2480" NAME="usearch_reset_44" PURGE="0" COMMENT="" />
    <EXPORT ORDINAL="2481" NAME="usearch_searchBackwards_44" PURGE="0" COMMENT="" />
    <EXPORT ORDINAL="2482" NAME="usearch_search_44" PURGE="0" COMMENT="" />
    <EXPORT ORDINAL="2483" NAME="usearch_setAttribute_44" PURGE="0" COMMENT="" />
    <EXPORT ORDINAL="2484" NAME="usearch_setBreakIterator_44" PURGE="0" COMMENT="" />
    <EXPORT ORDINAL="2485" NAME="usearch_setCollator_44" PURGE="0" COMMENT="" />
    <EXPORT ORDINAL="2486" NAME="usearch_setOffset_44" PURGE="0" COMMENT="" />
    <EXPORT ORDINAL="2487" NAME="usearch_setPattern_44" PURGE="0" COMMENT="" />
    <EXPORT ORDINAL="2488" NAME="usearch_setText_44" PURGE="0" COMMENT="" />
    <EXPORT ORDINAL="2489" NAME="uspoof_areConfusableUTF8_44" PURGE="0" COMMENT="" />
    <EXPORT ORDINAL="2490" NAME="uspoof_areConfusableUnicodeString_44" PURGE="0" COMMENT="" />
    <EXPORT ORDINAL="2491" NAME="uspoof_areConfusable_44" PURGE="0" COMMENT="" />
    <EXPORT ORDINAL="2492" NAME="uspoof_checkUTF8_44" PURGE="0" COMMENT="" />
    <EXPORT ORDINAL="2493" NAME="uspoof_checkUnicodeString_44" PURGE="0" COMMENT="" />
    <EXPORT ORDINAL="2494" NAME="uspoof_check_44" PURGE="0" COMMENT="" />
    <EXPORT ORDINAL="2495" NAME="uspoof_clone_44" PURGE="0" COMMENT="" />
    <EXPORT ORDINAL="2496" NAME="uspoof_close_44" PURGE="0" COMMENT="" />
    <EXPORT ORDINAL="2497" NAME="uspoof_getAllowedChars_44" PURGE="0" COMMENT="" />
    <EXPORT ORDINAL="2498" NAME="uspoof_getAllowedLocales_44" PURGE="0" COMMENT="" />
    <EXPORT ORDINAL="2499" NAME="uspoof_getAllowedUnicodeSet_44" PURGE="0" COMMENT="" />
    <EXPORT ORDINAL="2500" NAME="uspoof_getChecks_44" PURGE="0" COMMENT="" />
    <EXPORT ORDINAL="2501" NAME="uspoof_getSkeletonUTF8_44" PURGE="0" COMMENT="" />
    <EXPORT ORDINAL="2502" NAME="uspoof_getSkeletonUnicodeString_44" PURGE="0" COMMENT="" />
    <EXPORT ORDINAL="2503" NAME="uspoof_getSkeleton_44" PURGE="0" COMMENT="" />
    <EXPORT ORDINAL="2504" NAME="uspoof_openFromSerialized_44" PURGE="0" COMMENT="" />
    <EXPORT ORDINAL="2505" NAME="uspoof_openFromSource_44" PURGE="0" COMMENT="" />
    <EXPORT ORDINAL="2506" NAME="uspoof_open_44" PURGE="0" COMMENT="" />
    <EXPORT ORDINAL="2507" NAME="uspoof_serialize_44" PURGE="0" COMMENT="" />
    <EXPORT ORDINAL="2508" NAME="uspoof_setAllowedChars_44" PURGE="0" COMMENT="" />
    <EXPORT ORDINAL="2509" NAME="uspoof_setAllowedLocales_44" PURGE="0" COMMENT="" />
    <EXPORT ORDINAL="2510" NAME="uspoof_setAllowedUnicodeSet_44" PURGE="0" COMMENT="" />
    <EXPORT ORDINAL="2511" NAME="uspoof_setChecks_44" PURGE="0" COMMENT="" />
    <EXPORT ORDINAL="2512" NAME="uspoof_swap_44" PURGE="0" COMMENT="" />
    <EXPORT ORDINAL="2513" NAME="utmscale_fromInt64_44" PURGE="0" COMMENT="" />
    <EXPORT ORDINAL="2514" NAME="utmscale_getTimeScaleValue_44" PURGE="0" COMMENT="" />
    <EXPORT ORDINAL="2515" NAME="utmscale_toInt64_44" PURGE="0" COMMENT="" />
    <EXPORT ORDINAL="2516" NAME="utrans_clone_44" PURGE="0" COMMENT="" />
    <EXPORT ORDINAL="2517" NAME="utrans_close_44" PURGE="0" COMMENT="" />
    <EXPORT ORDINAL="2518" NAME="utrans_countAvailableIDs_44" PURGE="0" COMMENT="" />
    <EXPORT ORDINAL="2519" NAME="utrans_getAvailableID_44" PURGE="0" COMMENT="" />
    <EXPORT ORDINAL="2520" NAME="utrans_getID_44" PURGE="0" COMMENT="" />
    <EXPORT ORDINAL="2521" NAME="utrans_getUnicodeID_44" PURGE="0" COMMENT="" />
    <EXPORT ORDINAL="2522" NAME="utrans_openIDs_44" PURGE="0" COMMENT="" />
    <EXPORT ORDINAL="2523" NAME="utrans_openInverse_44" PURGE="0" COMMENT="" />
    <EXPORT ORDINAL="2524" NAME="utrans_openU_44" PURGE="0" COMMENT="" />
    <EXPORT ORDINAL="2525" NAME="utrans_open_44" PURGE="0" COMMENT="" />
    <EXPORT ORDINAL="2526" NAME="utrans_register_44" PURGE="0" COMMENT="" />
    <EXPORT ORDINAL="2527" NAME="utrans_setFilter_44" PURGE="0" COMMENT="" />
    <EXPORT ORDINAL="2528" NAME="utrans_stripRules_44" PURGE="0" COMMENT="" />
    <EXPORT ORDINAL="2529" NAME="utrans_transIncrementalUChars_44" PURGE="0" COMMENT="" />
    <EXPORT ORDINAL="2530" NAME="utrans_transIncremental_44" PURGE="0" COMMENT="" />
    <EXPORT ORDINAL="2531" NAME="utrans_transUChars_44" PURGE="0" COMMENT="" />
    <EXPORT ORDINAL="2532" NAME="utrans_trans_44" PURGE="0" COMMENT="" />
    <EXPORT ORDINAL="2533" NAME="utrans_unregisterID_44" PURGE="0" COMMENT="" />
    <EXPORT ORDINAL="2534" NAME="utrans_unregister_44" PURGE="0" COMMENT="" />
    <EXPORT ORDINAL="2535" NAME="vzone_clone_44" PURGE="0" COMMENT="" />
    <EXPORT ORDINAL="2536" NAME="vzone_close_44" PURGE="0" COMMENT="" />
    <EXPORT ORDINAL="2537" NAME="vzone_countTransitionRules_44" PURGE="0" COMMENT="" />
    <EXPORT ORDINAL="2538" NAME="vzone_equals_44" PURGE="0" COMMENT="" />
    <EXPORT ORDINAL="2539" NAME="vzone_getDynamicClassID_44" PURGE="0" COMMENT="" />
    <EXPORT ORDINAL="2540" NAME="vzone_getLastModified_44" PURGE="0" COMMENT="" />
    <EXPORT ORDINAL="2541" NAME="vzone_getNextTransition_44" PURGE="0" COMMENT="" />
    <EXPORT ORDINAL="2542" NAME="vzone_getOffset2_44" PURGE="0" COMMENT="" />
    <EXPORT ORDINAL="2543" NAME="vzone_getOffset3_44" PURGE="0" COMMENT="" />
    <EXPORT ORDINAL="2544" NAME="vzone_getOffset_44" PURGE="0" COMMENT="" />
    <EXPORT ORDINAL="2545" NAME="vzone_getPreviousTransition_44" PURGE="0" COMMENT="" />
    <EXPORT ORDINAL="2546" NAME="vzone_getRawOffset_44" PURGE="0" COMMENT="" />
    <EXPORT ORDINAL="2547" NAME="vzone_getStaticClassID_44" PURGE="0" COMMENT="" />
    <EXPORT ORDINAL="2548" NAME="vzone_getTZURL_44" PURGE="0" COMMENT="" />
    <EXPORT ORDINAL="2549" NAME="vzone_hasSameRules_44" PURGE="0" COMMENT="" />
    <EXPORT ORDINAL="2550" NAME="vzone_inDaylightTime_44" PURGE="0" COMMENT="" />
    <EXPORT ORDINAL="2551" NAME="vzone_openData_44" PURGE="0" COMMENT="" />
    <EXPORT ORDINAL="2552" NAME="vzone_openID_44" PURGE="0" COMMENT="" />
    <EXPORT ORDINAL="2553" NAME="vzone_setLastModified_44" PURGE="0" COMMENT="" />
    <EXPORT ORDINAL="2554" NAME="vzone_setRawOffset_44" PURGE="0" COMMENT="" />
    <EXPORT ORDINAL="2555" NAME="vzone_setTZURL_44" PURGE="0" COMMENT="" />
    <EXPORT ORDINAL="2556" NAME="vzone_useDaylightTime_44" PURGE="0" COMMENT="" />
    <EXPORT ORDINAL="2557" NAME="vzone_writeFromStart_44" PURGE="0" COMMENT="" />
    <EXPORT ORDINAL="2558" NAME="vzone_writeSimple_44" PURGE="0" COMMENT="" />
    <EXPORT ORDINAL="2559" NAME="vzone_write_44" PURGE="0" COMMENT="" />
    <EXPORT ORDINAL="2560" NAME="zrule_close_44" PURGE="0" COMMENT="" />
    <EXPORT ORDINAL="2561" NAME="zrule_equals_44" PURGE="0" COMMENT="" />
    <EXPORT ORDINAL="2562" NAME="zrule_getDSTSavings_44" PURGE="0" COMMENT="" />
    <EXPORT ORDINAL="2563" NAME="zrule_getName_44" PURGE="0" COMMENT="" />
    <EXPORT ORDINAL="2564" NAME="zrule_getRawOffset_44" PURGE="0" COMMENT="" />
    <EXPORT ORDINAL="2565" NAME="zrule_isEquivalentTo_44" PURGE="0" COMMENT="" />
    <EXPORT ORDINAL="2566" NAME="ztrans_adoptFrom_44" PURGE="0" COMMENT="" />
    <EXPORT ORDINAL="2567" NAME="ztrans_adoptTo_44" PURGE="0" COMMENT="" />
    <EXPORT ORDINAL="2568" NAME="ztrans_clone_44" PURGE="0" COMMENT="" />
    <EXPORT ORDINAL="2569" NAME="ztrans_close_44" PURGE="0" COMMENT="" />
    <EXPORT ORDINAL="2570" NAME="ztrans_equals_44" PURGE="0" COMMENT="" />
    <EXPORT ORDINAL="2571" NAME="ztrans_getDynamicClassID_44" PURGE="0" COMMENT="" />
    <EXPORT ORDINAL="2572" NAME="ztrans_getFrom_44" PURGE="0" COMMENT="" />
    <EXPORT ORDINAL="2573" NAME="ztrans_getStaticClassID_44" PURGE="0" COMMENT="" />
    <EXPORT ORDINAL="2574" NAME="ztrans_getTime_44" PURGE="0" COMMENT="" />
    <EXPORT ORDINAL="2575" NAME="ztrans_getTo_44" PURGE="0" COMMENT="" />
    <EXPORT ORDINAL="2576" NAME="ztrans_openEmpty_44" PURGE="0" COMMENT="" />
    <EXPORT ORDINAL="2577" NAME="ztrans_open_44" PURGE="0" COMMENT="" />
    <EXPORT ORDINAL="2578" NAME="ztrans_setFrom_44" PURGE="0" COMMENT="" />
    <EXPORT ORDINAL="2579" NAME="ztrans_setTime_44" PURGE="0" COMMENT="" />
    <EXPORT ORDINAL="2580" NAME="ztrans_setTo_44" PURGE="0" COMMENT="" />
</LIBRARY>

