<?xml version="1.0" encoding="UTF-8"?>
<LIBRARY NAME="icuuc44.dll" PATH="/DLLArchive/etc/icuuc44.dll" DATE="Fri Jul 03 12:39:54 PDT 2020" VERSION="4, 4, 0, 0">
    <EXPORT ORDINAL="1" NAME="??0BreakIterator@icu_44@@IAE@ABV01@@Z" PURGE="4" COMMENT="" />
    <EXPORT ORDINAL="2" NAME="??0BreakIterator@icu_44@@IAE@XZ" PURGE="0" COMMENT="" />
    <EXPORT ORDINAL="3" NAME="??0ByteSink@icu_44@@QAE@XZ" PURGE="0" COMMENT="" />
    <EXPORT ORDINAL="4" NAME="??0CanonicalIterator@icu_44@@QAE@ABVUnicodeString@1@AAW4UErrorCode@@@Z" PURGE="8" COMMENT="" />
    <EXPORT ORDINAL="5" NAME="??0CharString@icu_44@@QAE@ABVUnicodeString@1@@Z" PURGE="4" COMMENT="" />
    <EXPORT ORDINAL="6" NAME="??0CharacterIterator@icu_44@@IAE@ABV01@@Z" PURGE="4" COMMENT="" />
    <EXPORT ORDINAL="7" NAME="??0CharacterIterator@icu_44@@IAE@H@Z" PURGE="4" COMMENT="" />
    <EXPORT ORDINAL="8" NAME="??0CharacterIterator@icu_44@@IAE@HH@Z" PURGE="8" COMMENT="" />
    <EXPORT ORDINAL="9" NAME="??0CharacterIterator@icu_44@@IAE@HHHH@Z" PURGE="16" COMMENT="" />
    <EXPORT ORDINAL="10" NAME="??0CharacterIterator@icu_44@@IAE@XZ" PURGE="0" COMMENT="" />
    <EXPORT ORDINAL="11" NAME="??0CheckedArrayByteSink@icu_44@@QAE@PADH@Z" PURGE="8" COMMENT="" />
    <EXPORT ORDINAL="12" NAME="??0CompactTrieDictionary@icu_44@@QAE@ABV01@@Z" PURGE="4" COMMENT="" />
    <EXPORT ORDINAL="13" NAME="??0CompactTrieDictionary@icu_44@@QAE@ABVMutableTrieDictionary@1@AAW4UErrorCode@@@Z" PURGE="8" COMMENT="" />
    <EXPORT ORDINAL="14" NAME="??0CompactTrieDictionary@icu_44@@QAE@PAUUDataMemory@@AAW4UErrorCode@@@Z" PURGE="8" COMMENT="" />
    <EXPORT ORDINAL="15" NAME="??0CompactTrieDictionary@icu_44@@QAE@PBXAAW4UErrorCode@@@Z" PURGE="8" COMMENT="" />
    <EXPORT ORDINAL="16" NAME="??0DateInterval@icu_44@@QAE@ABV01@@Z" PURGE="4" COMMENT="" />
    <EXPORT ORDINAL="17" NAME="??0DateInterval@icu_44@@QAE@NN@Z" PURGE="16" COMMENT="" />
    <EXPORT ORDINAL="18" NAME="??0ErrorCode@icu_44@@QAE@ABV01@@Z" PURGE="4" COMMENT="" />
    <EXPORT ORDINAL="19" NAME="??0ErrorCode@icu_44@@QAE@XZ" PURGE="0" COMMENT="" />
    <EXPORT ORDINAL="20" NAME="??0EventListener@icu_44@@QAE@ABV01@@Z" PURGE="4" COMMENT="" />
    <EXPORT ORDINAL="21" NAME="??0EventListener@icu_44@@QAE@XZ" PURGE="0" COMMENT="" />
    <EXPORT ORDINAL="22" NAME="??0FilteredNormalizer2@icu_44@@QAE@ABV01@@Z" PURGE="4" COMMENT="" />
    <EXPORT ORDINAL="23" NAME="??0FilteredNormalizer2@icu_44@@QAE@ABVNormalizer2@1@ABVUnicodeSet@1@@Z" PURGE="8" COMMENT="" />
    <EXPORT ORDINAL="24" NAME="??0ForwardCharacterIterator@icu_44@@IAE@ABV01@@Z" PURGE="4" COMMENT="" />
    <EXPORT ORDINAL="25" NAME="??0ForwardCharacterIterator@icu_44@@IAE@XZ" PURGE="0" COMMENT="" />
    <EXPORT ORDINAL="26" NAME="??0Hashtable@icu_44@@QAE@AAW4UErrorCode@@@Z" PURGE="4" COMMENT="" />
    <EXPORT ORDINAL="27" NAME="??0Hashtable@icu_44@@QAE@CAAW4UErrorCode@@@Z" PURGE="8" COMMENT="" />
    <EXPORT ORDINAL="28" NAME="??0Hashtable@icu_44@@QAE@P6ACTUHashTok@@0@Z1AAW4UErrorCode@@@Z" PURGE="12" COMMENT="" />
    <EXPORT ORDINAL="29" NAME="??0Hashtable@icu_44@@QAE@XZ" PURGE="0" COMMENT="" />
    <EXPORT ORDINAL="30" NAME="??0ICULocaleService@icu_44@@QAE@ABV01@@Z" PURGE="4" COMMENT="" />
    <EXPORT ORDINAL="31" NAME="??0ICULocaleService@icu_44@@QAE@ABVUnicodeString@1@@Z" PURGE="4" COMMENT="" />
    <EXPORT ORDINAL="32" NAME="??0ICULocaleService@icu_44@@QAE@XZ" PURGE="0" COMMENT="" />
    <EXPORT ORDINAL="33" NAME="??0ICUNotifier@icu_44@@QAE@ABV01@@Z" PURGE="4" COMMENT="" />
    <EXPORT ORDINAL="34" NAME="??0ICUNotifier@icu_44@@QAE@XZ" PURGE="0" COMMENT="" />
    <EXPORT ORDINAL="35" NAME="??0ICUResourceBundleFactory@icu_44@@QAE@ABV01@@Z" PURGE="4" COMMENT="" />
    <EXPORT ORDINAL="36" NAME="??0ICUResourceBundleFactory@icu_44@@QAE@ABVUnicodeString@1@@Z" PURGE="4" COMMENT="" />
    <EXPORT ORDINAL="37" NAME="??0ICUResourceBundleFactory@icu_44@@QAE@XZ" PURGE="0" COMMENT="" />
    <EXPORT ORDINAL="38" NAME="??0ICUService@icu_44@@QAE@ABV01@@Z" PURGE="4" COMMENT="" />
    <EXPORT ORDINAL="39" NAME="??0ICUService@icu_44@@QAE@ABVUnicodeString@1@@Z" PURGE="4" COMMENT="" />
    <EXPORT ORDINAL="40" NAME="??0ICUService@icu_44@@QAE@XZ" PURGE="0" COMMENT="" />
    <EXPORT ORDINAL="41" NAME="??0ICUServiceFactory@icu_44@@QAE@ABV01@@Z" PURGE="4" COMMENT="" />
    <EXPORT ORDINAL="42" NAME="??0ICUServiceFactory@icu_44@@QAE@XZ" PURGE="0" COMMENT="" />
    <EXPORT ORDINAL="43" NAME="??0ICUServiceKey@icu_44@@QAE@ABV01@@Z" PURGE="4" COMMENT="" />
    <EXPORT ORDINAL="44" NAME="??0ICUServiceKey@icu_44@@QAE@ABVUnicodeString@1@@Z" PURGE="4" COMMENT="" />
    <EXPORT ORDINAL="45" NAME="??0Locale@icu_44@@AAE@W4ELocaleType@01@@Z" PURGE="4" COMMENT="" />
    <EXPORT ORDINAL="46" NAME="??0Locale@icu_44@@QAE@ABV01@@Z" PURGE="4" COMMENT="" />
    <EXPORT ORDINAL="47" NAME="??0Locale@icu_44@@QAE@PBD000@Z" PURGE="16" COMMENT="" />
    <EXPORT ORDINAL="48" NAME="??0Locale@icu_44@@QAE@XZ" PURGE="0" COMMENT="" />
    <EXPORT ORDINAL="49" NAME="??0LocaleBased@icu_44@@QAE@PAD0@Z" PURGE="8" COMMENT="" />
    <EXPORT ORDINAL="50" NAME="??0LocaleBased@icu_44@@QAE@PBD0@Z" PURGE="8" COMMENT="" />
    <EXPORT ORDINAL="51" NAME="??0LocaleKey@icu_44@@IAE@ABVUnicodeString@1@0PBV21@H@Z" PURGE="16" COMMENT="" />
    <EXPORT ORDINAL="52" NAME="??0LocaleKey@icu_44@@QAE@ABV01@@Z" PURGE="4" COMMENT="" />
    <EXPORT ORDINAL="53" NAME="??0LocaleKeyFactory@icu_44@@IAE@H@Z" PURGE="4" COMMENT="" />
    <EXPORT ORDINAL="54" NAME="??0LocaleKeyFactory@icu_44@@IAE@HABVUnicodeString@1@@Z" PURGE="8" COMMENT="" />
    <EXPORT ORDINAL="55" NAME="??0LocaleKeyFactory@icu_44@@QAE@ABV01@@Z" PURGE="4" COMMENT="" />
    <EXPORT ORDINAL="56" NAME="??0MutableTrieDictionary@icu_44@@AAE@AAW4UErrorCode@@@Z" PURGE="4" COMMENT="" />
    <EXPORT ORDINAL="57" NAME="??0MutableTrieDictionary@icu_44@@QAE@ABV01@@Z" PURGE="4" COMMENT="" />
    <EXPORT ORDINAL="58" NAME="??0MutableTrieDictionary@icu_44@@QAE@_WAAW4UErrorCode@@@Z" PURGE="8" COMMENT="" />
    <EXPORT ORDINAL="59" NAME="??0Mutex@icu_44@@QAE@PAPAX@Z" PURGE="4" COMMENT="" />
    <EXPORT ORDINAL="60" NAME="??0Normalizer2@icu_44@@QAE@ABV01@@Z" PURGE="4" COMMENT="" />
    <EXPORT ORDINAL="61" NAME="??0Normalizer2@icu_44@@QAE@XZ" PURGE="0" COMMENT="" />
    <EXPORT ORDINAL="62" NAME="??0Normalizer2Impl@icu_44@@QAE@XZ" PURGE="0" COMMENT="" />
    <EXPORT ORDINAL="63" NAME="??0Normalizer@icu_44@@QAE@ABV01@@Z" PURGE="4" COMMENT="" />
    <EXPORT ORDINAL="64" NAME="??0Normalizer@icu_44@@QAE@ABVCharacterIterator@1@W4UNormalizationMode@@@Z" PURGE="8" COMMENT="" />
    <EXPORT ORDINAL="65" NAME="??0Normalizer@icu_44@@QAE@ABVUnicodeString@1@W4UNormalizationMode@@@Z" PURGE="8" COMMENT="" />
    <EXPORT ORDINAL="66" NAME="??0Normalizer@icu_44@@QAE@PB_WHW4UNormalizationMode@@@Z" PURGE="12" COMMENT="" />
    <EXPORT ORDINAL="67" NAME="??0ParsePosition@icu_44@@QAE@ABV01@@Z" PURGE="4" COMMENT="" />
    <EXPORT ORDINAL="68" NAME="??0ParsePosition@icu_44@@QAE@H@Z" PURGE="4" COMMENT="" />
    <EXPORT ORDINAL="69" NAME="??0ParsePosition@icu_44@@QAE@XZ" PURGE="0" COMMENT="" />
    <EXPORT ORDINAL="70" NAME="??0Replaceable@icu_44@@IAE@XZ" PURGE="0" COMMENT="" />
    <EXPORT ORDINAL="71" NAME="??0Replaceable@icu_44@@QAE@ABV01@@Z" PURGE="4" COMMENT="" />
    <EXPORT ORDINAL="72" NAME="??0ResourceBundle@icu_44@@QAE@AAW4UErrorCode@@@Z" PURGE="4" COMMENT="" />
    <EXPORT ORDINAL="73" NAME="??0ResourceBundle@icu_44@@QAE@ABV01@@Z" PURGE="4" COMMENT="" />
    <EXPORT ORDINAL="74" NAME="??0ResourceBundle@icu_44@@QAE@ABVUnicodeString@1@AAW4UErrorCode@@@Z" PURGE="8" COMMENT="" />
    <EXPORT ORDINAL="75" NAME="??0ResourceBundle@icu_44@@QAE@ABVUnicodeString@1@ABVLocale@1@AAW4UErrorCode@@@Z" PURGE="12" COMMENT="" />
    <EXPORT ORDINAL="76" NAME="??0ResourceBundle@icu_44@@QAE@PAUUResourceBundle@@AAW4UErrorCode@@@Z" PURGE="8" COMMENT="" />
    <EXPORT ORDINAL="77" NAME="??0ResourceBundle@icu_44@@QAE@PBDABVLocale@1@AAW4UErrorCode@@@Z" PURGE="12" COMMENT="" />
    <EXPORT ORDINAL="78" NAME="??0RuleBasedBreakIterator@icu_44@@IAE@PAURBBIDataHeader@1@AAW4UErrorCode@@@Z" PURGE="8" COMMENT="" />
    <EXPORT ORDINAL="79" NAME="??0RuleBasedBreakIterator@icu_44@@IAE@PBURBBIDataHeader@1@W4EDontAdopt@01@AAW4UErrorCode@@@Z" PURGE="12" COMMENT="" />
    <EXPORT ORDINAL="80" NAME="??0RuleBasedBreakIterator@icu_44@@QAE@ABV01@@Z" PURGE="4" COMMENT="" />
    <EXPORT ORDINAL="81" NAME="??0RuleBasedBreakIterator@icu_44@@QAE@ABVUnicodeString@1@AAUUParseError@@AAW4UErrorCode@@@Z" PURGE="12" COMMENT="" />
    <EXPORT ORDINAL="82" NAME="??0RuleBasedBreakIterator@icu_44@@QAE@PAUUDataMemory@@AAW4UErrorCode@@@Z" PURGE="8" COMMENT="" />
    <EXPORT ORDINAL="83" NAME="??0RuleBasedBreakIterator@icu_44@@QAE@XZ" PURGE="0" COMMENT="" />
    <EXPORT ORDINAL="84" NAME="??0ServiceListener@icu_44@@QAE@ABV01@@Z" PURGE="4" COMMENT="" />
    <EXPORT ORDINAL="85" NAME="??0ServiceListener@icu_44@@QAE@XZ" PURGE="0" COMMENT="" />
    <EXPORT ORDINAL="86" NAME="??0SimpleFactory@icu_44@@QAE@ABV01@@Z" PURGE="4" COMMENT="" />
    <EXPORT ORDINAL="87" NAME="??0SimpleFactory@icu_44@@QAE@PAVUObject@1@ABVUnicodeString@1@C@Z" PURGE="12" COMMENT="" />
    <EXPORT ORDINAL="88" NAME="??0SimpleLocaleKeyFactory@icu_44@@QAE@ABV01@@Z" PURGE="4" COMMENT="" />
    <EXPORT ORDINAL="89" NAME="??0SimpleLocaleKeyFactory@icu_44@@QAE@PAVUObject@1@ABVLocale@1@HH@Z" PURGE="16" COMMENT="" />
    <EXPORT ORDINAL="90" NAME="??0SimpleLocaleKeyFactory@icu_44@@QAE@PAVUObject@1@ABVUnicodeString@1@HH@Z" PURGE="16" COMMENT="" />
    <EXPORT ORDINAL="91" NAME="??0StringCharacterIterator@icu_44@@IAE@XZ" PURGE="0" COMMENT="" />
    <EXPORT ORDINAL="92" NAME="??0StringCharacterIterator@icu_44@@QAE@ABV01@@Z" PURGE="4" COMMENT="" />
    <EXPORT ORDINAL="93" NAME="??0StringCharacterIterator@icu_44@@QAE@ABVUnicodeString@1@@Z" PURGE="4" COMMENT="" />
    <EXPORT ORDINAL="94" NAME="??0StringCharacterIterator@icu_44@@QAE@ABVUnicodeString@1@H@Z" PURGE="8" COMMENT="" />
    <EXPORT ORDINAL="95" NAME="??0StringCharacterIterator@icu_44@@QAE@ABVUnicodeString@1@HHH@Z" PURGE="16" COMMENT="" />
    <EXPORT ORDINAL="96" NAME="??0StringEnumeration@icu_44@@IAE@XZ" PURGE="0" COMMENT="" />
    <EXPORT ORDINAL="97" NAME="??0StringEnumeration@icu_44@@QAE@ABV01@@Z" PURGE="4" COMMENT="" />
    <EXPORT ORDINAL="98" NAME="??0StringPair@icu_44@@AAE@ABVUnicodeString@1@0@Z" PURGE="8" COMMENT="" />
    <EXPORT ORDINAL="99" NAME="??0StringPair@icu_44@@QAE@ABV01@@Z" PURGE="4" COMMENT="" />
    <EXPORT ORDINAL="100" NAME="??0StringPiece@icu_44@@QAE@ABV01@H@Z" PURGE="8" COMMENT="" />
    <EXPORT ORDINAL="101" NAME="??0StringPiece@icu_44@@QAE@ABV01@HH@Z" PURGE="12" COMMENT="" />
    <EXPORT ORDINAL="102" NAME="??0StringPiece@icu_44@@QAE@ABV?$basic_string@DU?$char_traits@D@std@@V?$allocator@D@2@@std@@@Z" PURGE="4" COMMENT="" />
    <EXPORT ORDINAL="103" NAME="??0StringPiece@icu_44@@QAE@PBD@Z" PURGE="4" COMMENT="" />
    <EXPORT ORDINAL="104" NAME="??0StringPiece@icu_44@@QAE@PBDH@Z" PURGE="8" COMMENT="" />
    <EXPORT ORDINAL="105" NAME="??0StringPiece@icu_44@@QAE@XZ" PURGE="0" COMMENT="" />
    <EXPORT ORDINAL="106" NAME="??0SymbolTable@icu_44@@QAE@ABV01@@Z" PURGE="4" COMMENT="" />
    <EXPORT ORDINAL="107" NAME="??0SymbolTable@icu_44@@QAE@XZ" PURGE="0" COMMENT="" />
    <EXPORT ORDINAL="108" NAME="??0TrieWordDictionary@icu_44@@QAE@ABV01@@Z" PURGE="4" COMMENT="" />
    <EXPORT ORDINAL="109" NAME="??0TrieWordDictionary@icu_44@@QAE@XZ" PURGE="0" COMMENT="" />
    <EXPORT ORDINAL="110" NAME="??0UCharCharacterIterator@icu_44@@IAE@XZ" PURGE="0" COMMENT="" />
    <EXPORT ORDINAL="111" NAME="??0UCharCharacterIterator@icu_44@@QAE@ABV01@@Z" PURGE="4" COMMENT="" />
    <EXPORT ORDINAL="112" NAME="??0UCharCharacterIterator@icu_44@@QAE@PB_WH@Z" PURGE="8" COMMENT="" />
    <EXPORT ORDINAL="113" NAME="??0UCharCharacterIterator@icu_44@@QAE@PB_WHH@Z" PURGE="12" COMMENT="" />
    <EXPORT ORDINAL="114" NAME="??0UCharCharacterIterator@icu_44@@QAE@PB_WHHHH@Z" PURGE="20" COMMENT="" />
    <EXPORT ORDINAL="115" NAME="??0UObject@icu_44@@QAE@ABV01@@Z" PURGE="4" COMMENT="" />
    <EXPORT ORDINAL="116" NAME="??0UObject@icu_44@@QAE@XZ" PURGE="0" COMMENT="" />
    <EXPORT ORDINAL="117" NAME="??0UStack@icu_44@@QAE@AAW4UErrorCode@@@Z" PURGE="4" COMMENT="" />
    <EXPORT ORDINAL="118" NAME="??0UStack@icu_44@@QAE@HAAW4UErrorCode@@@Z" PURGE="8" COMMENT="" />
    <EXPORT ORDINAL="119" NAME="??0UStack@icu_44@@QAE@P6AXPAX@ZP6ACTUHashTok@@2@ZAAW4UErrorCode@@@Z" PURGE="12" COMMENT="" />
    <EXPORT ORDINAL="120" NAME="??0UStack@icu_44@@QAE@P6AXPAX@ZP6ACTUHashTok@@2@ZHAAW4UErrorCode@@@Z" PURGE="16" COMMENT="" />
    <EXPORT ORDINAL="121" NAME="??0UStringEnumeration@icu_44@@QAE@ABV01@@Z" PURGE="4" COMMENT="" />
    <EXPORT ORDINAL="122" NAME="??0UStringEnumeration@icu_44@@QAE@PAUUEnumeration@@@Z" PURGE="4" COMMENT="" />
    <EXPORT ORDINAL="123" NAME="??0UVector32@icu_44@@QAE@AAW4UErrorCode@@@Z" PURGE="4" COMMENT="" />
    <EXPORT ORDINAL="124" NAME="??0UVector32@icu_44@@QAE@HAAW4UErrorCode@@@Z" PURGE="8" COMMENT="" />
    <EXPORT ORDINAL="125" NAME="??0UVector64@icu_44@@QAE@AAW4UErrorCode@@@Z" PURGE="4" COMMENT="" />
    <EXPORT ORDINAL="126" NAME="??0UVector64@icu_44@@QAE@HAAW4UErrorCode@@@Z" PURGE="8" COMMENT="" />
    <EXPORT ORDINAL="127" NAME="??0UVector@icu_44@@QAE@AAW4UErrorCode@@@Z" PURGE="4" COMMENT="" />
    <EXPORT ORDINAL="128" NAME="??0UVector@icu_44@@QAE@HAAW4UErrorCode@@@Z" PURGE="8" COMMENT="" />
    <EXPORT ORDINAL="129" NAME="??0UVector@icu_44@@QAE@P6AXPAX@ZP6ACTUHashTok@@2@ZAAW4UErrorCode@@@Z" PURGE="12" COMMENT="" />
    <EXPORT ORDINAL="130" NAME="??0UVector@icu_44@@QAE@P6AXPAX@ZP6ACTUHashTok@@2@ZHAAW4UErrorCode@@@Z" PURGE="16" COMMENT="" />
    <EXPORT ORDINAL="131" NAME="??0UnicodeFilter@icu_44@@QAE@ABV01@@Z" PURGE="4" COMMENT="" />
    <EXPORT ORDINAL="132" NAME="??0UnicodeFilter@icu_44@@QAE@XZ" PURGE="0" COMMENT="" />
    <EXPORT ORDINAL="133" NAME="??0UnicodeFunctor@icu_44@@QAE@ABV01@@Z" PURGE="4" COMMENT="" />
    <EXPORT ORDINAL="134" NAME="??0UnicodeFunctor@icu_44@@QAE@XZ" PURGE="0" COMMENT="" />
    <EXPORT ORDINAL="135" NAME="??0UnicodeMatcher@icu_44@@QAE@ABV01@@Z" PURGE="4" COMMENT="" />
    <EXPORT ORDINAL="136" NAME="??0UnicodeMatcher@icu_44@@QAE@XZ" PURGE="0" COMMENT="" />
    <EXPORT ORDINAL="137" NAME="??0UnicodeSet@icu_44@@AAE@ABV01@C@Z" PURGE="8" COMMENT="" />
    <EXPORT ORDINAL="138" NAME="??0UnicodeSet@icu_44@@QAE@ABV01@@Z" PURGE="4" COMMENT="" />
    <EXPORT ORDINAL="139" NAME="??0UnicodeSet@icu_44@@QAE@ABVUnicodeString@1@AAVParsePosition@1@IPBVSymbolTable@1@AAW4UErrorCode@@@Z" PURGE="20" COMMENT="" />
    <EXPORT ORDINAL="140" NAME="??0UnicodeSet@icu_44@@QAE@ABVUnicodeString@1@AAW4UErrorCode@@@Z" PURGE="8" COMMENT="" />
    <EXPORT ORDINAL="141" NAME="??0UnicodeSet@icu_44@@QAE@ABVUnicodeString@1@IPBVSymbolTable@1@AAW4UErrorCode@@@Z" PURGE="16" COMMENT="" />
    <EXPORT ORDINAL="142" NAME="??0UnicodeSet@icu_44@@QAE@HH@Z" PURGE="8" COMMENT="" />
    <EXPORT ORDINAL="143" NAME="??0UnicodeSet@icu_44@@QAE@XZ" PURGE="0" COMMENT="" />
    <EXPORT ORDINAL="144" NAME="??0UnicodeSetIterator@icu_44@@QAE@ABVUnicodeSet@1@@Z" PURGE="4" COMMENT="" />
    <EXPORT ORDINAL="145" NAME="??0UnicodeSetIterator@icu_44@@QAE@XZ" PURGE="0" COMMENT="" />
    <EXPORT ORDINAL="146" NAME="??0UnicodeString@icu_44@@QAE@ABV01@@Z" PURGE="4" COMMENT="" />
    <EXPORT ORDINAL="147" NAME="??0UnicodeString@icu_44@@QAE@ABV01@H@Z" PURGE="8" COMMENT="" />
    <EXPORT ORDINAL="148" NAME="??0UnicodeString@icu_44@@QAE@ABV01@HH@Z" PURGE="12" COMMENT="" />
    <EXPORT ORDINAL="149" NAME="??0UnicodeString@icu_44@@QAE@CPB_WH@Z" PURGE="12" COMMENT="" />
    <EXPORT ORDINAL="150" NAME="??0UnicodeString@icu_44@@QAE@H@Z" PURGE="4" COMMENT="" />
    <EXPORT ORDINAL="151" NAME="??0UnicodeString@icu_44@@QAE@HHH@Z" PURGE="12" COMMENT="" />
    <EXPORT ORDINAL="152" NAME="??0UnicodeString@icu_44@@QAE@PA_WHH@Z" PURGE="12" COMMENT="" />
    <EXPORT ORDINAL="153" NAME="??0UnicodeString@icu_44@@QAE@PBD0@Z" PURGE="8" COMMENT="" />
    <EXPORT ORDINAL="154" NAME="??0UnicodeString@icu_44@@QAE@PBD@Z" PURGE="4" COMMENT="" />
    <EXPORT ORDINAL="155" NAME="??0UnicodeString@icu_44@@QAE@PBDH0@Z" PURGE="12" COMMENT="" />
    <EXPORT ORDINAL="156" NAME="??0UnicodeString@icu_44@@QAE@PBDH@Z" PURGE="8" COMMENT="" />
    <EXPORT ORDINAL="157" NAME="??0UnicodeString@icu_44@@QAE@PBDHPAUUConverter@@AAW4UErrorCode@@@Z" PURGE="16" COMMENT="" />
    <EXPORT ORDINAL="158" NAME="??0UnicodeString@icu_44@@QAE@PBDHW4EInvariant@01@@Z" PURGE="12" COMMENT="" />
    <EXPORT ORDINAL="159" NAME="??0UnicodeString@icu_44@@QAE@PB_W@Z" PURGE="4" COMMENT="" />
    <EXPORT ORDINAL="160" NAME="??0UnicodeString@icu_44@@QAE@PB_WH@Z" PURGE="8" COMMENT="" />
    <EXPORT ORDINAL="161" NAME="??0UnicodeString@icu_44@@QAE@XZ" PURGE="0" COMMENT="" />
    <EXPORT ORDINAL="162" NAME="??0UnicodeString@icu_44@@QAE@_W@Z" PURGE="4" COMMENT="" />
    <EXPORT ORDINAL="163" NAME="??1BreakIterator@icu_44@@UAE@XZ" PURGE="0" COMMENT="" />
    <EXPORT ORDINAL="164" NAME="??1ByteSink@icu_44@@UAE@XZ" PURGE="0" COMMENT="" />
    <EXPORT ORDINAL="165" NAME="??1CanonicalIterator@icu_44@@UAE@XZ" PURGE="0" COMMENT="" />
    <EXPORT ORDINAL="166" NAME="??1CharString@icu_44@@QAE@XZ" PURGE="0" COMMENT="" />
    <EXPORT ORDINAL="167" NAME="??1CharacterIterator@icu_44@@UAE@XZ" PURGE="0" COMMENT="" />
    <EXPORT ORDINAL="168" NAME="??1CheckedArrayByteSink@icu_44@@UAE@XZ" PURGE="0" COMMENT="" />
    <EXPORT ORDINAL="169" NAME="??1CompactTrieDictionary@icu_44@@UAE@XZ" PURGE="0" COMMENT="" />
    <EXPORT ORDINAL="170" NAME="??1DateInterval@icu_44@@UAE@XZ" PURGE="0" COMMENT="" />
    <EXPORT ORDINAL="171" NAME="??1ErrorCode@icu_44@@UAE@XZ" PURGE="0" COMMENT="" />
    <EXPORT ORDINAL="172" NAME="??1EventListener@icu_44@@UAE@XZ" PURGE="0" COMMENT="" />
    <EXPORT ORDINAL="173" NAME="??1FilteredNormalizer2@icu_44@@UAE@XZ" PURGE="0" COMMENT="" />
    <EXPORT ORDINAL="174" NAME="??1ForwardCharacterIterator@icu_44@@UAE@XZ" PURGE="0" COMMENT="" />
    <EXPORT ORDINAL="175" NAME="??1Hashtable@icu_44@@QAE@XZ" PURGE="0" COMMENT="" />
    <EXPORT ORDINAL="176" NAME="??1ICULocaleService@icu_44@@UAE@XZ" PURGE="0" COMMENT="" />
    <EXPORT ORDINAL="177" NAME="??1ICUNotifier@icu_44@@UAE@XZ" PURGE="0" COMMENT="" />
    <EXPORT ORDINAL="178" NAME="??1ICUResourceBundleFactory@icu_44@@UAE@XZ" PURGE="0" COMMENT="" />
    <EXPORT ORDINAL="179" NAME="??1ICUService@icu_44@@UAE@XZ" PURGE="0" COMMENT="" />
    <EXPORT ORDINAL="180" NAME="??1ICUServiceFactory@icu_44@@UAE@XZ" PURGE="0" COMMENT="" />
    <EXPORT ORDINAL="181" NAME="??1ICUServiceKey@icu_44@@UAE@XZ" PURGE="0" COMMENT="" />
    <EXPORT ORDINAL="182" NAME="??1Locale@icu_44@@UAE@XZ" PURGE="0" COMMENT="" />
    <EXPORT ORDINAL="183" NAME="??1LocaleKey@icu_44@@UAE@XZ" PURGE="0" COMMENT="" />
    <EXPORT ORDINAL="184" NAME="??1LocaleKeyFactory@icu_44@@UAE@XZ" PURGE="0" COMMENT="" />
    <EXPORT ORDINAL="185" NAME="??1MutableTrieDictionary@icu_44@@UAE@XZ" PURGE="0" COMMENT="" />
    <EXPORT ORDINAL="186" NAME="??1Mutex@icu_44@@QAE@XZ" PURGE="0" COMMENT="" />
    <EXPORT ORDINAL="187" NAME="??1Normalizer2@icu_44@@UAE@XZ" PURGE="0" COMMENT="" />
    <EXPORT ORDINAL="188" NAME="??1Normalizer2Impl@icu_44@@QAE@XZ" PURGE="0" COMMENT="" />
    <EXPORT ORDINAL="189" NAME="??1Normalizer@icu_44@@UAE@XZ" PURGE="0" COMMENT="" />
    <EXPORT ORDINAL="190" NAME="??1ParsePosition@icu_44@@UAE@XZ" PURGE="0" COMMENT="" />
    <EXPORT ORDINAL="191" NAME="??1Replaceable@icu_44@@UAE@XZ" PURGE="0" COMMENT="" />
    <EXPORT ORDINAL="192" NAME="??1ResourceBundle@icu_44@@UAE@XZ" PURGE="0" COMMENT="" />
    <EXPORT ORDINAL="193" NAME="??1RuleBasedBreakIterator@icu_44@@UAE@XZ" PURGE="0" COMMENT="" />
    <EXPORT ORDINAL="194" NAME="??1ServiceListener@icu_44@@UAE@XZ" PURGE="0" COMMENT="" />
    <EXPORT ORDINAL="195" NAME="??1SimpleFactory@icu_44@@UAE@XZ" PURGE="0" COMMENT="" />
    <EXPORT ORDINAL="196" NAME="??1SimpleLocaleKeyFactory@icu_44@@UAE@XZ" PURGE="0" COMMENT="" />
    <EXPORT ORDINAL="197" NAME="??1StringCharacterIterator@icu_44@@UAE@XZ" PURGE="0" COMMENT="" />
    <EXPORT ORDINAL="198" NAME="??1StringEnumeration@icu_44@@UAE@XZ" PURGE="0" COMMENT="" />
    <EXPORT ORDINAL="199" NAME="??1StringPair@icu_44@@QAE@XZ" PURGE="0" COMMENT="" />
    <EXPORT ORDINAL="200" NAME="??1SymbolTable@icu_44@@UAE@XZ" PURGE="0" COMMENT="" />
    <EXPORT ORDINAL="201" NAME="??1TrieWordDictionary@icu_44@@UAE@XZ" PURGE="0" COMMENT="" />
    <EXPORT ORDINAL="202" NAME="??1UCharCharacterIterator@icu_44@@UAE@XZ" PURGE="0" COMMENT="" />
    <EXPORT ORDINAL="203" NAME="??1UObject@icu_44@@UAE@XZ" PURGE="0" COMMENT="" />
    <EXPORT ORDINAL="204" NAME="??1UStack@icu_44@@UAE@XZ" PURGE="0" COMMENT="" />
    <EXPORT ORDINAL="205" NAME="??1UStringEnumeration@icu_44@@UAE@XZ" PURGE="0" COMMENT="" />
    <EXPORT ORDINAL="206" NAME="??1UVector32@icu_44@@UAE@XZ" PURGE="0" COMMENT="" />
    <EXPORT ORDINAL="207" NAME="??1UVector64@icu_44@@UAE@XZ" PURGE="0" COMMENT="" />
    <EXPORT ORDINAL="208" NAME="??1UVector@icu_44@@UAE@XZ" PURGE="0" COMMENT="" />
    <EXPORT ORDINAL="209" NAME="??1UnicodeFilter@icu_44@@UAE@XZ" PURGE="0" COMMENT="" />
    <EXPORT ORDINAL="210" NAME="??1UnicodeFunctor@icu_44@@UAE@XZ" PURGE="0" COMMENT="" />
    <EXPORT ORDINAL="211" NAME="??1UnicodeMatcher@icu_44@@UAE@XZ" PURGE="0" COMMENT="" />
    <EXPORT ORDINAL="212" NAME="??1UnicodeSet@icu_44@@UAE@XZ" PURGE="0" COMMENT="" />
    <EXPORT ORDINAL="213" NAME="??1UnicodeSetIterator@icu_44@@UAE@XZ" PURGE="0" COMMENT="" />
    <EXPORT ORDINAL="214" NAME="??1UnicodeString@icu_44@@UAE@XZ" PURGE="0" COMMENT="" />
    <EXPORT ORDINAL="215" NAME="??2UMemory@icu_44@@SAPAXI@Z" PURGE="0" COMMENT="" />
    <EXPORT ORDINAL="216" NAME="??2UMemory@icu_44@@SAPAXIPAX@Z" PURGE="0" COMMENT="" />
    <EXPORT ORDINAL="217" NAME="??2UMemory@icu_44@@SAPAXIPBDH@Z" PURGE="0" COMMENT="" />
    <EXPORT ORDINAL="218" NAME="??3UMemory@icu_44@@SAXPAX0@Z" PURGE="0" COMMENT="" />
    <EXPORT ORDINAL="219" NAME="??3UMemory@icu_44@@SAXPAX@Z" PURGE="0" COMMENT="" />
    <EXPORT ORDINAL="220" NAME="??3UMemory@icu_44@@SAXPAXPBDH@Z" PURGE="0" COMMENT="" />
    <EXPORT ORDINAL="221" NAME="??4CharacterIterator@icu_44@@IAEAAV01@ABV01@@Z" PURGE="4" COMMENT="" />
    <EXPORT ORDINAL="222" NAME="??4CompactTrieDictionary@icu_44@@QAEAAV01@ABV01@@Z" PURGE="4" COMMENT="" />
    <EXPORT ORDINAL="223" NAME="??4DateInterval@icu_44@@QAEAAV01@ABV01@@Z" PURGE="4" COMMENT="" />
    <EXPORT ORDINAL="224" NAME="??4ErrorCode@icu_44@@QAEAAV01@ABV01@@Z" PURGE="4" COMMENT="" />
    <EXPORT ORDINAL="225" NAME="??4EventListener@icu_44@@QAEAAV01@ABV01@@Z" PURGE="4" COMMENT="" />
    <EXPORT ORDINAL="226" NAME="??4ForwardCharacterIterator@icu_44@@IAEAAV01@ABV01@@Z" PURGE="4" COMMENT="" />
    <EXPORT ORDINAL="227" NAME="??4ICUNotifier@icu_44@@QAEAAV01@ABV01@@Z" PURGE="4" COMMENT="" />
    <EXPORT ORDINAL="228" NAME="??4ICUServiceFactory@icu_44@@QAEAAV01@ABV01@@Z" PURGE="4" COMMENT="" />
    <EXPORT ORDINAL="229" NAME="??4ICU_Utility@icu_44@@QAEAAV01@ABV01@@Z" PURGE="4" COMMENT="" />
    <EXPORT ORDINAL="230" NAME="??4Locale@icu_44@@QAEAAV01@ABV01@@Z" PURGE="4" COMMENT="" />
    <EXPORT ORDINAL="231" NAME="??4LocaleBased@icu_44@@QAEAAV01@ABV01@@Z" PURGE="4" COMMENT="" />
    <EXPORT ORDINAL="232" NAME="??4LocaleUtility@icu_44@@QAEAAV01@ABV01@@Z" PURGE="4" COMMENT="" />
    <EXPORT ORDINAL="233" NAME="??4MutableTrieDictionary@icu_44@@QAEAAV01@ABV01@@Z" PURGE="4" COMMENT="" />
    <EXPORT ORDINAL="234" NAME="??4Normalizer2@icu_44@@QAEAAV01@ABV01@@Z" PURGE="4" COMMENT="" />
    <EXPORT ORDINAL="235" NAME="??4Normalizer2Factory@icu_44@@QAEAAV01@ABV01@@Z" PURGE="4" COMMENT="" />
    <EXPORT ORDINAL="236" NAME="??4Normalizer2Impl@icu_44@@QAEAAV01@ABV01@@Z" PURGE="4" COMMENT="" />
    <EXPORT ORDINAL="237" NAME="??4ParsePosition@icu_44@@QAEAAV01@ABV01@@Z" PURGE="4" COMMENT="" />
    <EXPORT ORDINAL="238" NAME="??4Replaceable@icu_44@@QAEAAV01@ABV01@@Z" PURGE="4" COMMENT="" />
    <EXPORT ORDINAL="239" NAME="??4ResourceBundle@icu_44@@QAEAAV01@ABV01@@Z" PURGE="4" COMMENT="" />
    <EXPORT ORDINAL="240" NAME="??4RuleBasedBreakIterator@icu_44@@QAEAAV01@ABV01@@Z" PURGE="4" COMMENT="" />
    <EXPORT ORDINAL="241" NAME="??4ServiceListener@icu_44@@QAEAAV01@ABV01@@Z" PURGE="4" COMMENT="" />
    <EXPORT ORDINAL="242" NAME="??4StringCharacterIterator@icu_44@@QAEAAV01@ABV01@@Z" PURGE="4" COMMENT="" />
    <EXPORT ORDINAL="243" NAME="??4StringEnumeration@icu_44@@QAEAAV01@ABV01@@Z" PURGE="4" COMMENT="" />
    <EXPORT ORDINAL="244" NAME="??4StringPiece@icu_44@@QAEAAV01@ABV01@@Z" PURGE="4" COMMENT="" />
    <EXPORT ORDINAL="245" NAME="??4SymbolTable@icu_44@@QAEAAV01@ABV01@@Z" PURGE="4" COMMENT="" />
    <EXPORT ORDINAL="246" NAME="??4TrieWordDictionary@icu_44@@QAEAAV01@ABV01@@Z" PURGE="4" COMMENT="" />
    <EXPORT ORDINAL="247" NAME="??4UCharCharacterIterator@icu_44@@QAEAAV01@ABV01@@Z" PURGE="4" COMMENT="" />
    <EXPORT ORDINAL="248" NAME="??4UMemory@icu_44@@QAEAAV01@ABV01@@Z" PURGE="4" COMMENT="" />
    <EXPORT ORDINAL="249" NAME="??4UObject@icu_44@@QAEAAV01@ABV01@@Z" PURGE="4" COMMENT="" />
    <EXPORT ORDINAL="250" NAME="??4UStringEnumeration@icu_44@@QAEAAV01@ABV01@@Z" PURGE="4" COMMENT="" />
    <EXPORT ORDINAL="251" NAME="??4UnicodeFilter@icu_44@@QAEAAV01@ABV01@@Z" PURGE="4" COMMENT="" />
    <EXPORT ORDINAL="252" NAME="??4UnicodeFunctor@icu_44@@QAEAAV01@ABV01@@Z" PURGE="4" COMMENT="" />
    <EXPORT ORDINAL="253" NAME="??4UnicodeMatcher@icu_44@@QAEAAV01@ABV01@@Z" PURGE="4" COMMENT="" />
    <EXPORT ORDINAL="254" NAME="??4UnicodeSet@icu_44@@QAEAAV01@ABV01@@Z" PURGE="4" COMMENT="" />
    <EXPORT ORDINAL="255" NAME="??4UnicodeString@icu_44@@QAEAAV01@ABV01@@Z" PURGE="4" COMMENT="" />
    <EXPORT ORDINAL="256" NAME="??4UnicodeString@icu_44@@QAEAAV01@H@Z" PURGE="4" COMMENT="" />
    <EXPORT ORDINAL="257" NAME="??4UnicodeString@icu_44@@QAEAAV01@_W@Z" PURGE="4" COMMENT="" />
    <EXPORT ORDINAL="258" NAME="??8DateInterval@icu_44@@UBECABV01@@Z" PURGE="4" COMMENT="" />
    <EXPORT ORDINAL="259" NAME="??8Locale@icu_44@@QBECABV01@@Z" PURGE="4" COMMENT="" />
    <EXPORT ORDINAL="260" NAME="??8Normalizer@icu_44@@QBECABV01@@Z" PURGE="4" COMMENT="" />
    <EXPORT ORDINAL="261" NAME="??8ParsePosition@icu_44@@QBECABV01@@Z" PURGE="4" COMMENT="" />
    <EXPORT ORDINAL="262" NAME="??8RuleBasedBreakIterator@icu_44@@UBECABVBreakIterator@1@@Z" PURGE="4" COMMENT="" />
    <EXPORT ORDINAL="263" NAME="??8StringCharacterIterator@icu_44@@UBECABVForwardCharacterIterator@1@@Z" PURGE="4" COMMENT="" />
    <EXPORT ORDINAL="264" NAME="??8StringEnumeration@icu_44@@UBECABV01@@Z" PURGE="4" COMMENT="" />
    <EXPORT ORDINAL="265" NAME="??8UCharCharacterIterator@icu_44@@UBECABVForwardCharacterIterator@1@@Z" PURGE="4" COMMENT="" />
    <EXPORT ORDINAL="266" NAME="??8UVector32@icu_44@@QAECABV01@@Z" PURGE="4" COMMENT="" />
    <EXPORT ORDINAL="267" NAME="??8UVector64@icu_44@@QAECABV01@@Z" PURGE="4" COMMENT="" />
    <EXPORT ORDINAL="268" NAME="??8UVector@icu_44@@QAECABV01@@Z" PURGE="4" COMMENT="" />
    <EXPORT ORDINAL="269" NAME="??8UnicodeSet@icu_44@@UBECABV01@@Z" PURGE="4" COMMENT="" />
    <EXPORT ORDINAL="270" NAME="??8UnicodeString@icu_44@@QBECABV01@@Z" PURGE="4" COMMENT="" />
    <EXPORT ORDINAL="271" NAME="??8icu_44@@YACABVStringPiece@0@0@Z" PURGE="0" COMMENT="" />
    <EXPORT ORDINAL="272" NAME="??9BreakIterator@icu_44@@QBECABV01@@Z" PURGE="4" COMMENT="" />
    <EXPORT ORDINAL="273" NAME="??9DateInterval@icu_44@@QBECABV01@@Z" PURGE="4" COMMENT="" />
    <EXPORT ORDINAL="274" NAME="??9ForwardCharacterIterator@icu_44@@QBECABV01@@Z" PURGE="4" COMMENT="" />
    <EXPORT ORDINAL="275" NAME="??9Locale@icu_44@@QBECABV01@@Z" PURGE="4" COMMENT="" />
    <EXPORT ORDINAL="276" NAME="??9Normalizer@icu_44@@QBECABV01@@Z" PURGE="4" COMMENT="" />
    <EXPORT ORDINAL="277" NAME="??9ParsePosition@icu_44@@QBECABV01@@Z" PURGE="4" COMMENT="" />
    <EXPORT ORDINAL="278" NAME="??9RuleBasedBreakIterator@icu_44@@QBECABVBreakIterator@1@@Z" PURGE="4" COMMENT="" />
    <EXPORT ORDINAL="279" NAME="??9StringEnumeration@icu_44@@UBECABV01@@Z" PURGE="4" COMMENT="" />
    <EXPORT ORDINAL="280" NAME="??9UVector32@icu_44@@QAECABV01@@Z" PURGE="4" COMMENT="" />
    <EXPORT ORDINAL="281" NAME="??9UVector64@icu_44@@QAECABV01@@Z" PURGE="4" COMMENT="" />
    <EXPORT ORDINAL="282" NAME="??9UVector@icu_44@@QAECABV01@@Z" PURGE="4" COMMENT="" />
    <EXPORT ORDINAL="283" NAME="??9UnicodeSet@icu_44@@QBECABV01@@Z" PURGE="4" COMMENT="" />
    <EXPORT ORDINAL="284" NAME="??9UnicodeString@icu_44@@QBECABV01@@Z" PURGE="4" COMMENT="" />
    <EXPORT ORDINAL="285" NAME="??AUVector@icu_44@@QBEPAXH@Z" PURGE="4" COMMENT="" />
    <EXPORT ORDINAL="286" NAME="??AUnicodeString@icu_44@@QBE_WH@Z" PURGE="4" COMMENT="" />
    <EXPORT ORDINAL="287" NAME="??BCharString@icu_44@@QBEPBDXZ" PURGE="0" COMMENT="" />
    <EXPORT ORDINAL="288" NAME="??BErrorCode@icu_44@@QAEAAW4UErrorCode@@XZ" PURGE="0" COMMENT="" />
    <EXPORT ORDINAL="289" NAME="??BErrorCode@icu_44@@QAEPAW4UErrorCode@@XZ" PURGE="0" COMMENT="" />
    <EXPORT ORDINAL="290" NAME="??Hicu_44@@YA?AVUnicodeString@0@ABV10@0@Z" PURGE="0" COMMENT="" />
    <EXPORT ORDINAL="291" NAME="??MUnicodeString@icu_44@@QBECABV01@@Z" PURGE="4" COMMENT="" />
    <EXPORT ORDINAL="292" NAME="??NUnicodeString@icu_44@@QBECABV01@@Z" PURGE="4" COMMENT="" />
    <EXPORT ORDINAL="293" NAME="??OUnicodeString@icu_44@@QBECABV01@@Z" PURGE="4" COMMENT="" />
    <EXPORT ORDINAL="294" NAME="??PUnicodeString@icu_44@@QBECABV01@@Z" PURGE="4" COMMENT="" />
    <EXPORT ORDINAL="295" NAME="??YUnicodeString@icu_44@@QAEAAV01@ABV01@@Z" PURGE="4" COMMENT="" />
    <EXPORT ORDINAL="296" NAME="??YUnicodeString@icu_44@@QAEAAV01@H@Z" PURGE="4" COMMENT="" />
    <EXPORT ORDINAL="297" NAME="??YUnicodeString@icu_44@@QAEAAV01@_W@Z" PURGE="4" COMMENT="" />
    <EXPORT ORDINAL="298" NAME="??_7BreakIterator@icu_44@@6B@" PURGE="-1" COMMENT="" />
    <EXPORT ORDINAL="299" NAME="??_7ByteSink@icu_44@@6B@" PURGE="-1" COMMENT="" />
    <EXPORT ORDINAL="300" NAME="??_7CanonicalIterator@icu_44@@6B@" PURGE="-1" COMMENT="" />
    <EXPORT ORDINAL="301" NAME="??_7CharacterIterator@icu_44@@6B@" PURGE="-1" COMMENT="" />
    <EXPORT ORDINAL="302" NAME="??_7CheckedArrayByteSink@icu_44@@6B@" PURGE="-1" COMMENT="" />
    <EXPORT ORDINAL="303" NAME="??_7CompactTrieDictionary@icu_44@@6B@" PURGE="-1" COMMENT="" />
    <EXPORT ORDINAL="304" NAME="??_7DateInterval@icu_44@@6B@" PURGE="-1" COMMENT="" />
    <EXPORT ORDINAL="305" NAME="??_7ErrorCode@icu_44@@6B@" PURGE="-1" COMMENT="" />
    <EXPORT ORDINAL="306" NAME="??_7EventListener@icu_44@@6B@" PURGE="-1" COMMENT="" />
    <EXPORT ORDINAL="307" NAME="??_7FilteredNormalizer2@icu_44@@6B@" PURGE="-1" COMMENT="" />
    <EXPORT ORDINAL="308" NAME="??_7ForwardCharacterIterator@icu_44@@6B@" PURGE="-1" COMMENT="" />
    <EXPORT ORDINAL="309" NAME="??_7ICULocaleService@icu_44@@6B@" PURGE="-1" COMMENT="" />
    <EXPORT ORDINAL="310" NAME="??_7ICUNotifier@icu_44@@6B@" PURGE="-1" COMMENT="" />
    <EXPORT ORDINAL="311" NAME="??_7ICUResourceBundleFactory@icu_44@@6B@" PURGE="-1" COMMENT="" />
    <EXPORT ORDINAL="312" NAME="??_7ICUService@icu_44@@6B@" PURGE="-1" COMMENT="" />
    <EXPORT ORDINAL="313" NAME="??_7ICUServiceFactory@icu_44@@6B@" PURGE="-1" COMMENT="" />
    <EXPORT ORDINAL="314" NAME="??_7ICUServiceKey@icu_44@@6B@" PURGE="-1" COMMENT="" />
    <EXPORT ORDINAL="315" NAME="??_7Locale@icu_44@@6B@" PURGE="-1" COMMENT="" />
    <EXPORT ORDINAL="316" NAME="??_7LocaleKey@icu_44@@6B@" PURGE="-1" COMMENT="" />
    <EXPORT ORDINAL="317" NAME="??_7LocaleKeyFactory@icu_44@@6B@" PURGE="-1" COMMENT="" />
    <EXPORT ORDINAL="318" NAME="??_7MutableTrieDictionary@icu_44@@6B@" PURGE="-1" COMMENT="" />
    <EXPORT ORDINAL="319" NAME="??_7Normalizer2@icu_44@@6B@" PURGE="-1" COMMENT="" />
    <EXPORT ORDINAL="320" NAME="??_7Normalizer@icu_44@@6B@" PURGE="-1" COMMENT="" />
    <EXPORT ORDINAL="321" NAME="??_7ParsePosition@icu_44@@6B@" PURGE="-1" COMMENT="" />
    <EXPORT ORDINAL="322" NAME="??_7Replaceable@icu_44@@6B@" PURGE="-1" COMMENT="" />
    <EXPORT ORDINAL="323" NAME="??_7ResourceBundle@icu_44@@6B@" PURGE="-1" COMMENT="" />
    <EXPORT ORDINAL="324" NAME="??_7RuleBasedBreakIterator@icu_44@@6B@" PURGE="-1" COMMENT="" />
    <EXPORT ORDINAL="325" NAME="??_7ServiceListener@icu_44@@6B@" PURGE="-1" COMMENT="" />
    <EXPORT ORDINAL="326" NAME="??_7SimpleFactory@icu_44@@6B@" PURGE="-1" COMMENT="" />
    <EXPORT ORDINAL="327" NAME="??_7SimpleLocaleKeyFactory@icu_44@@6B@" PURGE="-1" COMMENT="" />
    <EXPORT ORDINAL="328" NAME="??_7StringCharacterIterator@icu_44@@6B@" PURGE="-1" COMMENT="" />
    <EXPORT ORDINAL="329" NAME="??_7StringEnumeration@icu_44@@6B@" PURGE="-1" COMMENT="" />
    <EXPORT ORDINAL="330" NAME="??_7SymbolTable@icu_44@@6B@" PURGE="-1" COMMENT="" />
    <EXPORT ORDINAL="331" NAME="??_7TrieWordDictionary@icu_44@@6B@" PURGE="-1" COMMENT="" />
    <EXPORT ORDINAL="332" NAME="??_7UCharCharacterIterator@icu_44@@6B@" PURGE="-1" COMMENT="" />
    <EXPORT ORDINAL="333" NAME="??_7UObject@icu_44@@6B@" PURGE="-1" COMMENT="" />
    <EXPORT ORDINAL="334" NAME="??_7UStack@icu_44@@6B@" PURGE="-1" COMMENT="" />
    <EXPORT ORDINAL="335" NAME="??_7UStringEnumeration@icu_44@@6B@" PURGE="-1" COMMENT="" />
    <EXPORT ORDINAL="336" NAME="??_7UVector32@icu_44@@6B@" PURGE="-1" COMMENT="" />
    <EXPORT ORDINAL="337" NAME="??_7UVector64@icu_44@@6B@" PURGE="-1" COMMENT="" />
    <EXPORT ORDINAL="338" NAME="??_7UVector@icu_44@@6B@" PURGE="-1" COMMENT="" />
    <EXPORT ORDINAL="339" NAME="??_7UnicodeFilter@icu_44@@6BUnicodeFunctor@1@@" PURGE="-1" COMMENT="" />
    <EXPORT ORDINAL="340" NAME="??_7UnicodeFilter@icu_44@@6BUnicodeMatcher@1@@" PURGE="-1" COMMENT="" />
    <EXPORT ORDINAL="341" NAME="??_7UnicodeFunctor@icu_44@@6B@" PURGE="-1" COMMENT="" />
    <EXPORT ORDINAL="342" NAME="??_7UnicodeMatcher@icu_44@@6B@" PURGE="-1" COMMENT="" />
    <EXPORT ORDINAL="343" NAME="??_7UnicodeSet@icu_44@@6BUnicodeFunctor@1@@" PURGE="-1" COMMENT="" />
    <EXPORT ORDINAL="344" NAME="??_7UnicodeSet@icu_44@@6BUnicodeMatcher@1@@" PURGE="-1" COMMENT="" />
    <EXPORT ORDINAL="345" NAME="??_7UnicodeSetIterator@icu_44@@6B@" PURGE="-1" COMMENT="" />
    <EXPORT ORDINAL="346" NAME="??_7UnicodeString@icu_44@@6B@" PURGE="-1" COMMENT="" />
    <EXPORT ORDINAL="347" NAME="??_FMutex@icu_44@@QAEXXZ" PURGE="0" COMMENT="" />
    <EXPORT ORDINAL="348" NAME="??_UUMemory@icu_44@@SAPAXI@Z" PURGE="0" COMMENT="" />
    <EXPORT ORDINAL="349" NAME="??_VUMemory@icu_44@@SAXPAX@Z" PURGE="0" COMMENT="" />
    <EXPORT ORDINAL="350" NAME="?Append@CheckedArrayByteSink@icu_44@@UAEXPBDH@Z" PURGE="8" COMMENT="" />
    <EXPORT ORDINAL="351" NAME="?Flush@ByteSink@icu_44@@UAEXXZ" PURGE="0" COMMENT="" />
    <EXPORT ORDINAL="352" NAME="?GetAppendBuffer@ByteSink@icu_44@@UAEPADHHPADHPAH@Z" PURGE="20" COMMENT="" />
    <EXPORT ORDINAL="353" NAME="?GetAppendBuffer@CheckedArrayByteSink@icu_44@@UAEPADHHPADHPAH@Z" PURGE="20" COMMENT="" />
    <EXPORT ORDINAL="354" NAME="?NumberOfBytesWritten@CheckedArrayByteSink@icu_44@@QBEHXZ" PURGE="0" COMMENT="" />
    <EXPORT ORDINAL="355" NAME="?Overflowed@CheckedArrayByteSink@icu_44@@QBECXZ" PURGE="0" COMMENT="" />
    <EXPORT ORDINAL="356" NAME="?PREFIX_DELIMITER@ICUServiceKey@icu_44@@1_WB" PURGE="-1" COMMENT="" />
    <EXPORT ORDINAL="357" NAME="?_add@UnicodeSet@icu_44@@AAEXABVUnicodeString@2@@Z" PURGE="4" COMMENT="" />
    <EXPORT ORDINAL="358" NAME="?_appendToPat@UnicodeSet@icu_44@@CAXAAVUnicodeString@2@ABV32@C@Z" PURGE="0" COMMENT="" />
    <EXPORT ORDINAL="359" NAME="?_appendToPat@UnicodeSet@icu_44@@CAXAAVUnicodeString@2@HC@Z" PURGE="0" COMMENT="" />
    <EXPORT ORDINAL="360" NAME="?_generatePattern@UnicodeSet@icu_44@@ABEAAVUnicodeString@2@AAV32@C@Z" PURGE="8" COMMENT="" />
    <EXPORT ORDINAL="361" NAME="?_init@UVector32@icu_44@@AAEXHAAW4UErrorCode@@@Z" PURGE="8" COMMENT="" />
    <EXPORT ORDINAL="362" NAME="?_init@UVector64@icu_44@@AAEXHAAW4UErrorCode@@@Z" PURGE="8" COMMENT="" />
    <EXPORT ORDINAL="363" NAME="?_init@UVector@icu_44@@AAEXHAAW4UErrorCode@@@Z" PURGE="8" COMMENT="" />
    <EXPORT ORDINAL="364" NAME="?_toPattern@UnicodeSet@icu_44@@ABEAAVUnicodeString@2@AAV32@C@Z" PURGE="8" COMMENT="" />
    <EXPORT ORDINAL="365" NAME="?acceptsListener@ICUService@icu_44@@MBECABVEventListener@2@@Z" PURGE="4" COMMENT="" />
    <EXPORT ORDINAL="366" NAME="?add@UnicodeSet@icu_44@@AAEXPBHHC@Z" PURGE="12" COMMENT="" />
    <EXPORT ORDINAL="367" NAME="?add@UnicodeSet@icu_44@@QAEAAV12@ABVUnicodeString@2@@Z" PURGE="4" COMMENT="" />
    <EXPORT ORDINAL="368" NAME="?add@UnicodeSet@icu_44@@QAEAAV12@H@Z" PURGE="4" COMMENT="" />
    <EXPORT ORDINAL="369" NAME="?add@UnicodeSet@icu_44@@UAEAAV12@HH@Z" PURGE="8" COMMENT="" />
    <EXPORT ORDINAL="370" NAME="?addAll@UnicodeSet@icu_44@@QAEAAV12@ABVUnicodeString@2@@Z" PURGE="4" COMMENT="" />
    <EXPORT ORDINAL="371" NAME="?addAll@UnicodeSet@icu_44@@UAEAAV12@ABV12@@Z" PURGE="4" COMMENT="" />
    <EXPORT ORDINAL="372" NAME="?addElement@UVector32@icu_44@@QAEXHAAW4UErrorCode@@@Z" PURGE="8" COMMENT="" />
    <EXPORT ORDINAL="373" NAME="?addElement@UVector64@icu_44@@QAEX_JAAW4UErrorCode@@@Z" PURGE="12" COMMENT="" />
    <EXPORT ORDINAL="374" NAME="?addElement@UVector@icu_44@@QAEXHAAW4UErrorCode@@@Z" PURGE="8" COMMENT="" />
    <EXPORT ORDINAL="375" NAME="?addElement@UVector@icu_44@@QAEXPAXAAW4UErrorCode@@@Z" PURGE="8" COMMENT="" />
    <EXPORT ORDINAL="376" NAME="?addListener@ICUNotifier@icu_44@@UAEXPBVEventListener@2@AAW4UErrorCode@@@Z" PURGE="8" COMMENT="" />
    <EXPORT ORDINAL="377" NAME="?addMatchSetTo@UnicodeSet@icu_44@@UBEXAAV12@@Z" PURGE="4" COMMENT="" />
    <EXPORT ORDINAL="378" NAME="?addPropertyStarts@Normalizer2Impl@icu_44@@QBEXPBUUSetAdder@@AAW4UErrorCode@@@Z" PURGE="8" COMMENT="" />
    <EXPORT ORDINAL="379" NAME="?addRef@UnicodeString@icu_44@@AAEXXZ" PURGE="0" COMMENT="" />
    <EXPORT ORDINAL="380" NAME="?addWord@MutableTrieDictionary@icu_44@@UAEXPB_WHAAW4UErrorCode@@@Z" PURGE="12" COMMENT="" />
    <EXPORT ORDINAL="381" NAME="?adoptText@RuleBasedBreakIterator@icu_44@@UAEXPAVCharacterIterator@2@@Z" PURGE="4" COMMENT="" />
    <EXPORT ORDINAL="382" NAME="?allocate@UnicodeString@icu_44@@AAECH@Z" PURGE="4" COMMENT="" />
    <EXPORT ORDINAL="383" NAME="?allocateStrings@UnicodeSet@icu_44@@AAECAAW4UErrorCode@@@Z" PURGE="4" COMMENT="" />
    <EXPORT ORDINAL="384" NAME="?append@FilteredNormalizer2@icu_44@@UBEAAVUnicodeString@2@AAV32@ABV32@AAW4UErrorCode@@@Z" PURGE="12" COMMENT="" />
    <EXPORT ORDINAL="385" NAME="?append@UnicodeString@icu_44@@QAEAAV12@ABV12@@Z" PURGE="4" COMMENT="" />
    <EXPORT ORDINAL="386" NAME="?append@UnicodeString@icu_44@@QAEAAV12@ABV12@HH@Z" PURGE="12" COMMENT="" />
    <EXPORT ORDINAL="387" NAME="?append@UnicodeString@icu_44@@QAEAAV12@H@Z" PURGE="4" COMMENT="" />
    <EXPORT ORDINAL="388" NAME="?append@UnicodeString@icu_44@@QAEAAV12@PB_WH@Z" PURGE="8" COMMENT="" />
    <EXPORT ORDINAL="389" NAME="?append@UnicodeString@icu_44@@QAEAAV12@PB_WHH@Z" PURGE="12" COMMENT="" />
    <EXPORT ORDINAL="390" NAME="?append@UnicodeString@icu_44@@QAEAAV12@_W@Z" PURGE="4" COMMENT="" />
    <EXPORT ORDINAL="391" NAME="?appendNumber@ICU_Utility@icu_44@@SAAAVUnicodeString@2@AAV32@HHH@Z" PURGE="0" COMMENT="" />
    <EXPORT ORDINAL="392" NAME="?appendToRule@ICU_Utility@icu_44@@SAXAAVUnicodeString@2@ABV32@CC0@Z" PURGE="0" COMMENT="" />
    <EXPORT ORDINAL="393" NAME="?appendToRule@ICU_Utility@icu_44@@SAXAAVUnicodeString@2@HCC0@Z" PURGE="0" COMMENT="" />
    <EXPORT ORDINAL="394" NAME="?appendToRule@ICU_Utility@icu_44@@SAXAAVUnicodeString@2@PBVUnicodeMatcher@2@C0@Z" PURGE="0" COMMENT="" />
    <EXPORT ORDINAL="395" NAME="?applyFilter@UnicodeSet@icu_44@@AAEXP6ACHPAX@Z0HAAW4UErrorCode@@@Z" PURGE="16" COMMENT="" />
    <EXPORT ORDINAL="396" NAME="?applyIntPropertyValue@UnicodeSet@icu_44@@QAEAAV12@W4UProperty@@HAAW4UErrorCode@@@Z" PURGE="12" COMMENT="" />
    <EXPORT ORDINAL="397" NAME="?applyPattern@UnicodeSet@icu_44@@AAEXAAVRuleCharacterIterator@2@PBVSymbolTable@2@AAVUnicodeString@2@IAAW4UErrorCode@@@Z" PURGE="20" COMMENT="" />
    <EXPORT ORDINAL="398" NAME="?applyPattern@UnicodeSet@icu_44@@QAEAAV12@ABVUnicodeString@2@AAVParsePosition@2@IPBVSymbolTable@2@AAW4UErrorCode@@@Z" PURGE="20" COMMENT="" />
    <EXPORT ORDINAL="399" NAME="?applyPattern@UnicodeSet@icu_44@@QAEAAV12@ABVUnicodeString@2@AAW4UErrorCode@@@Z" PURGE="8" COMMENT="" />
    <EXPORT ORDINAL="400" NAME="?applyPattern@UnicodeSet@icu_44@@QAEAAV12@ABVUnicodeString@2@IPBVSymbolTable@2@AAW4UErrorCode@@@Z" PURGE="16" COMMENT="" />
    <EXPORT ORDINAL="401" NAME="?applyPropertyAlias@UnicodeSet@icu_44@@QAEAAV12@ABVUnicodeString@2@0AAW4UErrorCode@@@Z" PURGE="12" COMMENT="" />
    <EXPORT ORDINAL="402" NAME="?applyPropertyPattern@UnicodeSet@icu_44@@AAEAAV12@ABVUnicodeString@2@AAVParsePosition@2@AAW4UErrorCode@@@Z" PURGE="12" COMMENT="" />
    <EXPORT ORDINAL="403" NAME="?applyPropertyPattern@UnicodeSet@icu_44@@AAEXAAVRuleCharacterIterator@2@AAVUnicodeString@2@AAW4UErrorCode@@@Z" PURGE="12" COMMENT="" />
    <EXPORT ORDINAL="404" NAME="?assertSuccess@ErrorCode@icu_44@@QBEXXZ" PURGE="0" COMMENT="" />
    <EXPORT ORDINAL="405" NAME="?assign@UVector32@icu_44@@QAEXABV12@AAW4UErrorCode@@@Z" PURGE="8" COMMENT="" />
    <EXPORT ORDINAL="406" NAME="?assign@UVector64@icu_44@@QAEXABV12@AAW4UErrorCode@@@Z" PURGE="8" COMMENT="" />
    <EXPORT ORDINAL="407" NAME="?assign@UVector@icu_44@@QAEXABV12@P6AXPATUHashTok@@1@ZAAW4UErrorCode@@@Z" PURGE="12" COMMENT="" />
    <EXPORT ORDINAL="408" NAME="?buildInstance@BreakIterator@icu_44@@CAPAV12@ABVLocale@2@PBDHAAW4UErrorCode@@@Z" PURGE="0" COMMENT="" />
    <EXPORT ORDINAL="409" NAME="?canonicalID@ICUServiceKey@icu_44@@UBEAAVUnicodeString@2@AAV32@@Z" PURGE="4" COMMENT="" />
    <EXPORT ORDINAL="410" NAME="?canonicalID@LocaleKey@icu_44@@UBEAAVUnicodeString@2@AAV32@@Z" PURGE="4" COMMENT="" />
    <EXPORT ORDINAL="411" NAME="?canonicalLocale@LocaleKey@icu_44@@UBEAAVLocale@2@AAV32@@Z" PURGE="4" COMMENT="" />
    <EXPORT ORDINAL="412" NAME="?canonicalLocaleString@LocaleUtility@icu_44@@SAAAVUnicodeString@2@PBV32@AAV32@@Z" PURGE="0" COMMENT="" />
    <EXPORT ORDINAL="413" NAME="?caseCompare@UnicodeString@icu_44@@QBECABV12@I@Z" PURGE="8" COMMENT="" />
    <EXPORT ORDINAL="414" NAME="?caseCompare@UnicodeString@icu_44@@QBECHHABV12@HHI@Z" PURGE="24" COMMENT="" />
    <EXPORT ORDINAL="415" NAME="?caseCompare@UnicodeString@icu_44@@QBECHHABV12@I@Z" PURGE="16" COMMENT="" />
    <EXPORT ORDINAL="416" NAME="?caseCompare@UnicodeString@icu_44@@QBECHHPB_WHHI@Z" PURGE="24" COMMENT="" />
    <EXPORT ORDINAL="417" NAME="?caseCompare@UnicodeString@icu_44@@QBECHHPB_WI@Z" PURGE="16" COMMENT="" />
    <EXPORT ORDINAL="418" NAME="?caseCompare@UnicodeString@icu_44@@QBECPB_WHI@Z" PURGE="12" COMMENT="" />
    <EXPORT ORDINAL="419" NAME="?caseCompareBetween@UnicodeString@icu_44@@QBECHHABV12@HHI@Z" PURGE="24" COMMENT="" />
    <EXPORT ORDINAL="420" NAME="?caseMap@UnicodeString@icu_44@@AAEAAV12@PAVBreakIterator@2@PBDIH@Z" PURGE="16" COMMENT="" />
    <EXPORT ORDINAL="421" NAME="?char32At@Replaceable@icu_44@@QBEHH@Z" PURGE="4" COMMENT="" />
    <EXPORT ORDINAL="422" NAME="?char32At@UnicodeString@icu_44@@QBEHH@Z" PURGE="4" COMMENT="" />
    <EXPORT ORDINAL="423" NAME="?charAt@Replaceable@icu_44@@QBE_WH@Z" PURGE="4" COMMENT="" />
    <EXPORT ORDINAL="424" NAME="?charAt@UnicodeSet@icu_44@@QBEHH@Z" PURGE="4" COMMENT="" />
    <EXPORT ORDINAL="425" NAME="?charAt@UnicodeString@icu_44@@QBE_WH@Z" PURGE="4" COMMENT="" />
    <EXPORT ORDINAL="426" NAME="?checkDictionary@RuleBasedBreakIterator@icu_44@@IAEHHHC@Z" PURGE="12" COMMENT="" />
    <EXPORT ORDINAL="427" NAME="?cleanPieces@CanonicalIterator@icu_44@@AAEXXZ" PURGE="0" COMMENT="" />
    <EXPORT ORDINAL="428" NAME="?clear@StringPiece@icu_44@@QAEXXZ" PURGE="0" COMMENT="" />
    <EXPORT ORDINAL="429" NAME="?clear@UnicodeSet@icu_44@@UAEAAV12@XZ" PURGE="0" COMMENT="" />
    <EXPORT ORDINAL="430" NAME="?clearBuffer@Normalizer@icu_44@@AAEXXZ" PURGE="0" COMMENT="" />
    <EXPORT ORDINAL="431" NAME="?clearCaches@ICUService@icu_44@@MAEXXZ" PURGE="0" COMMENT="" />
    <EXPORT ORDINAL="432" NAME="?clearServiceCache@ICUService@icu_44@@IAEXXZ" PURGE="0" COMMENT="" />
    <EXPORT ORDINAL="433" NAME="?clone@DateInterval@icu_44@@UBEPAV12@XZ" PURGE="0" COMMENT="" />
    <EXPORT ORDINAL="434" NAME="?clone@Locale@icu_44@@QBEPAV12@XZ" PURGE="0" COMMENT="" />
    <EXPORT ORDINAL="435" NAME="?clone@Normalizer@icu_44@@QBEPAV12@XZ" PURGE="0" COMMENT="" />
    <EXPORT ORDINAL="436" NAME="?clone@ParsePosition@icu_44@@QBEPAV12@XZ" PURGE="0" COMMENT="" />
    <EXPORT ORDINAL="437" NAME="?clone@Replaceable@icu_44@@UBEPAV12@XZ" PURGE="0" COMMENT="" />
    <EXPORT ORDINAL="438" NAME="?clone@ResourceBundle@icu_44@@QBEPAV12@XZ" PURGE="0" COMMENT="" />
    <EXPORT ORDINAL="439" NAME="?clone@RuleBasedBreakIterator@icu_44@@UBEPAVBreakIterator@2@XZ" PURGE="0" COMMENT="" />
    <EXPORT ORDINAL="440" NAME="?clone@StringCharacterIterator@icu_44@@UBEPAVCharacterIterator@2@XZ" PURGE="0" COMMENT="" />
    <EXPORT ORDINAL="441" NAME="?clone@StringEnumeration@icu_44@@UBEPAV12@XZ" PURGE="0" COMMENT="" />
    <EXPORT ORDINAL="442" NAME="?clone@UCharCharacterIterator@icu_44@@UBEPAVCharacterIterator@2@XZ" PURGE="0" COMMENT="" />
    <EXPORT ORDINAL="443" NAME="?clone@UnicodeSet@icu_44@@UBEPAVUnicodeFunctor@2@XZ" PURGE="0" COMMENT="" />
    <EXPORT ORDINAL="444" NAME="?clone@UnicodeString@icu_44@@UBEPAVReplaceable@2@XZ" PURGE="0" COMMENT="" />
    <EXPORT ORDINAL="445" NAME="?cloneArrayIfNeeded@UnicodeString@icu_44@@AAECHHCPAPAHC@Z" PURGE="20" COMMENT="" />
    <EXPORT ORDINAL="446" NAME="?cloneAsThawed@UnicodeSet@icu_44@@QBEPAVUnicodeFunctor@2@XZ" PURGE="0" COMMENT="" />
    <EXPORT ORDINAL="447" NAME="?cloneMutable@CompactTrieDictionary@icu_44@@UBEPAVMutableTrieDictionary@2@AAW4UErrorCode@@@Z" PURGE="4" COMMENT="" />
    <EXPORT ORDINAL="448" NAME="?closeOver@UnicodeSet@icu_44@@QAEAAV12@H@Z" PURGE="4" COMMENT="" />
    <EXPORT ORDINAL="449" NAME="?combine@Normalizer2Impl@icu_44@@CAHPBGH@Z" PURGE="0" COMMENT="" />
    <EXPORT ORDINAL="450" NAME="?compact@UnicodeSet@icu_44@@UAEAAV12@XZ" PURGE="0" COMMENT="" />
    <EXPORT ORDINAL="451" NAME="?compactMutableTrieDictionary@CompactTrieDictionary@icu_44@@CAPAUCompactTrieHeader@2@ABVMutableTrieDictionary@2@AAW4UErrorCode@@@Z" PURGE="0" COMMENT="" />
    <EXPORT ORDINAL="452" NAME="?compare@Normalizer@icu_44@@SAHABVUnicodeString@2@0IAAW4UErrorCode@@@Z" PURGE="0" COMMENT="" />
    <EXPORT ORDINAL="453" NAME="?compare@UnicodeString@icu_44@@QBECABV12@@Z" PURGE="4" COMMENT="" />
    <EXPORT ORDINAL="454" NAME="?compare@UnicodeString@icu_44@@QBECHHABV12@@Z" PURGE="12" COMMENT="" />
    <EXPORT ORDINAL="455" NAME="?compare@UnicodeString@icu_44@@QBECHHABV12@HH@Z" PURGE="20" COMMENT="" />
    <EXPORT ORDINAL="456" NAME="?compare@UnicodeString@icu_44@@QBECHHPB_W@Z" PURGE="12" COMMENT="" />
    <EXPORT ORDINAL="457" NAME="?compare@UnicodeString@icu_44@@QBECHHPB_WHH@Z" PURGE="20" COMMENT="" />
    <EXPORT ORDINAL="458" NAME="?compare@UnicodeString@icu_44@@QBECPB_WH@Z" PURGE="8" COMMENT="" />
    <EXPORT ORDINAL="459" NAME="?compareBetween@UnicodeString@icu_44@@QBECHHABV12@HH@Z" PURGE="20" COMMENT="" />
    <EXPORT ORDINAL="460" NAME="?compareCodePointOrder@UnicodeString@icu_44@@QBECABV12@@Z" PURGE="4" COMMENT="" />
    <EXPORT ORDINAL="461" NAME="?compareCodePointOrder@UnicodeString@icu_44@@QBECHHABV12@@Z" PURGE="12" COMMENT="" />
    <EXPORT ORDINAL="462" NAME="?compareCodePointOrder@UnicodeString@icu_44@@QBECHHABV12@HH@Z" PURGE="20" COMMENT="" />
    <EXPORT ORDINAL="463" NAME="?compareCodePointOrder@UnicodeString@icu_44@@QBECHHPB_W@Z" PURGE="12" COMMENT="" />
    <EXPORT ORDINAL="464" NAME="?compareCodePointOrder@UnicodeString@icu_44@@QBECHHPB_WHH@Z" PURGE="20" COMMENT="" />
    <EXPORT ORDINAL="465" NAME="?compareCodePointOrder@UnicodeString@icu_44@@QBECPB_WH@Z" PURGE="8" COMMENT="" />
    <EXPORT ORDINAL="466" NAME="?compareCodePointOrderBetween@UnicodeString@icu_44@@QBECHHABV12@HH@Z" PURGE="20" COMMENT="" />
    <EXPORT ORDINAL="467" NAME="?complement@UnicodeSet@icu_44@@QAEAAV12@ABVUnicodeString@2@@Z" PURGE="4" COMMENT="" />
    <EXPORT ORDINAL="468" NAME="?complement@UnicodeSet@icu_44@@QAEAAV12@H@Z" PURGE="4" COMMENT="" />
    <EXPORT ORDINAL="469" NAME="?complement@UnicodeSet@icu_44@@UAEAAV12@HH@Z" PURGE="8" COMMENT="" />
    <EXPORT ORDINAL="470" NAME="?complement@UnicodeSet@icu_44@@UAEAAV12@XZ" PURGE="0" COMMENT="" />
    <EXPORT ORDINAL="471" NAME="?complementAll@UnicodeSet@icu_44@@QAEAAV12@ABVUnicodeString@2@@Z" PURGE="4" COMMENT="" />
    <EXPORT ORDINAL="472" NAME="?complementAll@UnicodeSet@icu_44@@UAEAAV12@ABV12@@Z" PURGE="4" COMMENT="" />
    <EXPORT ORDINAL="473" NAME="?compose@Normalizer2Impl@icu_44@@QBECPB_W0CCAAVReorderingBuffer@2@AAW4UErrorCode@@@Z" PURGE="24" COMMENT="" />
    <EXPORT ORDINAL="474" NAME="?compose@Normalizer@icu_44@@SAXABVUnicodeString@2@CHAAV32@AAW4UErrorCode@@@Z" PURGE="0" COMMENT="" />
    <EXPORT ORDINAL="475" NAME="?composeAndAppend@Normalizer2Impl@icu_44@@QBEXPB_W0CCAAVReorderingBuffer@2@AAW4UErrorCode@@@Z" PURGE="24" COMMENT="" />
    <EXPORT ORDINAL="476" NAME="?composeQuickCheck@Normalizer2Impl@icu_44@@QBEPB_WPB_W0CPAW4UNormalizationCheckResult@@@Z" PURGE="16" COMMENT="" />
    <EXPORT ORDINAL="477" NAME="?concatenate@Normalizer@icu_44@@SAAAVUnicodeString@2@AAV32@00W4UNormalizationMode@@HAAW4UErrorCode@@@Z" PURGE="0" COMMENT="" />
    <EXPORT ORDINAL="478" NAME="?constructForLocale@ResourceBundle@icu_44@@AAEXABVUnicodeString@2@ABVLocale@2@AAW4UErrorCode@@@Z" PURGE="12" COMMENT="" />
    <EXPORT ORDINAL="479" NAME="?contains@UVector32@icu_44@@QBECH@Z" PURGE="4" COMMENT="" />
    <EXPORT ORDINAL="480" NAME="?contains@UVector@icu_44@@QBECH@Z" PURGE="4" COMMENT="" />
    <EXPORT ORDINAL="481" NAME="?contains@UVector@icu_44@@QBECPAX@Z" PURGE="4" COMMENT="" />
    <EXPORT ORDINAL="482" NAME="?contains@UnicodeSet@icu_44@@QBECABVUnicodeString@2@@Z" PURGE="4" COMMENT="" />
    <EXPORT ORDINAL="483" NAME="?contains@UnicodeSet@icu_44@@UBECH@Z" PURGE="4" COMMENT="" />
    <EXPORT ORDINAL="484" NAME="?contains@UnicodeSet@icu_44@@UBECHH@Z" PURGE="8" COMMENT="" />
    <EXPORT ORDINAL="485" NAME="?containsAll@UVector32@icu_44@@QBECABV12@@Z" PURGE="4" COMMENT="" />
    <EXPORT ORDINAL="486" NAME="?containsAll@UVector@icu_44@@QBECABV12@@Z" PURGE="4" COMMENT="" />
    <EXPORT ORDINAL="487" NAME="?containsAll@UnicodeSet@icu_44@@QBECABVUnicodeString@2@@Z" PURGE="4" COMMENT="" />
    <EXPORT ORDINAL="488" NAME="?containsAll@UnicodeSet@icu_44@@UBECABV12@@Z" PURGE="4" COMMENT="" />
    <EXPORT ORDINAL="489" NAME="?containsNone@UVector32@icu_44@@QBECABV12@@Z" PURGE="4" COMMENT="" />
    <EXPORT ORDINAL="490" NAME="?containsNone@UVector@icu_44@@QBECABV12@@Z" PURGE="4" COMMENT="" />
    <EXPORT ORDINAL="491" NAME="?containsNone@UnicodeSet@icu_44@@QBECABV12@@Z" PURGE="4" COMMENT="" />
    <EXPORT ORDINAL="492" NAME="?containsNone@UnicodeSet@icu_44@@QBECABVUnicodeString@2@@Z" PURGE="4" COMMENT="" />
    <EXPORT ORDINAL="493" NAME="?containsNone@UnicodeSet@icu_44@@QBECHH@Z" PURGE="8" COMMENT="" />
    <EXPORT ORDINAL="494" NAME="?containsSome@UnicodeSet@icu_44@@QBECABV12@@Z" PURGE="4" COMMENT="" />
    <EXPORT ORDINAL="495" NAME="?containsSome@UnicodeSet@icu_44@@QBECABVUnicodeString@2@@Z" PURGE="4" COMMENT="" />
    <EXPORT ORDINAL="496" NAME="?containsSome@UnicodeSet@icu_44@@QBECHH@Z" PURGE="8" COMMENT="" />
    <EXPORT ORDINAL="497" NAME="?copy@UnicodeString@icu_44@@UAEXHHH@Z" PURGE="12" COMMENT="" />
    <EXPORT ORDINAL="498" NAME="?copyFrom@UnicodeString@icu_44@@AAEAAV12@ABV12@C@Z" PURGE="8" COMMENT="" />
    <EXPORT ORDINAL="499" NAME="?copyLowPrefixFromNulTerminated@Normalizer2Impl@icu_44@@ABEPB_WPB_WHPAVReorderingBuffer@2@AAW4UErrorCode@@@Z" PURGE="16" COMMENT="" />
    <EXPORT ORDINAL="500" NAME="?count@Hashtable@icu_44@@QBEHXZ" PURGE="0" COMMENT="" />
    <EXPORT ORDINAL="501" NAME="?count@UStringEnumeration@icu_44@@UBEHAAW4UErrorCode@@@Z" PURGE="4" COMMENT="" />
    <EXPORT ORDINAL="502" NAME="?countChar32@UnicodeString@icu_44@@QBEHHH@Z" PURGE="8" COMMENT="" />
    <EXPORT ORDINAL="503" NAME="?countFactories@ICUService@icu_44@@IBEHXZ" PURGE="0" COMMENT="" />
    <EXPORT ORDINAL="504" NAME="?create@LocaleKeyFactory@icu_44@@UBEPAVUObject@2@ABVICUServiceKey@2@PBVICUService@2@AAW4UErrorCode@@@Z" PURGE="12" COMMENT="" />
    <EXPORT ORDINAL="505" NAME="?create@SimpleFactory@icu_44@@UBEPAVUObject@2@ABVICUServiceKey@2@PBVICUService@2@AAW4UErrorCode@@@Z" PURGE="12" COMMENT="" />
    <EXPORT ORDINAL="506" NAME="?create@SimpleLocaleKeyFactory@icu_44@@UBEPAVUObject@2@ABVICUServiceKey@2@PBVICUService@2@AAW4UErrorCode@@@Z" PURGE="12" COMMENT="" />
    <EXPORT ORDINAL="507" NAME="?create@StringPair@icu_44@@SAPAV12@ABVUnicodeString@2@0AAW4UErrorCode@@@Z" PURGE="0" COMMENT="" />
    <EXPORT ORDINAL="508" NAME="?createBufferClone@RuleBasedBreakIterator@icu_44@@UAEPAVBreakIterator@2@PAXAAHAAW4UErrorCode@@@Z" PURGE="12" COMMENT="" />
    <EXPORT ORDINAL="509" NAME="?createCanonical@Locale@icu_44@@SA?AV12@PBD@Z" PURGE="0" COMMENT="" />
    <EXPORT ORDINAL="510" NAME="?createCharacterInstance@BreakIterator@icu_44@@SAPAV12@ABVLocale@2@AAW4UErrorCode@@@Z" PURGE="0" COMMENT="" />
    <EXPORT ORDINAL="511" NAME="?createFrom@UnicodeSet@icu_44@@SAPAV12@ABVUnicodeString@2@@Z" PURGE="0" COMMENT="" />
    <EXPORT ORDINAL="512" NAME="?createFromAll@UnicodeSet@icu_44@@SAPAV12@ABVUnicodeString@2@@Z" PURGE="0" COMMENT="" />
    <EXPORT ORDINAL="513" NAME="?createFromName@Locale@icu_44@@SA?AV12@PBD@Z" PURGE="0" COMMENT="" />
    <EXPORT ORDINAL="514" NAME="?createInstance@BreakIterator@icu_44@@CAPAV12@ABVLocale@2@HAAW4UErrorCode@@@Z" PURGE="0" COMMENT="" />
    <EXPORT ORDINAL="515" NAME="?createKey@ICULocaleService@icu_44@@MBEPAVICUServiceKey@2@PBVUnicodeString@2@AAW4UErrorCode@@@Z" PURGE="8" COMMENT="" />
    <EXPORT ORDINAL="516" NAME="?createKey@ICULocaleService@icu_44@@MBEPAVICUServiceKey@2@PBVUnicodeString@2@HAAW4UErrorCode@@@Z" PURGE="12" COMMENT="" />
    <EXPORT ORDINAL="517" NAME="?createKey@ICUService@icu_44@@UBEPAVICUServiceKey@2@PBVUnicodeString@2@AAW4UErrorCode@@@Z" PURGE="8" COMMENT="" />
    <EXPORT ORDINAL="518" NAME="?createKeywords@Locale@icu_44@@QBEPAVStringEnumeration@2@AAW4UErrorCode@@@Z" PURGE="4" COMMENT="" />
    <EXPORT ORDINAL="519" NAME="?createLineInstance@BreakIterator@icu_44@@SAPAV12@ABVLocale@2@AAW4UErrorCode@@@Z" PURGE="0" COMMENT="" />
    <EXPORT ORDINAL="520" NAME="?createSentenceInstance@BreakIterator@icu_44@@SAPAV12@ABVLocale@2@AAW4UErrorCode@@@Z" PURGE="0" COMMENT="" />
    <EXPORT ORDINAL="521" NAME="?createSimpleFactory@ICUService@icu_44@@MAEPAVICUServiceFactory@2@PAVUObject@2@ABVUnicodeString@2@CAAW4UErrorCode@@@Z" PURGE="16" COMMENT="" />
    <EXPORT ORDINAL="522" NAME="?createTitleInstance@BreakIterator@icu_44@@SAPAV12@ABVLocale@2@AAW4UErrorCode@@@Z" PURGE="0" COMMENT="" />
    <EXPORT ORDINAL="523" NAME="?createWithCanonicalFallback@LocaleKey@icu_44@@SAPAV12@PBVUnicodeString@2@0AAW4UErrorCode@@@Z" PURGE="0" COMMENT="" />
    <EXPORT ORDINAL="524" NAME="?createWithCanonicalFallback@LocaleKey@icu_44@@SAPAV12@PBVUnicodeString@2@0HAAW4UErrorCode@@@Z" PURGE="0" COMMENT="" />
    <EXPORT ORDINAL="525" NAME="?createWordInstance@BreakIterator@icu_44@@SAPAV12@ABVLocale@2@AAW4UErrorCode@@@Z" PURGE="0" COMMENT="" />
    <EXPORT ORDINAL="526" NAME="?current32@UCharCharacterIterator@icu_44@@UBEHXZ" PURGE="0" COMMENT="" />
    <EXPORT ORDINAL="527" NAME="?current@Normalizer@icu_44@@QAEHXZ" PURGE="0" COMMENT="" />
    <EXPORT ORDINAL="528" NAME="?current@RuleBasedBreakIterator@icu_44@@UBEHXZ" PURGE="0" COMMENT="" />
    <EXPORT ORDINAL="529" NAME="?current@UCharCharacterIterator@icu_44@@UBE_WXZ" PURGE="0" COMMENT="" />
    <EXPORT ORDINAL="530" NAME="?currentDescriptor@ICUServiceKey@icu_44@@UBEAAVUnicodeString@2@AAV32@@Z" PURGE="4" COMMENT="" />
    <EXPORT ORDINAL="531" NAME="?currentDescriptor@LocaleKey@icu_44@@UBEAAVUnicodeString@2@AAV32@@Z" PURGE="4" COMMENT="" />
    <EXPORT ORDINAL="532" NAME="?currentID@ICUServiceKey@icu_44@@UBEAAVUnicodeString@2@AAV32@@Z" PURGE="4" COMMENT="" />
    <EXPORT ORDINAL="533" NAME="?currentID@LocaleKey@icu_44@@UBEAAVUnicodeString@2@AAV32@@Z" PURGE="4" COMMENT="" />
    <EXPORT ORDINAL="534" NAME="?currentLocale@LocaleKey@icu_44@@UBEAAVLocale@2@AAV32@@Z" PURGE="4" COMMENT="" />
    <EXPORT ORDINAL="535" NAME="?data@CompactTrieDictionary@icu_44@@UBEPBXXZ" PURGE="0" COMMENT="" />
    <EXPORT ORDINAL="536" NAME="?data@StringPiece@icu_44@@QBEPBDXZ" PURGE="0" COMMENT="" />
    <EXPORT ORDINAL="537" NAME="?dataSize@CompactTrieDictionary@icu_44@@UBEIXZ" PURGE="0" COMMENT="" />
    <EXPORT ORDINAL="538" NAME="?decompose@Normalizer2Impl@icu_44@@ABECHGAAVReorderingBuffer@2@AAW4UErrorCode@@@Z" PURGE="16" COMMENT="" />
    <EXPORT ORDINAL="539" NAME="?decompose@Normalizer2Impl@icu_44@@QBEPB_WPB_W0PAVReorderingBuffer@2@AAW4UErrorCode@@@Z" PURGE="16" COMMENT="" />
    <EXPORT ORDINAL="540" NAME="?decompose@Normalizer@icu_44@@SAXABVUnicodeString@2@CHAAV32@AAW4UErrorCode@@@Z" PURGE="0" COMMENT="" />
    <EXPORT ORDINAL="541" NAME="?decomposeAndAppend@Normalizer2Impl@icu_44@@QBEXPB_W0CAAVReorderingBuffer@2@AAW4UErrorCode@@@Z" PURGE="20" COMMENT="" />
    <EXPORT ORDINAL="542" NAME="?decomposeShort@Normalizer2Impl@icu_44@@ABECPB_W0AAVReorderingBuffer@2@AAW4UErrorCode@@@Z" PURGE="16" COMMENT="" />
    <EXPORT ORDINAL="543" NAME="?doCaseCompare@UnicodeString@icu_44@@ABECHHABV12@HHI@Z" PURGE="24" COMMENT="" />
    <EXPORT ORDINAL="544" NAME="?doCaseCompare@UnicodeString@icu_44@@ABECHHPB_WHHI@Z" PURGE="24" COMMENT="" />
    <EXPORT ORDINAL="545" NAME="?doCharAt@UnicodeString@icu_44@@ABE_WH@Z" PURGE="4" COMMENT="" />
    <EXPORT ORDINAL="546" NAME="?doCodepageCreate@UnicodeString@icu_44@@AAEXPBDH0@Z" PURGE="12" COMMENT="" />
    <EXPORT ORDINAL="547" NAME="?doCodepageCreate@UnicodeString@icu_44@@AAEXPBDHPAUUConverter@@AAW4UErrorCode@@@Z" PURGE="16" COMMENT="" />
    <EXPORT ORDINAL="548" NAME="?doCompare@UnicodeString@icu_44@@ABECHHABV12@HH@Z" PURGE="20" COMMENT="" />
    <EXPORT ORDINAL="549" NAME="?doCompare@UnicodeString@icu_44@@ABECHHPB_WHH@Z" PURGE="20" COMMENT="" />
    <EXPORT ORDINAL="550" NAME="?doCompareCodePointOrder@UnicodeString@icu_44@@ABECHHABV12@HH@Z" PURGE="20" COMMENT="" />
    <EXPORT ORDINAL="551" NAME="?doCompareCodePointOrder@UnicodeString@icu_44@@ABECHHPB_WHH@Z" PURGE="20" COMMENT="" />
    <EXPORT ORDINAL="552" NAME="?doExtract@UnicodeString@icu_44@@ABEHHHPADHPAUUConverter@@AAW4UErrorCode@@@Z" PURGE="24" COMMENT="" />
    <EXPORT ORDINAL="553" NAME="?doExtract@UnicodeString@icu_44@@ABEXHHAAV12@@Z" PURGE="12" COMMENT="" />
    <EXPORT ORDINAL="554" NAME="?doExtract@UnicodeString@icu_44@@ABEXHHPA_WH@Z" PURGE="16" COMMENT="" />
    <EXPORT ORDINAL="555" NAME="?doHashCode@UnicodeString@icu_44@@ABEHXZ" PURGE="0" COMMENT="" />
    <EXPORT ORDINAL="556" NAME="?doIndexOf@UnicodeString@icu_44@@ABEHHHH@Z" PURGE="12" COMMENT="" />
    <EXPORT ORDINAL="557" NAME="?doIndexOf@UnicodeString@icu_44@@ABEH_WHH@Z" PURGE="12" COMMENT="" />
    <EXPORT ORDINAL="558" NAME="?doLastIndexOf@UnicodeString@icu_44@@ABEHHHH@Z" PURGE="12" COMMENT="" />
    <EXPORT ORDINAL="559" NAME="?doLastIndexOf@UnicodeString@icu_44@@ABEH_WHH@Z" PURGE="12" COMMENT="" />
    <EXPORT ORDINAL="560" NAME="?doReplace@UnicodeString@icu_44@@AAEAAV12@HHABV12@HH@Z" PURGE="20" COMMENT="" />
    <EXPORT ORDINAL="561" NAME="?doReplace@UnicodeString@icu_44@@AAEAAV12@HHPB_WHH@Z" PURGE="20" COMMENT="" />
    <EXPORT ORDINAL="562" NAME="?doReverse@UnicodeString@icu_44@@AAEAAV12@HH@Z" PURGE="8" COMMENT="" />
    <EXPORT ORDINAL="563" NAME="?elementAt@UVector@icu_44@@QBEPAXH@Z" PURGE="4" COMMENT="" />
    <EXPORT ORDINAL="564" NAME="?elementAti@UVector32@icu_44@@QBEHH@Z" PURGE="4" COMMENT="" />
    <EXPORT ORDINAL="565" NAME="?elementAti@UVector64@icu_44@@QBE_JH@Z" PURGE="4" COMMENT="" />
    <EXPORT ORDINAL="566" NAME="?elementAti@UVector@icu_44@@QBEHH@Z" PURGE="4" COMMENT="" />
    <EXPORT ORDINAL="567" NAME="?empty@StringPiece@icu_44@@QBECXZ" PURGE="0" COMMENT="" />
    <EXPORT ORDINAL="568" NAME="?empty@UStack@icu_44@@QBECXZ" PURGE="0" COMMENT="" />
    <EXPORT ORDINAL="569" NAME="?empty@UVector32@icu_44@@QBECXZ" PURGE="0" COMMENT="" />
    <EXPORT ORDINAL="570" NAME="?endIndex@CharacterIterator@icu_44@@QBEHXZ" PURGE="0" COMMENT="" />
    <EXPORT ORDINAL="571" NAME="?endIndex@Normalizer@icu_44@@QBEHXZ" PURGE="0" COMMENT="" />
    <EXPORT ORDINAL="572" NAME="?endsWith@UnicodeString@icu_44@@QBECABV12@@Z" PURGE="4" COMMENT="" />
    <EXPORT ORDINAL="573" NAME="?endsWith@UnicodeString@icu_44@@QBECABV12@HH@Z" PURGE="12" COMMENT="" />
    <EXPORT ORDINAL="574" NAME="?endsWith@UnicodeString@icu_44@@QBECPB_WH@Z" PURGE="8" COMMENT="" />
    <EXPORT ORDINAL="575" NAME="?endsWith@UnicodeString@icu_44@@QBECPB_WHH@Z" PURGE="12" COMMENT="" />
    <EXPORT ORDINAL="576" NAME="?ensureBufferCapacity@UnicodeSet@icu_44@@AAEXHAAW4UErrorCode@@@Z" PURGE="8" COMMENT="" />
    <EXPORT ORDINAL="577" NAME="?ensureCapacity@UVector32@icu_44@@QAECHAAW4UErrorCode@@@Z" PURGE="8" COMMENT="" />
    <EXPORT ORDINAL="578" NAME="?ensureCapacity@UVector64@icu_44@@QAECHAAW4UErrorCode@@@Z" PURGE="8" COMMENT="" />
    <EXPORT ORDINAL="579" NAME="?ensureCapacity@UVector@icu_44@@QAECHAAW4UErrorCode@@@Z" PURGE="8" COMMENT="" />
    <EXPORT ORDINAL="580" NAME="?ensureCapacity@UnicodeSet@icu_44@@AAEXHAAW4UErrorCode@@@Z" PURGE="8" COMMENT="" />
    <EXPORT ORDINAL="581" NAME="?ensureCharsCapacity@StringEnumeration@icu_44@@IAEXHAAW4UErrorCode@@@Z" PURGE="8" COMMENT="" />
    <EXPORT ORDINAL="582" NAME="?equals@Hashtable@icu_44@@QBECABV12@@Z" PURGE="4" COMMENT="" />
    <EXPORT ORDINAL="583" NAME="?equals@UVector32@icu_44@@QBECABV12@@Z" PURGE="4" COMMENT="" />
    <EXPORT ORDINAL="584" NAME="?equals@UVector@icu_44@@QBECABV12@@Z" PURGE="4" COMMENT="" />
    <EXPORT ORDINAL="585" NAME="?errorName@ErrorCode@icu_44@@QBEPBDXZ" PURGE="0" COMMENT="" />
    <EXPORT ORDINAL="586" NAME="?escapeUnprintable@ICU_Utility@icu_44@@SACAAVUnicodeString@2@H@Z" PURGE="0" COMMENT="" />
    <EXPORT ORDINAL="587" NAME="?exclusiveOr@UnicodeSet@icu_44@@AAEXPBHHC@Z" PURGE="12" COMMENT="" />
    <EXPORT ORDINAL="588" NAME="?expandCapacity@UVector32@icu_44@@QAECHAAW4UErrorCode@@@Z" PURGE="8" COMMENT="" />
    <EXPORT ORDINAL="589" NAME="?expandCapacity@UVector64@icu_44@@QAECHAAW4UErrorCode@@@Z" PURGE="8" COMMENT="" />
    <EXPORT ORDINAL="590" NAME="?extract@CanonicalIterator@icu_44@@AAEPAVHashtable@2@PAV32@HPB_WHHAAW4UErrorCode@@@Z" PURGE="24" COMMENT="" />
    <EXPORT ORDINAL="591" NAME="?extract@UnicodeString@icu_44@@QBEHHHPADHW4EInvariant@12@@Z" PURGE="20" COMMENT="" />
    <EXPORT ORDINAL="592" NAME="?extract@UnicodeString@icu_44@@QBEHHHPADI@Z" PURGE="16" COMMENT="" />
    <EXPORT ORDINAL="593" NAME="?extract@UnicodeString@icu_44@@QBEHHHPADIPBD@Z" PURGE="20" COMMENT="" />
    <EXPORT ORDINAL="594" NAME="?extract@UnicodeString@icu_44@@QBEHHHPADPBD@Z" PURGE="16" COMMENT="" />
    <EXPORT ORDINAL="595" NAME="?extract@UnicodeString@icu_44@@QBEHPADHPAUUConverter@@AAW4UErrorCode@@@Z" PURGE="16" COMMENT="" />
    <EXPORT ORDINAL="596" NAME="?extract@UnicodeString@icu_44@@QBEHPA_WHAAW4UErrorCode@@@Z" PURGE="12" COMMENT="" />
    <EXPORT ORDINAL="597" NAME="?extract@UnicodeString@icu_44@@QBEXHHAAV12@@Z" PURGE="12" COMMENT="" />
    <EXPORT ORDINAL="598" NAME="?extract@UnicodeString@icu_44@@QBEXHHPA_WH@Z" PURGE="16" COMMENT="" />
    <EXPORT ORDINAL="599" NAME="?extractBetween@UnicodeString@icu_44@@QBEXHHPA_WH@Z" PURGE="16" COMMENT="" />
    <EXPORT ORDINAL="600" NAME="?extractBetween@UnicodeString@icu_44@@UBEXHHAAV12@@Z" PURGE="12" COMMENT="" />
    <EXPORT ORDINAL="601" NAME="?fallback@ICUServiceKey@icu_44@@UAECXZ" PURGE="0" COMMENT="" />
    <EXPORT ORDINAL="602" NAME="?fallback@LocaleKey@icu_44@@UAECXZ" PURGE="0" COMMENT="" />
    <EXPORT ORDINAL="603" NAME="?fastCopyFrom@UnicodeString@icu_44@@QAEAAV12@ABV12@@Z" PURGE="4" COMMENT="" />
    <EXPORT ORDINAL="604" NAME="?fcdTrie@Normalizer2Impl@icu_44@@ABEPBUUTrie2@@XZ" PURGE="0" COMMENT="" />
    <EXPORT ORDINAL="605" NAME="?find@Hashtable@icu_44@@QBEPBUUHashElement@@ABVUnicodeString@2@@Z" PURGE="4" COMMENT="" />
    <EXPORT ORDINAL="606" NAME="?findAndReplace@UnicodeString@icu_44@@QAEAAV12@ABV12@0@Z" PURGE="8" COMMENT="" />
    <EXPORT ORDINAL="607" NAME="?findAndReplace@UnicodeString@icu_44@@QAEAAV12@HHABV12@0@Z" PURGE="16" COMMENT="" />
    <EXPORT ORDINAL="608" NAME="?findAndReplace@UnicodeString@icu_44@@QAEAAV12@HHABV12@HH0HH@Z" PURGE="32" COMMENT="" />
    <EXPORT ORDINAL="609" NAME="?findCodePoint@UnicodeSet@icu_44@@ABEHH@Z" PURGE="4" COMMENT="" />
    <EXPORT ORDINAL="610" NAME="?findNextCompBoundary@Normalizer2Impl@icu_44@@ABEPB_WPB_W0@Z" PURGE="8" COMMENT="" />
    <EXPORT ORDINAL="611" NAME="?findNextFCDBoundary@Normalizer2Impl@icu_44@@ABEPB_WPB_W0@Z" PURGE="8" COMMENT="" />
    <EXPORT ORDINAL="612" NAME="?findPreviousCompBoundary@Normalizer2Impl@icu_44@@ABEPB_WPB_W0@Z" PURGE="8" COMMENT="" />
    <EXPORT ORDINAL="613" NAME="?findPreviousFCDBoundary@Normalizer2Impl@icu_44@@ABEPB_WPB_W0@Z" PURGE="8" COMMENT="" />
    <EXPORT ORDINAL="614" NAME="?first32@UCharCharacterIterator@icu_44@@UAEHXZ" PURGE="0" COMMENT="" />
    <EXPORT ORDINAL="615" NAME="?first32PostInc@CharacterIterator@icu_44@@UAEHXZ" PURGE="0" COMMENT="" />
    <EXPORT ORDINAL="616" NAME="?first32PostInc@UCharCharacterIterator@icu_44@@UAEHXZ" PURGE="0" COMMENT="" />
    <EXPORT ORDINAL="617" NAME="?first@Normalizer@icu_44@@QAEHXZ" PURGE="0" COMMENT="" />
    <EXPORT ORDINAL="618" NAME="?first@RuleBasedBreakIterator@icu_44@@UAEHXZ" PURGE="0" COMMENT="" />
    <EXPORT ORDINAL="619" NAME="?first@UCharCharacterIterator@icu_44@@UAE_WXZ" PURGE="0" COMMENT="" />
    <EXPORT ORDINAL="620" NAME="?firstElement@UVector@icu_44@@QBEPAXXZ" PURGE="0" COMMENT="" />
    <EXPORT ORDINAL="621" NAME="?firstPostInc@CharacterIterator@icu_44@@UAE_WXZ" PURGE="0" COMMENT="" />
    <EXPORT ORDINAL="622" NAME="?firstPostInc@UCharCharacterIterator@icu_44@@UAE_WXZ" PURGE="0" COMMENT="" />
    <EXPORT ORDINAL="623" NAME="?foldCase@UnicodeString@icu_44@@QAEAAV12@I@Z" PURGE="4" COMMENT="" />
    <EXPORT ORDINAL="624" NAME="?following@RuleBasedBreakIterator@icu_44@@UAEHH@Z" PURGE="4" COMMENT="" />
    <EXPORT ORDINAL="625" NAME="?freeze@UnicodeSet@icu_44@@QAEPAVUnicodeFunctor@2@XZ" PURGE="0" COMMENT="" />
    <EXPORT ORDINAL="626" NAME="?fromUSet@UnicodeSet@icu_44@@SAPAV12@PAUUSet@@@Z" PURGE="0" COMMENT="" />
    <EXPORT ORDINAL="627" NAME="?fromUSet@UnicodeSet@icu_44@@SAPBV12@PBUUSet@@@Z" PURGE="0" COMMENT="" />
    <EXPORT ORDINAL="628" NAME="?fromUTF32@UnicodeString@icu_44@@SA?AV12@PBHH@Z" PURGE="0" COMMENT="" />
    <EXPORT ORDINAL="629" NAME="?fromUTF8@UnicodeString@icu_44@@SA?AV12@ABVStringPiece@2@@Z" PURGE="0" COMMENT="" />
    <EXPORT ORDINAL="630" NAME="?get@ErrorCode@icu_44@@QBE?AW4UErrorCode@@XZ" PURGE="0" COMMENT="" />
    <EXPORT ORDINAL="631" NAME="?get@Hashtable@icu_44@@QBEPAXABVUnicodeString@2@@Z" PURGE="4" COMMENT="" />
    <EXPORT ORDINAL="632" NAME="?get@ICULocaleService@icu_44@@QBEPAVUObject@2@ABVLocale@2@AAW4UErrorCode@@@Z" PURGE="8" COMMENT="" />
    <EXPORT ORDINAL="633" NAME="?get@ICULocaleService@icu_44@@QBEPAVUObject@2@ABVLocale@2@HAAW4UErrorCode@@@Z" PURGE="12" COMMENT="" />
    <EXPORT ORDINAL="634" NAME="?get@ICULocaleService@icu_44@@QBEPAVUObject@2@ABVLocale@2@HPAV42@AAW4UErrorCode@@@Z" PURGE="16" COMMENT="" />
    <EXPORT ORDINAL="635" NAME="?get@ICULocaleService@icu_44@@QBEPAVUObject@2@ABVLocale@2@PAV42@AAW4UErrorCode@@@Z" PURGE="12" COMMENT="" />
    <EXPORT ORDINAL="636" NAME="?get@ICUService@icu_44@@QBEPAVUObject@2@ABVUnicodeString@2@AAW4UErrorCode@@@Z" PURGE="8" COMMENT="" />
    <EXPORT ORDINAL="637" NAME="?get@ICUService@icu_44@@QBEPAVUObject@2@ABVUnicodeString@2@PAV42@AAW4UErrorCode@@@Z" PURGE="12" COMMENT="" />
    <EXPORT ORDINAL="638" NAME="?get@ResourceBundle@icu_44@@QBE?AV12@HAAW4UErrorCode@@@Z" PURGE="12" COMMENT="" />
    <EXPORT ORDINAL="639" NAME="?get@ResourceBundle@icu_44@@QBE?AV12@PBDAAW4UErrorCode@@@Z" PURGE="12" COMMENT="" />
    <EXPORT ORDINAL="640" NAME="?getArrayStart@UnicodeString@icu_44@@AAEPA_WXZ" PURGE="0" COMMENT="" />
    <EXPORT ORDINAL="641" NAME="?getArrayStart@UnicodeString@icu_44@@ABEPB_WXZ" PURGE="0" COMMENT="" />
    <EXPORT ORDINAL="642" NAME="?getAvailableLocaleNames@LocaleUtility@icu_44@@SAPBVHashtable@2@ABVUnicodeString@2@@Z" PURGE="0" COMMENT="" />
    <EXPORT ORDINAL="643" NAME="?getAvailableLocales@BreakIterator@icu_44@@SAPAVStringEnumeration@2@XZ" PURGE="0" COMMENT="" />
    <EXPORT ORDINAL="644" NAME="?getAvailableLocales@BreakIterator@icu_44@@SAPBVLocale@2@AAH@Z" PURGE="0" COMMENT="" />
    <EXPORT ORDINAL="645" NAME="?getAvailableLocales@ICULocaleService@icu_44@@UBEPAVStringEnumeration@2@XZ" PURGE="0" COMMENT="" />
    <EXPORT ORDINAL="646" NAME="?getAvailableLocales@Locale@icu_44@@SAPBV12@AAH@Z" PURGE="0" COMMENT="" />
    <EXPORT ORDINAL="647" NAME="?getBaseName@Locale@icu_44@@QBEPBDXZ" PURGE="0" COMMENT="" />
    <EXPORT ORDINAL="648" NAME="?getBinary@ResourceBundle@icu_44@@QBEPBEAAHAAW4UErrorCode@@@Z" PURGE="8" COMMENT="" />
    <EXPORT ORDINAL="649" NAME="?getBinaryRules@RuleBasedBreakIterator@icu_44@@UAEPBEAAI@Z" PURGE="4" COMMENT="" />
    <EXPORT ORDINAL="650" NAME="?getBuffer@UVector32@icu_44@@QBEPAHXZ" PURGE="0" COMMENT="" />
    <EXPORT ORDINAL="651" NAME="?getBuffer@UVector64@icu_44@@QBEPA_JXZ" PURGE="0" COMMENT="" />
    <EXPORT ORDINAL="652" NAME="?getBuffer@UnicodeString@icu_44@@QAEPA_WH@Z" PURGE="4" COMMENT="" />
    <EXPORT ORDINAL="653" NAME="?getBuffer@UnicodeString@icu_44@@QBEPB_WXZ" PURGE="0" COMMENT="" />
    <EXPORT ORDINAL="654" NAME="?getCC@Normalizer2Impl@icu_44@@QBEEG@Z" PURGE="4" COMMENT="" />
    <EXPORT ORDINAL="655" NAME="?getCCFromNoNo@Normalizer2Impl@icu_44@@ABEEG@Z" PURGE="4" COMMENT="" />
    <EXPORT ORDINAL="656" NAME="?getCCFromYesOrMaybe@Normalizer2Impl@icu_44@@SAEG@Z" PURGE="0" COMMENT="" />
    <EXPORT ORDINAL="657" NAME="?getCanada@Locale@icu_44@@SAABV12@XZ" PURGE="0" COMMENT="" />
    <EXPORT ORDINAL="658" NAME="?getCanadaFrench@Locale@icu_44@@SAABV12@XZ" PURGE="0" COMMENT="" />
    <EXPORT ORDINAL="659" NAME="?getCapacity@UnicodeString@icu_44@@QBEHXZ" PURGE="0" COMMENT="" />
    <EXPORT ORDINAL="660" NAME="?getChar32At@UnicodeString@icu_44@@MBEHH@Z" PURGE="4" COMMENT="" />
    <EXPORT ORDINAL="661" NAME="?getChar32Limit@UnicodeString@icu_44@@QBEHH@Z" PURGE="4" COMMENT="" />
    <EXPORT ORDINAL="662" NAME="?getChar32Start@UnicodeString@icu_44@@QBEHH@Z" PURGE="4" COMMENT="" />
    <EXPORT ORDINAL="663" NAME="?getCharAt@UnicodeString@icu_44@@MBE_WH@Z" PURGE="4" COMMENT="" />
    <EXPORT ORDINAL="664" NAME="?getChina@Locale@icu_44@@SAABV12@XZ" PURGE="0" COMMENT="" />
    <EXPORT ORDINAL="665" NAME="?getChinese@Locale@icu_44@@SAABV12@XZ" PURGE="0" COMMENT="" />
    <EXPORT ORDINAL="666" NAME="?getCodepoint@UnicodeSetIterator@icu_44@@QBEHXZ" PURGE="0" COMMENT="" />
    <EXPORT ORDINAL="667" NAME="?getCodepointEnd@UnicodeSetIterator@icu_44@@QBEHXZ" PURGE="0" COMMENT="" />
    <EXPORT ORDINAL="668" NAME="?getCompQuickCheck@Normalizer2Impl@icu_44@@QBE?AW4UNormalizationCheckResult@@G@Z" PURGE="4" COMMENT="" />
    <EXPORT ORDINAL="669" NAME="?getCompositionsListForComposite@Normalizer2Impl@icu_44@@ABEPBGG@Z" PURGE="4" COMMENT="" />
    <EXPORT ORDINAL="670" NAME="?getCompositionsListForDecompYes@Normalizer2Impl@icu_44@@ABEPBGG@Z" PURGE="4" COMMENT="" />
    <EXPORT ORDINAL="671" NAME="?getCountry@Locale@icu_44@@QBEPBDXZ" PURGE="0" COMMENT="" />
    <EXPORT ORDINAL="672" NAME="?getDecomposition@Normalizer2Impl@icu_44@@QBEPB_WHQA_WAAH@Z" PURGE="12" COMMENT="" />
    <EXPORT ORDINAL="673" NAME="?getDefault@Locale@icu_44@@SAABV12@XZ" PURGE="0" COMMENT="" />
    <EXPORT ORDINAL="674" NAME="?getDisplayCountry@Locale@icu_44@@QBEAAVUnicodeString@2@AAV32@@Z" PURGE="4" COMMENT="" />
    <EXPORT ORDINAL="675" NAME="?getDisplayCountry@Locale@icu_44@@QBEAAVUnicodeString@2@ABV12@AAV32@@Z" PURGE="8" COMMENT="" />
    <EXPORT ORDINAL="676" NAME="?getDisplayLanguage@Locale@icu_44@@QBEAAVUnicodeString@2@AAV32@@Z" PURGE="4" COMMENT="" />
    <EXPORT ORDINAL="677" NAME="?getDisplayLanguage@Locale@icu_44@@QBEAAVUnicodeString@2@ABV12@AAV32@@Z" PURGE="8" COMMENT="" />
    <EXPORT ORDINAL="678" NAME="?getDisplayName@BreakIterator@icu_44@@SAAAVUnicodeString@2@ABVLocale@2@0AAV32@@Z" PURGE="0" COMMENT="" />
    <EXPORT ORDINAL="679" NAME="?getDisplayName@BreakIterator@icu_44@@SAAAVUnicodeString@2@ABVLocale@2@AAV32@@Z" PURGE="0" COMMENT="" />
    <EXPORT ORDINAL="680" NAME="?getDisplayName@ICUService@icu_44@@QBEAAVUnicodeString@2@ABV32@AAV32@@Z" PURGE="8" COMMENT="" />
    <EXPORT ORDINAL="681" NAME="?getDisplayName@ICUService@icu_44@@QBEAAVUnicodeString@2@ABV32@AAV32@ABVLocale@2@@Z" PURGE="12" COMMENT="" />
    <EXPORT ORDINAL="682" NAME="?getDisplayName@Locale@icu_44@@QBEAAVUnicodeString@2@AAV32@@Z" PURGE="4" COMMENT="" />
    <EXPORT ORDINAL="683" NAME="?getDisplayName@Locale@icu_44@@QBEAAVUnicodeString@2@ABV12@AAV32@@Z" PURGE="8" COMMENT="" />
    <EXPORT ORDINAL="684" NAME="?getDisplayName@LocaleKeyFactory@icu_44@@UBEAAVUnicodeString@2@ABV32@ABVLocale@2@AAV32@@Z" PURGE="12" COMMENT="" />
    <EXPORT ORDINAL="685" NAME="?getDisplayName@SimpleFactory@icu_44@@UBEAAVUnicodeString@2@ABV32@ABVLocale@2@AAV32@@Z" PURGE="12" COMMENT="" />
    <EXPORT ORDINAL="686" NAME="?getDisplayNames@ICUService@icu_44@@QBEAAVUVector@2@AAV32@AAW4UErrorCode@@@Z" PURGE="8" COMMENT="" />
    <EXPORT ORDINAL="687" NAME="?getDisplayNames@ICUService@icu_44@@QBEAAVUVector@2@AAV32@ABVLocale@2@AAW4UErrorCode@@@Z" PURGE="12" COMMENT="" />
    <EXPORT ORDINAL="688" NAME="?getDisplayNames@ICUService@icu_44@@QBEAAVUVector@2@AAV32@ABVLocale@2@PBVUnicodeString@2@AAW4UErrorCode@@@Z" PURGE="16" COMMENT="" />
    <EXPORT ORDINAL="689" NAME="?getDisplayScript@Locale@icu_44@@QBEAAVUnicodeString@2@AAV32@@Z" PURGE="4" COMMENT="" />
    <EXPORT ORDINAL="690" NAME="?getDisplayScript@Locale@icu_44@@QBEAAVUnicodeString@2@ABV12@AAV32@@Z" PURGE="8" COMMENT="" />
    <EXPORT ORDINAL="691" NAME="?getDisplayVariant@Locale@icu_44@@QBEAAVUnicodeString@2@AAV32@@Z" PURGE="4" COMMENT="" />
    <EXPORT ORDINAL="692" NAME="?getDisplayVariant@Locale@icu_44@@QBEAAVUnicodeString@2@ABV12@AAV32@@Z" PURGE="8" COMMENT="" />
    <EXPORT ORDINAL="693" NAME="?getDynamicClassID@CanonicalIterator@icu_44@@UBEPAXXZ" PURGE="0" COMMENT="" />
    <EXPORT ORDINAL="694" NAME="?getDynamicClassID@DateInterval@icu_44@@UBEPAXXZ" PURGE="0" COMMENT="" />
    <EXPORT ORDINAL="695" NAME="?getDynamicClassID@EventListener@icu_44@@UBEPAXXZ" PURGE="0" COMMENT="" />
    <EXPORT ORDINAL="696" NAME="?getDynamicClassID@FilteredNormalizer2@icu_44@@UBEPAXXZ" PURGE="0" COMMENT="" />
    <EXPORT ORDINAL="697" NAME="?getDynamicClassID@ICUResourceBundleFactory@icu_44@@UBEPAXXZ" PURGE="0" COMMENT="" />
    <EXPORT ORDINAL="698" NAME="?getDynamicClassID@ICUServiceKey@icu_44@@UBEPAXXZ" PURGE="0" COMMENT="" />
    <EXPORT ORDINAL="699" NAME="?getDynamicClassID@Locale@icu_44@@UBEPAXXZ" PURGE="0" COMMENT="" />
    <EXPORT ORDINAL="700" NAME="?getDynamicClassID@LocaleKey@icu_44@@UBEPAXXZ" PURGE="0" COMMENT="" />
    <EXPORT ORDINAL="701" NAME="?getDynamicClassID@LocaleKeyFactory@icu_44@@UBEPAXXZ" PURGE="0" COMMENT="" />
    <EXPORT ORDINAL="702" NAME="?getDynamicClassID@Normalizer@icu_44@@UBEPAXXZ" PURGE="0" COMMENT="" />
    <EXPORT ORDINAL="703" NAME="?getDynamicClassID@ParsePosition@icu_44@@UBEPAXXZ" PURGE="0" COMMENT="" />
    <EXPORT ORDINAL="704" NAME="?getDynamicClassID@ResourceBundle@icu_44@@UBEPAXXZ" PURGE="0" COMMENT="" />
    <EXPORT ORDINAL="705" NAME="?getDynamicClassID@RuleBasedBreakIterator@icu_44@@UBEPAXXZ" PURGE="0" COMMENT="" />
    <EXPORT ORDINAL="706" NAME="?getDynamicClassID@ServiceListener@icu_44@@UBEPAXXZ" PURGE="0" COMMENT="" />
    <EXPORT ORDINAL="707" NAME="?getDynamicClassID@SimpleFactory@icu_44@@UBEPAXXZ" PURGE="0" COMMENT="" />
    <EXPORT ORDINAL="708" NAME="?getDynamicClassID@SimpleLocaleKeyFactory@icu_44@@UBEPAXXZ" PURGE="0" COMMENT="" />
    <EXPORT ORDINAL="709" NAME="?getDynamicClassID@StringCharacterIterator@icu_44@@UBEPAXXZ" PURGE="0" COMMENT="" />
    <EXPORT ORDINAL="710" NAME="?getDynamicClassID@UCharCharacterIterator@icu_44@@UBEPAXXZ" PURGE="0" COMMENT="" />
    <EXPORT ORDINAL="711" NAME="?getDynamicClassID@UStack@icu_44@@UBEPAXXZ" PURGE="0" COMMENT="" />
    <EXPORT ORDINAL="712" NAME="?getDynamicClassID@UStringEnumeration@icu_44@@UBEPAXXZ" PURGE="0" COMMENT="" />
    <EXPORT ORDINAL="713" NAME="?getDynamicClassID@UVector32@icu_44@@UBEPAXXZ" PURGE="0" COMMENT="" />
    <EXPORT ORDINAL="714" NAME="?getDynamicClassID@UVector64@icu_44@@UBEPAXXZ" PURGE="0" COMMENT="" />
    <EXPORT ORDINAL="715" NAME="?getDynamicClassID@UVector@icu_44@@UBEPAXXZ" PURGE="0" COMMENT="" />
    <EXPORT ORDINAL="716" NAME="?getDynamicClassID@UnicodeSet@icu_44@@UBEPAXXZ" PURGE="0" COMMENT="" />
    <EXPORT ORDINAL="717" NAME="?getDynamicClassID@UnicodeSetIterator@icu_44@@UBEPAXXZ" PURGE="0" COMMENT="" />
    <EXPORT ORDINAL="718" NAME="?getDynamicClassID@UnicodeString@icu_44@@UBEPAXXZ" PURGE="0" COMMENT="" />
    <EXPORT ORDINAL="719" NAME="?getEnglish@Locale@icu_44@@SAABV12@XZ" PURGE="0" COMMENT="" />
    <EXPORT ORDINAL="720" NAME="?getEquivalents2@CanonicalIterator@icu_44@@AAEPAVHashtable@2@PAV32@PB_WHAAW4UErrorCode@@@Z" PURGE="16" COMMENT="" />
    <EXPORT ORDINAL="721" NAME="?getEquivalents@CanonicalIterator@icu_44@@AAEPAVUnicodeString@2@ABV32@AAHAAW4UErrorCode@@@Z" PURGE="12" COMMENT="" />
    <EXPORT ORDINAL="722" NAME="?getErrorIndex@ParsePosition@icu_44@@QBEHXZ" PURGE="0" COMMENT="" />
    <EXPORT ORDINAL="723" NAME="?getFCCInstance@Normalizer2Factory@icu_44@@SAPBVNormalizer2@2@AAW4UErrorCode@@@Z" PURGE="0" COMMENT="" />
    <EXPORT ORDINAL="724" NAME="?getFCD16@Normalizer2Impl@icu_44@@QBEGH@Z" PURGE="4" COMMENT="" />
    <EXPORT ORDINAL="725" NAME="?getFCD16FromSingleLead@Normalizer2Impl@icu_44@@QBEG_W@Z" PURGE="4" COMMENT="" />
    <EXPORT ORDINAL="726" NAME="?getFCD16FromSupplementary@Normalizer2Impl@icu_44@@QBEGH@Z" PURGE="4" COMMENT="" />
    <EXPORT ORDINAL="727" NAME="?getFCD16FromSurrogatePair@Normalizer2Impl@icu_44@@QBEG_W0@Z" PURGE="8" COMMENT="" />
    <EXPORT ORDINAL="728" NAME="?getFCDInstance@Normalizer2Factory@icu_44@@SAPBVNormalizer2@2@AAW4UErrorCode@@@Z" PURGE="0" COMMENT="" />
    <EXPORT ORDINAL="729" NAME="?getFCDTrie@Normalizer2Factory@icu_44@@SAPBUUTrie2@@AAW4UErrorCode@@@Z" PURGE="0" COMMENT="" />
    <EXPORT ORDINAL="730" NAME="?getFCDTrie@Normalizer2Impl@icu_44@@QBEPBUUTrie2@@AAW4UErrorCode@@@Z" PURGE="4" COMMENT="" />
    <EXPORT ORDINAL="731" NAME="?getFrance@Locale@icu_44@@SAABV12@XZ" PURGE="0" COMMENT="" />
    <EXPORT ORDINAL="732" NAME="?getFrench@Locale@icu_44@@SAABV12@XZ" PURGE="0" COMMENT="" />
    <EXPORT ORDINAL="733" NAME="?getFromDate@DateInterval@icu_44@@QBENXZ" PURGE="0" COMMENT="" />
    <EXPORT ORDINAL="734" NAME="?getGerman@Locale@icu_44@@SAABV12@XZ" PURGE="0" COMMENT="" />
    <EXPORT ORDINAL="735" NAME="?getGermany@Locale@icu_44@@SAABV12@XZ" PURGE="0" COMMENT="" />
    <EXPORT ORDINAL="736" NAME="?getID@ICUServiceKey@icu_44@@UBEABVUnicodeString@2@XZ" PURGE="0" COMMENT="" />
    <EXPORT ORDINAL="737" NAME="?getISO3Country@Locale@icu_44@@QBEPBDXZ" PURGE="0" COMMENT="" />
    <EXPORT ORDINAL="738" NAME="?getISO3Language@Locale@icu_44@@QBEPBDXZ" PURGE="0" COMMENT="" />
    <EXPORT ORDINAL="739" NAME="?getISOCountries@Locale@icu_44@@SAPBQBDXZ" PURGE="0" COMMENT="" />
    <EXPORT ORDINAL="740" NAME="?getISOLanguages@Locale@icu_44@@SAPBQBDXZ" PURGE="0" COMMENT="" />
    <EXPORT ORDINAL="741" NAME="?getImpl@Normalizer2Factory@icu_44@@SAPBVNormalizer2Impl@2@PBVNormalizer2@2@@Z" PURGE="0" COMMENT="" />
    <EXPORT ORDINAL="742" NAME="?getInclusions@UnicodeSet@icu_44@@CAPBV12@HAAW4UErrorCode@@@Z" PURGE="0" COMMENT="" />
    <EXPORT ORDINAL="743" NAME="?getIndex@CharacterIterator@icu_44@@QBEHXZ" PURGE="0" COMMENT="" />
    <EXPORT ORDINAL="744" NAME="?getIndex@Normalizer@icu_44@@QBEHXZ" PURGE="0" COMMENT="" />
    <EXPORT ORDINAL="745" NAME="?getIndex@ParsePosition@icu_44@@QBEHXZ" PURGE="0" COMMENT="" />
    <EXPORT ORDINAL="746" NAME="?getInstance@Normalizer2@icu_44@@SAPBV12@PBD0W4UNormalization2Mode@@AAW4UErrorCode@@@Z" PURGE="0" COMMENT="" />
    <EXPORT ORDINAL="747" NAME="?getInstance@Normalizer2Factory@icu_44@@SAPBVNormalizer2@2@W4UNormalizationMode@@AAW4UErrorCode@@@Z" PURGE="0" COMMENT="" />
    <EXPORT ORDINAL="748" NAME="?getInt@ResourceBundle@icu_44@@QBEHAAW4UErrorCode@@@Z" PURGE="4" COMMENT="" />
    <EXPORT ORDINAL="749" NAME="?getIntVector@ResourceBundle@icu_44@@QBEPBHAAHAAW4UErrorCode@@@Z" PURGE="8" COMMENT="" />
    <EXPORT ORDINAL="750" NAME="?getItalian@Locale@icu_44@@SAABV12@XZ" PURGE="0" COMMENT="" />
    <EXPORT ORDINAL="751" NAME="?getItaly@Locale@icu_44@@SAABV12@XZ" PURGE="0" COMMENT="" />
    <EXPORT ORDINAL="752" NAME="?getJapan@Locale@icu_44@@SAABV12@XZ" PURGE="0" COMMENT="" />
    <EXPORT ORDINAL="753" NAME="?getJapanese@Locale@icu_44@@SAABV12@XZ" PURGE="0" COMMENT="" />
    <EXPORT ORDINAL="754" NAME="?getKey@ICUService@icu_44@@QBEPAVUObject@2@AAVICUServiceKey@2@AAW4UErrorCode@@@Z" PURGE="8" COMMENT="" />
    <EXPORT ORDINAL="755" NAME="?getKey@ICUService@icu_44@@QBEPAVUObject@2@AAVICUServiceKey@2@PAVUnicodeString@2@PBVICUServiceFactory@2@AAW4UErrorCode@@@Z" PURGE="16" COMMENT="" />
    <EXPORT ORDINAL="756" NAME="?getKey@ICUService@icu_44@@UBEPAVUObject@2@AAVICUServiceKey@2@PAVUnicodeString@2@AAW4UErrorCode@@@Z" PURGE="12" COMMENT="" />
    <EXPORT ORDINAL="757" NAME="?getKey@ResourceBundle@icu_44@@QBEPBDXZ" PURGE="0" COMMENT="" />
    <EXPORT ORDINAL="758" NAME="?getKeywordValue@Locale@icu_44@@QBEHPBDPADHAAW4UErrorCode@@@Z" PURGE="16" COMMENT="" />
    <EXPORT ORDINAL="759" NAME="?getKorea@Locale@icu_44@@SAABV12@XZ" PURGE="0" COMMENT="" />
    <EXPORT ORDINAL="760" NAME="?getKorean@Locale@icu_44@@SAABV12@XZ" PURGE="0" COMMENT="" />
    <EXPORT ORDINAL="761" NAME="?getLCID@Locale@icu_44@@QBEIXZ" PURGE="0" COMMENT="" />
    <EXPORT ORDINAL="762" NAME="?getLanguage@Locale@icu_44@@QBEPBDXZ" PURGE="0" COMMENT="" />
    <EXPORT ORDINAL="763" NAME="?getLanguageBreakEngine@RuleBasedBreakIterator@icu_44@@AAEPBVLanguageBreakEngine@2@H@Z" PURGE="4" COMMENT="" />
    <EXPORT ORDINAL="764" NAME="?getLength@CharacterIterator@icu_44@@QBEHXZ" PURGE="0" COMMENT="" />
    <EXPORT ORDINAL="765" NAME="?getLength@UnicodeString@icu_44@@MBEHXZ" PURGE="0" COMMENT="" />
    <EXPORT ORDINAL="766" NAME="?getLocale@BreakIterator@icu_44@@QBE?AVLocale@2@W4ULocDataLocaleType@@AAW4UErrorCode@@@Z" PURGE="12" COMMENT="" />
    <EXPORT ORDINAL="767" NAME="?getLocale@Locale@icu_44@@CAABV12@H@Z" PURGE="0" COMMENT="" />
    <EXPORT ORDINAL="768" NAME="?getLocale@LocaleBased@icu_44@@QBE?AVLocale@2@W4ULocDataLocaleType@@AAW4UErrorCode@@@Z" PURGE="12" COMMENT="" />
    <EXPORT ORDINAL="769" NAME="?getLocale@ResourceBundle@icu_44@@QBE?BVLocale@2@W4ULocDataLocaleType@@AAW4UErrorCode@@@Z" PURGE="12" COMMENT="" />
    <EXPORT ORDINAL="770" NAME="?getLocale@ResourceBundle@icu_44@@QBEABVLocale@2@XZ" PURGE="0" COMMENT="" />
    <EXPORT ORDINAL="771" NAME="?getLocaleCache@Locale@icu_44@@CAPAV12@XZ" PURGE="0" COMMENT="" />
    <EXPORT ORDINAL="772" NAME="?getLocaleID@BreakIterator@icu_44@@QBEPBDW4ULocDataLocaleType@@AAW4UErrorCode@@@Z" PURGE="8" COMMENT="" />
    <EXPORT ORDINAL="773" NAME="?getLocaleID@LocaleBased@icu_44@@QBEPBDW4ULocDataLocaleType@@AAW4UErrorCode@@@Z" PURGE="8" COMMENT="" />
    <EXPORT ORDINAL="774" NAME="?getMapping@Normalizer2Impl@icu_44@@ABEPBGG@Z" PURGE="4" COMMENT="" />
    <EXPORT ORDINAL="775" NAME="?getNFCImpl@Normalizer2Factory@icu_44@@SAPBVNormalizer2Impl@2@AAW4UErrorCode@@@Z" PURGE="0" COMMENT="" />
    <EXPORT ORDINAL="776" NAME="?getNFCInstance@Normalizer2Factory@icu_44@@SAPBVNormalizer2@2@AAW4UErrorCode@@@Z" PURGE="0" COMMENT="" />
    <EXPORT ORDINAL="777" NAME="?getNFDInstance@Normalizer2Factory@icu_44@@SAPBVNormalizer2@2@AAW4UErrorCode@@@Z" PURGE="0" COMMENT="" />
    <EXPORT ORDINAL="778" NAME="?getNFKCImpl@Normalizer2Factory@icu_44@@SAPBVNormalizer2Impl@2@AAW4UErrorCode@@@Z" PURGE="0" COMMENT="" />
    <EXPORT ORDINAL="779" NAME="?getNFKCInstance@Normalizer2Factory@icu_44@@SAPBVNormalizer2@2@AAW4UErrorCode@@@Z" PURGE="0" COMMENT="" />
    <EXPORT ORDINAL="780" NAME="?getNFKC_CFImpl@Normalizer2Factory@icu_44@@SAPBVNormalizer2Impl@2@AAW4UErrorCode@@@Z" PURGE="0" COMMENT="" />
    <EXPORT ORDINAL="781" NAME="?getNFKC_CFInstance@Normalizer2Factory@icu_44@@SAPBVNormalizer2@2@AAW4UErrorCode@@@Z" PURGE="0" COMMENT="" />
    <EXPORT ORDINAL="782" NAME="?getNFKDInstance@Normalizer2Factory@icu_44@@SAPBVNormalizer2@2@AAW4UErrorCode@@@Z" PURGE="0" COMMENT="" />
    <EXPORT ORDINAL="783" NAME="?getName@ICUService@icu_44@@QBEAAVUnicodeString@2@AAV32@@Z" PURGE="4" COMMENT="" />
    <EXPORT ORDINAL="784" NAME="?getName@Locale@icu_44@@QBEPBDXZ" PURGE="0" COMMENT="" />
    <EXPORT ORDINAL="785" NAME="?getName@ResourceBundle@icu_44@@QBEPBDXZ" PURGE="0" COMMENT="" />
    <EXPORT ORDINAL="786" NAME="?getNext@ResourceBundle@icu_44@@QAE?AV12@AAW4UErrorCode@@@Z" PURGE="8" COMMENT="" />
    <EXPORT ORDINAL="787" NAME="?getNextString@ResourceBundle@icu_44@@QAE?AVUnicodeString@2@AAW4UErrorCode@@@Z" PURGE="8" COMMENT="" />
    <EXPORT ORDINAL="788" NAME="?getNextString@ResourceBundle@icu_44@@QAE?AVUnicodeString@2@PAPBDAAW4UErrorCode@@@Z" PURGE="12" COMMENT="" />
    <EXPORT ORDINAL="789" NAME="?getNoopInstance@Normalizer2Factory@icu_44@@SAPBVNormalizer2@2@AAW4UErrorCode@@@Z" PURGE="0" COMMENT="" />
    <EXPORT ORDINAL="790" NAME="?getNorm16@Normalizer2Impl@icu_44@@QBEGH@Z" PURGE="4" COMMENT="" />
    <EXPORT ORDINAL="791" NAME="?getNormTrie@Normalizer2Impl@icu_44@@QBEPBUUTrie2@@XZ" PURGE="0" COMMENT="" />
    <EXPORT ORDINAL="792" NAME="?getOption@Normalizer@icu_44@@QBECH@Z" PURGE="4" COMMENT="" />
    <EXPORT ORDINAL="793" NAME="?getPRC@Locale@icu_44@@SAABV12@XZ" PURGE="0" COMMENT="" />
    <EXPORT ORDINAL="794" NAME="?getRangeCount@UnicodeSet@icu_44@@UBEHXZ" PURGE="0" COMMENT="" />
    <EXPORT ORDINAL="795" NAME="?getRangeEnd@UnicodeSet@icu_44@@UBEHH@Z" PURGE="4" COMMENT="" />
    <EXPORT ORDINAL="796" NAME="?getRangeStart@UnicodeSet@icu_44@@UBEHH@Z" PURGE="4" COMMENT="" />
    <EXPORT ORDINAL="797" NAME="?getRoot@Locale@icu_44@@SAABV12@XZ" PURGE="0" COMMENT="" />
    <EXPORT ORDINAL="798" NAME="?getRuleStatus@RuleBasedBreakIterator@icu_44@@UBEHXZ" PURGE="0" COMMENT="" />
    <EXPORT ORDINAL="799" NAME="?getRuleStatusVec@RuleBasedBreakIterator@icu_44@@UAEHPAHHAAW4UErrorCode@@@Z" PURGE="12" COMMENT="" />
    <EXPORT ORDINAL="800" NAME="?getRules@RuleBasedBreakIterator@icu_44@@UBEABVUnicodeString@2@XZ" PURGE="0" COMMENT="" />
    <EXPORT ORDINAL="801" NAME="?getScript@Locale@icu_44@@QBEPBDXZ" PURGE="0" COMMENT="" />
    <EXPORT ORDINAL="802" NAME="?getSimplifiedChinese@Locale@icu_44@@SAABV12@XZ" PURGE="0" COMMENT="" />
    <EXPORT ORDINAL="803" NAME="?getSingleCP@UnicodeSet@icu_44@@CAHABVUnicodeString@2@@Z" PURGE="0" COMMENT="" />
    <EXPORT ORDINAL="804" NAME="?getSize@ResourceBundle@icu_44@@QBEHXZ" PURGE="0" COMMENT="" />
    <EXPORT ORDINAL="805" NAME="?getSource@CanonicalIterator@icu_44@@QAE?AVUnicodeString@2@XZ" PURGE="4" COMMENT="" />
    <EXPORT ORDINAL="806" NAME="?getStaticClassID@CanonicalIterator@icu_44@@SAPAXXZ" PURGE="0" COMMENT="" />
    <EXPORT ORDINAL="807" NAME="?getStaticClassID@DateInterval@icu_44@@SAPAXXZ" PURGE="0" COMMENT="" />
    <EXPORT ORDINAL="808" NAME="?getStaticClassID@EventListener@icu_44@@SAPAXXZ" PURGE="0" COMMENT="" />
    <EXPORT ORDINAL="809" NAME="?getStaticClassID@FilteredNormalizer2@icu_44@@SAPAXXZ" PURGE="0" COMMENT="" />
    <EXPORT ORDINAL="810" NAME="?getStaticClassID@ICUResourceBundleFactory@icu_44@@SAPAXXZ" PURGE="0" COMMENT="" />
    <EXPORT ORDINAL="811" NAME="?getStaticClassID@ICUServiceKey@icu_44@@SAPAXXZ" PURGE="0" COMMENT="" />
    <EXPORT ORDINAL="812" NAME="?getStaticClassID@Locale@icu_44@@SAPAXXZ" PURGE="0" COMMENT="" />
    <EXPORT ORDINAL="813" NAME="?getStaticClassID@LocaleKey@icu_44@@SAPAXXZ" PURGE="0" COMMENT="" />
    <EXPORT ORDINAL="814" NAME="?getStaticClassID@LocaleKeyFactory@icu_44@@SAPAXXZ" PURGE="0" COMMENT="" />
    <EXPORT ORDINAL="815" NAME="?getStaticClassID@Normalizer2@icu_44@@SAPAXXZ" PURGE="0" COMMENT="" />
    <EXPORT ORDINAL="816" NAME="?getStaticClassID@Normalizer@icu_44@@SAPAXXZ" PURGE="0" COMMENT="" />
    <EXPORT ORDINAL="817" NAME="?getStaticClassID@ParsePosition@icu_44@@SAPAXXZ" PURGE="0" COMMENT="" />
    <EXPORT ORDINAL="818" NAME="?getStaticClassID@ResourceBundle@icu_44@@SAPAXXZ" PURGE="0" COMMENT="" />
    <EXPORT ORDINAL="819" NAME="?getStaticClassID@RuleBasedBreakIterator@icu_44@@SAPAXXZ" PURGE="0" COMMENT="" />
    <EXPORT ORDINAL="820" NAME="?getStaticClassID@ServiceListener@icu_44@@SAPAXXZ" PURGE="0" COMMENT="" />
    <EXPORT ORDINAL="821" NAME="?getStaticClassID@SimpleFactory@icu_44@@SAPAXXZ" PURGE="0" COMMENT="" />
    <EXPORT ORDINAL="822" NAME="?getStaticClassID@SimpleLocaleKeyFactory@icu_44@@SAPAXXZ" PURGE="0" COMMENT="" />
    <EXPORT ORDINAL="823" NAME="?getStaticClassID@StringCharacterIterator@icu_44@@SAPAXXZ" PURGE="0" COMMENT="" />
    <EXPORT ORDINAL="824" NAME="?getStaticClassID@UCharCharacterIterator@icu_44@@SAPAXXZ" PURGE="0" COMMENT="" />
    <EXPORT ORDINAL="825" NAME="?getStaticClassID@UStack@icu_44@@SAPAXXZ" PURGE="0" COMMENT="" />
    <EXPORT ORDINAL="826" NAME="?getStaticClassID@UStringEnumeration@icu_44@@SAPAXXZ" PURGE="0" COMMENT="" />
    <EXPORT ORDINAL="827" NAME="?getStaticClassID@UVector32@icu_44@@SAPAXXZ" PURGE="0" COMMENT="" />
    <EXPORT ORDINAL="828" NAME="?getStaticClassID@UVector64@icu_44@@SAPAXXZ" PURGE="0" COMMENT="" />
    <EXPORT ORDINAL="829" NAME="?getStaticClassID@UVector@icu_44@@SAPAXXZ" PURGE="0" COMMENT="" />
    <EXPORT ORDINAL="830" NAME="?getStaticClassID@UnicodeFilter@icu_44@@SAPAXXZ" PURGE="0" COMMENT="" />
    <EXPORT ORDINAL="831" NAME="?getStaticClassID@UnicodeFunctor@icu_44@@SAPAXXZ" PURGE="0" COMMENT="" />
    <EXPORT ORDINAL="832" NAME="?getStaticClassID@UnicodeSet@icu_44@@SAPAXXZ" PURGE="0" COMMENT="" />
    <EXPORT ORDINAL="833" NAME="?getStaticClassID@UnicodeSetIterator@icu_44@@SAPAXXZ" PURGE="0" COMMENT="" />
    <EXPORT ORDINAL="834" NAME="?getStaticClassID@UnicodeString@icu_44@@SAPAXXZ" PURGE="0" COMMENT="" />
    <EXPORT ORDINAL="835" NAME="?getString@ResourceBundle@icu_44@@QBE?AVUnicodeString@2@AAW4UErrorCode@@@Z" PURGE="8" COMMENT="" />
    <EXPORT ORDINAL="836" NAME="?getString@UnicodeSet@icu_44@@ABEPBVUnicodeString@2@H@Z" PURGE="4" COMMENT="" />
    <EXPORT ORDINAL="837" NAME="?getString@UnicodeSetIterator@icu_44@@QAEABVUnicodeString@2@XZ" PURGE="0" COMMENT="" />
    <EXPORT ORDINAL="838" NAME="?getStringCount@UnicodeSet@icu_44@@ABEHXZ" PURGE="0" COMMENT="" />
    <EXPORT ORDINAL="839" NAME="?getStringEx@ResourceBundle@icu_44@@QBE?AVUnicodeString@2@HAAW4UErrorCode@@@Z" PURGE="12" COMMENT="" />
    <EXPORT ORDINAL="840" NAME="?getStringEx@ResourceBundle@icu_44@@QBE?AVUnicodeString@2@PBDAAW4UErrorCode@@@Z" PURGE="12" COMMENT="" />
    <EXPORT ORDINAL="841" NAME="?getSupportedIDs@ICUResourceBundleFactory@icu_44@@MBEPBVHashtable@2@AAW4UErrorCode@@@Z" PURGE="4" COMMENT="" />
    <EXPORT ORDINAL="842" NAME="?getSupportedIDs@LocaleKeyFactory@icu_44@@MBEPBVHashtable@2@AAW4UErrorCode@@@Z" PURGE="4" COMMENT="" />
    <EXPORT ORDINAL="843" NAME="?getTaiwan@Locale@icu_44@@SAABV12@XZ" PURGE="0" COMMENT="" />
    <EXPORT ORDINAL="844" NAME="?getTerminatedBuffer@UnicodeString@icu_44@@QAEPB_WXZ" PURGE="0" COMMENT="" />
    <EXPORT ORDINAL="845" NAME="?getText@Normalizer@icu_44@@QAEXAAVUnicodeString@2@@Z" PURGE="4" COMMENT="" />
    <EXPORT ORDINAL="846" NAME="?getText@RuleBasedBreakIterator@icu_44@@UBEAAVCharacterIterator@2@XZ" PURGE="0" COMMENT="" />
    <EXPORT ORDINAL="847" NAME="?getText@StringCharacterIterator@icu_44@@UAEXAAVUnicodeString@2@@Z" PURGE="4" COMMENT="" />
    <EXPORT ORDINAL="848" NAME="?getText@UCharCharacterIterator@icu_44@@UAEXAAVUnicodeString@2@@Z" PURGE="4" COMMENT="" />
    <EXPORT ORDINAL="849" NAME="?getTimestamp@ICUService@icu_44@@IBEHXZ" PURGE="0" COMMENT="" />
    <EXPORT ORDINAL="850" NAME="?getToDate@DateInterval@icu_44@@QBENXZ" PURGE="0" COMMENT="" />
    <EXPORT ORDINAL="851" NAME="?getTraditionalChinese@Locale@icu_44@@SAABV12@XZ" PURGE="0" COMMENT="" />
    <EXPORT ORDINAL="852" NAME="?getTrailCCFromCompYesAndZeroCC@Normalizer2Impl@icu_44@@ABEEPB_W0@Z" PURGE="8" COMMENT="" />
    <EXPORT ORDINAL="853" NAME="?getType@ResourceBundle@icu_44@@QBE?AW4UResType@@XZ" PURGE="0" COMMENT="" />
    <EXPORT ORDINAL="854" NAME="?getUInt@ResourceBundle@icu_44@@QBEIAAW4UErrorCode@@@Z" PURGE="4" COMMENT="" />
    <EXPORT ORDINAL="855" NAME="?getUK@Locale@icu_44@@SAABV12@XZ" PURGE="0" COMMENT="" />
    <EXPORT ORDINAL="856" NAME="?getUMode@Normalizer@icu_44@@QBE?AW4UNormalizationMode@@XZ" PURGE="0" COMMENT="" />
    <EXPORT ORDINAL="857" NAME="?getUS@Locale@icu_44@@SAABV12@XZ" PURGE="0" COMMENT="" />
    <EXPORT ORDINAL="858" NAME="?getUText@RuleBasedBreakIterator@icu_44@@UBEPAUUText@@PAU3@AAW4UErrorCode@@@Z" PURGE="8" COMMENT="" />
    <EXPORT ORDINAL="859" NAME="?getVariant@Locale@icu_44@@QBEPBDXZ" PURGE="0" COMMENT="" />
    <EXPORT ORDINAL="860" NAME="?getVersion@ResourceBundle@icu_44@@QBEXQAE@Z" PURGE="4" COMMENT="" />
    <EXPORT ORDINAL="861" NAME="?getVersionNumber@ResourceBundle@icu_44@@QBEPBDXZ" PURGE="0" COMMENT="" />
    <EXPORT ORDINAL="862" NAME="?getVisibleIDMap@ICUService@icu_44@@IBEPBVHashtable@2@AAW4UErrorCode@@@Z" PURGE="4" COMMENT="" />
    <EXPORT ORDINAL="863" NAME="?getVisibleIDs@ICUService@icu_44@@QBEAAVUVector@2@AAV32@AAW4UErrorCode@@@Z" PURGE="8" COMMENT="" />
    <EXPORT ORDINAL="864" NAME="?getVisibleIDs@ICUService@icu_44@@QBEAAVUVector@2@AAV32@PBVUnicodeString@2@AAW4UErrorCode@@@Z" PURGE="12" COMMENT="" />
    <EXPORT ORDINAL="865" NAME="?getWithFallback@ResourceBundle@icu_44@@QAE?AV12@PBDAAW4UErrorCode@@@Z" PURGE="12" COMMENT="" />
    <EXPORT ORDINAL="866" NAME="?geti@Hashtable@icu_44@@QBEHABVUnicodeString@2@@Z" PURGE="4" COMMENT="" />
    <EXPORT ORDINAL="867" NAME="?handleCreate@ICUResourceBundleFactory@icu_44@@MBEPAVUObject@2@ABVLocale@2@HPBVICUService@2@AAW4UErrorCode@@@Z" PURGE="16" COMMENT="" />
    <EXPORT ORDINAL="868" NAME="?handleCreate@LocaleKeyFactory@icu_44@@MBEPAVUObject@2@ABVLocale@2@HPBVICUService@2@AAW4UErrorCode@@@Z" PURGE="16" COMMENT="" />
    <EXPORT ORDINAL="869" NAME="?handleDefault@ICUService@icu_44@@MBEPAVUObject@2@ABVICUServiceKey@2@PAVUnicodeString@2@AAW4UErrorCode@@@Z" PURGE="12" COMMENT="" />
    <EXPORT ORDINAL="870" NAME="?handleFailure@ErrorCode@icu_44@@MBEXXZ" PURGE="0" COMMENT="" />
    <EXPORT ORDINAL="871" NAME="?handleNext@RuleBasedBreakIterator@icu_44@@AAEHPBURBBIStateTable@2@@Z" PURGE="4" COMMENT="" />
    <EXPORT ORDINAL="872" NAME="?handlePrevious@RuleBasedBreakIterator@icu_44@@AAEHPBURBBIStateTable@2@@Z" PURGE="4" COMMENT="" />
    <EXPORT ORDINAL="873" NAME="?handleReplaceBetween@UnicodeString@icu_44@@UAEXHHABV12@@Z" PURGE="12" COMMENT="" />
    <EXPORT ORDINAL="874" NAME="?handlesKey@LocaleKeyFactory@icu_44@@MBECABVICUServiceKey@2@AAW4UErrorCode@@@Z" PURGE="8" COMMENT="" />
    <EXPORT ORDINAL="875" NAME="?hasBoundaryAfter@FilteredNormalizer2@icu_44@@UBECH@Z" PURGE="4" COMMENT="" />
    <EXPORT ORDINAL="876" NAME="?hasBoundaryBefore@FilteredNormalizer2@icu_44@@UBECH@Z" PURGE="4" COMMENT="" />
    <EXPORT ORDINAL="877" NAME="?hasCompBoundaryAfter@Normalizer2Impl@icu_44@@QBECHCC@Z" PURGE="12" COMMENT="" />
    <EXPORT ORDINAL="878" NAME="?hasCompBoundaryBefore@Normalizer2Impl@icu_44@@ABECHG@Z" PURGE="8" COMMENT="" />
    <EXPORT ORDINAL="879" NAME="?hasCompBoundaryBefore@Normalizer2Impl@icu_44@@QBECH@Z" PURGE="4" COMMENT="" />
    <EXPORT ORDINAL="880" NAME="?hasDecompBoundary@Normalizer2Impl@icu_44@@QBECHC@Z" PURGE="8" COMMENT="" />
    <EXPORT ORDINAL="881" NAME="?hasFCDBoundaryAfter@Normalizer2Impl@icu_44@@QBECH@Z" PURGE="4" COMMENT="" />
    <EXPORT ORDINAL="882" NAME="?hasFCDBoundaryBefore@Normalizer2Impl@icu_44@@QBECH@Z" PURGE="4" COMMENT="" />
    <EXPORT ORDINAL="883" NAME="?hasMetaData@Replaceable@icu_44@@UBECXZ" PURGE="0" COMMENT="" />
    <EXPORT ORDINAL="884" NAME="?hasMetaData@UnicodeString@icu_44@@UBECXZ" PURGE="0" COMMENT="" />
    <EXPORT ORDINAL="885" NAME="?hasMoreChar32Than@UnicodeString@icu_44@@QBECHHH@Z" PURGE="12" COMMENT="" />
    <EXPORT ORDINAL="886" NAME="?hasNext@ResourceBundle@icu_44@@QBECXZ" PURGE="0" COMMENT="" />
    <EXPORT ORDINAL="887" NAME="?hasNext@UCharCharacterIterator@icu_44@@UAECXZ" PURGE="0" COMMENT="" />
    <EXPORT ORDINAL="888" NAME="?hasPrevious@UCharCharacterIterator@icu_44@@UAECXZ" PURGE="0" COMMENT="" />
    <EXPORT ORDINAL="889" NAME="?hashCode@Locale@icu_44@@QBEHXZ" PURGE="0" COMMENT="" />
    <EXPORT ORDINAL="890" NAME="?hashCode@Normalizer@icu_44@@QBEHXZ" PURGE="0" COMMENT="" />
    <EXPORT ORDINAL="891" NAME="?hashCode@RuleBasedBreakIterator@icu_44@@UBEHXZ" PURGE="0" COMMENT="" />
    <EXPORT ORDINAL="892" NAME="?hashCode@UCharCharacterIterator@icu_44@@UBEHXZ" PURGE="0" COMMENT="" />
    <EXPORT ORDINAL="893" NAME="?hashCode@UnicodeSet@icu_44@@UBEHXZ" PURGE="0" COMMENT="" />
    <EXPORT ORDINAL="894" NAME="?hashCode@UnicodeString@icu_44@@QBEHXZ" PURGE="0" COMMENT="" />
    <EXPORT ORDINAL="895" NAME="?indexOf@UVector32@icu_44@@QBEHHH@Z" PURGE="8" COMMENT="" />
    <EXPORT ORDINAL="896" NAME="?indexOf@UVector@icu_44@@ABEHTUHashTok@@HC@Z" PURGE="12" COMMENT="" />
    <EXPORT ORDINAL="897" NAME="?indexOf@UVector@icu_44@@QBEHHH@Z" PURGE="8" COMMENT="" />
    <EXPORT ORDINAL="898" NAME="?indexOf@UVector@icu_44@@QBEHPAXH@Z" PURGE="8" COMMENT="" />
    <EXPORT ORDINAL="899" NAME="?indexOf@UnicodeSet@icu_44@@QBEHH@Z" PURGE="4" COMMENT="" />
    <EXPORT ORDINAL="900" NAME="?indexOf@UnicodeString@icu_44@@QBEHABV12@@Z" PURGE="4" COMMENT="" />
    <EXPORT ORDINAL="901" NAME="?indexOf@UnicodeString@icu_44@@QBEHABV12@H@Z" PURGE="8" COMMENT="" />
    <EXPORT ORDINAL="902" NAME="?indexOf@UnicodeString@icu_44@@QBEHABV12@HH@Z" PURGE="12" COMMENT="" />
    <EXPORT ORDINAL="903" NAME="?indexOf@UnicodeString@icu_44@@QBEHABV12@HHHH@Z" PURGE="20" COMMENT="" />
    <EXPORT ORDINAL="904" NAME="?indexOf@UnicodeString@icu_44@@QBEHH@Z" PURGE="4" COMMENT="" />
    <EXPORT ORDINAL="905" NAME="?indexOf@UnicodeString@icu_44@@QBEHHH@Z" PURGE="8" COMMENT="" />
    <EXPORT ORDINAL="906" NAME="?indexOf@UnicodeString@icu_44@@QBEHHHH@Z" PURGE="12" COMMENT="" />
    <EXPORT ORDINAL="907" NAME="?indexOf@UnicodeString@icu_44@@QBEHPB_WHH@Z" PURGE="12" COMMENT="" />
    <EXPORT ORDINAL="908" NAME="?indexOf@UnicodeString@icu_44@@QBEHPB_WHHH@Z" PURGE="16" COMMENT="" />
    <EXPORT ORDINAL="909" NAME="?indexOf@UnicodeString@icu_44@@QBEHPB_WHHHH@Z" PURGE="20" COMMENT="" />
    <EXPORT ORDINAL="910" NAME="?indexOf@UnicodeString@icu_44@@QBEH_W@Z" PURGE="4" COMMENT="" />
    <EXPORT ORDINAL="911" NAME="?indexOf@UnicodeString@icu_44@@QBEH_WH@Z" PURGE="8" COMMENT="" />
    <EXPORT ORDINAL="912" NAME="?indexOf@UnicodeString@icu_44@@QBEH_WHH@Z" PURGE="12" COMMENT="" />
    <EXPORT ORDINAL="913" NAME="?init@Hashtable@icu_44@@AAEXP6AHTUHashTok@@@ZP6AC00@Z2AAW4UErrorCode@@@Z" PURGE="16" COMMENT="" />
    <EXPORT ORDINAL="914" NAME="?init@Locale@icu_44@@AAEAAV12@PBDC@Z" PURGE="8" COMMENT="" />
    <EXPORT ORDINAL="915" NAME="?init@Normalizer@icu_44@@AAEXXZ" PURGE="0" COMMENT="" />
    <EXPORT ORDINAL="916" NAME="?init@RuleBasedBreakIterator@icu_44@@IAEXXZ" PURGE="0" COMMENT="" />
    <EXPORT ORDINAL="917" NAME="?initLocaleFromName@LocaleUtility@icu_44@@SAAAVLocale@2@ABVUnicodeString@2@AAV32@@Z" PURGE="0" COMMENT="" />
    <EXPORT ORDINAL="918" NAME="?initNameFromLocale@LocaleUtility@icu_44@@SAAAVUnicodeString@2@ABVLocale@2@AAV32@@Z" PURGE="0" COMMENT="" />
    <EXPORT ORDINAL="919" NAME="?insert@UnicodeString@icu_44@@QAEAAV12@HABV12@@Z" PURGE="8" COMMENT="" />
    <EXPORT ORDINAL="920" NAME="?insert@UnicodeString@icu_44@@QAEAAV12@HABV12@HH@Z" PURGE="16" COMMENT="" />
    <EXPORT ORDINAL="921" NAME="?insert@UnicodeString@icu_44@@QAEAAV12@HH@Z" PURGE="8" COMMENT="" />
    <EXPORT ORDINAL="922" NAME="?insert@UnicodeString@icu_44@@QAEAAV12@HPB_WH@Z" PURGE="12" COMMENT="" />
    <EXPORT ORDINAL="923" NAME="?insert@UnicodeString@icu_44@@QAEAAV12@HPB_WHH@Z" PURGE="16" COMMENT="" />
    <EXPORT ORDINAL="924" NAME="?insert@UnicodeString@icu_44@@QAEAAV12@H_W@Z" PURGE="8" COMMENT="" />
    <EXPORT ORDINAL="925" NAME="?insertElementAt@UVector32@icu_44@@QAEXHHAAW4UErrorCode@@@Z" PURGE="12" COMMENT="" />
    <EXPORT ORDINAL="926" NAME="?insertElementAt@UVector64@icu_44@@QAEX_JHAAW4UErrorCode@@@Z" PURGE="16" COMMENT="" />
    <EXPORT ORDINAL="927" NAME="?insertElementAt@UVector@icu_44@@QAEXHHAAW4UErrorCode@@@Z" PURGE="12" COMMENT="" />
    <EXPORT ORDINAL="928" NAME="?insertElementAt@UVector@icu_44@@QAEXPAXHAAW4UErrorCode@@@Z" PURGE="12" COMMENT="" />
    <EXPORT ORDINAL="929" NAME="?isAcceptable@Normalizer2Impl@icu_44@@CACPAXPBD1PBUUDataInfo@@@Z" PURGE="0" COMMENT="" />
    <EXPORT ORDINAL="930" NAME="?isBogus@Locale@icu_44@@QBECXZ" PURGE="0" COMMENT="" />
    <EXPORT ORDINAL="931" NAME="?isBogus@StringPair@icu_44@@QBECXZ" PURGE="0" COMMENT="" />
    <EXPORT ORDINAL="932" NAME="?isBogus@UnicodeSet@icu_44@@QBECXZ" PURGE="0" COMMENT="" />
    <EXPORT ORDINAL="933" NAME="?isBogus@UnicodeString@icu_44@@QBECXZ" PURGE="0" COMMENT="" />
    <EXPORT ORDINAL="934" NAME="?isBoundary@RuleBasedBreakIterator@icu_44@@UAECH@Z" PURGE="4" COMMENT="" />
    <EXPORT ORDINAL="935" NAME="?isBufferClone@BreakIterator@icu_44@@QAECXZ" PURGE="0" COMMENT="" />
    <EXPORT ORDINAL="936" NAME="?isBufferWritable@UnicodeString@icu_44@@ABECXZ" PURGE="0" COMMENT="" />
    <EXPORT ORDINAL="937" NAME="?isCompNo@Normalizer2Impl@icu_44@@QBECG@Z" PURGE="4" COMMENT="" />
    <EXPORT ORDINAL="938" NAME="?isCompYesAndZeroCC@Normalizer2Impl@icu_44@@ABECG@Z" PURGE="4" COMMENT="" />
    <EXPORT ORDINAL="939" NAME="?isDecompInert@Normalizer2Impl@icu_44@@QBECH@Z" PURGE="4" COMMENT="" />
    <EXPORT ORDINAL="940" NAME="?isDecompNoAlgorithmic@Normalizer2Impl@icu_44@@ABECG@Z" PURGE="4" COMMENT="" />
    <EXPORT ORDINAL="941" NAME="?isDecompYes@Normalizer2Impl@icu_44@@QBECG@Z" PURGE="4" COMMENT="" />
    <EXPORT ORDINAL="942" NAME="?isDecompYesAndZeroCC@Normalizer2Impl@icu_44@@ABECG@Z" PURGE="4" COMMENT="" />
    <EXPORT ORDINAL="943" NAME="?isDefault@ICUService@icu_44@@UBECXZ" PURGE="0" COMMENT="" />
    <EXPORT ORDINAL="944" NAME="?isEmpty@UVector32@icu_44@@QBECXZ" PURGE="0" COMMENT="" />
    <EXPORT ORDINAL="945" NAME="?isEmpty@UVector@icu_44@@QBECXZ" PURGE="0" COMMENT="" />
    <EXPORT ORDINAL="946" NAME="?isEmpty@UnicodeSet@icu_44@@UBECXZ" PURGE="0" COMMENT="" />
    <EXPORT ORDINAL="947" NAME="?isEmpty@UnicodeString@icu_44@@QBECXZ" PURGE="0" COMMENT="" />
    <EXPORT ORDINAL="948" NAME="?isFCDInert@Normalizer2Impl@icu_44@@QBECH@Z" PURGE="4" COMMENT="" />
    <EXPORT ORDINAL="949" NAME="?isFailure@ErrorCode@icu_44@@QBECXZ" PURGE="0" COMMENT="" />
    <EXPORT ORDINAL="950" NAME="?isFallbackOf@ICUServiceKey@icu_44@@UBECABVUnicodeString@2@@Z" PURGE="4" COMMENT="" />
    <EXPORT ORDINAL="951" NAME="?isFallbackOf@LocaleKey@icu_44@@UBECABVUnicodeString@2@@Z" PURGE="4" COMMENT="" />
    <EXPORT ORDINAL="952" NAME="?isFallbackOf@LocaleUtility@icu_44@@SACABVUnicodeString@2@0@Z" PURGE="0" COMMENT="" />
    <EXPORT ORDINAL="953" NAME="?isFrozen@UnicodeSet@icu_44@@QBECXZ" PURGE="0" COMMENT="" />
    <EXPORT ORDINAL="954" NAME="?isHangul@Normalizer2Impl@icu_44@@ABECG@Z" PURGE="4" COMMENT="" />
    <EXPORT ORDINAL="955" NAME="?isInert@FilteredNormalizer2@icu_44@@UBECH@Z" PURGE="4" COMMENT="" />
    <EXPORT ORDINAL="956" NAME="?isInert@Normalizer2Impl@icu_44@@CACG@Z" PURGE="0" COMMENT="" />
    <EXPORT ORDINAL="957" NAME="?isJamoVT@Normalizer2Impl@icu_44@@CACG@Z" PURGE="0" COMMENT="" />
    <EXPORT ORDINAL="958" NAME="?isMaybe@Normalizer2Impl@icu_44@@ABECG@Z" PURGE="4" COMMENT="" />
    <EXPORT ORDINAL="959" NAME="?isMaybeOrNonZeroCC@Normalizer2Impl@icu_44@@ABECG@Z" PURGE="4" COMMENT="" />
    <EXPORT ORDINAL="960" NAME="?isMostDecompYesAndZeroCC@Normalizer2Impl@icu_44@@ABECG@Z" PURGE="4" COMMENT="" />
    <EXPORT ORDINAL="961" NAME="?isNormalized@FilteredNormalizer2@icu_44@@UBECABVUnicodeString@2@AAW4UErrorCode@@@Z" PURGE="8" COMMENT="" />
    <EXPORT ORDINAL="962" NAME="?isNormalized@Normalizer@icu_44@@SACABVUnicodeString@2@W4UNormalizationMode@@AAW4UErrorCode@@@Z" PURGE="0" COMMENT="" />
    <EXPORT ORDINAL="963" NAME="?isNormalized@Normalizer@icu_44@@SACABVUnicodeString@2@W4UNormalizationMode@@HAAW4UErrorCode@@@Z" PURGE="0" COMMENT="" />
    <EXPORT ORDINAL="964" NAME="?isString@UnicodeSetIterator@icu_44@@QBECXZ" PURGE="0" COMMENT="" />
    <EXPORT ORDINAL="965" NAME="?isSuccess@ErrorCode@icu_44@@QBECXZ" PURGE="0" COMMENT="" />
    <EXPORT ORDINAL="966" NAME="?isUnprintable@ICU_Utility@icu_44@@SACH@Z" PURGE="0" COMMENT="" />
    <EXPORT ORDINAL="967" NAME="?isWritable@UnicodeString@icu_44@@ABECXZ" PURGE="0" COMMENT="" />
    <EXPORT ORDINAL="968" NAME="?kind@LocaleKey@icu_44@@UBEHXZ" PURGE="0" COMMENT="" />
    <EXPORT ORDINAL="969" NAME="?last32@UCharCharacterIterator@icu_44@@UAEHXZ" PURGE="0" COMMENT="" />
    <EXPORT ORDINAL="970" NAME="?last@Normalizer@icu_44@@QAEHXZ" PURGE="0" COMMENT="" />
    <EXPORT ORDINAL="971" NAME="?last@RuleBasedBreakIterator@icu_44@@UAEHXZ" PURGE="0" COMMENT="" />
    <EXPORT ORDINAL="972" NAME="?last@UCharCharacterIterator@icu_44@@UAE_WXZ" PURGE="0" COMMENT="" />
    <EXPORT ORDINAL="973" NAME="?lastElement@UVector@icu_44@@QBEPAXXZ" PURGE="0" COMMENT="" />
    <EXPORT ORDINAL="974" NAME="?lastElementi@UVector32@icu_44@@QBEHXZ" PURGE="0" COMMENT="" />
    <EXPORT ORDINAL="975" NAME="?lastElementi@UVector64@icu_44@@QBE_JXZ" PURGE="0" COMMENT="" />
    <EXPORT ORDINAL="976" NAME="?lastElementi@UVector@icu_44@@QBEHXZ" PURGE="0" COMMENT="" />
    <EXPORT ORDINAL="977" NAME="?lastIndexOf@UnicodeString@icu_44@@QBEHABV12@@Z" PURGE="4" COMMENT="" />
    <EXPORT ORDINAL="978" NAME="?lastIndexOf@UnicodeString@icu_44@@QBEHABV12@H@Z" PURGE="8" COMMENT="" />
    <EXPORT ORDINAL="979" NAME="?lastIndexOf@UnicodeString@icu_44@@QBEHABV12@HH@Z" PURGE="12" COMMENT="" />
    <EXPORT ORDINAL="980" NAME="?lastIndexOf@UnicodeString@icu_44@@QBEHABV12@HHHH@Z" PURGE="20" COMMENT="" />
    <EXPORT ORDINAL="981" NAME="?lastIndexOf@UnicodeString@icu_44@@QBEHH@Z" PURGE="4" COMMENT="" />
    <EXPORT ORDINAL="982" NAME="?lastIndexOf@UnicodeString@icu_44@@QBEHHH@Z" PURGE="8" COMMENT="" />
    <EXPORT ORDINAL="983" NAME="?lastIndexOf@UnicodeString@icu_44@@QBEHHHH@Z" PURGE="12" COMMENT="" />
    <EXPORT ORDINAL="984" NAME="?lastIndexOf@UnicodeString@icu_44@@QBEHPB_WHH@Z" PURGE="12" COMMENT="" />
    <EXPORT ORDINAL="985" NAME="?lastIndexOf@UnicodeString@icu_44@@QBEHPB_WHHH@Z" PURGE="16" COMMENT="" />
    <EXPORT ORDINAL="986" NAME="?lastIndexOf@UnicodeString@icu_44@@QBEHPB_WHHHH@Z" PURGE="20" COMMENT="" />
    <EXPORT ORDINAL="987" NAME="?lastIndexOf@UnicodeString@icu_44@@QBEH_W@Z" PURGE="4" COMMENT="" />
    <EXPORT ORDINAL="988" NAME="?lastIndexOf@UnicodeString@icu_44@@QBEH_WH@Z" PURGE="8" COMMENT="" />
    <EXPORT ORDINAL="989" NAME="?lastIndexOf@UnicodeString@icu_44@@QBEH_WHH@Z" PURGE="12" COMMENT="" />
    <EXPORT ORDINAL="990" NAME="?length@Replaceable@icu_44@@QBEHXZ" PURGE="0" COMMENT="" />
    <EXPORT ORDINAL="991" NAME="?length@StringPiece@icu_44@@QBEHXZ" PURGE="0" COMMENT="" />
    <EXPORT ORDINAL="992" NAME="?length@UnicodeString@icu_44@@QBEHXZ" PURGE="0" COMMENT="" />
    <EXPORT ORDINAL="993" NAME="?load@Normalizer2Impl@icu_44@@QAEXPBD0AAW4UErrorCode@@@Z" PURGE="12" COMMENT="" />
    <EXPORT ORDINAL="994" NAME="?loadRange@UnicodeSetIterator@icu_44@@MAEXH@Z" PURGE="4" COMMENT="" />
    <EXPORT ORDINAL="995" NAME="?makeFCD@Normalizer2Impl@icu_44@@QBEPB_WPB_W0PAVReorderingBuffer@2@AAW4UErrorCode@@@Z" PURGE="16" COMMENT="" />
    <EXPORT ORDINAL="996" NAME="?makeFCDAndAppend@Normalizer2Impl@icu_44@@QBEXPB_W0CAAVReorderingBuffer@2@AAW4UErrorCode@@@Z" PURGE="20" COMMENT="" />
    <EXPORT ORDINAL="997" NAME="?makeInstance@BreakIterator@icu_44@@CAPAV12@ABVLocale@2@HAAW4UErrorCode@@@Z" PURGE="0" COMMENT="" />
    <EXPORT ORDINAL="998" NAME="?makeRuleStatusValid@RuleBasedBreakIterator@icu_44@@AAEXXZ" PURGE="0" COMMENT="" />
    <EXPORT ORDINAL="999" NAME="?mapAlgorithmic@Normalizer2Impl@icu_44@@ABEHHG@Z" PURGE="8" COMMENT="" />
    <EXPORT ORDINAL="1000" NAME="?matchRest@UnicodeSet@icu_44@@CAHABVReplaceable@2@HHABVUnicodeString@2@@Z" PURGE="0" COMMENT="" />
    <EXPORT ORDINAL="1001" NAME="?matches@CompactTrieDictionary@icu_44@@UBEHPAUUText@@HPAHAAHH@Z" PURGE="20" COMMENT="" />
    <EXPORT ORDINAL="1002" NAME="?matches@MutableTrieDictionary@icu_44@@UBEHPAUUText@@HPAHAAHH@Z" PURGE="20" COMMENT="" />
    <EXPORT ORDINAL="1003" NAME="?matches@UnicodeFilter@icu_44@@UAE?AW4UMatchDegree@2@ABVReplaceable@2@AAHHC@Z" PURGE="16" COMMENT="" />
    <EXPORT ORDINAL="1004" NAME="?matches@UnicodeSet@icu_44@@UAE?AW4UMatchDegree@2@ABVReplaceable@2@AAHHC@Z" PURGE="16" COMMENT="" />
    <EXPORT ORDINAL="1005" NAME="?matchesIndexValue@UnicodeSet@icu_44@@EBECE@Z" PURGE="4" COMMENT="" />
    <EXPORT ORDINAL="1006" NAME="?move32@UCharCharacterIterator@icu_44@@UAEHHW4EOrigin@CharacterIterator@2@@Z" PURGE="8" COMMENT="" />
    <EXPORT ORDINAL="1007" NAME="?move@UCharCharacterIterator@icu_44@@UAEHHW4EOrigin@CharacterIterator@2@@Z" PURGE="8" COMMENT="" />
    <EXPORT ORDINAL="1008" NAME="?moveIndex32@UnicodeString@icu_44@@QBEHHH@Z" PURGE="8" COMMENT="" />
    <EXPORT ORDINAL="1009" NAME="?next32@UCharCharacterIterator@icu_44@@UAEHXZ" PURGE="0" COMMENT="" />
    <EXPORT ORDINAL="1010" NAME="?next32PostInc@UCharCharacterIterator@icu_44@@UAEHXZ" PURGE="0" COMMENT="" />
    <EXPORT ORDINAL="1011" NAME="?next@CanonicalIterator@icu_44@@QAE?AVUnicodeString@2@XZ" PURGE="4" COMMENT="" />
    <EXPORT ORDINAL="1012" NAME="?next@Normalizer@icu_44@@QAEHXZ" PURGE="0" COMMENT="" />
    <EXPORT ORDINAL="1013" NAME="?next@RuleBasedBreakIterator@icu_44@@UAEHH@Z" PURGE="4" COMMENT="" />
    <EXPORT ORDINAL="1014" NAME="?next@RuleBasedBreakIterator@icu_44@@UAEHXZ" PURGE="0" COMMENT="" />
    <EXPORT ORDINAL="1015" NAME="?next@StringEnumeration@icu_44@@UAEPBDPAHAAW4UErrorCode@@@Z" PURGE="8" COMMENT="" />
    <EXPORT ORDINAL="1016" NAME="?next@UCharCharacterIterator@icu_44@@UAE_WXZ" PURGE="0" COMMENT="" />
    <EXPORT ORDINAL="1017" NAME="?next@UnicodeSetIterator@icu_44@@QAECXZ" PURGE="0" COMMENT="" />
    <EXPORT ORDINAL="1018" NAME="?nextElement@Hashtable@icu_44@@QBEPBUUHashElement@@AAH@Z" PURGE="4" COMMENT="" />
    <EXPORT ORDINAL="1019" NAME="?nextNormalize@Normalizer@icu_44@@AAECXZ" PURGE="0" COMMENT="" />
    <EXPORT ORDINAL="1020" NAME="?nextPostInc@UCharCharacterIterator@icu_44@@UAE_WXZ" PURGE="0" COMMENT="" />
    <EXPORT ORDINAL="1021" NAME="?nextRange@UnicodeSetIterator@icu_44@@QAECXZ" PURGE="0" COMMENT="" />
    <EXPORT ORDINAL="1022" NAME="?normalize@FilteredNormalizer2@icu_44@@ABEAAVUnicodeString@2@ABV32@AAV32@W4USetSpanCondition@@AAW4UErrorCode@@@Z" PURGE="16" COMMENT="" />
    <EXPORT ORDINAL="1023" NAME="?normalize@FilteredNormalizer2@icu_44@@UBEAAVUnicodeString@2@ABV32@AAV32@AAW4UErrorCode@@@Z" PURGE="12" COMMENT="" />
    <EXPORT ORDINAL="1024" NAME="?normalize@Normalizer2@icu_44@@QBE?AVUnicodeString@2@ABV32@AAW4UErrorCode@@@Z" PURGE="12" COMMENT="" />
    <EXPORT ORDINAL="1025" NAME="?normalize@Normalizer@icu_44@@SAXABVUnicodeString@2@W4UNormalizationMode@@HAAV32@AAW4UErrorCode@@@Z" PURGE="0" COMMENT="" />
    <EXPORT ORDINAL="1026" NAME="?normalizeSecondAndAppend@FilteredNormalizer2@icu_44@@ABEAAVUnicodeString@2@AAV32@ABV32@CAAW4UErrorCode@@@Z" PURGE="16" COMMENT="" />
    <EXPORT ORDINAL="1027" NAME="?normalizeSecondAndAppend@FilteredNormalizer2@icu_44@@UBEAAVUnicodeString@2@AAV32@ABV32@AAW4UErrorCode@@@Z" PURGE="12" COMMENT="" />
    <EXPORT ORDINAL="1028" NAME="?notifyChanged@ICUNotifier@icu_44@@UAEXXZ" PURGE="0" COMMENT="" />
    <EXPORT ORDINAL="1029" NAME="?notifyListener@ICUService@icu_44@@MBEXAAVEventListener@2@@Z" PURGE="4" COMMENT="" />
    <EXPORT ORDINAL="1030" NAME="?npos@StringPiece@icu_44@@2HB" PURGE="-1" COMMENT="" />
    <EXPORT ORDINAL="1031" NAME="?openWords@CompactTrieDictionary@icu_44@@UBEPAVStringEnumeration@2@AAW4UErrorCode@@@Z" PURGE="4" COMMENT="" />
    <EXPORT ORDINAL="1032" NAME="?openWords@MutableTrieDictionary@icu_44@@UBEPAVStringEnumeration@2@AAW4UErrorCode@@@Z" PURGE="4" COMMENT="" />
    <EXPORT ORDINAL="1033" NAME="?orphanElementAt@UVector@icu_44@@QAEPAXH@Z" PURGE="4" COMMENT="" />
    <EXPORT ORDINAL="1034" NAME="?padLeading@UnicodeString@icu_44@@QAECH_W@Z" PURGE="8" COMMENT="" />
    <EXPORT ORDINAL="1035" NAME="?padTrailing@UnicodeString@icu_44@@QAECH_W@Z" PURGE="8" COMMENT="" />
    <EXPORT ORDINAL="1036" NAME="?parseChar@ICU_Utility@icu_44@@SACABVUnicodeString@2@AAH_W@Z" PURGE="0" COMMENT="" />
    <EXPORT ORDINAL="1037" NAME="?parseInteger@ICU_Utility@icu_44@@SAHABVUnicodeString@2@AAHH@Z" PURGE="0" COMMENT="" />
    <EXPORT ORDINAL="1038" NAME="?parseNumber@ICU_Utility@icu_44@@SAHABVUnicodeString@2@AAHC@Z" PURGE="0" COMMENT="" />
    <EXPORT ORDINAL="1039" NAME="?parsePattern@ICU_Utility@icu_44@@SAHABVUnicodeString@2@ABVReplaceable@2@HH@Z" PURGE="0" COMMENT="" />
    <EXPORT ORDINAL="1040" NAME="?parsePattern@ICU_Utility@icu_44@@SAHABVUnicodeString@2@HH0PAH@Z" PURGE="0" COMMENT="" />
    <EXPORT ORDINAL="1041" NAME="?parsePrefix@ICUServiceKey@icu_44@@SAAAVUnicodeString@2@AAV32@@Z" PURGE="0" COMMENT="" />
    <EXPORT ORDINAL="1042" NAME="?parseSuffix@ICUServiceKey@icu_44@@SAAAVUnicodeString@2@AAV32@@Z" PURGE="0" COMMENT="" />
    <EXPORT ORDINAL="1043" NAME="?parseUnicodeIdentifier@ICU_Utility@icu_44@@SA?AVUnicodeString@2@ABV32@AAH@Z" PURGE="0" COMMENT="" />
    <EXPORT ORDINAL="1044" NAME="?peek@UStack@icu_44@@QBEPAXXZ" PURGE="0" COMMENT="" />
    <EXPORT ORDINAL="1045" NAME="?peeki@UStack@icu_44@@QBEHXZ" PURGE="0" COMMENT="" />
    <EXPORT ORDINAL="1046" NAME="?peeki@UVector32@icu_44@@QBEHXZ" PURGE="0" COMMENT="" />
    <EXPORT ORDINAL="1047" NAME="?permute@CanonicalIterator@icu_44@@SAXAAVUnicodeString@2@CPAVHashtable@2@AAW4UErrorCode@@@Z" PURGE="0" COMMENT="" />
    <EXPORT ORDINAL="1048" NAME="?pinIndex@UnicodeString@icu_44@@ABEXAAH@Z" PURGE="4" COMMENT="" />
    <EXPORT ORDINAL="1049" NAME="?pinIndices@UnicodeString@icu_44@@ABEXAAH0@Z" PURGE="8" COMMENT="" />
    <EXPORT ORDINAL="1050" NAME="?pop@UStack@icu_44@@QAEPAXXZ" PURGE="0" COMMENT="" />
    <EXPORT ORDINAL="1051" NAME="?popFrame@UVector32@icu_44@@QAEPAHH@Z" PURGE="4" COMMENT="" />
    <EXPORT ORDINAL="1052" NAME="?popFrame@UVector64@icu_44@@QAEPA_JH@Z" PURGE="4" COMMENT="" />
    <EXPORT ORDINAL="1053" NAME="?popi@UStack@icu_44@@QAEHXZ" PURGE="0" COMMENT="" />
    <EXPORT ORDINAL="1054" NAME="?popi@UVector32@icu_44@@QAEHXZ" PURGE="0" COMMENT="" />
    <EXPORT ORDINAL="1055" NAME="?popi@UVector64@icu_44@@QAE_JXZ" PURGE="0" COMMENT="" />
    <EXPORT ORDINAL="1056" NAME="?preceding@RuleBasedBreakIterator@icu_44@@UAEHH@Z" PURGE="4" COMMENT="" />
    <EXPORT ORDINAL="1057" NAME="?prefix@ICUServiceKey@icu_44@@UBEAAVUnicodeString@2@AAV32@@Z" PURGE="4" COMMENT="" />
    <EXPORT ORDINAL="1058" NAME="?prefix@LocaleKey@icu_44@@UBEAAVUnicodeString@2@AAV32@@Z" PURGE="4" COMMENT="" />
    <EXPORT ORDINAL="1059" NAME="?previous32@UCharCharacterIterator@icu_44@@UAEHXZ" PURGE="0" COMMENT="" />
    <EXPORT ORDINAL="1060" NAME="?previous@Normalizer@icu_44@@QAEHXZ" PURGE="0" COMMENT="" />
    <EXPORT ORDINAL="1061" NAME="?previous@RuleBasedBreakIterator@icu_44@@UAEHXZ" PURGE="0" COMMENT="" />
    <EXPORT ORDINAL="1062" NAME="?previous@UCharCharacterIterator@icu_44@@UAE_WXZ" PURGE="0" COMMENT="" />
    <EXPORT ORDINAL="1063" NAME="?previousNormalize@Normalizer@icu_44@@AAECXZ" PURGE="0" COMMENT="" />
    <EXPORT ORDINAL="1064" NAME="?push@UStack@icu_44@@QAEHHAAW4UErrorCode@@@Z" PURGE="8" COMMENT="" />
    <EXPORT ORDINAL="1065" NAME="?push@UStack@icu_44@@QAEPAXPAXAAW4UErrorCode@@@Z" PURGE="8" COMMENT="" />
    <EXPORT ORDINAL="1066" NAME="?push@UVector32@icu_44@@QAEHHAAW4UErrorCode@@@Z" PURGE="8" COMMENT="" />
    <EXPORT ORDINAL="1067" NAME="?push@UVector64@icu_44@@QAE_J_JAAW4UErrorCode@@@Z" PURGE="12" COMMENT="" />
    <EXPORT ORDINAL="1068" NAME="?put@Hashtable@icu_44@@QAEPAXABVUnicodeString@2@PAXAAW4UErrorCode@@@Z" PURGE="12" COMMENT="" />
    <EXPORT ORDINAL="1069" NAME="?puti@Hashtable@icu_44@@QAEHABVUnicodeString@2@HAAW4UErrorCode@@@Z" PURGE="12" COMMENT="" />
    <EXPORT ORDINAL="1070" NAME="?quickCheck@FilteredNormalizer2@icu_44@@UBE?AW4UNormalizationCheckResult@@ABVUnicodeString@2@AAW4UErrorCode@@@Z" PURGE="8" COMMENT="" />
    <EXPORT ORDINAL="1071" NAME="?quickCheck@Normalizer@icu_44@@SA?AW4UNormalizationCheckResult@@ABVUnicodeString@2@W4UNormalizationMode@@AAW4UErrorCode@@@Z" PURGE="0" COMMENT="" />
    <EXPORT ORDINAL="1072" NAME="?quickCheck@Normalizer@icu_44@@SA?AW4UNormalizationCheckResult@@ABVUnicodeString@2@W4UNormalizationMode@@HAAW4UErrorCode@@@Z" PURGE="0" COMMENT="" />
    <EXPORT ORDINAL="1073" NAME="?reInitializeFactories@ICUService@icu_44@@MAEXXZ" PURGE="0" COMMENT="" />
    <EXPORT ORDINAL="1074" NAME="?recompose@Normalizer2Impl@icu_44@@ABEXAAVReorderingBuffer@2@HC@Z" PURGE="12" COMMENT="" />
    <EXPORT ORDINAL="1075" NAME="?refCount@UnicodeString@icu_44@@ABEHXZ" PURGE="0" COMMENT="" />
    <EXPORT ORDINAL="1076" NAME="?registerFactory@ICUService@icu_44@@UAEPBXPAVICUServiceFactory@2@AAW4UErrorCode@@@Z" PURGE="8" COMMENT="" />
    <EXPORT ORDINAL="1077" NAME="?registerInstance@BreakIterator@icu_44@@SAPBXPAV12@ABVLocale@2@W4UBreakIteratorType@@AAW4UErrorCode@@@Z" PURGE="0" COMMENT="" />
    <EXPORT ORDINAL="1078" NAME="?registerInstance@ICULocaleService@icu_44@@UAEPBXPAVUObject@2@ABVLocale@2@AAW4UErrorCode@@@Z" PURGE="12" COMMENT="" />
    <EXPORT ORDINAL="1079" NAME="?registerInstance@ICULocaleService@icu_44@@UAEPBXPAVUObject@2@ABVLocale@2@HAAW4UErrorCode@@@Z" PURGE="16" COMMENT="" />
    <EXPORT ORDINAL="1080" NAME="?registerInstance@ICULocaleService@icu_44@@UAEPBXPAVUObject@2@ABVLocale@2@HHAAW4UErrorCode@@@Z" PURGE="20" COMMENT="" />
    <EXPORT ORDINAL="1081" NAME="?registerInstance@ICULocaleService@icu_44@@UAEPBXPAVUObject@2@ABVUnicodeString@2@CAAW4UErrorCode@@@Z" PURGE="16" COMMENT="" />
    <EXPORT ORDINAL="1082" NAME="?registerInstance@ICUService@icu_44@@QAEPBXPAVUObject@2@ABVUnicodeString@2@AAW4UErrorCode@@@Z" PURGE="12" COMMENT="" />
    <EXPORT ORDINAL="1083" NAME="?registerInstance@ICUService@icu_44@@UAEPBXPAVUObject@2@ABVUnicodeString@2@CAAW4UErrorCode@@@Z" PURGE="16" COMMENT="" />
    <EXPORT ORDINAL="1084" NAME="?releaseArray@UnicodeString@icu_44@@AAEXXZ" PURGE="0" COMMENT="" />
    <EXPORT ORDINAL="1085" NAME="?releaseBuffer@UnicodeString@icu_44@@QAEXH@Z" PURGE="4" COMMENT="" />
    <EXPORT ORDINAL="1086" NAME="?releasePattern@UnicodeSet@icu_44@@AAEXXZ" PURGE="0" COMMENT="" />
    <EXPORT ORDINAL="1087" NAME="?remove@Hashtable@icu_44@@QAEPAXABVUnicodeString@2@@Z" PURGE="4" COMMENT="" />
    <EXPORT ORDINAL="1088" NAME="?remove@UnicodeSet@icu_44@@QAEAAV12@ABVUnicodeString@2@@Z" PURGE="4" COMMENT="" />
    <EXPORT ORDINAL="1089" NAME="?remove@UnicodeSet@icu_44@@QAEAAV12@H@Z" PURGE="4" COMMENT="" />
    <EXPORT ORDINAL="1090" NAME="?remove@UnicodeSet@icu_44@@UAEAAV12@HH@Z" PURGE="8" COMMENT="" />
    <EXPORT ORDINAL="1091" NAME="?remove@UnicodeString@icu_44@@QAEAAV12@HH@Z" PURGE="8" COMMENT="" />
    <EXPORT ORDINAL="1092" NAME="?remove@UnicodeString@icu_44@@QAEAAV12@XZ" PURGE="0" COMMENT="" />
    <EXPORT ORDINAL="1093" NAME="?removeAll@Hashtable@icu_44@@QAEXXZ" PURGE="0" COMMENT="" />
    <EXPORT ORDINAL="1094" NAME="?removeAll@UVector32@icu_44@@QAECABV12@@Z" PURGE="4" COMMENT="" />
    <EXPORT ORDINAL="1095" NAME="?removeAll@UVector@icu_44@@QAECABV12@@Z" PURGE="4" COMMENT="" />
    <EXPORT ORDINAL="1096" NAME="?removeAll@UnicodeSet@icu_44@@QAEAAV12@ABVUnicodeString@2@@Z" PURGE="4" COMMENT="" />
    <EXPORT ORDINAL="1097" NAME="?removeAll@UnicodeSet@icu_44@@UAEAAV12@ABV12@@Z" PURGE="4" COMMENT="" />
    <EXPORT ORDINAL="1098" NAME="?removeAllElements@UVector32@icu_44@@QAEXXZ" PURGE="0" COMMENT="" />
    <EXPORT ORDINAL="1099" NAME="?removeAllElements@UVector64@icu_44@@QAEXXZ" PURGE="0" COMMENT="" />
    <EXPORT ORDINAL="1100" NAME="?removeAllElements@UVector@icu_44@@QAEXXZ" PURGE="0" COMMENT="" />
    <EXPORT ORDINAL="1101" NAME="?removeAllStrings@UnicodeSet@icu_44@@UAEAAV12@XZ" PURGE="0" COMMENT="" />
    <EXPORT ORDINAL="1102" NAME="?removeBetween@UnicodeString@icu_44@@QAEAAV12@HH@Z" PURGE="8" COMMENT="" />
    <EXPORT ORDINAL="1103" NAME="?removeElement@UVector@icu_44@@QAECPAX@Z" PURGE="4" COMMENT="" />
    <EXPORT ORDINAL="1104" NAME="?removeElementAt@UVector32@icu_44@@QAEXH@Z" PURGE="4" COMMENT="" />
    <EXPORT ORDINAL="1105" NAME="?removeElementAt@UVector@icu_44@@QAEXH@Z" PURGE="4" COMMENT="" />
    <EXPORT ORDINAL="1106" NAME="?removeListener@ICUNotifier@icu_44@@UAEXPBVEventListener@2@AAW4UErrorCode@@@Z" PURGE="8" COMMENT="" />
    <EXPORT ORDINAL="1107" NAME="?removeRef@UnicodeString@icu_44@@AAEHXZ" PURGE="0" COMMENT="" />
    <EXPORT ORDINAL="1108" NAME="?remove_prefix@StringPiece@icu_44@@QAEXH@Z" PURGE="4" COMMENT="" />
    <EXPORT ORDINAL="1109" NAME="?remove_suffix@StringPiece@icu_44@@QAEXH@Z" PURGE="4" COMMENT="" />
    <EXPORT ORDINAL="1110" NAME="?removei@Hashtable@icu_44@@QAEHABVUnicodeString@2@@Z" PURGE="4" COMMENT="" />
    <EXPORT ORDINAL="1111" NAME="?replace@UnicodeString@icu_44@@QAEAAV12@HHABV12@@Z" PURGE="12" COMMENT="" />
    <EXPORT ORDINAL="1112" NAME="?replace@UnicodeString@icu_44@@QAEAAV12@HHABV12@HH@Z" PURGE="20" COMMENT="" />
    <EXPORT ORDINAL="1113" NAME="?replace@UnicodeString@icu_44@@QAEAAV12@HHH@Z" PURGE="12" COMMENT="" />
    <EXPORT ORDINAL="1114" NAME="?replace@UnicodeString@icu_44@@QAEAAV12@HHPB_WH@Z" PURGE="16" COMMENT="" />
    <EXPORT ORDINAL="1115" NAME="?replace@UnicodeString@icu_44@@QAEAAV12@HHPB_WHH@Z" PURGE="20" COMMENT="" />
    <EXPORT ORDINAL="1116" NAME="?replace@UnicodeString@icu_44@@QAEAAV12@HH_W@Z" PURGE="12" COMMENT="" />
    <EXPORT ORDINAL="1117" NAME="?replaceBetween@UnicodeString@icu_44@@QAEAAV12@HHABV12@@Z" PURGE="12" COMMENT="" />
    <EXPORT ORDINAL="1118" NAME="?replaceBetween@UnicodeString@icu_44@@QAEAAV12@HHABV12@HH@Z" PURGE="20" COMMENT="" />
    <EXPORT ORDINAL="1119" NAME="?resemblesPattern@UnicodeSet@icu_44@@SACABVUnicodeString@2@H@Z" PURGE="0" COMMENT="" />
    <EXPORT ORDINAL="1120" NAME="?resemblesPropertyPattern@UnicodeSet@icu_44@@CACAAVRuleCharacterIterator@2@H@Z" PURGE="0" COMMENT="" />
    <EXPORT ORDINAL="1121" NAME="?resemblesPropertyPattern@UnicodeSet@icu_44@@CACABVUnicodeString@2@H@Z" PURGE="0" COMMENT="" />
    <EXPORT ORDINAL="1122" NAME="?reserveBlock@UVector32@icu_44@@QAEPAHHAAW4UErrorCode@@@Z" PURGE="8" COMMENT="" />
    <EXPORT ORDINAL="1123" NAME="?reserveBlock@UVector64@icu_44@@QAEPA_JHAAW4UErrorCode@@@Z" PURGE="8" COMMENT="" />
    <EXPORT ORDINAL="1124" NAME="?reset@CanonicalIterator@icu_44@@QAEXXZ" PURGE="0" COMMENT="" />
    <EXPORT ORDINAL="1125" NAME="?reset@ErrorCode@icu_44@@QAE?AW4UErrorCode@@XZ" PURGE="0" COMMENT="" />
    <EXPORT ORDINAL="1126" NAME="?reset@ICUService@icu_44@@UAEXXZ" PURGE="0" COMMENT="" />
    <EXPORT ORDINAL="1127" NAME="?reset@Normalizer@icu_44@@QAEXXZ" PURGE="0" COMMENT="" />
    <EXPORT ORDINAL="1128" NAME="?reset@RuleBasedBreakIterator@icu_44@@MAEXXZ" PURGE="0" COMMENT="" />
    <EXPORT ORDINAL="1129" NAME="?reset@UStringEnumeration@icu_44@@UAEXAAW4UErrorCode@@@Z" PURGE="4" COMMENT="" />
    <EXPORT ORDINAL="1130" NAME="?reset@UnicodeSetIterator@icu_44@@QAEXABVUnicodeSet@2@@Z" PURGE="4" COMMENT="" />
    <EXPORT ORDINAL="1131" NAME="?reset@UnicodeSetIterator@icu_44@@QAEXXZ" PURGE="0" COMMENT="" />
    <EXPORT ORDINAL="1132" NAME="?resetIterator@ResourceBundle@icu_44@@QAEXXZ" PURGE="0" COMMENT="" />
    <EXPORT ORDINAL="1133" NAME="?retain@UnicodeSet@icu_44@@AAEXPBHHC@Z" PURGE="12" COMMENT="" />
    <EXPORT ORDINAL="1134" NAME="?retain@UnicodeSet@icu_44@@QAEAAV12@H@Z" PURGE="4" COMMENT="" />
    <EXPORT ORDINAL="1135" NAME="?retain@UnicodeSet@icu_44@@UAEAAV12@HH@Z" PURGE="8" COMMENT="" />
    <EXPORT ORDINAL="1136" NAME="?retainAll@UVector32@icu_44@@QAECABV12@@Z" PURGE="4" COMMENT="" />
    <EXPORT ORDINAL="1137" NAME="?retainAll@UVector@icu_44@@QAECABV12@@Z" PURGE="4" COMMENT="" />
    <EXPORT ORDINAL="1138" NAME="?retainAll@UnicodeSet@icu_44@@QAEAAV12@ABVUnicodeString@2@@Z" PURGE="4" COMMENT="" />
    <EXPORT ORDINAL="1139" NAME="?retainAll@UnicodeSet@icu_44@@UAEAAV12@ABV12@@Z" PURGE="4" COMMENT="" />
    <EXPORT ORDINAL="1140" NAME="?retainBetween@UnicodeString@icu_44@@QAEAAV12@HH@Z" PURGE="8" COMMENT="" />
    <EXPORT ORDINAL="1141" NAME="?reverse@UnicodeString@icu_44@@QAEAAV12@HH@Z" PURGE="8" COMMENT="" />
    <EXPORT ORDINAL="1142" NAME="?reverse@UnicodeString@icu_44@@QAEAAV12@XZ" PURGE="0" COMMENT="" />
    <EXPORT ORDINAL="1143" NAME="?search@MutableTrieDictionary@icu_44@@MBEHPAUUText@@HPAHAAHHAAPAUTernaryNode@2@AAC@Z" PURGE="28" COMMENT="" />
    <EXPORT ORDINAL="1144" NAME="?search@UStack@icu_44@@QBEHPAX@Z" PURGE="4" COMMENT="" />
    <EXPORT ORDINAL="1145" NAME="?serialize@UnicodeSet@icu_44@@QBEHPAGHAAW4UErrorCode@@@Z" PURGE="12" COMMENT="" />
    <EXPORT ORDINAL="1146" NAME="?set@ErrorCode@icu_44@@QAEXW4UErrorCode@@@Z" PURGE="4" COMMENT="" />
    <EXPORT ORDINAL="1147" NAME="?set@StringPiece@icu_44@@QAEXPBD@Z" PURGE="4" COMMENT="" />
    <EXPORT ORDINAL="1148" NAME="?set@StringPiece@icu_44@@QAEXPBDH@Z" PURGE="8" COMMENT="" />
    <EXPORT ORDINAL="1149" NAME="?set@UnicodeSet@icu_44@@QAEAAV12@HH@Z" PURGE="8" COMMENT="" />
    <EXPORT ORDINAL="1150" NAME="?setArray@UnicodeString@icu_44@@AAEXPA_WHH@Z" PURGE="12" COMMENT="" />
    <EXPORT ORDINAL="1151" NAME="?setBreakType@RuleBasedBreakIterator@icu_44@@MAEXH@Z" PURGE="4" COMMENT="" />
    <EXPORT ORDINAL="1152" NAME="?setCharAt@UnicodeString@icu_44@@QAEAAV12@H_W@Z" PURGE="8" COMMENT="" />
    <EXPORT ORDINAL="1153" NAME="?setChars@StringEnumeration@icu_44@@IAEPAVUnicodeString@2@PBDHAAW4UErrorCode@@@Z" PURGE="12" COMMENT="" />
    <EXPORT ORDINAL="1154" NAME="?setComparer@UVector@icu_44@@QAEP6ACTUHashTok@@0@ZP6AC00@Z@Z" PURGE="4" COMMENT="" />
    <EXPORT ORDINAL="1155" NAME="?setData@UnicodeFilter@icu_44@@UAEXPBVTransliterationRuleData@2@@Z" PURGE="4" COMMENT="" />
    <EXPORT ORDINAL="1156" NAME="?setDefault@Locale@icu_44@@SAXABV12@AAW4UErrorCode@@@Z" PURGE="0" COMMENT="" />
    <EXPORT ORDINAL="1157" NAME="?setDeleter@UVector@icu_44@@QAEP6AXPAX@ZP6AX0@Z@Z" PURGE="4" COMMENT="" />
    <EXPORT ORDINAL="1158" NAME="?setElementAt@UVector32@icu_44@@QAEXHH@Z" PURGE="8" COMMENT="" />
    <EXPORT ORDINAL="1159" NAME="?setElementAt@UVector64@icu_44@@QAEX_JH@Z" PURGE="12" COMMENT="" />
    <EXPORT ORDINAL="1160" NAME="?setElementAt@UVector@icu_44@@QAEXHH@Z" PURGE="8" COMMENT="" />
    <EXPORT ORDINAL="1161" NAME="?setElementAt@UVector@icu_44@@QAEXPAXH@Z" PURGE="8" COMMENT="" />
    <EXPORT ORDINAL="1162" NAME="?setErrorIndex@ParsePosition@icu_44@@QAEXH@Z" PURGE="4" COMMENT="" />
    <EXPORT ORDINAL="1163" NAME="?setFCD16FromNorm16@Normalizer2Impl@icu_44@@QBEXHHGPAUUTrie2@@AAW4UErrorCode@@@Z" PURGE="20" COMMENT="" />
    <EXPORT ORDINAL="1164" NAME="?setFromPOSIXID@Locale@icu_44@@IAEXPBD@Z" PURGE="4" COMMENT="" />
    <EXPORT ORDINAL="1165" NAME="?setIndex32@UCharCharacterIterator@icu_44@@UAEHH@Z" PURGE="4" COMMENT="" />
    <EXPORT ORDINAL="1166" NAME="?setIndex@ParsePosition@icu_44@@QAEXH@Z" PURGE="4" COMMENT="" />
    <EXPORT ORDINAL="1167" NAME="?setIndex@UCharCharacterIterator@icu_44@@UAE_WH@Z" PURGE="4" COMMENT="" />
    <EXPORT ORDINAL="1168" NAME="?setIndexOnly@Normalizer@icu_44@@QAEXH@Z" PURGE="4" COMMENT="" />
    <EXPORT ORDINAL="1169" NAME="?setKeyComparator@Hashtable@icu_44@@QAEP6ACTUHashTok@@0@ZP6AC00@Z@Z" PURGE="4" COMMENT="" />
    <EXPORT ORDINAL="1170" NAME="?setKeywordValue@Locale@icu_44@@QAEXPBD0AAW4UErrorCode@@@Z" PURGE="12" COMMENT="" />
    <EXPORT ORDINAL="1171" NAME="?setLength@UnicodeString@icu_44@@AAEXH@Z" PURGE="4" COMMENT="" />
    <EXPORT ORDINAL="1172" NAME="?setLocaleIDs@LocaleBased@icu_44@@QAEXPBD0@Z" PURGE="8" COMMENT="" />
    <EXPORT ORDINAL="1173" NAME="?setMaxCapacity@UVector32@icu_44@@QAEXH@Z" PURGE="4" COMMENT="" />
    <EXPORT ORDINAL="1174" NAME="?setMaxCapacity@UVector64@icu_44@@QAEXH@Z" PURGE="4" COMMENT="" />
    <EXPORT ORDINAL="1175" NAME="?setMode@Normalizer@icu_44@@QAEXW4UNormalizationMode@@@Z" PURGE="4" COMMENT="" />
    <EXPORT ORDINAL="1176" NAME="?setOption@Normalizer@icu_44@@QAEXHC@Z" PURGE="8" COMMENT="" />
    <EXPORT ORDINAL="1177" NAME="?setPattern@UnicodeSet@icu_44@@AAEXABVUnicodeString@2@@Z" PURGE="4" COMMENT="" />
    <EXPORT ORDINAL="1178" NAME="?setSize@UVector32@icu_44@@QAEXH@Z" PURGE="4" COMMENT="" />
    <EXPORT ORDINAL="1179" NAME="?setSize@UVector64@icu_44@@QAEXH@Z" PURGE="4" COMMENT="" />
    <EXPORT ORDINAL="1180" NAME="?setSize@UVector@icu_44@@QAEXHAAW4UErrorCode@@@Z" PURGE="8" COMMENT="" />
    <EXPORT ORDINAL="1181" NAME="?setSource@CanonicalIterator@icu_44@@QAEXABVUnicodeString@2@AAW4UErrorCode@@@Z" PURGE="8" COMMENT="" />
    <EXPORT ORDINAL="1182" NAME="?setText@Normalizer@icu_44@@QAEXABVCharacterIterator@2@AAW4UErrorCode@@@Z" PURGE="8" COMMENT="" />
    <EXPORT ORDINAL="1183" NAME="?setText@Normalizer@icu_44@@QAEXABVUnicodeString@2@AAW4UErrorCode@@@Z" PURGE="8" COMMENT="" />
    <EXPORT ORDINAL="1184" NAME="?setText@Normalizer@icu_44@@QAEXPB_WHAAW4UErrorCode@@@Z" PURGE="12" COMMENT="" />
    <EXPORT ORDINAL="1185" NAME="?setText@RuleBasedBreakIterator@icu_44@@UAEXABVUnicodeString@2@@Z" PURGE="4" COMMENT="" />
    <EXPORT ORDINAL="1186" NAME="?setText@RuleBasedBreakIterator@icu_44@@UAEXPAUUText@@AAW4UErrorCode@@@Z" PURGE="8" COMMENT="" />
    <EXPORT ORDINAL="1187" NAME="?setText@StringCharacterIterator@icu_44@@QAEXABVUnicodeString@2@@Z" PURGE="4" COMMENT="" />
    <EXPORT ORDINAL="1188" NAME="?setText@UCharCharacterIterator@icu_44@@QAEXPB_WH@Z" PURGE="8" COMMENT="" />
    <EXPORT ORDINAL="1189" NAME="?setTo@UnicodeString@icu_44@@QAEAAV12@ABV12@@Z" PURGE="4" COMMENT="" />
    <EXPORT ORDINAL="1190" NAME="?setTo@UnicodeString@icu_44@@QAEAAV12@ABV12@H@Z" PURGE="8" COMMENT="" />
    <EXPORT ORDINAL="1191" NAME="?setTo@UnicodeString@icu_44@@QAEAAV12@ABV12@HH@Z" PURGE="12" COMMENT="" />
    <EXPORT ORDINAL="1192" NAME="?setTo@UnicodeString@icu_44@@QAEAAV12@CPB_WH@Z" PURGE="12" COMMENT="" />
    <EXPORT ORDINAL="1193" NAME="?setTo@UnicodeString@icu_44@@QAEAAV12@H@Z" PURGE="4" COMMENT="" />
    <EXPORT ORDINAL="1194" NAME="?setTo@UnicodeString@icu_44@@QAEAAV12@PA_WHH@Z" PURGE="12" COMMENT="" />
    <EXPORT ORDINAL="1195" NAME="?setTo@UnicodeString@icu_44@@QAEAAV12@PB_WH@Z" PURGE="8" COMMENT="" />
    <EXPORT ORDINAL="1196" NAME="?setTo@UnicodeString@icu_44@@QAEAAV12@_W@Z" PURGE="4" COMMENT="" />
    <EXPORT ORDINAL="1197" NAME="?setToBogus@Locale@icu_44@@QAEXXZ" PURGE="0" COMMENT="" />
    <EXPORT ORDINAL="1198" NAME="?setToBogus@UnicodeSet@icu_44@@QAEXXZ" PURGE="0" COMMENT="" />
    <EXPORT ORDINAL="1199" NAME="?setToBogus@UnicodeString@icu_44@@QAEXXZ" PURGE="0" COMMENT="" />
    <EXPORT ORDINAL="1200" NAME="?setToEmpty@UnicodeString@icu_44@@AAEXXZ" PURGE="0" COMMENT="" />
    <EXPORT ORDINAL="1201" NAME="?setToEnd@CharacterIterator@icu_44@@QAEHXZ" PURGE="0" COMMENT="" />
    <EXPORT ORDINAL="1202" NAME="?setToStart@CharacterIterator@icu_44@@QAEHXZ" PURGE="0" COMMENT="" />
    <EXPORT ORDINAL="1203" NAME="?setToUTF8@UnicodeString@icu_44@@AAEAAV12@ABVStringPiece@2@@Z" PURGE="4" COMMENT="" />
    <EXPORT ORDINAL="1204" NAME="?setValueComparator@Hashtable@icu_44@@QAEP6ACTUHashTok@@0@ZP6AC00@Z@Z" PURGE="4" COMMENT="" />
    <EXPORT ORDINAL="1205" NAME="?setValueDeleter@Hashtable@icu_44@@QAEP6AXPAX@ZP6AX0@Z@Z" PURGE="4" COMMENT="" />
    <EXPORT ORDINAL="1206" NAME="?size@StringPiece@icu_44@@QBEHXZ" PURGE="0" COMMENT="" />
    <EXPORT ORDINAL="1207" NAME="?size@UVector32@icu_44@@QBEHXZ" PURGE="0" COMMENT="" />
    <EXPORT ORDINAL="1208" NAME="?size@UVector64@icu_44@@QBEHXZ" PURGE="0" COMMENT="" />
    <EXPORT ORDINAL="1209" NAME="?size@UVector@icu_44@@QBEHXZ" PURGE="0" COMMENT="" />
    <EXPORT ORDINAL="1210" NAME="?size@UnicodeSet@icu_44@@UBEHXZ" PURGE="0" COMMENT="" />
    <EXPORT ORDINAL="1211" NAME="?skipWhitespace@ICU_Utility@icu_44@@SAHABVUnicodeString@2@AAHC@Z" PURGE="0" COMMENT="" />
    <EXPORT ORDINAL="1212" NAME="?snext@UStringEnumeration@icu_44@@UAEPBVUnicodeString@2@AAW4UErrorCode@@@Z" PURGE="4" COMMENT="" />
    <EXPORT ORDINAL="1213" NAME="?sort@UVector@icu_44@@QAEXP6ACTUHashTok@@0@ZAAW4UErrorCode@@@Z" PURGE="8" COMMENT="" />
    <EXPORT ORDINAL="1214" NAME="?sortedInsert@UVector32@icu_44@@QAEXHAAW4UErrorCode@@@Z" PURGE="8" COMMENT="" />
    <EXPORT ORDINAL="1215" NAME="?sortedInsert@UVector@icu_44@@AAEXTUHashTok@@P6AC00@ZAAW4UErrorCode@@@Z" PURGE="12" COMMENT="" />
    <EXPORT ORDINAL="1216" NAME="?sortedInsert@UVector@icu_44@@QAEXHP6ACTUHashTok@@0@ZAAW4UErrorCode@@@Z" PURGE="12" COMMENT="" />
    <EXPORT ORDINAL="1217" NAME="?sortedInsert@UVector@icu_44@@QAEXPAXP6ACTUHashTok@@1@ZAAW4UErrorCode@@@Z" PURGE="12" COMMENT="" />
    <EXPORT ORDINAL="1218" NAME="?sorti@UVector@icu_44@@QAEXAAW4UErrorCode@@@Z" PURGE="4" COMMENT="" />
    <EXPORT ORDINAL="1219" NAME="?span@UnicodeSet@icu_44@@QBEHABVUnicodeString@2@HW4USetSpanCondition@@@Z" PURGE="12" COMMENT="" />
    <EXPORT ORDINAL="1220" NAME="?span@UnicodeSet@icu_44@@QBEHPB_WHW4USetSpanCondition@@@Z" PURGE="12" COMMENT="" />
    <EXPORT ORDINAL="1221" NAME="?spanBack@UnicodeSet@icu_44@@QBEHABVUnicodeString@2@HW4USetSpanCondition@@@Z" PURGE="12" COMMENT="" />
    <EXPORT ORDINAL="1222" NAME="?spanBack@UnicodeSet@icu_44@@QBEHPB_WHW4USetSpanCondition@@@Z" PURGE="12" COMMENT="" />
    <EXPORT ORDINAL="1223" NAME="?spanBackUTF8@UnicodeSet@icu_44@@QBEHPBDHW4USetSpanCondition@@@Z" PURGE="12" COMMENT="" />
    <EXPORT ORDINAL="1224" NAME="?spanQuickCheckYes@FilteredNormalizer2@icu_44@@UBEHABVUnicodeString@2@AAW4UErrorCode@@@Z" PURGE="8" COMMENT="" />
    <EXPORT ORDINAL="1225" NAME="?spanUTF8@UnicodeSet@icu_44@@QBEHPBDHW4USetSpanCondition@@@Z" PURGE="12" COMMENT="" />
    <EXPORT ORDINAL="1226" NAME="?startIndex@CharacterIterator@icu_44@@QBEHXZ" PURGE="0" COMMENT="" />
    <EXPORT ORDINAL="1227" NAME="?startIndex@Normalizer@icu_44@@QBEHXZ" PURGE="0" COMMENT="" />
    <EXPORT ORDINAL="1228" NAME="?startsWith@UnicodeString@icu_44@@QBECABV12@@Z" PURGE="4" COMMENT="" />
    <EXPORT ORDINAL="1229" NAME="?startsWith@UnicodeString@icu_44@@QBECABV12@HH@Z" PURGE="12" COMMENT="" />
    <EXPORT ORDINAL="1230" NAME="?startsWith@UnicodeString@icu_44@@QBECPB_WH@Z" PURGE="8" COMMENT="" />
    <EXPORT ORDINAL="1231" NAME="?startsWith@UnicodeString@icu_44@@QBECPB_WHH@Z" PURGE="12" COMMENT="" />
    <EXPORT ORDINAL="1232" NAME="?substr@StringPiece@icu_44@@QBE?AV12@HH@Z" PURGE="12" COMMENT="" />
    <EXPORT ORDINAL="1233" NAME="?swapBuffers@UnicodeSet@icu_44@@AAEXXZ" PURGE="0" COMMENT="" />
    <EXPORT ORDINAL="1234" NAME="?tempSubString@UnicodeString@icu_44@@QBE?AV12@HH@Z" PURGE="12" COMMENT="" />
    <EXPORT ORDINAL="1235" NAME="?tempSubStringBetween@UnicodeString@icu_44@@QBE?AV12@HH@Z" PURGE="12" COMMENT="" />
    <EXPORT ORDINAL="1236" NAME="?toArray@UVector@icu_44@@QBEPAPAXPAPAX@Z" PURGE="4" COMMENT="" />
    <EXPORT ORDINAL="1237" NAME="?toLower@UnicodeString@icu_44@@QAEAAV12@ABVLocale@2@@Z" PURGE="4" COMMENT="" />
    <EXPORT ORDINAL="1238" NAME="?toLower@UnicodeString@icu_44@@QAEAAV12@XZ" PURGE="0" COMMENT="" />
    <EXPORT ORDINAL="1239" NAME="?toMatcher@UnicodeFilter@icu_44@@UBEPAVUnicodeMatcher@2@XZ" PURGE="0" COMMENT="" />
    <EXPORT ORDINAL="1240" NAME="?toMatcher@UnicodeFunctor@icu_44@@UBEPAVUnicodeMatcher@2@XZ" PURGE="0" COMMENT="" />
    <EXPORT ORDINAL="1241" NAME="?toPattern@UnicodeSet@icu_44@@UBEAAVUnicodeString@2@AAV32@C@Z" PURGE="8" COMMENT="" />
    <EXPORT ORDINAL="1242" NAME="?toReplacer@UnicodeFunctor@icu_44@@UBEPAVUnicodeReplacer@2@XZ" PURGE="0" COMMENT="" />
    <EXPORT ORDINAL="1243" NAME="?toTitle@UnicodeString@icu_44@@QAEAAV12@PAVBreakIterator@2@@Z" PURGE="4" COMMENT="" />
    <EXPORT ORDINAL="1244" NAME="?toTitle@UnicodeString@icu_44@@QAEAAV12@PAVBreakIterator@2@ABVLocale@2@@Z" PURGE="8" COMMENT="" />
    <EXPORT ORDINAL="1245" NAME="?toTitle@UnicodeString@icu_44@@QAEAAV12@PAVBreakIterator@2@ABVLocale@2@I@Z" PURGE="12" COMMENT="" />
    <EXPORT ORDINAL="1246" NAME="?toUSet@UnicodeSet@icu_44@@QAEPAUUSet@@XZ" PURGE="0" COMMENT="" />
    <EXPORT ORDINAL="1247" NAME="?toUSet@UnicodeSet@icu_44@@QBEPBUUSet@@XZ" PURGE="0" COMMENT="" />
    <EXPORT ORDINAL="1248" NAME="?toUTF32@UnicodeString@icu_44@@QBEHPAHHAAW4UErrorCode@@@Z" PURGE="12" COMMENT="" />
    <EXPORT ORDINAL="1249" NAME="?toUTF8@UnicodeString@icu_44@@ABEHHHPADH@Z" PURGE="16" COMMENT="" />
    <EXPORT ORDINAL="1250" NAME="?toUTF8@UnicodeString@icu_44@@QBEXAAVByteSink@2@@Z" PURGE="4" COMMENT="" />
    <EXPORT ORDINAL="1251" NAME="?toUpper@UnicodeString@icu_44@@QAEAAV12@ABVLocale@2@@Z" PURGE="4" COMMENT="" />
    <EXPORT ORDINAL="1252" NAME="?toUpper@UnicodeString@icu_44@@QAEAAV12@XZ" PURGE="0" COMMENT="" />
    <EXPORT ORDINAL="1253" NAME="?trim@UnicodeString@icu_44@@QAEAAV12@XZ" PURGE="0" COMMENT="" />
    <EXPORT ORDINAL="1254" NAME="?truncate@UnicodeString@icu_44@@QAECH@Z" PURGE="4" COMMENT="" />
    <EXPORT ORDINAL="1255" NAME="?unBogus@UnicodeString@icu_44@@AAEXXZ" PURGE="0" COMMENT="" />
    <EXPORT ORDINAL="1256" NAME="?unescape@UnicodeString@icu_44@@QBE?AV12@XZ" PURGE="4" COMMENT="" />
    <EXPORT ORDINAL="1257" NAME="?unescapeAt@UnicodeString@icu_44@@QBEHAAH@Z" PURGE="4" COMMENT="" />
    <EXPORT ORDINAL="1258" NAME="?unext@StringEnumeration@icu_44@@UAEPB_WPAHAAW4UErrorCode@@@Z" PURGE="8" COMMENT="" />
    <EXPORT ORDINAL="1259" NAME="?unregister@BreakIterator@icu_44@@SACPBXAAW4UErrorCode@@@Z" PURGE="0" COMMENT="" />
    <EXPORT ORDINAL="1260" NAME="?unregister@ICUService@icu_44@@UAECPBXAAW4UErrorCode@@@Z" PURGE="8" COMMENT="" />
    <EXPORT ORDINAL="1261" NAME="?updateVisibleIDs@LocaleKeyFactory@icu_44@@UBEXAAVHashtable@2@AAW4UErrorCode@@@Z" PURGE="8" COMMENT="" />
    <EXPORT ORDINAL="1262" NAME="?updateVisibleIDs@SimpleFactory@icu_44@@UBEXAAVHashtable@2@AAW4UErrorCode@@@Z" PURGE="8" COMMENT="" />
    <EXPORT ORDINAL="1263" NAME="?updateVisibleIDs@SimpleLocaleKeyFactory@icu_44@@UBEXAAVHashtable@2@AAW4UErrorCode@@@Z" PURGE="8" COMMENT="" />
    <EXPORT ORDINAL="1264" NAME="?validateFallbackLocale@ICULocaleService@icu_44@@IBEABVUnicodeString@2@XZ" PURGE="0" COMMENT="" />
    <EXPORT ORDINAL="1265" NAME="T_CString_int64ToString_44" PURGE="0" COMMENT="" />
    <EXPORT ORDINAL="1266" NAME="T_CString_integerToString_44" PURGE="0" COMMENT="" />
    <EXPORT ORDINAL="1267" NAME="T_CString_stricmp_44" PURGE="0" COMMENT="" />
    <EXPORT ORDINAL="1268" NAME="T_CString_stringToInteger_44" PURGE="0" COMMENT="" />
    <EXPORT ORDINAL="1269" NAME="T_CString_strnicmp_44" PURGE="0" COMMENT="" />
    <EXPORT ORDINAL="1270" NAME="T_CString_toLowerCase_44" PURGE="0" COMMENT="" />
    <EXPORT ORDINAL="1271" NAME="T_CString_toUpperCase_44" PURGE="0" COMMENT="" />
    <EXPORT ORDINAL="1272" NAME="UCNV_FROM_U_CALLBACK_ESCAPE_44" PURGE="0" COMMENT="" />
    <EXPORT ORDINAL="1273" NAME="UCNV_FROM_U_CALLBACK_SKIP_44" PURGE="0" COMMENT="" />
    <EXPORT ORDINAL="1274" NAME="UCNV_FROM_U_CALLBACK_STOP_44" PURGE="0" COMMENT="" />
    <EXPORT ORDINAL="1275" NAME="UCNV_FROM_U_CALLBACK_SUBSTITUTE_44" PURGE="0" COMMENT="" />
    <EXPORT ORDINAL="1276" NAME="UCNV_TO_U_CALLBACK_ESCAPE_44" PURGE="0" COMMENT="" />
    <EXPORT ORDINAL="1277" NAME="UCNV_TO_U_CALLBACK_SKIP_44" PURGE="0" COMMENT="" />
    <EXPORT ORDINAL="1278" NAME="UCNV_TO_U_CALLBACK_STOP_44" PURGE="0" COMMENT="" />
    <EXPORT ORDINAL="1279" NAME="UCNV_TO_U_CALLBACK_SUBSTITUTE_44" PURGE="0" COMMENT="" />
    <EXPORT ORDINAL="1280" NAME="res_countArrayItems_44" PURGE="0" COMMENT="" />
    <EXPORT ORDINAL="1281" NAME="res_getAlias_44" PURGE="0" COMMENT="" />
    <EXPORT ORDINAL="1282" NAME="res_getArrayItem_44" PURGE="0" COMMENT="" />
    <EXPORT ORDINAL="1283" NAME="res_getBinary_44" PURGE="0" COMMENT="" />
    <EXPORT ORDINAL="1284" NAME="res_getIntVector_44" PURGE="0" COMMENT="" />
    <EXPORT ORDINAL="1285" NAME="res_getPublicType_44" PURGE="0" COMMENT="" />
    <EXPORT ORDINAL="1286" NAME="res_getResource_44" PURGE="0" COMMENT="" />
    <EXPORT ORDINAL="1287" NAME="res_getString_44" PURGE="0" COMMENT="" />
    <EXPORT ORDINAL="1288" NAME="res_getTableItemByIndex_44" PURGE="0" COMMENT="" />
    <EXPORT ORDINAL="1289" NAME="res_getTableItemByKey_44" PURGE="0" COMMENT="" />
    <EXPORT ORDINAL="1290" NAME="res_read_44" PURGE="0" COMMENT="" />
    <EXPORT ORDINAL="1291" NAME="triedict_swap_44" PURGE="0" COMMENT="" />
    <EXPORT ORDINAL="1292" NAME="u_UCharsToChars_44" PURGE="0" COMMENT="" />
    <EXPORT ORDINAL="1293" NAME="u_austrcpy_44" PURGE="0" COMMENT="" />
    <EXPORT ORDINAL="1294" NAME="u_austrncpy_44" PURGE="0" COMMENT="" />
    <EXPORT ORDINAL="1295" NAME="u_catclose_44" PURGE="0" COMMENT="" />
    <EXPORT ORDINAL="1296" NAME="u_catgets_44" PURGE="0" COMMENT="" />
    <EXPORT ORDINAL="1297" NAME="u_catopen_44" PURGE="0" COMMENT="" />
    <EXPORT ORDINAL="1298" NAME="u_charAge_44" PURGE="0" COMMENT="" />
    <EXPORT ORDINAL="1299" NAME="u_charDigitValue_44" PURGE="0" COMMENT="" />
    <EXPORT ORDINAL="1300" NAME="u_charDirection_44" PURGE="0" COMMENT="" />
    <EXPORT ORDINAL="1301" NAME="u_charFromName_44" PURGE="0" COMMENT="" />
    <EXPORT ORDINAL="1302" NAME="u_charMirror_44" PURGE="0" COMMENT="" />
    <EXPORT ORDINAL="1303" NAME="u_charName_44" PURGE="0" COMMENT="" />
    <EXPORT ORDINAL="1304" NAME="u_charType_44" PURGE="0" COMMENT="" />
    <EXPORT ORDINAL="1305" NAME="u_charsToUChars_44" PURGE="0" COMMENT="" />
    <EXPORT ORDINAL="1306" NAME="u_cleanup_44" PURGE="0" COMMENT="" />
    <EXPORT ORDINAL="1307" NAME="u_countChar32_44" PURGE="0" COMMENT="" />
    <EXPORT ORDINAL="1308" NAME="u_digit_44" PURGE="0" COMMENT="" />
    <EXPORT ORDINAL="1309" NAME="u_enumCharNames_44" PURGE="0" COMMENT="" />
    <EXPORT ORDINAL="1310" NAME="u_enumCharTypes_44" PURGE="0" COMMENT="" />
    <EXPORT ORDINAL="1311" NAME="u_errorName_44" PURGE="0" COMMENT="" />
    <EXPORT ORDINAL="1312" NAME="u_foldCase_44" PURGE="0" COMMENT="" />
    <EXPORT ORDINAL="1313" NAME="u_forDigit_44" PURGE="0" COMMENT="" />
    <EXPORT ORDINAL="1314" NAME="u_getCombiningClass_44" PURGE="0" COMMENT="" />
    <EXPORT ORDINAL="1315" NAME="u_getDataDirectory_44" PURGE="0" COMMENT="" />
    <EXPORT ORDINAL="1316" NAME="u_getDataVersion_44" PURGE="0" COMMENT="" />
    <EXPORT ORDINAL="1317" NAME="u_getDefaultConverter_44" PURGE="0" COMMENT="" />
    <EXPORT ORDINAL="1318" NAME="u_getFC_NFKC_Closure_44" PURGE="0" COMMENT="" />
    <EXPORT ORDINAL="1319" NAME="u_getISOComment_44" PURGE="0" COMMENT="" />
    <EXPORT ORDINAL="1320" NAME="u_getIntPropertyMaxValue_44" PURGE="0" COMMENT="" />
    <EXPORT ORDINAL="1321" NAME="u_getIntPropertyMinValue_44" PURGE="0" COMMENT="" />
    <EXPORT ORDINAL="1322" NAME="u_getIntPropertyValue_44" PURGE="0" COMMENT="" />
    <EXPORT ORDINAL="1323" NAME="u_getNumericValue_44" PURGE="0" COMMENT="" />
    <EXPORT ORDINAL="1324" NAME="u_getPropertyEnum_44" PURGE="0" COMMENT="" />
    <EXPORT ORDINAL="1325" NAME="u_getPropertyName_44" PURGE="0" COMMENT="" />
    <EXPORT ORDINAL="1326" NAME="u_getPropertyValueEnum_44" PURGE="0" COMMENT="" />
    <EXPORT ORDINAL="1327" NAME="u_getPropertyValueName_44" PURGE="0" COMMENT="" />
    <EXPORT ORDINAL="1328" NAME="u_getUnicodeVersion_44" PURGE="0" COMMENT="" />
    <EXPORT ORDINAL="1329" NAME="u_getVersion_44" PURGE="0" COMMENT="" />
    <EXPORT ORDINAL="1330" NAME="u_hasBinaryProperty_44" PURGE="0" COMMENT="" />
    <EXPORT ORDINAL="1331" NAME="u_init_44" PURGE="0" COMMENT="" />
    <EXPORT ORDINAL="1332" NAME="u_isDataOlder_44" PURGE="0" COMMENT="" />
    <EXPORT ORDINAL="1333" NAME="u_isIDIgnorable_44" PURGE="0" COMMENT="" />
    <EXPORT ORDINAL="1334" NAME="u_isIDPart_44" PURGE="0" COMMENT="" />
    <EXPORT ORDINAL="1335" NAME="u_isIDStart_44" PURGE="0" COMMENT="" />
    <EXPORT ORDINAL="1336" NAME="u_isISOControl_44" PURGE="0" COMMENT="" />
    <EXPORT ORDINAL="1337" NAME="u_isJavaIDPart_44" PURGE="0" COMMENT="" />
    <EXPORT ORDINAL="1338" NAME="u_isJavaIDStart_44" PURGE="0" COMMENT="" />
    <EXPORT ORDINAL="1339" NAME="u_isJavaSpaceChar_44" PURGE="0" COMMENT="" />
    <EXPORT ORDINAL="1340" NAME="u_isMirrored_44" PURGE="0" COMMENT="" />
    <EXPORT ORDINAL="1341" NAME="u_isUAlphabetic_44" PURGE="0" COMMENT="" />
    <EXPORT ORDINAL="1342" NAME="u_isULowercase_44" PURGE="0" COMMENT="" />
    <EXPORT ORDINAL="1343" NAME="u_isUUppercase_44" PURGE="0" COMMENT="" />
    <EXPORT ORDINAL="1344" NAME="u_isUWhiteSpace_44" PURGE="0" COMMENT="" />
    <EXPORT ORDINAL="1345" NAME="u_isWhitespace_44" PURGE="0" COMMENT="" />
    <EXPORT ORDINAL="1346" NAME="u_isalnum_44" PURGE="0" COMMENT="" />
    <EXPORT ORDINAL="1347" NAME="u_isalpha_44" PURGE="0" COMMENT="" />
    <EXPORT ORDINAL="1348" NAME="u_isbase_44" PURGE="0" COMMENT="" />
    <EXPORT ORDINAL="1349" NAME="u_isblank_44" PURGE="0" COMMENT="" />
    <EXPORT ORDINAL="1350" NAME="u_iscntrl_44" PURGE="0" COMMENT="" />
    <EXPORT ORDINAL="1351" NAME="u_isdefined_44" PURGE="0" COMMENT="" />
    <EXPORT ORDINAL="1352" NAME="u_isdigit_44" PURGE="0" COMMENT="" />
    <EXPORT ORDINAL="1353" NAME="u_isgraph_44" PURGE="0" COMMENT="" />
    <EXPORT ORDINAL="1354" NAME="u_islower_44" PURGE="0" COMMENT="" />
    <EXPORT ORDINAL="1355" NAME="u_isprint_44" PURGE="0" COMMENT="" />
    <EXPORT ORDINAL="1356" NAME="u_ispunct_44" PURGE="0" COMMENT="" />
    <EXPORT ORDINAL="1357" NAME="u_isspace_44" PURGE="0" COMMENT="" />
    <EXPORT ORDINAL="1358" NAME="u_istitle_44" PURGE="0" COMMENT="" />
    <EXPORT ORDINAL="1359" NAME="u_isupper_44" PURGE="0" COMMENT="" />
    <EXPORT ORDINAL="1360" NAME="u_isxdigit_44" PURGE="0" COMMENT="" />
    <EXPORT ORDINAL="1361" NAME="u_memcasecmp_44" PURGE="0" COMMENT="" />
    <EXPORT ORDINAL="1362" NAME="u_memchr32_44" PURGE="0" COMMENT="" />
    <EXPORT ORDINAL="1363" NAME="u_memchr_44" PURGE="0" COMMENT="" />
    <EXPORT ORDINAL="1364" NAME="u_memcmpCodePointOrder_44" PURGE="0" COMMENT="" />
    <EXPORT ORDINAL="1365" NAME="u_memcmp_44" PURGE="0" COMMENT="" />
    <EXPORT ORDINAL="1366" NAME="u_memcpy_44" PURGE="0" COMMENT="" />
    <EXPORT ORDINAL="1367" NAME="u_memmove_44" PURGE="0" COMMENT="" />
    <EXPORT ORDINAL="1368" NAME="u_memrchr32_44" PURGE="0" COMMENT="" />
    <EXPORT ORDINAL="1369" NAME="u_memrchr_44" PURGE="0" COMMENT="" />
    <EXPORT ORDINAL="1370" NAME="u_memset_44" PURGE="0" COMMENT="" />
    <EXPORT ORDINAL="1371" NAME="u_releaseDefaultConverter_44" PURGE="0" COMMENT="" />
    <EXPORT ORDINAL="1372" NAME="u_setAtomicIncDecFunctions_44" PURGE="0" COMMENT="" />
    <EXPORT ORDINAL="1373" NAME="u_setDataDirectory_44" PURGE="0" COMMENT="" />
    <EXPORT ORDINAL="1374" NAME="u_setMemoryFunctions_44" PURGE="0" COMMENT="" />
    <EXPORT ORDINAL="1375" NAME="u_setMutexFunctions_44" PURGE="0" COMMENT="" />
    <EXPORT ORDINAL="1376" NAME="u_shapeArabic_44" PURGE="0" COMMENT="" />
    <EXPORT ORDINAL="1377" NAME="u_strCaseCompare_44" PURGE="0" COMMENT="" />
    <EXPORT ORDINAL="1378" NAME="u_strCompareIter_44" PURGE="0" COMMENT="" />
    <EXPORT ORDINAL="1379" NAME="u_strCompare_44" PURGE="0" COMMENT="" />
    <EXPORT ORDINAL="1380" NAME="u_strFindFirst_44" PURGE="0" COMMENT="" />
    <EXPORT ORDINAL="1381" NAME="u_strFindLast_44" PURGE="0" COMMENT="" />
    <EXPORT ORDINAL="1382" NAME="u_strFoldCase_44" PURGE="0" COMMENT="" />
    <EXPORT ORDINAL="1383" NAME="u_strFromJavaModifiedUTF8WithSub_44" PURGE="0" COMMENT="" />
    <EXPORT ORDINAL="1384" NAME="u_strFromUTF32WithSub_44" PURGE="0" COMMENT="" />
    <EXPORT ORDINAL="1385" NAME="u_strFromUTF32_44" PURGE="0" COMMENT="" />
    <EXPORT ORDINAL="1386" NAME="u_strFromUTF8Lenient_44" PURGE="0" COMMENT="" />
    <EXPORT ORDINAL="1387" NAME="u_strFromUTF8WithSub_44" PURGE="0" COMMENT="" />
    <EXPORT ORDINAL="1388" NAME="u_strFromUTF8_44" PURGE="0" COMMENT="" />
    <EXPORT ORDINAL="1389" NAME="u_strFromWCS_44" PURGE="0" COMMENT="" />
    <EXPORT ORDINAL="1390" NAME="u_strHasMoreChar32Than_44" PURGE="0" COMMENT="" />
    <EXPORT ORDINAL="1391" NAME="u_strToJavaModifiedUTF8_44" PURGE="0" COMMENT="" />
    <EXPORT ORDINAL="1392" NAME="u_strToLower_44" PURGE="0" COMMENT="" />
    <EXPORT ORDINAL="1393" NAME="u_strToTitle_44" PURGE="0" COMMENT="" />
    <EXPORT ORDINAL="1394" NAME="u_strToUTF32WithSub_44" PURGE="0" COMMENT="" />
    <EXPORT ORDINAL="1395" NAME="u_strToUTF32_44" PURGE="0" COMMENT="" />
    <EXPORT ORDINAL="1396" NAME="u_strToUTF8WithSub_44" PURGE="0" COMMENT="" />
    <EXPORT ORDINAL="1397" NAME="u_strToUTF8_44" PURGE="0" COMMENT="" />
    <EXPORT ORDINAL="1398" NAME="u_strToUpper_44" PURGE="0" COMMENT="" />
    <EXPORT ORDINAL="1399" NAME="u_strToWCS_44" PURGE="0" COMMENT="" />
    <EXPORT ORDINAL="1400" NAME="u_strcasecmp_44" PURGE="0" COMMENT="" />
    <EXPORT ORDINAL="1401" NAME="u_strcat_44" PURGE="0" COMMENT="" />
    <EXPORT ORDINAL="1402" NAME="u_strchr32_44" PURGE="0" COMMENT="" />
    <EXPORT ORDINAL="1403" NAME="u_strchr_44" PURGE="0" COMMENT="" />
    <EXPORT ORDINAL="1404" NAME="u_strcmpCodePointOrder_44" PURGE="0" COMMENT="" />
    <EXPORT ORDINAL="1405" NAME="u_strcmp_44" PURGE="0" COMMENT="" />
    <EXPORT ORDINAL="1406" NAME="u_strcpy_44" PURGE="0" COMMENT="" />
    <EXPORT ORDINAL="1407" NAME="u_strcspn_44" PURGE="0" COMMENT="" />
    <EXPORT ORDINAL="1408" NAME="u_strlen_44" PURGE="0" COMMENT="" />
    <EXPORT ORDINAL="1409" NAME="u_strncasecmp_44" PURGE="0" COMMENT="" />
    <EXPORT ORDINAL="1410" NAME="u_strncat_44" PURGE="0" COMMENT="" />
    <EXPORT ORDINAL="1411" NAME="u_strncmpCodePointOrder_44" PURGE="0" COMMENT="" />
    <EXPORT ORDINAL="1412" NAME="u_strncmp_44" PURGE="0" COMMENT="" />
    <EXPORT ORDINAL="1413" NAME="u_strncpy_44" PURGE="0" COMMENT="" />
    <EXPORT ORDINAL="1414" NAME="u_strpbrk_44" PURGE="0" COMMENT="" />
    <EXPORT ORDINAL="1415" NAME="u_strrchr32_44" PURGE="0" COMMENT="" />
    <EXPORT ORDINAL="1416" NAME="u_strrchr_44" PURGE="0" COMMENT="" />
    <EXPORT ORDINAL="1417" NAME="u_strrstr_44" PURGE="0" COMMENT="" />
    <EXPORT ORDINAL="1418" NAME="u_strspn_44" PURGE="0" COMMENT="" />
    <EXPORT ORDINAL="1419" NAME="u_strstr_44" PURGE="0" COMMENT="" />
    <EXPORT ORDINAL="1420" NAME="u_strtok_r_44" PURGE="0" COMMENT="" />
    <EXPORT ORDINAL="1421" NAME="u_terminateChars_44" PURGE="0" COMMENT="" />
    <EXPORT ORDINAL="1422" NAME="u_terminateUChar32s_44" PURGE="0" COMMENT="" />
    <EXPORT ORDINAL="1423" NAME="u_terminateUChars_44" PURGE="0" COMMENT="" />
    <EXPORT ORDINAL="1424" NAME="u_terminateWChars_44" PURGE="0" COMMENT="" />
    <EXPORT ORDINAL="1425" NAME="u_tolower_44" PURGE="0" COMMENT="" />
    <EXPORT ORDINAL="1426" NAME="u_totitle_44" PURGE="0" COMMENT="" />
    <EXPORT ORDINAL="1427" NAME="u_toupper_44" PURGE="0" COMMENT="" />
    <EXPORT ORDINAL="1428" NAME="u_uastrcpy_44" PURGE="0" COMMENT="" />
    <EXPORT ORDINAL="1429" NAME="u_uastrncpy_44" PURGE="0" COMMENT="" />
    <EXPORT ORDINAL="1430" NAME="u_unescapeAt_44" PURGE="0" COMMENT="" />
    <EXPORT ORDINAL="1431" NAME="u_unescape_44" PURGE="0" COMMENT="" />
    <EXPORT ORDINAL="1432" NAME="u_versionFromString_44" PURGE="0" COMMENT="" />
    <EXPORT ORDINAL="1433" NAME="u_versionFromUString_44" PURGE="0" COMMENT="" />
    <EXPORT ORDINAL="1434" NAME="u_versionToString_44" PURGE="0" COMMENT="" />
    <EXPORT ORDINAL="1435" NAME="ubidi_close_44" PURGE="0" COMMENT="" />
    <EXPORT ORDINAL="1436" NAME="ubidi_countParagraphs_44" PURGE="0" COMMENT="" />
    <EXPORT ORDINAL="1437" NAME="ubidi_countRuns_44" PURGE="0" COMMENT="" />
    <EXPORT ORDINAL="1438" NAME="ubidi_getClassCallback_44" PURGE="0" COMMENT="" />
    <EXPORT ORDINAL="1439" NAME="ubidi_getClass_44" PURGE="0" COMMENT="" />
    <EXPORT ORDINAL="1440" NAME="ubidi_getCustomizedClass_44" PURGE="0" COMMENT="" />
    <EXPORT ORDINAL="1441" NAME="ubidi_getDirection_44" PURGE="0" COMMENT="" />
    <EXPORT ORDINAL="1442" NAME="ubidi_getLength_44" PURGE="0" COMMENT="" />
    <EXPORT ORDINAL="1443" NAME="ubidi_getLevelAt_44" PURGE="0" COMMENT="" />
    <EXPORT ORDINAL="1444" NAME="ubidi_getLevels_44" PURGE="0" COMMENT="" />
    <EXPORT ORDINAL="1445" NAME="ubidi_getLogicalIndex_44" PURGE="0" COMMENT="" />
    <EXPORT ORDINAL="1446" NAME="ubidi_getLogicalMap_44" PURGE="0" COMMENT="" />
    <EXPORT ORDINAL="1447" NAME="ubidi_getLogicalRun_44" PURGE="0" COMMENT="" />
    <EXPORT ORDINAL="1448" NAME="ubidi_getParaLevel_44" PURGE="0" COMMENT="" />
    <EXPORT ORDINAL="1449" NAME="ubidi_getParagraphByIndex_44" PURGE="0" COMMENT="" />
    <EXPORT ORDINAL="1450" NAME="ubidi_getParagraph_44" PURGE="0" COMMENT="" />
    <EXPORT ORDINAL="1451" NAME="ubidi_getProcessedLength_44" PURGE="0" COMMENT="" />
    <EXPORT ORDINAL="1452" NAME="ubidi_getReorderingMode_44" PURGE="0" COMMENT="" />
    <EXPORT ORDINAL="1453" NAME="ubidi_getReorderingOptions_44" PURGE="0" COMMENT="" />
    <EXPORT ORDINAL="1454" NAME="ubidi_getResultLength_44" PURGE="0" COMMENT="" />
    <EXPORT ORDINAL="1455" NAME="ubidi_getText_44" PURGE="0" COMMENT="" />
    <EXPORT ORDINAL="1456" NAME="ubidi_getVisualIndex_44" PURGE="0" COMMENT="" />
    <EXPORT ORDINAL="1457" NAME="ubidi_getVisualMap_44" PURGE="0" COMMENT="" />
    <EXPORT ORDINAL="1458" NAME="ubidi_getVisualRun_44" PURGE="0" COMMENT="" />
    <EXPORT ORDINAL="1459" NAME="ubidi_invertMap_44" PURGE="0" COMMENT="" />
    <EXPORT ORDINAL="1460" NAME="ubidi_isInverse_44" PURGE="0" COMMENT="" />
    <EXPORT ORDINAL="1461" NAME="ubidi_isOrderParagraphsLTR_44" PURGE="0" COMMENT="" />
    <EXPORT ORDINAL="1462" NAME="ubidi_openSized_44" PURGE="0" COMMENT="" />
    <EXPORT ORDINAL="1463" NAME="ubidi_open_44" PURGE="0" COMMENT="" />
    <EXPORT ORDINAL="1464" NAME="ubidi_orderParagraphsLTR_44" PURGE="0" COMMENT="" />
    <EXPORT ORDINAL="1465" NAME="ubidi_reorderLogical_44" PURGE="0" COMMENT="" />
    <EXPORT ORDINAL="1466" NAME="ubidi_reorderVisual_44" PURGE="0" COMMENT="" />
    <EXPORT ORDINAL="1467" NAME="ubidi_setClassCallback_44" PURGE="0" COMMENT="" />
    <EXPORT ORDINAL="1468" NAME="ubidi_setInverse_44" PURGE="0" COMMENT="" />
    <EXPORT ORDINAL="1469" NAME="ubidi_setLine_44" PURGE="0" COMMENT="" />
    <EXPORT ORDINAL="1470" NAME="ubidi_setPara_44" PURGE="0" COMMENT="" />
    <EXPORT ORDINAL="1471" NAME="ubidi_setReorderingMode_44" PURGE="0" COMMENT="" />
    <EXPORT ORDINAL="1472" NAME="ubidi_setReorderingOptions_44" PURGE="0" COMMENT="" />
    <EXPORT ORDINAL="1473" NAME="ubidi_writeReordered_44" PURGE="0" COMMENT="" />
    <EXPORT ORDINAL="1474" NAME="ubidi_writeReverse_44" PURGE="0" COMMENT="" />
    <EXPORT ORDINAL="1475" NAME="ublock_getCode_44" PURGE="0" COMMENT="" />
    <EXPORT ORDINAL="1476" NAME="ubrk_close_44" PURGE="0" COMMENT="" />
    <EXPORT ORDINAL="1477" NAME="ubrk_countAvailable_44" PURGE="0" COMMENT="" />
    <EXPORT ORDINAL="1478" NAME="ubrk_current_44" PURGE="0" COMMENT="" />
    <EXPORT ORDINAL="1479" NAME="ubrk_first_44" PURGE="0" COMMENT="" />
    <EXPORT ORDINAL="1480" NAME="ubrk_following_44" PURGE="0" COMMENT="" />
    <EXPORT ORDINAL="1481" NAME="ubrk_getAvailable_44" PURGE="0" COMMENT="" />
    <EXPORT ORDINAL="1482" NAME="ubrk_getLocaleByType_44" PURGE="0" COMMENT="" />
    <EXPORT ORDINAL="1483" NAME="ubrk_getRuleStatusVec_44" PURGE="0" COMMENT="" />
    <EXPORT ORDINAL="1484" NAME="ubrk_getRuleStatus_44" PURGE="0" COMMENT="" />
    <EXPORT ORDINAL="1485" NAME="ubrk_isBoundary_44" PURGE="0" COMMENT="" />
    <EXPORT ORDINAL="1486" NAME="ubrk_last_44" PURGE="0" COMMENT="" />
    <EXPORT ORDINAL="1487" NAME="ubrk_next_44" PURGE="0" COMMENT="" />
    <EXPORT ORDINAL="1488" NAME="ubrk_openRules_44" PURGE="0" COMMENT="" />
    <EXPORT ORDINAL="1489" NAME="ubrk_open_44" PURGE="0" COMMENT="" />
    <EXPORT ORDINAL="1490" NAME="ubrk_preceding_44" PURGE="0" COMMENT="" />
    <EXPORT ORDINAL="1491" NAME="ubrk_previous_44" PURGE="0" COMMENT="" />
    <EXPORT ORDINAL="1492" NAME="ubrk_safeClone_44" PURGE="0" COMMENT="" />
    <EXPORT ORDINAL="1493" NAME="ubrk_setText_44" PURGE="0" COMMENT="" />
    <EXPORT ORDINAL="1494" NAME="ubrk_setUText_44" PURGE="0" COMMENT="" />
    <EXPORT ORDINAL="1495" NAME="ubrk_swap_44" PURGE="0" COMMENT="" />
    <EXPORT ORDINAL="1496" NAME="ucase_close_44" PURGE="0" COMMENT="" />
    <EXPORT ORDINAL="1497" NAME="ucase_fold_44" PURGE="0" COMMENT="" />
    <EXPORT ORDINAL="1498" NAME="ucase_getSingleton_44" PURGE="0" COMMENT="" />
    <EXPORT ORDINAL="1499" NAME="ucase_getTypeOrIgnorable_44" PURGE="0" COMMENT="" />
    <EXPORT ORDINAL="1500" NAME="ucase_getType_44" PURGE="0" COMMENT="" />
    <EXPORT ORDINAL="1501" NAME="ucase_isCaseSensitive_44" PURGE="0" COMMENT="" />
    <EXPORT ORDINAL="1502" NAME="ucase_isSoftDotted_44" PURGE="0" COMMENT="" />
    <EXPORT ORDINAL="1503" NAME="ucase_toFullFolding_44" PURGE="0" COMMENT="" />
    <EXPORT ORDINAL="1504" NAME="ucase_toFullLower_44" PURGE="0" COMMENT="" />
    <EXPORT ORDINAL="1505" NAME="ucase_toFullTitle_44" PURGE="0" COMMENT="" />
    <EXPORT ORDINAL="1506" NAME="ucase_toFullUpper_44" PURGE="0" COMMENT="" />
    <EXPORT ORDINAL="1507" NAME="ucase_tolower_44" PURGE="0" COMMENT="" />
    <EXPORT ORDINAL="1508" NAME="ucase_totitle_44" PURGE="0" COMMENT="" />
    <EXPORT ORDINAL="1509" NAME="ucase_toupper_44" PURGE="0" COMMENT="" />
    <EXPORT ORDINAL="1510" NAME="ucasemap_close_44" PURGE="0" COMMENT="" />
    <EXPORT ORDINAL="1511" NAME="ucasemap_getBreakIterator_44" PURGE="0" COMMENT="" />
    <EXPORT ORDINAL="1512" NAME="ucasemap_getLocale_44" PURGE="0" COMMENT="" />
    <EXPORT ORDINAL="1513" NAME="ucasemap_getOptions_44" PURGE="0" COMMENT="" />
    <EXPORT ORDINAL="1514" NAME="ucasemap_open_44" PURGE="0" COMMENT="" />
    <EXPORT ORDINAL="1515" NAME="ucasemap_setBreakIterator_44" PURGE="0" COMMENT="" />
    <EXPORT ORDINAL="1516" NAME="ucasemap_setLocale_44" PURGE="0" COMMENT="" />
    <EXPORT ORDINAL="1517" NAME="ucasemap_setOptions_44" PURGE="0" COMMENT="" />
    <EXPORT ORDINAL="1518" NAME="ucasemap_toTitle_44" PURGE="0" COMMENT="" />
    <EXPORT ORDINAL="1519" NAME="ucasemap_utf8FoldCase_44" PURGE="0" COMMENT="" />
    <EXPORT ORDINAL="1520" NAME="ucasemap_utf8ToLower_44" PURGE="0" COMMENT="" />
    <EXPORT ORDINAL="1521" NAME="ucasemap_utf8ToTitle_44" PURGE="0" COMMENT="" />
    <EXPORT ORDINAL="1522" NAME="ucasemap_utf8ToUpper_44" PURGE="0" COMMENT="" />
    <EXPORT ORDINAL="1523" NAME="uchar_swapNames_44" PURGE="0" COMMENT="" />
    <EXPORT ORDINAL="1524" NAME="ucln_cleanupOne_44" PURGE="0" COMMENT="" />
    <EXPORT ORDINAL="1525" NAME="ucln_registerCleanup_44" PURGE="0" COMMENT="" />
    <EXPORT ORDINAL="1526" NAME="ucnv_cbFromUWriteBytes_44" PURGE="0" COMMENT="" />
    <EXPORT ORDINAL="1527" NAME="ucnv_cbFromUWriteSub_44" PURGE="0" COMMENT="" />
    <EXPORT ORDINAL="1528" NAME="ucnv_cbFromUWriteUChars_44" PURGE="0" COMMENT="" />
    <EXPORT ORDINAL="1529" NAME="ucnv_cbToUWriteSub_44" PURGE="0" COMMENT="" />
    <EXPORT ORDINAL="1530" NAME="ucnv_cbToUWriteUChars_44" PURGE="0" COMMENT="" />
    <EXPORT ORDINAL="1531" NAME="ucnv_close_44" PURGE="0" COMMENT="" />
    <EXPORT ORDINAL="1532" NAME="ucnv_compareNames_44" PURGE="0" COMMENT="" />
    <EXPORT ORDINAL="1533" NAME="ucnv_convertEx_44" PURGE="0" COMMENT="" />
    <EXPORT ORDINAL="1534" NAME="ucnv_convert_44" PURGE="0" COMMENT="" />
    <EXPORT ORDINAL="1535" NAME="ucnv_countAliases_44" PURGE="0" COMMENT="" />
    <EXPORT ORDINAL="1536" NAME="ucnv_countAvailable_44" PURGE="0" COMMENT="" />
    <EXPORT ORDINAL="1537" NAME="ucnv_countStandards_44" PURGE="0" COMMENT="" />
    <EXPORT ORDINAL="1538" NAME="ucnv_detectUnicodeSignature_44" PURGE="0" COMMENT="" />
    <EXPORT ORDINAL="1539" NAME="ucnv_fixFileSeparator_44" PURGE="0" COMMENT="" />
    <EXPORT ORDINAL="1540" NAME="ucnv_flushCache_44" PURGE="0" COMMENT="" />
    <EXPORT ORDINAL="1541" NAME="ucnv_fromAlgorithmic_44" PURGE="0" COMMENT="" />
    <EXPORT ORDINAL="1542" NAME="ucnv_fromUChars_44" PURGE="0" COMMENT="" />
    <EXPORT ORDINAL="1543" NAME="ucnv_fromUCountPending_44" PURGE="0" COMMENT="" />
    <EXPORT ORDINAL="1544" NAME="ucnv_fromUnicode_44" PURGE="0" COMMENT="" />
    <EXPORT ORDINAL="1545" NAME="ucnv_getAlias_44" PURGE="0" COMMENT="" />
    <EXPORT ORDINAL="1546" NAME="ucnv_getAliases_44" PURGE="0" COMMENT="" />
    <EXPORT ORDINAL="1547" NAME="ucnv_getAvailableName_44" PURGE="0" COMMENT="" />
    <EXPORT ORDINAL="1548" NAME="ucnv_getCCSID_44" PURGE="0" COMMENT="" />
    <EXPORT ORDINAL="1549" NAME="ucnv_getCanonicalName_44" PURGE="0" COMMENT="" />
    <EXPORT ORDINAL="1550" NAME="ucnv_getDefaultName_44" PURGE="0" COMMENT="" />
    <EXPORT ORDINAL="1551" NAME="ucnv_getDisplayName_44" PURGE="0" COMMENT="" />
    <EXPORT ORDINAL="1552" NAME="ucnv_getFromUCallBack_44" PURGE="0" COMMENT="" />
    <EXPORT ORDINAL="1553" NAME="ucnv_getInvalidChars_44" PURGE="0" COMMENT="" />
    <EXPORT ORDINAL="1554" NAME="ucnv_getInvalidUChars_44" PURGE="0" COMMENT="" />
    <EXPORT ORDINAL="1555" NAME="ucnv_getMaxCharSize_44" PURGE="0" COMMENT="" />
    <EXPORT ORDINAL="1556" NAME="ucnv_getMinCharSize_44" PURGE="0" COMMENT="" />
    <EXPORT ORDINAL="1557" NAME="ucnv_getName_44" PURGE="0" COMMENT="" />
    <EXPORT ORDINAL="1558" NAME="ucnv_getNextUChar_44" PURGE="0" COMMENT="" />
    <EXPORT ORDINAL="1559" NAME="ucnv_getPlatform_44" PURGE="0" COMMENT="" />
    <EXPORT ORDINAL="1560" NAME="ucnv_getStandardName_44" PURGE="0" COMMENT="" />
    <EXPORT ORDINAL="1561" NAME="ucnv_getStandard_44" PURGE="0" COMMENT="" />
    <EXPORT ORDINAL="1562" NAME="ucnv_getStarters_44" PURGE="0" COMMENT="" />
    <EXPORT ORDINAL="1563" NAME="ucnv_getSubstChars_44" PURGE="0" COMMENT="" />
    <EXPORT ORDINAL="1564" NAME="ucnv_getToUCallBack_44" PURGE="0" COMMENT="" />
    <EXPORT ORDINAL="1565" NAME="ucnv_getType_44" PURGE="0" COMMENT="" />
    <EXPORT ORDINAL="1566" NAME="ucnv_getUnicodeSet_44" PURGE="0" COMMENT="" />
    <EXPORT ORDINAL="1567" NAME="ucnv_io_stripASCIIForCompare_44" PURGE="0" COMMENT="" />
    <EXPORT ORDINAL="1568" NAME="ucnv_io_stripEBCDICForCompare_44" PURGE="0" COMMENT="" />
    <EXPORT ORDINAL="1569" NAME="ucnv_isAmbiguous_44" PURGE="0" COMMENT="" />
    <EXPORT ORDINAL="1570" NAME="ucnv_openAllNames_44" PURGE="0" COMMENT="" />
    <EXPORT ORDINAL="1571" NAME="ucnv_openCCSID_44" PURGE="0" COMMENT="" />
    <EXPORT ORDINAL="1572" NAME="ucnv_openPackage_44" PURGE="0" COMMENT="" />
    <EXPORT ORDINAL="1573" NAME="ucnv_openStandardNames_44" PURGE="0" COMMENT="" />
    <EXPORT ORDINAL="1574" NAME="ucnv_openU_44" PURGE="0" COMMENT="" />
    <EXPORT ORDINAL="1575" NAME="ucnv_open_44" PURGE="0" COMMENT="" />
    <EXPORT ORDINAL="1576" NAME="ucnv_resetFromUnicode_44" PURGE="0" COMMENT="" />
    <EXPORT ORDINAL="1577" NAME="ucnv_resetToUnicode_44" PURGE="0" COMMENT="" />
    <EXPORT ORDINAL="1578" NAME="ucnv_reset_44" PURGE="0" COMMENT="" />
    <EXPORT ORDINAL="1579" NAME="ucnv_safeClone_44" PURGE="0" COMMENT="" />
    <EXPORT ORDINAL="1580" NAME="ucnv_setDefaultName_44" PURGE="0" COMMENT="" />
    <EXPORT ORDINAL="1581" NAME="ucnv_setFallback_44" PURGE="0" COMMENT="" />
    <EXPORT ORDINAL="1582" NAME="ucnv_setFromUCallBack_44" PURGE="0" COMMENT="" />
    <EXPORT ORDINAL="1583" NAME="ucnv_setSubstChars_44" PURGE="0" COMMENT="" />
    <EXPORT ORDINAL="1584" NAME="ucnv_setSubstString_44" PURGE="0" COMMENT="" />
    <EXPORT ORDINAL="1585" NAME="ucnv_setToUCallBack_44" PURGE="0" COMMENT="" />
    <EXPORT ORDINAL="1586" NAME="ucnv_swapAliases_44" PURGE="0" COMMENT="" />
    <EXPORT ORDINAL="1587" NAME="ucnv_swap_44" PURGE="0" COMMENT="" />
    <EXPORT ORDINAL="1588" NAME="ucnv_toAlgorithmic_44" PURGE="0" COMMENT="" />
    <EXPORT ORDINAL="1589" NAME="ucnv_toUChars_44" PURGE="0" COMMENT="" />
    <EXPORT ORDINAL="1590" NAME="ucnv_toUCountPending_44" PURGE="0" COMMENT="" />
    <EXPORT ORDINAL="1591" NAME="ucnv_toUnicode_44" PURGE="0" COMMENT="" />
    <EXPORT ORDINAL="1592" NAME="ucnv_usesFallback_44" PURGE="0" COMMENT="" />
    <EXPORT ORDINAL="1593" NAME="ucnvsel_close_44" PURGE="0" COMMENT="" />
    <EXPORT ORDINAL="1594" NAME="ucnvsel_openFromSerialized_44" PURGE="0" COMMENT="" />
    <EXPORT ORDINAL="1595" NAME="ucnvsel_open_44" PURGE="0" COMMENT="" />
    <EXPORT ORDINAL="1596" NAME="ucnvsel_selectForString_44" PURGE="0" COMMENT="" />
    <EXPORT ORDINAL="1597" NAME="ucnvsel_selectForUTF8_44" PURGE="0" COMMENT="" />
    <EXPORT ORDINAL="1598" NAME="ucnvsel_serialize_44" PURGE="0" COMMENT="" />
    <EXPORT ORDINAL="1599" NAME="ucol_looksLikeCollationBinary_44" PURGE="0" COMMENT="" />
    <EXPORT ORDINAL="1600" NAME="ucol_swapBinary_44" PURGE="0" COMMENT="" />
    <EXPORT ORDINAL="1601" NAME="ucol_swapInverseUCA_44" PURGE="0" COMMENT="" />
    <EXPORT ORDINAL="1602" NAME="ucol_swap_44" PURGE="0" COMMENT="" />
    <EXPORT ORDINAL="1603" NAME="udata_closeSwapper_44" PURGE="0" COMMENT="" />
    <EXPORT ORDINAL="1604" NAME="udata_close_44" PURGE="0" COMMENT="" />
    <EXPORT ORDINAL="1605" NAME="udata_getInfo_44" PURGE="0" COMMENT="" />
    <EXPORT ORDINAL="1606" NAME="udata_getLength_44" PURGE="0" COMMENT="" />
    <EXPORT ORDINAL="1607" NAME="udata_getMemory_44" PURGE="0" COMMENT="" />
    <EXPORT ORDINAL="1608" NAME="udata_getRawMemory_44" PURGE="0" COMMENT="" />
    <EXPORT ORDINAL="1609" NAME="udata_openChoice_44" PURGE="0" COMMENT="" />
    <EXPORT ORDINAL="1610" NAME="udata_openSwapperForInputData_44" PURGE="0" COMMENT="" />
    <EXPORT ORDINAL="1611" NAME="udata_openSwapper_44" PURGE="0" COMMENT="" />
    <EXPORT ORDINAL="1612" NAME="udata_open_44" PURGE="0" COMMENT="" />
    <EXPORT ORDINAL="1613" NAME="udata_printError_44" PURGE="0" COMMENT="" />
    <EXPORT ORDINAL="1614" NAME="udata_readInt16_44" PURGE="0" COMMENT="" />
    <EXPORT ORDINAL="1615" NAME="udata_readInt32_44" PURGE="0" COMMENT="" />
    <EXPORT ORDINAL="1616" NAME="udata_setAppData_44" PURGE="0" COMMENT="" />
    <EXPORT ORDINAL="1617" NAME="udata_setCommonData_44" PURGE="0" COMMENT="" />
    <EXPORT ORDINAL="1618" NAME="udata_setFileAccess_44" PURGE="0" COMMENT="" />
    <EXPORT ORDINAL="1619" NAME="udata_swapDataHeader_44" PURGE="0" COMMENT="" />
    <EXPORT ORDINAL="1620" NAME="udata_swapInvStringBlock_44" PURGE="0" COMMENT="" />
    <EXPORT ORDINAL="1621" NAME="uenum_close_44" PURGE="0" COMMENT="" />
    <EXPORT ORDINAL="1622" NAME="uenum_count_44" PURGE="0" COMMENT="" />
    <EXPORT ORDINAL="1623" NAME="uenum_nextDefault_44" PURGE="0" COMMENT="" />
    <EXPORT ORDINAL="1624" NAME="uenum_next_44" PURGE="0" COMMENT="" />
    <EXPORT ORDINAL="1625" NAME="uenum_openCharStringsEnumeration_44" PURGE="0" COMMENT="" />
    <EXPORT ORDINAL="1626" NAME="uenum_openFromStringEnumeration_44" PURGE="0" COMMENT="" />
    <EXPORT ORDINAL="1627" NAME="uenum_reset_44" PURGE="0" COMMENT="" />
    <EXPORT ORDINAL="1628" NAME="uenum_unextDefault_44" PURGE="0" COMMENT="" />
    <EXPORT ORDINAL="1629" NAME="uenum_unext_44" PURGE="0" COMMENT="" />
    <EXPORT ORDINAL="1630" NAME="uhash_close_44" PURGE="0" COMMENT="" />
    <EXPORT ORDINAL="1631" NAME="uhash_compareCaselessUnicodeString_44" PURGE="0" COMMENT="" />
    <EXPORT ORDINAL="1632" NAME="uhash_compareChars_44" PURGE="0" COMMENT="" />
    <EXPORT ORDINAL="1633" NAME="uhash_compareIChars_44" PURGE="0" COMMENT="" />
    <EXPORT ORDINAL="1634" NAME="uhash_compareLong_44" PURGE="0" COMMENT="" />
    <EXPORT ORDINAL="1635" NAME="uhash_compareUChars_44" PURGE="0" COMMENT="" />
    <EXPORT ORDINAL="1636" NAME="uhash_compareUnicodeString_44" PURGE="0" COMMENT="" />
    <EXPORT ORDINAL="1637" NAME="uhash_count_44" PURGE="0" COMMENT="" />
    <EXPORT ORDINAL="1638" NAME="uhash_deleteHashtable_44" PURGE="0" COMMENT="" />
    <EXPORT ORDINAL="1639" NAME="uhash_deleteUVector_44" PURGE="0" COMMENT="" />
    <EXPORT ORDINAL="1640" NAME="uhash_deleteUnicodeString_44" PURGE="0" COMMENT="" />
    <EXPORT ORDINAL="1641" NAME="uhash_equals_44" PURGE="0" COMMENT="" />
    <EXPORT ORDINAL="1642" NAME="uhash_find_44" PURGE="0" COMMENT="" />
    <EXPORT ORDINAL="1643" NAME="uhash_freeBlock_44" PURGE="0" COMMENT="" />
    <EXPORT ORDINAL="1644" NAME="uhash_get_44" PURGE="0" COMMENT="" />
    <EXPORT ORDINAL="1645" NAME="uhash_geti_44" PURGE="0" COMMENT="" />
    <EXPORT ORDINAL="1646" NAME="uhash_hashCaselessUnicodeString_44" PURGE="0" COMMENT="" />
    <EXPORT ORDINAL="1647" NAME="uhash_hashChars_44" PURGE="0" COMMENT="" />
    <EXPORT ORDINAL="1648" NAME="uhash_hashIChars_44" PURGE="0" COMMENT="" />
    <EXPORT ORDINAL="1649" NAME="uhash_hashLong_44" PURGE="0" COMMENT="" />
    <EXPORT ORDINAL="1650" NAME="uhash_hashUCharsN_44" PURGE="0" COMMENT="" />
    <EXPORT ORDINAL="1651" NAME="uhash_hashUChars_44" PURGE="0" COMMENT="" />
    <EXPORT ORDINAL="1652" NAME="uhash_hashUnicodeString_44" PURGE="0" COMMENT="" />
    <EXPORT ORDINAL="1653" NAME="uhash_iget_44" PURGE="0" COMMENT="" />
    <EXPORT ORDINAL="1654" NAME="uhash_igeti_44" PURGE="0" COMMENT="" />
    <EXPORT ORDINAL="1655" NAME="uhash_init_44" PURGE="0" COMMENT="" />
    <EXPORT ORDINAL="1656" NAME="uhash_iput_44" PURGE="0" COMMENT="" />
    <EXPORT ORDINAL="1657" NAME="uhash_iputi_44" PURGE="0" COMMENT="" />
    <EXPORT ORDINAL="1658" NAME="uhash_iremove_44" PURGE="0" COMMENT="" />
    <EXPORT ORDINAL="1659" NAME="uhash_iremovei_44" PURGE="0" COMMENT="" />
    <EXPORT ORDINAL="1660" NAME="uhash_nextElement_44" PURGE="0" COMMENT="" />
    <EXPORT ORDINAL="1661" NAME="uhash_openSize_44" PURGE="0" COMMENT="" />
    <EXPORT ORDINAL="1662" NAME="uhash_open_44" PURGE="0" COMMENT="" />
    <EXPORT ORDINAL="1663" NAME="uhash_put_44" PURGE="0" COMMENT="" />
    <EXPORT ORDINAL="1664" NAME="uhash_puti_44" PURGE="0" COMMENT="" />
    <EXPORT ORDINAL="1665" NAME="uhash_removeAll_44" PURGE="0" COMMENT="" />
    <EXPORT ORDINAL="1666" NAME="uhash_removeElement_44" PURGE="0" COMMENT="" />
    <EXPORT ORDINAL="1667" NAME="uhash_remove_44" PURGE="0" COMMENT="" />
    <EXPORT ORDINAL="1668" NAME="uhash_removei_44" PURGE="0" COMMENT="" />
    <EXPORT ORDINAL="1669" NAME="uhash_setKeyComparator_44" PURGE="0" COMMENT="" />
    <EXPORT ORDINAL="1670" NAME="uhash_setKeyDeleter_44" PURGE="0" COMMENT="" />
    <EXPORT ORDINAL="1671" NAME="uhash_setKeyHasher_44" PURGE="0" COMMENT="" />
    <EXPORT ORDINAL="1672" NAME="uhash_setResizePolicy_44" PURGE="0" COMMENT="" />
    <EXPORT ORDINAL="1673" NAME="uhash_setValueComparator_44" PURGE="0" COMMENT="" />
    <EXPORT ORDINAL="1674" NAME="uhash_setValueDeleter_44" PURGE="0" COMMENT="" />
    <EXPORT ORDINAL="1675" NAME="uidna_IDNToASCII_44" PURGE="0" COMMENT="" />
    <EXPORT ORDINAL="1676" NAME="uidna_IDNToUnicode_44" PURGE="0" COMMENT="" />
    <EXPORT ORDINAL="1677" NAME="uidna_compare_44" PURGE="0" COMMENT="" />
    <EXPORT ORDINAL="1678" NAME="uidna_toASCII_44" PURGE="0" COMMENT="" />
    <EXPORT ORDINAL="1679" NAME="uidna_toUnicode_44" PURGE="0" COMMENT="" />
    <EXPORT ORDINAL="1680" NAME="uiter_current32_44" PURGE="0" COMMENT="" />
    <EXPORT ORDINAL="1681" NAME="uiter_getState_44" PURGE="0" COMMENT="" />
    <EXPORT ORDINAL="1682" NAME="uiter_next32_44" PURGE="0" COMMENT="" />
    <EXPORT ORDINAL="1683" NAME="uiter_previous32_44" PURGE="0" COMMENT="" />
    <EXPORT ORDINAL="1684" NAME="uiter_setCharacterIterator_44" PURGE="0" COMMENT="" />
    <EXPORT ORDINAL="1685" NAME="uiter_setReplaceable_44" PURGE="0" COMMENT="" />
    <EXPORT ORDINAL="1686" NAME="uiter_setState_44" PURGE="0" COMMENT="" />
    <EXPORT ORDINAL="1687" NAME="uiter_setString_44" PURGE="0" COMMENT="" />
    <EXPORT ORDINAL="1688" NAME="uiter_setUTF16BE_44" PURGE="0" COMMENT="" />
    <EXPORT ORDINAL="1689" NAME="uiter_setUTF8_44" PURGE="0" COMMENT="" />
    <EXPORT ORDINAL="1690" NAME="ulist_addItemBeginList_44" PURGE="0" COMMENT="" />
    <EXPORT ORDINAL="1691" NAME="ulist_addItemEndList_44" PURGE="0" COMMENT="" />
    <EXPORT ORDINAL="1692" NAME="ulist_close_keyword_values_iterator_44" PURGE="0" COMMENT="" />
    <EXPORT ORDINAL="1693" NAME="ulist_containsString_44" PURGE="0" COMMENT="" />
    <EXPORT ORDINAL="1694" NAME="ulist_count_keyword_values_44" PURGE="0" COMMENT="" />
    <EXPORT ORDINAL="1695" NAME="ulist_createEmptyList_44" PURGE="0" COMMENT="" />
    <EXPORT ORDINAL="1696" NAME="ulist_deleteList_44" PURGE="0" COMMENT="" />
    <EXPORT ORDINAL="1697" NAME="ulist_getListFromEnum_44" PURGE="0" COMMENT="" />
    <EXPORT ORDINAL="1698" NAME="ulist_getListSize_44" PURGE="0" COMMENT="" />
    <EXPORT ORDINAL="1699" NAME="ulist_getNext_44" PURGE="0" COMMENT="" />
    <EXPORT ORDINAL="1700" NAME="ulist_next_keyword_value_44" PURGE="0" COMMENT="" />
    <EXPORT ORDINAL="1701" NAME="ulist_resetList_44" PURGE="0" COMMENT="" />
    <EXPORT ORDINAL="1702" NAME="ulist_reset_keyword_values_iterator_44" PURGE="0" COMMENT="" />
    <EXPORT ORDINAL="1703" NAME="uloc_acceptLanguageFromHTTP_44" PURGE="0" COMMENT="" />
    <EXPORT ORDINAL="1704" NAME="uloc_acceptLanguage_44" PURGE="0" COMMENT="" />
    <EXPORT ORDINAL="1705" NAME="uloc_addLikelySubtags_44" PURGE="0" COMMENT="" />
    <EXPORT ORDINAL="1706" NAME="uloc_canonicalize_44" PURGE="0" COMMENT="" />
    <EXPORT ORDINAL="1707" NAME="uloc_countAvailable_44" PURGE="0" COMMENT="" />
    <EXPORT ORDINAL="1708" NAME="uloc_forLanguageTag_44" PURGE="0" COMMENT="" />
    <EXPORT ORDINAL="1709" NAME="uloc_getAvailable_44" PURGE="0" COMMENT="" />
    <EXPORT ORDINAL="1710" NAME="uloc_getBaseName_44" PURGE="0" COMMENT="" />
    <EXPORT ORDINAL="1711" NAME="uloc_getCharacterOrientation_44" PURGE="0" COMMENT="" />
    <EXPORT ORDINAL="1712" NAME="uloc_getCountry_44" PURGE="0" COMMENT="" />
    <EXPORT ORDINAL="1713" NAME="uloc_getDefault_44" PURGE="0" COMMENT="" />
    <EXPORT ORDINAL="1714" NAME="uloc_getDisplayCountry_44" PURGE="0" COMMENT="" />
    <EXPORT ORDINAL="1715" NAME="uloc_getDisplayKeywordValue_44" PURGE="0" COMMENT="" />
    <EXPORT ORDINAL="1716" NAME="uloc_getDisplayKeyword_44" PURGE="0" COMMENT="" />
    <EXPORT ORDINAL="1717" NAME="uloc_getDisplayLanguage_44" PURGE="0" COMMENT="" />
    <EXPORT ORDINAL="1718" NAME="uloc_getDisplayName_44" PURGE="0" COMMENT="" />
    <EXPORT ORDINAL="1719" NAME="uloc_getDisplayScript_44" PURGE="0" COMMENT="" />
    <EXPORT ORDINAL="1720" NAME="uloc_getDisplayVariant_44" PURGE="0" COMMENT="" />
    <EXPORT ORDINAL="1721" NAME="uloc_getISO3Country_44" PURGE="0" COMMENT="" />
    <EXPORT ORDINAL="1722" NAME="uloc_getISO3Language_44" PURGE="0" COMMENT="" />
    <EXPORT ORDINAL="1723" NAME="uloc_getISOCountries_44" PURGE="0" COMMENT="" />
    <EXPORT ORDINAL="1724" NAME="uloc_getISOLanguages_44" PURGE="0" COMMENT="" />
    <EXPORT ORDINAL="1725" NAME="uloc_getKeywordValue_44" PURGE="0" COMMENT="" />
    <EXPORT ORDINAL="1726" NAME="uloc_getLCID_44" PURGE="0" COMMENT="" />
    <EXPORT ORDINAL="1727" NAME="uloc_getLanguage_44" PURGE="0" COMMENT="" />
    <EXPORT ORDINAL="1728" NAME="uloc_getLineOrientation_44" PURGE="0" COMMENT="" />
    <EXPORT ORDINAL="1729" NAME="uloc_getLocaleForLCID_44" PURGE="0" COMMENT="" />
    <EXPORT ORDINAL="1730" NAME="uloc_getName_44" PURGE="0" COMMENT="" />
    <EXPORT ORDINAL="1731" NAME="uloc_getParent_44" PURGE="0" COMMENT="" />
    <EXPORT ORDINAL="1732" NAME="uloc_getScript_44" PURGE="0" COMMENT="" />
    <EXPORT ORDINAL="1733" NAME="uloc_getTableStringWithFallback_44" PURGE="0" COMMENT="" />
    <EXPORT ORDINAL="1734" NAME="uloc_getVariant_44" PURGE="0" COMMENT="" />
    <EXPORT ORDINAL="1735" NAME="uloc_minimizeSubtags_44" PURGE="0" COMMENT="" />
    <EXPORT ORDINAL="1736" NAME="uloc_openKeywordList_44" PURGE="0" COMMENT="" />
    <EXPORT ORDINAL="1737" NAME="uloc_openKeywords_44" PURGE="0" COMMENT="" />
    <EXPORT ORDINAL="1738" NAME="uloc_setDefault_44" PURGE="0" COMMENT="" />
    <EXPORT ORDINAL="1739" NAME="uloc_setKeywordValue_44" PURGE="0" COMMENT="" />
    <EXPORT ORDINAL="1740" NAME="uloc_toLanguageTag_44" PURGE="0" COMMENT="" />
    <EXPORT ORDINAL="1741" NAME="umtx_atomic_dec_44" PURGE="0" COMMENT="" />
    <EXPORT ORDINAL="1742" NAME="umtx_atomic_inc_44" PURGE="0" COMMENT="" />
    <EXPORT ORDINAL="1743" NAME="umtx_destroy_44" PURGE="0" COMMENT="" />
    <EXPORT ORDINAL="1744" NAME="umtx_init_44" PURGE="0" COMMENT="" />
    <EXPORT ORDINAL="1745" NAME="umtx_lock_44" PURGE="0" COMMENT="" />
    <EXPORT ORDINAL="1746" NAME="umtx_unlock_44" PURGE="0" COMMENT="" />
    <EXPORT ORDINAL="1747" NAME="unorm2_append_44" PURGE="0" COMMENT="" />
    <EXPORT ORDINAL="1748" NAME="unorm2_close_44" PURGE="0" COMMENT="" />
    <EXPORT ORDINAL="1749" NAME="unorm2_getInstance_44" PURGE="0" COMMENT="" />
    <EXPORT ORDINAL="1750" NAME="unorm2_hasBoundaryAfter_44" PURGE="0" COMMENT="" />
    <EXPORT ORDINAL="1751" NAME="unorm2_hasBoundaryBefore_44" PURGE="0" COMMENT="" />
    <EXPORT ORDINAL="1752" NAME="unorm2_isInert_44" PURGE="0" COMMENT="" />
    <EXPORT ORDINAL="1753" NAME="unorm2_isNormalized_44" PURGE="0" COMMENT="" />
    <EXPORT ORDINAL="1754" NAME="unorm2_normalizeSecondAndAppend_44" PURGE="0" COMMENT="" />
    <EXPORT ORDINAL="1755" NAME="unorm2_normalize_44" PURGE="0" COMMENT="" />
    <EXPORT ORDINAL="1756" NAME="unorm2_openFiltered_44" PURGE="0" COMMENT="" />
    <EXPORT ORDINAL="1757" NAME="unorm2_quickCheck_44" PURGE="0" COMMENT="" />
    <EXPORT ORDINAL="1758" NAME="unorm2_spanQuickCheckYes_44" PURGE="0" COMMENT="" />
    <EXPORT ORDINAL="1759" NAME="unorm2_swap_44" PURGE="0" COMMENT="" />
    <EXPORT ORDINAL="1760" NAME="unorm_addPropertyStarts_44" PURGE="0" COMMENT="" />
    <EXPORT ORDINAL="1761" NAME="unorm_closeIter_44" PURGE="0" COMMENT="" />
    <EXPORT ORDINAL="1762" NAME="unorm_compare_44" PURGE="0" COMMENT="" />
    <EXPORT ORDINAL="1763" NAME="unorm_concatenate_44" PURGE="0" COMMENT="" />
    <EXPORT ORDINAL="1764" NAME="unorm_getCanonStartSet_44" PURGE="0" COMMENT="" />
    <EXPORT ORDINAL="1765" NAME="unorm_getFCDTrieIndex_44" PURGE="0" COMMENT="" />
    <EXPORT ORDINAL="1766" NAME="unorm_haveData_44" PURGE="0" COMMENT="" />
    <EXPORT ORDINAL="1767" NAME="unorm_isNormalizedWithOptions_44" PURGE="0" COMMENT="" />
    <EXPORT ORDINAL="1768" NAME="unorm_isNormalized_44" PURGE="0" COMMENT="" />
    <EXPORT ORDINAL="1769" NAME="unorm_next_44" PURGE="0" COMMENT="" />
    <EXPORT ORDINAL="1770" NAME="unorm_normalize_44" PURGE="0" COMMENT="" />
    <EXPORT ORDINAL="1771" NAME="unorm_openIter_44" PURGE="0" COMMENT="" />
    <EXPORT ORDINAL="1772" NAME="unorm_previous_44" PURGE="0" COMMENT="" />
    <EXPORT ORDINAL="1773" NAME="unorm_quickCheckWithOptions_44" PURGE="0" COMMENT="" />
    <EXPORT ORDINAL="1774" NAME="unorm_quickCheck_44" PURGE="0" COMMENT="" />
    <EXPORT ORDINAL="1775" NAME="unorm_setIter_44" PURGE="0" COMMENT="" />
    <EXPORT ORDINAL="1776" NAME="uplug_closeLibrary_44" PURGE="0" COMMENT="" />
    <EXPORT ORDINAL="1777" NAME="uplug_findLibrary_44" PURGE="0" COMMENT="" />
    <EXPORT ORDINAL="1778" NAME="uplug_getConfiguration_44" PURGE="0" COMMENT="" />
    <EXPORT ORDINAL="1779" NAME="uplug_getContext_44" PURGE="0" COMMENT="" />
    <EXPORT ORDINAL="1780" NAME="uplug_getCurrentLevel_44" PURGE="0" COMMENT="" />
    <EXPORT ORDINAL="1781" NAME="uplug_getLibraryName_44" PURGE="0" COMMENT="" />
    <EXPORT ORDINAL="1782" NAME="uplug_getLibrary_44" PURGE="0" COMMENT="" />
    <EXPORT ORDINAL="1783" NAME="uplug_getPlugInternal_44" PURGE="0" COMMENT="" />
    <EXPORT ORDINAL="1784" NAME="uplug_getPlugLevel_44" PURGE="0" COMMENT="" />
    <EXPORT ORDINAL="1785" NAME="uplug_getPlugLoadStatus_44" PURGE="0" COMMENT="" />
    <EXPORT ORDINAL="1786" NAME="uplug_getPlugName_44" PURGE="0" COMMENT="" />
    <EXPORT ORDINAL="1787" NAME="uplug_getPluginFile_44" PURGE="0" COMMENT="" />
    <EXPORT ORDINAL="1788" NAME="uplug_getSymbolName_44" PURGE="0" COMMENT="" />
    <EXPORT ORDINAL="1789" NAME="uplug_init_44" PURGE="0" COMMENT="" />
    <EXPORT ORDINAL="1790" NAME="uplug_loadPlugFromEntrypoint_44" PURGE="0" COMMENT="" />
    <EXPORT ORDINAL="1791" NAME="uplug_loadPlugFromLibrary_44" PURGE="0" COMMENT="" />
    <EXPORT ORDINAL="1792" NAME="uplug_nextPlug_44" PURGE="0" COMMENT="" />
    <EXPORT ORDINAL="1793" NAME="uplug_openLibrary_44" PURGE="0" COMMENT="" />
    <EXPORT ORDINAL="1794" NAME="uplug_removePlug_44" PURGE="0" COMMENT="" />
    <EXPORT ORDINAL="1795" NAME="uplug_setContext_44" PURGE="0" COMMENT="" />
    <EXPORT ORDINAL="1796" NAME="uplug_setPlugLevel_44" PURGE="0" COMMENT="" />
    <EXPORT ORDINAL="1797" NAME="uplug_setPlugName_44" PURGE="0" COMMENT="" />
    <EXPORT ORDINAL="1798" NAME="uplug_setPlugNoUnload_44" PURGE="0" COMMENT="" />
    <EXPORT ORDINAL="1799" NAME="upname_swap_44" PURGE="0" COMMENT="" />
    <EXPORT ORDINAL="1800" NAME="uprv_asciitolower_44" PURGE="0" COMMENT="" />
    <EXPORT ORDINAL="1801" NAME="uprv_ceil_44" PURGE="0" COMMENT="" />
    <EXPORT ORDINAL="1802" NAME="uprv_compareASCIIPropertyNames_44" PURGE="0" COMMENT="" />
    <EXPORT ORDINAL="1803" NAME="uprv_compareEBCDICPropertyNames_44" PURGE="0" COMMENT="" />
    <EXPORT ORDINAL="1804" NAME="uprv_compareInvEbcdicAsAscii_44" PURGE="0" COMMENT="" />
    <EXPORT ORDINAL="1805" NAME="uprv_convertToLCID_44" PURGE="0" COMMENT="" />
    <EXPORT ORDINAL="1806" NAME="uprv_convertToPosix_44" PURGE="0" COMMENT="" />
    <EXPORT ORDINAL="1807" NAME="uprv_dl_close_44" PURGE="0" COMMENT="" />
    <EXPORT ORDINAL="1808" NAME="uprv_dl_open_44" PURGE="0" COMMENT="" />
    <EXPORT ORDINAL="1809" NAME="uprv_dl_sym_44" PURGE="0" COMMENT="" />
    <EXPORT ORDINAL="1810" NAME="uprv_ebcdicFromAscii_44" PURGE="0" COMMENT="" />
    <EXPORT ORDINAL="1811" NAME="uprv_ebcdictolower_44" PURGE="0" COMMENT="" />
    <EXPORT ORDINAL="1812" NAME="uprv_fabs_44" PURGE="0" COMMENT="" />
    <EXPORT ORDINAL="1813" NAME="uprv_floor_44" PURGE="0" COMMENT="" />
    <EXPORT ORDINAL="1814" NAME="uprv_fmax_44" PURGE="0" COMMENT="" />
    <EXPORT ORDINAL="1815" NAME="uprv_fmin_44" PURGE="0" COMMENT="" />
    <EXPORT ORDINAL="1816" NAME="uprv_fmod_44" PURGE="0" COMMENT="" />
    <EXPORT ORDINAL="1817" NAME="uprv_free_44" PURGE="0" COMMENT="" />
    <EXPORT ORDINAL="1818" NAME="uprv_getCharNameCharacters_44" PURGE="0" COMMENT="" />
    <EXPORT ORDINAL="1819" NAME="uprv_getDefaultCodepage_44" PURGE="0" COMMENT="" />
    <EXPORT ORDINAL="1820" NAME="uprv_getDefaultLocaleID_44" PURGE="0" COMMENT="" />
    <EXPORT ORDINAL="1821" NAME="uprv_getInfinity_44" PURGE="0" COMMENT="" />
    <EXPORT ORDINAL="1822" NAME="uprv_getMaxCharNameLength_44" PURGE="0" COMMENT="" />
    <EXPORT ORDINAL="1823" NAME="uprv_getNaN_44" PURGE="0" COMMENT="" />
    <EXPORT ORDINAL="1824" NAME="uprv_getUTCtime_44" PURGE="0" COMMENT="" />
    <EXPORT ORDINAL="1825" NAME="uprv_int32Comparator_44" PURGE="0" COMMENT="" />
    <EXPORT ORDINAL="1826" NAME="uprv_isInfinite_44" PURGE="0" COMMENT="" />
    <EXPORT ORDINAL="1827" NAME="uprv_isInvariantString_44" PURGE="0" COMMENT="" />
    <EXPORT ORDINAL="1828" NAME="uprv_isInvariantUString_44" PURGE="0" COMMENT="" />
    <EXPORT ORDINAL="1829" NAME="uprv_isNaN_44" PURGE="0" COMMENT="" />
    <EXPORT ORDINAL="1830" NAME="uprv_isNegativeInfinity_44" PURGE="0" COMMENT="" />
    <EXPORT ORDINAL="1831" NAME="uprv_isPositiveInfinity_44" PURGE="0" COMMENT="" />
    <EXPORT ORDINAL="1832" NAME="uprv_isRuleWhiteSpace_44" PURGE="0" COMMENT="" />
    <EXPORT ORDINAL="1833" NAME="uprv_itou_44" PURGE="0" COMMENT="" />
    <EXPORT ORDINAL="1834" NAME="uprv_log_44" PURGE="0" COMMENT="" />
    <EXPORT ORDINAL="1835" NAME="uprv_malloc_44" PURGE="0" COMMENT="" />
    <EXPORT ORDINAL="1836" NAME="uprv_maxMantissa_44" PURGE="0" COMMENT="" />
    <EXPORT ORDINAL="1837" NAME="uprv_max_44" PURGE="0" COMMENT="" />
    <EXPORT ORDINAL="1838" NAME="uprv_maximumPtr_44" PURGE="0" COMMENT="" />
    <EXPORT ORDINAL="1839" NAME="uprv_min_44" PURGE="0" COMMENT="" />
    <EXPORT ORDINAL="1840" NAME="uprv_modf_44" PURGE="0" COMMENT="" />
    <EXPORT ORDINAL="1841" NAME="uprv_openRuleWhiteSpaceSet_44" PURGE="0" COMMENT="" />
    <EXPORT ORDINAL="1842" NAME="uprv_pathIsAbsolute_44" PURGE="0" COMMENT="" />
    <EXPORT ORDINAL="1843" NAME="uprv_pow10_44" PURGE="0" COMMENT="" />
    <EXPORT ORDINAL="1844" NAME="uprv_pow_44" PURGE="0" COMMENT="" />
    <EXPORT ORDINAL="1845" NAME="uprv_realloc_44" PURGE="0" COMMENT="" />
    <EXPORT ORDINAL="1846" NAME="uprv_round_44" PURGE="0" COMMENT="" />
    <EXPORT ORDINAL="1847" NAME="uprv_sortArray_44" PURGE="0" COMMENT="" />
    <EXPORT ORDINAL="1848" NAME="uprv_strdup_44" PURGE="0" COMMENT="" />
    <EXPORT ORDINAL="1849" NAME="uprv_strndup_44" PURGE="0" COMMENT="" />
    <EXPORT ORDINAL="1850" NAME="uprv_syntaxError_44" PURGE="0" COMMENT="" />
    <EXPORT ORDINAL="1851" NAME="uprv_timezone_44" PURGE="0" COMMENT="" />
    <EXPORT ORDINAL="1852" NAME="uprv_toupper_44" PURGE="0" COMMENT="" />
    <EXPORT ORDINAL="1853" NAME="uprv_trunc_44" PURGE="0" COMMENT="" />
    <EXPORT ORDINAL="1854" NAME="uprv_tzname_44" PURGE="0" COMMENT="" />
    <EXPORT ORDINAL="1855" NAME="uprv_tzset_44" PURGE="0" COMMENT="" />
    <EXPORT ORDINAL="1856" NAME="uprv_uint16Comparator_44" PURGE="0" COMMENT="" />
    <EXPORT ORDINAL="1857" NAME="uprv_uint32Comparator_44" PURGE="0" COMMENT="" />
    <EXPORT ORDINAL="1858" NAME="upvec_cloneArray_44" PURGE="0" COMMENT="" />
    <EXPORT ORDINAL="1859" NAME="upvec_close_44" PURGE="0" COMMENT="" />
    <EXPORT ORDINAL="1860" NAME="upvec_compactToUTrie2Handler_44" PURGE="0" COMMENT="" />
    <EXPORT ORDINAL="1861" NAME="upvec_compactToUTrie2WithRowIndexes_44" PURGE="0" COMMENT="" />
    <EXPORT ORDINAL="1862" NAME="upvec_compactToUTrieHandler_44" PURGE="0" COMMENT="" />
    <EXPORT ORDINAL="1863" NAME="upvec_compact_44" PURGE="0" COMMENT="" />
    <EXPORT ORDINAL="1864" NAME="upvec_getArray_44" PURGE="0" COMMENT="" />
    <EXPORT ORDINAL="1865" NAME="upvec_getRow_44" PURGE="0" COMMENT="" />
    <EXPORT ORDINAL="1866" NAME="upvec_getValue_44" PURGE="0" COMMENT="" />
    <EXPORT ORDINAL="1867" NAME="upvec_open_44" PURGE="0" COMMENT="" />
    <EXPORT ORDINAL="1868" NAME="upvec_setValue_44" PURGE="0" COMMENT="" />
    <EXPORT ORDINAL="1869" NAME="ures_close_44" PURGE="0" COMMENT="" />
    <EXPORT ORDINAL="1870" NAME="ures_countArrayItems_44" PURGE="0" COMMENT="" />
    <EXPORT ORDINAL="1871" NAME="ures_findResource_44" PURGE="0" COMMENT="" />
    <EXPORT ORDINAL="1872" NAME="ures_findSubResource_44" PURGE="0" COMMENT="" />
    <EXPORT ORDINAL="1873" NAME="ures_getBinary_44" PURGE="0" COMMENT="" />
    <EXPORT ORDINAL="1874" NAME="ures_getByIndex_44" PURGE="0" COMMENT="" />
    <EXPORT ORDINAL="1875" NAME="ures_getByKeyWithFallback_44" PURGE="0" COMMENT="" />
    <EXPORT ORDINAL="1876" NAME="ures_getByKey_44" PURGE="0" COMMENT="" />
    <EXPORT ORDINAL="1877" NAME="ures_getFunctionalEquivalent_44" PURGE="0" COMMENT="" />
    <EXPORT ORDINAL="1878" NAME="ures_getIntVector_44" PURGE="0" COMMENT="" />
    <EXPORT ORDINAL="1879" NAME="ures_getInt_44" PURGE="0" COMMENT="" />
    <EXPORT ORDINAL="1880" NAME="ures_getKey_44" PURGE="0" COMMENT="" />
    <EXPORT ORDINAL="1881" NAME="ures_getKeywordValues_44" PURGE="0" COMMENT="" />
    <EXPORT ORDINAL="1882" NAME="ures_getLocaleByType_44" PURGE="0" COMMENT="" />
    <EXPORT ORDINAL="1883" NAME="ures_getLocale_44" PURGE="0" COMMENT="" />
    <EXPORT ORDINAL="1884" NAME="ures_getNextResource_44" PURGE="0" COMMENT="" />
    <EXPORT ORDINAL="1885" NAME="ures_getNextString_44" PURGE="0" COMMENT="" />
    <EXPORT ORDINAL="1886" NAME="ures_getSize_44" PURGE="0" COMMENT="" />
    <EXPORT ORDINAL="1887" NAME="ures_getStringByIndex_44" PURGE="0" COMMENT="" />
    <EXPORT ORDINAL="1888" NAME="ures_getStringByKeyWithFallback_44" PURGE="0" COMMENT="" />
    <EXPORT ORDINAL="1889" NAME="ures_getStringByKey_44" PURGE="0" COMMENT="" />
    <EXPORT ORDINAL="1890" NAME="ures_getString_44" PURGE="0" COMMENT="" />
    <EXPORT ORDINAL="1891" NAME="ures_getType_44" PURGE="0" COMMENT="" />
    <EXPORT ORDINAL="1892" NAME="ures_getUInt_44" PURGE="0" COMMENT="" />
    <EXPORT ORDINAL="1893" NAME="ures_getUTF8StringByIndex_44" PURGE="0" COMMENT="" />
    <EXPORT ORDINAL="1894" NAME="ures_getUTF8StringByKey_44" PURGE="0" COMMENT="" />
    <EXPORT ORDINAL="1895" NAME="ures_getUTF8String_44" PURGE="0" COMMENT="" />
    <EXPORT ORDINAL="1896" NAME="ures_getVersionByKey_44" PURGE="0" COMMENT="" />
    <EXPORT ORDINAL="1897" NAME="ures_getVersionNumber_44" PURGE="0" COMMENT="" />
    <EXPORT ORDINAL="1898" NAME="ures_getVersion_44" PURGE="0" COMMENT="" />
    <EXPORT ORDINAL="1899" NAME="ures_hasNext_44" PURGE="0" COMMENT="" />
    <EXPORT ORDINAL="1900" NAME="ures_initStackObject_44" PURGE="0" COMMENT="" />
    <EXPORT ORDINAL="1901" NAME="ures_openAvailableLocales_44" PURGE="0" COMMENT="" />
    <EXPORT ORDINAL="1902" NAME="ures_openDirect_44" PURGE="0" COMMENT="" />
    <EXPORT ORDINAL="1903" NAME="ures_openFillIn_44" PURGE="0" COMMENT="" />
    <EXPORT ORDINAL="1904" NAME="ures_openU_44" PURGE="0" COMMENT="" />
    <EXPORT ORDINAL="1905" NAME="ures_open_44" PURGE="0" COMMENT="" />
    <EXPORT ORDINAL="1906" NAME="ures_resetIterator_44" PURGE="0" COMMENT="" />
    <EXPORT ORDINAL="1907" NAME="ures_swap_44" PURGE="0" COMMENT="" />
    <EXPORT ORDINAL="1908" NAME="uscript_closeRun_44" PURGE="0" COMMENT="" />
    <EXPORT ORDINAL="1909" NAME="uscript_getCode_44" PURGE="0" COMMENT="" />
    <EXPORT ORDINAL="1910" NAME="uscript_getName_44" PURGE="0" COMMENT="" />
    <EXPORT ORDINAL="1911" NAME="uscript_getScript_44" PURGE="0" COMMENT="" />
    <EXPORT ORDINAL="1912" NAME="uscript_getShortName_44" PURGE="0" COMMENT="" />
    <EXPORT ORDINAL="1913" NAME="uscript_nextRun_44" PURGE="0" COMMENT="" />
    <EXPORT ORDINAL="1914" NAME="uscript_openRun_44" PURGE="0" COMMENT="" />
    <EXPORT ORDINAL="1915" NAME="uscript_resetRun_44" PURGE="0" COMMENT="" />
    <EXPORT ORDINAL="1916" NAME="uscript_setRunText_44" PURGE="0" COMMENT="" />
    <EXPORT ORDINAL="1917" NAME="uset_addAllCodePoints_44" PURGE="0" COMMENT="" />
    <EXPORT ORDINAL="1918" NAME="uset_addAll_44" PURGE="0" COMMENT="" />
    <EXPORT ORDINAL="1919" NAME="uset_addRange_44" PURGE="0" COMMENT="" />
    <EXPORT ORDINAL="1920" NAME="uset_addString_44" PURGE="0" COMMENT="" />
    <EXPORT ORDINAL="1921" NAME="uset_add_44" PURGE="0" COMMENT="" />
    <EXPORT ORDINAL="1922" NAME="uset_applyIntPropertyValue_44" PURGE="0" COMMENT="" />
    <EXPORT ORDINAL="1923" NAME="uset_applyPattern_44" PURGE="0" COMMENT="" />
    <EXPORT ORDINAL="1924" NAME="uset_applyPropertyAlias_44" PURGE="0" COMMENT="" />
    <EXPORT ORDINAL="1925" NAME="uset_charAt_44" PURGE="0" COMMENT="" />
    <EXPORT ORDINAL="1926" NAME="uset_clear_44" PURGE="0" COMMENT="" />
    <EXPORT ORDINAL="1927" NAME="uset_cloneAsThawed_44" PURGE="0" COMMENT="" />
    <EXPORT ORDINAL="1928" NAME="uset_clone_44" PURGE="0" COMMENT="" />
    <EXPORT ORDINAL="1929" NAME="uset_closeOver_44" PURGE="0" COMMENT="" />
    <EXPORT ORDINAL="1930" NAME="uset_close_44" PURGE="0" COMMENT="" />
    <EXPORT ORDINAL="1931" NAME="uset_compact_44" PURGE="0" COMMENT="" />
    <EXPORT ORDINAL="1932" NAME="uset_complementAll_44" PURGE="0" COMMENT="" />
    <EXPORT ORDINAL="1933" NAME="uset_complement_44" PURGE="0" COMMENT="" />
    <EXPORT ORDINAL="1934" NAME="uset_containsAllCodePoints_44" PURGE="0" COMMENT="" />
    <EXPORT ORDINAL="1935" NAME="uset_containsAll_44" PURGE="0" COMMENT="" />
    <EXPORT ORDINAL="1936" NAME="uset_containsNone_44" PURGE="0" COMMENT="" />
    <EXPORT ORDINAL="1937" NAME="uset_containsRange_44" PURGE="0" COMMENT="" />
    <EXPORT ORDINAL="1938" NAME="uset_containsSome_44" PURGE="0" COMMENT="" />
    <EXPORT ORDINAL="1939" NAME="uset_containsString_44" PURGE="0" COMMENT="" />
    <EXPORT ORDINAL="1940" NAME="uset_contains_44" PURGE="0" COMMENT="" />
    <EXPORT ORDINAL="1941" NAME="uset_equals_44" PURGE="0" COMMENT="" />
    <EXPORT ORDINAL="1942" NAME="uset_freeze_44" PURGE="0" COMMENT="" />
    <EXPORT ORDINAL="1943" NAME="uset_getItemCount_44" PURGE="0" COMMENT="" />
    <EXPORT ORDINAL="1944" NAME="uset_getItem_44" PURGE="0" COMMENT="" />
    <EXPORT ORDINAL="1945" NAME="uset_getSerializedRangeCount_44" PURGE="0" COMMENT="" />
    <EXPORT ORDINAL="1946" NAME="uset_getSerializedRange_44" PURGE="0" COMMENT="" />
    <EXPORT ORDINAL="1947" NAME="uset_getSerializedSet_44" PURGE="0" COMMENT="" />
    <EXPORT ORDINAL="1948" NAME="uset_indexOf_44" PURGE="0" COMMENT="" />
    <EXPORT ORDINAL="1949" NAME="uset_isEmpty_44" PURGE="0" COMMENT="" />
    <EXPORT ORDINAL="1950" NAME="uset_isFrozen_44" PURGE="0" COMMENT="" />
    <EXPORT ORDINAL="1951" NAME="uset_openEmpty_44" PURGE="0" COMMENT="" />
    <EXPORT ORDINAL="1952" NAME="uset_openPatternOptions_44" PURGE="0" COMMENT="" />
    <EXPORT ORDINAL="1953" NAME="uset_openPattern_44" PURGE="0" COMMENT="" />
    <EXPORT ORDINAL="1954" NAME="uset_open_44" PURGE="0" COMMENT="" />
    <EXPORT ORDINAL="1955" NAME="uset_removeAllStrings_44" PURGE="0" COMMENT="" />
    <EXPORT ORDINAL="1956" NAME="uset_removeAll_44" PURGE="0" COMMENT="" />
    <EXPORT ORDINAL="1957" NAME="uset_removeRange_44" PURGE="0" COMMENT="" />
    <EXPORT ORDINAL="1958" NAME="uset_removeString_44" PURGE="0" COMMENT="" />
    <EXPORT ORDINAL="1959" NAME="uset_remove_44" PURGE="0" COMMENT="" />
    <EXPORT ORDINAL="1960" NAME="uset_resemblesPattern_44" PURGE="0" COMMENT="" />
    <EXPORT ORDINAL="1961" NAME="uset_retainAll_44" PURGE="0" COMMENT="" />
    <EXPORT ORDINAL="1962" NAME="uset_retain_44" PURGE="0" COMMENT="" />
    <EXPORT ORDINAL="1963" NAME="uset_serialize_44" PURGE="0" COMMENT="" />
    <EXPORT ORDINAL="1964" NAME="uset_serializedContains_44" PURGE="0" COMMENT="" />
    <EXPORT ORDINAL="1965" NAME="uset_setSerializedToOne_44" PURGE="0" COMMENT="" />
    <EXPORT ORDINAL="1966" NAME="uset_set_44" PURGE="0" COMMENT="" />
    <EXPORT ORDINAL="1967" NAME="uset_size_44" PURGE="0" COMMENT="" />
    <EXPORT ORDINAL="1968" NAME="uset_spanBackUTF8_44" PURGE="0" COMMENT="" />
    <EXPORT ORDINAL="1969" NAME="uset_spanBack_44" PURGE="0" COMMENT="" />
    <EXPORT ORDINAL="1970" NAME="uset_spanUTF8_44" PURGE="0" COMMENT="" />
    <EXPORT ORDINAL="1971" NAME="uset_span_44" PURGE="0" COMMENT="" />
    <EXPORT ORDINAL="1972" NAME="uset_toPattern_44" PURGE="0" COMMENT="" />
    <EXPORT ORDINAL="1973" NAME="usprep_close_44" PURGE="0" COMMENT="" />
    <EXPORT ORDINAL="1974" NAME="usprep_openByType_44" PURGE="0" COMMENT="" />
    <EXPORT ORDINAL="1975" NAME="usprep_open_44" PURGE="0" COMMENT="" />
    <EXPORT ORDINAL="1976" NAME="usprep_prepare_44" PURGE="0" COMMENT="" />
    <EXPORT ORDINAL="1977" NAME="usprep_swap_44" PURGE="0" COMMENT="" />
    <EXPORT ORDINAL="1978" NAME="utext_caseCompareNativeLimit_44" PURGE="0" COMMENT="" />
    <EXPORT ORDINAL="1979" NAME="utext_caseCompare_44" PURGE="0" COMMENT="" />
    <EXPORT ORDINAL="1980" NAME="utext_char32At_44" PURGE="0" COMMENT="" />
    <EXPORT ORDINAL="1981" NAME="utext_clone_44" PURGE="0" COMMENT="" />
    <EXPORT ORDINAL="1982" NAME="utext_close_44" PURGE="0" COMMENT="" />
    <EXPORT ORDINAL="1983" NAME="utext_compareNativeLimit_44" PURGE="0" COMMENT="" />
    <EXPORT ORDINAL="1984" NAME="utext_compare_44" PURGE="0" COMMENT="" />
    <EXPORT ORDINAL="1985" NAME="utext_copy_44" PURGE="0" COMMENT="" />
    <EXPORT ORDINAL="1986" NAME="utext_current32_44" PURGE="0" COMMENT="" />
    <EXPORT ORDINAL="1987" NAME="utext_equals_44" PURGE="0" COMMENT="" />
    <EXPORT ORDINAL="1988" NAME="utext_extract_44" PURGE="0" COMMENT="" />
    <EXPORT ORDINAL="1989" NAME="utext_freeze_44" PURGE="0" COMMENT="" />
    <EXPORT ORDINAL="1990" NAME="utext_getNativeIndex_44" PURGE="0" COMMENT="" />
    <EXPORT ORDINAL="1991" NAME="utext_getPreviousNativeIndex_44" PURGE="0" COMMENT="" />
    <EXPORT ORDINAL="1992" NAME="utext_hasMetaData_44" PURGE="0" COMMENT="" />
    <EXPORT ORDINAL="1993" NAME="utext_isLengthExpensive_44" PURGE="0" COMMENT="" />
    <EXPORT ORDINAL="1994" NAME="utext_isWritable_44" PURGE="0" COMMENT="" />
    <EXPORT ORDINAL="1995" NAME="utext_moveIndex32_44" PURGE="0" COMMENT="" />
    <EXPORT ORDINAL="1996" NAME="utext_nativeLength_44" PURGE="0" COMMENT="" />
    <EXPORT ORDINAL="1997" NAME="utext_next32From_44" PURGE="0" COMMENT="" />
    <EXPORT ORDINAL="1998" NAME="utext_next32_44" PURGE="0" COMMENT="" />
    <EXPORT ORDINAL="1999" NAME="utext_openCharacterIterator_44" PURGE="0" COMMENT="" />
    <EXPORT ORDINAL="2000" NAME="utext_openConstUnicodeString_44" PURGE="0" COMMENT="" />
    <EXPORT ORDINAL="2001" NAME="utext_openReplaceable_44" PURGE="0" COMMENT="" />
    <EXPORT ORDINAL="2002" NAME="utext_openUChars_44" PURGE="0" COMMENT="" />
    <EXPORT ORDINAL="2003" NAME="utext_openUTF8_44" PURGE="0" COMMENT="" />
    <EXPORT ORDINAL="2004" NAME="utext_openUnicodeString_44" PURGE="0" COMMENT="" />
    <EXPORT ORDINAL="2005" NAME="utext_previous32From_44" PURGE="0" COMMENT="" />
    <EXPORT ORDINAL="2006" NAME="utext_previous32_44" PURGE="0" COMMENT="" />
    <EXPORT ORDINAL="2007" NAME="utext_replace_44" PURGE="0" COMMENT="" />
    <EXPORT ORDINAL="2008" NAME="utext_setNativeIndex_44" PURGE="0" COMMENT="" />
    <EXPORT ORDINAL="2009" NAME="utext_setup_44" PURGE="0" COMMENT="" />
    <EXPORT ORDINAL="2010" NAME="utf8_appendCharSafeBody_44" PURGE="0" COMMENT="" />
    <EXPORT ORDINAL="2011" NAME="utf8_back1SafeBody_44" PURGE="0" COMMENT="" />
    <EXPORT ORDINAL="2012" NAME="utf8_countTrailBytes_44" PURGE="-1" COMMENT="" />
    <EXPORT ORDINAL="2013" NAME="utf8_nextCharSafeBody_44" PURGE="0" COMMENT="" />
    <EXPORT ORDINAL="2014" NAME="utf8_prevCharSafeBody_44" PURGE="0" COMMENT="" />
    <EXPORT ORDINAL="2015" NAME="utrace_data_44" PURGE="0" COMMENT="" />
    <EXPORT ORDINAL="2016" NAME="utrace_entry_44" PURGE="0" COMMENT="" />
    <EXPORT ORDINAL="2017" NAME="utrace_exit_44" PURGE="0" COMMENT="" />
    <EXPORT ORDINAL="2018" NAME="utrace_format_44" PURGE="0" COMMENT="" />
    <EXPORT ORDINAL="2019" NAME="utrace_functionName_44" PURGE="0" COMMENT="" />
    <EXPORT ORDINAL="2020" NAME="utrace_getFunctions_44" PURGE="0" COMMENT="" />
    <EXPORT ORDINAL="2021" NAME="utrace_getLevel_44" PURGE="0" COMMENT="" />
    <EXPORT ORDINAL="2022" NAME="utrace_level_44" PURGE="-1" COMMENT="" />
    <EXPORT ORDINAL="2023" NAME="utrace_setFunctions_44" PURGE="0" COMMENT="" />
    <EXPORT ORDINAL="2024" NAME="utrace_setLevel_44" PURGE="0" COMMENT="" />
    <EXPORT ORDINAL="2025" NAME="utrace_vformat_44" PURGE="0" COMMENT="" />
    <EXPORT ORDINAL="2026" NAME="utrie2_cloneAsThawed_44" PURGE="0" COMMENT="" />
    <EXPORT ORDINAL="2027" NAME="utrie2_clone_44" PURGE="0" COMMENT="" />
    <EXPORT ORDINAL="2028" NAME="utrie2_close_44" PURGE="0" COMMENT="" />
    <EXPORT ORDINAL="2029" NAME="utrie2_enumForLeadSurrogate_44" PURGE="0" COMMENT="" />
    <EXPORT ORDINAL="2030" NAME="utrie2_enum_44" PURGE="0" COMMENT="" />
    <EXPORT ORDINAL="2031" NAME="utrie2_freeze_44" PURGE="0" COMMENT="" />
    <EXPORT ORDINAL="2032" NAME="utrie2_fromUTrie_44" PURGE="0" COMMENT="" />
    <EXPORT ORDINAL="2033" NAME="utrie2_get32FromLeadSurrogateCodeUnit_44" PURGE="0" COMMENT="" />
    <EXPORT ORDINAL="2034" NAME="utrie2_get32_44" PURGE="0" COMMENT="" />
    <EXPORT ORDINAL="2035" NAME="utrie2_getVersion_44" PURGE="0" COMMENT="" />
    <EXPORT ORDINAL="2036" NAME="utrie2_internalU8NextIndex_44" PURGE="0" COMMENT="" />
    <EXPORT ORDINAL="2037" NAME="utrie2_internalU8PrevIndex_44" PURGE="0" COMMENT="" />
    <EXPORT ORDINAL="2038" NAME="utrie2_isFrozen_44" PURGE="0" COMMENT="" />
    <EXPORT ORDINAL="2039" NAME="utrie2_openDummy_44" PURGE="0" COMMENT="" />
    <EXPORT ORDINAL="2040" NAME="utrie2_openFromSerialized_44" PURGE="0" COMMENT="" />
    <EXPORT ORDINAL="2041" NAME="utrie2_open_44" PURGE="0" COMMENT="" />
    <EXPORT ORDINAL="2042" NAME="utrie2_serialize_44" PURGE="0" COMMENT="" />
    <EXPORT ORDINAL="2043" NAME="utrie2_set32ForLeadSurrogateCodeUnit_44" PURGE="0" COMMENT="" />
    <EXPORT ORDINAL="2044" NAME="utrie2_set32_44" PURGE="0" COMMENT="" />
    <EXPORT ORDINAL="2045" NAME="utrie2_setRange32_44" PURGE="0" COMMENT="" />
    <EXPORT ORDINAL="2046" NAME="utrie2_swap_44" PURGE="0" COMMENT="" />
    <EXPORT ORDINAL="2047" NAME="utrie_clone_44" PURGE="0" COMMENT="" />
    <EXPORT ORDINAL="2048" NAME="utrie_close_44" PURGE="0" COMMENT="" />
    <EXPORT ORDINAL="2049" NAME="utrie_defaultGetFoldingOffset_44" PURGE="0" COMMENT="" />
    <EXPORT ORDINAL="2050" NAME="utrie_enum_44" PURGE="0" COMMENT="" />
    <EXPORT ORDINAL="2051" NAME="utrie_get32_44" PURGE="0" COMMENT="" />
    <EXPORT ORDINAL="2052" NAME="utrie_getData_44" PURGE="0" COMMENT="" />
    <EXPORT ORDINAL="2053" NAME="utrie_open_44" PURGE="0" COMMENT="" />
    <EXPORT ORDINAL="2054" NAME="utrie_serialize_44" PURGE="0" COMMENT="" />
    <EXPORT ORDINAL="2055" NAME="utrie_set32_44" PURGE="0" COMMENT="" />
    <EXPORT ORDINAL="2056" NAME="utrie_setRange32_44" PURGE="0" COMMENT="" />
    <EXPORT ORDINAL="2057" NAME="utrie_swap_44" PURGE="0" COMMENT="" />
    <EXPORT ORDINAL="2058" NAME="utrie_unserializeDummy_44" PURGE="0" COMMENT="" />
    <EXPORT ORDINAL="2059" NAME="utrie_unserialize_44" PURGE="0" COMMENT="" />
</LIBRARY>

