<?xml version="1.0" encoding="UTF-8"?>
<LIBRARY NAME="iisrtl.dll" PATH="/DLLArchive/etc/iisrtl.dll" DATE="Fri Jul 03 12:41:00 PDT 2020" VERSION="6.0.2600.2180 (xpsp_sp2_rtm.040803-2158)">
    <EXPORT ORDINAL="1" NAME="??0?$CDataCache@UDATETIME_FORMAT_ENTRY@@@@QAE@ABUDATETIME_FORMAT_ENTRY@@@Z" PURGE="4" COMMENT="" />
    <EXPORT ORDINAL="2" NAME="??0?$CDataCache@UDATETIME_FORMAT_ENTRY@@@@QAE@XZ" PURGE="0" COMMENT="" />
    <EXPORT ORDINAL="3" NAME="??0?$CDataCache@VCDateTime@@@@QAE@XZ" PURGE="0" COMMENT="" />
    <EXPORT ORDINAL="4" NAME="??0ALLOC_CACHE_HANDLER@@QAE@PBDPBU_ALLOC_CACHE_CONFIGURATION@@H@Z" PURGE="12" COMMENT="" />
    <EXPORT ORDINAL="5" NAME="??0ASCLOG_DATETIME_CACHE@@QAE@XZ" PURGE="0" COMMENT="" />
    <EXPORT ORDINAL="6" NAME="??0BUFFER@@QAE@I@Z" PURGE="4" COMMENT="" />
    <EXPORT ORDINAL="7" NAME="??0BUFFER@@QAE@PAEI@Z" PURGE="8" COMMENT="" />
    <EXPORT ORDINAL="8" NAME="??0BUFFER_CHAIN@@QAE@XZ" PURGE="0" COMMENT="" />
    <EXPORT ORDINAL="9" NAME="??0BUFFER_CHAIN_ITEM@@QAE@I@Z" PURGE="4" COMMENT="" />
    <EXPORT ORDINAL="10" NAME="??0CACHED_DATETIME_FORMATS@@AAE@ABV0@@Z" PURGE="4" COMMENT="" />
    <EXPORT ORDINAL="11" NAME="??0CACHED_DATETIME_FORMATS@@QAE@XZ" PURGE="0" COMMENT="" />
    <EXPORT ORDINAL="12" NAME="??0CCritSec@@QAE@XZ" PURGE="0" COMMENT="" />
    <EXPORT ORDINAL="13" NAME="??0CDFTCache@@QAE@XZ" PURGE="0" COMMENT="" />
    <EXPORT ORDINAL="14" NAME="??0CDateTime@@QAE@ABU_FILETIME@@@Z" PURGE="4" COMMENT="" />
    <EXPORT ORDINAL="15" NAME="??0CDateTime@@QAE@ABU_FILETIME@@ABU_SYSTEMTIME@@@Z" PURGE="8" COMMENT="" />
    <EXPORT ORDINAL="16" NAME="??0CDateTime@@QAE@ABU_SYSTEMTIME@@@Z" PURGE="4" COMMENT="" />
    <EXPORT ORDINAL="17" NAME="??0CDateTime@@QAE@XZ" PURGE="0" COMMENT="" />
    <EXPORT ORDINAL="18" NAME="??0CDoubleList@@QAE@XZ" PURGE="0" COMMENT="" />
    <EXPORT ORDINAL="19" NAME="??0CFakeLock@@QAE@XZ" PURGE="0" COMMENT="" />
    <EXPORT ORDINAL="20" NAME="??0CGlobalInterfaceAPI@@QAE@XZ" PURGE="0" COMMENT="" />
    <EXPORT ORDINAL="21" NAME="??0CLKRHashTable@@AAE@ABV0@@Z" PURGE="4" COMMENT="" />
    <EXPORT ORDINAL="22" NAME="??0CLKRHashTable@@QAE@PBDP6G?BKPBX@ZP6GKK@ZP6G_NKK@ZP6GX1H@ZNKK@Z" PURGE="36" COMMENT="" />
    <EXPORT ORDINAL="23" NAME="??0CLKRHashTableStats@@QAE@XZ" PURGE="0" COMMENT="" />
    <EXPORT ORDINAL="24" NAME="??0CLKRLinearHashTable@@AAE@ABV0@@Z" PURGE="4" COMMENT="" />
    <EXPORT ORDINAL="25" NAME="??0CLKRLinearHashTable@@AAE@PBDP6G?BKPBX@ZP6GKK@ZP6G_NKK@ZP6GX1H@ZNKPAVCLKRHashTable@@@Z" PURGE="36" COMMENT="" />
    <EXPORT ORDINAL="26" NAME="??0CLKRLinearHashTable@@QAE@PBDP6G?BKPBX@ZP6GKK@ZP6G_NKK@ZP6GX1H@ZNKK@Z" PURGE="36" COMMENT="" />
    <EXPORT ORDINAL="27" NAME="??0CLockedDoubleList@@QAE@XZ" PURGE="0" COMMENT="" />
    <EXPORT ORDINAL="28" NAME="??0CLockedSingleList@@QAE@XZ" PURGE="0" COMMENT="" />
    <EXPORT ORDINAL="29" NAME="??0CReaderWriterLock2@@QAE@XZ" PURGE="0" COMMENT="" />
    <EXPORT ORDINAL="30" NAME="??0CReaderWriterLock3@@QAE@XZ" PURGE="0" COMMENT="" />
    <EXPORT ORDINAL="31" NAME="??0CReaderWriterLock@@QAE@XZ" PURGE="0" COMMENT="" />
    <EXPORT ORDINAL="32" NAME="??0CRtlResource@@QAE@XZ" PURGE="0" COMMENT="" />
    <EXPORT ORDINAL="33" NAME="??0CShareLock@@QAE@XZ" PURGE="0" COMMENT="" />
    <EXPORT ORDINAL="34" NAME="??0CSharelock@@QAE@HH@Z" PURGE="8" COMMENT="" />
    <EXPORT ORDINAL="35" NAME="??0CSingleList@@QAE@XZ" PURGE="0" COMMENT="" />
    <EXPORT ORDINAL="36" NAME="??0CSmallSpinLock@@QAE@XZ" PURGE="0" COMMENT="" />
    <EXPORT ORDINAL="37" NAME="??0CSpinLock@@QAE@XZ" PURGE="0" COMMENT="" />
    <EXPORT ORDINAL="38" NAME="??0CStringTraceLog@@QAE@II@Z" PURGE="8" COMMENT="" />
    <EXPORT ORDINAL="39" NAME="??0EVENT_LOG@@QAE@PBD@Z" PURGE="4" COMMENT="" />
    <EXPORT ORDINAL="40" NAME="??0EXTLOG_DATETIME_CACHE@@QAE@XZ" PURGE="0" COMMENT="" />
    <EXPORT ORDINAL="41" NAME="??0HASH_TABLE@@QAE@ABV0@@Z" PURGE="4" COMMENT="" />
    <EXPORT ORDINAL="42" NAME="??0HASH_TABLE@@QAE@KPBDK@Z" PURGE="12" COMMENT="" />
    <EXPORT ORDINAL="43" NAME="??0HASH_TABLE_BUCKET@@QAE@XZ" PURGE="0" COMMENT="" />
    <EXPORT ORDINAL="44" NAME="??0HTB_ELEMENT@@QAE@XZ" PURGE="0" COMMENT="" />
    <EXPORT ORDINAL="45" NAME="??0HT_ELEMENT@@QAE@ABV0@@Z" PURGE="4" COMMENT="" />
    <EXPORT ORDINAL="46" NAME="??0HT_ELEMENT@@QAE@XZ" PURGE="0" COMMENT="" />
    <EXPORT ORDINAL="47" NAME="??0MEMORY_ALLOC_DELETE@@QAE@KKKKKPAX@Z" PURGE="24" COMMENT="" />
    <EXPORT ORDINAL="48" NAME="??0MEMORY_ALLOC_NO_DELETE@@QAE@KKHKPAX@Z" PURGE="20" COMMENT="" />
    <EXPORT ORDINAL="49" NAME="??0MLSZAU@@QAE@AAV0@@Z" PURGE="4" COMMENT="" />
    <EXPORT ORDINAL="50" NAME="??0MLSZAU@@QAE@QADHK@Z" PURGE="12" COMMENT="" />
    <EXPORT ORDINAL="51" NAME="??0MLSZAU@@QAE@QADK@Z" PURGE="8" COMMENT="" />
    <EXPORT ORDINAL="52" NAME="??0MLSZAU@@QAE@QAGK@Z" PURGE="8" COMMENT="" />
    <EXPORT ORDINAL="53" NAME="??0MLSZAU@@QAE@XZ" PURGE="0" COMMENT="" />
    <EXPORT ORDINAL="54" NAME="??0MULTISZ@@QAE@ABV0@@Z" PURGE="4" COMMENT="" />
    <EXPORT ORDINAL="55" NAME="??0MULTISZ@@QAE@PADK@Z" PURGE="8" COMMENT="" />
    <EXPORT ORDINAL="56" NAME="??0MULTISZ@@QAE@PBD@Z" PURGE="4" COMMENT="" />
    <EXPORT ORDINAL="57" NAME="??0MULTISZ@@QAE@XZ" PURGE="0" COMMENT="" />
    <EXPORT ORDINAL="58" NAME="??0STR@@QAE@ABV0@@Z" PURGE="4" COMMENT="" />
    <EXPORT ORDINAL="59" NAME="??0STR@@QAE@K@Z" PURGE="4" COMMENT="" />
    <EXPORT ORDINAL="60" NAME="??0STR@@QAE@PADK@Z" PURGE="8" COMMENT="" />
    <EXPORT ORDINAL="61" NAME="??0STR@@QAE@PBD@Z" PURGE="4" COMMENT="" />
    <EXPORT ORDINAL="62" NAME="??0STR@@QAE@XZ" PURGE="0" COMMENT="" />
    <EXPORT ORDINAL="63" NAME="??0STRAU@@QAE@AAV0@@Z" PURGE="4" COMMENT="" />
    <EXPORT ORDINAL="64" NAME="??0STRAU@@QAE@QAD@Z" PURGE="4" COMMENT="" />
    <EXPORT ORDINAL="65" NAME="??0STRAU@@QAE@QADH@Z" PURGE="8" COMMENT="" />
    <EXPORT ORDINAL="66" NAME="??0STRAU@@QAE@QAG@Z" PURGE="4" COMMENT="" />
    <EXPORT ORDINAL="67" NAME="??0STRAU@@QAE@XZ" PURGE="0" COMMENT="" />
    <EXPORT ORDINAL="68" NAME="??0TS_RESOURCE@@QAE@XZ" PURGE="0" COMMENT="" />
    <EXPORT ORDINAL="69" NAME="??0W3_DATETIME_CACHE@@QAE@XZ" PURGE="0" COMMENT="" />
    <EXPORT ORDINAL="70" NAME="??1ALLOC_CACHE_HANDLER@@QAE@XZ" PURGE="0" COMMENT="" />
    <EXPORT ORDINAL="71" NAME="??1ASCLOG_DATETIME_CACHE@@UAE@XZ" PURGE="0" COMMENT="" />
    <EXPORT ORDINAL="72" NAME="??1BUFFER@@QAE@XZ" PURGE="0" COMMENT="" />
    <EXPORT ORDINAL="73" NAME="??1BUFFER_CHAIN@@QAE@XZ" PURGE="0" COMMENT="" />
    <EXPORT ORDINAL="74" NAME="??1BUFFER_CHAIN_ITEM@@QAE@XZ" PURGE="0" COMMENT="" />
    <EXPORT ORDINAL="75" NAME="??1CACHED_DATETIME_FORMATS@@UAE@XZ" PURGE="0" COMMENT="" />
    <EXPORT ORDINAL="76" NAME="??1CCritSec@@QAE@XZ" PURGE="0" COMMENT="" />
    <EXPORT ORDINAL="77" NAME="??1CDoubleList@@QAE@XZ" PURGE="0" COMMENT="" />
    <EXPORT ORDINAL="78" NAME="??1CFakeLock@@QAE@XZ" PURGE="0" COMMENT="" />
    <EXPORT ORDINAL="79" NAME="??1CGlobalInterfaceAPI@@QAE@XZ" PURGE="0" COMMENT="" />
    <EXPORT ORDINAL="80" NAME="??1CLKRHashTable@@QAE@XZ" PURGE="0" COMMENT="" />
    <EXPORT ORDINAL="81" NAME="??1CLKRLinearHashTable@@QAE@XZ" PURGE="0" COMMENT="" />
    <EXPORT ORDINAL="82" NAME="??1CLockedDoubleList@@QAE@XZ" PURGE="0" COMMENT="" />
    <EXPORT ORDINAL="83" NAME="??1CLockedSingleList@@QAE@XZ" PURGE="0" COMMENT="" />
    <EXPORT ORDINAL="84" NAME="??1CRtlResource@@QAE@XZ" PURGE="0" COMMENT="" />
    <EXPORT ORDINAL="85" NAME="??1CShareLock@@QAE@XZ" PURGE="0" COMMENT="" />
    <EXPORT ORDINAL="86" NAME="??1CSharelock@@QAE@XZ" PURGE="0" COMMENT="" />
    <EXPORT ORDINAL="87" NAME="??1CSingleList@@QAE@XZ" PURGE="0" COMMENT="" />
    <EXPORT ORDINAL="88" NAME="??1CStringTraceLog@@QAE@XZ" PURGE="0" COMMENT="" />
    <EXPORT ORDINAL="89" NAME="??1EVENT_LOG@@QAE@XZ" PURGE="0" COMMENT="" />
    <EXPORT ORDINAL="90" NAME="??1EXTLOG_DATETIME_CACHE@@UAE@XZ" PURGE="0" COMMENT="" />
    <EXPORT ORDINAL="91" NAME="??1HASH_TABLE@@UAE@XZ" PURGE="0" COMMENT="" />
    <EXPORT ORDINAL="92" NAME="??1HASH_TABLE_BUCKET@@QAE@XZ" PURGE="0" COMMENT="" />
    <EXPORT ORDINAL="93" NAME="??1HTB_ELEMENT@@QAE@XZ" PURGE="0" COMMENT="" />
    <EXPORT ORDINAL="94" NAME="??1HT_ELEMENT@@UAE@XZ" PURGE="0" COMMENT="" />
    <EXPORT ORDINAL="95" NAME="??1MEMORY_ALLOC_DELETE@@QAE@XZ" PURGE="0" COMMENT="" />
    <EXPORT ORDINAL="96" NAME="??1MEMORY_ALLOC_NO_DELETE@@QAE@XZ" PURGE="0" COMMENT="" />
    <EXPORT ORDINAL="97" NAME="??1MLSZAU@@QAE@XZ" PURGE="0" COMMENT="" />
    <EXPORT ORDINAL="98" NAME="??1MULTISZ@@QAE@XZ" PURGE="0" COMMENT="" />
    <EXPORT ORDINAL="99" NAME="??1STR@@QAE@XZ" PURGE="0" COMMENT="" />
    <EXPORT ORDINAL="100" NAME="??1STRAU@@QAE@XZ" PURGE="0" COMMENT="" />
    <EXPORT ORDINAL="101" NAME="??1TS_RESOURCE@@QAE@XZ" PURGE="0" COMMENT="" />
    <EXPORT ORDINAL="102" NAME="??1W3_DATETIME_CACHE@@UAE@XZ" PURGE="0" COMMENT="" />
    <EXPORT ORDINAL="103" NAME="??4?$CDataCache@UDATETIME_FORMAT_ENTRY@@@@QAEAAV0@ABV0@@Z" PURGE="4" COMMENT="" />
    <EXPORT ORDINAL="104" NAME="??4?$CDataCache@VCDateTime@@@@QAEAAV0@ABV0@@Z" PURGE="4" COMMENT="" />
    <EXPORT ORDINAL="105" NAME="??4?$CLockBase@$00$00$02$00$02$01@@QAEAAV0@ABV0@@Z" PURGE="4" COMMENT="" />
    <EXPORT ORDINAL="106" NAME="??4?$CLockBase@$01$00$00$00$02$01@@QAEAAV0@ABV0@@Z" PURGE="4" COMMENT="" />
    <EXPORT ORDINAL="107" NAME="??4?$CLockBase@$02$00$00$00$00$00@@QAEAAV0@ABV0@@Z" PURGE="4" COMMENT="" />
    <EXPORT ORDINAL="108" NAME="??4?$CLockBase@$03$00$00$01$02$02@@QAEAAV0@ABV0@@Z" PURGE="4" COMMENT="" />
    <EXPORT ORDINAL="109" NAME="??4?$CLockBase@$04$01$00$01$02$02@@QAEAAV0@ABV0@@Z" PURGE="4" COMMENT="" />
    <EXPORT ORDINAL="110" NAME="??4?$CLockBase@$05$01$00$01$02$02@@QAEAAV0@ABV0@@Z" PURGE="4" COMMENT="" />
    <EXPORT ORDINAL="111" NAME="??4?$CLockBase@$06$01$01$00$02$01@@QAEAAV0@ABV0@@Z" PURGE="4" COMMENT="" />
    <EXPORT ORDINAL="112" NAME="??4?$CLockBase@$07$01$01$00$02$01@@QAEAAV0@ABV0@@Z" PURGE="4" COMMENT="" />
    <EXPORT ORDINAL="113" NAME="??4?$CLockBase@$08$01$00$00$02$01@@QAEAAV0@ABV0@@Z" PURGE="4" COMMENT="" />
    <EXPORT ORDINAL="114" NAME="??4ALLOC_CACHE_HANDLER@@QAEAAV0@ABV0@@Z" PURGE="4" COMMENT="" />
    <EXPORT ORDINAL="115" NAME="??4BUFFER@@QAEAAV0@ABV0@@Z" PURGE="4" COMMENT="" />
    <EXPORT ORDINAL="116" NAME="??4BUFFER_CHAIN@@QAEAAV0@ABV0@@Z" PURGE="4" COMMENT="" />
    <EXPORT ORDINAL="117" NAME="??4BUFFER_CHAIN_ITEM@@QAEAAV0@ABV0@@Z" PURGE="4" COMMENT="" />
    <EXPORT ORDINAL="118" NAME="??4CACHED_DATETIME_FORMATS@@AAEAAV0@ABV0@@Z" PURGE="4" COMMENT="" />
    <EXPORT ORDINAL="119" NAME="??4CCritSec@@QAEAAV0@ABV0@@Z" PURGE="4" COMMENT="" />
    <EXPORT ORDINAL="120" NAME="??4CDFTCache@@QAEAAV0@ABV0@@Z" PURGE="4" COMMENT="" />
    <EXPORT ORDINAL="121" NAME="??4CDateTime@@QAEAAV0@ABV0@@Z" PURGE="4" COMMENT="" />
    <EXPORT ORDINAL="122" NAME="??4CDoubleList@@QAEAAV0@ABV0@@Z" PURGE="4" COMMENT="" />
    <EXPORT ORDINAL="123" NAME="??4CFakeLock@@QAEAAV0@ABV0@@Z" PURGE="4" COMMENT="" />
    <EXPORT ORDINAL="124" NAME="??4CGlobalInterfaceAPI@@QAEAAV0@ABV0@@Z" PURGE="4" COMMENT="" />
    <EXPORT ORDINAL="125" NAME="??4CLKRHashTable@@AAEAAV0@ABV0@@Z" PURGE="4" COMMENT="" />
    <EXPORT ORDINAL="126" NAME="??4CLKRHashTableStats@@QAEAAV0@ABV0@@Z" PURGE="4" COMMENT="" />
    <EXPORT ORDINAL="127" NAME="??4CLKRLinearHashTable@@AAEAAV0@ABV0@@Z" PURGE="4" COMMENT="" />
    <EXPORT ORDINAL="128" NAME="??4CLockedDoubleList@@QAEAAV0@ABV0@@Z" PURGE="4" COMMENT="" />
    <EXPORT ORDINAL="129" NAME="??4CLockedSingleList@@QAEAAV0@ABV0@@Z" PURGE="4" COMMENT="" />
    <EXPORT ORDINAL="130" NAME="??4CReaderWriterLock2@@QAEAAV0@ABV0@@Z" PURGE="4" COMMENT="" />
    <EXPORT ORDINAL="131" NAME="??4CReaderWriterLock3@@QAEAAV0@ABV0@@Z" PURGE="4" COMMENT="" />
    <EXPORT ORDINAL="132" NAME="??4CReaderWriterLock@@QAEAAV0@ABV0@@Z" PURGE="4" COMMENT="" />
    <EXPORT ORDINAL="133" NAME="??4CRtlResource@@QAEAAV0@ABV0@@Z" PURGE="4" COMMENT="" />
    <EXPORT ORDINAL="134" NAME="??4CSingleList@@QAEAAV0@ABV0@@Z" PURGE="4" COMMENT="" />
    <EXPORT ORDINAL="135" NAME="??4CSmallSpinLock@@QAEAAV0@ABV0@@Z" PURGE="4" COMMENT="" />
    <EXPORT ORDINAL="136" NAME="??4CSpinLock@@QAEAAV0@ABV0@@Z" PURGE="4" COMMENT="" />
    <EXPORT ORDINAL="137" NAME="??4DATETIME_FORMAT_ENTRY@@QAEAAU0@ABU0@@Z" PURGE="4" COMMENT="" />
    <EXPORT ORDINAL="138" NAME="??4EVENT_LOG@@QAEAAV0@ABV0@@Z" PURGE="4" COMMENT="" />
    <EXPORT ORDINAL="139" NAME="??4HASH_TABLE@@QAEAAV0@ABV0@@Z" PURGE="4" COMMENT="" />
    <EXPORT ORDINAL="140" NAME="??4HASH_TABLE_BUCKET@@QAEAAV0@ABV0@@Z" PURGE="4" COMMENT="" />
    <EXPORT ORDINAL="141" NAME="??4HTB_ELEMENT@@QAEAAU0@ABU0@@Z" PURGE="4" COMMENT="" />
    <EXPORT ORDINAL="142" NAME="??4HT_ELEMENT@@QAEAAV0@ABV0@@Z" PURGE="4" COMMENT="" />
    <EXPORT ORDINAL="143" NAME="??4MEMORY_ALLOC_DELETE@@QAEAAV0@ABV0@@Z" PURGE="4" COMMENT="" />
    <EXPORT ORDINAL="144" NAME="??4MEMORY_ALLOC_NO_DELETE@@QAEAAV0@ABV0@@Z" PURGE="4" COMMENT="" />
    <EXPORT ORDINAL="145" NAME="??4MLSZAU@@QAEAAV0@ABV0@@Z" PURGE="4" COMMENT="" />
    <EXPORT ORDINAL="146" NAME="??4MULTISZ@@QAEAAV0@ABV0@@Z" PURGE="4" COMMENT="" />
    <EXPORT ORDINAL="147" NAME="??4STR@@QAEAAV0@ABV0@@Z" PURGE="4" COMMENT="" />
    <EXPORT ORDINAL="148" NAME="??4STRAU@@QAEAAV0@ABV0@@Z" PURGE="4" COMMENT="" />
    <EXPORT ORDINAL="149" NAME="??4TS_RESOURCE@@QAEAAV0@ABV0@@Z" PURGE="4" COMMENT="" />
    <EXPORT ORDINAL="150" NAME="??_7ASCLOG_DATETIME_CACHE@@6B@" PURGE="-1" COMMENT="" />
    <EXPORT ORDINAL="151" NAME="??_7CACHED_DATETIME_FORMATS@@6B@" PURGE="-1" COMMENT="" />
    <EXPORT ORDINAL="152" NAME="??_7EXTLOG_DATETIME_CACHE@@6B@" PURGE="-1" COMMENT="" />
    <EXPORT ORDINAL="153" NAME="??_7HASH_TABLE@@6B@" PURGE="0" COMMENT="" />
    <EXPORT ORDINAL="154" NAME="??_7HT_ELEMENT@@6B@" PURGE="-1" COMMENT="" />
    <EXPORT ORDINAL="155" NAME="??_7W3_DATETIME_CACHE@@6B@" PURGE="-1" COMMENT="" />
    <EXPORT ORDINAL="156" NAME="??_FBUFFER@@QAEXXZ" PURGE="0" COMMENT="" />
    <EXPORT ORDINAL="157" NAME="??_FBUFFER_CHAIN_ITEM@@QAEXXZ" PURGE="0" COMMENT="" />
    <EXPORT ORDINAL="158" NAME="??_FCSharelock@@QAEXXZ" PURGE="0" COMMENT="" />
    <EXPORT ORDINAL="159" NAME="??_FCStringTraceLog@@QAEXXZ" PURGE="0" COMMENT="" />
    <EXPORT ORDINAL="160" NAME="?ActiveUsers@CSharelock@@QAEHXZ" PURGE="0" COMMENT="" />
    <EXPORT ORDINAL="161" NAME="?AddBlockToFreeList@MEMORY_ALLOC_NO_DELETE@@AAEXPAX@Z" PURGE="4" COMMENT="" />
    <EXPORT ORDINAL="162" NAME="?AlignAdjust@MEMORY_ALLOC_DELETE@@AAEXAAKK@Z" PURGE="8" COMMENT="" />
    <EXPORT ORDINAL="163" NAME="?AlignAdjust@MEMORY_ALLOC_NO_DELETE@@AAEXAAKK@Z" PURGE="8" COMMENT="" />
    <EXPORT ORDINAL="164" NAME="?Alloc@ALLOC_CACHE_HANDLER@@QAEPAXXZ" PURGE="0" COMMENT="" />
    <EXPORT ORDINAL="165" NAME="?Alloc@MEMORY_ALLOC_DELETE@@QAEPAXXZ" PURGE="0" COMMENT="" />
    <EXPORT ORDINAL="166" NAME="?Alloc@MEMORY_ALLOC_NO_DELETE@@QAEPAXXZ" PURGE="0" COMMENT="" />
    <EXPORT ORDINAL="167" NAME="?AllocBlock@MEMORY_ALLOC_DELETE@@AAEHXZ" PURGE="0" COMMENT="" />
    <EXPORT ORDINAL="168" NAME="?AllocBlock@MEMORY_ALLOC_NO_DELETE@@AAEHXZ" PURGE="0" COMMENT="" />
    <EXPORT ORDINAL="169" NAME="?Append@MULTISZ@@QAEHABVSTR@@@Z" PURGE="4" COMMENT="" />
    <EXPORT ORDINAL="170" NAME="?Append@MULTISZ@@QAEHPBD@Z" PURGE="4" COMMENT="" />
    <EXPORT ORDINAL="171" NAME="?Append@MULTISZ@@QAEHPBDK@Z" PURGE="8" COMMENT="" />
    <EXPORT ORDINAL="172" NAME="?Append@STR@@QAEHABV1@@Z" PURGE="4" COMMENT="" />
    <EXPORT ORDINAL="173" NAME="?Append@STR@@QAEHPBD@Z" PURGE="4" COMMENT="" />
    <EXPORT ORDINAL="174" NAME="?Append@STR@@QAEHPBDK@Z" PURGE="8" COMMENT="" />
    <EXPORT ORDINAL="175" NAME="?Append@STR@@QAEXD@Z" PURGE="4" COMMENT="" />
    <EXPORT ORDINAL="176" NAME="?Append@STR@@QAEXDD@Z" PURGE="8" COMMENT="" />
    <EXPORT ORDINAL="177" NAME="?Append@STRAU@@QAEHAAV1@@Z" PURGE="4" COMMENT="" />
    <EXPORT ORDINAL="178" NAME="?Append@STRAU@@QAEHQAD@Z" PURGE="4" COMMENT="" />
    <EXPORT ORDINAL="179" NAME="?Append@STRAU@@QAEHQADK@Z" PURGE="8" COMMENT="" />
    <EXPORT ORDINAL="180" NAME="?Append@STRAU@@QAEHQAG@Z" PURGE="4" COMMENT="" />
    <EXPORT ORDINAL="181" NAME="?Append@STRAU@@QAEHQAGK@Z" PURGE="8" COMMENT="" />
    <EXPORT ORDINAL="182" NAME="?AppendBuffer@BUFFER_CHAIN@@QAEHPAVBUFFER_CHAIN_ITEM@@@Z" PURGE="4" COMMENT="" />
    <EXPORT ORDINAL="183" NAME="?AppendCRLF@STR@@QAEXXZ" PURGE="0" COMMENT="" />
    <EXPORT ORDINAL="184" NAME="?Apply@CLKRHashTable@@QAEKP6G?AW4LK_ACTION@@PBXPAX@Z1W4LK_LOCKTYPE@@@Z" PURGE="12" COMMENT="" />
    <EXPORT ORDINAL="185" NAME="?Apply@CLKRLinearHashTable@@QAEKP6G?AW4LK_ACTION@@PBXPAX@Z1W4LK_LOCKTYPE@@@Z" PURGE="12" COMMENT="" />
    <EXPORT ORDINAL="186" NAME="?ApplyIf@CLKRHashTable@@QAEKP6G?AW4LK_PREDICATE@@PBXPAX@ZP6G?AW4LK_ACTION@@01@Z1W4LK_LOCKTYPE@@@Z" PURGE="16" COMMENT="" />
    <EXPORT ORDINAL="187" NAME="?ApplyIf@CLKRLinearHashTable@@QAEKP6G?AW4LK_PREDICATE@@PBXPAX@ZP6G?AW4LK_ACTION@@01@Z1W4LK_LOCKTYPE@@@Z" PURGE="16" COMMENT="" />
    <EXPORT ORDINAL="188" NAME="?AssertValid@CGlobalInterfaceAPI@@QBEXXZ" PURGE="0" COMMENT="" />
    <EXPORT ORDINAL="189" NAME="?AuxAppend@MULTISZ@@AAEHPBEIH@Z" PURGE="12" COMMENT="" />
    <EXPORT ORDINAL="190" NAME="?AuxAppend@STR@@AAEHPBEIH@Z" PURGE="12" COMMENT="" />
    <EXPORT ORDINAL="191" NAME="?AuxAppend@STRAU@@AAEHQADIH@Z" PURGE="12" COMMENT="" />
    <EXPORT ORDINAL="192" NAME="?AuxAppend@STRAU@@AAEHQAGIH@Z" PURGE="12" COMMENT="" />
    <EXPORT ORDINAL="193" NAME="?AuxInit@MLSZAU@@AAEXQADK@Z" PURGE="8" COMMENT="" />
    <EXPORT ORDINAL="194" NAME="?AuxInit@MLSZAU@@AAEXQAGK@Z" PURGE="8" COMMENT="" />
    <EXPORT ORDINAL="195" NAME="?AuxInit@MULTISZ@@AAEXPBE@Z" PURGE="4" COMMENT="" />
    <EXPORT ORDINAL="196" NAME="?AuxInit@STR@@AAEXPBE@Z" PURGE="4" COMMENT="" />
    <EXPORT ORDINAL="197" NAME="?AuxInit@STRAU@@AAEXQAD@Z" PURGE="4" COMMENT="" />
    <EXPORT ORDINAL="198" NAME="?AuxInit@STRAU@@AAEXQAG@Z" PURGE="4" COMMENT="" />
    <EXPORT ORDINAL="199" NAME="?BucketIndex@CLKRHashTableStats@@SGJJ@Z" PURGE="4" COMMENT="" />
    <EXPORT ORDINAL="200" NAME="?BucketSize@CLKRHashTableStats@@SGJJ@Z" PURGE="4" COMMENT="" />
    <EXPORT ORDINAL="201" NAME="?BucketSizes@CLKRHashTableStats@@SGPBJXZ" PURGE="0" COMMENT="" />
    <EXPORT ORDINAL="202" NAME="?CalcLength@MULTISZ@@SGKPBDPAK@Z" PURGE="8" COMMENT="" />
    <EXPORT ORDINAL="203" NAME="?CalcTotalSize@BUFFER_CHAIN@@QBEKH@Z" PURGE="4" COMMENT="" />
    <EXPORT ORDINAL="204" NAME="?CalculateHash@HASH_TABLE@@UBEKPBD@Z" PURGE="4" COMMENT="" />
    <EXPORT ORDINAL="205" NAME="?CalculateHash@HASH_TABLE@@UBEKPBDK@Z" PURGE="8" COMMENT="" />
    <EXPORT ORDINAL="206" NAME="CanonURL" PURGE="8" COMMENT="" />
    <EXPORT ORDINAL="207" NAME="?ChangeExclusiveLockToSharedLock@CSharelock@@QAEXXZ" PURGE="0" COMMENT="" />
    <EXPORT ORDINAL="208" NAME="?ChangeSharedLockToExclusiveLock@CSharelock@@QAEEH@Z" PURGE="4" COMMENT="" />
    <EXPORT ORDINAL="209" NAME="?CheckTable@CLKRHashTable@@QBEHXZ" PURGE="0" COMMENT="" />
    <EXPORT ORDINAL="210" NAME="?CheckTable@CLKRLinearHashTable@@QBEHXZ" PURGE="0" COMMENT="" />
    <EXPORT ORDINAL="211" NAME="?ClaimExclusiveLock@CSharelock@@QAEEH@Z" PURGE="4" COMMENT="" />
    <EXPORT ORDINAL="212" NAME="?ClaimShareLock@CSharelock@@QAEEH@Z" PURGE="4" COMMENT="" />
    <EXPORT ORDINAL="213" NAME="?ClassName@CCritSec@@SGPBDXZ" PURGE="0" COMMENT="" />
    <EXPORT ORDINAL="214" NAME="?ClassName@CFakeLock@@SGPBDXZ" PURGE="0" COMMENT="" />
    <EXPORT ORDINAL="215" NAME="?ClassName@CLKRHashTable@@SGPBDXZ" PURGE="0" COMMENT="" />
    <EXPORT ORDINAL="216" NAME="?ClassName@CLKRLinearHashTable@@SGPBDXZ" PURGE="0" COMMENT="" />
    <EXPORT ORDINAL="217" NAME="?ClassName@CReaderWriterLock2@@SGPBDXZ" PURGE="0" COMMENT="" />
    <EXPORT ORDINAL="218" NAME="?ClassName@CReaderWriterLock3@@SGPBDXZ" PURGE="0" COMMENT="" />
    <EXPORT ORDINAL="219" NAME="?ClassName@CReaderWriterLock@@SGPBDXZ" PURGE="0" COMMENT="" />
    <EXPORT ORDINAL="220" NAME="?ClassName@CRtlResource@@SGPBDXZ" PURGE="0" COMMENT="" />
    <EXPORT ORDINAL="221" NAME="?ClassName@CShareLock@@SGPBDXZ" PURGE="0" COMMENT="" />
    <EXPORT ORDINAL="222" NAME="?ClassName@CSmallSpinLock@@SGPBDXZ" PURGE="0" COMMENT="" />
    <EXPORT ORDINAL="223" NAME="?ClassName@CSpinLock@@SGPBDXZ" PURGE="0" COMMENT="" />
    <EXPORT ORDINAL="224" NAME="?Cleanup@ALLOC_CACHE_HANDLER@@SGHXZ" PURGE="0" COMMENT="" />
    <EXPORT ORDINAL="225" NAME="?Cleanup@HASH_TABLE@@QAEXXZ" PURGE="0" COMMENT="" />
    <EXPORT ORDINAL="226" NAME="?Cleanup@HTB_ELEMENT@@QAEXXZ" PURGE="0" COMMENT="" />
    <EXPORT ORDINAL="227" NAME="?CleanupAllLookasides@ALLOC_CACHE_HANDLER@@SGXPAX@Z" PURGE="4" COMMENT="" />
    <EXPORT ORDINAL="228" NAME="?CleanupLookaside@ALLOC_CACHE_HANDLER@@QAEXH@Z" PURGE="4" COMMENT="" />
    <EXPORT ORDINAL="229" NAME="?Clear@CLKRHashTable@@QAEXXZ" PURGE="0" COMMENT="" />
    <EXPORT ORDINAL="230" NAME="?Clear@CLKRLinearHashTable@@QAEXXZ" PURGE="0" COMMENT="" />
    <EXPORT ORDINAL="231" NAME="?Clone@MULTISZ@@QBEHPAV1@@Z" PURGE="4" COMMENT="" />
    <EXPORT ORDINAL="232" NAME="?Clone@STR@@QBEHPAV1@@Z" PURGE="4" COMMENT="" />
    <EXPORT ORDINAL="233" NAME="?CloseIterator@CLKRHashTable@@QAE?AW4LK_RETCODE@@PAVCIterator@1@@Z" PURGE="4" COMMENT="" />
    <EXPORT ORDINAL="234" NAME="?CloseIterator@CLKRHashTable@@QBE?AW4LK_RETCODE@@PAVCConstIterator@1@@Z" PURGE="4" COMMENT="" />
    <EXPORT ORDINAL="235" NAME="?CloseIterator@CLKRLinearHashTable@@QAE?AW4LK_RETCODE@@PAVCIterator@1@@Z" PURGE="4" COMMENT="" />
    <EXPORT ORDINAL="236" NAME="?CloseIterator@CLKRLinearHashTable@@QBE?AW4LK_RETCODE@@PAVCConstIterator@1@@Z" PURGE="4" COMMENT="" />
    <EXPORT ORDINAL="237" NAME="?CloseIterator@HASH_TABLE@@QAEKPAUHT_ITERATOR@@@Z" PURGE="4" COMMENT="" />
    <EXPORT ORDINAL="238" NAME="?CloseIterator@HASH_TABLE_BUCKET@@QAEKPAUHT_ITERATOR@@@Z" PURGE="4" COMMENT="" />
    <EXPORT ORDINAL="239" NAME="?Convert@TS_RESOURCE@@QAEXW4TSRES_CONV_TYPE@@@Z" PURGE="4" COMMENT="" />
    <EXPORT ORDINAL="240" NAME="?ConvertExclusiveToShared@CCritSec@@QAEXXZ" PURGE="0" COMMENT="" />
    <EXPORT ORDINAL="241" NAME="?ConvertExclusiveToShared@CFakeLock@@QAEXXZ" PURGE="0" COMMENT="" />
    <EXPORT ORDINAL="242" NAME="?ConvertExclusiveToShared@CReaderWriterLock2@@QAEXXZ" PURGE="0" COMMENT="" />
    <EXPORT ORDINAL="243" NAME="?ConvertExclusiveToShared@CReaderWriterLock3@@QAEXXZ" PURGE="0" COMMENT="" />
    <EXPORT ORDINAL="244" NAME="?ConvertExclusiveToShared@CReaderWriterLock@@QAEXXZ" PURGE="0" COMMENT="" />
    <EXPORT ORDINAL="245" NAME="?ConvertExclusiveToShared@CRtlResource@@QAEXXZ" PURGE="0" COMMENT="" />
    <EXPORT ORDINAL="246" NAME="?ConvertExclusiveToShared@CShareLock@@QAEXXZ" PURGE="0" COMMENT="" />
    <EXPORT ORDINAL="247" NAME="?ConvertExclusiveToShared@CSmallSpinLock@@QAEXXZ" PURGE="0" COMMENT="" />
    <EXPORT ORDINAL="248" NAME="?ConvertExclusiveToShared@CSpinLock@@QAEXXZ" PURGE="0" COMMENT="" />
    <EXPORT ORDINAL="249" NAME="?ConvertSharedToExclusive@CCritSec@@QAEXXZ" PURGE="0" COMMENT="" />
    <EXPORT ORDINAL="250" NAME="?ConvertSharedToExclusive@CFakeLock@@QAEXXZ" PURGE="0" COMMENT="" />
    <EXPORT ORDINAL="251" NAME="?ConvertSharedToExclusive@CReaderWriterLock2@@QAEXXZ" PURGE="0" COMMENT="" />
    <EXPORT ORDINAL="252" NAME="?ConvertSharedToExclusive@CReaderWriterLock3@@QAEXXZ" PURGE="0" COMMENT="" />
    <EXPORT ORDINAL="253" NAME="?ConvertSharedToExclusive@CReaderWriterLock@@QAEXXZ" PURGE="0" COMMENT="" />
    <EXPORT ORDINAL="254" NAME="?ConvertSharedToExclusive@CRtlResource@@QAEXXZ" PURGE="0" COMMENT="" />
    <EXPORT ORDINAL="255" NAME="?ConvertSharedToExclusive@CShareLock@@QAEXXZ" PURGE="0" COMMENT="" />
    <EXPORT ORDINAL="256" NAME="?ConvertSharedToExclusive@CSmallSpinLock@@QAEXXZ" PURGE="0" COMMENT="" />
    <EXPORT ORDINAL="257" NAME="?ConvertSharedToExclusive@CSpinLock@@QAEXXZ" PURGE="0" COMMENT="" />
    <EXPORT ORDINAL="258" NAME="?Copy@MULTISZ@@QAEHABV1@@Z" PURGE="4" COMMENT="" />
    <EXPORT ORDINAL="259" NAME="?Copy@MULTISZ@@QAEHPBDK@Z" PURGE="8" COMMENT="" />
    <EXPORT ORDINAL="260" NAME="?Copy@STR@@QAEHABV1@@Z" PURGE="4" COMMENT="" />
    <EXPORT ORDINAL="261" NAME="?Copy@STR@@QAEHPBD@Z" PURGE="4" COMMENT="" />
    <EXPORT ORDINAL="262" NAME="?Copy@STR@@QAEHPBDK@Z" PURGE="8" COMMENT="" />
    <EXPORT ORDINAL="263" NAME="?Copy@STRAU@@QAEHAAV1@@Z" PURGE="4" COMMENT="" />
    <EXPORT ORDINAL="264" NAME="?Copy@STRAU@@QAEHQAD@Z" PURGE="4" COMMENT="" />
    <EXPORT ORDINAL="265" NAME="?Copy@STRAU@@QAEHQADK@Z" PURGE="8" COMMENT="" />
    <EXPORT ORDINAL="266" NAME="?Copy@STRAU@@QAEHQAG@Z" PURGE="4" COMMENT="" />
    <EXPORT ORDINAL="267" NAME="?Copy@STRAU@@QAEHQAGK@Z" PURGE="8" COMMENT="" />
    <EXPORT ORDINAL="268" NAME="?CopyFormattedData@CDFTCache@@QBEHPBU_SYSTEMTIME@@PAD@Z" PURGE="8" COMMENT="" />
    <EXPORT ORDINAL="269" NAME="?CopyFormattedData@DATETIME_FORMAT_ENTRY@@QBEXPBU_SYSTEMTIME@@PAD@Z" PURGE="8" COMMENT="" />
    <EXPORT ORDINAL="270" NAME="?CopyToBuffer@MULTISZ@@QBEHPADPAK@Z" PURGE="8" COMMENT="" />
    <EXPORT ORDINAL="271" NAME="?CopyToBuffer@STR@@QBEHPADPAK@Z" PURGE="8" COMMENT="" />
    <EXPORT ORDINAL="272" NAME="?CopyToBuffer@STR@@QBEHPAGPAK@Z" PURGE="8" COMMENT="" />
    <EXPORT ORDINAL="273" NAME="?CreateBlockFreeList@MEMORY_ALLOC_DELETE@@AAEXPAU_MADEL_BLOCK_HEADER@@@Z" PURGE="4" COMMENT="" />
    <EXPORT ORDINAL="274" NAME="CreateKey" PURGE="12" COMMENT="" />
    <EXPORT ORDINAL="275" NAME="?DateTimeChars@CDFTCache@@QBEKXZ" PURGE="0" COMMENT="" />
    <EXPORT ORDINAL="276" NAME="?DayOfWeek3CharNames@@YGPBDK@Z" PURGE="4" COMMENT="" />
    <EXPORT ORDINAL="277" NAME="?DecrementElements@HTB_ELEMENT@@QAEXXZ" PURGE="0" COMMENT="" />
    <EXPORT ORDINAL="278" NAME="?Delete@HASH_TABLE@@QAEHPAVHT_ELEMENT@@@Z" PURGE="4" COMMENT="" />
    <EXPORT ORDINAL="279" NAME="?Delete@HASH_TABLE_BUCKET@@QAEHPAVHT_ELEMENT@@@Z" PURGE="4" COMMENT="" />
    <EXPORT ORDINAL="280" NAME="?Delete@HTB_ELEMENT@@QAEHPAVHT_ELEMENT@@@Z" PURGE="4" COMMENT="" />
    <EXPORT ORDINAL="281" NAME="?DeleteChain@BUFFER_CHAIN@@QAEKXZ" PURGE="0" COMMENT="" />
    <EXPORT ORDINAL="282" NAME="?DeleteIf@CLKRHashTable@@QAEKP6G?AW4LK_PREDICATE@@PBXPAX@Z1@Z" PURGE="8" COMMENT="" />
    <EXPORT ORDINAL="283" NAME="?DeleteIf@CLKRLinearHashTable@@QAEKP6G?AW4LK_PREDICATE@@PBXPAX@Z1@Z" PURGE="8" COMMENT="" />
    <EXPORT ORDINAL="284" NAME="?DeleteKey@CLKRHashTable@@QAE?AW4LK_RETCODE@@K@Z" PURGE="4" COMMENT="" />
    <EXPORT ORDINAL="285" NAME="?DeleteKey@CLKRLinearHashTable@@QAE?AW4LK_RETCODE@@K@Z" PURGE="4" COMMENT="" />
    <EXPORT ORDINAL="286" NAME="?DeleteRecord@CLKRHashTable@@QAE?AW4LK_RETCODE@@PBX@Z" PURGE="4" COMMENT="" />
    <EXPORT ORDINAL="287" NAME="?DeleteRecord@CLKRLinearHashTable@@QAE?AW4LK_RETCODE@@PBX@Z" PURGE="4" COMMENT="" />
    <EXPORT ORDINAL="288" NAME="?DumpStatsToHtml@ALLOC_CACHE_HANDLER@@SGHPADPAK@Z" PURGE="8" COMMENT="" />
    <EXPORT ORDINAL="289" NAME="?Escape@STR@@QAEHXZ" PURGE="0" COMMENT="" />
    <EXPORT ORDINAL="290" NAME="?EscapeSpaces@STR@@QAEHXZ" PURGE="0" COMMENT="" />
    <EXPORT ORDINAL="291" NAME="?FileTimeToGMT@@YGHABU_FILETIME@@PADK@Z" PURGE="12" COMMENT="" />
    <EXPORT ORDINAL="292" NAME="?FileTimeToGMTEx@@YGHABU_FILETIME@@PADKK@Z" PURGE="16" COMMENT="" />
    <EXPORT ORDINAL="293" NAME="?FindKey@CLKRHashTable@@QBE?AW4LK_RETCODE@@KPAPBX@Z" PURGE="8" COMMENT="" />
    <EXPORT ORDINAL="294" NAME="?FindKey@CLKRLinearHashTable@@QBE?AW4LK_RETCODE@@KPAPBX@Z" PURGE="8" COMMENT="" />
    <EXPORT ORDINAL="295" NAME="?FindNextElement@HASH_TABLE@@QAEKPAUHT_ITERATOR@@PAPAVHT_ELEMENT@@@Z" PURGE="8" COMMENT="" />
    <EXPORT ORDINAL="296" NAME="?FindNextElement@HASH_TABLE_BUCKET@@QAEKPAUHT_ITERATOR@@PAPAVHT_ELEMENT@@@Z" PURGE="8" COMMENT="" />
    <EXPORT ORDINAL="297" NAME="?FindNextElement@HTB_ELEMENT@@QAEKPAKPAPAVHT_ELEMENT@@@Z" PURGE="8" COMMENT="" />
    <EXPORT ORDINAL="298" NAME="?FindRecord@CLKRHashTable@@QBE?AW4LK_RETCODE@@PBX@Z" PURGE="4" COMMENT="" />
    <EXPORT ORDINAL="299" NAME="?FindRecord@CLKRLinearHashTable@@QBE?AW4LK_RETCODE@@PBX@Z" PURGE="4" COMMENT="" />
    <EXPORT ORDINAL="300" NAME="?FindString@MULTISZ@@QAEHABVSTR@@@Z" PURGE="4" COMMENT="" />
    <EXPORT ORDINAL="301" NAME="?FindString@MULTISZ@@QAEHPBD@Z" PURGE="4" COMMENT="" />
    <EXPORT ORDINAL="302" NAME="?First@CDoubleList@@QBEQAVCListEntry@@XZ" PURGE="0" COMMENT="" />
    <EXPORT ORDINAL="303" NAME="?First@CLockedDoubleList@@QAEQAVCListEntry@@XZ" PURGE="0" COMMENT="" />
    <EXPORT ORDINAL="304" NAME="?First@MULTISZ@@QBEPBDXZ" PURGE="0" COMMENT="" />
    <EXPORT ORDINAL="305" NAME="?FirstElement@HTB_ELEMENT@@QAEPAUHTBE_ENTRY@@XZ" PURGE="0" COMMENT="" />
    <EXPORT ORDINAL="306" NAME="?FlushElements@HASH_TABLE@@QAEKXZ" PURGE="0" COMMENT="" />
    <EXPORT ORDINAL="307" NAME="?FormatString@STR@@QAEHKQAPBDPBDK@Z" PURGE="16" COMMENT="" />
    <EXPORT ORDINAL="308" NAME="?FormattedBuffer@CDFTCache@@QBEPBDXZ" PURGE="0" COMMENT="" />
    <EXPORT ORDINAL="309" NAME="?Free@ALLOC_CACHE_HANDLER@@QAEHPAX@Z" PURGE="4" COMMENT="" />
    <EXPORT ORDINAL="310" NAME="?Free@MEMORY_ALLOC_DELETE@@QAEHPAX@Z" PURGE="4" COMMENT="" />
    <EXPORT ORDINAL="311" NAME="?Free@MEMORY_ALLOC_NO_DELETE@@QAEHPAX@Z" PURGE="4" COMMENT="" />
    <EXPORT ORDINAL="312" NAME="?FreeMemory@BUFFER@@QAEXXZ" PURGE="0" COMMENT="" />
    <EXPORT ORDINAL="313" NAME="?GenerateDateTimeString@ASCLOG_DATETIME_CACHE@@UAEXPAUDATETIME_FORMAT_ENTRY@@PBU_SYSTEMTIME@@@Z" PURGE="8" COMMENT="" />
    <EXPORT ORDINAL="314" NAME="?GenerateDateTimeString@EXTLOG_DATETIME_CACHE@@UAEXPAUDATETIME_FORMAT_ENTRY@@PBU_SYSTEMTIME@@@Z" PURGE="8" COMMENT="" />
    <EXPORT ORDINAL="315" NAME="?GenerateDateTimeString@W3_DATETIME_CACHE@@UAEXPAUDATETIME_FORMAT_ENTRY@@PBU_SYSTEMTIME@@@Z" PURGE="8" COMMENT="" />
    <EXPORT ORDINAL="316" NAME="?Get@CGlobalInterfaceAPI@@QAEJKABU_GUID@@PAPAX@Z" PURGE="12" COMMENT="" />
    <EXPORT ORDINAL="317" NAME="?GetAllocFromFreeList@MEMORY_ALLOC_NO_DELETE@@AAEPAXXZ" PURGE="0" COMMENT="" />
    <EXPORT ORDINAL="318" NAME="?GetAllocFromList@MEMORY_ALLOC_DELETE@@AAEPAXPAU_LIST_ENTRY@@@Z" PURGE="4" COMMENT="" />
    <EXPORT ORDINAL="319" NAME="?GetBlockFromAlloc@MEMORY_ALLOC_DELETE@@AAEPAU_MADEL_BLOCK_HEADER@@PAU_MADEL_ALLOC_HEADER@@@Z" PURGE="4" COMMENT="" />
    <EXPORT ORDINAL="320" NAME="?GetBucketLockSpinCount@CLKRHashTable@@QAEGXZ" PURGE="0" COMMENT="" />
    <EXPORT ORDINAL="321" NAME="?GetBucketLockSpinCount@CLKRLinearHashTable@@QAEGXZ" PURGE="0" COMMENT="" />
    <EXPORT ORDINAL="322" NAME="?GetDefaultSpinAdjustmentFactor@CCritSec@@SGNXZ" PURGE="0" COMMENT="" />
    <EXPORT ORDINAL="323" NAME="?GetDefaultSpinAdjustmentFactor@CFakeLock@@SGNXZ" PURGE="0" COMMENT="" />
    <EXPORT ORDINAL="324" NAME="?GetDefaultSpinAdjustmentFactor@CReaderWriterLock2@@SGNXZ" PURGE="0" COMMENT="" />
    <EXPORT ORDINAL="325" NAME="?GetDefaultSpinAdjustmentFactor@CReaderWriterLock3@@SGNXZ" PURGE="0" COMMENT="" />
    <EXPORT ORDINAL="326" NAME="?GetDefaultSpinAdjustmentFactor@CReaderWriterLock@@SGNXZ" PURGE="0" COMMENT="" />
    <EXPORT ORDINAL="327" NAME="?GetDefaultSpinAdjustmentFactor@CRtlResource@@SGNXZ" PURGE="0" COMMENT="" />
    <EXPORT ORDINAL="328" NAME="?GetDefaultSpinAdjustmentFactor@CShareLock@@SGNXZ" PURGE="0" COMMENT="" />
    <EXPORT ORDINAL="329" NAME="?GetDefaultSpinAdjustmentFactor@CSmallSpinLock@@SGNXZ" PURGE="0" COMMENT="" />
    <EXPORT ORDINAL="330" NAME="?GetDefaultSpinAdjustmentFactor@CSpinLock@@SGNXZ" PURGE="0" COMMENT="" />
    <EXPORT ORDINAL="331" NAME="?GetDefaultSpinCount@CCritSec@@SGGXZ" PURGE="0" COMMENT="" />
    <EXPORT ORDINAL="332" NAME="?GetDefaultSpinCount@CFakeLock@@SGGXZ" PURGE="0" COMMENT="" />
    <EXPORT ORDINAL="333" NAME="?GetDefaultSpinCount@CReaderWriterLock2@@SGGXZ" PURGE="0" COMMENT="" />
    <EXPORT ORDINAL="334" NAME="?GetDefaultSpinCount@CReaderWriterLock3@@SGGXZ" PURGE="0" COMMENT="" />
    <EXPORT ORDINAL="335" NAME="?GetDefaultSpinCount@CReaderWriterLock@@SGGXZ" PURGE="0" COMMENT="" />
    <EXPORT ORDINAL="336" NAME="?GetDefaultSpinCount@CRtlResource@@SGGXZ" PURGE="0" COMMENT="" />
    <EXPORT ORDINAL="337" NAME="?GetDefaultSpinCount@CShareLock@@SGGXZ" PURGE="0" COMMENT="" />
    <EXPORT ORDINAL="338" NAME="?GetDefaultSpinCount@CSmallSpinLock@@SGGXZ" PURGE="0" COMMENT="" />
    <EXPORT ORDINAL="339" NAME="?GetDefaultSpinCount@CSpinLock@@SGGXZ" PURGE="0" COMMENT="" />
    <EXPORT ORDINAL="340" NAME="?GetErrorCode@EVENT_LOG@@QBEKXZ" PURGE="0" COMMENT="" />
    <EXPORT ORDINAL="341" NAME="?GetFormattedCurrentDateTime@CACHED_DATETIME_FORMATS@@QAEKPAD@Z" PURGE="4" COMMENT="" />
    <EXPORT ORDINAL="342" NAME="?GetFormattedDateTime@CACHED_DATETIME_FORMATS@@QAEKPBU_SYSTEMTIME@@PAD@Z" PURGE="8" COMMENT="" />
    <EXPORT ORDINAL="343" NAME="?GetNewBlockMultiple@MEMORY_ALLOC_DELETE@@AAEXXZ" PURGE="0" COMMENT="" />
    <EXPORT ORDINAL="344" NAME="?GetNewBlockMultiple@MEMORY_ALLOC_NO_DELETE@@AAEXXZ" PURGE="0" COMMENT="" />
    <EXPORT ORDINAL="345" NAME="?GetNewStorage@BUFFER@@AAEHI@Z" PURGE="4" COMMENT="" />
    <EXPORT ORDINAL="346" NAME="?GetSpinCount@CCritSec@@QBEGXZ" PURGE="0" COMMENT="" />
    <EXPORT ORDINAL="347" NAME="?GetSpinCount@CFakeLock@@QBEGXZ" PURGE="0" COMMENT="" />
    <EXPORT ORDINAL="348" NAME="?GetSpinCount@CReaderWriterLock2@@QBEGXZ" PURGE="0" COMMENT="" />
    <EXPORT ORDINAL="349" NAME="?GetSpinCount@CReaderWriterLock3@@QBEGXZ" PURGE="0" COMMENT="" />
    <EXPORT ORDINAL="350" NAME="?GetSpinCount@CReaderWriterLock@@QBEGXZ" PURGE="0" COMMENT="" />
    <EXPORT ORDINAL="351" NAME="?GetSpinCount@CRtlResource@@QBEGXZ" PURGE="0" COMMENT="" />
    <EXPORT ORDINAL="352" NAME="?GetSpinCount@CShareLock@@QBEGXZ" PURGE="0" COMMENT="" />
    <EXPORT ORDINAL="353" NAME="?GetSpinCount@CSmallSpinLock@@QBEGXZ" PURGE="0" COMMENT="" />
    <EXPORT ORDINAL="354" NAME="?GetSpinCount@CSpinLock@@QBEGXZ" PURGE="0" COMMENT="" />
    <EXPORT ORDINAL="355" NAME="?GetStatistics@CLKRHashTable@@QBE?AVCLKRHashTableStats@@XZ" PURGE="4" COMMENT="" />
    <EXPORT ORDINAL="356" NAME="?GetStatistics@CLKRLinearHashTable@@QBE?AVCLKRHashTableStats@@XZ" PURGE="4" COMMENT="" />
    <EXPORT ORDINAL="357" NAME="?GetTableLockSpinCount@CLKRHashTable@@QAEGXZ" PURGE="0" COMMENT="" />
    <EXPORT ORDINAL="358" NAME="?GetTableLockSpinCount@CLKRLinearHashTable@@QAEGXZ" PURGE="0" COMMENT="" />
    <EXPORT ORDINAL="359" NAME="?GetTickCount@CDateTime@@QAEHXZ" PURGE="0" COMMENT="" />
    <EXPORT ORDINAL="360" NAME="?HeadNode@CDoubleList@@QBEQBVCListEntry@@XZ" PURGE="0" COMMENT="" />
    <EXPORT ORDINAL="361" NAME="?HeadNode@CLockedDoubleList@@QBEQBVCListEntry@@XZ" PURGE="0" COMMENT="" />
    <EXPORT ORDINAL="362" NAME="IISCreateDirectory" PURGE="8" COMMENT="" />
    <EXPORT ORDINAL="363" NAME="IISstricmp" PURGE="8" COMMENT="" />
    <EXPORT ORDINAL="364" NAME="IISstrlen" PURGE="4" COMMENT="" />
    <EXPORT ORDINAL="365" NAME="IISstrlwr" PURGE="4" COMMENT="" />
    <EXPORT ORDINAL="366" NAME="IISstrncpy" PURGE="12" COMMENT="" />
    <EXPORT ORDINAL="367" NAME="IISstrnicmp" PURGE="12" COMMENT="" />
    <EXPORT ORDINAL="368" NAME="IISstrrchr" PURGE="8" COMMENT="" />
    <EXPORT ORDINAL="369" NAME="IISstrupr" PURGE="4" COMMENT="" />
    <EXPORT ORDINAL="370" NAME="?IncrementElements@HTB_ELEMENT@@QAEXXZ" PURGE="0" COMMENT="" />
    <EXPORT ORDINAL="371" NAME="?IncrementIterator@CLKRHashTable@@QAE?AW4LK_RETCODE@@PAVCIterator@1@@Z" PURGE="4" COMMENT="" />
    <EXPORT ORDINAL="372" NAME="?IncrementIterator@CLKRHashTable@@QBE?AW4LK_RETCODE@@PAVCConstIterator@1@@Z" PURGE="4" COMMENT="" />
    <EXPORT ORDINAL="373" NAME="?IncrementIterator@CLKRLinearHashTable@@QAE?AW4LK_RETCODE@@PAVCIterator@1@@Z" PURGE="4" COMMENT="" />
    <EXPORT ORDINAL="374" NAME="?IncrementIterator@CLKRLinearHashTable@@QBE?AW4LK_RETCODE@@PAVCConstIterator@1@@Z" PURGE="4" COMMENT="" />
    <EXPORT ORDINAL="375" NAME="?Init@CGlobalInterfaceAPI@@QAEJXZ" PURGE="0" COMMENT="" />
    <EXPORT ORDINAL="376" NAME="?InitAllocHead@MEMORY_ALLOC_DELETE@@AAEXPAU_MADEL_ALLOC_HEADER@@K@Z" PURGE="8" COMMENT="" />
    <EXPORT ORDINAL="377" NAME="?Initialize@ALLOC_CACHE_HANDLER@@SGHXZ" PURGE="0" COMMENT="" />
    <EXPORT ORDINAL="378" NAME="?InitializeIterator@CLKRHashTable@@QAE?AW4LK_RETCODE@@PAVCIterator@1@@Z" PURGE="4" COMMENT="" />
    <EXPORT ORDINAL="379" NAME="?InitializeIterator@CLKRHashTable@@QBE?AW4LK_RETCODE@@PAVCConstIterator@1@@Z" PURGE="4" COMMENT="" />
    <EXPORT ORDINAL="380" NAME="?InitializeIterator@CLKRLinearHashTable@@QAE?AW4LK_RETCODE@@PAVCIterator@1@@Z" PURGE="4" COMMENT="" />
    <EXPORT ORDINAL="381" NAME="?InitializeIterator@CLKRLinearHashTable@@QBE?AW4LK_RETCODE@@PAVCConstIterator@1@@Z" PURGE="4" COMMENT="" />
    <EXPORT ORDINAL="382" NAME="?InitializeIterator@HASH_TABLE@@QAEKPAUHT_ITERATOR@@@Z" PURGE="4" COMMENT="" />
    <EXPORT ORDINAL="383" NAME="?InitializeIterator@HASH_TABLE_BUCKET@@QAEKPAUHT_ITERATOR@@@Z" PURGE="4" COMMENT="" />
    <EXPORT ORDINAL="384" NAME="?Insert@HASH_TABLE@@QAEHPAVHT_ELEMENT@@H@Z" PURGE="8" COMMENT="" />
    <EXPORT ORDINAL="385" NAME="?Insert@HASH_TABLE_BUCKET@@QAEHKPAVHT_ELEMENT@@H@Z" PURGE="12" COMMENT="" />
    <EXPORT ORDINAL="386" NAME="?Insert@HTB_ELEMENT@@QAEHKPAVHT_ELEMENT@@@Z" PURGE="8" COMMENT="" />
    <EXPORT ORDINAL="387" NAME="?InsertHead@CDoubleList@@QAEXQAVCListEntry@@@Z" PURGE="4" COMMENT="" />
    <EXPORT ORDINAL="388" NAME="?InsertHead@CLockedDoubleList@@QAEXQAVCListEntry@@@Z" PURGE="4" COMMENT="" />
    <EXPORT ORDINAL="389" NAME="?InsertNewItem@ALLOC_CACHE_HANDLER@@SGXPAV1@@Z" PURGE="4" COMMENT="" />
    <EXPORT ORDINAL="390" NAME="?InsertRecord@CLKRHashTable@@QAE?AW4LK_RETCODE@@PBX_N@Z" PURGE="8" COMMENT="" />
    <EXPORT ORDINAL="391" NAME="?InsertRecord@CLKRLinearHashTable@@QAE?AW4LK_RETCODE@@PBX_N@Z" PURGE="8" COMMENT="" />
    <EXPORT ORDINAL="392" NAME="?InsertTail@CDoubleList@@QAEXQAVCListEntry@@@Z" PURGE="4" COMMENT="" />
    <EXPORT ORDINAL="393" NAME="?InsertTail@CLockedDoubleList@@QAEXQAVCListEntry@@@Z" PURGE="4" COMMENT="" />
    <EXPORT ORDINAL="394" NAME="?IpPrint@ALLOC_CACHE_HANDLER@@QAEHPADPAK@Z" PURGE="8" COMMENT="" />
    <EXPORT ORDINAL="395" NAME="?IsCurrentUnicode@MLSZAU@@QAEHXZ" PURGE="0" COMMENT="" />
    <EXPORT ORDINAL="396" NAME="?IsCurrentUnicode@STRAU@@QAEHXZ" PURGE="0" COMMENT="" />
    <EXPORT ORDINAL="397" NAME="?IsDynAlloced@BUFFER@@ABEHXZ" PURGE="0" COMMENT="" />
    <EXPORT ORDINAL="398" NAME="?IsEmpty@CDoubleList@@QBE_NXZ" PURGE="0" COMMENT="" />
    <EXPORT ORDINAL="399" NAME="?IsEmpty@CLockedDoubleList@@QBE_NXZ" PURGE="0" COMMENT="" />
    <EXPORT ORDINAL="400" NAME="?IsEmpty@CLockedSingleList@@QBE_NXZ" PURGE="0" COMMENT="" />
    <EXPORT ORDINAL="401" NAME="?IsEmpty@CSingleList@@QBE_NXZ" PURGE="0" COMMENT="" />
    <EXPORT ORDINAL="402" NAME="?IsEmpty@MULTISZ@@QBEHXZ" PURGE="0" COMMENT="" />
    <EXPORT ORDINAL="403" NAME="?IsEmpty@STR@@QBEHXZ" PURGE="0" COMMENT="" />
    <EXPORT ORDINAL="404" NAME="?IsEmpty@STRAU@@QAEHXZ" PURGE="0" COMMENT="" />
    <EXPORT ORDINAL="405" NAME="?IsHit@CDFTCache@@QBEHPBU_SYSTEMTIME@@@Z" PURGE="4" COMMENT="" />
    <EXPORT ORDINAL="406" NAME="?IsHit@DATETIME_FORMAT_ENTRY@@QBEHPBU_SYSTEMTIME@@@Z" PURGE="4" COMMENT="" />
    <EXPORT ORDINAL="407" NAME="IsIPAddressLocal" PURGE="8" COMMENT="" />
    <EXPORT ORDINAL="408" NAME="IsLargeIntegerToDecimalChar" PURGE="8" COMMENT="" />
    <EXPORT ORDINAL="409" NAME="?IsLocked@CLockedDoubleList@@QBE_NXZ" PURGE="0" COMMENT="" />
    <EXPORT ORDINAL="410" NAME="?IsLocked@CLockedSingleList@@QBE_NXZ" PURGE="0" COMMENT="" />
    <EXPORT ORDINAL="411" NAME="?IsReadLocked@CCritSec@@QBE_NXZ" PURGE="0" COMMENT="" />
    <EXPORT ORDINAL="412" NAME="?IsReadLocked@CFakeLock@@QBE_NXZ" PURGE="0" COMMENT="" />
    <EXPORT ORDINAL="413" NAME="?IsReadLocked@CLKRHashTable@@QBE_NXZ" PURGE="0" COMMENT="" />
    <EXPORT ORDINAL="414" NAME="?IsReadLocked@CLKRLinearHashTable@@QBE_NXZ" PURGE="0" COMMENT="" />
    <EXPORT ORDINAL="415" NAME="?IsReadLocked@CReaderWriterLock2@@QBE_NXZ" PURGE="0" COMMENT="" />
    <EXPORT ORDINAL="416" NAME="?IsReadLocked@CReaderWriterLock3@@QBE_NXZ" PURGE="0" COMMENT="" />
    <EXPORT ORDINAL="417" NAME="?IsReadLocked@CReaderWriterLock@@QBE_NXZ" PURGE="0" COMMENT="" />
    <EXPORT ORDINAL="418" NAME="?IsReadLocked@CRtlResource@@QBE_NXZ" PURGE="0" COMMENT="" />
    <EXPORT ORDINAL="419" NAME="?IsReadLocked@CShareLock@@QBE_NXZ" PURGE="0" COMMENT="" />
    <EXPORT ORDINAL="420" NAME="?IsReadLocked@CSmallSpinLock@@QBE_NXZ" PURGE="0" COMMENT="" />
    <EXPORT ORDINAL="421" NAME="?IsReadLocked@CSpinLock@@QBE_NXZ" PURGE="0" COMMENT="" />
    <EXPORT ORDINAL="422" NAME="?IsReadUnlocked@CCritSec@@QBE_NXZ" PURGE="0" COMMENT="" />
    <EXPORT ORDINAL="423" NAME="?IsReadUnlocked@CFakeLock@@QBE_NXZ" PURGE="0" COMMENT="" />
    <EXPORT ORDINAL="424" NAME="?IsReadUnlocked@CLKRHashTable@@QBE_NXZ" PURGE="0" COMMENT="" />
    <EXPORT ORDINAL="425" NAME="?IsReadUnlocked@CLKRLinearHashTable@@QBE_NXZ" PURGE="0" COMMENT="" />
    <EXPORT ORDINAL="426" NAME="?IsReadUnlocked@CReaderWriterLock2@@QBE_NXZ" PURGE="0" COMMENT="" />
    <EXPORT ORDINAL="427" NAME="?IsReadUnlocked@CReaderWriterLock3@@QBE_NXZ" PURGE="0" COMMENT="" />
    <EXPORT ORDINAL="428" NAME="?IsReadUnlocked@CReaderWriterLock@@QBE_NXZ" PURGE="0" COMMENT="" />
    <EXPORT ORDINAL="429" NAME="?IsReadUnlocked@CRtlResource@@QBE_NXZ" PURGE="0" COMMENT="" />
    <EXPORT ORDINAL="430" NAME="?IsReadUnlocked@CShareLock@@QBE_NXZ" PURGE="0" COMMENT="" />
    <EXPORT ORDINAL="431" NAME="?IsReadUnlocked@CSmallSpinLock@@QBE_NXZ" PURGE="0" COMMENT="" />
    <EXPORT ORDINAL="432" NAME="?IsReadUnlocked@CSpinLock@@QBE_NXZ" PURGE="0" COMMENT="" />
    <EXPORT ORDINAL="433" NAME="?IsSpaceAvailable@HTB_ELEMENT@@QBEHXZ" PURGE="0" COMMENT="" />
    <EXPORT ORDINAL="434" NAME="?IsUnlocked@CLockedDoubleList@@QBE_NXZ" PURGE="0" COMMENT="" />
    <EXPORT ORDINAL="435" NAME="?IsUnlocked@CLockedSingleList@@QBE_NXZ" PURGE="0" COMMENT="" />
    <EXPORT ORDINAL="436" NAME="?IsUsable@CLKRHashTable@@QBE_NXZ" PURGE="0" COMMENT="" />
    <EXPORT ORDINAL="437" NAME="?IsUsable@CLKRLinearHashTable@@QBE_NXZ" PURGE="0" COMMENT="" />
    <EXPORT ORDINAL="438" NAME="?IsValid@ALLOC_CACHE_HANDLER@@QBEHXZ" PURGE="0" COMMENT="" />
    <EXPORT ORDINAL="439" NAME="?IsValid@BUFFER@@IBEHXZ" PURGE="0" COMMENT="" />
    <EXPORT ORDINAL="440" NAME="?IsValid@CLKRHashTable@@QBE_NXZ" PURGE="0" COMMENT="" />
    <EXPORT ORDINAL="441" NAME="?IsValid@CLKRLinearHashTable@@QBE_NXZ" PURGE="0" COMMENT="" />
    <EXPORT ORDINAL="442" NAME="?IsValid@HASH_TABLE@@QBEHXZ" PURGE="0" COMMENT="" />
    <EXPORT ORDINAL="443" NAME="?IsValid@MLSZAU@@QAEHXZ" PURGE="0" COMMENT="" />
    <EXPORT ORDINAL="444" NAME="?IsValid@MULTISZ@@QBEHXZ" PURGE="0" COMMENT="" />
    <EXPORT ORDINAL="445" NAME="?IsValid@STR@@QBEHXZ" PURGE="0" COMMENT="" />
    <EXPORT ORDINAL="446" NAME="?IsValid@STRAU@@QAEHXZ" PURGE="0" COMMENT="" />
    <EXPORT ORDINAL="447" NAME="?IsWriteLocked@CCritSec@@QBE_NXZ" PURGE="0" COMMENT="" />
    <EXPORT ORDINAL="448" NAME="?IsWriteLocked@CFakeLock@@QBE_NXZ" PURGE="0" COMMENT="" />
    <EXPORT ORDINAL="449" NAME="?IsWriteLocked@CLKRHashTable@@QBE_NXZ" PURGE="0" COMMENT="" />
    <EXPORT ORDINAL="450" NAME="?IsWriteLocked@CLKRLinearHashTable@@QBE_NXZ" PURGE="0" COMMENT="" />
    <EXPORT ORDINAL="451" NAME="?IsWriteLocked@CReaderWriterLock2@@QBE_NXZ" PURGE="0" COMMENT="" />
    <EXPORT ORDINAL="452" NAME="?IsWriteLocked@CReaderWriterLock3@@QBE_NXZ" PURGE="0" COMMENT="" />
    <EXPORT ORDINAL="453" NAME="?IsWriteLocked@CReaderWriterLock@@QBE_NXZ" PURGE="0" COMMENT="" />
    <EXPORT ORDINAL="454" NAME="?IsWriteLocked@CRtlResource@@QBE_NXZ" PURGE="0" COMMENT="" />
    <EXPORT ORDINAL="455" NAME="?IsWriteLocked@CShareLock@@QBE_NXZ" PURGE="0" COMMENT="" />
    <EXPORT ORDINAL="456" NAME="?IsWriteLocked@CSmallSpinLock@@QBE_NXZ" PURGE="0" COMMENT="" />
    <EXPORT ORDINAL="457" NAME="?IsWriteLocked@CSpinLock@@QBE_NXZ" PURGE="0" COMMENT="" />
    <EXPORT ORDINAL="458" NAME="?IsWriteUnlocked@CCritSec@@QBE_NXZ" PURGE="0" COMMENT="" />
    <EXPORT ORDINAL="459" NAME="?IsWriteUnlocked@CFakeLock@@QBE_NXZ" PURGE="0" COMMENT="" />
    <EXPORT ORDINAL="460" NAME="?IsWriteUnlocked@CLKRHashTable@@QBE_NXZ" PURGE="0" COMMENT="" />
    <EXPORT ORDINAL="461" NAME="?IsWriteUnlocked@CLKRLinearHashTable@@QBE_NXZ" PURGE="0" COMMENT="" />
    <EXPORT ORDINAL="462" NAME="?IsWriteUnlocked@CReaderWriterLock2@@QBE_NXZ" PURGE="0" COMMENT="" />
    <EXPORT ORDINAL="463" NAME="?IsWriteUnlocked@CReaderWriterLock3@@QBE_NXZ" PURGE="0" COMMENT="" />
    <EXPORT ORDINAL="464" NAME="?IsWriteUnlocked@CReaderWriterLock@@QBE_NXZ" PURGE="0" COMMENT="" />
    <EXPORT ORDINAL="465" NAME="?IsWriteUnlocked@CRtlResource@@QBE_NXZ" PURGE="0" COMMENT="" />
    <EXPORT ORDINAL="466" NAME="?IsWriteUnlocked@CShareLock@@QBE_NXZ" PURGE="0" COMMENT="" />
    <EXPORT ORDINAL="467" NAME="?IsWriteUnlocked@CSmallSpinLock@@QBE_NXZ" PURGE="0" COMMENT="" />
    <EXPORT ORDINAL="468" NAME="?IsWriteUnlocked@CSpinLock@@QBE_NXZ" PURGE="0" COMMENT="" />
    <EXPORT ORDINAL="469" NAME="LKRHashTableInit" PURGE="0" COMMENT="" />
    <EXPORT ORDINAL="470" NAME="LKRHashTableUninit" PURGE="0" COMMENT="" />
    <EXPORT ORDINAL="471" NAME="?Last@CDoubleList@@QBEQAVCListEntry@@XZ" PURGE="0" COMMENT="" />
    <EXPORT ORDINAL="472" NAME="?Last@CLockedDoubleList@@QAEQAVCListEntry@@XZ" PURGE="0" COMMENT="" />
    <EXPORT ORDINAL="473" NAME="?LastElement@HTB_ELEMENT@@QAEPAUHTBE_ENTRY@@XZ" PURGE="0" COMMENT="" />
    <EXPORT ORDINAL="474" NAME="?LoadStringA@STR@@QAEHKPAUHINSTANCE__@@@Z" PURGE="8" COMMENT="" />
    <EXPORT ORDINAL="475" NAME="?LoadStringA@STR@@QAEHKPBDK@Z" PURGE="12" COMMENT="" />
    <EXPORT ORDINAL="476" NAME="?Lock@ALLOC_CACHE_HANDLER@@AAEXXZ" PURGE="0" COMMENT="" />
    <EXPORT ORDINAL="477" NAME="?Lock@CLockedDoubleList@@QAEXXZ" PURGE="0" COMMENT="" />
    <EXPORT ORDINAL="478" NAME="?Lock@CLockedSingleList@@QAEXXZ" PURGE="0" COMMENT="" />
    <EXPORT ORDINAL="479" NAME="?Lock@HASH_TABLE_BUCKET@@AAEXXZ" PURGE="0" COMMENT="" />
    <EXPORT ORDINAL="480" NAME="?Lock@TS_RESOURCE@@QAEXW4TSRES_LOCK_TYPE@@@Z" PURGE="4" COMMENT="" />
    <EXPORT ORDINAL="481" NAME="?LockThis@MEMORY_ALLOC_DELETE@@AAEXXZ" PURGE="0" COMMENT="" />
    <EXPORT ORDINAL="482" NAME="?LockThis@MEMORY_ALLOC_NO_DELETE@@AAEXXZ" PURGE="0" COMMENT="" />
    <EXPORT ORDINAL="483" NAME="?LockType@?$CLockBase@$00$00$02$00$02$01@@SG?AW4LOCK_LOCKTYPE@@XZ" PURGE="0" COMMENT="" />
    <EXPORT ORDINAL="484" NAME="?LockType@?$CLockBase@$01$00$00$00$02$01@@SG?AW4LOCK_LOCKTYPE@@XZ" PURGE="0" COMMENT="" />
    <EXPORT ORDINAL="485" NAME="?LockType@?$CLockBase@$02$00$00$00$00$00@@SG?AW4LOCK_LOCKTYPE@@XZ" PURGE="0" COMMENT="" />
    <EXPORT ORDINAL="486" NAME="?LockType@?$CLockBase@$03$00$00$01$02$02@@SG?AW4LOCK_LOCKTYPE@@XZ" PURGE="0" COMMENT="" />
    <EXPORT ORDINAL="487" NAME="?LockType@?$CLockBase@$04$01$00$01$02$02@@SG?AW4LOCK_LOCKTYPE@@XZ" PURGE="0" COMMENT="" />
    <EXPORT ORDINAL="488" NAME="?LockType@?$CLockBase@$05$01$00$01$02$02@@SG?AW4LOCK_LOCKTYPE@@XZ" PURGE="0" COMMENT="" />
    <EXPORT ORDINAL="489" NAME="?LockType@?$CLockBase@$06$01$01$00$02$01@@SG?AW4LOCK_LOCKTYPE@@XZ" PURGE="0" COMMENT="" />
    <EXPORT ORDINAL="490" NAME="?LockType@?$CLockBase@$07$01$01$00$02$01@@SG?AW4LOCK_LOCKTYPE@@XZ" PURGE="0" COMMENT="" />
    <EXPORT ORDINAL="491" NAME="?LockType@?$CLockBase@$08$01$00$00$02$01@@SG?AW4LOCK_LOCKTYPE@@XZ" PURGE="0" COMMENT="" />
    <EXPORT ORDINAL="492" NAME="?LogEvent@EVENT_LOG@@QAEXKGQAPBDK@Z" PURGE="16" COMMENT="" />
    <EXPORT ORDINAL="493" NAME="?LogEventPrivate@EVENT_LOG@@AAEXKGGQAPBDK@Z" PURGE="20" COMMENT="" />
    <EXPORT ORDINAL="494" NAME="?Lookup@HASH_TABLE@@QAEPAVHT_ELEMENT@@PBD@Z" PURGE="4" COMMENT="" />
    <EXPORT ORDINAL="495" NAME="?Lookup@HASH_TABLE@@QAEPAVHT_ELEMENT@@PBDK@Z" PURGE="8" COMMENT="" />
    <EXPORT ORDINAL="496" NAME="?Lookup@HASH_TABLE_BUCKET@@QAEPAVHT_ELEMENT@@KPBDK@Z" PURGE="12" COMMENT="" />
    <EXPORT ORDINAL="497" NAME="?Lookup@HTB_ELEMENT@@QAEPAVHT_ELEMENT@@KPBDK@Z" PURGE="12" COMMENT="" />
    <EXPORT ORDINAL="498" NAME="?MaxSize@CLKRHashTable@@QBEKXZ" PURGE="0" COMMENT="" />
    <EXPORT ORDINAL="499" NAME="?MaxSize@CLKRLinearHashTable@@QBEKXZ" PURGE="0" COMMENT="" />
    <EXPORT ORDINAL="500" NAME="?Month3CharNames@@YGPBDK@Z" PURGE="4" COMMENT="" />
    <EXPORT ORDINAL="501" NAME="?MutexType@?$CLockBase@$00$00$02$00$02$01@@SG?AW4LOCK_RW_MUTEX@@XZ" PURGE="0" COMMENT="" />
    <EXPORT ORDINAL="502" NAME="?MutexType@?$CLockBase@$01$00$00$00$02$01@@SG?AW4LOCK_RW_MUTEX@@XZ" PURGE="0" COMMENT="" />
    <EXPORT ORDINAL="503" NAME="?MutexType@?$CLockBase@$02$00$00$00$00$00@@SG?AW4LOCK_RW_MUTEX@@XZ" PURGE="0" COMMENT="" />
    <EXPORT ORDINAL="504" NAME="?MutexType@?$CLockBase@$03$00$00$01$02$02@@SG?AW4LOCK_RW_MUTEX@@XZ" PURGE="0" COMMENT="" />
    <EXPORT ORDINAL="505" NAME="?MutexType@?$CLockBase@$04$01$00$01$02$02@@SG?AW4LOCK_RW_MUTEX@@XZ" PURGE="0" COMMENT="" />
    <EXPORT ORDINAL="506" NAME="?MutexType@?$CLockBase@$05$01$00$01$02$02@@SG?AW4LOCK_RW_MUTEX@@XZ" PURGE="0" COMMENT="" />
    <EXPORT ORDINAL="507" NAME="?MutexType@?$CLockBase@$06$01$01$00$02$01@@SG?AW4LOCK_RW_MUTEX@@XZ" PURGE="0" COMMENT="" />
    <EXPORT ORDINAL="508" NAME="?MutexType@?$CLockBase@$07$01$01$00$02$01@@SG?AW4LOCK_RW_MUTEX@@XZ" PURGE="0" COMMENT="" />
    <EXPORT ORDINAL="509" NAME="?MutexType@?$CLockBase@$08$01$00$00$02$01@@SG?AW4LOCK_RW_MUTEX@@XZ" PURGE="0" COMMENT="" />
    <EXPORT ORDINAL="510" NAME="?Next@MULTISZ@@QBEPBDPBD@Z" PURGE="4" COMMENT="" />
    <EXPORT ORDINAL="511" NAME="?NextBuffer@BUFFER_CHAIN@@QAEPAVBUFFER_CHAIN_ITEM@@PAV2@@Z" PURGE="4" COMMENT="" />
    <EXPORT ORDINAL="512" NAME="?NextElement@HTB_ELEMENT@@QAEXAAPAUHTBE_ENTRY@@@Z" PURGE="4" COMMENT="" />
    <EXPORT ORDINAL="513" NAME="NtLargeIntegerTimeToLocalSystemTime" PURGE="8" COMMENT="" />
    <EXPORT ORDINAL="514" NAME="NtLargeIntegerTimeToSystemTime" PURGE="8" COMMENT="" />
    <EXPORT ORDINAL="515" NAME="NtSystemTimeToLargeInteger" PURGE="8" COMMENT="" />
    <EXPORT ORDINAL="516" NAME="?NumElements@HTB_ELEMENT@@QBEKXZ" PURGE="0" COMMENT="" />
    <EXPORT ORDINAL="517" NAME="?NumEntries@HASH_TABLE_BUCKET@@QAEKXZ" PURGE="0" COMMENT="" />
    <EXPORT ORDINAL="518" NAME="?NumSubTables@CLKRHashTable@@QBEHXZ" PURGE="0" COMMENT="" />
    <EXPORT ORDINAL="519" NAME="?NumSubTables@CLKRHashTable@@SG?AW4LK_TABLESIZE@@AAK0@Z" PURGE="8" COMMENT="" />
    <EXPORT ORDINAL="520" NAME="?NumSubTables@CLKRLinearHashTable@@QBEHXZ" PURGE="0" COMMENT="" />
    <EXPORT ORDINAL="521" NAME="?NumSubTables@CLKRLinearHashTable@@SG?AW4LK_TABLESIZE@@AAK0@Z" PURGE="8" COMMENT="" />
    <EXPORT ORDINAL="522" NAME="?OffsetSeconds@CDFTCache@@QBEHXZ" PURGE="0" COMMENT="" />
    <EXPORT ORDINAL="523" NAME="?PerLockSpin@?$CLockBase@$00$00$02$00$02$01@@SG?AW4LOCK_PERLOCK_SPIN@@XZ" PURGE="0" COMMENT="" />
    <EXPORT ORDINAL="524" NAME="?PerLockSpin@?$CLockBase@$01$00$00$00$02$01@@SG?AW4LOCK_PERLOCK_SPIN@@XZ" PURGE="0" COMMENT="" />
    <EXPORT ORDINAL="525" NAME="?PerLockSpin@?$CLockBase@$02$00$00$00$00$00@@SG?AW4LOCK_PERLOCK_SPIN@@XZ" PURGE="0" COMMENT="" />
    <EXPORT ORDINAL="526" NAME="?PerLockSpin@?$CLockBase@$03$00$00$01$02$02@@SG?AW4LOCK_PERLOCK_SPIN@@XZ" PURGE="0" COMMENT="" />
    <EXPORT ORDINAL="527" NAME="?PerLockSpin@?$CLockBase@$04$01$00$01$02$02@@SG?AW4LOCK_PERLOCK_SPIN@@XZ" PURGE="0" COMMENT="" />
    <EXPORT ORDINAL="528" NAME="?PerLockSpin@?$CLockBase@$05$01$00$01$02$02@@SG?AW4LOCK_PERLOCK_SPIN@@XZ" PURGE="0" COMMENT="" />
    <EXPORT ORDINAL="529" NAME="?PerLockSpin@?$CLockBase@$06$01$01$00$02$01@@SG?AW4LOCK_PERLOCK_SPIN@@XZ" PURGE="0" COMMENT="" />
    <EXPORT ORDINAL="530" NAME="?PerLockSpin@?$CLockBase@$07$01$01$00$02$01@@SG?AW4LOCK_PERLOCK_SPIN@@XZ" PURGE="0" COMMENT="" />
    <EXPORT ORDINAL="531" NAME="?PerLockSpin@?$CLockBase@$08$01$00$00$02$01@@SG?AW4LOCK_PERLOCK_SPIN@@XZ" PURGE="0" COMMENT="" />
    <EXPORT ORDINAL="532" NAME="?Pop@CLockedSingleList@@QAEQAVCSingleListEntry@@XZ" PURGE="0" COMMENT="" />
    <EXPORT ORDINAL="533" NAME="?Pop@CSingleList@@QAEQAVCSingleListEntry@@XZ" PURGE="0" COMMENT="" />
    <EXPORT ORDINAL="534" NAME="?Print@ALLOC_CACHE_HANDLER@@QAEXXZ" PURGE="0" COMMENT="" />
    <EXPORT ORDINAL="535" NAME="?Print@CLKRHashTable@@QBEXXZ" PURGE="0" COMMENT="" />
    <EXPORT ORDINAL="536" NAME="?Print@CLKRLinearHashTable@@QBEXXZ" PURGE="0" COMMENT="" />
    <EXPORT ORDINAL="537" NAME="?Print@HASH_TABLE@@QAEXK@Z" PURGE="4" COMMENT="" />
    <EXPORT ORDINAL="538" NAME="?Print@HASH_TABLE_BUCKET@@QAEXK@Z" PURGE="4" COMMENT="" />
    <EXPORT ORDINAL="539" NAME="?Print@HTB_ELEMENT@@QBEXK@Z" PURGE="4" COMMENT="" />
    <EXPORT ORDINAL="540" NAME="?Printf@CStringTraceLog@@QAAJPBDZZ" PURGE="0" COMMENT="" />
    <EXPORT ORDINAL="541" NAME="?Push@CLockedSingleList@@QAEXQAVCSingleListEntry@@@Z" PURGE="4" COMMENT="" />
    <EXPORT ORDINAL="542" NAME="?Push@CSingleList@@QAEXQAVCSingleListEntry@@@Z" PURGE="4" COMMENT="" />
    <EXPORT ORDINAL="543" NAME="?Puts@CStringTraceLog@@QAEJPBD@Z" PURGE="4" COMMENT="" />
    <EXPORT ORDINAL="544" NAME="?QueryCB@MLSZAU@@QAEIH@Z" PURGE="4" COMMENT="" />
    <EXPORT ORDINAL="545" NAME="?QueryCB@MULTISZ@@QBEIXZ" PURGE="0" COMMENT="" />
    <EXPORT ORDINAL="546" NAME="?QueryCB@STR@@QBEIXZ" PURGE="0" COMMENT="" />
    <EXPORT ORDINAL="547" NAME="?QueryCB@STRAU@@QAEIH@Z" PURGE="4" COMMENT="" />
    <EXPORT ORDINAL="548" NAME="?QueryCBA@MLSZAU@@QAEIXZ" PURGE="0" COMMENT="" />
    <EXPORT ORDINAL="549" NAME="?QueryCBA@STRAU@@QAEIXZ" PURGE="0" COMMENT="" />
    <EXPORT ORDINAL="550" NAME="?QueryCBW@MLSZAU@@QAEIXZ" PURGE="0" COMMENT="" />
    <EXPORT ORDINAL="551" NAME="?QueryCBW@STRAU@@QAEIXZ" PURGE="0" COMMENT="" />
    <EXPORT ORDINAL="552" NAME="?QueryCCH@MLSZAU@@QAEIXZ" PURGE="0" COMMENT="" />
    <EXPORT ORDINAL="553" NAME="?QueryCCH@MULTISZ@@QBEIXZ" PURGE="0" COMMENT="" />
    <EXPORT ORDINAL="554" NAME="?QueryCCH@STR@@QBEIXZ" PURGE="0" COMMENT="" />
    <EXPORT ORDINAL="555" NAME="?QueryCCH@STRAU@@QAEIXZ" PURGE="0" COMMENT="" />
    <EXPORT ORDINAL="556" NAME="?QueryPtr@BUFFER@@QBEPAXXZ" PURGE="0" COMMENT="" />
    <EXPORT ORDINAL="557" NAME="?QuerySize@BUFFER@@QBEIXZ" PURGE="0" COMMENT="" />
    <EXPORT ORDINAL="558" NAME="?QueryStats@ALLOC_CACHE_HANDLER@@QAEXPAU_ALLOC_CACHE_STATISTICS@@@Z" PURGE="4" COMMENT="" />
    <EXPORT ORDINAL="559" NAME="?QueryStr@MLSZAU@@QAEPADH@Z" PURGE="4" COMMENT="" />
    <EXPORT ORDINAL="560" NAME="?QueryStr@MULTISZ@@QBEPADXZ" PURGE="0" COMMENT="" />
    <EXPORT ORDINAL="561" NAME="?QueryStr@STR@@QBEPADXZ" PURGE="0" COMMENT="" />
    <EXPORT ORDINAL="562" NAME="?QueryStr@STRAU@@QAEPADH@Z" PURGE="4" COMMENT="" />
    <EXPORT ORDINAL="563" NAME="?QueryStrA@MLSZAU@@QAEPADXZ" PURGE="0" COMMENT="" />
    <EXPORT ORDINAL="564" NAME="?QueryStrA@MULTISZ@@QBEPADXZ" PURGE="0" COMMENT="" />
    <EXPORT ORDINAL="565" NAME="?QueryStrA@STR@@QBEPADXZ" PURGE="0" COMMENT="" />
    <EXPORT ORDINAL="566" NAME="?QueryStrA@STRAU@@QAEPADXZ" PURGE="0" COMMENT="" />
    <EXPORT ORDINAL="567" NAME="?QueryStrW@MLSZAU@@QAEPAGXZ" PURGE="0" COMMENT="" />
    <EXPORT ORDINAL="568" NAME="?QueryStrW@STRAU@@QAEPAGXZ" PURGE="0" COMMENT="" />
    <EXPORT ORDINAL="569" NAME="?QueryStringCount@MULTISZ@@QBEKXZ" PURGE="0" COMMENT="" />
    <EXPORT ORDINAL="570" NAME="?QueryUsed@BUFFER_CHAIN_ITEM@@QBEKXZ" PURGE="0" COMMENT="" />
    <EXPORT ORDINAL="571" NAME="?QueueType@?$CLockBase@$00$00$02$00$02$01@@SG?AW4LOCK_QUEUE_TYPE@@XZ" PURGE="0" COMMENT="" />
    <EXPORT ORDINAL="572" NAME="?QueueType@?$CLockBase@$01$00$00$00$02$01@@SG?AW4LOCK_QUEUE_TYPE@@XZ" PURGE="0" COMMENT="" />
    <EXPORT ORDINAL="573" NAME="?QueueType@?$CLockBase@$02$00$00$00$00$00@@SG?AW4LOCK_QUEUE_TYPE@@XZ" PURGE="0" COMMENT="" />
    <EXPORT ORDINAL="574" NAME="?QueueType@?$CLockBase@$03$00$00$01$02$02@@SG?AW4LOCK_QUEUE_TYPE@@XZ" PURGE="0" COMMENT="" />
    <EXPORT ORDINAL="575" NAME="?QueueType@?$CLockBase@$04$01$00$01$02$02@@SG?AW4LOCK_QUEUE_TYPE@@XZ" PURGE="0" COMMENT="" />
    <EXPORT ORDINAL="576" NAME="?QueueType@?$CLockBase@$05$01$00$01$02$02@@SG?AW4LOCK_QUEUE_TYPE@@XZ" PURGE="0" COMMENT="" />
    <EXPORT ORDINAL="577" NAME="?QueueType@?$CLockBase@$06$01$01$00$02$01@@SG?AW4LOCK_QUEUE_TYPE@@XZ" PURGE="0" COMMENT="" />
    <EXPORT ORDINAL="578" NAME="?QueueType@?$CLockBase@$07$01$01$00$02$01@@SG?AW4LOCK_QUEUE_TYPE@@XZ" PURGE="0" COMMENT="" />
    <EXPORT ORDINAL="579" NAME="?QueueType@?$CLockBase@$08$01$00$00$02$01@@SG?AW4LOCK_QUEUE_TYPE@@XZ" PURGE="0" COMMENT="" />
    <EXPORT ORDINAL="580" NAME="?Read@?$CDataCache@UDATETIME_FORMAT_ENTRY@@@@QBE_NAAUDATETIME_FORMAT_ENTRY@@@Z" PURGE="4" COMMENT="" />
    <EXPORT ORDINAL="581" NAME="?Read@?$CDataCache@VCDateTime@@@@QBE_NAAVCDateTime@@@Z" PURGE="4" COMMENT="" />
    <EXPORT ORDINAL="582" NAME="?ReadLock@CCritSec@@QAEXXZ" PURGE="0" COMMENT="" />
    <EXPORT ORDINAL="583" NAME="?ReadLock@CFakeLock@@QAEXXZ" PURGE="0" COMMENT="" />
    <EXPORT ORDINAL="584" NAME="?ReadLock@CLKRHashTable@@QBEXXZ" PURGE="0" COMMENT="" />
    <EXPORT ORDINAL="585" NAME="?ReadLock@CLKRLinearHashTable@@QBEXXZ" PURGE="0" COMMENT="" />
    <EXPORT ORDINAL="586" NAME="?ReadLock@CReaderWriterLock2@@QAEXXZ" PURGE="0" COMMENT="" />
    <EXPORT ORDINAL="587" NAME="?ReadLock@CReaderWriterLock3@@QAEXXZ" PURGE="0" COMMENT="" />
    <EXPORT ORDINAL="588" NAME="?ReadLock@CReaderWriterLock@@QAEXXZ" PURGE="0" COMMENT="" />
    <EXPORT ORDINAL="589" NAME="?ReadLock@CRtlResource@@QAEXXZ" PURGE="0" COMMENT="" />
    <EXPORT ORDINAL="590" NAME="?ReadLock@CShareLock@@QAEXXZ" PURGE="0" COMMENT="" />
    <EXPORT ORDINAL="591" NAME="?ReadLock@CSmallSpinLock@@QAEXXZ" PURGE="0" COMMENT="" />
    <EXPORT ORDINAL="592" NAME="?ReadLock@CSpinLock@@QAEXXZ" PURGE="0" COMMENT="" />
    <EXPORT ORDINAL="593" NAME="?ReadUnlock@CCritSec@@QAEXXZ" PURGE="0" COMMENT="" />
    <EXPORT ORDINAL="594" NAME="?ReadUnlock@CFakeLock@@QAEXXZ" PURGE="0" COMMENT="" />
    <EXPORT ORDINAL="595" NAME="?ReadUnlock@CLKRHashTable@@QBEXXZ" PURGE="0" COMMENT="" />
    <EXPORT ORDINAL="596" NAME="?ReadUnlock@CLKRLinearHashTable@@QBEXXZ" PURGE="0" COMMENT="" />
    <EXPORT ORDINAL="597" NAME="?ReadUnlock@CReaderWriterLock2@@QAEXXZ" PURGE="0" COMMENT="" />
    <EXPORT ORDINAL="598" NAME="?ReadUnlock@CReaderWriterLock3@@QAEXXZ" PURGE="0" COMMENT="" />
    <EXPORT ORDINAL="599" NAME="?ReadUnlock@CReaderWriterLock@@QAEXXZ" PURGE="0" COMMENT="" />
    <EXPORT ORDINAL="600" NAME="?ReadUnlock@CRtlResource@@QAEXXZ" PURGE="0" COMMENT="" />
    <EXPORT ORDINAL="601" NAME="?ReadUnlock@CShareLock@@QAEXXZ" PURGE="0" COMMENT="" />
    <EXPORT ORDINAL="602" NAME="?ReadUnlock@CSmallSpinLock@@QAEXXZ" PURGE="0" COMMENT="" />
    <EXPORT ORDINAL="603" NAME="?ReadUnlock@CSpinLock@@QAEXXZ" PURGE="0" COMMENT="" />
    <EXPORT ORDINAL="604" NAME="?ReallocStorage@BUFFER@@AAEHI@Z" PURGE="4" COMMENT="" />
    <EXPORT ORDINAL="605" NAME="?RecalcLen@MULTISZ@@QAEXXZ" PURGE="0" COMMENT="" />
    <EXPORT ORDINAL="606" NAME="?Recursion@?$CLockBase@$00$00$02$00$02$01@@SG?AW4LOCK_RECURSION@@XZ" PURGE="0" COMMENT="" />
    <EXPORT ORDINAL="607" NAME="?Recursion@?$CLockBase@$01$00$00$00$02$01@@SG?AW4LOCK_RECURSION@@XZ" PURGE="0" COMMENT="" />
    <EXPORT ORDINAL="608" NAME="?Recursion@?$CLockBase@$02$00$00$00$00$00@@SG?AW4LOCK_RECURSION@@XZ" PURGE="0" COMMENT="" />
    <EXPORT ORDINAL="609" NAME="?Recursion@?$CLockBase@$03$00$00$01$02$02@@SG?AW4LOCK_RECURSION@@XZ" PURGE="0" COMMENT="" />
    <EXPORT ORDINAL="610" NAME="?Recursion@?$CLockBase@$04$01$00$01$02$02@@SG?AW4LOCK_RECURSION@@XZ" PURGE="0" COMMENT="" />
    <EXPORT ORDINAL="611" NAME="?Recursion@?$CLockBase@$05$01$00$01$02$02@@SG?AW4LOCK_RECURSION@@XZ" PURGE="0" COMMENT="" />
    <EXPORT ORDINAL="612" NAME="?Recursion@?$CLockBase@$06$01$01$00$02$01@@SG?AW4LOCK_RECURSION@@XZ" PURGE="0" COMMENT="" />
    <EXPORT ORDINAL="613" NAME="?Recursion@?$CLockBase@$07$01$01$00$02$01@@SG?AW4LOCK_RECURSION@@XZ" PURGE="0" COMMENT="" />
    <EXPORT ORDINAL="614" NAME="?Recursion@?$CLockBase@$08$01$00$00$02$01@@SG?AW4LOCK_RECURSION@@XZ" PURGE="0" COMMENT="" />
    <EXPORT ORDINAL="615" NAME="?Register@CGlobalInterfaceAPI@@QAEJPAUIUnknown@@ABU_GUID@@PAK@Z" PURGE="12" COMMENT="" />
    <EXPORT ORDINAL="616" NAME="?RegisterEventSourceChicagoStyle@EVENT_LOG@@AAEPAXPBDPAPAX@Z" PURGE="8" COMMENT="" />
    <EXPORT ORDINAL="617" NAME="?ReleaseExclusiveLock@CSharelock@@QAEXXZ" PURGE="0" COMMENT="" />
    <EXPORT ORDINAL="618" NAME="?ReleaseShareLock@CSharelock@@QAEXXZ" PURGE="0" COMMENT="" />
    <EXPORT ORDINAL="619" NAME="?RemoveEntry@CDoubleList@@SGXQAVCListEntry@@@Z" PURGE="4" COMMENT="" />
    <EXPORT ORDINAL="620" NAME="?RemoveEntry@CLockedDoubleList@@QAEXQAVCListEntry@@@Z" PURGE="4" COMMENT="" />
    <EXPORT ORDINAL="621" NAME="?RemoveHead@CDoubleList@@QAEQAVCListEntry@@XZ" PURGE="0" COMMENT="" />
    <EXPORT ORDINAL="622" NAME="?RemoveHead@CLockedDoubleList@@QAEQAVCListEntry@@XZ" PURGE="0" COMMENT="" />
    <EXPORT ORDINAL="623" NAME="?RemoveItem@ALLOC_CACHE_HANDLER@@SGXPAV1@@Z" PURGE="4" COMMENT="" />
    <EXPORT ORDINAL="624" NAME="?RemoveTail@CDoubleList@@QAEQAVCListEntry@@XZ" PURGE="0" COMMENT="" />
    <EXPORT ORDINAL="625" NAME="?RemoveTail@CLockedDoubleList@@QAEQAVCListEntry@@XZ" PURGE="0" COMMENT="" />
    <EXPORT ORDINAL="626" NAME="RemoveWorkItem" PURGE="4" COMMENT="" />
    <EXPORT ORDINAL="627" NAME="?ReportEventChicagoStyle@EVENT_LOG@@AAEHPAX0KPAPBDK@Z" PURGE="20" COMMENT="" />
    <EXPORT ORDINAL="628" NAME="?Reset@MLSZAU@@QAEXXZ" PURGE="0" COMMENT="" />
    <EXPORT ORDINAL="629" NAME="?Reset@MULTISZ@@QAEXXZ" PURGE="0" COMMENT="" />
    <EXPORT ORDINAL="630" NAME="?Reset@STR@@QAEXXZ" PURGE="0" COMMENT="" />
    <EXPORT ORDINAL="631" NAME="?Reset@STRAU@@QAEXXZ" PURGE="0" COMMENT="" />
    <EXPORT ORDINAL="632" NAME="?ResetLog@CStringTraceLog@@QAEXXZ" PURGE="0" COMMENT="" />
    <EXPORT ORDINAL="633" NAME="?ResetLookasideCleanupInterval@ALLOC_CACHE_HANDLER@@SGHXZ" PURGE="0" COMMENT="" />
    <EXPORT ORDINAL="634" NAME="?Resize@BUFFER@@QAEHI@Z" PURGE="4" COMMENT="" />
    <EXPORT ORDINAL="635" NAME="?Resize@BUFFER@@QAEHII@Z" PURGE="8" COMMENT="" />
    <EXPORT ORDINAL="636" NAME="?Revoke@CGlobalInterfaceAPI@@QAEJK@Z" PURGE="4" COMMENT="" />
    <EXPORT ORDINAL="637" NAME="?SafeCopy@STR@@QAEHPBD@Z" PURGE="4" COMMENT="" />
    <EXPORT ORDINAL="638" NAME="?SafeCopy@STRAU@@QAEHQAD@Z" PURGE="4" COMMENT="" />
    <EXPORT ORDINAL="639" NAME="?SafeCopy@STRAU@@QAEHQAG@Z" PURGE="4" COMMENT="" />
    <EXPORT ORDINAL="640" NAME="ScheduleAdjustTime" PURGE="8" COMMENT="" />
    <EXPORT ORDINAL="641" NAME="ScheduleWorkItem" PURGE="16" COMMENT="" />
    <EXPORT ORDINAL="642" NAME="SchedulerInitialize" PURGE="0" COMMENT="" />
    <EXPORT ORDINAL="643" NAME="SchedulerTerminate" PURGE="0" COMMENT="" />
    <EXPORT ORDINAL="644" NAME="?Seconds@CDFTCache@@QBEGXZ" PURGE="0" COMMENT="" />
    <EXPORT ORDINAL="645" NAME="?SetBucketLockSpinCount@CLKRHashTable@@QAEXG@Z" PURGE="4" COMMENT="" />
    <EXPORT ORDINAL="646" NAME="?SetBucketLockSpinCount@CLKRLinearHashTable@@QAEXG@Z" PURGE="4" COMMENT="" />
    <EXPORT ORDINAL="647" NAME="?SetDefaultSpinAdjustmentFactor@CCritSec@@SGXN@Z" PURGE="8" COMMENT="" />
    <EXPORT ORDINAL="648" NAME="?SetDefaultSpinAdjustmentFactor@CFakeLock@@SGXN@Z" PURGE="8" COMMENT="" />
    <EXPORT ORDINAL="649" NAME="?SetDefaultSpinAdjustmentFactor@CReaderWriterLock2@@SGXN@Z" PURGE="8" COMMENT="" />
    <EXPORT ORDINAL="650" NAME="?SetDefaultSpinAdjustmentFactor@CReaderWriterLock3@@SGXN@Z" PURGE="8" COMMENT="" />
    <EXPORT ORDINAL="651" NAME="?SetDefaultSpinAdjustmentFactor@CReaderWriterLock@@SGXN@Z" PURGE="8" COMMENT="" />
    <EXPORT ORDINAL="652" NAME="?SetDefaultSpinAdjustmentFactor@CRtlResource@@SGXN@Z" PURGE="8" COMMENT="" />
    <EXPORT ORDINAL="653" NAME="?SetDefaultSpinAdjustmentFactor@CShareLock@@SGXN@Z" PURGE="8" COMMENT="" />
    <EXPORT ORDINAL="654" NAME="?SetDefaultSpinAdjustmentFactor@CSmallSpinLock@@SGXN@Z" PURGE="8" COMMENT="" />
    <EXPORT ORDINAL="655" NAME="?SetDefaultSpinAdjustmentFactor@CSpinLock@@SGXN@Z" PURGE="8" COMMENT="" />
    <EXPORT ORDINAL="656" NAME="?SetDefaultSpinCount@CCritSec@@SGXG@Z" PURGE="4" COMMENT="" />
    <EXPORT ORDINAL="657" NAME="?SetDefaultSpinCount@CFakeLock@@SGXG@Z" PURGE="4" COMMENT="" />
    <EXPORT ORDINAL="658" NAME="?SetDefaultSpinCount@CReaderWriterLock2@@SGXG@Z" PURGE="4" COMMENT="" />
    <EXPORT ORDINAL="659" NAME="?SetDefaultSpinCount@CReaderWriterLock3@@SGXG@Z" PURGE="4" COMMENT="" />
    <EXPORT ORDINAL="660" NAME="?SetDefaultSpinCount@CReaderWriterLock@@SGXG@Z" PURGE="4" COMMENT="" />
    <EXPORT ORDINAL="661" NAME="?SetDefaultSpinCount@CRtlResource@@SGXG@Z" PURGE="4" COMMENT="" />
    <EXPORT ORDINAL="662" NAME="?SetDefaultSpinCount@CShareLock@@SGXG@Z" PURGE="4" COMMENT="" />
    <EXPORT ORDINAL="663" NAME="?SetDefaultSpinCount@CSmallSpinLock@@SGXG@Z" PURGE="4" COMMENT="" />
    <EXPORT ORDINAL="664" NAME="?SetDefaultSpinCount@CSpinLock@@SGXG@Z" PURGE="4" COMMENT="" />
    <EXPORT ORDINAL="665" NAME="?SetLen@STR@@QAEHK@Z" PURGE="4" COMMENT="" />
    <EXPORT ORDINAL="666" NAME="?SetLen@STRAU@@QAEHK@Z" PURGE="4" COMMENT="" />
    <EXPORT ORDINAL="667" NAME="?SetLocalTime@ASCLOG_DATETIME_CACHE@@QAEXPAU_SYSTEMTIME@@@Z" PURGE="4" COMMENT="" />
    <EXPORT ORDINAL="668" NAME="?SetLookasideCleanupInterval@ALLOC_CACHE_HANDLER@@SGHXZ" PURGE="0" COMMENT="" />
    <EXPORT ORDINAL="669" NAME="?SetSpinCount@CCritSec@@QAE_NG@Z" PURGE="4" COMMENT="" />
    <EXPORT ORDINAL="670" NAME="?SetSpinCount@CCritSec@@SGKPAU_RTL_CRITICAL_SECTION@@K@Z" PURGE="8" COMMENT="" />
    <EXPORT ORDINAL="671" NAME="?SetSpinCount@CFakeLock@@QAE_NG@Z" PURGE="4" COMMENT="" />
    <EXPORT ORDINAL="672" NAME="?SetSpinCount@CReaderWriterLock2@@QAE_NG@Z" PURGE="4" COMMENT="" />
    <EXPORT ORDINAL="673" NAME="?SetSpinCount@CReaderWriterLock3@@QAE_NG@Z" PURGE="4" COMMENT="" />
    <EXPORT ORDINAL="674" NAME="?SetSpinCount@CReaderWriterLock@@QAE_NG@Z" PURGE="4" COMMENT="" />
    <EXPORT ORDINAL="675" NAME="?SetSpinCount@CRtlResource@@QAE_NG@Z" PURGE="4" COMMENT="" />
    <EXPORT ORDINAL="676" NAME="?SetSpinCount@CShareLock@@QAE_NG@Z" PURGE="4" COMMENT="" />
    <EXPORT ORDINAL="677" NAME="?SetSpinCount@CSmallSpinLock@@QAE_NG@Z" PURGE="4" COMMENT="" />
    <EXPORT ORDINAL="678" NAME="?SetSpinCount@CSpinLock@@QAE_NG@Z" PURGE="4" COMMENT="" />
    <EXPORT ORDINAL="679" NAME="?SetSystemTime@EXTLOG_DATETIME_CACHE@@QAEXPAU_SYSTEMTIME@@@Z" PURGE="4" COMMENT="" />
    <EXPORT ORDINAL="680" NAME="?SetTableLockSpinCount@CLKRHashTable@@QAEXG@Z" PURGE="4" COMMENT="" />
    <EXPORT ORDINAL="681" NAME="?SetTableLockSpinCount@CLKRLinearHashTable@@QAEXG@Z" PURGE="4" COMMENT="" />
    <EXPORT ORDINAL="682" NAME="?SetTime@CDateTime@@QAEHABU_FILETIME@@@Z" PURGE="4" COMMENT="" />
    <EXPORT ORDINAL="683" NAME="?SetTime@CDateTime@@QAEHABU_SYSTEMTIME@@@Z" PURGE="4" COMMENT="" />
    <EXPORT ORDINAL="684" NAME="?SetUsed@BUFFER_CHAIN_ITEM@@QAEXK@Z" PURGE="4" COMMENT="" />
    <EXPORT ORDINAL="685" NAME="?SetValid@BUFFER@@IAEXH@Z" PURGE="4" COMMENT="" />
    <EXPORT ORDINAL="686" NAME="?Size@CLKRHashTable@@QBEKXZ" PURGE="0" COMMENT="" />
    <EXPORT ORDINAL="687" NAME="?Size@CLKRLinearHashTable@@QBEKXZ" PURGE="0" COMMENT="" />
    <EXPORT ORDINAL="688" NAME="?SleepWaitingForLock@CSharelock@@AAEEH@Z" PURGE="4" COMMENT="" />
    <EXPORT ORDINAL="689" NAME="StringTimeToFileTime" PURGE="8" COMMENT="" />
    <EXPORT ORDINAL="690" NAME="?Success@EVENT_LOG@@QBEHXZ" PURGE="0" COMMENT="" />
    <EXPORT ORDINAL="691" NAME="SystemTimeToGMT" PURGE="12" COMMENT="" />
    <EXPORT ORDINAL="692" NAME="SystemTimeToGMTEx" PURGE="16" COMMENT="" />
    <EXPORT ORDINAL="693" NAME="?TryReadLock@CCritSec@@QAE_NXZ" PURGE="0" COMMENT="" />
    <EXPORT ORDINAL="694" NAME="?TryReadLock@CFakeLock@@QAE_NXZ" PURGE="0" COMMENT="" />
    <EXPORT ORDINAL="695" NAME="?TryReadLock@CReaderWriterLock2@@QAE_NXZ" PURGE="0" COMMENT="" />
    <EXPORT ORDINAL="696" NAME="?TryReadLock@CReaderWriterLock3@@QAE_NXZ" PURGE="0" COMMENT="" />
    <EXPORT ORDINAL="697" NAME="?TryReadLock@CReaderWriterLock@@QAE_NXZ" PURGE="0" COMMENT="" />
    <EXPORT ORDINAL="698" NAME="?TryReadLock@CRtlResource@@QAE_NXZ" PURGE="0" COMMENT="" />
    <EXPORT ORDINAL="699" NAME="?TryReadLock@CShareLock@@QAE_NXZ" PURGE="0" COMMENT="" />
    <EXPORT ORDINAL="700" NAME="?TryReadLock@CSmallSpinLock@@QAE_NXZ" PURGE="0" COMMENT="" />
    <EXPORT ORDINAL="701" NAME="?TryReadLock@CSpinLock@@QAE_NXZ" PURGE="0" COMMENT="" />
    <EXPORT ORDINAL="702" NAME="?TryWriteLock@CCritSec@@QAE_NXZ" PURGE="0" COMMENT="" />
    <EXPORT ORDINAL="703" NAME="?TryWriteLock@CFakeLock@@QAE_NXZ" PURGE="0" COMMENT="" />
    <EXPORT ORDINAL="704" NAME="?TryWriteLock@CReaderWriterLock2@@QAE_NXZ" PURGE="0" COMMENT="" />
    <EXPORT ORDINAL="705" NAME="?TryWriteLock@CReaderWriterLock3@@QAE_NXZ" PURGE="0" COMMENT="" />
    <EXPORT ORDINAL="706" NAME="?TryWriteLock@CReaderWriterLock@@QAE_NXZ" PURGE="0" COMMENT="" />
    <EXPORT ORDINAL="707" NAME="?TryWriteLock@CRtlResource@@QAE_NXZ" PURGE="0" COMMENT="" />
    <EXPORT ORDINAL="708" NAME="?TryWriteLock@CShareLock@@QAE_NXZ" PURGE="0" COMMENT="" />
    <EXPORT ORDINAL="709" NAME="?TryWriteLock@CSmallSpinLock@@QAE_NXZ" PURGE="0" COMMENT="" />
    <EXPORT ORDINAL="710" NAME="?TryWriteLock@CSpinLock@@QAE_NXZ" PURGE="0" COMMENT="" />
    <EXPORT ORDINAL="711" NAME="?UnInit@CGlobalInterfaceAPI@@QAEJXZ" PURGE="0" COMMENT="" />
    <EXPORT ORDINAL="712" NAME="?Unescape@STR@@QAEHXZ" PURGE="0" COMMENT="" />
    <EXPORT ORDINAL="713" NAME="?Unlock@ALLOC_CACHE_HANDLER@@AAEXXZ" PURGE="0" COMMENT="" />
    <EXPORT ORDINAL="714" NAME="?Unlock@CLockedDoubleList@@QAEXXZ" PURGE="0" COMMENT="" />
    <EXPORT ORDINAL="715" NAME="?Unlock@CLockedSingleList@@QAEXXZ" PURGE="0" COMMENT="" />
    <EXPORT ORDINAL="716" NAME="?Unlock@HASH_TABLE_BUCKET@@AAEXXZ" PURGE="0" COMMENT="" />
    <EXPORT ORDINAL="717" NAME="?Unlock@TS_RESOURCE@@QAEXXZ" PURGE="0" COMMENT="" />
    <EXPORT ORDINAL="718" NAME="?UnlockThis@MEMORY_ALLOC_DELETE@@AAEXXZ" PURGE="0" COMMENT="" />
    <EXPORT ORDINAL="719" NAME="?UnlockThis@MEMORY_ALLOC_NO_DELETE@@AAEXXZ" PURGE="0" COMMENT="" />
    <EXPORT ORDINAL="720" NAME="?UpdateMaxSpins@CSharelock@@QAEEH@Z" PURGE="4" COMMENT="" />
    <EXPORT ORDINAL="721" NAME="?UpdateMaxUsers@CSharelock@@QAEEH@Z" PURGE="4" COMMENT="" />
    <EXPORT ORDINAL="722" NAME="?ValidSignature@CLKRHashTable@@QBE_NXZ" PURGE="0" COMMENT="" />
    <EXPORT ORDINAL="723" NAME="?ValidSignature@CLKRLinearHashTable@@QBE_NXZ" PURGE="0" COMMENT="" />
    <EXPORT ORDINAL="724" NAME="?VerifyState@BUFFER@@ABEXXZ" PURGE="0" COMMENT="" />
    <EXPORT ORDINAL="725" NAME="?WaitForExclusiveLock@CSharelock@@AAEEH@Z" PURGE="4" COMMENT="" />
    <EXPORT ORDINAL="726" NAME="?WaitForShareLock@CSharelock@@AAEEH@Z" PURGE="4" COMMENT="" />
    <EXPORT ORDINAL="727" NAME="?WaitType@?$CLockBase@$00$00$02$00$02$01@@SG?AW4LOCK_WAIT_TYPE@@XZ" PURGE="0" COMMENT="" />
    <EXPORT ORDINAL="728" NAME="?WaitType@?$CLockBase@$01$00$00$00$02$01@@SG?AW4LOCK_WAIT_TYPE@@XZ" PURGE="0" COMMENT="" />
    <EXPORT ORDINAL="729" NAME="?WaitType@?$CLockBase@$02$00$00$00$00$00@@SG?AW4LOCK_WAIT_TYPE@@XZ" PURGE="0" COMMENT="" />
    <EXPORT ORDINAL="730" NAME="?WaitType@?$CLockBase@$03$00$00$01$02$02@@SG?AW4LOCK_WAIT_TYPE@@XZ" PURGE="0" COMMENT="" />
    <EXPORT ORDINAL="731" NAME="?WaitType@?$CLockBase@$04$01$00$01$02$02@@SG?AW4LOCK_WAIT_TYPE@@XZ" PURGE="0" COMMENT="" />
    <EXPORT ORDINAL="732" NAME="?WaitType@?$CLockBase@$05$01$00$01$02$02@@SG?AW4LOCK_WAIT_TYPE@@XZ" PURGE="0" COMMENT="" />
    <EXPORT ORDINAL="733" NAME="?WaitType@?$CLockBase@$06$01$01$00$02$01@@SG?AW4LOCK_WAIT_TYPE@@XZ" PURGE="0" COMMENT="" />
    <EXPORT ORDINAL="734" NAME="?WaitType@?$CLockBase@$07$01$01$00$02$01@@SG?AW4LOCK_WAIT_TYPE@@XZ" PURGE="0" COMMENT="" />
    <EXPORT ORDINAL="735" NAME="?WaitType@?$CLockBase@$08$01$00$00$02$01@@SG?AW4LOCK_WAIT_TYPE@@XZ" PURGE="0" COMMENT="" />
    <EXPORT ORDINAL="736" NAME="?WakeAllSleepers@CSharelock@@AAEXXZ" PURGE="0" COMMENT="" />
    <EXPORT ORDINAL="737" NAME="?Write@?$CDataCache@UDATETIME_FORMAT_ENTRY@@@@QAE_NABUDATETIME_FORMAT_ENTRY@@@Z" PURGE="4" COMMENT="" />
    <EXPORT ORDINAL="738" NAME="?Write@?$CDataCache@VCDateTime@@@@QAE_NABVCDateTime@@@Z" PURGE="4" COMMENT="" />
    <EXPORT ORDINAL="739" NAME="?WriteLock@CCritSec@@QAEXXZ" PURGE="0" COMMENT="" />
    <EXPORT ORDINAL="740" NAME="?WriteLock@CFakeLock@@QAEXXZ" PURGE="0" COMMENT="" />
    <EXPORT ORDINAL="741" NAME="?WriteLock@CLKRHashTable@@QAEXXZ" PURGE="0" COMMENT="" />
    <EXPORT ORDINAL="742" NAME="?WriteLock@CLKRLinearHashTable@@QAEXXZ" PURGE="0" COMMENT="" />
    <EXPORT ORDINAL="743" NAME="?WriteLock@CReaderWriterLock2@@QAEXXZ" PURGE="0" COMMENT="" />
    <EXPORT ORDINAL="744" NAME="?WriteLock@CReaderWriterLock3@@QAEXXZ" PURGE="0" COMMENT="" />
    <EXPORT ORDINAL="745" NAME="?WriteLock@CReaderWriterLock@@QAEXXZ" PURGE="0" COMMENT="" />
    <EXPORT ORDINAL="746" NAME="?WriteLock@CRtlResource@@QAEXXZ" PURGE="0" COMMENT="" />
    <EXPORT ORDINAL="747" NAME="?WriteLock@CShareLock@@QAEXXZ" PURGE="0" COMMENT="" />
    <EXPORT ORDINAL="748" NAME="?WriteLock@CSmallSpinLock@@QAEXXZ" PURGE="0" COMMENT="" />
    <EXPORT ORDINAL="749" NAME="?WriteLock@CSpinLock@@QAEXXZ" PURGE="0" COMMENT="" />
    <EXPORT ORDINAL="750" NAME="?WriteUnlock@CCritSec@@QAEXXZ" PURGE="0" COMMENT="" />
    <EXPORT ORDINAL="751" NAME="?WriteUnlock@CFakeLock@@QAEXXZ" PURGE="0" COMMENT="" />
    <EXPORT ORDINAL="752" NAME="?WriteUnlock@CLKRHashTable@@QBEXXZ" PURGE="0" COMMENT="" />
    <EXPORT ORDINAL="753" NAME="?WriteUnlock@CLKRLinearHashTable@@QBEXXZ" PURGE="0" COMMENT="" />
    <EXPORT ORDINAL="754" NAME="?WriteUnlock@CReaderWriterLock2@@QAEXXZ" PURGE="0" COMMENT="" />
    <EXPORT ORDINAL="755" NAME="?WriteUnlock@CReaderWriterLock3@@QAEXXZ" PURGE="0" COMMENT="" />
    <EXPORT ORDINAL="756" NAME="?WriteUnlock@CReaderWriterLock@@QAEXXZ" PURGE="0" COMMENT="" />
    <EXPORT ORDINAL="757" NAME="?WriteUnlock@CRtlResource@@QAEXXZ" PURGE="0" COMMENT="" />
    <EXPORT ORDINAL="758" NAME="?WriteUnlock@CShareLock@@QAEXXZ" PURGE="0" COMMENT="" />
    <EXPORT ORDINAL="759" NAME="?WriteUnlock@CSmallSpinLock@@QAEXXZ" PURGE="0" COMMENT="" />
    <EXPORT ORDINAL="760" NAME="?WriteUnlock@CSpinLock@@QAEXXZ" PURGE="0" COMMENT="" />
    <EXPORT ORDINAL="761" NAME="ZapRegistryKey" PURGE="8" COMMENT="" />
    <EXPORT ORDINAL="762" NAME="?_AddRefRecord@CLKRLinearHashTable@@ABEXPBXH@Z" PURGE="-1" COMMENT="" />
    <EXPORT ORDINAL="763" NAME="?_AllocateNodeClump@CLKRLinearHashTable@@CGQAVCNodeClump@1@XZ" PURGE="0" COMMENT="" />
    <EXPORT ORDINAL="764" NAME="?_AllocateSegment@CLKRLinearHashTable@@ABEQAVCSegment@1@XZ" PURGE="0" COMMENT="" />
    <EXPORT ORDINAL="765" NAME="?_AllocateSegmentDirectory@CLKRLinearHashTable@@CGQAVCDirEntry@1@I@Z" PURGE="4" COMMENT="" />
    <EXPORT ORDINAL="766" NAME="?_AllocateSubTable@CLKRHashTable@@CGQAVCLKRLinearHashTable@@PBDP6G?BKPBX@ZP6GKK@ZP6G_NKK@ZP6GX1H@ZNKPAV1@@Z" PURGE="36" COMMENT="" />
    <EXPORT ORDINAL="767" NAME="?_AllocateSubTableArray@CLKRHashTable@@CGQAPAVCLKRLinearHashTable@@I@Z" PURGE="4" COMMENT="" />
    <EXPORT ORDINAL="768" NAME="?_Apply@CLKRLinearHashTable@@AAEKP6G?AW4LK_ACTION@@PBXPAX@Z1W4LK_LOCKTYPE@@AAW4LK_PREDICATE@@@Z" PURGE="16" COMMENT="" />
    <EXPORT ORDINAL="769" NAME="?_ApplyIf@CLKRLinearHashTable@@AAEKP6G?AW4LK_PREDICATE@@PBXPAX@ZP6G?AW4LK_ACTION@@01@Z1W4LK_LOCKTYPE@@AAW42@@Z" PURGE="20" COMMENT="" />
    <EXPORT ORDINAL="770" NAME="?_Bucket@CLKRLinearHashTable@@ABEPAVCBucket@1@K@Z" PURGE="4" COMMENT="" />
    <EXPORT ORDINAL="771" NAME="?_BucketAddress@CLKRLinearHashTable@@ABEKK@Z" PURGE="4" COMMENT="" />
    <EXPORT ORDINAL="772" NAME="?_CalcKeyHash@CLKRHashTable@@ABEKK@Z" PURGE="4" COMMENT="" />
    <EXPORT ORDINAL="773" NAME="?_CalcKeyHash@CLKRLinearHashTable@@ABEKK@Z" PURGE="4" COMMENT="" />
    <EXPORT ORDINAL="774" NAME="?_Clear@CLKRLinearHashTable@@AAEX_N@Z" PURGE="4" COMMENT="" />
    <EXPORT ORDINAL="775" NAME="?_CloseIterator@CLKRLinearHashTable@@AAE?AW4LK_RETCODE@@PAVCIterator@1@@Z" PURGE="4" COMMENT="" />
    <EXPORT ORDINAL="776" NAME="?_CmpExch@CReaderWriterLock2@@AAE_NJJ@Z" PURGE="8" COMMENT="" />
    <EXPORT ORDINAL="777" NAME="?_CmpExch@CReaderWriterLock3@@AAE_NJJ@Z" PURGE="8" COMMENT="" />
    <EXPORT ORDINAL="778" NAME="?_CmpExch@CReaderWriterLock@@AAE_NJJ@Z" PURGE="8" COMMENT="" />
    <EXPORT ORDINAL="779" NAME="?_Contract@CLKRLinearHashTable@@AAE?AW4LK_RETCODE@@XZ" PURGE="0" COMMENT="" />
    <EXPORT ORDINAL="780" NAME="?_CurrentThreadId@CReaderWriterLock3@@CGJXZ" PURGE="0" COMMENT="" />
    <EXPORT ORDINAL="781" NAME="?_CurrentThreadId@CSpinLock@@CGJXZ" PURGE="0" COMMENT="" />
    <EXPORT ORDINAL="782" NAME="?_DeleteIf@CLKRLinearHashTable@@AAEKP6G?AW4LK_PREDICATE@@PBXPAX@Z1AAW42@@Z" PURGE="12" COMMENT="" />
    <EXPORT ORDINAL="783" NAME="?_DeleteKey@CLKRLinearHashTable@@AAE?AW4LK_RETCODE@@KK@Z" PURGE="8" COMMENT="" />
    <EXPORT ORDINAL="784" NAME="?_DeleteNode@CLKRLinearHashTable@@AAE_NPAVCBucket@1@AAPAVCNodeClump@1@1AAH@Z" PURGE="16" COMMENT="" />
    <EXPORT ORDINAL="785" NAME="?_DeleteRecord@CLKRLinearHashTable@@AAE?AW4LK_RETCODE@@PBXK@Z" PURGE="8" COMMENT="" />
    <EXPORT ORDINAL="786" NAME="?_EqualKeys@CLKRLinearHashTable@@ABE_NKK@Z" PURGE="-1" COMMENT="" />
    <EXPORT ORDINAL="787" NAME="?_Expand@CLKRLinearHashTable@@AAE?AW4LK_RETCODE@@XZ" PURGE="0" COMMENT="" />
    <EXPORT ORDINAL="788" NAME="?_ExtractKey@CLKRHashTable@@ABE?BKPBX@Z" PURGE="-1" COMMENT="" />
    <EXPORT ORDINAL="789" NAME="?_ExtractKey@CLKRLinearHashTable@@ABE?BKPBX@Z" PURGE="-1" COMMENT="" />
    <EXPORT ORDINAL="790" NAME="?_FindBucket@CLKRLinearHashTable@@ABEPAVCBucket@1@K_N@Z" PURGE="8" COMMENT="" />
    <EXPORT ORDINAL="791" NAME="?_FindKey@CLKRLinearHashTable@@ABE?AW4LK_RETCODE@@KKPAPBX@Z" PURGE="12" COMMENT="" />
    <EXPORT ORDINAL="792" NAME="?_FindRecord@CLKRLinearHashTable@@ABE?AW4LK_RETCODE@@PBXK@Z" PURGE="8" COMMENT="" />
    <EXPORT ORDINAL="793" NAME="?_FreeNodeClump@CLKRLinearHashTable@@CG_NPAVCNodeClump@1@@Z" PURGE="4" COMMENT="" />
    <EXPORT ORDINAL="794" NAME="?_FreeSegment@CLKRLinearHashTable@@ABE_NPAVCSegment@1@@Z" PURGE="4" COMMENT="" />
    <EXPORT ORDINAL="795" NAME="?_FreeSegmentDirectory@CLKRLinearHashTable@@CG_NPAVCDirEntry@1@@Z" PURGE="4" COMMENT="" />
    <EXPORT ORDINAL="796" NAME="?_FreeSubTable@CLKRHashTable@@CG_NPAVCLKRLinearHashTable@@@Z" PURGE="4" COMMENT="" />
    <EXPORT ORDINAL="797" NAME="?_FreeSubTableArray@CLKRHashTable@@CG_NPAPAVCLKRLinearHashTable@@@Z" PURGE="4" COMMENT="" />
    <EXPORT ORDINAL="798" NAME="?_H0@CLKRLinearHashTable@@ABEKK@Z" PURGE="4" COMMENT="" />
    <EXPORT ORDINAL="799" NAME="?_H0@CLKRLinearHashTable@@CGKKK@Z" PURGE="8" COMMENT="" />
    <EXPORT ORDINAL="800" NAME="?_H1@CLKRLinearHashTable@@ABEKK@Z" PURGE="4" COMMENT="" />
    <EXPORT ORDINAL="801" NAME="?_H1@CLKRLinearHashTable@@CGKKK@Z" PURGE="8" COMMENT="" />
    <EXPORT ORDINAL="802" NAME="?_Initialize@CLKRLinearHashTable@@AAE?AW4LK_RETCODE@@P6G?BKPBX@ZP6GKK@ZP6G_NKK@ZP6GX0H@ZPBDNK@Z" PURGE="32" COMMENT="" />
    <EXPORT ORDINAL="803" NAME="?_InitializeIterator@CLKRLinearHashTable@@AAE?AW4LK_RETCODE@@PAVCIterator@1@@Z" PURGE="4" COMMENT="" />
    <EXPORT ORDINAL="804" NAME="?_InsertRecord@CLKRLinearHashTable@@AAE?AW4LK_RETCODE@@PBXK_N@Z" PURGE="12" COMMENT="" />
    <EXPORT ORDINAL="805" NAME="?_InsertThisIntoGlobalList@CLKRHashTable@@AAEXXZ" PURGE="0" COMMENT="" />
    <EXPORT ORDINAL="806" NAME="?_InsertThisIntoGlobalList@CLKRLinearHashTable@@AAEXXZ" PURGE="0" COMMENT="" />
    <EXPORT ORDINAL="807" NAME="?_IsLocked@CSpinLock@@ABE_NXZ" PURGE="0" COMMENT="" />
    <EXPORT ORDINAL="808" NAME="?_IsNodeCompact@CLKRLinearHashTable@@ABEHQAVCBucket@1@@Z" PURGE="4" COMMENT="" />
    <EXPORT ORDINAL="809" NAME="?_Lock@CSpinLock@@AAEXXZ" PURGE="0" COMMENT="" />
    <EXPORT ORDINAL="810" NAME="?_LockSpin@CReaderWriterLock2@@AAEX_N@Z" PURGE="4" COMMENT="" />
    <EXPORT ORDINAL="811" NAME="?_LockSpin@CReaderWriterLock3@@AAEX_N@Z" PURGE="4" COMMENT="" />
    <EXPORT ORDINAL="812" NAME="?_LockSpin@CReaderWriterLock@@AAEX_N@Z" PURGE="4" COMMENT="" />
    <EXPORT ORDINAL="813" NAME="?_LockSpin@CSmallSpinLock@@AAEXXZ" PURGE="0" COMMENT="" />
    <EXPORT ORDINAL="814" NAME="?_LockSpin@CSpinLock@@AAEXXZ" PURGE="0" COMMENT="" />
    <EXPORT ORDINAL="815" NAME="?_MergeRecordSets@CLKRLinearHashTable@@AAE?AW4LK_RETCODE@@PAVCBucket@1@PAVCNodeClump@1@1@Z" PURGE="12" COMMENT="" />
    <EXPORT ORDINAL="816" NAME="?_PredTrue@CLKRLinearHashTable@@CG?AW4LK_PREDICATE@@PBXPAX@Z" PURGE="8" COMMENT="" />
    <EXPORT ORDINAL="817" NAME="?_ReadLockSpin@CReaderWriterLock2@@AAEXXZ" PURGE="0" COMMENT="" />
    <EXPORT ORDINAL="818" NAME="?_ReadLockSpin@CReaderWriterLock3@@AAEXXZ" PURGE="0" COMMENT="" />
    <EXPORT ORDINAL="819" NAME="?_ReadLockSpin@CReaderWriterLock@@AAEXXZ" PURGE="0" COMMENT="" />
    <EXPORT ORDINAL="820" NAME="?_ReadMemoryBarrier@?$CDataCache@UDATETIME_FORMAT_ENTRY@@@@KGXXZ" PURGE="0" COMMENT="" />
    <EXPORT ORDINAL="821" NAME="?_ReadMemoryBarrier@?$CDataCache@VCDateTime@@@@KGXXZ" PURGE="0" COMMENT="" />
    <EXPORT ORDINAL="822" NAME="?_ReadSequence@?$CDataCache@UDATETIME_FORMAT_ENTRY@@@@IBEJXZ" PURGE="0" COMMENT="" />
    <EXPORT ORDINAL="823" NAME="?_ReadSequence@?$CDataCache@VCDateTime@@@@IBEJXZ" PURGE="0" COMMENT="" />
    <EXPORT ORDINAL="824" NAME="?_RemoveThisFromGlobalList@CLKRHashTable@@AAEXXZ" PURGE="0" COMMENT="" />
    <EXPORT ORDINAL="825" NAME="?_RemoveThisFromGlobalList@CLKRLinearHashTable@@AAEXXZ" PURGE="0" COMMENT="" />
    <EXPORT ORDINAL="826" NAME="?_SegIndex@CLKRLinearHashTable@@ABEKK@Z" PURGE="4" COMMENT="" />
    <EXPORT ORDINAL="827" NAME="?_Segment@CLKRLinearHashTable@@ABEAAPAVCSegment@1@K@Z" PURGE="4" COMMENT="" />
    <EXPORT ORDINAL="828" NAME="?_SetSegVars@CLKRLinearHashTable@@AAEXW4LK_TABLESIZE@@@Z" PURGE="4" COMMENT="" />
    <EXPORT ORDINAL="829" NAME="?_SetSequence@?$CDataCache@UDATETIME_FORMAT_ENTRY@@@@IAEJJ@Z" PURGE="4" COMMENT="" />
    <EXPORT ORDINAL="830" NAME="?_SetSequence@?$CDataCache@VCDateTime@@@@IAEJJ@Z" PURGE="4" COMMENT="" />
    <EXPORT ORDINAL="831" NAME="?_SplitRecordSet@CLKRLinearHashTable@@AAE?AW4LK_RETCODE@@PAVCNodeClump@1@0KKK0@Z" PURGE="24" COMMENT="" />
    <EXPORT ORDINAL="832" NAME="?_SubTable@CLKRHashTable@@ABEPAVCLKRLinearHashTable@@K@Z" PURGE="4" COMMENT="" />
    <EXPORT ORDINAL="833" NAME="?_TryLock@CSmallSpinLock@@AAE_NXZ" PURGE="0" COMMENT="" />
    <EXPORT ORDINAL="834" NAME="?_TryLock@CSpinLock@@AAE_NXZ" PURGE="0" COMMENT="" />
    <EXPORT ORDINAL="835" NAME="?_TryReadLock@CReaderWriterLock2@@AAE_NXZ" PURGE="0" COMMENT="" />
    <EXPORT ORDINAL="836" NAME="?_TryReadLock@CReaderWriterLock3@@AAE_NXZ" PURGE="0" COMMENT="" />
    <EXPORT ORDINAL="837" NAME="?_TryReadLock@CReaderWriterLock@@AAE_NXZ" PURGE="0" COMMENT="" />
    <EXPORT ORDINAL="838" NAME="?_TryWriteLock2@CReaderWriterLock3@@AAE_NXZ" PURGE="0" COMMENT="" />
    <EXPORT ORDINAL="839" NAME="?_TryWriteLock@CReaderWriterLock2@@AAE_NJ@Z" PURGE="4" COMMENT="" />
    <EXPORT ORDINAL="840" NAME="?_TryWriteLock@CReaderWriterLock3@@AAE_NJ@Z" PURGE="4" COMMENT="" />
    <EXPORT ORDINAL="841" NAME="?_TryWriteLock@CReaderWriterLock@@AAE_NXZ" PURGE="0" COMMENT="" />
    <EXPORT ORDINAL="842" NAME="?_Unlock@CSpinLock@@AAEXXZ" PURGE="0" COMMENT="" />
    <EXPORT ORDINAL="843" NAME="?_WriteLockSpin@CReaderWriterLock2@@AAEXXZ" PURGE="0" COMMENT="" />
    <EXPORT ORDINAL="844" NAME="?_WriteLockSpin@CReaderWriterLock3@@AAEXXZ" PURGE="0" COMMENT="" />
    <EXPORT ORDINAL="845" NAME="?_WriteLockSpin@CReaderWriterLock@@AAEXXZ" PURGE="0" COMMENT="" />
    <EXPORT ORDINAL="846" NAME="?_WriteMemoryBarrier@?$CDataCache@UDATETIME_FORMAT_ENTRY@@@@KGXXZ" PURGE="0" COMMENT="" />
    <EXPORT ORDINAL="847" NAME="?s_aBucketSizes@?1??BucketSizes@CLKRHashTableStats@@SGPBJXZ@4QBJB" PURGE="-1" COMMENT="" />
    <EXPORT ORDINAL="848" NAME="?sm_csItems@ALLOC_CACHE_HANDLER@@0U_RTL_CRITICAL_SECTION@@A" PURGE="-1" COMMENT="" />
    <EXPORT ORDINAL="849" NAME="?sm_dblDfltSpinAdjFctr@CCritSec@@1NA" PURGE="-1" COMMENT="" />
    <EXPORT ORDINAL="850" NAME="?sm_dblDfltSpinAdjFctr@CFakeLock@@1NA" PURGE="-1" COMMENT="" />
    <EXPORT ORDINAL="851" NAME="?sm_dblDfltSpinAdjFctr@CReaderWriterLock2@@1NA" PURGE="-1" COMMENT="" />
    <EXPORT ORDINAL="852" NAME="?sm_dblDfltSpinAdjFctr@CReaderWriterLock3@@1NA" PURGE="-1" COMMENT="" />
    <EXPORT ORDINAL="853" NAME="?sm_dblDfltSpinAdjFctr@CReaderWriterLock@@1NA" PURGE="-1" COMMENT="" />
    <EXPORT ORDINAL="854" NAME="?sm_dblDfltSpinAdjFctr@CRtlResource@@1NA" PURGE="-1" COMMENT="" />
    <EXPORT ORDINAL="855" NAME="?sm_dblDfltSpinAdjFctr@CShareLock@@1NA" PURGE="-1" COMMENT="" />
    <EXPORT ORDINAL="856" NAME="?sm_dblDfltSpinAdjFctr@CSmallSpinLock@@1NA" PURGE="-1" COMMENT="" />
    <EXPORT ORDINAL="857" NAME="?sm_dblDfltSpinAdjFctr@CSpinLock@@1NA" PURGE="-1" COMMENT="" />
    <EXPORT ORDINAL="858" NAME="?sm_dwScheduleCookie@ALLOC_CACHE_HANDLER@@0KA" PURGE="-1" COMMENT="" />
    <EXPORT ORDINAL="859" NAME="?sm_lItemsHead@ALLOC_CACHE_HANDLER@@0U_LIST_ENTRY@@A" PURGE="-1" COMMENT="" />
    <EXPORT ORDINAL="860" NAME="?sm_llGlobalList@CLKRHashTable@@0VCLockedDoubleList@@A" PURGE="-1" COMMENT="" />
    <EXPORT ORDINAL="861" NAME="?sm_llGlobalList@CLKRLinearHashTable@@0VCLockedDoubleList@@A" PURGE="-1" COMMENT="" />
    <EXPORT ORDINAL="862" NAME="?sm_nFillPattern@ALLOC_CACHE_HANDLER@@0JA" PURGE="-1" COMMENT="" />
    <EXPORT ORDINAL="863" NAME="?sm_wDefaultSpinCount@CCritSec@@1GA" PURGE="-1" COMMENT="" />
    <EXPORT ORDINAL="864" NAME="?sm_wDefaultSpinCount@CFakeLock@@1GA" PURGE="-1" COMMENT="" />
    <EXPORT ORDINAL="865" NAME="?sm_wDefaultSpinCount@CReaderWriterLock2@@1GA" PURGE="-1" COMMENT="" />
    <EXPORT ORDINAL="866" NAME="?sm_wDefaultSpinCount@CReaderWriterLock3@@1GA" PURGE="-1" COMMENT="" />
    <EXPORT ORDINAL="867" NAME="?sm_wDefaultSpinCount@CReaderWriterLock@@1GA" PURGE="-1" COMMENT="" />
    <EXPORT ORDINAL="868" NAME="?sm_wDefaultSpinCount@CRtlResource@@1GA" PURGE="-1" COMMENT="" />
    <EXPORT ORDINAL="869" NAME="?sm_wDefaultSpinCount@CShareLock@@1GA" PURGE="-1" COMMENT="" />
    <EXPORT ORDINAL="870" NAME="?sm_wDefaultSpinCount@CSmallSpinLock@@1GA" PURGE="-1" COMMENT="" />
    <EXPORT ORDINAL="871" NAME="?sm_wDefaultSpinCount@CSpinLock@@1GA" PURGE="-1" COMMENT="" />
    <EXPORT ORDINAL="872" NAME="_AddToRegistry@4" PURGE="4" COMMENT="" />
    <EXPORT ORDINAL="873" NAME="AllocCacheDumpStatsToHtml" PURGE="8" COMMENT="" />
    <EXPORT ORDINAL="874" NAME="CreateRefTraceLog" PURGE="8" COMMENT="" />
    <EXPORT ORDINAL="875" NAME="CreateTraceLog" PURGE="12" COMMENT="" />
    <EXPORT ORDINAL="876" NAME="DestroyRefTraceLog" PURGE="4" COMMENT="" />
    <EXPORT ORDINAL="877" NAME="DestroyTraceLog" PURGE="4" COMMENT="" />
    <EXPORT ORDINAL="878" NAME="DllMain" PURGE="12" COMMENT="" />
    <EXPORT ORDINAL="879" NAME="GetCurrentTimeInMilliseconds" PURGE="0" COMMENT="" />
    <EXPORT ORDINAL="880" NAME="GetCurrentTimeInSeconds" PURGE="0" COMMENT="" />
    <EXPORT ORDINAL="881" NAME="GetQueryType" PURGE="4" COMMENT="" />
    <EXPORT ORDINAL="882" NAME="IISCaptureStackBackTrace" PURGE="-1" COMMENT="" />
    <EXPORT ORDINAL="883" NAME="IISGetCurrentTime" PURGE="8" COMMENT="" />
    <EXPORT ORDINAL="884" NAME="IISGetPlatformType" PURGE="0" COMMENT="" />
    <EXPORT ORDINAL="885" NAME="IISInitializeCriticalSection" PURGE="4" COMMENT="" />
    <EXPORT ORDINAL="886" NAME="IISSetCriticalSectionSpinCount" PURGE="8" COMMENT="" />
    <EXPORT ORDINAL="887" NAME="_IISTraceControlCallback@16" PURGE="16" COMMENT="" />
    <EXPORT ORDINAL="888" NAME="IisCalloc" PURGE="4" COMMENT="" />
    <EXPORT ORDINAL="889" NAME="IisFree" PURGE="4" COMMENT="" />
    <EXPORT ORDINAL="890" NAME="IisHeap" PURGE="0" COMMENT="" />
    <EXPORT ORDINAL="891" NAME="IisMalloc" PURGE="4" COMMENT="" />
    <EXPORT ORDINAL="892" NAME="IisReAlloc" PURGE="8" COMMENT="" />
    <EXPORT ORDINAL="893" NAME="InetAcquireResourceExclusive" PURGE="8" COMMENT="" />
    <EXPORT ORDINAL="894" NAME="InetAcquireResourceShared" PURGE="8" COMMENT="" />
    <EXPORT ORDINAL="895" NAME="InetConvertExclusiveToShared" PURGE="4" COMMENT="" />
    <EXPORT ORDINAL="896" NAME="InetConvertSharedToExclusive" PURGE="4" COMMENT="" />
    <EXPORT ORDINAL="897" NAME="InetDeleteResource" PURGE="4" COMMENT="" />
    <EXPORT ORDINAL="898" NAME="InetDumpResource" PURGE="4" COMMENT="" />
    <EXPORT ORDINAL="899" NAME="InetInitializeResource" PURGE="4" COMMENT="" />
    <EXPORT ORDINAL="900" NAME="InetReleaseResource" PURGE="4" COMMENT="" />
    <EXPORT ORDINAL="901" NAME="InitializeIISRTL" PURGE="0" COMMENT="" />
    <EXPORT ORDINAL="902" NAME="InitializeSecondsTimer" PURGE="0" COMMENT="" />
    <EXPORT ORDINAL="903" NAME="IrtlTrace" PURGE="0" COMMENT="" />
    <EXPORT ORDINAL="904" NAME="IsNumberInUnicodeList" PURGE="8" COMMENT="" />
    <EXPORT ORDINAL="905" NAME="_IsValidAddress@12" PURGE="12" COMMENT="" />
    <EXPORT ORDINAL="906" NAME="_IsValidString@8" PURGE="8" COMMENT="" />
    <EXPORT ORDINAL="907" NAME="MIDL_user_allocate" PURGE="4" COMMENT="" />
    <EXPORT ORDINAL="908" NAME="MIDL_user_free" PURGE="-1" COMMENT="" />
    <EXPORT ORDINAL="909" NAME="MonBuildInstanceDefinition" PURGE="24" COMMENT="" />
    <EXPORT ORDINAL="910" NAME="PuCreateDebugPrintsObject" PURGE="16" COMMENT="" />
    <EXPORT ORDINAL="911" NAME="PuDbgAssertFailed" PURGE="0" COMMENT="" />
    <EXPORT ORDINAL="912" NAME="PuDbgCaptureContext" PURGE="-1" COMMENT="" />
    <EXPORT ORDINAL="913" NAME="PuDbgCreateEvent" PURGE="24" COMMENT="" />
    <EXPORT ORDINAL="914" NAME="PuDbgCreateMutex" PURGE="20" COMMENT="" />
    <EXPORT ORDINAL="915" NAME="PuDbgCreateSemaphore" PURGE="24" COMMENT="" />
    <EXPORT ORDINAL="916" NAME="PuDbgDump" PURGE="16" COMMENT="" />
    <EXPORT ORDINAL="917" NAME="_PuDbgDumpW@16" PURGE="16" COMMENT="" />
    <EXPORT ORDINAL="918" NAME="PuDbgPrint" PURGE="0" COMMENT="" />
    <EXPORT ORDINAL="919" NAME="PuDbgPrintW" PURGE="0" COMMENT="" />
    <EXPORT ORDINAL="920" NAME="PuDeleteDebugPrintsObject" PURGE="4" COMMENT="" />
    <EXPORT ORDINAL="921" NAME="_PuInitiateDebug@0" PURGE="0" COMMENT="" />
    <EXPORT ORDINAL="922" NAME="_PuUninitiateDebug@0" PURGE="0" COMMENT="" />
    <EXPORT ORDINAL="923" NAME="ResetTraceLog" PURGE="4" COMMENT="" />
    <EXPORT ORDINAL="924" NAME="RpcBindHandleForServer" PURGE="16" COMMENT="" />
    <EXPORT ORDINAL="925" NAME="RpcBindHandleFree" PURGE="-1" COMMENT="" />
    <EXPORT ORDINAL="926" NAME="RpcBindHandleOverLpc" PURGE="12" COMMENT="" />
    <EXPORT ORDINAL="927" NAME="RpcBindHandleOverNamedPipe" PURGE="16" COMMENT="" />
    <EXPORT ORDINAL="928" NAME="RpcBindHandleOverTcpIp" PURGE="12" COMMENT="" />
    <EXPORT ORDINAL="929" NAME="RpcuFindProtocolToUse" PURGE="4" COMMENT="" />
    <EXPORT ORDINAL="930" NAME="TerminateIISRTL" PURGE="0" COMMENT="" />
    <EXPORT ORDINAL="931" NAME="TerminateSecondsTimer" PURGE="0" COMMENT="" />
    <EXPORT ORDINAL="932" NAME="WriteRefTraceLog" PURGE="0" COMMENT="" />
    <EXPORT ORDINAL="933" NAME="WriteRefTraceLogEx" PURGE="0" COMMENT="" />
    <EXPORT ORDINAL="934" NAME="WriteTraceLog" PURGE="8" COMMENT="" />
    <EXPORT ORDINAL="935" NAME="_stristr@8" PURGE="8" COMMENT="" />
</LIBRARY>

