<?xml version="1.0" encoding="UTF-8"?>
<LIBRARY NAME="imagelibcrtu.dll" PATH="/DLLArchive/etc/imagelibcrtU.dll" DATE="Fri Jul 03 12:41:17 PDT 2020" VERSION="5, 7, 1, 2">
    <EXPORT ORDINAL="1" NAME="??0CxFile@@QAE@ABV0@@Z" PURGE="4" COMMENT="" />
    <EXPORT ORDINAL="2" NAME="??0CxFile@@QAE@XZ" PURGE="0" COMMENT="" />
    <EXPORT ORDINAL="3" NAME="??0CxIOFile@@QAE@ABV0@@Z" PURGE="4" COMMENT="" />
    <EXPORT ORDINAL="4" NAME="??0CxIOFile@@QAE@PAU_iobuf@@@Z" PURGE="4" COMMENT="" />
    <EXPORT ORDINAL="5" NAME="??0CxImage@@QAE@ABV0@_N11@Z" PURGE="16" COMMENT="" />
    <EXPORT ORDINAL="6" NAME="??0CxImage@@QAE@K@Z" PURGE="4" COMMENT="" />
    <EXPORT ORDINAL="7" NAME="??0CxImage@@QAE@KKKK@Z" PURGE="16" COMMENT="" />
    <EXPORT ORDINAL="8" NAME="??0CxImage@@QAE@PAEKK@Z" PURGE="12" COMMENT="" />
    <EXPORT ORDINAL="9" NAME="??0CxImage@@QAE@PAGH_N1@Z" PURGE="16" COMMENT="" />
    <EXPORT ORDINAL="10" NAME="??0CxImage@@QAE@PAU_iobuf@@K@Z" PURGE="8" COMMENT="" />
    <EXPORT ORDINAL="11" NAME="??0CxImage@@QAE@PAVCxFile@@K@Z" PURGE="8" COMMENT="" />
    <EXPORT ORDINAL="12" NAME="??0CxImageGIF@@QAE@ABV0@@Z" PURGE="4" COMMENT="" />
    <EXPORT ORDINAL="13" NAME="??0CxImageGIF@@QAE@XZ" PURGE="0" COMMENT="" />
    <EXPORT ORDINAL="14" NAME="??0CxImageJPG@@QAE@ABV0@@Z" PURGE="4" COMMENT="" />
    <EXPORT ORDINAL="15" NAME="??0CxImageJPG@@QAE@XZ" PURGE="0" COMMENT="" />
    <EXPORT ORDINAL="16" NAME="??0CxImageTIF@@QAE@ABV0@@Z" PURGE="4" COMMENT="" />
    <EXPORT ORDINAL="17" NAME="??0CxImageTIF@@QAE@XZ" PURGE="0" COMMENT="" />
    <EXPORT ORDINAL="18" NAME="??0CxMemFile@@QAE@ABV0@@Z" PURGE="4" COMMENT="" />
    <EXPORT ORDINAL="19" NAME="??0CxMemFile@@QAE@PAEK@Z" PURGE="8" COMMENT="" />
    <EXPORT ORDINAL="20" NAME="??1CxFile@@UAE@XZ" PURGE="0" COMMENT="" />
    <EXPORT ORDINAL="21" NAME="??1CxIOFile@@UAE@XZ" PURGE="0" COMMENT="" />
    <EXPORT ORDINAL="22" NAME="??1CxImage@@UAE@XZ" PURGE="0" COMMENT="" />
    <EXPORT ORDINAL="23" NAME="??1CxImageGIF@@UAE@XZ" PURGE="0" COMMENT="" />
    <EXPORT ORDINAL="24" NAME="??1CxImageJPG@@UAE@XZ" PURGE="0" COMMENT="" />
    <EXPORT ORDINAL="25" NAME="??1CxImageTIF@@UAE@XZ" PURGE="0" COMMENT="" />
    <EXPORT ORDINAL="26" NAME="??1CxMemFile@@UAE@XZ" PURGE="0" COMMENT="" />
    <EXPORT ORDINAL="27" NAME="??4CxFile@@QAEAAV0@ABV0@@Z" PURGE="4" COMMENT="" />
    <EXPORT ORDINAL="28" NAME="??4CxIOFile@@QAEAAV0@ABV0@@Z" PURGE="4" COMMENT="" />
    <EXPORT ORDINAL="29" NAME="??4CxImage@@QAEAAV0@ABV0@@Z" PURGE="4" COMMENT="" />
    <EXPORT ORDINAL="30" NAME="??4CxImageGIF@@QAEAAV0@ABV0@@Z" PURGE="4" COMMENT="" />
    <EXPORT ORDINAL="31" NAME="??4CxImageJPG@@QAEAAV0@ABV0@@Z" PURGE="4" COMMENT="" />
    <EXPORT ORDINAL="32" NAME="??4CxImageTIF@@QAEAAV0@ABV0@@Z" PURGE="4" COMMENT="" />
    <EXPORT ORDINAL="33" NAME="??4CxMemFile@@QAEAAV0@ABV0@@Z" PURGE="4" COMMENT="" />
    <EXPORT ORDINAL="34" NAME="??_7CxFile@@6B@" PURGE="-1" COMMENT="" />
    <EXPORT ORDINAL="35" NAME="??_7CxIOFile@@6B@" PURGE="-1" COMMENT="" />
    <EXPORT ORDINAL="36" NAME="??_7CxImage@@6B@" PURGE="-1" COMMENT="" />
    <EXPORT ORDINAL="37" NAME="??_7CxImageGIF@@6B@" PURGE="-1" COMMENT="" />
    <EXPORT ORDINAL="38" NAME="??_7CxImageJPG@@6B@" PURGE="-1" COMMENT="" />
    <EXPORT ORDINAL="39" NAME="??_7CxImageTIF@@6B@" PURGE="-1" COMMENT="" />
    <EXPORT ORDINAL="40" NAME="??_7CxMemFile@@6B@" PURGE="-1" COMMENT="" />
    <EXPORT ORDINAL="41" NAME="??_FCxIOFile@@QAEXXZ" PURGE="0" COMMENT="" />
    <EXPORT ORDINAL="42" NAME="??_FCxImage@@QAEXXZ" PURGE="0" COMMENT="" />
    <EXPORT ORDINAL="43" NAME="??_FCxMemFile@@QAEXXZ" PURGE="0" COMMENT="" />
    <EXPORT ORDINAL="44" NAME="??_OCxImage@@QAEXABV0@@Z" PURGE="4" COMMENT="" />
    <EXPORT ORDINAL="45" NAME="?Alloc@CxMemFile@@IAEXK@Z" PURGE="4" COMMENT="" />
    <EXPORT ORDINAL="46" NAME="?AlphaClear@CxImage@@QAEXXZ" PURGE="0" COMMENT="" />
    <EXPORT ORDINAL="47" NAME="?AlphaCopy@CxImage@@QAE_NAAV1@@Z" PURGE="4" COMMENT="" />
    <EXPORT ORDINAL="48" NAME="?AlphaCreate@CxImage@@QAEXXZ" PURGE="0" COMMENT="" />
    <EXPORT ORDINAL="49" NAME="?AlphaDelete@CxImage@@QAEXXZ" PURGE="0" COMMENT="" />
    <EXPORT ORDINAL="50" NAME="?AlphaFlip@CxImage@@QAE_NXZ" PURGE="0" COMMENT="" />
    <EXPORT ORDINAL="51" NAME="?AlphaGet@CxImage@@QAEEJJ@Z" PURGE="8" COMMENT="" />
    <EXPORT ORDINAL="52" NAME="?AlphaGetBits@CxImage@@QBEPAEXZ" PURGE="0" COMMENT="" />
    <EXPORT ORDINAL="53" NAME="?AlphaGetMax@CxImage@@QBEEXZ" PURGE="0" COMMENT="" />
    <EXPORT ORDINAL="54" NAME="?AlphaInvert@CxImage@@QAEXXZ" PURGE="0" COMMENT="" />
    <EXPORT ORDINAL="55" NAME="?AlphaIsValid@CxImage@@QAE_NXZ" PURGE="0" COMMENT="" />
    <EXPORT ORDINAL="56" NAME="?AlphaMirror@CxImage@@QAE_NXZ" PURGE="0" COMMENT="" />
    <EXPORT ORDINAL="57" NAME="?AlphaPaletteClear@CxImage@@QAEXXZ" PURGE="0" COMMENT="" />
    <EXPORT ORDINAL="58" NAME="?AlphaPaletteEnable@CxImage@@QAEX_N@Z" PURGE="4" COMMENT="" />
    <EXPORT ORDINAL="59" NAME="?AlphaPaletteIsEnabled@CxImage@@QAE_NXZ" PURGE="0" COMMENT="" />
    <EXPORT ORDINAL="60" NAME="?AlphaPaletteIsValid@CxImage@@QAE_NXZ" PURGE="0" COMMENT="" />
    <EXPORT ORDINAL="61" NAME="?AlphaPaletteSplit@CxImage@@QAE_NPAV1@@Z" PURGE="4" COMMENT="" />
    <EXPORT ORDINAL="62" NAME="?AlphaSet@CxImage@@QAEXE@Z" PURGE="4" COMMENT="" />
    <EXPORT ORDINAL="63" NAME="?AlphaSet@CxImage@@QAEXJJE@Z" PURGE="12" COMMENT="" />
    <EXPORT ORDINAL="64" NAME="?AlphaSet@CxImage@@QAE_NAAV1@@Z" PURGE="4" COMMENT="" />
    <EXPORT ORDINAL="65" NAME="?AlphaSetMax@CxImage@@QAEXE@Z" PURGE="4" COMMENT="" />
    <EXPORT ORDINAL="66" NAME="?AlphaSplit@CxImage@@QAE_NPAV1@@Z" PURGE="4" COMMENT="" />
    <EXPORT ORDINAL="67" NAME="?AlphaStrip@CxImage@@QAEXXZ" PURGE="0" COMMENT="" />
    <EXPORT ORDINAL="68" NAME="?Bitfield2RGB@CxImage@@IAEXPAEGGGE@Z" PURGE="20" COMMENT="" />
    <EXPORT ORDINAL="69" NAME="?BlendPalette@CxImage@@QAEXKJ@Z" PURGE="8" COMMENT="" />
    <EXPORT ORDINAL="70" NAME="?Clear@CxImage@@QAEXE@Z" PURGE="4" COMMENT="" />
    <EXPORT ORDINAL="71" NAME="?Close@CxIOFile@@UAE_NXZ" PURGE="0" COMMENT="" />
    <EXPORT ORDINAL="72" NAME="?Close@CxMemFile@@UAE_NXZ" PURGE="0" COMMENT="" />
    <EXPORT ORDINAL="73" NAME="?Colorize@CxImage@@QAE_NEE@Z" PURGE="8" COMMENT="" />
    <EXPORT ORDINAL="74" NAME="?Combine@CxImage@@QAE_NPAV1@000J@Z" PURGE="20" COMMENT="" />
    <EXPORT ORDINAL="75" NAME="?CompareColors@CxImage@@KAHPBX0@Z" PURGE="0" COMMENT="" />
    <EXPORT ORDINAL="76" NAME="?Contour@CxImage@@QAE_NXZ" PURGE="0" COMMENT="" />
    <EXPORT ORDINAL="77" NAME="?Copy@CxImage@@QAEXABV1@_N11@Z" PURGE="16" COMMENT="" />
    <EXPORT ORDINAL="78" NAME="?CopyInfo@CxImage@@IAEXABV1@@Z" PURGE="4" COMMENT="" />
    <EXPORT ORDINAL="79" NAME="?CopyToHandle@CxImage@@QAEPAXXZ" PURGE="0" COMMENT="" />
    <EXPORT ORDINAL="80" NAME="?Create@CxImage@@QAEPAXKKKK@Z" PURGE="16" COMMENT="" />
    <EXPORT ORDINAL="81" NAME="?CreateFromArray@CxImage@@QAE_NPAEKKKK_N@Z" PURGE="24" COMMENT="" />
    <EXPORT ORDINAL="82" NAME="?CreateFromHANDLE@CxImage@@QAE_NPAX@Z" PURGE="4" COMMENT="" />
    <EXPORT ORDINAL="83" NAME="?CreateFromHBITMAP@CxImage@@QAEXPAUHBITMAP__@@PAUHPALETTE__@@@Z" PURGE="8" COMMENT="" />
    <EXPORT ORDINAL="84" NAME="?CreateFromHICON@CxImage@@QAEXPAUHICON__@@@Z" PURGE="4" COMMENT="" />
    <EXPORT ORDINAL="85" NAME="?CreateFromMatrix@CxImage@@QAE_NPAPAEKKKK_N@Z" PURGE="24" COMMENT="" />
    <EXPORT ORDINAL="86" NAME="?Crop@CxImage@@QAE_NABUtagRECT@@PAV1@@Z" PURGE="8" COMMENT="" />
    <EXPORT ORDINAL="87" NAME="?Crop@CxImage@@QAE_NJJJJPAV1@@Z" PURGE="20" COMMENT="" />
    <EXPORT ORDINAL="88" NAME="?DFT@CxImage@@IAE_NHJPAN000@Z" PURGE="24" COMMENT="" />
    <EXPORT ORDINAL="89" NAME="?Decode@CxImage@@QAE_NPAEKK@Z" PURGE="12" COMMENT="" />
    <EXPORT ORDINAL="90" NAME="?Decode@CxImage@@QAE_NPAU_iobuf@@K_N@Z" PURGE="12" COMMENT="" />
    <EXPORT ORDINAL="91" NAME="?Decode@CxImage@@QAE_NPAVCxFile@@K_N@Z" PURGE="12" COMMENT="" />
    <EXPORT ORDINAL="92" NAME="?Decode@CxImageGIF@@QAE_NPAU_iobuf@@@Z" PURGE="4" COMMENT="" />
    <EXPORT ORDINAL="93" NAME="?Decode@CxImageGIF@@QAE_NPAVCxFile@@@Z" PURGE="4" COMMENT="" />
    <EXPORT ORDINAL="94" NAME="?Decode@CxImageJPG@@QAE_NPAU_iobuf@@@Z" PURGE="4" COMMENT="" />
    <EXPORT ORDINAL="95" NAME="?Decode@CxImageJPG@@QAE_NPAVCxFile@@@Z" PURGE="4" COMMENT="" />
    <EXPORT ORDINAL="96" NAME="?Decode@CxImageTIF@@QAE_NPAU_iobuf@@@Z" PURGE="4" COMMENT="" />
    <EXPORT ORDINAL="97" NAME="?Decode@CxImageTIF@@QAE_NPAVCxFile@@_N@Z" PURGE="8" COMMENT="" />
    <EXPORT ORDINAL="98" NAME="?DecodeExif@CxImageJPG@@QAE_NPAU_iobuf@@@Z" PURGE="4" COMMENT="" />
    <EXPORT ORDINAL="99" NAME="?DecodeExif@CxImageJPG@@QAE_NPAVCxFile@@@Z" PURGE="4" COMMENT="" />
    <EXPORT ORDINAL="100" NAME="?DecodeExtension@CxImageGIF@@IAE_NPAVCxFile@@@Z" PURGE="4" COMMENT="" />
    <EXPORT ORDINAL="101" NAME="?DecreaseBpp@CxImage@@QAE_NK_NPAUtagRGBQUAD@@K@Z" PURGE="16" COMMENT="" />
    <EXPORT ORDINAL="102" NAME="?Destroy@CxImage@@QAEXXZ" PURGE="0" COMMENT="" />
    <EXPORT ORDINAL="103" NAME="?Dilate@CxImage@@QAE_NJ@Z" PURGE="4" COMMENT="" />
    <EXPORT ORDINAL="104" NAME="?Dither@CxImage@@QAE_NJ@Z" PURGE="4" COMMENT="" />
    <EXPORT ORDINAL="105" NAME="?Draw2@CxImage@@QAEJPAUHDC__@@ABUtagRECT@@@Z" PURGE="8" COMMENT="" />
    <EXPORT ORDINAL="106" NAME="?Draw2@CxImage@@QAEJPAUHDC__@@JJJJ@Z" PURGE="20" COMMENT="" />
    <EXPORT ORDINAL="107" NAME="?Draw@CxImage@@QAEJPAUHDC__@@ABUtagRECT@@PAU3@@Z" PURGE="12" COMMENT="" />
    <EXPORT ORDINAL="108" NAME="?Draw@CxImage@@QAEJPAUHDC__@@JJJJPAUtagRECT@@@Z" PURGE="24" COMMENT="" />
    <EXPORT ORDINAL="109" NAME="?DrawLine@CxImage@@QAEXHHHHK@Z" PURGE="20" COMMENT="" />
    <EXPORT ORDINAL="110" NAME="?DrawLine@CxImage@@QAEXHHHHUtagRGBQUAD@@_N@Z" PURGE="24" COMMENT="" />
    <EXPORT ORDINAL="111" NAME="?DrawTextW@CxImage@@QAEJPAUHDC__@@JJPBGUtagRGBQUAD@@1JJEE_N@Z" PURGE="44" COMMENT="" />
    <EXPORT ORDINAL="112" NAME="?Enable@CxImage@@QAEX_N@Z" PURGE="4" COMMENT="" />
    <EXPORT ORDINAL="113" NAME="?Encode@CxImage@@QAE_NAAPAEAAJK@Z" PURGE="12" COMMENT="" />
    <EXPORT ORDINAL="114" NAME="?Encode@CxImage@@QAE_NPAU_iobuf@@K@Z" PURGE="8" COMMENT="" />
    <EXPORT ORDINAL="115" NAME="?Encode@CxImage@@QAE_NPAU_iobuf@@PAPAV1@HK@Z" PURGE="16" COMMENT="" />
    <EXPORT ORDINAL="116" NAME="?Encode@CxImage@@QAE_NPAVCxFile@@K@Z" PURGE="8" COMMENT="" />
    <EXPORT ORDINAL="117" NAME="?Encode@CxImage@@QAE_NPAVCxFile@@PAPAV1@HK@Z" PURGE="16" COMMENT="" />
    <EXPORT ORDINAL="118" NAME="?Encode@CxImageGIF@@QAE_NPAU_iobuf@@@Z" PURGE="4" COMMENT="" />
    <EXPORT ORDINAL="119" NAME="?Encode@CxImageGIF@@QAE_NPAU_iobuf@@PAPAVCxImage@@H_N@Z" PURGE="16" COMMENT="" />
    <EXPORT ORDINAL="120" NAME="?Encode@CxImageGIF@@QAE_NPAVCxFile@@@Z" PURGE="4" COMMENT="" />
    <EXPORT ORDINAL="121" NAME="?Encode@CxImageGIF@@QAE_NPAVCxFile@@PAPAVCxImage@@H_N@Z" PURGE="16" COMMENT="" />
    <EXPORT ORDINAL="122" NAME="?Encode@CxImageJPG@@QAE_NPAU_iobuf@@@Z" PURGE="4" COMMENT="" />
    <EXPORT ORDINAL="123" NAME="?Encode@CxImageJPG@@QAE_NPAVCxFile@@@Z" PURGE="4" COMMENT="" />
    <EXPORT ORDINAL="124" NAME="?Encode@CxImageTIF@@QAE_NPAU_iobuf@@PAPAVCxImage@@H@Z" PURGE="12" COMMENT="" />
    <EXPORT ORDINAL="125" NAME="?Encode@CxImageTIF@@QAE_NPAU_iobuf@@_N@Z" PURGE="8" COMMENT="" />
    <EXPORT ORDINAL="126" NAME="?Encode@CxImageTIF@@QAE_NPAVCxFile@@PAPAVCxImage@@H@Z" PURGE="12" COMMENT="" />
    <EXPORT ORDINAL="127" NAME="?Encode@CxImageTIF@@QAE_NPAVCxFile@@_N@Z" PURGE="8" COMMENT="" />
    <EXPORT ORDINAL="128" NAME="?EncodeBody@CxImageGIF@@IAEXPAVCxFile@@_N@Z" PURGE="8" COMMENT="" />
    <EXPORT ORDINAL="129" NAME="?EncodeBody@CxImageTIF@@IAE_NPAUtiff@@_NHH@Z" PURGE="16" COMMENT="" />
    <EXPORT ORDINAL="130" NAME="?EncodeComment@CxImageGIF@@IAEXPAVCxFile@@@Z" PURGE="4" COMMENT="" />
    <EXPORT ORDINAL="131" NAME="?EncodeExtension@CxImageGIF@@IAEXPAVCxFile@@@Z" PURGE="4" COMMENT="" />
    <EXPORT ORDINAL="132" NAME="?EncodeHeader@CxImageGIF@@IAEXPAVCxFile@@@Z" PURGE="4" COMMENT="" />
    <EXPORT ORDINAL="133" NAME="?EncodeLoopExtension@CxImageGIF@@IAEXPAVCxFile@@@Z" PURGE="4" COMMENT="" />
    <EXPORT ORDINAL="134" NAME="?EncodeRGB@CxImageGIF@@IAE_NPAVCxFile@@@Z" PURGE="4" COMMENT="" />
    <EXPORT ORDINAL="135" NAME="?EncodeSafeCheck@CxImage@@IAE_NPAVCxFile@@@Z" PURGE="4" COMMENT="" />
    <EXPORT ORDINAL="136" NAME="?Eof@CxIOFile@@UAE_NXZ" PURGE="0" COMMENT="" />
    <EXPORT ORDINAL="137" NAME="?Eof@CxMemFile@@UAE_NXZ" PURGE="0" COMMENT="" />
    <EXPORT ORDINAL="138" NAME="?Erode@CxImage@@QAE_NJ@Z" PURGE="4" COMMENT="" />
    <EXPORT ORDINAL="139" NAME="?Error@CxIOFile@@UAEJXZ" PURGE="0" COMMENT="" />
    <EXPORT ORDINAL="140" NAME="?Error@CxMemFile@@UAEJXZ" PURGE="0" COMMENT="" />
    <EXPORT ORDINAL="141" NAME="?Expand@CxImage@@QAE_NJJJJUtagRGBQUAD@@PAV1@@Z" PURGE="24" COMMENT="" />
    <EXPORT ORDINAL="142" NAME="?Expand@CxImage@@QAE_NJJUtagRGBQUAD@@PAV1@@Z" PURGE="16" COMMENT="" />
    <EXPORT ORDINAL="143" NAME="?FFT2@CxImage@@QAE_NPAV1@000J_N1@Z" PURGE="28" COMMENT="" />
    <EXPORT ORDINAL="144" NAME="?FFT@CxImage@@IAE_NHHPAN0@Z" PURGE="16" COMMENT="" />
    <EXPORT ORDINAL="145" NAME="?Filter@CxImage@@QAE_NPAJJJJ@Z" PURGE="16" COMMENT="" />
    <EXPORT ORDINAL="146" NAME="?Flip@CxImage@@QAE_NXZ" PURGE="0" COMMENT="" />
    <EXPORT ORDINAL="147" NAME="?Flush@CxIOFile@@UAE_NXZ" PURGE="0" COMMENT="" />
    <EXPORT ORDINAL="148" NAME="?Flush@CxMemFile@@UAE_NXZ" PURGE="0" COMMENT="" />
    <EXPORT ORDINAL="149" NAME="?Free@CxMemFile@@IAEXXZ" PURGE="-1" COMMENT="" />
    <EXPORT ORDINAL="150" NAME="?Gamma@CxImage@@QAE_NM@Z" PURGE="4" COMMENT="" />
    <EXPORT ORDINAL="151" NAME="?GetBits@CxImage@@QAEPAEK@Z" PURGE="4" COMMENT="" />
    <EXPORT ORDINAL="152" NAME="?GetBpp@CxImage@@QBEGXZ" PURGE="0" COMMENT="" />
    <EXPORT ORDINAL="153" NAME="?GetBuffer@CxMemFile@@QAEPAE_N@Z" PURGE="4" COMMENT="" />
    <EXPORT ORDINAL="154" NAME="?GetC@CxIOFile@@UAEJXZ" PURGE="0" COMMENT="" />
    <EXPORT ORDINAL="155" NAME="?GetC@CxMemFile@@UAEJXZ" PURGE="0" COMMENT="" />
    <EXPORT ORDINAL="156" NAME="?GetClrImportant@CxImage@@QBEKXZ" PURGE="0" COMMENT="" />
    <EXPORT ORDINAL="157" NAME="?GetColorType@CxImage@@QAEEXZ" PURGE="0" COMMENT="" />
    <EXPORT ORDINAL="158" NAME="?GetComment@CxImageGIF@@QAEXPAD@Z" PURGE="4" COMMENT="" />
    <EXPORT ORDINAL="159" NAME="?GetDIB@CxImage@@QBEPAXXZ" PURGE="0" COMMENT="" />
    <EXPORT ORDINAL="160" NAME="?GetDisposalMethod@CxImageGIF@@QAEJXZ" PURGE="0" COMMENT="" />
    <EXPORT ORDINAL="161" NAME="?GetEffWidth@CxImage@@QBEKXZ" PURGE="0" COMMENT="" />
    <EXPORT ORDINAL="162" NAME="?GetEncodeOption@CxImage@@QBEKXZ" PURGE="0" COMMENT="" />
    <EXPORT ORDINAL="163" NAME="?GetEscape@CxImage@@QBEJXZ" PURGE="0" COMMENT="" />
    <EXPORT ORDINAL="164" NAME="?GetFlags@CxImage@@QBEKXZ" PURGE="0" COMMENT="" />
    <EXPORT ORDINAL="165" NAME="?GetFrame@CxImage@@QBEJXZ" PURGE="0" COMMENT="" />
    <EXPORT ORDINAL="166" NAME="?GetFrameDelay@CxImage@@QBEKXZ" PURGE="0" COMMENT="" />
    <EXPORT ORDINAL="167" NAME="?GetHeight@CxImage@@QBEKXZ" PURGE="0" COMMENT="" />
    <EXPORT ORDINAL="168" NAME="?GetImageBpp@CxImage@@QBEGXZ" PURGE="0" COMMENT="" />
    <EXPORT ORDINAL="169" NAME="?GetImageDataWithAlpha@CxImage@@QAEPAXXZ" PURGE="0" COMMENT="" />
    <EXPORT ORDINAL="170" NAME="?GetImageHeight@CxImage@@QBEKXZ" PURGE="0" COMMENT="" />
    <EXPORT ORDINAL="171" NAME="?GetImageWidth@CxImage@@QBEKXZ" PURGE="0" COMMENT="" />
    <EXPORT ORDINAL="172" NAME="?GetJpegQuality@CxImage@@QBEEXZ" PURGE="0" COMMENT="" />
    <EXPORT ORDINAL="173" NAME="?GetKeyColor@CxImage@@QBEKXZ" PURGE="0" COMMENT="" />
    <EXPORT ORDINAL="174" NAME="?GetLastError@CxImage@@QAEPADXZ" PURGE="0" COMMENT="" />
    <EXPORT ORDINAL="175" NAME="?GetLayer@CxImage@@QAEPAV1@J@Z" PURGE="4" COMMENT="" />
    <EXPORT ORDINAL="176" NAME="?GetLoops@CxImageGIF@@QAEJXZ" PURGE="0" COMMENT="" />
    <EXPORT ORDINAL="177" NAME="?GetNearestIndex@CxImage@@QAEEUtagRGBQUAD@@@Z" PURGE="4" COMMENT="" />
    <EXPORT ORDINAL="178" NAME="?GetNumColors@CxImage@@QBEKXZ" PURGE="0" COMMENT="" />
    <EXPORT ORDINAL="179" NAME="?GetNumFrames@CxImage@@QBEJXZ" PURGE="0" COMMENT="" />
    <EXPORT ORDINAL="180" NAME="?GetNumLayers@CxImage@@QBEJXZ" PURGE="0" COMMENT="" />
    <EXPORT ORDINAL="181" NAME="?GetOffset@CxImage@@QAEXPAJ0@Z" PURGE="8" COMMENT="" />
    <EXPORT ORDINAL="182" NAME="?GetPalette@CxImage@@QBEPAUtagRGBQUAD@@XZ" PURGE="0" COMMENT="" />
    <EXPORT ORDINAL="183" NAME="?GetPaletteColor@CxImage@@QAE?AUtagRGBQUAD@@E@Z" PURGE="8" COMMENT="" />
    <EXPORT ORDINAL="184" NAME="?GetPaletteColor@CxImage@@QAE_NEPAE00@Z" PURGE="16" COMMENT="" />
    <EXPORT ORDINAL="185" NAME="?GetPaletteSize@CxImage@@QAEKXZ" PURGE="0" COMMENT="" />
    <EXPORT ORDINAL="186" NAME="?GetParent@CxImage@@QBEPAV1@XZ" PURGE="0" COMMENT="" />
    <EXPORT ORDINAL="187" NAME="?GetPixelColor@CxImage@@QAE?AUtagRGBQUAD@@JJ@Z" PURGE="12" COMMENT="" />
    <EXPORT ORDINAL="188" NAME="?GetPixelGray@CxImage@@QAEEJJ@Z" PURGE="8" COMMENT="" />
    <EXPORT ORDINAL="189" NAME="?GetPixelIndex@CxImage@@QAEEJJ@Z" PURGE="8" COMMENT="" />
    <EXPORT ORDINAL="190" NAME="?GetProgress@CxImage@@QBEJXZ" PURGE="0" COMMENT="" />
    <EXPORT ORDINAL="191" NAME="?GetSize@CxImage@@QAEJXZ" PURGE="0" COMMENT="" />
    <EXPORT ORDINAL="192" NAME="?GetTransColor@CxImage@@QAE?AUtagRGBQUAD@@XZ" PURGE="4" COMMENT="" />
    <EXPORT ORDINAL="193" NAME="?GetTransIndex@CxImage@@QBEJXZ" PURGE="0" COMMENT="" />
    <EXPORT ORDINAL="194" NAME="?GetType@CxImage@@QBEKXZ" PURGE="0" COMMENT="" />
    <EXPORT ORDINAL="195" NAME="?GetVersion@CxImage@@QAEPBDXZ" PURGE="0" COMMENT="" />
    <EXPORT ORDINAL="196" NAME="?GetWidth@CxImage@@QBEKXZ" PURGE="0" COMMENT="" />
    <EXPORT ORDINAL="197" NAME="?GetXDPI@CxImage@@QBEJXZ" PURGE="0" COMMENT="" />
    <EXPORT ORDINAL="198" NAME="?GetYDPI@CxImage@@QBEJXZ" PURGE="0" COMMENT="" />
    <EXPORT ORDINAL="199" NAME="?Ghost@CxImage@@IAEXPAV1@@Z" PURGE="4" COMMENT="" />
    <EXPORT ORDINAL="200" NAME="?GifMix@CxImageGIF@@IAEXAAVCxImage@@JJ@Z" PURGE="12" COMMENT="" />
    <EXPORT ORDINAL="201" NAME="?GifNextPixel@CxImageGIF@@IAEHXZ" PURGE="0" COMMENT="" />
    <EXPORT ORDINAL="202" NAME="?GrayScale@CxImage@@QAE_NXZ" PURGE="0" COMMENT="" />
    <EXPORT ORDINAL="203" NAME="?HSLtoRGB@CxImage@@QAE?AUtagRGBQUAD@@K@Z" PURGE="8" COMMENT="" />
    <EXPORT ORDINAL="204" NAME="?HSLtoRGB@CxImage@@QAE?AUtagRGBQUAD@@U2@@Z" PURGE="8" COMMENT="" />
    <EXPORT ORDINAL="205" NAME="?Histogram@CxImage@@QAEJPAJ000J@Z" PURGE="20" COMMENT="" />
    <EXPORT ORDINAL="206" NAME="?HistogramEqualize@CxImage@@QAE_NXZ" PURGE="0" COMMENT="" />
    <EXPORT ORDINAL="207" NAME="?HistogramLog@CxImage@@QAE_NXZ" PURGE="0" COMMENT="" />
    <EXPORT ORDINAL="208" NAME="?HistogramNormalize@CxImage@@QAE_NXZ" PURGE="0" COMMENT="" />
    <EXPORT ORDINAL="209" NAME="?HistogramRoot@CxImage@@QAE_NXZ" PURGE="0" COMMENT="" />
    <EXPORT ORDINAL="210" NAME="?HistogramStretch@CxImage@@QAE_NXZ" PURGE="0" COMMENT="" />
    <EXPORT ORDINAL="211" NAME="?HuePalette@CxImage@@QAEXM@Z" PURGE="4" COMMENT="" />
    <EXPORT ORDINAL="212" NAME="?HueToRGB@CxImage@@IAEMMMM@Z" PURGE="12" COMMENT="" />
    <EXPORT ORDINAL="213" NAME="?IncreaseBpp@CxImage@@QAE_NK@Z" PURGE="4" COMMENT="" />
    <EXPORT ORDINAL="214" NAME="?IsEnabled@CxImage@@QBE_NXZ" PURGE="0" COMMENT="" />
    <EXPORT ORDINAL="215" NAME="?IsGrayScale@CxImage@@QAE_NXZ" PURGE="0" COMMENT="" />
    <EXPORT ORDINAL="216" NAME="?IsIndexed@CxImage@@QAE_NXZ" PURGE="0" COMMENT="" />
    <EXPORT ORDINAL="217" NAME="?IsInside@CxImage@@QAE_NJJ@Z" PURGE="8" COMMENT="" />
    <EXPORT ORDINAL="218" NAME="?IsPowerof2@CxImage@@IAE_NJ@Z" PURGE="4" COMMENT="" />
    <EXPORT ORDINAL="219" NAME="?IsTransparent@CxImage@@QAE_NJJ@Z" PURGE="8" COMMENT="" />
    <EXPORT ORDINAL="220" NAME="?IsTransparent@CxImage@@QBE_NXZ" PURGE="0" COMMENT="" />
    <EXPORT ORDINAL="221" NAME="?IsValid@CxImage@@QBE_NXZ" PURGE="0" COMMENT="" />
    <EXPORT ORDINAL="222" NAME="?Jitter@CxImage@@QAE_NJ@Z" PURGE="4" COMMENT="" />
    <EXPORT ORDINAL="223" NAME="?LayerCreate@CxImage@@QAE_NJ@Z" PURGE="4" COMMENT="" />
    <EXPORT ORDINAL="224" NAME="?LayerDelete@CxImage@@QAE_NJ@Z" PURGE="4" COMMENT="" />
    <EXPORT ORDINAL="225" NAME="?LayerDeleteAll@CxImage@@QAEXXZ" PURGE="0" COMMENT="" />
    <EXPORT ORDINAL="226" NAME="?Light@CxImage@@QAE_NJJ@Z" PURGE="8" COMMENT="" />
    <EXPORT ORDINAL="227" NAME="?Load@CxImage@@QAE_NPBGK@Z" PURGE="8" COMMENT="" />
    <EXPORT ORDINAL="228" NAME="?Load@CxImage@@QAE_NPBGK_N@Z" PURGE="12" COMMENT="" />
    <EXPORT ORDINAL="229" NAME="?LoadResource@CxImage@@QAE_NPAUHRSRC__@@KPAUHINSTANCE__@@@Z" PURGE="12" COMMENT="" />
    <EXPORT ORDINAL="230" NAME="?MakeBitmap@CxImage@@QAEPAUHBITMAP__@@PAUHDC__@@@Z" PURGE="4" COMMENT="" />
    <EXPORT ORDINAL="231" NAME="?Mean@CxImage@@QAEMXZ" PURGE="0" COMMENT="" />
    <EXPORT ORDINAL="232" NAME="?Median@CxImage@@QAE_NJ@Z" PURGE="4" COMMENT="" />
    <EXPORT ORDINAL="233" NAME="?Mirror@CxImage@@QAE_NXZ" PURGE="0" COMMENT="" />
    <EXPORT ORDINAL="234" NAME="?Mix@CxImage@@QAEXAAV1@W4ImageOpType@1@JJ@Z" PURGE="16" COMMENT="" />
    <EXPORT ORDINAL="235" NAME="?Negative@CxImage@@QAE_NXZ" PURGE="0" COMMENT="" />
    <EXPORT ORDINAL="236" NAME="?NewEncodeRGB@CxImageGIF@@IAE_NPAVCxFile@@@Z" PURGE="4" COMMENT="" />
    <EXPORT ORDINAL="237" NAME="?Noise@CxImage@@QAE_NJ@Z" PURGE="4" COMMENT="" />
    <EXPORT ORDINAL="238" NAME="?Open@CxIOFile@@QAE_NPBD0@Z" PURGE="8" COMMENT="" />
    <EXPORT ORDINAL="239" NAME="?Open@CxMemFile@@QAE_NXZ" PURGE="0" COMMENT="" />
    <EXPORT ORDINAL="240" NAME="?PutC@CxFile@@UAE_NE@Z" PURGE="4" COMMENT="" />
    <EXPORT ORDINAL="241" NAME="?PutC@CxIOFile@@UAE_NE@Z" PURGE="4" COMMENT="" />
    <EXPORT ORDINAL="242" NAME="?PutC@CxMemFile@@UAE_NE@Z" PURGE="4" COMMENT="" />
    <EXPORT ORDINAL="243" NAME="?Putword@CxImageGIF@@IAEXHPAVCxFile@@@Z" PURGE="8" COMMENT="" />
    <EXPORT ORDINAL="244" NAME="?RGBQUADtoRGB@CxImage@@QAEKUtagRGBQUAD@@@Z" PURGE="4" COMMENT="" />
    <EXPORT ORDINAL="245" NAME="?RGBtoBGR@CxImage@@IAEXPAEH@Z" PURGE="8" COMMENT="" />
    <EXPORT ORDINAL="246" NAME="?RGBtoHSL@CxImage@@QAE?AUtagRGBQUAD@@U2@@Z" PURGE="8" COMMENT="" />
    <EXPORT ORDINAL="247" NAME="?RGBtoRGBQUAD@CxImage@@QAE?AUtagRGBQUAD@@K@Z" PURGE="8" COMMENT="" />
    <EXPORT ORDINAL="248" NAME="?RGBtoXYZ@CxImage@@QAE?AUtagRGBQUAD@@U2@@Z" PURGE="8" COMMENT="" />
    <EXPORT ORDINAL="249" NAME="?RGBtoYIQ@CxImage@@QAE?AUtagRGBQUAD@@U2@@Z" PURGE="8" COMMENT="" />
    <EXPORT ORDINAL="250" NAME="?RGBtoYUV@CxImage@@QAE?AUtagRGBQUAD@@U2@@Z" PURGE="8" COMMENT="" />
    <EXPORT ORDINAL="251" NAME="?Read@CxIOFile@@UAEIPAXII@Z" PURGE="12" COMMENT="" />
    <EXPORT ORDINAL="252" NAME="?Read@CxMemFile@@UAEIPAXII@Z" PURGE="12" COMMENT="" />
    <EXPORT ORDINAL="253" NAME="?Repair@CxImage@@QAE_NMJJ@Z" PURGE="12" COMMENT="" />
    <EXPORT ORDINAL="254" NAME="?RepairChannel@CxImage@@IAE_NPAV1@M@Z" PURGE="8" COMMENT="" />
    <EXPORT ORDINAL="255" NAME="?Resample@CxImage@@QAE_NJJHPAV1@@Z" PURGE="16" COMMENT="" />
    <EXPORT ORDINAL="256" NAME="?Rotate180@CxImage@@QAE_NPAV1@@Z" PURGE="4" COMMENT="" />
    <EXPORT ORDINAL="257" NAME="?Rotate@CxImage@@QAE_NMPAV1@@Z" PURGE="8" COMMENT="" />
    <EXPORT ORDINAL="258" NAME="?RotateLeft@CxImage@@QAE_NPAV1@@Z" PURGE="4" COMMENT="" />
    <EXPORT ORDINAL="259" NAME="?RotateRight@CxImage@@QAE_NPAV1@@Z" PURGE="4" COMMENT="" />
    <EXPORT ORDINAL="260" NAME="?Save@CxImage@@QAE_NPBDK@Z" PURGE="8" COMMENT="" />
    <EXPORT ORDINAL="261" NAME="?Save@CxImage@@QAE_NPBGK@Z" PURGE="8" COMMENT="" />
    <EXPORT ORDINAL="262" NAME="?Seek@CxIOFile@@UAE_NJH@Z" PURGE="8" COMMENT="" />
    <EXPORT ORDINAL="263" NAME="?Seek@CxMemFile@@UAE_NJH@Z" PURGE="8" COMMENT="" />
    <EXPORT ORDINAL="264" NAME="?SelectionAddColor@CxImage@@QAE_NUtagRGBQUAD@@@Z" PURGE="4" COMMENT="" />
    <EXPORT ORDINAL="265" NAME="?SelectionAddEllipse@CxImage@@QAE_NUtagRECT@@@Z" PURGE="16" COMMENT="" />
    <EXPORT ORDINAL="266" NAME="?SelectionAddPixel@CxImage@@QAE_NHH@Z" PURGE="8" COMMENT="" />
    <EXPORT ORDINAL="267" NAME="?SelectionAddPolygon@CxImage@@QAE_NPAUtagPOINT@@J@Z" PURGE="8" COMMENT="" />
    <EXPORT ORDINAL="268" NAME="?SelectionAddRect@CxImage@@QAE_NUtagRECT@@@Z" PURGE="16" COMMENT="" />
    <EXPORT ORDINAL="269" NAME="?SelectionClear@CxImage@@QAE_NXZ" PURGE="0" COMMENT="" />
    <EXPORT ORDINAL="270" NAME="?SelectionCopy@CxImage@@QAE_NAAV1@@Z" PURGE="4" COMMENT="" />
    <EXPORT ORDINAL="271" NAME="?SelectionCreate@CxImage@@QAE_NXZ" PURGE="0" COMMENT="" />
    <EXPORT ORDINAL="272" NAME="?SelectionDelete@CxImage@@QAE_NXZ" PURGE="0" COMMENT="" />
    <EXPORT ORDINAL="273" NAME="?SelectionGetBox@CxImage@@QAEXAAUtagRECT@@@Z" PURGE="4" COMMENT="" />
    <EXPORT ORDINAL="274" NAME="?SelectionInvert@CxImage@@QAE_NXZ" PURGE="0" COMMENT="" />
    <EXPORT ORDINAL="275" NAME="?SelectionIsInside@CxImage@@QAE_NJJ@Z" PURGE="8" COMMENT="" />
    <EXPORT ORDINAL="276" NAME="?SelectionIsValid@CxImage@@QAE_NXZ" PURGE="0" COMMENT="" />
    <EXPORT ORDINAL="277" NAME="?SelectionToHRGN@CxImage@@QAE_NAAPAUHRGN__@@@Z" PURGE="4" COMMENT="" />
    <EXPORT ORDINAL="278" NAME="?SetClrImportant@CxImage@@QAEXK@Z" PURGE="4" COMMENT="" />
    <EXPORT ORDINAL="279" NAME="?SetComment@CxImageGIF@@QAEXPBD@Z" PURGE="4" COMMENT="" />
    <EXPORT ORDINAL="280" NAME="?SetDisposalMethod@CxImageGIF@@QAEXH@Z" PURGE="4" COMMENT="" />
    <EXPORT ORDINAL="281" NAME="?SetEncodeOption@CxImage@@QAEXK@Z" PURGE="4" COMMENT="" />
    <EXPORT ORDINAL="282" NAME="?SetEscape@CxImage@@QAEXJ@Z" PURGE="4" COMMENT="" />
    <EXPORT ORDINAL="283" NAME="?SetFlags@CxImage@@QAEXK_N@Z" PURGE="8" COMMENT="" />
    <EXPORT ORDINAL="284" NAME="?SetFrame@CxImage@@QAEXJ@Z" PURGE="4" COMMENT="" />
    <EXPORT ORDINAL="285" NAME="?SetFrameDelay@CxImage@@QAEXK@Z" PURGE="4" COMMENT="" />
    <EXPORT ORDINAL="286" NAME="?SetGrayPalette@CxImage@@QAEXXZ" PURGE="0" COMMENT="" />
    <EXPORT ORDINAL="287" NAME="?SetImageBpp@CxImage@@QAEXG@Z" PURGE="4" COMMENT="" />
    <EXPORT ORDINAL="288" NAME="?SetImageHeight@CxImage@@QAEXK@Z" PURGE="4" COMMENT="" />
    <EXPORT ORDINAL="289" NAME="?SetImageType@CxImage@@QAEXK@Z" PURGE="4" COMMENT="" />
    <EXPORT ORDINAL="290" NAME="?SetImageWidth@CxImage@@QAEXK@Z" PURGE="4" COMMENT="" />
    <EXPORT ORDINAL="291" NAME="?SetJpegQuality@CxImage@@QAEXE@Z" PURGE="4" COMMENT="" />
    <EXPORT ORDINAL="292" NAME="?SetKeyColor@CxImage@@QAEXK@Z" PURGE="4" COMMENT="" />
    <EXPORT ORDINAL="293" NAME="?SetLoops@CxImageGIF@@QAEXH@Z" PURGE="4" COMMENT="" />
    <EXPORT ORDINAL="294" NAME="?SetOffset@CxImage@@QAEXJJ@Z" PURGE="8" COMMENT="" />
    <EXPORT ORDINAL="295" NAME="?SetPalette@CxImage@@QAEXKPAE00@Z" PURGE="16" COMMENT="" />
    <EXPORT ORDINAL="296" NAME="?SetPalette@CxImage@@QAEXPAUrgb_color@@K@Z" PURGE="8" COMMENT="" />
    <EXPORT ORDINAL="297" NAME="?SetPalette@CxImage@@QAEXPAUtagRGBQUAD@@K@Z" PURGE="8" COMMENT="" />
    <EXPORT ORDINAL="298" NAME="?SetPaletteColor@CxImage@@QAEXEEEEE@Z" PURGE="20" COMMENT="" />
    <EXPORT ORDINAL="299" NAME="?SetPaletteColor@CxImage@@QAEXEK@Z" PURGE="8" COMMENT="" />
    <EXPORT ORDINAL="300" NAME="?SetPaletteColor@CxImage@@QAEXEUtagRGBQUAD@@@Z" PURGE="8" COMMENT="" />
    <EXPORT ORDINAL="301" NAME="?SetPixelColor@CxImage@@QAEXJJK@Z" PURGE="12" COMMENT="" />
    <EXPORT ORDINAL="302" NAME="?SetPixelColor@CxImage@@QAEXJJUtagRGBQUAD@@_N@Z" PURGE="16" COMMENT="" />
    <EXPORT ORDINAL="303" NAME="?SetPixelIndex@CxImage@@QAEXJJE@Z" PURGE="12" COMMENT="" />
    <EXPORT ORDINAL="304" NAME="?SetProgress@CxImage@@QAEXJ@Z" PURGE="4" COMMENT="" />
    <EXPORT ORDINAL="305" NAME="?SetRGBAFlag@CxImage@@IAEX_N@Z" PURGE="4" COMMENT="" />
    <EXPORT ORDINAL="306" NAME="?SetStdPalette@CxImage@@QAEXXZ" PURGE="0" COMMENT="" />
    <EXPORT ORDINAL="307" NAME="?SetTransColor@CxImage@@QAEXUtagRGBQUAD@@@Z" PURGE="4" COMMENT="" />
    <EXPORT ORDINAL="308" NAME="?SetTransIndex@CxImage@@QAEXJ@Z" PURGE="4" COMMENT="" />
    <EXPORT ORDINAL="309" NAME="?SetXDPI@CxImage@@QAEXJ@Z" PURGE="4" COMMENT="" />
    <EXPORT ORDINAL="310" NAME="?SetYDPI@CxImage@@QAEXJ@Z" PURGE="4" COMMENT="" />
    <EXPORT ORDINAL="311" NAME="?ShiftRGB@CxImage@@QAE_NJJJ@Z" PURGE="12" COMMENT="" />
    <EXPORT ORDINAL="312" NAME="?Size@CxIOFile@@UAEJXZ" PURGE="0" COMMENT="" />
    <EXPORT ORDINAL="313" NAME="?Size@CxMemFile@@UAEJXZ" PURGE="0" COMMENT="" />
    <EXPORT ORDINAL="314" NAME="?Skew@CxImage@@QAE_NMMJJ@Z" PURGE="16" COMMENT="" />
    <EXPORT ORDINAL="315" NAME="?SplitCMYK@CxImage@@QAE_NPAV1@000@Z" PURGE="16" COMMENT="" />
    <EXPORT ORDINAL="316" NAME="?SplitHSL@CxImage@@QAE_NPAV1@00@Z" PURGE="12" COMMENT="" />
    <EXPORT ORDINAL="317" NAME="?SplitRGB@CxImage@@QAE_NPAV1@00@Z" PURGE="12" COMMENT="" />
    <EXPORT ORDINAL="318" NAME="?SplitXYZ@CxImage@@QAE_NPAV1@00@Z" PURGE="12" COMMENT="" />
    <EXPORT ORDINAL="319" NAME="?SplitYIQ@CxImage@@QAE_NPAV1@00@Z" PURGE="12" COMMENT="" />
    <EXPORT ORDINAL="320" NAME="?SplitYUV@CxImage@@QAE_NPAV1@00@Z" PURGE="12" COMMENT="" />
    <EXPORT ORDINAL="321" NAME="?Startup@CxImage@@IAEXK@Z" PURGE="4" COMMENT="" />
    <EXPORT ORDINAL="322" NAME="?Stretch@CxImage@@QAEJPAUHDC__@@ABUtagRECT@@@Z" PURGE="8" COMMENT="" />
    <EXPORT ORDINAL="323" NAME="?Stretch@CxImage@@QAEJPAUHDC__@@JJJJ@Z" PURGE="20" COMMENT="" />
    <EXPORT ORDINAL="324" NAME="?SwapIndex@CxImage@@QAEXEE@Z" PURGE="8" COMMENT="" />
    <EXPORT ORDINAL="325" NAME="?Tell@CxIOFile@@UAEJXZ" PURGE="0" COMMENT="" />
    <EXPORT ORDINAL="326" NAME="?Tell@CxMemFile@@UAEJXZ" PURGE="0" COMMENT="" />
    <EXPORT ORDINAL="327" NAME="?Threshold@CxImage@@QAE_NE@Z" PURGE="4" COMMENT="" />
    <EXPORT ORDINAL="328" NAME="?Thumbnail@CxImage@@QAE_NJJUtagRGBQUAD@@PAV1@@Z" PURGE="16" COMMENT="" />
    <EXPORT ORDINAL="329" NAME="?Tile@CxImage@@QAEJPAUHDC__@@PAUtagRECT@@@Z" PURGE="8" COMMENT="" />
    <EXPORT ORDINAL="330" NAME="?TileToStrip@CxImageTIF@@IAEXPAE0KKHH@Z" PURGE="24" COMMENT="" />
    <EXPORT ORDINAL="331" NAME="?Transfer@CxImage@@QAEXAAV1@@Z" PURGE="4" COMMENT="" />
    <EXPORT ORDINAL="332" NAME="?Write@CxIOFile@@UAEIPBXII@Z" PURGE="12" COMMENT="" />
    <EXPORT ORDINAL="333" NAME="?Write@CxMemFile@@UAEIPBXII@Z" PURGE="12" COMMENT="" />
    <EXPORT ORDINAL="334" NAME="?XYZtoRGB@CxImage@@QAE?AUtagRGBQUAD@@U2@@Z" PURGE="8" COMMENT="" />
    <EXPORT ORDINAL="335" NAME="?YIQtoRGB@CxImage@@QAE?AUtagRGBQUAD@@U2@@Z" PURGE="8" COMMENT="" />
    <EXPORT ORDINAL="336" NAME="?YUVtoRGB@CxImage@@QAE?AUtagRGBQUAD@@U2@@Z" PURGE="8" COMMENT="" />
    <EXPORT ORDINAL="337" NAME="?b3spline@CxImage@@IAEMM@Z" PURGE="4" COMMENT="" />
    <EXPORT ORDINAL="338" NAME="?char_out@CxImageGIF@@IAEXH@Z" PURGE="4" COMMENT="" />
    <EXPORT ORDINAL="339" NAME="?cl_hash@CxImageGIF@@IAEXJ@Z" PURGE="4" COMMENT="" />
    <EXPORT ORDINAL="340" NAME="?compressLZW@CxImageGIF@@IAEXHPAVCxFile@@@Z" PURGE="8" COMMENT="" />
    <EXPORT ORDINAL="341" NAME="?compressNONE@CxImageGIF@@IAEXHPAVCxFile@@@Z" PURGE="8" COMMENT="" />
    <EXPORT ORDINAL="342" NAME="?compressRLE@CxImageGIF@@IAEXHPAVCxFile@@@Z" PURGE="8" COMMENT="" />
    <EXPORT ORDINAL="343" NAME="?decoder@CxImageGIF@@IAEFPAVCxFile@@PAVCImageIterator@@FAAH@Z" PURGE="16" COMMENT="" />
    <EXPORT ORDINAL="344" NAME="?flush_char@CxImageGIF@@IAEXXZ" PURGE="0" COMMENT="" />
    <EXPORT ORDINAL="345" NAME="?get_byte@CxImageGIF@@IAEHPAVCxFile@@@Z" PURGE="4" COMMENT="" />
    <EXPORT ORDINAL="346" NAME="?get_next_code@CxImageGIF@@IAEFPAVCxFile@@@Z" PURGE="4" COMMENT="" />
    <EXPORT ORDINAL="347" NAME="?get_num_frames@CxImageGIF@@IAEHPAVCxFile@@PAUtag_TabCol@1@@Z" PURGE="8" COMMENT="" />
    <EXPORT ORDINAL="348" NAME="?init_exp@CxImageGIF@@IAEFF@Z" PURGE="4" COMMENT="" />
    <EXPORT ORDINAL="349" NAME="?out_line@CxImageGIF@@IAEHPAVCImageIterator@@PAEH@Z" PURGE="12" COMMENT="" />
    <EXPORT ORDINAL="350" NAME="?output@CxImageGIF@@IAEXF@Z" PURGE="4" COMMENT="" />
    <EXPORT ORDINAL="351" NAME="?rle_block_flush@CxImageGIF@@IAEXPAUtag_RLE@1@@Z" PURGE="4" COMMENT="" />
    <EXPORT ORDINAL="352" NAME="?rle_block_out@CxImageGIF@@IAEXEPAUtag_RLE@1@@Z" PURGE="8" COMMENT="" />
    <EXPORT ORDINAL="353" NAME="?rle_clear@CxImageGIF@@IAEXPAUtag_RLE@1@@Z" PURGE="4" COMMENT="" />
    <EXPORT ORDINAL="354" NAME="?rle_compute_triangle_count@CxImageGIF@@IAEIII@Z" PURGE="8" COMMENT="" />
    <EXPORT ORDINAL="355" NAME="?rle_flush@CxImageGIF@@IAEXPAUtag_RLE@1@@Z" PURGE="4" COMMENT="" />
    <EXPORT ORDINAL="356" NAME="?rle_flush_clearorrep@CxImageGIF@@IAEXHPAUtag_RLE@1@@Z" PURGE="8" COMMENT="" />
    <EXPORT ORDINAL="357" NAME="?rle_flush_fromclear@CxImageGIF@@IAEXHPAUtag_RLE@1@@Z" PURGE="8" COMMENT="" />
    <EXPORT ORDINAL="358" NAME="?rle_flush_withtable@CxImageGIF@@IAEXHPAUtag_RLE@1@@Z" PURGE="8" COMMENT="" />
    <EXPORT ORDINAL="359" NAME="?rle_isqrt@CxImageGIF@@IAEII@Z" PURGE="4" COMMENT="" />
    <EXPORT ORDINAL="360" NAME="?rle_output@CxImageGIF@@IAEXHPAUtag_RLE@1@@Z" PURGE="8" COMMENT="" />
    <EXPORT ORDINAL="361" NAME="?rle_output_flush@CxImageGIF@@IAEXPAUtag_RLE@1@@Z" PURGE="4" COMMENT="" />
    <EXPORT ORDINAL="362" NAME="?rle_output_plain@CxImageGIF@@IAEXHPAUtag_RLE@1@@Z" PURGE="8" COMMENT="" />
    <EXPORT ORDINAL="363" NAME="?rle_reset_out_clear@CxImageGIF@@IAEXPAUtag_RLE@1@@Z" PURGE="4" COMMENT="" />
    <EXPORT ORDINAL="364" NAME="?rle_write_block@CxImageGIF@@IAEXPAUtag_RLE@1@@Z" PURGE="4" COMMENT="" />
</LIBRARY>

