<?xml version="1.0" encoding="UTF-8"?>
<LIBRARY NAME="imutils.dll" PATH="/DLLArchive/etc/ImUtils.dll" DATE="Fri Jul 03 12:42:48 PDT 2020" VERSION="2, 5, 0, 1313">
    <EXPORT ORDINAL="1" NAME="??0CBase64Coder@@QAE@ABV0@@Z" PURGE="4" COMMENT="" />
    <EXPORT ORDINAL="2" NAME="??0CBase64Coder@@QAE@XZ" PURGE="0" COMMENT="" />
    <EXPORT ORDINAL="3" NAME="??0CCommandLine@@QAE@XZ" PURGE="0" COMMENT="" />
    <EXPORT ORDINAL="4" NAME="??0CComplexNode@@QAE@ABV0@@Z" PURGE="4" COMMENT="" />
    <EXPORT ORDINAL="5" NAME="??0CComplexNode@@QAE@PBD@Z" PURGE="4" COMMENT="" />
    <EXPORT ORDINAL="6" NAME="??0CContent@@QAE@ABV0@@Z" PURGE="4" COMMENT="" />
    <EXPORT ORDINAL="7" NAME="??0CContent@@QAE@XZ" PURGE="0" COMMENT="" />
    <EXPORT ORDINAL="8" NAME="??0CContentDataTree@@QAE@XZ" PURGE="0" COMMENT="" />
    <EXPORT ORDINAL="9" NAME="??0CFeature@@QAE@ABV0@@Z" PURGE="4" COMMENT="" />
    <EXPORT ORDINAL="10" NAME="??0CFeature@@QAE@XZ" PURGE="0" COMMENT="" />
    <EXPORT ORDINAL="11" NAME="??0CFileEncoder@@QAE@ABV0@@Z" PURGE="4" COMMENT="" />
    <EXPORT ORDINAL="12" NAME="??0CFileEncoder@@QAE@PAVCIncrediFile@@@Z" PURGE="4" COMMENT="" />
    <EXPORT ORDINAL="13" NAME="??0CFileEncoder@@QAE@XZ" PURGE="0" COMMENT="" />
    <EXPORT ORDINAL="14" NAME="??0CFunctionTrace@@QAE@ABV0@@Z" PURGE="4" COMMENT="" />
    <EXPORT ORDINAL="15" NAME="??0CFunctionTrace@@QAE@PBD@Z" PURGE="4" COMMENT="" />
    <EXPORT ORDINAL="16" NAME="??0CHTMLContent@@QAE@ABV0@@Z" PURGE="4" COMMENT="" />
    <EXPORT ORDINAL="17" NAME="??0CHTMLContent@@QAE@XZ" PURGE="0" COMMENT="" />
    <EXPORT ORDINAL="18" NAME="??0CIdentitiesManager@@QAE@ABV0@@Z" PURGE="4" COMMENT="" />
    <EXPORT ORDINAL="19" NAME="??0CIdentitiesManager@@QAE@XZ" PURGE="0" COMMENT="" />
    <EXPORT ORDINAL="20" NAME="??0CImAppDetector@@QAE@XZ" PURGE="0" COMMENT="" />
    <EXPORT ORDINAL="21" NAME="??0CImFileDialog@@QAE@HPBD0K0PAVCWnd@@@Z" PURGE="24" COMMENT="" />
    <EXPORT ORDINAL="22" NAME="??0CImFlatSafeArray@@QAE@ABV0@@Z" PURGE="4" COMMENT="" />
    <EXPORT ORDINAL="23" NAME="??0CImFlatSafeArray@@QAE@H@Z" PURGE="4" COMMENT="" />
    <EXPORT ORDINAL="24" NAME="??0CImHook@@QAE@ABV0@@Z" PURGE="4" COMMENT="" />
    <EXPORT ORDINAL="25" NAME="??0CImHook@@QAE@XZ" PURGE="0" COMMENT="" />
    <EXPORT ORDINAL="26" NAME="??0CImLibrary@@QAE@ABV0@@Z" PURGE="4" COMMENT="" />
    <EXPORT ORDINAL="27" NAME="??0CImLibrary@@QAE@PBD@Z" PURGE="4" COMMENT="" />
    <EXPORT ORDINAL="28" NAME="??0CImParams@@QAE@ABV0@@Z" PURGE="4" COMMENT="" />
    <EXPORT ORDINAL="29" NAME="??0CImParams@@QAE@H@Z" PURGE="4" COMMENT="" />
    <EXPORT ORDINAL="30" NAME="??0CImParams@@QAE@XZ" PURGE="0" COMMENT="" />
    <EXPORT ORDINAL="31" NAME="??0CImQueryInfo@@QAE@ABV0@@Z" PURGE="4" COMMENT="" />
    <EXPORT ORDINAL="32" NAME="??0CImQueryInfo@@QAE@XZ" PURGE="0" COMMENT="" />
    <EXPORT ORDINAL="33" NAME="??0CImSafeArray@@QAE@ABUtagVARIANT@@@Z" PURGE="4" COMMENT="" />
    <EXPORT ORDINAL="34" NAME="??0CImSafeArray@@QAE@ABV0@@Z" PURGE="4" COMMENT="" />
    <EXPORT ORDINAL="35" NAME="??0CImSafeArray@@QAE@XZ" PURGE="0" COMMENT="" />
    <EXPORT ORDINAL="36" NAME="??0CImString@@QAE@ABV0@@Z" PURGE="4" COMMENT="" />
    <EXPORT ORDINAL="37" NAME="??0CImString@@QAE@ABVCString@@@Z" PURGE="4" COMMENT="" />
    <EXPORT ORDINAL="38" NAME="??0CImString@@QAE@PBDH@Z" PURGE="8" COMMENT="" />
    <EXPORT ORDINAL="39" NAME="??0CImString@@QAE@XZ" PURGE="0" COMMENT="" />
    <EXPORT ORDINAL="40" NAME="??0CImXml@@QAE@XZ" PURGE="0" COMMENT="" />
    <EXPORT ORDINAL="41" NAME="??0CIncrediCapture@@QAE@ABV0@@Z" PURGE="4" COMMENT="" />
    <EXPORT ORDINAL="42" NAME="??0CIncrediCapture@@QAE@XZ" PURGE="0" COMMENT="" />
    <EXPORT ORDINAL="43" NAME="??0CIncrediCompression@@QAE@ABV0@@Z" PURGE="4" COMMENT="" />
    <EXPORT ORDINAL="44" NAME="??0CIncrediCompression@@QAE@XZ" PURGE="0" COMMENT="" />
    <EXPORT ORDINAL="45" NAME="??0CIncrediCustom@@QAE@ABV0@@Z" PURGE="4" COMMENT="" />
    <EXPORT ORDINAL="46" NAME="??0CIncrediCustom@@QAE@XZ" PURGE="0" COMMENT="" />
    <EXPORT ORDINAL="47" NAME="??0CIncrediDeCompression@@QAE@ABV0@@Z" PURGE="4" COMMENT="" />
    <EXPORT ORDINAL="48" NAME="??0CIncrediDeCompression@@QAE@XZ" PURGE="0" COMMENT="" />
    <EXPORT ORDINAL="49" NAME="??0CIncrediError@@IAE@XZ" PURGE="0" COMMENT="" />
    <EXPORT ORDINAL="50" NAME="??0CIncrediFactory@@QAE@ABV0@@Z" PURGE="4" COMMENT="" />
    <EXPORT ORDINAL="51" NAME="??0CIncrediFactory@@QAE@XZ" PURGE="0" COMMENT="" />
    <EXPORT ORDINAL="52" NAME="??0CIncrediFile@@QAE@ABV0@@Z" PURGE="4" COMMENT="" />
    <EXPORT ORDINAL="53" NAME="??0CIncrediFile@@QAE@XZ" PURGE="0" COMMENT="" />
    <EXPORT ORDINAL="54" NAME="??0CIncrediGC@@IAE@XZ" PURGE="0" COMMENT="" />
    <EXPORT ORDINAL="55" NAME="??0CIncrediGlobals@@IAE@XZ" PURGE="0" COMMENT="" />
    <EXPORT ORDINAL="56" NAME="??0CIncrediHTMLParser@@QAE@ABV0@@Z" PURGE="4" COMMENT="" />
    <EXPORT ORDINAL="57" NAME="??0CIncrediHTMLParser@@QAE@XZ" PURGE="0" COMMENT="" />
    <EXPORT ORDINAL="58" NAME="??0CIncrediLicense@@AAE@XZ" PURGE="0" COMMENT="" />
    <EXPORT ORDINAL="59" NAME="??0CIncrediMLang@@QAE@XZ" PURGE="0" COMMENT="" />
    <EXPORT ORDINAL="60" NAME="??0CIncrediMainWnd@@QAE@XZ" PURGE="0" COMMENT="" />
    <EXPORT ORDINAL="61" NAME="??0CIncrediMemFile@@QAE@ABV0@@Z" PURGE="4" COMMENT="" />
    <EXPORT ORDINAL="62" NAME="??0CIncrediMemFile@@QAE@XZ" PURGE="0" COMMENT="" />
    <EXPORT ORDINAL="63" NAME="??0CIncrediOptions@@IAE@XZ" PURGE="0" COMMENT="" />
    <EXPORT ORDINAL="64" NAME="??0CIncrediOptions@@QAE@ABV0@@Z" PURGE="4" COMMENT="" />
    <EXPORT ORDINAL="65" NAME="??0CIncrediPtrList@@AAE@XZ" PURGE="0" COMMENT="" />
    <EXPORT ORDINAL="66" NAME="??0CIncrediReg@@AAE@XZ" PURGE="0" COMMENT="" />
    <EXPORT ORDINAL="67" NAME="??0CIncrediReg@@QAE@ABV0@@Z" PURGE="4" COMMENT="" />
    <EXPORT ORDINAL="68" NAME="??0CIncrediResApp@@QAE@XZ" PURGE="0" COMMENT="" />
    <EXPORT ORDINAL="69" NAME="??0CIncrediRules@@AAE@XZ" PURGE="0" COMMENT="" />
    <EXPORT ORDINAL="70" NAME="??0CIncrediRules@@QAE@ABV0@@Z" PURGE="4" COMMENT="" />
    <EXPORT ORDINAL="71" NAME="??0CIncrediScale@@AAE@XZ" PURGE="0" COMMENT="" />
    <EXPORT ORDINAL="72" NAME="??0CIncrediScale@@QAE@ABV0@@Z" PURGE="4" COMMENT="" />
    <EXPORT ORDINAL="73" NAME="??0CIncrediTimer@@QAE@XZ" PURGE="0" COMMENT="" />
    <EXPORT ORDINAL="74" NAME="??0CIncrediWinApp@@QAE@XZ" PURGE="0" COMMENT="" />
    <EXPORT ORDINAL="75" NAME="??0CModuleVersion@@QAE@ABV0@@Z" PURGE="4" COMMENT="" />
    <EXPORT ORDINAL="76" NAME="??0CModuleVersion@@QAE@XZ" PURGE="0" COMMENT="" />
    <EXPORT ORDINAL="77" NAME="??0CNode@@QAE@ABV0@@Z" PURGE="4" COMMENT="" />
    <EXPORT ORDINAL="78" NAME="??0CNode@@QAE@XZ" PURGE="0" COMMENT="" />
    <EXPORT ORDINAL="79" NAME="??0CProduct@@QAE@ABV0@@Z" PURGE="4" COMMENT="" />
    <EXPORT ORDINAL="80" NAME="??0CProduct@@QAE@PBD@Z" PURGE="4" COMMENT="" />
    <EXPORT ORDINAL="81" NAME="??0CRule@@QAE@PBD@Z" PURGE="4" COMMENT="" />
    <EXPORT ORDINAL="82" NAME="??0CSmartSysString@@QAE@AAVCString@@@Z" PURGE="4" COMMENT="" />
    <EXPORT ORDINAL="83" NAME="??0CSmartSysString@@QAE@ABV0@@Z" PURGE="4" COMMENT="" />
    <EXPORT ORDINAL="84" NAME="??0CSmartSysString@@QAE@PAG_N@Z" PURGE="8" COMMENT="" />
    <EXPORT ORDINAL="85" NAME="??0CSmartSysString@@QAE@XZ" PURGE="0" COMMENT="" />
    <EXPORT ORDINAL="86" NAME="??0CValue@@QAE@XZ" PURGE="0" COMMENT="" />
    <EXPORT ORDINAL="87" NAME="??0CWebDomain@@QAE@AAVCString@@@Z" PURGE="4" COMMENT="" />
    <EXPORT ORDINAL="88" NAME="??0CWebDomain@@QAE@ABV0@@Z" PURGE="4" COMMENT="" />
    <EXPORT ORDINAL="89" NAME="??0CWebTechnology@@QAE@AAVCString@@@Z" PURGE="4" COMMENT="" />
    <EXPORT ORDINAL="90" NAME="??0CWebTechnology@@QAE@ABV0@@Z" PURGE="4" COMMENT="" />
    <EXPORT ORDINAL="91" NAME="??1CBase64Coder@@UAE@XZ" PURGE="0" COMMENT="" />
    <EXPORT ORDINAL="92" NAME="??1CCommandLine@@UAE@XZ" PURGE="0" COMMENT="" />
    <EXPORT ORDINAL="93" NAME="??1CComplexNode@@QAE@XZ" PURGE="-1" COMMENT="" />
    <EXPORT ORDINAL="94" NAME="??1CContent@@UAE@XZ" PURGE="0" COMMENT="" />
    <EXPORT ORDINAL="95" NAME="??1CContentDataTree@@UAE@XZ" PURGE="0" COMMENT="" />
    <EXPORT ORDINAL="96" NAME="??1CFeature@@QAE@XZ" PURGE="-1" COMMENT="" />
    <EXPORT ORDINAL="97" NAME="??1CFileEncoder@@UAE@XZ" PURGE="0" COMMENT="" />
    <EXPORT ORDINAL="98" NAME="??1CFunctionTrace@@UAE@XZ" PURGE="0" COMMENT="" />
    <EXPORT ORDINAL="99" NAME="??1CHTMLContent@@UAE@XZ" PURGE="0" COMMENT="" />
    <EXPORT ORDINAL="100" NAME="??1CIdentitiesManager@@UAE@XZ" PURGE="0" COMMENT="" />
    <EXPORT ORDINAL="101" NAME="??1CImAppDetector@@UAE@XZ" PURGE="0" COMMENT="" />
    <EXPORT ORDINAL="102" NAME="??1CImFileDialog@@UAE@XZ" PURGE="0" COMMENT="" />
    <EXPORT ORDINAL="103" NAME="??1CImFlatSafeArray@@UAE@XZ" PURGE="0" COMMENT="" />
    <EXPORT ORDINAL="104" NAME="??1CImHook@@UAE@XZ" PURGE="0" COMMENT="" />
    <EXPORT ORDINAL="105" NAME="??1CImLibrary@@UAE@XZ" PURGE="0" COMMENT="" />
    <EXPORT ORDINAL="106" NAME="??1CImParams@@UAE@XZ" PURGE="0" COMMENT="" />
    <EXPORT ORDINAL="107" NAME="??1CImQueryInfo@@UAE@XZ" PURGE="0" COMMENT="" />
    <EXPORT ORDINAL="108" NAME="??1CImSafeArray@@UAE@XZ" PURGE="0" COMMENT="" />
    <EXPORT ORDINAL="109" NAME="??1CImString@@UAE@XZ" PURGE="0" COMMENT="" />
    <EXPORT ORDINAL="110" NAME="??1CImXml@@UAE@XZ" PURGE="0" COMMENT="" />
    <EXPORT ORDINAL="111" NAME="??1CIncrediCapture@@UAE@XZ" PURGE="0" COMMENT="" />
    <EXPORT ORDINAL="112" NAME="??1CIncrediCompression@@UAE@XZ" PURGE="-1" COMMENT="" />
    <EXPORT ORDINAL="113" NAME="??1CIncrediCustom@@UAE@XZ" PURGE="0" COMMENT="" />
    <EXPORT ORDINAL="114" NAME="??1CIncrediDeCompression@@UAE@XZ" PURGE="-1" COMMENT="" />
    <EXPORT ORDINAL="115" NAME="??1CIncrediError@@UAE@XZ" PURGE="0" COMMENT="" />
    <EXPORT ORDINAL="116" NAME="??1CIncrediFactory@@UAE@XZ" PURGE="0" COMMENT="" />
    <EXPORT ORDINAL="117" NAME="??1CIncrediFile@@UAE@XZ" PURGE="0" COMMENT="" />
    <EXPORT ORDINAL="118" NAME="??1CIncrediGC@@UAE@XZ" PURGE="0" COMMENT="" />
    <EXPORT ORDINAL="119" NAME="??1CIncrediGlobals@@UAE@XZ" PURGE="-1" COMMENT="" />
    <EXPORT ORDINAL="120" NAME="??1CIncrediHTMLParser@@UAE@XZ" PURGE="0" COMMENT="" />
    <EXPORT ORDINAL="121" NAME="??1CIncrediLicense@@UAE@XZ" PURGE="0" COMMENT="" />
    <EXPORT ORDINAL="122" NAME="??1CIncrediMLang@@UAE@XZ" PURGE="0" COMMENT="" />
    <EXPORT ORDINAL="123" NAME="??1CIncrediMainWnd@@UAE@XZ" PURGE="0" COMMENT="" />
    <EXPORT ORDINAL="124" NAME="??1CIncrediMemFile@@UAE@XZ" PURGE="0" COMMENT="" />
    <EXPORT ORDINAL="125" NAME="??1CIncrediOptions@@MAE@XZ" PURGE="0" COMMENT="" />
    <EXPORT ORDINAL="126" NAME="??1CIncrediPtrList@@UAE@XZ" PURGE="0" COMMENT="" />
    <EXPORT ORDINAL="127" NAME="??1CIncrediReg@@UAE@XZ" PURGE="0" COMMENT="" />
    <EXPORT ORDINAL="128" NAME="??1CIncrediResApp@@MAE@XZ" PURGE="-1" COMMENT="" />
    <EXPORT ORDINAL="129" NAME="??1CIncrediRules@@UAE@XZ" PURGE="0" COMMENT="" />
    <EXPORT ORDINAL="130" NAME="??1CIncrediScale@@UAE@XZ" PURGE="0" COMMENT="" />
    <EXPORT ORDINAL="131" NAME="??1CIncrediTimer@@UAE@XZ" PURGE="0" COMMENT="" />
    <EXPORT ORDINAL="132" NAME="??1CIncrediWinApp@@MAE@XZ" PURGE="-1" COMMENT="" />
    <EXPORT ORDINAL="133" NAME="??1CModuleVersion@@UAE@XZ" PURGE="0" COMMENT="" />
    <EXPORT ORDINAL="134" NAME="??1CNode@@QAE@XZ" PURGE="-1" COMMENT="" />
    <EXPORT ORDINAL="135" NAME="??1CProduct@@QAE@XZ" PURGE="-1" COMMENT="" />
    <EXPORT ORDINAL="136" NAME="??1CRule@@QAE@XZ" PURGE="0" COMMENT="" />
    <EXPORT ORDINAL="137" NAME="??1CSmartSysString@@QAE@XZ" PURGE="-1" COMMENT="" />
    <EXPORT ORDINAL="138" NAME="??1CWebDomain@@UAE@XZ" PURGE="0" COMMENT="" />
    <EXPORT ORDINAL="139" NAME="??1CWebTechnology@@UAE@XZ" PURGE="-1" COMMENT="" />
    <EXPORT ORDINAL="140" NAME="??4CBase64Coder@@QAEAAV0@ABV0@@Z" PURGE="4" COMMENT="" />
    <EXPORT ORDINAL="141" NAME="??4CComplexNode@@QAEAAV0@ABV0@@Z" PURGE="4" COMMENT="" />
    <EXPORT ORDINAL="142" NAME="??4CContent@@QAEAAV0@ABV0@@Z" PURGE="4" COMMENT="" />
    <EXPORT ORDINAL="143" NAME="??4CFeature@@QAEAAV0@ABV0@@Z" PURGE="4" COMMENT="" />
    <EXPORT ORDINAL="144" NAME="??4CFeature@@QAEHUtagFeature@@@Z" PURGE="24" COMMENT="" />
    <EXPORT ORDINAL="145" NAME="??4CFileEncoder@@QAEAAV0@ABV0@@Z" PURGE="4" COMMENT="" />
    <EXPORT ORDINAL="146" NAME="??4CFunctionTrace@@QAEAAV0@ABV0@@Z" PURGE="4" COMMENT="" />
    <EXPORT ORDINAL="147" NAME="??4CHTMLContent@@QAEAAV0@ABV0@@Z" PURGE="4" COMMENT="" />
    <EXPORT ORDINAL="148" NAME="??4CIdentitiesManager@@QAEAAV0@ABV0@@Z" PURGE="4" COMMENT="" />
    <EXPORT ORDINAL="149" NAME="??4CImFlatSafeArray@@QAEAAV0@ABV0@@Z" PURGE="4" COMMENT="" />
    <EXPORT ORDINAL="150" NAME="??4CImHook@@QAEAAV0@ABV0@@Z" PURGE="4" COMMENT="" />
    <EXPORT ORDINAL="151" NAME="??4CImLibrary@@QAEAAV0@ABV0@@Z" PURGE="4" COMMENT="" />
    <EXPORT ORDINAL="152" NAME="??4CImParams@@QAEAAV0@ABV0@@Z" PURGE="4" COMMENT="" />
    <EXPORT ORDINAL="153" NAME="??4CImQueryInfo@@QAEAAV0@ABV0@@Z" PURGE="4" COMMENT="" />
    <EXPORT ORDINAL="154" NAME="??4CImSafeArray@@QAEAAV0@ABV0@@Z" PURGE="4" COMMENT="" />
    <EXPORT ORDINAL="155" NAME="??4CImString@@QAEAAV0@ABV0@@Z" PURGE="4" COMMENT="" />
    <EXPORT ORDINAL="156" NAME="??4CImString@@QAEABVCString@@ABV1@@Z" PURGE="4" COMMENT="" />
    <EXPORT ORDINAL="157" NAME="??4CImString@@QAEABVCString@@PAG@Z" PURGE="4" COMMENT="" />
    <EXPORT ORDINAL="158" NAME="??4CImString@@QAEABVCString@@PBD@Z" PURGE="4" COMMENT="" />
    <EXPORT ORDINAL="159" NAME="??4CIncrediCapture@@QAEAAV0@ABV0@@Z" PURGE="4" COMMENT="" />
    <EXPORT ORDINAL="160" NAME="??4CIncrediCompression@@QAEAAV0@ABV0@@Z" PURGE="4" COMMENT="" />
    <EXPORT ORDINAL="161" NAME="??4CIncrediCustom@@QAEAAV0@ABV0@@Z" PURGE="4" COMMENT="" />
    <EXPORT ORDINAL="162" NAME="??4CIncrediDeCompression@@QAEAAV0@ABV0@@Z" PURGE="4" COMMENT="" />
    <EXPORT ORDINAL="163" NAME="??4CIncrediFactory@@QAEAAV0@ABV0@@Z" PURGE="4" COMMENT="" />
    <EXPORT ORDINAL="164" NAME="??4CIncrediFile@@QAEAAV0@ABV0@@Z" PURGE="4" COMMENT="" />
    <EXPORT ORDINAL="165" NAME="??4CIncrediHTMLParser@@QAEAAV0@ABV0@@Z" PURGE="4" COMMENT="" />
    <EXPORT ORDINAL="166" NAME="??4CIncrediMemFile@@QAEAAV0@ABV0@@Z" PURGE="4" COMMENT="" />
    <EXPORT ORDINAL="167" NAME="??4CIncrediOptions@@QAEAAV0@ABV0@@Z" PURGE="4" COMMENT="" />
    <EXPORT ORDINAL="168" NAME="??4CIncrediReg@@QAEAAV0@ABV0@@Z" PURGE="4" COMMENT="" />
    <EXPORT ORDINAL="169" NAME="??4CIncrediRules@@QAEAAV0@ABV0@@Z" PURGE="4" COMMENT="" />
    <EXPORT ORDINAL="170" NAME="??4CIncrediScale@@QAEAAV0@ABV0@@Z" PURGE="4" COMMENT="" />
    <EXPORT ORDINAL="171" NAME="??4CModuleVersion@@QAEAAV0@ABV0@@Z" PURGE="4" COMMENT="" />
    <EXPORT ORDINAL="172" NAME="??4CNode@@QAEAAV0@ABV0@@Z" PURGE="4" COMMENT="" />
    <EXPORT ORDINAL="173" NAME="??4CNode@@QAEHUtagNode@@@Z" PURGE="24" COMMENT="" />
    <EXPORT ORDINAL="174" NAME="??4CProduct@@QAEAAV0@ABV0@@Z" PURGE="4" COMMENT="" />
    <EXPORT ORDINAL="175" NAME="??4CSmartSysString@@QAEAAV0@ABV0@@Z" PURGE="4" COMMENT="" />
    <EXPORT ORDINAL="176" NAME="??4CSmartSysString@@QAEABVCString@@ABV1@@Z" PURGE="4" COMMENT="" />
    <EXPORT ORDINAL="177" NAME="??4CSmartSysString@@QAEABVCString@@PBD@Z" PURGE="4" COMMENT="" />
    <EXPORT ORDINAL="178" NAME="??4CSmartSysString@@QAEHPAG@Z" PURGE="4" COMMENT="" />
    <EXPORT ORDINAL="179" NAME="??4CValue@@QAEAAV0@ABV0@@Z" PURGE="4" COMMENT="" />
    <EXPORT ORDINAL="180" NAME="??4CWebDomain@@QAEAAV0@ABV0@@Z" PURGE="4" COMMENT="" />
    <EXPORT ORDINAL="181" NAME="??4CWebTechnology@@QAEAAV0@ABV0@@Z" PURGE="4" COMMENT="" />
    <EXPORT ORDINAL="182" NAME="??BCIncrediFile@@QBEPAU_iobuf@@XZ" PURGE="0" COMMENT="" />
    <EXPORT ORDINAL="183" NAME="??_7CBase64Coder@@6B@" PURGE="-1" COMMENT="" />
    <EXPORT ORDINAL="184" NAME="??_7CCommandLine@@6B@" PURGE="-1" COMMENT="" />
    <EXPORT ORDINAL="185" NAME="??_7CContent@@6B@" PURGE="-1" COMMENT="" />
    <EXPORT ORDINAL="186" NAME="??_7CContentDataTree@@6B@" PURGE="-1" COMMENT="" />
    <EXPORT ORDINAL="187" NAME="??_7CFileEncoder@@6B@" PURGE="-1" COMMENT="" />
    <EXPORT ORDINAL="188" NAME="??_7CFunctionTrace@@6B@" PURGE="-1" COMMENT="" />
    <EXPORT ORDINAL="189" NAME="??_7CHTMLContent@@6B@" PURGE="-1" COMMENT="" />
    <EXPORT ORDINAL="190" NAME="??_7CIdentitiesManager@@6B@" PURGE="-1" COMMENT="" />
    <EXPORT ORDINAL="191" NAME="??_7CImAppDetector@@6B@" PURGE="-1" COMMENT="" />
    <EXPORT ORDINAL="192" NAME="??_7CImFileDialog@@6B@" PURGE="-1" COMMENT="" />
    <EXPORT ORDINAL="193" NAME="??_7CImFlatSafeArray@@6B@" PURGE="-1" COMMENT="" />
    <EXPORT ORDINAL="194" NAME="??_7CImHook@@6B@" PURGE="-1" COMMENT="" />
    <EXPORT ORDINAL="195" NAME="??_7CImLibrary@@6B@" PURGE="-1" COMMENT="" />
    <EXPORT ORDINAL="196" NAME="??_7CImParams@@6B@" PURGE="-1" COMMENT="" />
    <EXPORT ORDINAL="197" NAME="??_7CImQueryInfo@@6B@" PURGE="-1" COMMENT="" />
    <EXPORT ORDINAL="198" NAME="??_7CImSafeArray@@6B@" PURGE="-1" COMMENT="" />
    <EXPORT ORDINAL="199" NAME="??_7CImString@@6B@" PURGE="-1" COMMENT="" />
    <EXPORT ORDINAL="200" NAME="??_7CImXml@@6B@" PURGE="-1" COMMENT="" />
    <EXPORT ORDINAL="201" NAME="??_7CIncrediCapture@@6B@" PURGE="-1" COMMENT="" />
    <EXPORT ORDINAL="202" NAME="??_7CIncrediCompression@@6B@" PURGE="-1" COMMENT="" />
    <EXPORT ORDINAL="203" NAME="??_7CIncrediCustom@@6B@" PURGE="-1" COMMENT="" />
    <EXPORT ORDINAL="204" NAME="??_7CIncrediDeCompression@@6B@" PURGE="-1" COMMENT="" />
    <EXPORT ORDINAL="205" NAME="??_7CIncrediError@@6B@" PURGE="-1" COMMENT="" />
    <EXPORT ORDINAL="206" NAME="??_7CIncrediFactory@@6B@" PURGE="-1" COMMENT="" />
    <EXPORT ORDINAL="207" NAME="??_7CIncrediFile@@6B@" PURGE="-1" COMMENT="" />
    <EXPORT ORDINAL="208" NAME="??_7CIncrediGC@@6B@" PURGE="-1" COMMENT="" />
    <EXPORT ORDINAL="209" NAME="??_7CIncrediGlobals@@6B@" PURGE="-1" COMMENT="" />
    <EXPORT ORDINAL="210" NAME="??_7CIncrediHTMLParser@@6B@" PURGE="-1" COMMENT="" />
    <EXPORT ORDINAL="211" NAME="??_7CIncrediLicense@@6B@" PURGE="-1" COMMENT="" />
    <EXPORT ORDINAL="212" NAME="??_7CIncrediMLang@@6B@" PURGE="-1" COMMENT="" />
    <EXPORT ORDINAL="213" NAME="??_7CIncrediMainWnd@@6B@" PURGE="-1" COMMENT="" />
    <EXPORT ORDINAL="214" NAME="??_7CIncrediMemFile@@6B@" PURGE="-1" COMMENT="" />
    <EXPORT ORDINAL="215" NAME="??_7CIncrediOptions@@6B@" PURGE="-1" COMMENT="" />
    <EXPORT ORDINAL="216" NAME="??_7CIncrediPtrList@@6B@" PURGE="-1" COMMENT="" />
    <EXPORT ORDINAL="217" NAME="??_7CIncrediReg@@6B@" PURGE="-1" COMMENT="" />
    <EXPORT ORDINAL="218" NAME="??_7CIncrediResApp@@6B@" PURGE="-1" COMMENT="" />
    <EXPORT ORDINAL="219" NAME="??_7CIncrediRules@@6B@" PURGE="-1" COMMENT="" />
    <EXPORT ORDINAL="220" NAME="??_7CIncrediScale@@6B@" PURGE="-1" COMMENT="" />
    <EXPORT ORDINAL="221" NAME="??_7CIncrediTimer@@6B@" PURGE="-1" COMMENT="" />
    <EXPORT ORDINAL="222" NAME="??_7CIncrediWinApp@@6B@" PURGE="-1" COMMENT="" />
    <EXPORT ORDINAL="223" NAME="??_7CModuleVersion@@6B@" PURGE="-1" COMMENT="" />
    <EXPORT ORDINAL="224" NAME="??_7CWebDomain@@6B@" PURGE="-1" COMMENT="" />
    <EXPORT ORDINAL="225" NAME="??_7CWebTechnology@@6B@" PURGE="-1" COMMENT="" />
    <EXPORT ORDINAL="226" NAME="??_FCComplexNode@@QAEXXZ" PURGE="0" COMMENT="" />
    <EXPORT ORDINAL="227" NAME="??_FCImFlatSafeArray@@QAEXXZ" PURGE="0" COMMENT="" />
    <EXPORT ORDINAL="228" NAME="??_FCProduct@@QAEXXZ" PURGE="0" COMMENT="" />
    <EXPORT ORDINAL="229" NAME="?ActivateTaskbarTab@@YAXPAUHWND__@@@Z" PURGE="0" COMMENT="" />
    <EXPORT ORDINAL="230" NAME="?Add@CIncrediGC@@QAEHABU_GUID@@PAUIUnknown@@@Z" PURGE="8" COMMENT="" />
    <EXPORT ORDINAL="231" NAME="?AddContent@CContentDataTree@@QAEJPBDAAVCString@@111@Z" PURGE="20" COMMENT="" />
    <EXPORT ORDINAL="232" NAME="?AddContent@CContentDataTree@@QAEJPBDAAVCString@@1PAVCContentObject@@@Z" PURGE="16" COMMENT="" />
    <EXPORT ORDINAL="233" NAME="?AddContentType@CContentDataTree@@QAEJPBD@Z" PURGE="4" COMMENT="" />
    <EXPORT ORDINAL="234" NAME="?AddErrorInfo@CIncrediError@@QAEJABU_GUID@@PBD1J@Z" PURGE="16" COMMENT="" />
    <EXPORT ORDINAL="235" NAME="?AddErrorInfo@CIncrediError@@QAEJPBD0J@Z" PURGE="12" COMMENT="" />
    <EXPORT ORDINAL="236" NAME="?AddFileToCAB@CIncrediCompression@@QAEJAAVCString@@PBD@Z" PURGE="8" COMMENT="" />
    <EXPORT ORDINAL="237" NAME="?AddFolderToCAB@CIncrediCompression@@QAEJAAVCString@@PBD@Z" PURGE="8" COMMENT="" />
    <EXPORT ORDINAL="238" NAME="?AddHead@CIncrediPtrList@@QAEJJAAVCTreeNode@@@Z" PURGE="8" COMMENT="" />
    <EXPORT ORDINAL="239" NAME="?AddHead@CIncrediPtrList@@QAEJPBDAAVCTreeNode@@@Z" PURGE="8" COMMENT="" />
    <EXPORT ORDINAL="240" NAME="?AddNewContent@CContentDataTree@@QAEJVCString@@@Z" PURGE="4" COMMENT="" />
    <EXPORT ORDINAL="241" NAME="?AddRecipient@CCommandLine@@AAEXIPBD@Z" PURGE="8" COMMENT="" />
    <EXPORT ORDINAL="242" NAME="?AddTail@CIncrediPtrList@@QAEPBVCComplexNode@@_J@Z" PURGE="8" COMMENT="" />
    <EXPORT ORDINAL="243" NAME="?AddTailError@CIncrediError@@IAEXPAUIErrorInfo@@@Z" PURGE="4" COMMENT="" />
    <EXPORT ORDINAL="244" NAME="?AddTypeContainer@CContentDataTree@@QAEPAVCContentContainer@@PBD@Z" PURGE="4" COMMENT="" />
    <EXPORT ORDINAL="245" NAME="?AddXMLElement@CIncrediHTMLParser@@QAEXAAVCString@@PBD1@Z" PURGE="12" COMMENT="" />
    <EXPORT ORDINAL="246" NAME="?AllocDecode@CBase64Coder@@UAEXK@Z" PURGE="4" COMMENT="" />
    <EXPORT ORDINAL="247" NAME="?AllocEncode@CBase64Coder@@UAEXK@Z" PURGE="4" COMMENT="" />
    <EXPORT ORDINAL="248" NAME="?AllocSysString@CImString@@QAEPAGH@Z" PURGE="4" COMMENT="" />
    <EXPORT ORDINAL="249" NAME="?AppSyncAdvise@@YAJGPAUIUnknown@@@Z" PURGE="0" COMMENT="" />
    <EXPORT ORDINAL="250" NAME="?AppSyncAdvise@@YAJPAUHWND__@@@Z" PURGE="0" COMMENT="" />
    <EXPORT ORDINAL="251" NAME="?AppSyncFireEvent@@YAJGUtagVARIANT@@0@Z" PURGE="0" COMMENT="" />
    <EXPORT ORDINAL="252" NAME="?AppSyncFireEvent@@YAJIIJHPAUHWND__@@@Z" PURGE="0" COMMENT="" />
    <EXPORT ORDINAL="253" NAME="?AppSyncGetApplicationsCount@@YAKXZ" PURGE="0" COMMENT="" />
    <EXPORT ORDINAL="254" NAME="?AppSyncRegisterApplication@@YAJK@Z" PURGE="0" COMMENT="" />
    <EXPORT ORDINAL="255" NAME="?AppSyncUnadvise@@YAJGPAUIUnknown@@@Z" PURGE="0" COMMENT="" />
    <EXPORT ORDINAL="256" NAME="?AppSyncUnadvise@@YAJPAUHWND__@@@Z" PURGE="0" COMMENT="" />
    <EXPORT ORDINAL="257" NAME="?AppSyncUnregisterApplication@@YAJK@Z" PURGE="0" COMMENT="" />
    <EXPORT ORDINAL="258" NAME="?AppendElement@CImXml@@QAEJPAUIXMLDOMNode@@PBD1PAPAUIXMLDOMElement@@@Z" PURGE="16" COMMENT="" />
    <EXPORT ORDINAL="259" NAME="?AppendElement@CImXml@@QAEJPAUIXMLDOMNode@@PBDKPAPAUIXMLDOMElement@@@Z" PURGE="16" COMMENT="" />
    <EXPORT ORDINAL="260" NAME="?ApplyActivationCode@CIncrediLicense@@QAEJPBDJJ0@Z" PURGE="16" COMMENT="" />
    <EXPORT ORDINAL="261" NAME="?Attach@CImParams@@QAEXPAUtagVARIANT@@@Z" PURGE="4" COMMENT="" />
    <EXPORT ORDINAL="262" NAME="?Attach@CImXml@@QAEXPAUIXMLDOMDocument@@@Z" PURGE="4" COMMENT="" />
    <EXPORT ORDINAL="263" NAME="?Attach@CIncrediFile@@QAEXPAU_iobuf@@@Z" PURGE="4" COMMENT="" />
    <EXPORT ORDINAL="264" NAME="?BGRToRGB@@YAKK@Z" PURGE="0" COMMENT="" />
    <EXPORT ORDINAL="265" NAME="?BitmapToDIB@CIncrediCapture@@QAEPAXPAUHBITMAP__@@PAUHPALETTE__@@G@Z" PURGE="12" COMMENT="" />
    <EXPORT ORDINAL="266" NAME="?BlockSender@CIncrediRules@@QAEJAAVCString@@H@Z" PURGE="8" COMMENT="" />
    <EXPORT ORDINAL="267" NAME="?BlockWindowCreation@CImHook@@QAEHPBD0@Z" PURGE="8" COMMENT="" />
    <EXPORT ORDINAL="268" NAME="?BringActiveToTop@CIncrediMainWnd@@QAEXXZ" PURGE="0" COMMENT="" />
    <EXPORT ORDINAL="269" NAME="?BroadcastMessage@CIncrediMainWnd@@QAEXIIJHPAUHWND__@@@Z" PURGE="20" COMMENT="" />
    <EXPORT ORDINAL="270" NAME="?BuildSmtpAddress@@YA?AVCString@@ABV1@0_N@Z" PURGE="0" COMMENT="" />
    <EXPORT ORDINAL="271" NAME="?BuildXMLContentInfo@CIncrediHTMLParser@@QAEXAAVCString@@@Z" PURGE="4" COMMENT="" />
    <EXPORT ORDINAL="272" NAME="?CLSIDFromString@@YAJABVCString@@PAU_GUID@@@Z" PURGE="0" COMMENT="" />
    <EXPORT ORDINAL="273" NAME="?Cache@CContent@@QAEJPBD0@Z" PURGE="8" COMMENT="" />
    <EXPORT ORDINAL="274" NAME="?CalcComplex@CIncrediPtrList@@AAEJJAAVCComplexNode@@@Z" PURGE="8" COMMENT="" />
    <EXPORT ORDINAL="275" NAME="?CalcComplex@CIncrediPtrList@@QAEJAAVCComplexNode@@@Z" PURGE="4" COMMENT="" />
    <EXPORT ORDINAL="276" NAME="?CallSendAsyncProc@CImParams@@AAEXXZ" PURGE="0" COMMENT="" />
    <EXPORT ORDINAL="277" NAME="?ChangeIDtoLocalID@CContent@@QAEJAAVCString@@@Z" PURGE="4" COMMENT="" />
    <EXPORT ORDINAL="278" NAME="?CharMatch@CIncrediFile@@IBEHDD_N0@Z" PURGE="16" COMMENT="" />
    <EXPORT ORDINAL="279" NAME="?CheckAuthorization@CIncrediLicense@@AAEJJAAVCProduct@@@Z" PURGE="8" COMMENT="" />
    <EXPORT ORDINAL="280" NAME="?CheckAuthorization@CIncrediLicense@@QAEJAAVCProduct@@@Z" PURGE="4" COMMENT="" />
    <EXPORT ORDINAL="281" NAME="?CheckImportedFileName@CContent@@IAE?AVCString@@PBD0@Z" PURGE="12" COMMENT="" />
    <EXPORT ORDINAL="282" NAME="?CheckLaunchOnStartup@CIncrediReg@@AAEHPAUHKEY__@@@Z" PURGE="4" COMMENT="" />
    <EXPORT ORDINAL="283" NAME="?CheckNextMeta@CIncrediHTMLParser@@AAEHAAVCString@@0AAHH@Z" PURGE="16" COMMENT="" />
    <EXPORT ORDINAL="284" NAME="?CheckResult@CIncrediLicense@@ABEJJ@Z" PURGE="4" COMMENT="" />
    <EXPORT ORDINAL="285" NAME="?CheckUserPermissions@@YAJXZ" PURGE="0" COMMENT="" />
    <EXPORT ORDINAL="286" NAME="?CleanCache@CContent@@IAEJPBDKAAKPAX@Z" PURGE="16" COMMENT="" />
    <EXPORT ORDINAL="287" NAME="?CleanCache@CContent@@QAEJPAX@Z" PURGE="4" COMMENT="" />
    <EXPORT ORDINAL="288" NAME="?CleanCache@CContent@@QAEJPBD0@Z" PURGE="8" COMMENT="" />
    <EXPORT ORDINAL="289" NAME="?CleanCaption@@YAXAAVCString@@@Z" PURGE="0" COMMENT="" />
    <EXPORT ORDINAL="290" NAME="?CleanFileExtension@@YAXAAVCString@@@Z" PURGE="0" COMMENT="" />
    <EXPORT ORDINAL="291" NAME="?CleanFileName@@YAXAAVCString@@_N1@Z" PURGE="0" COMMENT="" />
    <EXPORT ORDINAL="292" NAME="?CleanGuid@@YAXAAVCString@@@Z" PURGE="0" COMMENT="" />
    <EXPORT ORDINAL="293" NAME="?CleanPath@@YAXAAVCString@@_N@Z" PURGE="0" COMMENT="" />
    <EXPORT ORDINAL="294" NAME="?CleanRule@CRule@@QAEJXZ" PURGE="0" COMMENT="" />
    <EXPORT ORDINAL="295" NAME="?CleanUnknownArray@@YAXAAV?$CArray@PAUIUnknown@@PAU1@@@@Z" PURGE="0" COMMENT="" />
    <EXPORT ORDINAL="296" NAME="?CleanUp@CContentDataTree@@QAEJXZ" PURGE="0" COMMENT="" />
    <EXPORT ORDINAL="297" NAME="?CleanValue@CValue@@QAEXXZ" PURGE="0" COMMENT="" />
    <EXPORT ORDINAL="298" NAME="?Clear@CImParams@@QAEXXZ" PURGE="0" COMMENT="" />
    <EXPORT ORDINAL="299" NAME="?ClearAllHooks@CImHook@@QAEHXZ" PURGE="0" COMMENT="" />
    <EXPORT ORDINAL="300" NAME="?ClearCBTHook@CImHook@@QAEHXZ" PURGE="0" COMMENT="" />
    <EXPORT ORDINAL="301" NAME="?ClearErrors@CIncrediError@@QAEXXZ" PURGE="0" COMMENT="" />
    <EXPORT ORDINAL="302" NAME="?ClearImagePreview@CImFileDialog@@AAEXXZ" PURGE="0" COMMENT="" />
    <EXPORT ORDINAL="303" NAME="?ClearKeyboardHook@CImHook@@QAEHXZ" PURGE="0" COMMENT="" />
    <EXPORT ORDINAL="304" NAME="?ClearMemory@CIncrediPtrList@@QAEJ_N@Z" PURGE="4" COMMENT="" />
    <EXPORT ORDINAL="305" NAME="?ClearMouseHook@CImHook@@QAEHXZ" PURGE="0" COMMENT="" />
    <EXPORT ORDINAL="306" NAME="?Close@CIncrediFile@@UAEHXZ" PURGE="0" COMMENT="" />
    <EXPORT ORDINAL="307" NAME="?Close@CIncrediMemFile@@UAEHXZ" PURGE="0" COMMENT="" />
    <EXPORT ORDINAL="308" NAME="?CloseKey@CIncrediReg@@QAEJPAUHKEY__@@@Z" PURGE="4" COMMENT="" />
    <EXPORT ORDINAL="309" NAME="?CloseLicenseFile@CIncrediLicense@@ABEXJ@Z" PURGE="4" COMMENT="" />
    <EXPORT ORDINAL="310" NAME="?CloseThread@@YAXAAPAXK@Z" PURGE="0" COMMENT="" />
    <EXPORT ORDINAL="311" NAME="?CollectFeatures@CIncrediLicense@@AAEJJQAI@Z" PURGE="8" COMMENT="" />
    <EXPORT ORDINAL="312" NAME="?CollectTaskbarProcesses@CImAppDetector@@KGHPAUHWND__@@J@Z" PURGE="8" COMMENT="" />
    <EXPORT ORDINAL="313" NAME="?ConcatenatePath@@YAXAAVCString@@PBD@Z" PURGE="0" COMMENT="" />
    <EXPORT ORDINAL="314" NAME="?ConvertExtensionsToMime@CContent@@QAEJPBD0AAVCString@@@Z" PURGE="12" COMMENT="" />
    <EXPORT ORDINAL="315" NAME="?ConvertMimeToExtensions@CContent@@QAEJPBD00@Z" PURGE="12" COMMENT="" />
    <EXPORT ORDINAL="316" NAME="?ConvertString@CIncrediMLang@@QAEJAAVCString@@0@Z" PURGE="8" COMMENT="" />
    <EXPORT ORDINAL="317" NAME="?CopyDirectory@@YAHPBD0@Z" PURGE="0" COMMENT="" />
    <EXPORT ORDINAL="318" NAME="?CopyDirectoryEx@@YAHPBD0PAUHWND__@@@Z" PURGE="0" COMMENT="" />
    <EXPORT ORDINAL="319" NAME="?CopyFromFile@CIncrediFile@@QAEJAAV1@JHJ@Z" PURGE="16" COMMENT="" />
    <EXPORT ORDINAL="320" NAME="?CopyItems@CIncrediPtrList@@ABEJPBDAAJH@Z" PURGE="12" COMMENT="" />
    <EXPORT ORDINAL="321" NAME="?CopyKey@CIncrediReg@@QAEJPAUHKEY__@@PBD01H@Z" PURGE="20" COMMENT="" />
    <EXPORT ORDINAL="322" NAME="?CopyScreen@CIncrediCapture@@QAEPAXPAUHWND__@@@Z" PURGE="4" COMMENT="" />
    <EXPORT ORDINAL="323" NAME="?CopyScreenToBitmap@CIncrediCapture@@QAEPAUHBITMAP__@@PAUtagRECT@@@Z" PURGE="4" COMMENT="" />
    <EXPORT ORDINAL="324" NAME="?CopyScreenToDIB@CIncrediCapture@@QAEPAXPAUtagRECT@@@Z" PURGE="4" COMMENT="" />
    <EXPORT ORDINAL="325" NAME="?Create@CContentDataTree@@QAEJPBD@Z" PURGE="4" COMMENT="" />
    <EXPORT ORDINAL="326" NAME="?Create@CHTMLContent@@QAEJPBD0AAVCString@@000PAVBlockContentInfo@@0@Z" PURGE="32" COMMENT="" />
    <EXPORT ORDINAL="327" NAME="?Create@CIncrediCompression@@QAEHAAVCString@@0PAUHWND__@@@Z" PURGE="12" COMMENT="" />
    <EXPORT ORDINAL="328" NAME="?Create@CIncrediDeCompression@@QAEJPBDAAVCString@@AAHPAUHWND__@@H@Z" PURGE="20" COMMENT="" />
    <EXPORT ORDINAL="329" NAME="?Create@CIncrediMLang@@QAEJXZ" PURGE="0" COMMENT="" />
    <EXPORT ORDINAL="330" NAME="?CreateAndEnum@CIncrediMLang@@QAEJXZ" PURGE="0" COMMENT="" />
    <EXPORT ORDINAL="331" NAME="?CreateCacheDirectory@CContent@@QAEJPBD0AAVCString@@0@Z" PURGE="16" COMMENT="" />
    <EXPORT ORDINAL="332" NAME="?CreateDocument@CImXml@@QAEJPBD@Z" PURGE="4" COMMENT="" />
    <EXPORT ORDINAL="333" NAME="?CreateFolder@@YAHPBD@Z" PURGE="0" COMMENT="" />
    <EXPORT ORDINAL="334" NAME="?CreateGeneralSection@CContent@@QAEJPBD0000000@Z" PURGE="32" COMMENT="" />
    <EXPORT ORDINAL="335" NAME="?CreateGuid@@YAJAAVCString@@@Z" PURGE="0" COMMENT="" />
    <EXPORT ORDINAL="336" NAME="?CreateId@CContent@@QAEJAAVCString@@H@Z" PURGE="8" COMMENT="" />
    <EXPORT ORDINAL="337" NAME="?CreateNewIdentity@CIdentitiesManager@@QAEXPBDPAVCString@@@Z" PURGE="8" COMMENT="" />
    <EXPORT ORDINAL="338" NAME="?CreateNewRule@CIncrediRules@@QAEPAVCRule@@H@Z" PURGE="4" COMMENT="" />
    <EXPORT ORDINAL="339" NAME="?CreateObject@CCommandLine@@SGPAVCObject@@XZ" PURGE="0" COMMENT="" />
    <EXPORT ORDINAL="340" NAME="?CreateObject@CIncrediFactory@@UAEPAVCObject@@PBDHH@Z" PURGE="12" COMMENT="" />
    <EXPORT ORDINAL="341" NAME="?CreateObject@CIncrediResApp@@SGPAVCObject@@XZ" PURGE="0" COMMENT="" />
    <EXPORT ORDINAL="342" NAME="?CreateObject@CIncrediWinApp@@SGPAVCObject@@XZ" PURGE="0" COMMENT="" />
    <EXPORT ORDINAL="343" NAME="?CreateOneElement@CImFlatSafeArray@@QAEJGPAX@Z" PURGE="8" COMMENT="" />
    <EXPORT ORDINAL="344" NAME="?CreateProfileMainKey@CIncrediReg@@QAEXXZ" PURGE="0" COMMENT="" />
    <EXPORT ORDINAL="345" NAME="?CreateStamp@@YAJXZ" PURGE="0" COMMENT="" />
    <EXPORT ORDINAL="346" NAME="?CreateTempDirectory@CContent@@QAE?AVCString@@H@Z" PURGE="8" COMMENT="" />
    <EXPORT ORDINAL="347" NAME="?CreateTypeArray@CContentDataTree@@IAEJXZ" PURGE="0" COMMENT="" />
    <EXPORT ORDINAL="348" NAME="?CreateValue@CValue@@QAEXAAVCString@@@Z" PURGE="4" COMMENT="" />
    <EXPORT ORDINAL="349" NAME="?CreateValue@CValue@@QAEXABU_GUID@@@Z" PURGE="4" COMMENT="" />
    <EXPORT ORDINAL="350" NAME="?CreateValue@CValue@@QAEXK@Z" PURGE="4" COMMENT="" />
    <EXPORT ORDINAL="351" NAME="?CryptoCalcCrc@@YAHPAEKPAK@Z" PURGE="0" COMMENT="" />
    <EXPORT ORDINAL="352" NAME="?CryptoDeScramble@@YAHPAEK0K@Z" PURGE="0" COMMENT="" />
    <EXPORT ORDINAL="353" NAME="?CryptoScramble@@YAHPAEK0K@Z" PURGE="0" COMMENT="" />
    <EXPORT ORDINAL="354" NAME="?DIBHeight@CIncrediCapture@@QAEKPAD@Z" PURGE="4" COMMENT="" />
    <EXPORT ORDINAL="355" NAME="?DIBNumColors@CIncrediCapture@@QAEGPAD@Z" PURGE="4" COMMENT="" />
    <EXPORT ORDINAL="356" NAME="?DIBWidth@CIncrediCapture@@QAEKPAD@Z" PURGE="4" COMMENT="" />
    <EXPORT ORDINAL="357" NAME="?DWordArrayToVariant@@YAJAAVCDWordArray@@PAUtagVARIANT@@@Z" PURGE="0" COMMENT="" />
    <EXPORT ORDINAL="358" NAME="?Decode@CBase64Coder@@UAEXPBD@Z" PURGE="4" COMMENT="" />
    <EXPORT ORDINAL="359" NAME="?Decode@CBase64Coder@@UAEXQAEK@Z" PURGE="8" COMMENT="" />
    <EXPORT ORDINAL="360" NAME="?DecodedMessage@CBase64Coder@@UBEPBDXZ" PURGE="0" COMMENT="" />
    <EXPORT ORDINAL="361" NAME="?DecodedMessageLength@CBase64Coder@@UBEKXZ" PURGE="0" COMMENT="" />
    <EXPORT ORDINAL="362" NAME="?Decrypt@@YAXPAEKPAPAE@Z" PURGE="0" COMMENT="" />
    <EXPORT ORDINAL="363" NAME="?Decrypt@CIncrediCustom@@QAEJPAEKAAVCString@@@Z" PURGE="12" COMMENT="" />
    <EXPORT ORDINAL="364" NAME="?Delete@CContent@@QAEJPBD0@Z" PURGE="8" COMMENT="" />
    <EXPORT ORDINAL="365" NAME="?DeleteCollection@CContentDataTree@@QAEJPBD0@Z" PURGE="8" COMMENT="" />
    <EXPORT ORDINAL="366" NAME="?DeleteContentKey@CContent@@QAEJPBD0@Z" PURGE="8" COMMENT="" />
    <EXPORT ORDINAL="367" NAME="?DeleteDirectory@@YAHPBD@Z" PURGE="0" COMMENT="" />
    <EXPORT ORDINAL="368" NAME="?DeleteFiles@@YAJPBD0PAHPAX@Z" PURGE="0" COMMENT="" />
    <EXPORT ORDINAL="369" NAME="?DeleteGlobalKey@CIncrediReg@@QAEJPBD@Z" PURGE="4" COMMENT="" />
    <EXPORT ORDINAL="370" NAME="?DeleteGlobalValue@CIncrediReg@@QAEJPBD0@Z" PURGE="8" COMMENT="" />
    <EXPORT ORDINAL="371" NAME="?DeleteIdentity@CIdentitiesManager@@QAEXPBD@Z" PURGE="4" COMMENT="" />
    <EXPORT ORDINAL="372" NAME="?DeleteKey@CIncrediReg@@QAEJPBD0@Z" PURGE="8" COMMENT="" />
    <EXPORT ORDINAL="373" NAME="?DeleteNode@CIncrediPtrList@@ABEXJ@Z" PURGE="4" COMMENT="" />
    <EXPORT ORDINAL="374" NAME="?DeleteObject@CContentDataTree@@QAEJPBD@Z" PURGE="4" COMMENT="" />
    <EXPORT ORDINAL="375" NAME="?DeleteProductsInfo@CIncrediLicense@@AAEXXZ" PURGE="0" COMMENT="" />
    <EXPORT ORDINAL="376" NAME="?DeleteProfileKey@CIncrediReg@@QAEJPBD@Z" PURGE="4" COMMENT="" />
    <EXPORT ORDINAL="377" NAME="?DeleteProfileValue@CIncrediReg@@QAEJPBD0@Z" PURGE="8" COMMENT="" />
    <EXPORT ORDINAL="378" NAME="?DeleteRegKey@CIncrediReg@@QAEJPAUHKEY__@@PBD@Z" PURGE="8" COMMENT="" />
    <EXPORT ORDINAL="379" NAME="?DeleteRegValue@CIncrediReg@@QAEJPAUHKEY__@@PBD11@Z" PURGE="16" COMMENT="" />
    <EXPORT ORDINAL="380" NAME="?DeleteRule@CIncrediRules@@QAEXPAVCRule@@@Z" PURGE="4" COMMENT="" />
    <EXPORT ORDINAL="381" NAME="?DeleteTimers@CIncrediTimer@@QAEXH@Z" PURGE="4" COMMENT="" />
    <EXPORT ORDINAL="382" NAME="?DeleteValue@CIncrediReg@@QAEJPBD00@Z" PURGE="12" COMMENT="" />
    <EXPORT ORDINAL="383" NAME="?Destroy@CIncrediCompression@@QAEJXZ" PURGE="0" COMMENT="" />
    <EXPORT ORDINAL="384" NAME="?Destroy@CIncrediDeCompression@@QAEJXZ" PURGE="0" COMMENT="" />
    <EXPORT ORDINAL="385" NAME="?Destroy@CIncrediMLang@@QAEXXZ" PURGE="0" COMMENT="" />
    <EXPORT ORDINAL="386" NAME="?DestroyData@CIncrediPtrList@@QAEJXZ" PURGE="0" COMMENT="" />
    <EXPORT ORDINAL="387" NAME="?DestroyErrors@@YAXXZ" PURGE="0" COMMENT="" />
    <EXPORT ORDINAL="388" NAME="?DestroyGC@@YAXXZ" PURGE="0" COMMENT="" />
    <EXPORT ORDINAL="389" NAME="?DestroyGlobals@@YAXXZ" PURGE="0" COMMENT="" />
    <EXPORT ORDINAL="390" NAME="?DestroyIncrediReg@@YAXXZ" PURGE="0" COMMENT="" />
    <EXPORT ORDINAL="391" NAME="?DestroyIncrediRules@@YAXXZ" PURGE="0" COMMENT="" />
    <EXPORT ORDINAL="392" NAME="?DestroyLicenses@@YAXXZ" PURGE="0" COMMENT="" />
    <EXPORT ORDINAL="393" NAME="?DestroyOptions@@YAXXZ" PURGE="0" COMMENT="" />
    <EXPORT ORDINAL="394" NAME="?DestroyScale@@YAXXZ" PURGE="0" COMMENT="" />
    <EXPORT ORDINAL="395" NAME="?DestroyTypeArray@CContentDataTree@@IAEJXZ" PURGE="0" COMMENT="" />
    <EXPORT ORDINAL="396" NAME="?DestroyUtilsObjects@@YAXXZ" PURGE="0" COMMENT="" />
    <EXPORT ORDINAL="397" NAME="?Detach@CImParams@@QAEPAUtagVARIANT@@XZ" PURGE="0" COMMENT="" />
    <EXPORT ORDINAL="398" NAME="?Detach@CImXml@@QAEPAUIXMLDOMDocument@@XZ" PURGE="0" COMMENT="" />
    <EXPORT ORDINAL="399" NAME="?Detach@CIncrediFile@@QAEPAU_iobuf@@XZ" PURGE="0" COMMENT="" />
    <EXPORT ORDINAL="400" NAME="?DetachObject@CContentDataTree@@QAEPAVCContentObject@@PBD000@Z" PURGE="16" COMMENT="" />
    <EXPORT ORDINAL="401" NAME="?DetectWebApps@CImAppDetector@@QAEHPAH@Z" PURGE="4" COMMENT="" />
    <EXPORT ORDINAL="402" NAME="?DisableAutoDisconnect@CImAppDetector@@QAEXXZ" PURGE="0" COMMENT="" />
    <EXPORT ORDINAL="403" NAME="?DisableEmbedElements@CIncrediHTMLParser@@QAEXAAVCString@@@Z" PURGE="4" COMMENT="" />
    <EXPORT ORDINAL="404" NAME="?DisableIFrames@CIncrediHTMLParser@@QAEJAAVCString@@@Z" PURGE="4" COMMENT="" />
    <EXPORT ORDINAL="405" NAME="?DisableScripts@CIncrediHTMLParser@@QAEJAAVCString@@@Z" PURGE="4" COMMENT="" />
    <EXPORT ORDINAL="406" NAME="?DllGetVersion@CModuleVersion@@SAHPBDAAU_DLLVERSIONINFO@@@Z" PURGE="0" COMMENT="" />
    <EXPORT ORDINAL="407" NAME="?DoDataExchange@CImFileDialog@@MAEXPAVCDataExchange@@@Z" PURGE="4" COMMENT="" />
    <EXPORT ORDINAL="408" NAME="?DoIdleMessages@CImHook@@QAEHPAUHWND__@@@Z" PURGE="4" COMMENT="" />
    <EXPORT ORDINAL="409" NAME="?DoesObjectExist@CContentDataTree@@QAEHPBD@Z" PURGE="4" COMMENT="" />
    <EXPORT ORDINAL="410" NAME="?Dump@CCommandLine@@QAEXAAVCString@@@Z" PURGE="4" COMMENT="" />
    <EXPORT ORDINAL="411" NAME="?Dump@CIncrediPtrList@@QAEJAAVCString@@@Z" PURGE="4" COMMENT="" />
    <EXPORT ORDINAL="412" NAME="?DumpEncodedData@CFileEncoder@@UAEHPADH@Z" PURGE="8" COMMENT="" />
    <EXPORT ORDINAL="413" NAME="?DumpText@@YAHPBD0H@Z" PURGE="0" COMMENT="" />
    <EXPORT ORDINAL="414" NAME="?ERRORS@@YAPAVCIncrediError@@XZ" PURGE="0" COMMENT="" />
    <EXPORT ORDINAL="415" NAME="?EatInnerTextAreaTables@CIncrediHTMLParser@@AAEJAAHABVCString@@@Z" PURGE="8" COMMENT="" />
    <EXPORT ORDINAL="416" NAME="?EatTableLevel@CIncrediHTMLParser@@AAEJAAHABVCString@@@Z" PURGE="8" COMMENT="" />
    <EXPORT ORDINAL="417" NAME="?Encode7bit@CFileEncoder@@IAEIH@Z" PURGE="4" COMMENT="" />
    <EXPORT ORDINAL="418" NAME="?Encode@CBase64Coder@@UAEXPBD@Z" PURGE="4" COMMENT="" />
    <EXPORT ORDINAL="419" NAME="?Encode@CBase64Coder@@UAEXQAEK@Z" PURGE="8" COMMENT="" />
    <EXPORT ORDINAL="420" NAME="?Encode@CFileEncoder@@QAEIHH@Z" PURGE="8" COMMENT="" />
    <EXPORT ORDINAL="421" NAME="?EncodeBase64@CFileEncoder@@IAEIH@Z" PURGE="4" COMMENT="" />
    <EXPORT ORDINAL="422" NAME="?EncodedMessage@CBase64Coder@@UBEPBDXZ" PURGE="0" COMMENT="" />
    <EXPORT ORDINAL="423" NAME="?EncodedMessageLength@CBase64Coder@@UBEKXZ" PURGE="0" COMMENT="" />
    <EXPORT ORDINAL="424" NAME="?Encrypt@@YAXPAEAAKPAPAE@Z" PURGE="0" COMMENT="" />
    <EXPORT ORDINAL="425" NAME="?Encrypt@CIncrediCustom@@QAEJABVCString@@AAPAEAAK@Z" PURGE="12" COMMENT="" />
    <EXPORT ORDINAL="426" NAME="?EnterIdleState@CImHook@@KGKHKJ@Z" PURGE="12" COMMENT="" />
    <EXPORT ORDINAL="427" NAME="?EnumDomainTechnologies@CWebDomain@@QAEXAAVCStringArray@@@Z" PURGE="4" COMMENT="" />
    <EXPORT ORDINAL="428" NAME="?EnumWindowsModules@CImAppDetector@@IAEHVCString@@@Z" PURGE="4" COMMENT="" />
    <EXPORT ORDINAL="429" NAME="?EnumWindowsNTModules@CImAppDetector@@IAEHVCString@@@Z" PURGE="4" COMMENT="" />
    <EXPORT ORDINAL="430" NAME="?ExitInstance@CIncrediWinApp@@MAEHXZ" PURGE="0" COMMENT="" />
    <EXPORT ORDINAL="431" NAME="?ExpandCab@CIncrediDeCompression@@QAEJIPBDW4DECOMPTYPE@@@Z" PURGE="12" COMMENT="" />
    <EXPORT ORDINAL="432" NAME="?ExportGlobalKey@CIncrediReg@@QAEJPBD0@Z" PURGE="8" COMMENT="" />
    <EXPORT ORDINAL="433" NAME="?ExportKey@CIncrediReg@@QAEJPBD00@Z" PURGE="12" COMMENT="" />
    <EXPORT ORDINAL="434" NAME="?ExtractDependencies@CContent@@QAEJPBDAAVCStringList@@@Z" PURGE="8" COMMENT="" />
    <EXPORT ORDINAL="435" NAME="?ExtractIniFile@CContent@@QAEJPBD0@Z" PURGE="8" COMMENT="" />
    <EXPORT ORDINAL="436" NAME="?FillUserData@CIncrediDeCompression@@IAEJIPBDW4DECOMPTYPE@@AAUuserDeCompData@1@@Z" PURGE="16" COMMENT="" />
    <EXPORT ORDINAL="437" NAME="?FindActiveInstance@CIncrediWinApp@@QAEHPBDAAVCCommandLine@@@Z" PURGE="8" COMMENT="" />
    <EXPORT ORDINAL="438" NAME="?FindAreaEnd@CIncrediHTMLParser@@AAEHABVCString@@0H@Z" PURGE="12" COMMENT="" />
    <EXPORT ORDINAL="439" NAME="?FindAreaStart@CIncrediHTMLParser@@QAEHABVCString@@0H@Z" PURGE="12" COMMENT="" />
    <EXPORT ORDINAL="440" NAME="?FindDIBBits@CIncrediCapture@@QAEPADPAD@Z" PURGE="4" COMMENT="" />
    <EXPORT ORDINAL="441" NAME="?FindEndSequence@@YA_NPBDI0@Z" PURGE="0" COMMENT="" />
    <EXPORT ORDINAL="442" NAME="?FindFirst@CIncrediPtrList@@QAEJPAEKAAVCString@@AAJ21@Z" PURGE="24" COMMENT="" />
    <EXPORT ORDINAL="443" NAME="?FindIndex@CIncrediPtrList@@AAEJJ@Z" PURGE="4" COMMENT="" />
    <EXPORT ORDINAL="444" NAME="?FindModulesInTable@CImAppDetector@@IAEHXZ" PURGE="0" COMMENT="" />
    <EXPORT ORDINAL="445" NAME="?FindNode@CIncrediPtrList@@QAEXHAAVCNode@@@Z" PURGE="8" COMMENT="" />
    <EXPORT ORDINAL="446" NAME="?FindNode@CIncrediPtrList@@QAEX_JAAVCNode@@@Z" PURGE="12" COMMENT="" />
    <EXPORT ORDINAL="447" NAME="?FindString@CIncrediFile@@QAEJPBDJ_N1@Z" PURGE="16" COMMENT="" />
    <EXPORT ORDINAL="448" NAME="?FindTargetWndIndex@CImHook@@IAEHPAUHWND__@@@Z" PURGE="4" COMMENT="" />
    <EXPORT ORDINAL="449" NAME="?FindToken@@YAHPBDABVCString@@0@Z" PURGE="0" COMMENT="" />
    <EXPORT ORDINAL="450" NAME="?FixFlavorForIMOL@CIncrediHTMLParser@@QAEJAAVCString@@@Z" PURGE="4" COMMENT="" />
    <EXPORT ORDINAL="451" NAME="?FixHTMLMainTags@CIncrediHTMLParser@@QAEJAAVCString@@@Z" PURGE="4" COMMENT="" />
    <EXPORT ORDINAL="452" NAME="?FixStringNewLines@@YAXABVCString@@AAV1@@Z" PURGE="0" COMMENT="" />
    <EXPORT ORDINAL="453" NAME="?Flush@CIncrediFile@@UAEHXZ" PURGE="0" COMMENT="" />
    <EXPORT ORDINAL="454" NAME="?FormatActionsKey@CIncrediRules@@AAEXPBDAAVCString@@@Z" PURGE="8" COMMENT="" />
    <EXPORT ORDINAL="455" NAME="?FormatConditionsKey@CIncrediRules@@AAEXPBDAAVCString@@@Z" PURGE="8" COMMENT="" />
    <EXPORT ORDINAL="456" NAME="?FormatRuleKey@CIncrediRules@@AAEXPBDAAVCString@@@Z" PURGE="8" COMMENT="" />
    <EXPORT ORDINAL="457" NAME="?ForwardLastMessage@@YAJPAUHWND__@@HIJ@Z" PURGE="0" COMMENT="" />
    <EXPORT ORDINAL="458" NAME="?FreeLastAlloc@CImString@@AAEXXZ" PURGE="0" COMMENT="" />
    <EXPORT ORDINAL="459" NAME="?FreeResourceDll@CIncrediResApp@@QAEXXZ" PURGE="0" COMMENT="" />
    <EXPORT ORDINAL="460" NAME="?GC@@YAPAVCIncrediGC@@XZ" PURGE="0" COMMENT="" />
    <EXPORT ORDINAL="461" NAME="?GLOBALS@@YAPAVCIncrediGlobals@@XZ" PURGE="0" COMMENT="" />
    <EXPORT ORDINAL="462" NAME="?GenerateEnumList@CIncrediMLang@@IAEJXZ" PURGE="0" COMMENT="" />
    <EXPORT ORDINAL="463" NAME="?GenerateStatistics@CIncrediHTMLParser@@QAEJPAUIHTMLElement2@@IAAV?$CMap@VCString@@PBDHH@@@Z" PURGE="12" COMMENT="" />
    <EXPORT ORDINAL="464" NAME="?GenerateTempFileName@@YAXAAVCString@@PBD1@Z" PURGE="0" COMMENT="" />
    <EXPORT ORDINAL="465" NAME="?GetANode@CComplexNode@@QBE_NXZ" PURGE="0" COMMENT="" />
    <EXPORT ORDINAL="466" NAME="?GetAddOnUses@CContent@@QAEJPBDAAK1@Z" PURGE="12" COMMENT="" />
    <EXPORT ORDINAL="467" NAME="?GetAddonBinaryValue@CIncrediReg@@QAEJPBD0PAPAEPAK@Z" PURGE="16" COMMENT="" />
    <EXPORT ORDINAL="468" NAME="?GetAddonLongValue@CIncrediReg@@QAEJPBD0PAKK@Z" PURGE="16" COMMENT="" />
    <EXPORT ORDINAL="469" NAME="?GetAddonName@CIncrediReg@@QBE?AVCString@@XZ" PURGE="4" COMMENT="" />
    <EXPORT ORDINAL="470" NAME="?GetAddonParentApp@CIncrediReg@@QAEXAAVCString@@@Z" PURGE="4" COMMENT="" />
    <EXPORT ORDINAL="471" NAME="?GetAddonStringValue@CIncrediReg@@QAEJPBD0AAVCString@@0@Z" PURGE="16" COMMENT="" />
    <EXPORT ORDINAL="472" NAME="?GetAllIds@CContent@@QBEJPBDAAVCStringArray@@@Z" PURGE="8" COMMENT="" />
    <EXPORT ORDINAL="473" NAME="?GetAllUsers@CContent@@QBEJAAVCStringArray@@@Z" PURGE="4" COMMENT="" />
    <EXPORT ORDINAL="474" NAME="?GetAppGlobalKeyName@CIncrediReg@@QAEJAAVCString@@H@Z" PURGE="8" COMMENT="" />
    <EXPORT ORDINAL="475" NAME="?GetAppKeyName@CIncrediReg@@QAEJAAVCString@@H@Z" PURGE="8" COMMENT="" />
    <EXPORT ORDINAL="476" NAME="?GetAppName@CIncrediCustom@@QAEJAAVCString@@@Z" PURGE="4" COMMENT="" />
    <EXPORT ORDINAL="477" NAME="?GetAppPath@CIncrediReg@@QAEJPBDAAVCString@@H@Z" PURGE="12" COMMENT="" />
    <EXPORT ORDINAL="478" NAME="?GetAppServerURL@CIncrediCustom@@QAEJAAVCString@@@Z" PURGE="4" COMMENT="" />
    <EXPORT ORDINAL="479" NAME="?GetAreaInnerHTML@CIncrediHTMLParser@@QAEJABVCString@@0AAV2@@Z" PURGE="12" COMMENT="" />
    <EXPORT ORDINAL="480" NAME="?GetAreaNONInnerHTML@CIncrediHTMLParser@@QAEJABVCString@@0AAV2@1@Z" PURGE="16" COMMENT="" />
    <EXPORT ORDINAL="481" NAME="?GetAttachmentsFolder@CIncrediReg@@QAEXAAVCString@@@Z" PURGE="4" COMMENT="" />
    <EXPORT ORDINAL="482" NAME="?GetAttribute@CImXml@@QAEJPAUIXMLDOMElement@@PBDAAVCString@@@Z" PURGE="12" COMMENT="" />
    <EXPORT ORDINAL="483" NAME="?GetAvailableTypes@CContentDataTree@@QAEPAVCStringArray@@XZ" PURGE="0" COMMENT="" />
    <EXPORT ORDINAL="484" NAME="?GetBGSoundParams@CIncrediHTMLParser@@QAEXAAVCString@@00AAVCComVariant@ATL@@AAH@Z" PURGE="20" COMMENT="" />
    <EXPORT ORDINAL="485" NAME="?GetBaseCurrStamp@CIncrediCustom@@QAEJAAVCString@@@Z" PURGE="4" COMMENT="" />
    <EXPORT ORDINAL="486" NAME="?GetBaseElementStr@CIncrediHTMLParser@@QAEXAAVCString@@0@Z" PURGE="8" COMMENT="" />
    <EXPORT ORDINAL="487" NAME="?GetBaseHref@CIncrediHTMLParser@@QAEXABVCString@@AAV2@@Z" PURGE="8" COMMENT="" />
    <EXPORT ORDINAL="488" NAME="?GetBaseHrefEx@CIncrediHTMLParser@@QAEXAAVCString@@0H@Z" PURGE="12" COMMENT="" />
    <EXPORT ORDINAL="489" NAME="?GetBinPath@CIncrediReg@@QAEJAAVCString@@PBD@Z" PURGE="8" COMMENT="" />
    <EXPORT ORDINAL="490" NAME="?GetBinaryValue@CContent@@QBEJPBD00PAPAEPAK0@Z" PURGE="24" COMMENT="" />
    <EXPORT ORDINAL="491" NAME="?GetBinaryValue@CIncrediReg@@QAEJPBD0PAPAEPAKH0@Z" PURGE="24" COMMENT="" />
    <EXPORT ORDINAL="492" NAME="?GetBlockContentInfo@CContent@@QAEJPBD0PAVBlockContentInfo@@@Z" PURGE="12" COMMENT="" />
    <EXPORT ORDINAL="493" NAME="?GetBlockContentInfo@CContent@@QAEJPBDPAVBlockContentInfo@@@Z" PURGE="8" COMMENT="" />
    <EXPORT ORDINAL="494" NAME="?GetBlockContentInfoEx@CContent@@QAEJPBDPAVBlockContentInfo@@AAH@Z" PURGE="12" COMMENT="" />
    <EXPORT ORDINAL="495" NAME="?GetBlockingInfoFromMimeExtensions@CContent@@QAEJPBD00PAVBlockContentInfo@@@Z" PURGE="16" COMMENT="" />
    <EXPORT ORDINAL="496" NAME="?GetBodyTagString@CIncrediHTMLParser@@QAEJAAVCString@@000@Z" PURGE="16" COMMENT="" />
    <EXPORT ORDINAL="497" NAME="?GetBonusContentsPage@CIncrediCustom@@QAEJAAVCString@@@Z" PURGE="4" COMMENT="" />
    <EXPORT ORDINAL="498" NAME="?GetC@CIncrediFile@@UAEHXZ" PURGE="0" COMMENT="" />
    <EXPORT ORDINAL="499" NAME="?GetC@CIncrediMemFile@@UAEHXZ" PURGE="0" COMMENT="" />
    <EXPORT ORDINAL="500" NAME="?GetCNode@CComplexNode@@QBE_NXZ" PURGE="0" COMMENT="" />
    <EXPORT ORDINAL="501" NAME="?GetChannelType@CIncrediReg@@QAEKXZ" PURGE="0" COMMENT="" />
    <EXPORT ORDINAL="502" NAME="?GetCharsetDisplayName@CIncrediMLang@@QAEJHAAVCString@@@Z" PURGE="8" COMMENT="" />
    <EXPORT ORDINAL="503" NAME="?GetCharsetName@CIncrediMLang@@QAEJHAAVCString@@@Z" PURGE="8" COMMENT="" />
    <EXPORT ORDINAL="504" NAME="?GetChildElements@CImXml@@QAEJPAUIXMLDOMNode@@@Z" PURGE="4" COMMENT="" />
    <EXPORT ORDINAL="505" NAME="?GetCollectionListByType@CContentDataTree@@QAEJPBDAAVCMapStringToPtr@@@Z" PURGE="8" COMMENT="" />
    <EXPORT ORDINAL="506" NAME="?GetCollectionPtr@CContentDataTree@@QAEPAVCContentContainer@@PBDAAVCString@@1H@Z" PURGE="16" COMMENT="" />
    <EXPORT ORDINAL="507" NAME="?GetCollectionPtrs@CContentDataTree@@QAEJPBDAAVCString@@AAV?$CArray@PAVCContentContainer@@PAV1@@@@Z" PURGE="12" COMMENT="" />
    <EXPORT ORDINAL="508" NAME="?GetColorTagInStyle@CIncrediHTMLParser@@AAEHAAVCString@@H@Z" PURGE="8" COMMENT="" />
    <EXPORT ORDINAL="509" NAME="?GetCommonDataPath@CIncrediReg@@QAEJAAVCString@@@Z" PURGE="4" COMMENT="" />
    <EXPORT ORDINAL="510" NAME="?GetConnectionName@CImAppDetector@@IAEXAAVCString@@@Z" PURGE="4" COMMENT="" />
    <EXPORT ORDINAL="511" NAME="?GetContentBlockedFeature@CContent@@QAEJVCString@@0AA_J@Z" PURGE="12" COMMENT="" />
    <EXPORT ORDINAL="512" NAME="?GetContentBlockingStatus@CContent@@QAE?AW4BlockLevel@@PAVBlockContentInfo@@@Z" PURGE="4" COMMENT="" />
    <EXPORT ORDINAL="513" NAME="?GetContentKeyPath@CContent@@QBEXPBD0AAVCString@@@Z" PURGE="12" COMMENT="" />
    <EXPORT ORDINAL="514" NAME="?GetContentPath@CContent@@QAEJPBD0AAVCString@@W4ContentSharingType@@@Z" PURGE="16" COMMENT="" />
    <EXPORT ORDINAL="515" NAME="?GetContentRegBlockAction@CContent@@QAE?AW4BlockAction@@PBD0@Z" PURGE="8" COMMENT="" />
    <EXPORT ORDINAL="516" NAME="?GetContentRegBlockLevel@CContent@@QAE?AW4BlockLevel@@PBD0@Z" PURGE="8" COMMENT="" />
    <EXPORT ORDINAL="517" NAME="?GetContentStatus@CContent@@QAEJAAVCString@@0AAW4BlockLevel@@H@Z" PURGE="16" COMMENT="" />
    <EXPORT ORDINAL="518" NAME="?GetContentTransferEncoding@CFileEncoder@@SAHABVCString@@@Z" PURGE="0" COMMENT="" />
    <EXPORT ORDINAL="519" NAME="?GetContentVersion@CContent@@QAEMPBD@Z" PURGE="4" COMMENT="" />
    <EXPORT ORDINAL="520" NAME="?GetContentsCount@CContent@@QAEHPBD@Z" PURGE="4" COMMENT="" />
    <EXPORT ORDINAL="521" NAME="?GetCookiesDomain@CIncrediCustom@@QAEJAAVCString@@@Z" PURGE="4" COMMENT="" />
    <EXPORT ORDINAL="522" NAME="?GetCount@CImParams@@QBEHXZ" PURGE="0" COMMENT="" />
    <EXPORT ORDINAL="523" NAME="?GetCount@CIncrediOptions@@QBEHXZ" PURGE="0" COMMENT="" />
    <EXPORT ORDINAL="524" NAME="?GetCurrStamp@CIncrediCustom@@QAEJAAVCString@@@Z" PURGE="4" COMMENT="" />
    <EXPORT ORDINAL="525" NAME="?GetCurrUser@CIncrediReg@@QAEJAAVCString@@@Z" PURGE="4" COMMENT="" />
    <EXPORT ORDINAL="526" NAME="?GetCurrUserKey@CIncrediReg@@QAEJAAVCString@@PBD@Z" PURGE="8" COMMENT="" />
    <EXPORT ORDINAL="527" NAME="?GetCurrUserPath@CIncrediReg@@QAEJAAVCString@@PBD1@Z" PURGE="12" COMMENT="" />
    <EXPORT ORDINAL="528" NAME="?GetCurrentLanguage@CIncrediReg@@QAEGH@Z" PURGE="4" COMMENT="" />
    <EXPORT ORDINAL="529" NAME="?GetCustomKey@CIncrediCustom@@QAEJPBDAAVCString@@0@Z" PURGE="12" COMMENT="" />
    <EXPORT ORDINAL="530" NAME="?GetDailyGalleryLink@CIncrediCustom@@QAEJAAVCString@@@Z" PURGE="4" COMMENT="" />
    <EXPORT ORDINAL="531" NAME="?GetDailyGalleryName@CIncrediCustom@@QAEJAAVCString@@@Z" PURGE="4" COMMENT="" />
    <EXPORT ORDINAL="532" NAME="?GetData@CValue@@QBEPAEXZ" PURGE="0" COMMENT="" />
    <EXPORT ORDINAL="533" NAME="?GetDataLength@CValue@@QBEKXZ" PURGE="0" COMMENT="" />
    <EXPORT ORDINAL="534" NAME="?GetDataPath@CIncrediReg@@QAEJAAVCString@@PBD@Z" PURGE="8" COMMENT="" />
    <EXPORT ORDINAL="535" NAME="?GetDataSource@@YAPAVCIncrediPtrList@@XZ" PURGE="0" COMMENT="" />
    <EXPORT ORDINAL="536" NAME="?GetDefaultEditCharset@CIncrediMLang@@QAEJAAVCString@@@Z" PURGE="4" COMMENT="" />
    <EXPORT ORDINAL="537" NAME="?GetDefaultEmailClient@CIncrediReg@@QAEJAAVCString@@@Z" PURGE="4" COMMENT="" />
    <EXPORT ORDINAL="538" NAME="?GetDefaultValue@CIncrediOptions@@IAEKJ@Z" PURGE="4" COMMENT="" />
    <EXPORT ORDINAL="539" NAME="?GetDefaultWebBrowser@CIncrediReg@@QAEJAAVCString@@@Z" PURGE="4" COMMENT="" />
    <EXPORT ORDINAL="540" NAME="?GetDesktopPath@@YAXAAVCString@@@Z" PURGE="0" COMMENT="" />
    <EXPORT ORDINAL="541" NAME="?GetDetailedErrors@CIncrediReg@@QAEHXZ" PURGE="0" COMMENT="" />
    <EXPORT ORDINAL="542" NAME="?GetDiskDrive@@YA?AVCString@@ABV1@_N@Z" PURGE="0" COMMENT="" />
    <EXPORT ORDINAL="543" NAME="?GetDisplayableExtHTML@CIncrediHTMLParser@@QAEJPBDAAVCString@@1I0@Z" PURGE="20" COMMENT="" />
    <EXPORT ORDINAL="544" NAME="?GetDocumentWindow@CIncrediHTMLParser@@QAEPAUHWND__@@PAUIDispatch@@@Z" PURGE="4" COMMENT="" />
    <EXPORT ORDINAL="545" NAME="?GetDownloadContentLink@CIncrediCustom@@QAEJAAVCString@@@Z" PURGE="4" COMMENT="" />
    <EXPORT ORDINAL="546" NAME="?GetElementInPage@CIncrediHTMLParser@@QAEHPAUIHTMLDocument2@@PBDAAPAUIHTMLElement@@@Z" PURGE="12" COMMENT="" />
    <EXPORT ORDINAL="547" NAME="?GetElementValue@CImXml@@QAEKPBD@Z" PURGE="4" COMMENT="" />
    <EXPORT ORDINAL="548" NAME="?GetElementValue@CImXml@@QAEXPBDAAVCString@@@Z" PURGE="8" COMMENT="" />
    <EXPORT ORDINAL="549" NAME="?GetEncodingNamesList@CIncrediMLang@@QAEJAAVCStringArray@@@Z" PURGE="4" COMMENT="" />
    <EXPORT ORDINAL="550" NAME="?GetErrorInfo@CIncrediError@@QAEJPAU_GUID@@AAVCString@@1@Z" PURGE="12" COMMENT="" />
    <EXPORT ORDINAL="551" NAME="?GetFeatureInfo@CIncrediLicense@@QAEXHAAVCFeature@@@Z" PURGE="8" COMMENT="" />
    <EXPORT ORDINAL="552" NAME="?GetFeatureInfo@CIncrediLicense@@QAEX_JAAVCFeature@@@Z" PURGE="12" COMMENT="" />
    <EXPORT ORDINAL="553" NAME="?GetFeaturesCount@CIncrediLicense@@QBEHXZ" PURGE="0" COMMENT="" />
    <EXPORT ORDINAL="554" NAME="?GetFileCachePath@CContent@@QBEJPBD00AAVCString@@@Z" PURGE="16" COMMENT="" />
    <EXPORT ORDINAL="555" NAME="?GetFileExtension@@YA?AVCString@@ABV1@@Z" PURGE="0" COMMENT="" />
    <EXPORT ORDINAL="556" NAME="?GetFileSize@@YAHPBD@Z" PURGE="0" COMMENT="" />
    <EXPORT ORDINAL="557" NAME="?GetFileVersion@@YAKPBD@Z" PURGE="0" COMMENT="" />
    <EXPORT ORDINAL="558" NAME="?GetFileVersionInfoA@CModuleVersion@@QAEHPBD@Z" PURGE="4" COMMENT="" />
    <EXPORT ORDINAL="559" NAME="?GetFilesCount@@YAHPBDH@Z" PURGE="0" COMMENT="" />
    <EXPORT ORDINAL="560" NAME="?GetFilesCount@CIncrediDeCompression@@QBEHXZ" PURGE="0" COMMENT="" />
    <EXPORT ORDINAL="561" NAME="?GetFlavorLeftRight@CIncrediHTMLParser@@QAEJABVCString@@AAV2@1@Z" PURGE="12" COMMENT="" />
    <EXPORT ORDINAL="562" NAME="?GetFolderSize@@YA_KPBD@Z" PURGE="0" COMMENT="" />
    <EXPORT ORDINAL="563" NAME="?GetFreeDiskSpace@@YA_KPBD@Z" PURGE="0" COMMENT="" />
    <EXPORT ORDINAL="564" NAME="?GetGeneralField@CContent@@QAEXPBD0AAVCString@@@Z" PURGE="12" COMMENT="" />
    <EXPORT ORDINAL="565" NAME="?GetGeneralInfo@CContent@@QAEJPBDPAVCString@@@Z" PURGE="8" COMMENT="" />
    <EXPORT ORDINAL="566" NAME="?GetGlobal@CIncrediGlobals@@QAEXPBDAAH@Z" PURGE="8" COMMENT="" />
    <EXPORT ORDINAL="567" NAME="?GetGlobal@CIncrediGlobals@@QAEXPBDAAVCString@@@Z" PURGE="8" COMMENT="" />
    <EXPORT ORDINAL="568" NAME="?GetGlobalBinaryValue@CIncrediReg@@QAEJPBD0PAPAEPAK@Z" PURGE="16" COMMENT="" />
    <EXPORT ORDINAL="569" NAME="?GetGlobalLongValue@CIncrediReg@@QAEJPBD0PAKK@Z" PURGE="16" COMMENT="" />
    <EXPORT ORDINAL="570" NAME="?GetGlobalStringValue@CIncrediReg@@QAEJPBD0AAVCString@@0@Z" PURGE="16" COMMENT="" />
    <EXPORT ORDINAL="571" NAME="?GetHTMLCharset55@CIncrediHTMLParser@@QAEHAAVCString@@0@Z" PURGE="8" COMMENT="" />
    <EXPORT ORDINAL="572" NAME="?GetHeadError@CIncrediError@@IAEPAUIErrorInfo@@XZ" PURGE="0" COMMENT="" />
    <EXPORT ORDINAL="573" NAME="?GetHeadPosition@CIncrediPtrList@@QBEXPBDAAVCString@@@Z" PURGE="8" COMMENT="" />
    <EXPORT ORDINAL="574" NAME="?GetHelpLink@CIncrediCustom@@QAEJAAVCString@@@Z" PURGE="4" COMMENT="" />
    <EXPORT ORDINAL="575" NAME="?GetHomeLink@CIncrediCustom@@QAEJAAVCString@@@Z" PURGE="4" COMMENT="" />
    <EXPORT ORDINAL="576" NAME="?GetHomeName@CIncrediCustom@@QAEJAAVCString@@@Z" PURGE="4" COMMENT="" />
    <EXPORT ORDINAL="577" NAME="?GetIEVersion@CIncrediReg@@QAEJAAI000@Z" PURGE="16" COMMENT="" />
    <EXPORT ORDINAL="578" NAME="?GetIdCachePath@CContent@@QBEJPBD0AAVCString@@@Z" PURGE="12" COMMENT="" />
    <EXPORT ORDINAL="579" NAME="?GetIdElementInnerHTML@CIncrediHTMLParser@@QAEJAAVCString@@PBD0PAVCStringArray@@@Z" PURGE="16" COMMENT="" />
    <EXPORT ORDINAL="580" NAME="?GetIdentitiesCount@CIdentitiesManager@@QAEHW4identitiesMapFilter@@@Z" PURGE="4" COMMENT="" />
    <EXPORT ORDINAL="581" NAME="?GetIdentitiesMap@CIdentitiesManager@@QAEXAAVCMapStringToString@@W4identitiesMapFilter@@@Z" PURGE="8" COMMENT="" />
    <EXPORT ORDINAL="582" NAME="?GetIdentityName@CIdentitiesManager@@QAEXPBDAAVCString@@@Z" PURGE="8" COMMENT="" />
    <EXPORT ORDINAL="583" NAME="?GetIdleMessage@CImHook@@KGKHKJ@Z" PURGE="12" COMMENT="" />
    <EXPORT ORDINAL="584" NAME="?GetIeVersion@CImQueryInfo@@QAEXAAVCString@@@Z" PURGE="4" COMMENT="" />
    <EXPORT ORDINAL="585" NAME="?GetImActiveWindow@@YAPAUHWND__@@K@Z" PURGE="0" COMMENT="" />
    <EXPORT ORDINAL="586" NAME="?GetImVersion@CImQueryInfo@@QAEXAAVCString@@@Z" PURGE="4" COMMENT="" />
    <EXPORT ORDINAL="587" NAME="?GetImageHeight@CImFileDialog@@QAEHXZ" PURGE="0" COMMENT="" />
    <EXPORT ORDINAL="588" NAME="?GetImageWidth@CImFileDialog@@QAEHXZ" PURGE="0" COMMENT="" />
    <EXPORT ORDINAL="589" NAME="?GetIndexFromName@CIncrediMLang@@QAEJABVCString@@AAH@Z" PURGE="8" COMMENT="" />
    <EXPORT ORDINAL="590" NAME="?GetInprocServer32@@YAJABU_GUID@@AAVCString@@@Z" PURGE="0" COMMENT="" />
    <EXPORT ORDINAL="591" NAME="?GetInstallationPath@CIncrediReg@@QAEJAAVCString@@@Z" PURGE="4" COMMENT="" />
    <EXPORT ORDINAL="592" NAME="?GetLCSupportEmail@CIncrediCustom@@QAEJAAVCString@@@Z" PURGE="4" COMMENT="" />
    <EXPORT ORDINAL="593" NAME="?GetLanguageName@CImQueryInfo@@QAE?AVCString@@K@Z" PURGE="8" COMMENT="" />
    <EXPORT ORDINAL="594" NAME="?GetLanguageOption@CIncrediOptions@@QAEHJAAKG@Z" PURGE="12" COMMENT="" />
    <EXPORT ORDINAL="595" NAME="?GetLanguageOption@CIncrediOptions@@QAEHJAAVCString@@G@Z" PURGE="12" COMMENT="" />
    <EXPORT ORDINAL="596" NAME="?GetLanguages@CIncrediReg@@QAEJAAVCByteArray@@@Z" PURGE="4" COMMENT="" />
    <EXPORT ORDINAL="597" NAME="?GetLastBlockLevelAction@CContent@@QAEJAAVBlockContentInfo@@AAW4BlockLevel@@AAW4BlockAction@@@Z" PURGE="12" COMMENT="" />
    <EXPORT ORDINAL="598" NAME="?GetLastError@CIncrediCompression@@QAEHXZ" PURGE="0" COMMENT="" />
    <EXPORT ORDINAL="599" NAME="?GetLastErrorString@CIncrediCompression@@QAEXAAVCString@@@Z" PURGE="4" COMMENT="" />
    <EXPORT ORDINAL="600" NAME="?GetLastFile@CIncrediCompression@@QAEPBDXZ" PURGE="0" COMMENT="" />
    <EXPORT ORDINAL="601" NAME="?GetLength@CIncrediFile@@UAEHXZ" PURGE="0" COMMENT="" />
    <EXPORT ORDINAL="602" NAME="?GetLength@CIncrediMemFile@@UAEHXZ" PURGE="0" COMMENT="" />
    <EXPORT ORDINAL="603" NAME="?GetLicensesPath@CIncrediLicense@@QBEJAAVCString@@@Z" PURGE="4" COMMENT="" />
    <EXPORT ORDINAL="604" NAME="?GetLocalCharset@@YAJAAVCString@@PAUIMultiLanguage@@@Z" PURGE="0" COMMENT="" />
    <EXPORT ORDINAL="605" NAME="?GetLongPath@@YAHPBDAAVCString@@@Z" PURGE="0" COMMENT="" />
    <EXPORT ORDINAL="606" NAME="?GetLongUserValue@CContent@@QBEJPBD00AAK0K@Z" PURGE="24" COMMENT="" />
    <EXPORT ORDINAL="607" NAME="?GetLongValue@CContent@@QBEJPBD00AAK0K@Z" PURGE="24" COMMENT="" />
    <EXPORT ORDINAL="608" NAME="?GetLongValue@CIncrediReg@@QAEJPBD0PAKKH0@Z" PURGE="24" COMMENT="" />
    <EXPORT ORDINAL="609" NAME="?GetMailerString@@YAXAAVCString@@@Z" PURGE="0" COMMENT="" />
    <EXPORT ORDINAL="610" NAME="?GetMainWindow@CIncrediGlobals@@QAEPAUHWND__@@XZ" PURGE="0" COMMENT="" />
    <EXPORT ORDINAL="611" NAME="?GetMediaPlayerVer@@YAIXZ" PURGE="0" COMMENT="" />
    <EXPORT ORDINAL="612" NAME="?GetMessageMap@CImFileDialog@@MBEPBUAFX_MSGMAP@@XZ" PURGE="0" COMMENT="" />
    <EXPORT ORDINAL="613" NAME="?GetMessageMap@CIncrediMainWnd@@MBEPBUAFX_MSGMAP@@XZ" PURGE="0" COMMENT="" />
    <EXPORT ORDINAL="614" NAME="?GetMessageMap@CIncrediResApp@@MBEPBUAFX_MSGMAP@@XZ" PURGE="0" COMMENT="" />
    <EXPORT ORDINAL="615" NAME="?GetMessageMap@CIncrediWinApp@@MBEPBUAFX_MSGMAP@@XZ" PURGE="0" COMMENT="" />
    <EXPORT ORDINAL="616" NAME="?GetMessageStorePath@CIncrediReg@@QAEJAAVCString@@H@Z" PURGE="8" COMMENT="" />
    <EXPORT ORDINAL="617" NAME="?GetModulePID@CImAppDetector@@QAEHVCString@@@Z" PURGE="4" COMMENT="" />
    <EXPORT ORDINAL="618" NAME="?GetMoreInfoPage@CIncrediCustom@@QAEJAAVCString@@@Z" PURGE="4" COMMENT="" />
    <EXPORT ORDINAL="619" NAME="?GetNewCommonFiles@CContent@@QAEXAAVCMapStringToPtr@@@Z" PURGE="4" COMMENT="" />
    <EXPORT ORDINAL="620" NAME="?GetNextEnumKey@CIncrediReg@@QAEJPAUHKEY__@@KAAVCString@@@Z" PURGE="12" COMMENT="" />
    <EXPORT ORDINAL="621" NAME="?GetNextEnumVal@CIncrediReg@@QAEJPAUHKEY__@@KAAKAAVCString@@PAEK@Z" PURGE="24" COMMENT="" />
    <EXPORT ORDINAL="622" NAME="?GetNextNode@CIncrediPtrList@@QBEPBVCComplexNode@@PBD@Z" PURGE="4" COMMENT="" />
    <EXPORT ORDINAL="623" NAME="?GetNodesCount@CIncrediPtrList@@QBEHXZ" PURGE="0" COMMENT="" />
    <EXPORT ORDINAL="624" NAME="?GetNonBlockedIds@CContent@@QAEJPBDAAVCStringArray@@@Z" PURGE="8" COMMENT="" />
    <EXPORT ORDINAL="625" NAME="?GetObjectHeirarcy@CContentDataTree@@QAEJPBDAAVCString@@11@Z" PURGE="16" COMMENT="" />
    <EXPORT ORDINAL="626" NAME="?GetObjectIdListFromCollection@CContentDataTree@@QAEJPBD0AAVCStringArray@@@Z" PURGE="12" COMMENT="" />
    <EXPORT ORDINAL="627" NAME="?GetObjectKey@CIncrediFactory@@AAEXAAVCString@@PBDHH@Z" PURGE="16" COMMENT="" />
    <EXPORT ORDINAL="628" NAME="?GetObjectNameFromId@CContentDataTree@@QAEJPBDAAVCString@@@Z" PURGE="8" COMMENT="" />
    <EXPORT ORDINAL="629" NAME="?GetObjectTypeFromId@CContentDataTree@@QAEJPBDAAVCString@@@Z" PURGE="8" COMMENT="" />
    <EXPORT ORDINAL="630" NAME="?GetObjectsByName@CContentDataTree@@QAEJPBD0AAVCStringArray@@@Z" PURGE="12" COMMENT="" />
    <EXPORT ORDINAL="631" NAME="?GetOneOfOptions@CIncrediOptions@@QAEKPAJH@Z" PURGE="8" COMMENT="" />
    <EXPORT ORDINAL="632" NAME="?GetOnlineGalleryLink@CIncrediCustom@@QAEJAAVCString@@W4ContentType@@@Z" PURGE="8" COMMENT="" />
    <EXPORT ORDINAL="633" NAME="?GetOnlineGalleryName@CIncrediCustom@@QAEJAAVCString@@@Z" PURGE="4" COMMENT="" />
    <EXPORT ORDINAL="634" NAME="?GetOption@CIncrediOptions@@QAEKJ@Z" PURGE="4" COMMENT="" />
    <EXPORT ORDINAL="635" NAME="?GetOrderPage@CIncrediCustom@@QAEJAAVCString@@@Z" PURGE="4" COMMENT="" />
    <EXPORT ORDINAL="636" NAME="?GetOutParamInt@CImParams@@QBEPAHH@Z" PURGE="4" COMMENT="" />
    <EXPORT ORDINAL="637" NAME="?GetOutParamLong@CImParams@@QBEPAJH@Z" PURGE="4" COMMENT="" />
    <EXPORT ORDINAL="638" NAME="?GetPageLink@CIncrediCustom@@QAEJAAVCString@@@Z" PURGE="4" COMMENT="" />
    <EXPORT ORDINAL="639" NAME="?GetParamBstr@CImParams@@QBEPAGH@Z" PURGE="4" COMMENT="" />
    <EXPORT ORDINAL="640" NAME="?GetParamInt@CImParams@@QBEHH@Z" PURGE="4" COMMENT="" />
    <EXPORT ORDINAL="641" NAME="?GetParamULong@CImParams@@QBEKH@Z" PURGE="4" COMMENT="" />
    <EXPORT ORDINAL="642" NAME="?GetParamUnknown@CImParams@@QBEPAUIUnknown@@H@Z" PURGE="4" COMMENT="" />
    <EXPORT ORDINAL="643" NAME="?GetPassword@@YAJPBD0AAVCString@@0@Z" PURGE="0" COMMENT="" />
    <EXPORT ORDINAL="644" NAME="?GetPaymentEmail@CIncrediCustom@@QAEJAAVCString@@@Z" PURGE="4" COMMENT="" />
    <EXPORT ORDINAL="645" NAME="?GetPlacementInfo@CIncrediReg@@QAEHAAUtagWINDOWPLACEMENT@@PBD@Z" PURGE="8" COMMENT="" />
    <EXPORT ORDINAL="646" NAME="?GetPosition@CIncrediFile@@UBEJXZ" PURGE="0" COMMENT="" />
    <EXPORT ORDINAL="647" NAME="?GetPosition@CIncrediMemFile@@UBEJXZ" PURGE="0" COMMENT="" />
    <EXPORT ORDINAL="648" NAME="?GetPositiveMin3@CIncrediHTMLParser@@AAEHHHH@Z" PURGE="12" COMMENT="" />
    <EXPORT ORDINAL="649" NAME="?GetPremiumName@CIncrediCustom@@QAEJAAVCString@@@Z" PURGE="4" COMMENT="" />
    <EXPORT ORDINAL="650" NAME="?GetProcAddress@CImLibrary@@QAEP6GHXZPBD@Z" PURGE="4" COMMENT="" />
    <EXPORT ORDINAL="651" NAME="?GetProductInfo@CIncrediLicense@@QAEJJAAVCProductInfo@@@Z" PURGE="8" COMMENT="" />
    <EXPORT ORDINAL="652" NAME="?GetProductInfo@CIncrediLicense@@QAEJPBDAAVCProductInfo@@@Z" PURGE="8" COMMENT="" />
    <EXPORT ORDINAL="653" NAME="?GetProductStatus@CIncrediLicense@@QAEJPBDAAHAAJ@Z" PURGE="12" COMMENT="" />
    <EXPORT ORDINAL="654" NAME="?GetProfileBinaryValue@CIncrediReg@@QAEJPBD0PAPAEPAK@Z" PURGE="16" COMMENT="" />
    <EXPORT ORDINAL="655" NAME="?GetProfileLongValue@CIncrediReg@@QAEJPBD0PAKK@Z" PURGE="16" COMMENT="" />
    <EXPORT ORDINAL="656" NAME="?GetProfileStringValue@CIncrediReg@@QAEJPBD0AAVCString@@0@Z" PURGE="16" COMMENT="" />
    <EXPORT ORDINAL="657" NAME="?GetPurchaseEmail@CIncrediCustom@@QAEJAAVCString@@@Z" PURGE="4" COMMENT="" />
    <EXPORT ORDINAL="658" NAME="?GetPurchaseThanksPage@CIncrediCustom@@QAEJAAVCString@@@Z" PURGE="4" COMMENT="" />
    <EXPORT ORDINAL="659" NAME="?GetRandomContent@CContent@@QAEHPBD0AAVCString@@@Z" PURGE="12" COMMENT="" />
    <EXPORT ORDINAL="660" NAME="?GetRefNode@CComplexNode@@QBE_NXZ" PURGE="0" COMMENT="" />
    <EXPORT ORDINAL="661" NAME="?GetRegBinaryValue@CIncrediReg@@QAEJPAUHKEY__@@PBD11PAPAEPAK@Z" PURGE="24" COMMENT="" />
    <EXPORT ORDINAL="662" NAME="?GetRegLongValue@CIncrediReg@@QAEJPAUHKEY__@@PBD11PAKK@Z" PURGE="24" COMMENT="" />
    <EXPORT ORDINAL="663" NAME="?GetRegStringValue@CIncrediReg@@QAEJPAUHKEY__@@PBD11AAVCString@@1@Z" PURGE="24" COMMENT="" />
    <EXPORT ORDINAL="664" NAME="?GetRegistrationCode@CIncrediLicense@@QBEJPBDJAAVCString@@@Z" PURGE="12" COMMENT="" />
    <EXPORT ORDINAL="665" NAME="?GetRegistrationStatus@CIncrediReg@@QAEJPAG@Z" PURGE="4" COMMENT="" />
    <EXPORT ORDINAL="666" NAME="?GetResult@CImParams@@QAEJXZ" PURGE="0" COMMENT="" />
    <EXPORT ORDINAL="667" NAME="?GetRootElement@CImXml@@QBEPAUIXMLDOMElement@@XZ" PURGE="0" COMMENT="" />
    <EXPORT ORDINAL="668" NAME="?GetRootParent@@YAPAUHWND__@@PAU1@@Z" PURGE="0" COMMENT="" />
    <EXPORT ORDINAL="669" NAME="?GetRule@CIncrediRules@@QAEPAVCRule@@PBD@Z" PURGE="4" COMMENT="" />
    <EXPORT ORDINAL="670" NAME="?GetRulesByAction@CIncrediRules@@QAEJIAAVCStringArray@@H@Z" PURGE="12" COMMENT="" />
    <EXPORT ORDINAL="671" NAME="?GetRulesCount@CIncrediRules@@QAEHXZ" PURGE="0" COMMENT="" />
    <EXPORT ORDINAL="672" NAME="?GetRulesCountByAction@CIncrediRules@@QAEHI@Z" PURGE="4" COMMENT="" />
    <EXPORT ORDINAL="673" NAME="?GetRuntimeClass@CCommandLine@@UBEPAUCRuntimeClass@@XZ" PURGE="0" COMMENT="" />
    <EXPORT ORDINAL="674" NAME="?GetRuntimeClass@CIncrediMainWnd@@UBEPAUCRuntimeClass@@XZ" PURGE="0" COMMENT="" />
    <EXPORT ORDINAL="675" NAME="?GetRuntimeClass@CIncrediResApp@@UBEPAUCRuntimeClass@@XZ" PURGE="0" COMMENT="" />
    <EXPORT ORDINAL="676" NAME="?GetRuntimeClass@CIncrediWinApp@@UBEPAUCRuntimeClass@@XZ" PURGE="0" COMMENT="" />
    <EXPORT ORDINAL="677" NAME="?GetRuntimePath@CIncrediReg@@QAEJAAVCString@@@Z" PURGE="4" COMMENT="" />
    <EXPORT ORDINAL="678" NAME="?GetSafeHwnd@@YAKPAVCWnd@@@Z" PURGE="0" COMMENT="" />
    <EXPORT ORDINAL="679" NAME="?GetSerial@CIncrediLicense@@QBEJPBDAAVCString@@AAJ@Z" PURGE="12" COMMENT="" />
    <EXPORT ORDINAL="680" NAME="?GetShortPath@@YAHPBDAAVCString@@@Z" PURGE="0" COMMENT="" />
    <EXPORT ORDINAL="681" NAME="?GetShowLangStringIDs@CIncrediReg@@QAEHXZ" PURGE="0" COMMENT="" />
    <EXPORT ORDINAL="682" NAME="?GetSorted@CIncrediPtrList@@QAEJJVCString@@AAKAAPAE@Z" PURGE="16" COMMENT="" />
    <EXPORT ORDINAL="683" NAME="?GetSpecialFolderPath@@YAJHAAVCString@@@Z" PURGE="0" COMMENT="" />
    <EXPORT ORDINAL="684" NAME="?GetStampPath@CIncrediCustom@@QAEJAAVCString@@@Z" PURGE="4" COMMENT="" />
    <EXPORT ORDINAL="685" NAME="?GetStatisticsFromElem@CIncrediHTMLParser@@QAEJPAUIHTMLElement@@IAAV?$CMap@VCString@@PBDHH@@@Z" PURGE="12" COMMENT="" />
    <EXPORT ORDINAL="686" NAME="?GetStatus@CContent@@QAEJPBD0AAW4StatusType@1@@Z" PURGE="12" COMMENT="" />
    <EXPORT ORDINAL="687" NAME="?GetStringUserValue@CContent@@QBEJPBD00AAVCString@@00@Z" PURGE="24" COMMENT="" />
    <EXPORT ORDINAL="688" NAME="?GetStringValue@CContent@@QBEJPBD00AAVCString@@00@Z" PURGE="24" COMMENT="" />
    <EXPORT ORDINAL="689" NAME="?GetStringValue@CIncrediReg@@QAEJPBD0AAVCString@@0H0@Z" PURGE="24" COMMENT="" />
    <EXPORT ORDINAL="690" NAME="?GetSubkeysCount@CIncrediReg@@QAEKPBDPAUHKEY__@@@Z" PURGE="8" COMMENT="" />
    <EXPORT ORDINAL="691" NAME="?GetSupportEmail@CIncrediCustom@@QAEJAAVCString@@@Z" PURGE="4" COMMENT="" />
    <EXPORT ORDINAL="692" NAME="?GetSysTrayWindow@@YAPAUHWND__@@XZ" PURGE="0" COMMENT="" />
    <EXPORT ORDINAL="693" NAME="?GetSystemId@CIncrediLicense@@QAEJ_N@Z" PURGE="4" COMMENT="" />
    <EXPORT ORDINAL="694" NAME="?GetSystemKey@CIncrediReg@@QAEPAUHKEY__@@XZ" PURGE="0" COMMENT="" />
    <EXPORT ORDINAL="695" NAME="?GetSystemPalette@CIncrediCapture@@QAEPAUHPALETTE__@@XZ" PURGE="0" COMMENT="" />
    <EXPORT ORDINAL="696" NAME="?GetTailError@CIncrediError@@IAEPAUIErrorInfo@@XZ" PURGE="0" COMMENT="" />
    <EXPORT ORDINAL="697" NAME="?GetTaskBarPos@@YAHAAVCRect@@@Z" PURGE="0" COMMENT="" />
    <EXPORT ORDINAL="698" NAME="?GetTechnology@CWebDomain@@QAE?AVCString@@XZ" PURGE="4" COMMENT="" />
    <EXPORT ORDINAL="699" NAME="?GetTellAFriendLink@CIncrediCustom@@QAEJAAVCString@@@Z" PURGE="4" COMMENT="" />
    <EXPORT ORDINAL="700" NAME="?GetTellAFriendLinkText@CIncrediCustom@@QAEJAAVCString@@@Z" PURGE="4" COMMENT="" />
    <EXPORT ORDINAL="701" NAME="?GetTempFolder@@YAXAAVCString@@PBD@Z" PURGE="0" COMMENT="" />
    <EXPORT ORDINAL="702" NAME="?GetTempSubfolder@@YAXAAVCString@@PBD@Z" PURGE="0" COMMENT="" />
    <EXPORT ORDINAL="703" NAME="?GetTextExtent@@YA?AVCSize@@PAVCDC@@PBD@Z" PURGE="0" COMMENT="" />
    <EXPORT ORDINAL="704" NAME="?GetTextExtent@@YA?AVCSize@@PAVCWnd@@PBD@Z" PURGE="0" COMMENT="" />
    <EXPORT ORDINAL="705" NAME="?GetTextRangeAreaExludedHTML@CIncrediHTMLParser@@QAEJABVCString@@AAV2@1@Z" PURGE="12" COMMENT="" />
    <EXPORT ORDINAL="706" NAME="?GetTextRangeFlavorParams@CIncrediHTMLParser@@QAEJAAVCString@@00000@Z" PURGE="24" COMMENT="" />
    <EXPORT ORDINAL="707" NAME="?GetToken@@YA?AVCString@@AAV1@PBD@Z" PURGE="0" COMMENT="" />
    <EXPORT ORDINAL="708" NAME="?GetTokenEx@@YA?AVCString@@AAV1@PBD@Z" PURGE="0" COMMENT="" />
    <EXPORT ORDINAL="709" NAME="?GetTopLevelParent@@YAPAVCWnd@@PAV1@H@Z" PURGE="0" COMMENT="" />
    <EXPORT ORDINAL="710" NAME="?GetTradeMark@CContent@@QAEJPBD0AAVCString@@1@Z" PURGE="16" COMMENT="" />
    <EXPORT ORDINAL="711" NAME="?GetTradeMark@CContent@@QAEJPBDAAVCString@@1@Z" PURGE="12" COMMENT="" />
    <EXPORT ORDINAL="712" NAME="?GetTradeMarkFirstLine@CContent@@QAEJPBD0AAVCString@@@Z" PURGE="12" COMMENT="" />
    <EXPORT ORDINAL="713" NAME="?GetType@CContentDataTree@@AAEPAVCContentContainer@@AAVCString@@@Z" PURGE="4" COMMENT="" />
    <EXPORT ORDINAL="714" NAME="?GetTypeVersion@CContent@@QAEJPBD0AAVCString@@@Z" PURGE="12" COMMENT="" />
    <EXPORT ORDINAL="715" NAME="?GetTypeVersion@CContent@@QAEJPBDAAVCString@@@Z" PURGE="8" COMMENT="" />
    <EXPORT ORDINAL="716" NAME="?GetTypeVersionByType@CContent@@QAEMPBD@Z" PURGE="4" COMMENT="" />
    <EXPORT ORDINAL="717" NAME="?GetUnauthorizedDemo@CIncrediLicense@@QAEPBVCProduct@@_J@Z" PURGE="8" COMMENT="" />
    <EXPORT ORDINAL="718" NAME="?GetUninstallPage@CIncrediCustom@@QAEJAAVCString@@@Z" PURGE="4" COMMENT="" />
    <EXPORT ORDINAL="719" NAME="?GetUpgradeInfoPage@CIncrediCustom@@QAEJAAVCString@@@Z" PURGE="4" COMMENT="" />
    <EXPORT ORDINAL="720" NAME="?GetUserFullKey@CIncrediReg@@QAEJAAVCString@@PBDH@Z" PURGE="12" COMMENT="" />
    <EXPORT ORDINAL="721" NAME="?GetUserKey@CIdentitiesManager@@QAEXAAVCString@@V2@@Z" PURGE="8" COMMENT="" />
    <EXPORT ORDINAL="722" NAME="?GetUserKey@CIncrediReg@@QAEJAAVCString@@PBD1@Z" PURGE="12" COMMENT="" />
    <EXPORT ORDINAL="723" NAME="?GetUserNameA@@YAXAAVCString@@@Z" PURGE="0" COMMENT="" />
    <EXPORT ORDINAL="724" NAME="?GetUses@CContent@@QAEJPBD0AAK1@Z" PURGE="16" COMMENT="" />
    <EXPORT ORDINAL="725" NAME="?GetVIPSupportEmail@CIncrediCustom@@QAEJAAVCString@@@Z" PURGE="4" COMMENT="" />
    <EXPORT ORDINAL="726" NAME="?GetValue@CModuleVersion@@QAE?AVCString@@PBD@Z" PURGE="8" COMMENT="" />
    <EXPORT ORDINAL="727" NAME="?GetValue@CValue@@QBEXAAK@Z" PURGE="4" COMMENT="" />
    <EXPORT ORDINAL="728" NAME="?GetValue@CValue@@QBEXAAVCString@@@Z" PURGE="4" COMMENT="" />
    <EXPORT ORDINAL="729" NAME="?GetValue@CValue@@QBEXPAU_GUID@@@Z" PURGE="4" COMMENT="" />
    <EXPORT ORDINAL="730" NAME="?GetWebDomainHelpUrl@CWebDomain@@QAEJAAVCString@@@Z" PURGE="4" COMMENT="" />
    <EXPORT ORDINAL="731" NAME="?GetWebDomainPath@CWebDomain@@QAE?AVCString@@XZ" PURGE="4" COMMENT="" />
    <EXPORT ORDINAL="732" NAME="?GetWebDomainSpecificData@CWebDomain@@QAEJPBDAAKK@Z" PURGE="12" COMMENT="" />
    <EXPORT ORDINAL="733" NAME="?GetWebDomainSpecificData@CWebDomain@@QAEJPBDAAVCString@@@Z" PURGE="8" COMMENT="" />
    <EXPORT ORDINAL="734" NAME="?GetWebDomainUseGuess@CWebDomain@@QAEJAAH@Z" PURGE="4" COMMENT="" />
    <EXPORT ORDINAL="735" NAME="?GetWebDomainUseUrlPage@CWebDomain@@QAEJAAH@Z" PURGE="4" COMMENT="" />
    <EXPORT ORDINAL="736" NAME="?GetWebTechnologyPropertyPage@CWebTechnology@@QAEJKPAK@Z" PURGE="8" COMMENT="" />
    <EXPORT ORDINAL="737" NAME="?GetWebTechnologyReceiver@CWebTechnology@@QAEJAAVCString@@@Z" PURGE="4" COMMENT="" />
    <EXPORT ORDINAL="738" NAME="?GetWebTechnologySender@CWebTechnology@@QAEJAAVCString@@@Z" PURGE="4" COMMENT="" />
    <EXPORT ORDINAL="739" NAME="?GetWinVersion@CImQueryInfo@@QAE?AW4WinVersion@1@XZ" PURGE="0" COMMENT="" />
    <EXPORT ORDINAL="740" NAME="?GetWinVersion@CImQueryInfo@@QAEXAAVCString@@@Z" PURGE="4" COMMENT="" />
    <EXPORT ORDINAL="741" NAME="?GrowFile@CIncrediMemFile@@MAEXK@Z" PURGE="4" COMMENT="" />
    <EXPORT ORDINAL="742" NAME="?HTMLColorStringToRGB@@YAKPBD@Z" PURGE="0" COMMENT="" />
    <EXPORT ORDINAL="743" NAME="?HandleEmlExtension@CIncrediReg@@QAEJH@Z" PURGE="4" COMMENT="" />
    <EXPORT ORDINAL="744" NAME="?HasFeature@CIncrediLicense@@QAE_J_J@Z" PURGE="8" COMMENT="" />
    <EXPORT ORDINAL="745" NAME="?HideStamp@CIncrediHTMLParser@@QAEJAAVCString@@@Z" PURGE="4" COMMENT="" />
    <EXPORT ORDINAL="746" NAME="?HideTaskbarWindow@CImHook@@QAEHPBD0@Z" PURGE="8" COMMENT="" />
    <EXPORT ORDINAL="747" NAME="?INCREDIREG@@YAPAVCIncrediReg@@XZ" PURGE="0" COMMENT="" />
    <EXPORT ORDINAL="748" NAME="?INCREDIRULES@@YAPAVCIncrediRules@@XZ" PURGE="0" COMMENT="" />
    <EXPORT ORDINAL="749" NAME="?ImCanBeClosed@@YAJPAUIUnknown@@I@Z" PURGE="0" COMMENT="" />
    <EXPORT ORDINAL="750" NAME="?ImCloseObject@@YAJPAUIUnknown@@UtagVARIANT@@@Z" PURGE="0" COMMENT="" />
    <EXPORT ORDINAL="751" NAME="?ImCreateInstance@@YAJABU_GUID@@PAUIUnknown@@K0PAPAX@Z" PURGE="0" COMMENT="" />
    <EXPORT ORDINAL="752" NAME="?ImCreateObject@@YAJABU_GUID@@0PAUIUnknown@@PAPAU2@UtagVARIANT@@@Z" PURGE="0" COMMENT="" />
    <EXPORT ORDINAL="753" NAME="?ImFreeUnusedLibraries@@YAXXZ" PURGE="0" COMMENT="" />
    <EXPORT ORDINAL="754" NAME="?ImGetProfileSection@@YAHPBD0AAVCString@@@Z" PURGE="0" COMMENT="" />
    <EXPORT ORDINAL="755" NAME="?ImGetProfileString@@YAKPBD00PADK0@Z" PURGE="0" COMMENT="" />
    <EXPORT ORDINAL="756" NAME="?ImGetRemoteObject@@YAJPAUIUnknown@@ABU_GUID@@1PAPAX@Z" PURGE="0" COMMENT="" />
    <EXPORT ORDINAL="757" NAME="?ImInitializeObject@@YAJPAUIUnknown@@0UtagVARIANT@@@Z" PURGE="0" COMMENT="" />
    <EXPORT ORDINAL="758" NAME="?ImSetComFactory@@YAJPAUIUnknown@@0@Z" PURGE="0" COMMENT="" />
    <EXPORT ORDINAL="759" NAME="?ImSysFreeString@@YAXAAPAG@Z" PURGE="0" COMMENT="" />
    <EXPORT ORDINAL="760" NAME="?ImUrlUnescape@@YAXAAVCString@@@Z" PURGE="0" COMMENT="" />
    <EXPORT ORDINAL="761" NAME="?ImWriteProfileInt@@YAJPBD00H@Z" PURGE="0" COMMENT="" />
    <EXPORT ORDINAL="762" NAME="?ImWriteProfileString@@YAJPBD000@Z" PURGE="0" COMMENT="" />
    <EXPORT ORDINAL="763" NAME="?Import@CContent@@QAEJPBDW4ContentSharingType@@0@Z" PURGE="12" COMMENT="" />
    <EXPORT ORDINAL="764" NAME="?ImportFolder@CContent@@QAEXPBDW4ContentSharingType@@@Z" PURGE="8" COMMENT="" />
    <EXPORT ORDINAL="765" NAME="?ImportRegFile@CIncrediReg@@QAEJPBD@Z" PURGE="4" COMMENT="" />
    <EXPORT ORDINAL="766" NAME="?InitInstance@CIncrediWinApp@@MAEHXZ" PURGE="0" COMMENT="" />
    <EXPORT ORDINAL="767" NAME="?InitLastAlloc@CImString@@AAEXXZ" PURGE="0" COMMENT="" />
    <EXPORT ORDINAL="768" NAME="?Initialize@CFileEncoder@@QAEXXZ" PURGE="0" COMMENT="" />
    <EXPORT ORDINAL="769" NAME="?Initialize@CIncrediFactory@@MAEXXZ" PURGE="0" COMMENT="" />
    <EXPORT ORDINAL="770" NAME="?InitializeScale@CIncrediScale@@AAEXXZ" PURGE="0" COMMENT="" />
    <EXPORT ORDINAL="771" NAME="?InsertAfter@CIncrediPtrList@@QAEJPBD@Z" PURGE="4" COMMENT="" />
    <EXPORT ORDINAL="772" NAME="?InsertAndUpdate@CIncrediPtrList@@QAEPBVCComplexNode@@_J@Z" PURGE="8" COMMENT="" />
    <EXPORT ORDINAL="773" NAME="?InsertBefore@CIncrediPtrList@@QAEJPBDJ@Z" PURGE="8" COMMENT="" />
    <EXPORT ORDINAL="774" NAME="?InsertCSSText@CIncrediHTMLParser@@QAEXAAVCString@@0@Z" PURGE="8" COMMENT="" />
    <EXPORT ORDINAL="775" NAME="?InsertHTMLInAreaEnd@CIncrediHTMLParser@@QAEJABVCString@@0AAV2@@Z" PURGE="12" COMMENT="" />
    <EXPORT ORDINAL="776" NAME="?InsertHTMLInAreaStart@CIncrediHTMLParser@@QAEJABVCString@@0AAV2@@Z" PURGE="12" COMMENT="" />
    <EXPORT ORDINAL="777" NAME="?InsertTextEditSpan@CIncrediHTMLParser@@QAEJAAVCString@@0@Z" PURGE="8" COMMENT="" />
    <EXPORT ORDINAL="778" NAME="?InsertTextEditSpan@CIncrediHTMLParser@@QAEJAAVCString@@@Z" PURGE="4" COMMENT="" />
    <EXPORT ORDINAL="779" NAME="?InsertXMLFlavorInfo@CIncrediHTMLParser@@QAEXAAVCString@@0@Z" PURGE="8" COMMENT="" />
    <EXPORT ORDINAL="780" NAME="?IsAuthorized@CProduct@@QBE_NXZ" PURGE="0" COMMENT="" />
    <EXPORT ORDINAL="781" NAME="?IsAutoDisconnectEnabled@CImAppDetector@@QAEHXZ" PURGE="0" COMMENT="" />
    <EXPORT ORDINAL="782" NAME="?IsAutoHideTaskBar@@YAHXZ" PURGE="0" COMMENT="" />
    <EXPORT ORDINAL="783" NAME="?IsBlocked@CImParams@@ABEHXZ" PURGE="0" COMMENT="" />
    <EXPORT ORDINAL="784" NAME="?IsCached@CContent@@QAEJPBD00@Z" PURGE="12" COMMENT="" />
    <EXPORT ORDINAL="785" NAME="?IsCached@CContent@@QAEJPBD00AAVCString@@@Z" PURGE="16" COMMENT="" />
    <EXPORT ORDINAL="786" NAME="?IsCollectionEmpty@CContentDataTree@@QAEHPBD0@Z" PURGE="8" COMMENT="" />
    <EXPORT ORDINAL="787" NAME="?IsCollectionGold@CContentDataTree@@QAEHPBD00@Z" PURGE="12" COMMENT="" />
    <EXPORT ORDINAL="788" NAME="?IsCollectionNew@CContentDataTree@@QAEHPBD00@Z" PURGE="12" COMMENT="" />
    <EXPORT ORDINAL="789" NAME="?IsCommonRegistry@CIncrediReg@@QBEHXZ" PURGE="0" COMMENT="" />
    <EXPORT ORDINAL="790" NAME="?IsCompactMode@CCommandLine@@QAEHXZ" PURGE="0" COMMENT="" />
    <EXPORT ORDINAL="791" NAME="?IsContentExtension@CContent@@QAEHABVCString@@@Z" PURGE="4" COMMENT="" />
    <EXPORT ORDINAL="792" NAME="?IsCurrDefaultEmailClient@CIncrediReg@@QAEHXZ" PURGE="0" COMMENT="" />
    <EXPORT ORDINAL="793" NAME="?IsDateDemo@CProduct@@QBE_NXZ" PURGE="0" COMMENT="" />
    <EXPORT ORDINAL="794" NAME="?IsDemo@CProduct@@QBE_NXZ" PURGE="0" COMMENT="" />
    <EXPORT ORDINAL="795" NAME="?IsDirectMode@CCommandLine@@QAEHXZ" PURGE="0" COMMENT="" />
    <EXPORT ORDINAL="796" NAME="?IsDisableExecutes@CIncrediWinApp@@IAEHXZ" PURGE="0" COMMENT="" />
    <EXPORT ORDINAL="797" NAME="?IsEmlExtensionOwner@CIncrediReg@@QAEHXZ" PURGE="0" COMMENT="" />
    <EXPORT ORDINAL="798" NAME="?IsEnabled@CWebTechnology@@QAEHXZ" PURGE="0" COMMENT="" />
    <EXPORT ORDINAL="799" NAME="?IsEof@CIncrediFile@@UAEHXZ" PURGE="0" COMMENT="" />
    <EXPORT ORDINAL="800" NAME="?IsEof@CIncrediMemFile@@UAEHXZ" PURGE="0" COMMENT="" />
    <EXPORT ORDINAL="801" NAME="?IsEventSignaled@@YAJPAX@Z" PURGE="0" COMMENT="" />
    <EXPORT ORDINAL="802" NAME="?IsExpired@CProduct@@QBE_NXZ" PURGE="0" COMMENT="" />
    <EXPORT ORDINAL="803" NAME="?IsFileInCAB@CIncrediDeCompression@@QAEJPBD0@Z" PURGE="8" COMMENT="" />
    <EXPORT ORDINAL="804" NAME="?IsFolder@CImFileDialog@@AAEHPBD@Z" PURGE="4" COMMENT="" />
    <EXPORT ORDINAL="805" NAME="?IsGotoInbox@CCommandLine@@QAEHXZ" PURGE="0" COMMENT="" />
    <EXPORT ORDINAL="806" NAME="?IsHiddenLicenseContent@CContent@@QAEHPBD0@Z" PURGE="8" COMMENT="" />
    <EXPORT ORDINAL="807" NAME="?IsIdleMessage@CIncrediResApp@@UAEHPAUtagMSG@@@Z" PURGE="4" COMMENT="" />
    <EXPORT ORDINAL="808" NAME="?IsIdleMessage@CIncrediWinApp@@MAEHPAUtagMSG@@@Z" PURGE="4" COMMENT="" />
    <EXPORT ORDINAL="809" NAME="?IsImportMessages@CWebTechnology@@QAEHXZ" PURGE="0" COMMENT="" />
    <EXPORT ORDINAL="810" NAME="?IsImported@CContent@@QBEHPBD0@Z" PURGE="8" COMMENT="" />
    <EXPORT ORDINAL="811" NAME="?IsImported@CContent@@QBEHPBD@Z" PURGE="4" COMMENT="" />
    <EXPORT ORDINAL="812" NAME="?IsIncrediId@CIncrediHTMLParser@@QAEHPBD@Z" PURGE="4" COMMENT="" />
    <EXPORT ORDINAL="813" NAME="?IsIncrediWorker@CIncrediReg@@QAEHXZ" PURGE="0" COMMENT="" />
    <EXPORT ORDINAL="814" NAME="?IsInstall@CCommandLine@@QAEHXZ" PURGE="0" COMMENT="" />
    <EXPORT ORDINAL="815" NAME="?IsInstalled@@YAHPBD@Z" PURGE="0" COMMENT="" />
    <EXPORT ORDINAL="816" NAME="?IsKeyDown@@YA_NH@Z" PURGE="0" COMMENT="" />
    <EXPORT ORDINAL="817" NAME="?IsLaunchOnStartup@CIncrediReg@@QAEHXZ" PURGE="0" COMMENT="" />
    <EXPORT ORDINAL="818" NAME="?IsLegal@CIncrediHTMLParser@@ABEHD_N@Z" PURGE="8" COMMENT="" />
    <EXPORT ORDINAL="819" NAME="?IsLoaded@CContentDataTree@@QAEHXZ" PURGE="0" COMMENT="" />
    <EXPORT ORDINAL="820" NAME="?IsLocalID@CContent@@QAEHABVCString@@@Z" PURGE="4" COMMENT="" />
    <EXPORT ORDINAL="821" NAME="?IsNewContent@CContentDataTree@@QAEHAAVCString@@@Z" PURGE="4" COMMENT="" />
    <EXPORT ORDINAL="822" NAME="?IsNewMessage@CCommandLine@@QAEHXZ" PURGE="0" COMMENT="" />
    <EXPORT ORDINAL="823" NAME="?IsNoneFlavor@CContent@@QAEHABVCString@@@Z" PURGE="4" COMMENT="" />
    <EXPORT ORDINAL="824" NAME="?IsNullGuid@@YAHABU_GUID@@@Z" PURGE="0" COMMENT="" />
    <EXPORT ORDINAL="825" NAME="?IsNullID@CContent@@QAEHABVCString@@@Z" PURGE="4" COMMENT="" />
    <EXPORT ORDINAL="826" NAME="?IsNumeric@@YAHAAVCString@@@Z" PURGE="0" COMMENT="" />
    <EXPORT ORDINAL="827" NAME="?IsObjectNew@CContentDataTree@@QAEHPBD@Z" PURGE="4" COMMENT="" />
    <EXPORT ORDINAL="828" NAME="?IsOpenAb@CCommandLine@@QAEHXZ" PURGE="0" COMMENT="" />
    <EXPORT ORDINAL="829" NAME="?IsOpened@CIncrediFile@@UAEHXZ" PURGE="0" COMMENT="" />
    <EXPORT ORDINAL="830" NAME="?IsOpened@CIncrediMemFile@@UAEHXZ" PURGE="0" COMMENT="" />
    <EXPORT ORDINAL="831" NAME="?IsProfileVersion@CIncrediReg@@QAEHXZ" PURGE="0" COMMENT="" />
    <EXPORT ORDINAL="832" NAME="?IsQuit@CCommandLine@@QAEHXZ" PURGE="0" COMMENT="" />
    <EXPORT ORDINAL="833" NAME="?IsReadNewMail@CCommandLine@@QAEHXZ" PURGE="0" COMMENT="" />
    <EXPORT ORDINAL="834" NAME="?IsRetailVersion@CIncrediReg@@QAEHXZ" PURGE="0" COMMENT="" />
    <EXPORT ORDINAL="835" NAME="?IsSameNode@CComplexNode@@QBE_NXZ" PURGE="0" COMMENT="" />
    <EXPORT ORDINAL="836" NAME="?IsSystemContent@CContent@@QAEHPBD0@Z" PURGE="8" COMMENT="" />
    <EXPORT ORDINAL="837" NAME="?IsTaskBarOnTop@@YAHXZ" PURGE="0" COMMENT="" />
    <EXPORT ORDINAL="838" NAME="?IsTextRangeMsg@CIncrediHTMLParser@@QAEHABVCString@@@Z" PURGE="4" COMMENT="" />
    <EXPORT ORDINAL="839" NAME="?IsValidExt@CContent@@QAEHPBD@Z" PURGE="4" COMMENT="" />
    <EXPORT ORDINAL="840" NAME="?IsValidExtByType@CContent@@AAEHPBD0@Z" PURGE="8" COMMENT="" />
    <EXPORT ORDINAL="841" NAME="?IsValidFlashExt@CContent@@QAEHPBD@Z" PURGE="4" COMMENT="" />
    <EXPORT ORDINAL="842" NAME="?IsValidGuid@@YAHPBD@Z" PURGE="0" COMMENT="" />
    <EXPORT ORDINAL="843" NAME="?IsValidID@CContent@@QAEHABVCString@@@Z" PURGE="4" COMMENT="" />
    <EXPORT ORDINAL="844" NAME="?IsValidImageExt@CContent@@QAEHPBD@Z" PURGE="4" COMMENT="" />
    <EXPORT ORDINAL="845" NAME="?IsValidIndex@CImParams@@ABEHH@Z" PURGE="4" COMMENT="" />
    <EXPORT ORDINAL="846" NAME="?IsValidMPlayerExt@CContent@@QAEHPBD@Z" PURGE="4" COMMENT="" />
    <EXPORT ORDINAL="847" NAME="?IsValidSoundExt@CContent@@QAEHPBD@Z" PURGE="4" COMMENT="" />
    <EXPORT ORDINAL="848" NAME="?IsValidType@CContent@@QAEHABVCString@@@Z" PURGE="4" COMMENT="" />
    <EXPORT ORDINAL="849" NAME="?KillProcess@CImAppDetector@@QAEHKK@Z" PURGE="8" COMMENT="" />
    <EXPORT ORDINAL="850" NAME="?KillProcess@CImAppDetector@@QAEHPBDK@Z" PURGE="8" COMMENT="" />
    <EXPORT ORDINAL="851" NAME="?KillTimer@CIncrediTimer@@QAEHK@Z" PURGE="4" COMMENT="" />
    <EXPORT ORDINAL="852" NAME="?LICENSES@@YAPAVCIncrediLicense@@XZ" PURGE="0" COMMENT="" />
    <EXPORT ORDINAL="853" NAME="?LicenseFromProduct@CIncrediLicense@@QBEXPBDAAVCString@@@Z" PURGE="8" COMMENT="" />
    <EXPORT ORDINAL="854" NAME="?LinkAllWords@CIncrediHTMLParser@@AAEJAAVCString@@AAHPBD2H2H@Z" PURGE="28" COMMENT="" />
    <EXPORT ORDINAL="855" NAME="?LinkAllWords@CIncrediHTMLParser@@QAEJAAVCString@@H@Z" PURGE="8" COMMENT="" />
    <EXPORT ORDINAL="856" NAME="?Load@CCommandLine@@QAEXPBD@Z" PURGE="4" COMMENT="" />
    <EXPORT ORDINAL="857" NAME="?LoadActions@CIncrediRules@@AAEJPAVCRule@@@Z" PURGE="4" COMMENT="" />
    <EXPORT ORDINAL="858" NAME="?LoadConditions@CIncrediRules@@AAEJPAVCRule@@@Z" PURGE="4" COMMENT="" />
    <EXPORT ORDINAL="859" NAME="?LoadFromFile@CImXml@@QAEJPBD@Z" PURGE="4" COMMENT="" />
    <EXPORT ORDINAL="860" NAME="?LoadHookLib@CImHook@@IAEHXZ" PURGE="0" COMMENT="" />
    <EXPORT ORDINAL="861" NAME="?LoadIncrediIds@CIncrediHTMLParser@@QAEXXZ" PURGE="0" COMMENT="" />
    <EXPORT ORDINAL="862" NAME="?LoadLocString@@YAHIAAVCString@@@Z" PURGE="0" COMMENT="" />
    <EXPORT ORDINAL="863" NAME="?LoadLocStringEx@@YAHIGAAVCString@@@Z" PURGE="0" COMMENT="" />
    <EXPORT ORDINAL="864" NAME="?LoadResourceDll@CIncrediResApp@@QAEHPBD@Z" PURGE="4" COMMENT="" />
    <EXPORT ORDINAL="865" NAME="?LoadRule@CIncrediRules@@AAEJPBDPAPAVCRule@@@Z" PURGE="8" COMMENT="" />
    <EXPORT ORDINAL="866" NAME="?LoadRulesIds@CIncrediRules@@AAEJAAVCStringArray@@@Z" PURGE="4" COMMENT="" />
    <EXPORT ORDINAL="867" NAME="?LoadStringResource@@YAXIAAVCString@@PADPAUHINSTANCE__@@@Z" PURGE="0" COMMENT="" />
    <EXPORT ORDINAL="868" NAME="?LoadWindowPlacement@CIncrediReg@@QAEJPBDPAUHWND__@@HI@Z" PURGE="16" COMMENT="" />
    <EXPORT ORDINAL="869" NAME="?LoadXmlString@CImXml@@QAEJPBD@Z" PURGE="4" COMMENT="" />
    <EXPORT ORDINAL="870" NAME="?LocateLicenseFile@CIncrediLicense@@QAEJAAVCString@@@Z" PURGE="4" COMMENT="" />
    <EXPORT ORDINAL="871" NAME="?LogMessage@@YAXPBD00H@Z" PURGE="0" COMMENT="" />
    <EXPORT ORDINAL="872" NAME="?LogMessage@@YAXPBD0H@Z" PURGE="0" COMMENT="" />
    <EXPORT ORDINAL="873" NAME="?MarkAndRemoveRTL@CIncrediHTMLParser@@QAEJAAVCString@@@Z" PURGE="4" COMMENT="" />
    <EXPORT ORDINAL="874" NAME="?MergeSimilar@CIncrediPtrList@@QAEJJAAVCComplexNode@@@Z" PURGE="8" COMMENT="" />
    <EXPORT ORDINAL="875" NAME="?MoveObject@CContentDataTree@@QAEJPBD000000@Z" PURGE="28" COMMENT="" />
    <EXPORT ORDINAL="876" NAME="?MultiByteToWideChar@@YAHPBDHAAPAG@Z" PURGE="0" COMMENT="" />
    <EXPORT ORDINAL="877" NAME="?MultiByteToWideChar@@YAXABVCString@@PAGK@Z" PURGE="0" COMMENT="" />
    <EXPORT ORDINAL="878" NAME="?NewCollection@CContentDataTree@@QAEJPBD0AAVCString@@@Z" PURGE="12" COMMENT="" />
    <EXPORT ORDINAL="879" NAME="?NormalizeSourceStr@CIncrediHTMLParser@@QAEHAAVCString@@H@Z" PURGE="8" COMMENT="" />
    <EXPORT ORDINAL="880" NAME="?Notify@CImParams@@QAEJPAVCWnd@@IIH@Z" PURGE="16" COMMENT="" />
    <EXPORT ORDINAL="881" NAME="?OPTIONS@@YAPAVCIncrediOptions@@XZ" PURGE="0" COMMENT="" />
    <EXPORT ORDINAL="882" NAME="?OnActivateModal@CIncrediMainWnd@@IAEXPAUHWND__@@0@Z" PURGE="8" COMMENT="" />
    <EXPORT ORDINAL="883" NAME="?OnAddOnUsed@CContent@@QAEJPBDK@Z" PURGE="8" COMMENT="" />
    <EXPORT ORDINAL="884" NAME="?OnBroadcastMessage@CIncrediMainWnd@@IAEHH@Z" PURGE="4" COMMENT="" />
    <EXPORT ORDINAL="885" NAME="?OnCopyData@CIncrediMainWnd@@IAEHPAVCWnd@@PAUtagCOPYDATASTRUCT@@@Z" PURGE="8" COMMENT="" />
    <EXPORT ORDINAL="886" NAME="?OnCreate@CIncrediMainWnd@@IAEHPAUtagCREATESTRUCTA@@@Z" PURGE="4" COMMENT="" />
    <EXPORT ORDINAL="887" NAME="?OnDestroy@CImFileDialog@@IAEXXZ" PURGE="0" COMMENT="" />
    <EXPORT ORDINAL="888" NAME="?OnDestroy@CIncrediMainWnd@@IAEXXZ" PURGE="0" COMMENT="" />
    <EXPORT ORDINAL="889" NAME="?OnEnterModalLoop@CIncrediMainWnd@@IAEHPAUHWND__@@@Z" PURGE="4" COMMENT="" />
    <EXPORT ORDINAL="890" NAME="?OnExitModalLoop@CIncrediMainWnd@@IAEHPAUHWND__@@@Z" PURGE="4" COMMENT="" />
    <EXPORT ORDINAL="891" NAME="?OnFileNameChange@CImFileDialog@@MAEXXZ" PURGE="0" COMMENT="" />
    <EXPORT ORDINAL="892" NAME="?OnFileNameOK@CImFileDialog@@MAEHXZ" PURGE="0" COMMENT="" />
    <EXPORT ORDINAL="893" NAME="?OnFirstIdle@CIncrediMainWnd@@UAEXXZ" PURGE="0" COMMENT="" />
    <EXPORT ORDINAL="894" NAME="?OnForwardCommand@CIncrediMainWnd@@IAEXXZ" PURGE="0" COMMENT="" />
    <EXPORT ORDINAL="895" NAME="?OnFrameCreated@CIncrediMainWnd@@IAEHPAUHWND__@@@Z" PURGE="4" COMMENT="" />
    <EXPORT ORDINAL="896" NAME="?OnFrameDestroyed@CIncrediMainWnd@@IAEHPAUHWND__@@@Z" PURGE="4" COMMENT="" />
    <EXPORT ORDINAL="897" NAME="?OnFreeUnusedLibaries@CIncrediMainWnd@@IAEXII@Z" PURGE="8" COMMENT="" />
    <EXPORT ORDINAL="898" NAME="?OnGetActiveWindow@CIncrediMainWnd@@IAEPAUHWND__@@XZ" PURGE="0" COMMENT="" />
    <EXPORT ORDINAL="899" NAME="?OnIdentityChange@CIncrediReg@@QAEXXZ" PURGE="0" COMMENT="" />
    <EXPORT ORDINAL="900" NAME="?OnIdle@CIncrediMainWnd@@UAEXJPAJ@Z" PURGE="8" COMMENT="" />
    <EXPORT ORDINAL="901" NAME="?OnIdle@CIncrediWinApp@@MAEHJ@Z" PURGE="4" COMMENT="" />
    <EXPORT ORDINAL="902" NAME="?OnInitDialog@CImFileDialog@@MAEHXZ" PURGE="0" COMMENT="" />
    <EXPORT ORDINAL="903" NAME="?OnModalLoopTop@CIncrediMainWnd@@IAEPAUHWND__@@XZ" PURGE="0" COMMENT="" />
    <EXPORT ORDINAL="904" NAME="?OnSetActiveWindow@CIncrediMainWnd@@IAEXPAUHWND__@@0@Z" PURGE="8" COMMENT="" />
    <EXPORT ORDINAL="905" NAME="?OnShowWindow@CIncrediMainWnd@@IAEXHI@Z" PURGE="8" COMMENT="" />
    <EXPORT ORDINAL="906" NAME="?OnSize@CImFileDialog@@IAEXIHH@Z" PURGE="12" COMMENT="" />
    <EXPORT ORDINAL="907" NAME="?OnUsed@CContent@@QAEJPBD0K@Z" PURGE="12" COMMENT="" />
    <EXPORT ORDINAL="908" NAME="?Open@CIncrediFile@@UAEHPBD0HH@Z" PURGE="16" COMMENT="" />
    <EXPORT ORDINAL="909" NAME="?Open@CIncrediMemFile@@UAEHPBD0HH@Z" PURGE="16" COMMENT="" />
    <EXPORT ORDINAL="910" NAME="?OpenAddonKey@CIncrediReg@@QAEJPBDAAPAUHKEY__@@@Z" PURGE="8" COMMENT="" />
    <EXPORT ORDINAL="911" NAME="?OpenGlobalKey@CIncrediReg@@QAEJPBDAAPAUHKEY__@@@Z" PURGE="8" COMMENT="" />
    <EXPORT ORDINAL="912" NAME="?OpenKey@CIncrediReg@@QAEJPBDAAPAUHKEY__@@H0@Z" PURGE="16" COMMENT="" />
    <EXPORT ORDINAL="913" NAME="?OpenLicenseFile@CIncrediLicense@@ABEJPBD0AAJH@Z" PURGE="16" COMMENT="" />
    <EXPORT ORDINAL="914" NAME="?OpenProfileKey@CIncrediReg@@QAEJPBDAAPAUHKEY__@@@Z" PURGE="8" COMMENT="" />
    <EXPORT ORDINAL="915" NAME="?OpenRegKey@CIncrediReg@@QAEJPAUHKEY__@@PBDAAPAU2@K@Z" PURGE="16" COMMENT="" />
    <EXPORT ORDINAL="916" NAME="?OutputActionResult@@YAXPBDJ@Z" PURGE="0" COMMENT="" />
    <EXPORT ORDINAL="917" NAME="?Pack@CContent@@QAEJPBD0@Z" PURGE="8" COMMENT="" />
    <EXPORT ORDINAL="918" NAME="?Pack@CContent@@QAEJPBD0AAVCStringArray@@@Z" PURGE="12" COMMENT="" />
    <EXPORT ORDINAL="919" NAME="?PalEntriesOnDevice@CIncrediCapture@@QAEHPAUHDC__@@@Z" PURGE="4" COMMENT="" />
    <EXPORT ORDINAL="920" NAME="?ParseGeneralInfo@CContent@@QAEJPBD@Z" PURGE="4" COMMENT="" />
    <EXPORT ORDINAL="921" NAME="?ParseParam@CCommandLine@@UAEXPBDHH@Z" PURGE="12" COMMENT="" />
    <EXPORT ORDINAL="922" NAME="?PlacementStringToStruct@CIncrediReg@@QAEHPBDAAUtagWINDOWPLACEMENT@@@Z" PURGE="8" COMMENT="" />
    <EXPORT ORDINAL="923" NAME="?PlaySystemMailSound@@YAXXZ" PURGE="0" COMMENT="" />
    <EXPORT ORDINAL="924" NAME="?PlayWavFile@@YAPAXPBDHH@Z" PURGE="0" COMMENT="" />
    <EXPORT ORDINAL="925" NAME="?PpaletteSize@CIncrediCapture@@QAEGPAD@Z" PURGE="4" COMMENT="" />
    <EXPORT ORDINAL="926" NAME="?PreCreateWindow@CIncrediMainWnd@@UAEHAAUtagCREATESTRUCTA@@@Z" PURGE="4" COMMENT="" />
    <EXPORT ORDINAL="927" NAME="?PreParseInternetLink@CIncrediHTMLParser@@QAEJAAVCString@@0AAH01@Z" PURGE="20" COMMENT="" />
    <EXPORT ORDINAL="928" NAME="?PreParseInternetLinkEx@CIncrediHTMLParser@@QAEJAAVCString@@0AAH010@Z" PURGE="24" COMMENT="" />
    <EXPORT ORDINAL="929" NAME="?PreParseStyleBGInternetLink@CIncrediHTMLParser@@QAEJAAVCString@@0AAH01@Z" PURGE="20" COMMENT="" />
    <EXPORT ORDINAL="930" NAME="?ProductFromLicense@CIncrediLicense@@QBEXPBDAAVCString@@@Z" PURGE="8" COMMENT="" />
    <EXPORT ORDINAL="931" NAME="?ProgIDFromCLSID@@YAJABU_GUID@@AAVCString@@@Z" PURGE="0" COMMENT="" />
    <EXPORT ORDINAL="932" NAME="?ProgIDFromCLSID@@YAJPAGAAVCString@@@Z" PURGE="0" COMMENT="" />
    <EXPORT ORDINAL="933" NAME="?PromptAutoDisconnect@CImAppDetector@@IAEHXZ" PURGE="0" COMMENT="" />
    <EXPORT ORDINAL="934" NAME="?PumpMessage@@YAHPAUHWND__@@II@Z" PURGE="0" COMMENT="" />
    <EXPORT ORDINAL="935" NAME="?PumpMessages@@YAXPAUHWND__@@III@Z" PURGE="0" COMMENT="" />
    <EXPORT ORDINAL="936" NAME="?PutC@CIncrediFile@@UAEHH@Z" PURGE="4" COMMENT="" />
    <EXPORT ORDINAL="937" NAME="?PutC@CIncrediMemFile@@UAEHH@Z" PURGE="4" COMMENT="" />
    <EXPORT ORDINAL="938" NAME="?QueryValue@CIncrediReg@@AAEJPAUHKEY__@@PBDPAPAEPAK@Z" PURGE="16" COMMENT="" />
    <EXPORT ORDINAL="939" NAME="?RGBToHTMLColorString@@YAXKAAVCString@@@Z" PURGE="0" COMMENT="" />
    <EXPORT ORDINAL="940" NAME="?Read@CIncrediFile@@UAEIPAXI@Z" PURGE="8" COMMENT="" />
    <EXPORT ORDINAL="941" NAME="?Read@CIncrediMemFile@@UAEIPAXI@Z" PURGE="8" COMMENT="" />
    <EXPORT ORDINAL="942" NAME="?ReadBuffer@CIncrediFile@@QAEJAAPADJPAI@Z" PURGE="12" COMMENT="" />
    <EXPORT ORDINAL="943" NAME="?ReadData@CContentDataTree@@QAEJXZ" PURGE="0" COMMENT="" />
    <EXPORT ORDINAL="944" NAME="?ReadDataLines@CContentDataTree@@AAEJAAVCArchive@@@Z" PURGE="4" COMMENT="" />
    <EXPORT ORDINAL="945" NAME="?ReadLicenses@CIncrediLicense@@AAEJXZ" PURGE="0" COMMENT="" />
    <EXPORT ORDINAL="946" NAME="?ReadStream@CIncrediPtrList@@QBEJAAVCString@@@Z" PURGE="4" COMMENT="" />
    <EXPORT ORDINAL="947" NAME="?RefreshSysTray@@YAXXZ" PURGE="0" COMMENT="" />
    <EXPORT ORDINAL="948" NAME="?RegisterApplication@CIncrediWinApp@@QAEXXZ" PURGE="0" COMMENT="" />
    <EXPORT ORDINAL="949" NAME="?RegisterBinary@CContent@@QAEJPBD00PAEK0@Z" PURGE="24" COMMENT="" />
    <EXPORT ORDINAL="950" NAME="?RegisterBlockInfo@CContent@@QAEJPBD0@Z" PURGE="8" COMMENT="" />
    <EXPORT ORDINAL="951" NAME="?RegisterClassA@CIncrediFactory@@IAEHPBDHHPAUCRuntimeClass@@@Z" PURGE="16" COMMENT="" />
    <EXPORT ORDINAL="952" NAME="?RegisterErrorCallback@CIncrediCompression@@QAEXP6GHXZ@Z" PURGE="4" COMMENT="" />
    <EXPORT ORDINAL="953" NAME="?RegisterGlobal@CIncrediGlobals@@QAEXPBD0@Z" PURGE="8" COMMENT="" />
    <EXPORT ORDINAL="954" NAME="?RegisterGlobal@CIncrediGlobals@@QAEXPBDH@Z" PURGE="8" COMMENT="" />
    <EXPORT ORDINAL="955" NAME="?RegisterLong@CContent@@QAEJPBD00K0@Z" PURGE="20" COMMENT="" />
    <EXPORT ORDINAL="956" NAME="?RegisterMainWindow@CIncrediGlobals@@QAEXPAUHWND__@@@Z" PURGE="4" COMMENT="" />
    <EXPORT ORDINAL="957" NAME="?RegisterProgress@CIncrediDeCompression@@QAEXPAUHWND__@@@Z" PURGE="4" COMMENT="" />
    <EXPORT ORDINAL="958" NAME="?RegisterSection@CContent@@IAEHPBD000AAVCStringArray@@0@Z" PURGE="24" COMMENT="" />
    <EXPORT ORDINAL="959" NAME="?RegisterSections@CContent@@IAEHPBD00@Z" PURGE="12" COMMENT="" />
    <EXPORT ORDINAL="960" NAME="?RegisterSharedIcons@CIncrediWinApp@@UAEXXZ" PURGE="0" COMMENT="" />
    <EXPORT ORDINAL="961" NAME="?RegisterString@CContent@@QAEJPBD0000@Z" PURGE="20" COMMENT="" />
    <EXPORT ORDINAL="962" NAME="?RegisterUserLong@CContent@@QAEJPBD00K0@Z" PURGE="20" COMMENT="" />
    <EXPORT ORDINAL="963" NAME="?RegisterUserString@CContent@@QAEJPBD0000@Z" PURGE="20" COMMENT="" />
    <EXPORT ORDINAL="964" NAME="?RelateNodes@CIncrediPtrList@@AAEXXZ" PURGE="0" COMMENT="" />
    <EXPORT ORDINAL="965" NAME="?Remove@CIncrediGC@@QAEHPAUIUnknown@@@Z" PURGE="4" COMMENT="" />
    <EXPORT ORDINAL="966" NAME="?RemoveAll@@YAXXZ" PURGE="0" COMMENT="" />
    <EXPORT ORDINAL="967" NAME="?RemoveAt@CIncrediPtrList@@QBEXPBDAAVCString@@@Z" PURGE="8" COMMENT="" />
    <EXPORT ORDINAL="968" NAME="?RemoveBGSound@CIncrediHTMLParser@@QAEXAAVCString@@@Z" PURGE="4" COMMENT="" />
    <EXPORT ORDINAL="969" NAME="?RemoveBlockQuotes@CIncrediHTMLParser@@QAEXAAVCString@@@Z" PURGE="4" COMMENT="" />
    <EXPORT ORDINAL="970" NAME="?RemoveContentEditable@CIncrediHTMLParser@@QAEJAAVCString@@@Z" PURGE="4" COMMENT="" />
    <EXPORT ORDINAL="971" NAME="?RemoveDupTags@CIncrediHTMLParser@@QAEXPBDAAVCString@@@Z" PURGE="8" COMMENT="" />
    <EXPORT ORDINAL="972" NAME="?RemoveExcessMetaTags@CIncrediHTMLParser@@QAEXAAVCString@@@Z" PURGE="4" COMMENT="" />
    <EXPORT ORDINAL="973" NAME="?RemoveHead@CIncrediPtrList@@QBEJPBD0J@Z" PURGE="12" COMMENT="" />
    <EXPORT ORDINAL="974" NAME="?RemoveImageToolBarMeta@CIncrediHTMLParser@@QAEXAAVCString@@@Z" PURGE="4" COMMENT="" />
    <EXPORT ORDINAL="975" NAME="?RemoveIncrediIDs@CIncrediHTMLParser@@QAEJAAVCString@@@Z" PURGE="4" COMMENT="" />
    <EXPORT ORDINAL="976" NAME="?RemoveIncrediIDs@CIncrediHTMLParser@@QAEXPAUIHTMLDocument2@@@Z" PURGE="4" COMMENT="" />
    <EXPORT ORDINAL="977" NAME="?RemoveLINKElements@CIncrediHTMLParser@@QAEJAAVCString@@0AAH01@Z" PURGE="20" COMMENT="" />
    <EXPORT ORDINAL="978" NAME="?RemoveLicense@CIncrediLicense@@QAEJPBD@Z" PURGE="4" COMMENT="" />
    <EXPORT ORDINAL="979" NAME="?RemoveOBJECTElements@CIncrediHTMLParser@@QAEJAAVCString@@0AAH01@Z" PURGE="20" COMMENT="" />
    <EXPORT ORDINAL="980" NAME="?RemoveProblematicHBElements@CIncrediHTMLParser@@QAEXPAUIHTMLDocument2@@@Z" PURGE="4" COMMENT="" />
    <EXPORT ORDINAL="981" NAME="?RemoveRedundantBodyXs@CIncrediHTMLParser@@QAEXPAUIHTMLDocument2@@@Z" PURGE="4" COMMENT="" />
    <EXPORT ORDINAL="982" NAME="?RemoveStamp@CIncrediHTMLParser@@QAEJAAVCString@@0@Z" PURGE="8" COMMENT="" />
    <EXPORT ORDINAL="983" NAME="?RemoveStamp@CIncrediHTMLParser@@QAEJAAVCString@@@Z" PURGE="4" COMMENT="" />
    <EXPORT ORDINAL="984" NAME="?RemoveTail@CIncrediPtrList@@QBEJPBDAAVCString@@AAJ@Z" PURGE="12" COMMENT="" />
    <EXPORT ORDINAL="985" NAME="?RemoveUnsupportedSchemas@CIncrediHTMLParser@@QAEXAAVCString@@@Z" PURGE="4" COMMENT="" />
    <EXPORT ORDINAL="986" NAME="?RemoveXMLBlock@CIncrediHTMLParser@@QAEXAAVCString@@@Z" PURGE="4" COMMENT="" />
    <EXPORT ORDINAL="987" NAME="?RemoveXMLBlock@CIncrediHTMLParser@@QAEXPAUIHTMLDocument2@@@Z" PURGE="4" COMMENT="" />
    <EXPORT ORDINAL="988" NAME="?RenameCollection@CContentDataTree@@QAEJPBD00@Z" PURGE="12" COMMENT="" />
    <EXPORT ORDINAL="989" NAME="?RenameIdentity@CIdentitiesManager@@QAEXPBD0@Z" PURGE="8" COMMENT="" />
    <EXPORT ORDINAL="990" NAME="?RenameObject@CContentDataTree@@QAEJPBD0@Z" PURGE="8" COMMENT="" />
    <EXPORT ORDINAL="991" NAME="?ReorderRules@CIncrediRules@@QAEJAAVCStringArray@@@Z" PURGE="4" COMMENT="" />
    <EXPORT ORDINAL="992" NAME="?RepackContent@CContent@@IAEXPBD@Z" PURGE="4" COMMENT="" />
    <EXPORT ORDINAL="993" NAME="?ReplaceCustomTags@CIncrediCustom@@QAEJAAVCString@@@Z" PURGE="4" COMMENT="" />
    <EXPORT ORDINAL="994" NAME="?ReplaceNodes@CIncrediPtrList@@QBEJPBDJAAVCString@@@Z" PURGE="12" COMMENT="" />
    <EXPORT ORDINAL="995" NAME="?ResetAddOnUses@CContent@@QAEJPBD@Z" PURGE="4" COMMENT="" />
    <EXPORT ORDINAL="996" NAME="?ResetOption@CIncrediOptions@@QAEXJ@Z" PURGE="4" COMMENT="" />
    <EXPORT ORDINAL="997" NAME="?ResetTmpCount@CContent@@QAEJPBD0@Z" PURGE="8" COMMENT="" />
    <EXPORT ORDINAL="998" NAME="?ResizeBmp@CIncrediCapture@@QAEPAUHBITMAP__@@PAU2@HH@Z" PURGE="12" COMMENT="" />
    <EXPORT ORDINAL="999" NAME="?RestoreIFrames@CIncrediHTMLParser@@QAEJPAUIHTMLDocument2@@@Z" PURGE="4" COMMENT="" />
    <EXPORT ORDINAL="1000" NAME="?ReverseAndCalc@CIncrediPtrList@@QAEXQAI@Z" PURGE="4" COMMENT="" />
    <EXPORT ORDINAL="1001" NAME="?ReverseCompare@@YA_NPBD0@Z" PURGE="0" COMMENT="" />
    <EXPORT ORDINAL="1002" NAME="?Revert2Merge@CIncrediPtrList@@QAEHPBD@Z" PURGE="4" COMMENT="" />
    <EXPORT ORDINAL="1003" NAME="?Revert@CIncrediPtrList@@QAEJXZ" PURGE="0" COMMENT="" />
    <EXPORT ORDINAL="1004" NAME="?SCALE@@YAPAVCIncrediScale@@XZ" PURGE="0" COMMENT="" />
    <EXPORT ORDINAL="1005" NAME="?SafeCreateOneDim@CImFlatSafeArray@@QAEJGKPBXJ@Z" PURGE="16" COMMENT="" />
    <EXPORT ORDINAL="1006" NAME="?SafeGetElement@CImSafeArray@@UAEJPAJPAX@Z" PURGE="8" COMMENT="" />
    <EXPORT ORDINAL="1007" NAME="?SafePutElement@CImFlatSafeArray@@UAEJPAJPAX@Z" PURGE="8" COMMENT="" />
    <EXPORT ORDINAL="1008" NAME="?SafePutElement@CImSafeArray@@UAEJPAJPAX@Z" PURGE="8" COMMENT="" />
    <EXPORT ORDINAL="1009" NAME="?SafeResizeOneDim@CImFlatSafeArray@@QAEJK@Z" PURGE="4" COMMENT="" />
    <EXPORT ORDINAL="1010" NAME="?SaveActions@CIncrediRules@@AAEJPBVCRule@@@Z" PURGE="4" COMMENT="" />
    <EXPORT ORDINAL="1011" NAME="?SaveBitmap@CIncrediCapture@@QAEGPAUHBITMAP__@@PBD@Z" PURGE="8" COMMENT="" />
    <EXPORT ORDINAL="1012" NAME="?SaveConditions@CIncrediRules@@AAEJPBVCRule@@@Z" PURGE="4" COMMENT="" />
    <EXPORT ORDINAL="1013" NAME="?SaveDIB@CIncrediCapture@@QAEGPAXPBD@Z" PURGE="8" COMMENT="" />
    <EXPORT ORDINAL="1014" NAME="?SaveLangResourceToFile@@YAHPBDIAAVCString@@PAUHINSTANCE__@@@Z" PURGE="0" COMMENT="" />
    <EXPORT ORDINAL="1015" NAME="?SaveResourceToFile@@YAHPBD0AAVCString@@PAUHINSTANCE__@@@Z" PURGE="0" COMMENT="" />
    <EXPORT ORDINAL="1016" NAME="?SaveRule@CIncrediRules@@QAEJPBVCRule@@@Z" PURGE="4" COMMENT="" />
    <EXPORT ORDINAL="1017" NAME="?SaveRuleActivity@CIncrediRules@@QAEJAAVCString@@H@Z" PURGE="8" COMMENT="" />
    <EXPORT ORDINAL="1018" NAME="?SaveRulesOrder@CIncrediRules@@AAEJAAVCStringArray@@@Z" PURGE="4" COMMENT="" />
    <EXPORT ORDINAL="1019" NAME="?SaveToFile@CImXml@@QAEJPBD@Z" PURGE="4" COMMENT="" />
    <EXPORT ORDINAL="1020" NAME="?SaveWindowPlacement@CIncrediReg@@QAEJPBDPAUHWND__@@@Z" PURGE="8" COMMENT="" />
    <EXPORT ORDINAL="1021" NAME="?ScaleRect@CIncrediScale@@QBE?AVCRect@@ABV2@@Z" PURGE="8" COMMENT="" />
    <EXPORT ORDINAL="1022" NAME="?ScaleX@CIncrediScale@@QBEHH@Z" PURGE="4" COMMENT="" />
    <EXPORT ORDINAL="1023" NAME="?ScaleY@CIncrediScale@@QBEHH@Z" PURGE="4" COMMENT="" />
    <EXPORT ORDINAL="1024" NAME="?Seek@CIncrediFile@@UAEHJH@Z" PURGE="8" COMMENT="" />
    <EXPORT ORDINAL="1025" NAME="?Seek@CIncrediMemFile@@UAEHJH@Z" PURGE="8" COMMENT="" />
    <EXPORT ORDINAL="1026" NAME="?SeekToBegin@CIncrediFile@@QAEXXZ" PURGE="0" COMMENT="" />
    <EXPORT ORDINAL="1027" NAME="?SeekToEnd@CIncrediFile@@QAEHXZ" PURGE="0" COMMENT="" />
    <EXPORT ORDINAL="1028" NAME="?SelectAndResizeImage@@YAHAAVCString@@HHAAH1PAVCWnd@@JH@Z" PURGE="0" COMMENT="" />
    <EXPORT ORDINAL="1029" NAME="?SelectTechnology@CWebDomain@@QAEXAAVCString@@@Z" PURGE="4" COMMENT="" />
    <EXPORT ORDINAL="1030" NAME="?SendAsyncProc@CImParams@@CGXPAUHWND__@@IKJ@Z" PURGE="16" COMMENT="" />
    <EXPORT ORDINAL="1031" NAME="?SendBlockedMessage@CImParams@@AAEXPAVCWnd@@II@Z" PURGE="12" COMMENT="" />
    <EXPORT ORDINAL="1032" NAME="?SeparateThousands@@YAX_JAAVCString@@@Z" PURGE="0" COMMENT="" />
    <EXPORT ORDINAL="1033" NAME="?Serialize@CCommandLine@@UAEXAAVCArchive@@@Z" PURGE="4" COMMENT="" />
    <EXPORT ORDINAL="1034" NAME="?SetAddonBinaryValue@CIncrediReg@@QAEJPBD0PAEK@Z" PURGE="16" COMMENT="" />
    <EXPORT ORDINAL="1035" NAME="?SetAddonName@CIncrediReg@@QAEXPBD@Z" PURGE="4" COMMENT="" />
    <EXPORT ORDINAL="1036" NAME="?SetAppName@CIncrediCustom@@QAEJABVCString@@@Z" PURGE="4" COMMENT="" />
    <EXPORT ORDINAL="1037" NAME="?SetAppServerURL@CIncrediCustom@@QAEJPBD@Z" PURGE="4" COMMENT="" />
    <EXPORT ORDINAL="1038" NAME="?SetAt@CIncrediPtrList@@QAEJPBDAAHAAJ@Z" PURGE="12" COMMENT="" />
    <EXPORT ORDINAL="1039" NAME="?SetAttribute@CImXml@@QAEJPAUIXMLDOMElement@@PBD1@Z" PURGE="12" COMMENT="" />
    <EXPORT ORDINAL="1040" NAME="?SetBinaryValue@CIncrediReg@@QAEJPBD0PAEK0@Z" PURGE="20" COMMENT="" />
    <EXPORT ORDINAL="1041" NAME="?SetBlockContentInfo@CContent@@QAEJPBD0PAVBlockContentInfo@@@Z" PURGE="12" COMMENT="" />
    <EXPORT ORDINAL="1042" NAME="?SetBlockContentInfo@CContent@@QAEJPBDPAVBlockContentInfo@@@Z" PURGE="8" COMMENT="" />
    <EXPORT ORDINAL="1043" NAME="?SetBlocked@CImParams@@QAEXH@Z" PURGE="4" COMMENT="" />
    <EXPORT ORDINAL="1044" NAME="?SetBonusContentsPage@CIncrediCustom@@QAEJPBD@Z" PURGE="4" COMMENT="" />
    <EXPORT ORDINAL="1045" NAME="?SetCabParams@CIncrediCompression@@IAEXPBD0@Z" PURGE="8" COMMENT="" />
    <EXPORT ORDINAL="1046" NAME="?SetCollectionNotNew@CContentDataTree@@QAEXPBD0@Z" PURGE="8" COMMENT="" />
    <EXPORT ORDINAL="1047" NAME="?SetCommonRegistry@CIncrediReg@@QAEXH@Z" PURGE="4" COMMENT="" />
    <EXPORT ORDINAL="1048" NAME="?SetCompressionType@CIncrediCompression@@QAEXH@Z" PURGE="4" COMMENT="" />
    <EXPORT ORDINAL="1049" NAME="?SetCookiesDomain@CIncrediCustom@@QAEJPBD@Z" PURGE="4" COMMENT="" />
    <EXPORT ORDINAL="1050" NAME="?SetCurrStamp@CIncrediCustom@@QAEJVCString@@H@Z" PURGE="8" COMMENT="" />
    <EXPORT ORDINAL="1051" NAME="?SetCurrUser@CIncrediReg@@QAEJPBD@Z" PURGE="4" COMMENT="" />
    <EXPORT ORDINAL="1052" NAME="?SetCurrUserEx@CIncrediReg@@QAEJPBDH@Z" PURGE="8" COMMENT="" />
    <EXPORT ORDINAL="1053" NAME="?SetCurrentLanguage@CIncrediReg@@QAEJGH@Z" PURGE="8" COMMENT="" />
    <EXPORT ORDINAL="1054" NAME="?SetCustomKey@CIncrediCustom@@QAEJPBD0@Z" PURGE="8" COMMENT="" />
    <EXPORT ORDINAL="1055" NAME="?SetDailyGalleryLink@CIncrediCustom@@QAEJABVCString@@@Z" PURGE="4" COMMENT="" />
    <EXPORT ORDINAL="1056" NAME="?SetDailyGalleryName@CIncrediCustom@@QAEJABVCString@@@Z" PURGE="4" COMMENT="" />
    <EXPORT ORDINAL="1057" NAME="?SetData@CValue@@QAEXPAEK@Z" PURGE="8" COMMENT="" />
    <EXPORT ORDINAL="1058" NAME="?SetDecodeBuffer@CBase64Coder@@UAEXQAEK@Z" PURGE="8" COMMENT="" />
    <EXPORT ORDINAL="1059" NAME="?SetDefaultActiveWindow@CIncrediMainWnd@@IAEXXZ" PURGE="0" COMMENT="" />
    <EXPORT ORDINAL="1060" NAME="?SetDefaultEmailClient@CIncrediReg@@QAEJPBDHH@Z" PURGE="12" COMMENT="" />
    <EXPORT ORDINAL="1061" NAME="?SetDownloadContentLink@CIncrediCustom@@QAEJABVCString@@@Z" PURGE="4" COMMENT="" />
    <EXPORT ORDINAL="1062" NAME="?SetEncodeBuffer@CBase64Coder@@UAEXQAEK@Z" PURGE="8" COMMENT="" />
    <EXPORT ORDINAL="1063" NAME="?SetFileReadOnly@@YAHPBDH@Z" PURGE="0" COMMENT="" />
    <EXPORT ORDINAL="1064" NAME="?SetGlobalBinaryValue@CIncrediReg@@QAEJPBD0PAEK@Z" PURGE="16" COMMENT="" />
    <EXPORT ORDINAL="1065" NAME="?SetGlobalLongValue@CIncrediReg@@QAEJPBD0K@Z" PURGE="12" COMMENT="" />
    <EXPORT ORDINAL="1066" NAME="?SetGlobalStringValue@CIncrediReg@@QAEJPBD0VCString@@@Z" PURGE="12" COMMENT="" />
    <EXPORT ORDINAL="1067" NAME="?SetHelpLink@CIncrediCustom@@QAEJABVCString@@@Z" PURGE="4" COMMENT="" />
    <EXPORT ORDINAL="1068" NAME="?SetHomeLink@CIncrediCustom@@QAEJABVCString@@@Z" PURGE="4" COMMENT="" />
    <EXPORT ORDINAL="1069" NAME="?SetHomeName@CIncrediCustom@@QAEJABVCString@@@Z" PURGE="4" COMMENT="" />
    <EXPORT ORDINAL="1070" NAME="?SetIdentityValidity@CIdentitiesManager@@QAEXPBDH@Z" PURGE="8" COMMENT="" />
    <EXPORT ORDINAL="1071" NAME="?SetIgnoreIdList@CContentDataTree@@QAEJAAVCStringArray@@@Z" PURGE="4" COMMENT="" />
    <EXPORT ORDINAL="1072" NAME="?SetIniBlockContentInfo@CContent@@QAEJPBDPAVBlockContentInfo@@@Z" PURGE="8" COMMENT="" />
    <EXPORT ORDINAL="1073" NAME="?SetInnerHTML@CIncrediHTMLParser@@QAEJABVCString@@0AAV2@@Z" PURGE="12" COMMENT="" />
    <EXPORT ORDINAL="1074" NAME="?SetKeyboardHook@CImHook@@QAEHXZ" PURGE="0" COMMENT="" />
    <EXPORT ORDINAL="1075" NAME="?SetLCSupportEmail@CIncrediCustom@@QAEJPBD@Z" PURGE="4" COMMENT="" />
    <EXPORT ORDINAL="1076" NAME="?SetLaunchOnStartup@CIncrediReg@@QAEXH@Z" PURGE="4" COMMENT="" />
    <EXPORT ORDINAL="1077" NAME="?SetLength@CIncrediMemFile@@UAEXK@Z" PURGE="4" COMMENT="" />
    <EXPORT ORDINAL="1078" NAME="?SetLongValue@CIncrediReg@@QAEJPBD0K0@Z" PURGE="16" COMMENT="" />
    <EXPORT ORDINAL="1079" NAME="?SetMoreInfoPage@CIncrediCustom@@QAEJPBD@Z" PURGE="4" COMMENT="" />
    <EXPORT ORDINAL="1080" NAME="?SetMouseHook@CImHook@@QAEHPAUHWND__@@PAUHICON__@@@Z" PURGE="8" COMMENT="" />
    <EXPORT ORDINAL="1081" NAME="?SetNewActiveWindow@CIncrediMainWnd@@IAEXXZ" PURGE="0" COMMENT="" />
    <EXPORT ORDINAL="1082" NAME="?SetOnlineGalleryLink@CIncrediCustom@@QAEJABVCString@@W4ContentType@@@Z" PURGE="8" COMMENT="" />
    <EXPORT ORDINAL="1083" NAME="?SetOnlineGalleryName@CIncrediCustom@@QAEJABVCString@@@Z" PURGE="4" COMMENT="" />
    <EXPORT ORDINAL="1084" NAME="?SetOption@CImFileDialog@@QAEXJH@Z" PURGE="8" COMMENT="" />
    <EXPORT ORDINAL="1085" NAME="?SetOption@CIncrediOptions@@QAEXJK@Z" PURGE="8" COMMENT="" />
    <EXPORT ORDINAL="1086" NAME="?SetOrderPage@CIncrediCustom@@QAEJPBD@Z" PURGE="4" COMMENT="" />
    <EXPORT ORDINAL="1087" NAME="?SetOutParam@@YAXPAHH@Z" PURGE="0" COMMENT="" />
    <EXPORT ORDINAL="1088" NAME="?SetOutParam@@YAXPAKK@Z" PURGE="0" COMMENT="" />
    <EXPORT ORDINAL="1089" NAME="?SetOutParam@@YAXPAPAUIUnknown@@PAU1@@Z" PURGE="0" COMMENT="" />
    <EXPORT ORDINAL="1090" NAME="?SetOutParam@@YAXPAVCString@@PBD@Z" PURGE="0" COMMENT="" />
    <EXPORT ORDINAL="1091" NAME="?SetPageLink@CIncrediCustom@@QAEJABVCString@@@Z" PURGE="4" COMMENT="" />
    <EXPORT ORDINAL="1092" NAME="?SetParam@CImParams@@QAEXHH@Z" PURGE="8" COMMENT="" />
    <EXPORT ORDINAL="1093" NAME="?SetParam@CImParams@@QAEXHK@Z" PURGE="8" COMMENT="" />
    <EXPORT ORDINAL="1094" NAME="?SetParam@CImParams@@QAEXHPAG@Z" PURGE="8" COMMENT="" />
    <EXPORT ORDINAL="1095" NAME="?SetParam@CImParams@@QAEXHPAUIUnknown@@@Z" PURGE="8" COMMENT="" />
    <EXPORT ORDINAL="1096" NAME="?SetParamOut@CImParams@@QAEXHPAH@Z" PURGE="8" COMMENT="" />
    <EXPORT ORDINAL="1097" NAME="?SetParamOut@CImParams@@QAEXHPAJ@Z" PURGE="8" COMMENT="" />
    <EXPORT ORDINAL="1098" NAME="?SetPassword@@YAJPBD0ABVCString@@0@Z" PURGE="0" COMMENT="" />
    <EXPORT ORDINAL="1099" NAME="?SetPaymentEmail@CIncrediCustom@@QAEJPBD@Z" PURGE="4" COMMENT="" />
    <EXPORT ORDINAL="1100" NAME="?SetPremiumName@CIncrediCustom@@QAEJPBD@Z" PURGE="4" COMMENT="" />
    <EXPORT ORDINAL="1101" NAME="?SetProfileBinaryValue@CIncrediReg@@QAEJPBD0PAEK@Z" PURGE="16" COMMENT="" />
    <EXPORT ORDINAL="1102" NAME="?SetProfileLongValue@CIncrediReg@@QAEJPBD0K@Z" PURGE="12" COMMENT="" />
    <EXPORT ORDINAL="1103" NAME="?SetProfileStringValue@CIncrediReg@@QAEJPBD0VCString@@@Z" PURGE="12" COMMENT="" />
    <EXPORT ORDINAL="1104" NAME="?SetPurchaseEmail@CIncrediCustom@@QAEJPBD@Z" PURGE="4" COMMENT="" />
    <EXPORT ORDINAL="1105" NAME="?SetPurchaseThanksPage@CIncrediCustom@@QAEJPBD@Z" PURGE="4" COMMENT="" />
    <EXPORT ORDINAL="1106" NAME="?SetRegBinaryValue@CIncrediReg@@QAEJPAUHKEY__@@PBD11PAEK@Z" PURGE="24" COMMENT="" />
    <EXPORT ORDINAL="1107" NAME="?SetRegLongValue@CIncrediReg@@QAEJPAUHKEY__@@PBD11K@Z" PURGE="20" COMMENT="" />
    <EXPORT ORDINAL="1108" NAME="?SetRegStringValue@CIncrediReg@@QAEJPAUHKEY__@@PBD111@Z" PURGE="20" COMMENT="" />
    <EXPORT ORDINAL="1109" NAME="?SetRegistrationStatus@CIncrediReg@@QAEJG@Z" PURGE="4" COMMENT="" />
    <EXPORT ORDINAL="1110" NAME="?SetRepackerStatus@CContent@@QAEXH@Z" PURGE="4" COMMENT="" />
    <EXPORT ORDINAL="1111" NAME="?SetResult@CImParams@@QAEXJ@Z" PURGE="4" COMMENT="" />
    <EXPORT ORDINAL="1112" NAME="?SetScrollBarSkinColors@CIncrediHTMLParser@@QAEXPAUIDispatch@@QAK@Z" PURGE="8" COMMENT="" />
    <EXPORT ORDINAL="1113" NAME="?SetSerial@CIncrediLicense@@QBEJPBD0J@Z" PURGE="12" COMMENT="" />
    <EXPORT ORDINAL="1114" NAME="?SetSlaveMode@CIncrediMainWnd@@QAEXPBD@Z" PURGE="4" COMMENT="" />
    <EXPORT ORDINAL="1115" NAME="?SetStatus@CContent@@QAEJPBD0W4StatusType@1@@Z" PURGE="12" COMMENT="" />
    <EXPORT ORDINAL="1116" NAME="?SetStringValue@CIncrediReg@@QAEJPBD0VCString@@0@Z" PURGE="16" COMMENT="" />
    <EXPORT ORDINAL="1117" NAME="?SetSupportEmail@CIncrediCustom@@QAEJPBD@Z" PURGE="4" COMMENT="" />
    <EXPORT ORDINAL="1118" NAME="?SetTellAFriendLink@CIncrediCustom@@QAEJABVCString@@@Z" PURGE="4" COMMENT="" />
    <EXPORT ORDINAL="1119" NAME="?SetTellAFriendLinkText@CIncrediCustom@@QAEJABVCString@@@Z" PURGE="4" COMMENT="" />
    <EXPORT ORDINAL="1120" NAME="?SetTimer@CIncrediTimer@@QAEKPAUHWND__@@NKPAUIUnknown@@@Z" PURGE="20" COMMENT="" />
    <EXPORT ORDINAL="1121" NAME="?SetTradeMark@CContent@@QAEJPBD00@Z" PURGE="12" COMMENT="" />
    <EXPORT ORDINAL="1122" NAME="?SetTradeMark@CContent@@QAEJPBD0AAVCString@@1@Z" PURGE="16" COMMENT="" />
    <EXPORT ORDINAL="1123" NAME="?SetTypeVersion@CContent@@QAEJPBD0@Z" PURGE="8" COMMENT="" />
    <EXPORT ORDINAL="1124" NAME="?SetUninstallPage@CIncrediCustom@@QAEJPBD@Z" PURGE="4" COMMENT="" />
    <EXPORT ORDINAL="1125" NAME="?SetUpgradeInfoPage@CIncrediCustom@@QAEJPBD@Z" PURGE="4" COMMENT="" />
    <EXPORT ORDINAL="1126" NAME="?SetVIPSupportEmail@CIncrediCustom@@QAEJPBD@Z" PURGE="4" COMMENT="" />
    <EXPORT ORDINAL="1127" NAME="?SetWorkingDirectory@CIncrediCompression@@QAEXPBD@Z" PURGE="4" COMMENT="" />
    <EXPORT ORDINAL="1128" NAME="?ShowStringIDs@@YAXAAVCString@@I@Z" PURGE="0" COMMENT="" />
    <EXPORT ORDINAL="1129" NAME="?SkipNewLines@CIncrediFile@@QAEXAAH@Z" PURGE="4" COMMENT="" />
    <EXPORT ORDINAL="1130" NAME="?Sort@CIncrediPtrList@@QAEJPBDJJ0@Z" PURGE="16" COMMENT="" />
    <EXPORT ORDINAL="1131" NAME="?SortFromFile@CIncrediPtrList@@AAEJJQAIH@Z" PURGE="12" COMMENT="" />
    <EXPORT ORDINAL="1132" NAME="?SplitFile@CContent@@IBEHPBDAAVCString@@1@Z" PURGE="12" COMMENT="" />
    <EXPORT ORDINAL="1133" NAME="?SpyEditPassword@CImHook@@QAEHPAUHWND__@@PAUHICON__@@@Z" PURGE="8" COMMENT="" />
    <EXPORT ORDINAL="1134" NAME="?Start@CIncrediTimer@@QAEHP6GXPAUHWND__@@IIK@Z@Z" PURGE="4" COMMENT="" />
    <EXPORT ORDINAL="1135" NAME="?Stop@CIncrediTimer@@QAEHXZ" PURGE="0" COMMENT="" />
    <EXPORT ORDINAL="1136" NAME="?StrTok@@YAPADPADPBD@Z" PURGE="0" COMMENT="" />
    <EXPORT ORDINAL="1137" NAME="?StringArrayToVariant@@YAJAAVCStringArray@@PAUtagVARIANT@@@Z" PURGE="0" COMMENT="" />
    <EXPORT ORDINAL="1138" NAME="?StringFromGuid@@YAJABU_GUID@@AAVCString@@H@Z" PURGE="0" COMMENT="" />
    <EXPORT ORDINAL="1139" NAME="?StringToRGB@@YAKAAVCString@@@Z" PURGE="0" COMMENT="" />
    <EXPORT ORDINAL="1140" NAME="?StringToVariant@@YAJVCString@@PAUtagVARIANT@@PBD@Z" PURGE="0" COMMENT="" />
    <EXPORT ORDINAL="1141" NAME="?TextHardWrap@CIncrediHTMLParser@@QAEJAAVCString@@@Z" PURGE="4" COMMENT="" />
    <EXPORT ORDINAL="1142" NAME="?TextToHTML@CIncrediHTMLParser@@QAEXAAVCString@@H@Z" PURGE="8" COMMENT="" />
    <EXPORT ORDINAL="1143" NAME="?TimerProc@CIncrediTimer@@QAEXPAUHWND__@@IIK@Z" PURGE="16" COMMENT="" />
    <EXPORT ORDINAL="1144" NAME="?ToggleOption@CIncrediOptions@@QAEXJ@Z" PURGE="4" COMMENT="" />
    <EXPORT ORDINAL="1145" NAME="?TrimString@@YAXAAVCString@@@Z" PURGE="0" COMMENT="" />
    <EXPORT ORDINAL="1146" NAME="?TrimStringTokens@@YAXAAVCString@@PBD@Z" PURGE="0" COMMENT="" />
    <EXPORT ORDINAL="1147" NAME="?UndoDefaultEmailClient@CIncrediReg@@QAEJXZ" PURGE="0" COMMENT="" />
    <EXPORT ORDINAL="1148" NAME="?UndoIdleMessages@CImHook@@QAEXPAUHWND__@@@Z" PURGE="4" COMMENT="" />
    <EXPORT ORDINAL="1149" NAME="?Unpack@CContent@@QAEJPBD0AAVCStringArray@@PAVCStringList@@@Z" PURGE="16" COMMENT="" />
    <EXPORT ORDINAL="1150" NAME="?UnregisterApplication@CIncrediWinApp@@QAEXXZ" PURGE="0" COMMENT="" />
    <EXPORT ORDINAL="1151" NAME="?UnregisterGlobal@CIncrediGlobals@@QAEXPBD@Z" PURGE="4" COMMENT="" />
    <EXPORT ORDINAL="1152" NAME="?UpdateFromId@CIncrediPtrList@@QAEJPBDQA_JH1H@Z" PURGE="20" COMMENT="" />
    <EXPORT ORDINAL="1153" NAME="?UpdateFromReg@CContentDataTree@@QAEJXZ" PURGE="0" COMMENT="" />
    <EXPORT ORDINAL="1154" NAME="?UpdateLicenseFile@CIncrediLicense@@QAEJPBDQA_JH1H@Z" PURGE="20" COMMENT="" />
    <EXPORT ORDINAL="1155" NAME="?UpdateSystemIds@CIncrediLicense@@QAEJXZ" PURGE="0" COMMENT="" />
    <EXPORT ORDINAL="1156" NAME="?UpdateVersionNumber@CContent@@AAEXPBD@Z" PURGE="4" COMMENT="" />
    <EXPORT ORDINAL="1157" NAME="?UpgradeSpellingData@CIncrediReg@@QAEXXZ" PURGE="0" COMMENT="" />
    <EXPORT ORDINAL="1158" NAME="?ValidateEmailAddress@@YAHAAVCString@@@Z" PURGE="0" COMMENT="" />
    <EXPORT ORDINAL="1159" NAME="?ValidateExpirationDate@CIncrediLicense@@AAEJJ@Z" PURGE="4" COMMENT="" />
    <EXPORT ORDINAL="1160" NAME="?ValidateFileName@@YAXAAVCString@@_N@Z" PURGE="0" COMMENT="" />
    <EXPORT ORDINAL="1161" NAME="?ValidateFileName@CIncrediFile@@IAEXAAVCString@@@Z" PURGE="4" COMMENT="" />
    <EXPORT ORDINAL="1162" NAME="?ValidateLanguage@CIncrediReg@@AAEKK@Z" PURGE="4" COMMENT="" />
    <EXPORT ORDINAL="1163" NAME="?ValidateMemory@CIncrediPtrList@@ABEJJ@Z" PURGE="4" COMMENT="" />
    <EXPORT ORDINAL="1164" NAME="?ValidateServerName@@YAHAAVCString@@@Z" PURGE="0" COMMENT="" />
    <EXPORT ORDINAL="1165" NAME="?ValidateWindowLocation@@YA?AVCSize@@AAUtagRECT@@AAV1@@Z" PURGE="0" COMMENT="" />
    <EXPORT ORDINAL="1166" NAME="?VariantToDWordArray@@YAJAAUtagVARIANT@@AAVCDWordArray@@@Z" PURGE="0" COMMENT="" />
    <EXPORT ORDINAL="1167" NAME="?VariantToStringArray@@YAJAAUtagVARIANT@@AAVCStringArray@@@Z" PURGE="0" COMMENT="" />
    <EXPORT ORDINAL="1168" NAME="?WideCharToMultiByte@@YAHPAGAAPAD@Z" PURGE="0" COMMENT="" />
    <EXPORT ORDINAL="1169" NAME="?WindowFromHandle@@YAPAVCWnd@@K@Z" PURGE="0" COMMENT="" />
    <EXPORT ORDINAL="1170" NAME="?Write@CIncrediFile@@UAEIPBXI@Z" PURGE="8" COMMENT="" />
    <EXPORT ORDINAL="1171" NAME="?Write@CIncrediMemFile@@UAEIPBXI@Z" PURGE="8" COMMENT="" />
    <EXPORT ORDINAL="1172" NAME="?WriteData@CContentDataTree@@QAEJXZ" PURGE="0" COMMENT="" />
    <EXPORT ORDINAL="1173" NAME="?WriteDataLines@CContentDataTree@@QAEJAAVCString@@AAVCArchive@@@Z" PURGE="8" COMMENT="" />
    <EXPORT ORDINAL="1174" NAME="?WriteString@CIncrediFile@@QAEIABVCString@@@Z" PURGE="4" COMMENT="" />
    <EXPORT ORDINAL="1175" NAME="?_DecodeRaw@CBase64Coder@@MAEXAAVTempBucket@1@ABV21@@Z" PURGE="8" COMMENT="" />
    <EXPORT ORDINAL="1176" NAME="?_DecodeToBuffer@CBase64Coder@@MAEKABVTempBucket@1@PAE@Z" PURGE="8" COMMENT="" />
    <EXPORT ORDINAL="1177" NAME="?_EncodeRaw@CBase64Coder@@MAEXAAVTempBucket@1@ABV21@@Z" PURGE="8" COMMENT="" />
    <EXPORT ORDINAL="1178" NAME="?_EncodeToBuffer@CBase64Coder@@MAEXABVTempBucket@1@PAE@Z" PURGE="8" COMMENT="" />
    <EXPORT ORDINAL="1179" NAME="?_GetBaseClass@CCommandLine@@KGPAUCRuntimeClass@@XZ" PURGE="0" COMMENT="" />
    <EXPORT ORDINAL="1180" NAME="?_GetBaseClass@CIncrediMainWnd@@KGPAUCRuntimeClass@@XZ" PURGE="0" COMMENT="" />
    <EXPORT ORDINAL="1181" NAME="?_GetBaseClass@CIncrediResApp@@KGPAUCRuntimeClass@@XZ" PURGE="0" COMMENT="" />
    <EXPORT ORDINAL="1182" NAME="?_GetBaseClass@CIncrediWinApp@@KGPAUCRuntimeClass@@XZ" PURGE="0" COMMENT="" />
    <EXPORT ORDINAL="1183" NAME="?_GetBaseMessageMap@CImFileDialog@@KGPBUAFX_MSGMAP@@XZ" PURGE="0" COMMENT="" />
    <EXPORT ORDINAL="1184" NAME="?_GetBaseMessageMap@CIncrediMainWnd@@KGPBUAFX_MSGMAP@@XZ" PURGE="0" COMMENT="" />
    <EXPORT ORDINAL="1185" NAME="?_GetBaseMessageMap@CIncrediResApp@@KGPBUAFX_MSGMAP@@XZ" PURGE="0" COMMENT="" />
    <EXPORT ORDINAL="1186" NAME="?_GetBaseMessageMap@CIncrediWinApp@@KGPBUAFX_MSGMAP@@XZ" PURGE="0" COMMENT="" />
    <EXPORT ORDINAL="1187" NAME="?_Init@CBase64Coder@@IAEXXZ" PURGE="0" COMMENT="" />
    <EXPORT ORDINAL="1188" NAME="?_IsBadMimeChar@CBase64Coder@@MAEHE@Z" PURGE="4" COMMENT="" />
    <EXPORT ORDINAL="1189" NAME="?_messageEntries@CImFileDialog@@0QBUAFX_MSGMAP_ENTRY@@B" PURGE="-1" COMMENT="" />
    <EXPORT ORDINAL="1190" NAME="?_messageEntries@CIncrediMainWnd@@0QBUAFX_MSGMAP_ENTRY@@B" PURGE="-1" COMMENT="" />
    <EXPORT ORDINAL="1191" NAME="?_messageEntries@CIncrediResApp@@0QBUAFX_MSGMAP_ENTRY@@B" PURGE="-1" COMMENT="" />
    <EXPORT ORDINAL="1192" NAME="?_messageEntries@CIncrediWinApp@@0QBUAFX_MSGMAP_ENTRY@@B" PURGE="-1" COMMENT="" />
    <EXPORT ORDINAL="1193" NAME="?classCCommandLine@CCommandLine@@2UCRuntimeClass@@A" PURGE="-1" COMMENT="" />
    <EXPORT ORDINAL="1194" NAME="?classCIncrediMainWnd@CIncrediMainWnd@@2UCRuntimeClass@@B" PURGE="-1" COMMENT="" />
    <EXPORT ORDINAL="1195" NAME="?classCIncrediResApp@CIncrediResApp@@2UCRuntimeClass@@B" PURGE="-1" COMMENT="" />
    <EXPORT ORDINAL="1196" NAME="?classCIncrediWinApp@CIncrediWinApp@@2UCRuntimeClass@@B" PURGE="-1" COMMENT="" />
    <EXPORT ORDINAL="1197" NAME="?isNeedPainting@CImFileDialog@@AAEHXZ" PURGE="0" COMMENT="" />
    <EXPORT ORDINAL="1198" NAME="?mProgressWnd@CIncrediCompression@@2PAUHWND__@@A" PURGE="-1" COMMENT="" />
    <EXPORT ORDINAL="1199" NAME="?m_DecodeTable@CBase64Coder@@1PADA" PURGE="-1" COMMENT="" />
    <EXPORT ORDINAL="1200" NAME="?m_IdleWndArr@CImHook@@1VCPtrArray@@A" PURGE="-1" COMMENT="" />
    <EXPORT ORDINAL="1201" NAME="?m_IncrediIDs@CIncrediHTMLParser@@0V?$CList@VCString@@AAV1@@@A" PURGE="-1" COMMENT="" />
    <EXPORT ORDINAL="1202" NAME="?m_Init@CBase64Coder@@1HA" PURGE="-1" COMMENT="" />
    <EXPORT ORDINAL="1203" NAME="?m_bIdle@CImHook@@1HA" PURGE="-1" COMMENT="" />
    <EXPORT ORDINAL="1204" NAME="?m_cabParams@CIncrediCompression@@2UCCAB@@A" PURGE="-1" COMMENT="" />
    <EXPORT ORDINAL="1205" NAME="?m_hIdleHook@CImHook@@1PAUHHOOK__@@A" PURGE="-1" COMMENT="" />
    <EXPORT ORDINAL="1206" NAME="?m_hMsgHook@CImHook@@1PAUHHOOK__@@A" PURGE="-1" COMMENT="" />
    <EXPORT ORDINAL="1207" NAME="?m_pWinApp@CImHook@@1PAVCWinApp@@A" PURGE="-1" COMMENT="" />
    <EXPORT ORDINAL="1208" NAME="?m_szTempDir@CIncrediCompression@@2VCString@@A" PURGE="-1" COMMENT="" />
    <EXPORT ORDINAL="1209" NAME="?m_theInstance@CIncrediReg@@0PAV1@A" PURGE="-1" COMMENT="" />
    <EXPORT ORDINAL="1210" NAME="?messageMap@CImFileDialog@@1UAFX_MSGMAP@@B" PURGE="-1" COMMENT="" />
    <EXPORT ORDINAL="1211" NAME="?messageMap@CIncrediMainWnd@@1UAFX_MSGMAP@@B" PURGE="-1" COMMENT="" />
    <EXPORT ORDINAL="1212" NAME="?messageMap@CIncrediResApp@@1UAFX_MSGMAP@@B" PURGE="-1" COMMENT="" />
    <EXPORT ORDINAL="1213" NAME="?messageMap@CIncrediWinApp@@1UAFX_MSGMAP@@B" PURGE="-1" COMMENT="" />
    <EXPORT ORDINAL="1214" NAME="?sThis@CIncrediError@@1PAV1@A" PURGE="-1" COMMENT="" />
    <EXPORT ORDINAL="1215" NAME="?sThis@CIncrediGC@@1PAV1@A" PURGE="-1" COMMENT="" />
    <EXPORT ORDINAL="1216" NAME="?sThis@CIncrediGlobals@@1PAV1@A" PURGE="-1" COMMENT="" />
    <EXPORT ORDINAL="1217" NAME="?sThis@CIncrediLicense@@0PAV1@A" PURGE="-1" COMMENT="" />
    <EXPORT ORDINAL="1218" NAME="?sThis@CIncrediOptions@@1PAV1@A" PURGE="-1" COMMENT="" />
    <EXPORT ORDINAL="1219" NAME="?sThis@CIncrediPtrList@@0PAV1@A" PURGE="-1" COMMENT="" />
    <EXPORT ORDINAL="1220" NAME="?sThis@CIncrediRules@@0PAV1@A" PURGE="-1" COMMENT="" />
    <EXPORT ORDINAL="1221" NAME="?sThis@CIncrediScale@@0PAV1@A" PURGE="-1" COMMENT="" />
    <EXPORT ORDINAL="1222" NAME="?sThis@CIncrediTimer@@1PAV1@A" PURGE="-1" COMMENT="" />
</LIBRARY>

