<?xml version="1.0" encoding="UTF-8"?>
<LIBRARY NAME="ix86_pe.dll" PATH="/DLLArchive/etc/Ix86_PE.dll" DATE="Sun Feb 06 19:31:40 PST 2005" VERSION="">
    <EXPORT ORDINAL="1" NAME="BDASMGetDecoderInterface" PURGE="0" COMMENT="" />
    <EXPORT ORDINAL="2" NAME="BDASMGetFormatInterface" PURGE="0" COMMENT="" />
    <EXPORT ORDINAL="3" NAME="??0I_CPEReader@@QAE@ABV0@@Z" PURGE="4" COMMENT="" />
    <EXPORT ORDINAL="4" NAME="??0I_CPEReader@@QAE@XZ" PURGE="0" COMMENT="" />
    <EXPORT ORDINAL="5" NAME="??0I_CPUx86Decoder@@QAE@ABV0@@Z" PURGE="4" COMMENT="" />
    <EXPORT ORDINAL="6" NAME="??0I_CPUx86Decoder@@QAE@XZ" PURGE="0" COMMENT="" />
    <EXPORT ORDINAL="7" NAME="??1I_CPEReader@@QAE@XZ" PURGE="0" COMMENT="" />
    <EXPORT ORDINAL="8" NAME="??1I_CPUx86Decoder@@QAE@XZ" PURGE="0" COMMENT="" />
    <EXPORT ORDINAL="9" NAME="??4I_CPEReader@@QAEAAV0@ABV0@@Z" PURGE="4" COMMENT="" />
    <EXPORT ORDINAL="10" NAME="??4I_CPUx86Decoder@@QAEAAV0@ABV0@@Z" PURGE="4" COMMENT="" />
    <EXPORT ORDINAL="11" NAME="??_7I_CPEReader@@6B@" PURGE="-1" COMMENT="" />
    <EXPORT ORDINAL="12" NAME="??_7I_CPUx86Decoder@@6B@" PURGE="-1" COMMENT="" />
    <EXPORT ORDINAL="13" NAME="?AnalizeBuffer@I_CPUx86Decoder@@IAEKPAE@Z" PURGE="4" COMMENT="" />
    <EXPORT ORDINAL="14" NAME="?BuildExportList@I_CPEReader@@UAEHXZ" PURGE="0" COMMENT="" />
    <EXPORT ORDINAL="15" NAME="?BuildImportList@I_CPEReader@@UAEHXZ" PURGE="0" COMMENT="" />
    <EXPORT ORDINAL="16" NAME="?Close@I_CPEReader@@UAEHXZ" PURGE="0" COMMENT="" />
    <EXPORT ORDINAL="17" NAME="?CollectSymbols@I_CPEReader@@UAEHPAVI_CSymbolCollection@@@Z" PURGE="4" COMMENT="" />
    <EXPORT ORDINAL="18" NAME="?Decode@I_CPUx86Decoder@@UAEHPAX@Z" PURGE="4" COMMENT="" />
    <EXPORT ORDINAL="19" NAME="?DecodeFrom@I_CPUx86Decoder@@UAEHPAEPAX@Z" PURGE="8" COMMENT="" />
    <EXPORT ORDINAL="20" NAME="?DecodeModRM@I_CPUx86Decoder@@AAIXXZ" PURGE="0" COMMENT="" />
    <EXPORT ORDINAL="21" NAME="?DecodeModRM_ProcessMode@I_CPUx86Decoder@@AAEXXZ" PURGE="-1" COMMENT="" />
    <EXPORT ORDINAL="22" NAME="?DecodeMode0_Addr@I_CPUx86Decoder@@AAEXE@Z" PURGE="4" COMMENT="" />
    <EXPORT ORDINAL="23" NAME="?DecodeMode1_Addr@I_CPUx86Decoder@@AAEXE@Z" PURGE="4" COMMENT="" />
    <EXPORT ORDINAL="24" NAME="?DecodeMode2_Addr@I_CPUx86Decoder@@AAEXE@Z" PURGE="4" COMMENT="" />
    <EXPORT ORDINAL="25" NAME="?DecodeMode3_Addr@I_CPUx86Decoder@@AAEXE@Z" PURGE="4" COMMENT="" />
    <EXPORT ORDINAL="26" NAME="?Decode_0F@I_CPUx86Decoder@@AAEXXZ" PURGE="0" COMMENT="" />
    <EXPORT ORDINAL="27" NAME="?Decode_0F_00@I_CPUx86Decoder@@AAEXXZ" PURGE="-1" COMMENT="" />
    <EXPORT ORDINAL="28" NAME="?Decode_0F_01@I_CPUx86Decoder@@AAEXXZ" PURGE="0" COMMENT="" />
    <EXPORT ORDINAL="29" NAME="?Decode_0F_02@I_CPUx86Decoder@@AAEXXZ" PURGE="-1" COMMENT="" />
    <EXPORT ORDINAL="30" NAME="?Decode_0F_03@I_CPUx86Decoder@@AAEXXZ" PURGE="-1" COMMENT="" />
    <EXPORT ORDINAL="31" NAME="?Decode_0F_06@I_CPUx86Decoder@@AAEXXZ" PURGE="0" COMMENT="" />
    <EXPORT ORDINAL="32" NAME="?Decode_0F_07@I_CPUx86Decoder@@AAEXXZ" PURGE="0" COMMENT="" />
    <EXPORT ORDINAL="33" NAME="?Decode_0F_08@I_CPUx86Decoder@@AAEXXZ" PURGE="0" COMMENT="" />
    <EXPORT ORDINAL="34" NAME="?Decode_0F_09@I_CPUx86Decoder@@AAEXXZ" PURGE="0" COMMENT="" />
    <EXPORT ORDINAL="35" NAME="?Decode_0F_0B@I_CPUx86Decoder@@AAEXXZ" PURGE="0" COMMENT="" />
    <EXPORT ORDINAL="36" NAME="?Decode_0F_0D@I_CPUx86Decoder@@AAEXXZ" PURGE="0" COMMENT="" />
    <EXPORT ORDINAL="37" NAME="?Decode_0F_0E@I_CPUx86Decoder@@AAEXXZ" PURGE="0" COMMENT="" />
    <EXPORT ORDINAL="38" NAME="?Decode_0F_0F@I_CPUx86Decoder@@AAEXXZ" PURGE="0" COMMENT="" />
    <EXPORT ORDINAL="39" NAME="?Decode_0F_10to13@I_CPUx86Decoder@@AAEXXZ" PURGE="-1" COMMENT="" />
    <EXPORT ORDINAL="40" NAME="?Decode_0F_18_SIMD@I_CPUx86Decoder@@AAEXXZ" PURGE="0" COMMENT="" />
    <EXPORT ORDINAL="41" NAME="?Decode_0F_20to23@I_CPUx86Decoder@@AAEXXZ" PURGE="0" COMMENT="" />
    <EXPORT ORDINAL="42" NAME="?Decode_0F_30@I_CPUx86Decoder@@AAEXXZ" PURGE="0" COMMENT="" />
    <EXPORT ORDINAL="43" NAME="?Decode_0F_31@I_CPUx86Decoder@@AAEXXZ" PURGE="0" COMMENT="" />
    <EXPORT ORDINAL="44" NAME="?Decode_0F_32@I_CPUx86Decoder@@AAEXXZ" PURGE="0" COMMENT="" />
    <EXPORT ORDINAL="45" NAME="?Decode_0F_33@I_CPUx86Decoder@@AAEXXZ" PURGE="0" COMMENT="" />
    <EXPORT ORDINAL="46" NAME="?Decode_0F_34@I_CPUx86Decoder@@AAEXXZ" PURGE="0" COMMENT="" />
    <EXPORT ORDINAL="47" NAME="?Decode_0F_35@I_CPUx86Decoder@@AAEXXZ" PURGE="0" COMMENT="" />
    <EXPORT ORDINAL="48" NAME="?Decode_0F_40to4F@I_CPUx86Decoder@@AAEXXZ" PURGE="-1" COMMENT="" />
    <EXPORT ORDINAL="49" NAME="?Decode_0F_77@I_CPUx86Decoder@@AAEXXZ" PURGE="0" COMMENT="" />
    <EXPORT ORDINAL="50" NAME="?Decode_0F_80to8F@I_CPUx86Decoder@@AAEXXZ" PURGE="-1" COMMENT="" />
    <EXPORT ORDINAL="51" NAME="?Decode_0F_90to9F@I_CPUx86Decoder@@AAEXXZ" PURGE="-1" COMMENT="" />
    <EXPORT ORDINAL="52" NAME="?Decode_0F_A0toA2@I_CPUx86Decoder@@AAEXXZ" PURGE="0" COMMENT="" />
    <EXPORT ORDINAL="53" NAME="?Decode_0F_A3@I_CPUx86Decoder@@AAEXXZ" PURGE="-1" COMMENT="" />
    <EXPORT ORDINAL="54" NAME="?Decode_0F_A4@I_CPUx86Decoder@@AAEXXZ" PURGE="-1" COMMENT="" />
    <EXPORT ORDINAL="55" NAME="?Decode_0F_A5@I_CPUx86Decoder@@AAEXXZ" PURGE="-1" COMMENT="" />
    <EXPORT ORDINAL="56" NAME="?Decode_0F_A8toAA@I_CPUx86Decoder@@AAEXXZ" PURGE="0" COMMENT="" />
    <EXPORT ORDINAL="57" NAME="?Decode_0F_ABtoB7@I_CPUx86Decoder@@AAEXXZ" PURGE="-1" COMMENT="" />
    <EXPORT ORDINAL="58" NAME="?Decode_0F_AE@I_CPUx86Decoder@@AAEXXZ" PURGE="-1" COMMENT="" />
    <EXPORT ORDINAL="59" NAME="?Decode_0F_BAtoC1@I_CPUx86Decoder@@AAEXXZ" PURGE="-1" COMMENT="" />
    <EXPORT ORDINAL="60" NAME="?Decode_0F_C7@I_CPUx86Decoder@@AAEXXZ" PURGE="-1" COMMENT="" />
    <EXPORT ORDINAL="61" NAME="?Decode_0F_C8toCF@I_CPUx86Decoder@@AAEXXZ" PURGE="-1" COMMENT="" />
    <EXPORT ORDINAL="62" NAME="?Decode_0F_FF@I_CPUx86Decoder@@AAEXXZ" PURGE="0" COMMENT="" />
    <EXPORT ORDINAL="63" NAME="?Decode_0F_Generic@I_CPUx86Decoder@@AAEXXZ" PURGE="-1" COMMENT="" />
    <EXPORT ORDINAL="64" NAME="?Decode_0F_SIMD@I_CPUx86Decoder@@AAEXXZ" PURGE="0" COMMENT="" />
    <EXPORT ORDINAL="65" NAME="?Decode_0F_SIMD_Only66@I_CPUx86Decoder@@AAEXXZ" PURGE="0" COMMENT="" />
    <EXPORT ORDINAL="66" NAME="?Decode_0F_Unknown@I_CPUx86Decoder@@AAEXXZ" PURGE="0" COMMENT="" />
    <EXPORT ORDINAL="67" NAME="?Decode_68@I_CPUx86Decoder@@AAEXXZ" PURGE="0" COMMENT="" />
    <EXPORT ORDINAL="68" NAME="?Decode_69@I_CPUx86Decoder@@AAEXXZ" PURGE="0" COMMENT="" />
    <EXPORT ORDINAL="69" NAME="?Decode_6A@I_CPUx86Decoder@@AAEXXZ" PURGE="0" COMMENT="" />
    <EXPORT ORDINAL="70" NAME="?Decode_6B@I_CPUx86Decoder@@AAEXXZ" PURGE="-1" COMMENT="" />
    <EXPORT ORDINAL="71" NAME="?Decode_8C@I_CPUx86Decoder@@AAEXXZ" PURGE="0" COMMENT="" />
    <EXPORT ORDINAL="72" NAME="?Decode_90@I_CPUx86Decoder@@AAEXXZ" PURGE="0" COMMENT="" />
    <EXPORT ORDINAL="73" NAME="?Decode_A0@I_CPUx86Decoder@@AAEXXZ" PURGE="0" COMMENT="" />
    <EXPORT ORDINAL="74" NAME="?Decode_CA@I_CPUx86Decoder@@AAEXXZ" PURGE="0" COMMENT="" />
    <EXPORT ORDINAL="75" NAME="?Decode_F2@I_CPUx86Decoder@@AAEXXZ" PURGE="0" COMMENT="" />
    <EXPORT ORDINAL="76" NAME="?Decode_F3@I_CPUx86Decoder@@AAEXXZ" PURGE="0" COMMENT="" />
    <EXPORT ORDINAL="77" NAME="?Decode_F6_F7@I_CPUx86Decoder@@AAEXXZ" PURGE="0" COMMENT="" />
    <EXPORT ORDINAL="78" NAME="?Decode_FE@I_CPUx86Decoder@@AAEXXZ" PURGE="0" COMMENT="" />
    <EXPORT ORDINAL="79" NAME="?Decode_FF@I_CPUx86Decoder@@AAEXXZ" PURGE="0" COMMENT="" />
    <EXPORT ORDINAL="80" NAME="?DisplayExtendedInfo@I_CPEReader@@UAEHPAUHWND__@@@Z" PURGE="4" COMMENT="" />
    <EXPORT ORDINAL="81" NAME="?EmitDataBytes@I_CPUx86Decoder@@AAEXPAE0@Z" PURGE="8" COMMENT="" />
    <EXPORT ORDINAL="82" NAME="?EnableExInstructions@I_CPUx86Decoder@@UAEXH@Z" PURGE="4" COMMENT="" />
    <EXPORT ORDINAL="83" NAME="?EnableSIMD@I_CPUx86Decoder@@AAEXH@Z" PURGE="4" COMMENT="" />
    <EXPORT ORDINAL="84" NAME="?GetCPUCapabilities@I_CPUx86Decoder@@UAEKXZ" PURGE="0" COMMENT="" />
    <EXPORT ORDINAL="85" NAME="?GetDOSHeader@I_CPEReader@@IAEQAU_IMAGE_DOS_HEADER@@XZ" PURGE="0" COMMENT="" />
    <EXPORT ORDINAL="86" NAME="?GetDebugHeader@I_CPEReader@@AAEPAU_IMAGE_COFF_SYMBOLS_HEADER@@XZ" PURGE="0" COMMENT="" />
    <EXPORT ORDINAL="87" NAME="?GetDescription@I_CPEReader@@UAEXPADH@Z" PURGE="8" COMMENT="" />
    <EXPORT ORDINAL="88" NAME="?GetDescription@I_CPUx86Decoder@@UAEXPADH@Z" PURGE="8" COMMENT="" />
    <EXPORT ORDINAL="89" NAME="?GetEPSection@I_CPEReader@@IAEPAU_IMAGE_SECTION_HEADER@@XZ" PURGE="0" COMMENT="" />
    <EXPORT ORDINAL="90" NAME="?GetEntryPoint@I_CPEReader@@UAEKXZ" PURGE="0" COMMENT="" />
    <EXPORT ORDINAL="91" NAME="?GetFileExtensions@I_CPEReader@@UAEXPADH@Z" PURGE="8" COMMENT="" />
    <EXPORT ORDINAL="92" NAME="?GetFirstSection@I_CPEReader@@IAEPAU_IMAGE_SECTION_HEADER@@XZ" PURGE="0" COMMENT="" />
    <EXPORT ORDINAL="93" NAME="?GetImageBase@I_CPEReader@@UAEKXZ" PURGE="0" COMMENT="" />
    <EXPORT ORDINAL="94" NAME="?GetImm16@I_CPUx86Decoder@@AAEPAGPAE@Z" PURGE="4" COMMENT="" />
    <EXPORT ORDINAL="95" NAME="?GetImm32@I_CPUx86Decoder@@AAEPAKPAE@Z" PURGE="4" COMMENT="" />
    <EXPORT ORDINAL="96" NAME="?GetImm8@I_CPUx86Decoder@@AAEPAEPAE@Z" PURGE="4" COMMENT="" />
    <EXPORT ORDINAL="97" NAME="?GetPEHeader@I_CPEReader@@IAEQAU_IMAGE_NT_HEADERS@@XZ" PURGE="0" COMMENT="" />
    <EXPORT ORDINAL="98" NAME="?GetPtrToMappedFileClass@I_CPEReader@@IAEPAVCMappedFile@@XZ" PURGE="0" COMMENT="" />
    <EXPORT ORDINAL="99" NAME="?GetSectionByIndex@I_CPEReader@@IAEPAU_IMAGE_SECTION_HEADER@@K@Z" PURGE="4" COMMENT="" />
    <EXPORT ORDINAL="100" NAME="?GetSectionByName@I_CPEReader@@AAEPAU_IMAGE_SECTION_HEADER@@PAD@Z" PURGE="4" COMMENT="" />
    <EXPORT ORDINAL="101" NAME="?GetSectionCount@I_CPEReader@@IAEGXZ" PURGE="0" COMMENT="" />
    <EXPORT ORDINAL="102" NAME="?GetSectionIndexByAddress@I_CPEReader@@IAEJK@Z" PURGE="4" COMMENT="" />
    <EXPORT ORDINAL="103" NAME="?GetSectionVA@I_CPEReader@@IAEKPAU_IMAGE_SECTION_HEADER@@@Z" PURGE="4" COMMENT="" />
    <EXPORT ORDINAL="104" NAME="?GetSegmentEP@I_CPEReader@@UAEPBUBDASMSegment@@XZ" PURGE="0" COMMENT="" />
    <EXPORT ORDINAL="105" NAME="?GetSizeOfImage@I_CPEReader@@UAEKXZ" PURGE="0" COMMENT="" />
    <EXPORT ORDINAL="106" NAME="?GetSymbolName@I_CPEReader@@IAEPBDPAU_IMAGE_SYMBOL@@@Z" PURGE="4" COMMENT="" />
    <EXPORT ORDINAL="107" NAME="?Init@I_CPEReader@@UAEHPAVI_CCPUDecoder@@@Z" PURGE="4" COMMENT="" />
    <EXPORT ORDINAL="108" NAME="?InsertSegment@I_CPEReader@@IAEHAAUBDASMSegment@@@Z" PURGE="4" COMMENT="" />
    <EXPORT ORDINAL="109" NAME="?IsSIMDEnabled@I_CPUx86Decoder@@AAEHXZ" PURGE="0" COMMENT="" />
    <EXPORT ORDINAL="110" NAME="?IsValidFormat@I_CPEReader@@UAEHPAD@Z" PURGE="4" COMMENT="" />
    <EXPORT ORDINAL="111" NAME="?MakeSegments@I_CPEReader@@UAEHXZ" PURGE="0" COMMENT="" />
    <EXPORT ORDINAL="112" NAME="?Open@I_CPEReader@@UAEHPAD@Z" PURGE="4" COMMENT="" />
    <EXPORT ORDINAL="113" NAME="?ParseCOFFSymbols@I_CPEReader@@QAEHPAVI_CSymbolCollection@@@Z" PURGE="4" COMMENT="" />
    <EXPORT ORDINAL="114" NAME="?PreProcess@I_CPUx86Decoder@@UAEHXZ" PURGE="0" COMMENT="" />
    <EXPORT ORDINAL="115" NAME="?PreProcessMode0_Addr@I_CPUx86Decoder@@AAEXE@Z" PURGE="4" COMMENT="" />
    <EXPORT ORDINAL="116" NAME="?PreProcessMode1_Addr@I_CPUx86Decoder@@AAEXE@Z" PURGE="4" COMMENT="" />
    <EXPORT ORDINAL="117" NAME="?PreProcessMode2_Addr@I_CPUx86Decoder@@AAEXE@Z" PURGE="4" COMMENT="" />
    <EXPORT ORDINAL="118" NAME="?PreProcessMode3_Addr@I_CPUx86Decoder@@AAEXE@Z" PURGE="4" COMMENT="" />
    <EXPORT ORDINAL="119" NAME="?PrepareToDecode@I_CPUx86Decoder@@UAEHEKPAE@Z" PURGE="12" COMMENT="" />
    <EXPORT ORDINAL="120" NAME="?ProcessMode_imm8@I_CPUx86Decoder@@AAEXXZ" PURGE="0" COMMENT="" />
    <EXPORT ORDINAL="121" NAME="?Process_JumpRel8@I_CPUx86Decoder@@AAEXXZ" PURGE="0" COMMENT="" />
    <EXPORT ORDINAL="122" NAME="?Process_OneByteOpcodes@I_CPUx86Decoder@@AAEXXZ" PURGE="0" COMMENT="" />
    <EXPORT ORDINAL="123" NAME="?Process_RET_IRET@I_CPUx86Decoder@@AAEXXZ" PURGE="0" COMMENT="" />
    <EXPORT ORDINAL="124" NAME="?Process_SegmentOverride@I_CPUx86Decoder@@AAEXXZ" PURGE="0" COMMENT="" />
    <EXPORT ORDINAL="125" NAME="?Process_imm1632_others@I_CPUx86Decoder@@AAEXXZ" PURGE="-1" COMMENT="" />
    <EXPORT ORDINAL="126" NAME="?Process_rm8_imm8@I_CPUx86Decoder@@AAEXXZ" PURGE="0" COMMENT="" />
    <EXPORT ORDINAL="127" NAME="?RVAToOffset@I_CPEReader@@QAEKK@Z" PURGE="4" COMMENT="" />
    <EXPORT ORDINAL="128" NAME="?Release@I_CPEReader@@UAEXXZ" PURGE="0" COMMENT="" />
    <EXPORT ORDINAL="129" NAME="?Release@I_CPUx86Decoder@@UAEXXZ" PURGE="0" COMMENT="" />
    <EXPORT ORDINAL="130" NAME="?SetProcessMode@I_CPUx86Decoder@@UAEHE@Z" PURGE="4" COMMENT="" />
    <EXPORT ORDINAL="131" NAME="?preprocess_AL_imm8@I_CPUx86Decoder@@AAEXXZ" PURGE="0" COMMENT="" />
    <EXPORT ORDINAL="132" NAME="?preprocess_AL_moffs8@I_CPUx86Decoder@@AAEXXZ" PURGE="0" COMMENT="" />
    <EXPORT ORDINAL="133" NAME="?preprocess_AXEAX_imm1632@I_CPUx86Decoder@@AAEXXZ" PURGE="0" COMMENT="" />
    <EXPORT ORDINAL="134" NAME="?preprocess_AXEAX_moffs1632@I_CPUx86Decoder@@AAEXXZ" PURGE="0" COMMENT="" />
    <EXPORT ORDINAL="135" NAME="?preprocess_FPU@I_CPUx86Decoder@@AAEXXZ" PURGE="0" COMMENT="" />
    <EXPORT ORDINAL="136" NAME="?preprocess_group0f_01@I_CPUx86Decoder@@AAEXXZ" PURGE="0" COMMENT="" />
    <EXPORT ORDINAL="137" NAME="?preprocess_group0f_ae@I_CPUx86Decoder@@AAEXXZ" PURGE="0" COMMENT="" />
    <EXPORT ORDINAL="138" NAME="?preprocess_imm1632_others@I_CPUx86Decoder@@AAEXXZ" PURGE="0" COMMENT="" />
    <EXPORT ORDINAL="139" NAME="?preprocess_imm16@I_CPUx86Decoder@@AAEXXZ" PURGE="0" COMMENT="" />
    <EXPORT ORDINAL="140" NAME="?preprocess_imm16_imm8@I_CPUx86Decoder@@AAEXXZ" PURGE="0" COMMENT="" />
    <EXPORT ORDINAL="141" NAME="?preprocess_imm8@I_CPUx86Decoder@@AAEXXZ" PURGE="0" COMMENT="" />
    <EXPORT ORDINAL="142" NAME="?preprocess_m128_xmm@I_CPUx86Decoder@@AAEXXZ" PURGE="0" COMMENT="" />
    <EXPORT ORDINAL="143" NAME="?preprocess_m1632@I_CPUx86Decoder@@AAEXXZ" PURGE="0" COMMENT="" />
    <EXPORT ORDINAL="144" NAME="?preprocess_m32_r32@I_CPUx86Decoder@@AAEXXZ" PURGE="0" COMMENT="" />
    <EXPORT ORDINAL="145" NAME="?preprocess_m64@I_CPUx86Decoder@@AAEXXZ" PURGE="0" COMMENT="" />
    <EXPORT ORDINAL="146" NAME="?preprocess_m64_mm@I_CPUx86Decoder@@AAEXXZ" PURGE="0" COMMENT="" />
    <EXPORT ORDINAL="147" NAME="?preprocess_m64_xmm@I_CPUx86Decoder@@AAEXXZ" PURGE="0" COMMENT="" />
    <EXPORT ORDINAL="148" NAME="?preprocess_m8@I_CPUx86Decoder@@AAEXXZ" PURGE="0" COMMENT="" />
    <EXPORT ORDINAL="149" NAME="?preprocess_macro01@I_CPUx86Decoder@@AAEXXZ" PURGE="0" COMMENT="" />
    <EXPORT ORDINAL="150" NAME="?preprocess_macro02@I_CPUx86Decoder@@AAEXXZ" PURGE="0" COMMENT="" />
    <EXPORT ORDINAL="151" NAME="?preprocess_mm1_mm2@I_CPUx86Decoder@@AAEXXZ" PURGE="0" COMMENT="" />
    <EXPORT ORDINAL="152" NAME="?preprocess_mm_imm8@I_CPUx86Decoder@@AAEXXZ" PURGE="0" COMMENT="" />
    <EXPORT ORDINAL="153" NAME="?preprocess_mm_imm8_group73@I_CPUx86Decoder@@AAEXXZ" PURGE="0" COMMENT="" />
    <EXPORT ORDINAL="154" NAME="?preprocess_mm_r32_imm8@I_CPUx86Decoder@@AAEXXZ" PURGE="0" COMMENT="" />
    <EXPORT ORDINAL="155" NAME="?preprocess_mm_r32_m32_imm8@I_CPUx86Decoder@@AAEXXZ" PURGE="0" COMMENT="" />
    <EXPORT ORDINAL="156" NAME="?preprocess_mm_rm32@I_CPUx86Decoder@@AAEXXZ" PURGE="0" COMMENT="" />
    <EXPORT ORDINAL="157" NAME="?preprocess_mm_rm64@I_CPUx86Decoder@@AAEXXZ" PURGE="0" COMMENT="" />
    <EXPORT ORDINAL="158" NAME="?preprocess_mm_rm64_imm8@I_CPUx86Decoder@@AAEXXZ" PURGE="0" COMMENT="" />
    <EXPORT ORDINAL="159" NAME="?preprocess_mm_xmm_m64@I_CPUx86Decoder@@AAEXXZ" PURGE="0" COMMENT="" />
    <EXPORT ORDINAL="160" NAME="?preprocess_moffs8_AL@I_CPUx86Decoder@@AAEXXZ" PURGE="0" COMMENT="" />
    <EXPORT ORDINAL="161" NAME="?preprocess_one_byte@I_CPUx86Decoder@@AAEXXZ" PURGE="0" COMMENT="" />
    <EXPORT ORDINAL="162" NAME="?preprocess_one_byte_1632@I_CPUx86Decoder@@AAEXXZ" PURGE="0" COMMENT="" />
    <EXPORT ORDINAL="163" NAME="?preprocess_prefix@I_CPUx86Decoder@@AAEXXZ" PURGE="0" COMMENT="" />
    <EXPORT ORDINAL="164" NAME="?preprocess_ptr16161632@I_CPUx86Decoder@@AAEXXZ" PURGE="0" COMMENT="" />
    <EXPORT ORDINAL="165" NAME="?preprocess_r1632_r_m1632@I_CPUx86Decoder@@AAEXXZ" PURGE="0" COMMENT="" />
    <EXPORT ORDINAL="166" NAME="?preprocess_r1632_r_m1632_imm1632@I_CPUx86Decoder@@AAEXXZ" PURGE="0" COMMENT="" />
    <EXPORT ORDINAL="167" NAME="?preprocess_r1632_r_m1632_imm8@I_CPUx86Decoder@@AAEXXZ" PURGE="0" COMMENT="" />
    <EXPORT ORDINAL="168" NAME="?preprocess_r16_r_m8@I_CPUx86Decoder@@AAEXXZ" PURGE="0" COMMENT="" />
    <EXPORT ORDINAL="169" NAME="?preprocess_r32_r_m8@I_CPUx86Decoder@@AAEXXZ" PURGE="0" COMMENT="" />
    <EXPORT ORDINAL="170" NAME="?preprocess_r32_xmm@I_CPUx86Decoder@@AAEXXZ" PURGE="0" COMMENT="" />
    <EXPORT ORDINAL="171" NAME="?preprocess_r_m1632_group03@I_CPUx86Decoder@@AAEXXZ" PURGE="0" COMMENT="" />
    <EXPORT ORDINAL="172" NAME="?preprocess_r_m1632_group04@I_CPUx86Decoder@@AAEXXZ" PURGE="0" COMMENT="" />
    <EXPORT ORDINAL="173" NAME="?preprocess_r_m1632_imm1632@I_CPUx86Decoder@@AAEXXZ" PURGE="0" COMMENT="" />
    <EXPORT ORDINAL="174" NAME="?preprocess_r_m1632_imm8_group01@I_CPUx86Decoder@@AAEXXZ" PURGE="0" COMMENT="" />
    <EXPORT ORDINAL="175" NAME="?preprocess_r_m1632_imm8_group02@I_CPUx86Decoder@@AAEXXZ" PURGE="0" COMMENT="" />
    <EXPORT ORDINAL="176" NAME="?preprocess_r_m1632_imm8_group0f_ba@I_CPUx86Decoder@@AAEXXZ" PURGE="0" COMMENT="" />
    <EXPORT ORDINAL="177" NAME="?preprocess_r_m16_r16@I_CPUx86Decoder@@AAEXXZ" PURGE="0" COMMENT="" />
    <EXPORT ORDINAL="178" NAME="?preprocess_r_m16_sreg@I_CPUx86Decoder@@AAEXXZ" PURGE="0" COMMENT="" />
    <EXPORT ORDINAL="179" NAME="?preprocess_r_m8_group03@I_CPUx86Decoder@@AAEXXZ" PURGE="0" COMMENT="" />
    <EXPORT ORDINAL="180" NAME="?preprocess_rel1632@I_CPUx86Decoder@@AAEXXZ" PURGE="0" COMMENT="" />
    <EXPORT ORDINAL="181" NAME="?preprocess_rel8@I_CPUx86Decoder@@AAEXXZ" PURGE="0" COMMENT="" />
    <EXPORT ORDINAL="182" NAME="?preprocess_rm1632_r1632@I_CPUx86Decoder@@AAEXXZ" PURGE="0" COMMENT="" />
    <EXPORT ORDINAL="183" NAME="?preprocess_rm1632_r1632_imm8@I_CPUx86Decoder@@AAEXXZ" PURGE="0" COMMENT="" />
    <EXPORT ORDINAL="184" NAME="?preprocess_rm16_group0f_00@I_CPUx86Decoder@@AAEXXZ" PURGE="0" COMMENT="" />
    <EXPORT ORDINAL="185" NAME="?preprocess_rm32_mm@I_CPUx86Decoder@@AAEXXZ" PURGE="0" COMMENT="" />
    <EXPORT ORDINAL="186" NAME="?preprocess_rm32_xmm@I_CPUx86Decoder@@AAEXXZ" PURGE="0" COMMENT="" />
    <EXPORT ORDINAL="187" NAME="?preprocess_rm64_mm@I_CPUx86Decoder@@AAEXXZ" PURGE="0" COMMENT="" />
    <EXPORT ORDINAL="188" NAME="?preprocess_sreg_r_m16@I_CPUx86Decoder@@AAEXXZ" PURGE="0" COMMENT="" />
    <EXPORT ORDINAL="189" NAME="?preprocess_xmm1_xmm2@I_CPUx86Decoder@@AAEXXZ" PURGE="0" COMMENT="" />
    <EXPORT ORDINAL="190" NAME="?preprocess_xmm1_xmm2_m128@I_CPUx86Decoder@@AAEXXZ" PURGE="0" COMMENT="" />
    <EXPORT ORDINAL="191" NAME="?preprocess_xmm1_xmm2_m128_imm8@I_CPUx86Decoder@@AAEXXZ" PURGE="0" COMMENT="" />
    <EXPORT ORDINAL="192" NAME="?preprocess_xmm1_xmm2_m32@I_CPUx86Decoder@@AAEXXZ" PURGE="0" COMMENT="" />
    <EXPORT ORDINAL="193" NAME="?preprocess_xmm1_xmm2_m64@I_CPUx86Decoder@@AAEXXZ" PURGE="0" COMMENT="" />
    <EXPORT ORDINAL="194" NAME="?preprocess_xmm2_m128_xmm1@I_CPUx86Decoder@@AAEXXZ" PURGE="0" COMMENT="" />
    <EXPORT ORDINAL="195" NAME="?preprocess_xmm2_m64_xmm1@I_CPUx86Decoder@@AAEXXZ" PURGE="0" COMMENT="" />
    <EXPORT ORDINAL="196" NAME="?preprocess_xmm_imm8_group73@I_CPUx86Decoder@@AAEXXZ" PURGE="0" COMMENT="" />
    <EXPORT ORDINAL="197" NAME="?preprocess_xmm_m64@I_CPUx86Decoder@@AAEXXZ" PURGE="0" COMMENT="" />
    <EXPORT ORDINAL="198" NAME="?preprocess_xmm_mm_m64@I_CPUx86Decoder@@AAEXXZ" PURGE="0" COMMENT="" />
    <EXPORT ORDINAL="199" NAME="?printf_AL_imm8@I_CPUx86Decoder@@AAEXXZ" PURGE="0" COMMENT="" />
    <EXPORT ORDINAL="200" NAME="?printf_AL_moffs8@I_CPUx86Decoder@@AAEXXZ" PURGE="0" COMMENT="" />
    <EXPORT ORDINAL="201" NAME="?printf_AXEAX_imm1632@I_CPUx86Decoder@@AAEXXZ" PURGE="0" COMMENT="" />
    <EXPORT ORDINAL="202" NAME="?printf_AXEAX_moffs1632@I_CPUx86Decoder@@AAEXXZ" PURGE="0" COMMENT="" />
    <EXPORT ORDINAL="203" NAME="?printf_CRx_r@I_CPUx86Decoder@@AAEXXZ" PURGE="0" COMMENT="" />
    <EXPORT ORDINAL="204" NAME="?printf_DRx_r@I_CPUx86Decoder@@AAEXXZ" PURGE="0" COMMENT="" />
    <EXPORT ORDINAL="205" NAME="?printf_F3_90@I_CPUx86Decoder@@AAEXXZ" PURGE="0" COMMENT="" />
    <EXPORT ORDINAL="206" NAME="?printf_FPU@I_CPUx86Decoder@@AAEXXZ" PURGE="0" COMMENT="" />
    <EXPORT ORDINAL="207" NAME="?printf_group0f_01@I_CPUx86Decoder@@AAEXXZ" PURGE="0" COMMENT="" />
    <EXPORT ORDINAL="208" NAME="?printf_group0f_ae@I_CPUx86Decoder@@AAEXXZ" PURGE="0" COMMENT="" />
    <EXPORT ORDINAL="209" NAME="?printf_imm1632@I_CPUx86Decoder@@AAEXXZ" PURGE="0" COMMENT="" />
    <EXPORT ORDINAL="210" NAME="?printf_imm16@I_CPUx86Decoder@@AAEXXZ" PURGE="0" COMMENT="" />
    <EXPORT ORDINAL="211" NAME="?printf_imm16_imm8@I_CPUx86Decoder@@AAEXXZ" PURGE="0" COMMENT="" />
    <EXPORT ORDINAL="212" NAME="?printf_imm8@I_CPUx86Decoder@@AAEXXZ" PURGE="0" COMMENT="" />
    <EXPORT ORDINAL="213" NAME="?printf_m128_xmm@I_CPUx86Decoder@@AAEXXZ" PURGE="0" COMMENT="" />
    <EXPORT ORDINAL="214" NAME="?printf_m1632@I_CPUx86Decoder@@AAEXXZ" PURGE="0" COMMENT="" />
    <EXPORT ORDINAL="215" NAME="?printf_m32_r32@I_CPUx86Decoder@@AAEXXZ" PURGE="0" COMMENT="" />
    <EXPORT ORDINAL="216" NAME="?printf_m64@I_CPUx86Decoder@@AAEXXZ" PURGE="0" COMMENT="" />
    <EXPORT ORDINAL="217" NAME="?printf_m64_mm@I_CPUx86Decoder@@AAEXXZ" PURGE="0" COMMENT="" />
    <EXPORT ORDINAL="218" NAME="?printf_m64_xmm@I_CPUx86Decoder@@AAEXXZ" PURGE="0" COMMENT="" />
    <EXPORT ORDINAL="219" NAME="?printf_m8_group_0f_18@I_CPUx86Decoder@@AAEXXZ" PURGE="0" COMMENT="" />
    <EXPORT ORDINAL="220" NAME="?printf_macro01@I_CPUx86Decoder@@AAEXXZ" PURGE="0" COMMENT="" />
    <EXPORT ORDINAL="221" NAME="?printf_macro02@I_CPUx86Decoder@@AAEXXZ" PURGE="0" COMMENT="" />
    <EXPORT ORDINAL="222" NAME="?printf_macro03@I_CPUx86Decoder@@AAEXXZ" PURGE="0" COMMENT="" />
    <EXPORT ORDINAL="223" NAME="?printf_mm1_mm2@I_CPUx86Decoder@@AAEXXZ" PURGE="0" COMMENT="" />
    <EXPORT ORDINAL="224" NAME="?printf_mm_imm8_group71@I_CPUx86Decoder@@AAEXXZ" PURGE="0" COMMENT="" />
    <EXPORT ORDINAL="225" NAME="?printf_mm_imm8_group72@I_CPUx86Decoder@@AAEXXZ" PURGE="0" COMMENT="" />
    <EXPORT ORDINAL="226" NAME="?printf_mm_imm8_group73@I_CPUx86Decoder@@AAEXXZ" PURGE="0" COMMENT="" />
    <EXPORT ORDINAL="227" NAME="?printf_mm_r32_imm8@I_CPUx86Decoder@@AAEXXZ" PURGE="0" COMMENT="" />
    <EXPORT ORDINAL="228" NAME="?printf_mm_r32_m32_imm8@I_CPUx86Decoder@@AAEXXZ" PURGE="0" COMMENT="" />
    <EXPORT ORDINAL="229" NAME="?printf_mm_rm32@I_CPUx86Decoder@@AAEXXZ" PURGE="0" COMMENT="" />
    <EXPORT ORDINAL="230" NAME="?printf_mm_rm64@I_CPUx86Decoder@@AAEXXZ" PURGE="0" COMMENT="" />
    <EXPORT ORDINAL="231" NAME="?printf_mm_rm64_imm8@I_CPUx86Decoder@@AAEXXZ" PURGE="0" COMMENT="" />
    <EXPORT ORDINAL="232" NAME="?printf_mm_xmm_m64@I_CPUx86Decoder@@AAEXXZ" PURGE="0" COMMENT="" />
    <EXPORT ORDINAL="233" NAME="?printf_moffs8_AL@I_CPUx86Decoder@@AAEXXZ" PURGE="0" COMMENT="" />
    <EXPORT ORDINAL="234" NAME="?printf_one_byte@I_CPUx86Decoder@@AAEXXZ" PURGE="0" COMMENT="" />
    <EXPORT ORDINAL="235" NAME="?printf_one_byte_1632@I_CPUx86Decoder@@AAEXXZ" PURGE="0" COMMENT="" />
    <EXPORT ORDINAL="236" NAME="?printf_prefix@I_CPUx86Decoder@@AAEXXZ" PURGE="0" COMMENT="" />
    <EXPORT ORDINAL="237" NAME="?printf_ptr16161632@I_CPUx86Decoder@@AAEXXZ" PURGE="0" COMMENT="" />
    <EXPORT ORDINAL="238" NAME="?printf_r1632_r_m1632@I_CPUx86Decoder@@AAEXXZ" PURGE="0" COMMENT="" />
    <EXPORT ORDINAL="239" NAME="?printf_r1632_r_m1632_imm1632@I_CPUx86Decoder@@AAEXXZ" PURGE="0" COMMENT="" />
    <EXPORT ORDINAL="240" NAME="?printf_r1632_r_m1632_imm8@I_CPUx86Decoder@@AAEXXZ" PURGE="0" COMMENT="" />
    <EXPORT ORDINAL="241" NAME="?printf_r16_r_m8@I_CPUx86Decoder@@AAEXXZ" PURGE="0" COMMENT="" />
    <EXPORT ORDINAL="242" NAME="?printf_r32_r_m8@I_CPUx86Decoder@@AAEXXZ" PURGE="0" COMMENT="" />
    <EXPORT ORDINAL="243" NAME="?printf_r32_xmm@I_CPUx86Decoder@@AAEXXZ" PURGE="0" COMMENT="" />
    <EXPORT ORDINAL="244" NAME="?printf_r8_r_m8@I_CPUx86Decoder@@AAEXXZ" PURGE="0" COMMENT="" />
    <EXPORT ORDINAL="245" NAME="?printf_r_CRx@I_CPUx86Decoder@@AAEXXZ" PURGE="0" COMMENT="" />
    <EXPORT ORDINAL="246" NAME="?printf_r_DRx@I_CPUx86Decoder@@AAEXXZ" PURGE="0" COMMENT="" />
    <EXPORT ORDINAL="247" NAME="?printf_r_m1632_1_CL@I_CPUx86Decoder@@AAEXXZ" PURGE="0" COMMENT="" />
    <EXPORT ORDINAL="248" NAME="?printf_r_m1632_group03@I_CPUx86Decoder@@AAEXXZ" PURGE="0" COMMENT="" />
    <EXPORT ORDINAL="249" NAME="?printf_r_m1632_group04@I_CPUx86Decoder@@AAEXXZ" PURGE="0" COMMENT="" />
    <EXPORT ORDINAL="250" NAME="?printf_r_m1632_imm1632@I_CPUx86Decoder@@AAEXXZ" PURGE="0" COMMENT="" />
    <EXPORT ORDINAL="251" NAME="?printf_r_m1632_imm8_group01@I_CPUx86Decoder@@AAEXXZ" PURGE="0" COMMENT="" />
    <EXPORT ORDINAL="252" NAME="?printf_r_m1632_imm8_group02@I_CPUx86Decoder@@AAEXXZ" PURGE="0" COMMENT="" />
    <EXPORT ORDINAL="253" NAME="?printf_r_m1632_imm8_group0f_ba@I_CPUx86Decoder@@AAEXXZ" PURGE="0" COMMENT="" />
    <EXPORT ORDINAL="254" NAME="?printf_r_m1632_imm8_sign@I_CPUx86Decoder@@AAEXXZ" PURGE="0" COMMENT="" />
    <EXPORT ORDINAL="255" NAME="?printf_r_m16_r16@I_CPUx86Decoder@@AAEXXZ" PURGE="0" COMMENT="" />
    <EXPORT ORDINAL="256" NAME="?printf_r_m16_sreg@I_CPUx86Decoder@@AAEXXZ" PURGE="0" COMMENT="" />
    <EXPORT ORDINAL="257" NAME="?printf_r_m8_1_CL@I_CPUx86Decoder@@AAEXXZ" PURGE="0" COMMENT="" />
    <EXPORT ORDINAL="258" NAME="?printf_r_m8_group03@I_CPUx86Decoder@@AAEXXZ" PURGE="0" COMMENT="" />
    <EXPORT ORDINAL="259" NAME="?printf_r_m8_group04@I_CPUx86Decoder@@AAEXXZ" PURGE="0" COMMENT="" />
    <EXPORT ORDINAL="260" NAME="?printf_r_m8_imm8@I_CPUx86Decoder@@AAEXXZ" PURGE="0" COMMENT="" />
    <EXPORT ORDINAL="261" NAME="?printf_r_m8_imm8_group01@I_CPUx86Decoder@@AAEXXZ" PURGE="0" COMMENT="" />
    <EXPORT ORDINAL="262" NAME="?printf_r_m8_imm8_group02@I_CPUx86Decoder@@AAEXXZ" PURGE="0" COMMENT="" />
    <EXPORT ORDINAL="263" NAME="?printf_r_m8_r8@I_CPUx86Decoder@@AAEXXZ" PURGE="0" COMMENT="" />
    <EXPORT ORDINAL="264" NAME="?printf_rel1632@I_CPUx86Decoder@@AAEXXZ" PURGE="0" COMMENT="" />
    <EXPORT ORDINAL="265" NAME="?printf_rel8@I_CPUx86Decoder@@AAEXXZ" PURGE="0" COMMENT="" />
    <EXPORT ORDINAL="266" NAME="?printf_rm1632_r1632@I_CPUx86Decoder@@AAEXXZ" PURGE="0" COMMENT="" />
    <EXPORT ORDINAL="267" NAME="?printf_rm1632_r1632_imm8@I_CPUx86Decoder@@AAEXXZ" PURGE="0" COMMENT="" />
    <EXPORT ORDINAL="268" NAME="?printf_rm16_group0f_00@I_CPUx86Decoder@@AAEXXZ" PURGE="0" COMMENT="" />
    <EXPORT ORDINAL="269" NAME="?printf_rm32_mm@I_CPUx86Decoder@@AAEXXZ" PURGE="0" COMMENT="" />
    <EXPORT ORDINAL="270" NAME="?printf_rm32_xmm@I_CPUx86Decoder@@AAEXXZ" PURGE="0" COMMENT="" />
    <EXPORT ORDINAL="271" NAME="?printf_rm64_mm@I_CPUx86Decoder@@AAEXXZ" PURGE="0" COMMENT="" />
    <EXPORT ORDINAL="272" NAME="?printf_rm8@I_CPUx86Decoder@@AAEXXZ" PURGE="0" COMMENT="" />
    <EXPORT ORDINAL="273" NAME="?printf_sreg_r_m16@I_CPUx86Decoder@@AAEXXZ" PURGE="0" COMMENT="" />
    <EXPORT ORDINAL="274" NAME="?printf_xmm1_xmm2@I_CPUx86Decoder@@AAEXXZ" PURGE="0" COMMENT="" />
    <EXPORT ORDINAL="275" NAME="?printf_xmm1_xmm2_m128@I_CPUx86Decoder@@AAEXXZ" PURGE="0" COMMENT="" />
    <EXPORT ORDINAL="276" NAME="?printf_xmm1_xmm2_m128_imm8@I_CPUx86Decoder@@AAEXXZ" PURGE="0" COMMENT="" />
    <EXPORT ORDINAL="277" NAME="?printf_xmm1_xmm2_m32@I_CPUx86Decoder@@AAEXXZ" PURGE="0" COMMENT="" />
    <EXPORT ORDINAL="278" NAME="?printf_xmm1_xmm2_m64@I_CPUx86Decoder@@AAEXXZ" PURGE="0" COMMENT="" />
    <EXPORT ORDINAL="279" NAME="?printf_xmm2_m128_xmm1@I_CPUx86Decoder@@AAEXXZ" PURGE="0" COMMENT="" />
    <EXPORT ORDINAL="280" NAME="?printf_xmm2_m64_xmm1@I_CPUx86Decoder@@AAEXXZ" PURGE="0" COMMENT="" />
    <EXPORT ORDINAL="281" NAME="?printf_xmm_imm8_group73@I_CPUx86Decoder@@AAEXXZ" PURGE="0" COMMENT="" />
    <EXPORT ORDINAL="282" NAME="?printf_xmm_m64@I_CPUx86Decoder@@AAEXXZ" PURGE="0" COMMENT="" />
    <EXPORT ORDINAL="283" NAME="?printf_xmm_mm_m64@I_CPUx86Decoder@@AAEXXZ" PURGE="0" COMMENT="" />
</LIBRARY>

