<?xml version="1.0" encoding="UTF-8"?>
<LIBRARY NAME="jettmgr.dll" PATH="/DLLArchive/etc/JetTMgr.dll" DATE="Fri Jul 03 12:44:10 PDT 2020" VERSION="1, 0, 0, 1">
    <EXPORT ORDINAL="1" NAME="??0CTaskManager@@QAE@XZ" PURGE="0" COMMENT="" />
    <EXPORT ORDINAL="2" NAME="??1CTaskManager@@UAE@XZ" PURGE="0" COMMENT="" />
    <EXPORT ORDINAL="3" NAME="??_7CTaskManager@@6B@" PURGE="-1" COMMENT="" />
    <EXPORT ORDINAL="4" NAME="?AppendDIB@CTaskManager@@QAEPAXPAX0@Z" PURGE="8" COMMENT="" />
    <EXPORT ORDINAL="5" NAME="?CanEmailFiles@CTaskManager@@QAEHXZ" PURGE="0" COMMENT="" />
    <EXPORT ORDINAL="6" NAME="?ClosePowerMgr@CTaskManager@@QAEHXZ" PURGE="-1" COMMENT="" />
    <EXPORT ORDINAL="7" NAME="?ConvertTIFFToPDF@CTaskManager@@QAEHPAD0@Z" PURGE="8" COMMENT="" />
    <EXPORT ORDINAL="8" NAME="?DisplayImageInfo@CTaskManager@@QAEXPAUtagJET_IMAGEINFO@@@Z" PURGE="4" COMMENT="" />
    <EXPORT ORDINAL="9" NAME="?DisplayOCRInfo@CTaskManager@@QAEXPAUtagJET_OCRINFO@@@Z" PURGE="4" COMMENT="" />
    <EXPORT ORDINAL="10" NAME="?DisplayOutputInfo@CTaskManager@@QAEXPAUtagJET_OUTPUTINFO@@@Z" PURGE="4" COMMENT="" />
    <EXPORT ORDINAL="11" NAME="?DisplayPrinterInfo@CTaskManager@@QAEXPAUtagJET_PRINTERINFO@@@Z" PURGE="4" COMMENT="" />
    <EXPORT ORDINAL="12" NAME="?DisplayScanInfo@CTaskManager@@QAEXPAUtagJET_SCANINFO@@@Z" PURGE="4" COMMENT="" />
    <EXPORT ORDINAL="13" NAME="?DoOCRFromDIB@CTaskManager@@QAEHPAXPBDP6AHHJ@ZJ@Z" PURGE="16" COMMENT="" />
    <EXPORT ORDINAL="14" NAME="?DoOCRFromImageFile@CTaskManager@@QAEHPBD0P6AHHJ@ZJ@Z" PURGE="16" COMMENT="" />
    <EXPORT ORDINAL="15" NAME="?EmailFiles@CTaskManager@@QAEHPBD0000P6AHHJ@ZJ@Z" PURGE="28" COMMENT="" />
    <EXPORT ORDINAL="16" NAME="?EnumAppInfosFromINI@CTaskManager@@QAEHHPAUtagJET_APPINFO@@@Z" PURGE="8" COMMENT="" />
    <EXPORT ORDINAL="17" NAME="?EnumAppInfosFromRegistry@CTaskManager@@QAEHHPAUtagJET_APPINFO@@@Z" PURGE="8" COMMENT="" />
    <EXPORT ORDINAL="18" NAME="?EnumFaxInfos@CTaskManager@@QAEHHPAUtagJET_PRINTERINFO@@@Z" PURGE="8" COMMENT="" />
    <EXPORT ORDINAL="19" NAME="?EnumOCRDocTypes@CTaskManager@@QAEHHPADH@Z" PURGE="12" COMMENT="" />
    <EXPORT ORDINAL="20" NAME="?EnumOCRLanguages@CTaskManager@@QAEHHPADH@Z" PURGE="12" COMMENT="" />
    <EXPORT ORDINAL="21" NAME="?EnumPrinterInfos@CTaskManager@@QAEHHPAUtagJET_PRINTERINFO@@@Z" PURGE="8" COMMENT="" />
    <EXPORT ORDINAL="22" NAME="?EnumTwainSourceNames@CTaskManager@@QAEHHPADH@Z" PURGE="12" COMMENT="" />
    <EXPORT ORDINAL="23" NAME="?FastCopy@CTaskManager@@QAEHP6AHHJ@ZJ@Z" PURGE="8" COMMENT="" />
    <EXPORT ORDINAL="24" NAME="?FaxDIB@CTaskManager@@QAEHPAXP6AHHJ@ZJ@Z" PURGE="12" COMMENT="" />
    <EXPORT ORDINAL="25" NAME="?FaxImageFiles@CTaskManager@@QAEHPBDP6AHHJ@ZJ@Z" PURGE="12" COMMENT="" />
    <EXPORT ORDINAL="26" NAME="?GetAllInfo@CTaskManager@@QAEHPAUtagJET_SETTINGS@@@Z" PURGE="4" COMMENT="" />
    <EXPORT ORDINAL="27" NAME="?GetAppInfo@CTaskManager@@QAEHPAUtagJET_APPINFO@@@Z" PURGE="4" COMMENT="" />
    <EXPORT ORDINAL="28" NAME="?GetAppListToOpPanel@CTaskManager@@QAEHPAEKPAK@Z" PURGE="12" COMMENT="" />
    <EXPORT ORDINAL="29" NAME="?GetButtonStatus@CTaskManager@@QAEHPAH0@Z" PURGE="8" COMMENT="" />
    <EXPORT ORDINAL="30" NAME="?GetCropRect@CTaskManager@@QAEHPAXHPAUtagRECT@@@Z" PURGE="12" COMMENT="" />
    <EXPORT ORDINAL="31" NAME="?GetCurrentTwainSourceName@CTaskManager@@QAEHPADH@Z" PURGE="8" COMMENT="" />
    <EXPORT ORDINAL="32" NAME="?GetEmailInfo@CTaskManager@@QAEHPAUtagJET_EMAILINFO@@@Z" PURGE="4" COMMENT="" />
    <EXPORT ORDINAL="33" NAME="?GetFaxInfo@CTaskManager@@QAEHPAUtagJET_PRINTERINFO@@@Z" PURGE="4" COMMENT="" />
    <EXPORT ORDINAL="34" NAME="?GetFileInfo@CTaskManager@@QAEHPAUtagJET_FILEINFO@@@Z" PURGE="4" COMMENT="" />
    <EXPORT ORDINAL="35" NAME="?GetFileThumbnailImage@CTaskManager@@QAEPAUHBITMAP__@@PAUHWND__@@HHPAD@Z" PURGE="16" COMMENT="" />
    <EXPORT ORDINAL="36" NAME="?GetImageFilePageCount@CTaskManager@@QAEHPBD@Z" PURGE="4" COMMENT="" />
    <EXPORT ORDINAL="37" NAME="?GetImageInfo@CTaskManager@@QAEHPAUtagJET_IMAGEINFO@@@Z" PURGE="4" COMMENT="" />
    <EXPORT ORDINAL="38" NAME="?GetImageResolutionRange@CTaskManager@@QAEKXZ" PURGE="-1" COMMENT="" />
    <EXPORT ORDINAL="39" NAME="?GetLastError@CTaskManager@@QAEHXZ" PURGE="0" COMMENT="" />
    <EXPORT ORDINAL="40" NAME="?GetOCRInfo@CTaskManager@@QAEHPAUtagJET_OCRINFO@@@Z" PURGE="4" COMMENT="" />
    <EXPORT ORDINAL="41" NAME="?GetOutputInfo@CTaskManager@@QAEHPAUtagJET_OUTPUTINFO@@@Z" PURGE="4" COMMENT="" />
    <EXPORT ORDINAL="42" NAME="?GetPrinterInfo@CTaskManager@@QAEHPAUtagJET_PRINTERINFO@@@Z" PURGE="4" COMMENT="" />
    <EXPORT ORDINAL="43" NAME="?GetScanInfo@CTaskManager@@QAEHPAUtagJET_SCANINFO@@@Z" PURGE="4" COMMENT="" />
    <EXPORT ORDINAL="44" NAME="?GetScanMaxHeight@CTaskManager@@QAEMXZ" PURGE="-1" COMMENT="" />
    <EXPORT ORDINAL="45" NAME="?GetScanMaxWidth@CTaskManager@@QAEMXZ" PURGE="-1" COMMENT="" />
    <EXPORT ORDINAL="46" NAME="?GetScanMemSize@CTaskManager@@QAEHPAUtagJET_SCANMEMSIZE@@@Z" PURGE="4" COMMENT="" />
    <EXPORT ORDINAL="47" NAME="?GetScanMinLeft@CTaskManager@@QAEMXZ" PURGE="-1" COMMENT="" />
    <EXPORT ORDINAL="48" NAME="?GetScanMinTop@CTaskManager@@QAEMXZ" PURGE="-1" COMMENT="" />
    <EXPORT ORDINAL="49" NAME="?GetScanResolutionRange@CTaskManager@@QAEKXZ" PURGE="-1" COMMENT="" />
    <EXPORT ORDINAL="50" NAME="?GetScanVersion@CTaskManager@@QAEHPAUtagJET_SCANVERSION@@@Z" PURGE="4" COMMENT="" />
    <EXPORT ORDINAL="51" NAME="?GetScannerStatus@CTaskManager@@QAEHPAUtagJET_SCANNERSTATUS@@@Z" PURGE="4" COMMENT="" />
    <EXPORT ORDINAL="52" NAME="?GetTwainInfo@CTaskManager@@QAEHPAUtagJET_TWAININFO@@@Z" PURGE="4" COMMENT="" />
    <EXPORT ORDINAL="53" NAME="?Initialize@CTaskManager@@QAEHPAUtagJET_SETTINGS@@@Z" PURGE="4" COMMENT="" />
    <EXPORT ORDINAL="54" NAME="?IsScannerBusy@CTaskManager@@QAEHXZ" PURGE="-1" COMMENT="" />
    <EXPORT ORDINAL="55" NAME="?IsScannerReady@CTaskManager@@QAEHPAH@Z" PURGE="4" COMMENT="" />
    <EXPORT ORDINAL="56" NAME="?LaunchLexmarkPSWX@CTaskManager@@QAEHPAD@Z" PURGE="4" COMMENT="" />
    <EXPORT ORDINAL="57" NAME="?LoadDIBFromImageFile@CTaskManager@@QAEPAXPBD@Z" PURGE="4" COMMENT="" />
    <EXPORT ORDINAL="58" NAME="?LoadDIBFromImageFileM@CTaskManager@@QAEPAXPBDH@Z" PURGE="8" COMMENT="" />
    <EXPORT ORDINAL="59" NAME="?PrintDIB@CTaskManager@@QAEHPAXP6AHHJ@ZJ@Z" PURGE="12" COMMENT="" />
    <EXPORT ORDINAL="60" NAME="?PrintDIBs@CTaskManager@@QAEHPAPAXHP6AHHJ@ZJ@Z" PURGE="16" COMMENT="" />
    <EXPORT ORDINAL="61" NAME="?PrintImageFiles@CTaskManager@@QAEHPBDP6AHHJ@ZJ@Z" PURGE="12" COMMENT="" />
    <EXPORT ORDINAL="62" NAME="?ProcessDIB@CTaskManager@@QAEPAXPAXP6AHHJ@ZJ@Z" PURGE="12" COMMENT="" />
    <EXPORT ORDINAL="63" NAME="?ResResizeDIB@CTaskManager@@QAEPAXPAXIII@Z" PURGE="16" COMMENT="" />
    <EXPORT ORDINAL="64" NAME="?ResizeDIB@CTaskManager@@QAEPAXPAXIII@Z" PURGE="16" COMMENT="" />
    <EXPORT ORDINAL="65" NAME="?SaveDIBToClipboard@CTaskManager@@QAEHPAX@Z" PURGE="4" COMMENT="" />
    <EXPORT ORDINAL="66" NAME="?SaveDIBToImageFile2@CTaskManager@@QAEHPAPAX@Z" PURGE="4" COMMENT="" />
    <EXPORT ORDINAL="67" NAME="?SaveDIBToImageFile2@CTaskManager@@QAEHPAPAXPBDHH@Z" PURGE="16" COMMENT="" />
    <EXPORT ORDINAL="68" NAME="?SaveDIBToImageFile@CTaskManager@@QAEHPAX@Z" PURGE="4" COMMENT="" />
    <EXPORT ORDINAL="69" NAME="?SaveDIBToImageFile@CTaskManager@@QAEHPAXPBDHH@Z" PURGE="16" COMMENT="" />
    <EXPORT ORDINAL="70" NAME="?SaveDIBToImageFileM2@CTaskManager@@QAEHPAPAXPBDHHH@Z" PURGE="20" COMMENT="" />
    <EXPORT ORDINAL="71" NAME="?SaveDIBToImageFileM@CTaskManager@@QAEHPAXPBDHHH@Z" PURGE="20" COMMENT="" />
    <EXPORT ORDINAL="72" NAME="?SaveTextFileToClipboard@CTaskManager@@QAEHPAD@Z" PURGE="4" COMMENT="" />
    <EXPORT ORDINAL="73" NAME="?SaveTextToClipboard@CTaskManager@@QAEHPAD@Z" PURGE="4" COMMENT="" />
    <EXPORT ORDINAL="74" NAME="?ScanToDIB@CTaskManager@@QAEPAXP6AHHJ@ZJ@Z" PURGE="8" COMMENT="" />
    <EXPORT ORDINAL="75" NAME="?ScanToDIBBand@CTaskManager@@QAEPAXHKPAHP6AHHJ@ZJ@Z" PURGE="20" COMMENT="" />
    <EXPORT ORDINAL="76" NAME="?ScanToDocFile@CTaskManager@@QAEHPBDP6AHHJ@ZJ@Z" PURGE="12" COMMENT="" />
    <EXPORT ORDINAL="77" NAME="?ScanToImageFile@CTaskManager@@QAEHP6AHHJ@ZJ@Z" PURGE="8" COMMENT="" />
    <EXPORT ORDINAL="78" NAME="?ScanToImageFile@CTaskManager@@QAEHPBDHHP6AHHJ@ZJ@Z" PURGE="20" COMMENT="" />
    <EXPORT ORDINAL="79" NAME="?SendAppListToOpPanel@CTaskManager@@QAEHPAEK@Z" PURGE="8" COMMENT="" />
    <EXPORT ORDINAL="80" NAME="?SendFaxSpeedDialListToOpPanel@CTaskManager@@QAEHPAEK@Z" PURGE="8" COMMENT="" />
    <EXPORT ORDINAL="81" NAME="?SendFilesToApp@CTaskManager@@QAEHPBD@Z" PURGE="4" COMMENT="" />
    <EXPORT ORDINAL="82" NAME="?SetAllInfo@CTaskManager@@QAEHPAUtagJET_SETTINGS@@@Z" PURGE="4" COMMENT="" />
    <EXPORT ORDINAL="83" NAME="?SetAllInfoToDefault@CTaskManager@@QAEHXZ" PURGE="0" COMMENT="" />
    <EXPORT ORDINAL="84" NAME="?SetAppInfo@CTaskManager@@QAEHPAUtagJET_APPINFO@@@Z" PURGE="4" COMMENT="" />
    <EXPORT ORDINAL="85" NAME="?SetEmailInfo@CTaskManager@@QAEHPAUtagJET_EMAILINFO@@@Z" PURGE="4" COMMENT="" />
    <EXPORT ORDINAL="86" NAME="?SetFaxInfo@CTaskManager@@QAEHPAUtagJET_PRINTERINFO@@@Z" PURGE="4" COMMENT="" />
    <EXPORT ORDINAL="87" NAME="?SetFileInfo@CTaskManager@@QAEHPAUtagJET_FILEINFO@@@Z" PURGE="4" COMMENT="" />
    <EXPORT ORDINAL="88" NAME="?SetImageInfo@CTaskManager@@QAEHPAUtagJET_IMAGEINFO@@@Z" PURGE="4" COMMENT="" />
    <EXPORT ORDINAL="89" NAME="?SetOCRInfo@CTaskManager@@QAEHPAUtagJET_OCRINFO@@@Z" PURGE="4" COMMENT="" />
    <EXPORT ORDINAL="90" NAME="?SetOutputInfo@CTaskManager@@QAEHPAUtagJET_OUTPUTINFO@@@Z" PURGE="4" COMMENT="" />
    <EXPORT ORDINAL="91" NAME="?SetPrinterInfo@CTaskManager@@QAEHPAUtagJET_PRINTERINFO@@@Z" PURGE="4" COMMENT="" />
    <EXPORT ORDINAL="92" NAME="?SetScanInfo@CTaskManager@@QAEHPAUtagJET_SCANINFO@@@Z" PURGE="4" COMMENT="" />
    <EXPORT ORDINAL="93" NAME="?SetScannerBusy@CTaskManager@@QAEXH@Z" PURGE="4" COMMENT="" />
    <EXPORT ORDINAL="94" NAME="?SetTwainInfo@CTaskManager@@QAEHPAUtagJET_TWAININFO@@@Z" PURGE="4" COMMENT="" />
    <EXPORT ORDINAL="95" NAME="?ShowDIB@CTaskManager@@QAEHPAUHDC__@@HHHHHHHHPAXK@Z" PURGE="44" COMMENT="" />
    <EXPORT ORDINAL="96" NAME="?StartPowerMgr@CTaskManager@@QAEHXZ" PURGE="-1" COMMENT="" />
</LIBRARY>

