<?xml version="1.0" encoding="UTF-8"?>
<LIBRARY NAME="kdu_v32r.dll" PATH="/DLLArchive/etc/kdu_v32r.dll" DATE="Fri Jul 03 21:45:35 CEST 2020" VERSION="3, 2, 0, 1">
    <EXPORT ORDINAL="1" NAME="??0cod_params@@QAE@XZ" PURGE="0" COMMENT="" />
    <EXPORT ORDINAL="2" NAME="??0crg_params@@QAE@XZ" PURGE="0" COMMENT="" />
    <EXPORT ORDINAL="3" NAME="??0kdu_analysis@@QAE@Vkdu_resolution@@PAVkdu_sample_allocator@@_NMPAVkdu_roi_node@@@Z" PURGE="20" COMMENT="" />
    <EXPORT ORDINAL="4" NAME="??0kdu_block_decoder@@QAE@XZ" PURGE="0" COMMENT="" />
    <EXPORT ORDINAL="5" NAME="??0kdu_block_encoder@@QAE@XZ" PURGE="0" COMMENT="" />
    <EXPORT ORDINAL="6" NAME="??0kdu_decoder@@QAE@Vkdu_subband@@PAVkdu_sample_allocator@@_NM@Z" PURGE="16" COMMENT="" />
    <EXPORT ORDINAL="7" NAME="??0kdu_encoder@@QAE@Vkdu_subband@@PAVkdu_sample_allocator@@_NMPAVkdu_roi_node@@@Z" PURGE="20" COMMENT="" />
    <EXPORT ORDINAL="8" NAME="??0kdu_error@@QAE@XZ" PURGE="0" COMMENT="" />
    <EXPORT ORDINAL="9" NAME="??0kdu_params@@IAE@PBD_N11@Z" PURGE="16" COMMENT="" />
    <EXPORT ORDINAL="10" NAME="??0kdu_synthesis@@QAE@Vkdu_resolution@@PAVkdu_sample_allocator@@_NM@Z" PURGE="16" COMMENT="" />
    <EXPORT ORDINAL="11" NAME="??0kdu_warning@@QAE@XZ" PURGE="0" COMMENT="" />
    <EXPORT ORDINAL="12" NAME="??0org_params@@QAE@XZ" PURGE="0" COMMENT="" />
    <EXPORT ORDINAL="13" NAME="??0poc_params@@QAE@XZ" PURGE="0" COMMENT="" />
    <EXPORT ORDINAL="14" NAME="??0qcd_params@@QAE@XZ" PURGE="0" COMMENT="" />
    <EXPORT ORDINAL="15" NAME="??0rgn_params@@QAE@XZ" PURGE="0" COMMENT="" />
    <EXPORT ORDINAL="16" NAME="??0siz_params@@QAE@XZ" PURGE="0" COMMENT="" />
    <EXPORT ORDINAL="17" NAME="??1kdu_params@@UAE@XZ" PURGE="0" COMMENT="" />
    <EXPORT ORDINAL="18" NAME="?access_cluster@kdu_params@@QAEPAV1@H@Z" PURGE="4" COMMENT="" />
    <EXPORT ORDINAL="19" NAME="?access_cluster@kdu_params@@QAEPAV1@PBD@Z" PURGE="4" COMMENT="" />
    <EXPORT ORDINAL="20" NAME="?access_component@kdu_tile@@QAE?AVkdu_tile_comp@@H@Z" PURGE="8" COMMENT="" />
    <EXPORT ORDINAL="21" NAME="?access_next@kdu_resolution@@QAE?AV1@XZ" PURGE="4" COMMENT="" />
    <EXPORT ORDINAL="22" NAME="?access_relation@kdu_params@@QAEPAV1@HHH@Z" PURGE="12" COMMENT="" />
    <EXPORT ORDINAL="23" NAME="?access_resolution@kdu_tile_comp@@QAE?AVkdu_resolution@@H@Z" PURGE="8" COMMENT="" />
    <EXPORT ORDINAL="24" NAME="?access_resolution@kdu_tile_comp@@QAE?AVkdu_resolution@@XZ" PURGE="4" COMMENT="" />
    <EXPORT ORDINAL="25" NAME="?access_siz@kdu_codestream@@QAEPAVsiz_params@@XZ" PURGE="0" COMMENT="" />
    <EXPORT ORDINAL="26" NAME="?access_subband@kdu_resolution@@QAE?AVkdu_subband@@H@Z" PURGE="8" COMMENT="" />
    <EXPORT ORDINAL="27" NAME="?any_changes@kdu_params@@QAE_NXZ" PURGE="0" COMMENT="" />
    <EXPORT ORDINAL="28" NAME="?apply_input_restrictions@kdu_codestream@@QAEXHHHHPAUkdu_dims@@@Z" PURGE="20" COMMENT="" />
    <EXPORT ORDINAL="29" NAME="?augment_cache_threshold@kdu_codestream@@QAEHH@Z" PURGE="4" COMMENT="" />
    <EXPORT ORDINAL="30" NAME="?change_appearance@kdu_codestream@@QAEX_N00@Z" PURGE="12" COMMENT="" />
    <EXPORT ORDINAL="31" NAME="?check_loaded@kdu_precinct@@QAE_NXZ" PURGE="0" COMMENT="" />
    <EXPORT ORDINAL="32" NAME="?clear_marks@kdu_params@@QAEXXZ" PURGE="0" COMMENT="" />
    <EXPORT ORDINAL="33" NAME="?close@kdu_precinct@@QAEXXZ" PURGE="0" COMMENT="" />
    <EXPORT ORDINAL="34" NAME="?close@kdu_tile@@QAEXXZ" PURGE="0" COMMENT="" />
    <EXPORT ORDINAL="35" NAME="?close_block@kdu_precinct@@QAEXPAUkdu_block@@@Z" PURGE="4" COMMENT="" />
    <EXPORT ORDINAL="36" NAME="?close_block@kdu_subband@@QAEXPAUkdu_block@@@Z" PURGE="4" COMMENT="" />
    <EXPORT ORDINAL="37" NAME="?collect_timing_stats@kdu_codestream@@QAEXH@Z" PURGE="4" COMMENT="" />
    <EXPORT ORDINAL="38" NAME="?copy_all@kdu_params@@QAEXPAV1@HH_N11@Z" PURGE="24" COMMENT="" />
    <EXPORT ORDINAL="39" NAME="?copy_from@kdu_params@@QAEXPAV1@HHHHH_N11@Z" PURGE="36" COMMENT="" />
    <EXPORT ORDINAL="40" NAME="?create@kdu_codestream@@QAEXPAVkdu_compressed_source@@@Z" PURGE="4" COMMENT="" />
    <EXPORT ORDINAL="41" NAME="?create@kdu_codestream@@QAEXPAVsiz_params@@@Z" PURGE="4" COMMENT="" />
    <EXPORT ORDINAL="42" NAME="?create@kdu_codestream@@QAEXPAVsiz_params@@PAVkdu_compressed_target@@@Z" PURGE="8" COMMENT="" />
    <EXPORT ORDINAL="43" NAME="?define_attribute@kdu_params@@IAEXPBD00H@Z" PURGE="16" COMMENT="" />
    <EXPORT ORDINAL="44" NAME="?delete_unparsed_attribute@kdu_params@@QAEXPBD@Z" PURGE="4" COMMENT="" />
    <EXPORT ORDINAL="45" NAME="?describe_attribute@kdu_params@@QAEXPBDAAVkdu_message@@_N@Z" PURGE="12" COMMENT="" />
    <EXPORT ORDINAL="46" NAME="?describe_attributes@kdu_params@@QAEXAAVkdu_message@@_N@Z" PURGE="8" COMMENT="" />
    <EXPORT ORDINAL="47" NAME="?destroy@kdu_codestream@@QAEXXZ" PURGE="0" COMMENT="" />
    <EXPORT ORDINAL="48" NAME="?enable_restart@kdu_codestream@@QAEXXZ" PURGE="0" COMMENT="" />
    <EXPORT ORDINAL="49" NAME="?finalize_all@kdu_params@@QAEXH@Z" PURGE="4" COMMENT="" />
    <EXPORT ORDINAL="50" NAME="?finalize_all@kdu_params@@QAEXXZ" PURGE="0" COMMENT="" />
    <EXPORT ORDINAL="51" NAME="?find_string@kdu_params@@QAEPAV1@PADAAPBD@Z" PURGE="8" COMMENT="" />
    <EXPORT ORDINAL="52" NAME="?find_tile@kdu_codestream@@QAE_NHUkdu_coords@@AAU2@@Z" PURGE="16" COMMENT="" />
    <EXPORT ORDINAL="53" NAME="?flush@kdu_codestream@@QAEXQA_JHPAG_N@Z" PURGE="16" COMMENT="" />
    <EXPORT ORDINAL="54" NAME="?flush@kdu_message_formatter@@UAEX_N@Z" PURGE="4" COMMENT="" />
    <EXPORT ORDINAL="55" NAME="?generate_marker_segments@kdu_params@@QAEHPAVkdu_output@@HH@Z" PURGE="12" COMMENT="" />
    <EXPORT ORDINAL="56" NAME="?get@kdu_params@@QAE_NPBDHHAAH_N22@Z" PURGE="28" COMMENT="" />
    <EXPORT ORDINAL="57" NAME="?get@kdu_params@@QAE_NPBDHHAAM_N22@Z" PURGE="28" COMMENT="" />
    <EXPORT ORDINAL="58" NAME="?get@kdu_params@@QAE_NPBDHHAA_N_N22@Z" PURGE="28" COMMENT="" />
    <EXPORT ORDINAL="59" NAME="?get_K_max@kdu_subband@@QAEHXZ" PURGE="0" COMMENT="" />
    <EXPORT ORDINAL="60" NAME="?get_K_max_prime@kdu_subband@@QAEHXZ" PURGE="0" COMMENT="" />
    <EXPORT ORDINAL="61" NAME="?get_bit_depth@kdu_codestream@@QAEHH@Z" PURGE="4" COMMENT="" />
    <EXPORT ORDINAL="62" NAME="?get_bit_depth@kdu_tile_comp@@QAEH_N@Z" PURGE="4" COMMENT="" />
    <EXPORT ORDINAL="63" NAME="?get_block_size@kdu_subband@@QAEXAAUkdu_coords@@0@Z" PURGE="8" COMMENT="" />
    <EXPORT ORDINAL="64" NAME="?get_compressed_data_memory@kdu_codestream@@QAE_JXZ" PURGE="0" COMMENT="" />
    <EXPORT ORDINAL="65" NAME="?get_compressed_state_memory@kdu_codestream@@QAE_JXZ" PURGE="0" COMMENT="" />
    <EXPORT ORDINAL="66" NAME="?get_conservative_slope_threshold@kdu_subband@@QAEGXZ" PURGE="0" COMMENT="" />
    <EXPORT ORDINAL="67" NAME="?get_delta@kdu_subband@@QAEMXZ" PURGE="0" COMMENT="" />
    <EXPORT ORDINAL="68" NAME="?get_dims@kdu_codestream@@QAEXHAAUkdu_dims@@@Z" PURGE="8" COMMENT="" />
    <EXPORT ORDINAL="69" NAME="?get_dims@kdu_resolution@@QAEXAAUkdu_dims@@@Z" PURGE="4" COMMENT="" />
    <EXPORT ORDINAL="70" NAME="?get_dims@kdu_subband@@QAEXAAUkdu_dims@@@Z" PURGE="4" COMMENT="" />
    <EXPORT ORDINAL="71" NAME="?get_dwt_level@kdu_resolution@@QAEHXZ" PURGE="0" COMMENT="" />
    <EXPORT ORDINAL="72" NAME="?get_kernel_id@kdu_resolution@@QAEHXZ" PURGE="0" COMMENT="" />
    <EXPORT ORDINAL="73" NAME="?get_max_tile_layers@kdu_codestream@@QAEHXZ" PURGE="0" COMMENT="" />
    <EXPORT ORDINAL="74" NAME="?get_min_dwt_levels@kdu_codestream@@QAEHXZ" PURGE="0" COMMENT="" />
    <EXPORT ORDINAL="75" NAME="?get_msb_wmse@kdu_subband@@QAEMXZ" PURGE="0" COMMENT="" />
    <EXPORT ORDINAL="76" NAME="?get_num_components@kdu_codestream@@QAEHXZ" PURGE="0" COMMENT="" />
    <EXPORT ORDINAL="77" NAME="?get_num_components@kdu_tile@@QAEHXZ" PURGE="0" COMMENT="" />
    <EXPORT ORDINAL="78" NAME="?get_num_layers@kdu_tile@@QAEHXZ" PURGE="0" COMMENT="" />
    <EXPORT ORDINAL="79" NAME="?get_num_resolutions@kdu_tile_comp@@QAEHXZ" PURGE="0" COMMENT="" />
    <EXPORT ORDINAL="80" NAME="?get_num_tparts@kdu_codestream@@QAEHXZ" PURGE="0" COMMENT="" />
    <EXPORT ORDINAL="81" NAME="?get_packets@kdu_precinct@@QAE_NHHAAH0PAVkdu_output@@@Z" PURGE="20" COMMENT="" />
    <EXPORT ORDINAL="82" NAME="?get_registration@kdu_codestream@@QAEXHUkdu_coords@@AAU2@@Z" PURGE="16" COMMENT="" />
    <EXPORT ORDINAL="83" NAME="?get_reversible@kdu_resolution@@QAE_NXZ" PURGE="0" COMMENT="" />
    <EXPORT ORDINAL="84" NAME="?get_reversible@kdu_subband@@QAE_NXZ" PURGE="0" COMMENT="" />
    <EXPORT ORDINAL="85" NAME="?get_reversible@kdu_tile_comp@@QAE_NXZ" PURGE="0" COMMENT="" />
    <EXPORT ORDINAL="86" NAME="?get_roi_weight@kdu_subband@@QAE_NAAM@Z" PURGE="4" COMMENT="" />
    <EXPORT ORDINAL="87" NAME="?get_signed@kdu_codestream@@QAE_NH@Z" PURGE="4" COMMENT="" />
    <EXPORT ORDINAL="88" NAME="?get_signed@kdu_tile_comp@@QAE_NXZ" PURGE="0" COMMENT="" />
    <EXPORT ORDINAL="89" NAME="?get_subsampling@kdu_codestream@@QAEXHAAUkdu_coords@@@Z" PURGE="8" COMMENT="" />
    <EXPORT ORDINAL="90" NAME="?get_subsampling@kdu_tile_comp@@QAEXAAUkdu_coords@@@Z" PURGE="4" COMMENT="" />
    <EXPORT ORDINAL="91" NAME="?get_tile_dims@kdu_codestream@@QAEXUkdu_coords@@HAAUkdu_dims@@@Z" PURGE="16" COMMENT="" />
    <EXPORT ORDINAL="92" NAME="?get_timing_stats@kdu_codestream@@QAENPA_J_N@Z" PURGE="8" COMMENT="" />
    <EXPORT ORDINAL="93" NAME="?get_tnum@kdu_tile@@QAEHXZ" PURGE="0" COMMENT="" />
    <EXPORT ORDINAL="94" NAME="?get_total_bytes@kdu_codestream@@QAE_JXZ" PURGE="0" COMMENT="" />
    <EXPORT ORDINAL="95" NAME="?get_unique_id@kdu_precinct@@QAE_JXZ" PURGE="0" COMMENT="" />
    <EXPORT ORDINAL="96" NAME="?get_valid_blocks@kdu_precinct@@QAE_NHAAUkdu_dims@@@Z" PURGE="8" COMMENT="" />
    <EXPORT ORDINAL="97" NAME="?get_valid_blocks@kdu_subband@@QAEXAAUkdu_dims@@@Z" PURGE="4" COMMENT="" />
    <EXPORT ORDINAL="98" NAME="?get_valid_precincts@kdu_resolution@@QAEXAAUkdu_dims@@@Z" PURGE="4" COMMENT="" />
    <EXPORT ORDINAL="99" NAME="?get_valid_tiles@kdu_codestream@@QAEXAAUkdu_dims@@@Z" PURGE="4" COMMENT="" />
    <EXPORT ORDINAL="100" NAME="?get_ycc@kdu_tile@@QAE_NXZ" PURGE="0" COMMENT="" />
    <EXPORT ORDINAL="101" NAME="?kdu_convert_rgb_to_ycc@@YAXAAVkdu_line_buf@@00@Z" PURGE="0" COMMENT="" />
    <EXPORT ORDINAL="102" NAME="?kdu_convert_ycc_to_rgb@@YAXAAVkdu_line_buf@@00H@Z" PURGE="0" COMMENT="" />
    <EXPORT ORDINAL="103" NAME="?kdu_customize_errors@@YAXPAVkdu_message@@@Z" PURGE="0" COMMENT="" />
    <EXPORT ORDINAL="104" NAME="?kdu_customize_warnings@@YAXPAVkdu_message@@@Z" PURGE="0" COMMENT="" />
    <EXPORT ORDINAL="105" NAME="?link@kdu_params@@QAEPAV1@PAV1@HH@Z" PURGE="12" COMMENT="" />
    <EXPORT ORDINAL="106" NAME="?map_region@kdu_codestream@@QAEXHUkdu_dims@@AAU2@@Z" PURGE="24" COMMENT="" />
    <EXPORT ORDINAL="107" NAME="?open_block@kdu_precinct@@QAEPAUkdu_block@@HUkdu_coords@@@Z" PURGE="12" COMMENT="" />
    <EXPORT ORDINAL="108" NAME="?open_block@kdu_subband@@QAEPAUkdu_block@@Ukdu_coords@@PAH@Z" PURGE="12" COMMENT="" />
    <EXPORT ORDINAL="109" NAME="?open_precinct@kdu_resolution@@QAE?AVkdu_precinct@@Ukdu_coords@@@Z" PURGE="12" COMMENT="" />
    <EXPORT ORDINAL="110" NAME="?open_tile@kdu_codestream@@QAE?AVkdu_tile@@Ukdu_coords@@@Z" PURGE="12" COMMENT="" />
    <EXPORT ORDINAL="111" NAME="?parse_string@kdu_params@@QAE_NPBD@Z" PURGE="4" COMMENT="" />
    <EXPORT ORDINAL="112" NAME="?parse_string@kdu_params@@QAE_NPBDH@Z" PURGE="8" COMMENT="" />
    <EXPORT ORDINAL="113" NAME="?propagate_roi@kdu_resolution@@QAE_NXZ" PURGE="0" COMMENT="" />
    <EXPORT ORDINAL="114" NAME="?put_text@kdu_message_formatter@@UAEXPBD@Z" PURGE="4" COMMENT="" />
    <EXPORT ORDINAL="115" NAME="?restart@kdu_codestream@@QAEXPAVkdu_compressed_source@@@Z" PURGE="4" COMMENT="" />
    <EXPORT ORDINAL="116" NAME="?restart@kdu_codestream@@QAEXPAVkdu_compressed_target@@@Z" PURGE="4" COMMENT="" />
    <EXPORT ORDINAL="117" NAME="?restart@kdu_precinct@@QAEXXZ" PURGE="0" COMMENT="" />
    <EXPORT ORDINAL="118" NAME="?set@kdu_params@@QAEXPBDHHH@Z" PURGE="16" COMMENT="" />
    <EXPORT ORDINAL="119" NAME="?set@kdu_params@@QAEXPBDHHN@Z" PURGE="20" COMMENT="" />
    <EXPORT ORDINAL="120" NAME="?set@kdu_params@@QAEXPBDHH_N@Z" PURGE="16" COMMENT="" />
    <EXPORT ORDINAL="121" NAME="?set_derived@kdu_params@@QAEXPBD@Z" PURGE="4" COMMENT="" />
    <EXPORT ORDINAL="122" NAME="?set_fast@kdu_codestream@@QAEXXZ" PURGE="0" COMMENT="" />
    <EXPORT ORDINAL="123" NAME="?set_fussy@kdu_codestream@@QAEXXZ" PURGE="0" COMMENT="" />
    <EXPORT ORDINAL="124" NAME="?set_master_indent@kdu_message_formatter@@QAEXH@Z" PURGE="4" COMMENT="" />
    <EXPORT ORDINAL="125" NAME="?set_max_bytes@kdu_block@@QAEXH_N@Z" PURGE="8" COMMENT="" />
    <EXPORT ORDINAL="126" NAME="?set_max_bytes@kdu_codestream@@QAEX_J@Z" PURGE="8" COMMENT="" />
    <EXPORT ORDINAL="127" NAME="?set_max_contexts@kdu_block@@QAEXH@Z" PURGE="4" COMMENT="" />
    <EXPORT ORDINAL="128" NAME="?set_max_passes@kdu_block@@QAEXH_N@Z" PURGE="8" COMMENT="" />
    <EXPORT ORDINAL="129" NAME="?set_max_samples@kdu_block@@QAEXH@Z" PURGE="4" COMMENT="" />
    <EXPORT ORDINAL="130" NAME="?set_min_slope_threshold@kdu_codestream@@QAEXG@Z" PURGE="4" COMMENT="" />
    <EXPORT ORDINAL="131" NAME="?set_persistent@kdu_codestream@@QAEXXZ" PURGE="0" COMMENT="" />
    <EXPORT ORDINAL="132" NAME="?set_resilient@kdu_codestream@@QAEX_N@Z" PURGE="4" COMMENT="" />
    <EXPORT ORDINAL="133" NAME="?set_textualization@kdu_codestream@@QAEXPAVkdu_message@@@Z" PURGE="4" COMMENT="" />
    <EXPORT ORDINAL="134" NAME="?share_buffering@kdu_codestream@@QAEXV1@@Z" PURGE="4" COMMENT="" />
    <EXPORT ORDINAL="135" NAME="?size_packets@kdu_precinct@@QAE_NAAH0@Z" PURGE="8" COMMENT="" />
    <EXPORT ORDINAL="136" NAME="?textualize_attributes@kdu_params@@QAEXAAVkdu_message@@HH_N@Z" PURGE="16" COMMENT="" />
    <EXPORT ORDINAL="137" NAME="?textualize_attributes@kdu_params@@QAEXAAVkdu_message@@_N@Z" PURGE="8" COMMENT="" />
    <EXPORT ORDINAL="138" NAME="?trans_out@kdu_codestream@@QAEH_J@Z" PURGE="8" COMMENT="" />
    <EXPORT ORDINAL="139" NAME="?translate_marker_segment@kdu_params@@QAE_NGHQAEHH@Z" PURGE="20" COMMENT="" />
    <EXPORT ORDINAL="140" NAME="?which@kdu_resolution@@QAEHXZ" PURGE="0" COMMENT="" />
    <EXPORT ORDINAL="141" NAME="?which@kdu_subband@@QAEHXZ" PURGE="0" COMMENT="" />
</LIBRARY>

