<?xml version="1.0" encoding="UTF-8"?>
<LIBRARY NAME="kpt3hub.dll" PATH="/DLLArchive/etc/KPT3HUB.dll" DATE="Fri Jul 03 12:45:46 PDT 2020" VERSION="3, 0, 0, 2">
    <EXPORT ORDINAL="1" NAME="??0C22Matrix@@QAE@ABVC2Vector@@0@Z" PURGE="8" COMMENT="" />
    <EXPORT ORDINAL="2" NAME="??0C22Matrix@@QAE@M@Z" PURGE="4" COMMENT="" />
    <EXPORT ORDINAL="3" NAME="??0C22Matrix@@QAE@MMMM@Z" PURGE="16" COMMENT="" />
    <EXPORT ORDINAL="4" NAME="??0C22Matrix@@QAE@XZ" PURGE="0" COMMENT="" />
    <EXPORT ORDINAL="5" NAME="??0C23Affine@@QAE@ABV0@@Z" PURGE="4" COMMENT="" />
    <EXPORT ORDINAL="6" NAME="??0C23Affine@@QAE@NNNNNN@Z" PURGE="48" COMMENT="" />
    <EXPORT ORDINAL="7" NAME="??0C23Affine@@QAE@XZ" PURGE="0" COMMENT="" />
    <EXPORT ORDINAL="8" NAME="??0C2Vector@@QAE@M@Z" PURGE="4" COMMENT="" />
    <EXPORT ORDINAL="9" NAME="??0C2Vector@@QAE@MM@Z" PURGE="8" COMMENT="" />
    <EXPORT ORDINAL="10" NAME="??0C2iVector@@QAE@ABUtagPOINT@@@Z" PURGE="4" COMMENT="" />
    <EXPORT ORDINAL="11" NAME="??0C2iVector@@QAE@J@Z" PURGE="4" COMMENT="" />
    <EXPORT ORDINAL="12" NAME="??0C2iVector@@QAE@JJ@Z" PURGE="8" COMMENT="" />
    <EXPORT ORDINAL="13" NAME="??0C33Matrix@@QAE@ABVC3Vector@@00@Z" PURGE="12" COMMENT="" />
    <EXPORT ORDINAL="14" NAME="??0C33Matrix@@QAE@M@Z" PURGE="4" COMMENT="" />
    <EXPORT ORDINAL="15" NAME="??0C33Matrix@@QAE@MMMMMMMMM@Z" PURGE="36" COMMENT="" />
    <EXPORT ORDINAL="16" NAME="??0C33Matrix@@QAE@XZ" PURGE="0" COMMENT="" />
    <EXPORT ORDINAL="17" NAME="??0C33iMatrix@@QAE@ABVC3iVector@@00@Z" PURGE="12" COMMENT="" />
    <EXPORT ORDINAL="18" NAME="??0C33iMatrix@@QAE@J@Z" PURGE="4" COMMENT="" />
    <EXPORT ORDINAL="19" NAME="??0C33iMatrix@@QAE@JJJJJJJJJ@Z" PURGE="36" COMMENT="" />
    <EXPORT ORDINAL="20" NAME="??0C33iMatrix@@QAE@XZ" PURGE="0" COMMENT="" />
    <EXPORT ORDINAL="21" NAME="??0C3Vector@@QAE@ABVC2Vector@@@Z" PURGE="4" COMMENT="" />
    <EXPORT ORDINAL="22" NAME="??0C3Vector@@QAE@M@Z" PURGE="4" COMMENT="" />
    <EXPORT ORDINAL="23" NAME="??0C3Vector@@QAE@MMM@Z" PURGE="12" COMMENT="" />
    <EXPORT ORDINAL="24" NAME="??0C3iVector@@QAE@ABVC2iVector@@@Z" PURGE="4" COMMENT="" />
    <EXPORT ORDINAL="25" NAME="??0C3iVector@@QAE@J@Z" PURGE="4" COMMENT="" />
    <EXPORT ORDINAL="26" NAME="??0C3iVector@@QAE@JJJ@Z" PURGE="12" COMMENT="" />
    <EXPORT ORDINAL="27" NAME="??0C44Matrix@@QAE@ABVC33Matrix@@@Z" PURGE="4" COMMENT="" />
    <EXPORT ORDINAL="28" NAME="??0C44Matrix@@QAE@ABVC3Vector@@00@Z" PURGE="12" COMMENT="" />
    <EXPORT ORDINAL="29" NAME="??0C44Matrix@@QAE@ABVC4Vector@@000@Z" PURGE="16" COMMENT="" />
    <EXPORT ORDINAL="30" NAME="??0C44Matrix@@QAE@M@Z" PURGE="4" COMMENT="" />
    <EXPORT ORDINAL="31" NAME="??0C44Matrix@@QAE@MMMMMMMMMMMMMMMM@Z" PURGE="64" COMMENT="" />
    <EXPORT ORDINAL="32" NAME="??0C44Matrix@@QAE@XZ" PURGE="0" COMMENT="" />
    <EXPORT ORDINAL="33" NAME="??0C44iMatrix@@QAE@ABVC33iMatrix@@@Z" PURGE="4" COMMENT="" />
    <EXPORT ORDINAL="34" NAME="??0C44iMatrix@@QAE@ABVC3iVector@@00@Z" PURGE="12" COMMENT="" />
    <EXPORT ORDINAL="35" NAME="??0C44iMatrix@@QAE@ABVC4iVector@@000@Z" PURGE="16" COMMENT="" />
    <EXPORT ORDINAL="36" NAME="??0C44iMatrix@@QAE@J@Z" PURGE="4" COMMENT="" />
    <EXPORT ORDINAL="37" NAME="??0C44iMatrix@@QAE@JJJJJJJJJJJJJJJJ@Z" PURGE="64" COMMENT="" />
    <EXPORT ORDINAL="38" NAME="??0C44iMatrix@@QAE@XZ" PURGE="0" COMMENT="" />
    <EXPORT ORDINAL="39" NAME="??0C4Vector@@QAE@ABVC2Vector@@@Z" PURGE="4" COMMENT="" />
    <EXPORT ORDINAL="40" NAME="??0C4Vector@@QAE@ABVC3Vector@@@Z" PURGE="4" COMMENT="" />
    <EXPORT ORDINAL="41" NAME="??0C4Vector@@QAE@M@Z" PURGE="4" COMMENT="" />
    <EXPORT ORDINAL="42" NAME="??0C4Vector@@QAE@MMMM@Z" PURGE="16" COMMENT="" />
    <EXPORT ORDINAL="43" NAME="??0C4iVector@@QAE@ABVC2iVector@@@Z" PURGE="4" COMMENT="" />
    <EXPORT ORDINAL="44" NAME="??0C4iVector@@QAE@ABVC3iVector@@@Z" PURGE="4" COMMENT="" />
    <EXPORT ORDINAL="45" NAME="??0C4iVector@@QAE@J@Z" PURGE="4" COMMENT="" />
    <EXPORT ORDINAL="46" NAME="??0C4iVector@@QAE@JJJJ@Z" PURGE="16" COMMENT="" />
    <EXPORT ORDINAL="47" NAME="??0CAppContext@@QAE@ABV0@@Z" PURGE="4" COMMENT="" />
    <EXPORT ORDINAL="48" NAME="??0CAppContext@@QAE@QAX@Z" PURGE="4" COMMENT="" />
    <EXPORT ORDINAL="49" NAME="??0CAppl@@QAE@ABV0@@Z" PURGE="4" COMMENT="" />
    <EXPORT ORDINAL="50" NAME="??0CAppl@@QAE@KKKKKKKK@Z" PURGE="32" COMMENT="" />
    <EXPORT ORDINAL="51" NAME="??0CBaseObject@@QAE@ABV0@@Z" PURGE="4" COMMENT="" />
    <EXPORT ORDINAL="52" NAME="??0CBaseObject@@QAE@XZ" PURGE="0" COMMENT="" />
    <EXPORT ORDINAL="53" NAME="??0CBitmap@@QAE@ABV0@@Z" PURGE="4" COMMENT="" />
    <EXPORT ORDINAL="54" NAME="??0CBitmap@@QAE@ABVCBitmapInit@@@Z" PURGE="4" COMMENT="" />
    <EXPORT ORDINAL="55" NAME="??0CBitmap@@QAE@XZ" PURGE="0" COMMENT="" />
    <EXPORT ORDINAL="56" NAME="??0CBitmapInit@@QAE@ABV0@@Z" PURGE="4" COMMENT="" />
    <EXPORT ORDINAL="57" NAME="??0CBitmapInit@@QAE@JE@Z" PURGE="8" COMMENT="" />
    <EXPORT ORDINAL="58" NAME="??0CBitmapInit@@QAE@XZ" PURGE="0" COMMENT="" />
    <EXPORT ORDINAL="59" NAME="??0CButtonItem@@QAE@ABV0@@Z" PURGE="4" COMMENT="" />
    <EXPORT ORDINAL="60" NAME="??0CButtonItem@@QAE@ABVCDialogItemInit@@PAUSItemProperty@CDialogItem@@@Z" PURGE="8" COMMENT="" />
    <EXPORT ORDINAL="61" NAME="??0CCFEntry@@QAE@ABV0@@Z" PURGE="4" COMMENT="" />
    <EXPORT ORDINAL="62" NAME="??0CCFEntry@@QAE@JP6AJJPBVCCFEntryParms@@PAVCCFEntryData@@@ZJJ@Z" PURGE="16" COMMENT="" />
    <EXPORT ORDINAL="63" NAME="??0CCFEntryData@@QAE@ABV0@@Z" PURGE="4" COMMENT="" />
    <EXPORT ORDINAL="64" NAME="??0CCFEntryData@@QAE@JJJJ@Z" PURGE="16" COMMENT="" />
    <EXPORT ORDINAL="65" NAME="??0CCFEntryParms@@QAE@ABV0@@Z" PURGE="4" COMMENT="" />
    <EXPORT ORDINAL="66" NAME="??0CCFEntryParms@@QAE@JJJJ@Z" PURGE="16" COMMENT="" />
    <EXPORT ORDINAL="67" NAME="??0CCFQueue@CPluginAppl@@QAE@ABV01@@Z" PURGE="4" COMMENT="" />
    <EXPORT ORDINAL="68" NAME="??0CCFQueue@CPluginAppl@@QAE@KK@Z" PURGE="8" COMMENT="" />
    <EXPORT ORDINAL="69" NAME="??0CCanvas@@QAE@ABV0@@Z" PURGE="4" COMMENT="" />
    <EXPORT ORDINAL="70" NAME="??0CCanvas@@QAE@PAVCAppl@@ABVCiRect@@EJJ@Z" PURGE="20" COMMENT="" />
    <EXPORT ORDINAL="71" NAME="??0CCmFile@@QAE@ABUFSSpec@@@Z" PURGE="4" COMMENT="" />
    <EXPORT ORDINAL="72" NAME="??0CCmFile@@QAE@ABV0@@Z" PURGE="4" COMMENT="" />
    <EXPORT ORDINAL="73" NAME="??0CCmFunction@@QAE@ABV0@@Z" PURGE="4" COMMENT="" />
    <EXPORT ORDINAL="74" NAME="??0CCmFunction@@QAE@KKPAVCMemPool@@@Z" PURGE="12" COMMENT="" />
    <EXPORT ORDINAL="75" NAME="??0CConversionNavigator@@QAE@ABV0@@Z" PURGE="4" COMMENT="" />
    <EXPORT ORDINAL="76" NAME="??0CConversionNavigator@@QAE@W4EImagetype@0@PAVCMemBlock@@KPBVCiRect@@K@Z" PURGE="20" COMMENT="" />
    <EXPORT ORDINAL="77" NAME="??0CDecorationItem@@QAE@ABV0@@Z" PURGE="4" COMMENT="" />
    <EXPORT ORDINAL="78" NAME="??0CDecorationItem@@QAE@ABVCDialogItemInit@@PAUSItemProperty@CDialogItem@@@Z" PURGE="8" COMMENT="" />
    <EXPORT ORDINAL="79" NAME="??0CDialog@@QAE@ABV0@@Z" PURGE="4" COMMENT="" />
    <EXPORT ORDINAL="80" NAME="??0CDialog@@QAE@ABVCDialogInit@@@Z" PURGE="4" COMMENT="" />
    <EXPORT ORDINAL="81" NAME="??0CDialogInit@@QAE@ABV0@@Z" PURGE="4" COMMENT="" />
    <EXPORT ORDINAL="82" NAME="??0CDialogInit@@QAE@XZ" PURGE="0" COMMENT="" />
    <EXPORT ORDINAL="83" NAME="??0CDialogItem@@QAE@ABV0@@Z" PURGE="4" COMMENT="" />
    <EXPORT ORDINAL="84" NAME="??0CDialogItem@@QAE@ABVCDialogItemInit@@PAUSItemProperty@0@@Z" PURGE="8" COMMENT="" />
    <EXPORT ORDINAL="85" NAME="??0CDialogItemInit@@QAE@ABV0@@Z" PURGE="4" COMMENT="" />
    <EXPORT ORDINAL="86" NAME="??0CDialogItemInit@@QAE@XZ" PURGE="0" COMMENT="" />
    <EXPORT ORDINAL="87" NAME="??0CDialogItemList@@QAE@ABV0@@Z" PURGE="4" COMMENT="" />
    <EXPORT ORDINAL="88" NAME="??0CDialogItemList@@QAE@KKPAVCMemPool@@@Z" PURGE="12" COMMENT="" />
    <EXPORT ORDINAL="89" NAME="??0CDialogLayer@@QAE@ABV0@@Z" PURGE="4" COMMENT="" />
    <EXPORT ORDINAL="90" NAME="??0CDialogLayer@@QAE@KKKPAVCMemPool@@@Z" PURGE="16" COMMENT="" />
    <EXPORT ORDINAL="91" NAME="??0CDynArray@@QAE@ABV0@@Z" PURGE="4" COMMENT="" />
    <EXPORT ORDINAL="92" NAME="??0CDynArray@@QAE@KKPAVCMemPool@@@Z" PURGE="12" COMMENT="" />
    <EXPORT ORDINAL="93" NAME="??0CDynTable@@QAE@ABV0@@Z" PURGE="4" COMMENT="" />
    <EXPORT ORDINAL="94" NAME="??0CDynTable@@QAE@KKKPAVCMemPool@@@Z" PURGE="16" COMMENT="" />
    <EXPORT ORDINAL="95" NAME="??0CEditText@@QAE@ABV0@@Z" PURGE="4" COMMENT="" />
    <EXPORT ORDINAL="96" NAME="??0CEditText@@QAE@PAXAAVCiRect@@PAUSTextProperty@0@K@Z" PURGE="16" COMMENT="" />
    <EXPORT ORDINAL="97" NAME="??0CEditTextItem@@QAE@ABV0@@Z" PURGE="4" COMMENT="" />
    <EXPORT ORDINAL="98" NAME="??0CEditTextItem@@QAE@ABVCDialogItemInit@@PAUSItemProperty@CDialogItem@@@Z" PURGE="8" COMMENT="" />
    <EXPORT ORDINAL="99" NAME="??0CEffectItem@@QAE@ABV0@@Z" PURGE="4" COMMENT="" />
    <EXPORT ORDINAL="100" NAME="??0CEffectItem@@QAE@ABVCDialogItemInit@@PAUSItemProperty@CDialogItem@@@Z" PURGE="8" COMMENT="" />
    <EXPORT ORDINAL="101" NAME="??0CFadeAnimation@CImage@@QAE@ABV01@@Z" PURGE="4" COMMENT="" />
    <EXPORT ORDINAL="102" NAME="??0CFadeAnimation@CImage@@QAE@PAV1@00K@Z" PURGE="16" COMMENT="" />
    <EXPORT ORDINAL="103" NAME="??0CFile@@QAE@ABUFSSpec@@@Z" PURGE="4" COMMENT="" />
    <EXPORT ORDINAL="104" NAME="??0CFile@@QAE@ABV0@@Z" PURGE="4" COMMENT="" />
    <EXPORT ORDINAL="105" NAME="??0CFile@@QAE@XZ" PURGE="0" COMMENT="" />
    <EXPORT ORDINAL="106" NAME="??0CFrImNavigator@CImage@@QAE@ABV01@@Z" PURGE="4" COMMENT="" />
    <EXPORT ORDINAL="107" NAME="??0CFrImNavigator@CImage@@QAE@PAV1@EPBVCiRect@@@Z" PURGE="12" COMMENT="" />
    <EXPORT ORDINAL="108" NAME="??0CGlueItem@@QAE@ABV0@@Z" PURGE="4" COMMENT="" />
    <EXPORT ORDINAL="109" NAME="??0CGlueItem@@QAE@ABVCDialogItemInit@@PAUSItemProperty@CDialogItem@@@Z" PURGE="8" COMMENT="" />
    <EXPORT ORDINAL="110" NAME="??0CGradient@@QAE@ABV0@@Z" PURGE="4" COMMENT="" />
    <EXPORT ORDINAL="111" NAME="??0CGradient@@QAE@J@Z" PURGE="4" COMMENT="" />
    <EXPORT ORDINAL="112" NAME="??0CGradient@@QAE@XZ" PURGE="0" COMMENT="" />
    <EXPORT ORDINAL="113" NAME="??0CHolder@CSpoolMem@@QAE@AAV1@E@Z" PURGE="8" COMMENT="" />
    <EXPORT ORDINAL="114" NAME="??0CHolder@CSpoolMem@@QAE@ABV01@@Z" PURGE="4" COMMENT="" />
    <EXPORT ORDINAL="115" NAME="??0CHostEvent@@QAE@XZ" PURGE="0" COMMENT="" />
    <EXPORT ORDINAL="116" NAME="??0CImNavigator@CImage@@QAE@ABV01@@Z" PURGE="4" COMMENT="" />
    <EXPORT ORDINAL="117" NAME="??0CImNavigator@CImage@@QAE@PAV1@EPBVCiRect@@@Z" PURGE="12" COMMENT="" />
    <EXPORT ORDINAL="118" NAME="??0CImSwapper@@QAE@ABV0@@Z" PURGE="4" COMMENT="" />
    <EXPORT ORDINAL="119" NAME="??0CImSwapper@@QAE@PAVCImage@@PBVCiRect@@@Z" PURGE="8" COMMENT="" />
    <EXPORT ORDINAL="120" NAME="??0CImVector48@@QAE@K@Z" PURGE="4" COMMENT="" />
    <EXPORT ORDINAL="121" NAME="??0CImVector48@@QAE@KKK@Z" PURGE="12" COMMENT="" />
    <EXPORT ORDINAL="122" NAME="??0CImVector64@@QAE@ABVCImVector@@@Z" PURGE="4" COMMENT="" />
    <EXPORT ORDINAL="123" NAME="??0CImVector64@@QAE@K@Z" PURGE="4" COMMENT="" />
    <EXPORT ORDINAL="124" NAME="??0CImVector64@@QAE@KK@Z" PURGE="8" COMMENT="" />
    <EXPORT ORDINAL="125" NAME="??0CImVector64@@QAE@KKKK@Z" PURGE="16" COMMENT="" />
    <EXPORT ORDINAL="126" NAME="??0CImVector@@QAE@ABV0@@Z" PURGE="4" COMMENT="" />
    <EXPORT ORDINAL="127" NAME="??0CImVector@@QAE@EEE@Z" PURGE="12" COMMENT="" />
    <EXPORT ORDINAL="128" NAME="??0CImVector@@QAE@EEEE@Z" PURGE="16" COMMENT="" />
    <EXPORT ORDINAL="129" NAME="??0CImVector@@QAE@K@Z" PURGE="4" COMMENT="" />
    <EXPORT ORDINAL="130" NAME="??0CImVector@@QAE@PBV0@@Z" PURGE="4" COMMENT="" />
    <EXPORT ORDINAL="131" NAME="??0CImage@@QAE@ABV0@@Z" PURGE="4" COMMENT="" />
    <EXPORT ORDINAL="132" NAME="??0CImage@@QAE@PAVCSpoolEnv@@KKJ@Z" PURGE="16" COMMENT="" />
    <EXPORT ORDINAL="133" NAME="??0CImageProcessData@CNavProcess@@QAE@ABV01@@Z" PURGE="4" COMMENT="" />
    <EXPORT ORDINAL="134" NAME="??0CImageProcessData@CNavProcess@@QAE@PAVCImNavigator@CImage@@00ABVC2iVector@@ABVCiRect@@222@Z" PURGE="32" COMMENT="" />
    <EXPORT ORDINAL="135" NAME="??0CIterator@CDynArray@@QAE@ABV01@@Z" PURGE="4" COMMENT="" />
    <EXPORT ORDINAL="136" NAME="??0CIterator@CDynArray@@QAE@XZ" PURGE="0" COMMENT="" />
    <EXPORT ORDINAL="137" NAME="??0CIterator@CDynTable@@QAE@ABV01@@Z" PURGE="4" COMMENT="" />
    <EXPORT ORDINAL="138" NAME="??0CIterator@CDynTable@@QAE@XZ" PURGE="0" COMMENT="" />
    <EXPORT ORDINAL="139" NAME="??0CMaskPopupObject@@QAE@ABV0@@Z" PURGE="4" COMMENT="" />
    <EXPORT ORDINAL="140" NAME="??0CMaskPopupObject@@QAE@PAVCSpoolEnv@@PAXJ@Z" PURGE="12" COMMENT="" />
    <EXPORT ORDINAL="141" NAME="??0CMemBlock@@QAE@ABV0@@Z" PURGE="4" COMMENT="" />
    <EXPORT ORDINAL="142" NAME="??0CMemBlock@@QAE@KPAVCMemPool@@E@Z" PURGE="12" COMMENT="" />
    <EXPORT ORDINAL="143" NAME="??0CMemPool@@QAE@ABV0@@Z" PURGE="4" COMMENT="" />
    <EXPORT ORDINAL="144" NAME="??0CMemPool@@QAE@KP6AXAAKPAD@Z@Z" PURGE="8" COMMENT="" />
    <EXPORT ORDINAL="145" NAME="??0CMenu@@QAE@ABV0@@Z" PURGE="4" COMMENT="" />
    <EXPORT ORDINAL="146" NAME="??0CMenu@@QAE@ABVCMenuInit@@@Z" PURGE="4" COMMENT="" />
    <EXPORT ORDINAL="147" NAME="??0CMenu@@QAE@ABVCMenuInit@@PAV0@@Z" PURGE="8" COMMENT="" />
    <EXPORT ORDINAL="148" NAME="??0CMenuInit@@QAE@ABV0@@Z" PURGE="4" COMMENT="" />
    <EXPORT ORDINAL="149" NAME="??0CMenuInit@@QAE@PAVCMemPool@@PAXJE@Z" PURGE="16" COMMENT="" />
    <EXPORT ORDINAL="150" NAME="??0CMenuInit@@QAE@XZ" PURGE="0" COMMENT="" />
    <EXPORT ORDINAL="151" NAME="??0CMenuItemTable@CMenu@@QAE@ABV01@@Z" PURGE="4" COMMENT="" />
    <EXPORT ORDINAL="152" NAME="??0CMenuItemTable@CMenu@@QAE@PAVCMemPool@@@Z" PURGE="4" COMMENT="" />
    <EXPORT ORDINAL="153" NAME="??0CMirrorNav@@QAE@ABV0@@Z" PURGE="4" COMMENT="" />
    <EXPORT ORDINAL="154" NAME="??0CMirrorNav@@QAE@PAVCMemBlock@@KKPBVCiRect@@K@Z" PURGE="20" COMMENT="" />
    <EXPORT ORDINAL="155" NAME="??0CNavProcess@@QAE@ABV0@@Z" PURGE="4" COMMENT="" />
    <EXPORT ORDINAL="156" NAME="??0CNavProcess@@QAE@W4ENavProcessRegistry@0@J@Z" PURGE="8" COMMENT="" />
    <EXPORT ORDINAL="157" NAME="??0CNavigator@CMemBlock@@QAE@ABV01@@Z" PURGE="4" COMMENT="" />
    <EXPORT ORDINAL="158" NAME="??0CNavigator@CMemBlock@@QAE@PAV1@KKPBVCiRect@@K@Z" PURGE="20" COMMENT="" />
    <EXPORT ORDINAL="159" NAME="??0COffscreen@@QAE@ABV0@@Z" PURGE="4" COMMENT="" />
    <EXPORT ORDINAL="160" NAME="??0COffscreen@@QAE@ABVCiRect@@FPAXEJ@Z" PURGE="20" COMMENT="" />
    <EXPORT ORDINAL="161" NAME="??0COpacityItem@@QAE@ABV0@@Z" PURGE="4" COMMENT="" />
    <EXPORT ORDINAL="162" NAME="??0COpacityItem@@QAE@ABVCDialogItemInit@@PAUSItemProperty@CDialogItem@@@Z" PURGE="8" COMMENT="" />
    <EXPORT ORDINAL="163" NAME="??0CPDPort@@QAE@ABV0@@Z" PURGE="4" COMMENT="" />
    <EXPORT ORDINAL="164" NAME="??0CPDPort@@QAE@PAX@Z" PURGE="4" COMMENT="" />
    <EXPORT ORDINAL="165" NAME="??0CPlatformData@CImage@@QAE@ABV01@@Z" PURGE="4" COMMENT="" />
    <EXPORT ORDINAL="166" NAME="??0CPlatformData@CImage@@QAE@PAV1@E@Z" PURGE="8" COMMENT="" />
    <EXPORT ORDINAL="167" NAME="??0CPlatformData@CWinAppl@@QAE@ABV01@@Z" PURGE="4" COMMENT="" />
    <EXPORT ORDINAL="168" NAME="??0CPlatformData@CWinAppl@@QAE@XZ" PURGE="0" COMMENT="" />
    <EXPORT ORDINAL="169" NAME="??0CPlatformResFile@@QAE@ABUFSSpec@@@Z" PURGE="4" COMMENT="" />
    <EXPORT ORDINAL="170" NAME="??0CPlatformResFile@@QAE@ABV0@@Z" PURGE="4" COMMENT="" />
    <EXPORT ORDINAL="171" NAME="??0CPlatformResFile@@QAE@QAEJ@Z" PURGE="8" COMMENT="" />
    <EXPORT ORDINAL="172" NAME="??0CPlatformResFile@@QAE@XZ" PURGE="0" COMMENT="" />
    <EXPORT ORDINAL="173" NAME="??0CPlugin@@QAE@ABV0@@Z" PURGE="4" COMMENT="" />
    <EXPORT ORDINAL="174" NAME="??0CPlugin@@QAE@PAVCPluginAppl@@KPAVCMemPool@@@Z" PURGE="12" COMMENT="" />
    <EXPORT ORDINAL="175" NAME="??0CPluginAppl@@QAE@ABV0@@Z" PURGE="4" COMMENT="" />
    <EXPORT ORDINAL="176" NAME="??0CPluginAppl@@QAE@VCAppContext@@PAVCHostEvent@@KK@Z" PURGE="16" COMMENT="" />
    <EXPORT ORDINAL="177" NAME="??0CPluginManager@@QAE@ABV0@@Z" PURGE="4" COMMENT="" />
    <EXPORT ORDINAL="178" NAME="??0CPluginManager@@QAE@PAF@Z" PURGE="4" COMMENT="" />
    <EXPORT ORDINAL="179" NAME="??0CPluginRegistry@CPluginAppl@@QAE@ABV01@@Z" PURGE="4" COMMENT="" />
    <EXPORT ORDINAL="180" NAME="??0CPluginRegistry@CPluginAppl@@QAE@XZ" PURGE="0" COMMENT="" />
    <EXPORT ORDINAL="181" NAME="??0CPointerBusy@CAppl@@QAE@ABV01@@Z" PURGE="4" COMMENT="" />
    <EXPORT ORDINAL="182" NAME="??0CPointerBusy@CAppl@@QAE@PAV1@@Z" PURGE="4" COMMENT="" />
    <EXPORT ORDINAL="183" NAME="??0CPointerHider@CAppl@@QAE@ABV01@@Z" PURGE="4" COMMENT="" />
    <EXPORT ORDINAL="184" NAME="??0CPointerHider@CAppl@@QAE@PAV1@@Z" PURGE="4" COMMENT="" />
    <EXPORT ORDINAL="185" NAME="??0CPopupMenuItem@@QAE@ABV0@@Z" PURGE="4" COMMENT="" />
    <EXPORT ORDINAL="186" NAME="??0CPopupMenuItem@@QAE@ABVCDialogItemInit@@PAUSItemProperty@CDialogItem@@@Z" PURGE="8" COMMENT="" />
    <EXPORT ORDINAL="187" NAME="??0CPopupObject@@QAE@ABV0@@Z" PURGE="4" COMMENT="" />
    <EXPORT ORDINAL="188" NAME="??0CPopupObject@@QAE@PAXJ@Z" PURGE="8" COMMENT="" />
    <EXPORT ORDINAL="189" NAME="??0CPrefsFile@@QAE@ABUFSSpec@@PAVCMemPool@@@Z" PURGE="8" COMMENT="" />
    <EXPORT ORDINAL="190" NAME="??0CPrefsFile@@QAE@ABV0@@Z" PURGE="4" COMMENT="" />
    <EXPORT ORDINAL="191" NAME="??0CPrefsFile@@QAE@QAEPAVCMemPool@@@Z" PURGE="8" COMMENT="" />
    <EXPORT ORDINAL="192" NAME="??0CPrevImNavigator@CPreviewImage@@QAE@ABV01@@Z" PURGE="4" COMMENT="" />
    <EXPORT ORDINAL="193" NAME="??0CPrevImNavigator@CPreviewImage@@QAE@PAV1@EPBVCiRect@@@Z" PURGE="12" COMMENT="" />
    <EXPORT ORDINAL="194" NAME="??0CPreviewImage@@QAE@ABV0@@Z" PURGE="4" COMMENT="" />
    <EXPORT ORDINAL="195" NAME="??0CPreviewImage@@QAE@PAVCSpoolEnv@@KKJEJ@Z" PURGE="24" COMMENT="" />
    <EXPORT ORDINAL="196" NAME="??0CProcessData@CNavProcess@@QAE@ABV01@@Z" PURGE="4" COMMENT="" />
    <EXPORT ORDINAL="197" NAME="??0CProcessData@CNavProcess@@QAE@PAVCNavigator@CMemBlock@@00ABVC2iVector@@ABVCiRect@@222@Z" PURGE="32" COMMENT="" />
    <EXPORT ORDINAL="198" NAME="??0CRange@@QAE@M@Z" PURGE="4" COMMENT="" />
    <EXPORT ORDINAL="199" NAME="??0CRange@@QAE@MM@Z" PURGE="8" COMMENT="" />
    <EXPORT ORDINAL="200" NAME="??0CReceiverData@CAppl@@QAE@ABV01@@Z" PURGE="4" COMMENT="" />
    <EXPORT ORDINAL="201" NAME="??0CReceiverData@CAppl@@QAE@PAV1@PAD@Z" PURGE="8" COMMENT="" />
    <EXPORT ORDINAL="202" NAME="??0CRect@@QAE@ABUtagRECT@@@Z" PURGE="4" COMMENT="" />
    <EXPORT ORDINAL="203" NAME="??0CRect@@QAE@ABVC2Vector@@0@Z" PURGE="8" COMMENT="" />
    <EXPORT ORDINAL="204" NAME="??0CRect@@QAE@ABVC2Vector@@@Z" PURGE="4" COMMENT="" />
    <EXPORT ORDINAL="205" NAME="??0CRect@@QAE@M@Z" PURGE="4" COMMENT="" />
    <EXPORT ORDINAL="206" NAME="??0CRect@@QAE@MMMM@Z" PURGE="16" COMMENT="" />
    <EXPORT ORDINAL="207" NAME="??0CRegion@@QAE@ABV0@@Z" PURGE="4" COMMENT="" />
    <EXPORT ORDINAL="208" NAME="??0CRegion@@QAE@PAV0@@Z" PURGE="4" COMMENT="" />
    <EXPORT ORDINAL="209" NAME="??0CRegion@@QAE@XZ" PURGE="0" COMMENT="" />
    <EXPORT ORDINAL="210" NAME="??0CRenderPeriod@@QAE@ABV0@@Z" PURGE="4" COMMENT="" />
    <EXPORT ORDINAL="211" NAME="??0CRenderPeriod@@QAE@XZ" PURGE="0" COMMENT="" />
    <EXPORT ORDINAL="212" NAME="??0CResItemTable@CResourceFile@@QAE@ABV01@@Z" PURGE="4" COMMENT="" />
    <EXPORT ORDINAL="213" NAME="??0CResItemTable@CResourceFile@@QAE@PAVCMemPool@@@Z" PURGE="4" COMMENT="" />
    <EXPORT ORDINAL="214" NAME="??0CResTypeTable@CResourceFile@@QAE@ABV01@@Z" PURGE="4" COMMENT="" />
    <EXPORT ORDINAL="215" NAME="??0CResTypeTable@CResourceFile@@QAE@KPAVCMemPool@@@Z" PURGE="8" COMMENT="" />
    <EXPORT ORDINAL="216" NAME="??0CResourceFile@@QAE@ABUFSSpec@@PAVCMemPool@@@Z" PURGE="8" COMMENT="" />
    <EXPORT ORDINAL="217" NAME="??0CResourceFile@@QAE@ABV0@@Z" PURGE="4" COMMENT="" />
    <EXPORT ORDINAL="218" NAME="??0CResourceFile@@QAE@QAEJPAVCMemPool@@@Z" PURGE="12" COMMENT="" />
    <EXPORT ORDINAL="219" NAME="??0CRndSeed@@QAE@K@Z" PURGE="4" COMMENT="" />
    <EXPORT ORDINAL="220" NAME="??0CRotationItem@@QAE@ABV0@@Z" PURGE="4" COMMENT="" />
    <EXPORT ORDINAL="221" NAME="??0CRotationItem@@QAE@ABVCDialogItemInit@@PAUSItemProperty@CDialogItem@@@Z" PURGE="8" COMMENT="" />
    <EXPORT ORDINAL="222" NAME="??0CSaScanner@CSpoolArray@@QAE@ABV01@@Z" PURGE="4" COMMENT="" />
    <EXPORT ORDINAL="223" NAME="??0CSaScanner@CSpoolArray@@QAE@PAV1@EPBVCiRange@@@Z" PURGE="12" COMMENT="" />
    <EXPORT ORDINAL="224" NAME="??0CScanner@CMemBlock@@QAE@ABV01@@Z" PURGE="4" COMMENT="" />
    <EXPORT ORDINAL="225" NAME="??0CScanner@CMemBlock@@QAE@PAV1@KPBVCiRange@@@Z" PURGE="12" COMMENT="" />
    <EXPORT ORDINAL="226" NAME="??0CScreenPort@@QAE@ABV0@@Z" PURGE="4" COMMENT="" />
    <EXPORT ORDINAL="227" NAME="??0CScreenPort@@QAE@XZ" PURGE="0" COMMENT="" />
    <EXPORT ORDINAL="228" NAME="??0CSelector@CMemPool@@QAE@ABV01@@Z" PURGE="4" COMMENT="" />
    <EXPORT ORDINAL="229" NAME="??0CSelector@CMemPool@@QAE@PBV1@@Z" PURGE="4" COMMENT="" />
    <EXPORT ORDINAL="230" NAME="??0CSgNavigator@CSpoolGrid@@QAE@ABV01@@Z" PURGE="4" COMMENT="" />
    <EXPORT ORDINAL="231" NAME="??0CSgNavigator@CSpoolGrid@@QAE@PAV1@EPBVCiRect@@@Z" PURGE="12" COMMENT="" />
    <EXPORT ORDINAL="232" NAME="??0CShadowData@CImage@@QAE@ABV01@@Z" PURGE="4" COMMENT="" />
    <EXPORT ORDINAL="233" NAME="??0CShadowData@CImage@@QAE@ABVC2iVector@@KMPBVCiRect@@E@Z" PURGE="20" COMMENT="" />
    <EXPORT ORDINAL="234" NAME="??0CSimpleTexture@CTexture@@QAE@ABV01@@Z" PURGE="4" COMMENT="" />
    <EXPORT ORDINAL="235" NAME="??0CSimpleTexture@CTexture@@QAE@PAV01@@Z" PURGE="4" COMMENT="" />
    <EXPORT ORDINAL="236" NAME="??0CSimpleTexture@CTexture@@QAE@XZ" PURGE="0" COMMENT="" />
    <EXPORT ORDINAL="237" NAME="??0CSliderItem@@QAE@ABV0@@Z" PURGE="4" COMMENT="" />
    <EXPORT ORDINAL="238" NAME="??0CSliderItem@@QAE@ABVCDialogItemInit@@PAUSItemProperty@CDialogItem@@@Z" PURGE="8" COMMENT="" />
    <EXPORT ORDINAL="239" NAME="??0CSliderPopup@@QAE@ABV0@@Z" PURGE="4" COMMENT="" />
    <EXPORT ORDINAL="240" NAME="??0CSliderPopup@@QAE@PAXJJJJ@Z" PURGE="20" COMMENT="" />
    <EXPORT ORDINAL="241" NAME="??0CSliderWidgetItem@@QAE@ABV0@@Z" PURGE="4" COMMENT="" />
    <EXPORT ORDINAL="242" NAME="??0CSliderWidgetItem@@QAE@ABVCDialogItemInit@@PAUSItemProperty@CDialogItem@@@Z" PURGE="8" COMMENT="" />
    <EXPORT ORDINAL="243" NAME="??0CSpoolArray@@QAE@ABV0@@Z" PURGE="4" COMMENT="" />
    <EXPORT ORDINAL="244" NAME="??0CSpoolArray@@QAE@PAVCSpoolEnv@@KKJ@Z" PURGE="16" COMMENT="" />
    <EXPORT ORDINAL="245" NAME="??0CSpoolEnv@@QAE@ABV0@@Z" PURGE="4" COMMENT="" />
    <EXPORT ORDINAL="246" NAME="??0CSpoolEnv@@QAE@PAVCMemPool@@KKW4ESortBy@0@PBUFSSpec@@E@Z" PURGE="24" COMMENT="" />
    <EXPORT ORDINAL="247" NAME="??0CSpoolGrid@@QAE@ABV0@@Z" PURGE="4" COMMENT="" />
    <EXPORT ORDINAL="248" NAME="??0CSpoolGrid@@QAE@PAVCSpoolEnv@@KKKKJ@Z" PURGE="24" COMMENT="" />
    <EXPORT ORDINAL="249" NAME="??0CSpoolMem@@QAE@ABV0@@Z" PURGE="4" COMMENT="" />
    <EXPORT ORDINAL="250" NAME="??0CSpoolMem@@QAE@PAVCCmFile@@KKPAVCMemPool@@@Z" PURGE="16" COMMENT="" />
    <EXPORT ORDINAL="251" NAME="??0CStaticTextItem@@QAE@ABV0@@Z" PURGE="4" COMMENT="" />
    <EXPORT ORDINAL="252" NAME="??0CStaticTextItem@@QAE@ABVCDialogItemInit@@PAUSItemProperty@CDialogItem@@@Z" PURGE="8" COMMENT="" />
    <EXPORT ORDINAL="253" NAME="??0CStatusTextTable@CDialogItem@@QAE@ABV01@@Z" PURGE="4" COMMENT="" />
    <EXPORT ORDINAL="254" NAME="??0CStatusTextTable@CDialogItem@@QAE@XZ" PURGE="0" COMMENT="" />
    <EXPORT ORDINAL="255" NAME="??0CSubSampleParams@CConversionNavigator@@QAE@ABV01@@Z" PURGE="4" COMMENT="" />
    <EXPORT ORDINAL="256" NAME="??0CSubSampleParams@CConversionNavigator@@QAE@ABVCiRect@@AAV2@ABVC2iVector@@@Z" PURGE="12" COMMENT="" />
    <EXPORT ORDINAL="257" NAME="??0CSubscriber@CSpoolEnv@@QAE@ABV01@@Z" PURGE="4" COMMENT="" />
    <EXPORT ORDINAL="258" NAME="??0CSubscriber@CSpoolEnv@@QAE@PAV1@KKJ@Z" PURGE="16" COMMENT="" />
    <EXPORT ORDINAL="259" NAME="??0CTexture@@QAE@ABV0@@Z" PURGE="4" COMMENT="" />
    <EXPORT ORDINAL="260" NAME="??0CTexture@@QAE@XZ" PURGE="0" COMMENT="" />
    <EXPORT ORDINAL="261" NAME="??0CTextureProcess@@QAE@ABV0@@Z" PURGE="4" COMMENT="" />
    <EXPORT ORDINAL="262" NAME="??0CTextureProcess@@QAE@W4ENavProcessRegistry@CNavProcess@@@Z" PURGE="4" COMMENT="" />
    <EXPORT ORDINAL="263" NAME="??0CTimer@@QAE@ABV0@@Z" PURGE="4" COMMENT="" />
    <EXPORT ORDINAL="264" NAME="??0CTimer@@QAE@XZ" PURGE="0" COMMENT="" />
    <EXPORT ORDINAL="265" NAME="??0CToggleButtonItem@@QAE@ABV0@@Z" PURGE="4" COMMENT="" />
    <EXPORT ORDINAL="266" NAME="??0CToggleButtonItem@@QAE@ABVCDialogItemInit@@PAUSItemProperty@CDialogItem@@@Z" PURGE="8" COMMENT="" />
    <EXPORT ORDINAL="267" NAME="??0CUIData@@QAE@ABV0@@Z" PURGE="4" COMMENT="" />
    <EXPORT ORDINAL="268" NAME="??0CUIData@@QAE@JJJ@Z" PURGE="12" COMMENT="" />
    <EXPORT ORDINAL="269" NAME="??0CUIData@@QAE@JJJAAVCUITrackInfo@@@Z" PURGE="16" COMMENT="" />
    <EXPORT ORDINAL="270" NAME="??0CUITrackInfo@@QAE@ABV0@@Z" PURGE="4" COMMENT="" />
    <EXPORT ORDINAL="271" NAME="??0CUITrackInfo@@QAE@JJJJJPAD@Z" PURGE="24" COMMENT="" />
    <EXPORT ORDINAL="272" NAME="??0CUITrackInfo@@QAE@XZ" PURGE="0" COMMENT="" />
    <EXPORT ORDINAL="273" NAME="??0CUniMotion@@QAE@ABV0@@Z" PURGE="4" COMMENT="" />
    <EXPORT ORDINAL="274" NAME="??0CUniMotion@@QAE@MABVCRange@@0000W4EAccType@0@E@Z" PURGE="32" COMMENT="" />
    <EXPORT ORDINAL="275" NAME="??0CUserParamStack@CNavProcess@@QAE@ABV01@@Z" PURGE="4" COMMENT="" />
    <EXPORT ORDINAL="276" NAME="??0CUserParamStack@CNavProcess@@QAE@JJ@Z" PURGE="8" COMMENT="" />
    <EXPORT ORDINAL="277" NAME="??0CWinAppl@@QAE@ABV0@@Z" PURGE="4" COMMENT="" />
    <EXPORT ORDINAL="278" NAME="??0CWinAppl@@QAE@PAX0EKKKKKKKK@Z" PURGE="44" COMMENT="" />
    <EXPORT ORDINAL="279" NAME="??0CWindowsEnv@@QAE@XZ" PURGE="0" COMMENT="" />
    <EXPORT ORDINAL="280" NAME="??0CiRange@@QAE@J@Z" PURGE="4" COMMENT="" />
    <EXPORT ORDINAL="281" NAME="??0CiRange@@QAE@JJ@Z" PURGE="8" COMMENT="" />
    <EXPORT ORDINAL="282" NAME="??0CiRect@@QAE@ABUtagRECT@@@Z" PURGE="4" COMMENT="" />
    <EXPORT ORDINAL="283" NAME="??0CiRect@@QAE@ABVC2iVector@@0@Z" PURGE="8" COMMENT="" />
    <EXPORT ORDINAL="284" NAME="??0CiRect@@QAE@ABVC2iVector@@@Z" PURGE="4" COMMENT="" />
    <EXPORT ORDINAL="285" NAME="??0CiRect@@QAE@J@Z" PURGE="4" COMMENT="" />
    <EXPORT ORDINAL="286" NAME="??0CiRect@@QAE@JJJJ@Z" PURGE="16" COMMENT="" />
    <EXPORT ORDINAL="287" NAME="??0STextureUser@CTextureProcess@@QAE@ABV01@@Z" PURGE="4" COMMENT="" />
    <EXPORT ORDINAL="288" NAME="??0STextureUser@CTextureProcess@@QAE@XZ" PURGE="0" COMMENT="" />
    <EXPORT ORDINAL="289" NAME="??1C22Matrix@@QAE@XZ" PURGE="0" COMMENT="" />
    <EXPORT ORDINAL="290" NAME="??1C23Affine@@QAE@XZ" PURGE="0" COMMENT="" />
    <EXPORT ORDINAL="291" NAME="??1C2Vector@@QAE@XZ" PURGE="0" COMMENT="" />
    <EXPORT ORDINAL="292" NAME="??1C2iVector@@QAE@XZ" PURGE="0" COMMENT="" />
    <EXPORT ORDINAL="293" NAME="??1C33Matrix@@QAE@XZ" PURGE="0" COMMENT="" />
    <EXPORT ORDINAL="294" NAME="??1C33iMatrix@@QAE@XZ" PURGE="0" COMMENT="" />
    <EXPORT ORDINAL="295" NAME="??1C3Vector@@QAE@XZ" PURGE="0" COMMENT="" />
    <EXPORT ORDINAL="296" NAME="??1C3iVector@@QAE@XZ" PURGE="0" COMMENT="" />
    <EXPORT ORDINAL="297" NAME="??1C44Matrix@@QAE@XZ" PURGE="0" COMMENT="" />
    <EXPORT ORDINAL="298" NAME="??1C44iMatrix@@QAE@XZ" PURGE="0" COMMENT="" />
    <EXPORT ORDINAL="299" NAME="??1C4Vector@@QAE@XZ" PURGE="0" COMMENT="" />
    <EXPORT ORDINAL="300" NAME="??1C4iVector@@QAE@XZ" PURGE="0" COMMENT="" />
    <EXPORT ORDINAL="301" NAME="??1CAppContext@@QAE@XZ" PURGE="0" COMMENT="" />
    <EXPORT ORDINAL="302" NAME="??1CAppl@@UAE@XZ" PURGE="0" COMMENT="" />
    <EXPORT ORDINAL="303" NAME="??1CBaseObject@@UAE@XZ" PURGE="0" COMMENT="" />
    <EXPORT ORDINAL="304" NAME="??1CBitmap@@UAE@XZ" PURGE="0" COMMENT="" />
    <EXPORT ORDINAL="305" NAME="??1CBitmapInit@@UAE@XZ" PURGE="0" COMMENT="" />
    <EXPORT ORDINAL="306" NAME="??1CButtonItem@@UAE@XZ" PURGE="0" COMMENT="" />
    <EXPORT ORDINAL="307" NAME="??1CCFEntry@@UAE@XZ" PURGE="0" COMMENT="" />
    <EXPORT ORDINAL="308" NAME="??1CCFEntryData@@UAE@XZ" PURGE="0" COMMENT="" />
    <EXPORT ORDINAL="309" NAME="??1CCFEntryParms@@UAE@XZ" PURGE="0" COMMENT="" />
    <EXPORT ORDINAL="310" NAME="??1CCFQueue@CPluginAppl@@UAE@XZ" PURGE="0" COMMENT="" />
    <EXPORT ORDINAL="311" NAME="??1CCanvas@@UAE@XZ" PURGE="0" COMMENT="" />
    <EXPORT ORDINAL="312" NAME="??1CCmFile@@UAE@XZ" PURGE="0" COMMENT="" />
    <EXPORT ORDINAL="313" NAME="??1CCmFunction@@UAE@XZ" PURGE="0" COMMENT="" />
    <EXPORT ORDINAL="314" NAME="??1CConversionNavigator@@UAE@XZ" PURGE="0" COMMENT="" />
    <EXPORT ORDINAL="315" NAME="??1CDecorationItem@@UAE@XZ" PURGE="0" COMMENT="" />
    <EXPORT ORDINAL="316" NAME="??1CDialog@@UAE@XZ" PURGE="0" COMMENT="" />
    <EXPORT ORDINAL="317" NAME="??1CDialogInit@@UAE@XZ" PURGE="0" COMMENT="" />
    <EXPORT ORDINAL="318" NAME="??1CDialogItem@@UAE@XZ" PURGE="0" COMMENT="" />
    <EXPORT ORDINAL="319" NAME="??1CDialogItemInit@@UAE@XZ" PURGE="0" COMMENT="" />
    <EXPORT ORDINAL="320" NAME="??1CDialogItemList@@UAE@XZ" PURGE="0" COMMENT="" />
    <EXPORT ORDINAL="321" NAME="??1CDialogLayer@@UAE@XZ" PURGE="0" COMMENT="" />
    <EXPORT ORDINAL="322" NAME="??1CDynArray@@UAE@XZ" PURGE="0" COMMENT="" />
    <EXPORT ORDINAL="323" NAME="??1CDynTable@@UAE@XZ" PURGE="0" COMMENT="" />
    <EXPORT ORDINAL="324" NAME="??1CEditText@@UAE@XZ" PURGE="0" COMMENT="" />
    <EXPORT ORDINAL="325" NAME="??1CEditTextItem@@UAE@XZ" PURGE="0" COMMENT="" />
    <EXPORT ORDINAL="326" NAME="??1CEffectItem@@UAE@XZ" PURGE="0" COMMENT="" />
    <EXPORT ORDINAL="327" NAME="??1CFadeAnimation@CImage@@UAE@XZ" PURGE="0" COMMENT="" />
    <EXPORT ORDINAL="328" NAME="??1CFile@@UAE@XZ" PURGE="0" COMMENT="" />
    <EXPORT ORDINAL="329" NAME="??1CFrImNavigator@CImage@@UAE@XZ" PURGE="0" COMMENT="" />
    <EXPORT ORDINAL="330" NAME="??1CGlueItem@@UAE@XZ" PURGE="0" COMMENT="" />
    <EXPORT ORDINAL="331" NAME="??1CGradient@@UAE@XZ" PURGE="0" COMMENT="" />
    <EXPORT ORDINAL="332" NAME="??1CHolder@CSpoolMem@@UAE@XZ" PURGE="0" COMMENT="" />
    <EXPORT ORDINAL="333" NAME="??1CHostEvent@@QAE@XZ" PURGE="0" COMMENT="" />
    <EXPORT ORDINAL="334" NAME="??1CImNavigator@CImage@@UAE@XZ" PURGE="0" COMMENT="" />
    <EXPORT ORDINAL="335" NAME="??1CImSwapper@@UAE@XZ" PURGE="0" COMMENT="" />
    <EXPORT ORDINAL="336" NAME="??1CImVector@@QAE@XZ" PURGE="0" COMMENT="" />
    <EXPORT ORDINAL="337" NAME="??1CImage@@UAE@XZ" PURGE="0" COMMENT="" />
    <EXPORT ORDINAL="338" NAME="??1CImageProcessData@CNavProcess@@UAE@XZ" PURGE="0" COMMENT="" />
    <EXPORT ORDINAL="339" NAME="??1CIterator@CDynArray@@UAE@XZ" PURGE="0" COMMENT="" />
    <EXPORT ORDINAL="340" NAME="??1CIterator@CDynTable@@UAE@XZ" PURGE="0" COMMENT="" />
    <EXPORT ORDINAL="341" NAME="??1CMaskPopupObject@@UAE@XZ" PURGE="0" COMMENT="" />
    <EXPORT ORDINAL="342" NAME="??1CMemBlock@@UAE@XZ" PURGE="0" COMMENT="" />
    <EXPORT ORDINAL="343" NAME="??1CMemPool@@UAE@XZ" PURGE="0" COMMENT="" />
    <EXPORT ORDINAL="344" NAME="??1CMenu@@UAE@XZ" PURGE="0" COMMENT="" />
    <EXPORT ORDINAL="345" NAME="??1CMenuInit@@UAE@XZ" PURGE="0" COMMENT="" />
    <EXPORT ORDINAL="346" NAME="??1CMenuItemTable@CMenu@@UAE@XZ" PURGE="0" COMMENT="" />
    <EXPORT ORDINAL="347" NAME="??1CMirrorNav@@UAE@XZ" PURGE="0" COMMENT="" />
    <EXPORT ORDINAL="348" NAME="??1CNavProcess@@UAE@XZ" PURGE="0" COMMENT="" />
    <EXPORT ORDINAL="349" NAME="??1CNavigator@CMemBlock@@UAE@XZ" PURGE="0" COMMENT="" />
    <EXPORT ORDINAL="350" NAME="??1COffscreen@@UAE@XZ" PURGE="0" COMMENT="" />
    <EXPORT ORDINAL="351" NAME="??1COpacityItem@@UAE@XZ" PURGE="0" COMMENT="" />
    <EXPORT ORDINAL="352" NAME="??1CPDPort@@UAE@XZ" PURGE="0" COMMENT="" />
    <EXPORT ORDINAL="353" NAME="??1CPlatformData@CImage@@UAE@XZ" PURGE="0" COMMENT="" />
    <EXPORT ORDINAL="354" NAME="??1CPlatformData@CWinAppl@@UAE@XZ" PURGE="0" COMMENT="" />
    <EXPORT ORDINAL="355" NAME="??1CPlatformResFile@@UAE@XZ" PURGE="0" COMMENT="" />
    <EXPORT ORDINAL="356" NAME="??1CPlugin@@UAE@XZ" PURGE="0" COMMENT="" />
    <EXPORT ORDINAL="357" NAME="??1CPluginAppl@@UAE@XZ" PURGE="0" COMMENT="" />
    <EXPORT ORDINAL="358" NAME="??1CPluginManager@@UAE@XZ" PURGE="0" COMMENT="" />
    <EXPORT ORDINAL="359" NAME="??1CPluginRegistry@CPluginAppl@@UAE@XZ" PURGE="0" COMMENT="" />
    <EXPORT ORDINAL="360" NAME="??1CPointerBusy@CAppl@@UAE@XZ" PURGE="0" COMMENT="" />
    <EXPORT ORDINAL="361" NAME="??1CPointerHider@CAppl@@UAE@XZ" PURGE="0" COMMENT="" />
    <EXPORT ORDINAL="362" NAME="??1CPopupMenuItem@@UAE@XZ" PURGE="0" COMMENT="" />
    <EXPORT ORDINAL="363" NAME="??1CPopupObject@@UAE@XZ" PURGE="0" COMMENT="" />
    <EXPORT ORDINAL="364" NAME="??1CPrefsFile@@UAE@XZ" PURGE="0" COMMENT="" />
    <EXPORT ORDINAL="365" NAME="??1CPrevImNavigator@CPreviewImage@@UAE@XZ" PURGE="0" COMMENT="" />
    <EXPORT ORDINAL="366" NAME="??1CPreviewImage@@UAE@XZ" PURGE="0" COMMENT="" />
    <EXPORT ORDINAL="367" NAME="??1CProcessData@CNavProcess@@UAE@XZ" PURGE="0" COMMENT="" />
    <EXPORT ORDINAL="368" NAME="??1CRange@@QAE@XZ" PURGE="0" COMMENT="" />
    <EXPORT ORDINAL="369" NAME="??1CReceiverData@CAppl@@UAE@XZ" PURGE="0" COMMENT="" />
    <EXPORT ORDINAL="370" NAME="??1CRect@@QAE@XZ" PURGE="0" COMMENT="" />
    <EXPORT ORDINAL="371" NAME="??1CRegion@@UAE@XZ" PURGE="0" COMMENT="" />
    <EXPORT ORDINAL="372" NAME="??1CRenderPeriod@@UAE@XZ" PURGE="0" COMMENT="" />
    <EXPORT ORDINAL="373" NAME="??1CResItemTable@CResourceFile@@UAE@XZ" PURGE="0" COMMENT="" />
    <EXPORT ORDINAL="374" NAME="??1CResTypeTable@CResourceFile@@UAE@XZ" PURGE="0" COMMENT="" />
    <EXPORT ORDINAL="375" NAME="??1CResourceFile@@UAE@XZ" PURGE="0" COMMENT="" />
    <EXPORT ORDINAL="376" NAME="??1CRotationItem@@UAE@XZ" PURGE="0" COMMENT="" />
    <EXPORT ORDINAL="377" NAME="??1CSaScanner@CSpoolArray@@UAE@XZ" PURGE="0" COMMENT="" />
    <EXPORT ORDINAL="378" NAME="??1CScanner@CMemBlock@@UAE@XZ" PURGE="0" COMMENT="" />
    <EXPORT ORDINAL="379" NAME="??1CScreenPort@@UAE@XZ" PURGE="0" COMMENT="" />
    <EXPORT ORDINAL="380" NAME="??1CSelector@CMemPool@@UAE@XZ" PURGE="0" COMMENT="" />
    <EXPORT ORDINAL="381" NAME="??1CSgNavigator@CSpoolGrid@@UAE@XZ" PURGE="0" COMMENT="" />
    <EXPORT ORDINAL="382" NAME="??1CShadowData@CImage@@UAE@XZ" PURGE="0" COMMENT="" />
    <EXPORT ORDINAL="383" NAME="??1CSimpleTexture@CTexture@@UAE@XZ" PURGE="0" COMMENT="" />
    <EXPORT ORDINAL="384" NAME="??1CSliderItem@@UAE@XZ" PURGE="0" COMMENT="" />
    <EXPORT ORDINAL="385" NAME="??1CSliderPopup@@UAE@XZ" PURGE="0" COMMENT="" />
    <EXPORT ORDINAL="386" NAME="??1CSliderWidgetItem@@UAE@XZ" PURGE="0" COMMENT="" />
    <EXPORT ORDINAL="387" NAME="??1CSpoolArray@@UAE@XZ" PURGE="0" COMMENT="" />
    <EXPORT ORDINAL="388" NAME="??1CSpoolEnv@@UAE@XZ" PURGE="0" COMMENT="" />
    <EXPORT ORDINAL="389" NAME="??1CSpoolGrid@@UAE@XZ" PURGE="0" COMMENT="" />
    <EXPORT ORDINAL="390" NAME="??1CSpoolMem@@UAE@XZ" PURGE="0" COMMENT="" />
    <EXPORT ORDINAL="391" NAME="??1CStaticTextItem@@UAE@XZ" PURGE="0" COMMENT="" />
    <EXPORT ORDINAL="392" NAME="??1CStatusTextTable@CDialogItem@@UAE@XZ" PURGE="0" COMMENT="" />
    <EXPORT ORDINAL="393" NAME="??1CSubSampleParams@CConversionNavigator@@UAE@XZ" PURGE="0" COMMENT="" />
    <EXPORT ORDINAL="394" NAME="??1CSubscriber@CSpoolEnv@@UAE@XZ" PURGE="0" COMMENT="" />
    <EXPORT ORDINAL="395" NAME="??1CTexture@@UAE@XZ" PURGE="0" COMMENT="" />
    <EXPORT ORDINAL="396" NAME="??1CTextureProcess@@UAE@XZ" PURGE="0" COMMENT="" />
    <EXPORT ORDINAL="397" NAME="??1CTimer@@UAE@XZ" PURGE="0" COMMENT="" />
    <EXPORT ORDINAL="398" NAME="??1CToggleButtonItem@@UAE@XZ" PURGE="0" COMMENT="" />
    <EXPORT ORDINAL="399" NAME="??1CUIData@@UAE@XZ" PURGE="0" COMMENT="" />
    <EXPORT ORDINAL="400" NAME="??1CUITrackInfo@@UAE@XZ" PURGE="0" COMMENT="" />
    <EXPORT ORDINAL="401" NAME="??1CUniMotion@@UAE@XZ" PURGE="0" COMMENT="" />
    <EXPORT ORDINAL="402" NAME="??1CUserParamStack@CNavProcess@@UAE@XZ" PURGE="0" COMMENT="" />
    <EXPORT ORDINAL="403" NAME="??1CWinAppl@@UAE@XZ" PURGE="0" COMMENT="" />
    <EXPORT ORDINAL="404" NAME="??1CiRange@@QAE@XZ" PURGE="0" COMMENT="" />
    <EXPORT ORDINAL="405" NAME="??1CiRect@@QAE@XZ" PURGE="0" COMMENT="" />
    <EXPORT ORDINAL="406" NAME="??1STextureUser@CTextureProcess@@QAE@XZ" PURGE="0" COMMENT="" />
    <EXPORT ORDINAL="407" NAME="??2CBaseObject@@SAPAXI@Z" PURGE="0" COMMENT="" />
    <EXPORT ORDINAL="408" NAME="??2CDialogItem@@SAPAXIPAVCMemPool@@@Z" PURGE="0" COMMENT="" />
    <EXPORT ORDINAL="409" NAME="??3CBaseObject@@SAXPAX@Z" PURGE="0" COMMENT="" />
    <EXPORT ORDINAL="410" NAME="??3CDialogItem@@SAXPAX@Z" PURGE="0" COMMENT="" />
    <EXPORT ORDINAL="411" NAME="??4C22Matrix@@QAEAAV0@ABV0@@Z" PURGE="4" COMMENT="" />
    <EXPORT ORDINAL="412" NAME="??4C23Affine@@QAEAAV0@ABV0@@Z" PURGE="4" COMMENT="" />
    <EXPORT ORDINAL="413" NAME="??4C2Vector@@QAEAAV0@ABV0@@Z" PURGE="4" COMMENT="" />
    <EXPORT ORDINAL="414" NAME="??4C2iVector@@QAEAAV0@ABV0@@Z" PURGE="4" COMMENT="" />
    <EXPORT ORDINAL="415" NAME="??4C33Matrix@@QAEAAV0@ABV0@@Z" PURGE="4" COMMENT="" />
    <EXPORT ORDINAL="416" NAME="??4C33iMatrix@@QAEAAV0@ABV0@@Z" PURGE="4" COMMENT="" />
    <EXPORT ORDINAL="417" NAME="??4C3Vector@@QAEAAV0@ABV0@@Z" PURGE="4" COMMENT="" />
    <EXPORT ORDINAL="418" NAME="??4C3iVector@@QAEAAV0@ABV0@@Z" PURGE="4" COMMENT="" />
    <EXPORT ORDINAL="419" NAME="??4C44Matrix@@QAEAAV0@ABV0@@Z" PURGE="4" COMMENT="" />
    <EXPORT ORDINAL="420" NAME="??4C44iMatrix@@QAEAAV0@ABV0@@Z" PURGE="4" COMMENT="" />
    <EXPORT ORDINAL="421" NAME="??4C4Vector@@QAEAAV0@ABV0@@Z" PURGE="4" COMMENT="" />
    <EXPORT ORDINAL="422" NAME="??4C4iVector@@QAEAAV0@ABV0@@Z" PURGE="4" COMMENT="" />
    <EXPORT ORDINAL="423" NAME="??4CAppContext@@QAEAAV0@ABV0@@Z" PURGE="4" COMMENT="" />
    <EXPORT ORDINAL="424" NAME="??4CAppl@@QAEXABV0@@Z" PURGE="4" COMMENT="" />
    <EXPORT ORDINAL="425" NAME="??4CBaseObject@@QAEAAV0@ABV0@@Z" PURGE="4" COMMENT="" />
    <EXPORT ORDINAL="426" NAME="??4CBitmap@@QAEAAV0@ABV0@@Z" PURGE="4" COMMENT="" />
    <EXPORT ORDINAL="427" NAME="??4CBitmapInit@@QAEAAV0@ABV0@@Z" PURGE="4" COMMENT="" />
    <EXPORT ORDINAL="428" NAME="??4CButtonItem@@QAEAAV0@ABV0@@Z" PURGE="4" COMMENT="" />
    <EXPORT ORDINAL="429" NAME="??4CCFEntry@@QAEAAV0@ABV0@@Z" PURGE="4" COMMENT="" />
    <EXPORT ORDINAL="430" NAME="??4CCFEntryData@@QAEAAV0@ABV0@@Z" PURGE="4" COMMENT="" />
    <EXPORT ORDINAL="431" NAME="??4CCFEntryParms@@QAEAAV0@ABV0@@Z" PURGE="4" COMMENT="" />
    <EXPORT ORDINAL="432" NAME="??4CCFQueue@CPluginAppl@@QAEAAV01@ABV01@@Z" PURGE="4" COMMENT="" />
    <EXPORT ORDINAL="433" NAME="??4CCanvas@@QAEXABV0@@Z" PURGE="4" COMMENT="" />
    <EXPORT ORDINAL="434" NAME="??4CCmFile@@QAEAAV0@ABV0@@Z" PURGE="4" COMMENT="" />
    <EXPORT ORDINAL="435" NAME="??4CCmFunction@@QAEAAV0@ABV0@@Z" PURGE="4" COMMENT="" />
    <EXPORT ORDINAL="436" NAME="??4CDecorationItem@@QAEAAV0@ABV0@@Z" PURGE="4" COMMENT="" />
    <EXPORT ORDINAL="437" NAME="??4CDialog@@QAEAAV0@ABV0@@Z" PURGE="4" COMMENT="" />
    <EXPORT ORDINAL="438" NAME="??4CDialogInit@@QAEAAV0@ABV0@@Z" PURGE="4" COMMENT="" />
    <EXPORT ORDINAL="439" NAME="??4CDialogItem@@QAEAAV0@ABV0@@Z" PURGE="4" COMMENT="" />
    <EXPORT ORDINAL="440" NAME="??4CDialogItemInit@@QAEAAV0@ABV0@@Z" PURGE="4" COMMENT="" />
    <EXPORT ORDINAL="441" NAME="??4CDialogItemList@@QAEAAV0@ABV0@@Z" PURGE="4" COMMENT="" />
    <EXPORT ORDINAL="442" NAME="??4CDialogLayer@@QAEAAV0@ABV0@@Z" PURGE="4" COMMENT="" />
    <EXPORT ORDINAL="443" NAME="??4CDynArray@@QAEAAV0@ABV0@@Z" PURGE="4" COMMENT="" />
    <EXPORT ORDINAL="444" NAME="??4CDynTable@@QAEAAV0@ABV0@@Z" PURGE="4" COMMENT="" />
    <EXPORT ORDINAL="445" NAME="??4CEditText@@QAEAAV0@ABV0@@Z" PURGE="4" COMMENT="" />
    <EXPORT ORDINAL="446" NAME="??4CEditTextItem@@QAEAAV0@ABV0@@Z" PURGE="4" COMMENT="" />
    <EXPORT ORDINAL="447" NAME="??4CFadeAnimation@CImage@@QAEAAV01@ABV01@@Z" PURGE="4" COMMENT="" />
    <EXPORT ORDINAL="448" NAME="??4CFile@@QAEXABV0@@Z" PURGE="4" COMMENT="" />
    <EXPORT ORDINAL="449" NAME="??4CGradient@@QAEXABV0@@Z" PURGE="4" COMMENT="" />
    <EXPORT ORDINAL="450" NAME="??4CHolder@CSpoolMem@@QAEAAV01@ABV01@@Z" PURGE="4" COMMENT="" />
    <EXPORT ORDINAL="451" NAME="??4CHostEvent@@QAEAAV0@ABV0@@Z" PURGE="4" COMMENT="" />
    <EXPORT ORDINAL="452" NAME="??4CImSwapper@@QAEAAV0@ABV0@@Z" PURGE="4" COMMENT="" />
    <EXPORT ORDINAL="453" NAME="??4CImVector48@@QAEAAV0@ABV0@@Z" PURGE="4" COMMENT="" />
    <EXPORT ORDINAL="454" NAME="??4CImVector64@@QAEAAV0@ABV0@@Z" PURGE="4" COMMENT="" />
    <EXPORT ORDINAL="455" NAME="??4CImVector@@QAEAAV0@ABV0@@Z" PURGE="4" COMMENT="" />
    <EXPORT ORDINAL="456" NAME="??4CImVector@@QAEAAV0@K@Z" PURGE="4" COMMENT="" />
    <EXPORT ORDINAL="457" NAME="??4CImage@@QAEAAV0@ABV0@@Z" PURGE="4" COMMENT="" />
    <EXPORT ORDINAL="458" NAME="??4CIterator@CDynArray@@QAEAAV01@ABV01@@Z" PURGE="4" COMMENT="" />
    <EXPORT ORDINAL="459" NAME="??4CIterator@CDynTable@@QAEAAV01@ABV01@@Z" PURGE="4" COMMENT="" />
    <EXPORT ORDINAL="460" NAME="??4CMaskPopupObject@@QAEAAV0@ABV0@@Z" PURGE="4" COMMENT="" />
    <EXPORT ORDINAL="461" NAME="??4CMath@@QAEAAV0@ABV0@@Z" PURGE="4" COMMENT="" />
    <EXPORT ORDINAL="462" NAME="??4CMemBlock@@QAEAAV0@ABV0@@Z" PURGE="4" COMMENT="" />
    <EXPORT ORDINAL="463" NAME="??4CMemPool@@QAEXABV0@@Z" PURGE="4" COMMENT="" />
    <EXPORT ORDINAL="464" NAME="??4CMenu@@QAEAAV0@ABV0@@Z" PURGE="4" COMMENT="" />
    <EXPORT ORDINAL="465" NAME="??4CMenuInit@@QAEAAV0@ABV0@@Z" PURGE="4" COMMENT="" />
    <EXPORT ORDINAL="466" NAME="??4CMenuItemTable@CMenu@@QAEAAV01@ABV01@@Z" PURGE="4" COMMENT="" />
    <EXPORT ORDINAL="467" NAME="??4CNavProcess@@QAEAAV0@ABV0@@Z" PURGE="4" COMMENT="" />
    <EXPORT ORDINAL="468" NAME="??4COffscreen@@QAEAAV0@ABV0@@Z" PURGE="4" COMMENT="" />
    <EXPORT ORDINAL="469" NAME="??4CPDPort@@QAEAAV0@ABV0@@Z" PURGE="4" COMMENT="" />
    <EXPORT ORDINAL="470" NAME="??4CPDUtils@@QAEAAV0@ABV0@@Z" PURGE="4" COMMENT="" />
    <EXPORT ORDINAL="471" NAME="??4CPlatformData@CImage@@QAEAAV01@ABV01@@Z" PURGE="4" COMMENT="" />
    <EXPORT ORDINAL="472" NAME="??4CPlatformData@CWinAppl@@QAEAAV01@ABV01@@Z" PURGE="4" COMMENT="" />
    <EXPORT ORDINAL="473" NAME="??4CPlatformResFile@@QAEAAV0@ABV0@@Z" PURGE="4" COMMENT="" />
    <EXPORT ORDINAL="474" NAME="??4CPlugin@@QAEAAV0@ABV0@@Z" PURGE="4" COMMENT="" />
    <EXPORT ORDINAL="475" NAME="??4CPluginAppl@@QAEAAV0@ABV0@@Z" PURGE="4" COMMENT="" />
    <EXPORT ORDINAL="476" NAME="??4CPluginManager@@QAEAAV0@ABV0@@Z" PURGE="4" COMMENT="" />
    <EXPORT ORDINAL="477" NAME="??4CPluginPool@@QAEAAV0@ABV0@@Z" PURGE="4" COMMENT="" />
    <EXPORT ORDINAL="478" NAME="??4CPluginRegistry@CPluginAppl@@QAEAAV01@ABV01@@Z" PURGE="4" COMMENT="" />
    <EXPORT ORDINAL="479" NAME="??4CPointerBusy@CAppl@@QAEAAV01@ABV01@@Z" PURGE="4" COMMENT="" />
    <EXPORT ORDINAL="480" NAME="??4CPointerHider@CAppl@@QAEAAV01@ABV01@@Z" PURGE="4" COMMENT="" />
    <EXPORT ORDINAL="481" NAME="??4CPopupMenuItem@@QAEAAV0@ABV0@@Z" PURGE="4" COMMENT="" />
    <EXPORT ORDINAL="482" NAME="??4CPopupObject@@QAEAAV0@ABV0@@Z" PURGE="4" COMMENT="" />
    <EXPORT ORDINAL="483" NAME="??4CPrefsFile@@QAEAAV0@ABV0@@Z" PURGE="4" COMMENT="" />
    <EXPORT ORDINAL="484" NAME="??4CRange@@QAEAAV0@ABV0@@Z" PURGE="4" COMMENT="" />
    <EXPORT ORDINAL="485" NAME="??4CReceiverData@CAppl@@QAEAAV01@ABV01@@Z" PURGE="4" COMMENT="" />
    <EXPORT ORDINAL="486" NAME="??4CRect@@QAEAAV0@ABV0@@Z" PURGE="4" COMMENT="" />
    <EXPORT ORDINAL="487" NAME="??4CRegion@@QAEAAV0@ABV0@@Z" PURGE="4" COMMENT="" />
    <EXPORT ORDINAL="488" NAME="??4CRenderPeriod@@QAEAAV0@ABV0@@Z" PURGE="4" COMMENT="" />
    <EXPORT ORDINAL="489" NAME="??4CResItemTable@CResourceFile@@QAEAAV01@ABV01@@Z" PURGE="4" COMMENT="" />
    <EXPORT ORDINAL="490" NAME="??4CResTypeTable@CResourceFile@@QAEAAV01@ABV01@@Z" PURGE="4" COMMENT="" />
    <EXPORT ORDINAL="491" NAME="??4CResourceFile@@QAEAAV0@ABV0@@Z" PURGE="4" COMMENT="" />
    <EXPORT ORDINAL="492" NAME="??4CRndSeed@@QAEAAV0@ABV0@@Z" PURGE="4" COMMENT="" />
    <EXPORT ORDINAL="493" NAME="??4CScreenPort@@QAEAAV0@ABV0@@Z" PURGE="4" COMMENT="" />
    <EXPORT ORDINAL="494" NAME="??4CSelector@CMemPool@@QAEAAV01@ABV01@@Z" PURGE="4" COMMENT="" />
    <EXPORT ORDINAL="495" NAME="??4CSimpleTexture@CTexture@@QAEAAV01@ABV01@@Z" PURGE="4" COMMENT="" />
    <EXPORT ORDINAL="496" NAME="??4CSliderItem@@QAEAAV0@ABV0@@Z" PURGE="4" COMMENT="" />
    <EXPORT ORDINAL="497" NAME="??4CSliderPopup@@QAEAAV0@ABV0@@Z" PURGE="4" COMMENT="" />
    <EXPORT ORDINAL="498" NAME="??4CSliderWidgetItem@@QAEAAV0@ABV0@@Z" PURGE="4" COMMENT="" />
    <EXPORT ORDINAL="499" NAME="??4CSpoolArray@@QAEAAV0@ABV0@@Z" PURGE="4" COMMENT="" />
    <EXPORT ORDINAL="500" NAME="??4CSpoolEnv@@QAEXABV0@@Z" PURGE="4" COMMENT="" />
    <EXPORT ORDINAL="501" NAME="??4CSpoolGrid@@QAEAAV0@ABV0@@Z" PURGE="4" COMMENT="" />
    <EXPORT ORDINAL="502" NAME="??4CSpoolMem@@QAEXABV0@@Z" PURGE="4" COMMENT="" />
    <EXPORT ORDINAL="503" NAME="??4CStaticTextItem@@QAEAAV0@ABV0@@Z" PURGE="4" COMMENT="" />
    <EXPORT ORDINAL="504" NAME="??4CStatusTextTable@CDialogItem@@QAEAAV01@ABV01@@Z" PURGE="4" COMMENT="" />
    <EXPORT ORDINAL="505" NAME="??4CSubSampleParams@CConversionNavigator@@QAEAAV01@ABV01@@Z" PURGE="4" COMMENT="" />
    <EXPORT ORDINAL="506" NAME="??4CSubscriber@CSpoolEnv@@QAEAAV01@ABV01@@Z" PURGE="4" COMMENT="" />
    <EXPORT ORDINAL="507" NAME="??4CTexture@@QAEAAV0@ABV0@@Z" PURGE="4" COMMENT="" />
    <EXPORT ORDINAL="508" NAME="??4CTextureProcess@@QAEAAV0@ABV0@@Z" PURGE="4" COMMENT="" />
    <EXPORT ORDINAL="509" NAME="??4CTimer@@QAEAAV0@ABV0@@Z" PURGE="4" COMMENT="" />
    <EXPORT ORDINAL="510" NAME="??4CToggleButtonItem@@QAEAAV0@ABV0@@Z" PURGE="4" COMMENT="" />
    <EXPORT ORDINAL="511" NAME="??4CUIData@@QAEAAV0@ABV0@@Z" PURGE="4" COMMENT="" />
    <EXPORT ORDINAL="512" NAME="??4CUITrackInfo@@QAEAAV0@ABV0@@Z" PURGE="4" COMMENT="" />
    <EXPORT ORDINAL="513" NAME="??4CUniMotion@@QAEAAV0@ABV0@@Z" PURGE="4" COMMENT="" />
    <EXPORT ORDINAL="514" NAME="??4CUserParamStack@CNavProcess@@QAEAAV01@ABV01@@Z" PURGE="4" COMMENT="" />
    <EXPORT ORDINAL="515" NAME="??4CWinAppl@@QAEAAV0@ABV0@@Z" PURGE="4" COMMENT="" />
    <EXPORT ORDINAL="516" NAME="??4CWindowsEnv@@QAEAAV0@ABV0@@Z" PURGE="4" COMMENT="" />
    <EXPORT ORDINAL="517" NAME="??4CiRange@@QAEAAV0@ABV0@@Z" PURGE="4" COMMENT="" />
    <EXPORT ORDINAL="518" NAME="??4CiRect@@QAEAAV0@ABV0@@Z" PURGE="4" COMMENT="" />
    <EXPORT ORDINAL="519" NAME="??4STextureUser@CTextureProcess@@QAEAAV01@ABV01@@Z" PURGE="4" COMMENT="" />
    <EXPORT ORDINAL="520" NAME="??ACDynArray@@QBEAAJK@Z" PURGE="4" COMMENT="" />
    <EXPORT ORDINAL="521" NAME="??BC2iVector@@QBE?AUtagPOINT@@XZ" PURGE="4" COMMENT="" />
    <EXPORT ORDINAL="522" NAME="??BC3Vector@@QBE?AVC2Vector@@XZ" PURGE="4" COMMENT="" />
    <EXPORT ORDINAL="523" NAME="??BC3iVector@@QBE?AVC2iVector@@XZ" PURGE="4" COMMENT="" />
    <EXPORT ORDINAL="524" NAME="??BC44Matrix@@QBE?AVC33Matrix@@XZ" PURGE="4" COMMENT="" />
    <EXPORT ORDINAL="525" NAME="??BC44iMatrix@@QBE?AVC33iMatrix@@XZ" PURGE="4" COMMENT="" />
    <EXPORT ORDINAL="526" NAME="??BC4Vector@@QBE?AVC2Vector@@XZ" PURGE="4" COMMENT="" />
    <EXPORT ORDINAL="527" NAME="??BC4Vector@@QBE?AVC3Vector@@XZ" PURGE="4" COMMENT="" />
    <EXPORT ORDINAL="528" NAME="??BC4iVector@@QBE?AVC2iVector@@XZ" PURGE="4" COMMENT="" />
    <EXPORT ORDINAL="529" NAME="??BC4iVector@@QBE?AVC3iVector@@XZ" PURGE="4" COMMENT="" />
    <EXPORT ORDINAL="530" NAME="??BCImVector64@@QBE?AVCImVector@@XZ" PURGE="4" COMMENT="" />
    <EXPORT ORDINAL="531" NAME="??BCImVector@@QBEKXZ" PURGE="0" COMMENT="" />
    <EXPORT ORDINAL="532" NAME="??BCRect@@QBE?AUtagRECT@@XZ" PURGE="4" COMMENT="" />
    <EXPORT ORDINAL="533" NAME="??BCiRect@@QBE?AUtagRECT@@XZ" PURGE="4" COMMENT="" />
    <EXPORT ORDINAL="534" NAME="??GC2Vector@@QBE?AV0@XZ" PURGE="4" COMMENT="" />
    <EXPORT ORDINAL="535" NAME="??GC2iVector@@QBE?AV0@XZ" PURGE="4" COMMENT="" />
    <EXPORT ORDINAL="536" NAME="??GC3Vector@@QBE?AV0@XZ" PURGE="4" COMMENT="" />
    <EXPORT ORDINAL="537" NAME="??GC3iVector@@QBE?AV0@XZ" PURGE="4" COMMENT="" />
    <EXPORT ORDINAL="538" NAME="??GC4Vector@@QBE?AV0@XZ" PURGE="4" COMMENT="" />
    <EXPORT ORDINAL="539" NAME="??GC4iVector@@QBE?AV0@XZ" PURGE="4" COMMENT="" />
    <EXPORT ORDINAL="540" NAME="??GCRange@@QBE?AV0@XZ" PURGE="4" COMMENT="" />
    <EXPORT ORDINAL="541" NAME="??GCRect@@QBE?AV0@XZ" PURGE="4" COMMENT="" />
    <EXPORT ORDINAL="542" NAME="??GCiRange@@QBE?AV0@XZ" PURGE="4" COMMENT="" />
    <EXPORT ORDINAL="543" NAME="??GCiRect@@QBE?AV0@XZ" PURGE="4" COMMENT="" />
    <EXPORT ORDINAL="544" NAME="??SCImVector@@QBEKXZ" PURGE="0" COMMENT="" />
    <EXPORT ORDINAL="545" NAME="??XC22Matrix@@QAEAAV0@ABV0@@Z" PURGE="4" COMMENT="" />
    <EXPORT ORDINAL="546" NAME="??XC22Matrix@@QAEAAV0@M@Z" PURGE="4" COMMENT="" />
    <EXPORT ORDINAL="547" NAME="??XC23Affine@@QAEAAV0@ABV0@@Z" PURGE="4" COMMENT="" />
    <EXPORT ORDINAL="548" NAME="??XC23Affine@@QAEAAV0@N@Z" PURGE="8" COMMENT="" />
    <EXPORT ORDINAL="549" NAME="??XC2Vector@@QAEAAV0@ABV0@@Z" PURGE="4" COMMENT="" />
    <EXPORT ORDINAL="550" NAME="??XC2Vector@@QAEAAV0@M@Z" PURGE="4" COMMENT="" />
    <EXPORT ORDINAL="551" NAME="??XC2iVector@@QAEAAV0@ABV0@@Z" PURGE="4" COMMENT="" />
    <EXPORT ORDINAL="552" NAME="??XC2iVector@@QAEAAV0@J@Z" PURGE="4" COMMENT="" />
    <EXPORT ORDINAL="553" NAME="??XC33Matrix@@QAEAAV0@ABV0@@Z" PURGE="4" COMMENT="" />
    <EXPORT ORDINAL="554" NAME="??XC33Matrix@@QAEAAV0@M@Z" PURGE="4" COMMENT="" />
    <EXPORT ORDINAL="555" NAME="??XC33iMatrix@@QAEAAV0@ABV0@@Z" PURGE="4" COMMENT="" />
    <EXPORT ORDINAL="556" NAME="??XC33iMatrix@@QAEAAV0@J@Z" PURGE="4" COMMENT="" />
    <EXPORT ORDINAL="557" NAME="??XC3Vector@@QAEAAV0@ABV0@@Z" PURGE="4" COMMENT="" />
    <EXPORT ORDINAL="558" NAME="??XC3Vector@@QAEAAV0@M@Z" PURGE="4" COMMENT="" />
    <EXPORT ORDINAL="559" NAME="??XC3iVector@@QAEAAV0@ABV0@@Z" PURGE="4" COMMENT="" />
    <EXPORT ORDINAL="560" NAME="??XC3iVector@@QAEAAV0@J@Z" PURGE="4" COMMENT="" />
    <EXPORT ORDINAL="561" NAME="??XC44Matrix@@QAEAAV0@ABV0@@Z" PURGE="4" COMMENT="" />
    <EXPORT ORDINAL="562" NAME="??XC44Matrix@@QAEAAV0@M@Z" PURGE="4" COMMENT="" />
    <EXPORT ORDINAL="563" NAME="??XC44iMatrix@@QAEAAV0@ABV0@@Z" PURGE="4" COMMENT="" />
    <EXPORT ORDINAL="564" NAME="??XC44iMatrix@@QAEAAV0@J@Z" PURGE="4" COMMENT="" />
    <EXPORT ORDINAL="565" NAME="??XC4Vector@@QAEAAV0@ABV0@@Z" PURGE="4" COMMENT="" />
    <EXPORT ORDINAL="566" NAME="??XC4Vector@@QAEAAV0@M@Z" PURGE="4" COMMENT="" />
    <EXPORT ORDINAL="567" NAME="??XC4iVector@@QAEAAV0@ABV0@@Z" PURGE="4" COMMENT="" />
    <EXPORT ORDINAL="568" NAME="??XC4iVector@@QAEAAV0@J@Z" PURGE="4" COMMENT="" />
    <EXPORT ORDINAL="569" NAME="??XCRange@@QAEAAV0@ABV0@@Z" PURGE="4" COMMENT="" />
    <EXPORT ORDINAL="570" NAME="??XCRect@@QAEAAV0@ABV0@@Z" PURGE="4" COMMENT="" />
    <EXPORT ORDINAL="571" NAME="??XCiRange@@QAEAAV0@ABV0@@Z" PURGE="4" COMMENT="" />
    <EXPORT ORDINAL="572" NAME="??XCiRect@@QAEAAV0@ABV0@@Z" PURGE="4" COMMENT="" />
    <EXPORT ORDINAL="573" NAME="??YC22Matrix@@QAEAAV0@ABV0@@Z" PURGE="4" COMMENT="" />
    <EXPORT ORDINAL="574" NAME="??YC23Affine@@QAEAAV0@ABV0@@Z" PURGE="4" COMMENT="" />
    <EXPORT ORDINAL="575" NAME="??YC2Vector@@QAEAAV0@ABV0@@Z" PURGE="4" COMMENT="" />
    <EXPORT ORDINAL="576" NAME="??YC2Vector@@QAEAAV0@M@Z" PURGE="4" COMMENT="" />
    <EXPORT ORDINAL="577" NAME="??YC2iVector@@QAEAAV0@ABV0@@Z" PURGE="4" COMMENT="" />
    <EXPORT ORDINAL="578" NAME="??YC2iVector@@QAEAAV0@J@Z" PURGE="4" COMMENT="" />
    <EXPORT ORDINAL="579" NAME="??YC33Matrix@@QAEAAV0@ABV0@@Z" PURGE="4" COMMENT="" />
    <EXPORT ORDINAL="580" NAME="??YC33iMatrix@@QAEAAV0@ABV0@@Z" PURGE="4" COMMENT="" />
    <EXPORT ORDINAL="581" NAME="??YC3Vector@@QAEAAV0@ABV0@@Z" PURGE="4" COMMENT="" />
    <EXPORT ORDINAL="582" NAME="??YC3Vector@@QAEAAV0@M@Z" PURGE="4" COMMENT="" />
    <EXPORT ORDINAL="583" NAME="??YC3iVector@@QAEAAV0@ABV0@@Z" PURGE="4" COMMENT="" />
    <EXPORT ORDINAL="584" NAME="??YC3iVector@@QAEAAV0@J@Z" PURGE="4" COMMENT="" />
    <EXPORT ORDINAL="585" NAME="??YC44Matrix@@QAEAAV0@ABV0@@Z" PURGE="4" COMMENT="" />
    <EXPORT ORDINAL="586" NAME="??YC44iMatrix@@QAEAAV0@ABV0@@Z" PURGE="4" COMMENT="" />
    <EXPORT ORDINAL="587" NAME="??YC4Vector@@QAEAAV0@ABV0@@Z" PURGE="4" COMMENT="" />
    <EXPORT ORDINAL="588" NAME="??YC4Vector@@QAEAAV0@M@Z" PURGE="4" COMMENT="" />
    <EXPORT ORDINAL="589" NAME="??YC4iVector@@QAEAAV0@ABV0@@Z" PURGE="4" COMMENT="" />
    <EXPORT ORDINAL="590" NAME="??YC4iVector@@QAEAAV0@J@Z" PURGE="4" COMMENT="" />
    <EXPORT ORDINAL="591" NAME="??YCRange@@QAEAAV0@ABV0@@Z" PURGE="4" COMMENT="" />
    <EXPORT ORDINAL="592" NAME="??YCRect@@QAEAAV0@ABV0@@Z" PURGE="4" COMMENT="" />
    <EXPORT ORDINAL="593" NAME="??YCiRange@@QAEAAV0@ABV0@@Z" PURGE="4" COMMENT="" />
    <EXPORT ORDINAL="594" NAME="??YCiRect@@QAEAAV0@ABV0@@Z" PURGE="4" COMMENT="" />
    <EXPORT ORDINAL="595" NAME="??ZC22Matrix@@QAEAAV0@ABV0@@Z" PURGE="4" COMMENT="" />
    <EXPORT ORDINAL="596" NAME="??ZC23Affine@@QAEAAV0@ABV0@@Z" PURGE="4" COMMENT="" />
    <EXPORT ORDINAL="597" NAME="??ZC2Vector@@QAEAAV0@ABV0@@Z" PURGE="4" COMMENT="" />
    <EXPORT ORDINAL="598" NAME="??ZC2Vector@@QAEAAV0@M@Z" PURGE="4" COMMENT="" />
    <EXPORT ORDINAL="599" NAME="??ZC2iVector@@QAEAAV0@ABV0@@Z" PURGE="4" COMMENT="" />
    <EXPORT ORDINAL="600" NAME="??ZC2iVector@@QAEAAV0@J@Z" PURGE="4" COMMENT="" />
    <EXPORT ORDINAL="601" NAME="??ZC33Matrix@@QAEAAV0@ABV0@@Z" PURGE="4" COMMENT="" />
    <EXPORT ORDINAL="602" NAME="??ZC33iMatrix@@QAEAAV0@ABV0@@Z" PURGE="4" COMMENT="" />
    <EXPORT ORDINAL="603" NAME="??ZC3Vector@@QAEAAV0@ABV0@@Z" PURGE="4" COMMENT="" />
    <EXPORT ORDINAL="604" NAME="??ZC3Vector@@QAEAAV0@M@Z" PURGE="4" COMMENT="" />
    <EXPORT ORDINAL="605" NAME="??ZC3iVector@@QAEAAV0@ABV0@@Z" PURGE="4" COMMENT="" />
    <EXPORT ORDINAL="606" NAME="??ZC3iVector@@QAEAAV0@J@Z" PURGE="4" COMMENT="" />
    <EXPORT ORDINAL="607" NAME="??ZC44Matrix@@QAEAAV0@ABV0@@Z" PURGE="4" COMMENT="" />
    <EXPORT ORDINAL="608" NAME="??ZC44iMatrix@@QAEAAV0@ABV0@@Z" PURGE="4" COMMENT="" />
    <EXPORT ORDINAL="609" NAME="??ZC4Vector@@QAEAAV0@ABV0@@Z" PURGE="4" COMMENT="" />
    <EXPORT ORDINAL="610" NAME="??ZC4Vector@@QAEAAV0@M@Z" PURGE="4" COMMENT="" />
    <EXPORT ORDINAL="611" NAME="??ZC4iVector@@QAEAAV0@ABV0@@Z" PURGE="4" COMMENT="" />
    <EXPORT ORDINAL="612" NAME="??ZC4iVector@@QAEAAV0@J@Z" PURGE="4" COMMENT="" />
    <EXPORT ORDINAL="613" NAME="??ZCRange@@QAEAAV0@ABV0@@Z" PURGE="4" COMMENT="" />
    <EXPORT ORDINAL="614" NAME="??ZCRect@@QAEAAV0@ABV0@@Z" PURGE="4" COMMENT="" />
    <EXPORT ORDINAL="615" NAME="??ZCiRange@@QAEAAV0@ABV0@@Z" PURGE="4" COMMENT="" />
    <EXPORT ORDINAL="616" NAME="??ZCiRect@@QAEAAV0@ABV0@@Z" PURGE="4" COMMENT="" />
    <EXPORT ORDINAL="617" NAME="??_0C22Matrix@@QAEAAV0@M@Z" PURGE="4" COMMENT="" />
    <EXPORT ORDINAL="618" NAME="??_0C23Affine@@QAEAAV0@N@Z" PURGE="8" COMMENT="" />
    <EXPORT ORDINAL="619" NAME="??_0C2Vector@@QAEAAV0@ABV0@@Z" PURGE="4" COMMENT="" />
    <EXPORT ORDINAL="620" NAME="??_0C2Vector@@QAEAAV0@M@Z" PURGE="4" COMMENT="" />
    <EXPORT ORDINAL="621" NAME="??_0C2iVector@@QAEAAV0@ABV0@@Z" PURGE="4" COMMENT="" />
    <EXPORT ORDINAL="622" NAME="??_0C2iVector@@QAEAAV0@J@Z" PURGE="4" COMMENT="" />
    <EXPORT ORDINAL="623" NAME="??_0C33Matrix@@QAEAAV0@M@Z" PURGE="4" COMMENT="" />
    <EXPORT ORDINAL="624" NAME="??_0C33iMatrix@@QAEAAV0@J@Z" PURGE="4" COMMENT="" />
    <EXPORT ORDINAL="625" NAME="??_0C3Vector@@QAEAAV0@ABV0@@Z" PURGE="4" COMMENT="" />
    <EXPORT ORDINAL="626" NAME="??_0C3Vector@@QAEAAV0@M@Z" PURGE="4" COMMENT="" />
    <EXPORT ORDINAL="627" NAME="??_0C3iVector@@QAEAAV0@ABV0@@Z" PURGE="4" COMMENT="" />
    <EXPORT ORDINAL="628" NAME="??_0C3iVector@@QAEAAV0@J@Z" PURGE="4" COMMENT="" />
    <EXPORT ORDINAL="629" NAME="??_0C44Matrix@@QAEAAV0@M@Z" PURGE="4" COMMENT="" />
    <EXPORT ORDINAL="630" NAME="??_0C44iMatrix@@QAEAAV0@J@Z" PURGE="4" COMMENT="" />
    <EXPORT ORDINAL="631" NAME="??_0C4Vector@@QAEAAV0@ABV0@@Z" PURGE="4" COMMENT="" />
    <EXPORT ORDINAL="632" NAME="??_0C4Vector@@QAEAAV0@M@Z" PURGE="4" COMMENT="" />
    <EXPORT ORDINAL="633" NAME="??_0C4iVector@@QAEAAV0@ABV0@@Z" PURGE="4" COMMENT="" />
    <EXPORT ORDINAL="634" NAME="??_0C4iVector@@QAEAAV0@J@Z" PURGE="4" COMMENT="" />
    <EXPORT ORDINAL="635" NAME="??_0CRange@@QAEAAV0@ABV0@@Z" PURGE="4" COMMENT="" />
    <EXPORT ORDINAL="636" NAME="??_0CRect@@QAEAAV0@ABV0@@Z" PURGE="4" COMMENT="" />
    <EXPORT ORDINAL="637" NAME="??_0CiRange@@QAEAAV0@ABV0@@Z" PURGE="4" COMMENT="" />
    <EXPORT ORDINAL="638" NAME="??_0CiRect@@QAEAAV0@ABV0@@Z" PURGE="4" COMMENT="" />
    <EXPORT ORDINAL="639" NAME="??_7CAppl@@6B@" PURGE="-1" COMMENT="" />
    <EXPORT ORDINAL="640" NAME="??_7CBaseObject@@6B@" PURGE="-1" COMMENT="" />
    <EXPORT ORDINAL="641" NAME="??_7CBitmap@@6B@" PURGE="-1" COMMENT="" />
    <EXPORT ORDINAL="642" NAME="??_7CBitmapInit@@6B@" PURGE="-1" COMMENT="" />
    <EXPORT ORDINAL="643" NAME="??_7CButtonItem@@6B@" PURGE="-1" COMMENT="" />
    <EXPORT ORDINAL="644" NAME="??_7CCFEntry@@6B@" PURGE="-1" COMMENT="" />
    <EXPORT ORDINAL="645" NAME="??_7CCFEntryData@@6B@" PURGE="-1" COMMENT="" />
    <EXPORT ORDINAL="646" NAME="??_7CCFEntryParms@@6B@" PURGE="-1" COMMENT="" />
    <EXPORT ORDINAL="647" NAME="??_7CCFQueue@CPluginAppl@@6B@" PURGE="-1" COMMENT="" />
    <EXPORT ORDINAL="648" NAME="??_7CCanvas@@6B@" PURGE="-1" COMMENT="" />
    <EXPORT ORDINAL="649" NAME="??_7CCmFile@@6B@" PURGE="-1" COMMENT="" />
    <EXPORT ORDINAL="650" NAME="??_7CCmFunction@@6B@" PURGE="-1" COMMENT="" />
    <EXPORT ORDINAL="651" NAME="??_7CConversionNavigator@@6B@" PURGE="-1" COMMENT="" />
    <EXPORT ORDINAL="652" NAME="??_7CDecorationItem@@6B@" PURGE="-1" COMMENT="" />
    <EXPORT ORDINAL="653" NAME="??_7CDialog@@6B@" PURGE="-1" COMMENT="" />
    <EXPORT ORDINAL="654" NAME="??_7CDialogInit@@6B@" PURGE="-1" COMMENT="" />
    <EXPORT ORDINAL="655" NAME="??_7CDialogItem@@6B@" PURGE="-1" COMMENT="" />
    <EXPORT ORDINAL="656" NAME="??_7CDialogItemInit@@6B@" PURGE="-1" COMMENT="" />
    <EXPORT ORDINAL="657" NAME="??_7CDialogItemList@@6B@" PURGE="-1" COMMENT="" />
    <EXPORT ORDINAL="658" NAME="??_7CDialogLayer@@6B@" PURGE="-1" COMMENT="" />
    <EXPORT ORDINAL="659" NAME="??_7CDynArray@@6B@" PURGE="-1" COMMENT="" />
    <EXPORT ORDINAL="660" NAME="??_7CDynTable@@6B@" PURGE="-1" COMMENT="" />
    <EXPORT ORDINAL="661" NAME="??_7CEditText@@6B@" PURGE="-1" COMMENT="" />
    <EXPORT ORDINAL="662" NAME="??_7CEditTextItem@@6B@" PURGE="-1" COMMENT="" />
    <EXPORT ORDINAL="663" NAME="??_7CEffectItem@@6B@" PURGE="-1" COMMENT="" />
    <EXPORT ORDINAL="664" NAME="??_7CFadeAnimation@CImage@@6B@" PURGE="-1" COMMENT="" />
    <EXPORT ORDINAL="665" NAME="??_7CFile@@6B@" PURGE="-1" COMMENT="" />
    <EXPORT ORDINAL="666" NAME="??_7CFrImNavigator@CImage@@6B@" PURGE="-1" COMMENT="" />
    <EXPORT ORDINAL="667" NAME="??_7CGlueItem@@6B@" PURGE="-1" COMMENT="" />
    <EXPORT ORDINAL="668" NAME="??_7CGradient@@6B@" PURGE="-1" COMMENT="" />
    <EXPORT ORDINAL="669" NAME="??_7CHolder@CSpoolMem@@6B@" PURGE="-1" COMMENT="" />
    <EXPORT ORDINAL="670" NAME="??_7CImNavigator@CImage@@6B@" PURGE="-1" COMMENT="" />
    <EXPORT ORDINAL="671" NAME="??_7CImSwapper@@6B@" PURGE="-1" COMMENT="" />
    <EXPORT ORDINAL="672" NAME="??_7CImage@@6B@" PURGE="-1" COMMENT="" />
    <EXPORT ORDINAL="673" NAME="??_7CImageProcessData@CNavProcess@@6B@" PURGE="-1" COMMENT="" />
    <EXPORT ORDINAL="674" NAME="??_7CIterator@CDynArray@@6B@" PURGE="-1" COMMENT="" />
    <EXPORT ORDINAL="675" NAME="??_7CIterator@CDynTable@@6B@" PURGE="-1" COMMENT="" />
    <EXPORT ORDINAL="676" NAME="??_7CMaskPopupObject@@6B@" PURGE="-1" COMMENT="" />
    <EXPORT ORDINAL="677" NAME="??_7CMemBlock@@6B@" PURGE="-1" COMMENT="" />
    <EXPORT ORDINAL="678" NAME="??_7CMemPool@@6B@" PURGE="-1" COMMENT="" />
    <EXPORT ORDINAL="679" NAME="??_7CMenu@@6B@" PURGE="-1" COMMENT="" />
    <EXPORT ORDINAL="680" NAME="??_7CMenuInit@@6B@" PURGE="-1" COMMENT="" />
    <EXPORT ORDINAL="681" NAME="??_7CMenuItemTable@CMenu@@6B@" PURGE="-1" COMMENT="" />
    <EXPORT ORDINAL="682" NAME="??_7CMirrorNav@@6B@" PURGE="-1" COMMENT="" />
    <EXPORT ORDINAL="683" NAME="??_7CNavProcess@@6B@" PURGE="-1" COMMENT="" />
    <EXPORT ORDINAL="684" NAME="??_7CNavigator@CMemBlock@@6B@" PURGE="-1" COMMENT="" />
    <EXPORT ORDINAL="685" NAME="??_7COffscreen@@6B@" PURGE="-1" COMMENT="" />
    <EXPORT ORDINAL="686" NAME="??_7COpacityItem@@6B@" PURGE="-1" COMMENT="" />
    <EXPORT ORDINAL="687" NAME="??_7CPDPort@@6B@" PURGE="-1" COMMENT="" />
    <EXPORT ORDINAL="688" NAME="??_7CPlatformData@CImage@@6B@" PURGE="-1" COMMENT="" />
    <EXPORT ORDINAL="689" NAME="??_7CPlatformData@CWinAppl@@6B@" PURGE="-1" COMMENT="" />
    <EXPORT ORDINAL="690" NAME="??_7CPlatformResFile@@6B@" PURGE="-1" COMMENT="" />
    <EXPORT ORDINAL="691" NAME="??_7CPlugin@@6B@" PURGE="-1" COMMENT="" />
    <EXPORT ORDINAL="692" NAME="??_7CPluginAppl@@6B@" PURGE="-1" COMMENT="" />
    <EXPORT ORDINAL="693" NAME="??_7CPluginManager@@6B@" PURGE="-1" COMMENT="" />
    <EXPORT ORDINAL="694" NAME="??_7CPluginRegistry@CPluginAppl@@6B@" PURGE="-1" COMMENT="" />
    <EXPORT ORDINAL="695" NAME="??_7CPointerBusy@CAppl@@6B@" PURGE="-1" COMMENT="" />
    <EXPORT ORDINAL="696" NAME="??_7CPointerHider@CAppl@@6B@" PURGE="-1" COMMENT="" />
    <EXPORT ORDINAL="697" NAME="??_7CPopupMenuItem@@6B@" PURGE="-1" COMMENT="" />
    <EXPORT ORDINAL="698" NAME="??_7CPopupObject@@6B@" PURGE="-1" COMMENT="" />
    <EXPORT ORDINAL="699" NAME="??_7CPrefsFile@@6B@" PURGE="-1" COMMENT="" />
    <EXPORT ORDINAL="700" NAME="??_7CPrevImNavigator@CPreviewImage@@6B@" PURGE="-1" COMMENT="" />
    <EXPORT ORDINAL="701" NAME="??_7CPreviewImage@@6B@" PURGE="-1" COMMENT="" />
    <EXPORT ORDINAL="702" NAME="??_7CProcessData@CNavProcess@@6B@" PURGE="-1" COMMENT="" />
    <EXPORT ORDINAL="703" NAME="??_7CReceiverData@CAppl@@6B@" PURGE="-1" COMMENT="" />
    <EXPORT ORDINAL="704" NAME="??_7CRegion@@6B@" PURGE="-1" COMMENT="" />
    <EXPORT ORDINAL="705" NAME="??_7CRenderPeriod@@6B@" PURGE="-1" COMMENT="" />
    <EXPORT ORDINAL="706" NAME="??_7CResItemTable@CResourceFile@@6B@" PURGE="-1" COMMENT="" />
    <EXPORT ORDINAL="707" NAME="??_7CResTypeTable@CResourceFile@@6B@" PURGE="-1" COMMENT="" />
    <EXPORT ORDINAL="708" NAME="??_7CResourceFile@@6B@" PURGE="-1" COMMENT="" />
    <EXPORT ORDINAL="709" NAME="??_7CRotationItem@@6B@" PURGE="-1" COMMENT="" />
    <EXPORT ORDINAL="710" NAME="??_7CSaScanner@CSpoolArray@@6B@" PURGE="-1" COMMENT="" />
    <EXPORT ORDINAL="711" NAME="??_7CScanner@CMemBlock@@6B@" PURGE="-1" COMMENT="" />
    <EXPORT ORDINAL="712" NAME="??_7CScreenPort@@6B@" PURGE="-1" COMMENT="" />
    <EXPORT ORDINAL="713" NAME="??_7CSelector@CMemPool@@6B@" PURGE="-1" COMMENT="" />
    <EXPORT ORDINAL="714" NAME="??_7CSgNavigator@CSpoolGrid@@6B@" PURGE="-1" COMMENT="" />
    <EXPORT ORDINAL="715" NAME="??_7CShadowData@CImage@@6B@" PURGE="-1" COMMENT="" />
    <EXPORT ORDINAL="716" NAME="??_7CSimpleTexture@CTexture@@6B@" PURGE="-1" COMMENT="" />
    <EXPORT ORDINAL="717" NAME="??_7CSliderItem@@6B@" PURGE="-1" COMMENT="" />
    <EXPORT ORDINAL="718" NAME="??_7CSliderPopup@@6B@" PURGE="-1" COMMENT="" />
    <EXPORT ORDINAL="719" NAME="??_7CSliderWidgetItem@@6B@" PURGE="-1" COMMENT="" />
    <EXPORT ORDINAL="720" NAME="??_7CSpoolArray@@6B@" PURGE="-1" COMMENT="" />
    <EXPORT ORDINAL="721" NAME="??_7CSpoolEnv@@6B@" PURGE="-1" COMMENT="" />
    <EXPORT ORDINAL="722" NAME="??_7CSpoolGrid@@6B@" PURGE="-1" COMMENT="" />
    <EXPORT ORDINAL="723" NAME="??_7CSpoolMem@@6B@" PURGE="-1" COMMENT="" />
    <EXPORT ORDINAL="724" NAME="??_7CStaticTextItem@@6B@" PURGE="-1" COMMENT="" />
    <EXPORT ORDINAL="725" NAME="??_7CStatusTextTable@CDialogItem@@6B@" PURGE="-1" COMMENT="" />
    <EXPORT ORDINAL="726" NAME="??_7CSubSampleParams@CConversionNavigator@@6B@" PURGE="-1" COMMENT="" />
    <EXPORT ORDINAL="727" NAME="??_7CSubscriber@CSpoolEnv@@6B@" PURGE="-1" COMMENT="" />
    <EXPORT ORDINAL="728" NAME="??_7CTexture@@6B@" PURGE="-1" COMMENT="" />
    <EXPORT ORDINAL="729" NAME="??_7CTextureProcess@@6B@" PURGE="-1" COMMENT="" />
    <EXPORT ORDINAL="730" NAME="??_7CTimer@@6B@" PURGE="-1" COMMENT="" />
    <EXPORT ORDINAL="731" NAME="??_7CToggleButtonItem@@6B@" PURGE="-1" COMMENT="" />
    <EXPORT ORDINAL="732" NAME="??_7CUIData@@6B@" PURGE="-1" COMMENT="" />
    <EXPORT ORDINAL="733" NAME="??_7CUITrackInfo@@6B@" PURGE="-1" COMMENT="" />
    <EXPORT ORDINAL="734" NAME="??_7CUniMotion@@6B@" PURGE="-1" COMMENT="" />
    <EXPORT ORDINAL="735" NAME="??_7CUserParamStack@CNavProcess@@6B@" PURGE="-1" COMMENT="" />
    <EXPORT ORDINAL="736" NAME="??_7CWinAppl@@6B@" PURGE="-1" COMMENT="" />
    <EXPORT ORDINAL="737" NAME="??_EC22Matrix@@QAEPAXI@Z" PURGE="4" COMMENT="" />
    <EXPORT ORDINAL="738" NAME="??_EC23Affine@@QAEPAXI@Z" PURGE="4" COMMENT="" />
    <EXPORT ORDINAL="739" NAME="??_EC2Vector@@QAEPAXI@Z" PURGE="4" COMMENT="" />
    <EXPORT ORDINAL="740" NAME="??_EC2iVector@@QAEPAXI@Z" PURGE="4" COMMENT="" />
    <EXPORT ORDINAL="741" NAME="??_EC33Matrix@@QAEPAXI@Z" PURGE="4" COMMENT="" />
    <EXPORT ORDINAL="742" NAME="??_EC33iMatrix@@QAEPAXI@Z" PURGE="4" COMMENT="" />
    <EXPORT ORDINAL="743" NAME="??_EC3Vector@@QAEPAXI@Z" PURGE="4" COMMENT="" />
    <EXPORT ORDINAL="744" NAME="??_EC3iVector@@QAEPAXI@Z" PURGE="4" COMMENT="" />
    <EXPORT ORDINAL="745" NAME="??_EC44Matrix@@QAEPAXI@Z" PURGE="4" COMMENT="" />
    <EXPORT ORDINAL="746" NAME="??_EC44iMatrix@@QAEPAXI@Z" PURGE="4" COMMENT="" />
    <EXPORT ORDINAL="747" NAME="??_EC4Vector@@QAEPAXI@Z" PURGE="4" COMMENT="" />
    <EXPORT ORDINAL="748" NAME="??_EC4iVector@@QAEPAXI@Z" PURGE="4" COMMENT="" />
    <EXPORT ORDINAL="749" NAME="??_ECAppContext@@QAEPAXI@Z" PURGE="4" COMMENT="" />
    <EXPORT ORDINAL="750" NAME="??_ECAppl@@UAEPAXI@Z" PURGE="4" COMMENT="" />
    <EXPORT ORDINAL="751" NAME="??_ECBaseObject@@UAEPAXI@Z" PURGE="4" COMMENT="" />
    <EXPORT ORDINAL="752" NAME="??_ECBitmap@@UAEPAXI@Z" PURGE="4" COMMENT="" />
    <EXPORT ORDINAL="753" NAME="??_ECBitmapInit@@UAEPAXI@Z" PURGE="4" COMMENT="" />
    <EXPORT ORDINAL="754" NAME="??_ECButtonItem@@UAEPAXI@Z" PURGE="4" COMMENT="" />
    <EXPORT ORDINAL="755" NAME="??_ECCFEntry@@UAEPAXI@Z" PURGE="4" COMMENT="" />
    <EXPORT ORDINAL="756" NAME="??_ECCFEntryData@@UAEPAXI@Z" PURGE="4" COMMENT="" />
    <EXPORT ORDINAL="757" NAME="??_ECCFEntryParms@@UAEPAXI@Z" PURGE="4" COMMENT="" />
    <EXPORT ORDINAL="758" NAME="??_ECCFQueue@CPluginAppl@@UAEPAXI@Z" PURGE="4" COMMENT="" />
    <EXPORT ORDINAL="759" NAME="??_ECCanvas@@UAEPAXI@Z" PURGE="4" COMMENT="" />
    <EXPORT ORDINAL="760" NAME="??_ECCmFile@@UAEPAXI@Z" PURGE="4" COMMENT="" />
    <EXPORT ORDINAL="761" NAME="??_ECCmFunction@@UAEPAXI@Z" PURGE="4" COMMENT="" />
    <EXPORT ORDINAL="762" NAME="??_ECConversionNavigator@@UAEPAXI@Z" PURGE="4" COMMENT="" />
    <EXPORT ORDINAL="763" NAME="??_ECDecorationItem@@UAEPAXI@Z" PURGE="4" COMMENT="" />
    <EXPORT ORDINAL="764" NAME="??_ECDialog@@UAEPAXI@Z" PURGE="4" COMMENT="" />
    <EXPORT ORDINAL="765" NAME="??_ECDialogInit@@UAEPAXI@Z" PURGE="4" COMMENT="" />
    <EXPORT ORDINAL="766" NAME="??_ECDialogItem@@UAEPAXI@Z" PURGE="4" COMMENT="" />
    <EXPORT ORDINAL="767" NAME="??_ECDialogItemInit@@UAEPAXI@Z" PURGE="4" COMMENT="" />
    <EXPORT ORDINAL="768" NAME="??_ECDialogItemList@@UAEPAXI@Z" PURGE="4" COMMENT="" />
    <EXPORT ORDINAL="769" NAME="??_ECDialogLayer@@UAEPAXI@Z" PURGE="4" COMMENT="" />
    <EXPORT ORDINAL="770" NAME="??_ECDynArray@@UAEPAXI@Z" PURGE="4" COMMENT="" />
    <EXPORT ORDINAL="771" NAME="??_ECDynTable@@UAEPAXI@Z" PURGE="4" COMMENT="" />
    <EXPORT ORDINAL="772" NAME="??_ECEditText@@UAEPAXI@Z" PURGE="4" COMMENT="" />
    <EXPORT ORDINAL="773" NAME="??_ECEditTextItem@@UAEPAXI@Z" PURGE="4" COMMENT="" />
    <EXPORT ORDINAL="774" NAME="??_ECEffectItem@@UAEPAXI@Z" PURGE="4" COMMENT="" />
    <EXPORT ORDINAL="775" NAME="??_ECFadeAnimation@CImage@@UAEPAXI@Z" PURGE="4" COMMENT="" />
    <EXPORT ORDINAL="776" NAME="??_ECFile@@UAEPAXI@Z" PURGE="4" COMMENT="" />
    <EXPORT ORDINAL="777" NAME="??_ECFrImNavigator@CImage@@UAEPAXI@Z" PURGE="4" COMMENT="" />
    <EXPORT ORDINAL="778" NAME="??_ECGlueItem@@UAEPAXI@Z" PURGE="4" COMMENT="" />
    <EXPORT ORDINAL="779" NAME="??_ECGradient@@UAEPAXI@Z" PURGE="4" COMMENT="" />
    <EXPORT ORDINAL="780" NAME="??_ECHolder@CSpoolMem@@UAEPAXI@Z" PURGE="4" COMMENT="" />
    <EXPORT ORDINAL="781" NAME="??_ECHostEvent@@QAEPAXI@Z" PURGE="4" COMMENT="" />
    <EXPORT ORDINAL="782" NAME="??_ECImNavigator@CImage@@UAEPAXI@Z" PURGE="4" COMMENT="" />
    <EXPORT ORDINAL="783" NAME="??_ECImSwapper@@UAEPAXI@Z" PURGE="4" COMMENT="" />
    <EXPORT ORDINAL="784" NAME="??_ECImVector@@QAEPAXI@Z" PURGE="4" COMMENT="" />
    <EXPORT ORDINAL="785" NAME="??_ECImage@@UAEPAXI@Z" PURGE="4" COMMENT="" />
    <EXPORT ORDINAL="786" NAME="??_ECImageProcessData@CNavProcess@@UAEPAXI@Z" PURGE="4" COMMENT="" />
    <EXPORT ORDINAL="787" NAME="??_ECIterator@CDynArray@@UAEPAXI@Z" PURGE="4" COMMENT="" />
    <EXPORT ORDINAL="788" NAME="??_ECIterator@CDynTable@@UAEPAXI@Z" PURGE="4" COMMENT="" />
    <EXPORT ORDINAL="789" NAME="??_ECMaskPopupObject@@UAEPAXI@Z" PURGE="4" COMMENT="" />
    <EXPORT ORDINAL="790" NAME="??_ECMemBlock@@UAEPAXI@Z" PURGE="4" COMMENT="" />
    <EXPORT ORDINAL="791" NAME="??_ECMemPool@@UAEPAXI@Z" PURGE="4" COMMENT="" />
    <EXPORT ORDINAL="792" NAME="??_ECMenu@@UAEPAXI@Z" PURGE="4" COMMENT="" />
    <EXPORT ORDINAL="793" NAME="??_ECMenuInit@@UAEPAXI@Z" PURGE="4" COMMENT="" />
    <EXPORT ORDINAL="794" NAME="??_ECMenuItemTable@CMenu@@UAEPAXI@Z" PURGE="4" COMMENT="" />
    <EXPORT ORDINAL="795" NAME="??_ECMirrorNav@@UAEPAXI@Z" PURGE="4" COMMENT="" />
    <EXPORT ORDINAL="796" NAME="??_ECNavProcess@@UAEPAXI@Z" PURGE="4" COMMENT="" />
    <EXPORT ORDINAL="797" NAME="??_ECNavigator@CMemBlock@@UAEPAXI@Z" PURGE="4" COMMENT="" />
    <EXPORT ORDINAL="798" NAME="??_ECOffscreen@@UAEPAXI@Z" PURGE="4" COMMENT="" />
    <EXPORT ORDINAL="799" NAME="??_ECOpacityItem@@UAEPAXI@Z" PURGE="4" COMMENT="" />
    <EXPORT ORDINAL="800" NAME="??_ECPDPort@@UAEPAXI@Z" PURGE="4" COMMENT="" />
    <EXPORT ORDINAL="801" NAME="??_ECPlatformData@CImage@@UAEPAXI@Z" PURGE="4" COMMENT="" />
    <EXPORT ORDINAL="802" NAME="??_ECPlatformData@CWinAppl@@UAEPAXI@Z" PURGE="4" COMMENT="" />
    <EXPORT ORDINAL="803" NAME="??_ECPlatformResFile@@UAEPAXI@Z" PURGE="4" COMMENT="" />
    <EXPORT ORDINAL="804" NAME="??_ECPlugin@@UAEPAXI@Z" PURGE="4" COMMENT="" />
    <EXPORT ORDINAL="805" NAME="??_ECPluginAppl@@UAEPAXI@Z" PURGE="4" COMMENT="" />
    <EXPORT ORDINAL="806" NAME="??_ECPluginManager@@UAEPAXI@Z" PURGE="4" COMMENT="" />
    <EXPORT ORDINAL="807" NAME="??_ECPluginRegistry@CPluginAppl@@UAEPAXI@Z" PURGE="4" COMMENT="" />
    <EXPORT ORDINAL="808" NAME="??_ECPointerBusy@CAppl@@UAEPAXI@Z" PURGE="4" COMMENT="" />
    <EXPORT ORDINAL="809" NAME="??_ECPointerHider@CAppl@@UAEPAXI@Z" PURGE="4" COMMENT="" />
    <EXPORT ORDINAL="810" NAME="??_ECPopupMenuItem@@UAEPAXI@Z" PURGE="4" COMMENT="" />
    <EXPORT ORDINAL="811" NAME="??_ECPopupObject@@UAEPAXI@Z" PURGE="4" COMMENT="" />
    <EXPORT ORDINAL="812" NAME="??_ECPrefsFile@@UAEPAXI@Z" PURGE="4" COMMENT="" />
    <EXPORT ORDINAL="813" NAME="??_ECPrevImNavigator@CPreviewImage@@UAEPAXI@Z" PURGE="4" COMMENT="" />
    <EXPORT ORDINAL="814" NAME="??_ECPreviewImage@@UAEPAXI@Z" PURGE="4" COMMENT="" />
    <EXPORT ORDINAL="815" NAME="??_ECProcessData@CNavProcess@@UAEPAXI@Z" PURGE="4" COMMENT="" />
    <EXPORT ORDINAL="816" NAME="??_ECRange@@QAEPAXI@Z" PURGE="4" COMMENT="" />
    <EXPORT ORDINAL="817" NAME="??_ECReceiverData@CAppl@@UAEPAXI@Z" PURGE="4" COMMENT="" />
    <EXPORT ORDINAL="818" NAME="??_ECRect@@QAEPAXI@Z" PURGE="4" COMMENT="" />
    <EXPORT ORDINAL="819" NAME="??_ECRegion@@UAEPAXI@Z" PURGE="4" COMMENT="" />
    <EXPORT ORDINAL="820" NAME="??_ECRenderPeriod@@UAEPAXI@Z" PURGE="4" COMMENT="" />
    <EXPORT ORDINAL="821" NAME="??_ECResItemTable@CResourceFile@@UAEPAXI@Z" PURGE="4" COMMENT="" />
    <EXPORT ORDINAL="822" NAME="??_ECResTypeTable@CResourceFile@@UAEPAXI@Z" PURGE="4" COMMENT="" />
    <EXPORT ORDINAL="823" NAME="??_ECResourceFile@@UAEPAXI@Z" PURGE="4" COMMENT="" />
    <EXPORT ORDINAL="824" NAME="??_ECRotationItem@@UAEPAXI@Z" PURGE="4" COMMENT="" />
    <EXPORT ORDINAL="825" NAME="??_ECSaScanner@CSpoolArray@@UAEPAXI@Z" PURGE="4" COMMENT="" />
    <EXPORT ORDINAL="826" NAME="??_ECScanner@CMemBlock@@UAEPAXI@Z" PURGE="4" COMMENT="" />
    <EXPORT ORDINAL="827" NAME="??_ECScreenPort@@UAEPAXI@Z" PURGE="4" COMMENT="" />
    <EXPORT ORDINAL="828" NAME="??_ECSelector@CMemPool@@UAEPAXI@Z" PURGE="4" COMMENT="" />
    <EXPORT ORDINAL="829" NAME="??_ECSgNavigator@CSpoolGrid@@UAEPAXI@Z" PURGE="4" COMMENT="" />
    <EXPORT ORDINAL="830" NAME="??_ECShadowData@CImage@@UAEPAXI@Z" PURGE="4" COMMENT="" />
    <EXPORT ORDINAL="831" NAME="??_ECSimpleTexture@CTexture@@UAEPAXI@Z" PURGE="4" COMMENT="" />
    <EXPORT ORDINAL="832" NAME="??_ECSliderItem@@UAEPAXI@Z" PURGE="4" COMMENT="" />
    <EXPORT ORDINAL="833" NAME="??_ECSliderPopup@@UAEPAXI@Z" PURGE="4" COMMENT="" />
    <EXPORT ORDINAL="834" NAME="??_ECSliderWidgetItem@@UAEPAXI@Z" PURGE="4" COMMENT="" />
    <EXPORT ORDINAL="835" NAME="??_ECSpoolArray@@UAEPAXI@Z" PURGE="4" COMMENT="" />
    <EXPORT ORDINAL="836" NAME="??_ECSpoolEnv@@UAEPAXI@Z" PURGE="4" COMMENT="" />
    <EXPORT ORDINAL="837" NAME="??_ECSpoolGrid@@UAEPAXI@Z" PURGE="4" COMMENT="" />
    <EXPORT ORDINAL="838" NAME="??_ECSpoolMem@@UAEPAXI@Z" PURGE="4" COMMENT="" />
    <EXPORT ORDINAL="839" NAME="??_ECStaticTextItem@@UAEPAXI@Z" PURGE="4" COMMENT="" />
    <EXPORT ORDINAL="840" NAME="??_ECStatusTextTable@CDialogItem@@UAEPAXI@Z" PURGE="4" COMMENT="" />
    <EXPORT ORDINAL="841" NAME="??_ECSubSampleParams@CConversionNavigator@@UAEPAXI@Z" PURGE="4" COMMENT="" />
    <EXPORT ORDINAL="842" NAME="??_ECSubscriber@CSpoolEnv@@UAEPAXI@Z" PURGE="4" COMMENT="" />
    <EXPORT ORDINAL="843" NAME="??_ECTexture@@UAEPAXI@Z" PURGE="4" COMMENT="" />
    <EXPORT ORDINAL="844" NAME="??_ECTextureProcess@@UAEPAXI@Z" PURGE="4" COMMENT="" />
    <EXPORT ORDINAL="845" NAME="??_ECTimer@@UAEPAXI@Z" PURGE="4" COMMENT="" />
    <EXPORT ORDINAL="846" NAME="??_ECToggleButtonItem@@UAEPAXI@Z" PURGE="4" COMMENT="" />
    <EXPORT ORDINAL="847" NAME="??_ECUIData@@UAEPAXI@Z" PURGE="4" COMMENT="" />
    <EXPORT ORDINAL="848" NAME="??_ECUITrackInfo@@UAEPAXI@Z" PURGE="4" COMMENT="" />
    <EXPORT ORDINAL="849" NAME="??_ECUniMotion@@UAEPAXI@Z" PURGE="4" COMMENT="" />
    <EXPORT ORDINAL="850" NAME="??_ECUserParamStack@CNavProcess@@UAEPAXI@Z" PURGE="4" COMMENT="" />
    <EXPORT ORDINAL="851" NAME="??_ECWinAppl@@UAEPAXI@Z" PURGE="4" COMMENT="" />
    <EXPORT ORDINAL="852" NAME="??_ECiRange@@QAEPAXI@Z" PURGE="4" COMMENT="" />
    <EXPORT ORDINAL="853" NAME="??_ECiRect@@QAEPAXI@Z" PURGE="4" COMMENT="" />
    <EXPORT ORDINAL="854" NAME="??_ESTextureUser@CTextureProcess@@QAEPAXI@Z" PURGE="4" COMMENT="" />
    <EXPORT ORDINAL="855" NAME="??_FC2Vector@@QAEXXZ" PURGE="0" COMMENT="" />
    <EXPORT ORDINAL="856" NAME="??_FC2iVector@@QAEXXZ" PURGE="0" COMMENT="" />
    <EXPORT ORDINAL="857" NAME="??_FC3Vector@@QAEXXZ" PURGE="0" COMMENT="" />
    <EXPORT ORDINAL="858" NAME="??_FC3iVector@@QAEXXZ" PURGE="0" COMMENT="" />
    <EXPORT ORDINAL="859" NAME="??_FC4Vector@@QAEXXZ" PURGE="0" COMMENT="" />
    <EXPORT ORDINAL="860" NAME="??_FC4iVector@@QAEXXZ" PURGE="0" COMMENT="" />
    <EXPORT ORDINAL="861" NAME="??_FCAppContext@@QAEXXZ" PURGE="0" COMMENT="" />
    <EXPORT ORDINAL="862" NAME="??_FCCFEntry@@QAEXXZ" PURGE="0" COMMENT="" />
    <EXPORT ORDINAL="863" NAME="??_FCCFEntryData@@QAEXXZ" PURGE="0" COMMENT="" />
    <EXPORT ORDINAL="864" NAME="??_FCCFEntryParms@@QAEXXZ" PURGE="0" COMMENT="" />
    <EXPORT ORDINAL="865" NAME="??_FCCmFunction@@QAEXXZ" PURGE="0" COMMENT="" />
    <EXPORT ORDINAL="866" NAME="??_FCDialogItemList@@QAEXXZ" PURGE="0" COMMENT="" />
    <EXPORT ORDINAL="867" NAME="??_FCDynArray@@QAEXXZ" PURGE="0" COMMENT="" />
    <EXPORT ORDINAL="868" NAME="??_FCImVector48@@QAEXXZ" PURGE="0" COMMENT="" />
    <EXPORT ORDINAL="869" NAME="??_FCImVector64@@QAEXXZ" PURGE="0" COMMENT="" />
    <EXPORT ORDINAL="870" NAME="??_FCImVector@@QAEXXZ" PURGE="0" COMMENT="" />
    <EXPORT ORDINAL="871" NAME="??_FCNavProcess@@QAEXXZ" PURGE="0" COMMENT="" />
    <EXPORT ORDINAL="872" NAME="??_FCRange@@QAEXXZ" PURGE="0" COMMENT="" />
    <EXPORT ORDINAL="873" NAME="??_FCRect@@QAEXXZ" PURGE="0" COMMENT="" />
    <EXPORT ORDINAL="874" NAME="??_FCRndSeed@@QAEXXZ" PURGE="0" COMMENT="" />
    <EXPORT ORDINAL="875" NAME="??_FCSpoolEnv@@QAEXXZ" PURGE="0" COMMENT="" />
    <EXPORT ORDINAL="876" NAME="??_FCTextureProcess@@QAEXXZ" PURGE="0" COMMENT="" />
    <EXPORT ORDINAL="877" NAME="??_FCUserParamStack@CNavProcess@@QAEXXZ" PURGE="0" COMMENT="" />
    <EXPORT ORDINAL="878" NAME="??_FCiRange@@QAEXXZ" PURGE="0" COMMENT="" />
    <EXPORT ORDINAL="879" NAME="??_FCiRect@@QAEXXZ" PURGE="0" COMMENT="" />
    <EXPORT ORDINAL="880" NAME="??_GC22Matrix@@QAEPAXI@Z" PURGE="4" COMMENT="" />
    <EXPORT ORDINAL="881" NAME="??_GC23Affine@@QAEPAXI@Z" PURGE="4" COMMENT="" />
    <EXPORT ORDINAL="882" NAME="??_GC2Vector@@QAEPAXI@Z" PURGE="4" COMMENT="" />
    <EXPORT ORDINAL="883" NAME="??_GC2iVector@@QAEPAXI@Z" PURGE="4" COMMENT="" />
    <EXPORT ORDINAL="884" NAME="??_GC33Matrix@@QAEPAXI@Z" PURGE="4" COMMENT="" />
    <EXPORT ORDINAL="885" NAME="??_GC33iMatrix@@QAEPAXI@Z" PURGE="4" COMMENT="" />
    <EXPORT ORDINAL="886" NAME="??_GC3Vector@@QAEPAXI@Z" PURGE="4" COMMENT="" />
    <EXPORT ORDINAL="887" NAME="??_GC3iVector@@QAEPAXI@Z" PURGE="4" COMMENT="" />
    <EXPORT ORDINAL="888" NAME="??_GC44Matrix@@QAEPAXI@Z" PURGE="4" COMMENT="" />
    <EXPORT ORDINAL="889" NAME="??_GC44iMatrix@@QAEPAXI@Z" PURGE="4" COMMENT="" />
    <EXPORT ORDINAL="890" NAME="??_GC4Vector@@QAEPAXI@Z" PURGE="4" COMMENT="" />
    <EXPORT ORDINAL="891" NAME="??_GC4iVector@@QAEPAXI@Z" PURGE="4" COMMENT="" />
    <EXPORT ORDINAL="892" NAME="??_GCAppContext@@QAEPAXI@Z" PURGE="4" COMMENT="" />
    <EXPORT ORDINAL="893" NAME="??_GCAppl@@UAEPAXI@Z" PURGE="4" COMMENT="" />
    <EXPORT ORDINAL="894" NAME="??_GCBaseObject@@UAEPAXI@Z" PURGE="4" COMMENT="" />
    <EXPORT ORDINAL="895" NAME="??_GCBitmap@@UAEPAXI@Z" PURGE="4" COMMENT="" />
    <EXPORT ORDINAL="896" NAME="??_GCBitmapInit@@UAEPAXI@Z" PURGE="4" COMMENT="" />
    <EXPORT ORDINAL="897" NAME="??_GCButtonItem@@UAEPAXI@Z" PURGE="4" COMMENT="" />
    <EXPORT ORDINAL="898" NAME="??_GCCFEntry@@UAEPAXI@Z" PURGE="4" COMMENT="" />
    <EXPORT ORDINAL="899" NAME="??_GCCFEntryData@@UAEPAXI@Z" PURGE="4" COMMENT="" />
    <EXPORT ORDINAL="900" NAME="??_GCCFEntryParms@@UAEPAXI@Z" PURGE="4" COMMENT="" />
    <EXPORT ORDINAL="901" NAME="??_GCCFQueue@CPluginAppl@@UAEPAXI@Z" PURGE="4" COMMENT="" />
    <EXPORT ORDINAL="902" NAME="??_GCCanvas@@UAEPAXI@Z" PURGE="4" COMMENT="" />
    <EXPORT ORDINAL="903" NAME="??_GCCmFile@@UAEPAXI@Z" PURGE="4" COMMENT="" />
    <EXPORT ORDINAL="904" NAME="??_GCCmFunction@@UAEPAXI@Z" PURGE="4" COMMENT="" />
    <EXPORT ORDINAL="905" NAME="??_GCConversionNavigator@@UAEPAXI@Z" PURGE="4" COMMENT="" />
    <EXPORT ORDINAL="906" NAME="??_GCDecorationItem@@UAEPAXI@Z" PURGE="4" COMMENT="" />
    <EXPORT ORDINAL="907" NAME="??_GCDialog@@UAEPAXI@Z" PURGE="4" COMMENT="" />
    <EXPORT ORDINAL="908" NAME="??_GCDialogInit@@UAEPAXI@Z" PURGE="4" COMMENT="" />
    <EXPORT ORDINAL="909" NAME="??_GCDialogItem@@UAEPAXI@Z" PURGE="4" COMMENT="" />
    <EXPORT ORDINAL="910" NAME="??_GCDialogItemInit@@UAEPAXI@Z" PURGE="4" COMMENT="" />
    <EXPORT ORDINAL="911" NAME="??_GCDialogItemList@@UAEPAXI@Z" PURGE="4" COMMENT="" />
    <EXPORT ORDINAL="912" NAME="??_GCDialogLayer@@UAEPAXI@Z" PURGE="4" COMMENT="" />
    <EXPORT ORDINAL="913" NAME="??_GCDynArray@@UAEPAXI@Z" PURGE="4" COMMENT="" />
    <EXPORT ORDINAL="914" NAME="??_GCDynTable@@UAEPAXI@Z" PURGE="4" COMMENT="" />
    <EXPORT ORDINAL="915" NAME="??_GCEditText@@UAEPAXI@Z" PURGE="4" COMMENT="" />
    <EXPORT ORDINAL="916" NAME="??_GCEditTextItem@@UAEPAXI@Z" PURGE="4" COMMENT="" />
    <EXPORT ORDINAL="917" NAME="??_GCEffectItem@@UAEPAXI@Z" PURGE="4" COMMENT="" />
    <EXPORT ORDINAL="918" NAME="??_GCFadeAnimation@CImage@@UAEPAXI@Z" PURGE="4" COMMENT="" />
    <EXPORT ORDINAL="919" NAME="??_GCFile@@UAEPAXI@Z" PURGE="4" COMMENT="" />
    <EXPORT ORDINAL="920" NAME="??_GCFrImNavigator@CImage@@UAEPAXI@Z" PURGE="4" COMMENT="" />
    <EXPORT ORDINAL="921" NAME="??_GCGlueItem@@UAEPAXI@Z" PURGE="4" COMMENT="" />
    <EXPORT ORDINAL="922" NAME="??_GCGradient@@UAEPAXI@Z" PURGE="4" COMMENT="" />
    <EXPORT ORDINAL="923" NAME="??_GCHolder@CSpoolMem@@UAEPAXI@Z" PURGE="4" COMMENT="" />
    <EXPORT ORDINAL="924" NAME="??_GCHostEvent@@QAEPAXI@Z" PURGE="4" COMMENT="" />
    <EXPORT ORDINAL="925" NAME="??_GCImNavigator@CImage@@UAEPAXI@Z" PURGE="4" COMMENT="" />
    <EXPORT ORDINAL="926" NAME="??_GCImSwapper@@UAEPAXI@Z" PURGE="4" COMMENT="" />
    <EXPORT ORDINAL="927" NAME="??_GCImVector@@QAEPAXI@Z" PURGE="4" COMMENT="" />
    <EXPORT ORDINAL="928" NAME="??_GCImage@@UAEPAXI@Z" PURGE="4" COMMENT="" />
    <EXPORT ORDINAL="929" NAME="??_GCImageProcessData@CNavProcess@@UAEPAXI@Z" PURGE="4" COMMENT="" />
    <EXPORT ORDINAL="930" NAME="??_GCIterator@CDynArray@@UAEPAXI@Z" PURGE="4" COMMENT="" />
    <EXPORT ORDINAL="931" NAME="??_GCIterator@CDynTable@@UAEPAXI@Z" PURGE="4" COMMENT="" />
    <EXPORT ORDINAL="932" NAME="??_GCMaskPopupObject@@UAEPAXI@Z" PURGE="4" COMMENT="" />
    <EXPORT ORDINAL="933" NAME="??_GCMemBlock@@UAEPAXI@Z" PURGE="4" COMMENT="" />
    <EXPORT ORDINAL="934" NAME="??_GCMemPool@@UAEPAXI@Z" PURGE="4" COMMENT="" />
    <EXPORT ORDINAL="935" NAME="??_GCMenu@@UAEPAXI@Z" PURGE="4" COMMENT="" />
    <EXPORT ORDINAL="936" NAME="??_GCMenuInit@@UAEPAXI@Z" PURGE="4" COMMENT="" />
    <EXPORT ORDINAL="937" NAME="??_GCMenuItemTable@CMenu@@UAEPAXI@Z" PURGE="4" COMMENT="" />
    <EXPORT ORDINAL="938" NAME="??_GCMirrorNav@@UAEPAXI@Z" PURGE="4" COMMENT="" />
    <EXPORT ORDINAL="939" NAME="??_GCNavProcess@@UAEPAXI@Z" PURGE="4" COMMENT="" />
    <EXPORT ORDINAL="940" NAME="??_GCNavigator@CMemBlock@@UAEPAXI@Z" PURGE="4" COMMENT="" />
    <EXPORT ORDINAL="941" NAME="??_GCOffscreen@@UAEPAXI@Z" PURGE="4" COMMENT="" />
    <EXPORT ORDINAL="942" NAME="??_GCOpacityItem@@UAEPAXI@Z" PURGE="4" COMMENT="" />
    <EXPORT ORDINAL="943" NAME="??_GCPDPort@@UAEPAXI@Z" PURGE="4" COMMENT="" />
    <EXPORT ORDINAL="944" NAME="??_GCPlatformData@CImage@@UAEPAXI@Z" PURGE="4" COMMENT="" />
    <EXPORT ORDINAL="945" NAME="??_GCPlatformData@CWinAppl@@UAEPAXI@Z" PURGE="4" COMMENT="" />
    <EXPORT ORDINAL="946" NAME="??_GCPlatformResFile@@UAEPAXI@Z" PURGE="4" COMMENT="" />
    <EXPORT ORDINAL="947" NAME="??_GCPlugin@@UAEPAXI@Z" PURGE="4" COMMENT="" />
    <EXPORT ORDINAL="948" NAME="??_GCPluginAppl@@UAEPAXI@Z" PURGE="4" COMMENT="" />
    <EXPORT ORDINAL="949" NAME="??_GCPluginManager@@UAEPAXI@Z" PURGE="4" COMMENT="" />
    <EXPORT ORDINAL="950" NAME="??_GCPluginRegistry@CPluginAppl@@UAEPAXI@Z" PURGE="4" COMMENT="" />
    <EXPORT ORDINAL="951" NAME="??_GCPointerBusy@CAppl@@UAEPAXI@Z" PURGE="4" COMMENT="" />
    <EXPORT ORDINAL="952" NAME="??_GCPointerHider@CAppl@@UAEPAXI@Z" PURGE="4" COMMENT="" />
    <EXPORT ORDINAL="953" NAME="??_GCPopupMenuItem@@UAEPAXI@Z" PURGE="4" COMMENT="" />
    <EXPORT ORDINAL="954" NAME="??_GCPopupObject@@UAEPAXI@Z" PURGE="4" COMMENT="" />
    <EXPORT ORDINAL="955" NAME="??_GCPrefsFile@@UAEPAXI@Z" PURGE="4" COMMENT="" />
    <EXPORT ORDINAL="956" NAME="??_GCPrevImNavigator@CPreviewImage@@UAEPAXI@Z" PURGE="4" COMMENT="" />
    <EXPORT ORDINAL="957" NAME="??_GCPreviewImage@@UAEPAXI@Z" PURGE="4" COMMENT="" />
    <EXPORT ORDINAL="958" NAME="??_GCProcessData@CNavProcess@@UAEPAXI@Z" PURGE="4" COMMENT="" />
    <EXPORT ORDINAL="959" NAME="??_GCRange@@QAEPAXI@Z" PURGE="4" COMMENT="" />
    <EXPORT ORDINAL="960" NAME="??_GCReceiverData@CAppl@@UAEPAXI@Z" PURGE="4" COMMENT="" />
    <EXPORT ORDINAL="961" NAME="??_GCRect@@QAEPAXI@Z" PURGE="4" COMMENT="" />
    <EXPORT ORDINAL="962" NAME="??_GCRegion@@UAEPAXI@Z" PURGE="4" COMMENT="" />
    <EXPORT ORDINAL="963" NAME="??_GCRenderPeriod@@UAEPAXI@Z" PURGE="4" COMMENT="" />
    <EXPORT ORDINAL="964" NAME="??_GCResItemTable@CResourceFile@@UAEPAXI@Z" PURGE="4" COMMENT="" />
    <EXPORT ORDINAL="965" NAME="??_GCResTypeTable@CResourceFile@@UAEPAXI@Z" PURGE="4" COMMENT="" />
    <EXPORT ORDINAL="966" NAME="??_GCResourceFile@@UAEPAXI@Z" PURGE="4" COMMENT="" />
    <EXPORT ORDINAL="967" NAME="??_GCRotationItem@@UAEPAXI@Z" PURGE="4" COMMENT="" />
    <EXPORT ORDINAL="968" NAME="??_GCSaScanner@CSpoolArray@@UAEPAXI@Z" PURGE="4" COMMENT="" />
    <EXPORT ORDINAL="969" NAME="??_GCScanner@CMemBlock@@UAEPAXI@Z" PURGE="4" COMMENT="" />
    <EXPORT ORDINAL="970" NAME="??_GCScreenPort@@UAEPAXI@Z" PURGE="4" COMMENT="" />
    <EXPORT ORDINAL="971" NAME="??_GCSelector@CMemPool@@UAEPAXI@Z" PURGE="4" COMMENT="" />
    <EXPORT ORDINAL="972" NAME="??_GCSgNavigator@CSpoolGrid@@UAEPAXI@Z" PURGE="4" COMMENT="" />
    <EXPORT ORDINAL="973" NAME="??_GCShadowData@CImage@@UAEPAXI@Z" PURGE="4" COMMENT="" />
    <EXPORT ORDINAL="974" NAME="??_GCSimpleTexture@CTexture@@UAEPAXI@Z" PURGE="4" COMMENT="" />
    <EXPORT ORDINAL="975" NAME="??_GCSliderItem@@UAEPAXI@Z" PURGE="4" COMMENT="" />
    <EXPORT ORDINAL="976" NAME="??_GCSliderPopup@@UAEPAXI@Z" PURGE="4" COMMENT="" />
    <EXPORT ORDINAL="977" NAME="??_GCSliderWidgetItem@@UAEPAXI@Z" PURGE="4" COMMENT="" />
    <EXPORT ORDINAL="978" NAME="??_GCSpoolArray@@UAEPAXI@Z" PURGE="4" COMMENT="" />
    <EXPORT ORDINAL="979" NAME="??_GCSpoolEnv@@UAEPAXI@Z" PURGE="4" COMMENT="" />
    <EXPORT ORDINAL="980" NAME="??_GCSpoolGrid@@UAEPAXI@Z" PURGE="4" COMMENT="" />
    <EXPORT ORDINAL="981" NAME="??_GCSpoolMem@@UAEPAXI@Z" PURGE="4" COMMENT="" />
    <EXPORT ORDINAL="982" NAME="??_GCStaticTextItem@@UAEPAXI@Z" PURGE="4" COMMENT="" />
    <EXPORT ORDINAL="983" NAME="??_GCStatusTextTable@CDialogItem@@UAEPAXI@Z" PURGE="4" COMMENT="" />
    <EXPORT ORDINAL="984" NAME="??_GCSubSampleParams@CConversionNavigator@@UAEPAXI@Z" PURGE="4" COMMENT="" />
    <EXPORT ORDINAL="985" NAME="??_GCSubscriber@CSpoolEnv@@UAEPAXI@Z" PURGE="4" COMMENT="" />
    <EXPORT ORDINAL="986" NAME="??_GCTexture@@UAEPAXI@Z" PURGE="4" COMMENT="" />
    <EXPORT ORDINAL="987" NAME="??_GCTextureProcess@@UAEPAXI@Z" PURGE="4" COMMENT="" />
    <EXPORT ORDINAL="988" NAME="??_GCTimer@@UAEPAXI@Z" PURGE="4" COMMENT="" />
    <EXPORT ORDINAL="989" NAME="??_GCToggleButtonItem@@UAEPAXI@Z" PURGE="4" COMMENT="" />
    <EXPORT ORDINAL="990" NAME="??_GCUIData@@UAEPAXI@Z" PURGE="4" COMMENT="" />
    <EXPORT ORDINAL="991" NAME="??_GCUITrackInfo@@UAEPAXI@Z" PURGE="4" COMMENT="" />
    <EXPORT ORDINAL="992" NAME="??_GCUniMotion@@UAEPAXI@Z" PURGE="4" COMMENT="" />
    <EXPORT ORDINAL="993" NAME="??_GCUserParamStack@CNavProcess@@UAEPAXI@Z" PURGE="4" COMMENT="" />
    <EXPORT ORDINAL="994" NAME="??_GCWinAppl@@UAEPAXI@Z" PURGE="4" COMMENT="" />
    <EXPORT ORDINAL="995" NAME="??_GCiRange@@QAEPAXI@Z" PURGE="4" COMMENT="" />
    <EXPORT ORDINAL="996" NAME="??_GCiRect@@QAEPAXI@Z" PURGE="4" COMMENT="" />
    <EXPORT ORDINAL="997" NAME="??_GSTextureUser@CTextureProcess@@QAEPAXI@Z" PURGE="4" COMMENT="" />
    <EXPORT ORDINAL="998" NAME="?ARGBCurve@CTexture@@KAXPAVCImVector64@@00K@Z" PURGE="0" COMMENT="" />
    <EXPORT ORDINAL="999" NAME="?ARGBScanLinetoBGR@CImage@@SAXPBVCImVector@@PADK@Z" PURGE="0" COMMENT="" />
    <EXPORT ORDINAL="1000" NAME="?ARGBScanLinetoBGRA@CImage@@SAXPBVCImVector@@PADK@Z" PURGE="0" COMMENT="" />
    <EXPORT ORDINAL="1001" NAME="?AR_@CImVector64@@QBEKXZ" PURGE="0" COMMENT="" />
    <EXPORT ORDINAL="1002" NAME="?A_@CImVector64@@QBEKXZ" PURGE="0" COMMENT="" />
    <EXPORT ORDINAL="1003" NAME="?A_@CImVector@@QBEKXZ" PURGE="0" COMMENT="" />
    <EXPORT ORDINAL="1004" NAME="?A_@CImVector@@SAKK@Z" PURGE="0" COMMENT="" />
    <EXPORT ORDINAL="1005" NAME="?AbsTrans@CTexture@@QAEPAVC23Affine@@XZ" PURGE="0" COMMENT="" />
    <EXPORT ORDINAL="1006" NAME="?Acceleration@CUniMotion@@QBEMXZ" PURGE="0" COMMENT="" />
    <EXPORT ORDINAL="1007" NAME="?Access@C22Matrix@@QAEPAMXZ" PURGE="0" COMMENT="" />
    <EXPORT ORDINAL="1008" NAME="?Access@C23Affine@@QAEPANXZ" PURGE="0" COMMENT="" />
    <EXPORT ORDINAL="1009" NAME="?Access@C2Vector@@QAEPAMXZ" PURGE="0" COMMENT="" />
    <EXPORT ORDINAL="1010" NAME="?Access@C2iVector@@QAEPAJXZ" PURGE="0" COMMENT="" />
    <EXPORT ORDINAL="1011" NAME="?Access@C33Matrix@@QAEPAMXZ" PURGE="0" COMMENT="" />
    <EXPORT ORDINAL="1012" NAME="?Access@C33iMatrix@@QAEPAJXZ" PURGE="0" COMMENT="" />
    <EXPORT ORDINAL="1013" NAME="?Access@C3Vector@@QAEPAMXZ" PURGE="0" COMMENT="" />
    <EXPORT ORDINAL="1014" NAME="?Access@C3iVector@@QAEPAJXZ" PURGE="0" COMMENT="" />
    <EXPORT ORDINAL="1015" NAME="?Access@C44Matrix@@QAEPAMXZ" PURGE="0" COMMENT="" />
    <EXPORT ORDINAL="1016" NAME="?Access@C44iMatrix@@QAEPAJXZ" PURGE="0" COMMENT="" />
    <EXPORT ORDINAL="1017" NAME="?Access@C4Vector@@QAEPAMXZ" PURGE="0" COMMENT="" />
    <EXPORT ORDINAL="1018" NAME="?Access@C4iVector@@QAEPAJXZ" PURGE="0" COMMENT="" />
    <EXPORT ORDINAL="1019" NAME="?Access@CRange@@QAEPAMXZ" PURGE="0" COMMENT="" />
    <EXPORT ORDINAL="1020" NAME="?Access@CRect@@QAEPAMXZ" PURGE="0" COMMENT="" />
    <EXPORT ORDINAL="1021" NAME="?Access@CiRange@@QAEPAJXZ" PURGE="0" COMMENT="" />
    <EXPORT ORDINAL="1022" NAME="?Access@CiRect@@QAEPAJXZ" PURGE="0" COMMENT="" />
    <EXPORT ORDINAL="1023" NAME="?AccessTimeSortP@CSpoolEnv@@KAJPBVCCFEntry@@0@Z" PURGE="0" COMMENT="" />
    <EXPORT ORDINAL="1024" NAME="?ActivateItem@CToggleButtonItem@@QAEXE@Z" PURGE="4" COMMENT="" />
    <EXPORT ORDINAL="1025" NAME="?ActiveArea@CImage@@UBE?AVCiRect@@XZ" PURGE="4" COMMENT="" />
    <EXPORT ORDINAL="1026" NAME="?Add@CImVector64@@SAXPAV1@00@Z" PURGE="0" COMMENT="" />
    <EXPORT ORDINAL="1027" NAME="?Add@CImVector64@@SAXPAV1@00K@Z" PURGE="0" COMMENT="" />
    <EXPORT ORDINAL="1028" NAME="?AddDItem@CDialog@@MAEPAVCDialogItem@@ABVCDialogItemInit@@PAUSItemProperty@2@@Z" PURGE="8" COMMENT="" />
    <EXPORT ORDINAL="1029" NAME="?AddItem@CMenu@@QAEEJPAEE@Z" PURGE="12" COMMENT="" />
    <EXPORT ORDINAL="1030" NAME="?AddMember@CCmFunction@@QAEEPBVCCFEntry@@@Z" PURGE="4" COMMENT="" />
    <EXPORT ORDINAL="1031" NAME="?AddParams@CNavProcess@@QAEXXZ" PURGE="0" COMMENT="" />
    <EXPORT ORDINAL="1032" NAME="?AddParams@CTextureProcess@@QAEXXZ" PURGE="0" COMMENT="" />
    <EXPORT ORDINAL="1033" NAME="?AddParams@CUserParamStack@CNavProcess@@QAEEPAD@Z" PURGE="4" COMMENT="" />
    <EXPORT ORDINAL="1034" NAME="?AddPopupResMenu@CPopupMenuItem@@QAEEPAVCResourceFile@@JPAD1@Z" PURGE="16" COMMENT="" />
    <EXPORT ORDINAL="1035" NAME="?AddResReference@CWindowsEnv@@SAHJ@Z" PURGE="0" COMMENT="" />
    <EXPORT ORDINAL="1036" NAME="?Adjoint@C33Matrix@@QBE?AV1@XZ" PURGE="4" COMMENT="" />
    <EXPORT ORDINAL="1037" NAME="?Adjoint@C33iMatrix@@QBE?AV1@XZ" PURGE="4" COMMENT="" />
    <EXPORT ORDINAL="1038" NAME="?Adjoint@C44Matrix@@QBE?AV1@XZ" PURGE="4" COMMENT="" />
    <EXPORT ORDINAL="1039" NAME="?Adjoint@C44iMatrix@@QBE?AV1@XZ" PURGE="4" COMMENT="" />
    <EXPORT ORDINAL="1040" NAME="?AdvanceProcessAreas@CNavProcess@@UAEEAAVCImageProcessData@1@E@Z" PURGE="8" COMMENT="" />
    <EXPORT ORDINAL="1041" NAME="?AdvanceProcessAreas@CNavProcess@@UAEEAAVCProcessData@1@E@Z" PURGE="8" COMMENT="" />
    <EXPORT ORDINAL="1042" NAME="?AdvanceTile@CSubSampleParams@CConversionNavigator@@QAEEABVCiRect@@JJ@Z" PURGE="12" COMMENT="" />
    <EXPORT ORDINAL="1043" NAME="?AlignBottom@CRect@@QAEXABV1@@Z" PURGE="4" COMMENT="" />
    <EXPORT ORDINAL="1044" NAME="?AlignBottom@CiRect@@QAEXABV1@@Z" PURGE="4" COMMENT="" />
    <EXPORT ORDINAL="1045" NAME="?AlignHigh@CRange@@QAEXABV1@@Z" PURGE="4" COMMENT="" />
    <EXPORT ORDINAL="1046" NAME="?AlignHigh@CiRange@@QAEXABV1@@Z" PURGE="4" COMMENT="" />
    <EXPORT ORDINAL="1047" NAME="?AlignLeft@CRect@@QAEXABV1@@Z" PURGE="4" COMMENT="" />
    <EXPORT ORDINAL="1048" NAME="?AlignLeft@CiRect@@QAEXABV1@@Z" PURGE="4" COMMENT="" />
    <EXPORT ORDINAL="1049" NAME="?AlignLow@CRange@@QAEXABV1@@Z" PURGE="4" COMMENT="" />
    <EXPORT ORDINAL="1050" NAME="?AlignLow@CiRange@@QAEXABV1@@Z" PURGE="4" COMMENT="" />
    <EXPORT ORDINAL="1051" NAME="?AlignRectToRect@CPDUtils@@SAXAAVCiRect@@ABV2@W4EAlignStyle@@@Z" PURGE="0" COMMENT="" />
    <EXPORT ORDINAL="1052" NAME="?AlignRight@CRect@@QAEXABV1@@Z" PURGE="4" COMMENT="" />
    <EXPORT ORDINAL="1053" NAME="?AlignRight@CiRect@@QAEXABV1@@Z" PURGE="4" COMMENT="" />
    <EXPORT ORDINAL="1054" NAME="?AlignTop@CRect@@QAEXABV1@@Z" PURGE="4" COMMENT="" />
    <EXPORT ORDINAL="1055" NAME="?AlignTop@CiRect@@QAEXABV1@@Z" PURGE="4" COMMENT="" />
    <EXPORT ORDINAL="1056" NAME="?AllocMethod@CWindowsEnv@@SA?AW4EAllocMethod@1@XZ" PURGE="0" COMMENT="" />
    <EXPORT ORDINAL="1057" NAME="?Alloc_@CMemPool@@IAEPADK@Z" PURGE="4" COMMENT="" />
    <EXPORT ORDINAL="1058" NAME="?Allocate@CMemPool@@QAEPADK@Z" PURGE="4" COMMENT="" />
    <EXPORT ORDINAL="1059" NAME="?AllocateE@CCmFile@@IAEKAAUSEntry@1@K@Z" PURGE="8" COMMENT="" />
    <EXPORT ORDINAL="1060" NAME="?AllocateEntry@CCmFile@@QAEKKK@Z" PURGE="8" COMMENT="" />
    <EXPORT ORDINAL="1061" NAME="?AllocateSys@CMemPool@@SAPADK@Z" PURGE="0" COMMENT="" />
    <EXPORT ORDINAL="1062" NAME="?Allocated@CDynArray@@QBEKXZ" PURGE="0" COMMENT="" />
    <EXPORT ORDINAL="1063" NAME="?Allocated@CDynTable@@QBEKXZ" PURGE="0" COMMENT="" />
    <EXPORT ORDINAL="1064" NAME="?AlphaFade@CImVector@@QAEXKKK@Z" PURGE="12" COMMENT="" />
    <EXPORT ORDINAL="1065" NAME="?AppInstance@CWinAppl@@QBEPAXXZ" PURGE="0" COMMENT="" />
    <EXPORT ORDINAL="1066" NAME="?AppWindow@CWinAppl@@QBEPAXXZ" PURGE="0" COMMENT="" />
    <EXPORT ORDINAL="1067" NAME="?AppWindowProc@CWinAppl@@SAP6GJPAXIIJ@ZXZ" PURGE="0" COMMENT="" />
    <EXPORT ORDINAL="1068" NAME="?Appl@CCanvas@@UBEPAVCAppl@@XZ" PURGE="0" COMMENT="" />
    <EXPORT ORDINAL="1069" NAME="?Appl@CPlugin@@UBEPAVCPluginAppl@@XZ" PURGE="0" COMMENT="" />
    <EXPORT ORDINAL="1070" NAME="?ApplyColor@CGradient@@QAEXPAV1@KKKKW4EApplyType@1@W4EGlueType@CImVector64@@EE@Z" PURGE="36" COMMENT="" />
    <EXPORT ORDINAL="1071" NAME="?ApplyMode_@CNavProcess@@SAXPAE0JJKJ@Z" PURGE="0" COMMENT="" />
    <EXPORT ORDINAL="1072" NAME="?ApplyTrans@CTexture@@QAEXVC23Affine@@@Z" PURGE="48" COMMENT="" />
    <EXPORT ORDINAL="1073" NAME="?AreaRect@CMaskPopupObject@@QAEABVCiRect@@XZ" PURGE="0" COMMENT="" />
    <EXPORT ORDINAL="1074" NAME="?Array@CSaScanner@CSpoolArray@@QBEPAV2@XZ" PURGE="0" COMMENT="" />
    <EXPORT ORDINAL="1075" NAME="?At@CImNavigator@CImage@@QBEPAVCImVector@@PBV3@K@Z" PURGE="8" COMMENT="" />
    <EXPORT ORDINAL="1076" NAME="?At@CImNavigator@CImage@@QBEPAVCImVector@@XZ" PURGE="0" COMMENT="" />
    <EXPORT ORDINAL="1077" NAME="?At@CMirrorNav@@QAEPADXZ" PURGE="0" COMMENT="" />
    <EXPORT ORDINAL="1078" NAME="?At@CNavigator@CMemBlock@@QBEPADQADK@Z" PURGE="8" COMMENT="" />
    <EXPORT ORDINAL="1079" NAME="?At@CNavigator@CMemBlock@@QBEPADXZ" PURGE="0" COMMENT="" />
    <EXPORT ORDINAL="1080" NAME="?At@CPrevImNavigator@CPreviewImage@@QBEPAVCImVector@@XZ" PURGE="0" COMMENT="" />
    <EXPORT ORDINAL="1081" NAME="?At@CScanner@CMemBlock@@QBEPADQAD@Z" PURGE="4" COMMENT="" />
    <EXPORT ORDINAL="1082" NAME="?At@CScanner@CMemBlock@@QBEPADXZ" PURGE="0" COMMENT="" />
    <EXPORT ORDINAL="1083" NAME="?AtAbs@CImNavigator@CImage@@QBEPAVCImVector@@KK@Z" PURGE="8" COMMENT="" />
    <EXPORT ORDINAL="1084" NAME="?AtAbs@CImNavigator@CImage@@QBEPAVCImVector@@KKPBV3@K@Z" PURGE="16" COMMENT="" />
    <EXPORT ORDINAL="1085" NAME="?AtAbs@CNavigator@CMemBlock@@QBEPADKK@Z" PURGE="8" COMMENT="" />
    <EXPORT ORDINAL="1086" NAME="?AtAbs@CNavigator@CMemBlock@@QBEPADKKQADK@Z" PURGE="16" COMMENT="" />
    <EXPORT ORDINAL="1087" NAME="?AtAbs@CPrevImNavigator@CPreviewImage@@QBEPAVCImVector@@KK@Z" PURGE="8" COMMENT="" />
    <EXPORT ORDINAL="1088" NAME="?AtAbs@CScanner@CMemBlock@@QBEPADK@Z" PURGE="4" COMMENT="" />
    <EXPORT ORDINAL="1089" NAME="?AtAbs@CScanner@CMemBlock@@QBEPADKQAD@Z" PURGE="8" COMMENT="" />
    <EXPORT ORDINAL="1090" NAME="?AtRel@CImNavigator@CImage@@QBEPAVCImVector@@JJ@Z" PURGE="8" COMMENT="" />
    <EXPORT ORDINAL="1091" NAME="?AtRel@CImNavigator@CImage@@QBEPAVCImVector@@JJPBV3@K@Z" PURGE="16" COMMENT="" />
    <EXPORT ORDINAL="1092" NAME="?AtRel@CMirrorNav@@QAEPADJJ@Z" PURGE="8" COMMENT="" />
    <EXPORT ORDINAL="1093" NAME="?AtRel@CNavigator@CMemBlock@@QBEPADJJ@Z" PURGE="8" COMMENT="" />
    <EXPORT ORDINAL="1094" NAME="?AtRel@CNavigator@CMemBlock@@QBEPADJJQADK@Z" PURGE="16" COMMENT="" />
    <EXPORT ORDINAL="1095" NAME="?AtRel@CPrevImNavigator@CPreviewImage@@QBEPAVCImVector@@JJ@Z" PURGE="8" COMMENT="" />
    <EXPORT ORDINAL="1096" NAME="?AtRel@CScanner@CMemBlock@@QBEPADJ@Z" PURGE="4" COMMENT="" />
    <EXPORT ORDINAL="1097" NAME="?AtRel@CScanner@CMemBlock@@QBEPADJQAD@Z" PURGE="8" COMMENT="" />
    <EXPORT ORDINAL="1098" NAME="?AtRel_@CImNavigator@CImage@@QBEPAVCImVector@@JJ@Z" PURGE="8" COMMENT="" />
    <EXPORT ORDINAL="1099" NAME="?AtRel_@CImNavigator@CImage@@QBEPAVCImVector@@JJPBV3@K@Z" PURGE="16" COMMENT="" />
    <EXPORT ORDINAL="1100" NAME="?AtRel_@CNavigator@CMemBlock@@QBEPADJJ@Z" PURGE="8" COMMENT="" />
    <EXPORT ORDINAL="1101" NAME="?AtRel_@CNavigator@CMemBlock@@QBEPADJJQADK@Z" PURGE="16" COMMENT="" />
    <EXPORT ORDINAL="1102" NAME="?AtRel_@CPrevImNavigator@CPreviewImage@@QBEPAVCImVector@@JJ@Z" PURGE="8" COMMENT="" />
    <EXPORT ORDINAL="1103" NAME="?AtRel_@CScanner@CMemBlock@@QBEPADJ@Z" PURGE="4" COMMENT="" />
    <EXPORT ORDINAL="1104" NAME="?AtRel_@CScanner@CMemBlock@@QBEPADJQAD@Z" PURGE="8" COMMENT="" />
    <EXPORT ORDINAL="1105" NAME="?AtRel_f@CImNavigator@CImage@@QBEPAVCImVector@@JJ@Z" PURGE="8" COMMENT="" />
    <EXPORT ORDINAL="1106" NAME="?AtRel_f@CImNavigator@CImage@@QBEPAVCImVector@@JJPBV3@K@Z" PURGE="16" COMMENT="" />
    <EXPORT ORDINAL="1107" NAME="?AtRel_f@CNavigator@CMemBlock@@QBEPADJJ@Z" PURGE="8" COMMENT="" />
    <EXPORT ORDINAL="1108" NAME="?AtRel_f@CNavigator@CMemBlock@@QBEPADJJQADK@Z" PURGE="16" COMMENT="" />
    <EXPORT ORDINAL="1109" NAME="?AtRel_f@CPrevImNavigator@CPreviewImage@@QBEPAVCImVector@@JJ@Z" PURGE="8" COMMENT="" />
    <EXPORT ORDINAL="1110" NAME="?AtRel_f@CScanner@CMemBlock@@QBEPADJ@Z" PURGE="4" COMMENT="" />
    <EXPORT ORDINAL="1111" NAME="?AtRel_f@CScanner@CMemBlock@@QBEPADJQAD@Z" PURGE="8" COMMENT="" />
    <EXPORT ORDINAL="1112" NAME="?Attach@CMemBlock@@QAEXPADKPAVCMemPool@@@Z" PURGE="12" COMMENT="" />
    <EXPORT ORDINAL="1113" NAME="?Attach@CSpoolMem@@UAEXPADKPAVCMemPool@@@Z" PURGE="12" COMMENT="" />
    <EXPORT ORDINAL="1114" NAME="?AutoDelete@CSpoolEnv@@UBEEXZ" PURGE="0" COMMENT="" />
    <EXPORT ORDINAL="1115" NAME="?AvVelocity@CUniMotion@@QBEMXZ" PURGE="0" COMMENT="" />
    <EXPORT ORDINAL="1116" NAME="?AxiomDesktop@CWinAppl@@UBE?AVCiRect@@XZ" PURGE="4" COMMENT="" />
    <EXPORT ORDINAL="1117" NAME="?AxiomDesktopToLocal@CCanvas@@UBE?AVC2iVector@@ABV2@@Z" PURGE="8" COMMENT="" />
    <EXPORT ORDINAL="1118" NAME="?BGRAScanLinetoARGB@CImage@@SAXPADPAVCImVector@@K@Z" PURGE="0" COMMENT="" />
    <EXPORT ORDINAL="1119" NAME="?BGRScanLinetoARGB@CImage@@SAXPADPAVCImVector@@K@Z" PURGE="0" COMMENT="" />
    <EXPORT ORDINAL="1120" NAME="?B_@CImNavigator@CImage@@QBEPBVCImVector@@XZ" PURGE="0" COMMENT="" />
    <EXPORT ORDINAL="1121" NAME="?B_@CImVector48@@QBEKXZ" PURGE="0" COMMENT="" />
    <EXPORT ORDINAL="1122" NAME="?B_@CImVector64@@QBEKXZ" PURGE="0" COMMENT="" />
    <EXPORT ORDINAL="1123" NAME="?B_@CImVector@@QBEKXZ" PURGE="0" COMMENT="" />
    <EXPORT ORDINAL="1124" NAME="?B_@CImVector@@SAKK@Z" PURGE="0" COMMENT="" />
    <EXPORT ORDINAL="1125" NAME="?B_@CNavigator@CMemBlock@@QBEQADXZ" PURGE="0" COMMENT="" />
    <EXPORT ORDINAL="1126" NAME="?B_@CScanner@CMemBlock@@QBEQADXZ" PURGE="0" COMMENT="" />
    <EXPORT ORDINAL="1127" NAME="?BackColor@CPlugin@@IAEAAURGBColor@@XZ" PURGE="0" COMMENT="" />
    <EXPORT ORDINAL="1128" NAME="?BackColor@CPluginAppl@@QAEAAURGBColor@@XZ" PURGE="0" COMMENT="" />
    <EXPORT ORDINAL="1129" NAME="?BeginMouseVirtualTrack@CDialogItem@@QAEXXZ" PURGE="0" COMMENT="" />
    <EXPORT ORDINAL="1130" NAME="?BeginPeriod@CRenderPeriod@@QAEXXZ" PURGE="0" COMMENT="" />
    <EXPORT ORDINAL="1131" NAME="?BeginScan@CDynArray@@QAEEAAVCIterator@1@@Z" PURGE="4" COMMENT="" />
    <EXPORT ORDINAL="1132" NAME="?BeginScan@CDynTable@@QAEEAAVCIterator@1@@Z" PURGE="4" COMMENT="" />
    <EXPORT ORDINAL="1133" NAME="?BeginScan@CResourceFile@@QAEEK@Z" PURGE="4" COMMENT="" />
    <EXPORT ORDINAL="1134" NAME="?BeginTrack@CDialogItem@@UAEJXZ" PURGE="0" COMMENT="" />
    <EXPORT ORDINAL="1135" NAME="?BicubicScDown@CImage@@IAEEPAV1@KKKK@Z" PURGE="20" COMMENT="" />
    <EXPORT ORDINAL="1136" NAME="?BicubicScUp@CImage@@IAEEPAV1@KKKK@Z" PURGE="20" COMMENT="" />
    <EXPORT ORDINAL="1137" NAME="?BilinearScDown@CImage@@IAEEPAV1@KKKK@Z" PURGE="20" COMMENT="" />
    <EXPORT ORDINAL="1138" NAME="?BilinearScUp@CImage@@IAEEPAV1@KKKK@Z" PURGE="20" COMMENT="" />
    <EXPORT ORDINAL="1139" NAME="?BitDepth@CPDUtils@@SAKPAX@Z" PURGE="0" COMMENT="" />
    <EXPORT ORDINAL="1140" NAME="?Bitmap@CBitmap@@QAEPAXXZ" PURGE="0" COMMENT="" />
    <EXPORT ORDINAL="1141" NAME="?Black@CImVector48@@QAEXXZ" PURGE="0" COMMENT="" />
    <EXPORT ORDINAL="1142" NAME="?Black@CImVector64@@QAEXXZ" PURGE="0" COMMENT="" />
    <EXPORT ORDINAL="1143" NAME="?Blend255_@CImVector@@IAEXKPBV1@@Z" PURGE="8" COMMENT="" />
    <EXPORT ORDINAL="1144" NAME="?Blend@CImVector64@@SAXPAV1@00@Z" PURGE="0" COMMENT="" />
    <EXPORT ORDINAL="1145" NAME="?Blend@CImVector64@@SAXPAV1@00K@Z" PURGE="0" COMMENT="" />
    <EXPORT ORDINAL="1146" NAME="?Blend@CImVector@@QAEXK@Z" PURGE="4" COMMENT="" />
    <EXPORT ORDINAL="1147" NAME="?Blend@CImVector@@QAEXKK@Z" PURGE="8" COMMENT="" />
    <EXPORT ORDINAL="1148" NAME="?Blend@CImVector@@QAEXKPBV1@@Z" PURGE="8" COMMENT="" />
    <EXPORT ORDINAL="1149" NAME="?Blend@CImVector@@QAEXPBV1@@Z" PURGE="4" COMMENT="" />
    <EXPORT ORDINAL="1150" NAME="?BlendC@CImVector@@KAEKKK@Z" PURGE="0" COMMENT="" />
    <EXPORT ORDINAL="1151" NAME="?BlendCH@CFrImNavigator@CImage@@IBEXPAVCImVector64@@JJKKPBVCImVector@@K@Z" PURGE="28" COMMENT="" />
    <EXPORT ORDINAL="1152" NAME="?BlendCH@CFrImNavigator@CImage@@IBEXPAVCImVector@@JJKKPBV3@K@Z" PURGE="28" COMMENT="" />
    <EXPORT ORDINAL="1153" NAME="?BlendCS@CFrImNavigator@CImage@@IBEXPAVCImVector64@@JJKKPBVCImVector@@K@Z" PURGE="28" COMMENT="" />
    <EXPORT ORDINAL="1154" NAME="?BlendCS@CFrImNavigator@CImage@@IBEXPAVCImVector@@JJKKPBV3@K@Z" PURGE="28" COMMENT="" />
    <EXPORT ORDINAL="1155" NAME="?BlendH_@CFrImNavigator@CImage@@IBEXPAVCImVector64@@JJKKPBVCImVector@@K@Z" PURGE="28" COMMENT="" />
    <EXPORT ORDINAL="1156" NAME="?BlendH_@CFrImNavigator@CImage@@IBEXPAVCImVector@@JJKKPBV3@K@Z" PURGE="28" COMMENT="" />
    <EXPORT ORDINAL="1157" NAME="?BlendIVs@CImage@@UAEEKPAV1@0@Z" PURGE="12" COMMENT="" />
    <EXPORT ORDINAL="1158" NAME="?BlendIVs@CImage@@UAEEKPAV1@@Z" PURGE="8" COMMENT="" />
    <EXPORT ORDINAL="1159" NAME="?BlendIVs@CImage@@UAEEPAV1@0@Z" PURGE="8" COMMENT="" />
    <EXPORT ORDINAL="1160" NAME="?BlendIVs@CImage@@UAEEPAV1@@Z" PURGE="4" COMMENT="" />
    <EXPORT ORDINAL="1161" NAME="?BlendIVsRGB@CImage@@UAEEKPAV1@0@Z" PURGE="12" COMMENT="" />
    <EXPORT ORDINAL="1162" NAME="?BlendIVsRGB@CImage@@UAEEKPAV1@@Z" PURGE="8" COMMENT="" />
    <EXPORT ORDINAL="1163" NAME="?BlendIVsRGB@CImage@@UAEEPAV1@0@Z" PURGE="8" COMMENT="" />
    <EXPORT ORDINAL="1164" NAME="?BlendIVsRGB@CImage@@UAEEPAV1@@Z" PURGE="4" COMMENT="" />
    <EXPORT ORDINAL="1165" NAME="?BlendInto@CImVector64@@SAXPAV1@00@Z" PURGE="0" COMMENT="" />
    <EXPORT ORDINAL="1166" NAME="?BlendInto@CImVector64@@SAXPAV1@00K@Z" PURGE="0" COMMENT="" />
    <EXPORT ORDINAL="1167" NAME="?BlendRGB255_@CImVector@@IAEXKPBV1@@Z" PURGE="8" COMMENT="" />
    <EXPORT ORDINAL="1168" NAME="?BlendRGB@CImVector@@QAEXK@Z" PURGE="4" COMMENT="" />
    <EXPORT ORDINAL="1169" NAME="?BlendRGB@CImVector@@QAEXKK@Z" PURGE="8" COMMENT="" />
    <EXPORT ORDINAL="1170" NAME="?BlendRGB@CImVector@@QAEXKPBV1@@Z" PURGE="8" COMMENT="" />
    <EXPORT ORDINAL="1171" NAME="?BlendRGB@CImVector@@QAEXPBV1@@Z" PURGE="4" COMMENT="" />
    <EXPORT ORDINAL="1172" NAME="?BlendRGB_@CImVector@@IAEXKPBV1@@Z" PURGE="8" COMMENT="" />
    <EXPORT ORDINAL="1173" NAME="?BlendR_@CFrImNavigator@CImage@@IBEXPAVCImVector64@@JJKKPBVCImVector@@K@Z" PURGE="28" COMMENT="" />
    <EXPORT ORDINAL="1174" NAME="?BlendR_@CFrImNavigator@CImage@@IBEXPAVCImVector@@JJKKPBV3@K@Z" PURGE="28" COMMENT="" />
    <EXPORT ORDINAL="1175" NAME="?BlendS_@CFrImNavigator@CImage@@IBEXPAVCImVector64@@JJKKPBVCImVector@@K@Z" PURGE="28" COMMENT="" />
    <EXPORT ORDINAL="1176" NAME="?BlendS_@CFrImNavigator@CImage@@IBEXPAVCImVector@@JJKKPBV3@K@Z" PURGE="28" COMMENT="" />
    <EXPORT ORDINAL="1177" NAME="?BlendScaledIVs@CImage@@UAEEKPAV1@0@Z" PURGE="12" COMMENT="" />
    <EXPORT ORDINAL="1178" NAME="?BlendScaledIVs@CImage@@UAEEKPAV1@@Z" PURGE="8" COMMENT="" />
    <EXPORT ORDINAL="1179" NAME="?BlendScaledIVsRGB@CImage@@UAEEKPAV1@0@Z" PURGE="12" COMMENT="" />
    <EXPORT ORDINAL="1180" NAME="?BlendScaledIVsRGB@CImage@@UAEEKPAV1@@Z" PURGE="8" COMMENT="" />
    <EXPORT ORDINAL="1181" NAME="?Blend_@CImVector@@IAEXKPBV1@@Z" PURGE="8" COMMENT="" />
    <EXPORT ORDINAL="1182" NAME="?Blit@CImage@@UAEEPAX@Z" PURGE="4" COMMENT="" />
    <EXPORT ORDINAL="1183" NAME="?Blit@CImage@@UAEEPAXABVC2iVector@@@Z" PURGE="8" COMMENT="" />
    <EXPORT ORDINAL="1184" NAME="?Blit@CImage@@UAEEPAXABVCiRect@@1@Z" PURGE="12" COMMENT="" />
    <EXPORT ORDINAL="1185" NAME="?Blit@CImage@@UAEEPAXABVCiRect@@@Z" PURGE="8" COMMENT="" />
    <EXPORT ORDINAL="1186" NAME="?Blit@CPreviewImage@@UAEEPAXABVC2iVector@@@Z" PURGE="8" COMMENT="" />
    <EXPORT ORDINAL="1187" NAME="?BlitFrom@CPreviewImage@@QAEEPAXABVC2iVector@@@Z" PURGE="8" COMMENT="" />
    <EXPORT ORDINAL="1188" NAME="?BlitOffset@CPreviewImage@@QAEEPAXABVC2iVector@@1@Z" PURGE="12" COMMENT="" />
    <EXPORT ORDINAL="1189" NAME="?BlitRect@CImage@@IAEXAAVCPlatformData@1@PAXABVCiRect@@2@Z" PURGE="16" COMMENT="" />
    <EXPORT ORDINAL="1190" NAME="?Blit_f@CPreviewImage@@QAEEPAXABVC2iVector@@@Z" PURGE="8" COMMENT="" />
    <EXPORT ORDINAL="1191" NAME="?Blur64Scan@CImage@@IAEXPAVCImVector64@@KKE@Z" PURGE="16" COMMENT="" />
    <EXPORT ORDINAL="1192" NAME="?Blur64ScanRGB@CImage@@IAEXPAVCImVector64@@KKE@Z" PURGE="16" COMMENT="" />
    <EXPORT ORDINAL="1193" NAME="?Blur64ScanRGB_@CImage@@IAEXPAVCImVector64@@KKAAV2@1@Z" PURGE="20" COMMENT="" />
    <EXPORT ORDINAL="1194" NAME="?Blur64Scan_@CImage@@IAEXPAVCImVector64@@KKAAV2@1@Z" PURGE="20" COMMENT="" />
    <EXPORT ORDINAL="1195" NAME="?Blur@CGradient@@QAEXMPBV1@KE@Z" PURGE="16" COMMENT="" />
    <EXPORT ORDINAL="1196" NAME="?BlurCvt32to64@CImage@@IAEXPAVCImVector@@PAVCImVector64@@KK@Z" PURGE="16" COMMENT="" />
    <EXPORT ORDINAL="1197" NAME="?BlurCvt32to64RGB@CImage@@IAEXPAVCImVector@@PAVCImVector64@@KK@Z" PURGE="16" COMMENT="" />
    <EXPORT ORDINAL="1198" NAME="?BlurCvt32to64S@CImage@@IAEXPAVCImVector@@PAVCImVector64@@KK@Z" PURGE="16" COMMENT="" />
    <EXPORT ORDINAL="1199" NAME="?BlurCvt64Sto32@CImage@@IAEXPAVCImVector64@@PAVCImVector@@KK@Z" PURGE="16" COMMENT="" />
    <EXPORT ORDINAL="1200" NAME="?BlurCvt64to32@CImage@@IAEXPAVCImVector64@@PAVCImVector@@KK@Z" PURGE="16" COMMENT="" />
    <EXPORT ORDINAL="1201" NAME="?BlurCvt64to32RGB@CImage@@IAEXPAVCImVector64@@PAVCImVector@@KK@Z" PURGE="16" COMMENT="" />
    <EXPORT ORDINAL="1202" NAME="?BlurIVs@CImage@@UAEEKE@Z" PURGE="8" COMMENT="" />
    <EXPORT ORDINAL="1203" NAME="?BlurIVs@CImage@@UAEEKKE@Z" PURGE="12" COMMENT="" />
    <EXPORT ORDINAL="1204" NAME="?BlurIVsRGB@CImage@@UAEEKE@Z" PURGE="8" COMMENT="" />
    <EXPORT ORDINAL="1205" NAME="?BlurIVsRGB@CImage@@UAEEKKE@Z" PURGE="12" COMMENT="" />
    <EXPORT ORDINAL="1206" NAME="?Blur_@CGradient@@IAEXMKE@Z" PURGE="12" COMMENT="" />
    <EXPORT ORDINAL="1207" NAME="?BottomLeft@CRect@@QBE?AVC2Vector@@XZ" PURGE="4" COMMENT="" />
    <EXPORT ORDINAL="1208" NAME="?BottomLeft@CiRect@@QBE?AVC2iVector@@XZ" PURGE="4" COMMENT="" />
    <EXPORT ORDINAL="1209" NAME="?BottomRight@CRect@@QBE?AVC2Vector@@XZ" PURGE="4" COMMENT="" />
    <EXPORT ORDINAL="1210" NAME="?BottomRight@CiRect@@QBE?AVC2iVector@@XZ" PURGE="4" COMMENT="" />
    <EXPORT ORDINAL="1211" NAME="?Bounds@COffscreen@@QAEABVCiRect@@XZ" PURGE="0" COMMENT="" />
    <EXPORT ORDINAL="1212" NAME="?Brighten@CGradient@@QAEXMPBV1@K@Z" PURGE="12" COMMENT="" />
    <EXPORT ORDINAL="1213" NAME="?Brighten_@CGradient@@IAEXMK@Z" PURGE="8" COMMENT="" />
    <EXPORT ORDINAL="1214" NAME="?BringPluginToFront@CPlugin@@UAEXXZ" PURGE="0" COMMENT="" />
    <EXPORT ORDINAL="1215" NAME="?BuildFont@CPDPort@@QAEXXZ" PURGE="0" COMMENT="" />
    <EXPORT ORDINAL="1216" NAME="?ButtonDown@CWinAppl@@UBEEXZ" PURGE="0" COMMENT="" />
    <EXPORT ORDINAL="1217" NAME="?ButtonStillDown@CWinAppl@@UBEEXZ" PURGE="0" COMMENT="" />
    <EXPORT ORDINAL="1218" NAME="?BytesPerRow@CNavigator@CMemBlock@@QBEKXZ" PURGE="0" COMMENT="" />
    <EXPORT ORDINAL="1219" NAME="?BytesPerRow@CSpoolGrid@@QBEKXZ" PURGE="0" COMMENT="" />
    <EXPORT ORDINAL="1220" NAME="?BytesPerUnit@CConversionNavigator@@SAKW4EImagetype@1@@Z" PURGE="0" COMMENT="" />
    <EXPORT ORDINAL="1221" NAME="?BytesPerUnit@CNavigator@CMemBlock@@QBEKXZ" PURGE="0" COMMENT="" />
    <EXPORT ORDINAL="1222" NAME="?BytesPerUnit@CScanner@CMemBlock@@QBEKXZ" PURGE="0" COMMENT="" />
    <EXPORT ORDINAL="1223" NAME="?BytesPerUnit@CSpoolArray@@QBEKXZ" PURGE="0" COMMENT="" />
    <EXPORT ORDINAL="1224" NAME="?BytesPerUnit@CSpoolGrid@@QBEKXZ" PURGE="0" COMMENT="" />
    <EXPORT ORDINAL="1225" NAME="?CMaskPopupObjectWndProc@CMaskPopupObject@@KGJPAXIIJ@Z" PURGE="16" COMMENT="" />
    <EXPORT ORDINAL="1226" NAME="?CMenuWndProc@CMenu@@KGJPAXIIJ@Z" PURGE="16" COMMENT="" />
    <EXPORT ORDINAL="1227" NAME="?CPopupObjectWndProc@CPopupObject@@KGJPAXIIJ@Z" PURGE="16" COMMENT="" />
    <EXPORT ORDINAL="1228" NAME="?CTable@CTexture@@QAEPAVCImVector64@@XZ" PURGE="0" COMMENT="" />
    <EXPORT ORDINAL="1229" NAME="?CWinApplWndProc@CWinAppl@@KGJPAXIIJ@Z" PURGE="16" COMMENT="" />
    <EXPORT ORDINAL="1230" NAME="?CalcFinalPixel@CNavProcess@@KAKKKK@Z" PURGE="0" COMMENT="" />
    <EXPORT ORDINAL="1231" NAME="?CalcItemRect@CMenu@@QAEXKAAVCiRect@@@Z" PURGE="8" COMMENT="" />
    <EXPORT ORDINAL="1232" NAME="?CalcMenuSize@CMenu@@QAEXXZ" PURGE="0" COMMENT="" />
    <EXPORT ORDINAL="1233" NAME="?CallAbortProc@CNavProcess@@QAEEXZ" PURGE="0" COMMENT="" />
    <EXPORT ORDINAL="1234" NAME="?CallAdvanceStateProc@CPluginAppl@@UAEEXZ" PURGE="0" COMMENT="" />
    <EXPORT ORDINAL="1235" NAME="?CallCApplEntry@CPluginManager@@QAEXXZ" PURGE="0" COMMENT="" />
    <EXPORT ORDINAL="1236" NAME="?CallHostEventProc@CPluginAppl@@UAEXPAD@Z" PURGE="4" COMMENT="" />
    <EXPORT ORDINAL="1237" NAME="?CallPlugin@CPluginAppl@@UAEFK@Z" PURGE="4" COMMENT="" />
    <EXPORT ORDINAL="1238" NAME="?CallPluginEntry@CPluginAppl@@IAEJPAUSPluginRegItem@1@PBVCCFEntryParms@@PAVCCFEntryData@@@Z" PURGE="12" COMMENT="" />
    <EXPORT ORDINAL="1239" NAME="?CallProgressProc@CNavProcess@@QAEXJJ@Z" PURGE="8" COMMENT="" />
    <EXPORT ORDINAL="1240" NAME="?CallProgressProc@CPluginAppl@@UAEXJJ@Z" PURGE="8" COMMENT="" />
    <EXPORT ORDINAL="1241" NAME="?CallRecvProc@CMemPool@@QAEXAAK@Z" PURGE="4" COMMENT="" />
    <EXPORT ORDINAL="1242" NAME="?CanRedo@CNavProcess@@QAEEXZ" PURGE="0" COMMENT="" />
    <EXPORT ORDINAL="1243" NAME="?CanRedo@CUserParamStack@CNavProcess@@QAEEXZ" PURGE="0" COMMENT="" />
    <EXPORT ORDINAL="1244" NAME="?CanUndo@CNavProcess@@QAEEXZ" PURGE="0" COMMENT="" />
    <EXPORT ORDINAL="1245" NAME="?CanUndo@CUserParamStack@CNavProcess@@QAEEXZ" PURGE="0" COMMENT="" />
    <EXPORT ORDINAL="1246" NAME="?Center@CRange@@QAEXABV1@@Z" PURGE="4" COMMENT="" />
    <EXPORT ORDINAL="1247" NAME="?Center@CRange@@QBEMXZ" PURGE="0" COMMENT="" />
    <EXPORT ORDINAL="1248" NAME="?Center@CRect@@QAEXABV1@@Z" PURGE="4" COMMENT="" />
    <EXPORT ORDINAL="1249" NAME="?Center@CRect@@QBE?AVC2Vector@@XZ" PURGE="4" COMMENT="" />
    <EXPORT ORDINAL="1250" NAME="?Center@CiRange@@QAEXABV1@@Z" PURGE="4" COMMENT="" />
    <EXPORT ORDINAL="1251" NAME="?Center@CiRange@@QBEJXZ" PURGE="0" COMMENT="" />
    <EXPORT ORDINAL="1252" NAME="?Center@CiRect@@QAEXABV1@@Z" PURGE="4" COMMENT="" />
    <EXPORT ORDINAL="1253" NAME="?Center@CiRect@@QBE?AVC2iVector@@XZ" PURGE="4" COMMENT="" />
    <EXPORT ORDINAL="1254" NAME="?CenterDlg@CPluginAppl@@SAXPAX@Z" PURGE="0" COMMENT="" />
    <EXPORT ORDINAL="1255" NAME="?CenterH@CRect@@QAEXABV1@@Z" PURGE="4" COMMENT="" />
    <EXPORT ORDINAL="1256" NAME="?CenterH@CiRect@@QAEXABV1@@Z" PURGE="4" COMMENT="" />
    <EXPORT ORDINAL="1257" NAME="?CenterV@CRect@@QAEXABV1@@Z" PURGE="4" COMMENT="" />
    <EXPORT ORDINAL="1258" NAME="?CenterV@CiRect@@QAEXABV1@@Z" PURGE="4" COMMENT="" />
    <EXPORT ORDINAL="1259" NAME="?Changed@CHolder@CSpoolMem@@QBEEXZ" PURGE="0" COMMENT="" />
    <EXPORT ORDINAL="1260" NAME="?CheckAll@CMenu@@QAEXE@Z" PURGE="4" COMMENT="" />
    <EXPORT ORDINAL="1261" NAME="?CheckIdentityItem@CMenu@@QAEXJEE@Z" PURGE="12" COMMENT="" />
    <EXPORT ORDINAL="1262" NAME="?CheckItem@CMenu@@QAEEKEE@Z" PURGE="12" COMMENT="" />
    <EXPORT ORDINAL="1263" NAME="?CheckPort@CPDUtils@@SAEPAX@Z" PURGE="0" COMMENT="" />
    <EXPORT ORDINAL="1264" NAME="?CheckRgnError@CRegion@@IAEEXZ" PURGE="0" COMMENT="" />
    <EXPORT ORDINAL="1265" NAME="?Checkerboard@COpacityItem@@QAEEPAVCImage@@KABVCImVector@@1@Z" PURGE="16" COMMENT="" />
    <EXPORT ORDINAL="1266" NAME="?Child1@CTexture@@QBEPAV1@XZ" PURGE="0" COMMENT="" />
    <EXPORT ORDINAL="1267" NAME="?Child2@CTexture@@QBEPAV1@XZ" PURGE="0" COMMENT="" />
    <EXPORT ORDINAL="1268" NAME="?ClampClosed@CRange@@QBEMM@Z" PURGE="4" COMMENT="" />
    <EXPORT ORDINAL="1269" NAME="?ClampClosed@CiRange@@QBEJJ@Z" PURGE="4" COMMENT="" />
    <EXPORT ORDINAL="1270" NAME="?ClampOpen@CRange@@QBEMM@Z" PURGE="4" COMMENT="" />
    <EXPORT ORDINAL="1271" NAME="?ClampOpen@CiRange@@QBEJJ@Z" PURGE="4" COMMENT="" />
    <EXPORT ORDINAL="1272" NAME="?ClearCurPluginFocusItem@CPlugin@@UAEXXZ" PURGE="0" COMMENT="" />
    <EXPORT ORDINAL="1273" NAME="?ClearFocusItem@CDialog@@UAEXXZ" PURGE="0" COMMENT="" />
    <EXPORT ORDINAL="1274" NAME="?ClearFocusItem@CDialogLayer@@QAEXXZ" PURGE="0" COMMENT="" />
    <EXPORT ORDINAL="1275" NAME="?ClearStatus@CNavProcess@@UAEXXZ" PURGE="0" COMMENT="" />
    <EXPORT ORDINAL="1276" NAME="?Click@CEditText@@QAEXVC2iVector@@E@Z" PURGE="12" COMMENT="" />
    <EXPORT ORDINAL="1277" NAME="?Clip@CGradient@@QAEXXZ" PURGE="0" COMMENT="" />
    <EXPORT ORDINAL="1278" NAME="?ClipRectToRect@CSubSampleParams@CConversionNavigator@@QAEXAAVCiRect@@ABV3@@Z" PURGE="8" COMMENT="" />
    <EXPORT ORDINAL="1279" NAME="?ClipToMenu@CMenu@@QAEXXZ" PURGE="0" COMMENT="" />
    <EXPORT ORDINAL="1280" NAME="?Close@CCmFile@@QAEKXZ" PURGE="0" COMMENT="" />
    <EXPORT ORDINAL="1281" NAME="?Close@CFile@@QAEKXZ" PURGE="0" COMMENT="" />
    <EXPORT ORDINAL="1282" NAME="?Close@CPlatformResFile@@QAEEXZ" PURGE="0" COMMENT="" />
    <EXPORT ORDINAL="1283" NAME="?Close@CResourceFile@@QAEKXZ" PURGE="0" COMMENT="" />
    <EXPORT ORDINAL="1284" NAME="?CmFResult@CSpoolMem@@UBEKXZ" PURGE="0" COMMENT="" />
    <EXPORT ORDINAL="1285" NAME="?CmFile@CSpoolEnv@@UAEPAVCCmFile@@XZ" PURGE="0" COMMENT="" />
    <EXPORT ORDINAL="1286" NAME="?Cofactors@C33Matrix@@QBE?AV1@XZ" PURGE="4" COMMENT="" />
    <EXPORT ORDINAL="1287" NAME="?Cofactors@C33iMatrix@@QBE?AV1@XZ" PURGE="4" COMMENT="" />
    <EXPORT ORDINAL="1288" NAME="?Cofactors@C44Matrix@@QBE?AV1@XZ" PURGE="4" COMMENT="" />
    <EXPORT ORDINAL="1289" NAME="?Cofactors@C44iMatrix@@QBE?AV1@XZ" PURGE="4" COMMENT="" />
    <EXPORT ORDINAL="1290" NAME="?Col0@C22Matrix@@QAE?AVC2Vector@@XZ" PURGE="4" COMMENT="" />
    <EXPORT ORDINAL="1291" NAME="?Col0@C33Matrix@@QAE?AVC3Vector@@XZ" PURGE="4" COMMENT="" />
    <EXPORT ORDINAL="1292" NAME="?Col0@C33iMatrix@@QAE?AVC3iVector@@XZ" PURGE="4" COMMENT="" />
    <EXPORT ORDINAL="1293" NAME="?Col0@C44Matrix@@QAE?AVC4Vector@@XZ" PURGE="4" COMMENT="" />
    <EXPORT ORDINAL="1294" NAME="?Col0@C44iMatrix@@QAE?AVC4iVector@@XZ" PURGE="4" COMMENT="" />
    <EXPORT ORDINAL="1295" NAME="?Col1@C22Matrix@@QAE?AVC2Vector@@XZ" PURGE="4" COMMENT="" />
    <EXPORT ORDINAL="1296" NAME="?Col1@C33Matrix@@QAE?AVC3Vector@@XZ" PURGE="4" COMMENT="" />
    <EXPORT ORDINAL="1297" NAME="?Col1@C33iMatrix@@QAE?AVC3iVector@@XZ" PURGE="4" COMMENT="" />
    <EXPORT ORDINAL="1298" NAME="?Col1@C44Matrix@@QAE?AVC4Vector@@XZ" PURGE="4" COMMENT="" />
    <EXPORT ORDINAL="1299" NAME="?Col1@C44iMatrix@@QAE?AVC4iVector@@XZ" PURGE="4" COMMENT="" />
    <EXPORT ORDINAL="1300" NAME="?Col2@C33Matrix@@QAE?AVC3Vector@@XZ" PURGE="4" COMMENT="" />
    <EXPORT ORDINAL="1301" NAME="?Col2@C33iMatrix@@QAE?AVC3iVector@@XZ" PURGE="4" COMMENT="" />
    <EXPORT ORDINAL="1302" NAME="?Col2@C44Matrix@@QAE?AVC4Vector@@XZ" PURGE="4" COMMENT="" />
    <EXPORT ORDINAL="1303" NAME="?Col2@C44iMatrix@@QAE?AVC4iVector@@XZ" PURGE="4" COMMENT="" />
    <EXPORT ORDINAL="1304" NAME="?Col3@C44Matrix@@QAE?AVC4Vector@@XZ" PURGE="4" COMMENT="" />
    <EXPORT ORDINAL="1305" NAME="?Col3@C44iMatrix@@QAE?AVC4iVector@@XZ" PURGE="4" COMMENT="" />
    <EXPORT ORDINAL="1306" NAME="?Colorize@CGradient@@QAEXABVCImVector@@@Z" PURGE="4" COMMENT="" />
    <EXPORT ORDINAL="1307" NAME="?CommandDown@CPDUtils@@SAEXZ" PURGE="0" COMMENT="" />
    <EXPORT ORDINAL="1308" NAME="?CommandDown@CWinAppl@@UBEEXZ" PURGE="0" COMMENT="" />
    <EXPORT ORDINAL="1309" NAME="?CommandKey@CEditText@@QAEXC@Z" PURGE="4" COMMENT="" />
    <EXPORT ORDINAL="1310" NAME="?Compact@CTexture@@IAEXPAUSTexSave@1@AAPADK@Z" PURGE="12" COMMENT="" />
    <EXPORT ORDINAL="1311" NAME="?CompactNode@CTexture@@IAEXPAUSTexSave@1@AAPAD@Z" PURGE="8" COMMENT="" />
    <EXPORT ORDINAL="1312" NAME="?Compare@CMemBlock@@QBEJABV1@@Z" PURGE="4" COMMENT="" />
    <EXPORT ORDINAL="1313" NAME="?Compare@CMemPool@@QBEJQAD0K@Z" PURGE="12" COMMENT="" />
    <EXPORT ORDINAL="1314" NAME="?Compare@CSpoolMem@@UBEJABV1@@Z" PURGE="4" COMMENT="" />
    <EXPORT ORDINAL="1315" NAME="?CompareEntries@CCmFunction@@QBEJPBVCCFEntry@@0@Z" PURGE="8" COMMENT="" />
    <EXPORT ORDINAL="1316" NAME="?CompareEntries@CDynTable@@QBEJKK@Z" PURGE="8" COMMENT="" />
    <EXPORT ORDINAL="1317" NAME="?CompareEntries@CDynTable@@QBEJQAD0@Z" PURGE="8" COMMENT="" />
    <EXPORT ORDINAL="1318" NAME="?Complexity@CTexture@@QBEKXZ" PURGE="0" COMMENT="" />
    <EXPORT ORDINAL="1319" NAME="?Compose@CImVector@@QAEXPBV1@0@Z" PURGE="8" COMMENT="" />
    <EXPORT ORDINAL="1320" NAME="?ComposeIVs@CImage@@UAEEPAV1@0@Z" PURGE="8" COMMENT="" />
    <EXPORT ORDINAL="1321" NAME="?Compose_@CImVector@@IAEXPBV1@0@Z" PURGE="8" COMMENT="" />
    <EXPORT ORDINAL="1322" NAME="?Compress@CGradient@@QAEKPAE@Z" PURGE="4" COMMENT="" />
    <EXPORT ORDINAL="1323" NAME="?CompressGradient@CSimpleTexture@CTexture@@QBEKPAV2@PAE@Z" PURGE="8" COMMENT="" />
    <EXPORT ORDINAL="1324" NAME="?Compute@CTexture@@QAEXPAVC2Vector@@KKKPAVCImVector64@@K@Z" PURGE="24" COMMENT="" />
    <EXPORT ORDINAL="1325" NAME="?ComputeImage4x@CTexture@@QAEEKK@Z" PURGE="8" COMMENT="" />
    <EXPORT ORDINAL="1326" NAME="?ComputeImage4x@CTexture@@QAEEPAVCImage@@@Z" PURGE="4" COMMENT="" />
    <EXPORT ORDINAL="1327" NAME="?ComputeImage4x_@CTexture@@IAEEPAVC2Vector@@KKABV2@MM@Z" PURGE="24" COMMENT="" />
    <EXPORT ORDINAL="1328" NAME="?ComputeImage@CGradient@@QAEEPAVCImage@@@Z" PURGE="4" COMMENT="" />
    <EXPORT ORDINAL="1329" NAME="?ComputeImage@CTexture@@QAEEKKK@Z" PURGE="12" COMMENT="" />
    <EXPORT ORDINAL="1330" NAME="?ComputeImage@CTexture@@QAEEPAVCImage@@K@Z" PURGE="8" COMMENT="" />
    <EXPORT ORDINAL="1331" NAME="?ComputeImage_@CTexture@@IAEEPAVC2Vector@@KKABV2@MM@Z" PURGE="24" COMMENT="" />
    <EXPORT ORDINAL="1332" NAME="?ComputeRect4x@CTexture@@QAEEKKVCiRect@@@Z" PURGE="24" COMMENT="" />
    <EXPORT ORDINAL="1333" NAME="?ComputeRect@CTexture@@QAEEKKVCiRect@@@Z" PURGE="24" COMMENT="" />
    <EXPORT ORDINAL="1334" NAME="?ComputeScanline4x@CTexture@@QAEXKKK@Z" PURGE="12" COMMENT="" />
    <EXPORT ORDINAL="1335" NAME="?ComputeScanline@CTexture@@QAEXKKK@Z" PURGE="12" COMMENT="" />
    <EXPORT ORDINAL="1336" NAME="?Condition@CHolder@CSpoolMem@@QBEEXZ" PURGE="0" COMMENT="" />
    <EXPORT ORDINAL="1337" NAME="?ConstantIV@CFrImNavigator@CImage@@QBEABVCImVector@@XZ" PURGE="0" COMMENT="" />
    <EXPORT ORDINAL="1338" NAME="?ConstrainMatrix@CTexture@@KAXPAVC23Affine@@@Z" PURGE="0" COMMENT="" />
    <EXPORT ORDINAL="1339" NAME="?ConstructPoints4x@CTexture@@IAEXABVC2Vector@@MKPAV2@@Z" PURGE="16" COMMENT="" />
    <EXPORT ORDINAL="1340" NAME="?ConstructPoints@CTexture@@IAEXABVC2Vector@@MKPAV2@@Z" PURGE="16" COMMENT="" />
    <EXPORT ORDINAL="1341" NAME="?Construct_@CNavigator@CMemBlock@@IAEXPAV2@KKPBVCiRect@@K@Z" PURGE="20" COMMENT="" />
    <EXPORT ORDINAL="1342" NAME="?Construct_@CScanner@CMemBlock@@IAEXPAV2@KPBVCiRange@@@Z" PURGE="12" COMMENT="" />
    <EXPORT ORDINAL="1343" NAME="?Constructor_@CMemBlock@@IAEXKPAVCMemPool@@E@Z" PURGE="12" COMMENT="" />
    <EXPORT ORDINAL="1344" NAME="?Contains@CRange@@QBEEABV1@@Z" PURGE="4" COMMENT="" />
    <EXPORT ORDINAL="1345" NAME="?Contains@CRect@@QBEEABV1@@Z" PURGE="4" COMMENT="" />
    <EXPORT ORDINAL="1346" NAME="?Contains@CRect@@QBEEABVC2Vector@@@Z" PURGE="4" COMMENT="" />
    <EXPORT ORDINAL="1347" NAME="?Contains@CiRange@@QBEEABV1@@Z" PURGE="4" COMMENT="" />
    <EXPORT ORDINAL="1348" NAME="?Contains@CiRect@@QBEEABV1@@Z" PURGE="4" COMMENT="" />
    <EXPORT ORDINAL="1349" NAME="?Contains@CiRect@@QBEEABVC2iVector@@@Z" PURGE="4" COMMENT="" />
    <EXPORT ORDINAL="1350" NAME="?Contrast@CGradient@@QAEXMPBV1@K@Z" PURGE="12" COMMENT="" />
    <EXPORT ORDINAL="1351" NAME="?Contrast_@CGradient@@IAEXMK@Z" PURGE="8" COMMENT="" />
    <EXPORT ORDINAL="1352" NAME="?ControlDown@CPDUtils@@SAEXZ" PURGE="0" COMMENT="" />
    <EXPORT ORDINAL="1353" NAME="?ControlDown@CWinAppl@@UBEEXZ" PURGE="0" COMMENT="" />
    <EXPORT ORDINAL="1354" NAME="?Copy@CMemBlock@@QAEKABV1@@Z" PURGE="4" COMMENT="" />
    <EXPORT ORDINAL="1355" NAME="?Copy@CMemPool@@QAEXPADQADK@Z" PURGE="12" COMMENT="" />
    <EXPORT ORDINAL="1356" NAME="?Copy@CRegion@@QAEEPAV1@@Z" PURGE="4" COMMENT="" />
    <EXPORT ORDINAL="1357" NAME="?Copy@CSpoolMem@@UAEKABV1@@Z" PURGE="4" COMMENT="" />
    <EXPORT ORDINAL="1358" NAME="?CopyFrom@COffscreen@@QAEEAAVCImage@@@Z" PURGE="4" COMMENT="" />
    <EXPORT ORDINAL="1359" NAME="?CopyFrom@COffscreen@@QAEEPAXABVCiRect@@@Z" PURGE="8" COMMENT="" />
    <EXPORT ORDINAL="1360" NAME="?CopyFromCBitmap@COffscreen@@QAEEPAVCBitmap@@@Z" PURGE="4" COMMENT="" />
    <EXPORT ORDINAL="1361" NAME="?CopyFromCBitmap@COffscreen@@QAEEPAVCBitmap@@AAVC2iVector@@@Z" PURGE="8" COMMENT="" />
    <EXPORT ORDINAL="1362" NAME="?CopyIVs@CImage@@UAEEPAV1@@Z" PURGE="4" COMMENT="" />
    <EXPORT ORDINAL="1363" NAME="?CopyIVsA@CImage@@UAEEPAV1@@Z" PURGE="4" COMMENT="" />
    <EXPORT ORDINAL="1364" NAME="?CopyIVsRGB@CImage@@UAEEPAV1@@Z" PURGE="4" COMMENT="" />
    <EXPORT ORDINAL="1365" NAME="?CopyNavs@CNavProcess@@QAEXPAVCNavigator@CMemBlock@@0@Z" PURGE="8" COMMENT="" />
    <EXPORT ORDINAL="1366" NAME="?CopyPortion@CPreviewImage@@QAEEABVCiRect@@0@Z" PURGE="8" COMMENT="" />
    <EXPORT ORDINAL="1367" NAME="?CopyTo@COffscreen@@QAEEAAVCImage@@@Z" PURGE="4" COMMENT="" />
    <EXPORT ORDINAL="1368" NAME="?CopyTo@COffscreen@@QAEEPAXABVC2iVector@@@Z" PURGE="8" COMMENT="" />
    <EXPORT ORDINAL="1369" NAME="?CopyTo@COffscreen@@QAEEPAXABVCiRect@@W4ETransfer@1@@Z" PURGE="12" COMMENT="" />
    <EXPORT ORDINAL="1370" NAME="?CopyUserParams@CTextureProcess@@QAEXPAV1@@Z" PURGE="4" COMMENT="" />
    <EXPORT ORDINAL="1371" NAME="?Count@CResourceFile@@QAEKK@Z" PURGE="4" COMMENT="" />
    <EXPORT ORDINAL="1372" NAME="?Create@CCmFile@@QAEKKKQAD0@Z" PURGE="16" COMMENT="" />
    <EXPORT ORDINAL="1373" NAME="?Create@CFile@@QAEKQAD0@Z" PURGE="8" COMMENT="" />
    <EXPORT ORDINAL="1374" NAME="?Create@CPlatformResFile@@QAEEQAD0@Z" PURGE="8" COMMENT="" />
    <EXPORT ORDINAL="1375" NAME="?Create@CResourceFile@@QAEKQAD0@Z" PURGE="8" COMMENT="" />
    <EXPORT ORDINAL="1376" NAME="?CreateFromPicture@CImage@@SAPAV1@ABVCShadowData@1@PAVCSpoolEnv@@JEJPAVCiRect@@@Z" PURGE="0" COMMENT="" />
    <EXPORT ORDINAL="1377" NAME="?CreateFromPicture@CImage@@SAPAV1@ABVCShadowData@1@PAVCSpoolEnv@@PAXEJPAVCiRect@@@Z" PURGE="0" COMMENT="" />
    <EXPORT ORDINAL="1378" NAME="?CreateFromPicture@CImage@@SAPAV1@PAVCSpoolEnv@@JEJ@Z" PURGE="0" COMMENT="" />
    <EXPORT ORDINAL="1379" NAME="?CreateFromPicture@CImage@@SAPAV1@PAVCSpoolEnv@@PAXEJ@Z" PURGE="0" COMMENT="" />
    <EXPORT ORDINAL="1380" NAME="?CreateTextureRect@CTextureProcess@@QAEXPAVCTexture@@PAVCNavigator@CMemBlock@@KK@Z" PURGE="16" COMMENT="" />
    <EXPORT ORDINAL="1381" NAME="?CreateTextureScanLine@CTextureProcess@@QAEXPAVCTexture@@PAVCNavigator@CMemBlock@@KK@Z" PURGE="16" COMMENT="" />
    <EXPORT ORDINAL="1382" NAME="?Cross@C3Vector@@SA?AV1@ABV1@0@Z" PURGE="0" COMMENT="" />
    <EXPORT ORDINAL="1383" NAME="?Cross@C3iVector@@SA?AV1@ABV1@0@Z" PURGE="0" COMMENT="" />
    <EXPORT ORDINAL="1384" NAME="?CurrStartCol@CSubSampleParams@CConversionNavigator@@QAEJXZ" PURGE="0" COMMENT="" />
    <EXPORT ORDINAL="1385" NAME="?CurrStartRow@CSubSampleParams@CConversionNavigator@@QAEJXZ" PURGE="0" COMMENT="" />
    <EXPORT ORDINAL="1386" NAME="?Current@CCFQueue@CPluginAppl@@QAEPAUSSubscribeParam@12@AAVCIterator@CDynTable@@@Z" PURGE="4" COMMENT="" />
    <EXPORT ORDINAL="1387" NAME="?Current@CCmFunction@@QAEPAVCCFEntry@@AAVCIterator@CDynTable@@@Z" PURGE="4" COMMENT="" />
    <EXPORT ORDINAL="1388" NAME="?Current@CDialogItemList@@QAEPAVCDialogItem@@AAVCIterator@CDynArray@@@Z" PURGE="4" COMMENT="" />
    <EXPORT ORDINAL="1389" NAME="?Current@CDialogLayer@@QAEPAVCDialog@@AAVCIterator@CDynArray@@@Z" PURGE="4" COMMENT="" />
    <EXPORT ORDINAL="1390" NAME="?Current@CDynArray@@QAEAAJAAVCIterator@1@@Z" PURGE="4" COMMENT="" />
    <EXPORT ORDINAL="1391" NAME="?Current@CDynTable@@QAEPADAAVCIterator@1@@Z" PURGE="4" COMMENT="" />
    <EXPORT ORDINAL="1392" NAME="?Current@CMenuItemTable@CMenu@@QAEPAUSMenuItem@2@AAVCIterator@CDynTable@@@Z" PURGE="4" COMMENT="" />
    <EXPORT ORDINAL="1393" NAME="?Current@CPluginRegistry@CPluginAppl@@QAEPAUSPluginRegItem@2@AAVCIterator@CDynArray@@@Z" PURGE="4" COMMENT="" />
    <EXPORT ORDINAL="1394" NAME="?Current@CResItemTable@CResourceFile@@QAEPAUSResTableItem@12@AAVCIterator@CDynTable@@@Z" PURGE="4" COMMENT="" />
    <EXPORT ORDINAL="1395" NAME="?Current@CResTypeTable@CResourceFile@@QAEPAUSTypeTableItem@12@AAVCIterator@CDynTable@@@Z" PURGE="4" COMMENT="" />
    <EXPORT ORDINAL="1396" NAME="?Current@CStatusTextTable@CDialogItem@@QAEPAUSStatusTextItem@2@AAVCIterator@CDynTable@@@Z" PURGE="4" COMMENT="" />
    <EXPORT ORDINAL="1397" NAME="?CurrentIndex@CDynArray@@QAEKAAVCIterator@1@@Z" PURGE="4" COMMENT="" />
    <EXPORT ORDINAL="1398" NAME="?CurrentIndex@CDynTable@@QAEKAAVCIterator@1@@Z" PURGE="4" COMMENT="" />
    <EXPORT ORDINAL="1399" NAME="?CvtIVsToCMYK@CConversionNavigator@@SAXPAVCImVector@@PAEK@Z" PURGE="0" COMMENT="" />
    <EXPORT ORDINAL="1400" NAME="?CvtIVsToGray@CConversionNavigator@@SAXPAVCImVector@@PAEK@Z" PURGE="0" COMMENT="" />
    <EXPORT ORDINAL="1401" NAME="?CvtIVsToMultichannel@CConversionNavigator@@SAXPAVCImVector@@PAEKK@Z" PURGE="0" COMMENT="" />
    <EXPORT ORDINAL="1402" NAME="?CvtIVsToRGB@CConversionNavigator@@SAXPAVCImVector@@PAEK@Z" PURGE="0" COMMENT="" />
    <EXPORT ORDINAL="1403" NAME="?CvtTo256x32@CGradient@@QAEXPAVCImVector@@@Z" PURGE="4" COMMENT="" />
    <EXPORT ORDINAL="1404" NAME="?CvtTo4096x32@CGradient@@QAEXPAVCImVector@@@Z" PURGE="4" COMMENT="" />
    <EXPORT ORDINAL="1405" NAME="?CvtTo65536x32@CGradient@@QAEXPAVCImVector@@@Z" PURGE="4" COMMENT="" />
    <EXPORT ORDINAL="1406" NAME="?CvtToCMYK@CGradient@@QAEXXZ" PURGE="0" COMMENT="" />
    <EXPORT ORDINAL="1407" NAME="?CvtToCMYK@CImVector64@@QAEXXZ" PURGE="0" COMMENT="" />
    <EXPORT ORDINAL="1408" NAME="?DBRestoreOffset@CPreviewImage@@QAEEPAXABVC2iVector@@1@Z" PURGE="12" COMMENT="" />
    <EXPORT ORDINAL="1409" NAME="?DBSaveAndOffset@CPreviewImage@@QAEEPAXABVC2iVector@@1AAV1@@Z" PURGE="16" COMMENT="" />
    <EXPORT ORDINAL="1410" NAME="?Darken@CImVector64@@SAXPAV1@00@Z" PURGE="0" COMMENT="" />
    <EXPORT ORDINAL="1411" NAME="?Darken@CImVector64@@SAXPAV1@00K@Z" PURGE="0" COMMENT="" />
    <EXPORT ORDINAL="1412" NAME="?Data@CMemPool@@SAPAV1@XZ" PURGE="0" COMMENT="" />
    <EXPORT ORDINAL="1413" NAME="?DefaultMRCF@CSpoolEnv@@UBEP6AJJPBVCCFEntryParms@@PAVCCFEntryData@@@ZXZ" PURGE="0" COMMENT="" />
    <EXPORT ORDINAL="1414" NAME="?DefaultSortP@CDynArray@@KAJPBJ0@Z" PURGE="0" COMMENT="" />
    <EXPORT ORDINAL="1415" NAME="?DefaultSortP@CDynTable@@KAJQAD0@Z" PURGE="0" COMMENT="" />
    <EXPORT ORDINAL="1416" NAME="?DelayMicroSeconds@CTimer@@QAEXK@Z" PURGE="4" COMMENT="" />
    <EXPORT ORDINAL="1417" NAME="?DelayMilliSeconds@CTimer@@QAEXK@Z" PURGE="4" COMMENT="" />
    <EXPORT ORDINAL="1418" NAME="?DelaySeconds@CTimer@@QAEXK@Z" PURGE="4" COMMENT="" />
    <EXPORT ORDINAL="1419" NAME="?DelayTicks@CTimer@@QAEXK@Z" PURGE="4" COMMENT="" />
    <EXPORT ORDINAL="1420" NAME="?Delete@CFile@@QAEKXZ" PURGE="0" COMMENT="" />
    <EXPORT ORDINAL="1421" NAME="?DeltaMicroSeconds@CTimer@@QBEKXZ" PURGE="0" COMMENT="" />
    <EXPORT ORDINAL="1422" NAME="?DeltaMilliSeconds@CTimer@@QBEKXZ" PURGE="0" COMMENT="" />
    <EXPORT ORDINAL="1423" NAME="?DeltaSeconds@CTimer@@QBEKXZ" PURGE="0" COMMENT="" />
    <EXPORT ORDINAL="1424" NAME="?DeltaTicks@CTimer@@QBEKXZ" PURGE="0" COMMENT="" />
    <EXPORT ORDINAL="1425" NAME="?DenyMenuMouseDowns@CPluginAppl@@QAEXE@Z" PURGE="4" COMMENT="" />
    <EXPORT ORDINAL="1426" NAME="?Desaturate@CImVector@@QAEXXZ" PURGE="0" COMMENT="" />
    <EXPORT ORDINAL="1427" NAME="?Deselect@CMemPool@@QBEXPAD@Z" PURGE="4" COMMENT="" />
    <EXPORT ORDINAL="1428" NAME="?DestWindow@CCanvas@@UBEQAXXZ" PURGE="0" COMMENT="" />
    <EXPORT ORDINAL="1429" NAME="?Destination@CCanvas@@UBEABVCiRect@@XZ" PURGE="0" COMMENT="" />
    <EXPORT ORDINAL="1430" NAME="?Destination@CUniMotion@@QBEMXZ" PURGE="0" COMMENT="" />
    <EXPORT ORDINAL="1431" NAME="?Det@C23Affine@@KANNNNN@Z" PURGE="0" COMMENT="" />
    <EXPORT ORDINAL="1432" NAME="?Det@C33Matrix@@KAMMMMM@Z" PURGE="0" COMMENT="" />
    <EXPORT ORDINAL="1433" NAME="?Det@C33iMatrix@@KAJJJJJ@Z" PURGE="0" COMMENT="" />
    <EXPORT ORDINAL="1434" NAME="?Det@C44Matrix@@KAMMMMMMMMMM@Z" PURGE="0" COMMENT="" />
    <EXPORT ORDINAL="1435" NAME="?Det@C44iMatrix@@KAJJJJJJJJJJ@Z" PURGE="0" COMMENT="" />
    <EXPORT ORDINAL="1436" NAME="?Detach@CMemBlock@@QAEXAAPADAAKAAPAVCMemPool@@@Z" PURGE="12" COMMENT="" />
    <EXPORT ORDINAL="1437" NAME="?Detach@CSpoolMem@@UAEXAAPADAAKAAPAVCMemPool@@@Z" PURGE="12" COMMENT="" />
    <EXPORT ORDINAL="1438" NAME="?Determinant@C22Matrix@@QBEMXZ" PURGE="0" COMMENT="" />
    <EXPORT ORDINAL="1439" NAME="?Determinant@C23Affine@@QBENXZ" PURGE="0" COMMENT="" />
    <EXPORT ORDINAL="1440" NAME="?Determinant@C33Matrix@@QBEMXZ" PURGE="0" COMMENT="" />
    <EXPORT ORDINAL="1441" NAME="?Determinant@C33iMatrix@@QBEJXZ" PURGE="0" COMMENT="" />
    <EXPORT ORDINAL="1442" NAME="?Determinant@C44Matrix@@QBEMXZ" PURGE="0" COMMENT="" />
    <EXPORT ORDINAL="1443" NAME="?Determinant@C44iMatrix@@QBEJXZ" PURGE="0" COMMENT="" />
    <EXPORT ORDINAL="1444" NAME="?Dialog@CDialogItem@@QBEPAVCDialog@@XZ" PURGE="0" COMMENT="" />
    <EXPORT ORDINAL="1445" NAME="?Difference2@CImVector64@@SAXPAV1@00@Z" PURGE="0" COMMENT="" />
    <EXPORT ORDINAL="1446" NAME="?Difference2@CImVector64@@SAXPAV1@00K@Z" PURGE="0" COMMENT="" />
    <EXPORT ORDINAL="1447" NAME="?Difference@CImVector64@@SAXPAV1@00@Z" PURGE="0" COMMENT="" />
    <EXPORT ORDINAL="1448" NAME="?Difference@CImVector64@@SAXPAV1@00K@Z" PURGE="0" COMMENT="" />
    <EXPORT ORDINAL="1449" NAME="?Difference@CRegion@@QAEEPAV1@0@Z" PURGE="8" COMMENT="" />
    <EXPORT ORDINAL="1450" NAME="?DirData@CCmFile@@QBEABUSDirectory@1@XZ" PURGE="0" COMMENT="" />
    <EXPORT ORDINAL="1451" NAME="?DirTable@CCmFile@@QBEPBVCDynTable@@XZ" PURGE="0" COMMENT="" />
    <EXPORT ORDINAL="1452" NAME="?DisableHostWindow@CPlugin@@QAEXXZ" PURGE="0" COMMENT="" />
    <EXPORT ORDINAL="1453" NAME="?DisableRenderPeriod@CTextureProcess@@QAEXXZ" PURGE="0" COMMENT="" />
    <EXPORT ORDINAL="1454" NAME="?Dispatch@CPluginAppl@@MAEJXZ" PURGE="0" COMMENT="" />
    <EXPORT ORDINAL="1455" NAME="?Dispatch@CWinAppl@@MAEJXZ" PURGE="0" COMMENT="" />
    <EXPORT ORDINAL="1456" NAME="?DispatchHostEvent@CPluginAppl@@MAEJXZ" PURGE="0" COMMENT="" />
    <EXPORT ORDINAL="1457" NAME="?DispatchKeyDown@CWinAppl@@MAEJAAVCReceiverData@CAppl@@@Z" PURGE="4" COMMENT="" />
    <EXPORT ORDINAL="1458" NAME="?DispatchMouseDown@CPluginAppl@@MAEJAAVCReceiverData@CAppl@@@Z" PURGE="4" COMMENT="" />
    <EXPORT ORDINAL="1459" NAME="?DispatchMouseDown@CWinAppl@@MAEJAAVCReceiverData@CAppl@@@Z" PURGE="4" COMMENT="" />
    <EXPORT ORDINAL="1460" NAME="?DispatchSuspendResume@CWinAppl@@MAEJAAVCReceiverData@CAppl@@@Z" PURGE="4" COMMENT="" />
    <EXPORT ORDINAL="1461" NAME="?DispatchUpdate@CWinAppl@@MAEJAAVCReceiverData@CAppl@@@Z" PURGE="4" COMMENT="" />
    <EXPORT ORDINAL="1462" NAME="?DispatchWindowsMessage@CWinAppl@@MAEJAAVCReceiverData@CAppl@@@Z" PURGE="4" COMMENT="" />
    <EXPORT ORDINAL="1463" NAME="?Dispose@CBitmap@@UAEXXZ" PURGE="0" COMMENT="" />
    <EXPORT ORDINAL="1464" NAME="?Dispose@CMemPool@@QAEXPAD@Z" PURGE="4" COMMENT="" />
    <EXPORT ORDINAL="1465" NAME="?DisposeHostNavigators@CPluginAppl@@IAEXXZ" PURGE="0" COMMENT="" />
    <EXPORT ORDINAL="1466" NAME="?DisposeSys@CMemPool@@SAXPAD@Z" PURGE="0" COMMENT="" />
    <EXPORT ORDINAL="1467" NAME="?DisposeTables@CTexture@@SAXXZ" PURGE="0" COMMENT="" />
    <EXPORT ORDINAL="1468" NAME="?DistAbsTrans@CTexture@@QAEPAVC23Affine@@XZ" PURGE="0" COMMENT="" />
    <EXPORT ORDINAL="1469" NAME="?DistInvTrans@CTexture@@QAEPAVC22Matrix@@XZ" PURGE="0" COMMENT="" />
    <EXPORT ORDINAL="1470" NAME="?DistRelTrans@CTexture@@QAEPAVC23Affine@@XZ" PURGE="0" COMMENT="" />
    <EXPORT ORDINAL="1471" NAME="?DistortAmt@CTexture@@QBEMXZ" PURGE="0" COMMENT="" />
    <EXPORT ORDINAL="1472" NAME="?DoAboutBogDialog@CPluginAppl@@UAEEJ@Z" PURGE="4" COMMENT="" />
    <EXPORT ORDINAL="1473" NAME="?DoAboutBox@CPluginManager@@SAXXZ" PURGE="0" COMMENT="" />
    <EXPORT ORDINAL="1474" NAME="?DoAlpha@CGradient@@IAEXPAVCImVector64@@KKKE@Z" PURGE="20" COMMENT="" />
    <EXPORT ORDINAL="1475" NAME="?DoApplyMode@CNavProcess@@QAEXPBVCNavigator@CMemBlock@@0@Z" PURGE="8" COMMENT="" />
    <EXPORT ORDINAL="1476" NAME="?DoBlend@CGradient@@IAEXPAVCImVector64@@KKKEE@Z" PURGE="24" COMMENT="" />
    <EXPORT ORDINAL="1477" NAME="?DoGeneralF@CFadeAnimation@CImage@@QAEXK@Z" PURGE="4" COMMENT="" />
    <EXPORT ORDINAL="1478" NAME="?DoHelpDialog@CPluginAppl@@UAEEJ@Z" PURGE="4" COMMENT="" />
    <EXPORT ORDINAL="1479" NAME="?DoInterrupt@CTexture@@SAEXZ" PURGE="0" COMMENT="" />
    <EXPORT ORDINAL="1480" NAME="?DoPrefsDialog@CPluginAppl@@UAEEXZ" PURGE="0" COMMENT="" />
    <EXPORT ORDINAL="1481" NAME="?DoProgressiveF@CFadeAnimation@CImage@@QAEEXZ" PURGE="0" COMMENT="" />
    <EXPORT ORDINAL="1482" NAME="?DoRegressiveF@CFadeAnimation@CImage@@QAEEXZ" PURGE="0" COMMENT="" />
    <EXPORT ORDINAL="1483" NAME="?DoTint@CGradient@@IAEXPAVCImVector64@@0KKKW4EGlueType@2@E@Z" PURGE="28" COMMENT="" />
    <EXPORT ORDINAL="1484" NAME="?DoUndoRedo@CTextureProcess@@QAEXJ@Z" PURGE="4" COMMENT="" />
    <EXPORT ORDINAL="1485" NAME="?Dot@C2Vector@@SAMABV1@0@Z" PURGE="0" COMMENT="" />
    <EXPORT ORDINAL="1486" NAME="?Dot@C2iVector@@SAJABV1@0@Z" PURGE="0" COMMENT="" />
    <EXPORT ORDINAL="1487" NAME="?Dot@C3Vector@@SAMABV1@0@Z" PURGE="0" COMMENT="" />
    <EXPORT ORDINAL="1488" NAME="?Dot@C3iVector@@SAJABV1@0@Z" PURGE="0" COMMENT="" />
    <EXPORT ORDINAL="1489" NAME="?Dot@C4Vector@@SAMABV1@0@Z" PURGE="0" COMMENT="" />
    <EXPORT ORDINAL="1490" NAME="?Dot@C4iVector@@SAJABV1@0@Z" PURGE="0" COMMENT="" />
    <EXPORT ORDINAL="1491" NAME="?DoubleClick@CDialogItem@@UAEJXZ" PURGE="0" COMMENT="" />
    <EXPORT ORDINAL="1492" NAME="?DoubleClick@CSliderWidgetItem@@UAEJXZ" PURGE="0" COMMENT="" />
    <EXPORT ORDINAL="1493" NAME="?Down@CMirrorNav@@QAEEXZ" PURGE="0" COMMENT="" />
    <EXPORT ORDINAL="1494" NAME="?Down@CNavigator@CMemBlock@@QAEEXZ" PURGE="0" COMMENT="" />
    <EXPORT ORDINAL="1495" NAME="?Down_@CNavigator@CMemBlock@@QAEEXZ" PURGE="0" COMMENT="" />
    <EXPORT ORDINAL="1496" NAME="?Drag@CDialog@@UAEXPBVCReceiverData@CAppl@@@Z" PURGE="4" COMMENT="" />
    <EXPORT ORDINAL="1497" NAME="?Draw@CBitmap@@QAEEPAXABVC2iVector@@E@Z" PURGE="12" COMMENT="" />
    <EXPORT ORDINAL="1498" NAME="?Draw@CBitmap@@QAEEPAXABVCiRect@@E@Z" PURGE="12" COMMENT="" />
    <EXPORT ORDINAL="1499" NAME="?DrawArrow@CRotationItem@@QAEEPAVCImage@@ABVC2iVector@@AAME@Z" PURGE="16" COMMENT="" />
    <EXPORT ORDINAL="1500" NAME="?DrawArrowAtAngle@CRotationItem@@QAEEPAVCImage@@M@Z" PURGE="8" COMMENT="" />
    <EXPORT ORDINAL="1501" NAME="?DrawDownScrollArrow@CMenu@@QAEXXZ" PURGE="0" COMMENT="" />
    <EXPORT ORDINAL="1502" NAME="?DrawItem@CMenu@@QAEXK@Z" PURGE="4" COMMENT="" />
    <EXPORT ORDINAL="1503" NAME="?DrawMenu@CMenu@@QAEXXZ" PURGE="0" COMMENT="" />
    <EXPORT ORDINAL="1504" NAME="?DrawTextInRect@CPDPort@@QAEXPAEJABVCiRect@@J@Z" PURGE="16" COMMENT="" />
    <EXPORT ORDINAL="1505" NAME="?DrawTextLineInRect@CPDPort@@QAEXPAEJABVCiRect@@J@Z" PURGE="16" COMMENT="" />
    <EXPORT ORDINAL="1506" NAME="?DrawUpScrollArrow@CMenu@@QAEXXZ" PURGE="0" COMMENT="" />
    <EXPORT ORDINAL="1507" NAME="?DrawingDest@CCanvas@@UBEQAXXZ" PURGE="0" COMMENT="" />
    <EXPORT ORDINAL="1508" NAME="?EV_Accelerate@CUniMotion@@AAEXXZ" PURGE="0" COMMENT="" />
    <EXPORT ORDINAL="1509" NAME="?EV_Decelerate@CUniMotion@@AAEXXZ" PURGE="0" COMMENT="" />
    <EXPORT ORDINAL="1510" NAME="?EV_Dual@CUniMotion@@AAEXXZ" PURGE="0" COMMENT="" />
    <EXPORT ORDINAL="1511" NAME="?EV_Negative@CUniMotion@@AAEXXZ" PURGE="0" COMMENT="" />
    <EXPORT ORDINAL="1512" NAME="?EV_None@CUniMotion@@AAEXXZ" PURGE="0" COMMENT="" />
    <EXPORT ORDINAL="1513" NAME="?EV_Positive@CUniMotion@@AAEXXZ" PURGE="0" COMMENT="" />
    <EXPORT ORDINAL="1514" NAME="?Empty@CRange@@QBEEXZ" PURGE="0" COMMENT="" />
    <EXPORT ORDINAL="1515" NAME="?Empty@CRect@@QBEEXZ" PURGE="0" COMMENT="" />
    <EXPORT ORDINAL="1516" NAME="?Empty@CiRange@@QBEEXZ" PURGE="0" COMMENT="" />
    <EXPORT ORDINAL="1517" NAME="?Empty@CiRect@@QBEEXZ" PURGE="0" COMMENT="" />
    <EXPORT ORDINAL="1518" NAME="?EnableHost@CPluginAppl@@QAEXE@Z" PURGE="4" COMMENT="" />
    <EXPORT ORDINAL="1519" NAME="?EnableHostWindow@CPlugin@@QAEXXZ" PURGE="0" COMMENT="" />
    <EXPORT ORDINAL="1520" NAME="?EnableItem@CDialogItem@@QAEXE@Z" PURGE="4" COMMENT="" />
    <EXPORT ORDINAL="1521" NAME="?EnableItem@CMenu@@QAEEKE@Z" PURGE="8" COMMENT="" />
    <EXPORT ORDINAL="1522" NAME="?EnableItem@CRotationItem@@QAEXE@Z" PURGE="4" COMMENT="" />
    <EXPORT ORDINAL="1523" NAME="?EnableOSProcessing@CPluginAppl@@QAEXE@Z" PURGE="4" COMMENT="" />
    <EXPORT ORDINAL="1524" NAME="?Encloses@CRange@@QBEEABV1@@Z" PURGE="4" COMMENT="" />
    <EXPORT ORDINAL="1525" NAME="?Encloses@CRect@@QBEEABV1@@Z" PURGE="4" COMMENT="" />
    <EXPORT ORDINAL="1526" NAME="?Encloses@CRect@@QBEEABVC2Vector@@@Z" PURGE="4" COMMENT="" />
    <EXPORT ORDINAL="1527" NAME="?Encloses@CRegion@@QAEEAAVC2iVector@@@Z" PURGE="4" COMMENT="" />
    <EXPORT ORDINAL="1528" NAME="?Encloses@CiRange@@QBEEABV1@@Z" PURGE="4" COMMENT="" />
    <EXPORT ORDINAL="1529" NAME="?Encloses@CiRect@@QBEEABV1@@Z" PURGE="4" COMMENT="" />
    <EXPORT ORDINAL="1530" NAME="?Encloses@CiRect@@QBEEABVC2iVector@@@Z" PURGE="4" COMMENT="" />
    <EXPORT ORDINAL="1531" NAME="?End@CNavigator@CMemBlock@@QAEXXZ" PURGE="0" COMMENT="" />
    <EXPORT ORDINAL="1532" NAME="?End@CScanner@CMemBlock@@QAEXXZ" PURGE="0" COMMENT="" />
    <EXPORT ORDINAL="1533" NAME="?EndMouseVirtualTrack@CDialogItem@@QAEXABVC2iVector@@@Z" PURGE="4" COMMENT="" />
    <EXPORT ORDINAL="1534" NAME="?EndScan@CDynArray@@QAEXAAVCIterator@1@@Z" PURGE="4" COMMENT="" />
    <EXPORT ORDINAL="1535" NAME="?EndScan@CDynTable@@QAEXAAVCIterator@1@@Z" PURGE="4" COMMENT="" />
    <EXPORT ORDINAL="1536" NAME="?EndScan@CResourceFile@@QAEXXZ" PURGE="0" COMMENT="" />
    <EXPORT ORDINAL="1537" NAME="?EndTrack@CDialogItem@@UAEJXZ" PURGE="0" COMMENT="" />
    <EXPORT ORDINAL="1538" NAME="?EnoughSpaceOnDisk@CCmFile@@IAEKK@Z" PURGE="4" COMMENT="" />
    <EXPORT ORDINAL="1539" NAME="?EntryIsUsed@CCmFile@@QAEEK@Z" PURGE="4" COMMENT="" />
    <EXPORT ORDINAL="1540" NAME="?EntrySize@CCmFile@@QAEKK@Z" PURGE="4" COMMENT="" />
    <EXPORT ORDINAL="1541" NAME="?EntrySize@CDynArray@@QBEKXZ" PURGE="0" COMMENT="" />
    <EXPORT ORDINAL="1542" NAME="?EntrySize@CDynTable@@QBEKXZ" PURGE="0" COMMENT="" />
    <EXPORT ORDINAL="1543" NAME="?Equal@CRegion@@QAEEPAV1@@Z" PURGE="4" COMMENT="" />
    <EXPORT ORDINAL="1544" NAME="?Erase@CCanvas@@UAEEPBVCiRect@@@Z" PURGE="4" COMMENT="" />
    <EXPORT ORDINAL="1545" NAME="?Erase@COffscreen@@QAEXPAVCiRect@@@Z" PURGE="4" COMMENT="" />
    <EXPORT ORDINAL="1546" NAME="?EraseRectToColor@CPDPort@@QAEXABVCiRect@@PAURGBColor@@@Z" PURGE="8" COMMENT="" />
    <EXPORT ORDINAL="1547" NAME="?Event@CUniMotion@@AAEXXZ" PURGE="0" COMMENT="" />
    <EXPORT ORDINAL="1548" NAME="?EventPulse@CUniMotion@@QBEMXZ" PURGE="0" COMMENT="" />
    <EXPORT ORDINAL="1549" NAME="?Exchange@CFile@@SAKAAUFSSpec@@0@Z" PURGE="0" COMMENT="" />
    <EXPORT ORDINAL="1550" NAME="?Exchange@CFile@@SAKAAV1@0@Z" PURGE="0" COMMENT="" />
    <EXPORT ORDINAL="1551" NAME="?ExchangeDiskParams@CTextureProcess@@QAEEAAVCMemBlock@@E@Z" PURGE="8" COMMENT="" />
    <EXPORT ORDINAL="1552" NAME="?Execute@CCmFunction@@QAEJPBVCCFEntryParms@@@Z" PURGE="4" COMMENT="" />
    <EXPORT ORDINAL="1553" NAME="?Execute@CCmFunction@@SAJPAVCCFEntry@@PBVCCFEntryParms@@@Z" PURGE="0" COMMENT="" />
    <EXPORT ORDINAL="1554" NAME="?ExecuteBackwards@CCmFunction@@QAEJPBVCCFEntryParms@@@Z" PURGE="4" COMMENT="" />
    <EXPORT ORDINAL="1555" NAME="?Expand@CGradient@@QAEEPAE@Z" PURGE="4" COMMENT="" />
    <EXPORT ORDINAL="1556" NAME="?Expand@CTexture@@IAEEPAUSTexSave@1@AAPADK@Z" PURGE="12" COMMENT="" />
    <EXPORT ORDINAL="1557" NAME="?ExpandDirectory@CCmFile@@IAEKK@Z" PURGE="4" COMMENT="" />
    <EXPORT ORDINAL="1558" NAME="?ExpandGradient@CSimpleTexture@CTexture@@QBEEPAV2@PAE@Z" PURGE="8" COMMENT="" />
    <EXPORT ORDINAL="1559" NAME="?ExpandNode@CTexture@@IAEXPAUSTexSave@1@AAPAD@Z" PURGE="8" COMMENT="" />
    <EXPORT ORDINAL="1560" NAME="?Expansion@CDynArray@@QBEKXZ" PURGE="0" COMMENT="" />
    <EXPORT ORDINAL="1561" NAME="?Expansion@CDynTable@@QBEKXZ" PURGE="0" COMMENT="" />
    <EXPORT ORDINAL="1562" NAME="?ExpectedCopyright@CCmFile@@SAQADXZ" PURGE="0" COMMENT="" />
    <EXPORT ORDINAL="1563" NAME="?ExpectedFormatId@CCmFile@@SAKXZ" PURGE="0" COMMENT="" />
    <EXPORT ORDINAL="1564" NAME="?ExpectedKeycode@CCmFile@@SAJXZ" PURGE="0" COMMENT="" />
    <EXPORT ORDINAL="1565" NAME="?ExpectedTagcode@CCmFile@@SAJXZ" PURGE="0" COMMENT="" />
    <EXPORT ORDINAL="1566" NAME="?ExportToCImage@CConversionNavigator@@UAEEPAVCImage@@@Z" PURGE="4" COMMENT="" />
    <EXPORT ORDINAL="1567" NAME="?FSGNoise@CTexture@@SAPAMXZ" PURGE="0" COMMENT="" />
    <EXPORT ORDINAL="1568" NAME="?FadeIVs@CImage@@UAEEKPAV1@0@Z" PURGE="12" COMMENT="" />
    <EXPORT ORDINAL="1569" NAME="?Fatality_@@YAXPAD@Z" PURGE="0" COMMENT="" />
    <EXPORT ORDINAL="1570" NAME="?FileExists@CPlatformResFile@@QAEEXZ" PURGE="0" COMMENT="" />
    <EXPORT ORDINAL="1571" NAME="?FileExists@CResourceFile@@QAEEXZ" PURGE="0" COMMENT="" />
    <EXPORT ORDINAL="1572" NAME="?FileRef@CFile@@QBEPAXXZ" PURGE="0" COMMENT="" />
    <EXPORT ORDINAL="1573" NAME="?FileSpec@CFile@@QBEABUFSSpec@@XZ" PURGE="0" COMMENT="" />
    <EXPORT ORDINAL="1574" NAME="?FileSpec@CPlatformResFile@@QAEABUFSSpec@@XZ" PURGE="0" COMMENT="" />
    <EXPORT ORDINAL="1575" NAME="?Find@CResourceFile@@QAEKKJAAK@Z" PURGE="12" COMMENT="" />
    <EXPORT ORDINAL="1576" NAME="?Find@CResourceFile@@QAEKKJQAE@Z" PURGE="12" COMMENT="" />
    <EXPORT ORDINAL="1577" NAME="?FindByName@CResourceFile@@QAEKKQAEAAK@Z" PURGE="12" COMMENT="" />
    <EXPORT ORDINAL="1578" NAME="?Flush@CCmFile@@QAEKXZ" PURGE="0" COMMENT="" />
    <EXPORT ORDINAL="1579" NAME="?Flush@CFile@@QBEKXZ" PURGE="0" COMMENT="" />
    <EXPORT ORDINAL="1580" NAME="?FlushHostEvents@CPluginAppl@@UAEXK@Z" PURGE="4" COMMENT="" />
    <EXPORT ORDINAL="1581" NAME="?FlushQueue@CWinAppl@@UAEXXZ" PURGE="0" COMMENT="" />
    <EXPORT ORDINAL="1582" NAME="?FlushStructures@CCmFile@@IAEKXZ" PURGE="0" COMMENT="" />
    <EXPORT ORDINAL="1583" NAME="?FlushUserEvents@CPDUtils@@SAXXZ" PURGE="0" COMMENT="" />
    <EXPORT ORDINAL="1584" NAME="?FocusItem@CDialog@@UBEPAVCDialogItem@@XZ" PURGE="0" COMMENT="" />
    <EXPORT ORDINAL="1585" NAME="?ForceUpdate@CDialog@@UAEXXZ" PURGE="0" COMMENT="" />
    <EXPORT ORDINAL="1586" NAME="?ForeColor@CPlugin@@IAEAAURGBColor@@XZ" PURGE="0" COMMENT="" />
    <EXPORT ORDINAL="1587" NAME="?ForeColor@CPluginAppl@@QAEAAURGBColor@@XZ" PURGE="0" COMMENT="" />
    <EXPORT ORDINAL="1588" NAME="?FrameRect@CPDPort@@QAEXABVCiRect@@PAURGBColor@@@Z" PURGE="8" COMMENT="" />
    <EXPORT ORDINAL="1589" NAME="?FreeContiguous@CMemPool@@QBEKXZ" PURGE="0" COMMENT="" />
    <EXPORT ORDINAL="1590" NAME="?FreeContiguousSys@CMemPool@@SAKXZ" PURGE="0" COMMENT="" />
    <EXPORT ORDINAL="1591" NAME="?FreeE@CCmFile@@IAEKAAUSEntry@1@@Z" PURGE="4" COMMENT="" />
    <EXPORT ORDINAL="1592" NAME="?FreeEntry@CCmFile@@QAEKK@Z" PURGE="4" COMMENT="" />
    <EXPORT ORDINAL="1593" NAME="?FreeSpaceOnVolume@CFile@@QBEKAAK@Z" PURGE="4" COMMENT="" />
    <EXPORT ORDINAL="1594" NAME="?FreeTotal@CMemPool@@QBEKXZ" PURGE="0" COMMENT="" />
    <EXPORT ORDINAL="1595" NAME="?FreeTotalSys@CMemPool@@SAKXZ" PURGE="0" COMMENT="" />
    <EXPORT ORDINAL="1596" NAME="?Free_@CMemPool@@IAEXPAD@Z" PURGE="4" COMMENT="" />
    <EXPORT ORDINAL="1597" NAME="?FromPicture@CImage@@UAEEJE@Z" PURGE="8" COMMENT="" />
    <EXPORT ORDINAL="1598" NAME="?FromPicture@CImage@@UAEEPAXE@Z" PURGE="8" COMMENT="" />
    <EXPORT ORDINAL="1599" NAME="?FromPicture@CPreviewImage@@UAEEJE@Z" PURGE="8" COMMENT="" />
    <EXPORT ORDINAL="1600" NAME="?FromPicture@CPreviewImage@@UAEEPAXE@Z" PURGE="8" COMMENT="" />
    <EXPORT ORDINAL="1601" NAME="?FromPixels@CImage@@UAEEPAUtagBITMAPINFO@@ABVCiRect@@E@Z" PURGE="12" COMMENT="" />
    <EXPORT ORDINAL="1602" NAME="?GB_@CImVector64@@QBEKXZ" PURGE="0" COMMENT="" />
    <EXPORT ORDINAL="1603" NAME="?G_@CImVector48@@QBEKXZ" PURGE="0" COMMENT="" />
    <EXPORT ORDINAL="1604" NAME="?G_@CImVector64@@QBEKXZ" PURGE="0" COMMENT="" />
    <EXPORT ORDINAL="1605" NAME="?G_@CImVector@@QBEKXZ" PURGE="0" COMMENT="" />
    <EXPORT ORDINAL="1606" NAME="?G_@CImVector@@SAKK@Z" PURGE="0" COMMENT="" />
    <EXPORT ORDINAL="1607" NAME="?GammaAdjust@CPDUtils@@SAKK@Z" PURGE="0" COMMENT="" />
    <EXPORT ORDINAL="1608" NAME="?GammaLookup@CPDUtils@@SAEE@Z" PURGE="0" COMMENT="" />
    <EXPORT ORDINAL="1609" NAME="?Get@C2Vector@@QBEXAAM0@Z" PURGE="8" COMMENT="" />
    <EXPORT ORDINAL="1610" NAME="?Get@C2iVector@@QBEXAAJ0@Z" PURGE="8" COMMENT="" />
    <EXPORT ORDINAL="1611" NAME="?Get@C3Vector@@QBEXAAM00@Z" PURGE="12" COMMENT="" />
    <EXPORT ORDINAL="1612" NAME="?Get@C3iVector@@QBEXAAJ00@Z" PURGE="12" COMMENT="" />
    <EXPORT ORDINAL="1613" NAME="?Get@C4Vector@@QBEXAAM000@Z" PURGE="16" COMMENT="" />
    <EXPORT ORDINAL="1614" NAME="?Get@C4iVector@@QBEXAAJ000@Z" PURGE="16" COMMENT="" />
    <EXPORT ORDINAL="1615" NAME="?Get@CGradient@@QAEPAVCImVector64@@XZ" PURGE="0" COMMENT="" />
    <EXPORT ORDINAL="1616" NAME="?Get@CImVector48@@QAEXAAK00@Z" PURGE="12" COMMENT="" />
    <EXPORT ORDINAL="1617" NAME="?Get@CImVector64@@QBEXAAK000@Z" PURGE="16" COMMENT="" />
    <EXPORT ORDINAL="1618" NAME="?Get@CImVector64@@QBEXAAK00@Z" PURGE="12" COMMENT="" />
    <EXPORT ORDINAL="1619" NAME="?Get@CImVector64@@QBEXAAK0@Z" PURGE="8" COMMENT="" />
    <EXPORT ORDINAL="1620" NAME="?Get@CImVector@@QBEKXZ" PURGE="0" COMMENT="" />
    <EXPORT ORDINAL="1621" NAME="?Get@CImVector@@QBEXAAK000@Z" PURGE="16" COMMENT="" />
    <EXPORT ORDINAL="1622" NAME="?Get@CImVector@@QBEXAAK00@Z" PURGE="12" COMMENT="" />
    <EXPORT ORDINAL="1623" NAME="?Get@CMemBlock@@QBEPADXZ" PURGE="0" COMMENT="" />
    <EXPORT ORDINAL="1624" NAME="?Get@CRange@@QBEXAAM0@Z" PURGE="8" COMMENT="" />
    <EXPORT ORDINAL="1625" NAME="?Get@CRect@@QBEXAAM000@Z" PURGE="16" COMMENT="" />
    <EXPORT ORDINAL="1626" NAME="?Get@CSpoolMem@@UBEPADXZ" PURGE="0" COMMENT="" />
    <EXPORT ORDINAL="1627" NAME="?Get@CiRange@@QBEXAAJ0@Z" PURGE="8" COMMENT="" />
    <EXPORT ORDINAL="1628" NAME="?Get@CiRect@@QBEXAAJ000@Z" PURGE="16" COMMENT="" />
    <EXPORT ORDINAL="1629" NAME="?GetAlpha@CGradient@@QAEKK@Z" PURGE="4" COMMENT="" />
    <EXPORT ORDINAL="1630" NAME="?GetAlpha_@CGradient@@IAEKK@Z" PURGE="4" COMMENT="" />
    <EXPORT ORDINAL="1631" NAME="?GetApplyMode@CNavProcess@@QAE?AW4EApplyMode@1@XZ" PURGE="0" COMMENT="" />
    <EXPORT ORDINAL="1632" NAME="?GetCGrafPtr@COffscreen@@QAEQAXXZ" PURGE="0" COMMENT="" />
    <EXPORT ORDINAL="1633" NAME="?GetCGrafPtr@CScreenPort@@QAEPAXXZ" PURGE="0" COMMENT="" />
    <EXPORT ORDINAL="1634" NAME="?GetCImage@COpacityItem@@QAEPAVCPreviewImage@@XZ" PURGE="0" COMMENT="" />
    <EXPORT ORDINAL="1635" NAME="?GetCTexture@CTextureProcess@@QAEPAVCTexture@@XZ" PURGE="0" COMMENT="" />
    <EXPORT ORDINAL="1636" NAME="?GetCheckedItem@CMenu@@QAEEAAKKK@Z" PURGE="12" COMMENT="" />
    <EXPORT ORDINAL="1637" NAME="?GetColor32@CGradient@@QAE?AVCImVector@@K@Z" PURGE="8" COMMENT="" />
    <EXPORT ORDINAL="1638" NAME="?GetColor32_@CGradient@@IAE?AVCImVector@@K@Z" PURGE="8" COMMENT="" />
    <EXPORT ORDINAL="1639" NAME="?GetColor@CGradient@@QAEXKAAK000@Z" PURGE="20" COMMENT="" />
    <EXPORT ORDINAL="1640" NAME="?GetColorAtPosition@CPDPort@@QAEXJJAAURGBColor@@@Z" PURGE="12" COMMENT="" />
    <EXPORT ORDINAL="1641" NAME="?GetColor_@CGradient@@IAEXKAAK000@Z" PURGE="20" COMMENT="" />
    <EXPORT ORDINAL="1642" NAME="?GetCompositeValue@CNavProcess@@QAEKXZ" PURGE="0" COMMENT="" />
    <EXPORT ORDINAL="1643" NAME="?GetContext@CAppContext@@QAEPAXXZ" PURGE="0" COMMENT="" />
    <EXPORT ORDINAL="1644" NAME="?GetCurRenderRow@CTextureProcess@@QAEJXZ" PURGE="0" COMMENT="" />
    <EXPORT ORDINAL="1645" NAME="?GetDDBResource@CWindowsEnv@@SAPAXJ@Z" PURGE="0" COMMENT="" />
    <EXPORT ORDINAL="1646" NAME="?GetDIBResource@CWindowsEnv@@SAPBUtagBITMAPINFOHEADER@@J@Z" PURGE="0" COMMENT="" />
    <EXPORT ORDINAL="1647" NAME="?GetDblClickTicks@CPDUtils@@SAKXZ" PURGE="0" COMMENT="" />
    <EXPORT ORDINAL="1648" NAME="?GetDialogItem@CDialog@@QAEPAVCDialogItem@@JJ@Z" PURGE="8" COMMENT="" />
    <EXPORT ORDINAL="1649" NAME="?GetDialogItemByIndex@CDialog@@QAEPAVCDialogItem@@JK@Z" PURGE="8" COMMENT="" />
    <EXPORT ORDINAL="1650" NAME="?GetEffectIdentity@CEffectItem@@QAEJXZ" PURGE="0" COMMENT="" />
    <EXPORT ORDINAL="1651" NAME="?GetEntry@CCmFunction@@QBEPAVCCFEntry@@K@Z" PURGE="4" COMMENT="" />
    <EXPORT ORDINAL="1652" NAME="?GetEntry@CDialogItemList@@QAEPAVCDialogItem@@K@Z" PURGE="4" COMMENT="" />
    <EXPORT ORDINAL="1653" NAME="?GetEntry@CDynArray@@QBEJK@Z" PURGE="4" COMMENT="" />
    <EXPORT ORDINAL="1654" NAME="?GetEntry@CDynTable@@QBEPADK@Z" PURGE="4" COMMENT="" />
    <EXPORT ORDINAL="1655" NAME="?GetEntry@CMenuItemTable@CMenu@@QAEPAUSMenuItem@2@K@Z" PURGE="4" COMMENT="" />
    <EXPORT ORDINAL="1656" NAME="?GetEntry@CResItemTable@CResourceFile@@QBEPAUSResTableItem@12@K@Z" PURGE="4" COMMENT="" />
    <EXPORT ORDINAL="1657" NAME="?GetEntry@CResTypeTable@CResourceFile@@QBEPAUSTypeTableItem@12@K@Z" PURGE="4" COMMENT="" />
    <EXPORT ORDINAL="1658" NAME="?GetEntry@CStatusTextTable@CDialogItem@@QAEPAUSStatusTextItem@2@K@Z" PURGE="4" COMMENT="" />
    <EXPORT ORDINAL="1659" NAME="?GetEntryInfo@CCmFile@@QAEKKAAUSEntryInfo@1@@Z" PURGE="8" COMMENT="" />
    <EXPORT ORDINAL="1660" NAME="?GetEventResult@CPluginManager@@QAEFXZ" PURGE="0" COMMENT="" />
    <EXPORT ORDINAL="1661" NAME="?GetEventType@CPluginManager@@QAE?AW4EHostEventType@CHostEvent@@XZ" PURGE="0" COMMENT="" />
    <EXPORT ORDINAL="1662" NAME="?GetFSize@CFile@@QBEKAAK@Z" PURGE="4" COMMENT="" />
    <EXPORT ORDINAL="1663" NAME="?GetFilePos@CFile@@QBEKAAJ@Z" PURGE="4" COMMENT="" />
    <EXPORT ORDINAL="1664" NAME="?GetGlobalMouse@CPDUtils@@SAXAAVC2iVector@@@Z" PURGE="0" COMMENT="" />
    <EXPORT ORDINAL="1665" NAME="?GetGlobalPrefs@CPluginAppl@@QAEPAUSGlobalPrefs@1@XZ" PURGE="0" COMMENT="" />
    <EXPORT ORDINAL="1666" NAME="?GetGlueIdentity@CGlueItem@@QAEJXZ" PURGE="0" COMMENT="" />
    <EXPORT ORDINAL="1667" NAME="?GetHostResult@CPluginAppl@@QAEFXZ" PURGE="0" COMMENT="" />
    <EXPORT ORDINAL="1668" NAME="?GetImageMode@CPluginManager@@QAE?AW4EImagetype@CConversionNavigator@@XZ" PURGE="0" COMMENT="" />
    <EXPORT ORDINAL="1669" NAME="?GetIndexItemIdentity@CMenu@@QAEJK@Z" PURGE="4" COMMENT="" />
    <EXPORT ORDINAL="1670" NAME="?GetIndexItemText@CMenu@@QAEPAEK@Z" PURGE="4" COMMENT="" />
    <EXPORT ORDINAL="1671" NAME="?GetInfo@CCmFile@@QAEKAAUSInfo@1@@Z" PURGE="4" COMMENT="" />
    <EXPORT ORDINAL="1672" NAME="?GetItemIdentity@CMenu@@QAEJK@Z" PURGE="4" COMMENT="" />
    <EXPORT ORDINAL="1673" NAME="?GetItemIndex@CMenu@@QAEKJ@Z" PURGE="4" COMMENT="" />
    <EXPORT ORDINAL="1674" NAME="?GetItemTableIndex@CResourceFile@@IAEKK@Z" PURGE="4" COMMENT="" />
    <EXPORT ORDINAL="1675" NAME="?GetItemText@CMenu@@QAEEJPAE@Z" PURGE="8" COMMENT="" />
    <EXPORT ORDINAL="1676" NAME="?GetKPT3FileCreator@CPluginAppl@@UAEQADXZ" PURGE="0" COMMENT="" />
    <EXPORT ORDINAL="1677" NAME="?GetLimit@CUserParamStack@CNavProcess@@QAEJXZ" PURGE="0" COMMENT="" />
    <EXPORT ORDINAL="1678" NAME="?GetLocalMouse@CPDUtils@@SAXPAXAAVC2iVector@@@Z" PURGE="0" COMMENT="" />
    <EXPORT ORDINAL="1679" NAME="?GetMRCFSubscriberPriority@CAppl@@UAEEJAAJ@Z" PURGE="8" COMMENT="" />
    <EXPORT ORDINAL="1680" NAME="?GetMemPool@CDialog@@QBEPAVCMemPool@@XZ" PURGE="0" COMMENT="" />
    <EXPORT ORDINAL="1681" NAME="?GetMenuFlash@CMenu@@IAEKXZ" PURGE="0" COMMENT="" />
    <EXPORT ORDINAL="1682" NAME="?GetMenuFlash@CPDUtils@@SAKXZ" PURGE="0" COMMENT="" />
    <EXPORT ORDINAL="1683" NAME="?GetNavUser@CNavProcess@@QAEPAUSNavUser@1@XZ" PURGE="0" COMMENT="" />
    <EXPORT ORDINAL="1684" NAME="?GetPenLoc@CPDPort@@QAEXAAVC2iVector@@@Z" PURGE="4" COMMENT="" />
    <EXPORT ORDINAL="1685" NAME="?GetPlugin@CPluginAppl@@UAEPAVCPlugin@@K@Z" PURGE="4" COMMENT="" />
    <EXPORT ORDINAL="1686" NAME="?GetPoolSizes@CPluginManager@@SAEAAUPoolSizes@1@J@Z" PURGE="0" COMMENT="" />
    <EXPORT ORDINAL="1687" NAME="?GetPos@CUserParamStack@CNavProcess@@QAEJXZ" PURGE="0" COMMENT="" />
    <EXPORT ORDINAL="1688" NAME="?GetPrefsFileName@CPluginAppl@@UAEQAEXZ" PURGE="0" COMMENT="" />
    <EXPORT ORDINAL="1689" NAME="?GetPresetFileName@CPluginAppl@@UAEQAEJ@Z" PURGE="4" COMMENT="" />
    <EXPORT ORDINAL="1690" NAME="?GetPresetFileType@CPluginAppl@@UAEQADJ@Z" PURGE="4" COMMENT="" />
    <EXPORT ORDINAL="1691" NAME="?GetPreviewNav@CPreviewImage@@QAEPAVCPrevImNavigator@1@XZ" PURGE="0" COMMENT="" />
    <EXPORT ORDINAL="1692" NAME="?GetRCFSubscriberPriority@CAppl@@UAEEJAAJ@Z" PURGE="8" COMMENT="" />
    <EXPORT ORDINAL="1693" NAME="?GetRCFSubscriberPriority@CPluginAppl@@UAEEJAAJ@Z" PURGE="8" COMMENT="" />
    <EXPORT ORDINAL="1694" NAME="?GetRGB@CGradient@@QAEXKAAK00@Z" PURGE="16" COMMENT="" />
    <EXPORT ORDINAL="1695" NAME="?GetRGB@CImVector@@QBEKXZ" PURGE="0" COMMENT="" />
    <EXPORT ORDINAL="1696" NAME="?GetRGB_@CGradient@@IAEXKAAK00@Z" PURGE="16" COMMENT="" />
    <EXPORT ORDINAL="1697" NAME="?GetRequestedAreas16@CPluginManager@@QAEXPAUFilterRecord16@@@Z" PURGE="4" COMMENT="" />
    <EXPORT ORDINAL="1698" NAME="?GetRequestedAreas32@CPluginManager@@QAEXPAUFilterRecord@@@Z" PURGE="4" COMMENT="" />
    <EXPORT ORDINAL="1699" NAME="?GetResFileName@CPluginAppl@@UAEEPAEJJ@Z" PURGE="12" COMMENT="" />
    <EXPORT ORDINAL="1700" NAME="?GetResFileName@CPluginManager@@SAEJPAE@Z" PURGE="0" COMMENT="" />
    <EXPORT ORDINAL="1701" NAME="?GetResRef@CWindowsEnv@@SAPAXK@Z" PURGE="0" COMMENT="" />
    <EXPORT ORDINAL="1702" NAME="?GetResource@CWindowsEnv@@SAPBDPBDJ@Z" PURGE="0" COMMENT="" />
    <EXPORT ORDINAL="1703" NAME="?GetResourceSize@CWindowsEnv@@SAKPBDJ@Z" PURGE="0" COMMENT="" />
    <EXPORT ORDINAL="1704" NAME="?GetSECFSubscriberPriority@CSpoolEnv@@UAEEPBVCSubscriber@1@AAJ@Z" PURGE="8" COMMENT="" />
    <EXPORT ORDINAL="1705" NAME="?GetSaveContext@CAppContext@@QAEPAXXZ" PURGE="0" COMMENT="" />
    <EXPORT ORDINAL="1706" NAME="?GetScreenSize@CPDUtils@@SAXAAVC2iVector@@@Z" PURGE="0" COMMENT="" />
    <EXPORT ORDINAL="1707" NAME="?GetSize@CFile@@QBEKAAK@Z" PURGE="4" COMMENT="" />
    <EXPORT ORDINAL="1708" NAME="?GetSpoolEnv@CDialog@@QBEPAVCSpoolEnv@@XZ" PURGE="0" COMMENT="" />
    <EXPORT ORDINAL="1709" NAME="?GetStatusString@CDialogItem@@QAEPAEXZ" PURGE="0" COMMENT="" />
    <EXPORT ORDINAL="1710" NAME="?GetSubMenu@CMenu@@QAEPAV1@K@Z" PURGE="4" COMMENT="" />
    <EXPORT ORDINAL="1711" NAME="?GetText@CEditText@@QAEXPAE@Z" PURGE="4" COMMENT="" />
    <EXPORT ORDINAL="1712" NAME="?GetText@CEditTextItem@@QAEXPAE@Z" PURGE="4" COMMENT="" />
    <EXPORT ORDINAL="1713" NAME="?GetTextSize@CPDPort@@QAEXPAEJAAVC2iVector@@@Z" PURGE="12" COMMENT="" />
    <EXPORT ORDINAL="1714" NAME="?GetTileSize@CNavProcess@@UAEXAAVC2iVector@@0AAE@Z" PURGE="12" COMMENT="" />
    <EXPORT ORDINAL="1715" NAME="?GetTileSize@CTextureProcess@@UAEXAAVC2iVector@@0AAE@Z" PURGE="12" COMMENT="" />
    <EXPORT ORDINAL="1716" NAME="?GetUserParams@CTextureProcess@@QAEAAVSTextureUser@1@XZ" PURGE="0" COMMENT="" />
    <EXPORT ORDINAL="1717" NAME="?GetValue@CSliderItem@@UAEJXZ" PURGE="0" COMMENT="" />
    <EXPORT ORDINAL="1718" NAME="?GetValue@CSliderPopup@@QAEJXZ" PURGE="-1" COMMENT="" />
    <EXPORT ORDINAL="1719" NAME="?GetValueR@CSliderItem@@UAEMXZ" PURGE="0" COMMENT="" />
    <EXPORT ORDINAL="1720" NAME="?GetWindowsPlugin@CPluginAppl@@IAEFKAAPAXAAP6AJJPBVCCFEntryParms@@PAVCCFEntryData@@@Z@Z" PURGE="12" COMMENT="" />
    <EXPORT ORDINAL="1721" NAME="?GetXStatusString1@CDialogItem@@QAEPAEXZ" PURGE="0" COMMENT="" />
    <EXPORT ORDINAL="1722" NAME="?GetXStatusString2@CDialogItem@@QAEPAEXZ" PURGE="0" COMMENT="" />
    <EXPORT ORDINAL="1723" NAME="?Get_@CImVector@@SAXKAAK000@Z" PURGE="0" COMMENT="" />
    <EXPORT ORDINAL="1724" NAME="?Get_@CImVector@@SAXKAAK00@Z" PURGE="0" COMMENT="" />
    <EXPORT ORDINAL="1725" NAME="?GlobalFindWindow@CPDUtils@@SAPAXJJ@Z" PURGE="0" COMMENT="" />
    <EXPORT ORDINAL="1726" NAME="?GlobalRect@CMaskPopupObject@@QAEABVCiRect@@XZ" PURGE="0" COMMENT="" />
    <EXPORT ORDINAL="1727" NAME="?GlobalRect@CPopupObject@@QAEAAVCiRect@@XZ" PURGE="0" COMMENT="" />
    <EXPORT ORDINAL="1728" NAME="?GlueFn@CImVector64@@SAP6AXPAV1@00K@ZK@Z" PURGE="0" COMMENT="" />
    <EXPORT ORDINAL="1729" NAME="?GoAbs@CScanner@CMemBlock@@QAEXK@Z" PURGE="4" COMMENT="" />
    <EXPORT ORDINAL="1730" NAME="?GoAbsU@CFrImNavigator@CImage@@QAEXM@Z" PURGE="4" COMMENT="" />
    <EXPORT ORDINAL="1731" NAME="?GoAbsV@CFrImNavigator@CImage@@QAEXM@Z" PURGE="4" COMMENT="" />
    <EXPORT ORDINAL="1732" NAME="?GoAbsX@CNavigator@CMemBlock@@QAEXK@Z" PURGE="4" COMMENT="" />
    <EXPORT ORDINAL="1733" NAME="?GoAbsXY@CMirrorNav@@QAEXKK@Z" PURGE="8" COMMENT="" />
    <EXPORT ORDINAL="1734" NAME="?GoAbsXY_@CMirrorNav@@QAEXKK@Z" PURGE="8" COMMENT="" />
    <EXPORT ORDINAL="1735" NAME="?GoAbsX_f@CNavigator@CMemBlock@@QAEXK@Z" PURGE="4" COMMENT="" />
    <EXPORT ORDINAL="1736" NAME="?GoAbsY@CNavigator@CMemBlock@@QAEXK@Z" PURGE="4" COMMENT="" />
    <EXPORT ORDINAL="1737" NAME="?GoAbsY_f@CNavigator@CMemBlock@@QAEXK@Z" PURGE="4" COMMENT="" />
    <EXPORT ORDINAL="1738" NAME="?GoAbs_f@CScanner@CMemBlock@@QAEXK@Z" PURGE="4" COMMENT="" />
    <EXPORT ORDINAL="1739" NAME="?GoRel@CScanner@CMemBlock@@QAEXJ@Z" PURGE="4" COMMENT="" />
    <EXPORT ORDINAL="1740" NAME="?GoRelU@CFrImNavigator@CImage@@QAEXM@Z" PURGE="4" COMMENT="" />
    <EXPORT ORDINAL="1741" NAME="?GoRelV@CFrImNavigator@CImage@@QAEXM@Z" PURGE="4" COMMENT="" />
    <EXPORT ORDINAL="1742" NAME="?GoRelX@CMirrorNav@@QAEXJ@Z" PURGE="4" COMMENT="" />
    <EXPORT ORDINAL="1743" NAME="?GoRelX@CNavigator@CMemBlock@@QAEXJ@Z" PURGE="4" COMMENT="" />
    <EXPORT ORDINAL="1744" NAME="?GoRelXY@CMirrorNav@@QAEXJJ@Z" PURGE="8" COMMENT="" />
    <EXPORT ORDINAL="1745" NAME="?GoRelX_@CNavigator@CMemBlock@@QAEXJ@Z" PURGE="4" COMMENT="" />
    <EXPORT ORDINAL="1746" NAME="?GoRelX_f@CNavigator@CMemBlock@@QAEXJ@Z" PURGE="4" COMMENT="" />
    <EXPORT ORDINAL="1747" NAME="?GoRelY@CMirrorNav@@QAEXJ@Z" PURGE="4" COMMENT="" />
    <EXPORT ORDINAL="1748" NAME="?GoRelY@CNavigator@CMemBlock@@QAEXJ@Z" PURGE="4" COMMENT="" />
    <EXPORT ORDINAL="1749" NAME="?GoRelY_@CNavigator@CMemBlock@@QAEXJ@Z" PURGE="4" COMMENT="" />
    <EXPORT ORDINAL="1750" NAME="?GoRelY_f@CNavigator@CMemBlock@@QAEXJ@Z" PURGE="4" COMMENT="" />
    <EXPORT ORDINAL="1751" NAME="?GoRel_@CScanner@CMemBlock@@QAEXJ@Z" PURGE="4" COMMENT="" />
    <EXPORT ORDINAL="1752" NAME="?GoRel_f@CScanner@CMemBlock@@QAEXJ@Z" PURGE="4" COMMENT="" />
    <EXPORT ORDINAL="1753" NAME="?Goto@CDynArray@@QAEEKAAVCIterator@1@@Z" PURGE="8" COMMENT="" />
    <EXPORT ORDINAL="1754" NAME="?Goto@CDynTable@@QAEEKAAVCIterator@1@@Z" PURGE="8" COMMENT="" />
    <EXPORT ORDINAL="1755" NAME="?Gradient@CTexture@@QAEPAVCGradient@@XZ" PURGE="0" COMMENT="" />
    <EXPORT ORDINAL="1756" NAME="?Gray@CImVector@@QBEEXZ" PURGE="0" COMMENT="" />
    <EXPORT ORDINAL="1757" NAME="?Gray@CImVector@@SAEK@Z" PURGE="0" COMMENT="" />
    <EXPORT ORDINAL="1758" NAME="?Grid@CSgNavigator@CSpoolGrid@@QBEPAV2@XZ" PURGE="0" COMMENT="" />
    <EXPORT ORDINAL="1759" NAME="?Grow@CCmFunction@@QAEEPBVCCFEntry@@K@Z" PURGE="8" COMMENT="" />
    <EXPORT ORDINAL="1760" NAME="?Grow@CDynArray@@QAEEJK@Z" PURGE="8" COMMENT="" />
    <EXPORT ORDINAL="1761" NAME="?Grow@CDynTable@@QAEEQADK@Z" PURGE="8" COMMENT="" />
    <EXPORT ORDINAL="1762" NAME="?Grow@CMenu@@QAEEK@Z" PURGE="4" COMMENT="" />
    <EXPORT ORDINAL="1763" NAME="?GrowAll@CDynArray@@QAEEJ@Z" PURGE="4" COMMENT="" />
    <EXPORT ORDINAL="1764" NAME="?GrowAll@CDynTable@@QAEEQAD@Z" PURGE="4" COMMENT="" />
    <EXPORT ORDINAL="1765" NAME="?HBCurrentPulse@CAppl@@UBEKXZ" PURGE="0" COMMENT="" />
    <EXPORT ORDINAL="1766" NAME="?HBLastDispatchTime@CAppl@@UBEKXZ" PURGE="0" COMMENT="" />
    <EXPORT ORDINAL="1767" NAME="?HBLastTime@CAppl@@UBEKXZ" PURGE="0" COMMENT="" />
    <EXPORT ORDINAL="1768" NAME="?HBMinDelay@CAppl@@UBEKXZ" PURGE="0" COMMENT="" />
    <EXPORT ORDINAL="1769" NAME="?HBMinDispatchDelay@CAppl@@UBEKXZ" PURGE="0" COMMENT="" />
    <EXPORT ORDINAL="1770" NAME="?HBProc@CDialog@@KAJPAV1@PBVCCFEntryParms@@PAVCCFEntryData@@@Z" PURGE="0" COMMENT="" />
    <EXPORT ORDINAL="1771" NAME="?HBProc@CPluginAppl@@KAJPAV1@PBVCCFEntryParms@@PAVCCFEntryData@@@Z" PURGE="0" COMMENT="" />
    <EXPORT ORDINAL="1772" NAME="?HCFIdToEntry@CAppl@@IAEPAVCCFEntry@@J@Z" PURGE="4" COMMENT="" />
    <EXPORT ORDINAL="1773" NAME="?HCenter@CPDUtils@@SAJABVCiRect@@@Z" PURGE="0" COMMENT="" />
    <EXPORT ORDINAL="1774" NAME="?HandleActivate@CCanvas@@MAEJPBVCReceiverData@CAppl@@@Z" PURGE="4" COMMENT="" />
    <EXPORT ORDINAL="1775" NAME="?HandleActivate@CWinAppl@@MAEJPBVCReceiverData@CAppl@@@Z" PURGE="4" COMMENT="" />
    <EXPORT ORDINAL="1776" NAME="?HandleClose@CCanvas@@MAEJPBVCReceiverData@CAppl@@@Z" PURGE="4" COMMENT="" />
    <EXPORT ORDINAL="1777" NAME="?HandleClose@CWinAppl@@MAEJPBVCReceiverData@CAppl@@@Z" PURGE="4" COMMENT="" />
    <EXPORT ORDINAL="1778" NAME="?HandleCommand@CCanvas@@MAEJPBVCReceiverData@CAppl@@@Z" PURGE="4" COMMENT="" />
    <EXPORT ORDINAL="1779" NAME="?HandleCommand@CWinAppl@@MAEJPBVCReceiverData@CAppl@@@Z" PURGE="4" COMMENT="" />
    <EXPORT ORDINAL="1780" NAME="?HandleCreate@CCanvas@@MAEJPBVCReceiverData@CAppl@@@Z" PURGE="4" COMMENT="" />
    <EXPORT ORDINAL="1781" NAME="?HandleCreate@CWinAppl@@MAEJPBVCReceiverData@CAppl@@@Z" PURGE="4" COMMENT="" />
    <EXPORT ORDINAL="1782" NAME="?HandleDestroy@CCanvas@@MAEJPBVCReceiverData@CAppl@@@Z" PURGE="4" COMMENT="" />
    <EXPORT ORDINAL="1783" NAME="?HandleDestroy@CWinAppl@@MAEJPBVCReceiverData@CAppl@@@Z" PURGE="4" COMMENT="" />
    <EXPORT ORDINAL="1784" NAME="?HandleEraseBkgnd@CCanvas@@MAEJPBVCReceiverData@CAppl@@@Z" PURGE="4" COMMENT="" />
    <EXPORT ORDINAL="1785" NAME="?HandleEraseBkgnd@CDialog@@UAEJPBVCReceiverData@CAppl@@@Z" PURGE="4" COMMENT="" />
    <EXPORT ORDINAL="1786" NAME="?HandleEraseBkgnd@CWinAppl@@MAEJPBVCReceiverData@CAppl@@@Z" PURGE="4" COMMENT="" />
    <EXPORT ORDINAL="1787" NAME="?HandleGetMinMaxInfo@CCanvas@@MAEJPBVCReceiverData@CAppl@@@Z" PURGE="4" COMMENT="" />
    <EXPORT ORDINAL="1788" NAME="?HandleGetMinMaxInfo@CWinAppl@@MAEJPBVCReceiverData@CAppl@@@Z" PURGE="4" COMMENT="" />
    <EXPORT ORDINAL="1789" NAME="?HandleKeyDown@CCanvas@@MAEJPBVCReceiverData@CAppl@@@Z" PURGE="4" COMMENT="" />
    <EXPORT ORDINAL="1790" NAME="?HandleKeyDown@CDialog@@UAEJPBVCReceiverData@CAppl@@@Z" PURGE="4" COMMENT="" />
    <EXPORT ORDINAL="1791" NAME="?HandleKeyDown@CDialogItem@@UAEJPBVCReceiverData@CAppl@@@Z" PURGE="4" COMMENT="" />
    <EXPORT ORDINAL="1792" NAME="?HandleKeyDown@CEditTextItem@@UAEJPBVCReceiverData@CAppl@@@Z" PURGE="4" COMMENT="" />
    <EXPORT ORDINAL="1793" NAME="?HandleKeyDown@CWinAppl@@MAEJPBVCReceiverData@CAppl@@@Z" PURGE="4" COMMENT="" />
    <EXPORT ORDINAL="1794" NAME="?HandleMenuSelect@CCanvas@@MAEJPBVCReceiverData@CAppl@@@Z" PURGE="4" COMMENT="" />
    <EXPORT ORDINAL="1795" NAME="?HandleMenuSelect@CWinAppl@@MAEJPBVCReceiverData@CAppl@@@Z" PURGE="4" COMMENT="" />
    <EXPORT ORDINAL="1796" NAME="?HandleMouseDown@CCanvas@@MAEJPBVCReceiverData@CAppl@@@Z" PURGE="4" COMMENT="" />
    <EXPORT ORDINAL="1797" NAME="?HandleMouseDown@CDialog@@UAEJPBVCReceiverData@CAppl@@@Z" PURGE="4" COMMENT="" />
    <EXPORT ORDINAL="1798" NAME="?HandleMouseDown@CDialog@@UAEJPBVCReceiverData@CAppl@@ABVC2iVector@@@Z" PURGE="8" COMMENT="" />
    <EXPORT ORDINAL="1799" NAME="?HandleMouseDown@CDialogItem@@UAEJPBVCReceiverData@CAppl@@ABVC2iVector@@@Z" PURGE="8" COMMENT="" />
    <EXPORT ORDINAL="1800" NAME="?HandleMouseDown@CEditTextItem@@UAEJPBVCReceiverData@CAppl@@ABVC2iVector@@@Z" PURGE="8" COMMENT="" />
    <EXPORT ORDINAL="1801" NAME="?HandleMouseDown@CEffectItem@@UAEJPBVCReceiverData@CAppl@@ABVC2iVector@@@Z" PURGE="8" COMMENT="" />
    <EXPORT ORDINAL="1802" NAME="?HandleMouseDown@CGlueItem@@UAEJPBVCReceiverData@CAppl@@ABVC2iVector@@@Z" PURGE="8" COMMENT="" />
    <EXPORT ORDINAL="1803" NAME="?HandleMouseDown@COpacityItem@@UAEJPBVCReceiverData@CAppl@@ABVC2iVector@@@Z" PURGE="8" COMMENT="" />
    <EXPORT ORDINAL="1804" NAME="?HandleMouseDown@CPopupMenuItem@@UAEJPBVCReceiverData@CAppl@@ABVC2iVector@@@Z" PURGE="8" COMMENT="" />
    <EXPORT ORDINAL="1805" NAME="?HandleMouseDown@CRotationItem@@UAEJPBVCReceiverData@CAppl@@ABVC2iVector@@@Z" PURGE="8" COMMENT="" />
    <EXPORT ORDINAL="1806" NAME="?HandleMouseDown@CSliderWidgetItem@@UAEJPBVCReceiverData@CAppl@@ABVC2iVector@@@Z" PURGE="8" COMMENT="" />
    <EXPORT ORDINAL="1807" NAME="?HandleMouseDown@CToggleButtonItem@@UAEJPBVCReceiverData@CAppl@@ABVC2iVector@@@Z" PURGE="8" COMMENT="" />
    <EXPORT ORDINAL="1808" NAME="?HandleMouseDown@CWinAppl@@MAEJPBVCReceiverData@CAppl@@@Z" PURGE="4" COMMENT="" />
    <EXPORT ORDINAL="1809" NAME="?HandleMouseMove@CCanvas@@MAEJPBVCReceiverData@CAppl@@@Z" PURGE="4" COMMENT="" />
    <EXPORT ORDINAL="1810" NAME="?HandleMouseMove@CDialog@@UAEJPBVCReceiverData@CAppl@@@Z" PURGE="4" COMMENT="" />
    <EXPORT ORDINAL="1811" NAME="?HandleMouseMove@CDialogItem@@UAEJPBVCReceiverData@CAppl@@ABVC2iVector@@@Z" PURGE="8" COMMENT="" />
    <EXPORT ORDINAL="1812" NAME="?HandleMouseMove@CPopupMenuItem@@UAEJPBVCReceiverData@CAppl@@ABVC2iVector@@@Z" PURGE="8" COMMENT="" />
    <EXPORT ORDINAL="1813" NAME="?HandleMouseMove@CSliderWidgetItem@@UAEJPBVCReceiverData@CAppl@@ABVC2iVector@@@Z" PURGE="8" COMMENT="" />
    <EXPORT ORDINAL="1814" NAME="?HandleMouseMove@CWinAppl@@MAEJPBVCReceiverData@CAppl@@@Z" PURGE="4" COMMENT="" />
    <EXPORT ORDINAL="1815" NAME="?HandleMove@CCanvas@@MAEJPBVCReceiverData@CAppl@@@Z" PURGE="4" COMMENT="" />
    <EXPORT ORDINAL="1816" NAME="?HandleMove@CWinAppl@@MAEJPBVCReceiverData@CAppl@@@Z" PURGE="4" COMMENT="" />
    <EXPORT ORDINAL="1817" NAME="?HandleNCActivate@CCanvas@@MAEJPBVCReceiverData@CAppl@@@Z" PURGE="4" COMMENT="" />
    <EXPORT ORDINAL="1818" NAME="?HandleNCPaint@CCanvas@@MAEJPBVCReceiverData@CAppl@@@Z" PURGE="4" COMMENT="" />
    <EXPORT ORDINAL="1819" NAME="?HandleNCPaint@CWinAppl@@MAEJPBVCReceiverData@CAppl@@@Z" PURGE="4" COMMENT="" />
    <EXPORT ORDINAL="1820" NAME="?HandleQuit@CCanvas@@MAEJPBVCReceiverData@CAppl@@@Z" PURGE="4" COMMENT="" />
    <EXPORT ORDINAL="1821" NAME="?HandleQuit@CWinAppl@@MAEJPBVCReceiverData@CAppl@@@Z" PURGE="4" COMMENT="" />
    <EXPORT ORDINAL="1822" NAME="?HandleResume@CCanvas@@MAEJPBVCReceiverData@CAppl@@@Z" PURGE="4" COMMENT="" />
    <EXPORT ORDINAL="1823" NAME="?HandleResume@CDialog@@UAEJPBVCReceiverData@CAppl@@@Z" PURGE="4" COMMENT="" />
    <EXPORT ORDINAL="1824" NAME="?HandleResume@CPlugin@@MAEJPBVCReceiverData@CAppl@@@Z" PURGE="4" COMMENT="" />
    <EXPORT ORDINAL="1825" NAME="?HandleResume@CWinAppl@@MAEJPBVCReceiverData@CAppl@@@Z" PURGE="4" COMMENT="" />
    <EXPORT ORDINAL="1826" NAME="?HandleSize@CCanvas@@MAEJPBVCReceiverData@CAppl@@@Z" PURGE="4" COMMENT="" />
    <EXPORT ORDINAL="1827" NAME="?HandleSize@CWinAppl@@MAEJPBVCReceiverData@CAppl@@@Z" PURGE="4" COMMENT="" />
    <EXPORT ORDINAL="1828" NAME="?HandleSuspend@CCanvas@@MAEJPBVCReceiverData@CAppl@@@Z" PURGE="4" COMMENT="" />
    <EXPORT ORDINAL="1829" NAME="?HandleSuspend@CPlugin@@MAEJPBVCReceiverData@CAppl@@@Z" PURGE="4" COMMENT="" />
    <EXPORT ORDINAL="1830" NAME="?HandleSuspend@CWinAppl@@MAEJPBVCReceiverData@CAppl@@@Z" PURGE="4" COMMENT="" />
    <EXPORT ORDINAL="1831" NAME="?HandleSysCommand@CCanvas@@MAEJPBVCReceiverData@CAppl@@@Z" PURGE="4" COMMENT="" />
    <EXPORT ORDINAL="1832" NAME="?HandleSysCommand@CWinAppl@@MAEJPBVCReceiverData@CAppl@@@Z" PURGE="4" COMMENT="" />
    <EXPORT ORDINAL="1833" NAME="?HandleUICFBeginTrack@CDialog@@UAEJPBVCReceiverData@CAppl@@PBVCUIData@@@Z" PURGE="8" COMMENT="" />
    <EXPORT ORDINAL="1834" NAME="?HandleUICFBeginTrack@CDialogItem@@UAEJPBVCReceiverData@CAppl@@PBVCUIData@@@Z" PURGE="8" COMMENT="" />
    <EXPORT ORDINAL="1835" NAME="?HandleUICFBeginTrack@CEffectItem@@UAEJPBVCReceiverData@CAppl@@PBVCUIData@@@Z" PURGE="8" COMMENT="" />
    <EXPORT ORDINAL="1836" NAME="?HandleUICFBeginTrack@CGlueItem@@UAEJPBVCReceiverData@CAppl@@PBVCUIData@@@Z" PURGE="8" COMMENT="" />
    <EXPORT ORDINAL="1837" NAME="?HandleUICFBeginTrack@COpacityItem@@UAEJPBVCReceiverData@CAppl@@PBVCUIData@@@Z" PURGE="8" COMMENT="" />
    <EXPORT ORDINAL="1838" NAME="?HandleUICFBeginTrack@CRotationItem@@UAEJPBVCReceiverData@CAppl@@PBVCUIData@@@Z" PURGE="8" COMMENT="" />
    <EXPORT ORDINAL="1839" NAME="?HandleUICFBeginTrack@CSliderWidgetItem@@UAEJPBVCReceiverData@CAppl@@PBVCUIData@@@Z" PURGE="8" COMMENT="" />
    <EXPORT ORDINAL="1840" NAME="?HandleUICFEndTrack@CDialog@@UAEJPBVCReceiverData@CAppl@@PBVCUIData@@@Z" PURGE="8" COMMENT="" />
    <EXPORT ORDINAL="1841" NAME="?HandleUICFEndTrack@CDialogItem@@UAEJPBVCReceiverData@CAppl@@PBVCUIData@@@Z" PURGE="8" COMMENT="" />
    <EXPORT ORDINAL="1842" NAME="?HandleUICFSelection@CDialog@@UAEJPBVCReceiverData@CAppl@@PBVCUIData@@@Z" PURGE="8" COMMENT="" />
    <EXPORT ORDINAL="1843" NAME="?HandleUICFSelection@CDialogItem@@UAEJPBVCReceiverData@CAppl@@PBVCUIData@@@Z" PURGE="8" COMMENT="" />
    <EXPORT ORDINAL="1844" NAME="?HandleUICFTracking@CDialog@@UAEJPBVCReceiverData@CAppl@@PBVCUIData@@@Z" PURGE="8" COMMENT="" />
    <EXPORT ORDINAL="1845" NAME="?HandleUICFTracking@CDialogItem@@UAEJPBVCReceiverData@CAppl@@PBVCUIData@@@Z" PURGE="8" COMMENT="" />
    <EXPORT ORDINAL="1846" NAME="?HandleUICFTracking@CPopupMenuItem@@UAEJPBVCReceiverData@CAppl@@PBVCUIData@@@Z" PURGE="8" COMMENT="" />
    <EXPORT ORDINAL="1847" NAME="?HandleUICFTracking@CSliderItem@@UAEJPBVCReceiverData@CAppl@@PBVCUIData@@@Z" PURGE="8" COMMENT="" />
    <EXPORT ORDINAL="1848" NAME="?HandleUpdate@CButtonItem@@UAEJPAX@Z" PURGE="4" COMMENT="" />
    <EXPORT ORDINAL="1849" NAME="?HandleUpdate@CCanvas@@MAEJPBVCReceiverData@CAppl@@@Z" PURGE="4" COMMENT="" />
    <EXPORT ORDINAL="1850" NAME="?HandleUpdate@CDecorationItem@@UAEJPAX@Z" PURGE="4" COMMENT="" />
    <EXPORT ORDINAL="1851" NAME="?HandleUpdate@CDialogItem@@UAEJPAX@Z" PURGE="4" COMMENT="" />
    <EXPORT ORDINAL="1852" NAME="?HandleUpdate@CEditTextItem@@UAEJPAX@Z" PURGE="4" COMMENT="" />
    <EXPORT ORDINAL="1853" NAME="?HandleUpdate@CEffectItem@@UAEJPAX@Z" PURGE="4" COMMENT="" />
    <EXPORT ORDINAL="1854" NAME="?HandleUpdate@CGlueItem@@UAEJPAX@Z" PURGE="4" COMMENT="" />
    <EXPORT ORDINAL="1855" NAME="?HandleUpdate@COpacityItem@@UAEJPAX@Z" PURGE="4" COMMENT="" />
    <EXPORT ORDINAL="1856" NAME="?HandleUpdate@CPopupMenuItem@@UAEJPAX@Z" PURGE="4" COMMENT="" />
    <EXPORT ORDINAL="1857" NAME="?HandleUpdate@CRotationItem@@UAEJPAX@Z" PURGE="4" COMMENT="" />
    <EXPORT ORDINAL="1858" NAME="?HandleUpdate@CSliderItem@@UAEJPAX@Z" PURGE="4" COMMENT="" />
    <EXPORT ORDINAL="1859" NAME="?HandleUpdate@CSliderWidgetItem@@UAEJPAX@Z" PURGE="4" COMMENT="" />
    <EXPORT ORDINAL="1860" NAME="?HandleUpdate@CStaticTextItem@@UAEJPAX@Z" PURGE="4" COMMENT="" />
    <EXPORT ORDINAL="1861" NAME="?HandleUpdate@CToggleButtonItem@@UAEJPAX@Z" PURGE="4" COMMENT="" />
    <EXPORT ORDINAL="1862" NAME="?HandleUpdate@CWinAppl@@MAEJPBVCReceiverData@CAppl@@@Z" PURGE="4" COMMENT="" />
    <EXPORT ORDINAL="1863" NAME="?HasAbortProc@CNavProcess@@QAEEXZ" PURGE="0" COMMENT="" />
    <EXPORT ORDINAL="1864" NAME="?HasApplyMode@CNavProcess@@QAEEXZ" PURGE="0" COMMENT="" />
    <EXPORT ORDINAL="1865" NAME="?HasChanged@CPlatformData@CImage@@QBEEXZ" PURGE="0" COMMENT="" />
    <EXPORT ORDINAL="1866" NAME="?HasChanged@CSaScanner@CSpoolArray@@QBEEXZ" PURGE="0" COMMENT="" />
    <EXPORT ORDINAL="1867" NAME="?HasChanged@CSgNavigator@CSpoolGrid@@QBEEXZ" PURGE="0" COMMENT="" />
    <EXPORT ORDINAL="1868" NAME="?HasProgressProc@CNavProcess@@QAEEXZ" PURGE="0" COMMENT="" />
    <EXPORT ORDINAL="1869" NAME="?HasProperty@CDialogItem@@QAEJK@Z" PURGE="4" COMMENT="" />
    <EXPORT ORDINAL="1870" NAME="?HasTransparency@CGradient@@QAEEXZ" PURGE="0" COMMENT="" />
    <EXPORT ORDINAL="1871" NAME="?HasTransparency_@CGradient@@IAEEXZ" PURGE="0" COMMENT="" />
    <EXPORT ORDINAL="1872" NAME="?Heartbeat@CAppl@@UAEEE@Z" PURGE="4" COMMENT="" />
    <EXPORT ORDINAL="1873" NAME="?Heartbeat@CDialog@@UAEJXZ" PURGE="0" COMMENT="" />
    <EXPORT ORDINAL="1874" NAME="?Heartbeat@CDialogItem@@UAEJXZ" PURGE="0" COMMENT="" />
    <EXPORT ORDINAL="1875" NAME="?Heartbeat@CEditTextItem@@MAEJXZ" PURGE="0" COMMENT="" />
    <EXPORT ORDINAL="1876" NAME="?Heartbeat@CPluginAppl@@UAEEE@Z" PURGE="4" COMMENT="" />
    <EXPORT ORDINAL="1877" NAME="?HeartbeatCF@CAppl@@UAEAAVCCmFunction@@XZ" PURGE="0" COMMENT="" />
    <EXPORT ORDINAL="1878" NAME="?Height@CBitmap@@QAEKXZ" PURGE="0" COMMENT="" />
    <EXPORT ORDINAL="1879" NAME="?Height@CRect@@QBEMXZ" PURGE="0" COMMENT="" />
    <EXPORT ORDINAL="1880" NAME="?Height@CiRect@@QBEJXZ" PURGE="0" COMMENT="" />
    <EXPORT ORDINAL="1881" NAME="?Hide@CCanvas@@UAEEXZ" PURGE="0" COMMENT="" />
    <EXPORT ORDINAL="1882" NAME="?Hide@CMaskPopupObject@@UAEXPAX@Z" PURGE="4" COMMENT="" />
    <EXPORT ORDINAL="1883" NAME="?Hide@CPopupObject@@UAEXPAX@Z" PURGE="4" COMMENT="" />
    <EXPORT ORDINAL="1884" NAME="?Hide@CSliderPopup@@UAEXPAX@Z" PURGE="4" COMMENT="" />
    <EXPORT ORDINAL="1885" NAME="?HidePointer@CWinAppl@@UAEXXZ" PURGE="0" COMMENT="" />
    <EXPORT ORDINAL="1886" NAME="?High@CRange@@QBEMXZ" PURGE="0" COMMENT="" />
    <EXPORT ORDINAL="1887" NAME="?High@CiRange@@QBEJXZ" PURGE="0" COMMENT="" />
    <EXPORT ORDINAL="1888" NAME="?HiliteArea@CDialogItem@@QAEAAVCiRect@@XZ" PURGE="0" COMMENT="" />
    <EXPORT ORDINAL="1889" NAME="?HiliteItem@CMenu@@QAEEKE@Z" PURGE="8" COMMENT="" />
    <EXPORT ORDINAL="1890" NAME="?Hold@CSpoolMem@@UAEEXZ" PURGE="0" COMMENT="" />
    <EXPORT ORDINAL="1891" NAME="?Home@CNavigator@CMemBlock@@QAEXXZ" PURGE="0" COMMENT="" />
    <EXPORT ORDINAL="1892" NAME="?Home@CScanner@CMemBlock@@QAEXXZ" PURGE="0" COMMENT="" />
    <EXPORT ORDINAL="1893" NAME="?HostEvent@CPluginAppl@@QAEPBVCHostEvent@@XZ" PURGE="0" COMMENT="" />
    <EXPORT ORDINAL="1894" NAME="?HostEventTarget@CPluginAppl@@QAE?BKXZ" PURGE="0" COMMENT="" />
    <EXPORT ORDINAL="1895" NAME="?HueRotate@CGradient@@QAEXMPBV1@@Z" PURGE="8" COMMENT="" />
    <EXPORT ORDINAL="1896" NAME="?HueRotate_@CGradient@@IAEXM@Z" PURGE="4" COMMENT="" />
    <EXPORT ORDINAL="1897" NAME="?IDSearchProc@CMenuItemTable@CMenu@@SAJPBUSMenuItem@2@J@Z" PURGE="0" COMMENT="" />
    <EXPORT ORDINAL="1898" NAME="?IDSearchProc@CResItemTable@CResourceFile@@SAJPBUSResTableItem@12@J@Z" PURGE="0" COMMENT="" />
    <EXPORT ORDINAL="1899" NAME="?IDSortProc@CMenuItemTable@CMenu@@SAJPBUSMenuItem@2@0@Z" PURGE="0" COMMENT="" />
    <EXPORT ORDINAL="1900" NAME="?IV_@CImVector@@QBEPAKXZ" PURGE="0" COMMENT="" />
    <EXPORT ORDINAL="1901" NAME="?Identity@C22Matrix@@QAEXXZ" PURGE="0" COMMENT="" />
    <EXPORT ORDINAL="1902" NAME="?Identity@C23Affine@@QAEXXZ" PURGE="0" COMMENT="" />
    <EXPORT ORDINAL="1903" NAME="?Identity@C33Matrix@@QAEXXZ" PURGE="0" COMMENT="" />
    <EXPORT ORDINAL="1904" NAME="?Identity@C33iMatrix@@QAEXXZ" PURGE="0" COMMENT="" />
    <EXPORT ORDINAL="1905" NAME="?Identity@C44Matrix@@QAEXXZ" PURGE="0" COMMENT="" />
    <EXPORT ORDINAL="1906" NAME="?Identity@C44iMatrix@@QAEXXZ" PURGE="0" COMMENT="" />
    <EXPORT ORDINAL="1907" NAME="?Identity@CDialogItem@@QAEJXZ" PURGE="0" COMMENT="" />
    <EXPORT ORDINAL="1908" NAME="?Identity@CNavProcess@@QAE?AW4ENavProcessRegistry@1@XZ" PURGE="0" COMMENT="" />
    <EXPORT ORDINAL="1909" NAME="?IdentitySortP@CAppl@@KAJPBVCCFEntry@@0@Z" PURGE="0" COMMENT="" />
    <EXPORT ORDINAL="1910" NAME="?Idle@CEditText@@QAEXXZ" PURGE="0" COMMENT="" />
    <EXPORT ORDINAL="1911" NAME="?Image@CImNavigator@CImage@@QBEPAV2@XZ" PURGE="0" COMMENT="" />
    <EXPORT ORDINAL="1912" NAME="?Image@CPlatformData@CImage@@QBEPAV2@XZ" PURGE="0" COMMENT="" />
    <EXPORT ORDINAL="1913" NAME="?ImageMap@CPlatformData@CImage@@QBEPBUtagBITMAPINFO@@XZ" PURGE="0" COMMENT="" />
    <EXPORT ORDINAL="1914" NAME="?ImportFrom@CConversionNavigator@@UAEEPAV1@@Z" PURGE="4" COMMENT="" />
    <EXPORT ORDINAL="1915" NAME="?ImportFromCImage@CConversionNavigator@@UAEEPAVCImage@@@Z" PURGE="4" COMMENT="" />
    <EXPORT ORDINAL="1916" NAME="?InClosedRange@CRange@@QBEEM@Z" PURGE="4" COMMENT="" />
    <EXPORT ORDINAL="1917" NAME="?InClosedRange@CiRange@@QBEEJ@Z" PURGE="4" COMMENT="" />
    <EXPORT ORDINAL="1918" NAME="?InData@CPluginAppl@@QAEPADXZ" PURGE="0" COMMENT="" />
    <EXPORT ORDINAL="1919" NAME="?InOpenR@CRect@@QBEEABVC2Vector@@@Z" PURGE="4" COMMENT="" />
    <EXPORT ORDINAL="1920" NAME="?InOpenR@CiRect@@QBEEABVC2iVector@@@Z" PURGE="4" COMMENT="" />
    <EXPORT ORDINAL="1921" NAME="?InOpenRange@CRange@@QBEEM@Z" PURGE="4" COMMENT="" />
    <EXPORT ORDINAL="1922" NAME="?InOpenRange@CiRange@@QBEEJ@Z" PURGE="4" COMMENT="" />
    <EXPORT ORDINAL="1923" NAME="?InPlanes@CPlugin@@IAEAAVC2iVector@@XZ" PURGE="0" COMMENT="" />
    <EXPORT ORDINAL="1924" NAME="?InPlanes@CPluginAppl@@QAEAAVC2iVector@@XZ" PURGE="0" COMMENT="" />
    <EXPORT ORDINAL="1925" NAME="?InPool@CMemPool@@QBEEQAD@Z" PURGE="4" COMMENT="" />
    <EXPORT ORDINAL="1926" NAME="?InRowBytes@CPluginAppl@@QAEKXZ" PURGE="0" COMMENT="" />
    <EXPORT ORDINAL="1927" NAME="?Index@CDialogItem@@QAEKXZ" PURGE="0" COMMENT="" />
    <EXPORT ORDINAL="1928" NAME="?Info@CResourceFile@@QAEKKJPAEAAK@Z" PURGE="16" COMMENT="" />
    <EXPORT ORDINAL="1929" NAME="?Init@CTexture@@IAEEE@Z" PURGE="4" COMMENT="" />
    <EXPORT ORDINAL="1930" NAME="?InitGammaTable@CPDUtils@@SAXM@Z" PURGE="0" COMMENT="" />
    <EXPORT ORDINAL="1931" NAME="?InitTables@CTexture@@SAEXZ" PURGE="0" COMMENT="" />
    <EXPORT ORDINAL="1932" NAME="?Initialize@CBitmap@@SAEXZ" PURGE="0" COMMENT="" />
    <EXPORT ORDINAL="1933" NAME="?Initialize@CMaskPopupObject@@SAEJ@Z" PURGE="0" COMMENT="" />
    <EXPORT ORDINAL="1934" NAME="?Initialize@CMath@@SAEXZ" PURGE="0" COMMENT="" />
    <EXPORT ORDINAL="1935" NAME="?Initialize@CMemPool@@SAEKK@Z" PURGE="0" COMMENT="" />
    <EXPORT ORDINAL="1936" NAME="?Initialize@CMenu@@SAEJ@Z" PURGE="0" COMMENT="" />
    <EXPORT ORDINAL="1937" NAME="?Initialize@CPopupObject@@SAEJ@Z" PURGE="0" COMMENT="" />
    <EXPORT ORDINAL="1938" NAME="?Initialize@CWinAppl@@MAEEXZ" PURGE="0" COMMENT="" />
    <EXPORT ORDINAL="1939" NAME="?InputArea@CPlugin@@IAEAAVCiRect@@XZ" PURGE="0" COMMENT="" />
    <EXPORT ORDINAL="1940" NAME="?InputArea@CPluginAppl@@QAEAAVCiRect@@XZ" PURGE="0" COMMENT="" />
    <EXPORT ORDINAL="1941" NAME="?InputImage@CPlugin@@IAEPAVCConversionNavigator@@XZ" PURGE="0" COMMENT="" />
    <EXPORT ORDINAL="1942" NAME="?InputImage@CPluginAppl@@QAEPAVCConversionNavigator@@XZ" PURGE="0" COMMENT="" />
    <EXPORT ORDINAL="1943" NAME="?Insert@CCmFunction@@QAEEKPBVCCFEntry@@K@Z" PURGE="12" COMMENT="" />
    <EXPORT ORDINAL="1944" NAME="?Insert@CDynArray@@QAEEKJK@Z" PURGE="12" COMMENT="" />
    <EXPORT ORDINAL="1945" NAME="?Insert@CDynTable@@QAEEKQADK@Z" PURGE="12" COMMENT="" />
    <EXPORT ORDINAL="1946" NAME="?InsertSubMenu@CMenu@@QAEEPAXJPAEE@Z" PURGE="16" COMMENT="" />
    <EXPORT ORDINAL="1947" NAME="?InstallInterruptFn@CTexture@@SAXP6AEXZ@Z" PURGE="0" COMMENT="" />
    <EXPORT ORDINAL="1948" NAME="?InstallWiretap@CTexture@@QAEXPAKKW4EOutputType@1@@Z" PURGE="12" COMMENT="" />
    <EXPORT ORDINAL="1949" NAME="?InterruptionInQueue@CWinAppl@@UAEEXZ" PURGE="0" COMMENT="" />
    <EXPORT ORDINAL="1950" NAME="?Intersection@CRange@@SA?AV1@ABV1@0@Z" PURGE="0" COMMENT="" />
    <EXPORT ORDINAL="1951" NAME="?Intersection@CRect@@SA?AV1@ABV1@0@Z" PURGE="0" COMMENT="" />
    <EXPORT ORDINAL="1952" NAME="?Intersection@CRegion@@QAEEPAV1@0@Z" PURGE="8" COMMENT="" />
    <EXPORT ORDINAL="1953" NAME="?Intersection@CiRange@@SA?AV1@ABV1@0@Z" PURGE="0" COMMENT="" />
    <EXPORT ORDINAL="1954" NAME="?Intersection@CiRect@@SA?AV1@ABV1@0@Z" PURGE="0" COMMENT="" />
    <EXPORT ORDINAL="1955" NAME="?Intersects@CRegion@@QAEEAAVCiRect@@@Z" PURGE="4" COMMENT="" />
    <EXPORT ORDINAL="1956" NAME="?Invalidate@CCanvas@@UAEXPBVCiRect@@@Z" PURGE="4" COMMENT="" />
    <EXPORT ORDINAL="1957" NAME="?Invalidate@CDialogItem@@UAEXXZ" PURGE="0" COMMENT="" />
    <EXPORT ORDINAL="1958" NAME="?Inverse@C22Matrix@@QBE?AV1@XZ" PURGE="4" COMMENT="" />
    <EXPORT ORDINAL="1959" NAME="?Inverse@C23Affine@@QBE?AV1@XZ" PURGE="4" COMMENT="" />
    <EXPORT ORDINAL="1960" NAME="?Inverse@C33Matrix@@QBE?AV1@XZ" PURGE="4" COMMENT="" />
    <EXPORT ORDINAL="1961" NAME="?Inverse@C33iMatrix@@QBE?AV1@XZ" PURGE="4" COMMENT="" />
    <EXPORT ORDINAL="1962" NAME="?Inverse@C44Matrix@@QBE?AV1@XZ" PURGE="4" COMMENT="" />
    <EXPORT ORDINAL="1963" NAME="?Inverse@C44iMatrix@@QBE?AV1@XZ" PURGE="4" COMMENT="" />
    <EXPORT ORDINAL="1964" NAME="?InvertRect@CPDPort@@QAEXABVCiRect@@@Z" PURGE="4" COMMENT="" />
    <EXPORT ORDINAL="1965" NAME="?IsActive@CToggleButtonItem@@QAEEXZ" PURGE="0" COMMENT="" />
    <EXPORT ORDINAL="1966" NAME="?IsButtonDown@CMaskPopupObject@@IAEEXZ" PURGE="0" COMMENT="" />
    <EXPORT ORDINAL="1967" NAME="?IsButtonDown@CMenu@@IAEEXZ" PURGE="0" COMMENT="" />
    <EXPORT ORDINAL="1968" NAME="?IsButtonDown@CPDUtils@@SAEXZ" PURGE="0" COMMENT="" />
    <EXPORT ORDINAL="1969" NAME="?IsButtonDown@CPopupObject@@IAEEXZ" PURGE="0" COMMENT="" />
    <EXPORT ORDINAL="1970" NAME="?IsCheckable@CMenu@@QAEEPAUSMenuItem@1@@Z" PURGE="4" COMMENT="" />
    <EXPORT ORDINAL="1971" NAME="?IsChecked@CMenu@@QAEEK@Z" PURGE="4" COMMENT="" />
    <EXPORT ORDINAL="1972" NAME="?IsChecked@CMenu@@QAEEPAUSMenuItem@1@@Z" PURGE="4" COMMENT="" />
    <EXPORT ORDINAL="1973" NAME="?IsClipped@CGradient@@QAEEXZ" PURGE="0" COMMENT="" />
    <EXPORT ORDINAL="1974" NAME="?IsCurrentPort@CDialog@@IAEEPAX@Z" PURGE="4" COMMENT="" />
    <EXPORT ORDINAL="1975" NAME="?IsCurrentPort@CDialogItem@@IAEEPAX@Z" PURGE="4" COMMENT="" />
    <EXPORT ORDINAL="1976" NAME="?IsCurrentPort@CEditText@@IAEEPAX@Z" PURGE="4" COMMENT="" />
    <EXPORT ORDINAL="1977" NAME="?IsCurrentPort@CMaskPopupObject@@IAEEPAX@Z" PURGE="4" COMMENT="" />
    <EXPORT ORDINAL="1978" NAME="?IsCurrentPort@CMenu@@IAEEPAX@Z" PURGE="4" COMMENT="" />
    <EXPORT ORDINAL="1979" NAME="?IsCurrentPort@COffscreen@@IAEEPAX@Z" PURGE="4" COMMENT="" />
    <EXPORT ORDINAL="1980" NAME="?IsCurrentPort@CPDUtils@@SAEPAX@Z" PURGE="0" COMMENT="" />
    <EXPORT ORDINAL="1981" NAME="?IsCurrentPort@CPopupObject@@IAEEPAX@Z" PURGE="4" COMMENT="" />
    <EXPORT ORDINAL="1982" NAME="?IsDiscardable@CSpoolMem@@UBEEXZ" PURGE="0" COMMENT="" />
    <EXPORT ORDINAL="1983" NAME="?IsDoubleClick@CDialogItem@@QAEEK@Z" PURGE="4" COMMENT="" />
    <EXPORT ORDINAL="1984" NAME="?IsEnabled@CDialogItem@@QAEEXZ" PURGE="0" COMMENT="" />
    <EXPORT ORDINAL="1985" NAME="?IsEnabled@CMenu@@QAEEPAUSMenuItem@1@@Z" PURGE="4" COMMENT="" />
    <EXPORT ORDINAL="1986" NAME="?IsFront@CDialog@@UBEEXZ" PURGE="0" COMMENT="" />
    <EXPORT ORDINAL="1987" NAME="?IsFront@CDialogLayer@@QBEEPBVCDialog@@@Z" PURGE="4" COMMENT="" />
    <EXPORT ORDINAL="1988" NAME="?IsFrontLayer@CDialog@@UBEEXZ" PURGE="0" COMMENT="" />
    <EXPORT ORDINAL="1989" NAME="?IsGrayscale@CGradient@@QAEEXZ" PURGE="0" COMMENT="" />
    <EXPORT ORDINAL="1990" NAME="?IsGrayscale_@CGradient@@IAEEXZ" PURGE="0" COMMENT="" />
    <EXPORT ORDINAL="1991" NAME="?IsHCFSubscriber@CAppl@@UAEEJ@Z" PURGE="4" COMMENT="" />
    <EXPORT ORDINAL="1992" NAME="?IsHCFSubscriber@CPluginAppl@@UAEEJ@Z" PURGE="4" COMMENT="" />
    <EXPORT ORDINAL="1993" NAME="?IsHeld@CHolder@CSpoolMem@@QBEEXZ" PURGE="0" COMMENT="" />
    <EXPORT ORDINAL="1994" NAME="?IsHeld@CSpoolMem@@UBEEXZ" PURGE="0" COMMENT="" />
    <EXPORT ORDINAL="1995" NAME="?IsKeyPressed@CPDUtils@@SAEW4EKeyConstants@1@@Z" PURGE="0" COMMENT="" />
    <EXPORT ORDINAL="1996" NAME="?IsKeyPressed@CWinAppl@@UBEEF@Z" PURGE="4" COMMENT="" />
    <EXPORT ORDINAL="1997" NAME="?IsLoaded@CBitmap@@UAEEXZ" PURGE="0" COMMENT="" />
    <EXPORT ORDINAL="1998" NAME="?IsLoaded@CSpoolMem@@UBEEXZ" PURGE="0" COMMENT="" />
    <EXPORT ORDINAL="1999" NAME="?IsLocked@CFile@@QBEKAAE@Z" PURGE="4" COMMENT="" />
    <EXPORT ORDINAL="2000" NAME="?IsLocked@CUserParamStack@CNavProcess@@QAEEXZ" PURGE="0" COMMENT="" />
    <EXPORT ORDINAL="2001" NAME="?IsMRCFSubscriber@CAppl@@UAEEJ@Z" PURGE="4" COMMENT="" />
    <EXPORT ORDINAL="2002" NAME="?IsModal@CDialogLayer@@QAEEXZ" PURGE="0" COMMENT="" />
    <EXPORT ORDINAL="2003" NAME="?IsOn@CToggleButtonItem@@QAEEXZ" PURGE="0" COMMENT="" />
    <EXPORT ORDINAL="2004" NAME="?IsOnReadOnlyVolume@CFile@@QBEKAAE@Z" PURGE="4" COMMENT="" />
    <EXPORT ORDINAL="2005" NAME="?IsOpen@CFile@@QBEEXZ" PURGE="0" COMMENT="" />
    <EXPORT ORDINAL="2006" NAME="?IsOpen@CPlatformResFile@@QAEEXZ" PURGE="0" COMMENT="" />
    <EXPORT ORDINAL="2007" NAME="?IsParamsDirty@CNavProcess@@QAEEXZ" PURGE="0" COMMENT="" />
    <EXPORT ORDINAL="2008" NAME="?IsProcessDirty@CNavProcess@@QAEEXZ" PURGE="0" COMMENT="" />
    <EXPORT ORDINAL="2009" NAME="?IsRCFSubscriber@CAppl@@UAEEJ@Z" PURGE="4" COMMENT="" />
    <EXPORT ORDINAL="2010" NAME="?IsRCFSubscriber@CPluginAppl@@UAEEJ@Z" PURGE="4" COMMENT="" />
    <EXPORT ORDINAL="2011" NAME="?IsReadOnly@CFile@@QBEKAAE@Z" PURGE="4" COMMENT="" />
    <EXPORT ORDINAL="2012" NAME="?IsRunning@CAppl@@UBEEXZ" PURGE="0" COMMENT="" />
    <EXPORT ORDINAL="2013" NAME="?IsSECFSubscriber@CSpoolEnv@@UAEEPBVCSubscriber@1@@Z" PURGE="4" COMMENT="" />
    <EXPORT ORDINAL="2014" NAME="?IsSelected@CMemPool@@QBEEXZ" PURGE="0" COMMENT="" />
    <EXPORT ORDINAL="2015" NAME="?IsSelected@CMenu@@QAEEPAUSMenuItem@1@@Z" PURGE="4" COMMENT="" />
    <EXPORT ORDINAL="2016" NAME="?IsSuspended@CPluginAppl@@QAEEXZ" PURGE="0" COMMENT="" />
    <EXPORT ORDINAL="2017" NAME="?IsTapped@CTexture@@QBEEXZ" PURGE="0" COMMENT="" />
    <EXPORT ORDINAL="2018" NAME="?IsTarget@CPluginAppl@@QAEEK@Z" PURGE="4" COMMENT="" />
    <EXPORT ORDINAL="2019" NAME="?IsUICFSubscriber@CPluginAppl@@UAEEJ@Z" PURGE="4" COMMENT="" />
    <EXPORT ORDINAL="2020" NAME="?IsValid@CAppl@@UBEEXZ" PURGE="0" COMMENT="" />
    <EXPORT ORDINAL="2021" NAME="?IsValid@CBitmap@@UAEEXZ" PURGE="0" COMMENT="" />
    <EXPORT ORDINAL="2022" NAME="?IsValid@CCanvas@@QBEEXZ" PURGE="0" COMMENT="" />
    <EXPORT ORDINAL="2023" NAME="?IsValid@CDialog@@QBEEXZ" PURGE="0" COMMENT="" />
    <EXPORT ORDINAL="2024" NAME="?IsValid@CDialogItem@@QBEEXZ" PURGE="0" COMMENT="" />
    <EXPORT ORDINAL="2025" NAME="?IsValid@CEditText@@QAEEXZ" PURGE="0" COMMENT="" />
    <EXPORT ORDINAL="2026" NAME="?IsValid@CFadeAnimation@CImage@@QBEEXZ" PURGE="0" COMMENT="" />
    <EXPORT ORDINAL="2027" NAME="?IsValid@CGradient@@QBEEXZ" PURGE="0" COMMENT="" />
    <EXPORT ORDINAL="2028" NAME="?IsValid@CHolder@CSpoolMem@@QBEEXZ" PURGE="0" COMMENT="" />
    <EXPORT ORDINAL="2029" NAME="?IsValid@CImSwapper@@QBEEXZ" PURGE="0" COMMENT="" />
    <EXPORT ORDINAL="2030" NAME="?IsValid@CMaskPopupObject@@QAEEXZ" PURGE="0" COMMENT="" />
    <EXPORT ORDINAL="2031" NAME="?IsValid@CMemBlock@@QBEEXZ" PURGE="0" COMMENT="" />
    <EXPORT ORDINAL="2032" NAME="?IsValid@CMemPool@@QBEEXZ" PURGE="0" COMMENT="" />
    <EXPORT ORDINAL="2033" NAME="?IsValid@CMenu@@QAEEXZ" PURGE="0" COMMENT="" />
    <EXPORT ORDINAL="2034" NAME="?IsValid@CNavProcess@@QAEEXZ" PURGE="0" COMMENT="" />
    <EXPORT ORDINAL="2035" NAME="?IsValid@CNavigator@CMemBlock@@QBEEXZ" PURGE="0" COMMENT="" />
    <EXPORT ORDINAL="2036" NAME="?IsValid@COffscreen@@QAEEXZ" PURGE="0" COMMENT="" />
    <EXPORT ORDINAL="2037" NAME="?IsValid@CPlatformData@CImage@@QBEEXZ" PURGE="0" COMMENT="" />
    <EXPORT ORDINAL="2038" NAME="?IsValid@CPlatformResFile@@QAEEXZ" PURGE="0" COMMENT="" />
    <EXPORT ORDINAL="2039" NAME="?IsValid@CPlugin@@QBEEXZ" PURGE="0" COMMENT="" />
    <EXPORT ORDINAL="2040" NAME="?IsValid@CPluginAppl@@UBEEXZ" PURGE="0" COMMENT="" />
    <EXPORT ORDINAL="2041" NAME="?IsValid@CPluginManager@@QAEEXZ" PURGE="0" COMMENT="" />
    <EXPORT ORDINAL="2042" NAME="?IsValid@CPopupObject@@QAEEXZ" PURGE="0" COMMENT="" />
    <EXPORT ORDINAL="2043" NAME="?IsValid@CPrefsFile@@QBEEXZ" PURGE="0" COMMENT="" />
    <EXPORT ORDINAL="2044" NAME="?IsValid@CRegion@@QAEEXZ" PURGE="0" COMMENT="" />
    <EXPORT ORDINAL="2045" NAME="?IsValid@CResourceFile@@QAEEXZ" PURGE="0" COMMENT="" />
    <EXPORT ORDINAL="2046" NAME="?IsValid@CSaScanner@CSpoolArray@@QBEEXZ" PURGE="0" COMMENT="" />
    <EXPORT ORDINAL="2047" NAME="?IsValid@CScanner@CMemBlock@@QBEEXZ" PURGE="0" COMMENT="" />
    <EXPORT ORDINAL="2048" NAME="?IsValid@CScreenPort@@QAEEXZ" PURGE="0" COMMENT="" />
    <EXPORT ORDINAL="2049" NAME="?IsValid@CSgNavigator@CSpoolGrid@@QBEEXZ" PURGE="0" COMMENT="" />
    <EXPORT ORDINAL="2050" NAME="?IsValid@CSliderPopup@@QAEEXZ" PURGE="0" COMMENT="" />
    <EXPORT ORDINAL="2051" NAME="?IsValid@CSpoolEnv@@UBEEXZ" PURGE="0" COMMENT="" />
    <EXPORT ORDINAL="2052" NAME="?IsValid@CSpoolMem@@UBEEXZ" PURGE="0" COMMENT="" />
    <EXPORT ORDINAL="2053" NAME="?IsValid@CSubscriber@CSpoolEnv@@UBEEXZ" PURGE="0" COMMENT="" />
    <EXPORT ORDINAL="2054" NAME="?IsValid@CTextureProcess@@QAEEXZ" PURGE="0" COMMENT="" />
    <EXPORT ORDINAL="2055" NAME="?IsVisible@CDialogItem@@QAEEXZ" PURGE="0" COMMENT="" />
    <EXPORT ORDINAL="2056" NAME="?Key@CEditText@@QAEXC@Z" PURGE="4" COMMENT="" />
    <EXPORT ORDINAL="2057" NAME="?KeyDownsInQueue@CWinAppl@@UAEEXZ" PURGE="0" COMMENT="" />
    <EXPORT ORDINAL="2058" NAME="?KeyPressEventAvail@CPDUtils@@SAEXZ" PURGE="0" COMMENT="" />
    <EXPORT ORDINAL="2059" NAME="?LastItemChecked@CMenu@@QAEEXZ" PURGE="0" COMMENT="" />
    <EXPORT ORDINAL="2060" NAME="?LastItemIdentitySelected@CMenu@@QAEJXZ" PURGE="0" COMMENT="" />
    <EXPORT ORDINAL="2061" NAME="?LastItemIndexSelected@CMenu@@QAEKXZ" PURGE="0" COMMENT="" />
    <EXPORT ORDINAL="2062" NAME="?LastItemNameSelected@CMenu@@QAEPAEXZ" PURGE="0" COMMENT="" />
    <EXPORT ORDINAL="2063" NAME="?LastMenuSelected@CMenu@@QAEJXZ" PURGE="0" COMMENT="" />
    <EXPORT ORDINAL="2064" NAME="?Layer@CDialog@@QBEPAVCDialogLayer@@XZ" PURGE="0" COMMENT="" />
    <EXPORT ORDINAL="2065" NAME="?Layer@CPlugin@@UBEPAVCDialogLayer@@XZ" PURGE="0" COMMENT="" />
    <EXPORT ORDINAL="2066" NAME="?LayerID@CDialogLayer@@QAE?BJXZ" PURGE="0" COMMENT="" />
    <EXPORT ORDINAL="2067" NAME="?LayerProcID@CTexture@@QBEKXZ" PURGE="0" COMMENT="" />
    <EXPORT ORDINAL="2068" NAME="?Left@CMirrorNav@@QAEEXZ" PURGE="0" COMMENT="" />
    <EXPORT ORDINAL="2069" NAME="?Left@CNavigator@CMemBlock@@QAEEXZ" PURGE="0" COMMENT="" />
    <EXPORT ORDINAL="2070" NAME="?Left@CScanner@CMemBlock@@QAEEXZ" PURGE="0" COMMENT="" />
    <EXPORT ORDINAL="2071" NAME="?Left_@CNavigator@CMemBlock@@QAEEXZ" PURGE="0" COMMENT="" />
    <EXPORT ORDINAL="2072" NAME="?Left_@CScanner@CMemBlock@@QAEEXZ" PURGE="0" COMMENT="" />
    <EXPORT ORDINAL="2073" NAME="?Lerp@C2Vector@@SA?AV1@ABV1@00@Z" PURGE="0" COMMENT="" />
    <EXPORT ORDINAL="2074" NAME="?Lerp@C3Vector@@SA?AV1@ABV1@00@Z" PURGE="0" COMMENT="" />
    <EXPORT ORDINAL="2075" NAME="?Lerp@C4Vector@@SA?AV1@ABV1@00@Z" PURGE="0" COMMENT="" />
    <EXPORT ORDINAL="2076" NAME="?Lerp@CRange@@SA?AV1@ABV1@00@Z" PURGE="0" COMMENT="" />
    <EXPORT ORDINAL="2077" NAME="?Lerp@CRect@@SA?AV1@ABV1@00@Z" PURGE="0" COMMENT="" />
    <EXPORT ORDINAL="2078" NAME="?Lighten@CImVector64@@SAXPAV1@00@Z" PURGE="0" COMMENT="" />
    <EXPORT ORDINAL="2079" NAME="?Lighten@CImVector64@@SAXPAV1@00K@Z" PURGE="0" COMMENT="" />
    <EXPORT ORDINAL="2080" NAME="?Limit@CScanner@CMemBlock@@QBEKXZ" PURGE="0" COMMENT="" />
    <EXPORT ORDINAL="2081" NAME="?LimitX@CNavigator@CMemBlock@@QBEKXZ" PURGE="0" COMMENT="" />
    <EXPORT ORDINAL="2082" NAME="?LimitY@CNavigator@CMemBlock@@QBEKXZ" PURGE="0" COMMENT="" />
    <EXPORT ORDINAL="2083" NAME="?Line@CPDPort@@QAEXJJ@Z" PURGE="8" COMMENT="" />
    <EXPORT ORDINAL="2084" NAME="?LineTo@CPDPort@@QAEXJJ@Z" PURGE="8" COMMENT="" />
    <EXPORT ORDINAL="2085" NAME="?LinearCH@CFrImNavigator@CImage@@QBEXPAVCImVector64@@MMPBVCImVector@@KM@Z" PURGE="24" COMMENT="" />
    <EXPORT ORDINAL="2086" NAME="?LinearCH@CFrImNavigator@CImage@@QBEXPAVCImVector64@@PBVCImVector@@KM@Z" PURGE="16" COMMENT="" />
    <EXPORT ORDINAL="2087" NAME="?LinearCH@CFrImNavigator@CImage@@QBEXPAVCImVector@@MMPBV3@KM@Z" PURGE="24" COMMENT="" />
    <EXPORT ORDINAL="2088" NAME="?LinearCH@CFrImNavigator@CImage@@QBEXPAVCImVector@@PBV3@KM@Z" PURGE="16" COMMENT="" />
    <EXPORT ORDINAL="2089" NAME="?LinearCS@CFrImNavigator@CImage@@QBEXPAVCImVector64@@MMPBVCImVector@@KM@Z" PURGE="24" COMMENT="" />
    <EXPORT ORDINAL="2090" NAME="?LinearCS@CFrImNavigator@CImage@@QBEXPAVCImVector64@@PBVCImVector@@KM@Z" PURGE="16" COMMENT="" />
    <EXPORT ORDINAL="2091" NAME="?LinearCS@CFrImNavigator@CImage@@QBEXPAVCImVector@@MMPBV3@KM@Z" PURGE="24" COMMENT="" />
    <EXPORT ORDINAL="2092" NAME="?LinearCS@CFrImNavigator@CImage@@QBEXPAVCImVector@@PBV3@KM@Z" PURGE="16" COMMENT="" />
    <EXPORT ORDINAL="2093" NAME="?LinearH_@CFrImNavigator@CImage@@QBEXPAVCImVector64@@MMPBVCImVector@@KM@Z" PURGE="24" COMMENT="" />
    <EXPORT ORDINAL="2094" NAME="?LinearH_@CFrImNavigator@CImage@@QBEXPAVCImVector64@@PBVCImVector@@KM@Z" PURGE="16" COMMENT="" />
    <EXPORT ORDINAL="2095" NAME="?LinearH_@CFrImNavigator@CImage@@QBEXPAVCImVector@@MMPBV3@KM@Z" PURGE="24" COMMENT="" />
    <EXPORT ORDINAL="2096" NAME="?LinearH_@CFrImNavigator@CImage@@QBEXPAVCImVector@@PBV3@KM@Z" PURGE="16" COMMENT="" />
    <EXPORT ORDINAL="2097" NAME="?LinearR_@CFrImNavigator@CImage@@QBEXPAVCImVector64@@MMPBVCImVector@@KM@Z" PURGE="24" COMMENT="" />
    <EXPORT ORDINAL="2098" NAME="?LinearR_@CFrImNavigator@CImage@@QBEXPAVCImVector64@@PBVCImVector@@KM@Z" PURGE="16" COMMENT="" />
    <EXPORT ORDINAL="2099" NAME="?LinearR_@CFrImNavigator@CImage@@QBEXPAVCImVector@@MMPBV3@KM@Z" PURGE="24" COMMENT="" />
    <EXPORT ORDINAL="2100" NAME="?LinearR_@CFrImNavigator@CImage@@QBEXPAVCImVector@@PBV3@KM@Z" PURGE="16" COMMENT="" />
    <EXPORT ORDINAL="2101" NAME="?LinearS_@CFrImNavigator@CImage@@QBEXPAVCImVector64@@MMPBVCImVector@@KM@Z" PURGE="24" COMMENT="" />
    <EXPORT ORDINAL="2102" NAME="?LinearS_@CFrImNavigator@CImage@@QBEXPAVCImVector64@@PBVCImVector@@KM@Z" PURGE="16" COMMENT="" />
    <EXPORT ORDINAL="2103" NAME="?LinearS_@CFrImNavigator@CImage@@QBEXPAVCImVector@@MMPBV3@KM@Z" PURGE="24" COMMENT="" />
    <EXPORT ORDINAL="2104" NAME="?LinearS_@CFrImNavigator@CImage@@QBEXPAVCImVector@@PBV3@KM@Z" PURGE="16" COMMENT="" />
    <EXPORT ORDINAL="2105" NAME="?Linearize@CGradient@@QAEXXZ" PURGE="0" COMMENT="" />
    <EXPORT ORDINAL="2106" NAME="?LinearizeAlpha@CGradient@@QAEXXZ" PURGE="0" COMMENT="" />
    <EXPORT ORDINAL="2107" NAME="?Load@CBitmap@@UAEEXZ" PURGE="0" COMMENT="" />
    <EXPORT ORDINAL="2108" NAME="?LoadFromFile@CBitmap@@QAEEABUFSSpec@@@Z" PURGE="4" COMMENT="" />
    <EXPORT ORDINAL="2109" NAME="?LoadFromRsrc@CGradient@@QAEEJ@Z" PURGE="4" COMMENT="" />
    <EXPORT ORDINAL="2110" NAME="?LoadItemTable@CResourceFile@@IAEKK@Z" PURGE="4" COMMENT="" />
    <EXPORT ORDINAL="2111" NAME="?LoadMenuA@CMenu@@QAEEJ@Z" PURGE="4" COMMENT="" />
    <EXPORT ORDINAL="2112" NAME="?LoadRandomGradient@CTextureProcess@@QAEEAAVCResourceFile@@J@Z" PURGE="8" COMMENT="" />
    <EXPORT ORDINAL="2113" NAME="?LoadResText@CEditText@@QAEEJ@Z" PURGE="4" COMMENT="" />
    <EXPORT ORDINAL="2114" NAME="?LoadStatusTable@CDialog@@MAEEJ@Z" PURGE="4" COMMENT="" />
    <EXPORT ORDINAL="2115" NAME="?LoadStringA@CStaticTextItem@@QAEEJ@Z" PURGE="4" COMMENT="" />
    <EXPORT ORDINAL="2116" NAME="?LoadSubMenu@CMenu@@QAEEPAUSMenuItem@1@@Z" PURGE="4" COMMENT="" />
    <EXPORT ORDINAL="2117" NAME="?LoadTitle@CMenu@@QAEEJ@Z" PURGE="4" COMMENT="" />
    <EXPORT ORDINAL="2118" NAME="?LoadTitle@CPopupMenuItem@@QAEEJJ@Z" PURGE="8" COMMENT="" />
    <EXPORT ORDINAL="2119" NAME="?Local@CCanvas@@UBEABVCiRect@@XZ" PURGE="0" COMMENT="" />
    <EXPORT ORDINAL="2120" NAME="?LocalToAxiomDesktop@CCanvas@@UBE?AVC2iVector@@ABV2@@Z" PURGE="8" COMMENT="" />
    <EXPORT ORDINAL="2121" NAME="?Location@CDialogItem@@QAEAAVCiRect@@XZ" PURGE="0" COMMENT="" />
    <EXPORT ORDINAL="2122" NAME="?Lock@COffscreen@@QAEEE@Z" PURGE="4" COMMENT="" />
    <EXPORT ORDINAL="2123" NAME="?Lock@CUserParamStack@CNavProcess@@QAEXE@Z" PURGE="4" COMMENT="" />
    <EXPORT ORDINAL="2124" NAME="?LockUndo@CNavProcess@@QAEXE@Z" PURGE="4" COMMENT="" />
    <EXPORT ORDINAL="2125" NAME="?LogicalActiveArea@CImage@@UBE?AVCiRect@@XZ" PURGE="4" COMMENT="" />
    <EXPORT ORDINAL="2126" NAME="?LogicalOrigin@CImage@@UBE?AVC2iVector@@XZ" PURGE="4" COMMENT="" />
    <EXPORT ORDINAL="2127" NAME="?Low@CRange@@QBEMXZ" PURGE="0" COMMENT="" />
    <EXPORT ORDINAL="2128" NAME="?Low@CiRange@@QBEJXZ" PURGE="0" COMMENT="" />
    <EXPORT ORDINAL="2129" NAME="?MRCFIdToEntry@CAppl@@IAEPAVCCFEntry@@J@Z" PURGE="4" COMMENT="" />
    <EXPORT ORDINAL="2130" NAME="?MRCFProc@CSpoolEnv@@KAJPAV1@PBVCCFEntryParms@@PAVCCFEntryData@@@Z" PURGE="0" COMMENT="" />
    <EXPORT ORDINAL="2131" NAME="?MRCFUnsorted@CAppl@@UBEEXZ" PURGE="0" COMMENT="" />
    <EXPORT ORDINAL="2132" NAME="?Mag@C2Vector@@QBEMXZ" PURGE="0" COMMENT="" />
    <EXPORT ORDINAL="2133" NAME="?Mag@C2iVector@@QBEJXZ" PURGE="0" COMMENT="" />
    <EXPORT ORDINAL="2134" NAME="?Mag@C3Vector@@QBEMXZ" PURGE="0" COMMENT="" />
    <EXPORT ORDINAL="2135" NAME="?Mag@C3iVector@@QBEJXZ" PURGE="0" COMMENT="" />
    <EXPORT ORDINAL="2136" NAME="?Mag@C4Vector@@QBEMXZ" PURGE="0" COMMENT="" />
    <EXPORT ORDINAL="2137" NAME="?Mag@C4iVector@@QBEJXZ" PURGE="0" COMMENT="" />
    <EXPORT ORDINAL="2138" NAME="?Magnitude@CRange@@QBEMXZ" PURGE="0" COMMENT="" />
    <EXPORT ORDINAL="2139" NAME="?Magnitude@CiRange@@QBEJXZ" PURGE="0" COMMENT="" />
    <EXPORT ORDINAL="2140" NAME="?Magoid@C2Vector@@QBEMXZ" PURGE="0" COMMENT="" />
    <EXPORT ORDINAL="2141" NAME="?Magoid@C2iVector@@QBEJXZ" PURGE="0" COMMENT="" />
    <EXPORT ORDINAL="2142" NAME="?Magoid@C3Vector@@QBEMXZ" PURGE="0" COMMENT="" />
    <EXPORT ORDINAL="2143" NAME="?Magoid@C3iVector@@QBEJXZ" PURGE="0" COMMENT="" />
    <EXPORT ORDINAL="2144" NAME="?Magoid@C4Vector@@QBEMXZ" PURGE="0" COMMENT="" />
    <EXPORT ORDINAL="2145" NAME="?Magoid@C4iVector@@QBEJXZ" PURGE="0" COMMENT="" />
    <EXPORT ORDINAL="2146" NAME="?MakeARGB@CImVector@@SAKEEEE@Z" PURGE="0" COMMENT="" />
    <EXPORT ORDINAL="2147" NAME="?MakeLeafNode@CTexture@@QAEEK@Z" PURGE="4" COMMENT="" />
    <EXPORT ORDINAL="2148" NAME="?MakeRGB@CImVector@@SAKEEE@Z" PURGE="0" COMMENT="" />
    <EXPORT ORDINAL="2149" NAME="?MakeSame@CMemBlock@@QAEEABV1@@Z" PURGE="4" COMMENT="" />
    <EXPORT ORDINAL="2150" NAME="?MakeSame@CSpoolMem@@UAEEABV1@@Z" PURGE="4" COMMENT="" />
    <EXPORT ORDINAL="2151" NAME="?MakeSameSize@CMemBlock@@QAEEABV1@E@Z" PURGE="8" COMMENT="" />
    <EXPORT ORDINAL="2152" NAME="?MakeSameSize@CSpoolMem@@UAEEABV1@E@Z" PURGE="8" COMMENT="" />
    <EXPORT ORDINAL="2153" NAME="?MakeShadow@CImage@@UAEPAV1@ABVCShadowData@1@@Z" PURGE="4" COMMENT="" />
    <EXPORT ORDINAL="2154" NAME="?MakeTLTex@CSimpleTexture@CTexture@@QBEEAAPAV2@E@Z" PURGE="8" COMMENT="" />
    <EXPORT ORDINAL="2155" NAME="?MakeTLTex@CSimpleTexture@CTexture@@QBEPAV2@XZ" PURGE="0" COMMENT="" />
    <EXPORT ORDINAL="2156" NAME="?MakeTemporarySpec@CFile@@SAKAAUFSSpec@@@Z" PURGE="0" COMMENT="" />
    <EXPORT ORDINAL="2157" NAME="?MakeTemporarySpecSimilarTo@CFile@@SAKABUFSSpec@@AAU2@@Z" PURGE="0" COMMENT="" />
    <EXPORT ORDINAL="2158" NAME="?MakeVisible@CDialogItem@@QAEXEE@Z" PURGE="8" COMMENT="" />
    <EXPORT ORDINAL="2159" NAME="?Map@CScanner@CMemBlock@@QBEKJ@Z" PURGE="4" COMMENT="" />
    <EXPORT ORDINAL="2160" NAME="?MapFontSpace@CPDPort@@IAEXAAF00@Z" PURGE="12" COMMENT="" />
    <EXPORT ORDINAL="2161" NAME="?MapRect@CPDUtils@@SAXABVC2iVector@@AAVCiRect@@@Z" PURGE="0" COMMENT="" />
    <EXPORT ORDINAL="2162" NAME="?MapUHard@CFrImNavigator@CImage@@QBEMMM@Z" PURGE="8" COMMENT="" />
    <EXPORT ORDINAL="2163" NAME="?MapUHard_f@CFrImNavigator@CImage@@QBEMM@Z" PURGE="4" COMMENT="" />
    <EXPORT ORDINAL="2164" NAME="?MapUSoft@CFrImNavigator@CImage@@QBEMMM@Z" PURGE="8" COMMENT="" />
    <EXPORT ORDINAL="2165" NAME="?MapUSoft_f@CFrImNavigator@CImage@@QBEMM@Z" PURGE="4" COMMENT="" />
    <EXPORT ORDINAL="2166" NAME="?MapVHard@CFrImNavigator@CImage@@QBEMMM@Z" PURGE="8" COMMENT="" />
    <EXPORT ORDINAL="2167" NAME="?MapVHard_f@CFrImNavigator@CImage@@QBEMM@Z" PURGE="4" COMMENT="" />
    <EXPORT ORDINAL="2168" NAME="?MapVSoft@CFrImNavigator@CImage@@QBEMMM@Z" PURGE="8" COMMENT="" />
    <EXPORT ORDINAL="2169" NAME="?MapVSoft_f@CFrImNavigator@CImage@@QBEMM@Z" PURGE="4" COMMENT="" />
    <EXPORT ORDINAL="2170" NAME="?MapX@CNavigator@CMemBlock@@QBEKJ@Z" PURGE="4" COMMENT="" />
    <EXPORT ORDINAL="2171" NAME="?MapXHard@CFrImNavigator@CImage@@QBEMJM@Z" PURGE="8" COMMENT="" />
    <EXPORT ORDINAL="2172" NAME="?MapXHard_f@CFrImNavigator@CImage@@QBEMJ@Z" PURGE="4" COMMENT="" />
    <EXPORT ORDINAL="2173" NAME="?MapXSoft@CFrImNavigator@CImage@@QBEMJM@Z" PURGE="8" COMMENT="" />
    <EXPORT ORDINAL="2174" NAME="?MapXSoft_f@CFrImNavigator@CImage@@QBEMJ@Z" PURGE="4" COMMENT="" />
    <EXPORT ORDINAL="2175" NAME="?MapX_@CNavigator@CMemBlock@@QBEKJ@Z" PURGE="4" COMMENT="" />
    <EXPORT ORDINAL="2176" NAME="?MapY@CNavigator@CMemBlock@@QBEKJ@Z" PURGE="4" COMMENT="" />
    <EXPORT ORDINAL="2177" NAME="?MapYHard@CFrImNavigator@CImage@@QBEMJM@Z" PURGE="8" COMMENT="" />
    <EXPORT ORDINAL="2178" NAME="?MapYHard_f@CFrImNavigator@CImage@@QBEMJ@Z" PURGE="4" COMMENT="" />
    <EXPORT ORDINAL="2179" NAME="?MapYSoft@CFrImNavigator@CImage@@QBEMJM@Z" PURGE="8" COMMENT="" />
    <EXPORT ORDINAL="2180" NAME="?MapYSoft_f@CFrImNavigator@CImage@@QBEMJ@Z" PURGE="4" COMMENT="" />
    <EXPORT ORDINAL="2181" NAME="?MapY_@CNavigator@CMemBlock@@QBEKJ@Z" PURGE="4" COMMENT="" />
    <EXPORT ORDINAL="2182" NAME="?Map_@CScanner@CMemBlock@@QBEKJ@Z" PURGE="4" COMMENT="" />
    <EXPORT ORDINAL="2183" NAME="?MarkDirty@CNavProcess@@UAEXE@Z" PURGE="4" COMMENT="" />
    <EXPORT ORDINAL="2184" NAME="?MaskArea@CPlugin@@IAEAAVCiRect@@XZ" PURGE="0" COMMENT="" />
    <EXPORT ORDINAL="2185" NAME="?MaskArea@CPluginAppl@@QAEAAVCiRect@@XZ" PURGE="0" COMMENT="" />
    <EXPORT ORDINAL="2186" NAME="?MaskData@CPluginAppl@@QAEPADXZ" PURGE="0" COMMENT="" />
    <EXPORT ORDINAL="2187" NAME="?MaskExists@CPlugin@@IAEEXZ" PURGE="0" COMMENT="" />
    <EXPORT ORDINAL="2188" NAME="?MaskExists@CPluginAppl@@QAEEXZ" PURGE="0" COMMENT="" />
    <EXPORT ORDINAL="2189" NAME="?MaskImage@CPlugin@@IAEPAVCConversionNavigator@@XZ" PURGE="0" COMMENT="" />
    <EXPORT ORDINAL="2190" NAME="?MaskImage@CPluginAppl@@QAEPAVCConversionNavigator@@XZ" PURGE="0" COMMENT="" />
    <EXPORT ORDINAL="2191" NAME="?MaskRowBytes@CPluginAppl@@QAEKXZ" PURGE="0" COMMENT="" />
    <EXPORT ORDINAL="2192" NAME="?MaxVelocity@CUniMotion@@QBEMXZ" PURGE="0" COMMENT="" />
    <EXPORT ORDINAL="2193" NAME="?Maximize@C2Vector@@QAEXABV1@@Z" PURGE="4" COMMENT="" />
    <EXPORT ORDINAL="2194" NAME="?Maximize@C2iVector@@QAEXABV1@@Z" PURGE="4" COMMENT="" />
    <EXPORT ORDINAL="2195" NAME="?Maximize@C3Vector@@QAEXABV1@@Z" PURGE="4" COMMENT="" />
    <EXPORT ORDINAL="2196" NAME="?Maximize@C3iVector@@QAEXABV1@@Z" PURGE="4" COMMENT="" />
    <EXPORT ORDINAL="2197" NAME="?Maximize@C4Vector@@QAEXABV1@@Z" PURGE="4" COMMENT="" />
    <EXPORT ORDINAL="2198" NAME="?Maximize@C4iVector@@QAEXABV1@@Z" PURGE="4" COMMENT="" />
    <EXPORT ORDINAL="2199" NAME="?Maximize@CRange@@QAEXABV1@@Z" PURGE="4" COMMENT="" />
    <EXPORT ORDINAL="2200" NAME="?Maximize@CRect@@QAEXABV1@@Z" PURGE="4" COMMENT="" />
    <EXPORT ORDINAL="2201" NAME="?Maximize@CiRange@@QAEXABV1@@Z" PURGE="4" COMMENT="" />
    <EXPORT ORDINAL="2202" NAME="?Maximize@CiRect@@QAEXABV1@@Z" PURGE="4" COMMENT="" />
    <EXPORT ORDINAL="2203" NAME="?MemBlock@CNavigator@CMemBlock@@QBEPAV2@XZ" PURGE="0" COMMENT="" />
    <EXPORT ORDINAL="2204" NAME="?MemBlock@CScanner@CMemBlock@@QBEPAV2@XZ" PURGE="0" COMMENT="" />
    <EXPORT ORDINAL="2205" NAME="?MemCompare@CMemPool@@SAJQAD0K@Z" PURGE="0" COMMENT="" />
    <EXPORT ORDINAL="2206" NAME="?MemCopy@CMemPool@@SAXPADQADK@Z" PURGE="0" COMMENT="" />
    <EXPORT ORDINAL="2207" NAME="?MemRecoverCF@CAppl@@UAEAAVCCmFunction@@XZ" PURGE="0" COMMENT="" />
    <EXPORT ORDINAL="2208" NAME="?MemSet@CMemPool@@SAXPADEK@Z" PURGE="0" COMMENT="" />
    <EXPORT ORDINAL="2209" NAME="?MemZero@CMemPool@@SAXPADK@Z" PURGE="0" COMMENT="" />
    <EXPORT ORDINAL="2210" NAME="?Menu@CPopupMenuItem@@QAEAAVCMenu@@XZ" PURGE="0" COMMENT="" />
    <EXPORT ORDINAL="2211" NAME="?MenuFlags@CMenu@@QAEKXZ" PURGE="0" COMMENT="" />
    <EXPORT ORDINAL="2212" NAME="?MicroSeconds@CTimer@@QBEKXZ" PURGE="0" COMMENT="" />
    <EXPORT ORDINAL="2213" NAME="?MilliSeconds@CTimer@@QBEKXZ" PURGE="-1" COMMENT="" />
    <EXPORT ORDINAL="2214" NAME="?Minimize@C2Vector@@QAEXABV1@@Z" PURGE="4" COMMENT="" />
    <EXPORT ORDINAL="2215" NAME="?Minimize@C2iVector@@QAEXABV1@@Z" PURGE="4" COMMENT="" />
    <EXPORT ORDINAL="2216" NAME="?Minimize@C3Vector@@QAEXABV1@@Z" PURGE="4" COMMENT="" />
    <EXPORT ORDINAL="2217" NAME="?Minimize@C3iVector@@QAEXABV1@@Z" PURGE="4" COMMENT="" />
    <EXPORT ORDINAL="2218" NAME="?Minimize@C4Vector@@QAEXABV1@@Z" PURGE="4" COMMENT="" />
    <EXPORT ORDINAL="2219" NAME="?Minimize@C4iVector@@QAEXABV1@@Z" PURGE="4" COMMENT="" />
    <EXPORT ORDINAL="2220" NAME="?Minimize@CRange@@QAEXABV1@@Z" PURGE="4" COMMENT="" />
    <EXPORT ORDINAL="2221" NAME="?Minimize@CRect@@QAEXABV1@@Z" PURGE="4" COMMENT="" />
    <EXPORT ORDINAL="2222" NAME="?Minimize@CiRange@@QAEXABV1@@Z" PURGE="4" COMMENT="" />
    <EXPORT ORDINAL="2223" NAME="?Minimize@CiRect@@QAEXABV1@@Z" PURGE="4" COMMENT="" />
    <EXPORT ORDINAL="2224" NAME="?MirrorOffsetX@CMirrorNav@@QAEKJ@Z" PURGE="4" COMMENT="" />
    <EXPORT ORDINAL="2225" NAME="?MirrorOffsetY@CMirrorNav@@QAEKJ@Z" PURGE="4" COMMENT="" />
    <EXPORT ORDINAL="2226" NAME="?ModifyStatusString@CDialogItem@@UAEEPAE@Z" PURGE="4" COMMENT="" />
    <EXPORT ORDINAL="2227" NAME="?ModifyStatusString@CEffectItem@@UAEEPAE@Z" PURGE="4" COMMENT="" />
    <EXPORT ORDINAL="2228" NAME="?ModifyStatusString@CGlueItem@@UAEEPAE@Z" PURGE="4" COMMENT="" />
    <EXPORT ORDINAL="2229" NAME="?ModifyStatusString@COpacityItem@@UAEEPAE@Z" PURGE="4" COMMENT="" />
    <EXPORT ORDINAL="2230" NAME="?ModifyStatusString@CPopupMenuItem@@UAEEPAE@Z" PURGE="4" COMMENT="" />
    <EXPORT ORDINAL="2231" NAME="?ModifyStatusString@CRotationItem@@UAEEPAE@Z" PURGE="4" COMMENT="" />
    <EXPORT ORDINAL="2232" NAME="?ModifyStatusString@CSliderItem@@UAEEPAE@Z" PURGE="4" COMMENT="" />
    <EXPORT ORDINAL="2233" NAME="?ModifyStatusString@CSliderWidgetItem@@UAEEPAE@Z" PURGE="4" COMMENT="" />
    <EXPORT ORDINAL="2234" NAME="?MostRecentAccess@CSpoolMem@@UBEKXZ" PURGE="0" COMMENT="" />
    <EXPORT ORDINAL="2235" NAME="?MouseClickEventAvail@CPDUtils@@SAEPAVC2iVector@@@Z" PURGE="0" COMMENT="" />
    <EXPORT ORDINAL="2236" NAME="?MouseDownsInQueue@CWinAppl@@UAEEXZ" PURGE="0" COMMENT="" />
    <EXPORT ORDINAL="2237" NAME="?MouseHysteresis@CPDUtils@@SAJJKPAVC2iVector@@@Z" PURGE="0" COMMENT="" />
    <EXPORT ORDINAL="2238" NAME="?Move@CUniMotion@@AAEXXZ" PURGE="0" COMMENT="" />
    <EXPORT ORDINAL="2239" NAME="?MoveTo@CCanvas@@UAEEABVC2iVector@@@Z" PURGE="4" COMMENT="" />
    <EXPORT ORDINAL="2240" NAME="?MoveTo@CPDPort@@QAEXJJ@Z" PURGE="8" COMMENT="" />
    <EXPORT ORDINAL="2241" NAME="?Moving@CUniMotion@@QBEEXZ" PURGE="0" COMMENT="" />
    <EXPORT ORDINAL="2242" NAME="?Multiply@CImVector64@@SAXPAV1@00@Z" PURGE="0" COMMENT="" />
    <EXPORT ORDINAL="2243" NAME="?Multiply@CImVector64@@SAXPAV1@00K@Z" PURGE="0" COMMENT="" />
    <EXPORT ORDINAL="2244" NAME="?Multiply@CImVector@@QAEXPBV1@@Z" PURGE="4" COMMENT="" />
    <EXPORT ORDINAL="2245" NAME="?MultiplyIVs@CImage@@UAEEPAV1@0@Z" PURGE="8" COMMENT="" />
    <EXPORT ORDINAL="2246" NAME="?MultiplyIVs@CImage@@UAEEPAV1@@Z" PURGE="4" COMMENT="" />
    <EXPORT ORDINAL="2247" NAME="?MultiplyIVsRGB@CImage@@UAEEPAV1@0@Z" PURGE="8" COMMENT="" />
    <EXPORT ORDINAL="2248" NAME="?MultiplyIVsRGB@CImage@@UAEEPAV1@@Z" PURGE="4" COMMENT="" />
    <EXPORT ORDINAL="2249" NAME="?MultiplyRGB@CImVector@@QAEXPBV1@@Z" PURGE="4" COMMENT="" />
    <EXPORT ORDINAL="2250" NAME="?MultiplyRGB_@CImVector@@IAEXPBV1@@Z" PURGE="4" COMMENT="" />
    <EXPORT ORDINAL="2251" NAME="?Multiply_@CImVector@@IAEXPBV1@@Z" PURGE="4" COMMENT="" />
    <EXPORT ORDINAL="2252" NAME="?MungeAdd@CNavProcess@@KAXPAE0JJK@Z" PURGE="0" COMMENT="" />
    <EXPORT ORDINAL="2253" NAME="?MungeAddCarry@CNavProcess@@KAXPAE0JJK@Z" PURGE="0" COMMENT="" />
    <EXPORT ORDINAL="2254" NAME="?MungeDarken@CNavProcess@@KAXPAE0JJK@Z" PURGE="0" COMMENT="" />
    <EXPORT ORDINAL="2255" NAME="?MungeDifference@CNavProcess@@KAXPAE0JJK@Z" PURGE="0" COMMENT="" />
    <EXPORT ORDINAL="2256" NAME="?MungeLighten@CNavProcess@@KAXPAE0JJK@Z" PURGE="0" COMMENT="" />
    <EXPORT ORDINAL="2257" NAME="?MungeLogAND@CNavProcess@@KAXPAE0JJK@Z" PURGE="0" COMMENT="" />
    <EXPORT ORDINAL="2258" NAME="?MungeLogOR@CNavProcess@@KAXPAE0JJK@Z" PURGE="0" COMMENT="" />
    <EXPORT ORDINAL="2259" NAME="?MungeLogXOR@CNavProcess@@KAXPAE0JJK@Z" PURGE="0" COMMENT="" />
    <EXPORT ORDINAL="2260" NAME="?MungeMultiply@CNavProcess@@KAXPAE0JJK@Z" PURGE="0" COMMENT="" />
    <EXPORT ORDINAL="2261" NAME="?MungeNorm@CNavProcess@@KAXPAE0JJK@Z" PURGE="0" COMMENT="" />
    <EXPORT ORDINAL="2262" NAME="?MungeProcedural@CNavProcess@@KAXPAE0JJK@Z" PURGE="0" COMMENT="" />
    <EXPORT ORDINAL="2263" NAME="?MungeReverse@CNavProcess@@KAXPAE0JJK@Z" PURGE="0" COMMENT="" />
    <EXPORT ORDINAL="2264" NAME="?MungeScreen@CNavProcess@@KAXPAE0JJK@Z" PURGE="0" COMMENT="" />
    <EXPORT ORDINAL="2265" NAME="?MungeSubCarry@CNavProcess@@KAXPAE0JJK@Z" PURGE="0" COMMENT="" />
    <EXPORT ORDINAL="2266" NAME="?MungeSubtract@CNavProcess@@KAXPAE0JJK@Z" PURGE="0" COMMENT="" />
    <EXPORT ORDINAL="2267" NAME="?Mutate@CSimpleTexture@CTexture@@QAEXMW4EMutateFlags@12@@Z" PURGE="8" COMMENT="" />
    <EXPORT ORDINAL="2268" NAME="?MutateColors@CSimpleTexture@CTexture@@QAEXXZ" PURGE="0" COMMENT="" />
    <EXPORT ORDINAL="2269" NAME="?MutateCousins@CSimpleTexture@CTexture@@QAEXXZ" PURGE="0" COMMENT="" />
    <EXPORT ORDINAL="2270" NAME="?NameSearchProc@CMenuItemTable@CMenu@@SAJPBUSMenuItem@2@PAD@Z" PURGE="0" COMMENT="" />
    <EXPORT ORDINAL="2271" NAME="?NameSearchProc@CResItemTable@CResourceFile@@SAJPBUSResTableItem@12@PAD@Z" PURGE="0" COMMENT="" />
    <EXPORT ORDINAL="2272" NAME="?NameSortProc@CMenuItemTable@CMenu@@SAJPBUSMenuItem@2@0@Z" PURGE="0" COMMENT="" />
    <EXPORT ORDINAL="2273" NAME="?NavigateE@CCmFile@@IAEKAAUSEntry@1@AAK11@Z" PURGE="16" COMMENT="" />
    <EXPORT ORDINAL="2274" NAME="?Navigator@CImSwapper@@QBEPAVCImNavigator@CImage@@XZ" PURGE="0" COMMENT="" />
    <EXPORT ORDINAL="2275" NAME="?Navigators@CMemBlock@@QBEKXZ" PURGE="0" COMMENT="" />
    <EXPORT ORDINAL="2276" NAME="?NearestC_@CFrImNavigator@CImage@@QBEXPAVCImVector@@MMPBV3@KM@Z" PURGE="24" COMMENT="" />
    <EXPORT ORDINAL="2277" NAME="?NearestC_@CFrImNavigator@CImage@@QBEXPAVCImVector@@PBV3@KM@Z" PURGE="16" COMMENT="" />
    <EXPORT ORDINAL="2278" NAME="?NearestR_@CFrImNavigator@CImage@@QBEXPAVCImVector@@MMPBV3@KM@Z" PURGE="24" COMMENT="" />
    <EXPORT ORDINAL="2279" NAME="?NearestR_@CFrImNavigator@CImage@@QBEXPAVCImVector@@PBV3@KM@Z" PURGE="16" COMMENT="" />
    <EXPORT ORDINAL="2280" NAME="?NearestS_@CFrImNavigator@CImage@@QBEXPAVCImVector@@MMPBV3@KM@Z" PURGE="24" COMMENT="" />
    <EXPORT ORDINAL="2281" NAME="?NearestS_@CFrImNavigator@CImage@@QBEXPAVCImVector@@PBV3@KM@Z" PURGE="16" COMMENT="" />
    <EXPORT ORDINAL="2282" NAME="?NearestScDown@CImage@@IAEEPAV1@KKKK@Z" PURGE="20" COMMENT="" />
    <EXPORT ORDINAL="2283" NAME="?NearestScDown_2x@CImage@@IAEEPAV1@KKKK@Z" PURGE="20" COMMENT="" />
    <EXPORT ORDINAL="2284" NAME="?NearestScDown_4x@CImage@@IAEEPAV1@KKKK@Z" PURGE="20" COMMENT="" />
    <EXPORT ORDINAL="2285" NAME="?NearestScUp@CImage@@IAEEPAV1@KKKK@Z" PURGE="20" COMMENT="" />
    <EXPORT ORDINAL="2286" NAME="?NearestScUp_2x@CImage@@IAEEPAV1@KKKK@Z" PURGE="20" COMMENT="" />
    <EXPORT ORDINAL="2287" NAME="?NearestScUp_4x@CImage@@IAEEPAV1@KKKK@Z" PURGE="20" COMMENT="" />
    <EXPORT ORDINAL="2288" NAME="?Neg@CImVector48@@QAEXXZ" PURGE="0" COMMENT="" />
    <EXPORT ORDINAL="2289" NAME="?Neg@CImVector64@@QAEXXZ" PURGE="0" COMMENT="" />
    <EXPORT ORDINAL="2290" NAME="?Neg@CImVector@@QAEXXZ" PURGE="0" COMMENT="" />
    <EXPORT ORDINAL="2291" NAME="?Neg@CImVector@@SAKK@Z" PURGE="0" COMMENT="" />
    <EXPORT ORDINAL="2292" NAME="?NegA@CImVector64@@QAEXXZ" PURGE="0" COMMENT="" />
    <EXPORT ORDINAL="2293" NAME="?NegA@CImVector@@QAEXXZ" PURGE="0" COMMENT="" />
    <EXPORT ORDINAL="2294" NAME="?NegA@CImVector@@SAKK@Z" PURGE="0" COMMENT="" />
    <EXPORT ORDINAL="2295" NAME="?NegB@CImVector48@@QAEXXZ" PURGE="0" COMMENT="" />
    <EXPORT ORDINAL="2296" NAME="?NegB@CImVector64@@QAEXXZ" PURGE="0" COMMENT="" />
    <EXPORT ORDINAL="2297" NAME="?NegB@CImVector@@QAEXXZ" PURGE="0" COMMENT="" />
    <EXPORT ORDINAL="2298" NAME="?NegB@CImVector@@SAKK@Z" PURGE="0" COMMENT="" />
    <EXPORT ORDINAL="2299" NAME="?NegG@CImVector48@@QAEXXZ" PURGE="0" COMMENT="" />
    <EXPORT ORDINAL="2300" NAME="?NegG@CImVector64@@QAEXXZ" PURGE="0" COMMENT="" />
    <EXPORT ORDINAL="2301" NAME="?NegG@CImVector@@QAEXXZ" PURGE="0" COMMENT="" />
    <EXPORT ORDINAL="2302" NAME="?NegG@CImVector@@SAKK@Z" PURGE="0" COMMENT="" />
    <EXPORT ORDINAL="2303" NAME="?NegR@CImVector48@@QAEXXZ" PURGE="0" COMMENT="" />
    <EXPORT ORDINAL="2304" NAME="?NegR@CImVector64@@QAEXXZ" PURGE="0" COMMENT="" />
    <EXPORT ORDINAL="2305" NAME="?NegR@CImVector@@QAEXXZ" PURGE="0" COMMENT="" />
    <EXPORT ORDINAL="2306" NAME="?NegR@CImVector@@SAKK@Z" PURGE="0" COMMENT="" />
    <EXPORT ORDINAL="2307" NAME="?NegRGB@CImVector48@@QAEXXZ" PURGE="0" COMMENT="" />
    <EXPORT ORDINAL="2308" NAME="?NegRGB@CImVector64@@QAEXXZ" PURGE="0" COMMENT="" />
    <EXPORT ORDINAL="2309" NAME="?NegRGB@CImVector@@QAEXXZ" PURGE="0" COMMENT="" />
    <EXPORT ORDINAL="2310" NAME="?NegRGB@CImVector@@SAKK@Z" PURGE="0" COMMENT="" />
    <EXPORT ORDINAL="2311" NAME="?NegateIVsA@CImage@@UAEEXZ" PURGE="0" COMMENT="" />
    <EXPORT ORDINAL="2312" NAME="?NegateIVsRGB@CImage@@UAEEXZ" PURGE="0" COMMENT="" />
    <EXPORT ORDINAL="2313" NAME="?Next@CDynArray@@QAEEAAVCIterator@1@@Z" PURGE="4" COMMENT="" />
    <EXPORT ORDINAL="2314" NAME="?Next@CDynTable@@QAEEAAVCIterator@1@@Z" PURGE="4" COMMENT="" />
    <EXPORT ORDINAL="2315" NAME="?Next@CResourceFile@@QAEEAAJPAEPAK@Z" PURGE="12" COMMENT="" />
    <EXPORT ORDINAL="2316" NAME="?NextAccess@CSpoolMem@@SAKXZ" PURGE="0" COMMENT="" />
    <EXPORT ORDINAL="2317" NAME="?NodeType@CTexture@@QBE?AW4ENodeType@1@XZ" PURGE="0" COMMENT="" />
    <EXPORT ORDINAL="2318" NAME="?None@CImVector64@@SAXPAV1@00K@Z" PURGE="0" COMMENT="" />
    <EXPORT ORDINAL="2319" NAME="?Normalize@C23Affine@@QAEXN@Z" PURGE="8" COMMENT="" />
    <EXPORT ORDINAL="2320" NAME="?Normalize@C2Vector@@QAEXXZ" PURGE="0" COMMENT="" />
    <EXPORT ORDINAL="2321" NAME="?Normalize@C2iVector@@QAEXXZ" PURGE="0" COMMENT="" />
    <EXPORT ORDINAL="2322" NAME="?Normalize@C3Vector@@QAEXXZ" PURGE="0" COMMENT="" />
    <EXPORT ORDINAL="2323" NAME="?Normalize@C3iVector@@QAEXXZ" PURGE="0" COMMENT="" />
    <EXPORT ORDINAL="2324" NAME="?Normalize@C4Vector@@QAEXXZ" PURGE="0" COMMENT="" />
    <EXPORT ORDINAL="2325" NAME="?Normalize@C4iVector@@QAEXXZ" PURGE="0" COMMENT="" />
    <EXPORT ORDINAL="2326" NAME="?Normalize@CTexture@@QAEXPAVC23Affine@@K@Z" PURGE="8" COMMENT="" />
    <EXPORT ORDINAL="2327" NAME="?NotLocked@CUserParamStack@CNavProcess@@QAEEXZ" PURGE="0" COMMENT="" />
    <EXPORT ORDINAL="2328" NAME="?NumGlueFns@CImVector64@@SAKXZ" PURGE="0" COMMENT="" />
    <EXPORT ORDINAL="2329" NAME="?NumGlueFns@CTexture@@SAKXZ" PURGE="0" COMMENT="" />
    <EXPORT ORDINAL="2330" NAME="?NumTextures@CTexture@@SAKXZ" PURGE="0" COMMENT="" />
    <EXPORT ORDINAL="2331" NAME="?NumberProcessors@CWindowsEnv@@SAGXZ" PURGE="0" COMMENT="" />
    <EXPORT ORDINAL="2332" NAME="?OSDescription@CWindowsEnv@@SAPBDXZ" PURGE="0" COMMENT="" />
    <EXPORT ORDINAL="2333" NAME="?OSGetVersion@CWindowsEnv@@SAKXZ" PURGE="0" COMMENT="" />
    <EXPORT ORDINAL="2334" NAME="?OSMajorVersion@CWindowsEnv@@SAGXZ" PURGE="0" COMMENT="" />
    <EXPORT ORDINAL="2335" NAME="?OSMinorVersion@CWindowsEnv@@SAGXZ" PURGE="0" COMMENT="" />
    <EXPORT ORDINAL="2336" NAME="?OSType@CWindowsEnv@@SA?AW4EOSType@1@XZ" PURGE="0" COMMENT="" />
    <EXPORT ORDINAL="2337" NAME="?ObjPool@CPluginPool@@SAPAVCMemPool@@XZ" PURGE="0" COMMENT="" />
    <EXPORT ORDINAL="2338" NAME="?ObjectCount@CBaseObject@@SAKXZ" PURGE="0" COMMENT="" />
    <EXPORT ORDINAL="2339" NAME="?Objects@CMemPool@@SAPAV1@XZ" PURGE="0" COMMENT="" />
    <EXPORT ORDINAL="2340" NAME="?Offset@CRange@@QAEXM@Z" PURGE="4" COMMENT="" />
    <EXPORT ORDINAL="2341" NAME="?Offset@CRect@@QAEXMM@Z" PURGE="8" COMMENT="" />
    <EXPORT ORDINAL="2342" NAME="?Offset@CScanner@CMemBlock@@QBEKJ@Z" PURGE="4" COMMENT="" />
    <EXPORT ORDINAL="2343" NAME="?Offset@CiRange@@QAEXJ@Z" PURGE="4" COMMENT="" />
    <EXPORT ORDINAL="2344" NAME="?Offset@CiRect@@QAEXJJ@Z" PURGE="8" COMMENT="" />
    <EXPORT ORDINAL="2345" NAME="?OffsetImage@CPreviewImage@@QAEEPAXABVC2iVector@@@Z" PURGE="8" COMMENT="" />
    <EXPORT ORDINAL="2346" NAME="?OffsetInputRect@CPluginAppl@@QAEXABVC2iVector@@@Z" PURGE="4" COMMENT="" />
    <EXPORT ORDINAL="2347" NAME="?OffsetX@CNavigator@CMemBlock@@QBEKJ@Z" PURGE="4" COMMENT="" />
    <EXPORT ORDINAL="2348" NAME="?OffsetX_@CNavigator@CMemBlock@@QBEKJ@Z" PURGE="4" COMMENT="" />
    <EXPORT ORDINAL="2349" NAME="?OffsetX_f@CNavigator@CMemBlock@@QBEKJ@Z" PURGE="4" COMMENT="" />
    <EXPORT ORDINAL="2350" NAME="?OffsetY@CNavigator@CMemBlock@@QBEKJ@Z" PURGE="4" COMMENT="" />
    <EXPORT ORDINAL="2351" NAME="?OffsetY_@CNavigator@CMemBlock@@QBEKJ@Z" PURGE="4" COMMENT="" />
    <EXPORT ORDINAL="2352" NAME="?OffsetY_f@CNavigator@CMemBlock@@QBEKJ@Z" PURGE="4" COMMENT="" />
    <EXPORT ORDINAL="2353" NAME="?Offset_@CScanner@CMemBlock@@QBEKJ@Z" PURGE="4" COMMENT="" />
    <EXPORT ORDINAL="2354" NAME="?Offset_f@CScanner@CMemBlock@@QBEKJ@Z" PURGE="4" COMMENT="" />
    <EXPORT ORDINAL="2355" NAME="?Open@CCmFile@@QAEKW4EPermission@CFile@@@Z" PURGE="4" COMMENT="" />
    <EXPORT ORDINAL="2356" NAME="?Open@CFile@@QAEKW4EPermission@1@@Z" PURGE="4" COMMENT="" />
    <EXPORT ORDINAL="2357" NAME="?Open@CPlatformResFile@@QAEEXZ" PURGE="0" COMMENT="" />
    <EXPORT ORDINAL="2358" NAME="?Open@CPrefsFile@@QAEKW4EPermission@CFile@@@Z" PURGE="4" COMMENT="" />
    <EXPORT ORDINAL="2359" NAME="?Open@CResourceFile@@QAEKW4EPermission@CFile@@@Z" PURGE="4" COMMENT="" />
    <EXPORT ORDINAL="2360" NAME="?OpenCreate@CResourceFile@@QAEKQAD0W4EPermission@CFile@@@Z" PURGE="12" COMMENT="" />
    <EXPORT ORDINAL="2361" NAME="?OpenReadOnly@CPlatformResFile@@QAEEXZ" PURGE="0" COMMENT="" />
    <EXPORT ORDINAL="2362" NAME="?Optimize@CDynArray@@QAEKXZ" PURGE="0" COMMENT="" />
    <EXPORT ORDINAL="2363" NAME="?Optimize@CDynTable@@QAEKXZ" PURGE="0" COMMENT="" />
    <EXPORT ORDINAL="2364" NAME="?OptimizeEFree@CCmFile@@IAEKXZ" PURGE="0" COMMENT="" />
    <EXPORT ORDINAL="2365" NAME="?OptionDown@CPDUtils@@SAEXZ" PURGE="0" COMMENT="" />
    <EXPORT ORDINAL="2366" NAME="?OptionDown@CWinAppl@@UBEEXZ" PURGE="0" COMMENT="" />
    <EXPORT ORDINAL="2367" NAME="?Origin@CUniMotion@@QBEMXZ" PURGE="0" COMMENT="" />
    <EXPORT ORDINAL="2368" NAME="?OutData@CPluginAppl@@QAEPADXZ" PURGE="0" COMMENT="" />
    <EXPORT ORDINAL="2369" NAME="?OutIndex@CDynArray@@QBEKXZ" PURGE="0" COMMENT="" />
    <EXPORT ORDINAL="2370" NAME="?OutIndex@CDynTable@@QBEKXZ" PURGE="0" COMMENT="" />
    <EXPORT ORDINAL="2371" NAME="?OutPlanes@CPlugin@@IAEAAVC2iVector@@XZ" PURGE="0" COMMENT="" />
    <EXPORT ORDINAL="2372" NAME="?OutPlanes@CPluginAppl@@QAEAAVC2iVector@@XZ" PURGE="0" COMMENT="" />
    <EXPORT ORDINAL="2373" NAME="?OutRowBytes@CPluginAppl@@QAEKXZ" PURGE="0" COMMENT="" />
    <EXPORT ORDINAL="2374" NAME="?OutputArea@CPlugin@@IAEAAVCiRect@@XZ" PURGE="0" COMMENT="" />
    <EXPORT ORDINAL="2375" NAME="?OutputArea@CPluginAppl@@QAEAAVCiRect@@XZ" PURGE="0" COMMENT="" />
    <EXPORT ORDINAL="2376" NAME="?OutputImage@CPlugin@@IAEPAVCConversionNavigator@@XZ" PURGE="0" COMMENT="" />
    <EXPORT ORDINAL="2377" NAME="?OutputImage@CPluginAppl@@QAEPAVCConversionNavigator@@XZ" PURGE="0" COMMENT="" />
    <EXPORT ORDINAL="2378" NAME="?Overlay@CImVector64@@SAXPAV1@00@Z" PURGE="0" COMMENT="" />
    <EXPORT ORDINAL="2379" NAME="?Overlay@CImVector64@@SAXPAV1@00K@Z" PURGE="0" COMMENT="" />
    <EXPORT ORDINAL="2380" NAME="?PDDResult@CWinAppl@@SAJPBVCReceiverData@CAppl@@@Z" PURGE="0" COMMENT="" />
    <EXPORT ORDINAL="2381" NAME="?PDDhwnd@CWinAppl@@SAPAXPBVCReceiverData@CAppl@@@Z" PURGE="0" COMMENT="" />
    <EXPORT ORDINAL="2382" NAME="?PDDlParam@CWinAppl@@SAJPBVCReceiverData@CAppl@@@Z" PURGE="0" COMMENT="" />
    <EXPORT ORDINAL="2383" NAME="?PDDmessage@CWinAppl@@SAIPBVCReceiverData@CAppl@@@Z" PURGE="0" COMMENT="" />
    <EXPORT ORDINAL="2384" NAME="?PDDwParam@CWinAppl@@SAIPBVCReceiverData@CAppl@@@Z" PURGE="0" COMMENT="" />
    <EXPORT ORDINAL="2385" NAME="?PaintDlg@CPluginAppl@@SAXPAXE@Z" PURGE="0" COMMENT="" />
    <EXPORT ORDINAL="2386" NAME="?PaintRect@CPDPort@@QAEXABVCiRect@@PAURGBColor@@@Z" PURGE="8" COMMENT="" />
    <EXPORT ORDINAL="2387" NAME="?Pan@C23Affine@@QAEXAAVC2Vector@@@Z" PURGE="4" COMMENT="" />
    <EXPORT ORDINAL="2388" NAME="?Pan@C23Affine@@QAEXNN@Z" PURGE="16" COMMENT="" />
    <EXPORT ORDINAL="2389" NAME="?PanImage@CTexture@@QAEEPAVCImage@@KABVC2iVector@@PAVCSimpleTexture@1@@Z" PURGE="16" COMMENT="" />
    <EXPORT ORDINAL="2390" NAME="?PanImage@CTextureProcess@@QAEEPAVCImage@@ABVC2iVector@@@Z" PURGE="8" COMMENT="" />
    <EXPORT ORDINAL="2391" NAME="?Parent@CTexture@@QBEPAV1@XZ" PURGE="0" COMMENT="" />
    <EXPORT ORDINAL="2392" NAME="?PeriodElapsed@CRenderPeriod@@QAEEXZ" PURGE="0" COMMENT="" />
    <EXPORT ORDINAL="2393" NAME="?PictDimensions@CImage@@SAEJAAK0@Z" PURGE="0" COMMENT="" />
    <EXPORT ORDINAL="2394" NAME="?PictDimensions@CImage@@SAXPAXAAK1@Z" PURGE="0" COMMENT="" />
    <EXPORT ORDINAL="2395" NAME="?PixelDepth@CImage@@UBEKXZ" PURGE="0" COMMENT="" />
    <EXPORT ORDINAL="2396" NAME="?PlaceMenu@CMenu@@QAEXJJJ@Z" PURGE="12" COMMENT="" />
    <EXPORT ORDINAL="2397" NAME="?PluginAppl@CDialog@@QBEPAVCPluginAppl@@XZ" PURGE="0" COMMENT="" />
    <EXPORT ORDINAL="2398" NAME="?PluginAppl@CDialogItem@@QBEPAVCPluginAppl@@XZ" PURGE="0" COMMENT="" />
    <EXPORT ORDINAL="2399" NAME="?PointerBusy@CWinAppl@@UBEEXZ" PURGE="0" COMMENT="" />
    <EXPORT ORDINAL="2400" NAME="?PointerHidden@CWinAppl@@UBEEXZ" PURGE="0" COMMENT="" />
    <EXPORT ORDINAL="2401" NAME="?PointerLoc@CWinAppl@@UBEXAAVC2iVector@@@Z" PURGE="4" COMMENT="" />
    <EXPORT ORDINAL="2402" NAME="?Pool@CMemBlock@@QBEPAVCMemPool@@XZ" PURGE="0" COMMENT="" />
    <EXPORT ORDINAL="2403" NAME="?Pool@CPluginPool@@SAPAVCMemPool@@XZ" PURGE="0" COMMENT="" />
    <EXPORT ORDINAL="2404" NAME="?Pool@CSelector@CMemPool@@QBEPBV2@XZ" PURGE="0" COMMENT="" />
    <EXPORT ORDINAL="2405" NAME="?Pool@CSpoolEnv@@UAEPAVCMemPool@@XZ" PURGE="0" COMMENT="" />
    <EXPORT ORDINAL="2406" NAME="?Pos@CScanner@CMemBlock@@QBEKXZ" PURGE="0" COMMENT="" />
    <EXPORT ORDINAL="2407" NAME="?PosU@CFrImNavigator@CImage@@QBEMXZ" PURGE="0" COMMENT="" />
    <EXPORT ORDINAL="2408" NAME="?PosV@CFrImNavigator@CImage@@QBEMXZ" PURGE="0" COMMENT="" />
    <EXPORT ORDINAL="2409" NAME="?PosX@CNavigator@CMemBlock@@QBEKXZ" PURGE="0" COMMENT="" />
    <EXPORT ORDINAL="2410" NAME="?PosY@CNavigator@CMemBlock@@QBEKXZ" PURGE="0" COMMENT="" />
    <EXPORT ORDINAL="2411" NAME="?Position@CUniMotion@@QBEMXZ" PURGE="0" COMMENT="" />
    <EXPORT ORDINAL="2412" NAME="?Prepare@CTexture@@QAEXPAVC23Affine@@K@Z" PURGE="8" COMMENT="" />
    <EXPORT ORDINAL="2413" NAME="?PrepareDialog@CDialog@@MAEEXZ" PURGE="0" COMMENT="" />
    <EXPORT ORDINAL="2414" NAME="?PrepareMacOSImage@CImage@@IAEEXZ" PURGE="0" COMMENT="" />
    <EXPORT ORDINAL="2415" NAME="?PrepareTexture@CTextureProcess@@QAEXXZ" PURGE="0" COMMENT="" />
    <EXPORT ORDINAL="2416" NAME="?Previous@CDynArray@@QAEEAAVCIterator@1@@Z" PURGE="4" COMMENT="" />
    <EXPORT ORDINAL="2417" NAME="?Previous@CDynTable@@QAEEAAVCIterator@1@@Z" PURGE="4" COMMENT="" />
    <EXPORT ORDINAL="2418" NAME="?PrioritySortP@CAppl@@KAJPBVCCFEntry@@0@Z" PURGE="0" COMMENT="" />
    <EXPORT ORDINAL="2419" NAME="?PrioritySortP@CSpoolEnv@@KAJPBVCCFEntry@@0@Z" PURGE="0" COMMENT="" />
    <EXPORT ORDINAL="2420" NAME="?Procedural@CImVector64@@SAXPAV1@00@Z" PURGE="0" COMMENT="" />
    <EXPORT ORDINAL="2421" NAME="?Procedural@CImVector64@@SAXPAV1@00K@Z" PURGE="0" COMMENT="" />
    <EXPORT ORDINAL="2422" NAME="?Process@CWinAppl@@MAEXXZ" PURGE="0" COMMENT="" />
    <EXPORT ORDINAL="2423" NAME="?ProcessArea@CPlugin@@IAEAAVCiRect@@XZ" PURGE="0" COMMENT="" />
    <EXPORT ORDINAL="2424" NAME="?ProcessArea@CPluginAppl@@QAEAAVCiRect@@XZ" PURGE="0" COMMENT="" />
    <EXPORT ORDINAL="2425" NAME="?ProcessCFQueue@CPluginAppl@@IAEXXZ" PURGE="0" COMMENT="" />
    <EXPORT ORDINAL="2426" NAME="?ProcessNavs@CNavProcess@@UAEXABVCImageProcessData@1@@Z" PURGE="4" COMMENT="" />
    <EXPORT ORDINAL="2427" NAME="?ProcessNavs@CNavProcess@@UAEXABVCProcessData@1@@Z" PURGE="4" COMMENT="" />
    <EXPORT ORDINAL="2428" NAME="?ProcessNavs@CNavProcess@@UAEXPAVCImNavigator@CImage@@00@Z" PURGE="12" COMMENT="" />
    <EXPORT ORDINAL="2429" NAME="?ProcessNavs@CNavProcess@@UAEXPAVCNavigator@CMemBlock@@00@Z" PURGE="12" COMMENT="" />
    <EXPORT ORDINAL="2430" NAME="?ProcessNavs@CTextureProcess@@UAEXABVCImageProcessData@CNavProcess@@@Z" PURGE="4" COMMENT="" />
    <EXPORT ORDINAL="2431" NAME="?ProcessNavs@CTextureProcess@@UAEXABVCProcessData@CNavProcess@@@Z" PURGE="4" COMMENT="" />
    <EXPORT ORDINAL="2432" NAME="?ProcessingPending@CWinAppl@@UAEEXZ" PURGE="0" COMMENT="" />
    <EXPORT ORDINAL="2433" NAME="?ProcessorDescription@CWindowsEnv@@SAPBDXZ" PURGE="0" COMMENT="" />
    <EXPORT ORDINAL="2434" NAME="?ProcessorType@CWindowsEnv@@SAKXZ" PURGE="0" COMMENT="" />
    <EXPORT ORDINAL="2435" NAME="?PropertyFlags@CDialogItem@@QAEKXZ" PURGE="0" COMMENT="" />
    <EXPORT ORDINAL="2436" NAME="?PtToAngle@CPDUtils@@SAMAAVCiRect@@AAVC2iVector@@@Z" PURGE="0" COMMENT="" />
    <EXPORT ORDINAL="2437" NAME="?Purge@CSpoolMem@@UAEEXZ" PURGE="0" COMMENT="" />
    <EXPORT ORDINAL="2438" NAME="?RCFIdToEntry@CAppl@@IAEPAVCCFEntry@@J@Z" PURGE="4" COMMENT="" />
    <EXPORT ORDINAL="2439" NAME="?RCFProc@CCanvas@@KAJPAV1@PBVCCFEntryParms@@PAVCCFEntryData@@@Z" PURGE="0" COMMENT="" />
    <EXPORT ORDINAL="2440" NAME="?RCFProc@CDialog@@KAJPAV1@PBVCCFEntryParms@@PAVCCFEntryData@@@Z" PURGE="0" COMMENT="" />
    <EXPORT ORDINAL="2441" NAME="?RCFProc@CPluginAppl@@KAJPAV1@PBVCCFEntryParms@@PAVCCFEntryData@@@Z" PURGE="0" COMMENT="" />
    <EXPORT ORDINAL="2442" NAME="?RGBCurve@CTexture@@KAXPAVCImVector64@@00K@Z" PURGE="0" COMMENT="" />
    <EXPORT ORDINAL="2443" NAME="?R_@CImVector48@@QBEKXZ" PURGE="0" COMMENT="" />
    <EXPORT ORDINAL="2444" NAME="?R_@CImVector64@@QBEKXZ" PURGE="0" COMMENT="" />
    <EXPORT ORDINAL="2445" NAME="?R_@CImVector@@QBEKXZ" PURGE="0" COMMENT="" />
    <EXPORT ORDINAL="2446" NAME="?R_@CImVector@@SAKK@Z" PURGE="0" COMMENT="" />
    <EXPORT ORDINAL="2447" NAME="?R_@CNavigator@CMemBlock@@QBEKXZ" PURGE="0" COMMENT="" />
    <EXPORT ORDINAL="2448" NAME="?Random@CResourceFile@@QAEKK@Z" PURGE="4" COMMENT="" />
    <EXPORT ORDINAL="2449" NAME="?RasterizePicture@CImage@@UAEPAXKK@Z" PURGE="8" COMMENT="" />
    <EXPORT ORDINAL="2450" NAME="?Read@CFile@@QBEKAAKAAVCMemBlock@@E@Z" PURGE="12" COMMENT="" />
    <EXPORT ORDINAL="2451" NAME="?Read@CFile@@QBEKAAKPADE@Z" PURGE="12" COMMENT="" />
    <EXPORT ORDINAL="2452" NAME="?Read@CResourceFile@@QAEKAAVCMemBlock@@KJ@Z" PURGE="12" COMMENT="" />
    <EXPORT ORDINAL="2453" NAME="?Read@CResourceFile@@QAEKPADKKJ@Z" PURGE="16" COMMENT="" />
    <EXPORT ORDINAL="2454" NAME="?ReadByIndex@CResourceFile@@QAEKAAVCMemBlock@@K@Z" PURGE="8" COMMENT="" />
    <EXPORT ORDINAL="2455" NAME="?ReadByName@CResourceFile@@QAEKAAVCMemBlock@@KQAE@Z" PURGE="12" COMMENT="" />
    <EXPORT ORDINAL="2456" NAME="?ReadDirectoryData@CCmFile@@IAEKXZ" PURGE="0" COMMENT="" />
    <EXPORT ORDINAL="2457" NAME="?ReadDiskParams@CTextureProcess@@QAEEPAVCResourceFile@@J@Z" PURGE="8" COMMENT="" />
    <EXPORT ORDINAL="2458" NAME="?ReadE@CCmFile@@IAEKABUSEntry@1@PAD@Z" PURGE="8" COMMENT="" />
    <EXPORT ORDINAL="2459" NAME="?ReadEPartial@CCmFile@@IAEKABUSEntry@1@PADKK@Z" PURGE="16" COMMENT="" />
    <EXPORT ORDINAL="2460" NAME="?ReadEntry@CCmFile@@QAEKKAAVCMemBlock@@@Z" PURGE="8" COMMENT="" />
    <EXPORT ORDINAL="2461" NAME="?ReadEntry@CCmFile@@QAEKKPAD@Z" PURGE="8" COMMENT="" />
    <EXPORT ORDINAL="2462" NAME="?ReadEntryPartial@CCmFile@@QAEKKAAVCMemBlock@@KK@Z" PURGE="16" COMMENT="" />
    <EXPORT ORDINAL="2463" NAME="?ReadEntryPartial@CCmFile@@QAEKKPADKK@Z" PURGE="16" COMMENT="" />
    <EXPORT ORDINAL="2464" NAME="?ReadGlobalPrefs@CPluginAppl@@UAEEXZ" PURGE="0" COMMENT="" />
    <EXPORT ORDINAL="2465" NAME="?ReadTag@CCmFile@@IAEKAAUSTag@1@K@Z" PURGE="8" COMMENT="" />
    <EXPORT ORDINAL="2466" NAME="?ReadTypeTable@CResourceFile@@IAEKXZ" PURGE="0" COMMENT="" />
    <EXPORT ORDINAL="2467" NAME="?Rebuild@CCmFile@@QAEKXZ" PURGE="0" COMMENT="" />
    <EXPORT ORDINAL="2468" NAME="?ReceiversCF@CAppl@@UAEAAVCCmFunction@@XZ" PURGE="0" COMMENT="" />
    <EXPORT ORDINAL="2469" NAME="?Recover@CMemPool@@QAEEK@Z" PURGE="4" COMMENT="" />
    <EXPORT ORDINAL="2470" NAME="?RecoverAllMem@CAppl@@UAEEAAK@Z" PURGE="4" COMMENT="" />
    <EXPORT ORDINAL="2471" NAME="?RecoverAllMem@CSpoolEnv@@UAEEAAK@Z" PURGE="4" COMMENT="" />
    <EXPORT ORDINAL="2472" NAME="?RecoverContiguous@CMemPool@@QAEEK@Z" PURGE="4" COMMENT="" />
    <EXPORT ORDINAL="2473" NAME="?RecoverMem@CAppl@@UAEEAAK@Z" PURGE="4" COMMENT="" />
    <EXPORT ORDINAL="2474" NAME="?RecoverMem@CSpoolEnv@@UAEEAAK@Z" PURGE="4" COMMENT="" />
    <EXPORT ORDINAL="2475" NAME="?RecoverableMem@CAppl@@UAEEAAK@Z" PURGE="4" COMMENT="" />
    <EXPORT ORDINAL="2476" NAME="?RecoverableMem@CSpoolEnv@@UAEEAAK@Z" PURGE="4" COMMENT="" />
    <EXPORT ORDINAL="2477" NAME="?Recovering@CMemPool@@QBEEXZ" PURGE="0" COMMENT="" />
    <EXPORT ORDINAL="2478" NAME="?RecoveryProc@CMemPool@@QBEP6AXAAKPAD@ZXZ" PURGE="0" COMMENT="" />
    <EXPORT ORDINAL="2479" NAME="?Recreate@CScreenPort@@QAEEXZ" PURGE="0" COMMENT="" />
    <EXPORT ORDINAL="2480" NAME="?RectRegion@CRegion@@QAEEAAVCiRect@@@Z" PURGE="4" COMMENT="" />
    <EXPORT ORDINAL="2481" NAME="?Rectangle@CScreenPort@@QAEABVCiRect@@XZ" PURGE="0" COMMENT="" />
    <EXPORT ORDINAL="2482" NAME="?Redo@CUserParamStack@CNavProcess@@QAEEPAD@Z" PURGE="4" COMMENT="" />
    <EXPORT ORDINAL="2483" NAME="?Register@CCanvas@@SAEPAX0@Z" PURGE="0" COMMENT="" />
    <EXPORT ORDINAL="2484" NAME="?RegisterNavigator@CMemBlock@@QAEXXZ" PURGE="0" COMMENT="" />
    <EXPORT ORDINAL="2485" NAME="?RelTrans@CTexture@@QAEPAVC23Affine@@XZ" PURGE="0" COMMENT="" />
    <EXPORT ORDINAL="2486" NAME="?Release@CSpoolMem@@UAEEE@Z" PURGE="4" COMMENT="" />
    <EXPORT ORDINAL="2487" NAME="?RememberMicroSeconds@CTimer@@QAEXXZ" PURGE="0" COMMENT="" />
    <EXPORT ORDINAL="2488" NAME="?RememberMilliSeconds@CTimer@@QAEXXZ" PURGE="0" COMMENT="" />
    <EXPORT ORDINAL="2489" NAME="?RememberSeconds@CTimer@@QAEXXZ" PURGE="0" COMMENT="" />
    <EXPORT ORDINAL="2490" NAME="?RememberTicks@CTimer@@QAEXXZ" PURGE="0" COMMENT="" />
    <EXPORT ORDINAL="2491" NAME="?Remove@CDynArray@@QAEEKK@Z" PURGE="8" COMMENT="" />
    <EXPORT ORDINAL="2492" NAME="?Remove@CDynTable@@QAEEKK@Z" PURGE="8" COMMENT="" />
    <EXPORT ORDINAL="2493" NAME="?Remove@CResourceFile@@QAEKKJ@Z" PURGE="8" COMMENT="" />
    <EXPORT ORDINAL="2494" NAME="?RemoveAll@CDynArray@@QAEEXZ" PURGE="0" COMMENT="" />
    <EXPORT ORDINAL="2495" NAME="?RemoveAll@CDynTable@@QAEEXZ" PURGE="0" COMMENT="" />
    <EXPORT ORDINAL="2496" NAME="?RemoveAll@CMenu@@QAEEXZ" PURGE="0" COMMENT="" />
    <EXPORT ORDINAL="2497" NAME="?RemoveAllMembers@CCmFunction@@QAEEXZ" PURGE="0" COMMENT="" />
    <EXPORT ORDINAL="2498" NAME="?RemoveAllWiretaps@CTexture@@QAEXK@Z" PURGE="4" COMMENT="" />
    <EXPORT ORDINAL="2499" NAME="?RemoveByName@CResourceFile@@QAEKKQAE@Z" PURGE="8" COMMENT="" />
    <EXPORT ORDINAL="2500" NAME="?RemoveDialogItems@CDialog@@MAEXXZ" PURGE="0" COMMENT="" />
    <EXPORT ORDINAL="2501" NAME="?RemoveFromHCF@CAppl@@UAEEJ@Z" PURGE="4" COMMENT="" />
    <EXPORT ORDINAL="2502" NAME="?RemoveFromHCF@CDialog@@QAEXXZ" PURGE="0" COMMENT="" />
    <EXPORT ORDINAL="2503" NAME="?RemoveFromHCF@CPluginAppl@@UAEEJ@Z" PURGE="4" COMMENT="" />
    <EXPORT ORDINAL="2504" NAME="?RemoveFromMRCF@CAppl@@UAEEJ@Z" PURGE="4" COMMENT="" />
    <EXPORT ORDINAL="2505" NAME="?RemoveFromRCF@CAppl@@UAEEJ@Z" PURGE="4" COMMENT="" />
    <EXPORT ORDINAL="2506" NAME="?RemoveFromRCF@CPluginAppl@@UAEEJ@Z" PURGE="4" COMMENT="" />
    <EXPORT ORDINAL="2507" NAME="?RemoveFromSECF@CSpoolEnv@@UAEEPBVCSubscriber@1@@Z" PURGE="4" COMMENT="" />
    <EXPORT ORDINAL="2508" NAME="?RemoveFromUICF@CPluginAppl@@UAEEJ@Z" PURGE="4" COMMENT="" />
    <EXPORT ORDINAL="2509" NAME="?RemoveIndexItem@CMenu@@QAEEK@Z" PURGE="4" COMMENT="" />
    <EXPORT ORDINAL="2510" NAME="?RemoveInterruptFn@CTexture@@SAXXZ" PURGE="0" COMMENT="" />
    <EXPORT ORDINAL="2511" NAME="?RemoveItem@CMenu@@QAEEJ@Z" PURGE="4" COMMENT="" />
    <EXPORT ORDINAL="2512" NAME="?RemoveLastItem@CResourceFile@@IAEKXZ" PURGE="0" COMMENT="" />
    <EXPORT ORDINAL="2513" NAME="?RemoveMember@CCmFunction@@QAEEPBVCCFEntry@@@Z" PURGE="4" COMMENT="" />
    <EXPORT ORDINAL="2514" NAME="?RemoveResReference@CWindowsEnv@@SAHJ@Z" PURGE="0" COMMENT="" />
    <EXPORT ORDINAL="2515" NAME="?RemoveWiretap@CTexture@@QAEXXZ" PURGE="0" COMMENT="" />
    <EXPORT ORDINAL="2516" NAME="?Repaint@CCanvas@@UAEEPBVCiRect@@@Z" PURGE="4" COMMENT="" />
    <EXPORT ORDINAL="2517" NAME="?Repaint@CDialog@@UAEEPBVCiRect@@@Z" PURGE="4" COMMENT="" />
    <EXPORT ORDINAL="2518" NAME="?ReportMemBar@CPluginManager@@SAXPAVCMemPool@@@Z" PURGE="0" COMMENT="" />
    <EXPORT ORDINAL="2519" NAME="?RequestImage@CPlugin@@MAEXPAVCiRect@@00@Z" PURGE="12" COMMENT="" />
    <EXPORT ORDINAL="2520" NAME="?RequestNextImage@CPlugin@@MAEEEEK@Z" PURGE="12" COMMENT="" />
    <EXPORT ORDINAL="2521" NAME="?Resample@CImage@@UAEEPAV1@W4EFilter@1@E@Z" PURGE="12" COMMENT="" />
    <EXPORT ORDINAL="2522" NAME="?Resample@CImage@@UAEPAV1@KKW4EFilter@1@PAVCSpoolEnv@@J@Z" PURGE="20" COMMENT="" />
    <EXPORT ORDINAL="2523" NAME="?ResampleCopy@CImage@@IAEEPAV1@KKKK@Z" PURGE="20" COMMENT="" />
    <EXPORT ORDINAL="2524" NAME="?Reset@CUniMotion@@QAEXXZ" PURGE="0" COMMENT="" />
    <EXPORT ORDINAL="2525" NAME="?ResetActiveArea@CImage@@UAEEXZ" PURGE="0" COMMENT="" />
    <EXPORT ORDINAL="2526" NAME="?ResetActiveArea@COffscreen@@QAEXXZ" PURGE="0" COMMENT="" />
    <EXPORT ORDINAL="2527" NAME="?ResetCurRenderRow@CTextureProcess@@QAEXXZ" PURGE="0" COMMENT="" />
    <EXPORT ORDINAL="2528" NAME="?ResetGeneralF@CFadeAnimation@CImage@@QAEXXZ" PURGE="0" COMMENT="" />
    <EXPORT ORDINAL="2529" NAME="?ResetLogicalOrigin@CImage@@UAEXXZ" PURGE="0" COMMENT="" />
    <EXPORT ORDINAL="2530" NAME="?ResetProgressiveF@CFadeAnimation@CImage@@QAEXXZ" PURGE="0" COMMENT="" />
    <EXPORT ORDINAL="2531" NAME="?ResetRegressiveF@CFadeAnimation@CImage@@QAEXXZ" PURGE="0" COMMENT="" />
    <EXPORT ORDINAL="2532" NAME="?ResetRenderPeriod@CTextureProcess@@QAEXXZ" PURGE="0" COMMENT="" />
    <EXPORT ORDINAL="2533" NAME="?Resize@CCanvas@@UAEEABVC2iVector@@E@Z" PURGE="8" COMMENT="" />
    <EXPORT ORDINAL="2534" NAME="?Resize@CMemBlock@@QAEEKE@Z" PURGE="8" COMMENT="" />
    <EXPORT ORDINAL="2535" NAME="?Resize@CSpoolMem@@UAEEKE@Z" PURGE="8" COMMENT="" />
    <EXPORT ORDINAL="2536" NAME="?Restore@CPDPort@@QAEXE@Z" PURGE="4" COMMENT="" />
    <EXPORT ORDINAL="2537" NAME="?RestoreBlackState@CPluginAppl@@UAEXXZ" PURGE="0" COMMENT="" />
    <EXPORT ORDINAL="2538" NAME="?RestoreColor@CPDPort@@QAEXJ@Z" PURGE="4" COMMENT="" />
    <EXPORT ORDINAL="2539" NAME="?RestoreDefaultMenuTitle@CPopupMenuItem@@QAEXE@Z" PURGE="4" COMMENT="" />
    <EXPORT ORDINAL="2540" NAME="?RestoreFont@CPDPort@@QAEXXZ" PURGE="0" COMMENT="" />
    <EXPORT ORDINAL="2541" NAME="?RestoreTitle@CMenu@@QAEXXZ" PURGE="0" COMMENT="" />
    <EXPORT ORDINAL="2542" NAME="?Reverse@CImVector64@@SAXPAV1@00@Z" PURGE="0" COMMENT="" />
    <EXPORT ORDINAL="2543" NAME="?Reverse@CImVector64@@SAXPAV1@00K@Z" PURGE="0" COMMENT="" />
    <EXPORT ORDINAL="2544" NAME="?Right@CMirrorNav@@QAEEXZ" PURGE="0" COMMENT="" />
    <EXPORT ORDINAL="2545" NAME="?Right@CNavigator@CMemBlock@@QAEEXZ" PURGE="0" COMMENT="" />
    <EXPORT ORDINAL="2546" NAME="?Right@CScanner@CMemBlock@@QAEEXZ" PURGE="0" COMMENT="" />
    <EXPORT ORDINAL="2547" NAME="?Right_@CNavigator@CMemBlock@@QAEEXZ" PURGE="0" COMMENT="" />
    <EXPORT ORDINAL="2548" NAME="?Right_@CScanner@CMemBlock@@QAEEXZ" PURGE="0" COMMENT="" />
    <EXPORT ORDINAL="2549" NAME="?Root@CTexture@@IAEPAV1@XZ" PURGE="0" COMMENT="" />
    <EXPORT ORDINAL="2550" NAME="?Rotate@C23Affine@@QAEXN@Z" PURGE="8" COMMENT="" />
    <EXPORT ORDINAL="2551" NAME="?Rotate@CGradient@@QAEEMPBV1@K@Z" PURGE="12" COMMENT="" />
    <EXPORT ORDINAL="2552" NAME="?RotateImage@CTexture@@QAEEPAVCImage@@KMPAVCSimpleTexture@1@@Z" PURGE="16" COMMENT="" />
    <EXPORT ORDINAL="2553" NAME="?RotateTexture@CTextureProcess@@QAEXJ@Z" PURGE="4" COMMENT="" />
    <EXPORT ORDINAL="2554" NAME="?Rotate_@CGradient@@IAEXMPBV1@K@Z" PURGE="12" COMMENT="" />
    <EXPORT ORDINAL="2555" NAME="?RoundRegion@CRegion@@QAEEAAVCiRect@@@Z" PURGE="4" COMMENT="" />
    <EXPORT ORDINAL="2556" NAME="?Row0@C22Matrix@@QAE?AVC2Vector@@XZ" PURGE="4" COMMENT="" />
    <EXPORT ORDINAL="2557" NAME="?Row0@C33Matrix@@QAE?AVC3Vector@@XZ" PURGE="4" COMMENT="" />
    <EXPORT ORDINAL="2558" NAME="?Row0@C33iMatrix@@QAE?AVC3iVector@@XZ" PURGE="4" COMMENT="" />
    <EXPORT ORDINAL="2559" NAME="?Row0@C44Matrix@@QAE?AVC4Vector@@XZ" PURGE="4" COMMENT="" />
    <EXPORT ORDINAL="2560" NAME="?Row0@C44iMatrix@@QAE?AVC4iVector@@XZ" PURGE="4" COMMENT="" />
    <EXPORT ORDINAL="2561" NAME="?Row0AsVec2@C22Matrix@@QAEPAVC2Vector@@XZ" PURGE="0" COMMENT="" />
    <EXPORT ORDINAL="2562" NAME="?Row0AsVec3@C33Matrix@@QAEPAVC3Vector@@XZ" PURGE="0" COMMENT="" />
    <EXPORT ORDINAL="2563" NAME="?Row0AsVec3@C33iMatrix@@QAEPAVC3iVector@@XZ" PURGE="0" COMMENT="" />
    <EXPORT ORDINAL="2564" NAME="?Row0AsVec3@C44Matrix@@QAEPAVC3Vector@@XZ" PURGE="0" COMMENT="" />
    <EXPORT ORDINAL="2565" NAME="?Row0AsVec3@C44iMatrix@@QAEPAVC3iVector@@XZ" PURGE="0" COMMENT="" />
    <EXPORT ORDINAL="2566" NAME="?Row0AsVec4@C44Matrix@@QAEPAVC4Vector@@XZ" PURGE="0" COMMENT="" />
    <EXPORT ORDINAL="2567" NAME="?Row0AsVec4@C44iMatrix@@QAEPAVC4iVector@@XZ" PURGE="0" COMMENT="" />
    <EXPORT ORDINAL="2568" NAME="?Row1@C22Matrix@@QAE?AVC2Vector@@XZ" PURGE="4" COMMENT="" />
    <EXPORT ORDINAL="2569" NAME="?Row1@C33Matrix@@QAE?AVC3Vector@@XZ" PURGE="4" COMMENT="" />
    <EXPORT ORDINAL="2570" NAME="?Row1@C33iMatrix@@QAE?AVC3iVector@@XZ" PURGE="4" COMMENT="" />
    <EXPORT ORDINAL="2571" NAME="?Row1@C44Matrix@@QAE?AVC4Vector@@XZ" PURGE="4" COMMENT="" />
    <EXPORT ORDINAL="2572" NAME="?Row1@C44iMatrix@@QAE?AVC4iVector@@XZ" PURGE="4" COMMENT="" />
    <EXPORT ORDINAL="2573" NAME="?Row1AsVec2@C22Matrix@@QAEPAVC2Vector@@XZ" PURGE="0" COMMENT="" />
    <EXPORT ORDINAL="2574" NAME="?Row1AsVec3@C33Matrix@@QAEPAVC3Vector@@XZ" PURGE="0" COMMENT="" />
    <EXPORT ORDINAL="2575" NAME="?Row1AsVec3@C33iMatrix@@QAEPAVC3iVector@@XZ" PURGE="0" COMMENT="" />
    <EXPORT ORDINAL="2576" NAME="?Row1AsVec3@C44Matrix@@QAEPAVC3Vector@@XZ" PURGE="0" COMMENT="" />
    <EXPORT ORDINAL="2577" NAME="?Row1AsVec3@C44iMatrix@@QAEPAVC3iVector@@XZ" PURGE="0" COMMENT="" />
    <EXPORT ORDINAL="2578" NAME="?Row1AsVec4@C44Matrix@@QAEPAVC4Vector@@XZ" PURGE="0" COMMENT="" />
    <EXPORT ORDINAL="2579" NAME="?Row1AsVec4@C44iMatrix@@QAEPAVC4iVector@@XZ" PURGE="0" COMMENT="" />
    <EXPORT ORDINAL="2580" NAME="?Row2@C33Matrix@@QAE?AVC3Vector@@XZ" PURGE="4" COMMENT="" />
    <EXPORT ORDINAL="2581" NAME="?Row2@C33iMatrix@@QAE?AVC3iVector@@XZ" PURGE="4" COMMENT="" />
    <EXPORT ORDINAL="2582" NAME="?Row2@C44Matrix@@QAE?AVC4Vector@@XZ" PURGE="4" COMMENT="" />
    <EXPORT ORDINAL="2583" NAME="?Row2@C44iMatrix@@QAE?AVC4iVector@@XZ" PURGE="4" COMMENT="" />
    <EXPORT ORDINAL="2584" NAME="?Row2AsVec3@C33Matrix@@QAEPAVC3Vector@@XZ" PURGE="0" COMMENT="" />
    <EXPORT ORDINAL="2585" NAME="?Row2AsVec3@C33iMatrix@@QAEPAVC3iVector@@XZ" PURGE="0" COMMENT="" />
    <EXPORT ORDINAL="2586" NAME="?Row2AsVec3@C44Matrix@@QAEPAVC3Vector@@XZ" PURGE="0" COMMENT="" />
    <EXPORT ORDINAL="2587" NAME="?Row2AsVec3@C44iMatrix@@QAEPAVC3iVector@@XZ" PURGE="0" COMMENT="" />
    <EXPORT ORDINAL="2588" NAME="?Row2AsVec4@C44Matrix@@QAEPAVC4Vector@@XZ" PURGE="0" COMMENT="" />
    <EXPORT ORDINAL="2589" NAME="?Row2AsVec4@C44iMatrix@@QAEPAVC4iVector@@XZ" PURGE="0" COMMENT="" />
    <EXPORT ORDINAL="2590" NAME="?Row3@C44Matrix@@QAE?AVC4Vector@@XZ" PURGE="4" COMMENT="" />
    <EXPORT ORDINAL="2591" NAME="?Row3@C44iMatrix@@QAE?AVC4iVector@@XZ" PURGE="4" COMMENT="" />
    <EXPORT ORDINAL="2592" NAME="?Row3AsVec3@C44Matrix@@QAEPAVC3Vector@@XZ" PURGE="0" COMMENT="" />
    <EXPORT ORDINAL="2593" NAME="?Row3AsVec3@C44iMatrix@@QAEPAVC3iVector@@XZ" PURGE="0" COMMENT="" />
    <EXPORT ORDINAL="2594" NAME="?Row3AsVec4@C44Matrix@@QAEPAVC4Vector@@XZ" PURGE="0" COMMENT="" />
    <EXPORT ORDINAL="2595" NAME="?Row3AsVec4@C44iMatrix@@QAEPAVC4iVector@@XZ" PURGE="0" COMMENT="" />
    <EXPORT ORDINAL="2596" NAME="?Run@CAppl@@UAEXXZ" PURGE="0" COMMENT="" />
    <EXPORT ORDINAL="2597" NAME="?Run@CPluginAppl@@UAEXXZ" PURGE="0" COMMENT="" />
    <EXPORT ORDINAL="2598" NAME="?RunBegin@CAppl@@UAEXXZ" PURGE="0" COMMENT="" />
    <EXPORT ORDINAL="2599" NAME="?RunEnd@CAppl@@UAEXXZ" PURGE="0" COMMENT="" />
    <EXPORT ORDINAL="2600" NAME="?SECFProc@CSpoolEnv@@SAJPAVCSubscriber@1@PBVCCFEntryParms@@PAVCCFEntryData@@@Z" PURGE="0" COMMENT="" />
    <EXPORT ORDINAL="2601" NAME="?Saturate@CGradient@@QAEXMPBV1@K@Z" PURGE="12" COMMENT="" />
    <EXPORT ORDINAL="2602" NAME="?Saturate_@CGradient@@IAEXMK@Z" PURGE="8" COMMENT="" />
    <EXPORT ORDINAL="2603" NAME="?SaveNewState@CPluginAppl@@SAXPAX@Z" PURGE="0" COMMENT="" />
    <EXPORT ORDINAL="2604" NAME="?SaveToRsrc@CGradient@@QAEEJJPAE@Z" PURGE="12" COMMENT="" />
    <EXPORT ORDINAL="2605" NAME="?SavedMicroSeconds@CTimer@@QBEKXZ" PURGE="0" COMMENT="" />
    <EXPORT ORDINAL="2606" NAME="?SavedMilliSeconds@CTimer@@QBEKXZ" PURGE="0" COMMENT="" />
    <EXPORT ORDINAL="2607" NAME="?SavedSeconds@CTimer@@QBEKXZ" PURGE="0" COMMENT="" />
    <EXPORT ORDINAL="2608" NAME="?SavedTicks@CTimer@@QBEKXZ" PURGE="0" COMMENT="" />
    <EXPORT ORDINAL="2609" NAME="?Scale255@CImVector@@QAEXK@Z" PURGE="4" COMMENT="" />
    <EXPORT ORDINAL="2610" NAME="?Scale255RGB@CImVector@@QAEXK@Z" PURGE="4" COMMENT="" />
    <EXPORT ORDINAL="2611" NAME="?Scale255RGB_@CImVector@@IAEXK@Z" PURGE="4" COMMENT="" />
    <EXPORT ORDINAL="2612" NAME="?Scale255_@CImVector@@IAEXK@Z" PURGE="4" COMMENT="" />
    <EXPORT ORDINAL="2613" NAME="?Scale@C23Affine@@QAEXNN@Z" PURGE="16" COMMENT="" />
    <EXPORT ORDINAL="2614" NAME="?Scale@C2Vector@@QAEXM@Z" PURGE="4" COMMENT="" />
    <EXPORT ORDINAL="2615" NAME="?Scale@C2iVector@@QAEXJ@Z" PURGE="4" COMMENT="" />
    <EXPORT ORDINAL="2616" NAME="?Scale@C3Vector@@QAEXM@Z" PURGE="4" COMMENT="" />
    <EXPORT ORDINAL="2617" NAME="?Scale@C3iVector@@QAEXJ@Z" PURGE="4" COMMENT="" />
    <EXPORT ORDINAL="2618" NAME="?Scale@C4Vector@@QAEXM@Z" PURGE="4" COMMENT="" />
    <EXPORT ORDINAL="2619" NAME="?Scale@C4iVector@@QAEXJ@Z" PURGE="4" COMMENT="" />
    <EXPORT ORDINAL="2620" NAME="?Scale@CImVector@@QAEXK@Z" PURGE="4" COMMENT="" />
    <EXPORT ORDINAL="2621" NAME="?ScaleC255@CImVector@@KAEKK@Z" PURGE="0" COMMENT="" />
    <EXPORT ORDINAL="2622" NAME="?ScaleC@CImVector@@KAEKK@Z" PURGE="0" COMMENT="" />
    <EXPORT ORDINAL="2623" NAME="?ScaleIVs@CImage@@UAEEK@Z" PURGE="4" COMMENT="" />
    <EXPORT ORDINAL="2624" NAME="?ScaleIVs@CImage@@UAEEPAV1@0@Z" PURGE="8" COMMENT="" />
    <EXPORT ORDINAL="2625" NAME="?ScaleIVs@CImage@@UAEEPAV1@@Z" PURGE="4" COMMENT="" />
    <EXPORT ORDINAL="2626" NAME="?ScaleIVsRGB@CImage@@UAEEK@Z" PURGE="4" COMMENT="" />
    <EXPORT ORDINAL="2627" NAME="?ScaleIVsRGB@CImage@@UAEEPAV1@0@Z" PURGE="8" COMMENT="" />
    <EXPORT ORDINAL="2628" NAME="?ScaleIVsRGB@CImage@@UAEEPAV1@@Z" PURGE="4" COMMENT="" />
    <EXPORT ORDINAL="2629" NAME="?ScaleRGB@CImVector@@QAEXK@Z" PURGE="4" COMMENT="" />
    <EXPORT ORDINAL="2630" NAME="?ScaleRGB_@CImVector@@IAEXK@Z" PURGE="4" COMMENT="" />
    <EXPORT ORDINAL="2631" NAME="?Scale_@CImVector@@IAEXK@Z" PURGE="4" COMMENT="" />
    <EXPORT ORDINAL="2632" NAME="?Scanning@CDynArray@@QBEEXZ" PURGE="0" COMMENT="" />
    <EXPORT ORDINAL="2633" NAME="?Scanning@CDynTable@@QBEEXZ" PURGE="0" COMMENT="" />
    <EXPORT ORDINAL="2634" NAME="?Screen@CImVector64@@SAXPAV1@00@Z" PURGE="0" COMMENT="" />
    <EXPORT ORDINAL="2635" NAME="?Screen@CImVector64@@SAXPAV1@00K@Z" PURGE="0" COMMENT="" />
    <EXPORT ORDINAL="2636" NAME="?ScrollIVs@CImage@@UAEEABVC2iVector@@PBVCImVector@@@Z" PURGE="8" COMMENT="" />
    <EXPORT ORDINAL="2637" NAME="?Search@CCmFunction@@QAEEPBVCCFEntry@@AAKQ6AJQAD2@Z@Z" PURGE="12" COMMENT="" />
    <EXPORT ORDINAL="2638" NAME="?Search@CDynArray@@QAEEJAAK@Z" PURGE="8" COMMENT="" />
    <EXPORT ORDINAL="2639" NAME="?Search@CDynTable@@QAEEQADAAKQ6AJ00@Z@Z" PURGE="12" COMMENT="" />
    <EXPORT ORDINAL="2640" NAME="?SearchBackwards@CCmFunction@@QAEEPBVCCFEntry@@AAVCIterator@CDynTable@@Q6AJQAD2@Z@Z" PURGE="12" COMMENT="" />
    <EXPORT ORDINAL="2641" NAME="?SearchBackwards@CDynArray@@QAEEJAAVCIterator@1@@Z" PURGE="8" COMMENT="" />
    <EXPORT ORDINAL="2642" NAME="?SearchBackwards@CDynTable@@QAEEQADAAVCIterator@1@Q6AJ00@Z@Z" PURGE="12" COMMENT="" />
    <EXPORT ORDINAL="2643" NAME="?SearchForID@CMenu@@QAEEJAAK@Z" PURGE="8" COMMENT="" />
    <EXPORT ORDINAL="2644" NAME="?SearchForName@CMenu@@QAEEPAEAAK@Z" PURGE="8" COMMENT="" />
    <EXPORT ORDINAL="2645" NAME="?SearchForward@CCmFunction@@QAEEPBVCCFEntry@@AAVCIterator@CDynTable@@Q6AJQAD2@Z@Z" PURGE="12" COMMENT="" />
    <EXPORT ORDINAL="2646" NAME="?SearchForward@CDynArray@@QAEEJAAVCIterator@1@@Z" PURGE="8" COMMENT="" />
    <EXPORT ORDINAL="2647" NAME="?SearchForward@CDynTable@@QAEEQADAAVCIterator@1@Q6AJ00@Z@Z" PURGE="12" COMMENT="" />
    <EXPORT ORDINAL="2648" NAME="?Seconds@CTimer@@QBEKXZ" PURGE="0" COMMENT="" />
    <EXPORT ORDINAL="2649" NAME="?Seed@CRndSeed@@QBEKXZ" PURGE="0" COMMENT="" />
    <EXPORT ORDINAL="2650" NAME="?Select@CMemPool@@QBEPADXZ" PURGE="0" COMMENT="" />
    <EXPORT ORDINAL="2651" NAME="?Select@CMenu@@QAEEPAXKKEPAVCRegion@@@Z" PURGE="20" COMMENT="" />
    <EXPORT ORDINAL="2652" NAME="?Selected@CDialogItem@@UAEJXZ" PURGE="0" COMMENT="" />
    <EXPORT ORDINAL="2653" NAME="?Send@CAppl@@UAEJJABVCReceiverData@1@@Z" PURGE="8" COMMENT="" />
    <EXPORT ORDINAL="2654" NAME="?SendUserInteraction@CPluginAppl@@UAEJW4EUserInterfaceMsg@1@ABVCReceiverData@CAppl@@@Z" PURGE="8" COMMENT="" />
    <EXPORT ORDINAL="2655" NAME="?Set32b_@CMemPool@@CAXPADEK@Z" PURGE="0" COMMENT="" />
    <EXPORT ORDINAL="2656" NAME="?Set@C2Vector@@QAEXMM@Z" PURGE="8" COMMENT="" />
    <EXPORT ORDINAL="2657" NAME="?Set@C2iVector@@QAEXJJ@Z" PURGE="8" COMMENT="" />
    <EXPORT ORDINAL="2658" NAME="?Set@C3Vector@@QAEXMMM@Z" PURGE="12" COMMENT="" />
    <EXPORT ORDINAL="2659" NAME="?Set@C3iVector@@QAEXJJJ@Z" PURGE="12" COMMENT="" />
    <EXPORT ORDINAL="2660" NAME="?Set@C4Vector@@QAEXMMMM@Z" PURGE="16" COMMENT="" />
    <EXPORT ORDINAL="2661" NAME="?Set@C4iVector@@QAEXJJJJ@Z" PURGE="16" COMMENT="" />
    <EXPORT ORDINAL="2662" NAME="?Set@CImVector48@@QAEXKKK@Z" PURGE="12" COMMENT="" />
    <EXPORT ORDINAL="2663" NAME="?Set@CImVector64@@QAEXABVCImVector@@@Z" PURGE="4" COMMENT="" />
    <EXPORT ORDINAL="2664" NAME="?Set@CImVector64@@QAEXKK@Z" PURGE="8" COMMENT="" />
    <EXPORT ORDINAL="2665" NAME="?Set@CImVector64@@QAEXKKKK@Z" PURGE="16" COMMENT="" />
    <EXPORT ORDINAL="2666" NAME="?Set@CImVector@@QAEXABV1@@Z" PURGE="4" COMMENT="" />
    <EXPORT ORDINAL="2667" NAME="?Set@CImVector@@QAEXEEE@Z" PURGE="12" COMMENT="" />
    <EXPORT ORDINAL="2668" NAME="?Set@CImVector@@QAEXEEEE@Z" PURGE="16" COMMENT="" />
    <EXPORT ORDINAL="2669" NAME="?Set@CImVector@@QAEXK@Z" PURGE="4" COMMENT="" />
    <EXPORT ORDINAL="2670" NAME="?Set@CImVector@@QAEXPBV1@@Z" PURGE="4" COMMENT="" />
    <EXPORT ORDINAL="2671" NAME="?Set@CMemBlock@@QAEXE@Z" PURGE="4" COMMENT="" />
    <EXPORT ORDINAL="2672" NAME="?Set@CMemPool@@QAEXPADEK@Z" PURGE="12" COMMENT="" />
    <EXPORT ORDINAL="2673" NAME="?Set@CRange@@QAEXMM@Z" PURGE="8" COMMENT="" />
    <EXPORT ORDINAL="2674" NAME="?Set@CRect@@QAEXMMMM@Z" PURGE="16" COMMENT="" />
    <EXPORT ORDINAL="2675" NAME="?Set@CSpoolMem@@UAEXE@Z" PURGE="4" COMMENT="" />
    <EXPORT ORDINAL="2676" NAME="?Set@CiRange@@QAEXJJ@Z" PURGE="8" COMMENT="" />
    <EXPORT ORDINAL="2677" NAME="?Set@CiRect@@QAEXJJJJ@Z" PURGE="16" COMMENT="" />
    <EXPORT ORDINAL="2678" NAME="?SetA@CImVector64@@QAEXK@Z" PURGE="4" COMMENT="" />
    <EXPORT ORDINAL="2679" NAME="?SetA@CImVector@@QAEXE@Z" PURGE="4" COMMENT="" />
    <EXPORT ORDINAL="2680" NAME="?SetAR@CImVector64@@QAEXK@Z" PURGE="4" COMMENT="" />
    <EXPORT ORDINAL="2681" NAME="?SetAR@CImVector64@@QAEXKK@Z" PURGE="8" COMMENT="" />
    <EXPORT ORDINAL="2682" NAME="?SetAbort@CImSwapper@@QAEXE@Z" PURGE="4" COMMENT="" />
    <EXPORT ORDINAL="2683" NAME="?SetAbortProc@CNavProcess@@QAEXP6AEXZ@Z" PURGE="4" COMMENT="" />
    <EXPORT ORDINAL="2684" NAME="?SetActive@CToggleButtonItem@@QAEXE@Z" PURGE="4" COMMENT="" />
    <EXPORT ORDINAL="2685" NAME="?SetActiveArea@CImage@@UAEEABVCiRect@@@Z" PURGE="4" COMMENT="" />
    <EXPORT ORDINAL="2686" NAME="?SetActiveArea@COffscreen@@QAEXABVCiRect@@@Z" PURGE="4" COMMENT="" />
    <EXPORT ORDINAL="2687" NAME="?SetAllocMethod@CWindowsEnv@@SAXW4EAllocMethod@1@@Z" PURGE="0" COMMENT="" />
    <EXPORT ORDINAL="2688" NAME="?SetAlpha@CGradient@@QAEXKK@Z" PURGE="8" COMMENT="" />
    <EXPORT ORDINAL="2689" NAME="?SetAlpha_@CGradient@@IAEXKK@Z" PURGE="8" COMMENT="" />
    <EXPORT ORDINAL="2690" NAME="?SetAppWindow@CWinAppl@@QAEXPAX@Z" PURGE="4" COMMENT="" />
    <EXPORT ORDINAL="2691" NAME="?SetAsCurrent@CPlatformResFile@@QAEXXZ" PURGE="0" COMMENT="" />
    <EXPORT ORDINAL="2692" NAME="?SetAutoDelete@CSpoolEnv@@UAEXE@Z" PURGE="4" COMMENT="" />
    <EXPORT ORDINAL="2693" NAME="?SetB@CImVector64@@QAEXK@Z" PURGE="4" COMMENT="" />
    <EXPORT ORDINAL="2694" NAME="?SetB@CImVector@@QAEXE@Z" PURGE="4" COMMENT="" />
    <EXPORT ORDINAL="2695" NAME="?SetBackColor@CPDPort@@QAEXABURGBColor@@@Z" PURGE="4" COMMENT="" />
    <EXPORT ORDINAL="2696" NAME="?SetBlendValue@COpacityItem@@QAEXJ@Z" PURGE="4" COMMENT="" />
    <EXPORT ORDINAL="2697" NAME="?SetCTableID@CTexture@@QAEEK@Z" PURGE="4" COMMENT="" />
    <EXPORT ORDINAL="2698" NAME="?SetC_@CImVector@@IBEKKKK@Z" PURGE="12" COMMENT="" />
    <EXPORT ORDINAL="2699" NAME="?SetChanged@CGradient@@IAEXXZ" PURGE="0" COMMENT="" />
    <EXPORT ORDINAL="2700" NAME="?SetChanged@CHolder@CSpoolMem@@QAEXXZ" PURGE="0" COMMENT="" />
    <EXPORT ORDINAL="2701" NAME="?SetChanged@CPlatformData@CImage@@QAEXXZ" PURGE="0" COMMENT="" />
    <EXPORT ORDINAL="2702" NAME="?SetChanged@CSaScanner@CSpoolArray@@QAEXXZ" PURGE="0" COMMENT="" />
    <EXPORT ORDINAL="2703" NAME="?SetChanged@CSgNavigator@CSpoolGrid@@QAEXXZ" PURGE="0" COMMENT="" />
    <EXPORT ORDINAL="2704" NAME="?SetChanged@CSpoolMem@@UAEXXZ" PURGE="0" COMMENT="" />
    <EXPORT ORDINAL="2705" NAME="?SetCheckedIdentityItem@CMenu@@QAEXJKK@Z" PURGE="12" COMMENT="" />
    <EXPORT ORDINAL="2706" NAME="?SetCheckedItem@CMenu@@QAEXKKK@Z" PURGE="12" COMMENT="" />
    <EXPORT ORDINAL="2707" NAME="?SetClip@CGradient@@IAEXE@Z" PURGE="4" COMMENT="" />
    <EXPORT ORDINAL="2708" NAME="?SetColor@CGradient@@QAEXKKKKK@Z" PURGE="20" COMMENT="" />
    <EXPORT ORDINAL="2709" NAME="?SetColor@CPDUtils@@SAXAAURGBColor@@G@Z" PURGE="0" COMMENT="" />
    <EXPORT ORDINAL="2710" NAME="?SetColor@CPDUtils@@SAXAAURGBColor@@GGG@Z" PURGE="0" COMMENT="" />
    <EXPORT ORDINAL="2711" NAME="?SetColorDirect@CPDUtils@@SAXAAURGBColor@@GGG@Z" PURGE="0" COMMENT="" />
    <EXPORT ORDINAL="2712" NAME="?SetColor_@CGradient@@IAEXKKKKK@Z" PURGE="20" COMMENT="" />
    <EXPORT ORDINAL="2713" NAME="?SetConstantIV@CFrImNavigator@CImage@@QAEXABVCImVector@@@Z" PURGE="4" COMMENT="" />
    <EXPORT ORDINAL="2714" NAME="?SetCursor@CPDUtils@@SAXJ@Z" PURGE="0" COMMENT="" />
    <EXPORT ORDINAL="2715" NAME="?SetCursorState@CPDUtils@@SAXW4ECursorState@1@@Z" PURGE="0" COMMENT="" />
    <EXPORT ORDINAL="2716" NAME="?SetDefaultParams@CNavProcess@@UAEXXZ" PURGE="0" COMMENT="" />
    <EXPORT ORDINAL="2717" NAME="?SetDefaultParams@CTextureProcess@@UAEXXZ" PURGE="0" COMMENT="" />
    <EXPORT ORDINAL="2718" NAME="?SetDefaultState@CPluginAppl@@SAXPAX@Z" PURGE="0" COMMENT="" />
    <EXPORT ORDINAL="2719" NAME="?SetDiscardable@CSpoolMem@@UAEXE@Z" PURGE="4" COMMENT="" />
    <EXPORT ORDINAL="2720" NAME="?SetDistortAmt@CTexture@@QAEXM@Z" PURGE="4" COMMENT="" />
    <EXPORT ORDINAL="2721" NAME="?SetDistortID@CTexture@@QAEEK@Z" PURGE="4" COMMENT="" />
    <EXPORT ORDINAL="2722" NAME="?SetEFree@CCmFile@@IAEKAAUSEntry@1@@Z" PURGE="4" COMMENT="" />
    <EXPORT ORDINAL="2723" NAME="?SetEUsed@CCmFile@@IAEKAAUSEntry@1@@Z" PURGE="4" COMMENT="" />
    <EXPORT ORDINAL="2724" NAME="?SetEffectSelection@CEffectItem@@QAEXJ@Z" PURGE="4" COMMENT="" />
    <EXPORT ORDINAL="2725" NAME="?SetEffectValue@CEffectItem@@QAEXJ@Z" PURGE="4" COMMENT="" />
    <EXPORT ORDINAL="2726" NAME="?SetEntry@CCmFunction@@QAEXKPBVCCFEntry@@@Z" PURGE="8" COMMENT="" />
    <EXPORT ORDINAL="2727" NAME="?SetEntry@CDynArray@@QAEXKJ@Z" PURGE="8" COMMENT="" />
    <EXPORT ORDINAL="2728" NAME="?SetEntry@CDynTable@@QAEXKQAD@Z" PURGE="8" COMMENT="" />
    <EXPORT ORDINAL="2729" NAME="?SetEntry@CResItemTable@CResourceFile@@QAEXKPBUSResTableItem@12@@Z" PURGE="8" COMMENT="" />
    <EXPORT ORDINAL="2730" NAME="?SetEntry@CResTypeTable@CResourceFile@@QAEXKPBUSTypeTableItem@12@@Z" PURGE="8" COMMENT="" />
    <EXPORT ORDINAL="2731" NAME="?SetEventType@CPluginManager@@QAEXW4EHostEventType@CHostEvent@@@Z" PURGE="4" COMMENT="" />
    <EXPORT ORDINAL="2732" NAME="?SetExpansion@CDynArray@@QAEXK@Z" PURGE="4" COMMENT="" />
    <EXPORT ORDINAL="2733" NAME="?SetExpansion@CDynTable@@QAEXK@Z" PURGE="4" COMMENT="" />
    <EXPORT ORDINAL="2734" NAME="?SetFilePos@CFile@@QAEKW4EPosMode@1@J@Z" PURGE="8" COMMENT="" />
    <EXPORT ORDINAL="2735" NAME="?SetFocusItem@CDialog@@UAEXPAVCDialogItem@@@Z" PURGE="4" COMMENT="" />
    <EXPORT ORDINAL="2736" NAME="?SetFont@CPDPort@@QAEXJ@Z" PURGE="4" COMMENT="" />
    <EXPORT ORDINAL="2737" NAME="?SetFontMac@CPDPort@@QAEXJ@Z" PURGE="4" COMMENT="" />
    <EXPORT ORDINAL="2738" NAME="?SetFontSize@CPDPort@@QAEXJ@Z" PURGE="4" COMMENT="" />
    <EXPORT ORDINAL="2739" NAME="?SetFontStyle@CPDPort@@QAEXJJ@Z" PURGE="8" COMMENT="" />
    <EXPORT ORDINAL="2740" NAME="?SetForeColor@CPDPort@@QAEXABURGBColor@@@Z" PURGE="4" COMMENT="" />
    <EXPORT ORDINAL="2741" NAME="?SetFront@CDialogLayer@@QAEXPAVCDialog@@@Z" PURGE="4" COMMENT="" />
    <EXPORT ORDINAL="2742" NAME="?SetFrontModal@CDialogLayer@@QAEXE@Z" PURGE="4" COMMENT="" />
    <EXPORT ORDINAL="2743" NAME="?SetG@CImVector64@@QAEXK@Z" PURGE="4" COMMENT="" />
    <EXPORT ORDINAL="2744" NAME="?SetG@CImVector@@QAEXE@Z" PURGE="4" COMMENT="" />
    <EXPORT ORDINAL="2745" NAME="?SetGB@CImVector64@@QAEXK@Z" PURGE="4" COMMENT="" />
    <EXPORT ORDINAL="2746" NAME="?SetGB@CImVector64@@QAEXKK@Z" PURGE="8" COMMENT="" />
    <EXPORT ORDINAL="2747" NAME="?SetGlobalMouse@CPDUtils@@SAXJJJ@Z" PURGE="0" COMMENT="" />
    <EXPORT ORDINAL="2748" NAME="?SetGlueSelection@CGlueItem@@QAEXJE@Z" PURGE="8" COMMENT="" />
    <EXPORT ORDINAL="2749" NAME="?SetGlueValue@CGlueItem@@QAEXJ@Z" PURGE="4" COMMENT="" />
    <EXPORT ORDINAL="2750" NAME="?SetGrayscale@CGradient@@IAEXE@Z" PURGE="4" COMMENT="" />
    <EXPORT ORDINAL="2751" NAME="?SetHBMinDelay@CAppl@@UAEXK@Z" PURGE="4" COMMENT="" />
    <EXPORT ORDINAL="2752" NAME="?SetHBMinDispatchDelay@CAppl@@UAEXK@Z" PURGE="4" COMMENT="" />
    <EXPORT ORDINAL="2753" NAME="?SetHostResult@CPluginAppl@@QAEXF@Z" PURGE="4" COMMENT="" />
    <EXPORT ORDINAL="2754" NAME="?SetIVs@CImage@@UAEEJ@Z" PURGE="4" COMMENT="" />
    <EXPORT ORDINAL="2755" NAME="?SetIVs@CImage@@UAEEPBVCImVector@@@Z" PURGE="4" COMMENT="" />
    <EXPORT ORDINAL="2756" NAME="?SetIVsA@CImage@@UAEEE@Z" PURGE="4" COMMENT="" />
    <EXPORT ORDINAL="2757" NAME="?SetIVsB@CImage@@UAEEE@Z" PURGE="4" COMMENT="" />
    <EXPORT ORDINAL="2758" NAME="?SetIVsG@CImage@@UAEEE@Z" PURGE="4" COMMENT="" />
    <EXPORT ORDINAL="2759" NAME="?SetIVsR@CImage@@UAEEE@Z" PURGE="4" COMMENT="" />
    <EXPORT ORDINAL="2760" NAME="?SetIVsRGB@CImage@@UAEEJ@Z" PURGE="4" COMMENT="" />
    <EXPORT ORDINAL="2761" NAME="?SetIVsRGB@CImage@@UAEEPBVCImVector@@@Z" PURGE="4" COMMENT="" />
    <EXPORT ORDINAL="2762" NAME="?SetImageMode@CPluginManager@@QAEXW4EImagetype@CConversionNavigator@@@Z" PURGE="4" COMMENT="" />
    <EXPORT ORDINAL="2763" NAME="?SetInputRect@CPlugin@@IAEXPAVCiRect@@@Z" PURGE="4" COMMENT="" />
    <EXPORT ORDINAL="2764" NAME="?SetInputRect@CPluginAppl@@QAEXPBVCiRect@@@Z" PURGE="4" COMMENT="" />
    <EXPORT ORDINAL="2765" NAME="?SetItem@CMenu@@QAEXKJPAE@Z" PURGE="12" COMMENT="" />
    <EXPORT ORDINAL="2766" NAME="?SetLastItemIndexSelected@CMenu@@QAEXJ@Z" PURGE="4" COMMENT="" />
    <EXPORT ORDINAL="2767" NAME="?SetLayerProcID@CTexture@@QAEEK@Z" PURGE="4" COMMENT="" />
    <EXPORT ORDINAL="2768" NAME="?SetLimit@CUserParamStack@CNavProcess@@QAEXK@Z" PURGE="4" COMMENT="" />
    <EXPORT ORDINAL="2769" NAME="?SetLocalMouse@CPDUtils@@SAXPAXJJ@Z" PURGE="0" COMMENT="" />
    <EXPORT ORDINAL="2770" NAME="?SetLogicalOrigin@CImage@@UAEXABVC2iVector@@@Z" PURGE="4" COMMENT="" />
    <EXPORT ORDINAL="2771" NAME="?SetMRCFSorted@CAppl@@UAEXXZ" PURGE="0" COMMENT="" />
    <EXPORT ORDINAL="2772" NAME="?SetMRCFSubscriberPriority@CAppl@@UAEEJJ@Z" PURGE="8" COMMENT="" />
    <EXPORT ORDINAL="2773" NAME="?SetMRCFUnsorted@CAppl@@UAEXXZ" PURGE="0" COMMENT="" />
    <EXPORT ORDINAL="2774" NAME="?SetMaskRect@CPlugin@@IAEXPAVCiRect@@@Z" PURGE="4" COMMENT="" />
    <EXPORT ORDINAL="2775" NAME="?SetMaskRect@CPluginAppl@@QAEXPBVCiRect@@@Z" PURGE="4" COMMENT="" />
    <EXPORT ORDINAL="2776" NAME="?SetMemory_@CMemPool@@CAXPADEK@Z" PURGE="0" COMMENT="" />
    <EXPORT ORDINAL="2777" NAME="?SetNextToggle@CToggleButtonItem@@QAEXPAV1@@Z" PURGE="4" COMMENT="" />
    <EXPORT ORDINAL="2778" NAME="?SetNotChanged@CHolder@CSpoolMem@@QAEXXZ" PURGE="0" COMMENT="" />
    <EXPORT ORDINAL="2779" NAME="?SetOpacitySelection@COpacityItem@@QAEXJ@Z" PURGE="4" COMMENT="" />
    <EXPORT ORDINAL="2780" NAME="?SetOpacityValue@COpacityItem@@QAEXJ@Z" PURGE="4" COMMENT="" />
    <EXPORT ORDINAL="2781" NAME="?SetOutputRect@CPlugin@@IAEXPAVCiRect@@@Z" PURGE="4" COMMENT="" />
    <EXPORT ORDINAL="2782" NAME="?SetOutputRect@CPluginAppl@@QAEXPBVCiRect@@@Z" PURGE="4" COMMENT="" />
    <EXPORT ORDINAL="2783" NAME="?SetPDDResult@CWinAppl@@SAXPBVCReceiverData@CAppl@@J@Z" PURGE="0" COMMENT="" />
    <EXPORT ORDINAL="2784" NAME="?SetPDDwParam@CWinAppl@@SAXPBVCReceiverData@CAppl@@I@Z" PURGE="0" COMMENT="" />
    <EXPORT ORDINAL="2785" NAME="?SetParameter@CNavProcess@@UAEXJJJJJ@Z" PURGE="20" COMMENT="" />
    <EXPORT ORDINAL="2786" NAME="?SetParameter@CTextureProcess@@UAEXJJJJJ@Z" PURGE="20" COMMENT="" />
    <EXPORT ORDINAL="2787" NAME="?SetParent@CPluginManager@@QAEXK@Z" PURGE="4" COMMENT="" />
    <EXPORT ORDINAL="2788" NAME="?SetParentIndex@CPluginManager@@QAEXJ@Z" PURGE="4" COMMENT="" />
    <EXPORT ORDINAL="2789" NAME="?SetPeriod@CRenderPeriod@@QAEXK@Z" PURGE="4" COMMENT="" />
    <EXPORT ORDINAL="2790" NAME="?SetPointerBusy@CWinAppl@@UAEXXZ" PURGE="0" COMMENT="" />
    <EXPORT ORDINAL="2791" NAME="?SetPointerReady@CWinAppl@@UAEXXZ" PURGE="0" COMMENT="" />
    <EXPORT ORDINAL="2792" NAME="?SetPopupEnabled@COpacityItem@@QAEXE@Z" PURGE="4" COMMENT="" />
    <EXPORT ORDINAL="2793" NAME="?SetPrevToggle@CToggleButtonItem@@QAEXPAV1@@Z" PURGE="4" COMMENT="" />
    <EXPORT ORDINAL="2794" NAME="?SetPreview@CNavProcess@@QAEXE@Z" PURGE="4" COMMENT="" />
    <EXPORT ORDINAL="2795" NAME="?SetProcessAreas@CNavProcess@@UAEXAAVCImageProcessData@1@@Z" PURGE="4" COMMENT="" />
    <EXPORT ORDINAL="2796" NAME="?SetProcessAreas@CNavProcess@@UAEXAAVCProcessData@1@@Z" PURGE="4" COMMENT="" />
    <EXPORT ORDINAL="2797" NAME="?SetProgressProc@CNavProcess@@QAEXP6AXJJ@Z@Z" PURGE="4" COMMENT="" />
    <EXPORT ORDINAL="2798" NAME="?SetProperty@CDialogItem@@QAEXKE@Z" PURGE="8" COMMENT="" />
    <EXPORT ORDINAL="2799" NAME="?SetR@CImVector64@@QAEXK@Z" PURGE="4" COMMENT="" />
    <EXPORT ORDINAL="2800" NAME="?SetR@CImVector@@QAEXE@Z" PURGE="4" COMMENT="" />
    <EXPORT ORDINAL="2801" NAME="?SetRCFSorted@CAppl@@UAEXXZ" PURGE="0" COMMENT="" />
    <EXPORT ORDINAL="2802" NAME="?SetRCFSubscriberPriority@CAppl@@UAEEJJ@Z" PURGE="8" COMMENT="" />
    <EXPORT ORDINAL="2803" NAME="?SetRCFSubscriberPriority@CPluginAppl@@UAEEJJ@Z" PURGE="8" COMMENT="" />
    <EXPORT ORDINAL="2804" NAME="?SetRCFUnsorted@CAppl@@UAEXXZ" PURGE="0" COMMENT="" />
    <EXPORT ORDINAL="2805" NAME="?SetRGB@CGradient@@QAEXKKKK@Z" PURGE="16" COMMENT="" />
    <EXPORT ORDINAL="2806" NAME="?SetRGB@CImVector64@@QAEXKKK@Z" PURGE="12" COMMENT="" />
    <EXPORT ORDINAL="2807" NAME="?SetRGB@CImVector@@QAEXABV1@@Z" PURGE="4" COMMENT="" />
    <EXPORT ORDINAL="2808" NAME="?SetRGB@CImVector@@QAEXEEE@Z" PURGE="12" COMMENT="" />
    <EXPORT ORDINAL="2809" NAME="?SetRGB@CImVector@@QAEXK@Z" PURGE="4" COMMENT="" />
    <EXPORT ORDINAL="2810" NAME="?SetRGB@CImVector@@QAEXPBV1@@Z" PURGE="4" COMMENT="" />
    <EXPORT ORDINAL="2811" NAME="?SetRGB_@CGradient@@IAEXKKKK@Z" PURGE="16" COMMENT="" />
    <EXPORT ORDINAL="2812" NAME="?SetRange@CGradient@@QAEXJJ@Z" PURGE="8" COMMENT="" />
    <EXPORT ORDINAL="2813" NAME="?SetRecoveryProc@CMemPool@@QAEXP6AXAAKPAD@Z@Z" PURGE="4" COMMENT="" />
    <EXPORT ORDINAL="2814" NAME="?SetRenderPeriod@CNavProcess@@QAEXK@Z" PURGE="4" COMMENT="" />
    <EXPORT ORDINAL="2815" NAME="?SetRotation@CRotationItem@@QAEXJ@Z" PURGE="4" COMMENT="" />
    <EXPORT ORDINAL="2816" NAME="?SetSECFSubscriberPriority@CSpoolEnv@@UAEEPBVCSubscriber@1@J@Z" PURGE="8" COMMENT="" />
    <EXPORT ORDINAL="2817" NAME="?SetSaveContext@CAppContext@@QAEXPAX@Z" PURGE="4" COMMENT="" />
    <EXPORT ORDINAL="2818" NAME="?SetSavedMicroSeconds@CTimer@@QAEXK@Z" PURGE="4" COMMENT="" />
    <EXPORT ORDINAL="2819" NAME="?SetSavedMilliSeconds@CTimer@@QAEXK@Z" PURGE="4" COMMENT="" />
    <EXPORT ORDINAL="2820" NAME="?SetSavedSeconds@CTimer@@QAEXK@Z" PURGE="4" COMMENT="" />
    <EXPORT ORDINAL="2821" NAME="?SetSavedTicks@CTimer@@QAEXK@Z" PURGE="4" COMMENT="" />
    <EXPORT ORDINAL="2822" NAME="?SetSeed@CRndSeed@@QAEXK@Z" PURGE="4" COMMENT="" />
    <EXPORT ORDINAL="2823" NAME="?SetSelImage@COpacityItem@@QAEXPAVCPreviewImage@@@Z" PURGE="4" COMMENT="" />
    <EXPORT ORDINAL="2824" NAME="?SetSize@CFile@@QAEKK@Z" PURGE="4" COMMENT="" />
    <EXPORT ORDINAL="2825" NAME="?SetSortBy@CSpoolEnv@@UAEXW4ESortBy@1@@Z" PURGE="4" COMMENT="" />
    <EXPORT ORDINAL="2826" NAME="?SetSorted@CSpoolEnv@@UAEXXZ" PURGE="0" COMMENT="" />
    <EXPORT ORDINAL="2827" NAME="?SetStatus@CDialogItem@@QAEXK@Z" PURGE="4" COMMENT="" />
    <EXPORT ORDINAL="2828" NAME="?SetStatusStrings@CDialogItem@@QAEXPAE00@Z" PURGE="12" COMMENT="" />
    <EXPORT ORDINAL="2829" NAME="?SetString@CStaticTextItem@@QAEEPAEE@Z" PURGE="8" COMMENT="" />
    <EXPORT ORDINAL="2830" NAME="?SetSubmenuDir@CMenu@@QAEXJ@Z" PURGE="4" COMMENT="" />
    <EXPORT ORDINAL="2831" NAME="?SetTarget@CPluginAppl@@QAEXK@Z" PURGE="4" COMMENT="" />
    <EXPORT ORDINAL="2832" NAME="?SetTexParam@CTexture@@QAEXM@Z" PURGE="4" COMMENT="" />
    <EXPORT ORDINAL="2833" NAME="?SetTitle@CMenu@@QAEXPAE@Z" PURGE="4" COMMENT="" />
    <EXPORT ORDINAL="2834" NAME="?SetTitle@CPopupMenuItem@@QAEXPAE@Z" PURGE="4" COMMENT="" />
    <EXPORT ORDINAL="2835" NAME="?SetTitleToItem@CMenu@@QAEEJ@Z" PURGE="4" COMMENT="" />
    <EXPORT ORDINAL="2836" NAME="?SetTrans@CTexture@@QAEXVC23Affine@@@Z" PURGE="48" COMMENT="" />
    <EXPORT ORDINAL="2837" NAME="?SetTransparency@CGradient@@IAEXE@Z" PURGE="4" COMMENT="" />
    <EXPORT ORDINAL="2838" NAME="?SetUIFlag@CPluginManager@@QAEXE@Z" PURGE="4" COMMENT="" />
    <EXPORT ORDINAL="2839" NAME="?SetUMAcceleration@CUniMotion@@QAEXABVCRange@@@Z" PURGE="4" COMMENT="" />
    <EXPORT ORDINAL="2840" NAME="?SetUMAccelerationType@CUniMotion@@QAEXW4EAccType@1@@Z" PURGE="4" COMMENT="" />
    <EXPORT ORDINAL="2841" NAME="?SetUMHigh@CUniMotion@@QAEXABVCRange@@@Z" PURGE="4" COMMENT="" />
    <EXPORT ORDINAL="2842" NAME="?SetUMLow@CUniMotion@@QAEXABVCRange@@@Z" PURGE="4" COMMENT="" />
    <EXPORT ORDINAL="2843" NAME="?SetUMMaxVelocity@CUniMotion@@QAEXABVCRange@@@Z" PURGE="4" COMMENT="" />
    <EXPORT ORDINAL="2844" NAME="?SetUMMiddle@CUniMotion@@QAEXABVCRange@@@Z" PURGE="4" COMMENT="" />
    <EXPORT ORDINAL="2845" NAME="?SetUMStabilityHigh@CUniMotion@@QAEXABVCRange@@@Z" PURGE="4" COMMENT="" />
    <EXPORT ORDINAL="2846" NAME="?SetUMStabilityLow@CUniMotion@@QAEXABVCRange@@@Z" PURGE="4" COMMENT="" />
    <EXPORT ORDINAL="2847" NAME="?SetUMStabilityMiddle@CUniMotion@@QAEXABVCRange@@@Z" PURGE="4" COMMENT="" />
    <EXPORT ORDINAL="2848" NAME="?SetUMUseMiddle@CUniMotion@@QAEXE@Z" PURGE="4" COMMENT="" />
    <EXPORT ORDINAL="2849" NAME="?SetUnchanged@CPlatformData@CImage@@QAEXXZ" PURGE="0" COMMENT="" />
    <EXPORT ORDINAL="2850" NAME="?SetUnchanged@CSaScanner@CSpoolArray@@QAEXXZ" PURGE="0" COMMENT="" />
    <EXPORT ORDINAL="2851" NAME="?SetUnchanged@CSgNavigator@CSpoolGrid@@QAEXXZ" PURGE="0" COMMENT="" />
    <EXPORT ORDINAL="2852" NAME="?SetUndoLimit@CNavProcess@@QAEXK@Z" PURGE="4" COMMENT="" />
    <EXPORT ORDINAL="2853" NAME="?SetUnsorted@CSpoolEnv@@UAEXXZ" PURGE="0" COMMENT="" />
    <EXPORT ORDINAL="2854" NAME="?SetUpTime@CUniMotion@@AAEXXZ" PURGE="0" COMMENT="" />
    <EXPORT ORDINAL="2855" NAME="?SetValue@CSliderItem@@UAEJJ@Z" PURGE="4" COMMENT="" />
    <EXPORT ORDINAL="2856" NAME="?SetValue@CSliderPopup@@QAEEJE@Z" PURGE="8" COMMENT="" />
    <EXPORT ORDINAL="2857" NAME="?SetValue@CSliderWidgetItem@@QAEXJ@Z" PURGE="4" COMMENT="" />
    <EXPORT ORDINAL="2858" NAME="?SetValueR@CSliderItem@@UAEXM@Z" PURGE="4" COMMENT="" />
    <EXPORT ORDINAL="2859" NAME="?SetWinClip@CMenu@@IAEXXZ" PURGE="0" COMMENT="" />
    <EXPORT ORDINAL="2860" NAME="?Setup@CBitmap@@UAEEABVCBitmapInit@@@Z" PURGE="4" COMMENT="" />
    <EXPORT ORDINAL="2861" NAME="?Setup@CPlatformResFile@@QAEXABUFSSpec@@@Z" PURGE="4" COMMENT="" />
    <EXPORT ORDINAL="2862" NAME="?Setup@CPlatformResFile@@QAEXQAEJ@Z" PURGE="8" COMMENT="" />
    <EXPORT ORDINAL="2863" NAME="?SetupAreas@CImage@@SAEAAVCiRect@@PAV1@0101@Z" PURGE="0" COMMENT="" />
    <EXPORT ORDINAL="2864" NAME="?SetupAreas@CImage@@SAEAAVCiRect@@PAV1@01@Z" PURGE="0" COMMENT="" />
    <EXPORT ORDINAL="2865" NAME="?SetupAreas@CImage@@UAEEAAVCiRect@@0PAV1@01@Z" PURGE="20" COMMENT="" />
    <EXPORT ORDINAL="2866" NAME="?SetupAreas@CImage@@UAEEAAVCiRect@@0PAV1@@Z" PURGE="12" COMMENT="" />
    <EXPORT ORDINAL="2867" NAME="?ShapeDlg@CPluginAppl@@SAXPAX@Z" PURGE="0" COMMENT="" />
    <EXPORT ORDINAL="2868" NAME="?ShiftDown@CPDUtils@@SAEXZ" PURGE="0" COMMENT="" />
    <EXPORT ORDINAL="2869" NAME="?ShiftDown@CWinAppl@@UBEEXZ" PURGE="0" COMMENT="" />
    <EXPORT ORDINAL="2870" NAME="?Show@CCanvas@@UAEEXZ" PURGE="0" COMMENT="" />
    <EXPORT ORDINAL="2871" NAME="?Show@CMaskPopupObject@@UAEEABVC2iVector@@@Z" PURGE="4" COMMENT="" />
    <EXPORT ORDINAL="2872" NAME="?Show@CPopupObject@@UAEEABVCiRect@@@Z" PURGE="4" COMMENT="" />
    <EXPORT ORDINAL="2873" NAME="?ShowPointer@CWinAppl@@UAEXXZ" PURGE="0" COMMENT="" />
    <EXPORT ORDINAL="2874" NAME="?Similarity@CImVector64@@SAXPAV1@00@Z" PURGE="0" COMMENT="" />
    <EXPORT ORDINAL="2875" NAME="?Similarity@CImVector64@@SAXPAV1@00K@Z" PURGE="0" COMMENT="" />
    <EXPORT ORDINAL="2876" NAME="?Size@CMemBlock@@QBEKXZ" PURGE="0" COMMENT="" />
    <EXPORT ORDINAL="2877" NAME="?Size@CMemPool@@QBEKXZ" PURGE="0" COMMENT="" />
    <EXPORT ORDINAL="2878" NAME="?Size@COffscreen@@QAEABVC2iVector@@XZ" PURGE="0" COMMENT="" />
    <EXPORT ORDINAL="2879" NAME="?Size@CSpoolMem@@UBEKXZ" PURGE="0" COMMENT="" />
    <EXPORT ORDINAL="2880" NAME="?Sort@CDynArray@@QAEEQ6AJPBJ0@Z@Z" PURGE="4" COMMENT="" />
    <EXPORT ORDINAL="2881" NAME="?Sort@CDynTable@@QAEEQ6AJQAD0@Z@Z" PURGE="4" COMMENT="" />
    <EXPORT ORDINAL="2882" NAME="?SortBy@CSpoolEnv@@UBE?AW4ESortBy@1@XZ" PURGE="0" COMMENT="" />
    <EXPORT ORDINAL="2883" NAME="?SortByID@CPopupMenuItem@@QAEEXZ" PURGE="0" COMMENT="" />
    <EXPORT ORDINAL="2884" NAME="?SortByName@CPopupMenuItem@@QAEEXZ" PURGE="0" COMMENT="" />
    <EXPORT ORDINAL="2885" NAME="?SortItemsByID@CMenu@@QAEEE@Z" PURGE="4" COMMENT="" />
    <EXPORT ORDINAL="2886" NAME="?SortItemsByID@CMenuItemTable@CMenu@@QAEEXZ" PURGE="0" COMMENT="" />
    <EXPORT ORDINAL="2887" NAME="?SortItemsByName@CMenu@@QAEEE@Z" PURGE="4" COMMENT="" />
    <EXPORT ORDINAL="2888" NAME="?SortItemsByName@CMenuItemTable@CMenu@@QAEEXZ" PURGE="0" COMMENT="" />
    <EXPORT ORDINAL="2889" NAME="?SpaceBarIsDown@CPluginAppl@@UAEEXZ" PURGE="0" COMMENT="" />
    <EXPORT ORDINAL="2890" NAME="?SpoolEnv@CSubscriber@CSpoolEnv@@UBEPAV2@XZ" PURGE="0" COMMENT="" />
    <EXPORT ORDINAL="2891" NAME="?SpoolF@CSpoolMem@@UBEPAVCCmFile@@XZ" PURGE="0" COMMENT="" />
    <EXPORT ORDINAL="2892" NAME="?SpoolFIndex@CSpoolMem@@UBEKXZ" PURGE="0" COMMENT="" />
    <EXPORT ORDINAL="2893" NAME="?SpoolMem@CHolder@CSpoolMem@@QBEPAV2@XZ" PURGE="0" COMMENT="" />
    <EXPORT ORDINAL="2894" NAME="?SquaredMag@C2Vector@@QBEMXZ" PURGE="0" COMMENT="" />
    <EXPORT ORDINAL="2895" NAME="?SquaredMag@C2iVector@@QBEJXZ" PURGE="0" COMMENT="" />
    <EXPORT ORDINAL="2896" NAME="?SquaredMag@C3Vector@@QBEMXZ" PURGE="0" COMMENT="" />
    <EXPORT ORDINAL="2897" NAME="?SquaredMag@C3iVector@@QBEJXZ" PURGE="0" COMMENT="" />
    <EXPORT ORDINAL="2898" NAME="?SquaredMag@C4Vector@@QBEMXZ" PURGE="0" COMMENT="" />
    <EXPORT ORDINAL="2899" NAME="?SquaredMag@C4iVector@@QBEJXZ" PURGE="0" COMMENT="" />
    <EXPORT ORDINAL="2900" NAME="?Squeeze@CGradient@@QAEEMPBV1@K@Z" PURGE="12" COMMENT="" />
    <EXPORT ORDINAL="2901" NAME="?Squeeze_@CGradient@@IAEXMPBV1@K@Z" PURGE="12" COMMENT="" />
    <EXPORT ORDINAL="2902" NAME="?Stability@CUniMotion@@QBEMXZ" PURGE="0" COMMENT="" />
    <EXPORT ORDINAL="2903" NAME="?Stable@CUniMotion@@QBEEXZ" PURGE="0" COMMENT="" />
    <EXPORT ORDINAL="2904" NAME="?Status@CDialogItem@@QAEKXZ" PURGE="0" COMMENT="" />
    <EXPORT ORDINAL="2905" NAME="?Stay@CUniMotion@@AAEXXZ" PURGE="0" COMMENT="" />
    <EXPORT ORDINAL="2906" NAME="?Stop@CAppl@@UAEXXZ" PURGE="0" COMMENT="" />
    <EXPORT ORDINAL="2907" NAME="?Stop@CPluginAppl@@UAEXE@Z" PURGE="4" COMMENT="" />
    <EXPORT ORDINAL="2908" NAME="?Stop@CPluginAppl@@UAEXXZ" PURGE="0" COMMENT="" />
    <EXPORT ORDINAL="2909" NAME="?Stretch@CRange@@QAEXM@Z" PURGE="4" COMMENT="" />
    <EXPORT ORDINAL="2910" NAME="?Stretch@CRect@@QAEXM@Z" PURGE="4" COMMENT="" />
    <EXPORT ORDINAL="2911" NAME="?Stretch@CRect@@QAEXMM@Z" PURGE="8" COMMENT="" />
    <EXPORT ORDINAL="2912" NAME="?Stretch@CiRange@@QAEXJ@Z" PURGE="4" COMMENT="" />
    <EXPORT ORDINAL="2913" NAME="?Stretch@CiRect@@QAEXJ@Z" PURGE="4" COMMENT="" />
    <EXPORT ORDINAL="2914" NAME="?Stretch@CiRect@@QAEXJJ@Z" PURGE="8" COMMENT="" />
    <EXPORT ORDINAL="2915" NAME="?SubDestination@CUniMotion@@QBEMXZ" PURGE="0" COMMENT="" />
    <EXPORT ORDINAL="2916" NAME="?SubEvent@CUniMotion@@AAEXXZ" PURGE="0" COMMENT="" />
    <EXPORT ORDINAL="2917" NAME="?SubEventPulse@CUniMotion@@QBEMXZ" PURGE="0" COMMENT="" />
    <EXPORT ORDINAL="2918" NAME="?SubMoving@CUniMotion@@ABEEXZ" PURGE="0" COMMENT="" />
    <EXPORT ORDINAL="2919" NAME="?SubOrigin@CUniMotion@@QBEMXZ" PURGE="0" COMMENT="" />
    <EXPORT ORDINAL="2920" NAME="?SubSampleFrom@CConversionNavigator@@UAEJPAV1@AAVCSubSampleParams@1@@Z" PURGE="8" COMMENT="" />
    <EXPORT ORDINAL="2921" NAME="?SubToEntry@CSpoolEnv@@IAEPAVCCFEntry@@PBVCSubscriber@1@@Z" PURGE="4" COMMENT="" />
    <EXPORT ORDINAL="2922" NAME="?SubscribeToHCF@CAppl@@UAEEJP6AJJPBVCCFEntryParms@@PAVCCFEntryData@@@Z@Z" PURGE="8" COMMENT="" />
    <EXPORT ORDINAL="2923" NAME="?SubscribeToHCF@CPluginAppl@@UAEEJP6AJJPBVCCFEntryParms@@PAVCCFEntryData@@@Z@Z" PURGE="8" COMMENT="" />
    <EXPORT ORDINAL="2924" NAME="?SubscribeToMRCF@CAppl@@UAEEJP6AJJPBVCCFEntryParms@@PAVCCFEntryData@@@ZJ@Z" PURGE="12" COMMENT="" />
    <EXPORT ORDINAL="2925" NAME="?SubscribeToRCF@CAppl@@UAEEJP6AJJPBVCCFEntryParms@@PAVCCFEntryData@@@ZJ@Z" PURGE="12" COMMENT="" />
    <EXPORT ORDINAL="2926" NAME="?SubscribeToRCF@CPluginAppl@@UAEEJP6AJJPBVCCFEntryParms@@PAVCCFEntryData@@@ZJ@Z" PURGE="12" COMMENT="" />
    <EXPORT ORDINAL="2927" NAME="?SubscribeToSECF@CSpoolEnv@@UAEEPBVCSubscriber@1@P6AJJPBVCCFEntryParms@@PAVCCFEntryData@@@ZJ@Z" PURGE="12" COMMENT="" />
    <EXPORT ORDINAL="2928" NAME="?SubscribeToUICF@CPluginAppl@@UAEEJP6AJJPBVCCFEntryParms@@PAVCCFEntryData@@@ZJ@Z" PURGE="12" COMMENT="" />
    <EXPORT ORDINAL="2929" NAME="?SubscriberSortP@CSpoolEnv@@KAJPBVCCFEntry@@0@Z" PURGE="0" COMMENT="" />
    <EXPORT ORDINAL="2930" NAME="?SubscribersCF@CSpoolEnv@@UAEPAVCCmFunction@@XZ" PURGE="0" COMMENT="" />
    <EXPORT ORDINAL="2931" NAME="?Subtract@CImVector64@@SAXPAV1@00@Z" PURGE="0" COMMENT="" />
    <EXPORT ORDINAL="2932" NAME="?Subtract@CImVector64@@SAXPAV1@00K@Z" PURGE="0" COMMENT="" />
    <EXPORT ORDINAL="2933" NAME="?SumC@C2Vector@@QBEMXZ" PURGE="0" COMMENT="" />
    <EXPORT ORDINAL="2934" NAME="?SumC@C2iVector@@QBEJXZ" PURGE="0" COMMENT="" />
    <EXPORT ORDINAL="2935" NAME="?SumC@C3Vector@@QBEMXZ" PURGE="0" COMMENT="" />
    <EXPORT ORDINAL="2936" NAME="?SumC@C3iVector@@QBEJXZ" PURGE="0" COMMENT="" />
    <EXPORT ORDINAL="2937" NAME="?SumC@C4Vector@@QBEMXZ" PURGE="0" COMMENT="" />
    <EXPORT ORDINAL="2938" NAME="?SumC@C4iVector@@QBEJXZ" PURGE="0" COMMENT="" />
    <EXPORT ORDINAL="2939" NAME="?SuspendCurrentEvent@CPluginAppl@@QAEXE@Z" PURGE="4" COMMENT="" />
    <EXPORT ORDINAL="2940" NAME="?Swap@CMemBlock@@QAEEAAV1@@Z" PURGE="4" COMMENT="" />
    <EXPORT ORDINAL="2941" NAME="?Swap@CSpoolMem@@UAEEAAV1@@Z" PURGE="4" COMMENT="" />
    <EXPORT ORDINAL="2942" NAME="?Swapper@CImSwapper@@IAEXXZ" PURGE="0" COMMENT="" />
    <EXPORT ORDINAL="2943" NAME="?SysPickColor@CPDUtils@@SAEAAURGBColor@@PAXPAVC2iVector@@@Z" PURGE="0" COMMENT="" />
    <EXPORT ORDINAL="2944" NAME="?Terminate@CBitmap@@SAXXZ" PURGE="0" COMMENT="" />
    <EXPORT ORDINAL="2945" NAME="?Terminate@CMaskPopupObject@@SAXXZ" PURGE="0" COMMENT="" />
    <EXPORT ORDINAL="2946" NAME="?Terminate@CMath@@SAEXZ" PURGE="0" COMMENT="" />
    <EXPORT ORDINAL="2947" NAME="?Terminate@CMemPool@@SAEXZ" PURGE="0" COMMENT="" />
    <EXPORT ORDINAL="2948" NAME="?Terminate@CMenu@@SAXXZ" PURGE="0" COMMENT="" />
    <EXPORT ORDINAL="2949" NAME="?Terminate@CPopupObject@@SAXXZ" PURGE="0" COMMENT="" />
    <EXPORT ORDINAL="2950" NAME="?Terminate@CWinAppl@@MAEEXZ" PURGE="0" COMMENT="" />
    <EXPORT ORDINAL="2951" NAME="?TerminateAllPlugins@CPluginAppl@@UAEXXZ" PURGE="0" COMMENT="" />
    <EXPORT ORDINAL="2952" NAME="?TerminatePlugin@CPluginAppl@@UAEEK@Z" PURGE="4" COMMENT="" />
    <EXPORT ORDINAL="2953" NAME="?TexParam@CTexture@@QBEMXZ" PURGE="0" COMMENT="" />
    <EXPORT ORDINAL="2954" NAME="?Ticks@CTimer@@QBEKXZ" PURGE="0" COMMENT="" />
    <EXPORT ORDINAL="2955" NAME="?TimeFPS@CFadeAnimation@CImage@@IAEXXZ" PURGE="0" COMMENT="" />
    <EXPORT ORDINAL="2956" NAME="?TimeUnit@CUniMotion@@QAEXXZ" PURGE="0" COMMENT="" />
    <EXPORT ORDINAL="2957" NAME="?TintIVs@CImage@@UAEEABVCImVector@@@Z" PURGE="4" COMMENT="" />
    <EXPORT ORDINAL="2958" NAME="?TintIVs@CImage@@UAEEJ@Z" PURGE="4" COMMENT="" />
    <EXPORT ORDINAL="2959" NAME="?TintIVs@CImage@@UAEEPAVCGradient@@@Z" PURGE="4" COMMENT="" />
    <EXPORT ORDINAL="2960" NAME="?Title@CMenu@@QAEPAEXZ" PURGE="0" COMMENT="" />
    <EXPORT ORDINAL="2961" NAME="?TitleIsDefault@CMenu@@QAEEXZ" PURGE="0" COMMENT="" />
    <EXPORT ORDINAL="2962" NAME="?TitleSize@CMenu@@QAEKXZ" PURGE="0" COMMENT="" />
    <EXPORT ORDINAL="2963" NAME="?ToFront@CCanvas@@UAEEXZ" PURGE="0" COMMENT="" />
    <EXPORT ORDINAL="2964" NAME="?ToFront@CDialog@@UAEEXZ" PURGE="0" COMMENT="" />
    <EXPORT ORDINAL="2965" NAME="?ToFront@CDialogLayer@@QAEXPAVCDialog@@@Z" PURGE="4" COMMENT="" />
    <EXPORT ORDINAL="2966" NAME="?ToGlobal@CPDUtils@@SAXAAVC2iVector@@PAX@Z" PURGE="0" COMMENT="" />
    <EXPORT ORDINAL="2967" NAME="?ToGlobal@CPDUtils@@SAXAAVCiRect@@PAX@Z" PURGE="0" COMMENT="" />
    <EXPORT ORDINAL="2968" NAME="?ToLocal@CPDUtils@@SAXAAVC2iVector@@PAX@Z" PURGE="0" COMMENT="" />
    <EXPORT ORDINAL="2969" NAME="?ToLocal@CPDUtils@@SAXAAVCiRect@@PAX@Z" PURGE="0" COMMENT="" />
    <EXPORT ORDINAL="2970" NAME="?ToRGBColor@CPDUtils@@SAXKAAURGBColor@@@Z" PURGE="0" COMMENT="" />
    <EXPORT ORDINAL="2971" NAME="?ToWinColor@CPDUtils@@SAKABURGBColor@@@Z" PURGE="0" COMMENT="" />
    <EXPORT ORDINAL="2972" NAME="?TopLeft@CRect@@QBE?AVC2Vector@@XZ" PURGE="4" COMMENT="" />
    <EXPORT ORDINAL="2973" NAME="?TopLeft@CiRect@@QBE?AVC2iVector@@XZ" PURGE="4" COMMENT="" />
    <EXPORT ORDINAL="2974" NAME="?TopRight@CRect@@QBE?AVC2Vector@@XZ" PURGE="4" COMMENT="" />
    <EXPORT ORDINAL="2975" NAME="?TopRight@CiRect@@QBE?AVC2iVector@@XZ" PURGE="4" COMMENT="" />
    <EXPORT ORDINAL="2976" NAME="?Total@CScanner@CMemBlock@@QBEKXZ" PURGE="0" COMMENT="" />
    <EXPORT ORDINAL="2977" NAME="?TotalArea@CImage@@UBE?AVCiRect@@XZ" PURGE="4" COMMENT="" />
    <EXPORT ORDINAL="2978" NAME="?TotalBytes@CNavigator@CMemBlock@@QBEKXZ" PURGE="0" COMMENT="" />
    <EXPORT ORDINAL="2979" NAME="?TotalBytes@CScanner@CMemBlock@@QBEKXZ" PURGE="0" COMMENT="" />
    <EXPORT ORDINAL="2980" NAME="?TotalBytes@CSpoolGrid@@QBEKXZ" PURGE="0" COMMENT="" />
    <EXPORT ORDINAL="2981" NAME="?TotalImageSize@CPlugin@@IAEAAVC2iVector@@XZ" PURGE="0" COMMENT="" />
    <EXPORT ORDINAL="2982" NAME="?TotalImageSize@CPluginAppl@@QAEAAVC2iVector@@XZ" PURGE="0" COMMENT="" />
    <EXPORT ORDINAL="2983" NAME="?TotalItems@CMenu@@QAEKXZ" PURGE="0" COMMENT="" />
    <EXPORT ORDINAL="2984" NAME="?TotalPlanes@CPlugin@@IAEKXZ" PURGE="0" COMMENT="" />
    <EXPORT ORDINAL="2985" NAME="?TotalPlanes@CPluginAppl@@QAEKXZ" PURGE="0" COMMENT="" />
    <EXPORT ORDINAL="2986" NAME="?TotalRows@CNavigator@CMemBlock@@QBEKXZ" PURGE="0" COMMENT="" />
    <EXPORT ORDINAL="2987" NAME="?TotalRows@CSpoolGrid@@QBEKXZ" PURGE="0" COMMENT="" />
    <EXPORT ORDINAL="2988" NAME="?TotalUnits@CNavigator@CMemBlock@@QBEKXZ" PURGE="0" COMMENT="" />
    <EXPORT ORDINAL="2989" NAME="?TotalUnits@CScanner@CMemBlock@@QBEKXZ" PURGE="0" COMMENT="" />
    <EXPORT ORDINAL="2990" NAME="?TotalUnits@CSpoolArray@@QBEKXZ" PURGE="0" COMMENT="" />
    <EXPORT ORDINAL="2991" NAME="?TotalUnits@CSpoolGrid@@QBEKXZ" PURGE="0" COMMENT="" />
    <EXPORT ORDINAL="2992" NAME="?TotalX@CNavigator@CMemBlock@@QBEKXZ" PURGE="0" COMMENT="" />
    <EXPORT ORDINAL="2993" NAME="?TotalY@CNavigator@CMemBlock@@QBEKXZ" PURGE="0" COMMENT="" />
    <EXPORT ORDINAL="2994" NAME="?Touch@CSpoolMem@@UAEXXZ" PURGE="0" COMMENT="" />
    <EXPORT ORDINAL="2995" NAME="?TrackItem@CDialogItem@@QAEEPBVCReceiverData@CAppl@@ABVC2iVector@@KPAVCiRect@@@Z" PURGE="16" COMMENT="" />
    <EXPORT ORDINAL="2996" NAME="?TrackMask@CDialogItem@@UAEEABVC2iVector@@@Z" PURGE="4" COMMENT="" />
    <EXPORT ORDINAL="2997" NAME="?TrackMenu@CMenu@@QAEEPAXPAVCRegion@@@Z" PURGE="8" COMMENT="" />
    <EXPORT ORDINAL="2998" NAME="?TrackSubmenu@CMenu@@QAEEPAXKJPAVCRegion@@@Z" PURGE="16" COMMENT="" />
    <EXPORT ORDINAL="2999" NAME="?Tracking@CDialogItem@@UAEJAAVCUITrackInfo@@@Z" PURGE="4" COMMENT="" />
    <EXPORT ORDINAL="3000" NAME="?Tracking@CDialogItem@@UAEJABVC2iVector@@0@Z" PURGE="8" COMMENT="" />
    <EXPORT ORDINAL="3001" NAME="?Tracking@CGlueItem@@UAEJABVC2iVector@@0@Z" PURGE="8" COMMENT="" />
    <EXPORT ORDINAL="3002" NAME="?Tracking@COpacityItem@@UAEJABVC2iVector@@0@Z" PURGE="8" COMMENT="" />
    <EXPORT ORDINAL="3003" NAME="?Tracking@CRotationItem@@UAEJABVC2iVector@@0@Z" PURGE="8" COMMENT="" />
    <EXPORT ORDINAL="3004" NAME="?Tracking@CSliderItem@@UAEJABVC2iVector@@0@Z" PURGE="8" COMMENT="" />
    <EXPORT ORDINAL="3005" NAME="?Tracking@CSliderWidgetItem@@UAEJABVC2iVector@@0@Z" PURGE="8" COMMENT="" />
    <EXPORT ORDINAL="3006" NAME="?Transpose@C22Matrix@@QBE?AV1@XZ" PURGE="4" COMMENT="" />
    <EXPORT ORDINAL="3007" NAME="?Transpose@C33Matrix@@QBE?AV1@XZ" PURGE="4" COMMENT="" />
    <EXPORT ORDINAL="3008" NAME="?Transpose@C33iMatrix@@QBE?AV1@XZ" PURGE="4" COMMENT="" />
    <EXPORT ORDINAL="3009" NAME="?Transpose@C44Matrix@@QBE?AV1@XZ" PURGE="4" COMMENT="" />
    <EXPORT ORDINAL="3010" NAME="?Transpose@C44iMatrix@@QBE?AV1@XZ" PURGE="4" COMMENT="" />
    <EXPORT ORDINAL="3011" NAME="?Type@CDialogItem@@QAEJXZ" PURGE="0" COMMENT="" />
    <EXPORT ORDINAL="3012" NAME="?TypeSearchProc@CResTypeTable@CResourceFile@@SAJPBUSTypeTableItem@12@K@Z" PURGE="0" COMMENT="" />
    <EXPORT ORDINAL="3013" NAME="?UICFIdToEntry@CPluginAppl@@IAEPAVCCFEntry@@J@Z" PURGE="4" COMMENT="" />
    <EXPORT ORDINAL="3014" NAME="?UICFProc@CDialog@@KAJPAV1@PBVCCFEntryParms@@PAVCCFEntryData@@@Z" PURGE="0" COMMENT="" />
    <EXPORT ORDINAL="3015" NAME="?UICFProc@CDialogItem@@SAJPAV1@PBVCCFEntryParms@@PAVCCFEntryData@@@Z" PURGE="0" COMMENT="" />
    <EXPORT ORDINAL="3016" NAME="?UICFProc@CPluginAppl@@KAJPAV1@PBVCCFEntryParms@@PAVCCFEntryData@@@Z" PURGE="0" COMMENT="" />
    <EXPORT ORDINAL="3017" NAME="?UMAcceleration@CUniMotion@@QBE?AVCRange@@XZ" PURGE="4" COMMENT="" />
    <EXPORT ORDINAL="3018" NAME="?UMAccelerationType@CUniMotion@@QBE?AW4EAccType@1@XZ" PURGE="0" COMMENT="" />
    <EXPORT ORDINAL="3019" NAME="?UMHigh@CUniMotion@@QBE?AVCRange@@XZ" PURGE="4" COMMENT="" />
    <EXPORT ORDINAL="3020" NAME="?UMLow@CUniMotion@@QBE?AVCRange@@XZ" PURGE="4" COMMENT="" />
    <EXPORT ORDINAL="3021" NAME="?UMMaxVelocity@CUniMotion@@QBE?AVCRange@@XZ" PURGE="4" COMMENT="" />
    <EXPORT ORDINAL="3022" NAME="?UMMiddle@CUniMotion@@QBE?AVCRange@@XZ" PURGE="4" COMMENT="" />
    <EXPORT ORDINAL="3023" NAME="?UMStabilityHigh@CUniMotion@@QBE?AVCRange@@XZ" PURGE="4" COMMENT="" />
    <EXPORT ORDINAL="3024" NAME="?UMStabilityLow@CUniMotion@@QBE?AVCRange@@XZ" PURGE="4" COMMENT="" />
    <EXPORT ORDINAL="3025" NAME="?UMStabilityMiddle@CUniMotion@@QBE?AVCRange@@XZ" PURGE="4" COMMENT="" />
    <EXPORT ORDINAL="3026" NAME="?UMUsingMiddle@CUniMotion@@QBEEXZ" PURGE="0" COMMENT="" />
    <EXPORT ORDINAL="3027" NAME="?Undersample1to2@CTexture@@KAXPAVCImVector64@@PAKKK@Z" PURGE="0" COMMENT="" />
    <EXPORT ORDINAL="3028" NAME="?Undersample1to3@CTexture@@KAXPAVCImVector64@@PAKKK@Z" PURGE="0" COMMENT="" />
    <EXPORT ORDINAL="3029" NAME="?Undersample1to4@CTexture@@KAXPAVCImVector64@@PAKKK@Z" PURGE="0" COMMENT="" />
    <EXPORT ORDINAL="3030" NAME="?Undersample4x@CTexture@@KAXPAVCImVector64@@PAKK@Z" PURGE="0" COMMENT="" />
    <EXPORT ORDINAL="3031" NAME="?Undersample@CTexture@@KAXPAVCImVector64@@PAKK@Z" PURGE="0" COMMENT="" />
    <EXPORT ORDINAL="3032" NAME="?Undo@CUserParamStack@CNavProcess@@QAEEPAD@Z" PURGE="4" COMMENT="" />
    <EXPORT ORDINAL="3033" NAME="?Union@CRange@@SA?AV1@ABV1@0@Z" PURGE="0" COMMENT="" />
    <EXPORT ORDINAL="3034" NAME="?Union@CRect@@SA?AV1@ABV1@0@Z" PURGE="0" COMMENT="" />
    <EXPORT ORDINAL="3035" NAME="?Union@CRegion@@QAEEPAV1@0@Z" PURGE="8" COMMENT="" />
    <EXPORT ORDINAL="3036" NAME="?Union@CiRange@@SA?AV1@ABV1@0@Z" PURGE="0" COMMENT="" />
    <EXPORT ORDINAL="3037" NAME="?Union@CiRect@@SA?AV1@ABV1@0@Z" PURGE="0" COMMENT="" />
    <EXPORT ORDINAL="3038" NAME="?UniqueID@CResourceFile@@QAEJK@Z" PURGE="4" COMMENT="" />
    <EXPORT ORDINAL="3039" NAME="?UnitsPerRow@CNavigator@CMemBlock@@QBEKXZ" PURGE="0" COMMENT="" />
    <EXPORT ORDINAL="3040" NAME="?UnitsPerRow@CSpoolGrid@@QBEKXZ" PURGE="0" COMMENT="" />
    <EXPORT ORDINAL="3041" NAME="?Unregister@CCanvas@@SAXXZ" PURGE="0" COMMENT="" />
    <EXPORT ORDINAL="3042" NAME="?UnregisterNavigator@CMemBlock@@QAEXXZ" PURGE="0" COMMENT="" />
    <EXPORT ORDINAL="3043" NAME="?Unsorted@CAppl@@UBEEXZ" PURGE="0" COMMENT="" />
    <EXPORT ORDINAL="3044" NAME="?Unsorted@CSpoolEnv@@UBEEXZ" PURGE="0" COMMENT="" />
    <EXPORT ORDINAL="3045" NAME="?Unused@CDynArray@@QBEKXZ" PURGE="0" COMMENT="" />
    <EXPORT ORDINAL="3046" NAME="?Unused@CDynTable@@QBEKXZ" PURGE="0" COMMENT="" />
    <EXPORT ORDINAL="3047" NAME="?Up@CMirrorNav@@QAEEXZ" PURGE="0" COMMENT="" />
    <EXPORT ORDINAL="3048" NAME="?Up@CNavigator@CMemBlock@@QAEEXZ" PURGE="0" COMMENT="" />
    <EXPORT ORDINAL="3049" NAME="?Up_@CNavigator@CMemBlock@@QAEEXZ" PURGE="0" COMMENT="" />
    <EXPORT ORDINAL="3050" NAME="?Update@CEditText@@QAEXXZ" PURGE="0" COMMENT="" />
    <EXPORT ORDINAL="3051" NAME="?Update@CMaskPopupObject@@UAEXXZ" PURGE="0" COMMENT="" />
    <EXPORT ORDINAL="3052" NAME="?Update@CPopupObject@@UAEXXZ" PURGE="0" COMMENT="" />
    <EXPORT ORDINAL="3053" NAME="?Update@CSliderPopup@@UAEXXZ" PURGE="0" COMMENT="" />
    <EXPORT ORDINAL="3054" NAME="?UpdateColors@CTextureProcess@@QAEXPAVCGradient@@AAVCImNavigator@CImage@@@Z" PURGE="8" COMMENT="" />
    <EXPORT ORDINAL="3055" NAME="?UpdateEffectImage@CEffectItem@@QAEXXZ" PURGE="0" COMMENT="" />
    <EXPORT ORDINAL="3056" NAME="?UpdateGlueImage@CGlueItem@@QAEXXZ" PURGE="0" COMMENT="" />
    <EXPORT ORDINAL="3057" NAME="?UpdateHostEvent16@CPluginManager@@QAEXPAUFilterRecord16@@@Z" PURGE="4" COMMENT="" />
    <EXPORT ORDINAL="3058" NAME="?UpdateHostEvent32@CPluginManager@@QAEXPAUFilterRecord@@@Z" PURGE="4" COMMENT="" />
    <EXPORT ORDINAL="3059" NAME="?UpdateHostNavigators@CPluginAppl@@IAEEAAVCMemBlock@@00@Z" PURGE="12" COMMENT="" />
    <EXPORT ORDINAL="3060" NAME="?UpdateItem@CDialog@@UAEXPAVCDialogItem@@@Z" PURGE="4" COMMENT="" />
    <EXPORT ORDINAL="3061" NAME="?UpdateOpacityImage@COpacityItem@@QAEXXZ" PURGE="0" COMMENT="" />
    <EXPORT ORDINAL="3062" NAME="?UpdateR@CFadeAnimation@CImage@@QBEABVCiRect@@XZ" PURGE="0" COMMENT="" />
    <EXPORT ORDINAL="3063" NAME="?UpdateStatusItem@CDialog@@UAEXPAE@Z" PURGE="4" COMMENT="" />
    <EXPORT ORDINAL="3064" NAME="?UpdatesInQueue@CWinAppl@@UAEEXZ" PURGE="0" COMMENT="" />
    <EXPORT ORDINAL="3065" NAME="?UseEntry@CCmFile@@QAEKK@Z" PURGE="4" COMMENT="" />
    <EXPORT ORDINAL="3066" NAME="?UseFreeEntry@CCmFile@@QAEKAAK@Z" PURGE="4" COMMENT="" />
    <EXPORT ORDINAL="3067" NAME="?UseUI@CPluginAppl@@QAEEXZ" PURGE="0" COMMENT="" />
    <EXPORT ORDINAL="3068" NAME="?Used@CDynArray@@QBEKXZ" PURGE="0" COMMENT="" />
    <EXPORT ORDINAL="3069" NAME="?Used@CDynTable@@QBEKXZ" PURGE="0" COMMENT="" />
    <EXPORT ORDINAL="3070" NAME="?UsedLogicalMem@CAppl@@UAEEAAK@Z" PURGE="4" COMMENT="" />
    <EXPORT ORDINAL="3071" NAME="?UsedLogicalMem@CSpoolEnv@@UAEEAAK@Z" PURGE="4" COMMENT="" />
    <EXPORT ORDINAL="3072" NAME="?UsedMem@CAppl@@UAEEAAK@Z" PURGE="4" COMMENT="" />
    <EXPORT ORDINAL="3073" NAME="?UsedMem@CSpoolEnv@@UAEEAAK@Z" PURGE="4" COMMENT="" />
    <EXPORT ORDINAL="3074" NAME="?UserEventAvail@CPDUtils@@SAEXZ" PURGE="0" COMMENT="" />
    <EXPORT ORDINAL="3075" NAME="?VCenter@CPDUtils@@SAJABVCiRect@@@Z" PURGE="0" COMMENT="" />
    <EXPORT ORDINAL="3076" NAME="?Validate@CCanvas@@UAEXPBVCiRect@@@Z" PURGE="4" COMMENT="" />
    <EXPORT ORDINAL="3077" NAME="?ValidateHeader@CCmFile@@IAEKXZ" PURGE="0" COMMENT="" />
    <EXPORT ORDINAL="3078" NAME="?ValidateOpen@CCmFile@@IAEKXZ" PURGE="0" COMMENT="" />
    <EXPORT ORDINAL="3079" NAME="?Value@CRange@@QBEMAAVCRndSeed@@@Z" PURGE="4" COMMENT="" />
    <EXPORT ORDINAL="3080" NAME="?Value@CiRange@@QBEJAAVCRndSeed@@@Z" PURGE="4" COMMENT="" />
    <EXPORT ORDINAL="3081" NAME="?ValueH@CRect@@QBEMAAVCRndSeed@@@Z" PURGE="4" COMMENT="" />
    <EXPORT ORDINAL="3082" NAME="?ValueH@CiRect@@QBEJAAVCRndSeed@@@Z" PURGE="4" COMMENT="" />
    <EXPORT ORDINAL="3083" NAME="?ValueV@CRect@@QBEMAAVCRndSeed@@@Z" PURGE="4" COMMENT="" />
    <EXPORT ORDINAL="3084" NAME="?ValueV@CiRect@@QBEJAAVCRndSeed@@@Z" PURGE="4" COMMENT="" />
    <EXPORT ORDINAL="3085" NAME="?Velocity@CUniMotion@@QBEMXZ" PURGE="0" COMMENT="" />
    <EXPORT ORDINAL="3086" NAME="?VerifyImageRect@CPlugin@@IAEXPAVCiRect@@@Z" PURGE="4" COMMENT="" />
    <EXPORT ORDINAL="3087" NAME="?VerifyImageRect@CPluginAppl@@QAEXPBVCiRect@@@Z" PURGE="4" COMMENT="" />
    <EXPORT ORDINAL="3088" NAME="?Visible@CCanvas@@UBEEXZ" PURGE="0" COMMENT="" />
    <EXPORT ORDINAL="3089" NAME="?WaitClick@CWinAppl@@UAEXEEE@Z" PURGE="12" COMMENT="" />
    <EXPORT ORDINAL="3090" NAME="?WhatPrefsDialogAmI@CPluginAppl@@SAJPAX@Z" PURGE="0" COMMENT="" />
    <EXPORT ORDINAL="3091" NAME="?Width@CBitmap@@QAEKXZ" PURGE="0" COMMENT="" />
    <EXPORT ORDINAL="3092" NAME="?Width@CRect@@QBEMXZ" PURGE="0" COMMENT="" />
    <EXPORT ORDINAL="3093" NAME="?Width@CiRect@@QBEJXZ" PURGE="0" COMMENT="" />
    <EXPORT ORDINAL="3094" NAME="?WinAboutBogDialog@CPluginAppl@@QAEEJ@Z" PURGE="4" COMMENT="" />
    <EXPORT ORDINAL="3095" NAME="?WinAboutDlgProc@CPluginAppl@@SGHPAXIIJ@Z" PURGE="16" COMMENT="" />
    <EXPORT ORDINAL="3096" NAME="?WinHelpDialog@CPluginAppl@@QAEEJ@Z" PURGE="4" COMMENT="" />
    <EXPORT ORDINAL="3097" NAME="?WinPrefsDialog@CPluginAppl@@QAEEJ@Z" PURGE="4" COMMENT="" />
    <EXPORT ORDINAL="3098" NAME="?WinPrefsDlgProc@CPluginAppl@@SGHPAXIIJ@Z" PURGE="16" COMMENT="" />
    <EXPORT ORDINAL="3099" NAME="?Win_RowBytes@CImage@@SAKKK@Z" PURGE="0" COMMENT="" />
    <EXPORT ORDINAL="3100" NAME="?Write@CFile@@QAEKAAKABVCMemBlock@@@Z" PURGE="8" COMMENT="" />
    <EXPORT ORDINAL="3101" NAME="?Write@CFile@@QAEKAAKQAD@Z" PURGE="8" COMMENT="" />
    <EXPORT ORDINAL="3102" NAME="?Write@CResourceFile@@QAEKAAVCMemBlock@@KJQAEE@Z" PURGE="20" COMMENT="" />
    <EXPORT ORDINAL="3103" NAME="?Write@CResourceFile@@QAEKPADKKJQAEE@Z" PURGE="24" COMMENT="" />
    <EXPORT ORDINAL="3104" NAME="?WriteAlpha_@CGradient@@KAXAAPAEK@Z" PURGE="0" COMMENT="" />
    <EXPORT ORDINAL="3105" NAME="?WriteByName@CResourceFile@@QAEKAAVCMemBlock@@KQAEE@Z" PURGE="16" COMMENT="" />
    <EXPORT ORDINAL="3106" NAME="?WriteDelta_@CGradient@@KAXAAPAEK@Z" PURGE="0" COMMENT="" />
    <EXPORT ORDINAL="3107" NAME="?WriteDirectoryData@CCmFile@@IAEKXZ" PURGE="0" COMMENT="" />
    <EXPORT ORDINAL="3108" NAME="?WriteE@CCmFile@@IAEKABUSEntry@1@PAD@Z" PURGE="8" COMMENT="" />
    <EXPORT ORDINAL="3109" NAME="?WriteEPartial@CCmFile@@IAEKABUSEntry@1@PADKK@Z" PURGE="16" COMMENT="" />
    <EXPORT ORDINAL="3110" NAME="?WriteEntry@CCmFile@@QAEKKABVCMemBlock@@@Z" PURGE="8" COMMENT="" />
    <EXPORT ORDINAL="3111" NAME="?WriteEntry@CCmFile@@QAEKKPAD@Z" PURGE="8" COMMENT="" />
    <EXPORT ORDINAL="3112" NAME="?WriteEntryPartial@CCmFile@@QAEKKABVCMemBlock@@KK@Z" PURGE="16" COMMENT="" />
    <EXPORT ORDINAL="3113" NAME="?WriteEntryPartial@CCmFile@@QAEKKPADKK@Z" PURGE="16" COMMENT="" />
    <EXPORT ORDINAL="3114" NAME="?WriteGlobalPrefs@CPluginAppl@@UAEEXZ" PURGE="0" COMMENT="" />
    <EXPORT ORDINAL="3115" NAME="?WriteHeader@CCmFile@@IAEKXZ" PURGE="0" COMMENT="" />
    <EXPORT ORDINAL="3116" NAME="?WriteItemTable@CResourceFile@@IAEKK@Z" PURGE="4" COMMENT="" />
    <EXPORT ORDINAL="3117" NAME="?WriteNewItem@CResourceFile@@IAEKAAVCMemBlock@@KJQAEE@Z" PURGE="20" COMMENT="" />
    <EXPORT ORDINAL="3118" NAME="?WriteNewItem@CResourceFile@@IAEKPADKKJQAEE@Z" PURGE="24" COMMENT="" />
    <EXPORT ORDINAL="3119" NAME="?WriteRGB_@CGradient@@KAXAAPAEKKK@Z" PURGE="0" COMMENT="" />
    <EXPORT ORDINAL="3120" NAME="?WriteTag@CCmFile@@IAEKABUSTag@1@K@Z" PURGE="8" COMMENT="" />
    <EXPORT ORDINAL="3121" NAME="?WriteTypeTable@CResourceFile@@IAEKXZ" PURGE="0" COMMENT="" />
    <EXPORT ORDINAL="3122" NAME="?XOR@CRegion@@QAEEPAV1@0@Z" PURGE="8" COMMENT="" />
    <EXPORT ORDINAL="3123" NAME="?Zero@C22Matrix@@QAEXXZ" PURGE="0" COMMENT="" />
    <EXPORT ORDINAL="3124" NAME="?Zero@C23Affine@@QAEXXZ" PURGE="0" COMMENT="" />
    <EXPORT ORDINAL="3125" NAME="?Zero@C33Matrix@@QAEXXZ" PURGE="0" COMMENT="" />
    <EXPORT ORDINAL="3126" NAME="?Zero@C33iMatrix@@QAEXXZ" PURGE="0" COMMENT="" />
    <EXPORT ORDINAL="3127" NAME="?Zero@C44Matrix@@QAEXXZ" PURGE="0" COMMENT="" />
    <EXPORT ORDINAL="3128" NAME="?Zero@C44iMatrix@@QAEXXZ" PURGE="0" COMMENT="" />
    <EXPORT ORDINAL="3129" NAME="?Zero@CImVector48@@QAEXXZ" PURGE="0" COMMENT="" />
    <EXPORT ORDINAL="3130" NAME="?Zero@CImVector64@@QAEXXZ" PURGE="0" COMMENT="" />
    <EXPORT ORDINAL="3131" NAME="?Zero@CMemBlock@@QAEXXZ" PURGE="0" COMMENT="" />
    <EXPORT ORDINAL="3132" NAME="?Zero@CMemPool@@QAEXPADK@Z" PURGE="8" COMMENT="" />
    <EXPORT ORDINAL="3133" NAME="?Zero@CSpoolMem@@UAEXXZ" PURGE="0" COMMENT="" />
    <EXPORT ORDINAL="3134" NAME="?Zoom@C23Affine@@QAEXN@Z" PURGE="8" COMMENT="" />
    <EXPORT ORDINAL="3135" NAME="?ZoomImage@CTexture@@QAEEPAVCImage@@KMPAVCSimpleTexture@1@@Z" PURGE="16" COMMENT="" />
    <EXPORT ORDINAL="3136" NAME="?ZoomTexture@CTextureProcess@@QAEXM@Z" PURGE="4" COMMENT="" />
    <EXPORT ORDINAL="3137" NAME="?_2pi_@CMath@@2NB" PURGE="-1" COMMENT="" />
    <EXPORT ORDINAL="3138" NAME="?_2pir_@CMath@@2MB" PURGE="-1" COMMENT="" />
    <EXPORT ORDINAL="3139" NAME="?_rnd@CRange@@IBEMMAAVCRndSeed@@@Z" PURGE="8" COMMENT="" />
    <EXPORT ORDINAL="3140" NAME="?_rnd@CRect@@IBEMMAAVCRndSeed@@@Z" PURGE="8" COMMENT="" />
    <EXPORT ORDINAL="3141" NAME="?_rnd@CiRange@@IBEJJAAVCRndSeed@@@Z" PURGE="8" COMMENT="" />
    <EXPORT ORDINAL="3142" NAME="?_rnd@CiRect@@IBEJJAAVCRndSeed@@@Z" PURGE="8" COMMENT="" />
    <EXPORT ORDINAL="3143" NAME="?accesses@CSpoolMem@@1KA" PURGE="-1" COMMENT="" />
    <EXPORT ORDINAL="3144" NAME="?atanoid_@CMath@@SANNNNNNNM@Z" PURGE="0" COMMENT="" />
    <EXPORT ORDINAL="3145" NAME="?bias_@CMath@@SANNN@Z" PURGE="0" COMMENT="" />
    <EXPORT ORDINAL="3146" NAME="?blend4_@CFrImNavigator@CImage@@ABEXPAVCImVector64@@PBVCImVector@@111KK@Z" PURGE="28" COMMENT="" />
    <EXPORT ORDINAL="3147" NAME="?bstep_@CMath@@SAMMMMMM@Z" PURGE="0" COMMENT="" />
    <EXPORT ORDINAL="3148" NAME="?clamp_@CMath@@SAMMMM@Z" PURGE="0" COMMENT="" />
    <EXPORT ORDINAL="3149" NAME="?clamp_@CMath@@SANNNN@Z" PURGE="0" COMMENT="" />
    <EXPORT ORDINAL="3150" NAME="?classinstance@CCanvas@@1PAXA" PURGE="-1" COMMENT="" />
    <EXPORT ORDINAL="3151" NAME="?classinstance@CMaskPopupObject@@1PAXA" PURGE="-1" COMMENT="" />
    <EXPORT ORDINAL="3152" NAME="?classinstance@CMenu@@1PAXA" PURGE="-1" COMMENT="" />
    <EXPORT ORDINAL="3153" NAME="?classinstance@CPopupObject@@1PAXA" PURGE="-1" COMMENT="" />
    <EXPORT ORDINAL="3154" NAME="?classparent@CCanvas@@1PAXA" PURGE="-1" COMMENT="" />
    <EXPORT ORDINAL="3155" NAME="?cntlzw_@CMath@@SAKK@Z" PURGE="0" COMMENT="" />
    <EXPORT ORDINAL="3156" NAME="?cointoss_@CMath@@SAEMAAVCRndSeed@@@Z" PURGE="0" COMMENT="" />
    <EXPORT ORDINAL="3157" NAME="?cosoid_@CMath@@SAMNMMMM@Z" PURGE="0" COMMENT="" />
    <EXPORT ORDINAL="3158" NAME="?data@CMemPool@@1PAV1@A" PURGE="-1" COMMENT="" />
    <EXPORT ORDINAL="3159" NAME="?dice_@CMath@@SAKKAAVCRndSeed@@@Z" PURGE="0" COMMENT="" />
    <EXPORT ORDINAL="3160" NAME="?envAllocMethod@CWindowsEnv@@0W4EAllocMethod@1@A" PURGE="-1" COMMENT="" />
    <EXPORT ORDINAL="3161" NAME="?envNumberProcessors@CWindowsEnv@@0GA" PURGE="-1" COMMENT="" />
    <EXPORT ORDINAL="3162" NAME="?envOSDescription@CWindowsEnv@@0PBDB" PURGE="-1" COMMENT="" />
    <EXPORT ORDINAL="3163" NAME="?envOSMajorVersion@CWindowsEnv@@0GA" PURGE="-1" COMMENT="" />
    <EXPORT ORDINAL="3164" NAME="?envOSMinorVersion@CWindowsEnv@@0GA" PURGE="-1" COMMENT="" />
    <EXPORT ORDINAL="3165" NAME="?envOSType@CWindowsEnv@@0W4EOSType@1@A" PURGE="-1" COMMENT="" />
    <EXPORT ORDINAL="3166" NAME="?envOSVersion@CWindowsEnv@@0KA" PURGE="-1" COMMENT="" />
    <EXPORT ORDINAL="3167" NAME="?envProcessorDescription@CWindowsEnv@@0PBDB" PURGE="-1" COMMENT="" />
    <EXPORT ORDINAL="3168" NAME="?envProcessorType@CWindowsEnv@@0KA" PURGE="-1" COMMENT="" />
    <EXPORT ORDINAL="3169" NAME="?flor_@CFrImNavigator@CImage@@ABEJMM@Z" PURGE="8" COMMENT="" />
    <EXPORT ORDINAL="3170" NAME="?frem_@CFrImNavigator@CImage@@ABEMM@Z" PURGE="4" COMMENT="" />
    <EXPORT ORDINAL="3171" NAME="?fsGNoise2D@CTexture@@SAMKK@Z" PURGE="0" COMMENT="" />
    <EXPORT ORDINAL="3172" NAME="?fsGNoise@CTexture@@1PAMA" PURGE="-1" COMMENT="" />
    <EXPORT ORDINAL="3173" NAME="?fusGNoise2D@CTexture@@SAMKK@Z" PURGE="0" COMMENT="" />
    <EXPORT ORDINAL="3174" NAME="?fusGNoise@CTexture@@1PAMA" PURGE="-1" COMMENT="" />
    <EXPORT ORDINAL="3175" NAME="?fusUNoise2D@CTexture@@SAMKK@Z" PURGE="0" COMMENT="" />
    <EXPORT ORDINAL="3176" NAME="?fusUNoise@CTexture@@1PAMA" PURGE="-1" COMMENT="" />
    <EXPORT ORDINAL="3177" NAME="?gGlobalprefs@CPluginAppl@@1USGlobalPrefs@1@A" PURGE="-1" COMMENT="" />
    <EXPORT ORDINAL="3178" NAME="?gKPTFileCreator@CPluginAppl@@1PADA" PURGE="-1" COMMENT="" />
    <EXPORT ORDINAL="3179" NAME="?gObjCount@CBaseObject@@0KA" PURGE="-1" COMMENT="" />
    <EXPORT ORDINAL="3180" NAME="?gPrefsfilename@CPluginAppl@@1PAEA" PURGE="-1" COMMENT="" />
    <EXPORT ORDINAL="3181" NAME="?gPresetFileType@CPluginAppl@@1PACA" PURGE="-1" COMMENT="" />
    <EXPORT ORDINAL="3182" NAME="?gPresetfilename@CPluginAppl@@1PAEA" PURGE="-1" COMMENT="" />
    <EXPORT ORDINAL="3183" NAME="?gain_@CMath@@SANNN@Z" PURGE="0" COMMENT="" />
    <EXPORT ORDINAL="3184" NAME="?gamma_@CMath@@SANNN@Z" PURGE="-1" COMMENT="" />
    <EXPORT ORDINAL="3185" NAME="?gammai_@CMath@@SANNN@Z" PURGE="-1" COMMENT="" />
    <EXPORT ORDINAL="3186" NAME="?globalseed_@CMath@@SAAAVCRndSeed@@XZ" PURGE="0" COMMENT="" />
    <EXPORT ORDINAL="3187" NAME="?gs_@CMath@@0VCRndSeed@@A" PURGE="-1" COMMENT="" />
    <EXPORT ORDINAL="3188" NAME="?iclamp_@CMath@@SAJJJJ@Z" PURGE="0" COMMENT="" />
    <EXPORT ORDINAL="3189" NAME="?iclamp_@CMath@@SAJJK@Z" PURGE="0" COMMENT="" />
    <EXPORT ORDINAL="3190" NAME="?interruptFn@CTexture@@1P6AEXZA" PURGE="-1" COMMENT="" />
    <EXPORT ORDINAL="3191" NAME="?kCMaskPopupObjectWindowClass@CMaskPopupObject@@1QADA" PURGE="-1" COMMENT="" />
    <EXPORT ORDINAL="3192" NAME="?kCMenuWindowClass@CMenu@@1QADA" PURGE="-1" COMMENT="" />
    <EXPORT ORDINAL="3193" NAME="?kCPopupObjectWindowClass@CPopupObject@@1QADA" PURGE="-1" COMMENT="" />
    <EXPORT ORDINAL="3194" NAME="?kCWinApplWindowClass@CWinAppl@@1QADA" PURGE="-1" COMMENT="" />
    <EXPORT ORDINAL="3195" NAME="?kCWinApplWindowName@CWinAppl@@1QADA" PURGE="-1" COMMENT="" />
    <EXPORT ORDINAL="3196" NAME="?kCanvasWindowClass@CCanvas@@1QADA" PURGE="-1" COMMENT="" />
    <EXPORT ORDINAL="3197" NAME="?kCopyright@CCmFile@@1QADA" PURGE="-1" COMMENT="" />
    <EXPORT ORDINAL="3198" NAME="?kFileNameResType@CPluginManager@@2QADA" PURGE="-1" COMMENT="" />
    <EXPORT ORDINAL="3199" NAME="?kFileTypeResType@CPluginManager@@2QADA" PURGE="-1" COMMENT="" />
    <EXPORT ORDINAL="3200" NAME="?kPoolSizesResType@CPluginManager@@2QADA" PURGE="-1" COMMENT="" />
    <EXPORT ORDINAL="3201" NAME="?kTempFilePrefix@CFile@@2QADA" PURGE="-1" COMMENT="" />
    <EXPORT ORDINAL="3202" NAME="?left1_@CMath@@CAKK@Z" PURGE="0" COMMENT="" />
    <EXPORT ORDINAL="3203" NAME="?logoid10_@CMath@@SANNNNNNN@Z" PURGE="0" COMMENT="" />
    <EXPORT ORDINAL="3204" NAME="?logoid2_@CMath@@SANNNNNN@Z" PURGE="0" COMMENT="" />
    <EXPORT ORDINAL="3205" NAME="?logoid_@CMath@@SANNNNNNN@Z" PURGE="0" COMMENT="" />
    <EXPORT ORDINAL="3206" NAME="?memDC@CBitmap@@1PAXA" PURGE="-1" COMMENT="" />
    <EXPORT ORDINAL="3207" NAME="?noise32_@CMath@@0PBKB" PURGE="-1" COMMENT="" />
    <EXPORT ORDINAL="3208" NAME="?norm_@CFrImNavigator@CImage@@ABEMMM@Z" PURGE="8" COMMENT="" />
    <EXPORT ORDINAL="3209" NAME="?objects@CMemPool@@1PAV1@A" PURGE="-1" COMMENT="" />
    <EXPORT ORDINAL="3210" NAME="?pi_@CMath@@2NB" PURGE="-1" COMMENT="" />
    <EXPORT ORDINAL="3211" NAME="?pir_@CMath@@2MB" PURGE="-1" COMMENT="" />
    <EXPORT ORDINAL="3212" NAME="?pulse_@CMath@@SAMMMMMM@Z" PURGE="0" COMMENT="" />
    <EXPORT ORDINAL="3213" NAME="?random_@CMath@@SAJAAVCRndSeed@@@Z" PURGE="0" COMMENT="" />
    <EXPORT ORDINAL="3214" NAME="?randomlr_@CMath@@SANAAVCRndSeed@@@Z" PURGE="0" COMMENT="" />
    <EXPORT ORDINAL="3215" NAME="?randomr_@CMath@@SAMAAVCRndSeed@@@Z" PURGE="0" COMMENT="" />
    <EXPORT ORDINAL="3216" NAME="?randomu_@CMath@@SAKAAVCRndSeed@@@Z" PURGE="0" COMMENT="" />
    <EXPORT ORDINAL="3217" NAME="?resrefs@CWindowsEnv@@0PAJA" PURGE="-1" COMMENT="" />
    <EXPORT ORDINAL="3218" NAME="?rscale_@CMath@@0MB" PURGE="-1" COMMENT="" />
    <EXPORT ORDINAL="3219" NAME="?setseed_@CMath@@SAXK@Z" PURGE="0" COMMENT="" />
    <EXPORT ORDINAL="3220" NAME="?sinc_@CMath@@SANNN@Z" PURGE="0" COMMENT="" />
    <EXPORT ORDINAL="3221" NAME="?sincoid_@CMath@@SAMM@Z" PURGE="0" COMMENT="" />
    <EXPORT ORDINAL="3222" NAME="?sinoid_@CMath@@SAMNMMMM@Z" PURGE="0" COMMENT="" />
    <EXPORT ORDINAL="3223" NAME="?smoothstep_@CMath@@SAMMMM@Z" PURGE="0" COMMENT="" />
    <EXPORT ORDINAL="3224" NAME="?spline_@CMath@@SANNPANK@Z" PURGE="0" COMMENT="" />
    <EXPORT ORDINAL="3225" NAME="?splineb_@CMath@@0VC44Matrix@@B" PURGE="-1" COMMENT="" />
    <EXPORT ORDINAL="3226" NAME="?split1_@CMath@@SAXNAAMAAJ@Z" PURGE="0" COMMENT="" />
    <EXPORT ORDINAL="3227" NAME="?split1_@CMath@@SAXNAANAAJ@Z" PURGE="0" COMMENT="" />
    <EXPORT ORDINAL="3228" NAME="?split2_@CMath@@SAXNNAAM0AAJ1@Z" PURGE="0" COMMENT="" />
    <EXPORT ORDINAL="3229" NAME="?split2_@CMath@@SAXNNAAN0AAJ1@Z" PURGE="0" COMMENT="" />
    <EXPORT ORDINAL="3230" NAME="?sqrt_@CMath@@SANNMK@Z" PURGE="0" COMMENT="" />
    <EXPORT ORDINAL="3231" NAME="?sqrtoid_@CMath@@SANNNNNNNN@Z" PURGE="0" COMMENT="" />
    <EXPORT ORDINAL="3232" NAME="?srgn_@CMath@@0PAMA" PURGE="-1" COMMENT="" />
    <EXPORT ORDINAL="3233" NAME="?srgnoise_@CMath@@SAMK@Z" PURGE="0" COMMENT="" />
    <EXPORT ORDINAL="3234" NAME="?srgnoise_@CMath@@SAMKK@Z" PURGE="0" COMMENT="" />
    <EXPORT ORDINAL="3235" NAME="?srgnoise_@CMath@@SAMKKK@Z" PURGE="0" COMMENT="" />
    <EXPORT ORDINAL="3236" NAME="?step_@CMath@@SAMMMMM@Z" PURGE="0" COMMENT="" />
    <EXPORT ORDINAL="3237" NAME="?uint32_@CFrImNavigator@CImage@@ABEKM@Z" PURGE="4" COMMENT="" />
    <EXPORT ORDINAL="3238" NAME="?uiun_@CMath@@0PAEA" PURGE="-1" COMMENT="" />
    <EXPORT ORDINAL="3239" NAME="?uiunoise_@CMath@@SAKK@Z" PURGE="0" COMMENT="" />
    <EXPORT ORDINAL="3240" NAME="?uiunoise_@CMath@@SAKKK@Z" PURGE="0" COMMENT="" />
    <EXPORT ORDINAL="3241" NAME="?uiunoise_@CMath@@SAKKKK@Z" PURGE="0" COMMENT="" />
    <EXPORT ORDINAL="3242" NAME="?uniform_@CMath@@SANNAAVCRndSeed@@@Z" PURGE="0" COMMENT="" />
    <EXPORT ORDINAL="3243" NAME="?uniform_@CMath@@SANNNAAVCRndSeed@@@Z" PURGE="0" COMMENT="" />
    <EXPORT ORDINAL="3244" NAME="?urgn_@CMath@@0PAMA" PURGE="-1" COMMENT="" />
    <EXPORT ORDINAL="3245" NAME="?urgnoise_@CMath@@SAMK@Z" PURGE="0" COMMENT="" />
    <EXPORT ORDINAL="3246" NAME="?urgnoise_@CMath@@SAMKK@Z" PURGE="0" COMMENT="" />
    <EXPORT ORDINAL="3247" NAME="?urgnoise_@CMath@@SAMKKK@Z" PURGE="0" COMMENT="" />
    <EXPORT ORDINAL="3248" NAME="?urun_@CMath@@0PAMA" PURGE="-1" COMMENT="" />
    <EXPORT ORDINAL="3249" NAME="?urunoise_@CMath@@SAMK@Z" PURGE="0" COMMENT="" />
    <EXPORT ORDINAL="3250" NAME="?urunoise_@CMath@@SAMKK@Z" PURGE="0" COMMENT="" />
    <EXPORT ORDINAL="3251" NAME="?urunoise_@CMath@@SAMKKK@Z" PURGE="0" COMMENT="" />
    <EXPORT ORDINAL="3252" NAME="?usUNoise2D@CTexture@@SAKKK@Z" PURGE="0" COMMENT="" />
    <EXPORT ORDINAL="3253" NAME="?usUNoise@CTexture@@1PAEA" PURGE="-1" COMMENT="" />
    <EXPORT ORDINAL="3254" NAME="?valid@CAppl@@1EA" PURGE="-1" COMMENT="" />
    <EXPORT ORDINAL="3255" NAME="AxiomBeep_" PURGE="0" COMMENT="" />
</LIBRARY>

