<?xml version="1.0" encoding="UTF-8"?>
<LIBRARY NAME="libagluc28.dll" PATH="/DLLArchive/etc/libagluc28.dll" DATE="Fri Jul 03 12:46:37 PDT 2020" VERSION="2, 8, 0, 0">
    <EXPORT ORDINAL="1" NAME="??0AGL_BreakIterator@agl_2_8@@IAE@ABV01@@Z" PURGE="4" COMMENT="" />
    <EXPORT ORDINAL="2" NAME="??0AGL_BreakIterator@agl_2_8@@IAE@XZ" PURGE="0" COMMENT="" />
    <EXPORT ORDINAL="3" NAME="??0AGL_CanonicalIterator@agl_2_8@@QAE@ABVAGL_UnicodeString@1@AAW4AGL_UErrorCode@@@Z" PURGE="8" COMMENT="" />
    <EXPORT ORDINAL="4" NAME="??0AGL_CharacterIterator@agl_2_8@@IAE@ABV01@@Z" PURGE="4" COMMENT="" />
    <EXPORT ORDINAL="5" NAME="??0AGL_CharacterIterator@agl_2_8@@IAE@J@Z" PURGE="4" COMMENT="" />
    <EXPORT ORDINAL="6" NAME="??0AGL_CharacterIterator@agl_2_8@@IAE@JJ@Z" PURGE="8" COMMENT="" />
    <EXPORT ORDINAL="7" NAME="??0AGL_CharacterIterator@agl_2_8@@IAE@JJJJ@Z" PURGE="16" COMMENT="" />
    <EXPORT ORDINAL="8" NAME="??0AGL_CharacterIterator@agl_2_8@@IAE@XZ" PURGE="0" COMMENT="" />
    <EXPORT ORDINAL="9" NAME="??0AGL_DictionaryBasedBreakIterator@agl_2_8@@AAE@PAUAGL_UDataMemory@@PBDAAW4AGL_UErrorCode@@@Z" PURGE="12" COMMENT="" />
    <EXPORT ORDINAL="10" NAME="??0AGL_DictionaryBasedBreakIterator@agl_2_8@@QAE@ABV01@@Z" PURGE="4" COMMENT="" />
    <EXPORT ORDINAL="11" NAME="??0AGL_DictionaryBasedBreakIterator@agl_2_8@@QAE@XZ" PURGE="0" COMMENT="" />
    <EXPORT ORDINAL="12" NAME="??0AGL_ForwardCharacterIterator@agl_2_8@@IAE@ABV01@@Z" PURGE="4" COMMENT="" />
    <EXPORT ORDINAL="13" NAME="??0AGL_ForwardCharacterIterator@agl_2_8@@IAE@XZ" PURGE="0" COMMENT="" />
    <EXPORT ORDINAL="14" NAME="??0AGL_Locale@agl_2_8@@AAE@W4ELocaleType@01@@Z" PURGE="4" COMMENT="" />
    <EXPORT ORDINAL="15" NAME="??0AGL_Locale@agl_2_8@@QAE@ABV01@@Z" PURGE="4" COMMENT="" />
    <EXPORT ORDINAL="16" NAME="??0AGL_Locale@agl_2_8@@QAE@PBD000@Z" PURGE="16" COMMENT="" />
    <EXPORT ORDINAL="17" NAME="??0AGL_Locale@agl_2_8@@QAE@XZ" PURGE="0" COMMENT="" />
    <EXPORT ORDINAL="18" NAME="??0AGL_Normalizer@agl_2_8@@QAE@ABV01@@Z" PURGE="4" COMMENT="" />
    <EXPORT ORDINAL="19" NAME="??0AGL_Normalizer@agl_2_8@@QAE@ABVAGL_CharacterIterator@1@W4AGL_UNormalizationMode@@@Z" PURGE="8" COMMENT="" />
    <EXPORT ORDINAL="20" NAME="??0AGL_Normalizer@agl_2_8@@QAE@ABVAGL_UnicodeString@1@W4AGL_UNormalizationMode@@@Z" PURGE="8" COMMENT="" />
    <EXPORT ORDINAL="21" NAME="??0AGL_Normalizer@agl_2_8@@QAE@PBGJW4AGL_UNormalizationMode@@@Z" PURGE="12" COMMENT="" />
    <EXPORT ORDINAL="22" NAME="??0AGL_ParsePosition@agl_2_8@@QAE@ABV01@@Z" PURGE="4" COMMENT="" />
    <EXPORT ORDINAL="23" NAME="??0AGL_ParsePosition@agl_2_8@@QAE@J@Z" PURGE="4" COMMENT="" />
    <EXPORT ORDINAL="24" NAME="??0AGL_ParsePosition@agl_2_8@@QAE@XZ" PURGE="0" COMMENT="" />
    <EXPORT ORDINAL="25" NAME="??0AGL_Replaceable@agl_2_8@@IAE@XZ" PURGE="0" COMMENT="" />
    <EXPORT ORDINAL="26" NAME="??0AGL_Replaceable@agl_2_8@@QAE@ABV01@@Z" PURGE="4" COMMENT="" />
    <EXPORT ORDINAL="27" NAME="??0AGL_ResourceBundle@agl_2_8@@QAE@AAW4AGL_UErrorCode@@@Z" PURGE="4" COMMENT="" />
    <EXPORT ORDINAL="28" NAME="??0AGL_ResourceBundle@agl_2_8@@QAE@ABV01@@Z" PURGE="4" COMMENT="" />
    <EXPORT ORDINAL="29" NAME="??0AGL_ResourceBundle@agl_2_8@@QAE@ABVAGL_UnicodeString@1@AAW4AGL_UErrorCode@@@Z" PURGE="8" COMMENT="" />
    <EXPORT ORDINAL="30" NAME="??0AGL_ResourceBundle@agl_2_8@@QAE@ABVAGL_UnicodeString@1@ABVAGL_Locale@1@AAW4AGL_UErrorCode@@@Z" PURGE="12" COMMENT="" />
    <EXPORT ORDINAL="31" NAME="??0AGL_ResourceBundle@agl_2_8@@QAE@PAUAGL_UResourceBundle@@AAW4AGL_UErrorCode@@@Z" PURGE="8" COMMENT="" />
    <EXPORT ORDINAL="32" NAME="??0AGL_ResourceBundle@agl_2_8@@QAE@PBDABVAGL_Locale@1@AAW4AGL_UErrorCode@@@Z" PURGE="12" COMMENT="" />
    <EXPORT ORDINAL="33" NAME="??0AGL_RuleBasedBreakIterator@agl_2_8@@IAE@PAURBBIDataHeader@1@AAW4AGL_UErrorCode@@@Z" PURGE="8" COMMENT="" />
    <EXPORT ORDINAL="34" NAME="??0AGL_RuleBasedBreakIterator@agl_2_8@@QAE@ABV01@@Z" PURGE="4" COMMENT="" />
    <EXPORT ORDINAL="35" NAME="??0AGL_RuleBasedBreakIterator@agl_2_8@@QAE@ABVAGL_UnicodeString@1@AAUAGL_UParseError@@AAW4AGL_UErrorCode@@@Z" PURGE="12" COMMENT="" />
    <EXPORT ORDINAL="36" NAME="??0AGL_RuleBasedBreakIterator@agl_2_8@@QAE@PAUAGL_UDataMemory@@AAW4AGL_UErrorCode@@@Z" PURGE="8" COMMENT="" />
    <EXPORT ORDINAL="37" NAME="??0AGL_RuleBasedBreakIterator@agl_2_8@@QAE@XZ" PURGE="0" COMMENT="" />
    <EXPORT ORDINAL="38" NAME="??0AGL_StringCharacterIterator@agl_2_8@@IAE@XZ" PURGE="0" COMMENT="" />
    <EXPORT ORDINAL="39" NAME="??0AGL_StringCharacterIterator@agl_2_8@@QAE@ABV01@@Z" PURGE="4" COMMENT="" />
    <EXPORT ORDINAL="40" NAME="??0AGL_StringCharacterIterator@agl_2_8@@QAE@ABVAGL_UnicodeString@1@@Z" PURGE="4" COMMENT="" />
    <EXPORT ORDINAL="41" NAME="??0AGL_StringCharacterIterator@agl_2_8@@QAE@ABVAGL_UnicodeString@1@J@Z" PURGE="8" COMMENT="" />
    <EXPORT ORDINAL="42" NAME="??0AGL_StringCharacterIterator@agl_2_8@@QAE@ABVAGL_UnicodeString@1@JJJ@Z" PURGE="16" COMMENT="" />
    <EXPORT ORDINAL="43" NAME="??0AGL_StringEnumeration@agl_2_8@@IAE@XZ" PURGE="0" COMMENT="" />
    <EXPORT ORDINAL="44" NAME="??0AGL_StringEnumeration@agl_2_8@@QAE@ABV01@@Z" PURGE="4" COMMENT="" />
    <EXPORT ORDINAL="45" NAME="??0AGL_SymbolTable@agl_2_8@@QAE@ABV01@@Z" PURGE="4" COMMENT="" />
    <EXPORT ORDINAL="46" NAME="??0AGL_SymbolTable@agl_2_8@@QAE@XZ" PURGE="0" COMMENT="" />
    <EXPORT ORDINAL="47" NAME="??0AGL_UCharCharacterIterator@agl_2_8@@IAE@XZ" PURGE="0" COMMENT="" />
    <EXPORT ORDINAL="48" NAME="??0AGL_UCharCharacterIterator@agl_2_8@@QAE@ABV01@@Z" PURGE="4" COMMENT="" />
    <EXPORT ORDINAL="49" NAME="??0AGL_UCharCharacterIterator@agl_2_8@@QAE@PBGJ@Z" PURGE="8" COMMENT="" />
    <EXPORT ORDINAL="50" NAME="??0AGL_UCharCharacterIterator@agl_2_8@@QAE@PBGJJ@Z" PURGE="12" COMMENT="" />
    <EXPORT ORDINAL="51" NAME="??0AGL_UCharCharacterIterator@agl_2_8@@QAE@PBGJJJJ@Z" PURGE="20" COMMENT="" />
    <EXPORT ORDINAL="52" NAME="??0AGL_UObject@agl_2_8@@QAE@ABV01@@Z" PURGE="4" COMMENT="" />
    <EXPORT ORDINAL="53" NAME="??0AGL_UObject@agl_2_8@@QAE@XZ" PURGE="0" COMMENT="" />
    <EXPORT ORDINAL="54" NAME="??0AGL_UnicodeFilter@agl_2_8@@QAE@ABV01@@Z" PURGE="4" COMMENT="" />
    <EXPORT ORDINAL="55" NAME="??0AGL_UnicodeFilter@agl_2_8@@QAE@XZ" PURGE="0" COMMENT="" />
    <EXPORT ORDINAL="56" NAME="??0AGL_UnicodeFunctor@agl_2_8@@QAE@ABV01@@Z" PURGE="4" COMMENT="" />
    <EXPORT ORDINAL="57" NAME="??0AGL_UnicodeFunctor@agl_2_8@@QAE@XZ" PURGE="0" COMMENT="" />
    <EXPORT ORDINAL="58" NAME="??0AGL_UnicodeMatcher@agl_2_8@@QAE@ABV01@@Z" PURGE="4" COMMENT="" />
    <EXPORT ORDINAL="59" NAME="??0AGL_UnicodeMatcher@agl_2_8@@QAE@XZ" PURGE="0" COMMENT="" />
    <EXPORT ORDINAL="60" NAME="??0AGL_UnicodeSet@agl_2_8@@QAE@ABV01@@Z" PURGE="4" COMMENT="" />
    <EXPORT ORDINAL="61" NAME="??0AGL_UnicodeSet@agl_2_8@@QAE@ABVAGL_UnicodeString@1@AAVAGL_ParsePosition@1@KPBVAGL_SymbolTable@1@AAW4AGL_UErrorCode@@@Z" PURGE="20" COMMENT="" />
    <EXPORT ORDINAL="62" NAME="??0AGL_UnicodeSet@agl_2_8@@QAE@ABVAGL_UnicodeString@1@AAW4AGL_UErrorCode@@@Z" PURGE="8" COMMENT="" />
    <EXPORT ORDINAL="63" NAME="??0AGL_UnicodeSet@agl_2_8@@QAE@ABVAGL_UnicodeString@1@KPBVAGL_SymbolTable@1@AAW4AGL_UErrorCode@@@Z" PURGE="16" COMMENT="" />
    <EXPORT ORDINAL="64" NAME="??0AGL_UnicodeSet@agl_2_8@@QAE@JJ@Z" PURGE="8" COMMENT="" />
    <EXPORT ORDINAL="65" NAME="??0AGL_UnicodeSet@agl_2_8@@QAE@XZ" PURGE="0" COMMENT="" />
    <EXPORT ORDINAL="66" NAME="??0AGL_UnicodeSetIterator@agl_2_8@@QAE@ABVAGL_UnicodeSet@1@@Z" PURGE="4" COMMENT="" />
    <EXPORT ORDINAL="67" NAME="??0AGL_UnicodeSetIterator@agl_2_8@@QAE@XZ" PURGE="0" COMMENT="" />
    <EXPORT ORDINAL="68" NAME="??0AGL_UnicodeString@agl_2_8@@QAE@ABV01@@Z" PURGE="4" COMMENT="" />
    <EXPORT ORDINAL="69" NAME="??0AGL_UnicodeString@agl_2_8@@QAE@ABV01@J@Z" PURGE="8" COMMENT="" />
    <EXPORT ORDINAL="70" NAME="??0AGL_UnicodeString@agl_2_8@@QAE@ABV01@JJ@Z" PURGE="12" COMMENT="" />
    <EXPORT ORDINAL="71" NAME="??0AGL_UnicodeString@agl_2_8@@QAE@CPBGJ@Z" PURGE="12" COMMENT="" />
    <EXPORT ORDINAL="72" NAME="??0AGL_UnicodeString@agl_2_8@@QAE@G@Z" PURGE="4" COMMENT="" />
    <EXPORT ORDINAL="73" NAME="??0AGL_UnicodeString@agl_2_8@@QAE@J@Z" PURGE="4" COMMENT="" />
    <EXPORT ORDINAL="74" NAME="??0AGL_UnicodeString@agl_2_8@@QAE@JJJ@Z" PURGE="12" COMMENT="" />
    <EXPORT ORDINAL="75" NAME="??0AGL_UnicodeString@agl_2_8@@QAE@PAGJJ@Z" PURGE="12" COMMENT="" />
    <EXPORT ORDINAL="76" NAME="??0AGL_UnicodeString@agl_2_8@@QAE@PBD0@Z" PURGE="8" COMMENT="" />
    <EXPORT ORDINAL="77" NAME="??0AGL_UnicodeString@agl_2_8@@QAE@PBDJ0@Z" PURGE="12" COMMENT="" />
    <EXPORT ORDINAL="78" NAME="??0AGL_UnicodeString@agl_2_8@@QAE@PBDJPAUUConverter@@AAW4AGL_UErrorCode@@@Z" PURGE="16" COMMENT="" />
    <EXPORT ORDINAL="79" NAME="??0AGL_UnicodeString@agl_2_8@@QAE@PBG@Z" PURGE="4" COMMENT="" />
    <EXPORT ORDINAL="80" NAME="??0AGL_UnicodeString@agl_2_8@@QAE@PBGJ@Z" PURGE="8" COMMENT="" />
    <EXPORT ORDINAL="81" NAME="??0AGL_UnicodeString@agl_2_8@@QAE@XZ" PURGE="0" COMMENT="" />
    <EXPORT ORDINAL="82" NAME="??0CharString@agl_2_8@@QAE@ABVAGL_UnicodeString@1@PBD@Z" PURGE="8" COMMENT="" />
    <EXPORT ORDINAL="83" NAME="??0EventListener@agl_2_8@@QAE@ABV01@@Z" PURGE="4" COMMENT="" />
    <EXPORT ORDINAL="84" NAME="??0EventListener@agl_2_8@@QAE@XZ" PURGE="0" COMMENT="" />
    <EXPORT ORDINAL="85" NAME="??0Hashtable@agl_2_8@@QAE@C@Z" PURGE="4" COMMENT="" />
    <EXPORT ORDINAL="86" NAME="??0Hashtable@agl_2_8@@QAE@CAAW4AGL_UErrorCode@@@Z" PURGE="8" COMMENT="" />
    <EXPORT ORDINAL="87" NAME="??0ICULocaleService@agl_2_8@@QAE@ABV01@@Z" PURGE="4" COMMENT="" />
    <EXPORT ORDINAL="88" NAME="??0ICULocaleService@agl_2_8@@QAE@ABVAGL_UnicodeString@1@@Z" PURGE="4" COMMENT="" />
    <EXPORT ORDINAL="89" NAME="??0ICULocaleService@agl_2_8@@QAE@XZ" PURGE="0" COMMENT="" />
    <EXPORT ORDINAL="90" NAME="??0ICUNotifier@agl_2_8@@QAE@ABV01@@Z" PURGE="4" COMMENT="" />
    <EXPORT ORDINAL="91" NAME="??0ICUNotifier@agl_2_8@@QAE@XZ" PURGE="0" COMMENT="" />
    <EXPORT ORDINAL="92" NAME="??0ICUResourceBundleFactory@agl_2_8@@QAE@ABV01@@Z" PURGE="4" COMMENT="" />
    <EXPORT ORDINAL="93" NAME="??0ICUResourceBundleFactory@agl_2_8@@QAE@ABVAGL_UnicodeString@1@@Z" PURGE="4" COMMENT="" />
    <EXPORT ORDINAL="94" NAME="??0ICUResourceBundleFactory@agl_2_8@@QAE@XZ" PURGE="0" COMMENT="" />
    <EXPORT ORDINAL="95" NAME="??0ICUService@agl_2_8@@QAE@ABV01@@Z" PURGE="4" COMMENT="" />
    <EXPORT ORDINAL="96" NAME="??0ICUService@agl_2_8@@QAE@ABVAGL_UnicodeString@1@@Z" PURGE="4" COMMENT="" />
    <EXPORT ORDINAL="97" NAME="??0ICUService@agl_2_8@@QAE@XZ" PURGE="0" COMMENT="" />
    <EXPORT ORDINAL="98" NAME="??0ICUServiceFactory@agl_2_8@@QAE@ABV01@@Z" PURGE="4" COMMENT="" />
    <EXPORT ORDINAL="99" NAME="??0ICUServiceFactory@agl_2_8@@QAE@XZ" PURGE="0" COMMENT="" />
    <EXPORT ORDINAL="100" NAME="??0ICUServiceKey@agl_2_8@@QAE@ABV01@@Z" PURGE="4" COMMENT="" />
    <EXPORT ORDINAL="101" NAME="??0ICUServiceKey@agl_2_8@@QAE@ABVAGL_UnicodeString@1@@Z" PURGE="4" COMMENT="" />
    <EXPORT ORDINAL="102" NAME="??0LocaleBased@agl_2_8@@QAE@PAD0@Z" PURGE="8" COMMENT="" />
    <EXPORT ORDINAL="103" NAME="??0LocaleBased@agl_2_8@@QAE@PBD0@Z" PURGE="8" COMMENT="" />
    <EXPORT ORDINAL="104" NAME="??0LocaleKey@agl_2_8@@IAE@ABVAGL_UnicodeString@1@0PBV21@J@Z" PURGE="16" COMMENT="" />
    <EXPORT ORDINAL="105" NAME="??0LocaleKey@agl_2_8@@QAE@ABV01@@Z" PURGE="4" COMMENT="" />
    <EXPORT ORDINAL="106" NAME="??0LocaleKeyFactory@agl_2_8@@IAE@J@Z" PURGE="4" COMMENT="" />
    <EXPORT ORDINAL="107" NAME="??0LocaleKeyFactory@agl_2_8@@IAE@JABVAGL_UnicodeString@1@@Z" PURGE="8" COMMENT="" />
    <EXPORT ORDINAL="108" NAME="??0LocaleKeyFactory@agl_2_8@@QAE@ABV01@@Z" PURGE="4" COMMENT="" />
    <EXPORT ORDINAL="109" NAME="??0Mutex@agl_2_8@@QAE@PAPAX@Z" PURGE="4" COMMENT="" />
    <EXPORT ORDINAL="110" NAME="??0RuleCharacterIterator@agl_2_8@@QAE@ABVAGL_UnicodeString@1@PBVAGL_SymbolTable@1@AAVAGL_ParsePosition@1@@Z" PURGE="12" COMMENT="" />
    <EXPORT ORDINAL="111" NAME="??0ServiceListener@agl_2_8@@QAE@ABV01@@Z" PURGE="4" COMMENT="" />
    <EXPORT ORDINAL="112" NAME="??0ServiceListener@agl_2_8@@QAE@XZ" PURGE="0" COMMENT="" />
    <EXPORT ORDINAL="113" NAME="??0SimpleFactory@agl_2_8@@QAE@ABV01@@Z" PURGE="4" COMMENT="" />
    <EXPORT ORDINAL="114" NAME="??0SimpleFactory@agl_2_8@@QAE@PAVAGL_UObject@1@ABVAGL_UnicodeString@1@C@Z" PURGE="12" COMMENT="" />
    <EXPORT ORDINAL="115" NAME="??0SimpleLocaleKeyFactory@agl_2_8@@QAE@ABV01@@Z" PURGE="4" COMMENT="" />
    <EXPORT ORDINAL="116" NAME="??0SimpleLocaleKeyFactory@agl_2_8@@QAE@PAVAGL_UObject@1@ABVAGL_Locale@1@JJ@Z" PURGE="16" COMMENT="" />
    <EXPORT ORDINAL="117" NAME="??0SimpleLocaleKeyFactory@agl_2_8@@QAE@PAVAGL_UObject@1@ABVAGL_UnicodeString@1@JJ@Z" PURGE="16" COMMENT="" />
    <EXPORT ORDINAL="118" NAME="??0StringPair@agl_2_8@@AAE@ABVAGL_UnicodeString@1@0@Z" PURGE="8" COMMENT="" />
    <EXPORT ORDINAL="119" NAME="??0StringPair@agl_2_8@@QAE@ABV01@@Z" PURGE="4" COMMENT="" />
    <EXPORT ORDINAL="120" NAME="??0UStack@agl_2_8@@QAE@AAW4AGL_UErrorCode@@@Z" PURGE="4" COMMENT="" />
    <EXPORT ORDINAL="121" NAME="??0UStack@agl_2_8@@QAE@JAAW4AGL_UErrorCode@@@Z" PURGE="8" COMMENT="" />
    <EXPORT ORDINAL="122" NAME="??0UStack@agl_2_8@@QAE@P6AXPAX@ZP6ACTUHashTok@@2@ZAAW4AGL_UErrorCode@@@Z" PURGE="12" COMMENT="" />
    <EXPORT ORDINAL="123" NAME="??0UStack@agl_2_8@@QAE@P6AXPAX@ZP6ACTUHashTok@@2@ZJAAW4AGL_UErrorCode@@@Z" PURGE="16" COMMENT="" />
    <EXPORT ORDINAL="124" NAME="??0UVector32@agl_2_8@@QAE@AAW4AGL_UErrorCode@@@Z" PURGE="4" COMMENT="" />
    <EXPORT ORDINAL="125" NAME="??0UVector32@agl_2_8@@QAE@JAAW4AGL_UErrorCode@@@Z" PURGE="8" COMMENT="" />
    <EXPORT ORDINAL="126" NAME="??0UVector@agl_2_8@@QAE@AAW4AGL_UErrorCode@@@Z" PURGE="4" COMMENT="" />
    <EXPORT ORDINAL="127" NAME="??0UVector@agl_2_8@@QAE@JAAW4AGL_UErrorCode@@@Z" PURGE="8" COMMENT="" />
    <EXPORT ORDINAL="128" NAME="??0UVector@agl_2_8@@QAE@P6AXPAX@ZP6ACTUHashTok@@2@ZAAW4AGL_UErrorCode@@@Z" PURGE="12" COMMENT="" />
    <EXPORT ORDINAL="129" NAME="??0UVector@agl_2_8@@QAE@P6AXPAX@ZP6ACTUHashTok@@2@ZJAAW4AGL_UErrorCode@@@Z" PURGE="16" COMMENT="" />
    <EXPORT ORDINAL="130" NAME="??1AGL_BreakIterator@agl_2_8@@UAE@XZ" PURGE="0" COMMENT="" />
    <EXPORT ORDINAL="131" NAME="??1AGL_CanonicalIterator@agl_2_8@@UAE@XZ" PURGE="0" COMMENT="" />
    <EXPORT ORDINAL="132" NAME="??1AGL_CharacterIterator@agl_2_8@@UAE@XZ" PURGE="0" COMMENT="" />
    <EXPORT ORDINAL="133" NAME="??1AGL_DictionaryBasedBreakIterator@agl_2_8@@UAE@XZ" PURGE="0" COMMENT="" />
    <EXPORT ORDINAL="134" NAME="??1AGL_ForwardCharacterIterator@agl_2_8@@UAE@XZ" PURGE="0" COMMENT="" />
    <EXPORT ORDINAL="135" NAME="??1AGL_Locale@agl_2_8@@UAE@XZ" PURGE="0" COMMENT="" />
    <EXPORT ORDINAL="136" NAME="??1AGL_Normalizer@agl_2_8@@UAE@XZ" PURGE="0" COMMENT="" />
    <EXPORT ORDINAL="137" NAME="??1AGL_ParsePosition@agl_2_8@@UAE@XZ" PURGE="0" COMMENT="" />
    <EXPORT ORDINAL="138" NAME="??1AGL_Replaceable@agl_2_8@@UAE@XZ" PURGE="0" COMMENT="" />
    <EXPORT ORDINAL="139" NAME="??1AGL_ResourceBundle@agl_2_8@@UAE@XZ" PURGE="0" COMMENT="" />
    <EXPORT ORDINAL="140" NAME="??1AGL_RuleBasedBreakIterator@agl_2_8@@UAE@XZ" PURGE="0" COMMENT="" />
    <EXPORT ORDINAL="141" NAME="??1AGL_StringCharacterIterator@agl_2_8@@UAE@XZ" PURGE="0" COMMENT="" />
    <EXPORT ORDINAL="142" NAME="??1AGL_StringEnumeration@agl_2_8@@UAE@XZ" PURGE="0" COMMENT="" />
    <EXPORT ORDINAL="143" NAME="??1AGL_SymbolTable@agl_2_8@@UAE@XZ" PURGE="0" COMMENT="" />
    <EXPORT ORDINAL="144" NAME="??1AGL_UCharCharacterIterator@agl_2_8@@UAE@XZ" PURGE="0" COMMENT="" />
    <EXPORT ORDINAL="145" NAME="??1AGL_UObject@agl_2_8@@UAE@XZ" PURGE="0" COMMENT="" />
    <EXPORT ORDINAL="146" NAME="??1AGL_UnicodeFilter@agl_2_8@@UAE@XZ" PURGE="0" COMMENT="" />
    <EXPORT ORDINAL="147" NAME="??1AGL_UnicodeFunctor@agl_2_8@@UAE@XZ" PURGE="0" COMMENT="" />
    <EXPORT ORDINAL="148" NAME="??1AGL_UnicodeMatcher@agl_2_8@@UAE@XZ" PURGE="0" COMMENT="" />
    <EXPORT ORDINAL="149" NAME="??1AGL_UnicodeSet@agl_2_8@@UAE@XZ" PURGE="0" COMMENT="" />
    <EXPORT ORDINAL="150" NAME="??1AGL_UnicodeSetIterator@agl_2_8@@UAE@XZ" PURGE="0" COMMENT="" />
    <EXPORT ORDINAL="151" NAME="??1AGL_UnicodeString@agl_2_8@@UAE@XZ" PURGE="0" COMMENT="" />
    <EXPORT ORDINAL="152" NAME="??1CharString@agl_2_8@@QAE@XZ" PURGE="0" COMMENT="" />
    <EXPORT ORDINAL="153" NAME="??1EventListener@agl_2_8@@UAE@XZ" PURGE="0" COMMENT="" />
    <EXPORT ORDINAL="154" NAME="??1Hashtable@agl_2_8@@QAE@XZ" PURGE="0" COMMENT="" />
    <EXPORT ORDINAL="155" NAME="??1ICULocaleService@agl_2_8@@UAE@XZ" PURGE="0" COMMENT="" />
    <EXPORT ORDINAL="156" NAME="??1ICUNotifier@agl_2_8@@UAE@XZ" PURGE="0" COMMENT="" />
    <EXPORT ORDINAL="157" NAME="??1ICUResourceBundleFactory@agl_2_8@@UAE@XZ" PURGE="0" COMMENT="" />
    <EXPORT ORDINAL="158" NAME="??1ICUService@agl_2_8@@UAE@XZ" PURGE="0" COMMENT="" />
    <EXPORT ORDINAL="159" NAME="??1ICUServiceFactory@agl_2_8@@UAE@XZ" PURGE="0" COMMENT="" />
    <EXPORT ORDINAL="160" NAME="??1ICUServiceKey@agl_2_8@@UAE@XZ" PURGE="0" COMMENT="" />
    <EXPORT ORDINAL="161" NAME="??1LocaleKey@agl_2_8@@UAE@XZ" PURGE="0" COMMENT="" />
    <EXPORT ORDINAL="162" NAME="??1LocaleKeyFactory@agl_2_8@@UAE@XZ" PURGE="0" COMMENT="" />
    <EXPORT ORDINAL="163" NAME="??1Mutex@agl_2_8@@QAE@XZ" PURGE="0" COMMENT="" />
    <EXPORT ORDINAL="164" NAME="??1ServiceListener@agl_2_8@@UAE@XZ" PURGE="0" COMMENT="" />
    <EXPORT ORDINAL="165" NAME="??1SimpleFactory@agl_2_8@@UAE@XZ" PURGE="0" COMMENT="" />
    <EXPORT ORDINAL="166" NAME="??1SimpleLocaleKeyFactory@agl_2_8@@UAE@XZ" PURGE="0" COMMENT="" />
    <EXPORT ORDINAL="167" NAME="??1StringPair@agl_2_8@@QAE@XZ" PURGE="0" COMMENT="" />
    <EXPORT ORDINAL="168" NAME="??1UStack@agl_2_8@@UAE@XZ" PURGE="0" COMMENT="" />
    <EXPORT ORDINAL="169" NAME="??1UVector32@agl_2_8@@UAE@XZ" PURGE="0" COMMENT="" />
    <EXPORT ORDINAL="170" NAME="??1UVector@agl_2_8@@UAE@XZ" PURGE="0" COMMENT="" />
    <EXPORT ORDINAL="171" NAME="??2AGL_UMemory@agl_2_8@@SAPAXI@Z" PURGE="0" COMMENT="" />
    <EXPORT ORDINAL="172" NAME="??2AGL_UMemory@agl_2_8@@SAPAXIPAX@Z" PURGE="0" COMMENT="" />
    <EXPORT ORDINAL="173" NAME="??3AGL_UMemory@agl_2_8@@SAXPAX0@Z" PURGE="0" COMMENT="" />
    <EXPORT ORDINAL="174" NAME="??3AGL_UMemory@agl_2_8@@SAXPAX@Z" PURGE="0" COMMENT="" />
    <EXPORT ORDINAL="175" NAME="??4AGL_BreakIterator@agl_2_8@@AAEAAV01@ABV01@@Z" PURGE="4" COMMENT="" />
    <EXPORT ORDINAL="176" NAME="??4AGL_CharacterIterator@agl_2_8@@IAEAAV01@ABV01@@Z" PURGE="4" COMMENT="" />
    <EXPORT ORDINAL="177" NAME="??4AGL_DictionaryBasedBreakIterator@agl_2_8@@QAEAAV01@ABV01@@Z" PURGE="4" COMMENT="" />
    <EXPORT ORDINAL="178" NAME="??4AGL_ForwardCharacterIterator@agl_2_8@@IAEAAV01@ABV01@@Z" PURGE="4" COMMENT="" />
    <EXPORT ORDINAL="179" NAME="??4AGL_Locale@agl_2_8@@QAEAAV01@ABV01@@Z" PURGE="4" COMMENT="" />
    <EXPORT ORDINAL="180" NAME="??4AGL_ParsePosition@agl_2_8@@QAEAAV01@ABV01@@Z" PURGE="4" COMMENT="" />
    <EXPORT ORDINAL="181" NAME="??4AGL_Replaceable@agl_2_8@@QAEAAV01@ABV01@@Z" PURGE="4" COMMENT="" />
    <EXPORT ORDINAL="182" NAME="??4AGL_ResourceBundle@agl_2_8@@QAEAAV01@ABV01@@Z" PURGE="4" COMMENT="" />
    <EXPORT ORDINAL="183" NAME="??4AGL_RuleBasedBreakIterator@agl_2_8@@QAEAAV01@ABV01@@Z" PURGE="4" COMMENT="" />
    <EXPORT ORDINAL="184" NAME="??4AGL_StringCharacterIterator@agl_2_8@@QAEAAV01@ABV01@@Z" PURGE="4" COMMENT="" />
    <EXPORT ORDINAL="185" NAME="??4AGL_StringEnumeration@agl_2_8@@QAEAAV01@ABV01@@Z" PURGE="4" COMMENT="" />
    <EXPORT ORDINAL="186" NAME="??4AGL_SymbolTable@agl_2_8@@QAEAAV01@ABV01@@Z" PURGE="4" COMMENT="" />
    <EXPORT ORDINAL="187" NAME="??4AGL_UCharCharacterIterator@agl_2_8@@QAEAAV01@ABV01@@Z" PURGE="4" COMMENT="" />
    <EXPORT ORDINAL="188" NAME="??4AGL_UMemory@agl_2_8@@QAEAAV01@ABV01@@Z" PURGE="4" COMMENT="" />
    <EXPORT ORDINAL="189" NAME="??4AGL_UObject@agl_2_8@@QAEAAV01@ABV01@@Z" PURGE="4" COMMENT="" />
    <EXPORT ORDINAL="190" NAME="??4AGL_UnicodeFilter@agl_2_8@@QAEAAV01@ABV01@@Z" PURGE="4" COMMENT="" />
    <EXPORT ORDINAL="191" NAME="??4AGL_UnicodeFunctor@agl_2_8@@QAEAAV01@ABV01@@Z" PURGE="4" COMMENT="" />
    <EXPORT ORDINAL="192" NAME="??4AGL_UnicodeMatcher@agl_2_8@@QAEAAV01@ABV01@@Z" PURGE="4" COMMENT="" />
    <EXPORT ORDINAL="193" NAME="??4AGL_UnicodeSet@agl_2_8@@QAEAAV01@ABV01@@Z" PURGE="4" COMMENT="" />
    <EXPORT ORDINAL="194" NAME="??4AGL_UnicodeString@agl_2_8@@QAEAAV01@ABV01@@Z" PURGE="4" COMMENT="" />
    <EXPORT ORDINAL="195" NAME="??4AGL_UnicodeString@agl_2_8@@QAEAAV01@G@Z" PURGE="4" COMMENT="" />
    <EXPORT ORDINAL="196" NAME="??4AGL_UnicodeString@agl_2_8@@QAEAAV01@J@Z" PURGE="4" COMMENT="" />
    <EXPORT ORDINAL="197" NAME="??4EventListener@agl_2_8@@QAEAAV01@ABV01@@Z" PURGE="4" COMMENT="" />
    <EXPORT ORDINAL="198" NAME="??4ICUNotifier@agl_2_8@@QAEAAV01@ABV01@@Z" PURGE="4" COMMENT="" />
    <EXPORT ORDINAL="199" NAME="??4ICUServiceFactory@agl_2_8@@QAEAAV01@ABV01@@Z" PURGE="4" COMMENT="" />
    <EXPORT ORDINAL="200" NAME="??4ICU_Utility@agl_2_8@@QAEAAV01@ABV01@@Z" PURGE="4" COMMENT="" />
    <EXPORT ORDINAL="201" NAME="??4LocaleBased@agl_2_8@@QAEAAV01@ABV01@@Z" PURGE="4" COMMENT="" />
    <EXPORT ORDINAL="202" NAME="??4LocaleUtility@agl_2_8@@QAEAAV01@ABV01@@Z" PURGE="4" COMMENT="" />
    <EXPORT ORDINAL="203" NAME="??4ServiceListener@agl_2_8@@QAEAAV01@ABV01@@Z" PURGE="4" COMMENT="" />
    <EXPORT ORDINAL="204" NAME="??8AGL_Locale@agl_2_8@@QBECABV01@@Z" PURGE="4" COMMENT="" />
    <EXPORT ORDINAL="205" NAME="??8AGL_Normalizer@agl_2_8@@QBECABV01@@Z" PURGE="4" COMMENT="" />
    <EXPORT ORDINAL="206" NAME="??8AGL_ParsePosition@agl_2_8@@QBECABV01@@Z" PURGE="4" COMMENT="" />
    <EXPORT ORDINAL="207" NAME="??8AGL_RuleBasedBreakIterator@agl_2_8@@UBECABVAGL_BreakIterator@1@@Z" PURGE="4" COMMENT="" />
    <EXPORT ORDINAL="208" NAME="??8AGL_StringCharacterIterator@agl_2_8@@UBECABVAGL_ForwardCharacterIterator@1@@Z" PURGE="4" COMMENT="" />
    <EXPORT ORDINAL="209" NAME="??8AGL_UCharCharacterIterator@agl_2_8@@UBECABVAGL_ForwardCharacterIterator@1@@Z" PURGE="4" COMMENT="" />
    <EXPORT ORDINAL="210" NAME="??8AGL_UnicodeSet@agl_2_8@@UBECABV01@@Z" PURGE="4" COMMENT="" />
    <EXPORT ORDINAL="211" NAME="??8AGL_UnicodeString@agl_2_8@@QBECABV01@@Z" PURGE="4" COMMENT="" />
    <EXPORT ORDINAL="212" NAME="??8UVector32@agl_2_8@@QAECABV01@@Z" PURGE="4" COMMENT="" />
    <EXPORT ORDINAL="213" NAME="??8UVector@agl_2_8@@QAECABV01@@Z" PURGE="4" COMMENT="" />
    <EXPORT ORDINAL="214" NAME="??9AGL_BreakIterator@agl_2_8@@QBECABV01@@Z" PURGE="4" COMMENT="" />
    <EXPORT ORDINAL="215" NAME="??9AGL_ForwardCharacterIterator@agl_2_8@@QBECABV01@@Z" PURGE="4" COMMENT="" />
    <EXPORT ORDINAL="216" NAME="??9AGL_Locale@agl_2_8@@QBECABV01@@Z" PURGE="4" COMMENT="" />
    <EXPORT ORDINAL="217" NAME="??9AGL_Normalizer@agl_2_8@@QBECABV01@@Z" PURGE="4" COMMENT="" />
    <EXPORT ORDINAL="218" NAME="??9AGL_ParsePosition@agl_2_8@@QBECABV01@@Z" PURGE="4" COMMENT="" />
    <EXPORT ORDINAL="219" NAME="??9AGL_RuleBasedBreakIterator@agl_2_8@@QBECABVAGL_BreakIterator@1@@Z" PURGE="4" COMMENT="" />
    <EXPORT ORDINAL="220" NAME="??9AGL_UnicodeSet@agl_2_8@@QBECABV01@@Z" PURGE="4" COMMENT="" />
    <EXPORT ORDINAL="221" NAME="??9AGL_UnicodeString@agl_2_8@@QBECABV01@@Z" PURGE="4" COMMENT="" />
    <EXPORT ORDINAL="222" NAME="??9UVector32@agl_2_8@@QAECABV01@@Z" PURGE="4" COMMENT="" />
    <EXPORT ORDINAL="223" NAME="??9UVector@agl_2_8@@QAECABV01@@Z" PURGE="4" COMMENT="" />
    <EXPORT ORDINAL="224" NAME="??AAGL_UnicodeString@agl_2_8@@QBEGJ@Z" PURGE="4" COMMENT="" />
    <EXPORT ORDINAL="225" NAME="??AUVector@agl_2_8@@QBEPAXJ@Z" PURGE="4" COMMENT="" />
    <EXPORT ORDINAL="226" NAME="??BCharString@agl_2_8@@QBEPBDXZ" PURGE="0" COMMENT="" />
    <EXPORT ORDINAL="227" NAME="??Hagl_2_8@@YA?AVAGL_UnicodeString@0@ABV10@0@Z" PURGE="0" COMMENT="" />
    <EXPORT ORDINAL="228" NAME="??MAGL_UnicodeString@agl_2_8@@QBECABV01@@Z" PURGE="4" COMMENT="" />
    <EXPORT ORDINAL="229" NAME="??NAGL_UnicodeString@agl_2_8@@QBECABV01@@Z" PURGE="4" COMMENT="" />
    <EXPORT ORDINAL="230" NAME="??OAGL_UnicodeString@agl_2_8@@QBECABV01@@Z" PURGE="4" COMMENT="" />
    <EXPORT ORDINAL="231" NAME="??PAGL_UnicodeString@agl_2_8@@QBECABV01@@Z" PURGE="4" COMMENT="" />
    <EXPORT ORDINAL="232" NAME="??YAGL_UnicodeString@agl_2_8@@QAEAAV01@ABV01@@Z" PURGE="4" COMMENT="" />
    <EXPORT ORDINAL="233" NAME="??YAGL_UnicodeString@agl_2_8@@QAEAAV01@G@Z" PURGE="4" COMMENT="" />
    <EXPORT ORDINAL="234" NAME="??YAGL_UnicodeString@agl_2_8@@QAEAAV01@J@Z" PURGE="4" COMMENT="" />
    <EXPORT ORDINAL="235" NAME="??_7AGL_BreakIterator@agl_2_8@@6B@" PURGE="-1" COMMENT="" />
    <EXPORT ORDINAL="236" NAME="??_7AGL_CanonicalIterator@agl_2_8@@6B@" PURGE="-1" COMMENT="" />
    <EXPORT ORDINAL="237" NAME="??_7AGL_CharacterIterator@agl_2_8@@6B@" PURGE="-1" COMMENT="" />
    <EXPORT ORDINAL="238" NAME="??_7AGL_DictionaryBasedBreakIterator@agl_2_8@@6B@" PURGE="-1" COMMENT="" />
    <EXPORT ORDINAL="239" NAME="??_7AGL_ForwardCharacterIterator@agl_2_8@@6B@" PURGE="-1" COMMENT="" />
    <EXPORT ORDINAL="240" NAME="??_7AGL_Locale@agl_2_8@@6B@" PURGE="-1" COMMENT="" />
    <EXPORT ORDINAL="241" NAME="??_7AGL_Normalizer@agl_2_8@@6B@" PURGE="-1" COMMENT="" />
    <EXPORT ORDINAL="242" NAME="??_7AGL_ParsePosition@agl_2_8@@6B@" PURGE="-1" COMMENT="" />
    <EXPORT ORDINAL="243" NAME="??_7AGL_Replaceable@agl_2_8@@6B@" PURGE="-1" COMMENT="" />
    <EXPORT ORDINAL="244" NAME="??_7AGL_ResourceBundle@agl_2_8@@6B@" PURGE="-1" COMMENT="" />
    <EXPORT ORDINAL="245" NAME="??_7AGL_RuleBasedBreakIterator@agl_2_8@@6B@" PURGE="-1" COMMENT="" />
    <EXPORT ORDINAL="246" NAME="??_7AGL_StringCharacterIterator@agl_2_8@@6B@" PURGE="-1" COMMENT="" />
    <EXPORT ORDINAL="247" NAME="??_7AGL_StringEnumeration@agl_2_8@@6B@" PURGE="-1" COMMENT="" />
    <EXPORT ORDINAL="248" NAME="??_7AGL_SymbolTable@agl_2_8@@6B@" PURGE="-1" COMMENT="" />
    <EXPORT ORDINAL="249" NAME="??_7AGL_UCharCharacterIterator@agl_2_8@@6B@" PURGE="-1" COMMENT="" />
    <EXPORT ORDINAL="250" NAME="??_7AGL_UObject@agl_2_8@@6B@" PURGE="-1" COMMENT="" />
    <EXPORT ORDINAL="251" NAME="??_7AGL_UnicodeFilter@agl_2_8@@6BAGL_UnicodeFunctor@1@@" PURGE="-1" COMMENT="" />
    <EXPORT ORDINAL="252" NAME="??_7AGL_UnicodeFilter@agl_2_8@@6BAGL_UnicodeMatcher@1@@" PURGE="-1" COMMENT="" />
    <EXPORT ORDINAL="253" NAME="??_7AGL_UnicodeFunctor@agl_2_8@@6B@" PURGE="-1" COMMENT="" />
    <EXPORT ORDINAL="254" NAME="??_7AGL_UnicodeMatcher@agl_2_8@@6B@" PURGE="-1" COMMENT="" />
    <EXPORT ORDINAL="255" NAME="??_7AGL_UnicodeSet@agl_2_8@@6BAGL_UnicodeFunctor@1@@" PURGE="-1" COMMENT="" />
    <EXPORT ORDINAL="256" NAME="??_7AGL_UnicodeSet@agl_2_8@@6BAGL_UnicodeMatcher@1@@" PURGE="-1" COMMENT="" />
    <EXPORT ORDINAL="257" NAME="??_7AGL_UnicodeSetIterator@agl_2_8@@6B@" PURGE="-1" COMMENT="" />
    <EXPORT ORDINAL="258" NAME="??_7AGL_UnicodeString@agl_2_8@@6B@" PURGE="-1" COMMENT="" />
    <EXPORT ORDINAL="259" NAME="??_7EventListener@agl_2_8@@6B@" PURGE="-1" COMMENT="" />
    <EXPORT ORDINAL="260" NAME="??_7ICULocaleService@agl_2_8@@6B@" PURGE="-1" COMMENT="" />
    <EXPORT ORDINAL="261" NAME="??_7ICUNotifier@agl_2_8@@6B@" PURGE="-1" COMMENT="" />
    <EXPORT ORDINAL="262" NAME="??_7ICUResourceBundleFactory@agl_2_8@@6B@" PURGE="-1" COMMENT="" />
    <EXPORT ORDINAL="263" NAME="??_7ICUService@agl_2_8@@6B@" PURGE="-1" COMMENT="" />
    <EXPORT ORDINAL="264" NAME="??_7ICUServiceFactory@agl_2_8@@6B@" PURGE="-1" COMMENT="" />
    <EXPORT ORDINAL="265" NAME="??_7ICUServiceKey@agl_2_8@@6B@" PURGE="-1" COMMENT="" />
    <EXPORT ORDINAL="266" NAME="??_7LocaleKey@agl_2_8@@6B@" PURGE="-1" COMMENT="" />
    <EXPORT ORDINAL="267" NAME="??_7LocaleKeyFactory@agl_2_8@@6B@" PURGE="-1" COMMENT="" />
    <EXPORT ORDINAL="268" NAME="??_7ServiceListener@agl_2_8@@6B@" PURGE="-1" COMMENT="" />
    <EXPORT ORDINAL="269" NAME="??_7SimpleFactory@agl_2_8@@6B@" PURGE="-1" COMMENT="" />
    <EXPORT ORDINAL="270" NAME="??_7SimpleLocaleKeyFactory@agl_2_8@@6B@" PURGE="-1" COMMENT="" />
    <EXPORT ORDINAL="271" NAME="??_7UStack@agl_2_8@@6B@" PURGE="-1" COMMENT="" />
    <EXPORT ORDINAL="272" NAME="??_7UVector32@agl_2_8@@6B@" PURGE="-1" COMMENT="" />
    <EXPORT ORDINAL="273" NAME="??_7UVector@agl_2_8@@6B@" PURGE="-1" COMMENT="" />
    <EXPORT ORDINAL="274" NAME="??_FHashtable@agl_2_8@@QAEXXZ" PURGE="0" COMMENT="" />
    <EXPORT ORDINAL="275" NAME="??_FMutex@agl_2_8@@QAEXXZ" PURGE="0" COMMENT="" />
    <EXPORT ORDINAL="276" NAME="??_UAGL_UMemory@agl_2_8@@SAPAXI@Z" PURGE="0" COMMENT="" />
    <EXPORT ORDINAL="277" NAME="??_VAGL_UMemory@agl_2_8@@SAXPAX@Z" PURGE="0" COMMENT="" />
    <EXPORT ORDINAL="278" NAME="?DONE@AGL_BreakIterator@agl_2_8@@2JB" PURGE="-1" COMMENT="" />
    <EXPORT ORDINAL="279" NAME="?KIND_ANY@LocaleKey@agl_2_8@@2JA" PURGE="-1" COMMENT="" />
    <EXPORT ORDINAL="280" NAME="?MAX_VALUE@AGL_UnicodeSet@agl_2_8@@2JB" PURGE="-1" COMMENT="" />
    <EXPORT ORDINAL="281" NAME="?MIN_VALUE@AGL_UnicodeSet@agl_2_8@@2JB" PURGE="-1" COMMENT="" />
    <EXPORT ORDINAL="282" NAME="?PREFIX_DELIMITER@ICUServiceKey@agl_2_8@@1GB" PURGE="-1" COMMENT="" />
    <EXPORT ORDINAL="283" NAME="?_add@AGL_UnicodeSet@agl_2_8@@AAEXABVAGL_UnicodeString@2@@Z" PURGE="4" COMMENT="" />
    <EXPORT ORDINAL="284" NAME="?_advance@RuleCharacterIterator@agl_2_8@@AAEXJ@Z" PURGE="4" COMMENT="" />
    <EXPORT ORDINAL="285" NAME="?_appendToPat@AGL_UnicodeSet@agl_2_8@@CAXAAVAGL_UnicodeString@2@ABV32@C@Z" PURGE="0" COMMENT="" />
    <EXPORT ORDINAL="286" NAME="?_appendToPat@AGL_UnicodeSet@agl_2_8@@CAXAAVAGL_UnicodeString@2@JC@Z" PURGE="0" COMMENT="" />
    <EXPORT ORDINAL="287" NAME="?_current@RuleCharacterIterator@agl_2_8@@ABEJXZ" PURGE="0" COMMENT="" />
    <EXPORT ORDINAL="288" NAME="?_generatePattern@AGL_UnicodeSet@agl_2_8@@ABEAAVAGL_UnicodeString@2@AAV32@C@Z" PURGE="8" COMMENT="" />
    <EXPORT ORDINAL="289" NAME="?_init@UVector32@agl_2_8@@AAEXJAAW4AGL_UErrorCode@@@Z" PURGE="8" COMMENT="" />
    <EXPORT ORDINAL="290" NAME="?_init@UVector@agl_2_8@@AAEXJAAW4AGL_UErrorCode@@@Z" PURGE="8" COMMENT="" />
    <EXPORT ORDINAL="291" NAME="?_toPattern@AGL_UnicodeSet@agl_2_8@@ABEAAVAGL_UnicodeString@2@AAV32@C@Z" PURGE="8" COMMENT="" />
    <EXPORT ORDINAL="292" NAME="?acceptsListener@ICUService@agl_2_8@@MBECABVEventListener@2@@Z" PURGE="4" COMMENT="" />
    <EXPORT ORDINAL="293" NAME="?add@AGL_UnicodeSet@agl_2_8@@AAEXPBJJC@Z" PURGE="-1" COMMENT="" />
    <EXPORT ORDINAL="294" NAME="?add@AGL_UnicodeSet@agl_2_8@@QAEAAV12@ABVAGL_UnicodeString@2@@Z" PURGE="4" COMMENT="" />
    <EXPORT ORDINAL="295" NAME="?add@AGL_UnicodeSet@agl_2_8@@QAEAAV12@J@Z" PURGE="4" COMMENT="" />
    <EXPORT ORDINAL="296" NAME="?add@AGL_UnicodeSet@agl_2_8@@UAEAAV12@JJ@Z" PURGE="8" COMMENT="" />
    <EXPORT ORDINAL="297" NAME="?addAll@AGL_UnicodeSet@agl_2_8@@QAEAAV12@ABVAGL_UnicodeString@2@@Z" PURGE="4" COMMENT="" />
    <EXPORT ORDINAL="298" NAME="?addAll@AGL_UnicodeSet@agl_2_8@@UAEAAV12@ABV12@@Z" PURGE="4" COMMENT="" />
    <EXPORT ORDINAL="299" NAME="?addElement@UVector32@agl_2_8@@QAEXJAAW4AGL_UErrorCode@@@Z" PURGE="8" COMMENT="" />
    <EXPORT ORDINAL="300" NAME="?addElement@UVector@agl_2_8@@QAEXJAAW4AGL_UErrorCode@@@Z" PURGE="8" COMMENT="" />
    <EXPORT ORDINAL="301" NAME="?addElement@UVector@agl_2_8@@QAEXPAXAAW4AGL_UErrorCode@@@Z" PURGE="8" COMMENT="" />
    <EXPORT ORDINAL="302" NAME="?addListener@ICUNotifier@agl_2_8@@UAEXPBVEventListener@2@AAW4AGL_UErrorCode@@@Z" PURGE="8" COMMENT="" />
    <EXPORT ORDINAL="303" NAME="?addMatchSetTo@AGL_UnicodeSet@agl_2_8@@UBEXAAV12@@Z" PURGE="-1" COMMENT="" />
    <EXPORT ORDINAL="304" NAME="?addRef@AGL_UnicodeString@agl_2_8@@AAEXXZ" PURGE="0" COMMENT="" />
    <EXPORT ORDINAL="305" NAME="?adoptText@AGL_RuleBasedBreakIterator@agl_2_8@@UAEXPAVAGL_CharacterIterator@2@@Z" PURGE="4" COMMENT="" />
    <EXPORT ORDINAL="306" NAME="?allocate@AGL_UnicodeString@agl_2_8@@AAECJ@Z" PURGE="4" COMMENT="" />
    <EXPORT ORDINAL="307" NAME="?allocateStrings@AGL_UnicodeSet@agl_2_8@@AAECXZ" PURGE="0" COMMENT="" />
    <EXPORT ORDINAL="308" NAME="?append@AGL_UnicodeString@agl_2_8@@QAEAAV12@ABV12@@Z" PURGE="4" COMMENT="" />
    <EXPORT ORDINAL="309" NAME="?append@AGL_UnicodeString@agl_2_8@@QAEAAV12@ABV12@JJ@Z" PURGE="12" COMMENT="" />
    <EXPORT ORDINAL="310" NAME="?append@AGL_UnicodeString@agl_2_8@@QAEAAV12@G@Z" PURGE="4" COMMENT="" />
    <EXPORT ORDINAL="311" NAME="?append@AGL_UnicodeString@agl_2_8@@QAEAAV12@J@Z" PURGE="4" COMMENT="" />
    <EXPORT ORDINAL="312" NAME="?append@AGL_UnicodeString@agl_2_8@@QAEAAV12@PBGJ@Z" PURGE="8" COMMENT="" />
    <EXPORT ORDINAL="313" NAME="?append@AGL_UnicodeString@agl_2_8@@QAEAAV12@PBGJJ@Z" PURGE="12" COMMENT="" />
    <EXPORT ORDINAL="314" NAME="?appendNumber@ICU_Utility@agl_2_8@@SAAAVAGL_UnicodeString@2@AAV32@JJJ@Z" PURGE="0" COMMENT="" />
    <EXPORT ORDINAL="315" NAME="?appendToRule@ICU_Utility@agl_2_8@@SAXAAVAGL_UnicodeString@2@ABV32@CC0@Z" PURGE="0" COMMENT="" />
    <EXPORT ORDINAL="316" NAME="?appendToRule@ICU_Utility@agl_2_8@@SAXAAVAGL_UnicodeString@2@JCC0@Z" PURGE="0" COMMENT="" />
    <EXPORT ORDINAL="317" NAME="?appendToRule@ICU_Utility@agl_2_8@@SAXAAVAGL_UnicodeString@2@PBVAGL_UnicodeMatcher@2@C0@Z" PURGE="0" COMMENT="" />
    <EXPORT ORDINAL="318" NAME="?applyFilter@AGL_UnicodeSet@agl_2_8@@AAEXP6ACJPAX@Z0AAW4AGL_UErrorCode@@@Z" PURGE="12" COMMENT="" />
    <EXPORT ORDINAL="319" NAME="?applyIntPropertyValue@AGL_UnicodeSet@agl_2_8@@QAEAAV12@W4AGL_UProperty@@JAAW4AGL_UErrorCode@@@Z" PURGE="12" COMMENT="" />
    <EXPORT ORDINAL="320" NAME="?applyPattern@AGL_UnicodeSet@agl_2_8@@AAEXAAVRuleCharacterIterator@2@PBVAGL_SymbolTable@2@AAVAGL_UnicodeString@2@KAAW4AGL_UErrorCode@@@Z" PURGE="20" COMMENT="" />
    <EXPORT ORDINAL="321" NAME="?applyPattern@AGL_UnicodeSet@agl_2_8@@QAEAAV12@ABVAGL_UnicodeString@2@AAVAGL_ParsePosition@2@KPBVAGL_SymbolTable@2@AAW4AGL_UErrorCode@@@Z" PURGE="20" COMMENT="" />
    <EXPORT ORDINAL="322" NAME="?applyPattern@AGL_UnicodeSet@agl_2_8@@QAEAAV12@ABVAGL_UnicodeString@2@KPBVAGL_SymbolTable@2@AAW4AGL_UErrorCode@@@Z" PURGE="16" COMMENT="" />
    <EXPORT ORDINAL="323" NAME="?applyPattern@AGL_UnicodeSet@agl_2_8@@UAEAAV12@ABVAGL_UnicodeString@2@AAW4AGL_UErrorCode@@@Z" PURGE="8" COMMENT="" />
    <EXPORT ORDINAL="324" NAME="?applyPropertyAlias@AGL_UnicodeSet@agl_2_8@@QAEAAV12@ABVAGL_UnicodeString@2@0AAW4AGL_UErrorCode@@@Z" PURGE="12" COMMENT="" />
    <EXPORT ORDINAL="325" NAME="?applyPropertyPattern@AGL_UnicodeSet@agl_2_8@@AAEAAV12@ABVAGL_UnicodeString@2@AAVAGL_ParsePosition@2@AAW4AGL_UErrorCode@@@Z" PURGE="12" COMMENT="" />
    <EXPORT ORDINAL="326" NAME="?applyPropertyPattern@AGL_UnicodeSet@agl_2_8@@AAEXAAVRuleCharacterIterator@2@AAVAGL_UnicodeString@2@AAW4AGL_UErrorCode@@@Z" PURGE="12" COMMENT="" />
    <EXPORT ORDINAL="327" NAME="?assign@UVector32@agl_2_8@@QAEXABV12@AAW4AGL_UErrorCode@@@Z" PURGE="8" COMMENT="" />
    <EXPORT ORDINAL="328" NAME="?assign@UVector@agl_2_8@@QAEXABV12@P6AXPATUHashTok@@1@ZAAW4AGL_UErrorCode@@@Z" PURGE="12" COMMENT="" />
    <EXPORT ORDINAL="329" NAME="?atEnd@RuleCharacterIterator@agl_2_8@@QBECXZ" PURGE="0" COMMENT="" />
    <EXPORT ORDINAL="330" NAME="?canonicalID@ICUServiceKey@agl_2_8@@UBEAAVAGL_UnicodeString@2@AAV32@@Z" PURGE="4" COMMENT="" />
    <EXPORT ORDINAL="331" NAME="?canonicalID@LocaleKey@agl_2_8@@UBEAAVAGL_UnicodeString@2@AAV32@@Z" PURGE="4" COMMENT="" />
    <EXPORT ORDINAL="332" NAME="?canonicalLocale@LocaleKey@agl_2_8@@UBEAAVAGL_Locale@2@AAV32@@Z" PURGE="4" COMMENT="" />
    <EXPORT ORDINAL="333" NAME="?canonicalLocaleString@LocaleUtility@agl_2_8@@SAAAVAGL_UnicodeString@2@PBV32@AAV32@@Z" PURGE="0" COMMENT="" />
    <EXPORT ORDINAL="334" NAME="?caseCloseOne@AGL_UnicodeSet@agl_2_8@@AAEXABVAGL_UnicodeString@2@@Z" PURGE="4" COMMENT="" />
    <EXPORT ORDINAL="335" NAME="?caseCloseOne@AGL_UnicodeSet@agl_2_8@@AAEXABVCaseEquivClass@2@@Z" PURGE="4" COMMENT="" />
    <EXPORT ORDINAL="336" NAME="?caseCloseOne@AGL_UnicodeSet@agl_2_8@@AAEXG@Z" PURGE="4" COMMENT="" />
    <EXPORT ORDINAL="337" NAME="?caseCompare@AGL_UnicodeString@agl_2_8@@QBECABV12@K@Z" PURGE="8" COMMENT="" />
    <EXPORT ORDINAL="338" NAME="?caseCompare@AGL_UnicodeString@agl_2_8@@QBECJJABV12@JJK@Z" PURGE="24" COMMENT="" />
    <EXPORT ORDINAL="339" NAME="?caseCompare@AGL_UnicodeString@agl_2_8@@QBECJJABV12@K@Z" PURGE="16" COMMENT="" />
    <EXPORT ORDINAL="340" NAME="?caseCompare@AGL_UnicodeString@agl_2_8@@QBECJJPBGJJK@Z" PURGE="24" COMMENT="" />
    <EXPORT ORDINAL="341" NAME="?caseCompare@AGL_UnicodeString@agl_2_8@@QBECJJPBGK@Z" PURGE="16" COMMENT="" />
    <EXPORT ORDINAL="342" NAME="?caseCompare@AGL_UnicodeString@agl_2_8@@QBECPBGJK@Z" PURGE="12" COMMENT="" />
    <EXPORT ORDINAL="343" NAME="?caseCompareBetween@AGL_UnicodeString@agl_2_8@@QBECJJABV12@JJK@Z" PURGE="24" COMMENT="" />
    <EXPORT ORDINAL="344" NAME="?caseMap@AGL_UnicodeString@agl_2_8@@AAEAAV12@PAVAGL_BreakIterator@2@ABVAGL_Locale@2@KJ@Z" PURGE="16" COMMENT="" />
    <EXPORT ORDINAL="345" NAME="?char32At@AGL_Replaceable@agl_2_8@@QBEJJ@Z" PURGE="-1" COMMENT="" />
    <EXPORT ORDINAL="346" NAME="?char32At@AGL_UnicodeString@agl_2_8@@QBEJJ@Z" PURGE="4" COMMENT="" />
    <EXPORT ORDINAL="347" NAME="?charAt@AGL_Replaceable@agl_2_8@@QBEGJ@Z" PURGE="-1" COMMENT="" />
    <EXPORT ORDINAL="348" NAME="?charAt@AGL_UnicodeSet@agl_2_8@@QBEJJ@Z" PURGE="4" COMMENT="" />
    <EXPORT ORDINAL="349" NAME="?charAt@AGL_UnicodeString@agl_2_8@@QBEGJ@Z" PURGE="4" COMMENT="" />
    <EXPORT ORDINAL="350" NAME="?cleanPieces@AGL_CanonicalIterator@agl_2_8@@AAEXXZ" PURGE="0" COMMENT="" />
    <EXPORT ORDINAL="351" NAME="?cleanup@LocaleUtility@agl_2_8@@SACXZ" PURGE="0" COMMENT="" />
    <EXPORT ORDINAL="352" NAME="?clear@AGL_UnicodeSet@agl_2_8@@UAEAAV12@XZ" PURGE="0" COMMENT="" />
    <EXPORT ORDINAL="353" NAME="?clearBuffer@AGL_Normalizer@agl_2_8@@AAEXXZ" PURGE="0" COMMENT="" />
    <EXPORT ORDINAL="354" NAME="?clearCaches@ICUService@agl_2_8@@MAEXXZ" PURGE="0" COMMENT="" />
    <EXPORT ORDINAL="355" NAME="?clearServiceCache@ICUService@agl_2_8@@IAEXXZ" PURGE="0" COMMENT="" />
    <EXPORT ORDINAL="356" NAME="?clone@AGL_DictionaryBasedBreakIterator@agl_2_8@@UBEPAVAGL_BreakIterator@2@XZ" PURGE="0" COMMENT="" />
    <EXPORT ORDINAL="357" NAME="?clone@AGL_Locale@agl_2_8@@QBEPAV12@XZ" PURGE="0" COMMENT="" />
    <EXPORT ORDINAL="358" NAME="?clone@AGL_Normalizer@agl_2_8@@QBEPAV12@XZ" PURGE="0" COMMENT="" />
    <EXPORT ORDINAL="359" NAME="?clone@AGL_ParsePosition@agl_2_8@@QBEPAV12@XZ" PURGE="0" COMMENT="" />
    <EXPORT ORDINAL="360" NAME="?clone@AGL_Replaceable@agl_2_8@@UBEPAV12@XZ" PURGE="0" COMMENT="" />
    <EXPORT ORDINAL="361" NAME="?clone@AGL_ResourceBundle@agl_2_8@@QBEPAV12@XZ" PURGE="0" COMMENT="" />
    <EXPORT ORDINAL="362" NAME="?clone@AGL_RuleBasedBreakIterator@agl_2_8@@UBEPAVAGL_BreakIterator@2@XZ" PURGE="0" COMMENT="" />
    <EXPORT ORDINAL="363" NAME="?clone@AGL_StringCharacterIterator@agl_2_8@@UBEPAVAGL_CharacterIterator@2@XZ" PURGE="0" COMMENT="" />
    <EXPORT ORDINAL="364" NAME="?clone@AGL_StringEnumeration@agl_2_8@@UBEPAV12@XZ" PURGE="0" COMMENT="" />
    <EXPORT ORDINAL="365" NAME="?clone@AGL_UCharCharacterIterator@agl_2_8@@UBEPAVAGL_CharacterIterator@2@XZ" PURGE="0" COMMENT="" />
    <EXPORT ORDINAL="366" NAME="?clone@AGL_UnicodeSet@agl_2_8@@UBEPAVAGL_UnicodeFunctor@2@XZ" PURGE="0" COMMENT="" />
    <EXPORT ORDINAL="367" NAME="?clone@AGL_UnicodeString@agl_2_8@@UBEPAVAGL_Replaceable@2@XZ" PURGE="0" COMMENT="" />
    <EXPORT ORDINAL="368" NAME="?cloneArrayIfNeeded@AGL_UnicodeString@agl_2_8@@AAECJJCPAPAJC@Z" PURGE="20" COMMENT="" />
    <EXPORT ORDINAL="369" NAME="?closeOver@AGL_UnicodeSet@agl_2_8@@QAEAAV12@J@Z" PURGE="4" COMMENT="" />
    <EXPORT ORDINAL="370" NAME="?compact@AGL_UnicodeSet@agl_2_8@@UAEAAV12@XZ" PURGE="0" COMMENT="" />
    <EXPORT ORDINAL="371" NAME="?compare@AGL_Normalizer@agl_2_8@@SAJABVAGL_UnicodeString@2@0KAAW4AGL_UErrorCode@@@Z" PURGE="0" COMMENT="" />
    <EXPORT ORDINAL="372" NAME="?compare@AGL_UnicodeString@agl_2_8@@QBECABV12@@Z" PURGE="4" COMMENT="" />
    <EXPORT ORDINAL="373" NAME="?compare@AGL_UnicodeString@agl_2_8@@QBECJJABV12@@Z" PURGE="12" COMMENT="" />
    <EXPORT ORDINAL="374" NAME="?compare@AGL_UnicodeString@agl_2_8@@QBECJJABV12@JJ@Z" PURGE="20" COMMENT="" />
    <EXPORT ORDINAL="375" NAME="?compare@AGL_UnicodeString@agl_2_8@@QBECJJPBG@Z" PURGE="12" COMMENT="" />
    <EXPORT ORDINAL="376" NAME="?compare@AGL_UnicodeString@agl_2_8@@QBECJJPBGJJ@Z" PURGE="20" COMMENT="" />
    <EXPORT ORDINAL="377" NAME="?compare@AGL_UnicodeString@agl_2_8@@QBECPBGJ@Z" PURGE="8" COMMENT="" />
    <EXPORT ORDINAL="378" NAME="?compareBetween@AGL_UnicodeString@agl_2_8@@QBECJJABV12@JJ@Z" PURGE="20" COMMENT="" />
    <EXPORT ORDINAL="379" NAME="?compareCodePointOrder@AGL_UnicodeString@agl_2_8@@QBECABV12@@Z" PURGE="4" COMMENT="" />
    <EXPORT ORDINAL="380" NAME="?compareCodePointOrder@AGL_UnicodeString@agl_2_8@@QBECJJABV12@@Z" PURGE="12" COMMENT="" />
    <EXPORT ORDINAL="381" NAME="?compareCodePointOrder@AGL_UnicodeString@agl_2_8@@QBECJJABV12@JJ@Z" PURGE="20" COMMENT="" />
    <EXPORT ORDINAL="382" NAME="?compareCodePointOrder@AGL_UnicodeString@agl_2_8@@QBECJJPBG@Z" PURGE="12" COMMENT="" />
    <EXPORT ORDINAL="383" NAME="?compareCodePointOrder@AGL_UnicodeString@agl_2_8@@QBECJJPBGJJ@Z" PURGE="20" COMMENT="" />
    <EXPORT ORDINAL="384" NAME="?compareCodePointOrder@AGL_UnicodeString@agl_2_8@@QBECPBGJ@Z" PURGE="8" COMMENT="" />
    <EXPORT ORDINAL="385" NAME="?compareCodePointOrderBetween@AGL_UnicodeString@agl_2_8@@QBECJJABV12@JJ@Z" PURGE="20" COMMENT="" />
    <EXPORT ORDINAL="386" NAME="?complement@AGL_UnicodeSet@agl_2_8@@QAEAAV12@ABVAGL_UnicodeString@2@@Z" PURGE="4" COMMENT="" />
    <EXPORT ORDINAL="387" NAME="?complement@AGL_UnicodeSet@agl_2_8@@QAEAAV12@J@Z" PURGE="4" COMMENT="" />
    <EXPORT ORDINAL="388" NAME="?complement@AGL_UnicodeSet@agl_2_8@@UAEAAV12@JJ@Z" PURGE="8" COMMENT="" />
    <EXPORT ORDINAL="389" NAME="?complement@AGL_UnicodeSet@agl_2_8@@UAEAAV12@XZ" PURGE="0" COMMENT="" />
    <EXPORT ORDINAL="390" NAME="?complementAll@AGL_UnicodeSet@agl_2_8@@QAEAAV12@ABVAGL_UnicodeString@2@@Z" PURGE="4" COMMENT="" />
    <EXPORT ORDINAL="391" NAME="?complementAll@AGL_UnicodeSet@agl_2_8@@UAEAAV12@ABV12@@Z" PURGE="4" COMMENT="" />
    <EXPORT ORDINAL="392" NAME="?compose@AGL_Normalizer@agl_2_8@@SAXABVAGL_UnicodeString@2@CJAAV32@AAW4AGL_UErrorCode@@@Z" PURGE="0" COMMENT="" />
    <EXPORT ORDINAL="393" NAME="?concatenate@AGL_Normalizer@agl_2_8@@SAAAVAGL_UnicodeString@2@AAV32@00W4AGL_UNormalizationMode@@JAAW4AGL_UErrorCode@@@Z" PURGE="0" COMMENT="" />
    <EXPORT ORDINAL="394" NAME="?constructForLocale@AGL_ResourceBundle@agl_2_8@@AAEXABVAGL_UnicodeString@2@ABVAGL_Locale@2@AAW4AGL_UErrorCode@@@Z" PURGE="12" COMMENT="" />
    <EXPORT ORDINAL="395" NAME="?contains@AGL_UnicodeSet@agl_2_8@@QBECABVAGL_UnicodeString@2@@Z" PURGE="4" COMMENT="" />
    <EXPORT ORDINAL="396" NAME="?contains@AGL_UnicodeSet@agl_2_8@@UBECJ@Z" PURGE="4" COMMENT="" />
    <EXPORT ORDINAL="397" NAME="?contains@AGL_UnicodeSet@agl_2_8@@UBECJJ@Z" PURGE="8" COMMENT="" />
    <EXPORT ORDINAL="398" NAME="?contains@UVector32@agl_2_8@@QBECJ@Z" PURGE="4" COMMENT="" />
    <EXPORT ORDINAL="399" NAME="?contains@UVector@agl_2_8@@QBECJ@Z" PURGE="4" COMMENT="" />
    <EXPORT ORDINAL="400" NAME="?contains@UVector@agl_2_8@@QBECPAX@Z" PURGE="4" COMMENT="" />
    <EXPORT ORDINAL="401" NAME="?containsAll@AGL_UnicodeSet@agl_2_8@@QBECABVAGL_UnicodeString@2@@Z" PURGE="4" COMMENT="" />
    <EXPORT ORDINAL="402" NAME="?containsAll@AGL_UnicodeSet@agl_2_8@@UBECABV12@@Z" PURGE="4" COMMENT="" />
    <EXPORT ORDINAL="403" NAME="?containsAll@UVector32@agl_2_8@@QBECABV12@@Z" PURGE="4" COMMENT="" />
    <EXPORT ORDINAL="404" NAME="?containsAll@UVector@agl_2_8@@QBECABV12@@Z" PURGE="4" COMMENT="" />
    <EXPORT ORDINAL="405" NAME="?containsNone@AGL_UnicodeSet@agl_2_8@@QBECABV12@@Z" PURGE="4" COMMENT="" />
    <EXPORT ORDINAL="406" NAME="?containsNone@AGL_UnicodeSet@agl_2_8@@QBECABVAGL_UnicodeString@2@@Z" PURGE="4" COMMENT="" />
    <EXPORT ORDINAL="407" NAME="?containsNone@AGL_UnicodeSet@agl_2_8@@QBECJJ@Z" PURGE="8" COMMENT="" />
    <EXPORT ORDINAL="408" NAME="?containsNone@UVector32@agl_2_8@@QBECABV12@@Z" PURGE="4" COMMENT="" />
    <EXPORT ORDINAL="409" NAME="?containsNone@UVector@agl_2_8@@QBECABV12@@Z" PURGE="4" COMMENT="" />
    <EXPORT ORDINAL="410" NAME="?containsSome@AGL_UnicodeSet@agl_2_8@@QBECABV12@@Z" PURGE="4" COMMENT="" />
    <EXPORT ORDINAL="411" NAME="?containsSome@AGL_UnicodeSet@agl_2_8@@QBECABVAGL_UnicodeString@2@@Z" PURGE="4" COMMENT="" />
    <EXPORT ORDINAL="412" NAME="?containsSome@AGL_UnicodeSet@agl_2_8@@QBECJJ@Z" PURGE="8" COMMENT="" />
    <EXPORT ORDINAL="413" NAME="?copy@AGL_UnicodeString@agl_2_8@@UAEXJJJ@Z" PURGE="12" COMMENT="" />
    <EXPORT ORDINAL="414" NAME="?copyFrom@AGL_UnicodeString@agl_2_8@@AAEAAV12@ABV12@C@Z" PURGE="8" COMMENT="" />
    <EXPORT ORDINAL="415" NAME="?count@Hashtable@agl_2_8@@QBEJXZ" PURGE="0" COMMENT="" />
    <EXPORT ORDINAL="416" NAME="?countChar32@AGL_UnicodeString@agl_2_8@@QBEJJJ@Z" PURGE="8" COMMENT="" />
    <EXPORT ORDINAL="417" NAME="?countFactories@ICUService@agl_2_8@@IBEJXZ" PURGE="0" COMMENT="" />
    <EXPORT ORDINAL="418" NAME="?create@LocaleKeyFactory@agl_2_8@@UBEPAVAGL_UObject@2@ABVICUServiceKey@2@PBVICUService@2@AAW4AGL_UErrorCode@@@Z" PURGE="12" COMMENT="" />
    <EXPORT ORDINAL="419" NAME="?create@SimpleFactory@agl_2_8@@UBEPAVAGL_UObject@2@ABVICUServiceKey@2@PBVICUService@2@AAW4AGL_UErrorCode@@@Z" PURGE="12" COMMENT="" />
    <EXPORT ORDINAL="420" NAME="?create@SimpleLocaleKeyFactory@agl_2_8@@UBEPAVAGL_UObject@2@ABVICUServiceKey@2@PBVICUService@2@AAW4AGL_UErrorCode@@@Z" PURGE="12" COMMENT="" />
    <EXPORT ORDINAL="421" NAME="?create@StringPair@agl_2_8@@SAPAV12@ABVAGL_UnicodeString@2@0AAW4AGL_UErrorCode@@@Z" PURGE="0" COMMENT="" />
    <EXPORT ORDINAL="422" NAME="?createBufferClone@AGL_DictionaryBasedBreakIterator@agl_2_8@@MAEPAVAGL_BreakIterator@2@PAXAAJAAW4AGL_UErrorCode@@@Z" PURGE="12" COMMENT="" />
    <EXPORT ORDINAL="423" NAME="?createBufferClone@AGL_RuleBasedBreakIterator@agl_2_8@@UAEPAVAGL_BreakIterator@2@PAXAAJAAW4AGL_UErrorCode@@@Z" PURGE="12" COMMENT="" />
    <EXPORT ORDINAL="424" NAME="?createCharacterInstance@AGL_BreakIterator@agl_2_8@@SAPAV12@ABVAGL_Locale@2@AAW4AGL_UErrorCode@@@Z" PURGE="0" COMMENT="" />
    <EXPORT ORDINAL="425" NAME="?createFrom@AGL_UnicodeSet@agl_2_8@@SAPAV12@ABVAGL_UnicodeString@2@@Z" PURGE="0" COMMENT="" />
    <EXPORT ORDINAL="426" NAME="?createFromAll@AGL_UnicodeSet@agl_2_8@@SAPAV12@ABVAGL_UnicodeString@2@@Z" PURGE="0" COMMENT="" />
    <EXPORT ORDINAL="427" NAME="?createFromName@AGL_Locale@agl_2_8@@SA?AV12@PBD@Z" PURGE="0" COMMENT="" />
    <EXPORT ORDINAL="428" NAME="?createInstance@AGL_BreakIterator@agl_2_8@@CAPAV12@ABVAGL_Locale@2@W4AGL_UBreakIteratorType@@AAW4AGL_UErrorCode@@@Z" PURGE="0" COMMENT="" />
    <EXPORT ORDINAL="429" NAME="?createKey@ICULocaleService@agl_2_8@@MBEPAVICUServiceKey@2@PBVAGL_UnicodeString@2@AAW4AGL_UErrorCode@@@Z" PURGE="8" COMMENT="" />
    <EXPORT ORDINAL="430" NAME="?createKey@ICULocaleService@agl_2_8@@MBEPAVICUServiceKey@2@PBVAGL_UnicodeString@2@JAAW4AGL_UErrorCode@@@Z" PURGE="12" COMMENT="" />
    <EXPORT ORDINAL="431" NAME="?createKey@ICUService@agl_2_8@@UBEPAVICUServiceKey@2@PBVAGL_UnicodeString@2@AAW4AGL_UErrorCode@@@Z" PURGE="8" COMMENT="" />
    <EXPORT ORDINAL="432" NAME="?createKeywords@AGL_Locale@agl_2_8@@QBEPAVAGL_StringEnumeration@2@AAW4AGL_UErrorCode@@@Z" PURGE="4" COMMENT="" />
    <EXPORT ORDINAL="433" NAME="?createLineInstance@AGL_BreakIterator@agl_2_8@@SAPAV12@ABVAGL_Locale@2@AAW4AGL_UErrorCode@@@Z" PURGE="0" COMMENT="" />
    <EXPORT ORDINAL="434" NAME="?createSentenceInstance@AGL_BreakIterator@agl_2_8@@SAPAV12@ABVAGL_Locale@2@AAW4AGL_UErrorCode@@@Z" PURGE="0" COMMENT="" />
    <EXPORT ORDINAL="435" NAME="?createSimpleFactory@ICUService@agl_2_8@@MAEPAVICUServiceFactory@2@PAVAGL_UObject@2@ABVAGL_UnicodeString@2@CAAW4AGL_UErrorCode@@@Z" PURGE="16" COMMENT="" />
    <EXPORT ORDINAL="436" NAME="?createTitleInstance@AGL_BreakIterator@agl_2_8@@SAPAV12@ABVAGL_Locale@2@AAW4AGL_UErrorCode@@@Z" PURGE="0" COMMENT="" />
    <EXPORT ORDINAL="437" NAME="?createWithCanonicalFallback@LocaleKey@agl_2_8@@SAPAV12@PBVAGL_UnicodeString@2@0AAW4AGL_UErrorCode@@@Z" PURGE="0" COMMENT="" />
    <EXPORT ORDINAL="438" NAME="?createWithCanonicalFallback@LocaleKey@agl_2_8@@SAPAV12@PBVAGL_UnicodeString@2@0JAAW4AGL_UErrorCode@@@Z" PURGE="0" COMMENT="" />
    <EXPORT ORDINAL="439" NAME="?createWordInstance@AGL_BreakIterator@agl_2_8@@SAPAV12@ABVAGL_Locale@2@AAW4AGL_UErrorCode@@@Z" PURGE="0" COMMENT="" />
    <EXPORT ORDINAL="440" NAME="?current32@AGL_UCharCharacterIterator@agl_2_8@@UBEJXZ" PURGE="0" COMMENT="" />
    <EXPORT ORDINAL="441" NAME="?current@AGL_Normalizer@agl_2_8@@QAEJXZ" PURGE="0" COMMENT="" />
    <EXPORT ORDINAL="442" NAME="?current@AGL_RuleBasedBreakIterator@agl_2_8@@UBEJXZ" PURGE="0" COMMENT="" />
    <EXPORT ORDINAL="443" NAME="?current@AGL_UCharCharacterIterator@agl_2_8@@UBEGXZ" PURGE="0" COMMENT="" />
    <EXPORT ORDINAL="444" NAME="?currentDescriptor@ICUServiceKey@agl_2_8@@UBEAAVAGL_UnicodeString@2@AAV32@@Z" PURGE="4" COMMENT="" />
    <EXPORT ORDINAL="445" NAME="?currentDescriptor@LocaleKey@agl_2_8@@UBEAAVAGL_UnicodeString@2@AAV32@@Z" PURGE="4" COMMENT="" />
    <EXPORT ORDINAL="446" NAME="?currentID@ICUServiceKey@agl_2_8@@UBEAAVAGL_UnicodeString@2@AAV32@@Z" PURGE="-1" COMMENT="" />
    <EXPORT ORDINAL="447" NAME="?currentID@LocaleKey@agl_2_8@@UBEAAVAGL_UnicodeString@2@AAV32@@Z" PURGE="4" COMMENT="" />
    <EXPORT ORDINAL="448" NAME="?currentLocale@LocaleKey@agl_2_8@@UBEAAVAGL_Locale@2@AAV32@@Z" PURGE="4" COMMENT="" />
    <EXPORT ORDINAL="449" NAME="?decompose@AGL_Normalizer@agl_2_8@@SAXABVAGL_UnicodeString@2@CJAAV32@AAW4AGL_UErrorCode@@@Z" PURGE="0" COMMENT="" />
    <EXPORT ORDINAL="450" NAME="?divideUpDictionaryRange@AGL_DictionaryBasedBreakIterator@agl_2_8@@AAEXJJAAW4AGL_UErrorCode@@@Z" PURGE="12" COMMENT="" />
    <EXPORT ORDINAL="451" NAME="?doCaseCompare@AGL_UnicodeString@agl_2_8@@ABECJJABV12@JJK@Z" PURGE="24" COMMENT="" />
    <EXPORT ORDINAL="452" NAME="?doCaseCompare@AGL_UnicodeString@agl_2_8@@ABECJJPBGJJK@Z" PURGE="24" COMMENT="" />
    <EXPORT ORDINAL="453" NAME="?doCharAt@AGL_UnicodeString@agl_2_8@@ABEGJ@Z" PURGE="4" COMMENT="" />
    <EXPORT ORDINAL="454" NAME="?doCodepageCreate@AGL_UnicodeString@agl_2_8@@AAEXPBDJ0@Z" PURGE="12" COMMENT="" />
    <EXPORT ORDINAL="455" NAME="?doCodepageCreate@AGL_UnicodeString@agl_2_8@@AAEXPBDJPAUUConverter@@AAW4AGL_UErrorCode@@@Z" PURGE="16" COMMENT="" />
    <EXPORT ORDINAL="456" NAME="?doCompare@AGL_UnicodeString@agl_2_8@@ABECJJABV12@JJ@Z" PURGE="20" COMMENT="" />
    <EXPORT ORDINAL="457" NAME="?doCompare@AGL_UnicodeString@agl_2_8@@ABECJJPBGJJ@Z" PURGE="20" COMMENT="" />
    <EXPORT ORDINAL="458" NAME="?doCompareCodePointOrder@AGL_UnicodeString@agl_2_8@@ABECJJABV12@JJ@Z" PURGE="20" COMMENT="" />
    <EXPORT ORDINAL="459" NAME="?doCompareCodePointOrder@AGL_UnicodeString@agl_2_8@@ABECJJPBGJJ@Z" PURGE="20" COMMENT="" />
    <EXPORT ORDINAL="460" NAME="?doExtract@AGL_UnicodeString@agl_2_8@@ABEJJJPADJPAUUConverter@@AAW4AGL_UErrorCode@@@Z" PURGE="24" COMMENT="" />
    <EXPORT ORDINAL="461" NAME="?doExtract@AGL_UnicodeString@agl_2_8@@ABEXJJAAV12@@Z" PURGE="12" COMMENT="" />
    <EXPORT ORDINAL="462" NAME="?doExtract@AGL_UnicodeString@agl_2_8@@ABEXJJPAGJ@Z" PURGE="16" COMMENT="" />
    <EXPORT ORDINAL="463" NAME="?doHashCode@AGL_UnicodeString@agl_2_8@@ABEJXZ" PURGE="0" COMMENT="" />
    <EXPORT ORDINAL="464" NAME="?doIndexOf@AGL_UnicodeString@agl_2_8@@ABEJGJJ@Z" PURGE="12" COMMENT="" />
    <EXPORT ORDINAL="465" NAME="?doIndexOf@AGL_UnicodeString@agl_2_8@@ABEJJJJ@Z" PURGE="12" COMMENT="" />
    <EXPORT ORDINAL="466" NAME="?doLastIndexOf@AGL_UnicodeString@agl_2_8@@ABEJGJJ@Z" PURGE="12" COMMENT="" />
    <EXPORT ORDINAL="467" NAME="?doLastIndexOf@AGL_UnicodeString@agl_2_8@@ABEJJJJ@Z" PURGE="12" COMMENT="" />
    <EXPORT ORDINAL="468" NAME="?doReplace@AGL_UnicodeString@agl_2_8@@AAEAAV12@JJABV12@JJ@Z" PURGE="20" COMMENT="" />
    <EXPORT ORDINAL="469" NAME="?doReplace@AGL_UnicodeString@agl_2_8@@AAEAAV12@JJPBGJJ@Z" PURGE="20" COMMENT="" />
    <EXPORT ORDINAL="470" NAME="?doReverse@AGL_UnicodeString@agl_2_8@@AAEAAV12@JJ@Z" PURGE="8" COMMENT="" />
    <EXPORT ORDINAL="471" NAME="?elementAt@UVector@agl_2_8@@QBEPAXJ@Z" PURGE="4" COMMENT="" />
    <EXPORT ORDINAL="472" NAME="?elementAti@UVector32@agl_2_8@@QBEJJ@Z" PURGE="4" COMMENT="" />
    <EXPORT ORDINAL="473" NAME="?elementAti@UVector@agl_2_8@@QBEJJ@Z" PURGE="4" COMMENT="" />
    <EXPORT ORDINAL="474" NAME="?empty@UStack@agl_2_8@@QBECXZ" PURGE="0" COMMENT="" />
    <EXPORT ORDINAL="475" NAME="?empty@UVector32@agl_2_8@@QBECXZ" PURGE="0" COMMENT="" />
    <EXPORT ORDINAL="476" NAME="?endIndex@AGL_CharacterIterator@agl_2_8@@QBEJXZ" PURGE="0" COMMENT="" />
    <EXPORT ORDINAL="477" NAME="?endIndex@AGL_Normalizer@agl_2_8@@QBEJXZ" PURGE="0" COMMENT="" />
    <EXPORT ORDINAL="478" NAME="?endsWith@AGL_UnicodeString@agl_2_8@@QBECABV12@@Z" PURGE="4" COMMENT="" />
    <EXPORT ORDINAL="479" NAME="?endsWith@AGL_UnicodeString@agl_2_8@@QBECABV12@JJ@Z" PURGE="12" COMMENT="" />
    <EXPORT ORDINAL="480" NAME="?endsWith@AGL_UnicodeString@agl_2_8@@QBECPBGJ@Z" PURGE="8" COMMENT="" />
    <EXPORT ORDINAL="481" NAME="?endsWith@AGL_UnicodeString@agl_2_8@@QBECPBGJJ@Z" PURGE="12" COMMENT="" />
    <EXPORT ORDINAL="482" NAME="?ensureBufferCapacity@AGL_UnicodeSet@agl_2_8@@AAEXJ@Z" PURGE="4" COMMENT="" />
    <EXPORT ORDINAL="483" NAME="?ensureCapacity@AGL_UnicodeSet@agl_2_8@@AAEXJ@Z" PURGE="4" COMMENT="" />
    <EXPORT ORDINAL="484" NAME="?ensureCapacity@UVector32@agl_2_8@@QAECJAAW4AGL_UErrorCode@@@Z" PURGE="8" COMMENT="" />
    <EXPORT ORDINAL="485" NAME="?ensureCapacity@UVector@agl_2_8@@QAECJAAW4AGL_UErrorCode@@@Z" PURGE="8" COMMENT="" />
    <EXPORT ORDINAL="486" NAME="?ensureCharsCapacity@AGL_StringEnumeration@agl_2_8@@IAEXJAAW4AGL_UErrorCode@@@Z" PURGE="8" COMMENT="" />
    <EXPORT ORDINAL="487" NAME="?equals@UVector32@agl_2_8@@QBECABV12@@Z" PURGE="4" COMMENT="" />
    <EXPORT ORDINAL="488" NAME="?equals@UVector@agl_2_8@@QBECABV12@@Z" PURGE="4" COMMENT="" />
    <EXPORT ORDINAL="489" NAME="?escapeUnprintable@ICU_Utility@agl_2_8@@SACAAVAGL_UnicodeString@2@J@Z" PURGE="0" COMMENT="" />
    <EXPORT ORDINAL="490" NAME="?exclusiveOr@AGL_UnicodeSet@agl_2_8@@AAEXPBJJC@Z" PURGE="12" COMMENT="" />
    <EXPORT ORDINAL="491" NAME="?expandCapacity@UVector32@agl_2_8@@QAECJAAW4AGL_UErrorCode@@@Z" PURGE="8" COMMENT="" />
    <EXPORT ORDINAL="492" NAME="?extract@AGL_CanonicalIterator@agl_2_8@@AAEPAVHashtable@2@JPBGJJAAW4AGL_UErrorCode@@@Z" PURGE="20" COMMENT="" />
    <EXPORT ORDINAL="493" NAME="?extract@AGL_UnicodeString@agl_2_8@@QBEJJJPADKPBD@Z" PURGE="20" COMMENT="" />
    <EXPORT ORDINAL="494" NAME="?extract@AGL_UnicodeString@agl_2_8@@QBEJJJPADPBD@Z" PURGE="16" COMMENT="" />
    <EXPORT ORDINAL="495" NAME="?extract@AGL_UnicodeString@agl_2_8@@QBEJPADJPAUUConverter@@AAW4AGL_UErrorCode@@@Z" PURGE="16" COMMENT="" />
    <EXPORT ORDINAL="496" NAME="?extract@AGL_UnicodeString@agl_2_8@@QBEJPAGJAAW4AGL_UErrorCode@@@Z" PURGE="12" COMMENT="" />
    <EXPORT ORDINAL="497" NAME="?extract@AGL_UnicodeString@agl_2_8@@QBEXJJAAV12@@Z" PURGE="12" COMMENT="" />
    <EXPORT ORDINAL="498" NAME="?extract@AGL_UnicodeString@agl_2_8@@QBEXJJPAGJ@Z" PURGE="16" COMMENT="" />
    <EXPORT ORDINAL="499" NAME="?extractBetween@AGL_UnicodeString@agl_2_8@@QBEXJJPAGJ@Z" PURGE="16" COMMENT="" />
    <EXPORT ORDINAL="500" NAME="?extractBetween@AGL_UnicodeString@agl_2_8@@UBEXJJAAV12@@Z" PURGE="12" COMMENT="" />
    <EXPORT ORDINAL="501" NAME="?fTrace@AGL_RuleBasedBreakIterator@agl_2_8@@1CA" PURGE="-1" COMMENT="" />
    <EXPORT ORDINAL="502" NAME="?fallback@ICUServiceKey@agl_2_8@@UAECXZ" PURGE="0" COMMENT="" />
    <EXPORT ORDINAL="503" NAME="?fallback@LocaleKey@agl_2_8@@UAECXZ" PURGE="0" COMMENT="" />
    <EXPORT ORDINAL="504" NAME="?fastCopyFrom@AGL_UnicodeString@agl_2_8@@QAEAAV12@ABV12@@Z" PURGE="4" COMMENT="" />
    <EXPORT ORDINAL="505" NAME="?find@Hashtable@agl_2_8@@QBEPBUUHashElement@@ABVAGL_UnicodeString@2@@Z" PURGE="4" COMMENT="" />
    <EXPORT ORDINAL="506" NAME="?findAndReplace@AGL_UnicodeString@agl_2_8@@QAEAAV12@ABV12@0@Z" PURGE="8" COMMENT="" />
    <EXPORT ORDINAL="507" NAME="?findAndReplace@AGL_UnicodeString@agl_2_8@@QAEAAV12@JJABV12@0@Z" PURGE="16" COMMENT="" />
    <EXPORT ORDINAL="508" NAME="?findAndReplace@AGL_UnicodeString@agl_2_8@@QAEAAV12@JJABV12@JJ0JJ@Z" PURGE="32" COMMENT="" />
    <EXPORT ORDINAL="509" NAME="?findCodePoint@AGL_UnicodeSet@agl_2_8@@ABEJJ@Z" PURGE="4" COMMENT="" />
    <EXPORT ORDINAL="510" NAME="?first32@AGL_UCharCharacterIterator@agl_2_8@@UAEJXZ" PURGE="0" COMMENT="" />
    <EXPORT ORDINAL="511" NAME="?first32PostInc@AGL_CharacterIterator@agl_2_8@@UAEJXZ" PURGE="-1" COMMENT="" />
    <EXPORT ORDINAL="512" NAME="?first32PostInc@AGL_UCharCharacterIterator@agl_2_8@@UAEJXZ" PURGE="0" COMMENT="" />
    <EXPORT ORDINAL="513" NAME="?first@AGL_Normalizer@agl_2_8@@QAEJXZ" PURGE="0" COMMENT="" />
    <EXPORT ORDINAL="514" NAME="?first@AGL_RuleBasedBreakIterator@agl_2_8@@UAEJXZ" PURGE="0" COMMENT="" />
    <EXPORT ORDINAL="515" NAME="?first@AGL_UCharCharacterIterator@agl_2_8@@UAEGXZ" PURGE="0" COMMENT="" />
    <EXPORT ORDINAL="516" NAME="?firstElement@UVector@agl_2_8@@QBEPAXXZ" PURGE="0" COMMENT="" />
    <EXPORT ORDINAL="517" NAME="?firstPostInc@AGL_CharacterIterator@agl_2_8@@UAEGXZ" PURGE="-1" COMMENT="" />
    <EXPORT ORDINAL="518" NAME="?firstPostInc@AGL_UCharCharacterIterator@agl_2_8@@UAEGXZ" PURGE="0" COMMENT="" />
    <EXPORT ORDINAL="519" NAME="?foldCase@AGL_UnicodeString@agl_2_8@@QAEAAV12@K@Z" PURGE="4" COMMENT="" />
    <EXPORT ORDINAL="520" NAME="?following@AGL_DictionaryBasedBreakIterator@agl_2_8@@UAEJJ@Z" PURGE="4" COMMENT="" />
    <EXPORT ORDINAL="521" NAME="?following@AGL_RuleBasedBreakIterator@agl_2_8@@UAEJJ@Z" PURGE="4" COMMENT="" />
    <EXPORT ORDINAL="522" NAME="?get@AGL_ResourceBundle@agl_2_8@@QBE?AV12@JAAW4AGL_UErrorCode@@@Z" PURGE="12" COMMENT="" />
    <EXPORT ORDINAL="523" NAME="?get@AGL_ResourceBundle@agl_2_8@@QBE?AV12@PBDAAW4AGL_UErrorCode@@@Z" PURGE="12" COMMENT="" />
    <EXPORT ORDINAL="524" NAME="?get@Hashtable@agl_2_8@@QBEPAXABVAGL_UnicodeString@2@@Z" PURGE="4" COMMENT="" />
    <EXPORT ORDINAL="525" NAME="?get@ICULocaleService@agl_2_8@@QBEPAVAGL_UObject@2@ABVAGL_Locale@2@AAW4AGL_UErrorCode@@@Z" PURGE="8" COMMENT="" />
    <EXPORT ORDINAL="526" NAME="?get@ICULocaleService@agl_2_8@@QBEPAVAGL_UObject@2@ABVAGL_Locale@2@JAAW4AGL_UErrorCode@@@Z" PURGE="12" COMMENT="" />
    <EXPORT ORDINAL="527" NAME="?get@ICULocaleService@agl_2_8@@QBEPAVAGL_UObject@2@ABVAGL_Locale@2@JPAV42@AAW4AGL_UErrorCode@@@Z" PURGE="16" COMMENT="" />
    <EXPORT ORDINAL="528" NAME="?get@ICULocaleService@agl_2_8@@QBEPAVAGL_UObject@2@ABVAGL_Locale@2@PAV42@AAW4AGL_UErrorCode@@@Z" PURGE="12" COMMENT="" />
    <EXPORT ORDINAL="529" NAME="?get@ICUService@agl_2_8@@QBEPAVAGL_UObject@2@ABVAGL_UnicodeString@2@AAW4AGL_UErrorCode@@@Z" PURGE="8" COMMENT="" />
    <EXPORT ORDINAL="530" NAME="?get@ICUService@agl_2_8@@QBEPAVAGL_UObject@2@ABVAGL_UnicodeString@2@PAV42@AAW4AGL_UErrorCode@@@Z" PURGE="12" COMMENT="" />
    <EXPORT ORDINAL="531" NAME="?getArrayStart@AGL_UnicodeString@agl_2_8@@AAEPAGXZ" PURGE="0" COMMENT="" />
    <EXPORT ORDINAL="532" NAME="?getArrayStart@AGL_UnicodeString@agl_2_8@@ABEPBGXZ" PURGE="0" COMMENT="" />
    <EXPORT ORDINAL="533" NAME="?getAvailableLocaleNames@LocaleUtility@agl_2_8@@SAPBVHashtable@2@ABVAGL_UnicodeString@2@@Z" PURGE="0" COMMENT="" />
    <EXPORT ORDINAL="534" NAME="?getAvailableLocales@AGL_BreakIterator@agl_2_8@@SAPAVAGL_StringEnumeration@2@XZ" PURGE="-1" COMMENT="" />
    <EXPORT ORDINAL="535" NAME="?getAvailableLocales@AGL_BreakIterator@agl_2_8@@SAPBVAGL_Locale@2@AAJ@Z" PURGE="0" COMMENT="" />
    <EXPORT ORDINAL="536" NAME="?getAvailableLocales@AGL_Locale@agl_2_8@@SAPBV12@AAJ@Z" PURGE="0" COMMENT="" />
    <EXPORT ORDINAL="537" NAME="?getAvailableLocales@ICULocaleService@agl_2_8@@UBEPAVAGL_StringEnumeration@2@XZ" PURGE="0" COMMENT="" />
    <EXPORT ORDINAL="538" NAME="?getBaseName@AGL_Locale@agl_2_8@@QBEPBDXZ" PURGE="0" COMMENT="" />
    <EXPORT ORDINAL="539" NAME="?getBinary@AGL_ResourceBundle@agl_2_8@@QBEPBEAAJAAW4AGL_UErrorCode@@@Z" PURGE="8" COMMENT="" />
    <EXPORT ORDINAL="540" NAME="?getBinaryRules@AGL_RuleBasedBreakIterator@agl_2_8@@UAEPBEAAK@Z" PURGE="4" COMMENT="" />
    <EXPORT ORDINAL="541" NAME="?getBuffer@AGL_UnicodeString@agl_2_8@@QAEPAGJ@Z" PURGE="4" COMMENT="" />
    <EXPORT ORDINAL="542" NAME="?getBuffer@AGL_UnicodeString@agl_2_8@@QBEPBGXZ" PURGE="0" COMMENT="" />
    <EXPORT ORDINAL="543" NAME="?getBuffer@UVector32@agl_2_8@@QBEPAJXZ" PURGE="0" COMMENT="" />
    <EXPORT ORDINAL="544" NAME="?getCanada@AGL_Locale@agl_2_8@@SAABV12@XZ" PURGE="0" COMMENT="" />
    <EXPORT ORDINAL="545" NAME="?getCanadaFrench@AGL_Locale@agl_2_8@@SAABV12@XZ" PURGE="0" COMMENT="" />
    <EXPORT ORDINAL="546" NAME="?getCapacity@AGL_UnicodeString@agl_2_8@@QBEJXZ" PURGE="0" COMMENT="" />
    <EXPORT ORDINAL="547" NAME="?getCaseMapOf@AGL_UnicodeSet@agl_2_8@@CAPBVCaseEquivClass@2@ABVAGL_UnicodeString@2@@Z" PURGE="0" COMMENT="" />
    <EXPORT ORDINAL="548" NAME="?getCaseMapOf@AGL_UnicodeSet@agl_2_8@@CAPBVCaseEquivClass@2@G@Z" PURGE="0" COMMENT="" />
    <EXPORT ORDINAL="549" NAME="?getChar32At@AGL_UnicodeString@agl_2_8@@MBEJJ@Z" PURGE="4" COMMENT="" />
    <EXPORT ORDINAL="550" NAME="?getChar32Limit@AGL_UnicodeString@agl_2_8@@QBEJJ@Z" PURGE="4" COMMENT="" />
    <EXPORT ORDINAL="551" NAME="?getChar32Start@AGL_UnicodeString@agl_2_8@@QBEJJ@Z" PURGE="4" COMMENT="" />
    <EXPORT ORDINAL="552" NAME="?getCharAt@AGL_UnicodeString@agl_2_8@@MBEGJ@Z" PURGE="4" COMMENT="" />
    <EXPORT ORDINAL="553" NAME="?getChina@AGL_Locale@agl_2_8@@SAABV12@XZ" PURGE="0" COMMENT="" />
    <EXPORT ORDINAL="554" NAME="?getChinese@AGL_Locale@agl_2_8@@SAABV12@XZ" PURGE="0" COMMENT="" />
    <EXPORT ORDINAL="555" NAME="?getCodepoint@AGL_UnicodeSetIterator@agl_2_8@@QBEJXZ" PURGE="0" COMMENT="" />
    <EXPORT ORDINAL="556" NAME="?getCodepointEnd@AGL_UnicodeSetIterator@agl_2_8@@QBEJXZ" PURGE="0" COMMENT="" />
    <EXPORT ORDINAL="557" NAME="?getCountry@AGL_Locale@agl_2_8@@QBEPBDXZ" PURGE="0" COMMENT="" />
    <EXPORT ORDINAL="558" NAME="?getDefault@AGL_Locale@agl_2_8@@SAABV12@XZ" PURGE="0" COMMENT="" />
    <EXPORT ORDINAL="559" NAME="?getDisplayCountry@AGL_Locale@agl_2_8@@QBEAAVAGL_UnicodeString@2@AAV32@@Z" PURGE="4" COMMENT="" />
    <EXPORT ORDINAL="560" NAME="?getDisplayCountry@AGL_Locale@agl_2_8@@QBEAAVAGL_UnicodeString@2@ABV12@AAV32@@Z" PURGE="8" COMMENT="" />
    <EXPORT ORDINAL="561" NAME="?getDisplayLanguage@AGL_Locale@agl_2_8@@QBEAAVAGL_UnicodeString@2@AAV32@@Z" PURGE="4" COMMENT="" />
    <EXPORT ORDINAL="562" NAME="?getDisplayLanguage@AGL_Locale@agl_2_8@@QBEAAVAGL_UnicodeString@2@ABV12@AAV32@@Z" PURGE="8" COMMENT="" />
    <EXPORT ORDINAL="563" NAME="?getDisplayName@AGL_BreakIterator@agl_2_8@@SAAAVAGL_UnicodeString@2@ABVAGL_Locale@2@0AAV32@@Z" PURGE="0" COMMENT="" />
    <EXPORT ORDINAL="564" NAME="?getDisplayName@AGL_BreakIterator@agl_2_8@@SAAAVAGL_UnicodeString@2@ABVAGL_Locale@2@AAV32@@Z" PURGE="0" COMMENT="" />
    <EXPORT ORDINAL="565" NAME="?getDisplayName@AGL_Locale@agl_2_8@@QBEAAVAGL_UnicodeString@2@AAV32@@Z" PURGE="4" COMMENT="" />
    <EXPORT ORDINAL="566" NAME="?getDisplayName@AGL_Locale@agl_2_8@@QBEAAVAGL_UnicodeString@2@ABV12@AAV32@@Z" PURGE="8" COMMENT="" />
    <EXPORT ORDINAL="567" NAME="?getDisplayName@ICUService@agl_2_8@@QBEAAVAGL_UnicodeString@2@ABV32@AAV32@@Z" PURGE="8" COMMENT="" />
    <EXPORT ORDINAL="568" NAME="?getDisplayName@ICUService@agl_2_8@@QBEAAVAGL_UnicodeString@2@ABV32@AAV32@ABVAGL_Locale@2@@Z" PURGE="12" COMMENT="" />
    <EXPORT ORDINAL="569" NAME="?getDisplayName@LocaleKeyFactory@agl_2_8@@UBEAAVAGL_UnicodeString@2@ABV32@ABVAGL_Locale@2@AAV32@@Z" PURGE="12" COMMENT="" />
    <EXPORT ORDINAL="570" NAME="?getDisplayName@SimpleFactory@agl_2_8@@UBEAAVAGL_UnicodeString@2@ABV32@ABVAGL_Locale@2@AAV32@@Z" PURGE="12" COMMENT="" />
    <EXPORT ORDINAL="571" NAME="?getDisplayNames@ICUService@agl_2_8@@QBEAAVUVector@2@AAV32@AAW4AGL_UErrorCode@@@Z" PURGE="8" COMMENT="" />
    <EXPORT ORDINAL="572" NAME="?getDisplayNames@ICUService@agl_2_8@@QBEAAVUVector@2@AAV32@ABVAGL_Locale@2@AAW4AGL_UErrorCode@@@Z" PURGE="12" COMMENT="" />
    <EXPORT ORDINAL="573" NAME="?getDisplayNames@ICUService@agl_2_8@@QBEAAVUVector@2@AAV32@ABVAGL_Locale@2@PBVAGL_UnicodeString@2@AAW4AGL_UErrorCode@@@Z" PURGE="16" COMMENT="" />
    <EXPORT ORDINAL="574" NAME="?getDisplayScript@AGL_Locale@agl_2_8@@QBEAAVAGL_UnicodeString@2@AAV32@@Z" PURGE="4" COMMENT="" />
    <EXPORT ORDINAL="575" NAME="?getDisplayScript@AGL_Locale@agl_2_8@@QBEAAVAGL_UnicodeString@2@ABV12@AAV32@@Z" PURGE="8" COMMENT="" />
    <EXPORT ORDINAL="576" NAME="?getDisplayVariant@AGL_Locale@agl_2_8@@QBEAAVAGL_UnicodeString@2@AAV32@@Z" PURGE="4" COMMENT="" />
    <EXPORT ORDINAL="577" NAME="?getDisplayVariant@AGL_Locale@agl_2_8@@QBEAAVAGL_UnicodeString@2@ABV12@AAV32@@Z" PURGE="8" COMMENT="" />
    <EXPORT ORDINAL="578" NAME="?getDynamicClassID@AGL_CanonicalIterator@agl_2_8@@UBEPAXXZ" PURGE="0" COMMENT="" />
    <EXPORT ORDINAL="579" NAME="?getDynamicClassID@AGL_DictionaryBasedBreakIterator@agl_2_8@@UBEPAXXZ" PURGE="0" COMMENT="" />
    <EXPORT ORDINAL="580" NAME="?getDynamicClassID@AGL_Locale@agl_2_8@@UBEPAXXZ" PURGE="0" COMMENT="" />
    <EXPORT ORDINAL="581" NAME="?getDynamicClassID@AGL_Normalizer@agl_2_8@@UBEPAXXZ" PURGE="0" COMMENT="" />
    <EXPORT ORDINAL="582" NAME="?getDynamicClassID@AGL_ParsePosition@agl_2_8@@UBEPAXXZ" PURGE="0" COMMENT="" />
    <EXPORT ORDINAL="583" NAME="?getDynamicClassID@AGL_ResourceBundle@agl_2_8@@UBEPAXXZ" PURGE="0" COMMENT="" />
    <EXPORT ORDINAL="584" NAME="?getDynamicClassID@AGL_RuleBasedBreakIterator@agl_2_8@@UBEPAXXZ" PURGE="0" COMMENT="" />
    <EXPORT ORDINAL="585" NAME="?getDynamicClassID@AGL_StringCharacterIterator@agl_2_8@@UBEPAXXZ" PURGE="0" COMMENT="" />
    <EXPORT ORDINAL="586" NAME="?getDynamicClassID@AGL_UCharCharacterIterator@agl_2_8@@UBEPAXXZ" PURGE="0" COMMENT="" />
    <EXPORT ORDINAL="587" NAME="?getDynamicClassID@AGL_UnicodeSet@agl_2_8@@UBEPAXXZ" PURGE="0" COMMENT="" />
    <EXPORT ORDINAL="588" NAME="?getDynamicClassID@AGL_UnicodeSetIterator@agl_2_8@@UBEPAXXZ" PURGE="0" COMMENT="" />
    <EXPORT ORDINAL="589" NAME="?getDynamicClassID@AGL_UnicodeString@agl_2_8@@UBEPAXXZ" PURGE="0" COMMENT="" />
    <EXPORT ORDINAL="590" NAME="?getDynamicClassID@EventListener@agl_2_8@@UBEPAXXZ" PURGE="0" COMMENT="" />
    <EXPORT ORDINAL="591" NAME="?getDynamicClassID@ICUResourceBundleFactory@agl_2_8@@UBEPAXXZ" PURGE="0" COMMENT="" />
    <EXPORT ORDINAL="592" NAME="?getDynamicClassID@ICUServiceKey@agl_2_8@@UBEPAXXZ" PURGE="0" COMMENT="" />
    <EXPORT ORDINAL="593" NAME="?getDynamicClassID@LocaleKey@agl_2_8@@UBEPAXXZ" PURGE="0" COMMENT="" />
    <EXPORT ORDINAL="594" NAME="?getDynamicClassID@LocaleKeyFactory@agl_2_8@@UBEPAXXZ" PURGE="0" COMMENT="" />
    <EXPORT ORDINAL="595" NAME="?getDynamicClassID@ServiceListener@agl_2_8@@UBEPAXXZ" PURGE="0" COMMENT="" />
    <EXPORT ORDINAL="596" NAME="?getDynamicClassID@SimpleFactory@agl_2_8@@UBEPAXXZ" PURGE="0" COMMENT="" />
    <EXPORT ORDINAL="597" NAME="?getDynamicClassID@SimpleLocaleKeyFactory@agl_2_8@@UBEPAXXZ" PURGE="0" COMMENT="" />
    <EXPORT ORDINAL="598" NAME="?getDynamicClassID@UStack@agl_2_8@@UBEPAXXZ" PURGE="0" COMMENT="" />
    <EXPORT ORDINAL="599" NAME="?getDynamicClassID@UVector32@agl_2_8@@UBEPAXXZ" PURGE="0" COMMENT="" />
    <EXPORT ORDINAL="600" NAME="?getDynamicClassID@UVector@agl_2_8@@UBEPAXXZ" PURGE="0" COMMENT="" />
    <EXPORT ORDINAL="601" NAME="?getEnglish@AGL_Locale@agl_2_8@@SAABV12@XZ" PURGE="0" COMMENT="" />
    <EXPORT ORDINAL="602" NAME="?getEquivalents2@AGL_CanonicalIterator@agl_2_8@@AAEPAVHashtable@2@PBGJAAW4AGL_UErrorCode@@@Z" PURGE="12" COMMENT="" />
    <EXPORT ORDINAL="603" NAME="?getEquivalents@AGL_CanonicalIterator@agl_2_8@@AAEPAVAGL_UnicodeString@2@ABV32@AAJAAW4AGL_UErrorCode@@@Z" PURGE="12" COMMENT="" />
    <EXPORT ORDINAL="604" NAME="?getErrorIndex@AGL_ParsePosition@agl_2_8@@QBEJXZ" PURGE="0" COMMENT="" />
    <EXPORT ORDINAL="605" NAME="?getFrance@AGL_Locale@agl_2_8@@SAABV12@XZ" PURGE="0" COMMENT="" />
    <EXPORT ORDINAL="606" NAME="?getFrench@AGL_Locale@agl_2_8@@SAABV12@XZ" PURGE="0" COMMENT="" />
    <EXPORT ORDINAL="607" NAME="?getGerman@AGL_Locale@agl_2_8@@SAABV12@XZ" PURGE="0" COMMENT="" />
    <EXPORT ORDINAL="608" NAME="?getGermany@AGL_Locale@agl_2_8@@SAABV12@XZ" PURGE="0" COMMENT="" />
    <EXPORT ORDINAL="609" NAME="?getID@ICUServiceKey@agl_2_8@@UBEABVAGL_UnicodeString@2@XZ" PURGE="0" COMMENT="" />
    <EXPORT ORDINAL="610" NAME="?getISO3Country@AGL_Locale@agl_2_8@@QBEPBDXZ" PURGE="0" COMMENT="" />
    <EXPORT ORDINAL="611" NAME="?getISO3Language@AGL_Locale@agl_2_8@@QBEPBDXZ" PURGE="0" COMMENT="" />
    <EXPORT ORDINAL="612" NAME="?getISOCountries@AGL_Locale@agl_2_8@@SAPBQBDXZ" PURGE="0" COMMENT="" />
    <EXPORT ORDINAL="613" NAME="?getISOLanguages@AGL_Locale@agl_2_8@@SAPBQBDXZ" PURGE="0" COMMENT="" />
    <EXPORT ORDINAL="614" NAME="?getInclusions@AGL_UnicodeSet@agl_2_8@@CAPBV12@AAW4AGL_UErrorCode@@@Z" PURGE="0" COMMENT="" />
    <EXPORT ORDINAL="615" NAME="?getIndex@AGL_CharacterIterator@agl_2_8@@QBEJXZ" PURGE="0" COMMENT="" />
    <EXPORT ORDINAL="616" NAME="?getIndex@AGL_Normalizer@agl_2_8@@QBEJXZ" PURGE="0" COMMENT="" />
    <EXPORT ORDINAL="617" NAME="?getIndex@AGL_ParsePosition@agl_2_8@@QBEJXZ" PURGE="0" COMMENT="" />
    <EXPORT ORDINAL="618" NAME="?getInt@AGL_ResourceBundle@agl_2_8@@QBEJAAW4AGL_UErrorCode@@@Z" PURGE="4" COMMENT="" />
    <EXPORT ORDINAL="619" NAME="?getIntVector@AGL_ResourceBundle@agl_2_8@@QBEPBJAAJAAW4AGL_UErrorCode@@@Z" PURGE="8" COMMENT="" />
    <EXPORT ORDINAL="620" NAME="?getItalian@AGL_Locale@agl_2_8@@SAABV12@XZ" PURGE="0" COMMENT="" />
    <EXPORT ORDINAL="621" NAME="?getItaly@AGL_Locale@agl_2_8@@SAABV12@XZ" PURGE="0" COMMENT="" />
    <EXPORT ORDINAL="622" NAME="?getJapan@AGL_Locale@agl_2_8@@SAABV12@XZ" PURGE="0" COMMENT="" />
    <EXPORT ORDINAL="623" NAME="?getJapanese@AGL_Locale@agl_2_8@@SAABV12@XZ" PURGE="0" COMMENT="" />
    <EXPORT ORDINAL="624" NAME="?getKey@AGL_ResourceBundle@agl_2_8@@QAEPBDXZ" PURGE="0" COMMENT="" />
    <EXPORT ORDINAL="625" NAME="?getKey@ICUService@agl_2_8@@QBEPAVAGL_UObject@2@AAVICUServiceKey@2@AAW4AGL_UErrorCode@@@Z" PURGE="8" COMMENT="" />
    <EXPORT ORDINAL="626" NAME="?getKey@ICUService@agl_2_8@@QBEPAVAGL_UObject@2@AAVICUServiceKey@2@PAVAGL_UnicodeString@2@PBVICUServiceFactory@2@AAW4AGL_UErrorCode@@@Z" PURGE="16" COMMENT="" />
    <EXPORT ORDINAL="627" NAME="?getKey@ICUService@agl_2_8@@UBEPAVAGL_UObject@2@AAVICUServiceKey@2@PAVAGL_UnicodeString@2@AAW4AGL_UErrorCode@@@Z" PURGE="12" COMMENT="" />
    <EXPORT ORDINAL="628" NAME="?getKeywordValue@AGL_Locale@agl_2_8@@QBEJPBDPADJAAW4AGL_UErrorCode@@@Z" PURGE="16" COMMENT="" />
    <EXPORT ORDINAL="629" NAME="?getKorea@AGL_Locale@agl_2_8@@SAABV12@XZ" PURGE="0" COMMENT="" />
    <EXPORT ORDINAL="630" NAME="?getKorean@AGL_Locale@agl_2_8@@SAABV12@XZ" PURGE="0" COMMENT="" />
    <EXPORT ORDINAL="631" NAME="?getLCID@AGL_Locale@agl_2_8@@QBEKXZ" PURGE="0" COMMENT="" />
    <EXPORT ORDINAL="632" NAME="?getLanguage@AGL_Locale@agl_2_8@@QBEPBDXZ" PURGE="0" COMMENT="" />
    <EXPORT ORDINAL="633" NAME="?getLength@AGL_CharacterIterator@agl_2_8@@QBEJXZ" PURGE="0" COMMENT="" />
    <EXPORT ORDINAL="634" NAME="?getLength@AGL_UnicodeString@agl_2_8@@MBEJXZ" PURGE="0" COMMENT="" />
    <EXPORT ORDINAL="635" NAME="?getLocale@AGL_BreakIterator@agl_2_8@@QBE?AVAGL_Locale@2@W4AGL_ULocDataLocaleType@@AAW4AGL_UErrorCode@@@Z" PURGE="12" COMMENT="" />
    <EXPORT ORDINAL="636" NAME="?getLocale@AGL_Locale@agl_2_8@@CAABV12@H@Z" PURGE="0" COMMENT="" />
    <EXPORT ORDINAL="637" NAME="?getLocale@AGL_ResourceBundle@agl_2_8@@QBE?BVAGL_Locale@2@W4AGL_ULocDataLocaleType@@AAW4AGL_UErrorCode@@@Z" PURGE="12" COMMENT="" />
    <EXPORT ORDINAL="638" NAME="?getLocale@AGL_ResourceBundle@agl_2_8@@QBEABVAGL_Locale@2@XZ" PURGE="0" COMMENT="" />
    <EXPORT ORDINAL="639" NAME="?getLocale@LocaleBased@agl_2_8@@QBE?AVAGL_Locale@2@W4AGL_ULocDataLocaleType@@AAW4AGL_UErrorCode@@@Z" PURGE="12" COMMENT="" />
    <EXPORT ORDINAL="640" NAME="?getLocaleCache@AGL_Locale@agl_2_8@@CAPAV12@XZ" PURGE="0" COMMENT="" />
    <EXPORT ORDINAL="641" NAME="?getLocaleID@AGL_BreakIterator@agl_2_8@@QBEPBDW4AGL_ULocDataLocaleType@@AAW4AGL_UErrorCode@@@Z" PURGE="8" COMMENT="" />
    <EXPORT ORDINAL="642" NAME="?getLocaleID@LocaleBased@agl_2_8@@QBEPBDW4AGL_ULocDataLocaleType@@AAW4AGL_UErrorCode@@@Z" PURGE="8" COMMENT="" />
    <EXPORT ORDINAL="643" NAME="?getName@AGL_Locale@agl_2_8@@QBEPBDXZ" PURGE="0" COMMENT="" />
    <EXPORT ORDINAL="644" NAME="?getName@AGL_ResourceBundle@agl_2_8@@QAEPBDXZ" PURGE="0" COMMENT="" />
    <EXPORT ORDINAL="645" NAME="?getName@ICUService@agl_2_8@@QBEAAVAGL_UnicodeString@2@AAV32@@Z" PURGE="4" COMMENT="" />
    <EXPORT ORDINAL="646" NAME="?getNext@AGL_ResourceBundle@agl_2_8@@QAE?AV12@AAW4AGL_UErrorCode@@@Z" PURGE="8" COMMENT="" />
    <EXPORT ORDINAL="647" NAME="?getNextString@AGL_ResourceBundle@agl_2_8@@QAE?AVAGL_UnicodeString@2@AAW4AGL_UErrorCode@@@Z" PURGE="8" COMMENT="" />
    <EXPORT ORDINAL="648" NAME="?getNextString@AGL_ResourceBundle@agl_2_8@@QAE?AVAGL_UnicodeString@2@PAPBDAAW4AGL_UErrorCode@@@Z" PURGE="12" COMMENT="" />
    <EXPORT ORDINAL="649" NAME="?getOption@AGL_Normalizer@agl_2_8@@QBECJ@Z" PURGE="4" COMMENT="" />
    <EXPORT ORDINAL="650" NAME="?getPRC@AGL_Locale@agl_2_8@@SAABV12@XZ" PURGE="0" COMMENT="" />
    <EXPORT ORDINAL="651" NAME="?getPos@RuleCharacterIterator@agl_2_8@@QBEXAAUPos@12@@Z" PURGE="4" COMMENT="" />
    <EXPORT ORDINAL="652" NAME="?getRangeCount@AGL_UnicodeSet@agl_2_8@@UBEJXZ" PURGE="0" COMMENT="" />
    <EXPORT ORDINAL="653" NAME="?getRangeEnd@AGL_UnicodeSet@agl_2_8@@UBEJJ@Z" PURGE="4" COMMENT="" />
    <EXPORT ORDINAL="654" NAME="?getRangeStart@AGL_UnicodeSet@agl_2_8@@UBEJJ@Z" PURGE="4" COMMENT="" />
    <EXPORT ORDINAL="655" NAME="?getRuleStatus@AGL_RuleBasedBreakIterator@agl_2_8@@UBEJXZ" PURGE="0" COMMENT="" />
    <EXPORT ORDINAL="656" NAME="?getRules@AGL_RuleBasedBreakIterator@agl_2_8@@UBEABVAGL_UnicodeString@2@XZ" PURGE="0" COMMENT="" />
    <EXPORT ORDINAL="657" NAME="?getScript@AGL_Locale@agl_2_8@@QBEPBDXZ" PURGE="0" COMMENT="" />
    <EXPORT ORDINAL="658" NAME="?getSimplifiedChinese@AGL_Locale@agl_2_8@@SAABV12@XZ" PURGE="0" COMMENT="" />
    <EXPORT ORDINAL="659" NAME="?getSingleCP@AGL_UnicodeSet@agl_2_8@@CAJABVAGL_UnicodeString@2@@Z" PURGE="0" COMMENT="" />
    <EXPORT ORDINAL="660" NAME="?getSize@AGL_ResourceBundle@agl_2_8@@QBEJXZ" PURGE="0" COMMENT="" />
    <EXPORT ORDINAL="661" NAME="?getSource@AGL_CanonicalIterator@agl_2_8@@QAE?AVAGL_UnicodeString@2@XZ" PURGE="4" COMMENT="" />
    <EXPORT ORDINAL="662" NAME="?getStaticClassID@AGL_CanonicalIterator@agl_2_8@@SAPAXXZ" PURGE="0" COMMENT="" />
    <EXPORT ORDINAL="663" NAME="?getStaticClassID@AGL_DictionaryBasedBreakIterator@agl_2_8@@SAPAXXZ" PURGE="0" COMMENT="" />
    <EXPORT ORDINAL="664" NAME="?getStaticClassID@AGL_Locale@agl_2_8@@SAPAXXZ" PURGE="0" COMMENT="" />
    <EXPORT ORDINAL="665" NAME="?getStaticClassID@AGL_Normalizer@agl_2_8@@SAPAXXZ" PURGE="0" COMMENT="" />
    <EXPORT ORDINAL="666" NAME="?getStaticClassID@AGL_ParsePosition@agl_2_8@@SAPAXXZ" PURGE="0" COMMENT="" />
    <EXPORT ORDINAL="667" NAME="?getStaticClassID@AGL_ResourceBundle@agl_2_8@@SAPAXXZ" PURGE="0" COMMENT="" />
    <EXPORT ORDINAL="668" NAME="?getStaticClassID@AGL_RuleBasedBreakIterator@agl_2_8@@SAPAXXZ" PURGE="0" COMMENT="" />
    <EXPORT ORDINAL="669" NAME="?getStaticClassID@AGL_StringCharacterIterator@agl_2_8@@SAPAXXZ" PURGE="0" COMMENT="" />
    <EXPORT ORDINAL="670" NAME="?getStaticClassID@AGL_UCharCharacterIterator@agl_2_8@@SAPAXXZ" PURGE="0" COMMENT="" />
    <EXPORT ORDINAL="671" NAME="?getStaticClassID@AGL_UnicodeSet@agl_2_8@@SAPAXXZ" PURGE="0" COMMENT="" />
    <EXPORT ORDINAL="672" NAME="?getStaticClassID@AGL_UnicodeSetIterator@agl_2_8@@SAPAXXZ" PURGE="0" COMMENT="" />
    <EXPORT ORDINAL="673" NAME="?getStaticClassID@AGL_UnicodeString@agl_2_8@@SAPAXXZ" PURGE="0" COMMENT="" />
    <EXPORT ORDINAL="674" NAME="?getStaticClassID@EventListener@agl_2_8@@SAPAXXZ" PURGE="0" COMMENT="" />
    <EXPORT ORDINAL="675" NAME="?getStaticClassID@ICUResourceBundleFactory@agl_2_8@@SAPAXXZ" PURGE="0" COMMENT="" />
    <EXPORT ORDINAL="676" NAME="?getStaticClassID@ICUServiceKey@agl_2_8@@SAPAXXZ" PURGE="0" COMMENT="" />
    <EXPORT ORDINAL="677" NAME="?getStaticClassID@LocaleKey@agl_2_8@@SAPAXXZ" PURGE="0" COMMENT="" />
    <EXPORT ORDINAL="678" NAME="?getStaticClassID@LocaleKeyFactory@agl_2_8@@SAPAXXZ" PURGE="0" COMMENT="" />
    <EXPORT ORDINAL="679" NAME="?getStaticClassID@ServiceListener@agl_2_8@@SAPAXXZ" PURGE="0" COMMENT="" />
    <EXPORT ORDINAL="680" NAME="?getStaticClassID@SimpleFactory@agl_2_8@@SAPAXXZ" PURGE="0" COMMENT="" />
    <EXPORT ORDINAL="681" NAME="?getStaticClassID@SimpleLocaleKeyFactory@agl_2_8@@SAPAXXZ" PURGE="0" COMMENT="" />
    <EXPORT ORDINAL="682" NAME="?getStaticClassID@UStack@agl_2_8@@SAPAXXZ" PURGE="0" COMMENT="" />
    <EXPORT ORDINAL="683" NAME="?getStaticClassID@UVector32@agl_2_8@@SAPAXXZ" PURGE="0" COMMENT="" />
    <EXPORT ORDINAL="684" NAME="?getStaticClassID@UVector@agl_2_8@@SAPAXXZ" PURGE="0" COMMENT="" />
    <EXPORT ORDINAL="685" NAME="?getString@AGL_ResourceBundle@agl_2_8@@QBE?AVAGL_UnicodeString@2@AAW4AGL_UErrorCode@@@Z" PURGE="8" COMMENT="" />
    <EXPORT ORDINAL="686" NAME="?getString@AGL_UnicodeSet@agl_2_8@@ABEPBVAGL_UnicodeString@2@J@Z" PURGE="4" COMMENT="" />
    <EXPORT ORDINAL="687" NAME="?getString@AGL_UnicodeSetIterator@agl_2_8@@QBEABVAGL_UnicodeString@2@XZ" PURGE="0" COMMENT="" />
    <EXPORT ORDINAL="688" NAME="?getStringCount@AGL_UnicodeSet@agl_2_8@@ABEJXZ" PURGE="0" COMMENT="" />
    <EXPORT ORDINAL="689" NAME="?getStringEx@AGL_ResourceBundle@agl_2_8@@QBE?AVAGL_UnicodeString@2@JAAW4AGL_UErrorCode@@@Z" PURGE="12" COMMENT="" />
    <EXPORT ORDINAL="690" NAME="?getStringEx@AGL_ResourceBundle@agl_2_8@@QBE?AVAGL_UnicodeString@2@PBDAAW4AGL_UErrorCode@@@Z" PURGE="12" COMMENT="" />
    <EXPORT ORDINAL="691" NAME="?getSupportedIDs@ICUResourceBundleFactory@agl_2_8@@MBEPBVHashtable@2@AAW4AGL_UErrorCode@@@Z" PURGE="4" COMMENT="" />
    <EXPORT ORDINAL="692" NAME="?getSupportedIDs@LocaleKeyFactory@agl_2_8@@MBEPBVHashtable@2@AAW4AGL_UErrorCode@@@Z" PURGE="4" COMMENT="" />
    <EXPORT ORDINAL="693" NAME="?getTaiwan@AGL_Locale@agl_2_8@@SAABV12@XZ" PURGE="0" COMMENT="" />
    <EXPORT ORDINAL="694" NAME="?getTerminatedBuffer@AGL_UnicodeString@agl_2_8@@QAEPBGXZ" PURGE="0" COMMENT="" />
    <EXPORT ORDINAL="695" NAME="?getText@AGL_Normalizer@agl_2_8@@QAEXAAVAGL_UnicodeString@2@@Z" PURGE="-1" COMMENT="" />
    <EXPORT ORDINAL="696" NAME="?getText@AGL_RuleBasedBreakIterator@agl_2_8@@UBEABVAGL_CharacterIterator@2@XZ" PURGE="0" COMMENT="" />
    <EXPORT ORDINAL="697" NAME="?getText@AGL_StringCharacterIterator@agl_2_8@@UAEXAAVAGL_UnicodeString@2@@Z" PURGE="4" COMMENT="" />
    <EXPORT ORDINAL="698" NAME="?getText@AGL_UCharCharacterIterator@agl_2_8@@UAEXAAVAGL_UnicodeString@2@@Z" PURGE="4" COMMENT="" />
    <EXPORT ORDINAL="699" NAME="?getTimestamp@ICUService@agl_2_8@@IBEJXZ" PURGE="0" COMMENT="" />
    <EXPORT ORDINAL="700" NAME="?getTraditionalChinese@AGL_Locale@agl_2_8@@SAABV12@XZ" PURGE="0" COMMENT="" />
    <EXPORT ORDINAL="701" NAME="?getType@AGL_ResourceBundle@agl_2_8@@QAE?AW4AGL_UResType@@XZ" PURGE="0" COMMENT="" />
    <EXPORT ORDINAL="702" NAME="?getUInt@AGL_ResourceBundle@agl_2_8@@QBEKAAW4AGL_UErrorCode@@@Z" PURGE="4" COMMENT="" />
    <EXPORT ORDINAL="703" NAME="?getUK@AGL_Locale@agl_2_8@@SAABV12@XZ" PURGE="0" COMMENT="" />
    <EXPORT ORDINAL="704" NAME="?getUMode@AGL_Normalizer@agl_2_8@@QBE?AW4AGL_UNormalizationMode@@XZ" PURGE="0" COMMENT="" />
    <EXPORT ORDINAL="705" NAME="?getUS@AGL_Locale@agl_2_8@@SAABV12@XZ" PURGE="0" COMMENT="" />
    <EXPORT ORDINAL="706" NAME="?getVariant@AGL_Locale@agl_2_8@@QBEPBDXZ" PURGE="0" COMMENT="" />
    <EXPORT ORDINAL="707" NAME="?getVersion@AGL_ResourceBundle@agl_2_8@@QBEXQAE@Z" PURGE="4" COMMENT="" />
    <EXPORT ORDINAL="708" NAME="?getVersionNumber@AGL_ResourceBundle@agl_2_8@@QBEPBDXZ" PURGE="0" COMMENT="" />
    <EXPORT ORDINAL="709" NAME="?getVisibleIDMap@ICUService@agl_2_8@@IBEPBVHashtable@2@AAW4AGL_UErrorCode@@@Z" PURGE="4" COMMENT="" />
    <EXPORT ORDINAL="710" NAME="?getVisibleIDs@ICUService@agl_2_8@@QBEAAVUVector@2@AAV32@AAW4AGL_UErrorCode@@@Z" PURGE="8" COMMENT="" />
    <EXPORT ORDINAL="711" NAME="?getVisibleIDs@ICUService@agl_2_8@@QBEAAVUVector@2@AAV32@PBVAGL_UnicodeString@2@AAW4AGL_UErrorCode@@@Z" PURGE="12" COMMENT="" />
    <EXPORT ORDINAL="712" NAME="?geti@Hashtable@agl_2_8@@QBEJABVAGL_UnicodeString@2@@Z" PURGE="4" COMMENT="" />
    <EXPORT ORDINAL="713" NAME="?handleCreate@ICUResourceBundleFactory@agl_2_8@@MBEPAVAGL_UObject@2@ABVAGL_Locale@2@JPBVICUService@2@AAW4AGL_UErrorCode@@@Z" PURGE="16" COMMENT="" />
    <EXPORT ORDINAL="714" NAME="?handleCreate@LocaleKeyFactory@agl_2_8@@MBEPAVAGL_UObject@2@ABVAGL_Locale@2@JPBVICUService@2@AAW4AGL_UErrorCode@@@Z" PURGE="16" COMMENT="" />
    <EXPORT ORDINAL="715" NAME="?handleDefault@ICUService@agl_2_8@@MBEPAVAGL_UObject@2@ABVICUServiceKey@2@PAVAGL_UnicodeString@2@AAW4AGL_UErrorCode@@@Z" PURGE="12" COMMENT="" />
    <EXPORT ORDINAL="716" NAME="?handleNext@AGL_DictionaryBasedBreakIterator@agl_2_8@@MAEJXZ" PURGE="0" COMMENT="" />
    <EXPORT ORDINAL="717" NAME="?handleNext@AGL_RuleBasedBreakIterator@agl_2_8@@AAEJPBURBBIStateTable@2@@Z" PURGE="4" COMMENT="" />
    <EXPORT ORDINAL="718" NAME="?handleNext@AGL_RuleBasedBreakIterator@agl_2_8@@MAEJXZ" PURGE="0" COMMENT="" />
    <EXPORT ORDINAL="719" NAME="?handlePrevious@AGL_RuleBasedBreakIterator@agl_2_8@@AAEJPBURBBIStateTable@2@@Z" PURGE="4" COMMENT="" />
    <EXPORT ORDINAL="720" NAME="?handlePrevious@AGL_RuleBasedBreakIterator@agl_2_8@@MAEJXZ" PURGE="0" COMMENT="" />
    <EXPORT ORDINAL="721" NAME="?handleReplaceBetween@AGL_UnicodeString@agl_2_8@@UAEXJJABV12@@Z" PURGE="12" COMMENT="" />
    <EXPORT ORDINAL="722" NAME="?handlesKey@LocaleKeyFactory@agl_2_8@@MBECABVICUServiceKey@2@AAW4AGL_UErrorCode@@@Z" PURGE="8" COMMENT="" />
    <EXPORT ORDINAL="723" NAME="?hasMetaData@AGL_Replaceable@agl_2_8@@UBECXZ" PURGE="0" COMMENT="" />
    <EXPORT ORDINAL="724" NAME="?hasMetaData@AGL_UnicodeString@agl_2_8@@UBECXZ" PURGE="0" COMMENT="" />
    <EXPORT ORDINAL="725" NAME="?hasMoreChar32Than@AGL_UnicodeString@agl_2_8@@QBECJJJ@Z" PURGE="12" COMMENT="" />
    <EXPORT ORDINAL="726" NAME="?hasNext@AGL_ResourceBundle@agl_2_8@@QBECXZ" PURGE="0" COMMENT="" />
    <EXPORT ORDINAL="727" NAME="?hasNext@AGL_UCharCharacterIterator@agl_2_8@@UAECXZ" PURGE="0" COMMENT="" />
    <EXPORT ORDINAL="728" NAME="?hasPrevious@AGL_UCharCharacterIterator@agl_2_8@@UAECXZ" PURGE="0" COMMENT="" />
    <EXPORT ORDINAL="729" NAME="?hashCode@AGL_Locale@agl_2_8@@QBEJXZ" PURGE="0" COMMENT="" />
    <EXPORT ORDINAL="730" NAME="?hashCode@AGL_Normalizer@agl_2_8@@QBEJXZ" PURGE="0" COMMENT="" />
    <EXPORT ORDINAL="731" NAME="?hashCode@AGL_RuleBasedBreakIterator@agl_2_8@@UBEJXZ" PURGE="0" COMMENT="" />
    <EXPORT ORDINAL="732" NAME="?hashCode@AGL_UCharCharacterIterator@agl_2_8@@UBEJXZ" PURGE="0" COMMENT="" />
    <EXPORT ORDINAL="733" NAME="?hashCode@AGL_UnicodeSet@agl_2_8@@UBEJXZ" PURGE="0" COMMENT="" />
    <EXPORT ORDINAL="734" NAME="?hashCode@AGL_UnicodeString@agl_2_8@@QBEJXZ" PURGE="0" COMMENT="" />
    <EXPORT ORDINAL="735" NAME="?inVariable@RuleCharacterIterator@agl_2_8@@QBECXZ" PURGE="0" COMMENT="" />
    <EXPORT ORDINAL="736" NAME="?indexOf@AGL_UnicodeSet@agl_2_8@@QBEJJ@Z" PURGE="4" COMMENT="" />
    <EXPORT ORDINAL="737" NAME="?indexOf@AGL_UnicodeString@agl_2_8@@QBEJABV12@@Z" PURGE="4" COMMENT="" />
    <EXPORT ORDINAL="738" NAME="?indexOf@AGL_UnicodeString@agl_2_8@@QBEJABV12@J@Z" PURGE="8" COMMENT="" />
    <EXPORT ORDINAL="739" NAME="?indexOf@AGL_UnicodeString@agl_2_8@@QBEJABV12@JJ@Z" PURGE="12" COMMENT="" />
    <EXPORT ORDINAL="740" NAME="?indexOf@AGL_UnicodeString@agl_2_8@@QBEJABV12@JJJJ@Z" PURGE="20" COMMENT="" />
    <EXPORT ORDINAL="741" NAME="?indexOf@AGL_UnicodeString@agl_2_8@@QBEJG@Z" PURGE="4" COMMENT="" />
    <EXPORT ORDINAL="742" NAME="?indexOf@AGL_UnicodeString@agl_2_8@@QBEJGJ@Z" PURGE="8" COMMENT="" />
    <EXPORT ORDINAL="743" NAME="?indexOf@AGL_UnicodeString@agl_2_8@@QBEJGJJ@Z" PURGE="12" COMMENT="" />
    <EXPORT ORDINAL="744" NAME="?indexOf@AGL_UnicodeString@agl_2_8@@QBEJJ@Z" PURGE="4" COMMENT="" />
    <EXPORT ORDINAL="745" NAME="?indexOf@AGL_UnicodeString@agl_2_8@@QBEJJJ@Z" PURGE="8" COMMENT="" />
    <EXPORT ORDINAL="746" NAME="?indexOf@AGL_UnicodeString@agl_2_8@@QBEJJJJ@Z" PURGE="12" COMMENT="" />
    <EXPORT ORDINAL="747" NAME="?indexOf@AGL_UnicodeString@agl_2_8@@QBEJPBGJJ@Z" PURGE="12" COMMENT="" />
    <EXPORT ORDINAL="748" NAME="?indexOf@AGL_UnicodeString@agl_2_8@@QBEJPBGJJJ@Z" PURGE="16" COMMENT="" />
    <EXPORT ORDINAL="749" NAME="?indexOf@AGL_UnicodeString@agl_2_8@@QBEJPBGJJJJ@Z" PURGE="20" COMMENT="" />
    <EXPORT ORDINAL="750" NAME="?indexOf@UVector32@agl_2_8@@QBEJJJ@Z" PURGE="8" COMMENT="" />
    <EXPORT ORDINAL="751" NAME="?indexOf@UVector@agl_2_8@@ABEJTUHashTok@@JC@Z" PURGE="12" COMMENT="" />
    <EXPORT ORDINAL="752" NAME="?indexOf@UVector@agl_2_8@@QBEJJJ@Z" PURGE="8" COMMENT="" />
    <EXPORT ORDINAL="753" NAME="?indexOf@UVector@agl_2_8@@QBEJPAXJ@Z" PURGE="8" COMMENT="" />
    <EXPORT ORDINAL="754" NAME="?init@AGL_DictionaryBasedBreakIterator@agl_2_8@@IAEXXZ" PURGE="0" COMMENT="" />
    <EXPORT ORDINAL="755" NAME="?init@AGL_Locale@agl_2_8@@AAEAAV12@PBD@Z" PURGE="4" COMMENT="" />
    <EXPORT ORDINAL="756" NAME="?init@AGL_Normalizer@agl_2_8@@AAEXPAVAGL_CharacterIterator@2@@Z" PURGE="4" COMMENT="" />
    <EXPORT ORDINAL="757" NAME="?init@AGL_RuleBasedBreakIterator@agl_2_8@@IAEXXZ" PURGE="0" COMMENT="" />
    <EXPORT ORDINAL="758" NAME="?initLocaleFromName@LocaleUtility@agl_2_8@@SAAAVAGL_Locale@2@ABVAGL_UnicodeString@2@AAV32@@Z" PURGE="0" COMMENT="" />
    <EXPORT ORDINAL="759" NAME="?initNameFromLocale@LocaleUtility@agl_2_8@@SAAAVAGL_UnicodeString@2@ABVAGL_Locale@2@AAV32@@Z" PURGE="0" COMMENT="" />
    <EXPORT ORDINAL="760" NAME="?insert@AGL_UnicodeString@agl_2_8@@QAEAAV12@JABV12@@Z" PURGE="8" COMMENT="" />
    <EXPORT ORDINAL="761" NAME="?insert@AGL_UnicodeString@agl_2_8@@QAEAAV12@JABV12@JJ@Z" PURGE="16" COMMENT="" />
    <EXPORT ORDINAL="762" NAME="?insert@AGL_UnicodeString@agl_2_8@@QAEAAV12@JG@Z" PURGE="8" COMMENT="" />
    <EXPORT ORDINAL="763" NAME="?insert@AGL_UnicodeString@agl_2_8@@QAEAAV12@JJ@Z" PURGE="8" COMMENT="" />
    <EXPORT ORDINAL="764" NAME="?insert@AGL_UnicodeString@agl_2_8@@QAEAAV12@JPBGJ@Z" PURGE="12" COMMENT="" />
    <EXPORT ORDINAL="765" NAME="?insert@AGL_UnicodeString@agl_2_8@@QAEAAV12@JPBGJJ@Z" PURGE="16" COMMENT="" />
    <EXPORT ORDINAL="766" NAME="?insertElementAt@UVector32@agl_2_8@@QAEXJJAAW4AGL_UErrorCode@@@Z" PURGE="12" COMMENT="" />
    <EXPORT ORDINAL="767" NAME="?insertElementAt@UVector@agl_2_8@@QAEXJJAAW4AGL_UErrorCode@@@Z" PURGE="12" COMMENT="" />
    <EXPORT ORDINAL="768" NAME="?insertElementAt@UVector@agl_2_8@@QAEXPAXJAAW4AGL_UErrorCode@@@Z" PURGE="12" COMMENT="" />
    <EXPORT ORDINAL="769" NAME="?isBogus@AGL_Locale@agl_2_8@@QBECXZ" PURGE="0" COMMENT="" />
    <EXPORT ORDINAL="770" NAME="?isBogus@AGL_UnicodeString@agl_2_8@@QBECXZ" PURGE="0" COMMENT="" />
    <EXPORT ORDINAL="771" NAME="?isBogus@StringPair@agl_2_8@@QBECXZ" PURGE="0" COMMENT="" />
    <EXPORT ORDINAL="772" NAME="?isBoundary@AGL_RuleBasedBreakIterator@agl_2_8@@UAECJ@Z" PURGE="4" COMMENT="" />
    <EXPORT ORDINAL="773" NAME="?isBufferClone@AGL_BreakIterator@agl_2_8@@QAECXZ" PURGE="0" COMMENT="" />
    <EXPORT ORDINAL="774" NAME="?isDefault@ICUService@agl_2_8@@UBECXZ" PURGE="0" COMMENT="" />
    <EXPORT ORDINAL="775" NAME="?isDictionaryChar@AGL_RuleBasedBreakIterator@agl_2_8@@MAECJ@Z" PURGE="4" COMMENT="" />
    <EXPORT ORDINAL="776" NAME="?isEmpty@AGL_UnicodeSet@agl_2_8@@UBECXZ" PURGE="0" COMMENT="" />
    <EXPORT ORDINAL="777" NAME="?isEmpty@AGL_UnicodeString@agl_2_8@@QBECXZ" PURGE="0" COMMENT="" />
    <EXPORT ORDINAL="778" NAME="?isEmpty@UVector32@agl_2_8@@QBECXZ" PURGE="0" COMMENT="" />
    <EXPORT ORDINAL="779" NAME="?isEmpty@UVector@agl_2_8@@QBECXZ" PURGE="0" COMMENT="" />
    <EXPORT ORDINAL="780" NAME="?isFallbackOf@ICUServiceKey@agl_2_8@@UBECABVAGL_UnicodeString@2@@Z" PURGE="4" COMMENT="" />
    <EXPORT ORDINAL="781" NAME="?isFallbackOf@LocaleKey@agl_2_8@@UBECABVAGL_UnicodeString@2@@Z" PURGE="4" COMMENT="" />
    <EXPORT ORDINAL="782" NAME="?isFallbackOf@LocaleUtility@agl_2_8@@SACABVAGL_UnicodeString@2@0@Z" PURGE="0" COMMENT="" />
    <EXPORT ORDINAL="783" NAME="?isNormalized@AGL_Normalizer@agl_2_8@@SACABVAGL_UnicodeString@2@W4AGL_UNormalizationMode@@AAW4AGL_UErrorCode@@@Z" PURGE="0" COMMENT="" />
    <EXPORT ORDINAL="784" NAME="?isNormalized@AGL_Normalizer@agl_2_8@@SACABVAGL_UnicodeString@2@W4AGL_UNormalizationMode@@JAAW4AGL_UErrorCode@@@Z" PURGE="0" COMMENT="" />
    <EXPORT ORDINAL="785" NAME="?isString@AGL_UnicodeSetIterator@agl_2_8@@QBECXZ" PURGE="0" COMMENT="" />
    <EXPORT ORDINAL="786" NAME="?isSupportedID@LocaleKeyFactory@agl_2_8@@MBECABVAGL_UnicodeString@2@AAW4AGL_UErrorCode@@@Z" PURGE="8" COMMENT="" />
    <EXPORT ORDINAL="787" NAME="?isSupportedID@SimpleLocaleKeyFactory@agl_2_8@@MBECABVAGL_UnicodeString@2@AAW4AGL_UErrorCode@@@Z" PURGE="8" COMMENT="" />
    <EXPORT ORDINAL="788" NAME="?isUnprintable@ICU_Utility@agl_2_8@@SACJ@Z" PURGE="0" COMMENT="" />
    <EXPORT ORDINAL="789" NAME="?jumpahead@RuleCharacterIterator@agl_2_8@@QAEXJ@Z" PURGE="4" COMMENT="" />
    <EXPORT ORDINAL="790" NAME="?kind@LocaleKey@agl_2_8@@UBEJXZ" PURGE="0" COMMENT="" />
    <EXPORT ORDINAL="791" NAME="?last32@AGL_UCharCharacterIterator@agl_2_8@@UAEJXZ" PURGE="0" COMMENT="" />
    <EXPORT ORDINAL="792" NAME="?last@AGL_Normalizer@agl_2_8@@QAEJXZ" PURGE="0" COMMENT="" />
    <EXPORT ORDINAL="793" NAME="?last@AGL_RuleBasedBreakIterator@agl_2_8@@UAEJXZ" PURGE="0" COMMENT="" />
    <EXPORT ORDINAL="794" NAME="?last@AGL_UCharCharacterIterator@agl_2_8@@UAEGXZ" PURGE="0" COMMENT="" />
    <EXPORT ORDINAL="795" NAME="?lastElement@UVector@agl_2_8@@QBEPAXXZ" PURGE="0" COMMENT="" />
    <EXPORT ORDINAL="796" NAME="?lastElementi@UVector32@agl_2_8@@QBEJXZ" PURGE="0" COMMENT="" />
    <EXPORT ORDINAL="797" NAME="?lastElementi@UVector@agl_2_8@@QBEJXZ" PURGE="0" COMMENT="" />
    <EXPORT ORDINAL="798" NAME="?lastIndexOf@AGL_UnicodeString@agl_2_8@@QBEJABV12@@Z" PURGE="4" COMMENT="" />
    <EXPORT ORDINAL="799" NAME="?lastIndexOf@AGL_UnicodeString@agl_2_8@@QBEJABV12@J@Z" PURGE="8" COMMENT="" />
    <EXPORT ORDINAL="800" NAME="?lastIndexOf@AGL_UnicodeString@agl_2_8@@QBEJABV12@JJ@Z" PURGE="12" COMMENT="" />
    <EXPORT ORDINAL="801" NAME="?lastIndexOf@AGL_UnicodeString@agl_2_8@@QBEJABV12@JJJJ@Z" PURGE="20" COMMENT="" />
    <EXPORT ORDINAL="802" NAME="?lastIndexOf@AGL_UnicodeString@agl_2_8@@QBEJG@Z" PURGE="4" COMMENT="" />
    <EXPORT ORDINAL="803" NAME="?lastIndexOf@AGL_UnicodeString@agl_2_8@@QBEJGJ@Z" PURGE="8" COMMENT="" />
    <EXPORT ORDINAL="804" NAME="?lastIndexOf@AGL_UnicodeString@agl_2_8@@QBEJGJJ@Z" PURGE="12" COMMENT="" />
    <EXPORT ORDINAL="805" NAME="?lastIndexOf@AGL_UnicodeString@agl_2_8@@QBEJJ@Z" PURGE="4" COMMENT="" />
    <EXPORT ORDINAL="806" NAME="?lastIndexOf@AGL_UnicodeString@agl_2_8@@QBEJJJ@Z" PURGE="8" COMMENT="" />
    <EXPORT ORDINAL="807" NAME="?lastIndexOf@AGL_UnicodeString@agl_2_8@@QBEJJJJ@Z" PURGE="12" COMMENT="" />
    <EXPORT ORDINAL="808" NAME="?lastIndexOf@AGL_UnicodeString@agl_2_8@@QBEJPBGJJ@Z" PURGE="12" COMMENT="" />
    <EXPORT ORDINAL="809" NAME="?lastIndexOf@AGL_UnicodeString@agl_2_8@@QBEJPBGJJJ@Z" PURGE="16" COMMENT="" />
    <EXPORT ORDINAL="810" NAME="?lastIndexOf@AGL_UnicodeString@agl_2_8@@QBEJPBGJJJJ@Z" PURGE="20" COMMENT="" />
    <EXPORT ORDINAL="811" NAME="?length@AGL_Replaceable@agl_2_8@@QBEJXZ" PURGE="-1" COMMENT="" />
    <EXPORT ORDINAL="812" NAME="?length@AGL_UnicodeString@agl_2_8@@QBEJXZ" PURGE="0" COMMENT="" />
    <EXPORT ORDINAL="813" NAME="?loadRange@AGL_UnicodeSetIterator@agl_2_8@@MAEXJ@Z" PURGE="4" COMMENT="" />
    <EXPORT ORDINAL="814" NAME="?lookahead@RuleCharacterIterator@agl_2_8@@QBEAAVAGL_UnicodeString@2@AAV32@@Z" PURGE="4" COMMENT="" />
    <EXPORT ORDINAL="815" NAME="?makeCharacterInstance@AGL_BreakIterator@agl_2_8@@CAPAV12@ABVAGL_Locale@2@AAW4AGL_UErrorCode@@@Z" PURGE="0" COMMENT="" />
    <EXPORT ORDINAL="816" NAME="?makeInstance@AGL_BreakIterator@agl_2_8@@CAPAV12@ABVAGL_Locale@2@JAAW4AGL_UErrorCode@@@Z" PURGE="0" COMMENT="" />
    <EXPORT ORDINAL="817" NAME="?makeLineInstance@AGL_BreakIterator@agl_2_8@@CAPAV12@ABVAGL_Locale@2@AAW4AGL_UErrorCode@@@Z" PURGE="0" COMMENT="" />
    <EXPORT ORDINAL="818" NAME="?makeSentenceInstance@AGL_BreakIterator@agl_2_8@@CAPAV12@ABVAGL_Locale@2@AAW4AGL_UErrorCode@@@Z" PURGE="0" COMMENT="" />
    <EXPORT ORDINAL="819" NAME="?makeTitleInstance@AGL_BreakIterator@agl_2_8@@CAPAV12@ABVAGL_Locale@2@AAW4AGL_UErrorCode@@@Z" PURGE="0" COMMENT="" />
    <EXPORT ORDINAL="820" NAME="?makeWordInstance@AGL_BreakIterator@agl_2_8@@CAPAV12@ABVAGL_Locale@2@AAW4AGL_UErrorCode@@@Z" PURGE="0" COMMENT="" />
    <EXPORT ORDINAL="821" NAME="?matchRest@AGL_UnicodeSet@agl_2_8@@CAJABVAGL_Replaceable@2@JJABVAGL_UnicodeString@2@@Z" PURGE="0" COMMENT="" />
    <EXPORT ORDINAL="822" NAME="?matches@AGL_UnicodeFilter@agl_2_8@@UAE?AW4AGL_UMatchDegree@2@ABVAGL_Replaceable@2@AAJJC@Z" PURGE="16" COMMENT="" />
    <EXPORT ORDINAL="823" NAME="?matches@AGL_UnicodeSet@agl_2_8@@UAE?AW4AGL_UMatchDegree@2@ABVAGL_Replaceable@2@AAJJC@Z" PURGE="16" COMMENT="" />
    <EXPORT ORDINAL="824" NAME="?matchesIndexValue@AGL_UnicodeSet@agl_2_8@@EBECE@Z" PURGE="4" COMMENT="" />
    <EXPORT ORDINAL="825" NAME="?move32@AGL_UCharCharacterIterator@agl_2_8@@UAEJJW4EOrigin@AGL_CharacterIterator@2@@Z" PURGE="8" COMMENT="" />
    <EXPORT ORDINAL="826" NAME="?move@AGL_UCharCharacterIterator@agl_2_8@@UAEJJW4EOrigin@AGL_CharacterIterator@2@@Z" PURGE="8" COMMENT="" />
    <EXPORT ORDINAL="827" NAME="?moveIndex32@AGL_UnicodeString@agl_2_8@@QBEJJJ@Z" PURGE="8" COMMENT="" />
    <EXPORT ORDINAL="828" NAME="?next32@AGL_UCharCharacterIterator@agl_2_8@@UAEJXZ" PURGE="0" COMMENT="" />
    <EXPORT ORDINAL="829" NAME="?next32PostInc@AGL_UCharCharacterIterator@agl_2_8@@UAEJXZ" PURGE="0" COMMENT="" />
    <EXPORT ORDINAL="830" NAME="?next@AGL_CanonicalIterator@agl_2_8@@QAE?AVAGL_UnicodeString@2@XZ" PURGE="4" COMMENT="" />
    <EXPORT ORDINAL="831" NAME="?next@AGL_Normalizer@agl_2_8@@QAEJXZ" PURGE="0" COMMENT="" />
    <EXPORT ORDINAL="832" NAME="?next@AGL_RuleBasedBreakIterator@agl_2_8@@UAEJJ@Z" PURGE="4" COMMENT="" />
    <EXPORT ORDINAL="833" NAME="?next@AGL_RuleBasedBreakIterator@agl_2_8@@UAEJXZ" PURGE="-1" COMMENT="" />
    <EXPORT ORDINAL="834" NAME="?next@AGL_StringEnumeration@agl_2_8@@UAEPBDPAJAAW4AGL_UErrorCode@@@Z" PURGE="8" COMMENT="" />
    <EXPORT ORDINAL="835" NAME="?next@AGL_UCharCharacterIterator@agl_2_8@@UAEGXZ" PURGE="0" COMMENT="" />
    <EXPORT ORDINAL="836" NAME="?next@AGL_UnicodeSetIterator@agl_2_8@@QAECXZ" PURGE="0" COMMENT="" />
    <EXPORT ORDINAL="837" NAME="?next@RuleCharacterIterator@agl_2_8@@QAEJJAACAAW4AGL_UErrorCode@@@Z" PURGE="12" COMMENT="" />
    <EXPORT ORDINAL="838" NAME="?nextElement@Hashtable@agl_2_8@@QBEPBUUHashElement@@AAJ@Z" PURGE="4" COMMENT="" />
    <EXPORT ORDINAL="839" NAME="?nextNormalize@AGL_Normalizer@agl_2_8@@AAECXZ" PURGE="0" COMMENT="" />
    <EXPORT ORDINAL="840" NAME="?nextPostInc@AGL_UCharCharacterIterator@agl_2_8@@UAEGXZ" PURGE="0" COMMENT="" />
    <EXPORT ORDINAL="841" NAME="?nextRange@AGL_UnicodeSetIterator@agl_2_8@@QAECXZ" PURGE="0" COMMENT="" />
    <EXPORT ORDINAL="842" NAME="?normalize@AGL_Normalizer@agl_2_8@@SAXABVAGL_UnicodeString@2@W4AGL_UNormalizationMode@@JAAV32@AAW4AGL_UErrorCode@@@Z" PURGE="0" COMMENT="" />
    <EXPORT ORDINAL="843" NAME="?notifyChanged@ICUNotifier@agl_2_8@@UAEXXZ" PURGE="0" COMMENT="" />
    <EXPORT ORDINAL="844" NAME="?notifyListener@ICUService@agl_2_8@@MBEXAAVEventListener@2@@Z" PURGE="-1" COMMENT="" />
    <EXPORT ORDINAL="845" NAME="?orphanElementAt@UVector@agl_2_8@@QAEPAXJ@Z" PURGE="4" COMMENT="" />
    <EXPORT ORDINAL="846" NAME="?padLeading@AGL_UnicodeString@agl_2_8@@QAECJG@Z" PURGE="8" COMMENT="" />
    <EXPORT ORDINAL="847" NAME="?padTrailing@AGL_UnicodeString@agl_2_8@@QAECJG@Z" PURGE="8" COMMENT="" />
    <EXPORT ORDINAL="848" NAME="?parseChar@ICU_Utility@agl_2_8@@SACABVAGL_UnicodeString@2@AAJG@Z" PURGE="0" COMMENT="" />
    <EXPORT ORDINAL="849" NAME="?parseInteger@ICU_Utility@agl_2_8@@SAJABVAGL_UnicodeString@2@AAJJ@Z" PURGE="0" COMMENT="" />
    <EXPORT ORDINAL="850" NAME="?parseNumber@ICU_Utility@agl_2_8@@SAJABVAGL_UnicodeString@2@AAJC@Z" PURGE="0" COMMENT="" />
    <EXPORT ORDINAL="851" NAME="?parsePattern@ICU_Utility@agl_2_8@@SAJABVAGL_UnicodeString@2@ABVAGL_Replaceable@2@JJ@Z" PURGE="0" COMMENT="" />
    <EXPORT ORDINAL="852" NAME="?parsePattern@ICU_Utility@agl_2_8@@SAJABVAGL_UnicodeString@2@JJ0PAJ@Z" PURGE="0" COMMENT="" />
    <EXPORT ORDINAL="853" NAME="?parsePrefix@ICUServiceKey@agl_2_8@@SAAAVAGL_UnicodeString@2@AAV32@@Z" PURGE="0" COMMENT="" />
    <EXPORT ORDINAL="854" NAME="?parseSuffix@ICUServiceKey@agl_2_8@@SAAAVAGL_UnicodeString@2@AAV32@@Z" PURGE="0" COMMENT="" />
    <EXPORT ORDINAL="855" NAME="?parseUnicodeIdentifier@ICU_Utility@agl_2_8@@SA?AVAGL_UnicodeString@2@ABV32@AAJ@Z" PURGE="0" COMMENT="" />
    <EXPORT ORDINAL="856" NAME="?peek@UStack@agl_2_8@@QBEPAXXZ" PURGE="0" COMMENT="" />
    <EXPORT ORDINAL="857" NAME="?peeki@UStack@agl_2_8@@QBEJXZ" PURGE="0" COMMENT="" />
    <EXPORT ORDINAL="858" NAME="?peeki@UVector32@agl_2_8@@QBEJXZ" PURGE="0" COMMENT="" />
    <EXPORT ORDINAL="859" NAME="?permute@AGL_CanonicalIterator@agl_2_8@@SAXAAVAGL_UnicodeString@2@CPAVHashtable@2@AAW4AGL_UErrorCode@@@Z" PURGE="0" COMMENT="" />
    <EXPORT ORDINAL="860" NAME="?pinIndex@AGL_UnicodeString@agl_2_8@@ABEXAAJ@Z" PURGE="4" COMMENT="" />
    <EXPORT ORDINAL="861" NAME="?pinIndices@AGL_UnicodeString@agl_2_8@@ABEXAAJ0@Z" PURGE="8" COMMENT="" />
    <EXPORT ORDINAL="862" NAME="?pop@UStack@agl_2_8@@QAEPAXXZ" PURGE="0" COMMENT="" />
    <EXPORT ORDINAL="863" NAME="?popFrame@UVector32@agl_2_8@@QAEPAJJ@Z" PURGE="4" COMMENT="" />
    <EXPORT ORDINAL="864" NAME="?popi@UStack@agl_2_8@@QAEJXZ" PURGE="0" COMMENT="" />
    <EXPORT ORDINAL="865" NAME="?popi@UVector32@agl_2_8@@QAEJXZ" PURGE="0" COMMENT="" />
    <EXPORT ORDINAL="866" NAME="?preceding@AGL_DictionaryBasedBreakIterator@agl_2_8@@UAEJJ@Z" PURGE="4" COMMENT="" />
    <EXPORT ORDINAL="867" NAME="?preceding@AGL_RuleBasedBreakIterator@agl_2_8@@UAEJJ@Z" PURGE="4" COMMENT="" />
    <EXPORT ORDINAL="868" NAME="?prefix@ICUServiceKey@agl_2_8@@UBEAAVAGL_UnicodeString@2@AAV32@@Z" PURGE="4" COMMENT="" />
    <EXPORT ORDINAL="869" NAME="?prefix@LocaleKey@agl_2_8@@UBEAAVAGL_UnicodeString@2@AAV32@@Z" PURGE="4" COMMENT="" />
    <EXPORT ORDINAL="870" NAME="?previous32@AGL_UCharCharacterIterator@agl_2_8@@UAEJXZ" PURGE="0" COMMENT="" />
    <EXPORT ORDINAL="871" NAME="?previous@AGL_DictionaryBasedBreakIterator@agl_2_8@@UAEJXZ" PURGE="0" COMMENT="" />
    <EXPORT ORDINAL="872" NAME="?previous@AGL_Normalizer@agl_2_8@@QAEJXZ" PURGE="0" COMMENT="" />
    <EXPORT ORDINAL="873" NAME="?previous@AGL_RuleBasedBreakIterator@agl_2_8@@UAEJXZ" PURGE="0" COMMENT="" />
    <EXPORT ORDINAL="874" NAME="?previous@AGL_UCharCharacterIterator@agl_2_8@@UAEGXZ" PURGE="0" COMMENT="" />
    <EXPORT ORDINAL="875" NAME="?previousNormalize@AGL_Normalizer@agl_2_8@@AAECXZ" PURGE="0" COMMENT="" />
    <EXPORT ORDINAL="876" NAME="?push@UStack@agl_2_8@@QAEJJAAW4AGL_UErrorCode@@@Z" PURGE="8" COMMENT="" />
    <EXPORT ORDINAL="877" NAME="?push@UStack@agl_2_8@@QAEPAXPAXAAW4AGL_UErrorCode@@@Z" PURGE="8" COMMENT="" />
    <EXPORT ORDINAL="878" NAME="?push@UVector32@agl_2_8@@QAEJJAAW4AGL_UErrorCode@@@Z" PURGE="8" COMMENT="" />
    <EXPORT ORDINAL="879" NAME="?put@Hashtable@agl_2_8@@QAEPAXABVAGL_UnicodeString@2@PAXAAW4AGL_UErrorCode@@@Z" PURGE="12" COMMENT="" />
    <EXPORT ORDINAL="880" NAME="?puti@Hashtable@agl_2_8@@QAEJABVAGL_UnicodeString@2@JAAW4AGL_UErrorCode@@@Z" PURGE="12" COMMENT="" />
    <EXPORT ORDINAL="881" NAME="?quickCheck@AGL_Normalizer@agl_2_8@@SA?AW4AGL_UNormalizationCheckResult@@ABVAGL_UnicodeString@2@W4AGL_UNormalizationMode@@AAW4AGL_UErrorCode@@@Z" PURGE="0" COMMENT="" />
    <EXPORT ORDINAL="882" NAME="?quickCheck@AGL_Normalizer@agl_2_8@@SA?AW4AGL_UNormalizationCheckResult@@ABVAGL_UnicodeString@2@W4AGL_UNormalizationMode@@JAAW4AGL_UErrorCode@@@Z" PURGE="0" COMMENT="" />
    <EXPORT ORDINAL="883" NAME="?quotedIndexOf@ICU_Utility@agl_2_8@@SAJABVAGL_UnicodeString@2@JJG@Z" PURGE="0" COMMENT="" />
    <EXPORT ORDINAL="884" NAME="?reInitializeFactories@ICUService@agl_2_8@@MAEXXZ" PURGE="0" COMMENT="" />
    <EXPORT ORDINAL="885" NAME="?refCount@AGL_UnicodeString@agl_2_8@@ABEJXZ" PURGE="0" COMMENT="" />
    <EXPORT ORDINAL="886" NAME="?registerFactory@ICUService@agl_2_8@@UAEPBXPAVICUServiceFactory@2@AAW4AGL_UErrorCode@@@Z" PURGE="8" COMMENT="" />
    <EXPORT ORDINAL="887" NAME="?registerInstance@AGL_BreakIterator@agl_2_8@@SAPBXPAV12@ABVAGL_Locale@2@W4AGL_UBreakIteratorType@@AAW4AGL_UErrorCode@@@Z" PURGE="0" COMMENT="" />
    <EXPORT ORDINAL="888" NAME="?registerInstance@ICULocaleService@agl_2_8@@UAEPBXPAVAGL_UObject@2@ABVAGL_Locale@2@AAW4AGL_UErrorCode@@@Z" PURGE="12" COMMENT="" />
    <EXPORT ORDINAL="889" NAME="?registerInstance@ICULocaleService@agl_2_8@@UAEPBXPAVAGL_UObject@2@ABVAGL_Locale@2@JAAW4AGL_UErrorCode@@@Z" PURGE="16" COMMENT="" />
    <EXPORT ORDINAL="890" NAME="?registerInstance@ICULocaleService@agl_2_8@@UAEPBXPAVAGL_UObject@2@ABVAGL_Locale@2@JJAAW4AGL_UErrorCode@@@Z" PURGE="20" COMMENT="" />
    <EXPORT ORDINAL="891" NAME="?registerInstance@ICULocaleService@agl_2_8@@UAEPBXPAVAGL_UObject@2@ABVAGL_UnicodeString@2@CAAW4AGL_UErrorCode@@@Z" PURGE="16" COMMENT="" />
    <EXPORT ORDINAL="892" NAME="?registerInstance@ICUService@agl_2_8@@QAEPBXPAVAGL_UObject@2@ABVAGL_UnicodeString@2@AAW4AGL_UErrorCode@@@Z" PURGE="12" COMMENT="" />
    <EXPORT ORDINAL="893" NAME="?registerInstance@ICUService@agl_2_8@@UAEPBXPAVAGL_UObject@2@ABVAGL_UnicodeString@2@CAAW4AGL_UErrorCode@@@Z" PURGE="16" COMMENT="" />
    <EXPORT ORDINAL="894" NAME="?releaseArray@AGL_UnicodeString@agl_2_8@@AAEXXZ" PURGE="0" COMMENT="" />
    <EXPORT ORDINAL="895" NAME="?releaseBuffer@AGL_UnicodeString@agl_2_8@@QAEXJ@Z" PURGE="4" COMMENT="" />
    <EXPORT ORDINAL="896" NAME="?remove@AGL_UnicodeSet@agl_2_8@@QAEAAV12@ABVAGL_UnicodeString@2@@Z" PURGE="4" COMMENT="" />
    <EXPORT ORDINAL="897" NAME="?remove@AGL_UnicodeSet@agl_2_8@@QAEAAV12@J@Z" PURGE="4" COMMENT="" />
    <EXPORT ORDINAL="898" NAME="?remove@AGL_UnicodeSet@agl_2_8@@UAEAAV12@JJ@Z" PURGE="8" COMMENT="" />
    <EXPORT ORDINAL="899" NAME="?remove@AGL_UnicodeString@agl_2_8@@QAEAAV12@JJ@Z" PURGE="8" COMMENT="" />
    <EXPORT ORDINAL="900" NAME="?remove@AGL_UnicodeString@agl_2_8@@QAEAAV12@XZ" PURGE="0" COMMENT="" />
    <EXPORT ORDINAL="901" NAME="?remove@Hashtable@agl_2_8@@QAEPAXABVAGL_UnicodeString@2@@Z" PURGE="4" COMMENT="" />
    <EXPORT ORDINAL="902" NAME="?removeAll@AGL_UnicodeSet@agl_2_8@@QAEAAV12@ABVAGL_UnicodeString@2@@Z" PURGE="4" COMMENT="" />
    <EXPORT ORDINAL="903" NAME="?removeAll@AGL_UnicodeSet@agl_2_8@@UAEAAV12@ABV12@@Z" PURGE="4" COMMENT="" />
    <EXPORT ORDINAL="904" NAME="?removeAll@Hashtable@agl_2_8@@QAEXXZ" PURGE="0" COMMENT="" />
    <EXPORT ORDINAL="905" NAME="?removeAll@UVector32@agl_2_8@@QAECABV12@@Z" PURGE="4" COMMENT="" />
    <EXPORT ORDINAL="906" NAME="?removeAll@UVector@agl_2_8@@QAECABV12@@Z" PURGE="4" COMMENT="" />
    <EXPORT ORDINAL="907" NAME="?removeAllElements@UVector32@agl_2_8@@QAEXXZ" PURGE="0" COMMENT="" />
    <EXPORT ORDINAL="908" NAME="?removeAllElements@UVector@agl_2_8@@QAEXXZ" PURGE="0" COMMENT="" />
    <EXPORT ORDINAL="909" NAME="?removeBetween@AGL_UnicodeString@agl_2_8@@QAEAAV12@JJ@Z" PURGE="8" COMMENT="" />
    <EXPORT ORDINAL="910" NAME="?removeElement@UVector@agl_2_8@@QAECPAX@Z" PURGE="4" COMMENT="" />
    <EXPORT ORDINAL="911" NAME="?removeElementAt@UVector32@agl_2_8@@QAEXJ@Z" PURGE="4" COMMENT="" />
    <EXPORT ORDINAL="912" NAME="?removeElementAt@UVector@agl_2_8@@QAEXJ@Z" PURGE="4" COMMENT="" />
    <EXPORT ORDINAL="913" NAME="?removeListener@ICUNotifier@agl_2_8@@UAEXPBVEventListener@2@AAW4AGL_UErrorCode@@@Z" PURGE="8" COMMENT="" />
    <EXPORT ORDINAL="914" NAME="?removeRef@AGL_UnicodeString@agl_2_8@@AAEJXZ" PURGE="0" COMMENT="" />
    <EXPORT ORDINAL="915" NAME="?removei@Hashtable@agl_2_8@@QAEJABVAGL_UnicodeString@2@@Z" PURGE="4" COMMENT="" />
    <EXPORT ORDINAL="916" NAME="?replace@AGL_UnicodeString@agl_2_8@@QAEAAV12@JJABV12@@Z" PURGE="12" COMMENT="" />
    <EXPORT ORDINAL="917" NAME="?replace@AGL_UnicodeString@agl_2_8@@QAEAAV12@JJABV12@JJ@Z" PURGE="20" COMMENT="" />
    <EXPORT ORDINAL="918" NAME="?replace@AGL_UnicodeString@agl_2_8@@QAEAAV12@JJG@Z" PURGE="12" COMMENT="" />
    <EXPORT ORDINAL="919" NAME="?replace@AGL_UnicodeString@agl_2_8@@QAEAAV12@JJJ@Z" PURGE="12" COMMENT="" />
    <EXPORT ORDINAL="920" NAME="?replace@AGL_UnicodeString@agl_2_8@@QAEAAV12@JJPBGJ@Z" PURGE="16" COMMENT="" />
    <EXPORT ORDINAL="921" NAME="?replace@AGL_UnicodeString@agl_2_8@@QAEAAV12@JJPBGJJ@Z" PURGE="20" COMMENT="" />
    <EXPORT ORDINAL="922" NAME="?replaceBetween@AGL_UnicodeString@agl_2_8@@QAEAAV12@JJABV12@@Z" PURGE="12" COMMENT="" />
    <EXPORT ORDINAL="923" NAME="?replaceBetween@AGL_UnicodeString@agl_2_8@@QAEAAV12@JJABV12@JJ@Z" PURGE="20" COMMENT="" />
    <EXPORT ORDINAL="924" NAME="?resemblesPattern@AGL_UnicodeSet@agl_2_8@@SACABVAGL_UnicodeString@2@J@Z" PURGE="0" COMMENT="" />
    <EXPORT ORDINAL="925" NAME="?resemblesPropertyPattern@AGL_UnicodeSet@agl_2_8@@CACAAVRuleCharacterIterator@2@J@Z" PURGE="0" COMMENT="" />
    <EXPORT ORDINAL="926" NAME="?resemblesPropertyPattern@AGL_UnicodeSet@agl_2_8@@CACABVAGL_UnicodeString@2@J@Z" PURGE="0" COMMENT="" />
    <EXPORT ORDINAL="927" NAME="?reserveBlock@UVector32@agl_2_8@@QAEPAJJAAW4AGL_UErrorCode@@@Z" PURGE="8" COMMENT="" />
    <EXPORT ORDINAL="928" NAME="?reset@AGL_CanonicalIterator@agl_2_8@@QAEXXZ" PURGE="0" COMMENT="" />
    <EXPORT ORDINAL="929" NAME="?reset@AGL_DictionaryBasedBreakIterator@agl_2_8@@MAEXXZ" PURGE="0" COMMENT="" />
    <EXPORT ORDINAL="930" NAME="?reset@AGL_Normalizer@agl_2_8@@QAEXXZ" PURGE="0" COMMENT="" />
    <EXPORT ORDINAL="931" NAME="?reset@AGL_RuleBasedBreakIterator@agl_2_8@@MAEXXZ" PURGE="0" COMMENT="" />
    <EXPORT ORDINAL="932" NAME="?reset@AGL_UnicodeSetIterator@agl_2_8@@QAEXABVAGL_UnicodeSet@2@@Z" PURGE="4" COMMENT="" />
    <EXPORT ORDINAL="933" NAME="?reset@AGL_UnicodeSetIterator@agl_2_8@@QAEXXZ" PURGE="0" COMMENT="" />
    <EXPORT ORDINAL="934" NAME="?reset@ICUService@agl_2_8@@UAEXXZ" PURGE="0" COMMENT="" />
    <EXPORT ORDINAL="935" NAME="?resetIterator@AGL_ResourceBundle@agl_2_8@@QAEXXZ" PURGE="0" COMMENT="" />
    <EXPORT ORDINAL="936" NAME="?retain@AGL_UnicodeSet@agl_2_8@@AAEXPBJJC@Z" PURGE="-1" COMMENT="" />
    <EXPORT ORDINAL="937" NAME="?retain@AGL_UnicodeSet@agl_2_8@@QAEAAV12@J@Z" PURGE="4" COMMENT="" />
    <EXPORT ORDINAL="938" NAME="?retain@AGL_UnicodeSet@agl_2_8@@UAEAAV12@JJ@Z" PURGE="8" COMMENT="" />
    <EXPORT ORDINAL="939" NAME="?retainAll@AGL_UnicodeSet@agl_2_8@@QAEAAV12@ABVAGL_UnicodeString@2@@Z" PURGE="4" COMMENT="" />
    <EXPORT ORDINAL="940" NAME="?retainAll@AGL_UnicodeSet@agl_2_8@@UAEAAV12@ABV12@@Z" PURGE="4" COMMENT="" />
    <EXPORT ORDINAL="941" NAME="?retainAll@UVector32@agl_2_8@@QAECABV12@@Z" PURGE="4" COMMENT="" />
    <EXPORT ORDINAL="942" NAME="?retainAll@UVector@agl_2_8@@QAECABV12@@Z" PURGE="4" COMMENT="" />
    <EXPORT ORDINAL="943" NAME="?reverse@AGL_UnicodeString@agl_2_8@@QAEAAV12@JJ@Z" PURGE="8" COMMENT="" />
    <EXPORT ORDINAL="944" NAME="?reverse@AGL_UnicodeString@agl_2_8@@QAEAAV12@XZ" PURGE="0" COMMENT="" />
    <EXPORT ORDINAL="945" NAME="?search@UStack@agl_2_8@@QBEJPAX@Z" PURGE="4" COMMENT="" />
    <EXPORT ORDINAL="946" NAME="?serialize@AGL_UnicodeSet@agl_2_8@@QBEJPAGJAAW4AGL_UErrorCode@@@Z" PURGE="12" COMMENT="" />
    <EXPORT ORDINAL="947" NAME="?set@AGL_UnicodeSet@agl_2_8@@QAEAAV12@JJ@Z" PURGE="8" COMMENT="" />
    <EXPORT ORDINAL="948" NAME="?setCharAt@AGL_UnicodeString@agl_2_8@@QAEAAV12@JG@Z" PURGE="8" COMMENT="" />
    <EXPORT ORDINAL="949" NAME="?setChars@AGL_StringEnumeration@agl_2_8@@IAEPAVAGL_UnicodeString@2@PBDJAAW4AGL_UErrorCode@@@Z" PURGE="12" COMMENT="" />
    <EXPORT ORDINAL="950" NAME="?setComparer@UVector@agl_2_8@@QAEP6ACTUHashTok@@0@ZP6AC00@Z@Z" PURGE="4" COMMENT="" />
    <EXPORT ORDINAL="951" NAME="?setData@AGL_UnicodeFilter@agl_2_8@@UAEXPBVTransliterationRuleData@2@@Z" PURGE="4" COMMENT="" />
    <EXPORT ORDINAL="952" NAME="?setDefault@AGL_Locale@agl_2_8@@SAXABV12@AAW4AGL_UErrorCode@@@Z" PURGE="0" COMMENT="" />
    <EXPORT ORDINAL="953" NAME="?setDeleter@UVector@agl_2_8@@QAEP6AXPAX@ZP6AX0@Z@Z" PURGE="4" COMMENT="" />
    <EXPORT ORDINAL="954" NAME="?setElementAt@UVector32@agl_2_8@@QAEXJJ@Z" PURGE="8" COMMENT="" />
    <EXPORT ORDINAL="955" NAME="?setElementAt@UVector@agl_2_8@@QAEXJJ@Z" PURGE="8" COMMENT="" />
    <EXPORT ORDINAL="956" NAME="?setElementAt@UVector@agl_2_8@@QAEXPAXJ@Z" PURGE="8" COMMENT="" />
    <EXPORT ORDINAL="957" NAME="?setErrorIndex@AGL_ParsePosition@agl_2_8@@QAEXJ@Z" PURGE="4" COMMENT="" />
    <EXPORT ORDINAL="958" NAME="?setFromPOSIXID@AGL_Locale@agl_2_8@@IAEXPBD@Z" PURGE="4" COMMENT="" />
    <EXPORT ORDINAL="959" NAME="?setIndex32@AGL_UCharCharacterIterator@agl_2_8@@UAEJJ@Z" PURGE="4" COMMENT="" />
    <EXPORT ORDINAL="960" NAME="?setIndex@AGL_ParsePosition@agl_2_8@@QAEXJ@Z" PURGE="4" COMMENT="" />
    <EXPORT ORDINAL="961" NAME="?setIndex@AGL_UCharCharacterIterator@agl_2_8@@UAEGJ@Z" PURGE="4" COMMENT="" />
    <EXPORT ORDINAL="962" NAME="?setIndexOnly@AGL_Normalizer@agl_2_8@@QAEXJ@Z" PURGE="4" COMMENT="" />
    <EXPORT ORDINAL="963" NAME="?setLocaleIDs@LocaleBased@agl_2_8@@QAEXPBD0@Z" PURGE="8" COMMENT="" />
    <EXPORT ORDINAL="964" NAME="?setMode@AGL_Normalizer@agl_2_8@@QAEXW4AGL_UNormalizationMode@@@Z" PURGE="4" COMMENT="" />
    <EXPORT ORDINAL="965" NAME="?setOption@AGL_Normalizer@agl_2_8@@QAEXJC@Z" PURGE="8" COMMENT="" />
    <EXPORT ORDINAL="966" NAME="?setPos@RuleCharacterIterator@agl_2_8@@QAEXABUPos@12@@Z" PURGE="4" COMMENT="" />
    <EXPORT ORDINAL="967" NAME="?setSize@UVector32@agl_2_8@@QAEXJ@Z" PURGE="4" COMMENT="" />
    <EXPORT ORDINAL="968" NAME="?setSize@UVector@agl_2_8@@QAEXJ@Z" PURGE="4" COMMENT="" />
    <EXPORT ORDINAL="969" NAME="?setSource@AGL_CanonicalIterator@agl_2_8@@QAEXABVAGL_UnicodeString@2@AAW4AGL_UErrorCode@@@Z" PURGE="8" COMMENT="" />
    <EXPORT ORDINAL="970" NAME="?setText@AGL_Normalizer@agl_2_8@@QAEXABVAGL_CharacterIterator@2@AAW4AGL_UErrorCode@@@Z" PURGE="8" COMMENT="" />
    <EXPORT ORDINAL="971" NAME="?setText@AGL_Normalizer@agl_2_8@@QAEXABVAGL_UnicodeString@2@AAW4AGL_UErrorCode@@@Z" PURGE="8" COMMENT="" />
    <EXPORT ORDINAL="972" NAME="?setText@AGL_Normalizer@agl_2_8@@QAEXPBGJAAW4AGL_UErrorCode@@@Z" PURGE="12" COMMENT="" />
    <EXPORT ORDINAL="973" NAME="?setText@AGL_RuleBasedBreakIterator@agl_2_8@@UAEXABVAGL_UnicodeString@2@@Z" PURGE="4" COMMENT="" />
    <EXPORT ORDINAL="974" NAME="?setText@AGL_StringCharacterIterator@agl_2_8@@QAEXABVAGL_UnicodeString@2@@Z" PURGE="4" COMMENT="" />
    <EXPORT ORDINAL="975" NAME="?setText@AGL_UCharCharacterIterator@agl_2_8@@QAEXPBGJ@Z" PURGE="8" COMMENT="" />
    <EXPORT ORDINAL="976" NAME="?setTo@AGL_UnicodeString@agl_2_8@@QAEAAV12@ABV12@@Z" PURGE="4" COMMENT="" />
    <EXPORT ORDINAL="977" NAME="?setTo@AGL_UnicodeString@agl_2_8@@QAEAAV12@ABV12@J@Z" PURGE="8" COMMENT="" />
    <EXPORT ORDINAL="978" NAME="?setTo@AGL_UnicodeString@agl_2_8@@QAEAAV12@ABV12@JJ@Z" PURGE="12" COMMENT="" />
    <EXPORT ORDINAL="979" NAME="?setTo@AGL_UnicodeString@agl_2_8@@QAEAAV12@CPBGJ@Z" PURGE="12" COMMENT="" />
    <EXPORT ORDINAL="980" NAME="?setTo@AGL_UnicodeString@agl_2_8@@QAEAAV12@G@Z" PURGE="4" COMMENT="" />
    <EXPORT ORDINAL="981" NAME="?setTo@AGL_UnicodeString@agl_2_8@@QAEAAV12@J@Z" PURGE="4" COMMENT="" />
    <EXPORT ORDINAL="982" NAME="?setTo@AGL_UnicodeString@agl_2_8@@QAEAAV12@PAGJJ@Z" PURGE="12" COMMENT="" />
    <EXPORT ORDINAL="983" NAME="?setTo@AGL_UnicodeString@agl_2_8@@QAEAAV12@PBGJ@Z" PURGE="8" COMMENT="" />
    <EXPORT ORDINAL="984" NAME="?setToBogus@AGL_Locale@agl_2_8@@QAEXXZ" PURGE="0" COMMENT="" />
    <EXPORT ORDINAL="985" NAME="?setToBogus@AGL_UnicodeString@agl_2_8@@QAEXXZ" PURGE="0" COMMENT="" />
    <EXPORT ORDINAL="986" NAME="?setToEnd@AGL_CharacterIterator@agl_2_8@@QAEJXZ" PURGE="0" COMMENT="" />
    <EXPORT ORDINAL="987" NAME="?setToStart@AGL_CharacterIterator@agl_2_8@@QAEJXZ" PURGE="0" COMMENT="" />
    <EXPORT ORDINAL="988" NAME="?setValueDeleter@Hashtable@agl_2_8@@QAEP6AXPAX@ZP6AX0@Z@Z" PURGE="4" COMMENT="" />
    <EXPORT ORDINAL="989" NAME="?size@AGL_UnicodeSet@agl_2_8@@UBEJXZ" PURGE="0" COMMENT="" />
    <EXPORT ORDINAL="990" NAME="?size@UVector32@agl_2_8@@QBEJXZ" PURGE="0" COMMENT="" />
    <EXPORT ORDINAL="991" NAME="?size@UVector@agl_2_8@@QBEJXZ" PURGE="0" COMMENT="" />
    <EXPORT ORDINAL="992" NAME="?skipIgnored@RuleCharacterIterator@agl_2_8@@QAEXJ@Z" PURGE="4" COMMENT="" />
    <EXPORT ORDINAL="993" NAME="?skipWhitespace@ICU_Utility@agl_2_8@@SAJABVAGL_UnicodeString@2@AAJC@Z" PURGE="0" COMMENT="" />
    <EXPORT ORDINAL="994" NAME="?sortedInsert@UVector32@agl_2_8@@QAEXJAAW4AGL_UErrorCode@@@Z" PURGE="8" COMMENT="" />
    <EXPORT ORDINAL="995" NAME="?sortedInsert@UVector@agl_2_8@@AAEXTUHashTok@@P6AC00@ZAAW4AGL_UErrorCode@@@Z" PURGE="12" COMMENT="" />
    <EXPORT ORDINAL="996" NAME="?sortedInsert@UVector@agl_2_8@@QAEXJP6ACTUHashTok@@0@ZAAW4AGL_UErrorCode@@@Z" PURGE="12" COMMENT="" />
    <EXPORT ORDINAL="997" NAME="?sortedInsert@UVector@agl_2_8@@QAEXPAXP6ACTUHashTok@@1@ZAAW4AGL_UErrorCode@@@Z" PURGE="12" COMMENT="" />
    <EXPORT ORDINAL="998" NAME="?startIndex@AGL_CharacterIterator@agl_2_8@@QBEJXZ" PURGE="0" COMMENT="" />
    <EXPORT ORDINAL="999" NAME="?startIndex@AGL_Normalizer@agl_2_8@@QBEJXZ" PURGE="0" COMMENT="" />
    <EXPORT ORDINAL="1000" NAME="?startsWith@AGL_UnicodeString@agl_2_8@@QBECABV12@@Z" PURGE="4" COMMENT="" />
    <EXPORT ORDINAL="1001" NAME="?startsWith@AGL_UnicodeString@agl_2_8@@QBECABV12@JJ@Z" PURGE="12" COMMENT="" />
    <EXPORT ORDINAL="1002" NAME="?startsWith@AGL_UnicodeString@agl_2_8@@QBECPBGJ@Z" PURGE="8" COMMENT="" />
    <EXPORT ORDINAL="1003" NAME="?startsWith@AGL_UnicodeString@agl_2_8@@QBECPBGJJ@Z" PURGE="12" COMMENT="" />
    <EXPORT ORDINAL="1004" NAME="?swapBuffers@AGL_UnicodeSet@agl_2_8@@AAEXXZ" PURGE="0" COMMENT="" />
    <EXPORT ORDINAL="1005" NAME="?toArray@UVector@agl_2_8@@QBEPAPAXPAPAX@Z" PURGE="4" COMMENT="" />
    <EXPORT ORDINAL="1006" NAME="?toLower@AGL_UnicodeString@agl_2_8@@QAEAAV12@ABVAGL_Locale@2@@Z" PURGE="4" COMMENT="" />
    <EXPORT ORDINAL="1007" NAME="?toLower@AGL_UnicodeString@agl_2_8@@QAEAAV12@XZ" PURGE="0" COMMENT="" />
    <EXPORT ORDINAL="1008" NAME="?toMatcher@AGL_UnicodeFilter@agl_2_8@@UBEPAVAGL_UnicodeMatcher@2@XZ" PURGE="0" COMMENT="" />
    <EXPORT ORDINAL="1009" NAME="?toMatcher@AGL_UnicodeFunctor@agl_2_8@@UBEPAVAGL_UnicodeMatcher@2@XZ" PURGE="0" COMMENT="" />
    <EXPORT ORDINAL="1010" NAME="?toPattern@AGL_UnicodeSet@agl_2_8@@UBEAAVAGL_UnicodeString@2@AAV32@C@Z" PURGE="8" COMMENT="" />
    <EXPORT ORDINAL="1011" NAME="?toReplacer@AGL_UnicodeFunctor@agl_2_8@@UBEPAVAGL_UnicodeReplacer@2@XZ" PURGE="0" COMMENT="" />
    <EXPORT ORDINAL="1012" NAME="?toString@RuleCharacterIterator@agl_2_8@@QBEAAVAGL_UnicodeString@2@AAV32@@Z" PURGE="4" COMMENT="" />
    <EXPORT ORDINAL="1013" NAME="?toTitle@AGL_UnicodeString@agl_2_8@@QAEAAV12@PAVAGL_BreakIterator@2@@Z" PURGE="4" COMMENT="" />
    <EXPORT ORDINAL="1014" NAME="?toTitle@AGL_UnicodeString@agl_2_8@@QAEAAV12@PAVAGL_BreakIterator@2@ABVAGL_Locale@2@@Z" PURGE="8" COMMENT="" />
    <EXPORT ORDINAL="1015" NAME="?toUpper@AGL_UnicodeString@agl_2_8@@QAEAAV12@ABVAGL_Locale@2@@Z" PURGE="4" COMMENT="" />
    <EXPORT ORDINAL="1016" NAME="?toUpper@AGL_UnicodeString@agl_2_8@@QAEAAV12@XZ" PURGE="0" COMMENT="" />
    <EXPORT ORDINAL="1017" NAME="?trim@AGL_UnicodeString@agl_2_8@@QAEAAV12@XZ" PURGE="0" COMMENT="" />
    <EXPORT ORDINAL="1018" NAME="?truncate@AGL_UnicodeString@agl_2_8@@QAECJ@Z" PURGE="4" COMMENT="" />
    <EXPORT ORDINAL="1019" NAME="?unBogus@AGL_UnicodeString@agl_2_8@@AAEXXZ" PURGE="0" COMMENT="" />
    <EXPORT ORDINAL="1020" NAME="?unescape@AGL_UnicodeString@agl_2_8@@QBE?AV12@XZ" PURGE="4" COMMENT="" />
    <EXPORT ORDINAL="1021" NAME="?unescapeAt@AGL_UnicodeString@agl_2_8@@QBEJAAJ@Z" PURGE="4" COMMENT="" />
    <EXPORT ORDINAL="1022" NAME="?unext@AGL_StringEnumeration@agl_2_8@@UAEPBGPAJAAW4AGL_UErrorCode@@@Z" PURGE="8" COMMENT="" />
    <EXPORT ORDINAL="1023" NAME="?unregister@AGL_BreakIterator@agl_2_8@@SACPBXAAW4AGL_UErrorCode@@@Z" PURGE="0" COMMENT="" />
    <EXPORT ORDINAL="1024" NAME="?unregister@ICUService@agl_2_8@@UAECPBXAAW4AGL_UErrorCode@@@Z" PURGE="8" COMMENT="" />
    <EXPORT ORDINAL="1025" NAME="?updateVisibleIDs@LocaleKeyFactory@agl_2_8@@UBEXAAVHashtable@2@AAW4AGL_UErrorCode@@@Z" PURGE="8" COMMENT="" />
    <EXPORT ORDINAL="1026" NAME="?updateVisibleIDs@SimpleFactory@agl_2_8@@UBEXAAVHashtable@2@AAW4AGL_UErrorCode@@@Z" PURGE="8" COMMENT="" />
    <EXPORT ORDINAL="1027" NAME="?updateVisibleIDs@SimpleLocaleKeyFactory@agl_2_8@@UBEXAAVHashtable@2@AAW4AGL_UErrorCode@@@Z" PURGE="8" COMMENT="" />
    <EXPORT ORDINAL="1028" NAME="?validateFallbackLocale@ICULocaleService@agl_2_8@@IBEABVAGL_UnicodeString@2@XZ" PURGE="0" COMMENT="" />
    <EXPORT ORDINAL="1029" NAME="AGL_UCNV_FROM_U_CALLBACK_ESCAPE" PURGE="0" COMMENT="" />
    <EXPORT ORDINAL="1030" NAME="AGL_UCNV_FROM_U_CALLBACK_SKIP" PURGE="0" COMMENT="" />
    <EXPORT ORDINAL="1031" NAME="AGL_UCNV_FROM_U_CALLBACK_STOP" PURGE="0" COMMENT="" />
    <EXPORT ORDINAL="1032" NAME="AGL_UCNV_FROM_U_CALLBACK_SUBSTITUTE" PURGE="0" COMMENT="" />
    <EXPORT ORDINAL="1033" NAME="AGL_UCNV_TO_U_CALLBACK_ESCAPE" PURGE="0" COMMENT="" />
    <EXPORT ORDINAL="1034" NAME="AGL_UCNV_TO_U_CALLBACK_SKIP" PURGE="0" COMMENT="" />
    <EXPORT ORDINAL="1035" NAME="AGL_UCNV_TO_U_CALLBACK_STOP" PURGE="0" COMMENT="" />
    <EXPORT ORDINAL="1036" NAME="AGL_UCNV_TO_U_CALLBACK_SUBSTITUTE" PURGE="0" COMMENT="" />
    <EXPORT ORDINAL="1037" NAME="T_CString_int64ToString" PURGE="0" COMMENT="" />
    <EXPORT ORDINAL="1038" NAME="T_CString_integerToString" PURGE="0" COMMENT="" />
    <EXPORT ORDINAL="1039" NAME="T_CString_stricmp" PURGE="0" COMMENT="" />
    <EXPORT ORDINAL="1040" NAME="T_CString_stringToInteger" PURGE="0" COMMENT="" />
    <EXPORT ORDINAL="1041" NAME="T_CString_strnicmp" PURGE="0" COMMENT="" />
    <EXPORT ORDINAL="1042" NAME="T_CString_toLowerCase" PURGE="0" COMMENT="" />
    <EXPORT ORDINAL="1043" NAME="T_CString_toUpperCase" PURGE="0" COMMENT="" />
    <EXPORT ORDINAL="1044" NAME="T_FileStream_close" PURGE="0" COMMENT="" />
    <EXPORT ORDINAL="1045" NAME="T_FileStream_eof" PURGE="0" COMMENT="" />
    <EXPORT ORDINAL="1046" NAME="T_FileStream_error" PURGE="0" COMMENT="" />
    <EXPORT ORDINAL="1047" NAME="T_FileStream_file_exists" PURGE="0" COMMENT="" />
    <EXPORT ORDINAL="1048" NAME="T_FileStream_getc" PURGE="-1" COMMENT="" />
    <EXPORT ORDINAL="1049" NAME="T_FileStream_open" PURGE="0" COMMENT="" />
    <EXPORT ORDINAL="1050" NAME="T_FileStream_peek" PURGE="0" COMMENT="" />
    <EXPORT ORDINAL="1051" NAME="T_FileStream_putc" PURGE="0" COMMENT="" />
    <EXPORT ORDINAL="1052" NAME="T_FileStream_read" PURGE="0" COMMENT="" />
    <EXPORT ORDINAL="1053" NAME="T_FileStream_readLine" PURGE="0" COMMENT="" />
    <EXPORT ORDINAL="1054" NAME="T_FileStream_remove" PURGE="0" COMMENT="" />
    <EXPORT ORDINAL="1055" NAME="T_FileStream_rewind" PURGE="-1" COMMENT="" />
    <EXPORT ORDINAL="1056" NAME="T_FileStream_size" PURGE="0" COMMENT="" />
    <EXPORT ORDINAL="1057" NAME="T_FileStream_stderr" PURGE="0" COMMENT="" />
    <EXPORT ORDINAL="1058" NAME="T_FileStream_stdin" PURGE="0" COMMENT="" />
    <EXPORT ORDINAL="1059" NAME="T_FileStream_stdout" PURGE="0" COMMENT="" />
    <EXPORT ORDINAL="1060" NAME="T_FileStream_ungetc" PURGE="-1" COMMENT="" />
    <EXPORT ORDINAL="1061" NAME="T_FileStream_write" PURGE="0" COMMENT="" />
    <EXPORT ORDINAL="1062" NAME="T_FileStream_writeLine" PURGE="0" COMMENT="" />
    <EXPORT ORDINAL="1063" NAME="agl_u_UCharsToChars" PURGE="0" COMMENT="" />
    <EXPORT ORDINAL="1064" NAME="agl_u_austrcpy" PURGE="0" COMMENT="" />
    <EXPORT ORDINAL="1065" NAME="agl_u_austrncpy" PURGE="0" COMMENT="" />
    <EXPORT ORDINAL="1066" NAME="agl_u_catclose" PURGE="0" COMMENT="" />
    <EXPORT ORDINAL="1067" NAME="agl_u_catgets" PURGE="0" COMMENT="" />
    <EXPORT ORDINAL="1068" NAME="agl_u_catopen" PURGE="0" COMMENT="" />
    <EXPORT ORDINAL="1069" NAME="agl_u_charAge" PURGE="0" COMMENT="" />
    <EXPORT ORDINAL="1070" NAME="agl_u_charDigitValue" PURGE="0" COMMENT="" />
    <EXPORT ORDINAL="1071" NAME="agl_u_charDirection" PURGE="0" COMMENT="" />
    <EXPORT ORDINAL="1072" NAME="agl_u_charFromName" PURGE="0" COMMENT="" />
    <EXPORT ORDINAL="1073" NAME="agl_u_charMirror" PURGE="0" COMMENT="" />
    <EXPORT ORDINAL="1074" NAME="agl_u_charName" PURGE="0" COMMENT="" />
    <EXPORT ORDINAL="1075" NAME="agl_u_charType" PURGE="0" COMMENT="" />
    <EXPORT ORDINAL="1076" NAME="agl_u_charsToUChars" PURGE="0" COMMENT="" />
    <EXPORT ORDINAL="1077" NAME="agl_u_cleanup" PURGE="0" COMMENT="" />
    <EXPORT ORDINAL="1078" NAME="agl_u_countChar32" PURGE="0" COMMENT="" />
    <EXPORT ORDINAL="1079" NAME="agl_u_digit" PURGE="0" COMMENT="" />
    <EXPORT ORDINAL="1080" NAME="agl_u_enumCharNames" PURGE="0" COMMENT="" />
    <EXPORT ORDINAL="1081" NAME="agl_u_enumCharTypes" PURGE="0" COMMENT="" />
    <EXPORT ORDINAL="1082" NAME="agl_u_errorName" PURGE="0" COMMENT="" />
    <EXPORT ORDINAL="1083" NAME="agl_u_foldCase" PURGE="0" COMMENT="" />
    <EXPORT ORDINAL="1084" NAME="agl_u_forDigit" PURGE="0" COMMENT="" />
    <EXPORT ORDINAL="1085" NAME="agl_u_getCombiningClass" PURGE="0" COMMENT="" />
    <EXPORT ORDINAL="1086" NAME="agl_u_getDataDirectory" PURGE="0" COMMENT="" />
    <EXPORT ORDINAL="1087" NAME="agl_u_getFC_NFKC_Closure" PURGE="0" COMMENT="" />
    <EXPORT ORDINAL="1088" NAME="agl_u_getISOComment" PURGE="0" COMMENT="" />
    <EXPORT ORDINAL="1089" NAME="agl_u_getIntPropertyMaxValue" PURGE="0" COMMENT="" />
    <EXPORT ORDINAL="1090" NAME="agl_u_getIntPropertyMinValue" PURGE="0" COMMENT="" />
    <EXPORT ORDINAL="1091" NAME="agl_u_getIntPropertyValue" PURGE="0" COMMENT="" />
    <EXPORT ORDINAL="1092" NAME="agl_u_getNumericValue" PURGE="0" COMMENT="" />
    <EXPORT ORDINAL="1093" NAME="agl_u_getPropertyEnum" PURGE="0" COMMENT="" />
    <EXPORT ORDINAL="1094" NAME="agl_u_getPropertyName" PURGE="0" COMMENT="" />
    <EXPORT ORDINAL="1095" NAME="agl_u_getPropertyValueEnum" PURGE="0" COMMENT="" />
    <EXPORT ORDINAL="1096" NAME="agl_u_getPropertyValueName" PURGE="0" COMMENT="" />
    <EXPORT ORDINAL="1097" NAME="agl_u_getUnicodeVersion" PURGE="0" COMMENT="" />
    <EXPORT ORDINAL="1098" NAME="agl_u_getVersion" PURGE="0" COMMENT="" />
    <EXPORT ORDINAL="1099" NAME="agl_u_hasBinaryProperty" PURGE="0" COMMENT="" />
    <EXPORT ORDINAL="1100" NAME="agl_u_init" PURGE="0" COMMENT="" />
    <EXPORT ORDINAL="1101" NAME="agl_u_isIDIgnorable" PURGE="0" COMMENT="" />
    <EXPORT ORDINAL="1102" NAME="agl_u_isIDPart" PURGE="0" COMMENT="" />
    <EXPORT ORDINAL="1103" NAME="agl_u_isIDStart" PURGE="0" COMMENT="" />
    <EXPORT ORDINAL="1104" NAME="agl_u_isISOControl" PURGE="0" COMMENT="" />
    <EXPORT ORDINAL="1105" NAME="agl_u_isJavaIDPart" PURGE="0" COMMENT="" />
    <EXPORT ORDINAL="1106" NAME="agl_u_isJavaIDStart" PURGE="0" COMMENT="" />
    <EXPORT ORDINAL="1107" NAME="agl_u_isJavaSpaceChar" PURGE="0" COMMENT="" />
    <EXPORT ORDINAL="1108" NAME="agl_u_isMirrored" PURGE="0" COMMENT="" />
    <EXPORT ORDINAL="1109" NAME="agl_u_isUAlphabetic" PURGE="0" COMMENT="" />
    <EXPORT ORDINAL="1110" NAME="agl_u_isULowercase" PURGE="0" COMMENT="" />
    <EXPORT ORDINAL="1111" NAME="agl_u_isUUppercase" PURGE="0" COMMENT="" />
    <EXPORT ORDINAL="1112" NAME="agl_u_isUWhiteSpace" PURGE="0" COMMENT="" />
    <EXPORT ORDINAL="1113" NAME="agl_u_isWhitespace" PURGE="0" COMMENT="" />
    <EXPORT ORDINAL="1114" NAME="agl_u_isalnum" PURGE="0" COMMENT="" />
    <EXPORT ORDINAL="1115" NAME="agl_u_isalpha" PURGE="0" COMMENT="" />
    <EXPORT ORDINAL="1116" NAME="agl_u_isbase" PURGE="0" COMMENT="" />
    <EXPORT ORDINAL="1117" NAME="agl_u_isblank" PURGE="0" COMMENT="" />
    <EXPORT ORDINAL="1118" NAME="agl_u_iscntrl" PURGE="0" COMMENT="" />
    <EXPORT ORDINAL="1119" NAME="agl_u_isdefined" PURGE="0" COMMENT="" />
    <EXPORT ORDINAL="1120" NAME="agl_u_isdigit" PURGE="0" COMMENT="" />
    <EXPORT ORDINAL="1121" NAME="agl_u_isgraph" PURGE="0" COMMENT="" />
    <EXPORT ORDINAL="1122" NAME="agl_u_islower" PURGE="0" COMMENT="" />
    <EXPORT ORDINAL="1123" NAME="agl_u_isprint" PURGE="0" COMMENT="" />
    <EXPORT ORDINAL="1124" NAME="agl_u_ispunct" PURGE="0" COMMENT="" />
    <EXPORT ORDINAL="1125" NAME="agl_u_isspace" PURGE="0" COMMENT="" />
    <EXPORT ORDINAL="1126" NAME="agl_u_istitle" PURGE="0" COMMENT="" />
    <EXPORT ORDINAL="1127" NAME="agl_u_isupper" PURGE="0" COMMENT="" />
    <EXPORT ORDINAL="1128" NAME="agl_u_isxdigit" PURGE="0" COMMENT="" />
    <EXPORT ORDINAL="1129" NAME="agl_u_memcasecmp" PURGE="0" COMMENT="" />
    <EXPORT ORDINAL="1130" NAME="agl_u_memchr" PURGE="0" COMMENT="" />
    <EXPORT ORDINAL="1131" NAME="agl_u_memchr32" PURGE="0" COMMENT="" />
    <EXPORT ORDINAL="1132" NAME="agl_u_memcmp" PURGE="0" COMMENT="" />
    <EXPORT ORDINAL="1133" NAME="agl_u_memcmpCodePointOrder" PURGE="0" COMMENT="" />
    <EXPORT ORDINAL="1134" NAME="agl_u_memcpy" PURGE="0" COMMENT="" />
    <EXPORT ORDINAL="1135" NAME="agl_u_memmove" PURGE="-1" COMMENT="" />
    <EXPORT ORDINAL="1136" NAME="agl_u_memrchr" PURGE="0" COMMENT="" />
    <EXPORT ORDINAL="1137" NAME="agl_u_memrchr32" PURGE="0" COMMENT="" />
    <EXPORT ORDINAL="1138" NAME="agl_u_memset" PURGE="0" COMMENT="" />
    <EXPORT ORDINAL="1139" NAME="agl_u_setAtomicIncDecFunctions" PURGE="0" COMMENT="" />
    <EXPORT ORDINAL="1140" NAME="agl_u_setDataDirectory" PURGE="0" COMMENT="" />
    <EXPORT ORDINAL="1141" NAME="agl_u_setMemoryFunctions" PURGE="0" COMMENT="" />
    <EXPORT ORDINAL="1142" NAME="agl_u_setMutexFunctions" PURGE="0" COMMENT="" />
    <EXPORT ORDINAL="1143" NAME="agl_u_shapeArabic" PURGE="0" COMMENT="" />
    <EXPORT ORDINAL="1144" NAME="agl_u_strCaseCompare" PURGE="0" COMMENT="" />
    <EXPORT ORDINAL="1145" NAME="agl_u_strCompare" PURGE="0" COMMENT="" />
    <EXPORT ORDINAL="1146" NAME="agl_u_strCompareIter" PURGE="0" COMMENT="" />
    <EXPORT ORDINAL="1147" NAME="agl_u_strFindFirst" PURGE="0" COMMENT="" />
    <EXPORT ORDINAL="1148" NAME="agl_u_strFindLast" PURGE="0" COMMENT="" />
    <EXPORT ORDINAL="1149" NAME="agl_u_strFoldCase" PURGE="0" COMMENT="" />
    <EXPORT ORDINAL="1150" NAME="agl_u_strFromUTF32" PURGE="0" COMMENT="" />
    <EXPORT ORDINAL="1151" NAME="agl_u_strFromUTF8" PURGE="0" COMMENT="" />
    <EXPORT ORDINAL="1152" NAME="agl_u_strFromWCS" PURGE="0" COMMENT="" />
    <EXPORT ORDINAL="1153" NAME="agl_u_strHasMoreChar32Than" PURGE="0" COMMENT="" />
    <EXPORT ORDINAL="1154" NAME="agl_u_strToLower" PURGE="0" COMMENT="" />
    <EXPORT ORDINAL="1155" NAME="agl_u_strToTitle" PURGE="0" COMMENT="" />
    <EXPORT ORDINAL="1156" NAME="agl_u_strToUTF32" PURGE="0" COMMENT="" />
    <EXPORT ORDINAL="1157" NAME="agl_u_strToUTF8" PURGE="0" COMMENT="" />
    <EXPORT ORDINAL="1158" NAME="agl_u_strToUpper" PURGE="0" COMMENT="" />
    <EXPORT ORDINAL="1159" NAME="agl_u_strToWCS" PURGE="0" COMMENT="" />
    <EXPORT ORDINAL="1160" NAME="agl_u_strcasecmp" PURGE="0" COMMENT="" />
    <EXPORT ORDINAL="1161" NAME="agl_u_strcat" PURGE="0" COMMENT="" />
    <EXPORT ORDINAL="1162" NAME="agl_u_strchr" PURGE="0" COMMENT="" />
    <EXPORT ORDINAL="1163" NAME="agl_u_strchr32" PURGE="0" COMMENT="" />
    <EXPORT ORDINAL="1164" NAME="agl_u_strcmp" PURGE="0" COMMENT="" />
    <EXPORT ORDINAL="1165" NAME="agl_u_strcmpCodePointOrder" PURGE="0" COMMENT="" />
    <EXPORT ORDINAL="1166" NAME="agl_u_strcpy" PURGE="0" COMMENT="" />
    <EXPORT ORDINAL="1167" NAME="agl_u_strcspn" PURGE="0" COMMENT="" />
    <EXPORT ORDINAL="1168" NAME="agl_u_strlen" PURGE="-1" COMMENT="" />
    <EXPORT ORDINAL="1169" NAME="agl_u_strncasecmp" PURGE="0" COMMENT="" />
    <EXPORT ORDINAL="1170" NAME="agl_u_strncat" PURGE="0" COMMENT="" />
    <EXPORT ORDINAL="1171" NAME="agl_u_strncmp" PURGE="0" COMMENT="" />
    <EXPORT ORDINAL="1172" NAME="agl_u_strncmpCodePointOrder" PURGE="0" COMMENT="" />
    <EXPORT ORDINAL="1173" NAME="agl_u_strncpy" PURGE="0" COMMENT="" />
    <EXPORT ORDINAL="1174" NAME="agl_u_strpbrk" PURGE="0" COMMENT="" />
    <EXPORT ORDINAL="1175" NAME="agl_u_strrchr" PURGE="0" COMMENT="" />
    <EXPORT ORDINAL="1176" NAME="agl_u_strrchr32" PURGE="0" COMMENT="" />
    <EXPORT ORDINAL="1177" NAME="agl_u_strrstr" PURGE="0" COMMENT="" />
    <EXPORT ORDINAL="1178" NAME="agl_u_strspn" PURGE="0" COMMENT="" />
    <EXPORT ORDINAL="1179" NAME="agl_u_strstr" PURGE="0" COMMENT="" />
    <EXPORT ORDINAL="1180" NAME="agl_u_strtok_r" PURGE="0" COMMENT="" />
    <EXPORT ORDINAL="1181" NAME="agl_u_tolower" PURGE="0" COMMENT="" />
    <EXPORT ORDINAL="1182" NAME="agl_u_totitle" PURGE="0" COMMENT="" />
    <EXPORT ORDINAL="1183" NAME="agl_u_toupper" PURGE="0" COMMENT="" />
    <EXPORT ORDINAL="1184" NAME="agl_u_uastrcpy" PURGE="0" COMMENT="" />
    <EXPORT ORDINAL="1185" NAME="agl_u_uastrncpy" PURGE="0" COMMENT="" />
    <EXPORT ORDINAL="1186" NAME="agl_u_unescape" PURGE="0" COMMENT="" />
    <EXPORT ORDINAL="1187" NAME="agl_u_unescapeAt" PURGE="0" COMMENT="" />
    <EXPORT ORDINAL="1188" NAME="agl_u_versionFromString" PURGE="0" COMMENT="" />
    <EXPORT ORDINAL="1189" NAME="agl_u_versionToString" PURGE="0" COMMENT="" />
    <EXPORT ORDINAL="1190" NAME="agl_ubidi_close" PURGE="0" COMMENT="" />
    <EXPORT ORDINAL="1191" NAME="agl_ubidi_countRuns" PURGE="0" COMMENT="" />
    <EXPORT ORDINAL="1192" NAME="agl_ubidi_getDirection" PURGE="0" COMMENT="" />
    <EXPORT ORDINAL="1193" NAME="agl_ubidi_getLength" PURGE="0" COMMENT="" />
    <EXPORT ORDINAL="1194" NAME="agl_ubidi_getLevelAt" PURGE="0" COMMENT="" />
    <EXPORT ORDINAL="1195" NAME="agl_ubidi_getLevels" PURGE="0" COMMENT="" />
    <EXPORT ORDINAL="1196" NAME="agl_ubidi_getLogicalIndex" PURGE="0" COMMENT="" />
    <EXPORT ORDINAL="1197" NAME="agl_ubidi_getLogicalMap" PURGE="0" COMMENT="" />
    <EXPORT ORDINAL="1198" NAME="agl_ubidi_getLogicalRun" PURGE="0" COMMENT="" />
    <EXPORT ORDINAL="1199" NAME="agl_ubidi_getParaLevel" PURGE="0" COMMENT="" />
    <EXPORT ORDINAL="1200" NAME="agl_ubidi_getText" PURGE="0" COMMENT="" />
    <EXPORT ORDINAL="1201" NAME="agl_ubidi_getVisualIndex" PURGE="0" COMMENT="" />
    <EXPORT ORDINAL="1202" NAME="agl_ubidi_getVisualMap" PURGE="0" COMMENT="" />
    <EXPORT ORDINAL="1203" NAME="agl_ubidi_getVisualRun" PURGE="0" COMMENT="" />
    <EXPORT ORDINAL="1204" NAME="agl_ubidi_invertMap" PURGE="0" COMMENT="" />
    <EXPORT ORDINAL="1205" NAME="agl_ubidi_isInverse" PURGE="0" COMMENT="" />
    <EXPORT ORDINAL="1206" NAME="agl_ubidi_open" PURGE="0" COMMENT="" />
    <EXPORT ORDINAL="1207" NAME="agl_ubidi_openSized" PURGE="0" COMMENT="" />
    <EXPORT ORDINAL="1208" NAME="agl_ubidi_reorderLogical" PURGE="0" COMMENT="" />
    <EXPORT ORDINAL="1209" NAME="agl_ubidi_reorderVisual" PURGE="0" COMMENT="" />
    <EXPORT ORDINAL="1210" NAME="agl_ubidi_setInverse" PURGE="0" COMMENT="" />
    <EXPORT ORDINAL="1211" NAME="agl_ubidi_setLine" PURGE="0" COMMENT="" />
    <EXPORT ORDINAL="1212" NAME="agl_ubidi_setPara" PURGE="0" COMMENT="" />
    <EXPORT ORDINAL="1213" NAME="agl_ubidi_writeReordered" PURGE="0" COMMENT="" />
    <EXPORT ORDINAL="1214" NAME="agl_ubidi_writeReverse" PURGE="0" COMMENT="" />
    <EXPORT ORDINAL="1215" NAME="agl_ublock_getCode" PURGE="0" COMMENT="" />
    <EXPORT ORDINAL="1216" NAME="agl_ubrk_close" PURGE="0" COMMENT="" />
    <EXPORT ORDINAL="1217" NAME="agl_ubrk_countAvailable" PURGE="0" COMMENT="" />
    <EXPORT ORDINAL="1218" NAME="agl_ubrk_current" PURGE="-1" COMMENT="" />
    <EXPORT ORDINAL="1219" NAME="agl_ubrk_first" PURGE="-1" COMMENT="" />
    <EXPORT ORDINAL="1220" NAME="agl_ubrk_following" PURGE="0" COMMENT="" />
    <EXPORT ORDINAL="1221" NAME="agl_ubrk_getAvailable" PURGE="0" COMMENT="" />
    <EXPORT ORDINAL="1222" NAME="agl_ubrk_getLocaleByType" PURGE="0" COMMENT="" />
    <EXPORT ORDINAL="1223" NAME="agl_ubrk_getRuleStatus" PURGE="-1" COMMENT="" />
    <EXPORT ORDINAL="1224" NAME="agl_ubrk_isBoundary" PURGE="0" COMMENT="" />
    <EXPORT ORDINAL="1225" NAME="agl_ubrk_last" PURGE="-1" COMMENT="" />
    <EXPORT ORDINAL="1226" NAME="agl_ubrk_next" PURGE="-1" COMMENT="" />
    <EXPORT ORDINAL="1227" NAME="agl_ubrk_open" PURGE="0" COMMENT="" />
    <EXPORT ORDINAL="1228" NAME="agl_ubrk_openRules" PURGE="0" COMMENT="" />
    <EXPORT ORDINAL="1229" NAME="agl_ubrk_preceding" PURGE="0" COMMENT="" />
    <EXPORT ORDINAL="1230" NAME="agl_ubrk_previous" PURGE="-1" COMMENT="" />
    <EXPORT ORDINAL="1231" NAME="agl_ubrk_safeClone" PURGE="0" COMMENT="" />
    <EXPORT ORDINAL="1232" NAME="agl_ubrk_setText" PURGE="0" COMMENT="" />
    <EXPORT ORDINAL="1233" NAME="agl_ucnv_cbFromUWriteBytes" PURGE="0" COMMENT="" />
    <EXPORT ORDINAL="1234" NAME="agl_ucnv_cbFromUWriteSub" PURGE="0" COMMENT="" />
    <EXPORT ORDINAL="1235" NAME="agl_ucnv_cbFromUWriteUChars" PURGE="0" COMMENT="" />
    <EXPORT ORDINAL="1236" NAME="agl_ucnv_cbToUWriteSub" PURGE="0" COMMENT="" />
    <EXPORT ORDINAL="1237" NAME="agl_ucnv_cbToUWriteUChars" PURGE="0" COMMENT="" />
    <EXPORT ORDINAL="1238" NAME="agl_ucnv_close" PURGE="0" COMMENT="" />
    <EXPORT ORDINAL="1239" NAME="agl_ucnv_compareNames" PURGE="0" COMMENT="" />
    <EXPORT ORDINAL="1240" NAME="agl_ucnv_convert" PURGE="0" COMMENT="" />
    <EXPORT ORDINAL="1241" NAME="agl_ucnv_convertEx" PURGE="0" COMMENT="" />
    <EXPORT ORDINAL="1242" NAME="agl_ucnv_countAliases" PURGE="0" COMMENT="" />
    <EXPORT ORDINAL="1243" NAME="agl_ucnv_countAvailable" PURGE="0" COMMENT="" />
    <EXPORT ORDINAL="1244" NAME="agl_ucnv_countStandards" PURGE="0" COMMENT="" />
    <EXPORT ORDINAL="1245" NAME="agl_ucnv_detectUnicodeSignature" PURGE="0" COMMENT="" />
    <EXPORT ORDINAL="1246" NAME="agl_ucnv_fixFileSeparator" PURGE="0" COMMENT="" />
    <EXPORT ORDINAL="1247" NAME="agl_ucnv_flushCache" PURGE="0" COMMENT="" />
    <EXPORT ORDINAL="1248" NAME="agl_ucnv_fromAlgorithmic" PURGE="0" COMMENT="" />
    <EXPORT ORDINAL="1249" NAME="agl_ucnv_fromUChars" PURGE="0" COMMENT="" />
    <EXPORT ORDINAL="1250" NAME="agl_ucnv_fromUnicode" PURGE="0" COMMENT="" />
    <EXPORT ORDINAL="1251" NAME="agl_ucnv_getAlias" PURGE="0" COMMENT="" />
    <EXPORT ORDINAL="1252" NAME="agl_ucnv_getAliases" PURGE="0" COMMENT="" />
    <EXPORT ORDINAL="1253" NAME="agl_ucnv_getAvailableName" PURGE="0" COMMENT="" />
    <EXPORT ORDINAL="1254" NAME="agl_ucnv_getCCSID" PURGE="0" COMMENT="" />
    <EXPORT ORDINAL="1255" NAME="agl_ucnv_getCanonicalName" PURGE="0" COMMENT="" />
    <EXPORT ORDINAL="1256" NAME="agl_ucnv_getDefaultName" PURGE="0" COMMENT="" />
    <EXPORT ORDINAL="1257" NAME="agl_ucnv_getDisplayName" PURGE="0" COMMENT="" />
    <EXPORT ORDINAL="1258" NAME="agl_ucnv_getFromUCallBack" PURGE="0" COMMENT="" />
    <EXPORT ORDINAL="1259" NAME="agl_ucnv_getInvalidChars" PURGE="0" COMMENT="" />
    <EXPORT ORDINAL="1260" NAME="agl_ucnv_getInvalidUChars" PURGE="0" COMMENT="" />
    <EXPORT ORDINAL="1261" NAME="agl_ucnv_getMaxCharSize" PURGE="0" COMMENT="" />
    <EXPORT ORDINAL="1262" NAME="agl_ucnv_getMinCharSize" PURGE="0" COMMENT="" />
    <EXPORT ORDINAL="1263" NAME="agl_ucnv_getName" PURGE="0" COMMENT="" />
    <EXPORT ORDINAL="1264" NAME="agl_ucnv_getNextUChar" PURGE="0" COMMENT="" />
    <EXPORT ORDINAL="1265" NAME="agl_ucnv_getPlatform" PURGE="0" COMMENT="" />
    <EXPORT ORDINAL="1266" NAME="agl_ucnv_getStandard" PURGE="0" COMMENT="" />
    <EXPORT ORDINAL="1267" NAME="agl_ucnv_getStandardName" PURGE="0" COMMENT="" />
    <EXPORT ORDINAL="1268" NAME="agl_ucnv_getStarters" PURGE="0" COMMENT="" />
    <EXPORT ORDINAL="1269" NAME="agl_ucnv_getSubstChars" PURGE="0" COMMENT="" />
    <EXPORT ORDINAL="1270" NAME="agl_ucnv_getToUCallBack" PURGE="0" COMMENT="" />
    <EXPORT ORDINAL="1271" NAME="agl_ucnv_getType" PURGE="0" COMMENT="" />
    <EXPORT ORDINAL="1272" NAME="agl_ucnv_getUnicodeSet" PURGE="0" COMMENT="" />
    <EXPORT ORDINAL="1273" NAME="agl_ucnv_isAmbiguous" PURGE="0" COMMENT="" />
    <EXPORT ORDINAL="1274" NAME="agl_ucnv_mbstowcs" PURGE="0" COMMENT="" />
    <EXPORT ORDINAL="1275" NAME="agl_ucnv_open" PURGE="0" COMMENT="" />
    <EXPORT ORDINAL="1276" NAME="agl_ucnv_openAllNames" PURGE="0" COMMENT="" />
    <EXPORT ORDINAL="1277" NAME="agl_ucnv_openCCSID" PURGE="0" COMMENT="" />
    <EXPORT ORDINAL="1278" NAME="agl_ucnv_openPackage" PURGE="0" COMMENT="" />
    <EXPORT ORDINAL="1279" NAME="agl_ucnv_openStandardNames" PURGE="0" COMMENT="" />
    <EXPORT ORDINAL="1280" NAME="agl_ucnv_openU" PURGE="0" COMMENT="" />
    <EXPORT ORDINAL="1281" NAME="agl_ucnv_reset" PURGE="0" COMMENT="" />
    <EXPORT ORDINAL="1282" NAME="agl_ucnv_resetFromUnicode" PURGE="0" COMMENT="" />
    <EXPORT ORDINAL="1283" NAME="agl_ucnv_resetToUnicode" PURGE="0" COMMENT="" />
    <EXPORT ORDINAL="1284" NAME="agl_ucnv_safeClone" PURGE="0" COMMENT="" />
    <EXPORT ORDINAL="1285" NAME="agl_ucnv_setDefaultName" PURGE="0" COMMENT="" />
    <EXPORT ORDINAL="1286" NAME="agl_ucnv_setFallback" PURGE="0" COMMENT="" />
    <EXPORT ORDINAL="1287" NAME="agl_ucnv_setFromUCallBack" PURGE="0" COMMENT="" />
    <EXPORT ORDINAL="1288" NAME="agl_ucnv_setSubstChars" PURGE="0" COMMENT="" />
    <EXPORT ORDINAL="1289" NAME="agl_ucnv_setToUCallBack" PURGE="0" COMMENT="" />
    <EXPORT ORDINAL="1290" NAME="agl_ucnv_toAlgorithmic" PURGE="0" COMMENT="" />
    <EXPORT ORDINAL="1291" NAME="agl_ucnv_toUChars" PURGE="0" COMMENT="" />
    <EXPORT ORDINAL="1292" NAME="agl_ucnv_toUnicode" PURGE="0" COMMENT="" />
    <EXPORT ORDINAL="1293" NAME="agl_ucnv_usesFallback" PURGE="0" COMMENT="" />
    <EXPORT ORDINAL="1294" NAME="agl_ucnv_wcstombs" PURGE="0" COMMENT="" />
    <EXPORT ORDINAL="1295" NAME="agl_udata_close" PURGE="0" COMMENT="" />
    <EXPORT ORDINAL="1296" NAME="agl_udata_getInfo" PURGE="0" COMMENT="" />
    <EXPORT ORDINAL="1297" NAME="agl_udata_getMemory" PURGE="0" COMMENT="" />
    <EXPORT ORDINAL="1298" NAME="agl_udata_open" PURGE="0" COMMENT="" />
    <EXPORT ORDINAL="1299" NAME="agl_udata_openChoice" PURGE="0" COMMENT="" />
    <EXPORT ORDINAL="1300" NAME="agl_udata_setAppData" PURGE="0" COMMENT="" />
    <EXPORT ORDINAL="1301" NAME="agl_udata_setCommonData" PURGE="0" COMMENT="" />
    <EXPORT ORDINAL="1302" NAME="agl_uenum_close" PURGE="0" COMMENT="" />
    <EXPORT ORDINAL="1303" NAME="agl_uenum_count" PURGE="0" COMMENT="" />
    <EXPORT ORDINAL="1304" NAME="agl_uenum_next" PURGE="0" COMMENT="" />
    <EXPORT ORDINAL="1305" NAME="agl_uenum_reset" PURGE="0" COMMENT="" />
    <EXPORT ORDINAL="1306" NAME="agl_uenum_unext" PURGE="0" COMMENT="" />
    <EXPORT ORDINAL="1307" NAME="agl_uidna_IDNToASCII" PURGE="0" COMMENT="" />
    <EXPORT ORDINAL="1308" NAME="agl_uidna_IDNToUnicode" PURGE="0" COMMENT="" />
    <EXPORT ORDINAL="1309" NAME="agl_uidna_compare" PURGE="0" COMMENT="" />
    <EXPORT ORDINAL="1310" NAME="agl_uidna_toASCII" PURGE="0" COMMENT="" />
    <EXPORT ORDINAL="1311" NAME="agl_uidna_toUnicode" PURGE="0" COMMENT="" />
    <EXPORT ORDINAL="1312" NAME="agl_uiter_current32" PURGE="0" COMMENT="" />
    <EXPORT ORDINAL="1313" NAME="agl_uiter_getState" PURGE="0" COMMENT="" />
    <EXPORT ORDINAL="1314" NAME="agl_uiter_next32" PURGE="0" COMMENT="" />
    <EXPORT ORDINAL="1315" NAME="agl_uiter_previous32" PURGE="0" COMMENT="" />
    <EXPORT ORDINAL="1316" NAME="agl_uiter_setCharacterIterator" PURGE="0" COMMENT="" />
    <EXPORT ORDINAL="1317" NAME="agl_uiter_setReplaceable" PURGE="0" COMMENT="" />
    <EXPORT ORDINAL="1318" NAME="agl_uiter_setState" PURGE="0" COMMENT="" />
    <EXPORT ORDINAL="1319" NAME="agl_uiter_setString" PURGE="0" COMMENT="" />
    <EXPORT ORDINAL="1320" NAME="agl_uiter_setUTF16BE" PURGE="0" COMMENT="" />
    <EXPORT ORDINAL="1321" NAME="agl_uiter_setUTF8" PURGE="0" COMMENT="" />
    <EXPORT ORDINAL="1322" NAME="agl_uloc_canonicalize" PURGE="0" COMMENT="" />
    <EXPORT ORDINAL="1323" NAME="agl_uloc_countAvailable" PURGE="0" COMMENT="" />
    <EXPORT ORDINAL="1324" NAME="agl_uloc_getAvailable" PURGE="0" COMMENT="" />
    <EXPORT ORDINAL="1325" NAME="agl_uloc_getBaseName" PURGE="0" COMMENT="" />
    <EXPORT ORDINAL="1326" NAME="agl_uloc_getCountry" PURGE="0" COMMENT="" />
    <EXPORT ORDINAL="1327" NAME="agl_uloc_getDefault" PURGE="0" COMMENT="" />
    <EXPORT ORDINAL="1328" NAME="agl_uloc_getDisplayCountry" PURGE="0" COMMENT="" />
    <EXPORT ORDINAL="1329" NAME="agl_uloc_getDisplayKeyword" PURGE="0" COMMENT="" />
    <EXPORT ORDINAL="1330" NAME="agl_uloc_getDisplayKeywordValue" PURGE="0" COMMENT="" />
    <EXPORT ORDINAL="1331" NAME="agl_uloc_getDisplayLanguage" PURGE="0" COMMENT="" />
    <EXPORT ORDINAL="1332" NAME="agl_uloc_getDisplayName" PURGE="0" COMMENT="" />
    <EXPORT ORDINAL="1333" NAME="agl_uloc_getDisplayScript" PURGE="0" COMMENT="" />
    <EXPORT ORDINAL="1334" NAME="agl_uloc_getDisplayVariant" PURGE="0" COMMENT="" />
    <EXPORT ORDINAL="1335" NAME="agl_uloc_getISO3Country" PURGE="0" COMMENT="" />
    <EXPORT ORDINAL="1336" NAME="agl_uloc_getISO3Language" PURGE="0" COMMENT="" />
    <EXPORT ORDINAL="1337" NAME="agl_uloc_getISOCountries" PURGE="0" COMMENT="" />
    <EXPORT ORDINAL="1338" NAME="agl_uloc_getISOLanguages" PURGE="0" COMMENT="" />
    <EXPORT ORDINAL="1339" NAME="agl_uloc_getKeywordValue" PURGE="0" COMMENT="" />
    <EXPORT ORDINAL="1340" NAME="agl_uloc_getLCID" PURGE="0" COMMENT="" />
    <EXPORT ORDINAL="1341" NAME="agl_uloc_getLanguage" PURGE="0" COMMENT="" />
    <EXPORT ORDINAL="1342" NAME="agl_uloc_getName" PURGE="0" COMMENT="" />
    <EXPORT ORDINAL="1343" NAME="agl_uloc_getParent" PURGE="0" COMMENT="" />
    <EXPORT ORDINAL="1344" NAME="agl_uloc_getScript" PURGE="0" COMMENT="" />
    <EXPORT ORDINAL="1345" NAME="agl_uloc_getVariant" PURGE="0" COMMENT="" />
    <EXPORT ORDINAL="1346" NAME="agl_uloc_openKeywords" PURGE="0" COMMENT="" />
    <EXPORT ORDINAL="1347" NAME="agl_uloc_setDefault" PURGE="0" COMMENT="" />
    <EXPORT ORDINAL="1348" NAME="agl_unorm_compare" PURGE="0" COMMENT="" />
    <EXPORT ORDINAL="1349" NAME="agl_unorm_concatenate" PURGE="0" COMMENT="" />
    <EXPORT ORDINAL="1350" NAME="agl_unorm_isNormalized" PURGE="0" COMMENT="" />
    <EXPORT ORDINAL="1351" NAME="agl_unorm_isNormalizedWithOptions" PURGE="0" COMMENT="" />
    <EXPORT ORDINAL="1352" NAME="agl_unorm_next" PURGE="0" COMMENT="" />
    <EXPORT ORDINAL="1353" NAME="agl_unorm_normalize" PURGE="0" COMMENT="" />
    <EXPORT ORDINAL="1354" NAME="agl_unorm_previous" PURGE="0" COMMENT="" />
    <EXPORT ORDINAL="1355" NAME="agl_unorm_quickCheck" PURGE="0" COMMENT="" />
    <EXPORT ORDINAL="1356" NAME="agl_unorm_quickCheckWithOptions" PURGE="0" COMMENT="" />
    <EXPORT ORDINAL="1357" NAME="agl_uprv_ceil" PURGE="0" COMMENT="" />
    <EXPORT ORDINAL="1358" NAME="agl_uprv_digitsAfterDecimal" PURGE="0" COMMENT="" />
    <EXPORT ORDINAL="1359" NAME="agl_uprv_fabs" PURGE="0" COMMENT="" />
    <EXPORT ORDINAL="1360" NAME="agl_uprv_floor" PURGE="0" COMMENT="" />
    <EXPORT ORDINAL="1361" NAME="agl_uprv_fmax" PURGE="0" COMMENT="" />
    <EXPORT ORDINAL="1362" NAME="agl_uprv_fmin" PURGE="0" COMMENT="" />
    <EXPORT ORDINAL="1363" NAME="agl_uprv_fmod" PURGE="0" COMMENT="" />
    <EXPORT ORDINAL="1364" NAME="agl_uprv_getDefaultCodepage" PURGE="0" COMMENT="" />
    <EXPORT ORDINAL="1365" NAME="agl_uprv_getDefaultLocaleID" PURGE="0" COMMENT="" />
    <EXPORT ORDINAL="1366" NAME="agl_uprv_getInfinity" PURGE="0" COMMENT="" />
    <EXPORT ORDINAL="1367" NAME="agl_uprv_getNaN" PURGE="0" COMMENT="" />
    <EXPORT ORDINAL="1368" NAME="agl_uprv_getUTCtime" PURGE="0" COMMENT="" />
    <EXPORT ORDINAL="1369" NAME="agl_uprv_isInfinite" PURGE="0" COMMENT="" />
    <EXPORT ORDINAL="1370" NAME="agl_uprv_isInvariantString" PURGE="0" COMMENT="" />
    <EXPORT ORDINAL="1371" NAME="agl_uprv_isInvariantUString" PURGE="0" COMMENT="" />
    <EXPORT ORDINAL="1372" NAME="agl_uprv_isNaN" PURGE="0" COMMENT="" />
    <EXPORT ORDINAL="1373" NAME="agl_uprv_isNegativeInfinity" PURGE="0" COMMENT="" />
    <EXPORT ORDINAL="1374" NAME="agl_uprv_isPositiveInfinity" PURGE="0" COMMENT="" />
    <EXPORT ORDINAL="1375" NAME="agl_uprv_log" PURGE="0" COMMENT="" />
    <EXPORT ORDINAL="1376" NAME="agl_uprv_log10" PURGE="0" COMMENT="" />
    <EXPORT ORDINAL="1377" NAME="agl_uprv_max" PURGE="0" COMMENT="" />
    <EXPORT ORDINAL="1378" NAME="agl_uprv_maxMantissa" PURGE="0" COMMENT="" />
    <EXPORT ORDINAL="1379" NAME="agl_uprv_min" PURGE="0" COMMENT="" />
    <EXPORT ORDINAL="1380" NAME="agl_uprv_modf" PURGE="0" COMMENT="" />
    <EXPORT ORDINAL="1381" NAME="agl_uprv_pow" PURGE="0" COMMENT="" />
    <EXPORT ORDINAL="1382" NAME="agl_uprv_pow10" PURGE="0" COMMENT="" />
    <EXPORT ORDINAL="1383" NAME="agl_uprv_round" PURGE="0" COMMENT="" />
    <EXPORT ORDINAL="1384" NAME="agl_uprv_timezone" PURGE="0" COMMENT="" />
    <EXPORT ORDINAL="1385" NAME="agl_uprv_trunc" PURGE="0" COMMENT="" />
    <EXPORT ORDINAL="1386" NAME="agl_uprv_tzname" PURGE="0" COMMENT="" />
    <EXPORT ORDINAL="1387" NAME="agl_uprv_tzset" PURGE="-1" COMMENT="" />
    <EXPORT ORDINAL="1388" NAME="agl_ures_close" PURGE="0" COMMENT="" />
    <EXPORT ORDINAL="1389" NAME="agl_ures_countArrayItems" PURGE="0" COMMENT="" />
    <EXPORT ORDINAL="1390" NAME="agl_ures_getBinary" PURGE="0" COMMENT="" />
    <EXPORT ORDINAL="1391" NAME="agl_ures_getByIndex" PURGE="0" COMMENT="" />
    <EXPORT ORDINAL="1392" NAME="agl_ures_getByKey" PURGE="0" COMMENT="" />
    <EXPORT ORDINAL="1393" NAME="agl_ures_getInt" PURGE="0" COMMENT="" />
    <EXPORT ORDINAL="1394" NAME="agl_ures_getIntVector" PURGE="0" COMMENT="" />
    <EXPORT ORDINAL="1395" NAME="agl_ures_getKey" PURGE="0" COMMENT="" />
    <EXPORT ORDINAL="1396" NAME="agl_ures_getLocale" PURGE="0" COMMENT="" />
    <EXPORT ORDINAL="1397" NAME="agl_ures_getLocaleByType" PURGE="0" COMMENT="" />
    <EXPORT ORDINAL="1398" NAME="agl_ures_getNextResource" PURGE="0" COMMENT="" />
    <EXPORT ORDINAL="1399" NAME="agl_ures_getNextString" PURGE="0" COMMENT="" />
    <EXPORT ORDINAL="1400" NAME="agl_ures_getSize" PURGE="0" COMMENT="" />
    <EXPORT ORDINAL="1401" NAME="agl_ures_getString" PURGE="0" COMMENT="" />
    <EXPORT ORDINAL="1402" NAME="agl_ures_getStringByIndex" PURGE="0" COMMENT="" />
    <EXPORT ORDINAL="1403" NAME="agl_ures_getStringByKey" PURGE="0" COMMENT="" />
    <EXPORT ORDINAL="1404" NAME="agl_ures_getType" PURGE="0" COMMENT="" />
    <EXPORT ORDINAL="1405" NAME="agl_ures_getUInt" PURGE="0" COMMENT="" />
    <EXPORT ORDINAL="1406" NAME="agl_ures_getVersion" PURGE="0" COMMENT="" />
    <EXPORT ORDINAL="1407" NAME="agl_ures_getVersionNumber" PURGE="0" COMMENT="" />
    <EXPORT ORDINAL="1408" NAME="agl_ures_hasNext" PURGE="0" COMMENT="" />
    <EXPORT ORDINAL="1409" NAME="agl_ures_open" PURGE="0" COMMENT="" />
    <EXPORT ORDINAL="1410" NAME="agl_ures_openDirect" PURGE="0" COMMENT="" />
    <EXPORT ORDINAL="1411" NAME="agl_ures_openFillIn" PURGE="0" COMMENT="" />
    <EXPORT ORDINAL="1412" NAME="agl_ures_openU" PURGE="0" COMMENT="" />
    <EXPORT ORDINAL="1413" NAME="agl_ures_resetIterator" PURGE="0" COMMENT="" />
    <EXPORT ORDINAL="1414" NAME="agl_uscript_getCode" PURGE="0" COMMENT="" />
    <EXPORT ORDINAL="1415" NAME="agl_uscript_getName" PURGE="0" COMMENT="" />
    <EXPORT ORDINAL="1416" NAME="agl_uscript_getScript" PURGE="0" COMMENT="" />
    <EXPORT ORDINAL="1417" NAME="agl_uscript_getShortName" PURGE="0" COMMENT="" />
    <EXPORT ORDINAL="1418" NAME="agl_uset_add" PURGE="0" COMMENT="" />
    <EXPORT ORDINAL="1419" NAME="agl_uset_addAll" PURGE="0" COMMENT="" />
    <EXPORT ORDINAL="1420" NAME="agl_uset_addRange" PURGE="0" COMMENT="" />
    <EXPORT ORDINAL="1421" NAME="agl_uset_addString" PURGE="0" COMMENT="" />
    <EXPORT ORDINAL="1422" NAME="agl_uset_applyPattern" PURGE="0" COMMENT="" />
    <EXPORT ORDINAL="1423" NAME="agl_uset_clear" PURGE="-1" COMMENT="" />
    <EXPORT ORDINAL="1424" NAME="agl_uset_close" PURGE="0" COMMENT="" />
    <EXPORT ORDINAL="1425" NAME="agl_uset_complement" PURGE="-1" COMMENT="" />
    <EXPORT ORDINAL="1426" NAME="agl_uset_contains" PURGE="0" COMMENT="" />
    <EXPORT ORDINAL="1427" NAME="agl_uset_containsRange" PURGE="0" COMMENT="" />
    <EXPORT ORDINAL="1428" NAME="agl_uset_containsString" PURGE="0" COMMENT="" />
    <EXPORT ORDINAL="1429" NAME="agl_uset_getItem" PURGE="0" COMMENT="" />
    <EXPORT ORDINAL="1430" NAME="agl_uset_getItemCount" PURGE="0" COMMENT="" />
    <EXPORT ORDINAL="1431" NAME="agl_uset_getSerializedRange" PURGE="0" COMMENT="" />
    <EXPORT ORDINAL="1432" NAME="agl_uset_getSerializedRangeCount" PURGE="0" COMMENT="" />
    <EXPORT ORDINAL="1433" NAME="agl_uset_getSerializedSet" PURGE="0" COMMENT="" />
    <EXPORT ORDINAL="1434" NAME="agl_uset_isEmpty" PURGE="-1" COMMENT="" />
    <EXPORT ORDINAL="1435" NAME="agl_uset_open" PURGE="0" COMMENT="" />
    <EXPORT ORDINAL="1436" NAME="agl_uset_openPattern" PURGE="0" COMMENT="" />
    <EXPORT ORDINAL="1437" NAME="agl_uset_openPatternOptions" PURGE="0" COMMENT="" />
    <EXPORT ORDINAL="1438" NAME="agl_uset_remove" PURGE="0" COMMENT="" />
    <EXPORT ORDINAL="1439" NAME="agl_uset_removeRange" PURGE="0" COMMENT="" />
    <EXPORT ORDINAL="1440" NAME="agl_uset_removeString" PURGE="0" COMMENT="" />
    <EXPORT ORDINAL="1441" NAME="agl_uset_serialize" PURGE="0" COMMENT="" />
    <EXPORT ORDINAL="1442" NAME="agl_uset_serializedContains" PURGE="0" COMMENT="" />
    <EXPORT ORDINAL="1443" NAME="agl_uset_setSerializedToOne" PURGE="0" COMMENT="" />
    <EXPORT ORDINAL="1444" NAME="agl_uset_size" PURGE="-1" COMMENT="" />
    <EXPORT ORDINAL="1445" NAME="agl_uset_toPattern" PURGE="0" COMMENT="" />
    <EXPORT ORDINAL="1446" NAME="agl_usprep_close" PURGE="0" COMMENT="" />
    <EXPORT ORDINAL="1447" NAME="agl_usprep_open" PURGE="0" COMMENT="" />
    <EXPORT ORDINAL="1448" NAME="agl_usprep_prepare" PURGE="0" COMMENT="" />
    <EXPORT ORDINAL="1449" NAME="agl_utf8_appendCharSafeBody" PURGE="0" COMMENT="" />
    <EXPORT ORDINAL="1450" NAME="agl_utf8_back1SafeBody" PURGE="0" COMMENT="" />
    <EXPORT ORDINAL="1451" NAME="agl_utf8_countTrailBytes" PURGE="-1" COMMENT="" />
    <EXPORT ORDINAL="1452" NAME="agl_utf8_nextCharSafeBody" PURGE="0" COMMENT="" />
    <EXPORT ORDINAL="1453" NAME="agl_utf8_prevCharSafeBody" PURGE="0" COMMENT="" />
    <EXPORT ORDINAL="1454" NAME="agl_utrace_format" PURGE="0" COMMENT="" />
    <EXPORT ORDINAL="1455" NAME="agl_utrace_functionName" PURGE="0" COMMENT="" />
    <EXPORT ORDINAL="1456" NAME="agl_utrace_getFunctions" PURGE="0" COMMENT="" />
    <EXPORT ORDINAL="1457" NAME="agl_utrace_getLevel" PURGE="0" COMMENT="" />
    <EXPORT ORDINAL="1458" NAME="agl_utrace_setFunctions" PURGE="0" COMMENT="" />
    <EXPORT ORDINAL="1459" NAME="agl_utrace_setLevel" PURGE="0" COMMENT="" />
    <EXPORT ORDINAL="1460" NAME="agl_utrace_vformat" PURGE="0" COMMENT="" />
    <EXPORT ORDINAL="1461" NAME="u_getDefaultConverter" PURGE="0" COMMENT="" />
    <EXPORT ORDINAL="1462" NAME="u_growBufferFromStatic" PURGE="0" COMMENT="" />
    <EXPORT ORDINAL="1463" NAME="u_internalFoldCase" PURGE="0" COMMENT="" />
    <EXPORT ORDINAL="1464" NAME="u_internalToLower" PURGE="0" COMMENT="" />
    <EXPORT ORDINAL="1465" NAME="u_internalToTitle" PURGE="0" COMMENT="" />
    <EXPORT ORDINAL="1466" NAME="u_internalToUpper" PURGE="0" COMMENT="" />
    <EXPORT ORDINAL="1467" NAME="u_releaseDefaultConverter" PURGE="0" COMMENT="" />
    <EXPORT ORDINAL="1468" NAME="u_terminateChars" PURGE="0" COMMENT="" />
    <EXPORT ORDINAL="1469" NAME="u_terminateUChar32s" PURGE="0" COMMENT="" />
    <EXPORT ORDINAL="1470" NAME="u_terminateUChars" PURGE="0" COMMENT="" />
    <EXPORT ORDINAL="1471" NAME="u_terminateWChars" PURGE="0" COMMENT="" />
    <EXPORT ORDINAL="1472" NAME="ubrk_swap" PURGE="0" COMMENT="" />
    <EXPORT ORDINAL="1473" NAME="uchar_addPropertyStarts" PURGE="0" COMMENT="" />
    <EXPORT ORDINAL="1474" NAME="uchar_swapNames" PURGE="0" COMMENT="" />
    <EXPORT ORDINAL="1475" NAME="ucln_registerCleanup" PURGE="0" COMMENT="" />
    <EXPORT ORDINAL="1476" NAME="ucmp8_close" PURGE="0" COMMENT="" />
    <EXPORT ORDINAL="1477" NAME="ucmp8_compact" PURGE="0" COMMENT="" />
    <EXPORT ORDINAL="1478" NAME="ucmp8_expand" PURGE="0" COMMENT="" />
    <EXPORT ORDINAL="1479" NAME="ucmp8_flattenMem" PURGE="0" COMMENT="" />
    <EXPORT ORDINAL="1480" NAME="ucmp8_getArray" PURGE="0" COMMENT="" />
    <EXPORT ORDINAL="1481" NAME="ucmp8_getCount" PURGE="0" COMMENT="" />
    <EXPORT ORDINAL="1482" NAME="ucmp8_getIndex" PURGE="0" COMMENT="" />
    <EXPORT ORDINAL="1483" NAME="ucmp8_getkBlockCount" PURGE="0" COMMENT="" />
    <EXPORT ORDINAL="1484" NAME="ucmp8_getkUnicodeCount" PURGE="0" COMMENT="" />
    <EXPORT ORDINAL="1485" NAME="ucmp8_init" PURGE="0" COMMENT="" />
    <EXPORT ORDINAL="1486" NAME="ucmp8_initAdopt" PURGE="0" COMMENT="" />
    <EXPORT ORDINAL="1487" NAME="ucmp8_initAlias" PURGE="0" COMMENT="" />
    <EXPORT ORDINAL="1488" NAME="ucmp8_initBogus" PURGE="0" COMMENT="" />
    <EXPORT ORDINAL="1489" NAME="ucmp8_initFromData" PURGE="0" COMMENT="" />
    <EXPORT ORDINAL="1490" NAME="ucmp8_isBogus" PURGE="0" COMMENT="" />
    <EXPORT ORDINAL="1491" NAME="ucmp8_open" PURGE="0" COMMENT="" />
    <EXPORT ORDINAL="1492" NAME="ucmp8_openAdopt" PURGE="0" COMMENT="" />
    <EXPORT ORDINAL="1493" NAME="ucmp8_openAlias" PURGE="0" COMMENT="" />
    <EXPORT ORDINAL="1494" NAME="ucmp8_set" PURGE="0" COMMENT="" />
    <EXPORT ORDINAL="1495" NAME="ucmp8_setRange" PURGE="0" COMMENT="" />
    <EXPORT ORDINAL="1496" NAME="ucnv_swap" PURGE="0" COMMENT="" />
    <EXPORT ORDINAL="1497" NAME="ucnv_swapAliases" PURGE="0" COMMENT="" />
    <EXPORT ORDINAL="1498" NAME="ucol_swap" PURGE="0" COMMENT="" />
    <EXPORT ORDINAL="1499" NAME="ucol_swapBinary" PURGE="0" COMMENT="" />
    <EXPORT ORDINAL="1500" NAME="ucol_swapInverseUCA" PURGE="0" COMMENT="" />
    <EXPORT ORDINAL="1501" NAME="udata_closeSwapper" PURGE="0" COMMENT="" />
    <EXPORT ORDINAL="1502" NAME="udata_getLength" PURGE="0" COMMENT="" />
    <EXPORT ORDINAL="1503" NAME="udata_getRawMemory" PURGE="0" COMMENT="" />
    <EXPORT ORDINAL="1504" NAME="udata_openSwapper" PURGE="0" COMMENT="" />
    <EXPORT ORDINAL="1505" NAME="udata_openSwapperForInputData" PURGE="0" COMMENT="" />
    <EXPORT ORDINAL="1506" NAME="udata_printError" PURGE="0" COMMENT="" />
    <EXPORT ORDINAL="1507" NAME="udata_readInt16" PURGE="0" COMMENT="" />
    <EXPORT ORDINAL="1508" NAME="udata_readInt32" PURGE="0" COMMENT="" />
    <EXPORT ORDINAL="1509" NAME="udata_swapDataHeader" PURGE="0" COMMENT="" />
    <EXPORT ORDINAL="1510" NAME="udata_swapInvStringBlock" PURGE="0" COMMENT="" />
    <EXPORT ORDINAL="1511" NAME="uenum_nextDefault" PURGE="0" COMMENT="" />
    <EXPORT ORDINAL="1512" NAME="uenum_openStringEnumeration" PURGE="0" COMMENT="" />
    <EXPORT ORDINAL="1513" NAME="uenum_unextDefault" PURGE="0" COMMENT="" />
    <EXPORT ORDINAL="1514" NAME="uhash_close" PURGE="0" COMMENT="" />
    <EXPORT ORDINAL="1515" NAME="uhash_compareCaselessUnicodeString" PURGE="0" COMMENT="" />
    <EXPORT ORDINAL="1516" NAME="uhash_compareChars" PURGE="0" COMMENT="" />
    <EXPORT ORDINAL="1517" NAME="uhash_compareIChars" PURGE="0" COMMENT="" />
    <EXPORT ORDINAL="1518" NAME="uhash_compareLong" PURGE="0" COMMENT="" />
    <EXPORT ORDINAL="1519" NAME="uhash_compareUChars" PURGE="0" COMMENT="" />
    <EXPORT ORDINAL="1520" NAME="uhash_compareUnicodeString" PURGE="0" COMMENT="" />
    <EXPORT ORDINAL="1521" NAME="uhash_count" PURGE="0" COMMENT="" />
    <EXPORT ORDINAL="1522" NAME="uhash_deleteHashtable" PURGE="0" COMMENT="" />
    <EXPORT ORDINAL="1523" NAME="uhash_deleteUVector" PURGE="0" COMMENT="" />
    <EXPORT ORDINAL="1524" NAME="uhash_deleteUnicodeString" PURGE="0" COMMENT="" />
    <EXPORT ORDINAL="1525" NAME="uhash_find" PURGE="0" COMMENT="" />
    <EXPORT ORDINAL="1526" NAME="uhash_freeBlock" PURGE="0" COMMENT="" />
    <EXPORT ORDINAL="1527" NAME="uhash_get" PURGE="0" COMMENT="" />
    <EXPORT ORDINAL="1528" NAME="uhash_geti" PURGE="0" COMMENT="" />
    <EXPORT ORDINAL="1529" NAME="uhash_hashCaselessUnicodeString" PURGE="0" COMMENT="" />
    <EXPORT ORDINAL="1530" NAME="uhash_hashChars" PURGE="0" COMMENT="" />
    <EXPORT ORDINAL="1531" NAME="uhash_hashIChars" PURGE="0" COMMENT="" />
    <EXPORT ORDINAL="1532" NAME="uhash_hashLong" PURGE="0" COMMENT="" />
    <EXPORT ORDINAL="1533" NAME="uhash_hashUChars" PURGE="0" COMMENT="" />
    <EXPORT ORDINAL="1534" NAME="uhash_hashUCharsN" PURGE="0" COMMENT="" />
    <EXPORT ORDINAL="1535" NAME="uhash_hashUnicodeString" PURGE="0" COMMENT="" />
    <EXPORT ORDINAL="1536" NAME="uhash_iget" PURGE="0" COMMENT="" />
    <EXPORT ORDINAL="1537" NAME="uhash_igeti" PURGE="0" COMMENT="" />
    <EXPORT ORDINAL="1538" NAME="uhash_iput" PURGE="0" COMMENT="" />
    <EXPORT ORDINAL="1539" NAME="uhash_iputi" PURGE="0" COMMENT="" />
    <EXPORT ORDINAL="1540" NAME="uhash_iremove" PURGE="0" COMMENT="" />
    <EXPORT ORDINAL="1541" NAME="uhash_nextElement" PURGE="0" COMMENT="" />
    <EXPORT ORDINAL="1542" NAME="uhash_open" PURGE="0" COMMENT="" />
    <EXPORT ORDINAL="1543" NAME="uhash_openSize" PURGE="0" COMMENT="" />
    <EXPORT ORDINAL="1544" NAME="uhash_put" PURGE="0" COMMENT="" />
    <EXPORT ORDINAL="1545" NAME="uhash_puti" PURGE="0" COMMENT="" />
    <EXPORT ORDINAL="1546" NAME="uhash_remove" PURGE="0" COMMENT="" />
    <EXPORT ORDINAL="1547" NAME="uhash_removeAll" PURGE="0" COMMENT="" />
    <EXPORT ORDINAL="1548" NAME="uhash_removeElement" PURGE="0" COMMENT="" />
    <EXPORT ORDINAL="1549" NAME="uhash_removei" PURGE="0" COMMENT="" />
    <EXPORT ORDINAL="1550" NAME="uhash_setKeyComparator" PURGE="0" COMMENT="" />
    <EXPORT ORDINAL="1551" NAME="uhash_setKeyDeleter" PURGE="0" COMMENT="" />
    <EXPORT ORDINAL="1552" NAME="uhash_setKeyHasher" PURGE="0" COMMENT="" />
    <EXPORT ORDINAL="1553" NAME="uhash_setResizePolicy" PURGE="0" COMMENT="" />
    <EXPORT ORDINAL="1554" NAME="uhash_setValueDeleter" PURGE="0" COMMENT="" />
    <EXPORT ORDINAL="1555" NAME="uhash_toki" PURGE="0" COMMENT="" />
    <EXPORT ORDINAL="1556" NAME="uhash_tokp" PURGE="0" COMMENT="" />
    <EXPORT ORDINAL="1557" NAME="umtx_atomic_dec" PURGE="0" COMMENT="" />
    <EXPORT ORDINAL="1558" NAME="umtx_atomic_inc" PURGE="0" COMMENT="" />
    <EXPORT ORDINAL="1559" NAME="umtx_destroy" PURGE="0" COMMENT="" />
    <EXPORT ORDINAL="1560" NAME="umtx_init" PURGE="0" COMMENT="" />
    <EXPORT ORDINAL="1561" NAME="umtx_lock" PURGE="0" COMMENT="" />
    <EXPORT ORDINAL="1562" NAME="umtx_unlock" PURGE="0" COMMENT="" />
    <EXPORT ORDINAL="1563" NAME="unorm_addPropertyStarts" PURGE="0" COMMENT="" />
    <EXPORT ORDINAL="1564" NAME="unorm_closeIter" PURGE="0" COMMENT="" />
    <EXPORT ORDINAL="1565" NAME="unorm_cmpEquivFold" PURGE="0" COMMENT="" />
    <EXPORT ORDINAL="1566" NAME="unorm_compose" PURGE="0" COMMENT="" />
    <EXPORT ORDINAL="1567" NAME="unorm_decompose" PURGE="0" COMMENT="" />
    <EXPORT ORDINAL="1568" NAME="unorm_getCanonStartSet" PURGE="0" COMMENT="" />
    <EXPORT ORDINAL="1569" NAME="unorm_getDecomposition" PURGE="0" COMMENT="" />
    <EXPORT ORDINAL="1570" NAME="unorm_getFCDTrie" PURGE="0" COMMENT="" />
    <EXPORT ORDINAL="1571" NAME="unorm_haveData" PURGE="0" COMMENT="" />
    <EXPORT ORDINAL="1572" NAME="unorm_internalIsFullCompositionExclusion" PURGE="0" COMMENT="" />
    <EXPORT ORDINAL="1573" NAME="unorm_internalNormalize" PURGE="0" COMMENT="" />
    <EXPORT ORDINAL="1574" NAME="unorm_isCanonSafeStart" PURGE="0" COMMENT="" />
    <EXPORT ORDINAL="1575" NAME="unorm_isNFSkippable" PURGE="0" COMMENT="" />
    <EXPORT ORDINAL="1576" NAME="unorm_openIter" PURGE="0" COMMENT="" />
    <EXPORT ORDINAL="1577" NAME="unorm_setIter" PURGE="0" COMMENT="" />
    <EXPORT ORDINAL="1578" NAME="unorm_swap" PURGE="0" COMMENT="" />
    <EXPORT ORDINAL="1579" NAME="upname_swap" PURGE="0" COMMENT="" />
    <EXPORT ORDINAL="1580" NAME="uprops_swap" PURGE="0" COMMENT="" />
    <EXPORT ORDINAL="1581" NAME="uprv_asciitolower" PURGE="0" COMMENT="" />
    <EXPORT ORDINAL="1582" NAME="uprv_compareASCIIPropertyNames" PURGE="0" COMMENT="" />
    <EXPORT ORDINAL="1583" NAME="uprv_compareEBCDICPropertyNames" PURGE="0" COMMENT="" />
    <EXPORT ORDINAL="1584" NAME="uprv_convertToLCID" PURGE="0" COMMENT="" />
    <EXPORT ORDINAL="1585" NAME="uprv_convertToPosix" PURGE="0" COMMENT="" />
    <EXPORT ORDINAL="1586" NAME="uprv_defaultCodePageForLocale" PURGE="0" COMMENT="" />
    <EXPORT ORDINAL="1587" NAME="uprv_dtostr" PURGE="0" COMMENT="" />
    <EXPORT ORDINAL="1588" NAME="uprv_ebcdictolower" PURGE="0" COMMENT="" />
    <EXPORT ORDINAL="1589" NAME="uprv_free" PURGE="0" COMMENT="" />
    <EXPORT ORDINAL="1590" NAME="uprv_getCharNameCharacters" PURGE="0" COMMENT="" />
    <EXPORT ORDINAL="1591" NAME="uprv_getInclusions" PURGE="0" COMMENT="" />
    <EXPORT ORDINAL="1592" NAME="uprv_getMaxCharNameLength" PURGE="0" COMMENT="" />
    <EXPORT ORDINAL="1593" NAME="uprv_int32Comparator" PURGE="0" COMMENT="" />
    <EXPORT ORDINAL="1594" NAME="uprv_isRuleWhiteSpace" PURGE="0" COMMENT="" />
    <EXPORT ORDINAL="1595" NAME="uprv_itou" PURGE="0" COMMENT="" />
    <EXPORT ORDINAL="1596" NAME="uprv_malloc" PURGE="0" COMMENT="" />
    <EXPORT ORDINAL="1597" NAME="uprv_mstrm_close" PURGE="0" COMMENT="" />
    <EXPORT ORDINAL="1598" NAME="uprv_mstrm_eof" PURGE="0" COMMENT="" />
    <EXPORT ORDINAL="1599" NAME="uprv_mstrm_error" PURGE="0" COMMENT="" />
    <EXPORT ORDINAL="1600" NAME="uprv_mstrm_getBuffer" PURGE="0" COMMENT="" />
    <EXPORT ORDINAL="1601" NAME="uprv_mstrm_getCurrentBuffer" PURGE="0" COMMENT="" />
    <EXPORT ORDINAL="1602" NAME="uprv_mstrm_jump" PURGE="0" COMMENT="" />
    <EXPORT ORDINAL="1603" NAME="uprv_mstrm_openBuffer" PURGE="0" COMMENT="" />
    <EXPORT ORDINAL="1604" NAME="uprv_mstrm_openNew" PURGE="0" COMMENT="" />
    <EXPORT ORDINAL="1605" NAME="uprv_mstrm_read" PURGE="0" COMMENT="" />
    <EXPORT ORDINAL="1606" NAME="uprv_mstrm_setError" PURGE="0" COMMENT="" />
    <EXPORT ORDINAL="1607" NAME="uprv_mstrm_skip" PURGE="0" COMMENT="" />
    <EXPORT ORDINAL="1608" NAME="uprv_mstrm_write" PURGE="0" COMMENT="" />
    <EXPORT ORDINAL="1609" NAME="uprv_mstrm_write16" PURGE="0" COMMENT="" />
    <EXPORT ORDINAL="1610" NAME="uprv_mstrm_write32" PURGE="0" COMMENT="" />
    <EXPORT ORDINAL="1611" NAME="uprv_mstrm_write8" PURGE="0" COMMENT="" />
    <EXPORT ORDINAL="1612" NAME="uprv_mstrm_writeBlock" PURGE="0" COMMENT="" />
    <EXPORT ORDINAL="1613" NAME="uprv_mstrm_writePadding" PURGE="0" COMMENT="" />
    <EXPORT ORDINAL="1614" NAME="uprv_mstrm_writeString" PURGE="0" COMMENT="" />
    <EXPORT ORDINAL="1615" NAME="uprv_mstrm_writeUString" PURGE="0" COMMENT="" />
    <EXPORT ORDINAL="1616" NAME="uprv_openRuleWhiteSpaceSet" PURGE="0" COMMENT="" />
    <EXPORT ORDINAL="1617" NAME="uprv_realloc" PURGE="0" COMMENT="" />
    <EXPORT ORDINAL="1618" NAME="uprv_sortArray" PURGE="0" COMMENT="" />
    <EXPORT ORDINAL="1619" NAME="uprv_strCompare" PURGE="0" COMMENT="" />
    <EXPORT ORDINAL="1620" NAME="uprv_strdup" PURGE="0" COMMENT="" />
    <EXPORT ORDINAL="1621" NAME="uprv_strtod" PURGE="-1" COMMENT="" />
    <EXPORT ORDINAL="1622" NAME="uprv_syntaxError" PURGE="0" COMMENT="" />
    <EXPORT ORDINAL="1623" NAME="uprv_toupper" PURGE="0" COMMENT="" />
    <EXPORT ORDINAL="1624" NAME="uprv_uint16Comparator" PURGE="0" COMMENT="" />
    <EXPORT ORDINAL="1625" NAME="uprv_uint32Comparator" PURGE="0" COMMENT="" />
    <EXPORT ORDINAL="1626" NAME="ures_findResource" PURGE="0" COMMENT="" />
    <EXPORT ORDINAL="1627" NAME="ures_findSubResource" PURGE="0" COMMENT="" />
    <EXPORT ORDINAL="1628" NAME="ures_getByKeyWithFallback" PURGE="0" COMMENT="" />
    <EXPORT ORDINAL="1629" NAME="ures_initStackObject" PURGE="0" COMMENT="" />
    <EXPORT ORDINAL="1630" NAME="ures_swap" PURGE="0" COMMENT="" />
    <EXPORT ORDINAL="1631" NAME="uscript_closeRun" PURGE="0" COMMENT="" />
    <EXPORT ORDINAL="1632" NAME="uscript_nextRun" PURGE="0" COMMENT="" />
    <EXPORT ORDINAL="1633" NAME="uscript_openRun" PURGE="0" COMMENT="" />
    <EXPORT ORDINAL="1634" NAME="uscript_resetRun" PURGE="0" COMMENT="" />
    <EXPORT ORDINAL="1635" NAME="uscript_setRunText" PURGE="0" COMMENT="" />
    <EXPORT ORDINAL="1636" NAME="userv_deleteStringPair" PURGE="0" COMMENT="" />
    <EXPORT ORDINAL="1637" NAME="usprep_swap" PURGE="0" COMMENT="" />
    <EXPORT ORDINAL="1638" NAME="utrace_data" PURGE="0" COMMENT="" />
    <EXPORT ORDINAL="1639" NAME="utrace_entry" PURGE="0" COMMENT="" />
    <EXPORT ORDINAL="1640" NAME="utrace_exit" PURGE="0" COMMENT="" />
    <EXPORT ORDINAL="1641" NAME="utrace_level" PURGE="-1" COMMENT="" />
    <EXPORT ORDINAL="1642" NAME="utrie_clone" PURGE="0" COMMENT="" />
    <EXPORT ORDINAL="1643" NAME="utrie_close" PURGE="0" COMMENT="" />
    <EXPORT ORDINAL="1644" NAME="utrie_enum" PURGE="0" COMMENT="" />
    <EXPORT ORDINAL="1645" NAME="utrie_get32" PURGE="0" COMMENT="" />
    <EXPORT ORDINAL="1646" NAME="utrie_getData" PURGE="0" COMMENT="" />
    <EXPORT ORDINAL="1647" NAME="utrie_open" PURGE="0" COMMENT="" />
    <EXPORT ORDINAL="1648" NAME="utrie_serialize" PURGE="0" COMMENT="" />
    <EXPORT ORDINAL="1649" NAME="utrie_set32" PURGE="0" COMMENT="" />
    <EXPORT ORDINAL="1650" NAME="utrie_setRange32" PURGE="0" COMMENT="" />
    <EXPORT ORDINAL="1651" NAME="utrie_swap" PURGE="0" COMMENT="" />
    <EXPORT ORDINAL="1652" NAME="utrie_unserialize" PURGE="0" COMMENT="" />
</LIBRARY>

