<?xml version="1.0" encoding="UTF-8"?>
<LIBRARY NAME="libagli18n28.dll" PATH="/DLLArchive/etc/libagli18n28.dll" DATE="Fri Jul 03 12:46:36 PDT 2020" VERSION="2, 8, 0, 0">
    <EXPORT ORDINAL="1" NAME="??0AGL_Calendar@agl_2_8@@IAE@AAW4AGL_UErrorCode@@@Z" PURGE="4" COMMENT="" />
    <EXPORT ORDINAL="2" NAME="??0AGL_Calendar@agl_2_8@@IAE@ABV01@@Z" PURGE="4" COMMENT="" />
    <EXPORT ORDINAL="3" NAME="??0AGL_Calendar@agl_2_8@@IAE@ABVAGL_TimeZone@1@ABVAGL_Locale@1@AAW4AGL_UErrorCode@@@Z" PURGE="12" COMMENT="" />
    <EXPORT ORDINAL="4" NAME="??0AGL_Calendar@agl_2_8@@IAE@PAVAGL_TimeZone@1@ABVAGL_Locale@1@AAW4AGL_UErrorCode@@@Z" PURGE="12" COMMENT="" />
    <EXPORT ORDINAL="5" NAME="??0AGL_ChoiceFormat@agl_2_8@@AAE@ABVAGL_UnicodeString@1@AAUAGL_UParseError@@AAW4AGL_UErrorCode@@@Z" PURGE="12" COMMENT="" />
    <EXPORT ORDINAL="6" NAME="??0AGL_ChoiceFormat@agl_2_8@@QAE@ABV01@@Z" PURGE="4" COMMENT="" />
    <EXPORT ORDINAL="7" NAME="??0AGL_ChoiceFormat@agl_2_8@@QAE@ABVAGL_UnicodeString@1@AAW4AGL_UErrorCode@@@Z" PURGE="8" COMMENT="" />
    <EXPORT ORDINAL="8" NAME="??0AGL_ChoiceFormat@agl_2_8@@QAE@PBNPBCPBVAGL_UnicodeString@1@J@Z" PURGE="16" COMMENT="" />
    <EXPORT ORDINAL="9" NAME="??0AGL_ChoiceFormat@agl_2_8@@QAE@PBNPBVAGL_UnicodeString@1@J@Z" PURGE="12" COMMENT="" />
    <EXPORT ORDINAL="10" NAME="??0AGL_CollationElementIterator@agl_2_8@@IAE@ABVAGL_CharacterIterator@1@PBVAGL_RuleBasedCollator@1@AAW4AGL_UErrorCode@@@Z" PURGE="12" COMMENT="" />
    <EXPORT ORDINAL="11" NAME="??0AGL_CollationElementIterator@agl_2_8@@IAE@ABVAGL_UnicodeString@1@PBVAGL_RuleBasedCollator@1@AAW4AGL_UErrorCode@@@Z" PURGE="12" COMMENT="" />
    <EXPORT ORDINAL="12" NAME="??0AGL_CollationElementIterator@agl_2_8@@QAE@ABV01@@Z" PURGE="4" COMMENT="" />
    <EXPORT ORDINAL="13" NAME="??0AGL_CollationKey@agl_2_8@@QAE@ABV01@@Z" PURGE="4" COMMENT="" />
    <EXPORT ORDINAL="14" NAME="??0AGL_CollationKey@agl_2_8@@QAE@PBEJ@Z" PURGE="8" COMMENT="" />
    <EXPORT ORDINAL="15" NAME="??0AGL_CollationKey@agl_2_8@@QAE@XZ" PURGE="0" COMMENT="" />
    <EXPORT ORDINAL="16" NAME="??0AGL_Collator@agl_2_8@@IAE@ABV01@@Z" PURGE="4" COMMENT="" />
    <EXPORT ORDINAL="17" NAME="??0AGL_Collator@agl_2_8@@IAE@W4AGL_UColAttributeValue@@W4AGL_UNormalizationMode@@@Z" PURGE="8" COMMENT="" />
    <EXPORT ORDINAL="18" NAME="??0AGL_Collator@agl_2_8@@IAE@XZ" PURGE="0" COMMENT="" />
    <EXPORT ORDINAL="19" NAME="??0AGL_CollatorFactory@agl_2_8@@QAE@ABV01@@Z" PURGE="4" COMMENT="" />
    <EXPORT ORDINAL="20" NAME="??0AGL_CollatorFactory@agl_2_8@@QAE@XZ" PURGE="0" COMMENT="" />
    <EXPORT ORDINAL="21" NAME="??0AGL_DateFormat@agl_2_8@@IAE@ABV01@@Z" PURGE="4" COMMENT="" />
    <EXPORT ORDINAL="22" NAME="??0AGL_DateFormat@agl_2_8@@IAE@XZ" PURGE="0" COMMENT="" />
    <EXPORT ORDINAL="23" NAME="??0AGL_DateFormatSymbols@agl_2_8@@QAE@AAW4AGL_UErrorCode@@@Z" PURGE="4" COMMENT="" />
    <EXPORT ORDINAL="24" NAME="??0AGL_DateFormatSymbols@agl_2_8@@QAE@ABV01@@Z" PURGE="4" COMMENT="" />
    <EXPORT ORDINAL="25" NAME="??0AGL_DateFormatSymbols@agl_2_8@@QAE@ABVAGL_Locale@1@AAW4AGL_UErrorCode@@@Z" PURGE="8" COMMENT="" />
    <EXPORT ORDINAL="26" NAME="??0AGL_DateFormatSymbols@agl_2_8@@QAE@ABVAGL_Locale@1@PBDAAW4AGL_UErrorCode@@@Z" PURGE="12" COMMENT="" />
    <EXPORT ORDINAL="27" NAME="??0AGL_DateFormatSymbols@agl_2_8@@QAE@PBDAAW4AGL_UErrorCode@@@Z" PURGE="8" COMMENT="" />
    <EXPORT ORDINAL="28" NAME="??0AGL_DecimalFormat@agl_2_8@@QAE@AAW4AGL_UErrorCode@@@Z" PURGE="4" COMMENT="" />
    <EXPORT ORDINAL="29" NAME="??0AGL_DecimalFormat@agl_2_8@@QAE@ABV01@@Z" PURGE="4" COMMENT="" />
    <EXPORT ORDINAL="30" NAME="??0AGL_DecimalFormat@agl_2_8@@QAE@ABVAGL_UnicodeString@1@AAW4AGL_UErrorCode@@@Z" PURGE="8" COMMENT="" />
    <EXPORT ORDINAL="31" NAME="??0AGL_DecimalFormat@agl_2_8@@QAE@ABVAGL_UnicodeString@1@ABVAGL_DecimalFormatSymbols@1@AAW4AGL_UErrorCode@@@Z" PURGE="12" COMMENT="" />
    <EXPORT ORDINAL="32" NAME="??0AGL_DecimalFormat@agl_2_8@@QAE@ABVAGL_UnicodeString@1@PAVAGL_DecimalFormatSymbols@1@AAUAGL_UParseError@@AAW4AGL_UErrorCode@@@Z" PURGE="16" COMMENT="" />
    <EXPORT ORDINAL="33" NAME="??0AGL_DecimalFormat@agl_2_8@@QAE@ABVAGL_UnicodeString@1@PAVAGL_DecimalFormatSymbols@1@AAW4AGL_UErrorCode@@@Z" PURGE="12" COMMENT="" />
    <EXPORT ORDINAL="34" NAME="??0AGL_DecimalFormatSymbols@agl_2_8@@QAE@AAW4AGL_UErrorCode@@@Z" PURGE="4" COMMENT="" />
    <EXPORT ORDINAL="35" NAME="??0AGL_DecimalFormatSymbols@agl_2_8@@QAE@ABV01@@Z" PURGE="4" COMMENT="" />
    <EXPORT ORDINAL="36" NAME="??0AGL_DecimalFormatSymbols@agl_2_8@@QAE@ABVAGL_Locale@1@AAW4AGL_UErrorCode@@@Z" PURGE="8" COMMENT="" />
    <EXPORT ORDINAL="37" NAME="??0AGL_FieldPosition@agl_2_8@@QAE@ABV01@@Z" PURGE="4" COMMENT="" />
    <EXPORT ORDINAL="38" NAME="??0AGL_FieldPosition@agl_2_8@@QAE@J@Z" PURGE="4" COMMENT="" />
    <EXPORT ORDINAL="39" NAME="??0AGL_FieldPosition@agl_2_8@@QAE@XZ" PURGE="0" COMMENT="" />
    <EXPORT ORDINAL="40" NAME="??0AGL_Format@agl_2_8@@IAE@ABV01@@Z" PURGE="4" COMMENT="" />
    <EXPORT ORDINAL="41" NAME="??0AGL_Format@agl_2_8@@IAE@XZ" PURGE="0" COMMENT="" />
    <EXPORT ORDINAL="42" NAME="??0AGL_Formattable@agl_2_8@@QAE@ABV01@@Z" PURGE="4" COMMENT="" />
    <EXPORT ORDINAL="43" NAME="??0AGL_Formattable@agl_2_8@@QAE@ABVAGL_UnicodeString@1@@Z" PURGE="4" COMMENT="" />
    <EXPORT ORDINAL="44" NAME="??0AGL_Formattable@agl_2_8@@QAE@J@Z" PURGE="4" COMMENT="" />
    <EXPORT ORDINAL="45" NAME="??0AGL_Formattable@agl_2_8@@QAE@N@Z" PURGE="8" COMMENT="" />
    <EXPORT ORDINAL="46" NAME="??0AGL_Formattable@agl_2_8@@QAE@NW4ISDATE@01@@Z" PURGE="12" COMMENT="" />
    <EXPORT ORDINAL="47" NAME="??0AGL_Formattable@agl_2_8@@QAE@PAVAGL_UnicodeString@1@@Z" PURGE="4" COMMENT="" />
    <EXPORT ORDINAL="48" NAME="??0AGL_Formattable@agl_2_8@@QAE@PBD@Z" PURGE="4" COMMENT="" />
    <EXPORT ORDINAL="49" NAME="??0AGL_Formattable@agl_2_8@@QAE@PBV01@J@Z" PURGE="8" COMMENT="" />
    <EXPORT ORDINAL="50" NAME="??0AGL_Formattable@agl_2_8@@QAE@XZ" PURGE="0" COMMENT="" />
    <EXPORT ORDINAL="51" NAME="??0AGL_Formattable@agl_2_8@@QAE@_J@Z" PURGE="8" COMMENT="" />
    <EXPORT ORDINAL="52" NAME="??0AGL_GregorianCalendar@agl_2_8@@QAE@AAW4AGL_UErrorCode@@@Z" PURGE="4" COMMENT="" />
    <EXPORT ORDINAL="53" NAME="??0AGL_GregorianCalendar@agl_2_8@@QAE@ABV01@@Z" PURGE="4" COMMENT="" />
    <EXPORT ORDINAL="54" NAME="??0AGL_GregorianCalendar@agl_2_8@@QAE@ABVAGL_Locale@1@AAW4AGL_UErrorCode@@@Z" PURGE="8" COMMENT="" />
    <EXPORT ORDINAL="55" NAME="??0AGL_GregorianCalendar@agl_2_8@@QAE@ABVAGL_TimeZone@1@AAW4AGL_UErrorCode@@@Z" PURGE="8" COMMENT="" />
    <EXPORT ORDINAL="56" NAME="??0AGL_GregorianCalendar@agl_2_8@@QAE@ABVAGL_TimeZone@1@ABVAGL_Locale@1@AAW4AGL_UErrorCode@@@Z" PURGE="12" COMMENT="" />
    <EXPORT ORDINAL="57" NAME="??0AGL_GregorianCalendar@agl_2_8@@QAE@JJJAAW4AGL_UErrorCode@@@Z" PURGE="16" COMMENT="" />
    <EXPORT ORDINAL="58" NAME="??0AGL_GregorianCalendar@agl_2_8@@QAE@JJJJJAAW4AGL_UErrorCode@@@Z" PURGE="24" COMMENT="" />
    <EXPORT ORDINAL="59" NAME="??0AGL_GregorianCalendar@agl_2_8@@QAE@JJJJJJAAW4AGL_UErrorCode@@@Z" PURGE="28" COMMENT="" />
    <EXPORT ORDINAL="60" NAME="??0AGL_GregorianCalendar@agl_2_8@@QAE@PAVAGL_TimeZone@1@AAW4AGL_UErrorCode@@@Z" PURGE="8" COMMENT="" />
    <EXPORT ORDINAL="61" NAME="??0AGL_GregorianCalendar@agl_2_8@@QAE@PAVAGL_TimeZone@1@ABVAGL_Locale@1@AAW4AGL_UErrorCode@@@Z" PURGE="12" COMMENT="" />
    <EXPORT ORDINAL="62" NAME="??0AGL_MessageFormat@agl_2_8@@QAE@ABV01@@Z" PURGE="4" COMMENT="" />
    <EXPORT ORDINAL="63" NAME="??0AGL_MessageFormat@agl_2_8@@QAE@ABVAGL_UnicodeString@1@AAW4AGL_UErrorCode@@@Z" PURGE="8" COMMENT="" />
    <EXPORT ORDINAL="64" NAME="??0AGL_MessageFormat@agl_2_8@@QAE@ABVAGL_UnicodeString@1@ABVAGL_Locale@1@AAUAGL_UParseError@@AAW4AGL_UErrorCode@@@Z" PURGE="16" COMMENT="" />
    <EXPORT ORDINAL="65" NAME="??0AGL_MessageFormat@agl_2_8@@QAE@ABVAGL_UnicodeString@1@ABVAGL_Locale@1@AAW4AGL_UErrorCode@@@Z" PURGE="12" COMMENT="" />
    <EXPORT ORDINAL="66" NAME="??0AGL_NumberFormat@agl_2_8@@IAE@ABV01@@Z" PURGE="4" COMMENT="" />
    <EXPORT ORDINAL="67" NAME="??0AGL_NumberFormat@agl_2_8@@IAE@XZ" PURGE="0" COMMENT="" />
    <EXPORT ORDINAL="68" NAME="??0AGL_NumberFormatFactory@agl_2_8@@QAE@ABV01@@Z" PURGE="4" COMMENT="" />
    <EXPORT ORDINAL="69" NAME="??0AGL_NumberFormatFactory@agl_2_8@@QAE@XZ" PURGE="0" COMMENT="" />
    <EXPORT ORDINAL="70" NAME="??0AGL_RegexMatcher@agl_2_8@@AAE@PBVAGL_RegexPattern@1@@Z" PURGE="4" COMMENT="" />
    <EXPORT ORDINAL="71" NAME="??0AGL_RegexMatcher@agl_2_8@@QAE@ABVAGL_UnicodeString@1@0KAAW4AGL_UErrorCode@@@Z" PURGE="16" COMMENT="" />
    <EXPORT ORDINAL="72" NAME="??0AGL_RegexMatcher@agl_2_8@@QAE@ABVAGL_UnicodeString@1@KAAW4AGL_UErrorCode@@@Z" PURGE="12" COMMENT="" />
    <EXPORT ORDINAL="73" NAME="??0AGL_RegexPattern@agl_2_8@@QAE@ABV01@@Z" PURGE="4" COMMENT="" />
    <EXPORT ORDINAL="74" NAME="??0AGL_RegexPattern@agl_2_8@@QAE@XZ" PURGE="0" COMMENT="" />
    <EXPORT ORDINAL="75" NAME="??0AGL_RuleBasedCollator@agl_2_8@@AAE@ABVAGL_Locale@1@AAW4AGL_UErrorCode@@@Z" PURGE="8" COMMENT="" />
    <EXPORT ORDINAL="76" NAME="??0AGL_RuleBasedCollator@agl_2_8@@AAE@PAUAGL_UCollator@@PAVAGL_UnicodeString@1@@Z" PURGE="8" COMMENT="" />
    <EXPORT ORDINAL="77" NAME="??0AGL_RuleBasedCollator@agl_2_8@@AAE@XZ" PURGE="0" COMMENT="" />
    <EXPORT ORDINAL="78" NAME="??0AGL_RuleBasedCollator@agl_2_8@@QAE@ABV01@@Z" PURGE="4" COMMENT="" />
    <EXPORT ORDINAL="79" NAME="??0AGL_RuleBasedCollator@agl_2_8@@QAE@ABVAGL_UnicodeString@1@AAW4AGL_UErrorCode@@@Z" PURGE="8" COMMENT="" />
    <EXPORT ORDINAL="80" NAME="??0AGL_RuleBasedCollator@agl_2_8@@QAE@ABVAGL_UnicodeString@1@W4AGL_UColAttributeValue@@AAW4AGL_UErrorCode@@@Z" PURGE="12" COMMENT="" />
    <EXPORT ORDINAL="81" NAME="??0AGL_RuleBasedCollator@agl_2_8@@QAE@ABVAGL_UnicodeString@1@W4ECollationStrength@AGL_Collator@1@AAW4AGL_UErrorCode@@@Z" PURGE="12" COMMENT="" />
    <EXPORT ORDINAL="82" NAME="??0AGL_RuleBasedCollator@agl_2_8@@QAE@ABVAGL_UnicodeString@1@W4ECollationStrength@AGL_Collator@1@W4AGL_UColAttributeValue@@AAW4AGL_UErrorCode@@@Z" PURGE="16" COMMENT="" />
    <EXPORT ORDINAL="83" NAME="??0AGL_RuleBasedNumberFormat@agl_2_8@@QAE@ABV01@@Z" PURGE="4" COMMENT="" />
    <EXPORT ORDINAL="84" NAME="??0AGL_RuleBasedNumberFormat@agl_2_8@@QAE@ABVAGL_UnicodeString@1@ABVAGL_Locale@1@AAUAGL_UParseError@@AAW4AGL_UErrorCode@@@Z" PURGE="16" COMMENT="" />
    <EXPORT ORDINAL="85" NAME="??0AGL_RuleBasedNumberFormat@agl_2_8@@QAE@W4AGL_URBNFRuleSetTag@1@ABVAGL_Locale@1@AAW4AGL_UErrorCode@@@Z" PURGE="12" COMMENT="" />
    <EXPORT ORDINAL="86" NAME="??0AGL_SearchIterator@agl_2_8@@IAE@AAVAGL_CharacterIterator@1@PAVAGL_BreakIterator@1@@Z" PURGE="8" COMMENT="" />
    <EXPORT ORDINAL="87" NAME="??0AGL_SearchIterator@agl_2_8@@IAE@ABVAGL_UnicodeString@1@PAVAGL_BreakIterator@1@@Z" PURGE="8" COMMENT="" />
    <EXPORT ORDINAL="88" NAME="??0AGL_SearchIterator@agl_2_8@@IAE@XZ" PURGE="0" COMMENT="" />
    <EXPORT ORDINAL="89" NAME="??0AGL_SearchIterator@agl_2_8@@QAE@ABV01@@Z" PURGE="4" COMMENT="" />
    <EXPORT ORDINAL="90" NAME="??0AGL_SimpleDateFormat@agl_2_8@@AAE@ABVAGL_Locale@1@AAW4AGL_UErrorCode@@@Z" PURGE="8" COMMENT="" />
    <EXPORT ORDINAL="91" NAME="??0AGL_SimpleDateFormat@agl_2_8@@AAE@W4EStyle@AGL_DateFormat@1@0ABVAGL_Locale@1@AAW4AGL_UErrorCode@@@Z" PURGE="16" COMMENT="" />
    <EXPORT ORDINAL="92" NAME="??0AGL_SimpleDateFormat@agl_2_8@@QAE@AAW4AGL_UErrorCode@@@Z" PURGE="4" COMMENT="" />
    <EXPORT ORDINAL="93" NAME="??0AGL_SimpleDateFormat@agl_2_8@@QAE@ABV01@@Z" PURGE="4" COMMENT="" />
    <EXPORT ORDINAL="94" NAME="??0AGL_SimpleDateFormat@agl_2_8@@QAE@ABVAGL_UnicodeString@1@AAW4AGL_UErrorCode@@@Z" PURGE="8" COMMENT="" />
    <EXPORT ORDINAL="95" NAME="??0AGL_SimpleDateFormat@agl_2_8@@QAE@ABVAGL_UnicodeString@1@ABVAGL_DateFormatSymbols@1@AAW4AGL_UErrorCode@@@Z" PURGE="12" COMMENT="" />
    <EXPORT ORDINAL="96" NAME="??0AGL_SimpleDateFormat@agl_2_8@@QAE@ABVAGL_UnicodeString@1@ABVAGL_Locale@1@AAW4AGL_UErrorCode@@@Z" PURGE="12" COMMENT="" />
    <EXPORT ORDINAL="97" NAME="??0AGL_SimpleDateFormat@agl_2_8@@QAE@ABVAGL_UnicodeString@1@PAVAGL_DateFormatSymbols@1@AAW4AGL_UErrorCode@@@Z" PURGE="12" COMMENT="" />
    <EXPORT ORDINAL="98" NAME="??0AGL_SimpleNumberFormatFactory@agl_2_8@@QAE@ABV01@@Z" PURGE="4" COMMENT="" />
    <EXPORT ORDINAL="99" NAME="??0AGL_SimpleNumberFormatFactory@agl_2_8@@QAE@ABVAGL_Locale@1@C@Z" PURGE="8" COMMENT="" />
    <EXPORT ORDINAL="100" NAME="??0AGL_SimpleTimeZone@agl_2_8@@QAE@ABV01@@Z" PURGE="4" COMMENT="" />
    <EXPORT ORDINAL="101" NAME="??0AGL_SimpleTimeZone@agl_2_8@@QAE@JABVAGL_UnicodeString@1@@Z" PURGE="8" COMMENT="" />
    <EXPORT ORDINAL="102" NAME="??0AGL_SimpleTimeZone@agl_2_8@@QAE@JABVAGL_UnicodeString@1@CCCJCCCJAAW4AGL_UErrorCode@@@Z" PURGE="44" COMMENT="" />
    <EXPORT ORDINAL="103" NAME="??0AGL_SimpleTimeZone@agl_2_8@@QAE@JABVAGL_UnicodeString@1@CCCJCCCJJAAW4AGL_UErrorCode@@@Z" PURGE="48" COMMENT="" />
    <EXPORT ORDINAL="104" NAME="??0AGL_SimpleTimeZone@agl_2_8@@QAE@JABVAGL_UnicodeString@1@CCCJW4TimeMode@01@CCCJ1JAAW4AGL_UErrorCode@@@Z" PURGE="56" COMMENT="" />
    <EXPORT ORDINAL="105" NAME="??0AGL_StringSearch@agl_2_8@@QAE@ABV01@@Z" PURGE="4" COMMENT="" />
    <EXPORT ORDINAL="106" NAME="??0AGL_StringSearch@agl_2_8@@QAE@ABVAGL_UnicodeString@1@0ABVAGL_Locale@1@PAVAGL_BreakIterator@1@AAW4AGL_UErrorCode@@@Z" PURGE="20" COMMENT="" />
    <EXPORT ORDINAL="107" NAME="??0AGL_StringSearch@agl_2_8@@QAE@ABVAGL_UnicodeString@1@0PAVAGL_RuleBasedCollator@1@PAVAGL_BreakIterator@1@AAW4AGL_UErrorCode@@@Z" PURGE="20" COMMENT="" />
    <EXPORT ORDINAL="108" NAME="??0AGL_StringSearch@agl_2_8@@QAE@ABVAGL_UnicodeString@1@AAVAGL_CharacterIterator@1@ABVAGL_Locale@1@PAVAGL_BreakIterator@1@AAW4AGL_UErrorCode@@@Z" PURGE="20" COMMENT="" />
    <EXPORT ORDINAL="109" NAME="??0AGL_StringSearch@agl_2_8@@QAE@ABVAGL_UnicodeString@1@AAVAGL_CharacterIterator@1@PAVAGL_RuleBasedCollator@1@PAVAGL_BreakIterator@1@AAW4AGL_UErrorCode@@@Z" PURGE="20" COMMENT="" />
    <EXPORT ORDINAL="110" NAME="??0AGL_TimeZone@agl_2_8@@IAE@ABV01@@Z" PURGE="4" COMMENT="" />
    <EXPORT ORDINAL="111" NAME="??0AGL_TimeZone@agl_2_8@@IAE@ABVAGL_UnicodeString@1@@Z" PURGE="4" COMMENT="" />
    <EXPORT ORDINAL="112" NAME="??0AGL_TimeZone@agl_2_8@@IAE@XZ" PURGE="0" COMMENT="" />
    <EXPORT ORDINAL="113" NAME="??0AGL_Transliterator@agl_2_8@@IAE@ABV01@@Z" PURGE="4" COMMENT="" />
    <EXPORT ORDINAL="114" NAME="??0AGL_Transliterator@agl_2_8@@IAE@ABVAGL_UnicodeString@1@PAVAGL_UnicodeFilter@1@@Z" PURGE="8" COMMENT="" />
    <EXPORT ORDINAL="115" NAME="??0AGL_UnicodeReplacer@agl_2_8@@QAE@ABV01@@Z" PURGE="4" COMMENT="" />
    <EXPORT ORDINAL="116" NAME="??0AGL_UnicodeReplacer@agl_2_8@@QAE@XZ" PURGE="0" COMMENT="" />
    <EXPORT ORDINAL="117" NAME="??0AngleFunc@CalendarAstronomer@agl_2_8@@QAE@ABV012@@Z" PURGE="4" COMMENT="" />
    <EXPORT ORDINAL="118" NAME="??0AngleFunc@CalendarAstronomer@agl_2_8@@QAE@XZ" PURGE="0" COMMENT="" />
    <EXPORT ORDINAL="119" NAME="??0AnyTransliterator@agl_2_8@@AAE@ABVAGL_UnicodeString@1@00W4AGL_UScriptCode@@AAW4AGL_UErrorCode@@@Z" PURGE="20" COMMENT="" />
    <EXPORT ORDINAL="120" NAME="??0AnyTransliterator@agl_2_8@@QAE@ABV01@@Z" PURGE="4" COMMENT="" />
    <EXPORT ORDINAL="121" NAME="??0BuddhistCalendar@agl_2_8@@QAE@ABV01@@Z" PURGE="4" COMMENT="" />
    <EXPORT ORDINAL="122" NAME="??0BuddhistCalendar@agl_2_8@@QAE@ABVAGL_Locale@1@AAW4AGL_UErrorCode@@@Z" PURGE="8" COMMENT="" />
    <EXPORT ORDINAL="123" NAME="??0CalendarAstronomer@agl_2_8@@QAE@N@Z" PURGE="8" COMMENT="" />
    <EXPORT ORDINAL="124" NAME="??0CalendarAstronomer@agl_2_8@@QAE@NN@Z" PURGE="16" COMMENT="" />
    <EXPORT ORDINAL="125" NAME="??0CalendarAstronomer@agl_2_8@@QAE@XZ" PURGE="0" COMMENT="" />
    <EXPORT ORDINAL="126" NAME="??0CalendarCache@agl_2_8@@AAE@JAAW4AGL_UErrorCode@@@Z" PURGE="8" COMMENT="" />
    <EXPORT ORDINAL="127" NAME="??0CalendarCache@agl_2_8@@QAE@ABV01@@Z" PURGE="4" COMMENT="" />
    <EXPORT ORDINAL="128" NAME="??0CompoundTransliterator@agl_2_8@@AAE@AAVUVector@1@AAUAGL_UParseError@@AAW4AGL_UErrorCode@@@Z" PURGE="12" COMMENT="" />
    <EXPORT ORDINAL="129" NAME="??0CompoundTransliterator@agl_2_8@@AAE@ABVAGL_UnicodeString@1@0JPAVAGL_Transliterator@1@AAW4AGL_UErrorCode@@@Z" PURGE="20" COMMENT="" />
    <EXPORT ORDINAL="130" NAME="??0CompoundTransliterator@agl_2_8@@QAE@ABV01@@Z" PURGE="4" COMMENT="" />
    <EXPORT ORDINAL="131" NAME="??0CompoundTransliterator@agl_2_8@@QAE@ABVAGL_UnicodeString@1@AAUAGL_UParseError@@AAW4AGL_UErrorCode@@@Z" PURGE="12" COMMENT="" />
    <EXPORT ORDINAL="132" NAME="??0CompoundTransliterator@agl_2_8@@QAE@ABVAGL_UnicodeString@1@W4AGL_UTransDirection@@PAVAGL_UnicodeFilter@1@AAUAGL_UParseError@@AAW4AGL_UErrorCode@@@Z" PURGE="20" COMMENT="" />
    <EXPORT ORDINAL="133" NAME="??0CompoundTransliterator@agl_2_8@@QAE@QBQAVAGL_Transliterator@1@JPAVAGL_UnicodeFilter@1@@Z" PURGE="12" COMMENT="" />
    <EXPORT ORDINAL="134" NAME="??0CoordFunc@CalendarAstronomer@agl_2_8@@QAE@ABV012@@Z" PURGE="4" COMMENT="" />
    <EXPORT ORDINAL="135" NAME="??0CoordFunc@CalendarAstronomer@agl_2_8@@QAE@XZ" PURGE="0" COMMENT="" />
    <EXPORT ORDINAL="136" NAME="??0DigitList@agl_2_8@@QAE@ABV01@@Z" PURGE="4" COMMENT="" />
    <EXPORT ORDINAL="137" NAME="??0DigitList@agl_2_8@@QAE@XZ" PURGE="0" COMMENT="" />
    <EXPORT ORDINAL="138" NAME="??0Ecliptic@CalendarAstronomer@agl_2_8@@QAE@NN@Z" PURGE="16" COMMENT="" />
    <EXPORT ORDINAL="139" NAME="??0Equatorial@CalendarAstronomer@agl_2_8@@QAE@NN@Z" PURGE="16" COMMENT="" />
    <EXPORT ORDINAL="140" NAME="??0EscapeTransliterator@agl_2_8@@QAE@ABV01@@Z" PURGE="4" COMMENT="" />
    <EXPORT ORDINAL="141" NAME="??0EscapeTransliterator@agl_2_8@@QAE@ABVAGL_UnicodeString@1@00JJCPAV01@@Z" PURGE="28" COMMENT="" />
    <EXPORT ORDINAL="142" NAME="??0FunctionReplacer@agl_2_8@@QAE@ABV01@@Z" PURGE="4" COMMENT="" />
    <EXPORT ORDINAL="143" NAME="??0FunctionReplacer@agl_2_8@@QAE@PAVAGL_Transliterator@1@PAVAGL_UnicodeFunctor@1@@Z" PURGE="8" COMMENT="" />
    <EXPORT ORDINAL="144" NAME="??0HebrewCalendar@agl_2_8@@QAE@ABV01@@Z" PURGE="4" COMMENT="" />
    <EXPORT ORDINAL="145" NAME="??0HebrewCalendar@agl_2_8@@QAE@ABVAGL_Locale@1@AAW4AGL_UErrorCode@@@Z" PURGE="8" COMMENT="" />
    <EXPORT ORDINAL="146" NAME="??0HexToUnicodeTransliterator@agl_2_8@@QAE@ABV01@@Z" PURGE="4" COMMENT="" />
    <EXPORT ORDINAL="147" NAME="??0HexToUnicodeTransliterator@agl_2_8@@QAE@ABVAGL_UnicodeString@1@AAW4AGL_UErrorCode@@@Z" PURGE="8" COMMENT="" />
    <EXPORT ORDINAL="148" NAME="??0HexToUnicodeTransliterator@agl_2_8@@QAE@ABVAGL_UnicodeString@1@PAVAGL_UnicodeFilter@1@AAW4AGL_UErrorCode@@@Z" PURGE="12" COMMENT="" />
    <EXPORT ORDINAL="149" NAME="??0HexToUnicodeTransliterator@agl_2_8@@QAE@PAVAGL_UnicodeFilter@1@@Z" PURGE="4" COMMENT="" />
    <EXPORT ORDINAL="150" NAME="??0Horizon@CalendarAstronomer@agl_2_8@@QAE@NN@Z" PURGE="16" COMMENT="" />
    <EXPORT ORDINAL="151" NAME="??0IslamicCalendar@agl_2_8@@QAE@ABV01@@Z" PURGE="4" COMMENT="" />
    <EXPORT ORDINAL="152" NAME="??0IslamicCalendar@agl_2_8@@QAE@ABVAGL_Locale@1@AAW4AGL_UErrorCode@@W4ECivil@01@@Z" PURGE="12" COMMENT="" />
    <EXPORT ORDINAL="153" NAME="??0JapaneseCalendar@agl_2_8@@QAE@ABV01@@Z" PURGE="4" COMMENT="" />
    <EXPORT ORDINAL="154" NAME="??0JapaneseCalendar@agl_2_8@@QAE@ABVAGL_Locale@1@AAW4AGL_UErrorCode@@@Z" PURGE="8" COMMENT="" />
    <EXPORT ORDINAL="155" NAME="??0LowercaseTransliterator@agl_2_8@@QAE@ABV01@@Z" PURGE="4" COMMENT="" />
    <EXPORT ORDINAL="156" NAME="??0LowercaseTransliterator@agl_2_8@@QAE@ABVAGL_Locale@1@@Z" PURGE="4" COMMENT="" />
    <EXPORT ORDINAL="157" NAME="??0MoonAge@CalendarAstronomer@agl_2_8@@QAE@N@Z" PURGE="8" COMMENT="" />
    <EXPORT ORDINAL="158" NAME="??0NameUnicodeTransliterator@agl_2_8@@QAE@ABV01@@Z" PURGE="4" COMMENT="" />
    <EXPORT ORDINAL="159" NAME="??0NameUnicodeTransliterator@agl_2_8@@QAE@PAVAGL_UnicodeFilter@1@@Z" PURGE="4" COMMENT="" />
    <EXPORT ORDINAL="160" NAME="??0NormalizationTransliterator@agl_2_8@@AAE@ABVAGL_UnicodeString@1@W4AGL_UNormalizationMode@@J@Z" PURGE="12" COMMENT="" />
    <EXPORT ORDINAL="161" NAME="??0NormalizationTransliterator@agl_2_8@@QAE@ABV01@@Z" PURGE="4" COMMENT="" />
    <EXPORT ORDINAL="162" NAME="??0NullTransliterator@agl_2_8@@QAE@ABV01@@Z" PURGE="4" COMMENT="" />
    <EXPORT ORDINAL="163" NAME="??0NullTransliterator@agl_2_8@@QAE@XZ" PURGE="0" COMMENT="" />
    <EXPORT ORDINAL="164" NAME="??0OlsonTimeZone@agl_2_8@@IAE@XZ" PURGE="0" COMMENT="" />
    <EXPORT ORDINAL="165" NAME="??0OlsonTimeZone@agl_2_8@@QAE@ABV01@@Z" PURGE="4" COMMENT="" />
    <EXPORT ORDINAL="166" NAME="??0OlsonTimeZone@agl_2_8@@QAE@PBUAGL_UResourceBundle@@0AAW4AGL_UErrorCode@@@Z" PURGE="12" COMMENT="" />
    <EXPORT ORDINAL="167" NAME="??0RemoveTransliterator@agl_2_8@@QAE@ABV01@@Z" PURGE="4" COMMENT="" />
    <EXPORT ORDINAL="168" NAME="??0RemoveTransliterator@agl_2_8@@QAE@XZ" PURGE="0" COMMENT="" />
    <EXPORT ORDINAL="169" NAME="??0RuleBasedTransliterator@agl_2_8@@AAE@ABVAGL_UnicodeString@1@PAVTransliterationRuleData@1@C@Z" PURGE="12" COMMENT="" />
    <EXPORT ORDINAL="170" NAME="??0RuleBasedTransliterator@agl_2_8@@AAE@ABVAGL_UnicodeString@1@PBVTransliterationRuleData@1@PAVAGL_UnicodeFilter@1@@Z" PURGE="12" COMMENT="" />
    <EXPORT ORDINAL="171" NAME="??0RuleBasedTransliterator@agl_2_8@@QAE@ABV01@@Z" PURGE="4" COMMENT="" />
    <EXPORT ORDINAL="172" NAME="??0RuleBasedTransliterator@agl_2_8@@QAE@ABVAGL_UnicodeString@1@0AAW4AGL_UErrorCode@@@Z" PURGE="12" COMMENT="" />
    <EXPORT ORDINAL="173" NAME="??0RuleBasedTransliterator@agl_2_8@@QAE@ABVAGL_UnicodeString@1@0PAVAGL_UnicodeFilter@1@AAW4AGL_UErrorCode@@@Z" PURGE="16" COMMENT="" />
    <EXPORT ORDINAL="174" NAME="??0RuleBasedTransliterator@agl_2_8@@QAE@ABVAGL_UnicodeString@1@0W4AGL_UTransDirection@@AAW4AGL_UErrorCode@@@Z" PURGE="16" COMMENT="" />
    <EXPORT ORDINAL="175" NAME="??0RuleBasedTransliterator@agl_2_8@@QAE@ABVAGL_UnicodeString@1@0W4AGL_UTransDirection@@PAVAGL_UnicodeFilter@1@AAUAGL_UParseError@@AAW4AGL_UErrorCode@@@Z" PURGE="24" COMMENT="" />
    <EXPORT ORDINAL="176" NAME="??0RuleBasedTransliterator@agl_2_8@@QAE@ABVAGL_UnicodeString@1@0W4AGL_UTransDirection@@PAVAGL_UnicodeFilter@1@AAW4AGL_UErrorCode@@@Z" PURGE="20" COMMENT="" />
    <EXPORT ORDINAL="177" NAME="??0TitlecaseTransliterator@agl_2_8@@QAE@ABV01@@Z" PURGE="4" COMMENT="" />
    <EXPORT ORDINAL="178" NAME="??0TitlecaseTransliterator@agl_2_8@@QAE@ABVAGL_Locale@1@@Z" PURGE="4" COMMENT="" />
    <EXPORT ORDINAL="179" NAME="??0TransliterationRuleData@agl_2_8@@QAE@AAW4AGL_UErrorCode@@@Z" PURGE="4" COMMENT="" />
    <EXPORT ORDINAL="180" NAME="??0TransliterationRuleData@agl_2_8@@QAE@ABV01@@Z" PURGE="4" COMMENT="" />
    <EXPORT ORDINAL="181" NAME="??0TransliterationRuleSet@agl_2_8@@QAE@AAW4AGL_UErrorCode@@@Z" PURGE="4" COMMENT="" />
    <EXPORT ORDINAL="182" NAME="??0TransliterationRuleSet@agl_2_8@@QAE@ABV01@@Z" PURGE="4" COMMENT="" />
    <EXPORT ORDINAL="183" NAME="??0UnescapeTransliterator@agl_2_8@@QAE@ABV01@@Z" PURGE="4" COMMENT="" />
    <EXPORT ORDINAL="184" NAME="??0UnescapeTransliterator@agl_2_8@@QAE@ABVAGL_UnicodeString@1@PBG@Z" PURGE="8" COMMENT="" />
    <EXPORT ORDINAL="185" NAME="??0UnicodeNameTransliterator@agl_2_8@@QAE@ABV01@@Z" PURGE="4" COMMENT="" />
    <EXPORT ORDINAL="186" NAME="??0UnicodeNameTransliterator@agl_2_8@@QAE@PAVAGL_UnicodeFilter@1@@Z" PURGE="4" COMMENT="" />
    <EXPORT ORDINAL="187" NAME="??0UnicodeToHexTransliterator@agl_2_8@@QAE@ABV01@@Z" PURGE="4" COMMENT="" />
    <EXPORT ORDINAL="188" NAME="??0UnicodeToHexTransliterator@agl_2_8@@QAE@ABVAGL_UnicodeString@1@AAW4AGL_UErrorCode@@@Z" PURGE="8" COMMENT="" />
    <EXPORT ORDINAL="189" NAME="??0UnicodeToHexTransliterator@agl_2_8@@QAE@ABVAGL_UnicodeString@1@CPAVAGL_UnicodeFilter@1@AAW4AGL_UErrorCode@@@Z" PURGE="16" COMMENT="" />
    <EXPORT ORDINAL="190" NAME="??0UnicodeToHexTransliterator@agl_2_8@@QAE@PAVAGL_UnicodeFilter@1@@Z" PURGE="4" COMMENT="" />
    <EXPORT ORDINAL="191" NAME="??0UppercaseTransliterator@agl_2_8@@QAE@ABV01@@Z" PURGE="4" COMMENT="" />
    <EXPORT ORDINAL="192" NAME="??0UppercaseTransliterator@agl_2_8@@QAE@ABVAGL_Locale@1@@Z" PURGE="4" COMMENT="" />
    <EXPORT ORDINAL="193" NAME="??1AGL_Calendar@agl_2_8@@UAE@XZ" PURGE="0" COMMENT="" />
    <EXPORT ORDINAL="194" NAME="??1AGL_ChoiceFormat@agl_2_8@@UAE@XZ" PURGE="0" COMMENT="" />
    <EXPORT ORDINAL="195" NAME="??1AGL_CollationElementIterator@agl_2_8@@UAE@XZ" PURGE="-1" COMMENT="" />
    <EXPORT ORDINAL="196" NAME="??1AGL_CollationKey@agl_2_8@@UAE@XZ" PURGE="-1" COMMENT="" />
    <EXPORT ORDINAL="197" NAME="??1AGL_Collator@agl_2_8@@UAE@XZ" PURGE="-1" COMMENT="" />
    <EXPORT ORDINAL="198" NAME="??1AGL_CollatorFactory@agl_2_8@@UAE@XZ" PURGE="-1" COMMENT="" />
    <EXPORT ORDINAL="199" NAME="??1AGL_DateFormat@agl_2_8@@UAE@XZ" PURGE="0" COMMENT="" />
    <EXPORT ORDINAL="200" NAME="??1AGL_DateFormatSymbols@agl_2_8@@UAE@XZ" PURGE="0" COMMENT="" />
    <EXPORT ORDINAL="201" NAME="??1AGL_DecimalFormat@agl_2_8@@UAE@XZ" PURGE="0" COMMENT="" />
    <EXPORT ORDINAL="202" NAME="??1AGL_DecimalFormatSymbols@agl_2_8@@UAE@XZ" PURGE="0" COMMENT="" />
    <EXPORT ORDINAL="203" NAME="??1AGL_FieldPosition@agl_2_8@@UAE@XZ" PURGE="-1" COMMENT="" />
    <EXPORT ORDINAL="204" NAME="??1AGL_Format@agl_2_8@@UAE@XZ" PURGE="-1" COMMENT="" />
    <EXPORT ORDINAL="205" NAME="??1AGL_Formattable@agl_2_8@@UAE@XZ" PURGE="0" COMMENT="" />
    <EXPORT ORDINAL="206" NAME="??1AGL_GregorianCalendar@agl_2_8@@UAE@XZ" PURGE="0" COMMENT="" />
    <EXPORT ORDINAL="207" NAME="??1AGL_MessageFormat@agl_2_8@@UAE@XZ" PURGE="0" COMMENT="" />
    <EXPORT ORDINAL="208" NAME="??1AGL_NumberFormat@agl_2_8@@UAE@XZ" PURGE="-1" COMMENT="" />
    <EXPORT ORDINAL="209" NAME="??1AGL_NumberFormatFactory@agl_2_8@@UAE@XZ" PURGE="-1" COMMENT="" />
    <EXPORT ORDINAL="210" NAME="??1AGL_RegexMatcher@agl_2_8@@UAE@XZ" PURGE="0" COMMENT="" />
    <EXPORT ORDINAL="211" NAME="??1AGL_RegexPattern@agl_2_8@@UAE@XZ" PURGE="0" COMMENT="" />
    <EXPORT ORDINAL="212" NAME="??1AGL_RuleBasedCollator@agl_2_8@@UAE@XZ" PURGE="0" COMMENT="" />
    <EXPORT ORDINAL="213" NAME="??1AGL_RuleBasedNumberFormat@agl_2_8@@UAE@XZ" PURGE="0" COMMENT="" />
    <EXPORT ORDINAL="214" NAME="??1AGL_SearchIterator@agl_2_8@@UAE@XZ" PURGE="0" COMMENT="" />
    <EXPORT ORDINAL="215" NAME="??1AGL_SimpleDateFormat@agl_2_8@@UAE@XZ" PURGE="0" COMMENT="" />
    <EXPORT ORDINAL="216" NAME="??1AGL_SimpleNumberFormatFactory@agl_2_8@@UAE@XZ" PURGE="0" COMMENT="" />
    <EXPORT ORDINAL="217" NAME="??1AGL_SimpleTimeZone@agl_2_8@@UAE@XZ" PURGE="0" COMMENT="" />
    <EXPORT ORDINAL="218" NAME="??1AGL_StringSearch@agl_2_8@@UAE@XZ" PURGE="0" COMMENT="" />
    <EXPORT ORDINAL="219" NAME="??1AGL_TimeZone@agl_2_8@@UAE@XZ" PURGE="0" COMMENT="" />
    <EXPORT ORDINAL="220" NAME="??1AGL_Transliterator@agl_2_8@@UAE@XZ" PURGE="0" COMMENT="" />
    <EXPORT ORDINAL="221" NAME="??1AGL_UnicodeReplacer@agl_2_8@@UAE@XZ" PURGE="0" COMMENT="" />
    <EXPORT ORDINAL="222" NAME="??1AnyTransliterator@agl_2_8@@UAE@XZ" PURGE="0" COMMENT="" />
    <EXPORT ORDINAL="223" NAME="??1BuddhistCalendar@agl_2_8@@UAE@XZ" PURGE="0" COMMENT="" />
    <EXPORT ORDINAL="224" NAME="??1CalendarAstronomer@agl_2_8@@QAE@XZ" PURGE="0" COMMENT="" />
    <EXPORT ORDINAL="225" NAME="??1CalendarCache@agl_2_8@@UAE@XZ" PURGE="0" COMMENT="" />
    <EXPORT ORDINAL="226" NAME="??1CompoundTransliterator@agl_2_8@@UAE@XZ" PURGE="0" COMMENT="" />
    <EXPORT ORDINAL="227" NAME="??1DigitList@agl_2_8@@QAE@XZ" PURGE="0" COMMENT="" />
    <EXPORT ORDINAL="228" NAME="??1EscapeTransliterator@agl_2_8@@UAE@XZ" PURGE="0" COMMENT="" />
    <EXPORT ORDINAL="229" NAME="??1FunctionReplacer@agl_2_8@@UAE@XZ" PURGE="0" COMMENT="" />
    <EXPORT ORDINAL="230" NAME="??1HebrewCalendar@agl_2_8@@UAE@XZ" PURGE="0" COMMENT="" />
    <EXPORT ORDINAL="231" NAME="??1HexToUnicodeTransliterator@agl_2_8@@UAE@XZ" PURGE="0" COMMENT="" />
    <EXPORT ORDINAL="232" NAME="??1IslamicCalendar@agl_2_8@@UAE@XZ" PURGE="0" COMMENT="" />
    <EXPORT ORDINAL="233" NAME="??1JapaneseCalendar@agl_2_8@@UAE@XZ" PURGE="0" COMMENT="" />
    <EXPORT ORDINAL="234" NAME="??1LowercaseTransliterator@agl_2_8@@UAE@XZ" PURGE="0" COMMENT="" />
    <EXPORT ORDINAL="235" NAME="??1NameUnicodeTransliterator@agl_2_8@@UAE@XZ" PURGE="0" COMMENT="" />
    <EXPORT ORDINAL="236" NAME="??1NormalizationTransliterator@agl_2_8@@UAE@XZ" PURGE="0" COMMENT="" />
    <EXPORT ORDINAL="237" NAME="??1NullTransliterator@agl_2_8@@UAE@XZ" PURGE="0" COMMENT="" />
    <EXPORT ORDINAL="238" NAME="??1OlsonTimeZone@agl_2_8@@UAE@XZ" PURGE="0" COMMENT="" />
    <EXPORT ORDINAL="239" NAME="??1RemoveTransliterator@agl_2_8@@UAE@XZ" PURGE="0" COMMENT="" />
    <EXPORT ORDINAL="240" NAME="??1RuleBasedTransliterator@agl_2_8@@UAE@XZ" PURGE="0" COMMENT="" />
    <EXPORT ORDINAL="241" NAME="??1TitlecaseTransliterator@agl_2_8@@UAE@XZ" PURGE="0" COMMENT="" />
    <EXPORT ORDINAL="242" NAME="??1TransliterationRuleData@agl_2_8@@QAE@XZ" PURGE="0" COMMENT="" />
    <EXPORT ORDINAL="243" NAME="??1TransliterationRuleSet@agl_2_8@@UAE@XZ" PURGE="0" COMMENT="" />
    <EXPORT ORDINAL="244" NAME="??1UnescapeTransliterator@agl_2_8@@UAE@XZ" PURGE="0" COMMENT="" />
    <EXPORT ORDINAL="245" NAME="??1UnicodeNameTransliterator@agl_2_8@@UAE@XZ" PURGE="0" COMMENT="" />
    <EXPORT ORDINAL="246" NAME="??1UnicodeToHexTransliterator@agl_2_8@@UAE@XZ" PURGE="0" COMMENT="" />
    <EXPORT ORDINAL="247" NAME="??1UppercaseTransliterator@agl_2_8@@UAE@XZ" PURGE="0" COMMENT="" />
    <EXPORT ORDINAL="248" NAME="??4AGL_Calendar@agl_2_8@@IAEAAV01@ABV01@@Z" PURGE="4" COMMENT="" />
    <EXPORT ORDINAL="249" NAME="??4AGL_ChoiceFormat@agl_2_8@@QAEABV01@ABV01@@Z" PURGE="4" COMMENT="" />
    <EXPORT ORDINAL="250" NAME="??4AGL_CollationElementIterator@agl_2_8@@IAEABV01@ABV01@@Z" PURGE="4" COMMENT="" />
    <EXPORT ORDINAL="251" NAME="??4AGL_CollationKey@agl_2_8@@QAEABV01@ABV01@@Z" PURGE="4" COMMENT="" />
    <EXPORT ORDINAL="252" NAME="??4AGL_CollatorFactory@agl_2_8@@QAEAAV01@ABV01@@Z" PURGE="4" COMMENT="" />
    <EXPORT ORDINAL="253" NAME="??4AGL_DateFormat@agl_2_8@@IAEAAV01@ABV01@@Z" PURGE="4" COMMENT="" />
    <EXPORT ORDINAL="254" NAME="??4AGL_DateFormatSymbols@agl_2_8@@QAEAAV01@ABV01@@Z" PURGE="4" COMMENT="" />
    <EXPORT ORDINAL="255" NAME="??4AGL_DecimalFormat@agl_2_8@@QAEAAV01@ABV01@@Z" PURGE="4" COMMENT="" />
    <EXPORT ORDINAL="256" NAME="??4AGL_DecimalFormatSymbols@agl_2_8@@QAEAAV01@ABV01@@Z" PURGE="4" COMMENT="" />
    <EXPORT ORDINAL="257" NAME="??4AGL_FieldPosition@agl_2_8@@QAEAAV01@ABV01@@Z" PURGE="4" COMMENT="" />
    <EXPORT ORDINAL="258" NAME="??4AGL_Format@agl_2_8@@IAEAAV01@ABV01@@Z" PURGE="4" COMMENT="" />
    <EXPORT ORDINAL="259" NAME="??4AGL_Formattable@agl_2_8@@QAEAAV01@ABV01@@Z" PURGE="4" COMMENT="" />
    <EXPORT ORDINAL="260" NAME="??4AGL_GregorianCalendar@agl_2_8@@QAEAAV01@ABV01@@Z" PURGE="4" COMMENT="" />
    <EXPORT ORDINAL="261" NAME="??4AGL_MessageFormat@agl_2_8@@QAEABV01@ABV01@@Z" PURGE="4" COMMENT="" />
    <EXPORT ORDINAL="262" NAME="??4AGL_NumberFormat@agl_2_8@@IAEAAV01@ABV01@@Z" PURGE="4" COMMENT="" />
    <EXPORT ORDINAL="263" NAME="??4AGL_NumberFormatFactory@agl_2_8@@QAEAAV01@ABV01@@Z" PURGE="4" COMMENT="" />
    <EXPORT ORDINAL="264" NAME="??4AGL_RegexPattern@agl_2_8@@QAEAAV01@ABV01@@Z" PURGE="4" COMMENT="" />
    <EXPORT ORDINAL="265" NAME="??4AGL_RuleBasedCollator@agl_2_8@@QAEAAV01@ABV01@@Z" PURGE="4" COMMENT="" />
    <EXPORT ORDINAL="266" NAME="??4AGL_RuleBasedNumberFormat@agl_2_8@@QAEAAV01@ABV01@@Z" PURGE="4" COMMENT="" />
    <EXPORT ORDINAL="267" NAME="??4AGL_SearchIterator@agl_2_8@@IAEAAV01@ABV01@@Z" PURGE="4" COMMENT="" />
    <EXPORT ORDINAL="268" NAME="??4AGL_SimpleDateFormat@agl_2_8@@QAEAAV01@ABV01@@Z" PURGE="4" COMMENT="" />
    <EXPORT ORDINAL="269" NAME="??4AGL_SimpleTimeZone@agl_2_8@@QAEAAV01@ABV01@@Z" PURGE="4" COMMENT="" />
    <EXPORT ORDINAL="270" NAME="??4AGL_StringSearch@agl_2_8@@QAEAAV01@ABV01@@Z" PURGE="4" COMMENT="" />
    <EXPORT ORDINAL="271" NAME="??4AGL_TimeZone@agl_2_8@@IAEAAV01@ABV01@@Z" PURGE="4" COMMENT="" />
    <EXPORT ORDINAL="272" NAME="??4AGL_Transliterator@agl_2_8@@IAEAAV01@ABV01@@Z" PURGE="4" COMMENT="" />
    <EXPORT ORDINAL="273" NAME="??4AGL_UnicodeReplacer@agl_2_8@@QAEAAV01@ABV01@@Z" PURGE="4" COMMENT="" />
    <EXPORT ORDINAL="274" NAME="??4AngleFunc@CalendarAstronomer@agl_2_8@@QAEAAV012@ABV012@@Z" PURGE="4" COMMENT="" />
    <EXPORT ORDINAL="275" NAME="??4AnyTransliterator@agl_2_8@@QAEAAV01@ABV01@@Z" PURGE="4" COMMENT="" />
    <EXPORT ORDINAL="276" NAME="??4BuddhistCalendar@agl_2_8@@QAEAAV01@ABV01@@Z" PURGE="4" COMMENT="" />
    <EXPORT ORDINAL="277" NAME="??4CalendarAstronomer@agl_2_8@@QAEAAV01@ABV01@@Z" PURGE="4" COMMENT="" />
    <EXPORT ORDINAL="278" NAME="??4CalendarCache@agl_2_8@@QAEAAV01@ABV01@@Z" PURGE="4" COMMENT="" />
    <EXPORT ORDINAL="279" NAME="??4CompoundTransliterator@agl_2_8@@QAEAAV01@ABV01@@Z" PURGE="4" COMMENT="" />
    <EXPORT ORDINAL="280" NAME="??4CoordFunc@CalendarAstronomer@agl_2_8@@QAEAAV012@ABV012@@Z" PURGE="4" COMMENT="" />
    <EXPORT ORDINAL="281" NAME="??4DigitList@agl_2_8@@QAEAAV01@ABV01@@Z" PURGE="4" COMMENT="" />
    <EXPORT ORDINAL="282" NAME="??4Ecliptic@CalendarAstronomer@agl_2_8@@QAEAAV012@ABV012@@Z" PURGE="4" COMMENT="" />
    <EXPORT ORDINAL="283" NAME="??4Equatorial@CalendarAstronomer@agl_2_8@@QAEAAV012@ABV012@@Z" PURGE="4" COMMENT="" />
    <EXPORT ORDINAL="284" NAME="??4EscapeTransliterator@agl_2_8@@QAEAAV01@ABV01@@Z" PURGE="4" COMMENT="" />
    <EXPORT ORDINAL="285" NAME="??4FunctionReplacer@agl_2_8@@QAEAAV01@ABV01@@Z" PURGE="4" COMMENT="" />
    <EXPORT ORDINAL="286" NAME="??4Grego@agl_2_8@@QAEAAV01@ABV01@@Z" PURGE="4" COMMENT="" />
    <EXPORT ORDINAL="287" NAME="??4HexToUnicodeTransliterator@agl_2_8@@QAEAAV01@ABV01@@Z" PURGE="4" COMMENT="" />
    <EXPORT ORDINAL="288" NAME="??4Horizon@CalendarAstronomer@agl_2_8@@QAEAAV012@ABV012@@Z" PURGE="4" COMMENT="" />
    <EXPORT ORDINAL="289" NAME="??4IslamicCalendar@agl_2_8@@QAEAAV01@ABV01@@Z" PURGE="4" COMMENT="" />
    <EXPORT ORDINAL="290" NAME="??4JapaneseCalendar@agl_2_8@@QAEAAV01@ABV01@@Z" PURGE="4" COMMENT="" />
    <EXPORT ORDINAL="291" NAME="??4LowercaseTransliterator@agl_2_8@@QAEAAV01@ABV01@@Z" PURGE="4" COMMENT="" />
    <EXPORT ORDINAL="292" NAME="??4Math@agl_2_8@@QAEAAV01@ABV01@@Z" PURGE="4" COMMENT="" />
    <EXPORT ORDINAL="293" NAME="??4MoonAge@CalendarAstronomer@agl_2_8@@QAEAAV012@ABV012@@Z" PURGE="4" COMMENT="" />
    <EXPORT ORDINAL="294" NAME="??4NameUnicodeTransliterator@agl_2_8@@QAEAAV01@ABV01@@Z" PURGE="4" COMMENT="" />
    <EXPORT ORDINAL="295" NAME="??4NormalizationTransliterator@agl_2_8@@QAEAAV01@ABV01@@Z" PURGE="4" COMMENT="" />
    <EXPORT ORDINAL="296" NAME="??4NullTransliterator@agl_2_8@@QAEAAV01@ABV01@@Z" PURGE="4" COMMENT="" />
    <EXPORT ORDINAL="297" NAME="??4OlsonTimeZone@agl_2_8@@QAEAAV01@ABV01@@Z" PURGE="4" COMMENT="" />
    <EXPORT ORDINAL="298" NAME="??4RemoveTransliterator@agl_2_8@@QAEAAV01@ABV01@@Z" PURGE="4" COMMENT="" />
    <EXPORT ORDINAL="299" NAME="??4RuleBasedTransliterator@agl_2_8@@QAEAAV01@ABV01@@Z" PURGE="4" COMMENT="" />
    <EXPORT ORDINAL="300" NAME="??4TitlecaseTransliterator@agl_2_8@@QAEAAV01@ABV01@@Z" PURGE="4" COMMENT="" />
    <EXPORT ORDINAL="301" NAME="??4UnescapeTransliterator@agl_2_8@@QAEAAV01@ABV01@@Z" PURGE="4" COMMENT="" />
    <EXPORT ORDINAL="302" NAME="??4UnicodeNameTransliterator@agl_2_8@@QAEAAV01@ABV01@@Z" PURGE="4" COMMENT="" />
    <EXPORT ORDINAL="303" NAME="??4UnicodeToHexTransliterator@agl_2_8@@QAEAAV01@ABV01@@Z" PURGE="4" COMMENT="" />
    <EXPORT ORDINAL="304" NAME="??4UppercaseTransliterator@agl_2_8@@QAEAAV01@ABV01@@Z" PURGE="4" COMMENT="" />
    <EXPORT ORDINAL="305" NAME="??8AGL_Calendar@agl_2_8@@UBECABV01@@Z" PURGE="4" COMMENT="" />
    <EXPORT ORDINAL="306" NAME="??8AGL_ChoiceFormat@agl_2_8@@UBECABVAGL_Format@1@@Z" PURGE="4" COMMENT="" />
    <EXPORT ORDINAL="307" NAME="??8AGL_CollationElementIterator@agl_2_8@@QBECABV01@@Z" PURGE="4" COMMENT="" />
    <EXPORT ORDINAL="308" NAME="??8AGL_CollationKey@agl_2_8@@QBECABV01@@Z" PURGE="4" COMMENT="" />
    <EXPORT ORDINAL="309" NAME="??8AGL_Collator@agl_2_8@@UBECABV01@@Z" PURGE="4" COMMENT="" />
    <EXPORT ORDINAL="310" NAME="??8AGL_DateFormat@agl_2_8@@UBECABVAGL_Format@1@@Z" PURGE="4" COMMENT="" />
    <EXPORT ORDINAL="311" NAME="??8AGL_DateFormatSymbols@agl_2_8@@QBECABV01@@Z" PURGE="4" COMMENT="" />
    <EXPORT ORDINAL="312" NAME="??8AGL_DecimalFormat@agl_2_8@@UBECABVAGL_Format@1@@Z" PURGE="4" COMMENT="" />
    <EXPORT ORDINAL="313" NAME="??8AGL_DecimalFormatSymbols@agl_2_8@@QBECABV01@@Z" PURGE="4" COMMENT="" />
    <EXPORT ORDINAL="314" NAME="??8AGL_FieldPosition@agl_2_8@@QBECABV01@@Z" PURGE="4" COMMENT="" />
    <EXPORT ORDINAL="315" NAME="??8AGL_Format@agl_2_8@@UBECABV01@@Z" PURGE="4" COMMENT="" />
    <EXPORT ORDINAL="316" NAME="??8AGL_Formattable@agl_2_8@@QBECABV01@@Z" PURGE="4" COMMENT="" />
    <EXPORT ORDINAL="317" NAME="??8AGL_MessageFormat@agl_2_8@@UBECABVAGL_Format@1@@Z" PURGE="4" COMMENT="" />
    <EXPORT ORDINAL="318" NAME="??8AGL_NumberFormat@agl_2_8@@UBECABVAGL_Format@1@@Z" PURGE="4" COMMENT="" />
    <EXPORT ORDINAL="319" NAME="??8AGL_RegexPattern@agl_2_8@@QBECABV01@@Z" PURGE="4" COMMENT="" />
    <EXPORT ORDINAL="320" NAME="??8AGL_RuleBasedCollator@agl_2_8@@UBECABVAGL_Collator@1@@Z" PURGE="4" COMMENT="" />
    <EXPORT ORDINAL="321" NAME="??8AGL_RuleBasedNumberFormat@agl_2_8@@UBECABVAGL_Format@1@@Z" PURGE="4" COMMENT="" />
    <EXPORT ORDINAL="322" NAME="??8AGL_SearchIterator@agl_2_8@@UBECABV01@@Z" PURGE="4" COMMENT="" />
    <EXPORT ORDINAL="323" NAME="??8AGL_SimpleDateFormat@agl_2_8@@UBECABVAGL_Format@1@@Z" PURGE="4" COMMENT="" />
    <EXPORT ORDINAL="324" NAME="??8AGL_SimpleTimeZone@agl_2_8@@UBECABVAGL_TimeZone@1@@Z" PURGE="4" COMMENT="" />
    <EXPORT ORDINAL="325" NAME="??8AGL_StringSearch@agl_2_8@@UBECABVAGL_SearchIterator@1@@Z" PURGE="4" COMMENT="" />
    <EXPORT ORDINAL="326" NAME="??8AGL_TimeZone@agl_2_8@@UBECABV01@@Z" PURGE="4" COMMENT="" />
    <EXPORT ORDINAL="327" NAME="??8DigitList@agl_2_8@@QBECABV01@@Z" PURGE="4" COMMENT="" />
    <EXPORT ORDINAL="328" NAME="??8OlsonTimeZone@agl_2_8@@UBECABVAGL_TimeZone@1@@Z" PURGE="4" COMMENT="" />
    <EXPORT ORDINAL="329" NAME="??9AGL_Calendar@agl_2_8@@QBECABV01@@Z" PURGE="4" COMMENT="" />
    <EXPORT ORDINAL="330" NAME="??9AGL_CollationElementIterator@agl_2_8@@QBECABV01@@Z" PURGE="4" COMMENT="" />
    <EXPORT ORDINAL="331" NAME="??9AGL_CollationKey@agl_2_8@@QBECABV01@@Z" PURGE="4" COMMENT="" />
    <EXPORT ORDINAL="332" NAME="??9AGL_Collator@agl_2_8@@UBECABV01@@Z" PURGE="4" COMMENT="" />
    <EXPORT ORDINAL="333" NAME="??9AGL_DateFormatSymbols@agl_2_8@@QBECABV01@@Z" PURGE="4" COMMENT="" />
    <EXPORT ORDINAL="334" NAME="??9AGL_DecimalFormatSymbols@agl_2_8@@QBECABV01@@Z" PURGE="4" COMMENT="" />
    <EXPORT ORDINAL="335" NAME="??9AGL_FieldPosition@agl_2_8@@QBECABV01@@Z" PURGE="4" COMMENT="" />
    <EXPORT ORDINAL="336" NAME="??9AGL_Format@agl_2_8@@QBECABV01@@Z" PURGE="4" COMMENT="" />
    <EXPORT ORDINAL="337" NAME="??9AGL_Formattable@agl_2_8@@QBECABV01@@Z" PURGE="4" COMMENT="" />
    <EXPORT ORDINAL="338" NAME="??9AGL_RegexPattern@agl_2_8@@QBECABV01@@Z" PURGE="4" COMMENT="" />
    <EXPORT ORDINAL="339" NAME="??9AGL_RuleBasedCollator@agl_2_8@@UBECABVAGL_Collator@1@@Z" PURGE="4" COMMENT="" />
    <EXPORT ORDINAL="340" NAME="??9AGL_SearchIterator@agl_2_8@@QBECABV01@@Z" PURGE="4" COMMENT="" />
    <EXPORT ORDINAL="341" NAME="??9AGL_TimeZone@agl_2_8@@QBECABV01@@Z" PURGE="4" COMMENT="" />
    <EXPORT ORDINAL="342" NAME="??9DigitList@agl_2_8@@QBECABV01@@Z" PURGE="4" COMMENT="" />
    <EXPORT ORDINAL="343" NAME="??AAGL_Formattable@agl_2_8@@QAEAAV01@J@Z" PURGE="4" COMMENT="" />
    <EXPORT ORDINAL="344" NAME="??_7AGL_Calendar@agl_2_8@@6B@" PURGE="-1" COMMENT="" />
    <EXPORT ORDINAL="345" NAME="??_7AGL_ChoiceFormat@agl_2_8@@6B@" PURGE="-1" COMMENT="" />
    <EXPORT ORDINAL="346" NAME="??_7AGL_CollationElementIterator@agl_2_8@@6B@" PURGE="-1" COMMENT="" />
    <EXPORT ORDINAL="347" NAME="??_7AGL_CollationKey@agl_2_8@@6B@" PURGE="-1" COMMENT="" />
    <EXPORT ORDINAL="348" NAME="??_7AGL_Collator@agl_2_8@@6B@" PURGE="-1" COMMENT="" />
    <EXPORT ORDINAL="349" NAME="??_7AGL_CollatorFactory@agl_2_8@@6B@" PURGE="-1" COMMENT="" />
    <EXPORT ORDINAL="350" NAME="??_7AGL_DateFormat@agl_2_8@@6B@" PURGE="-1" COMMENT="" />
    <EXPORT ORDINAL="351" NAME="??_7AGL_DateFormatSymbols@agl_2_8@@6B@" PURGE="-1" COMMENT="" />
    <EXPORT ORDINAL="352" NAME="??_7AGL_DecimalFormat@agl_2_8@@6B@" PURGE="-1" COMMENT="" />
    <EXPORT ORDINAL="353" NAME="??_7AGL_DecimalFormatSymbols@agl_2_8@@6B@" PURGE="-1" COMMENT="" />
    <EXPORT ORDINAL="354" NAME="??_7AGL_FieldPosition@agl_2_8@@6B@" PURGE="-1" COMMENT="" />
    <EXPORT ORDINAL="355" NAME="??_7AGL_Format@agl_2_8@@6B@" PURGE="-1" COMMENT="" />
    <EXPORT ORDINAL="356" NAME="??_7AGL_Formattable@agl_2_8@@6B@" PURGE="-1" COMMENT="" />
    <EXPORT ORDINAL="357" NAME="??_7AGL_GregorianCalendar@agl_2_8@@6B@" PURGE="-1" COMMENT="" />
    <EXPORT ORDINAL="358" NAME="??_7AGL_MessageFormat@agl_2_8@@6B@" PURGE="-1" COMMENT="" />
    <EXPORT ORDINAL="359" NAME="??_7AGL_NumberFormat@agl_2_8@@6B@" PURGE="-1" COMMENT="" />
    <EXPORT ORDINAL="360" NAME="??_7AGL_NumberFormatFactory@agl_2_8@@6B@" PURGE="-1" COMMENT="" />
    <EXPORT ORDINAL="361" NAME="??_7AGL_RegexMatcher@agl_2_8@@6B@" PURGE="-1" COMMENT="" />
    <EXPORT ORDINAL="362" NAME="??_7AGL_RegexPattern@agl_2_8@@6B@" PURGE="-1" COMMENT="" />
    <EXPORT ORDINAL="363" NAME="??_7AGL_RuleBasedCollator@agl_2_8@@6B@" PURGE="-1" COMMENT="" />
    <EXPORT ORDINAL="364" NAME="??_7AGL_RuleBasedNumberFormat@agl_2_8@@6B@" PURGE="-1" COMMENT="" />
    <EXPORT ORDINAL="365" NAME="??_7AGL_SearchIterator@agl_2_8@@6B@" PURGE="-1" COMMENT="" />
    <EXPORT ORDINAL="366" NAME="??_7AGL_SimpleDateFormat@agl_2_8@@6B@" PURGE="-1" COMMENT="" />
    <EXPORT ORDINAL="367" NAME="??_7AGL_SimpleNumberFormatFactory@agl_2_8@@6B@" PURGE="-1" COMMENT="" />
    <EXPORT ORDINAL="368" NAME="??_7AGL_SimpleTimeZone@agl_2_8@@6B@" PURGE="-1" COMMENT="" />
    <EXPORT ORDINAL="369" NAME="??_7AGL_StringSearch@agl_2_8@@6B@" PURGE="-1" COMMENT="" />
    <EXPORT ORDINAL="370" NAME="??_7AGL_TimeZone@agl_2_8@@6B@" PURGE="-1" COMMENT="" />
    <EXPORT ORDINAL="371" NAME="??_7AGL_Transliterator@agl_2_8@@6B@" PURGE="-1" COMMENT="" />
    <EXPORT ORDINAL="372" NAME="??_7AGL_UnicodeReplacer@agl_2_8@@6B@" PURGE="-1" COMMENT="" />
    <EXPORT ORDINAL="373" NAME="??_7AngleFunc@CalendarAstronomer@agl_2_8@@6B@" PURGE="-1" COMMENT="" />
    <EXPORT ORDINAL="374" NAME="??_7AnyTransliterator@agl_2_8@@6B@" PURGE="-1" COMMENT="" />
    <EXPORT ORDINAL="375" NAME="??_7BuddhistCalendar@agl_2_8@@6B@" PURGE="-1" COMMENT="" />
    <EXPORT ORDINAL="376" NAME="??_7CalendarCache@agl_2_8@@6B@" PURGE="-1" COMMENT="" />
    <EXPORT ORDINAL="377" NAME="??_7CompoundTransliterator@agl_2_8@@6B@" PURGE="-1" COMMENT="" />
    <EXPORT ORDINAL="378" NAME="??_7CoordFunc@CalendarAstronomer@agl_2_8@@6B@" PURGE="-1" COMMENT="" />
    <EXPORT ORDINAL="379" NAME="??_7EscapeTransliterator@agl_2_8@@6B@" PURGE="-1" COMMENT="" />
    <EXPORT ORDINAL="380" NAME="??_7FunctionReplacer@agl_2_8@@6BAGL_UnicodeFunctor@1@@" PURGE="-1" COMMENT="" />
    <EXPORT ORDINAL="381" NAME="??_7FunctionReplacer@agl_2_8@@6BAGL_UnicodeReplacer@1@@" PURGE="-1" COMMENT="" />
    <EXPORT ORDINAL="382" NAME="??_7HebrewCalendar@agl_2_8@@6B@" PURGE="-1" COMMENT="" />
    <EXPORT ORDINAL="383" NAME="??_7HexToUnicodeTransliterator@agl_2_8@@6B@" PURGE="-1" COMMENT="" />
    <EXPORT ORDINAL="384" NAME="??_7IslamicCalendar@agl_2_8@@6B@" PURGE="-1" COMMENT="" />
    <EXPORT ORDINAL="385" NAME="??_7JapaneseCalendar@agl_2_8@@6B@" PURGE="-1" COMMENT="" />
    <EXPORT ORDINAL="386" NAME="??_7LowercaseTransliterator@agl_2_8@@6B@" PURGE="-1" COMMENT="" />
    <EXPORT ORDINAL="387" NAME="??_7NameUnicodeTransliterator@agl_2_8@@6B@" PURGE="-1" COMMENT="" />
    <EXPORT ORDINAL="388" NAME="??_7NormalizationTransliterator@agl_2_8@@6B@" PURGE="-1" COMMENT="" />
    <EXPORT ORDINAL="389" NAME="??_7NullTransliterator@agl_2_8@@6B@" PURGE="-1" COMMENT="" />
    <EXPORT ORDINAL="390" NAME="??_7OlsonTimeZone@agl_2_8@@6B@" PURGE="-1" COMMENT="" />
    <EXPORT ORDINAL="391" NAME="??_7RemoveTransliterator@agl_2_8@@6B@" PURGE="-1" COMMENT="" />
    <EXPORT ORDINAL="392" NAME="??_7RuleBasedTransliterator@agl_2_8@@6B@" PURGE="-1" COMMENT="" />
    <EXPORT ORDINAL="393" NAME="??_7TitlecaseTransliterator@agl_2_8@@6B@" PURGE="-1" COMMENT="" />
    <EXPORT ORDINAL="394" NAME="??_7TransliterationRuleSet@agl_2_8@@6B@" PURGE="-1" COMMENT="" />
    <EXPORT ORDINAL="395" NAME="??_7UnescapeTransliterator@agl_2_8@@6B@" PURGE="-1" COMMENT="" />
    <EXPORT ORDINAL="396" NAME="??_7UnicodeNameTransliterator@agl_2_8@@6B@" PURGE="-1" COMMENT="" />
    <EXPORT ORDINAL="397" NAME="??_7UnicodeToHexTransliterator@agl_2_8@@6B@" PURGE="-1" COMMENT="" />
    <EXPORT ORDINAL="398" NAME="??_7UppercaseTransliterator@agl_2_8@@6B@" PURGE="-1" COMMENT="" />
    <EXPORT ORDINAL="399" NAME="??_FEcliptic@CalendarAstronomer@agl_2_8@@QAEXXZ" PURGE="0" COMMENT="" />
    <EXPORT ORDINAL="400" NAME="??_FEquatorial@CalendarAstronomer@agl_2_8@@QAEXXZ" PURGE="0" COMMENT="" />
    <EXPORT ORDINAL="401" NAME="??_FHexToUnicodeTransliterator@agl_2_8@@QAEXXZ" PURGE="0" COMMENT="" />
    <EXPORT ORDINAL="402" NAME="??_FHorizon@CalendarAstronomer@agl_2_8@@QAEXXZ" PURGE="0" COMMENT="" />
    <EXPORT ORDINAL="403" NAME="??_FLowercaseTransliterator@agl_2_8@@QAEXXZ" PURGE="0" COMMENT="" />
    <EXPORT ORDINAL="404" NAME="??_FNameUnicodeTransliterator@agl_2_8@@QAEXXZ" PURGE="0" COMMENT="" />
    <EXPORT ORDINAL="405" NAME="??_FTitlecaseTransliterator@agl_2_8@@QAEXXZ" PURGE="0" COMMENT="" />
    <EXPORT ORDINAL="406" NAME="??_FUnicodeNameTransliterator@agl_2_8@@QAEXXZ" PURGE="0" COMMENT="" />
    <EXPORT ORDINAL="407" NAME="??_FUnicodeToHexTransliterator@agl_2_8@@QAEXXZ" PURGE="0" COMMENT="" />
    <EXPORT ORDINAL="408" NAME="??_FUppercaseTransliterator@agl_2_8@@QAEXXZ" PURGE="0" COMMENT="" />
    <EXPORT ORDINAL="409" NAME="?AUTUMN_EQUINOX@CalendarAstronomer@agl_2_8@@SANXZ" PURGE="0" COMMENT="" />
    <EXPORT ORDINAL="410" NAME="?CHARINDEX@AGL_RuleBasedCollator@agl_2_8@@0JB" PURGE="-1" COMMENT="" />
    <EXPORT ORDINAL="411" NAME="?COLELEMENTSTART@AGL_RuleBasedCollator@agl_2_8@@0JB" PURGE="-1" COMMENT="" />
    <EXPORT ORDINAL="412" NAME="?CONTRACTCHARINDEX@AGL_RuleBasedCollator@agl_2_8@@0JB" PURGE="-1" COMMENT="" />
    <EXPORT ORDINAL="413" NAME="?DAYS_BEFORE@Grego@agl_2_8@@0QBFB" PURGE="-1" COMMENT="" />
    <EXPORT ORDINAL="414" NAME="?EXPANDCHARINDEX@AGL_RuleBasedCollator@agl_2_8@@0JB" PURGE="-1" COMMENT="" />
    <EXPORT ORDINAL="415" NAME="?FIRST_QUARTER@CalendarAstronomer@agl_2_8@@SA?BVMoonAge@12@XZ" PURGE="0" COMMENT="" />
    <EXPORT ORDINAL="416" NAME="?FULL_MOON@CalendarAstronomer@agl_2_8@@SA?BVMoonAge@12@XZ" PURGE="0" COMMENT="" />
    <EXPORT ORDINAL="417" NAME="?ID@NullTransliterator@agl_2_8@@2QBGB" PURGE="-1" COMMENT="" />
    <EXPORT ORDINAL="418" NAME="?IGNORABLEMASK@AGL_RuleBasedCollator@agl_2_8@@0JB" PURGE="-1" COMMENT="" />
    <EXPORT ORDINAL="419" NAME="?LAST_QUARTER@CalendarAstronomer@agl_2_8@@SA?BVMoonAge@12@XZ" PURGE="0" COMMENT="" />
    <EXPORT ORDINAL="420" NAME="?MONTH_LENGTH@Grego@agl_2_8@@0QBCB" PURGE="-1" COMMENT="" />
    <EXPORT ORDINAL="421" NAME="?MatchAt@AGL_RegexMatcher@agl_2_8@@AAEXJAAW4AGL_UErrorCode@@@Z" PURGE="8" COMMENT="" />
    <EXPORT ORDINAL="422" NAME="?NEW_MOON@CalendarAstronomer@agl_2_8@@SA?BVMoonAge@12@XZ" PURGE="0" COMMENT="" />
    <EXPORT ORDINAL="423" NAME="?NULLORDER@AGL_CollationElementIterator@agl_2_8@@2JB" PURGE="-1" COMMENT="" />
    <EXPORT ORDINAL="424" NAME="?PI@CalendarAstronomer@agl_2_8@@2NB" PURGE="-1" COMMENT="" />
    <EXPORT ORDINAL="425" NAME="?PRIMARYDIFFERENCEONLY@AGL_RuleBasedCollator@agl_2_8@@0JB" PURGE="-1" COMMENT="" />
    <EXPORT ORDINAL="426" NAME="?PRIMARYLOWZEROMASK@AGL_RuleBasedCollator@agl_2_8@@0JB" PURGE="-1" COMMENT="" />
    <EXPORT ORDINAL="427" NAME="?PRIMARYORDERINCREMENT@AGL_RuleBasedCollator@agl_2_8@@0JB" PURGE="-1" COMMENT="" />
    <EXPORT ORDINAL="428" NAME="?PRIMARYORDERMASK@AGL_RuleBasedCollator@agl_2_8@@0JB" PURGE="-1" COMMENT="" />
    <EXPORT ORDINAL="429" NAME="?PRIMARYORDERSHIFT@AGL_RuleBasedCollator@agl_2_8@@0JB" PURGE="-1" COMMENT="" />
    <EXPORT ORDINAL="430" NAME="?PRIMIGNORABLE@AGL_RuleBasedCollator@agl_2_8@@0JB" PURGE="-1" COMMENT="" />
    <EXPORT ORDINAL="431" NAME="?RESETSECONDARYTERTIARY@AGL_RuleBasedCollator@agl_2_8@@0JB" PURGE="-1" COMMENT="" />
    <EXPORT ORDINAL="432" NAME="?RESETTERTIARY@AGL_RuleBasedCollator@agl_2_8@@0JB" PURGE="-1" COMMENT="" />
    <EXPORT ORDINAL="433" NAME="?SECONDARYDIFFERENCEONLY@AGL_RuleBasedCollator@agl_2_8@@0JB" PURGE="-1" COMMENT="" />
    <EXPORT ORDINAL="434" NAME="?SECONDARYORDERINCREMENT@AGL_RuleBasedCollator@agl_2_8@@0JB" PURGE="-1" COMMENT="" />
    <EXPORT ORDINAL="435" NAME="?SECONDARYORDERMASK@AGL_RuleBasedCollator@agl_2_8@@0JB" PURGE="-1" COMMENT="" />
    <EXPORT ORDINAL="436" NAME="?SECONDARYORDERSHIFT@AGL_RuleBasedCollator@agl_2_8@@0JB" PURGE="-1" COMMENT="" />
    <EXPORT ORDINAL="437" NAME="?SHORT_ID@NullTransliterator@agl_2_8@@2QBGB" PURGE="-1" COMMENT="" />
    <EXPORT ORDINAL="438" NAME="?STATICMONTHLENGTH@AGL_SimpleTimeZone@agl_2_8@@0QBCB" PURGE="-1" COMMENT="" />
    <EXPORT ORDINAL="439" NAME="?SUMMER_SOLSTICE@CalendarAstronomer@agl_2_8@@SANXZ" PURGE="0" COMMENT="" />
    <EXPORT ORDINAL="440" NAME="?SYNODIC_MONTH@CalendarAstronomer@agl_2_8@@2NB" PURGE="-1" COMMENT="" />
    <EXPORT ORDINAL="441" NAME="?StateSave@AGL_RegexMatcher@agl_2_8@@AAEPAUREStackFrame@2@PAU32@JJAAW4AGL_UErrorCode@@@Z" PURGE="16" COMMENT="" />
    <EXPORT ORDINAL="442" NAME="?TERTIARYORDERINCREMENT@AGL_RuleBasedCollator@agl_2_8@@0JB" PURGE="-1" COMMENT="" />
    <EXPORT ORDINAL="443" NAME="?TERTIARYORDERMASK@AGL_RuleBasedCollator@agl_2_8@@0JB" PURGE="-1" COMMENT="" />
    <EXPORT ORDINAL="444" NAME="?UNMAPPED@AGL_RuleBasedCollator@agl_2_8@@0JB" PURGE="-1" COMMENT="" />
    <EXPORT ORDINAL="445" NAME="?VERNAL_EQUINOX@CalendarAstronomer@agl_2_8@@SANXZ" PURGE="0" COMMENT="" />
    <EXPORT ORDINAL="446" NAME="?WINTER_SOLSTICE@CalendarAstronomer@agl_2_8@@SANXZ" PURGE="0" COMMENT="" />
    <EXPORT ORDINAL="447" NAME="?_construct@RuleBasedTransliterator@agl_2_8@@AAEXABVAGL_UnicodeString@2@W4AGL_UTransDirection@@AAUAGL_UParseError@@AAW4AGL_UErrorCode@@@Z" PURGE="16" COMMENT="" />
    <EXPORT ORDINAL="448" NAME="?_countAvailableSources@AGL_Transliterator@agl_2_8@@KAJXZ" PURGE="-1" COMMENT="" />
    <EXPORT ORDINAL="449" NAME="?_countAvailableTargets@AGL_Transliterator@agl_2_8@@KAJABVAGL_UnicodeString@2@@Z" PURGE="0" COMMENT="" />
    <EXPORT ORDINAL="450" NAME="?_countAvailableVariants@AGL_Transliterator@agl_2_8@@KAJABVAGL_UnicodeString@2@0@Z" PURGE="0" COMMENT="" />
    <EXPORT ORDINAL="451" NAME="?_create@NormalizationTransliterator@agl_2_8@@CAPAVAGL_Transliterator@2@ABVAGL_UnicodeString@2@TToken@32@@Z" PURGE="0" COMMENT="" />
    <EXPORT ORDINAL="452" NAME="?_create@RemoveTransliterator@agl_2_8@@CAPAVAGL_Transliterator@2@ABVAGL_UnicodeString@2@TToken@32@@Z" PURGE="0" COMMENT="" />
    <EXPORT ORDINAL="453" NAME="?_createAny@UnescapeTransliterator@agl_2_8@@CAPAVAGL_Transliterator@2@ABVAGL_UnicodeString@2@TToken@32@@Z" PURGE="0" COMMENT="" />
    <EXPORT ORDINAL="454" NAME="?_createC@EscapeTransliterator@agl_2_8@@CAPAVAGL_Transliterator@2@ABVAGL_UnicodeString@2@TToken@32@@Z" PURGE="0" COMMENT="" />
    <EXPORT ORDINAL="455" NAME="?_createC@UnescapeTransliterator@agl_2_8@@CAPAVAGL_Transliterator@2@ABVAGL_UnicodeString@2@TToken@32@@Z" PURGE="0" COMMENT="" />
    <EXPORT ORDINAL="456" NAME="?_createJava@EscapeTransliterator@agl_2_8@@CAPAVAGL_Transliterator@2@ABVAGL_UnicodeString@2@TToken@32@@Z" PURGE="0" COMMENT="" />
    <EXPORT ORDINAL="457" NAME="?_createJava@UnescapeTransliterator@agl_2_8@@CAPAVAGL_Transliterator@2@ABVAGL_UnicodeString@2@TToken@32@@Z" PURGE="0" COMMENT="" />
    <EXPORT ORDINAL="458" NAME="?_createPerl@EscapeTransliterator@agl_2_8@@CAPAVAGL_Transliterator@2@ABVAGL_UnicodeString@2@TToken@32@@Z" PURGE="0" COMMENT="" />
    <EXPORT ORDINAL="459" NAME="?_createPerl@UnescapeTransliterator@agl_2_8@@CAPAVAGL_Transliterator@2@ABVAGL_UnicodeString@2@TToken@32@@Z" PURGE="0" COMMENT="" />
    <EXPORT ORDINAL="460" NAME="?_createUnicode@EscapeTransliterator@agl_2_8@@CAPAVAGL_Transliterator@2@ABVAGL_UnicodeString@2@TToken@32@@Z" PURGE="0" COMMENT="" />
    <EXPORT ORDINAL="461" NAME="?_createUnicode@UnescapeTransliterator@agl_2_8@@CAPAVAGL_Transliterator@2@ABVAGL_UnicodeString@2@TToken@32@@Z" PURGE="0" COMMENT="" />
    <EXPORT ORDINAL="462" NAME="?_createXML10@EscapeTransliterator@agl_2_8@@CAPAVAGL_Transliterator@2@ABVAGL_UnicodeString@2@TToken@32@@Z" PURGE="0" COMMENT="" />
    <EXPORT ORDINAL="463" NAME="?_createXML10@UnescapeTransliterator@agl_2_8@@CAPAVAGL_Transliterator@2@ABVAGL_UnicodeString@2@TToken@32@@Z" PURGE="0" COMMENT="" />
    <EXPORT ORDINAL="464" NAME="?_createXML@EscapeTransliterator@agl_2_8@@CAPAVAGL_Transliterator@2@ABVAGL_UnicodeString@2@TToken@32@@Z" PURGE="0" COMMENT="" />
    <EXPORT ORDINAL="465" NAME="?_createXML@UnescapeTransliterator@agl_2_8@@CAPAVAGL_Transliterator@2@ABVAGL_UnicodeString@2@TToken@32@@Z" PURGE="0" COMMENT="" />
    <EXPORT ORDINAL="466" NAME="?_getAvailableSource@AGL_Transliterator@agl_2_8@@KAAAVAGL_UnicodeString@2@JAAV32@@Z" PURGE="0" COMMENT="" />
    <EXPORT ORDINAL="467" NAME="?_getAvailableTarget@AGL_Transliterator@agl_2_8@@KAAAVAGL_UnicodeString@2@JABV32@AAV32@@Z" PURGE="0" COMMENT="" />
    <EXPORT ORDINAL="468" NAME="?_getAvailableVariant@AGL_Transliterator@agl_2_8@@KAAAVAGL_UnicodeString@2@JABV32@0AAV32@@Z" PURGE="0" COMMENT="" />
    <EXPORT ORDINAL="469" NAME="?_getZoneIndex@AGL_DateFormatSymbols@agl_2_8@@ABEJABVAGL_UnicodeString@2@@Z" PURGE="4" COMMENT="" />
    <EXPORT ORDINAL="470" NAME="?_registerFactory@AGL_Transliterator@agl_2_8@@KAXABVAGL_UnicodeString@2@P6APAV12@0TToken@12@@Z1@Z" PURGE="0" COMMENT="" />
    <EXPORT ORDINAL="471" NAME="?_registerInstance@AGL_Transliterator@agl_2_8@@KAXPAV12@@Z" PURGE="0" COMMENT="" />
    <EXPORT ORDINAL="472" NAME="?_registerSpecialInverse@AGL_Transliterator@agl_2_8@@KAXABVAGL_UnicodeString@2@0C@Z" PURGE="0" COMMENT="" />
    <EXPORT ORDINAL="473" NAME="?_transliterate@AGL_Transliterator@agl_2_8@@ABEXAAVAGL_Replaceable@2@AAUAGL_UTransPosition@@PBVAGL_UnicodeString@2@AAW4AGL_UErrorCode@@@Z" PURGE="16" COMMENT="" />
    <EXPORT ORDINAL="474" NAME="?absoluteDayToDayOfWeek@HebrewCalendar@agl_2_8@@CAJJ@Z" PURGE="0" COMMENT="" />
    <EXPORT ORDINAL="475" NAME="?add@AGL_Calendar@agl_2_8@@UAEXW4AGL_UCalendarDateFields@@JAAW4AGL_UErrorCode@@@Z" PURGE="12" COMMENT="" />
    <EXPORT ORDINAL="476" NAME="?add@AGL_Calendar@agl_2_8@@UAEXW4EDateFields@12@JAAW4AGL_UErrorCode@@@Z" PURGE="12" COMMENT="" />
    <EXPORT ORDINAL="477" NAME="?add@BuddhistCalendar@agl_2_8@@UAEXW4AGL_UCalendarDateFields@@JAAW4AGL_UErrorCode@@@Z" PURGE="12" COMMENT="" />
    <EXPORT ORDINAL="478" NAME="?add@BuddhistCalendar@agl_2_8@@UAEXW4EDateFields@AGL_Calendar@2@JAAW4AGL_UErrorCode@@@Z" PURGE="-1" COMMENT="" />
    <EXPORT ORDINAL="479" NAME="?add@HebrewCalendar@agl_2_8@@UAEXW4AGL_UCalendarDateFields@@JAAW4AGL_UErrorCode@@@Z" PURGE="12" COMMENT="" />
    <EXPORT ORDINAL="480" NAME="?add@HebrewCalendar@agl_2_8@@UAEXW4EDateFields@AGL_Calendar@2@JAAW4AGL_UErrorCode@@@Z" PURGE="-1" COMMENT="" />
    <EXPORT ORDINAL="481" NAME="?addPadding@AGL_DecimalFormat@agl_2_8@@ABEXAAVAGL_UnicodeString@2@AAVAGL_FieldPosition@2@JJ@Z" PURGE="16" COMMENT="" />
    <EXPORT ORDINAL="482" NAME="?addReplacementSetTo@FunctionReplacer@agl_2_8@@UBEXAAVAGL_UnicodeSet@2@@Z" PURGE="4" COMMENT="" />
    <EXPORT ORDINAL="483" NAME="?addRule@TransliterationRuleSet@agl_2_8@@UAEXPAVTransliterationRule@2@AAW4AGL_UErrorCode@@@Z" PURGE="8" COMMENT="" />
    <EXPORT ORDINAL="484" NAME="?adopt@AGL_CollationKey@agl_2_8@@AAEXPAEJ@Z" PURGE="8" COMMENT="" />
    <EXPORT ORDINAL="485" NAME="?adoptArray@AGL_Formattable@agl_2_8@@QAEXPAV12@J@Z" PURGE="8" COMMENT="" />
    <EXPORT ORDINAL="486" NAME="?adoptCalendar@AGL_DateFormat@agl_2_8@@UAEXPAVAGL_Calendar@2@@Z" PURGE="4" COMMENT="" />
    <EXPORT ORDINAL="487" NAME="?adoptCalendar@AGL_SimpleDateFormat@agl_2_8@@UAEXPAVAGL_Calendar@2@@Z" PURGE="4" COMMENT="" />
    <EXPORT ORDINAL="488" NAME="?adoptDateFormatSymbols@AGL_SimpleDateFormat@agl_2_8@@UAEXPAVAGL_DateFormatSymbols@2@@Z" PURGE="4" COMMENT="" />
    <EXPORT ORDINAL="489" NAME="?adoptDecimalFormatSymbols@AGL_DecimalFormat@agl_2_8@@UAEXPAVAGL_DecimalFormatSymbols@2@@Z" PURGE="4" COMMENT="" />
    <EXPORT ORDINAL="490" NAME="?adoptDefault@AGL_TimeZone@agl_2_8@@SAXPAV12@@Z" PURGE="0" COMMENT="" />
    <EXPORT ORDINAL="491" NAME="?adoptFilter@AGL_Transliterator@agl_2_8@@QAEXPAVAGL_UnicodeFilter@2@@Z" PURGE="4" COMMENT="" />
    <EXPORT ORDINAL="492" NAME="?adoptFormat@AGL_MessageFormat@agl_2_8@@UAEXJPAVAGL_Format@2@@Z" PURGE="8" COMMENT="" />
    <EXPORT ORDINAL="493" NAME="?adoptFormats@AGL_MessageFormat@agl_2_8@@UAEXPAPAVAGL_Format@2@J@Z" PURGE="8" COMMENT="" />
    <EXPORT ORDINAL="494" NAME="?adoptNumberFormat@AGL_DateFormat@agl_2_8@@UAEXPAVAGL_NumberFormat@2@@Z" PURGE="-1" COMMENT="" />
    <EXPORT ORDINAL="495" NAME="?adoptString@AGL_Formattable@agl_2_8@@QAEXPAVAGL_UnicodeString@2@@Z" PURGE="4" COMMENT="" />
    <EXPORT ORDINAL="496" NAME="?adoptTimeZone@AGL_Calendar@agl_2_8@@QAEXPAVAGL_TimeZone@2@@Z" PURGE="4" COMMENT="" />
    <EXPORT ORDINAL="497" NAME="?adoptTimeZone@AGL_DateFormat@agl_2_8@@UAEXPAVAGL_TimeZone@2@@Z" PURGE="4" COMMENT="" />
    <EXPORT ORDINAL="498" NAME="?adoptTransliterators@CompoundTransliterator@agl_2_8@@QAEXQAPAVAGL_Transliterator@2@J@Z" PURGE="8" COMMENT="" />
    <EXPORT ORDINAL="499" NAME="?after@AGL_Calendar@agl_2_8@@QBECABV12@AAW4AGL_UErrorCode@@@Z" PURGE="8" COMMENT="" />
    <EXPORT ORDINAL="500" NAME="?aggregateStamp@AGL_GregorianCalendar@agl_2_8@@AAEJJJ@Z" PURGE="8" COMMENT="" />
    <EXPORT ORDINAL="501" NAME="?allocateArgTypes@AGL_MessageFormat@agl_2_8@@AAECJ@Z" PURGE="4" COMMENT="" />
    <EXPORT ORDINAL="502" NAME="?allocateSubformats@AGL_MessageFormat@agl_2_8@@AAECJ@Z" PURGE="4" COMMENT="" />
    <EXPORT ORDINAL="503" NAME="?append@DigitList@agl_2_8@@QAEXD@Z" PURGE="4" COMMENT="" />
    <EXPORT ORDINAL="504" NAME="?appendAffix@AGL_DecimalFormat@agl_2_8@@ABEJAAVAGL_UnicodeString@2@NCC@Z" PURGE="20" COMMENT="" />
    <EXPORT ORDINAL="505" NAME="?appendAffixPattern@AGL_DecimalFormat@agl_2_8@@ABEXAAVAGL_UnicodeString@2@ABV32@C@Z" PURGE="12" COMMENT="" />
    <EXPORT ORDINAL="506" NAME="?appendAffixPattern@AGL_DecimalFormat@agl_2_8@@ABEXAAVAGL_UnicodeString@2@PBV32@ABV32@C@Z" PURGE="16" COMMENT="" />
    <EXPORT ORDINAL="507" NAME="?appendReplacement@AGL_RegexMatcher@agl_2_8@@UAEAAV12@AAVAGL_UnicodeString@2@ABV32@AAW4AGL_UErrorCode@@@Z" PURGE="12" COMMENT="" />
    <EXPORT ORDINAL="508" NAME="?appendTail@AGL_RegexMatcher@agl_2_8@@UAEAAVAGL_UnicodeString@2@AAV32@@Z" PURGE="4" COMMENT="" />
    <EXPORT ORDINAL="509" NAME="?applyLocalizedPattern@AGL_DecimalFormat@agl_2_8@@UAEXABVAGL_UnicodeString@2@AAUAGL_UParseError@@AAW4AGL_UErrorCode@@@Z" PURGE="12" COMMENT="" />
    <EXPORT ORDINAL="510" NAME="?applyLocalizedPattern@AGL_DecimalFormat@agl_2_8@@UAEXABVAGL_UnicodeString@2@AAW4AGL_UErrorCode@@@Z" PURGE="8" COMMENT="" />
    <EXPORT ORDINAL="511" NAME="?applyLocalizedPattern@AGL_SimpleDateFormat@agl_2_8@@UAEXABVAGL_UnicodeString@2@AAW4AGL_UErrorCode@@@Z" PURGE="8" COMMENT="" />
    <EXPORT ORDINAL="512" NAME="?applyPattern@AGL_ChoiceFormat@agl_2_8@@UAEXABVAGL_UnicodeString@2@AAUAGL_UParseError@@AAW4AGL_UErrorCode@@@Z" PURGE="12" COMMENT="" />
    <EXPORT ORDINAL="513" NAME="?applyPattern@AGL_ChoiceFormat@agl_2_8@@UAEXABVAGL_UnicodeString@2@AAW4AGL_UErrorCode@@@Z" PURGE="8" COMMENT="" />
    <EXPORT ORDINAL="514" NAME="?applyPattern@AGL_DecimalFormat@agl_2_8@@AAEXABVAGL_UnicodeString@2@CAAUAGL_UParseError@@AAW4AGL_UErrorCode@@@Z" PURGE="16" COMMENT="" />
    <EXPORT ORDINAL="515" NAME="?applyPattern@AGL_DecimalFormat@agl_2_8@@UAEXABVAGL_UnicodeString@2@AAUAGL_UParseError@@AAW4AGL_UErrorCode@@@Z" PURGE="12" COMMENT="" />
    <EXPORT ORDINAL="516" NAME="?applyPattern@AGL_DecimalFormat@agl_2_8@@UAEXABVAGL_UnicodeString@2@AAW4AGL_UErrorCode@@@Z" PURGE="8" COMMENT="" />
    <EXPORT ORDINAL="517" NAME="?applyPattern@AGL_MessageFormat@agl_2_8@@UAEXABVAGL_UnicodeString@2@AAUAGL_UParseError@@AAW4AGL_UErrorCode@@@Z" PURGE="12" COMMENT="" />
    <EXPORT ORDINAL="518" NAME="?applyPattern@AGL_MessageFormat@agl_2_8@@UAEXABVAGL_UnicodeString@2@AAW4AGL_UErrorCode@@@Z" PURGE="8" COMMENT="" />
    <EXPORT ORDINAL="519" NAME="?applyPattern@AGL_SimpleDateFormat@agl_2_8@@UAEXABVAGL_UnicodeString@2@@Z" PURGE="-1" COMMENT="" />
    <EXPORT ORDINAL="520" NAME="?applyPattern@HexToUnicodeTransliterator@agl_2_8@@QAEXABVAGL_UnicodeString@2@AAW4AGL_UErrorCode@@@Z" PURGE="8" COMMENT="" />
    <EXPORT ORDINAL="521" NAME="?applyPattern@UnicodeToHexTransliterator@agl_2_8@@QAEXABVAGL_UnicodeString@2@AAW4AGL_UErrorCode@@@Z" PURGE="8" COMMENT="" />
    <EXPORT ORDINAL="522" NAME="?arrayCompare@AGL_DateFormatSymbols@agl_2_8@@CACPBVAGL_UnicodeString@2@0J@Z" PURGE="0" COMMENT="" />
    <EXPORT ORDINAL="523" NAME="?assignArray@AGL_DateFormatSymbols@agl_2_8@@CAXAAPAVAGL_UnicodeString@2@AAJPBV32@J@Z" PURGE="0" COMMENT="" />
    <EXPORT ORDINAL="524" NAME="?before@AGL_Calendar@agl_2_8@@QBECABV12@AAW4AGL_UErrorCode@@@Z" PURGE="8" COMMENT="" />
    <EXPORT ORDINAL="525" NAME="?boundsCheck@AGL_GregorianCalendar@agl_2_8@@ABECJW4AGL_UCalendarDateFields@@@Z" PURGE="8" COMMENT="" />
    <EXPORT ORDINAL="526" NAME="?checkOwned@AGL_RuleBasedCollator@agl_2_8@@AAEXXZ" PURGE="0" COMMENT="" />
    <EXPORT ORDINAL="527" NAME="?civilLeapYear@IslamicCalendar@agl_2_8@@CACJ@Z" PURGE="0" COMMENT="" />
    <EXPORT ORDINAL="528" NAME="?cleanup@TitlecaseTransliterator@agl_2_8@@SAXXZ" PURGE="0" COMMENT="" />
    <EXPORT ORDINAL="529" NAME="?clear@AGL_Calendar@agl_2_8@@QAEXW4AGL_UCalendarDateFields@@@Z" PURGE="4" COMMENT="" />
    <EXPORT ORDINAL="530" NAME="?clear@AGL_Calendar@agl_2_8@@QAEXXZ" PURGE="0" COMMENT="" />
    <EXPORT ORDINAL="531" NAME="?clear@DigitList@agl_2_8@@QAEXXZ" PURGE="0" COMMENT="" />
    <EXPORT ORDINAL="532" NAME="?clearCache@CalendarAstronomer@agl_2_8@@AAEXXZ" PURGE="0" COMMENT="" />
    <EXPORT ORDINAL="533" NAME="?clone@AGL_ChoiceFormat@agl_2_8@@UBEPAVAGL_Format@2@XZ" PURGE="0" COMMENT="" />
    <EXPORT ORDINAL="534" NAME="?clone@AGL_DecimalFormat@agl_2_8@@UBEPAVAGL_Format@2@XZ" PURGE="0" COMMENT="" />
    <EXPORT ORDINAL="535" NAME="?clone@AGL_FieldPosition@agl_2_8@@QBEPAV12@XZ" PURGE="0" COMMENT="" />
    <EXPORT ORDINAL="536" NAME="?clone@AGL_Formattable@agl_2_8@@QBEPAV12@XZ" PURGE="0" COMMENT="" />
    <EXPORT ORDINAL="537" NAME="?clone@AGL_GregorianCalendar@agl_2_8@@UBEPAVAGL_Calendar@2@XZ" PURGE="0" COMMENT="" />
    <EXPORT ORDINAL="538" NAME="?clone@AGL_MessageFormat@agl_2_8@@UBEPAVAGL_Format@2@XZ" PURGE="0" COMMENT="" />
    <EXPORT ORDINAL="539" NAME="?clone@AGL_RegexPattern@agl_2_8@@UBEPAV12@XZ" PURGE="0" COMMENT="" />
    <EXPORT ORDINAL="540" NAME="?clone@AGL_RuleBasedCollator@agl_2_8@@UBEPAVAGL_Collator@2@XZ" PURGE="0" COMMENT="" />
    <EXPORT ORDINAL="541" NAME="?clone@AGL_RuleBasedNumberFormat@agl_2_8@@UBEPAVAGL_Format@2@XZ" PURGE="0" COMMENT="" />
    <EXPORT ORDINAL="542" NAME="?clone@AGL_SimpleDateFormat@agl_2_8@@UBEPAVAGL_Format@2@XZ" PURGE="0" COMMENT="" />
    <EXPORT ORDINAL="543" NAME="?clone@AGL_SimpleTimeZone@agl_2_8@@UBEPAVAGL_TimeZone@2@XZ" PURGE="0" COMMENT="" />
    <EXPORT ORDINAL="544" NAME="?clone@AGL_StringSearch@agl_2_8@@QBEPAV12@XZ" PURGE="0" COMMENT="" />
    <EXPORT ORDINAL="545" NAME="?clone@AGL_Transliterator@agl_2_8@@UBEPAV12@XZ" PURGE="0" COMMENT="" />
    <EXPORT ORDINAL="546" NAME="?clone@AnyTransliterator@agl_2_8@@UBEPAVAGL_Transliterator@2@XZ" PURGE="0" COMMENT="" />
    <EXPORT ORDINAL="547" NAME="?clone@BuddhistCalendar@agl_2_8@@UBEPAVAGL_Calendar@2@XZ" PURGE="0" COMMENT="" />
    <EXPORT ORDINAL="548" NAME="?clone@CompoundTransliterator@agl_2_8@@UBEPAVAGL_Transliterator@2@XZ" PURGE="0" COMMENT="" />
    <EXPORT ORDINAL="549" NAME="?clone@EscapeTransliterator@agl_2_8@@UBEPAVAGL_Transliterator@2@XZ" PURGE="0" COMMENT="" />
    <EXPORT ORDINAL="550" NAME="?clone@FunctionReplacer@agl_2_8@@UBEPAVAGL_UnicodeFunctor@2@XZ" PURGE="0" COMMENT="" />
    <EXPORT ORDINAL="551" NAME="?clone@HebrewCalendar@agl_2_8@@UBEPAVAGL_Calendar@2@XZ" PURGE="0" COMMENT="" />
    <EXPORT ORDINAL="552" NAME="?clone@HexToUnicodeTransliterator@agl_2_8@@UBEPAVAGL_Transliterator@2@XZ" PURGE="0" COMMENT="" />
    <EXPORT ORDINAL="553" NAME="?clone@IslamicCalendar@agl_2_8@@UBEPAVAGL_Calendar@2@XZ" PURGE="0" COMMENT="" />
    <EXPORT ORDINAL="554" NAME="?clone@JapaneseCalendar@agl_2_8@@UBEPAVAGL_Calendar@2@XZ" PURGE="0" COMMENT="" />
    <EXPORT ORDINAL="555" NAME="?clone@LowercaseTransliterator@agl_2_8@@UBEPAVAGL_Transliterator@2@XZ" PURGE="0" COMMENT="" />
    <EXPORT ORDINAL="556" NAME="?clone@NameUnicodeTransliterator@agl_2_8@@UBEPAVAGL_Transliterator@2@XZ" PURGE="0" COMMENT="" />
    <EXPORT ORDINAL="557" NAME="?clone@NormalizationTransliterator@agl_2_8@@UBEPAVAGL_Transliterator@2@XZ" PURGE="0" COMMENT="" />
    <EXPORT ORDINAL="558" NAME="?clone@NullTransliterator@agl_2_8@@UBEPAVAGL_Transliterator@2@XZ" PURGE="0" COMMENT="" />
    <EXPORT ORDINAL="559" NAME="?clone@OlsonTimeZone@agl_2_8@@UBEPAVAGL_TimeZone@2@XZ" PURGE="0" COMMENT="" />
    <EXPORT ORDINAL="560" NAME="?clone@RemoveTransliterator@agl_2_8@@UBEPAVAGL_Transliterator@2@XZ" PURGE="0" COMMENT="" />
    <EXPORT ORDINAL="561" NAME="?clone@RuleBasedTransliterator@agl_2_8@@UBEPAVAGL_Transliterator@2@XZ" PURGE="0" COMMENT="" />
    <EXPORT ORDINAL="562" NAME="?clone@TitlecaseTransliterator@agl_2_8@@UBEPAVAGL_Transliterator@2@XZ" PURGE="0" COMMENT="" />
    <EXPORT ORDINAL="563" NAME="?clone@UnescapeTransliterator@agl_2_8@@UBEPAVAGL_Transliterator@2@XZ" PURGE="0" COMMENT="" />
    <EXPORT ORDINAL="564" NAME="?clone@UnicodeNameTransliterator@agl_2_8@@UBEPAVAGL_Transliterator@2@XZ" PURGE="0" COMMENT="" />
    <EXPORT ORDINAL="565" NAME="?clone@UnicodeToHexTransliterator@agl_2_8@@UBEPAVAGL_Transliterator@2@XZ" PURGE="0" COMMENT="" />
    <EXPORT ORDINAL="566" NAME="?clone@UppercaseTransliterator@agl_2_8@@UBEPAVAGL_Transliterator@2@XZ" PURGE="0" COMMENT="" />
    <EXPORT ORDINAL="567" NAME="?cloneRuleData@AGL_RuleBasedCollator@agl_2_8@@QAEPAEAAJAAW4AGL_UErrorCode@@@Z" PURGE="8" COMMENT="" />
    <EXPORT ORDINAL="568" NAME="?compare@AGL_Collator@agl_2_8@@UBE?AW4EComparisonResult@12@ABVAGL_UnicodeString@2@0@Z" PURGE="8" COMMENT="" />
    <EXPORT ORDINAL="569" NAME="?compare@AGL_Collator@agl_2_8@@UBE?AW4EComparisonResult@12@ABVAGL_UnicodeString@2@0J@Z" PURGE="12" COMMENT="" />
    <EXPORT ORDINAL="570" NAME="?compare@AGL_Collator@agl_2_8@@UBE?AW4EComparisonResult@12@PBGJ0J@Z" PURGE="16" COMMENT="" />
    <EXPORT ORDINAL="571" NAME="?compare@AGL_RuleBasedCollator@agl_2_8@@UBE?AW4AGL_UCollationResult@@ABVAGL_UnicodeString@2@0AAW4AGL_UErrorCode@@@Z" PURGE="12" COMMENT="" />
    <EXPORT ORDINAL="572" NAME="?compare@AGL_RuleBasedCollator@agl_2_8@@UBE?AW4AGL_UCollationResult@@ABVAGL_UnicodeString@2@0JAAW4AGL_UErrorCode@@@Z" PURGE="16" COMMENT="" />
    <EXPORT ORDINAL="573" NAME="?compare@AGL_RuleBasedCollator@agl_2_8@@UBE?AW4AGL_UCollationResult@@PBGJ0JAAW4AGL_UErrorCode@@@Z" PURGE="20" COMMENT="" />
    <EXPORT ORDINAL="574" NAME="?compare@AGL_RuleBasedCollator@agl_2_8@@UBE?AW4EComparisonResult@AGL_Collator@2@ABVAGL_UnicodeString@2@0@Z" PURGE="8" COMMENT="" />
    <EXPORT ORDINAL="575" NAME="?compare@AGL_RuleBasedCollator@agl_2_8@@UBE?AW4EComparisonResult@AGL_Collator@2@ABVAGL_UnicodeString@2@0J@Z" PURGE="12" COMMENT="" />
    <EXPORT ORDINAL="576" NAME="?compare@AGL_RuleBasedCollator@agl_2_8@@UBE?AW4EComparisonResult@AGL_Collator@2@PBGJ0J@Z" PURGE="16" COMMENT="" />
    <EXPORT ORDINAL="577" NAME="?compareAffix@AGL_DecimalFormat@agl_2_8@@ABEJABVAGL_UnicodeString@2@JCC@Z" PURGE="16" COMMENT="" />
    <EXPORT ORDINAL="578" NAME="?compareComplexAffix@AGL_DecimalFormat@agl_2_8@@ABEJABVAGL_UnicodeString@2@0J@Z" PURGE="12" COMMENT="" />
    <EXPORT ORDINAL="579" NAME="?compareSimpleAffix@AGL_DecimalFormat@agl_2_8@@CAJABVAGL_UnicodeString@2@0J@Z" PURGE="0" COMMENT="" />
    <EXPORT ORDINAL="580" NAME="?compareTo@AGL_CollationKey@agl_2_8@@QBE?AW4AGL_UCollationResult@@ABV12@AAW4AGL_UErrorCode@@@Z" PURGE="8" COMMENT="" />
    <EXPORT ORDINAL="581" NAME="?compareTo@AGL_CollationKey@agl_2_8@@QBE?AW4EComparisonResult@AGL_Collator@2@ABV12@@Z" PURGE="4" COMMENT="" />
    <EXPORT ORDINAL="582" NAME="?compareToRule@AGL_SimpleTimeZone@agl_2_8@@CAJCCCCCJJW4EMode@12@CCCJ@Z" PURGE="0" COMMENT="" />
    <EXPORT ORDINAL="583" NAME="?compile@AGL_RegexPattern@agl_2_8@@SAPAV12@ABVAGL_UnicodeString@2@AAUAGL_UParseError@@AAW4AGL_UErrorCode@@@Z" PURGE="0" COMMENT="" />
    <EXPORT ORDINAL="584" NAME="?compile@AGL_RegexPattern@agl_2_8@@SAPAV12@ABVAGL_UnicodeString@2@KAAUAGL_UParseError@@AAW4AGL_UErrorCode@@@Z" PURGE="0" COMMENT="" />
    <EXPORT ORDINAL="585" NAME="?compile@AGL_RegexPattern@agl_2_8@@SAPAV12@ABVAGL_UnicodeString@2@KAAW4AGL_UErrorCode@@@Z" PURGE="0" COMMENT="" />
    <EXPORT ORDINAL="586" NAME="?complete@AGL_Calendar@agl_2_8@@IAEXAAW4AGL_UErrorCode@@@Z" PURGE="4" COMMENT="" />
    <EXPORT ORDINAL="587" NAME="?computeFields@AGL_Calendar@agl_2_8@@MAEXAAW4AGL_UErrorCode@@@Z" PURGE="4" COMMENT="" />
    <EXPORT ORDINAL="588" NAME="?computeGregorianAndDOWFields@AGL_Calendar@agl_2_8@@AAEXJAAW4AGL_UErrorCode@@@Z" PURGE="8" COMMENT="" />
    <EXPORT ORDINAL="589" NAME="?computeGregorianFields@AGL_Calendar@agl_2_8@@AAEXJAAW4AGL_UErrorCode@@@Z" PURGE="8" COMMENT="" />
    <EXPORT ORDINAL="590" NAME="?computeJulianDay@AGL_Calendar@agl_2_8@@IAEJXZ" PURGE="0" COMMENT="" />
    <EXPORT ORDINAL="591" NAME="?computeJulianDayOfYear@AGL_GregorianCalendar@agl_2_8@@CANCJAAC@Z" PURGE="0" COMMENT="" />
    <EXPORT ORDINAL="592" NAME="?computeMaximumContextLength@CompoundTransliterator@agl_2_8@@AAEXXZ" PURGE="0" COMMENT="" />
    <EXPORT ORDINAL="593" NAME="?computeMillisInDay@AGL_Calendar@agl_2_8@@IAEJXZ" PURGE="0" COMMENT="" />
    <EXPORT ORDINAL="594" NAME="?computeTime@AGL_Calendar@agl_2_8@@MAEXAAW4AGL_UErrorCode@@@Z" PURGE="4" COMMENT="" />
    <EXPORT ORDINAL="595" NAME="?computeWeekFields@AGL_Calendar@agl_2_8@@AAEXAAW4AGL_UErrorCode@@@Z" PURGE="4" COMMENT="" />
    <EXPORT ORDINAL="596" NAME="?computeZoneOffset@AGL_Calendar@agl_2_8@@IAEJNJAAW4AGL_UErrorCode@@@Z" PURGE="16" COMMENT="" />
    <EXPORT ORDINAL="597" NAME="?construct@AGL_DecimalFormat@agl_2_8@@AAEXAAW4AGL_UErrorCode@@AAUAGL_UParseError@@PBVAGL_UnicodeString@2@PAVAGL_DecimalFormatSymbols@2@@Z" PURGE="16" COMMENT="" />
    <EXPORT ORDINAL="598" NAME="?construct@AGL_RuleBasedCollator@agl_2_8@@AAEXABVAGL_UnicodeString@2@W4AGL_UColAttributeValue@@1AAW4AGL_UErrorCode@@@Z" PURGE="16" COMMENT="" />
    <EXPORT ORDINAL="599" NAME="?construct@AGL_SimpleDateFormat@agl_2_8@@AAEXW4EStyle@AGL_DateFormat@2@0ABVAGL_Locale@2@AAW4AGL_UErrorCode@@@Z" PURGE="16" COMMENT="" />
    <EXPORT ORDINAL="600" NAME="?construct@AGL_SimpleTimeZone@agl_2_8@@AAEXJCCCJW4TimeMode@12@CCCJ0JAAW4AGL_UErrorCode@@@Z" PURGE="52" COMMENT="" />
    <EXPORT ORDINAL="601" NAME="?constructEmpty@OlsonTimeZone@agl_2_8@@AAEXXZ" PURGE="0" COMMENT="" />
    <EXPORT ORDINAL="602" NAME="?copyAndFixQuotes@AGL_MessageFormat@agl_2_8@@CAXABVAGL_UnicodeString@2@JJAAV32@@Z" PURGE="0" COMMENT="" />
    <EXPORT ORDINAL="603" NAME="?copyData@AGL_DateFormatSymbols@agl_2_8@@AAEXABV12@@Z" PURGE="4" COMMENT="" />
    <EXPORT ORDINAL="604" NAME="?copySpec@UnescapeTransliterator@agl_2_8@@CAPAGPBG@Z" PURGE="0" COMMENT="" />
    <EXPORT ORDINAL="605" NAME="?countAvailableIDs@AGL_Transliterator@agl_2_8@@SAJXZ" PURGE="0" COMMENT="" />
    <EXPORT ORDINAL="606" NAME="?countAvailableSources@AGL_Transliterator@agl_2_8@@SAJXZ" PURGE="0" COMMENT="" />
    <EXPORT ORDINAL="607" NAME="?countAvailableTargets@AGL_Transliterator@agl_2_8@@SAJABVAGL_UnicodeString@2@@Z" PURGE="0" COMMENT="" />
    <EXPORT ORDINAL="608" NAME="?countAvailableVariants@AGL_Transliterator@agl_2_8@@SAJABVAGL_UnicodeString@2@0@Z" PURGE="0" COMMENT="" />
    <EXPORT ORDINAL="609" NAME="?countEquivalentIDs@AGL_TimeZone@agl_2_8@@SAJABVAGL_UnicodeString@2@@Z" PURGE="0" COMMENT="" />
    <EXPORT ORDINAL="610" NAME="?create@AGL_DateFormat@agl_2_8@@CAPAV12@W4EStyle@12@0ABVAGL_Locale@2@@Z" PURGE="0" COMMENT="" />
    <EXPORT ORDINAL="611" NAME="?createArrayCopy@AGL_Formattable@agl_2_8@@CAPAV12@PBV12@J@Z" PURGE="0" COMMENT="" />
    <EXPORT ORDINAL="612" NAME="?createBasicInstance@AGL_Transliterator@agl_2_8@@KAPAV12@ABVAGL_UnicodeString@2@PBV32@@Z" PURGE="0" COMMENT="" />
    <EXPORT ORDINAL="613" NAME="?createCache@CalendarCache@agl_2_8@@CAXPAPAV12@AAW4AGL_UErrorCode@@@Z" PURGE="0" COMMENT="" />
    <EXPORT ORDINAL="614" NAME="?createCollationElementIterator@AGL_RuleBasedCollator@agl_2_8@@UBEPAVAGL_CollationElementIterator@2@ABVAGL_CharacterIterator@2@@Z" PURGE="4" COMMENT="" />
    <EXPORT ORDINAL="615" NAME="?createCollationElementIterator@AGL_RuleBasedCollator@agl_2_8@@UBEPAVAGL_CollationElementIterator@2@ABVAGL_UnicodeString@2@@Z" PURGE="4" COMMENT="" />
    <EXPORT ORDINAL="616" NAME="?createCurrencyInstance@AGL_NumberFormat@agl_2_8@@SAPAV12@AAW4AGL_UErrorCode@@@Z" PURGE="0" COMMENT="" />
    <EXPORT ORDINAL="617" NAME="?createCurrencyInstance@AGL_NumberFormat@agl_2_8@@SAPAV12@ABVAGL_Locale@2@AAW4AGL_UErrorCode@@@Z" PURGE="0" COMMENT="" />
    <EXPORT ORDINAL="618" NAME="?createCustomTimeZone@AGL_TimeZone@agl_2_8@@CAPAV12@ABVAGL_UnicodeString@2@@Z" PURGE="0" COMMENT="" />
    <EXPORT ORDINAL="619" NAME="?createDateInstance@AGL_DateFormat@agl_2_8@@SAPAV12@W4EStyle@12@ABVAGL_Locale@2@@Z" PURGE="0" COMMENT="" />
    <EXPORT ORDINAL="620" NAME="?createDateTimeInstance@AGL_DateFormat@agl_2_8@@SAPAV12@W4EStyle@12@0ABVAGL_Locale@2@@Z" PURGE="0" COMMENT="" />
    <EXPORT ORDINAL="621" NAME="?createDefault@AGL_TimeZone@agl_2_8@@SAPAV12@XZ" PURGE="0" COMMENT="" />
    <EXPORT ORDINAL="622" NAME="?createEnumeration@AGL_TimeZone@agl_2_8@@SAPAVAGL_StringEnumeration@2@J@Z" PURGE="0" COMMENT="" />
    <EXPORT ORDINAL="623" NAME="?createEnumeration@AGL_TimeZone@agl_2_8@@SAPAVAGL_StringEnumeration@2@PBD@Z" PURGE="0" COMMENT="" />
    <EXPORT ORDINAL="624" NAME="?createEnumeration@AGL_TimeZone@agl_2_8@@SAPAVAGL_StringEnumeration@2@XZ" PURGE="0" COMMENT="" />
    <EXPORT ORDINAL="625" NAME="?createFromRules@AGL_Transliterator@agl_2_8@@SAPAV12@ABVAGL_UnicodeString@2@0W4AGL_UTransDirection@@AAUAGL_UParseError@@AAW4AGL_UErrorCode@@@Z" PURGE="0" COMMENT="" />
    <EXPORT ORDINAL="626" NAME="?createInstance@AGL_Calendar@agl_2_8@@SAPAV12@AAW4AGL_UErrorCode@@@Z" PURGE="0" COMMENT="" />
    <EXPORT ORDINAL="627" NAME="?createInstance@AGL_Calendar@agl_2_8@@SAPAV12@ABVAGL_Locale@2@AAW4AGL_UErrorCode@@@Z" PURGE="0" COMMENT="" />
    <EXPORT ORDINAL="628" NAME="?createInstance@AGL_Calendar@agl_2_8@@SAPAV12@ABVAGL_TimeZone@2@AAW4AGL_UErrorCode@@@Z" PURGE="0" COMMENT="" />
    <EXPORT ORDINAL="629" NAME="?createInstance@AGL_Calendar@agl_2_8@@SAPAV12@ABVAGL_TimeZone@2@ABVAGL_Locale@2@AAW4AGL_UErrorCode@@@Z" PURGE="0" COMMENT="" />
    <EXPORT ORDINAL="630" NAME="?createInstance@AGL_Calendar@agl_2_8@@SAPAV12@PAVAGL_TimeZone@2@AAW4AGL_UErrorCode@@@Z" PURGE="0" COMMENT="" />
    <EXPORT ORDINAL="631" NAME="?createInstance@AGL_Calendar@agl_2_8@@SAPAV12@PAVAGL_TimeZone@2@ABVAGL_Locale@2@AAW4AGL_UErrorCode@@@Z" PURGE="0" COMMENT="" />
    <EXPORT ORDINAL="632" NAME="?createInstance@AGL_Collator@agl_2_8@@SAPAV12@AAW4AGL_UErrorCode@@@Z" PURGE="0" COMMENT="" />
    <EXPORT ORDINAL="633" NAME="?createInstance@AGL_Collator@agl_2_8@@SAPAV12@ABVAGL_Locale@2@AAW4AGL_UErrorCode@@@Z" PURGE="0" COMMENT="" />
    <EXPORT ORDINAL="634" NAME="?createInstance@AGL_DateFormat@agl_2_8@@SAPAV12@XZ" PURGE="0" COMMENT="" />
    <EXPORT ORDINAL="635" NAME="?createInstance@AGL_NumberFormat@agl_2_8@@CAPAV12@ABVAGL_Locale@2@W4EStyles@12@AAW4AGL_UErrorCode@@@Z" PURGE="0" COMMENT="" />
    <EXPORT ORDINAL="636" NAME="?createInstance@AGL_NumberFormat@agl_2_8@@SAPAV12@AAW4AGL_UErrorCode@@@Z" PURGE="0" COMMENT="" />
    <EXPORT ORDINAL="637" NAME="?createInstance@AGL_NumberFormat@agl_2_8@@SAPAV12@ABVAGL_Locale@2@AAW4AGL_UErrorCode@@@Z" PURGE="0" COMMENT="" />
    <EXPORT ORDINAL="638" NAME="?createInstance@AGL_Transliterator@agl_2_8@@SAPAV12@ABVAGL_UnicodeString@2@W4AGL_UTransDirection@@AAUAGL_UParseError@@AAW4AGL_UErrorCode@@@Z" PURGE="0" COMMENT="" />
    <EXPORT ORDINAL="639" NAME="?createInstance@AGL_Transliterator@agl_2_8@@SAPAV12@ABVAGL_UnicodeString@2@W4AGL_UTransDirection@@AAW4AGL_UErrorCode@@@Z" PURGE="0" COMMENT="" />
    <EXPORT ORDINAL="640" NAME="?createIntegerFormat@AGL_MessageFormat@agl_2_8@@ABEPAVAGL_NumberFormat@2@ABVAGL_Locale@2@AAW4AGL_UErrorCode@@@Z" PURGE="8" COMMENT="" />
    <EXPORT ORDINAL="641" NAME="?createInverse@AGL_Transliterator@agl_2_8@@QBEPAV12@AAW4AGL_UErrorCode@@@Z" PURGE="4" COMMENT="" />
    <EXPORT ORDINAL="642" NAME="?createPercentInstance@AGL_NumberFormat@agl_2_8@@SAPAV12@AAW4AGL_UErrorCode@@@Z" PURGE="0" COMMENT="" />
    <EXPORT ORDINAL="643" NAME="?createPercentInstance@AGL_NumberFormat@agl_2_8@@SAPAV12@ABVAGL_Locale@2@AAW4AGL_UErrorCode@@@Z" PURGE="0" COMMENT="" />
    <EXPORT ORDINAL="644" NAME="?createScientificInstance@AGL_NumberFormat@agl_2_8@@SAPAV12@AAW4AGL_UErrorCode@@@Z" PURGE="0" COMMENT="" />
    <EXPORT ORDINAL="645" NAME="?createScientificInstance@AGL_NumberFormat@agl_2_8@@SAPAV12@ABVAGL_Locale@2@AAW4AGL_UErrorCode@@@Z" PURGE="0" COMMENT="" />
    <EXPORT ORDINAL="646" NAME="?createSystemTimeZone@AGL_TimeZone@agl_2_8@@CAPAV12@ABVAGL_UnicodeString@2@@Z" PURGE="0" COMMENT="" />
    <EXPORT ORDINAL="647" NAME="?createTimeInstance@AGL_DateFormat@agl_2_8@@SAPAV12@W4EStyle@12@ABVAGL_Locale@2@@Z" PURGE="0" COMMENT="" />
    <EXPORT ORDINAL="648" NAME="?createTimeZone@AGL_TimeZone@agl_2_8@@SAPAV12@ABVAGL_UnicodeString@2@@Z" PURGE="0" COMMENT="" />
    <EXPORT ORDINAL="649" NAME="?createUCollator@AGL_Collator@agl_2_8@@SAPAUAGL_UCollator@@PBDPAW4AGL_UErrorCode@@@Z" PURGE="0" COMMENT="" />
    <EXPORT ORDINAL="650" NAME="?createZoneStrings@AGL_DateFormatSymbols@agl_2_8@@AAEXPBQBVAGL_UnicodeString@2@@Z" PURGE="4" COMMENT="" />
    <EXPORT ORDINAL="651" NAME="?dayToFields@Grego@agl_2_8@@SAXNAAJ0000@Z" PURGE="0" COMMENT="" />
    <EXPORT ORDINAL="652" NAME="?dayToFields@Grego@agl_2_8@@SAXNAAJ000@Z" PURGE="0" COMMENT="" />
    <EXPORT ORDINAL="653" NAME="?decodeEndRule@AGL_SimpleTimeZone@agl_2_8@@AAEXAAW4AGL_UErrorCode@@@Z" PURGE="4" COMMENT="" />
    <EXPORT ORDINAL="654" NAME="?decodeRules@AGL_SimpleTimeZone@agl_2_8@@AAEXAAW4AGL_UErrorCode@@@Z" PURGE="4" COMMENT="" />
    <EXPORT ORDINAL="655" NAME="?decodeStartRule@AGL_SimpleTimeZone@agl_2_8@@AAEXAAW4AGL_UErrorCode@@@Z" PURGE="4" COMMENT="" />
    <EXPORT ORDINAL="656" NAME="?defaultCenturyStart@AGL_GregorianCalendar@agl_2_8@@UBENXZ" PURGE="0" COMMENT="" />
    <EXPORT ORDINAL="657" NAME="?defaultCenturyStart@BuddhistCalendar@agl_2_8@@MBENXZ" PURGE="0" COMMENT="" />
    <EXPORT ORDINAL="658" NAME="?defaultCenturyStart@HebrewCalendar@agl_2_8@@MBENXZ" PURGE="0" COMMENT="" />
    <EXPORT ORDINAL="659" NAME="?defaultCenturyStart@IslamicCalendar@agl_2_8@@MBENXZ" PURGE="0" COMMENT="" />
    <EXPORT ORDINAL="660" NAME="?defaultCenturyStart@JapaneseCalendar@agl_2_8@@UBENXZ" PURGE="0" COMMENT="" />
    <EXPORT ORDINAL="661" NAME="?defaultCenturyStartYear@AGL_GregorianCalendar@agl_2_8@@UBEJXZ" PURGE="0" COMMENT="" />
    <EXPORT ORDINAL="662" NAME="?defaultCenturyStartYear@BuddhistCalendar@agl_2_8@@MBEJXZ" PURGE="0" COMMENT="" />
    <EXPORT ORDINAL="663" NAME="?defaultCenturyStartYear@HebrewCalendar@agl_2_8@@MBEJXZ" PURGE="0" COMMENT="" />
    <EXPORT ORDINAL="664" NAME="?defaultCenturyStartYear@IslamicCalendar@agl_2_8@@MBEJXZ" PURGE="0" COMMENT="" />
    <EXPORT ORDINAL="665" NAME="?defaultCenturyStartYear@JapaneseCalendar@agl_2_8@@UBEJXZ" PURGE="0" COMMENT="" />
    <EXPORT ORDINAL="666" NAME="?dispose@AGL_DateFormatSymbols@agl_2_8@@AAEXXZ" PURGE="0" COMMENT="" />
    <EXPORT ORDINAL="667" NAME="?dispose@AGL_Formattable@agl_2_8@@AAEXXZ" PURGE="0" COMMENT="" />
    <EXPORT ORDINAL="668" NAME="?dispose@AGL_RuleBasedNumberFormat@agl_2_8@@AAEXXZ" PURGE="0" COMMENT="" />
    <EXPORT ORDINAL="669" NAME="?disposeZoneStrings@AGL_DateFormatSymbols@agl_2_8@@AAEXXZ" PURGE="0" COMMENT="" />
    <EXPORT ORDINAL="670" NAME="?dstOffset@OlsonTimeZone@agl_2_8@@ABEJF@Z" PURGE="4" COMMENT="" />
    <EXPORT ORDINAL="671" NAME="?dtos@AGL_ChoiceFormat@agl_2_8@@CAAAVAGL_UnicodeString@2@NAAV32@@Z" PURGE="0" COMMENT="" />
    <EXPORT ORDINAL="672" NAME="?eclipticObliquity@CalendarAstronomer@agl_2_8@@AAENXZ" PURGE="0" COMMENT="" />
    <EXPORT ORDINAL="673" NAME="?eclipticToEquatorial@CalendarAstronomer@agl_2_8@@QAEAAVEquatorial@12@AAV312@ABVEcliptic@12@@Z" PURGE="8" COMMENT="" />
    <EXPORT ORDINAL="674" NAME="?eclipticToEquatorial@CalendarAstronomer@agl_2_8@@QAEAAVEquatorial@12@AAV312@N@Z" PURGE="12" COMMENT="" />
    <EXPORT ORDINAL="675" NAME="?eclipticToEquatorial@CalendarAstronomer@agl_2_8@@QAEAAVEquatorial@12@AAV312@NN@Z" PURGE="20" COMMENT="" />
    <EXPORT ORDINAL="676" NAME="?eclipticToHorizon@CalendarAstronomer@agl_2_8@@QAEAAVHorizon@12@AAV312@N@Z" PURGE="12" COMMENT="" />
    <EXPORT ORDINAL="677" NAME="?end@AGL_RegexMatcher@agl_2_8@@UBEJAAW4AGL_UErrorCode@@@Z" PURGE="4" COMMENT="" />
    <EXPORT ORDINAL="678" NAME="?end@AGL_RegexMatcher@agl_2_8@@UBEJHAAW4AGL_UErrorCode@@@Z" PURGE="8" COMMENT="" />
    <EXPORT ORDINAL="679" NAME="?ensureCapacity@AGL_CollationKey@agl_2_8@@AAEAAV12@J@Z" PURGE="4" COMMENT="" />
    <EXPORT ORDINAL="680" NAME="?equals@AGL_Calendar@agl_2_8@@QBECABV12@AAW4AGL_UErrorCode@@@Z" PURGE="8" COMMENT="" />
    <EXPORT ORDINAL="681" NAME="?equals@AGL_Collator@agl_2_8@@QBECABVAGL_UnicodeString@2@0@Z" PURGE="8" COMMENT="" />
    <EXPORT ORDINAL="682" NAME="?expandAffix@AGL_DecimalFormat@agl_2_8@@ABEXABVAGL_UnicodeString@2@AAV32@NC@Z" PURGE="20" COMMENT="" />
    <EXPORT ORDINAL="683" NAME="?expandAffixes@AGL_DecimalFormat@agl_2_8@@AAEXXZ" PURGE="0" COMMENT="" />
    <EXPORT ORDINAL="684" NAME="?fgClassID@BuddhistCalendar@agl_2_8@@0DB" PURGE="-1" COMMENT="" />
    <EXPORT ORDINAL="685" NAME="?fgClassID@JapaneseCalendar@agl_2_8@@0DB" PURGE="-1" COMMENT="" />
    <EXPORT ORDINAL="686" NAME="?fgLastResortNumberPatterns@AGL_NumberFormat@agl_2_8@@0QBQBGB" PURGE="-1" COMMENT="" />
    <EXPORT ORDINAL="687" NAME="?fgMaxIntegerDigits@AGL_NumberFormat@agl_2_8@@0JB" PURGE="-1" COMMENT="" />
    <EXPORT ORDINAL="688" NAME="?fgMinIntegerDigits@AGL_NumberFormat@agl_2_8@@0JB" PURGE="-1" COMMENT="" />
    <EXPORT ORDINAL="689" NAME="?fgNumberPatterns@AGL_DecimalFormat@agl_2_8@@2QBDB" PURGE="-1" COMMENT="" />
    <EXPORT ORDINAL="690" NAME="?fgNumberPatternsCount@AGL_NumberFormat@agl_2_8@@0JB" PURGE="-1" COMMENT="" />
    <EXPORT ORDINAL="691" NAME="?fgPatternIndexToCalendarField@AGL_SimpleDateFormat@agl_2_8@@0QBW4AGL_UCalendarDateFields@@B" PURGE="-1" COMMENT="" />
    <EXPORT ORDINAL="692" NAME="?fgPatternIndexToDateFormatField@AGL_SimpleDateFormat@agl_2_8@@0QBW4EField@AGL_DateFormat@2@B" PURGE="-1" COMMENT="" />
    <EXPORT ORDINAL="693" NAME="?fgSystemDefaultCentury@AGL_GregorianCalendar@agl_2_8@@0NB" PURGE="-1" COMMENT="" />
    <EXPORT ORDINAL="694" NAME="?fgSystemDefaultCentury@BuddhistCalendar@agl_2_8@@0NB" PURGE="-1" COMMENT="" />
    <EXPORT ORDINAL="695" NAME="?fgSystemDefaultCentury@HebrewCalendar@agl_2_8@@0NB" PURGE="-1" COMMENT="" />
    <EXPORT ORDINAL="696" NAME="?fgSystemDefaultCentury@IslamicCalendar@agl_2_8@@0NB" PURGE="-1" COMMENT="" />
    <EXPORT ORDINAL="697" NAME="?fgSystemDefaultCenturyStart@AGL_GregorianCalendar@agl_2_8@@0NA" PURGE="-1" COMMENT="" />
    <EXPORT ORDINAL="698" NAME="?fgSystemDefaultCenturyStart@BuddhistCalendar@agl_2_8@@0NA" PURGE="-1" COMMENT="" />
    <EXPORT ORDINAL="699" NAME="?fgSystemDefaultCenturyStart@HebrewCalendar@agl_2_8@@0NA" PURGE="-1" COMMENT="" />
    <EXPORT ORDINAL="700" NAME="?fgSystemDefaultCenturyStart@IslamicCalendar@agl_2_8@@0NA" PURGE="-1" COMMENT="" />
    <EXPORT ORDINAL="701" NAME="?fgSystemDefaultCenturyStartYear@AGL_GregorianCalendar@agl_2_8@@0JA" PURGE="-1" COMMENT="" />
    <EXPORT ORDINAL="702" NAME="?fgSystemDefaultCenturyStartYear@BuddhistCalendar@agl_2_8@@0JA" PURGE="-1" COMMENT="" />
    <EXPORT ORDINAL="703" NAME="?fgSystemDefaultCenturyStartYear@HebrewCalendar@agl_2_8@@0JA" PURGE="-1" COMMENT="" />
    <EXPORT ORDINAL="704" NAME="?fgSystemDefaultCenturyStartYear@IslamicCalendar@agl_2_8@@0JA" PURGE="-1" COMMENT="" />
    <EXPORT ORDINAL="705" NAME="?fgSystemDefaultCenturyYear@AGL_GregorianCalendar@agl_2_8@@0JB" PURGE="-1" COMMENT="" />
    <EXPORT ORDINAL="706" NAME="?fgSystemDefaultCenturyYear@BuddhistCalendar@agl_2_8@@0JB" PURGE="-1" COMMENT="" />
    <EXPORT ORDINAL="707" NAME="?fgSystemDefaultCenturyYear@HebrewCalendar@agl_2_8@@0JB" PURGE="-1" COMMENT="" />
    <EXPORT ORDINAL="708" NAME="?fgSystemDefaultCenturyYear@IslamicCalendar@agl_2_8@@0JB" PURGE="-1" COMMENT="" />
    <EXPORT ORDINAL="709" NAME="?fieldDifference@AGL_Calendar@agl_2_8@@UAEJNW4AGL_UCalendarDateFields@@AAW4AGL_UErrorCode@@@Z" PURGE="16" COMMENT="" />
    <EXPORT ORDINAL="710" NAME="?fieldDifference@AGL_Calendar@agl_2_8@@UAEJNW4EDateFields@12@AAW4AGL_UErrorCode@@@Z" PURGE="16" COMMENT="" />
    <EXPORT ORDINAL="711" NAME="?fieldsToDay@Grego@agl_2_8@@SANJJJ@Z" PURGE="0" COMMENT="" />
    <EXPORT ORDINAL="712" NAME="?filteredTransliterate@AGL_Transliterator@agl_2_8@@EBEXAAVAGL_Replaceable@2@AAUAGL_UTransPosition@@CC@Z" PURGE="16" COMMENT="" />
    <EXPORT ORDINAL="713" NAME="?filteredTransliterate@AGL_Transliterator@agl_2_8@@MBEXAAVAGL_Replaceable@2@AAUAGL_UTransPosition@@C@Z" PURGE="12" COMMENT="" />
    <EXPORT ORDINAL="714" NAME="?find@AGL_RegexMatcher@agl_2_8@@UAECJAAW4AGL_UErrorCode@@@Z" PURGE="8" COMMENT="" />
    <EXPORT ORDINAL="715" NAME="?find@AGL_RegexMatcher@agl_2_8@@UAECXZ" PURGE="0" COMMENT="" />
    <EXPORT ORDINAL="716" NAME="?findKeyword@AGL_MessageFormat@agl_2_8@@CAJABVAGL_UnicodeString@2@PBQBG@Z" PURGE="0" COMMENT="" />
    <EXPORT ORDINAL="717" NAME="?findRuleSet@AGL_RuleBasedNumberFormat@agl_2_8@@ABEPAVNFRuleSet@2@ABVAGL_UnicodeString@2@AAW4AGL_UErrorCode@@@Z" PURGE="8" COMMENT="" />
    <EXPORT ORDINAL="718" NAME="?findTransition@OlsonTimeZone@agl_2_8@@ABEFNC@Z" PURGE="12" COMMENT="" />
    <EXPORT ORDINAL="719" NAME="?finishTransliteration@AGL_Transliterator@agl_2_8@@UBEXAAVAGL_Replaceable@2@AAUAGL_UTransPosition@@@Z" PURGE="8" COMMENT="" />
    <EXPORT ORDINAL="720" NAME="?first@AGL_SearchIterator@agl_2_8@@QAEJAAW4AGL_UErrorCode@@@Z" PURGE="4" COMMENT="" />
    <EXPORT ORDINAL="721" NAME="?fitsIntoInt64@DigitList@agl_2_8@@QAECC@Z" PURGE="4" COMMENT="" />
    <EXPORT ORDINAL="722" NAME="?fitsIntoLong@DigitList@agl_2_8@@QAECC@Z" PURGE="4" COMMENT="" />
    <EXPORT ORDINAL="723" NAME="?flags@AGL_RegexPattern@agl_2_8@@UBEKXZ" PURGE="0" COMMENT="" />
    <EXPORT ORDINAL="724" NAME="?floorDivide@Math@agl_2_8@@SAJJJ@Z" PURGE="0" COMMENT="" />
    <EXPORT ORDINAL="725" NAME="?floorDivide@Math@agl_2_8@@SAJNJAAJ@Z" PURGE="0" COMMENT="" />
    <EXPORT ORDINAL="726" NAME="?floorDivide@Math@agl_2_8@@SANNN@Z" PURGE="0" COMMENT="" />
    <EXPORT ORDINAL="727" NAME="?following@AGL_SearchIterator@agl_2_8@@QAEJJAAW4AGL_UErrorCode@@@Z" PURGE="8" COMMENT="" />
    <EXPORT ORDINAL="728" NAME="?format@AGL_ChoiceFormat@agl_2_8@@QBEAAVAGL_UnicodeString@2@ABVAGL_Formattable@2@AAV32@AAW4AGL_UErrorCode@@@Z" PURGE="12" COMMENT="" />
    <EXPORT ORDINAL="729" NAME="?format@AGL_ChoiceFormat@agl_2_8@@QBEAAVAGL_UnicodeString@2@JAAV32@@Z" PURGE="8" COMMENT="" />
    <EXPORT ORDINAL="730" NAME="?format@AGL_ChoiceFormat@agl_2_8@@QBEAAVAGL_UnicodeString@2@NAAV32@@Z" PURGE="12" COMMENT="" />
    <EXPORT ORDINAL="731" NAME="?format@AGL_ChoiceFormat@agl_2_8@@UBEAAVAGL_UnicodeString@2@ABVAGL_Formattable@2@AAV32@AAVAGL_FieldPosition@2@AAW4AGL_UErrorCode@@@Z" PURGE="16" COMMENT="" />
    <EXPORT ORDINAL="732" NAME="?format@AGL_ChoiceFormat@agl_2_8@@UBEAAVAGL_UnicodeString@2@JAAV32@AAVAGL_FieldPosition@2@@Z" PURGE="12" COMMENT="" />
    <EXPORT ORDINAL="733" NAME="?format@AGL_ChoiceFormat@agl_2_8@@UBEAAVAGL_UnicodeString@2@NAAV32@AAVAGL_FieldPosition@2@@Z" PURGE="16" COMMENT="" />
    <EXPORT ORDINAL="734" NAME="?format@AGL_ChoiceFormat@agl_2_8@@UBEAAVAGL_UnicodeString@2@PBVAGL_Formattable@2@JAAV32@AAVAGL_FieldPosition@2@AAW4AGL_UErrorCode@@@Z" PURGE="20" COMMENT="" />
    <EXPORT ORDINAL="735" NAME="?format@AGL_ChoiceFormat@agl_2_8@@UBEAAVAGL_UnicodeString@2@_JAAV32@AAVAGL_FieldPosition@2@@Z" PURGE="16" COMMENT="" />
    <EXPORT ORDINAL="736" NAME="?format@AGL_DateFormat@agl_2_8@@QBEAAVAGL_UnicodeString@2@ABVAGL_Formattable@2@AAV32@AAW4AGL_UErrorCode@@@Z" PURGE="12" COMMENT="" />
    <EXPORT ORDINAL="737" NAME="?format@AGL_DateFormat@agl_2_8@@QBEAAVAGL_UnicodeString@2@NAAV32@@Z" PURGE="12" COMMENT="" />
    <EXPORT ORDINAL="738" NAME="?format@AGL_DateFormat@agl_2_8@@QBEAAVAGL_UnicodeString@2@NAAV32@AAVAGL_FieldPosition@2@@Z" PURGE="16" COMMENT="" />
    <EXPORT ORDINAL="739" NAME="?format@AGL_DateFormat@agl_2_8@@UBEAAVAGL_UnicodeString@2@ABVAGL_Formattable@2@AAV32@AAVAGL_FieldPosition@2@AAW4AGL_UErrorCode@@@Z" PURGE="16" COMMENT="" />
    <EXPORT ORDINAL="740" NAME="?format@AGL_DecimalFormat@agl_2_8@@QBEAAVAGL_UnicodeString@2@ABVAGL_Formattable@2@AAV32@AAW4AGL_UErrorCode@@@Z" PURGE="12" COMMENT="" />
    <EXPORT ORDINAL="741" NAME="?format@AGL_DecimalFormat@agl_2_8@@QBEAAVAGL_UnicodeString@2@JAAV32@@Z" PURGE="8" COMMENT="" />
    <EXPORT ORDINAL="742" NAME="?format@AGL_DecimalFormat@agl_2_8@@QBEAAVAGL_UnicodeString@2@NAAV32@@Z" PURGE="12" COMMENT="" />
    <EXPORT ORDINAL="743" NAME="?format@AGL_DecimalFormat@agl_2_8@@UBEAAVAGL_UnicodeString@2@ABVAGL_Formattable@2@AAV32@AAVAGL_FieldPosition@2@AAW4AGL_UErrorCode@@@Z" PURGE="16" COMMENT="" />
    <EXPORT ORDINAL="744" NAME="?format@AGL_DecimalFormat@agl_2_8@@UBEAAVAGL_UnicodeString@2@JAAV32@AAVAGL_FieldPosition@2@@Z" PURGE="12" COMMENT="" />
    <EXPORT ORDINAL="745" NAME="?format@AGL_DecimalFormat@agl_2_8@@UBEAAVAGL_UnicodeString@2@NAAV32@AAVAGL_FieldPosition@2@@Z" PURGE="16" COMMENT="" />
    <EXPORT ORDINAL="746" NAME="?format@AGL_DecimalFormat@agl_2_8@@UBEAAVAGL_UnicodeString@2@_JAAV32@AAVAGL_FieldPosition@2@@Z" PURGE="16" COMMENT="" />
    <EXPORT ORDINAL="747" NAME="?format@AGL_Format@agl_2_8@@QBEAAVAGL_UnicodeString@2@ABVAGL_Formattable@2@AAV32@AAW4AGL_UErrorCode@@@Z" PURGE="12" COMMENT="" />
    <EXPORT ORDINAL="748" NAME="?format@AGL_MessageFormat@agl_2_8@@ABEAAVAGL_UnicodeString@2@PBVAGL_Formattable@2@JAAV32@AAVAGL_FieldPosition@2@JAAW4AGL_UErrorCode@@@Z" PURGE="24" COMMENT="" />
    <EXPORT ORDINAL="749" NAME="?format@AGL_MessageFormat@agl_2_8@@QBEAAVAGL_UnicodeString@2@ABVAGL_Formattable@2@AAV32@AAW4AGL_UErrorCode@@@Z" PURGE="12" COMMENT="" />
    <EXPORT ORDINAL="750" NAME="?format@AGL_MessageFormat@agl_2_8@@QBEAAVAGL_UnicodeString@2@PBVAGL_Formattable@2@JAAV32@AAVAGL_FieldPosition@2@AAW4AGL_UErrorCode@@@Z" PURGE="20" COMMENT="" />
    <EXPORT ORDINAL="751" NAME="?format@AGL_MessageFormat@agl_2_8@@SAAAVAGL_UnicodeString@2@ABV32@PBVAGL_Formattable@2@JAAV32@AAW4AGL_UErrorCode@@@Z" PURGE="0" COMMENT="" />
    <EXPORT ORDINAL="752" NAME="?format@AGL_MessageFormat@agl_2_8@@UBEAAVAGL_UnicodeString@2@ABVAGL_Formattable@2@AAV32@AAVAGL_FieldPosition@2@AAW4AGL_UErrorCode@@@Z" PURGE="16" COMMENT="" />
    <EXPORT ORDINAL="753" NAME="?format@AGL_NumberFormat@agl_2_8@@QBEAAVAGL_UnicodeString@2@ABVAGL_Formattable@2@AAV32@AAW4AGL_UErrorCode@@@Z" PURGE="12" COMMENT="" />
    <EXPORT ORDINAL="754" NAME="?format@AGL_NumberFormat@agl_2_8@@QBEAAVAGL_UnicodeString@2@JAAV32@@Z" PURGE="8" COMMENT="" />
    <EXPORT ORDINAL="755" NAME="?format@AGL_NumberFormat@agl_2_8@@QBEAAVAGL_UnicodeString@2@NAAV32@@Z" PURGE="12" COMMENT="" />
    <EXPORT ORDINAL="756" NAME="?format@AGL_NumberFormat@agl_2_8@@QBEAAVAGL_UnicodeString@2@_JAAV32@@Z" PURGE="12" COMMENT="" />
    <EXPORT ORDINAL="757" NAME="?format@AGL_NumberFormat@agl_2_8@@UBEAAVAGL_UnicodeString@2@ABVAGL_Formattable@2@AAV32@AAVAGL_FieldPosition@2@AAW4AGL_UErrorCode@@@Z" PURGE="16" COMMENT="" />
    <EXPORT ORDINAL="758" NAME="?format@AGL_NumberFormat@agl_2_8@@UBEAAVAGL_UnicodeString@2@_JAAV32@AAVAGL_FieldPosition@2@@Z" PURGE="16" COMMENT="" />
    <EXPORT ORDINAL="759" NAME="?format@AGL_RuleBasedNumberFormat@agl_2_8@@QBEAAVAGL_UnicodeString@2@ABVAGL_Formattable@2@AAV32@AAW4AGL_UErrorCode@@@Z" PURGE="12" COMMENT="" />
    <EXPORT ORDINAL="760" NAME="?format@AGL_RuleBasedNumberFormat@agl_2_8@@QBEAAVAGL_UnicodeString@2@JAAV32@@Z" PURGE="8" COMMENT="" />
    <EXPORT ORDINAL="761" NAME="?format@AGL_RuleBasedNumberFormat@agl_2_8@@QBEAAVAGL_UnicodeString@2@NAAV32@@Z" PURGE="12" COMMENT="" />
    <EXPORT ORDINAL="762" NAME="?format@AGL_RuleBasedNumberFormat@agl_2_8@@UBEAAVAGL_UnicodeString@2@ABVAGL_Formattable@2@AAV32@AAVAGL_FieldPosition@2@AAW4AGL_UErrorCode@@@Z" PURGE="16" COMMENT="" />
    <EXPORT ORDINAL="763" NAME="?format@AGL_RuleBasedNumberFormat@agl_2_8@@UBEAAVAGL_UnicodeString@2@JAAV32@AAVAGL_FieldPosition@2@@Z" PURGE="12" COMMENT="" />
    <EXPORT ORDINAL="764" NAME="?format@AGL_RuleBasedNumberFormat@agl_2_8@@UBEAAVAGL_UnicodeString@2@JABV32@AAV32@AAVAGL_FieldPosition@2@AAW4AGL_UErrorCode@@@Z" PURGE="20" COMMENT="" />
    <EXPORT ORDINAL="765" NAME="?format@AGL_RuleBasedNumberFormat@agl_2_8@@UBEAAVAGL_UnicodeString@2@NAAV32@AAVAGL_FieldPosition@2@@Z" PURGE="16" COMMENT="" />
    <EXPORT ORDINAL="766" NAME="?format@AGL_RuleBasedNumberFormat@agl_2_8@@UBEAAVAGL_UnicodeString@2@NABV32@AAV32@AAVAGL_FieldPosition@2@AAW4AGL_UErrorCode@@@Z" PURGE="24" COMMENT="" />
    <EXPORT ORDINAL="767" NAME="?format@AGL_RuleBasedNumberFormat@agl_2_8@@UBEAAVAGL_UnicodeString@2@_JAAV32@AAVAGL_FieldPosition@2@@Z" PURGE="16" COMMENT="" />
    <EXPORT ORDINAL="768" NAME="?format@AGL_RuleBasedNumberFormat@agl_2_8@@UBEAAVAGL_UnicodeString@2@_JABV32@AAV32@AAVAGL_FieldPosition@2@AAW4AGL_UErrorCode@@@Z" PURGE="24" COMMENT="" />
    <EXPORT ORDINAL="769" NAME="?format@AGL_SimpleDateFormat@agl_2_8@@QBEAAVAGL_UnicodeString@2@ABVAGL_Formattable@2@AAV32@AAW4AGL_UErrorCode@@@Z" PURGE="12" COMMENT="" />
    <EXPORT ORDINAL="770" NAME="?format@AGL_SimpleDateFormat@agl_2_8@@QBEAAVAGL_UnicodeString@2@NAAV32@@Z" PURGE="12" COMMENT="" />
    <EXPORT ORDINAL="771" NAME="?format@AGL_SimpleDateFormat@agl_2_8@@QBEAAVAGL_UnicodeString@2@NAAV32@AAVAGL_FieldPosition@2@@Z" PURGE="16" COMMENT="" />
    <EXPORT ORDINAL="772" NAME="?format@AGL_SimpleDateFormat@agl_2_8@@UBEAAVAGL_UnicodeString@2@AAVAGL_Calendar@2@AAV32@AAVAGL_FieldPosition@2@@Z" PURGE="12" COMMENT="" />
    <EXPORT ORDINAL="773" NAME="?format@AGL_SimpleDateFormat@agl_2_8@@UBEAAVAGL_UnicodeString@2@ABVAGL_Formattable@2@AAV32@AAVAGL_FieldPosition@2@AAW4AGL_UErrorCode@@@Z" PURGE="16" COMMENT="" />
    <EXPORT ORDINAL="774" NAME="?freeTransliterators@CompoundTransliterator@agl_2_8@@AAEXXZ" PURGE="0" COMMENT="" />
    <EXPORT ORDINAL="775" NAME="?freeze@TransliterationRuleSet@agl_2_8@@UAEXAAUAGL_UParseError@@AAW4AGL_UErrorCode@@@Z" PURGE="8" COMMENT="" />
    <EXPORT ORDINAL="776" NAME="?get2DigitYearStart@AGL_SimpleDateFormat@agl_2_8@@QBENAAW4AGL_UErrorCode@@@Z" PURGE="4" COMMENT="" />
    <EXPORT ORDINAL="777" NAME="?get@AGL_Calendar@agl_2_8@@QBEJW4AGL_UCalendarDateFields@@AAW4AGL_UErrorCode@@@Z" PURGE="8" COMMENT="" />
    <EXPORT ORDINAL="778" NAME="?get@CalendarCache@agl_2_8@@SAJPAPAV12@JAAW4AGL_UErrorCode@@@Z" PURGE="0" COMMENT="" />
    <EXPORT ORDINAL="779" NAME="?getActualHelper@AGL_Calendar@agl_2_8@@ABEJW4AGL_UCalendarDateFields@@JJAAW4AGL_UErrorCode@@@Z" PURGE="16" COMMENT="" />
    <EXPORT ORDINAL="780" NAME="?getActualMaximum@AGL_Calendar@agl_2_8@@QBEJW4AGL_UCalendarDateFields@@AAW4AGL_UErrorCode@@@Z" PURGE="8" COMMENT="" />
    <EXPORT ORDINAL="781" NAME="?getActualMaximum@AGL_GregorianCalendar@agl_2_8@@UBEJW4AGL_UCalendarDateFields@@AAW4AGL_UErrorCode@@@Z" PURGE="8" COMMENT="" />
    <EXPORT ORDINAL="782" NAME="?getActualMinimum@AGL_Calendar@agl_2_8@@QBEJW4AGL_UCalendarDateFields@@AAW4AGL_UErrorCode@@@Z" PURGE="8" COMMENT="" />
    <EXPORT ORDINAL="783" NAME="?getActualMinimum@AGL_Calendar@agl_2_8@@QBEJW4EDateFields@12@AAW4AGL_UErrorCode@@@Z" PURGE="8" COMMENT="" />
    <EXPORT ORDINAL="784" NAME="?getActualMinimum@AGL_GregorianCalendar@agl_2_8@@QBEJW4AGL_UCalendarDateFields@@@Z" PURGE="-1" COMMENT="" />
    <EXPORT ORDINAL="785" NAME="?getActualMinimum@AGL_GregorianCalendar@agl_2_8@@QBEJW4EDateFields@AGL_Calendar@2@@Z" PURGE="-1" COMMENT="" />
    <EXPORT ORDINAL="786" NAME="?getAmPmStrings@AGL_DateFormatSymbols@agl_2_8@@QBEPBVAGL_UnicodeString@2@AAJ@Z" PURGE="4" COMMENT="" />
    <EXPORT ORDINAL="787" NAME="?getArgTypeList@AGL_MessageFormat@agl_2_8@@ABEPBW4Type@AGL_Formattable@2@AAJ@Z" PURGE="4" COMMENT="" />
    <EXPORT ORDINAL="788" NAME="?getArray@AGL_Formattable@agl_2_8@@QBEPBV12@AAJ@Z" PURGE="4" COMMENT="" />
    <EXPORT ORDINAL="789" NAME="?getArray@AGL_Formattable@agl_2_8@@QBEPBV12@AAJPAW4AGL_UErrorCode@@@Z" PURGE="8" COMMENT="" />
    <EXPORT ORDINAL="790" NAME="?getAttribute@AGL_RuleBasedCollator@agl_2_8@@UAE?AW4AGL_UColAttributeValue@@W4AGL_UColAttribute@@AAW4AGL_UErrorCode@@@Z" PURGE="8" COMMENT="" />
    <EXPORT ORDINAL="791" NAME="?getAttribute@AGL_SearchIterator@agl_2_8@@QBE?AW4AGL_USearchAttributeValue@@W4AGL_USearchAttribute@@@Z" PURGE="4" COMMENT="" />
    <EXPORT ORDINAL="792" NAME="?getAvailableID@AGL_Transliterator@agl_2_8@@SAABVAGL_UnicodeString@2@J@Z" PURGE="0" COMMENT="" />
    <EXPORT ORDINAL="793" NAME="?getAvailableLocales@AGL_Calendar@agl_2_8@@SAPBVAGL_Locale@2@AAJ@Z" PURGE="-1" COMMENT="" />
    <EXPORT ORDINAL="794" NAME="?getAvailableLocales@AGL_Collator@agl_2_8@@SAPAVAGL_StringEnumeration@2@XZ" PURGE="-1" COMMENT="" />
    <EXPORT ORDINAL="795" NAME="?getAvailableLocales@AGL_Collator@agl_2_8@@SAPBVAGL_Locale@2@AAJ@Z" PURGE="-1" COMMENT="" />
    <EXPORT ORDINAL="796" NAME="?getAvailableLocales@AGL_DateFormat@agl_2_8@@SAPBVAGL_Locale@2@AAJ@Z" PURGE="-1" COMMENT="" />
    <EXPORT ORDINAL="797" NAME="?getAvailableLocales@AGL_NumberFormat@agl_2_8@@SAPAVAGL_StringEnumeration@2@XZ" PURGE="0" COMMENT="" />
    <EXPORT ORDINAL="798" NAME="?getAvailableLocales@AGL_NumberFormat@agl_2_8@@SAPBVAGL_Locale@2@AAJ@Z" PURGE="-1" COMMENT="" />
    <EXPORT ORDINAL="799" NAME="?getAvailableSource@AGL_Transliterator@agl_2_8@@SAAAVAGL_UnicodeString@2@JAAV32@@Z" PURGE="0" COMMENT="" />
    <EXPORT ORDINAL="800" NAME="?getAvailableTarget@AGL_Transliterator@agl_2_8@@SAAAVAGL_UnicodeString@2@JABV32@AAV32@@Z" PURGE="0" COMMENT="" />
    <EXPORT ORDINAL="801" NAME="?getAvailableVariant@AGL_Transliterator@agl_2_8@@SAAAVAGL_UnicodeString@2@JABV32@0AAV32@@Z" PURGE="0" COMMENT="" />
    <EXPORT ORDINAL="802" NAME="?getBeginIndex@AGL_FieldPosition@agl_2_8@@QBEJXZ" PURGE="0" COMMENT="" />
    <EXPORT ORDINAL="803" NAME="?getBogus@AGL_Formattable@agl_2_8@@ABEPAVAGL_UnicodeString@2@XZ" PURGE="0" COMMENT="" />
    <EXPORT ORDINAL="804" NAME="?getBound@AGL_Collator@agl_2_8@@SAJPBEJW4AGL_UColBoundMode@@KPAEJAAW4AGL_UErrorCode@@@Z" PURGE="0" COMMENT="" />
    <EXPORT ORDINAL="805" NAME="?getBreakIterator@AGL_SearchIterator@agl_2_8@@QBEPBVAGL_BreakIterator@2@XZ" PURGE="0" COMMENT="" />
    <EXPORT ORDINAL="806" NAME="?getByteArray@AGL_CollationKey@agl_2_8@@QBEPBEAAJ@Z" PURGE="4" COMMENT="" />
    <EXPORT ORDINAL="807" NAME="?getCalendar@AGL_DateFormat@agl_2_8@@UBEPBVAGL_Calendar@2@XZ" PURGE="0" COMMENT="" />
    <EXPORT ORDINAL="808" NAME="?getClosures@AGL_ChoiceFormat@agl_2_8@@UBEPBCAAJ@Z" PURGE="4" COMMENT="" />
    <EXPORT ORDINAL="809" NAME="?getCollationKey@AGL_RuleBasedCollator@agl_2_8@@UBEAAVAGL_CollationKey@2@ABVAGL_UnicodeString@2@AAV32@AAW4AGL_UErrorCode@@@Z" PURGE="12" COMMENT="" />
    <EXPORT ORDINAL="810" NAME="?getCollationKey@AGL_RuleBasedCollator@agl_2_8@@UBEAAVAGL_CollationKey@2@PBGJAAV32@AAW4AGL_UErrorCode@@@Z" PURGE="16" COMMENT="" />
    <EXPORT ORDINAL="811" NAME="?getCollator@AGL_RuleBasedNumberFormat@agl_2_8@@ABEPAVAGL_Collator@2@XZ" PURGE="0" COMMENT="" />
    <EXPORT ORDINAL="812" NAME="?getCollator@AGL_StringSearch@agl_2_8@@QBEPAVAGL_RuleBasedCollator@2@XZ" PURGE="0" COMMENT="" />
    <EXPORT ORDINAL="813" NAME="?getConstSymbol@AGL_DecimalFormat@agl_2_8@@ABEABVAGL_UnicodeString@2@W4ENumberFormatSymbol@AGL_DecimalFormatSymbols@2@@Z" PURGE="4" COMMENT="" />
    <EXPORT ORDINAL="814" NAME="?getConstSymbol@AGL_DecimalFormatSymbols@agl_2_8@@QBEABVAGL_UnicodeString@2@W4ENumberFormatSymbol@12@@Z" PURGE="4" COMMENT="" />
    <EXPORT ORDINAL="815" NAME="?getCount@CompoundTransliterator@agl_2_8@@UBEJXZ" PURGE="0" COMMENT="" />
    <EXPORT ORDINAL="816" NAME="?getCurrency@AGL_NumberFormat@agl_2_8@@QBEPBGXZ" PURGE="0" COMMENT="" />
    <EXPORT ORDINAL="817" NAME="?getDSTSavings@AGL_SimpleTimeZone@agl_2_8@@QBEJXZ" PURGE="0" COMMENT="" />
    <EXPORT ORDINAL="818" NAME="?getData@AGL_DateFormatSymbols@agl_2_8@@CA?AVAGL_ResourceBundle@2@AAV32@PBD1AAW4AGL_UErrorCode@@@Z" PURGE="0" COMMENT="" />
    <EXPORT ORDINAL="819" NAME="?getDate@AGL_Formattable@agl_2_8@@QBENPAW4AGL_UErrorCode@@@Z" PURGE="4" COMMENT="" />
    <EXPORT ORDINAL="820" NAME="?getDate@AGL_Formattable@agl_2_8@@QBENXZ" PURGE="0" COMMENT="" />
    <EXPORT ORDINAL="821" NAME="?getDateFormatSymbols@AGL_SimpleDateFormat@agl_2_8@@UBEPBVAGL_DateFormatSymbols@2@XZ" PURGE="0" COMMENT="" />
    <EXPORT ORDINAL="822" NAME="?getDecimalFormatSymbols@AGL_DecimalFormat@agl_2_8@@UBEPBVAGL_DecimalFormatSymbols@2@XZ" PURGE="0" COMMENT="" />
    <EXPORT ORDINAL="823" NAME="?getDecimalFormatSymbols@AGL_RuleBasedNumberFormat@agl_2_8@@ABEPAVAGL_DecimalFormatSymbols@2@XZ" PURGE="0" COMMENT="" />
    <EXPORT ORDINAL="824" NAME="?getDefaultDateFormat@AGL_MessageFormat@agl_2_8@@ABEPBVAGL_DateFormat@2@AAW4AGL_UErrorCode@@@Z" PURGE="4" COMMENT="" />
    <EXPORT ORDINAL="825" NAME="?getDefaultDayInMonth@AGL_Calendar@agl_2_8@@MAEJJ@Z" PURGE="4" COMMENT="" />
    <EXPORT ORDINAL="826" NAME="?getDefaultDayInMonth@JapaneseCalendar@agl_2_8@@MAEJJ@Z" PURGE="4" COMMENT="" />
    <EXPORT ORDINAL="827" NAME="?getDefaultMonthInYear@AGL_Calendar@agl_2_8@@MAEJXZ" PURGE="0" COMMENT="" />
    <EXPORT ORDINAL="828" NAME="?getDefaultMonthInYear@JapaneseCalendar@agl_2_8@@MAEJXZ" PURGE="0" COMMENT="" />
    <EXPORT ORDINAL="829" NAME="?getDefaultNumberFormat@AGL_MessageFormat@agl_2_8@@ABEPBVAGL_NumberFormat@2@AAW4AGL_UErrorCode@@@Z" PURGE="4" COMMENT="" />
    <EXPORT ORDINAL="830" NAME="?getDefaultRuleSet@AGL_RuleBasedNumberFormat@agl_2_8@@ABEPAVNFRuleSet@2@XZ" PURGE="0" COMMENT="" />
    <EXPORT ORDINAL="831" NAME="?getDisplayName@AGL_Collator@agl_2_8@@SAAAVAGL_UnicodeString@2@ABVAGL_Locale@2@0AAV32@@Z" PURGE="0" COMMENT="" />
    <EXPORT ORDINAL="832" NAME="?getDisplayName@AGL_Collator@agl_2_8@@SAAAVAGL_UnicodeString@2@ABVAGL_Locale@2@AAV32@@Z" PURGE="0" COMMENT="" />
    <EXPORT ORDINAL="833" NAME="?getDisplayName@AGL_CollatorFactory@agl_2_8@@UAEAAVAGL_UnicodeString@2@ABVAGL_Locale@2@0AAV32@@Z" PURGE="12" COMMENT="" />
    <EXPORT ORDINAL="834" NAME="?getDisplayName@AGL_TimeZone@agl_2_8@@QBEAAVAGL_UnicodeString@2@AAV32@@Z" PURGE="4" COMMENT="" />
    <EXPORT ORDINAL="835" NAME="?getDisplayName@AGL_TimeZone@agl_2_8@@QBEAAVAGL_UnicodeString@2@ABVAGL_Locale@2@AAV32@@Z" PURGE="8" COMMENT="" />
    <EXPORT ORDINAL="836" NAME="?getDisplayName@AGL_TimeZone@agl_2_8@@QBEAAVAGL_UnicodeString@2@CW4EDisplayType@12@AAV32@@Z" PURGE="12" COMMENT="" />
    <EXPORT ORDINAL="837" NAME="?getDisplayName@AGL_TimeZone@agl_2_8@@QBEAAVAGL_UnicodeString@2@CW4EDisplayType@12@ABVAGL_Locale@2@AAV32@@Z" PURGE="16" COMMENT="" />
    <EXPORT ORDINAL="838" NAME="?getDisplayName@AGL_Transliterator@agl_2_8@@SAAAVAGL_UnicodeString@2@ABV32@AAV32@@Z" PURGE="0" COMMENT="" />
    <EXPORT ORDINAL="839" NAME="?getDisplayName@AGL_Transliterator@agl_2_8@@SAAAVAGL_UnicodeString@2@ABV32@ABVAGL_Locale@2@AAV32@@Z" PURGE="0" COMMENT="" />
    <EXPORT ORDINAL="840" NAME="?getDouble@AGL_Formattable@agl_2_8@@QBENPAW4AGL_UErrorCode@@@Z" PURGE="4" COMMENT="" />
    <EXPORT ORDINAL="841" NAME="?getDouble@AGL_Formattable@agl_2_8@@QBENXZ" PURGE="0" COMMENT="" />
    <EXPORT ORDINAL="842" NAME="?getDouble@DigitList@agl_2_8@@QAENXZ" PURGE="0" COMMENT="" />
    <EXPORT ORDINAL="843" NAME="?getDynamicClassID@AGL_ChoiceFormat@agl_2_8@@UBEPAXXZ" PURGE="0" COMMENT="" />
    <EXPORT ORDINAL="844" NAME="?getDynamicClassID@AGL_CollationElementIterator@agl_2_8@@UBEPAXXZ" PURGE="0" COMMENT="" />
    <EXPORT ORDINAL="845" NAME="?getDynamicClassID@AGL_CollationKey@agl_2_8@@UBEPAXXZ" PURGE="0" COMMENT="" />
    <EXPORT ORDINAL="846" NAME="?getDynamicClassID@AGL_DateFormatSymbols@agl_2_8@@UBEPAXXZ" PURGE="0" COMMENT="" />
    <EXPORT ORDINAL="847" NAME="?getDynamicClassID@AGL_DecimalFormat@agl_2_8@@UBEPAXXZ" PURGE="0" COMMENT="" />
    <EXPORT ORDINAL="848" NAME="?getDynamicClassID@AGL_DecimalFormatSymbols@agl_2_8@@UBEPAXXZ" PURGE="0" COMMENT="" />
    <EXPORT ORDINAL="849" NAME="?getDynamicClassID@AGL_FieldPosition@agl_2_8@@UBEPAXXZ" PURGE="0" COMMENT="" />
    <EXPORT ORDINAL="850" NAME="?getDynamicClassID@AGL_Formattable@agl_2_8@@UBEPAXXZ" PURGE="0" COMMENT="" />
    <EXPORT ORDINAL="851" NAME="?getDynamicClassID@AGL_GregorianCalendar@agl_2_8@@UBEPAXXZ" PURGE="0" COMMENT="" />
    <EXPORT ORDINAL="852" NAME="?getDynamicClassID@AGL_MessageFormat@agl_2_8@@UBEPAXXZ" PURGE="0" COMMENT="" />
    <EXPORT ORDINAL="853" NAME="?getDynamicClassID@AGL_RegexMatcher@agl_2_8@@UBEPAXXZ" PURGE="0" COMMENT="" />
    <EXPORT ORDINAL="854" NAME="?getDynamicClassID@AGL_RegexPattern@agl_2_8@@UBEPAXXZ" PURGE="0" COMMENT="" />
    <EXPORT ORDINAL="855" NAME="?getDynamicClassID@AGL_RuleBasedCollator@agl_2_8@@UBEPAXXZ" PURGE="0" COMMENT="" />
    <EXPORT ORDINAL="856" NAME="?getDynamicClassID@AGL_RuleBasedNumberFormat@agl_2_8@@UBEPAXXZ" PURGE="0" COMMENT="" />
    <EXPORT ORDINAL="857" NAME="?getDynamicClassID@AGL_SimpleDateFormat@agl_2_8@@UBEPAXXZ" PURGE="0" COMMENT="" />
    <EXPORT ORDINAL="858" NAME="?getDynamicClassID@AGL_SimpleTimeZone@agl_2_8@@UBEPAXXZ" PURGE="0" COMMENT="" />
    <EXPORT ORDINAL="859" NAME="?getDynamicClassID@AGL_StringSearch@agl_2_8@@UBEPAXXZ" PURGE="0" COMMENT="" />
    <EXPORT ORDINAL="860" NAME="?getDynamicClassID@AnyTransliterator@agl_2_8@@UBEPAXXZ" PURGE="0" COMMENT="" />
    <EXPORT ORDINAL="861" NAME="?getDynamicClassID@BuddhistCalendar@agl_2_8@@UBEPAXXZ" PURGE="0" COMMENT="" />
    <EXPORT ORDINAL="862" NAME="?getDynamicClassID@CompoundTransliterator@agl_2_8@@UBEPAXXZ" PURGE="0" COMMENT="" />
    <EXPORT ORDINAL="863" NAME="?getDynamicClassID@EscapeTransliterator@agl_2_8@@UBEPAXXZ" PURGE="0" COMMENT="" />
    <EXPORT ORDINAL="864" NAME="?getDynamicClassID@FunctionReplacer@agl_2_8@@UBEPAXXZ" PURGE="0" COMMENT="" />
    <EXPORT ORDINAL="865" NAME="?getDynamicClassID@HebrewCalendar@agl_2_8@@UBEPAXXZ" PURGE="0" COMMENT="" />
    <EXPORT ORDINAL="866" NAME="?getDynamicClassID@HexToUnicodeTransliterator@agl_2_8@@UBEPAXXZ" PURGE="0" COMMENT="" />
    <EXPORT ORDINAL="867" NAME="?getDynamicClassID@IslamicCalendar@agl_2_8@@UBEPAXXZ" PURGE="0" COMMENT="" />
    <EXPORT ORDINAL="868" NAME="?getDynamicClassID@JapaneseCalendar@agl_2_8@@UBEPAXXZ" PURGE="0" COMMENT="" />
    <EXPORT ORDINAL="869" NAME="?getDynamicClassID@LowercaseTransliterator@agl_2_8@@UBEPAXXZ" PURGE="0" COMMENT="" />
    <EXPORT ORDINAL="870" NAME="?getDynamicClassID@NameUnicodeTransliterator@agl_2_8@@UBEPAXXZ" PURGE="0" COMMENT="" />
    <EXPORT ORDINAL="871" NAME="?getDynamicClassID@NormalizationTransliterator@agl_2_8@@UBEPAXXZ" PURGE="0" COMMENT="" />
    <EXPORT ORDINAL="872" NAME="?getDynamicClassID@NullTransliterator@agl_2_8@@UBEPAXXZ" PURGE="0" COMMENT="" />
    <EXPORT ORDINAL="873" NAME="?getDynamicClassID@OlsonTimeZone@agl_2_8@@UBEPAXXZ" PURGE="0" COMMENT="" />
    <EXPORT ORDINAL="874" NAME="?getDynamicClassID@RemoveTransliterator@agl_2_8@@UBEPAXXZ" PURGE="0" COMMENT="" />
    <EXPORT ORDINAL="875" NAME="?getDynamicClassID@RuleBasedTransliterator@agl_2_8@@UBEPAXXZ" PURGE="0" COMMENT="" />
    <EXPORT ORDINAL="876" NAME="?getDynamicClassID@TitlecaseTransliterator@agl_2_8@@UBEPAXXZ" PURGE="0" COMMENT="" />
    <EXPORT ORDINAL="877" NAME="?getDynamicClassID@UnescapeTransliterator@agl_2_8@@UBEPAXXZ" PURGE="0" COMMENT="" />
    <EXPORT ORDINAL="878" NAME="?getDynamicClassID@UnicodeNameTransliterator@agl_2_8@@UBEPAXXZ" PURGE="0" COMMENT="" />
    <EXPORT ORDINAL="879" NAME="?getDynamicClassID@UnicodeToHexTransliterator@agl_2_8@@UBEPAXXZ" PURGE="0" COMMENT="" />
    <EXPORT ORDINAL="880" NAME="?getDynamicClassID@UppercaseTransliterator@agl_2_8@@UBEPAXXZ" PURGE="0" COMMENT="" />
    <EXPORT ORDINAL="881" NAME="?getECollationStrength@AGL_RuleBasedCollator@agl_2_8@@ABE?AW4ECollationStrength@AGL_Collator@2@ABW4AGL_UColAttributeValue@@@Z" PURGE="4" COMMENT="" />
    <EXPORT ORDINAL="882" NAME="?getEComparisonResult@AGL_RuleBasedCollator@agl_2_8@@ABE?AW4EComparisonResult@AGL_Collator@2@ABW4AGL_UCollationResult@@@Z" PURGE="4" COMMENT="" />
    <EXPORT ORDINAL="883" NAME="?getEndIndex@AGL_FieldPosition@agl_2_8@@QBEJXZ" PURGE="0" COMMENT="" />
    <EXPORT ORDINAL="884" NAME="?getEpochDay@AGL_GregorianCalendar@agl_2_8@@MAENAAW4AGL_UErrorCode@@@Z" PURGE="4" COMMENT="" />
    <EXPORT ORDINAL="885" NAME="?getEquivalentID@AGL_TimeZone@agl_2_8@@SA?BVAGL_UnicodeString@2@ABV32@J@Z" PURGE="0" COMMENT="" />
    <EXPORT ORDINAL="886" NAME="?getEras@AGL_DateFormatSymbols@agl_2_8@@QBEPBVAGL_UnicodeString@2@AAJ@Z" PURGE="4" COMMENT="" />
    <EXPORT ORDINAL="887" NAME="?getField@AGL_FieldPosition@agl_2_8@@QBEJXZ" PURGE="0" COMMENT="" />
    <EXPORT ORDINAL="888" NAME="?getFieldResolutionTable@AGL_Calendar@agl_2_8@@MBEPAY1M@7$$CBJXZ" PURGE="0" COMMENT="" />
    <EXPORT ORDINAL="889" NAME="?getFilter@AGL_Transliterator@agl_2_8@@QBEPBVAGL_UnicodeFilter@2@XZ" PURGE="0" COMMENT="" />
    <EXPORT ORDINAL="890" NAME="?getFirstDayOfWeek@AGL_Calendar@agl_2_8@@QBE?AW4AGL_UCalendarDaysOfWeek@@AAW4AGL_UErrorCode@@@Z" PURGE="4" COMMENT="" />
    <EXPORT ORDINAL="891" NAME="?getFirstDayOfWeek@AGL_Calendar@agl_2_8@@QBE?AW4EDaysOfWeek@12@XZ" PURGE="0" COMMENT="" />
    <EXPORT ORDINAL="892" NAME="?getFormatWidth@AGL_DecimalFormat@agl_2_8@@UAEJXZ" PURGE="0" COMMENT="" />
    <EXPORT ORDINAL="893" NAME="?getFormats@AGL_ChoiceFormat@agl_2_8@@UBEPBVAGL_UnicodeString@2@AAJ@Z" PURGE="4" COMMENT="" />
    <EXPORT ORDINAL="894" NAME="?getFormats@AGL_MessageFormat@agl_2_8@@UBEPAPBVAGL_Format@2@AAJ@Z" PURGE="4" COMMENT="" />
    <EXPORT ORDINAL="895" NAME="?getGMT@AGL_TimeZone@agl_2_8@@SAPBV12@XZ" PURGE="0" COMMENT="" />
    <EXPORT ORDINAL="896" NAME="?getGreatestMinimum@AGL_Calendar@agl_2_8@@UBEJW4AGL_UCalendarDateFields@@@Z" PURGE="4" COMMENT="" />
    <EXPORT ORDINAL="897" NAME="?getGreatestMinimum@AGL_Calendar@agl_2_8@@UBEJW4EDateFields@12@@Z" PURGE="4" COMMENT="" />
    <EXPORT ORDINAL="898" NAME="?getGreenwichSidereal@CalendarAstronomer@agl_2_8@@QAENXZ" PURGE="0" COMMENT="" />
    <EXPORT ORDINAL="899" NAME="?getGregorianChange@AGL_GregorianCalendar@agl_2_8@@QBENXZ" PURGE="0" COMMENT="" />
    <EXPORT ORDINAL="900" NAME="?getGregorianDayOfMonth@AGL_Calendar@agl_2_8@@IBEJXZ" PURGE="0" COMMENT="" />
    <EXPORT ORDINAL="901" NAME="?getGregorianDayOfYear@AGL_Calendar@agl_2_8@@IBEJXZ" PURGE="0" COMMENT="" />
    <EXPORT ORDINAL="902" NAME="?getGregorianMonth@AGL_Calendar@agl_2_8@@IBEJXZ" PURGE="0" COMMENT="" />
    <EXPORT ORDINAL="903" NAME="?getGregorianYear@AGL_Calendar@agl_2_8@@IBEJXZ" PURGE="0" COMMENT="" />
    <EXPORT ORDINAL="904" NAME="?getGregorianYear@BuddhistCalendar@agl_2_8@@IBEJAAW4AGL_UErrorCode@@@Z" PURGE="4" COMMENT="" />
    <EXPORT ORDINAL="905" NAME="?getGroupingSize@AGL_DecimalFormat@agl_2_8@@QBEJXZ" PURGE="0" COMMENT="" />
    <EXPORT ORDINAL="906" NAME="?getID@AGL_TimeZone@agl_2_8@@QBEAAVAGL_UnicodeString@2@AAV32@@Z" PURGE="4" COMMENT="" />
    <EXPORT ORDINAL="907" NAME="?getID@AGL_Transliterator@agl_2_8@@UBEABVAGL_UnicodeString@2@XZ" PURGE="0" COMMENT="" />
    <EXPORT ORDINAL="908" NAME="?getInt64@AGL_Formattable@agl_2_8@@QBE_JPAW4AGL_UErrorCode@@@Z" PURGE="4" COMMENT="" />
    <EXPORT ORDINAL="909" NAME="?getInt64@AGL_Formattable@agl_2_8@@QBE_JXZ" PURGE="0" COMMENT="" />
    <EXPORT ORDINAL="910" NAME="?getInt64@DigitList@agl_2_8@@QAE_JXZ" PURGE="0" COMMENT="" />
    <EXPORT ORDINAL="911" NAME="?getJulianCentury@CalendarAstronomer@agl_2_8@@QAENXZ" PURGE="0" COMMENT="" />
    <EXPORT ORDINAL="912" NAME="?getJulianDay@CalendarAstronomer@agl_2_8@@QAENXZ" PURGE="0" COMMENT="" />
    <EXPORT ORDINAL="913" NAME="?getLeastMaximum@AGL_Calendar@agl_2_8@@UBEJW4AGL_UCalendarDateFields@@@Z" PURGE="4" COMMENT="" />
    <EXPORT ORDINAL="914" NAME="?getLeastMaximum@AGL_Calendar@agl_2_8@@UBEJW4EDateFields@12@@Z" PURGE="4" COMMENT="" />
    <EXPORT ORDINAL="915" NAME="?getLeastMaximum@BuddhistCalendar@agl_2_8@@UBEJW4AGL_UCalendarDateFields@@@Z" PURGE="4" COMMENT="" />
    <EXPORT ORDINAL="916" NAME="?getLeastMaximum@BuddhistCalendar@agl_2_8@@UBEJW4EDateFields@AGL_Calendar@2@@Z" PURGE="-1" COMMENT="" />
    <EXPORT ORDINAL="917" NAME="?getLimit@AGL_Calendar@agl_2_8@@MBEJW4AGL_UCalendarDateFields@@W4ELimitType@12@@Z" PURGE="8" COMMENT="" />
    <EXPORT ORDINAL="918" NAME="?getLimits@AGL_ChoiceFormat@agl_2_8@@UBEPBNAAJ@Z" PURGE="4" COMMENT="" />
    <EXPORT ORDINAL="919" NAME="?getLocalDOW@AGL_Calendar@agl_2_8@@IAEJXZ" PURGE="0" COMMENT="" />
    <EXPORT ORDINAL="920" NAME="?getLocalPatternChars@AGL_DateFormatSymbols@agl_2_8@@QBEAAVAGL_UnicodeString@2@AAV32@@Z" PURGE="4" COMMENT="" />
    <EXPORT ORDINAL="921" NAME="?getLocalSidereal@CalendarAstronomer@agl_2_8@@QAENXZ" PURGE="0" COMMENT="" />
    <EXPORT ORDINAL="922" NAME="?getLocale@AGL_Calendar@agl_2_8@@QBE?AVAGL_Locale@2@W4AGL_ULocDataLocaleType@@AAW4AGL_UErrorCode@@@Z" PURGE="12" COMMENT="" />
    <EXPORT ORDINAL="923" NAME="?getLocale@AGL_DateFormatSymbols@agl_2_8@@QBE?AVAGL_Locale@2@W4AGL_ULocDataLocaleType@@AAW4AGL_UErrorCode@@@Z" PURGE="12" COMMENT="" />
    <EXPORT ORDINAL="924" NAME="?getLocale@AGL_DecimalFormatSymbols@agl_2_8@@QBE?AVAGL_Locale@2@W4AGL_ULocDataLocaleType@@AAW4AGL_UErrorCode@@@Z" PURGE="12" COMMENT="" />
    <EXPORT ORDINAL="925" NAME="?getLocale@AGL_DecimalFormatSymbols@agl_2_8@@QBE?AVAGL_Locale@2@XZ" PURGE="4" COMMENT="" />
    <EXPORT ORDINAL="926" NAME="?getLocale@AGL_Format@agl_2_8@@QBE?AVAGL_Locale@2@W4AGL_ULocDataLocaleType@@AAW4AGL_UErrorCode@@@Z" PURGE="12" COMMENT="" />
    <EXPORT ORDINAL="927" NAME="?getLocale@AGL_MessageFormat@agl_2_8@@UBEABVAGL_Locale@2@XZ" PURGE="0" COMMENT="" />
    <EXPORT ORDINAL="928" NAME="?getLocale@AGL_RuleBasedCollator@agl_2_8@@UBE?BVAGL_Locale@2@W4AGL_ULocDataLocaleType@@AAW4AGL_UErrorCode@@@Z" PURGE="12" COMMENT="" />
    <EXPORT ORDINAL="929" NAME="?getLocaleID@AGL_Calendar@agl_2_8@@QBEPBDW4AGL_ULocDataLocaleType@@AAW4AGL_UErrorCode@@@Z" PURGE="8" COMMENT="" />
    <EXPORT ORDINAL="930" NAME="?getLocaleID@AGL_Format@agl_2_8@@QBEPBDW4AGL_ULocDataLocaleType@@AAW4AGL_UErrorCode@@@Z" PURGE="8" COMMENT="" />
    <EXPORT ORDINAL="931" NAME="?getLong@AGL_Formattable@agl_2_8@@QBEJPAW4AGL_UErrorCode@@@Z" PURGE="4" COMMENT="" />
    <EXPORT ORDINAL="932" NAME="?getLong@AGL_Formattable@agl_2_8@@QBEJXZ" PURGE="0" COMMENT="" />
    <EXPORT ORDINAL="933" NAME="?getLong@DigitList@agl_2_8@@QAEJXZ" PURGE="0" COMMENT="" />
    <EXPORT ORDINAL="934" NAME="?getMatchedLength@AGL_SearchIterator@agl_2_8@@QBEJXZ" PURGE="0" COMMENT="" />
    <EXPORT ORDINAL="935" NAME="?getMatchedStart@AGL_SearchIterator@agl_2_8@@QBEJXZ" PURGE="0" COMMENT="" />
    <EXPORT ORDINAL="936" NAME="?getMatchedText@AGL_SearchIterator@agl_2_8@@QBEXAAVAGL_UnicodeString@2@@Z" PURGE="4" COMMENT="" />
    <EXPORT ORDINAL="937" NAME="?getMaxExpansion@AGL_CollationElementIterator@agl_2_8@@QBEJJ@Z" PURGE="4" COMMENT="" />
    <EXPORT ORDINAL="938" NAME="?getMaxExpansion@AGL_RuleBasedCollator@agl_2_8@@QBEJJ@Z" PURGE="4" COMMENT="" />
    <EXPORT ORDINAL="939" NAME="?getMaximum@AGL_Calendar@agl_2_8@@UBEJW4AGL_UCalendarDateFields@@@Z" PURGE="4" COMMENT="" />
    <EXPORT ORDINAL="940" NAME="?getMaximum@AGL_Calendar@agl_2_8@@UBEJW4EDateFields@12@@Z" PURGE="4" COMMENT="" />
    <EXPORT ORDINAL="941" NAME="?getMaximum@BuddhistCalendar@agl_2_8@@UBEJW4AGL_UCalendarDateFields@@@Z" PURGE="4" COMMENT="" />
    <EXPORT ORDINAL="942" NAME="?getMaximum@BuddhistCalendar@agl_2_8@@UBEJW4EDateFields@AGL_Calendar@2@@Z" PURGE="-1" COMMENT="" />
    <EXPORT ORDINAL="943" NAME="?getMaximumContextLength@AGL_Transliterator@agl_2_8@@QBEJXZ" PURGE="0" COMMENT="" />
    <EXPORT ORDINAL="944" NAME="?getMaximumContextLength@TransliterationRuleSet@agl_2_8@@UBEJXZ" PURGE="0" COMMENT="" />
    <EXPORT ORDINAL="945" NAME="?getMaximumFractionDigits@AGL_NumberFormat@agl_2_8@@QBEJXZ" PURGE="0" COMMENT="" />
    <EXPORT ORDINAL="946" NAME="?getMaximumIntegerDigits@AGL_NumberFormat@agl_2_8@@QBEJXZ" PURGE="0" COMMENT="" />
    <EXPORT ORDINAL="947" NAME="?getMinimalDaysInFirstWeek@AGL_Calendar@agl_2_8@@QBEEXZ" PURGE="0" COMMENT="" />
    <EXPORT ORDINAL="948" NAME="?getMinimum@AGL_Calendar@agl_2_8@@UBEJW4AGL_UCalendarDateFields@@@Z" PURGE="4" COMMENT="" />
    <EXPORT ORDINAL="949" NAME="?getMinimum@AGL_Calendar@agl_2_8@@UBEJW4EDateFields@12@@Z" PURGE="4" COMMENT="" />
    <EXPORT ORDINAL="950" NAME="?getMinimumExponentDigits@AGL_DecimalFormat@agl_2_8@@UAECXZ" PURGE="0" COMMENT="" />
    <EXPORT ORDINAL="951" NAME="?getMinimumFractionDigits@AGL_NumberFormat@agl_2_8@@QBEJXZ" PURGE="0" COMMENT="" />
    <EXPORT ORDINAL="952" NAME="?getMinimumIntegerDigits@AGL_NumberFormat@agl_2_8@@QBEJXZ" PURGE="0" COMMENT="" />
    <EXPORT ORDINAL="953" NAME="?getMonths@AGL_DateFormatSymbols@agl_2_8@@QBEPBVAGL_UnicodeString@2@AAJ@Z" PURGE="4" COMMENT="" />
    <EXPORT ORDINAL="954" NAME="?getMoonAge@CalendarAstronomer@agl_2_8@@QAENXZ" PURGE="0" COMMENT="" />
    <EXPORT ORDINAL="955" NAME="?getMoonPhase@CalendarAstronomer@agl_2_8@@QAENXZ" PURGE="0" COMMENT="" />
    <EXPORT ORDINAL="956" NAME="?getMoonPosition@CalendarAstronomer@agl_2_8@@QAEABVEquatorial@12@XZ" PURGE="0" COMMENT="" />
    <EXPORT ORDINAL="957" NAME="?getMoonRiseSet@CalendarAstronomer@agl_2_8@@QAENC@Z" PURGE="4" COMMENT="" />
    <EXPORT ORDINAL="958" NAME="?getMoonTime@CalendarAstronomer@agl_2_8@@QAENABVMoonAge@12@C@Z" PURGE="8" COMMENT="" />
    <EXPORT ORDINAL="959" NAME="?getMoonTime@CalendarAstronomer@agl_2_8@@QAENNC@Z" PURGE="12" COMMENT="" />
    <EXPORT ORDINAL="960" NAME="?getMultiplier@AGL_DecimalFormat@agl_2_8@@QBEJXZ" PURGE="0" COMMENT="" />
    <EXPORT ORDINAL="961" NAME="?getNegativePrefix@AGL_DecimalFormat@agl_2_8@@QBEAAVAGL_UnicodeString@2@AAV32@@Z" PURGE="4" COMMENT="" />
    <EXPORT ORDINAL="962" NAME="?getNegativeSuffix@AGL_DecimalFormat@agl_2_8@@QBEAAVAGL_UnicodeString@2@AAV32@@Z" PURGE="4" COMMENT="" />
    <EXPORT ORDINAL="963" NAME="?getNow@AGL_Calendar@agl_2_8@@SANXZ" PURGE="0" COMMENT="" />
    <EXPORT ORDINAL="964" NAME="?getNumberFormat@AGL_DateFormat@agl_2_8@@UBEPBVAGL_NumberFormat@2@XZ" PURGE="0" COMMENT="" />
    <EXPORT ORDINAL="965" NAME="?getNumberOfRuleSetNames@AGL_RuleBasedNumberFormat@agl_2_8@@UBEJXZ" PURGE="0" COMMENT="" />
    <EXPORT ORDINAL="966" NAME="?getOffset@AGL_CollationElementIterator@agl_2_8@@QBEJXZ" PURGE="0" COMMENT="" />
    <EXPORT ORDINAL="967" NAME="?getOffset@AGL_SimpleTimeZone@agl_2_8@@UBEJEJJJEJAAW4AGL_UErrorCode@@@Z" PURGE="28" COMMENT="" />
    <EXPORT ORDINAL="968" NAME="?getOffset@AGL_SimpleTimeZone@agl_2_8@@UBEJEJJJEJJAAW4AGL_UErrorCode@@@Z" PURGE="32" COMMENT="" />
    <EXPORT ORDINAL="969" NAME="?getOffset@AGL_SimpleTimeZone@agl_2_8@@UBEJEJJJEJJJAAW4AGL_UErrorCode@@@Z" PURGE="36" COMMENT="" />
    <EXPORT ORDINAL="970" NAME="?getOffset@AGL_SimpleTimeZone@agl_2_8@@UBEXNCAAJ0AAW4AGL_UErrorCode@@@Z" PURGE="24" COMMENT="" />
    <EXPORT ORDINAL="971" NAME="?getOffset@AGL_StringSearch@agl_2_8@@UBEJXZ" PURGE="0" COMMENT="" />
    <EXPORT ORDINAL="972" NAME="?getOffset@AGL_TimeZone@agl_2_8@@UBEXNCAAJ0AAW4AGL_UErrorCode@@@Z" PURGE="24" COMMENT="" />
    <EXPORT ORDINAL="973" NAME="?getOffset@OlsonTimeZone@agl_2_8@@UBEJEJJJEJAAW4AGL_UErrorCode@@@Z" PURGE="28" COMMENT="" />
    <EXPORT ORDINAL="974" NAME="?getOffset@OlsonTimeZone@agl_2_8@@UBEJEJJJEJJAAW4AGL_UErrorCode@@@Z" PURGE="32" COMMENT="" />
    <EXPORT ORDINAL="975" NAME="?getOffset@OlsonTimeZone@agl_2_8@@UBEXNCAAJ0AAW4AGL_UErrorCode@@@Z" PURGE="24" COMMENT="" />
    <EXPORT ORDINAL="976" NAME="?getPadCharacterString@AGL_DecimalFormat@agl_2_8@@UAE?AVAGL_UnicodeString@2@XZ" PURGE="4" COMMENT="" />
    <EXPORT ORDINAL="977" NAME="?getPadPosition@AGL_DecimalFormat@agl_2_8@@UAE?AW4EPadPosition@12@XZ" PURGE="0" COMMENT="" />
    <EXPORT ORDINAL="978" NAME="?getPattern@AGL_StringSearch@agl_2_8@@QBEABVAGL_UnicodeString@2@XZ" PURGE="0" COMMENT="" />
    <EXPORT ORDINAL="979" NAME="?getPatternUChars@AGL_DateFormatSymbols@agl_2_8@@SAPBGXZ" PURGE="0" COMMENT="" />
    <EXPORT ORDINAL="980" NAME="?getPositivePrefix@AGL_DecimalFormat@agl_2_8@@QBEAAVAGL_UnicodeString@2@AAV32@@Z" PURGE="4" COMMENT="" />
    <EXPORT ORDINAL="981" NAME="?getPositiveSuffix@AGL_DecimalFormat@agl_2_8@@QBEAAVAGL_UnicodeString@2@AAV32@@Z" PURGE="4" COMMENT="" />
    <EXPORT ORDINAL="982" NAME="?getRawOffset@AGL_SimpleTimeZone@agl_2_8@@UBEJXZ" PURGE="0" COMMENT="" />
    <EXPORT ORDINAL="983" NAME="?getRawOffset@OlsonTimeZone@agl_2_8@@UBEJXZ" PURGE="0" COMMENT="" />
    <EXPORT ORDINAL="984" NAME="?getRoundingIncrement@AGL_DecimalFormat@agl_2_8@@UAENXZ" PURGE="0" COMMENT="" />
    <EXPORT ORDINAL="985" NAME="?getRoundingMode@AGL_DecimalFormat@agl_2_8@@UAE?AW4ERoundingMode@12@XZ" PURGE="0" COMMENT="" />
    <EXPORT ORDINAL="986" NAME="?getRuleSetName@AGL_RuleBasedNumberFormat@agl_2_8@@UBE?AVAGL_UnicodeString@2@J@Z" PURGE="8" COMMENT="" />
    <EXPORT ORDINAL="987" NAME="?getRules@AGL_RuleBasedCollator@agl_2_8@@QAEXW4AGL_UColRuleOption@@AAVAGL_UnicodeString@2@@Z" PURGE="8" COMMENT="" />
    <EXPORT ORDINAL="988" NAME="?getRules@AGL_RuleBasedCollator@agl_2_8@@QBEABVAGL_UnicodeString@2@XZ" PURGE="0" COMMENT="" />
    <EXPORT ORDINAL="989" NAME="?getRules@AGL_RuleBasedNumberFormat@agl_2_8@@UBE?AVAGL_UnicodeString@2@XZ" PURGE="4" COMMENT="" />
    <EXPORT ORDINAL="990" NAME="?getSecondaryGroupingSize@AGL_DecimalFormat@agl_2_8@@QBEJXZ" PURGE="0" COMMENT="" />
    <EXPORT ORDINAL="991" NAME="?getShortMonths@AGL_DateFormatSymbols@agl_2_8@@QBEPBVAGL_UnicodeString@2@AAJ@Z" PURGE="4" COMMENT="" />
    <EXPORT ORDINAL="992" NAME="?getShortWeekdays@AGL_DateFormatSymbols@agl_2_8@@QBEPBVAGL_UnicodeString@2@AAJ@Z" PURGE="4" COMMENT="" />
    <EXPORT ORDINAL="993" NAME="?getSiderealOffset@CalendarAstronomer@agl_2_8@@AAENXZ" PURGE="0" COMMENT="" />
    <EXPORT ORDINAL="994" NAME="?getSortKey@AGL_RuleBasedCollator@agl_2_8@@UBEJABVAGL_UnicodeString@2@PAEJ@Z" PURGE="12" COMMENT="" />
    <EXPORT ORDINAL="995" NAME="?getSortKey@AGL_RuleBasedCollator@agl_2_8@@UBEJPBGJPAEJ@Z" PURGE="16" COMMENT="" />
    <EXPORT ORDINAL="996" NAME="?getSourceSet@AGL_Transliterator@agl_2_8@@QBEAAVAGL_UnicodeSet@2@AAV32@@Z" PURGE="4" COMMENT="" />
    <EXPORT ORDINAL="997" NAME="?getSourceTargetSet@TransliterationRuleSet@agl_2_8@@QBEAAVAGL_UnicodeSet@2@AAV32@C@Z" PURGE="8" COMMENT="" />
    <EXPORT ORDINAL="998" NAME="?getStaticClassID@AGL_ChoiceFormat@agl_2_8@@SAPAXXZ" PURGE="0" COMMENT="" />
    <EXPORT ORDINAL="999" NAME="?getStaticClassID@AGL_CollationElementIterator@agl_2_8@@SAPAXXZ" PURGE="0" COMMENT="" />
    <EXPORT ORDINAL="1000" NAME="?getStaticClassID@AGL_CollationKey@agl_2_8@@SAPAXXZ" PURGE="0" COMMENT="" />
    <EXPORT ORDINAL="1001" NAME="?getStaticClassID@AGL_DateFormatSymbols@agl_2_8@@SAPAXXZ" PURGE="0" COMMENT="" />
    <EXPORT ORDINAL="1002" NAME="?getStaticClassID@AGL_DecimalFormat@agl_2_8@@SAPAXXZ" PURGE="0" COMMENT="" />
    <EXPORT ORDINAL="1003" NAME="?getStaticClassID@AGL_DecimalFormatSymbols@agl_2_8@@SAPAXXZ" PURGE="0" COMMENT="" />
    <EXPORT ORDINAL="1004" NAME="?getStaticClassID@AGL_FieldPosition@agl_2_8@@SAPAXXZ" PURGE="0" COMMENT="" />
    <EXPORT ORDINAL="1005" NAME="?getStaticClassID@AGL_Formattable@agl_2_8@@SAPAXXZ" PURGE="0" COMMENT="" />
    <EXPORT ORDINAL="1006" NAME="?getStaticClassID@AGL_GregorianCalendar@agl_2_8@@SAPAXXZ" PURGE="0" COMMENT="" />
    <EXPORT ORDINAL="1007" NAME="?getStaticClassID@AGL_MessageFormat@agl_2_8@@SAPAXXZ" PURGE="0" COMMENT="" />
    <EXPORT ORDINAL="1008" NAME="?getStaticClassID@AGL_RegexMatcher@agl_2_8@@SAPAXXZ" PURGE="0" COMMENT="" />
    <EXPORT ORDINAL="1009" NAME="?getStaticClassID@AGL_RegexPattern@agl_2_8@@SAPAXXZ" PURGE="0" COMMENT="" />
    <EXPORT ORDINAL="1010" NAME="?getStaticClassID@AGL_RuleBasedCollator@agl_2_8@@SAPAXXZ" PURGE="0" COMMENT="" />
    <EXPORT ORDINAL="1011" NAME="?getStaticClassID@AGL_RuleBasedNumberFormat@agl_2_8@@SAPAXXZ" PURGE="0" COMMENT="" />
    <EXPORT ORDINAL="1012" NAME="?getStaticClassID@AGL_SimpleDateFormat@agl_2_8@@SAPAXXZ" PURGE="0" COMMENT="" />
    <EXPORT ORDINAL="1013" NAME="?getStaticClassID@AGL_SimpleTimeZone@agl_2_8@@SAPAXXZ" PURGE="0" COMMENT="" />
    <EXPORT ORDINAL="1014" NAME="?getStaticClassID@AGL_StringSearch@agl_2_8@@SAPAXXZ" PURGE="0" COMMENT="" />
    <EXPORT ORDINAL="1015" NAME="?getStaticClassID@AnyTransliterator@agl_2_8@@SAPAXXZ" PURGE="0" COMMENT="" />
    <EXPORT ORDINAL="1016" NAME="?getStaticClassID@BuddhistCalendar@agl_2_8@@SAPAXXZ" PURGE="0" COMMENT="" />
    <EXPORT ORDINAL="1017" NAME="?getStaticClassID@CompoundTransliterator@agl_2_8@@SAPAXXZ" PURGE="0" COMMENT="" />
    <EXPORT ORDINAL="1018" NAME="?getStaticClassID@EscapeTransliterator@agl_2_8@@SAPAXXZ" PURGE="0" COMMENT="" />
    <EXPORT ORDINAL="1019" NAME="?getStaticClassID@FunctionReplacer@agl_2_8@@SAPAXXZ" PURGE="0" COMMENT="" />
    <EXPORT ORDINAL="1020" NAME="?getStaticClassID@HebrewCalendar@agl_2_8@@SAPAXXZ" PURGE="0" COMMENT="" />
    <EXPORT ORDINAL="1021" NAME="?getStaticClassID@HexToUnicodeTransliterator@agl_2_8@@SAPAXXZ" PURGE="0" COMMENT="" />
    <EXPORT ORDINAL="1022" NAME="?getStaticClassID@IslamicCalendar@agl_2_8@@SAPAXXZ" PURGE="0" COMMENT="" />
    <EXPORT ORDINAL="1023" NAME="?getStaticClassID@JapaneseCalendar@agl_2_8@@SAPAXXZ" PURGE="0" COMMENT="" />
    <EXPORT ORDINAL="1024" NAME="?getStaticClassID@LowercaseTransliterator@agl_2_8@@SAPAXXZ" PURGE="0" COMMENT="" />
    <EXPORT ORDINAL="1025" NAME="?getStaticClassID@NameUnicodeTransliterator@agl_2_8@@SAPAXXZ" PURGE="0" COMMENT="" />
    <EXPORT ORDINAL="1026" NAME="?getStaticClassID@NormalizationTransliterator@agl_2_8@@SAPAXXZ" PURGE="0" COMMENT="" />
    <EXPORT ORDINAL="1027" NAME="?getStaticClassID@NullTransliterator@agl_2_8@@SAPAXXZ" PURGE="0" COMMENT="" />
    <EXPORT ORDINAL="1028" NAME="?getStaticClassID@OlsonTimeZone@agl_2_8@@SAPAXXZ" PURGE="0" COMMENT="" />
    <EXPORT ORDINAL="1029" NAME="?getStaticClassID@RemoveTransliterator@agl_2_8@@SAPAXXZ" PURGE="0" COMMENT="" />
    <EXPORT ORDINAL="1030" NAME="?getStaticClassID@RuleBasedTransliterator@agl_2_8@@SAPAXXZ" PURGE="0" COMMENT="" />
    <EXPORT ORDINAL="1031" NAME="?getStaticClassID@TitlecaseTransliterator@agl_2_8@@SAPAXXZ" PURGE="0" COMMENT="" />
    <EXPORT ORDINAL="1032" NAME="?getStaticClassID@UnescapeTransliterator@agl_2_8@@SAPAXXZ" PURGE="0" COMMENT="" />
    <EXPORT ORDINAL="1033" NAME="?getStaticClassID@UnicodeNameTransliterator@agl_2_8@@SAPAXXZ" PURGE="0" COMMENT="" />
    <EXPORT ORDINAL="1034" NAME="?getStaticClassID@UnicodeToHexTransliterator@agl_2_8@@SAPAXXZ" PURGE="0" COMMENT="" />
    <EXPORT ORDINAL="1035" NAME="?getStaticClassID@UppercaseTransliterator@agl_2_8@@SAPAXXZ" PURGE="0" COMMENT="" />
    <EXPORT ORDINAL="1036" NAME="?getStrength@AGL_RuleBasedCollator@agl_2_8@@UBE?AW4ECollationStrength@AGL_Collator@2@XZ" PURGE="0" COMMENT="" />
    <EXPORT ORDINAL="1037" NAME="?getString@AGL_Formattable@agl_2_8@@QAEAAVAGL_UnicodeString@2@PAW4AGL_UErrorCode@@@Z" PURGE="4" COMMENT="" />
    <EXPORT ORDINAL="1038" NAME="?getString@AGL_Formattable@agl_2_8@@QAEAAVAGL_UnicodeString@2@XZ" PURGE="0" COMMENT="" />
    <EXPORT ORDINAL="1039" NAME="?getString@AGL_Formattable@agl_2_8@@QBEAAVAGL_UnicodeString@2@AAV32@@Z" PURGE="4" COMMENT="" />
    <EXPORT ORDINAL="1040" NAME="?getString@AGL_Formattable@agl_2_8@@QBEAAVAGL_UnicodeString@2@AAV32@PAW4AGL_UErrorCode@@@Z" PURGE="8" COMMENT="" />
    <EXPORT ORDINAL="1041" NAME="?getString@AGL_Formattable@agl_2_8@@QBEABVAGL_UnicodeString@2@PAW4AGL_UErrorCode@@@Z" PURGE="4" COMMENT="" />
    <EXPORT ORDINAL="1042" NAME="?getString@AGL_Formattable@agl_2_8@@QBEABVAGL_UnicodeString@2@XZ" PURGE="0" COMMENT="" />
    <EXPORT ORDINAL="1043" NAME="?getSunLongitude@CalendarAstronomer@agl_2_8@@QAENXZ" PURGE="0" COMMENT="" />
    <EXPORT ORDINAL="1044" NAME="?getSunLongitude@CalendarAstronomer@agl_2_8@@QAEXNAAN0@Z" PURGE="16" COMMENT="" />
    <EXPORT ORDINAL="1045" NAME="?getSunPosition@CalendarAstronomer@agl_2_8@@QAEAAVEquatorial@12@AAV312@@Z" PURGE="4" COMMENT="" />
    <EXPORT ORDINAL="1046" NAME="?getSunRiseSet@CalendarAstronomer@agl_2_8@@QAENC@Z" PURGE="4" COMMENT="" />
    <EXPORT ORDINAL="1047" NAME="?getSunTime@CalendarAstronomer@agl_2_8@@QAENNC@Z" PURGE="12" COMMENT="" />
    <EXPORT ORDINAL="1048" NAME="?getSupportedIDs@AGL_SimpleNumberFormatFactory@agl_2_8@@UBEPBVAGL_UnicodeString@2@AAJAAW4AGL_UErrorCode@@@Z" PURGE="8" COMMENT="" />
    <EXPORT ORDINAL="1049" NAME="?getSymbol@AGL_DecimalFormatSymbols@agl_2_8@@QBE?AVAGL_UnicodeString@2@W4ENumberFormatSymbol@12@@Z" PURGE="8" COMMENT="" />
    <EXPORT ORDINAL="1050" NAME="?getTailoredSet@AGL_Collator@agl_2_8@@UBEPAVAGL_UnicodeSet@2@AAW4AGL_UErrorCode@@@Z" PURGE="4" COMMENT="" />
    <EXPORT ORDINAL="1051" NAME="?getTailoredSet@AGL_RuleBasedCollator@agl_2_8@@UBEPAVAGL_UnicodeSet@2@AAW4AGL_UErrorCode@@@Z" PURGE="4" COMMENT="" />
    <EXPORT ORDINAL="1052" NAME="?getTargetSet@AGL_Transliterator@agl_2_8@@UBEAAVAGL_UnicodeSet@2@AAV32@@Z" PURGE="4" COMMENT="" />
    <EXPORT ORDINAL="1053" NAME="?getTargetSet@CompoundTransliterator@agl_2_8@@UBEAAVAGL_UnicodeSet@2@AAV32@@Z" PURGE="4" COMMENT="" />
    <EXPORT ORDINAL="1054" NAME="?getTargetSet@RuleBasedTransliterator@agl_2_8@@UBEAAVAGL_UnicodeSet@2@AAV32@@Z" PURGE="4" COMMENT="" />
    <EXPORT ORDINAL="1055" NAME="?getText@AGL_SearchIterator@agl_2_8@@QBEABVAGL_UnicodeString@2@XZ" PURGE="0" COMMENT="" />
    <EXPORT ORDINAL="1056" NAME="?getTime@AGL_Calendar@agl_2_8@@QBENAAW4AGL_UErrorCode@@@Z" PURGE="4" COMMENT="" />
    <EXPORT ORDINAL="1057" NAME="?getTime@CalendarAstronomer@agl_2_8@@QAENXZ" PURGE="0" COMMENT="" />
    <EXPORT ORDINAL="1058" NAME="?getTimeInMillis@AGL_Calendar@agl_2_8@@IBENAAW4AGL_UErrorCode@@@Z" PURGE="4" COMMENT="" />
    <EXPORT ORDINAL="1059" NAME="?getTimeZone@AGL_Calendar@agl_2_8@@QBEABVAGL_TimeZone@2@XZ" PURGE="0" COMMENT="" />
    <EXPORT ORDINAL="1060" NAME="?getTimeZone@AGL_DateFormat@agl_2_8@@UBEABVAGL_TimeZone@2@XZ" PURGE="0" COMMENT="" />
    <EXPORT ORDINAL="1061" NAME="?getTransliterator@AnyTransliterator@agl_2_8@@ABEPAVAGL_Transliterator@2@W4AGL_UScriptCode@@@Z" PURGE="4" COMMENT="" />
    <EXPORT ORDINAL="1062" NAME="?getTransliterator@CompoundTransliterator@agl_2_8@@UBEABVAGL_Transliterator@2@J@Z" PURGE="4" COMMENT="" />
    <EXPORT ORDINAL="1063" NAME="?getType@AGL_Formattable@agl_2_8@@QBE?AW4Type@12@XZ" PURGE="0" COMMENT="" />
    <EXPORT ORDINAL="1064" NAME="?getType@AGL_GregorianCalendar@agl_2_8@@UBEPBDXZ" PURGE="0" COMMENT="" />
    <EXPORT ORDINAL="1065" NAME="?getType@BuddhistCalendar@agl_2_8@@UBEPBDXZ" PURGE="0" COMMENT="" />
    <EXPORT ORDINAL="1066" NAME="?getType@HebrewCalendar@agl_2_8@@UBEPBDXZ" PURGE="0" COMMENT="" />
    <EXPORT ORDINAL="1067" NAME="?getType@IslamicCalendar@agl_2_8@@UBEPBDXZ" PURGE="0" COMMENT="" />
    <EXPORT ORDINAL="1068" NAME="?getType@JapaneseCalendar@agl_2_8@@UBEPBDXZ" PURGE="0" COMMENT="" />
    <EXPORT ORDINAL="1069" NAME="?getUCollationStrength@AGL_RuleBasedCollator@agl_2_8@@ABE?AW4AGL_UColAttributeValue@@ABW4ECollationStrength@AGL_Collator@2@@Z" PURGE="4" COMMENT="" />
    <EXPORT ORDINAL="1070" NAME="?getUCollator@AGL_RuleBasedCollator@agl_2_8@@QAEPBUAGL_UCollator@@XZ" PURGE="0" COMMENT="" />
    <EXPORT ORDINAL="1071" NAME="?getVariableTop@AGL_RuleBasedCollator@agl_2_8@@UBEKAAW4AGL_UErrorCode@@@Z" PURGE="4" COMMENT="" />
    <EXPORT ORDINAL="1072" NAME="?getVersion@AGL_RuleBasedCollator@agl_2_8@@UBEXQAE@Z" PURGE="4" COMMENT="" />
    <EXPORT ORDINAL="1073" NAME="?getWeekdays@AGL_DateFormatSymbols@agl_2_8@@QBEPBVAGL_UnicodeString@2@AAJ@Z" PURGE="4" COMMENT="" />
    <EXPORT ORDINAL="1074" NAME="?getZoneIndex@AGL_DateFormatSymbols@agl_2_8@@ABEJABVAGL_UnicodeString@2@@Z" PURGE="4" COMMENT="" />
    <EXPORT ORDINAL="1075" NAME="?getZoneStrings@AGL_DateFormatSymbols@agl_2_8@@QBEPAPBVAGL_UnicodeString@2@AAJ0@Z" PURGE="8" COMMENT="" />
    <EXPORT ORDINAL="1076" NAME="?greater@AGL_Collator@agl_2_8@@QBECABVAGL_UnicodeString@2@0@Z" PURGE="8" COMMENT="" />
    <EXPORT ORDINAL="1077" NAME="?greaterOrEqual@AGL_Collator@agl_2_8@@QBECABVAGL_UnicodeString@2@0@Z" PURGE="8" COMMENT="" />
    <EXPORT ORDINAL="1078" NAME="?gregorianShift@Grego@agl_2_8@@SAJJ@Z" PURGE="0" COMMENT="" />
    <EXPORT ORDINAL="1079" NAME="?group@AGL_RegexMatcher@agl_2_8@@UBE?AVAGL_UnicodeString@2@AAW4AGL_UErrorCode@@@Z" PURGE="8" COMMENT="" />
    <EXPORT ORDINAL="1080" NAME="?group@AGL_RegexMatcher@agl_2_8@@UBE?AVAGL_UnicodeString@2@JAAW4AGL_UErrorCode@@@Z" PURGE="12" COMMENT="" />
    <EXPORT ORDINAL="1081" NAME="?groupCount@AGL_RegexMatcher@agl_2_8@@UBEJXZ" PURGE="0" COMMENT="" />
    <EXPORT ORDINAL="1082" NAME="?handleComputeFields@AGL_Calendar@agl_2_8@@MAEXJAAW4AGL_UErrorCode@@@Z" PURGE="8" COMMENT="" />
    <EXPORT ORDINAL="1083" NAME="?handleComputeFields@AGL_GregorianCalendar@agl_2_8@@MAEXJAAW4AGL_UErrorCode@@@Z" PURGE="8" COMMENT="" />
    <EXPORT ORDINAL="1084" NAME="?handleComputeFields@BuddhistCalendar@agl_2_8@@MAEXJAAW4AGL_UErrorCode@@@Z" PURGE="8" COMMENT="" />
    <EXPORT ORDINAL="1085" NAME="?handleComputeFields@HebrewCalendar@agl_2_8@@MAEXJAAW4AGL_UErrorCode@@@Z" PURGE="8" COMMENT="" />
    <EXPORT ORDINAL="1086" NAME="?handleComputeFields@IslamicCalendar@agl_2_8@@MAEXJAAW4AGL_UErrorCode@@@Z" PURGE="8" COMMENT="" />
    <EXPORT ORDINAL="1087" NAME="?handleComputeFields@JapaneseCalendar@agl_2_8@@MAEXJAAW4AGL_UErrorCode@@@Z" PURGE="8" COMMENT="" />
    <EXPORT ORDINAL="1088" NAME="?handleComputeJulianDay@AGL_Calendar@agl_2_8@@MAEJW4AGL_UCalendarDateFields@@@Z" PURGE="4" COMMENT="" />
    <EXPORT ORDINAL="1089" NAME="?handleComputeJulianDay@AGL_GregorianCalendar@agl_2_8@@MAEJW4AGL_UCalendarDateFields@@@Z" PURGE="4" COMMENT="" />
    <EXPORT ORDINAL="1090" NAME="?handleComputeMonthStart@AGL_GregorianCalendar@agl_2_8@@MBEJJJC@Z" PURGE="12" COMMENT="" />
    <EXPORT ORDINAL="1091" NAME="?handleComputeMonthStart@BuddhistCalendar@agl_2_8@@MBEJJJC@Z" PURGE="12" COMMENT="" />
    <EXPORT ORDINAL="1092" NAME="?handleComputeMonthStart@HebrewCalendar@agl_2_8@@MBEJJJC@Z" PURGE="12" COMMENT="" />
    <EXPORT ORDINAL="1093" NAME="?handleComputeMonthStart@IslamicCalendar@agl_2_8@@MBEJJJC@Z" PURGE="12" COMMENT="" />
    <EXPORT ORDINAL="1094" NAME="?handleGetExtendedYear@AGL_GregorianCalendar@agl_2_8@@MAEJXZ" PURGE="0" COMMENT="" />
    <EXPORT ORDINAL="1095" NAME="?handleGetExtendedYear@BuddhistCalendar@agl_2_8@@MAEJXZ" PURGE="0" COMMENT="" />
    <EXPORT ORDINAL="1096" NAME="?handleGetExtendedYear@HebrewCalendar@agl_2_8@@MAEJXZ" PURGE="0" COMMENT="" />
    <EXPORT ORDINAL="1097" NAME="?handleGetExtendedYear@IslamicCalendar@agl_2_8@@MAEJXZ" PURGE="0" COMMENT="" />
    <EXPORT ORDINAL="1098" NAME="?handleGetExtendedYear@JapaneseCalendar@agl_2_8@@UAEJXZ" PURGE="0" COMMENT="" />
    <EXPORT ORDINAL="1099" NAME="?handleGetExtendedYearFromWeekFields@AGL_Calendar@agl_2_8@@MAEJJJ@Z" PURGE="8" COMMENT="" />
    <EXPORT ORDINAL="1100" NAME="?handleGetExtendedYearFromWeekFields@AGL_GregorianCalendar@agl_2_8@@MAEJJJ@Z" PURGE="8" COMMENT="" />
    <EXPORT ORDINAL="1101" NAME="?handleGetLimit@AGL_GregorianCalendar@agl_2_8@@MBEJW4AGL_UCalendarDateFields@@W4ELimitType@AGL_Calendar@2@@Z" PURGE="8" COMMENT="" />
    <EXPORT ORDINAL="1102" NAME="?handleGetLimit@BuddhistCalendar@agl_2_8@@MBEJW4AGL_UCalendarDateFields@@W4ELimitType@AGL_Calendar@2@@Z" PURGE="8" COMMENT="" />
    <EXPORT ORDINAL="1103" NAME="?handleGetLimit@HebrewCalendar@agl_2_8@@MBEJW4AGL_UCalendarDateFields@@W4ELimitType@AGL_Calendar@2@@Z" PURGE="8" COMMENT="" />
    <EXPORT ORDINAL="1104" NAME="?handleGetLimit@IslamicCalendar@agl_2_8@@MBEJW4AGL_UCalendarDateFields@@W4ELimitType@AGL_Calendar@2@@Z" PURGE="8" COMMENT="" />
    <EXPORT ORDINAL="1105" NAME="?handleGetLimit@JapaneseCalendar@agl_2_8@@MBEJW4AGL_UCalendarDateFields@@W4ELimitType@AGL_Calendar@2@@Z" PURGE="8" COMMENT="" />
    <EXPORT ORDINAL="1106" NAME="?handleGetMonthLength@AGL_Calendar@agl_2_8@@MBEJJJ@Z" PURGE="8" COMMENT="" />
    <EXPORT ORDINAL="1107" NAME="?handleGetMonthLength@AGL_GregorianCalendar@agl_2_8@@MBEJJJ@Z" PURGE="8" COMMENT="" />
    <EXPORT ORDINAL="1108" NAME="?handleGetMonthLength@HebrewCalendar@agl_2_8@@MBEJJJ@Z" PURGE="8" COMMENT="" />
    <EXPORT ORDINAL="1109" NAME="?handleGetMonthLength@IslamicCalendar@agl_2_8@@MBEJJJ@Z" PURGE="8" COMMENT="" />
    <EXPORT ORDINAL="1110" NAME="?handleGetSourceSet@AGL_Transliterator@agl_2_8@@UBEXAAVAGL_UnicodeSet@2@@Z" PURGE="4" COMMENT="" />
    <EXPORT ORDINAL="1111" NAME="?handleGetSourceSet@CompoundTransliterator@agl_2_8@@MBEXAAVAGL_UnicodeSet@2@@Z" PURGE="4" COMMENT="" />
    <EXPORT ORDINAL="1112" NAME="?handleGetSourceSet@RuleBasedTransliterator@agl_2_8@@MBEXAAVAGL_UnicodeSet@2@@Z" PURGE="4" COMMENT="" />
    <EXPORT ORDINAL="1113" NAME="?handleGetYearLength@AGL_Calendar@agl_2_8@@MBEJJ@Z" PURGE="4" COMMENT="" />
    <EXPORT ORDINAL="1114" NAME="?handleGetYearLength@AGL_GregorianCalendar@agl_2_8@@MBEJJ@Z" PURGE="4" COMMENT="" />
    <EXPORT ORDINAL="1115" NAME="?handleGetYearLength@HebrewCalendar@agl_2_8@@MBEJJ@Z" PURGE="4" COMMENT="" />
    <EXPORT ORDINAL="1116" NAME="?handleGetYearLength@IslamicCalendar@agl_2_8@@MBEJJ@Z" PURGE="4" COMMENT="" />
    <EXPORT ORDINAL="1117" NAME="?handleNext@AGL_StringSearch@agl_2_8@@MAEJJAAW4AGL_UErrorCode@@@Z" PURGE="8" COMMENT="" />
    <EXPORT ORDINAL="1118" NAME="?handlePrev@AGL_StringSearch@agl_2_8@@MAEJJAAW4AGL_UErrorCode@@@Z" PURGE="8" COMMENT="" />
    <EXPORT ORDINAL="1119" NAME="?handleTransliterate@AnyTransliterator@agl_2_8@@UBEXAAVAGL_Replaceable@2@AAUAGL_UTransPosition@@C@Z" PURGE="12" COMMENT="" />
    <EXPORT ORDINAL="1120" NAME="?handleTransliterate@CompoundTransliterator@agl_2_8@@MBEXAAVAGL_Replaceable@2@AAUAGL_UTransPosition@@C@Z" PURGE="12" COMMENT="" />
    <EXPORT ORDINAL="1121" NAME="?handleTransliterate@EscapeTransliterator@agl_2_8@@MBEXAAVAGL_Replaceable@2@AAUAGL_UTransPosition@@C@Z" PURGE="12" COMMENT="" />
    <EXPORT ORDINAL="1122" NAME="?handleTransliterate@HexToUnicodeTransliterator@agl_2_8@@UBEXAAVAGL_Replaceable@2@AAUAGL_UTransPosition@@C@Z" PURGE="12" COMMENT="" />
    <EXPORT ORDINAL="1123" NAME="?handleTransliterate@LowercaseTransliterator@agl_2_8@@MBEXAAVAGL_Replaceable@2@AAUAGL_UTransPosition@@C@Z" PURGE="12" COMMENT="" />
    <EXPORT ORDINAL="1124" NAME="?handleTransliterate@NameUnicodeTransliterator@agl_2_8@@MBEXAAVAGL_Replaceable@2@AAUAGL_UTransPosition@@C@Z" PURGE="12" COMMENT="" />
    <EXPORT ORDINAL="1125" NAME="?handleTransliterate@NormalizationTransliterator@agl_2_8@@MBEXAAVAGL_Replaceable@2@AAUAGL_UTransPosition@@C@Z" PURGE="12" COMMENT="" />
    <EXPORT ORDINAL="1126" NAME="?handleTransliterate@NullTransliterator@agl_2_8@@UBEXAAVAGL_Replaceable@2@AAUAGL_UTransPosition@@C@Z" PURGE="12" COMMENT="" />
    <EXPORT ORDINAL="1127" NAME="?handleTransliterate@RemoveTransliterator@agl_2_8@@UBEXAAVAGL_Replaceable@2@AAUAGL_UTransPosition@@C@Z" PURGE="12" COMMENT="" />
    <EXPORT ORDINAL="1128" NAME="?handleTransliterate@RuleBasedTransliterator@agl_2_8@@MBEXAAVAGL_Replaceable@2@AAUAGL_UTransPosition@@C@Z" PURGE="12" COMMENT="" />
    <EXPORT ORDINAL="1129" NAME="?handleTransliterate@TitlecaseTransliterator@agl_2_8@@MBEXAAVAGL_Replaceable@2@AAUAGL_UTransPosition@@C@Z" PURGE="12" COMMENT="" />
    <EXPORT ORDINAL="1130" NAME="?handleTransliterate@UnescapeTransliterator@agl_2_8@@MBEXAAVAGL_Replaceable@2@AAUAGL_UTransPosition@@C@Z" PURGE="12" COMMENT="" />
    <EXPORT ORDINAL="1131" NAME="?handleTransliterate@UnicodeNameTransliterator@agl_2_8@@MBEXAAVAGL_Replaceable@2@AAUAGL_UTransPosition@@C@Z" PURGE="12" COMMENT="" />
    <EXPORT ORDINAL="1132" NAME="?handleTransliterate@UnicodeToHexTransliterator@agl_2_8@@UBEXAAVAGL_Replaceable@2@AAUAGL_UTransPosition@@C@Z" PURGE="12" COMMENT="" />
    <EXPORT ORDINAL="1133" NAME="?handleTransliterate@UppercaseTransliterator@agl_2_8@@MBEXAAVAGL_Replaceable@2@AAUAGL_UTransPosition@@C@Z" PURGE="12" COMMENT="" />
    <EXPORT ORDINAL="1134" NAME="?hasSameRules@AGL_SimpleTimeZone@agl_2_8@@UBECABVAGL_TimeZone@2@@Z" PURGE="4" COMMENT="" />
    <EXPORT ORDINAL="1135" NAME="?hasSameRules@AGL_TimeZone@agl_2_8@@UBECABV12@@Z" PURGE="4" COMMENT="" />
    <EXPORT ORDINAL="1136" NAME="?hashCode@AGL_CollationKey@agl_2_8@@QBEJXZ" PURGE="0" COMMENT="" />
    <EXPORT ORDINAL="1137" NAME="?hashCode@AGL_RuleBasedCollator@agl_2_8@@UBEJXZ" PURGE="0" COMMENT="" />
    <EXPORT ORDINAL="1138" NAME="?haveDefaultCentury@AGL_GregorianCalendar@agl_2_8@@UBECXZ" PURGE="0" COMMENT="" />
    <EXPORT ORDINAL="1139" NAME="?haveDefaultCentury@BuddhistCalendar@agl_2_8@@MBECXZ" PURGE="0" COMMENT="" />
    <EXPORT ORDINAL="1140" NAME="?haveDefaultCentury@HebrewCalendar@agl_2_8@@MBECXZ" PURGE="0" COMMENT="" />
    <EXPORT ORDINAL="1141" NAME="?haveDefaultCentury@IslamicCalendar@agl_2_8@@MBECXZ" PURGE="0" COMMENT="" />
    <EXPORT ORDINAL="1142" NAME="?haveDefaultCentury@JapaneseCalendar@agl_2_8@@UBECXZ" PURGE="0" COMMENT="" />
    <EXPORT ORDINAL="1143" NAME="?inDaylightTime@AGL_GregorianCalendar@agl_2_8@@UBECAAW4AGL_UErrorCode@@@Z" PURGE="4" COMMENT="" />
    <EXPORT ORDINAL="1144" NAME="?inDaylightTime@AGL_SimpleTimeZone@agl_2_8@@UBECNAAW4AGL_UErrorCode@@@Z" PURGE="12" COMMENT="" />
    <EXPORT ORDINAL="1145" NAME="?inDaylightTime@HebrewCalendar@agl_2_8@@MBECAAW4AGL_UErrorCode@@@Z" PURGE="4" COMMENT="" />
    <EXPORT ORDINAL="1146" NAME="?inDaylightTime@IslamicCalendar@agl_2_8@@MBECAAW4AGL_UErrorCode@@@Z" PURGE="4" COMMENT="" />
    <EXPORT ORDINAL="1147" NAME="?inDaylightTime@OlsonTimeZone@agl_2_8@@UBECNAAW4AGL_UErrorCode@@@Z" PURGE="12" COMMENT="" />
    <EXPORT ORDINAL="1148" NAME="?init@AGL_RegexPattern@agl_2_8@@AAEXXZ" PURGE="0" COMMENT="" />
    <EXPORT ORDINAL="1149" NAME="?init@AGL_RuleBasedNumberFormat@agl_2_8@@AAEXABVAGL_UnicodeString@2@AAUAGL_UParseError@@AAW4AGL_UErrorCode@@@Z" PURGE="12" COMMENT="" />
    <EXPORT ORDINAL="1150" NAME="?init@CompoundTransliterator@agl_2_8@@AAEXAAVUVector@2@W4AGL_UTransDirection@@CAAW4AGL_UErrorCode@@@Z" PURGE="16" COMMENT="" />
    <EXPORT ORDINAL="1151" NAME="?init@CompoundTransliterator@agl_2_8@@AAEXABVAGL_UnicodeString@2@W4AGL_UTransDirection@@JPAVAGL_Transliterator@2@CAAW4AGL_UErrorCode@@@Z" PURGE="24" COMMENT="" />
    <EXPORT ORDINAL="1152" NAME="?initDefault@AGL_TimeZone@agl_2_8@@CAXXZ" PURGE="0" COMMENT="" />
    <EXPORT ORDINAL="1153" NAME="?initDefaultRuleSet@AGL_RuleBasedNumberFormat@agl_2_8@@AAEXXZ" PURGE="0" COMMENT="" />
    <EXPORT ORDINAL="1154" NAME="?initField@AGL_DateFormatSymbols@agl_2_8@@AAEXPAPAVAGL_UnicodeString@2@AAJABVAGL_ResourceBundle@2@AAW4AGL_UErrorCode@@@Z" PURGE="16" COMMENT="" />
    <EXPORT ORDINAL="1155" NAME="?initField@AGL_DateFormatSymbols@agl_2_8@@AAEXPAPAVAGL_UnicodeString@2@AAJPBGW4LastResortSize@12@3AAW4AGL_UErrorCode@@@Z" PURGE="24" COMMENT="" />
    <EXPORT ORDINAL="1156" NAME="?initialize@AGL_DecimalFormatSymbols@agl_2_8@@AAEXABVAGL_Locale@2@AAW4AGL_UErrorCode@@C@Z" PURGE="12" COMMENT="" />
    <EXPORT ORDINAL="1157" NAME="?initialize@AGL_DecimalFormatSymbols@agl_2_8@@AAEXPBVAGL_UnicodeString@2@J@Z" PURGE="8" COMMENT="" />
    <EXPORT ORDINAL="1158" NAME="?initialize@AGL_DecimalFormatSymbols@agl_2_8@@AAEXXZ" PURGE="0" COMMENT="" />
    <EXPORT ORDINAL="1159" NAME="?initialize@AGL_SimpleDateFormat@agl_2_8@@AAEXABVAGL_Locale@2@AAW4AGL_UErrorCode@@@Z" PURGE="8" COMMENT="" />
    <EXPORT ORDINAL="1160" NAME="?initializeCalendar@AGL_SimpleDateFormat@agl_2_8@@AAEPAVAGL_Calendar@2@PAVAGL_TimeZone@2@ABVAGL_Locale@2@AAW4AGL_UErrorCode@@@Z" PURGE="12" COMMENT="" />
    <EXPORT ORDINAL="1161" NAME="?initializeData@AGL_DateFormatSymbols@agl_2_8@@AAEXABVAGL_Locale@2@PBDAAW4AGL_UErrorCode@@C@Z" PURGE="16" COMMENT="" />
    <EXPORT ORDINAL="1162" NAME="?initializeDefaultCentury@AGL_SimpleDateFormat@agl_2_8@@AAEXXZ" PURGE="0" COMMENT="" />
    <EXPORT ORDINAL="1163" NAME="?initializeRegistry@AGL_Transliterator@agl_2_8@@CACXZ" PURGE="0" COMMENT="" />
    <EXPORT ORDINAL="1164" NAME="?initializeSymbols@AGL_SimpleDateFormat@agl_2_8@@AAEXABVAGL_Locale@2@PAVAGL_Calendar@2@AAW4AGL_UErrorCode@@@Z" PURGE="12" COMMENT="" />
    <EXPORT ORDINAL="1165" NAME="?initializeSystemDefaultCentury@AGL_GregorianCalendar@agl_2_8@@CAXXZ" PURGE="0" COMMENT="" />
    <EXPORT ORDINAL="1166" NAME="?initializeSystemDefaultCentury@BuddhistCalendar@agl_2_8@@CAXXZ" PURGE="0" COMMENT="" />
    <EXPORT ORDINAL="1167" NAME="?initializeSystemDefaultCentury@HebrewCalendar@agl_2_8@@CAXXZ" PURGE="0" COMMENT="" />
    <EXPORT ORDINAL="1168" NAME="?initializeSystemDefaultCentury@IslamicCalendar@agl_2_8@@CAXXZ" PURGE="0" COMMENT="" />
    <EXPORT ORDINAL="1169" NAME="?input@AGL_RegexMatcher@agl_2_8@@UBEABVAGL_UnicodeString@2@XZ" PURGE="0" COMMENT="" />
    <EXPORT ORDINAL="1170" NAME="?integerToken@AGL_Transliterator@agl_2_8@@SA?ATToken@12@J@Z" PURGE="0" COMMENT="" />
    <EXPORT ORDINAL="1171" NAME="?internalGet@AGL_Calendar@agl_2_8@@IBEJW4AGL_UCalendarDateFields@@@Z" PURGE="4" COMMENT="" />
    <EXPORT ORDINAL="1172" NAME="?internalGet@AGL_Calendar@agl_2_8@@IBEJW4AGL_UCalendarDateFields@@J@Z" PURGE="8" COMMENT="" />
    <EXPORT ORDINAL="1173" NAME="?internalGet@AGL_Calendar@agl_2_8@@IBEJW4EDateFields@12@@Z" PURGE="4" COMMENT="" />
    <EXPORT ORDINAL="1174" NAME="?internalGetDefaultCenturyStart@AGL_GregorianCalendar@agl_2_8@@ABENXZ" PURGE="0" COMMENT="" />
    <EXPORT ORDINAL="1175" NAME="?internalGetDefaultCenturyStart@BuddhistCalendar@agl_2_8@@ABENXZ" PURGE="0" COMMENT="" />
    <EXPORT ORDINAL="1176" NAME="?internalGetDefaultCenturyStart@HebrewCalendar@agl_2_8@@ABENXZ" PURGE="0" COMMENT="" />
    <EXPORT ORDINAL="1177" NAME="?internalGetDefaultCenturyStart@IslamicCalendar@agl_2_8@@ABENXZ" PURGE="0" COMMENT="" />
    <EXPORT ORDINAL="1178" NAME="?internalGetDefaultCenturyStartYear@AGL_GregorianCalendar@agl_2_8@@ABEJXZ" PURGE="0" COMMENT="" />
    <EXPORT ORDINAL="1179" NAME="?internalGetDefaultCenturyStartYear@BuddhistCalendar@agl_2_8@@ABEJXZ" PURGE="0" COMMENT="" />
    <EXPORT ORDINAL="1180" NAME="?internalGetDefaultCenturyStartYear@HebrewCalendar@agl_2_8@@ABEJXZ" PURGE="0" COMMENT="" />
    <EXPORT ORDINAL="1181" NAME="?internalGetDefaultCenturyStartYear@IslamicCalendar@agl_2_8@@ABEJXZ" PURGE="0" COMMENT="" />
    <EXPORT ORDINAL="1182" NAME="?internalGetEra@AGL_GregorianCalendar@agl_2_8@@MBEJXZ" PURGE="0" COMMENT="" />
    <EXPORT ORDINAL="1183" NAME="?internalGetEra@BuddhistCalendar@agl_2_8@@MBEJXZ" PURGE="0" COMMENT="" />
    <EXPORT ORDINAL="1184" NAME="?internalGetEra@JapaneseCalendar@agl_2_8@@MBEJXZ" PURGE="0" COMMENT="" />
    <EXPORT ORDINAL="1185" NAME="?internalGetTime@AGL_Calendar@agl_2_8@@IBENXZ" PURGE="0" COMMENT="" />
    <EXPORT ORDINAL="1186" NAME="?internalSet@AGL_Calendar@agl_2_8@@IAEXW4AGL_UCalendarDateFields@@J@Z" PURGE="8" COMMENT="" />
    <EXPORT ORDINAL="1187" NAME="?internalSet@AGL_Calendar@agl_2_8@@IAEXW4EDateFields@12@J@Z" PURGE="8" COMMENT="" />
    <EXPORT ORDINAL="1188" NAME="?internalSetTime@AGL_Calendar@agl_2_8@@IAEXN@Z" PURGE="8" COMMENT="" />
    <EXPORT ORDINAL="1189" NAME="?isBogus@AGL_CollationKey@agl_2_8@@QBECXZ" PURGE="0" COMMENT="" />
    <EXPORT ORDINAL="1190" NAME="?isCivil@IslamicCalendar@agl_2_8@@QAECXZ" PURGE="0" COMMENT="" />
    <EXPORT ORDINAL="1191" NAME="?isDecimalSeparatorAlwaysShown@AGL_DecimalFormat@agl_2_8@@QBECXZ" PURGE="0" COMMENT="" />
    <EXPORT ORDINAL="1192" NAME="?isEquivalentTo@AGL_Calendar@agl_2_8@@UBECABV12@@Z" PURGE="4" COMMENT="" />
    <EXPORT ORDINAL="1193" NAME="?isEquivalentTo@AGL_GregorianCalendar@agl_2_8@@UBECABVAGL_Calendar@2@@Z" PURGE="4" COMMENT="" />
    <EXPORT ORDINAL="1194" NAME="?isExponentSignAlwaysShown@AGL_DecimalFormat@agl_2_8@@UAECXZ" PURGE="0" COMMENT="" />
    <EXPORT ORDINAL="1195" NAME="?isGroupingPosition@AGL_DecimalFormat@agl_2_8@@ABECJ@Z" PURGE="4" COMMENT="" />
    <EXPORT ORDINAL="1196" NAME="?isGroupingUsed@AGL_NumberFormat@agl_2_8@@QBECXZ" PURGE="0" COMMENT="" />
    <EXPORT ORDINAL="1197" NAME="?isIgnorable@AGL_CollationElementIterator@agl_2_8@@SACJ@Z" PURGE="0" COMMENT="" />
    <EXPORT ORDINAL="1198" NAME="?isLeapYear@AGL_GregorianCalendar@agl_2_8@@QBECJ@Z" PURGE="4" COMMENT="" />
    <EXPORT ORDINAL="1199" NAME="?isLeapYear@Grego@agl_2_8@@SACJ@Z" PURGE="0" COMMENT="" />
    <EXPORT ORDINAL="1200" NAME="?isLeapYear@HebrewCalendar@agl_2_8@@CACJ@Z" PURGE="0" COMMENT="" />
    <EXPORT ORDINAL="1201" NAME="?isLenient@AGL_Calendar@agl_2_8@@QBECXZ" PURGE="0" COMMENT="" />
    <EXPORT ORDINAL="1202" NAME="?isLenient@AGL_DateFormat@agl_2_8@@UBECXZ" PURGE="0" COMMENT="" />
    <EXPORT ORDINAL="1203" NAME="?isLenient@AGL_RuleBasedNumberFormat@agl_2_8@@UBECXZ" PURGE="0" COMMENT="" />
    <EXPORT ORDINAL="1204" NAME="?isNumeric@AGL_SimpleDateFormat@agl_2_8@@CACGJ@Z" PURGE="0" COMMENT="" />
    <EXPORT ORDINAL="1205" NAME="?isParseIntegerOnly@AGL_NumberFormat@agl_2_8@@QBECXZ" PURGE="0" COMMENT="" />
    <EXPORT ORDINAL="1206" NAME="?isScientificNotation@AGL_DecimalFormat@agl_2_8@@UAECXZ" PURGE="0" COMMENT="" />
    <EXPORT ORDINAL="1207" NAME="?isSet@AGL_Calendar@agl_2_8@@QBECW4AGL_UCalendarDateFields@@@Z" PURGE="4" COMMENT="" />
    <EXPORT ORDINAL="1208" NAME="?isUWordBoundary@AGL_RegexMatcher@agl_2_8@@AAECJ@Z" PURGE="4" COMMENT="" />
    <EXPORT ORDINAL="1209" NAME="?isUppercase@UnicodeToHexTransliterator@agl_2_8@@UBECXZ" PURGE="0" COMMENT="" />
    <EXPORT ORDINAL="1210" NAME="?isWordBoundary@AGL_RegexMatcher@agl_2_8@@AAECJ@Z" PURGE="4" COMMENT="" />
    <EXPORT ORDINAL="1211" NAME="?isZero@DigitList@agl_2_8@@QBECXZ" PURGE="0" COMMENT="" />
    <EXPORT ORDINAL="1212" NAME="?joinIDs@CompoundTransliterator@agl_2_8@@AAE?AVAGL_UnicodeString@2@QBQAVAGL_Transliterator@2@J@Z" PURGE="12" COMMENT="" />
    <EXPORT ORDINAL="1213" NAME="?julianDayToDayOfWeek@AGL_Calendar@agl_2_8@@KAEN@Z" PURGE="0" COMMENT="" />
    <EXPORT ORDINAL="1214" NAME="?julianDayToMillis@AGL_GregorianCalendar@agl_2_8@@CANN@Z" PURGE="0" COMMENT="" />
    <EXPORT ORDINAL="1215" NAME="?julianDayToMillis@Grego@agl_2_8@@SANJ@Z" PURGE="0" COMMENT="" />
    <EXPORT ORDINAL="1216" NAME="?kCurrentEra@JapaneseCalendar@agl_2_8@@2KB" PURGE="-1" COMMENT="" />
    <EXPORT ORDINAL="1217" NAME="?kDOWPrecedence@AGL_Calendar@agl_2_8@@1QAY1M@7$$CBJA" PURGE="-1" COMMENT="" />
    <EXPORT ORDINAL="1218" NAME="?kDatePrecedence@AGL_Calendar@agl_2_8@@1QAY1M@7$$CBJA" PURGE="-1" COMMENT="" />
    <EXPORT ORDINAL="1219" NAME="?kDateTimeElements@AGL_Calendar@agl_2_8@@0QBDB" PURGE="-1" COMMENT="" />
    <EXPORT ORDINAL="1220" NAME="?kDefaultCalendar@AGL_Calendar@agl_2_8@@0QBDB" PURGE="-1" COMMENT="" />
    <EXPORT ORDINAL="1221" NAME="?kDoubleFractionDigits@AGL_DecimalFormat@agl_2_8@@1JB" PURGE="-1" COMMENT="" />
    <EXPORT ORDINAL="1222" NAME="?kDoubleIntegerDigits@AGL_DecimalFormat@agl_2_8@@1JB" PURGE="-1" COMMENT="" />
    <EXPORT ORDINAL="1223" NAME="?kMaxScientificIntegerDigits@AGL_DecimalFormat@agl_2_8@@1JB" PURGE="-1" COMMENT="" />
    <EXPORT ORDINAL="1224" NAME="?kYearPrecedence@AGL_Calendar@agl_2_8@@1QAY1M@7$$CBJA" PURGE="-1" COMMENT="" />
    <EXPORT ORDINAL="1225" NAME="?last@AGL_SearchIterator@agl_2_8@@QAEJAAW4AGL_UErrorCode@@@Z" PURGE="4" COMMENT="" />
    <EXPORT ORDINAL="1226" NAME="?loadRule@AGL_TimeZone@agl_2_8@@KAPAUAGL_UResourceBundle@@PBU3@ABVAGL_UnicodeString@2@PAU3@AAW4AGL_UErrorCode@@@Z" PURGE="0" COMMENT="" />
    <EXPORT ORDINAL="1227" NAME="?local@CalendarAstronomer@agl_2_8@@AAENN@Z" PURGE="8" COMMENT="" />
    <EXPORT ORDINAL="1228" NAME="?lock@TransliterationRuleData@agl_2_8@@QAEXXZ" PURGE="0" COMMENT="" />
    <EXPORT ORDINAL="1229" NAME="?lookingAt@AGL_RegexMatcher@agl_2_8@@UAECAAW4AGL_UErrorCode@@@Z" PURGE="4" COMMENT="" />
    <EXPORT ORDINAL="1230" NAME="?lookingAt@AGL_RegexMatcher@agl_2_8@@UAECJAAW4AGL_UErrorCode@@@Z" PURGE="8" COMMENT="" />
    <EXPORT ORDINAL="1231" NAME="?lookup@TransliterationRuleData@agl_2_8@@QBEPAVAGL_UnicodeFunctor@2@J@Z" PURGE="4" COMMENT="" />
    <EXPORT ORDINAL="1232" NAME="?lookupMatcher@TransliterationRuleData@agl_2_8@@QBEPAVAGL_UnicodeMatcher@2@J@Z" PURGE="4" COMMENT="" />
    <EXPORT ORDINAL="1233" NAME="?lookupReplacer@TransliterationRuleData@agl_2_8@@QBEPAVAGL_UnicodeReplacer@2@J@Z" PURGE="4" COMMENT="" />
    <EXPORT ORDINAL="1234" NAME="?lstToUT@CalendarAstronomer@agl_2_8@@QAENN@Z" PURGE="8" COMMENT="" />
    <EXPORT ORDINAL="1235" NAME="?makeFormat@AGL_MessageFormat@agl_2_8@@AAEXJPAVAGL_UnicodeString@2@AAUAGL_UParseError@@AAW4AGL_UErrorCode@@@Z" PURGE="16" COMMENT="" />
    <EXPORT ORDINAL="1236" NAME="?makeInstance@AGL_Collator@agl_2_8@@CAPAV12@ABVAGL_Locale@2@AAW4AGL_UErrorCode@@@Z" PURGE="0" COMMENT="" />
    <EXPORT ORDINAL="1237" NAME="?makeInstance@AGL_NumberFormat@agl_2_8@@CAPAV12@ABVAGL_Locale@2@W4EStyles@12@AAW4AGL_UErrorCode@@@Z" PURGE="0" COMMENT="" />
    <EXPORT ORDINAL="1238" NAME="?match@AGL_DecimalFormat@agl_2_8@@CAJABVAGL_UnicodeString@2@J0@Z" PURGE="0" COMMENT="" />
    <EXPORT ORDINAL="1239" NAME="?match@AGL_DecimalFormat@agl_2_8@@CAJABVAGL_UnicodeString@2@JJ@Z" PURGE="0" COMMENT="" />
    <EXPORT ORDINAL="1240" NAME="?matchString@AGL_SimpleDateFormat@agl_2_8@@ABEJABVAGL_UnicodeString@2@JW4AGL_UCalendarDateFields@@PBV32@JAAVAGL_Calendar@2@@Z" PURGE="24" COMMENT="" />
    <EXPORT ORDINAL="1241" NAME="?matcher@AGL_RegexPattern@agl_2_8@@UBEPAVAGL_RegexMatcher@2@AAW4AGL_UErrorCode@@@Z" PURGE="4" COMMENT="" />
    <EXPORT ORDINAL="1242" NAME="?matcher@AGL_RegexPattern@agl_2_8@@UBEPAVAGL_RegexMatcher@2@ABVAGL_UnicodeString@2@AAW4AGL_UErrorCode@@@Z" PURGE="8" COMMENT="" />
    <EXPORT ORDINAL="1243" NAME="?matches@AGL_RegexMatcher@agl_2_8@@UAECAAW4AGL_UErrorCode@@@Z" PURGE="4" COMMENT="" />
    <EXPORT ORDINAL="1244" NAME="?matches@AGL_RegexMatcher@agl_2_8@@UAECJAAW4AGL_UErrorCode@@@Z" PURGE="8" COMMENT="" />
    <EXPORT ORDINAL="1245" NAME="?matches@AGL_RegexPattern@agl_2_8@@SACABVAGL_UnicodeString@2@0AAUAGL_UParseError@@AAW4AGL_UErrorCode@@@Z" PURGE="0" COMMENT="" />
    <EXPORT ORDINAL="1246" NAME="?millisToJulianDay@AGL_GregorianCalendar@agl_2_8@@CANN@Z" PURGE="0" COMMENT="" />
    <EXPORT ORDINAL="1247" NAME="?millisToJulianDay@Grego@agl_2_8@@SAJN@Z" PURGE="0" COMMENT="" />
    <EXPORT ORDINAL="1248" NAME="?monthLength@AGL_GregorianCalendar@agl_2_8@@MBEJJ@Z" PURGE="4" COMMENT="" />
    <EXPORT ORDINAL="1249" NAME="?monthLength@AGL_GregorianCalendar@agl_2_8@@MBEJJJ@Z" PURGE="8" COMMENT="" />
    <EXPORT ORDINAL="1250" NAME="?monthLength@BuddhistCalendar@agl_2_8@@MBEJJ@Z" PURGE="4" COMMENT="" />
    <EXPORT ORDINAL="1251" NAME="?monthLength@BuddhistCalendar@agl_2_8@@MBEJJJ@Z" PURGE="8" COMMENT="" />
    <EXPORT ORDINAL="1252" NAME="?monthLength@Grego@agl_2_8@@SACJJ@Z" PURGE="0" COMMENT="" />
    <EXPORT ORDINAL="1253" NAME="?monthStart@IslamicCalendar@agl_2_8@@ABEJJJ@Z" PURGE="8" COMMENT="" />
    <EXPORT ORDINAL="1254" NAME="?monthsInYear@HebrewCalendar@agl_2_8@@CAJJ@Z" PURGE="0" COMMENT="" />
    <EXPORT ORDINAL="1255" NAME="?moonAge@IslamicCalendar@agl_2_8@@CANN@Z" PURGE="0" COMMENT="" />
    <EXPORT ORDINAL="1256" NAME="?newerField@AGL_Calendar@agl_2_8@@IBE?AW4AGL_UCalendarDateFields@@W43@0@Z" PURGE="8" COMMENT="" />
    <EXPORT ORDINAL="1257" NAME="?newestStamp@AGL_Calendar@agl_2_8@@IBEJW4AGL_UCalendarDateFields@@0J@Z" PURGE="12" COMMENT="" />
    <EXPORT ORDINAL="1258" NAME="?next@AGL_CollationElementIterator@agl_2_8@@QAEJAAW4AGL_UErrorCode@@@Z" PURGE="4" COMMENT="" />
    <EXPORT ORDINAL="1259" NAME="?next@AGL_SearchIterator@agl_2_8@@QAEJAAW4AGL_UErrorCode@@@Z" PURGE="4" COMMENT="" />
    <EXPORT ORDINAL="1260" NAME="?norm2PI@CalendarAstronomer@agl_2_8@@CANN@Z" PURGE="0" COMMENT="" />
    <EXPORT ORDINAL="1261" NAME="?normPI@CalendarAstronomer@agl_2_8@@CANN@Z" PURGE="0" COMMENT="" />
    <EXPORT ORDINAL="1262" NAME="?normalize@CalendarAstronomer@agl_2_8@@CANNN@Z" PURGE="0" COMMENT="" />
    <EXPORT ORDINAL="1263" NAME="?orphanFilter@AGL_Transliterator@agl_2_8@@QAEPAVAGL_UnicodeFilter@2@XZ" PURGE="0" COMMENT="" />
    <EXPORT ORDINAL="1264" NAME="?orphanTimeZone@AGL_Calendar@agl_2_8@@QAEPAVAGL_TimeZone@2@XZ" PURGE="0" COMMENT="" />
    <EXPORT ORDINAL="1265" NAME="?parse@AGL_ChoiceFormat@agl_2_8@@UBEXABVAGL_UnicodeString@2@AAVAGL_Formattable@2@AAVAGL_ParsePosition@2@@Z" PURGE="12" COMMENT="" />
    <EXPORT ORDINAL="1266" NAME="?parse@AGL_ChoiceFormat@agl_2_8@@UBEXABVAGL_UnicodeString@2@AAVAGL_Formattable@2@AAW4AGL_UErrorCode@@@Z" PURGE="12" COMMENT="" />
    <EXPORT ORDINAL="1267" NAME="?parse@AGL_DateFormat@agl_2_8@@QBENABVAGL_UnicodeString@2@AAVAGL_ParsePosition@2@@Z" PURGE="8" COMMENT="" />
    <EXPORT ORDINAL="1268" NAME="?parse@AGL_DateFormat@agl_2_8@@UBENABVAGL_UnicodeString@2@AAW4AGL_UErrorCode@@@Z" PURGE="8" COMMENT="" />
    <EXPORT ORDINAL="1269" NAME="?parse@AGL_DecimalFormat@agl_2_8@@UBEXABVAGL_UnicodeString@2@AAVAGL_Formattable@2@AAVAGL_ParsePosition@2@@Z" PURGE="12" COMMENT="" />
    <EXPORT ORDINAL="1270" NAME="?parse@AGL_DecimalFormat@agl_2_8@@UBEXABVAGL_UnicodeString@2@AAVAGL_Formattable@2@AAW4AGL_UErrorCode@@@Z" PURGE="12" COMMENT="" />
    <EXPORT ORDINAL="1271" NAME="?parse@AGL_MessageFormat@agl_2_8@@UBEPAVAGL_Formattable@2@ABVAGL_UnicodeString@2@AAJAAW4AGL_UErrorCode@@@Z" PURGE="12" COMMENT="" />
    <EXPORT ORDINAL="1272" NAME="?parse@AGL_MessageFormat@agl_2_8@@UBEPAVAGL_Formattable@2@ABVAGL_UnicodeString@2@AAVAGL_ParsePosition@2@AAJ@Z" PURGE="12" COMMENT="" />
    <EXPORT ORDINAL="1273" NAME="?parse@AGL_NumberFormat@agl_2_8@@UBEXABVAGL_UnicodeString@2@AAVAGL_Formattable@2@AAW4AGL_UErrorCode@@@Z" PURGE="12" COMMENT="" />
    <EXPORT ORDINAL="1274" NAME="?parse@AGL_RuleBasedNumberFormat@agl_2_8@@UBEXABVAGL_UnicodeString@2@AAVAGL_Formattable@2@AAVAGL_ParsePosition@2@@Z" PURGE="12" COMMENT="" />
    <EXPORT ORDINAL="1275" NAME="?parse@AGL_RuleBasedNumberFormat@agl_2_8@@UBEXABVAGL_UnicodeString@2@AAVAGL_Formattable@2@AAW4AGL_UErrorCode@@@Z" PURGE="12" COMMENT="" />
    <EXPORT ORDINAL="1276" NAME="?parse@AGL_SimpleDateFormat@agl_2_8@@QBENABVAGL_UnicodeString@2@AAVAGL_ParsePosition@2@@Z" PURGE="8" COMMENT="" />
    <EXPORT ORDINAL="1277" NAME="?parse@AGL_SimpleDateFormat@agl_2_8@@UBENABVAGL_UnicodeString@2@AAW4AGL_UErrorCode@@@Z" PURGE="8" COMMENT="" />
    <EXPORT ORDINAL="1278" NAME="?parse@AGL_SimpleDateFormat@agl_2_8@@UBEXABVAGL_UnicodeString@2@AAVAGL_Calendar@2@AAVAGL_ParsePosition@2@@Z" PURGE="12" COMMENT="" />
    <EXPORT ORDINAL="1279" NAME="?parseAmbiguousDatesAsAfter@AGL_SimpleDateFormat@agl_2_8@@AAEXNAAW4AGL_UErrorCode@@@Z" PURGE="12" COMMENT="" />
    <EXPORT ORDINAL="1280" NAME="?parseInt@AGL_SimpleDateFormat@agl_2_8@@ABEXABVAGL_UnicodeString@2@AAVAGL_Formattable@2@AAVAGL_ParsePosition@2@C@Z" PURGE="16" COMMENT="" />
    <EXPORT ORDINAL="1281" NAME="?parseObject@AGL_DateFormat@agl_2_8@@UBEXABVAGL_UnicodeString@2@AAVAGL_Formattable@2@AAVAGL_ParsePosition@2@@Z" PURGE="12" COMMENT="" />
    <EXPORT ORDINAL="1282" NAME="?parseObject@AGL_Format@agl_2_8@@QBEXABVAGL_UnicodeString@2@AAVAGL_Formattable@2@AAW4AGL_UErrorCode@@@Z" PURGE="12" COMMENT="" />
    <EXPORT ORDINAL="1283" NAME="?parseObject@AGL_MessageFormat@agl_2_8@@UBEXABVAGL_UnicodeString@2@AAVAGL_Formattable@2@AAVAGL_ParsePosition@2@@Z" PURGE="12" COMMENT="" />
    <EXPORT ORDINAL="1284" NAME="?parseObject@AGL_NumberFormat@agl_2_8@@UBEXABVAGL_UnicodeString@2@AAVAGL_Formattable@2@AAVAGL_ParsePosition@2@@Z" PURGE="-1" COMMENT="" />
    <EXPORT ORDINAL="1285" NAME="?pattern@AGL_RegexMatcher@agl_2_8@@UBEABVAGL_RegexPattern@2@XZ" PURGE="0" COMMENT="" />
    <EXPORT ORDINAL="1286" NAME="?pattern@AGL_RegexPattern@agl_2_8@@UBE?AVAGL_UnicodeString@2@XZ" PURGE="4" COMMENT="" />
    <EXPORT ORDINAL="1287" NAME="?pinDayOfMonth@AGL_GregorianCalendar@agl_2_8@@IAEXXZ" PURGE="0" COMMENT="" />
    <EXPORT ORDINAL="1288" NAME="?pinField@AGL_Calendar@agl_2_8@@MAEXW4AGL_UCalendarDateFields@@AAW4AGL_UErrorCode@@@Z" PURGE="8" COMMENT="" />
    <EXPORT ORDINAL="1289" NAME="?pointerToken@AGL_Transliterator@agl_2_8@@SA?ATToken@12@PAX@Z" PURGE="0" COMMENT="" />
    <EXPORT ORDINAL="1290" NAME="?preceding@AGL_SearchIterator@agl_2_8@@QAEJJAAW4AGL_UErrorCode@@@Z" PURGE="8" COMMENT="" />
    <EXPORT ORDINAL="1291" NAME="?precision@AGL_DecimalFormat@agl_2_8@@ABEJC@Z" PURGE="4" COMMENT="" />
    <EXPORT ORDINAL="1292" NAME="?prepareGetActual@AGL_Calendar@agl_2_8@@MAEXW4AGL_UCalendarDateFields@@CAAW4AGL_UErrorCode@@@Z" PURGE="12" COMMENT="" />
    <EXPORT ORDINAL="1293" NAME="?previous@AGL_CollationElementIterator@agl_2_8@@QAEJAAW4AGL_UErrorCode@@@Z" PURGE="4" COMMENT="" />
    <EXPORT ORDINAL="1294" NAME="?previous@AGL_SearchIterator@agl_2_8@@QAEJAAW4AGL_UErrorCode@@@Z" PURGE="4" COMMENT="" />
    <EXPORT ORDINAL="1295" NAME="?previousMonthLength@Grego@agl_2_8@@SACHH@Z" PURGE="0" COMMENT="" />
    <EXPORT ORDINAL="1296" NAME="?primaryOrder@AGL_CollationElementIterator@agl_2_8@@SAJJ@Z" PURGE="0" COMMENT="" />
    <EXPORT ORDINAL="1297" NAME="?put@CalendarCache@agl_2_8@@SAXPAPAV12@JJAAW4AGL_UErrorCode@@@Z" PURGE="0" COMMENT="" />
    <EXPORT ORDINAL="1298" NAME="?rawOffset@OlsonTimeZone@agl_2_8@@ABEJF@Z" PURGE="4" COMMENT="" />
    <EXPORT ORDINAL="1299" NAME="?registerFactory@AGL_Calendar@agl_2_8@@SAPBXPAVICUServiceFactory@2@AAW4AGL_UErrorCode@@@Z" PURGE="0" COMMENT="" />
    <EXPORT ORDINAL="1300" NAME="?registerFactory@AGL_Collator@agl_2_8@@SAPBXPAVAGL_CollatorFactory@2@AAW4AGL_UErrorCode@@@Z" PURGE="0" COMMENT="" />
    <EXPORT ORDINAL="1301" NAME="?registerFactory@AGL_NumberFormat@agl_2_8@@SAPBXPAVAGL_NumberFormatFactory@2@AAW4AGL_UErrorCode@@@Z" PURGE="0" COMMENT="" />
    <EXPORT ORDINAL="1302" NAME="?registerFactory@AGL_Transliterator@agl_2_8@@SAXABVAGL_UnicodeString@2@P6APAV12@0TToken@12@@Z1@Z" PURGE="0" COMMENT="" />
    <EXPORT ORDINAL="1303" NAME="?registerIDs@AnyTransliterator@agl_2_8@@CAXXZ" PURGE="0" COMMENT="" />
    <EXPORT ORDINAL="1304" NAME="?registerIDs@EscapeTransliterator@agl_2_8@@SAXXZ" PURGE="0" COMMENT="" />
    <EXPORT ORDINAL="1305" NAME="?registerIDs@NormalizationTransliterator@agl_2_8@@SAXXZ" PURGE="0" COMMENT="" />
    <EXPORT ORDINAL="1306" NAME="?registerIDs@RemoveTransliterator@agl_2_8@@SAXXZ" PURGE="0" COMMENT="" />
    <EXPORT ORDINAL="1307" NAME="?registerIDs@UnescapeTransliterator@agl_2_8@@SAXXZ" PURGE="0" COMMENT="" />
    <EXPORT ORDINAL="1308" NAME="?registerInstance@AGL_Collator@agl_2_8@@SAPBXPAV12@ABVAGL_Locale@2@AAW4AGL_UErrorCode@@@Z" PURGE="0" COMMENT="" />
    <EXPORT ORDINAL="1309" NAME="?registerInstance@AGL_Transliterator@agl_2_8@@SAXPAV12@@Z" PURGE="0" COMMENT="" />
    <EXPORT ORDINAL="1310" NAME="?replace@FunctionReplacer@agl_2_8@@UAEJAAVAGL_Replaceable@2@JJAAJ@Z" PURGE="16" COMMENT="" />
    <EXPORT ORDINAL="1311" NAME="?replaceAll@AGL_RegexMatcher@agl_2_8@@UAE?AVAGL_UnicodeString@2@ABV32@AAW4AGL_UErrorCode@@@Z" PURGE="12" COMMENT="" />
    <EXPORT ORDINAL="1312" NAME="?replaceFirst@AGL_RegexMatcher@agl_2_8@@UAE?AVAGL_UnicodeString@2@ABV32@AAW4AGL_UErrorCode@@@Z" PURGE="12" COMMENT="" />
    <EXPORT ORDINAL="1313" NAME="?reset@AGL_CollationElementIterator@agl_2_8@@QAEXXZ" PURGE="0" COMMENT="" />
    <EXPORT ORDINAL="1314" NAME="?reset@AGL_CollationKey@agl_2_8@@AAEAAV12@XZ" PURGE="0" COMMENT="" />
    <EXPORT ORDINAL="1315" NAME="?reset@AGL_RegexMatcher@agl_2_8@@UAEAAV12@ABVAGL_UnicodeString@2@@Z" PURGE="4" COMMENT="" />
    <EXPORT ORDINAL="1316" NAME="?reset@AGL_RegexMatcher@agl_2_8@@UAEAAV12@JAAW4AGL_UErrorCode@@@Z" PURGE="8" COMMENT="" />
    <EXPORT ORDINAL="1317" NAME="?reset@AGL_RegexMatcher@agl_2_8@@UAEAAV12@XZ" PURGE="0" COMMENT="" />
    <EXPORT ORDINAL="1318" NAME="?reset@AGL_SearchIterator@agl_2_8@@UAEXXZ" PURGE="0" COMMENT="" />
    <EXPORT ORDINAL="1319" NAME="?reset@AGL_StringSearch@agl_2_8@@UAEXXZ" PURGE="0" COMMENT="" />
    <EXPORT ORDINAL="1320" NAME="?resetStack@AGL_RegexMatcher@agl_2_8@@AAEPAUREStackFrame@2@XZ" PURGE="0" COMMENT="" />
    <EXPORT ORDINAL="1321" NAME="?resolveFields@AGL_Calendar@agl_2_8@@IAE?AW4AGL_UCalendarDateFields@@PAY1M@7$$CBJ@Z" PURGE="4" COMMENT="" />
    <EXPORT ORDINAL="1322" NAME="?riseOrSet@CalendarAstronomer@agl_2_8@@QAENAAVCoordFunc@12@CNNN@Z" PURGE="32" COMMENT="" />
    <EXPORT ORDINAL="1323" NAME="?roll@AGL_Calendar@agl_2_8@@QAEXW4AGL_UCalendarDateFields@@CAAW4AGL_UErrorCode@@@Z" PURGE="12" COMMENT="" />
    <EXPORT ORDINAL="1324" NAME="?roll@AGL_Calendar@agl_2_8@@QAEXW4EDateFields@12@CAAW4AGL_UErrorCode@@@Z" PURGE="12" COMMENT="" />
    <EXPORT ORDINAL="1325" NAME="?roll@AGL_Calendar@agl_2_8@@UAEXW4AGL_UCalendarDateFields@@JAAW4AGL_UErrorCode@@@Z" PURGE="12" COMMENT="" />
    <EXPORT ORDINAL="1326" NAME="?roll@AGL_Calendar@agl_2_8@@UAEXW4EDateFields@12@JAAW4AGL_UErrorCode@@@Z" PURGE="-1" COMMENT="" />
    <EXPORT ORDINAL="1327" NAME="?roll@AGL_GregorianCalendar@agl_2_8@@UAEXW4AGL_UCalendarDateFields@@JAAW4AGL_UErrorCode@@@Z" PURGE="12" COMMENT="" />
    <EXPORT ORDINAL="1328" NAME="?roll@AGL_GregorianCalendar@agl_2_8@@UAEXW4EDateFields@AGL_Calendar@2@JAAW4AGL_UErrorCode@@@Z" PURGE="-1" COMMENT="" />
    <EXPORT ORDINAL="1329" NAME="?roll@HebrewCalendar@agl_2_8@@UAEXW4AGL_UCalendarDateFields@@JAAW4AGL_UErrorCode@@@Z" PURGE="12" COMMENT="" />
    <EXPORT ORDINAL="1330" NAME="?roll@HebrewCalendar@agl_2_8@@UAEXW4EDateFields@AGL_Calendar@2@JAAW4AGL_UErrorCode@@@Z" PURGE="-1" COMMENT="" />
    <EXPORT ORDINAL="1331" NAME="?round@AGL_DecimalFormat@agl_2_8@@CANNW4ERoundingMode@12@C@Z" PURGE="0" COMMENT="" />
    <EXPORT ORDINAL="1332" NAME="?round@DigitList@agl_2_8@@AAEXJ@Z" PURGE="4" COMMENT="" />
    <EXPORT ORDINAL="1333" NAME="?safeClone@AGL_RuleBasedCollator@agl_2_8@@UAEPAVAGL_Collator@2@XZ" PURGE="0" COMMENT="" />
    <EXPORT ORDINAL="1334" NAME="?safeClone@AGL_StringSearch@agl_2_8@@UBEPAVAGL_SearchIterator@2@XZ" PURGE="0" COMMENT="" />
    <EXPORT ORDINAL="1335" NAME="?scriptNameToCode@AnyTransliterator@agl_2_8@@CA?AW4AGL_UScriptCode@@ABVAGL_UnicodeString@2@@Z" PURGE="0" COMMENT="" />
    <EXPORT ORDINAL="1336" NAME="?secondaryOrder@AGL_CollationElementIterator@agl_2_8@@SAJJ@Z" PURGE="0" COMMENT="" />
    <EXPORT ORDINAL="1337" NAME="?set2DigitYearStart@AGL_SimpleDateFormat@agl_2_8@@UAEXNAAW4AGL_UErrorCode@@@Z" PURGE="12" COMMENT="" />
    <EXPORT ORDINAL="1338" NAME="?set@AGL_Calendar@agl_2_8@@QAEXJJJ@Z" PURGE="12" COMMENT="" />
    <EXPORT ORDINAL="1339" NAME="?set@AGL_Calendar@agl_2_8@@QAEXJJJJJ@Z" PURGE="20" COMMENT="" />
    <EXPORT ORDINAL="1340" NAME="?set@AGL_Calendar@agl_2_8@@QAEXJJJJJJ@Z" PURGE="24" COMMENT="" />
    <EXPORT ORDINAL="1341" NAME="?set@AGL_Calendar@agl_2_8@@QAEXW4AGL_UCalendarDateFields@@J@Z" PURGE="8" COMMENT="" />
    <EXPORT ORDINAL="1342" NAME="?set@DigitList@agl_2_8@@QAEXJJ@Z" PURGE="8" COMMENT="" />
    <EXPORT ORDINAL="1343" NAME="?set@DigitList@agl_2_8@@QAEXNJC@Z" PURGE="16" COMMENT="" />
    <EXPORT ORDINAL="1344" NAME="?set@DigitList@agl_2_8@@QAEX_JJ@Z" PURGE="12" COMMENT="" />
    <EXPORT ORDINAL="1345" NAME="?set@Ecliptic@CalendarAstronomer@agl_2_8@@QAEXNN@Z" PURGE="16" COMMENT="" />
    <EXPORT ORDINAL="1346" NAME="?set@Equatorial@CalendarAstronomer@agl_2_8@@QAEXNN@Z" PURGE="16" COMMENT="" />
    <EXPORT ORDINAL="1347" NAME="?set@Horizon@CalendarAstronomer@agl_2_8@@QAEXNN@Z" PURGE="16" COMMENT="" />
    <EXPORT ORDINAL="1348" NAME="?set@MoonAge@CalendarAstronomer@agl_2_8@@QAEXN@Z" PURGE="8" COMMENT="" />
    <EXPORT ORDINAL="1349" NAME="?setAmPmStrings@AGL_DateFormatSymbols@agl_2_8@@QAEXPBVAGL_UnicodeString@2@J@Z" PURGE="8" COMMENT="" />
    <EXPORT ORDINAL="1350" NAME="?setArray@AGL_Formattable@agl_2_8@@QAEXPBV12@J@Z" PURGE="8" COMMENT="" />
    <EXPORT ORDINAL="1351" NAME="?setAttribute@AGL_RuleBasedCollator@agl_2_8@@UAEXW4AGL_UColAttribute@@W4AGL_UColAttributeValue@@AAW4AGL_UErrorCode@@@Z" PURGE="12" COMMENT="" />
    <EXPORT ORDINAL="1352" NAME="?setAttribute@AGL_SearchIterator@agl_2_8@@QAEXW4AGL_USearchAttribute@@W4AGL_USearchAttributeValue@@AAW4AGL_UErrorCode@@@Z" PURGE="12" COMMENT="" />
    <EXPORT ORDINAL="1353" NAME="?setBeginIndex@AGL_FieldPosition@agl_2_8@@QAEXJ@Z" PURGE="4" COMMENT="" />
    <EXPORT ORDINAL="1354" NAME="?setBreakIterator@AGL_SearchIterator@agl_2_8@@QAEXPAVAGL_BreakIterator@2@AAW4AGL_UErrorCode@@@Z" PURGE="8" COMMENT="" />
    <EXPORT ORDINAL="1355" NAME="?setCalendar@AGL_DateFormat@agl_2_8@@UAEXABVAGL_Calendar@2@@Z" PURGE="4" COMMENT="" />
    <EXPORT ORDINAL="1356" NAME="?setChoices@AGL_ChoiceFormat@agl_2_8@@UAEXPBNPBCPBVAGL_UnicodeString@2@J@Z" PURGE="16" COMMENT="" />
    <EXPORT ORDINAL="1357" NAME="?setChoices@AGL_ChoiceFormat@agl_2_8@@UAEXPBNPBVAGL_UnicodeString@2@J@Z" PURGE="12" COMMENT="" />
    <EXPORT ORDINAL="1358" NAME="?setCivil@IslamicCalendar@agl_2_8@@QAEXW4ECivil@12@AAW4AGL_UErrorCode@@@Z" PURGE="8" COMMENT="" />
    <EXPORT ORDINAL="1359" NAME="?setCollator@AGL_StringSearch@agl_2_8@@QAEXPAVAGL_RuleBasedCollator@2@AAW4AGL_UErrorCode@@@Z" PURGE="8" COMMENT="" />
    <EXPORT ORDINAL="1360" NAME="?setCurrency@AGL_DecimalFormat@agl_2_8@@UAEXPBG@Z" PURGE="4" COMMENT="" />
    <EXPORT ORDINAL="1361" NAME="?setCurrency@AGL_NumberFormat@agl_2_8@@UAEXPBG@Z" PURGE="4" COMMENT="" />
    <EXPORT ORDINAL="1362" NAME="?setCurrencyForLocale@AGL_DecimalFormat@agl_2_8@@AAEXPBDAAW4AGL_UErrorCode@@@Z" PURGE="8" COMMENT="" />
    <EXPORT ORDINAL="1363" NAME="?setCurrencyForSymbols@AGL_DecimalFormat@agl_2_8@@AAEXXZ" PURGE="0" COMMENT="" />
    <EXPORT ORDINAL="1364" NAME="?setDSTSavings@AGL_SimpleTimeZone@agl_2_8@@QAEXJAAW4AGL_UErrorCode@@@Z" PURGE="8" COMMENT="" />
    <EXPORT ORDINAL="1365" NAME="?setData@FunctionReplacer@agl_2_8@@UAEXPBVTransliterationRuleData@2@@Z" PURGE="-1" COMMENT="" />
    <EXPORT ORDINAL="1366" NAME="?setData@TransliterationRuleSet@agl_2_8@@QAEXPBVTransliterationRuleData@2@@Z" PURGE="4" COMMENT="" />
    <EXPORT ORDINAL="1367" NAME="?setDate@AGL_Formattable@agl_2_8@@QAEXN@Z" PURGE="8" COMMENT="" />
    <EXPORT ORDINAL="1368" NAME="?setDate@CalendarAstronomer@agl_2_8@@QAEXN@Z" PURGE="8" COMMENT="" />
    <EXPORT ORDINAL="1369" NAME="?setDateFormatSymbols@AGL_SimpleDateFormat@agl_2_8@@UAEXABVAGL_DateFormatSymbols@2@@Z" PURGE="4" COMMENT="" />
    <EXPORT ORDINAL="1370" NAME="?setDecimalFormatSymbols@AGL_DecimalFormat@agl_2_8@@UAEXABVAGL_DecimalFormatSymbols@2@@Z" PURGE="4" COMMENT="" />
    <EXPORT ORDINAL="1371" NAME="?setDecimalSeparatorAlwaysShown@AGL_DecimalFormat@agl_2_8@@UAEXC@Z" PURGE="4" COMMENT="" />
    <EXPORT ORDINAL="1372" NAME="?setDefault@AGL_TimeZone@agl_2_8@@SAXABV12@@Z" PURGE="0" COMMENT="" />
    <EXPORT ORDINAL="1373" NAME="?setDefaultRuleSet@AGL_RuleBasedNumberFormat@agl_2_8@@UAEXABVAGL_UnicodeString@2@AAW4AGL_UErrorCode@@@Z" PURGE="8" COMMENT="" />
    <EXPORT ORDINAL="1374" NAME="?setDouble@AGL_Formattable@agl_2_8@@QAEXN@Z" PURGE="8" COMMENT="" />
    <EXPORT ORDINAL="1375" NAME="?setEndIndex@AGL_FieldPosition@agl_2_8@@QAEXJ@Z" PURGE="4" COMMENT="" />
    <EXPORT ORDINAL="1376" NAME="?setEndRule@AGL_SimpleTimeZone@agl_2_8@@QAEXJJJAAW4AGL_UErrorCode@@@Z" PURGE="16" COMMENT="" />
    <EXPORT ORDINAL="1377" NAME="?setEndRule@AGL_SimpleTimeZone@agl_2_8@@QAEXJJJJAAW4AGL_UErrorCode@@@Z" PURGE="20" COMMENT="" />
    <EXPORT ORDINAL="1378" NAME="?setEndRule@AGL_SimpleTimeZone@agl_2_8@@QAEXJJJJCAAW4AGL_UErrorCode@@@Z" PURGE="24" COMMENT="" />
    <EXPORT ORDINAL="1379" NAME="?setEndRule@AGL_SimpleTimeZone@agl_2_8@@QAEXJJJJW4TimeMode@12@AAW4AGL_UErrorCode@@@Z" PURGE="24" COMMENT="" />
    <EXPORT ORDINAL="1380" NAME="?setEndRule@AGL_SimpleTimeZone@agl_2_8@@QAEXJJJJW4TimeMode@12@CAAW4AGL_UErrorCode@@@Z" PURGE="28" COMMENT="" />
    <EXPORT ORDINAL="1381" NAME="?setEndRule@AGL_SimpleTimeZone@agl_2_8@@QAEXJJJW4TimeMode@12@AAW4AGL_UErrorCode@@@Z" PURGE="20" COMMENT="" />
    <EXPORT ORDINAL="1382" NAME="?setEras@AGL_DateFormatSymbols@agl_2_8@@QAEXPBVAGL_UnicodeString@2@J@Z" PURGE="8" COMMENT="" />
    <EXPORT ORDINAL="1383" NAME="?setExponentSignAlwaysShown@AGL_DecimalFormat@agl_2_8@@UAEXC@Z" PURGE="4" COMMENT="" />
    <EXPORT ORDINAL="1384" NAME="?setField@AGL_FieldPosition@agl_2_8@@QAEXJ@Z" PURGE="4" COMMENT="" />
    <EXPORT ORDINAL="1385" NAME="?setFirstDayOfWeek@AGL_Calendar@agl_2_8@@QAEXW4AGL_UCalendarDaysOfWeek@@@Z" PURGE="4" COMMENT="" />
    <EXPORT ORDINAL="1386" NAME="?setFormat@AGL_MessageFormat@agl_2_8@@UAEXJABVAGL_Format@2@@Z" PURGE="8" COMMENT="" />
    <EXPORT ORDINAL="1387" NAME="?setFormatWidth@AGL_DecimalFormat@agl_2_8@@UAEXJ@Z" PURGE="4" COMMENT="" />
    <EXPORT ORDINAL="1388" NAME="?setFormats@AGL_MessageFormat@agl_2_8@@UAEXPAPBVAGL_Format@2@J@Z" PURGE="8" COMMENT="" />
    <EXPORT ORDINAL="1389" NAME="?setGregorianChange@AGL_GregorianCalendar@agl_2_8@@QAEXNAAW4AGL_UErrorCode@@@Z" PURGE="12" COMMENT="" />
    <EXPORT ORDINAL="1390" NAME="?setGroupingSize@AGL_DecimalFormat@agl_2_8@@UAEXJ@Z" PURGE="4" COMMENT="" />
    <EXPORT ORDINAL="1391" NAME="?setGroupingUsed@AGL_NumberFormat@agl_2_8@@UAEXC@Z" PURGE="4" COMMENT="" />
    <EXPORT ORDINAL="1392" NAME="?setID@AGL_TimeZone@agl_2_8@@QAEXABVAGL_UnicodeString@2@@Z" PURGE="-1" COMMENT="" />
    <EXPORT ORDINAL="1393" NAME="?setID@AGL_Transliterator@agl_2_8@@IAEXABVAGL_UnicodeString@2@@Z" PURGE="4" COMMENT="" />
    <EXPORT ORDINAL="1394" NAME="?setInt64@AGL_Formattable@agl_2_8@@QAEX_J@Z" PURGE="8" COMMENT="" />
    <EXPORT ORDINAL="1395" NAME="?setJulianDay@CalendarAstronomer@agl_2_8@@QAEXN@Z" PURGE="8" COMMENT="" />
    <EXPORT ORDINAL="1396" NAME="?setLenient@AGL_Calendar@agl_2_8@@QAEXC@Z" PURGE="4" COMMENT="" />
    <EXPORT ORDINAL="1397" NAME="?setLenient@AGL_DateFormat@agl_2_8@@UAEXC@Z" PURGE="4" COMMENT="" />
    <EXPORT ORDINAL="1398" NAME="?setLenient@AGL_RuleBasedNumberFormat@agl_2_8@@UAEXC@Z" PURGE="4" COMMENT="" />
    <EXPORT ORDINAL="1399" NAME="?setLocalPatternChars@AGL_DateFormatSymbols@agl_2_8@@QAEXABVAGL_UnicodeString@2@@Z" PURGE="-1" COMMENT="" />
    <EXPORT ORDINAL="1400" NAME="?setLocale@AGL_MessageFormat@agl_2_8@@UAEXABVAGL_Locale@2@@Z" PURGE="4" COMMENT="" />
    <EXPORT ORDINAL="1401" NAME="?setLocaleIDs@AGL_Format@agl_2_8@@IAEXPBD0@Z" PURGE="8" COMMENT="" />
    <EXPORT ORDINAL="1402" NAME="?setLocales@AGL_Collator@agl_2_8@@MAEXABVAGL_Locale@2@0@Z" PURGE="8" COMMENT="" />
    <EXPORT ORDINAL="1403" NAME="?setLocales@AGL_Format@agl_2_8@@IAEXABVAGL_ResourceBundle@2@@Z" PURGE="4" COMMENT="" />
    <EXPORT ORDINAL="1404" NAME="?setLocales@AGL_RuleBasedCollator@agl_2_8@@MAEXABVAGL_Locale@2@0@Z" PURGE="8" COMMENT="" />
    <EXPORT ORDINAL="1405" NAME="?setLong@AGL_Formattable@agl_2_8@@QAEXJ@Z" PURGE="4" COMMENT="" />
    <EXPORT ORDINAL="1406" NAME="?setMatchLength@AGL_SearchIterator@agl_2_8@@MAEXJ@Z" PURGE="4" COMMENT="" />
    <EXPORT ORDINAL="1407" NAME="?setMatchNotFound@AGL_SearchIterator@agl_2_8@@IAEXXZ" PURGE="0" COMMENT="" />
    <EXPORT ORDINAL="1408" NAME="?setMatchStart@AGL_SearchIterator@agl_2_8@@MAEXJ@Z" PURGE="4" COMMENT="" />
    <EXPORT ORDINAL="1409" NAME="?setMaximumContextLength@AGL_Transliterator@agl_2_8@@IAEXJ@Z" PURGE="4" COMMENT="" />
    <EXPORT ORDINAL="1410" NAME="?setMaximumFractionDigits@AGL_DecimalFormat@agl_2_8@@UAEXJ@Z" PURGE="4" COMMENT="" />
    <EXPORT ORDINAL="1411" NAME="?setMaximumFractionDigits@AGL_NumberFormat@agl_2_8@@UAEXJ@Z" PURGE="4" COMMENT="" />
    <EXPORT ORDINAL="1412" NAME="?setMaximumIntegerDigits@AGL_DecimalFormat@agl_2_8@@UAEXJ@Z" PURGE="4" COMMENT="" />
    <EXPORT ORDINAL="1413" NAME="?setMaximumIntegerDigits@AGL_NumberFormat@agl_2_8@@UAEXJ@Z" PURGE="4" COMMENT="" />
    <EXPORT ORDINAL="1414" NAME="?setMinimalDaysInFirstWeek@AGL_Calendar@agl_2_8@@QAEXE@Z" PURGE="4" COMMENT="" />
    <EXPORT ORDINAL="1415" NAME="?setMinimumExponentDigits@AGL_DecimalFormat@agl_2_8@@UAEXC@Z" PURGE="4" COMMENT="" />
    <EXPORT ORDINAL="1416" NAME="?setMinimumFractionDigits@AGL_DecimalFormat@agl_2_8@@UAEXJ@Z" PURGE="4" COMMENT="" />
    <EXPORT ORDINAL="1417" NAME="?setMinimumFractionDigits@AGL_NumberFormat@agl_2_8@@UAEXJ@Z" PURGE="4" COMMENT="" />
    <EXPORT ORDINAL="1418" NAME="?setMinimumIntegerDigits@AGL_DecimalFormat@agl_2_8@@UAEXJ@Z" PURGE="4" COMMENT="" />
    <EXPORT ORDINAL="1419" NAME="?setMinimumIntegerDigits@AGL_NumberFormat@agl_2_8@@UAEXJ@Z" PURGE="4" COMMENT="" />
    <EXPORT ORDINAL="1420" NAME="?setMonths@AGL_DateFormatSymbols@agl_2_8@@QAEXPBVAGL_UnicodeString@2@J@Z" PURGE="8" COMMENT="" />
    <EXPORT ORDINAL="1421" NAME="?setMultiplier@AGL_DecimalFormat@agl_2_8@@UAEXJ@Z" PURGE="4" COMMENT="" />
    <EXPORT ORDINAL="1422" NAME="?setNegativePrefix@AGL_DecimalFormat@agl_2_8@@UAEXABVAGL_UnicodeString@2@@Z" PURGE="4" COMMENT="" />
    <EXPORT ORDINAL="1423" NAME="?setNegativeSuffix@AGL_DecimalFormat@agl_2_8@@UAEXABVAGL_UnicodeString@2@@Z" PURGE="4" COMMENT="" />
    <EXPORT ORDINAL="1424" NAME="?setNumberFormat@AGL_DateFormat@agl_2_8@@UAEXABVAGL_NumberFormat@2@@Z" PURGE="4" COMMENT="" />
    <EXPORT ORDINAL="1425" NAME="?setOffset@AGL_CollationElementIterator@agl_2_8@@QAEXJAAW4AGL_UErrorCode@@@Z" PURGE="8" COMMENT="" />
    <EXPORT ORDINAL="1426" NAME="?setOffset@AGL_StringSearch@agl_2_8@@UAEXJAAW4AGL_UErrorCode@@@Z" PURGE="8" COMMENT="" />
    <EXPORT ORDINAL="1427" NAME="?setPadCharacter@AGL_DecimalFormat@agl_2_8@@UAEXABVAGL_UnicodeString@2@@Z" PURGE="4" COMMENT="" />
    <EXPORT ORDINAL="1428" NAME="?setPadPosition@AGL_DecimalFormat@agl_2_8@@UAEXW4EPadPosition@12@@Z" PURGE="4" COMMENT="" />
    <EXPORT ORDINAL="1429" NAME="?setParseIntegerOnly@AGL_NumberFormat@agl_2_8@@UAEXC@Z" PURGE="4" COMMENT="" />
    <EXPORT ORDINAL="1430" NAME="?setPattern@AGL_StringSearch@agl_2_8@@QAEXABVAGL_UnicodeString@2@AAW4AGL_UErrorCode@@@Z" PURGE="8" COMMENT="" />
    <EXPORT ORDINAL="1431" NAME="?setPositivePrefix@AGL_DecimalFormat@agl_2_8@@UAEXABVAGL_UnicodeString@2@@Z" PURGE="4" COMMENT="" />
    <EXPORT ORDINAL="1432" NAME="?setPositiveSuffix@AGL_DecimalFormat@agl_2_8@@UAEXABVAGL_UnicodeString@2@@Z" PURGE="4" COMMENT="" />
    <EXPORT ORDINAL="1433" NAME="?setRawOffset@AGL_SimpleTimeZone@agl_2_8@@UAEXJ@Z" PURGE="4" COMMENT="" />
    <EXPORT ORDINAL="1434" NAME="?setRawOffset@OlsonTimeZone@agl_2_8@@UAEXJ@Z" PURGE="4" COMMENT="" />
    <EXPORT ORDINAL="1435" NAME="?setRoundingIncrement@AGL_DecimalFormat@agl_2_8@@UAEXN@Z" PURGE="8" COMMENT="" />
    <EXPORT ORDINAL="1436" NAME="?setRoundingMode@AGL_DecimalFormat@agl_2_8@@UAEXW4ERoundingMode@12@@Z" PURGE="4" COMMENT="" />
    <EXPORT ORDINAL="1437" NAME="?setRuleStringFromCollator@AGL_RuleBasedCollator@agl_2_8@@AAEXAAW4AGL_UErrorCode@@@Z" PURGE="4" COMMENT="" />
    <EXPORT ORDINAL="1438" NAME="?setScientificNotation@AGL_DecimalFormat@agl_2_8@@UAEXC@Z" PURGE="4" COMMENT="" />
    <EXPORT ORDINAL="1439" NAME="?setSecondaryGroupingSize@AGL_DecimalFormat@agl_2_8@@UAEXJ@Z" PURGE="4" COMMENT="" />
    <EXPORT ORDINAL="1440" NAME="?setShortMonths@AGL_DateFormatSymbols@agl_2_8@@QAEXPBVAGL_UnicodeString@2@J@Z" PURGE="8" COMMENT="" />
    <EXPORT ORDINAL="1441" NAME="?setShortWeekdays@AGL_DateFormatSymbols@agl_2_8@@QAEXPBVAGL_UnicodeString@2@J@Z" PURGE="8" COMMENT="" />
    <EXPORT ORDINAL="1442" NAME="?setStartRule@AGL_SimpleTimeZone@agl_2_8@@QAEXJJJAAW4AGL_UErrorCode@@@Z" PURGE="16" COMMENT="" />
    <EXPORT ORDINAL="1443" NAME="?setStartRule@AGL_SimpleTimeZone@agl_2_8@@QAEXJJJJAAW4AGL_UErrorCode@@@Z" PURGE="20" COMMENT="" />
    <EXPORT ORDINAL="1444" NAME="?setStartRule@AGL_SimpleTimeZone@agl_2_8@@QAEXJJJJCAAW4AGL_UErrorCode@@@Z" PURGE="24" COMMENT="" />
    <EXPORT ORDINAL="1445" NAME="?setStartRule@AGL_SimpleTimeZone@agl_2_8@@QAEXJJJJW4TimeMode@12@AAW4AGL_UErrorCode@@@Z" PURGE="24" COMMENT="" />
    <EXPORT ORDINAL="1446" NAME="?setStartRule@AGL_SimpleTimeZone@agl_2_8@@QAEXJJJJW4TimeMode@12@CAAW4AGL_UErrorCode@@@Z" PURGE="28" COMMENT="" />
    <EXPORT ORDINAL="1447" NAME="?setStartRule@AGL_SimpleTimeZone@agl_2_8@@QAEXJJJW4TimeMode@12@AAW4AGL_UErrorCode@@@Z" PURGE="20" COMMENT="" />
    <EXPORT ORDINAL="1448" NAME="?setStartYear@AGL_SimpleTimeZone@agl_2_8@@QAEXJ@Z" PURGE="4" COMMENT="" />
    <EXPORT ORDINAL="1449" NAME="?setStrength@AGL_RuleBasedCollator@agl_2_8@@UAEXW4ECollationStrength@AGL_Collator@2@@Z" PURGE="4" COMMENT="" />
    <EXPORT ORDINAL="1450" NAME="?setString@AGL_Formattable@agl_2_8@@QAEXABVAGL_UnicodeString@2@@Z" PURGE="4" COMMENT="" />
    <EXPORT ORDINAL="1451" NAME="?setSymbol@AGL_DecimalFormatSymbols@agl_2_8@@QAEXW4ENumberFormatSymbol@12@ABVAGL_UnicodeString@2@@Z" PURGE="8" COMMENT="" />
    <EXPORT ORDINAL="1452" NAME="?setText@AGL_CollationElementIterator@agl_2_8@@QAEXAAVAGL_CharacterIterator@2@AAW4AGL_UErrorCode@@@Z" PURGE="8" COMMENT="" />
    <EXPORT ORDINAL="1453" NAME="?setText@AGL_CollationElementIterator@agl_2_8@@QAEXABVAGL_UnicodeString@2@AAW4AGL_UErrorCode@@@Z" PURGE="8" COMMENT="" />
    <EXPORT ORDINAL="1454" NAME="?setText@AGL_SearchIterator@agl_2_8@@UAEXAAVAGL_CharacterIterator@2@AAW4AGL_UErrorCode@@@Z" PURGE="8" COMMENT="" />
    <EXPORT ORDINAL="1455" NAME="?setText@AGL_SearchIterator@agl_2_8@@UAEXABVAGL_UnicodeString@2@AAW4AGL_UErrorCode@@@Z" PURGE="8" COMMENT="" />
    <EXPORT ORDINAL="1456" NAME="?setText@AGL_StringSearch@agl_2_8@@UAEXAAVAGL_CharacterIterator@2@AAW4AGL_UErrorCode@@@Z" PURGE="8" COMMENT="" />
    <EXPORT ORDINAL="1457" NAME="?setText@AGL_StringSearch@agl_2_8@@UAEXABVAGL_UnicodeString@2@AAW4AGL_UErrorCode@@@Z" PURGE="8" COMMENT="" />
    <EXPORT ORDINAL="1458" NAME="?setTime@AGL_Calendar@agl_2_8@@QAEXNAAW4AGL_UErrorCode@@@Z" PURGE="12" COMMENT="" />
    <EXPORT ORDINAL="1459" NAME="?setTime@CalendarAstronomer@agl_2_8@@QAEXN@Z" PURGE="8" COMMENT="" />
    <EXPORT ORDINAL="1460" NAME="?setTimeInMillis@AGL_Calendar@agl_2_8@@IAEXNAAW4AGL_UErrorCode@@@Z" PURGE="12" COMMENT="" />
    <EXPORT ORDINAL="1461" NAME="?setTimeZone@AGL_Calendar@agl_2_8@@QAEXABVAGL_TimeZone@2@@Z" PURGE="4" COMMENT="" />
    <EXPORT ORDINAL="1462" NAME="?setTimeZone@AGL_DateFormat@agl_2_8@@UAEXABVAGL_TimeZone@2@@Z" PURGE="4" COMMENT="" />
    <EXPORT ORDINAL="1463" NAME="?setToBogus@AGL_CollationKey@agl_2_8@@AAEAAV12@XZ" PURGE="0" COMMENT="" />
    <EXPORT ORDINAL="1464" NAME="?setTrace@AGL_RegexMatcher@agl_2_8@@QAEXC@Z" PURGE="4" COMMENT="" />
    <EXPORT ORDINAL="1465" NAME="?setTransliterators@CompoundTransliterator@agl_2_8@@QAEXQBQAVAGL_Transliterator@2@J@Z" PURGE="8" COMMENT="" />
    <EXPORT ORDINAL="1466" NAME="?setUCollator@AGL_RuleBasedCollator@agl_2_8@@AAEXABVAGL_Locale@2@AAW4AGL_UErrorCode@@@Z" PURGE="8" COMMENT="" />
    <EXPORT ORDINAL="1467" NAME="?setUCollator@AGL_RuleBasedCollator@agl_2_8@@AAEXPAUAGL_UCollator@@PAVAGL_UnicodeString@2@@Z" PURGE="8" COMMENT="" />
    <EXPORT ORDINAL="1468" NAME="?setUCollator@AGL_RuleBasedCollator@agl_2_8@@AAEXPBDAAW4AGL_UErrorCode@@@Z" PURGE="8" COMMENT="" />
    <EXPORT ORDINAL="1469" NAME="?setUppercase@UnicodeToHexTransliterator@agl_2_8@@UAEXC@Z" PURGE="4" COMMENT="" />
    <EXPORT ORDINAL="1470" NAME="?setVariableTop@AGL_RuleBasedCollator@agl_2_8@@UAEKPBGJAAW4AGL_UErrorCode@@@Z" PURGE="12" COMMENT="" />
    <EXPORT ORDINAL="1471" NAME="?setVariableTop@AGL_RuleBasedCollator@agl_2_8@@UAEKVAGL_UnicodeString@2@AAW4AGL_UErrorCode@@@Z" PURGE="36" COMMENT="" />
    <EXPORT ORDINAL="1472" NAME="?setVariableTop@AGL_RuleBasedCollator@agl_2_8@@UAEXKAAW4AGL_UErrorCode@@@Z" PURGE="8" COMMENT="" />
    <EXPORT ORDINAL="1473" NAME="?setWeekCountData@AGL_Calendar@agl_2_8@@AAEXABVAGL_Locale@2@AAW4AGL_UErrorCode@@@Z" PURGE="8" COMMENT="" />
    <EXPORT ORDINAL="1474" NAME="?setWeekdays@AGL_DateFormatSymbols@agl_2_8@@QAEXPBVAGL_UnicodeString@2@J@Z" PURGE="8" COMMENT="" />
    <EXPORT ORDINAL="1475" NAME="?setZoneStrings@AGL_DateFormatSymbols@agl_2_8@@QAEXPBQBVAGL_UnicodeString@2@JJ@Z" PURGE="12" COMMENT="" />
    <EXPORT ORDINAL="1476" NAME="?shouldRoundUp@DigitList@agl_2_8@@AAECJ@Z" PURGE="4" COMMENT="" />
    <EXPORT ORDINAL="1477" NAME="?skipPadding@AGL_DecimalFormat@agl_2_8@@ABEJABVAGL_UnicodeString@2@J@Z" PURGE="8" COMMENT="" />
    <EXPORT ORDINAL="1478" NAME="?skipRuleWhiteSpace@AGL_DecimalFormat@agl_2_8@@CAJABVAGL_UnicodeString@2@J@Z" PURGE="0" COMMENT="" />
    <EXPORT ORDINAL="1479" NAME="?skipUWhiteSpace@AGL_DecimalFormat@agl_2_8@@CAJABVAGL_UnicodeString@2@J@Z" PURGE="0" COMMENT="" />
    <EXPORT ORDINAL="1480" NAME="?split@AGL_RegexMatcher@agl_2_8@@UAEJABVAGL_UnicodeString@2@QAV32@JAAW4AGL_UErrorCode@@@Z" PURGE="16" COMMENT="" />
    <EXPORT ORDINAL="1481" NAME="?split@AGL_RegexPattern@agl_2_8@@UBEJABVAGL_UnicodeString@2@QAV32@JAAW4AGL_UErrorCode@@@Z" PURGE="16" COMMENT="" />
    <EXPORT ORDINAL="1482" NAME="?start@AGL_RegexMatcher@agl_2_8@@UBEJAAW4AGL_UErrorCode@@@Z" PURGE="4" COMMENT="" />
    <EXPORT ORDINAL="1483" NAME="?start@AGL_RegexMatcher@agl_2_8@@UBEJHAAW4AGL_UErrorCode@@@Z" PURGE="8" COMMENT="" />
    <EXPORT ORDINAL="1484" NAME="?startOfYear@HebrewCalendar@agl_2_8@@CAJJAAW4AGL_UErrorCode@@@Z" PURGE="0" COMMENT="" />
    <EXPORT ORDINAL="1485" NAME="?stod@AGL_ChoiceFormat@agl_2_8@@CANABVAGL_UnicodeString@2@@Z" PURGE="0" COMMENT="" />
    <EXPORT ORDINAL="1486" NAME="?strengthOrder@AGL_CollationElementIterator@agl_2_8@@QBEJJ@Z" PURGE="4" COMMENT="" />
    <EXPORT ORDINAL="1487" NAME="?stripWhitespace@AGL_RuleBasedNumberFormat@agl_2_8@@AAEXAAVAGL_UnicodeString@2@@Z" PURGE="4" COMMENT="" />
    <EXPORT ORDINAL="1488" NAME="?subFormat@AGL_SimpleDateFormat@agl_2_8@@ABEXAAVAGL_UnicodeString@2@GJAAVAGL_FieldPosition@2@AAVAGL_Calendar@2@AAW4AGL_UErrorCode@@@Z" PURGE="24" COMMENT="" />
    <EXPORT ORDINAL="1489" NAME="?subParse@AGL_SimpleDateFormat@agl_2_8@@ABEJABVAGL_UnicodeString@2@AAJGJCCQACAAVAGL_Calendar@2@@Z" PURGE="32" COMMENT="" />
    <EXPORT ORDINAL="1490" NAME="?subformat@AGL_DecimalFormat@agl_2_8@@ABEAAVAGL_UnicodeString@2@AAV32@AAVAGL_FieldPosition@2@AAVDigitList@2@C@Z" PURGE="16" COMMENT="" />
    <EXPORT ORDINAL="1491" NAME="?subparse@AGL_DecimalFormat@agl_2_8@@ABECABVAGL_UnicodeString@2@AAVAGL_ParsePosition@2@AAVDigitList@2@PAC@Z" PURGE="16" COMMENT="" />
    <EXPORT ORDINAL="1492" NAME="?syntaxError@AGL_Format@agl_2_8@@KAXABVAGL_UnicodeString@2@JAAUAGL_UParseError@@@Z" PURGE="0" COMMENT="" />
    <EXPORT ORDINAL="1493" NAME="?tertiaryOrder@AGL_CollationElementIterator@agl_2_8@@SAJJ@Z" PURGE="0" COMMENT="" />
    <EXPORT ORDINAL="1494" NAME="?timeOfAngle@CalendarAstronomer@agl_2_8@@QAENAAVAngleFunc@12@NNNC@Z" PURGE="32" COMMENT="" />
    <EXPORT ORDINAL="1495" NAME="?toLocalizedPattern@AGL_DecimalFormat@agl_2_8@@UBEAAVAGL_UnicodeString@2@AAV32@@Z" PURGE="4" COMMENT="" />
    <EXPORT ORDINAL="1496" NAME="?toLocalizedPattern@AGL_SimpleDateFormat@agl_2_8@@UBEAAVAGL_UnicodeString@2@AAV32@AAW4AGL_UErrorCode@@@Z" PURGE="8" COMMENT="" />
    <EXPORT ORDINAL="1497" NAME="?toPattern@AGL_ChoiceFormat@agl_2_8@@UBEAAVAGL_UnicodeString@2@AAV32@@Z" PURGE="4" COMMENT="" />
    <EXPORT ORDINAL="1498" NAME="?toPattern@AGL_DecimalFormat@agl_2_8@@ABEAAVAGL_UnicodeString@2@AAV32@C@Z" PURGE="8" COMMENT="" />
    <EXPORT ORDINAL="1499" NAME="?toPattern@AGL_DecimalFormat@agl_2_8@@UBEAAVAGL_UnicodeString@2@AAV32@@Z" PURGE="4" COMMENT="" />
    <EXPORT ORDINAL="1500" NAME="?toPattern@AGL_MessageFormat@agl_2_8@@UBEAAVAGL_UnicodeString@2@AAV32@@Z" PURGE="4" COMMENT="" />
    <EXPORT ORDINAL="1501" NAME="?toPattern@AGL_SimpleDateFormat@agl_2_8@@UBEAAVAGL_UnicodeString@2@AAV32@@Z" PURGE="4" COMMENT="" />
    <EXPORT ORDINAL="1502" NAME="?toPattern@HexToUnicodeTransliterator@agl_2_8@@QBEABVAGL_UnicodeString@2@XZ" PURGE="0" COMMENT="" />
    <EXPORT ORDINAL="1503" NAME="?toPattern@UnicodeToHexTransliterator@agl_2_8@@QBEABVAGL_UnicodeString@2@XZ" PURGE="0" COMMENT="" />
    <EXPORT ORDINAL="1504" NAME="?toReplacer@FunctionReplacer@agl_2_8@@UBEPAVAGL_UnicodeReplacer@2@XZ" PURGE="0" COMMENT="" />
    <EXPORT ORDINAL="1505" NAME="?toReplacerPattern@FunctionReplacer@agl_2_8@@UBEAAVAGL_UnicodeString@2@AAV32@C@Z" PURGE="8" COMMENT="" />
    <EXPORT ORDINAL="1506" NAME="?toRules@AGL_Transliterator@agl_2_8@@UBEAAVAGL_UnicodeString@2@AAV32@C@Z" PURGE="8" COMMENT="" />
    <EXPORT ORDINAL="1507" NAME="?toRules@CompoundTransliterator@agl_2_8@@UBEAAVAGL_UnicodeString@2@AAV32@C@Z" PURGE="8" COMMENT="" />
    <EXPORT ORDINAL="1508" NAME="?toRules@RuleBasedTransliterator@agl_2_8@@UBEAAVAGL_UnicodeString@2@AAV32@C@Z" PURGE="-1" COMMENT="" />
    <EXPORT ORDINAL="1509" NAME="?toRules@TransliterationRuleSet@agl_2_8@@UBEAAVAGL_UnicodeString@2@AAV32@C@Z" PURGE="8" COMMENT="" />
    <EXPORT ORDINAL="1510" NAME="?toString@Ecliptic@CalendarAstronomer@agl_2_8@@QBE?AVAGL_UnicodeString@3@XZ" PURGE="4" COMMENT="" />
    <EXPORT ORDINAL="1511" NAME="?toString@Equatorial@CalendarAstronomer@agl_2_8@@QBE?AVAGL_UnicodeString@3@XZ" PURGE="4" COMMENT="" />
    <EXPORT ORDINAL="1512" NAME="?toString@Horizon@CalendarAstronomer@agl_2_8@@QBE?AVAGL_UnicodeString@3@XZ" PURGE="4" COMMENT="" />
    <EXPORT ORDINAL="1513" NAME="?translatePattern@AGL_SimpleDateFormat@agl_2_8@@CAXABVAGL_UnicodeString@2@AAV32@00AAW4AGL_UErrorCode@@@Z" PURGE="0" COMMENT="" />
    <EXPORT ORDINAL="1514" NAME="?transliterate@AGL_Transliterator@agl_2_8@@UBEJAAVAGL_Replaceable@2@JJ@Z" PURGE="12" COMMENT="" />
    <EXPORT ORDINAL="1515" NAME="?transliterate@AGL_Transliterator@agl_2_8@@UBEXAAVAGL_Replaceable@2@@Z" PURGE="4" COMMENT="" />
    <EXPORT ORDINAL="1516" NAME="?transliterate@AGL_Transliterator@agl_2_8@@UBEXAAVAGL_Replaceable@2@AAUAGL_UTransPosition@@AAW4AGL_UErrorCode@@@Z" PURGE="12" COMMENT="" />
    <EXPORT ORDINAL="1517" NAME="?transliterate@AGL_Transliterator@agl_2_8@@UBEXAAVAGL_Replaceable@2@AAUAGL_UTransPosition@@ABVAGL_UnicodeString@2@AAW4AGL_UErrorCode@@@Z" PURGE="16" COMMENT="" />
    <EXPORT ORDINAL="1518" NAME="?transliterate@AGL_Transliterator@agl_2_8@@UBEXAAVAGL_Replaceable@2@AAUAGL_UTransPosition@@JAAW4AGL_UErrorCode@@@Z" PURGE="16" COMMENT="" />
    <EXPORT ORDINAL="1519" NAME="?transliterate@TransliterationRuleSet@agl_2_8@@QAECAAVAGL_Replaceable@2@AAUAGL_UTransPosition@@C@Z" PURGE="12" COMMENT="" />
    <EXPORT ORDINAL="1520" NAME="?trueAnomaly@CalendarAstronomer@agl_2_8@@AAENNN@Z" PURGE="16" COMMENT="" />
    <EXPORT ORDINAL="1521" NAME="?trueMonthStart@IslamicCalendar@agl_2_8@@ABEJJ@Z" PURGE="4" COMMENT="" />
    <EXPORT ORDINAL="1522" NAME="?unlock@TransliterationRuleData@agl_2_8@@QAEXXZ" PURGE="0" COMMENT="" />
    <EXPORT ORDINAL="1523" NAME="?unregister@AGL_Calendar@agl_2_8@@SACPBXAAW4AGL_UErrorCode@@@Z" PURGE="0" COMMENT="" />
    <EXPORT ORDINAL="1524" NAME="?unregister@AGL_Collator@agl_2_8@@SACPBXAAW4AGL_UErrorCode@@@Z" PURGE="0" COMMENT="" />
    <EXPORT ORDINAL="1525" NAME="?unregister@AGL_NumberFormat@agl_2_8@@SACPBXAAW4AGL_UErrorCode@@@Z" PURGE="0" COMMENT="" />
    <EXPORT ORDINAL="1526" NAME="?unregister@AGL_Transliterator@agl_2_8@@SAXABVAGL_UnicodeString@2@@Z" PURGE="0" COMMENT="" />
    <EXPORT ORDINAL="1527" NAME="?updateTime@AGL_Calendar@agl_2_8@@AAEXAAW4AGL_UErrorCode@@@Z" PURGE="4" COMMENT="" />
    <EXPORT ORDINAL="1528" NAME="?useDaylightTime@AGL_SimpleTimeZone@agl_2_8@@UBECXZ" PURGE="0" COMMENT="" />
    <EXPORT ORDINAL="1529" NAME="?useDaylightTime@OlsonTimeZone@agl_2_8@@UBECXZ" PURGE="0" COMMENT="" />
    <EXPORT ORDINAL="1530" NAME="?validateField@AGL_Calendar@agl_2_8@@AAEXW4AGL_UCalendarDateFields@@JJAAW4AGL_UErrorCode@@@Z" PURGE="16" COMMENT="" />
    <EXPORT ORDINAL="1531" NAME="?validateField@AGL_Calendar@agl_2_8@@EAEXW4AGL_UCalendarDateFields@@AAW4AGL_UErrorCode@@@Z" PURGE="8" COMMENT="" />
    <EXPORT ORDINAL="1532" NAME="?validateFields@AGL_Calendar@agl_2_8@@AAEXAAW4AGL_UErrorCode@@@Z" PURGE="4" COMMENT="" />
    <EXPORT ORDINAL="1533" NAME="?validateFields@AGL_GregorianCalendar@agl_2_8@@ABECXZ" PURGE="0" COMMENT="" />
    <EXPORT ORDINAL="1534" NAME="?visible@AGL_CollatorFactory@agl_2_8@@UBECXZ" PURGE="0" COMMENT="" />
    <EXPORT ORDINAL="1535" NAME="?visible@AGL_SimpleNumberFormatFactory@agl_2_8@@UBECXZ" PURGE="0" COMMENT="" />
    <EXPORT ORDINAL="1536" NAME="?weekNumber@AGL_Calendar@agl_2_8@@IAEJJJ@Z" PURGE="8" COMMENT="" />
    <EXPORT ORDINAL="1537" NAME="?weekNumber@AGL_Calendar@agl_2_8@@IAEJJJJ@Z" PURGE="12" COMMENT="" />
    <EXPORT ORDINAL="1538" NAME="?yearLength@AGL_GregorianCalendar@agl_2_8@@IBEJJ@Z" PURGE="4" COMMENT="" />
    <EXPORT ORDINAL="1539" NAME="?yearLength@AGL_GregorianCalendar@agl_2_8@@IBEJXZ" PURGE="0" COMMENT="" />
    <EXPORT ORDINAL="1540" NAME="?yearStart@IslamicCalendar@agl_2_8@@AAEJJ@Z" PURGE="4" COMMENT="" />
    <EXPORT ORDINAL="1541" NAME="?yearType@HebrewCalendar@agl_2_8@@ABEJJ@Z" PURGE="4" COMMENT="" />
    <EXPORT ORDINAL="1542" NAME="?zap@AGL_RegexPattern@agl_2_8@@AAEXXZ" PURGE="0" COMMENT="" />
    <EXPORT ORDINAL="1543" NAME="?zeroPaddingNumber@AGL_SimpleDateFormat@agl_2_8@@ABEXAAVAGL_UnicodeString@2@JJJ@Z" PURGE="16" COMMENT="" />
    <EXPORT ORDINAL="1544" NAME="?zoneOffset@OlsonTimeZone@agl_2_8@@ABEJF@Z" PURGE="4" COMMENT="" />
    <EXPORT ORDINAL="1545" NAME="agl_u_formatMessage" PURGE="0" COMMENT="" />
    <EXPORT ORDINAL="1546" NAME="agl_u_formatMessageWithError" PURGE="0" COMMENT="" />
    <EXPORT ORDINAL="1547" NAME="agl_u_parseMessage" PURGE="0" COMMENT="" />
    <EXPORT ORDINAL="1548" NAME="agl_u_parseMessageWithError" PURGE="0" COMMENT="" />
    <EXPORT ORDINAL="1549" NAME="agl_u_vformatMessage" PURGE="0" COMMENT="" />
    <EXPORT ORDINAL="1550" NAME="agl_u_vformatMessageWithError" PURGE="0" COMMENT="" />
    <EXPORT ORDINAL="1551" NAME="agl_u_vparseMessage" PURGE="0" COMMENT="" />
    <EXPORT ORDINAL="1552" NAME="agl_u_vparseMessageWithError" PURGE="0" COMMENT="" />
    <EXPORT ORDINAL="1553" NAME="agl_ucal_add" PURGE="0" COMMENT="" />
    <EXPORT ORDINAL="1554" NAME="agl_ucal_clear" PURGE="0" COMMENT="" />
    <EXPORT ORDINAL="1555" NAME="agl_ucal_clearField" PURGE="0" COMMENT="" />
    <EXPORT ORDINAL="1556" NAME="agl_ucal_close" PURGE="0" COMMENT="" />
    <EXPORT ORDINAL="1557" NAME="agl_ucal_countAvailable" PURGE="-1" COMMENT="" />
    <EXPORT ORDINAL="1558" NAME="agl_ucal_equivalentTo" PURGE="0" COMMENT="" />
    <EXPORT ORDINAL="1559" NAME="agl_ucal_get" PURGE="0" COMMENT="" />
    <EXPORT ORDINAL="1560" NAME="agl_ucal_getAttribute" PURGE="0" COMMENT="" />
    <EXPORT ORDINAL="1561" NAME="agl_ucal_getAvailable" PURGE="-1" COMMENT="" />
    <EXPORT ORDINAL="1562" NAME="agl_ucal_getDSTSavings" PURGE="0" COMMENT="" />
    <EXPORT ORDINAL="1563" NAME="agl_ucal_getDefaultTimeZone" PURGE="0" COMMENT="" />
    <EXPORT ORDINAL="1564" NAME="agl_ucal_getLimit" PURGE="0" COMMENT="" />
    <EXPORT ORDINAL="1565" NAME="agl_ucal_getLocaleByType" PURGE="0" COMMENT="" />
    <EXPORT ORDINAL="1566" NAME="agl_ucal_getMillis" PURGE="0" COMMENT="" />
    <EXPORT ORDINAL="1567" NAME="agl_ucal_getNow" PURGE="0" COMMENT="" />
    <EXPORT ORDINAL="1568" NAME="agl_ucal_getTimeZoneDisplayName" PURGE="0" COMMENT="" />
    <EXPORT ORDINAL="1569" NAME="agl_ucal_inDaylightTime" PURGE="0" COMMENT="" />
    <EXPORT ORDINAL="1570" NAME="agl_ucal_isSet" PURGE="0" COMMENT="" />
    <EXPORT ORDINAL="1571" NAME="agl_ucal_open" PURGE="0" COMMENT="" />
    <EXPORT ORDINAL="1572" NAME="agl_ucal_openCountryTimeZones" PURGE="0" COMMENT="" />
    <EXPORT ORDINAL="1573" NAME="agl_ucal_openTimeZones" PURGE="0" COMMENT="" />
    <EXPORT ORDINAL="1574" NAME="agl_ucal_roll" PURGE="0" COMMENT="" />
    <EXPORT ORDINAL="1575" NAME="agl_ucal_set" PURGE="0" COMMENT="" />
    <EXPORT ORDINAL="1576" NAME="agl_ucal_setAttribute" PURGE="0" COMMENT="" />
    <EXPORT ORDINAL="1577" NAME="agl_ucal_setDate" PURGE="0" COMMENT="" />
    <EXPORT ORDINAL="1578" NAME="agl_ucal_setDateTime" PURGE="0" COMMENT="" />
    <EXPORT ORDINAL="1579" NAME="agl_ucal_setDefaultTimeZone" PURGE="0" COMMENT="" />
    <EXPORT ORDINAL="1580" NAME="agl_ucal_setMillis" PURGE="0" COMMENT="" />
    <EXPORT ORDINAL="1581" NAME="agl_ucal_setTimeZone" PURGE="0" COMMENT="" />
    <EXPORT ORDINAL="1582" NAME="agl_ucol_close" PURGE="0" COMMENT="" />
    <EXPORT ORDINAL="1583" NAME="agl_ucol_closeElements" PURGE="0" COMMENT="" />
    <EXPORT ORDINAL="1584" NAME="agl_ucol_countAvailable" PURGE="-1" COMMENT="" />
    <EXPORT ORDINAL="1585" NAME="agl_ucol_equal" PURGE="0" COMMENT="" />
    <EXPORT ORDINAL="1586" NAME="agl_ucol_getAttribute" PURGE="0" COMMENT="" />
    <EXPORT ORDINAL="1587" NAME="agl_ucol_getAvailable" PURGE="-1" COMMENT="" />
    <EXPORT ORDINAL="1588" NAME="agl_ucol_getBound" PURGE="0" COMMENT="" />
    <EXPORT ORDINAL="1589" NAME="agl_ucol_getDisplayName" PURGE="0" COMMENT="" />
    <EXPORT ORDINAL="1590" NAME="agl_ucol_getLocale" PURGE="0" COMMENT="" />
    <EXPORT ORDINAL="1591" NAME="agl_ucol_getLocaleByType" PURGE="0" COMMENT="" />
    <EXPORT ORDINAL="1592" NAME="agl_ucol_getMaxExpansion" PURGE="0" COMMENT="" />
    <EXPORT ORDINAL="1593" NAME="agl_ucol_getOffset" PURGE="0" COMMENT="" />
    <EXPORT ORDINAL="1594" NAME="agl_ucol_getRules" PURGE="0" COMMENT="" />
    <EXPORT ORDINAL="1595" NAME="agl_ucol_getRulesEx" PURGE="0" COMMENT="" />
    <EXPORT ORDINAL="1596" NAME="agl_ucol_getSortKey" PURGE="0" COMMENT="" />
    <EXPORT ORDINAL="1597" NAME="agl_ucol_getStrength" PURGE="0" COMMENT="" />
    <EXPORT ORDINAL="1598" NAME="agl_ucol_getTailoredSet" PURGE="0" COMMENT="" />
    <EXPORT ORDINAL="1599" NAME="agl_ucol_getUCAVersion" PURGE="0" COMMENT="" />
    <EXPORT ORDINAL="1600" NAME="agl_ucol_getVariableTop" PURGE="0" COMMENT="" />
    <EXPORT ORDINAL="1601" NAME="agl_ucol_getVersion" PURGE="0" COMMENT="" />
    <EXPORT ORDINAL="1602" NAME="agl_ucol_greater" PURGE="0" COMMENT="" />
    <EXPORT ORDINAL="1603" NAME="agl_ucol_greaterOrEqual" PURGE="0" COMMENT="" />
    <EXPORT ORDINAL="1604" NAME="agl_ucol_keyHashCode" PURGE="0" COMMENT="" />
    <EXPORT ORDINAL="1605" NAME="agl_ucol_mergeSortkeys" PURGE="0" COMMENT="" />
    <EXPORT ORDINAL="1606" NAME="agl_ucol_next" PURGE="0" COMMENT="" />
    <EXPORT ORDINAL="1607" NAME="agl_ucol_nextSortKeyPart" PURGE="0" COMMENT="" />
    <EXPORT ORDINAL="1608" NAME="agl_ucol_open" PURGE="0" COMMENT="" />
    <EXPORT ORDINAL="1609" NAME="agl_ucol_openElements" PURGE="0" COMMENT="" />
    <EXPORT ORDINAL="1610" NAME="agl_ucol_openRules" PURGE="0" COMMENT="" />
    <EXPORT ORDINAL="1611" NAME="agl_ucol_previous" PURGE="0" COMMENT="" />
    <EXPORT ORDINAL="1612" NAME="agl_ucol_primaryOrder" PURGE="0" COMMENT="" />
    <EXPORT ORDINAL="1613" NAME="agl_ucol_reset" PURGE="0" COMMENT="" />
    <EXPORT ORDINAL="1614" NAME="agl_ucol_restoreVariableTop" PURGE="0" COMMENT="" />
    <EXPORT ORDINAL="1615" NAME="agl_ucol_safeClone" PURGE="0" COMMENT="" />
    <EXPORT ORDINAL="1616" NAME="agl_ucol_secondaryOrder" PURGE="0" COMMENT="" />
    <EXPORT ORDINAL="1617" NAME="agl_ucol_setAttribute" PURGE="0" COMMENT="" />
    <EXPORT ORDINAL="1618" NAME="agl_ucol_setOffset" PURGE="0" COMMENT="" />
    <EXPORT ORDINAL="1619" NAME="agl_ucol_setStrength" PURGE="0" COMMENT="" />
    <EXPORT ORDINAL="1620" NAME="agl_ucol_setText" PURGE="0" COMMENT="" />
    <EXPORT ORDINAL="1621" NAME="agl_ucol_setVariableTop" PURGE="0" COMMENT="" />
    <EXPORT ORDINAL="1622" NAME="agl_ucol_strcoll" PURGE="0" COMMENT="" />
    <EXPORT ORDINAL="1623" NAME="agl_ucol_strcollIter" PURGE="0" COMMENT="" />
    <EXPORT ORDINAL="1624" NAME="agl_ucol_tertiaryOrder" PURGE="0" COMMENT="" />
    <EXPORT ORDINAL="1625" NAME="agl_ucurr_forLocale" PURGE="0" COMMENT="" />
    <EXPORT ORDINAL="1626" NAME="agl_ucurr_getDefaultFractionDigits" PURGE="0" COMMENT="" />
    <EXPORT ORDINAL="1627" NAME="agl_ucurr_getName" PURGE="0" COMMENT="" />
    <EXPORT ORDINAL="1628" NAME="agl_ucurr_getRoundingIncrement" PURGE="0" COMMENT="" />
    <EXPORT ORDINAL="1629" NAME="agl_ucurr_register" PURGE="0" COMMENT="" />
    <EXPORT ORDINAL="1630" NAME="agl_ucurr_unregister" PURGE="0" COMMENT="" />
    <EXPORT ORDINAL="1631" NAME="agl_udat_applyPattern" PURGE="0" COMMENT="" />
    <EXPORT ORDINAL="1632" NAME="agl_udat_clone" PURGE="0" COMMENT="" />
    <EXPORT ORDINAL="1633" NAME="agl_udat_close" PURGE="0" COMMENT="" />
    <EXPORT ORDINAL="1634" NAME="agl_udat_countAvailable" PURGE="-1" COMMENT="" />
    <EXPORT ORDINAL="1635" NAME="agl_udat_countSymbols" PURGE="0" COMMENT="" />
    <EXPORT ORDINAL="1636" NAME="agl_udat_format" PURGE="0" COMMENT="" />
    <EXPORT ORDINAL="1637" NAME="agl_udat_get2DigitYearStart" PURGE="0" COMMENT="" />
    <EXPORT ORDINAL="1638" NAME="agl_udat_getAvailable" PURGE="-1" COMMENT="" />
    <EXPORT ORDINAL="1639" NAME="agl_udat_getCalendar" PURGE="-1" COMMENT="" />
    <EXPORT ORDINAL="1640" NAME="agl_udat_getLocaleByType" PURGE="0" COMMENT="" />
    <EXPORT ORDINAL="1641" NAME="agl_udat_getNumberFormat" PURGE="-1" COMMENT="" />
    <EXPORT ORDINAL="1642" NAME="agl_udat_getSymbols" PURGE="0" COMMENT="" />
    <EXPORT ORDINAL="1643" NAME="agl_udat_isLenient" PURGE="-1" COMMENT="" />
    <EXPORT ORDINAL="1644" NAME="agl_udat_open" PURGE="0" COMMENT="" />
    <EXPORT ORDINAL="1645" NAME="agl_udat_parse" PURGE="0" COMMENT="" />
    <EXPORT ORDINAL="1646" NAME="agl_udat_parseCalendar" PURGE="0" COMMENT="" />
    <EXPORT ORDINAL="1647" NAME="agl_udat_set2DigitYearStart" PURGE="0" COMMENT="" />
    <EXPORT ORDINAL="1648" NAME="agl_udat_setCalendar" PURGE="0" COMMENT="" />
    <EXPORT ORDINAL="1649" NAME="agl_udat_setLenient" PURGE="0" COMMENT="" />
    <EXPORT ORDINAL="1650" NAME="agl_udat_setNumberFormat" PURGE="0" COMMENT="" />
    <EXPORT ORDINAL="1651" NAME="agl_udat_setSymbols" PURGE="0" COMMENT="" />
    <EXPORT ORDINAL="1652" NAME="agl_udat_toPattern" PURGE="0" COMMENT="" />
    <EXPORT ORDINAL="1653" NAME="agl_ulocdata_getExemplarSet" PURGE="0" COMMENT="" />
    <EXPORT ORDINAL="1654" NAME="agl_ulocdata_getMeasurementSystem" PURGE="0" COMMENT="" />
    <EXPORT ORDINAL="1655" NAME="agl_ulocdata_getPaperSize" PURGE="0" COMMENT="" />
    <EXPORT ORDINAL="1656" NAME="agl_umsg_applyPattern" PURGE="0" COMMENT="" />
    <EXPORT ORDINAL="1657" NAME="agl_umsg_clone" PURGE="0" COMMENT="" />
    <EXPORT ORDINAL="1658" NAME="agl_umsg_close" PURGE="0" COMMENT="" />
    <EXPORT ORDINAL="1659" NAME="agl_umsg_format" PURGE="0" COMMENT="" />
    <EXPORT ORDINAL="1660" NAME="agl_umsg_getLocale" PURGE="0" COMMENT="" />
    <EXPORT ORDINAL="1661" NAME="agl_umsg_getLocaleByType" PURGE="0" COMMENT="" />
    <EXPORT ORDINAL="1662" NAME="agl_umsg_open" PURGE="0" COMMENT="" />
    <EXPORT ORDINAL="1663" NAME="agl_umsg_parse" PURGE="0" COMMENT="" />
    <EXPORT ORDINAL="1664" NAME="agl_umsg_setLocale" PURGE="0" COMMENT="" />
    <EXPORT ORDINAL="1665" NAME="agl_umsg_toPattern" PURGE="0" COMMENT="" />
    <EXPORT ORDINAL="1666" NAME="agl_umsg_vformat" PURGE="0" COMMENT="" />
    <EXPORT ORDINAL="1667" NAME="agl_umsg_vparse" PURGE="0" COMMENT="" />
    <EXPORT ORDINAL="1668" NAME="agl_unum_applyPattern" PURGE="0" COMMENT="" />
    <EXPORT ORDINAL="1669" NAME="agl_unum_clone" PURGE="0" COMMENT="" />
    <EXPORT ORDINAL="1670" NAME="agl_unum_close" PURGE="0" COMMENT="" />
    <EXPORT ORDINAL="1671" NAME="agl_unum_countAvailable" PURGE="-1" COMMENT="" />
    <EXPORT ORDINAL="1672" NAME="agl_unum_format" PURGE="0" COMMENT="" />
    <EXPORT ORDINAL="1673" NAME="agl_unum_formatDouble" PURGE="0" COMMENT="" />
    <EXPORT ORDINAL="1674" NAME="agl_unum_formatInt64" PURGE="0" COMMENT="" />
    <EXPORT ORDINAL="1675" NAME="agl_unum_getAttribute" PURGE="0" COMMENT="" />
    <EXPORT ORDINAL="1676" NAME="agl_unum_getAvailable" PURGE="-1" COMMENT="" />
    <EXPORT ORDINAL="1677" NAME="agl_unum_getDoubleAttribute" PURGE="0" COMMENT="" />
    <EXPORT ORDINAL="1678" NAME="agl_unum_getLocaleByType" PURGE="0" COMMENT="" />
    <EXPORT ORDINAL="1679" NAME="agl_unum_getSymbol" PURGE="0" COMMENT="" />
    <EXPORT ORDINAL="1680" NAME="agl_unum_getTextAttribute" PURGE="0" COMMENT="" />
    <EXPORT ORDINAL="1681" NAME="agl_unum_open" PURGE="0" COMMENT="" />
    <EXPORT ORDINAL="1682" NAME="agl_unum_parse" PURGE="0" COMMENT="" />
    <EXPORT ORDINAL="1683" NAME="agl_unum_parseDouble" PURGE="0" COMMENT="" />
    <EXPORT ORDINAL="1684" NAME="agl_unum_parseInt64" PURGE="0" COMMENT="" />
    <EXPORT ORDINAL="1685" NAME="agl_unum_setAttribute" PURGE="0" COMMENT="" />
    <EXPORT ORDINAL="1686" NAME="agl_unum_setDoubleAttribute" PURGE="0" COMMENT="" />
    <EXPORT ORDINAL="1687" NAME="agl_unum_setSymbol" PURGE="0" COMMENT="" />
    <EXPORT ORDINAL="1688" NAME="agl_unum_setTextAttribute" PURGE="0" COMMENT="" />
    <EXPORT ORDINAL="1689" NAME="agl_unum_toPattern" PURGE="0" COMMENT="" />
    <EXPORT ORDINAL="1690" NAME="agl_usearch_close" PURGE="0" COMMENT="" />
    <EXPORT ORDINAL="1691" NAME="agl_usearch_first" PURGE="0" COMMENT="" />
    <EXPORT ORDINAL="1692" NAME="agl_usearch_following" PURGE="0" COMMENT="" />
    <EXPORT ORDINAL="1693" NAME="agl_usearch_getAttribute" PURGE="0" COMMENT="" />
    <EXPORT ORDINAL="1694" NAME="agl_usearch_getBreakIterator" PURGE="0" COMMENT="" />
    <EXPORT ORDINAL="1695" NAME="agl_usearch_getCollator" PURGE="0" COMMENT="" />
    <EXPORT ORDINAL="1696" NAME="agl_usearch_getMatchedLength" PURGE="0" COMMENT="" />
    <EXPORT ORDINAL="1697" NAME="agl_usearch_getMatchedStart" PURGE="0" COMMENT="" />
    <EXPORT ORDINAL="1698" NAME="agl_usearch_getMatchedText" PURGE="0" COMMENT="" />
    <EXPORT ORDINAL="1699" NAME="agl_usearch_getOffset" PURGE="0" COMMENT="" />
    <EXPORT ORDINAL="1700" NAME="agl_usearch_getPattern" PURGE="0" COMMENT="" />
    <EXPORT ORDINAL="1701" NAME="agl_usearch_getText" PURGE="0" COMMENT="" />
    <EXPORT ORDINAL="1702" NAME="agl_usearch_last" PURGE="0" COMMENT="" />
    <EXPORT ORDINAL="1703" NAME="agl_usearch_next" PURGE="0" COMMENT="" />
    <EXPORT ORDINAL="1704" NAME="agl_usearch_open" PURGE="0" COMMENT="" />
    <EXPORT ORDINAL="1705" NAME="agl_usearch_openFromCollator" PURGE="0" COMMENT="" />
    <EXPORT ORDINAL="1706" NAME="agl_usearch_preceding" PURGE="0" COMMENT="" />
    <EXPORT ORDINAL="1707" NAME="agl_usearch_previous" PURGE="0" COMMENT="" />
    <EXPORT ORDINAL="1708" NAME="agl_usearch_reset" PURGE="0" COMMENT="" />
    <EXPORT ORDINAL="1709" NAME="agl_usearch_setAttribute" PURGE="0" COMMENT="" />
    <EXPORT ORDINAL="1710" NAME="agl_usearch_setBreakIterator" PURGE="0" COMMENT="" />
    <EXPORT ORDINAL="1711" NAME="agl_usearch_setCollator" PURGE="0" COMMENT="" />
    <EXPORT ORDINAL="1712" NAME="agl_usearch_setOffset" PURGE="0" COMMENT="" />
    <EXPORT ORDINAL="1713" NAME="agl_usearch_setPattern" PURGE="0" COMMENT="" />
    <EXPORT ORDINAL="1714" NAME="agl_usearch_setText" PURGE="0" COMMENT="" />
    <EXPORT ORDINAL="1715" NAME="agl_utrans_clone" PURGE="0" COMMENT="" />
    <EXPORT ORDINAL="1716" NAME="agl_utrans_close" PURGE="0" COMMENT="" />
    <EXPORT ORDINAL="1717" NAME="agl_utrans_countAvailableIDs" PURGE="0" COMMENT="" />
    <EXPORT ORDINAL="1718" NAME="agl_utrans_getAvailableID" PURGE="0" COMMENT="" />
    <EXPORT ORDINAL="1719" NAME="agl_utrans_getID" PURGE="0" COMMENT="" />
    <EXPORT ORDINAL="1720" NAME="agl_utrans_getUnicodeID" PURGE="0" COMMENT="" />
    <EXPORT ORDINAL="1721" NAME="agl_utrans_open" PURGE="0" COMMENT="" />
    <EXPORT ORDINAL="1722" NAME="agl_utrans_openIDs" PURGE="0" COMMENT="" />
    <EXPORT ORDINAL="1723" NAME="agl_utrans_openInverse" PURGE="0" COMMENT="" />
    <EXPORT ORDINAL="1724" NAME="agl_utrans_openU" PURGE="0" COMMENT="" />
    <EXPORT ORDINAL="1725" NAME="agl_utrans_register" PURGE="0" COMMENT="" />
    <EXPORT ORDINAL="1726" NAME="agl_utrans_setFilter" PURGE="0" COMMENT="" />
    <EXPORT ORDINAL="1727" NAME="agl_utrans_trans" PURGE="0" COMMENT="" />
    <EXPORT ORDINAL="1728" NAME="agl_utrans_transIncremental" PURGE="0" COMMENT="" />
    <EXPORT ORDINAL="1729" NAME="agl_utrans_transIncrementalUChars" PURGE="0" COMMENT="" />
    <EXPORT ORDINAL="1730" NAME="agl_utrans_transUChars" PURGE="0" COMMENT="" />
    <EXPORT ORDINAL="1731" NAME="agl_utrans_unregister" PURGE="0" COMMENT="" />
    <EXPORT ORDINAL="1732" NAME="agl_utrans_unregisterID" PURGE="0" COMMENT="" />
    <EXPORT ORDINAL="1733" NAME="ucol_cloneRuleData" PURGE="0" COMMENT="" />
    <EXPORT ORDINAL="1734" NAME="ucol_equals" PURGE="0" COMMENT="" />
    <EXPORT ORDINAL="1735" NAME="ucol_getFirstCE" PURGE="0" COMMENT="" />
    <EXPORT ORDINAL="1736" NAME="ucol_getNextCE" PURGE="0" COMMENT="" />
    <EXPORT ORDINAL="1737" NAME="ucol_getPrevCE" PURGE="0" COMMENT="" />
    <EXPORT ORDINAL="1738" NAME="ucol_initInverseUCA" PURGE="0" COMMENT="" />
    <EXPORT ORDINAL="1739" NAME="ucol_inv_getNextCE" PURGE="0" COMMENT="" />
    <EXPORT ORDINAL="1740" NAME="ucol_inv_getPrevCE" PURGE="0" COMMENT="" />
    <EXPORT ORDINAL="1741" NAME="ucol_isTailored" PURGE="0" COMMENT="" />
    <EXPORT ORDINAL="1742" NAME="ucol_setReqValidLocales" PURGE="0" COMMENT="" />
    <EXPORT ORDINAL="1743" NAME="ucol_sortKeyToString" PURGE="0" COMMENT="" />
    <EXPORT ORDINAL="1744" NAME="ucol_tok_getNextArgument" PURGE="0" COMMENT="" />
    <EXPORT ORDINAL="1745" NAME="ucol_tok_parseNextToken" PURGE="0" COMMENT="" />
    <EXPORT ORDINAL="1746" NAME="uprv_cnttab_addContraction" PURGE="0" COMMENT="" />
    <EXPORT ORDINAL="1747" NAME="uprv_cnttab_changeContraction" PURGE="0" COMMENT="" />
    <EXPORT ORDINAL="1748" NAME="uprv_cnttab_changeLastCE" PURGE="0" COMMENT="" />
    <EXPORT ORDINAL="1749" NAME="uprv_cnttab_clone" PURGE="0" COMMENT="" />
    <EXPORT ORDINAL="1750" NAME="uprv_cnttab_close" PURGE="0" COMMENT="" />
    <EXPORT ORDINAL="1751" NAME="uprv_cnttab_constructTable" PURGE="0" COMMENT="" />
    <EXPORT ORDINAL="1752" NAME="uprv_cnttab_findCE" PURGE="0" COMMENT="" />
    <EXPORT ORDINAL="1753" NAME="uprv_cnttab_findCP" PURGE="0" COMMENT="" />
    <EXPORT ORDINAL="1754" NAME="uprv_cnttab_getCE" PURGE="0" COMMENT="" />
    <EXPORT ORDINAL="1755" NAME="uprv_cnttab_insertContraction" PURGE="0" COMMENT="" />
    <EXPORT ORDINAL="1756" NAME="uprv_cnttab_isTailored" PURGE="0" COMMENT="" />
    <EXPORT ORDINAL="1757" NAME="uprv_cnttab_open" PURGE="0" COMMENT="" />
    <EXPORT ORDINAL="1758" NAME="uprv_cnttab_setContraction" PURGE="0" COMMENT="" />
    <EXPORT ORDINAL="1759" NAME="uprv_getStaticCurrencyName" PURGE="0" COMMENT="" />
    <EXPORT ORDINAL="1760" NAME="uprv_init_collIterate" PURGE="0" COMMENT="" />
    <EXPORT ORDINAL="1761" NAME="uprv_uca_addAnElement" PURGE="0" COMMENT="" />
    <EXPORT ORDINAL="1762" NAME="uprv_uca_assembleTable" PURGE="0" COMMENT="" />
    <EXPORT ORDINAL="1763" NAME="uprv_uca_canonicalClosure" PURGE="0" COMMENT="" />
    <EXPORT ORDINAL="1764" NAME="uprv_uca_cloneTempTable" PURGE="0" COMMENT="" />
    <EXPORT ORDINAL="1765" NAME="uprv_uca_closeTempTable" PURGE="0" COMMENT="" />
    <EXPORT ORDINAL="1766" NAME="uprv_uca_getCodePointFromRaw" PURGE="0" COMMENT="" />
    <EXPORT ORDINAL="1767" NAME="uprv_uca_getImplicitFromRaw" PURGE="0" COMMENT="" />
    <EXPORT ORDINAL="1768" NAME="uprv_uca_getImplicitPrimary" PURGE="0" COMMENT="" />
    <EXPORT ORDINAL="1769" NAME="uprv_uca_getRawFromCodePoint" PURGE="0" COMMENT="" />
    <EXPORT ORDINAL="1770" NAME="uprv_uca_getRawFromImplicit" PURGE="0" COMMENT="" />
    <EXPORT ORDINAL="1771" NAME="uprv_uca_initImplicitConstants" PURGE="0" COMMENT="" />
    <EXPORT ORDINAL="1772" NAME="uprv_uca_initTempTable" PURGE="0" COMMENT="" />
</LIBRARY>

