<?xml version="1.0" encoding="UTF-8"?>
<LIBRARY NAME="ltwrp10n.dll" PATH="/DLLArchive/etc/Ltwrp10n.dll" DATE="Fri Jul 03 21:48:21 CEST 2020" VERSION="10.0.0.018">
    <EXPORT ORDINAL="1" NAME="DllMain" PURGE="12" COMMENT="" />
    <EXPORT ORDINAL="2" NAME="??0LAnimationWindow@@QAE@AAV0@@Z" PURGE="4" COMMENT="" />
    <EXPORT ORDINAL="3" NAME="??0LAnimationWindow@@QAE@PAUHWND__@@PAVLBitmapList@@IHKHHHH@Z" PURGE="36" COMMENT="" />
    <EXPORT ORDINAL="4" NAME="??0LAnimationWindow@@QAE@XZ" PURGE="0" COMMENT="" />
    <EXPORT ORDINAL="5" NAME="??0LAnnAudioClip@@QAE@AAPAX@Z" PURGE="4" COMMENT="" />
    <EXPORT ORDINAL="6" NAME="??0LAnnAudioClip@@QAE@ABV0@@Z" PURGE="4" COMMENT="" />
    <EXPORT ORDINAL="7" NAME="??0LAnnAudioClip@@QAE@I@Z" PURGE="4" COMMENT="" />
    <EXPORT ORDINAL="8" NAME="??0LAnnAutomation@@QAE@AAPAX@Z" PURGE="4" COMMENT="" />
    <EXPORT ORDINAL="9" NAME="??0LAnnAutomation@@QAE@ABV0@@Z" PURGE="4" COMMENT="" />
    <EXPORT ORDINAL="10" NAME="??0LAnnAutomation@@QAE@I@Z" PURGE="4" COMMENT="" />
    <EXPORT ORDINAL="11" NAME="??0LAnnButton@@QAE@AAPAX@Z" PURGE="4" COMMENT="" />
    <EXPORT ORDINAL="12" NAME="??0LAnnButton@@QAE@ABV0@@Z" PURGE="4" COMMENT="" />
    <EXPORT ORDINAL="13" NAME="??0LAnnButton@@QAE@I@Z" PURGE="4" COMMENT="" />
    <EXPORT ORDINAL="14" NAME="??0LAnnContainer@@QAE@AAPAX@Z" PURGE="4" COMMENT="" />
    <EXPORT ORDINAL="15" NAME="??0LAnnContainer@@QAE@ABV0@@Z" PURGE="4" COMMENT="" />
    <EXPORT ORDINAL="16" NAME="??0LAnnContainer@@QAE@PAUHWND__@@PAU_ANNRECT@@I@Z" PURGE="12" COMMENT="" />
    <EXPORT ORDINAL="17" NAME="??0LAnnContainer@@QAE@XZ" PURGE="0" COMMENT="" />
    <EXPORT ORDINAL="18" NAME="??0LAnnEllipse@@QAE@AAPAX@Z" PURGE="4" COMMENT="" />
    <EXPORT ORDINAL="19" NAME="??0LAnnEllipse@@QAE@ABV0@@Z" PURGE="4" COMMENT="" />
    <EXPORT ORDINAL="20" NAME="??0LAnnEllipse@@QAE@I@Z" PURGE="4" COMMENT="" />
    <EXPORT ORDINAL="21" NAME="??0LAnnFreehand@@QAE@AAPAX@Z" PURGE="4" COMMENT="" />
    <EXPORT ORDINAL="22" NAME="??0LAnnFreehand@@QAE@ABV0@@Z" PURGE="4" COMMENT="" />
    <EXPORT ORDINAL="23" NAME="??0LAnnFreehand@@QAE@I@Z" PURGE="4" COMMENT="" />
    <EXPORT ORDINAL="24" NAME="??0LAnnHilite@@QAE@AAPAX@Z" PURGE="4" COMMENT="" />
    <EXPORT ORDINAL="25" NAME="??0LAnnHilite@@QAE@ABV0@@Z" PURGE="4" COMMENT="" />
    <EXPORT ORDINAL="26" NAME="??0LAnnHilite@@QAE@I@Z" PURGE="4" COMMENT="" />
    <EXPORT ORDINAL="27" NAME="??0LAnnHotSpot@@QAE@AAPAX@Z" PURGE="4" COMMENT="" />
    <EXPORT ORDINAL="28" NAME="??0LAnnHotSpot@@QAE@ABV0@@Z" PURGE="4" COMMENT="" />
    <EXPORT ORDINAL="29" NAME="??0LAnnHotSpot@@QAE@I@Z" PURGE="4" COMMENT="" />
    <EXPORT ORDINAL="30" NAME="??0LAnnLine@@QAE@AAPAX@Z" PURGE="4" COMMENT="" />
    <EXPORT ORDINAL="31" NAME="??0LAnnLine@@QAE@ABV0@@Z" PURGE="4" COMMENT="" />
    <EXPORT ORDINAL="32" NAME="??0LAnnLine@@QAE@I@Z" PURGE="4" COMMENT="" />
    <EXPORT ORDINAL="33" NAME="??0LAnnNote@@QAE@AAPAX@Z" PURGE="4" COMMENT="" />
    <EXPORT ORDINAL="34" NAME="??0LAnnNote@@QAE@ABV0@@Z" PURGE="4" COMMENT="" />
    <EXPORT ORDINAL="35" NAME="??0LAnnNote@@QAE@I@Z" PURGE="4" COMMENT="" />
    <EXPORT ORDINAL="36" NAME="??0LAnnPointer@@QAE@AAPAX@Z" PURGE="4" COMMENT="" />
    <EXPORT ORDINAL="37" NAME="??0LAnnPointer@@QAE@ABV0@@Z" PURGE="4" COMMENT="" />
    <EXPORT ORDINAL="38" NAME="??0LAnnPointer@@QAE@I@Z" PURGE="4" COMMENT="" />
    <EXPORT ORDINAL="39" NAME="??0LAnnPolygon@@QAE@AAPAX@Z" PURGE="4" COMMENT="" />
    <EXPORT ORDINAL="40" NAME="??0LAnnPolygon@@QAE@ABV0@@Z" PURGE="4" COMMENT="" />
    <EXPORT ORDINAL="41" NAME="??0LAnnPolygon@@QAE@I@Z" PURGE="4" COMMENT="" />
    <EXPORT ORDINAL="42" NAME="??0LAnnPolyline@@QAE@AAPAX@Z" PURGE="4" COMMENT="" />
    <EXPORT ORDINAL="43" NAME="??0LAnnPolyline@@QAE@ABV0@@Z" PURGE="4" COMMENT="" />
    <EXPORT ORDINAL="44" NAME="??0LAnnPolyline@@QAE@I@Z" PURGE="4" COMMENT="" />
    <EXPORT ORDINAL="45" NAME="??0LAnnRectangle@@QAE@AAPAX@Z" PURGE="4" COMMENT="" />
    <EXPORT ORDINAL="46" NAME="??0LAnnRectangle@@QAE@ABV0@@Z" PURGE="4" COMMENT="" />
    <EXPORT ORDINAL="47" NAME="??0LAnnRectangle@@QAE@I@Z" PURGE="4" COMMENT="" />
    <EXPORT ORDINAL="48" NAME="??0LAnnRedact@@QAE@AAPAX@Z" PURGE="4" COMMENT="" />
    <EXPORT ORDINAL="49" NAME="??0LAnnRedact@@QAE@ABV0@@Z" PURGE="4" COMMENT="" />
    <EXPORT ORDINAL="50" NAME="??0LAnnRedact@@QAE@I@Z" PURGE="4" COMMENT="" />
    <EXPORT ORDINAL="51" NAME="??0LAnnRuler@@QAE@AAPAX@Z" PURGE="4" COMMENT="" />
    <EXPORT ORDINAL="52" NAME="??0LAnnRuler@@QAE@ABV0@@Z" PURGE="4" COMMENT="" />
    <EXPORT ORDINAL="53" NAME="??0LAnnRuler@@QAE@I@Z" PURGE="4" COMMENT="" />
    <EXPORT ORDINAL="54" NAME="??0LAnnStamp@@QAE@AAPAX@Z" PURGE="4" COMMENT="" />
    <EXPORT ORDINAL="55" NAME="??0LAnnStamp@@QAE@ABV0@@Z" PURGE="4" COMMENT="" />
    <EXPORT ORDINAL="56" NAME="??0LAnnStamp@@QAE@I@Z" PURGE="4" COMMENT="" />
    <EXPORT ORDINAL="57" NAME="??0LAnnText@@QAE@AAPAX@Z" PURGE="4" COMMENT="" />
    <EXPORT ORDINAL="58" NAME="??0LAnnText@@QAE@ABV0@@Z" PURGE="4" COMMENT="" />
    <EXPORT ORDINAL="59" NAME="??0LAnnText@@QAE@I@Z" PURGE="4" COMMENT="" />
    <EXPORT ORDINAL="60" NAME="??0LAnnToolBar@@QAE@ABV0@@Z" PURGE="4" COMMENT="" />
    <EXPORT ORDINAL="61" NAME="??0LAnnToolBar@@QAE@XZ" PURGE="0" COMMENT="" />
    <EXPORT ORDINAL="62" NAME="??0LAnnotation@@QAE@ABV0@@Z" PURGE="4" COMMENT="" />
    <EXPORT ORDINAL="63" NAME="??0LAnnotation@@QAE@XZ" PURGE="0" COMMENT="" />
    <EXPORT ORDINAL="64" NAME="??0LAnnotationWindow@@QAE@AAV0@@Z" PURGE="4" COMMENT="" />
    <EXPORT ORDINAL="65" NAME="??0LAnnotationWindow@@QAE@PAUHWND__@@HKHHHH@Z" PURGE="28" COMMENT="" />
    <EXPORT ORDINAL="66" NAME="??0LAnnotationWindow@@QAE@XZ" PURGE="0" COMMENT="" />
    <EXPORT ORDINAL="67" NAME="??0LBase@@QAE@ABV0@@Z" PURGE="4" COMMENT="" />
    <EXPORT ORDINAL="68" NAME="??0LBase@@QAE@XZ" PURGE="0" COMMENT="" />
    <EXPORT ORDINAL="69" NAME="??0LBaseFile@@QAE@ABV0@@Z" PURGE="4" COMMENT="" />
    <EXPORT ORDINAL="70" NAME="??0LBaseFile@@QAE@XZ" PURGE="0" COMMENT="" />
    <EXPORT ORDINAL="71" NAME="??0LBitmap@@QAE@ABV0@@Z" PURGE="4" COMMENT="" />
    <EXPORT ORDINAL="72" NAME="??0LBitmap@@QAE@IIIIPAUtagRGBQUAD@@IKI@Z" PURGE="32" COMMENT="" />
    <EXPORT ORDINAL="73" NAME="??0LBitmap@@QAE@PAUHDC__@@PAUHBITMAP__@@PAUHPALETTE__@@@Z" PURGE="12" COMMENT="" />
    <EXPORT ORDINAL="74" NAME="??0LBitmap@@QAE@PAUstruct_LEAD_Bitmap@@@Z" PURGE="4" COMMENT="" />
    <EXPORT ORDINAL="75" NAME="??0LBitmap@@QAE@PAUtagBITMAPINFO@@PAE@Z" PURGE="8" COMMENT="" />
    <EXPORT ORDINAL="76" NAME="??0LBitmap@@QAE@XZ" PURGE="0" COMMENT="" />
    <EXPORT ORDINAL="77" NAME="??0LBitmapBase@@QAE@ABV0@@Z" PURGE="4" COMMENT="" />
    <EXPORT ORDINAL="78" NAME="??0LBitmapBase@@QAE@IIIIPAUtagRGBQUAD@@IKI@Z" PURGE="32" COMMENT="" />
    <EXPORT ORDINAL="79" NAME="??0LBitmapBase@@QAE@PAUHDC__@@PAUHBITMAP__@@PAUHPALETTE__@@@Z" PURGE="12" COMMENT="" />
    <EXPORT ORDINAL="80" NAME="??0LBitmapBase@@QAE@PAUstruct_LEAD_Bitmap@@@Z" PURGE="4" COMMENT="" />
    <EXPORT ORDINAL="81" NAME="??0LBitmapBase@@QAE@PAUtagBITMAPINFO@@PAE@Z" PURGE="8" COMMENT="" />
    <EXPORT ORDINAL="82" NAME="??0LBitmapBase@@QAE@XZ" PURGE="0" COMMENT="" />
    <EXPORT ORDINAL="83" NAME="??0LBitmapDictionary@@QAE@ABV0@@Z" PURGE="4" COMMENT="" />
    <EXPORT ORDINAL="84" NAME="??0LBitmapDictionary@@QAE@XZ" PURGE="0" COMMENT="" />
    <EXPORT ORDINAL="85" NAME="??0LBitmapList@@QAE@ABV0@@Z" PURGE="4" COMMENT="" />
    <EXPORT ORDINAL="86" NAME="??0LBitmapList@@QAE@PAV0@@Z" PURGE="4" COMMENT="" />
    <EXPORT ORDINAL="87" NAME="??0LBitmapList@@QAE@XZ" PURGE="0" COMMENT="" />
    <EXPORT ORDINAL="88" NAME="??0LBitmapRgn@@QAE@ABV0@@Z" PURGE="4" COMMENT="" />
    <EXPORT ORDINAL="89" NAME="??0LBitmapRgn@@QAE@PAVLBitmapBase@@I@Z" PURGE="8" COMMENT="" />
    <EXPORT ORDINAL="90" NAME="??0LBitmapRgn@@QAE@XZ" PURGE="0" COMMENT="" />
    <EXPORT ORDINAL="91" NAME="??0LBitmapSettings@@QAE@ABV0@@Z" PURGE="4" COMMENT="" />
    <EXPORT ORDINAL="92" NAME="??0LBitmapSettings@@QAE@XZ" PURGE="0" COMMENT="" />
    <EXPORT ORDINAL="93" NAME="??0LBitmapWindow@@QAE@AAV0@@Z" PURGE="4" COMMENT="" />
    <EXPORT ORDINAL="94" NAME="??0LBitmapWindow@@QAE@PAUHWND__@@HKHHHH@Z" PURGE="28" COMMENT="" />
    <EXPORT ORDINAL="95" NAME="??0LBitmapWindow@@QAE@XZ" PURGE="0" COMMENT="" />
    <EXPORT ORDINAL="96" NAME="??0LBuffer@@QAE@AAV0@@Z" PURGE="4" COMMENT="" />
    <EXPORT ORDINAL="97" NAME="??0LBuffer@@QAE@K@Z" PURGE="4" COMMENT="" />
    <EXPORT ORDINAL="98" NAME="??0LBuffer@@QAE@PAD@Z" PURGE="4" COMMENT="" />
    <EXPORT ORDINAL="99" NAME="??0LBuffer@@QAE@PAXK@Z" PURGE="8" COMMENT="" />
    <EXPORT ORDINAL="100" NAME="??0LBuffer@@QAE@XZ" PURGE="0" COMMENT="" />
    <EXPORT ORDINAL="101" NAME="??0LChange@@QAE@ABV0@@Z" PURGE="4" COMMENT="" />
    <EXPORT ORDINAL="102" NAME="??0LChange@@QAE@XZ" PURGE="0" COMMENT="" />
    <EXPORT ORDINAL="103" NAME="??0LDialog@@QAE@ABV0@@Z" PURGE="4" COMMENT="" />
    <EXPORT ORDINAL="104" NAME="??0LDialog@@QAE@PAVLBitmapBase@@@Z" PURGE="4" COMMENT="" />
    <EXPORT ORDINAL="105" NAME="??0LDialog@@QAE@XZ" PURGE="0" COMMENT="" />
    <EXPORT ORDINAL="106" NAME="??0LDictionary@@QAE@ABV0@@Z" PURGE="4" COMMENT="" />
    <EXPORT ORDINAL="107" NAME="??0LDictionary@@QAE@XZ" PURGE="0" COMMENT="" />
    <EXPORT ORDINAL="108" NAME="??0LDraw@@QAE@ABV0@@Z" PURGE="4" COMMENT="" />
    <EXPORT ORDINAL="109" NAME="??0LDraw@@QAE@XZ" PURGE="0" COMMENT="" />
    <EXPORT ORDINAL="110" NAME="??0LFile@@QAE@ABV0@@Z" PURGE="4" COMMENT="" />
    <EXPORT ORDINAL="111" NAME="??0LFile@@QAE@PAVLBitmapBase@@@Z" PURGE="4" COMMENT="" />
    <EXPORT ORDINAL="112" NAME="??0LFile@@QAE@PAVLBitmapBase@@PAD@Z" PURGE="8" COMMENT="" />
    <EXPORT ORDINAL="113" NAME="??0LFile@@QAE@XZ" PURGE="0" COMMENT="" />
    <EXPORT ORDINAL="114" NAME="??0LFileSettings@@QAE@ABV0@@Z" PURGE="4" COMMENT="" />
    <EXPORT ORDINAL="115" NAME="??0LFileSettings@@QAE@XZ" PURGE="0" COMMENT="" />
    <EXPORT ORDINAL="116" NAME="??0LInet@@QAE@ABV0@@Z" PURGE="4" COMMENT="" />
    <EXPORT ORDINAL="117" NAME="??0LInet@@QAE@I@Z" PURGE="4" COMMENT="" />
    <EXPORT ORDINAL="118" NAME="??0LInet@@QAE@XZ" PURGE="0" COMMENT="" />
    <EXPORT ORDINAL="119" NAME="??0LInetClient@@QAE@ABV0@@Z" PURGE="4" COMMENT="" />
    <EXPORT ORDINAL="120" NAME="??0LInetClient@@QAE@I@Z" PURGE="4" COMMENT="" />
    <EXPORT ORDINAL="121" NAME="??0LInetClient@@QAE@PADH@Z" PURGE="8" COMMENT="" />
    <EXPORT ORDINAL="122" NAME="??0LInetClient@@QAE@XZ" PURGE="0" COMMENT="" />
    <EXPORT ORDINAL="123" NAME="??0LInetServer@@QAE@ABV0@@Z" PURGE="4" COMMENT="" />
    <EXPORT ORDINAL="124" NAME="??0LInetServer@@QAE@H@Z" PURGE="4" COMMENT="" />
    <EXPORT ORDINAL="125" NAME="??0LInetServer@@QAE@I@Z" PURGE="4" COMMENT="" />
    <EXPORT ORDINAL="126" NAME="??0LInetServer@@QAE@XZ" PURGE="0" COMMENT="" />
    <EXPORT ORDINAL="127" NAME="??0LIsis@@QAE@ABV0@@Z" PURGE="4" COMMENT="" />
    <EXPORT ORDINAL="128" NAME="??0LIsis@@QAE@PAUHWND__@@PAVLBitmapBase@@@Z" PURGE="8" COMMENT="" />
    <EXPORT ORDINAL="129" NAME="??0LIsis@@QAE@XZ" PURGE="0" COMMENT="" />
    <EXPORT ORDINAL="130" NAME="??0LMMCapture@@QAE@ABV0@@Z" PURGE="4" COMMENT="" />
    <EXPORT ORDINAL="131" NAME="??0LMMCapture@@QAE@PAUHWND__@@HPADKHHHH@Z" PURGE="32" COMMENT="" />
    <EXPORT ORDINAL="132" NAME="??0LMMCapture@@QAE@XZ" PURGE="0" COMMENT="" />
    <EXPORT ORDINAL="133" NAME="??0LMemoryFile@@QAE@AAV0@@Z" PURGE="4" COMMENT="" />
    <EXPORT ORDINAL="134" NAME="??0LMemoryFile@@QAE@PAVLBitmapBase@@@Z" PURGE="4" COMMENT="" />
    <EXPORT ORDINAL="135" NAME="??0LMemoryFile@@QAE@XZ" PURGE="0" COMMENT="" />
    <EXPORT ORDINAL="136" NAME="??0LMultimedia@@QAE@ABV0@@Z" PURGE="4" COMMENT="" />
    <EXPORT ORDINAL="137" NAME="??0LMultimedia@@QAE@PAUtagMEDIAHANDLE@@@Z" PURGE="4" COMMENT="" />
    <EXPORT ORDINAL="138" NAME="??0LMultimedia@@QAE@XZ" PURGE="0" COMMENT="" />
    <EXPORT ORDINAL="139" NAME="??0LPaint@@QAE@ABV0@@Z" PURGE="4" COMMENT="" />
    <EXPORT ORDINAL="140" NAME="??0LPaint@@QAE@PAVLBitmapBase@@PAUHDC__@@@Z" PURGE="8" COMMENT="" />
    <EXPORT ORDINAL="141" NAME="??0LPaint@@QAE@XZ" PURGE="0" COMMENT="" />
    <EXPORT ORDINAL="142" NAME="??0LPaintEffect@@QAE@ABV0@@Z" PURGE="4" COMMENT="" />
    <EXPORT ORDINAL="143" NAME="??0LPaintEffect@@QAE@PAU_EFXDLGPARM@@@Z" PURGE="4" COMMENT="" />
    <EXPORT ORDINAL="144" NAME="??0LPaintEffect@@QAE@PAU_GRADDLGPARM@@@Z" PURGE="4" COMMENT="" />
    <EXPORT ORDINAL="145" NAME="??0LPaintEffect@@QAE@PAU_SHAPEDLGPARM@@@Z" PURGE="4" COMMENT="" />
    <EXPORT ORDINAL="146" NAME="??0LPaintEffect@@QAE@PAU_TEXTDLGPARM@@@Z" PURGE="4" COMMENT="" />
    <EXPORT ORDINAL="147" NAME="??0LPaintEffect@@QAE@PAU_TRANSDLGPARM@@@Z" PURGE="4" COMMENT="" />
    <EXPORT ORDINAL="148" NAME="??0LPaintEffect@@QAE@XZ" PURGE="0" COMMENT="" />
    <EXPORT ORDINAL="149" NAME="??0LPlayBack@@QAE@ABV0@@Z" PURGE="4" COMMENT="" />
    <EXPORT ORDINAL="150" NAME="??0LPlayBack@@QAE@XZ" PURGE="0" COMMENT="" />
    <EXPORT ORDINAL="151" NAME="??0LPrint@@QAE@ABV0@@Z" PURGE="4" COMMENT="" />
    <EXPORT ORDINAL="152" NAME="??0LPrint@@QAE@PAVLBitmapBase@@@Z" PURGE="4" COMMENT="" />
    <EXPORT ORDINAL="153" NAME="??0LPrint@@QAE@XZ" PURGE="0" COMMENT="" />
    <EXPORT ORDINAL="154" NAME="??0LScanner@@QAE@ABV0@@Z" PURGE="4" COMMENT="" />
    <EXPORT ORDINAL="155" NAME="??0LScanner@@QAE@XZ" PURGE="0" COMMENT="" />
    <EXPORT ORDINAL="156" NAME="??0LScreenCapture@@QAE@ABV0@@Z" PURGE="4" COMMENT="" />
    <EXPORT ORDINAL="157" NAME="??0LScreenCapture@@QAE@PAV0@@Z" PURGE="4" COMMENT="" />
    <EXPORT ORDINAL="158" NAME="??0LScreenCapture@@QAE@PAVLBitmapBase@@@Z" PURGE="4" COMMENT="" />
    <EXPORT ORDINAL="159" NAME="??0LScreenCapture@@QAE@XZ" PURGE="0" COMMENT="" />
    <EXPORT ORDINAL="160" NAME="??0LSettings@@QAE@ABV0@@Z" PURGE="4" COMMENT="" />
    <EXPORT ORDINAL="161" NAME="??0LSettings@@QAE@XZ" PURGE="0" COMMENT="" />
    <EXPORT ORDINAL="162" NAME="??0LTwain@@QAE@ABV0@@Z" PURGE="4" COMMENT="" />
    <EXPORT ORDINAL="163" NAME="??0LTwain@@QAE@PAUHWND__@@PAVLBitmapBase@@@Z" PURGE="8" COMMENT="" />
    <EXPORT ORDINAL="164" NAME="??0LTwain@@QAE@XZ" PURGE="0" COMMENT="" />
    <EXPORT ORDINAL="165" NAME="??1LAnimationWindow@@UAE@XZ" PURGE="0" COMMENT="" />
    <EXPORT ORDINAL="166" NAME="??1LAnnAudioClip@@UAE@XZ" PURGE="0" COMMENT="" />
    <EXPORT ORDINAL="167" NAME="??1LAnnAutomation@@UAE@XZ" PURGE="0" COMMENT="" />
    <EXPORT ORDINAL="168" NAME="??1LAnnButton@@UAE@XZ" PURGE="0" COMMENT="" />
    <EXPORT ORDINAL="169" NAME="??1LAnnContainer@@UAE@XZ" PURGE="0" COMMENT="" />
    <EXPORT ORDINAL="170" NAME="??1LAnnEllipse@@UAE@XZ" PURGE="0" COMMENT="" />
    <EXPORT ORDINAL="171" NAME="??1LAnnFreehand@@UAE@XZ" PURGE="0" COMMENT="" />
    <EXPORT ORDINAL="172" NAME="??1LAnnHilite@@UAE@XZ" PURGE="0" COMMENT="" />
    <EXPORT ORDINAL="173" NAME="??1LAnnHotSpot@@UAE@XZ" PURGE="0" COMMENT="" />
    <EXPORT ORDINAL="174" NAME="??1LAnnLine@@UAE@XZ" PURGE="0" COMMENT="" />
    <EXPORT ORDINAL="175" NAME="??1LAnnNote@@UAE@XZ" PURGE="0" COMMENT="" />
    <EXPORT ORDINAL="176" NAME="??1LAnnPointer@@UAE@XZ" PURGE="0" COMMENT="" />
    <EXPORT ORDINAL="177" NAME="??1LAnnPolygon@@UAE@XZ" PURGE="0" COMMENT="" />
    <EXPORT ORDINAL="178" NAME="??1LAnnPolyline@@UAE@XZ" PURGE="0" COMMENT="" />
    <EXPORT ORDINAL="179" NAME="??1LAnnRectangle@@UAE@XZ" PURGE="0" COMMENT="" />
    <EXPORT ORDINAL="180" NAME="??1LAnnRedact@@UAE@XZ" PURGE="0" COMMENT="" />
    <EXPORT ORDINAL="181" NAME="??1LAnnRuler@@UAE@XZ" PURGE="0" COMMENT="" />
    <EXPORT ORDINAL="182" NAME="??1LAnnStamp@@UAE@XZ" PURGE="0" COMMENT="" />
    <EXPORT ORDINAL="183" NAME="??1LAnnText@@UAE@XZ" PURGE="0" COMMENT="" />
    <EXPORT ORDINAL="184" NAME="??1LAnnToolBar@@UAE@XZ" PURGE="0" COMMENT="" />
    <EXPORT ORDINAL="185" NAME="??1LAnnotation@@UAE@XZ" PURGE="0" COMMENT="" />
    <EXPORT ORDINAL="186" NAME="??1LAnnotationWindow@@UAE@XZ" PURGE="0" COMMENT="" />
    <EXPORT ORDINAL="187" NAME="??1LBase@@QAE@XZ" PURGE="0" COMMENT="" />
    <EXPORT ORDINAL="188" NAME="??1LBaseFile@@UAE@XZ" PURGE="0" COMMENT="" />
    <EXPORT ORDINAL="189" NAME="??1LBitmap@@UAE@XZ" PURGE="0" COMMENT="" />
    <EXPORT ORDINAL="190" NAME="??1LBitmapBase@@UAE@XZ" PURGE="0" COMMENT="" />
    <EXPORT ORDINAL="191" NAME="??1LBitmapDictionary@@UAE@XZ" PURGE="0" COMMENT="" />
    <EXPORT ORDINAL="192" NAME="??1LBitmapList@@UAE@XZ" PURGE="0" COMMENT="" />
    <EXPORT ORDINAL="193" NAME="??1LBitmapRgn@@UAE@XZ" PURGE="0" COMMENT="" />
    <EXPORT ORDINAL="194" NAME="??1LBitmapSettings@@UAE@XZ" PURGE="0" COMMENT="" />
    <EXPORT ORDINAL="195" NAME="??1LBitmapWindow@@UAE@XZ" PURGE="0" COMMENT="" />
    <EXPORT ORDINAL="196" NAME="??1LBuffer@@UAE@XZ" PURGE="0" COMMENT="" />
    <EXPORT ORDINAL="197" NAME="??1LChange@@UAE@XZ" PURGE="0" COMMENT="" />
    <EXPORT ORDINAL="198" NAME="??1LDialog@@UAE@XZ" PURGE="0" COMMENT="" />
    <EXPORT ORDINAL="199" NAME="??1LDictionary@@UAE@XZ" PURGE="0" COMMENT="" />
    <EXPORT ORDINAL="200" NAME="??1LDraw@@UAE@XZ" PURGE="0" COMMENT="" />
    <EXPORT ORDINAL="201" NAME="??1LFile@@UAE@XZ" PURGE="0" COMMENT="" />
    <EXPORT ORDINAL="202" NAME="??1LFileSettings@@UAE@XZ" PURGE="0" COMMENT="" />
    <EXPORT ORDINAL="203" NAME="??1LInet@@UAE@XZ" PURGE="0" COMMENT="" />
    <EXPORT ORDINAL="204" NAME="??1LInetClient@@UAE@XZ" PURGE="0" COMMENT="" />
    <EXPORT ORDINAL="205" NAME="??1LInetServer@@UAE@XZ" PURGE="0" COMMENT="" />
    <EXPORT ORDINAL="206" NAME="??1LIsis@@UAE@XZ" PURGE="0" COMMENT="" />
    <EXPORT ORDINAL="207" NAME="??1LMMCapture@@UAE@XZ" PURGE="0" COMMENT="" />
    <EXPORT ORDINAL="208" NAME="??1LMemoryFile@@UAE@XZ" PURGE="0" COMMENT="" />
    <EXPORT ORDINAL="209" NAME="??1LMultimedia@@UAE@XZ" PURGE="0" COMMENT="" />
    <EXPORT ORDINAL="210" NAME="??1LPaint@@UAE@XZ" PURGE="0" COMMENT="" />
    <EXPORT ORDINAL="211" NAME="??1LPaintEffect@@UAE@XZ" PURGE="0" COMMENT="" />
    <EXPORT ORDINAL="212" NAME="??1LPlayBack@@UAE@XZ" PURGE="0" COMMENT="" />
    <EXPORT ORDINAL="213" NAME="??1LPrint@@UAE@XZ" PURGE="0" COMMENT="" />
    <EXPORT ORDINAL="214" NAME="??1LScanner@@UAE@XZ" PURGE="0" COMMENT="" />
    <EXPORT ORDINAL="215" NAME="??1LScreenCapture@@UAE@XZ" PURGE="0" COMMENT="" />
    <EXPORT ORDINAL="216" NAME="??1LSettings@@UAE@XZ" PURGE="0" COMMENT="" />
    <EXPORT ORDINAL="217" NAME="??1LTwain@@UAE@XZ" PURGE="0" COMMENT="" />
    <EXPORT ORDINAL="218" NAME="??4LAnimationWindow@@QAEAAV0@AAV0@@Z" PURGE="4" COMMENT="" />
    <EXPORT ORDINAL="219" NAME="??4LAnnAudioClip@@QAEAAV0@AAV0@@Z" PURGE="4" COMMENT="" />
    <EXPORT ORDINAL="220" NAME="??4LAnnAutomation@@QAEAAV0@AAV0@@Z" PURGE="4" COMMENT="" />
    <EXPORT ORDINAL="221" NAME="??4LAnnButton@@QAEAAV0@AAV0@@Z" PURGE="4" COMMENT="" />
    <EXPORT ORDINAL="222" NAME="??4LAnnContainer@@QAEAAV0@AAV0@@Z" PURGE="4" COMMENT="" />
    <EXPORT ORDINAL="223" NAME="??4LAnnEllipse@@QAEAAV0@AAV0@@Z" PURGE="4" COMMENT="" />
    <EXPORT ORDINAL="224" NAME="??4LAnnFreehand@@QAEAAV0@AAV0@@Z" PURGE="4" COMMENT="" />
    <EXPORT ORDINAL="225" NAME="??4LAnnHilite@@QAEAAV0@AAV0@@Z" PURGE="4" COMMENT="" />
    <EXPORT ORDINAL="226" NAME="??4LAnnHotSpot@@QAEAAV0@AAV0@@Z" PURGE="4" COMMENT="" />
    <EXPORT ORDINAL="227" NAME="??4LAnnLine@@QAEAAV0@AAV0@@Z" PURGE="4" COMMENT="" />
    <EXPORT ORDINAL="228" NAME="??4LAnnNote@@QAEAAV0@AAV0@@Z" PURGE="4" COMMENT="" />
    <EXPORT ORDINAL="229" NAME="??4LAnnPointer@@QAEAAV0@AAV0@@Z" PURGE="4" COMMENT="" />
    <EXPORT ORDINAL="230" NAME="??4LAnnPolygon@@QAEAAV0@AAV0@@Z" PURGE="4" COMMENT="" />
    <EXPORT ORDINAL="231" NAME="??4LAnnPolyline@@QAEAAV0@AAV0@@Z" PURGE="4" COMMENT="" />
    <EXPORT ORDINAL="232" NAME="??4LAnnRectangle@@QAEAAV0@AAV0@@Z" PURGE="4" COMMENT="" />
    <EXPORT ORDINAL="233" NAME="??4LAnnRedact@@QAEAAV0@AAV0@@Z" PURGE="4" COMMENT="" />
    <EXPORT ORDINAL="234" NAME="??4LAnnRuler@@QAEAAV0@AAV0@@Z" PURGE="4" COMMENT="" />
    <EXPORT ORDINAL="235" NAME="??4LAnnStamp@@QAEAAV0@AAV0@@Z" PURGE="4" COMMENT="" />
    <EXPORT ORDINAL="236" NAME="??4LAnnText@@QAEAAV0@AAV0@@Z" PURGE="4" COMMENT="" />
    <EXPORT ORDINAL="237" NAME="??4LAnnToolBar@@QAEAAV0@ABV0@@Z" PURGE="4" COMMENT="" />
    <EXPORT ORDINAL="238" NAME="??4LAnnotation@@QAEAAV0@AAV0@@Z" PURGE="4" COMMENT="" />
    <EXPORT ORDINAL="239" NAME="??4LAnnotationWindow@@QAEAAV0@AAV0@@Z" PURGE="4" COMMENT="" />
    <EXPORT ORDINAL="240" NAME="??4LBase@@QAEAAV0@ABV0@@Z" PURGE="4" COMMENT="" />
    <EXPORT ORDINAL="241" NAME="??4LBaseFile@@QAEAAV0@ABV0@@Z" PURGE="4" COMMENT="" />
    <EXPORT ORDINAL="242" NAME="??4LBitmap@@QAEAAV0@AAV0@@Z" PURGE="4" COMMENT="" />
    <EXPORT ORDINAL="243" NAME="??4LBitmapBase@@QAEAAV0@AAV0@@Z" PURGE="4" COMMENT="" />
    <EXPORT ORDINAL="244" NAME="??4LBitmapDictionary@@QAEAAV0@ABV0@@Z" PURGE="4" COMMENT="" />
    <EXPORT ORDINAL="245" NAME="??4LBitmapList@@QAEAAV0@AAV0@@Z" PURGE="4" COMMENT="" />
    <EXPORT ORDINAL="246" NAME="??4LBitmapRgn@@QAEAAV0@ABV0@@Z" PURGE="4" COMMENT="" />
    <EXPORT ORDINAL="247" NAME="??4LBitmapSettings@@QAEAAV0@ABV0@@Z" PURGE="4" COMMENT="" />
    <EXPORT ORDINAL="248" NAME="??4LBitmapWindow@@QAEAAV0@AAV0@@Z" PURGE="4" COMMENT="" />
    <EXPORT ORDINAL="249" NAME="??4LBuffer@@QAEAAV0@AAV0@@Z" PURGE="4" COMMENT="" />
    <EXPORT ORDINAL="250" NAME="??4LBuffer@@QAEAAV0@PAD@Z" PURGE="4" COMMENT="" />
    <EXPORT ORDINAL="251" NAME="??4LChange@@QAEAAV0@ABV0@@Z" PURGE="4" COMMENT="" />
    <EXPORT ORDINAL="252" NAME="??4LDialog@@QAEAAV0@ABV0@@Z" PURGE="4" COMMENT="" />
    <EXPORT ORDINAL="253" NAME="??4LDictionary@@QAEAAV0@ABV0@@Z" PURGE="4" COMMENT="" />
    <EXPORT ORDINAL="254" NAME="??4LDraw@@QAEAAV0@ABV0@@Z" PURGE="4" COMMENT="" />
    <EXPORT ORDINAL="255" NAME="??4LFile@@QAEAAV0@AAV0@@Z" PURGE="4" COMMENT="" />
    <EXPORT ORDINAL="256" NAME="??4LFileSettings@@QAEAAV0@ABV0@@Z" PURGE="4" COMMENT="" />
    <EXPORT ORDINAL="257" NAME="??4LInet@@QAEAAV0@ABV0@@Z" PURGE="4" COMMENT="" />
    <EXPORT ORDINAL="258" NAME="??4LInetClient@@QAEAAV0@ABV0@@Z" PURGE="4" COMMENT="" />
    <EXPORT ORDINAL="259" NAME="??4LInetServer@@QAEAAV0@ABV0@@Z" PURGE="4" COMMENT="" />
    <EXPORT ORDINAL="260" NAME="??4LIsis@@QAEAAV0@ABV0@@Z" PURGE="4" COMMENT="" />
    <EXPORT ORDINAL="261" NAME="??4LMMCapture@@QAEAAV0@ABV0@@Z" PURGE="4" COMMENT="" />
    <EXPORT ORDINAL="262" NAME="??4LMemoryFile@@QAEAAV0@AAV0@@Z" PURGE="4" COMMENT="" />
    <EXPORT ORDINAL="263" NAME="??4LMultimedia@@QAEAAV0@ABV0@@Z" PURGE="4" COMMENT="" />
    <EXPORT ORDINAL="264" NAME="??4LPaint@@QAEAAV0@ABV0@@Z" PURGE="4" COMMENT="" />
    <EXPORT ORDINAL="265" NAME="??4LPaintEffect@@QAEAAV0@ABV0@@Z" PURGE="4" COMMENT="" />
    <EXPORT ORDINAL="266" NAME="??4LPlayBack@@QAEAAV0@ABV0@@Z" PURGE="4" COMMENT="" />
    <EXPORT ORDINAL="267" NAME="??4LPrint@@QAEAAV0@ABV0@@Z" PURGE="4" COMMENT="" />
    <EXPORT ORDINAL="268" NAME="??4LScanner@@QAEAAV0@ABV0@@Z" PURGE="4" COMMENT="" />
    <EXPORT ORDINAL="269" NAME="??4LScreenCapture@@QAEAAV0@ABV0@@Z" PURGE="4" COMMENT="" />
    <EXPORT ORDINAL="270" NAME="??4LSettings@@QAEAAV0@ABV0@@Z" PURGE="4" COMMENT="" />
    <EXPORT ORDINAL="271" NAME="??4LTwain@@QAEAAV0@ABV0@@Z" PURGE="4" COMMENT="" />
    <EXPORT ORDINAL="272" NAME="??ALBitmapList@@QAEAAVLBitmapBase@@I@Z" PURGE="4" COMMENT="" />
    <EXPORT ORDINAL="273" NAME="??_7LAnimationWindow@@6B@" PURGE="-1" COMMENT="" />
    <EXPORT ORDINAL="274" NAME="??_7LAnnAudioClip@@6B@" PURGE="-1" COMMENT="" />
    <EXPORT ORDINAL="275" NAME="??_7LAnnAutomation@@6B@" PURGE="-1" COMMENT="" />
    <EXPORT ORDINAL="276" NAME="??_7LAnnButton@@6B@" PURGE="-1" COMMENT="" />
    <EXPORT ORDINAL="277" NAME="??_7LAnnContainer@@6B@" PURGE="-1" COMMENT="" />
    <EXPORT ORDINAL="278" NAME="??_7LAnnEllipse@@6B@" PURGE="-1" COMMENT="" />
    <EXPORT ORDINAL="279" NAME="??_7LAnnFreehand@@6B@" PURGE="-1" COMMENT="" />
    <EXPORT ORDINAL="280" NAME="??_7LAnnHilite@@6B@" PURGE="-1" COMMENT="" />
    <EXPORT ORDINAL="281" NAME="??_7LAnnHotSpot@@6B@" PURGE="-1" COMMENT="" />
    <EXPORT ORDINAL="282" NAME="??_7LAnnLine@@6B@" PURGE="-1" COMMENT="" />
    <EXPORT ORDINAL="283" NAME="??_7LAnnNote@@6B@" PURGE="-1" COMMENT="" />
    <EXPORT ORDINAL="284" NAME="??_7LAnnPointer@@6B@" PURGE="-1" COMMENT="" />
    <EXPORT ORDINAL="285" NAME="??_7LAnnPolygon@@6B@" PURGE="-1" COMMENT="" />
    <EXPORT ORDINAL="286" NAME="??_7LAnnPolyline@@6B@" PURGE="-1" COMMENT="" />
    <EXPORT ORDINAL="287" NAME="??_7LAnnRectangle@@6B@" PURGE="-1" COMMENT="" />
    <EXPORT ORDINAL="288" NAME="??_7LAnnRedact@@6B@" PURGE="-1" COMMENT="" />
    <EXPORT ORDINAL="289" NAME="??_7LAnnRuler@@6B@" PURGE="-1" COMMENT="" />
    <EXPORT ORDINAL="290" NAME="??_7LAnnStamp@@6B@" PURGE="-1" COMMENT="" />
    <EXPORT ORDINAL="291" NAME="??_7LAnnText@@6B@" PURGE="-1" COMMENT="" />
    <EXPORT ORDINAL="292" NAME="??_7LAnnToolBar@@6B@" PURGE="-1" COMMENT="" />
    <EXPORT ORDINAL="293" NAME="??_7LAnnotation@@6B@" PURGE="-1" COMMENT="" />
    <EXPORT ORDINAL="294" NAME="??_7LAnnotationWindow@@6B@" PURGE="-1" COMMENT="" />
    <EXPORT ORDINAL="295" NAME="??_7LBase@@6B@" PURGE="-1" COMMENT="" />
    <EXPORT ORDINAL="296" NAME="??_7LBaseFile@@6B@" PURGE="-1" COMMENT="" />
    <EXPORT ORDINAL="297" NAME="??_7LBitmap@@6B@" PURGE="-1" COMMENT="" />
    <EXPORT ORDINAL="298" NAME="??_7LBitmapBase@@6B@" PURGE="-1" COMMENT="" />
    <EXPORT ORDINAL="299" NAME="??_7LBitmapDictionary@@6B@" PURGE="-1" COMMENT="" />
    <EXPORT ORDINAL="300" NAME="??_7LBitmapList@@6B@" PURGE="-1" COMMENT="" />
    <EXPORT ORDINAL="301" NAME="??_7LBitmapRgn@@6B@" PURGE="-1" COMMENT="" />
    <EXPORT ORDINAL="302" NAME="??_7LBitmapSettings@@6B@" PURGE="-1" COMMENT="" />
    <EXPORT ORDINAL="303" NAME="??_7LBitmapWindow@@6B@" PURGE="-1" COMMENT="" />
    <EXPORT ORDINAL="304" NAME="??_7LBuffer@@6B@" PURGE="-1" COMMENT="" />
    <EXPORT ORDINAL="305" NAME="??_7LChange@@6B@" PURGE="-1" COMMENT="" />
    <EXPORT ORDINAL="306" NAME="??_7LDialog@@6B@" PURGE="-1" COMMENT="" />
    <EXPORT ORDINAL="307" NAME="??_7LDictionary@@6B@" PURGE="-1" COMMENT="" />
    <EXPORT ORDINAL="308" NAME="??_7LDraw@@6B@" PURGE="-1" COMMENT="" />
    <EXPORT ORDINAL="309" NAME="??_7LFile@@6B@" PURGE="-1" COMMENT="" />
    <EXPORT ORDINAL="310" NAME="??_7LFileSettings@@6B@" PURGE="-1" COMMENT="" />
    <EXPORT ORDINAL="311" NAME="??_7LInet@@6B@" PURGE="-1" COMMENT="" />
    <EXPORT ORDINAL="312" NAME="??_7LInetClient@@6B@" PURGE="-1" COMMENT="" />
    <EXPORT ORDINAL="313" NAME="??_7LInetServer@@6B@" PURGE="-1" COMMENT="" />
    <EXPORT ORDINAL="314" NAME="??_7LIsis@@6B@" PURGE="-1" COMMENT="" />
    <EXPORT ORDINAL="315" NAME="??_7LMMCapture@@6B@" PURGE="-1" COMMENT="" />
    <EXPORT ORDINAL="316" NAME="??_7LMemoryFile@@6B@" PURGE="-1" COMMENT="" />
    <EXPORT ORDINAL="317" NAME="??_7LMultimedia@@6B@" PURGE="-1" COMMENT="" />
    <EXPORT ORDINAL="318" NAME="??_7LPaint@@6B@" PURGE="-1" COMMENT="" />
    <EXPORT ORDINAL="319" NAME="??_7LPaintEffect@@6B@" PURGE="-1" COMMENT="" />
    <EXPORT ORDINAL="320" NAME="??_7LPlayBack@@6B@" PURGE="-1" COMMENT="" />
    <EXPORT ORDINAL="321" NAME="??_7LPrint@@6B@" PURGE="-1" COMMENT="" />
    <EXPORT ORDINAL="322" NAME="??_7LScanner@@6B@" PURGE="-1" COMMENT="" />
    <EXPORT ORDINAL="323" NAME="??_7LScreenCapture@@6B@" PURGE="-1" COMMENT="" />
    <EXPORT ORDINAL="324" NAME="??_7LSettings@@6B@" PURGE="-1" COMMENT="" />
    <EXPORT ORDINAL="325" NAME="??_7LTwain@@6B@" PURGE="-1" COMMENT="" />
    <EXPORT ORDINAL="326" NAME="??_FLAnnAudioClip@@QAEXXZ" PURGE="0" COMMENT="" />
    <EXPORT ORDINAL="327" NAME="??_FLAnnAutomation@@QAEXXZ" PURGE="0" COMMENT="" />
    <EXPORT ORDINAL="328" NAME="??_FLAnnButton@@QAEXXZ" PURGE="0" COMMENT="" />
    <EXPORT ORDINAL="329" NAME="??_FLAnnEllipse@@QAEXXZ" PURGE="0" COMMENT="" />
    <EXPORT ORDINAL="330" NAME="??_FLAnnFreehand@@QAEXXZ" PURGE="0" COMMENT="" />
    <EXPORT ORDINAL="331" NAME="??_FLAnnHilite@@QAEXXZ" PURGE="0" COMMENT="" />
    <EXPORT ORDINAL="332" NAME="??_FLAnnHotSpot@@QAEXXZ" PURGE="0" COMMENT="" />
    <EXPORT ORDINAL="333" NAME="??_FLAnnLine@@QAEXXZ" PURGE="0" COMMENT="" />
    <EXPORT ORDINAL="334" NAME="??_FLAnnNote@@QAEXXZ" PURGE="0" COMMENT="" />
    <EXPORT ORDINAL="335" NAME="??_FLAnnPointer@@QAEXXZ" PURGE="0" COMMENT="" />
    <EXPORT ORDINAL="336" NAME="??_FLAnnPolygon@@QAEXXZ" PURGE="0" COMMENT="" />
    <EXPORT ORDINAL="337" NAME="??_FLAnnPolyline@@QAEXXZ" PURGE="0" COMMENT="" />
    <EXPORT ORDINAL="338" NAME="??_FLAnnRectangle@@QAEXXZ" PURGE="0" COMMENT="" />
    <EXPORT ORDINAL="339" NAME="??_FLAnnRedact@@QAEXXZ" PURGE="0" COMMENT="" />
    <EXPORT ORDINAL="340" NAME="??_FLAnnRuler@@QAEXXZ" PURGE="0" COMMENT="" />
    <EXPORT ORDINAL="341" NAME="??_FLAnnStamp@@QAEXXZ" PURGE="0" COMMENT="" />
    <EXPORT ORDINAL="342" NAME="??_FLAnnText@@QAEXXZ" PURGE="0" COMMENT="" />
    <EXPORT ORDINAL="343" NAME="?AcceptConnect@LInetServer@@UAEHPAVLInetClient@@@Z" PURGE="4" COMMENT="" />
    <EXPORT ORDINAL="344" NAME="?Access@LBitmapBase@@UAEHXZ" PURGE="0" COMMENT="" />
    <EXPORT ORDINAL="345" NAME="?Acquire@LIsis@@UAEHI@Z" PURGE="4" COMMENT="" />
    <EXPORT ORDINAL="346" NAME="?Acquire@LTwain@@UAEHI@Z" PURGE="4" COMMENT="" />
    <EXPORT ORDINAL="347" NAME="?AcquireCS@LTwain@@CAHPAUstruct_LEAD_Bitmap@@PAX@Z" PURGE="0" COMMENT="" />
    <EXPORT ORDINAL="348" NAME="?AcquireCallBack@LTwain@@MAEHXZ" PURGE="0" COMMENT="" />
    <EXPORT ORDINAL="349" NAME="?AcquireMulti@LIsis@@UAEHPADKHIPAH@Z" PURGE="20" COMMENT="" />
    <EXPORT ORDINAL="350" NAME="?AcquireMultiCS@LIsis@@SAHPAUstruct_LEAD_Bitmap@@JPADPAX@Z" PURGE="0" COMMENT="" />
    <EXPORT ORDINAL="351" NAME="?AcquireMultiCallBack@LIsis@@MAEHJPAD@Z" PURGE="8" COMMENT="" />
    <EXPORT ORDINAL="352" NAME="?AddItem@LDictionary@@QAEXPAX@Z" PURGE="4" COMMENT="" />
    <EXPORT ORDINAL="353" NAME="?AddItem@LInet@@QAEHPAV1@@Z" PURGE="4" COMMENT="" />
    <EXPORT ORDINAL="354" NAME="?AddNoise@LBitmap@@UAEHII@Z" PURGE="8" COMMENT="" />
    <EXPORT ORDINAL="355" NAME="?AddStream@LMultimedia@@UAEHIPAXPADH@Z" PURGE="16" COMMENT="" />
    <EXPORT ORDINAL="356" NAME="?AdjustScrollBars@LBitmapWindow@@AAEXXZ" PURGE="0" COMMENT="" />
    <EXPORT ORDINAL="357" NAME="?AdjustWin@LMultimedia@@UAEHHHHH@Z" PURGE="16" COMMENT="" />
    <EXPORT ORDINAL="358" NAME="?Allocate@LBitmapBase@@UAEHH@Z" PURGE="4" COMMENT="" />
    <EXPORT ORDINAL="359" NAME="?AnimateEvent@LAnimationWindow@@UAEXHH@Z" PURGE="8" COMMENT="" />
    <EXPORT ORDINAL="360" NAME="?AnimationTimer@LAnimationWindow@@AAEXXZ" PURGE="0" COMMENT="" />
    <EXPORT ORDINAL="361" NAME="?AnnLoad@LAnnotationWindow@@UAEHPAD@Z" PURGE="4" COMMENT="" />
    <EXPORT ORDINAL="362" NAME="?AnnPrint@LAnnotationWindow@@UAEHPAUHDC__@@HHII@Z" PURGE="20" COMMENT="" />
    <EXPORT ORDINAL="363" NAME="?AnnSave@LAnnotationWindow@@UAEHPADHI@Z" PURGE="12" COMMENT="" />
    <EXPORT ORDINAL="364" NAME="?Append@LPlayBack@@UAEHPAVLBitmapBase@@@Z" PURGE="4" COMMENT="" />
    <EXPORT ORDINAL="365" NAME="?AutoCloseConnection@LInet@@QAEII@Z" PURGE="4" COMMENT="" />
    <EXPORT ORDINAL="366" NAME="?AutoProcess@LInet@@UAEHI@Z" PURGE="4" COMMENT="" />
    <EXPORT ORDINAL="367" NAME="?AutoTrim@LBitmap@@UAEHH@Z" PURGE="4" COMMENT="" />
    <EXPORT ORDINAL="368" NAME="?AverageFilter@LBitmap@@UAEHI@Z" PURGE="4" COMMENT="" />
    <EXPORT ORDINAL="369" NAME="?BinaryFilter@LBitmap@@UAEHPAUtagBINARYFLT@@@Z" PURGE="4" COMMENT="" />
    <EXPORT ORDINAL="370" NAME="?BitmapDictionary@@3VLBitmapDictionary@@A" PURGE="-1" COMMENT="" />
    <EXPORT ORDINAL="371" NAME="?BitmapHasRgn@LBitmapRgn@@UAEIXZ" PURGE="0" COMMENT="" />
    <EXPORT ORDINAL="372" NAME="?BitmapWindowProcCS@LBitmapWindow@@CGJPAUHWND__@@IIJ@Z" PURGE="16" COMMENT="" />
    <EXPORT ORDINAL="373" NAME="?BitmapWindowProcCallBack@LBitmapWindow@@AAEJPAUHWND__@@IIJ@Z" PURGE="16" COMMENT="" />
    <EXPORT ORDINAL="374" NAME="?BringToFront@LAnnotation@@UAEHXZ" PURGE="0" COMMENT="" />
    <EXPORT ORDINAL="375" NAME="?CancelRgn@LBitmapWindow@@QAEXXZ" PURGE="0" COMMENT="" />
    <EXPORT ORDINAL="376" NAME="?CancelWait@LAnimationWindow@@QAEHXZ" PURGE="0" COMMENT="" />
    <EXPORT ORDINAL="377" NAME="?CancelWait@LPlayBack@@UAEHXZ" PURGE="0" COMMENT="" />
    <EXPORT ORDINAL="378" NAME="?CapAudDataCS@LMMCapture@@CAHPAUwaveData@@PAX@Z" PURGE="0" COMMENT="" />
    <EXPORT ORDINAL="379" NAME="?CapAudDataCallBack@LMMCapture@@MAEHPAUwaveData@@@Z" PURGE="4" COMMENT="" />
    <EXPORT ORDINAL="380" NAME="?CapDriverEnumCS@LMMCapture@@CAHHPAD0PAX@Z" PURGE="0" COMMENT="" />
    <EXPORT ORDINAL="381" NAME="?CapDriverEnumCallBack@LMMCapture@@MAEHHPAD0@Z" PURGE="12" COMMENT="" />
    <EXPORT ORDINAL="382" NAME="?CapRecordCS@LMMCapture@@CAHPAUwaveData@@PAX@Z" PURGE="0" COMMENT="" />
    <EXPORT ORDINAL="383" NAME="?CapRecordCallBack@LMMCapture@@MAEHPAUwaveData@@@Z" PURGE="4" COMMENT="" />
    <EXPORT ORDINAL="384" NAME="?CapVidDataCS@LMMCapture@@CAHPAUvideoData@@PAX@Z" PURGE="0" COMMENT="" />
    <EXPORT ORDINAL="385" NAME="?CapVidDataCallBack@LMMCapture@@MAEHPAUvideoData@@@Z" PURGE="4" COMMENT="" />
    <EXPORT ORDINAL="386" NAME="?CaptureActiveClient@LScreenCapture@@UAEHXZ" PURGE="0" COMMENT="" />
    <EXPORT ORDINAL="387" NAME="?CaptureActiveWindow@LScreenCapture@@UAEHXZ" PURGE="0" COMMENT="" />
    <EXPORT ORDINAL="388" NAME="?CaptureArea@LScreenCapture@@UAEHXZ" PURGE="0" COMMENT="" />
    <EXPORT ORDINAL="389" NAME="?CaptureAreaOptionDlg@LScreenCapture@@UAEHPAUHWND__@@@Z" PURGE="4" COMMENT="" />
    <EXPORT ORDINAL="390" NAME="?CaptureFromEXE@LScreenCapture@@UAEHPADH0IK@Z" PURGE="20" COMMENT="" />
    <EXPORT ORDINAL="391" NAME="?CaptureFromEXEDlg@LScreenCapture@@UAEHPADPAKHH@Z" PURGE="16" COMMENT="" />
    <EXPORT ORDINAL="392" NAME="?CaptureFullScreen@LScreenCapture@@UAEHXZ" PURGE="0" COMMENT="" />
    <EXPORT ORDINAL="393" NAME="?CaptureGetResCount@LScreenCapture@@UAEHPADHPAJ@Z" PURGE="12" COMMENT="" />
    <EXPORT ORDINAL="394" NAME="?CaptureHotKeyCS@LScreenCapture@@CAHHIPAX@Z" PURGE="0" COMMENT="" />
    <EXPORT ORDINAL="395" NAME="?CaptureHotKeyCallBack@LScreenCapture@@MAEHHI@Z" PURGE="8" COMMENT="" />
    <EXPORT ORDINAL="396" NAME="?CaptureMenuUnderCursor@LScreenCapture@@UAEHXZ" PURGE="0" COMMENT="" />
    <EXPORT ORDINAL="397" NAME="?CaptureMouseCursor@LScreenCapture@@UAEHK@Z" PURGE="4" COMMENT="" />
    <EXPORT ORDINAL="398" NAME="?CaptureObjectOptionDlg@LScreenCapture@@UAEHPAUHWND__@@@Z" PURGE="4" COMMENT="" />
    <EXPORT ORDINAL="399" NAME="?CaptureSelectedObject@LScreenCapture@@UAEHXZ" PURGE="0" COMMENT="" />
    <EXPORT ORDINAL="400" NAME="?CaptureWallpaper@LScreenCapture@@UAEHXZ" PURGE="0" COMMENT="" />
    <EXPORT ORDINAL="401" NAME="?CaptureWindow@LScreenCapture@@UAEHPAUHWND__@@W4tagWINDOWCAPTURETYPE@@@Z" PURGE="8" COMMENT="" />
    <EXPORT ORDINAL="402" NAME="?CaptureWindowUnderCursor@LScreenCapture@@UAEHXZ" PURGE="0" COMMENT="" />
    <EXPORT ORDINAL="403" NAME="?ChangeContrast@LBitmap@@UAEHH@Z" PURGE="4" COMMENT="" />
    <EXPORT ORDINAL="404" NAME="?ChangeFromDDB@LChange@@SAHPAUHDC__@@PAVLBitmapBase@@PAUHBITMAP__@@PAUHPALETTE__@@@Z" PURGE="0" COMMENT="" />
    <EXPORT ORDINAL="405" NAME="?ChangeFromDIB@LChange@@SAHPAVLBitmapBase@@PAX@Z" PURGE="0" COMMENT="" />
    <EXPORT ORDINAL="406" NAME="?ChangeHeight@LBitmapBase@@UAEHH@Z" PURGE="4" COMMENT="" />
    <EXPORT ORDINAL="407" NAME="?ChangeHue@LBitmap@@UAEHH@Z" PURGE="4" COMMENT="" />
    <EXPORT ORDINAL="408" NAME="?ChangeIntensity@LBitmap@@UAEHH@Z" PURGE="4" COMMENT="" />
    <EXPORT ORDINAL="409" NAME="?ChangeSaturation@LBitmap@@UAEHH@Z" PURGE="4" COMMENT="" />
    <EXPORT ORDINAL="410" NAME="?ChangeToDDB@LChange@@SAPAUHBITMAP__@@PAUHDC__@@PAVLBitmapBase@@@Z" PURGE="0" COMMENT="" />
    <EXPORT ORDINAL="411" NAME="?ChangeToDIB@LChange@@SAPAXPAVLBitmapBase@@@Z" PURGE="0" COMMENT="" />
    <EXPORT ORDINAL="412" NAME="?ChangeViewPerspective@LBitmapBase@@UAEHAAV1@H@Z" PURGE="8" COMMENT="" />
    <EXPORT ORDINAL="413" NAME="?ChangeViewPerspective@LBitmapBase@@UAEHH@Z" PURGE="4" COMMENT="" />
    <EXPORT ORDINAL="414" NAME="?CheckWorkOnFloater@LBitmapWindow@@AAEHII@Z" PURGE="8" COMMENT="" />
    <EXPORT ORDINAL="415" NAME="?ChooseAudFormat@LMMCapture@@UAEHPAUHWND__@@PAUwaveFormatData@@PAIPAD2I@Z" PURGE="24" COMMENT="" />
    <EXPORT ORDINAL="416" NAME="?Clean@LBitmapWindow@@AAEXXZ" PURGE="0" COMMENT="" />
    <EXPORT ORDINAL="417" NAME="?Clear@LBitmapBase@@UAEHXZ" PURGE="0" COMMENT="" />
    <EXPORT ORDINAL="418" NAME="?ClearErrorList@LBase@@SAXXZ" PURGE="0" COMMENT="" />
    <EXPORT ORDINAL="419" NAME="?ClearNegativePixels@LBitmapBase@@UAEHXZ" PURGE="0" COMMENT="" />
    <EXPORT ORDINAL="420" NAME="?ClearQueue@LInet@@UAEHXZ" PURGE="0" COMMENT="" />
    <EXPORT ORDINAL="421" NAME="?ClearUpdateRect@LPlayBack@@UAEHXZ" PURGE="0" COMMENT="" />
    <EXPORT ORDINAL="422" NAME="?Close@LInet@@UAEHI@Z" PURGE="4" COMMENT="" />
    <EXPORT ORDINAL="423" NAME="?CloseRecord@LMMCapture@@UAEHXZ" PURGE="0" COMMENT="" />
    <EXPORT ORDINAL="424" NAME="?CloseSession@LTwain@@UAEHXZ" PURGE="0" COMMENT="" />
    <EXPORT ORDINAL="425" NAME="?ColorMerge@LBitmap@@UAEHPAV1@K@Z" PURGE="8" COMMENT="" />
    <EXPORT ORDINAL="426" NAME="?ColorRes@LBitmapBase@@UAEHAAV1@HKPAUtagRGBQUAD@@I@Z" PURGE="20" COMMENT="" />
    <EXPORT ORDINAL="427" NAME="?ColorRes@LBitmapBase@@UAEHHKPAUtagRGBQUAD@@I@Z" PURGE="16" COMMENT="" />
    <EXPORT ORDINAL="428" NAME="?ColorResBitmapCS@LBitmapBase@@CAHPAUstruct_LEAD_Bitmap@@PAEHPAX@Z" PURGE="0" COMMENT="" />
    <EXPORT ORDINAL="429" NAME="?ColorResBitmapCallBack@LBitmapBase@@MAEHPAUstruct_LEAD_Bitmap@@PAEH@Z" PURGE="12" COMMENT="" />
    <EXPORT ORDINAL="430" NAME="?ColorResItems@LAnimationWindow@@QAEHHKPAUtagRGBQUAD@@I@Z" PURGE="16" COMMENT="" />
    <EXPORT ORDINAL="431" NAME="?ColorResItems@LBitmapList@@UAEHHKPAUtagRGBQUAD@@I@Z" PURGE="16" COMMENT="" />
    <EXPORT ORDINAL="432" NAME="?ColorSeparate@LBitmap@@UAEHPAV1@K@Z" PURGE="8" COMMENT="" />
    <EXPORT ORDINAL="433" NAME="?Combine@LBitmapBase@@UAEHPAV1@HHHHHHK@Z" PURGE="32" COMMENT="" />
    <EXPORT ORDINAL="434" NAME="?CombineFloater@LBitmapWindow@@AAEHXZ" PURGE="0" COMMENT="" />
    <EXPORT ORDINAL="435" NAME="?CompressBuffer@LMemoryFile@@UAEHPAVLBuffer@@@Z" PURGE="4" COMMENT="" />
    <EXPORT ORDINAL="436" NAME="?CompressBufferCS@LMemoryFile@@CAHPAUstruct_LEAD_Bitmap@@PAEIPAX@Z" PURGE="0" COMMENT="" />
    <EXPORT ORDINAL="437" NAME="?CompressBufferCallBack@LMemoryFile@@MAEHPAVLBitmapBase@@PAVLBuffer@@@Z" PURGE="8" COMMENT="" />
    <EXPORT ORDINAL="438" NAME="?CompressRow@LBuffer@@UAEHAAV1@HH@Z" PURGE="12" COMMENT="" />
    <EXPORT ORDINAL="439" NAME="?CompressRows@LBuffer@@UAEHAAV1@II@Z" PURGE="12" COMMENT="" />
    <EXPORT ORDINAL="440" NAME="?Connect@LInetClient@@UAEHPADH@Z" PURGE="8" COMMENT="" />
    <EXPORT ORDINAL="441" NAME="?Connect@LMMCapture@@UAEHH@Z" PURGE="4" COMMENT="" />
    <EXPORT ORDINAL="442" NAME="?ContinueToolDrawing@LBitmapWindow@@AAEXPAUtagPOINT@@G@Z" PURGE="8" COMMENT="" />
    <EXPORT ORDINAL="443" NAME="?ConvertBuffer@LBuffer@@UAEHHHHHHPAUtagRGBQUAD@@0IHH@Z" PURGE="40" COMMENT="" />
    <EXPORT ORDINAL="444" NAME="?ConvertColorSpace@LBuffer@@UAEHAAV1@HHH@Z" PURGE="16" COMMENT="" />
    <EXPORT ORDINAL="445" NAME="?ConvertFromBitmapList@LMultimedia@@UAEHHHPAVLBitmapList@@I@Z" PURGE="16" COMMENT="" />
    <EXPORT ORDINAL="446" NAME="?ConvertFromBitmapList@LMultimedia@@UAEHPADHHPAVLBitmapList@@0@Z" PURGE="20" COMMENT="" />
    <EXPORT ORDINAL="447" NAME="?ConvertFromBitmapList@LMultimedia@@UAEHPADHHPAX0@Z" PURGE="20" COMMENT="" />
    <EXPORT ORDINAL="448" NAME="?ConvertFromDDB@LBitmapBase@@UAEHPAUHDC__@@PAUHBITMAP__@@PAUHPALETTE__@@@Z" PURGE="12" COMMENT="" />
    <EXPORT ORDINAL="449" NAME="?ConvertFromDIB@LBitmapBase@@UAEHPAUtagBITMAPINFO@@PAE@Z" PURGE="8" COMMENT="" />
    <EXPORT ORDINAL="450" NAME="?ConvertTime@LMultimedia@@UAEHPAJHJH@Z" PURGE="16" COMMENT="" />
    <EXPORT ORDINAL="451" NAME="?ConvertToBitmapList@LMultimedia@@UAEHHHPAPAXI@Z" PURGE="16" COMMENT="" />
    <EXPORT ORDINAL="452" NAME="?ConvertToDDB@LBitmapBase@@UAEPAUHBITMAP__@@PAUHDC__@@@Z" PURGE="4" COMMENT="" />
    <EXPORT ORDINAL="453" NAME="?ConvertToDIB@LBitmapBase@@UAEPAXXZ" PURGE="0" COMMENT="" />
    <EXPORT ORDINAL="454" NAME="?Copy@LAnnotation@@UAEHAAV1@@Z" PURGE="4" COMMENT="" />
    <EXPORT ORDINAL="455" NAME="?Copy@LAnnotation@@UAEHPAX@Z" PURGE="4" COMMENT="" />
    <EXPORT ORDINAL="456" NAME="?Copy@LBitmapBase@@UAEHAAV1@@Z" PURGE="4" COMMENT="" />
    <EXPORT ORDINAL="457" NAME="?Copy@LBuffer@@QAEHPAD@Z" PURGE="4" COMMENT="" />
    <EXPORT ORDINAL="458" NAME="?Copy@LBuffer@@QAEHPAV1@@Z" PURGE="4" COMMENT="" />
    <EXPORT ORDINAL="459" NAME="?Copy@LBuffer@@QAEHPAXK@Z" PURGE="8" COMMENT="" />
    <EXPORT ORDINAL="460" NAME="?CopyData@LBitmapBase@@UAEHAAV1@@Z" PURGE="4" COMMENT="" />
    <EXPORT ORDINAL="461" NAME="?CopyFileAs@LMMCapture@@UAEHPAD@Z" PURGE="4" COMMENT="" />
    <EXPORT ORDINAL="462" NAME="?CopyFrames@LMultimedia@@UAEHJJK@Z" PURGE="12" COMMENT="" />
    <EXPORT ORDINAL="463" NAME="?CopyFromClipboard@LAnnContainer@@UAEHPAUHWND__@@@Z" PURGE="4" COMMENT="" />
    <EXPORT ORDINAL="464" NAME="?CopyFromClipboard@LAnnotationWindow@@UAEHPAUHWND__@@@Z" PURGE="4" COMMENT="" />
    <EXPORT ORDINAL="465" NAME="?CopyFromClipboard@LBitmapBase@@UAEHPAUHWND__@@@Z" PURGE="4" COMMENT="" />
    <EXPORT ORDINAL="466" NAME="?CopyFromClipboard@LBitmapWindow@@UAEHPAUHWND__@@@Z" PURGE="4" COMMENT="" />
    <EXPORT ORDINAL="467" NAME="?CopyHandle@LBitmapBase@@UAEHAAV1@@Z" PURGE="4" COMMENT="" />
    <EXPORT ORDINAL="468" NAME="?CopyItems@LBitmapList@@UAEHAAV1@II@Z" PURGE="12" COMMENT="" />
    <EXPORT ORDINAL="469" NAME="?CopyRect@LBitmapBase@@UAEHAAV1@AAUtagRECT@@@Z" PURGE="8" COMMENT="" />
    <EXPORT ORDINAL="470" NAME="?CopyRect@LBitmapBase@@UAEHAAV1@HHII@Z" PURGE="20" COMMENT="" />
    <EXPORT ORDINAL="471" NAME="?CopyToClipboard@LAnnotation@@UAEHIII@Z" PURGE="12" COMMENT="" />
    <EXPORT ORDINAL="472" NAME="?CopyToClipboard@LAnnotationWindow@@UAEHPAUHWND__@@I@Z" PURGE="8" COMMENT="" />
    <EXPORT ORDINAL="473" NAME="?CopyToClipboard@LBitmapBase@@UAEHPAUHWND__@@I@Z" PURGE="8" COMMENT="" />
    <EXPORT ORDINAL="474" NAME="?CopyToClipboard@LBitmapWindow@@UAEHPAUHWND__@@I@Z" PURGE="8" COMMENT="" />
    <EXPORT ORDINAL="475" NAME="?CopyToClipboard@LMMCapture@@UAEHXZ" PURGE="0" COMMENT="" />
    <EXPORT ORDINAL="476" NAME="?Create@LAnnAudioClip@@UAEHXZ" PURGE="0" COMMENT="" />
    <EXPORT ORDINAL="477" NAME="?Create@LAnnAutomation@@UAEHXZ" PURGE="0" COMMENT="" />
    <EXPORT ORDINAL="478" NAME="?Create@LAnnButton@@UAEHXZ" PURGE="0" COMMENT="" />
    <EXPORT ORDINAL="479" NAME="?Create@LAnnContainer@@UAEHPAUHWND__@@PAU_ANNRECT@@I@Z" PURGE="12" COMMENT="" />
    <EXPORT ORDINAL="480" NAME="?Create@LAnnEllipse@@UAEHXZ" PURGE="0" COMMENT="" />
    <EXPORT ORDINAL="481" NAME="?Create@LAnnFreehand@@UAEHXZ" PURGE="0" COMMENT="" />
    <EXPORT ORDINAL="482" NAME="?Create@LAnnHilite@@UAEHXZ" PURGE="0" COMMENT="" />
    <EXPORT ORDINAL="483" NAME="?Create@LAnnHotSpot@@UAEHXZ" PURGE="0" COMMENT="" />
    <EXPORT ORDINAL="484" NAME="?Create@LAnnLine@@UAEHXZ" PURGE="0" COMMENT="" />
    <EXPORT ORDINAL="485" NAME="?Create@LAnnNote@@UAEHXZ" PURGE="0" COMMENT="" />
    <EXPORT ORDINAL="486" NAME="?Create@LAnnPointer@@UAEHXZ" PURGE="0" COMMENT="" />
    <EXPORT ORDINAL="487" NAME="?Create@LAnnPolygon@@UAEHXZ" PURGE="0" COMMENT="" />
    <EXPORT ORDINAL="488" NAME="?Create@LAnnPolyline@@UAEHXZ" PURGE="0" COMMENT="" />
    <EXPORT ORDINAL="489" NAME="?Create@LAnnRectangle@@UAEHXZ" PURGE="0" COMMENT="" />
    <EXPORT ORDINAL="490" NAME="?Create@LAnnRedact@@UAEHXZ" PURGE="0" COMMENT="" />
    <EXPORT ORDINAL="491" NAME="?Create@LAnnRuler@@UAEHXZ" PURGE="0" COMMENT="" />
    <EXPORT ORDINAL="492" NAME="?Create@LAnnStamp@@UAEHXZ" PURGE="0" COMMENT="" />
    <EXPORT ORDINAL="493" NAME="?Create@LAnnText@@UAEHXZ" PURGE="0" COMMENT="" />
    <EXPORT ORDINAL="494" NAME="?Create@LAnnToolBar@@UAEPAUHWND__@@PAU2@PAUtagPOINT@@II@Z" PURGE="16" COMMENT="" />
    <EXPORT ORDINAL="495" NAME="?Create@LAnnotation@@IAEHI@Z" PURGE="4" COMMENT="" />
    <EXPORT ORDINAL="496" NAME="?Create@LBitmapBase@@UAEHIIIIPAUtagRGBQUAD@@II@Z" PURGE="28" COMMENT="" />
    <EXPORT ORDINAL="497" NAME="?Create@LBitmapList@@UAEHXZ" PURGE="0" COMMENT="" />
    <EXPORT ORDINAL="498" NAME="?Create@LMultimedia@@UAEHXZ" PURGE="0" COMMENT="" />
    <EXPORT ORDINAL="499" NAME="?Create@LPlayBack@@UAEHPAVLBitmapBase@@PAVLBitmapList@@@Z" PURGE="8" COMMENT="" />
    <EXPORT ORDINAL="500" NAME="?CreateAlphaBitmap@LBitmapBase@@UAEHAAV1@@Z" PURGE="4" COMMENT="" />
    <EXPORT ORDINAL="501" NAME="?CreateAnnObject@LAnnotation@@SAPAV1@PAX@Z" PURGE="0" COMMENT="" />
    <EXPORT ORDINAL="502" NAME="?CreateFloater@LBitmapWindow@@AAEXXZ" PURGE="0" COMMENT="" />
    <EXPORT ORDINAL="503" NAME="?CreateFloaterPalette@LBitmapWindow@@AAEXXZ" PURGE="0" COMMENT="" />
    <EXPORT ORDINAL="504" NAME="?CreateLeadDC@LBitmapBase@@UAEPAUHDC__@@XZ" PURGE="0" COMMENT="" />
    <EXPORT ORDINAL="505" NAME="?CreateMaskFromBitmapRgn@LBitmapRgn@@UAEHPAVLBitmapBase@@@Z" PURGE="4" COMMENT="" />
    <EXPORT ORDINAL="506" NAME="?CreatePaintPalette@LBitmapBase@@UAEPAUHPALETTE__@@PAUHDC__@@@Z" PURGE="4" COMMENT="" />
    <EXPORT ORDINAL="507" NAME="?CreatePanWnd@LBitmapWindow@@QAEPAUHWND__@@KHHHHPADPAUHICON__@@1I@Z" PURGE="36" COMMENT="" />
    <EXPORT ORDINAL="508" NAME="?CreateUserMatchTable@LBitmapSettings@@SAPAIPAUtagRGBQUAD@@I@Z" PURGE="0" COMMENT="" />
    <EXPORT ORDINAL="509" NAME="?CreateWin@LMMCapture@@UAEHPAUHWND__@@PADKHHHH@Z" PURGE="28" COMMENT="" />
    <EXPORT ORDINAL="510" NAME="?CreateWnd@LAnnotationWindow@@QAEPAUHWND__@@PAU2@HKHHHH@Z" PURGE="28" COMMENT="" />
    <EXPORT ORDINAL="511" NAME="?CreateWnd@LBitmapWindow@@QAEPAUHWND__@@PAU2@HKHHHH@Z" PURGE="28" COMMENT="" />
    <EXPORT ORDINAL="512" NAME="?CutToClipboard@LAnnotation@@UAEHIII@Z" PURGE="12" COMMENT="" />
    <EXPORT ORDINAL="513" NAME="?Decompress@LMemoryFile@@UAEHAAVLBuffer@@HH@Z" PURGE="12" COMMENT="" />
    <EXPORT ORDINAL="514" NAME="?DecompressMemoryCS@LMemoryFile@@CAHPAUstruct_file_information@@PAUstruct_LEAD_Bitmap@@PAEIHHPAX@Z" PURGE="0" COMMENT="" />
    <EXPORT ORDINAL="515" NAME="?DecompressMemoryCallBack@LMemoryFile@@MAEHPAUstruct_file_information@@PAVLBitmapBase@@PAVLBuffer@@IHH@Z" PURGE="24" COMMENT="" />
    <EXPORT ORDINAL="516" NAME="?DefaultDithering@LBitmapSettings@@SAHI@Z" PURGE="0" COMMENT="" />
    <EXPORT ORDINAL="517" NAME="?Define@LAnnFreehand@@UAEHPAUtagPOINT@@I@Z" PURGE="8" COMMENT="" />
    <EXPORT ORDINAL="518" NAME="?Define@LAnnPolygon@@UAEHPAUtagPOINT@@I@Z" PURGE="8" COMMENT="" />
    <EXPORT ORDINAL="519" NAME="?Define@LAnnPolyline@@UAEHPAUtagPOINT@@I@Z" PURGE="8" COMMENT="" />
    <EXPORT ORDINAL="520" NAME="?Define@LAnnotation@@IAEHPAUtagPOINT@@I@Z" PURGE="8" COMMENT="" />
    <EXPORT ORDINAL="521" NAME="?DeleteFrames@LMultimedia@@UAEHJJK@Z" PURGE="12" COMMENT="" />
    <EXPORT ORDINAL="522" NAME="?DeleteItems@LBitmapList@@UAEHII@Z" PURGE="8" COMMENT="" />
    <EXPORT ORDINAL="523" NAME="?DeleteLeadDC@LBitmapBase@@UAEIPAUHDC__@@@Z" PURGE="4" COMMENT="" />
    <EXPORT ORDINAL="524" NAME="?DeletePage@LFile@@UAEHHI@Z" PURGE="8" COMMENT="" />
    <EXPORT ORDINAL="525" NAME="?DeleteStream@LMultimedia@@UAEHH@Z" PURGE="4" COMMENT="" />
    <EXPORT ORDINAL="526" NAME="?Deskew@LBitmap@@UAEHPAJ@Z" PURGE="4" COMMENT="" />
    <EXPORT ORDINAL="527" NAME="?Despeckle@LBitmap@@UAEHXZ" PURGE="0" COMMENT="" />
    <EXPORT ORDINAL="528" NAME="?Destroy@LAnnToolBar@@UAEHXZ" PURGE="0" COMMENT="" />
    <EXPORT ORDINAL="529" NAME="?Destroy@LAnnotation@@UAEHI@Z" PURGE="4" COMMENT="" />
    <EXPORT ORDINAL="530" NAME="?Destroy@LBitmapList@@UAEHXZ" PURGE="0" COMMENT="" />
    <EXPORT ORDINAL="531" NAME="?Destroy@LPlayBack@@UAEHPAVLBitmapList@@@Z" PURGE="4" COMMENT="" />
    <EXPORT ORDINAL="532" NAME="?DestroyBitmapList@LAnimationWindow@@AAEXXZ" PURGE="0" COMMENT="" />
    <EXPORT ORDINAL="533" NAME="?DestroyFloater@LBitmapWindow@@AAEXXZ" PURGE="0" COMMENT="" />
    <EXPORT ORDINAL="534" NAME="?DestroyPanWnd@LBitmapWindow@@QAEHXZ" PURGE="0" COMMENT="" />
    <EXPORT ORDINAL="535" NAME="?DestroyWin@LMMCapture@@UAEHXZ" PURGE="0" COMMENT="" />
    <EXPORT ORDINAL="536" NAME="?Dialog@LAnimationWindow@@UAEPAVLDialog@@XZ" PURGE="0" COMMENT="" />
    <EXPORT ORDINAL="537" NAME="?Dialog@LAnnotationWindow@@UAEPAVLDialog@@XZ" PURGE="0" COMMENT="" />
    <EXPORT ORDINAL="538" NAME="?Dialog@LBitmap@@UAEPAVLDialog@@XZ" PURGE="0" COMMENT="" />
    <EXPORT ORDINAL="539" NAME="?Dialog@LBitmapBase@@UAEPAVLDialog@@XZ" PURGE="0" COMMENT="" />
    <EXPORT ORDINAL="540" NAME="?Dialog@LBitmapWindow@@UAEPAVLDialog@@XZ" PURGE="0" COMMENT="" />
    <EXPORT ORDINAL="541" NAME="?DialogHelpCS@LDialog@@CAXK@Z" PURGE="0" COMMENT="" />
    <EXPORT ORDINAL="542" NAME="?DialogHelpCallBack@LDialog@@MAEXK@Z" PURGE="4" COMMENT="" />
    <EXPORT ORDINAL="543" NAME="?Disconnect@LMMCapture@@UAEHXZ" PURGE="0" COMMENT="" />
    <EXPORT ORDINAL="544" NAME="?DisconnectBitmapList@LBitmapDictionary@@QAEXPAVLBitmapList@@@Z" PURGE="4" COMMENT="" />
    <EXPORT ORDINAL="545" NAME="?DisplayAllErrorDlgProc@LBase@@CGIPAUHWND__@@IIJ@Z" PURGE="16" COMMENT="" />
    <EXPORT ORDINAL="546" NAME="?DisplayDlg@LMMCapture@@UAEHI@Z" PURGE="4" COMMENT="" />
    <EXPORT ORDINAL="547" NAME="?DisplayError@LBase@@SAXPAUHWND__@@H@Z" PURGE="0" COMMENT="" />
    <EXPORT ORDINAL="548" NAME="?DisplayError@LBase@@SAXPAUHWND__@@PAD@Z" PURGE="0" COMMENT="" />
    <EXPORT ORDINAL="549" NAME="?DisplayErrorFromList@LBase@@SAXPAUHWND__@@I@Z" PURGE="0" COMMENT="" />
    <EXPORT ORDINAL="550" NAME="?DisplayErrorList@LBase@@SAXPAUHWND__@@I@Z" PURGE="0" COMMENT="" />
    <EXPORT ORDINAL="551" NAME="?DitherLine@LBitmapBase@@UAEHPAVLBuffer@@0@Z" PURGE="8" COMMENT="" />
    <EXPORT ORDINAL="552" NAME="?DoEvents@LAnimationWindow@@QBEIPAII@Z" PURGE="8" COMMENT="" />
    <EXPORT ORDINAL="553" NAME="?DoModalColorRes@LDialog@@UAEHPAUHWND__@@K@Z" PURGE="8" COMMENT="" />
    <EXPORT ORDINAL="554" NAME="?DoModalColorResItems@LAnimationWindow@@QAEHPAUHWND__@@@Z" PURGE="4" COMMENT="" />
    <EXPORT ORDINAL="555" NAME="?DoModalFileOpen@LDialog@@UAEHPAUHWND__@@K@Z" PURGE="8" COMMENT="" />
    <EXPORT ORDINAL="556" NAME="?DoModalFileSave@LDialog@@UAEHPAUHWND__@@K@Z" PURGE="8" COMMENT="" />
    <EXPORT ORDINAL="557" NAME="?DoModalGetAngle@LDialog@@UAEHPAUHWND__@@K@Z" PURGE="8" COMMENT="" />
    <EXPORT ORDINAL="558" NAME="?DoModalGetChange@LDialog@@UAEHPAUHWND__@@K@Z" PURGE="8" COMMENT="" />
    <EXPORT ORDINAL="559" NAME="?DoModalGetDirectory@LDialog@@UAEHPADHPAUHWND__@@K@Z" PURGE="16" COMMENT="" />
    <EXPORT ORDINAL="560" NAME="?DoModalGetEffect@LDialog@@UAEHPAUHWND__@@K@Z" PURGE="8" COMMENT="" />
    <EXPORT ORDINAL="561" NAME="?DoModalGetEmboss@LDialog@@UAEHPAUHWND__@@@Z" PURGE="4" COMMENT="" />
    <EXPORT ORDINAL="562" NAME="?DoModalGetFilter@LDialog@@UAEHPAUHWND__@@K@Z" PURGE="8" COMMENT="" />
    <EXPORT ORDINAL="563" NAME="?DoModalGetGamma@LDialog@@UAEHPAUHWND__@@@Z" PURGE="4" COMMENT="" />
    <EXPORT ORDINAL="564" NAME="?DoModalGetGradient@LDialog@@UAEHPAUHWND__@@K@Z" PURGE="8" COMMENT="" />
    <EXPORT ORDINAL="565" NAME="?DoModalGetNoise@LDialog@@UAEHPAUHWND__@@@Z" PURGE="4" COMMENT="" />
    <EXPORT ORDINAL="566" NAME="?DoModalGetRange@LDialog@@UAEHPAUHWND__@@@Z" PURGE="4" COMMENT="" />
    <EXPORT ORDINAL="567" NAME="?DoModalGetShape@LDialog@@UAEHPAUHWND__@@K@Z" PURGE="8" COMMENT="" />
    <EXPORT ORDINAL="568" NAME="?DoModalGetSize@LDialog@@UAEHPAUHWND__@@K@Z" PURGE="8" COMMENT="" />
    <EXPORT ORDINAL="569" NAME="?DoModalGetText@LDialog@@UAEHPAUHWND__@@K@Z" PURGE="8" COMMENT="" />
    <EXPORT ORDINAL="570" NAME="?DoModalGetTransition@LDialog@@UAEHPAUHWND__@@K@Z" PURGE="8" COMMENT="" />
    <EXPORT ORDINAL="571" NAME="?DoModalWindowLevel@LDialog@@UAEHPAUHWND__@@I@Z" PURGE="8" COMMENT="" />
    <EXPORT ORDINAL="572" NAME="?Draw3dShape@LPaintEffect@@AAEHPAUtagRECT@@IPAUHRGN__@@@Z" PURGE="12" COMMENT="" />
    <EXPORT ORDINAL="573" NAME="?Draw3dShape@LPaintEffect@@UAEHPAUtagRECT@@I@Z" PURGE="8" COMMENT="" />
    <EXPORT ORDINAL="574" NAME="?Draw3dShape@LPaintEffect@@UAEHPAUtagRECT@@PAUHRGN__@@@Z" PURGE="8" COMMENT="" />
    <EXPORT ORDINAL="575" NAME="?Draw3dText@LPaintEffect@@UAEHPAUtagRECT@@PADH@Z" PURGE="12" COMMENT="" />
    <EXPORT ORDINAL="576" NAME="?Draw@LAnnotation@@UAEHPAUHDC__@@PAUtagRECT@@@Z" PURGE="8" COMMENT="" />
    <EXPORT ORDINAL="577" NAME="?DrawFloater@LBitmapWindow@@AAEXPAUHDC__@@II@Z" PURGE="12" COMMENT="" />
    <EXPORT ORDINAL="578" NAME="?DrawFloaterFrame@LBitmapWindow@@AAEXXZ" PURGE="0" COMMENT="" />
    <EXPORT ORDINAL="579" NAME="?DrawFrame@LPaintEffect@@UAEHPAUtagRECT@@I@Z" PURGE="8" COMMENT="" />
    <EXPORT ORDINAL="580" NAME="?DrawGradient@LPaintEffect@@UAEHPAUtagRECT@@I@Z" PURGE="8" COMMENT="" />
    <EXPORT ORDINAL="581" NAME="?DrawPattern@LPaintEffect@@UAEHPAUtagRECT@@I@Z" PURGE="8" COMMENT="" />
    <EXPORT ORDINAL="582" NAME="?DrawShapeOnPanWindow@LBitmapWindow@@AAEXXZ" PURGE="0" COMMENT="" />
    <EXPORT ORDINAL="583" NAME="?DupPalette@LBitmapBase@@UAEPAUHPALETTE__@@PAU2@@Z" PURGE="4" COMMENT="" />
    <EXPORT ORDINAL="584" NAME="?EffectBlt@LPaintEffect@@UAEHHHHHPAUHDC__@@HHIIIK@Z" PURGE="44" COMMENT="" />
    <EXPORT ORDINAL="585" NAME="?Emboss@LBitmap@@UAEHII@Z" PURGE="8" COMMENT="" />
    <EXPORT ORDINAL="586" NAME="?EnableAlwaysEndNotification@LBitmapBase@@UAEII@Z" PURGE="4" COMMENT="" />
    <EXPORT ORDINAL="587" NAME="?EnableAlwaysEndNotification@LBitmapWindow@@UAEII@Z" PURGE="4" COMMENT="" />
    <EXPORT ORDINAL="588" NAME="?EnableAnimateEvent@LAnimationWindow@@QAEII@Z" PURGE="4" COMMENT="" />
    <EXPORT ORDINAL="589" NAME="?EnableAutoAnimate@LAnimationWindow@@QAEII@Z" PURGE="4" COMMENT="" />
    <EXPORT ORDINAL="590" NAME="?EnableAutoErrorDisplay@LBase@@SAII@Z" PURGE="0" COMMENT="" />
    <EXPORT ORDINAL="591" NAME="?EnableAutoList@LInet@@QAEII@Z" PURGE="4" COMMENT="" />
    <EXPORT ORDINAL="592" NAME="?EnableAutoLoop@LAnimationWindow@@QAEII@Z" PURGE="4" COMMENT="" />
    <EXPORT ORDINAL="593" NAME="?EnableAutoPaint@LBitmapWindow@@QAEII@Z" PURGE="4" COMMENT="" />
    <EXPORT ORDINAL="594" NAME="?EnableAutoProcess@LDialog@@QAEII@Z" PURGE="4" COMMENT="" />
    <EXPORT ORDINAL="595" NAME="?EnableAutoScroll@LBitmapWindow@@QAEII@Z" PURGE="4" COMMENT="" />
    <EXPORT ORDINAL="596" NAME="?EnableCallBack@LBase@@QAEII@Z" PURGE="4" COMMENT="" />
    <EXPORT ORDINAL="597" NAME="?EnableCenterOnZoom@LBitmapWindow@@QAEII@Z" PURGE="4" COMMENT="" />
    <EXPORT ORDINAL="598" NAME="?EnableChangeNotification@LBitmapBase@@UAEII@Z" PURGE="4" COMMENT="" />
    <EXPORT ORDINAL="599" NAME="?EnableChangeNotification@LBitmapWindow@@UAEII@Z" PURGE="4" COMMENT="" />
    <EXPORT ORDINAL="600" NAME="?EnableDragAcceptFiles@LBitmapWindow@@QAEII@Z" PURGE="4" COMMENT="" />
    <EXPORT ORDINAL="601" NAME="?EnableDrawGradient@LBitmapWindow@@QAEII@Z" PURGE="4" COMMENT="" />
    <EXPORT ORDINAL="602" NAME="?EnableDrawPattern@LBitmapWindow@@QAEII@Z" PURGE="4" COMMENT="" />
    <EXPORT ORDINAL="603" NAME="?EnableEventCallback@LMultimedia@@UAEHI@Z" PURGE="4" COMMENT="" />
    <EXPORT ORDINAL="604" NAME="?EnableFileName@LBitmapBase@@QAEII@Z" PURGE="4" COMMENT="" />
    <EXPORT ORDINAL="605" NAME="?EnableFileName@LBitmapWindow@@QAEII@Z" PURGE="4" COMMENT="" />
    <EXPORT ORDINAL="606" NAME="?EnableHelpButton@LDialog@@QAEHI@Z" PURGE="4" COMMENT="" />
    <EXPORT ORDINAL="607" NAME="?EnableKeyBoard@LBitmapWindow@@QAEII@Z" PURGE="4" COMMENT="" />
    <EXPORT ORDINAL="608" NAME="?EnableLoadInfoCallBack@LBaseFile@@QAEII@Z" PURGE="4" COMMENT="" />
    <EXPORT ORDINAL="609" NAME="?EnableLocalSettings@LBitmapBase@@QAEII@Z" PURGE="4" COMMENT="" />
    <EXPORT ORDINAL="610" NAME="?EnableLocalSettings@LBitmapWindow@@UAEII@Z" PURGE="4" COMMENT="" />
    <EXPORT ORDINAL="611" NAME="?EnableLoop@LAnimationWindow@@QAEII@Z" PURGE="4" COMMENT="" />
    <EXPORT ORDINAL="612" NAME="?EnableMMCallbacks@LMMCapture@@UAEHII@Z" PURGE="8" COMMENT="" />
    <EXPORT ORDINAL="613" NAME="?EnablePaintEffect@LBitmapWindow@@QAEII@Z" PURGE="4" COMMENT="" />
    <EXPORT ORDINAL="614" NAME="?EnablePaintSizeUseDPI@LBitmapWindow@@QAEII@Z" PURGE="4" COMMENT="" />
    <EXPORT ORDINAL="615" NAME="?EnablePaintTransition@LBitmapWindow@@QAEII@Z" PURGE="4" COMMENT="" />
    <EXPORT ORDINAL="616" NAME="?EnablePaintWhileLoad@LBitmapWindow@@QAEII@Z" PURGE="4" COMMENT="" />
    <EXPORT ORDINAL="617" NAME="?EnablePlayBackTransparency@LBitmapBase@@QAEII@Z" PURGE="4" COMMENT="" />
    <EXPORT ORDINAL="618" NAME="?EnablePlayBackWaitUserInput@LBitmapBase@@QAEII@Z" PURGE="4" COMMENT="" />
    <EXPORT ORDINAL="619" NAME="?EnablePlayWhileLoad@LAnimationWindow@@QAEII@Z" PURGE="4" COMMENT="" />
    <EXPORT ORDINAL="620" NAME="?EnablePreview@LDialog@@QAEII@Z" PURGE="4" COMMENT="" />
    <EXPORT ORDINAL="621" NAME="?EnableRedirectIO@LBaseFile@@QAEII@Z" PURGE="4" COMMENT="" />
    <EXPORT ORDINAL="622" NAME="?EnableRedirectStatusCallBack@LBitmapBase@@UAEII@Z" PURGE="4" COMMENT="" />
    <EXPORT ORDINAL="623" NAME="?EnableSendToAll@LInet@@QAEII@Z" PURGE="4" COMMENT="" />
    <EXPORT ORDINAL="624" NAME="?EnableStatusCallBack@LBase@@QAEII@Z" PURGE="4" COMMENT="" />
    <EXPORT ORDINAL="625" NAME="?EnableTransparency@LAnimationWindow@@QAEHIKI@Z" PURGE="12" COMMENT="" />
    <EXPORT ORDINAL="626" NAME="?EndChanging@LAnimationWindow@@MAEXIIH@Z" PURGE="12" COMMENT="" />
    <EXPORT ORDINAL="627" NAME="?EndChanging@LAnnotationWindow@@MAEXIIH@Z" PURGE="12" COMMENT="" />
    <EXPORT ORDINAL="628" NAME="?EndChanging@LBitmapBase@@UAEXIIH@Z" PURGE="12" COMMENT="" />
    <EXPORT ORDINAL="629" NAME="?EndChanging@LBitmapWindow@@MAEXIIH@Z" PURGE="12" COMMENT="" />
    <EXPORT ORDINAL="630" NAME="?EndCompressBuffer@LMemoryFile@@UAEHXZ" PURGE="0" COMMENT="" />
    <EXPORT ORDINAL="631" NAME="?EndPaintThread@LBitmapWindow@@AAEXXZ" PURGE="0" COMMENT="" />
    <EXPORT ORDINAL="632" NAME="?EndPolygon@LBitmapWindow@@AAEXPAUtagPOINT@@@Z" PURGE="4" COMMENT="" />
    <EXPORT ORDINAL="633" NAME="?EndToolDrawing@LBitmapWindow@@AAEXPAUtagPOINT@@@Z" PURGE="4" COMMENT="" />
    <EXPORT ORDINAL="634" NAME="?EnumCompressors@LMultimedia@@UAEHH@Z" PURGE="4" COMMENT="" />
    <EXPORT ORDINAL="635" NAME="?EnumCompressorsCS@LMultimedia@@CAHPADPAX@Z" PURGE="0" COMMENT="" />
    <EXPORT ORDINAL="636" NAME="?EnumCompressorsCallBack@LMultimedia@@MAEHPAD@Z" PURGE="4" COMMENT="" />
    <EXPORT ORDINAL="637" NAME="?EnumDimensions@LFile@@UAEHPAU_DIMENSION@@PAH@Z" PURGE="8" COMMENT="" />
    <EXPORT ORDINAL="638" NAME="?EnumDrivers@LMMCapture@@UAEHXZ" PURGE="0" COMMENT="" />
    <EXPORT ORDINAL="639" NAME="?EnumMixerLineCS@LMMCapture@@CAXPAU_MIXERLINEINFO@@PAX@Z" PURGE="0" COMMENT="" />
    <EXPORT ORDINAL="640" NAME="?EnumMixerLineCallBack@LMMCapture@@MAEXPAU_MIXERLINEINFO@@@Z" PURGE="4" COMMENT="" />
    <EXPORT ORDINAL="641" NAME="?EnumMixerLines@LMMCapture@@UAEXH@Z" PURGE="4" COMMENT="" />
    <EXPORT ORDINAL="642" NAME="?EnumSources@LTwain@@UAEHXZ" PURGE="0" COMMENT="" />
    <EXPORT ORDINAL="643" NAME="?EnumSourcesCS@LTwain@@CAHPAEHPAX@Z" PURGE="0" COMMENT="" />
    <EXPORT ORDINAL="644" NAME="?EnumSourcesCallBack@LTwain@@MAEHPAEH@Z" PURGE="8" COMMENT="" />
    <EXPORT ORDINAL="645" NAME="?Enumerate@LAnnContainer@@UAEHI@Z" PURGE="4" COMMENT="" />
    <EXPORT ORDINAL="646" NAME="?EnumerateCS@LAnnContainer@@CAHPAX0@Z" PURGE="0" COMMENT="" />
    <EXPORT ORDINAL="647" NAME="?EnumerateCallBack@LAnnContainer@@MAEHPAX@Z" PURGE="4" COMMENT="" />
    <EXPORT ORDINAL="648" NAME="?EventCS@LMultimedia@@CAXPAUtagMEDIAHANDLE@@HPAX@Z" PURGE="0" COMMENT="" />
    <EXPORT ORDINAL="649" NAME="?EventCallBack@LMultimedia@@MAEXH@Z" PURGE="4" COMMENT="" />
    <EXPORT ORDINAL="650" NAME="?ExpandRow@LBuffer@@UAEHAAV1@IH@Z" PURGE="12" COMMENT="" />
    <EXPORT ORDINAL="651" NAME="?ExpandRows@LBuffer@@UAEHAAV1@II@Z" PURGE="12" COMMENT="" />
    <EXPORT ORDINAL="652" NAME="?FeedLoad@LFile@@UAEHPAVLBuffer@@@Z" PURGE="4" COMMENT="" />
    <EXPORT ORDINAL="653" NAME="?FeedLoadCS@LFile@@CAHPAUstruct_file_information@@PAUstruct_LEAD_Bitmap@@PAEIHHPAX@Z" PURGE="0" COMMENT="" />
    <EXPORT ORDINAL="654" NAME="?FeedLoadCallBack@LFile@@MAEHPAUstruct_file_information@@PAVLBitmapBase@@PAVLBuffer@@IHH@Z" PURGE="24" COMMENT="" />
    <EXPORT ORDINAL="655" NAME="?FeedResetSound@LMMCapture@@UAEHXZ" PURGE="0" COMMENT="" />
    <EXPORT ORDINAL="656" NAME="?FeedSound@LMMCapture@@UAEHPAUwaveData@@@Z" PURGE="4" COMMENT="" />
    <EXPORT ORDINAL="657" NAME="?FeedSoundCS@LMMCapture@@CAHPAXI0@Z" PURGE="0" COMMENT="" />
    <EXPORT ORDINAL="658" NAME="?FeedSoundCallBack@LMMCapture@@MAEHI@Z" PURGE="4" COMMENT="" />
    <EXPORT ORDINAL="659" NAME="?File@LAnimationWindow@@UAEPAVLFile@@XZ" PURGE="0" COMMENT="" />
    <EXPORT ORDINAL="660" NAME="?File@LAnnotationWindow@@UAEPAVLFile@@XZ" PURGE="0" COMMENT="" />
    <EXPORT ORDINAL="661" NAME="?File@LBitmap@@UAEPAVLFile@@XZ" PURGE="0" COMMENT="" />
    <EXPORT ORDINAL="662" NAME="?File@LBitmapBase@@UAEPAVLFile@@XZ" PURGE="0" COMMENT="" />
    <EXPORT ORDINAL="663" NAME="?File@LBitmapWindow@@UAEPAVLFile@@XZ" PURGE="0" COMMENT="" />
    <EXPORT ORDINAL="664" NAME="?FileConvert@LFile@@SAHPAD0HHHHH@Z" PURGE="0" COMMENT="" />
    <EXPORT ORDINAL="665" NAME="?Fill@LBitmapBase@@UAEHK@Z" PURGE="4" COMMENT="" />
    <EXPORT ORDINAL="666" NAME="?Fill@LBuffer@@QAEHE@Z" PURGE="4" COMMENT="" />
    <EXPORT ORDINAL="667" NAME="?FindItem@LInet@@QAEHPAV1@PAI@Z" PURGE="8" COMMENT="" />
    <EXPORT ORDINAL="668" NAME="?FitToParent@LBitmapWindow@@QAEXI@Z" PURGE="4" COMMENT="" />
    <EXPORT ORDINAL="669" NAME="?FixRectangle@LBitmapWindow@@AAE?AUtagPOINT@@PAUtagRECT@@@Z" PURGE="8" COMMENT="" />
    <EXPORT ORDINAL="670" NAME="?Flip@LAnnotation@@UAEHPAU_ANNPOINT@@I@Z" PURGE="8" COMMENT="" />
    <EXPORT ORDINAL="671" NAME="?Flip@LBitmapBase@@UAEHXZ" PURGE="0" COMMENT="" />
    <EXPORT ORDINAL="672" NAME="?FrameRgn@LPaint@@UAEHIPAU_RGNXFORM@@@Z" PURGE="8" COMMENT="" />
    <EXPORT ORDINAL="673" NAME="?Free@LBitmapBase@@UAEHXZ" PURGE="0" COMMENT="" />
    <EXPORT ORDINAL="674" NAME="?Free@LBitmapRgn@@UAEHXZ" PURGE="0" COMMENT="" />
    <EXPORT ORDINAL="675" NAME="?Free@LBuffer@@QAEHXZ" PURGE="0" COMMENT="" />
    <EXPORT ORDINAL="676" NAME="?Free@LMultimedia@@UAEHXZ" PURGE="0" COMMENT="" />
    <EXPORT ORDINAL="677" NAME="?FreeUserMatchTable@LBitmapSettings@@SAHPAI@Z" PURGE="0" COMMENT="" />
    <EXPORT ORDINAL="678" NAME="?GammaCorrect@LBitmap@@UAEHI@Z" PURGE="4" COMMENT="" />
    <EXPORT ORDINAL="679" NAME="?GetActiveState@LAnnotation@@UAEIXZ" PURGE="0" COMMENT="" />
    <EXPORT ORDINAL="680" NAME="?GetAngle@LDialog@@QBEJXZ" PURGE="0" COMMENT="" />
    <EXPORT ORDINAL="681" NAME="?GetAngleFlag@LDialog@@QBEIXZ" PURGE="0" COMMENT="" />
    <EXPORT ORDINAL="682" NAME="?GetAnimationBitsPerPixel@LAnimationWindow@@QBEHXZ" PURGE="0" COMMENT="" />
    <EXPORT ORDINAL="683" NAME="?GetAnimationColorOrder@LAnimationWindow@@QBEHXZ" PURGE="0" COMMENT="" />
    <EXPORT ORDINAL="684" NAME="?GetAnimationHeight@LAnimationWindow@@QBEHXZ" PURGE="0" COMMENT="" />
    <EXPORT ORDINAL="685" NAME="?GetAnimationWidth@LAnimationWindow@@QBEHXZ" PURGE="0" COMMENT="" />
    <EXPORT ORDINAL="686" NAME="?GetAnimationWindow@LAnimationWindow@@QBEPAUHWND__@@XZ" PURGE="0" COMMENT="" />
    <EXPORT ORDINAL="687" NAME="?GetAt@LAnimationWindow@@IAEHIPAVLBitmapBase@@I@Z" PURGE="12" COMMENT="" />
    <EXPORT ORDINAL="688" NAME="?GetAudFormat@LMMCapture@@UAEHPAUwaveFormatData@@PAI@Z" PURGE="8" COMMENT="" />
    <EXPORT ORDINAL="689" NAME="?GetAudFromID@LMMCapture@@UAEHPAUwaveFormatData@@I@Z" PURGE="8" COMMENT="" />
    <EXPORT ORDINAL="690" NAME="?GetAudioPeak@LMMCapture@@UAEHPAUwaveFormatData@@PAUwaveData@@PAH@Z" PURGE="12" COMMENT="" />
    <EXPORT ORDINAL="691" NAME="?GetAutoContainer@LAnnAutomation@@UAEHPAPAX@Z" PURGE="4" COMMENT="" />
    <EXPORT ORDINAL="692" NAME="?GetAutoContainer@LAnnAutomation@@UAEHPAVLAnnContainer@@@Z" PURGE="4" COMMENT="" />
    <EXPORT ORDINAL="693" NAME="?GetAutoText@LAnnAutomation@@UAEHIPAD@Z" PURGE="8" COMMENT="" />
    <EXPORT ORDINAL="694" NAME="?GetAutoTextLen@LAnnAutomation@@UAEII@Z" PURGE="4" COMMENT="" />
    <EXPORT ORDINAL="695" NAME="?GetAutoTrimRect@LBitmap@@UAEHIPAUtagRECT@@@Z" PURGE="8" COMMENT="" />
    <EXPORT ORDINAL="696" NAME="?GetAutomationObject@LAnnotationWindow@@QAEAAVLAnnAutomation@@XZ" PURGE="0" COMMENT="" />
    <EXPORT ORDINAL="697" NAME="?GetBackColor@LAnnAutomation@@UAEKXZ" PURGE="0" COMMENT="" />
    <EXPORT ORDINAL="698" NAME="?GetBackColor@LAnnContainer@@UAEKXZ" PURGE="0" COMMENT="" />
    <EXPORT ORDINAL="699" NAME="?GetBackColor@LAnnEllipse@@UAEKXZ" PURGE="0" COMMENT="" />
    <EXPORT ORDINAL="700" NAME="?GetBackColor@LAnnHilite@@UAEKXZ" PURGE="0" COMMENT="" />
    <EXPORT ORDINAL="701" NAME="?GetBackColor@LAnnNote@@UAEKXZ" PURGE="0" COMMENT="" />
    <EXPORT ORDINAL="702" NAME="?GetBackColor@LAnnPolygon@@UAEKXZ" PURGE="0" COMMENT="" />
    <EXPORT ORDINAL="703" NAME="?GetBackColor@LAnnRectangle@@UAEKXZ" PURGE="0" COMMENT="" />
    <EXPORT ORDINAL="704" NAME="?GetBackColor@LAnnRedact@@UAEKXZ" PURGE="0" COMMENT="" />
    <EXPORT ORDINAL="705" NAME="?GetBackColor@LAnnStamp@@UAEKXZ" PURGE="0" COMMENT="" />
    <EXPORT ORDINAL="706" NAME="?GetBackColor@LAnnText@@UAEKXZ" PURGE="0" COMMENT="" />
    <EXPORT ORDINAL="707" NAME="?GetBackColor@LAnnotation@@IAEKXZ" PURGE="0" COMMENT="" />
    <EXPORT ORDINAL="708" NAME="?GetBackColor@LDialog@@QBEKXZ" PURGE="0" COMMENT="" />
    <EXPORT ORDINAL="709" NAME="?GetBackDC@LPaintEffect@@AAEPAUHDC__@@XZ" PURGE="0" COMMENT="" />
    <EXPORT ORDINAL="710" NAME="?GetBackgroundBitmap@LDialog@@QBEPAVLBitmapBase@@XZ" PURGE="0" COMMENT="" />
    <EXPORT ORDINAL="711" NAME="?GetBackgroundColor@LAnimationWindow@@QAEKXZ" PURGE="0" COMMENT="" />
    <EXPORT ORDINAL="712" NAME="?GetBackgroundColor@LBitmapList@@QAEKXZ" PURGE="0" COMMENT="" />
    <EXPORT ORDINAL="713" NAME="?GetBackgroundColor@LPaintEffect@@QAEKXZ" PURGE="0" COMMENT="" />
    <EXPORT ORDINAL="714" NAME="?GetBalance@LMultimedia@@UAEHXZ" PURGE="0" COMMENT="" />
    <EXPORT ORDINAL="715" NAME="?GetBinaryFilter@LDialog@@QAEPAUtagBINARYFLT@@XZ" PURGE="0" COMMENT="" />
    <EXPORT ORDINAL="716" NAME="?GetBitmap@LAnnStamp@@UAEHPAUstruct_LEAD_Bitmap@@@Z" PURGE="4" COMMENT="" />
    <EXPORT ORDINAL="717" NAME="?GetBitmap@LAnnStamp@@UAEHPAVLBitmapBase@@@Z" PURGE="4" COMMENT="" />
    <EXPORT ORDINAL="718" NAME="?GetBitmap@LBitmapList@@EAEPAVLBitmapBase@@XZ" PURGE="0" COMMENT="" />
    <EXPORT ORDINAL="719" NAME="?GetBitmap@LDialog@@QAEPAVLBitmapBase@@XZ" PURGE="0" COMMENT="" />
    <EXPORT ORDINAL="720" NAME="?GetBitmap@LMultimedia@@UAEHPAUstruct_LEAD_Bitmap@@J@Z" PURGE="8" COMMENT="" />
    <EXPORT ORDINAL="721" NAME="?GetBitmap@LMultimedia@@UAEHPAVLBitmapBase@@J@Z" PURGE="8" COMMENT="" />
    <EXPORT ORDINAL="722" NAME="?GetBitmap@LPlayBack@@UAEPAVLBitmapBase@@XZ" PURGE="0" COMMENT="" />
    <EXPORT ORDINAL="723" NAME="?GetBitmapDpiX@LAnnAutomation@@UAENXZ" PURGE="0" COMMENT="" />
    <EXPORT ORDINAL="724" NAME="?GetBitmapDpiY@LAnnAutomation@@UAENXZ" PURGE="0" COMMENT="" />
    <EXPORT ORDINAL="725" NAME="?GetBitmapVisibleRect@LBitmapWindow@@QAEXPAUtagRECT@@@Z" PURGE="4" COMMENT="" />
    <EXPORT ORDINAL="726" NAME="?GetBitmapWnd@LBitmapWindow@@QAEPAUHWND__@@XZ" PURGE="0" COMMENT="" />
    <EXPORT ORDINAL="727" NAME="?GetBitsPerPixel@LBitmapBase@@QAEHXZ" PURGE="0" COMMENT="" />
    <EXPORT ORDINAL="728" NAME="?GetBitsPerPixel@LDialog@@QBEHXZ" PURGE="0" COMMENT="" />
    <EXPORT ORDINAL="729" NAME="?GetBoundingRect@LAnnotation@@UAEHPAUtagRECT@@@Z" PURGE="4" COMMENT="" />
    <EXPORT ORDINAL="730" NAME="?GetBytesPerLine@LBitmapBase@@QAEHXZ" PURGE="0" COMMENT="" />
    <EXPORT ORDINAL="731" NAME="?GetCaptureAreaOptions@LScreenCapture@@UAEHPAUtagLEADCAPTUREAREAOPTION@@@Z" PURGE="4" COMMENT="" />
    <EXPORT ORDINAL="732" NAME="?GetCaptureObjectOptions@LScreenCapture@@UAEHPAUtagLEADCAPTUREOBJECTOPTION@@@Z" PURGE="4" COMMENT="" />
    <EXPORT ORDINAL="733" NAME="?GetCaptureOptions@LScreenCapture@@UAEHPAUtagLEADCAPTUREOPTION@@@Z" PURGE="4" COMMENT="" />
    <EXPORT ORDINAL="734" NAME="?GetChange@LDialog@@QBEHXZ" PURGE="0" COMMENT="" />
    <EXPORT ORDINAL="735" NAME="?GetChannel@LDialog@@QBEIXZ" PURGE="0" COMMENT="" />
    <EXPORT ORDINAL="736" NAME="?GetColorCount@LBitmapBase@@UAEHPAK@Z" PURGE="4" COMMENT="" />
    <EXPORT ORDINAL="737" NAME="?GetColorOrder@LBitmapBase@@QAEHXZ" PURGE="0" COMMENT="" />
    <EXPORT ORDINAL="738" NAME="?GetColorResFlags@LDialog@@QAEKXZ" PURGE="0" COMMENT="" />
    <EXPORT ORDINAL="739" NAME="?GetColors@LBitmapBase@@UAEHHHPAUtagRGBQUAD@@@Z" PURGE="12" COMMENT="" />
    <EXPORT ORDINAL="740" NAME="?GetComment@LFileSettings@@SAHIPAEI@Z" PURGE="0" COMMENT="" />
    <EXPORT ORDINAL="741" NAME="?GetCommentSize@LFile@@UAEHIPAI@Z" PURGE="8" COMMENT="" />
    <EXPORT ORDINAL="742" NAME="?GetCompressStamp@LFile@@UAEHXZ" PURGE="0" COMMENT="" />
    <EXPORT ORDINAL="743" NAME="?GetCompressionOpts@LMultimedia@@UAEHPAUtagCOMPRESSIONOPTS@@@Z" PURGE="4" COMMENT="" />
    <EXPORT ORDINAL="744" NAME="?GetContainer@LAnnotation@@UAEHPAPAX@Z" PURGE="4" COMMENT="" />
    <EXPORT ORDINAL="745" NAME="?GetContainer@LAnnotation@@UAEHPAVLAnnContainer@@@Z" PURGE="4" COMMENT="" />
    <EXPORT ORDINAL="746" NAME="?GetContainerObject@LAnnotationWindow@@QAEAAVLAnnContainer@@XZ" PURGE="0" COMMENT="" />
    <EXPORT ORDINAL="747" NAME="?GetCount@LAnimationWindow@@QBEIXZ" PURGE="0" COMMENT="" />
    <EXPORT ORDINAL="748" NAME="?GetCount@LDictionary@@QAEHXZ" PURGE="0" COMMENT="" />
    <EXPORT ORDINAL="749" NAME="?GetCurrentIndex@LAnimationWindow@@QBEIXZ" PURGE="0" COMMENT="" />
    <EXPORT ORDINAL="750" NAME="?GetCurrentIndex@LBitmapList@@QAEIXZ" PURGE="0" COMMENT="" />
    <EXPORT ORDINAL="751" NAME="?GetCurrentPos@LMultimedia@@UAEHPAJ@Z" PURGE="4" COMMENT="" />
    <EXPORT ORDINAL="752" NAME="?GetDC@LDraw@@QAEPAUHDC__@@XZ" PURGE="0" COMMENT="" />
    <EXPORT ORDINAL="753" NAME="?GetDPIHeight@LBitmapWindow@@AAEHXZ" PURGE="0" COMMENT="" />
    <EXPORT ORDINAL="754" NAME="?GetDPIWidth@LBitmapWindow@@AAEHXZ" PURGE="0" COMMENT="" />
    <EXPORT ORDINAL="755" NAME="?GetDefaultAudFormat@LMMCapture@@UAEHPAUwaveFormatData@@PAIPAD1@Z" PURGE="16" COMMENT="" />
    <EXPORT ORDINAL="756" NAME="?GetDefaultDithering@LBitmapBase@@QAEIXZ" PURGE="0" COMMENT="" />
    <EXPORT ORDINAL="757" NAME="?GetDelay@LAnimationWindow@@QBEHI@Z" PURGE="4" COMMENT="" />
    <EXPORT ORDINAL="758" NAME="?GetDelay@LPlayBack@@UAEKXZ" PURGE="0" COMMENT="" />
    <EXPORT ORDINAL="759" NAME="?GetDepth@LDialog@@QBEIXZ" PURGE="0" COMMENT="" />
    <EXPORT ORDINAL="760" NAME="?GetDimension@LFileSettings@@SAHHPAK0@Z" PURGE="0" COMMENT="" />
    <EXPORT ORDINAL="761" NAME="?GetDirection@LDialog@@QBEIXZ" PURGE="0" COMMENT="" />
    <EXPORT ORDINAL="762" NAME="?GetDisplayMode@LBitmapBase@@QAEKXZ" PURGE="0" COMMENT="" />
    <EXPORT ORDINAL="763" NAME="?GetDisplayMode@LBitmapSettings@@SAKXZ" PURGE="0" COMMENT="" />
    <EXPORT ORDINAL="764" NAME="?GetDisposalMethod@LAnimationWindow@@QBEHI@Z" PURGE="4" COMMENT="" />
    <EXPORT ORDINAL="765" NAME="?GetDistance@LAnnAutomation@@UAENXZ" PURGE="0" COMMENT="" />
    <EXPORT ORDINAL="766" NAME="?GetDistance@LAnnRuler@@UAENXZ" PURGE="0" COMMENT="" />
    <EXPORT ORDINAL="767" NAME="?GetDistance@LAnnotation@@IAENXZ" PURGE="0" COMMENT="" />
    <EXPORT ORDINAL="768" NAME="?GetDitheringMethod@LBitmapBase@@QAEIXZ" PURGE="0" COMMENT="" />
    <EXPORT ORDINAL="769" NAME="?GetDpiX@LAnnAutomation@@UAENXZ" PURGE="0" COMMENT="" />
    <EXPORT ORDINAL="770" NAME="?GetDpiY@LAnnAutomation@@UAENXZ" PURGE="0" COMMENT="" />
    <EXPORT ORDINAL="771" NAME="?GetEditInfo@LMultimedia@@QBEXPAUtagEDITINFO@@@Z" PURGE="4" COMMENT="" />
    <EXPORT ORDINAL="772" NAME="?GetEffectParameters@LBitmapWindow@@QAEHPAU_EFXDLGPARM@@@Z" PURGE="4" COMMENT="" />
    <EXPORT ORDINAL="773" NAME="?GetEffectParameters@LDialog@@QBEXPAU_EFXDLGPARM@@@Z" PURGE="4" COMMENT="" />
    <EXPORT ORDINAL="774" NAME="?GetEffectParameters@LPaintEffect@@QAEHPAU_EFXDLGPARM@@@Z" PURGE="4" COMMENT="" />
    <EXPORT ORDINAL="775" NAME="?GetEndColor@LDialog@@QBEKXZ" PURGE="0" COMMENT="" />
    <EXPORT ORDINAL="776" NAME="?GetErrorFromList@LBase@@SAHI@Z" PURGE="0" COMMENT="" />
    <EXPORT ORDINAL="777" NAME="?GetErrorListDepth@LBase@@SAIXZ" PURGE="0" COMMENT="" />
    <EXPORT ORDINAL="778" NAME="?GetErrorString@LBase@@SAPADH@Z" PURGE="0" COMMENT="" />
    <EXPORT ORDINAL="779" NAME="?GetErrorsNumber@LBase@@SAIXZ" PURGE="0" COMMENT="" />
    <EXPORT ORDINAL="780" NAME="?GetExtFileOption@LFileSettings@@SAHPAU_EXTFILEOPTION@@@Z" PURGE="0" COMMENT="" />
    <EXPORT ORDINAL="781" NAME="?GetFileName@LBitmapBase@@QAEHPADPAI@Z" PURGE="8" COMMENT="" />
    <EXPORT ORDINAL="782" NAME="?GetFileName@LDialog@@QBEXPADH@Z" PURGE="8" COMMENT="" />
    <EXPORT ORDINAL="783" NAME="?GetFileName@LFile@@QAEHPADPAI@Z" PURGE="8" COMMENT="" />
    <EXPORT ORDINAL="784" NAME="?GetFileName@LFile@@QAEPADXZ" PURGE="0" COMMENT="" />
    <EXPORT ORDINAL="785" NAME="?GetFileOpenParameters@LDialog@@QBEXPAU_FILEOPENPARM@@@Z" PURGE="4" COMMENT="" />
    <EXPORT ORDINAL="786" NAME="?GetFileSaveParameters@LDialog@@QBEXPAU_FILESAVEPARM@@@Z" PURGE="4" COMMENT="" />
    <EXPORT ORDINAL="787" NAME="?GetFillBitmap@LPaintEffect@@QAEPAVLBitmapBase@@XZ" PURGE="0" COMMENT="" />
    <EXPORT ORDINAL="788" NAME="?GetFillMode@LAnnAutomation@@UAEIXZ" PURGE="0" COMMENT="" />
    <EXPORT ORDINAL="789" NAME="?GetFillMode@LAnnContainer@@UAEIXZ" PURGE="0" COMMENT="" />
    <EXPORT ORDINAL="790" NAME="?GetFillMode@LAnnEllipse@@UAEIXZ" PURGE="0" COMMENT="" />
    <EXPORT ORDINAL="791" NAME="?GetFillMode@LAnnPolygon@@UAEIXZ" PURGE="0" COMMENT="" />
    <EXPORT ORDINAL="792" NAME="?GetFillMode@LAnnRectangle@@UAEIXZ" PURGE="0" COMMENT="" />
    <EXPORT ORDINAL="793" NAME="?GetFillMode@LAnnStamp@@UAEIXZ" PURGE="0" COMMENT="" />
    <EXPORT ORDINAL="794" NAME="?GetFillMode@LAnnText@@UAEIXZ" PURGE="0" COMMENT="" />
    <EXPORT ORDINAL="795" NAME="?GetFillMode@LAnnotation@@IAEIXZ" PURGE="0" COMMENT="" />
    <EXPORT ORDINAL="796" NAME="?GetFillPattern@LAnnAutomation@@UAEIXZ" PURGE="0" COMMENT="" />
    <EXPORT ORDINAL="797" NAME="?GetFillPattern@LAnnContainer@@UAEIXZ" PURGE="0" COMMENT="" />
    <EXPORT ORDINAL="798" NAME="?GetFillPattern@LAnnEllipse@@UAEIXZ" PURGE="0" COMMENT="" />
    <EXPORT ORDINAL="799" NAME="?GetFillPattern@LAnnPolygon@@UAEIXZ" PURGE="0" COMMENT="" />
    <EXPORT ORDINAL="800" NAME="?GetFillPattern@LAnnRectangle@@UAEIXZ" PURGE="0" COMMENT="" />
    <EXPORT ORDINAL="801" NAME="?GetFillPattern@LAnnStamp@@UAEIXZ" PURGE="0" COMMENT="" />
    <EXPORT ORDINAL="802" NAME="?GetFillPattern@LAnnotation@@IAEIXZ" PURGE="0" COMMENT="" />
    <EXPORT ORDINAL="803" NAME="?GetFirstItem@LBitmapList@@QAEHPAVLBitmapBase@@@Z" PURGE="4" COMMENT="" />
    <EXPORT ORDINAL="804" NAME="?GetFixedPalette@LBitmapBase@@UAEHPAUtagRGBQUAD@@H@Z" PURGE="8" COMMENT="" />
    <EXPORT ORDINAL="805" NAME="?GetFontName@LAnnAutomation@@UAEHPAD@Z" PURGE="4" COMMENT="" />
    <EXPORT ORDINAL="806" NAME="?GetFontName@LAnnNote@@UAEHPAD@Z" PURGE="4" COMMENT="" />
    <EXPORT ORDINAL="807" NAME="?GetFontName@LAnnRuler@@UAEHPAD@Z" PURGE="4" COMMENT="" />
    <EXPORT ORDINAL="808" NAME="?GetFontName@LAnnStamp@@UAEHPAD@Z" PURGE="4" COMMENT="" />
    <EXPORT ORDINAL="809" NAME="?GetFontName@LAnnText@@UAEHPAD@Z" PURGE="4" COMMENT="" />
    <EXPORT ORDINAL="810" NAME="?GetFontName@LAnnotation@@IAEHPAD@Z" PURGE="4" COMMENT="" />
    <EXPORT ORDINAL="811" NAME="?GetFontNameLen@LAnnAutomation@@UAEIXZ" PURGE="0" COMMENT="" />
    <EXPORT ORDINAL="812" NAME="?GetFontNameLen@LAnnNote@@UAEIXZ" PURGE="0" COMMENT="" />
    <EXPORT ORDINAL="813" NAME="?GetFontNameLen@LAnnRuler@@UAEIXZ" PURGE="0" COMMENT="" />
    <EXPORT ORDINAL="814" NAME="?GetFontNameLen@LAnnStamp@@UAEIXZ" PURGE="0" COMMENT="" />
    <EXPORT ORDINAL="815" NAME="?GetFontNameLen@LAnnText@@UAEIXZ" PURGE="0" COMMENT="" />
    <EXPORT ORDINAL="816" NAME="?GetFontNameLen@LAnnotation@@IAEIXZ" PURGE="0" COMMENT="" />
    <EXPORT ORDINAL="817" NAME="?GetFontSize@LAnnAutomation@@UAENXZ" PURGE="0" COMMENT="" />
    <EXPORT ORDINAL="818" NAME="?GetFontSize@LAnnNote@@UAENXZ" PURGE="0" COMMENT="" />
    <EXPORT ORDINAL="819" NAME="?GetFontSize@LAnnRuler@@UAENXZ" PURGE="0" COMMENT="" />
    <EXPORT ORDINAL="820" NAME="?GetFontSize@LAnnStamp@@UAENXZ" PURGE="0" COMMENT="" />
    <EXPORT ORDINAL="821" NAME="?GetFontSize@LAnnText@@UAENXZ" PURGE="0" COMMENT="" />
    <EXPORT ORDINAL="822" NAME="?GetFontSize@LAnnotation@@IAENXZ" PURGE="0" COMMENT="" />
    <EXPORT ORDINAL="823" NAME="?GetForeColor@LAnnAutomation@@UAEKXZ" PURGE="0" COMMENT="" />
    <EXPORT ORDINAL="824" NAME="?GetForeColor@LAnnButton@@UAEKXZ" PURGE="0" COMMENT="" />
    <EXPORT ORDINAL="825" NAME="?GetForeColor@LAnnContainer@@UAEKXZ" PURGE="0" COMMENT="" />
    <EXPORT ORDINAL="826" NAME="?GetForeColor@LAnnEllipse@@UAEKXZ" PURGE="0" COMMENT="" />
    <EXPORT ORDINAL="827" NAME="?GetForeColor@LAnnFreehand@@UAEKXZ" PURGE="0" COMMENT="" />
    <EXPORT ORDINAL="828" NAME="?GetForeColor@LAnnLine@@UAEKXZ" PURGE="0" COMMENT="" />
    <EXPORT ORDINAL="829" NAME="?GetForeColor@LAnnNote@@UAEKXZ" PURGE="0" COMMENT="" />
    <EXPORT ORDINAL="830" NAME="?GetForeColor@LAnnPointer@@UAEKXZ" PURGE="0" COMMENT="" />
    <EXPORT ORDINAL="831" NAME="?GetForeColor@LAnnPolygon@@UAEKXZ" PURGE="0" COMMENT="" />
    <EXPORT ORDINAL="832" NAME="?GetForeColor@LAnnPolyline@@UAEKXZ" PURGE="0" COMMENT="" />
    <EXPORT ORDINAL="833" NAME="?GetForeColor@LAnnRectangle@@UAEKXZ" PURGE="0" COMMENT="" />
    <EXPORT ORDINAL="834" NAME="?GetForeColor@LAnnRuler@@UAEKXZ" PURGE="0" COMMENT="" />
    <EXPORT ORDINAL="835" NAME="?GetForeColor@LAnnStamp@@UAEKXZ" PURGE="0" COMMENT="" />
    <EXPORT ORDINAL="836" NAME="?GetForeColor@LAnnText@@UAEKXZ" PURGE="0" COMMENT="" />
    <EXPORT ORDINAL="837" NAME="?GetForeColor@LAnnotation@@IAEKXZ" PURGE="0" COMMENT="" />
    <EXPORT ORDINAL="838" NAME="?GetForegroundBitmap@LDialog@@QBEPAVLBitmapBase@@XZ" PURGE="0" COMMENT="" />
    <EXPORT ORDINAL="839" NAME="?GetForegroundColor@LPaintEffect@@QAEKXZ" PURGE="0" COMMENT="" />
    <EXPORT ORDINAL="840" NAME="?GetFrame@LMMCapture@@UAEHXZ" PURGE="0" COMMENT="" />
    <EXPORT ORDINAL="841" NAME="?GetGamma@LDialog@@QBEIXZ" PURGE="0" COMMENT="" />
    <EXPORT ORDINAL="842" NAME="?GetGaugeLength@LAnnAutomation@@UAENXZ" PURGE="0" COMMENT="" />
    <EXPORT ORDINAL="843" NAME="?GetGaugeLength@LAnnRuler@@UAENXZ" PURGE="0" COMMENT="" />
    <EXPORT ORDINAL="844" NAME="?GetGaugeLength@LAnnotation@@IAENXZ" PURGE="0" COMMENT="" />
    <EXPORT ORDINAL="845" NAME="?GetGlobalHeight@LBitmapList@@QAEHXZ" PURGE="0" COMMENT="" />
    <EXPORT ORDINAL="846" NAME="?GetGlobalLoop@LBitmapList@@QAEIXZ" PURGE="0" COMMENT="" />
    <EXPORT ORDINAL="847" NAME="?GetGlobalWidth@LBitmapList@@QAEHXZ" PURGE="0" COMMENT="" />
    <EXPORT ORDINAL="848" NAME="?GetGradientParameters@LBitmapWindow@@QAEHPAU_GRADDLGPARM@@@Z" PURGE="4" COMMENT="" />
    <EXPORT ORDINAL="849" NAME="?GetGradientParameters@LDialog@@QBEXPAU_GRADDLGPARM@@@Z" PURGE="4" COMMENT="" />
    <EXPORT ORDINAL="850" NAME="?GetGradientParameters@LPaintEffect@@QAEHPAU_GRADDLGPARM@@@Z" PURGE="4" COMMENT="" />
    <EXPORT ORDINAL="851" NAME="?GetGradientStyle@LBitmapWindow@@QAEIXZ" PURGE="0" COMMENT="" />
    <EXPORT ORDINAL="852" NAME="?GetHandle@LAnnotation@@QAEPAXXZ" PURGE="0" COMMENT="" />
    <EXPORT ORDINAL="853" NAME="?GetHandle@LBitmapBase@@QAEPAUstruct_LEAD_Bitmap@@XZ" PURGE="0" COMMENT="" />
    <EXPORT ORDINAL="854" NAME="?GetHandle@LBitmapList@@QAEPAXXZ" PURGE="0" COMMENT="" />
    <EXPORT ORDINAL="855" NAME="?GetHandle@LBuffer@@QAEPAXXZ" PURGE="0" COMMENT="" />
    <EXPORT ORDINAL="856" NAME="?GetHandle@LInet@@QBEIXZ" PURGE="0" COMMENT="" />
    <EXPORT ORDINAL="857" NAME="?GetHandle@LPlayBack@@AAEPAXXZ" PURGE="0" COMMENT="" />
    <EXPORT ORDINAL="858" NAME="?GetHeight@LBitmapBase@@QAEHXZ" PURGE="0" COMMENT="" />
    <EXPORT ORDINAL="859" NAME="?GetHeight@LMultimedia@@QBEHXZ" PURGE="0" COMMENT="" />
    <EXPORT ORDINAL="860" NAME="?GetHelpCallback@LDialog@@AAEP6AXK@ZXZ" PURGE="0" COMMENT="" />
    <EXPORT ORDINAL="861" NAME="?GetHighBit@LDialog@@QBEHXZ" PURGE="0" COMMENT="" />
    <EXPORT ORDINAL="862" NAME="?GetHighLevel@LDialog@@QBEIXZ" PURGE="0" COMMENT="" />
    <EXPORT ORDINAL="863" NAME="?GetHighRange@LDialog@@QBEIXZ" PURGE="0" COMMENT="" />
    <EXPORT ORDINAL="864" NAME="?GetHistogram@LBitmap@@UAEHPAKI@Z" PURGE="8" COMMENT="" />
    <EXPORT ORDINAL="865" NAME="?GetHorzLineStep@LBitmapWindow@@QAEIXZ" PURGE="0" COMMENT="" />
    <EXPORT ORDINAL="866" NAME="?GetHostName@LInet@@UAEHPADPAKH@Z" PURGE="12" COMMENT="" />
    <EXPORT ORDINAL="867" NAME="?GetHwnd@LMMCapture@@UAEPAUHWND__@@XZ" PURGE="0" COMMENT="" />
    <EXPORT ORDINAL="868" NAME="?GetHyperlink@LAnnotation@@UAEHPAI00PAD@Z" PURGE="16" COMMENT="" />
    <EXPORT ORDINAL="869" NAME="?GetHyperlinkLen@LAnnotation@@UAEIXZ" PURGE="0" COMMENT="" />
    <EXPORT ORDINAL="870" NAME="?GetIDFromAud@LMMCapture@@UAEHPAUwaveFormatData@@PAI@Z" PURGE="8" COMMENT="" />
    <EXPORT ORDINAL="871" NAME="?GetIndex@LPlayBack@@UAEHXZ" PURGE="0" COMMENT="" />
    <EXPORT ORDINAL="872" NAME="?GetInfo@LFile@@UAEHPAUstruct_file_information@@I@Z" PURGE="8" COMMENT="" />
    <EXPORT ORDINAL="873" NAME="?GetInfo@LMemoryFile@@UAEHAAVLBuffer@@PAUstruct_file_information@@I@Z" PURGE="12" COMMENT="" />
    <EXPORT ORDINAL="874" NAME="?GetInnerBandHilite@LPaintEffect@@QAEKXZ" PURGE="0" COMMENT="" />
    <EXPORT ORDINAL="875" NAME="?GetInnerBandShadowColor@LPaintEffect@@QAEKXZ" PURGE="0" COMMENT="" />
    <EXPORT ORDINAL="876" NAME="?GetInnerBandWidth@LPaintEffect@@QAEIXZ" PURGE="0" COMMENT="" />
    <EXPORT ORDINAL="877" NAME="?GetItem@LAnnContainer@@UAEHPAPAX@Z" PURGE="4" COMMENT="" />
    <EXPORT ORDINAL="878" NAME="?GetItem@LAnnContainer@@UAEPAVLAnnotation@@XZ" PURGE="0" COMMENT="" />
    <EXPORT ORDINAL="879" NAME="?GetItem@LBitmapList@@UAEHIPAVLBitmapBase@@I@Z" PURGE="12" COMMENT="" />
    <EXPORT ORDINAL="880" NAME="?GetItem@LDictionary@@QAEPAXH@Z" PURGE="4" COMMENT="" />
    <EXPORT ORDINAL="881" NAME="?GetItem@LInet@@QAEHIPAV1@@Z" PURGE="8" COMMENT="" />
    <EXPORT ORDINAL="882" NAME="?GetItemsCount@LBitmapList@@UAEIXZ" PURGE="0" COMMENT="" />
    <EXPORT ORDINAL="883" NAME="?GetItemsCount@LInet@@QAEIXZ" PURGE="0" COMMENT="" />
    <EXPORT ORDINAL="884" NAME="?GetLastItem@LBitmapList@@QAEHPAVLBitmapBase@@@Z" PURGE="4" COMMENT="" />
    <EXPORT ORDINAL="885" NAME="?GetLength@LMultimedia@@QBEHXZ" PURGE="0" COMMENT="" />
    <EXPORT ORDINAL="886" NAME="?GetLineStyle@LAnnAutomation@@UAEIXZ" PURGE="0" COMMENT="" />
    <EXPORT ORDINAL="887" NAME="?GetLineStyle@LAnnContainer@@UAEIXZ" PURGE="0" COMMENT="" />
    <EXPORT ORDINAL="888" NAME="?GetLineStyle@LAnnEllipse@@UAEIXZ" PURGE="0" COMMENT="" />
    <EXPORT ORDINAL="889" NAME="?GetLineStyle@LAnnFreehand@@UAEIXZ" PURGE="0" COMMENT="" />
    <EXPORT ORDINAL="890" NAME="?GetLineStyle@LAnnLine@@UAEIXZ" PURGE="0" COMMENT="" />
    <EXPORT ORDINAL="891" NAME="?GetLineStyle@LAnnPointer@@UAEIXZ" PURGE="0" COMMENT="" />
    <EXPORT ORDINAL="892" NAME="?GetLineStyle@LAnnPolygon@@UAEIXZ" PURGE="0" COMMENT="" />
    <EXPORT ORDINAL="893" NAME="?GetLineStyle@LAnnPolyline@@UAEIXZ" PURGE="0" COMMENT="" />
    <EXPORT ORDINAL="894" NAME="?GetLineStyle@LAnnRectangle@@UAEIXZ" PURGE="0" COMMENT="" />
    <EXPORT ORDINAL="895" NAME="?GetLineStyle@LAnnRuler@@UAEIXZ" PURGE="0" COMMENT="" />
    <EXPORT ORDINAL="896" NAME="?GetLineStyle@LAnnStamp@@UAEIXZ" PURGE="0" COMMENT="" />
    <EXPORT ORDINAL="897" NAME="?GetLineStyle@LAnnotation@@IAEIXZ" PURGE="0" COMMENT="" />
    <EXPORT ORDINAL="898" NAME="?GetLineWidth@LAnnAutomation@@UAENXZ" PURGE="0" COMMENT="" />
    <EXPORT ORDINAL="899" NAME="?GetLineWidth@LAnnContainer@@UAENXZ" PURGE="0" COMMENT="" />
    <EXPORT ORDINAL="900" NAME="?GetLineWidth@LAnnEllipse@@UAENXZ" PURGE="0" COMMENT="" />
    <EXPORT ORDINAL="901" NAME="?GetLineWidth@LAnnFreehand@@UAENXZ" PURGE="0" COMMENT="" />
    <EXPORT ORDINAL="902" NAME="?GetLineWidth@LAnnLine@@UAENXZ" PURGE="0" COMMENT="" />
    <EXPORT ORDINAL="903" NAME="?GetLineWidth@LAnnPointer@@UAENXZ" PURGE="0" COMMENT="" />
    <EXPORT ORDINAL="904" NAME="?GetLineWidth@LAnnPolygon@@UAENXZ" PURGE="0" COMMENT="" />
    <EXPORT ORDINAL="905" NAME="?GetLineWidth@LAnnPolyline@@UAENXZ" PURGE="0" COMMENT="" />
    <EXPORT ORDINAL="906" NAME="?GetLineWidth@LAnnRectangle@@UAENXZ" PURGE="0" COMMENT="" />
    <EXPORT ORDINAL="907" NAME="?GetLineWidth@LAnnRuler@@UAENXZ" PURGE="0" COMMENT="" />
    <EXPORT ORDINAL="908" NAME="?GetLineWidth@LAnnStamp@@UAENXZ" PURGE="0" COMMENT="" />
    <EXPORT ORDINAL="909" NAME="?GetLineWidth@LAnnotation@@IAENXZ" PURGE="0" COMMENT="" />
    <EXPORT ORDINAL="910" NAME="?GetLoadedLibraries@LBase@@SAKXZ" PURGE="0" COMMENT="" />
    <EXPORT ORDINAL="911" NAME="?GetLookUpTable@LDialog@@QBEPAUtagRGBQUAD@@XZ" PURGE="0" COMMENT="" />
    <EXPORT ORDINAL="912" NAME="?GetLookUpTableLength@LDialog@@QBEIXZ" PURGE="0" COMMENT="" />
    <EXPORT ORDINAL="913" NAME="?GetLowBit@LDialog@@QBEHXZ" PURGE="0" COMMENT="" />
    <EXPORT ORDINAL="914" NAME="?GetLowLevel@LDialog@@QBEIXZ" PURGE="0" COMMENT="" />
    <EXPORT ORDINAL="915" NAME="?GetLowRange@LDialog@@QBEIXZ" PURGE="0" COMMENT="" />
    <EXPORT ORDINAL="916" NAME="?GetMaxEffectPasses@LBitmapWindow@@QAEIXZ" PURGE="0" COMMENT="" />
    <EXPORT ORDINAL="917" NAME="?GetMaxTransitionPasses@LBitmapWindow@@QAEIXZ" PURGE="0" COMMENT="" />
    <EXPORT ORDINAL="918" NAME="?GetMemSize@LBitmapBase@@QAEKXZ" PURGE="0" COMMENT="" />
    <EXPORT ORDINAL="919" NAME="?GetMetrics@LMMCapture@@UAEHIPAX@Z" PURGE="8" COMMENT="" />
    <EXPORT ORDINAL="920" NAME="?GetMiddleBandColor@LPaintEffect@@QAEKXZ" PURGE="0" COMMENT="" />
    <EXPORT ORDINAL="921" NAME="?GetMiddleBandWidth@LPaintEffect@@QAEIXZ" PURGE="0" COMMENT="" />
    <EXPORT ORDINAL="922" NAME="?GetMinMaxBits@LBitmap@@UAEHPAH0@Z" PURGE="8" COMMENT="" />
    <EXPORT ORDINAL="923" NAME="?GetMinMaxVal@LBitmap@@UAEHPAI0@Z" PURGE="8" COMMENT="" />
    <EXPORT ORDINAL="924" NAME="?GetMute@LMMCapture@@UAEHKKPAI@Z" PURGE="12" COMMENT="" />
    <EXPORT ORDINAL="925" NAME="?GetNewHeight@LDialog@@QBEHXZ" PURGE="0" COMMENT="" />
    <EXPORT ORDINAL="926" NAME="?GetNewWidth@LDialog@@QBEHXZ" PURGE="0" COMMENT="" />
    <EXPORT ORDINAL="927" NAME="?GetNextItem@LBitmapList@@QAEHPAVLBitmapBase@@@Z" PURGE="4" COMMENT="" />
    <EXPORT ORDINAL="928" NAME="?GetOffsetX@LAnnotation@@UAENXZ" PURGE="0" COMMENT="" />
    <EXPORT ORDINAL="929" NAME="?GetOffsetY@LAnnotation@@UAENXZ" PURGE="0" COMMENT="" />
    <EXPORT ORDINAL="930" NAME="?GetOpenFileNameA@LDialog@@QAEXPAUtagOFNA@@@Z" PURGE="4" COMMENT="" />
    <EXPORT ORDINAL="931" NAME="?GetOpenMode@LMultimedia@@QBEHXZ" PURGE="0" COMMENT="" />
    <EXPORT ORDINAL="932" NAME="?GetOptions@LMMCapture@@UAEHPAUtagCAPTUREOPTIONS@@@Z" PURGE="4" COMMENT="" />
    <EXPORT ORDINAL="933" NAME="?GetOuterBandHilite@LPaintEffect@@QAEKXZ" PURGE="0" COMMENT="" />
    <EXPORT ORDINAL="934" NAME="?GetOuterBandShadowColor@LPaintEffect@@QAEKXZ" PURGE="0" COMMENT="" />
    <EXPORT ORDINAL="935" NAME="?GetOuterBandWidth@LPaintEffect@@QAEIXZ" PURGE="0" COMMENT="" />
    <EXPORT ORDINAL="936" NAME="?GetPCDResolution@LFile@@UAEHPAUpcdinfo@@@Z" PURGE="4" COMMENT="" />
    <EXPORT ORDINAL="937" NAME="?GetPCDResolution@LFileSettings@@SAHPADPAUpcdinfo@@@Z" PURGE="0" COMMENT="" />
    <EXPORT ORDINAL="938" NAME="?GetPaintContrast@LBitmapBase@@QAEHXZ" PURGE="0" COMMENT="" />
    <EXPORT ORDINAL="939" NAME="?GetPaintContrast@LBitmapSettings@@SAHXZ" PURGE="0" COMMENT="" />
    <EXPORT ORDINAL="940" NAME="?GetPaintEffect@LBitmapWindow@@QAEIXZ" PURGE="0" COMMENT="" />
    <EXPORT ORDINAL="941" NAME="?GetPaintGamma@LBitmapBase@@QAEIXZ" PURGE="0" COMMENT="" />
    <EXPORT ORDINAL="942" NAME="?GetPaintGamma@LBitmapSettings@@SAIXZ" PURGE="0" COMMENT="" />
    <EXPORT ORDINAL="943" NAME="?GetPaintIntensity@LBitmapBase@@QAEHXZ" PURGE="0" COMMENT="" />
    <EXPORT ORDINAL="944" NAME="?GetPaintIntensity@LBitmapSettings@@SAHXZ" PURGE="0" COMMENT="" />
    <EXPORT ORDINAL="945" NAME="?GetPalette@LBitmapBase@@QAEPAUHPALETTE__@@XZ" PURGE="0" COMMENT="" />
    <EXPORT ORDINAL="946" NAME="?GetPalette@LBitmapList@@QAEPAUtagRGBQUAD@@XZ" PURGE="0" COMMENT="" />
    <EXPORT ORDINAL="947" NAME="?GetPanWnd@LBitmapWindow@@QAEPAUHWND__@@XZ" PURGE="0" COMMENT="" />
    <EXPORT ORDINAL="948" NAME="?GetPatternBackColor@LBitmapWindow@@QAEKXZ" PURGE="0" COMMENT="" />
    <EXPORT ORDINAL="949" NAME="?GetPatternForeColor@LBitmapWindow@@QAEKXZ" PURGE="0" COMMENT="" />
    <EXPORT ORDINAL="950" NAME="?GetPatternStyle@LBitmapWindow@@QAEIXZ" PURGE="0" COMMENT="" />
    <EXPORT ORDINAL="951" NAME="?GetPixelColor@LBitmapBase@@UAEKHH@Z" PURGE="8" COMMENT="" />
    <EXPORT ORDINAL="952" NAME="?GetPlayBackBackGroundColor@LBitmapBase@@QAEKXZ" PURGE="0" COMMENT="" />
    <EXPORT ORDINAL="953" NAME="?GetPlayBackDelay@LBitmapBase@@QAEKXZ" PURGE="0" COMMENT="" />
    <EXPORT ORDINAL="954" NAME="?GetPlayBackDisposalMethod@LBitmapBase@@QAEIXZ" PURGE="0" COMMENT="" />
    <EXPORT ORDINAL="955" NAME="?GetPlayBackLeft@LBitmapBase@@QAEHXZ" PURGE="0" COMMENT="" />
    <EXPORT ORDINAL="956" NAME="?GetPlayBackTop@LBitmapBase@@QAEHXZ" PURGE="0" COMMENT="" />
    <EXPORT ORDINAL="957" NAME="?GetPlayBackTransparentColor@LBitmapBase@@QAEKXZ" PURGE="0" COMMENT="" />
    <EXPORT ORDINAL="958" NAME="?GetPointCount@LAnnFreehand@@UAEIXZ" PURGE="0" COMMENT="" />
    <EXPORT ORDINAL="959" NAME="?GetPointCount@LAnnPolygon@@UAEIXZ" PURGE="0" COMMENT="" />
    <EXPORT ORDINAL="960" NAME="?GetPointCount@LAnnPolyline@@UAEIXZ" PURGE="0" COMMENT="" />
    <EXPORT ORDINAL="961" NAME="?GetPointCount@LAnnotation@@IAEIXZ" PURGE="0" COMMENT="" />
    <EXPORT ORDINAL="962" NAME="?GetPoints@LAnnFreehand@@UAEHPAU_ANNPOINT@@@Z" PURGE="4" COMMENT="" />
    <EXPORT ORDINAL="963" NAME="?GetPoints@LAnnPolygon@@UAEHPAU_ANNPOINT@@@Z" PURGE="4" COMMENT="" />
    <EXPORT ORDINAL="964" NAME="?GetPoints@LAnnPolyline@@UAEHPAU_ANNPOINT@@@Z" PURGE="4" COMMENT="" />
    <EXPORT ORDINAL="965" NAME="?GetPoints@LAnnotation@@IAEHPAU_ANNPOINT@@@Z" PURGE="4" COMMENT="" />
    <EXPORT ORDINAL="966" NAME="?GetPolyFillMode@LAnnAutomation@@UAEIXZ" PURGE="0" COMMENT="" />
    <EXPORT ORDINAL="967" NAME="?GetPolyFillMode@LAnnPolygon@@UAEIXZ" PURGE="0" COMMENT="" />
    <EXPORT ORDINAL="968" NAME="?GetPolyFillMode@LAnnotation@@IAEIXZ" PURGE="0" COMMENT="" />
    <EXPORT ORDINAL="969" NAME="?GetPosition@LAnimationWindow@@QBEHPAH0I@Z" PURGE="12" COMMENT="" />
    <EXPORT ORDINAL="970" NAME="?GetPreviousItem@LBitmapList@@QAEHPAVLBitmapBase@@@Z" PURGE="4" COMMENT="" />
    <EXPORT ORDINAL="971" NAME="?GetPrinterDC@LPrint@@QAEPAUHDC__@@XZ" PURGE="0" COMMENT="" />
    <EXPORT ORDINAL="972" NAME="?GetProcess@LDialog@@QBEKXZ" PURGE="0" COMMENT="" />
    <EXPORT ORDINAL="973" NAME="?GetProperQualityFactor@LFile@@SAHH@Z" PURGE="0" COMMENT="" />
    <EXPORT ORDINAL="974" NAME="?GetProperties@LTwain@@UAEHPAUstruct_twain_properties@@@Z" PURGE="4" COMMENT="" />
    <EXPORT ORDINAL="975" NAME="?GetQueueSize@LInet@@UAEKXZ" PURGE="0" COMMENT="" />
    <EXPORT ORDINAL="976" NAME="?GetROP2@LAnnotation@@UAEIXZ" PURGE="0" COMMENT="" />
    <EXPORT ORDINAL="977" NAME="?GetROP3@LBitmapWindow@@QAEKXZ" PURGE="0" COMMENT="" />
    <EXPORT ORDINAL="978" NAME="?GetRange@LDialog@@QBEHXZ" PURGE="0" COMMENT="" />
    <EXPORT ORDINAL="979" NAME="?GetRate@LMultimedia@@UAENXZ" PURGE="0" COMMENT="" />
    <EXPORT ORDINAL="980" NAME="?GetRect@LAnnotation@@UAEHPAU_ANNRECT@@@Z" PURGE="4" COMMENT="" />
    <EXPORT ORDINAL="981" NAME="?GetRects@LBitmapBase@@UAEXPAUtagRECT@@000@Z" PURGE="16" COMMENT="" />
    <EXPORT ORDINAL="982" NAME="?GetRedirectIOFlags@LBaseFile@@QAEIXZ" PURGE="0" COMMENT="" />
    <EXPORT ORDINAL="983" NAME="?GetRegionType@LBitmapWindow@@QAEIXZ" PURGE="0" COMMENT="" />
    <EXPORT ORDINAL="984" NAME="?GetRemainingDelay@LAnimationWindow@@QAEKXZ" PURGE="0" COMMENT="" />
    <EXPORT ORDINAL="985" NAME="?GetRgnArea@LBitmapRgn@@UAEHPAK@Z" PURGE="4" COMMENT="" />
    <EXPORT ORDINAL="986" NAME="?GetRgnBounds@LBitmapRgn@@UAEHPAUtagRECT@@@Z" PURGE="4" COMMENT="" />
    <EXPORT ORDINAL="987" NAME="?GetRgnCombineMode@LBitmapRgn@@QAEIXZ" PURGE="0" COMMENT="" />
    <EXPORT ORDINAL="988" NAME="?GetRgnFrameType@LBitmapWindow@@QAEIXZ" PURGE="0" COMMENT="" />
    <EXPORT ORDINAL="989" NAME="?GetRgnHandle@LBitmapRgn@@UAEPAUHRGN__@@XZ" PURGE="0" COMMENT="" />
    <EXPORT ORDINAL="990" NAME="?GetRgnXForm@LBitmapRgn@@QAEIPAU_RGNXFORM@@@Z" PURGE="4" COMMENT="" />
    <EXPORT ORDINAL="991" NAME="?GetRow@LBitmapBase@@UAEJPAVLBuffer@@H@Z" PURGE="8" COMMENT="" />
    <EXPORT ORDINAL="992" NAME="?GetRowCol@LBitmapBase@@UAEJPAVLBuffer@@HH@Z" PURGE="12" COMMENT="" />
    <EXPORT ORDINAL="993" NAME="?GetRowColCompressed@LBitmapBase@@UAEJPAVLBuffer@@HHK0@Z" PURGE="20" COMMENT="" />
    <EXPORT ORDINAL="994" NAME="?GetRowCompressed@LBitmapBase@@UAEHPAVLBuffer@@HH0@Z" PURGE="16" COMMENT="" />
    <EXPORT ORDINAL="995" NAME="?GetSaveFormatFlags@LDialog@@QBEKXZ" PURGE="0" COMMENT="" />
    <EXPORT ORDINAL="996" NAME="?GetSaveResolution@LFileSettings@@SAHPAIPAU_DIMENSION@@@Z" PURGE="0" COMMENT="" />
    <EXPORT ORDINAL="997" NAME="?GetScalarX@LAnnotation@@UAENXZ" PURGE="0" COMMENT="" />
    <EXPORT ORDINAL="998" NAME="?GetScalarY@LAnnotation@@UAENXZ" PURGE="0" COMMENT="" />
    <EXPORT ORDINAL="999" NAME="?GetScreenFloaterRgn@LBitmapWindow@@AAEPAUHRGN__@@XZ" PURGE="0" COMMENT="" />
    <EXPORT ORDINAL="1000" NAME="?GetSelect@LMMCapture@@UAEHKKPAI@Z" PURGE="12" COMMENT="" />
    <EXPORT ORDINAL="1001" NAME="?GetSelectCount@LAnnContainer@@UAEIXZ" PURGE="0" COMMENT="" />
    <EXPORT ORDINAL="1002" NAME="?GetSelectItems@LAnnContainer@@UAEHPAPAX@Z" PURGE="4" COMMENT="" />
    <EXPORT ORDINAL="1003" NAME="?GetSelectRect@LAnnContainer@@UAEHPAUtagRECT@@@Z" PURGE="4" COMMENT="" />
    <EXPORT ORDINAL="1004" NAME="?GetServer@LInetClient@@QAEAAVLInetServer@@XZ" PURGE="0" COMMENT="" />
    <EXPORT ORDINAL="1005" NAME="?GetShapeParameters@LDialog@@QBEXPAU_SHAPEDLGPARM@@@Z" PURGE="4" COMMENT="" />
    <EXPORT ORDINAL="1006" NAME="?GetShapeParameters@LPaintEffect@@QAEHPAU_SHAPEDLGPARM@@@Z" PURGE="4" COMMENT="" />
    <EXPORT ORDINAL="1007" NAME="?GetSize@LBuffer@@QAEKXZ" PURGE="0" COMMENT="" />
    <EXPORT ORDINAL="1008" NAME="?GetSpatialFilter@LDialog@@QAEPAUtagSPATIALFLT@@XZ" PURGE="0" COMMENT="" />
    <EXPORT ORDINAL="1009" NAME="?GetStartColor@LDialog@@QBEKXZ" PURGE="0" COMMENT="" />
    <EXPORT ORDINAL="1010" NAME="?GetState@LPlayBack@@UAEIXZ" PURGE="0" COMMENT="" />
    <EXPORT ORDINAL="1011" NAME="?GetStatus@LMMCapture@@UAEHPAUtagCAPSTATUSINFO@@@Z" PURGE="4" COMMENT="" />
    <EXPORT ORDINAL="1012" NAME="?GetStreamType@LMultimedia@@UAEHHPAI@Z" PURGE="8" COMMENT="" />
    <EXPORT ORDINAL="1013" NAME="?GetTag@LAnnotation@@UAEKXZ" PURGE="0" COMMENT="" />
    <EXPORT ORDINAL="1014" NAME="?GetTag@LFileSettings@@SAJGPAGPAKPAX@Z" PURGE="0" COMMENT="" />
    <EXPORT ORDINAL="1015" NAME="?GetTagLong@LIsis@@UAEHIPAJ@Z" PURGE="8" COMMENT="" />
    <EXPORT ORDINAL="1016" NAME="?GetTagShort@LIsis@@UAEHIPAH@Z" PURGE="8" COMMENT="" />
    <EXPORT ORDINAL="1017" NAME="?GetText@LAnnAudioClip@@UAEHPAD@Z" PURGE="4" COMMENT="" />
    <EXPORT ORDINAL="1018" NAME="?GetText@LAnnAutomation@@UAEHPAD@Z" PURGE="4" COMMENT="" />
    <EXPORT ORDINAL="1019" NAME="?GetText@LAnnButton@@UAEHPAD@Z" PURGE="4" COMMENT="" />
    <EXPORT ORDINAL="1020" NAME="?GetText@LAnnNote@@UAEHPAD@Z" PURGE="4" COMMENT="" />
    <EXPORT ORDINAL="1021" NAME="?GetText@LAnnRuler@@UAEHPAD@Z" PURGE="4" COMMENT="" />
    <EXPORT ORDINAL="1022" NAME="?GetText@LAnnStamp@@UAEHPAD@Z" PURGE="4" COMMENT="" />
    <EXPORT ORDINAL="1023" NAME="?GetText@LAnnText@@UAEHPAD@Z" PURGE="4" COMMENT="" />
    <EXPORT ORDINAL="1024" NAME="?GetText@LAnnotation@@IAEHPAD@Z" PURGE="4" COMMENT="" />
    <EXPORT ORDINAL="1025" NAME="?GetTextLen@LAnnAudioClip@@UAEIXZ" PURGE="0" COMMENT="" />
    <EXPORT ORDINAL="1026" NAME="?GetTextLen@LAnnAutomation@@UAEIXZ" PURGE="0" COMMENT="" />
    <EXPORT ORDINAL="1027" NAME="?GetTextLen@LAnnButton@@UAEIXZ" PURGE="0" COMMENT="" />
    <EXPORT ORDINAL="1028" NAME="?GetTextLen@LAnnNote@@UAEIXZ" PURGE="0" COMMENT="" />
    <EXPORT ORDINAL="1029" NAME="?GetTextLen@LAnnRuler@@UAEIXZ" PURGE="0" COMMENT="" />
    <EXPORT ORDINAL="1030" NAME="?GetTextLen@LAnnStamp@@UAEIXZ" PURGE="0" COMMENT="" />
    <EXPORT ORDINAL="1031" NAME="?GetTextLen@LAnnText@@UAEIXZ" PURGE="0" COMMENT="" />
    <EXPORT ORDINAL="1032" NAME="?GetTextLen@LAnnotation@@IAEIXZ" PURGE="0" COMMENT="" />
    <EXPORT ORDINAL="1033" NAME="?GetTextParameters@LDialog@@QBEXPAU_TEXTDLGPARM@@@Z" PURGE="4" COMMENT="" />
    <EXPORT ORDINAL="1034" NAME="?GetTextParameters@LPaintEffect@@QAEHPAU_TEXTDLGPARM@@@Z" PURGE="4" COMMENT="" />
    <EXPORT ORDINAL="1035" NAME="?GetTimeFormatA@LMultimedia@@UAEHPAH@Z" PURGE="4" COMMENT="" />
    <EXPORT ORDINAL="1036" NAME="?GetTool@LAnnAutomation@@UAEIXZ" PURGE="0" COMMENT="" />
    <EXPORT ORDINAL="1037" NAME="?GetToolBar@LAnnotationWindow@@QAEAAVLAnnToolBar@@XZ" PURGE="0" COMMENT="" />
    <EXPORT ORDINAL="1038" NAME="?GetToolChecked@LAnnToolBar@@UAEIXZ" PURGE="0" COMMENT="" />
    <EXPORT ORDINAL="1039" NAME="?GetToolType@LBitmapWindow@@QAEIXZ" PURGE="0" COMMENT="" />
    <EXPORT ORDINAL="1040" NAME="?GetTopContainer@LAnnotation@@UAEHPAPAX@Z" PURGE="4" COMMENT="" />
    <EXPORT ORDINAL="1041" NAME="?GetTopContainer@LAnnotation@@UAEHPAVLAnnContainer@@@Z" PURGE="4" COMMENT="" />
    <EXPORT ORDINAL="1042" NAME="?GetTransition@LBitmapWindow@@QAEIXZ" PURGE="0" COMMENT="" />
    <EXPORT ORDINAL="1043" NAME="?GetTransitionEffect@LBitmapWindow@@QAEIXZ" PURGE="0" COMMENT="" />
    <EXPORT ORDINAL="1044" NAME="?GetTransitionParameters@LBitmapWindow@@QAEHPAU_TRANSDLGPARM@@@Z" PURGE="4" COMMENT="" />
    <EXPORT ORDINAL="1045" NAME="?GetTransitionParameters@LDialog@@QBEXPAU_TRANSDLGPARM@@@Z" PURGE="4" COMMENT="" />
    <EXPORT ORDINAL="1046" NAME="?GetTransitionParameters@LPaintEffect@@QAEHPAU_TRANSDLGPARM@@@Z" PURGE="4" COMMENT="" />
    <EXPORT ORDINAL="1047" NAME="?GetTransparent@LAnnStamp@@UAEIXZ" PURGE="0" COMMENT="" />
    <EXPORT ORDINAL="1048" NAME="?GetType@LAnnotation@@UAEIXZ" PURGE="0" COMMENT="" />
    <EXPORT ORDINAL="1049" NAME="?GetUnit@LAnnAutomation@@UAEIPADPAI@Z" PURGE="8" COMMENT="" />
    <EXPORT ORDINAL="1050" NAME="?GetUnit@LAnnRuler@@UAEIPADPAI@Z" PURGE="8" COMMENT="" />
    <EXPORT ORDINAL="1051" NAME="?GetUnit@LAnnotation@@IAEIPADPAI@Z" PURGE="8" COMMENT="" />
    <EXPORT ORDINAL="1052" NAME="?GetUnitLen@LAnnAutomation@@UAEIXZ" PURGE="0" COMMENT="" />
    <EXPORT ORDINAL="1053" NAME="?GetUnitLen@LAnnRuler@@UAEIXZ" PURGE="0" COMMENT="" />
    <EXPORT ORDINAL="1054" NAME="?GetUnitLen@LAnnotation@@IAEIXZ" PURGE="0" COMMENT="" />
    <EXPORT ORDINAL="1055" NAME="?GetUpdateRect@LPlayBack@@UAEHPAUtagRECT@@I@Z" PURGE="8" COMMENT="" />
    <EXPORT ORDINAL="1056" NAME="?GetUserMode@LAnnotation@@UAEIXZ" PURGE="0" COMMENT="" />
    <EXPORT ORDINAL="1057" NAME="?GetVertLineStep@LBitmapWindow@@QAEIXZ" PURGE="0" COMMENT="" />
    <EXPORT ORDINAL="1058" NAME="?GetVidFormat@LMMCapture@@UAEHPAUtagBITMAPINFO@@PAI@Z" PURGE="8" COMMENT="" />
    <EXPORT ORDINAL="1059" NAME="?GetViewPerspective@LBitmapBase@@QAEHXZ" PURGE="0" COMMENT="" />
    <EXPORT ORDINAL="1060" NAME="?GetViewPerspective@LBitmapList@@QAEHXZ" PURGE="0" COMMENT="" />
    <EXPORT ORDINAL="1061" NAME="?GetVolume@LMMCapture@@UAEHKKPAI0@Z" PURGE="16" COMMENT="" />
    <EXPORT ORDINAL="1062" NAME="?GetVolume@LMultimedia@@UAEHXZ" PURGE="0" COMMENT="" />
    <EXPORT ORDINAL="1063" NAME="?GetWMFResolution@LFileSettings@@SAHPAH@Z" PURGE="0" COMMENT="" />
    <EXPORT ORDINAL="1064" NAME="?GetWidth@LBitmapBase@@QAEHXZ" PURGE="0" COMMENT="" />
    <EXPORT ORDINAL="1065" NAME="?GetWidth@LMultimedia@@QBEHXZ" PURGE="0" COMMENT="" />
    <EXPORT ORDINAL="1066" NAME="?GetWnd@LAnnotation@@UAEPAUHWND__@@XZ" PURGE="0" COMMENT="" />
    <EXPORT ORDINAL="1067" NAME="?GetWndHandle@LAnnToolBar@@UAEPAUHWND__@@XZ" PURGE="0" COMMENT="" />
    <EXPORT ORDINAL="1068" NAME="?GetXResolution@LBitmapBase@@QAEHXZ" PURGE="0" COMMENT="" />
    <EXPORT ORDINAL="1069" NAME="?GetYResolution@LBitmapBase@@QAEHXZ" PURGE="0" COMMENT="" />
    <EXPORT ORDINAL="1070" NAME="?GetZoomFactor@LBitmapWindow@@QAEMXZ" PURGE="0" COMMENT="" />
    <EXPORT ORDINAL="1071" NAME="?GetZoomMode@LBitmapWindow@@QAEIXZ" PURGE="0" COMMENT="" />
    <EXPORT ORDINAL="1072" NAME="?GetZoomPercent@LBitmapWindow@@QAEIXZ" PURGE="0" COMMENT="" />
    <EXPORT ORDINAL="1073" NAME="?GetpHandle@LBitmapList@@AAEPAPAXXZ" PURGE="0" COMMENT="" />
    <EXPORT ORDINAL="1074" NAME="?GrayScale@LBitmapBase@@UAEHH@Z" PURGE="4" COMMENT="" />
    <EXPORT ORDINAL="1075" NAME="?HalfTone@LBitmap@@UAEHIJ@Z" PURGE="8" COMMENT="" />
    <EXPORT ORDINAL="1076" NAME="?HandleAutoProcess@LDialog@@AAEXIHK@Z" PURGE="12" COMMENT="" />
    <EXPORT ORDINAL="1077" NAME="?HandlePalette@LAnnotationWindow@@QAEIIIJ@Z" PURGE="12" COMMENT="" />
    <EXPORT ORDINAL="1078" NAME="?HandlePalette@LBitmapWindow@@QAEIIIJ@Z" PURGE="12" COMMENT="" />
    <EXPORT ORDINAL="1079" NAME="?HasGlobalBackground@LBitmapList@@QAEIXZ" PURGE="0" COMMENT="" />
    <EXPORT ORDINAL="1080" NAME="?HasGlobalLoop@LBitmapList@@QAEIXZ" PURGE="0" COMMENT="" />
    <EXPORT ORDINAL="1081" NAME="?HasGlobalPalette@LBitmapList@@QAEIXZ" PURGE="0" COMMENT="" />
    <EXPORT ORDINAL="1082" NAME="?HasRgn@LBitmapBase@@UAEIXZ" PURGE="0" COMMENT="" />
    <EXPORT ORDINAL="1083" NAME="?HasRgn@LBitmapWindow@@UAEIXZ" PURGE="0" COMMENT="" />
    <EXPORT ORDINAL="1084" NAME="?HistoContrast@LBitmap@@UAEHH@Z" PURGE="4" COMMENT="" />
    <EXPORT ORDINAL="1085" NAME="?HistoEqualize@LBitmap@@UAEHXZ" PURGE="0" COMMENT="" />
    <EXPORT ORDINAL="1086" NAME="?HitTest@LAnnContainer@@UAEHPAUtagPOINT@@PAIPAPAX@Z" PURGE="12" COMMENT="" />
    <EXPORT ORDINAL="1087" NAME="?HitTest@LAnnContainer@@UAEPAVLAnnotation@@PAUtagPOINT@@PAI@Z" PURGE="8" COMMENT="" />
    <EXPORT ORDINAL="1088" NAME="?IgnoreFilters@LFileSettings@@SAHPAD@Z" PURGE="0" COMMENT="" />
    <EXPORT ORDINAL="1089" NAME="?InetCS@LInet@@KAHIHHPADKPAX@Z" PURGE="0" COMMENT="" />
    <EXPORT ORDINAL="1090" NAME="?InetCallBack@LInet@@MAEHPAV1@HHPADK@Z" PURGE="20" COMMENT="" />
    <EXPORT ORDINAL="1091" NAME="?InetCallBack@LInetClient@@MAEHPAVLInet@@HHPADK@Z" PURGE="20" COMMENT="" />
    <EXPORT ORDINAL="1092" NAME="?InetCallBack@LInetServer@@MAEHPAVLInet@@HHPADK@Z" PURGE="20" COMMENT="" />
    <EXPORT ORDINAL="1093" NAME="?Init@LInetServer@@UAEHH@Z" PURGE="4" COMMENT="" />
    <EXPORT ORDINAL="1094" NAME="?Init@LMultimedia@@UAEHXZ" PURGE="0" COMMENT="" />
    <EXPORT ORDINAL="1095" NAME="?InitAnnAutomation@LAnnotationWindow@@AAEHPAUHWND__@@@Z" PURGE="4" COMMENT="" />
    <EXPORT ORDINAL="1096" NAME="?Initialize@LBitmapBase@@UAEHHHH@Z" PURGE="12" COMMENT="" />
    <EXPORT ORDINAL="1097" NAME="?Initialize@LBuffer@@AAEXK@Z" PURGE="4" COMMENT="" />
    <EXPORT ORDINAL="1098" NAME="?InitializeClass@LAnimationWindow@@AAEXXZ" PURGE="0" COMMENT="" />
    <EXPORT ORDINAL="1099" NAME="?InitializeClass@LBitmapBase@@AAEXXZ" PURGE="0" COMMENT="" />
    <EXPORT ORDINAL="1100" NAME="?InitializeClass@LBitmapList@@AAEXXZ" PURGE="0" COMMENT="" />
    <EXPORT ORDINAL="1101" NAME="?InitializeClass@LBitmapWindow@@AAEXXZ" PURGE="0" COMMENT="" />
    <EXPORT ORDINAL="1102" NAME="?InitializeClass@LDialog@@AAEXXZ" PURGE="0" COMMENT="" />
    <EXPORT ORDINAL="1103" NAME="?InitializeClass@LInet@@AAEXXZ" PURGE="0" COMMENT="" />
    <EXPORT ORDINAL="1104" NAME="?InitializeClass@LInetClient@@IAEXXZ" PURGE="0" COMMENT="" />
    <EXPORT ORDINAL="1105" NAME="?InitializeClass@LInetServer@@IAEXXZ" PURGE="0" COMMENT="" />
    <EXPORT ORDINAL="1106" NAME="?InitializeClass@LMMCapture@@IAEXXZ" PURGE="0" COMMENT="" />
    <EXPORT ORDINAL="1107" NAME="?InitializeClass@LPaintEffect@@AAEXXZ" PURGE="0" COMMENT="" />
    <EXPORT ORDINAL="1108" NAME="?InitializeClass@LScreenCapture@@AAEXXZ" PURGE="0" COMMENT="" />
    <EXPORT ORDINAL="1109" NAME="?Insert@LAnnContainer@@UAEHAAVLAnnotation@@I@Z" PURGE="8" COMMENT="" />
    <EXPORT ORDINAL="1110" NAME="?InsertFrame@LAnimationWindow@@IAEHPAVLBitmapBase@@I@Z" PURGE="8" COMMENT="" />
    <EXPORT ORDINAL="1111" NAME="?InsertFrame@LMultimedia@@UAEHJPAUstruct_LEAD_Bitmap@@@Z" PURGE="8" COMMENT="" />
    <EXPORT ORDINAL="1112" NAME="?InsertFrame@LMultimedia@@UAEHJPAVLBitmapBase@@@Z" PURGE="8" COMMENT="" />
    <EXPORT ORDINAL="1113" NAME="?InsertItem@LBitmapList@@UAEHPAVLBitmapBase@@I@Z" PURGE="8" COMMENT="" />
    <EXPORT ORDINAL="1114" NAME="?IntensityDetect@LBitmap@@UAEHII@Z" PURGE="8" COMMENT="" />
    <EXPORT ORDINAL="1115" NAME="?Invert@LBitmap@@UAEHXZ" PURGE="0" COMMENT="" />
    <EXPORT ORDINAL="1116" NAME="?Is1BitCompressed@LBitmapBase@@QAEIXZ" PURGE="0" COMMENT="" />
    <EXPORT ORDINAL="1117" NAME="?IsAllocated@LBitmapBase@@QAEIXZ" PURGE="0" COMMENT="" />
    <EXPORT ORDINAL="1118" NAME="?IsAllocated@LMultimedia@@QBEIXZ" PURGE="0" COMMENT="" />
    <EXPORT ORDINAL="1119" NAME="?IsAlwaysEndNotification@LBitmapBase@@UAEIXZ" PURGE="0" COMMENT="" />
    <EXPORT ORDINAL="1120" NAME="?IsAutoAnimateEnabled@LAnimationWindow@@QBEIXZ" PURGE="0" COMMENT="" />
    <EXPORT ORDINAL="1121" NAME="?IsAutoDrawEnabled@LAnnAutomation@@UAEIXZ" PURGE="0" COMMENT="" />
    <EXPORT ORDINAL="1122" NAME="?IsAutoErrorDisplayEnabled@LBase@@SAIXZ" PURGE="0" COMMENT="" />
    <EXPORT ORDINAL="1123" NAME="?IsAutoListEnabled@LInet@@QAEIXZ" PURGE="0" COMMENT="" />
    <EXPORT ORDINAL="1124" NAME="?IsAutoLoopEnabled@LAnimationWindow@@QBEIXZ" PURGE="0" COMMENT="" />
    <EXPORT ORDINAL="1125" NAME="?IsAutoMenuEnabled@LAnnAutomation@@UAEIXZ" PURGE="0" COMMENT="" />
    <EXPORT ORDINAL="1126" NAME="?IsAutoPaintEnabled@LBitmapWindow@@QAEIXZ" PURGE="0" COMMENT="" />
    <EXPORT ORDINAL="1127" NAME="?IsAutoProcessEnabled@LDialog@@QBEIXZ" PURGE="0" COMMENT="" />
    <EXPORT ORDINAL="1128" NAME="?IsAutoScrollEnabled@LBitmapWindow@@QAEIXZ" PURGE="0" COMMENT="" />
    <EXPORT ORDINAL="1129" NAME="?IsAvailable@LIsis@@UAEIXZ" PURGE="0" COMMENT="" />
    <EXPORT ORDINAL="1130" NAME="?IsAvailable@LTwain@@UAEIXZ" PURGE="0" COMMENT="" />
    <EXPORT ORDINAL="1131" NAME="?IsBitmapListLocked@LBitmapBase@@QAEIXZ" PURGE="0" COMMENT="" />
    <EXPORT ORDINAL="1132" NAME="?IsButtonVisible@LAnnToolBar@@UAEII@Z" PURGE="4" COMMENT="" />
    <EXPORT ORDINAL="1133" NAME="?IsCallBackEnabled@LBase@@QAEIXZ" PURGE="0" COMMENT="" />
    <EXPORT ORDINAL="1134" NAME="?IsCaptureActive@LScreenCapture@@SAIXZ" PURGE="0" COMMENT="" />
    <EXPORT ORDINAL="1135" NAME="?IsCenterOnZoomEnabled@LBitmapWindow@@QAEIXZ" PURGE="0" COMMENT="" />
    <EXPORT ORDINAL="1136" NAME="?IsChangeNotificationEnabled@LBitmapBase@@UAEIXZ" PURGE="0" COMMENT="" />
    <EXPORT ORDINAL="1137" NAME="?IsClipboardReady@LAnnotation@@UAEIXZ" PURGE="0" COMMENT="" />
    <EXPORT ORDINAL="1138" NAME="?IsClipboardReady@LBitmapBase@@UAEIXZ" PURGE="0" COMMENT="" />
    <EXPORT ORDINAL="1139" NAME="?IsClipboardReady@LMultimedia@@UAEHXZ" PURGE="0" COMMENT="" />
    <EXPORT ORDINAL="1140" NAME="?IsCreated@LAnnToolBar@@UAEIXZ" PURGE="0" COMMENT="" />
    <EXPORT ORDINAL="1141" NAME="?IsCreated@LAnnotation@@QAEIXZ" PURGE="0" COMMENT="" />
    <EXPORT ORDINAL="1142" NAME="?IsCreated@LBitmapList@@UAEIXZ" PURGE="0" COMMENT="" />
    <EXPORT ORDINAL="1143" NAME="?IsCreated@LPlayBack@@QAEIXZ" PURGE="0" COMMENT="" />
    <EXPORT ORDINAL="1144" NAME="?IsDragAcceptFilesEnabled@LBitmapWindow@@QAEIXZ" PURGE="0" COMMENT="" />
    <EXPORT ORDINAL="1145" NAME="?IsDrawGradientEnabled@LBitmapWindow@@QAEIXZ" PURGE="0" COMMENT="" />
    <EXPORT ORDINAL="1146" NAME="?IsDrawPatternEnabled@LBitmapWindow@@QAEIXZ" PURGE="0" COMMENT="" />
    <EXPORT ORDINAL="1147" NAME="?IsFileNameEnabled@LBitmapBase@@QAEIXZ" PURGE="0" COMMENT="" />
    <EXPORT ORDINAL="1148" NAME="?IsFirstFrame@LAnimationWindow@@QBEIXZ" PURGE="0" COMMENT="" />
    <EXPORT ORDINAL="1149" NAME="?IsFontBold@LAnnAutomation@@UAEIXZ" PURGE="0" COMMENT="" />
    <EXPORT ORDINAL="1150" NAME="?IsFontBold@LAnnNote@@UAEIXZ" PURGE="0" COMMENT="" />
    <EXPORT ORDINAL="1151" NAME="?IsFontBold@LAnnRuler@@UAEIXZ" PURGE="0" COMMENT="" />
    <EXPORT ORDINAL="1152" NAME="?IsFontBold@LAnnStamp@@UAEIXZ" PURGE="0" COMMENT="" />
    <EXPORT ORDINAL="1153" NAME="?IsFontBold@LAnnText@@UAEIXZ" PURGE="-1" COMMENT="" />
    <EXPORT ORDINAL="1154" NAME="?IsFontBold@LAnnotation@@IAEIXZ" PURGE="0" COMMENT="" />
    <EXPORT ORDINAL="1155" NAME="?IsFontItalic@LAnnAutomation@@UAEIXZ" PURGE="0" COMMENT="" />
    <EXPORT ORDINAL="1156" NAME="?IsFontItalic@LAnnNote@@UAEIXZ" PURGE="0" COMMENT="" />
    <EXPORT ORDINAL="1157" NAME="?IsFontItalic@LAnnRuler@@UAEIXZ" PURGE="0" COMMENT="" />
    <EXPORT ORDINAL="1158" NAME="?IsFontItalic@LAnnStamp@@UAEIXZ" PURGE="0" COMMENT="" />
    <EXPORT ORDINAL="1159" NAME="?IsFontItalic@LAnnText@@UAEIXZ" PURGE="-1" COMMENT="" />
    <EXPORT ORDINAL="1160" NAME="?IsFontItalic@LAnnotation@@IAEIXZ" PURGE="0" COMMENT="" />
    <EXPORT ORDINAL="1161" NAME="?IsFontStrikeThrough@LAnnAutomation@@UAEIXZ" PURGE="0" COMMENT="" />
    <EXPORT ORDINAL="1162" NAME="?IsFontStrikeThrough@LAnnNote@@UAEIXZ" PURGE="0" COMMENT="" />
    <EXPORT ORDINAL="1163" NAME="?IsFontStrikeThrough@LAnnRuler@@UAEIXZ" PURGE="0" COMMENT="" />
    <EXPORT ORDINAL="1164" NAME="?IsFontStrikeThrough@LAnnStamp@@UAEIXZ" PURGE="0" COMMENT="" />
    <EXPORT ORDINAL="1165" NAME="?IsFontStrikeThrough@LAnnText@@UAEIXZ" PURGE="0" COMMENT="" />
    <EXPORT ORDINAL="1166" NAME="?IsFontStrikeThrough@LAnnotation@@IAEIXZ" PURGE="0" COMMENT="" />
    <EXPORT ORDINAL="1167" NAME="?IsFontUnderline@LAnnAutomation@@UAEIXZ" PURGE="0" COMMENT="" />
    <EXPORT ORDINAL="1168" NAME="?IsFontUnderline@LAnnNote@@UAEIXZ" PURGE="0" COMMENT="" />
    <EXPORT ORDINAL="1169" NAME="?IsFontUnderline@LAnnRuler@@UAEIXZ" PURGE="0" COMMENT="" />
    <EXPORT ORDINAL="1170" NAME="?IsFontUnderline@LAnnStamp@@UAEIXZ" PURGE="0" COMMENT="" />
    <EXPORT ORDINAL="1171" NAME="?IsFontUnderline@LAnnText@@UAEIXZ" PURGE="0" COMMENT="" />
    <EXPORT ORDINAL="1172" NAME="?IsFontUnderline@LAnnotation@@IAEIXZ" PURGE="0" COMMENT="" />
    <EXPORT ORDINAL="1173" NAME="?IsGrayScale@LBitmapBase@@UAEHXZ" PURGE="0" COMMENT="" />
    <EXPORT ORDINAL="1174" NAME="?IsHelpButtonEnabled@LDialog@@QBEIXZ" PURGE="0" COMMENT="" />
    <EXPORT ORDINAL="1175" NAME="?IsHyperlinkMenuEnabled@LAnnAutomation@@UAEIXZ" PURGE="0" COMMENT="" />
    <EXPORT ORDINAL="1176" NAME="?IsInterlaced@LBitmapBase@@QAEIXZ" PURGE="0" COMMENT="" />
    <EXPORT ORDINAL="1177" NAME="?IsItem@LDictionary@@QAEIPAX@Z" PURGE="4" COMMENT="" />
    <EXPORT ORDINAL="1178" NAME="?IsItemInList@LInet@@QAEIPAV1@@Z" PURGE="4" COMMENT="" />
    <EXPORT ORDINAL="1179" NAME="?IsKeyBoardEnabled@LBitmapWindow@@QAEIXZ" PURGE="0" COMMENT="" />
    <EXPORT ORDINAL="1180" NAME="?IsLastFrame@LAnimationWindow@@QBEIXZ" PURGE="0" COMMENT="" />
    <EXPORT ORDINAL="1181" NAME="?IsLoadInfoCallBackEnabled@LBaseFile@@QAEIXZ" PURGE="0" COMMENT="" />
    <EXPORT ORDINAL="1182" NAME="?IsLocalSettingsEnabled@LBitmapBase@@QAEIXZ" PURGE="0" COMMENT="" />
    <EXPORT ORDINAL="1183" NAME="?IsLocked@LAnnotation@@UAEIXZ" PURGE="0" COMMENT="" />
    <EXPORT ORDINAL="1184" NAME="?IsLoopEnabled@LAnimationWindow@@QBEIXZ" PURGE="0" COMMENT="" />
    <EXPORT ORDINAL="1185" NAME="?IsMemoryLocked@LBitmapBase@@QAEIXZ" PURGE="0" COMMENT="" />
    <EXPORT ORDINAL="1186" NAME="?IsNextFrameAvailable@LAnimationWindow@@QBEIXZ" PURGE="0" COMMENT="" />
    <EXPORT ORDINAL="1187" NAME="?IsOptionAvailable@LMMCapture@@UAEII@Z" PURGE="4" COMMENT="" />
    <EXPORT ORDINAL="1188" NAME="?IsPaintActive@LBitmapWindow@@MAEIXZ" PURGE="0" COMMENT="" />
    <EXPORT ORDINAL="1189" NAME="?IsPaintEffectEnabled@LBitmapWindow@@QAEIXZ" PURGE="0" COMMENT="" />
    <EXPORT ORDINAL="1190" NAME="?IsPaintSizeUseDPIEnabled@LBitmapWindow@@QAEIXZ" PURGE="0" COMMENT="" />
    <EXPORT ORDINAL="1191" NAME="?IsPaintTransitionEnabled@LBitmapWindow@@QAEIXZ" PURGE="0" COMMENT="" />
    <EXPORT ORDINAL="1192" NAME="?IsPaintWhileLoadEnabled@LBitmapWindow@@QAEIXZ" PURGE="0" COMMENT="" />
    <EXPORT ORDINAL="1193" NAME="?IsPanWndCreated@LBitmapWindow@@QAEIXZ" PURGE="0" COMMENT="" />
    <EXPORT ORDINAL="1194" NAME="?IsPixelsSigned@LBitmapBase@@QAEIXZ" PURGE="0" COMMENT="" />
    <EXPORT ORDINAL="1195" NAME="?IsPlayBackTransparencyEnabled@LBitmapBase@@QAEIXZ" PURGE="0" COMMENT="" />
    <EXPORT ORDINAL="1196" NAME="?IsPlayBackWaitUserInput@LBitmapBase@@QAEIXZ" PURGE="0" COMMENT="" />
    <EXPORT ORDINAL="1197" NAME="?IsPlayWhileLoadEnabled@LAnimationWindow@@QAEIXZ" PURGE="0" COMMENT="" />
    <EXPORT ORDINAL="1198" NAME="?IsPlaying@LAnimationWindow@@QBEIXZ" PURGE="0" COMMENT="" />
    <EXPORT ORDINAL="1199" NAME="?IsPlaying@LMultimedia@@UAEIXZ" PURGE="0" COMMENT="" />
    <EXPORT ORDINAL="1200" NAME="?IsPreviewEnabled@LDialog@@QBEIXZ" PURGE="0" COMMENT="" />
    <EXPORT ORDINAL="1201" NAME="?IsPreviousFrameAvailable@LAnimationWindow@@QBEIXZ" PURGE="0" COMMENT="" />
    <EXPORT ORDINAL="1202" NAME="?IsProgressive@LBitmapBase@@QAEIXZ" PURGE="0" COMMENT="" />
    <EXPORT ORDINAL="1203" NAME="?IsPtInFloaterRgn@LBitmapWindow@@AAEIUtagPOINT@@@Z" PURGE="8" COMMENT="" />
    <EXPORT ORDINAL="1204" NAME="?IsPtInRgn@LBitmapRgn@@UAEIHH@Z" PURGE="8" COMMENT="" />
    <EXPORT ORDINAL="1205" NAME="?IsPtInRgn@LBitmapRgn@@UAEIPAUtagPOINT@@@Z" PURGE="4" COMMENT="" />
    <EXPORT ORDINAL="1206" NAME="?IsRedirectIOEnabled@LBaseFile@@QAEIXZ" PURGE="0" COMMENT="" />
    <EXPORT ORDINAL="1207" NAME="?IsRedirectStatusCallBackEnabled@LBitmapBase@@UAEIXZ" PURGE="0" COMMENT="" />
    <EXPORT ORDINAL="1208" NAME="?IsSelected@LAnnotation@@UAEIXZ" PURGE="0" COMMENT="" />
    <EXPORT ORDINAL="1209" NAME="?IsSendToAllEnabled@LInet@@QAEIXZ" PURGE="0" COMMENT="" />
    <EXPORT ORDINAL="1210" NAME="?IsSpatialFilter@LDialog@@QBEHXZ" PURGE="0" COMMENT="" />
    <EXPORT ORDINAL="1211" NAME="?IsStatusCallBackEnabled@LBase@@QAEIXZ" PURGE="0" COMMENT="" />
    <EXPORT ORDINAL="1212" NAME="?IsSupportLocked@LSettings@@SAII@Z" PURGE="0" COMMENT="" />
    <EXPORT ORDINAL="1213" NAME="?IsTransparencyEnabled@LAnimationWindow@@QBEHPAIPAKI@Z" PURGE="12" COMMENT="" />
    <EXPORT ORDINAL="1214" NAME="?IsUsingConventionalMemory@LBitmapBase@@QAEIXZ" PURGE="0" COMMENT="" />
    <EXPORT ORDINAL="1215" NAME="?IsUsingDiskMemory@LBitmapBase@@QAEIXZ" PURGE="0" COMMENT="" />
    <EXPORT ORDINAL="1216" NAME="?IsValid@LAnnotation@@QAEIXZ" PURGE="0" COMMENT="" />
    <EXPORT ORDINAL="1217" NAME="?IsValid@LBitmapRgn@@UAEIXZ" PURGE="0" COMMENT="" />
    <EXPORT ORDINAL="1218" NAME="?IsValid@LBuffer@@QAEIXZ" PURGE="0" COMMENT="" />
    <EXPORT ORDINAL="1219" NAME="?IsValid@LDialog@@QAEIXZ" PURGE="0" COMMENT="" />
    <EXPORT ORDINAL="1220" NAME="?IsValid@LDraw@@QAEIXZ" PURGE="0" COMMENT="" />
    <EXPORT ORDINAL="1221" NAME="?IsValid@LFile@@QAEIXZ" PURGE="0" COMMENT="" />
    <EXPORT ORDINAL="1222" NAME="?IsValid@LInet@@QAEIXZ" PURGE="0" COMMENT="" />
    <EXPORT ORDINAL="1223" NAME="?IsValid@LMMCapture@@QAEIXZ" PURGE="0" COMMENT="" />
    <EXPORT ORDINAL="1224" NAME="?IsValid@LMemoryFile@@QAEIXZ" PURGE="0" COMMENT="" />
    <EXPORT ORDINAL="1225" NAME="?IsValid@LPrint@@QAEIXZ" PURGE="0" COMMENT="" />
    <EXPORT ORDINAL="1226" NAME="?IsValid@LScanner@@QAEIXZ" PURGE="0" COMMENT="" />
    <EXPORT ORDINAL="1227" NAME="?IsValid@LScreenCapture@@UAEIXZ" PURGE="0" COMMENT="" />
    <EXPORT ORDINAL="1228" NAME="?IsValidAnimation@LAnimationWindow@@QBEIXZ" PURGE="0" COMMENT="" />
    <EXPORT ORDINAL="1229" NAME="?IsVisible@LAnnotation@@UAEIXZ" PURGE="0" COMMENT="" />
    <EXPORT ORDINAL="1230" NAME="?IsWaitingForUserInput@LAnimationWindow@@QBEII@Z" PURGE="4" COMMENT="" />
    <EXPORT ORDINAL="1231" NAME="?Isis@LAnimationWindow@@UAEPAVLIsis@@XZ" PURGE="0" COMMENT="" />
    <EXPORT ORDINAL="1232" NAME="?Isis@LAnnotationWindow@@UAEPAVLIsis@@XZ" PURGE="0" COMMENT="" />
    <EXPORT ORDINAL="1233" NAME="?Isis@LBitmap@@UAEPAVLIsis@@XZ" PURGE="0" COMMENT="" />
    <EXPORT ORDINAL="1234" NAME="?Isis@LBitmapBase@@UAEPAVLIsis@@XZ" PURGE="0" COMMENT="" />
    <EXPORT ORDINAL="1235" NAME="?Isis@LBitmapWindow@@UAEPAVLIsis@@XZ" PURGE="0" COMMENT="" />
    <EXPORT ORDINAL="1236" NAME="?KillRgnFrameTimer@LBitmapWindow@@AAEXXZ" PURGE="0" COMMENT="" />
    <EXPORT ORDINAL="1237" NAME="?LEAD_CreateLAnimationWindow@LAnimationWindow@@SAPAVLBase@@XZ" PURGE="0" COMMENT="" />
    <EXPORT ORDINAL="1238" NAME="?LEAD_CreateLAnnAudioClip@LAnnAudioClip@@SAPAVLBase@@XZ" PURGE="0" COMMENT="" />
    <EXPORT ORDINAL="1239" NAME="?LEAD_CreateLAnnAutomation@LAnnAutomation@@SAPAVLBase@@XZ" PURGE="0" COMMENT="" />
    <EXPORT ORDINAL="1240" NAME="?LEAD_CreateLAnnButton@LAnnButton@@SAPAVLBase@@XZ" PURGE="0" COMMENT="" />
    <EXPORT ORDINAL="1241" NAME="?LEAD_CreateLAnnContainer@LAnnContainer@@SAPAVLBase@@XZ" PURGE="0" COMMENT="" />
    <EXPORT ORDINAL="1242" NAME="?LEAD_CreateLAnnEllipse@LAnnEllipse@@SAPAVLBase@@XZ" PURGE="0" COMMENT="" />
    <EXPORT ORDINAL="1243" NAME="?LEAD_CreateLAnnFreehand@LAnnFreehand@@SAPAVLBase@@XZ" PURGE="0" COMMENT="" />
    <EXPORT ORDINAL="1244" NAME="?LEAD_CreateLAnnHilite@LAnnHilite@@SAPAVLBase@@XZ" PURGE="0" COMMENT="" />
    <EXPORT ORDINAL="1245" NAME="?LEAD_CreateLAnnHotSpot@LAnnHotSpot@@SAPAVLBase@@XZ" PURGE="0" COMMENT="" />
    <EXPORT ORDINAL="1246" NAME="?LEAD_CreateLAnnLine@LAnnLine@@SAPAVLBase@@XZ" PURGE="0" COMMENT="" />
    <EXPORT ORDINAL="1247" NAME="?LEAD_CreateLAnnNote@LAnnNote@@SAPAVLBase@@XZ" PURGE="0" COMMENT="" />
    <EXPORT ORDINAL="1248" NAME="?LEAD_CreateLAnnPointer@LAnnPointer@@SAPAVLBase@@XZ" PURGE="0" COMMENT="" />
    <EXPORT ORDINAL="1249" NAME="?LEAD_CreateLAnnPolygon@LAnnPolygon@@SAPAVLBase@@XZ" PURGE="0" COMMENT="" />
    <EXPORT ORDINAL="1250" NAME="?LEAD_CreateLAnnPolyline@LAnnPolyline@@SAPAVLBase@@XZ" PURGE="0" COMMENT="" />
    <EXPORT ORDINAL="1251" NAME="?LEAD_CreateLAnnRectangle@LAnnRectangle@@SAPAVLBase@@XZ" PURGE="0" COMMENT="" />
    <EXPORT ORDINAL="1252" NAME="?LEAD_CreateLAnnRedact@LAnnRedact@@SAPAVLBase@@XZ" PURGE="0" COMMENT="" />
    <EXPORT ORDINAL="1253" NAME="?LEAD_CreateLAnnRuler@LAnnRuler@@SAPAVLBase@@XZ" PURGE="0" COMMENT="" />
    <EXPORT ORDINAL="1254" NAME="?LEAD_CreateLAnnStamp@LAnnStamp@@SAPAVLBase@@XZ" PURGE="0" COMMENT="" />
    <EXPORT ORDINAL="1255" NAME="?LEAD_CreateLAnnText@LAnnText@@SAPAVLBase@@XZ" PURGE="0" COMMENT="" />
    <EXPORT ORDINAL="1256" NAME="?LEAD_CreateLAnnToolBar@LAnnToolBar@@SAPAVLBase@@XZ" PURGE="0" COMMENT="" />
    <EXPORT ORDINAL="1257" NAME="?LEAD_CreateLAnnotation@LAnnotation@@SAPAVLBase@@XZ" PURGE="0" COMMENT="" />
    <EXPORT ORDINAL="1258" NAME="?LEAD_CreateLAnnotationWindow@LAnnotationWindow@@SAPAVLBase@@XZ" PURGE="0" COMMENT="" />
    <EXPORT ORDINAL="1259" NAME="?LEAD_CreateLBitmap@LBitmap@@SAPAVLBase@@XZ" PURGE="0" COMMENT="" />
    <EXPORT ORDINAL="1260" NAME="?LEAD_CreateLBitmapBase@LBitmapBase@@SAPAVLBase@@XZ" PURGE="0" COMMENT="" />
    <EXPORT ORDINAL="1261" NAME="?LEAD_CreateLBitmapList@LBitmapList@@SAPAVLBase@@XZ" PURGE="0" COMMENT="" />
    <EXPORT ORDINAL="1262" NAME="?LEAD_CreateLBitmapRgn@LBitmapRgn@@SAPAVLBase@@XZ" PURGE="0" COMMENT="" />
    <EXPORT ORDINAL="1263" NAME="?LEAD_CreateLBitmapWindow@LBitmapWindow@@SAPAVLBase@@XZ" PURGE="0" COMMENT="" />
    <EXPORT ORDINAL="1264" NAME="?LEAD_CreateLChange@LChange@@SAPAVLBase@@XZ" PURGE="0" COMMENT="" />
    <EXPORT ORDINAL="1265" NAME="?LEAD_CreateLDialog@LDialog@@SAPAVLBase@@XZ" PURGE="0" COMMENT="" />
    <EXPORT ORDINAL="1266" NAME="?LEAD_CreateLDraw@LDraw@@SAPAVLBase@@XZ" PURGE="0" COMMENT="" />
    <EXPORT ORDINAL="1267" NAME="?LEAD_CreateLFile@LFile@@SAPAVLBase@@XZ" PURGE="0" COMMENT="" />
    <EXPORT ORDINAL="1268" NAME="?LEAD_CreateLInetClient@LInetClient@@SAPAVLBase@@XZ" PURGE="0" COMMENT="" />
    <EXPORT ORDINAL="1269" NAME="?LEAD_CreateLInetServer@LInetServer@@SAPAVLBase@@XZ" PURGE="0" COMMENT="" />
    <EXPORT ORDINAL="1270" NAME="?LEAD_CreateLIsis@LIsis@@SAPAVLBase@@XZ" PURGE="0" COMMENT="" />
    <EXPORT ORDINAL="1271" NAME="?LEAD_CreateLMMCapture@LMMCapture@@SAPAVLBase@@XZ" PURGE="0" COMMENT="" />
    <EXPORT ORDINAL="1272" NAME="?LEAD_CreateLMemoryFile@LMemoryFile@@SAPAVLBase@@XZ" PURGE="0" COMMENT="" />
    <EXPORT ORDINAL="1273" NAME="?LEAD_CreateLMultimedia@LMultimedia@@SAPAVLBase@@XZ" PURGE="0" COMMENT="" />
    <EXPORT ORDINAL="1274" NAME="?LEAD_CreateLPaint@LPaint@@SAPAVLBase@@XZ" PURGE="0" COMMENT="" />
    <EXPORT ORDINAL="1275" NAME="?LEAD_CreateLPaintEffect@LPaintEffect@@SAPAVLBase@@XZ" PURGE="0" COMMENT="" />
    <EXPORT ORDINAL="1276" NAME="?LEAD_CreateLPlayBack@LPlayBack@@SAPAVLBase@@XZ" PURGE="0" COMMENT="" />
    <EXPORT ORDINAL="1277" NAME="?LEAD_CreateLPrint@LPrint@@SAPAVLBase@@XZ" PURGE="0" COMMENT="" />
    <EXPORT ORDINAL="1278" NAME="?LEAD_CreateLScreenCapture@LScreenCapture@@SAPAVLBase@@XZ" PURGE="0" COMMENT="" />
    <EXPORT ORDINAL="1279" NAME="?LEAD_CreateLTwain@LTwain@@SAPAVLBase@@XZ" PURGE="0" COMMENT="" />
    <EXPORT ORDINAL="1280" NAME="?LEAD_GetBitmapObject@@YAPAVLBitmapBase@@W4tagLWRAPPERBITMAPMEMBER@@PAVLBase@@P6APAV3@XZ@Z" PURGE="0" COMMENT="" />
    <EXPORT ORDINAL="1281" NAME="?LEAD_GetObject@@YAPAVLBase@@W4tagLWRAPPEROBJECTTYPE@@PAV1@P6APAV1@XZ@Z" PURGE="0" COMMENT="" />
    <EXPORT ORDINAL="1282" NAME="?LEAD_ObjectManager@LAnimationWindow@@SAPAVLBase@@W4tagLWRAPPEROBJECTTYPE@@PAV2@PAP6APAV2@XZ@Z" PURGE="0" COMMENT="" />
    <EXPORT ORDINAL="1283" NAME="?LEAD_ObjectManager@LAnnotationWindow@@SAPAVLBase@@W4tagLWRAPPEROBJECTTYPE@@PAV2@PAP6APAV2@XZ@Z" PURGE="0" COMMENT="" />
    <EXPORT ORDINAL="1284" NAME="?LEAD_ObjectManager@LBase@@SAPAV1@W4tagLWRAPPEROBJECTTYPE@@PAV1@PAP6APAV1@XZ@Z" PURGE="0" COMMENT="" />
    <EXPORT ORDINAL="1285" NAME="?LEAD_ObjectManager@LBitmap@@SAPAVLBase@@W4tagLWRAPPEROBJECTTYPE@@PAV2@PAP6APAV2@XZ@Z" PURGE="0" COMMENT="" />
    <EXPORT ORDINAL="1286" NAME="?LEAD_ObjectManager@LBitmapBase@@SAPAVLBase@@W4tagLWRAPPEROBJECTTYPE@@PAV2@PAP6APAV2@XZ@Z" PURGE="0" COMMENT="" />
    <EXPORT ORDINAL="1287" NAME="?LEAD_ObjectManager@LBitmapWindow@@SAPAVLBase@@W4tagLWRAPPEROBJECTTYPE@@PAV2@PAP6APAV2@XZ@Z" PURGE="0" COMMENT="" />
    <EXPORT ORDINAL="1288" NAME="?Load@LAnimationWindow@@UAEHHHH@Z" PURGE="12" COMMENT="" />
    <EXPORT ORDINAL="1289" NAME="?Load@LAnimationWindow@@UAEHPADHHH@Z" PURGE="16" COMMENT="" />
    <EXPORT ORDINAL="1290" NAME="?Load@LAnnContainer@@UAEHPAD@Z" PURGE="4" COMMENT="" />
    <EXPORT ORDINAL="1291" NAME="?Load@LBitmapBase@@UAEHHHH@Z" PURGE="12" COMMENT="" />
    <EXPORT ORDINAL="1292" NAME="?Load@LBitmapBase@@UAEHPADHHH@Z" PURGE="16" COMMENT="" />
    <EXPORT ORDINAL="1293" NAME="?Load@LBitmapList@@UAEHPADHH@Z" PURGE="12" COMMENT="" />
    <EXPORT ORDINAL="1294" NAME="?Load@LBitmapWindow@@UAEHHHH@Z" PURGE="12" COMMENT="" />
    <EXPORT ORDINAL="1295" NAME="?Load@LBitmapWindow@@UAEHPADHHH@Z" PURGE="16" COMMENT="" />
    <EXPORT ORDINAL="1296" NAME="?Load@LMultimedia@@UAEHPADH@Z" PURGE="8" COMMENT="" />
    <EXPORT ORDINAL="1297" NAME="?LoadBitmapA@LFile@@UAEHHHH@Z" PURGE="12" COMMENT="" />
    <EXPORT ORDINAL="1298" NAME="?LoadBitmapA@LMemoryFile@@UAEHAAVLBuffer@@HH@Z" PURGE="12" COMMENT="" />
    <EXPORT ORDINAL="1299" NAME="?LoadBitmapList@LFile@@UAEHPAVLBitmapList@@HH@Z" PURGE="12" COMMENT="" />
    <EXPORT ORDINAL="1300" NAME="?LoadDriver@LIsis@@UAEHPAD@Z" PURGE="4" COMMENT="" />
    <EXPORT ORDINAL="1301" NAME="?LoadFile@LFile@@UAEHHHIH@Z" PURGE="16" COMMENT="" />
    <EXPORT ORDINAL="1302" NAME="?LoadFileCS@LFile@@CAHPAUstruct_file_information@@PAUstruct_LEAD_Bitmap@@PAEIHHPAX@Z" PURGE="0" COMMENT="" />
    <EXPORT ORDINAL="1303" NAME="?LoadFileCallBack@LFile@@MAEHPAUstruct_file_information@@PAVLBitmapBase@@PAVLBuffer@@IHH@Z" PURGE="24" COMMENT="" />
    <EXPORT ORDINAL="1304" NAME="?LoadFileOffsetCS@LFile@@CAHPAUstruct_file_information@@PAUstruct_LEAD_Bitmap@@PAEIHHPAX@Z" PURGE="0" COMMENT="" />
    <EXPORT ORDINAL="1305" NAME="?LoadFileOffsetCallBack@LFile@@MAEHPAUstruct_file_information@@PAVLBitmapBase@@PAVLBuffer@@IHH@Z" PURGE="24" COMMENT="" />
    <EXPORT ORDINAL="1306" NAME="?LoadFileTileCS@LFile@@CAHPAUstruct_file_information@@PAUstruct_LEAD_Bitmap@@PAEIHHPAX@Z" PURGE="0" COMMENT="" />
    <EXPORT ORDINAL="1307" NAME="?LoadFileTileCallBack@LFile@@MAEHPAUstruct_file_information@@PAVLBitmapBase@@PAVLBuffer@@IHH@Z" PURGE="24" COMMENT="" />
    <EXPORT ORDINAL="1308" NAME="?LoadInfoCS@LBaseFile@@KAHHPAU_LOADINFO@@@Z" PURGE="0" COMMENT="" />
    <EXPORT ORDINAL="1309" NAME="?LoadInfoCallBack@LBaseFile@@MAEHHPAU_LOADINFO@@@Z" PURGE="8" COMMENT="" />
    <EXPORT ORDINAL="1310" NAME="?LoadLibraries@LBase@@SAKK@Z" PURGE="0" COMMENT="" />
    <EXPORT ORDINAL="1311" NAME="?LoadMemory@LAnnContainer@@UAEHPAEK@Z" PURGE="8" COMMENT="" />
    <EXPORT ORDINAL="1312" NAME="?LoadMemory@LMemoryFile@@UAEHAAVLBuffer@@HHI@Z" PURGE="16" COMMENT="" />
    <EXPORT ORDINAL="1313" NAME="?LoadMemory@LMultimedia@@UAEHPADJ@Z" PURGE="8" COMMENT="" />
    <EXPORT ORDINAL="1314" NAME="?LoadMemoryCS@LMemoryFile@@CAHPAUstruct_file_information@@PAUstruct_LEAD_Bitmap@@PAEIHHPAX@Z" PURGE="0" COMMENT="" />
    <EXPORT ORDINAL="1315" NAME="?LoadMemoryCallBack@LMemoryFile@@MAEHPAUstruct_file_information@@PAVLBitmapBase@@PAVLBuffer@@IHH@Z" PURGE="24" COMMENT="" />
    <EXPORT ORDINAL="1316" NAME="?LoadOffset@LAnnContainer@@UAEHHJK@Z" PURGE="12" COMMENT="" />
    <EXPORT ORDINAL="1317" NAME="?LoadOffset@LFile@@UAEHHJJHHI@Z" PURGE="24" COMMENT="" />
    <EXPORT ORDINAL="1318" NAME="?LoadTile@LFile@@UAEHHHIIHHI@Z" PURGE="28" COMMENT="" />
    <EXPORT ORDINAL="1319" NAME="?Lock@LAnnotation@@UAEHPADI@Z" PURGE="8" COMMENT="" />
    <EXPORT ORDINAL="1320" NAME="?Lock@LBuffer@@QAEPAXXZ" PURGE="0" COMMENT="" />
    <EXPORT ORDINAL="1321" NAME="?LockBitmapList@LBitmapBase@@AAEHI@Z" PURGE="4" COMMENT="" />
    <EXPORT ORDINAL="1322" NAME="?LockHelpCallback@LDialog@@AAEXXZ" PURGE="0" COMMENT="" />
    <EXPORT ORDINAL="1323" NAME="?MarkClip@LMultimedia@@UAEHJJ@Z" PURGE="8" COMMENT="" />
    <EXPORT ORDINAL="1324" NAME="?MaxFilter@LBitmap@@UAEHI@Z" PURGE="4" COMMENT="" />
    <EXPORT ORDINAL="1325" NAME="?MedianFilter@LBitmap@@UAEHI@Z" PURGE="4" COMMENT="" />
    <EXPORT ORDINAL="1326" NAME="?MemoryFile@LAnimationWindow@@UAEPAVLMemoryFile@@XZ" PURGE="0" COMMENT="" />
    <EXPORT ORDINAL="1327" NAME="?MemoryFile@LAnnotationWindow@@UAEPAVLMemoryFile@@XZ" PURGE="0" COMMENT="" />
    <EXPORT ORDINAL="1328" NAME="?MemoryFile@LBitmap@@UAEPAVLMemoryFile@@XZ" PURGE="0" COMMENT="" />
    <EXPORT ORDINAL="1329" NAME="?MemoryFile@LBitmapBase@@UAEPAVLMemoryFile@@XZ" PURGE="0" COMMENT="" />
    <EXPORT ORDINAL="1330" NAME="?MemoryFile@LBitmapWindow@@UAEPAVLMemoryFile@@XZ" PURGE="0" COMMENT="" />
    <EXPORT ORDINAL="1331" NAME="?MinFilter@LBitmap@@UAEHI@Z" PURGE="4" COMMENT="" />
    <EXPORT ORDINAL="1332" NAME="?Mosaic@LBitmap@@UAEHI@Z" PURGE="4" COMMENT="" />
    <EXPORT ORDINAL="1333" NAME="?Move@LAnimationWindow@@AAEHII@Z" PURGE="8" COMMENT="" />
    <EXPORT ORDINAL="1334" NAME="?Move@LAnnotation@@UAEHNNI@Z" PURGE="20" COMMENT="" />
    <EXPORT ORDINAL="1335" NAME="?Move@LBitmapWindow@@QAEHAAUtagRECT@@I@Z" PURGE="8" COMMENT="" />
    <EXPORT ORDINAL="1336" NAME="?MoveFirstFrame@LAnimationWindow@@UAEHXZ" PURGE="0" COMMENT="" />
    <EXPORT ORDINAL="1337" NAME="?MoveFloater@LBitmapWindow@@AAEXPAUtagPOINT@@@Z" PURGE="4" COMMENT="" />
    <EXPORT ORDINAL="1338" NAME="?MoveLastFrame@LAnimationWindow@@UAEHXZ" PURGE="0" COMMENT="" />
    <EXPORT ORDINAL="1339" NAME="?MoveNextFrame@LAnimationWindow@@UAEHXZ" PURGE="0" COMMENT="" />
    <EXPORT ORDINAL="1340" NAME="?MovePreviousFrame@LAnimationWindow@@UAEHXZ" PURGE="0" COMMENT="" />
    <EXPORT ORDINAL="1341" NAME="?MoveToFrame@LAnimationWindow@@UAEHI@Z" PURGE="4" COMMENT="" />
    <EXPORT ORDINAL="1342" NAME="?MsgProcCallBack@LAnimationWindow@@MAEJPAUHWND__@@IIJ@Z" PURGE="16" COMMENT="" />
    <EXPORT ORDINAL="1343" NAME="?MsgProcCallBack@LAnnotationWindow@@MAEJPAUHWND__@@IIJ@Z" PURGE="16" COMMENT="" />
    <EXPORT ORDINAL="1344" NAME="?MsgProcCallBack@LBitmapWindow@@MAEJPAUHWND__@@IIJ@Z" PURGE="16" COMMENT="" />
    <EXPORT ORDINAL="1345" NAME="?NotifyParent@LBitmapWindow@@AAEXPAUHWND__@@IIJ@Z" PURGE="16" COMMENT="" />
    <EXPORT ORDINAL="1346" NAME="?Offset@LBitmapRgn@@UAEHHH@Z" PURGE="8" COMMENT="" />
    <EXPORT ORDINAL="1347" NAME="?Oilify@LBitmap@@UAEHI@Z" PURGE="4" COMMENT="" />
    <EXPORT ORDINAL="1348" NAME="?OnAnnEvent@LAnnotationWindow@@MAEXIK@Z" PURGE="8" COMMENT="" />
    <EXPORT ORDINAL="1349" NAME="?OnAnnotationEvent@LAnnotationWindow@@AAEXIK@Z" PURGE="8" COMMENT="" />
    <EXPORT ORDINAL="1350" NAME="?OnClose@LInetClient@@UAEHXZ" PURGE="0" COMMENT="" />
    <EXPORT ORDINAL="1351" NAME="?OnConnectRequest@LInetServer@@UAEHXZ" PURGE="0" COMMENT="" />
    <EXPORT ORDINAL="1352" NAME="?OnDataReady@LInetClient@@UAEHPADK@Z" PURGE="8" COMMENT="" />
    <EXPORT ORDINAL="1353" NAME="?OnDraw@LAnnotationWindow@@MAEXPAUHDC__@@AAUtagRECT@@@Z" PURGE="8" COMMENT="" />
    <EXPORT ORDINAL="1354" NAME="?OnDraw@LBitmapWindow@@MAEXPAUHDC__@@AAUtagRECT@@@Z" PURGE="8" COMMENT="" />
    <EXPORT ORDINAL="1355" NAME="?OnDropFile@LBitmapWindow@@AAEHPAUHDROP__@@@Z" PURGE="4" COMMENT="" />
    <EXPORT ORDINAL="1356" NAME="?OnFileDropped@LAnimationWindow@@EAEIPADII@Z" PURGE="12" COMMENT="" />
    <EXPORT ORDINAL="1357" NAME="?OnFileDropped@LBitmapWindow@@MAEIPADII@Z" PURGE="12" COMMENT="" />
    <EXPORT ORDINAL="1358" NAME="?OnHScroll@LBitmapWindow@@AAEXPAUHWND__@@IH@Z" PURGE="12" COMMENT="" />
    <EXPORT ORDINAL="1359" NAME="?OnKeyDown@LBitmapWindow@@AAEXIHI@Z" PURGE="12" COMMENT="" />
    <EXPORT ORDINAL="1360" NAME="?OnSize@LBitmapWindow@@AAEXIHH@Z" PURGE="12" COMMENT="" />
    <EXPORT ORDINAL="1361" NAME="?OnTimer@LBitmapWindow@@AAEXI@Z" PURGE="4" COMMENT="" />
    <EXPORT ORDINAL="1362" NAME="?OnVScroll@LBitmapWindow@@AAEXPAUHWND__@@IH@Z" PURGE="12" COMMENT="" />
    <EXPORT ORDINAL="1363" NAME="?OnZoom@LAnnotationWindow@@MAEXI@Z" PURGE="4" COMMENT="" />
    <EXPORT ORDINAL="1364" NAME="?OnZoom@LBitmapWindow@@MAEXI@Z" PURGE="4" COMMENT="" />
    <EXPORT ORDINAL="1365" NAME="?OpenRecord@LMMCapture@@UAEHPAPAXIPAUwaveFormatData@@IJ@Z" PURGE="20" COMMENT="" />
    <EXPORT ORDINAL="1366" NAME="?Paint@LAnimationWindow@@UAEPAVLPaint@@XZ" PURGE="0" COMMENT="" />
    <EXPORT ORDINAL="1367" NAME="?Paint@LAnnotationWindow@@UAEPAVLPaint@@XZ" PURGE="0" COMMENT="" />
    <EXPORT ORDINAL="1368" NAME="?Paint@LBitmap@@UAEPAVLPaint@@XZ" PURGE="0" COMMENT="" />
    <EXPORT ORDINAL="1369" NAME="?Paint@LBitmapBase@@UAEPAVLPaint@@XZ" PURGE="0" COMMENT="" />
    <EXPORT ORDINAL="1370" NAME="?Paint@LBitmapWindow@@UAEPAVLPaint@@XZ" PURGE="0" COMMENT="" />
    <EXPORT ORDINAL="1371" NAME="?PaintBitmap@LPaintEffect@@UAEHIIIK@Z" PURGE="16" COMMENT="" />
    <EXPORT ORDINAL="1372" NAME="?PaintDC@LPaint@@UAEHK@Z" PURGE="4" COMMENT="" />
    <EXPORT ORDINAL="1373" NAME="?PaintDCBuffer@LPaint@@UAEHAAVLBuffer@@HHK@Z" PURGE="16" COMMENT="" />
    <EXPORT ORDINAL="1374" NAME="?PaintEffect@LAnimationWindow@@UAEPAVLPaintEffect@@XZ" PURGE="0" COMMENT="" />
    <EXPORT ORDINAL="1375" NAME="?PaintEffect@LAnnotationWindow@@UAEPAVLPaintEffect@@XZ" PURGE="0" COMMENT="" />
    <EXPORT ORDINAL="1376" NAME="?PaintEffect@LBitmap@@UAEPAVLPaintEffect@@XZ" PURGE="0" COMMENT="" />
    <EXPORT ORDINAL="1377" NAME="?PaintEffect@LBitmapBase@@UAEPAVLPaintEffect@@XZ" PURGE="0" COMMENT="" />
    <EXPORT ORDINAL="1378" NAME="?PaintEffect@LBitmapWindow@@UAEPAVLPaintEffect@@XZ" PURGE="0" COMMENT="" />
    <EXPORT ORDINAL="1379" NAME="?PaintFast@LBitmapWindow@@AAEXXZ" PURGE="0" COMMENT="" />
    <EXPORT ORDINAL="1380" NAME="?PaintNotification@LBitmapWindow@@MAEXHH@Z" PURGE="8" COMMENT="" />
    <EXPORT ORDINAL="1381" NAME="?PaintRgnDC@LPaint@@UAEHK@Z" PURGE="4" COMMENT="" />
    <EXPORT ORDINAL="1382" NAME="?PaintRgnDCBuffer@LPaint@@UAEHAAVLBuffer@@HHK@Z" PURGE="16" COMMENT="" />
    <EXPORT ORDINAL="1383" NAME="?PaintRgnDCEffect@LPaintEffect@@UAEHIK@Z" PURGE="8" COMMENT="" />
    <EXPORT ORDINAL="1384" NAME="?PaintThread@LBitmapWindow@@AAEXXZ" PURGE="0" COMMENT="" />
    <EXPORT ORDINAL="1385" NAME="?PaintThreadCS@LBitmapWindow@@CGKPAX@Z" PURGE="4" COMMENT="" />
    <EXPORT ORDINAL="1386" NAME="?PaintTransition@LPaintEffect@@UAEHPAUtagRECT@@IIIIK@Z" PURGE="24" COMMENT="" />
    <EXPORT ORDINAL="1387" NAME="?PaintWhileLoadCallBack@LBitmapWindow@@CAHPAUstruct_file_information@@PAUstruct_LEAD_Bitmap@@PAEIHHPAX@Z" PURGE="0" COMMENT="" />
    <EXPORT ORDINAL="1388" NAME="?PanSubClass@LBitmapWindow@@CGJPAUHWND__@@IIJ@Z" PURGE="16" COMMENT="" />
    <EXPORT ORDINAL="1389" NAME="?PanWindowCB@LBitmapWindow@@AAEXIPAUtagRECT@@@Z" PURGE="8" COMMENT="" />
    <EXPORT ORDINAL="1390" NAME="?PanWindowCS@LBitmapWindow@@CAXPAUHWND__@@0IPAUtagRECT@@PAX@Z" PURGE="0" COMMENT="" />
    <EXPORT ORDINAL="1391" NAME="?PanWndCallBack@LAnnotationWindow@@MAEXIPAUtagRECT@@@Z" PURGE="8" COMMENT="" />
    <EXPORT ORDINAL="1392" NAME="?PanWndCallBack@LBitmapWindow@@MAEXIPAUtagRECT@@@Z" PURGE="8" COMMENT="" />
    <EXPORT ORDINAL="1393" NAME="?PasteFrames@LMultimedia@@UAEHJJK@Z" PURGE="12" COMMENT="" />
    <EXPORT ORDINAL="1394" NAME="?Pause@LMultimedia@@UAEHXZ" PURGE="0" COMMENT="" />
    <EXPORT ORDINAL="1395" NAME="?PauseFeedSound@LMMCapture@@UAEHI@Z" PURGE="4" COMMENT="" />
    <EXPORT ORDINAL="1396" NAME="?Picturize@LBitmap@@UAEHPADIHH@Z" PURGE="16" COMMENT="" />
    <EXPORT ORDINAL="1397" NAME="?PicturizeCS@LBitmap@@CAHPAUstruct_LEAD_Bitmap@@HHPAX@Z" PURGE="0" COMMENT="" />
    <EXPORT ORDINAL="1398" NAME="?PicturizeCallBack@LBitmap@@MAEHPAUstruct_LEAD_Bitmap@@HH@Z" PURGE="12" COMMENT="" />
    <EXPORT ORDINAL="1399" NAME="?PicturizeCallBack@LBitmapWindow@@MAEHPAUstruct_LEAD_Bitmap@@HH@Z" PURGE="12" COMMENT="" />
    <EXPORT ORDINAL="1400" NAME="?Play@LMultimedia@@UAEHPAD@Z" PURGE="4" COMMENT="" />
    <EXPORT ORDINAL="1401" NAME="?PlayAnimation@LAnimationWindow@@QAEHXZ" PURGE="0" COMMENT="" />
    <EXPORT ORDINAL="1402" NAME="?PlayCallback@LAnimationWindow@@KAHPAUstruct_file_information@@PAUstruct_LEAD_Bitmap@@PAEIHHPAX@Z" PURGE="0" COMMENT="" />
    <EXPORT ORDINAL="1403" NAME="?PlayProcessing@LAnimationWindow@@AAEHXZ" PURGE="0" COMMENT="" />
    <EXPORT ORDINAL="1404" NAME="?PlayProcessing@LAnimationWindow@@IAEHPAUHWND__@@I@Z" PURGE="8" COMMENT="" />
    <EXPORT ORDINAL="1405" NAME="?PlayWhileLoad@LAnimationWindow@@MAEHXZ" PURGE="0" COMMENT="" />
    <EXPORT ORDINAL="1406" NAME="?PointFromBitmap@LBitmapBase@@UAEHHPAH0@Z" PURGE="12" COMMENT="" />
    <EXPORT ORDINAL="1407" NAME="?PointToBitmap@LBitmapBase@@UAEHHPAH0@Z" PURGE="12" COMMENT="" />
    <EXPORT ORDINAL="1408" NAME="?PostProcessing@LAnimationWindow@@IAEHXZ" PURGE="0" COMMENT="" />
    <EXPORT ORDINAL="1409" NAME="?Posterize@LBitmap@@UAEHI@Z" PURGE="4" COMMENT="" />
    <EXPORT ORDINAL="1410" NAME="?PreLoadFilters@LFileSettings@@SAHHHPAD@Z" PURGE="0" COMMENT="" />
    <EXPORT ORDINAL="1411" NAME="?PreProcessing@LAnimationWindow@@IAEHXZ" PURGE="0" COMMENT="" />
    <EXPORT ORDINAL="1412" NAME="?PrepareNewAnimation@LAnimationWindow@@AAEXXZ" PURGE="0" COMMENT="" />
    <EXPORT ORDINAL="1413" NAME="?PrepareUIFlags@LDialog@@AAEXIPAK@Z" PURGE="8" COMMENT="" />
    <EXPORT ORDINAL="1414" NAME="?PrepareXFormPanFloater@LBitmapWindow@@AAEXPAU_RGNXFORM@@@Z" PURGE="4" COMMENT="" />
    <EXPORT ORDINAL="1415" NAME="?Print@LAnimationWindow@@UAEPAVLPrint@@XZ" PURGE="0" COMMENT="" />
    <EXPORT ORDINAL="1416" NAME="?Print@LAnnotation@@UAEHPAUHDC__@@PAUtagRECT@@@Z" PURGE="8" COMMENT="" />
    <EXPORT ORDINAL="1417" NAME="?Print@LAnnotationWindow@@UAEPAVLPrint@@XZ" PURGE="0" COMMENT="" />
    <EXPORT ORDINAL="1418" NAME="?Print@LBitmap@@UAEPAVLPrint@@XZ" PURGE="0" COMMENT="" />
    <EXPORT ORDINAL="1419" NAME="?Print@LBitmapBase@@UAEPAVLPrint@@XZ" PURGE="0" COMMENT="" />
    <EXPORT ORDINAL="1420" NAME="?Print@LBitmapWindow@@UAEPAVLPrint@@XZ" PURGE="0" COMMENT="" />
    <EXPORT ORDINAL="1421" NAME="?Print@LPrint@@UAEPAUHDC__@@PAU2@HHHHI@Z" PURGE="24" COMMENT="" />
    <EXPORT ORDINAL="1422" NAME="?PrintFast@LPrint@@UAEPAUHDC__@@PAU2@HHHHI@Z" PURGE="24" COMMENT="" />
    <EXPORT ORDINAL="1423" NAME="?Process@LPlayBack@@UAEIXZ" PURGE="0" COMMENT="" />
    <EXPORT ORDINAL="1424" NAME="?PutColors@LBitmapBase@@UAEHHHPAUtagRGBQUAD@@@Z" PURGE="12" COMMENT="" />
    <EXPORT ORDINAL="1425" NAME="?PutPixelColor@LBitmapBase@@UAEHHHK@Z" PURGE="12" COMMENT="" />
    <EXPORT ORDINAL="1426" NAME="?PutRow@LBitmapBase@@UAEJAAVLBuffer@@H@Z" PURGE="8" COMMENT="" />
    <EXPORT ORDINAL="1427" NAME="?PutRowCol@LBitmapBase@@UAEJAAVLBuffer@@HH@Z" PURGE="12" COMMENT="" />
    <EXPORT ORDINAL="1428" NAME="?PutRowColCompressed@LBitmapBase@@UAEJAAVLBuffer@@HHKPAV2@@Z" PURGE="20" COMMENT="" />
    <EXPORT ORDINAL="1429" NAME="?PutRowCompressed@LBitmapBase@@UAEHAAVLBuffer@@HHPAV2@@Z" PURGE="16" COMMENT="" />
    <EXPORT ORDINAL="1430" NAME="?ReadComment@LFile@@UAEHIPAVLBuffer@@@Z" PURGE="8" COMMENT="" />
    <EXPORT ORDINAL="1431" NAME="?ReadComment@LMemoryFile@@UAEHAAVLBuffer@@PAV2@I@Z" PURGE="12" COMMENT="" />
    <EXPORT ORDINAL="1432" NAME="?ReadCommentExt@LFile@@UAEHIPAU_FILECOMMENTS@@PAEPAI@Z" PURGE="16" COMMENT="" />
    <EXPORT ORDINAL="1433" NAME="?ReadData@LInet@@UAEHPADPAK@Z" PURGE="8" COMMENT="" />
    <EXPORT ORDINAL="1434" NAME="?ReadFileTransforms@LFile@@UAEHPAU_FILETRANSFORMS@@@Z" PURGE="4" COMMENT="" />
    <EXPORT ORDINAL="1435" NAME="?ReadStamp@LFile@@UAEHXZ" PURGE="0" COMMENT="" />
    <EXPORT ORDINAL="1436" NAME="?ReadTag@LFile@@UAEHGPAGPAKPAVLBuffer@@@Z" PURGE="16" COMMENT="" />
    <EXPORT ORDINAL="1437" NAME="?ReadTag@LMemoryFile@@UAEJAAVLBuffer@@PAV2@GPAGPAK@Z" PURGE="20" COMMENT="" />
    <EXPORT ORDINAL="1438" NAME="?Realize@LAnnContainer@@UAEHPAUstruct_LEAD_Bitmap@@PAUtagRECT@@I@Z" PURGE="12" COMMENT="" />
    <EXPORT ORDINAL="1439" NAME="?Realize@LAnnContainer@@UAEHPAVLBitmapBase@@PAUtagRECT@@I@Z" PURGE="12" COMMENT="" />
    <EXPORT ORDINAL="1440" NAME="?Realize@LAnnotation@@UAEHPAUstruct_LEAD_Bitmap@@PAUtagRECT@@@Z" PURGE="8" COMMENT="" />
    <EXPORT ORDINAL="1441" NAME="?Realize@LAnnotation@@UAEHPAVLBitmapBase@@PAUtagRECT@@@Z" PURGE="8" COMMENT="" />
    <EXPORT ORDINAL="1442" NAME="?Reallocate@LBuffer@@QAEHK@Z" PURGE="4" COMMENT="" />
    <EXPORT ORDINAL="1443" NAME="?RecordError@LBase@@SAXH@Z" PURGE="0" COMMENT="" />
    <EXPORT ORDINAL="1444" NAME="?RectFromBitmap@LBitmapBase@@UAEHHPAUtagRECT@@@Z" PURGE="8" COMMENT="" />
    <EXPORT ORDINAL="1445" NAME="?RectToBitmap@LBitmapBase@@UAEHHPAUtagRECT@@@Z" PURGE="8" COMMENT="" />
    <EXPORT ORDINAL="1446" NAME="?RedirectCloseCS@LBaseFile@@KAHH@Z" PURGE="0" COMMENT="" />
    <EXPORT ORDINAL="1447" NAME="?RedirectCloseCallBack@LBaseFile@@MAEHH@Z" PURGE="4" COMMENT="" />
    <EXPORT ORDINAL="1448" NAME="?RedirectOpenCS@LBaseFile@@KAHPADHH@Z" PURGE="0" COMMENT="" />
    <EXPORT ORDINAL="1449" NAME="?RedirectOpenCallBack@LBaseFile@@MAEHPADHH@Z" PURGE="12" COMMENT="" />
    <EXPORT ORDINAL="1450" NAME="?RedirectReadCS@LBaseFile@@KAIHPADH@Z" PURGE="0" COMMENT="" />
    <EXPORT ORDINAL="1451" NAME="?RedirectReadCallBack@LBaseFile@@MAEIHPADH@Z" PURGE="12" COMMENT="" />
    <EXPORT ORDINAL="1452" NAME="?RedirectSeekCS@LBaseFile@@KAJHJH@Z" PURGE="0" COMMENT="" />
    <EXPORT ORDINAL="1453" NAME="?RedirectSeekCallBack@LBaseFile@@MAEJHJH@Z" PURGE="12" COMMENT="" />
    <EXPORT ORDINAL="1454" NAME="?RedirectWriteCS@LBaseFile@@KAIHPADH@Z" PURGE="0" COMMENT="" />
    <EXPORT ORDINAL="1455" NAME="?RedirectWriteCallBack@LBaseFile@@MAEIHPADH@Z" PURGE="12" COMMENT="" />
    <EXPORT ORDINAL="1456" NAME="?Region@LAnimationWindow@@UAEPAVLBitmapRgn@@XZ" PURGE="0" COMMENT="" />
    <EXPORT ORDINAL="1457" NAME="?Region@LAnnotationWindow@@UAEPAVLBitmapRgn@@XZ" PURGE="0" COMMENT="" />
    <EXPORT ORDINAL="1458" NAME="?Region@LBitmap@@UAEPAVLBitmapRgn@@XZ" PURGE="0" COMMENT="" />
    <EXPORT ORDINAL="1459" NAME="?Region@LBitmapBase@@UAEPAVLBitmapRgn@@XZ" PURGE="0" COMMENT="" />
    <EXPORT ORDINAL="1460" NAME="?Region@LBitmapWindow@@UAEPAVLBitmapRgn@@XZ" PURGE="0" COMMENT="" />
    <EXPORT ORDINAL="1461" NAME="?RegisterBitmapWndClass@LBitmapWindow@@AAEHXZ" PURGE="0" COMMENT="" />
    <EXPORT ORDINAL="1462" NAME="?Release@LBitmapBase@@UAEHXZ" PURGE="0" COMMENT="" />
    <EXPORT ORDINAL="1463" NAME="?ReleaseBackDC@LPaintEffect@@AAEXPAUHDC__@@@Z" PURGE="4" COMMENT="" />
    <EXPORT ORDINAL="1464" NAME="?RemapIntensity@LBitmap@@UAEHPAEI@Z" PURGE="8" COMMENT="" />
    <EXPORT ORDINAL="1465" NAME="?Remove@LAnnotation@@UAEHXZ" PURGE="0" COMMENT="" />
    <EXPORT ORDINAL="1466" NAME="?RemoveAll@LInet@@QAEHXZ" PURGE="0" COMMENT="" />
    <EXPORT ORDINAL="1467" NAME="?RemoveFrame@LAnimationWindow@@IAEHIPAVLBitmapBase@@@Z" PURGE="8" COMMENT="" />
    <EXPORT ORDINAL="1468" NAME="?RemoveItem@LBitmapList@@UAEHIPAVLBitmapBase@@@Z" PURGE="8" COMMENT="" />
    <EXPORT ORDINAL="1469" NAME="?RemoveItem@LDictionary@@QAEXPAX@Z" PURGE="4" COMMENT="" />
    <EXPORT ORDINAL="1470" NAME="?RemoveItem@LInet@@QAEHIPAV1@@Z" PURGE="8" COMMENT="" />
    <EXPORT ORDINAL="1471" NAME="?Repaint@LBitmapWindow@@QAEXPAUtagRECT@@@Z" PURGE="4" COMMENT="" />
    <EXPORT ORDINAL="1472" NAME="?ReplaceFrame@LMultimedia@@UAEHJPAUstruct_LEAD_Bitmap@@@Z" PURGE="8" COMMENT="" />
    <EXPORT ORDINAL="1473" NAME="?ReplaceFrame@LMultimedia@@UAEHJPAVLBitmapBase@@@Z" PURGE="8" COMMENT="" />
    <EXPORT ORDINAL="1474" NAME="?Resample@LBitmapBase@@UAEHHH@Z" PURGE="8" COMMENT="" />
    <EXPORT ORDINAL="1475" NAME="?ResetBitmap@LAnimationWindow@@AAEXI@Z" PURGE="4" COMMENT="" />
    <EXPORT ORDINAL="1476" NAME="?Resize@LAnnotation@@UAEHNNPAU_ANNPOINT@@I@Z" PURGE="24" COMMENT="" />
    <EXPORT ORDINAL="1477" NAME="?Resize@LBitmapBase@@UAEHPAV1@@Z" PURGE="4" COMMENT="" />
    <EXPORT ORDINAL="1478" NAME="?Resize@LBuffer@@UAEHHHPAH0@Z" PURGE="16" COMMENT="" />
    <EXPORT ORDINAL="1479" NAME="?RestoreFloater@LBitmapWindow@@AAEXXZ" PURGE="0" COMMENT="" />
    <EXPORT ORDINAL="1480" NAME="?RestoreGlobalSettings@LBitmapBase@@IAEXXZ" PURGE="0" COMMENT="" />
    <EXPORT ORDINAL="1481" NAME="?Resume@LMultimedia@@UAEHXZ" PURGE="0" COMMENT="" />
    <EXPORT ORDINAL="1482" NAME="?Reverse@LAnnotation@@UAEHPAU_ANNPOINT@@I@Z" PURGE="8" COMMENT="" />
    <EXPORT ORDINAL="1483" NAME="?Reverse@LBitmapBase@@UAEHXZ" PURGE="0" COMMENT="" />
    <EXPORT ORDINAL="1484" NAME="?Rotate@LAnnotation@@UAEHNPAU_ANNPOINT@@I@Z" PURGE="16" COMMENT="" />
    <EXPORT ORDINAL="1485" NAME="?Rotate@LBitmapBase@@UAEHHI@Z" PURGE="8" COMMENT="" />
    <EXPORT ORDINAL="1486" NAME="?RotateFine@LBitmapBase@@UAEHJIK@Z" PURGE="12" COMMENT="" />
    <EXPORT ORDINAL="1487" NAME="?RotateViewPerspective@LBitmapBase@@UAEHH@Z" PURGE="4" COMMENT="" />
    <EXPORT ORDINAL="1488" NAME="?Save@LAnimationWindow@@UAEHXZ" PURGE="0" COMMENT="" />
    <EXPORT ORDINAL="1489" NAME="?Save@LAnnContainer@@UAEHPADII@Z" PURGE="12" COMMENT="" />
    <EXPORT ORDINAL="1490" NAME="?Save@LBitmapBase@@UAEHHHHHI@Z" PURGE="20" COMMENT="" />
    <EXPORT ORDINAL="1491" NAME="?Save@LBitmapBase@@UAEHPADHHHHI@Z" PURGE="24" COMMENT="" />
    <EXPORT ORDINAL="1492" NAME="?Save@LBitmapList@@UAEHPADHHH@Z" PURGE="16" COMMENT="" />
    <EXPORT ORDINAL="1493" NAME="?SaveBitmap@LFile@@UAEHHHHHI@Z" PURGE="20" COMMENT="" />
    <EXPORT ORDINAL="1494" NAME="?SaveBitmap@LMemoryFile@@UAEHPAVLBuffer@@HHH@Z" PURGE="16" COMMENT="" />
    <EXPORT ORDINAL="1495" NAME="?SaveBitmapList@LFile@@UAEHPAVLBitmapList@@HHH@Z" PURGE="16" COMMENT="" />
    <EXPORT ORDINAL="1496" NAME="?SaveFile@LFile@@UAEHHHHI@Z" PURGE="16" COMMENT="" />
    <EXPORT ORDINAL="1497" NAME="?SaveFile@LMultimedia@@UAEHPADH00@Z" PURGE="16" COMMENT="" />
    <EXPORT ORDINAL="1498" NAME="?SaveFileCS@LFile@@CAHPAUstruct_LEAD_Bitmap@@PAEIIPAX@Z" PURGE="0" COMMENT="" />
    <EXPORT ORDINAL="1499" NAME="?SaveFileCallBack@LFile@@MAEHPAVLBitmapBase@@PAVLBuffer@@II@Z" PURGE="16" COMMENT="" />
    <EXPORT ORDINAL="1500" NAME="?SaveFileOffsetCS@LFile@@CAHPAUstruct_LEAD_Bitmap@@PAEIIPAX@Z" PURGE="0" COMMENT="" />
    <EXPORT ORDINAL="1501" NAME="?SaveFileOffsetCallBack@LFile@@MAEHPAVLBitmapBase@@PAVLBuffer@@II@Z" PURGE="16" COMMENT="" />
    <EXPORT ORDINAL="1502" NAME="?SaveFileTileCS@LFile@@CAHPAUstruct_LEAD_Bitmap@@PAEIIPAX@Z" PURGE="0" COMMENT="" />
    <EXPORT ORDINAL="1503" NAME="?SaveFileTileCallBack@LFile@@MAEHPAVLBitmapBase@@PAVLBuffer@@II@Z" PURGE="16" COMMENT="" />
    <EXPORT ORDINAL="1504" NAME="?SaveFloater@LBitmapWindow@@AAEXXZ" PURGE="0" COMMENT="" />
    <EXPORT ORDINAL="1505" NAME="?SaveFrame@LMMCapture@@UAEHPADHHHI@Z" PURGE="20" COMMENT="" />
    <EXPORT ORDINAL="1506" NAME="?SaveMemory@LAnnContainer@@UAEHIIPAPAXPAK@Z" PURGE="16" COMMENT="" />
    <EXPORT ORDINAL="1507" NAME="?SaveOffset@LAnnContainer@@UAEKHJII@Z" PURGE="16" COMMENT="" />
    <EXPORT ORDINAL="1508" NAME="?SaveOffset@LFile@@UAEHHJPAJHHHH@Z" PURGE="28" COMMENT="" />
    <EXPORT ORDINAL="1509" NAME="?SaveTag@LAnnContainer@@UAEHII@Z" PURGE="8" COMMENT="" />
    <EXPORT ORDINAL="1510" NAME="?SaveTile@LFile@@UAEHHH@Z" PURGE="8" COMMENT="" />
    <EXPORT ORDINAL="1511" NAME="?ScreenCapture@LAnimationWindow@@UAEPAVLScreenCapture@@XZ" PURGE="0" COMMENT="" />
    <EXPORT ORDINAL="1512" NAME="?ScreenCapture@LAnnotationWindow@@UAEPAVLScreenCapture@@XZ" PURGE="0" COMMENT="" />
    <EXPORT ORDINAL="1513" NAME="?ScreenCapture@LBitmap@@UAEPAVLScreenCapture@@XZ" PURGE="0" COMMENT="" />
    <EXPORT ORDINAL="1514" NAME="?ScreenCapture@LBitmapBase@@UAEPAVLScreenCapture@@XZ" PURGE="0" COMMENT="" />
    <EXPORT ORDINAL="1515" NAME="?ScreenCapture@LBitmapWindow@@UAEPAVLScreenCapture@@XZ" PURGE="0" COMMENT="" />
    <EXPORT ORDINAL="1516" NAME="?ScreenCaptureCS@LScreenCapture@@CAHPAUstruct_LEAD_Bitmap@@PAUtagLEADCAPTUREINFO@@PAX@Z" PURGE="0" COMMENT="" />
    <EXPORT ORDINAL="1517" NAME="?ScreenCaptureCallBack@LScreenCapture@@MAEHXZ" PURGE="0" COMMENT="" />
    <EXPORT ORDINAL="1518" NAME="?ScrollBy@LBitmapWindow@@QAE?AUtagPOINT@@HH@Z" PURGE="12" COMMENT="" />
    <EXPORT ORDINAL="1519" NAME="?ScrollTo@LBitmapWindow@@QAE?AUtagPOINT@@HH@Z" PURGE="12" COMMENT="" />
    <EXPORT ORDINAL="1520" NAME="?Select@LIsis@@UAEHPAD@Z" PURGE="4" COMMENT="" />
    <EXPORT ORDINAL="1521" NAME="?Select@LTwain@@UAEHXZ" PURGE="0" COMMENT="" />
    <EXPORT ORDINAL="1522" NAME="?SelectPoint@LAnnContainer@@UAEHPAUtagPOINT@@@Z" PURGE="4" COMMENT="" />
    <EXPORT ORDINAL="1523" NAME="?SelectRect@LAnnContainer@@UAEHPAUtagRECT@@@Z" PURGE="4" COMMENT="" />
    <EXPORT ORDINAL="1524" NAME="?Send@LInet@@UAEHPADPAK@Z" PURGE="8" COMMENT="" />
    <EXPORT ORDINAL="1525" NAME="?Send@LInet@@UAEHPADPAKI@Z" PURGE="12" COMMENT="" />
    <EXPORT ORDINAL="1526" NAME="?Send@LInet@@UAEHPAUstruct_LEAD_Bitmap@@HHHPAK@Z" PURGE="20" COMMENT="" />
    <EXPORT ORDINAL="1527" NAME="?Send@LInet@@UAEHPAUwaveFormatData@@PAUwaveData@@PAK@Z" PURGE="12" COMMENT="" />
    <EXPORT ORDINAL="1528" NAME="?Send@LInet@@UAEHPAVLBitmapBase@@HHHPAK@Z" PURGE="20" COMMENT="" />
    <EXPORT ORDINAL="1529" NAME="?SendToBack@LAnnotation@@UAEHXZ" PURGE="0" COMMENT="" />
    <EXPORT ORDINAL="1530" NAME="?SetActive@LMultimedia@@UAEHH@Z" PURGE="4" COMMENT="" />
    <EXPORT ORDINAL="1531" NAME="?SetActiveState@LAnnotation@@UAEHI@Z" PURGE="4" COMMENT="" />
    <EXPORT ORDINAL="1532" NAME="?SetAlpha@LBitmapBase@@UAEHAAV1@@Z" PURGE="4" COMMENT="" />
    <EXPORT ORDINAL="1533" NAME="?SetAngle@LDialog@@QAEHJ@Z" PURGE="4" COMMENT="" />
    <EXPORT ORDINAL="1534" NAME="?SetAngleFlag@LDialog@@QAEHI@Z" PURGE="4" COMMENT="" />
    <EXPORT ORDINAL="1535" NAME="?SetAt@LAnimationWindow@@IAEHIPAVLBitmapBase@@I@Z" PURGE="12" COMMENT="" />
    <EXPORT ORDINAL="1536" NAME="?SetAudFormat@LMMCapture@@UAEHPAUwaveFormatData@@I@Z" PURGE="8" COMMENT="" />
    <EXPORT ORDINAL="1537" NAME="?SetAutoContainer@LAnnAutomation@@UAEHPAVLAnnContainer@@@Z" PURGE="4" COMMENT="" />
    <EXPORT ORDINAL="1538" NAME="?SetAutoContainer@LAnnAutomation@@UAEHPAX@Z" PURGE="4" COMMENT="" />
    <EXPORT ORDINAL="1539" NAME="?SetAutoDrawEnabled@LAnnAutomation@@UAEHI@Z" PURGE="4" COMMENT="" />
    <EXPORT ORDINAL="1540" NAME="?SetAutoMenuEnabled@LAnnAutomation@@UAEHI@Z" PURGE="4" COMMENT="" />
    <EXPORT ORDINAL="1541" NAME="?SetAutoText@LAnnAutomation@@UAEHIPAD@Z" PURGE="8" COMMENT="" />
    <EXPORT ORDINAL="1542" NAME="?SetBackColor@LAnnAutomation@@UAEHKI@Z" PURGE="8" COMMENT="" />
    <EXPORT ORDINAL="1543" NAME="?SetBackColor@LAnnContainer@@UAEHKI@Z" PURGE="8" COMMENT="" />
    <EXPORT ORDINAL="1544" NAME="?SetBackColor@LAnnEllipse@@UAEHKI@Z" PURGE="8" COMMENT="" />
    <EXPORT ORDINAL="1545" NAME="?SetBackColor@LAnnHilite@@UAEHKI@Z" PURGE="8" COMMENT="" />
    <EXPORT ORDINAL="1546" NAME="?SetBackColor@LAnnNote@@UAEHKI@Z" PURGE="8" COMMENT="" />
    <EXPORT ORDINAL="1547" NAME="?SetBackColor@LAnnPolygon@@UAEHKI@Z" PURGE="8" COMMENT="" />
    <EXPORT ORDINAL="1548" NAME="?SetBackColor@LAnnRectangle@@UAEHKI@Z" PURGE="8" COMMENT="" />
    <EXPORT ORDINAL="1549" NAME="?SetBackColor@LAnnRedact@@UAEHKI@Z" PURGE="8" COMMENT="" />
    <EXPORT ORDINAL="1550" NAME="?SetBackColor@LAnnStamp@@UAEHKI@Z" PURGE="8" COMMENT="" />
    <EXPORT ORDINAL="1551" NAME="?SetBackColor@LAnnText@@UAEHKI@Z" PURGE="8" COMMENT="" />
    <EXPORT ORDINAL="1552" NAME="?SetBackColor@LAnnotation@@IAEHKI@Z" PURGE="8" COMMENT="" />
    <EXPORT ORDINAL="1553" NAME="?SetBackColor@LDialog@@QAEHK@Z" PURGE="4" COMMENT="" />
    <EXPORT ORDINAL="1554" NAME="?SetBackgroundBitmap@LDialog@@QAEHPAVLBitmapBase@@@Z" PURGE="4" COMMENT="" />
    <EXPORT ORDINAL="1555" NAME="?SetBackgroundColor@LAnimationWindow@@QAEXK@Z" PURGE="4" COMMENT="" />
    <EXPORT ORDINAL="1556" NAME="?SetBackgroundColor@LPaintEffect@@QAEHK@Z" PURGE="4" COMMENT="" />
    <EXPORT ORDINAL="1557" NAME="?SetBalance@LMultimedia@@UAEHH@Z" PURGE="4" COMMENT="" />
    <EXPORT ORDINAL="1558" NAME="?SetBitmap@LAnnContainer@@UAEHPAUstruct_LEAD_Bitmap@@I@Z" PURGE="8" COMMENT="" />
    <EXPORT ORDINAL="1559" NAME="?SetBitmap@LAnnContainer@@UAEHPAVLBitmapBase@@I@Z" PURGE="8" COMMENT="" />
    <EXPORT ORDINAL="1560" NAME="?SetBitmap@LAnnStamp@@UAEHPAUstruct_LEAD_Bitmap@@I@Z" PURGE="8" COMMENT="" />
    <EXPORT ORDINAL="1561" NAME="?SetBitmap@LAnnStamp@@UAEHPAVLBitmapBase@@I@Z" PURGE="8" COMMENT="" />
    <EXPORT ORDINAL="1562" NAME="?SetBitmap@LAnnotation@@IAEHPAUstruct_LEAD_Bitmap@@I@Z" PURGE="8" COMMENT="" />
    <EXPORT ORDINAL="1563" NAME="?SetBitmap@LAnnotation@@IAEHPAVLBitmapBase@@I@Z" PURGE="8" COMMENT="" />
    <EXPORT ORDINAL="1564" NAME="?SetBitmap@LBaseFile@@QAEXPAVLBitmapBase@@@Z" PURGE="4" COMMENT="" />
    <EXPORT ORDINAL="1565" NAME="?SetBitmap@LBitmapRgn@@UAEXPAVLBitmapBase@@@Z" PURGE="4" COMMENT="" />
    <EXPORT ORDINAL="1566" NAME="?SetBitmap@LDialog@@QAEXPAVLBitmapBase@@@Z" PURGE="4" COMMENT="" />
    <EXPORT ORDINAL="1567" NAME="?SetBitmap@LDraw@@QAEXPAVLBitmapBase@@@Z" PURGE="4" COMMENT="" />
    <EXPORT ORDINAL="1568" NAME="?SetBitmap@LFile@@QAEXPAVLBitmapBase@@@Z" PURGE="4" COMMENT="" />
    <EXPORT ORDINAL="1569" NAME="?SetBitmap@LPrint@@UAEXPAVLBitmapBase@@@Z" PURGE="4" COMMENT="" />
    <EXPORT ORDINAL="1570" NAME="?SetBitmap@LScanner@@UAEXPAVLBitmapBase@@@Z" PURGE="4" COMMENT="" />
    <EXPORT ORDINAL="1571" NAME="?SetBitmap@LScreenCapture@@UAEXPAVLBitmapBase@@@Z" PURGE="4" COMMENT="" />
    <EXPORT ORDINAL="1572" NAME="?SetBitmapDpiX@LAnnAutomation@@UAEHNI@Z" PURGE="12" COMMENT="" />
    <EXPORT ORDINAL="1573" NAME="?SetBitmapDpiY@LAnnAutomation@@UAEHNI@Z" PURGE="12" COMMENT="" />
    <EXPORT ORDINAL="1574" NAME="?SetBitmapList@LAnimationWindow@@QAEXPAVLBitmapList@@0HH@Z" PURGE="16" COMMENT="" />
    <EXPORT ORDINAL="1575" NAME="?SetBitmapList@LBitmapList@@QAEXPAV1@@Z" PURGE="4" COMMENT="" />
    <EXPORT ORDINAL="1576" NAME="?SetBitsPerPixel@LDialog@@QAEHH@Z" PURGE="4" COMMENT="" />
    <EXPORT ORDINAL="1577" NAME="?SetButtonVisible@LAnnToolBar@@UAEHII@Z" PURGE="8" COMMENT="" />
    <EXPORT ORDINAL="1578" NAME="?SetCaptureAreaOptions@LScreenCapture@@UAEHPAUtagLEADCAPTUREAREAOPTION@@@Z" PURGE="4" COMMENT="" />
    <EXPORT ORDINAL="1579" NAME="?SetCaptureObjectOptions@LScreenCapture@@UAEHPAUtagLEADCAPTUREOBJECTOPTION@@@Z" PURGE="4" COMMENT="" />
    <EXPORT ORDINAL="1580" NAME="?SetCaptureOptionDlg@LScreenCapture@@UAEHPAUHWND__@@@Z" PURGE="4" COMMENT="" />
    <EXPORT ORDINAL="1581" NAME="?SetCaptureOptions@LScreenCapture@@UAEHPAUtagLEADCAPTUREOPTION@@@Z" PURGE="4" COMMENT="" />
    <EXPORT ORDINAL="1582" NAME="?SetChange@LDialog@@QAEHH@Z" PURGE="4" COMMENT="" />
    <EXPORT ORDINAL="1583" NAME="?SetChannel@LDialog@@QAEHI@Z" PURGE="4" COMMENT="" />
    <EXPORT ORDINAL="1584" NAME="?SetClipDstRect@LBitmapBase@@UAEHPAUtagRECT@@@Z" PURGE="4" COMMENT="" />
    <EXPORT ORDINAL="1585" NAME="?SetClipSrcRect@LBitmapBase@@UAEHPAUtagRECT@@@Z" PURGE="4" COMMENT="" />
    <EXPORT ORDINAL="1586" NAME="?SetComment@LFileSettings@@SAHIPAEI@Z" PURGE="0" COMMENT="" />
    <EXPORT ORDINAL="1587" NAME="?SetCompressionOpts@LMultimedia@@UAEHPAUtagCOMPRESSIONOPTS@@@Z" PURGE="4" COMMENT="" />
    <EXPORT ORDINAL="1588" NAME="?SetCurrentCursor@LBitmapWindow@@AAEXXZ" PURGE="0" COMMENT="" />
    <EXPORT ORDINAL="1589" NAME="?SetCurrentIndex@LBitmapList@@QAEHI@Z" PURGE="4" COMMENT="" />
    <EXPORT ORDINAL="1590" NAME="?SetCurrentPos@LMultimedia@@UAEHJ@Z" PURGE="4" COMMENT="" />
    <EXPORT ORDINAL="1591" NAME="?SetDC@LDraw@@QAEPAUHDC__@@PAU2@@Z" PURGE="4" COMMENT="" />
    <EXPORT ORDINAL="1592" NAME="?SetDefaultAreaOptions@LScreenCapture@@UAEHXZ" PURGE="0" COMMENT="" />
    <EXPORT ORDINAL="1593" NAME="?SetDefaultCaptureOptions@LScreenCapture@@UAEHXZ" PURGE="0" COMMENT="" />
    <EXPORT ORDINAL="1594" NAME="?SetDefaultDithering@LBitmapBase@@QAEHI@Z" PURGE="4" COMMENT="" />
    <EXPORT ORDINAL="1595" NAME="?SetDefaultDithering@LBitmapWindow@@UAEHI@Z" PURGE="4" COMMENT="" />
    <EXPORT ORDINAL="1596" NAME="?SetDefaultObjectOptions@LScreenCapture@@UAEHXZ" PURGE="0" COMMENT="" />
    <EXPORT ORDINAL="1597" NAME="?SetDelay@LAnimationWindow@@QAEHHI@Z" PURGE="8" COMMENT="" />
    <EXPORT ORDINAL="1598" NAME="?SetDepth@LDialog@@QAEHI@Z" PURGE="4" COMMENT="" />
    <EXPORT ORDINAL="1599" NAME="?SetDimension@LFileSettings@@SAHHKK@Z" PURGE="0" COMMENT="" />
    <EXPORT ORDINAL="1600" NAME="?SetDirection@LDialog@@QAEHI@Z" PURGE="4" COMMENT="" />
    <EXPORT ORDINAL="1601" NAME="?SetDisplayMode@LBitmapBase@@QAEHKK@Z" PURGE="8" COMMENT="" />
    <EXPORT ORDINAL="1602" NAME="?SetDisplayMode@LBitmapSettings@@SAKKK@Z" PURGE="0" COMMENT="" />
    <EXPORT ORDINAL="1603" NAME="?SetDisplayMode@LBitmapWindow@@UAEHKK@Z" PURGE="8" COMMENT="" />
    <EXPORT ORDINAL="1604" NAME="?SetDisposalMethod@LAnimationWindow@@QAEHHI@Z" PURGE="8" COMMENT="" />
    <EXPORT ORDINAL="1605" NAME="?SetDitheringMethod@LBitmapBase@@QAEXI@Z" PURGE="4" COMMENT="" />
    <EXPORT ORDINAL="1606" NAME="?SetDpiX@LAnnAutomation@@UAEHNI@Z" PURGE="12" COMMENT="" />
    <EXPORT ORDINAL="1607" NAME="?SetDpiX@LAnnContainer@@UAEHNI@Z" PURGE="12" COMMENT="" />
    <EXPORT ORDINAL="1608" NAME="?SetDpiX@LAnnotation@@IAEHNI@Z" PURGE="12" COMMENT="" />
    <EXPORT ORDINAL="1609" NAME="?SetDpiY@LAnnAutomation@@UAEHNI@Z" PURGE="12" COMMENT="" />
    <EXPORT ORDINAL="1610" NAME="?SetDpiY@LAnnContainer@@UAEHNI@Z" PURGE="12" COMMENT="" />
    <EXPORT ORDINAL="1611" NAME="?SetDpiY@LAnnotation@@IAEHNI@Z" PURGE="12" COMMENT="" />
    <EXPORT ORDINAL="1612" NAME="?SetDstRect@LBitmapBase@@UAEHPAUtagRECT@@@Z" PURGE="4" COMMENT="" />
    <EXPORT ORDINAL="1613" NAME="?SetDstRect@LMultimedia@@UAEHHHHH@Z" PURGE="16" COMMENT="" />
    <EXPORT ORDINAL="1614" NAME="?SetDstRect@LMultimedia@@UAEHPAUtagRECT@@@Z" PURGE="4" COMMENT="" />
    <EXPORT ORDINAL="1615" NAME="?SetEffectParameters@LBitmapWindow@@QAEHPAU_EFXDLGPARM@@@Z" PURGE="4" COMMENT="" />
    <EXPORT ORDINAL="1616" NAME="?SetEffectParameters@LDialog@@QAEHPAU_EFXDLGPARM@@@Z" PURGE="4" COMMENT="" />
    <EXPORT ORDINAL="1617" NAME="?SetEffectParameters@LPaintEffect@@QAEHPAU_EFXDLGPARM@@@Z" PURGE="4" COMMENT="" />
    <EXPORT ORDINAL="1618" NAME="?SetEndColor@LDialog@@QAEHK@Z" PURGE="4" COMMENT="" />
    <EXPORT ORDINAL="1619" NAME="?SetErrorListDepth@LBase@@SAII@Z" PURGE="0" COMMENT="" />
    <EXPORT ORDINAL="1620" NAME="?SetErrorString@LBase@@SAXHPAD0I@Z" PURGE="0" COMMENT="" />
    <EXPORT ORDINAL="1621" NAME="?SetExtFileOption@LFileSettings@@SAHPAU_EXTFILEOPTION@@@Z" PURGE="0" COMMENT="" />
    <EXPORT ORDINAL="1622" NAME="?SetFileName@LBitmapBase@@QAEXPAD@Z" PURGE="4" COMMENT="" />
    <EXPORT ORDINAL="1623" NAME="?SetFileName@LDialog@@QAEHPAD@Z" PURGE="4" COMMENT="" />
    <EXPORT ORDINAL="1624" NAME="?SetFileName@LFile@@QAEXPAD@Z" PURGE="4" COMMENT="" />
    <EXPORT ORDINAL="1625" NAME="?SetFileOpenParameters@LDialog@@QAEHPAU_FILEOPENPARM@@@Z" PURGE="4" COMMENT="" />
    <EXPORT ORDINAL="1626" NAME="?SetFileSaveParameters@LDialog@@QAEHPAU_FILESAVEPARM@@@Z" PURGE="4" COMMENT="" />
    <EXPORT ORDINAL="1627" NAME="?SetFillBitmap@LPaintEffect@@QAEHPAVLBitmapBase@@PAUtagRECT@@@Z" PURGE="8" COMMENT="" />
    <EXPORT ORDINAL="1628" NAME="?SetFillMode@LAnnAutomation@@UAEHII@Z" PURGE="8" COMMENT="" />
    <EXPORT ORDINAL="1629" NAME="?SetFillMode@LAnnContainer@@UAEHII@Z" PURGE="8" COMMENT="" />
    <EXPORT ORDINAL="1630" NAME="?SetFillMode@LAnnEllipse@@UAEHII@Z" PURGE="8" COMMENT="" />
    <EXPORT ORDINAL="1631" NAME="?SetFillMode@LAnnPolygon@@UAEHII@Z" PURGE="8" COMMENT="" />
    <EXPORT ORDINAL="1632" NAME="?SetFillMode@LAnnRectangle@@UAEHII@Z" PURGE="8" COMMENT="" />
    <EXPORT ORDINAL="1633" NAME="?SetFillMode@LAnnStamp@@UAEHII@Z" PURGE="8" COMMENT="" />
    <EXPORT ORDINAL="1634" NAME="?SetFillMode@LAnnText@@UAEHII@Z" PURGE="8" COMMENT="" />
    <EXPORT ORDINAL="1635" NAME="?SetFillMode@LAnnotation@@IAEHII@Z" PURGE="8" COMMENT="" />
    <EXPORT ORDINAL="1636" NAME="?SetFillPattern@LAnnAutomation@@UAEHII@Z" PURGE="8" COMMENT="" />
    <EXPORT ORDINAL="1637" NAME="?SetFillPattern@LAnnContainer@@UAEHII@Z" PURGE="8" COMMENT="" />
    <EXPORT ORDINAL="1638" NAME="?SetFillPattern@LAnnEllipse@@UAEHII@Z" PURGE="8" COMMENT="" />
    <EXPORT ORDINAL="1639" NAME="?SetFillPattern@LAnnPolygon@@UAEHII@Z" PURGE="8" COMMENT="" />
    <EXPORT ORDINAL="1640" NAME="?SetFillPattern@LAnnRectangle@@UAEHII@Z" PURGE="8" COMMENT="" />
    <EXPORT ORDINAL="1641" NAME="?SetFillPattern@LAnnStamp@@UAEHII@Z" PURGE="8" COMMENT="" />
    <EXPORT ORDINAL="1642" NAME="?SetFillPattern@LAnnotation@@IAEHII@Z" PURGE="8" COMMENT="" />
    <EXPORT ORDINAL="1643" NAME="?SetFontBold@LAnnAutomation@@UAEHII@Z" PURGE="8" COMMENT="" />
    <EXPORT ORDINAL="1644" NAME="?SetFontBold@LAnnContainer@@UAEHII@Z" PURGE="8" COMMENT="" />
    <EXPORT ORDINAL="1645" NAME="?SetFontBold@LAnnNote@@UAEHII@Z" PURGE="8" COMMENT="" />
    <EXPORT ORDINAL="1646" NAME="?SetFontBold@LAnnRuler@@UAEHII@Z" PURGE="8" COMMENT="" />
    <EXPORT ORDINAL="1647" NAME="?SetFontBold@LAnnStamp@@UAEHII@Z" PURGE="8" COMMENT="" />
    <EXPORT ORDINAL="1648" NAME="?SetFontBold@LAnnText@@UAEHII@Z" PURGE="8" COMMENT="" />
    <EXPORT ORDINAL="1649" NAME="?SetFontBold@LAnnotation@@IAEHII@Z" PURGE="8" COMMENT="" />
    <EXPORT ORDINAL="1650" NAME="?SetFontItalic@LAnnAutomation@@UAEHII@Z" PURGE="8" COMMENT="" />
    <EXPORT ORDINAL="1651" NAME="?SetFontItalic@LAnnContainer@@UAEHII@Z" PURGE="8" COMMENT="" />
    <EXPORT ORDINAL="1652" NAME="?SetFontItalic@LAnnNote@@UAEHII@Z" PURGE="8" COMMENT="" />
    <EXPORT ORDINAL="1653" NAME="?SetFontItalic@LAnnRuler@@UAEHII@Z" PURGE="8" COMMENT="" />
    <EXPORT ORDINAL="1654" NAME="?SetFontItalic@LAnnStamp@@UAEHII@Z" PURGE="8" COMMENT="" />
    <EXPORT ORDINAL="1655" NAME="?SetFontItalic@LAnnText@@UAEHII@Z" PURGE="8" COMMENT="" />
    <EXPORT ORDINAL="1656" NAME="?SetFontItalic@LAnnotation@@IAEHII@Z" PURGE="8" COMMENT="" />
    <EXPORT ORDINAL="1657" NAME="?SetFontName@LAnnAutomation@@UAEHPADI@Z" PURGE="8" COMMENT="" />
    <EXPORT ORDINAL="1658" NAME="?SetFontName@LAnnContainer@@UAEHPADI@Z" PURGE="8" COMMENT="" />
    <EXPORT ORDINAL="1659" NAME="?SetFontName@LAnnNote@@UAEHPADI@Z" PURGE="8" COMMENT="" />
    <EXPORT ORDINAL="1660" NAME="?SetFontName@LAnnRuler@@UAEHPADI@Z" PURGE="8" COMMENT="" />
    <EXPORT ORDINAL="1661" NAME="?SetFontName@LAnnStamp@@UAEHPADI@Z" PURGE="8" COMMENT="" />
    <EXPORT ORDINAL="1662" NAME="?SetFontName@LAnnText@@UAEHPADI@Z" PURGE="8" COMMENT="" />
    <EXPORT ORDINAL="1663" NAME="?SetFontName@LAnnotation@@IAEHPADI@Z" PURGE="8" COMMENT="" />
    <EXPORT ORDINAL="1664" NAME="?SetFontSize@LAnnAutomation@@UAEHNI@Z" PURGE="12" COMMENT="" />
    <EXPORT ORDINAL="1665" NAME="?SetFontSize@LAnnContainer@@UAEHNI@Z" PURGE="12" COMMENT="" />
    <EXPORT ORDINAL="1666" NAME="?SetFontSize@LAnnNote@@UAEHNI@Z" PURGE="12" COMMENT="" />
    <EXPORT ORDINAL="1667" NAME="?SetFontSize@LAnnRuler@@UAEHNI@Z" PURGE="12" COMMENT="" />
    <EXPORT ORDINAL="1668" NAME="?SetFontSize@LAnnStamp@@UAEHNI@Z" PURGE="12" COMMENT="" />
    <EXPORT ORDINAL="1669" NAME="?SetFontSize@LAnnText@@UAEHNI@Z" PURGE="12" COMMENT="" />
    <EXPORT ORDINAL="1670" NAME="?SetFontSize@LAnnotation@@IAEHNI@Z" PURGE="12" COMMENT="" />
    <EXPORT ORDINAL="1671" NAME="?SetFontStrikeThrough@LAnnAutomation@@UAEHII@Z" PURGE="8" COMMENT="" />
    <EXPORT ORDINAL="1672" NAME="?SetFontStrikeThrough@LAnnContainer@@UAEHII@Z" PURGE="8" COMMENT="" />
    <EXPORT ORDINAL="1673" NAME="?SetFontStrikeThrough@LAnnNote@@UAEHII@Z" PURGE="8" COMMENT="" />
    <EXPORT ORDINAL="1674" NAME="?SetFontStrikeThrough@LAnnRuler@@UAEHII@Z" PURGE="8" COMMENT="" />
    <EXPORT ORDINAL="1675" NAME="?SetFontStrikeThrough@LAnnStamp@@UAEHII@Z" PURGE="8" COMMENT="" />
    <EXPORT ORDINAL="1676" NAME="?SetFontStrikeThrough@LAnnText@@UAEHII@Z" PURGE="8" COMMENT="" />
    <EXPORT ORDINAL="1677" NAME="?SetFontStrikeThrough@LAnnotation@@IAEHII@Z" PURGE="8" COMMENT="" />
    <EXPORT ORDINAL="1678" NAME="?SetFontUnderline@LAnnAutomation@@UAEHII@Z" PURGE="8" COMMENT="" />
    <EXPORT ORDINAL="1679" NAME="?SetFontUnderline@LAnnContainer@@UAEHII@Z" PURGE="8" COMMENT="" />
    <EXPORT ORDINAL="1680" NAME="?SetFontUnderline@LAnnNote@@UAEHII@Z" PURGE="8" COMMENT="" />
    <EXPORT ORDINAL="1681" NAME="?SetFontUnderline@LAnnRuler@@UAEHII@Z" PURGE="8" COMMENT="" />
    <EXPORT ORDINAL="1682" NAME="?SetFontUnderline@LAnnStamp@@UAEHII@Z" PURGE="8" COMMENT="" />
    <EXPORT ORDINAL="1683" NAME="?SetFontUnderline@LAnnText@@UAEHII@Z" PURGE="8" COMMENT="" />
    <EXPORT ORDINAL="1684" NAME="?SetFontUnderline@LAnnotation@@IAEHII@Z" PURGE="8" COMMENT="" />
    <EXPORT ORDINAL="1685" NAME="?SetForeColor@LAnnAutomation@@UAEHKI@Z" PURGE="8" COMMENT="" />
    <EXPORT ORDINAL="1686" NAME="?SetForeColor@LAnnButton@@UAEHKI@Z" PURGE="8" COMMENT="" />
    <EXPORT ORDINAL="1687" NAME="?SetForeColor@LAnnContainer@@UAEHKI@Z" PURGE="8" COMMENT="" />
    <EXPORT ORDINAL="1688" NAME="?SetForeColor@LAnnEllipse@@UAEHKI@Z" PURGE="8" COMMENT="" />
    <EXPORT ORDINAL="1689" NAME="?SetForeColor@LAnnFreehand@@UAEHKI@Z" PURGE="8" COMMENT="" />
    <EXPORT ORDINAL="1690" NAME="?SetForeColor@LAnnLine@@UAEHKI@Z" PURGE="8" COMMENT="" />
    <EXPORT ORDINAL="1691" NAME="?SetForeColor@LAnnNote@@UAEHKI@Z" PURGE="8" COMMENT="" />
    <EXPORT ORDINAL="1692" NAME="?SetForeColor@LAnnPointer@@UAEHKI@Z" PURGE="8" COMMENT="" />
    <EXPORT ORDINAL="1693" NAME="?SetForeColor@LAnnPolygon@@UAEHKI@Z" PURGE="8" COMMENT="" />
    <EXPORT ORDINAL="1694" NAME="?SetForeColor@LAnnPolyline@@UAEHKI@Z" PURGE="8" COMMENT="" />
    <EXPORT ORDINAL="1695" NAME="?SetForeColor@LAnnRectangle@@UAEHKI@Z" PURGE="8" COMMENT="" />
    <EXPORT ORDINAL="1696" NAME="?SetForeColor@LAnnRuler@@UAEHKI@Z" PURGE="8" COMMENT="" />
    <EXPORT ORDINAL="1697" NAME="?SetForeColor@LAnnStamp@@UAEHKI@Z" PURGE="8" COMMENT="" />
    <EXPORT ORDINAL="1698" NAME="?SetForeColor@LAnnText@@UAEHKI@Z" PURGE="8" COMMENT="" />
    <EXPORT ORDINAL="1699" NAME="?SetForeColor@LAnnotation@@IAEHKI@Z" PURGE="8" COMMENT="" />
    <EXPORT ORDINAL="1700" NAME="?SetForegroundBitmap@LDialog@@QAEHPAVLBitmapBase@@@Z" PURGE="4" COMMENT="" />
    <EXPORT ORDINAL="1701" NAME="?SetForegroundColor@LPaintEffect@@QAEHK@Z" PURGE="4" COMMENT="" />
    <EXPORT ORDINAL="1702" NAME="?SetGamma@LDialog@@QAEHI@Z" PURGE="4" COMMENT="" />
    <EXPORT ORDINAL="1703" NAME="?SetGaugeLength@LAnnAutomation@@UAEHNI@Z" PURGE="12" COMMENT="" />
    <EXPORT ORDINAL="1704" NAME="?SetGaugeLength@LAnnRuler@@UAEHNI@Z" PURGE="12" COMMENT="" />
    <EXPORT ORDINAL="1705" NAME="?SetGaugeLength@LAnnotation@@IAEHNI@Z" PURGE="12" COMMENT="" />
    <EXPORT ORDINAL="1706" NAME="?SetGradientParameters@LBitmapWindow@@QAEHPAU_GRADDLGPARM@@@Z" PURGE="4" COMMENT="" />
    <EXPORT ORDINAL="1707" NAME="?SetGradientParameters@LDialog@@QAEHPAU_GRADDLGPARM@@@Z" PURGE="4" COMMENT="" />
    <EXPORT ORDINAL="1708" NAME="?SetGradientParameters@LPaintEffect@@QAEHPAU_GRADDLGPARM@@@Z" PURGE="4" COMMENT="" />
    <EXPORT ORDINAL="1709" NAME="?SetGradientStyle@LBitmapWindow@@QAEXI@Z" PURGE="4" COMMENT="" />
    <EXPORT ORDINAL="1710" NAME="?SetHandle@LAnnotation@@QAEHPAX@Z" PURGE="4" COMMENT="" />
    <EXPORT ORDINAL="1711" NAME="?SetHandle@LBitmapBase@@QAEHPAUstruct_LEAD_Bitmap@@I@Z" PURGE="8" COMMENT="" />
    <EXPORT ORDINAL="1712" NAME="?SetHandle@LBitmapList@@QAEXPAXPAUtagBLISTINFO@@I@Z" PURGE="12" COMMENT="" />
    <EXPORT ORDINAL="1713" NAME="?SetHandle@LBuffer@@QAEHPAPAXK@Z" PURGE="8" COMMENT="" />
    <EXPORT ORDINAL="1714" NAME="?SetHandle@LPlayBack@@AAEXPAXI@Z" PURGE="8" COMMENT="" />
    <EXPORT ORDINAL="1715" NAME="?SetHighBit@LDialog@@QAEHH@Z" PURGE="4" COMMENT="" />
    <EXPORT ORDINAL="1716" NAME="?SetHighLevel@LDialog@@QAEHI@Z" PURGE="4" COMMENT="" />
    <EXPORT ORDINAL="1717" NAME="?SetHighRange@LDialog@@QAEHI@Z" PURGE="4" COMMENT="" />
    <EXPORT ORDINAL="1718" NAME="?SetHorzLineStep@LBitmapWindow@@QAEXH@Z" PURGE="4" COMMENT="" />
    <EXPORT ORDINAL="1719" NAME="?SetHyperlink@LAnnotation@@UAEHIIIPADI@Z" PURGE="20" COMMENT="" />
    <EXPORT ORDINAL="1720" NAME="?SetHyperlinkMenuEnabled@LAnnAutomation@@UAEHII@Z" PURGE="8" COMMENT="" />
    <EXPORT ORDINAL="1721" NAME="?SetIndex@LPlayBack@@UAEHH@Z" PURGE="4" COMMENT="" />
    <EXPORT ORDINAL="1722" NAME="?SetInnerBandHilite@LPaintEffect@@QAEHK@Z" PURGE="4" COMMENT="" />
    <EXPORT ORDINAL="1723" NAME="?SetInnerBandShadowColor@LPaintEffect@@QAEHK@Z" PURGE="4" COMMENT="" />
    <EXPORT ORDINAL="1724" NAME="?SetInnerBandWidth@LPaintEffect@@QAEHI@Z" PURGE="4" COMMENT="" />
    <EXPORT ORDINAL="1725" NAME="?SetItem@LBitmapList@@UAEHIPAVLBitmapBase@@IPAI@Z" PURGE="16" COMMENT="" />
    <EXPORT ORDINAL="1726" NAME="?SetLineStyle@LAnnAutomation@@UAEHII@Z" PURGE="8" COMMENT="" />
    <EXPORT ORDINAL="1727" NAME="?SetLineStyle@LAnnContainer@@UAEHII@Z" PURGE="8" COMMENT="" />
    <EXPORT ORDINAL="1728" NAME="?SetLineStyle@LAnnEllipse@@UAEHII@Z" PURGE="8" COMMENT="" />
    <EXPORT ORDINAL="1729" NAME="?SetLineStyle@LAnnFreehand@@UAEHII@Z" PURGE="8" COMMENT="" />
    <EXPORT ORDINAL="1730" NAME="?SetLineStyle@LAnnLine@@UAEHII@Z" PURGE="8" COMMENT="" />
    <EXPORT ORDINAL="1731" NAME="?SetLineStyle@LAnnPointer@@UAEHII@Z" PURGE="8" COMMENT="" />
    <EXPORT ORDINAL="1732" NAME="?SetLineStyle@LAnnPolygon@@UAEHII@Z" PURGE="8" COMMENT="" />
    <EXPORT ORDINAL="1733" NAME="?SetLineStyle@LAnnPolyline@@UAEHII@Z" PURGE="8" COMMENT="" />
    <EXPORT ORDINAL="1734" NAME="?SetLineStyle@LAnnRectangle@@UAEHII@Z" PURGE="8" COMMENT="" />
    <EXPORT ORDINAL="1735" NAME="?SetLineStyle@LAnnRuler@@UAEHII@Z" PURGE="8" COMMENT="" />
    <EXPORT ORDINAL="1736" NAME="?SetLineStyle@LAnnStamp@@UAEHII@Z" PURGE="8" COMMENT="" />
    <EXPORT ORDINAL="1737" NAME="?SetLineStyle@LAnnotation@@IAEHII@Z" PURGE="8" COMMENT="" />
    <EXPORT ORDINAL="1738" NAME="?SetLineWidth@LAnnAutomation@@UAEHNI@Z" PURGE="12" COMMENT="" />
    <EXPORT ORDINAL="1739" NAME="?SetLineWidth@LAnnContainer@@UAEHNI@Z" PURGE="12" COMMENT="" />
    <EXPORT ORDINAL="1740" NAME="?SetLineWidth@LAnnEllipse@@UAEHNI@Z" PURGE="12" COMMENT="" />
    <EXPORT ORDINAL="1741" NAME="?SetLineWidth@LAnnFreehand@@UAEHNI@Z" PURGE="12" COMMENT="" />
    <EXPORT ORDINAL="1742" NAME="?SetLineWidth@LAnnLine@@UAEHNI@Z" PURGE="12" COMMENT="" />
    <EXPORT ORDINAL="1743" NAME="?SetLineWidth@LAnnPointer@@UAEHNI@Z" PURGE="12" COMMENT="" />
    <EXPORT ORDINAL="1744" NAME="?SetLineWidth@LAnnPolygon@@UAEHNI@Z" PURGE="12" COMMENT="" />
    <EXPORT ORDINAL="1745" NAME="?SetLineWidth@LAnnPolyline@@UAEHNI@Z" PURGE="12" COMMENT="" />
    <EXPORT ORDINAL="1746" NAME="?SetLineWidth@LAnnRectangle@@UAEHNI@Z" PURGE="12" COMMENT="" />
    <EXPORT ORDINAL="1747" NAME="?SetLineWidth@LAnnRuler@@UAEHNI@Z" PURGE="12" COMMENT="" />
    <EXPORT ORDINAL="1748" NAME="?SetLineWidth@LAnnStamp@@UAEHNI@Z" PURGE="12" COMMENT="" />
    <EXPORT ORDINAL="1749" NAME="?SetLineWidth@LAnnotation@@IAEHNI@Z" PURGE="12" COMMENT="" />
    <EXPORT ORDINAL="1750" NAME="?SetLocalSettings@LBitmapBase@@IAEXXZ" PURGE="0" COMMENT="" />
    <EXPORT ORDINAL="1751" NAME="?SetLowBit@LDialog@@QAEHH@Z" PURGE="4" COMMENT="" />
    <EXPORT ORDINAL="1752" NAME="?SetLowLevel@LDialog@@QAEHI@Z" PURGE="4" COMMENT="" />
    <EXPORT ORDINAL="1753" NAME="?SetLowRange@LDialog@@QAEHI@Z" PURGE="4" COMMENT="" />
    <EXPORT ORDINAL="1754" NAME="?SetMaxEffectPasses@LBitmapWindow@@QAEXI@Z" PURGE="4" COMMENT="" />
    <EXPORT ORDINAL="1755" NAME="?SetMaxTransitionPasses@LBitmapWindow@@QAEXI@Z" PURGE="4" COMMENT="" />
    <EXPORT ORDINAL="1756" NAME="?SetMessageWin@LMultimedia@@UAEHPAUHWND__@@@Z" PURGE="4" COMMENT="" />
    <EXPORT ORDINAL="1757" NAME="?SetMiddleBandColor@LPaintEffect@@QAEHK@Z" PURGE="4" COMMENT="" />
    <EXPORT ORDINAL="1758" NAME="?SetMiddleBandWidth@LPaintEffect@@QAEHI@Z" PURGE="4" COMMENT="" />
    <EXPORT ORDINAL="1759" NAME="?SetMute@LMMCapture@@UAEHKKI@Z" PURGE="12" COMMENT="" />
    <EXPORT ORDINAL="1760" NAME="?SetNewHeight@LDialog@@QAEHH@Z" PURGE="4" COMMENT="" />
    <EXPORT ORDINAL="1761" NAME="?SetNewWidth@LDialog@@QAEHH@Z" PURGE="4" COMMENT="" />
    <EXPORT ORDINAL="1762" NAME="?SetOffsetX@LAnnotation@@UAEHNI@Z" PURGE="12" COMMENT="" />
    <EXPORT ORDINAL="1763" NAME="?SetOffsetY@LAnnotation@@UAEHNI@Z" PURGE="12" COMMENT="" />
    <EXPORT ORDINAL="1764" NAME="?SetOpenFileName@LDialog@@QAEHPAUtagOFNA@@@Z" PURGE="4" COMMENT="" />
    <EXPORT ORDINAL="1765" NAME="?SetOptions@LMMCapture@@UAEHPAUtagCAPTUREOPTIONS@@@Z" PURGE="4" COMMENT="" />
    <EXPORT ORDINAL="1766" NAME="?SetOuterBandHilite@LPaintEffect@@QAEHK@Z" PURGE="4" COMMENT="" />
    <EXPORT ORDINAL="1767" NAME="?SetOuterBandShadowColor@LPaintEffect@@QAEHK@Z" PURGE="4" COMMENT="" />
    <EXPORT ORDINAL="1768" NAME="?SetOuterBandWidth@LPaintEffect@@QAEHI@Z" PURGE="4" COMMENT="" />
    <EXPORT ORDINAL="1769" NAME="?SetOverlay@LMMCapture@@UAEHI@Z" PURGE="4" COMMENT="" />
    <EXPORT ORDINAL="1770" NAME="?SetPCDResolution@LFileSettings@@SAHH@Z" PURGE="0" COMMENT="" />
    <EXPORT ORDINAL="1771" NAME="?SetPaintContrast@LBitmapBase@@QAEHH@Z" PURGE="4" COMMENT="" />
    <EXPORT ORDINAL="1772" NAME="?SetPaintContrast@LBitmapSettings@@SAHH@Z" PURGE="0" COMMENT="" />
    <EXPORT ORDINAL="1773" NAME="?SetPaintContrast@LBitmapWindow@@UAEHH@Z" PURGE="4" COMMENT="" />
    <EXPORT ORDINAL="1774" NAME="?SetPaintEffect@LBitmapWindow@@QAEXI@Z" PURGE="4" COMMENT="" />
    <EXPORT ORDINAL="1775" NAME="?SetPaintGamma@LBitmapBase@@QAEHI@Z" PURGE="4" COMMENT="" />
    <EXPORT ORDINAL="1776" NAME="?SetPaintGamma@LBitmapSettings@@SAHI@Z" PURGE="0" COMMENT="" />
    <EXPORT ORDINAL="1777" NAME="?SetPaintGamma@LBitmapWindow@@UAEHI@Z" PURGE="4" COMMENT="" />
    <EXPORT ORDINAL="1778" NAME="?SetPaintIntensity@LBitmapBase@@QAEHH@Z" PURGE="4" COMMENT="" />
    <EXPORT ORDINAL="1779" NAME="?SetPaintIntensity@LBitmapSettings@@SAHH@Z" PURGE="0" COMMENT="" />
    <EXPORT ORDINAL="1780" NAME="?SetPaintIntensity@LBitmapWindow@@UAEHH@Z" PURGE="4" COMMENT="" />
    <EXPORT ORDINAL="1781" NAME="?SetPalette@LBitmapBase@@QAEXPAUHPALETTE__@@@Z" PURGE="4" COMMENT="" />
    <EXPORT ORDINAL="1782" NAME="?SetParentWin@LMultimedia@@UAEHPAUHWND__@@@Z" PURGE="4" COMMENT="" />
    <EXPORT ORDINAL="1783" NAME="?SetPatternBackColor@LBitmapWindow@@QAEXK@Z" PURGE="4" COMMENT="" />
    <EXPORT ORDINAL="1784" NAME="?SetPatternForeColor@LBitmapWindow@@QAEXK@Z" PURGE="4" COMMENT="" />
    <EXPORT ORDINAL="1785" NAME="?SetPatternStyle@LBitmapWindow@@QAEXI@Z" PURGE="4" COMMENT="" />
    <EXPORT ORDINAL="1786" NAME="?SetPlayBackBackGroundColor@LBitmapBase@@QAEXK@Z" PURGE="4" COMMENT="" />
    <EXPORT ORDINAL="1787" NAME="?SetPlayBackDelay@LBitmapBase@@QAEXK@Z" PURGE="4" COMMENT="" />
    <EXPORT ORDINAL="1788" NAME="?SetPlayBackDisposalMethod@LBitmapBase@@QAEXI@Z" PURGE="4" COMMENT="" />
    <EXPORT ORDINAL="1789" NAME="?SetPlayBackLeft@LBitmapBase@@QAEXH@Z" PURGE="4" COMMENT="" />
    <EXPORT ORDINAL="1790" NAME="?SetPlayBackTop@LBitmapBase@@QAEXH@Z" PURGE="4" COMMENT="" />
    <EXPORT ORDINAL="1791" NAME="?SetPlayBackTransparentColor@LBitmapBase@@QAEXK@Z" PURGE="4" COMMENT="" />
    <EXPORT ORDINAL="1792" NAME="?SetPlayExt@LMultimedia@@UAEHPAUHWND__@@HHHHK@Z" PURGE="24" COMMENT="" />
    <EXPORT ORDINAL="1793" NAME="?SetPoints@LAnnFreehand@@UAEHPAU_ANNPOINT@@I@Z" PURGE="8" COMMENT="" />
    <EXPORT ORDINAL="1794" NAME="?SetPoints@LAnnPolygon@@UAEHPAU_ANNPOINT@@I@Z" PURGE="8" COMMENT="" />
    <EXPORT ORDINAL="1795" NAME="?SetPoints@LAnnPolyline@@UAEHPAU_ANNPOINT@@I@Z" PURGE="8" COMMENT="" />
    <EXPORT ORDINAL="1796" NAME="?SetPoints@LAnnotation@@IAEHPAU_ANNPOINT@@I@Z" PURGE="8" COMMENT="" />
    <EXPORT ORDINAL="1797" NAME="?SetPolyFillMode@LAnnAutomation@@UAEHII@Z" PURGE="8" COMMENT="" />
    <EXPORT ORDINAL="1798" NAME="?SetPolyFillMode@LAnnContainer@@UAEHII@Z" PURGE="8" COMMENT="" />
    <EXPORT ORDINAL="1799" NAME="?SetPolyFillMode@LAnnPolygon@@UAEHII@Z" PURGE="8" COMMENT="" />
    <EXPORT ORDINAL="1800" NAME="?SetPolyFillMode@LAnnotation@@IAEHII@Z" PURGE="8" COMMENT="" />
    <EXPORT ORDINAL="1801" NAME="?SetPosition@LAnimationWindow@@QAEHHHI@Z" PURGE="12" COMMENT="" />
    <EXPORT ORDINAL="1802" NAME="?SetPreview@LMMCapture@@UAEHIMI@Z" PURGE="12" COMMENT="" />
    <EXPORT ORDINAL="1803" NAME="?SetProperties@LTwain@@UAEHPAUstruct_twain_properties@@K@Z" PURGE="8" COMMENT="" />
    <EXPORT ORDINAL="1804" NAME="?SetROP2@LAnnotation@@UAEHII@Z" PURGE="8" COMMENT="" />
    <EXPORT ORDINAL="1805" NAME="?SetROP3@LBitmapWindow@@QAEXK@Z" PURGE="4" COMMENT="" />
    <EXPORT ORDINAL="1806" NAME="?SetRange@LDialog@@QAEHH@Z" PURGE="4" COMMENT="" />
    <EXPORT ORDINAL="1807" NAME="?SetRate@LMultimedia@@UAENN@Z" PURGE="8" COMMENT="" />
    <EXPORT ORDINAL="1808" NAME="?SetRect@LAnnotation@@UAEHPAU_ANNRECT@@@Z" PURGE="4" COMMENT="" />
    <EXPORT ORDINAL="1809" NAME="?SetRedirectIOFlags@LBaseFile@@QAEXI@Z" PURGE="4" COMMENT="" />
    <EXPORT ORDINAL="1810" NAME="?SetRegionType@LBitmapWindow@@QAEXI@Z" PURGE="4" COMMENT="" />
    <EXPORT ORDINAL="1811" NAME="?SetRgn@LBitmapWindow@@AAEXPAUHRGN__@@@Z" PURGE="4" COMMENT="" />
    <EXPORT ORDINAL="1812" NAME="?SetRgnColor@LBitmapRgn@@UAEHK@Z" PURGE="4" COMMENT="" />
    <EXPORT ORDINAL="1813" NAME="?SetRgnCombineMode@LBitmapRgn@@QAEII@Z" PURGE="4" COMMENT="" />
    <EXPORT ORDINAL="1814" NAME="?SetRgnEllipse@LBitmapRgn@@UAEHPAUtagRECT@@@Z" PURGE="4" COMMENT="" />
    <EXPORT ORDINAL="1815" NAME="?SetRgnFrameTimer@LBitmapWindow@@AAEXXZ" PURGE="0" COMMENT="" />
    <EXPORT ORDINAL="1816" NAME="?SetRgnFrameType@LBitmapWindow@@QAEXI@Z" PURGE="4" COMMENT="" />
    <EXPORT ORDINAL="1817" NAME="?SetRgnFromMask@LBitmapRgn@@UAEHAAVLBitmapBase@@@Z" PURGE="4" COMMENT="" />
    <EXPORT ORDINAL="1818" NAME="?SetRgnHandle@LBitmapRgn@@UAEHPAUHRGN__@@@Z" PURGE="4" COMMENT="" />
    <EXPORT ORDINAL="1819" NAME="?SetRgnPolygon@LBitmapRgn@@UAEHPAUtagPOINT@@II@Z" PURGE="12" COMMENT="" />
    <EXPORT ORDINAL="1820" NAME="?SetRgnRect@LBitmapRgn@@UAEHPAUtagRECT@@@Z" PURGE="4" COMMENT="" />
    <EXPORT ORDINAL="1821" NAME="?SetRgnRoundRect@LBitmapRgn@@UAEHPAUtagRECT@@HH@Z" PURGE="12" COMMENT="" />
    <EXPORT ORDINAL="1822" NAME="?SetRgnXForm@LBitmapRgn@@QAEHPAU_RGNXFORM@@@Z" PURGE="4" COMMENT="" />
    <EXPORT ORDINAL="1823" NAME="?SetSaveFormatFlags@LDialog@@QAEHK@Z" PURGE="4" COMMENT="" />
    <EXPORT ORDINAL="1824" NAME="?SetSaveResolution@LFileSettings@@SAHIPAU_DIMENSION@@@Z" PURGE="0" COMMENT="" />
    <EXPORT ORDINAL="1825" NAME="?SetScalarX@LAnnotation@@UAEHNI@Z" PURGE="12" COMMENT="" />
    <EXPORT ORDINAL="1826" NAME="?SetScalarY@LAnnotation@@UAEHNI@Z" PURGE="12" COMMENT="" />
    <EXPORT ORDINAL="1827" NAME="?SetScanOptions@LIsis@@UAEHXZ" PURGE="0" COMMENT="" />
    <EXPORT ORDINAL="1828" NAME="?SetSelect@LMMCapture@@UAEHKKI@Z" PURGE="12" COMMENT="" />
    <EXPORT ORDINAL="1829" NAME="?SetSelected@LAnnotation@@UAEHII@Z" PURGE="8" COMMENT="" />
    <EXPORT ORDINAL="1830" NAME="?SetShapeParameters@LDialog@@QAEHPAU_SHAPEDLGPARM@@@Z" PURGE="4" COMMENT="" />
    <EXPORT ORDINAL="1831" NAME="?SetShapeParameters@LPaintEffect@@QAEHPAU_SHAPEDLGPARM@@@Z" PURGE="4" COMMENT="" />
    <EXPORT ORDINAL="1832" NAME="?SetSrcRect@LBitmapBase@@UAEHPAUtagRECT@@@Z" PURGE="4" COMMENT="" />
    <EXPORT ORDINAL="1833" NAME="?SetSrcRect@LMultimedia@@UAEHHHHH@Z" PURGE="16" COMMENT="" />
    <EXPORT ORDINAL="1834" NAME="?SetSrcRect@LMultimedia@@UAEHPAUtagRECT@@@Z" PURGE="4" COMMENT="" />
    <EXPORT ORDINAL="1835" NAME="?SetStartColor@LDialog@@QAEHK@Z" PURGE="4" COMMENT="" />
    <EXPORT ORDINAL="1836" NAME="?SetTag@LAnnotation@@UAEHKI@Z" PURGE="8" COMMENT="" />
    <EXPORT ORDINAL="1837" NAME="?SetTag@LFileSettings@@SAHGGKPAX@Z" PURGE="0" COMMENT="" />
    <EXPORT ORDINAL="1838" NAME="?SetTagLong@LIsis@@UAEHIJ@Z" PURGE="8" COMMENT="" />
    <EXPORT ORDINAL="1839" NAME="?SetTagShort@LIsis@@UAEHIH@Z" PURGE="8" COMMENT="" />
    <EXPORT ORDINAL="1840" NAME="?SetText@LAnnAudioClip@@UAEHPADI@Z" PURGE="8" COMMENT="" />
    <EXPORT ORDINAL="1841" NAME="?SetText@LAnnAutomation@@UAEHPADI@Z" PURGE="8" COMMENT="" />
    <EXPORT ORDINAL="1842" NAME="?SetText@LAnnButton@@UAEHPADI@Z" PURGE="8" COMMENT="" />
    <EXPORT ORDINAL="1843" NAME="?SetText@LAnnContainer@@UAEHPADI@Z" PURGE="8" COMMENT="" />
    <EXPORT ORDINAL="1844" NAME="?SetText@LAnnNote@@UAEHPADI@Z" PURGE="8" COMMENT="" />
    <EXPORT ORDINAL="1845" NAME="?SetText@LAnnStamp@@UAEHPADI@Z" PURGE="8" COMMENT="" />
    <EXPORT ORDINAL="1846" NAME="?SetText@LAnnText@@UAEHPADI@Z" PURGE="8" COMMENT="" />
    <EXPORT ORDINAL="1847" NAME="?SetText@LAnnotation@@IAEHPADI@Z" PURGE="8" COMMENT="" />
    <EXPORT ORDINAL="1848" NAME="?SetTextParameters@LDialog@@QAEHPAU_TEXTDLGPARM@@@Z" PURGE="4" COMMENT="" />
    <EXPORT ORDINAL="1849" NAME="?SetTextParameters@LPaintEffect@@QAEHPAU_TEXTDLGPARM@@@Z" PURGE="4" COMMENT="" />
    <EXPORT ORDINAL="1850" NAME="?SetTimeFormat@LMultimedia@@UAEHH@Z" PURGE="4" COMMENT="" />
    <EXPORT ORDINAL="1851" NAME="?SetTool@LAnnAutomation@@UAEHI@Z" PURGE="4" COMMENT="" />
    <EXPORT ORDINAL="1852" NAME="?SetToolChecked@LAnnToolBar@@UAEHI@Z" PURGE="4" COMMENT="" />
    <EXPORT ORDINAL="1853" NAME="?SetToolType@LBitmapWindow@@QAEXI@Z" PURGE="4" COMMENT="" />
    <EXPORT ORDINAL="1854" NAME="?SetTransition@LBitmapWindow@@QAEXI@Z" PURGE="4" COMMENT="" />
    <EXPORT ORDINAL="1855" NAME="?SetTransitionEffect@LBitmapWindow@@QAEXI@Z" PURGE="4" COMMENT="" />
    <EXPORT ORDINAL="1856" NAME="?SetTransitionParameters@LBitmapWindow@@QAEHPAU_TRANSDLGPARM@@@Z" PURGE="4" COMMENT="" />
    <EXPORT ORDINAL="1857" NAME="?SetTransitionParameters@LDialog@@QAEHPAU_TRANSDLGPARM@@@Z" PURGE="4" COMMENT="" />
    <EXPORT ORDINAL="1858" NAME="?SetTransitionParameters@LPaintEffect@@QAEHPAU_TRANSDLGPARM@@@Z" PURGE="4" COMMENT="" />
    <EXPORT ORDINAL="1859" NAME="?SetTransparent@LAnnAutomation@@UAEHII@Z" PURGE="8" COMMENT="" />
    <EXPORT ORDINAL="1860" NAME="?SetTransparent@LAnnContainer@@UAEHII@Z" PURGE="8" COMMENT="" />
    <EXPORT ORDINAL="1861" NAME="?SetTransparent@LAnnStamp@@UAEHII@Z" PURGE="8" COMMENT="" />
    <EXPORT ORDINAL="1862" NAME="?SetTransparent@LAnnotation@@IAEHII@Z" PURGE="8" COMMENT="" />
    <EXPORT ORDINAL="1863" NAME="?SetUndoDepth@LAnnAutomation@@UAEHI@Z" PURGE="4" COMMENT="" />
    <EXPORT ORDINAL="1864" NAME="?SetUnit@LAnnAutomation@@UAEHIPADII@Z" PURGE="16" COMMENT="" />
    <EXPORT ORDINAL="1865" NAME="?SetUnit@LAnnRuler@@UAEHIPADII@Z" PURGE="16" COMMENT="" />
    <EXPORT ORDINAL="1866" NAME="?SetUnit@LAnnotation@@IAEHIPADII@Z" PURGE="16" COMMENT="" />
    <EXPORT ORDINAL="1867" NAME="?SetUserMatchTable@LBitmapSettings@@SAPAIPAI@Z" PURGE="0" COMMENT="" />
    <EXPORT ORDINAL="1868" NAME="?SetUserMode@LAnnContainer@@UAEHI@Z" PURGE="4" COMMENT="" />
    <EXPORT ORDINAL="1869" NAME="?SetVertLineStep@LBitmapWindow@@QAEXH@Z" PURGE="4" COMMENT="" />
    <EXPORT ORDINAL="1870" NAME="?SetVidFormat@LMMCapture@@UAEHPAUtagBITMAPINFO@@I@Z" PURGE="8" COMMENT="" />
    <EXPORT ORDINAL="1871" NAME="?SetVidOffset@LMMCapture@@UAEHHH@Z" PURGE="8" COMMENT="" />
    <EXPORT ORDINAL="1872" NAME="?SetViewPerspective@LBitmapBase@@QAEXH@Z" PURGE="4" COMMENT="" />
    <EXPORT ORDINAL="1873" NAME="?SetVisible@LAnnotation@@UAEHII@Z" PURGE="8" COMMENT="" />
    <EXPORT ORDINAL="1874" NAME="?SetVolume@LMMCapture@@UAEHKKII@Z" PURGE="16" COMMENT="" />
    <EXPORT ORDINAL="1875" NAME="?SetVolume@LMultimedia@@UAEHH@Z" PURGE="4" COMMENT="" />
    <EXPORT ORDINAL="1876" NAME="?SetWMFResolution@LFileSettings@@SAHH@Z" PURGE="0" COMMENT="" />
    <EXPORT ORDINAL="1877" NAME="?SetWinVisible@LMultimedia@@UAEHI@Z" PURGE="4" COMMENT="" />
    <EXPORT ORDINAL="1878" NAME="?SetWindow@LScanner@@UAEXPAUHWND__@@@Z" PURGE="4" COMMENT="" />
    <EXPORT ORDINAL="1879" NAME="?SetWnd@LAnnContainer@@UAEHPAUHWND__@@@Z" PURGE="4" COMMENT="" />
    <EXPORT ORDINAL="1880" NAME="?SetWndHandle@LAnnotationWindow@@QAEHPAUHWND__@@@Z" PURGE="4" COMMENT="" />
    <EXPORT ORDINAL="1881" NAME="?SetWndHandle@LBitmapWindow@@QAEHPAUHWND__@@@Z" PURGE="4" COMMENT="" />
    <EXPORT ORDINAL="1882" NAME="?SetWorkFile@LMMCapture@@UAEHPADK@Z" PURGE="8" COMMENT="" />
    <EXPORT ORDINAL="1883" NAME="?SetXResolution@LBitmapBase@@QAEXH@Z" PURGE="4" COMMENT="" />
    <EXPORT ORDINAL="1884" NAME="?SetYResolution@LBitmapBase@@QAEXH@Z" PURGE="4" COMMENT="" />
    <EXPORT ORDINAL="1885" NAME="?SetZoomFactor@LBitmapWindow@@QAEXM@Z" PURGE="4" COMMENT="" />
    <EXPORT ORDINAL="1886" NAME="?SetZoomMode@LBitmapWindow@@QAEHII@Z" PURGE="8" COMMENT="" />
    <EXPORT ORDINAL="1887" NAME="?SetZoomPercent@LBitmapWindow@@QAEXI@Z" PURGE="4" COMMENT="" />
    <EXPORT ORDINAL="1888" NAME="?Sharpen@LBitmap@@UAEHH@Z" PURGE="4" COMMENT="" />
    <EXPORT ORDINAL="1889" NAME="?Shear@LBitmapBase@@UAEHHIK@Z" PURGE="12" COMMENT="" />
    <EXPORT ORDINAL="1890" NAME="?ShowLockedIcon@LAnnotation@@UAEHII@Z" PURGE="8" COMMENT="" />
    <EXPORT ORDINAL="1891" NAME="?ShutDown@LInet@@UAEHXZ" PURGE="0" COMMENT="" />
    <EXPORT ORDINAL="1892" NAME="?SingleFrame@LMMCapture@@UAEHXZ" PURGE="0" COMMENT="" />
    <EXPORT ORDINAL="1893" NAME="?Size@LBitmapBase@@UAEHHHK@Z" PURGE="12" COMMENT="" />
    <EXPORT ORDINAL="1894" NAME="?SnapWndToImage@LBitmapWindow@@QAEXI@Z" PURGE="4" COMMENT="" />
    <EXPORT ORDINAL="1895" NAME="?Solarize@LBitmap@@UAEHI@Z" PURGE="4" COMMENT="" />
    <EXPORT ORDINAL="1896" NAME="?SpatialFilter@LBitmap@@UAEHPAUtagSPATIALFLT@@@Z" PURGE="4" COMMENT="" />
    <EXPORT ORDINAL="1897" NAME="?StartCapture@LMMCapture@@UAEHXZ" PURGE="0" COMMENT="" />
    <EXPORT ORDINAL="1898" NAME="?StartChanging@LAnimationWindow@@MAEHII@Z" PURGE="8" COMMENT="" />
    <EXPORT ORDINAL="1899" NAME="?StartChanging@LAnnotationWindow@@MAEHII@Z" PURGE="8" COMMENT="" />
    <EXPORT ORDINAL="1900" NAME="?StartChanging@LBitmapBase@@UAEHII@Z" PURGE="8" COMMENT="" />
    <EXPORT ORDINAL="1901" NAME="?StartChanging@LBitmapWindow@@MAEHII@Z" PURGE="8" COMMENT="" />
    <EXPORT ORDINAL="1902" NAME="?StartCompressBuffer@LMemoryFile@@UAEHKIHH@Z" PURGE="16" COMMENT="" />
    <EXPORT ORDINAL="1903" NAME="?StartDithering@LBitmapBase@@UAEHPAUtagRGBQUAD@@I@Z" PURGE="8" COMMENT="" />
    <EXPORT ORDINAL="1904" NAME="?StartFeedLoad@LFile@@UAEHHHI@Z" PURGE="12" COMMENT="" />
    <EXPORT ORDINAL="1905" NAME="?StartFeedSound@LMMCapture@@UAEHPADIPAUwaveFormatData@@II@Z" PURGE="20" COMMENT="" />
    <EXPORT ORDINAL="1906" NAME="?StartRecord@LMMCapture@@UAEHXZ" PURGE="0" COMMENT="" />
    <EXPORT ORDINAL="1907" NAME="?StartRecord@LMultimedia@@UAEHPADHH@Z" PURGE="12" COMMENT="" />
    <EXPORT ORDINAL="1908" NAME="?StartResize@LBuffer@@UAEHHHHH@Z" PURGE="16" COMMENT="" />
    <EXPORT ORDINAL="1909" NAME="?StartSingleFrame@LMMCapture@@UAEHXZ" PURGE="0" COMMENT="" />
    <EXPORT ORDINAL="1910" NAME="?StartToolDrawing@LBitmapWindow@@AAEXPAUtagPOINT@@@Z" PURGE="4" COMMENT="" />
    <EXPORT ORDINAL="1911" NAME="?StartUp@LInet@@UAEHXZ" PURGE="0" COMMENT="" />
    <EXPORT ORDINAL="1912" NAME="?StatusCS@LBase@@KAHH@Z" PURGE="0" COMMENT="" />
    <EXPORT ORDINAL="1913" NAME="?StatusCallBack@LBase@@MAEHH@Z" PURGE="4" COMMENT="" />
    <EXPORT ORDINAL="1914" NAME="?StatusCallBack@LBitmapWindow@@MAEHH@Z" PURGE="4" COMMENT="" />
    <EXPORT ORDINAL="1915" NAME="?Stop@LMultimedia@@UAEHXZ" PURGE="0" COMMENT="" />
    <EXPORT ORDINAL="1916" NAME="?StopAnimation@LAnimationWindow@@QAEXXZ" PURGE="0" COMMENT="" />
    <EXPORT ORDINAL="1917" NAME="?StopCapture@LMMCapture@@UAEHXZ" PURGE="0" COMMENT="" />
    <EXPORT ORDINAL="1918" NAME="?StopCapture@LScreenCapture@@SAHXZ" PURGE="0" COMMENT="" />
    <EXPORT ORDINAL="1919" NAME="?StopDithering@LBitmapBase@@UAEHXZ" PURGE="0" COMMENT="" />
    <EXPORT ORDINAL="1920" NAME="?StopFeedLoad@LFile@@UAEHXZ" PURGE="0" COMMENT="" />
    <EXPORT ORDINAL="1921" NAME="?StopFeedSound@LMMCapture@@UAEHI@Z" PURGE="4" COMMENT="" />
    <EXPORT ORDINAL="1922" NAME="?StopRecord@LMMCapture@@UAEHXZ" PURGE="0" COMMENT="" />
    <EXPORT ORDINAL="1923" NAME="?StopRecord@LMultimedia@@UAEHXZ" PURGE="0" COMMENT="" />
    <EXPORT ORDINAL="1924" NAME="?StopResize@LBuffer@@UAEHXZ" PURGE="0" COMMENT="" />
    <EXPORT ORDINAL="1925" NAME="?StopSingleFrame@LMMCapture@@UAEHXZ" PURGE="0" COMMENT="" />
    <EXPORT ORDINAL="1926" NAME="?StretchIntensity@LBitmap@@UAEHXZ" PURGE="0" COMMENT="" />
    <EXPORT ORDINAL="1927" NAME="?TranslateColor@LBitmapBase@@UAEKAAV1@K@Z" PURGE="8" COMMENT="" />
    <EXPORT ORDINAL="1928" NAME="?Trim@LBitmapBase@@UAEHHHII@Z" PURGE="16" COMMENT="" />
    <EXPORT ORDINAL="1929" NAME="?Trim@LBitmapBase@@UAEHPAUtagRECT@@@Z" PURGE="4" COMMENT="" />
    <EXPORT ORDINAL="1930" NAME="?Twain@LAnimationWindow@@UAEPAVLTwain@@XZ" PURGE="0" COMMENT="" />
    <EXPORT ORDINAL="1931" NAME="?Twain@LAnnotationWindow@@UAEPAVLTwain@@XZ" PURGE="0" COMMENT="" />
    <EXPORT ORDINAL="1932" NAME="?Twain@LBitmap@@UAEPAVLTwain@@XZ" PURGE="0" COMMENT="" />
    <EXPORT ORDINAL="1933" NAME="?Twain@LBitmapBase@@UAEPAVLTwain@@XZ" PURGE="0" COMMENT="" />
    <EXPORT ORDINAL="1934" NAME="?Twain@LBitmapWindow@@UAEPAVLTwain@@XZ" PURGE="0" COMMENT="" />
    <EXPORT ORDINAL="1935" NAME="?UnRegisterBitmapWndClass@LBitmapWindow@@AAEIXZ" PURGE="0" COMMENT="" />
    <EXPORT ORDINAL="1936" NAME="?Underlay@LBitmapBase@@UAEHAAV1@I@Z" PURGE="8" COMMENT="" />
    <EXPORT ORDINAL="1937" NAME="?Undo@LAnnAutomation@@UAEHI@Z" PURGE="4" COMMENT="" />
    <EXPORT ORDINAL="1938" NAME="?UnloadDriver@LIsis@@UAEHXZ" PURGE="0" COMMENT="" />
    <EXPORT ORDINAL="1939" NAME="?UnloadLibraries@LBase@@SAXK@Z" PURGE="0" COMMENT="" />
    <EXPORT ORDINAL="1940" NAME="?Unlock@LAnnotation@@UAEHPADI@Z" PURGE="8" COMMENT="" />
    <EXPORT ORDINAL="1941" NAME="?Unlock@LBuffer@@QAEXXZ" PURGE="0" COMMENT="" />
    <EXPORT ORDINAL="1942" NAME="?UnlockHelpCallback@LDialog@@AAEXXZ" PURGE="0" COMMENT="" />
    <EXPORT ORDINAL="1943" NAME="?UnlockSupport@LSettings@@SAXIPAD@Z" PURGE="0" COMMENT="" />
    <EXPORT ORDINAL="1944" NAME="?Unrealize@LAnnContainer@@UAEHPAUstruct_LEAD_Bitmap@@PAUtagRECT@@I@Z" PURGE="12" COMMENT="" />
    <EXPORT ORDINAL="1945" NAME="?Unrealize@LAnnContainer@@UAEHPAVLBitmapBase@@PAUtagRECT@@I@Z" PURGE="12" COMMENT="" />
    <EXPORT ORDINAL="1946" NAME="?Unrealize@LAnnRedact@@UAEHPAUstruct_LEAD_Bitmap@@PAUtagRECT@@@Z" PURGE="8" COMMENT="" />
    <EXPORT ORDINAL="1947" NAME="?Unrealize@LAnnRedact@@UAEHPAVLBitmapBase@@PAUtagRECT@@@Z" PURGE="8" COMMENT="" />
    <EXPORT ORDINAL="1948" NAME="?UpdatePanWnd@LBitmapWindow@@QAEHKKPBD@Z" PURGE="12" COMMENT="" />
    <EXPORT ORDINAL="1949" NAME="?ValidateLines@LPlayBack@@UAEHHH@Z" PURGE="8" COMMENT="" />
    <EXPORT ORDINAL="1950" NAME="?VersionInfo@LBase@@SAHPAUstruct_version_information@@@Z" PURGE="0" COMMENT="" />
    <EXPORT ORDINAL="1951" NAME="?WaitForUserInput@LAnimationWindow@@QAEHII@Z" PURGE="8" COMMENT="" />
    <EXPORT ORDINAL="1952" NAME="?WindowLevel@LBitmap@@UAEHHHPAUtagRGBQUAD@@II@Z" PURGE="20" COMMENT="" />
    <EXPORT ORDINAL="1953" NAME="?WindowLevelBitmap@LBitmap@@UAEHHHPAUtagRGBQUAD@@IH@Z" PURGE="20" COMMENT="" />
    <EXPORT ORDINAL="1954" NAME="?WriteComment@LFile@@UAEHIPAU_FILECOMMENTS@@@Z" PURGE="8" COMMENT="" />
    <EXPORT ORDINAL="1955" NAME="?WriteFileTransforms@LFile@@UAEHPAU_FILETRANSFORMS@@H@Z" PURGE="8" COMMENT="" />
    <EXPORT ORDINAL="1956" NAME="?WriteStamp@LFile@@UAEHXZ" PURGE="0" COMMENT="" />
    <EXPORT ORDINAL="1957" NAME="?ZoomFloater@LBitmapWindow@@AAEXXZ" PURGE="0" COMMENT="" />
    <EXPORT ORDINAL="1958" NAME="?ZoomIn@LBitmapWindow@@QAEXXZ" PURGE="0" COMMENT="" />
    <EXPORT ORDINAL="1959" NAME="?ZoomInPoint@LBitmapWindow@@AAEHUtagPOINT@@I@Z" PURGE="12" COMMENT="" />
    <EXPORT ORDINAL="1960" NAME="?ZoomOnMouse@LBitmapWindow@@AAEXUtagPOINT@@I@Z" PURGE="12" COMMENT="" />
    <EXPORT ORDINAL="1961" NAME="?ZoomOut@LBitmapWindow@@QAEXXZ" PURGE="0" COMMENT="" />
    <EXPORT ORDINAL="1962" NAME="?ZoomToRect@LBitmapWindow@@QAEHAAUtagRECT@@@Z" PURGE="4" COMMENT="" />
    <EXPORT ORDINAL="1963" NAME="?m_ErrorStr@LBase@@0PAY0BAA@DA" PURGE="-1" COMMENT="" />
    <EXPORT ORDINAL="1964" NAME="?m_ToolBar@LAnnotationWindow@@0VLAnnToolBar@@A" PURGE="-1" COMMENT="" />
    <EXPORT ORDINAL="1965" NAME="?m_bAutoErrorDisplay@LBase@@0IA" PURGE="-1" COMMENT="" />
    <EXPORT ORDINAL="1966" NAME="?m_bBitmapWindowRegisterd@LBitmapWindow@@0IA" PURGE="-1" COMMENT="" />
    <EXPORT ORDINAL="1967" NAME="?m_bLoadPlayback@LAnimationWindow@@0HA" PURGE="-1" COMMENT="" />
    <EXPORT ORDINAL="1968" NAME="?m_hErrorList@LBase@@0PAXA" PURGE="-1" COMMENT="" />
    <EXPORT ORDINAL="1969" NAME="?m_hHandCursor@LBitmapWindow@@0PAUHICON__@@A" PURGE="-1" COMMENT="" />
    <EXPORT ORDINAL="1970" NAME="?m_hLTAnnDll@LBase@@0PAUHINSTANCE__@@A" PURGE="-1" COMMENT="" />
    <EXPORT ORDINAL="1971" NAME="?m_hLTCapDll@LBase@@0PAUHINSTANCE__@@A" PURGE="-1" COMMENT="" />
    <EXPORT ORDINAL="1972" NAME="?m_hLTDisDll@LBase@@0PAUHINSTANCE__@@A" PURGE="-1" COMMENT="" />
    <EXPORT ORDINAL="1973" NAME="?m_hLTDlgDll@LBase@@0PAUHINSTANCE__@@A" PURGE="-1" COMMENT="" />
    <EXPORT ORDINAL="1974" NAME="?m_hLTEfxDll@LBase@@0PAUHINSTANCE__@@A" PURGE="-1" COMMENT="" />
    <EXPORT ORDINAL="1975" NAME="?m_hLTFilDll@LBase@@0PAUHINSTANCE__@@A" PURGE="-1" COMMENT="" />
    <EXPORT ORDINAL="1976" NAME="?m_hLTImgDll@LBase@@0PAUHINSTANCE__@@A" PURGE="-1" COMMENT="" />
    <EXPORT ORDINAL="1977" NAME="?m_hLTIsiDll@LBase@@0PAUHINSTANCE__@@A" PURGE="-1" COMMENT="" />
    <EXPORT ORDINAL="1978" NAME="?m_hLTKrnDll@LBase@@0PAUHINSTANCE__@@A" PURGE="-1" COMMENT="" />
    <EXPORT ORDINAL="1979" NAME="?m_hLTNetDll@LBase@@0PAUHINSTANCE__@@A" PURGE="-1" COMMENT="" />
    <EXPORT ORDINAL="1980" NAME="?m_hLTScrDll@LBase@@0PAUHINSTANCE__@@A" PURGE="-1" COMMENT="" />
    <EXPORT ORDINAL="1981" NAME="?m_hLTTwnDll@LBase@@0PAUHINSTANCE__@@A" PURGE="-1" COMMENT="" />
    <EXPORT ORDINAL="1982" NAME="?m_hLTVidDll@LBase@@0PAUHINSTANCE__@@A" PURGE="-1" COMMENT="" />
    <EXPORT ORDINAL="1983" NAME="?m_hZoomInMouseCursor@LBitmapWindow@@0PAUHICON__@@A" PURGE="-1" COMMENT="" />
    <EXPORT ORDINAL="1984" NAME="?m_hZoomToRectCursor@LBitmapWindow@@0PAUHICON__@@A" PURGE="-1" COMMENT="" />
    <EXPORT ORDINAL="1985" NAME="?m_nBitmapWindowInstanceCount@LBitmapWindow@@0HA" PURGE="-1" COMMENT="" />
    <EXPORT ORDINAL="1986" NAME="?m_nCounter@LInet@@0KA" PURGE="-1" COMMENT="" />
    <EXPORT ORDINAL="1987" NAME="?m_nInstanceCounter@LBase@@0HA" PURGE="-1" COMMENT="" />
    <EXPORT ORDINAL="1988" NAME="?m_nRefCount@LAnnotationWindow@@0HA" PURGE="-1" COMMENT="" />
    <EXPORT ORDINAL="1989" NAME="?m_pObjectForLoadInfoCB@LBaseFile@@1PAV1@A" PURGE="-1" COMMENT="" />
    <EXPORT ORDINAL="1990" NAME="?m_pObjectForRedirectIOCB@LBaseFile@@1PAV1@A" PURGE="-1" COMMENT="" />
    <EXPORT ORDINAL="1991" NAME="?m_pObjectForStatusCB@LBase@@1PAV1@A" PURGE="-1" COMMENT="" />
    <EXPORT ORDINAL="1992" NAME="?m_pnErrorList@LBase@@0PAHA" PURGE="-1" COMMENT="" />
    <EXPORT ORDINAL="1993" NAME="?m_uErrorFlags@LBase@@0KA" PURGE="-1" COMMENT="" />
    <EXPORT ORDINAL="1994" NAME="?m_uErrorsCount@LBase@@0IA" PURGE="-1" COMMENT="" />
    <EXPORT ORDINAL="1995" NAME="?m_uLastErrorIndex@LBase@@0IA" PURGE="-1" COMMENT="" />
    <EXPORT ORDINAL="1996" NAME="?m_uListDepth@LBase@@0IA" PURGE="-1" COMMENT="" />
    <EXPORT ORDINAL="1997" NAME="?onPaint@LBitmapWindow@@AAEXXZ" PURGE="0" COMMENT="" />
    <EXPORT ORDINAL="1998" NAME="?pActiveDlg@LDialog@@0PAV1@A" PURGE="-1" COMMENT="" />
    <EXPORT ORDINAL="1999" NAME="?pL_AccessBitmap@@3P6GXPAUstruct_LEAD_Bitmap@@@ZA" PURGE="-1" COMMENT="" />
    <EXPORT ORDINAL="2000" NAME="?pL_AddBitmapNoise@@3P6GHPAUstruct_LEAD_Bitmap@@II@ZA" PURGE="-1" COMMENT="" />
    <EXPORT ORDINAL="2001" NAME="?pL_AllocateBitmap@@3P6GHPAUstruct_LEAD_Bitmap@@H@ZA" PURGE="-1" COMMENT="" />
    <EXPORT ORDINAL="2002" NAME="?pL_AnnBringToFront@@3P6GHPAX@ZA" PURGE="-1" COMMENT="" />
    <EXPORT ORDINAL="2003" NAME="?pL_AnnClipboardReady@@3P6GHPAI@ZA" PURGE="-1" COMMENT="" />
    <EXPORT ORDINAL="2004" NAME="?pL_AnnCopy@@3P6GHPAXPAPAX@ZA" PURGE="-1" COMMENT="" />
    <EXPORT ORDINAL="2005" NAME="?pL_AnnCopyFromClipboard@@3P6GHPAUHWND__@@PAPAX@ZA" PURGE="-1" COMMENT="" />
    <EXPORT ORDINAL="2006" NAME="?pL_AnnCopyToClipboard@@3P6GHPAXIII@ZA" PURGE="-1" COMMENT="" />
    <EXPORT ORDINAL="2007" NAME="?pL_AnnCreate@@3P6GHIPAPAX@ZA" PURGE="-1" COMMENT="" />
    <EXPORT ORDINAL="2008" NAME="?pL_AnnCreateContainer@@3P6GHPAUHWND__@@PAU_ANNRECT@@IPAPAX@ZA" PURGE="-1" COMMENT="" />
    <EXPORT ORDINAL="2009" NAME="?pL_AnnCreateItem@@3P6GHPAXIIPAPAX@ZA" PURGE="-1" COMMENT="" />
    <EXPORT ORDINAL="2010" NAME="?pL_AnnCreateToolBar@@3P6GHPAUHWND__@@PAUtagPOINT@@IIPAPAU1@@ZA" PURGE="-1" COMMENT="" />
    <EXPORT ORDINAL="2011" NAME="?pL_AnnCutToClipboard@@3P6GHPAXIII@ZA" PURGE="-1" COMMENT="" />
    <EXPORT ORDINAL="2012" NAME="?pL_AnnDefine@@3P6GHPAXPAUtagPOINT@@I@ZA" PURGE="-1" COMMENT="" />
    <EXPORT ORDINAL="2013" NAME="?pL_AnnDestroy@@3P6GHPAXI@ZA" PURGE="-1" COMMENT="" />
    <EXPORT ORDINAL="2014" NAME="?pL_AnnDraw@@3P6GHPAUHDC__@@PAUtagRECT@@PAX@ZA" PURGE="-1" COMMENT="" />
    <EXPORT ORDINAL="2015" NAME="?pL_AnnEnumerate@@3P6GHPAXP6AH00@Z0I@ZA" PURGE="-1" COMMENT="" />
    <EXPORT ORDINAL="2016" NAME="?pL_AnnFlip@@3P6GHPAXPAU_ANNPOINT@@I@ZA" PURGE="-1" COMMENT="" />
    <EXPORT ORDINAL="2017" NAME="?pL_AnnGetActiveState@@3P6GHPAXPAI@ZA" PURGE="-1" COMMENT="" />
    <EXPORT ORDINAL="2018" NAME="?pL_AnnGetAutoContainer@@3P6GHPAXPAPAX@ZA" PURGE="-1" COMMENT="" />
    <EXPORT ORDINAL="2019" NAME="?pL_AnnGetAutoDrawEnable@@3P6GHPAXPAI@ZA" PURGE="-1" COMMENT="" />
    <EXPORT ORDINAL="2020" NAME="?pL_AnnGetAutoMenuEnable@@3P6GHPAXPAI@ZA" PURGE="-1" COMMENT="" />
    <EXPORT ORDINAL="2021" NAME="?pL_AnnGetAutoText@@3P6GHPAXIPAD@ZA" PURGE="-1" COMMENT="" />
    <EXPORT ORDINAL="2022" NAME="?pL_AnnGetAutoTextLen@@3P6GHPAXIPAI@ZA" PURGE="-1" COMMENT="" />
    <EXPORT ORDINAL="2023" NAME="?pL_AnnGetBackColor@@3P6GHPAXPAK@ZA" PURGE="-1" COMMENT="" />
    <EXPORT ORDINAL="2024" NAME="?pL_AnnGetBitmap@@3P6GHPAXPAUstruct_LEAD_Bitmap@@@ZA" PURGE="-1" COMMENT="" />
    <EXPORT ORDINAL="2025" NAME="?pL_AnnGetBitmapDpiX@@3P6GHPAXPAN@ZA" PURGE="-1" COMMENT="" />
    <EXPORT ORDINAL="2026" NAME="?pL_AnnGetBitmapDpiY@@3P6GHPAXPAN@ZA" PURGE="-1" COMMENT="" />
    <EXPORT ORDINAL="2027" NAME="?pL_AnnGetBoundingRect@@3P6GHPAXPAUtagRECT@@@ZA" PURGE="-1" COMMENT="" />
    <EXPORT ORDINAL="2028" NAME="?pL_AnnGetContainer@@3P6GHPAXPAPAX@ZA" PURGE="-1" COMMENT="" />
    <EXPORT ORDINAL="2029" NAME="?pL_AnnGetDistance@@3P6GHPAXPAN@ZA" PURGE="-1" COMMENT="" />
    <EXPORT ORDINAL="2030" NAME="?pL_AnnGetDpiX@@3P6GHPAXPAN@ZA" PURGE="-1" COMMENT="" />
    <EXPORT ORDINAL="2031" NAME="?pL_AnnGetDpiY@@3P6GHPAXPAN@ZA" PURGE="-1" COMMENT="" />
    <EXPORT ORDINAL="2032" NAME="?pL_AnnGetFillMode@@3P6GHPAXPAI@ZA" PURGE="-1" COMMENT="" />
    <EXPORT ORDINAL="2033" NAME="?pL_AnnGetFillPattern@@3P6GHPAXPAI@ZA" PURGE="-1" COMMENT="" />
    <EXPORT ORDINAL="2034" NAME="?pL_AnnGetFontBold@@3P6GHPAXPAI@ZA" PURGE="-1" COMMENT="" />
    <EXPORT ORDINAL="2035" NAME="?pL_AnnGetFontItalic@@3P6GHPAXPAI@ZA" PURGE="-1" COMMENT="" />
    <EXPORT ORDINAL="2036" NAME="?pL_AnnGetFontName@@3P6GHPAXPAD@ZA" PURGE="-1" COMMENT="" />
    <EXPORT ORDINAL="2037" NAME="?pL_AnnGetFontNameLen@@3P6GHPAXPAI@ZA" PURGE="-1" COMMENT="" />
    <EXPORT ORDINAL="2038" NAME="?pL_AnnGetFontSize@@3P6GHPAXPAN@ZA" PURGE="-1" COMMENT="" />
    <EXPORT ORDINAL="2039" NAME="?pL_AnnGetFontStrikeThrough@@3P6GHPAXPAI@ZA" PURGE="-1" COMMENT="" />
    <EXPORT ORDINAL="2040" NAME="?pL_AnnGetFontUnderline@@3P6GHPAXPAI@ZA" PURGE="-1" COMMENT="" />
    <EXPORT ORDINAL="2041" NAME="?pL_AnnGetForeColor@@3P6GHPAXPAK@ZA" PURGE="-1" COMMENT="" />
    <EXPORT ORDINAL="2042" NAME="?pL_AnnGetGaugeLength@@3P6GHPAXPAN@ZA" PURGE="-1" COMMENT="" />
    <EXPORT ORDINAL="2043" NAME="?pL_AnnGetHyperlink@@3P6GHPAXPAI11PAD@ZA" PURGE="-1" COMMENT="" />
    <EXPORT ORDINAL="2044" NAME="?pL_AnnGetHyperlinkLen@@3P6GHPAXPAI@ZA" PURGE="-1" COMMENT="" />
    <EXPORT ORDINAL="2045" NAME="?pL_AnnGetHyperlinkMenuEnable@@3P6GHPAXPAI@ZA" PURGE="-1" COMMENT="" />
    <EXPORT ORDINAL="2046" NAME="?pL_AnnGetItem@@3P6GHPAXPAPAX@ZA" PURGE="-1" COMMENT="" />
    <EXPORT ORDINAL="2047" NAME="?pL_AnnGetLineStyle@@3P6GHPAXPAI@ZA" PURGE="-1" COMMENT="" />
    <EXPORT ORDINAL="2048" NAME="?pL_AnnGetLineWidth@@3P6GHPAXPAN@ZA" PURGE="-1" COMMENT="" />
    <EXPORT ORDINAL="2049" NAME="?pL_AnnGetLocked@@3P6GHPAXPAI@ZA" PURGE="-1" COMMENT="" />
    <EXPORT ORDINAL="2050" NAME="?pL_AnnGetOffsetX@@3P6GHPAXPAN@ZA" PURGE="-1" COMMENT="" />
    <EXPORT ORDINAL="2051" NAME="?pL_AnnGetOffsetY@@3P6GHPAXPAN@ZA" PURGE="-1" COMMENT="" />
    <EXPORT ORDINAL="2052" NAME="?pL_AnnGetPointCount@@3P6GHPAXPAI@ZA" PURGE="-1" COMMENT="" />
    <EXPORT ORDINAL="2053" NAME="?pL_AnnGetPoints@@3P6GHPAXPAU_ANNPOINT@@@ZA" PURGE="-1" COMMENT="" />
    <EXPORT ORDINAL="2054" NAME="?pL_AnnGetPolyFillMode@@3P6GHPAXPAI@ZA" PURGE="-1" COMMENT="" />
    <EXPORT ORDINAL="2055" NAME="?pL_AnnGetROP2@@3P6GHPAXPAI@ZA" PURGE="-1" COMMENT="" />
    <EXPORT ORDINAL="2056" NAME="?pL_AnnGetRect@@3P6GHPAXPAU_ANNRECT@@@ZA" PURGE="-1" COMMENT="" />
    <EXPORT ORDINAL="2057" NAME="?pL_AnnGetScalarX@@3P6GHPAXPAN@ZA" PURGE="-1" COMMENT="" />
    <EXPORT ORDINAL="2058" NAME="?pL_AnnGetScalarY@@3P6GHPAXPAN@ZA" PURGE="-1" COMMENT="" />
    <EXPORT ORDINAL="2059" NAME="?pL_AnnGetSelectCount@@3P6GHPAXPAI@ZA" PURGE="-1" COMMENT="" />
    <EXPORT ORDINAL="2060" NAME="?pL_AnnGetSelectItems@@3P6GHPAXPAPAX@ZA" PURGE="-1" COMMENT="" />
    <EXPORT ORDINAL="2061" NAME="?pL_AnnGetSelectRect@@3P6GHPAXPAUtagRECT@@@ZA" PURGE="-1" COMMENT="" />
    <EXPORT ORDINAL="2062" NAME="?pL_AnnGetSelected@@3P6GHPAXPAI@ZA" PURGE="-1" COMMENT="" />
    <EXPORT ORDINAL="2063" NAME="?pL_AnnGetTag@@3P6GHPAXPAK@ZA" PURGE="-1" COMMENT="" />
    <EXPORT ORDINAL="2064" NAME="?pL_AnnGetText@@3P6GHPAXPAD@ZA" PURGE="-1" COMMENT="" />
    <EXPORT ORDINAL="2065" NAME="?pL_AnnGetTextLen@@3P6GHPAXPAI@ZA" PURGE="-1" COMMENT="" />
    <EXPORT ORDINAL="2066" NAME="?pL_AnnGetTool@@3P6GHPAXPAI@ZA" PURGE="-1" COMMENT="" />
    <EXPORT ORDINAL="2067" NAME="?pL_AnnGetToolBarButtonVisible@@3P6GHPAUHWND__@@IPAI@ZA" PURGE="-1" COMMENT="" />
    <EXPORT ORDINAL="2068" NAME="?pL_AnnGetToolBarChecked@@3P6GHPAUHWND__@@PAI@ZA" PURGE="-1" COMMENT="" />
    <EXPORT ORDINAL="2069" NAME="?pL_AnnGetTopContainer@@3P6GHPAXPAPAX@ZA" PURGE="-1" COMMENT="" />
    <EXPORT ORDINAL="2070" NAME="?pL_AnnGetTransparent@@3P6GHPAXPAI@ZA" PURGE="-1" COMMENT="" />
    <EXPORT ORDINAL="2071" NAME="?pL_AnnGetType@@3P6GHPAXPAI@ZA" PURGE="-1" COMMENT="" />
    <EXPORT ORDINAL="2072" NAME="?pL_AnnGetUnit@@3P6GHPAXPAIPAD1@ZA" PURGE="-1" COMMENT="" />
    <EXPORT ORDINAL="2073" NAME="?pL_AnnGetUnitLen@@3P6GHPAXPAI@ZA" PURGE="-1" COMMENT="" />
    <EXPORT ORDINAL="2074" NAME="?pL_AnnGetUserMode@@3P6GHPAXPAI@ZA" PURGE="-1" COMMENT="" />
    <EXPORT ORDINAL="2075" NAME="?pL_AnnGetVisible@@3P6GHPAXPAI@ZA" PURGE="-1" COMMENT="" />
    <EXPORT ORDINAL="2076" NAME="?pL_AnnGetWnd@@3P6GHPAXPAPAUHWND__@@@ZA" PURGE="-1" COMMENT="" />
    <EXPORT ORDINAL="2077" NAME="?pL_AnnHitTest@@3P6GHPAXPAUtagPOINT@@PAIPAPAX@ZA" PURGE="-1" COMMENT="" />
    <EXPORT ORDINAL="2078" NAME="?pL_AnnInsert@@3P6GHPAX0I@ZA" PURGE="-1" COMMENT="" />
    <EXPORT ORDINAL="2079" NAME="?pL_AnnLoad@@3P6GHPADPAPAX@ZA" PURGE="-1" COMMENT="" />
    <EXPORT ORDINAL="2080" NAME="?pL_AnnLoadMemory@@3P6GHPAEKPAPAX@ZA" PURGE="-1" COMMENT="" />
    <EXPORT ORDINAL="2081" NAME="?pL_AnnLoadOffset@@3P6GHHJKPAPAX@ZA" PURGE="-1" COMMENT="" />
    <EXPORT ORDINAL="2082" NAME="?pL_AnnLock@@3P6GHPAXPADI@ZA" PURGE="-1" COMMENT="" />
    <EXPORT ORDINAL="2083" NAME="?pL_AnnMove@@3P6GHPAXNNI@ZA" PURGE="-1" COMMENT="" />
    <EXPORT ORDINAL="2084" NAME="?pL_AnnPrint@@3P6GHPAUHDC__@@PAUtagRECT@@PAX@ZA" PURGE="-1" COMMENT="" />
    <EXPORT ORDINAL="2085" NAME="?pL_AnnRealize@@3P6GHPAUstruct_LEAD_Bitmap@@PAUtagRECT@@PAXI@ZA" PURGE="-1" COMMENT="" />
    <EXPORT ORDINAL="2086" NAME="?pL_AnnRemove@@3P6GHPAX@ZA" PURGE="-1" COMMENT="" />
    <EXPORT ORDINAL="2087" NAME="?pL_AnnResize@@3P6GHPAXNNPAU_ANNPOINT@@I@ZA" PURGE="-1" COMMENT="" />
    <EXPORT ORDINAL="2088" NAME="?pL_AnnReverse@@3P6GHPAXPAU_ANNPOINT@@I@ZA" PURGE="-1" COMMENT="" />
    <EXPORT ORDINAL="2089" NAME="?pL_AnnRotate@@3P6GHPAXNPAU_ANNPOINT@@I@ZA" PURGE="-1" COMMENT="" />
    <EXPORT ORDINAL="2090" NAME="?pL_AnnSave@@3P6GHPADPAXII@ZA" PURGE="-1" COMMENT="" />
    <EXPORT ORDINAL="2091" NAME="?pL_AnnSaveMemory@@3P6GHPAXIIPAPAXPAK@ZA" PURGE="-1" COMMENT="" />
    <EXPORT ORDINAL="2092" NAME="?pL_AnnSaveOffset@@3P6GHHJPAKPAXII@ZA" PURGE="-1" COMMENT="" />
    <EXPORT ORDINAL="2093" NAME="?pL_AnnSaveTag@@3P6GHPAXII@ZA" PURGE="-1" COMMENT="" />
    <EXPORT ORDINAL="2094" NAME="?pL_AnnSelectPoint@@3P6GHPAXPAUtagPOINT@@@ZA" PURGE="-1" COMMENT="" />
    <EXPORT ORDINAL="2095" NAME="?pL_AnnSelectRect@@3P6GHPAXPAUtagRECT@@@ZA" PURGE="-1" COMMENT="" />
    <EXPORT ORDINAL="2096" NAME="?pL_AnnSendToBack@@3P6GHPAX@ZA" PURGE="-1" COMMENT="" />
    <EXPORT ORDINAL="2097" NAME="?pL_AnnSetActiveState@@3P6GHPAXI@ZA" PURGE="-1" COMMENT="" />
    <EXPORT ORDINAL="2098" NAME="?pL_AnnSetAutoContainer@@3P6GHPAX0@ZA" PURGE="-1" COMMENT="" />
    <EXPORT ORDINAL="2099" NAME="?pL_AnnSetAutoDrawEnable@@3P6GHPAXI@ZA" PURGE="-1" COMMENT="" />
    <EXPORT ORDINAL="2100" NAME="?pL_AnnSetAutoMenuEnable@@3P6GHPAXI@ZA" PURGE="-1" COMMENT="" />
    <EXPORT ORDINAL="2101" NAME="?pL_AnnSetAutoText@@3P6GHPAXIPAD@ZA" PURGE="-1" COMMENT="" />
    <EXPORT ORDINAL="2102" NAME="?pL_AnnSetBackColor@@3P6GHPAXKI@ZA" PURGE="-1" COMMENT="" />
    <EXPORT ORDINAL="2103" NAME="?pL_AnnSetBitmap@@3P6GHPAXPAUstruct_LEAD_Bitmap@@I@ZA" PURGE="-1" COMMENT="" />
    <EXPORT ORDINAL="2104" NAME="?pL_AnnSetBitmapDpiX@@3P6GHPAXNI@ZA" PURGE="-1" COMMENT="" />
    <EXPORT ORDINAL="2105" NAME="?pL_AnnSetBitmapDpiY@@3P6GHPAXNI@ZA" PURGE="-1" COMMENT="" />
    <EXPORT ORDINAL="2106" NAME="?pL_AnnSetDpiX@@3P6GHPAXNI@ZA" PURGE="-1" COMMENT="" />
    <EXPORT ORDINAL="2107" NAME="?pL_AnnSetDpiY@@3P6GHPAXNI@ZA" PURGE="-1" COMMENT="" />
    <EXPORT ORDINAL="2108" NAME="?pL_AnnSetFillMode@@3P6GHPAXII@ZA" PURGE="-1" COMMENT="" />
    <EXPORT ORDINAL="2109" NAME="?pL_AnnSetFillPattern@@3P6GHPAXII@ZA" PURGE="-1" COMMENT="" />
    <EXPORT ORDINAL="2110" NAME="?pL_AnnSetFontBold@@3P6GHPAXII@ZA" PURGE="-1" COMMENT="" />
    <EXPORT ORDINAL="2111" NAME="?pL_AnnSetFontItalic@@3P6GHPAXII@ZA" PURGE="-1" COMMENT="" />
    <EXPORT ORDINAL="2112" NAME="?pL_AnnSetFontName@@3P6GHPAXPADI@ZA" PURGE="-1" COMMENT="" />
    <EXPORT ORDINAL="2113" NAME="?pL_AnnSetFontSize@@3P6GHPAXNI@ZA" PURGE="-1" COMMENT="" />
    <EXPORT ORDINAL="2114" NAME="?pL_AnnSetFontStrikeThrough@@3P6GHPAXII@ZA" PURGE="-1" COMMENT="" />
    <EXPORT ORDINAL="2115" NAME="?pL_AnnSetFontUnderline@@3P6GHPAXII@ZA" PURGE="-1" COMMENT="" />
    <EXPORT ORDINAL="2116" NAME="?pL_AnnSetForeColor@@3P6GHPAXKI@ZA" PURGE="-1" COMMENT="" />
    <EXPORT ORDINAL="2117" NAME="?pL_AnnSetGaugeLength@@3P6GHPAXNI@ZA" PURGE="-1" COMMENT="" />
    <EXPORT ORDINAL="2118" NAME="?pL_AnnSetHyperlink@@3P6GHPAXIIIPADI@ZA" PURGE="-1" COMMENT="" />
    <EXPORT ORDINAL="2119" NAME="?pL_AnnSetHyperlinkMenuEnable@@3P6GHPAXII@ZA" PURGE="-1" COMMENT="" />
    <EXPORT ORDINAL="2120" NAME="?pL_AnnSetLineStyle@@3P6GHPAXII@ZA" PURGE="-1" COMMENT="" />
    <EXPORT ORDINAL="2121" NAME="?pL_AnnSetLineWidth@@3P6GHPAXNI@ZA" PURGE="-1" COMMENT="" />
    <EXPORT ORDINAL="2122" NAME="?pL_AnnSetOffsetX@@3P6GHPAXNI@ZA" PURGE="-1" COMMENT="" />
    <EXPORT ORDINAL="2123" NAME="?pL_AnnSetOffsetY@@3P6GHPAXNI@ZA" PURGE="-1" COMMENT="" />
    <EXPORT ORDINAL="2124" NAME="?pL_AnnSetPoints@@3P6GHPAXPAU_ANNPOINT@@I@ZA" PURGE="-1" COMMENT="" />
    <EXPORT ORDINAL="2125" NAME="?pL_AnnSetPolyFillMode@@3P6GHPAXII@ZA" PURGE="-1" COMMENT="" />
    <EXPORT ORDINAL="2126" NAME="?pL_AnnSetROP2@@3P6GHPAXII@ZA" PURGE="-1" COMMENT="" />
    <EXPORT ORDINAL="2127" NAME="?pL_AnnSetRect@@3P6GHPAXPAU_ANNRECT@@@ZA" PURGE="-1" COMMENT="" />
    <EXPORT ORDINAL="2128" NAME="?pL_AnnSetScalarX@@3P6GHPAXNI@ZA" PURGE="-1" COMMENT="" />
    <EXPORT ORDINAL="2129" NAME="?pL_AnnSetScalarY@@3P6GHPAXNI@ZA" PURGE="-1" COMMENT="" />
    <EXPORT ORDINAL="2130" NAME="?pL_AnnSetSelected@@3P6GHPAXII@ZA" PURGE="-1" COMMENT="" />
    <EXPORT ORDINAL="2131" NAME="?pL_AnnSetTag@@3P6GHPAXKI@ZA" PURGE="-1" COMMENT="" />
    <EXPORT ORDINAL="2132" NAME="?pL_AnnSetText@@3P6GHPAXPADI@ZA" PURGE="-1" COMMENT="" />
    <EXPORT ORDINAL="2133" NAME="?pL_AnnSetTool@@3P6GHPAXI@ZA" PURGE="-1" COMMENT="" />
    <EXPORT ORDINAL="2134" NAME="?pL_AnnSetToolBarButtonVisible@@3P6GHPAUHWND__@@II@ZA" PURGE="-1" COMMENT="" />
    <EXPORT ORDINAL="2135" NAME="?pL_AnnSetToolBarChecked@@3P6GHPAUHWND__@@I@ZA" PURGE="-1" COMMENT="" />
    <EXPORT ORDINAL="2136" NAME="?pL_AnnSetTransparent@@3P6GHPAXII@ZA" PURGE="-1" COMMENT="" />
    <EXPORT ORDINAL="2137" NAME="?pL_AnnSetUndoDepth@@3P6GHPAXI@ZA" PURGE="-1" COMMENT="" />
    <EXPORT ORDINAL="2138" NAME="?pL_AnnSetUnit@@3P6GHPAXIPADII@ZA" PURGE="-1" COMMENT="" />
    <EXPORT ORDINAL="2139" NAME="?pL_AnnSetUserMode@@3P6GHPAXI@ZA" PURGE="-1" COMMENT="" />
    <EXPORT ORDINAL="2140" NAME="?pL_AnnSetVisible@@3P6GHPAXII@ZA" PURGE="-1" COMMENT="" />
    <EXPORT ORDINAL="2141" NAME="?pL_AnnSetWnd@@3P6GHPAXPAUHWND__@@@ZA" PURGE="-1" COMMENT="" />
    <EXPORT ORDINAL="2142" NAME="?pL_AnnShowLockedIcon@@3P6GHPAXII@ZA" PURGE="-1" COMMENT="" />
    <EXPORT ORDINAL="2143" NAME="?pL_AnnUndo@@3P6GHPAX@ZA" PURGE="-1" COMMENT="" />
    <EXPORT ORDINAL="2144" NAME="?pL_AnnUnlock@@3P6GHPAXPADI@ZA" PURGE="-1" COMMENT="" />
    <EXPORT ORDINAL="2145" NAME="?pL_AnnUnrealize@@3P6GHPAUstruct_LEAD_Bitmap@@PAUtagRECT@@PAXI@ZA" PURGE="-1" COMMENT="" />
    <EXPORT ORDINAL="2146" NAME="?pL_AppendPlayback@@3P6GHPAXPAUstruct_LEAD_Bitmap@@@ZA" PURGE="-1" COMMENT="" />
    <EXPORT ORDINAL="2147" NAME="?pL_AutoTrimBitmap@@3P6GHPAUstruct_LEAD_Bitmap@@I@ZA" PURGE="-1" COMMENT="" />
    <EXPORT ORDINAL="2148" NAME="?pL_AverageFilterBitmap@@3P6GHPAUstruct_LEAD_Bitmap@@I@ZA" PURGE="-1" COMMENT="" />
    <EXPORT ORDINAL="2149" NAME="?pL_BinaryFilterBitmap@@3P6GHPAUstruct_LEAD_Bitmap@@PAUtagBINARYFLT@@@ZA" PURGE="-1" COMMENT="" />
    <EXPORT ORDINAL="2150" NAME="?pL_BitmapHasRgn@@3P6GIPAUstruct_LEAD_Bitmap@@@ZA" PURGE="-1" COMMENT="" />
    <EXPORT ORDINAL="2151" NAME="?pL_CancelPlaybackWait@@3P6GHPAX@ZA" PURGE="-1" COMMENT="" />
    <EXPORT ORDINAL="2152" NAME="?pL_CapChooseAudFormat@@3P6GHPAUHWND__@@PAUwaveFormatData@@PAIPAD2I@ZA" PURGE="-1" COMMENT="" />
    <EXPORT ORDINAL="2153" NAME="?pL_CapCloseRecord@@3P6GHPAX@ZA" PURGE="-1" COMMENT="" />
    <EXPORT ORDINAL="2154" NAME="?pL_CapConnect@@3P6GHPAUHWND__@@H@ZA" PURGE="-1" COMMENT="" />
    <EXPORT ORDINAL="2155" NAME="?pL_CapCopyFileAs@@3P6GHPAUHWND__@@PAD@ZA" PURGE="-1" COMMENT="" />
    <EXPORT ORDINAL="2156" NAME="?pL_CapCopyToClipboard@@3P6GHPAUHWND__@@@ZA" PURGE="-1" COMMENT="" />
    <EXPORT ORDINAL="2157" NAME="?pL_CapCreateWin@@3P6GPAUHWND__@@PADKHHHHPAU1@@ZA" PURGE="-1" COMMENT="" />
    <EXPORT ORDINAL="2158" NAME="?pL_CapDisconnect@@3P6GHPAUHWND__@@@ZA" PURGE="-1" COMMENT="" />
    <EXPORT ORDINAL="2159" NAME="?pL_CapDisplayDlg@@3P6GHPAUHWND__@@I@ZA" PURGE="-1" COMMENT="" />
    <EXPORT ORDINAL="2160" NAME="?pL_CapEnumDrivers@@3P6GHP6AHHPAD0PAX@Z1@ZA" PURGE="-1" COMMENT="" />
    <EXPORT ORDINAL="2161" NAME="?pL_CapEnumMixerLines@@3P6GXHP6AXPAU_MIXERLINEINFO@@PAX@Z1@ZA" PURGE="-1" COMMENT="" />
    <EXPORT ORDINAL="2162" NAME="?pL_CapFeedResetSound@@3P6GHPAX@ZA" PURGE="-1" COMMENT="" />
    <EXPORT ORDINAL="2163" NAME="?pL_CapFeedSound@@3P6GHPAXPAUwaveData@@@ZA" PURGE="-1" COMMENT="" />
    <EXPORT ORDINAL="2164" NAME="?pL_CapGetAudFormat@@3P6GHPAUHWND__@@PAUwaveFormatData@@PAI@ZA" PURGE="-1" COMMENT="" />
    <EXPORT ORDINAL="2165" NAME="?pL_CapGetAudFromID@@3P6GHPAUwaveFormatData@@I@ZA" PURGE="-1" COMMENT="" />
    <EXPORT ORDINAL="2166" NAME="?pL_CapGetAudioPeak@@3P6GHPAUwaveFormatData@@PAUwaveData@@PAH@ZA" PURGE="-1" COMMENT="" />
    <EXPORT ORDINAL="2167" NAME="?pL_CapGetDefaultAudFormat@@3P6GHPAUwaveFormatData@@PAIPAD1@ZA" PURGE="-1" COMMENT="" />
    <EXPORT ORDINAL="2168" NAME="?pL_CapGetFrame@@3P6GHPAUHWND__@@@ZA" PURGE="-1" COMMENT="" />
    <EXPORT ORDINAL="2169" NAME="?pL_CapGetIDFromAud@@3P6GHPAUwaveFormatData@@PAI@ZA" PURGE="-1" COMMENT="" />
    <EXPORT ORDINAL="2170" NAME="?pL_CapGetMetrics@@3P6GHIPAX@ZA" PURGE="-1" COMMENT="" />
    <EXPORT ORDINAL="2171" NAME="?pL_CapGetMute@@3P6GHKKPAI@ZA" PURGE="-1" COMMENT="" />
    <EXPORT ORDINAL="2172" NAME="?pL_CapGetOptions@@3P6GHPAUHWND__@@PAUtagCAPTUREOPTIONS@@@ZA" PURGE="-1" COMMENT="" />
    <EXPORT ORDINAL="2173" NAME="?pL_CapGetSelect@@3P6GHKKPAI@ZA" PURGE="-1" COMMENT="" />
    <EXPORT ORDINAL="2174" NAME="?pL_CapGetStatus@@3P6GHPAUHWND__@@PAUtagCAPSTATUSINFO@@@ZA" PURGE="-1" COMMENT="" />
    <EXPORT ORDINAL="2175" NAME="?pL_CapGetVidFormat@@3P6GHPAUHWND__@@PAUtagBITMAPINFO@@PAI@ZA" PURGE="-1" COMMENT="" />
    <EXPORT ORDINAL="2176" NAME="?pL_CapGetVolume@@3P6GHKKPAI0@ZA" PURGE="-1" COMMENT="" />
    <EXPORT ORDINAL="2177" NAME="?pL_CapIsOptionAvailable@@3P6GIPAUHWND__@@I@ZA" PURGE="-1" COMMENT="" />
    <EXPORT ORDINAL="2178" NAME="?pL_CapOpenRecord@@3P6GHPAPAXIPAUwaveFormatData@@IJP6AHPAUwaveData@@PAX@Z3@ZA" PURGE="-1" COMMENT="" />
    <EXPORT ORDINAL="2179" NAME="?pL_CapPauseFeedSound@@3P6GHPAXI@ZA" PURGE="-1" COMMENT="" />
    <EXPORT ORDINAL="2180" NAME="?pL_CapSaveFrame@@3P6GHPAUHWND__@@PADHHHI@ZA" PURGE="-1" COMMENT="" />
    <EXPORT ORDINAL="2181" NAME="?pL_CapSetAudFormat@@3P6GHPAUHWND__@@PAUwaveFormatData@@I@ZA" PURGE="-1" COMMENT="" />
    <EXPORT ORDINAL="2182" NAME="?pL_CapSetMMCallbacks@@3P6GHPAUHWND__@@P6AHPAUvideoData@@PAX@Z2P6AHPAUwaveData@@2@Z2@ZA" PURGE="-1" COMMENT="" />
    <EXPORT ORDINAL="2183" NAME="?pL_CapSetMute@@3P6GHKKI@ZA" PURGE="-1" COMMENT="" />
    <EXPORT ORDINAL="2184" NAME="?pL_CapSetOptions@@3P6GHPAUHWND__@@PAUtagCAPTUREOPTIONS@@@ZA" PURGE="-1" COMMENT="" />
    <EXPORT ORDINAL="2185" NAME="?pL_CapSetOverlay@@3P6GHPAUHWND__@@I@ZA" PURGE="-1" COMMENT="" />
    <EXPORT ORDINAL="2186" NAME="?pL_CapSetPreview@@3P6GHPAUHWND__@@IMI@ZA" PURGE="-1" COMMENT="" />
    <EXPORT ORDINAL="2187" NAME="?pL_CapSetSelect@@3P6GHKKI@ZA" PURGE="-1" COMMENT="" />
    <EXPORT ORDINAL="2188" NAME="?pL_CapSetStatusCB@@3P6GHPAUHWND__@@P6AHPADPAX@Z2@ZA" PURGE="-1" COMMENT="" />
    <EXPORT ORDINAL="2189" NAME="?pL_CapSetVidFormat@@3P6GHPAUHWND__@@PAUtagBITMAPINFO@@I@ZA" PURGE="-1" COMMENT="" />
    <EXPORT ORDINAL="2190" NAME="?pL_CapSetVidOffset@@3P6GHPAUHWND__@@HH@ZA" PURGE="-1" COMMENT="" />
    <EXPORT ORDINAL="2191" NAME="?pL_CapSetVolume@@3P6GHKKII@ZA" PURGE="-1" COMMENT="" />
    <EXPORT ORDINAL="2192" NAME="?pL_CapSetWorkFile@@3P6GHPAUHWND__@@PADK@ZA" PURGE="-1" COMMENT="" />
    <EXPORT ORDINAL="2193" NAME="?pL_CapSingleFrame@@3P6GHPAUHWND__@@@ZA" PURGE="-1" COMMENT="" />
    <EXPORT ORDINAL="2194" NAME="?pL_CapStartCapture@@3P6GHPAUHWND__@@@ZA" PURGE="-1" COMMENT="" />
    <EXPORT ORDINAL="2195" NAME="?pL_CapStartFeedSound@@3P6GHPAPAXPADIPAUwaveFormatData@@IIP6AHPAXI3@Z3@ZA" PURGE="-1" COMMENT="" />
    <EXPORT ORDINAL="2196" NAME="?pL_CapStartRecord@@3P6GHPAX@ZA" PURGE="-1" COMMENT="" />
    <EXPORT ORDINAL="2197" NAME="?pL_CapStartSingleFrame@@3P6GHPAUHWND__@@@ZA" PURGE="-1" COMMENT="" />
    <EXPORT ORDINAL="2198" NAME="?pL_CapStopCapture@@3P6GHPAUHWND__@@@ZA" PURGE="-1" COMMENT="" />
    <EXPORT ORDINAL="2199" NAME="?pL_CapStopFeedSound@@3P6GHPAXI@ZA" PURGE="-1" COMMENT="" />
    <EXPORT ORDINAL="2200" NAME="?pL_CapStopRecord@@3P6GHPAX@ZA" PURGE="-1" COMMENT="" />
    <EXPORT ORDINAL="2201" NAME="?pL_CapStopSingleFrame@@3P6GHPAUHWND__@@@ZA" PURGE="-1" COMMENT="" />
    <EXPORT ORDINAL="2202" NAME="?pL_CaptureActiveClient@@3P6GHPAUstruct_LEAD_Bitmap@@PAUtagLEADCAPTUREINFO@@P6AH01PAX@Z2@ZA" PURGE="-1" COMMENT="" />
    <EXPORT ORDINAL="2203" NAME="?pL_CaptureActiveWindow@@3P6GHPAUstruct_LEAD_Bitmap@@PAUtagLEADCAPTUREINFO@@P6AH01PAX@Z2@ZA" PURGE="-1" COMMENT="" />
    <EXPORT ORDINAL="2204" NAME="?pL_CaptureArea@@3P6GHPAUstruct_LEAD_Bitmap@@PAUtagLEADCAPTUREAREAOPTION@@PAUtagLEADCAPTUREINFO@@P6AH02PAX@Z3@ZA" PURGE="-1" COMMENT="" />
    <EXPORT ORDINAL="2205" NAME="?pL_CaptureAreaOptionDlg@@3P6GHPAUHWND__@@PAUtagLEADCAPTUREAREAOPTION@@H@ZA" PURGE="-1" COMMENT="" />
    <EXPORT ORDINAL="2206" NAME="?pL_CaptureFromExe@@3P6GHPAUstruct_LEAD_Bitmap@@PADH1IKP6AH0PAUtagLEADCAPTUREINFO@@PAX@Z3@ZA" PURGE="-1" COMMENT="" />
    <EXPORT ORDINAL="2207" NAME="?pL_CaptureFromExeDlg@@3P6GHPAUstruct_LEAD_Bitmap@@PADPAKHHPAUtagLEADCAPTUREINFO@@P6AH03PAX@Z4@ZA" PURGE="-1" COMMENT="" />
    <EXPORT ORDINAL="2208" NAME="?pL_CaptureFullScreen@@3P6GHPAUstruct_LEAD_Bitmap@@PAUtagLEADCAPTUREINFO@@P6AH01PAX@Z2@ZA" PURGE="-1" COMMENT="" />
    <EXPORT ORDINAL="2209" NAME="?pL_CaptureGetResCount@@3P6GHPADHPAJ@ZA" PURGE="-1" COMMENT="" />
    <EXPORT ORDINAL="2210" NAME="?pL_CaptureMenuUnderCursor@@3P6GHPAUstruct_LEAD_Bitmap@@PAUtagLEADCAPTUREINFO@@P6AH01PAX@Z2@ZA" PURGE="-1" COMMENT="" />
    <EXPORT ORDINAL="2211" NAME="?pL_CaptureMouseCursor@@3P6GHPAUstruct_LEAD_Bitmap@@KPAUtagLEADCAPTUREINFO@@P6AH01PAX@Z2@ZA" PURGE="-1" COMMENT="" />
    <EXPORT ORDINAL="2212" NAME="?pL_CaptureObjectOptionDlg@@3P6GHPAUHWND__@@PAUtagLEADCAPTUREOBJECTOPTION@@H@ZA" PURGE="-1" COMMENT="" />
    <EXPORT ORDINAL="2213" NAME="?pL_CaptureSelectedObject@@3P6GHPAUstruct_LEAD_Bitmap@@PAUtagLEADCAPTUREOBJECTOPTION@@PAUtagLEADCAPTUREINFO@@P6AH02PAX@Z3@ZA" PURGE="-1" COMMENT="" />
    <EXPORT ORDINAL="2214" NAME="?pL_CaptureSetHotKeyCallback@@3P6GHP6AHHIPAX@Z0@ZA" PURGE="-1" COMMENT="" />
    <EXPORT ORDINAL="2215" NAME="?pL_CaptureWallPaper@@3P6GHPAUstruct_LEAD_Bitmap@@PAUtagLEADCAPTUREINFO@@P6AH01PAX@Z2@ZA" PURGE="-1" COMMENT="" />
    <EXPORT ORDINAL="2216" NAME="?pL_CaptureWindow@@3P6GHPAUstruct_LEAD_Bitmap@@PAUHWND__@@W4tagWINDOWCAPTURETYPE@@PAUtagLEADCAPTUREINFO@@P6AH03PAX@Z4@ZA" PURGE="-1" COMMENT="" />
    <EXPORT ORDINAL="2217" NAME="?pL_CaptureWindowUnderCursor@@3P6GHPAUstruct_LEAD_Bitmap@@PAUtagLEADCAPTUREINFO@@P6AH01PAX@Z2@ZA" PURGE="-1" COMMENT="" />
    <EXPORT ORDINAL="2218" NAME="?pL_ChangeBitmapContrast@@3P6GHPAUstruct_LEAD_Bitmap@@H@ZA" PURGE="-1" COMMENT="" />
    <EXPORT ORDINAL="2219" NAME="?pL_ChangeBitmapHeight@@3P6GHPAUstruct_LEAD_Bitmap@@H@ZA" PURGE="-1" COMMENT="" />
    <EXPORT ORDINAL="2220" NAME="?pL_ChangeBitmapHue@@3P6GHPAUstruct_LEAD_Bitmap@@H@ZA" PURGE="-1" COMMENT="" />
    <EXPORT ORDINAL="2221" NAME="?pL_ChangeBitmapIntensity@@3P6GHPAUstruct_LEAD_Bitmap@@H@ZA" PURGE="-1" COMMENT="" />
    <EXPORT ORDINAL="2222" NAME="?pL_ChangeBitmapSaturation@@3P6GHPAUstruct_LEAD_Bitmap@@H@ZA" PURGE="-1" COMMENT="" />
    <EXPORT ORDINAL="2223" NAME="?pL_ChangeBitmapViewPerspective@@3P6GHPAUstruct_LEAD_Bitmap@@0H@ZA" PURGE="-1" COMMENT="" />
    <EXPORT ORDINAL="2224" NAME="?pL_ChangeFromDDB@@3P6GHPAUHDC__@@PAUstruct_LEAD_Bitmap@@PAUHBITMAP__@@PAUHPALETTE__@@@ZA" PURGE="-1" COMMENT="" />
    <EXPORT ORDINAL="2225" NAME="?pL_ChangeFromDIB@@3P6GHPAUstruct_LEAD_Bitmap@@PAX@ZA" PURGE="-1" COMMENT="" />
    <EXPORT ORDINAL="2226" NAME="?pL_ChangeToDDB@@3P6GPAUHBITMAP__@@PAUHDC__@@PAUstruct_LEAD_Bitmap@@@ZA" PURGE="-1" COMMENT="" />
    <EXPORT ORDINAL="2227" NAME="?pL_ChangeToDIB@@3P6GPAXPAUstruct_LEAD_Bitmap@@@ZA" PURGE="-1" COMMENT="" />
    <EXPORT ORDINAL="2228" NAME="?pL_ClearBitmap@@3P6GHPAUstruct_LEAD_Bitmap@@@ZA" PURGE="-1" COMMENT="" />
    <EXPORT ORDINAL="2229" NAME="?pL_ClearNegativePixels@@3P6GHPAUstruct_LEAD_Bitmap@@@ZA" PURGE="-1" COMMENT="" />
    <EXPORT ORDINAL="2230" NAME="?pL_ClearPlaybackUpdateRect@@3P6GHPAX@ZA" PURGE="-1" COMMENT="" />
    <EXPORT ORDINAL="2231" NAME="?pL_ClipboardReady@@3P6GIXZA" PURGE="-1" COMMENT="" />
    <EXPORT ORDINAL="2232" NAME="?pL_ColorMergeBitmap@@3P6GHPAUstruct_LEAD_Bitmap@@PAPAU1@K@ZA" PURGE="-1" COMMENT="" />
    <EXPORT ORDINAL="2233" NAME="?pL_ColorResBitmap@@3P6GHPAUstruct_LEAD_Bitmap@@0HKPAUtagRGBQUAD@@IP6AH0PAEHPAX@Z3@ZA" PURGE="-1" COMMENT="" />
    <EXPORT ORDINAL="2234" NAME="?pL_ColorResBitmapList@@3P6GHPAXHKPAUtagRGBQUAD@@I@ZA" PURGE="-1" COMMENT="" />
    <EXPORT ORDINAL="2235" NAME="?pL_ColorSeparateBitmap@@3P6GHPAUstruct_LEAD_Bitmap@@PAPAU1@K@ZA" PURGE="-1" COMMENT="" />
    <EXPORT ORDINAL="2236" NAME="?pL_CombineBitmap@@3P6GHPAUstruct_LEAD_Bitmap@@HHHH0HHK@ZA" PURGE="-1" COMMENT="" />
    <EXPORT ORDINAL="2237" NAME="?pL_CompressBitmapWithStamp@@3P6GHPAUstruct_LEAD_Bitmap@@PADHHHHHH@ZA" PURGE="-1" COMMENT="" />
    <EXPORT ORDINAL="2238" NAME="?pL_CompressBuffer@@3P6GHPAE@ZA" PURGE="-1" COMMENT="" />
    <EXPORT ORDINAL="2239" NAME="?pL_CompressRow@@3P6GHPAGPAEHH@ZA" PURGE="-1" COMMENT="" />
    <EXPORT ORDINAL="2240" NAME="?pL_CompressRows@@3P6GHPAGPAEII@ZA" PURGE="-1" COMMENT="" />
    <EXPORT ORDINAL="2241" NAME="?pL_ConvertBuffer@@3P6GHPAEHHHHHPAUtagRGBQUAD@@1@ZA" PURGE="-1" COMMENT="" />
    <EXPORT ORDINAL="2242" NAME="?pL_ConvertBufferExt@@3P6GHPAEHHHHHPAUtagRGBQUAD@@1IHH@ZA" PURGE="-1" COMMENT="" />
    <EXPORT ORDINAL="2243" NAME="?pL_ConvertColorSpace@@3P6GHPAE0HHH@ZA" PURGE="-1" COMMENT="" />
    <EXPORT ORDINAL="2244" NAME="?pL_ConvertFromDDB@@3P6GHPAUHDC__@@PAUstruct_LEAD_Bitmap@@PAUHBITMAP__@@PAUHPALETTE__@@@ZA" PURGE="-1" COMMENT="" />
    <EXPORT ORDINAL="2245" NAME="?pL_ConvertFromDIB@@3P6GHPAUstruct_LEAD_Bitmap@@PAUtagBITMAPINFO@@PAE@ZA" PURGE="-1" COMMENT="" />
    <EXPORT ORDINAL="2246" NAME="?pL_ConvertToDDB@@3P6GPAUHBITMAP__@@PAUHDC__@@PAUstruct_LEAD_Bitmap@@@ZA" PURGE="-1" COMMENT="" />
    <EXPORT ORDINAL="2247" NAME="?pL_ConvertToDIB@@3P6GPAXPAUstruct_LEAD_Bitmap@@@ZA" PURGE="-1" COMMENT="" />
    <EXPORT ORDINAL="2248" NAME="?pL_CopyBitmap@@3P6GHPAUstruct_LEAD_Bitmap@@0@ZA" PURGE="-1" COMMENT="" />
    <EXPORT ORDINAL="2249" NAME="?pL_CopyBitmapData@@3P6GHPAUstruct_LEAD_Bitmap@@0@ZA" PURGE="-1" COMMENT="" />
    <EXPORT ORDINAL="2250" NAME="?pL_CopyBitmapHandle@@3P6GXPAUstruct_LEAD_Bitmap@@0@ZA" PURGE="-1" COMMENT="" />
    <EXPORT ORDINAL="2251" NAME="?pL_CopyBitmapListItems@@3P6GHPAPAXPAXII@ZA" PURGE="-1" COMMENT="" />
    <EXPORT ORDINAL="2252" NAME="?pL_CopyBitmapRect@@3P6GHPAUstruct_LEAD_Bitmap@@0HHII@ZA" PURGE="-1" COMMENT="" />
    <EXPORT ORDINAL="2253" NAME="?pL_CopyFromClipboard@@3P6GIPAUHWND__@@PAUstruct_LEAD_Bitmap@@@ZA" PURGE="-1" COMMENT="" />
    <EXPORT ORDINAL="2254" NAME="?pL_CopyToClipboard@@3P6GIPAUHWND__@@PAUstruct_LEAD_Bitmap@@@ZA" PURGE="-1" COMMENT="" />
    <EXPORT ORDINAL="2255" NAME="?pL_CopyToClipboardExt@@3P6GHPAUHWND__@@PAUstruct_LEAD_Bitmap@@I@ZA" PURGE="-1" COMMENT="" />
    <EXPORT ORDINAL="2256" NAME="?pL_CreateBitmap@@3P6GHPAUstruct_LEAD_Bitmap@@IIIIIPAUtagRGBQUAD@@I@ZA" PURGE="-1" COMMENT="" />
    <EXPORT ORDINAL="2257" NAME="?pL_CreateBitmapList@@3P6GHPAPAX@ZA" PURGE="-1" COMMENT="" />
    <EXPORT ORDINAL="2258" NAME="?pL_CreateLeadDC@@3P6GPAUHDC__@@PAUstruct_LEAD_Bitmap@@@ZA" PURGE="-1" COMMENT="" />
    <EXPORT ORDINAL="2259" NAME="?pL_CreateMaskFromBitmapRgn@@3P6GHPAUstruct_LEAD_Bitmap@@0@ZA" PURGE="-1" COMMENT="" />
    <EXPORT ORDINAL="2260" NAME="?pL_CreatePaintPalette@@3P6GPAUHPALETTE__@@PAUHDC__@@PAUstruct_LEAD_Bitmap@@@ZA" PURGE="-1" COMMENT="" />
    <EXPORT ORDINAL="2261" NAME="?pL_CreatePanWindow@@3P6GHPAUHWND__@@PAUstruct_LEAD_Bitmap@@KHHHHPADPAUHICON__@@3IP6AX00IPAUtagRECT@@PAX@Z5@ZA" PURGE="-1" COMMENT="" />
    <EXPORT ORDINAL="2262" NAME="?pL_CreatePlayback@@3P6GHPAPAXPAUstruct_LEAD_Bitmap@@PAX@ZA" PURGE="-1" COMMENT="" />
    <EXPORT ORDINAL="2263" NAME="?pL_CreateUserMatchTable@@3P6GPAIPAUtagRGBQUAD@@I@ZA" PURGE="-1" COMMENT="" />
    <EXPORT ORDINAL="2264" NAME="?pL_DecompressBitmapMemory@@3P6GHPADPAUstruct_LEAD_Bitmap@@HJ@ZA" PURGE="-1" COMMENT="" />
    <EXPORT ORDINAL="2265" NAME="?pL_DecompressMemory@@3P6GHPADPAUstruct_LEAD_Bitmap@@P6AHPAUstruct_file_information@@1PAEIHHPAX@ZH4HJ@ZA" PURGE="-1" COMMENT="" />
    <EXPORT ORDINAL="2266" NAME="?pL_DefaultDithering@@3P6GHI@ZA" PURGE="-1" COMMENT="" />
    <EXPORT ORDINAL="2267" NAME="?pL_DeleteBitmapListItems@@3P6GHPAXII@ZA" PURGE="-1" COMMENT="" />
    <EXPORT ORDINAL="2268" NAME="?pL_DeleteLeadDC@@3P6GIPAUHDC__@@@ZA" PURGE="-1" COMMENT="" />
    <EXPORT ORDINAL="2269" NAME="?pL_DeletePage@@3P6GHPADHI@ZA" PURGE="-1" COMMENT="" />
    <EXPORT ORDINAL="2270" NAME="?pL_DeskewBitmap@@3P6GHPAUstruct_LEAD_Bitmap@@PAJ@ZA" PURGE="-1" COMMENT="" />
    <EXPORT ORDINAL="2271" NAME="?pL_DespeckleBitmap@@3P6GHPAUstruct_LEAD_Bitmap@@@ZA" PURGE="-1" COMMENT="" />
    <EXPORT ORDINAL="2272" NAME="?pL_DestroyBitmapList@@3P6GHPAX@ZA" PURGE="-1" COMMENT="" />
    <EXPORT ORDINAL="2273" NAME="?pL_DestroyPanWindow@@3P6GHPAUHWND__@@@ZA" PURGE="-1" COMMENT="" />
    <EXPORT ORDINAL="2274" NAME="?pL_DestroyPlayback@@3P6GHPAXPAPAX@ZA" PURGE="-1" COMMENT="" />
    <EXPORT ORDINAL="2275" NAME="?pL_DitherLine@@3P6GHPAUstruct_LEAD_Bitmap@@PAE1@ZA" PURGE="-1" COMMENT="" />
    <EXPORT ORDINAL="2276" NAME="?pL_DlgColorRes@@3P6GHPAUHWND__@@PAUstruct_LEAD_Bitmap@@PAHPAKKP6AXK@Z@ZA" PURGE="-1" COMMENT="" />
    <EXPORT ORDINAL="2277" NAME="?pL_DlgFileOpen@@3P6GHPAUHWND__@@PAUtagOFNA@@PAU_FILEOPENPARM@@KP6AXK@Z@ZA" PURGE="-1" COMMENT="" />
    <EXPORT ORDINAL="2278" NAME="?pL_DlgFileSave@@3P6GHPAUHWND__@@PAUtagOFNA@@PAU_FILESAVEPARM@@KKP6AXK@Z@ZA" PURGE="-1" COMMENT="" />
    <EXPORT ORDINAL="2279" NAME="?pL_DlgGetAngle@@3P6GHPAUHWND__@@PAUstruct_LEAD_Bitmap@@PAJPAHPAKKP6AXK@Z@ZA" PURGE="-1" COMMENT="" />
    <EXPORT ORDINAL="2280" NAME="?pL_DlgGetChange@@3P6GHPAUHWND__@@PAUstruct_LEAD_Bitmap@@PAHPAKKP6AXK@Z@ZA" PURGE="-1" COMMENT="" />
    <EXPORT ORDINAL="2281" NAME="?pL_DlgGetDirectory@@3P6GHPAUHWND__@@PADH1H1KP6AXK@Z@ZA" PURGE="-1" COMMENT="" />
    <EXPORT ORDINAL="2282" NAME="?pL_DlgGetEffect@@3P6GHPAUHWND__@@PAUstruct_LEAD_Bitmap@@PAU_EFXDLGPARM@@KP6AXK@Z@ZA" PURGE="-1" COMMENT="" />
    <EXPORT ORDINAL="2283" NAME="?pL_DlgGetEmboss@@3P6GHPAUHWND__@@PAUstruct_LEAD_Bitmap@@PAI2KP6AXK@Z@ZA" PURGE="-1" COMMENT="" />
    <EXPORT ORDINAL="2284" NAME="?pL_DlgGetFilter@@3P6GHPAUHWND__@@PAUstruct_LEAD_Bitmap@@PAPAUtagSPATIALFLT@@PAPAUtagBINARYFLT@@PAIKP6AXK@Z@ZA" PURGE="-1" COMMENT="" />
    <EXPORT ORDINAL="2285" NAME="?pL_DlgGetGamma@@3P6GHPAUHWND__@@PAUstruct_LEAD_Bitmap@@PAIKP6AXK@Z@ZA" PURGE="-1" COMMENT="" />
    <EXPORT ORDINAL="2286" NAME="?pL_DlgGetGradient@@3P6GHPAUHWND__@@PAUstruct_LEAD_Bitmap@@PAU_GRADDLGPARM@@KP6AXK@Z@ZA" PURGE="-1" COMMENT="" />
    <EXPORT ORDINAL="2287" NAME="?pL_DlgGetNoise@@3P6GHPAUHWND__@@PAUstruct_LEAD_Bitmap@@PAI2KP6AXK@Z@ZA" PURGE="-1" COMMENT="" />
    <EXPORT ORDINAL="2288" NAME="?pL_DlgGetRange@@3P6GHPAUHWND__@@PAUstruct_LEAD_Bitmap@@PAI2KP6AXK@Z@ZA" PURGE="-1" COMMENT="" />
    <EXPORT ORDINAL="2289" NAME="?pL_DlgGetShape@@3P6GHPAUHWND__@@PAUstruct_LEAD_Bitmap@@1PAU_SHAPEDLGPARM@@KP6AXK@Z@ZA" PURGE="-1" COMMENT="" />
    <EXPORT ORDINAL="2290" NAME="?pL_DlgGetSize@@3P6GHPAUHWND__@@PAUstruct_LEAD_Bitmap@@PAH2KP6AXK@Z@ZA" PURGE="-1" COMMENT="" />
    <EXPORT ORDINAL="2291" NAME="?pL_DlgGetText@@3P6GHPAUHWND__@@PAUstruct_LEAD_Bitmap@@1PAU_TEXTDLGPARM@@KP6AXK@Z@ZA" PURGE="-1" COMMENT="" />
    <EXPORT ORDINAL="2292" NAME="?pL_DlgGetTransition@@3P6GHPAUHWND__@@PAUstruct_LEAD_Bitmap@@PAU_TRANSDLGPARM@@KP6AXK@Z@ZA" PURGE="-1" COMMENT="" />
    <EXPORT ORDINAL="2293" NAME="?pL_DlgWindowLevel@@3P6GHPAUHWND__@@PAUstruct_LEAD_Bitmap@@PAUtagRGBQUAD@@KHHPAI3PAK4KP6AXK@Z@ZA" PURGE="-1" COMMENT="" />
    <EXPORT ORDINAL="2294" NAME="?pL_DupPalette@@3P6GPAUHPALETTE__@@PAU1@@ZA" PURGE="-1" COMMENT="" />
    <EXPORT ORDINAL="2295" NAME="?pL_EfxDraw3dShape@@3P6GHPAUHDC__@@IPAUtagRECT@@K01IKIKIIKKIIKKIIHHKPAUHRGN__@@@ZA" PURGE="-1" COMMENT="" />
    <EXPORT ORDINAL="2296" NAME="?pL_EfxDraw3dText@@3P6GHPAUHDC__@@PADPAUtagRECT@@IHHKKKPAUHFONT__@@0@ZA" PURGE="-1" COMMENT="" />
    <EXPORT ORDINAL="2297" NAME="?pL_EfxDrawFrame@@3P6GHPAUHDC__@@PAUtagRECT@@IIKIKKIKK@ZA" PURGE="-1" COMMENT="" />
    <EXPORT ORDINAL="2298" NAME="?pL_EfxDrawRotated3dText@@3P6GHPAUHDC__@@PADPAUtagRECT@@HIHHKKKPAUHFONT__@@0@ZA" PURGE="-1" COMMENT="" />
    <EXPORT ORDINAL="2299" NAME="?pL_EfxEffectBlt@@3P6GHPAUHDC__@@HHHH0HHIIIIIIKIKK@ZA" PURGE="-1" COMMENT="" />
    <EXPORT ORDINAL="2300" NAME="?pL_EfxGradientFillRect@@3P6GHPAUHDC__@@PAUtagRECT@@IKKI@ZA" PURGE="-1" COMMENT="" />
    <EXPORT ORDINAL="2301" NAME="?pL_EfxPaintBitmap@@3P6GHPAUHDC__@@PAUstruct_LEAD_Bitmap@@PAUtagRECT@@222IIIIIIKIKK@ZA" PURGE="-1" COMMENT="" />
    <EXPORT ORDINAL="2302" NAME="?pL_EfxPaintTransition@@3P6GHPAUHDC__@@IKKIPAUtagRECT@@IIIIIIKIKK@ZA" PURGE="-1" COMMENT="" />
    <EXPORT ORDINAL="2303" NAME="?pL_EfxPatternFillRect@@3P6GHPAUHDC__@@PAUtagRECT@@IKK@ZA" PURGE="-1" COMMENT="" />
    <EXPORT ORDINAL="2304" NAME="?pL_EmbossBitmap@@3P6GHPAUstruct_LEAD_Bitmap@@II@ZA" PURGE="-1" COMMENT="" />
    <EXPORT ORDINAL="2305" NAME="?pL_EndCompressBuffer@@3P6GHXZA" PURGE="-1" COMMENT="" />
    <EXPORT ORDINAL="2306" NAME="?pL_EnumDimensions@@3P6GHPADPAU_DIMENSION@@PAH@ZA" PURGE="-1" COMMENT="" />
    <EXPORT ORDINAL="2307" NAME="?pL_ExpandRow@@3P6GHPAGPAEIH@ZA" PURGE="-1" COMMENT="" />
    <EXPORT ORDINAL="2308" NAME="?pL_ExpandRows@@3P6GHPAGPAEII@ZA" PURGE="-1" COMMENT="" />
    <EXPORT ORDINAL="2309" NAME="?pL_FeedLoad@@3P6GHPAXPAEK@ZA" PURGE="-1" COMMENT="" />
    <EXPORT ORDINAL="2310" NAME="?pL_FileConvert@@3P6GHPAD0HHHHH@ZA" PURGE="-1" COMMENT="" />
    <EXPORT ORDINAL="2311" NAME="?pL_FileInfo@@3P6GHPADPAUstruct_file_information@@I@ZA" PURGE="-1" COMMENT="" />
    <EXPORT ORDINAL="2312" NAME="?pL_FileInfoMemory@@3P6GHPADPAUstruct_file_information@@JI@ZA" PURGE="-1" COMMENT="" />
    <EXPORT ORDINAL="2313" NAME="?pL_FillBitmap@@3P6GHPAUstruct_LEAD_Bitmap@@K@ZA" PURGE="-1" COMMENT="" />
    <EXPORT ORDINAL="2314" NAME="?pL_FlipBitmap@@3P6GHPAUstruct_LEAD_Bitmap@@@ZA" PURGE="-1" COMMENT="" />
    <EXPORT ORDINAL="2315" NAME="?pL_FrameBitmapRgn@@3P6GHPAUHDC__@@PAUstruct_LEAD_Bitmap@@PAU_RGNXFORM@@I@ZA" PURGE="-1" COMMENT="" />
    <EXPORT ORDINAL="2316" NAME="?pL_FreeBitmap@@3P6GXPAUstruct_LEAD_Bitmap@@@ZA" PURGE="-1" COMMENT="" />
    <EXPORT ORDINAL="2317" NAME="?pL_FreeBitmapRgn@@3P6GHPAUstruct_LEAD_Bitmap@@@ZA" PURGE="-1" COMMENT="" />
    <EXPORT ORDINAL="2318" NAME="?pL_FreeUserMatchTable@@3P6GHPAI@ZA" PURGE="-1" COMMENT="" />
    <EXPORT ORDINAL="2319" NAME="?pL_GammaCorrectBitmap@@3P6GHPAUstruct_LEAD_Bitmap@@I@ZA" PURGE="-1" COMMENT="" />
    <EXPORT ORDINAL="2320" NAME="?pL_GetAutoTrimRect@@3P6GHPAUstruct_LEAD_Bitmap@@IPAUtagRECT@@@ZA" PURGE="-1" COMMENT="" />
    <EXPORT ORDINAL="2321" NAME="?pL_GetBitmapAlpha@@3P6GHPAUstruct_LEAD_Bitmap@@0@ZA" PURGE="-1" COMMENT="" />
    <EXPORT ORDINAL="2322" NAME="?pL_GetBitmapColorCount@@3P6GHPAUstruct_LEAD_Bitmap@@PAK@ZA" PURGE="-1" COMMENT="" />
    <EXPORT ORDINAL="2323" NAME="?pL_GetBitmapColors@@3P6GHPAUstruct_LEAD_Bitmap@@HHPAUtagRGBQUAD@@@ZA" PURGE="-1" COMMENT="" />
    <EXPORT ORDINAL="2324" NAME="?pL_GetBitmapHistogram@@3P6GHPAUstruct_LEAD_Bitmap@@PAKI@ZA" PURGE="-1" COMMENT="" />
    <EXPORT ORDINAL="2325" NAME="?pL_GetBitmapListCount@@3P6GHPAXPAI@ZA" PURGE="-1" COMMENT="" />
    <EXPORT ORDINAL="2326" NAME="?pL_GetBitmapListItem@@3P6GHPAXIPAUstruct_LEAD_Bitmap@@@ZA" PURGE="-1" COMMENT="" />
    <EXPORT ORDINAL="2327" NAME="?pL_GetBitmapRgnArea@@3P6GHPAUstruct_LEAD_Bitmap@@PAK@ZA" PURGE="-1" COMMENT="" />
    <EXPORT ORDINAL="2328" NAME="?pL_GetBitmapRgnBounds@@3P6GHPAUstruct_LEAD_Bitmap@@PAU_RGNXFORM@@PAUtagRECT@@@ZA" PURGE="-1" COMMENT="" />
    <EXPORT ORDINAL="2329" NAME="?pL_GetBitmapRgnHandle@@3P6GHPAUstruct_LEAD_Bitmap@@PAU_RGNXFORM@@PAPAUHRGN__@@@ZA" PURGE="-1" COMMENT="" />
    <EXPORT ORDINAL="2330" NAME="?pL_GetBitmapRow@@3P6GJPAUstruct_LEAD_Bitmap@@PAEHK@ZA" PURGE="-1" COMMENT="" />
    <EXPORT ORDINAL="2331" NAME="?pL_GetBitmapRowCol@@3P6GJPAUstruct_LEAD_Bitmap@@PAEHHK@ZA" PURGE="-1" COMMENT="" />
    <EXPORT ORDINAL="2332" NAME="?pL_GetBitmapRowColCompressed@@3P6GJPAUstruct_LEAD_Bitmap@@PAEPAGHHK@ZA" PURGE="-1" COMMENT="" />
    <EXPORT ORDINAL="2333" NAME="?pL_GetBitmapRowCompressed@@3P6GHPAUstruct_LEAD_Bitmap@@PAEPAGII@ZA" PURGE="-1" COMMENT="" />
    <EXPORT ORDINAL="2334" NAME="?pL_GetCaptureOption@@3P6GHPAUtagLEADCAPTUREOPTION@@@ZA" PURGE="-1" COMMENT="" />
    <EXPORT ORDINAL="2335" NAME="?pL_GetComment@@3P6GHIPAEI@ZA" PURGE="-1" COMMENT="" />
    <EXPORT ORDINAL="2336" NAME="?pL_GetCompressFileStamp@@3P6GHPADPAUstruct_LEAD_Bitmap@@@ZA" PURGE="-1" COMMENT="" />
    <EXPORT ORDINAL="2337" NAME="?pL_GetDefaultAreaOption@@3P6GHPAUtagLEADCAPTUREAREAOPTION@@@ZA" PURGE="-1" COMMENT="" />
    <EXPORT ORDINAL="2338" NAME="?pL_GetDefaultObjectOption@@3P6GHPAUtagLEADCAPTUREOBJECTOPTION@@@ZA" PURGE="-1" COMMENT="" />
    <EXPORT ORDINAL="2339" NAME="?pL_GetDimension@@3P6GHHPAK0@ZA" PURGE="-1" COMMENT="" />
    <EXPORT ORDINAL="2340" NAME="?pL_GetDisplayMode@@3P6GKXZA" PURGE="-1" COMMENT="" />
    <EXPORT ORDINAL="2341" NAME="?pL_GetExtFileOption@@3P6GHPAU_EXTFILEOPTION@@@ZA" PURGE="-1" COMMENT="" />
    <EXPORT ORDINAL="2342" NAME="?pL_GetFileCommentSize@@3P6GHPADIPAI@ZA" PURGE="-1" COMMENT="" />
    <EXPORT ORDINAL="2343" NAME="?pL_GetFixedPalette@@3P6GHPAUtagRGBQUAD@@H@ZA" PURGE="-1" COMMENT="" />
    <EXPORT ORDINAL="2344" NAME="?pL_GetMinMaxBits@@3P6GHPAUstruct_LEAD_Bitmap@@PAH1@ZA" PURGE="-1" COMMENT="" />
    <EXPORT ORDINAL="2345" NAME="?pL_GetMinMaxVal@@3P6GHPAUstruct_LEAD_Bitmap@@PAI1@ZA" PURGE="-1" COMMENT="" />
    <EXPORT ORDINAL="2346" NAME="?pL_GetPCDResolution@@3P6GHPADPAUpcdinfo@@@ZA" PURGE="-1" COMMENT="" />
    <EXPORT ORDINAL="2347" NAME="?pL_GetPaintContrast@@3P6GHXZA" PURGE="-1" COMMENT="" />
    <EXPORT ORDINAL="2348" NAME="?pL_GetPaintGamma@@3P6GIXZA" PURGE="-1" COMMENT="" />
    <EXPORT ORDINAL="2349" NAME="?pL_GetPaintIntensity@@3P6GHXZA" PURGE="-1" COMMENT="" />
    <EXPORT ORDINAL="2350" NAME="?pL_GetPixelColor@@3P6GKPAUstruct_LEAD_Bitmap@@HH@ZA" PURGE="-1" COMMENT="" />
    <EXPORT ORDINAL="2351" NAME="?pL_GetPlaybackDelay@@3P6GHPAXPAK@ZA" PURGE="-1" COMMENT="" />
    <EXPORT ORDINAL="2352" NAME="?pL_GetPlaybackIndex@@3P6GHPAXPAH@ZA" PURGE="-1" COMMENT="" />
    <EXPORT ORDINAL="2353" NAME="?pL_GetPlaybackState@@3P6GHPAXPAI@ZA" PURGE="-1" COMMENT="" />
    <EXPORT ORDINAL="2354" NAME="?pL_GetPlaybackUpdateRect@@3P6GHPAXPAUtagRECT@@I@ZA" PURGE="-1" COMMENT="" />
    <EXPORT ORDINAL="2355" NAME="?pL_GetSaveResolution@@3P6GHPAIPAU_DIMENSION@@@ZA" PURGE="-1" COMMENT="" />
    <EXPORT ORDINAL="2356" NAME="?pL_GetTag@@3P6GJGPAGPAKPAX@ZA" PURGE="-1" COMMENT="" />
    <EXPORT ORDINAL="2357" NAME="?pL_GetWMFResolution@@3P6GHPAH@ZA" PURGE="-1" COMMENT="" />
    <EXPORT ORDINAL="2358" NAME="?pL_GrayScaleBitmap@@3P6GHPAUstruct_LEAD_Bitmap@@H@ZA" PURGE="-1" COMMENT="" />
    <EXPORT ORDINAL="2359" NAME="?pL_HalfToneBitmap@@3P6GHPAUstruct_LEAD_Bitmap@@I@ZA" PURGE="-1" COMMENT="" />
    <EXPORT ORDINAL="2360" NAME="?pL_HalfToneBitmapExt@@3P6GHPAUstruct_LEAD_Bitmap@@IJ@ZA" PURGE="-1" COMMENT="" />
    <EXPORT ORDINAL="2361" NAME="?pL_HistoContrastBitmap@@3P6GHPAUstruct_LEAD_Bitmap@@H@ZA" PURGE="-1" COMMENT="" />
    <EXPORT ORDINAL="2362" NAME="?pL_HistoEqualizeBitmap@@3P6GHPAUstruct_LEAD_Bitmap@@@ZA" PURGE="-1" COMMENT="" />
    <EXPORT ORDINAL="2363" NAME="?pL_ISISAcquire@@3P6GHPAUHWND__@@PAUstruct_LEAD_Bitmap@@K@ZA" PURGE="-1" COMMENT="" />
    <EXPORT ORDINAL="2364" NAME="?pL_ISISAcquireMulti@@3P6GHPAUHWND__@@PADKHIPAHP6AHPAUstruct_LEAD_Bitmap@@J1PAX@Z4@ZA" PURGE="-1" COMMENT="" />
    <EXPORT ORDINAL="2365" NAME="?pL_ISISGetTagLong@@3P6GHIPAJ@ZA" PURGE="-1" COMMENT="" />
    <EXPORT ORDINAL="2366" NAME="?pL_ISISGetTagShort@@3P6GHIPAH@ZA" PURGE="-1" COMMENT="" />
    <EXPORT ORDINAL="2367" NAME="?pL_ISISLoadDriver@@3P6GHPAD@ZA" PURGE="-1" COMMENT="" />
    <EXPORT ORDINAL="2368" NAME="?pL_ISISSelect@@3P6GHPAUHWND__@@PAD@ZA" PURGE="-1" COMMENT="" />
    <EXPORT ORDINAL="2369" NAME="?pL_ISISSetScanOptions@@3P6GHPAUHWND__@@@ZA" PURGE="-1" COMMENT="" />
    <EXPORT ORDINAL="2370" NAME="?pL_ISISSetTagLong@@3P6GHIJ@ZA" PURGE="-1" COMMENT="" />
    <EXPORT ORDINAL="2371" NAME="?pL_ISISSetTagShort@@3P6GHIH@ZA" PURGE="-1" COMMENT="" />
    <EXPORT ORDINAL="2372" NAME="?pL_ISISUnloadDriver@@3P6GHXZA" PURGE="-1" COMMENT="" />
    <EXPORT ORDINAL="2373" NAME="?pL_IgnoreFilters@@3P6GHPAD@ZA" PURGE="-1" COMMENT="" />
    <EXPORT ORDINAL="2374" NAME="?pL_InetAcceptConnect@@3P6GHIPAIP6AHIHHPADKPAX@Z2@ZA" PURGE="-1" COMMENT="" />
    <EXPORT ORDINAL="2375" NAME="?pL_InetAutoProcess@@3P6GHII@ZA" PURGE="-1" COMMENT="" />
    <EXPORT ORDINAL="2376" NAME="?pL_InetClearQueue@@3P6GHI@ZA" PURGE="-1" COMMENT="" />
    <EXPORT ORDINAL="2377" NAME="?pL_InetClose@@3P6GHII@ZA" PURGE="-1" COMMENT="" />
    <EXPORT ORDINAL="2378" NAME="?pL_InetConnect@@3P6GHPADHPAIP6AHIHH0KPAX@Z2@ZA" PURGE="-1" COMMENT="" />
    <EXPORT ORDINAL="2379" NAME="?pL_InetGetHostName@@3P6GHIPADHPAK@ZA" PURGE="-1" COMMENT="" />
    <EXPORT ORDINAL="2380" NAME="?pL_InetGetQueueSize@@3P6GHIPAK@ZA" PURGE="-1" COMMENT="" />
    <EXPORT ORDINAL="2381" NAME="?pL_InetReadData@@3P6GHIPADPAK@ZA" PURGE="-1" COMMENT="" />
    <EXPORT ORDINAL="2382" NAME="?pL_InetSendBitmap@@3P6GHIPAUstruct_LEAD_Bitmap@@HHHPAK@ZA" PURGE="-1" COMMENT="" />
    <EXPORT ORDINAL="2383" NAME="?pL_InetSendData@@3P6GHIPADPAKI@ZA" PURGE="-1" COMMENT="" />
    <EXPORT ORDINAL="2384" NAME="?pL_InetSendMMData@@3P6GHIPADPAK@ZA" PURGE="-1" COMMENT="" />
    <EXPORT ORDINAL="2385" NAME="?pL_InetSendRawData@@3P6GHIPADPAK@ZA" PURGE="-1" COMMENT="" />
    <EXPORT ORDINAL="2386" NAME="?pL_InetSendSound@@3P6GHIPAUwaveFormatData@@PAUwaveData@@PAK@ZA" PURGE="-1" COMMENT="" />
    <EXPORT ORDINAL="2387" NAME="?pL_InetServerInit@@3P6GHHPAIP6AHIHHPADKPAX@Z2@ZA" PURGE="-1" COMMENT="" />
    <EXPORT ORDINAL="2388" NAME="?pL_InetShutDown@@3P6GHXZA" PURGE="-1" COMMENT="" />
    <EXPORT ORDINAL="2389" NAME="?pL_InetStartUp@@3P6GHXZA" PURGE="-1" COMMENT="" />
    <EXPORT ORDINAL="2390" NAME="?pL_InitBitmap@@3P6GHPAUstruct_LEAD_Bitmap@@HHH@ZA" PURGE="-1" COMMENT="" />
    <EXPORT ORDINAL="2391" NAME="?pL_InsertBitmapListItem@@3P6GHPAXIPAUstruct_LEAD_Bitmap@@@ZA" PURGE="-1" COMMENT="" />
    <EXPORT ORDINAL="2392" NAME="?pL_IntensityDetectBitmap@@3P6GHPAUstruct_LEAD_Bitmap@@II@ZA" PURGE="-1" COMMENT="" />
    <EXPORT ORDINAL="2393" NAME="?pL_InvertBitmap@@3P6GHPAUstruct_LEAD_Bitmap@@@ZA" PURGE="-1" COMMENT="" />
    <EXPORT ORDINAL="2394" NAME="?pL_IsCaptureActive@@3P6GIXZA" PURGE="-1" COMMENT="" />
    <EXPORT ORDINAL="2395" NAME="?pL_IsGrayScaleBitmap@@3P6GHPAUstruct_LEAD_Bitmap@@@ZA" PURGE="-1" COMMENT="" />
    <EXPORT ORDINAL="2396" NAME="?pL_IsISISAvailable@@3P6GIXZA" PURGE="-1" COMMENT="" />
    <EXPORT ORDINAL="2397" NAME="?pL_IsPtInBitmapRgn@@3P6GIPAUstruct_LEAD_Bitmap@@HH@ZA" PURGE="-1" COMMENT="" />
    <EXPORT ORDINAL="2398" NAME="?pL_IsSupportLocked@@3P6GII@ZA" PURGE="-1" COMMENT="" />
    <EXPORT ORDINAL="2399" NAME="?pL_IsTwainAvailable@@3P6GIPAUHWND__@@@ZA" PURGE="-1" COMMENT="" />
    <EXPORT ORDINAL="2400" NAME="?pL_LoadBitmap@@3P6GHPADPAUstruct_LEAD_Bitmap@@HH@ZA" PURGE="-1" COMMENT="" />
    <EXPORT ORDINAL="2401" NAME="?pL_LoadBitmapList@@3P6GHPADPAPAXHH@ZA" PURGE="-1" COMMENT="" />
    <EXPORT ORDINAL="2402" NAME="?pL_LoadBitmapMemory@@3P6GHPADPAUstruct_LEAD_Bitmap@@HHJ@ZA" PURGE="-1" COMMENT="" />
    <EXPORT ORDINAL="2403" NAME="?pL_LoadFile@@3P6GHPADPAUstruct_LEAD_Bitmap@@HHIP6AHPAUstruct_file_information@@1PAEIHHPAX@Z4@ZA" PURGE="-1" COMMENT="" />
    <EXPORT ORDINAL="2404" NAME="?pL_LoadFileOffset@@3P6GHHJJPAUstruct_LEAD_Bitmap@@HHIP6AHPAUstruct_file_information@@0PAEIHHPAX@Z3@ZA" PURGE="-1" COMMENT="" />
    <EXPORT ORDINAL="2405" NAME="?pL_LoadFileTile@@3P6GHPADPAUstruct_LEAD_Bitmap@@HHIIHHIP6AHPAUstruct_file_information@@1PAEIHHPAX@Z4@ZA" PURGE="-1" COMMENT="" />
    <EXPORT ORDINAL="2406" NAME="?pL_LoadMemory@@3P6GHPADPAUstruct_LEAD_Bitmap@@HHIP6AHPAUstruct_file_information@@1PAEIHHPAX@Z4J@ZA" PURGE="-1" COMMENT="" />
    <EXPORT ORDINAL="2407" NAME="?pL_MMAddStream@@3P6GHPAUtagMEDIAHANDLE@@IPAXPADH@ZA" PURGE="-1" COMMENT="" />
    <EXPORT ORDINAL="2408" NAME="?pL_MMAdjustWin@@3P6GHPAUtagMEDIAHANDLE@@HHHH@ZA" PURGE="-1" COMMENT="" />
    <EXPORT ORDINAL="2409" NAME="?pL_MMConvertFromBitmapList@@3P6GHPAUtagMEDIAHANDLE@@PADHHPAX1@ZA" PURGE="-1" COMMENT="" />
    <EXPORT ORDINAL="2410" NAME="?pL_MMConvertTime@@3P6GHPAUtagMEDIAHANDLE@@PAJHJH@ZA" PURGE="-1" COMMENT="" />
    <EXPORT ORDINAL="2411" NAME="?pL_MMCopyFrames@@3P6GHPAUtagMEDIAHANDLE@@JJK@ZA" PURGE="-1" COMMENT="" />
    <EXPORT ORDINAL="2412" NAME="?pL_MMCreate@@3P6GHPAUtagMEDIAHANDLE@@@ZA" PURGE="-1" COMMENT="" />
    <EXPORT ORDINAL="2413" NAME="?pL_MMDeleteFrames@@3P6GHPAUtagMEDIAHANDLE@@JJK@ZA" PURGE="-1" COMMENT="" />
    <EXPORT ORDINAL="2414" NAME="?pL_MMDeleteStream@@3P6GHPAUtagMEDIAHANDLE@@H@ZA" PURGE="-1" COMMENT="" />
    <EXPORT ORDINAL="2415" NAME="?pL_MMEnumCompressors@@3P6GHHP6AHPADPAX@Z1@ZA" PURGE="-1" COMMENT="" />
    <EXPORT ORDINAL="2416" NAME="?pL_MMFree@@3P6GHPAUtagMEDIAHANDLE@@@ZA" PURGE="-1" COMMENT="" />
    <EXPORT ORDINAL="2417" NAME="?pL_MMGetBalance@@3P6GHPAUtagMEDIAHANDLE@@PAH@ZA" PURGE="-1" COMMENT="" />
    <EXPORT ORDINAL="2418" NAME="?pL_MMGetBitmap@@3P6GHPAUtagMEDIAHANDLE@@PAUstruct_LEAD_Bitmap@@J@ZA" PURGE="-1" COMMENT="" />
    <EXPORT ORDINAL="2419" NAME="?pL_MMGetCompressionOpts@@3P6GHPAUtagCOMPRESSIONOPTS@@@ZA" PURGE="-1" COMMENT="" />
    <EXPORT ORDINAL="2420" NAME="?pL_MMGetCurrentPos@@3P6GHPAUtagMEDIAHANDLE@@PAJ@ZA" PURGE="-1" COMMENT="" />
    <EXPORT ORDINAL="2421" NAME="?pL_MMGetRate@@3P6GHPAUtagMEDIAHANDLE@@PAN@ZA" PURGE="-1" COMMENT="" />
    <EXPORT ORDINAL="2422" NAME="?pL_MMGetStreamType@@3P6GHPAUtagMEDIAHANDLE@@HPAI@ZA" PURGE="-1" COMMENT="" />
    <EXPORT ORDINAL="2423" NAME="?pL_MMGetTimeFormat@@3P6GHPAUtagMEDIAHANDLE@@PAH@ZA" PURGE="-1" COMMENT="" />
    <EXPORT ORDINAL="2424" NAME="?pL_MMGetVolume@@3P6GHPAUtagMEDIAHANDLE@@PAH@ZA" PURGE="-1" COMMENT="" />
    <EXPORT ORDINAL="2425" NAME="?pL_MMInit@@3P6GHPAUtagMEDIAHANDLE@@@ZA" PURGE="-1" COMMENT="" />
    <EXPORT ORDINAL="2426" NAME="?pL_MMInsertFrame@@3P6GHPAUtagMEDIAHANDLE@@JPAUstruct_LEAD_Bitmap@@@ZA" PURGE="-1" COMMENT="" />
    <EXPORT ORDINAL="2427" NAME="?pL_MMIsClipboardReady@@3P6GHXZA" PURGE="-1" COMMENT="" />
    <EXPORT ORDINAL="2428" NAME="?pL_MMIsPlaying@@3P6GIPAUtagMEDIAHANDLE@@@ZA" PURGE="-1" COMMENT="" />
    <EXPORT ORDINAL="2429" NAME="?pL_MMLoad@@3P6GHPADPAUtagMEDIAHANDLE@@H@ZA" PURGE="-1" COMMENT="" />
    <EXPORT ORDINAL="2430" NAME="?pL_MMLoadMemory@@3P6GHPADPAUtagMEDIAHANDLE@@J@ZA" PURGE="-1" COMMENT="" />
    <EXPORT ORDINAL="2431" NAME="?pL_MMMarkClip@@3P6GHPAUtagMEDIAHANDLE@@JJ@ZA" PURGE="-1" COMMENT="" />
    <EXPORT ORDINAL="2432" NAME="?pL_MMPasteFrames@@3P6GHPAUtagMEDIAHANDLE@@JJK@ZA" PURGE="-1" COMMENT="" />
    <EXPORT ORDINAL="2433" NAME="?pL_MMPause@@3P6GHPAUtagMEDIAHANDLE@@@ZA" PURGE="-1" COMMENT="" />
    <EXPORT ORDINAL="2434" NAME="?pL_MMPlay@@3P6GHPAUtagMEDIAHANDLE@@PAD@ZA" PURGE="-1" COMMENT="" />
    <EXPORT ORDINAL="2435" NAME="?pL_MMReplaceFrame@@3P6GHPAUtagMEDIAHANDLE@@JPAUstruct_LEAD_Bitmap@@@ZA" PURGE="-1" COMMENT="" />
    <EXPORT ORDINAL="2436" NAME="?pL_MMResume@@3P6GHPAUtagMEDIAHANDLE@@@ZA" PURGE="-1" COMMENT="" />
    <EXPORT ORDINAL="2437" NAME="?pL_MMSaveFile@@3P6GHPADPAUtagMEDIAHANDLE@@H00@ZA" PURGE="-1" COMMENT="" />
    <EXPORT ORDINAL="2438" NAME="?pL_MMSetActive@@3P6GHPAUtagMEDIAHANDLE@@H@ZA" PURGE="-1" COMMENT="" />
    <EXPORT ORDINAL="2439" NAME="?pL_MMSetBalance@@3P6GHPAUtagMEDIAHANDLE@@H@ZA" PURGE="-1" COMMENT="" />
    <EXPORT ORDINAL="2440" NAME="?pL_MMSetCompressionOpts@@3P6GHPAUtagCOMPRESSIONOPTS@@@ZA" PURGE="-1" COMMENT="" />
    <EXPORT ORDINAL="2441" NAME="?pL_MMSetCurrentPos@@3P6GHPAUtagMEDIAHANDLE@@J@ZA" PURGE="-1" COMMENT="" />
    <EXPORT ORDINAL="2442" NAME="?pL_MMSetDstRect@@3P6GHPAUtagMEDIAHANDLE@@HHHH@ZA" PURGE="-1" COMMENT="" />
    <EXPORT ORDINAL="2443" NAME="?pL_MMSetEventCallback@@3P6GHP6AXPAUtagMEDIAHANDLE@@HPAX@Z1@ZA" PURGE="-1" COMMENT="" />
    <EXPORT ORDINAL="2444" NAME="?pL_MMSetMessageWin@@3P6GHPAUtagMEDIAHANDLE@@PAUHWND__@@@ZA" PURGE="-1" COMMENT="" />
    <EXPORT ORDINAL="2445" NAME="?pL_MMSetParentWin@@3P6GHPAUtagMEDIAHANDLE@@PAUHWND__@@@ZA" PURGE="-1" COMMENT="" />
    <EXPORT ORDINAL="2446" NAME="?pL_MMSetPlayExt@@3P6GHPAUtagMEDIAHANDLE@@PAUHWND__@@HHHHK@ZA" PURGE="-1" COMMENT="" />
    <EXPORT ORDINAL="2447" NAME="?pL_MMSetRate@@3P6GHPAUtagMEDIAHANDLE@@N@ZA" PURGE="-1" COMMENT="" />
    <EXPORT ORDINAL="2448" NAME="?pL_MMSetSrcRect@@3P6GHPAUtagMEDIAHANDLE@@HHHH@ZA" PURGE="-1" COMMENT="" />
    <EXPORT ORDINAL="2449" NAME="?pL_MMSetTimeFormat@@3P6GHPAUtagMEDIAHANDLE@@H@ZA" PURGE="-1" COMMENT="" />
    <EXPORT ORDINAL="2450" NAME="?pL_MMSetVolume@@3P6GHPAUtagMEDIAHANDLE@@H@ZA" PURGE="-1" COMMENT="" />
    <EXPORT ORDINAL="2451" NAME="?pL_MMSetWinVisible@@3P6GHPAUtagMEDIAHANDLE@@I@ZA" PURGE="-1" COMMENT="" />
    <EXPORT ORDINAL="2452" NAME="?pL_MMStartRecord@@3P6GHPADPAUtagMEDIAHANDLE@@HH@ZA" PURGE="-1" COMMENT="" />
    <EXPORT ORDINAL="2453" NAME="?pL_MMStop@@3P6GHPAUtagMEDIAHANDLE@@@ZA" PURGE="-1" COMMENT="" />
    <EXPORT ORDINAL="2454" NAME="?pL_MMStopRecord@@3P6GHXZA" PURGE="-1" COMMENT="" />
    <EXPORT ORDINAL="2455" NAME="?pL_MaxFilterBitmap@@3P6GHPAUstruct_LEAD_Bitmap@@I@ZA" PURGE="-1" COMMENT="" />
    <EXPORT ORDINAL="2456" NAME="?pL_MedianFilterBitmap@@3P6GHPAUstruct_LEAD_Bitmap@@I@ZA" PURGE="-1" COMMENT="" />
    <EXPORT ORDINAL="2457" NAME="?pL_MinFilterBitmap@@3P6GHPAUstruct_LEAD_Bitmap@@I@ZA" PURGE="-1" COMMENT="" />
    <EXPORT ORDINAL="2458" NAME="?pL_MosaicBitmap@@3P6GHPAUstruct_LEAD_Bitmap@@I@ZA" PURGE="-1" COMMENT="" />
    <EXPORT ORDINAL="2459" NAME="?pL_OffsetBitmapRgn@@3P6GHPAUstruct_LEAD_Bitmap@@HH@ZA" PURGE="-1" COMMENT="" />
    <EXPORT ORDINAL="2460" NAME="?pL_OilifyBitmap@@3P6GHPAUstruct_LEAD_Bitmap@@I@ZA" PURGE="-1" COMMENT="" />
    <EXPORT ORDINAL="2461" NAME="?pL_PaintDC@@3P6GHPAUHDC__@@PAUstruct_LEAD_Bitmap@@PAUtagRECT@@222K@ZA" PURGE="-1" COMMENT="" />
    <EXPORT ORDINAL="2462" NAME="?pL_PaintDCBuffer@@3P6GHPAUHDC__@@PAUstruct_LEAD_Bitmap@@PAUtagRECT@@222KPAEHH@ZA" PURGE="-1" COMMENT="" />
    <EXPORT ORDINAL="2463" NAME="?pL_PaintDCEffect@@3P6GHPAUHDC__@@PAUstruct_LEAD_Bitmap@@PAUtagRECT@@222KI@ZA" PURGE="-1" COMMENT="" />
    <EXPORT ORDINAL="2464" NAME="?pL_PaintRgnDC@@3P6GHPAUHDC__@@PAUstruct_LEAD_Bitmap@@PAUtagRECT@@222K@ZA" PURGE="-1" COMMENT="" />
    <EXPORT ORDINAL="2465" NAME="?pL_PaintRgnDCBuffer@@3P6GHPAUHDC__@@PAUstruct_LEAD_Bitmap@@PAUtagRECT@@222KPAEHH@ZA" PURGE="-1" COMMENT="" />
    <EXPORT ORDINAL="2466" NAME="?pL_PaintRgnDCEffect@@3P6GHPAUHDC__@@PAUstruct_LEAD_Bitmap@@PAUtagRECT@@222KI@ZA" PURGE="-1" COMMENT="" />
    <EXPORT ORDINAL="2467" NAME="?pL_PicturizeBitmap@@3P6GHPAUstruct_LEAD_Bitmap@@PADIHHP6AH0HHPAX@Z2@ZA" PURGE="-1" COMMENT="" />
    <EXPORT ORDINAL="2468" NAME="?pL_PointFromBitmap@@3P6GHPAUstruct_LEAD_Bitmap@@HPAH1@ZA" PURGE="-1" COMMENT="" />
    <EXPORT ORDINAL="2469" NAME="?pL_PointToBitmap@@3P6GHPAUstruct_LEAD_Bitmap@@HPAH1@ZA" PURGE="-1" COMMENT="" />
    <EXPORT ORDINAL="2470" NAME="?pL_PosterizeBitmap@@3P6GHPAUstruct_LEAD_Bitmap@@I@ZA" PURGE="-1" COMMENT="" />
    <EXPORT ORDINAL="2471" NAME="?pL_PreLoadFilters@@3P6GHHHPAD@ZA" PURGE="-1" COMMENT="" />
    <EXPORT ORDINAL="2472" NAME="?pL_PrintBitmap@@3P6GPAUHDC__@@PAUstruct_LEAD_Bitmap@@HHHHI@ZA" PURGE="-1" COMMENT="" />
    <EXPORT ORDINAL="2473" NAME="?pL_PrintBitmapExt@@3P6GPAUHDC__@@PAU1@PAUstruct_LEAD_Bitmap@@HHHHI@ZA" PURGE="-1" COMMENT="" />
    <EXPORT ORDINAL="2474" NAME="?pL_PrintBitmapFast@@3P6GPAUHDC__@@PAU1@PAUstruct_LEAD_Bitmap@@HHHHI@ZA" PURGE="-1" COMMENT="" />
    <EXPORT ORDINAL="2475" NAME="?pL_ProcessPlayback@@3P6GHPAXPAI@ZA" PURGE="-1" COMMENT="" />
    <EXPORT ORDINAL="2476" NAME="?pL_PutBitmapColors@@3P6GHPAUstruct_LEAD_Bitmap@@HHPAUtagRGBQUAD@@@ZA" PURGE="-1" COMMENT="" />
    <EXPORT ORDINAL="2477" NAME="?pL_PutBitmapRow@@3P6GJPAUstruct_LEAD_Bitmap@@PAEHK@ZA" PURGE="-1" COMMENT="" />
    <EXPORT ORDINAL="2478" NAME="?pL_PutBitmapRowCol@@3P6GJPAUstruct_LEAD_Bitmap@@PAEHHK@ZA" PURGE="-1" COMMENT="" />
    <EXPORT ORDINAL="2479" NAME="?pL_PutBitmapRowColCompressed@@3P6GJPAUstruct_LEAD_Bitmap@@PAEPAGHHK@ZA" PURGE="-1" COMMENT="" />
    <EXPORT ORDINAL="2480" NAME="?pL_PutBitmapRowCompressed@@3P6GHPAUstruct_LEAD_Bitmap@@PAEPAGII@ZA" PURGE="-1" COMMENT="" />
    <EXPORT ORDINAL="2481" NAME="?pL_PutPixelColor@@3P6GHPAUstruct_LEAD_Bitmap@@HHK@ZA" PURGE="-1" COMMENT="" />
    <EXPORT ORDINAL="2482" NAME="?pL_ReadFileComment@@3P6GHPADIPAEI@ZA" PURGE="-1" COMMENT="" />
    <EXPORT ORDINAL="2483" NAME="?pL_ReadFileCommentExt@@3P6GHPADIPAU_FILECOMMENTS@@PAEPAI@ZA" PURGE="-1" COMMENT="" />
    <EXPORT ORDINAL="2484" NAME="?pL_ReadFileCommentMemory@@3P6GHPADIPAEIJ@ZA" PURGE="-1" COMMENT="" />
    <EXPORT ORDINAL="2485" NAME="?pL_ReadFileStamp@@3P6GHPADPAUstruct_LEAD_Bitmap@@@ZA" PURGE="-1" COMMENT="" />
    <EXPORT ORDINAL="2486" NAME="?pL_ReadFileTag@@3P6GJPADGPAGPAKPAX@ZA" PURGE="-1" COMMENT="" />
    <EXPORT ORDINAL="2487" NAME="?pL_ReadFileTagMemory@@3P6GJPADGPAGPAKPAXJ@ZA" PURGE="-1" COMMENT="" />
    <EXPORT ORDINAL="2488" NAME="?pL_ReadFileTransforms@@3P6GHPADPAU_FILETRANSFORMS@@@ZA" PURGE="-1" COMMENT="" />
    <EXPORT ORDINAL="2489" NAME="?pL_RectFromBitmap@@3P6GHPAUstruct_LEAD_Bitmap@@HPAUtagRECT@@@ZA" PURGE="-1" COMMENT="" />
    <EXPORT ORDINAL="2490" NAME="?pL_RectToBitmap@@3P6GHPAUstruct_LEAD_Bitmap@@HPAUtagRECT@@@ZA" PURGE="-1" COMMENT="" />
    <EXPORT ORDINAL="2491" NAME="?pL_RedirectIO@@3P6GXP6AHPADHH@ZP6AIH0H@Z2P6AJHJH@ZP6AHH@Z@ZA" PURGE="-1" COMMENT="" />
    <EXPORT ORDINAL="2492" NAME="?pL_ReleaseBitmap@@3P6GXPAUstruct_LEAD_Bitmap@@@ZA" PURGE="-1" COMMENT="" />
    <EXPORT ORDINAL="2493" NAME="?pL_RemapBitmapIntensity@@3P6GHPAUstruct_LEAD_Bitmap@@PAEI@ZA" PURGE="-1" COMMENT="" />
    <EXPORT ORDINAL="2494" NAME="?pL_RemoveBitmapListItem@@3P6GHPAXIPAUstruct_LEAD_Bitmap@@@ZA" PURGE="-1" COMMENT="" />
    <EXPORT ORDINAL="2495" NAME="?pL_ResampleBitmap@@3P6GHPAUstruct_LEAD_Bitmap@@HH@ZA" PURGE="-1" COMMENT="" />
    <EXPORT ORDINAL="2496" NAME="?pL_Resize@@3P6GHPAEHHPAH1PAX@ZA" PURGE="-1" COMMENT="" />
    <EXPORT ORDINAL="2497" NAME="?pL_ResizeBitmap@@3P6GHPAUstruct_LEAD_Bitmap@@0@ZA" PURGE="-1" COMMENT="" />
    <EXPORT ORDINAL="2498" NAME="?pL_ReverseBitmap@@3P6GHPAUstruct_LEAD_Bitmap@@@ZA" PURGE="-1" COMMENT="" />
    <EXPORT ORDINAL="2499" NAME="?pL_RotateBitmap@@3P6GHPAUstruct_LEAD_Bitmap@@HI@ZA" PURGE="-1" COMMENT="" />
    <EXPORT ORDINAL="2500" NAME="?pL_RotateBitmapFine@@3P6GHPAUstruct_LEAD_Bitmap@@JIK@ZA" PURGE="-1" COMMENT="" />
    <EXPORT ORDINAL="2501" NAME="?pL_RotateBitmapViewPerspective@@3P6GHPAUstruct_LEAD_Bitmap@@H@ZA" PURGE="-1" COMMENT="" />
    <EXPORT ORDINAL="2502" NAME="?pL_SaveBitmap@@3P6GHPADPAUstruct_LEAD_Bitmap@@HHH@ZA" PURGE="-1" COMMENT="" />
    <EXPORT ORDINAL="2503" NAME="?pL_SaveBitmapList@@3P6GHPADPAXHHH@ZA" PURGE="-1" COMMENT="" />
    <EXPORT ORDINAL="2504" NAME="?pL_SaveBitmapMemory@@3P6GHPAPAXPAUstruct_LEAD_Bitmap@@HHHPAK@ZA" PURGE="-1" COMMENT="" />
    <EXPORT ORDINAL="2505" NAME="?pL_SaveFile@@3P6GHPADPAUstruct_LEAD_Bitmap@@HHHIP6AH1PAEIIPAX@Z3@ZA" PURGE="-1" COMMENT="" />
    <EXPORT ORDINAL="2506" NAME="?pL_SaveFileOffset@@3P6GHHJPAJPAUstruct_LEAD_Bitmap@@HHHIP6AH1PAEIIPAX@Z3@ZA" PURGE="-1" COMMENT="" />
    <EXPORT ORDINAL="2507" NAME="?pL_SaveFileTile@@3P6GHPADPAUstruct_LEAD_Bitmap@@HHP6AH1PAEIIPAX@Z3@ZA" PURGE="-1" COMMENT="" />
    <EXPORT ORDINAL="2508" NAME="?pL_ScreenCaptureBitmap@@3P6GHPAUHDC__@@PAUstruct_LEAD_Bitmap@@PAUtagRECT@@@ZA" PURGE="-1" COMMENT="" />
    <EXPORT ORDINAL="2509" NAME="?pL_SetBitmapAlpha@@3P6GHPAUstruct_LEAD_Bitmap@@0@ZA" PURGE="-1" COMMENT="" />
    <EXPORT ORDINAL="2510" NAME="?pL_SetBitmapListItem@@3P6GHPAXIPAUstruct_LEAD_Bitmap@@@ZA" PURGE="-1" COMMENT="" />
    <EXPORT ORDINAL="2511" NAME="?pL_SetBitmapRgnColor@@3P6GHPAUstruct_LEAD_Bitmap@@KI@ZA" PURGE="-1" COMMENT="" />
    <EXPORT ORDINAL="2512" NAME="?pL_SetBitmapRgnEllipse@@3P6GHPAUstruct_LEAD_Bitmap@@PAU_RGNXFORM@@PAUtagRECT@@I@ZA" PURGE="-1" COMMENT="" />
    <EXPORT ORDINAL="2513" NAME="?pL_SetBitmapRgnFromMask@@3P6GHPAUstruct_LEAD_Bitmap@@PAU_RGNXFORM@@0I@ZA" PURGE="-1" COMMENT="" />
    <EXPORT ORDINAL="2514" NAME="?pL_SetBitmapRgnHandle@@3P6GHPAUstruct_LEAD_Bitmap@@PAU_RGNXFORM@@PAUHRGN__@@I@ZA" PURGE="-1" COMMENT="" />
    <EXPORT ORDINAL="2515" NAME="?pL_SetBitmapRgnPolygon@@3P6GHPAUstruct_LEAD_Bitmap@@PAU_RGNXFORM@@PAUtagPOINT@@III@ZA" PURGE="-1" COMMENT="" />
    <EXPORT ORDINAL="2516" NAME="?pL_SetBitmapRgnRect@@3P6GHPAUstruct_LEAD_Bitmap@@PAU_RGNXFORM@@PAUtagRECT@@I@ZA" PURGE="-1" COMMENT="" />
    <EXPORT ORDINAL="2517" NAME="?pL_SetBitmapRgnRoundRect@@3P6GHPAUstruct_LEAD_Bitmap@@PAU_RGNXFORM@@PAUtagRECT@@HHI@ZA" PURGE="-1" COMMENT="" />
    <EXPORT ORDINAL="2518" NAME="?pL_SetCaptureOption@@3P6GHPAUtagLEADCAPTUREOPTION@@@ZA" PURGE="-1" COMMENT="" />
    <EXPORT ORDINAL="2519" NAME="?pL_SetCaptureOptionDlg@@3P6GHPAUHWND__@@PAUtagLEADCAPTUREOPTION@@@ZA" PURGE="-1" COMMENT="" />
    <EXPORT ORDINAL="2520" NAME="?pL_SetComment@@3P6GHIPAEI@ZA" PURGE="-1" COMMENT="" />
    <EXPORT ORDINAL="2521" NAME="?pL_SetDimension@@3P6GHHKK@ZA" PURGE="-1" COMMENT="" />
    <EXPORT ORDINAL="2522" NAME="?pL_SetDisplayMode@@3P6GKKK@ZA" PURGE="-1" COMMENT="" />
    <EXPORT ORDINAL="2523" NAME="?pL_SetExtFileOption@@3P6GHPAU_EXTFILEOPTION@@@ZA" PURGE="-1" COMMENT="" />
    <EXPORT ORDINAL="2524" NAME="?pL_SetHotKeyCallback@@3P6GHHIP6AHHIPAX@Z0@ZA" PURGE="-1" COMMENT="" />
    <EXPORT ORDINAL="2525" NAME="?pL_SetLoadInfoCallback@@3P6GP6AHHPAU_LOADINFO@@@ZP6AHH0@Z@ZA" PURGE="-1" COMMENT="" />
    <EXPORT ORDINAL="2526" NAME="?pL_SetPCDResolution@@3P6GHH@ZA" PURGE="-1" COMMENT="" />
    <EXPORT ORDINAL="2527" NAME="?pL_SetPaintContrast@@3P6GHH@ZA" PURGE="-1" COMMENT="" />
    <EXPORT ORDINAL="2528" NAME="?pL_SetPaintGamma@@3P6GHI@ZA" PURGE="-1" COMMENT="" />
    <EXPORT ORDINAL="2529" NAME="?pL_SetPaintIntensity@@3P6GHH@ZA" PURGE="-1" COMMENT="" />
    <EXPORT ORDINAL="2530" NAME="?pL_SetPlaybackIndex@@3P6GHPAXH@ZA" PURGE="-1" COMMENT="" />
    <EXPORT ORDINAL="2531" NAME="?pL_SetSaveResolution@@3P6GHIPAU_DIMENSION@@@ZA" PURGE="-1" COMMENT="" />
    <EXPORT ORDINAL="2532" NAME="?pL_SetStatusCallBack@@3P6GP6AHH@ZP6AHH@Z@ZA" PURGE="-1" COMMENT="" />
    <EXPORT ORDINAL="2533" NAME="?pL_SetTag@@3P6GHGGKPAX@ZA" PURGE="-1" COMMENT="" />
    <EXPORT ORDINAL="2534" NAME="?pL_SetUserMatchTable@@3P6GPAIPAI@ZA" PURGE="-1" COMMENT="" />
    <EXPORT ORDINAL="2535" NAME="?pL_SetWMFResolution@@3P6GHH@ZA" PURGE="-1" COMMENT="" />
    <EXPORT ORDINAL="2536" NAME="?pL_SharpenBitmap@@3P6GHPAUstruct_LEAD_Bitmap@@H@ZA" PURGE="-1" COMMENT="" />
    <EXPORT ORDINAL="2537" NAME="?pL_ShearBitmap@@3P6GHPAUstruct_LEAD_Bitmap@@HIK@ZA" PURGE="-1" COMMENT="" />
    <EXPORT ORDINAL="2538" NAME="?pL_SizeBitmap@@3P6GHPAUstruct_LEAD_Bitmap@@HHK@ZA" PURGE="-1" COMMENT="" />
    <EXPORT ORDINAL="2539" NAME="?pL_SolarizeBitmap@@3P6GHPAUstruct_LEAD_Bitmap@@I@ZA" PURGE="-1" COMMENT="" />
    <EXPORT ORDINAL="2540" NAME="?pL_SpatialFilterBitmap@@3P6GHPAUstruct_LEAD_Bitmap@@PAUtagSPATIALFLT@@@ZA" PURGE="-1" COMMENT="" />
    <EXPORT ORDINAL="2541" NAME="?pL_StartCompressBuffer@@3P6GHPAUstruct_LEAD_Bitmap@@P6AH0PAEIPAX@ZKIPADHH2@ZA" PURGE="-1" COMMENT="" />
    <EXPORT ORDINAL="2542" NAME="?pL_StartDithering@@3P6GHPAUstruct_LEAD_Bitmap@@PAUtagRGBQUAD@@I@ZA" PURGE="-1" COMMENT="" />
    <EXPORT ORDINAL="2543" NAME="?pL_StartFeedLoad@@3P6GHPAUstruct_LEAD_Bitmap@@HHIP6AHPAUstruct_file_information@@0PAEIHHPAX@Z3PAPAX@ZA" PURGE="-1" COMMENT="" />
    <EXPORT ORDINAL="2544" NAME="?pL_StartResize@@3P6GHHHHHPAPAX@ZA" PURGE="-1" COMMENT="" />
    <EXPORT ORDINAL="2545" NAME="?pL_StopCapture@@3P6GHXZA" PURGE="-1" COMMENT="" />
    <EXPORT ORDINAL="2546" NAME="?pL_StopDithering@@3P6GHPAUstruct_LEAD_Bitmap@@@ZA" PURGE="-1" COMMENT="" />
    <EXPORT ORDINAL="2547" NAME="?pL_StopFeedLoad@@3P6GHPAX@ZA" PURGE="-1" COMMENT="" />
    <EXPORT ORDINAL="2548" NAME="?pL_StopResize@@3P6GHPAX@ZA" PURGE="-1" COMMENT="" />
    <EXPORT ORDINAL="2549" NAME="?pL_StretchBitmapIntensity@@3P6GHPAUstruct_LEAD_Bitmap@@@ZA" PURGE="-1" COMMENT="" />
    <EXPORT ORDINAL="2550" NAME="?pL_TranslateBitmapColor@@3P6GKPAUstruct_LEAD_Bitmap@@0K@ZA" PURGE="-1" COMMENT="" />
    <EXPORT ORDINAL="2551" NAME="?pL_TrimBitmap@@3P6GHPAUstruct_LEAD_Bitmap@@HHII@ZA" PURGE="-1" COMMENT="" />
    <EXPORT ORDINAL="2552" NAME="?pL_TwainAcquire@@3P6GHPAUHWND__@@PAUstruct_LEAD_Bitmap@@@ZA" PURGE="-1" COMMENT="" />
    <EXPORT ORDINAL="2553" NAME="?pL_TwainAcquireExt@@3P6GHPAUHWND__@@PAUstruct_LEAD_Bitmap@@IP6AH1PAX@Z2@ZA" PURGE="-1" COMMENT="" />
    <EXPORT ORDINAL="2554" NAME="?pL_TwainCloseSession@@3P6GHPAUHWND__@@@ZA" PURGE="-1" COMMENT="" />
    <EXPORT ORDINAL="2555" NAME="?pL_TwainEnumSources@@3P6GHPAUHWND__@@P6AHPAEHPAX@Z2@ZA" PURGE="-1" COMMENT="" />
    <EXPORT ORDINAL="2556" NAME="?pL_TwainGetProps@@3P6GHPAUstruct_twain_properties@@@ZA" PURGE="-1" COMMENT="" />
    <EXPORT ORDINAL="2557" NAME="?pL_TwainSelect@@3P6GHPAUHWND__@@@ZA" PURGE="-1" COMMENT="" />
    <EXPORT ORDINAL="2558" NAME="?pL_TwainSetProps@@3P6GHPAUHWND__@@PAUstruct_twain_properties@@K@ZA" PURGE="-1" COMMENT="" />
    <EXPORT ORDINAL="2559" NAME="?pL_UnderlayBitmap@@3P6GHPAUstruct_LEAD_Bitmap@@0I@ZA" PURGE="-1" COMMENT="" />
    <EXPORT ORDINAL="2560" NAME="?pL_UnlockSupport@@3P6GXIPAD@ZA" PURGE="-1" COMMENT="" />
    <EXPORT ORDINAL="2561" NAME="?pL_UpdatePanWindow@@3P6GHPAUHWND__@@PAUstruct_LEAD_Bitmap@@KKPBDPAUtagRECT@@@ZA" PURGE="-1" COMMENT="" />
    <EXPORT ORDINAL="2562" NAME="?pL_ValidatePlaybackLines@@3P6GHPAXHH@ZA" PURGE="-1" COMMENT="" />
    <EXPORT ORDINAL="2563" NAME="?pL_VersionInfo@@3P6GHPAUstruct_version_information@@@ZA" PURGE="-1" COMMENT="" />
    <EXPORT ORDINAL="2564" NAME="?pL_WindowLevel@@3P6GHPAUstruct_LEAD_Bitmap@@HHPAUtagRGBQUAD@@KI@ZA" PURGE="-1" COMMENT="" />
    <EXPORT ORDINAL="2565" NAME="?pL_WindowLevelBitmap@@3P6GHPAUstruct_LEAD_Bitmap@@HHPAUtagRGBQUAD@@KH@ZA" PURGE="-1" COMMENT="" />
    <EXPORT ORDINAL="2566" NAME="?pL_WriteFileCommentExt@@3P6GHPADIPAU_FILECOMMENTS@@@ZA" PURGE="-1" COMMENT="" />
    <EXPORT ORDINAL="2567" NAME="?pL_WriteFileStamp@@3P6GHPADPAUstruct_LEAD_Bitmap@@@ZA" PURGE="-1" COMMENT="" />
    <EXPORT ORDINAL="2568" NAME="?pL_WriteFileTransforms@@3P6GHPADPAU_FILETRANSFORMS@@H@ZA" PURGE="-1" COMMENT="" />
</LIBRARY>

