<?xml version="1.0" encoding="UTF-8"?>
<LIBRARY NAME="lxbfutil.dll" PATH="/DLLArchive/etc/LXBFUTIL.DLL" DATE="Fri Jul 03 12:49:09 PDT 2020" VERSION="1.0.12.0">
    <EXPORT ORDINAL="1" NAME="Get32CountryLanguage" PURGE="0" COMMENT="" />
    <EXPORT ORDINAL="2" NAME="LxkMessageBox" PURGE="0" COMMENT="" />
    <EXPORT ORDINAL="3" NAME="IsDeviceInstallInProgress" PURGE="0" COMMENT="" />
    <EXPORT ORDINAL="4" NAME="SetUserDefinedData" PURGE="0" COMMENT="" />
    <EXPORT ORDINAL="5" NAME="FindDlgWindow" PURGE="0" COMMENT="" />
    <EXPORT ORDINAL="6" NAME="??0CBitmapProgressCtrl@@QAE@XZ" PURGE="0" COMMENT="" />
    <EXPORT ORDINAL="7" NAME="??0CCaptionBar@@QAE@XZ" PURGE="0" COMMENT="" />
    <EXPORT ORDINAL="8" NAME="??0CColourPicker@@QAE@XZ" PURGE="0" COMMENT="" />
    <EXPORT ORDINAL="9" NAME="??0CColourPopup@@QAE@VCPoint@@KPAVCWnd@@PBD2@Z" PURGE="24" COMMENT="" />
    <EXPORT ORDINAL="10" NAME="??0CColourPopup@@QAE@XZ" PURGE="0" COMMENT="" />
    <EXPORT ORDINAL="11" NAME="??0CDirTreeCtrl@@QAE@XZ" PURGE="0" COMMENT="" />
    <EXPORT ORDINAL="12" NAME="??0CGUIButton@@QAE@XZ" PURGE="0" COMMENT="" />
    <EXPORT ORDINAL="13" NAME="??0CGUIDIB@@QAE@XZ" PURGE="0" COMMENT="" />
    <EXPORT ORDINAL="14" NAME="??0CGUIExpandWnd@@QAE@IPAVCWnd@@@Z" PURGE="8" COMMENT="" />
    <EXPORT ORDINAL="15" NAME="??0CGUIExpandWnd@@QAE@XZ" PURGE="0" COMMENT="" />
    <EXPORT ORDINAL="16" NAME="??0CGUIExpandWndControl@@QAE@XZ" PURGE="0" COMMENT="" />
    <EXPORT ORDINAL="17" NAME="??0CGUIFont@@QAE@XZ" PURGE="0" COMMENT="" />
    <EXPORT ORDINAL="18" NAME="??0CGUIHelpLink@@QAE@XZ" PURGE="0" COMMENT="" />
    <EXPORT ORDINAL="19" NAME="??0CGUIInkDisplay@@QAE@XZ" PURGE="0" COMMENT="" />
    <EXPORT ORDINAL="20" NAME="??0CGUIInkTank@@QAE@H@Z" PURGE="4" COMMENT="" />
    <EXPORT ORDINAL="21" NAME="??0CGUIInkTank@@QAE@XZ" PURGE="0" COMMENT="" />
    <EXPORT ORDINAL="22" NAME="??0CGUILink@@QAE@XZ" PURGE="0" COMMENT="" />
    <EXPORT ORDINAL="23" NAME="??0CGUIUrlLink@@QAE@XZ" PURGE="0" COMMENT="" />
    <EXPORT ORDINAL="24" NAME="??0CGUIWizardLink@@QAE@XZ" PURGE="0" COMMENT="" />
    <EXPORT ORDINAL="25" NAME="??0CHelpLink@@QAE@XZ" PURGE="0" COMMENT="" />
    <EXPORT ORDINAL="26" NAME="??0CLPAButton@@QAE@XZ" PURGE="0" COMMENT="" />
    <EXPORT ORDINAL="27" NAME="??0CLXFolderDialog@@QAE@PBD0PAVCWnd@@I@Z" PURGE="16" COMMENT="" />
    <EXPORT ORDINAL="28" NAME="??0CLXShell32Ext@@QAE@XZ" PURGE="0" COMMENT="" />
    <EXPORT ORDINAL="29" NAME="??0CLXTreeCtrl@@QAE@XZ" PURGE="0" COMMENT="" />
    <EXPORT ORDINAL="30" NAME="??0CLink@@QAE@XZ" PURGE="0" COMMENT="" />
    <EXPORT ORDINAL="31" NAME="??0CLpaTip@@QAE@XZ" PURGE="0" COMMENT="" />
    <EXPORT ORDINAL="32" NAME="??0CMemDC@@QAE@PAVCDC@@@Z" PURGE="4" COMMENT="" />
    <EXPORT ORDINAL="33" NAME="??0CMemDC@@QAE@PAVCDC@@ABVCRect@@@Z" PURGE="8" COMMENT="" />
    <EXPORT ORDINAL="34" NAME="??0CMenuButton@@QAE@XZ" PURGE="0" COMMENT="" />
    <EXPORT ORDINAL="35" NAME="??0COwnButton@@QAE@XZ" PURGE="0" COMMENT="" />
    <EXPORT ORDINAL="36" NAME="??0CPalette256@@QAE@XZ" PURGE="0" COMMENT="" />
    <EXPORT ORDINAL="37" NAME="??0CProgressPercentageCtrl@@QAE@XZ" PURGE="0" COMMENT="" />
    <EXPORT ORDINAL="38" NAME="??0CRegistry@@QAE@ABV0@@Z" PURGE="4" COMMENT="" />
    <EXPORT ORDINAL="39" NAME="??0CRegistry@@QAE@PAUHKEY__@@PBDKK@Z" PURGE="16" COMMENT="" />
    <EXPORT ORDINAL="40" NAME="??0CRegistry@@QAE@XZ" PURGE="0" COMMENT="" />
    <EXPORT ORDINAL="41" NAME="??0CSpy@@QAE@XZ" PURGE="0" COMMENT="" />
    <EXPORT ORDINAL="42" NAME="??0CTextProgressCtrl@@QAE@XZ" PURGE="0" COMMENT="" />
    <EXPORT ORDINAL="43" NAME="??0CTransStaticBmp@@QAE@XZ" PURGE="0" COMMENT="" />
    <EXPORT ORDINAL="44" NAME="??0CTransparentBmp@@QAE@XZ" PURGE="0" COMMENT="" />
    <EXPORT ORDINAL="45" NAME="??0CUrlLink@@QAE@XZ" PURGE="0" COMMENT="" />
    <EXPORT ORDINAL="46" NAME="??0CWizardLink@@QAE@XZ" PURGE="0" COMMENT="" />
    <EXPORT ORDINAL="47" NAME="??0CWizardSheet@@QAE@AAVCRect@@PAVCWnd@@@Z" PURGE="8" COMMENT="" />
    <EXPORT ORDINAL="48" NAME="??0CWizardSheet@@QAE@PAVCWnd@@@Z" PURGE="4" COMMENT="" />
    <EXPORT ORDINAL="49" NAME="??0Cstatbk@@QAE@XZ" PURGE="0" COMMENT="" />
    <EXPORT ORDINAL="50" NAME="??0InkDisplay@@QAE@XZ" PURGE="0" COMMENT="" />
    <EXPORT ORDINAL="51" NAME="??0InkTank@@QAE@H@Z" PURGE="4" COMMENT="" />
    <EXPORT ORDINAL="52" NAME="??0InkTank@@QAE@XZ" PURGE="0" COMMENT="" />
    <EXPORT ORDINAL="53" NAME="??0InsetWind@@QAE@XZ" PURGE="0" COMMENT="" />
    <EXPORT ORDINAL="54" NAME="??0JSWOptionsDlg@@QAE@XZ" PURGE="0" COMMENT="" />
    <EXPORT ORDINAL="55" NAME="??0LxkIniFile@@QAE@XZ" PURGE="0" COMMENT="" />
    <EXPORT ORDINAL="56" NAME="??0LxkProduct@@QAE@XZ" PURGE="0" COMMENT="" />
    <EXPORT ORDINAL="57" NAME="??0LxkToolTipCtrl@@QAE@XZ" PURGE="0" COMMENT="" />
    <EXPORT ORDINAL="58" NAME="??0PopupDialog@@QAE@PAVCWnd@@@Z" PURGE="4" COMMENT="" />
    <EXPORT ORDINAL="59" NAME="??0PopupWindow@@QAE@XZ" PURGE="0" COMMENT="" />
    <EXPORT ORDINAL="60" NAME="??0TransStaticEdit@@QAE@XZ" PURGE="0" COMMENT="" />
    <EXPORT ORDINAL="61" NAME="??0VersionDlg@@QAE@XZ" PURGE="0" COMMENT="" />
    <EXPORT ORDINAL="62" NAME="??0transbkstatic@@QAE@XZ" PURGE="0" COMMENT="" />
    <EXPORT ORDINAL="63" NAME="??1CBitmapProgressCtrl@@UAE@XZ" PURGE="0" COMMENT="" />
    <EXPORT ORDINAL="64" NAME="??1CCaptionBar@@UAE@XZ" PURGE="0" COMMENT="" />
    <EXPORT ORDINAL="65" NAME="??1CColourPicker@@UAE@XZ" PURGE="0" COMMENT="" />
    <EXPORT ORDINAL="66" NAME="??1CColourPopup@@UAE@XZ" PURGE="0" COMMENT="" />
    <EXPORT ORDINAL="67" NAME="??1CDirTreeCtrl@@UAE@XZ" PURGE="0" COMMENT="" />
    <EXPORT ORDINAL="68" NAME="??1CGUIButton@@UAE@XZ" PURGE="0" COMMENT="" />
    <EXPORT ORDINAL="69" NAME="??1CGUIDIB@@UAE@XZ" PURGE="0" COMMENT="" />
    <EXPORT ORDINAL="70" NAME="??1CGUIExpandWnd@@UAE@XZ" PURGE="0" COMMENT="" />
    <EXPORT ORDINAL="71" NAME="??1CGUIExpandWndControl@@UAE@XZ" PURGE="0" COMMENT="" />
    <EXPORT ORDINAL="72" NAME="??1CGUIFont@@UAE@XZ" PURGE="0" COMMENT="" />
    <EXPORT ORDINAL="73" NAME="??1CGUIHelpLink@@UAE@XZ" PURGE="0" COMMENT="" />
    <EXPORT ORDINAL="74" NAME="??1CGUIInkDisplay@@UAE@XZ" PURGE="0" COMMENT="" />
    <EXPORT ORDINAL="75" NAME="??1CGUIInkTank@@UAE@XZ" PURGE="0" COMMENT="" />
    <EXPORT ORDINAL="76" NAME="??1CGUILink@@UAE@XZ" PURGE="0" COMMENT="" />
    <EXPORT ORDINAL="77" NAME="??1CGUIUrlLink@@UAE@XZ" PURGE="0" COMMENT="" />
    <EXPORT ORDINAL="78" NAME="??1CGUIWizardLink@@UAE@XZ" PURGE="0" COMMENT="" />
    <EXPORT ORDINAL="79" NAME="??1CHelpLink@@UAE@XZ" PURGE="0" COMMENT="" />
    <EXPORT ORDINAL="80" NAME="??1CLPAButton@@UAE@XZ" PURGE="0" COMMENT="" />
    <EXPORT ORDINAL="81" NAME="??1CLXFolderDialog@@UAE@XZ" PURGE="-1" COMMENT="" />
    <EXPORT ORDINAL="82" NAME="??1CLXShell32Ext@@UAE@XZ" PURGE="0" COMMENT="" />
    <EXPORT ORDINAL="83" NAME="??1CLXTreeCtrl@@UAE@XZ" PURGE="-1" COMMENT="" />
    <EXPORT ORDINAL="84" NAME="??1CLink@@UAE@XZ" PURGE="0" COMMENT="" />
    <EXPORT ORDINAL="85" NAME="??1CLpaTip@@UAE@XZ" PURGE="0" COMMENT="" />
    <EXPORT ORDINAL="86" NAME="??1CMemDC@@UAE@XZ" PURGE="0" COMMENT="" />
    <EXPORT ORDINAL="87" NAME="??1CMenuButton@@UAE@XZ" PURGE="0" COMMENT="" />
    <EXPORT ORDINAL="88" NAME="??1COwnButton@@UAE@XZ" PURGE="0" COMMENT="" />
    <EXPORT ORDINAL="89" NAME="??1CPalette256@@UAE@XZ" PURGE="0" COMMENT="" />
    <EXPORT ORDINAL="90" NAME="??1CProgressPercentageCtrl@@UAE@XZ" PURGE="0" COMMENT="" />
    <EXPORT ORDINAL="91" NAME="??1CRegistry@@UAE@XZ" PURGE="0" COMMENT="" />
    <EXPORT ORDINAL="92" NAME="??1CSpy@@UAE@XZ" PURGE="0" COMMENT="" />
    <EXPORT ORDINAL="93" NAME="??1CTextProgressCtrl@@UAE@XZ" PURGE="0" COMMENT="" />
    <EXPORT ORDINAL="94" NAME="??1CTransStaticBmp@@UAE@XZ" PURGE="0" COMMENT="" />
    <EXPORT ORDINAL="95" NAME="??1CTransparentBmp@@UAE@XZ" PURGE="0" COMMENT="" />
    <EXPORT ORDINAL="96" NAME="??1CUrlLink@@UAE@XZ" PURGE="0" COMMENT="" />
    <EXPORT ORDINAL="97" NAME="??1CWizardLink@@UAE@XZ" PURGE="0" COMMENT="" />
    <EXPORT ORDINAL="98" NAME="??1CWizardSheet@@UAE@XZ" PURGE="-1" COMMENT="" />
    <EXPORT ORDINAL="99" NAME="??1Cstatbk@@UAE@XZ" PURGE="0" COMMENT="" />
    <EXPORT ORDINAL="100" NAME="??1InkDisplay@@UAE@XZ" PURGE="0" COMMENT="" />
    <EXPORT ORDINAL="101" NAME="??1InkTank@@UAE@XZ" PURGE="0" COMMENT="" />
    <EXPORT ORDINAL="102" NAME="??1InsetWind@@UAE@XZ" PURGE="0" COMMENT="" />
    <EXPORT ORDINAL="103" NAME="??1JSWOptionsDlg@@UAE@XZ" PURGE="0" COMMENT="" />
    <EXPORT ORDINAL="104" NAME="??1LxkIniFile@@UAE@XZ" PURGE="0" COMMENT="" />
    <EXPORT ORDINAL="105" NAME="??1LxkProduct@@UAE@XZ" PURGE="0" COMMENT="" />
    <EXPORT ORDINAL="106" NAME="??1LxkToolTipCtrl@@UAE@XZ" PURGE="-1" COMMENT="" />
    <EXPORT ORDINAL="107" NAME="??1PopupDialog@@UAE@XZ" PURGE="0" COMMENT="" />
    <EXPORT ORDINAL="108" NAME="??1PopupWindow@@UAE@XZ" PURGE="0" COMMENT="" />
    <EXPORT ORDINAL="109" NAME="??1TransStaticEdit@@UAE@XZ" PURGE="0" COMMENT="" />
    <EXPORT ORDINAL="110" NAME="??1VersionDlg@@UAE@XZ" PURGE="0" COMMENT="" />
    <EXPORT ORDINAL="111" NAME="??1transbkstatic@@UAE@XZ" PURGE="0" COMMENT="" />
    <EXPORT ORDINAL="112" NAME="??4CRegistry@@QAEAAV0@ABV0@@Z" PURGE="4" COMMENT="" />
    <EXPORT ORDINAL="113" NAME="??BCMemDC@@QAEPAV0@XZ" PURGE="0" COMMENT="" />
    <EXPORT ORDINAL="114" NAME="??CCMemDC@@QAEPAV0@XZ" PURGE="0" COMMENT="" />
    <EXPORT ORDINAL="115" NAME="??_7CBitmapProgressCtrl@@6B@" PURGE="-1" COMMENT="" />
    <EXPORT ORDINAL="116" NAME="??_7CCaptionBar@@6B@" PURGE="-1" COMMENT="" />
    <EXPORT ORDINAL="117" NAME="??_7CColourPicker@@6B@" PURGE="-1" COMMENT="" />
    <EXPORT ORDINAL="118" NAME="??_7CColourPopup@@6B@" PURGE="-1" COMMENT="" />
    <EXPORT ORDINAL="119" NAME="??_7CDirTreeCtrl@@6B@" PURGE="-1" COMMENT="" />
    <EXPORT ORDINAL="120" NAME="??_7CGUIButton@@6B@" PURGE="-1" COMMENT="" />
    <EXPORT ORDINAL="121" NAME="??_7CGUIDIB@@6B@" PURGE="-1" COMMENT="" />
    <EXPORT ORDINAL="122" NAME="??_7CGUIExpandWnd@@6B@" PURGE="-1" COMMENT="" />
    <EXPORT ORDINAL="123" NAME="??_7CGUIExpandWndControl@@6B@" PURGE="-1" COMMENT="" />
    <EXPORT ORDINAL="124" NAME="??_7CGUIFont@@6B@" PURGE="-1" COMMENT="" />
    <EXPORT ORDINAL="125" NAME="??_7CGUIHelpLink@@6B@" PURGE="-1" COMMENT="" />
    <EXPORT ORDINAL="126" NAME="??_7CGUIInkDisplay@@6B@" PURGE="-1" COMMENT="" />
    <EXPORT ORDINAL="127" NAME="??_7CGUIInkTank@@6B@" PURGE="-1" COMMENT="" />
    <EXPORT ORDINAL="128" NAME="??_7CGUILink@@6B@" PURGE="-1" COMMENT="" />
    <EXPORT ORDINAL="129" NAME="??_7CGUIUrlLink@@6B@" PURGE="-1" COMMENT="" />
    <EXPORT ORDINAL="130" NAME="??_7CGUIWizardLink@@6B@" PURGE="-1" COMMENT="" />
    <EXPORT ORDINAL="131" NAME="??_7CHelpLink@@6B@" PURGE="-1" COMMENT="" />
    <EXPORT ORDINAL="132" NAME="??_7CLPAButton@@6B@" PURGE="-1" COMMENT="" />
    <EXPORT ORDINAL="133" NAME="??_7CLXFolderDialog@@6B@" PURGE="-1" COMMENT="" />
    <EXPORT ORDINAL="134" NAME="??_7CLXShell32Ext@@6B@" PURGE="-1" COMMENT="" />
    <EXPORT ORDINAL="135" NAME="??_7CLXTreeCtrl@@6B@" PURGE="-1" COMMENT="" />
    <EXPORT ORDINAL="136" NAME="??_7CLink@@6B@" PURGE="-1" COMMENT="" />
    <EXPORT ORDINAL="137" NAME="??_7CLpaTip@@6B@" PURGE="-1" COMMENT="" />
    <EXPORT ORDINAL="138" NAME="??_7CMemDC@@6B@" PURGE="-1" COMMENT="" />
    <EXPORT ORDINAL="139" NAME="??_7CMenuButton@@6B@" PURGE="-1" COMMENT="" />
    <EXPORT ORDINAL="140" NAME="??_7COwnButton@@6B@" PURGE="-1" COMMENT="" />
    <EXPORT ORDINAL="141" NAME="??_7CPalette256@@6B@" PURGE="-1" COMMENT="" />
    <EXPORT ORDINAL="142" NAME="??_7CProgressPercentageCtrl@@6B@" PURGE="-1" COMMENT="" />
    <EXPORT ORDINAL="143" NAME="??_7CRegistry@@6B@" PURGE="-1" COMMENT="" />
    <EXPORT ORDINAL="144" NAME="??_7CSpy@@6B@" PURGE="-1" COMMENT="" />
    <EXPORT ORDINAL="145" NAME="??_7CTextProgressCtrl@@6B@" PURGE="-1" COMMENT="" />
    <EXPORT ORDINAL="146" NAME="??_7CTransStaticBmp@@6B@" PURGE="-1" COMMENT="" />
    <EXPORT ORDINAL="147" NAME="??_7CTransparentBmp@@6B@" PURGE="-1" COMMENT="" />
    <EXPORT ORDINAL="148" NAME="??_7CUrlLink@@6B@" PURGE="-1" COMMENT="" />
    <EXPORT ORDINAL="149" NAME="??_7CWizardLink@@6B@" PURGE="-1" COMMENT="" />
    <EXPORT ORDINAL="150" NAME="??_7CWizardSheet@@6B@" PURGE="-1" COMMENT="" />
    <EXPORT ORDINAL="151" NAME="??_7Cstatbk@@6B@" PURGE="-1" COMMENT="" />
    <EXPORT ORDINAL="152" NAME="??_7InkDisplay@@6B@" PURGE="-1" COMMENT="" />
    <EXPORT ORDINAL="153" NAME="??_7InkTank@@6B@" PURGE="-1" COMMENT="" />
    <EXPORT ORDINAL="154" NAME="??_7InsetWind@@6B@" PURGE="-1" COMMENT="" />
    <EXPORT ORDINAL="155" NAME="??_7JSWOptionsDlg@@6B@" PURGE="-1" COMMENT="" />
    <EXPORT ORDINAL="156" NAME="??_7LxkIniFile@@6B@" PURGE="-1" COMMENT="" />
    <EXPORT ORDINAL="157" NAME="??_7LxkProduct@@6B@" PURGE="-1" COMMENT="" />
    <EXPORT ORDINAL="158" NAME="??_7LxkToolTipCtrl@@6B@" PURGE="-1" COMMENT="" />
    <EXPORT ORDINAL="159" NAME="??_7PopupDialog@@6B@" PURGE="-1" COMMENT="" />
    <EXPORT ORDINAL="160" NAME="??_7PopupWindow@@6B@" PURGE="-1" COMMENT="" />
    <EXPORT ORDINAL="161" NAME="??_7TransStaticEdit@@6B@" PURGE="-1" COMMENT="" />
    <EXPORT ORDINAL="162" NAME="??_7VersionDlg@@6B@" PURGE="-1" COMMENT="" />
    <EXPORT ORDINAL="163" NAME="??_7transbkstatic@@6B@" PURGE="-1" COMMENT="" />
    <EXPORT ORDINAL="164" NAME="??_C@_00A@?$AA@" PURGE="-1" COMMENT="" />
    <EXPORT ORDINAL="165" NAME="??_FCLXFolderDialog@@QAEXXZ" PURGE="0" COMMENT="" />
    <EXPORT ORDINAL="166" NAME="??_FCWizardSheet@@QAEXXZ" PURGE="0" COMMENT="" />
    <EXPORT ORDINAL="167" NAME="??_FPopupDialog@@QAEXXZ" PURGE="0" COMMENT="" />
    <EXPORT ORDINAL="168" NAME="?AddItem@CDirTreeCtrl@@IAEPAU_TREEITEM@@PAU2@PBD@Z" PURGE="8" COMMENT="" />
    <EXPORT ORDINAL="169" NAME="?AddTimeStamp@CSpy@@IAEHXZ" PURGE="0" COMMENT="" />
    <EXPORT ORDINAL="170" NAME="?AddToBuffer@CSpy@@AAEHPAUALIGNINFO@@@Z" PURGE="4" COMMENT="" />
    <EXPORT ORDINAL="171" NAME="?AddToBuffer@CSpy@@AAEHPAUINKINFO@@@Z" PURGE="4" COMMENT="" />
    <EXPORT ORDINAL="172" NAME="?AddToBuffer@CSpy@@AAEHPAULCDEVMODE@@@Z" PURGE="4" COMMENT="" />
    <EXPORT ORDINAL="173" NAME="?AddToBuffer@CSpy@@AAEHPAUPORTINFO@@@Z" PURGE="4" COMMENT="" />
    <EXPORT ORDINAL="174" NAME="?AddToBuffer@CSpy@@AAEHPAUPRINTERPORTINFO@@@Z" PURGE="4" COMMENT="" />
    <EXPORT ORDINAL="175" NAME="?AddToBuffer@CSpy@@AAEHPAUSTATUSINFO@@@Z" PURGE="4" COMMENT="" />
    <EXPORT ORDINAL="176" NAME="?AddToBuffer@CSpy@@AAEHPAUSUBNETINFO@@@Z" PURGE="4" COMMENT="" />
    <EXPORT ORDINAL="177" NAME="?AddToBuffer@CSpy@@AAEHPAUUPDPROXYINFO@@@Z" PURGE="4" COMMENT="" />
    <EXPORT ORDINAL="178" NAME="?AddToBuffer@CSpy@@IAEHH@Z" PURGE="4" COMMENT="" />
    <EXPORT ORDINAL="179" NAME="?AddToBuffer@CSpy@@IAEHJ@Z" PURGE="4" COMMENT="" />
    <EXPORT ORDINAL="180" NAME="?AddToBuffer@CSpy@@IAEHK@Z" PURGE="4" COMMENT="" />
    <EXPORT ORDINAL="181" NAME="?AddToBuffer@CSpy@@IAEHM@Z" PURGE="4" COMMENT="" />
    <EXPORT ORDINAL="182" NAME="?AddToBuffer@CSpy@@IAEHPAEH@Z" PURGE="8" COMMENT="" />
    <EXPORT ORDINAL="183" NAME="?AddToBuffer@CSpy@@IAEHVCString@@@Z" PURGE="4" COMMENT="" />
    <EXPORT ORDINAL="184" NAME="?AddToBufferBase16@CSpy@@IAEHK@Z" PURGE="4" COMMENT="" />
    <EXPORT ORDINAL="185" NAME="?AddTool@LxkToolTipCtrl@@QAEHPAVCWnd@@IPBUtagRECT@@I@Z" PURGE="16" COMMENT="" />
    <EXPORT ORDINAL="186" NAME="?AddTool@LxkToolTipCtrl@@QAEHPAVCWnd@@PBDPBUtagRECT@@I@Z" PURGE="16" COMMENT="" />
    <EXPORT ORDINAL="187" NAME="?AllowParentMove@transbkstatic@@QAEXXZ" PURGE="0" COMMENT="" />
    <EXPORT ORDINAL="188" NAME="?AnyChangeBitSet@CGUIInkDisplay@@QAEHXZ" PURGE="0" COMMENT="" />
    <EXPORT ORDINAL="189" NAME="?AnyForceAlignSet@CGUIInkDisplay@@QAEHXZ" PURGE="0" COMMENT="" />
    <EXPORT ORDINAL="190" NAME="?AnyNoAlignSet@CGUIInkDisplay@@QAEHXZ" PURGE="0" COMMENT="" />
    <EXPORT ORDINAL="191" NAME="?AnyOptionalAlignSet@CGUIInkDisplay@@QAEHXZ" PURGE="0" COMMENT="" />
    <EXPORT ORDINAL="192" NAME="?AppendBMP@CGUIDIB@@QAEPAUHBITMAP__@@PAVCDC@@PAVCBitmap@@1@Z" PURGE="12" COMMENT="" />
    <EXPORT ORDINAL="193" NAME="?ApplySelectionAreaToBmp@CGUIDIB@@QAEXHHHH@Z" PURGE="16" COMMENT="" />
    <EXPORT ORDINAL="194" NAME="?AreAnyKCM@CGUIInkDisplay@@QAEHW4CartIDType@1@@Z" PURGE="4" COMMENT="" />
    <EXPORT ORDINAL="195" NAME="?AreAnyMissing@CGUIInkDisplay@@QAEHW4CartIDType@1@@Z" PURGE="4" COMMENT="" />
    <EXPORT ORDINAL="196" NAME="?AreTheySwapped@CGUIInkDisplay@@QAEHW4CartIDType@1@@Z" PURGE="4" COMMENT="" />
    <EXPORT ORDINAL="197" NAME="?BitmapToRegion@CTransparentBmp@@QAEPAUHRGN__@@PAUHBITMAP__@@KPAVCRect@@@Z" PURGE="12" COMMENT="" />
    <EXPORT ORDINAL="198" NAME="?BrowseCallbackProc@CLXFolderDialog@@CGHPAUHWND__@@IJJ@Z" PURGE="16" COMMENT="" />
    <EXPORT ORDINAL="199" NAME="?CalculatePagesRemaining@CGUIInkTank@@QAEHXZ" PURGE="0" COMMENT="" />
    <EXPORT ORDINAL="200" NAME="?CalculatePagesRemaining@InkTank@@QAEHXZ" PURGE="0" COMMENT="" />
    <EXPORT ORDINAL="201" NAME="?ChangeSelection@CColourPopup@@IAEXH@Z" PURGE="4" COMMENT="" />
    <EXPORT ORDINAL="202" NAME="?ChangeTextColor@COwnButton@@QAEXPAUHDC__@@K@Z" PURGE="8" COMMENT="" />
    <EXPORT ORDINAL="203" NAME="?CheckCartridgeID@CGUIInkDisplay@@AAE?AW4InkColor@CGUIInkTank@@H@Z" PURGE="4" COMMENT="" />
    <EXPORT ORDINAL="204" NAME="?CheckCartridgeID@InkDisplay@@AAE?AW4InkColor@InkTank@@H@Z" PURGE="4" COMMENT="" />
    <EXPORT ORDINAL="205" NAME="?CheckHover@CGUIButton@@AAEXVCPoint@@@Z" PURGE="8" COMMENT="" />
    <EXPORT ORDINAL="206" NAME="?CheckHover@CGUILink@@QAEXVCPoint@@@Z" PURGE="8" COMMENT="" />
    <EXPORT ORDINAL="207" NAME="?CheckHover@CLPAButton@@AAEXVCPoint@@@Z" PURGE="8" COMMENT="" />
    <EXPORT ORDINAL="208" NAME="?CheckHover@CLink@@QAEXVCPoint@@@Z" PURGE="8" COMMENT="" />
    <EXPORT ORDINAL="209" NAME="?CheckHover@CMenuButton@@AAEXVCPoint@@@Z" PURGE="8" COMMENT="" />
    <EXPORT ORDINAL="210" NAME="?CheckHover@COwnButton@@IAEXVCPoint@@@Z" PURGE="8" COMMENT="" />
    <EXPORT ORDINAL="211" NAME="?CheckPointInText@CGUILink@@AAEHVCPoint@@@Z" PURGE="8" COMMENT="" />
    <EXPORT ORDINAL="212" NAME="?CheckPointInText@CLink@@AAEHVCPoint@@@Z" PURGE="8" COMMENT="" />
    <EXPORT ORDINAL="213" NAME="?CheckTransRec@COwnButton@@QAEXPAVCRect@@@Z" PURGE="4" COMMENT="" />
    <EXPORT ORDINAL="214" NAME="?Close@CRegistry@@UAEXXZ" PURGE="0" COMMENT="" />
    <EXPORT ORDINAL="215" NAME="?CloseDesktop@CLXShell32Ext@@IAEJXZ" PURGE="0" COMMENT="" />
    <EXPORT ORDINAL="216" NAME="?CompareAndSwap@CDirTreeCtrl@@IAEHHPAVCStringArray@@@Z" PURGE="8" COMMENT="" />
    <EXPORT ORDINAL="217" NAME="?CompareAndTranlateURL@CGUIUrlLink@@QAEHVCString@@00@Z" PURGE="12" COMMENT="" />
    <EXPORT ORDINAL="218" NAME="?CompareSetting@LxkProduct@@QAEHPADK@Z" PURGE="8" COMMENT="" />
    <EXPORT ORDINAL="219" NAME="?CompareSetting@LxkProduct@@QAEHPADVCString@@@Z" PURGE="8" COMMENT="" />
    <EXPORT ORDINAL="220" NAME="?ConstructAlternateURL@CGUIUrlLink@@QAEXVCString@@@Z" PURGE="4" COMMENT="" />
    <EXPORT ORDINAL="221" NAME="?ConstructOEMURL@CGUIUrlLink@@QAEXVCString@@@Z" PURGE="4" COMMENT="" />
    <EXPORT ORDINAL="222" NAME="?ConstructStandardURL@CGUIUrlLink@@QAEXVCString@@@Z" PURGE="4" COMMENT="" />
    <EXPORT ORDINAL="223" NAME="?ConstructURL@CGUIUrlLink@@QAEXVCString@@@Z" PURGE="4" COMMENT="" />
    <EXPORT ORDINAL="224" NAME="?ConvertSetting@LxkProduct@@AAEKXZ" PURGE="0" COMMENT="" />
    <EXPORT ORDINAL="225" NAME="?Create@CColourPopup@@QAEHVCPoint@@KPAVCWnd@@PBD2@Z" PURGE="24" COMMENT="" />
    <EXPORT ORDINAL="226" NAME="?Create@CLXTreeCtrl@@QAEHABUtagRECT@@PAVCWnd@@@Z" PURGE="8" COMMENT="" />
    <EXPORT ORDINAL="227" NAME="?Create@CLpaTip@@QAEHPAVCWnd@@VCString@@KKKPAVCLPAButton@@@Z" PURGE="24" COMMENT="" />
    <EXPORT ORDINAL="228" NAME="?Create@CRegistry@@UAEXAAKPAUHKEY__@@PBDKKPAU_SECURITY_ATTRIBUTES@@@Z" PURGE="24" COMMENT="" />
    <EXPORT ORDINAL="229" NAME="?CreateCloneHBMP@CGUIDIB@@QAEPAUHBITMAP__@@HHHHHHH@Z" PURGE="28" COMMENT="" />
    <EXPORT ORDINAL="230" NAME="?CreateHBMPFromDIB@CGUIDIB@@QAEPAUHBITMAP__@@PAXPAVCDC@@@Z" PURGE="8" COMMENT="" />
    <EXPORT ORDINAL="231" NAME="?CreateIconHBMPFromDIB@CGUIDIB@@QAEPAUHBITMAP__@@PAXPAVCDC@@@Z" PURGE="8" COMMENT="" />
    <EXPORT ORDINAL="232" NAME="?CreateObject@CColourPicker@@SGPAVCObject@@XZ" PURGE="0" COMMENT="" />
    <EXPORT ORDINAL="233" NAME="?CreatePalette256@CPalette256@@QAEXI@Z" PURGE="4" COMMENT="" />
    <EXPORT ORDINAL="234" NAME="?CreatePalette256@CPalette256@@QAEXPAUHBITMAP__@@@Z" PURGE="4" COMMENT="" />
    <EXPORT ORDINAL="235" NAME="?CreatePosterHBMP@CGUIDIB@@QAEPAUHBITMAP__@@HHHM@Z" PURGE="16" COMMENT="" />
    <EXPORT ORDINAL="236" NAME="?CreateSecurityDescriptor@CRegistry@@QAEPAXXZ" PURGE="0" COMMENT="" />
    <EXPORT ORDINAL="237" NAME="?CreateToolTips@CColourPopup@@IAEXXZ" PURGE="0" COMMENT="" />
    <EXPORT ORDINAL="238" NAME="?CtlColor@CWizardSheet@@IAEPAUHBRUSH__@@PAVCDC@@I@Z" PURGE="8" COMMENT="" />
    <EXPORT ORDINAL="239" NAME="?CtlColor@Cstatbk@@IAEPAUHBRUSH__@@PAVCDC@@I@Z" PURGE="8" COMMENT="" />
    <EXPORT ORDINAL="240" NAME="?CustomCompress@CGUIDIB@@QAEHPAVCDC@@HHMK@Z" PURGE="20" COMMENT="" />
    <EXPORT ORDINAL="241" NAME="?DefWindowProcA@COwnButton@@MAEJIIJ@Z" PURGE="12" COMMENT="" />
    <EXPORT ORDINAL="242" NAME="?DeleteOldBrush@Cstatbk@@AAEXPAUHBRUSH__@@@Z" PURGE="4" COMMENT="" />
    <EXPORT ORDINAL="243" NAME="?DeleteValue@CRegistry@@UAEXPBD@Z" PURGE="4" COMMENT="" />
    <EXPORT ORDINAL="244" NAME="?DeskTopItems@CLXTreeCtrl@@QAEXPBD@Z" PURGE="4" COMMENT="" />
    <EXPORT ORDINAL="245" NAME="?DestroyWindow@PopupWindow@@QAEXXZ" PURGE="0" COMMENT="" />
    <EXPORT ORDINAL="246" NAME="?DetermineCGUIInkDisplay@CGUIInkDisplay@@AAEHXZ" PURGE="0" COMMENT="" />
    <EXPORT ORDINAL="247" NAME="?DetermineInkDisplay@InkDisplay@@AAEHXZ" PURGE="0" COMMENT="" />
    <EXPORT ORDINAL="248" NAME="?DisplayDrives@CDirTreeCtrl@@IAEHXZ" PURGE="0" COMMENT="" />
    <EXPORT ORDINAL="249" NAME="?DisplayMsgBox@CSpy@@IAEHXZ" PURGE="0" COMMENT="" />
    <EXPORT ORDINAL="250" NAME="?DisplayPath@CDirTreeCtrl@@IAEXPAU_TREEITEM@@PBD@Z" PURGE="8" COMMENT="" />
    <EXPORT ORDINAL="251" NAME="?DisplayText1@CGUILink@@IAEXPAVCDC@@PAVCRect@@@Z" PURGE="8" COMMENT="" />
    <EXPORT ORDINAL="252" NAME="?DisplayText@CGUIButton@@AAEXPAVCDC@@@Z" PURGE="4" COMMENT="" />
    <EXPORT ORDINAL="253" NAME="?DisplayText@CGUILink@@IAEXPAVCDC@@PAVCRect@@@Z" PURGE="8" COMMENT="" />
    <EXPORT ORDINAL="254" NAME="?DisplayText@CLink@@IAEXPAUHDC__@@PAVCRect@@@Z" PURGE="8" COMMENT="" />
    <EXPORT ORDINAL="255" NAME="?DisplayText@COwnButton@@IAEXPAUHDC__@@PAVCRect@@@Z" PURGE="8" COMMENT="" />
    <EXPORT ORDINAL="256" NAME="?DisplayTree@CDirTreeCtrl@@QAEHPBDH@Z" PURGE="8" COMMENT="" />
    <EXPORT ORDINAL="257" NAME="?DoDataExchange@JSWOptionsDlg@@UAEXPAVCDataExchange@@@Z" PURGE="4" COMMENT="" />
    <EXPORT ORDINAL="258" NAME="?DoDataExchange@PopupDialog@@MAEXPAVCDataExchange@@@Z" PURGE="4" COMMENT="" />
    <EXPORT ORDINAL="259" NAME="?DoDataExchange@VersionDlg@@UAEXPAVCDataExchange@@@Z" PURGE="4" COMMENT="" />
    <EXPORT ORDINAL="260" NAME="?DoModal@CLXFolderDialog@@UAEHXZ" PURGE="0" COMMENT="" />
    <EXPORT ORDINAL="261" NAME="?DrawBmp@CTransStaticBmp@@QAEXPAVCDC@@@Z" PURGE="4" COMMENT="" />
    <EXPORT ORDINAL="262" NAME="?DrawBmpWBkgnd@CTransStaticBmp@@QAEXPAVCDC@@@Z" PURGE="4" COMMENT="" />
    <EXPORT ORDINAL="263" NAME="?DrawButton1@CGUILink@@QAEXPAVCDC@@@Z" PURGE="4" COMMENT="" />
    <EXPORT ORDINAL="264" NAME="?DrawButton@CGUIButton@@QAEXPAVCDC@@@Z" PURGE="4" COMMENT="" />
    <EXPORT ORDINAL="265" NAME="?DrawButton@CGUIButton@@QAEXPAVCPaintDC@@@Z" PURGE="4" COMMENT="" />
    <EXPORT ORDINAL="266" NAME="?DrawButton@CGUILink@@QAEXPAVCDC@@@Z" PURGE="4" COMMENT="" />
    <EXPORT ORDINAL="267" NAME="?DrawButton@CLPAButton@@AAEXPAVCDC@@PAVCRect@@I@Z" PURGE="12" COMMENT="" />
    <EXPORT ORDINAL="268" NAME="?DrawButton@CLink@@AAEXPAVCDC@@PAVCRect@@I@Z" PURGE="12" COMMENT="" />
    <EXPORT ORDINAL="269" NAME="?DrawButton@CMenuButton@@AAEXPAVCDC@@PAVCRect@@I@Z" PURGE="12" COMMENT="" />
    <EXPORT ORDINAL="270" NAME="?DrawButton@COwnButton@@IAEXPAVCDC@@PAVCRect@@I@Z" PURGE="12" COMMENT="" />
    <EXPORT ORDINAL="271" NAME="?DrawCell@CColourPopup@@IAEXPAVCDC@@H@Z" PURGE="8" COMMENT="" />
    <EXPORT ORDINAL="272" NAME="?DrawControl@CGUIExpandWnd@@QAEXPAVCDC@@@Z" PURGE="4" COMMENT="" />
    <EXPORT ORDINAL="273" NAME="?DrawControl@CGUIExpandWndControl@@QAEXPAVCDC@@@Z" PURGE="4" COMMENT="" />
    <EXPORT ORDINAL="274" NAME="?DrawControl@Cstatbk@@QAEXPAVCDC@@@Z" PURGE="4" COMMENT="" />
    <EXPORT ORDINAL="275" NAME="?DrawInkLevel@CGUIInkTank@@QAEHXZ" PURGE="0" COMMENT="" />
    <EXPORT ORDINAL="276" NAME="?DrawInkLevel@InkTank@@QAEHXZ" PURGE="0" COMMENT="" />
    <EXPORT ORDINAL="277" NAME="?DrawItem@CColourPicker@@UAEXPAUtagDRAWITEMSTRUCT@@@Z" PURGE="4" COMMENT="" />
    <EXPORT ORDINAL="278" NAME="?DrawItem@CGUIButton@@UAEXPAUtagDRAWITEMSTRUCT@@@Z" PURGE="4" COMMENT="" />
    <EXPORT ORDINAL="279" NAME="?DrawItem@CGUILink@@UAEXPAUtagDRAWITEMSTRUCT@@@Z" PURGE="4" COMMENT="" />
    <EXPORT ORDINAL="280" NAME="?DrawItem@CLPAButton@@UAEXPAUtagDRAWITEMSTRUCT@@@Z" PURGE="4" COMMENT="" />
    <EXPORT ORDINAL="281" NAME="?DrawItem@CLink@@UAEXPAUtagDRAWITEMSTRUCT@@@Z" PURGE="4" COMMENT="" />
    <EXPORT ORDINAL="282" NAME="?DrawItem@CMenuButton@@UAEXPAUtagDRAWITEMSTRUCT@@@Z" PURGE="4" COMMENT="" />
    <EXPORT ORDINAL="283" NAME="?DrawItem@COwnButton@@UAEXPAUtagDRAWITEMSTRUCT@@@Z" PURGE="4" COMMENT="" />
    <EXPORT ORDINAL="284" NAME="?DrawItem@Cstatbk@@UAEXPAUtagDRAWITEMSTRUCT@@@Z" PURGE="4" COMMENT="" />
    <EXPORT ORDINAL="285" NAME="?DrawPaperSizeRep@CGUIDIB@@QAEPAUHBITMAP__@@PAU2@HHH@Z" PURGE="16" COMMENT="" />
    <EXPORT ORDINAL="286" NAME="?DrawPercentageCtrl@CProgressPercentageCtrl@@QAEXPAVCDC@@@Z" PURGE="4" COMMENT="" />
    <EXPORT ORDINAL="287" NAME="?DrawProgressCtrl@CBitmapProgressCtrl@@QAEXPAVCDC@@@Z" PURGE="4" COMMENT="" />
    <EXPORT ORDINAL="288" NAME="?DrawTanks@CGUIInkDisplay@@QAEXPAVCDC@@@Z" PURGE="4" COMMENT="" />
    <EXPORT ORDINAL="289" NAME="?EnableCursorMorph@CGUIButton@@QAEXH@Z" PURGE="4" COMMENT="" />
    <EXPORT ORDINAL="290" NAME="?EnableOK@CLXFolderDialog@@IAEXH@Z" PURGE="4" COMMENT="" />
    <EXPORT ORDINAL="291" NAME="?EndSelection@CColourPopup@@IAEXH@Z" PURGE="4" COMMENT="" />
    <EXPORT ORDINAL="292" NAME="?EnsureVisibleFolder@CLXTreeCtrl@@IAEJPAU_ITEMIDLIST@@@Z" PURGE="4" COMMENT="" />
    <EXPORT ORDINAL="293" NAME="?EnumKey@CRegistry@@UAEHKPADPAKPAU_FILETIME@@01@Z" PURGE="24" COMMENT="" />
    <EXPORT ORDINAL="294" NAME="?EnumValue@CRegistry@@UAEHKPADPAK1PAE1@Z" PURGE="24" COMMENT="" />
    <EXPORT ORDINAL="295" NAME="?ExitWizard@CWizardSheet@@QAEXH@Z" PURGE="4" COMMENT="" />
    <EXPORT ORDINAL="296" NAME="?ExpandAllEqually@CGUIExpandWndControl@@QAEXXZ" PURGE="0" COMMENT="" />
    <EXPORT ORDINAL="297" NAME="?ExpandFirstWnd@CGUIExpandWndControl@@QAEXXZ" PURGE="0" COMMENT="" />
    <EXPORT ORDINAL="298" NAME="?ExpandItem@CDirTreeCtrl@@IAEXPAU_TREEITEM@@I@Z" PURGE="8" COMMENT="" />
    <EXPORT ORDINAL="299" NAME="?ExpandSecondWnd@CGUIExpandWndControl@@QAEXXZ" PURGE="0" COMMENT="" />
    <EXPORT ORDINAL="300" NAME="?ExpandThirdWnd@CGUIExpandWndControl@@QAEXXZ" PURGE="0" COMMENT="" />
    <EXPORT ORDINAL="301" NAME="?FindCellFromColour@CColourPopup@@IAEXK@Z" PURGE="4" COMMENT="" />
    <EXPORT ORDINAL="302" NAME="?FindConstrainingEdge@CGUIDIB@@QAEHHHHH@Z" PURGE="16" COMMENT="" />
    <EXPORT ORDINAL="303" NAME="?FindSubDir@CDirTreeCtrl@@IAEHPBD@Z" PURGE="4" COMMENT="" />
    <EXPORT ORDINAL="304" NAME="?FollowLink@CGUIHelpLink@@QAEXI@Z" PURGE="4" COMMENT="" />
    <EXPORT ORDINAL="305" NAME="?FollowLink@CGUILink@@QAEXI@Z" PURGE="4" COMMENT="" />
    <EXPORT ORDINAL="306" NAME="?FollowLink@CGUIUrlLink@@QAEXI@Z" PURGE="4" COMMENT="" />
    <EXPORT ORDINAL="307" NAME="?FollowLink@CGUIUrlLink@@QAEXVCString@@H@Z" PURGE="8" COMMENT="" />
    <EXPORT ORDINAL="308" NAME="?FollowLink@CGUIUrlLink@@QAEXVCString@@PAUINKINFO@@H@Z" PURGE="12" COMMENT="" />
    <EXPORT ORDINAL="309" NAME="?FollowLink@CGUIWizardLink@@QAEXI@Z" PURGE="4" COMMENT="" />
    <EXPORT ORDINAL="310" NAME="?FollowLink@CHelpLink@@QAEXI@Z" PURGE="4" COMMENT="" />
    <EXPORT ORDINAL="311" NAME="?FollowLink@CLink@@QAEXI@Z" PURGE="4" COMMENT="" />
    <EXPORT ORDINAL="312" NAME="?FollowLink@CUrlLink@@QAEXI@Z" PURGE="4" COMMENT="" />
    <EXPORT ORDINAL="313" NAME="?FollowLink@CWizardLink@@QAEXI@Z" PURGE="4" COMMENT="" />
    <EXPORT ORDINAL="314" NAME="?GetAIOKey@CRegistry@@AAEPAUHKEY__@@PAU2@VCString@@@Z" PURGE="8" COMMENT="" />
    <EXPORT ORDINAL="315" NAME="?GetBI@CLXFolderDialog@@QAEAAU_browseinfoA@@XZ" PURGE="0" COMMENT="" />
    <EXPORT ORDINAL="316" NAME="?GetBI@CLXFolderDialog@@QBEABU_browseinfoA@@XZ" PURGE="0" COMMENT="" />
    <EXPORT ORDINAL="317" NAME="?GetBkColour@CBitmapProgressCtrl@@QAEKXZ" PURGE="0" COMMENT="" />
    <EXPORT ORDINAL="318" NAME="?GetBkColour@CColourPicker@@QAEKXZ" PURGE="0" COMMENT="" />
    <EXPORT ORDINAL="319" NAME="?GetBkColour@CTextProgressCtrl@@QAEKXZ" PURGE="0" COMMENT="" />
    <EXPORT ORDINAL="320" NAME="?GetBold@CGUIFont@@QAEHXZ" PURGE="0" COMMENT="" />
    <EXPORT ORDINAL="321" NAME="?GetCartID@CGUIInkDisplay@@QAEHW4CartIDType@1@W4CartPosition@1@@Z" PURGE="8" COMMENT="" />
    <EXPORT ORDINAL="322" NAME="?GetCellRect@CColourPopup@@IAEHHABQAUtagRECT@@@Z" PURGE="8" COMMENT="" />
    <EXPORT ORDINAL="323" NAME="?GetClipRgn@CBitmapProgressCtrl@@QAEPAUHRGN__@@XZ" PURGE="0" COMMENT="" />
    <EXPORT ORDINAL="324" NAME="?GetColour@CColourPicker@@QAEKXZ" PURGE="0" COMMENT="" />
    <EXPORT ORDINAL="325" NAME="?GetColour@CColourPopup@@IAEKH@Z" PURGE="4" COMMENT="" />
    <EXPORT ORDINAL="326" NAME="?GetColourName@CColourPopup@@IAEPBDH@Z" PURGE="4" COMMENT="" />
    <EXPORT ORDINAL="327" NAME="?GetColumn@CColourPopup@@IBEHH@Z" PURGE="4" COMMENT="" />
    <EXPORT ORDINAL="328" NAME="?GetCompsOnNetwork@CLXShell32Ext@@QAEPBV?$CList@UtagMYFOLDERITEM@@U1@@@XZ" PURGE="0" COMMENT="" />
    <EXPORT ORDINAL="329" NAME="?GetContainerLabel@CGUIInkTank@@QAE?AVCString@@XZ" PURGE="4" COMMENT="" />
    <EXPORT ORDINAL="330" NAME="?GetContainerLabel@InkTank@@QAE?AVCString@@XZ" PURGE="4" COMMENT="" />
    <EXPORT ORDINAL="331" NAME="?GetCurrentPage@CWizardSheet@@QAEHXZ" PURGE="0" COMMENT="" />
    <EXPORT ORDINAL="332" NAME="?GetDesktop@CLXShell32Ext@@IAEJXZ" PURGE="0" COMMENT="" />
    <EXPORT ORDINAL="333" NAME="?GetDesktopInfo@CLXShell32Ext@@QAEQAUtagTREEITEMINFO@@XZ" PURGE="0" COMMENT="" />
    <EXPORT ORDINAL="334" NAME="?GetDimensionsString@CGUIDIB@@QAE?AVCString@@XZ" PURGE="4" COMMENT="" />
    <EXPORT ORDINAL="335" NAME="?GetFileSize@CGUIDIB@@QAEJXZ" PURGE="-1" COMMENT="" />
    <EXPORT ORDINAL="336" NAME="?GetFileSizeString@CGUIDIB@@QAE?AVCString@@XZ" PURGE="4" COMMENT="" />
    <EXPORT ORDINAL="337" NAME="?GetFileVersion@VersionDlg@@IAE?AVCString@@V2@@Z" PURGE="8" COMMENT="" />
    <EXPORT ORDINAL="338" NAME="?GetFolderDisplayName@CLXFolderDialog@@QBEPBDXZ" PURGE="0" COMMENT="" />
    <EXPORT ORDINAL="339" NAME="?GetFolderImageIndex@CLXFolderDialog@@QBEHXZ" PURGE="0" COMMENT="" />
    <EXPORT ORDINAL="340" NAME="?GetFolderPath@CLXFolderDialog@@QBEPBDXZ" PURGE="0" COMMENT="" />
    <EXPORT ORDINAL="341" NAME="?GetFont@CGUIFont@@QAEPAVCFont@@XZ" PURGE="0" COMMENT="" />
    <EXPORT ORDINAL="342" NAME="?GetForeColour@CBitmapProgressCtrl@@QAEKXZ" PURGE="0" COMMENT="" />
    <EXPORT ORDINAL="343" NAME="?GetForeColour@CTextProgressCtrl@@QAEKXZ" PURGE="0" COMMENT="" />
    <EXPORT ORDINAL="344" NAME="?GetFullPath@CDirTreeCtrl@@QAE?AVCString@@PAU_TREEITEM@@@Z" PURGE="8" COMMENT="" />
    <EXPORT ORDINAL="345" NAME="?GetHCM@CGUIDIB@@QAEMXZ" PURGE="0" COMMENT="" />
    <EXPORT ORDINAL="346" NAME="?GetHIn@CGUIDIB@@QAEMXZ" PURGE="0" COMMENT="" />
    <EXPORT ORDINAL="347" NAME="?GetHMM@CGUIDIB@@QAEMXZ" PURGE="0" COMMENT="" />
    <EXPORT ORDINAL="348" NAME="?GetHeight@CGUIFont@@QAEHXZ" PURGE="0" COMMENT="" />
    <EXPORT ORDINAL="349" NAME="?GetHeightDLU@CGUIDIB@@QAEHXZ" PURGE="0" COMMENT="" />
    <EXPORT ORDINAL="350" NAME="?GetHeightInches@CGUIDIB@@QAEMXZ" PURGE="0" COMMENT="" />
    <EXPORT ORDINAL="351" NAME="?GetHeightPixels@CGUIDIB@@QAEHXZ" PURGE="0" COMMENT="" />
    <EXPORT ORDINAL="352" NAME="?GetIconsForFolderNode@CLXShell32Ext@@IAEJPAUIShellFolder@@PAU_ITEMIDLIST@@AAPAUHICON__@@2@Z" PURGE="16" COMMENT="" />
    <EXPORT ORDINAL="353" NAME="?GetIndex@CColourPopup@@IBEHHH@Z" PURGE="8" COMMENT="" />
    <EXPORT ORDINAL="354" NAME="?GetLastError@CRegistry@@UAEJXZ" PURGE="0" COMMENT="" />
    <EXPORT ORDINAL="355" NAME="?GetLogFont@CGUIFont@@QAE?AUtagLOGFONTA@@XZ" PURGE="4" COMMENT="" />
    <EXPORT ORDINAL="356" NAME="?GetMessageMap@CBitmapProgressCtrl@@MBEPBUAFX_MSGMAP@@XZ" PURGE="0" COMMENT="" />
    <EXPORT ORDINAL="357" NAME="?GetMessageMap@CCaptionBar@@MBEPBUAFX_MSGMAP@@XZ" PURGE="0" COMMENT="" />
    <EXPORT ORDINAL="358" NAME="?GetMessageMap@CColourPicker@@MBEPBUAFX_MSGMAP@@XZ" PURGE="0" COMMENT="" />
    <EXPORT ORDINAL="359" NAME="?GetMessageMap@CColourPopup@@MBEPBUAFX_MSGMAP@@XZ" PURGE="0" COMMENT="" />
    <EXPORT ORDINAL="360" NAME="?GetMessageMap@CDirTreeCtrl@@MBEPBUAFX_MSGMAP@@XZ" PURGE="0" COMMENT="" />
    <EXPORT ORDINAL="361" NAME="?GetMessageMap@CGUIButton@@MBEPBUAFX_MSGMAP@@XZ" PURGE="0" COMMENT="" />
    <EXPORT ORDINAL="362" NAME="?GetMessageMap@CGUIExpandWnd@@MBEPBUAFX_MSGMAP@@XZ" PURGE="0" COMMENT="" />
    <EXPORT ORDINAL="363" NAME="?GetMessageMap@CGUIInkTank@@MBEPBUAFX_MSGMAP@@XZ" PURGE="0" COMMENT="" />
    <EXPORT ORDINAL="364" NAME="?GetMessageMap@CGUILink@@MBEPBUAFX_MSGMAP@@XZ" PURGE="0" COMMENT="" />
    <EXPORT ORDINAL="365" NAME="?GetMessageMap@CGUIUrlLink@@MBEPBUAFX_MSGMAP@@XZ" PURGE="0" COMMENT="" />
    <EXPORT ORDINAL="366" NAME="?GetMessageMap@CLPAButton@@MBEPBUAFX_MSGMAP@@XZ" PURGE="0" COMMENT="" />
    <EXPORT ORDINAL="367" NAME="?GetMessageMap@CLXFolderDialog@@MBEPBUAFX_MSGMAP@@XZ" PURGE="0" COMMENT="" />
    <EXPORT ORDINAL="368" NAME="?GetMessageMap@CLXTreeCtrl@@MBEPBUAFX_MSGMAP@@XZ" PURGE="0" COMMENT="" />
    <EXPORT ORDINAL="369" NAME="?GetMessageMap@CLink@@MBEPBUAFX_MSGMAP@@XZ" PURGE="0" COMMENT="" />
    <EXPORT ORDINAL="370" NAME="?GetMessageMap@CLpaTip@@MBEPBUAFX_MSGMAP@@XZ" PURGE="0" COMMENT="" />
    <EXPORT ORDINAL="371" NAME="?GetMessageMap@CMenuButton@@MBEPBUAFX_MSGMAP@@XZ" PURGE="0" COMMENT="" />
    <EXPORT ORDINAL="372" NAME="?GetMessageMap@COwnButton@@MBEPBUAFX_MSGMAP@@XZ" PURGE="0" COMMENT="" />
    <EXPORT ORDINAL="373" NAME="?GetMessageMap@CProgressPercentageCtrl@@MBEPBUAFX_MSGMAP@@XZ" PURGE="0" COMMENT="" />
    <EXPORT ORDINAL="374" NAME="?GetMessageMap@CTextProgressCtrl@@MBEPBUAFX_MSGMAP@@XZ" PURGE="0" COMMENT="" />
    <EXPORT ORDINAL="375" NAME="?GetMessageMap@CTransStaticBmp@@MBEPBUAFX_MSGMAP@@XZ" PURGE="0" COMMENT="" />
    <EXPORT ORDINAL="376" NAME="?GetMessageMap@CUrlLink@@MBEPBUAFX_MSGMAP@@XZ" PURGE="0" COMMENT="" />
    <EXPORT ORDINAL="377" NAME="?GetMessageMap@CWizardSheet@@MBEPBUAFX_MSGMAP@@XZ" PURGE="0" COMMENT="" />
    <EXPORT ORDINAL="378" NAME="?GetMessageMap@Cstatbk@@MBEPBUAFX_MSGMAP@@XZ" PURGE="0" COMMENT="" />
    <EXPORT ORDINAL="379" NAME="?GetMessageMap@InkTank@@MBEPBUAFX_MSGMAP@@XZ" PURGE="0" COMMENT="" />
    <EXPORT ORDINAL="380" NAME="?GetMessageMap@InsetWind@@MBEPBUAFX_MSGMAP@@XZ" PURGE="0" COMMENT="" />
    <EXPORT ORDINAL="381" NAME="?GetMessageMap@JSWOptionsDlg@@MBEPBUAFX_MSGMAP@@XZ" PURGE="0" COMMENT="" />
    <EXPORT ORDINAL="382" NAME="?GetMessageMap@PopupDialog@@MBEPBUAFX_MSGMAP@@XZ" PURGE="0" COMMENT="" />
    <EXPORT ORDINAL="383" NAME="?GetMessageMap@TransStaticEdit@@MBEPBUAFX_MSGMAP@@XZ" PURGE="0" COMMENT="" />
    <EXPORT ORDINAL="384" NAME="?GetMessageMap@VersionDlg@@MBEPBUAFX_MSGMAP@@XZ" PURGE="0" COMMENT="" />
    <EXPORT ORDINAL="385" NAME="?GetMessageMap@transbkstatic@@MBEPBUAFX_MSGMAP@@XZ" PURGE="0" COMMENT="" />
    <EXPORT ORDINAL="386" NAME="?GetNetworkComps@CLXShell32Ext@@IAEJXZ" PURGE="0" COMMENT="" />
    <EXPORT ORDINAL="387" NAME="?GetNetworkPrinters@CLXShell32Ext@@IAEJXZ" PURGE="0" COMMENT="" />
    <EXPORT ORDINAL="388" NAME="?GetNode@CLXShell32Ext@@IAEJHPAPAX@Z" PURGE="8" COMMENT="" />
    <EXPORT ORDINAL="389" NAME="?GetOSKey@CRegistry@@AAEPAUHKEY__@@PAU2@VCString@@@Z" PURGE="8" COMMENT="" />
    <EXPORT ORDINAL="390" NAME="?GetOSPlatform@CRegistry@@QAE?AW4OSVersion@1@XZ" PURGE="0" COMMENT="" />
    <EXPORT ORDINAL="391" NAME="?GetOSVer@CRegistry@@QAE?AW4OSVersion@1@XZ" PURGE="0" COMMENT="" />
    <EXPORT ORDINAL="392" NAME="?GetOriginalHBMP@CGUIDIB@@QAEPAUHBITMAP__@@XZ" PURGE="0" COMMENT="" />
    <EXPORT ORDINAL="393" NAME="?GetOriginalHGBL@CGUIDIB@@QAEPAXXZ" PURGE="0" COMMENT="" />
    <EXPORT ORDINAL="394" NAME="?GetOutputHCM@CGUIDIB@@QAEMXZ" PURGE="0" COMMENT="" />
    <EXPORT ORDINAL="395" NAME="?GetOutputHIn@CGUIDIB@@QAEMXZ" PURGE="0" COMMENT="" />
    <EXPORT ORDINAL="396" NAME="?GetOutputHMM@CGUIDIB@@QAEMXZ" PURGE="0" COMMENT="" />
    <EXPORT ORDINAL="397" NAME="?GetOutputWCM@CGUIDIB@@QAEMXZ" PURGE="0" COMMENT="" />
    <EXPORT ORDINAL="398" NAME="?GetOutputWIn@CGUIDIB@@QAEMXZ" PURGE="0" COMMENT="" />
    <EXPORT ORDINAL="399" NAME="?GetOutputWMM@CGUIDIB@@QAEMXZ" PURGE="0" COMMENT="" />
    <EXPORT ORDINAL="400" NAME="?GetPalette@CPalette256@@QAEPAVCPalette@@XZ" PURGE="0" COMMENT="" />
    <EXPORT ORDINAL="401" NAME="?GetPrintersOnNetwork@CLXShell32Ext@@QAEPBV?$CList@UtagMYFOLDERITEM@@U1@@@XZ" PURGE="0" COMMENT="" />
    <EXPORT ORDINAL="402" NAME="?GetRecycleBin@CLXShell32Ext@@IAEJXZ" PURGE="0" COMMENT="" />
    <EXPORT ORDINAL="403" NAME="?GetRecycleBinItems@CLXShell32Ext@@QAEPBV?$CList@UtagMYFOLDERITEM@@U1@@@XZ" PURGE="0" COMMENT="" />
    <EXPORT ORDINAL="404" NAME="?GetRegKey@CGUIUrlLink@@IAEJPAUHKEY__@@PBDPAD@Z" PURGE="12" COMMENT="" />
    <EXPORT ORDINAL="405" NAME="?GetRegKey@CUrlLink@@KAJPAUHKEY__@@PBDPAD@Z" PURGE="0" COMMENT="" />
    <EXPORT ORDINAL="406" NAME="?GetRow@CColourPopup@@IBEHH@Z" PURGE="4" COMMENT="" />
    <EXPORT ORDINAL="407" NAME="?GetRuntimeClass@CBitmapProgressCtrl@@UBEPAUCRuntimeClass@@XZ" PURGE="0" COMMENT="" />
    <EXPORT ORDINAL="408" NAME="?GetRuntimeClass@CCaptionBar@@UBEPAUCRuntimeClass@@XZ" PURGE="0" COMMENT="" />
    <EXPORT ORDINAL="409" NAME="?GetRuntimeClass@CColourPicker@@UBEPAUCRuntimeClass@@XZ" PURGE="0" COMMENT="" />
    <EXPORT ORDINAL="410" NAME="?GetRuntimeClass@CDirTreeCtrl@@UBEPAUCRuntimeClass@@XZ" PURGE="0" COMMENT="" />
    <EXPORT ORDINAL="411" NAME="?GetRuntimeClass@CGUIButton@@UBEPAUCRuntimeClass@@XZ" PURGE="0" COMMENT="" />
    <EXPORT ORDINAL="412" NAME="?GetRuntimeClass@CGUIDIB@@UBEPAUCRuntimeClass@@XZ" PURGE="0" COMMENT="" />
    <EXPORT ORDINAL="413" NAME="?GetRuntimeClass@CGUIExpandWnd@@UBEPAUCRuntimeClass@@XZ" PURGE="0" COMMENT="" />
    <EXPORT ORDINAL="414" NAME="?GetRuntimeClass@CGUIExpandWndControl@@UBEPAUCRuntimeClass@@XZ" PURGE="0" COMMENT="" />
    <EXPORT ORDINAL="415" NAME="?GetRuntimeClass@CGUIFont@@UBEPAUCRuntimeClass@@XZ" PURGE="0" COMMENT="" />
    <EXPORT ORDINAL="416" NAME="?GetRuntimeClass@CGUIHelpLink@@UBEPAUCRuntimeClass@@XZ" PURGE="0" COMMENT="" />
    <EXPORT ORDINAL="417" NAME="?GetRuntimeClass@CGUIInkDisplay@@UBEPAUCRuntimeClass@@XZ" PURGE="0" COMMENT="" />
    <EXPORT ORDINAL="418" NAME="?GetRuntimeClass@CGUIInkTank@@UBEPAUCRuntimeClass@@XZ" PURGE="0" COMMENT="" />
    <EXPORT ORDINAL="419" NAME="?GetRuntimeClass@CGUILink@@UBEPAUCRuntimeClass@@XZ" PURGE="0" COMMENT="" />
    <EXPORT ORDINAL="420" NAME="?GetRuntimeClass@CGUIUrlLink@@UBEPAUCRuntimeClass@@XZ" PURGE="0" COMMENT="" />
    <EXPORT ORDINAL="421" NAME="?GetRuntimeClass@CGUIWizardLink@@UBEPAUCRuntimeClass@@XZ" PURGE="0" COMMENT="" />
    <EXPORT ORDINAL="422" NAME="?GetRuntimeClass@CHelpLink@@UBEPAUCRuntimeClass@@XZ" PURGE="0" COMMENT="" />
    <EXPORT ORDINAL="423" NAME="?GetRuntimeClass@CLPAButton@@UBEPAUCRuntimeClass@@XZ" PURGE="0" COMMENT="" />
    <EXPORT ORDINAL="424" NAME="?GetRuntimeClass@CLXFolderDialog@@UBEPAUCRuntimeClass@@XZ" PURGE="0" COMMENT="" />
    <EXPORT ORDINAL="425" NAME="?GetRuntimeClass@CLink@@UBEPAUCRuntimeClass@@XZ" PURGE="0" COMMENT="" />
    <EXPORT ORDINAL="426" NAME="?GetRuntimeClass@CLpaTip@@UBEPAUCRuntimeClass@@XZ" PURGE="0" COMMENT="" />
    <EXPORT ORDINAL="427" NAME="?GetRuntimeClass@CMemDC@@UBEPAUCRuntimeClass@@XZ" PURGE="0" COMMENT="" />
    <EXPORT ORDINAL="428" NAME="?GetRuntimeClass@CMenuButton@@UBEPAUCRuntimeClass@@XZ" PURGE="0" COMMENT="" />
    <EXPORT ORDINAL="429" NAME="?GetRuntimeClass@COwnButton@@UBEPAUCRuntimeClass@@XZ" PURGE="0" COMMENT="" />
    <EXPORT ORDINAL="430" NAME="?GetRuntimeClass@CPalette256@@UBEPAUCRuntimeClass@@XZ" PURGE="0" COMMENT="" />
    <EXPORT ORDINAL="431" NAME="?GetRuntimeClass@CProgressPercentageCtrl@@UBEPAUCRuntimeClass@@XZ" PURGE="0" COMMENT="" />
    <EXPORT ORDINAL="432" NAME="?GetRuntimeClass@CTextProgressCtrl@@UBEPAUCRuntimeClass@@XZ" PURGE="0" COMMENT="" />
    <EXPORT ORDINAL="433" NAME="?GetRuntimeClass@CTransStaticBmp@@UBEPAUCRuntimeClass@@XZ" PURGE="0" COMMENT="" />
    <EXPORT ORDINAL="434" NAME="?GetRuntimeClass@CTransparentBmp@@UBEPAUCRuntimeClass@@XZ" PURGE="0" COMMENT="" />
    <EXPORT ORDINAL="435" NAME="?GetRuntimeClass@CUrlLink@@UBEPAUCRuntimeClass@@XZ" PURGE="0" COMMENT="" />
    <EXPORT ORDINAL="436" NAME="?GetRuntimeClass@CWizardLink@@UBEPAUCRuntimeClass@@XZ" PURGE="0" COMMENT="" />
    <EXPORT ORDINAL="437" NAME="?GetRuntimeClass@CWizardSheet@@UBEPAUCRuntimeClass@@XZ" PURGE="0" COMMENT="" />
    <EXPORT ORDINAL="438" NAME="?GetRuntimeClass@Cstatbk@@UBEPAUCRuntimeClass@@XZ" PURGE="0" COMMENT="" />
    <EXPORT ORDINAL="439" NAME="?GetRuntimeClass@InkDisplay@@UBEPAUCRuntimeClass@@XZ" PURGE="0" COMMENT="" />
    <EXPORT ORDINAL="440" NAME="?GetRuntimeClass@InkTank@@UBEPAUCRuntimeClass@@XZ" PURGE="0" COMMENT="" />
    <EXPORT ORDINAL="441" NAME="?GetRuntimeClass@InsetWind@@UBEPAUCRuntimeClass@@XZ" PURGE="0" COMMENT="" />
    <EXPORT ORDINAL="442" NAME="?GetRuntimeClass@JSWOptionsDlg@@UBEPAUCRuntimeClass@@XZ" PURGE="0" COMMENT="" />
    <EXPORT ORDINAL="443" NAME="?GetRuntimeClass@PopupDialog@@UBEPAUCRuntimeClass@@XZ" PURGE="0" COMMENT="" />
    <EXPORT ORDINAL="444" NAME="?GetRuntimeClass@PopupWindow@@UBEPAUCRuntimeClass@@XZ" PURGE="0" COMMENT="" />
    <EXPORT ORDINAL="445" NAME="?GetRuntimeClass@TransStaticEdit@@UBEPAUCRuntimeClass@@XZ" PURGE="0" COMMENT="" />
    <EXPORT ORDINAL="446" NAME="?GetRuntimeClass@VersionDlg@@UBEPAUCRuntimeClass@@XZ" PURGE="0" COMMENT="" />
    <EXPORT ORDINAL="447" NAME="?GetRuntimeClass@transbkstatic@@UBEPAUCRuntimeClass@@XZ" PURGE="0" COMMENT="" />
    <EXPORT ORDINAL="448" NAME="?GetSelectedFolder@CLXFolderDialog@@QBEPBDXZ" PURGE="0" COMMENT="" />
    <EXPORT ORDINAL="449" NAME="?GetSelectedRectHBMP@CGUIDIB@@QAEPAUHBITMAP__@@VCRect@@@Z" PURGE="16" COMMENT="" />
    <EXPORT ORDINAL="450" NAME="?GetSelectionMode@CColourPicker@@QAEIXZ" PURGE="0" COMMENT="" />
    <EXPORT ORDINAL="451" NAME="?GetSetting@LxkProduct@@QAE?AVCString@@PADAAV2@@Z" PURGE="12" COMMENT="" />
    <EXPORT ORDINAL="452" NAME="?GetSetting@LxkProduct@@QAEKPADAAK@Z" PURGE="8" COMMENT="" />
    <EXPORT ORDINAL="453" NAME="?GetSize@CGUIDIB@@QAEOXZ" PURGE="0" COMMENT="" />
    <EXPORT ORDINAL="454" NAME="?GetSize@CGUIExpandWnd@@QAEHXZ" PURGE="0" COMMENT="" />
    <EXPORT ORDINAL="455" NAME="?GetSpySetting@CSpy@@IAEHXZ" PURGE="0" COMMENT="" />
    <EXPORT ORDINAL="456" NAME="?GetSubPath@CDirTreeCtrl@@QAEPBDPBD@Z" PURGE="4" COMMENT="" />
    <EXPORT ORDINAL="457" NAME="?GetSysImgList@CDirTreeCtrl@@IAEHXZ" PURGE="0" COMMENT="" />
    <EXPORT ORDINAL="458" NAME="?GetTextBkColour@CBitmapProgressCtrl@@QAEKXZ" PURGE="0" COMMENT="" />
    <EXPORT ORDINAL="459" NAME="?GetTextBkColour@CTextProgressCtrl@@QAEKXZ" PURGE="0" COMMENT="" />
    <EXPORT ORDINAL="460" NAME="?GetTextColour@CColourPicker@@QAEKXZ" PURGE="0" COMMENT="" />
    <EXPORT ORDINAL="461" NAME="?GetTextForeColour@CBitmapProgressCtrl@@QAEKXZ" PURGE="0" COMMENT="" />
    <EXPORT ORDINAL="462" NAME="?GetTextForeColour@CTextProgressCtrl@@QAEKXZ" PURGE="0" COMMENT="" />
    <EXPORT ORDINAL="463" NAME="?GetTimeStamp@CSpy@@IAE?AVCString@@XZ" PURGE="4" COMMENT="" />
    <EXPORT ORDINAL="464" NAME="?GetTotalPages@CWizardSheet@@QAEHXZ" PURGE="-1" COMMENT="" />
    <EXPORT ORDINAL="465" NAME="?GetTrackSelection@CColourPicker@@QAEHXZ" PURGE="0" COMMENT="" />
    <EXPORT ORDINAL="466" NAME="?GetTreeItemAbsPIDL@CLXTreeCtrl@@IAEHPAU_TREEITEM@@PAPAU_ITEMIDLIST@@@Z" PURGE="8" COMMENT="" />
    <EXPORT ORDINAL="467" NAME="?GetTypeFaceName@CGUIFont@@QAE?AVCString@@XZ" PURGE="4" COMMENT="" />
    <EXPORT ORDINAL="468" NAME="?GetURL@CGUIUrlLink@@QAEXVCString@@@Z" PURGE="4" COMMENT="" />
    <EXPORT ORDINAL="469" NAME="?GetWCM@CGUIDIB@@QAEMXZ" PURGE="0" COMMENT="" />
    <EXPORT ORDINAL="470" NAME="?GetWIn@CGUIDIB@@QAEMXZ" PURGE="0" COMMENT="" />
    <EXPORT ORDINAL="471" NAME="?GetWMM@CGUIDIB@@QAEMXZ" PURGE="0" COMMENT="" />
    <EXPORT ORDINAL="472" NAME="?GetWidthDLU@CGUIDIB@@QAEHXZ" PURGE="0" COMMENT="" />
    <EXPORT ORDINAL="473" NAME="?GetWidthInches@CGUIDIB@@QAEMXZ" PURGE="0" COMMENT="" />
    <EXPORT ORDINAL="474" NAME="?GetWidthPixels@CGUIDIB@@QAEHXZ" PURGE="0" COMMENT="" />
    <EXPORT ORDINAL="475" NAME="?GotoURL@CGUIUrlLink@@QAEPAUHINSTANCE__@@PBDH@Z" PURGE="8" COMMENT="" />
    <EXPORT ORDINAL="476" NAME="?GotoURL@CUrlLink@@SAPAUHINSTANCE__@@PBDH@Z" PURGE="0" COMMENT="" />
    <EXPORT ORDINAL="477" NAME="?GotoURLManually@CGUIUrlLink@@QAEPAUHINSTANCE__@@PBDH@Z" PURGE="8" COMMENT="" />
    <EXPORT ORDINAL="478" NAME="?GrabMouse@InsetWind@@QAEXXZ" PURGE="0" COMMENT="" />
    <EXPORT ORDINAL="479" NAME="?Hide@CLpaTip@@QAEXXZ" PURGE="0" COMMENT="" />
    <EXPORT ORDINAL="480" NAME="?Highlight@InsetWind@@QAEXXZ" PURGE="0" COMMENT="" />
    <EXPORT ORDINAL="481" NAME="?HitTest@CGUIButton@@AAEHVCPoint@@@Z" PURGE="8" COMMENT="" />
    <EXPORT ORDINAL="482" NAME="?HitTest@CGUILink@@AAEHVCPoint@@@Z" PURGE="8" COMMENT="" />
    <EXPORT ORDINAL="483" NAME="?HitTest@CLink@@AAEHVCPoint@@@Z" PURGE="8" COMMENT="" />
    <EXPORT ORDINAL="484" NAME="?HitTest@COwnButton@@IAEHVCPoint@@@Z" PURGE="8" COMMENT="" />
    <EXPORT ORDINAL="485" NAME="?HitTest@Cstatbk@@QAEHVCPoint@@@Z" PURGE="8" COMMENT="" />
    <EXPORT ORDINAL="486" NAME="?HitTest@InsetWind@@IAEHVCPoint@@@Z" PURGE="8" COMMENT="" />
    <EXPORT ORDINAL="487" NAME="?Init@CGUIExpandWnd@@QAEXVCRect@@00@Z" PURGE="48" COMMENT="" />
    <EXPORT ORDINAL="488" NAME="?Init@CGUIExpandWndControl@@QAEXPAVCRect@@PAVCGUIExpandWnd@@11@Z" PURGE="16" COMMENT="" />
    <EXPORT ORDINAL="489" NAME="?Init@JSWOptionsDlg@@QAEXVCString@@0PAV2@KPAVCRect@@@Z" PURGE="20" COMMENT="" />
    <EXPORT ORDINAL="490" NAME="?InitBmp@CGUIExpandWnd@@QAEXIK@Z" PURGE="8" COMMENT="" />
    <EXPORT ORDINAL="491" NAME="?InitExpandButton@CGUIExpandWnd@@QAEXPAVCWnd@@H@Z" PURGE="8" COMMENT="" />
    <EXPORT ORDINAL="492" NAME="?InitExpandButton@CGUIExpandWndControl@@QAEXPAVCWnd@@H@Z" PURGE="8" COMMENT="" />
    <EXPORT ORDINAL="493" NAME="?InitIDArray@CGUIExpandWnd@@QAEXPAHH@Z" PURGE="8" COMMENT="" />
    <EXPORT ORDINAL="494" NAME="?InitMinSize2@CGUIExpandWnd@@QAEXVCRect@@@Z" PURGE="16" COMMENT="" />
    <EXPORT ORDINAL="495" NAME="?InitModal@JSWOptionsDlg@@QAEXVCString@@0@Z" PURGE="8" COMMENT="" />
    <EXPORT ORDINAL="496" NAME="?InitMode@CRegistry@@QAEXK@Z" PURGE="4" COMMENT="" />
    <EXPORT ORDINAL="497" NAME="?InitTank@CGUIInkDisplay@@AAEHHW4InkColor@CGUIInkTank@@@Z" PURGE="8" COMMENT="" />
    <EXPORT ORDINAL="498" NAME="?InitTank@InkDisplay@@AAEHHW4InkColor@InkTank@@@Z" PURGE="8" COMMENT="" />
    <EXPORT ORDINAL="499" NAME="?InitTreeCtrl@CLXTreeCtrl@@QAEXXZ" PURGE="0" COMMENT="" />
    <EXPORT ORDINAL="500" NAME="?Initialise@CColourPopup@@QAEXXZ" PURGE="0" COMMENT="" />
    <EXPORT ORDINAL="501" NAME="?Initialize@CCaptionBar@@QAEXPAVCWnd@@@Z" PURGE="4" COMMENT="" />
    <EXPORT ORDINAL="502" NAME="?Initialize@CGUIButton@@QAEXIIIKK@Z" PURGE="20" COMMENT="" />
    <EXPORT ORDINAL="503" NAME="?Initialize@CGUIButton@@QAEXIIKK@Z" PURGE="16" COMMENT="" />
    <EXPORT ORDINAL="504" NAME="?Initialize@CGUIButton@@QAEXIK@Z" PURGE="8" COMMENT="" />
    <EXPORT ORDINAL="505" NAME="?Initialize@CGUIButton@@QAEXPAUHINSTANCE__@@IIKK@Z" PURGE="20" COMMENT="" />
    <EXPORT ORDINAL="506" NAME="?Initialize@CGUILink@@QAEXIIIKK@Z" PURGE="20" COMMENT="" />
    <EXPORT ORDINAL="507" NAME="?Initialize@CGUILink@@QAEXIIKK@Z" PURGE="16" COMMENT="" />
    <EXPORT ORDINAL="508" NAME="?Initialize@CGUILink@@QAEXIK@Z" PURGE="8" COMMENT="" />
    <EXPORT ORDINAL="509" NAME="?Initialize@CLink@@QAEXIIIKK@Z" PURGE="20" COMMENT="" />
    <EXPORT ORDINAL="510" NAME="?Initialize@CLink@@QAEXIIKK@Z" PURGE="16" COMMENT="" />
    <EXPORT ORDINAL="511" NAME="?Initialize@CLink@@QAEXIK@Z" PURGE="8" COMMENT="" />
    <EXPORT ORDINAL="512" NAME="?Initialize@COwnButton@@QAEXIIIKK@Z" PURGE="20" COMMENT="" />
    <EXPORT ORDINAL="513" NAME="?Initialize@COwnButton@@QAEXIIKK@Z" PURGE="16" COMMENT="" />
    <EXPORT ORDINAL="514" NAME="?Initialize@COwnButton@@QAEXIK@Z" PURGE="8" COMMENT="" />
    <EXPORT ORDINAL="515" NAME="?Initialize@CProgressPercentageCtrl@@QAEXXZ" PURGE="0" COMMENT="" />
    <EXPORT ORDINAL="516" NAME="?Initialize@CTransStaticBmp@@QAEXIKW4Position@1@@Z" PURGE="12" COMMENT="" />
    <EXPORT ORDINAL="517" NAME="?Initialize@CTransStaticBmp@@QAEXIKW4Position@1@PAUHINSTANCE__@@@Z" PURGE="16" COMMENT="" />
    <EXPORT ORDINAL="518" NAME="?Initialize@CTransStaticBmp@@QAEXXZ" PURGE="0" COMMENT="" />
    <EXPORT ORDINAL="519" NAME="?Initialize@InsetWind@@QAEXVCString@@00@Z" PURGE="12" COMMENT="" />
    <EXPORT ORDINAL="520" NAME="?Initialize@InsetWind@@QAEXVCString@@@Z" PURGE="4" COMMENT="" />
    <EXPORT ORDINAL="521" NAME="?InitializeBmp@CBitmapProgressCtrl@@QAEXIK@Z" PURGE="8" COMMENT="" />
    <EXPORT ORDINAL="522" NAME="?InitializeBmps@CProgressPercentageCtrl@@QAEXXZ" PURGE="0" COMMENT="" />
    <EXPORT ORDINAL="523" NAME="?InitializeEnvironment@CLXShell32Ext@@IAEJXZ" PURGE="0" COMMENT="" />
    <EXPORT ORDINAL="524" NAME="?InitializeHoverState@CLPAButton@@QAEXPAVCDC@@@Z" PURGE="4" COMMENT="" />
    <EXPORT ORDINAL="525" NAME="?InitializeInkTanks@CGUIInkDisplay@@QAEHPAVCGUIInkTank@@W4BmpType@2@010101@Z" PURGE="32" COMMENT="" />
    <EXPORT ORDINAL="526" NAME="?InitializeInkTanks@CGUIInkDisplay@@QAEHPAVCGUIInkTank@@W4BmpType@2@01@Z" PURGE="16" COMMENT="" />
    <EXPORT ORDINAL="527" NAME="?InitializeInkTanks@CGUIInkDisplay@@QAEHPAVCGUIInkTank@@W4BmpType@2@@Z" PURGE="8" COMMENT="" />
    <EXPORT ORDINAL="528" NAME="?InitializeInkTanks@InkDisplay@@QAEHPAVInkTank@@W4BmpType@2@010101@Z" PURGE="32" COMMENT="" />
    <EXPORT ORDINAL="529" NAME="?InitializeInkTanks@InkDisplay@@QAEHPAVInkTank@@W4BmpType@2@01@Z" PURGE="16" COMMENT="" />
    <EXPORT ORDINAL="530" NAME="?InitializeInkTanks@InkDisplay@@QAEHPAVInkTank@@W4BmpType@2@@Z" PURGE="8" COMMENT="" />
    <EXPORT ORDINAL="531" NAME="?InitializeNoStretch@CGUIButton@@QAEXIIIKK@Z" PURGE="20" COMMENT="" />
    <EXPORT ORDINAL="532" NAME="?InitializeNoStretch@CGUIButton@@QAEXIIKK@Z" PURGE="16" COMMENT="" />
    <EXPORT ORDINAL="533" NAME="?InitializeNoStretch@CGUIButton@@QAEXIK@Z" PURGE="8" COMMENT="" />
    <EXPORT ORDINAL="534" NAME="?InitializeNoStretch@COwnButton@@QAEXIIIKK@Z" PURGE="20" COMMENT="" />
    <EXPORT ORDINAL="535" NAME="?InitializeNoStretch@COwnButton@@QAEXIIKK@Z" PURGE="16" COMMENT="" />
    <EXPORT ORDINAL="536" NAME="?InitializeNoStretch@COwnButton@@QAEXIK@Z" PURGE="8" COMMENT="" />
    <EXPORT ORDINAL="537" NAME="?IsChangeBitSet@CGUIInkDisplay@@QAEHW4CartPosition@1@@Z" PURGE="4" COMMENT="" />
    <EXPORT ORDINAL="538" NAME="?IsForceAlignSet@CGUIInkDisplay@@QAEHW4CartPosition@1@@Z" PURGE="4" COMMENT="" />
    <EXPORT ORDINAL="539" NAME="?IsInitialized@CLXShell32Ext@@QBEJXZ" PURGE="0" COMMENT="" />
    <EXPORT ORDINAL="540" NAME="?IsItALTCMY@CGUIInkDisplay@@QAEHH@Z" PURGE="4" COMMENT="" />
    <EXPORT ORDINAL="541" NAME="?IsItALTCMY@CGUIInkDisplay@@QAEHW4CartIDType@1@W4CartPosition@1@@Z" PURGE="8" COMMENT="" />
    <EXPORT ORDINAL="542" NAME="?IsItBlack@CGUIInkDisplay@@QAEHH@Z" PURGE="4" COMMENT="" />
    <EXPORT ORDINAL="543" NAME="?IsItBlack@CGUIInkDisplay@@QAEHW4CartIDType@1@W4CartPosition@1@@Z" PURGE="8" COMMENT="" />
    <EXPORT ORDINAL="544" NAME="?IsItCMY@CGUIInkDisplay@@QAEHH@Z" PURGE="4" COMMENT="" />
    <EXPORT ORDINAL="545" NAME="?IsItCMY@CGUIInkDisplay@@QAEHW4CartIDType@1@W4CartPosition@1@@Z" PURGE="8" COMMENT="" />
    <EXPORT ORDINAL="546" NAME="?IsItGeneric@CGUIInkDisplay@@QAEHH@Z" PURGE="4" COMMENT="" />
    <EXPORT ORDINAL="547" NAME="?IsItGeneric@CGUIInkDisplay@@QAEHW4CartIDType@1@W4CartPosition@1@@Z" PURGE="8" COMMENT="" />
    <EXPORT ORDINAL="548" NAME="?IsItHighYield@CGUIInkDisplay@@QAEHH@Z" PURGE="4" COMMENT="" />
    <EXPORT ORDINAL="549" NAME="?IsItHighYield@CGUIInkDisplay@@QAEHW4CartIDType@1@W4CartPosition@1@@Z" PURGE="8" COMMENT="" />
    <EXPORT ORDINAL="550" NAME="?IsItInvalid@CGUIInkDisplay@@QAEHH@Z" PURGE="4" COMMENT="" />
    <EXPORT ORDINAL="551" NAME="?IsItInvalid@CGUIInkDisplay@@QAEHW4CartIDType@1@W4CartPosition@1@@Z" PURGE="8" COMMENT="" />
    <EXPORT ORDINAL="552" NAME="?IsItKCM@CGUIInkDisplay@@QAEHH@Z" PURGE="4" COMMENT="" />
    <EXPORT ORDINAL="553" NAME="?IsItKCM@CGUIInkDisplay@@QAEHW4CartIDType@1@W4CartPosition@1@@Z" PURGE="8" COMMENT="" />
    <EXPORT ORDINAL="554" NAME="?IsItLowYield@CGUIInkDisplay@@QAEHH@Z" PURGE="4" COMMENT="" />
    <EXPORT ORDINAL="555" NAME="?IsItLowYield@CGUIInkDisplay@@QAEHW4CartIDType@1@W4CartPosition@1@@Z" PURGE="8" COMMENT="" />
    <EXPORT ORDINAL="556" NAME="?IsItMissing@CGUIInkDisplay@@QAEHH@Z" PURGE="4" COMMENT="" />
    <EXPORT ORDINAL="557" NAME="?IsItMissing@CGUIInkDisplay@@QAEHW4CartIDType@1@W4CartPosition@1@@Z" PURGE="8" COMMENT="" />
    <EXPORT ORDINAL="558" NAME="?IsItValid@CGUIInkDisplay@@QAEHH@Z" PURGE="4" COMMENT="" />
    <EXPORT ORDINAL="559" NAME="?IsItValid@CGUIInkDisplay@@QAEHW4CartIDType@1@W4CartPosition@1@@Z" PURGE="8" COMMENT="" />
    <EXPORT ORDINAL="560" NAME="?IsItWrongPosition@CGUIInkDisplay@@QAEHW4CartIDType@1@W4CartPosition@1@@Z" PURGE="8" COMMENT="" />
    <EXPORT ORDINAL="561" NAME="?IsLastPage@CWizardSheet@@AAEHXZ" PURGE="0" COMMENT="" />
    <EXPORT ORDINAL="562" NAME="?IsNoAlignSet@CGUIInkDisplay@@QAEHW4CartPosition@1@@Z" PURGE="4" COMMENT="" />
    <EXPORT ORDINAL="563" NAME="?IsOptionalAlignSet@CGUIInkDisplay@@QAEHW4CartPosition@1@@Z" PURGE="4" COMMENT="" />
    <EXPORT ORDINAL="564" NAME="?IsValidPath@CDirTreeCtrl@@IAEHPBD@Z" PURGE="4" COMMENT="" />
    <EXPORT ORDINAL="565" NAME="?KillMouseTracking@CGUILink@@QAEXXZ" PURGE="0" COMMENT="" />
    <EXPORT ORDINAL="566" NAME="?LaunchReorderInkApp@CGUIInkDisplay@@QAEXXZ" PURGE="0" COMMENT="" />
    <EXPORT ORDINAL="567" NAME="?LoadKey@CRegistry@@UAEXPBD0@Z" PURGE="8" COMMENT="" />
    <EXPORT ORDINAL="568" NAME="?LoadSetting@LxkProduct@@AAEXXZ" PURGE="0" COMMENT="" />
    <EXPORT ORDINAL="569" NAME="?LoadSettingsDLL@LxkProduct@@AAEXXZ" PURGE="0" COMMENT="" />
    <EXPORT ORDINAL="570" NAME="?LoadTransparent@CTransparentBmp@@QAEPAUHRGN__@@IKHPAVCRect@@@Z" PURGE="16" COMMENT="" />
    <EXPORT ORDINAL="571" NAME="?LoadTransparent@CTransparentBmp@@QAEPAUHRGN__@@IKPAVCRect@@@Z" PURGE="12" COMMENT="" />
    <EXPORT ORDINAL="572" NAME="?LoadTransparent@CTransparentBmp@@QAEPAUHRGN__@@PAUHINSTANCE__@@IKPAVCRect@@@Z" PURGE="16" COMMENT="" />
    <EXPORT ORDINAL="573" NAME="?LowerButton@CLPAButton@@QAEXH@Z" PURGE="4" COMMENT="" />
    <EXPORT ORDINAL="574" NAME="?LowerButton@CMenuButton@@QAEXH@Z" PURGE="4" COMMENT="" />
    <EXPORT ORDINAL="575" NAME="?LowerButton@COwnButton@@QAEXXZ" PURGE="0" COMMENT="" />
    <EXPORT ORDINAL="576" NAME="?MorphCursor@CGUIButton@@AAEXXZ" PURGE="0" COMMENT="" />
    <EXPORT ORDINAL="577" NAME="?MoveBackPage@CWizardSheet@@QAEHXZ" PURGE="0" COMMENT="" />
    <EXPORT ORDINAL="578" NAME="?MoveForwardPage@CWizardSheet@@QAEHXZ" PURGE="0" COMMENT="" />
    <EXPORT ORDINAL="579" NAME="?NoTabs@CWizardSheet@@QAEXXZ" PURGE="0" COMMENT="" />
    <EXPORT ORDINAL="580" NAME="?OffsetPos@CBitmapProgressCtrl@@QAEHH@Z" PURGE="4" COMMENT="" />
    <EXPORT ORDINAL="581" NAME="?OffsetPos@CTextProgressCtrl@@QAEHH@Z" PURGE="4" COMMENT="" />
    <EXPORT ORDINAL="582" NAME="?OffsetTopLeft@CGUILink@@QAEXHH@Z" PURGE="8" COMMENT="" />
    <EXPORT ORDINAL="583" NAME="?OnActivate@CWizardSheet@@IAEXIPAVCWnd@@H@Z" PURGE="12" COMMENT="" />
    <EXPORT ORDINAL="584" NAME="?OnActivateApp@CColourPopup@@IAEXHPAUHTASK__@@@Z" PURGE="8" COMMENT="" />
    <EXPORT ORDINAL="585" NAME="?OnAlwaysShow@JSWOptionsDlg@@IAEXXZ" PURGE="0" COMMENT="" />
    <EXPORT ORDINAL="586" NAME="?OnBeginDrag@CLXTreeCtrl@@IAEXPAUtagNMHDR@@PAJ@Z" PURGE="8" COMMENT="" />
    <EXPORT ORDINAL="587" NAME="?OnCancel@JSWOptionsDlg@@MAEXXZ" PURGE="0" COMMENT="" />
    <EXPORT ORDINAL="588" NAME="?OnChildNotify@CLXTreeCtrl@@UAEHIIJPAJ@Z" PURGE="16" COMMENT="" />
    <EXPORT ORDINAL="589" NAME="?OnClicked@CColourPicker@@IAEHXZ" PURGE="0" COMMENT="" />
    <EXPORT ORDINAL="590" NAME="?OnClose@JSWOptionsDlg@@IAEXXZ" PURGE="0" COMMENT="" />
    <EXPORT ORDINAL="591" NAME="?OnContextMenu@JSWOptionsDlg@@IAEXPAVCWnd@@VCPoint@@@Z" PURGE="12" COMMENT="" />
    <EXPORT ORDINAL="592" NAME="?OnCreate@CColourPicker@@IAEHPAUtagCREATESTRUCTA@@@Z" PURGE="4" COMMENT="" />
    <EXPORT ORDINAL="593" NAME="?OnCreate@CDirTreeCtrl@@IAEHPAUtagCREATESTRUCTA@@@Z" PURGE="4" COMMENT="" />
    <EXPORT ORDINAL="594" NAME="?OnDeleteTreeItem@CLXTreeCtrl@@IAEXPAUtagNMHDR@@PAJ@Z" PURGE="8" COMMENT="" />
    <EXPORT ORDINAL="595" NAME="?OnDetails@VersionDlg@@IAEXXZ" PURGE="0" COMMENT="" />
    <EXPORT ORDINAL="596" NAME="?OnDropFiles@CDirTreeCtrl@@IAEXPAUHDROP__@@@Z" PURGE="4" COMMENT="" />
    <EXPORT ORDINAL="597" NAME="?OnEraseBkgnd@CBitmapProgressCtrl@@IAEHPAVCDC@@@Z" PURGE="4" COMMENT="" />
    <EXPORT ORDINAL="598" NAME="?OnEraseBkgnd@CGUIButton@@IAEHPAVCDC@@@Z" PURGE="4" COMMENT="" />
    <EXPORT ORDINAL="599" NAME="?OnEraseBkgnd@CGUILink@@IAEHPAVCDC@@@Z" PURGE="4" COMMENT="" />
    <EXPORT ORDINAL="600" NAME="?OnEraseBkgnd@CLPAButton@@QAEHPAVCDC@@@Z" PURGE="4" COMMENT="" />
    <EXPORT ORDINAL="601" NAME="?OnEraseBkgnd@CLink@@IAEHPAVCDC@@@Z" PURGE="4" COMMENT="" />
    <EXPORT ORDINAL="602" NAME="?OnEraseBkgnd@CMenuButton@@QAEHPAVCDC@@@Z" PURGE="4" COMMENT="" />
    <EXPORT ORDINAL="603" NAME="?OnEraseBkgnd@COwnButton@@IAEHPAVCDC@@@Z" PURGE="4" COMMENT="" />
    <EXPORT ORDINAL="604" NAME="?OnEraseBkgnd@CProgressPercentageCtrl@@IAEHPAVCDC@@@Z" PURGE="4" COMMENT="" />
    <EXPORT ORDINAL="605" NAME="?OnEraseBkgnd@CTextProgressCtrl@@IAEHPAVCDC@@@Z" PURGE="4" COMMENT="" />
    <EXPORT ORDINAL="606" NAME="?OnEraseBkgnd@Cstatbk@@IAEHPAVCDC@@@Z" PURGE="4" COMMENT="" />
    <EXPORT ORDINAL="607" NAME="?OnEraseBkgnd@InsetWind@@IAEHPAVCDC@@@Z" PURGE="4" COMMENT="" />
    <EXPORT ORDINAL="608" NAME="?OnEraseBkgnd@JSWOptionsDlg@@IAEHPAVCDC@@@Z" PURGE="4" COMMENT="" />
    <EXPORT ORDINAL="609" NAME="?OnEraseBkgnd@PopupDialog@@MAEHPAVCDC@@@Z" PURGE="4" COMMENT="" />
    <EXPORT ORDINAL="610" NAME="?OnEraseBkgnd@VersionDlg@@IAEHPAVCDC@@@Z" PURGE="4" COMMENT="" />
    <EXPORT ORDINAL="611" NAME="?OnExpandingTree@CLXTreeCtrl@@IAEXPAUtagNMHDR@@PAJ@Z" PURGE="8" COMMENT="" />
    <EXPORT ORDINAL="612" NAME="?OnGetText@CTextProgressCtrl@@IAEJIPAD@Z" PURGE="8" COMMENT="" />
    <EXPORT ORDINAL="613" NAME="?OnGetTreeDispInfo@CLXTreeCtrl@@IAEXPAUtagNMHDR@@PAJ@Z" PURGE="8" COMMENT="" />
    <EXPORT ORDINAL="614" NAME="?OnHelpInfo@JSWOptionsDlg@@IAEXPAUtagHELPINFO@@@Z" PURGE="4" COMMENT="" />
    <EXPORT ORDINAL="615" NAME="?OnInitDialog@CWizardSheet@@UAEHXZ" PURGE="0" COMMENT="" />
    <EXPORT ORDINAL="616" NAME="?OnInitDialog@JSWOptionsDlg@@MAEHXZ" PURGE="0" COMMENT="" />
    <EXPORT ORDINAL="617" NAME="?OnInitDialog@PopupDialog@@MAEHXZ" PURGE="0" COMMENT="" />
    <EXPORT ORDINAL="618" NAME="?OnInitDialog@VersionDlg@@MAEHXZ" PURGE="0" COMMENT="" />
    <EXPORT ORDINAL="619" NAME="?OnInitialized@CLXFolderDialog@@MAEXXZ" PURGE="0" COMMENT="" />
    <EXPORT ORDINAL="620" NAME="?OnItemexpanded@CDirTreeCtrl@@IAEXPAUtagNMHDR@@PAJ@Z" PURGE="8" COMMENT="" />
    <EXPORT ORDINAL="621" NAME="?OnKeyDown@CColourPopup@@IAEXIII@Z" PURGE="12" COMMENT="" />
    <EXPORT ORDINAL="622" NAME="?OnKillFocus@CColourPopup@@IAEXPAVCWnd@@@Z" PURGE="4" COMMENT="" />
    <EXPORT ORDINAL="623" NAME="?OnKillFocus@CGUILink@@IAEXPAVCWnd@@@Z" PURGE="4" COMMENT="" />
    <EXPORT ORDINAL="624" NAME="?OnKillFocus@CLink@@IAEXPAVCWnd@@@Z" PURGE="4" COMMENT="" />
    <EXPORT ORDINAL="625" NAME="?OnLButtonDblClk@CLPAButton@@IAEXIVCPoint@@@Z" PURGE="12" COMMENT="" />
    <EXPORT ORDINAL="626" NAME="?OnLButtonDown@CColourPopup@@IAEXIVCPoint@@@Z" PURGE="12" COMMENT="" />
    <EXPORT ORDINAL="627" NAME="?OnLButtonDown@CGUIButton@@IAEXIVCPoint@@@Z" PURGE="12" COMMENT="" />
    <EXPORT ORDINAL="628" NAME="?OnLButtonDown@CGUILink@@IAEXIVCPoint@@@Z" PURGE="12" COMMENT="" />
    <EXPORT ORDINAL="629" NAME="?OnLButtonDown@CLPAButton@@IAEXIVCPoint@@@Z" PURGE="12" COMMENT="" />
    <EXPORT ORDINAL="630" NAME="?OnLButtonDown@CLink@@IAEXIVCPoint@@@Z" PURGE="12" COMMENT="" />
    <EXPORT ORDINAL="631" NAME="?OnLButtonDown@CMenuButton@@QAEXIVCPoint@@@Z" PURGE="12" COMMENT="" />
    <EXPORT ORDINAL="632" NAME="?OnLButtonDown@COwnButton@@IAEXIVCPoint@@@Z" PURGE="12" COMMENT="" />
    <EXPORT ORDINAL="633" NAME="?OnLButtonDown@Cstatbk@@IAEXIVCPoint@@@Z" PURGE="12" COMMENT="" />
    <EXPORT ORDINAL="634" NAME="?OnLButtonDown@InsetWind@@IAEXIVCPoint@@@Z" PURGE="12" COMMENT="" />
    <EXPORT ORDINAL="635" NAME="?OnLButtonDown@TransStaticEdit@@IAEXIVCPoint@@@Z" PURGE="12" COMMENT="" />
    <EXPORT ORDINAL="636" NAME="?OnLButtonDown@transbkstatic@@IAEXIVCPoint@@@Z" PURGE="12" COMMENT="" />
    <EXPORT ORDINAL="637" NAME="?OnLButtonUp@CColourPopup@@IAEXIVCPoint@@@Z" PURGE="12" COMMENT="" />
    <EXPORT ORDINAL="638" NAME="?OnLButtonUp@CGUIButton@@IAEXIVCPoint@@@Z" PURGE="12" COMMENT="" />
    <EXPORT ORDINAL="639" NAME="?OnLButtonUp@CGUILink@@IAEXIVCPoint@@@Z" PURGE="12" COMMENT="" />
    <EXPORT ORDINAL="640" NAME="?OnLButtonUp@CLPAButton@@IAEXIVCPoint@@@Z" PURGE="12" COMMENT="" />
    <EXPORT ORDINAL="641" NAME="?OnLButtonUp@CLink@@IAEXIVCPoint@@@Z" PURGE="12" COMMENT="" />
    <EXPORT ORDINAL="642" NAME="?OnLButtonUp@CLpaTip@@IAEXIVCPoint@@@Z" PURGE="12" COMMENT="" />
    <EXPORT ORDINAL="643" NAME="?OnLButtonUp@CMenuButton@@IAEXIVCPoint@@@Z" PURGE="12" COMMENT="" />
    <EXPORT ORDINAL="644" NAME="?OnLButtonUp@COwnButton@@IAEXIVCPoint@@@Z" PURGE="12" COMMENT="" />
    <EXPORT ORDINAL="645" NAME="?OnLButtonUp@InsetWind@@IAEXIVCPoint@@@Z" PURGE="12" COMMENT="" />
    <EXPORT ORDINAL="646" NAME="?OnLegal@VersionDlg@@IAEXXZ" PURGE="0" COMMENT="" />
    <EXPORT ORDINAL="647" NAME="?OnLink@JSWOptionsDlg@@IAEXXZ" PURGE="0" COMMENT="" />
    <EXPORT ORDINAL="648" NAME="?OnMouseLeave@CGUILink@@IAEJIJ@Z" PURGE="8" COMMENT="" />
    <EXPORT ORDINAL="649" NAME="?OnMouseMove@CColourPopup@@IAEXIVCPoint@@@Z" PURGE="12" COMMENT="" />
    <EXPORT ORDINAL="650" NAME="?OnMouseMove@CGUIButton@@IAEXIVCPoint@@@Z" PURGE="12" COMMENT="" />
    <EXPORT ORDINAL="651" NAME="?OnMouseMove@CGUILink@@IAEXIVCPoint@@@Z" PURGE="12" COMMENT="" />
    <EXPORT ORDINAL="652" NAME="?OnMouseMove@CLPAButton@@IAEXIVCPoint@@@Z" PURGE="12" COMMENT="" />
    <EXPORT ORDINAL="653" NAME="?OnMouseMove@CLink@@IAEXIVCPoint@@@Z" PURGE="12" COMMENT="" />
    <EXPORT ORDINAL="654" NAME="?OnMouseMove@CLpaTip@@IAEXIVCPoint@@@Z" PURGE="12" COMMENT="" />
    <EXPORT ORDINAL="655" NAME="?OnMouseMove@CMenuButton@@IAEXIVCPoint@@@Z" PURGE="12" COMMENT="" />
    <EXPORT ORDINAL="656" NAME="?OnMouseMove@COwnButton@@IAEXIVCPoint@@@Z" PURGE="12" COMMENT="" />
    <EXPORT ORDINAL="657" NAME="?OnMouseMove@Cstatbk@@IAEXIVCPoint@@@Z" PURGE="12" COMMENT="" />
    <EXPORT ORDINAL="658" NAME="?OnMouseMove@InsetWind@@IAEXIVCPoint@@@Z" PURGE="12" COMMENT="" />
    <EXPORT ORDINAL="659" NAME="?OnNcActivate@CCaptionBar@@QAEHH@Z" PURGE="4" COMMENT="" />
    <EXPORT ORDINAL="660" NAME="?OnNcDestroy@CColourPopup@@IAEXXZ" PURGE="0" COMMENT="" />
    <EXPORT ORDINAL="661" NAME="?OnNcPaint@CCaptionBar@@QAEXXZ" PURGE="0" COMMENT="" />
    <EXPORT ORDINAL="662" NAME="?OnNeverShow@JSWOptionsDlg@@IAEXXZ" PURGE="0" COMMENT="" />
    <EXPORT ORDINAL="663" NAME="?OnNext@JSWOptionsDlg@@IAEXXZ" PURGE="0" COMMENT="" />
    <EXPORT ORDINAL="664" NAME="?OnOk@JSWOptionsDlg@@IAEXXZ" PURGE="0" COMMENT="" />
    <EXPORT ORDINAL="665" NAME="?OnPaint@CColourPopup@@IAEXXZ" PURGE="0" COMMENT="" />
    <EXPORT ORDINAL="666" NAME="?OnPaint@CLpaTip@@IAEXXZ" PURGE="0" COMMENT="" />
    <EXPORT ORDINAL="667" NAME="?OnPaint@CTextProgressCtrl@@IAEXXZ" PURGE="0" COMMENT="" />
    <EXPORT ORDINAL="668" NAME="?OnPaint@InsetWind@@IAEXXZ" PURGE="0" COMMENT="" />
    <EXPORT ORDINAL="669" NAME="?OnPaint@TransStaticEdit@@IAEXXZ" PURGE="0" COMMENT="" />
    <EXPORT ORDINAL="670" NAME="?OnPaint@transbkstatic@@IAEXXZ" PURGE="0" COMMENT="" />
    <EXPORT ORDINAL="671" NAME="?OnPaletteChanged@CColourPopup@@IAEXPAVCWnd@@@Z" PURGE="4" COMMENT="" />
    <EXPORT ORDINAL="672" NAME="?OnPaletteChanged@JSWOptionsDlg@@IAEXPAVCWnd@@@Z" PURGE="4" COMMENT="" />
    <EXPORT ORDINAL="673" NAME="?OnPaletteChanged@VersionDlg@@IAEXPAVCWnd@@@Z" PURGE="4" COMMENT="" />
    <EXPORT ORDINAL="674" NAME="?OnPrevious@JSWOptionsDlg@@IAEXXZ" PURGE="0" COMMENT="" />
    <EXPORT ORDINAL="675" NAME="?OnQueryNewPalette@CColourPopup@@IAEHXZ" PURGE="0" COMMENT="" />
    <EXPORT ORDINAL="676" NAME="?OnQueryNewPalette@JSWOptionsDlg@@IAEHXZ" PURGE="0" COMMENT="" />
    <EXPORT ORDINAL="677" NAME="?OnQueryNewPalette@VersionDlg@@IAEHXZ" PURGE="0" COMMENT="" />
    <EXPORT ORDINAL="678" NAME="?OnSelChange@CColourPicker@@IAEJIJ@Z" PURGE="8" COMMENT="" />
    <EXPORT ORDINAL="679" NAME="?OnSelChanged@CLXFolderDialog@@MAEXPAU_ITEMIDLIST@@@Z" PURGE="4" COMMENT="" />
    <EXPORT ORDINAL="680" NAME="?OnSelEndCancel@CColourPicker@@IAEJIJ@Z" PURGE="8" COMMENT="" />
    <EXPORT ORDINAL="681" NAME="?OnSelEndOK@CColourPicker@@IAEJIJ@Z" PURGE="8" COMMENT="" />
    <EXPORT ORDINAL="682" NAME="?OnSelectionChanged@CLXTreeCtrl@@IAEXPAUtagNMHDR@@PAJ@Z" PURGE="8" COMMENT="" />
    <EXPORT ORDINAL="683" NAME="?OnSetFocus@CGUILink@@IAEXPAVCWnd@@@Z" PURGE="4" COMMENT="" />
    <EXPORT ORDINAL="684" NAME="?OnSetText@CTextProgressCtrl@@IAEJIPBD@Z" PURGE="8" COMMENT="" />
    <EXPORT ORDINAL="685" NAME="?OnShowMinimized@JSWOptionsDlg@@IAEXXZ" PURGE="0" COMMENT="" />
    <EXPORT ORDINAL="686" NAME="?OnSize@CTextProgressCtrl@@IAEXIHH@Z" PURGE="12" COMMENT="" />
    <EXPORT ORDINAL="687" NAME="?OnSound@JSWOptionsDlg@@IAEXXZ" PURGE="0" COMMENT="" />
    <EXPORT ORDINAL="688" NAME="?OnSysColorChange@Cstatbk@@IAEXXZ" PURGE="0" COMMENT="" />
    <EXPORT ORDINAL="689" NAME="?OnSysColorChange@VersionDlg@@IAEXXZ" PURGE="0" COMMENT="" />
    <EXPORT ORDINAL="690" NAME="?OnValidateFailed@CLXFolderDialog@@MAEHPBD@Z" PURGE="4" COMMENT="" />
    <EXPORT ORDINAL="691" NAME="?OnWebTuneUp@VersionDlg@@IAEXXZ" PURGE="0" COMMENT="" />
    <EXPORT ORDINAL="692" NAME="?Open@CRegistry@@UAEHPAUHKEY__@@PBDKK@Z" PURGE="16" COMMENT="" />
    <EXPORT ORDINAL="693" NAME="?OutputData@CSpy@@QAEHH@Z" PURGE="4" COMMENT="" />
    <EXPORT ORDINAL="694" NAME="?OutputData@CSpy@@QAEHJ@Z" PURGE="4" COMMENT="" />
    <EXPORT ORDINAL="695" NAME="?OutputData@CSpy@@QAEHK@Z" PURGE="4" COMMENT="" />
    <EXPORT ORDINAL="696" NAME="?OutputData@CSpy@@QAEHM@Z" PURGE="4" COMMENT="" />
    <EXPORT ORDINAL="697" NAME="?OutputData@CSpy@@QAEHPAEH@Z" PURGE="8" COMMENT="" />
    <EXPORT ORDINAL="698" NAME="?OutputData@CSpy@@QAEHPAUALIGNINFO@@@Z" PURGE="4" COMMENT="" />
    <EXPORT ORDINAL="699" NAME="?OutputData@CSpy@@QAEHPAUINKINFO@@@Z" PURGE="4" COMMENT="" />
    <EXPORT ORDINAL="700" NAME="?OutputData@CSpy@@QAEHPAULCDEVMODE@@@Z" PURGE="4" COMMENT="" />
    <EXPORT ORDINAL="701" NAME="?OutputData@CSpy@@QAEHPAUPORTINFO@@@Z" PURGE="4" COMMENT="" />
    <EXPORT ORDINAL="702" NAME="?OutputData@CSpy@@QAEHPAUPRINTERPORTINFO@@@Z" PURGE="4" COMMENT="" />
    <EXPORT ORDINAL="703" NAME="?OutputData@CSpy@@QAEHPAUSTATUSINFO@@@Z" PURGE="4" COMMENT="" />
    <EXPORT ORDINAL="704" NAME="?OutputData@CSpy@@QAEHPAUSUBNETINFO@@@Z" PURGE="4" COMMENT="" />
    <EXPORT ORDINAL="705" NAME="?OutputData@CSpy@@QAEHPAUUPDPROXYINFO@@@Z" PURGE="4" COMMENT="" />
    <EXPORT ORDINAL="706" NAME="?OutputData@CSpy@@QAEHVCString@@@Z" PURGE="4" COMMENT="" />
    <EXPORT ORDINAL="707" NAME="?PreSubclassWindow@CColourPicker@@MAEXXZ" PURGE="0" COMMENT="" />
    <EXPORT ORDINAL="708" NAME="?PreTranslateMessage@CColourPopup@@UAEHPAUtagMSG@@@Z" PURGE="4" COMMENT="" />
    <EXPORT ORDINAL="709" NAME="?PreTranslateMessage@CGUIExpandWnd@@UAEHPAUtagMSG@@@Z" PURGE="4" COMMENT="" />
    <EXPORT ORDINAL="710" NAME="?PreTranslateMessage@JSWOptionsDlg@@MAEHPAUtagMSG@@@Z" PURGE="4" COMMENT="" />
    <EXPORT ORDINAL="711" NAME="?RaiseButton@CLPAButton@@QAEXH@Z" PURGE="4" COMMENT="" />
    <EXPORT ORDINAL="712" NAME="?RaiseButton@CMenuButton@@QAEXH@Z" PURGE="4" COMMENT="" />
    <EXPORT ORDINAL="713" NAME="?RaiseButton@COwnButton@@QAEXXZ" PURGE="0" COMMENT="" />
    <EXPORT ORDINAL="714" NAME="?Read@CRegistry@@UAEXPAEPAK1PAD@Z" PURGE="16" COMMENT="" />
    <EXPORT ORDINAL="715" NAME="?ReadINI@LxkIniFile@@QAE?AVCString@@V2@000@Z" PURGE="20" COMMENT="" />
    <EXPORT ORDINAL="716" NAME="?ReadINI@LxkIniFile@@QAE?AVCString@@V2@00@Z" PURGE="16" COMMENT="" />
    <EXPORT ORDINAL="717" NAME="?Remove@CRegistry@@UAEXPBD@Z" PURGE="4" COMMENT="" />
    <EXPORT ORDINAL="718" NAME="?ReportError@CGUIUrlLink@@QAEXH@Z" PURGE="4" COMMENT="" />
    <EXPORT ORDINAL="719" NAME="?ReportError@CUrlLink@@SAXH@Z" PURGE="0" COMMENT="" />
    <EXPORT ORDINAL="720" NAME="?ResetBkgnd@CTransStaticBmp@@QAEXPAVCDC@@@Z" PURGE="4" COMMENT="" />
    <EXPORT ORDINAL="721" NAME="?ResetDimensions@CGUIDIB@@QAEXXZ" PURGE="0" COMMENT="" />
    <EXPORT ORDINAL="722" NAME="?RestoreKey@CRegistry@@UAEXPBDK@Z" PURGE="8" COMMENT="" />
    <EXPORT ORDINAL="723" NAME="?ReturnHeight@CTransparentBmp@@QAEHXZ" PURGE="0" COMMENT="" />
    <EXPORT ORDINAL="724" NAME="?ReturnWidth@CTransparentBmp@@QAEHXZ" PURGE="0" COMMENT="" />
    <EXPORT ORDINAL="725" NAME="?RotateBitmap@CGUIDIB@@QAEPAUHBITMAP__@@PAU2@MK@Z" PURGE="12" COMMENT="" />
    <EXPORT ORDINAL="726" NAME="?SaveKey@CRegistry@@UAEXPBDPAU_SECURITY_ATTRIBUTES@@@Z" PURGE="8" COMMENT="" />
    <EXPORT ORDINAL="727" NAME="?SaveSettings@JSWOptionsDlg@@QAEHXZ" PURGE="0" COMMENT="" />
    <EXPORT ORDINAL="728" NAME="?ScaleDIBToHBMP@CGUIDIB@@QAEPAUHBITMAP__@@PAXPAVCDC@@HHMMHHHH@Z" PURGE="40" COMMENT="" />
    <EXPORT ORDINAL="729" NAME="?ScaleHBMP@CGUIDIB@@QAEPAUHBITMAP__@@HHHHM@Z" PURGE="20" COMMENT="" />
    <EXPORT ORDINAL="730" NAME="?ScaleHBMPToPercentage@CGUIDIB@@QAEPAUHBITMAP__@@HM@Z" PURGE="8" COMMENT="" />
    <EXPORT ORDINAL="731" NAME="?SearchSiblingItem@CDirTreeCtrl@@IAEPAU_TREEITEM@@PAU2@PBD@Z" PURGE="8" COMMENT="" />
    <EXPORT ORDINAL="732" NAME="?SelectPath@CLXTreeCtrl@@QAEHPBD@Z" PURGE="4" COMMENT="" />
    <EXPORT ORDINAL="733" NAME="?SetAllToolTipsDown@CLPAButton@@QAEXH@Z" PURGE="4" COMMENT="" />
    <EXPORT ORDINAL="734" NAME="?SetArrowPos@CMenuButton@@QAEXH@Z" PURGE="4" COMMENT="" />
    <EXPORT ORDINAL="735" NAME="?SetBacks@COwnButton@@QAEXXZ" PURGE="0" COMMENT="" />
    <EXPORT ORDINAL="736" NAME="?SetBkColor@TransStaticEdit@@QAEXK@Z" PURGE="4" COMMENT="" />
    <EXPORT ORDINAL="737" NAME="?SetBkColor@transbkstatic@@QAEXK@Z" PURGE="4" COMMENT="" />
    <EXPORT ORDINAL="738" NAME="?SetBkColour@CBitmapProgressCtrl@@QAEXK@Z" PURGE="4" COMMENT="" />
    <EXPORT ORDINAL="739" NAME="?SetBkColour@CColourPicker@@QAEXK@Z" PURGE="4" COMMENT="" />
    <EXPORT ORDINAL="740" NAME="?SetBkColour@CTextProgressCtrl@@QAEXK@Z" PURGE="4" COMMENT="" />
    <EXPORT ORDINAL="741" NAME="?SetBkgnd@CTransparentBmp@@QAEXPAVCDC@@PAVCRect@@@Z" PURGE="8" COMMENT="" />
    <EXPORT ORDINAL="742" NAME="?SetBkgnd@CTransparentBmp@@QAEXPAVCPaintDC@@PAVCRect@@@Z" PURGE="8" COMMENT="" />
    <EXPORT ORDINAL="743" NAME="?SetBmpForInkLevel@CGUIInkTank@@AAEHXZ" PURGE="0" COMMENT="" />
    <EXPORT ORDINAL="744" NAME="?SetBmpForInkLevel@InkTank@@AAEHXZ" PURGE="0" COMMENT="" />
    <EXPORT ORDINAL="745" NAME="?SetBmpType@CGUIInkDisplay@@QAEHW4BmpType@CGUIInkTank@@@Z" PURGE="4" COMMENT="" />
    <EXPORT ORDINAL="746" NAME="?SetBmpType@CGUIInkTank@@QAEHW4BmpType@1@@Z" PURGE="4" COMMENT="" />
    <EXPORT ORDINAL="747" NAME="?SetBmpType@InkDisplay@@QAEHW4BmpType@InkTank@@@Z" PURGE="4" COMMENT="" />
    <EXPORT ORDINAL="748" NAME="?SetBmpType@InkTank@@QAEHW4BmpType@1@@Z" PURGE="4" COMMENT="" />
    <EXPORT ORDINAL="749" NAME="?SetBold@CGUIFont@@QAEXH@Z" PURGE="4" COMMENT="" />
    <EXPORT ORDINAL="750" NAME="?SetBold@TransStaticEdit@@QAEXH@Z" PURGE="4" COMMENT="" />
    <EXPORT ORDINAL="751" NAME="?SetBold@TransStaticEdit@@QAEXXZ" PURGE="0" COMMENT="" />
    <EXPORT ORDINAL="752" NAME="?SetBold@transbkstatic@@QAEXH@Z" PURGE="4" COMMENT="" />
    <EXPORT ORDINAL="753" NAME="?SetBold@transbkstatic@@QAEXXZ" PURGE="0" COMMENT="" />
    <EXPORT ORDINAL="754" NAME="?SetCaptionBkColor@CCaptionBar@@QAEXK@Z" PURGE="4" COMMENT="" />
    <EXPORT ORDINAL="755" NAME="?SetCaptionText@CCaptionBar@@QAEXVCString@@@Z" PURGE="4" COMMENT="" />
    <EXPORT ORDINAL="756" NAME="?SetClipRgn@CTransparentBmp@@QAEXPAUHRGN__@@@Z" PURGE="4" COMMENT="" />
    <EXPORT ORDINAL="757" NAME="?SetColor@CGUIInkTank@@QAEHW4InkColor@1@@Z" PURGE="4" COMMENT="" />
    <EXPORT ORDINAL="758" NAME="?SetColor@InkTank@@QAEHW4InkColor@1@@Z" PURGE="4" COMMENT="" />
    <EXPORT ORDINAL="759" NAME="?SetColour@CColourPicker@@QAEXK@Z" PURGE="4" COMMENT="" />
    <EXPORT ORDINAL="760" NAME="?SetCustomText@CColourPicker@@QAEXPBD@Z" PURGE="4" COMMENT="" />
    <EXPORT ORDINAL="761" NAME="?SetDefaultCursor@CGUILink@@KAXXZ" PURGE="0" COMMENT="" />
    <EXPORT ORDINAL="762" NAME="?SetDefaultCursor@CLink@@KAXXZ" PURGE="0" COMMENT="" />
    <EXPORT ORDINAL="763" NAME="?SetDefaultText@CColourPicker@@QAEXPBD@Z" PURGE="4" COMMENT="" />
    <EXPORT ORDINAL="764" NAME="?SetDimensions@CGUIDIB@@QAEXMM@Z" PURGE="8" COMMENT="" />
    <EXPORT ORDINAL="765" NAME="?SetDisabledBitmap@CGUIButton@@QAEXIK@Z" PURGE="8" COMMENT="" />
    <EXPORT ORDINAL="766" NAME="?SetDisabledBitmap@CGUILink@@QAEXIKK@Z" PURGE="12" COMMENT="" />
    <EXPORT ORDINAL="767" NAME="?SetDisabledBitmap@COwnButton@@QAEXIK@Z" PURGE="8" COMMENT="" />
    <EXPORT ORDINAL="768" NAME="?SetDistanceFromTop@CWizardSheet@@QAEXH@Z" PURGE="4" COMMENT="" />
    <EXPORT ORDINAL="769" NAME="?SetDownColor@CMenuButton@@QAEXK@Z" PURGE="4" COMMENT="" />
    <EXPORT ORDINAL="770" NAME="?SetDropCount@CGUIInkTank@@QAEHH@Z" PURGE="4" COMMENT="" />
    <EXPORT ORDINAL="771" NAME="?SetDropCount@InkTank@@QAEHH@Z" PURGE="4" COMMENT="" />
    <EXPORT ORDINAL="772" NAME="?SetFillDirection@CBitmapProgressCtrl@@QAEXH@Z" PURGE="4" COMMENT="" />
    <EXPORT ORDINAL="773" NAME="?SetFillTextBK@transbkstatic@@QAEXH@Z" PURGE="4" COMMENT="" />
    <EXPORT ORDINAL="774" NAME="?SetFillTextBKColor@transbkstatic@@QAEXK@Z" PURGE="4" COMMENT="" />
    <EXPORT ORDINAL="775" NAME="?SetFont@CGUILink@@QAEXPAVCGUIFont@@@Z" PURGE="4" COMMENT="" />
    <EXPORT ORDINAL="776" NAME="?SetForeColour@CBitmapProgressCtrl@@QAEXK@Z" PURGE="4" COMMENT="" />
    <EXPORT ORDINAL="777" NAME="?SetForeColour@CTextProgressCtrl@@QAEXK@Z" PURGE="4" COMMENT="" />
    <EXPORT ORDINAL="778" NAME="?SetFriendlyName@CRegistry@@QAEXVCString@@@Z" PURGE="4" COMMENT="" />
    <EXPORT ORDINAL="779" NAME="?SetHeight@CGUIFont@@QAEXH@Z" PURGE="4" COMMENT="" />
    <EXPORT ORDINAL="780" NAME="?SetHeight@CTransparentBmp@@QAEXH@Z" PURGE="4" COMMENT="" />
    <EXPORT ORDINAL="781" NAME="?SetHoverColor@CMenuButton@@QAEXK@Z" PURGE="4" COMMENT="" />
    <EXPORT ORDINAL="782" NAME="?SetInkInfo@CGUIInkDisplay@@QAEHPAUINKINFO@@@Z" PURGE="4" COMMENT="" />
    <EXPORT ORDINAL="783" NAME="?SetInkInfo@InkDisplay@@QAEHPAUINKINFO@@@Z" PURGE="4" COMMENT="" />
    <EXPORT ORDINAL="784" NAME="?SetInkLevel@CGUIInkTank@@QAEHH@Z" PURGE="4" COMMENT="" />
    <EXPORT ORDINAL="785" NAME="?SetInkLevel@InkTank@@QAEHH@Z" PURGE="4" COMMENT="" />
    <EXPORT ORDINAL="786" NAME="?SetInkPercent@CGUIInkTank@@QAEXH@Z" PURGE="4" COMMENT="" />
    <EXPORT ORDINAL="787" NAME="?SetInkPercent@InkTank@@QAEXH@Z" PURGE="4" COMMENT="" />
    <EXPORT ORDINAL="788" NAME="?SetLarge@PopupDialog@@QAEXH@Z" PURGE="4" COMMENT="" />
    <EXPORT ORDINAL="789" NAME="?SetLinkHoverColor@CGUILink@@QAEXK@Z" PURGE="4" COMMENT="" />
    <EXPORT ORDINAL="790" NAME="?SetLinkHoverColor@CLink@@QAEXK@Z" PURGE="4" COMMENT="" />
    <EXPORT ORDINAL="791" NAME="?SetLinkTextColor@CGUILink@@QAEXK@Z" PURGE="4" COMMENT="" />
    <EXPORT ORDINAL="792" NAME="?SetLinkTextColor@CLink@@QAEXK@Z" PURGE="4" COMMENT="" />
    <EXPORT ORDINAL="793" NAME="?SetLogFont@CGUIFont@@QAEXUtagLOGFONTA@@@Z" PURGE="60" COMMENT="" />
    <EXPORT ORDINAL="794" NAME="?SetMapSystemColors@CGUIButton@@QAEXH@Z" PURGE="4" COMMENT="" />
    <EXPORT ORDINAL="795" NAME="?SetMapSystemColors@CTransStaticBmp@@QAEXH@Z" PURGE="4" COMMENT="" />
    <EXPORT ORDINAL="796" NAME="?SetMapSystemColors@CTransparentBmp@@QAEXH@Z" PURGE="4" COMMENT="" />
    <EXPORT ORDINAL="797" NAME="?SetMessage@PopupDialog@@QAEXVCString@@@Z" PURGE="4" COMMENT="" />
    <EXPORT ORDINAL="798" NAME="?SetMessage@PopupWindow@@QAEHVCString@@@Z" PURGE="4" COMMENT="" />
    <EXPORT ORDINAL="799" NAME="?SetOverlap@CGUIButton@@QAEXH@Z" PURGE="4" COMMENT="" />
    <EXPORT ORDINAL="800" NAME="?SetOverlap@CTransparentBmp@@QAEXH@Z" PURGE="4" COMMENT="" />
    <EXPORT ORDINAL="801" NAME="?SetPaperSize@CGUIDIB@@QAEXK@Z" PURGE="4" COMMENT="" />
    <EXPORT ORDINAL="802" NAME="?SetPos@CBitmapProgressCtrl@@QAEHH@Z" PURGE="4" COMMENT="" />
    <EXPORT ORDINAL="803" NAME="?SetPos@CTextProgressCtrl@@QAEHH@Z" PURGE="4" COMMENT="" />
    <EXPORT ORDINAL="804" NAME="?SetPosition@PopupWindow@@QAEXPAUtagRECT@@@Z" PURGE="4" COMMENT="" />
    <EXPORT ORDINAL="805" NAME="?SetPreviewHeight@CGUIDIB@@QAEXH@Z" PURGE="4" COMMENT="" />
    <EXPORT ORDINAL="806" NAME="?SetPreviewWidth@CGUIDIB@@QAEXH@Z" PURGE="4" COMMENT="" />
    <EXPORT ORDINAL="807" NAME="?SetRange@CBitmapProgressCtrl@@QAEXHH@Z" PURGE="8" COMMENT="" />
    <EXPORT ORDINAL="808" NAME="?SetRange@CTextProgressCtrl@@QAEXHH@Z" PURGE="8" COMMENT="" />
    <EXPORT ORDINAL="809" NAME="?SetRect@CGUILink@@QAEXPAVCDC@@PAVCRect@@I@Z" PURGE="12" COMMENT="" />
    <EXPORT ORDINAL="810" NAME="?SetRect@CLink@@QAEXPAVCDC@@PAVCRect@@I@Z" PURGE="12" COMMENT="" />
    <EXPORT ORDINAL="811" NAME="?SetResourceIds@InsetWind@@QAEXIII@Z" PURGE="12" COMMENT="" />
    <EXPORT ORDINAL="812" NAME="?SetResourceIds@PopupDialog@@QAEXIII@Z" PURGE="12" COMMENT="" />
    <EXPORT ORDINAL="813" NAME="?SetResourceIds@PopupWindow@@QAEXIII@Z" PURGE="12" COMMENT="" />
    <EXPORT ORDINAL="814" NAME="?SetRgnDefined@CTransparentBmp@@QAEXXZ" PURGE="0" COMMENT="" />
    <EXPORT ORDINAL="815" NAME="?SetSaveBmp@CGUIButton@@QAEXXZ" PURGE="0" COMMENT="" />
    <EXPORT ORDINAL="816" NAME="?SetSaveBmp@CTransStaticBmp@@QAEXH@Z" PURGE="4" COMMENT="" />
    <EXPORT ORDINAL="817" NAME="?SetSaveBmp@CTransparentBmp@@QAEXH@Z" PURGE="4" COMMENT="" />
    <EXPORT ORDINAL="818" NAME="?SetScanSize@CGUIDIB@@QAEXK@Z" PURGE="4" COMMENT="" />
    <EXPORT ORDINAL="819" NAME="?SetSelPath@CDirTreeCtrl@@QAEHPBD@Z" PURGE="4" COMMENT="" />
    <EXPORT ORDINAL="820" NAME="?SetSelectedFolder@CLXFolderDialog@@QAEHPBD@Z" PURGE="4" COMMENT="" />
    <EXPORT ORDINAL="821" NAME="?SetSelection@CLXFolderDialog@@IAEXPAU_ITEMIDLIST@@@Z" PURGE="4" COMMENT="" />
    <EXPORT ORDINAL="822" NAME="?SetSelection@CLXFolderDialog@@IAEXPBD@Z" PURGE="4" COMMENT="" />
    <EXPORT ORDINAL="823" NAME="?SetSelectionMode@CColourPicker@@QAEXI@Z" PURGE="4" COMMENT="" />
    <EXPORT ORDINAL="824" NAME="?SetShowText@CBitmapProgressCtrl@@QAEXH@Z" PURGE="4" COMMENT="" />
    <EXPORT ORDINAL="825" NAME="?SetShowText@CTextProgressCtrl@@QAEXH@Z" PURGE="4" COMMENT="" />
    <EXPORT ORDINAL="826" NAME="?SetSize@CGUIExpandWnd@@QAEXH@Z" PURGE="4" COMMENT="" />
    <EXPORT ORDINAL="827" NAME="?SetSize@TransStaticEdit@@QAEXH@Z" PURGE="4" COMMENT="" />
    <EXPORT ORDINAL="828" NAME="?SetSize@transbkstatic@@QAEXH@Z" PURGE="4" COMMENT="" />
    <EXPORT ORDINAL="829" NAME="?SetStatusText@CLXFolderDialog@@IAEXPBD@Z" PURGE="4" COMMENT="" />
    <EXPORT ORDINAL="830" NAME="?SetStep@CBitmapProgressCtrl@@QAEHH@Z" PURGE="4" COMMENT="" />
    <EXPORT ORDINAL="831" NAME="?SetStep@CTextProgressCtrl@@QAEHH@Z" PURGE="4" COMMENT="" />
    <EXPORT ORDINAL="832" NAME="?SetText@CBitmapProgressCtrl@@QAEXPAD@Z" PURGE="4" COMMENT="" />
    <EXPORT ORDINAL="833" NAME="?SetText@CTextProgressCtrl@@QAEXPAD@Z" PURGE="4" COMMENT="" />
    <EXPORT ORDINAL="834" NAME="?SetTextAlignmentFlags@CGUILink@@QAEXI@Z" PURGE="4" COMMENT="" />
    <EXPORT ORDINAL="835" NAME="?SetTextAlignmentFlags@CLink@@QAEXI@Z" PURGE="4" COMMENT="" />
    <EXPORT ORDINAL="836" NAME="?SetTextAlignmentFlags@TransStaticEdit@@QAEXI@Z" PURGE="4" COMMENT="" />
    <EXPORT ORDINAL="837" NAME="?SetTextAlignmentFlags@transbkstatic@@QAEXI@Z" PURGE="4" COMMENT="" />
    <EXPORT ORDINAL="838" NAME="?SetTextBkColour@CBitmapProgressCtrl@@QAEXK@Z" PURGE="4" COMMENT="" />
    <EXPORT ORDINAL="839" NAME="?SetTextBkColour@CTextProgressCtrl@@QAEXK@Z" PURGE="4" COMMENT="" />
    <EXPORT ORDINAL="840" NAME="?SetTextBold@CGUIButton@@QAEXXZ" PURGE="0" COMMENT="" />
    <EXPORT ORDINAL="841" NAME="?SetTextBold@COwnButton@@QAEXXZ" PURGE="0" COMMENT="" />
    <EXPORT ORDINAL="842" NAME="?SetTextColor@TransStaticEdit@@QAEXK@Z" PURGE="4" COMMENT="" />
    <EXPORT ORDINAL="843" NAME="?SetTextColor@transbkstatic@@QAEXK@Z" PURGE="4" COMMENT="" />
    <EXPORT ORDINAL="844" NAME="?SetTextColour@CColourPicker@@QAEXK@Z" PURGE="4" COMMENT="" />
    <EXPORT ORDINAL="845" NAME="?SetTextForeColour@CBitmapProgressCtrl@@QAEXK@Z" PURGE="4" COMMENT="" />
    <EXPORT ORDINAL="846" NAME="?SetTextForeColour@CTextProgressCtrl@@QAEXK@Z" PURGE="4" COMMENT="" />
    <EXPORT ORDINAL="847" NAME="?SetTextOffset@CGUIButton@@QAEXHH@Z" PURGE="8" COMMENT="" />
    <EXPORT ORDINAL="848" NAME="?SetTextOffset@COwnButton@@QAEXHH@Z" PURGE="8" COMMENT="" />
    <EXPORT ORDINAL="849" NAME="?SetTextSize@CGUIButton@@QAEXH@Z" PURGE="4" COMMENT="" />
    <EXPORT ORDINAL="850" NAME="?SetTextSize@COwnButton@@QAEXH@Z" PURGE="4" COMMENT="" />
    <EXPORT ORDINAL="851" NAME="?SetTextStart@CGUILink@@QAEXHH@Z" PURGE="8" COMMENT="" />
    <EXPORT ORDINAL="852" NAME="?SetTextStart@CLink@@QAEXH@Z" PURGE="4" COMMENT="" />
    <EXPORT ORDINAL="853" NAME="?SetTextUnderline@CGUIButton@@QAEXXZ" PURGE="0" COMMENT="" />
    <EXPORT ORDINAL="854" NAME="?SetTextUnderline@COwnButton@@QAEXXZ" PURGE="0" COMMENT="" />
    <EXPORT ORDINAL="855" NAME="?SetTitle@PopupDialog@@QAEXVCString@@@Z" PURGE="4" COMMENT="" />
    <EXPORT ORDINAL="856" NAME="?SetTitle@PopupWindow@@QAEHVCString@@@Z" PURGE="4" COMMENT="" />
    <EXPORT ORDINAL="857" NAME="?SetToolTip@CLPAButton@@QAEXPAVCWnd@@VCString@@KKK@Z" PURGE="20" COMMENT="" />
    <EXPORT ORDINAL="858" NAME="?SetToolTipLocation@CLPAButton@@AAEXXZ" PURGE="0" COMMENT="" />
    <EXPORT ORDINAL="859" NAME="?SetToolTipLocation@CLPAButton@@QAEXHH@Z" PURGE="8" COMMENT="" />
    <EXPORT ORDINAL="860" NAME="?SetTrackSelection@CColourPicker@@QAEXH@Z" PURGE="4" COMMENT="" />
    <EXPORT ORDINAL="861" NAME="?SetTypeFaceName@CGUIFont@@QAEXVCString@@@Z" PURGE="4" COMMENT="" />
    <EXPORT ORDINAL="862" NAME="?SetUnderline@CGUIFont@@QAEXH@Z" PURGE="4" COMMENT="" />
    <EXPORT ORDINAL="863" NAME="?SetUnderline@TransStaticEdit@@QAEXXZ" PURGE="0" COMMENT="" />
    <EXPORT ORDINAL="864" NAME="?SetUnderline@transbkstatic@@QAEXXZ" PURGE="0" COMMENT="" />
    <EXPORT ORDINAL="865" NAME="?SetUpBorder@CMenuButton@@QAEXH@Z" PURGE="4" COMMENT="" />
    <EXPORT ORDINAL="866" NAME="?SetUpColor@CMenuButton@@QAEXK@Z" PURGE="4" COMMENT="" />
    <EXPORT ORDINAL="867" NAME="?SetWidth@CTransparentBmp@@QAEXH@Z" PURGE="4" COMMENT="" />
    <EXPORT ORDINAL="868" NAME="?SetWin9xKey@CRegistry@@AAEXXZ" PURGE="0" COMMENT="" />
    <EXPORT ORDINAL="869" NAME="?SetWinNTKey@CRegistry@@AAEXXZ" PURGE="0" COMMENT="" />
    <EXPORT ORDINAL="870" NAME="?SetWindowRect@CGUIExpandWnd@@QAEXVCRect@@@Z" PURGE="16" COMMENT="" />
    <EXPORT ORDINAL="871" NAME="?SetWindowSize@CColourPicker@@IAEXXZ" PURGE="0" COMMENT="" />
    <EXPORT ORDINAL="872" NAME="?SetWindowSize@CColourPopup@@IAEXXZ" PURGE="0" COMMENT="" />
    <EXPORT ORDINAL="873" NAME="?SetWizardTitle@CWizardSheet@@QAEXI@Z" PURGE="4" COMMENT="" />
    <EXPORT ORDINAL="874" NAME="?SetWizardTitle@CWizardSheet@@QAEXPBD@Z" PURGE="4" COMMENT="" />
    <EXPORT ORDINAL="875" NAME="?SetXNotchValue@CGUIExpandWnd@@QAEXH@Z" PURGE="4" COMMENT="" />
    <EXPORT ORDINAL="876" NAME="?SetYNotchValue@CGUIExpandWnd@@QAEXH@Z" PURGE="4" COMMENT="" />
    <EXPORT ORDINAL="877" NAME="?Show@CLpaTip@@QAEXVCPoint@@@Z" PURGE="8" COMMENT="" />
    <EXPORT ORDINAL="878" NAME="?ShowPageNumber@CWizardSheet@@QAEHH@Z" PURGE="4" COMMENT="" />
    <EXPORT ORDINAL="879" NAME="?ShowTipset@CLPAButton@@QAEXH@Z" PURGE="4" COMMENT="" />
    <EXPORT ORDINAL="880" NAME="?ShowWindow@PopupWindow@@QAEHHPAVCWnd@@H@Z" PURGE="12" COMMENT="" />
    <EXPORT ORDINAL="881" NAME="?SortStringArray@CDirTreeCtrl@@IAEXPAVCStringArray@@@Z" PURGE="4" COMMENT="" />
    <EXPORT ORDINAL="882" NAME="?StepIt@CBitmapProgressCtrl@@QAEHXZ" PURGE="0" COMMENT="" />
    <EXPORT ORDINAL="883" NAME="?StepIt@CTextProgressCtrl@@QAEHXZ" PURGE="0" COMMENT="" />
    <EXPORT ORDINAL="884" NAME="?StepStretchBlt@CGUIDIB@@QAEHPAVCDC@@HHHH0HHHHK@Z" PURGE="44" COMMENT="" />
    <EXPORT ORDINAL="885" NAME="?StrRetToBuf@CLXShell32Ext@@IAEXPAU_ITEMIDLIST@@PAU_STRRET@@AAPAD@Z" PURGE="12" COMMENT="" />
    <EXPORT ORDINAL="886" NAME="?ToolTipClicked@CLPAButton@@QAEXIVCPoint@@@Z" PURGE="12" COMMENT="" />
    <EXPORT ORDINAL="887" NAME="?ToolTipHovered@CLPAButton@@QAEXIVCPoint@@@Z" PURGE="12" COMMENT="" />
    <EXPORT ORDINAL="888" NAME="?TransBlt@CTransparentBmp@@QAEXPAVCDC@@HHHH@Z" PURGE="20" COMMENT="" />
    <EXPORT ORDINAL="889" NAME="?TranslateContactFileName@LxkProduct@@AAEXXZ" PURGE="0" COMMENT="" />
    <EXPORT ORDINAL="890" NAME="?TranslateDebugMsg@LxkProduct@@AAEXXZ" PURGE="0" COMMENT="" />
    <EXPORT ORDINAL="891" NAME="?TranslateExecutableFileNamePath@LxkProduct@@AAEXXZ" PURGE="0" COMMENT="" />
    <EXPORT ORDINAL="892" NAME="?TranslateSetting@LxkProduct@@AAEHXZ" PURGE="0" COMMENT="" />
    <EXPORT ORDINAL="893" NAME="?TranslateURL@CGUIUrlLink@@QAEXVCString@@0@Z" PURGE="8" COMMENT="" />
    <EXPORT ORDINAL="894" NAME="?Tree_EnumObjects@CLXTreeCtrl@@IAE_NPAU_TREEITEM@@PAUIShellFolder@@PAU_ITEMIDLIST@@@Z" PURGE="12" COMMENT="" />
    <EXPORT ORDINAL="895" NAME="?TryToExpand@CDirTreeCtrl@@QAEXVCPoint@@@Z" PURGE="8" COMMENT="" />
    <EXPORT ORDINAL="896" NAME="?UnHighlight@InsetWind@@QAEXXZ" PURGE="0" COMMENT="" />
    <EXPORT ORDINAL="897" NAME="?Unhighlight@Cstatbk@@QAEXXZ" PURGE="0" COMMENT="" />
    <EXPORT ORDINAL="898" NAME="?UnloadKey@CRegistry@@UAEXPBD@Z" PURGE="4" COMMENT="" />
    <EXPORT ORDINAL="899" NAME="?UpdateFileSize@CGUIDIB@@QAEXHH@Z" PURGE="8" COMMENT="" />
    <EXPORT ORDINAL="900" NAME="?UpdateInkLevels@CGUIInkDisplay@@QAEHPAUINKINFO@@@Z" PURGE="4" COMMENT="" />
    <EXPORT ORDINAL="901" NAME="?UpdateInkLevels@InkDisplay@@QAEHPAUINKINFO@@@Z" PURGE="4" COMMENT="" />
    <EXPORT ORDINAL="902" NAME="?UpdateInkTank@CGUIInkDisplay@@QAEXW4InkColor@CGUIInkTank@@HH@Z" PURGE="12" COMMENT="" />
    <EXPORT ORDINAL="903" NAME="?UpdateInkTank@InkDisplay@@QAEXW4InkColor@InkTank@@HH@Z" PURGE="12" COMMENT="" />
    <EXPORT ORDINAL="904" NAME="?UpdatePercent@CProgressPercentageCtrl@@QAEXH@Z" PURGE="4" COMMENT="" />
    <EXPORT ORDINAL="905" NAME="?UpdateText@TransStaticEdit@@QAEXVCString@@@Z" PURGE="4" COMMENT="" />
    <EXPORT ORDINAL="906" NAME="?UpdateText@transbkstatic@@QAEXVCString@@@Z" PURGE="4" COMMENT="" />
    <EXPORT ORDINAL="907" NAME="?UpdateVisibleControls@CGUIExpandWnd@@QAEXXZ" PURGE="0" COMMENT="" />
    <EXPORT ORDINAL="908" NAME="?WhatIsIt@CGUIInkDisplay@@QAE?AW4InkColor@CGUIInkTank@@H@Z" PURGE="4" COMMENT="" />
    <EXPORT ORDINAL="909" NAME="?WhatIsIt@CGUIInkDisplay@@QAE?AW4InkColor@CGUIInkTank@@W4CartIDType@1@W4CartPosition@1@@Z" PURGE="8" COMMENT="" />
    <EXPORT ORDINAL="910" NAME="?Write@CRegistry@@UAEXPADPBEKK@Z" PURGE="16" COMMENT="" />
    <EXPORT ORDINAL="911" NAME="?WriteBuffer@CSpy@@IAEHXZ" PURGE="0" COMMENT="" />
    <EXPORT ORDINAL="912" NAME="?WriteLogfile@CSpy@@IAEHXZ" PURGE="0" COMMENT="" />
    <EXPORT ORDINAL="913" NAME="?_GetBaseClass@CBitmapProgressCtrl@@KGPAUCRuntimeClass@@XZ" PURGE="0" COMMENT="" />
    <EXPORT ORDINAL="914" NAME="?_GetBaseClass@CCaptionBar@@KGPAUCRuntimeClass@@XZ" PURGE="0" COMMENT="" />
    <EXPORT ORDINAL="915" NAME="?_GetBaseClass@CColourPicker@@KGPAUCRuntimeClass@@XZ" PURGE="0" COMMENT="" />
    <EXPORT ORDINAL="916" NAME="?_GetBaseClass@CDirTreeCtrl@@KGPAUCRuntimeClass@@XZ" PURGE="0" COMMENT="" />
    <EXPORT ORDINAL="917" NAME="?_GetBaseClass@CGUIButton@@KGPAUCRuntimeClass@@XZ" PURGE="0" COMMENT="" />
    <EXPORT ORDINAL="918" NAME="?_GetBaseClass@CGUIDIB@@KGPAUCRuntimeClass@@XZ" PURGE="0" COMMENT="" />
    <EXPORT ORDINAL="919" NAME="?_GetBaseClass@CGUIExpandWnd@@KGPAUCRuntimeClass@@XZ" PURGE="0" COMMENT="" />
    <EXPORT ORDINAL="920" NAME="?_GetBaseClass@CGUIExpandWndControl@@KGPAUCRuntimeClass@@XZ" PURGE="0" COMMENT="" />
    <EXPORT ORDINAL="921" NAME="?_GetBaseClass@CGUIFont@@KGPAUCRuntimeClass@@XZ" PURGE="0" COMMENT="" />
    <EXPORT ORDINAL="922" NAME="?_GetBaseClass@CGUIHelpLink@@KGPAUCRuntimeClass@@XZ" PURGE="0" COMMENT="" />
    <EXPORT ORDINAL="923" NAME="?_GetBaseClass@CGUIInkDisplay@@KGPAUCRuntimeClass@@XZ" PURGE="0" COMMENT="" />
    <EXPORT ORDINAL="924" NAME="?_GetBaseClass@CGUIInkTank@@KGPAUCRuntimeClass@@XZ" PURGE="0" COMMENT="" />
    <EXPORT ORDINAL="925" NAME="?_GetBaseClass@CGUILink@@KGPAUCRuntimeClass@@XZ" PURGE="0" COMMENT="" />
    <EXPORT ORDINAL="926" NAME="?_GetBaseClass@CGUIUrlLink@@KGPAUCRuntimeClass@@XZ" PURGE="0" COMMENT="" />
    <EXPORT ORDINAL="927" NAME="?_GetBaseClass@CGUIWizardLink@@KGPAUCRuntimeClass@@XZ" PURGE="0" COMMENT="" />
    <EXPORT ORDINAL="928" NAME="?_GetBaseClass@CHelpLink@@KGPAUCRuntimeClass@@XZ" PURGE="0" COMMENT="" />
    <EXPORT ORDINAL="929" NAME="?_GetBaseClass@CLPAButton@@KGPAUCRuntimeClass@@XZ" PURGE="0" COMMENT="" />
    <EXPORT ORDINAL="930" NAME="?_GetBaseClass@CLXFolderDialog@@KGPAUCRuntimeClass@@XZ" PURGE="0" COMMENT="" />
    <EXPORT ORDINAL="931" NAME="?_GetBaseClass@CLink@@KGPAUCRuntimeClass@@XZ" PURGE="0" COMMENT="" />
    <EXPORT ORDINAL="932" NAME="?_GetBaseClass@CLpaTip@@KGPAUCRuntimeClass@@XZ" PURGE="0" COMMENT="" />
    <EXPORT ORDINAL="933" NAME="?_GetBaseClass@CMemDC@@KGPAUCRuntimeClass@@XZ" PURGE="0" COMMENT="" />
    <EXPORT ORDINAL="934" NAME="?_GetBaseClass@CMenuButton@@KGPAUCRuntimeClass@@XZ" PURGE="0" COMMENT="" />
    <EXPORT ORDINAL="935" NAME="?_GetBaseClass@COwnButton@@KGPAUCRuntimeClass@@XZ" PURGE="0" COMMENT="" />
    <EXPORT ORDINAL="936" NAME="?_GetBaseClass@CPalette256@@KGPAUCRuntimeClass@@XZ" PURGE="0" COMMENT="" />
    <EXPORT ORDINAL="937" NAME="?_GetBaseClass@CProgressPercentageCtrl@@KGPAUCRuntimeClass@@XZ" PURGE="0" COMMENT="" />
    <EXPORT ORDINAL="938" NAME="?_GetBaseClass@CTextProgressCtrl@@KGPAUCRuntimeClass@@XZ" PURGE="0" COMMENT="" />
    <EXPORT ORDINAL="939" NAME="?_GetBaseClass@CTransStaticBmp@@KGPAUCRuntimeClass@@XZ" PURGE="0" COMMENT="" />
    <EXPORT ORDINAL="940" NAME="?_GetBaseClass@CTransparentBmp@@KGPAUCRuntimeClass@@XZ" PURGE="0" COMMENT="" />
    <EXPORT ORDINAL="941" NAME="?_GetBaseClass@CUrlLink@@KGPAUCRuntimeClass@@XZ" PURGE="0" COMMENT="" />
    <EXPORT ORDINAL="942" NAME="?_GetBaseClass@CWizardLink@@KGPAUCRuntimeClass@@XZ" PURGE="0" COMMENT="" />
    <EXPORT ORDINAL="943" NAME="?_GetBaseClass@CWizardSheet@@KGPAUCRuntimeClass@@XZ" PURGE="0" COMMENT="" />
    <EXPORT ORDINAL="944" NAME="?_GetBaseClass@Cstatbk@@KGPAUCRuntimeClass@@XZ" PURGE="0" COMMENT="" />
    <EXPORT ORDINAL="945" NAME="?_GetBaseClass@InkDisplay@@KGPAUCRuntimeClass@@XZ" PURGE="0" COMMENT="" />
    <EXPORT ORDINAL="946" NAME="?_GetBaseClass@InkTank@@KGPAUCRuntimeClass@@XZ" PURGE="0" COMMENT="" />
    <EXPORT ORDINAL="947" NAME="?_GetBaseClass@InsetWind@@KGPAUCRuntimeClass@@XZ" PURGE="0" COMMENT="" />
    <EXPORT ORDINAL="948" NAME="?_GetBaseClass@JSWOptionsDlg@@KGPAUCRuntimeClass@@XZ" PURGE="0" COMMENT="" />
    <EXPORT ORDINAL="949" NAME="?_GetBaseClass@PopupDialog@@KGPAUCRuntimeClass@@XZ" PURGE="0" COMMENT="" />
    <EXPORT ORDINAL="950" NAME="?_GetBaseClass@PopupWindow@@KGPAUCRuntimeClass@@XZ" PURGE="0" COMMENT="" />
    <EXPORT ORDINAL="951" NAME="?_GetBaseClass@TransStaticEdit@@KGPAUCRuntimeClass@@XZ" PURGE="0" COMMENT="" />
    <EXPORT ORDINAL="952" NAME="?_GetBaseClass@VersionDlg@@KGPAUCRuntimeClass@@XZ" PURGE="0" COMMENT="" />
    <EXPORT ORDINAL="953" NAME="?_GetBaseClass@transbkstatic@@KGPAUCRuntimeClass@@XZ" PURGE="0" COMMENT="" />
    <EXPORT ORDINAL="954" NAME="?_GetBaseMessageMap@CBitmapProgressCtrl@@KGPBUAFX_MSGMAP@@XZ" PURGE="0" COMMENT="" />
    <EXPORT ORDINAL="955" NAME="?_GetBaseMessageMap@CCaptionBar@@KGPBUAFX_MSGMAP@@XZ" PURGE="0" COMMENT="" />
    <EXPORT ORDINAL="956" NAME="?_GetBaseMessageMap@CColourPicker@@KGPBUAFX_MSGMAP@@XZ" PURGE="0" COMMENT="" />
    <EXPORT ORDINAL="957" NAME="?_GetBaseMessageMap@CColourPopup@@KGPBUAFX_MSGMAP@@XZ" PURGE="0" COMMENT="" />
    <EXPORT ORDINAL="958" NAME="?_GetBaseMessageMap@CDirTreeCtrl@@KGPBUAFX_MSGMAP@@XZ" PURGE="0" COMMENT="" />
    <EXPORT ORDINAL="959" NAME="?_GetBaseMessageMap@CGUIButton@@KGPBUAFX_MSGMAP@@XZ" PURGE="0" COMMENT="" />
    <EXPORT ORDINAL="960" NAME="?_GetBaseMessageMap@CGUIExpandWnd@@KGPBUAFX_MSGMAP@@XZ" PURGE="0" COMMENT="" />
    <EXPORT ORDINAL="961" NAME="?_GetBaseMessageMap@CGUIInkTank@@KGPBUAFX_MSGMAP@@XZ" PURGE="0" COMMENT="" />
    <EXPORT ORDINAL="962" NAME="?_GetBaseMessageMap@CGUILink@@KGPBUAFX_MSGMAP@@XZ" PURGE="0" COMMENT="" />
    <EXPORT ORDINAL="963" NAME="?_GetBaseMessageMap@CGUIUrlLink@@KGPBUAFX_MSGMAP@@XZ" PURGE="0" COMMENT="" />
    <EXPORT ORDINAL="964" NAME="?_GetBaseMessageMap@CLPAButton@@KGPBUAFX_MSGMAP@@XZ" PURGE="0" COMMENT="" />
    <EXPORT ORDINAL="965" NAME="?_GetBaseMessageMap@CLXFolderDialog@@KGPBUAFX_MSGMAP@@XZ" PURGE="0" COMMENT="" />
    <EXPORT ORDINAL="966" NAME="?_GetBaseMessageMap@CLXTreeCtrl@@KGPBUAFX_MSGMAP@@XZ" PURGE="0" COMMENT="" />
    <EXPORT ORDINAL="967" NAME="?_GetBaseMessageMap@CLink@@KGPBUAFX_MSGMAP@@XZ" PURGE="0" COMMENT="" />
    <EXPORT ORDINAL="968" NAME="?_GetBaseMessageMap@CLpaTip@@KGPBUAFX_MSGMAP@@XZ" PURGE="0" COMMENT="" />
    <EXPORT ORDINAL="969" NAME="?_GetBaseMessageMap@CMenuButton@@KGPBUAFX_MSGMAP@@XZ" PURGE="0" COMMENT="" />
    <EXPORT ORDINAL="970" NAME="?_GetBaseMessageMap@COwnButton@@KGPBUAFX_MSGMAP@@XZ" PURGE="0" COMMENT="" />
    <EXPORT ORDINAL="971" NAME="?_GetBaseMessageMap@CProgressPercentageCtrl@@KGPBUAFX_MSGMAP@@XZ" PURGE="0" COMMENT="" />
    <EXPORT ORDINAL="972" NAME="?_GetBaseMessageMap@CTextProgressCtrl@@KGPBUAFX_MSGMAP@@XZ" PURGE="0" COMMENT="" />
    <EXPORT ORDINAL="973" NAME="?_GetBaseMessageMap@CTransStaticBmp@@KGPBUAFX_MSGMAP@@XZ" PURGE="0" COMMENT="" />
    <EXPORT ORDINAL="974" NAME="?_GetBaseMessageMap@CUrlLink@@KGPBUAFX_MSGMAP@@XZ" PURGE="0" COMMENT="" />
    <EXPORT ORDINAL="975" NAME="?_GetBaseMessageMap@CWizardSheet@@KGPBUAFX_MSGMAP@@XZ" PURGE="0" COMMENT="" />
    <EXPORT ORDINAL="976" NAME="?_GetBaseMessageMap@Cstatbk@@KGPBUAFX_MSGMAP@@XZ" PURGE="0" COMMENT="" />
    <EXPORT ORDINAL="977" NAME="?_GetBaseMessageMap@InkTank@@KGPBUAFX_MSGMAP@@XZ" PURGE="0" COMMENT="" />
    <EXPORT ORDINAL="978" NAME="?_GetBaseMessageMap@InsetWind@@KGPBUAFX_MSGMAP@@XZ" PURGE="0" COMMENT="" />
    <EXPORT ORDINAL="979" NAME="?_GetBaseMessageMap@JSWOptionsDlg@@KGPBUAFX_MSGMAP@@XZ" PURGE="0" COMMENT="" />
    <EXPORT ORDINAL="980" NAME="?_GetBaseMessageMap@PopupDialog@@KGPBUAFX_MSGMAP@@XZ" PURGE="0" COMMENT="" />
    <EXPORT ORDINAL="981" NAME="?_GetBaseMessageMap@TransStaticEdit@@KGPBUAFX_MSGMAP@@XZ" PURGE="0" COMMENT="" />
    <EXPORT ORDINAL="982" NAME="?_GetBaseMessageMap@VersionDlg@@KGPBUAFX_MSGMAP@@XZ" PURGE="0" COMMENT="" />
    <EXPORT ORDINAL="983" NAME="?_GetBaseMessageMap@transbkstatic@@KGPBUAFX_MSGMAP@@XZ" PURGE="0" COMMENT="" />
    <EXPORT ORDINAL="984" NAME="?_messageEntries@CBitmapProgressCtrl@@0QBUAFX_MSGMAP_ENTRY@@B" PURGE="-1" COMMENT="" />
    <EXPORT ORDINAL="985" NAME="?_messageEntries@CCaptionBar@@0QBUAFX_MSGMAP_ENTRY@@B" PURGE="-1" COMMENT="" />
    <EXPORT ORDINAL="986" NAME="?_messageEntries@CColourPicker@@0QBUAFX_MSGMAP_ENTRY@@B" PURGE="-1" COMMENT="" />
    <EXPORT ORDINAL="987" NAME="?_messageEntries@CColourPopup@@0QBUAFX_MSGMAP_ENTRY@@B" PURGE="-1" COMMENT="" />
    <EXPORT ORDINAL="988" NAME="?_messageEntries@CDirTreeCtrl@@0QBUAFX_MSGMAP_ENTRY@@B" PURGE="-1" COMMENT="" />
    <EXPORT ORDINAL="989" NAME="?_messageEntries@CGUIButton@@0QBUAFX_MSGMAP_ENTRY@@B" PURGE="-1" COMMENT="" />
    <EXPORT ORDINAL="990" NAME="?_messageEntries@CGUIExpandWnd@@0QBUAFX_MSGMAP_ENTRY@@B" PURGE="-1" COMMENT="" />
    <EXPORT ORDINAL="991" NAME="?_messageEntries@CGUIInkTank@@0QBUAFX_MSGMAP_ENTRY@@B" PURGE="-1" COMMENT="" />
    <EXPORT ORDINAL="992" NAME="?_messageEntries@CGUILink@@0QBUAFX_MSGMAP_ENTRY@@B" PURGE="-1" COMMENT="" />
    <EXPORT ORDINAL="993" NAME="?_messageEntries@CGUIUrlLink@@0QBUAFX_MSGMAP_ENTRY@@B" PURGE="-1" COMMENT="" />
    <EXPORT ORDINAL="994" NAME="?_messageEntries@CLPAButton@@0QBUAFX_MSGMAP_ENTRY@@B" PURGE="-1" COMMENT="" />
    <EXPORT ORDINAL="995" NAME="?_messageEntries@CLXFolderDialog@@0QBUAFX_MSGMAP_ENTRY@@B" PURGE="-1" COMMENT="" />
    <EXPORT ORDINAL="996" NAME="?_messageEntries@CLXTreeCtrl@@0QBUAFX_MSGMAP_ENTRY@@B" PURGE="-1" COMMENT="" />
    <EXPORT ORDINAL="997" NAME="?_messageEntries@CLink@@0QBUAFX_MSGMAP_ENTRY@@B" PURGE="-1" COMMENT="" />
    <EXPORT ORDINAL="998" NAME="?_messageEntries@CLpaTip@@0QBUAFX_MSGMAP_ENTRY@@B" PURGE="-1" COMMENT="" />
    <EXPORT ORDINAL="999" NAME="?_messageEntries@CMenuButton@@0QBUAFX_MSGMAP_ENTRY@@B" PURGE="-1" COMMENT="" />
    <EXPORT ORDINAL="1000" NAME="?_messageEntries@COwnButton@@0QBUAFX_MSGMAP_ENTRY@@B" PURGE="-1" COMMENT="" />
    <EXPORT ORDINAL="1001" NAME="?_messageEntries@CProgressPercentageCtrl@@0QBUAFX_MSGMAP_ENTRY@@B" PURGE="-1" COMMENT="" />
    <EXPORT ORDINAL="1002" NAME="?_messageEntries@CTextProgressCtrl@@0QBUAFX_MSGMAP_ENTRY@@B" PURGE="-1" COMMENT="" />
    <EXPORT ORDINAL="1003" NAME="?_messageEntries@CTransStaticBmp@@0QBUAFX_MSGMAP_ENTRY@@B" PURGE="-1" COMMENT="" />
    <EXPORT ORDINAL="1004" NAME="?_messageEntries@CUrlLink@@0QBUAFX_MSGMAP_ENTRY@@B" PURGE="-1" COMMENT="" />
    <EXPORT ORDINAL="1005" NAME="?_messageEntries@CWizardSheet@@0QBUAFX_MSGMAP_ENTRY@@B" PURGE="-1" COMMENT="" />
    <EXPORT ORDINAL="1006" NAME="?_messageEntries@Cstatbk@@0QBUAFX_MSGMAP_ENTRY@@B" PURGE="-1" COMMENT="" />
    <EXPORT ORDINAL="1007" NAME="?_messageEntries@InkTank@@0QBUAFX_MSGMAP_ENTRY@@B" PURGE="-1" COMMENT="" />
    <EXPORT ORDINAL="1008" NAME="?_messageEntries@InsetWind@@0QBUAFX_MSGMAP_ENTRY@@B" PURGE="-1" COMMENT="" />
    <EXPORT ORDINAL="1009" NAME="?_messageEntries@JSWOptionsDlg@@0QBUAFX_MSGMAP_ENTRY@@B" PURGE="-1" COMMENT="" />
    <EXPORT ORDINAL="1010" NAME="?_messageEntries@PopupDialog@@0QBUAFX_MSGMAP_ENTRY@@B" PURGE="-1" COMMENT="" />
    <EXPORT ORDINAL="1011" NAME="?_messageEntries@TransStaticEdit@@0QBUAFX_MSGMAP_ENTRY@@B" PURGE="-1" COMMENT="" />
    <EXPORT ORDINAL="1012" NAME="?_messageEntries@VersionDlg@@0QBUAFX_MSGMAP_ENTRY@@B" PURGE="-1" COMMENT="" />
    <EXPORT ORDINAL="1013" NAME="?_messageEntries@transbkstatic@@0QBUAFX_MSGMAP_ENTRY@@B" PURGE="-1" COMMENT="" />
    <EXPORT ORDINAL="1014" NAME="?classCBitmapProgressCtrl@CBitmapProgressCtrl@@2UCRuntimeClass@@B" PURGE="-1" COMMENT="" />
    <EXPORT ORDINAL="1015" NAME="?classCCaptionBar@CCaptionBar@@2UCRuntimeClass@@B" PURGE="-1" COMMENT="" />
    <EXPORT ORDINAL="1016" NAME="?classCColourPicker@CColourPicker@@2UCRuntimeClass@@B" PURGE="-1" COMMENT="" />
    <EXPORT ORDINAL="1017" NAME="?classCDirTreeCtrl@CDirTreeCtrl@@2UCRuntimeClass@@B" PURGE="-1" COMMENT="" />
    <EXPORT ORDINAL="1018" NAME="?classCGUIButton@CGUIButton@@2UCRuntimeClass@@B" PURGE="-1" COMMENT="" />
    <EXPORT ORDINAL="1019" NAME="?classCGUIDIB@CGUIDIB@@2UCRuntimeClass@@B" PURGE="-1" COMMENT="" />
    <EXPORT ORDINAL="1020" NAME="?classCGUIExpandWnd@CGUIExpandWnd@@2UCRuntimeClass@@B" PURGE="-1" COMMENT="" />
    <EXPORT ORDINAL="1021" NAME="?classCGUIExpandWndControl@CGUIExpandWndControl@@2UCRuntimeClass@@B" PURGE="-1" COMMENT="" />
    <EXPORT ORDINAL="1022" NAME="?classCGUIFont@CGUIFont@@2UCRuntimeClass@@B" PURGE="-1" COMMENT="" />
    <EXPORT ORDINAL="1023" NAME="?classCGUIHelpLink@CGUIHelpLink@@2UCRuntimeClass@@B" PURGE="-1" COMMENT="" />
    <EXPORT ORDINAL="1024" NAME="?classCGUIInkDisplay@CGUIInkDisplay@@2UCRuntimeClass@@B" PURGE="-1" COMMENT="" />
    <EXPORT ORDINAL="1025" NAME="?classCGUIInkTank@CGUIInkTank@@2UCRuntimeClass@@B" PURGE="-1" COMMENT="" />
    <EXPORT ORDINAL="1026" NAME="?classCGUILink@CGUILink@@2UCRuntimeClass@@B" PURGE="-1" COMMENT="" />
    <EXPORT ORDINAL="1027" NAME="?classCGUIUrlLink@CGUIUrlLink@@2UCRuntimeClass@@B" PURGE="-1" COMMENT="" />
    <EXPORT ORDINAL="1028" NAME="?classCGUIWizardLink@CGUIWizardLink@@2UCRuntimeClass@@B" PURGE="-1" COMMENT="" />
    <EXPORT ORDINAL="1029" NAME="?classCHelpLink@CHelpLink@@2UCRuntimeClass@@B" PURGE="-1" COMMENT="" />
    <EXPORT ORDINAL="1030" NAME="?classCLPAButton@CLPAButton@@2UCRuntimeClass@@B" PURGE="-1" COMMENT="" />
    <EXPORT ORDINAL="1031" NAME="?classCLXFolderDialog@CLXFolderDialog@@2UCRuntimeClass@@B" PURGE="-1" COMMENT="" />
    <EXPORT ORDINAL="1032" NAME="?classCLink@CLink@@2UCRuntimeClass@@B" PURGE="-1" COMMENT="" />
    <EXPORT ORDINAL="1033" NAME="?classCLpaTip@CLpaTip@@2UCRuntimeClass@@B" PURGE="-1" COMMENT="" />
    <EXPORT ORDINAL="1034" NAME="?classCMemDC@CMemDC@@2UCRuntimeClass@@B" PURGE="-1" COMMENT="" />
    <EXPORT ORDINAL="1035" NAME="?classCMenuButton@CMenuButton@@2UCRuntimeClass@@B" PURGE="-1" COMMENT="" />
    <EXPORT ORDINAL="1036" NAME="?classCOwnButton@COwnButton@@2UCRuntimeClass@@B" PURGE="-1" COMMENT="" />
    <EXPORT ORDINAL="1037" NAME="?classCPalette256@CPalette256@@2UCRuntimeClass@@B" PURGE="-1" COMMENT="" />
    <EXPORT ORDINAL="1038" NAME="?classCProgressPercentageCtrl@CProgressPercentageCtrl@@2UCRuntimeClass@@B" PURGE="-1" COMMENT="" />
    <EXPORT ORDINAL="1039" NAME="?classCTextProgressCtrl@CTextProgressCtrl@@2UCRuntimeClass@@B" PURGE="-1" COMMENT="" />
    <EXPORT ORDINAL="1040" NAME="?classCTransStaticBmp@CTransStaticBmp@@2UCRuntimeClass@@B" PURGE="-1" COMMENT="" />
    <EXPORT ORDINAL="1041" NAME="?classCTransparentBmp@CTransparentBmp@@2UCRuntimeClass@@B" PURGE="-1" COMMENT="" />
    <EXPORT ORDINAL="1042" NAME="?classCUrlLink@CUrlLink@@2UCRuntimeClass@@B" PURGE="-1" COMMENT="" />
    <EXPORT ORDINAL="1043" NAME="?classCWizardLink@CWizardLink@@2UCRuntimeClass@@B" PURGE="-1" COMMENT="" />
    <EXPORT ORDINAL="1044" NAME="?classCWizardSheet@CWizardSheet@@2UCRuntimeClass@@B" PURGE="-1" COMMENT="" />
    <EXPORT ORDINAL="1045" NAME="?classCstatbk@Cstatbk@@2UCRuntimeClass@@B" PURGE="-1" COMMENT="" />
    <EXPORT ORDINAL="1046" NAME="?classInkDisplay@InkDisplay@@2UCRuntimeClass@@B" PURGE="-1" COMMENT="" />
    <EXPORT ORDINAL="1047" NAME="?classInkTank@InkTank@@2UCRuntimeClass@@B" PURGE="-1" COMMENT="" />
    <EXPORT ORDINAL="1048" NAME="?classInsetWind@InsetWind@@2UCRuntimeClass@@B" PURGE="-1" COMMENT="" />
    <EXPORT ORDINAL="1049" NAME="?classJSWOptionsDlg@JSWOptionsDlg@@2UCRuntimeClass@@B" PURGE="-1" COMMENT="" />
    <EXPORT ORDINAL="1050" NAME="?classPopupDialog@PopupDialog@@2UCRuntimeClass@@B" PURGE="-1" COMMENT="" />
    <EXPORT ORDINAL="1051" NAME="?classPopupWindow@PopupWindow@@2UCRuntimeClass@@B" PURGE="-1" COMMENT="" />
    <EXPORT ORDINAL="1052" NAME="?classTransStaticEdit@TransStaticEdit@@2UCRuntimeClass@@B" PURGE="-1" COMMENT="" />
    <EXPORT ORDINAL="1053" NAME="?classVersionDlg@VersionDlg@@2UCRuntimeClass@@B" PURGE="-1" COMMENT="" />
    <EXPORT ORDINAL="1054" NAME="?classtransbkstatic@transbkstatic@@2UCRuntimeClass@@B" PURGE="-1" COMMENT="" />
    <EXPORT ORDINAL="1055" NAME="?g_hLinkCursor@CGUIButton@@0PAUHICON__@@A" PURGE="-1" COMMENT="" />
    <EXPORT ORDINAL="1056" NAME="?g_hLinkCursor@CGUILink@@1PAUHICON__@@A" PURGE="-1" COMMENT="" />
    <EXPORT ORDINAL="1057" NAME="?g_hLinkCursor@CLink@@1PAUHICON__@@A" PURGE="-1" COMMENT="" />
    <EXPORT ORDINAL="1058" NAME="?messageMap@CBitmapProgressCtrl@@1UAFX_MSGMAP@@B" PURGE="-1" COMMENT="" />
    <EXPORT ORDINAL="1059" NAME="?messageMap@CCaptionBar@@1UAFX_MSGMAP@@B" PURGE="-1" COMMENT="" />
    <EXPORT ORDINAL="1060" NAME="?messageMap@CColourPicker@@1UAFX_MSGMAP@@B" PURGE="-1" COMMENT="" />
    <EXPORT ORDINAL="1061" NAME="?messageMap@CColourPopup@@1UAFX_MSGMAP@@B" PURGE="-1" COMMENT="" />
    <EXPORT ORDINAL="1062" NAME="?messageMap@CDirTreeCtrl@@1UAFX_MSGMAP@@B" PURGE="-1" COMMENT="" />
    <EXPORT ORDINAL="1063" NAME="?messageMap@CGUIButton@@1UAFX_MSGMAP@@B" PURGE="-1" COMMENT="" />
    <EXPORT ORDINAL="1064" NAME="?messageMap@CGUIExpandWnd@@1UAFX_MSGMAP@@B" PURGE="-1" COMMENT="" />
    <EXPORT ORDINAL="1065" NAME="?messageMap@CGUIInkTank@@1UAFX_MSGMAP@@B" PURGE="-1" COMMENT="" />
    <EXPORT ORDINAL="1066" NAME="?messageMap@CGUILink@@1UAFX_MSGMAP@@B" PURGE="-1" COMMENT="" />
    <EXPORT ORDINAL="1067" NAME="?messageMap@CGUIUrlLink@@1UAFX_MSGMAP@@B" PURGE="-1" COMMENT="" />
    <EXPORT ORDINAL="1068" NAME="?messageMap@CLPAButton@@1UAFX_MSGMAP@@B" PURGE="-1" COMMENT="" />
    <EXPORT ORDINAL="1069" NAME="?messageMap@CLXFolderDialog@@1UAFX_MSGMAP@@B" PURGE="-1" COMMENT="" />
    <EXPORT ORDINAL="1070" NAME="?messageMap@CLXTreeCtrl@@1UAFX_MSGMAP@@B" PURGE="-1" COMMENT="" />
    <EXPORT ORDINAL="1071" NAME="?messageMap@CLink@@1UAFX_MSGMAP@@B" PURGE="-1" COMMENT="" />
    <EXPORT ORDINAL="1072" NAME="?messageMap@CLpaTip@@1UAFX_MSGMAP@@B" PURGE="-1" COMMENT="" />
    <EXPORT ORDINAL="1073" NAME="?messageMap@CMenuButton@@1UAFX_MSGMAP@@B" PURGE="-1" COMMENT="" />
    <EXPORT ORDINAL="1074" NAME="?messageMap@COwnButton@@1UAFX_MSGMAP@@B" PURGE="-1" COMMENT="" />
    <EXPORT ORDINAL="1075" NAME="?messageMap@CProgressPercentageCtrl@@1UAFX_MSGMAP@@B" PURGE="-1" COMMENT="" />
    <EXPORT ORDINAL="1076" NAME="?messageMap@CTextProgressCtrl@@1UAFX_MSGMAP@@B" PURGE="-1" COMMENT="" />
    <EXPORT ORDINAL="1077" NAME="?messageMap@CTransStaticBmp@@1UAFX_MSGMAP@@B" PURGE="-1" COMMENT="" />
    <EXPORT ORDINAL="1078" NAME="?messageMap@CUrlLink@@1UAFX_MSGMAP@@B" PURGE="-1" COMMENT="" />
    <EXPORT ORDINAL="1079" NAME="?messageMap@CWizardSheet@@1UAFX_MSGMAP@@B" PURGE="-1" COMMENT="" />
    <EXPORT ORDINAL="1080" NAME="?messageMap@Cstatbk@@1UAFX_MSGMAP@@B" PURGE="-1" COMMENT="" />
    <EXPORT ORDINAL="1081" NAME="?messageMap@InkTank@@1UAFX_MSGMAP@@B" PURGE="-1" COMMENT="" />
    <EXPORT ORDINAL="1082" NAME="?messageMap@InsetWind@@1UAFX_MSGMAP@@B" PURGE="-1" COMMENT="" />
    <EXPORT ORDINAL="1083" NAME="?messageMap@JSWOptionsDlg@@1UAFX_MSGMAP@@B" PURGE="-1" COMMENT="" />
    <EXPORT ORDINAL="1084" NAME="?messageMap@PopupDialog@@1UAFX_MSGMAP@@B" PURGE="-1" COMMENT="" />
    <EXPORT ORDINAL="1085" NAME="?messageMap@TransStaticEdit@@1UAFX_MSGMAP@@B" PURGE="-1" COMMENT="" />
    <EXPORT ORDINAL="1086" NAME="?messageMap@VersionDlg@@1UAFX_MSGMAP@@B" PURGE="-1" COMMENT="" />
    <EXPORT ORDINAL="1087" NAME="?messageMap@transbkstatic@@1UAFX_MSGMAP@@B" PURGE="-1" COMMENT="" />
</LIBRARY>

