<?xml version="1.0" encoding="UTF-8"?>
<LIBRARY NAME="mccdyn.dll" PATH="/DLLArchive/etc/MCCDyn.dll" DATE="Fri Jul 03 12:49:37 PDT 2020" VERSION="">
    <EXPORT ORDINAL="1" NAME="??0?$TCDA_HashType@VCByteStreamDrive@@VCDA_HashSmall@@VCStr@@@@QAE@ABV0@@Z" PURGE="4" COMMENT="" />
    <EXPORT ORDINAL="2" NAME="??0?$TCDA_HashType@VCByteStreamDrive@@VCDA_HashSmall@@VCStr@@@@QAE@XZ" PURGE="0" COMMENT="" />
    <EXPORT ORDINAL="3" NAME="??0?$THash@FVCMap16Entry@@@@QAE@XZ" PURGE="0" COMMENT="" />
    <EXPORT ORDINAL="4" NAME="??0?$THash@FVCMap32Entry@@@@QAE@XZ" PURGE="0" COMMENT="" />
    <EXPORT ORDINAL="5" NAME="??0?$THash@FVCStringHashConstElement@@@@QAE@XZ" PURGE="0" COMMENT="" />
    <EXPORT ORDINAL="6" NAME="??0?$THash@FVCStringHashElement@@@@QAE@XZ" PURGE="0" COMMENT="" />
    <EXPORT ORDINAL="7" NAME="??0?$THash@JVCHash2DNull@@@@QAE@XZ" PURGE="0" COMMENT="" />
    <EXPORT ORDINAL="8" NAME="??0CAsyncRequest@@QAE@XZ" PURGE="0" COMMENT="" />
    <EXPORT ORDINAL="9" NAME="??0CByteStream@@QAE@XZ" PURGE="0" COMMENT="" />
    <EXPORT ORDINAL="10" NAME="??0CByteStreamAsyncInstance@@QAE@XZ" PURGE="0" COMMENT="" />
    <EXPORT ORDINAL="11" NAME="??0CByteStreamCacheLine@@QAE@XZ" PURGE="0" COMMENT="" />
    <EXPORT ORDINAL="12" NAME="??0CByteStreamData@@QAE@ABV0@@Z" PURGE="4" COMMENT="" />
    <EXPORT ORDINAL="13" NAME="??0CByteStreamData@@QAE@XZ" PURGE="0" COMMENT="" />
    <EXPORT ORDINAL="14" NAME="??0CByteStreamDrive@@QAE@XZ" PURGE="0" COMMENT="" />
    <EXPORT ORDINAL="15" NAME="??0CByteStreamDriveSortList@@QAE@ABV0@@Z" PURGE="4" COMMENT="" />
    <EXPORT ORDINAL="16" NAME="??0CByteStreamDriveSortList@@QAE@XZ" PURGE="0" COMMENT="" />
    <EXPORT ORDINAL="17" NAME="??0CByteStreamDrive_Hash@@QAE@ABV0@@Z" PURGE="4" COMMENT="" />
    <EXPORT ORDINAL="18" NAME="??0CByteStreamDrive_Hash@@QAE@XZ" PURGE="0" COMMENT="" />
    <EXPORT ORDINAL="19" NAME="??0CByteStreamManager@@QAE@XZ" PURGE="0" COMMENT="" />
    <EXPORT ORDINAL="20" NAME="??0CCFile@@QAE@XZ" PURGE="0" COMMENT="" />
    <EXPORT ORDINAL="21" NAME="??0CCacheMem@@QAE@XZ" PURGE="0" COMMENT="" />
    <EXPORT ORDINAL="22" NAME="??0CCompress@@QAE@ABV0@@Z" PURGE="4" COMMENT="" />
    <EXPORT ORDINAL="23" NAME="??0CCompress@@QAE@XZ" PURGE="0" COMMENT="" />
    <EXPORT ORDINAL="24" NAME="??0CCompressSettings@@QAE@ABV0@@Z" PURGE="4" COMMENT="" />
    <EXPORT ORDINAL="25" NAME="??0CCompressSettings@@QAE@XZ" PURGE="0" COMMENT="" />
    <EXPORT ORDINAL="26" NAME="??0CCompressorInterface@@QAE@ABV0@@Z" PURGE="4" COMMENT="" />
    <EXPORT ORDINAL="27" NAME="??0CCompressorInterface@@QAE@XZ" PURGE="0" COMMENT="" />
    <EXPORT ORDINAL="28" NAME="??0CDA_AVLTree@@QAE@ABV0@@Z" PURGE="4" COMMENT="" />
    <EXPORT ORDINAL="29" NAME="??0CDA_AVLTree@@QAE@XZ" PURGE="0" COMMENT="" />
    <EXPORT ORDINAL="30" NAME="??0CDA_AVLTreeable@@QAE@ABV0@@Z" PURGE="4" COMMENT="" />
    <EXPORT ORDINAL="31" NAME="??0CDA_AVLTreeable@@QAE@XZ" PURGE="0" COMMENT="" />
    <EXPORT ORDINAL="32" NAME="??0CDA_AVLTreeableMember@@QAE@PAVCDA_AVLTree@@PAVCDA_AVLTreeable@@@Z" PURGE="8" COMMENT="" />
    <EXPORT ORDINAL="33" NAME="??0CDA_Alignment@@QAE@HPAVCDA_MemoryManager@@@Z" PURGE="8" COMMENT="" />
    <EXPORT ORDINAL="34" NAME="??0CDA_AutoDeleteReference@@QAE@ABV0@@Z" PURGE="4" COMMENT="" />
    <EXPORT ORDINAL="35" NAME="??0CDA_AutoDeleteReference@@QAE@XZ" PURGE="0" COMMENT="" />
    <EXPORT ORDINAL="36" NAME="??0CDA_CircularStack@@QAE@XZ" PURGE="0" COMMENT="" />
    <EXPORT ORDINAL="37" NAME="??0CDA_Defraggable@@QAE@ABV0@@Z" PURGE="4" COMMENT="" />
    <EXPORT ORDINAL="38" NAME="??0CDA_Defraggable@@QAE@XZ" PURGE="0" COMMENT="" />
    <EXPORT ORDINAL="39" NAME="??0CDA_Hash@@QAE@ABV0@@Z" PURGE="4" COMMENT="" />
    <EXPORT ORDINAL="40" NAME="??0CDA_Hash@@QAE@EIE@Z" PURGE="12" COMMENT="" />
    <EXPORT ORDINAL="41" NAME="??0CDA_Hash@@QAE@XZ" PURGE="0" COMMENT="" />
    <EXPORT ORDINAL="42" NAME="??0CDA_HashLink@@QAE@XZ" PURGE="0" COMMENT="" />
    <EXPORT ORDINAL="43" NAME="??0CDA_HashSmall@@QAE@ABV0@@Z" PURGE="4" COMMENT="" />
    <EXPORT ORDINAL="44" NAME="??0CDA_HashSmall@@QAE@EIE@Z" PURGE="12" COMMENT="" />
    <EXPORT ORDINAL="45" NAME="??0CDA_HashSmall@@QAE@XZ" PURGE="0" COMMENT="" />
    <EXPORT ORDINAL="46" NAME="??0CDA_Hashable@@QAE@ABV0@@Z" PURGE="4" COMMENT="" />
    <EXPORT ORDINAL="47" NAME="??0CDA_Hashable@@QAE@XZ" PURGE="0" COMMENT="" />
    <EXPORT ORDINAL="48" NAME="??0CDA_HashableMember@@QAE@XZ" PURGE="0" COMMENT="" />
    <EXPORT ORDINAL="49" NAME="??0CDA_IDHash@@QAE@ABV0@@Z" PURGE="4" COMMENT="" />
    <EXPORT ORDINAL="50" NAME="??0CDA_IDHash@@QAE@EIIE@Z" PURGE="16" COMMENT="" />
    <EXPORT ORDINAL="51" NAME="??0CDA_IDHash@@QAE@XZ" PURGE="0" COMMENT="" />
    <EXPORT ORDINAL="52" NAME="??0CDA_Link@CDA_LinkedList_Small@@QAE@XZ" PURGE="0" COMMENT="" />
    <EXPORT ORDINAL="53" NAME="??0CDA_Linkable@@QAE@ABV0@@Z" PURGE="4" COMMENT="" />
    <EXPORT ORDINAL="54" NAME="??0CDA_Linkable@@QAE@XZ" PURGE="0" COMMENT="" />
    <EXPORT ORDINAL="55" NAME="??0CDA_LinkableMember@@QAE@XZ" PURGE="0" COMMENT="" />
    <EXPORT ORDINAL="56" NAME="??0CDA_LinkedAutoDeleteList@@QAE@XZ" PURGE="0" COMMENT="" />
    <EXPORT ORDINAL="57" NAME="??0CDA_LinkedAutoDeleteList_Small@@QAE@XZ" PURGE="0" COMMENT="" />
    <EXPORT ORDINAL="58" NAME="??0CDA_LinkedList@@QAE@XZ" PURGE="0" COMMENT="" />
    <EXPORT ORDINAL="59" NAME="??0CDA_LinkedListIterator@@QAE@XZ" PURGE="0" COMMENT="" />
    <EXPORT ORDINAL="60" NAME="??0CDA_LinkedListIterator_Small@@QAE@XZ" PURGE="0" COMMENT="" />
    <EXPORT ORDINAL="61" NAME="??0CDA_LinkedList_Small@@QAE@ABV0@@Z" PURGE="4" COMMENT="" />
    <EXPORT ORDINAL="62" NAME="??0CDA_LinkedList_Small@@QAE@XZ" PURGE="0" COMMENT="" />
    <EXPORT ORDINAL="63" NAME="??0CDA_MemoryManager@@QAE@I_N@Z" PURGE="8" COMMENT="" />
    <EXPORT ORDINAL="64" NAME="??0CDA_MemoryManager@@QAE@XZ" PURGE="0" COMMENT="" />
    <EXPORT ORDINAL="65" NAME="??0CDA_MemoryManager_DebugAllocFile@@QAE@ABV0@@Z" PURGE="4" COMMENT="" />
    <EXPORT ORDINAL="66" NAME="??0CDA_MemoryManager_DebugAllocFile@@QAE@XZ" PURGE="0" COMMENT="" />
    <EXPORT ORDINAL="67" NAME="??0CDA_MemoryManager_HeapChunk@@QAE@ABV0@@Z" PURGE="4" COMMENT="" />
    <EXPORT ORDINAL="68" NAME="??0CDA_MemoryManager_HeapChunk@@QAE@PAVCDA_MemoryManager@@I@Z" PURGE="8" COMMENT="" />
    <EXPORT ORDINAL="69" NAME="??0CDA_MemoryManager_SizeClass@@QAE@ABV0@@Z" PURGE="4" COMMENT="" />
    <EXPORT ORDINAL="70" NAME="??0CDA_MemoryManager_SizeClass@@QAE@PAVCDA_MemoryManager@@@Z" PURGE="4" COMMENT="" />
    <EXPORT ORDINAL="71" NAME="??0CDA_Pool@@QAE@XZ" PURGE="0" COMMENT="" />
    <EXPORT ORDINAL="72" NAME="??0CDA_PoolableCompatibleDeleteCompatibleCRef@@QAE@XZ" PURGE="0" COMMENT="" />
    <EXPORT ORDINAL="73" NAME="??0CDA_Referable@@QAE@XZ" PURGE="0" COMMENT="" />
    <EXPORT ORDINAL="74" NAME="??0CDA_Reference@CDA_Referable@@QAE@PAV1@@Z" PURGE="4" COMMENT="" />
    <EXPORT ORDINAL="75" NAME="??0CDA_Reference@CDA_Referable@@QAE@XZ" PURGE="0" COMMENT="" />
    <EXPORT ORDINAL="76" NAME="??0CDataFile@@QAE@XZ" PURGE="0" COMMENT="" />
    <EXPORT ORDINAL="77" NAME="??0CDataFileNode2@@QAE@XZ" PURGE="0" COMMENT="" />
    <EXPORT ORDINAL="78" NAME="??0CDefragTree_HeapChunk@@QAE@ABV0@@Z" PURGE="4" COMMENT="" />
    <EXPORT ORDINAL="79" NAME="??0CDefragTree_HeapChunk@@QAE@XZ" PURGE="0" COMMENT="" />
    <EXPORT ORDINAL="80" NAME="??0CDefragTree_SizeClass@@QAE@ABV0@@Z" PURGE="4" COMMENT="" />
    <EXPORT ORDINAL="81" NAME="??0CDefragTree_SizeClass@@QAE@XZ" PURGE="0" COMMENT="" />
    <EXPORT ORDINAL="82" NAME="??0CDir_FileRec@@QAE@ABV0@@Z" PURGE="4" COMMENT="" />
    <EXPORT ORDINAL="83" NAME="??0CDir_FileRec@@QAE@VCStr@@HH@Z" PURGE="16" COMMENT="" />
    <EXPORT ORDINAL="84" NAME="??0CDir_FileRec@@QAE@XZ" PURGE="0" COMMENT="" />
    <EXPORT ORDINAL="85" NAME="??0CDirectoryNode@@QAE@XZ" PURGE="0" COMMENT="" />
    <EXPORT ORDINAL="86" NAME="??0CFileAsyncCopy@@QAE@XZ" PURGE="0" COMMENT="" />
    <EXPORT ORDINAL="87" NAME="??0CFileAsyncWrite@@QAE@XZ" PURGE="0" COMMENT="" />
    <EXPORT ORDINAL="88" NAME="??0CHash2D@@QAE@XZ" PURGE="0" COMMENT="" />
    <EXPORT ORDINAL="89" NAME="??0CHuffman@@QAE@ABV0@@Z" PURGE="4" COMMENT="" />
    <EXPORT ORDINAL="90" NAME="??0CHuffman@@QAE@XZ" PURGE="0" COMMENT="" />
    <EXPORT ORDINAL="91" NAME="??0CHuffmanSettings@@QAE@ABV0@@Z" PURGE="4" COMMENT="" />
    <EXPORT ORDINAL="92" NAME="??0CHuffmanSettings@@QAE@XZ" PURGE="0" COMMENT="" />
    <EXPORT ORDINAL="93" NAME="??0CHuffmanTree@@QAE@XZ" PURGE="0" COMMENT="" />
    <EXPORT ORDINAL="94" NAME="??0CIDHeap@@QAE@H_N@Z" PURGE="8" COMMENT="" />
    <EXPORT ORDINAL="95" NAME="??0CIDHeap@@QAE@XZ" PURGE="0" COMMENT="" />
    <EXPORT ORDINAL="96" NAME="??0CKeyContainer@@QAE@XZ" PURGE="0" COMMENT="" />
    <EXPORT ORDINAL="97" NAME="??0CKeyContainerNode@@QAE@XZ" PURGE="0" COMMENT="" />
    <EXPORT ORDINAL="98" NAME="??0CLZSS@@QAE@ABV0@@Z" PURGE="4" COMMENT="" />
    <EXPORT ORDINAL="99" NAME="??0CLZSS@@QAE@XZ" PURGE="0" COMMENT="" />
    <EXPORT ORDINAL="100" NAME="??0CLZSSSettings@@QAE@ABV0@@Z" PURGE="4" COMMENT="" />
    <EXPORT ORDINAL="101" NAME="??0CLZSSSettings@@QAE@XZ" PURGE="0" COMMENT="" />
    <EXPORT ORDINAL="102" NAME="??0CLZW@@QAE@ABV0@@Z" PURGE="4" COMMENT="" />
    <EXPORT ORDINAL="103" NAME="??0CLZW@@QAE@XZ" PURGE="0" COMMENT="" />
    <EXPORT ORDINAL="104" NAME="??0CLZWSettings@@QAE@ABV0@@Z" PURGE="4" COMMENT="" />
    <EXPORT ORDINAL="105" NAME="??0CLZWSettings@@QAE@XZ" PURGE="0" COMMENT="" />
    <EXPORT ORDINAL="106" NAME="??0CLZW_GIFSettings@@QAE@ABV0@@Z" PURGE="4" COMMENT="" />
    <EXPORT ORDINAL="107" NAME="??0CLZW_GIFSettings@@QAE@XZ" PURGE="0" COMMENT="" />
    <EXPORT ORDINAL="108" NAME="??0CListVectorCore@@QAE@ABV0@@Z" PURGE="4" COMMENT="" />
    <EXPORT ORDINAL="109" NAME="??0CListVectorCore@@QAE@XZ" PURGE="0" COMMENT="" />
    <EXPORT ORDINAL="110" NAME="??0CListVectorData@@QAE@ABV0@@Z" PURGE="4" COMMENT="" />
    <EXPORT ORDINAL="111" NAME="??0CListVectorData@@QAE@XZ" PURGE="0" COMMENT="" />
    <EXPORT ORDINAL="112" NAME="??0CLogFile@@QAE@VCStr@@_N@Z" PURGE="12" COMMENT="" />
    <EXPORT ORDINAL="113" NAME="??0CLogFile@@QAE@XZ" PURGE="0" COMMENT="" />
    <EXPORT ORDINAL="114" NAME="??0CMDA_CRC32Checker@@QAE@XZ" PURGE="0" COMMENT="" />
    <EXPORT ORDINAL="115" NAME="??0CMDA_CRC32CheckerTable@@QAE@XZ" PURGE="0" COMMENT="" />
    <EXPORT ORDINAL="116" NAME="??0CMap16@@QAE@XZ" PURGE="0" COMMENT="" />
    <EXPORT ORDINAL="117" NAME="??0CMap32@@QAE@XZ" PURGE="0" COMMENT="" />
    <EXPORT ORDINAL="118" NAME="??0CMathAccel@@QAE@XZ" PURGE="0" COMMENT="" />
    <EXPORT ORDINAL="119" NAME="??0CStream@@QAE@XZ" PURGE="0" COMMENT="" />
    <EXPORT ORDINAL="120" NAME="??0CStream_Disk@@QAE@XZ" PURGE="0" COMMENT="" />
    <EXPORT ORDINAL="121" NAME="??0CStream_Memory@@QAE@PAEHH@Z" PURGE="12" COMMENT="" />
    <EXPORT ORDINAL="122" NAME="??0CStream_Memory@@QAE@V?$TList_Vector@EVTList_Vector_CNonAligned@@@@H@Z" PURGE="12" COMMENT="" />
    <EXPORT ORDINAL="123" NAME="??0CStream_Memory@@QAE@XZ" PURGE="0" COMMENT="" />
    <EXPORT ORDINAL="124" NAME="??0CStream_RAM@@QAE@XZ" PURGE="0" COMMENT="" />
    <EXPORT ORDINAL="125" NAME="??0CStream_SubFile@@QAE@XZ" PURGE="0" COMMENT="" />
    <EXPORT ORDINAL="126" NAME="??0CStream_XDF@@QAE@XZ" PURGE="0" COMMENT="" />
    <EXPORT ORDINAL="127" NAME="??0CStringHash@@QAE@XZ" PURGE="0" COMMENT="" />
    <EXPORT ORDINAL="128" NAME="??0CStringHashConst@@QAE@XZ" PURGE="0" COMMENT="" />
    <EXPORT ORDINAL="129" NAME="??0CXDF@@QAE@XZ" PURGE="0" COMMENT="" />
    <EXPORT ORDINAL="130" NAME="??1?$TCDA_HashType@VCByteStreamDrive@@VCDA_HashSmall@@VCStr@@@@UAE@XZ" PURGE="0" COMMENT="" />
    <EXPORT ORDINAL="131" NAME="??1?$THash@FVCIndexPool16Elem@@@@UAE@XZ" PURGE="0" COMMENT="" />
    <EXPORT ORDINAL="132" NAME="??1?$THash@FVCMap16Entry@@@@UAE@XZ" PURGE="0" COMMENT="" />
    <EXPORT ORDINAL="133" NAME="??1?$THash@FVCMap32Entry@@@@UAE@XZ" PURGE="0" COMMENT="" />
    <EXPORT ORDINAL="134" NAME="??1?$THash@FVCStringHashConstElement@@@@UAE@XZ" PURGE="0" COMMENT="" />
    <EXPORT ORDINAL="135" NAME="??1?$THash@FVCStringHashElement@@@@UAE@XZ" PURGE="0" COMMENT="" />
    <EXPORT ORDINAL="136" NAME="??1?$THash@JVCHash2DNull@@@@UAE@XZ" PURGE="0" COMMENT="" />
    <EXPORT ORDINAL="137" NAME="??1CAsyncRequest@@QAE@XZ" PURGE="0" COMMENT="" />
    <EXPORT ORDINAL="138" NAME="??1CByteStream@@QAE@XZ" PURGE="0" COMMENT="" />
    <EXPORT ORDINAL="139" NAME="??1CByteStreamAsyncInstance@@QAE@XZ" PURGE="0" COMMENT="" />
    <EXPORT ORDINAL="140" NAME="??1CByteStreamCacheLine@@UAE@XZ" PURGE="0" COMMENT="" />
    <EXPORT ORDINAL="141" NAME="??1CByteStreamData@@QAE@XZ" PURGE="0" COMMENT="" />
    <EXPORT ORDINAL="142" NAME="??1CByteStreamDrive@@QAE@XZ" PURGE="0" COMMENT="" />
    <EXPORT ORDINAL="143" NAME="??1CByteStreamDriveSortList@@UAE@XZ" PURGE="0" COMMENT="" />
    <EXPORT ORDINAL="144" NAME="??1CByteStreamDrive_Hash@@UAE@XZ" PURGE="0" COMMENT="" />
    <EXPORT ORDINAL="145" NAME="??1CByteStreamManager@@QAE@XZ" PURGE="0" COMMENT="" />
    <EXPORT ORDINAL="146" NAME="??1CCFile@@UAE@XZ" PURGE="0" COMMENT="" />
    <EXPORT ORDINAL="147" NAME="??1CCacheMem@@UAE@XZ" PURGE="0" COMMENT="" />
    <EXPORT ORDINAL="148" NAME="??1CCompress@@UAE@XZ" PURGE="0" COMMENT="" />
    <EXPORT ORDINAL="149" NAME="??1CCompressSettings@@UAE@XZ" PURGE="0" COMMENT="" />
    <EXPORT ORDINAL="150" NAME="??1CCompressorInterface@@UAE@XZ" PURGE="0" COMMENT="" />
    <EXPORT ORDINAL="151" NAME="??1CDA_AVLTreeable@@UAE@XZ" PURGE="0" COMMENT="" />
    <EXPORT ORDINAL="152" NAME="??1CDA_AVLTreeableMember@@QAE@XZ" PURGE="0" COMMENT="" />
    <EXPORT ORDINAL="153" NAME="??1CDA_Alignment@@QAE@XZ" PURGE="0" COMMENT="" />
    <EXPORT ORDINAL="154" NAME="??1CDA_AutoDeleteReference@@UAE@XZ" PURGE="0" COMMENT="" />
    <EXPORT ORDINAL="155" NAME="??1CDA_CircularStack@@UAE@XZ" PURGE="0" COMMENT="" />
    <EXPORT ORDINAL="156" NAME="??1CDA_Hash@@UAE@XZ" PURGE="0" COMMENT="" />
    <EXPORT ORDINAL="157" NAME="??1CDA_HashLink@@QAE@XZ" PURGE="0" COMMENT="" />
    <EXPORT ORDINAL="158" NAME="??1CDA_HashSmall@@UAE@XZ" PURGE="0" COMMENT="" />
    <EXPORT ORDINAL="159" NAME="??1CDA_Hashable@@UAE@XZ" PURGE="0" COMMENT="" />
    <EXPORT ORDINAL="160" NAME="??1CDA_HashableMember@@QAE@XZ" PURGE="0" COMMENT="" />
    <EXPORT ORDINAL="161" NAME="??1CDA_IDHash@@UAE@XZ" PURGE="0" COMMENT="" />
    <EXPORT ORDINAL="162" NAME="??1CDA_Link@CDA_LinkedList_Small@@QAE@XZ" PURGE="0" COMMENT="" />
    <EXPORT ORDINAL="163" NAME="??1CDA_Linkable@@UAE@XZ" PURGE="0" COMMENT="" />
    <EXPORT ORDINAL="164" NAME="??1CDA_LinkableMember@@QAE@XZ" PURGE="0" COMMENT="" />
    <EXPORT ORDINAL="165" NAME="??1CDA_LinkedAutoDeleteList@@UAE@XZ" PURGE="0" COMMENT="" />
    <EXPORT ORDINAL="166" NAME="??1CDA_LinkedAutoDeleteList_Small@@UAE@XZ" PURGE="0" COMMENT="" />
    <EXPORT ORDINAL="167" NAME="??1CDA_LinkedList@@UAE@XZ" PURGE="0" COMMENT="" />
    <EXPORT ORDINAL="168" NAME="??1CDA_LinkedList_Small@@UAE@XZ" PURGE="0" COMMENT="" />
    <EXPORT ORDINAL="169" NAME="??1CDA_MemoryManager@@UAE@XZ" PURGE="0" COMMENT="" />
    <EXPORT ORDINAL="170" NAME="??1CDA_MemoryManager_DebugAllocFile@@UAE@XZ" PURGE="0" COMMENT="" />
    <EXPORT ORDINAL="171" NAME="??1CDA_MemoryManager_HeapChunk@@UAE@XZ" PURGE="0" COMMENT="" />
    <EXPORT ORDINAL="172" NAME="??1CDA_MemoryManager_SizeClass@@UAE@XZ" PURGE="0" COMMENT="" />
    <EXPORT ORDINAL="173" NAME="??1CDA_Pool@@QAE@XZ" PURGE="0" COMMENT="" />
    <EXPORT ORDINAL="174" NAME="??1CDA_PoolableCompatibleDeleteCompatibleCRef@@UAE@XZ" PURGE="0" COMMENT="" />
    <EXPORT ORDINAL="175" NAME="??1CDA_PoolableCompatibleDeleteVirtual@@QAE@XZ" PURGE="0" COMMENT="" />
    <EXPORT ORDINAL="176" NAME="??1CDA_Referable@@QAE@XZ" PURGE="0" COMMENT="" />
    <EXPORT ORDINAL="177" NAME="??1CDA_Reference@CDA_Referable@@QAE@XZ" PURGE="0" COMMENT="" />
    <EXPORT ORDINAL="178" NAME="??1CDataFile@@UAE@XZ" PURGE="0" COMMENT="" />
    <EXPORT ORDINAL="179" NAME="??1CDir_FileRec@@UAE@XZ" PURGE="0" COMMENT="" />
    <EXPORT ORDINAL="180" NAME="??1CDirectoryNode@@UAE@XZ" PURGE="0" COMMENT="" />
    <EXPORT ORDINAL="181" NAME="??1CFileAsyncCopy@@QAE@XZ" PURGE="0" COMMENT="" />
    <EXPORT ORDINAL="182" NAME="??1CFileAsyncWrite@@QAE@XZ" PURGE="0" COMMENT="" />
    <EXPORT ORDINAL="183" NAME="??1CHash2D@@UAE@XZ" PURGE="0" COMMENT="" />
    <EXPORT ORDINAL="184" NAME="??1CHuffman@@UAE@XZ" PURGE="0" COMMENT="" />
    <EXPORT ORDINAL="185" NAME="??1CHuffmanSettings@@UAE@XZ" PURGE="0" COMMENT="" />
    <EXPORT ORDINAL="186" NAME="??1CHuffmanTree@@UAE@XZ" PURGE="0" COMMENT="" />
    <EXPORT ORDINAL="187" NAME="??1CIDHeap@@UAE@XZ" PURGE="0" COMMENT="" />
    <EXPORT ORDINAL="188" NAME="??1CKeyContainer@@UAE@XZ" PURGE="0" COMMENT="" />
    <EXPORT ORDINAL="189" NAME="??1CKeyContainerNode@@UAE@XZ" PURGE="0" COMMENT="" />
    <EXPORT ORDINAL="190" NAME="??1CLZSS@@UAE@XZ" PURGE="0" COMMENT="" />
    <EXPORT ORDINAL="191" NAME="??1CLZSSSettings@@UAE@XZ" PURGE="0" COMMENT="" />
    <EXPORT ORDINAL="192" NAME="??1CLZW@@UAE@XZ" PURGE="0" COMMENT="" />
    <EXPORT ORDINAL="193" NAME="??1CLZWSettings@@UAE@XZ" PURGE="0" COMMENT="" />
    <EXPORT ORDINAL="194" NAME="??1CLZW_GIFSettings@@UAE@XZ" PURGE="0" COMMENT="" />
    <EXPORT ORDINAL="195" NAME="??1CListVectorCore@@UAE@XZ" PURGE="0" COMMENT="" />
    <EXPORT ORDINAL="196" NAME="??1CLogFile@@UAE@XZ" PURGE="0" COMMENT="" />
    <EXPORT ORDINAL="197" NAME="??1CMDA_CRC32Checker@@QAE@XZ" PURGE="0" COMMENT="" />
    <EXPORT ORDINAL="198" NAME="??1CMap16@@UAE@XZ" PURGE="0" COMMENT="" />
    <EXPORT ORDINAL="199" NAME="??1CMap32@@UAE@XZ" PURGE="0" COMMENT="" />
    <EXPORT ORDINAL="200" NAME="??1CMathAccel@@UAE@XZ" PURGE="0" COMMENT="" />
    <EXPORT ORDINAL="201" NAME="??1CSpaceEnum_OctTree@@UAE@XZ" PURGE="0" COMMENT="" />
    <EXPORT ORDINAL="202" NAME="??1CStream@@UAE@XZ" PURGE="0" COMMENT="" />
    <EXPORT ORDINAL="203" NAME="??1CStream_Disk@@UAE@XZ" PURGE="0" COMMENT="" />
    <EXPORT ORDINAL="204" NAME="??1CStream_Memory@@UAE@XZ" PURGE="0" COMMENT="" />
    <EXPORT ORDINAL="205" NAME="??1CStream_RAM@@UAE@XZ" PURGE="0" COMMENT="" />
    <EXPORT ORDINAL="206" NAME="??1CStream_XDF@@UAE@XZ" PURGE="0" COMMENT="" />
    <EXPORT ORDINAL="207" NAME="??1CStringHash@@UAE@XZ" PURGE="0" COMMENT="" />
    <EXPORT ORDINAL="208" NAME="??1CStringHashConst@@UAE@XZ" PURGE="0" COMMENT="" />
    <EXPORT ORDINAL="209" NAME="??1CXDF@@QAE@XZ" PURGE="0" COMMENT="" />
    <EXPORT ORDINAL="210" NAME="??2CDA_Defraggable@@SAPAXI@Z" PURGE="0" COMMENT="" />
    <EXPORT ORDINAL="211" NAME="??2CDA_Defraggable@@SAPAXIPAVCDA_MemoryManager@@@Z" PURGE="0" COMMENT="" />
    <EXPORT ORDINAL="212" NAME="??2CDA_Defraggable@@SAPAXIPAVCDA_MemoryManager@@I@Z" PURGE="0" COMMENT="" />
    <EXPORT ORDINAL="213" NAME="??2CDA_Poolable@@SAPAXIAAVCDA_Pool_Static@@@Z" PURGE="0" COMMENT="" />
    <EXPORT ORDINAL="214" NAME="??2CDA_Poolable@@SAPAXIPAVCDA_Pool_Static@@@Z" PURGE="0" COMMENT="" />
    <EXPORT ORDINAL="215" NAME="??2CDA_PoolableCompatibleDelete@@SAPAXIAAVCDA_Pool_Static@@@Z" PURGE="0" COMMENT="" />
    <EXPORT ORDINAL="216" NAME="??2CDA_PoolableCompatibleDelete@@SAPAXIPAVCDA_Pool_Static@@@Z" PURGE="0" COMMENT="" />
    <EXPORT ORDINAL="217" NAME="??2CDA_PoolableCompatibleDeleteCompatibleCRef@@SAPAXIAAVCDA_Pool_Static@@@Z" PURGE="0" COMMENT="" />
    <EXPORT ORDINAL="218" NAME="??2CDA_PoolableCompatibleDeleteCompatibleCRef@@SAPAXIPAVCDA_Pool_Static@@@Z" PURGE="0" COMMENT="" />
    <EXPORT ORDINAL="219" NAME="??3CDA_Defraggable@@SAXPAX@Z" PURGE="0" COMMENT="" />
    <EXPORT ORDINAL="220" NAME="??3CDA_Defraggable@@SAXPAXPAVCDA_MemoryManager@@@Z" PURGE="0" COMMENT="" />
    <EXPORT ORDINAL="221" NAME="??3CDA_Defraggable@@SAXPAXPAVCDA_MemoryManager@@I@Z" PURGE="0" COMMENT="" />
    <EXPORT ORDINAL="222" NAME="??3CDA_Poolable@@SAXPAX@Z" PURGE="0" COMMENT="" />
    <EXPORT ORDINAL="223" NAME="??3CDA_Poolable@@SAXPAXAAVCDA_Pool_Static@@@Z" PURGE="0" COMMENT="" />
    <EXPORT ORDINAL="224" NAME="??3CDA_Poolable@@SAXPAXPAVCDA_Pool_Static@@@Z" PURGE="0" COMMENT="" />
    <EXPORT ORDINAL="225" NAME="??3CDA_PoolableCompatibleDelete@@SAXPAX@Z" PURGE="0" COMMENT="" />
    <EXPORT ORDINAL="226" NAME="??3CDA_PoolableCompatibleDelete@@SAXPAXAAVCDA_Pool_Static@@@Z" PURGE="0" COMMENT="" />
    <EXPORT ORDINAL="227" NAME="??3CDA_PoolableCompatibleDelete@@SAXPAXPAVCDA_Pool_Static@@@Z" PURGE="0" COMMENT="" />
    <EXPORT ORDINAL="228" NAME="??3CDA_PoolableCompatibleDeleteCompatibleCRef@@SAXPAX@Z" PURGE="0" COMMENT="" />
    <EXPORT ORDINAL="229" NAME="??3CDA_PoolableCompatibleDeleteCompatibleCRef@@SAXPAXAAVCDA_Pool_Static@@@Z" PURGE="0" COMMENT="" />
    <EXPORT ORDINAL="230" NAME="??3CDA_PoolableCompatibleDeleteCompatibleCRef@@SAXPAXPAVCDA_Pool_Static@@@Z" PURGE="0" COMMENT="" />
    <EXPORT ORDINAL="231" NAME="??4?$TCDA_HashType@VCByteStreamDrive@@VCDA_HashSmall@@VCStr@@@@QAEAAV0@ABV0@@Z" PURGE="4" COMMENT="" />
    <EXPORT ORDINAL="232" NAME="??4CAsyncRequest@@QAEAAV0@ABV0@@Z" PURGE="4" COMMENT="" />
    <EXPORT ORDINAL="233" NAME="??4CByteStream@@QAEAAV0@ABV0@@Z" PURGE="4" COMMENT="" />
    <EXPORT ORDINAL="234" NAME="??4CByteStreamAsyncInstance@@QAEAAV0@ABV0@@Z" PURGE="4" COMMENT="" />
    <EXPORT ORDINAL="235" NAME="??4CByteStreamData@@QAEAAV0@ABV0@@Z" PURGE="4" COMMENT="" />
    <EXPORT ORDINAL="236" NAME="??4CByteStreamDriveSortList@@QAEAAV0@ABV0@@Z" PURGE="4" COMMENT="" />
    <EXPORT ORDINAL="237" NAME="??4CByteStreamDrive_Hash@@QAEAAV0@ABV0@@Z" PURGE="4" COMMENT="" />
    <EXPORT ORDINAL="238" NAME="??4CCompress@@QAEAAV0@ABV0@@Z" PURGE="4" COMMENT="" />
    <EXPORT ORDINAL="239" NAME="??4CCompressSettings@@QAEAAV0@ABV0@@Z" PURGE="4" COMMENT="" />
    <EXPORT ORDINAL="240" NAME="??4CCompressorInterface@@QAEAAV0@ABV0@@Z" PURGE="4" COMMENT="" />
    <EXPORT ORDINAL="241" NAME="??4CDA_AVLTree@@QAEAAV0@ABV0@@Z" PURGE="4" COMMENT="" />
    <EXPORT ORDINAL="242" NAME="??4CDA_AVLTreeable@@QAEAAV0@ABV0@@Z" PURGE="4" COMMENT="" />
    <EXPORT ORDINAL="243" NAME="??4CDA_AVLTreeableMember@@QAEAAV0@ABV0@@Z" PURGE="4" COMMENT="" />
    <EXPORT ORDINAL="244" NAME="??4CDA_Alignment@@QAEAAV0@ABV0@@Z" PURGE="4" COMMENT="" />
    <EXPORT ORDINAL="245" NAME="??4CDA_AutoDeleteReference@@QAEAAV0@ABV0@@Z" PURGE="4" COMMENT="" />
    <EXPORT ORDINAL="246" NAME="??4CDA_Defraggable@@QAEAAV0@ABV0@@Z" PURGE="4" COMMENT="" />
    <EXPORT ORDINAL="247" NAME="??4CDA_Hash@@QAEAAV0@ABV0@@Z" PURGE="4" COMMENT="" />
    <EXPORT ORDINAL="248" NAME="??4CDA_HashLink@@QAEAAV0@ABV0@@Z" PURGE="4" COMMENT="" />
    <EXPORT ORDINAL="249" NAME="??4CDA_HashSmall@@QAEAAV0@ABV0@@Z" PURGE="4" COMMENT="" />
    <EXPORT ORDINAL="250" NAME="??4CDA_Hashable@@QAEAAV0@ABV0@@Z" PURGE="4" COMMENT="" />
    <EXPORT ORDINAL="251" NAME="??4CDA_HashableMember@@QAEAAV0@ABV0@@Z" PURGE="4" COMMENT="" />
    <EXPORT ORDINAL="252" NAME="??4CDA_IDHash@@QAEAAV0@ABV0@@Z" PURGE="4" COMMENT="" />
    <EXPORT ORDINAL="253" NAME="??4CDA_Link@CDA_LinkedList_Small@@QAEAAV01@ABV01@@Z" PURGE="4" COMMENT="" />
    <EXPORT ORDINAL="254" NAME="??4CDA_Linkable@@QAEAAV0@ABV0@@Z" PURGE="4" COMMENT="" />
    <EXPORT ORDINAL="255" NAME="??4CDA_LinkableMember@@QAEAAV0@ABV0@@Z" PURGE="4" COMMENT="" />
    <EXPORT ORDINAL="256" NAME="??4CDA_LinkedListIterator@@QAEAAV0@ABV0@@Z" PURGE="4" COMMENT="" />
    <EXPORT ORDINAL="257" NAME="??4CDA_LinkedListIterator_Small@@QAEAAV0@ABV0@@Z" PURGE="4" COMMENT="" />
    <EXPORT ORDINAL="258" NAME="??4CDA_LinkedList_Small@@QAEAAV0@ABV0@@Z" PURGE="4" COMMENT="" />
    <EXPORT ORDINAL="259" NAME="??4CDA_MemoryManager_DebugAllocFile@@QAEAAV0@ABV0@@Z" PURGE="4" COMMENT="" />
    <EXPORT ORDINAL="260" NAME="??4CDA_MemoryManager_HeapChunk@@QAEAAV0@ABV0@@Z" PURGE="4" COMMENT="" />
    <EXPORT ORDINAL="261" NAME="??4CDA_MemoryManager_SizeClass@@QAEAAV0@ABV0@@Z" PURGE="4" COMMENT="" />
    <EXPORT ORDINAL="262" NAME="??4CDA_Pool@@QAEAAV0@ABV0@@Z" PURGE="4" COMMENT="" />
    <EXPORT ORDINAL="263" NAME="??4CDA_Pool_Static@@QAEAAV0@ABV0@@Z" PURGE="4" COMMENT="" />
    <EXPORT ORDINAL="264" NAME="??4CDA_Poolable@@QAEAAV0@ABV0@@Z" PURGE="4" COMMENT="" />
    <EXPORT ORDINAL="265" NAME="??4CDA_PoolableCompatibleDelete@@QAEAAV0@ABV0@@Z" PURGE="4" COMMENT="" />
    <EXPORT ORDINAL="266" NAME="??4CDA_PoolableCompatibleDeleteVirtual@@QAEAAV0@ABV0@@Z" PURGE="4" COMMENT="" />
    <EXPORT ORDINAL="267" NAME="??4CDA_Referable@@QAEAAV0@ABV0@@Z" PURGE="4" COMMENT="" />
    <EXPORT ORDINAL="268" NAME="??4CDA_Reference@CDA_Referable@@QAEAAV01@ABV01@@Z" PURGE="4" COMMENT="" />
    <EXPORT ORDINAL="269" NAME="??4CDataFileNode2@@QAEAAV0@ABV0@@Z" PURGE="4" COMMENT="" />
    <EXPORT ORDINAL="270" NAME="??4CDataFileNode@@QAEAAV0@ABV0@@Z" PURGE="4" COMMENT="" />
    <EXPORT ORDINAL="271" NAME="??4CDefragTree_HeapChunk@@QAEAAV0@ABV0@@Z" PURGE="4" COMMENT="" />
    <EXPORT ORDINAL="272" NAME="??4CDefragTree_SizeClass@@QAEAAV0@ABV0@@Z" PURGE="4" COMMENT="" />
    <EXPORT ORDINAL="273" NAME="??4CDir_FileRec@@QAEXABV0@@Z" PURGE="4" COMMENT="" />
    <EXPORT ORDINAL="274" NAME="??4CDiskUtil@@QAEAAV0@ABV0@@Z" PURGE="4" COMMENT="" />
    <EXPORT ORDINAL="275" NAME="??4CFileAsyncCopy@@QAEAAV0@ABV0@@Z" PURGE="4" COMMENT="" />
    <EXPORT ORDINAL="276" NAME="??4CFileAsyncWrite@@QAEAAV0@ABV0@@Z" PURGE="4" COMMENT="" />
    <EXPORT ORDINAL="277" NAME="??4CFileInfo@@QAEAAV0@ABV0@@Z" PURGE="4" COMMENT="" />
    <EXPORT ORDINAL="278" NAME="??4CHuffman@@QAEAAV0@ABV0@@Z" PURGE="4" COMMENT="" />
    <EXPORT ORDINAL="279" NAME="??4CHuffmanSettings@@QAEAAV0@ABV0@@Z" PURGE="4" COMMENT="" />
    <EXPORT ORDINAL="280" NAME="??4CKeyContainer@@QAEXABV0@@Z" PURGE="4" COMMENT="" />
    <EXPORT ORDINAL="281" NAME="??4CLZSS@@QAEAAV0@ABV0@@Z" PURGE="4" COMMENT="" />
    <EXPORT ORDINAL="282" NAME="??4CLZSSSettings@@QAEAAV0@ABV0@@Z" PURGE="4" COMMENT="" />
    <EXPORT ORDINAL="283" NAME="??4CLZW@@QAEAAV0@ABV0@@Z" PURGE="4" COMMENT="" />
    <EXPORT ORDINAL="284" NAME="??4CLZWSettings@@QAEAAV0@ABV0@@Z" PURGE="4" COMMENT="" />
    <EXPORT ORDINAL="285" NAME="??4CLZW_GIFSettings@@QAEAAV0@ABV0@@Z" PURGE="4" COMMENT="" />
    <EXPORT ORDINAL="286" NAME="??4CListVectorCore@@QAEAAV0@ABV0@@Z" PURGE="4" COMMENT="" />
    <EXPORT ORDINAL="287" NAME="??4CListVectorData@@QAEAAV0@ABV0@@Z" PURGE="4" COMMENT="" />
    <EXPORT ORDINAL="288" NAME="??4CMDA_CRC32Checker@@QAEAAV0@ABV0@@Z" PURGE="4" COMMENT="" />
    <EXPORT ORDINAL="289" NAME="??4CMDA_CRC32CheckerTable@@QAEAAV0@ABV0@@Z" PURGE="4" COMMENT="" />
    <EXPORT ORDINAL="290" NAME="??8CFileInfo@@QAE_NABV0@@Z" PURGE="4" COMMENT="" />
    <EXPORT ORDINAL="291" NAME="??_7?$TCDA_HashType@VCByteStreamDrive@@VCDA_HashSmall@@VCStr@@@@6B@" PURGE="-1" COMMENT="" />
    <EXPORT ORDINAL="292" NAME="??_7?$THash@FVCIndexPool16Elem@@@@6B@" PURGE="-1" COMMENT="" />
    <EXPORT ORDINAL="293" NAME="??_7?$THash@FVCMap16Entry@@@@6B@" PURGE="-1" COMMENT="" />
    <EXPORT ORDINAL="294" NAME="??_7?$THash@FVCMap32Entry@@@@6B@" PURGE="-1" COMMENT="" />
    <EXPORT ORDINAL="295" NAME="??_7?$THash@FVCStringHashConstElement@@@@6B@" PURGE="-1" COMMENT="" />
    <EXPORT ORDINAL="296" NAME="??_7?$THash@FVCStringHashElement@@@@6B@" PURGE="-1" COMMENT="" />
    <EXPORT ORDINAL="297" NAME="??_7?$THash@JVCHash2DNull@@@@6B@" PURGE="-1" COMMENT="" />
    <EXPORT ORDINAL="298" NAME="??_7CByteStreamCacheLine@@6B@" PURGE="-1" COMMENT="" />
    <EXPORT ORDINAL="299" NAME="??_7CByteStreamDriveSortList@@6B@" PURGE="-1" COMMENT="" />
    <EXPORT ORDINAL="300" NAME="??_7CByteStreamDrive_Hash@@6B@" PURGE="-1" COMMENT="" />
    <EXPORT ORDINAL="301" NAME="??_7CCFile@@6B@" PURGE="-1" COMMENT="" />
    <EXPORT ORDINAL="302" NAME="??_7CCacheMem@@6B@" PURGE="-1" COMMENT="" />
    <EXPORT ORDINAL="303" NAME="??_7CCompress@@6B@" PURGE="-1" COMMENT="" />
    <EXPORT ORDINAL="304" NAME="??_7CCompressSettings@@6B@" PURGE="-1" COMMENT="" />
    <EXPORT ORDINAL="305" NAME="??_7CCompressorInterface@@6B@" PURGE="-1" COMMENT="" />
    <EXPORT ORDINAL="306" NAME="??_7CDA_AVLTree@@6B@" PURGE="-1" COMMENT="" />
    <EXPORT ORDINAL="307" NAME="??_7CDA_AVLTreeable@@6B@" PURGE="-1" COMMENT="" />
    <EXPORT ORDINAL="308" NAME="??_7CDA_AutoDeleteReference@@6B@" PURGE="-1" COMMENT="" />
    <EXPORT ORDINAL="309" NAME="??_7CDA_Defraggable@@6B@" PURGE="-1" COMMENT="" />
    <EXPORT ORDINAL="310" NAME="??_7CDA_Hash@@6B@" PURGE="-1" COMMENT="" />
    <EXPORT ORDINAL="311" NAME="??_7CDA_HashSmall@@6B@" PURGE="-1" COMMENT="" />
    <EXPORT ORDINAL="312" NAME="??_7CDA_Hashable@@6B@" PURGE="-1" COMMENT="" />
    <EXPORT ORDINAL="313" NAME="??_7CDA_IDHash@@6B@" PURGE="-1" COMMENT="" />
    <EXPORT ORDINAL="314" NAME="??_7CDA_Linkable@@6B@" PURGE="-1" COMMENT="" />
    <EXPORT ORDINAL="315" NAME="??_7CDA_LinkedAutoDeleteList@@6B@" PURGE="-1" COMMENT="" />
    <EXPORT ORDINAL="316" NAME="??_7CDA_LinkedAutoDeleteList_Small@@6B@" PURGE="-1" COMMENT="" />
    <EXPORT ORDINAL="317" NAME="??_7CDA_LinkedList@@6B@" PURGE="-1" COMMENT="" />
    <EXPORT ORDINAL="318" NAME="??_7CDA_LinkedList_Small@@6B@" PURGE="-1" COMMENT="" />
    <EXPORT ORDINAL="319" NAME="??_7CDA_MemoryManager@@6B@" PURGE="-1" COMMENT="" />
    <EXPORT ORDINAL="320" NAME="??_7CDA_MemoryManager_DebugAllocFile@@6B@" PURGE="-1" COMMENT="" />
    <EXPORT ORDINAL="321" NAME="??_7CDA_MemoryManager_HeapChunk@@6B@" PURGE="-1" COMMENT="" />
    <EXPORT ORDINAL="322" NAME="??_7CDA_MemoryManager_SizeClass@@6B@" PURGE="-1" COMMENT="" />
    <EXPORT ORDINAL="323" NAME="??_7CDA_PoolableCompatibleDeleteCompatibleCRef@@6B@" PURGE="-1" COMMENT="" />
    <EXPORT ORDINAL="324" NAME="??_7CDataFile@@6B@" PURGE="-1" COMMENT="" />
    <EXPORT ORDINAL="325" NAME="??_7CDefragTree_HeapChunk@@6B@" PURGE="-1" COMMENT="" />
    <EXPORT ORDINAL="326" NAME="??_7CDefragTree_SizeClass@@6B@" PURGE="-1" COMMENT="" />
    <EXPORT ORDINAL="327" NAME="??_7CDir_FileRec@@6B@" PURGE="-1" COMMENT="" />
    <EXPORT ORDINAL="328" NAME="??_7CDirectoryNode@@6B@" PURGE="-1" COMMENT="" />
    <EXPORT ORDINAL="329" NAME="??_7CHash2D@@6B@" PURGE="-1" COMMENT="" />
    <EXPORT ORDINAL="330" NAME="??_7CHuffman@@6B@" PURGE="-1" COMMENT="" />
    <EXPORT ORDINAL="331" NAME="??_7CHuffmanSettings@@6B@" PURGE="-1" COMMENT="" />
    <EXPORT ORDINAL="332" NAME="??_7CHuffmanTree@@6B@" PURGE="-1" COMMENT="" />
    <EXPORT ORDINAL="333" NAME="??_7CIDHeap@@6B@" PURGE="-1" COMMENT="" />
    <EXPORT ORDINAL="334" NAME="??_7CKeyContainer@@6B@" PURGE="-1" COMMENT="" />
    <EXPORT ORDINAL="335" NAME="??_7CKeyContainerNode@@6B@" PURGE="-1" COMMENT="" />
    <EXPORT ORDINAL="336" NAME="??_7CLZSS@@6B@" PURGE="-1" COMMENT="" />
    <EXPORT ORDINAL="337" NAME="??_7CLZSSSettings@@6B@" PURGE="-1" COMMENT="" />
    <EXPORT ORDINAL="338" NAME="??_7CLZW@@6B@" PURGE="-1" COMMENT="" />
    <EXPORT ORDINAL="339" NAME="??_7CLZWSettings@@6B@" PURGE="-1" COMMENT="" />
    <EXPORT ORDINAL="340" NAME="??_7CLZW_GIFSettings@@6B@" PURGE="-1" COMMENT="" />
    <EXPORT ORDINAL="341" NAME="??_7CListVectorCore@@6B@" PURGE="-1" COMMENT="" />
    <EXPORT ORDINAL="342" NAME="??_7CListVectorData@@6B@" PURGE="-1" COMMENT="" />
    <EXPORT ORDINAL="343" NAME="??_7CLogFile@@6B@" PURGE="-1" COMMENT="" />
    <EXPORT ORDINAL="344" NAME="??_7CMap16@@6B@" PURGE="-1" COMMENT="" />
    <EXPORT ORDINAL="345" NAME="??_7CMap32@@6B@" PURGE="-1" COMMENT="" />
    <EXPORT ORDINAL="346" NAME="??_7CMathAccel@@6B@" PURGE="-1" COMMENT="" />
    <EXPORT ORDINAL="347" NAME="??_7CStream@@6B@" PURGE="-1" COMMENT="" />
    <EXPORT ORDINAL="348" NAME="??_7CStream_Disk@@6B@" PURGE="-1" COMMENT="" />
    <EXPORT ORDINAL="349" NAME="??_7CStream_Memory@@6B@" PURGE="-1" COMMENT="" />
    <EXPORT ORDINAL="350" NAME="??_7CStream_RAM@@6B@" PURGE="-1" COMMENT="" />
    <EXPORT ORDINAL="351" NAME="??_7CStream_XDF@@6B@" PURGE="-1" COMMENT="" />
    <EXPORT ORDINAL="352" NAME="??_7CStringHash@@6B@" PURGE="-1" COMMENT="" />
    <EXPORT ORDINAL="353" NAME="??_7CStringHashConst@@6B@" PURGE="-1" COMMENT="" />
    <EXPORT ORDINAL="354" NAME="??_UCDA_Defraggable@@SAPAXIPAVCDA_MemoryManager@@@Z" PURGE="0" COMMENT="" />
    <EXPORT ORDINAL="355" NAME="??_UCDA_Defraggable@@SAPAXIPAVCDA_MemoryManager@@I@Z" PURGE="0" COMMENT="" />
    <EXPORT ORDINAL="356" NAME="??_VCDA_Defraggable@@SAXPAX@Z" PURGE="0" COMMENT="" />
    <EXPORT ORDINAL="357" NAME="??_VCDA_Defraggable@@SAXPAXPAVCDA_MemoryManager@@@Z" PURGE="0" COMMENT="" />
    <EXPORT ORDINAL="358" NAME="??_VCDA_Defraggable@@SAXPAXPAVCDA_MemoryManager@@I@Z" PURGE="0" COMMENT="" />
    <EXPORT ORDINAL="359" NAME="?AVLTree_Insert@CDA_AVLTreeable@@QAEXPAVCDA_AVLTree@@@Z" PURGE="4" COMMENT="" />
    <EXPORT ORDINAL="360" NAME="?AVLTree_Remove@CDA_AVLTreeable@@QAEXPAVCDA_AVLTree@@@Z" PURGE="4" COMMENT="" />
    <EXPORT ORDINAL="361" NAME="?Add@CDA_CircularStack@@QAEXPAVCDA_Linkable@@@Z" PURGE="4" COMMENT="" />
    <EXPORT ORDINAL="362" NAME="?AddBlock@CMDA_CRC32Checker@@QAEXPBXH@Z" PURGE="8" COMMENT="" />
    <EXPORT ORDINAL="363" NAME="?AddChild@CKeyContainerNode@@QAEHPAV1@@Z" PURGE="4" COMMENT="" />
    <EXPORT ORDINAL="364" NAME="?AddCorrupt@CByteStream@@SAXH@Z" PURGE="0" COMMENT="" />
    <EXPORT ORDINAL="365" NAME="?AddCorrupt@CByteStreamManager@@QAEXH@Z" PURGE="4" COMMENT="" />
    <EXPORT ORDINAL="366" NAME="?AddCorrupt@CDiskUtil@@SAXH@Z" PURGE="0" COMMENT="" />
    <EXPORT ORDINAL="367" NAME="?AddFile@CMDA_CRC32Checker@@QAEXPAVCCFile@@@Z" PURGE="4" COMMENT="" />
    <EXPORT ORDINAL="368" NAME="?AddKey@CKeyContainer@@QAEHVCStr@@0@Z" PURGE="16" COMMENT="" />
    <EXPORT ORDINAL="369" NAME="?AddRequest@CByteStreamDrive@@QAEXPAVCByteStreamCacheLine@@@Z" PURGE="4" COMMENT="" />
    <EXPORT ORDINAL="370" NAME="?AddScriptKey@CKeyContainer@@QAEXVCStr@@@Z" PURGE="8" COMMENT="" />
    <EXPORT ORDINAL="371" NAME="?AddStr@CMDA_CRC32Checker@@QAEXPBD@Z" PURGE="4" COMMENT="" />
    <EXPORT ORDINAL="372" NAME="?Align@CCFile@@QAEXH@Z" PURGE="4" COMMENT="" />
    <EXPORT ORDINAL="373" NAME="?Alloc@CDA_MemoryManager@@QAEPAXI@Z" PURGE="4" COMMENT="" />
    <EXPORT ORDINAL="374" NAME="?AllocAlign@CDA_MemoryManager@@QAEPAXII@Z" PURGE="8" COMMENT="" />
    <EXPORT ORDINAL="375" NAME="?AllocHeap@CDA_MemoryManager@@UAEPAXI_N@Z" PURGE="8" COMMENT="" />
    <EXPORT ORDINAL="376" NAME="?AllocID@CIDHeap@@QAEHXZ" PURGE="0" COMMENT="" />
    <EXPORT ORDINAL="377" NAME="?AllocIDRange@CIDHeap@@QAEHH@Z" PURGE="4" COMMENT="" />
    <EXPORT ORDINAL="378" NAME="?AllocImp@CDA_MemoryManager@@QAEPAXI@Z" PURGE="4" COMMENT="" />
    <EXPORT ORDINAL="379" NAME="?AllocObjects@CListVectorData@@UAEPAXH@Z" PURGE="4" COMMENT="" />
    <EXPORT ORDINAL="380" NAME="?AlmostEqual@CFileInfo@@QAE_NABV1@@Z" PURGE="4" COMMENT="" />
    <EXPORT ORDINAL="381" NAME="?AsyncFlush@CByteStream@@QAE_N_N@Z" PURGE="4" COMMENT="" />
    <EXPORT ORDINAL="382" NAME="?AsyncFlush@CByteStreamData@@QAE_N_N@Z" PURGE="4" COMMENT="" />
    <EXPORT ORDINAL="383" NAME="?AsyncFlush@CCFile@@QAE_N_N@Z" PURGE="-1" COMMENT="" />
    <EXPORT ORDINAL="384" NAME="?AsyncFlush@CStream@@UAE_N_N@Z" PURGE="4" COMMENT="" />
    <EXPORT ORDINAL="385" NAME="?AsyncFlush@CStream_Disk@@UAE_N_N@Z" PURGE="4" COMMENT="" />
    <EXPORT ORDINAL="386" NAME="?BeginEntry@CDataFile@@QAEXVCStr@@@Z" PURGE="8" COMMENT="" />
    <EXPORT ORDINAL="387" NAME="?BeginSubDir@CDataFile@@QAEXXZ" PURGE="0" COMMENT="" />
    <EXPORT ORDINAL="388" NAME="?BlockUntilDone@CByteStreamCacheLine@@QAEXXZ" PURGE="0" COMMENT="" />
    <EXPORT ORDINAL="389" NAME="?BlockUntilDone@CFileAsyncWrite@@QAEXXZ" PURGE="0" COMMENT="" />
    <EXPORT ORDINAL="390" NAME="?Build@CHuffmanTree@@QAEXPAXKE@Z" PURGE="12" COMMENT="" />
    <EXPORT ORDINAL="391" NAME="?CalculateFrequencies@CHuffmanTree@@AAEXPAXKE@Z" PURGE="12" COMMENT="" />
    <EXPORT ORDINAL="392" NAME="?ChangeDir@CDiskUtil@@SA_NVCStr@@@Z" PURGE="0" COMMENT="" />
    <EXPORT ORDINAL="393" NAME="?ChangeDrive@CDiskUtil@@SA_NVCStr@@@Z" PURGE="0" COMMENT="" />
    <EXPORT ORDINAL="394" NAME="?Clear@CListVectorCore@@QAEXXZ" PURGE="0" COMMENT="" />
    <EXPORT ORDINAL="395" NAME="?ClearFlags@CByteStream@@QAEXXZ" PURGE="0" COMMENT="" />
    <EXPORT ORDINAL="396" NAME="?Close@CByteStream@@QAE_NXZ" PURGE="0" COMMENT="" />
    <EXPORT ORDINAL="397" NAME="?Close@CByteStreamData@@QAEXXZ" PURGE="0" COMMENT="" />
    <EXPORT ORDINAL="398" NAME="?Close@CCFile@@QAEXXZ" PURGE="0" COMMENT="" />
    <EXPORT ORDINAL="399" NAME="?Close@CDataFile@@QAEXXZ" PURGE="0" COMMENT="" />
    <EXPORT ORDINAL="400" NAME="?Close@CStream@@UAEXXZ" PURGE="0" COMMENT="" />
    <EXPORT ORDINAL="401" NAME="?Close@CStream_Disk@@UAEXXZ" PURGE="0" COMMENT="" />
    <EXPORT ORDINAL="402" NAME="?Close@CStream_Memory@@UAEXXZ" PURGE="0" COMMENT="" />
    <EXPORT ORDINAL="403" NAME="?Close@CStream_RAM@@UAEXXZ" PURGE="0" COMMENT="" />
    <EXPORT ORDINAL="404" NAME="?Close@CStream_XDF@@UAEXXZ" PURGE="0" COMMENT="" />
    <EXPORT ORDINAL="405" NAME="?CloseInstance@CByteStreamAsyncInstance@@QAEXXZ" PURGE="0" COMMENT="" />
    <EXPORT ORDINAL="406" NAME="?CommitMemory@CDA_MemoryManager@@QAE_NPAX0@Z" PURGE="8" COMMENT="" />
    <EXPORT ORDINAL="407" NAME="?Compare@CByteStreamDriveSortList@@UAEHPAX0@Z" PURGE="8" COMMENT="" />
    <EXPORT ORDINAL="408" NAME="?Compare@CDA_AVLTree@@UAEHPAVCDA_AVLTreeable@@PAX@Z" PURGE="-1" COMMENT="" />
    <EXPORT ORDINAL="409" NAME="?Compare@CDA_LinkedList@@UAEHPAVCDA_Linkable@@0@Z" PURGE="8" COMMENT="" />
    <EXPORT ORDINAL="410" NAME="?Compare@CDA_LinkedList_Small@@UAEHPAX0@Z" PURGE="8" COMMENT="" />
    <EXPORT ORDINAL="411" NAME="?Compare@CDefragTree_HeapChunk@@UAEHPAVCDA_AVLTreeable@@PAX@Z" PURGE="8" COMMENT="" />
    <EXPORT ORDINAL="412" NAME="?Compare@CDefragTree_SizeClass@@UAEHPAVCDA_AVLTreeable@@PAX@Z" PURGE="8" COMMENT="" />
    <EXPORT ORDINAL="413" NAME="?Compare@CDir_FileRec@@QBEHABV1@@Z" PURGE="4" COMMENT="" />
    <EXPORT ORDINAL="414" NAME="?CompileFile@CXDF@@QAEXPBD00@Z" PURGE="12" COMMENT="" />
    <EXPORT ORDINAL="415" NAME="?Compress@CDiskUtil@@SA?AV?$TList_Vector@EVTList_Vector_CNonAligned@@@@V2@W4ECompressTypes@@W4ESettings@@@Z" PURGE="0" COMMENT="" />
    <EXPORT ORDINAL="416" NAME="?Compress@CHuffman@@UAEPAXPAX0I@Z" PURGE="12" COMMENT="" />
    <EXPORT ORDINAL="417" NAME="?Compress@CLZSS@@UAEPAXPAX0I@Z" PURGE="12" COMMENT="" />
    <EXPORT ORDINAL="418" NAME="?Compress@CLZW@@UAEPAXPAX0I@Z" PURGE="12" COMMENT="" />
    <EXPORT ORDINAL="419" NAME="?CompressWithCC@CLZW@@AAEPAXPAX0I@Z" PURGE="12" COMMENT="" />
    <EXPORT ORDINAL="420" NAME="?CompressWithHuffman@CLZSS@@AAEPAXPAX0I@Z" PURGE="12" COMMENT="" />
    <EXPORT ORDINAL="421" NAME="?ConnectMemoryStream@CCFile@@AAEXPAXHHH@Z" PURGE="16" COMMENT="" />
    <EXPORT ORDINAL="422" NAME="?ConnectMemoryStream@CCFile@@AAEXV?$TList_Vector@EVTList_Vector_CNonAligned@@@@HH@Z" PURGE="16" COMMENT="" />
    <EXPORT ORDINAL="423" NAME="?ConnectStream@CCFile@@AAEXH@Z" PURGE="4" COMMENT="" />
    <EXPORT ORDINAL="424" NAME="?CopyElements@CListVectorCore@@IBEXPBXPAXH@Z" PURGE="12" COMMENT="" />
    <EXPORT ORDINAL="425" NAME="?Core_QuickSetLen@CListVectorCore@@IAEXH@Z" PURGE="4" COMMENT="" />
    <EXPORT ORDINAL="426" NAME="?Core_SetGrow@CListVectorCore@@IAEXH@Z" PURGE="4" COMMENT="" />
    <EXPORT ORDINAL="427" NAME="?Core_SetLen@CListVectorCore@@IAEXH@Z" PURGE="4" COMMENT="" />
    <EXPORT ORDINAL="428" NAME="?CpyFile@CDiskUtil@@SA_NVCStr@@0H@Z" PURGE="0" COMMENT="" />
    <EXPORT ORDINAL="429" NAME="?CpyFile@CFileAsyncCopy@@QAE_NPBD0H@Z" PURGE="12" COMMENT="" />
    <EXPORT ORDINAL="430" NAME="?Create@?$THash@FVCIndexPool16Elem@@@@QAEXHH_N@Z" PURGE="12" COMMENT="" />
    <EXPORT ORDINAL="431" NAME="?Create@?$THash@FVCMap16Entry@@@@QAEXHH_N@Z" PURGE="12" COMMENT="" />
    <EXPORT ORDINAL="432" NAME="?Create@?$THash@FVCMap32Entry@@@@QAEXHH_N@Z" PURGE="12" COMMENT="" />
    <EXPORT ORDINAL="433" NAME="?Create@?$THash@FVCStringHashConstElement@@@@QAEXHH_N@Z" PURGE="12" COMMENT="" />
    <EXPORT ORDINAL="434" NAME="?Create@?$THash@FVCStringHashElement@@@@QAEXHH_N@Z" PURGE="12" COMMENT="" />
    <EXPORT ORDINAL="435" NAME="?Create@?$THash@JVCHash2DNull@@@@QAEXHH_N@Z" PURGE="12" COMMENT="" />
    <EXPORT ORDINAL="436" NAME="?Create@CByteStream@@QAE_NABVCStr@@HMJJ@Z" PURGE="20" COMMENT="" />
    <EXPORT ORDINAL="437" NAME="?Create@CByteStreamCacheLine@@QAEXPAVCByteStreamData@@JJPAX@Z" PURGE="16" COMMENT="" />
    <EXPORT ORDINAL="438" NAME="?Create@CByteStreamData@@QAE_NABVCStr@@HMJJ@Z" PURGE="20" COMMENT="" />
    <EXPORT ORDINAL="439" NAME="?Create@CByteStreamDrive@@QAEXPBD@Z" PURGE="4" COMMENT="" />
    <EXPORT ORDINAL="440" NAME="?Create@CDataFile@@QAEXV?$TPtr@VCCFile@@@@HH@Z" PURGE="12" COMMENT="" />
    <EXPORT ORDINAL="441" NAME="?Create@CDataFile@@QAEXVCStr@@HW4ECompressTypes@@W4ESettings@@H@Z" PURGE="24" COMMENT="" />
    <EXPORT ORDINAL="442" NAME="?Create@CHash2D@@QAEXHHH_N@Z" PURGE="16" COMMENT="" />
    <EXPORT ORDINAL="443" NAME="?Create@CIDHeap@@QAEXH_N@Z" PURGE="8" COMMENT="" />
    <EXPORT ORDINAL="444" NAME="?Create@CIndexPool16@@QAEXH@Z" PURGE="4" COMMENT="" />
    <EXPORT ORDINAL="445" NAME="?Create@CKeyContainer@@QAEXABV?$TList_Vector@VCStr@@VTList_Vector_CNonAligned@@@@0@Z" PURGE="8" COMMENT="" />
    <EXPORT ORDINAL="446" NAME="?Create@CLogFile@@UAEXVCStr@@_N@Z" PURGE="12" COMMENT="" />
    <EXPORT ORDINAL="447" NAME="?Create@CMap16@@QAEXFH@Z" PURGE="8" COMMENT="" />
    <EXPORT ORDINAL="448" NAME="?Create@CMap32@@QAEXFH@Z" PURGE="8" COMMENT="" />
    <EXPORT ORDINAL="449" NAME="?Create@CStringHash@@QAEXH_NH@Z" PURGE="12" COMMENT="" />
    <EXPORT ORDINAL="450" NAME="?Create@CStringHashConst@@QAEXH_NH@Z" PURGE="12" COMMENT="" />
    <EXPORT ORDINAL="451" NAME="?CreateCCFile@CDiskUtil@@SA?AV?$TPtr@VCCFile@@@@V?$TList_Vector@EVTList_Vector_CNonAligned@@@@H@Z" PURGE="0" COMMENT="" />
    <EXPORT ORDINAL="452" NAME="?CreateCCFile@CDiskUtil@@SA?AV?$TPtr@VCCFile@@@@VCStr@@H@Z" PURGE="0" COMMENT="" />
    <EXPORT ORDINAL="453" NAME="?CreateCachelines@CByteStreamData@@QAEXXZ" PURGE="0" COMMENT="" />
    <EXPORT ORDINAL="454" NAME="?CreateDrive@CByteStreamManager@@QAEPAVCByteStreamDrive@@AAVCStr@@@Z" PURGE="4" COMMENT="" />
    <EXPORT ORDINAL="455" NAME="?CreateHash@CXDF@@QAEXXZ" PURGE="0" COMMENT="" />
    <EXPORT ORDINAL="456" NAME="?CreateLock@CDA_Pool_Static@@QAEXXZ" PURGE="0" COMMENT="" />
    <EXPORT ORDINAL="457" NAME="?CreatePath@CDiskUtil@@SA_NVCStr@@@Z" PURGE="0" COMMENT="" />
    <EXPORT ORDINAL="458" NAME="?CreateStreamManager@@YAPAVCByteStreamManager@@XZ" PURGE="0" COMMENT="" />
    <EXPORT ORDINAL="459" NAME="?CutFence@@YAHPAV?$TVector3@MV?$TMatrix4@MH@@H@@HPBV?$TPlane3@MV?$TVector3@MV?$TMatrix4@MH@@H@@V?$TMatrix4@MH@@@@H_NPAV?$TVector2@MV?$TMatrix2@MH@@H@@33@Z" PURGE="0" COMMENT="" />
    <EXPORT ORDINAL="460" NAME="?CutFence@@YAHPAV?$TVector3@NV?$TMatrix4@NH@@H@@HPBV?$TPlane3@NV?$TVector3@NV?$TMatrix4@NH@@H@@V?$TMatrix4@NH@@@@HAAH@Z" PURGE="0" COMMENT="" />
    <EXPORT ORDINAL="461" NAME="?DeCommitMemory@CDA_MemoryManager@@QAEXPAX0@Z" PURGE="8" COMMENT="" />
    <EXPORT ORDINAL="462" NAME="?Decompress@CDiskUtil@@SA?AV?$TList_Vector@EVTList_Vector_CNonAligned@@@@V2@@Z" PURGE="0" COMMENT="" />
    <EXPORT ORDINAL="463" NAME="?Decompress@CHuffman@@UAEPAXPAX0@Z" PURGE="8" COMMENT="" />
    <EXPORT ORDINAL="464" NAME="?Decompress@CLZSS@@UAEPAXPAX0@Z" PURGE="8" COMMENT="" />
    <EXPORT ORDINAL="465" NAME="?Decompress@CLZW@@UAEPAXPAX0@Z" PURGE="8" COMMENT="" />
    <EXPORT ORDINAL="466" NAME="?DecompressDataFile@CDiskUtil@@SA?AV?$TPtr@VCDataFile@@@@V?$TList_Vector@EVTList_Vector_CNonAligned@@@@@Z" PURGE="0" COMMENT="" />
    <EXPORT ORDINAL="467" NAME="?DecompressToMemoryFile@CDiskUtil@@SA?AV?$TPtr@VCCFile@@@@V?$TList_Vector@EVTList_Vector_CNonAligned@@@@@Z" PURGE="0" COMMENT="" />
    <EXPORT ORDINAL="468" NAME="?DecompressWithCC@CLZW@@AAEPAXPAX0@Z" PURGE="8" COMMENT="" />
    <EXPORT ORDINAL="469" NAME="?DecompressWithHuffman@CLZSS@@AAEPAXPAX0@Z" PURGE="8" COMMENT="" />
    <EXPORT ORDINAL="470" NAME="?Defrag@CDA_MemoryManager@@QAE?AW4EDA_MemoryManager_DefragErrors@@_N@Z" PURGE="4" COMMENT="" />
    <EXPORT ORDINAL="471" NAME="?Del@CListVectorCore@@QAEXH@Z" PURGE="4" COMMENT="" />
    <EXPORT ORDINAL="472" NAME="?DelFile@CDiskUtil@@SA_NVCStr@@@Z" PURGE="0" COMMENT="" />
    <EXPORT ORDINAL="473" NAME="?DelFile@CFileAsyncWrite@@QAE_NPBD@Z" PURGE="4" COMMENT="" />
    <EXPORT ORDINAL="474" NAME="?DelTree@CDiskUtil@@SA_NVCStr@@@Z" PURGE="0" COMMENT="" />
    <EXPORT ORDINAL="475" NAME="?DelTreeOnlyEmpty@CDiskUtil@@SA_NVCStr@@@Z" PURGE="0" COMMENT="" />
    <EXPORT ORDINAL="476" NAME="?Delete@CDA_LinkableMember@@QAEXXZ" PURGE="0" COMMENT="" />
    <EXPORT ORDINAL="477" NAME="?Delete@CDA_Pool_Static@@QAEXPAX@Z" PURGE="4" COMMENT="" />
    <EXPORT ORDINAL="478" NAME="?Delete@CListVectorData@@UAEXXZ" PURGE="0" COMMENT="" />
    <EXPORT ORDINAL="479" NAME="?DeleteChild@CKeyContainerNode@@QAEXH@Z" PURGE="4" COMMENT="" />
    <EXPORT ORDINAL="480" NAME="?DeleteData@CKeyContainerNode@@QAEXXZ" PURGE="0" COMMENT="" />
    <EXPORT ORDINAL="481" NAME="?DeleteElement@CDA_LinkedList_Small@@UAEXPAX@Z" PURGE="-1" COMMENT="" />
    <EXPORT ORDINAL="482" NAME="?DeleteKey@CKeyContainer@@QAEXH@Z" PURGE="4" COMMENT="" />
    <EXPORT ORDINAL="483" NAME="?DeleteKey@CKeyContainer@@QAEXVCStr@@@Z" PURGE="8" COMMENT="" />
    <EXPORT ORDINAL="484" NAME="?DeleteKeys@CKeyContainerNode@@QAEXVCStr@@0@Z" PURGE="16" COMMENT="" />
    <EXPORT ORDINAL="485" NAME="?DeleteKeys@CKeyContainerNode@@QAEXXZ" PURGE="0" COMMENT="" />
    <EXPORT ORDINAL="486" NAME="?DeleteMembers@CDA_LinkedList@@QAEXXZ" PURGE="0" COMMENT="" />
    <EXPORT ORDINAL="487" NAME="?DeleteMembers@CDA_LinkedList_Small@@QAEXXZ" PURGE="0" COMMENT="" />
    <EXPORT ORDINAL="488" NAME="?DeleteOldStrings@CLZSS@@AAEXXZ" PURGE="0" COMMENT="" />
    <EXPORT ORDINAL="489" NAME="?Delx@CListVectorCore@@QAEXHH_N@Z" PURGE="12" COMMENT="" />
    <EXPORT ORDINAL="490" NAME="?Destroy@CByteStreamCacheLine@@QAEXXZ" PURGE="0" COMMENT="" />
    <EXPORT ORDINAL="491" NAME="?Destroy@CDA_MemoryManager@@QAEXXZ" PURGE="0" COMMENT="" />
    <EXPORT ORDINAL="492" NAME="?Destructor@CDA_LinkedListIterator@@QAEXXZ" PURGE="0" COMMENT="" />
    <EXPORT ORDINAL="493" NAME="?DirectoryExists@CDiskUtil@@SA_NVCStr@@@Z" PURGE="0" COMMENT="" />
    <EXPORT ORDINAL="494" NAME="?DirectoryExists@CStream@@UAE_NVCStr@@H@Z" PURGE="12" COMMENT="" />
    <EXPORT ORDINAL="495" NAME="?DirectoryExists@CStream_Disk@@UAE_NVCStr@@H@Z" PURGE="12" COMMENT="" />
    <EXPORT ORDINAL="496" NAME="?DisableCache@CByteStreamManager@@QAEXXZ" PURGE="0" COMMENT="" />
    <EXPORT ORDINAL="497" NAME="?DisableWrite@CCFile@@QAEXXZ" PURGE="0" COMMENT="" />
    <EXPORT ORDINAL="498" NAME="?DisconnectStream@CCFile@@AAEXXZ" PURGE="0" COMMENT="" />
    <EXPORT ORDINAL="499" NAME="DllEntryPoint" PURGE="12" COMMENT="" />
    <EXPORT ORDINAL="500" NAME="?Done@CAsyncRequest@@QAE_NXZ" PURGE="0" COMMENT="" />
    <EXPORT ORDINAL="501" NAME="?Done@CByteStreamAsyncInstance@@QAE_N_NAA_N@Z" PURGE="8" COMMENT="" />
    <EXPORT ORDINAL="502" NAME="?Done@CByteStreamCacheLine@@QAE_N_NAA_N@Z" PURGE="8" COMMENT="" />
    <EXPORT ORDINAL="503" NAME="?Done@CFileAsyncCopy@@QAE_NXZ" PURGE="0" COMMENT="" />
    <EXPORT ORDINAL="504" NAME="?Done@CFileAsyncWrite@@QAE_NXZ" PURGE="0" COMMENT="" />
    <EXPORT ORDINAL="505" NAME="?Duplicate@CKeyContainer@@QBE?AV?$TPtr@VCKeyContainer@@@@XZ" PURGE="4" COMMENT="" />
    <EXPORT ORDINAL="506" NAME="?Duplicate@CKeyContainerNode@@QBE?AV?$TPtr@VCKeyContainerNode@@@@XZ" PURGE="4" COMMENT="" />
    <EXPORT ORDINAL="507" NAME="?ElementSize@CListVectorCore@@QBEHXZ" PURGE="0" COMMENT="" />
    <EXPORT ORDINAL="508" NAME="?EnableCache@CByteStreamManager@@QAEXXZ" PURGE="0" COMMENT="" />
    <EXPORT ORDINAL="509" NAME="?EnableWrite@CCFile@@QAEXXZ" PURGE="0" COMMENT="" />
    <EXPORT ORDINAL="510" NAME="?EndEntry@CDataFile@@QAEXJJ@Z" PURGE="8" COMMENT="" />
    <EXPORT ORDINAL="511" NAME="?EndOfFile@CByteStream@@QAE_NXZ" PURGE="0" COMMENT="" />
    <EXPORT ORDINAL="512" NAME="?EndOfFile@CByteStreamData@@QAE_NXZ" PURGE="0" COMMENT="" />
    <EXPORT ORDINAL="513" NAME="?EndOfFile@CCFile@@QAE_NXZ" PURGE="0" COMMENT="" />
    <EXPORT ORDINAL="514" NAME="?EndOfFile@CStream@@UAE_NXZ" PURGE="0" COMMENT="" />
    <EXPORT ORDINAL="515" NAME="?EndOfFile@CStream_Disk@@UAE_NXZ" PURGE="0" COMMENT="" />
    <EXPORT ORDINAL="516" NAME="?EndOfFile@CStream_Memory@@UAE_NXZ" PURGE="0" COMMENT="" />
    <EXPORT ORDINAL="517" NAME="?EndOfFile@CStream_RAM@@UAE_NXZ" PURGE="0" COMMENT="" />
    <EXPORT ORDINAL="518" NAME="?EndOfFile@CStream_XDF@@UAE_NXZ" PURGE="0" COMMENT="" />
    <EXPORT ORDINAL="519" NAME="?EndSubDir@CDataFile@@QAEXXZ" PURGE="0" COMMENT="" />
    <EXPORT ORDINAL="520" NAME="?EnumAll@CIndexPool16@@QAEHPAGH@Z" PURGE="8" COMMENT="" />
    <EXPORT ORDINAL="521" NAME="?EnumerateBox@CHash2D@@QAEHABV?$TVector3@MV?$TMatrix4@MH@@H@@0PAJH@Z" PURGE="16" COMMENT="" />
    <EXPORT ORDINAL="522" NAME="?Fallback_Read@CStream_XDF@@QAEXPAXI@Z" PURGE="8" COMMENT="" />
    <EXPORT ORDINAL="523" NAME="?FastDivFp4Int@CMathAccel@@QAEHMH@Z" PURGE="8" COMMENT="" />
    <EXPORT ORDINAL="524" NAME="?FastDivInt@CMathAccel@@QAEHHH@Z" PURGE="8" COMMENT="" />
    <EXPORT ORDINAL="525" NAME="?FastMulDiv64@CMathAccel@@QAEHHHH@Z" PURGE="12" COMMENT="" />
    <EXPORT ORDINAL="526" NAME="?FileExists@CDirectoryNode@@QAE_NVCStr@@_N@Z" PURGE="12" COMMENT="" />
    <EXPORT ORDINAL="527" NAME="?FileExists@CDiskUtil@@SA_NVCStr@@@Z" PURGE="0" COMMENT="" />
    <EXPORT ORDINAL="528" NAME="?FileExists@CStream@@UAE_NVCStr@@H@Z" PURGE="12" COMMENT="" />
    <EXPORT ORDINAL="529" NAME="?FileExists@CStream_Disk@@UAE_NVCStr@@H@Z" PURGE="12" COMMENT="" />
    <EXPORT ORDINAL="530" NAME="?FileExists@CStream_Memory@@UAE_NVCStr@@H@Z" PURGE="12" COMMENT="" />
    <EXPORT ORDINAL="531" NAME="?FileExists@CStream_RAM@@UAE_NVCStr@@H@Z" PURGE="12" COMMENT="" />
    <EXPORT ORDINAL="532" NAME="?FileExists@CStream_XDF@@UAE_NVCStr@@H@Z" PURGE="12" COMMENT="" />
    <EXPORT ORDINAL="533" NAME="?FileTimeGet@CDiskUtil@@SA?AVCFileInfo@@VCStr@@@Z" PURGE="0" COMMENT="" />
    <EXPORT ORDINAL="534" NAME="?FileTimeSet@CDiskUtil@@SAXVCStr@@ABVCFileInfo@@@Z" PURGE="0" COMMENT="" />
    <EXPORT ORDINAL="535" NAME="?FillDirecotry@CFileAsyncWrite@@QAE_NPAVCFileAsyncWriteFillDirOptions@@@Z" PURGE="4" COMMENT="" />
    <EXPORT ORDINAL="536" NAME="?FindContainer@CKeyContainerNode@@QAEPAV1@VCStr@@0@Z" PURGE="16" COMMENT="" />
    <EXPORT ORDINAL="537" NAME="?FindExact@CDA_AVLTree@@QAEPAVCDA_AVLTreeable@@PAX@Z" PURGE="4" COMMENT="" />
    <EXPORT ORDINAL="538" NAME="?FindFile@CDirectoryNode@@QAEHVCStr@@@Z" PURGE="8" COMMENT="" />
    <EXPORT ORDINAL="539" NAME="?FindHighest@CDA_AVLTree@@SAHPAVCDA_AVLTreeableMember@@PAPAV2@PAW4AVLRES@@@Z" PURGE="0" COMMENT="" />
    <EXPORT ORDINAL="540" NAME="?FindLargerSmallest@CDA_AVLTree@@QAEPAVCDA_AVLTreeable@@PAX@Z" PURGE="4" COMMENT="" />
    <EXPORT ORDINAL="541" NAME="?FindLargest@CDA_AVLTree@@QAEPAVCDA_AVLTreeable@@XZ" PURGE="0" COMMENT="" />
    <EXPORT ORDINAL="542" NAME="?FindLowest@CDA_AVLTree@@SAHPAVCDA_AVLTreeableMember@@PAPAV2@PAW4AVLRES@@@Z" PURGE="0" COMMENT="" />
    <EXPORT ORDINAL="543" NAME="?FindMaxMatch@CLZSS@@AAEXK@Z" PURGE="4" COMMENT="" />
    <EXPORT ORDINAL="544" NAME="?FindSmallestLarger@CDA_AVLTree@@QAEPAVCDA_AVLTreeable@@PAX@Z" PURGE="4" COMMENT="" />
    <EXPORT ORDINAL="545" NAME="?ForceAllocID@CIDHeap@@QAE_NH@Z" PURGE="4" COMMENT="" />
    <EXPORT ORDINAL="546" NAME="?FormatName@CDir_FileRec@@QAEXXZ" PURGE="0" COMMENT="" />
    <EXPORT ORDINAL="547" NAME="?Free@CDA_MemoryManager@@QAEXPAX@Z" PURGE="4" COMMENT="" />
    <EXPORT ORDINAL="548" NAME="?FreeHeap@CDA_MemoryManager@@UAEXPAX@Z" PURGE="4" COMMENT="" />
    <EXPORT ORDINAL="549" NAME="?FreeID@CIDHeap@@QAEXH@Z" PURGE="4" COMMENT="" />
    <EXPORT ORDINAL="550" NAME="?FreeScalar@CListVectorData@@UAEXPAXH@Z" PURGE="8" COMMENT="" />
    <EXPORT ORDINAL="551" NAME="?Get@CDA_CircularStack@@QAEPAVCDA_Linkable@@XZ" PURGE="0" COMMENT="" />
    <EXPORT ORDINAL="552" NAME="?Get@CDA_Hash@@UAEPAVCDA_Hashable@@PAX@Z" PURGE="4" COMMENT="" />
    <EXPORT ORDINAL="553" NAME="?Get@CDA_HashSmall@@QAEPAXPAX@Z" PURGE="4" COMMENT="" />
    <EXPORT ORDINAL="554" NAME="?Get@CDA_IDHash@@UAEPAVCDA_Hashable@@PAX@Z" PURGE="4" COMMENT="" />
    <EXPORT ORDINAL="555" NAME="?GetBlock@CXDF@@QAEPAVCXDF_Block@1@H@Z" PURGE="4" COMMENT="" />
    <EXPORT ORDINAL="556" NAME="?GetBlockSize@CDA_MemoryManager@@QAEIPAUSDA_Defraggable@@@Z" PURGE="4" COMMENT="" />
    <EXPORT ORDINAL="557" NAME="?GetCacheEnable@CByteStreamManager@@QAEHXZ" PURGE="0" COMMENT="" />
    <EXPORT ORDINAL="558" NAME="?GetCacheLine@CByteStreamData@@QAEPAVCByteStreamCacheLine@@_JI_N@Z" PURGE="16" COMMENT="" />
    <EXPORT ORDINAL="559" NAME="?GetCacheLineData@CByteStreamCacheLine@@QAEPAXXZ" PURGE="0" COMMENT="" />
    <EXPORT ORDINAL="560" NAME="?GetCacheLine_NotINL@CByteStreamData@@QAEPAVCByteStreamCacheLine@@_JI_N@Z" PURGE="16" COMMENT="" />
    <EXPORT ORDINAL="561" NAME="?GetCacheMem@CByteStreamDrive@@QAEPAVCCacheMem@@J@Z" PURGE="4" COMMENT="" />
    <EXPORT ORDINAL="562" NAME="?GetCacheNum@CByteStreamDrive@@QAEJXZ" PURGE="0" COMMENT="" />
    <EXPORT ORDINAL="563" NAME="?GetCacheSize@CByteStreamDrive@@QAEJXZ" PURGE="0" COMMENT="" />
    <EXPORT ORDINAL="564" NAME="?GetCharacter@CHuffmanTree@@QAEKAAV?$CInputBits@K@@@Z" PURGE="4" COMMENT="" />
    <EXPORT ORDINAL="565" NAME="?GetChild@CKeyContainerNode@@QAE?AV?$TPtr@VCKeyContainerNode@@@@H@Z" PURGE="8" COMMENT="" />
    <EXPORT ORDINAL="566" NAME="?GetChunkFromMem@CDA_MemoryManager@@QAEPAVCDA_MemoryManager_HeapChunk@@PAX@Z" PURGE="4" COMMENT="" />
    <EXPORT ORDINAL="567" NAME="?GetCodes@CHuffmanTree@@QAEPAUCHMCode@@XZ" PURGE="0" COMMENT="" />
    <EXPORT ORDINAL="568" NAME="?GetCompDestExtra@CHuffman@@UAEIXZ" PURGE="0" COMMENT="" />
    <EXPORT ORDINAL="569" NAME="?GetCompDestExtra@CLZSS@@UAEIXZ" PURGE="0" COMMENT="" />
    <EXPORT ORDINAL="570" NAME="?GetCompDestExtra@CLZW@@UAEIXZ" PURGE="0" COMMENT="" />
    <EXPORT ORDINAL="571" NAME="?GetCompSrcExtra@CHuffman@@UAEIXZ" PURGE="0" COMMENT="" />
    <EXPORT ORDINAL="572" NAME="?GetCompSrcExtra@CLZSS@@UAEIXZ" PURGE="0" COMMENT="" />
    <EXPORT ORDINAL="573" NAME="?GetCompSrcExtra@CLZW@@UAEIXZ" PURGE="0" COMMENT="" />
    <EXPORT ORDINAL="574" NAME="?GetCompressType@CHuffmanSettings@@UAE?AW4ECompressTypes@@XZ" PURGE="0" COMMENT="" />
    <EXPORT ORDINAL="575" NAME="?GetCompressType@CLZSSSettings@@UAE?AW4ECompressTypes@@XZ" PURGE="0" COMMENT="" />
    <EXPORT ORDINAL="576" NAME="?GetCompressType@CLZWSettings@@UAE?AW4ECompressTypes@@XZ" PURGE="0" COMMENT="" />
    <EXPORT ORDINAL="577" NAME="?GetCompressType@CLZW_GIFSettings@@UAE?AW4ECompressTypes@@XZ" PURGE="0" COMMENT="" />
    <EXPORT ORDINAL="578" NAME="?GetCompressedLength@CCompress@@QAEIXZ" PURGE="0" COMMENT="" />
    <EXPORT ORDINAL="579" NAME="?GetCompressor@CCompressorInterface@@QAEPAVCCompress@@W4ECompressTypes@@W4ESettings@@@Z" PURGE="8" COMMENT="" />
    <EXPORT ORDINAL="580" NAME="?GetControlCodesFlag@CLZWSettings@@UAE_NXZ" PURGE="0" COMMENT="" />
    <EXPORT ORDINAL="581" NAME="?GetControlCodesFlag@CLZW_GIFSettings@@UAE_NXZ" PURGE="0" COMMENT="" />
    <EXPORT ORDINAL="582" NAME="?GetCorrupt@CByteStream@@SAHXZ" PURGE="0" COMMENT="" />
    <EXPORT ORDINAL="583" NAME="?GetCorrupt@CByteStreamManager@@QAEHXZ" PURGE="0" COMMENT="" />
    <EXPORT ORDINAL="584" NAME="?GetCorrupt@CDiskUtil@@SAHXZ" PURGE="0" COMMENT="" />
    <EXPORT ORDINAL="585" NAME="?GetData@CKeyContainerNode@@QAE?AV?$TPtr@VCKeyContainer@@@@XZ" PURGE="4" COMMENT="" />
    <EXPORT ORDINAL="586" NAME="?GetDecompDestExtra@CHuffman@@UAEIXZ" PURGE="0" COMMENT="" />
    <EXPORT ORDINAL="587" NAME="?GetDecompDestExtra@CLZSS@@UAEIXZ" PURGE="0" COMMENT="" />
    <EXPORT ORDINAL="588" NAME="?GetDecompDestExtra@CLZW@@UAEIXZ" PURGE="0" COMMENT="" />
    <EXPORT ORDINAL="589" NAME="?GetDecompSrcExtra@CHuffman@@UAEIXZ" PURGE="0" COMMENT="" />
    <EXPORT ORDINAL="590" NAME="?GetDecompSrcExtra@CLZSS@@UAEIXZ" PURGE="0" COMMENT="" />
    <EXPORT ORDINAL="591" NAME="?GetDecompSrcExtra@CLZW@@UAEIXZ" PURGE="0" COMMENT="" />
    <EXPORT ORDINAL="592" NAME="?GetDecoratedName@CDirectoryNode@@QAE?AVCStr@@H@Z" PURGE="8" COMMENT="" />
    <EXPORT ORDINAL="593" NAME="?GetDefaultCacheNum@CByteStreamManager@@QAEJXZ" PURGE="0" COMMENT="" />
    <EXPORT ORDINAL="594" NAME="?GetDefaultCacheSize@CByteStreamManager@@QAEIXZ" PURGE="0" COMMENT="" />
    <EXPORT ORDINAL="595" NAME="?GetDir@CDiskUtil@@SA?AVCStr@@XZ" PURGE="0" COMMENT="" />
    <EXPORT ORDINAL="596" NAME="?GetDirectory@CDataFile@@QAE_NVCStr@@@Z" PURGE="-1" COMMENT="" />
    <EXPORT ORDINAL="597" NAME="?GetDrive@CByteStreamManager@@QAEPAVCByteStreamDrive@@AAVCStr@@@Z" PURGE="4" COMMENT="" />
    <EXPORT ORDINAL="598" NAME="?GetDrive@CDiskUtil@@SA?AVCStr@@XZ" PURGE="0" COMMENT="" />
    <EXPORT ORDINAL="599" NAME="?GetDrives@CDiskUtil@@SA?AV?$TList_SortableVector@VCStr@@G@@XZ" PURGE="0" COMMENT="" />
    <EXPORT ORDINAL="600" NAME="?GetElement@CListVectorCore@@IAEPAXPAXH@Z" PURGE="8" COMMENT="" />
    <EXPORT ORDINAL="601" NAME="?GetEncodedSize@CHuffmanTree@@QAEKXZ" PURGE="0" COMMENT="" />
    <EXPORT ORDINAL="602" NAME="?GetEntryDataFileOffset@CDataFile@@QAEKXZ" PURGE="0" COMMENT="" />
    <EXPORT ORDINAL="603" NAME="?GetEntryPos@CDataFile@@QAEJXZ" PURGE="0" COMMENT="" />
    <EXPORT ORDINAL="604" NAME="?GetEntrySize@CDataFile@@QAEJXZ" PURGE="0" COMMENT="" />
    <EXPORT ORDINAL="605" NAME="?GetErrorStr@CDirectoryNode@@AAE?AVCStr@@H@Z" PURGE="8" COMMENT="" />
    <EXPORT ORDINAL="606" NAME="?GetFile@CDataFile@@QAE?AV?$TPtr@VCCFile@@@@XZ" PURGE="4" COMMENT="" />
    <EXPORT ORDINAL="607" NAME="?GetFile@CXDF@@QAEHPBD@Z" PURGE="4" COMMENT="" />
    <EXPORT ORDINAL="608" NAME="?GetFile@CXDF@@QAEPAVCXDF_File@1@H@Z" PURGE="4" COMMENT="" />
    <EXPORT ORDINAL="609" NAME="?GetFileCount@CDirectoryNode@@QAEHXZ" PURGE="0" COMMENT="" />
    <EXPORT ORDINAL="610" NAME="?GetFileCreate@CXDF@@QAEHPBD@Z" PURGE="4" COMMENT="" />
    <EXPORT ORDINAL="611" NAME="?GetFileLen@CXDF@@QAEJH@Z" PURGE="4" COMMENT="" />
    <EXPORT ORDINAL="612" NAME="?GetFileName@CCFile@@QAE?AVCStr@@XZ" PURGE="4" COMMENT="" />
    <EXPORT ORDINAL="613" NAME="?GetFileName@CDirectoryNode@@QAE?AVCStr@@H@Z" PURGE="8" COMMENT="" />
    <EXPORT ORDINAL="614" NAME="?GetFileName@CStream@@UAE?AVCStr@@XZ" PURGE="4" COMMENT="" />
    <EXPORT ORDINAL="615" NAME="?GetFileName@CXDF@@QAEPBDH@Z" PURGE="4" COMMENT="" />
    <EXPORT ORDINAL="616" NAME="?GetFileRec@CDirectoryNode@@QAEPAVCDir_FileRec@@H@Z" PURGE="4" COMMENT="" />
    <EXPORT ORDINAL="617" NAME="?GetFileSize@CDiskUtil@@SA_JVCStr@@@Z" PURGE="0" COMMENT="" />
    <EXPORT ORDINAL="618" NAME="?GetFreeMem@CDA_MemoryManager@@QAEHXZ" PURGE="0" COMMENT="" />
    <EXPORT ORDINAL="619" NAME="?GetFreeSizeClass@CDA_MemoryManager@@QAEPAVCDA_MemoryManager_SizeClass@@H@Z" PURGE="4" COMMENT="" />
    <EXPORT ORDINAL="620" NAME="?GetFullPath@CDiskUtil@@SA?AVCStr@@V2@PBD@Z" PURGE="0" COMMENT="" />
    <EXPORT ORDINAL="621" NAME="?GetGlobalFlags@CListVectorCore@@SAHXZ" PURGE="0" COMMENT="" />
    <EXPORT ORDINAL="622" NAME="?GetHash@CByteStreamDrive_Hash@@UAEIPAX@Z" PURGE="4" COMMENT="" />
    <EXPORT ORDINAL="623" NAME="?GetHash@CDA_IDHash@@UAEIPAX@Z" PURGE="4" COMMENT="" />
    <EXPORT ORDINAL="624" NAME="?GetHashIndex@CStringHash@@IAEHPBD@Z" PURGE="4" COMMENT="" />
    <EXPORT ORDINAL="625" NAME="?GetHashIndex@CStringHashConst@@IAEHPBD@Z" PURGE="4" COMMENT="" />
    <EXPORT ORDINAL="626" NAME="?GetHuffman@CLZSSSettings@@QAE_NXZ" PURGE="0" COMMENT="" />
    <EXPORT ORDINAL="627" NAME="?GetIndex@CMap16@@QBEFG@Z" PURGE="4" COMMENT="" />
    <EXPORT ORDINAL="628" NAME="?GetIndex@CMap32@@QAEFK@Z" PURGE="4" COMMENT="" />
    <EXPORT ORDINAL="629" NAME="?GetIndex@CStringHash@@QAEHPBD@Z" PURGE="4" COMMENT="" />
    <EXPORT ORDINAL="630" NAME="?GetIndex@CStringHashConst@@QAEHPBD@Z" PURGE="4" COMMENT="" />
    <EXPORT ORDINAL="631" NAME="?GetInputSize@CHuffmanSettings@@QAEEXZ" PURGE="0" COMMENT="" />
    <EXPORT ORDINAL="632" NAME="?GetKey@CDA_AVLTree@@UAEPAXPAVCDA_AVLTreeable@@@Z" PURGE="-1" COMMENT="" />
    <EXPORT ORDINAL="633" NAME="?GetKey@CDefragTree_HeapChunk@@UAEPAXPAVCDA_AVLTreeable@@@Z" PURGE="4" COMMENT="" />
    <EXPORT ORDINAL="634" NAME="?GetKey@CDefragTree_SizeClass@@UAEPAXPAVCDA_AVLTreeable@@@Z" PURGE="4" COMMENT="" />
    <EXPORT ORDINAL="635" NAME="?GetKeyIndex@CKeyContainer@@QBEHVCStr@@@Z" PURGE="8" COMMENT="" />
    <EXPORT ORDINAL="636" NAME="?GetKeyName@CKeyContainer@@QBE?AVCStr@@H@Z" PURGE="8" COMMENT="" />
    <EXPORT ORDINAL="637" NAME="?GetKeyValue@CKeyContainer@@QBE?AVCStr@@H@Z" PURGE="8" COMMENT="" />
    <EXPORT ORDINAL="638" NAME="?GetKeys@CKeyContainerNode@@QAE?AV?$TPtr@VCKeyContainer@@@@XZ" PURGE="4" COMMENT="" />
    <EXPORT ORDINAL="639" NAME="?GetLargestFreeMem@CDA_MemoryManager@@QAEHXZ" PURGE="0" COMMENT="" />
    <EXPORT ORDINAL="640" NAME="?GetLock@CDA_MemoryManager@@QAEAAVMRTC_CriticalSection@@XZ" PURGE="0" COMMENT="" />
    <EXPORT ORDINAL="641" NAME="GetMathAccel" PURGE="0" COMMENT="" />
    <EXPORT ORDINAL="642" NAME="?GetMaxMatchLength@CLZSSSettings@@QAEGXZ" PURGE="0" COMMENT="" />
    <EXPORT ORDINAL="643" NAME="?GetMaximumBits@CLZWSettings@@QAEEXZ" PURGE="0" COMMENT="" />
    <EXPORT ORDINAL="644" NAME="?GetMember@CDA_Hash@@UAEPAVCDA_HashableMember@@PAX@Z" PURGE="4" COMMENT="" />
    <EXPORT ORDINAL="645" NAME="?GetMember@CDA_IDHash@@UAEPAVCDA_HashableMember@@PAX@Z" PURGE="4" COMMENT="" />
    <EXPORT ORDINAL="646" NAME="?GetMinFreeMem@CDA_MemoryManager@@QAEHXZ" PURGE="0" COMMENT="" />
    <EXPORT ORDINAL="647" NAME="?GetMinimumBits@CLZWSettings@@QAEEXZ" PURGE="0" COMMENT="" />
    <EXPORT ORDINAL="648" NAME="?GetMoveObjectMethodsAllowed@CDA_Defraggable@@UAE?AW4EDA_Defraggable_MoveMethods@@XZ" PURGE="0" COMMENT="" />
    <EXPORT ORDINAL="649" NAME="?GetNext@CDataFile@@QAEPBDXZ" PURGE="0" COMMENT="" />
    <EXPORT ORDINAL="650" NAME="?GetNext@CDataFile@@QAE_NPBD@Z" PURGE="4" COMMENT="" />
    <EXPORT ORDINAL="651" NAME="?GetNumChildren@CKeyContainerNode@@QAEHXZ" PURGE="0" COMMENT="" />
    <EXPORT ORDINAL="652" NAME="?GetOperating@CByteStreamCacheLine@@QAE_NXZ" PURGE="0" COMMENT="" />
    <EXPORT ORDINAL="653" NAME="?GetParent@CDataFile@@QAE_NXZ" PURGE="0" COMMENT="" />
    <EXPORT ORDINAL="654" NAME="?GetPending@CByteStreamCacheLine@@QAE_NXZ" PURGE="0" COMMENT="" />
    <EXPORT ORDINAL="655" NAME="?GetPrevTreaable@CDA_AVLTreeableMember@@QAEPAV1@XZ" PURGE="0" COMMENT="" />
    <EXPORT ORDINAL="656" NAME="?GetRelativePath@CDiskUtil@@SA?AVCStr@@V2@PBD@Z" PURGE="0" COMMENT="" />
    <EXPORT ORDINAL="657" NAME="?GetRoot@CDA_AVLTree@@QAEPAVCDA_AVLTreeableMember@@XZ" PURGE="0" COMMENT="" />
    <EXPORT ORDINAL="658" NAME="?GetSrc@CLZSS@@AAEEPAEH@Z" PURGE="8" COMMENT="" />
    <EXPORT ORDINAL="659" NAME="?GetSubDir@CDataFile@@QAE_NXZ" PURGE="0" COMMENT="" />
    <EXPORT ORDINAL="660" NAME="?GetTyped@?$TCDA_HashType@VCByteStreamDrive@@VCDA_HashSmall@@VCStr@@@@QAEPAVCByteStreamDrive@@PAVCStr@@@Z" PURGE="4" COMMENT="" />
    <EXPORT ORDINAL="661" NAME="?GetUncompressedLength@CCompress@@QAEIPAX@Z" PURGE="4" COMMENT="" />
    <EXPORT ORDINAL="662" NAME="?GetUsedMem@CDA_MemoryManager@@QAEHXZ" PURGE="0" COMMENT="" />
    <EXPORT ORDINAL="663" NAME="?GetUserData2@CDataFile@@QAEJXZ" PURGE="0" COMMENT="" />
    <EXPORT ORDINAL="664" NAME="?GetUserData@CDataFile@@QAEJXZ" PURGE="0" COMMENT="" />
    <EXPORT ORDINAL="665" NAME="?GetValue@CMap16@@QBE_NFAAG@Z" PURGE="8" COMMENT="" />
    <EXPORT ORDINAL="666" NAME="?GetValue@CMap32@@QAE_NFAAK@Z" PURGE="8" COMMENT="" />
    <EXPORT ORDINAL="667" NAME="?GetWindowSize@CLZSSSettings@@QAEKXZ" PURGE="0" COMMENT="" />
    <EXPORT ORDINAL="668" NAME="?GetWorkBlock@CXDF@@QAEPAVCXDF_Block@1@XZ" PURGE="0" COMMENT="" />
    <EXPORT ORDINAL="669" NAME="?GetWritePtr@CStream_Memory@@QAEPAEHH@Z" PURGE="8" COMMENT="" />
    <EXPORT ORDINAL="670" NAME="?GetnKeys@CKeyContainer@@QBEHXZ" PURGE="0" COMMENT="" />
    <EXPORT ORDINAL="671" NAME="?Good@CByteStream@@QAE_NXZ" PURGE="0" COMMENT="" />
    <EXPORT ORDINAL="672" NAME="?Good_Clear@CByteStreamData@@QAEXXZ" PURGE="0" COMMENT="" />
    <EXPORT ORDINAL="673" NAME="?Good_Get@CByteStreamData@@QAE_NXZ" PURGE="0" COMMENT="" />
    <EXPORT ORDINAL="674" NAME="?HasSubDir@CDataFile@@QAE_NXZ" PURGE="0" COMMENT="" />
    <EXPORT ORDINAL="675" NAME="?Hash_Insert@CDA_HashLink@@QAEXPAVCDA_HashSmall@@PAX@Z" PURGE="8" COMMENT="" />
    <EXPORT ORDINAL="676" NAME="?Hash_Insert@CDA_Hashable@@QAEXAAVCDA_Hash@@@Z" PURGE="4" COMMENT="" />
    <EXPORT ORDINAL="677" NAME="?Hash_Insert@CDA_Hashable@@QAEXPAVCDA_Hash@@@Z" PURGE="4" COMMENT="" />
    <EXPORT ORDINAL="678" NAME="?Hash_Remove@CDA_Hashable@@QAEXAAVCDA_Hash@@@Z" PURGE="4" COMMENT="" />
    <EXPORT ORDINAL="679" NAME="?Hash_Remove@CDA_Hashable@@QAEXPAVCDA_Hash@@@Z" PURGE="4" COMMENT="" />
    <EXPORT ORDINAL="680" NAME="?HeapCommit@CDA_MemoryManager@@UAE_NPAXI_N@Z" PURGE="12" COMMENT="" />
    <EXPORT ORDINAL="681" NAME="?HeapCommitGranularity@CDA_MemoryManager@@UAEIXZ" PURGE="0" COMMENT="" />
    <EXPORT ORDINAL="682" NAME="?INL_Close@CStream_XDF@@QAEXXZ" PURGE="0" COMMENT="" />
    <EXPORT ORDINAL="683" NAME="?INL_EndOfFile@CStream_XDF@@QAE_NXZ" PURGE="0" COMMENT="" />
    <EXPORT ORDINAL="684" NAME="?INL_FileExists@CStream_XDF@@QAE_NVCStr@@H@Z" PURGE="12" COMMENT="" />
    <EXPORT ORDINAL="685" NAME="?INL_Length@CStream_XDF@@QAEJXZ" PURGE="0" COMMENT="" />
    <EXPORT ORDINAL="686" NAME="?INL_Open@CStream_XDF@@QAEXVCStr@@H@Z" PURGE="12" COMMENT="" />
    <EXPORT ORDINAL="687" NAME="?INL_OpenExt@CStream_XDF@@QAEXVCStr@@HM@Z" PURGE="16" COMMENT="" />
    <EXPORT ORDINAL="688" NAME="?INL_OpenFallbackFile@CStream_XDF@@QAEXXZ" PURGE="0" COMMENT="" />
    <EXPORT ORDINAL="689" NAME="?INL_Pos@CStream_XDF@@QAEJXZ" PURGE="0" COMMENT="" />
    <EXPORT ORDINAL="690" NAME="?INL_Read@CStream_XDF@@QAEXPAXK@Z" PURGE="8" COMMENT="" />
    <EXPORT ORDINAL="691" NAME="?INL_RelSeek@CStream_XDF@@QAEXJ@Z" PURGE="4" COMMENT="" />
    <EXPORT ORDINAL="692" NAME="?INL_Seek@CStream_XDF@@QAEXJ@Z" PURGE="4" COMMENT="" />
    <EXPORT ORDINAL="693" NAME="?INL_SeekToEnd@CStream_XDF@@QAEXXZ" PURGE="0" COMMENT="" />
    <EXPORT ORDINAL="694" NAME="?INL_Write@CStream_XDF@@QAEXPBXK@Z" PURGE="-1" COMMENT="" />
    <EXPORT ORDINAL="695" NAME="?Init@CDA_Pool_Static@@QAEXKK@Z" PURGE="8" COMMENT="" />
    <EXPORT ORDINAL="696" NAME="?InitHash@CDA_Hash@@QAEXEIE@Z" PURGE="12" COMMENT="" />
    <EXPORT ORDINAL="697" NAME="?InitHash@CDA_HashSmall@@QAEXEIE@Z" PURGE="12" COMMENT="" />
    <EXPORT ORDINAL="698" NAME="?InitHash@CDA_IDHash@@QAEXEIIE@Z" PURGE="16" COMMENT="" />
    <EXPORT ORDINAL="699" NAME="?InitInverseTable_Fixed16@CMathAccel@@QAEXXZ" PURGE="0" COMMENT="" />
    <EXPORT ORDINAL="700" NAME="?InitInverseTable_fp4@CMathAccel@@QAEXXZ" PURGE="0" COMMENT="" />
    <EXPORT ORDINAL="701" NAME="?InitLock@CDA_Pool_Static@@QAEXXZ" PURGE="0" COMMENT="" />
    <EXPORT ORDINAL="702" NAME="?InitSqrtTable@CMathAccel@@QAEXXZ" PURGE="0" COMMENT="" />
    <EXPORT ORDINAL="703" NAME="?InitStatic@CDA_MemoryManager@@QAEXI_N@Z" PURGE="8" COMMENT="" />
    <EXPORT ORDINAL="704" NAME="?Insert@?$THash@FVCMap16Entry@@@@IAEXHH@Z" PURGE="8" COMMENT="" />
    <EXPORT ORDINAL="705" NAME="?Insert@?$THash@FVCMap32Entry@@@@IAEXHH@Z" PURGE="8" COMMENT="" />
    <EXPORT ORDINAL="706" NAME="?Insert@?$THash@FVCStringHashConstElement@@@@IAEXHH@Z" PURGE="8" COMMENT="" />
    <EXPORT ORDINAL="707" NAME="?Insert@?$THash@FVCStringHashElement@@@@IAEXHH@Z" PURGE="8" COMMENT="" />
    <EXPORT ORDINAL="708" NAME="?Insert@?$THash@JVCHash2DNull@@@@IAEXHH@Z" PURGE="8" COMMENT="" />
    <EXPORT ORDINAL="709" NAME="?Insert@CDA_AVLTree@@QAE?AW4AVLRES@@PAPAVCDA_AVLTreeableMember@@PAV3@@Z" PURGE="8" COMMENT="" />
    <EXPORT ORDINAL="710" NAME="?Insert@CHash2D@@QAEXHABV?$TVector3@MV?$TMatrix4@MH@@H@@0@Z" PURGE="12" COMMENT="" />
    <EXPORT ORDINAL="711" NAME="?Insert@CIndexPool16@@QAEXH@Z" PURGE="4" COMMENT="" />
    <EXPORT ORDINAL="712" NAME="?Insert@CMap16@@QAEXFG@Z" PURGE="8" COMMENT="" />
    <EXPORT ORDINAL="713" NAME="?Insert@CMap32@@QAEXFK@Z" PURGE="8" COMMENT="" />
    <EXPORT ORDINAL="714" NAME="?Insert@CStringHash@@QAEXHVCStr@@@Z" PURGE="12" COMMENT="" />
    <EXPORT ORDINAL="715" NAME="?Insert@CStringHashConst@@QAEXHPBD@Z" PURGE="8" COMMENT="" />
    <EXPORT ORDINAL="716" NAME="?InsertLarge@?$THash@FVCIndexPool16Elem@@@@IAEXH@Z" PURGE="4" COMMENT="" />
    <EXPORT ORDINAL="717" NAME="?InsertLarge@?$THash@JVCHash2DNull@@@@IAEXH@Z" PURGE="4" COMMENT="" />
    <EXPORT ORDINAL="718" NAME="?InsertNewStrings@CLZSS@@AAEXXZ" PURGE="0" COMMENT="" />
    <EXPORT ORDINAL="719" NAME="?InsertxBlank@CListVectorCore@@IAEXHH@Z" PURGE="8" COMMENT="" />
    <EXPORT ORDINAL="720" NAME="?InsertxElements@CListVectorCore@@IAEXHPBXH_N@Z" PURGE="16" COMMENT="" />
    <EXPORT ORDINAL="721" NAME="?IsAllocated@CIDHeap@@QAEHH@Z" PURGE="4" COMMENT="" />
    <EXPORT ORDINAL="722" NAME="?IsArchive@CDir_FileRec@@QBE_NXZ" PURGE="0" COMMENT="" />
    <EXPORT ORDINAL="723" NAME="?IsDirectory@CDir_FileRec@@QBE_NXZ" PURGE="0" COMMENT="" />
    <EXPORT ORDINAL="724" NAME="?IsDirectory@CDirectoryNode@@QAE_NH@Z" PURGE="4" COMMENT="" />
    <EXPORT ORDINAL="725" NAME="?IsEmpty@CDA_LinkedList_Small@@QAE_NXZ" PURGE="0" COMMENT="" />
    <EXPORT ORDINAL="726" NAME="?IsHeapOk@CDA_MemoryManager@@QAE_NXZ" PURGE="0" COMMENT="" />
    <EXPORT ORDINAL="727" NAME="?IsInList@CDA_Link@CDA_LinkedList_Small@@QAE_NXZ" PURGE="0" COMMENT="" />
    <EXPORT ORDINAL="728" NAME="?IsSame@CByteStreamDrive_Hash@@UAE_NPAX0@Z" PURGE="8" COMMENT="" />
    <EXPORT ORDINAL="729" NAME="?IsSame@CDA_IDHash@@UAE_NPAX0@Z" PURGE="8" COMMENT="" />
    <EXPORT ORDINAL="730" NAME="?LeftGrown@CDA_AVLTree@@SA?AW4AVLRES@@PAPAVCDA_AVLTreeableMember@@@Z" PURGE="0" COMMENT="" />
    <EXPORT ORDINAL="731" NAME="?LeftShrunk@CDA_AVLTree@@SA?AW4AVLRES@@PAPAVCDA_AVLTreeableMember@@@Z" PURGE="0" COMMENT="" />
    <EXPORT ORDINAL="732" NAME="?Len@CByteStream@@QAE_JXZ" PURGE="0" COMMENT="" />
    <EXPORT ORDINAL="733" NAME="?Len@CByteStreamData@@QAE_JXZ" PURGE="0" COMMENT="" />
    <EXPORT ORDINAL="734" NAME="?Len@CListVectorCore@@QBEHXZ" PURGE="0" COMMENT="" />
    <EXPORT ORDINAL="735" NAME="?Length@CCFile@@QAE_JXZ" PURGE="0" COMMENT="" />
    <EXPORT ORDINAL="736" NAME="?Length@CStream@@UAE_JXZ" PURGE="0" COMMENT="" />
    <EXPORT ORDINAL="737" NAME="?Length@CStream_Disk@@UAE_JXZ" PURGE="0" COMMENT="" />
    <EXPORT ORDINAL="738" NAME="?Length@CStream_Memory@@UAE_JXZ" PURGE="0" COMMENT="" />
    <EXPORT ORDINAL="739" NAME="?Length@CStream_RAM@@UAE_JXZ" PURGE="0" COMMENT="" />
    <EXPORT ORDINAL="740" NAME="?Length@CStream_XDF@@UAE_JXZ" PURGE="0" COMMENT="" />
    <EXPORT ORDINAL="741" NAME="?Link@CDA_AVLTreeableMember@@QAEXPAVCDA_AVLTreeable@@@Z" PURGE="4" COMMENT="" />
    <EXPORT ORDINAL="742" NAME="?Link@CDA_Link@CDA_LinkedList_Small@@QAEXAAV2@PAX@Z" PURGE="8" COMMENT="" />
    <EXPORT ORDINAL="743" NAME="?Link@CDA_Link@CDA_LinkedList_Small@@QAEXPAV2@PAX@Z" PURGE="8" COMMENT="" />
    <EXPORT ORDINAL="744" NAME="?LinkAfter@CDA_Link@CDA_LinkedList_Small@@QAEXPAV2@PAV12@PAX@Z" PURGE="12" COMMENT="" />
    <EXPORT ORDINAL="745" NAME="?LinkLast@CDA_Link@CDA_LinkedList_Small@@QAEXAAV2@PAX@Z" PURGE="8" COMMENT="" />
    <EXPORT ORDINAL="746" NAME="?LinkLast@CDA_Link@CDA_LinkedList_Small@@QAEXPAV2@PAX@Z" PURGE="8" COMMENT="" />
    <EXPORT ORDINAL="747" NAME="?LinkSortedStartHead@CDA_Link@CDA_LinkedList_Small@@QAEXPAV2@PAX@Z" PURGE="8" COMMENT="" />
    <EXPORT ORDINAL="748" NAME="?LinkSortedStartTail@CDA_Link@CDA_LinkedList_Small@@QAEXPAV2@PAX@Z" PURGE="8" COMMENT="" />
    <EXPORT ORDINAL="749" NAME="?Linkable@CDA_LinkedListIterator_Small@@QAEPAXPAVCDA_Link@CDA_LinkedList_Small@@@Z" PURGE="4" COMMENT="" />
    <EXPORT ORDINAL="750" NAME="?ListAllocatedSize@CListVectorCore@@QBEHXZ" PURGE="0" COMMENT="" />
    <EXPORT ORDINAL="751" NAME="?ListRef@CListVectorCore@@QBEHXZ" PURGE="0" COMMENT="" />
    <EXPORT ORDINAL="752" NAME="?ListSize@CListVectorCore@@QBEHXZ" PURGE="0" COMMENT="" />
    <EXPORT ORDINAL="753" NAME="?List_GetMember@CDA_Linkable@@QAEPAVCDA_LinkableMember@@AAVCDA_LinkedList@@@Z" PURGE="4" COMMENT="" />
    <EXPORT ORDINAL="754" NAME="?List_GetMember@CDA_Linkable@@QAEPAVCDA_LinkableMember@@PAVCDA_LinkedList@@@Z" PURGE="4" COMMENT="" />
    <EXPORT ORDINAL="755" NAME="?List_Insert@CDA_Linkable@@QAEXAAVCDA_LinkedList@@@Z" PURGE="4" COMMENT="" />
    <EXPORT ORDINAL="756" NAME="?List_Insert@CDA_Linkable@@QAEXPAVCDA_LinkedList@@@Z" PURGE="4" COMMENT="" />
    <EXPORT ORDINAL="757" NAME="?List_InsertAfter@CDA_Linkable@@QAEXPAVCDA_LinkedList@@PAV1@@Z" PURGE="8" COMMENT="" />
    <EXPORT ORDINAL="758" NAME="?List_InsertAfter@CDA_Linkable@@QAEXPAVCDA_LinkedList@@PAVCDA_LinkableMember@@@Z" PURGE="8" COMMENT="" />
    <EXPORT ORDINAL="759" NAME="?List_InsertSortedStartHead@CDA_Linkable@@QAEXPAVCDA_LinkedList@@@Z" PURGE="4" COMMENT="" />
    <EXPORT ORDINAL="760" NAME="?List_InsertSortedStartTail@CDA_Linkable@@QAEXPAVCDA_LinkedList@@@Z" PURGE="4" COMMENT="" />
    <EXPORT ORDINAL="761" NAME="?List_Remove@CDA_Linkable@@QAEXAAVCDA_LinkedList@@@Z" PURGE="4" COMMENT="" />
    <EXPORT ORDINAL="762" NAME="?List_Remove@CDA_Linkable@@QAEXPAVCDA_LinkedList@@@Z" PURGE="4" COMMENT="" />
    <EXPORT ORDINAL="763" NAME="?List_RemoveFromAllLists@CDA_Linkable@@QAEXXZ" PURGE="0" COMMENT="" />
    <EXPORT ORDINAL="764" NAME="?List_Swap@CDA_Linkable@@QAEXPAVCDA_LinkedList@@PAV1@@Z" PURGE="8" COMMENT="" />
    <EXPORT ORDINAL="765" NAME="?List_Swap@CDA_Linkable@@SAXPAVCDA_LinkableMember@@0@Z" PURGE="0" COMMENT="" />
    <EXPORT ORDINAL="766" NAME="?Log@CLogFile@@QAEXPBG@Z" PURGE="4" COMMENT="" />
    <EXPORT ORDINAL="767" NAME="?Log@CLogFile@@UAEXABVCStr@@@Z" PURGE="4" COMMENT="" />
    <EXPORT ORDINAL="768" NAME="?Log@CLogFile@@UAEXPBD@Z" PURGE="4" COMMENT="" />
    <EXPORT ORDINAL="769" NAME="MCC_TPtrError" PURGE="-1" COMMENT="" />
    <EXPORT ORDINAL="770" NAME="MFloat_GetRand" PURGE="0" COMMENT="" />
    <EXPORT ORDINAL="771" NAME="?MFloat_GetRandTable@@YAPBMXZ" PURGE="0" COMMENT="" />
    <EXPORT ORDINAL="772" NAME="MFloat_GetSineTable" PURGE="0" COMMENT="" />
    <EXPORT ORDINAL="773" NAME="MFloat_Init" PURGE="0" COMMENT="" />
    <EXPORT ORDINAL="774" NAME="MRTC_DLLAttachProcess" PURGE="0" COMMENT="" />
    <EXPORT ORDINAL="775" NAME="MRTC_DLLDetachProcess" PURGE="0" COMMENT="" />
    <EXPORT ORDINAL="776" NAME="?MRTC_Delete@CDA_PoolableCompatibleDeleteCompatibleCRef@@UAEXXZ" PURGE="0" COMMENT="" />
    <EXPORT ORDINAL="777" NAME="MRTC_GetClassContainer" PURGE="0" COMMENT="" />
    <EXPORT ORDINAL="778" NAME="?MRTC_GetRuntimeClass@CLogFile@@UBEPAVMRTC_CRuntimeClass@@XZ" PURGE="0" COMMENT="" />
    <EXPORT ORDINAL="779" NAME="?MRTC_GetRuntimeClass@ILogFile@@UBEPAVMRTC_CRuntimeClass@@XZ" PURGE="0" COMMENT="" />
    <EXPORT ORDINAL="780" NAME="?MRTC_GetRuntimeClass@IProgress@@UBEPAVMRTC_CRuntimeClass@@XZ" PURGE="0" COMMENT="" />
    <EXPORT ORDINAL="781" NAME="?MakeDir@CDiskUtil@@SA_NVCStr@@0@Z" PURGE="0" COMMENT="" />
    <EXPORT ORDINAL="782" NAME="?MaxAvail@CIDHeap@@QAEHXZ" PURGE="0" COMMENT="" />
    <EXPORT ORDINAL="783" NAME="?MaxCapacity@CIDHeap@@QAEHXZ" PURGE="0" COMMENT="" />
    <EXPORT ORDINAL="784" NAME="?MemFromBlock@CDA_MemoryManager@@SAPAXPAUSDA_Defraggable@@@Z" PURGE="0" COMMENT="" />
    <EXPORT ORDINAL="785" NAME="?MemMove@@YAXPAXPBXH@Z" PURGE="0" COMMENT="" />
    <EXPORT ORDINAL="786" NAME="?MemSet@@YAXPAXHH@Z" PURGE="0" COMMENT="" />
    <EXPORT ORDINAL="787" NAME="MemSetD" PURGE="0" COMMENT="" />
    <EXPORT ORDINAL="788" NAME="MemSetW" PURGE="0" COMMENT="" />
    <EXPORT ORDINAL="789" NAME="?MemorySize@CDA_MemoryManager@@QAEIPBX@Z" PURGE="4" COMMENT="" />
    <EXPORT ORDINAL="790" NAME="?MoveObject@CDA_Defraggable@@UAEXPAX@Z" PURGE="4" COMMENT="" />
    <EXPORT ORDINAL="791" NAME="?MoveToLoc@CDA_Hash@@UAEXPAV1@@Z" PURGE="4" COMMENT="" />
    <EXPORT ORDINAL="792" NAME="?MoveToLoc@CDA_Hashable@@QAEXPAV1@@Z" PURGE="4" COMMENT="" />
    <EXPORT ORDINAL="793" NAME="?MoveToLoc@CDA_IDHash@@UAEXPAVCDA_Hash@@@Z" PURGE="4" COMMENT="" />
    <EXPORT ORDINAL="794" NAME="?MoveToLoc@CDA_Linkable@@QAEXPAV1@@Z" PURGE="4" COMMENT="" />
    <EXPORT ORDINAL="795" NAME="?MoveToLoc@CDA_Referable@@QAEXPAV1@@Z" PURGE="4" COMMENT="" />
    <EXPORT ORDINAL="796" NAME="?New@CDA_Pool_Static@@QAEPAXXZ" PURGE="0" COMMENT="" />
    <EXPORT ORDINAL="797" NAME="?Next@CDA_CircularStack@@QAEXXZ" PURGE="0" COMMENT="" />
    <EXPORT ORDINAL="798" NAME="?Next@CDA_LinkedListIterator_Small@@QAEPAVCDA_Link@CDA_LinkedList_Small@@PAV23@@Z" PURGE="4" COMMENT="" />
    <EXPORT ORDINAL="799" NAME="?NextBlock@CXDF@@QAEXXZ" PURGE="0" COMMENT="" />
    <EXPORT ORDINAL="800" NAME="?Open@CCFile@@QAEXPAVCStream@@H_N@Z" PURGE="12" COMMENT="" />
    <EXPORT ORDINAL="801" NAME="?Open@CCFile@@QAEXPAXHHH@Z" PURGE="16" COMMENT="" />
    <EXPORT ORDINAL="802" NAME="?Open@CCFile@@QAEXV?$TList_Vector@EVTList_Vector_CNonAligned@@@@HH@Z" PURGE="16" COMMENT="" />
    <EXPORT ORDINAL="803" NAME="?Open@CCFile@@QAEXVCStr@@HW4ECompressTypes@@W4ESettings@@@Z" PURGE="20" COMMENT="" />
    <EXPORT ORDINAL="804" NAME="?Open@CDataFile@@QAEXPBD@Z" PURGE="4" COMMENT="" />
    <EXPORT ORDINAL="805" NAME="?Open@CDataFile@@QAEXV?$TPtr@VCCFile@@@@H@Z" PURGE="8" COMMENT="" />
    <EXPORT ORDINAL="806" NAME="?Open@CStream@@UAEXVCStr@@H@Z" PURGE="12" COMMENT="" />
    <EXPORT ORDINAL="807" NAME="?Open@CStream_Disk@@UAEXVCStr@@H@Z" PURGE="12" COMMENT="" />
    <EXPORT ORDINAL="808" NAME="?Open@CStream_Memory@@QAEXV?$TList_Vector@EVTList_Vector_CNonAligned@@@@HH@Z" PURGE="16" COMMENT="" />
    <EXPORT ORDINAL="809" NAME="?Open@CStream_Memory@@UAEXVCStr@@H@Z" PURGE="12" COMMENT="" />
    <EXPORT ORDINAL="810" NAME="?Open@CStream_RAM@@UAEXVCStr@@H@Z" PURGE="12" COMMENT="" />
    <EXPORT ORDINAL="811" NAME="?Open@CStream_SubFile@@QAEXV?$TPtr@VCCFile@@@@HH@Z" PURGE="12" COMMENT="" />
    <EXPORT ORDINAL="812" NAME="?Open@CStream_XDF@@UAEXVCStr@@H@Z" PURGE="12" COMMENT="" />
    <EXPORT ORDINAL="813" NAME="?Open@CXDF@@QAEXPBD0@Z" PURGE="8" COMMENT="" />
    <EXPORT ORDINAL="814" NAME="?OpenExt@CCFile@@QAEXVCStr@@HW4ECompressTypes@@W4ESettings@@MJJ@Z" PURGE="32" COMMENT="" />
    <EXPORT ORDINAL="815" NAME="?OpenExt@CStream@@UAEXVCStr@@HMJJ@Z" PURGE="24" COMMENT="" />
    <EXPORT ORDINAL="816" NAME="?OpenExt@CStream_Disk@@UAEXVCStr@@HMJJ@Z" PURGE="24" COMMENT="" />
    <EXPORT ORDINAL="817" NAME="?OpenExt@CStream_XDF@@UAEXVCStr@@HMJJ@Z" PURGE="24" COMMENT="" />
    <EXPORT ORDINAL="818" NAME="?OpenFile@CLogFile@@AAE_N_N@Z" PURGE="4" COMMENT="" />
    <EXPORT ORDINAL="819" NAME="?OptimizeMemory@CListVectorCore@@QAEXXZ" PURGE="0" COMMENT="" />
    <EXPORT ORDINAL="820" NAME="?OutputCodeTable@CHuffmanTree@@QAEXAAV?$COutputBits@K@@@Z" PURGE="4" COMMENT="" />
    <EXPORT ORDINAL="821" NAME="?Pause@CFileAsyncCopy@@QAEXXZ" PURGE="0" COMMENT="" />
    <EXPORT ORDINAL="822" NAME="?PerformOperation@CByteStreamCacheLine@@QAEXXZ" PURGE="0" COMMENT="" />
    <EXPORT ORDINAL="823" NAME="?PoolDelete@CDA_Poolable@@SAXPAXAAVCDA_Pool_Static@@@Z" PURGE="0" COMMENT="" />
    <EXPORT ORDINAL="824" NAME="?PoolDelete@CDA_Poolable@@SAXPAXPAVCDA_Pool_Static@@@Z" PURGE="0" COMMENT="" />
    <EXPORT ORDINAL="825" NAME="?PoolNew@CDA_Poolable@@SAPAXIAAVCDA_Pool_Static@@@Z" PURGE="0" COMMENT="" />
    <EXPORT ORDINAL="826" NAME="?PoolNew@CDA_Poolable@@SAPAXIPAVCDA_Pool_Static@@@Z" PURGE="0" COMMENT="" />
    <EXPORT ORDINAL="827" NAME="?PopPosition@CDataFile@@QAEXXZ" PURGE="0" COMMENT="" />
    <EXPORT ORDINAL="828" NAME="?Pos@CByteStream@@QAE_JXZ" PURGE="0" COMMENT="" />
    <EXPORT ORDINAL="829" NAME="?Pos@CByteStreamData@@QAE_JXZ" PURGE="0" COMMENT="" />
    <EXPORT ORDINAL="830" NAME="?Pos@CCFile@@QAE_JXZ" PURGE="0" COMMENT="" />
    <EXPORT ORDINAL="831" NAME="?Pos@CStream@@UAE_JXZ" PURGE="0" COMMENT="" />
    <EXPORT ORDINAL="832" NAME="?Pos@CStream_Disk@@UAE_JXZ" PURGE="0" COMMENT="" />
    <EXPORT ORDINAL="833" NAME="?Pos@CStream_Memory@@UAE_JXZ" PURGE="0" COMMENT="" />
    <EXPORT ORDINAL="834" NAME="?Pos@CStream_RAM@@UAE_JXZ" PURGE="0" COMMENT="" />
    <EXPORT ORDINAL="835" NAME="?Pos@CStream_XDF@@UAE_JXZ" PURGE="0" COMMENT="" />
    <EXPORT ORDINAL="836" NAME="?PostMoveObject@CDA_Defraggable@@UAEXI@Z" PURGE="4" COMMENT="" />
    <EXPORT ORDINAL="837" NAME="?PreMoveObject@CDA_Defraggable@@UAEXAAI@Z" PURGE="4" COMMENT="" />
    <EXPORT ORDINAL="838" NAME="?PrepareCacheline@CByteStreamData@@QAEPAVCByteStreamCacheLine@@_JI_N@Z" PURGE="16" COMMENT="" />
    <EXPORT ORDINAL="839" NAME="?PrepareCacheline@CByteStreamData@@QAE_NPAVCByteStreamCacheLine@@_JI_N@Z" PURGE="20" COMMENT="" />
    <EXPORT ORDINAL="840" NAME="?Prev@CDA_LinkedListIterator_Small@@QAEPAVCDA_Link@CDA_LinkedList_Small@@PAV23@@Z" PURGE="4" COMMENT="" />
    <EXPORT ORDINAL="841" NAME="?PrivateInit@CDA_MemoryManager@@QAEXXZ" PURGE="0" COMMENT="" />
    <EXPORT ORDINAL="842" NAME="?PushPosition@CDataFile@@QAEXXZ" PURGE="0" COMMENT="" />
    <EXPORT ORDINAL="843" NAME="?RangeCheckError@CListVectorCore@@IBEXH@Z" PURGE="-1" COMMENT="" />
    <EXPORT ORDINAL="844" NAME="?Read@CByteStream@@QAEXPAXI@Z" PURGE="8" COMMENT="" />
    <EXPORT ORDINAL="845" NAME="?Read@CByteStream@@QAE_NPAVCAsyncRequest@@@Z" PURGE="4" COMMENT="" />
    <EXPORT ORDINAL="846" NAME="?Read@CByteStreamCacheLine@@QAEXXZ" PURGE="0" COMMENT="" />
    <EXPORT ORDINAL="847" NAME="?Read@CByteStreamData@@QAEXPAXI@Z" PURGE="8" COMMENT="" />
    <EXPORT ORDINAL="848" NAME="?Read@CByteStreamData@@QAE_NPAVCAsyncRequest@@@Z" PURGE="4" COMMENT="" />
    <EXPORT ORDINAL="849" NAME="?Read@CCFile@@QAEXAAE@Z" PURGE="4" COMMENT="" />
    <EXPORT ORDINAL="850" NAME="?Read@CCFile@@QAEXPAXI@Z" PURGE="8" COMMENT="" />
    <EXPORT ORDINAL="851" NAME="?Read@CCFile@@QAE_NPAVCAsyncRequest@@@Z" PURGE="-1" COMMENT="" />
    <EXPORT ORDINAL="852" NAME="?Read@CDataFileNode2@@QAEXPAVCCFile@@@Z" PURGE="4" COMMENT="" />
    <EXPORT ORDINAL="853" NAME="?Read@CDataFileNode@@QAEXPAVCCFile@@@Z" PURGE="4" COMMENT="" />
    <EXPORT ORDINAL="854" NAME="?Read@CIDHeap@@QAEXPAVCCFile@@@Z" PURGE="4" COMMENT="" />
    <EXPORT ORDINAL="855" NAME="?Read@CKeyContainer@@QAEXPAVCCFile@@@Z" PURGE="4" COMMENT="" />
    <EXPORT ORDINAL="856" NAME="?Read@CStream@@UAEXPAXI@Z" PURGE="8" COMMENT="" />
    <EXPORT ORDINAL="857" NAME="?Read@CStream@@UAE_NPAVCAsyncRequest@@@Z" PURGE="4" COMMENT="" />
    <EXPORT ORDINAL="858" NAME="?Read@CStream_Disk@@UAEXPAXI@Z" PURGE="8" COMMENT="" />
    <EXPORT ORDINAL="859" NAME="?Read@CStream_Disk@@UAE_NPAVCAsyncRequest@@@Z" PURGE="4" COMMENT="" />
    <EXPORT ORDINAL="860" NAME="?Read@CStream_Memory@@UAEXPAXI@Z" PURGE="8" COMMENT="" />
    <EXPORT ORDINAL="861" NAME="?Read@CStream_Memory@@UAE_NPAVCAsyncRequest@@@Z" PURGE="4" COMMENT="" />
    <EXPORT ORDINAL="862" NAME="?Read@CStream_RAM@@UAEXPAXI@Z" PURGE="8" COMMENT="" />
    <EXPORT ORDINAL="863" NAME="?Read@CStream_XDF@@UAEXPAXI@Z" PURGE="8" COMMENT="" />
    <EXPORT ORDINAL="864" NAME="?Read@CXDF@@QAEXPAVCCFile@@@Z" PURGE="4" COMMENT="" />
    <EXPORT ORDINAL="865" NAME="?ReadBE@CCFile@@QAEXAAC@Z" PURGE="4" COMMENT="" />
    <EXPORT ORDINAL="866" NAME="?ReadBE@CCFile@@QAEXAAE@Z" PURGE="4" COMMENT="" />
    <EXPORT ORDINAL="867" NAME="?ReadBE@CCFile@@QAEXAAF@Z" PURGE="4" COMMENT="" />
    <EXPORT ORDINAL="868" NAME="?ReadBE@CCFile@@QAEXAAG@Z" PURGE="4" COMMENT="" />
    <EXPORT ORDINAL="869" NAME="?ReadBE@CCFile@@QAEXAAJ@Z" PURGE="4" COMMENT="" />
    <EXPORT ORDINAL="870" NAME="?ReadBE@CCFile@@QAEXAAK@Z" PURGE="4" COMMENT="" />
    <EXPORT ORDINAL="871" NAME="?ReadBE@CCFile@@QAEXAAM@Z" PURGE="4" COMMENT="" />
    <EXPORT ORDINAL="872" NAME="?ReadBE@CCFile@@QAEXAAN@Z" PURGE="4" COMMENT="" />
    <EXPORT ORDINAL="873" NAME="?ReadBE@CCFile@@QAEXAA_J@Z" PURGE="4" COMMENT="" />
    <EXPORT ORDINAL="874" NAME="?ReadBE@CCFile@@QAEXAA_K@Z" PURGE="4" COMMENT="" />
    <EXPORT ORDINAL="875" NAME="?ReadDirectory@CDirectoryNode@@QAEXVCStr@@@Z" PURGE="8" COMMENT="" />
    <EXPORT ORDINAL="876" NAME="?ReadEntry@CDataFile@@QAE?AV?$TList_Vector@EVTList_Vector_CNonAligned@@@@XZ" PURGE="4" COMMENT="" />
    <EXPORT ORDINAL="877" NAME="?ReadFileToArray@CDiskUtil@@SA?AV?$TList_Vector@EVTList_Vector_CNonAligned@@@@VCStr@@H@Z" PURGE="0" COMMENT="" />
    <EXPORT ORDINAL="878" NAME="?ReadFromMemory_r@CKeyContainerNode@@QAEHPBDH_N@Z" PURGE="12" COMMENT="" />
    <EXPORT ORDINAL="879" NAME="?ReadFromScript@CKeyContainerNode@@QAEXPAVCCFile@@_N@Z" PURGE="8" COMMENT="" />
    <EXPORT ORDINAL="880" NAME="?ReadFromScript@CKeyContainerNode@@QAEXVCStr@@_N@Z" PURGE="12" COMMENT="" />
    <EXPORT ORDINAL="881" NAME="?ReadImp@CStream_XDF@@QAEXPAXK@Z" PURGE="8" COMMENT="" />
    <EXPORT ORDINAL="882" NAME="?ReadLE@CCFile@@QAEXAAC@Z" PURGE="4" COMMENT="" />
    <EXPORT ORDINAL="883" NAME="?ReadLE@CCFile@@QAEXAAE@Z" PURGE="4" COMMENT="" />
    <EXPORT ORDINAL="884" NAME="?ReadLE@CCFile@@QAEXAAF@Z" PURGE="4" COMMENT="" />
    <EXPORT ORDINAL="885" NAME="?ReadLE@CCFile@@QAEXAAG@Z" PURGE="4" COMMENT="" />
    <EXPORT ORDINAL="886" NAME="?ReadLE@CCFile@@QAEXAAJ@Z" PURGE="4" COMMENT="" />
    <EXPORT ORDINAL="887" NAME="?ReadLE@CCFile@@QAEXAAK@Z" PURGE="4" COMMENT="" />
    <EXPORT ORDINAL="888" NAME="?ReadLE@CCFile@@QAEXAAM@Z" PURGE="4" COMMENT="" />
    <EXPORT ORDINAL="889" NAME="?ReadLE@CCFile@@QAEXAAN@Z" PURGE="4" COMMENT="" />
    <EXPORT ORDINAL="890" NAME="?ReadLE@CCFile@@QAEXAA_J@Z" PURGE="4" COMMENT="" />
    <EXPORT ORDINAL="891" NAME="?ReadLE@CCFile@@QAEXAA_K@Z" PURGE="4" COMMENT="" />
    <EXPORT ORDINAL="892" NAME="?ReadLE@CCFile@@QAEXPACH@Z" PURGE="8" COMMENT="" />
    <EXPORT ORDINAL="893" NAME="?ReadLE@CCFile@@QAEXPAEH@Z" PURGE="8" COMMENT="" />
    <EXPORT ORDINAL="894" NAME="?ReadLE@CCFile@@QAEXPAFH@Z" PURGE="8" COMMENT="" />
    <EXPORT ORDINAL="895" NAME="?ReadLE@CCFile@@QAEXPAGH@Z" PURGE="8" COMMENT="" />
    <EXPORT ORDINAL="896" NAME="?ReadLE@CCFile@@QAEXPAJH@Z" PURGE="8" COMMENT="" />
    <EXPORT ORDINAL="897" NAME="?ReadLE@CCFile@@QAEXPAKH@Z" PURGE="8" COMMENT="" />
    <EXPORT ORDINAL="898" NAME="?ReadLE@CCFile@@QAEXPAMH@Z" PURGE="8" COMMENT="" />
    <EXPORT ORDINAL="899" NAME="?ReadLE@CCFile@@QAEXPANH@Z" PURGE="8" COMMENT="" />
    <EXPORT ORDINAL="900" NAME="?ReadTree_r@CDataFile@@AAEXPAVCDF_Node@@0@Z" PURGE="8" COMMENT="" />
    <EXPORT ORDINAL="901" NAME="?Readln@CCFile@@QAE?AVCStr@@XZ" PURGE="4" COMMENT="" />
    <EXPORT ORDINAL="902" NAME="?Realloc@CDA_Defraggable@@QAEXH@Z" PURGE="4" COMMENT="" />
    <EXPORT ORDINAL="903" NAME="?Realloc@CDA_MemoryManager@@QAEPAXPAXI@Z" PURGE="8" COMMENT="" />
    <EXPORT ORDINAL="904" NAME="?Rebuild@CHuffmanTree@@QAEEAAV?$CInputBits@K@@@Z" PURGE="4" COMMENT="" />
    <EXPORT ORDINAL="905" NAME="?Record_CloseFile@CXDF@@QAEXPBD@Z" PURGE="4" COMMENT="" />
    <EXPORT ORDINAL="906" NAME="?Record_FinishBlock@CXDF@@QAEXXZ" PURGE="0" COMMENT="" />
    <EXPORT ORDINAL="907" NAME="?Record_NewBlock@CXDF@@QAEXXZ" PURGE="0" COMMENT="" />
    <EXPORT ORDINAL="908" NAME="?Record_OpenFile@CXDF@@QAEXPBD@Z" PURGE="4" COMMENT="" />
    <EXPORT ORDINAL="909" NAME="?Record_Read@CXDF@@QAEX_J@Z" PURGE="8" COMMENT="" />
    <EXPORT ORDINAL="910" NAME="?Record_Seek@CXDF@@QAEX_J@Z" PURGE="8" COMMENT="" />
    <EXPORT ORDINAL="911" NAME="?Record_Start@CXDF@@QAEXPBD0@Z" PURGE="8" COMMENT="" />
    <EXPORT ORDINAL="912" NAME="?Refer@CDA_Reference@CDA_Referable@@QAEXPAV2@@Z" PURGE="4" COMMENT="" />
    <EXPORT ORDINAL="913" NAME="?RelSeek@CCFile@@QAEX_J@Z" PURGE="8" COMMENT="" />
    <EXPORT ORDINAL="914" NAME="?RelSeek@CStream@@UAEX_J@Z" PURGE="8" COMMENT="" />
    <EXPORT ORDINAL="915" NAME="?RelSeek@CStream_Disk@@UAEX_J@Z" PURGE="8" COMMENT="" />
    <EXPORT ORDINAL="916" NAME="?RelSeek@CStream_Memory@@UAEX_J@Z" PURGE="8" COMMENT="" />
    <EXPORT ORDINAL="917" NAME="?RelSeek@CStream_RAM@@UAEX_J@Z" PURGE="8" COMMENT="" />
    <EXPORT ORDINAL="918" NAME="?RelSeek@CStream_XDF@@UAEX_J@Z" PURGE="8" COMMENT="" />
    <EXPORT ORDINAL="919" NAME="?Remove@?$THash@FVCIndexPool16Elem@@@@QAEXH@Z" PURGE="4" COMMENT="" />
    <EXPORT ORDINAL="920" NAME="?Remove@?$THash@FVCMap16Entry@@@@QAEXH@Z" PURGE="4" COMMENT="" />
    <EXPORT ORDINAL="921" NAME="?Remove@?$THash@FVCMap32Entry@@@@QAEXH@Z" PURGE="4" COMMENT="" />
    <EXPORT ORDINAL="922" NAME="?Remove@?$THash@FVCStringHashConstElement@@@@QAEXH@Z" PURGE="4" COMMENT="" />
    <EXPORT ORDINAL="923" NAME="?Remove@?$THash@FVCStringHashElement@@@@QAEXH@Z" PURGE="4" COMMENT="" />
    <EXPORT ORDINAL="924" NAME="?Remove@?$THash@JVCHash2DNull@@@@QAEXH@Z" PURGE="4" COMMENT="" />
    <EXPORT ORDINAL="925" NAME="?Remove@CCFile@@QAEXXZ" PURGE="-1" COMMENT="" />
    <EXPORT ORDINAL="926" NAME="?Remove@CDA_AVLTree@@QAE?AW4AVLRES@@PAPAVCDA_AVLTreeableMember@@PAX@Z" PURGE="8" COMMENT="" />
    <EXPORT ORDINAL="927" NAME="?Remove@CDA_CircularStack@@QAEXPAVCDA_Linkable@@@Z" PURGE="4" COMMENT="" />
    <EXPORT ORDINAL="928" NAME="?Remove@CIndexPool16@@QAEXH@Z" PURGE="4" COMMENT="" />
    <EXPORT ORDINAL="929" NAME="?Remove@CStream@@UAEXXZ" PURGE="0" COMMENT="" />
    <EXPORT ORDINAL="930" NAME="?Remove@CStream_Disk@@UAEXXZ" PURGE="-1" COMMENT="" />
    <EXPORT ORDINAL="931" NAME="?RemoveAll@CIndexPool16@@QAEXXZ" PURGE="0" COMMENT="" />
    <EXPORT ORDINAL="932" NAME="?RemoveCorrupt@CByteStream@@SAXH@Z" PURGE="0" COMMENT="" />
    <EXPORT ORDINAL="933" NAME="?RemoveCorrupt@CByteStreamManager@@QAEXH@Z" PURGE="4" COMMENT="" />
    <EXPORT ORDINAL="934" NAME="?RemoveCorrupt@CDiskUtil@@SAXH@Z" PURGE="0" COMMENT="" />
    <EXPORT ORDINAL="935" NAME="?RemoveDir@CDiskUtil@@SA_NVCStr@@0@Z" PURGE="0" COMMENT="" />
    <EXPORT ORDINAL="936" NAME="?RemoveDir@CDiskUtil@@SA_NVCStr@@@Z" PURGE="0" COMMENT="" />
    <EXPORT ORDINAL="937" NAME="?RemoveFromAllRefs@CDA_Referable@@QAEXXZ" PURGE="0" COMMENT="" />
    <EXPORT ORDINAL="938" NAME="?RemoveFromHash@CDA_HashLink@@QAEXXZ" PURGE="0" COMMENT="" />
    <EXPORT ORDINAL="939" NAME="?RemoveMembers@CDA_LinkedList@@QAEXXZ" PURGE="0" COMMENT="" />
    <EXPORT ORDINAL="940" NAME="?RemoveMembers@CDA_LinkedList_Small@@QAEXXZ" PURGE="0" COMMENT="" />
    <EXPORT ORDINAL="941" NAME="?Rename@CCFile@@QAEXABVCStr@@@Z" PURGE="4" COMMENT="" />
    <EXPORT ORDINAL="942" NAME="?Rename@CStream@@UAEXABVCStr@@@Z" PURGE="4" COMMENT="" />
    <EXPORT ORDINAL="943" NAME="?Rename@CStream_Disk@@UAEXABVCStr@@@Z" PURGE="-1" COMMENT="" />
    <EXPORT ORDINAL="944" NAME="?RenameFile@CDiskUtil@@SA_NVCStr@@0@Z" PURGE="0" COMMENT="" />
    <EXPORT ORDINAL="945" NAME="?ResetCRC@CMDA_CRC32Checker@@QAEXXZ" PURGE="0" COMMENT="" />
    <EXPORT ORDINAL="946" NAME="?Resume@CFileAsyncCopy@@QAEXXZ" PURGE="0" COMMENT="" />
    <EXPORT ORDINAL="947" NAME="?ReturnCacheMem@CByteStreamDrive@@QAEXPAVCCacheMem@@@Z" PURGE="4" COMMENT="" />
    <EXPORT ORDINAL="948" NAME="?RightGrown@CDA_AVLTree@@SA?AW4AVLRES@@PAPAVCDA_AVLTreeableMember@@@Z" PURGE="0" COMMENT="" />
    <EXPORT ORDINAL="949" NAME="?RightShrunk@CDA_AVLTree@@SA?AW4AVLRES@@PAPAVCDA_AVLTreeableMember@@@Z" PURGE="0" COMMENT="" />
    <EXPORT ORDINAL="950" NAME="?RotateLeft@CDA_AVLTree@@SAXPAPAVCDA_AVLTreeableMember@@@Z" PURGE="0" COMMENT="" />
    <EXPORT ORDINAL="951" NAME="?RotateRight@CDA_AVLTree@@SAXPAPAVCDA_AVLTreeableMember@@@Z" PURGE="0" COMMENT="" />
    <EXPORT ORDINAL="952" NAME="SIMD_ConvertRGB" PURGE="0" COMMENT="" />
    <EXPORT ORDINAL="953" NAME="?SIMD_ConvertRGBA@@YAXPBV?$TVector4@MV?$TMatrix4@MH@@H@@PAKH@Z" PURGE="0" COMMENT="" />
    <EXPORT ORDINAL="954" NAME="?SIMD_Max@@YAHPBEHH@Z" PURGE="0" COMMENT="" />
    <EXPORT ORDINAL="955" NAME="?SIMD_Max@@YAHPBFHH@Z" PURGE="0" COMMENT="" />
    <EXPORT ORDINAL="956" NAME="?SIMD_Max@@YAHPBGHH@Z" PURGE="0" COMMENT="" />
    <EXPORT ORDINAL="957" NAME="?SIMD_Recp8@@YAXPAM0H@Z" PURGE="0" COMMENT="" />
    <EXPORT ORDINAL="958" NAME="SIMD_RecpSqrt8" PURGE="0" COMMENT="" />
    <EXPORT ORDINAL="959" NAME="SIMD_Sqrt8" PURGE="0" COMMENT="" />
    <EXPORT ORDINAL="960" NAME="?SaveFile@CFileAsyncWrite@@QAE_NPBDPAVCFileAsyncWriteChunk@@HH@Z" PURGE="16" COMMENT="" />
    <EXPORT ORDINAL="961" NAME="?SearchExact@CDA_AVLTree@@QAEPAVCDA_AVLTreeableMember@@PAV2@PAX@Z" PURGE="8" COMMENT="" />
    <EXPORT ORDINAL="962" NAME="?SearchLargerSmallest@CDA_AVLTree@@QAEPAVCDA_AVLTreeableMember@@PAV2@PAXPAPAV2@@Z" PURGE="12" COMMENT="" />
    <EXPORT ORDINAL="963" NAME="?SearchPath_Add@CByteStream@@SAXVCStr@@@Z" PURGE="0" COMMENT="" />
    <EXPORT ORDINAL="964" NAME="?SearchPath_Add@CByteStreamManager@@QAEXVCStr@@@Z" PURGE="8" COMMENT="" />
    <EXPORT ORDINAL="965" NAME="?SearchPath_Add@CDiskUtil@@SAXVCStr@@@Z" PURGE="0" COMMENT="" />
    <EXPORT ORDINAL="966" NAME="?SearchPath_GetBase@CByteStream@@SA?AVCStr@@XZ" PURGE="0" COMMENT="" />
    <EXPORT ORDINAL="967" NAME="?SearchPath_GetBase@CByteStreamManager@@QAE?AVCStr@@XZ" PURGE="4" COMMENT="" />
    <EXPORT ORDINAL="968" NAME="?SearchPath_GetNumPaths@CByteStream@@SAHXZ" PURGE="0" COMMENT="" />
    <EXPORT ORDINAL="969" NAME="?SearchPath_GetNumPaths@CByteStreamManager@@QAEHXZ" PURGE="0" COMMENT="" />
    <EXPORT ORDINAL="970" NAME="?SearchPath_GetPath@CByteStream@@SA?AVCStr@@H@Z" PURGE="0" COMMENT="" />
    <EXPORT ORDINAL="971" NAME="?SearchPath_GetPath@CByteStreamManager@@QAE?AVCStr@@H@Z" PURGE="8" COMMENT="" />
    <EXPORT ORDINAL="972" NAME="?SearchPath_SetBase@CByteStream@@SAXVCStr@@@Z" PURGE="0" COMMENT="" />
    <EXPORT ORDINAL="973" NAME="?SearchPath_SetBase@CByteStreamManager@@QAEXVCStr@@@Z" PURGE="8" COMMENT="" />
    <EXPORT ORDINAL="974" NAME="?SearchPath_SetBase@CDiskUtil@@SAXVCStr@@@Z" PURGE="0" COMMENT="" />
    <EXPORT ORDINAL="975" NAME="?SearchSmallestLarger@CDA_AVLTree@@QAEPAVCDA_AVLTreeableMember@@PAV2@PAXPAPAV2@@Z" PURGE="12" COMMENT="" />
    <EXPORT ORDINAL="976" NAME="?Seek@CCFile@@QAEX_J@Z" PURGE="8" COMMENT="" />
    <EXPORT ORDINAL="977" NAME="?Seek@CStream@@UAEX_J@Z" PURGE="8" COMMENT="" />
    <EXPORT ORDINAL="978" NAME="?Seek@CStream_Disk@@UAEX_J@Z" PURGE="8" COMMENT="" />
    <EXPORT ORDINAL="979" NAME="?Seek@CStream_Memory@@UAEX_J@Z" PURGE="8" COMMENT="" />
    <EXPORT ORDINAL="980" NAME="?Seek@CStream_RAM@@UAEX_J@Z" PURGE="8" COMMENT="" />
    <EXPORT ORDINAL="981" NAME="?Seek@CStream_XDF@@UAEX_J@Z" PURGE="8" COMMENT="" />
    <EXPORT ORDINAL="982" NAME="?SeekBeg@CByteStream@@QAEX_J@Z" PURGE="8" COMMENT="" />
    <EXPORT ORDINAL="983" NAME="?SeekBeg@CByteStreamData@@QAEX_J@Z" PURGE="8" COMMENT="" />
    <EXPORT ORDINAL="984" NAME="?SeekCur@CByteStream@@QAEX_J@Z" PURGE="8" COMMENT="" />
    <EXPORT ORDINAL="985" NAME="?SeekCur@CByteStreamData@@QAEX_J@Z" PURGE="8" COMMENT="" />
    <EXPORT ORDINAL="986" NAME="?SeekEnd@CByteStream@@QAEX_J@Z" PURGE="8" COMMENT="" />
    <EXPORT ORDINAL="987" NAME="?SeekEnd@CByteStreamData@@QAEX_J@Z" PURGE="8" COMMENT="" />
    <EXPORT ORDINAL="988" NAME="?SeekToEnd@CCFile@@QAEXXZ" PURGE="0" COMMENT="" />
    <EXPORT ORDINAL="989" NAME="?SeekToEnd@CStream@@UAEXXZ" PURGE="0" COMMENT="" />
    <EXPORT ORDINAL="990" NAME="?SeekToEnd@CStream_Disk@@UAEXXZ" PURGE="0" COMMENT="" />
    <EXPORT ORDINAL="991" NAME="?SeekToEnd@CStream_Memory@@UAEXXZ" PURGE="0" COMMENT="" />
    <EXPORT ORDINAL="992" NAME="?SeekToEnd@CStream_RAM@@UAEXXZ" PURGE="0" COMMENT="" />
    <EXPORT ORDINAL="993" NAME="?SeekToEnd@CStream_XDF@@UAEXXZ" PURGE="0" COMMENT="" />
    <EXPORT ORDINAL="994" NAME="?Service@CByteStreamData@@QAEXXZ" PURGE="0" COMMENT="" />
    <EXPORT ORDINAL="995" NAME="?Service@CByteStreamDrive@@QAE_NPAVCByteStreamData@@@Z" PURGE="4" COMMENT="" />
    <EXPORT ORDINAL="996" NAME="?Service@CByteStreamManager@@QAEXXZ" PURGE="0" COMMENT="" />
    <EXPORT ORDINAL="997" NAME="?ServiceDrives@CByteStreamManager@@QAE_N_N@Z" PURGE="4" COMMENT="" />
    <EXPORT ORDINAL="998" NAME="?ServicePrecache@CByteStreamData@@QAEXXZ" PURGE="0" COMMENT="" />
    <EXPORT ORDINAL="999" NAME="?SetCacheNum@CByteStreamDrive@@QAEXJ@Z" PURGE="4" COMMENT="" />
    <EXPORT ORDINAL="1000" NAME="?SetCacheNumber_Default@CByteStream@@SAXJ@Z" PURGE="0" COMMENT="" />
    <EXPORT ORDINAL="1001" NAME="?SetCacheNumber_Drive@CByteStream@@SAXPBDJ@Z" PURGE="0" COMMENT="" />
    <EXPORT ORDINAL="1002" NAME="?SetCacheSize@CByteStreamDrive@@QAEXJ@Z" PURGE="4" COMMENT="" />
    <EXPORT ORDINAL="1003" NAME="?SetCacheSize@CCacheMem@@QAEXJJ@Z" PURGE="8" COMMENT="" />
    <EXPORT ORDINAL="1004" NAME="?SetCacheSize_Default@CByteStream@@SAXJ@Z" PURGE="0" COMMENT="" />
    <EXPORT ORDINAL="1005" NAME="?SetCacheSize_Dirve@CByteStream@@SAXPBDJ@Z" PURGE="0" COMMENT="" />
    <EXPORT ORDINAL="1006" NAME="?SetCompress@CHuffman@@UAEXAAVCCompressSettings@@@Z" PURGE="4" COMMENT="" />
    <EXPORT ORDINAL="1007" NAME="?SetCompress@CLZSS@@UAEXAAVCCompressSettings@@@Z" PURGE="4" COMMENT="" />
    <EXPORT ORDINAL="1008" NAME="?SetCompress@CLZW@@UAEXAAVCCompressSettings@@@Z" PURGE="4" COMMENT="" />
    <EXPORT ORDINAL="1009" NAME="?SetDefaultCacheNum@CByteStreamManager@@QAEXJ@Z" PURGE="4" COMMENT="" />
    <EXPORT ORDINAL="1010" NAME="?SetDefaultCacheSize@CByteStreamManager@@QAEXJ@Z" PURGE="4" COMMENT="" />
    <EXPORT ORDINAL="1011" NAME="?SetDriveCacheNum@CByteStreamManager@@QAEXPBDJ@Z" PURGE="8" COMMENT="" />
    <EXPORT ORDINAL="1012" NAME="?SetDriveCacheSize@CByteStreamManager@@QAEXPBDJ@Z" PURGE="8" COMMENT="" />
    <EXPORT ORDINAL="1013" NAME="?SetFileName@CLogFile@@UAEXABVCStr@@_N@Z" PURGE="8" COMMENT="" />
    <EXPORT ORDINAL="1014" NAME="?SetGlobalAlignment@CDA_MemoryManager@@QAEXH@Z" PURGE="4" COMMENT="" />
    <EXPORT ORDINAL="1015" NAME="?SetGlobalFlags@CListVectorCore@@SAXH@Z" PURGE="0" COMMENT="" />
    <EXPORT ORDINAL="1016" NAME="?SetHuffman@CLZSSSettings@@QAEX_N@Z" PURGE="4" COMMENT="" />
    <EXPORT ORDINAL="1017" NAME="?SetInputSize@CHuffmanSettings@@QAEXE@Z" PURGE="4" COMMENT="" />
    <EXPORT ORDINAL="1018" NAME="?SetKeyValue@CKeyContainer@@QAEXHVCStr@@@Z" PURGE="12" COMMENT="" />
    <EXPORT ORDINAL="1019" NAME="?SetLastCacheLine@CByteStreamData@@QAEXPAVCByteStreamCacheLine@@@Z" PURGE="4" COMMENT="" />
    <EXPORT ORDINAL="1020" NAME="?SetList@CDA_LinkedListIterator@@QAEXPAVCDA_LinkedList@@@Z" PURGE="4" COMMENT="" />
    <EXPORT ORDINAL="1021" NAME="?SetList@CDA_LinkedListIterator_Small@@QAEXPAVCDA_LinkedList_Small@@@Z" PURGE="4" COMMENT="" />
    <EXPORT ORDINAL="1022" NAME="?SetMaxMatchLength@CLZSSSettings@@QAEXG@Z" PURGE="4" COMMENT="" />
    <EXPORT ORDINAL="1023" NAME="?SetMaximumBits@CLZWSettings@@QAEXE@Z" PURGE="4" COMMENT="" />
    <EXPORT ORDINAL="1024" NAME="?SetMaximumBits@CLZW_GIFSettings@@QAEXE@Z" PURGE="4" COMMENT="" />
    <EXPORT ORDINAL="1025" NAME="?SetMinimumBits@CLZWSettings@@QAEXE@Z" PURGE="4" COMMENT="" />
    <EXPORT ORDINAL="1026" NAME="?SetOperating@CByteStreamCacheLine@@QAEX_N@Z" PURGE="4" COMMENT="" />
    <EXPORT ORDINAL="1027" NAME="?SetPending@CByteStreamCacheLine@@QAEX_N@Z" PURGE="4" COMMENT="" />
    <EXPORT ORDINAL="1028" NAME="?SetPrevTreaable@CDA_AVLTreeableMember@@QAEXPAV1@@Z" PURGE="4" COMMENT="" />
    <EXPORT ORDINAL="1029" NAME="?SetPriority@CByteStream@@QAEXM@Z" PURGE="4" COMMENT="" />
    <EXPORT ORDINAL="1030" NAME="?SetPriority@CByteStreamData@@QAEXM@Z" PURGE="4" COMMENT="" />
    <EXPORT ORDINAL="1031" NAME="?SetPriority@CCFile@@QAEXM@Z" PURGE="4" COMMENT="" />
    <EXPORT ORDINAL="1032" NAME="?SetPriority@CStream@@UAEXM@Z" PURGE="4" COMMENT="" />
    <EXPORT ORDINAL="1033" NAME="?SetPriority@CStream_Disk@@UAEXM@Z" PURGE="4" COMMENT="" />
    <EXPORT ORDINAL="1034" NAME="?SetRequest@CAsyncRequest@@QAEXPAX_JI_N@Z" PURGE="20" COMMENT="" />
    <EXPORT ORDINAL="1035" NAME="?SetWindowSize@CLZSSSettings@@QAEXK@Z" PURGE="4" COMMENT="" />
    <EXPORT ORDINAL="1036" NAME="?Shrink@CDA_Defraggable@@QAEXH@Z" PURGE="4" COMMENT="" />
    <EXPORT ORDINAL="1037" NAME="?Sort@CDA_LinkedList@@QAEXXZ" PURGE="0" COMMENT="" />
    <EXPORT ORDINAL="1038" NAME="?Sort@CDA_LinkedList_Small@@QAEXXZ" PURGE="0" COMMENT="" />
    <EXPORT ORDINAL="1039" NAME="?StringToHash@@YAKPBD@Z" PURGE="0" COMMENT="" />
    <EXPORT ORDINAL="1040" NAME="?Swap@CDA_AVLTree@@SAXPAVCDA_AVLTreeableMember@@0@Z" PURGE="0" COMMENT="" />
    <EXPORT ORDINAL="1041" NAME="?Swap@CDA_Link@CDA_LinkedList_Small@@QAEXPAV12@0@Z" PURGE="8" COMMENT="" />
    <EXPORT ORDINAL="1042" NAME="?Swap@CDA_Link@CDA_LinkedList_Small@@QAEXPAV12@@Z" PURGE="4" COMMENT="" />
    <EXPORT ORDINAL="1043" NAME="?Unlink@CDA_Link@CDA_LinkedList_Small@@QAEXXZ" PURGE="0" COMMENT="" />
    <EXPORT ORDINAL="1044" NAME="?UserBlockSize@CDA_MemoryManager@@QAEIPAUSDA_Defraggable@@@Z" PURGE="4" COMMENT="" />
    <EXPORT ORDINAL="1045" NAME="?ValidPos@CListVectorCore@@QBE_NH@Z" PURGE="4" COMMENT="" />
    <EXPORT ORDINAL="1046" NAME="?ValidateHeap@CDA_MemoryManager@@QAEXXZ" PURGE="0" COMMENT="" />
    <EXPORT ORDINAL="1047" NAME="?Write@CByteStream@@QAEXPBXI@Z" PURGE="8" COMMENT="" />
    <EXPORT ORDINAL="1048" NAME="?Write@CByteStream@@QAE_NPAVCAsyncRequest@@@Z" PURGE="4" COMMENT="" />
    <EXPORT ORDINAL="1049" NAME="?Write@CByteStreamCacheLine@@QAEXXZ" PURGE="0" COMMENT="" />
    <EXPORT ORDINAL="1050" NAME="?Write@CByteStreamData@@QAEXPBXI@Z" PURGE="8" COMMENT="" />
    <EXPORT ORDINAL="1051" NAME="?Write@CByteStreamData@@QAE_NPAVCAsyncRequest@@@Z" PURGE="4" COMMENT="" />
    <EXPORT ORDINAL="1052" NAME="?Write@CCFile@@QAEXE@Z" PURGE="4" COMMENT="" />
    <EXPORT ORDINAL="1053" NAME="?Write@CCFile@@QAEXPBXI@Z" PURGE="8" COMMENT="" />
    <EXPORT ORDINAL="1054" NAME="?Write@CCFile@@QAE_NPAVCAsyncRequest@@@Z" PURGE="-1" COMMENT="" />
    <EXPORT ORDINAL="1055" NAME="?Write@CDataFileNode2@@QAEXPAVCCFile@@_N@Z" PURGE="8" COMMENT="" />
    <EXPORT ORDINAL="1056" NAME="?Write@CDataFileNode@@QAEXPAVCCFile@@@Z" PURGE="4" COMMENT="" />
    <EXPORT ORDINAL="1057" NAME="?Write@CIDHeap@@QAEXPAVCCFile@@@Z" PURGE="4" COMMENT="" />
    <EXPORT ORDINAL="1058" NAME="?Write@CKeyContainer@@QBEXPAVCCFile@@@Z" PURGE="4" COMMENT="" />
    <EXPORT ORDINAL="1059" NAME="?Write@CStream@@UAEXPBXI@Z" PURGE="8" COMMENT="" />
    <EXPORT ORDINAL="1060" NAME="?Write@CStream@@UAE_NPAVCAsyncRequest@@@Z" PURGE="4" COMMENT="" />
    <EXPORT ORDINAL="1061" NAME="?Write@CStream_Disk@@UAEXPBXI@Z" PURGE="8" COMMENT="" />
    <EXPORT ORDINAL="1062" NAME="?Write@CStream_Disk@@UAE_NPAVCAsyncRequest@@@Z" PURGE="4" COMMENT="" />
    <EXPORT ORDINAL="1063" NAME="?Write@CStream_Memory@@UAEXPBXI@Z" PURGE="8" COMMENT="" />
    <EXPORT ORDINAL="1064" NAME="?Write@CStream_Memory@@UAE_NPAVCAsyncRequest@@@Z" PURGE="4" COMMENT="" />
    <EXPORT ORDINAL="1065" NAME="?Write@CStream_RAM@@UAEXPBXI@Z" PURGE="8" COMMENT="" />
    <EXPORT ORDINAL="1066" NAME="?Write@CStream_XDF@@UAEXPBXI@Z" PURGE="-1" COMMENT="" />
    <EXPORT ORDINAL="1067" NAME="?Write@CXDF@@QAEXPAVCCFile@@@Z" PURGE="4" COMMENT="" />
    <EXPORT ORDINAL="1068" NAME="?WriteBE@CCFile@@QAEXABC@Z" PURGE="4" COMMENT="" />
    <EXPORT ORDINAL="1069" NAME="?WriteBE@CCFile@@QAEXABE@Z" PURGE="4" COMMENT="" />
    <EXPORT ORDINAL="1070" NAME="?WriteBE@CCFile@@QAEXABF@Z" PURGE="4" COMMENT="" />
    <EXPORT ORDINAL="1071" NAME="?WriteBE@CCFile@@QAEXABG@Z" PURGE="4" COMMENT="" />
    <EXPORT ORDINAL="1072" NAME="?WriteBE@CCFile@@QAEXABJ@Z" PURGE="4" COMMENT="" />
    <EXPORT ORDINAL="1073" NAME="?WriteBE@CCFile@@QAEXABK@Z" PURGE="4" COMMENT="" />
    <EXPORT ORDINAL="1074" NAME="?WriteBE@CCFile@@QAEXABM@Z" PURGE="4" COMMENT="" />
    <EXPORT ORDINAL="1075" NAME="?WriteBE@CCFile@@QAEXABN@Z" PURGE="4" COMMENT="" />
    <EXPORT ORDINAL="1076" NAME="?WriteBE@CCFile@@QAEXAB_J@Z" PURGE="4" COMMENT="" />
    <EXPORT ORDINAL="1077" NAME="?WriteBE@CCFile@@QAEXAB_K@Z" PURGE="4" COMMENT="" />
    <EXPORT ORDINAL="1078" NAME="?WriteCacheLine@CByteStreamData@@QAEXPAVCByteStreamCacheLine@@@Z" PURGE="4" COMMENT="" />
    <EXPORT ORDINAL="1079" NAME="?WriteLE@CCFile@@QAEXABC@Z" PURGE="4" COMMENT="" />
    <EXPORT ORDINAL="1080" NAME="?WriteLE@CCFile@@QAEXABE@Z" PURGE="4" COMMENT="" />
    <EXPORT ORDINAL="1081" NAME="?WriteLE@CCFile@@QAEXABF@Z" PURGE="4" COMMENT="" />
    <EXPORT ORDINAL="1082" NAME="?WriteLE@CCFile@@QAEXABG@Z" PURGE="4" COMMENT="" />
    <EXPORT ORDINAL="1083" NAME="?WriteLE@CCFile@@QAEXABJ@Z" PURGE="4" COMMENT="" />
    <EXPORT ORDINAL="1084" NAME="?WriteLE@CCFile@@QAEXABK@Z" PURGE="4" COMMENT="" />
    <EXPORT ORDINAL="1085" NAME="?WriteLE@CCFile@@QAEXABM@Z" PURGE="4" COMMENT="" />
    <EXPORT ORDINAL="1086" NAME="?WriteLE@CCFile@@QAEXABN@Z" PURGE="4" COMMENT="" />
    <EXPORT ORDINAL="1087" NAME="?WriteLE@CCFile@@QAEXAB_J@Z" PURGE="4" COMMENT="" />
    <EXPORT ORDINAL="1088" NAME="?WriteLE@CCFile@@QAEXAB_K@Z" PURGE="4" COMMENT="" />
    <EXPORT ORDINAL="1089" NAME="?WriteLE@CCFile@@QAEXPBCH@Z" PURGE="8" COMMENT="" />
    <EXPORT ORDINAL="1090" NAME="?WriteLE@CCFile@@QAEXPBEH@Z" PURGE="8" COMMENT="" />
    <EXPORT ORDINAL="1091" NAME="?WriteLE@CCFile@@QAEXPBFH@Z" PURGE="8" COMMENT="" />
    <EXPORT ORDINAL="1092" NAME="?WriteLE@CCFile@@QAEXPBGH@Z" PURGE="8" COMMENT="" />
    <EXPORT ORDINAL="1093" NAME="?WriteLE@CCFile@@QAEXPBJH@Z" PURGE="8" COMMENT="" />
    <EXPORT ORDINAL="1094" NAME="?WriteLE@CCFile@@QAEXPBKH@Z" PURGE="8" COMMENT="" />
    <EXPORT ORDINAL="1095" NAME="?WriteLE@CCFile@@QAEXPBMH@Z" PURGE="8" COMMENT="" />
    <EXPORT ORDINAL="1096" NAME="?WriteLE@CCFile@@QAEXPBNH@Z" PURGE="8" COMMENT="" />
    <EXPORT ORDINAL="1097" NAME="?WriteToDataFile@CKeyContainerNode@@QAEXPAVCDataFile@@@Z" PURGE="4" COMMENT="" />
    <EXPORT ORDINAL="1098" NAME="?WriteToScript@CKeyContainerNode@@QAEXPAVCCFile@@H_N@Z" PURGE="12" COMMENT="" />
    <EXPORT ORDINAL="1099" NAME="?WriteToScript@CKeyContainerNode@@QAEXVCStr@@@Z" PURGE="8" COMMENT="" />
    <EXPORT ORDINAL="1100" NAME="?WriteTreeData_r@CDataFile@@AAEXPAVCDF_Node@@@Z" PURGE="4" COMMENT="" />
    <EXPORT ORDINAL="1101" NAME="?WriteTreeHelper@CDataFile@@AAEXPAVCDF_Node@@@Z" PURGE="4" COMMENT="" />
    <EXPORT ORDINAL="1102" NAME="?WriteTreeHelperPretend_r@CDataFile@@AAEXPAVCDF_Node@@AAH@Z" PURGE="8" COMMENT="" />
    <EXPORT ORDINAL="1103" NAME="?WriteTreeHelper_r@CDataFile@@AAEXPAVCDF_Node@@PAVCCFile@@@Z" PURGE="8" COMMENT="" />
    <EXPORT ORDINAL="1104" NAME="?WriteTree_r@CDataFile@@AAEXPAVCDF_Node@@@Z" PURGE="4" COMMENT="" />
    <EXPORT ORDINAL="1105" NAME="?Writeln@CCFile@@QAEXPBD@Z" PURGE="4" COMMENT="" />
    <EXPORT ORDINAL="1106" NAME="?Writeln@CCFile@@QAEXPBG@Z" PURGE="4" COMMENT="" />
    <EXPORT ORDINAL="1107" NAME="?Writeln@CCFile@@QAEXVCStr@@@Z" PURGE="8" COMMENT="" />
    <EXPORT ORDINAL="1108" NAME="?XDF_Destruct@CByteStreamManager@@QAEXXZ" PURGE="0" COMMENT="" />
    <EXPORT ORDINAL="1109" NAME="?XDF_GetCurrent@CByteStream@@SA?AVCStr@@XZ" PURGE="0" COMMENT="" />
    <EXPORT ORDINAL="1110" NAME="?XDF_GetCurrent@CByteStreamManager@@QAE?AVCStr@@XZ" PURGE="4" COMMENT="" />
    <EXPORT ORDINAL="1111" NAME="?XDF_GetCurrent@CDiskUtil@@SA?AVCStr@@XZ" PURGE="0" COMMENT="" />
    <EXPORT ORDINAL="1112" NAME="?XDF_GetPosition@CByteStream@@SA_JXZ" PURGE="0" COMMENT="" />
    <EXPORT ORDINAL="1113" NAME="?XDF_GetPosition@CByteStreamManager@@QAE_JXZ" PURGE="0" COMMENT="" />
    <EXPORT ORDINAL="1114" NAME="?XDF_GetPosition@CDiskUtil@@SAHXZ" PURGE="0" COMMENT="" />
    <EXPORT ORDINAL="1115" NAME="?XDF_GetRecord@CByteStream@@SAPAVCXDF@@XZ" PURGE="0" COMMENT="" />
    <EXPORT ORDINAL="1116" NAME="?XDF_GetRecord@CByteStreamManager@@QAEPAVCXDF@@XZ" PURGE="0" COMMENT="" />
    <EXPORT ORDINAL="1117" NAME="?XDF_GetUse@CByteStream@@SAPAVCXDF@@XZ" PURGE="0" COMMENT="" />
    <EXPORT ORDINAL="1118" NAME="?XDF_GetUse@CByteStreamManager@@QAEPAVCXDF@@XZ" PURGE="0" COMMENT="" />
    <EXPORT ORDINAL="1119" NAME="?XDF_Record@CByteStream@@SAXPBD0@Z" PURGE="0" COMMENT="" />
    <EXPORT ORDINAL="1120" NAME="?XDF_Record@CByteStreamManager@@QAEXPBD0@Z" PURGE="8" COMMENT="" />
    <EXPORT ORDINAL="1121" NAME="?XDF_Record@CDiskUtil@@SAXPBD0@Z" PURGE="0" COMMENT="" />
    <EXPORT ORDINAL="1122" NAME="?XDF_Stop@CByteStream@@SAXXZ" PURGE="0" COMMENT="" />
    <EXPORT ORDINAL="1123" NAME="?XDF_Stop@CByteStreamManager@@QAEXXZ" PURGE="0" COMMENT="" />
    <EXPORT ORDINAL="1124" NAME="?XDF_Stop@CDiskUtil@@SAXXZ" PURGE="0" COMMENT="" />
    <EXPORT ORDINAL="1125" NAME="?XDF_Use@CByteStream@@SAXPBD0@Z" PURGE="0" COMMENT="" />
    <EXPORT ORDINAL="1126" NAME="?XDF_Use@CByteStreamManager@@QAEXPBD0@Z" PURGE="8" COMMENT="" />
    <EXPORT ORDINAL="1127" NAME="?XDF_Use@CDiskUtil@@SAXPBD0@Z" PURGE="0" COMMENT="" />
    <EXPORT ORDINAL="1128" NAME="?finvsqrt@CMathAccel@@QBEMM@Z" PURGE="4" COMMENT="" />
    <EXPORT ORDINAL="1129" NAME="?fsqrt@CMathAccel@@QBEMM@Z" PURGE="4" COMMENT="" />
    <EXPORT ORDINAL="1130" NAME="?g_CRCTable@@3VCMDA_CRC32CheckerTable@@A" PURGE="-1" COMMENT="" />
    <EXPORT ORDINAL="1131" NAME="?m_GlobalFlags@CListVectorCore@@2HA" PURGE="-1" COMMENT="" />
    <EXPORT ORDINAL="1132" NAME="?m_RuntimeClass@CLogFile@@2VMRTC_CRuntimeClass@@A" PURGE="-1" COMMENT="" />
    <EXPORT ORDINAL="1133" NAME="DllMain" PURGE="12" COMMENT="" />
</LIBRARY>

