<?xml version="1.0" encoding="UTF-8"?>
<LIBRARY NAME="memory.dll" PATH="/DLLArchive/etc/Memory.dll" DATE="Fri Jul 03 12:49:53 PDT 2020" VERSION="1, 0, 0, 0">
    <EXPORT ORDINAL="1" NAME="??0MemPoolSmall@@QAE@ABV0@@Z" PURGE="4" COMMENT="" />
    <EXPORT ORDINAL="2" NAME="??0MemPoolSmall@@QAE@PBD@Z" PURGE="4" COMMENT="" />
    <EXPORT ORDINAL="3" NAME="??0MemoryPoolObj@@QAE@ABV0@@Z" PURGE="4" COMMENT="" />
    <EXPORT ORDINAL="4" NAME="??0MemoryPoolObj@@QAE@PBDI@Z" PURGE="8" COMMENT="" />
    <EXPORT ORDINAL="5" NAME="??1MemPoolSmall@@QAE@XZ" PURGE="0" COMMENT="" />
    <EXPORT ORDINAL="6" NAME="??1MemoryPoolObj@@QAE@XZ" PURGE="0" COMMENT="" />
    <EXPORT ORDINAL="7" NAME="??4MemPoolSmall@@QAEAAV0@ABV0@@Z" PURGE="4" COMMENT="" />
    <EXPORT ORDINAL="8" NAME="??4MemoryPoolObj@@QAEAAV0@ABV0@@Z" PURGE="4" COMMENT="" />
    <EXPORT ORDINAL="9" NAME="?Alloc@MemPoolSmall@@QAEPAXI@Z" PURGE="4" COMMENT="" />
    <EXPORT ORDINAL="10" NAME="?Free@MemPoolSmall@@QAEXPAXI@Z" PURGE="8" COMMENT="" />
    <EXPORT ORDINAL="11" NAME="?Handle@MemoryPoolObj@@QAEPAU_HMEMPOOL@@XZ" PURGE="0" COMMENT="" />
    <EXPORT ORDINAL="12" NAME="?MemAddIgnoreFileLine@@YGXPBDK@Z" PURGE="8" COMMENT="" />
    <EXPORT ORDINAL="13" NAME="?MemCBAlloc@@YGXP6GXABQAU_HMEMPOOL@@ABUMEMBLOCKINFO@@@Z@Z" PURGE="4" COMMENT="" />
    <EXPORT ORDINAL="14" NAME="?MemCRTAlloc@@YGPAXIH@Z" PURGE="8" COMMENT="" />
    <EXPORT ORDINAL="15" NAME="?MemCRTFree@@YGXPAXH@Z" PURGE="8" COMMENT="" />
    <EXPORT ORDINAL="16" NAME="?MemConvertAddress@@YG?AW4MEMCONVERTADDRESSRESULT@@JQAD@Z" PURGE="8" COMMENT="" />
    <EXPORT ORDINAL="17" NAME="?MemPoolAlloc@@YGPAXPAU_HMEMPOOL@@I@Z" PURGE="8" COMMENT="" />
    <EXPORT ORDINAL="18" NAME="?MemPoolCount@@YGIXZ" PURGE="0" COMMENT="" />
    <EXPORT ORDINAL="19" NAME="?MemPoolCreate@@YGPAU_HMEMPOOL@@PBDI@Z" PURGE="8" COMMENT="" />
    <EXPORT ORDINAL="20" NAME="?MemPoolDefault@@YGPAU_HMEMPOOL@@XZ" PURGE="0" COMMENT="" />
    <EXPORT ORDINAL="21" NAME="?MemPoolDestroy@@YGXPAU_HMEMPOOL@@@Z" PURGE="4" COMMENT="" />
    <EXPORT ORDINAL="22" NAME="?MemPoolFree@@YGXPAU_HMEMPOOL@@PAX@Z" PURGE="8" COMMENT="" />
    <EXPORT ORDINAL="23" NAME="?MemPoolList@@YGIQAPAU_HMEMPOOL@@I@Z" PURGE="8" COMMENT="" />
    <EXPORT ORDINAL="24" NAME="?MemPoolLock@@YGXPAU_HMEMPOOL@@@Z" PURGE="4" COMMENT="" />
    <EXPORT ORDINAL="25" NAME="?MemPoolName@@YGPBDPAU_HMEMPOOL@@@Z" PURGE="4" COMMENT="" />
    <EXPORT ORDINAL="26" NAME="?MemPoolSize@@YGXPAU_HMEMPOOL@@AAI1@Z" PURGE="12" COMMENT="" />
    <EXPORT ORDINAL="27" NAME="?MemPoolSnapshot@@YGPAU_HMEMPOOLSHOT@@PAU_HMEMPOOL@@@Z" PURGE="4" COMMENT="" />
    <EXPORT ORDINAL="28" NAME="?MemPoolSnapshotDestroy@@YGXPAU_HMEMPOOLSHOT@@@Z" PURGE="4" COMMENT="" />
    <EXPORT ORDINAL="29" NAME="?MemPoolUnlock@@YGXPAU_HMEMPOOL@@@Z" PURGE="4" COMMENT="" />
    <EXPORT ORDINAL="30" NAME="?MemPoolValidate@@YGXPAU_HMEMPOOL@@@Z" PURGE="4" COMMENT="" />
    <EXPORT ORDINAL="31" NAME="?MemPoolWalkDestroy@@YGXPAU_HMEMPOOLWALK@@@Z" PURGE="4" COMMENT="" />
    <EXPORT ORDINAL="32" NAME="?MemPoolWalkFirst@@YGPAU_HMEMPOOLWALK@@PAU_HMEMPOOLSHOT@@AAUMEMBLOCKINFO@@@Z" PURGE="8" COMMENT="" />
    <EXPORT ORDINAL="33" NAME="?MemPoolWalkNext@@YG_NPAU_HMEMPOOLWALK@@AAUMEMBLOCKINFO@@@Z" PURGE="8" COMMENT="" />
    <EXPORT ORDINAL="34" NAME="?MemRemIgnoreFileLine@@YGXPBDK@Z" PURGE="8" COMMENT="" />
    <EXPORT ORDINAL="35" NAME="?MemSize@@YGXAAI0@Z" PURGE="8" COMMENT="" />
    <EXPORT ORDINAL="36" NAME="?MemStringAlloc@@YGPAXII@Z" PURGE="8" COMMENT="" />
    <EXPORT ORDINAL="37" NAME="?MemStringFree@@YGXPAX@Z" PURGE="4" COMMENT="" />
    <EXPORT ORDINAL="38" NAME="?MemVMDumpPool@@YGXPBD0@Z" PURGE="8" COMMENT="" />
    <EXPORT ORDINAL="39" NAME="?MemVMMap@@YGHPBD@Z" PURGE="4" COMMENT="" />
    <EXPORT ORDINAL="40" NAME="?MemVMShrink@@YGXXZ" PURGE="0" COMMENT="" />
    <EXPORT ORDINAL="41" NAME="?MemWriteLeakFile@@YGXPBD@Z" PURGE="4" COMMENT="" />
    <EXPORT ORDINAL="42" NAME="?REPORT@MPeekBlock@@2PBDB" PURGE="-1" COMMENT="" />
    <EXPORT ORDINAL="43" NAME="?REPORT@MPeekHeap@@2PBDB" PURGE="-1" COMMENT="" />
    <EXPORT ORDINAL="44" NAME="?REPORT@MPeekHeapEntry@@2PBDB" PURGE="-1" COMMENT="" />
    <EXPORT ORDINAL="45" NAME="?REPORT@MPeekHeapRegion@@2PBDB" PURGE="-1" COMMENT="" />
    <EXPORT ORDINAL="46" NAME="?REPORT@MPeekPool@@2PBDB" PURGE="-1" COMMENT="" />
    <EXPORT ORDINAL="47" NAME="?REPORT@MPeekRegion@@2PBDB" PURGE="-1" COMMENT="" />
    <EXPORT ORDINAL="48" NAME="?REPORT@MPeekSmallChunk@@2PBDB" PURGE="-1" COMMENT="" />
    <EXPORT ORDINAL="49" NAME="?REPORT@MPeekWSPage@@2PBDB" PURGE="-1" COMMENT="" />
    <EXPORT ORDINAL="50" NAME="?Release@MemoryPoolObj@@AAEXXZ" PURGE="0" COMMENT="" />
    <EXPORT ORDINAL="51" NAME="?Shrink@MemPoolSmall@@QAEXXZ" PURGE="0" COMMENT="" />
    <EXPORT ORDINAL="52" NAME="?freeOverloaded@@YGXPAX@Z" PURGE="4" COMMENT="" />
    <EXPORT ORDINAL="53" NAME="?freeString@@YGXPAX@Z" PURGE="4" COMMENT="" />
    <EXPORT ORDINAL="54" NAME="?mallocOverloaded@@YGPAXI@Z" PURGE="4" COMMENT="" />
    <EXPORT ORDINAL="55" NAME="?mallocString@@YGPAXII@Z" PURGE="8" COMMENT="" />
    <EXPORT ORDINAL="56" NAME="?mmFormatAllocation@@YGPBDABQAU_HMEMPOOL@@ABUMEMBLOCKINFO@@I@Z" PURGE="12" COMMENT="" />
    <EXPORT ORDINAL="57" NAME="?mmWriteHeap@@YGXPBDK@Z" PURGE="8" COMMENT="" />
    <EXPORT ORDINAL="58" NAME="?mmWritePoolAppend@@YGXABQAU_HMEMPOOL@@PBDK@Z" PURGE="12" COMMENT="" />
</LIBRARY>

