<?xml version="1.0" encoding="UTF-8"?>
<LIBRARY NAME="mgsimcommon.dll" PATH="/DLLArchive/etc/mgsimcommon.dll" DATE="Fri Jul 03 21:51:06 CEST 2020" VERSION="3, 7, 0, 7">
    <EXPORT ORDINAL="1" NAME="??0CBasicIEDialog@@QAE@AAUSTRUCT_BASIC_IE_DIALOG_CREATE_DATA@@V?$basic_string@GU?$char_traits@G@std@@V?$allocator@G@2@@std@@@Z" PURGE="32" COMMENT="" />
    <EXPORT ORDINAL="2" NAME="??0CBasicIEDialog@@QAE@ABV0@@Z" PURGE="4" COMMENT="" />
    <EXPORT ORDINAL="3" NAME="??0CSIMAppID@@AAE@XZ" PURGE="0" COMMENT="" />
    <EXPORT ORDINAL="4" NAME="??0CSIMAppIDOld@@AAE@XZ" PURGE="0" COMMENT="" />
    <EXPORT ORDINAL="5" NAME="??0STRUCT_BASIC_IE_DIALOG_CREATE_DATA@@QAE@ABU0@@Z" PURGE="4" COMMENT="" />
    <EXPORT ORDINAL="6" NAME="??0STRUCT_BASIC_IE_DIALOG_CREATE_DATA@@QAE@XZ" PURGE="0" COMMENT="" />
    <EXPORT ORDINAL="7" NAME="??1CBasicIEDialog@@UAE@XZ" PURGE="0" COMMENT="" />
    <EXPORT ORDINAL="8" NAME="??1CSIMAppID@@AAE@XZ" PURGE="0" COMMENT="" />
    <EXPORT ORDINAL="9" NAME="??1CSIMAppIDOld@@AAE@XZ" PURGE="0" COMMENT="" />
    <EXPORT ORDINAL="10" NAME="??1STRUCT_BASIC_IE_DIALOG_CREATE_DATA@@QAE@XZ" PURGE="0" COMMENT="" />
    <EXPORT ORDINAL="11" NAME="??4CBasicIEDialog@@QAEAAV0@ABV0@@Z" PURGE="4" COMMENT="" />
    <EXPORT ORDINAL="12" NAME="??4CReferralSupport@@QAEAAV0@ABV0@@Z" PURGE="4" COMMENT="" />
    <EXPORT ORDINAL="13" NAME="??4CSIMAppID@@QAEAAV0@ABV0@@Z" PURGE="4" COMMENT="" />
    <EXPORT ORDINAL="14" NAME="??4CSIMAppIDOld@@QAEAAV0@ABV0@@Z" PURGE="4" COMMENT="" />
    <EXPORT ORDINAL="15" NAME="??4STRUCT_BASIC_IE_DIALOG_CREATE_DATA@@QAEAAU0@ABU0@@Z" PURGE="4" COMMENT="" />
    <EXPORT ORDINAL="16" NAME="??_7CBasicIEDialog@@6B@" PURGE="-1" COMMENT="" />
    <EXPORT ORDINAL="17" NAME="?DeleteLastUserSelection@@YGHW4_ENUM_USER_SELECTION@@@Z" PURGE="4" COMMENT="" />
    <EXPORT ORDINAL="18" NAME="?DialogWindowProc@CBasicIEDialog@@SGJPAUHWND__@@IIJ@Z" PURGE="16" COMMENT="" />
    <EXPORT ORDINAL="19" NAME="?ExternalProcCloseBrowserByType@CBasicIEDialog@@CG?AUtagVARIANT@@PAG0PAX@Z" PURGE="16" COMMENT="" />
    <EXPORT ORDINAL="20" NAME="?ExternalProcFlashFSCommand@CBasicIEDialog@@CG?AUtagVARIANT@@PAG0PAX@Z" PURGE="16" COMMENT="" />
    <EXPORT ORDINAL="21" NAME="?ExternalProcIECloseDialog@CBasicIEDialog@@CG?AUtagVARIANT@@PAG0PAX@Z" PURGE="16" COMMENT="" />
    <EXPORT ORDINAL="22" NAME="?ExternalProcIENewWinEnable@CBasicIEDialog@@CG?AUtagVARIANT@@PAG0PAX@Z" PURGE="16" COMMENT="" />
    <EXPORT ORDINAL="23" NAME="?ExternalProcIESetDialogSizeAndPos@CBasicIEDialog@@CG?AUtagVARIANT@@PAG0PAX@Z" PURGE="16" COMMENT="" />
    <EXPORT ORDINAL="24" NAME="?ExternalProcIsBrowserOpenByType@CBasicIEDialog@@CG?AUtagVARIANT@@PAG0PAX@Z" PURGE="16" COMMENT="" />
    <EXPORT ORDINAL="25" NAME="?ExternalProcMessageBox@CBasicIEDialog@@CG?AUtagVARIANT@@PAG0PAX@Z" PURGE="16" COMMENT="" />
    <EXPORT ORDINAL="26" NAME="?ExternalProcSIMActivatePackagesCmd@CBasicIEDialog@@CG?AUtagVARIANT@@PAG0PAX@Z" PURGE="16" COMMENT="" />
    <EXPORT ORDINAL="27" NAME="?ExternalProcSIMConfigCmd@CBasicIEDialog@@CG?AUtagVARIANT@@PAG0PAX@Z" PURGE="16" COMMENT="" />
    <EXPORT ORDINAL="28" NAME="?ExternalProcSIMConfigSearchCmd@CBasicIEDialog@@CG?AUtagVARIANT@@PAG0PAX@Z" PURGE="16" COMMENT="" />
    <EXPORT ORDINAL="29" NAME="?ExternalProcSIMGetSIMAppId@CBasicIEDialog@@CG?AUtagVARIANT@@PAG0PAX@Z" PURGE="16" COMMENT="" />
    <EXPORT ORDINAL="30" NAME="?ExternalProcSIMGetSession@CBasicIEDialog@@CG?AUtagVARIANT@@PAG0PAX@Z" PURGE="16" COMMENT="" />
    <EXPORT ORDINAL="31" NAME="?FFGetDefaultSearchProviderName@@YAHAAV?$basic_string@GU?$char_traits@G@std@@V?$allocator@G@2@@std@@@Z" PURGE="-1" COMMENT="" />
    <EXPORT ORDINAL="32" NAME="?FFGetDefaultSearchProviderURL@@YAHAAV?$basic_string@GU?$char_traits@G@std@@V?$allocator@G@2@@std@@@Z" PURGE="-1" COMMENT="" />
    <EXPORT ORDINAL="33" NAME="?FFGetHomePage@@YAHAAV?$basic_string@GU?$char_traits@G@std@@V?$allocator@G@2@@std@@@Z" PURGE="-1" COMMENT="" />
    <EXPORT ORDINAL="34" NAME="?FFIsURLlValidForXML@@YAHABV?$basic_string@GU?$char_traits@G@std@@V?$allocator@G@2@@std@@@Z" PURGE="-1" COMMENT="" />
    <EXPORT ORDINAL="35" NAME="?FFSetDefaultSearchProvider@@YAHPBG0HHAAI@Z" PURGE="0" COMMENT="" />
    <EXPORT ORDINAL="36" NAME="?FFSetDefaultSearchProvider@@YAHPBGV?$vector@V?$basic_string@GU?$char_traits@G@std@@V?$allocator@G@2@@std@@V?$allocator@V?$basic_string@GU?$char_traits@G@std@@V?$allocator@G@2@@std@@@2@@std@@HHAAI@Z" PURGE="0" COMMENT="" />
    <EXPORT ORDINAL="37" NAME="?FFSetDefaultSearchProviderOld@@YAHPBGHH@Z" PURGE="0" COMMENT="" />
    <EXPORT ORDINAL="38" NAME="?FFSetHomePage@@YAHPBG0HHAAI@Z" PURGE="0" COMMENT="" />
    <EXPORT ORDINAL="39" NAME="?FFSetHomePage@@YAHPBGV?$vector@V?$basic_string@GU?$char_traits@G@std@@V?$allocator@G@2@@std@@V?$allocator@V?$basic_string@GU?$char_traits@G@std@@V?$allocator@G@2@@std@@@2@@std@@HHAAI@Z" PURGE="0" COMMENT="" />
    <EXPORT ORDINAL="40" NAME="?FFSetHomePageOld@@YAHPBGHH@Z" PURGE="0" COMMENT="" />
    <EXPORT ORDINAL="41" NAME="?FFValidateURLForXML@@YA?AV?$basic_string@GU?$char_traits@G@std@@V?$allocator@G@2@@std@@ABV12@@Z" PURGE="0" COMMENT="" />
    <EXPORT ORDINAL="42" NAME="?GCGetDefaultSearchProvider@@YAHABV?$basic_string@GU?$char_traits@G@std@@V?$allocator@G@2@@std@@AAV12@@Z" PURGE="0" COMMENT="" />
    <EXPORT ORDINAL="43" NAME="?GCGetHomePage@@YAHAAV?$basic_string@GU?$char_traits@G@std@@V?$allocator@G@2@@std@@@Z" PURGE="-1" COMMENT="" />
    <EXPORT ORDINAL="44" NAME="?GCGetOnStartupSepcificPages@@YAHAAV?$vector@V?$basic_string@GU?$char_traits@G@std@@V?$allocator@G@2@@std@@V?$allocator@V?$basic_string@GU?$char_traits@G@std@@V?$allocator@G@2@@std@@@2@@std@@@Z" PURGE="-1" COMMENT="" />
    <EXPORT ORDINAL="45" NAME="?GCGetOnStartupType@@YAHAAK@Z" PURGE="-1" COMMENT="" />
    <EXPORT ORDINAL="46" NAME="?GCGetSweetIMDefaultHomePage@@YAHPBGAAV?$basic_string@GU?$char_traits@G@std@@V?$allocator@G@2@@std@@@Z" PURGE="0" COMMENT="" />
    <EXPORT ORDINAL="47" NAME="?GCGetSweetIMDefaultSearchProvider@@YAHPBGAAV?$basic_string@GU?$char_traits@G@std@@V?$allocator@G@2@@std@@@Z" PURGE="0" COMMENT="" />
    <EXPORT ORDINAL="48" NAME="?GCSetDefaultSearchProvider@@YAHPBG00HHAAI@Z" PURGE="0" COMMENT="" />
    <EXPORT ORDINAL="49" NAME="?GCSetDefaultSearchProvider@@YAHPBG0V?$vector@V?$basic_string@GU?$char_traits@G@std@@V?$allocator@G@2@@std@@V?$allocator@V?$basic_string@GU?$char_traits@G@std@@V?$allocator@G@2@@std@@@2@@std@@HHAAI@Z" PURGE="0" COMMENT="" />
    <EXPORT ORDINAL="50" NAME="?GCSetDefaultSearchProviderForceSetOld@@YAHABV?$basic_string@GU?$char_traits@G@std@@V?$allocator@G@2@@std@@PBGH@Z" PURGE="0" COMMENT="" />
    <EXPORT ORDINAL="51" NAME="?GCSetDefaultSearchProviderOld@@YAHABV?$basic_string@GU?$char_traits@G@std@@V?$allocator@G@2@@std@@PBGH@Z" PURGE="0" COMMENT="" />
    <EXPORT ORDINAL="52" NAME="?GCSetHomePage@@YAHPBG0HHAAI@Z" PURGE="0" COMMENT="" />
    <EXPORT ORDINAL="53" NAME="?GCSetHomePage@@YAHPBGV?$vector@V?$basic_string@GU?$char_traits@G@std@@V?$allocator@G@2@@std@@V?$allocator@V?$basic_string@GU?$char_traits@G@std@@V?$allocator@G@2@@std@@@2@@std@@HHAAI@Z" PURGE="0" COMMENT="" />
    <EXPORT ORDINAL="54" NAME="?GCSetHomePageForceSetOld@@YAHPBGH@Z" PURGE="0" COMMENT="" />
    <EXPORT ORDINAL="55" NAME="?GCSetHomePageOld@@YAHPBGH@Z" PURGE="0" COMMENT="" />
    <EXPORT ORDINAL="56" NAME="?GCSetOnStartupToOpenSepcificPage@@YAHHV?$basic_string@GU?$char_traits@G@std@@V?$allocator@G@2@@std@@@Z" PURGE="0" COMMENT="" />
    <EXPORT ORDINAL="57" NAME="?GCUnitTestOverridePreferancesFile@@YAHV?$basic_string@GU?$char_traits@G@std@@V?$allocator@G@2@@std@@@Z" PURGE="0" COMMENT="" />
    <EXPORT ORDINAL="58" NAME="?GetLastUserSelection@@YGHW4_ENUM_USER_SELECTION@@AAH@Z" PURGE="8" COMMENT="" />
    <EXPORT ORDINAL="59" NAME="?GetSIMAppID@@YAHAAV?$basic_string@GU?$char_traits@G@std@@V?$allocator@G@2@@std@@@Z" PURGE="0" COMMENT="" />
    <EXPORT ORDINAL="60" NAME="?GetSIMAppIDFromRegistry@@YAHAAV?$basic_string@GU?$char_traits@G@std@@V?$allocator@G@2@@std@@@Z" PURGE="0" COMMENT="" />
    <EXPORT ORDINAL="61" NAME="?GetSIMAppIDFromUserConfigUtil@@YAHAAV?$basic_string@GU?$char_traits@G@std@@V?$allocator@G@2@@std@@@Z" PURGE="0" COMMENT="" />
    <EXPORT ORDINAL="62" NAME="?GetToolbarLastUserSelection@@YGHW4_ENUM_USER_SELECTION@@AAH@Z" PURGE="8" COMMENT="" />
    <EXPORT ORDINAL="63" NAME="?IEGetDefaultSearchProvider@@YAHAAV?$basic_string@GU?$char_traits@G@std@@V?$allocator@G@2@@std@@@Z" PURGE="-1" COMMENT="" />
    <EXPORT ORDINAL="64" NAME="?IEGetHomePage@@YAHAAV?$basic_string@GU?$char_traits@G@std@@V?$allocator@G@2@@std@@@Z" PURGE="-1" COMMENT="" />
    <EXPORT ORDINAL="65" NAME="?IESetDefaultSearchProvider@@YAHPBG0HHAAI@Z" PURGE="0" COMMENT="" />
    <EXPORT ORDINAL="66" NAME="?IESetDefaultSearchProvider@@YAHPBGV?$vector@V?$basic_string@GU?$char_traits@G@std@@V?$allocator@G@2@@std@@V?$allocator@V?$basic_string@GU?$char_traits@G@std@@V?$allocator@G@2@@std@@@2@@std@@HHAAI@Z" PURGE="0" COMMENT="" />
    <EXPORT ORDINAL="67" NAME="?IESetDefaultSearchProviderOld@@YAXPBGHAAH1@Z" PURGE="0" COMMENT="" />
    <EXPORT ORDINAL="68" NAME="?IESetHomePage@@YAHPBG0HHAAI@Z" PURGE="0" COMMENT="" />
    <EXPORT ORDINAL="69" NAME="?IESetHomePage@@YAHPBGV?$vector@V?$basic_string@GU?$char_traits@G@std@@V?$allocator@G@2@@std@@V?$allocator@V?$basic_string@GU?$char_traits@G@std@@V?$allocator@G@2@@std@@@2@@std@@HHAAI@Z" PURGE="0" COMMENT="" />
    <EXPORT ORDINAL="70" NAME="?IESetHomePageOld@@YAXPBGHAAH1@Z" PURGE="0" COMMENT="" />
    <EXPORT ORDINAL="71" NAME="?OnDocumentComplete@CBasicIEDialog@@CGXPBGHPAUHWND__@@PAX@Z" PURGE="16" COMMENT="" />
    <EXPORT ORDINAL="72" NAME="?OnNewWindow@CBasicIEDialog@@CGXPAHPAX@Z" PURGE="8" COMMENT="" />
    <EXPORT ORDINAL="73" NAME="?SetLastUserSelection@@YGHW4_ENUM_USER_SELECTION@@H@Z" PURGE="8" COMMENT="" />
    <EXPORT ORDINAL="74" NAME="?addExternalProcedure@CBasicIEDialog@@QAEXP6G?AUtagVARIANT@@PAG0PAX@Z0@Z" PURGE="8" COMMENT="" />
    <EXPORT ORDINAL="75" NAME="?callScript@CBasicIEDialog@@QAEJV?$basic_string@GU?$char_traits@G@std@@V?$allocator@G@2@@std@@0@Z" PURGE="56" COMMENT="" />
    <EXPORT ORDINAL="76" NAME="?destroyExternalHostProceduresData@CBasicIEDialog@@AAEXXZ" PURGE="0" COMMENT="" />
    <EXPORT ORDINAL="77" NAME="?displayHTMLPage@CBasicIEDialog@@QAEJAAV?$basic_string@GU?$char_traits@G@std@@V?$allocator@G@2@@std@@@Z" PURGE="4" COMMENT="" />
    <EXPORT ORDINAL="78" NAME="?generateNewUUID@CSIMAppID@@SA?AW4SIM_ERROR_ENUM@1@PAGPAK@Z" PURGE="0" COMMENT="" />
    <EXPORT ORDINAL="79" NAME="?getAppIDFromRegistryUtil@CSIMAppID@@CA?AW4SIM_ERROR_ENUM@1@PAUHKEY__@@PAG11PAK@Z" PURGE="0" COMMENT="" />
    <EXPORT ORDINAL="80" NAME="?getInstallDir@CBasicIEDialog@@AAE?AV?$basic_string@GU?$char_traits@G@std@@V?$allocator@G@2@@std@@XZ" PURGE="4" COMMENT="" />
    <EXPORT ORDINAL="81" NAME="?getReferralPersistentData@CReferralSupport@@QAEHAAV?$vector@UReferralData@@V?$allocator@UReferralData@@@std@@@std@@@Z" PURGE="4" COMMENT="" />
    <EXPORT ORDINAL="82" NAME="?getSIMAppIDFromRegistry@CSIMAppID@@SA?AW4SIM_ERROR_ENUM@1@PAGPAK@Z" PURGE="0" COMMENT="" />
    <EXPORT ORDINAL="83" NAME="?getSIMAppID_V1@CSIMAppIDOld@@SA?AW4SIM_ERROR_ENUM@CSIMAppID@@PAGPAK@Z" PURGE="0" COMMENT="" />
    <EXPORT ORDINAL="84" NAME="?getToolbarID_V1@CSIMAppIDOld@@SA?AW4SIM_ERROR_ENUM@CSIMAppID@@PAGPAKH@Z" PURGE="0" COMMENT="" />
    <EXPORT ORDINAL="85" NAME="?init@CBasicIEDialog@@QAEXXZ" PURGE="0" COMMENT="" />
    <EXPORT ORDINAL="86" NAME="?initializeIE@CBasicIEDialog@@AAEHPAUHWND__@@@Z" PURGE="4" COMMENT="" />
    <EXPORT ORDINAL="87" NAME="?isValidUUID@CSIMAppID@@SAHPBG@Z" PURGE="0" COMMENT="" />
    <EXPORT ORDINAL="88" NAME="?m_sSIMUserSessionID@CBasicIEDialog@@0V?$basic_string@GU?$char_traits@G@std@@V?$allocator@G@2@@std@@A" PURGE="-1" COMMENT="" />
    <EXPORT ORDINAL="89" NAME="?onCloseDialog@CBasicIEDialog@@UAEXXZ" PURGE="0" COMMENT="" />
    <EXPORT ORDINAL="90" NAME="?onDestroyDialog@CBasicIEDialog@@UAEXXZ" PURGE="0" COMMENT="" />
    <EXPORT ORDINAL="91" NAME="?onDocumentComplete@CBasicIEDialog@@UAEXXZ" PURGE="0" COMMENT="" />
    <EXPORT ORDINAL="92" NAME="?onIECommand@CBasicIEDialog@@UAE?AUtagVARIANT@@PAG0@Z" PURGE="12" COMMENT="" />
    <EXPORT ORDINAL="93" NAME="?onInitDialog@CBasicIEDialog@@UAEXXZ" PURGE="0" COMMENT="" />
    <EXPORT ORDINAL="94" NAME="?onInitializeIE@CBasicIEDialog@@UAEXXZ" PURGE="0" COMMENT="" />
    <EXPORT ORDINAL="95" NAME="?prepareExternalHostProceduresData@CBasicIEDialog@@AAEXXZ" PURGE="0" COMMENT="" />
    <EXPORT ORDINAL="96" NAME="?setDialogClientSizeAndPosition@CBasicIEDialog@@AAEXJJW4ENUM_IE_DLG_POSTION_DESCRIPTOR@@@Z" PURGE="12" COMMENT="" />
    <EXPORT ORDINAL="97" NAME="?setSIMAppIDToRegistry@CSIMAppID@@SAHPBGHH@Z" PURGE="0" COMMENT="" />
    <EXPORT ORDINAL="98" NAME="?setSIMAppIDToRegistryUtil@CSIMAppID@@CAHPAUHKEY__@@PBG@Z" PURGE="0" COMMENT="" />
    <EXPORT ORDINAL="99" NAME="?setSIMDistributerIDToRegistry@CSIMAppID@@SAHPBGHHHH@Z" PURGE="0" COMMENT="" />
    <EXPORT ORDINAL="100" NAME="?setSIMDistributerIDToRegistryUtil@CSIMAppID@@CAHPAUHKEY__@@PBGHH@Z" PURGE="0" COMMENT="" />
    <EXPORT ORDINAL="101" NAME="?setUserConfigRootDir@CBasicIEDialog@@UAEXAAV?$basic_string@GU?$char_traits@G@std@@V?$allocator@G@2@@std@@@Z" PURGE="-1" COMMENT="" />
    <EXPORT ORDINAL="102" NAME="?show@CBasicIEDialog@@QAEXH@Z" PURGE="4" COMMENT="" />
</LIBRARY>

