<?xml version="1.0" encoding="UTF-8"?>
<LIBRARY NAME="mnysl.dll" PATH="/DLLArchive/etc/mnysl.dll" DATE="Fri Jul 03 12:52:00 PDT 2020" VERSION="11.00.0716">
    <EXPORT ORDINAL="1" NAME="??0CBaseData@@QAE@XZ" PURGE="0" COMMENT="" />
    <EXPORT ORDINAL="2" NAME="??0CBaseDateTime@@QAE@ABV0@@Z" PURGE="4" COMMENT="" />
    <EXPORT ORDINAL="3" NAME="??0CBaseDateTime@@QAE@N@Z" PURGE="8" COMMENT="" />
    <EXPORT ORDINAL="4" NAME="??0CBaseDateTime@@QAE@XZ" PURGE="0" COMMENT="" />
    <EXPORT ORDINAL="5" NAME="??0CDate@@QAE@ABV0@@Z" PURGE="4" COMMENT="" />
    <EXPORT ORDINAL="6" NAME="??0CDate@@QAE@ABVCBaseDateTime@@@Z" PURGE="4" COMMENT="" />
    <EXPORT ORDINAL="7" NAME="??0CDate@@QAE@HHH@Z" PURGE="12" COMMENT="" />
    <EXPORT ORDINAL="8" NAME="??0CDate@@QAE@N@Z" PURGE="8" COMMENT="" />
    <EXPORT ORDINAL="9" NAME="??0CDate@@QAE@W4DATASTATE@@@Z" PURGE="4" COMMENT="" />
    <EXPORT ORDINAL="10" NAME="??0CDate@@QAE@XZ" PURGE="0" COMMENT="" />
    <EXPORT ORDINAL="11" NAME="??0CMnyInfoServerControl@@QAE@ABV0@@Z" PURGE="4" COMMENT="" />
    <EXPORT ORDINAL="12" NAME="??0CMnyInfoServerControl@@QAE@XZ" PURGE="0" COMMENT="" />
    <EXPORT ORDINAL="13" NAME="??0CMnyInfoServerControlEx@@QAE@ABV0@@Z" PURGE="4" COMMENT="" />
    <EXPORT ORDINAL="14" NAME="??0CMnyInfoServerControlEx@@QAE@XZ" PURGE="0" COMMENT="" />
    <EXPORT ORDINAL="15" NAME="??0CSLOleDateTime@@QAE@ABU_FILETIME@@@Z" PURGE="4" COMMENT="" />
    <EXPORT ORDINAL="16" NAME="??0CSLOleDateTime@@QAE@ABU_SYSTEMTIME@@@Z" PURGE="4" COMMENT="" />
    <EXPORT ORDINAL="17" NAME="??0CSLOleDateTime@@QAE@ABUtagVARIANT@@@Z" PURGE="4" COMMENT="" />
    <EXPORT ORDINAL="18" NAME="??0CSLOleDateTime@@QAE@ABV0@@Z" PURGE="4" COMMENT="" />
    <EXPORT ORDINAL="19" NAME="??0CSLOleDateTime@@QAE@GG@Z" PURGE="8" COMMENT="" />
    <EXPORT ORDINAL="20" NAME="??0CSLOleDateTime@@QAE@HHHHHH@Z" PURGE="24" COMMENT="" />
    <EXPORT ORDINAL="21" NAME="??0CSLOleDateTime@@QAE@J@Z" PURGE="4" COMMENT="" />
    <EXPORT ORDINAL="22" NAME="??0CSLOleDateTime@@QAE@N@Z" PURGE="8" COMMENT="" />
    <EXPORT ORDINAL="23" NAME="??0CSLOleDateTime@@QAE@XZ" PURGE="0" COMMENT="" />
    <EXPORT ORDINAL="24" NAME="??0CSLOleDateTimeSpan@@QAE@ABV0@@Z" PURGE="4" COMMENT="" />
    <EXPORT ORDINAL="25" NAME="??0CSLOleDateTimeSpan@@QAE@JHHH@Z" PURGE="16" COMMENT="" />
    <EXPORT ORDINAL="26" NAME="??0CSLOleDateTimeSpan@@QAE@N@Z" PURGE="8" COMMENT="" />
    <EXPORT ORDINAL="27" NAME="??0CSLOleDateTimeSpan@@QAE@XZ" PURGE="0" COMMENT="" />
    <EXPORT ORDINAL="28" NAME="??1CMnyInfoServerControl@@UAE@XZ" PURGE="0" COMMENT="" />
    <EXPORT ORDINAL="29" NAME="??1CMnyInfoServerControlEx@@UAE@XZ" PURGE="0" COMMENT="" />
    <EXPORT ORDINAL="30" NAME="??4CBaseData@@QAEAAV0@ABV0@@Z" PURGE="4" COMMENT="" />
    <EXPORT ORDINAL="31" NAME="??4CBaseDateTime@@QAEAAV0@ABV0@@Z" PURGE="4" COMMENT="" />
    <EXPORT ORDINAL="32" NAME="??4CBaseDateTime@@QAEAAV0@N@Z" PURGE="8" COMMENT="" />
    <EXPORT ORDINAL="33" NAME="??4CDate@@QAEAAV0@ABV0@@Z" PURGE="4" COMMENT="" />
    <EXPORT ORDINAL="34" NAME="??4CMnyInfoServerControl@@QAEAAV0@ABV0@@Z" PURGE="4" COMMENT="" />
    <EXPORT ORDINAL="35" NAME="??4CMnyInfoServerControlEx@@QAEAAV0@ABV0@@Z" PURGE="4" COMMENT="" />
    <EXPORT ORDINAL="36" NAME="??4CSLOleDateTime@@QAEABV0@ABJ@Z" PURGE="4" COMMENT="" />
    <EXPORT ORDINAL="37" NAME="??4CSLOleDateTime@@QAEABV0@ABV0@@Z" PURGE="4" COMMENT="" />
    <EXPORT ORDINAL="38" NAME="??4CSLOleDateTime@@QAEABV0@N@Z" PURGE="8" COMMENT="" />
    <EXPORT ORDINAL="39" NAME="??4CSLOleDateTimeSpan@@QAEABV0@ABV0@@Z" PURGE="4" COMMENT="" />
    <EXPORT ORDINAL="40" NAME="??4CSLOleDateTimeSpan@@QAEABV0@N@Z" PURGE="8" COMMENT="" />
    <EXPORT ORDINAL="41" NAME="??8CDate@@QBEHABV0@@Z" PURGE="4" COMMENT="" />
    <EXPORT ORDINAL="42" NAME="??8CSLOleDateTime@@QBEHABV0@@Z" PURGE="4" COMMENT="" />
    <EXPORT ORDINAL="43" NAME="??8CSLOleDateTimeSpan@@QBEHABV0@@Z" PURGE="4" COMMENT="" />
    <EXPORT ORDINAL="44" NAME="??9CDate@@QBEHABV0@@Z" PURGE="4" COMMENT="" />
    <EXPORT ORDINAL="45" NAME="??9CSLOleDateTime@@QBEHABV0@@Z" PURGE="4" COMMENT="" />
    <EXPORT ORDINAL="46" NAME="??9CSLOleDateTimeSpan@@QBEHABV0@@Z" PURGE="4" COMMENT="" />
    <EXPORT ORDINAL="47" NAME="??BCBaseDateTime@@QBENXZ" PURGE="0" COMMENT="" />
    <EXPORT ORDINAL="48" NAME="??BCDate@@QBENXZ" PURGE="0" COMMENT="" />
    <EXPORT ORDINAL="49" NAME="??BCSLOleDateTime@@QBENXZ" PURGE="0" COMMENT="" />
    <EXPORT ORDINAL="50" NAME="??BCSLOleDateTimeSpan@@QBENXZ" PURGE="0" COMMENT="" />
    <EXPORT ORDINAL="51" NAME="??GCDate@@QAE?AV0@H@Z" PURGE="8" COMMENT="" />
    <EXPORT ORDINAL="52" NAME="??GCDate@@QAENABV0@@Z" PURGE="4" COMMENT="" />
    <EXPORT ORDINAL="53" NAME="??GCSLOleDateTime@@QBE?AV0@ABVCSLOleDateTimeSpan@@@Z" PURGE="8" COMMENT="" />
    <EXPORT ORDINAL="54" NAME="??GCSLOleDateTime@@QBE?AVCSLOleDateTimeSpan@@ABV0@@Z" PURGE="8" COMMENT="" />
    <EXPORT ORDINAL="55" NAME="??GCSLOleDateTimeSpan@@QBE?AV0@ABV0@@Z" PURGE="8" COMMENT="" />
    <EXPORT ORDINAL="56" NAME="??GCSLOleDateTimeSpan@@QBE?AV0@XZ" PURGE="4" COMMENT="" />
    <EXPORT ORDINAL="57" NAME="??HCDate@@QAE?AV0@H@Z" PURGE="8" COMMENT="" />
    <EXPORT ORDINAL="58" NAME="??HCSLOleDateTime@@QBE?AV0@ABVCSLOleDateTimeSpan@@@Z" PURGE="8" COMMENT="" />
    <EXPORT ORDINAL="59" NAME="??HCSLOleDateTimeSpan@@QBE?AV0@ABV0@@Z" PURGE="8" COMMENT="" />
    <EXPORT ORDINAL="60" NAME="??MCDate@@QBEHABV0@@Z" PURGE="4" COMMENT="" />
    <EXPORT ORDINAL="61" NAME="??MCSLOleDateTime@@QBEHABV0@@Z" PURGE="4" COMMENT="" />
    <EXPORT ORDINAL="62" NAME="??MCSLOleDateTimeSpan@@QBEHABV0@@Z" PURGE="4" COMMENT="" />
    <EXPORT ORDINAL="63" NAME="??NCDate@@QBEHABV0@@Z" PURGE="4" COMMENT="" />
    <EXPORT ORDINAL="64" NAME="??NCSLOleDateTime@@QBEHABV0@@Z" PURGE="4" COMMENT="" />
    <EXPORT ORDINAL="65" NAME="??NCSLOleDateTimeSpan@@QBEHABV0@@Z" PURGE="4" COMMENT="" />
    <EXPORT ORDINAL="66" NAME="??OCDate@@QBEHABV0@@Z" PURGE="4" COMMENT="" />
    <EXPORT ORDINAL="67" NAME="??OCSLOleDateTime@@QBEHABV0@@Z" PURGE="4" COMMENT="" />
    <EXPORT ORDINAL="68" NAME="??OCSLOleDateTimeSpan@@QBEHABV0@@Z" PURGE="4" COMMENT="" />
    <EXPORT ORDINAL="69" NAME="??PCDate@@QBEHABV0@@Z" PURGE="4" COMMENT="" />
    <EXPORT ORDINAL="70" NAME="??PCSLOleDateTime@@QBEHABV0@@Z" PURGE="4" COMMENT="" />
    <EXPORT ORDINAL="71" NAME="??PCSLOleDateTimeSpan@@QBEHABV0@@Z" PURGE="4" COMMENT="" />
    <EXPORT ORDINAL="72" NAME="??YCDate@@QAEAAV0@H@Z" PURGE="4" COMMENT="" />
    <EXPORT ORDINAL="73" NAME="??YCSLOleDateTime@@QAEABV0@VCSLOleDateTimeSpan@@@Z" PURGE="16" COMMENT="" />
    <EXPORT ORDINAL="74" NAME="??YCSLOleDateTimeSpan@@QAEABV0@V0@@Z" PURGE="16" COMMENT="" />
    <EXPORT ORDINAL="75" NAME="??ZCDate@@QAEAAV0@H@Z" PURGE="4" COMMENT="" />
    <EXPORT ORDINAL="76" NAME="??ZCSLOleDateTime@@QAEABV0@VCSLOleDateTimeSpan@@@Z" PURGE="16" COMMENT="" />
    <EXPORT ORDINAL="77" NAME="??ZCSLOleDateTimeSpan@@QAEABV0@V0@@Z" PURGE="16" COMMENT="" />
    <EXPORT ORDINAL="78" NAME="??_7CMnyInfoServerControl@@6B@" PURGE="-1" COMMENT="" />
    <EXPORT ORDINAL="79" NAME="??_7CMnyInfoServerControlEx@@6B@" PURGE="-1" COMMENT="" />
    <EXPORT ORDINAL="80" NAME="??_C@_0BI@OF@MnyschdlMainWindowClass?$AA@" PURGE="-1" COMMENT="" />
    <EXPORT ORDINAL="81" NAME="??_C@_0O@CGAN@MSMoney?5Frame?$AA@" PURGE="-1" COMMENT="" />
    <EXPORT ORDINAL="82" NAME="?CStripBlankEnds@@YAHPADH@Z" PURGE="0" COMMENT="" />
    <EXPORT ORDINAL="83" NAME="?CdateMfrq@@YAHABVCDate@@0W4MFRQ@@0@Z" PURGE="0" COMMENT="" />
    <EXPORT ORDINAL="84" NAME="?CheckRange@CSLOleDateTime@@IAEXXZ" PURGE="0" COMMENT="" />
    <EXPORT ORDINAL="85" NAME="?CheckRange@CSLOleDateTimeSpan@@QAEXXZ" PURGE="0" COMMENT="" />
    <EXPORT ORDINAL="86" NAME="?CloseMIS@CMnyInfoServerControlEx@@QAEXXZ" PURGE="0" COMMENT="" />
    <EXPORT ORDINAL="87" NAME="?CloseMoneyDS@CMnyInfoServerControlEx@@QAEXXZ" PURGE="0" COMMENT="" />
    <EXPORT ORDINAL="88" NAME="?CloseScheduler@CMnyInfoServerControlEx@@QAEXXZ" PURGE="0" COMMENT="" />
    <EXPORT ORDINAL="89" NAME="?CompareNoYr@@YAHABVCDate@@0@Z" PURGE="0" COMMENT="" />
    <EXPORT ORDINAL="90" NAME="?DDiffDates@@YANABVCDate@@0@Z" PURGE="0" COMMENT="" />
    <EXPORT ORDINAL="91" NAME="?DGet@CDate@@QBENXZ" PURGE="0" COMMENT="" />
    <EXPORT ORDINAL="92" NAME="?DateChgMfrq@CDate@@QBE?AV1@W4MFRQ@@HABV1@@Z" PURGE="16" COMMENT="" />
    <EXPORT ORDINAL="93" NAME="?DateChgMfrqByCount@CDate@@QBE?AV1@W4MFRQ@@H@Z" PURGE="12" COMMENT="" />
    <EXPORT ORDINAL="94" NAME="?DateComponentsCur@@YAXPAI00@Z" PURGE="0" COMMENT="" />
    <EXPORT ORDINAL="95" NAME="?DateCur@@YA?AVCDate@@XZ" PURGE="0" COMMENT="" />
    <EXPORT ORDINAL="96" NAME="?DateDecFreq@CDate@@QBE?AV1@W4MFRQ@@ABV1@@Z" PURGE="12" COMMENT="" />
    <EXPORT ORDINAL="97" NAME="?DateFromAmbigDates@@YAABVCDate@@ABV1@0H@Z" PURGE="0" COMMENT="" />
    <EXPORT ORDINAL="98" NAME="?DateFromSingleTsz@@YA?AVCDate@@PBDH@Z" PURGE="0" COMMENT="" />
    <EXPORT ORDINAL="99" NAME="?DateFromTsz@@YA?AVCDate@@PBDH@Z" PURGE="0" COMMENT="" />
    <EXPORT ORDINAL="100" NAME="?DateInc@CDate@@QBE?AV1@H@Z" PURGE="8" COMMENT="" />
    <EXPORT ORDINAL="101" NAME="?DateIncBus@CDate@@QBE?AV1@H@Z" PURGE="8" COMMENT="" />
    <EXPORT ORDINAL="102" NAME="?DateIncFreq@CDate@@QBE?AV1@W4MFRQ@@ABV1@@Z" PURGE="12" COMMENT="" />
    <EXPORT ORDINAL="103" NAME="?DateIncWrap@CDate@@QBE?AV1@H@Z" PURGE="8" COMMENT="" />
    <EXPORT ORDINAL="104" NAME="?DateLastDom@CDate@@QBE?AV1@XZ" PURGE="4" COMMENT="" />
    <EXPORT ORDINAL="105" NAME="?DisableMISServices@CMnyInfoServerControl@@QAEHXZ" PURGE="0" COMMENT="" />
    <EXPORT ORDINAL="106" NAME="?DisableScheduler@CMnyInfoServerControlEx@@QAEXXZ" PURGE="0" COMMENT="" />
    <EXPORT ORDINAL="107" NAME="?DomGet@CDate@@QBEHXZ" PURGE="0" COMMENT="" />
    <EXPORT ORDINAL="108" NAME="?DomMacDate@CDate@@QBEHXZ" PURGE="0" COMMENT="" />
    <EXPORT ORDINAL="109" NAME="?DomMacYrMon@@YAHHH@Z" PURGE="0" COMMENT="" />
    <EXPORT ORDINAL="110" NAME="?DowFromDate@CDate@@QBEHXZ" PURGE="0" COMMENT="" />
    <EXPORT ORDINAL="111" NAME="?DyrGet@CDate@@QBEHXZ" PURGE="0" COMMENT="" />
    <EXPORT ORDINAL="112" NAME="?EnableMISServices@CMnyInfoServerControl@@QAEHXZ" PURGE="0" COMMENT="" />
    <EXPORT ORDINAL="113" NAME="?FCtrlEmptyGet@CDate@@QAEHXZ" PURGE="0" COMMENT="" />
    <EXPORT ORDINAL="114" NAME="?FHoliday@CDate@@QBEHH@Z" PURGE="4" COMMENT="" />
    <EXPORT ORDINAL="115" NAME="?FInsertSepsTsz@@YAHPBDPADGG@Z" PURGE="0" COMMENT="" />
    <EXPORT ORDINAL="116" NAME="?FLeapYear@CDate@@SAHH@Z" PURGE="0" COMMENT="" />
    <EXPORT ORDINAL="117" NAME="?FMisEnabled@CMnyInfoServerControl@@QAEHXZ" PURGE="0" COMMENT="" />
    <EXPORT ORDINAL="118" NAME="?FMoneyWebCacheFile@@YAHHPADKPBD1@Z" PURGE="0" COMMENT="" />
    <EXPORT ORDINAL="119" NAME="?FParseCustomDate@CDate@@QAEHPBDPAD@Z" PURGE="8" COMMENT="" />
    <EXPORT ORDINAL="120" NAME="?FParseStandardDateTsz@@YAHPADPAVCDate@@@Z" PURGE="0" COMMENT="" />
    <EXPORT ORDINAL="121" NAME="?FParseSz@CDate@@QAEHPADH@Z" PURGE="8" COMMENT="" />
    <EXPORT ORDINAL="122" NAME="?FParseVersionString@@YAHQAIIPBD@Z" PURGE="0" COMMENT="" />
    <EXPORT ORDINAL="123" NAME="?FReadStringFromRegistry@@YAHPAUHKEY__@@PBD1PADH@Z" PURGE="0" COMMENT="" />
    <EXPORT ORDINAL="124" NAME="?FSchedulerActive@CMnyInfoServerControlEx@@QAEHXZ" PURGE="0" COMMENT="" />
    <EXPORT ORDINAL="125" NAME="?FStripBlankEnds@@YAHPADH@Z" PURGE="0" COMMENT="" />
    <EXPORT ORDINAL="126" NAME="?FValidMoneyOS@@YAHXZ" PURGE="0" COMMENT="" />
    <EXPORT ORDINAL="127" NAME="?FileVersion@@YAHPADPAK1@Z" PURGE="0" COMMENT="" />
    <EXPORT ORDINAL="128" NAME="?FillCustomDate@CDate@@QBEXKPAD0@Z" PURGE="12" COMMENT="" />
    <EXPORT ORDINAL="129" NAME="?FillCustomDate@CDate@@QBEXPAD0I@Z" PURGE="12" COMMENT="" />
    <EXPORT ORDINAL="130" NAME="?FillSz@CDate@@QAEXPAD@Z" PURGE="4" COMMENT="" />
    <EXPORT ORDINAL="131" NAME="?FillSz@CDate@@QBEXPADH@Z" PURGE="8" COMMENT="" />
    <EXPORT ORDINAL="132" NAME="?FillSzAbr@CDate@@QBEXPADH@Z" PURGE="8" COMMENT="" />
    <EXPORT ORDINAL="133" NAME="?FillSzAbrNoDom@CDate@@QBEXPADH@Z" PURGE="8" COMMENT="" />
    <EXPORT ORDINAL="134" NAME="?FillSzFull@CDate@@QBEXPADH@Z" PURGE="8" COMMENT="" />
    <EXPORT ORDINAL="135" NAME="?FillSzFullM@CDate@@QBEXPADH@Z" PURGE="8" COMMENT="" />
    <EXPORT ORDINAL="136" NAME="?FillSzFullNoDom@CDate@@QBEXPADH@Z" PURGE="8" COMMENT="" />
    <EXPORT ORDINAL="137" NAME="?FillSzLong@CDate@@QBEXPADH@Z" PURGE="8" COMMENT="" />
    <EXPORT ORDINAL="138" NAME="?FillSzNoDom@CDate@@QBEXPADH@Z" PURGE="8" COMMENT="" />
    <EXPORT ORDINAL="139" NAME="?FillSzNoYr@CDate@@QBEXPAD@Z" PURGE="4" COMMENT="" />
    <EXPORT ORDINAL="140" NAME="?FillSzNoYr@CDate@@QBEXPADH@Z" PURGE="8" COMMENT="" />
    <EXPORT ORDINAL="141" NAME="?FillSzShort@CDate@@QBEXPADH@Z" PURGE="8" COMMENT="" />
    <EXPORT ORDINAL="142" NAME="?FillSzText@CDate@@QBEXIPADH@Z" PURGE="12" COMMENT="" />
    <EXPORT ORDINAL="143" NAME="?FillSzTime@CDate@@QAEXPAD@Z" PURGE="4" COMMENT="" />
    <EXPORT ORDINAL="144" NAME="?FillTszDate@@YAXPADABVCDate@@@Z" PURGE="0" COMMENT="" />
    <EXPORT ORDINAL="145" NAME="?FillTszDateNoDom@@YAXPADABVCDate@@@Z" PURGE="0" COMMENT="" />
    <EXPORT ORDINAL="146" NAME="?FillTszDateNoYr@@YAXPADABVCDate@@@Z" PURGE="0" COMMENT="" />
    <EXPORT ORDINAL="147" NAME="?GetCurrentState@CMnyInfoServerControl@@AAEXXZ" PURGE="0" COMMENT="" />
    <EXPORT ORDINAL="148" NAME="?GetDay@CSLOleDateTime@@QBEHXZ" PURGE="0" COMMENT="" />
    <EXPORT ORDINAL="149" NAME="?GetDayOfWeek@CSLOleDateTime@@QBEHXZ" PURGE="0" COMMENT="" />
    <EXPORT ORDINAL="150" NAME="?GetDayOfYear@CSLOleDateTime@@QBEHXZ" PURGE="0" COMMENT="" />
    <EXPORT ORDINAL="151" NAME="?GetDays@CSLOleDateTimeSpan@@QBEJXZ" PURGE="-1" COMMENT="" />
    <EXPORT ORDINAL="152" NAME="?GetHour@CSLOleDateTime@@QBEHXZ" PURGE="0" COMMENT="" />
    <EXPORT ORDINAL="153" NAME="?GetHours@CSLOleDateTimeSpan@@QBEJXZ" PURGE="0" COMMENT="" />
    <EXPORT ORDINAL="154" NAME="?GetMinute@CSLOleDateTime@@QBEHXZ" PURGE="0" COMMENT="" />
    <EXPORT ORDINAL="155" NAME="?GetMinutes@CSLOleDateTimeSpan@@QBEJXZ" PURGE="0" COMMENT="" />
    <EXPORT ORDINAL="156" NAME="?GetMnyOSVersion@@YA?AW4MNYOSVER@@XZ" PURGE="0" COMMENT="" />
    <EXPORT ORDINAL="157" NAME="?GetMoneyPath@@YAXPBD0PADKW4FTDS@@H@Z" PURGE="0" COMMENT="" />
    <EXPORT ORDINAL="158" NAME="?GetMonth@CSLOleDateTime@@QBEHXZ" PURGE="0" COMMENT="" />
    <EXPORT ORDINAL="159" NAME="?GetSecond@CSLOleDateTime@@QBEHXZ" PURGE="0" COMMENT="" />
    <EXPORT ORDINAL="160" NAME="?GetSeconds@CSLOleDateTimeSpan@@QBEJXZ" PURGE="0" COMMENT="" />
    <EXPORT ORDINAL="161" NAME="?GetStatus@CSLOleDateTime@@QBE?AW4DateTimeStatus@1@XZ" PURGE="0" COMMENT="" />
    <EXPORT ORDINAL="162" NAME="?GetStatus@CSLOleDateTimeSpan@@QBE?AW4DateTimeSpanStatus@1@XZ" PURGE="0" COMMENT="" />
    <EXPORT ORDINAL="163" NAME="?GetTickCount@CSLOleDateTime@@SG?AV1@XZ" PURGE="4" COMMENT="" />
    <EXPORT ORDINAL="164" NAME="?GetTotalDays@CSLOleDateTimeSpan@@QBENXZ" PURGE="0" COMMENT="" />
    <EXPORT ORDINAL="165" NAME="?GetTotalHours@CSLOleDateTimeSpan@@QBENXZ" PURGE="0" COMMENT="" />
    <EXPORT ORDINAL="166" NAME="?GetTotalMinutes@CSLOleDateTimeSpan@@QBENXZ" PURGE="0" COMMENT="" />
    <EXPORT ORDINAL="167" NAME="?GetTotalSeconds@CSLOleDateTimeSpan@@QBENXZ" PURGE="0" COMMENT="" />
    <EXPORT ORDINAL="168" NAME="?GetYear@CSLOleDateTime@@QBEHXZ" PURGE="0" COMMENT="" />
    <EXPORT ORDINAL="169" NAME="?Lock@CMnyInfoServerControl@@AAEHXZ" PURGE="0" COMMENT="" />
    <EXPORT ORDINAL="170" NAME="?MnyShGetSpecialFolderLocation@@YAHHPADH@Z" PURGE="0" COMMENT="" />
    <EXPORT ORDINAL="171" NAME="?MonGet@CDate@@QBEHXZ" PURGE="0" COMMENT="" />
    <EXPORT ORDINAL="172" NAME="?NT4_SPLevel@@YAHXZ" PURGE="0" COMMENT="" />
    <EXPORT ORDINAL="173" NAME="?PchDatePart@@YAPADPADPAF1@Z" PURGE="0" COMMENT="" />
    <EXPORT ORDINAL="174" NAME="?PchFillDate@@YAPADPADABVCDate@@HH@Z" PURGE="0" COMMENT="" />
    <EXPORT ORDINAL="175" NAME="?PchFillDate@CDate@@QBEPADPADHHH@Z" PURGE="16" COMMENT="" />
    <EXPORT ORDINAL="176" NAME="?ReleaseMISSources@CMnyInfoServerControlEx@@QAEXXZ" PURGE="0" COMMENT="" />
    <EXPORT ORDINAL="177" NAME="?RestartScheduler@CMnyInfoServerControlEx@@QAEXXZ" PURGE="0" COMMENT="" />
    <EXPORT ORDINAL="178" NAME="?SetD@CDate@@QAEXN@Z" PURGE="8" COMMENT="" />
    <EXPORT ORDINAL="179" NAME="?SetDate@CDate@@QAEXHHH@Z" PURGE="12" COMMENT="" />
    <EXPORT ORDINAL="180" NAME="?SetDate@CSLOleDateTime@@QAEHHHH@Z" PURGE="12" COMMENT="" />
    <EXPORT ORDINAL="181" NAME="?SetDateCtrlEmpty@CDate@@QAEXXZ" PURGE="0" COMMENT="" />
    <EXPORT ORDINAL="182" NAME="?SetDateCur@@YAXABVCDate@@@Z" PURGE="0" COMMENT="" />
    <EXPORT ORDINAL="183" NAME="?SetDateLast@CDate@@QAEXXZ" PURGE="0" COMMENT="" />
    <EXPORT ORDINAL="184" NAME="?SetDateTime@CSLOleDateTime@@QAEHHHHHHH@Z" PURGE="24" COMMENT="" />
    <EXPORT ORDINAL="185" NAME="?SetDateTimeSpan@CSLOleDateTimeSpan@@QAEXJHHH@Z" PURGE="16" COMMENT="" />
    <EXPORT ORDINAL="186" NAME="?SetDateZero@CDate@@QAEXXZ" PURGE="0" COMMENT="" />
    <EXPORT ORDINAL="187" NAME="?SetDom@CDate@@QAEXH@Z" PURGE="4" COMMENT="" />
    <EXPORT ORDINAL="188" NAME="?SetDyr@CDate@@QAEXH@Z" PURGE="4" COMMENT="" />
    <EXPORT ORDINAL="189" NAME="?SetHctlDate@@YAXPAUHWND__@@ABVCDate@@@Z" PURGE="0" COMMENT="" />
    <EXPORT ORDINAL="190" NAME="?SetMon@CDate@@QAEXH@Z" PURGE="4" COMMENT="" />
    <EXPORT ORDINAL="191" NAME="?SetPersistentState@CMnyInfoServerControl@@QAEXH@Z" PURGE="4" COMMENT="" />
    <EXPORT ORDINAL="192" NAME="?SetState@CBaseData@@QAEXW4DATASTATE@@@Z" PURGE="4" COMMENT="" />
    <EXPORT ORDINAL="193" NAME="?SetState@CBaseDateTime@@QAEXW4DATASTATE@@@Z" PURGE="4" COMMENT="" />
    <EXPORT ORDINAL="194" NAME="?SetStatus@CSLOleDateTime@@QAEXW4DateTimeStatus@1@@Z" PURGE="4" COMMENT="" />
    <EXPORT ORDINAL="195" NAME="?SetStatus@CSLOleDateTimeSpan@@QAEXW4DateTimeSpanStatus@1@@Z" PURGE="4" COMMENT="" />
    <EXPORT ORDINAL="196" NAME="?SetTime@CSLOleDateTime@@QAEHHHH@Z" PURGE="12" COMMENT="" />
    <EXPORT ORDINAL="197" NAME="?SgnCmp@CDate@@QBEHABV1@@Z" PURGE="4" COMMENT="" />
    <EXPORT ORDINAL="198" NAME="?ShutDownMISServices@CMnyInfoServerControlEx@@QAEHXZ" PURGE="0" COMMENT="" />
    <EXPORT ORDINAL="199" NAME="?StateGet@CBaseData@@QBE?AW4DATASTATE@@XZ" PURGE="0" COMMENT="" />
    <EXPORT ORDINAL="200" NAME="?TOfdJpn@@YA?AW4TRI@@XZ" PURGE="0" COMMENT="" />
    <EXPORT ORDINAL="201" NAME="?Unlock@CMnyInfoServerControl@@AAEXXZ" PURGE="0" COMMENT="" />
    <EXPORT ORDINAL="202" NAME="?YrFromTwoDigits@@YAHHHH@Z" PURGE="0" COMMENT="" />
    <EXPORT ORDINAL="203" NAME="?dateMax@@3VCDate@@A" PURGE="-1" COMMENT="" />
    <EXPORT ORDINAL="204" NAME="?dateMin@@3VCDate@@A" PURGE="-1" COMMENT="" />
    <EXPORT ORDINAL="205" NAME="?dateNil@@3VCDate@@A" PURGE="-1" COMMENT="" />
    <EXPORT ORDINAL="206" NAME="?ds@@3UDS@@A" PURGE="-1" COMMENT="" />
    <EXPORT ORDINAL="207" NAME="?g_chNonBreakSpace@@3DA" PURGE="-1" COMMENT="" />
    <EXPORT ORDINAL="208" NAME="?s_fBizFindDialog@CDate@@2HA" PURGE="-1" COMMENT="" />
    <EXPORT ORDINAL="209" NAME="?s_fEuro@CDate@@2HA" PURGE="-1" COMMENT="" />
    <EXPORT ORDINAL="210" NAME="?s_fJPN@CDate@@2HA" PURGE="-1" COMMENT="" />
    <EXPORT ORDINAL="211" NAME="?s_fUseSystemDateFmt@CDate@@2HA" PURGE="-1" COMMENT="" />
    <EXPORT ORDINAL="212" NAME="?szTimeFormat@@3PADA" PURGE="-1" COMMENT="" />
</LIBRARY>

