<?xml version="1.0" encoding="UTF-8"?>
<LIBRARY NAME="mscofd.dll" PATH="/DLLArchive/etc/mscofd.dll" DATE="Fri Jul 03 12:54:22 PDT 2020" VERSION="11.00.0716">
    <EXPORT ORDINAL="1" NAME="??0CBillTri@@QAE@JJJ@Z" PURGE="12" COMMENT="" />
    <EXPORT ORDINAL="2" NAME="??0CBillTri@@QAE@XZ" PURGE="0" COMMENT="" />
    <EXPORT ORDINAL="3" NAME="??0COfdAcct@@QAE@ABV0@@Z" PURGE="4" COMMENT="" />
    <EXPORT ORDINAL="4" NAME="??0COfdAcct@@QAE@PAUIOfdAcct@@H@Z" PURGE="8" COMMENT="" />
    <EXPORT ORDINAL="5" NAME="??0COfdAcct@@QAE@XZ" PURGE="0" COMMENT="" />
    <EXPORT ORDINAL="6" NAME="??0COfdAddr@@QAE@ABV0@@Z" PURGE="4" COMMENT="" />
    <EXPORT ORDINAL="7" NAME="??0COfdAddr@@QAE@PAUIOfdAddr@@H@Z" PURGE="8" COMMENT="" />
    <EXPORT ORDINAL="8" NAME="??0COfdAddr@@QAE@XZ" PURGE="0" COMMENT="" />
    <EXPORT ORDINAL="9" NAME="??0COfdAdv@@QAE@ABV0@@Z" PURGE="4" COMMENT="" />
    <EXPORT ORDINAL="10" NAME="??0COfdAdv@@QAE@PAUIOfdAdv@@H@Z" PURGE="8" COMMENT="" />
    <EXPORT ORDINAL="11" NAME="??0COfdAdv@@QAE@XZ" PURGE="0" COMMENT="" />
    <EXPORT ORDINAL="12" NAME="??0COfdAuto@@QAE@ABV0@@Z" PURGE="4" COMMENT="" />
    <EXPORT ORDINAL="13" NAME="??0COfdAuto@@QAE@PAUIOfdAuto@@H@Z" PURGE="8" COMMENT="" />
    <EXPORT ORDINAL="14" NAME="??0COfdAuto@@QAE@XZ" PURGE="0" COMMENT="" />
    <EXPORT ORDINAL="15" NAME="??0COfdAwd@@QAE@ABV0@@Z" PURGE="4" COMMENT="" />
    <EXPORT ORDINAL="16" NAME="??0COfdAwd@@QAE@PAUIOfdAwd@@H@Z" PURGE="8" COMMENT="" />
    <EXPORT ORDINAL="17" NAME="??0COfdAwd@@QAE@XZ" PURGE="0" COMMENT="" />
    <EXPORT ORDINAL="18" NAME="??0COfdBgt@@QAE@ABV0@@Z" PURGE="4" COMMENT="" />
    <EXPORT ORDINAL="19" NAME="??0COfdBgt@@QAE@PAUIOfdBgt@@H@Z" PURGE="8" COMMENT="" />
    <EXPORT ORDINAL="20" NAME="??0COfdBgt@@QAE@XZ" PURGE="0" COMMENT="" />
    <EXPORT ORDINAL="21" NAME="??0COfdBgtBkt@@QAE@ABV0@@Z" PURGE="4" COMMENT="" />
    <EXPORT ORDINAL="22" NAME="??0COfdBgtBkt@@QAE@PAUIOfdBgtBkt@@H@Z" PURGE="8" COMMENT="" />
    <EXPORT ORDINAL="23" NAME="??0COfdBgtBkt@@QAE@XZ" PURGE="0" COMMENT="" />
    <EXPORT ORDINAL="24" NAME="??0COfdBgtItm@@QAE@ABV0@@Z" PURGE="4" COMMENT="" />
    <EXPORT ORDINAL="25" NAME="??0COfdBgtItm@@QAE@PAUIOfdBgtItm@@H@Z" PURGE="8" COMMENT="" />
    <EXPORT ORDINAL="26" NAME="??0COfdBgtItm@@QAE@XZ" PURGE="0" COMMENT="" />
    <EXPORT ORDINAL="27" NAME="??0COfdBill@@QAE@ABV0@@Z" PURGE="4" COMMENT="" />
    <EXPORT ORDINAL="28" NAME="??0COfdBill@@QAE@PAUIOfdBill@@H@Z" PURGE="8" COMMENT="" />
    <EXPORT ORDINAL="29" NAME="??0COfdBill@@QAE@XZ" PURGE="0" COMMENT="" />
    <EXPORT ORDINAL="30" NAME="??0COfdBrkStmt@@QAE@ABV0@@Z" PURGE="4" COMMENT="" />
    <EXPORT ORDINAL="31" NAME="??0COfdBrkStmt@@QAE@PAUIOfdStmt@@H@Z" PURGE="8" COMMENT="" />
    <EXPORT ORDINAL="32" NAME="??0COfdBrkStmt@@QAE@XZ" PURGE="0" COMMENT="" />
    <EXPORT ORDINAL="33" NAME="??0COfdBuffer@@QAE@ABV0@@Z" PURGE="4" COMMENT="" />
    <EXPORT ORDINAL="34" NAME="??0COfdBuffer@@QAE@PAGI@Z" PURGE="8" COMMENT="" />
    <EXPORT ORDINAL="35" NAME="??0COfdBuffer@@QAE@PAXI@Z" PURGE="8" COMMENT="" />
    <EXPORT ORDINAL="36" NAME="??0COfdCat@@QAE@ABV0@@Z" PURGE="4" COMMENT="" />
    <EXPORT ORDINAL="37" NAME="??0COfdCat@@QAE@PAUIOfdCat@@H@Z" PURGE="8" COMMENT="" />
    <EXPORT ORDINAL="38" NAME="??0COfdCat@@QAE@XZ" PURGE="0" COMMENT="" />
    <EXPORT ORDINAL="39" NAME="??0COfdCntry@@QAE@ABV0@@Z" PURGE="4" COMMENT="" />
    <EXPORT ORDINAL="40" NAME="??0COfdCntry@@QAE@PAUIOfdCntry@@H@Z" PURGE="8" COMMENT="" />
    <EXPORT ORDINAL="41" NAME="??0COfdCntry@@QAE@XZ" PURGE="0" COMMENT="" />
    <EXPORT ORDINAL="42" NAME="??0COfdCrit@@QAE@ABV0@@Z" PURGE="4" COMMENT="" />
    <EXPORT ORDINAL="43" NAME="??0COfdCrit@@QAE@PAUIOfdCrit@@H@Z" PURGE="8" COMMENT="" />
    <EXPORT ORDINAL="44" NAME="??0COfdCrit@@QAE@XZ" PURGE="0" COMMENT="" />
    <EXPORT ORDINAL="45" NAME="??0COfdCrnc@@QAE@ABV0@@Z" PURGE="4" COMMENT="" />
    <EXPORT ORDINAL="46" NAME="??0COfdCrnc@@QAE@PAUIOfdCrnc@@H@Z" PURGE="8" COMMENT="" />
    <EXPORT ORDINAL="47" NAME="??0COfdCrnc@@QAE@XZ" PURGE="0" COMMENT="" />
    <EXPORT ORDINAL="48" NAME="??0COfdCt@@QAE@ABV0@@Z" PURGE="4" COMMENT="" />
    <EXPORT ORDINAL="49" NAME="??0COfdCt@@QAE@PAUIOfdCt@@H@Z" PURGE="8" COMMENT="" />
    <EXPORT ORDINAL="50" NAME="??0COfdCt@@QAE@XZ" PURGE="0" COMMENT="" />
    <EXPORT ORDINAL="51" NAME="??0COfdCurrency@@QAE@ABV0@@Z" PURGE="4" COMMENT="" />
    <EXPORT ORDINAL="52" NAME="??0COfdCurrency@@QAE@JJJ@Z" PURGE="12" COMMENT="" />
    <EXPORT ORDINAL="53" NAME="??0COfdCurrency@@QAE@TtagCY@@J@Z" PURGE="12" COMMENT="" />
    <EXPORT ORDINAL="54" NAME="??0COfdCurrency@@QAE@XZ" PURGE="0" COMMENT="" />
    <EXPORT ORDINAL="55" NAME="??0COfdCustom@@QAE@ABV0@@Z" PURGE="4" COMMENT="" />
    <EXPORT ORDINAL="56" NAME="??0COfdCustom@@QAE@PAUIOfdCustom@@H@Z" PURGE="8" COMMENT="" />
    <EXPORT ORDINAL="57" NAME="??0COfdCustom@@QAE@XZ" PURGE="0" COMMENT="" />
    <EXPORT ORDINAL="58" NAME="??0COfdDouble@@QAE@ABV0@@Z" PURGE="4" COMMENT="" />
    <EXPORT ORDINAL="59" NAME="??0COfdDouble@@QAE@N@Z" PURGE="8" COMMENT="" />
    <EXPORT ORDINAL="60" NAME="??0COfdDouble@@QAE@XZ" PURGE="0" COMMENT="" />
    <EXPORT ORDINAL="61" NAME="??0COfdEngine@@QAE@ABV0@@Z" PURGE="4" COMMENT="" />
    <EXPORT ORDINAL="62" NAME="??0COfdEngine@@QAE@PAUIOfdEngine@@H@Z" PURGE="8" COMMENT="" />
    <EXPORT ORDINAL="63" NAME="??0COfdEngine@@QAE@XZ" PURGE="0" COMMENT="" />
    <EXPORT ORDINAL="64" NAME="??0COfdException@@QAE@J@Z" PURGE="4" COMMENT="" />
    <EXPORT ORDINAL="65" NAME="??0COfdFi@@QAE@ABV0@@Z" PURGE="4" COMMENT="" />
    <EXPORT ORDINAL="66" NAME="??0COfdFi@@QAE@PAUIOfdFi@@H@Z" PURGE="8" COMMENT="" />
    <EXPORT ORDINAL="67" NAME="??0COfdFi@@QAE@XZ" PURGE="0" COMMENT="" />
    <EXPORT ORDINAL="68" NAME="??0COfdFile@@QAE@ABV0@@Z" PURGE="4" COMMENT="" />
    <EXPORT ORDINAL="69" NAME="??0COfdFile@@QAE@PAUIOfdFile@@H@Z" PURGE="8" COMMENT="" />
    <EXPORT ORDINAL="70" NAME="??0COfdFile@@QAE@XZ" PURGE="0" COMMENT="" />
    <EXPORT ORDINAL="71" NAME="??0COfdIvty@@QAE@ABV0@@Z" PURGE="4" COMMENT="" />
    <EXPORT ORDINAL="72" NAME="??0COfdIvty@@QAE@PAUIOfdIvty@@H@Z" PURGE="8" COMMENT="" />
    <EXPORT ORDINAL="73" NAME="??0COfdIvty@@QAE@XZ" PURGE="0" COMMENT="" />
    <EXPORT ORDINAL="74" NAME="??0COfdList@@QAE@ABV0@@Z" PURGE="4" COMMENT="" />
    <EXPORT ORDINAL="75" NAME="??0COfdList@@QAE@PAUIOfdList@@H@Z" PURGE="8" COMMENT="" />
    <EXPORT ORDINAL="76" NAME="??0COfdList@@QAE@XZ" PURGE="0" COMMENT="" />
    <EXPORT ORDINAL="77" NAME="??0COfdListAcct@@QAE@ABV0@@Z" PURGE="4" COMMENT="" />
    <EXPORT ORDINAL="78" NAME="??0COfdListAcct@@QAE@PAUIOfdListAcct@@H@Z" PURGE="8" COMMENT="" />
    <EXPORT ORDINAL="79" NAME="??0COfdListAcct@@QAE@XZ" PURGE="0" COMMENT="" />
    <EXPORT ORDINAL="80" NAME="??0COfdListAdv@@QAE@ABV0@@Z" PURGE="4" COMMENT="" />
    <EXPORT ORDINAL="81" NAME="??0COfdListAdv@@QAE@PAUIOfdListAdv@@H@Z" PURGE="8" COMMENT="" />
    <EXPORT ORDINAL="82" NAME="??0COfdListAdv@@QAE@XZ" PURGE="0" COMMENT="" />
    <EXPORT ORDINAL="83" NAME="??0COfdListAuto@@QAE@ABV0@@Z" PURGE="4" COMMENT="" />
    <EXPORT ORDINAL="84" NAME="??0COfdListAuto@@QAE@PAUIOfdListAuto@@H@Z" PURGE="8" COMMENT="" />
    <EXPORT ORDINAL="85" NAME="??0COfdListAuto@@QAE@XZ" PURGE="0" COMMENT="" />
    <EXPORT ORDINAL="86" NAME="??0COfdListAwd@@QAE@ABV0@@Z" PURGE="4" COMMENT="" />
    <EXPORT ORDINAL="87" NAME="??0COfdListAwd@@QAE@PAUIOfdListAwd@@H@Z" PURGE="8" COMMENT="" />
    <EXPORT ORDINAL="88" NAME="??0COfdListAwd@@QAE@XZ" PURGE="0" COMMENT="" />
    <EXPORT ORDINAL="89" NAME="??0COfdListBgt@@QAE@ABV0@@Z" PURGE="4" COMMENT="" />
    <EXPORT ORDINAL="90" NAME="??0COfdListBgt@@QAE@PAUIOfdListBgt@@H@Z" PURGE="8" COMMENT="" />
    <EXPORT ORDINAL="91" NAME="??0COfdListBgt@@QAE@XZ" PURGE="0" COMMENT="" />
    <EXPORT ORDINAL="92" NAME="??0COfdListBgtBkt@@QAE@ABV0@@Z" PURGE="4" COMMENT="" />
    <EXPORT ORDINAL="93" NAME="??0COfdListBgtBkt@@QAE@PAUIOfdListBgtBkt@@H@Z" PURGE="8" COMMENT="" />
    <EXPORT ORDINAL="94" NAME="??0COfdListBgtBkt@@QAE@XZ" PURGE="0" COMMENT="" />
    <EXPORT ORDINAL="95" NAME="??0COfdListBgtItm@@QAE@ABV0@@Z" PURGE="4" COMMENT="" />
    <EXPORT ORDINAL="96" NAME="??0COfdListBgtItm@@QAE@PAUIOfdListBgtItm@@H@Z" PURGE="8" COMMENT="" />
    <EXPORT ORDINAL="97" NAME="??0COfdListBgtItm@@QAE@XZ" PURGE="0" COMMENT="" />
    <EXPORT ORDINAL="98" NAME="??0COfdListBill@@QAE@ABV0@@Z" PURGE="4" COMMENT="" />
    <EXPORT ORDINAL="99" NAME="??0COfdListBill@@QAE@PAUIOfdListBill@@H@Z" PURGE="8" COMMENT="" />
    <EXPORT ORDINAL="100" NAME="??0COfdListBill@@QAE@XZ" PURGE="0" COMMENT="" />
    <EXPORT ORDINAL="101" NAME="??0COfdListCat@@QAE@ABV0@@Z" PURGE="4" COMMENT="" />
    <EXPORT ORDINAL="102" NAME="??0COfdListCat@@QAE@PAUIOfdListCat@@H@Z" PURGE="8" COMMENT="" />
    <EXPORT ORDINAL="103" NAME="??0COfdListCat@@QAE@XZ" PURGE="0" COMMENT="" />
    <EXPORT ORDINAL="104" NAME="??0COfdListCntry@@QAE@ABV0@@Z" PURGE="4" COMMENT="" />
    <EXPORT ORDINAL="105" NAME="??0COfdListCntry@@QAE@PAUIOfdListCntry@@H@Z" PURGE="8" COMMENT="" />
    <EXPORT ORDINAL="106" NAME="??0COfdListCntry@@QAE@XZ" PURGE="0" COMMENT="" />
    <EXPORT ORDINAL="107" NAME="??0COfdListCrit@@QAE@ABV0@@Z" PURGE="4" COMMENT="" />
    <EXPORT ORDINAL="108" NAME="??0COfdListCrit@@QAE@PAUIOfdListCrit@@H@Z" PURGE="8" COMMENT="" />
    <EXPORT ORDINAL="109" NAME="??0COfdListCrit@@QAE@XZ" PURGE="0" COMMENT="" />
    <EXPORT ORDINAL="110" NAME="??0COfdListCrnc@@QAE@ABV0@@Z" PURGE="4" COMMENT="" />
    <EXPORT ORDINAL="111" NAME="??0COfdListCrnc@@QAE@PAUIOfdListCrnc@@H@Z" PURGE="8" COMMENT="" />
    <EXPORT ORDINAL="112" NAME="??0COfdListCrnc@@QAE@XZ" PURGE="0" COMMENT="" />
    <EXPORT ORDINAL="113" NAME="??0COfdListCt@@QAE@ABV0@@Z" PURGE="4" COMMENT="" />
    <EXPORT ORDINAL="114" NAME="??0COfdListCt@@QAE@PAUIOfdListCt@@H@Z" PURGE="8" COMMENT="" />
    <EXPORT ORDINAL="115" NAME="??0COfdListCt@@QAE@XZ" PURGE="0" COMMENT="" />
    <EXPORT ORDINAL="116" NAME="??0COfdListCustom@@QAE@ABV0@@Z" PURGE="4" COMMENT="" />
    <EXPORT ORDINAL="117" NAME="??0COfdListCustom@@QAE@PAUIOfdListCustom@@H@Z" PURGE="8" COMMENT="" />
    <EXPORT ORDINAL="118" NAME="??0COfdListCustom@@QAE@XZ" PURGE="0" COMMENT="" />
    <EXPORT ORDINAL="119" NAME="??0COfdListDel@@QAE@ABV0@@Z" PURGE="4" COMMENT="" />
    <EXPORT ORDINAL="120" NAME="??0COfdListDel@@QAE@PAUIOfdListDel@@H@Z" PURGE="8" COMMENT="" />
    <EXPORT ORDINAL="121" NAME="??0COfdListDel@@QAE@XZ" PURGE="0" COMMENT="" />
    <EXPORT ORDINAL="122" NAME="??0COfdListFi@@QAE@ABV0@@Z" PURGE="4" COMMENT="" />
    <EXPORT ORDINAL="123" NAME="??0COfdListFi@@QAE@PAUIOfdListFi@@H@Z" PURGE="8" COMMENT="" />
    <EXPORT ORDINAL="124" NAME="??0COfdListFi@@QAE@XZ" PURGE="0" COMMENT="" />
    <EXPORT ORDINAL="125" NAME="??0COfdListIvty@@QAE@ABV0@@Z" PURGE="4" COMMENT="" />
    <EXPORT ORDINAL="126" NAME="??0COfdListIvty@@QAE@PAUIOfdListIvty@@H@Z" PURGE="8" COMMENT="" />
    <EXPORT ORDINAL="127" NAME="??0COfdListIvty@@QAE@XZ" PURGE="0" COMMENT="" />
    <EXPORT ORDINAL="128" NAME="??0COfdListLot@@QAE@ABV0@@Z" PURGE="4" COMMENT="" />
    <EXPORT ORDINAL="129" NAME="??0COfdListLot@@QAE@PAUIOfdListLot@@H@Z" PURGE="8" COMMENT="" />
    <EXPORT ORDINAL="130" NAME="??0COfdListLot@@QAE@XZ" PURGE="0" COMMENT="" />
    <EXPORT ORDINAL="131" NAME="??0COfdListLotTrn@@QAE@ABV0@@Z" PURGE="4" COMMENT="" />
    <EXPORT ORDINAL="132" NAME="??0COfdListLotTrn@@QAE@PAUIOfdListLotTrn@@H@Z" PURGE="8" COMMENT="" />
    <EXPORT ORDINAL="133" NAME="??0COfdListLotTrn@@QAE@XZ" PURGE="0" COMMENT="" />
    <EXPORT ORDINAL="134" NAME="??0COfdListMail@@QAE@ABV0@@Z" PURGE="4" COMMENT="" />
    <EXPORT ORDINAL="135" NAME="??0COfdListMail@@QAE@PAUIOfdListMail@@H@Z" PURGE="8" COMMENT="" />
    <EXPORT ORDINAL="136" NAME="??0COfdListMail@@QAE@XZ" PURGE="0" COMMENT="" />
    <EXPORT ORDINAL="137" NAME="??0COfdListPay@@QAE@ABV0@@Z" PURGE="4" COMMENT="" />
    <EXPORT ORDINAL="138" NAME="??0COfdListPay@@QAE@PAUIOfdListPay@@H@Z" PURGE="8" COMMENT="" />
    <EXPORT ORDINAL="139" NAME="??0COfdListPay@@QAE@XZ" PURGE="0" COMMENT="" />
    <EXPORT ORDINAL="140" NAME="??0COfdListPgm@@QAE@ABV0@@Z" PURGE="4" COMMENT="" />
    <EXPORT ORDINAL="141" NAME="??0COfdListPgm@@QAE@PAUIOfdListPgm@@H@Z" PURGE="8" COMMENT="" />
    <EXPORT ORDINAL="142" NAME="??0COfdListPgm@@QAE@XZ" PURGE="0" COMMENT="" />
    <EXPORT ORDINAL="143" NAME="??0COfdListPmt@@QAE@ABV0@@Z" PURGE="4" COMMENT="" />
    <EXPORT ORDINAL="144" NAME="??0COfdListPmt@@QAE@PAUIOfdListPmt@@H@Z" PURGE="8" COMMENT="" />
    <EXPORT ORDINAL="145" NAME="??0COfdListPmt@@QAE@XZ" PURGE="0" COMMENT="" />
    <EXPORT ORDINAL="146" NAME="??0COfdListPortRec@@QAE@ABV0@@Z" PURGE="4" COMMENT="" />
    <EXPORT ORDINAL="147" NAME="??0COfdListPortRec@@QAE@PAUIOfdListPortRec@@H@Z" PURGE="8" COMMENT="" />
    <EXPORT ORDINAL="148" NAME="??0COfdListPortRec@@QAE@XZ" PURGE="0" COMMENT="" />
    <EXPORT ORDINAL="149" NAME="??0COfdListPosStmt@@QAE@ABV0@@Z" PURGE="4" COMMENT="" />
    <EXPORT ORDINAL="150" NAME="??0COfdListPosStmt@@QAE@PAUIOfdListPosStmt@@H@Z" PURGE="8" COMMENT="" />
    <EXPORT ORDINAL="151" NAME="??0COfdListPosStmt@@QAE@XZ" PURGE="0" COMMENT="" />
    <EXPORT ORDINAL="152" NAME="??0COfdListPrice@@QAE@ABV0@@Z" PURGE="4" COMMENT="" />
    <EXPORT ORDINAL="153" NAME="??0COfdListPrice@@QAE@PAUIOfdListPrice@@H@Z" PURGE="8" COMMENT="" />
    <EXPORT ORDINAL="154" NAME="??0COfdListPrice@@QAE@XZ" PURGE="0" COMMENT="" />
    <EXPORT ORDINAL="155" NAME="??0COfdListProduct@@QAE@ABV0@@Z" PURGE="4" COMMENT="" />
    <EXPORT ORDINAL="156" NAME="??0COfdListProduct@@QAE@PAUIOfdListProduct@@H@Z" PURGE="8" COMMENT="" />
    <EXPORT ORDINAL="157" NAME="??0COfdListProduct@@QAE@XZ" PURGE="0" COMMENT="" />
    <EXPORT ORDINAL="158" NAME="??0COfdListProj@@QAE@ABV0@@Z" PURGE="4" COMMENT="" />
    <EXPORT ORDINAL="159" NAME="??0COfdListProj@@QAE@PAUIOfdListProj@@H@Z" PURGE="8" COMMENT="" />
    <EXPORT ORDINAL="160" NAME="??0COfdListProj@@QAE@XZ" PURGE="0" COMMENT="" />
    <EXPORT ORDINAL="161" NAME="??0COfdListProvFi@@QAE@ABV0@@Z" PURGE="4" COMMENT="" />
    <EXPORT ORDINAL="162" NAME="??0COfdListProvFi@@QAE@PAUIOfdListProvFi@@H@Z" PURGE="8" COMMENT="" />
    <EXPORT ORDINAL="163" NAME="??0COfdListProvFi@@QAE@XZ" PURGE="0" COMMENT="" />
    <EXPORT ORDINAL="164" NAME="??0COfdListProvFiPay@@QAE@ABV0@@Z" PURGE="4" COMMENT="" />
    <EXPORT ORDINAL="165" NAME="??0COfdListProvFiPay@@QAE@PAUIOfdListProvFiPay@@H@Z" PURGE="8" COMMENT="" />
    <EXPORT ORDINAL="166" NAME="??0COfdListProvFiPay@@QAE@XZ" PURGE="0" COMMENT="" />
    <EXPORT ORDINAL="167" NAME="??0COfdListSavGoal@@QAE@ABV0@@Z" PURGE="4" COMMENT="" />
    <EXPORT ORDINAL="168" NAME="??0COfdListSavGoal@@QAE@PAUIOfdListSavGoal@@H@Z" PURGE="8" COMMENT="" />
    <EXPORT ORDINAL="169" NAME="??0COfdListSavGoal@@QAE@XZ" PURGE="0" COMMENT="" />
    <EXPORT ORDINAL="170" NAME="??0COfdListSec@@QAE@ABV0@@Z" PURGE="4" COMMENT="" />
    <EXPORT ORDINAL="171" NAME="??0COfdListSec@@QAE@PAUIOfdListSec@@H@Z" PURGE="8" COMMENT="" />
    <EXPORT ORDINAL="172" NAME="??0COfdListSec@@QAE@XZ" PURGE="0" COMMENT="" />
    <EXPORT ORDINAL="173" NAME="??0COfdListSoq@@QAE@ABV0@@Z" PURGE="4" COMMENT="" />
    <EXPORT ORDINAL="174" NAME="??0COfdListSoq@@QAE@PAUIOfdListSoq@@H@Z" PURGE="8" COMMENT="" />
    <EXPORT ORDINAL="175" NAME="??0COfdListSoq@@QAE@XZ" PURGE="0" COMMENT="" />
    <EXPORT ORDINAL="176" NAME="??0COfdListSplit@@QAE@ABV0@@Z" PURGE="4" COMMENT="" />
    <EXPORT ORDINAL="177" NAME="??0COfdListSplit@@QAE@PAUIOfdListSplit@@H@Z" PURGE="8" COMMENT="" />
    <EXPORT ORDINAL="178" NAME="??0COfdListSplit@@QAE@XZ" PURGE="0" COMMENT="" />
    <EXPORT ORDINAL="179" NAME="??0COfdListStmt@@QAE@ABV0@@Z" PURGE="4" COMMENT="" />
    <EXPORT ORDINAL="180" NAME="??0COfdListStmt@@QAE@PAUIOfdListStmt@@H@Z" PURGE="8" COMMENT="" />
    <EXPORT ORDINAL="181" NAME="??0COfdListStmt@@QAE@XZ" PURGE="0" COMMENT="" />
    <EXPORT ORDINAL="182" NAME="??0COfdListSvc@@QAE@ABV0@@Z" PURGE="4" COMMENT="" />
    <EXPORT ORDINAL="183" NAME="??0COfdListSvc@@QAE@PAUIOfdListSvc@@H@Z" PURGE="8" COMMENT="" />
    <EXPORT ORDINAL="184" NAME="??0COfdListSvc@@QAE@XZ" PURGE="0" COMMENT="" />
    <EXPORT ORDINAL="185" NAME="??0COfdListSync@@QAE@ABV0@@Z" PURGE="4" COMMENT="" />
    <EXPORT ORDINAL="186" NAME="??0COfdListSync@@QAE@PAUIOfdListSync@@H@Z" PURGE="8" COMMENT="" />
    <EXPORT ORDINAL="187" NAME="??0COfdListSync@@QAE@XZ" PURGE="0" COMMENT="" />
    <EXPORT ORDINAL="188" NAME="??0COfdListTaxline@@QAE@ABV0@@Z" PURGE="4" COMMENT="" />
    <EXPORT ORDINAL="189" NAME="??0COfdListTaxline@@QAE@PAUIOfdListTaxline@@H@Z" PURGE="8" COMMENT="" />
    <EXPORT ORDINAL="190" NAME="??0COfdListTaxline@@QAE@XZ" PURGE="0" COMMENT="" />
    <EXPORT ORDINAL="191" NAME="??0COfdListTmi@@QAE@ABV0@@Z" PURGE="4" COMMENT="" />
    <EXPORT ORDINAL="192" NAME="??0COfdListTmi@@QAE@PAUIOfdListTmi@@H@Z" PURGE="8" COMMENT="" />
    <EXPORT ORDINAL="193" NAME="??0COfdListTmi@@QAE@XZ" PURGE="0" COMMENT="" />
    <EXPORT ORDINAL="194" NAME="??0COfdListTrip@@QAE@ABV0@@Z" PURGE="4" COMMENT="" />
    <EXPORT ORDINAL="195" NAME="??0COfdListTrip@@QAE@PAUIOfdListTrip@@H@Z" PURGE="8" COMMENT="" />
    <EXPORT ORDINAL="196" NAME="??0COfdListTrip@@QAE@XZ" PURGE="0" COMMENT="" />
    <EXPORT ORDINAL="197" NAME="??0COfdListTrn@@QAE@ABV0@@Z" PURGE="4" COMMENT="" />
    <EXPORT ORDINAL="198" NAME="??0COfdListTrn@@QAE@PAUIOfdListTrn@@H@Z" PURGE="8" COMMENT="" />
    <EXPORT ORDINAL="199" NAME="??0COfdListTrn@@QAE@XZ" PURGE="0" COMMENT="" />
    <EXPORT ORDINAL="200" NAME="??0COfdListTrnPmts@@QAE@ABV0@@Z" PURGE="4" COMMENT="" />
    <EXPORT ORDINAL="201" NAME="??0COfdListTrnPmts@@QAE@PAUIOfdListTrnPmts@@H@Z" PURGE="8" COMMENT="" />
    <EXPORT ORDINAL="202" NAME="??0COfdListTrnPmts@@QAE@XZ" PURGE="0" COMMENT="" />
    <EXPORT ORDINAL="203" NAME="??0COfdListTxsrc@@QAE@ABV0@@Z" PURGE="4" COMMENT="" />
    <EXPORT ORDINAL="204" NAME="??0COfdListTxsrc@@QAE@PAUIOfdListTxsrc@@H@Z" PURGE="8" COMMENT="" />
    <EXPORT ORDINAL="205" NAME="??0COfdListTxsrc@@QAE@XZ" PURGE="0" COMMENT="" />
    <EXPORT ORDINAL="206" NAME="??0COfdListUie@@QAE@ABV0@@Z" PURGE="4" COMMENT="" />
    <EXPORT ORDINAL="207" NAME="??0COfdListUie@@QAE@PAUIOfdListUie@@H@Z" PURGE="8" COMMENT="" />
    <EXPORT ORDINAL="208" NAME="??0COfdListUie@@QAE@XZ" PURGE="0" COMMENT="" />
    <EXPORT ORDINAL="209" NAME="??0COfdListUnote@@QAE@ABV0@@Z" PURGE="4" COMMENT="" />
    <EXPORT ORDINAL="210" NAME="??0COfdListUnote@@QAE@PAUIOfdListUnote@@H@Z" PURGE="8" COMMENT="" />
    <EXPORT ORDINAL="211" NAME="??0COfdListUnote@@QAE@XZ" PURGE="0" COMMENT="" />
    <EXPORT ORDINAL="212" NAME="??0COfdListView@@QAE@ABV0@@Z" PURGE="4" COMMENT="" />
    <EXPORT ORDINAL="213" NAME="??0COfdListView@@QAE@PAUIOfdListView@@H@Z" PURGE="8" COMMENT="" />
    <EXPORT ORDINAL="214" NAME="??0COfdListView@@QAE@XZ" PURGE="0" COMMENT="" />
    <EXPORT ORDINAL="215" NAME="??0COfdListXbag@@QAE@ABV0@@Z" PURGE="4" COMMENT="" />
    <EXPORT ORDINAL="216" NAME="??0COfdListXbag@@QAE@PAUIOfdListXbag@@H@Z" PURGE="8" COMMENT="" />
    <EXPORT ORDINAL="217" NAME="??0COfdListXbag@@QAE@XZ" PURGE="0" COMMENT="" />
    <EXPORT ORDINAL="218" NAME="??0COfdLot@@QAE@ABV0@@Z" PURGE="4" COMMENT="" />
    <EXPORT ORDINAL="219" NAME="??0COfdLot@@QAE@PAUIOfdLot@@H@Z" PURGE="8" COMMENT="" />
    <EXPORT ORDINAL="220" NAME="??0COfdLot@@QAE@XZ" PURGE="0" COMMENT="" />
    <EXPORT ORDINAL="221" NAME="??0COfdLstep@@QAE@ABV0@@Z" PURGE="4" COMMENT="" />
    <EXPORT ORDINAL="222" NAME="??0COfdLstep@@QAE@PAUIOfdLstep@@H@Z" PURGE="8" COMMENT="" />
    <EXPORT ORDINAL="223" NAME="??0COfdLstep@@QAE@XZ" PURGE="0" COMMENT="" />
    <EXPORT ORDINAL="224" NAME="??0COfdMail@@QAE@ABV0@@Z" PURGE="4" COMMENT="" />
    <EXPORT ORDINAL="225" NAME="??0COfdMail@@QAE@PAUIOfdMail@@H@Z" PURGE="8" COMMENT="" />
    <EXPORT ORDINAL="226" NAME="??0COfdMail@@QAE@XZ" PURGE="0" COMMENT="" />
    <EXPORT ORDINAL="227" NAME="??0COfdNotifyEngine@@QAE@ABV0@@Z" PURGE="4" COMMENT="" />
    <EXPORT ORDINAL="228" NAME="??0COfdNotifyEngine@@QAE@XZ" PURGE="0" COMMENT="" />
    <EXPORT ORDINAL="229" NAME="??0COfdNotifyFile@@QAE@ABV0@@Z" PURGE="4" COMMENT="" />
    <EXPORT ORDINAL="230" NAME="??0COfdNotifyFile@@QAE@XZ" PURGE="0" COMMENT="" />
    <EXPORT ORDINAL="231" NAME="??0COfdNotifyList@@QAE@ABV0@@Z" PURGE="4" COMMENT="" />
    <EXPORT ORDINAL="232" NAME="??0COfdNotifyList@@QAE@XZ" PURGE="0" COMMENT="" />
    <EXPORT ORDINAL="233" NAME="??0COfdNotifyPool@@QAE@ABV0@@Z" PURGE="4" COMMENT="" />
    <EXPORT ORDINAL="234" NAME="??0COfdNotifyPool@@QAE@XZ" PURGE="0" COMMENT="" />
    <EXPORT ORDINAL="235" NAME="??0COfdObject@@QAE@ABV0@@Z" PURGE="4" COMMENT="" />
    <EXPORT ORDINAL="236" NAME="??0COfdObject@@QAE@PAUIUnknown@@H@Z" PURGE="8" COMMENT="" />
    <EXPORT ORDINAL="237" NAME="??0COfdObject@@QAE@XZ" PURGE="0" COMMENT="" />
    <EXPORT ORDINAL="238" NAME="??0COfdOleObject@@QAE@ABV0@@Z" PURGE="4" COMMENT="" />
    <EXPORT ORDINAL="239" NAME="??0COfdOleObject@@QAE@PAUIUnknown@@H@Z" PURGE="8" COMMENT="" />
    <EXPORT ORDINAL="240" NAME="??0COfdOleObject@@QAE@XZ" PURGE="0" COMMENT="" />
    <EXPORT ORDINAL="241" NAME="??0COfdPay@@QAE@ABV0@@Z" PURGE="4" COMMENT="" />
    <EXPORT ORDINAL="242" NAME="??0COfdPay@@QAE@PAUIOfdPay@@H@Z" PURGE="8" COMMENT="" />
    <EXPORT ORDINAL="243" NAME="??0COfdPay@@QAE@XZ" PURGE="0" COMMENT="" />
    <EXPORT ORDINAL="244" NAME="??0COfdPgm@@QAE@ABV0@@Z" PURGE="4" COMMENT="" />
    <EXPORT ORDINAL="245" NAME="??0COfdPgm@@QAE@PAUIOfdPgm@@H@Z" PURGE="8" COMMENT="" />
    <EXPORT ORDINAL="246" NAME="??0COfdPgm@@QAE@XZ" PURGE="0" COMMENT="" />
    <EXPORT ORDINAL="247" NAME="??0COfdPmt@@QAE@ABV0@@Z" PURGE="4" COMMENT="" />
    <EXPORT ORDINAL="248" NAME="??0COfdPmt@@QAE@PAUIOfdPmt@@H@Z" PURGE="8" COMMENT="" />
    <EXPORT ORDINAL="249" NAME="??0COfdPmt@@QAE@XZ" PURGE="0" COMMENT="" />
    <EXPORT ORDINAL="250" NAME="??0COfdPool@@QAE@ABV0@@Z" PURGE="4" COMMENT="" />
    <EXPORT ORDINAL="251" NAME="??0COfdPool@@QAE@PAUIOfdPool@@H@Z" PURGE="8" COMMENT="" />
    <EXPORT ORDINAL="252" NAME="??0COfdPool@@QAE@XZ" PURGE="0" COMMENT="" />
    <EXPORT ORDINAL="253" NAME="??0COfdPoolAcct@@QAE@ABV0@@Z" PURGE="4" COMMENT="" />
    <EXPORT ORDINAL="254" NAME="??0COfdPoolAcct@@QAE@PAUIOfdPoolAcct@@H@Z" PURGE="8" COMMENT="" />
    <EXPORT ORDINAL="255" NAME="??0COfdPoolAcct@@QAE@XZ" PURGE="0" COMMENT="" />
    <EXPORT ORDINAL="256" NAME="??0COfdPoolAdv@@QAE@ABV0@@Z" PURGE="4" COMMENT="" />
    <EXPORT ORDINAL="257" NAME="??0COfdPoolAdv@@QAE@PAUIOfdPoolAdv@@H@Z" PURGE="8" COMMENT="" />
    <EXPORT ORDINAL="258" NAME="??0COfdPoolAdv@@QAE@XZ" PURGE="0" COMMENT="" />
    <EXPORT ORDINAL="259" NAME="??0COfdPoolAuto@@QAE@ABV0@@Z" PURGE="4" COMMENT="" />
    <EXPORT ORDINAL="260" NAME="??0COfdPoolAuto@@QAE@PAUIOfdPoolAuto@@H@Z" PURGE="8" COMMENT="" />
    <EXPORT ORDINAL="261" NAME="??0COfdPoolAuto@@QAE@XZ" PURGE="0" COMMENT="" />
    <EXPORT ORDINAL="262" NAME="??0COfdPoolAwd@@QAE@ABV0@@Z" PURGE="4" COMMENT="" />
    <EXPORT ORDINAL="263" NAME="??0COfdPoolAwd@@QAE@PAUIOfdPoolAwd@@H@Z" PURGE="8" COMMENT="" />
    <EXPORT ORDINAL="264" NAME="??0COfdPoolAwd@@QAE@XZ" PURGE="0" COMMENT="" />
    <EXPORT ORDINAL="265" NAME="??0COfdPoolBgt@@QAE@ABV0@@Z" PURGE="4" COMMENT="" />
    <EXPORT ORDINAL="266" NAME="??0COfdPoolBgt@@QAE@PAUIOfdPoolBgt@@H@Z" PURGE="8" COMMENT="" />
    <EXPORT ORDINAL="267" NAME="??0COfdPoolBgt@@QAE@XZ" PURGE="0" COMMENT="" />
    <EXPORT ORDINAL="268" NAME="??0COfdPoolBgtBkt@@QAE@ABV0@@Z" PURGE="4" COMMENT="" />
    <EXPORT ORDINAL="269" NAME="??0COfdPoolBgtBkt@@QAE@PAUIOfdPoolBgtBkt@@H@Z" PURGE="8" COMMENT="" />
    <EXPORT ORDINAL="270" NAME="??0COfdPoolBgtBkt@@QAE@XZ" PURGE="0" COMMENT="" />
    <EXPORT ORDINAL="271" NAME="??0COfdPoolBgtItm@@QAE@ABV0@@Z" PURGE="4" COMMENT="" />
    <EXPORT ORDINAL="272" NAME="??0COfdPoolBgtItm@@QAE@PAUIOfdPoolBgtItm@@H@Z" PURGE="8" COMMENT="" />
    <EXPORT ORDINAL="273" NAME="??0COfdPoolBgtItm@@QAE@XZ" PURGE="0" COMMENT="" />
    <EXPORT ORDINAL="274" NAME="??0COfdPoolBill@@QAE@ABV0@@Z" PURGE="4" COMMENT="" />
    <EXPORT ORDINAL="275" NAME="??0COfdPoolBill@@QAE@PAUIOfdPoolBill@@H@Z" PURGE="8" COMMENT="" />
    <EXPORT ORDINAL="276" NAME="??0COfdPoolBill@@QAE@XZ" PURGE="0" COMMENT="" />
    <EXPORT ORDINAL="277" NAME="??0COfdPoolCat@@QAE@ABV0@@Z" PURGE="4" COMMENT="" />
    <EXPORT ORDINAL="278" NAME="??0COfdPoolCat@@QAE@PAUIOfdPoolCat@@H@Z" PURGE="8" COMMENT="" />
    <EXPORT ORDINAL="279" NAME="??0COfdPoolCat@@QAE@XZ" PURGE="0" COMMENT="" />
    <EXPORT ORDINAL="280" NAME="??0COfdPoolCntry@@QAE@ABV0@@Z" PURGE="4" COMMENT="" />
    <EXPORT ORDINAL="281" NAME="??0COfdPoolCntry@@QAE@PAUIOfdPoolCntry@@H@Z" PURGE="8" COMMENT="" />
    <EXPORT ORDINAL="282" NAME="??0COfdPoolCntry@@QAE@XZ" PURGE="0" COMMENT="" />
    <EXPORT ORDINAL="283" NAME="??0COfdPoolCrnc@@QAE@ABV0@@Z" PURGE="4" COMMENT="" />
    <EXPORT ORDINAL="284" NAME="??0COfdPoolCrnc@@QAE@PAUIOfdPoolCrnc@@H@Z" PURGE="8" COMMENT="" />
    <EXPORT ORDINAL="285" NAME="??0COfdPoolCrnc@@QAE@XZ" PURGE="0" COMMENT="" />
    <EXPORT ORDINAL="286" NAME="??0COfdPoolCt@@QAE@ABV0@@Z" PURGE="4" COMMENT="" />
    <EXPORT ORDINAL="287" NAME="??0COfdPoolCt@@QAE@PAUIOfdPoolCt@@H@Z" PURGE="8" COMMENT="" />
    <EXPORT ORDINAL="288" NAME="??0COfdPoolCt@@QAE@XZ" PURGE="0" COMMENT="" />
    <EXPORT ORDINAL="289" NAME="??0COfdPoolCustom@@QAE@ABV0@@Z" PURGE="4" COMMENT="" />
    <EXPORT ORDINAL="290" NAME="??0COfdPoolCustom@@QAE@PAUIOfdPoolCustom@@H@Z" PURGE="8" COMMENT="" />
    <EXPORT ORDINAL="291" NAME="??0COfdPoolCustom@@QAE@XZ" PURGE="0" COMMENT="" />
    <EXPORT ORDINAL="292" NAME="??0COfdPoolFi@@QAE@ABV0@@Z" PURGE="4" COMMENT="" />
    <EXPORT ORDINAL="293" NAME="??0COfdPoolFi@@QAE@PAUIOfdPoolFi@@H@Z" PURGE="8" COMMENT="" />
    <EXPORT ORDINAL="294" NAME="??0COfdPoolFi@@QAE@XZ" PURGE="0" COMMENT="" />
    <EXPORT ORDINAL="295" NAME="??0COfdPoolIvty@@QAE@ABV0@@Z" PURGE="4" COMMENT="" />
    <EXPORT ORDINAL="296" NAME="??0COfdPoolIvty@@QAE@PAUIOfdPoolIvty@@H@Z" PURGE="8" COMMENT="" />
    <EXPORT ORDINAL="297" NAME="??0COfdPoolIvty@@QAE@XZ" PURGE="0" COMMENT="" />
    <EXPORT ORDINAL="298" NAME="??0COfdPoolLot@@QAE@ABV0@@Z" PURGE="4" COMMENT="" />
    <EXPORT ORDINAL="299" NAME="??0COfdPoolLot@@QAE@PAUIOfdPoolLot@@H@Z" PURGE="8" COMMENT="" />
    <EXPORT ORDINAL="300" NAME="??0COfdPoolLot@@QAE@XZ" PURGE="0" COMMENT="" />
    <EXPORT ORDINAL="301" NAME="??0COfdPoolMail@@QAE@ABV0@@Z" PURGE="4" COMMENT="" />
    <EXPORT ORDINAL="302" NAME="??0COfdPoolMail@@QAE@PAUIOfdPoolMail@@H@Z" PURGE="8" COMMENT="" />
    <EXPORT ORDINAL="303" NAME="??0COfdPoolMail@@QAE@XZ" PURGE="0" COMMENT="" />
    <EXPORT ORDINAL="304" NAME="??0COfdPoolPay@@QAE@ABV0@@Z" PURGE="4" COMMENT="" />
    <EXPORT ORDINAL="305" NAME="??0COfdPoolPay@@QAE@PAUIOfdPoolPay@@H@Z" PURGE="8" COMMENT="" />
    <EXPORT ORDINAL="306" NAME="??0COfdPoolPay@@QAE@XZ" PURGE="0" COMMENT="" />
    <EXPORT ORDINAL="307" NAME="??0COfdPoolPgm@@QAE@ABV0@@Z" PURGE="4" COMMENT="" />
    <EXPORT ORDINAL="308" NAME="??0COfdPoolPgm@@QAE@PAUIOfdPoolPgm@@H@Z" PURGE="8" COMMENT="" />
    <EXPORT ORDINAL="309" NAME="??0COfdPoolPgm@@QAE@XZ" PURGE="0" COMMENT="" />
    <EXPORT ORDINAL="310" NAME="??0COfdPoolPmt@@QAE@ABV0@@Z" PURGE="4" COMMENT="" />
    <EXPORT ORDINAL="311" NAME="??0COfdPoolPmt@@QAE@PAUIOfdPoolPmt@@H@Z" PURGE="8" COMMENT="" />
    <EXPORT ORDINAL="312" NAME="??0COfdPoolPmt@@QAE@XZ" PURGE="0" COMMENT="" />
    <EXPORT ORDINAL="313" NAME="??0COfdPoolPortRec@@QAE@ABV0@@Z" PURGE="4" COMMENT="" />
    <EXPORT ORDINAL="314" NAME="??0COfdPoolPortRec@@QAE@PAUIOfdPoolPortRec@@H@Z" PURGE="8" COMMENT="" />
    <EXPORT ORDINAL="315" NAME="??0COfdPoolPortRec@@QAE@XZ" PURGE="0" COMMENT="" />
    <EXPORT ORDINAL="316" NAME="??0COfdPoolPosStmt@@QAE@ABV0@@Z" PURGE="4" COMMENT="" />
    <EXPORT ORDINAL="317" NAME="??0COfdPoolPosStmt@@QAE@PAUIOfdPoolPosStmt@@H@Z" PURGE="8" COMMENT="" />
    <EXPORT ORDINAL="318" NAME="??0COfdPoolPosStmt@@QAE@XZ" PURGE="0" COMMENT="" />
    <EXPORT ORDINAL="319" NAME="??0COfdPoolPrice@@QAE@ABV0@@Z" PURGE="4" COMMENT="" />
    <EXPORT ORDINAL="320" NAME="??0COfdPoolPrice@@QAE@PAUIOfdPoolPrice@@H@Z" PURGE="8" COMMENT="" />
    <EXPORT ORDINAL="321" NAME="??0COfdPoolPrice@@QAE@XZ" PURGE="0" COMMENT="" />
    <EXPORT ORDINAL="322" NAME="??0COfdPoolProduct@@QAE@ABV0@@Z" PURGE="4" COMMENT="" />
    <EXPORT ORDINAL="323" NAME="??0COfdPoolProduct@@QAE@PAUIOfdPoolProduct@@H@Z" PURGE="8" COMMENT="" />
    <EXPORT ORDINAL="324" NAME="??0COfdPoolProduct@@QAE@XZ" PURGE="0" COMMENT="" />
    <EXPORT ORDINAL="325" NAME="??0COfdPoolProj@@QAE@ABV0@@Z" PURGE="4" COMMENT="" />
    <EXPORT ORDINAL="326" NAME="??0COfdPoolProj@@QAE@PAUIOfdPoolProj@@H@Z" PURGE="8" COMMENT="" />
    <EXPORT ORDINAL="327" NAME="??0COfdPoolProj@@QAE@XZ" PURGE="0" COMMENT="" />
    <EXPORT ORDINAL="328" NAME="??0COfdPoolProvFi@@QAE@ABV0@@Z" PURGE="4" COMMENT="" />
    <EXPORT ORDINAL="329" NAME="??0COfdPoolProvFi@@QAE@PAUIOfdPoolProvFi@@H@Z" PURGE="8" COMMENT="" />
    <EXPORT ORDINAL="330" NAME="??0COfdPoolProvFi@@QAE@XZ" PURGE="0" COMMENT="" />
    <EXPORT ORDINAL="331" NAME="??0COfdPoolProvFiPay@@QAE@ABV0@@Z" PURGE="4" COMMENT="" />
    <EXPORT ORDINAL="332" NAME="??0COfdPoolProvFiPay@@QAE@PAUIOfdPoolProvFiPay@@H@Z" PURGE="8" COMMENT="" />
    <EXPORT ORDINAL="333" NAME="??0COfdPoolProvFiPay@@QAE@XZ" PURGE="0" COMMENT="" />
    <EXPORT ORDINAL="334" NAME="??0COfdPoolSavGoal@@QAE@ABV0@@Z" PURGE="4" COMMENT="" />
    <EXPORT ORDINAL="335" NAME="??0COfdPoolSavGoal@@QAE@PAUIOfdPoolSavGoal@@H@Z" PURGE="8" COMMENT="" />
    <EXPORT ORDINAL="336" NAME="??0COfdPoolSavGoal@@QAE@XZ" PURGE="0" COMMENT="" />
    <EXPORT ORDINAL="337" NAME="??0COfdPoolSec@@QAE@ABV0@@Z" PURGE="4" COMMENT="" />
    <EXPORT ORDINAL="338" NAME="??0COfdPoolSec@@QAE@PAUIOfdPoolSec@@H@Z" PURGE="8" COMMENT="" />
    <EXPORT ORDINAL="339" NAME="??0COfdPoolSec@@QAE@XZ" PURGE="0" COMMENT="" />
    <EXPORT ORDINAL="340" NAME="??0COfdPoolSoq@@QAE@ABV0@@Z" PURGE="4" COMMENT="" />
    <EXPORT ORDINAL="341" NAME="??0COfdPoolSoq@@QAE@PAUIOfdPoolSoq@@H@Z" PURGE="8" COMMENT="" />
    <EXPORT ORDINAL="342" NAME="??0COfdPoolSoq@@QAE@XZ" PURGE="0" COMMENT="" />
    <EXPORT ORDINAL="343" NAME="??0COfdPoolStmt@@QAE@ABV0@@Z" PURGE="4" COMMENT="" />
    <EXPORT ORDINAL="344" NAME="??0COfdPoolStmt@@QAE@PAUIOfdPoolStmt@@H@Z" PURGE="8" COMMENT="" />
    <EXPORT ORDINAL="345" NAME="??0COfdPoolStmt@@QAE@XZ" PURGE="0" COMMENT="" />
    <EXPORT ORDINAL="346" NAME="??0COfdPoolSvc@@QAE@ABV0@@Z" PURGE="4" COMMENT="" />
    <EXPORT ORDINAL="347" NAME="??0COfdPoolSvc@@QAE@PAUIOfdPoolSvc@@H@Z" PURGE="8" COMMENT="" />
    <EXPORT ORDINAL="348" NAME="??0COfdPoolSvc@@QAE@XZ" PURGE="0" COMMENT="" />
    <EXPORT ORDINAL="349" NAME="??0COfdPoolTaxline@@QAE@ABV0@@Z" PURGE="4" COMMENT="" />
    <EXPORT ORDINAL="350" NAME="??0COfdPoolTaxline@@QAE@PAUIOfdPoolTaxline@@H@Z" PURGE="8" COMMENT="" />
    <EXPORT ORDINAL="351" NAME="??0COfdPoolTaxline@@QAE@XZ" PURGE="0" COMMENT="" />
    <EXPORT ORDINAL="352" NAME="??0COfdPoolTmi@@QAE@ABV0@@Z" PURGE="4" COMMENT="" />
    <EXPORT ORDINAL="353" NAME="??0COfdPoolTmi@@QAE@PAUIOfdPoolTmi@@H@Z" PURGE="8" COMMENT="" />
    <EXPORT ORDINAL="354" NAME="??0COfdPoolTmi@@QAE@XZ" PURGE="0" COMMENT="" />
    <EXPORT ORDINAL="355" NAME="??0COfdPoolTrip@@QAE@ABV0@@Z" PURGE="4" COMMENT="" />
    <EXPORT ORDINAL="356" NAME="??0COfdPoolTrip@@QAE@PAUIOfdPoolTrip@@H@Z" PURGE="8" COMMENT="" />
    <EXPORT ORDINAL="357" NAME="??0COfdPoolTrip@@QAE@XZ" PURGE="0" COMMENT="" />
    <EXPORT ORDINAL="358" NAME="??0COfdPoolTrn@@QAE@ABV0@@Z" PURGE="4" COMMENT="" />
    <EXPORT ORDINAL="359" NAME="??0COfdPoolTrn@@QAE@PAUIOfdPoolTrn@@H@Z" PURGE="8" COMMENT="" />
    <EXPORT ORDINAL="360" NAME="??0COfdPoolTrn@@QAE@XZ" PURGE="0" COMMENT="" />
    <EXPORT ORDINAL="361" NAME="??0COfdPoolTxsrc@@QAE@ABV0@@Z" PURGE="4" COMMENT="" />
    <EXPORT ORDINAL="362" NAME="??0COfdPoolTxsrc@@QAE@PAUIOfdPoolTxsrc@@H@Z" PURGE="8" COMMENT="" />
    <EXPORT ORDINAL="363" NAME="??0COfdPoolTxsrc@@QAE@XZ" PURGE="0" COMMENT="" />
    <EXPORT ORDINAL="364" NAME="??0COfdPoolUie@@QAE@ABV0@@Z" PURGE="4" COMMENT="" />
    <EXPORT ORDINAL="365" NAME="??0COfdPoolUie@@QAE@PAUIOfdPoolUie@@H@Z" PURGE="8" COMMENT="" />
    <EXPORT ORDINAL="366" NAME="??0COfdPoolUie@@QAE@XZ" PURGE="0" COMMENT="" />
    <EXPORT ORDINAL="367" NAME="??0COfdPoolUnote@@QAE@ABV0@@Z" PURGE="4" COMMENT="" />
    <EXPORT ORDINAL="368" NAME="??0COfdPoolUnote@@QAE@PAUIOfdPoolUnote@@H@Z" PURGE="8" COMMENT="" />
    <EXPORT ORDINAL="369" NAME="??0COfdPoolUnote@@QAE@XZ" PURGE="0" COMMENT="" />
    <EXPORT ORDINAL="370" NAME="??0COfdPoolView@@QAE@ABV0@@Z" PURGE="4" COMMENT="" />
    <EXPORT ORDINAL="371" NAME="??0COfdPoolView@@QAE@PAUIOfdPoolView@@H@Z" PURGE="8" COMMENT="" />
    <EXPORT ORDINAL="372" NAME="??0COfdPoolView@@QAE@XZ" PURGE="0" COMMENT="" />
    <EXPORT ORDINAL="373" NAME="??0COfdPoolXbag@@QAE@ABV0@@Z" PURGE="4" COMMENT="" />
    <EXPORT ORDINAL="374" NAME="??0COfdPoolXbag@@QAE@PAUIOfdPoolXbag@@H@Z" PURGE="8" COMMENT="" />
    <EXPORT ORDINAL="375" NAME="??0COfdPoolXbag@@QAE@XZ" PURGE="0" COMMENT="" />
    <EXPORT ORDINAL="376" NAME="??0COfdPortRec@@QAE@ABV0@@Z" PURGE="4" COMMENT="" />
    <EXPORT ORDINAL="377" NAME="??0COfdPortRec@@QAE@PAUIOfdPortRec@@H@Z" PURGE="8" COMMENT="" />
    <EXPORT ORDINAL="378" NAME="??0COfdPortRec@@QAE@XZ" PURGE="0" COMMENT="" />
    <EXPORT ORDINAL="379" NAME="??0COfdPosStmt@@QAE@ABV0@@Z" PURGE="4" COMMENT="" />
    <EXPORT ORDINAL="380" NAME="??0COfdPosStmt@@QAE@PAUIOfdPosStmt@@H@Z" PURGE="8" COMMENT="" />
    <EXPORT ORDINAL="381" NAME="??0COfdPosStmt@@QAE@XZ" PURGE="0" COMMENT="" />
    <EXPORT ORDINAL="382" NAME="??0COfdPrice@@QAE@ABV0@@Z" PURGE="4" COMMENT="" />
    <EXPORT ORDINAL="383" NAME="??0COfdPrice@@QAE@PAUIOfdPrice@@H@Z" PURGE="8" COMMENT="" />
    <EXPORT ORDINAL="384" NAME="??0COfdPrice@@QAE@XZ" PURGE="0" COMMENT="" />
    <EXPORT ORDINAL="385" NAME="??0COfdProduct@@QAE@ABV0@@Z" PURGE="4" COMMENT="" />
    <EXPORT ORDINAL="386" NAME="??0COfdProduct@@QAE@PAUIOfdProduct@@H@Z" PURGE="8" COMMENT="" />
    <EXPORT ORDINAL="387" NAME="??0COfdProduct@@QAE@XZ" PURGE="0" COMMENT="" />
    <EXPORT ORDINAL="388" NAME="??0COfdProj@@QAE@ABV0@@Z" PURGE="4" COMMENT="" />
    <EXPORT ORDINAL="389" NAME="??0COfdProj@@QAE@PAUIOfdProj@@H@Z" PURGE="8" COMMENT="" />
    <EXPORT ORDINAL="390" NAME="??0COfdProj@@QAE@XZ" PURGE="0" COMMENT="" />
    <EXPORT ORDINAL="391" NAME="??0COfdProvFi@@QAE@ABV0@@Z" PURGE="4" COMMENT="" />
    <EXPORT ORDINAL="392" NAME="??0COfdProvFi@@QAE@PAUIOfdProvFi@@H@Z" PURGE="8" COMMENT="" />
    <EXPORT ORDINAL="393" NAME="??0COfdProvFi@@QAE@XZ" PURGE="0" COMMENT="" />
    <EXPORT ORDINAL="394" NAME="??0COfdProvFiPay@@QAE@ABV0@@Z" PURGE="4" COMMENT="" />
    <EXPORT ORDINAL="395" NAME="??0COfdProvFiPay@@QAE@PAUIOfdProvFiPay@@H@Z" PURGE="8" COMMENT="" />
    <EXPORT ORDINAL="396" NAME="??0COfdProvFiPay@@QAE@XZ" PURGE="0" COMMENT="" />
    <EXPORT ORDINAL="397" NAME="??0COfdSavGoal@@QAE@ABV0@@Z" PURGE="4" COMMENT="" />
    <EXPORT ORDINAL="398" NAME="??0COfdSavGoal@@QAE@PAUIOfdSavGoal@@H@Z" PURGE="8" COMMENT="" />
    <EXPORT ORDINAL="399" NAME="??0COfdSavGoal@@QAE@XZ" PURGE="0" COMMENT="" />
    <EXPORT ORDINAL="400" NAME="??0COfdSec@@QAE@ABV0@@Z" PURGE="4" COMMENT="" />
    <EXPORT ORDINAL="401" NAME="??0COfdSec@@QAE@PAUIOfdSec@@H@Z" PURGE="8" COMMENT="" />
    <EXPORT ORDINAL="402" NAME="??0COfdSec@@QAE@XZ" PURGE="0" COMMENT="" />
    <EXPORT ORDINAL="403" NAME="??0COfdSoq@@QAE@ABV0@@Z" PURGE="4" COMMENT="" />
    <EXPORT ORDINAL="404" NAME="??0COfdSoq@@QAE@PAUIOfdSoq@@H@Z" PURGE="8" COMMENT="" />
    <EXPORT ORDINAL="405" NAME="??0COfdSoq@@QAE@XZ" PURGE="0" COMMENT="" />
    <EXPORT ORDINAL="406" NAME="??0COfdStmt@@QAE@ABV0@@Z" PURGE="4" COMMENT="" />
    <EXPORT ORDINAL="407" NAME="??0COfdStmt@@QAE@PAUIOfdStmt@@H@Z" PURGE="8" COMMENT="" />
    <EXPORT ORDINAL="408" NAME="??0COfdStmt@@QAE@XZ" PURGE="0" COMMENT="" />
    <EXPORT ORDINAL="409" NAME="??0COfdSvc@@QAE@ABV0@@Z" PURGE="4" COMMENT="" />
    <EXPORT ORDINAL="410" NAME="??0COfdSvc@@QAE@PAUIOfdSvc@@H@Z" PURGE="8" COMMENT="" />
    <EXPORT ORDINAL="411" NAME="??0COfdSvc@@QAE@XZ" PURGE="0" COMMENT="" />
    <EXPORT ORDINAL="412" NAME="??0COfdTaxline@@QAE@ABV0@@Z" PURGE="4" COMMENT="" />
    <EXPORT ORDINAL="413" NAME="??0COfdTaxline@@QAE@PAUIOfdTaxline@@H@Z" PURGE="8" COMMENT="" />
    <EXPORT ORDINAL="414" NAME="??0COfdTaxline@@QAE@XZ" PURGE="0" COMMENT="" />
    <EXPORT ORDINAL="415" NAME="??0COfdTmi@@QAE@ABV0@@Z" PURGE="4" COMMENT="" />
    <EXPORT ORDINAL="416" NAME="??0COfdTmi@@QAE@PAUIOfdTmi@@H@Z" PURGE="8" COMMENT="" />
    <EXPORT ORDINAL="417" NAME="??0COfdTmi@@QAE@XZ" PURGE="0" COMMENT="" />
    <EXPORT ORDINAL="418" NAME="??0COfdTrip@@QAE@ABV0@@Z" PURGE="4" COMMENT="" />
    <EXPORT ORDINAL="419" NAME="??0COfdTrip@@QAE@PAUIOfdTrip@@H@Z" PURGE="8" COMMENT="" />
    <EXPORT ORDINAL="420" NAME="??0COfdTrip@@QAE@XZ" PURGE="0" COMMENT="" />
    <EXPORT ORDINAL="421" NAME="??0COfdTrn@@QAE@ABV0@@Z" PURGE="4" COMMENT="" />
    <EXPORT ORDINAL="422" NAME="??0COfdTrn@@QAE@PAUIOfdTrn@@H@Z" PURGE="8" COMMENT="" />
    <EXPORT ORDINAL="423" NAME="??0COfdTrn@@QAE@XZ" PURGE="0" COMMENT="" />
    <EXPORT ORDINAL="424" NAME="??0COfdTrnBase@@QAE@ABV0@@Z" PURGE="4" COMMENT="" />
    <EXPORT ORDINAL="425" NAME="??0COfdTrnBase@@QAE@PAUIOfdBill@@H@Z" PURGE="8" COMMENT="" />
    <EXPORT ORDINAL="426" NAME="??0COfdTrnBase@@QAE@PAUIOfdTrn@@H@Z" PURGE="8" COMMENT="" />
    <EXPORT ORDINAL="427" NAME="??0COfdTrnBase@@QAE@XZ" PURGE="0" COMMENT="" />
    <EXPORT ORDINAL="428" NAME="??0COfdTrnCalcs@@QAE@ABV0@@Z" PURGE="4" COMMENT="" />
    <EXPORT ORDINAL="429" NAME="??0COfdTrnCalcs@@QAE@PAUIOfdTrnCalcs@@H@Z" PURGE="8" COMMENT="" />
    <EXPORT ORDINAL="430" NAME="??0COfdTrnCalcs@@QAE@XZ" PURGE="0" COMMENT="" />
    <EXPORT ORDINAL="431" NAME="??0COfdTsz@@QAE@ABV0@@Z" PURGE="4" COMMENT="" />
    <EXPORT ORDINAL="432" NAME="??0COfdTsz@@QAE@PAG@Z" PURGE="4" COMMENT="" />
    <EXPORT ORDINAL="433" NAME="??0COfdTsz@@QAE@PAUtagVARIANT@@@Z" PURGE="4" COMMENT="" />
    <EXPORT ORDINAL="434" NAME="??0COfdTxsrc@@QAE@ABV0@@Z" PURGE="4" COMMENT="" />
    <EXPORT ORDINAL="435" NAME="??0COfdTxsrc@@QAE@PAUIOfdTxsrc@@H@Z" PURGE="8" COMMENT="" />
    <EXPORT ORDINAL="436" NAME="??0COfdTxsrc@@QAE@XZ" PURGE="0" COMMENT="" />
    <EXPORT ORDINAL="437" NAME="??0COfdUie@@QAE@ABV0@@Z" PURGE="4" COMMENT="" />
    <EXPORT ORDINAL="438" NAME="??0COfdUie@@QAE@PAUIOfdUie@@H@Z" PURGE="8" COMMENT="" />
    <EXPORT ORDINAL="439" NAME="??0COfdUie@@QAE@XZ" PURGE="0" COMMENT="" />
    <EXPORT ORDINAL="440" NAME="??0COfdUnote@@QAE@ABV0@@Z" PURGE="4" COMMENT="" />
    <EXPORT ORDINAL="441" NAME="??0COfdUnote@@QAE@PAUIOfdUnote@@H@Z" PURGE="8" COMMENT="" />
    <EXPORT ORDINAL="442" NAME="??0COfdUnote@@QAE@XZ" PURGE="0" COMMENT="" />
    <EXPORT ORDINAL="443" NAME="??0COfdVariant@@QAE@ABUtagVARIANT@@@Z" PURGE="4" COMMENT="" />
    <EXPORT ORDINAL="444" NAME="??0COfdVariant@@QAE@ABV0@@Z" PURGE="4" COMMENT="" />
    <EXPORT ORDINAL="445" NAME="??0COfdVariant@@QAE@ABVCBaseDateTime@@@Z" PURGE="4" COMMENT="" />
    <EXPORT ORDINAL="446" NAME="??0COfdVariant@@QAE@ABVCByteArray@@@Z" PURGE="4" COMMENT="" />
    <EXPORT ORDINAL="447" NAME="??0COfdVariant@@QAE@ABVCOfdBuffer@@@Z" PURGE="4" COMMENT="" />
    <EXPORT ORDINAL="448" NAME="??0COfdVariant@@QAE@ABVCOfdCurrency@@@Z" PURGE="4" COMMENT="" />
    <EXPORT ORDINAL="449" NAME="??0COfdVariant@@QAE@ABVCOfdDouble@@@Z" PURGE="4" COMMENT="" />
    <EXPORT ORDINAL="450" NAME="??0COfdVariant@@QAE@ABVCOfdOleObject@@@Z" PURGE="4" COMMENT="" />
    <EXPORT ORDINAL="451" NAME="??0COfdVariant@@QAE@E@Z" PURGE="4" COMMENT="" />
    <EXPORT ORDINAL="452" NAME="??0COfdVariant@@QAE@FG@Z" PURGE="8" COMMENT="" />
    <EXPORT ORDINAL="453" NAME="??0COfdVariant@@QAE@JG@Z" PURGE="8" COMMENT="" />
    <EXPORT ORDINAL="454" NAME="??0COfdVariant@@QAE@M@Z" PURGE="4" COMMENT="" />
    <EXPORT ORDINAL="455" NAME="??0COfdVariant@@QAE@N@Z" PURGE="8" COMMENT="" />
    <EXPORT ORDINAL="456" NAME="??0COfdVariant@@QAE@PBD@Z" PURGE="4" COMMENT="" />
    <EXPORT ORDINAL="457" NAME="??0COfdVariant@@QAE@PBUtagVARIANT@@@Z" PURGE="4" COMMENT="" />
    <EXPORT ORDINAL="458" NAME="??0COfdVariant@@QAE@XZ" PURGE="0" COMMENT="" />
    <EXPORT ORDINAL="459" NAME="??0COfdView@@QAE@ABV0@@Z" PURGE="4" COMMENT="" />
    <EXPORT ORDINAL="460" NAME="??0COfdView@@QAE@PAUIOfdView@@H@Z" PURGE="8" COMMENT="" />
    <EXPORT ORDINAL="461" NAME="??0COfdView@@QAE@XZ" PURGE="0" COMMENT="" />
    <EXPORT ORDINAL="462" NAME="??0COfdXbag@@QAE@ABV0@@Z" PURGE="4" COMMENT="" />
    <EXPORT ORDINAL="463" NAME="??0COfdXbag@@QAE@PAUIOfdXbag@@H@Z" PURGE="8" COMMENT="" />
    <EXPORT ORDINAL="464" NAME="??0COfdXbag@@QAE@XZ" PURGE="0" COMMENT="" />
    <EXPORT ORDINAL="465" NAME="??1COfdAcct@@UAE@XZ" PURGE="0" COMMENT="" />
    <EXPORT ORDINAL="466" NAME="??1COfdAddr@@UAE@XZ" PURGE="0" COMMENT="" />
    <EXPORT ORDINAL="467" NAME="??1COfdAdv@@UAE@XZ" PURGE="0" COMMENT="" />
    <EXPORT ORDINAL="468" NAME="??1COfdAuto@@UAE@XZ" PURGE="0" COMMENT="" />
    <EXPORT ORDINAL="469" NAME="??1COfdAwd@@UAE@XZ" PURGE="0" COMMENT="" />
    <EXPORT ORDINAL="470" NAME="??1COfdBgt@@UAE@XZ" PURGE="0" COMMENT="" />
    <EXPORT ORDINAL="471" NAME="??1COfdBgtBkt@@UAE@XZ" PURGE="0" COMMENT="" />
    <EXPORT ORDINAL="472" NAME="??1COfdBgtItm@@UAE@XZ" PURGE="0" COMMENT="" />
    <EXPORT ORDINAL="473" NAME="??1COfdBill@@UAE@XZ" PURGE="0" COMMENT="" />
    <EXPORT ORDINAL="474" NAME="??1COfdBrkStmt@@UAE@XZ" PURGE="0" COMMENT="" />
    <EXPORT ORDINAL="475" NAME="??1COfdBuffer@@QAE@XZ" PURGE="0" COMMENT="" />
    <EXPORT ORDINAL="476" NAME="??1COfdCat@@UAE@XZ" PURGE="0" COMMENT="" />
    <EXPORT ORDINAL="477" NAME="??1COfdCntry@@UAE@XZ" PURGE="0" COMMENT="" />
    <EXPORT ORDINAL="478" NAME="??1COfdCrit@@UAE@XZ" PURGE="0" COMMENT="" />
    <EXPORT ORDINAL="479" NAME="??1COfdCrnc@@UAE@XZ" PURGE="0" COMMENT="" />
    <EXPORT ORDINAL="480" NAME="??1COfdCt@@UAE@XZ" PURGE="0" COMMENT="" />
    <EXPORT ORDINAL="481" NAME="??1COfdCustom@@UAE@XZ" PURGE="0" COMMENT="" />
    <EXPORT ORDINAL="482" NAME="??1COfdEngine@@UAE@XZ" PURGE="0" COMMENT="" />
    <EXPORT ORDINAL="483" NAME="??1COfdException@@UAE@XZ" PURGE="0" COMMENT="" />
    <EXPORT ORDINAL="484" NAME="??1COfdFi@@UAE@XZ" PURGE="0" COMMENT="" />
    <EXPORT ORDINAL="485" NAME="??1COfdFile@@UAE@XZ" PURGE="0" COMMENT="" />
    <EXPORT ORDINAL="486" NAME="??1COfdIvty@@UAE@XZ" PURGE="0" COMMENT="" />
    <EXPORT ORDINAL="487" NAME="??1COfdList@@UAE@XZ" PURGE="0" COMMENT="" />
    <EXPORT ORDINAL="488" NAME="??1COfdListAcct@@UAE@XZ" PURGE="0" COMMENT="" />
    <EXPORT ORDINAL="489" NAME="??1COfdListAdv@@UAE@XZ" PURGE="0" COMMENT="" />
    <EXPORT ORDINAL="490" NAME="??1COfdListAuto@@UAE@XZ" PURGE="0" COMMENT="" />
    <EXPORT ORDINAL="491" NAME="??1COfdListAwd@@UAE@XZ" PURGE="0" COMMENT="" />
    <EXPORT ORDINAL="492" NAME="??1COfdListBgt@@UAE@XZ" PURGE="0" COMMENT="" />
    <EXPORT ORDINAL="493" NAME="??1COfdListBgtBkt@@UAE@XZ" PURGE="0" COMMENT="" />
    <EXPORT ORDINAL="494" NAME="??1COfdListBgtItm@@UAE@XZ" PURGE="0" COMMENT="" />
    <EXPORT ORDINAL="495" NAME="??1COfdListBill@@UAE@XZ" PURGE="0" COMMENT="" />
    <EXPORT ORDINAL="496" NAME="??1COfdListCat@@UAE@XZ" PURGE="0" COMMENT="" />
    <EXPORT ORDINAL="497" NAME="??1COfdListCntry@@UAE@XZ" PURGE="0" COMMENT="" />
    <EXPORT ORDINAL="498" NAME="??1COfdListCrit@@UAE@XZ" PURGE="0" COMMENT="" />
    <EXPORT ORDINAL="499" NAME="??1COfdListCrnc@@UAE@XZ" PURGE="0" COMMENT="" />
    <EXPORT ORDINAL="500" NAME="??1COfdListCt@@UAE@XZ" PURGE="0" COMMENT="" />
    <EXPORT ORDINAL="501" NAME="??1COfdListCustom@@UAE@XZ" PURGE="0" COMMENT="" />
    <EXPORT ORDINAL="502" NAME="??1COfdListDel@@UAE@XZ" PURGE="0" COMMENT="" />
    <EXPORT ORDINAL="503" NAME="??1COfdListFi@@UAE@XZ" PURGE="0" COMMENT="" />
    <EXPORT ORDINAL="504" NAME="??1COfdListIvty@@UAE@XZ" PURGE="0" COMMENT="" />
    <EXPORT ORDINAL="505" NAME="??1COfdListLot@@UAE@XZ" PURGE="0" COMMENT="" />
    <EXPORT ORDINAL="506" NAME="??1COfdListLotTrn@@UAE@XZ" PURGE="0" COMMENT="" />
    <EXPORT ORDINAL="507" NAME="??1COfdListMail@@UAE@XZ" PURGE="0" COMMENT="" />
    <EXPORT ORDINAL="508" NAME="??1COfdListPay@@UAE@XZ" PURGE="0" COMMENT="" />
    <EXPORT ORDINAL="509" NAME="??1COfdListPgm@@UAE@XZ" PURGE="0" COMMENT="" />
    <EXPORT ORDINAL="510" NAME="??1COfdListPmt@@UAE@XZ" PURGE="0" COMMENT="" />
    <EXPORT ORDINAL="511" NAME="??1COfdListPortRec@@UAE@XZ" PURGE="0" COMMENT="" />
    <EXPORT ORDINAL="512" NAME="??1COfdListPosStmt@@UAE@XZ" PURGE="0" COMMENT="" />
    <EXPORT ORDINAL="513" NAME="??1COfdListPrice@@UAE@XZ" PURGE="0" COMMENT="" />
    <EXPORT ORDINAL="514" NAME="??1COfdListProduct@@UAE@XZ" PURGE="0" COMMENT="" />
    <EXPORT ORDINAL="515" NAME="??1COfdListProj@@UAE@XZ" PURGE="0" COMMENT="" />
    <EXPORT ORDINAL="516" NAME="??1COfdListProvFi@@UAE@XZ" PURGE="0" COMMENT="" />
    <EXPORT ORDINAL="517" NAME="??1COfdListProvFiPay@@UAE@XZ" PURGE="0" COMMENT="" />
    <EXPORT ORDINAL="518" NAME="??1COfdListSavGoal@@UAE@XZ" PURGE="0" COMMENT="" />
    <EXPORT ORDINAL="519" NAME="??1COfdListSec@@UAE@XZ" PURGE="0" COMMENT="" />
    <EXPORT ORDINAL="520" NAME="??1COfdListSoq@@UAE@XZ" PURGE="0" COMMENT="" />
    <EXPORT ORDINAL="521" NAME="??1COfdListSplit@@UAE@XZ" PURGE="0" COMMENT="" />
    <EXPORT ORDINAL="522" NAME="??1COfdListStmt@@UAE@XZ" PURGE="0" COMMENT="" />
    <EXPORT ORDINAL="523" NAME="??1COfdListSvc@@UAE@XZ" PURGE="0" COMMENT="" />
    <EXPORT ORDINAL="524" NAME="??1COfdListSync@@UAE@XZ" PURGE="0" COMMENT="" />
    <EXPORT ORDINAL="525" NAME="??1COfdListTaxline@@UAE@XZ" PURGE="0" COMMENT="" />
    <EXPORT ORDINAL="526" NAME="??1COfdListTmi@@UAE@XZ" PURGE="0" COMMENT="" />
    <EXPORT ORDINAL="527" NAME="??1COfdListTrip@@UAE@XZ" PURGE="0" COMMENT="" />
    <EXPORT ORDINAL="528" NAME="??1COfdListTrn@@UAE@XZ" PURGE="0" COMMENT="" />
    <EXPORT ORDINAL="529" NAME="??1COfdListTrnPmts@@UAE@XZ" PURGE="0" COMMENT="" />
    <EXPORT ORDINAL="530" NAME="??1COfdListTxsrc@@UAE@XZ" PURGE="0" COMMENT="" />
    <EXPORT ORDINAL="531" NAME="??1COfdListUie@@UAE@XZ" PURGE="0" COMMENT="" />
    <EXPORT ORDINAL="532" NAME="??1COfdListUnote@@UAE@XZ" PURGE="0" COMMENT="" />
    <EXPORT ORDINAL="533" NAME="??1COfdListView@@UAE@XZ" PURGE="0" COMMENT="" />
    <EXPORT ORDINAL="534" NAME="??1COfdListXbag@@UAE@XZ" PURGE="0" COMMENT="" />
    <EXPORT ORDINAL="535" NAME="??1COfdLot@@UAE@XZ" PURGE="0" COMMENT="" />
    <EXPORT ORDINAL="536" NAME="??1COfdLstep@@UAE@XZ" PURGE="0" COMMENT="" />
    <EXPORT ORDINAL="537" NAME="??1COfdMail@@UAE@XZ" PURGE="0" COMMENT="" />
    <EXPORT ORDINAL="538" NAME="??1COfdNotifyEngine@@QAE@XZ" PURGE="0" COMMENT="" />
    <EXPORT ORDINAL="539" NAME="??1COfdNotifyFile@@QAE@XZ" PURGE="0" COMMENT="" />
    <EXPORT ORDINAL="540" NAME="??1COfdNotifyList@@QAE@XZ" PURGE="0" COMMENT="" />
    <EXPORT ORDINAL="541" NAME="??1COfdNotifyPool@@QAE@XZ" PURGE="0" COMMENT="" />
    <EXPORT ORDINAL="542" NAME="??1COfdObject@@UAE@XZ" PURGE="0" COMMENT="" />
    <EXPORT ORDINAL="543" NAME="??1COfdOleObject@@UAE@XZ" PURGE="0" COMMENT="" />
    <EXPORT ORDINAL="544" NAME="??1COfdPay@@UAE@XZ" PURGE="0" COMMENT="" />
    <EXPORT ORDINAL="545" NAME="??1COfdPgm@@UAE@XZ" PURGE="0" COMMENT="" />
    <EXPORT ORDINAL="546" NAME="??1COfdPmt@@UAE@XZ" PURGE="0" COMMENT="" />
    <EXPORT ORDINAL="547" NAME="??1COfdPool@@UAE@XZ" PURGE="0" COMMENT="" />
    <EXPORT ORDINAL="548" NAME="??1COfdPoolAcct@@UAE@XZ" PURGE="0" COMMENT="" />
    <EXPORT ORDINAL="549" NAME="??1COfdPoolAdv@@UAE@XZ" PURGE="0" COMMENT="" />
    <EXPORT ORDINAL="550" NAME="??1COfdPoolAuto@@UAE@XZ" PURGE="0" COMMENT="" />
    <EXPORT ORDINAL="551" NAME="??1COfdPoolAwd@@UAE@XZ" PURGE="0" COMMENT="" />
    <EXPORT ORDINAL="552" NAME="??1COfdPoolBgt@@UAE@XZ" PURGE="0" COMMENT="" />
    <EXPORT ORDINAL="553" NAME="??1COfdPoolBgtBkt@@UAE@XZ" PURGE="0" COMMENT="" />
    <EXPORT ORDINAL="554" NAME="??1COfdPoolBgtItm@@UAE@XZ" PURGE="0" COMMENT="" />
    <EXPORT ORDINAL="555" NAME="??1COfdPoolBill@@UAE@XZ" PURGE="0" COMMENT="" />
    <EXPORT ORDINAL="556" NAME="??1COfdPoolCat@@UAE@XZ" PURGE="0" COMMENT="" />
    <EXPORT ORDINAL="557" NAME="??1COfdPoolCntry@@UAE@XZ" PURGE="0" COMMENT="" />
    <EXPORT ORDINAL="558" NAME="??1COfdPoolCrnc@@UAE@XZ" PURGE="0" COMMENT="" />
    <EXPORT ORDINAL="559" NAME="??1COfdPoolCt@@UAE@XZ" PURGE="0" COMMENT="" />
    <EXPORT ORDINAL="560" NAME="??1COfdPoolCustom@@UAE@XZ" PURGE="0" COMMENT="" />
    <EXPORT ORDINAL="561" NAME="??1COfdPoolFi@@UAE@XZ" PURGE="0" COMMENT="" />
    <EXPORT ORDINAL="562" NAME="??1COfdPoolIvty@@UAE@XZ" PURGE="0" COMMENT="" />
    <EXPORT ORDINAL="563" NAME="??1COfdPoolLot@@UAE@XZ" PURGE="0" COMMENT="" />
    <EXPORT ORDINAL="564" NAME="??1COfdPoolMail@@UAE@XZ" PURGE="0" COMMENT="" />
    <EXPORT ORDINAL="565" NAME="??1COfdPoolPay@@UAE@XZ" PURGE="0" COMMENT="" />
    <EXPORT ORDINAL="566" NAME="??1COfdPoolPgm@@UAE@XZ" PURGE="0" COMMENT="" />
    <EXPORT ORDINAL="567" NAME="??1COfdPoolPmt@@UAE@XZ" PURGE="0" COMMENT="" />
    <EXPORT ORDINAL="568" NAME="??1COfdPoolPortRec@@UAE@XZ" PURGE="0" COMMENT="" />
    <EXPORT ORDINAL="569" NAME="??1COfdPoolPosStmt@@UAE@XZ" PURGE="0" COMMENT="" />
    <EXPORT ORDINAL="570" NAME="??1COfdPoolPrice@@UAE@XZ" PURGE="0" COMMENT="" />
    <EXPORT ORDINAL="571" NAME="??1COfdPoolProduct@@UAE@XZ" PURGE="0" COMMENT="" />
    <EXPORT ORDINAL="572" NAME="??1COfdPoolProj@@UAE@XZ" PURGE="0" COMMENT="" />
    <EXPORT ORDINAL="573" NAME="??1COfdPoolProvFi@@UAE@XZ" PURGE="0" COMMENT="" />
    <EXPORT ORDINAL="574" NAME="??1COfdPoolProvFiPay@@UAE@XZ" PURGE="0" COMMENT="" />
    <EXPORT ORDINAL="575" NAME="??1COfdPoolSavGoal@@UAE@XZ" PURGE="0" COMMENT="" />
    <EXPORT ORDINAL="576" NAME="??1COfdPoolSec@@UAE@XZ" PURGE="0" COMMENT="" />
    <EXPORT ORDINAL="577" NAME="??1COfdPoolSoq@@UAE@XZ" PURGE="0" COMMENT="" />
    <EXPORT ORDINAL="578" NAME="??1COfdPoolStmt@@UAE@XZ" PURGE="0" COMMENT="" />
    <EXPORT ORDINAL="579" NAME="??1COfdPoolSvc@@UAE@XZ" PURGE="0" COMMENT="" />
    <EXPORT ORDINAL="580" NAME="??1COfdPoolTaxline@@UAE@XZ" PURGE="0" COMMENT="" />
    <EXPORT ORDINAL="581" NAME="??1COfdPoolTmi@@UAE@XZ" PURGE="0" COMMENT="" />
    <EXPORT ORDINAL="582" NAME="??1COfdPoolTrip@@UAE@XZ" PURGE="0" COMMENT="" />
    <EXPORT ORDINAL="583" NAME="??1COfdPoolTrn@@UAE@XZ" PURGE="0" COMMENT="" />
    <EXPORT ORDINAL="584" NAME="??1COfdPoolTxsrc@@UAE@XZ" PURGE="0" COMMENT="" />
    <EXPORT ORDINAL="585" NAME="??1COfdPoolUie@@UAE@XZ" PURGE="0" COMMENT="" />
    <EXPORT ORDINAL="586" NAME="??1COfdPoolUnote@@UAE@XZ" PURGE="0" COMMENT="" />
    <EXPORT ORDINAL="587" NAME="??1COfdPoolView@@UAE@XZ" PURGE="0" COMMENT="" />
    <EXPORT ORDINAL="588" NAME="??1COfdPoolXbag@@UAE@XZ" PURGE="0" COMMENT="" />
    <EXPORT ORDINAL="589" NAME="??1COfdPortRec@@UAE@XZ" PURGE="0" COMMENT="" />
    <EXPORT ORDINAL="590" NAME="??1COfdPosStmt@@UAE@XZ" PURGE="0" COMMENT="" />
    <EXPORT ORDINAL="591" NAME="??1COfdPrice@@UAE@XZ" PURGE="0" COMMENT="" />
    <EXPORT ORDINAL="592" NAME="??1COfdProduct@@UAE@XZ" PURGE="0" COMMENT="" />
    <EXPORT ORDINAL="593" NAME="??1COfdProj@@UAE@XZ" PURGE="0" COMMENT="" />
    <EXPORT ORDINAL="594" NAME="??1COfdProvFi@@UAE@XZ" PURGE="0" COMMENT="" />
    <EXPORT ORDINAL="595" NAME="??1COfdProvFiPay@@UAE@XZ" PURGE="0" COMMENT="" />
    <EXPORT ORDINAL="596" NAME="??1COfdSavGoal@@UAE@XZ" PURGE="0" COMMENT="" />
    <EXPORT ORDINAL="597" NAME="??1COfdSec@@UAE@XZ" PURGE="0" COMMENT="" />
    <EXPORT ORDINAL="598" NAME="??1COfdSoq@@UAE@XZ" PURGE="0" COMMENT="" />
    <EXPORT ORDINAL="599" NAME="??1COfdStmt@@UAE@XZ" PURGE="0" COMMENT="" />
    <EXPORT ORDINAL="600" NAME="??1COfdSvc@@UAE@XZ" PURGE="0" COMMENT="" />
    <EXPORT ORDINAL="601" NAME="??1COfdTaxline@@UAE@XZ" PURGE="0" COMMENT="" />
    <EXPORT ORDINAL="602" NAME="??1COfdTmi@@UAE@XZ" PURGE="0" COMMENT="" />
    <EXPORT ORDINAL="603" NAME="??1COfdTrip@@UAE@XZ" PURGE="0" COMMENT="" />
    <EXPORT ORDINAL="604" NAME="??1COfdTrn@@UAE@XZ" PURGE="0" COMMENT="" />
    <EXPORT ORDINAL="605" NAME="??1COfdTrnBase@@UAE@XZ" PURGE="0" COMMENT="" />
    <EXPORT ORDINAL="606" NAME="??1COfdTrnCalcs@@UAE@XZ" PURGE="0" COMMENT="" />
    <EXPORT ORDINAL="607" NAME="??1COfdTsz@@QAE@XZ" PURGE="0" COMMENT="" />
    <EXPORT ORDINAL="608" NAME="??1COfdTxsrc@@UAE@XZ" PURGE="0" COMMENT="" />
    <EXPORT ORDINAL="609" NAME="??1COfdUie@@UAE@XZ" PURGE="0" COMMENT="" />
    <EXPORT ORDINAL="610" NAME="??1COfdUnote@@UAE@XZ" PURGE="0" COMMENT="" />
    <EXPORT ORDINAL="611" NAME="??1COfdVariant@@QAE@XZ" PURGE="0" COMMENT="" />
    <EXPORT ORDINAL="612" NAME="??1COfdView@@UAE@XZ" PURGE="0" COMMENT="" />
    <EXPORT ORDINAL="613" NAME="??1COfdXbag@@UAE@XZ" PURGE="0" COMMENT="" />
    <EXPORT ORDINAL="614" NAME="??4CBillTri@@QAEAAV0@ABV0@@Z" PURGE="4" COMMENT="" />
    <EXPORT ORDINAL="615" NAME="??4COfdAcct@@QAEAAV0@ABV0@@Z" PURGE="4" COMMENT="" />
    <EXPORT ORDINAL="616" NAME="??4COfdAddr@@QAEAAV0@ABV0@@Z" PURGE="4" COMMENT="" />
    <EXPORT ORDINAL="617" NAME="??4COfdAdv@@QAEAAV0@ABV0@@Z" PURGE="4" COMMENT="" />
    <EXPORT ORDINAL="618" NAME="??4COfdAuto@@QAEAAV0@ABV0@@Z" PURGE="4" COMMENT="" />
    <EXPORT ORDINAL="619" NAME="??4COfdAwd@@QAEAAV0@ABV0@@Z" PURGE="4" COMMENT="" />
    <EXPORT ORDINAL="620" NAME="??4COfdBgt@@QAEAAV0@ABV0@@Z" PURGE="4" COMMENT="" />
    <EXPORT ORDINAL="621" NAME="??4COfdBgtBkt@@QAEAAV0@ABV0@@Z" PURGE="4" COMMENT="" />
    <EXPORT ORDINAL="622" NAME="??4COfdBgtItm@@QAEAAV0@ABV0@@Z" PURGE="4" COMMENT="" />
    <EXPORT ORDINAL="623" NAME="??4COfdBill@@QAEAAV0@ABV0@@Z" PURGE="4" COMMENT="" />
    <EXPORT ORDINAL="624" NAME="??4COfdBrkStmt@@QAEAAV0@ABV0@@Z" PURGE="4" COMMENT="" />
    <EXPORT ORDINAL="625" NAME="??4COfdBuffer@@QAEAAV0@ABV0@@Z" PURGE="4" COMMENT="" />
    <EXPORT ORDINAL="626" NAME="??4COfdCat@@QAEAAV0@ABV0@@Z" PURGE="4" COMMENT="" />
    <EXPORT ORDINAL="627" NAME="??4COfdCntry@@QAEAAV0@ABV0@@Z" PURGE="4" COMMENT="" />
    <EXPORT ORDINAL="628" NAME="??4COfdCrit@@QAEAAV0@ABV0@@Z" PURGE="4" COMMENT="" />
    <EXPORT ORDINAL="629" NAME="??4COfdCrnc@@QAEAAV0@ABV0@@Z" PURGE="4" COMMENT="" />
    <EXPORT ORDINAL="630" NAME="??4COfdCt@@QAEAAV0@ABV0@@Z" PURGE="4" COMMENT="" />
    <EXPORT ORDINAL="631" NAME="??4COfdCurrency@@QAEAAV0@ABV0@@Z" PURGE="4" COMMENT="" />
    <EXPORT ORDINAL="632" NAME="??4COfdCustom@@QAEAAV0@ABV0@@Z" PURGE="4" COMMENT="" />
    <EXPORT ORDINAL="633" NAME="??4COfdDouble@@QAEAAV0@ABV0@@Z" PURGE="4" COMMENT="" />
    <EXPORT ORDINAL="634" NAME="??4COfdDouble@@QAEAAV0@N@Z" PURGE="8" COMMENT="" />
    <EXPORT ORDINAL="635" NAME="??4COfdEngine@@QAEAAV0@ABV0@@Z" PURGE="4" COMMENT="" />
    <EXPORT ORDINAL="636" NAME="??4COfdFi@@QAEAAV0@ABV0@@Z" PURGE="4" COMMENT="" />
    <EXPORT ORDINAL="637" NAME="??4COfdFile@@QAEAAV0@ABV0@@Z" PURGE="4" COMMENT="" />
    <EXPORT ORDINAL="638" NAME="??4COfdIvty@@QAEAAV0@ABV0@@Z" PURGE="4" COMMENT="" />
    <EXPORT ORDINAL="639" NAME="??4COfdList@@QAEAAV0@ABV0@@Z" PURGE="4" COMMENT="" />
    <EXPORT ORDINAL="640" NAME="??4COfdListAcct@@QAEAAV0@ABV0@@Z" PURGE="4" COMMENT="" />
    <EXPORT ORDINAL="641" NAME="??4COfdListAdv@@QAEAAV0@ABV0@@Z" PURGE="4" COMMENT="" />
    <EXPORT ORDINAL="642" NAME="??4COfdListAuto@@QAEAAV0@ABV0@@Z" PURGE="4" COMMENT="" />
    <EXPORT ORDINAL="643" NAME="??4COfdListAwd@@QAEAAV0@ABV0@@Z" PURGE="4" COMMENT="" />
    <EXPORT ORDINAL="644" NAME="??4COfdListBgt@@QAEAAV0@ABV0@@Z" PURGE="4" COMMENT="" />
    <EXPORT ORDINAL="645" NAME="??4COfdListBgtBkt@@QAEAAV0@ABV0@@Z" PURGE="4" COMMENT="" />
    <EXPORT ORDINAL="646" NAME="??4COfdListBgtItm@@QAEAAV0@ABV0@@Z" PURGE="4" COMMENT="" />
    <EXPORT ORDINAL="647" NAME="??4COfdListBill@@QAEAAV0@ABV0@@Z" PURGE="4" COMMENT="" />
    <EXPORT ORDINAL="648" NAME="??4COfdListCat@@QAEAAV0@ABV0@@Z" PURGE="4" COMMENT="" />
    <EXPORT ORDINAL="649" NAME="??4COfdListCntry@@QAEAAV0@ABV0@@Z" PURGE="4" COMMENT="" />
    <EXPORT ORDINAL="650" NAME="??4COfdListCrit@@QAEAAV0@ABV0@@Z" PURGE="4" COMMENT="" />
    <EXPORT ORDINAL="651" NAME="??4COfdListCrnc@@QAEAAV0@ABV0@@Z" PURGE="4" COMMENT="" />
    <EXPORT ORDINAL="652" NAME="??4COfdListCt@@QAEAAV0@ABV0@@Z" PURGE="4" COMMENT="" />
    <EXPORT ORDINAL="653" NAME="??4COfdListCustom@@QAEAAV0@ABV0@@Z" PURGE="4" COMMENT="" />
    <EXPORT ORDINAL="654" NAME="??4COfdListDel@@QAEAAV0@ABV0@@Z" PURGE="4" COMMENT="" />
    <EXPORT ORDINAL="655" NAME="??4COfdListFi@@QAEAAV0@ABV0@@Z" PURGE="4" COMMENT="" />
    <EXPORT ORDINAL="656" NAME="??4COfdListIvty@@QAEAAV0@ABV0@@Z" PURGE="4" COMMENT="" />
    <EXPORT ORDINAL="657" NAME="??4COfdListLot@@QAEAAV0@ABV0@@Z" PURGE="4" COMMENT="" />
    <EXPORT ORDINAL="658" NAME="??4COfdListLotTrn@@QAEAAV0@ABV0@@Z" PURGE="4" COMMENT="" />
    <EXPORT ORDINAL="659" NAME="??4COfdListMail@@QAEAAV0@ABV0@@Z" PURGE="4" COMMENT="" />
    <EXPORT ORDINAL="660" NAME="??4COfdListPay@@QAEAAV0@ABV0@@Z" PURGE="4" COMMENT="" />
    <EXPORT ORDINAL="661" NAME="??4COfdListPgm@@QAEAAV0@ABV0@@Z" PURGE="4" COMMENT="" />
    <EXPORT ORDINAL="662" NAME="??4COfdListPmt@@QAEAAV0@ABV0@@Z" PURGE="4" COMMENT="" />
    <EXPORT ORDINAL="663" NAME="??4COfdListPortRec@@QAEAAV0@ABV0@@Z" PURGE="4" COMMENT="" />
    <EXPORT ORDINAL="664" NAME="??4COfdListPosStmt@@QAEAAV0@ABV0@@Z" PURGE="4" COMMENT="" />
    <EXPORT ORDINAL="665" NAME="??4COfdListPrice@@QAEAAV0@ABV0@@Z" PURGE="4" COMMENT="" />
    <EXPORT ORDINAL="666" NAME="??4COfdListProduct@@QAEAAV0@ABV0@@Z" PURGE="4" COMMENT="" />
    <EXPORT ORDINAL="667" NAME="??4COfdListProj@@QAEAAV0@ABV0@@Z" PURGE="4" COMMENT="" />
    <EXPORT ORDINAL="668" NAME="??4COfdListProvFi@@QAEAAV0@ABV0@@Z" PURGE="4" COMMENT="" />
    <EXPORT ORDINAL="669" NAME="??4COfdListProvFiPay@@QAEAAV0@ABV0@@Z" PURGE="4" COMMENT="" />
    <EXPORT ORDINAL="670" NAME="??4COfdListSavGoal@@QAEAAV0@ABV0@@Z" PURGE="4" COMMENT="" />
    <EXPORT ORDINAL="671" NAME="??4COfdListSec@@QAEAAV0@ABV0@@Z" PURGE="4" COMMENT="" />
    <EXPORT ORDINAL="672" NAME="??4COfdListSoq@@QAEAAV0@ABV0@@Z" PURGE="4" COMMENT="" />
    <EXPORT ORDINAL="673" NAME="??4COfdListSplit@@QAEAAV0@ABV0@@Z" PURGE="4" COMMENT="" />
    <EXPORT ORDINAL="674" NAME="??4COfdListStmt@@QAEAAV0@ABV0@@Z" PURGE="4" COMMENT="" />
    <EXPORT ORDINAL="675" NAME="??4COfdListSvc@@QAEAAV0@ABV0@@Z" PURGE="4" COMMENT="" />
    <EXPORT ORDINAL="676" NAME="??4COfdListSync@@QAEAAV0@ABV0@@Z" PURGE="4" COMMENT="" />
    <EXPORT ORDINAL="677" NAME="??4COfdListTaxline@@QAEAAV0@ABV0@@Z" PURGE="4" COMMENT="" />
    <EXPORT ORDINAL="678" NAME="??4COfdListTmi@@QAEAAV0@ABV0@@Z" PURGE="4" COMMENT="" />
    <EXPORT ORDINAL="679" NAME="??4COfdListTrip@@QAEAAV0@ABV0@@Z" PURGE="4" COMMENT="" />
    <EXPORT ORDINAL="680" NAME="??4COfdListTrn@@QAEAAV0@ABV0@@Z" PURGE="4" COMMENT="" />
    <EXPORT ORDINAL="681" NAME="??4COfdListTrnPmts@@QAEAAV0@ABV0@@Z" PURGE="4" COMMENT="" />
    <EXPORT ORDINAL="682" NAME="??4COfdListTxsrc@@QAEAAV0@ABV0@@Z" PURGE="4" COMMENT="" />
    <EXPORT ORDINAL="683" NAME="??4COfdListUie@@QAEAAV0@ABV0@@Z" PURGE="4" COMMENT="" />
    <EXPORT ORDINAL="684" NAME="??4COfdListUnote@@QAEAAV0@ABV0@@Z" PURGE="4" COMMENT="" />
    <EXPORT ORDINAL="685" NAME="??4COfdListView@@QAEAAV0@ABV0@@Z" PURGE="4" COMMENT="" />
    <EXPORT ORDINAL="686" NAME="??4COfdListXbag@@QAEAAV0@ABV0@@Z" PURGE="4" COMMENT="" />
    <EXPORT ORDINAL="687" NAME="??4COfdLot@@QAEAAV0@ABV0@@Z" PURGE="4" COMMENT="" />
    <EXPORT ORDINAL="688" NAME="??4COfdLstep@@QAEAAV0@ABV0@@Z" PURGE="4" COMMENT="" />
    <EXPORT ORDINAL="689" NAME="??4COfdMail@@QAEAAV0@ABV0@@Z" PURGE="4" COMMENT="" />
    <EXPORT ORDINAL="690" NAME="??4COfdNotifyEngine@@QAEAAV0@ABV0@@Z" PURGE="4" COMMENT="" />
    <EXPORT ORDINAL="691" NAME="??4COfdNotifyFile@@QAEAAV0@ABV0@@Z" PURGE="4" COMMENT="" />
    <EXPORT ORDINAL="692" NAME="??4COfdNotifyList@@QAEAAV0@ABV0@@Z" PURGE="4" COMMENT="" />
    <EXPORT ORDINAL="693" NAME="??4COfdNotifyPool@@QAEAAV0@ABV0@@Z" PURGE="4" COMMENT="" />
    <EXPORT ORDINAL="694" NAME="??4COfdObject@@QAEAAV0@ABV0@@Z" PURGE="4" COMMENT="" />
    <EXPORT ORDINAL="695" NAME="??4COfdOleObject@@QAEAAV0@ABV0@@Z" PURGE="4" COMMENT="" />
    <EXPORT ORDINAL="696" NAME="??4COfdPay@@QAEAAV0@ABV0@@Z" PURGE="4" COMMENT="" />
    <EXPORT ORDINAL="697" NAME="??4COfdPgm@@QAEAAV0@ABV0@@Z" PURGE="4" COMMENT="" />
    <EXPORT ORDINAL="698" NAME="??4COfdPmt@@QAEAAV0@ABV0@@Z" PURGE="4" COMMENT="" />
    <EXPORT ORDINAL="699" NAME="??4COfdPool@@QAEAAV0@ABV0@@Z" PURGE="4" COMMENT="" />
    <EXPORT ORDINAL="700" NAME="??4COfdPoolAcct@@QAEAAV0@ABV0@@Z" PURGE="4" COMMENT="" />
    <EXPORT ORDINAL="701" NAME="??4COfdPoolAdv@@QAEAAV0@ABV0@@Z" PURGE="4" COMMENT="" />
    <EXPORT ORDINAL="702" NAME="??4COfdPoolAuto@@QAEAAV0@ABV0@@Z" PURGE="4" COMMENT="" />
    <EXPORT ORDINAL="703" NAME="??4COfdPoolAwd@@QAEAAV0@ABV0@@Z" PURGE="4" COMMENT="" />
    <EXPORT ORDINAL="704" NAME="??4COfdPoolBgt@@QAEAAV0@ABV0@@Z" PURGE="4" COMMENT="" />
    <EXPORT ORDINAL="705" NAME="??4COfdPoolBgtBkt@@QAEAAV0@ABV0@@Z" PURGE="4" COMMENT="" />
    <EXPORT ORDINAL="706" NAME="??4COfdPoolBgtItm@@QAEAAV0@ABV0@@Z" PURGE="4" COMMENT="" />
    <EXPORT ORDINAL="707" NAME="??4COfdPoolBill@@QAEAAV0@ABV0@@Z" PURGE="4" COMMENT="" />
    <EXPORT ORDINAL="708" NAME="??4COfdPoolCat@@QAEAAV0@ABV0@@Z" PURGE="4" COMMENT="" />
    <EXPORT ORDINAL="709" NAME="??4COfdPoolCntry@@QAEAAV0@ABV0@@Z" PURGE="4" COMMENT="" />
    <EXPORT ORDINAL="710" NAME="??4COfdPoolCrnc@@QAEAAV0@ABV0@@Z" PURGE="4" COMMENT="" />
    <EXPORT ORDINAL="711" NAME="??4COfdPoolCt@@QAEAAV0@ABV0@@Z" PURGE="4" COMMENT="" />
    <EXPORT ORDINAL="712" NAME="??4COfdPoolCustom@@QAEAAV0@ABV0@@Z" PURGE="4" COMMENT="" />
    <EXPORT ORDINAL="713" NAME="??4COfdPoolFi@@QAEAAV0@ABV0@@Z" PURGE="4" COMMENT="" />
    <EXPORT ORDINAL="714" NAME="??4COfdPoolIvty@@QAEAAV0@ABV0@@Z" PURGE="4" COMMENT="" />
    <EXPORT ORDINAL="715" NAME="??4COfdPoolLot@@QAEAAV0@ABV0@@Z" PURGE="4" COMMENT="" />
    <EXPORT ORDINAL="716" NAME="??4COfdPoolMail@@QAEAAV0@ABV0@@Z" PURGE="4" COMMENT="" />
    <EXPORT ORDINAL="717" NAME="??4COfdPoolPay@@QAEAAV0@ABV0@@Z" PURGE="4" COMMENT="" />
    <EXPORT ORDINAL="718" NAME="??4COfdPoolPgm@@QAEAAV0@ABV0@@Z" PURGE="4" COMMENT="" />
    <EXPORT ORDINAL="719" NAME="??4COfdPoolPmt@@QAEAAV0@ABV0@@Z" PURGE="4" COMMENT="" />
    <EXPORT ORDINAL="720" NAME="??4COfdPoolPortRec@@QAEAAV0@ABV0@@Z" PURGE="4" COMMENT="" />
    <EXPORT ORDINAL="721" NAME="??4COfdPoolPosStmt@@QAEAAV0@ABV0@@Z" PURGE="4" COMMENT="" />
    <EXPORT ORDINAL="722" NAME="??4COfdPoolPrice@@QAEAAV0@ABV0@@Z" PURGE="4" COMMENT="" />
    <EXPORT ORDINAL="723" NAME="??4COfdPoolProduct@@QAEAAV0@ABV0@@Z" PURGE="4" COMMENT="" />
    <EXPORT ORDINAL="724" NAME="??4COfdPoolProj@@QAEAAV0@ABV0@@Z" PURGE="4" COMMENT="" />
    <EXPORT ORDINAL="725" NAME="??4COfdPoolProvFi@@QAEAAV0@ABV0@@Z" PURGE="4" COMMENT="" />
    <EXPORT ORDINAL="726" NAME="??4COfdPoolProvFiPay@@QAEAAV0@ABV0@@Z" PURGE="4" COMMENT="" />
    <EXPORT ORDINAL="727" NAME="??4COfdPoolSavGoal@@QAEAAV0@ABV0@@Z" PURGE="4" COMMENT="" />
    <EXPORT ORDINAL="728" NAME="??4COfdPoolSec@@QAEAAV0@ABV0@@Z" PURGE="4" COMMENT="" />
    <EXPORT ORDINAL="729" NAME="??4COfdPoolSoq@@QAEAAV0@ABV0@@Z" PURGE="4" COMMENT="" />
    <EXPORT ORDINAL="730" NAME="??4COfdPoolStmt@@QAEAAV0@ABV0@@Z" PURGE="4" COMMENT="" />
    <EXPORT ORDINAL="731" NAME="??4COfdPoolSvc@@QAEAAV0@ABV0@@Z" PURGE="4" COMMENT="" />
    <EXPORT ORDINAL="732" NAME="??4COfdPoolTaxline@@QAEAAV0@ABV0@@Z" PURGE="4" COMMENT="" />
    <EXPORT ORDINAL="733" NAME="??4COfdPoolTmi@@QAEAAV0@ABV0@@Z" PURGE="4" COMMENT="" />
    <EXPORT ORDINAL="734" NAME="??4COfdPoolTrip@@QAEAAV0@ABV0@@Z" PURGE="4" COMMENT="" />
    <EXPORT ORDINAL="735" NAME="??4COfdPoolTrn@@QAEAAV0@ABV0@@Z" PURGE="4" COMMENT="" />
    <EXPORT ORDINAL="736" NAME="??4COfdPoolTxsrc@@QAEAAV0@ABV0@@Z" PURGE="4" COMMENT="" />
    <EXPORT ORDINAL="737" NAME="??4COfdPoolUie@@QAEAAV0@ABV0@@Z" PURGE="4" COMMENT="" />
    <EXPORT ORDINAL="738" NAME="??4COfdPoolUnote@@QAEAAV0@ABV0@@Z" PURGE="4" COMMENT="" />
    <EXPORT ORDINAL="739" NAME="??4COfdPoolView@@QAEAAV0@ABV0@@Z" PURGE="4" COMMENT="" />
    <EXPORT ORDINAL="740" NAME="??4COfdPoolXbag@@QAEAAV0@ABV0@@Z" PURGE="4" COMMENT="" />
    <EXPORT ORDINAL="741" NAME="??4COfdPortRec@@QAEAAV0@ABV0@@Z" PURGE="4" COMMENT="" />
    <EXPORT ORDINAL="742" NAME="??4COfdPosStmt@@QAEAAV0@ABV0@@Z" PURGE="4" COMMENT="" />
    <EXPORT ORDINAL="743" NAME="??4COfdPrice@@QAEAAV0@ABV0@@Z" PURGE="4" COMMENT="" />
    <EXPORT ORDINAL="744" NAME="??4COfdProduct@@QAEAAV0@ABV0@@Z" PURGE="4" COMMENT="" />
    <EXPORT ORDINAL="745" NAME="??4COfdProj@@QAEAAV0@ABV0@@Z" PURGE="4" COMMENT="" />
    <EXPORT ORDINAL="746" NAME="??4COfdProvFi@@QAEAAV0@ABV0@@Z" PURGE="4" COMMENT="" />
    <EXPORT ORDINAL="747" NAME="??4COfdProvFiPay@@QAEAAV0@ABV0@@Z" PURGE="4" COMMENT="" />
    <EXPORT ORDINAL="748" NAME="??4COfdSavGoal@@QAEAAV0@ABV0@@Z" PURGE="4" COMMENT="" />
    <EXPORT ORDINAL="749" NAME="??4COfdSec@@QAEAAV0@ABV0@@Z" PURGE="4" COMMENT="" />
    <EXPORT ORDINAL="750" NAME="??4COfdSoq@@QAEAAV0@ABV0@@Z" PURGE="4" COMMENT="" />
    <EXPORT ORDINAL="751" NAME="??4COfdStmt@@QAEAAV0@ABV0@@Z" PURGE="4" COMMENT="" />
    <EXPORT ORDINAL="752" NAME="??4COfdSvc@@QAEAAV0@ABV0@@Z" PURGE="4" COMMENT="" />
    <EXPORT ORDINAL="753" NAME="??4COfdTaxline@@QAEAAV0@ABV0@@Z" PURGE="4" COMMENT="" />
    <EXPORT ORDINAL="754" NAME="??4COfdTmi@@QAEAAV0@ABV0@@Z" PURGE="4" COMMENT="" />
    <EXPORT ORDINAL="755" NAME="??4COfdTrip@@QAEAAV0@ABV0@@Z" PURGE="4" COMMENT="" />
    <EXPORT ORDINAL="756" NAME="??4COfdTrn@@QAEAAV0@ABV0@@Z" PURGE="4" COMMENT="" />
    <EXPORT ORDINAL="757" NAME="??4COfdTrnBase@@QAEAAV0@ABV0@@Z" PURGE="4" COMMENT="" />
    <EXPORT ORDINAL="758" NAME="??4COfdTrnCalcs@@QAEAAV0@ABV0@@Z" PURGE="4" COMMENT="" />
    <EXPORT ORDINAL="759" NAME="??4COfdTsz@@QAEAAV0@ABV0@@Z" PURGE="4" COMMENT="" />
    <EXPORT ORDINAL="760" NAME="??4COfdTxsrc@@QAEAAV0@ABV0@@Z" PURGE="4" COMMENT="" />
    <EXPORT ORDINAL="761" NAME="??4COfdUie@@QAEAAV0@ABV0@@Z" PURGE="4" COMMENT="" />
    <EXPORT ORDINAL="762" NAME="??4COfdUnote@@QAEAAV0@ABV0@@Z" PURGE="4" COMMENT="" />
    <EXPORT ORDINAL="763" NAME="??4COfdVariant@@QAEABV0@ABUtagVARIANT@@@Z" PURGE="4" COMMENT="" />
    <EXPORT ORDINAL="764" NAME="??4COfdVariant@@QAEABV0@ABV0@@Z" PURGE="4" COMMENT="" />
    <EXPORT ORDINAL="765" NAME="??4COfdVariant@@QAEABV0@E@Z" PURGE="4" COMMENT="" />
    <EXPORT ORDINAL="766" NAME="??4COfdVariant@@QAEABV0@F@Z" PURGE="4" COMMENT="" />
    <EXPORT ORDINAL="767" NAME="??4COfdVariant@@QAEABV0@J@Z" PURGE="4" COMMENT="" />
    <EXPORT ORDINAL="768" NAME="??4COfdVariant@@QAEABV0@M@Z" PURGE="4" COMMENT="" />
    <EXPORT ORDINAL="769" NAME="??4COfdVariant@@QAEABV0@N@Z" PURGE="8" COMMENT="" />
    <EXPORT ORDINAL="770" NAME="??4COfdVariant@@QAEABV0@PBUtagVARIANT@@@Z" PURGE="4" COMMENT="" />
    <EXPORT ORDINAL="771" NAME="??4COfdVariant@@QAEABV0@QAUIUnknown@@@Z" PURGE="4" COMMENT="" />
    <EXPORT ORDINAL="772" NAME="??4COfdVariant@@QAEXQBD@Z" PURGE="4" COMMENT="" />
    <EXPORT ORDINAL="773" NAME="??4COfdView@@QAEAAV0@ABV0@@Z" PURGE="4" COMMENT="" />
    <EXPORT ORDINAL="774" NAME="??4COfdXbag@@QAEAAV0@ABV0@@Z" PURGE="4" COMMENT="" />
    <EXPORT ORDINAL="775" NAME="??8CBillTri@@QBEHABV0@@Z" PURGE="4" COMMENT="" />
    <EXPORT ORDINAL="776" NAME="??8COfdOleObject@@QBEHABV0@@Z" PURGE="4" COMMENT="" />
    <EXPORT ORDINAL="777" NAME="??8COfdVariant@@QBEHABUtagVARIANT@@@Z" PURGE="4" COMMENT="" />
    <EXPORT ORDINAL="778" NAME="??8COfdVariant@@QBEHPBUtagVARIANT@@@Z" PURGE="4" COMMENT="" />
    <EXPORT ORDINAL="779" NAME="??9CBillTri@@QBEHABV0@@Z" PURGE="4" COMMENT="" />
    <EXPORT ORDINAL="780" NAME="??9COfdOleObject@@QBEHABV0@@Z" PURGE="4" COMMENT="" />
    <EXPORT ORDINAL="781" NAME="??BCOfdBuffer@@QBEPAXXZ" PURGE="0" COMMENT="" />
    <EXPORT ORDINAL="782" NAME="??BCOfdCurrency@@QBE?ATtagCY@@XZ" PURGE="4" COMMENT="" />
    <EXPORT ORDINAL="783" NAME="??BCOfdCurrency@@QBE?AUAMTOLD@@XZ" PURGE="4" COMMENT="" />
    <EXPORT ORDINAL="784" NAME="??BCOfdDouble@@QBENXZ" PURGE="0" COMMENT="" />
    <EXPORT ORDINAL="785" NAME="??BCOfdTsz@@QBEPBDXZ" PURGE="0" COMMENT="" />
    <EXPORT ORDINAL="786" NAME="??BCOfdVariant@@QAEPAUtagVARIANT@@XZ" PURGE="0" COMMENT="" />
    <EXPORT ORDINAL="787" NAME="??BCOfdVariant@@QBEPBUtagVARIANT@@XZ" PURGE="0" COMMENT="" />
    <EXPORT ORDINAL="788" NAME="??_7COfdAcct@@6B@" PURGE="-1" COMMENT="" />
    <EXPORT ORDINAL="789" NAME="??_7COfdAddr@@6B@" PURGE="-1" COMMENT="" />
    <EXPORT ORDINAL="790" NAME="??_7COfdAdv@@6B@" PURGE="-1" COMMENT="" />
    <EXPORT ORDINAL="791" NAME="??_7COfdAuto@@6B@" PURGE="-1" COMMENT="" />
    <EXPORT ORDINAL="792" NAME="??_7COfdAwd@@6B@" PURGE="-1" COMMENT="" />
    <EXPORT ORDINAL="793" NAME="??_7COfdBgt@@6B@" PURGE="-1" COMMENT="" />
    <EXPORT ORDINAL="794" NAME="??_7COfdBgtBkt@@6B@" PURGE="-1" COMMENT="" />
    <EXPORT ORDINAL="795" NAME="??_7COfdBgtItm@@6B@" PURGE="-1" COMMENT="" />
    <EXPORT ORDINAL="796" NAME="??_7COfdBill@@6B@" PURGE="-1" COMMENT="" />
    <EXPORT ORDINAL="797" NAME="??_7COfdBrkStmt@@6B@" PURGE="-1" COMMENT="" />
    <EXPORT ORDINAL="798" NAME="??_7COfdCat@@6B@" PURGE="-1" COMMENT="" />
    <EXPORT ORDINAL="799" NAME="??_7COfdCntry@@6B@" PURGE="-1" COMMENT="" />
    <EXPORT ORDINAL="800" NAME="??_7COfdCrit@@6B@" PURGE="-1" COMMENT="" />
    <EXPORT ORDINAL="801" NAME="??_7COfdCrnc@@6B@" PURGE="-1" COMMENT="" />
    <EXPORT ORDINAL="802" NAME="??_7COfdCt@@6B@" PURGE="-1" COMMENT="" />
    <EXPORT ORDINAL="803" NAME="??_7COfdCustom@@6B@" PURGE="-1" COMMENT="" />
    <EXPORT ORDINAL="804" NAME="??_7COfdEngine@@6B@" PURGE="-1" COMMENT="" />
    <EXPORT ORDINAL="805" NAME="??_7COfdException@@6B@" PURGE="10785" COMMENT="" />
    <EXPORT ORDINAL="806" NAME="??_7COfdFi@@6B@" PURGE="-1" COMMENT="" />
    <EXPORT ORDINAL="807" NAME="??_7COfdFile@@6B@" PURGE="-1" COMMENT="" />
    <EXPORT ORDINAL="808" NAME="??_7COfdIvty@@6B@" PURGE="-1" COMMENT="" />
    <EXPORT ORDINAL="809" NAME="??_7COfdList@@6B@" PURGE="-1" COMMENT="" />
    <EXPORT ORDINAL="810" NAME="??_7COfdListAcct@@6B@" PURGE="-1" COMMENT="" />
    <EXPORT ORDINAL="811" NAME="??_7COfdListAdv@@6B@" PURGE="-1" COMMENT="" />
    <EXPORT ORDINAL="812" NAME="??_7COfdListAuto@@6B@" PURGE="-1" COMMENT="" />
    <EXPORT ORDINAL="813" NAME="??_7COfdListAwd@@6B@" PURGE="-1" COMMENT="" />
    <EXPORT ORDINAL="814" NAME="??_7COfdListBgt@@6B@" PURGE="-1" COMMENT="" />
    <EXPORT ORDINAL="815" NAME="??_7COfdListBgtBkt@@6B@" PURGE="-1" COMMENT="" />
    <EXPORT ORDINAL="816" NAME="??_7COfdListBgtItm@@6B@" PURGE="-1" COMMENT="" />
    <EXPORT ORDINAL="817" NAME="??_7COfdListBill@@6B@" PURGE="-1" COMMENT="" />
    <EXPORT ORDINAL="818" NAME="??_7COfdListCat@@6B@" PURGE="-1" COMMENT="" />
    <EXPORT ORDINAL="819" NAME="??_7COfdListCntry@@6B@" PURGE="-1" COMMENT="" />
    <EXPORT ORDINAL="820" NAME="??_7COfdListCrit@@6B@" PURGE="-1" COMMENT="" />
    <EXPORT ORDINAL="821" NAME="??_7COfdListCrnc@@6B@" PURGE="-1" COMMENT="" />
    <EXPORT ORDINAL="822" NAME="??_7COfdListCt@@6B@" PURGE="-1" COMMENT="" />
    <EXPORT ORDINAL="823" NAME="??_7COfdListCustom@@6B@" PURGE="-1" COMMENT="" />
    <EXPORT ORDINAL="824" NAME="??_7COfdListDel@@6B@" PURGE="-1" COMMENT="" />
    <EXPORT ORDINAL="825" NAME="??_7COfdListFi@@6B@" PURGE="-1" COMMENT="" />
    <EXPORT ORDINAL="826" NAME="??_7COfdListIvty@@6B@" PURGE="-1" COMMENT="" />
    <EXPORT ORDINAL="827" NAME="??_7COfdListLot@@6B@" PURGE="-1" COMMENT="" />
    <EXPORT ORDINAL="828" NAME="??_7COfdListLotTrn@@6B@" PURGE="-1" COMMENT="" />
    <EXPORT ORDINAL="829" NAME="??_7COfdListMail@@6B@" PURGE="-1" COMMENT="" />
    <EXPORT ORDINAL="830" NAME="??_7COfdListPay@@6B@" PURGE="-1" COMMENT="" />
    <EXPORT ORDINAL="831" NAME="??_7COfdListPgm@@6B@" PURGE="-1" COMMENT="" />
    <EXPORT ORDINAL="832" NAME="??_7COfdListPmt@@6B@" PURGE="-1" COMMENT="" />
    <EXPORT ORDINAL="833" NAME="??_7COfdListPortRec@@6B@" PURGE="-1" COMMENT="" />
    <EXPORT ORDINAL="834" NAME="??_7COfdListPosStmt@@6B@" PURGE="-1" COMMENT="" />
    <EXPORT ORDINAL="835" NAME="??_7COfdListPrice@@6B@" PURGE="-1" COMMENT="" />
    <EXPORT ORDINAL="836" NAME="??_7COfdListProduct@@6B@" PURGE="-1" COMMENT="" />
    <EXPORT ORDINAL="837" NAME="??_7COfdListProj@@6B@" PURGE="-1" COMMENT="" />
    <EXPORT ORDINAL="838" NAME="??_7COfdListProvFi@@6B@" PURGE="-1" COMMENT="" />
    <EXPORT ORDINAL="839" NAME="??_7COfdListProvFiPay@@6B@" PURGE="-1" COMMENT="" />
    <EXPORT ORDINAL="840" NAME="??_7COfdListSavGoal@@6B@" PURGE="-1" COMMENT="" />
    <EXPORT ORDINAL="841" NAME="??_7COfdListSec@@6B@" PURGE="-1" COMMENT="" />
    <EXPORT ORDINAL="842" NAME="??_7COfdListSoq@@6B@" PURGE="-1" COMMENT="" />
    <EXPORT ORDINAL="843" NAME="??_7COfdListSplit@@6B@" PURGE="-1" COMMENT="" />
    <EXPORT ORDINAL="844" NAME="??_7COfdListStmt@@6B@" PURGE="-1" COMMENT="" />
    <EXPORT ORDINAL="845" NAME="??_7COfdListSvc@@6B@" PURGE="-1" COMMENT="" />
    <EXPORT ORDINAL="846" NAME="??_7COfdListSync@@6B@" PURGE="-1" COMMENT="" />
    <EXPORT ORDINAL="847" NAME="??_7COfdListTaxline@@6B@" PURGE="-1" COMMENT="" />
    <EXPORT ORDINAL="848" NAME="??_7COfdListTmi@@6B@" PURGE="-1" COMMENT="" />
    <EXPORT ORDINAL="849" NAME="??_7COfdListTrip@@6B@" PURGE="-1" COMMENT="" />
    <EXPORT ORDINAL="850" NAME="??_7COfdListTrn@@6B@" PURGE="-1" COMMENT="" />
    <EXPORT ORDINAL="851" NAME="??_7COfdListTrnPmts@@6B@" PURGE="-1" COMMENT="" />
    <EXPORT ORDINAL="852" NAME="??_7COfdListTxsrc@@6B@" PURGE="-1" COMMENT="" />
    <EXPORT ORDINAL="853" NAME="??_7COfdListUie@@6B@" PURGE="-1" COMMENT="" />
    <EXPORT ORDINAL="854" NAME="??_7COfdListUnote@@6B@" PURGE="-1" COMMENT="" />
    <EXPORT ORDINAL="855" NAME="??_7COfdListView@@6B@" PURGE="-1" COMMENT="" />
    <EXPORT ORDINAL="856" NAME="??_7COfdListXbag@@6B@" PURGE="-1" COMMENT="" />
    <EXPORT ORDINAL="857" NAME="??_7COfdLot@@6B@" PURGE="-1" COMMENT="" />
    <EXPORT ORDINAL="858" NAME="??_7COfdLstep@@6B@" PURGE="-1" COMMENT="" />
    <EXPORT ORDINAL="859" NAME="??_7COfdMail@@6B@" PURGE="-1" COMMENT="" />
    <EXPORT ORDINAL="860" NAME="??_7COfdNotifyEngine@@6B@" PURGE="-1" COMMENT="" />
    <EXPORT ORDINAL="861" NAME="??_7COfdNotifyFile@@6B@" PURGE="-1" COMMENT="" />
    <EXPORT ORDINAL="862" NAME="??_7COfdNotifyList@@6B@" PURGE="0" COMMENT="" />
    <EXPORT ORDINAL="863" NAME="??_7COfdNotifyPool@@6B@" PURGE="-1" COMMENT="" />
    <EXPORT ORDINAL="864" NAME="??_7COfdObject@@6B@" PURGE="-1" COMMENT="" />
    <EXPORT ORDINAL="865" NAME="??_7COfdOleObject@@6B@" PURGE="-1" COMMENT="" />
    <EXPORT ORDINAL="866" NAME="??_7COfdPay@@6B@" PURGE="-1" COMMENT="" />
    <EXPORT ORDINAL="867" NAME="??_7COfdPgm@@6B@" PURGE="-1" COMMENT="" />
    <EXPORT ORDINAL="868" NAME="??_7COfdPmt@@6B@" PURGE="-1" COMMENT="" />
    <EXPORT ORDINAL="869" NAME="??_7COfdPool@@6B@" PURGE="-1" COMMENT="" />
    <EXPORT ORDINAL="870" NAME="??_7COfdPoolAcct@@6B@" PURGE="-1" COMMENT="" />
    <EXPORT ORDINAL="871" NAME="??_7COfdPoolAdv@@6B@" PURGE="-1" COMMENT="" />
    <EXPORT ORDINAL="872" NAME="??_7COfdPoolAuto@@6B@" PURGE="-1" COMMENT="" />
    <EXPORT ORDINAL="873" NAME="??_7COfdPoolAwd@@6B@" PURGE="-1" COMMENT="" />
    <EXPORT ORDINAL="874" NAME="??_7COfdPoolBgt@@6B@" PURGE="-1" COMMENT="" />
    <EXPORT ORDINAL="875" NAME="??_7COfdPoolBgtBkt@@6B@" PURGE="-1" COMMENT="" />
    <EXPORT ORDINAL="876" NAME="??_7COfdPoolBgtItm@@6B@" PURGE="-1" COMMENT="" />
    <EXPORT ORDINAL="877" NAME="??_7COfdPoolBill@@6B@" PURGE="-1" COMMENT="" />
    <EXPORT ORDINAL="878" NAME="??_7COfdPoolCat@@6B@" PURGE="-1" COMMENT="" />
    <EXPORT ORDINAL="879" NAME="??_7COfdPoolCntry@@6B@" PURGE="-1" COMMENT="" />
    <EXPORT ORDINAL="880" NAME="??_7COfdPoolCrnc@@6B@" PURGE="-1" COMMENT="" />
    <EXPORT ORDINAL="881" NAME="??_7COfdPoolCt@@6B@" PURGE="-1" COMMENT="" />
    <EXPORT ORDINAL="882" NAME="??_7COfdPoolCustom@@6B@" PURGE="-1" COMMENT="" />
    <EXPORT ORDINAL="883" NAME="??_7COfdPoolFi@@6B@" PURGE="-1" COMMENT="" />
    <EXPORT ORDINAL="884" NAME="??_7COfdPoolIvty@@6B@" PURGE="-1" COMMENT="" />
    <EXPORT ORDINAL="885" NAME="??_7COfdPoolLot@@6B@" PURGE="-1" COMMENT="" />
    <EXPORT ORDINAL="886" NAME="??_7COfdPoolMail@@6B@" PURGE="-1" COMMENT="" />
    <EXPORT ORDINAL="887" NAME="??_7COfdPoolPay@@6B@" PURGE="-1" COMMENT="" />
    <EXPORT ORDINAL="888" NAME="??_7COfdPoolPgm@@6B@" PURGE="-1" COMMENT="" />
    <EXPORT ORDINAL="889" NAME="??_7COfdPoolPmt@@6B@" PURGE="-1" COMMENT="" />
    <EXPORT ORDINAL="890" NAME="??_7COfdPoolPortRec@@6B@" PURGE="-1" COMMENT="" />
    <EXPORT ORDINAL="891" NAME="??_7COfdPoolPosStmt@@6B@" PURGE="-1" COMMENT="" />
    <EXPORT ORDINAL="892" NAME="??_7COfdPoolPrice@@6B@" PURGE="-1" COMMENT="" />
    <EXPORT ORDINAL="893" NAME="??_7COfdPoolProduct@@6B@" PURGE="-1" COMMENT="" />
    <EXPORT ORDINAL="894" NAME="??_7COfdPoolProj@@6B@" PURGE="-1" COMMENT="" />
    <EXPORT ORDINAL="895" NAME="??_7COfdPoolProvFi@@6B@" PURGE="-1" COMMENT="" />
    <EXPORT ORDINAL="896" NAME="??_7COfdPoolProvFiPay@@6B@" PURGE="-1" COMMENT="" />
    <EXPORT ORDINAL="897" NAME="??_7COfdPoolSavGoal@@6B@" PURGE="-1" COMMENT="" />
    <EXPORT ORDINAL="898" NAME="??_7COfdPoolSec@@6B@" PURGE="-1" COMMENT="" />
    <EXPORT ORDINAL="899" NAME="??_7COfdPoolSoq@@6B@" PURGE="-1" COMMENT="" />
    <EXPORT ORDINAL="900" NAME="??_7COfdPoolStmt@@6B@" PURGE="-1" COMMENT="" />
    <EXPORT ORDINAL="901" NAME="??_7COfdPoolSvc@@6B@" PURGE="-1" COMMENT="" />
    <EXPORT ORDINAL="902" NAME="??_7COfdPoolTaxline@@6B@" PURGE="-1" COMMENT="" />
    <EXPORT ORDINAL="903" NAME="??_7COfdPoolTmi@@6B@" PURGE="-1" COMMENT="" />
    <EXPORT ORDINAL="904" NAME="??_7COfdPoolTrip@@6B@" PURGE="-1" COMMENT="" />
    <EXPORT ORDINAL="905" NAME="??_7COfdPoolTrn@@6B@" PURGE="-1" COMMENT="" />
    <EXPORT ORDINAL="906" NAME="??_7COfdPoolTxsrc@@6B@" PURGE="-1" COMMENT="" />
    <EXPORT ORDINAL="907" NAME="??_7COfdPoolUie@@6B@" PURGE="-1" COMMENT="" />
    <EXPORT ORDINAL="908" NAME="??_7COfdPoolUnote@@6B@" PURGE="-1" COMMENT="" />
    <EXPORT ORDINAL="909" NAME="??_7COfdPoolView@@6B@" PURGE="-1" COMMENT="" />
    <EXPORT ORDINAL="910" NAME="??_7COfdPoolXbag@@6B@" PURGE="-1" COMMENT="" />
    <EXPORT ORDINAL="911" NAME="??_7COfdPortRec@@6B@" PURGE="-1" COMMENT="" />
    <EXPORT ORDINAL="912" NAME="??_7COfdPosStmt@@6B@" PURGE="-1" COMMENT="" />
    <EXPORT ORDINAL="913" NAME="??_7COfdPrice@@6B@" PURGE="-1" COMMENT="" />
    <EXPORT ORDINAL="914" NAME="??_7COfdProduct@@6B@" PURGE="-1" COMMENT="" />
    <EXPORT ORDINAL="915" NAME="??_7COfdProj@@6B@" PURGE="-1" COMMENT="" />
    <EXPORT ORDINAL="916" NAME="??_7COfdProvFi@@6B@" PURGE="-1" COMMENT="" />
    <EXPORT ORDINAL="917" NAME="??_7COfdProvFiPay@@6B@" PURGE="-1" COMMENT="" />
    <EXPORT ORDINAL="918" NAME="??_7COfdSavGoal@@6B@" PURGE="-1" COMMENT="" />
    <EXPORT ORDINAL="919" NAME="??_7COfdSec@@6B@" PURGE="-1" COMMENT="" />
    <EXPORT ORDINAL="920" NAME="??_7COfdSoq@@6B@" PURGE="-1" COMMENT="" />
    <EXPORT ORDINAL="921" NAME="??_7COfdStmt@@6B@" PURGE="-1" COMMENT="" />
    <EXPORT ORDINAL="922" NAME="??_7COfdSvc@@6B@" PURGE="-1" COMMENT="" />
    <EXPORT ORDINAL="923" NAME="??_7COfdTaxline@@6B@" PURGE="-1" COMMENT="" />
    <EXPORT ORDINAL="924" NAME="??_7COfdTmi@@6B@" PURGE="-1" COMMENT="" />
    <EXPORT ORDINAL="925" NAME="??_7COfdTrip@@6B@" PURGE="-1" COMMENT="" />
    <EXPORT ORDINAL="926" NAME="??_7COfdTrn@@6B@" PURGE="-1" COMMENT="" />
    <EXPORT ORDINAL="927" NAME="??_7COfdTrnBase@@6B@" PURGE="0" COMMENT="" />
    <EXPORT ORDINAL="928" NAME="??_7COfdTrnCalcs@@6B@" PURGE="-1" COMMENT="" />
    <EXPORT ORDINAL="929" NAME="??_7COfdTxsrc@@6B@" PURGE="-1" COMMENT="" />
    <EXPORT ORDINAL="930" NAME="??_7COfdUie@@6B@" PURGE="-1" COMMENT="" />
    <EXPORT ORDINAL="931" NAME="??_7COfdUnote@@6B@" PURGE="-1" COMMENT="" />
    <EXPORT ORDINAL="932" NAME="??_7COfdView@@6B@" PURGE="-1" COMMENT="" />
    <EXPORT ORDINAL="933" NAME="??_7COfdXbag@@6B@" PURGE="-1" COMMENT="" />
    <EXPORT ORDINAL="934" NAME="??_FCOfdBuffer@@QAEXXZ" PURGE="0" COMMENT="" />
    <EXPORT ORDINAL="935" NAME="??_FCOfdException@@QAEXXZ" PURGE="0" COMMENT="" />
    <EXPORT ORDINAL="936" NAME="??_FCOfdTsz@@QAEXXZ" PURGE="0" COMMENT="" />
    <EXPORT ORDINAL="937" NAME="?AatGet@COfdFi@@QBE?AW4__MIDL___MIDL_itf_iofd_0158_0001@@XZ" PURGE="0" COMMENT="" />
    <EXPORT ORDINAL="938" NAME="?AcctCurGet@COfdListAcct@@QBE?AVCOfdAcct@@XZ" PURGE="4" COMMENT="" />
    <EXPORT ORDINAL="939" NAME="?AcctGet@COfdLot@@QBE?AVCOfdAcct@@XZ" PURGE="4" COMMENT="" />
    <EXPORT ORDINAL="940" NAME="?AcctGet@COfdMail@@QBE?AVCOfdAcct@@XZ" PURGE="4" COMMENT="" />
    <EXPORT ORDINAL="941" NAME="?AcctGet@COfdPortRec@@QBE?AVCOfdAcct@@XZ" PURGE="4" COMMENT="" />
    <EXPORT ORDINAL="942" NAME="?AcctGet@COfdPosStmt@@QBE?AVCOfdAcct@@XZ" PURGE="4" COMMENT="" />
    <EXPORT ORDINAL="943" NAME="?AcctGet@COfdSoq@@QBE?AVCOfdAcct@@XZ" PURGE="4" COMMENT="" />
    <EXPORT ORDINAL="944" NAME="?AcctGet@COfdStmt@@QBE?AVCOfdAcct@@XZ" PURGE="4" COMMENT="" />
    <EXPORT ORDINAL="945" NAME="?AcctGet@COfdSvc@@QBE?AVCOfdAcct@@XZ" PURGE="4" COMMENT="" />
    <EXPORT ORDINAL="946" NAME="?AcctGet@COfdTrnBase@@QBE?AVCOfdAcct@@XZ" PURGE="4" COMMENT="" />
    <EXPORT ORDINAL="947" NAME="?AcctLinkGet@COfdTrnBase@@QBE?AVCOfdAcct@@XZ" PURGE="4" COMMENT="" />
    <EXPORT ORDINAL="948" NAME="?AcctLoanGet@COfdLstep@@QBE?AVCOfdAcct@@XZ" PURGE="4" COMMENT="" />
    <EXPORT ORDINAL="949" NAME="?AcctRelGet@COfdAcct@@QBE?AV1@XZ" PURGE="4" COMMENT="" />
    <EXPORT ORDINAL="950" NAME="?ActGet@COfdBrkStmt@@QBE?AW4__MIDL___MIDL_itf_iofd_0137_0015@@XZ" PURGE="0" COMMENT="" />
    <EXPORT ORDINAL="951" NAME="?ActGet@COfdTrnBase@@QBE?AW4__MIDL___MIDL_itf_iofd_0137_0015@@XZ" PURGE="0" COMMENT="" />
    <EXPORT ORDINAL="952" NAME="?Add@COfdListSplit@@QAEXABVCOfdTrn@@@Z" PURGE="4" COMMENT="" />
    <EXPORT ORDINAL="953" NAME="?AddAlias@COfdAcct@@QAEXPBD000@Z" PURGE="16" COMMENT="" />
    <EXPORT ORDINAL="954" NAME="?AddRef@COfdNotifyEngine@@UAGKXZ" PURGE="4" COMMENT="" />
    <EXPORT ORDINAL="955" NAME="?AddRef@COfdNotifyFile@@UAGKXZ" PURGE="4" COMMENT="" />
    <EXPORT ORDINAL="956" NAME="?AddRef@COfdNotifyList@@UAGKXZ" PURGE="4" COMMENT="" />
    <EXPORT ORDINAL="957" NAME="?AddRef@COfdNotifyPool@@UAGKXZ" PURGE="4" COMMENT="" />
    <EXPORT ORDINAL="958" NAME="?AddThreadData@COfdException@@SAXXZ" PURGE="0" COMMENT="" />
    <EXPORT ORDINAL="959" NAME="?AddrBillGet@COfdPay@@QBE?AVCOfdAddr@@XZ" PURGE="4" COMMENT="" />
    <EXPORT ORDINAL="960" NAME="?AddrBillGet@COfdTrnBase@@QBE?AVCOfdAddr@@XZ" PURGE="4" COMMENT="" />
    <EXPORT ORDINAL="961" NAME="?AddrEbppPayGet@COfdStmt@@QBE?AVCOfdAddr@@XZ" PURGE="4" COMMENT="" />
    <EXPORT ORDINAL="962" NAME="?AddrGet@COfdAcct@@QBE?AVCOfdAddr@@XZ" PURGE="4" COMMENT="" />
    <EXPORT ORDINAL="963" NAME="?AddrGet@COfdFi@@QBE?AVCOfdAddr@@XZ" PURGE="4" COMMENT="" />
    <EXPORT ORDINAL="964" NAME="?AddrGet@COfdPay@@QBE?AVCOfdAddr@@XZ" PURGE="4" COMMENT="" />
    <EXPORT ORDINAL="965" NAME="?AddrGet@COfdProvFi@@QBE?AVCOfdAddr@@XZ" PURGE="4" COMMENT="" />
    <EXPORT ORDINAL="966" NAME="?AddrGet@COfdProvFiPay@@QBE?AVCOfdAddr@@XZ" PURGE="4" COMMENT="" />
    <EXPORT ORDINAL="967" NAME="?AddrGet@COfdStmt@@QBE?AVCOfdAddr@@XZ" PURGE="4" COMMENT="" />
    <EXPORT ORDINAL="968" NAME="?AddrPOLGet@COfdFi@@QBE?AVCOfdAddr@@XZ" PURGE="4" COMMENT="" />
    <EXPORT ORDINAL="969" NAME="?AddrShipGet@COfdPay@@QBE?AVCOfdAddr@@XZ" PURGE="4" COMMENT="" />
    <EXPORT ORDINAL="970" NAME="?AddrShipGet@COfdTrnBase@@QBE?AVCOfdAddr@@XZ" PURGE="4" COMMENT="" />
    <EXPORT ORDINAL="971" NAME="?AdvCurGet@COfdListAdv@@QBE?AVCOfdAdv@@XZ" PURGE="4" COMMENT="" />
    <EXPORT ORDINAL="972" NAME="?AmtPaidCurGet@COfdListTrnPmts@@QBE?AVCOfdCurrency@@XZ" PURGE="4" COMMENT="" />
    <EXPORT ORDINAL="973" NAME="?AmtUnassignedGet@COfdListTrnPmts@@QBE?AVCOfdCurrency@@XZ" PURGE="4" COMMENT="" />
    <EXPORT ORDINAL="974" NAME="?AmtUnassignedOtherGet@COfdListTrnPmts@@QBE?AVCOfdCurrency@@XZ" PURGE="4" COMMENT="" />
    <EXPORT ORDINAL="975" NAME="?AmtUnpaidCurGet@COfdListTrnPmts@@QBE?AVCOfdCurrency@@XZ" PURGE="4" COMMENT="" />
    <EXPORT ORDINAL="976" NAME="?ApplyView@COfdList@@QAEXXZ" PURGE="0" COMMENT="" />
    <EXPORT ORDINAL="977" NAME="?AssignCatToRole@COfdPoolCat@@QAEXW4__MIDL___MIDL_itf_iofd_0125_0003@@ABVCOfdCat@@@Z" PURGE="8" COMMENT="" />
    <EXPORT ORDINAL="978" NAME="?AstGet@COfdAcct@@QBE?AW4__MIDL___MIDL_itf_iofd_0121_0001@@XZ" PURGE="0" COMMENT="" />
    <EXPORT ORDINAL="979" NAME="?AstGet@COfdFile@@QBE?AW4__MIDL___MIDL_itf_iofd_0121_0001@@XZ" PURGE="0" COMMENT="" />
    <EXPORT ORDINAL="980" NAME="?AtEbppPmtAtGet@COfdStmt@@QBE?AW4__MIDL___MIDL_itf_iofd_0121_0002@@XZ" PURGE="0" COMMENT="" />
    <EXPORT ORDINAL="981" NAME="?AtGet@COfdAcct@@QBE?AW4__MIDL___MIDL_itf_iofd_0121_0002@@XZ" PURGE="0" COMMENT="" />
    <EXPORT ORDINAL="982" NAME="?AtToGet@COfdStmt@@QBE?AW4__MIDL___MIDL_itf_iofd_0121_0002@@XZ" PURGE="0" COMMENT="" />
    <EXPORT ORDINAL="983" NAME="?AutoCurGet@COfdListAuto@@QBE?AVCOfdAuto@@XZ" PURGE="4" COMMENT="" />
    <EXPORT ORDINAL="984" NAME="?AutoGet@COfdTrip@@QBE?AVCOfdAuto@@XZ" PURGE="4" COMMENT="" />
    <EXPORT ORDINAL="985" NAME="?AutotGet@COfdAuto@@QBEJXZ" PURGE="0" COMMENT="" />
    <EXPORT ORDINAL="986" NAME="?AwdCurGet@COfdListAwd@@QBE?AVCOfdAwd@@XZ" PURGE="4" COMMENT="" />
    <EXPORT ORDINAL="987" NAME="?AwdtGet@COfdAwd@@QBE?AW4__MIDL___MIDL_itf_iofd_0230_0004@@XZ" PURGE="0" COMMENT="" />
    <EXPORT ORDINAL="988" NAME="?BbtGet@COfdBgtBkt@@QBE?AW4__MIDL___MIDL_itf_iofd_0239_0001@@XZ" PURGE="0" COMMENT="" />
    <EXPORT ORDINAL="989" NAME="?BeginTrans@COfdEngine@@QAEXXZ" PURGE="0" COMMENT="" />
    <EXPORT ORDINAL="990" NAME="?BfGet@COfdBgt@@QBEJXZ" PURGE="0" COMMENT="" />
    <EXPORT ORDINAL="991" NAME="?BgtBktCurGet@COfdListBgtBkt@@QBE?AVCOfdBgtBkt@@XZ" PURGE="4" COMMENT="" />
    <EXPORT ORDINAL="992" NAME="?BgtBktGet@COfdBgtItm@@QBE?AVCOfdBgtBkt@@XZ" PURGE="4" COMMENT="" />
    <EXPORT ORDINAL="993" NAME="?BgtCurGet@COfdListBgt@@QBE?AVCOfdBgt@@XZ" PURGE="4" COMMENT="" />
    <EXPORT ORDINAL="994" NAME="?BgtGet@COfdBgtBkt@@QBE?AVCOfdBgt@@XZ" PURGE="4" COMMENT="" />
    <EXPORT ORDINAL="995" NAME="?BgtGet@COfdBgtItm@@QBE?AVCOfdBgt@@XZ" PURGE="4" COMMENT="" />
    <EXPORT ORDINAL="996" NAME="?BgtGet@COfdSavGoal@@QBE?AVCOfdBgt@@XZ" PURGE="4" COMMENT="" />
    <EXPORT ORDINAL="997" NAME="?BgtItmCurGet@COfdListBgtItm@@QBE?AVCOfdBgtItm@@XZ" PURGE="4" COMMENT="" />
    <EXPORT ORDINAL="998" NAME="?BgtItmLinkGet@COfdBgtItm@@QBE?AV1@XZ" PURGE="4" COMMENT="" />
    <EXPORT ORDINAL="999" NAME="?BifGet@COfdBgtItm@@QBEJXZ" PURGE="0" COMMENT="" />
    <EXPORT ORDINAL="1000" NAME="?BillCurGet@COfdListBill@@QBE?AVCOfdBill@@XZ" PURGE="4" COMMENT="" />
    <EXPORT ORDINAL="1001" NAME="?BillCurGet@COfdListSplit@@QBE?AVCOfdBill@@XZ" PURGE="4" COMMENT="" />
    <EXPORT ORDINAL="1002" NAME="?BillFromTrn@COfdTrn@@QBE?AVCOfdBill@@XZ" PURGE="4" COMMENT="" />
    <EXPORT ORDINAL="1003" NAME="?BillHeadGet@COfdBill@@QBE?AV1@XZ" PURGE="4" COMMENT="" />
    <EXPORT ORDINAL="1004" NAME="?BillHeadGet@COfdTrn@@QBE?AVCOfdBill@@XZ" PURGE="4" COMMENT="" />
    <EXPORT ORDINAL="1005" NAME="?BillLinkGet@COfdBill@@QBE?AV1@XZ" PURGE="4" COMMENT="" />
    <EXPORT ORDINAL="1006" NAME="?BillLinkGet@COfdListBill@@QBE?AVCOfdBill@@XZ" PURGE="4" COMMENT="" />
    <EXPORT ORDINAL="1007" NAME="?BillParentGet@COfdBill@@QBE?AV1@XZ" PURGE="4" COMMENT="" />
    <EXPORT ORDINAL="1008" NAME="?BillTriGet@COfdBill@@QBE?AVCBillTri@@XZ" PURGE="4" COMMENT="" />
    <EXPORT ORDINAL="1009" NAME="?BillTriGet@COfdListBill@@QBE?AVCBillTri@@XZ" PURGE="4" COMMENT="" />
    <EXPORT ORDINAL="1010" NAME="?BitGet@COfdBgtItm@@QBE?AW4__MIDL___MIDL_itf_iofd_0194_0002@@XZ" PURGE="0" COMMENT="" />
    <EXPORT ORDINAL="1011" NAME="?BrkStmtCurGet@COfdListStmt@@QBE?AVCOfdBrkStmt@@XZ" PURGE="4" COMMENT="" />
    <EXPORT ORDINAL="1012" NAME="?BtGet@COfdXbag@@QBE?AW4__MIDL___MIDL_itf_iofd_0249_0002@@XZ" PURGE="0" COMMENT="" />
    <EXPORT ORDINAL="1013" NAME="?CAdvGet@COfdPoolAdv@@QBEJJ@Z" PURGE="4" COMMENT="" />
    <EXPORT ORDINAL="1014" NAME="?CDaysAutoEnterGet@COfdBill@@UBEJXZ" PURGE="0" COMMENT="" />
    <EXPORT ORDINAL="1015" NAME="?CDfltDaysToPayGet@COfdProvFi@@QBEJXZ" PURGE="0" COMMENT="" />
    <EXPORT ORDINAL="1016" NAME="?CDfltDaysWithGet@COfdProvFi@@QBEJXZ" PURGE="0" COMMENT="" />
    <EXPORT ORDINAL="1017" NAME="?CEstInstGet@COfdBill@@QBEJXZ" PURGE="0" COMMENT="" />
    <EXPORT ORDINAL="1018" NAME="?CFrqInstAdjGet@COfdAcct@@QBE?AVCOfdDouble@@XZ" PURGE="4" COMMENT="" />
    <EXPORT ORDINAL="1019" NAME="?CFrqInstCpdGet@COfdAcct@@QBE?AVCOfdDouble@@XZ" PURGE="4" COMMENT="" />
    <EXPORT ORDINAL="1020" NAME="?CFrqInstDebtPayGet@COfdAcct@@QBE?AVCOfdDouble@@XZ" PURGE="4" COMMENT="" />
    <EXPORT ORDINAL="1021" NAME="?CFrqInstGet@COfdAcct@@QBE?AVCOfdDouble@@XZ" PURGE="4" COMMENT="" />
    <EXPORT ORDINAL="1022" NAME="?CFrqInstGet@COfdBgt@@QBE?AVCOfdDouble@@XZ" PURGE="4" COMMENT="" />
    <EXPORT ORDINAL="1023" NAME="?CFrqInstGet@COfdBgtItm@@QBE?AVCOfdDouble@@XZ" PURGE="4" COMMENT="" />
    <EXPORT ORDINAL="1024" NAME="?CFrqInstGet@COfdBill@@UBE?AVCOfdDouble@@XZ" PURGE="4" COMMENT="" />
    <EXPORT ORDINAL="1025" NAME="?CFrqInstGet@COfdStmt@@QBE?AVCOfdDouble@@XZ" PURGE="4" COMMENT="" />
    <EXPORT ORDINAL="1026" NAME="?CFrqInstGet@COfdTrn@@UBE?AVCOfdDouble@@XZ" PURGE="4" COMMENT="" />
    <EXPORT ORDINAL="1027" NAME="?CFrqInstIntPmtGet@COfdSec@@QBE?AVCOfdDouble@@XZ" PURGE="4" COMMENT="" />
    <EXPORT ORDINAL="1028" NAME="?CFrqInstUpdGet@COfdProvFi@@QBE?AVCOfdDouble@@XZ" PURGE="4" COMMENT="" />
    <EXPORT ORDINAL="1029" NAME="?CIdDfltDaysToPayGet@COfdProvFi@@QBEJXZ" PURGE="0" COMMENT="" />
    <EXPORT ORDINAL="1030" NAME="?CIdDfltDaysWithGet@COfdProvFi@@QBEJXZ" PURGE="0" COMMENT="" />
    <EXPORT ORDINAL="1031" NAME="?CInstMaxGet@COfdBill@@QBEJXZ" PURGE="0" COMMENT="" />
    <EXPORT ORDINAL="1032" NAME="?CIntraDfltDaysToPayGet@COfdProvFi@@QBEJXZ" PURGE="0" COMMENT="" />
    <EXPORT ORDINAL="1033" NAME="?CIntraDfltDaysWithGet@COfdProvFi@@QBEJXZ" PURGE="0" COMMENT="" />
    <EXPORT ORDINAL="1034" NAME="?CItemGet@COfdList@@QBEJH@Z" PURGE="4" COMMENT="" />
    <EXPORT ORDINAL="1035" NAME="?CItemGet@COfdListCrit@@QBEJXZ" PURGE="0" COMMENT="" />
    <EXPORT ORDINAL="1036" NAME="?CItemGet@COfdListDel@@QBEJXZ" PURGE="0" COMMENT="" />
    <EXPORT ORDINAL="1037" NAME="?CItemGet@COfdListLotTrn@@QBEJXZ" PURGE="0" COMMENT="" />
    <EXPORT ORDINAL="1038" NAME="?CItemGet@COfdListSplit@@QBEJXZ" PURGE="0" COMMENT="" />
    <EXPORT ORDINAL="1039" NAME="?CItemGet@COfdListTrnPmts@@QBEJXZ" PURGE="0" COMMENT="" />
    <EXPORT ORDINAL="1040" NAME="?CItemGet@COfdPool@@QBEJXZ" PURGE="0" COMMENT="" />
    <EXPORT ORDINAL="1041" NAME="?COFDObjectTraceDump@@YAXXZ" PURGE="0" COMMENT="" />
    <EXPORT ORDINAL="1042" NAME="?COFDObjectTraceInit@@YAXXZ" PURGE="0" COMMENT="" />
    <EXPORT ORDINAL="1043" NAME="?COFDObjectTraceTerm@@YAXXZ" PURGE="0" COMMENT="" />
    <EXPORT ORDINAL="1044" NAME="?COFDSetNoAssertsOnThrow@@YAXH@Z" PURGE="0" COMMENT="" />
    <EXPORT ORDINAL="1045" NAME="?COdoNetGet@COfdTrip@@QBEJXZ" PURGE="0" COMMENT="" />
    <EXPORT ORDINAL="1046" NAME="?CPinMaxGet@COfdProvFi@@QBEJXZ" PURGE="0" COMMENT="" />
    <EXPORT ORDINAL="1047" NAME="?CPinMinGet@COfdProvFi@@QBEJXZ" PURGE="0" COMMENT="" />
    <EXPORT ORDINAL="1048" NAME="?CSelectedGet@COfdView@@QBEJXZ" PURGE="0" COMMENT="" />
    <EXPORT ORDINAL="1049" NAME="?CTransGet@COfdEngine@@QAEJXZ" PURGE="0" COMMENT="" />
    <EXPORT ORDINAL="1050" NAME="?CWritingClientsGet@COfdFile@@QBEJXZ" PURGE="0" COMMENT="" />
    <EXPORT ORDINAL="1051" NAME="?CXferDfltDaysToPayGet@COfdProvFi@@QBEJXZ" PURGE="0" COMMENT="" />
    <EXPORT ORDINAL="1052" NAME="?CXferDfltDaysWithGet@COfdProvFi@@QBEJXZ" PURGE="0" COMMENT="" />
    <EXPORT ORDINAL="1053" NAME="?CancelEdit@COfdObject@@QAEXXZ" PURGE="0" COMMENT="" />
    <EXPORT ORDINAL="1054" NAME="?CatCls1Get@COfdTrnBase@@QBE?AVCOfdCat@@XZ" PURGE="4" COMMENT="" />
    <EXPORT ORDINAL="1055" NAME="?CatCls2Get@COfdTrnBase@@QBE?AVCOfdCat@@XZ" PURGE="4" COMMENT="" />
    <EXPORT ORDINAL="1056" NAME="?CatClsKakGet@COfdTrnBase@@QBE?AVCOfdCat@@XZ" PURGE="4" COMMENT="" />
    <EXPORT ORDINAL="1057" NAME="?CatCurGet@COfdListCat@@QBE?AVCOfdCat@@XZ" PURGE="4" COMMENT="" />
    <EXPORT ORDINAL="1058" NAME="?CatEmpMatchGet@COfdAcct@@QBE?AVCOfdCat@@XZ" PURGE="4" COMMENT="" />
    <EXPORT ORDINAL="1059" NAME="?CatEmpMatchPostGet@COfdAcct@@QBE?AVCOfdCat@@XZ" PURGE="4" COMMENT="" />
    <EXPORT ORDINAL="1060" NAME="?CatEndAdjGet@COfdAcct@@QBE?AVCOfdCat@@XZ" PURGE="4" COMMENT="" />
    <EXPORT ORDINAL="1061" NAME="?CatFromRole@COfdPoolCat@@QBE?AVCOfdCat@@W4__MIDL___MIDL_itf_iofd_0125_0003@@@Z" PURGE="8" COMMENT="" />
    <EXPORT ORDINAL="1062" NAME="?CatFromSic@COfdPoolCat@@QBE?AVCOfdCat@@J@Z" PURGE="8" COMMENT="" />
    <EXPORT ORDINAL="1063" NAME="?CatGet@COfdBgtItm@@QBE?AVCOfdCat@@XZ" PURGE="4" COMMENT="" />
    <EXPORT ORDINAL="1064" NAME="?CatGet@COfdProduct@@QBE?AVCOfdCat@@XZ" PURGE="4" COMMENT="" />
    <EXPORT ORDINAL="1065" NAME="?CatGet@COfdProj@@QBE?AVCOfdCat@@XZ" PURGE="4" COMMENT="" />
    <EXPORT ORDINAL="1066" NAME="?CatGet@COfdTrnBase@@QBE?AVCOfdCat@@XZ" PURGE="4" COMMENT="" />
    <EXPORT ORDINAL="1067" NAME="?CatInterestGet@COfdAcct@@QBE?AVCOfdCat@@XZ" PURGE="4" COMMENT="" />
    <EXPORT ORDINAL="1068" NAME="?CatOpenAdjGet@COfdAcct@@QBE?AVCOfdCat@@XZ" PURGE="4" COMMENT="" />
    <EXPORT ORDINAL="1069" NAME="?CatParentGet@COfdCat@@QBE?AV1@XZ" PURGE="4" COMMENT="" />
    <EXPORT ORDINAL="1070" NAME="?CatPrincipalGet@COfdAcct@@QBE?AVCOfdCat@@XZ" PURGE="4" COMMENT="" />
    <EXPORT ORDINAL="1071" NAME="?CatServiceGet@COfdAcct@@QBE?AVCOfdCat@@XZ" PURGE="4" COMMENT="" />
    <EXPORT ORDINAL="1072" NAME="?CbGet@COfdBuffer@@QBEIXZ" PURGE="0" COMMENT="" />
    <EXPORT ORDINAL="1073" NAME="?CbtGet@COfdSec@@QBE?AW4__MIDL___MIDL_itf_iofd_0147_0006@@XZ" PURGE="0" COMMENT="" />
    <EXPORT ORDINAL="1074" NAME="?CchDecGet@COfdFile@@QBEJXZ" PURGE="0" COMMENT="" />
    <EXPORT ORDINAL="1075" NAME="?CdayToPayPostGet@COfdProvFiPay@@QBEJXZ" PURGE="0" COMMENT="" />
    <EXPORT ORDINAL="1076" NAME="?CdayToPayPreGet@COfdProvFiPay@@QBEJXZ" PURGE="0" COMMENT="" />
    <EXPORT ORDINAL="1077" NAME="?CeoidFromHobj@COfdFile@@QBEJW4__MIDL___MIDL_itf_iofd_0120_0003@@J@Z" PURGE="8" COMMENT="" />
    <EXPORT ORDINAL="1078" NAME="?ChangePassword@COfdFile@@QAEXPBD0@Z" PURGE="8" COMMENT="" />
    <EXPORT ORDINAL="1079" NAME="?ChangeType@COfdVariant@@QAEXGPAUtagVARIANT@@@Z" PURGE="8" COMMENT="" />
    <EXPORT ORDINAL="1080" NAME="?CheckQtyHeldVald@COfdTrn@@QBE?AW4__MIDL___MIDL_itf_iofd_0137_0018@@W4__MIDL___MIDL_itf_iofd_0137_0019@@@Z" PURGE="4" COMMENT="" />
    <EXPORT ORDINAL="1081" NAME="?CheckQtyHeldVald@COfdTrn@@QBE?AW4__MIDL___MIDL_itf_iofd_0137_0018@@W4__MIDL___MIDL_itf_iofd_0137_0019@@ABVCOfdAcct@@ABVCOfdSec@@ABN@Z" PURGE="16" COMMENT="" />
    <EXPORT ORDINAL="1082" NAME="?Clear@CBillTri@@QAEXXZ" PURGE="0" COMMENT="" />
    <EXPORT ORDINAL="1083" NAME="?Clear@COfdVariant@@QAEXXZ" PURGE="0" COMMENT="" />
    <EXPORT ORDINAL="1084" NAME="?ClearCtid@COfdCt@@QAEXXZ" PURGE="0" COMMENT="" />
    <EXPORT ORDINAL="1085" NAME="?ClearFUpdated@COfdFile@@QAEXXZ" PURGE="0" COMMENT="" />
    <EXPORT ORDINAL="1086" NAME="?ClearFUpdatedForHobj@COfdFile@@QAEXW4__MIDL___MIDL_itf_iofd_0120_0002@@J@Z" PURGE="8" COMMENT="" />
    <EXPORT ORDINAL="1087" NAME="?ClearFUpdatedForPos@COfdFile@@QAEXJJ@Z" PURGE="8" COMMENT="" />
    <EXPORT ORDINAL="1088" NAME="?ClearFieldSubset@COfdTrn@@QAEXJ@Z" PURGE="4" COMMENT="" />
    <EXPORT ORDINAL="1089" NAME="?ClearFields@COfdObject@@QAEXXZ" PURGE="0" COMMENT="" />
    <EXPORT ORDINAL="1090" NAME="?ClearMcsrcTbl@COfdFile@@QAEXXZ" PURGE="0" COMMENT="" />
    <EXPORT ORDINAL="1091" NAME="?ClearNotifyEngine@COfdEngine@@QAEXXZ" PURGE="0" COMMENT="" />
    <EXPORT ORDINAL="1092" NAME="?ClearNotifyFile@COfdFile@@QAEXXZ" PURGE="0" COMMENT="" />
    <EXPORT ORDINAL="1093" NAME="?ClearNotifyList@COfdList@@QAEXXZ" PURGE="0" COMMENT="" />
    <EXPORT ORDINAL="1094" NAME="?ClearNotifyPool@COfdPool@@QAEXXZ" PURGE="0" COMMENT="" />
    <EXPORT ORDINAL="1095" NAME="?ClearView@COfdList@@QAEXXZ" PURGE="0" COMMENT="" />
    <EXPORT ORDINAL="1096" NAME="?ClearView@COfdView@@QAEXXZ" PURGE="0" COMMENT="" />
    <EXPORT ORDINAL="1097" NAME="?Clone@COfdTrn@@QAE?AV1@XZ" PURGE="4" COMMENT="" />
    <EXPORT ORDINAL="1098" NAME="?Close@COfdFile@@QAEXXZ" PURGE="0" COMMENT="" />
    <EXPORT ORDINAL="1099" NAME="?CntryCurGet@COfdListCntry@@QBE?AVCOfdCntry@@XZ" PURGE="4" COMMENT="" />
    <EXPORT ORDINAL="1100" NAME="?CntryGet@COfdSec@@QBE?AVCOfdCntry@@XZ" PURGE="4" COMMENT="" />
    <EXPORT ORDINAL="1101" NAME="?CommitCrnc@COfdAcct@@QAEXJ@Z" PURGE="4" COMMENT="" />
    <EXPORT ORDINAL="1102" NAME="?CommitCrncInclusive@COfdAcct@@QAEXJN@Z" PURGE="12" COMMENT="" />
    <EXPORT ORDINAL="1103" NAME="?CommitTrans@COfdEngine@@QAEXXZ" PURGE="0" COMMENT="" />
    <EXPORT ORDINAL="1104" NAME="?Compare@COfdVariant@@QAEJABUtagVARIANT@@PAHK@Z" PURGE="12" COMMENT="" />
    <EXPORT ORDINAL="1105" NAME="?ConGet@COfdCat@@QBEJXZ" PURGE="0" COMMENT="" />
    <EXPORT ORDINAL="1106" NAME="?ContactDataGet@COfdPay@@QBEJXZ" PURGE="0" COMMENT="" />
    <EXPORT ORDINAL="1107" NAME="?ConvertCy@COfdFile@@QAEXJABVCOfdCurrency@@JPAV2@@Z" PURGE="16" COMMENT="" />
    <EXPORT ORDINAL="1108" NAME="?ConvertFile@COfdEngine@@QAEXPBD000KH@Z" PURGE="24" COMMENT="" />
    <EXPORT ORDINAL="1109" NAME="?CopyBagInfo@COfdTrn@@QAEXABV1@@Z" PURGE="4" COMMENT="" />
    <EXPORT ORDINAL="1110" NAME="?CopyChildren@COfdBill@@QAEXABV1@@Z" PURGE="4" COMMENT="" />
    <EXPORT ORDINAL="1111" NAME="?CopyChildren@COfdTrn@@QAEXABV1@@Z" PURGE="4" COMMENT="" />
    <EXPORT ORDINAL="1112" NAME="?CopyFields@COfdAcct@@QAEXABV1@@Z" PURGE="4" COMMENT="" />
    <EXPORT ORDINAL="1113" NAME="?CopyFields@COfdAddr@@QAEXABV1@@Z" PURGE="4" COMMENT="" />
    <EXPORT ORDINAL="1114" NAME="?CopyFields@COfdAdv@@QAEXABV1@@Z" PURGE="4" COMMENT="" />
    <EXPORT ORDINAL="1115" NAME="?CopyFields@COfdAuto@@QAEXABV1@@Z" PURGE="4" COMMENT="" />
    <EXPORT ORDINAL="1116" NAME="?CopyFields@COfdAwd@@QAEXABV1@@Z" PURGE="4" COMMENT="" />
    <EXPORT ORDINAL="1117" NAME="?CopyFields@COfdBgt@@QAEXABV1@@Z" PURGE="4" COMMENT="" />
    <EXPORT ORDINAL="1118" NAME="?CopyFields@COfdBgtBkt@@QAEXABV1@@Z" PURGE="4" COMMENT="" />
    <EXPORT ORDINAL="1119" NAME="?CopyFields@COfdBgtItm@@QAEXABV1@@Z" PURGE="4" COMMENT="" />
    <EXPORT ORDINAL="1120" NAME="?CopyFields@COfdBrkStmt@@QAEXABV1@@Z" PURGE="4" COMMENT="" />
    <EXPORT ORDINAL="1121" NAME="?CopyFields@COfdCat@@QAEXABV1@@Z" PURGE="4" COMMENT="" />
    <EXPORT ORDINAL="1122" NAME="?CopyFields@COfdCntry@@QAEXABV1@@Z" PURGE="4" COMMENT="" />
    <EXPORT ORDINAL="1123" NAME="?CopyFields@COfdCrit@@QAEXABV1@@Z" PURGE="4" COMMENT="" />
    <EXPORT ORDINAL="1124" NAME="?CopyFields@COfdCrnc@@QAEXABV1@@Z" PURGE="4" COMMENT="" />
    <EXPORT ORDINAL="1125" NAME="?CopyFields@COfdCt@@QAEXABV1@@Z" PURGE="4" COMMENT="" />
    <EXPORT ORDINAL="1126" NAME="?CopyFields@COfdCustom@@QAEXABV1@@Z" PURGE="4" COMMENT="" />
    <EXPORT ORDINAL="1127" NAME="?CopyFields@COfdFi@@QAEXABV1@@Z" PURGE="4" COMMENT="" />
    <EXPORT ORDINAL="1128" NAME="?CopyFields@COfdIvty@@QAEXABV1@@Z" PURGE="4" COMMENT="" />
    <EXPORT ORDINAL="1129" NAME="?CopyFields@COfdLot@@QAEXABV1@@Z" PURGE="4" COMMENT="" />
    <EXPORT ORDINAL="1130" NAME="?CopyFields@COfdLstep@@QAEXABV1@@Z" PURGE="4" COMMENT="" />
    <EXPORT ORDINAL="1131" NAME="?CopyFields@COfdMail@@QAEXABV1@@Z" PURGE="4" COMMENT="" />
    <EXPORT ORDINAL="1132" NAME="?CopyFields@COfdObject@@QAEXABV1@@Z" PURGE="4" COMMENT="" />
    <EXPORT ORDINAL="1133" NAME="?CopyFields@COfdPay@@QAEXABV1@@Z" PURGE="4" COMMENT="" />
    <EXPORT ORDINAL="1134" NAME="?CopyFields@COfdPgm@@QAEXABV1@@Z" PURGE="4" COMMENT="" />
    <EXPORT ORDINAL="1135" NAME="?CopyFields@COfdPmt@@QAEXABV1@@Z" PURGE="4" COMMENT="" />
    <EXPORT ORDINAL="1136" NAME="?CopyFields@COfdPortRec@@QAEXABV1@@Z" PURGE="4" COMMENT="" />
    <EXPORT ORDINAL="1137" NAME="?CopyFields@COfdPosStmt@@QAEXABV1@@Z" PURGE="4" COMMENT="" />
    <EXPORT ORDINAL="1138" NAME="?CopyFields@COfdPrice@@QAEXABV1@@Z" PURGE="4" COMMENT="" />
    <EXPORT ORDINAL="1139" NAME="?CopyFields@COfdProduct@@QAEXABV1@@Z" PURGE="4" COMMENT="" />
    <EXPORT ORDINAL="1140" NAME="?CopyFields@COfdProj@@QAEXABV1@@Z" PURGE="4" COMMENT="" />
    <EXPORT ORDINAL="1141" NAME="?CopyFields@COfdProvFi@@QAEXABV1@@Z" PURGE="4" COMMENT="" />
    <EXPORT ORDINAL="1142" NAME="?CopyFields@COfdProvFiPay@@QAEXABV1@@Z" PURGE="4" COMMENT="" />
    <EXPORT ORDINAL="1143" NAME="?CopyFields@COfdSavGoal@@QAEXABV1@@Z" PURGE="4" COMMENT="" />
    <EXPORT ORDINAL="1144" NAME="?CopyFields@COfdSec@@QAEXABV1@@Z" PURGE="4" COMMENT="" />
    <EXPORT ORDINAL="1145" NAME="?CopyFields@COfdSoq@@QAEXABV1@@Z" PURGE="4" COMMENT="" />
    <EXPORT ORDINAL="1146" NAME="?CopyFields@COfdStmt@@QAEXABV1@@Z" PURGE="4" COMMENT="" />
    <EXPORT ORDINAL="1147" NAME="?CopyFields@COfdSvc@@QAEXABV1@@Z" PURGE="4" COMMENT="" />
    <EXPORT ORDINAL="1148" NAME="?CopyFields@COfdTaxline@@QAEXABV1@@Z" PURGE="4" COMMENT="" />
    <EXPORT ORDINAL="1149" NAME="?CopyFields@COfdTmi@@QAEXABV1@@Z" PURGE="4" COMMENT="" />
    <EXPORT ORDINAL="1150" NAME="?CopyFields@COfdTrip@@QAEXABV1@@Z" PURGE="4" COMMENT="" />
    <EXPORT ORDINAL="1151" NAME="?CopyFields@COfdTrnBase@@QAEXABV1@@Z" PURGE="4" COMMENT="" />
    <EXPORT ORDINAL="1152" NAME="?CopyFields@COfdTxsrc@@QAEXABV1@@Z" PURGE="4" COMMENT="" />
    <EXPORT ORDINAL="1153" NAME="?CopyFields@COfdUie@@QAEXABV1@@Z" PURGE="4" COMMENT="" />
    <EXPORT ORDINAL="1154" NAME="?CopyFields@COfdUnote@@QAEXABV1@@Z" PURGE="4" COMMENT="" />
    <EXPORT ORDINAL="1155" NAME="?CopyFields@COfdXbag@@QAEXABV1@@Z" PURGE="4" COMMENT="" />
    <EXPORT ORDINAL="1156" NAME="?CpmGet@COfdAcct@@QBE?AW4__MIDL___MIDL_itf_iofd_0121_0007@@XZ" PURGE="0" COMMENT="" />
    <EXPORT ORDINAL="1157" NAME="?CpmtsOLGet@COfdTrnBase@@QBEJXZ" PURGE="0" COMMENT="" />
    <EXPORT ORDINAL="1158" NAME="?CpmtsOlGet@COfdStmt@@QBEJXZ" PURGE="0" COMMENT="" />
    <EXPORT ORDINAL="1159" NAME="?CpmtsRemainingGet@COfdTrnBase@@QBEJXZ" PURGE="0" COMMENT="" />
    <EXPORT ORDINAL="1160" NAME="?CreateCeoidMapping@COfdFile@@QAEXW4__MIDL___MIDL_itf_iofd_0120_0003@@JJ@Z" PURGE="12" COMMENT="" />
    <EXPORT ORDINAL="1161" NAME="?CreateCustomField@COfdPool@@QAEJW4__MIDL___MIDL_itf_iofd_0110_0001@@JHPBD@Z" PURGE="16" COMMENT="" />
    <EXPORT ORDINAL="1162" NAME="?CreateCustomPool@COfdFile@@QAE?AVCOfdPoolCustom@@PBD@Z" PURGE="8" COMMENT="" />
    <EXPORT ORDINAL="1163" NAME="?CreateEngine@COfdEngine@@SA?AV1@XZ" PURGE="0" COMMENT="" />
    <EXPORT ORDINAL="1164" NAME="?CreateTrnCalcs@COfdFile@@QAE?AVCOfdTrnCalcs@@XZ" PURGE="4" COMMENT="" />
    <EXPORT ORDINAL="1165" NAME="?CritCurGet@COfdListCrit@@QBE?AVCOfdCrit@@XZ" PURGE="4" COMMENT="" />
    <EXPORT ORDINAL="1166" NAME="?CritFromFld@COfdView@@QBE?AVCOfdCrit@@J@Z" PURGE="8" COMMENT="" />
    <EXPORT ORDINAL="1167" NAME="?CrncCurGet@COfdFile@@QBE?AVCOfdCrnc@@XZ" PURGE="4" COMMENT="" />
    <EXPORT ORDINAL="1168" NAME="?CrncCurGet@COfdListCrnc@@QBE?AVCOfdCrnc@@XZ" PURGE="4" COMMENT="" />
    <EXPORT ORDINAL="1169" NAME="?CrncDefGet@COfdCntry@@QBE?AVCOfdCrnc@@XZ" PURGE="4" COMMENT="" />
    <EXPORT ORDINAL="1170" NAME="?CrncDefGet@COfdFile@@QBE?AVCOfdCrnc@@XZ" PURGE="4" COMMENT="" />
    <EXPORT ORDINAL="1171" NAME="?CrncGet@COfdAcct@@QBE?AVCOfdCrnc@@XZ" PURGE="4" COMMENT="" />
    <EXPORT ORDINAL="1172" NAME="?CrncGet@COfdSec@@QBE?AVCOfdCrnc@@XZ" PURGE="4" COMMENT="" />
    <EXPORT ORDINAL="1173" NAME="?CrncOrigGet@COfdAcct@@QBE?AVCOfdCrnc@@XZ" PURGE="4" COMMENT="" />
    <EXPORT ORDINAL="1174" NAME="?CsGet@COfdStmt@@QBE?AW4__MIDL___MIDL_itf_iofd_0137_0007@@XZ" PURGE="0" COMMENT="" />
    <EXPORT ORDINAL="1175" NAME="?CsGet@COfdTrnBase@@QBE?AW4__MIDL___MIDL_itf_iofd_0137_0007@@XZ" PURGE="0" COMMENT="" />
    <EXPORT ORDINAL="1176" NAME="?CshrDenominatorGet@COfdBrkStmt@@QBEJXZ" PURGE="0" COMMENT="" />
    <EXPORT ORDINAL="1177" NAME="?CshrNumeratorGet@COfdBrkStmt@@QBEJXZ" PURGE="0" COMMENT="" />
    <EXPORT ORDINAL="1178" NAME="?CshrPostGet@COfdBrkStmt@@QBEJXZ" PURGE="0" COMMENT="" />
    <EXPORT ORDINAL="1179" NAME="?CshrPostGet@COfdPrice@@QBEJXZ" PURGE="0" COMMENT="" />
    <EXPORT ORDINAL="1180" NAME="?CshrPreGet@COfdBrkStmt@@QBEJXZ" PURGE="0" COMMENT="" />
    <EXPORT ORDINAL="1181" NAME="?CshrPreGet@COfdPrice@@QBEJXZ" PURGE="0" COMMENT="" />
    <EXPORT ORDINAL="1182" NAME="?CstmtGet@COfdAcct@@QBEJXZ" PURGE="0" COMMENT="" />
    <EXPORT ORDINAL="1183" NAME="?CtCurGet@COfdListCt@@QBE?AVCOfdCt@@XZ" PURGE="4" COMMENT="" />
    <EXPORT ORDINAL="1184" NAME="?CtFromIdentity@COfdPoolCt@@QBE?AVCOfdCt@@W4__MIDL___MIDL_itf_iofd_0125_0001@@@Z" PURGE="8" COMMENT="" />
    <EXPORT ORDINAL="1185" NAME="?CtGet@COfdCat@@QBE?AVCOfdCt@@XZ" PURGE="4" COMMENT="" />
    <EXPORT ORDINAL="1186" NAME="?CtidGet@COfdCt@@QBE?AW4__MIDL___MIDL_itf_iofd_0125_0001@@XZ" PURGE="0" COMMENT="" />
    <EXPORT ORDINAL="1187" NAME="?CtrnPartialChecksGet@COfdAcct@@QBEJXZ" PURGE="0" COMMENT="" />
    <EXPORT ORDINAL="1188" NAME="?CtrnUnprintedGet@COfdAcct@@QBEJXZ" PURGE="0" COMMENT="" />
    <EXPORT ORDINAL="1189" NAME="?CtrnUnsentGet@COfdAcct@@QBEJXZ" PURGE="0" COMMENT="" />
    <EXPORT ORDINAL="1190" NAME="?CustGet@COfdPmt@@QBE?AVCOfdPay@@XZ" PURGE="4" COMMENT="" />
    <EXPORT ORDINAL="1191" NAME="?CustomCurGet@COfdListCustom@@QBE?AVCOfdCustom@@XZ" PURGE="4" COMMENT="" />
    <EXPORT ORDINAL="1192" NAME="?Cy10Get@COfdBgtItm@@QBE?AVCOfdCurrency@@XZ" PURGE="4" COMMENT="" />
    <EXPORT ORDINAL="1193" NAME="?Cy11Get@COfdBgtItm@@QBE?AVCOfdCurrency@@XZ" PURGE="4" COMMENT="" />
    <EXPORT ORDINAL="1194" NAME="?Cy12Get@COfdBgtItm@@QBE?AVCOfdCurrency@@XZ" PURGE="4" COMMENT="" />
    <EXPORT ORDINAL="1195" NAME="?Cy1Get@COfdBgtItm@@QBE?AVCOfdCurrency@@XZ" PURGE="4" COMMENT="" />
    <EXPORT ORDINAL="1196" NAME="?Cy2Get@COfdBgtItm@@QBE?AVCOfdCurrency@@XZ" PURGE="4" COMMENT="" />
    <EXPORT ORDINAL="1197" NAME="?Cy3Get@COfdBgtItm@@QBE?AVCOfdCurrency@@XZ" PURGE="4" COMMENT="" />
    <EXPORT ORDINAL="1198" NAME="?Cy4Get@COfdBgtItm@@QBE?AVCOfdCurrency@@XZ" PURGE="4" COMMENT="" />
    <EXPORT ORDINAL="1199" NAME="?Cy5Get@COfdBgtItm@@QBE?AVCOfdCurrency@@XZ" PURGE="4" COMMENT="" />
    <EXPORT ORDINAL="1200" NAME="?Cy6Get@COfdBgtItm@@QBE?AVCOfdCurrency@@XZ" PURGE="4" COMMENT="" />
    <EXPORT ORDINAL="1201" NAME="?Cy7Get@COfdBgtItm@@QBE?AVCOfdCurrency@@XZ" PURGE="4" COMMENT="" />
    <EXPORT ORDINAL="1202" NAME="?Cy8Get@COfdBgtItm@@QBE?AVCOfdCurrency@@XZ" PURGE="4" COMMENT="" />
    <EXPORT ORDINAL="1203" NAME="?Cy9Get@COfdBgtItm@@QBE?AVCOfdCurrency@@XZ" PURGE="4" COMMENT="" />
    <EXPORT ORDINAL="1204" NAME="?CyAppreciationGet@COfdTrnCalcs@@QBE?AVCOfdCurrency@@XZ" PURGE="4" COMMENT="" />
    <EXPORT ORDINAL="1205" NAME="?CyAppreciationLTGet@COfdTrnCalcs@@QBE?AVCOfdCurrency@@XZ" PURGE="4" COMMENT="" />
    <EXPORT ORDINAL="1206" NAME="?CyAppreciationLTLongGet@COfdTrnCalcs@@QBE?AVCOfdCurrency@@XZ" PURGE="4" COMMENT="" />
    <EXPORT ORDINAL="1207" NAME="?CyAppreciationLTShortGet@COfdTrnCalcs@@QBE?AVCOfdCurrency@@XZ" PURGE="4" COMMENT="" />
    <EXPORT ORDINAL="1208" NAME="?CyAppreciationLongGet@COfdTrnCalcs@@QBE?AVCOfdCurrency@@XZ" PURGE="4" COMMENT="" />
    <EXPORT ORDINAL="1209" NAME="?CyAppreciationSTGet@COfdTrnCalcs@@QBE?AVCOfdCurrency@@XZ" PURGE="4" COMMENT="" />
    <EXPORT ORDINAL="1210" NAME="?CyAppreciationSTLongGet@COfdTrnCalcs@@QBE?AVCOfdCurrency@@XZ" PURGE="4" COMMENT="" />
    <EXPORT ORDINAL="1211" NAME="?CyAppreciationSTShortGet@COfdTrnCalcs@@QBE?AVCOfdCurrency@@XZ" PURGE="4" COMMENT="" />
    <EXPORT ORDINAL="1212" NAME="?CyAppreciationShortGet@COfdTrnCalcs@@QBE?AVCOfdCurrency@@XZ" PURGE="4" COMMENT="" />
    <EXPORT ORDINAL="1213" NAME="?CyAvgCostBasisGet@COfdTrnCalcs@@QBE?AVCOfdCurrency@@XZ" PURGE="4" COMMENT="" />
    <EXPORT ORDINAL="1214" NAME="?CyBalloonGet@COfdAcct@@QBE?AVCOfdCurrency@@XZ" PURGE="4" COMMENT="" />
    <EXPORT ORDINAL="1215" NAME="?CyBaseGet@COfdTrnBase@@QBE?AVCOfdCurrency@@XZ" PURGE="4" COMMENT="" />
    <EXPORT ORDINAL="1216" NAME="?CyCmnGet@COfdTrnBase@@QBE?AVCOfdCurrency@@XZ" PURGE="4" COMMENT="" />
    <EXPORT ORDINAL="1217" NAME="?CyCommissionGet@COfdBrkStmt@@QBE?AVCOfdCurrency@@XZ" PURGE="4" COMMENT="" />
    <EXPORT ORDINAL="1218" NAME="?CyCommissionsGet@COfdTrnCalcs@@QBE?AVCOfdCurrency@@XZ" PURGE="4" COMMENT="" />
    <EXPORT ORDINAL="1219" NAME="?CyCostBasisGet@COfdTrnCalcs@@QBE?AVCOfdCurrency@@XZ" PURGE="4" COMMENT="" />
    <EXPORT ORDINAL="1220" NAME="?CyCostBasisLTGet@COfdTrnCalcs@@QBE?AVCOfdCurrency@@XZ" PURGE="4" COMMENT="" />
    <EXPORT ORDINAL="1221" NAME="?CyCostBasisLTLongGet@COfdTrnCalcs@@QBE?AVCOfdCurrency@@XZ" PURGE="4" COMMENT="" />
    <EXPORT ORDINAL="1222" NAME="?CyCostBasisLTShortGet@COfdTrnCalcs@@QBE?AVCOfdCurrency@@XZ" PURGE="4" COMMENT="" />
    <EXPORT ORDINAL="1223" NAME="?CyCostBasisLongGet@COfdTrnCalcs@@QBE?AVCOfdCurrency@@XZ" PURGE="4" COMMENT="" />
    <EXPORT ORDINAL="1224" NAME="?CyCostBasisSTGet@COfdTrnCalcs@@QBE?AVCOfdCurrency@@XZ" PURGE="4" COMMENT="" />
    <EXPORT ORDINAL="1225" NAME="?CyCostBasisSTLongGet@COfdTrnCalcs@@QBE?AVCOfdCurrency@@XZ" PURGE="4" COMMENT="" />
    <EXPORT ORDINAL="1226" NAME="?CyCostBasisSTShortGet@COfdTrnCalcs@@QBE?AVCOfdCurrency@@XZ" PURGE="4" COMMENT="" />
    <EXPORT ORDINAL="1227" NAME="?CyCostBasisShareGet@COfdTrnCalcs@@QBE?AVCOfdCurrency@@XZ" PURGE="4" COMMENT="" />
    <EXPORT ORDINAL="1228" NAME="?CyCostBasisShareLTGet@COfdTrnCalcs@@QBE?AVCOfdCurrency@@XZ" PURGE="4" COMMENT="" />
    <EXPORT ORDINAL="1229" NAME="?CyCostBasisShareLTLongGet@COfdTrnCalcs@@QBE?AVCOfdCurrency@@XZ" PURGE="4" COMMENT="" />
    <EXPORT ORDINAL="1230" NAME="?CyCostBasisShareLTShortGet@COfdTrnCalcs@@QBE?AVCOfdCurrency@@XZ" PURGE="4" COMMENT="" />
    <EXPORT ORDINAL="1231" NAME="?CyCostBasisShareLongGet@COfdTrnCalcs@@QBE?AVCOfdCurrency@@XZ" PURGE="4" COMMENT="" />
    <EXPORT ORDINAL="1232" NAME="?CyCostBasisShareSTGet@COfdTrnCalcs@@QBE?AVCOfdCurrency@@XZ" PURGE="4" COMMENT="" />
    <EXPORT ORDINAL="1233" NAME="?CyCostBasisShareSTLongGet@COfdTrnCalcs@@QBE?AVCOfdCurrency@@XZ" PURGE="4" COMMENT="" />
    <EXPORT ORDINAL="1234" NAME="?CyCostBasisShareSTShortGet@COfdTrnCalcs@@QBE?AVCOfdCurrency@@XZ" PURGE="4" COMMENT="" />
    <EXPORT ORDINAL="1235" NAME="?CyCostBasisShareShortGet@COfdTrnCalcs@@QBE?AVCOfdCurrency@@XZ" PURGE="4" COMMENT="" />
    <EXPORT ORDINAL="1236" NAME="?CyCostBasisShortGet@COfdTrnCalcs@@QBE?AVCOfdCurrency@@XZ" PURGE="4" COMMENT="" />
    <EXPORT ORDINAL="1237" NAME="?CyCreditGet@COfdPay@@QBE?AVCOfdCurrency@@XZ" PURGE="4" COMMENT="" />
    <EXPORT ORDINAL="1238" NAME="?CyCurGet@COfdAcct@@QBE?AVCOfdCurrency@@XZ" PURGE="4" COMMENT="" />
    <EXPORT ORDINAL="1239" NAME="?CyCurGet@COfdAuto@@QBE?AVCOfdCurrency@@XZ" PURGE="4" COMMENT="" />
    <EXPORT ORDINAL="1240" NAME="?CyCurGet@COfdListTrn@@QBE?AVCOfdCurrency@@XZ" PURGE="4" COMMENT="" />
    <EXPORT ORDINAL="1241" NAME="?CyDividendGet@COfdPortRec@@QBE?AVCOfdCurrency@@XZ" PURGE="4" COMMENT="" />
    <EXPORT ORDINAL="1242" NAME="?CyEPSGet@COfdSec@@QBE?AVCOfdCurrency@@XZ" PURGE="4" COMMENT="" />
    <EXPORT ORDINAL="1243" NAME="?CyEbppDueGet@COfdStmt@@QBE?AVCOfdCurrency@@XZ" PURGE="4" COMMENT="" />
    <EXPORT ORDINAL="1244" NAME="?CyEbppPmtGet@COfdStmt@@QBE?AVCOfdCurrency@@XZ" PURGE="4" COMMENT="" />
    <EXPORT ORDINAL="1245" NAME="?CyEmplyerGet@COfdPortRec@@QBE?AVCOfdCurrency@@XZ" PURGE="4" COMMENT="" />
    <EXPORT ORDINAL="1246" NAME="?CyEndRecGet@COfdAcct@@QBE?AVCOfdCurrency@@XZ" PURGE="4" COMMENT="" />
    <EXPORT ORDINAL="1247" NAME="?CyFeesGet@COfdTrip@@QBE?AVCOfdCurrency@@XZ" PURGE="4" COMMENT="" />
    <EXPORT ORDINAL="1248" NAME="?CyFilePropGet@COfdFile@@QBE?AVCOfdCurrency@@J@Z" PURGE="8" COMMENT="" />
    <EXPORT ORDINAL="1249" NAME="?CyFirstGet@COfdListTrn@@QBE?AVCOfdCurrency@@XZ" PURGE="4" COMMENT="" />
    <EXPORT ORDINAL="1250" NAME="?CyFldGet@COfdList@@UBE?AVCOfdCurrency@@J@Z" PURGE="8" COMMENT="" />
    <EXPORT ORDINAL="1251" NAME="?CyFldGet@COfdListBill@@UBE?AVCOfdCurrency@@J@Z" PURGE="8" COMMENT="" />
    <EXPORT ORDINAL="1252" NAME="?CyFldGet@COfdListLotTrn@@UBE?AVCOfdCurrency@@J@Z" PURGE="8" COMMENT="" />
    <EXPORT ORDINAL="1253" NAME="?CyFldGet@COfdListSplit@@QBE?AVCOfdCurrency@@J@Z" PURGE="8" COMMENT="" />
    <EXPORT ORDINAL="1254" NAME="?CyFldGet@COfdListStmt@@UBE?AVCOfdCurrency@@J@Z" PURGE="8" COMMENT="" />
    <EXPORT ORDINAL="1255" NAME="?CyFldGet@COfdListTrn@@UBE?AVCOfdCurrency@@J@Z" PURGE="8" COMMENT="" />
    <EXPORT ORDINAL="1256" NAME="?CyFldGet@COfdListTrnPmts@@UBE?AVCOfdCurrency@@J@Z" PURGE="8" COMMENT="" />
    <EXPORT ORDINAL="1257" NAME="?CyFldGet@COfdObject@@UBE?AVCOfdCurrency@@J@Z" PURGE="8" COMMENT="" />
    <EXPORT ORDINAL="1258" NAME="?CyFldGet@COfdStmt@@UBE?AVCOfdCurrency@@J@Z" PURGE="8" COMMENT="" />
    <EXPORT ORDINAL="1259" NAME="?CyFldGet@COfdTrnBase@@UBE?AVCOfdCurrency@@J@Z" PURGE="8" COMMENT="" />
    <EXPORT ORDINAL="1260" NAME="?CyGainGet@COfdTrnCalcs@@QBE?AVCOfdCurrency@@XZ" PURGE="4" COMMENT="" />
    <EXPORT ORDINAL="1261" NAME="?CyGainLTGet@COfdTrnCalcs@@QBE?AVCOfdCurrency@@XZ" PURGE="4" COMMENT="" />
    <EXPORT ORDINAL="1262" NAME="?CyGainLTLongGet@COfdTrnCalcs@@QBE?AVCOfdCurrency@@XZ" PURGE="4" COMMENT="" />
    <EXPORT ORDINAL="1263" NAME="?CyGainLTShortGet@COfdTrnCalcs@@QBE?AVCOfdCurrency@@XZ" PURGE="4" COMMENT="" />
    <EXPORT ORDINAL="1264" NAME="?CyGainLongGet@COfdTrnCalcs@@QBE?AVCOfdCurrency@@XZ" PURGE="4" COMMENT="" />
    <EXPORT ORDINAL="1265" NAME="?CyGainSTGet@COfdTrnCalcs@@QBE?AVCOfdCurrency@@XZ" PURGE="4" COMMENT="" />
    <EXPORT ORDINAL="1266" NAME="?CyGainSTLongGet@COfdTrnCalcs@@QBE?AVCOfdCurrency@@XZ" PURGE="4" COMMENT="" />
    <EXPORT ORDINAL="1267" NAME="?CyGainSTShortGet@COfdTrnCalcs@@QBE?AVCOfdCurrency@@XZ" PURGE="4" COMMENT="" />
    <EXPORT ORDINAL="1268" NAME="?CyGainShortGet@COfdTrnCalcs@@QBE?AVCOfdCurrency@@XZ" PURGE="4" COMMENT="" />
    <EXPORT ORDINAL="1269" NAME="?CyGet@COfdPmt@@QBE?AVCOfdCurrency@@XZ" PURGE="4" COMMENT="" />
    <EXPORT ORDINAL="1270" NAME="?CyGet@COfdPortRec@@QBE?AVCOfdCurrency@@XZ" PURGE="4" COMMENT="" />
    <EXPORT ORDINAL="1271" NAME="?CyGet@COfdProj@@QBE?AVCOfdCurrency@@XZ" PURGE="4" COMMENT="" />
    <EXPORT ORDINAL="1272" NAME="?CyGet@COfdSavGoal@@QBE?AVCOfdCurrency@@XZ" PURGE="4" COMMENT="" />
    <EXPORT ORDINAL="1273" NAME="?CyGet@COfdSec@@QBE?AVCOfdCurrency@@XZ" PURGE="4" COMMENT="" />
    <EXPORT ORDINAL="1274" NAME="?CyGet@COfdStmt@@QBE?AVCOfdCurrency@@XZ" PURGE="4" COMMENT="" />
    <EXPORT ORDINAL="1275" NAME="?CyGet@COfdTrnBase@@QBE?AVCOfdCurrency@@XZ" PURGE="4" COMMENT="" />
    <EXPORT ORDINAL="1276" NAME="?CyImmCapGainGet@COfdStmt@@QBE?AVCOfdCurrency@@XZ" PURGE="4" COMMENT="" />
    <EXPORT ORDINAL="1277" NAME="?CyImmCapGainGet@COfdTrnBase@@QBE?AVCOfdCurrency@@XZ" PURGE="4" COMMENT="" />
    <EXPORT ORDINAL="1278" NAME="?CyIncomeGet@COfdTrnCalcs@@QBE?AVCOfdCurrency@@XZ" PURGE="4" COMMENT="" />
    <EXPORT ORDINAL="1279" NAME="?CyIntGet@COfdTrnBase@@QBE?AVCOfdCurrency@@XZ" PURGE="4" COMMENT="" />
    <EXPORT ORDINAL="1280" NAME="?CyInterestGet@COfdPortRec@@QBE?AVCOfdCurrency@@XZ" PURGE="4" COMMENT="" />
    <EXPORT ORDINAL="1281" NAME="?CyLastGet@COfdListTrn@@QBE?AVCOfdCurrency@@XZ" PURGE="4" COMMENT="" />
    <EXPORT ORDINAL="1282" NAME="?CyLastStmtGet@COfdStmt@@QBE?AVCOfdCurrency@@XZ" PURGE="4" COMMENT="" />
    <EXPORT ORDINAL="1283" NAME="?CyLastStmtGet@COfdSvc@@QBE?AVCOfdCurrency@@XZ" PURGE="4" COMMENT="" />
    <EXPORT ORDINAL="1284" NAME="?CyLimitGet@COfdAcct@@QBE?AVCOfdCurrency@@XZ" PURGE="4" COMMENT="" />
    <EXPORT ORDINAL="1285" NAME="?CyMarketValueEndGet@COfdTrnCalcs@@QBE?AVCOfdCurrency@@XZ" PURGE="4" COMMENT="" />
    <EXPORT ORDINAL="1286" NAME="?CyMarketValueEndLongGet@COfdTrnCalcs@@QBE?AVCOfdCurrency@@XZ" PURGE="4" COMMENT="" />
    <EXPORT ORDINAL="1287" NAME="?CyMarketValueEndShortGet@COfdTrnCalcs@@QBE?AVCOfdCurrency@@XZ" PURGE="4" COMMENT="" />
    <EXPORT ORDINAL="1288" NAME="?CyMarketValueStartGet@COfdTrnCalcs@@QBE?AVCOfdCurrency@@XZ" PURGE="4" COMMENT="" />
    <EXPORT ORDINAL="1289" NAME="?CyMarketValueStartLongGet@COfdTrnCalcs@@QBE?AVCOfdCurrency@@XZ" PURGE="4" COMMENT="" />
    <EXPORT ORDINAL="1290" NAME="?CyMarketValueStartShortGet@COfdTrnCalcs@@QBE?AVCOfdCurrency@@XZ" PURGE="4" COMMENT="" />
    <EXPORT ORDINAL="1291" NAME="?CyMonthlyGet@COfdBgtItm@@QBE?AVCOfdCurrency@@XZ" PURGE="4" COMMENT="" />
    <EXPORT ORDINAL="1292" NAME="?CyOccasionalGet@COfdBgtItm@@QBE?AVCOfdCurrency@@XZ" PURGE="4" COMMENT="" />
    <EXPORT ORDINAL="1293" NAME="?CyOpenGet@COfdAcct@@QBE?AVCOfdCurrency@@XZ" PURGE="4" COMMENT="" />
    <EXPORT ORDINAL="1294" NAME="?CyOpenRecGet@COfdAcct@@QBE?AVCOfdCurrency@@XZ" PURGE="4" COMMENT="" />
    <EXPORT ORDINAL="1295" NAME="?CyPIGet@COfdAcct@@QBE?AVCOfdCurrency@@XZ" PURGE="4" COMMENT="" />
    <EXPORT ORDINAL="1296" NAME="?CyPIGet@COfdLstep@@QBE?AVCOfdCurrency@@XZ" PURGE="4" COMMENT="" />
    <EXPORT ORDINAL="1297" NAME="?CyParGet@COfdPosStmt@@QBE?AVCOfdCurrency@@XZ" PURGE="4" COMMENT="" />
    <EXPORT ORDINAL="1298" NAME="?CyParGet@COfdStmt@@QBE?AVCOfdCurrency@@XZ" PURGE="4" COMMENT="" />
    <EXPORT ORDINAL="1299" NAME="?CyPayMinGet@COfdAcct@@QBE?AVCOfdCurrency@@XZ" PURGE="4" COMMENT="" />
    <EXPORT ORDINAL="1300" NAME="?CyPaymentGet@COfdAcct@@QBE?AVCOfdCurrency@@XZ" PURGE="4" COMMENT="" />
    <EXPORT ORDINAL="1301" NAME="?CyPaymentGet@COfdLstep@@QBE?AVCOfdCurrency@@XZ" PURGE="4" COMMENT="" />
    <EXPORT ORDINAL="1302" NAME="?CyPerFrqGet@COfdBgtItm@@QBE?AVCOfdCurrency@@XZ" PURGE="4" COMMENT="" />
    <EXPORT ORDINAL="1303" NAME="?CyPortValGet@COfdPoolAcct@@QBE?AVCOfdCurrency@@ABVCOfdAcct@@HJ@Z" PURGE="16" COMMENT="" />
    <EXPORT ORDINAL="1304" NAME="?CyPortValGet@COfdPoolAcct@@QBE?AVCOfdCurrency@@ABVCOfdAcct@@NHJ@Z" PURGE="24" COMMENT="" />
    <EXPORT ORDINAL="1305" NAME="?CyPreRecGet@COfdTrnBase@@QBE?AVCOfdCurrency@@XZ" PURGE="4" COMMENT="" />
    <EXPORT ORDINAL="1306" NAME="?CyPurchaseGet@COfdAcct@@QBE?AVCOfdCurrency@@XZ" PURGE="4" COMMENT="" />
    <EXPORT ORDINAL="1307" NAME="?CyPurchasesGet@COfdTrnCalcs@@QBE?AVCOfdCurrency@@XZ" PURGE="4" COMMENT="" />
    <EXPORT ORDINAL="1308" NAME="?CyPurchasesLongGet@COfdTrnCalcs@@QBE?AVCOfdCurrency@@XZ" PURGE="4" COMMENT="" />
    <EXPORT ORDINAL="1309" NAME="?CyPurchasesShortGet@COfdTrnCalcs@@QBE?AVCOfdCurrency@@XZ" PURGE="4" COMMENT="" />
    <EXPORT ORDINAL="1310" NAME="?CyROIInv1WeekGet@COfdTrnCalcs@@QBE?AVCOfdCurrency@@XZ" PURGE="4" COMMENT="" />
    <EXPORT ORDINAL="1311" NAME="?CyROIInv1YearGet@COfdTrnCalcs@@QBE?AVCOfdCurrency@@XZ" PURGE="4" COMMENT="" />
    <EXPORT ORDINAL="1312" NAME="?CyROIInv3MonthGet@COfdTrnCalcs@@QBE?AVCOfdCurrency@@XZ" PURGE="4" COMMENT="" />
    <EXPORT ORDINAL="1313" NAME="?CyROIInv3YearGet@COfdTrnCalcs@@QBE?AVCOfdCurrency@@XZ" PURGE="4" COMMENT="" />
    <EXPORT ORDINAL="1314" NAME="?CyROIInv4WeekGet@COfdTrnCalcs@@QBE?AVCOfdCurrency@@XZ" PURGE="4" COMMENT="" />
    <EXPORT ORDINAL="1315" NAME="?CyROIInvAllDatesGet@COfdTrnCalcs@@QBE?AVCOfdCurrency@@XZ" PURGE="4" COMMENT="" />
    <EXPORT ORDINAL="1316" NAME="?CyROIInvCustomGet@COfdTrnCalcs@@QBE?AVCOfdCurrency@@XZ" PURGE="4" COMMENT="" />
    <EXPORT ORDINAL="1317" NAME="?CyROIInvYTDGet@COfdTrnCalcs@@QBE?AVCOfdCurrency@@XZ" PURGE="4" COMMENT="" />
    <EXPORT ORDINAL="1318" NAME="?CyROIRet1WeekGet@COfdTrnCalcs@@QBE?AVCOfdCurrency@@XZ" PURGE="4" COMMENT="" />
    <EXPORT ORDINAL="1319" NAME="?CyROIRet1YearGet@COfdTrnCalcs@@QBE?AVCOfdCurrency@@XZ" PURGE="4" COMMENT="" />
    <EXPORT ORDINAL="1320" NAME="?CyROIRet3MonthGet@COfdTrnCalcs@@QBE?AVCOfdCurrency@@XZ" PURGE="4" COMMENT="" />
    <EXPORT ORDINAL="1321" NAME="?CyROIRet3YearGet@COfdTrnCalcs@@QBE?AVCOfdCurrency@@XZ" PURGE="4" COMMENT="" />
    <EXPORT ORDINAL="1322" NAME="?CyROIRet4WeekGet@COfdTrnCalcs@@QBE?AVCOfdCurrency@@XZ" PURGE="4" COMMENT="" />
    <EXPORT ORDINAL="1323" NAME="?CyROIRetAllDatesGet@COfdTrnCalcs@@QBE?AVCOfdCurrency@@XZ" PURGE="4" COMMENT="" />
    <EXPORT ORDINAL="1324" NAME="?CyROIRetCustomGet@COfdTrnCalcs@@QBE?AVCOfdCurrency@@XZ" PURGE="4" COMMENT="" />
    <EXPORT ORDINAL="1325" NAME="?CyROIRetYTDGet@COfdTrnCalcs@@QBE?AVCOfdCurrency@@XZ" PURGE="4" COMMENT="" />
    <EXPORT ORDINAL="1326" NAME="?CyRealGainGet@COfdTrnCalcs@@QBE?AVCOfdCurrency@@XZ" PURGE="4" COMMENT="" />
    <EXPORT ORDINAL="1327" NAME="?CyRealGainLongGet@COfdTrnCalcs@@QBE?AVCOfdCurrency@@XZ" PURGE="4" COMMENT="" />
    <EXPORT ORDINAL="1328" NAME="?CyRealGainShortGet@COfdTrnCalcs@@QBE?AVCOfdCurrency@@XZ" PURGE="4" COMMENT="" />
    <EXPORT ORDINAL="1329" NAME="?CyReinvestmentsGet@COfdTrnCalcs@@QBE?AVCOfdCurrency@@XZ" PURGE="4" COMMENT="" />
    <EXPORT ORDINAL="1330" NAME="?CySalesGet@COfdTrnCalcs@@QBE?AVCOfdCurrency@@XZ" PURGE="4" COMMENT="" />
    <EXPORT ORDINAL="1331" NAME="?CySalesLongGet@COfdTrnCalcs@@QBE?AVCOfdCurrency@@XZ" PURGE="4" COMMENT="" />
    <EXPORT ORDINAL="1332" NAME="?CySalesShortGet@COfdTrnCalcs@@QBE?AVCOfdCurrency@@XZ" PURGE="4" COMMENT="" />
    <EXPORT ORDINAL="1333" NAME="?CySpendingGet@COfdAcct@@QBE?AVCOfdCurrency@@XZ" PURGE="4" COMMENT="" />
    <EXPORT ORDINAL="1334" NAME="?CyTaxGet@COfdTrnBase@@QBE?AVCOfdCurrency@@XZ" PURGE="4" COMMENT="" />
    <EXPORT ORDINAL="1335" NAME="?CyTotalGet@COfdCat@@QBE?AVCOfdCurrency@@XZ" PURGE="4" COMMENT="" />
    <EXPORT ORDINAL="1336" NAME="?CyTotalGet@COfdTrnBase@@QBE?AVCOfdCurrency@@XZ" PURGE="4" COMMENT="" />
    <EXPORT ORDINAL="1337" NAME="?CyUserGet@COfdPortRec@@QBE?AVCOfdCurrency@@XZ" PURGE="4" COMMENT="" />
    <EXPORT ORDINAL="1338" NAME="?CyValueGet@COfdCrit@@QBE?AVCOfdCurrency@@XZ" PURGE="4" COMMENT="" />
    <EXPORT ORDINAL="1339" NAME="?CyVatGet@COfdTrnBase@@QBE?AVCOfdCurrency@@XZ" PURGE="4" COMMENT="" />
    <EXPORT ORDINAL="1340" NAME="?D52WeekHighGet@COfdSec@@QBE?AVCOfdDouble@@XZ" PURGE="4" COMMENT="" />
    <EXPORT ORDINAL="1341" NAME="?D52WeekLowGet@COfdSec@@QBE?AVCOfdDouble@@XZ" PURGE="4" COMMENT="" />
    <EXPORT ORDINAL="1342" NAME="?DAnnualRetGet@COfdTrnCalcs@@QBE?AVCOfdDouble@@XZ" PURGE="4" COMMENT="" />
    <EXPORT ORDINAL="1343" NAME="?DAskGet@COfdSec@@QBE?AVCOfdDouble@@XZ" PURGE="4" COMMENT="" />
    <EXPORT ORDINAL="1344" NAME="?DAvgCostGet@COfdProduct@@QBE?AVCOfdDouble@@NJJ@Z" PURGE="20" COMMENT="" />
    <EXPORT ORDINAL="1345" NAME="?DBaseUnitGet@COfdSec@@QBE?AVCOfdDouble@@XZ" PURGE="4" COMMENT="" />
    <EXPORT ORDINAL="1346" NAME="?DBetaGet@COfdSec@@QBE?AVCOfdDouble@@XZ" PURGE="4" COMMENT="" />
    <EXPORT ORDINAL="1347" NAME="?DBidGet@COfdSec@@QBE?AVCOfdDouble@@XZ" PURGE="4" COMMENT="" />
    <EXPORT ORDINAL="1348" NAME="?DCapitalizationGet@COfdSec@@QBE?AVCOfdDouble@@XZ" PURGE="4" COMMENT="" />
    <EXPORT ORDINAL="1349" NAME="?DChangeGet@COfdPrice@@QBE?AVCOfdDouble@@XZ" PURGE="4" COMMENT="" />
    <EXPORT ORDINAL="1350" NAME="?DCostBasisGet@COfdTrnCalcs@@QBE?AVCOfdDouble@@XZ" PURGE="4" COMMENT="" />
    <EXPORT ORDINAL="1351" NAME="?DCostBasisLongGet@COfdTrnCalcs@@QBE?AVCOfdDouble@@XZ" PURGE="4" COMMENT="" />
    <EXPORT ORDINAL="1352" NAME="?DCostBasisShareGet@COfdTrnCalcs@@QBE?AVCOfdDouble@@XZ" PURGE="4" COMMENT="" />
    <EXPORT ORDINAL="1353" NAME="?DCostBasisShareLongGet@COfdTrnCalcs@@QBE?AVCOfdDouble@@XZ" PURGE="4" COMMENT="" />
    <EXPORT ORDINAL="1354" NAME="?DCostBasisShareShortGet@COfdTrnCalcs@@QBE?AVCOfdDouble@@XZ" PURGE="4" COMMENT="" />
    <EXPORT ORDINAL="1355" NAME="?DCostBasisShortGet@COfdTrnCalcs@@QBE?AVCOfdDouble@@XZ" PURGE="4" COMMENT="" />
    <EXPORT ORDINAL="1356" NAME="?DCostGet@COfdProduct@@QBE?AVCOfdDouble@@XZ" PURGE="4" COMMENT="" />
    <EXPORT ORDINAL="1357" NAME="?DDiscountGet@COfdPay@@QBE?AVCOfdDouble@@XZ" PURGE="4" COMMENT="" />
    <EXPORT ORDINAL="1358" NAME="?DDividendYieldGet@COfdSec@@QBE?AVCOfdDouble@@XZ" PURGE="4" COMMENT="" />
    <EXPORT ORDINAL="1359" NAME="?DFilePropGet@COfdFile@@QBE?AVCOfdDouble@@J@Z" PURGE="8" COMMENT="" />
    <EXPORT ORDINAL="1360" NAME="?DFldGet@COfdList@@QBE?AVCOfdDouble@@J@Z" PURGE="8" COMMENT="" />
    <EXPORT ORDINAL="1361" NAME="?DFldGet@COfdListDel@@QBE?AVCOfdDouble@@J@Z" PURGE="8" COMMENT="" />
    <EXPORT ORDINAL="1362" NAME="?DFldGet@COfdListLotTrn@@QBE?AVCOfdDouble@@J@Z" PURGE="8" COMMENT="" />
    <EXPORT ORDINAL="1363" NAME="?DFldGet@COfdListSplit@@QBE?AVCOfdDouble@@J@Z" PURGE="8" COMMENT="" />
    <EXPORT ORDINAL="1364" NAME="?DFldGet@COfdListTrnPmts@@QBE?AVCOfdDouble@@J@Z" PURGE="8" COMMENT="" />
    <EXPORT ORDINAL="1365" NAME="?DFldGet@COfdObject@@QBE?AVCOfdDouble@@J@Z" PURGE="8" COMMENT="" />
    <EXPORT ORDINAL="1366" NAME="?DHighGet@COfdPrice@@QBE?AVCOfdDouble@@XZ" PURGE="4" COMMENT="" />
    <EXPORT ORDINAL="1367" NAME="?DHoursGet@COfdTmi@@QBE?AVCOfdDouble@@XZ" PURGE="4" COMMENT="" />
    <EXPORT ORDINAL="1368" NAME="?DIntRateChgGet@COfdAcct@@QBE?AVCOfdDouble@@XZ" PURGE="4" COMMENT="" />
    <EXPORT ORDINAL="1369" NAME="?DIntRateGet@COfdAcct@@QBE?AVCOfdDouble@@XZ" PURGE="4" COMMENT="" />
    <EXPORT ORDINAL="1370" NAME="?DIntRateGet@COfdSec@@QBE?AVCOfdDouble@@XZ" PURGE="4" COMMENT="" />
    <EXPORT ORDINAL="1371" NAME="?DLowGet@COfdPrice@@QBE?AVCOfdDouble@@XZ" PURGE="4" COMMENT="" />
    <EXPORT ORDINAL="1372" NAME="?DOpenGet@COfdPrice@@QBE?AVCOfdDouble@@XZ" PURGE="4" COMMENT="" />
    <EXPORT ORDINAL="1373" NAME="?DPEGet@COfdPrice@@QBE?AVCOfdDouble@@XZ" PURGE="4" COMMENT="" />
    <EXPORT ORDINAL="1374" NAME="?DPayRateMinGet@COfdAcct@@QBE?AVCOfdDouble@@XZ" PURGE="4" COMMENT="" />
    <EXPORT ORDINAL="1375" NAME="?DPctGet@COfdXbag@@QBE?AVCOfdDouble@@XZ" PURGE="4" COMMENT="" />
    <EXPORT ORDINAL="1376" NAME="?DPctVestFirstGet@COfdSec@@QBE?AVCOfdDouble@@XZ" PURGE="4" COMMENT="" />
    <EXPORT ORDINAL="1377" NAME="?DPctVestNextGet@COfdSec@@QBE?AVCOfdDouble@@XZ" PURGE="4" COMMENT="" />
    <EXPORT ORDINAL="1378" NAME="?DPercentCashGet@COfdSec@@QBE?AVCOfdDouble@@XZ" PURGE="4" COMMENT="" />
    <EXPORT ORDINAL="1379" NAME="?DPercentDebtGet@COfdSec@@QBE?AVCOfdDouble@@XZ" PURGE="4" COMMENT="" />
    <EXPORT ORDINAL="1380" NAME="?DPercentEquityGet@COfdSec@@QBE?AVCOfdDouble@@XZ" PURGE="4" COMMENT="" />
    <EXPORT ORDINAL="1381" NAME="?DPercentOtherGet@COfdSec@@QBE?AVCOfdDouble@@XZ" PURGE="4" COMMENT="" />
    <EXPORT ORDINAL="1382" NAME="?DPercentStockLGet@COfdSec@@QBE?AVCOfdDouble@@XZ" PURGE="4" COMMENT="" />
    <EXPORT ORDINAL="1383" NAME="?DPercentStockMGet@COfdSec@@QBE?AVCOfdDouble@@XZ" PURGE="4" COMMENT="" />
    <EXPORT ORDINAL="1384" NAME="?DPercentStockSGet@COfdSec@@QBE?AVCOfdDouble@@XZ" PURGE="4" COMMENT="" />
    <EXPORT ORDINAL="1385" NAME="?DPeriodExpireGet@COfdPgm@@QBE?AVCOfdDouble@@XZ" PURGE="4" COMMENT="" />
    <EXPORT ORDINAL="1386" NAME="?DPeriodExpireGet@COfdSec@@QBE?AVCOfdDouble@@XZ" PURGE="4" COMMENT="" />
    <EXPORT ORDINAL="1387" NAME="?DPeriodVestNextGet@COfdSec@@QBE?AVCOfdDouble@@XZ" PURGE="4" COMMENT="" />
    <EXPORT ORDINAL="1388" NAME="?DPriceGet@COfdIvty@@QBE?AVCOfdDouble@@XZ" PURGE="4" COMMENT="" />
    <EXPORT ORDINAL="1389" NAME="?DPriceGet@COfdPortRec@@QBE?AVCOfdDouble@@XZ" PURGE="4" COMMENT="" />
    <EXPORT ORDINAL="1390" NAME="?DPriceGet@COfdPrice@@QBE?AVCOfdDouble@@XZ" PURGE="4" COMMENT="" />
    <EXPORT ORDINAL="1391" NAME="?DPriceGet@COfdProduct@@QBE?AVCOfdDouble@@XZ" PURGE="4" COMMENT="" />
    <EXPORT ORDINAL="1392" NAME="?DPriceGet@COfdTrnBase@@QBE?AVCOfdDouble@@XZ" PURGE="4" COMMENT="" />
    <EXPORT ORDINAL="1393" NAME="?DPriceProdGet@COfdTrnBase@@QBE?AVCOfdDouble@@XZ" PURGE="4" COMMENT="" />
    <EXPORT ORDINAL="1394" NAME="?DPriceSplitGet@COfdPrice@@QBE?AVCOfdDouble@@XZ" PURGE="4" COMMENT="" />
    <EXPORT ORDINAL="1395" NAME="?DPriceStrikeGet@COfdPosStmt@@QBE?AVCOfdDouble@@XZ" PURGE="4" COMMENT="" />
    <EXPORT ORDINAL="1396" NAME="?DPriceStrikeGet@COfdSec@@QBE?AVCOfdDouble@@XZ" PURGE="4" COMMENT="" />
    <EXPORT ORDINAL="1397" NAME="?DPriceStrikeGet@COfdStmt@@QBE?AVCOfdDouble@@XZ" PURGE="4" COMMENT="" />
    <EXPORT ORDINAL="1398" NAME="?DQtyGet@COfdIvty@@QBE?AVCOfdDouble@@XZ" PURGE="4" COMMENT="" />
    <EXPORT ORDINAL="1399" NAME="?DQtyGet@COfdPortRec@@QBE?AVCOfdDouble@@XZ" PURGE="4" COMMENT="" />
    <EXPORT ORDINAL="1400" NAME="?DQtyGet@COfdProduct@@QBE?AVCOfdDouble@@NJJ@Z" PURGE="20" COMMENT="" />
    <EXPORT ORDINAL="1401" NAME="?DQtyGet@COfdSoq@@QBE?AVCOfdDouble@@XZ" PURGE="4" COMMENT="" />
    <EXPORT ORDINAL="1402" NAME="?DQtyOpenGet@COfdTrnCalcs@@QBE?AVCOfdDouble@@XZ" PURGE="4" COMMENT="" />
    <EXPORT ORDINAL="1403" NAME="?DQtyOpenLongGet@COfdTrnCalcs@@QBE?AVCOfdDouble@@XZ" PURGE="4" COMMENT="" />
    <EXPORT ORDINAL="1404" NAME="?DQtyOpenShortGet@COfdTrnCalcs@@QBE?AVCOfdDouble@@XZ" PURGE="4" COMMENT="" />
    <EXPORT ORDINAL="1405" NAME="?DROEGet@COfdSec@@QBE?AVCOfdDouble@@XZ" PURGE="4" COMMENT="" />
    <EXPORT ORDINAL="1406" NAME="?DROI1YearGet@COfdSec@@QBE?AVCOfdDouble@@XZ" PURGE="4" COMMENT="" />
    <EXPORT ORDINAL="1407" NAME="?DROI3YearGet@COfdSec@@QBE?AVCOfdDouble@@XZ" PURGE="4" COMMENT="" />
    <EXPORT ORDINAL="1408" NAME="?DROI5YearGet@COfdSec@@QBE?AVCOfdDouble@@XZ" PURGE="4" COMMENT="" />
    <EXPORT ORDINAL="1409" NAME="?DROIGet@COfdSec@@QBE?AVCOfdDouble@@XZ" PURGE="4" COMMENT="" />
    <EXPORT ORDINAL="1410" NAME="?DROIYTDGet@COfdSec@@QBE?AVCOfdDouble@@XZ" PURGE="4" COMMENT="" />
    <EXPORT ORDINAL="1411" NAME="?DRateCalcGet@COfdLstep@@QBE?AVCOfdDouble@@XZ" PURGE="4" COMMENT="" />
    <EXPORT ORDINAL="1412" NAME="?DRateGet@COfdTmi@@QBE?AVCOfdDouble@@XZ" PURGE="4" COMMENT="" />
    <EXPORT ORDINAL="1413" NAME="?DRateTaxGet@COfdPay@@QBE?AVCOfdDouble@@XZ" PURGE="4" COMMENT="" />
    <EXPORT ORDINAL="1414" NAME="?DRateTaxGet@COfdTrnBase@@QBE?AVCOfdDouble@@XZ" PURGE="4" COMMENT="" />
    <EXPORT ORDINAL="1415" NAME="?DRateToBaseGet@COfdBrkStmt@@QBE?AVCOfdDouble@@XZ" PURGE="4" COMMENT="" />
    <EXPORT ORDINAL="1416" NAME="?DRateToBaseGet@COfdTrnBase@@QBE?AVCOfdDouble@@XZ" PURGE="4" COMMENT="" />
    <EXPORT ORDINAL="1417" NAME="?DRateUserGet@COfdLstep@@QBE?AVCOfdDouble@@XZ" PURGE="4" COMMENT="" />
    <EXPORT ORDINAL="1418" NAME="?DReturn1YearGet@COfdSec@@QBE?AVCOfdDouble@@XZ" PURGE="4" COMMENT="" />
    <EXPORT ORDINAL="1419" NAME="?DReturn3YearGet@COfdSec@@QBE?AVCOfdDouble@@XZ" PURGE="4" COMMENT="" />
    <EXPORT ORDINAL="1420" NAME="?DSharesOpen@COfdPoolLot@@QBENABJABVCOfdAcct@@ABVCBaseDateTime@@0@Z" PURGE="16" COMMENT="" />
    <EXPORT ORDINAL="1421" NAME="?DSharesOutstandingGet@COfdSec@@QBE?AVCOfdDouble@@XZ" PURGE="4" COMMENT="" />
    <EXPORT ORDINAL="1422" NAME="?DStrikeGet@COfdPrice@@QBE?AVCOfdDouble@@XZ" PURGE="4" COMMENT="" />
    <EXPORT ORDINAL="1423" NAME="?DTargetHighGet@COfdSec@@QBE?AVCOfdDouble@@XZ" PURGE="4" COMMENT="" />
    <EXPORT ORDINAL="1424" NAME="?DTargetLowGet@COfdSec@@QBE?AVCOfdDouble@@XZ" PURGE="4" COMMENT="" />
    <EXPORT ORDINAL="1425" NAME="?DTargetPriceGet@COfdUnote@@QBE?AVCOfdDouble@@XZ" PURGE="4" COMMENT="" />
    <EXPORT ORDINAL="1426" NAME="?DUnitPriceGet@COfdBrkStmt@@QBE?AVCOfdDouble@@XZ" PURGE="4" COMMENT="" />
    <EXPORT ORDINAL="1427" NAME="?DUnitPriceGet@COfdPosStmt@@QBE?AVCOfdDouble@@XZ" PURGE="4" COMMENT="" />
    <EXPORT ORDINAL="1428" NAME="?DUnitRecGet@COfdAcct@@QBE?AVCOfdDouble@@XZ" PURGE="4" COMMENT="" />
    <EXPORT ORDINAL="1429" NAME="?DUnitsGet@COfdAwd@@QBE?AVCOfdDouble@@XZ" PURGE="4" COMMENT="" />
    <EXPORT ORDINAL="1430" NAME="?DValueGet@COfdCrit@@QBE?AVCOfdDouble@@XZ" PURGE="4" COMMENT="" />
    <EXPORT ORDINAL="1431" NAME="?DVatGet@COfdCat@@QBE?AVCOfdDouble@@XZ" PURGE="4" COMMENT="" />
    <EXPORT ORDINAL="1432" NAME="?DVestFirstGet@COfdSec@@QBE?AVCOfdDouble@@XZ" PURGE="4" COMMENT="" />
    <EXPORT ORDINAL="1433" NAME="?Delete@COfdObject@@UAEXXZ" PURGE="0" COMMENT="" />
    <EXPORT ORDINAL="1434" NAME="?Delete@COfdTrn@@UAEXXZ" PURGE="0" COMMENT="" />
    <EXPORT ORDINAL="1435" NAME="?DeleteAlias@COfdAcct@@QAEXPBD000@Z" PURGE="16" COMMENT="" />
    <EXPORT ORDINAL="1436" NAME="?DeleteAliases@COfdAcct@@QAEXXZ" PURGE="0" COMMENT="" />
    <EXPORT ORDINAL="1437" NAME="?DeleteAllInst@COfdBill@@QAEXXZ" PURGE="0" COMMENT="" />
    <EXPORT ORDINAL="1438" NAME="?DeleteAllUnpaidInst@COfdBill@@QAEXXZ" PURGE="0" COMMENT="" />
    <EXPORT ORDINAL="1439" NAME="?DeleteCeoidMapping@COfdFile@@QAEXW4__MIDL___MIDL_itf_iofd_0120_0003@@J@Z" PURGE="8" COMMENT="" />
    <EXPORT ORDINAL="1440" NAME="?DeleteCustomField@COfdPool@@QAEXJ@Z" PURGE="4" COMMENT="" />
    <EXPORT ORDINAL="1441" NAME="?DeleteCustomPool@COfdPool@@QAEXXZ" PURGE="0" COMMENT="" />
    <EXPORT ORDINAL="1442" NAME="?DeleteListSplit@COfdTrn@@QAEXXZ" PURGE="0" COMMENT="" />
    <EXPORT ORDINAL="1443" NAME="?DeleteRemap@COfdAcct@@QAEXAAVCOfdCat@@0@Z" PURGE="8" COMMENT="" />
    <EXPORT ORDINAL="1444" NAME="?DeleteSatMapping@COfdPoolSec@@QAEXPBD@Z" PURGE="4" COMMENT="" />
    <EXPORT ORDINAL="1445" NAME="?Detach@COfdVariant@@QAE?AUtagVARIANT@@XZ" PURGE="4" COMMENT="" />
    <EXPORT ORDINAL="1446" NAME="?DtAmortEndGet@COfdLstep@@QBE?AVCBaseDateTime@@XZ" PURGE="4" COMMENT="" />
    <EXPORT ORDINAL="1447" NAME="?DtAsOfGet@COfdPosStmt@@QBE?AVCBaseDateTime@@XZ" PURGE="4" COMMENT="" />
    <EXPORT ORDINAL="1448" NAME="?DtBuyGet@COfdLot@@QBE?AVCBaseDateTime@@XZ" PURGE="4" COMMENT="" />
    <EXPORT ORDINAL="1449" NAME="?DtCBPostGet@COfdAcct@@QBE?AVCBaseDateTime@@XZ" PURGE="4" COMMENT="" />
    <EXPORT ORDINAL="1450" NAME="?DtCCExpGet@COfdPay@@QBE?AVCBaseDateTime@@XZ" PURGE="4" COMMENT="" />
    <EXPORT ORDINAL="1451" NAME="?DtCallGet@COfdSec@@QBE?AVCBaseDateTime@@XZ" PURGE="4" COMMENT="" />
    <EXPORT ORDINAL="1452" NAME="?DtClearedGet@COfdTrnBase@@QBE?AVCBaseDateTime@@XZ" PURGE="4" COMMENT="" />
    <EXPORT ORDINAL="1453" NAME="?DtCloseGet@COfdAcct@@QBE?AVCBaseDateTime@@XZ" PURGE="4" COMMENT="" />
    <EXPORT ORDINAL="1454" NAME="?DtCloseGet@COfdLot@@QBE?AVCBaseDateTime@@XZ" PURGE="4" COMMENT="" />
    <EXPORT ORDINAL="1455" NAME="?DtCloseOffYearGet@COfdTrnBase@@QBE?AVCBaseDateTime@@XZ" PURGE="4" COMMENT="" />
    <EXPORT ORDINAL="1456" NAME="?DtDueGet@COfdTrnBase@@QBE?AVCBaseDateTime@@XZ" PURGE="4" COMMENT="" />
    <EXPORT ORDINAL="1457" NAME="?DtDueToBillerGet@COfdTrnBase@@QBE?AVCBaseDateTime@@XZ" PURGE="4" COMMENT="" />
    <EXPORT ORDINAL="1458" NAME="?DtEarliestLatestTrnGet@COfdPoolTrn@@QBENHH@Z" PURGE="8" COMMENT="" />
    <EXPORT ORDINAL="1459" NAME="?DtEbppDueGet@COfdStmt@@QBE?AVCBaseDateTime@@XZ" PURGE="4" COMMENT="" />
    <EXPORT ORDINAL="1460" NAME="?DtEbppPmtDueGet@COfdStmt@@QBE?AVCBaseDateTime@@XZ" PURGE="4" COMMENT="" />
    <EXPORT ORDINAL="1461" NAME="?DtEndGet@COfdBgt@@QBE?AVCBaseDateTime@@XZ" PURGE="4" COMMENT="" />
    <EXPORT ORDINAL="1462" NAME="?DtEndGet@COfdLstep@@QBE?AVCBaseDateTime@@XZ" PURGE="4" COMMENT="" />
    <EXPORT ORDINAL="1463" NAME="?DtEndGet@COfdProj@@QBE?AVCBaseDateTime@@XZ" PURGE="4" COMMENT="" />
    <EXPORT ORDINAL="1464" NAME="?DtEndGet@COfdTmi@@QBE?AVCBaseDateTime@@XZ" PURGE="4" COMMENT="" />
    <EXPORT ORDINAL="1465" NAME="?DtEndGet@COfdTrip@@QBE?AVCBaseDateTime@@XZ" PURGE="4" COMMENT="" />
    <EXPORT ORDINAL="1466" NAME="?DtEndRecGet@COfdAcct@@QBE?AVCBaseDateTime@@XZ" PURGE="4" COMMENT="" />
    <EXPORT ORDINAL="1467" NAME="?DtExpireGet@COfdAwd@@QBE?AVCBaseDateTime@@XZ" PURGE="4" COMMENT="" />
    <EXPORT ORDINAL="1468" NAME="?DtExpireGet@COfdFile@@QBE?AVCBaseDateTime@@XZ" PURGE="4" COMMENT="" />
    <EXPORT ORDINAL="1469" NAME="?DtExpireGet@COfdPosStmt@@QBE?AVCBaseDateTime@@XZ" PURGE="4" COMMENT="" />
    <EXPORT ORDINAL="1470" NAME="?DtExpireGet@COfdPrice@@QBE?AVCBaseDateTime@@XZ" PURGE="4" COMMENT="" />
    <EXPORT ORDINAL="1471" NAME="?DtExpireGet@COfdSec@@QBE?AVCBaseDateTime@@XZ" PURGE="4" COMMENT="" />
    <EXPORT ORDINAL="1472" NAME="?DtExpireGet@COfdStmt@@QBE?AVCBaseDateTime@@XZ" PURGE="4" COMMENT="" />
    <EXPORT ORDINAL="1473" NAME="?DtFYIGet@COfdSec@@QBE?AVCBaseDateTime@@XZ" PURGE="4" COMMENT="" />
    <EXPORT ORDINAL="1474" NAME="?DtFYILastReadGet@COfdSec@@QBE?AVCBaseDateTime@@XZ" PURGE="4" COMMENT="" />
    <EXPORT ORDINAL="1475" NAME="?DtFilePropGet@COfdFile@@QBE?AVCBaseDateTime@@J@Z" PURGE="8" COMMENT="" />
    <EXPORT ORDINAL="1476" NAME="?DtFldGet@COfdList@@QBE?AVCBaseDateTime@@J@Z" PURGE="8" COMMENT="" />
    <EXPORT ORDINAL="1477" NAME="?DtFldGet@COfdListDel@@QBE?AVCBaseDateTime@@J@Z" PURGE="8" COMMENT="" />
    <EXPORT ORDINAL="1478" NAME="?DtFldGet@COfdListLotTrn@@QBE?AVCBaseDateTime@@J@Z" PURGE="8" COMMENT="" />
    <EXPORT ORDINAL="1479" NAME="?DtFldGet@COfdListSplit@@QBE?AVCBaseDateTime@@J@Z" PURGE="8" COMMENT="" />
    <EXPORT ORDINAL="1480" NAME="?DtFldGet@COfdListTrnPmts@@QBE?AVCBaseDateTime@@J@Z" PURGE="8" COMMENT="" />
    <EXPORT ORDINAL="1481" NAME="?DtFldGet@COfdObject@@QBE?AVCBaseDateTime@@J@Z" PURGE="8" COMMENT="" />
    <EXPORT ORDINAL="1482" NAME="?DtFollowupGet@COfdListTrn@@QBE?AVCBaseDateTime@@XZ" PURGE="4" COMMENT="" />
    <EXPORT ORDINAL="1483" NAME="?DtFollowupGet@COfdTrn@@QBE?AVCBaseDateTime@@XZ" PURGE="4" COMMENT="" />
    <EXPORT ORDINAL="1484" NAME="?DtFollowupGet@COfdXbag@@QBE?AVCBaseDateTime@@XZ" PURGE="4" COMMENT="" />
    <EXPORT ORDINAL="1485" NAME="?DtGet@COfdAwd@@QBE?AVCBaseDateTime@@XZ" PURGE="4" COMMENT="" />
    <EXPORT ORDINAL="1486" NAME="?DtGet@COfdBgtItm@@QBE?AVCBaseDateTime@@XZ" PURGE="4" COMMENT="" />
    <EXPORT ORDINAL="1487" NAME="?DtGet@COfdBill@@UBE?AVCBaseDateTime@@XZ" PURGE="4" COMMENT="" />
    <EXPORT ORDINAL="1488" NAME="?DtGet@COfdIvty@@QBE?AVCBaseDateTime@@XZ" PURGE="4" COMMENT="" />
    <EXPORT ORDINAL="1489" NAME="?DtGet@COfdPrice@@QBE?AVCBaseDateTime@@XZ" PURGE="4" COMMENT="" />
    <EXPORT ORDINAL="1490" NAME="?DtGet@COfdSavGoal@@QBE?AVCBaseDateTime@@XZ" PURGE="4" COMMENT="" />
    <EXPORT ORDINAL="1491" NAME="?DtGet@COfdTrn@@UBE?AVCBaseDateTime@@XZ" PURGE="4" COMMENT="" />
    <EXPORT ORDINAL="1492" NAME="?DtIniEntryGet@COfdProvFi@@QBE?AVCBaseDateTime@@XZ" PURGE="4" COMMENT="" />
    <EXPORT ORDINAL="1493" NAME="?DtIntRateChgGet@COfdAcct@@QBE?AVCBaseDateTime@@XZ" PURGE="4" COMMENT="" />
    <EXPORT ORDINAL="1494" NAME="?DtInvoiceGet@COfdPmt@@QBE?AVCBaseDateTime@@XZ" PURGE="4" COMMENT="" />
    <EXPORT ORDINAL="1495" NAME="?DtLastAcctUpGet@COfdProvFi@@QBE?AVCBaseDateTime@@XZ" PURGE="4" COMMENT="" />
    <EXPORT ORDINAL="1496" NAME="?DtLastAttemptGet@COfdProvFi@@QBE?AVCBaseDateTime@@XZ" PURGE="4" COMMENT="" />
    <EXPORT ORDINAL="1497" NAME="?DtLastCallGet@COfdProvFi@@QBE?AVCBaseDateTime@@XZ" PURGE="4" COMMENT="" />
    <EXPORT ORDINAL="1498" NAME="?DtLastGet@COfdPay@@QBE?AVCBaseDateTime@@XZ" PURGE="4" COMMENT="" />
    <EXPORT ORDINAL="1499" NAME="?DtLastHistQuoteGet@COfdSec@@QBE?AVCBaseDateTime@@XZ" PURGE="4" COMMENT="" />
    <EXPORT ORDINAL="1500" NAME="?DtLastModifiedGet@COfdPay@@QBE?AVCBaseDateTime@@XZ" PURGE="4" COMMENT="" />
    <EXPORT ORDINAL="1501" NAME="?DtLastStmtDownGet@COfdSvc@@QBE?AVCBaseDateTime@@XZ" PURGE="4" COMMENT="" />
    <EXPORT ORDINAL="1502" NAME="?DtLastTrnGet@COfdTrnCalcs@@QBENXZ" PURGE="0" COMMENT="" />
    <EXPORT ORDINAL="1503" NAME="?DtLastUpdateGet@COfdSec@@QBE?AVCBaseDateTime@@XZ" PURGE="4" COMMENT="" />
    <EXPORT ORDINAL="1504" NAME="?DtLatestGet@COfdPoolAdv@@QBE?AVCBaseDateTime@@J@Z" PURGE="8" COMMENT="" />
    <EXPORT ORDINAL="1505" NAME="?DtMaturityGet@COfdPosStmt@@QBE?AVCBaseDateTime@@XZ" PURGE="4" COMMENT="" />
    <EXPORT ORDINAL="1506" NAME="?DtMaturityGet@COfdSec@@QBE?AVCBaseDateTime@@XZ" PURGE="4" COMMENT="" />
    <EXPORT ORDINAL="1507" NAME="?DtMaturityGet@COfdStmt@@QBE?AVCBaseDateTime@@XZ" PURGE="4" COMMENT="" />
    <EXPORT ORDINAL="1508" NAME="?DtMaxGet@COfdBill@@QBE?AVCBaseDateTime@@XZ" PURGE="4" COMMENT="" />
    <EXPORT ORDINAL="1509" NAME="?DtMnnFileGet@COfdProvFi@@QBE?AVCBaseDateTime@@XZ" PURGE="4" COMMENT="" />
    <EXPORT ORDINAL="1510" NAME="?DtModelEndGet@COfdTrnBase@@QBE?AVCBaseDateTime@@XZ" PURGE="4" COMMENT="" />
    <EXPORT ORDINAL="1511" NAME="?DtModelStartGet@COfdTrnBase@@QBE?AVCBaseDateTime@@XZ" PURGE="4" COMMENT="" />
    <EXPORT ORDINAL="1512" NAME="?DtNewsGet@COfdSec@@QBE?AVCBaseDateTime@@XZ" PURGE="4" COMMENT="" />
    <EXPORT ORDINAL="1513" NAME="?DtNewsLastReadGet@COfdSec@@QBE?AVCBaseDateTime@@XZ" PURGE="4" COMMENT="" />
    <EXPORT ORDINAL="1514" NAME="?DtNextAdjGet@COfdAcct@@QBE?AVCBaseDateTime@@XZ" PURGE="4" COMMENT="" />
    <EXPORT ORDINAL="1515" NAME="?DtNextDebtPayGet@COfdAcct@@QBE?AVCBaseDateTime@@XZ" PURGE="4" COMMENT="" />
    <EXPORT ORDINAL="1516" NAME="?DtOldRelGet@COfdTrnBase@@QBE?AVCBaseDateTime@@XZ" PURGE="4" COMMENT="" />
    <EXPORT ORDINAL="1517" NAME="?DtOpenGet@COfdAcct@@QBE?AVCBaseDateTime@@XZ" PURGE="4" COMMENT="" />
    <EXPORT ORDINAL="1518" NAME="?DtOpenGet@COfdLot@@QBE?AVCBaseDateTime@@XZ" PURGE="4" COMMENT="" />
    <EXPORT ORDINAL="1519" NAME="?DtOpenRecGet@COfdAcct@@QBE?AVCBaseDateTime@@XZ" PURGE="4" COMMENT="" />
    <EXPORT ORDINAL="1520" NAME="?DtPmtGet@COfdPmt@@QBE?AVCBaseDateTime@@XZ" PURGE="4" COMMENT="" />
    <EXPORT ORDINAL="1521" NAME="?DtPostGet@COfdStmt@@QBE?AVCBaseDateTime@@XZ" PURGE="4" COMMENT="" />
    <EXPORT ORDINAL="1522" NAME="?DtPostGet@COfdTrnBase@@QBE?AVCBaseDateTime@@XZ" PURGE="4" COMMENT="" />
    <EXPORT ORDINAL="1523" NAME="?DtPurchaseGet@COfdAcct@@QBE?AVCBaseDateTime@@XZ" PURGE="4" COMMENT="" />
    <EXPORT ORDINAL="1524" NAME="?DtPutToBizGet@COfdAuto@@QBE?AVCBaseDateTime@@XZ" PURGE="4" COMMENT="" />
    <EXPORT ORDINAL="1525" NAME="?DtRecordGet@COfdPrice@@QBE?AVCBaseDateTime@@XZ" PURGE="4" COMMENT="" />
    <EXPORT ORDINAL="1526" NAME="?DtSellGet@COfdLot@@QBE?AVCBaseDateTime@@XZ" PURGE="4" COMMENT="" />
    <EXPORT ORDINAL="1527" NAME="?DtSentByFiGet@COfdMail@@QBE?AVCBaseDateTime@@XZ" PURGE="4" COMMENT="" />
    <EXPORT ORDINAL="1528" NAME="?DtSentByOLPGet@COfdTrnBase@@QBE?AVCBaseDateTime@@XZ" PURGE="4" COMMENT="" />
    <EXPORT ORDINAL="1529" NAME="?DtSentGet@COfdTrnBase@@QBE?AVCBaseDateTime@@XZ" PURGE="4" COMMENT="" />
    <EXPORT ORDINAL="1530" NAME="?DtSerialGet@COfdAcct@@QBE?AVCBaseDateTime@@XZ" PURGE="4" COMMENT="" />
    <EXPORT ORDINAL="1531" NAME="?DtSerialGet@COfdBill@@UBE?AVCBaseDateTime@@XZ" PURGE="4" COMMENT="" />
    <EXPORT ORDINAL="1532" NAME="?DtSerialGet@COfdCat@@QBE?AVCBaseDateTime@@XZ" PURGE="4" COMMENT="" />
    <EXPORT ORDINAL="1533" NAME="?DtSerialGet@COfdPay@@QBE?AVCBaseDateTime@@XZ" PURGE="4" COMMENT="" />
    <EXPORT ORDINAL="1534" NAME="?DtSerialGet@COfdSec@@QBE?AVCBaseDateTime@@XZ" PURGE="4" COMMENT="" />
    <EXPORT ORDINAL="1535" NAME="?DtSerialGet@COfdTrn@@UBE?AVCBaseDateTime@@XZ" PURGE="4" COMMENT="" />
    <EXPORT ORDINAL="1536" NAME="?DtSettleGet@COfdStmt@@QBE?AVCBaseDateTime@@XZ" PURGE="4" COMMENT="" />
    <EXPORT ORDINAL="1537" NAME="?DtShipGet@COfdTrnBase@@QBE?AVCBaseDateTime@@XZ" PURGE="4" COMMENT="" />
    <EXPORT ORDINAL="1538" NAME="?DtSplitGet@COfdSec@@QBE?AVCBaseDateTime@@XZ" PURGE="4" COMMENT="" />
    <EXPORT ORDINAL="1539" NAME="?DtStartGet@COfdBgt@@QBE?AVCBaseDateTime@@XZ" PURGE="4" COMMENT="" />
    <EXPORT ORDINAL="1540" NAME="?DtStartGet@COfdProj@@QBE?AVCBaseDateTime@@XZ" PURGE="4" COMMENT="" />
    <EXPORT ORDINAL="1541" NAME="?DtStartGet@COfdTmi@@QBE?AVCBaseDateTime@@XZ" PURGE="4" COMMENT="" />
    <EXPORT ORDINAL="1542" NAME="?DtStartGet@COfdTrip@@QBE?AVCBaseDateTime@@XZ" PURGE="4" COMMENT="" />
    <EXPORT ORDINAL="1543" NAME="?DtTargetGet@COfdUnote@@QBE?AVCBaseDateTime@@XZ" PURGE="4" COMMENT="" />
    <EXPORT ORDINAL="1544" NAME="?DtTradeGet@COfdBrkStmt@@QBE?AVCBaseDateTime@@XZ" PURGE="4" COMMENT="" />
    <EXPORT ORDINAL="1545" NAME="?DtTriggerGet@COfdAdv@@QBE?AVCBaseDateTime@@XZ" PURGE="4" COMMENT="" />
    <EXPORT ORDINAL="1546" NAME="?DtTrnOldGet@COfdXbag@@QBE?AVCBaseDateTime@@XZ" PURGE="4" COMMENT="" />
    <EXPORT ORDINAL="1547" NAME="?DtValueGet@COfdCrit@@QBE?AVCBaseDateTime@@XZ" PURGE="4" COMMENT="" />
    <EXPORT ORDINAL="1548" NAME="?DtWarrantyEndGet@COfdAuto@@QBE?AVCBaseDateTime@@XZ" PURGE="4" COMMENT="" />
    <EXPORT ORDINAL="1549" NAME="?DtXbagFldGet@COfdCat@@QBE?AVCBaseDateTime@@JW4__MIDL___MIDL_itf_iofd_0249_0002@@@Z" PURGE="12" COMMENT="" />
    <EXPORT ORDINAL="1550" NAME="?DtXbagFldGet@COfdListBill@@QBE?AVCBaseDateTime@@JW4__MIDL___MIDL_itf_iofd_0249_0002@@@Z" PURGE="12" COMMENT="" />
    <EXPORT ORDINAL="1551" NAME="?DtXbagFldGet@COfdListCat@@QBE?AVCBaseDateTime@@JW4__MIDL___MIDL_itf_iofd_0249_0002@@@Z" PURGE="12" COMMENT="" />
    <EXPORT ORDINAL="1552" NAME="?DtXbagFldGet@COfdListTrn@@QBE?AVCBaseDateTime@@JW4__MIDL___MIDL_itf_iofd_0249_0002@@@Z" PURGE="12" COMMENT="" />
    <EXPORT ORDINAL="1553" NAME="?DtXbagFldGet@COfdTrnBase@@QBE?AVCBaseDateTime@@JW4__MIDL___MIDL_itf_iofd_0249_0002@@@Z" PURGE="12" COMMENT="" />
    <EXPORT ORDINAL="1554" NAME="?EltGet@COfdUie@@QBE?AW4__MIDL___MIDL_itf_iofd_0252_0003@@XZ" PURGE="0" COMMENT="" />
    <EXPORT ORDINAL="1555" NAME="?EngineOwningGet@COfdFile@@QBE?AVCOfdEngine@@XZ" PURGE="4" COMMENT="" />
    <EXPORT ORDINAL="1556" NAME="?ExGet@COfdException@@SAAAV1@XZ" PURGE="0" COMMENT="" />
    <EXPORT ORDINAL="1557" NAME="?ExchgidGet@COfdPrice@@QBEJXZ" PURGE="0" COMMENT="" />
    <EXPORT ORDINAL="1558" NAME="?FAcctFind@COfdPoolAcct@@QBEHPBDJW4__MIDL___MIDL_itf_iofd_0121_0001@@PAVCOfdAcct@@PAH@Z" PURGE="20" COMMENT="" />
    <EXPORT ORDINAL="1559" NAME="?FAcctFindFromAlias@COfdPoolAcct@@QBEHPBD0PAVCOfdAcct@@00@Z" PURGE="20" COMMENT="" />
    <EXPORT ORDINAL="1560" NAME="?FAcctFromHmco@COfdPoolAcct@@QBEHJPAVCOfdAcct@@@Z" PURGE="8" COMMENT="" />
    <EXPORT ORDINAL="1561" NAME="?FAcctFromHobj@COfdPoolAcct@@QBEHJPAVCOfdAcct@@@Z" PURGE="8" COMMENT="" />
    <EXPORT ORDINAL="1562" NAME="?FAdjustAmtPostGet@COfdAcct@@QBEHXZ" PURGE="0" COMMENT="" />
    <EXPORT ORDINAL="1563" NAME="?FAdvFromHobj@COfdPoolAdv@@QBEHJPAVCOfdAdv@@@Z" PURGE="8" COMMENT="" />
    <EXPORT ORDINAL="1564" NAME="?FAlsRequiredGet@COfdProvFi@@QBEHXZ" PURGE="0" COMMENT="" />
    <EXPORT ORDINAL="1565" NAME="?FApayUpdateNeededGet@COfdTrnBase@@QBEHXZ" PURGE="0" COMMENT="" />
    <EXPORT ORDINAL="1566" NAME="?FApayUpdateNeededGet@COfdTrnBase@@SAHJ@Z" PURGE="0" COMMENT="" />
    <EXPORT ORDINAL="1567" NAME="?FArmGet@COfdAcct@@QBEHXZ" PURGE="0" COMMENT="" />
    <EXPORT ORDINAL="1568" NAME="?FAutoASGet@COfdFi@@QBEHXZ" PURGE="0" COMMENT="" />
    <EXPORT ORDINAL="1569" NAME="?FAutoASOSURequiredGet@COfdFi@@QBEHXZ" PURGE="0" COMMENT="" />
    <EXPORT ORDINAL="1570" NAME="?FAutoFind@COfdPoolAuto@@QBEHPBDJPAVCOfdAuto@@PAH@Z" PURGE="16" COMMENT="" />
    <EXPORT ORDINAL="1571" NAME="?FAutoFromHobj@COfdPoolAuto@@QBEHJPAVCOfdAuto@@@Z" PURGE="8" COMMENT="" />
    <EXPORT ORDINAL="1572" NAME="?FAutoReconGet@COfdAcct@@QBEHXZ" PURGE="0" COMMENT="" />
    <EXPORT ORDINAL="1573" NAME="?FAutobalanceGet@COfdAcct@@QBEHXZ" PURGE="0" COMMENT="" />
    <EXPORT ORDINAL="1574" NAME="?FAutofillMemoGet@COfdPay@@QBEHXZ" PURGE="0" COMMENT="" />
    <EXPORT ORDINAL="1575" NAME="?FAwdFromHobj@COfdPoolAwd@@QBEHJPAVCOfdAwd@@@Z" PURGE="8" COMMENT="" />
    <EXPORT ORDINAL="1576" NAME="?FBOLGet@COfdList@@QBEHXZ" PURGE="0" COMMENT="" />
    <EXPORT ORDINAL="1577" NAME="?FBOLGet@COfdListCrit@@QBEHXZ" PURGE="0" COMMENT="" />
    <EXPORT ORDINAL="1578" NAME="?FBOLGet@COfdListDel@@QBEHXZ" PURGE="0" COMMENT="" />
    <EXPORT ORDINAL="1579" NAME="?FBOLGet@COfdListLotTrn@@QBEHXZ" PURGE="0" COMMENT="" />
    <EXPORT ORDINAL="1580" NAME="?FBOLGet@COfdListSplit@@QBEHXZ" PURGE="0" COMMENT="" />
    <EXPORT ORDINAL="1581" NAME="?FBOLGet@COfdListTrnPmts@@QBEHXZ" PURGE="0" COMMENT="" />
    <EXPORT ORDINAL="1582" NAME="?FBgtBktFind@COfdPoolBgtBkt@@QBEHPBDJPAVCOfdBgtBkt@@PAH@Z" PURGE="16" COMMENT="" />
    <EXPORT ORDINAL="1583" NAME="?FBgtBktFromHobj@COfdPoolBgtBkt@@QBEHJPAVCOfdBgtBkt@@@Z" PURGE="8" COMMENT="" />
    <EXPORT ORDINAL="1584" NAME="?FBgtFind@COfdPoolBgt@@QBEHPBDJPAVCOfdBgt@@PAH@Z" PURGE="16" COMMENT="" />
    <EXPORT ORDINAL="1585" NAME="?FBgtFromHobj@COfdPoolBgt@@QBEHJPAVCOfdBgt@@@Z" PURGE="8" COMMENT="" />
    <EXPORT ORDINAL="1586" NAME="?FBgtItmFind@COfdPoolBgtItm@@QBEHPBDJPAVCOfdBgtItm@@PAH@Z" PURGE="16" COMMENT="" />
    <EXPORT ORDINAL="1587" NAME="?FBgtItmFromHobj@COfdPoolBgtItm@@QBEHJPAVCOfdBgtItm@@@Z" PURGE="8" COMMENT="" />
    <EXPORT ORDINAL="1588" NAME="?FBillFind@COfdPoolBill@@QBEHPBDJPAVCOfdBill@@PAH@Z" PURGE="16" COMMENT="" />
    <EXPORT ORDINAL="1589" NAME="?FBillFromTri@COfdPoolBill@@QBEHABVCBillTri@@PAVCOfdBill@@@Z" PURGE="8" COMMENT="" />
    <EXPORT ORDINAL="1590" NAME="?FBillModeGet@COfdListSplit@@QBEHXZ" PURGE="0" COMMENT="" />
    <EXPORT ORDINAL="1591" NAME="?FBizGet@COfdCt@@QBEHXZ" PURGE="0" COMMENT="" />
    <EXPORT ORDINAL="1592" NAME="?FBrkStmtFromHobj@COfdPoolStmt@@QBEHJPAVCOfdBrkStmt@@@Z" PURGE="8" COMMENT="" />
    <EXPORT ORDINAL="1593" NAME="?FBusinessGet@COfdAcct@@QBEHXZ" PURGE="0" COMMENT="" />
    <EXPORT ORDINAL="1594" NAME="?FBusinessGet@COfdCat@@QBEHXZ" PURGE="0" COMMENT="" />
    <EXPORT ORDINAL="1595" NAME="?FCCPmtGet@COfdTrnBase@@QBEHXZ" PURGE="0" COMMENT="" />
    <EXPORT ORDINAL="1596" NAME="?FCalcGet@COfdCat@@QBEHXZ" PURGE="0" COMMENT="" />
    <EXPORT ORDINAL="1597" NAME="?FCallGet@COfdSec@@QBEHXZ" PURGE="0" COMMENT="" />
    <EXPORT ORDINAL="1598" NAME="?FCallInProgressGet@COfdProvFi@@QBEHXZ" PURGE="0" COMMENT="" />
    <EXPORT ORDINAL="1599" NAME="?FCanadianGet@COfdAcct@@QBEHXZ" PURGE="0" COMMENT="" />
    <EXPORT ORDINAL="1600" NAME="?FCannotSendGet@COfdTrnBase@@QBEHXZ" PURGE="0" COMMENT="" />
    <EXPORT ORDINAL="1601" NAME="?FCatFind@COfdPoolCat@@QBEHPBDJJPAVCOfdCat@@PAH@Z" PURGE="20" COMMENT="" />
    <EXPORT ORDINAL="1602" NAME="?FCatFindEx@COfdPoolCat@@QBEHPBDJJJJJPAVCOfdCat@@PAH@Z" PURGE="32" COMMENT="" />
    <EXPORT ORDINAL="1603" NAME="?FCatFromHobj@COfdPoolCat@@QBEHJPAVCOfdCat@@@Z" PURGE="8" COMMENT="" />
    <EXPORT ORDINAL="1604" NAME="?FChild@COfdTrnBase@@QBEHXZ" PURGE="0" COMMENT="" />
    <EXPORT ORDINAL="1605" NAME="?FChild@COfdTrnBase@@SAHJ@Z" PURGE="0" COMMENT="" />
    <EXPORT ORDINAL="1606" NAME="?FClosedGet@COfdAcct@@QBEHXZ" PURGE="0" COMMENT="" />
    <EXPORT ORDINAL="1607" NAME="?FClosedGet@COfdPgm@@QBEHXZ" PURGE="0" COMMENT="" />
    <EXPORT ORDINAL="1608" NAME="?FClosingGet@COfdPrice@@QBEHXZ" PURGE="0" COMMENT="" />
    <EXPORT ORDINAL="1609" NAME="?FClosingTrnExists@COfdTrnCalcs@@QBEHXZ" PURGE="0" COMMENT="" />
    <EXPORT ORDINAL="1610" NAME="?FCntryFind@COfdPoolCntry@@QBEHPBDJPAVCOfdCntry@@PAH@Z" PURGE="16" COMMENT="" />
    <EXPORT ORDINAL="1611" NAME="?FCntryFromHobj@COfdPoolCntry@@QBEHJPAVCOfdCntry@@@Z" PURGE="8" COMMENT="" />
    <EXPORT ORDINAL="1612" NAME="?FConverted@COfdFile@@QAEHXZ" PURGE="0" COMMENT="" />
    <EXPORT ORDINAL="1613" NAME="?FCouponGet@COfdAcct@@QBEHXZ" PURGE="0" COMMENT="" />
    <EXPORT ORDINAL="1614" NAME="?FCreditRefundGet@COfdTrnBase@@QBEHXZ" PURGE="0" COMMENT="" />
    <EXPORT ORDINAL="1615" NAME="?FCrncFind@COfdPoolCrnc@@QBEHPBDJPAVCOfdCrnc@@PAH@Z" PURGE="16" COMMENT="" />
    <EXPORT ORDINAL="1616" NAME="?FCrncFromHobj@COfdPoolCrnc@@QBEHJPAVCOfdCrnc@@@Z" PURGE="8" COMMENT="" />
    <EXPORT ORDINAL="1617" NAME="?FCtFind@COfdPoolCt@@QBEHPBDJPAVCOfdCt@@PAH@Z" PURGE="16" COMMENT="" />
    <EXPORT ORDINAL="1618" NAME="?FCtFromHobj@COfdPoolCt@@QBEHJPAVCOfdCt@@@Z" PURGE="8" COMMENT="" />
    <EXPORT ORDINAL="1619" NAME="?FCustGet@COfdPay@@QBEHXZ" PURGE="0" COMMENT="" />
    <EXPORT ORDINAL="1620" NAME="?FCustomFind@COfdPoolCustom@@QBEHPBDJJPAVCOfdCustom@@PAH@Z" PURGE="20" COMMENT="" />
    <EXPORT ORDINAL="1621" NAME="?FCustomFromHobj@COfdPoolCustom@@QBEHJPAVCOfdCustom@@@Z" PURGE="8" COMMENT="" />
    <EXPORT ORDINAL="1622" NAME="?FDebtPlanGet@COfdAcct@@QBEHXZ" PURGE="0" COMMENT="" />
    <EXPORT ORDINAL="1623" NAME="?FDebtPlanGet@COfdTrnBase@@QBEHXZ" PURGE="0" COMMENT="" />
    <EXPORT ORDINAL="1624" NAME="?FDefBillAmtGet@COfdTrnBase@@QBEHXZ" PURGE="0" COMMENT="" />
    <EXPORT ORDINAL="1625" NAME="?FDefBillDateGet@COfdTrnBase@@QBEHXZ" PURGE="0" COMMENT="" />
    <EXPORT ORDINAL="1626" NAME="?FDefPmtGet@COfdTrnBase@@QBEHXZ" PURGE="0" COMMENT="" />
    <EXPORT ORDINAL="1627" NAME="?FDefaultLoan@COfdTrnBase@@QBEHXZ" PURGE="0" COMMENT="" />
    <EXPORT ORDINAL="1628" NAME="?FDefaultLoan@COfdTrnBase@@SAHJ@Z" PURGE="0" COMMENT="" />
    <EXPORT ORDINAL="1629" NAME="?FDenyWriteGet@COfdFile@@QBEHXZ" PURGE="0" COMMENT="" />
    <EXPORT ORDINAL="1630" NAME="?FDenyWriteGet@COfdPool@@QBEHXZ" PURGE="0" COMMENT="" />
    <EXPORT ORDINAL="1631" NAME="?FDetectedExpGet@COfdPgm@@QBEHXZ" PURGE="0" COMMENT="" />
    <EXPORT ORDINAL="1632" NAME="?FDisallowThirdPartyGet@COfdFi@@QBEHXZ" PURGE="0" COMMENT="" />
    <EXPORT ORDINAL="1633" NAME="?FEOLGet@COfdList@@QBEHXZ" PURGE="0" COMMENT="" />
    <EXPORT ORDINAL="1634" NAME="?FEOLGet@COfdListCrit@@QBEHXZ" PURGE="0" COMMENT="" />
    <EXPORT ORDINAL="1635" NAME="?FEOLGet@COfdListDel@@QBEHXZ" PURGE="0" COMMENT="" />
    <EXPORT ORDINAL="1636" NAME="?FEOLGet@COfdListLotTrn@@QBEHXZ" PURGE="0" COMMENT="" />
    <EXPORT ORDINAL="1637" NAME="?FEOLGet@COfdListSplit@@QBEHXZ" PURGE="0" COMMENT="" />
    <EXPORT ORDINAL="1638" NAME="?FEOLGet@COfdListTrnPmts@@QBEHXZ" PURGE="0" COMMENT="" />
    <EXPORT ORDINAL="1639" NAME="?FEmpMatchGet@COfdAcct@@QBEHXZ" PURGE="0" COMMENT="" />
    <EXPORT ORDINAL="1640" NAME="?FEmpMatchPostGet@COfdAcct@@QBEHXZ" PURGE="0" COMMENT="" />
    <EXPORT ORDINAL="1641" NAME="?FEstimateGet@COfdTrnBase@@QBEHXZ" PURGE="0" COMMENT="" />
    <EXPORT ORDINAL="1642" NAME="?FEuroConvertedGet@COfdCntry@@QAEHXZ" PURGE="0" COMMENT="" />
    <EXPORT ORDINAL="1643" NAME="?FEuroConvertibleGet@COfdCntry@@QAEHXZ" PURGE="0" COMMENT="" />
    <EXPORT ORDINAL="1644" NAME="?FEuroDialogDisabledGet@COfdSec@@QBEHXZ" PURGE="0" COMMENT="" />
    <EXPORT ORDINAL="1645" NAME="?FEuroEnabled@COfdAcct@@QBEHXZ" PURGE="0" COMMENT="" />
    <EXPORT ORDINAL="1646" NAME="?FEuroPriceDownloadedGet@COfdSec@@QBEHXZ" PURGE="0" COMMENT="" />
    <EXPORT ORDINAL="1647" NAME="?FExpenseGet@COfdBgtBkt@@QBEHXZ" PURGE="0" COMMENT="" />
    <EXPORT ORDINAL="1648" NAME="?FExpireEnteredGet@COfdAwd@@QBEHXZ" PURGE="0" COMMENT="" />
    <EXPORT ORDINAL="1649" NAME="?FExtModuleGet@COfdFi@@QBEHXZ" PURGE="0" COMMENT="" />
    <EXPORT ORDINAL="1650" NAME="?FFarSide@COfdTrnBase@@QBEHXZ" PURGE="0" COMMENT="" />
    <EXPORT ORDINAL="1651" NAME="?FFarSide@COfdTrnBase@@SAHJ@Z" PURGE="0" COMMENT="" />
    <EXPORT ORDINAL="1652" NAME="?FFavoriteGet@COfdAcct@@QBEHXZ" PURGE="0" COMMENT="" />
    <EXPORT ORDINAL="1653" NAME="?FFiFind@COfdPoolFi@@QBEHPBDJPAVCOfdFi@@PAH@Z" PURGE="16" COMMENT="" />
    <EXPORT ORDINAL="1654" NAME="?FFiFromHobj@COfdPoolFi@@QBEHJPAVCOfdFi@@@Z" PURGE="8" COMMENT="" />
    <EXPORT ORDINAL="1655" NAME="?FFilePropGet@COfdFile@@QBEHJ@Z" PURGE="4" COMMENT="" />
    <EXPORT ORDINAL="1656" NAME="?FFilePropTypeGet@COfdFile@@QBEHJPAW4VARENUM@@@Z" PURGE="8" COMMENT="" />
    <EXPORT ORDINAL="1657" NAME="?FFldGet@COfdList@@QBEHJ@Z" PURGE="4" COMMENT="" />
    <EXPORT ORDINAL="1658" NAME="?FFldGet@COfdListDel@@QBEHJ@Z" PURGE="4" COMMENT="" />
    <EXPORT ORDINAL="1659" NAME="?FFldGet@COfdListLotTrn@@QBEHJ@Z" PURGE="4" COMMENT="" />
    <EXPORT ORDINAL="1660" NAME="?FFldGet@COfdListSplit@@QBEHJ@Z" PURGE="4" COMMENT="" />
    <EXPORT ORDINAL="1661" NAME="?FFldGet@COfdListTrnPmts@@QBEHJ@Z" PURGE="4" COMMENT="" />
    <EXPORT ORDINAL="1662" NAME="?FFldGet@COfdObject@@QBEHJ@Z" PURGE="4" COMMENT="" />
    <EXPORT ORDINAL="1663" NAME="?FFractChangeGet@COfdPrice@@QBEHXZ" PURGE="0" COMMENT="" />
    <EXPORT ORDINAL="1664" NAME="?FFractGet@COfdPortRec@@QAEHXZ" PURGE="0" COMMENT="" />
    <EXPORT ORDINAL="1665" NAME="?FFractGet@COfdTrnBase@@QBEHXZ" PURGE="0" COMMENT="" />
    <EXPORT ORDINAL="1666" NAME="?FFractHighGet@COfdPrice@@QBEHXZ" PURGE="0" COMMENT="" />
    <EXPORT ORDINAL="1667" NAME="?FFractLowGet@COfdPrice@@QBEHXZ" PURGE="0" COMMENT="" />
    <EXPORT ORDINAL="1668" NAME="?FFractOpenGet@COfdPrice@@QBEHXZ" PURGE="0" COMMENT="" />
    <EXPORT ORDINAL="1669" NAME="?FFractPEGet@COfdPrice@@QBEHXZ" PURGE="0" COMMENT="" />
    <EXPORT ORDINAL="1670" NAME="?FFractPriceGet@COfdPrice@@QBEHXZ" PURGE="0" COMMENT="" />
    <EXPORT ORDINAL="1671" NAME="?FFractSplitGet@COfdPrice@@QAEHXZ" PURGE="0" COMMENT="" />
    <EXPORT ORDINAL="1672" NAME="?FFractStrikeGet@COfdPrice@@QBEHXZ" PURGE="0" COMMENT="" />
    <EXPORT ORDINAL="1673" NAME="?FGetHistQuotesGet@COfdSec@@QBEHXZ" PURGE="0" COMMENT="" />
    <EXPORT ORDINAL="1674" NAME="?FGetUpdateEstAmt@COfdBill@@QAEHPAVCOfdCurrency@@@Z" PURGE="4" COMMENT="" />
    <EXPORT ORDINAL="1675" NAME="?FGetUpdateEstAmt@COfdPoolBill@@QBEHJPAVCOfdCurrency@@PAVCOfdBill@@@Z" PURGE="12" COMMENT="" />
    <EXPORT ORDINAL="1676" NAME="?FGotInterestGet@COfdAcct@@QBEHXZ" PURGE="0" COMMENT="" />
    <EXPORT ORDINAL="1677" NAME="?FGotServiceGet@COfdAcct@@QBEHXZ" PURGE="0" COMMENT="" />
    <EXPORT ORDINAL="1678" NAME="?FHasChild@COfdCat@@QBEHXZ" PURGE="0" COMMENT="" />
    <EXPORT ORDINAL="1679" NAME="?FHasCustomFields@COfdFile@@QBEHW4__MIDL___MIDL_itf_iofd_0000_0001@@@Z" PURGE="4" COMMENT="" />
    <EXPORT ORDINAL="1680" NAME="?FHasSubquery@COfdView@@QBEHXZ" PURGE="0" COMMENT="" />
    <EXPORT ORDINAL="1681" NAME="?FHasTrns@COfdAcct@@QBEHXZ" PURGE="0" COMMENT="" />
    <EXPORT ORDINAL="1682" NAME="?FHiddenGet@COfdCrnc@@QBEHXZ" PURGE="0" COMMENT="" />
    <EXPORT ORDINAL="1683" NAME="?FHiddenGet@COfdFi@@QBEHXZ" PURGE="0" COMMENT="" />
    <EXPORT ORDINAL="1684" NAME="?FHiddenGet@COfdPay@@QBEHXZ" PURGE="0" COMMENT="" />
    <EXPORT ORDINAL="1685" NAME="?FHiddenGet@COfdProduct@@QBEHXZ" PURGE="0" COMMENT="" />
    <EXPORT ORDINAL="1686" NAME="?FHiddenGet@COfdSec@@QBEHXZ" PURGE="0" COMMENT="" />
    <EXPORT ORDINAL="1687" NAME="?FHistPriceFind@COfdPoolPrice@@QBEHJPAVCOfdPrice@@ABVCBaseDateTime@@@Z" PURGE="12" COMMENT="" />
    <EXPORT ORDINAL="1688" NAME="?FInRecGet@COfdAcct@@QBEHXZ" PURGE="0" COMMENT="" />
    <EXPORT ORDINAL="1689" NAME="?FIncludeGet@COfdTaxline@@QBEHXZ" PURGE="0" COMMENT="" />
    <EXPORT ORDINAL="1690" NAME="?FInheritAddrGet@COfdTrnBase@@QBEHXZ" PURGE="0" COMMENT="" />
    <EXPORT ORDINAL="1691" NAME="?FInternetGet@COfdProvFi@@QBEHXZ" PURGE="0" COMMENT="" />
    <EXPORT ORDINAL="1692" NAME="?FInvestment@COfdTrnBase@@QBEHXZ" PURGE="0" COMMENT="" />
    <EXPORT ORDINAL="1693" NAME="?FInvestment@COfdTrnBase@@SAHJ@Z" PURGE="0" COMMENT="" />
    <EXPORT ORDINAL="1694" NAME="?FInvoice@COfdTrnBase@@QBEHXZ" PURGE="0" COMMENT="" />
    <EXPORT ORDINAL="1695" NAME="?FInvoice@COfdTrnBase@@SAHJ@Z" PURGE="0" COMMENT="" />
    <EXPORT ORDINAL="1696" NAME="?FInvoiceUnpaid@COfdTrnBase@@QBEHXZ" PURGE="0" COMMENT="" />
    <EXPORT ORDINAL="1697" NAME="?FInvoiceUnpaid@COfdTrnBase@@SAHJ@Z" PURGE="0" COMMENT="" />
    <EXPORT ORDINAL="1698" NAME="?FIsBagged@COfdCat@@QBEHW4__MIDL___MIDL_itf_iofd_0249_0002@@@Z" PURGE="4" COMMENT="" />
    <EXPORT ORDINAL="1699" NAME="?FIsBagged@COfdListBill@@QBEHW4__MIDL___MIDL_itf_iofd_0249_0002@@@Z" PURGE="4" COMMENT="" />
    <EXPORT ORDINAL="1700" NAME="?FIsBagged@COfdListCat@@QBEHW4__MIDL___MIDL_itf_iofd_0249_0002@@@Z" PURGE="4" COMMENT="" />
    <EXPORT ORDINAL="1701" NAME="?FIsBagged@COfdListTrn@@QBEHW4__MIDL___MIDL_itf_iofd_0249_0002@@@Z" PURGE="4" COMMENT="" />
    <EXPORT ORDINAL="1702" NAME="?FIsBagged@COfdTrnBase@@QBEHW4__MIDL___MIDL_itf_iofd_0249_0002@@@Z" PURGE="4" COMMENT="" />
    <EXPORT ORDINAL="1703" NAME="?FIsBill@COfdTrnBase@@QBEHXZ" PURGE="0" COMMENT="" />
    <EXPORT ORDINAL="1704" NAME="?FIsCustomField@COfdPool@@QBEHJ@Z" PURGE="4" COMMENT="" />
    <EXPORT ORDINAL="1705" NAME="?FIsCustomPool@COfdFile@@QBEHW4__MIDL___MIDL_itf_iofd_0000_0001@@@Z" PURGE="4" COMMENT="" />
    <EXPORT ORDINAL="1706" NAME="?FIsDirty@COfdObject@@QBEHXZ" PURGE="0" COMMENT="" />
    <EXPORT ORDINAL="1707" NAME="?FIsEmpty@COfdPool@@QBEHXZ" PURGE="0" COMMENT="" />
    <EXPORT ORDINAL="1708" NAME="?FIsEqual@COfdAcct@@QBEHABV1@H@Z" PURGE="8" COMMENT="" />
    <EXPORT ORDINAL="1709" NAME="?FIsEqual@COfdAddr@@QBEHABV1@H@Z" PURGE="8" COMMENT="" />
    <EXPORT ORDINAL="1710" NAME="?FIsEqual@COfdAdv@@QBEHABV1@H@Z" PURGE="8" COMMENT="" />
    <EXPORT ORDINAL="1711" NAME="?FIsEqual@COfdAuto@@QBEHABV1@H@Z" PURGE="8" COMMENT="" />
    <EXPORT ORDINAL="1712" NAME="?FIsEqual@COfdAwd@@QBEHABV1@H@Z" PURGE="8" COMMENT="" />
    <EXPORT ORDINAL="1713" NAME="?FIsEqual@COfdBgt@@QBEHABV1@H@Z" PURGE="8" COMMENT="" />
    <EXPORT ORDINAL="1714" NAME="?FIsEqual@COfdBgtBkt@@QBEHABV1@H@Z" PURGE="8" COMMENT="" />
    <EXPORT ORDINAL="1715" NAME="?FIsEqual@COfdBgtItm@@QBEHABV1@H@Z" PURGE="8" COMMENT="" />
    <EXPORT ORDINAL="1716" NAME="?FIsEqual@COfdBrkStmt@@QBEHABV1@H@Z" PURGE="8" COMMENT="" />
    <EXPORT ORDINAL="1717" NAME="?FIsEqual@COfdCat@@QBEHABV1@H@Z" PURGE="8" COMMENT="" />
    <EXPORT ORDINAL="1718" NAME="?FIsEqual@COfdCntry@@QBEHABV1@H@Z" PURGE="8" COMMENT="" />
    <EXPORT ORDINAL="1719" NAME="?FIsEqual@COfdCrit@@QBEHABV1@H@Z" PURGE="8" COMMENT="" />
    <EXPORT ORDINAL="1720" NAME="?FIsEqual@COfdCrnc@@QBEHABV1@H@Z" PURGE="8" COMMENT="" />
    <EXPORT ORDINAL="1721" NAME="?FIsEqual@COfdCt@@QBEHABV1@H@Z" PURGE="8" COMMENT="" />
    <EXPORT ORDINAL="1722" NAME="?FIsEqual@COfdCustom@@QBEHABV1@H@Z" PURGE="8" COMMENT="" />
    <EXPORT ORDINAL="1723" NAME="?FIsEqual@COfdFi@@QBEHABV1@H@Z" PURGE="8" COMMENT="" />
    <EXPORT ORDINAL="1724" NAME="?FIsEqual@COfdIvty@@QBEHABV1@H@Z" PURGE="8" COMMENT="" />
    <EXPORT ORDINAL="1725" NAME="?FIsEqual@COfdLot@@QBEHABV1@H@Z" PURGE="8" COMMENT="" />
    <EXPORT ORDINAL="1726" NAME="?FIsEqual@COfdLstep@@QBEHABV1@H@Z" PURGE="8" COMMENT="" />
    <EXPORT ORDINAL="1727" NAME="?FIsEqual@COfdMail@@QBEHABV1@H@Z" PURGE="8" COMMENT="" />
    <EXPORT ORDINAL="1728" NAME="?FIsEqual@COfdObject@@QBEHABV1@H@Z" PURGE="8" COMMENT="" />
    <EXPORT ORDINAL="1729" NAME="?FIsEqual@COfdPay@@QBEHABV1@H@Z" PURGE="8" COMMENT="" />
    <EXPORT ORDINAL="1730" NAME="?FIsEqual@COfdPgm@@QBEHABV1@H@Z" PURGE="8" COMMENT="" />
    <EXPORT ORDINAL="1731" NAME="?FIsEqual@COfdPmt@@QBEHABV1@H@Z" PURGE="8" COMMENT="" />
    <EXPORT ORDINAL="1732" NAME="?FIsEqual@COfdPortRec@@QBEHABV1@H@Z" PURGE="8" COMMENT="" />
    <EXPORT ORDINAL="1733" NAME="?FIsEqual@COfdPosStmt@@QBEHABV1@H@Z" PURGE="8" COMMENT="" />
    <EXPORT ORDINAL="1734" NAME="?FIsEqual@COfdPrice@@QBEHABV1@H@Z" PURGE="8" COMMENT="" />
    <EXPORT ORDINAL="1735" NAME="?FIsEqual@COfdProduct@@QBEHABV1@H@Z" PURGE="8" COMMENT="" />
    <EXPORT ORDINAL="1736" NAME="?FIsEqual@COfdProj@@QBEHABV1@H@Z" PURGE="8" COMMENT="" />
    <EXPORT ORDINAL="1737" NAME="?FIsEqual@COfdProvFi@@QBEHABV1@H@Z" PURGE="8" COMMENT="" />
    <EXPORT ORDINAL="1738" NAME="?FIsEqual@COfdProvFiPay@@QBEHABV1@H@Z" PURGE="8" COMMENT="" />
    <EXPORT ORDINAL="1739" NAME="?FIsEqual@COfdSavGoal@@QBEHABV1@H@Z" PURGE="8" COMMENT="" />
    <EXPORT ORDINAL="1740" NAME="?FIsEqual@COfdSec@@QBEHABV1@H@Z" PURGE="8" COMMENT="" />
    <EXPORT ORDINAL="1741" NAME="?FIsEqual@COfdSoq@@QBEHABV1@H@Z" PURGE="8" COMMENT="" />
    <EXPORT ORDINAL="1742" NAME="?FIsEqual@COfdStmt@@QBEHABV1@H@Z" PURGE="8" COMMENT="" />
    <EXPORT ORDINAL="1743" NAME="?FIsEqual@COfdSvc@@QBEHABV1@H@Z" PURGE="8" COMMENT="" />
    <EXPORT ORDINAL="1744" NAME="?FIsEqual@COfdTaxline@@QBEHABV1@H@Z" PURGE="8" COMMENT="" />
    <EXPORT ORDINAL="1745" NAME="?FIsEqual@COfdTmi@@QBEHABV1@H@Z" PURGE="8" COMMENT="" />
    <EXPORT ORDINAL="1746" NAME="?FIsEqual@COfdTrip@@QBEHABV1@H@Z" PURGE="8" COMMENT="" />
    <EXPORT ORDINAL="1747" NAME="?FIsEqual@COfdTrnBase@@QBEHABV1@H@Z" PURGE="8" COMMENT="" />
    <EXPORT ORDINAL="1748" NAME="?FIsEqual@COfdTrnCalcs@@QBEHABV1@H@Z" PURGE="8" COMMENT="" />
    <EXPORT ORDINAL="1749" NAME="?FIsEqual@COfdTxsrc@@QBEHABV1@H@Z" PURGE="8" COMMENT="" />
    <EXPORT ORDINAL="1750" NAME="?FIsEqual@COfdUie@@QBEHABV1@H@Z" PURGE="8" COMMENT="" />
    <EXPORT ORDINAL="1751" NAME="?FIsEqual@COfdUnote@@QBEHABV1@H@Z" PURGE="8" COMMENT="" />
    <EXPORT ORDINAL="1752" NAME="?FIsEqual@COfdXbag@@QBEHABV1@H@Z" PURGE="8" COMMENT="" />
    <EXPORT ORDINAL="1753" NAME="?FIsHobjMember@COfdList@@QAEHJ@Z" PURGE="4" COMMENT="" />
    <EXPORT ORDINAL="1754" NAME="?FIsMember@COfdList@@QBEHABVCOfdObject@@@Z" PURGE="4" COMMENT="" />
    <EXPORT ORDINAL="1755" NAME="?FIsMember@COfdListAcct@@QBEHABVCOfdAcct@@@Z" PURGE="4" COMMENT="" />
    <EXPORT ORDINAL="1756" NAME="?FIsMember@COfdListAdv@@QBEHABVCOfdAdv@@@Z" PURGE="4" COMMENT="" />
    <EXPORT ORDINAL="1757" NAME="?FIsMember@COfdListAuto@@QBEHABVCOfdAuto@@@Z" PURGE="4" COMMENT="" />
    <EXPORT ORDINAL="1758" NAME="?FIsMember@COfdListAwd@@QBEHABVCOfdAwd@@@Z" PURGE="4" COMMENT="" />
    <EXPORT ORDINAL="1759" NAME="?FIsMember@COfdListBgt@@QBEHABVCOfdBgt@@@Z" PURGE="4" COMMENT="" />
    <EXPORT ORDINAL="1760" NAME="?FIsMember@COfdListBgtBkt@@QBEHABVCOfdBgtBkt@@@Z" PURGE="4" COMMENT="" />
    <EXPORT ORDINAL="1761" NAME="?FIsMember@COfdListBgtItm@@QBEHABVCOfdBgtItm@@@Z" PURGE="4" COMMENT="" />
    <EXPORT ORDINAL="1762" NAME="?FIsMember@COfdListBill@@QBEHABVCOfdBill@@@Z" PURGE="4" COMMENT="" />
    <EXPORT ORDINAL="1763" NAME="?FIsMember@COfdListCat@@QBEHABVCOfdCat@@@Z" PURGE="4" COMMENT="" />
    <EXPORT ORDINAL="1764" NAME="?FIsMember@COfdListCntry@@QBEHABVCOfdCntry@@@Z" PURGE="4" COMMENT="" />
    <EXPORT ORDINAL="1765" NAME="?FIsMember@COfdListCrit@@QBEHABVCOfdCrit@@@Z" PURGE="4" COMMENT="" />
    <EXPORT ORDINAL="1766" NAME="?FIsMember@COfdListCrnc@@QBEHABVCOfdCrnc@@@Z" PURGE="4" COMMENT="" />
    <EXPORT ORDINAL="1767" NAME="?FIsMember@COfdListCt@@QBEHABVCOfdCt@@@Z" PURGE="4" COMMENT="" />
    <EXPORT ORDINAL="1768" NAME="?FIsMember@COfdListCustom@@QBEHABVCOfdCustom@@@Z" PURGE="4" COMMENT="" />
    <EXPORT ORDINAL="1769" NAME="?FIsMember@COfdListFi@@QBEHABVCOfdFi@@@Z" PURGE="4" COMMENT="" />
    <EXPORT ORDINAL="1770" NAME="?FIsMember@COfdListIvty@@QBEHABVCOfdIvty@@@Z" PURGE="4" COMMENT="" />
    <EXPORT ORDINAL="1771" NAME="?FIsMember@COfdListLot@@QBEHABVCOfdLot@@@Z" PURGE="4" COMMENT="" />
    <EXPORT ORDINAL="1772" NAME="?FIsMember@COfdListLotTrn@@QBEHABVCOfdLot@@@Z" PURGE="4" COMMENT="" />
    <EXPORT ORDINAL="1773" NAME="?FIsMember@COfdListMail@@QBEHABVCOfdMail@@@Z" PURGE="4" COMMENT="" />
    <EXPORT ORDINAL="1774" NAME="?FIsMember@COfdListPay@@QBEHABVCOfdPay@@@Z" PURGE="4" COMMENT="" />
    <EXPORT ORDINAL="1775" NAME="?FIsMember@COfdListPgm@@QBEHABVCOfdPgm@@@Z" PURGE="4" COMMENT="" />
    <EXPORT ORDINAL="1776" NAME="?FIsMember@COfdListPmt@@QBEHABVCOfdPmt@@@Z" PURGE="4" COMMENT="" />
    <EXPORT ORDINAL="1777" NAME="?FIsMember@COfdListPortRec@@QBEHABVCOfdPortRec@@@Z" PURGE="4" COMMENT="" />
    <EXPORT ORDINAL="1778" NAME="?FIsMember@COfdListPosStmt@@QBEHABVCOfdPosStmt@@@Z" PURGE="4" COMMENT="" />
    <EXPORT ORDINAL="1779" NAME="?FIsMember@COfdListPrice@@QBEHABVCOfdPrice@@@Z" PURGE="4" COMMENT="" />
    <EXPORT ORDINAL="1780" NAME="?FIsMember@COfdListProduct@@QBEHABVCOfdProduct@@@Z" PURGE="4" COMMENT="" />
    <EXPORT ORDINAL="1781" NAME="?FIsMember@COfdListProj@@QBEHABVCOfdProj@@@Z" PURGE="4" COMMENT="" />
    <EXPORT ORDINAL="1782" NAME="?FIsMember@COfdListProvFi@@QBEHABVCOfdProvFi@@@Z" PURGE="4" COMMENT="" />
    <EXPORT ORDINAL="1783" NAME="?FIsMember@COfdListProvFiPay@@QBEHABVCOfdProvFiPay@@@Z" PURGE="4" COMMENT="" />
    <EXPORT ORDINAL="1784" NAME="?FIsMember@COfdListSavGoal@@QBEHABVCOfdSavGoal@@@Z" PURGE="4" COMMENT="" />
    <EXPORT ORDINAL="1785" NAME="?FIsMember@COfdListSec@@QBEHABVCOfdSec@@@Z" PURGE="4" COMMENT="" />
    <EXPORT ORDINAL="1786" NAME="?FIsMember@COfdListSoq@@QBEHABVCOfdSoq@@@Z" PURGE="4" COMMENT="" />
    <EXPORT ORDINAL="1787" NAME="?FIsMember@COfdListSplit@@QBEHABVCOfdTrn@@@Z" PURGE="4" COMMENT="" />
    <EXPORT ORDINAL="1788" NAME="?FIsMember@COfdListStmt@@QBEHABVCOfdStmt@@@Z" PURGE="4" COMMENT="" />
    <EXPORT ORDINAL="1789" NAME="?FIsMember@COfdListSvc@@QBEHABVCOfdSvc@@@Z" PURGE="4" COMMENT="" />
    <EXPORT ORDINAL="1790" NAME="?FIsMember@COfdListTaxline@@QBEHABVCOfdTaxline@@@Z" PURGE="4" COMMENT="" />
    <EXPORT ORDINAL="1791" NAME="?FIsMember@COfdListTmi@@QBEHABVCOfdTmi@@@Z" PURGE="4" COMMENT="" />
    <EXPORT ORDINAL="1792" NAME="?FIsMember@COfdListTrip@@QBEHABVCOfdTrip@@@Z" PURGE="4" COMMENT="" />
    <EXPORT ORDINAL="1793" NAME="?FIsMember@COfdListTrn@@QBEHABVCOfdTrn@@@Z" PURGE="4" COMMENT="" />
    <EXPORT ORDINAL="1794" NAME="?FIsMember@COfdListTrnPmts@@QBEHABVCOfdTrn@@@Z" PURGE="4" COMMENT="" />
    <EXPORT ORDINAL="1795" NAME="?FIsMember@COfdListTxsrc@@QBEHABVCOfdTxsrc@@@Z" PURGE="4" COMMENT="" />
    <EXPORT ORDINAL="1796" NAME="?FIsMember@COfdListUie@@QBEHABVCOfdUie@@@Z" PURGE="4" COMMENT="" />
    <EXPORT ORDINAL="1797" NAME="?FIsMember@COfdListUnote@@QBEHABVCOfdUnote@@@Z" PURGE="4" COMMENT="" />
    <EXPORT ORDINAL="1798" NAME="?FIsMember@COfdListView@@QBEHABVCOfdView@@@Z" PURGE="4" COMMENT="" />
    <EXPORT ORDINAL="1799" NAME="?FIsMember@COfdListXbag@@QBEHABVCOfdXbag@@@Z" PURGE="4" COMMENT="" />
    <EXPORT ORDINAL="1800" NAME="?FIsOfdFile@COfdEngine@@QAEHPBD00PAJ@Z" PURGE="16" COMMENT="" />
    <EXPORT ORDINAL="1801" NAME="?FIsOfdJPN@@YAHXZ" PURGE="0" COMMENT="" />
    <EXPORT ORDINAL="1802" NAME="?FIsShared@COfdFile@@QBEHXZ" PURGE="0" COMMENT="" />
    <EXPORT ORDINAL="1803" NAME="?FIsTreeView@COfdCrit@@QBEHXZ" PURGE="0" COMMENT="" />
    <EXPORT ORDINAL="1804" NAME="?FIsTreeView@COfdView@@QBEHXZ" PURGE="0" COMMENT="" />
    <EXPORT ORDINAL="1805" NAME="?FIsTrn@COfdTrnBase@@QBEHXZ" PURGE="0" COMMENT="" />
    <EXPORT ORDINAL="1806" NAME="?FIsUsedByTrn@COfdPay@@QAEHJ@Z" PURGE="4" COMMENT="" />
    <EXPORT ORDINAL="1807" NAME="?FIsUsedByTrn@COfdSec@@QAEHJ@Z" PURGE="4" COMMENT="" />
    <EXPORT ORDINAL="1808" NAME="?FIsValid@CBillTri@@QBEHXZ" PURGE="0" COMMENT="" />
    <EXPORT ORDINAL="1809" NAME="?FIsVisible@COfdList@@QBEHABVCOfdObject@@@Z" PURGE="4" COMMENT="" />
    <EXPORT ORDINAL="1810" NAME="?FIsVisible@COfdListAcct@@QBEHABVCOfdAcct@@@Z" PURGE="4" COMMENT="" />
    <EXPORT ORDINAL="1811" NAME="?FIsVisible@COfdListAdv@@QBEHABVCOfdAdv@@@Z" PURGE="4" COMMENT="" />
    <EXPORT ORDINAL="1812" NAME="?FIsVisible@COfdListAuto@@QBEHABVCOfdAuto@@@Z" PURGE="4" COMMENT="" />
    <EXPORT ORDINAL="1813" NAME="?FIsVisible@COfdListAwd@@QBEHABVCOfdAwd@@@Z" PURGE="4" COMMENT="" />
    <EXPORT ORDINAL="1814" NAME="?FIsVisible@COfdListBgt@@QBEHABVCOfdBgt@@@Z" PURGE="4" COMMENT="" />
    <EXPORT ORDINAL="1815" NAME="?FIsVisible@COfdListBgtBkt@@QBEHABVCOfdBgtBkt@@@Z" PURGE="4" COMMENT="" />
    <EXPORT ORDINAL="1816" NAME="?FIsVisible@COfdListBgtItm@@QBEHABVCOfdBgtItm@@@Z" PURGE="4" COMMENT="" />
    <EXPORT ORDINAL="1817" NAME="?FIsVisible@COfdListBill@@QBEHABVCOfdBill@@@Z" PURGE="4" COMMENT="" />
    <EXPORT ORDINAL="1818" NAME="?FIsVisible@COfdListCat@@QBEHABVCOfdCat@@@Z" PURGE="4" COMMENT="" />
    <EXPORT ORDINAL="1819" NAME="?FIsVisible@COfdListCntry@@QBEHABVCOfdCntry@@@Z" PURGE="4" COMMENT="" />
    <EXPORT ORDINAL="1820" NAME="?FIsVisible@COfdListCrnc@@QBEHABVCOfdCrnc@@@Z" PURGE="4" COMMENT="" />
    <EXPORT ORDINAL="1821" NAME="?FIsVisible@COfdListCt@@QBEHABVCOfdCt@@@Z" PURGE="4" COMMENT="" />
    <EXPORT ORDINAL="1822" NAME="?FIsVisible@COfdListCustom@@QBEHABVCOfdCustom@@@Z" PURGE="4" COMMENT="" />
    <EXPORT ORDINAL="1823" NAME="?FIsVisible@COfdListFi@@QBEHABVCOfdFi@@@Z" PURGE="4" COMMENT="" />
    <EXPORT ORDINAL="1824" NAME="?FIsVisible@COfdListIvty@@QBEHABVCOfdIvty@@@Z" PURGE="4" COMMENT="" />
    <EXPORT ORDINAL="1825" NAME="?FIsVisible@COfdListLot@@QBEHABVCOfdLot@@@Z" PURGE="4" COMMENT="" />
    <EXPORT ORDINAL="1826" NAME="?FIsVisible@COfdListLotTrn@@QBEHABVCOfdLot@@@Z" PURGE="4" COMMENT="" />
    <EXPORT ORDINAL="1827" NAME="?FIsVisible@COfdListMail@@QBEHABVCOfdMail@@@Z" PURGE="4" COMMENT="" />
    <EXPORT ORDINAL="1828" NAME="?FIsVisible@COfdListPay@@QBEHABVCOfdPay@@@Z" PURGE="4" COMMENT="" />
    <EXPORT ORDINAL="1829" NAME="?FIsVisible@COfdListPgm@@QBEHABVCOfdPgm@@@Z" PURGE="4" COMMENT="" />
    <EXPORT ORDINAL="1830" NAME="?FIsVisible@COfdListPmt@@QBEHABVCOfdPmt@@@Z" PURGE="4" COMMENT="" />
    <EXPORT ORDINAL="1831" NAME="?FIsVisible@COfdListPortRec@@QBEHABVCOfdPortRec@@@Z" PURGE="4" COMMENT="" />
    <EXPORT ORDINAL="1832" NAME="?FIsVisible@COfdListPosStmt@@QBEHABVCOfdPosStmt@@@Z" PURGE="4" COMMENT="" />
    <EXPORT ORDINAL="1833" NAME="?FIsVisible@COfdListPrice@@QBEHABVCOfdPrice@@@Z" PURGE="4" COMMENT="" />
    <EXPORT ORDINAL="1834" NAME="?FIsVisible@COfdListProduct@@QBEHABVCOfdProduct@@@Z" PURGE="4" COMMENT="" />
    <EXPORT ORDINAL="1835" NAME="?FIsVisible@COfdListProj@@QBEHABVCOfdProj@@@Z" PURGE="4" COMMENT="" />
    <EXPORT ORDINAL="1836" NAME="?FIsVisible@COfdListProvFi@@QBEHABVCOfdProvFi@@@Z" PURGE="4" COMMENT="" />
    <EXPORT ORDINAL="1837" NAME="?FIsVisible@COfdListProvFiPay@@QBEHABVCOfdProvFiPay@@@Z" PURGE="4" COMMENT="" />
    <EXPORT ORDINAL="1838" NAME="?FIsVisible@COfdListSavGoal@@QBEHABVCOfdSavGoal@@@Z" PURGE="4" COMMENT="" />
    <EXPORT ORDINAL="1839" NAME="?FIsVisible@COfdListSec@@QBEHABVCOfdSec@@@Z" PURGE="4" COMMENT="" />
    <EXPORT ORDINAL="1840" NAME="?FIsVisible@COfdListSoq@@QBEHABVCOfdSoq@@@Z" PURGE="4" COMMENT="" />
    <EXPORT ORDINAL="1841" NAME="?FIsVisible@COfdListStmt@@QBEHABVCOfdBrkStmt@@@Z" PURGE="4" COMMENT="" />
    <EXPORT ORDINAL="1842" NAME="?FIsVisible@COfdListStmt@@QBEHABVCOfdStmt@@@Z" PURGE="4" COMMENT="" />
    <EXPORT ORDINAL="1843" NAME="?FIsVisible@COfdListSvc@@QBEHABVCOfdSvc@@@Z" PURGE="4" COMMENT="" />
    <EXPORT ORDINAL="1844" NAME="?FIsVisible@COfdListTaxline@@QBEHABVCOfdTaxline@@@Z" PURGE="4" COMMENT="" />
    <EXPORT ORDINAL="1845" NAME="?FIsVisible@COfdListTmi@@QBEHABVCOfdTmi@@@Z" PURGE="4" COMMENT="" />
    <EXPORT ORDINAL="1846" NAME="?FIsVisible@COfdListTrip@@QBEHABVCOfdTrip@@@Z" PURGE="4" COMMENT="" />
    <EXPORT ORDINAL="1847" NAME="?FIsVisible@COfdListTrn@@QBEHABVCOfdTrn@@@Z" PURGE="4" COMMENT="" />
    <EXPORT ORDINAL="1848" NAME="?FIsVisible@COfdListTrnPmts@@QBEHABVCOfdTrn@@@Z" PURGE="4" COMMENT="" />
    <EXPORT ORDINAL="1849" NAME="?FIsVisible@COfdListTxsrc@@QBEHABVCOfdTxsrc@@@Z" PURGE="4" COMMENT="" />
    <EXPORT ORDINAL="1850" NAME="?FIsVisible@COfdListUie@@QBEHABVCOfdUie@@@Z" PURGE="4" COMMENT="" />
    <EXPORT ORDINAL="1851" NAME="?FIsVisible@COfdListUnote@@QBEHABVCOfdUnote@@@Z" PURGE="4" COMMENT="" />
    <EXPORT ORDINAL="1852" NAME="?FIsVisible@COfdListView@@QBEHABVCOfdView@@@Z" PURGE="4" COMMENT="" />
    <EXPORT ORDINAL="1853" NAME="?FIsVisible@COfdListXbag@@QBEHABVCOfdXbag@@@Z" PURGE="4" COMMENT="" />
    <EXPORT ORDINAL="1854" NAME="?FIueIncompleteGet@COfdAcct@@QBEHXZ" PURGE="0" COMMENT="" />
    <EXPORT ORDINAL="1855" NAME="?FIvtyFromHobj@COfdPoolIvty@@QBEHJPAVCOfdIvty@@@Z" PURGE="8" COMMENT="" />
    <EXPORT ORDINAL="1856" NAME="?FLentGet@COfdAcct@@QBEHXZ" PURGE="0" COMMENT="" />
    <EXPORT ORDINAL="1857" NAME="?FLoan@COfdTrnBase@@QBEHXZ" PURGE="0" COMMENT="" />
    <EXPORT ORDINAL="1858" NAME="?FLoan@COfdTrnBase@@SAHJ@Z" PURGE="0" COMMENT="" />
    <EXPORT ORDINAL="1859" NAME="?FLotFromHobj@COfdPoolLot@@QBEHJPAVCOfdLot@@@Z" PURGE="8" COMMENT="" />
    <EXPORT ORDINAL="1860" NAME="?FMCAllAPIs@COfdFile@@QBEHXZ" PURGE="0" COMMENT="" />
    <EXPORT ORDINAL="1861" NAME="?FMailFromHobj@COfdPoolMail@@QBEHJPAVCOfdMail@@@Z" PURGE="8" COMMENT="" />
    <EXPORT ORDINAL="1862" NAME="?FMatch@COfdView@@QBEHABVCOfdObject@@@Z" PURGE="4" COMMENT="" />
    <EXPORT ORDINAL="1863" NAME="?FMatchedCustom@COfdTrn@@QBEHXZ" PURGE="0" COMMENT="" />
    <EXPORT ORDINAL="1864" NAME="?FMerger@COfdTrnBase@@QBEHXZ" PURGE="0" COMMENT="" />
    <EXPORT ORDINAL="1865" NAME="?FMerger@COfdTrnBase@@SAHJ@Z" PURGE="0" COMMENT="" />
    <EXPORT ORDINAL="1866" NAME="?FNegRunBal@COfdTrnCalcs@@QBEHXZ" PURGE="0" COMMENT="" />
    <EXPORT ORDINAL="1867" NAME="?FNewGet@COfdProvFiPay@@QBEHXZ" PURGE="0" COMMENT="" />
    <EXPORT ORDINAL="1868" NAME="?FNewGet@COfdSvc@@QBEHXZ" PURGE="0" COMMENT="" />
    <EXPORT ORDINAL="1869" NAME="?FNextUnpaidInst@COfdPoolBill@@QBEHJPAVCOfdBill@@@Z" PURGE="8" COMMENT="" />
    <EXPORT ORDINAL="1870" NAME="?FNoRecurringBillGet@COfdPay@@QBEHXZ" PURGE="0" COMMENT="" />
    <EXPORT ORDINAL="1871" NAME="?FNotifyGet@COfdProvFi@@QBEHXZ" PURGE="0" COMMENT="" />
    <EXPORT ORDINAL="1872" NAME="?FNotifyGet@COfdProvFiPay@@QBEHXZ" PURGE="0" COMMENT="" />
    <EXPORT ORDINAL="1873" NAME="?FNotifyGet@COfdSvc@@QBEHXZ" PURGE="0" COMMENT="" />
    <EXPORT ORDINAL="1874" NAME="?FOEMDisabledGet@COfdFi@@QBEHXZ" PURGE="0" COMMENT="" />
    <EXPORT ORDINAL="1875" NAME="?FOLApayGet@COfdAcct@@QBEHXZ" PURGE="0" COMMENT="" />
    <EXPORT ORDINAL="1876" NAME="?FOLBankGet@COfdAcct@@QBEHXZ" PURGE="0" COMMENT="" />
    <EXPORT ORDINAL="1877" NAME="?FOLBrkStmtGet@COfdAcct@@QBEHXZ" PURGE="0" COMMENT="" />
    <EXPORT ORDINAL="1878" NAME="?FOLConfirmGet@COfdTrnBase@@QBEHXZ" PURGE="0" COMMENT="" />
    <EXPORT ORDINAL="1879" NAME="?FOLConfirmGet@COfdTrnBase@@SAHW4__MIDL___MIDL_itf_iofd_0137_0012@@@Z" PURGE="0" COMMENT="" />
    <EXPORT ORDINAL="1880" NAME="?FOLEnabledGet@COfdAcct@@QBEHJ@Z" PURGE="4" COMMENT="" />
    <EXPORT ORDINAL="1881" NAME="?FOLPayGet@COfdAcct@@QBEHXZ" PURGE="0" COMMENT="" />
    <EXPORT ORDINAL="1882" NAME="?FOLQuotesGet@COfdSec@@QBEHXZ" PURGE="0" COMMENT="" />
    <EXPORT ORDINAL="1883" NAME="?FOLSelected@COfdTrnBase@@QBEHXZ" PURGE="0" COMMENT="" />
    <EXPORT ORDINAL="1884" NAME="?FOLSelected@COfdTrnBase@@SAHW4__MIDL___MIDL_itf_iofd_0137_0012@@@Z" PURGE="0" COMMENT="" />
    <EXPORT ORDINAL="1885" NAME="?FOLSendGet@COfdTrnBase@@QBEHXZ" PURGE="0" COMMENT="" />
    <EXPORT ORDINAL="1886" NAME="?FOLSendGet@COfdTrnBase@@SAHW4__MIDL___MIDL_itf_iofd_0137_0012@@@Z" PURGE="0" COMMENT="" />
    <EXPORT ORDINAL="1887" NAME="?FOLSentGet@COfdTrnBase@@QBEHXZ" PURGE="0" COMMENT="" />
    <EXPORT ORDINAL="1888" NAME="?FOLSentGet@COfdTrnBase@@SAHW4__MIDL___MIDL_itf_iofd_0137_0012@@@Z" PURGE="0" COMMENT="" />
    <EXPORT ORDINAL="1889" NAME="?FOSURequiredGet@COfdProvFi@@QBEHXZ" PURGE="0" COMMENT="" />
    <EXPORT ORDINAL="1890" NAME="?FObjFind@COfdPool@@QBEHPBDJJPAVCOfdObject@@PAH@Z" PURGE="20" COMMENT="" />
    <EXPORT ORDINAL="1891" NAME="?FObjFromHobj@COfdPool@@QBEHJPAVCOfdObject@@@Z" PURGE="8" COMMENT="" />
    <EXPORT ORDINAL="1892" NAME="?FObjFromProvPayFi@COfdPoolProvFiPay@@QAEHPAVCOfdProvFiPay@@JJ@Z" PURGE="12" COMMENT="" />
    <EXPORT ORDINAL="1893" NAME="?FOnline@COfdTrnBase@@QBEHXZ" PURGE="0" COMMENT="" />
    <EXPORT ORDINAL="1894" NAME="?FOnline@COfdTrnBase@@SAHJ@Z" PURGE="0" COMMENT="" />
    <EXPORT ORDINAL="1895" NAME="?FOnlineEnabledGet@COfdCntry@@QAEHXZ" PURGE="0" COMMENT="" />
    <EXPORT ORDINAL="1896" NAME="?FOnlineGet@COfdCrnc@@QBEHXZ" PURGE="0" COMMENT="" />
    <EXPORT ORDINAL="1897" NAME="?FOnlineGet@COfdPay@@QBEHXZ" PURGE="0" COMMENT="" />
    <EXPORT ORDINAL="1898" NAME="?FOpenLots@COfdPoolLot@@QBEHABVCOfdSec@@ABVCOfdAcct@@J@Z" PURGE="12" COMMENT="" />
    <EXPORT ORDINAL="1899" NAME="?FOpenLots@COfdTrnCalcs@@QBEHXZ" PURGE="0" COMMENT="" />
    <EXPORT ORDINAL="1900" NAME="?FOperGet@COfdCrit@@QBEHXZ" PURGE="0" COMMENT="" />
    <EXPORT ORDINAL="1901" NAME="?FOwnersTransferGet@COfdTrnBase@@QBEHXZ" PURGE="0" COMMENT="" />
    <EXPORT ORDINAL="1902" NAME="?FOwnersTransferGet@COfdTrnBase@@SAHJ@Z" PURGE="0" COMMENT="" />
    <EXPORT ORDINAL="1903" NAME="?FParent@COfdTrnBase@@QBEHXZ" PURGE="0" COMMENT="" />
    <EXPORT ORDINAL="1904" NAME="?FParent@COfdTrnBase@@SAHJ@Z" PURGE="0" COMMENT="" />
    <EXPORT ORDINAL="1905" NAME="?FPayFind@COfdPoolPay@@QBEHPBDJPAVCOfdPay@@PAH@Z" PURGE="16" COMMENT="" />
    <EXPORT ORDINAL="1906" NAME="?FPayFromHobj@COfdPoolPay@@QBEHJPAVCOfdPay@@@Z" PURGE="8" COMMENT="" />
    <EXPORT ORDINAL="1907" NAME="?FPayment@COfdTrnBase@@QBEHXZ" PURGE="0" COMMENT="" />
    <EXPORT ORDINAL="1908" NAME="?FPayment@COfdTrnBase@@SAHJ@Z" PURGE="0" COMMENT="" />
    <EXPORT ORDINAL="1909" NAME="?FPgmFind@COfdPoolPgm@@QBEHPBDJPAVCOfdPgm@@PAH@Z" PURGE="16" COMMENT="" />
    <EXPORT ORDINAL="1910" NAME="?FPgmFromHobj@COfdPoolPgm@@QBEHJPAVCOfdPgm@@@Z" PURGE="8" COMMENT="" />
    <EXPORT ORDINAL="1911" NAME="?FPinChgGet@COfdProvFi@@QBEHXZ" PURGE="0" COMMENT="" />
    <EXPORT ORDINAL="1912" NAME="?FPmtFromHobj@COfdPoolPmt@@QBEHJPAVCOfdPmt@@@Z" PURGE="8" COMMENT="" />
    <EXPORT ORDINAL="1913" NAME="?FPoolDenyWriteGet@COfdFile@@QBEHJ@Z" PURGE="4" COMMENT="" />
    <EXPORT ORDINAL="1914" NAME="?FPortRecFromHobj@COfdPoolPortRec@@QBEHJPAVCOfdPortRec@@@Z" PURGE="8" COMMENT="" />
    <EXPORT ORDINAL="1915" NAME="?FPosStmtFromHobj@COfdPoolPosStmt@@QBEHJPAVCOfdPosStmt@@@Z" PURGE="8" COMMENT="" />
    <EXPORT ORDINAL="1916" NAME="?FPostponedGet@COfdPortRec@@QBEHXZ" PURGE="0" COMMENT="" />
    <EXPORT ORDINAL="1917" NAME="?FPriceFind@COfdPoolPrice@@QBEHABVCOfdSec@@PAVCOfdPrice@@@Z" PURGE="8" COMMENT="" />
    <EXPORT ORDINAL="1918" NAME="?FPriceFind@COfdPoolPrice@@QBEHABVCOfdSec@@PAVCOfdPrice@@ABVCBaseDateTime@@H@Z" PURGE="16" COMMENT="" />
    <EXPORT ORDINAL="1919" NAME="?FPriceFind@COfdPoolPrice@@QBEHABVCOfdSec@@PAVCOfdPrice@@ABVCBaseDateTime@@W4__MIDL___MIDL_itf_iofd_0175_0003@@@Z" PURGE="16" COMMENT="" />
    <EXPORT ORDINAL="1920" NAME="?FPriceFind@COfdPoolPrice@@QBEHJABVCBaseDateTime@@PAN@Z" PURGE="12" COMMENT="" />
    <EXPORT ORDINAL="1921" NAME="?FPriceFromHobj@COfdPoolPrice@@QBEHJPAVCOfdPrice@@@Z" PURGE="8" COMMENT="" />
    <EXPORT ORDINAL="1922" NAME="?FPrintGet@COfdTrnBase@@QBEHXZ" PURGE="0" COMMENT="" />
    <EXPORT ORDINAL="1923" NAME="?FProcessedGet@COfdPosStmt@@QBEHXZ" PURGE="0" COMMENT="" />
    <EXPORT ORDINAL="1924" NAME="?FProductFind@COfdPoolProduct@@QBEHPBDJPAVCOfdProduct@@PAH@Z" PURGE="16" COMMENT="" />
    <EXPORT ORDINAL="1925" NAME="?FProductFromHobj@COfdPoolProduct@@QBEHJPAVCOfdProduct@@@Z" PURGE="8" COMMENT="" />
    <EXPORT ORDINAL="1926" NAME="?FProjFind@COfdPoolProj@@QBEHPBDJPAVCOfdProj@@PAH@Z" PURGE="16" COMMENT="" />
    <EXPORT ORDINAL="1927" NAME="?FProjFromHobj@COfdPoolProj@@QBEHJPAVCOfdProj@@@Z" PURGE="8" COMMENT="" />
    <EXPORT ORDINAL="1928" NAME="?FProvFiFromHobj@COfdPoolProvFi@@QBEHJPAVCOfdProvFi@@@Z" PURGE="8" COMMENT="" />
    <EXPORT ORDINAL="1929" NAME="?FProvFiPayFromHobj@COfdPoolProvFiPay@@QBEHJPAVCOfdProvFiPay@@@Z" PURGE="8" COMMENT="" />
    <EXPORT ORDINAL="1930" NAME="?FReadGet@COfdMail@@QBEHXZ" PURGE="0" COMMENT="" />
    <EXPORT ORDINAL="1931" NAME="?FReadLockGet@COfdList@@QAEHXZ" PURGE="0" COMMENT="" />
    <EXPORT ORDINAL="1932" NAME="?FReadLockGet@COfdObject@@QBEHXZ" PURGE="0" COMMENT="" />
    <EXPORT ORDINAL="1933" NAME="?FReadOnlyGet@COfdObject@@QAEHXZ" PURGE="0" COMMENT="" />
    <EXPORT ORDINAL="1934" NAME="?FReconPhantomGet@COfdTrnBase@@QBEHXZ" PURGE="0" COMMENT="" />
    <EXPORT ORDINAL="1935" NAME="?FReconPhantomGet@COfdTrnBase@@SAHJ@Z" PURGE="0" COMMENT="" />
    <EXPORT ORDINAL="1936" NAME="?FRecordsInRange@COfdBill@@QBEHJJ@Z" PURGE="8" COMMENT="" />
    <EXPORT ORDINAL="1937" NAME="?FRegDetailModeGet@COfdAcct@@QBEHXZ" PURGE="0" COMMENT="" />
    <EXPORT ORDINAL="1938" NAME="?FRegEntryByFormGet@COfdAcct@@QBEHXZ" PURGE="0" COMMENT="" />
    <EXPORT ORDINAL="1939" NAME="?FRegSoIncGet@COfdAcct@@QBEHXZ" PURGE="0" COMMENT="" />
    <EXPORT ORDINAL="1940" NAME="?FRegular@COfdTrnBase@@QBEHXZ" PURGE="0" COMMENT="" />
    <EXPORT ORDINAL="1941" NAME="?FRegular@COfdTrnBase@@SAHJ@Z" PURGE="0" COMMENT="" />
    <EXPORT ORDINAL="1942" NAME="?FReimburseGet@COfdTrnBase@@QBEHXZ" PURGE="0" COMMENT="" />
    <EXPORT ORDINAL="1943" NAME="?FRetirementGet@COfdAcct@@QBEHXZ" PURGE="0" COMMENT="" />
    <EXPORT ORDINAL="1944" NAME="?FReversedGet@COfdList@@QBEHXZ" PURGE="0" COMMENT="" />
    <EXPORT ORDINAL="1945" NAME="?FReviewGet@COfdTrn@@QBEHXZ" PURGE="0" COMMENT="" />
    <EXPORT ORDINAL="1946" NAME="?FSavGoalFind@COfdPoolSavGoal@@QBEHPBDJPAVCOfdSavGoal@@PAH@Z" PURGE="16" COMMENT="" />
    <EXPORT ORDINAL="1947" NAME="?FSavGoalFromHobj@COfdPoolSavGoal@@QBEHJPAVCOfdSavGoal@@@Z" PURGE="8" COMMENT="" />
    <EXPORT ORDINAL="1948" NAME="?FSavePinSuggestedGet@COfdProvFi@@QBEHXZ" PURGE="0" COMMENT="" />
    <EXPORT ORDINAL="1949" NAME="?FSecFind@COfdPoolSec@@QBEHPBDJPAVCOfdSec@@PAH@Z" PURGE="16" COMMENT="" />
    <EXPORT ORDINAL="1950" NAME="?FSecFromHobj@COfdPoolSec@@QBEHJPAVCOfdSec@@@Z" PURGE="8" COMMENT="" />
    <EXPORT ORDINAL="1951" NAME="?FSelectedGet@COfdList@@QBEHXZ" PURGE="0" COMMENT="" />
    <EXPORT ORDINAL="1952" NAME="?FSelectedGet@COfdListDel@@QBEHXZ" PURGE="0" COMMENT="" />
    <EXPORT ORDINAL="1953" NAME="?FSelectedGet@COfdListLotTrn@@QBEHXZ" PURGE="0" COMMENT="" />
    <EXPORT ORDINAL="1954" NAME="?FSelectedGet@COfdListTrnPmts@@QBEHXZ" PURGE="0" COMMENT="" />
    <EXPORT ORDINAL="1955" NAME="?FSelectedGet@COfdPortRec@@QBEHXZ" PURGE="0" COMMENT="" />
    <EXPORT ORDINAL="1956" NAME="?FSelectedGet@COfdProvFi@@QBEHXZ" PURGE="0" COMMENT="" />
    <EXPORT ORDINAL="1957" NAME="?FServiceGet@COfdProduct@@QBEHXZ" PURGE="0" COMMENT="" />
    <EXPORT ORDINAL="1958" NAME="?FSimpleGet@COfdBgt@@QBEHXZ" PURGE="0" COMMENT="" />
    <EXPORT ORDINAL="1959" NAME="?FSoqFromHobj@COfdPoolSoq@@QBEHJPAVCOfdSoq@@@Z" PURGE="8" COMMENT="" />
    <EXPORT ORDINAL="1960" NAME="?FSpinoff@COfdTrnBase@@QBEHXZ" PURGE="0" COMMENT="" />
    <EXPORT ORDINAL="1961" NAME="?FSpinoff@COfdTrnBase@@SAHJ@Z" PURGE="0" COMMENT="" />
    <EXPORT ORDINAL="1962" NAME="?FSplit@COfdTrnBase@@QBEHXZ" PURGE="0" COMMENT="" />
    <EXPORT ORDINAL="1963" NAME="?FSplit@COfdTrnBase@@SAHJ@Z" PURGE="0" COMMENT="" />
    <EXPORT ORDINAL="1964" NAME="?FStandAloneBillpayGet@COfdProvFi@@QBEHXZ" PURGE="0" COMMENT="" />
    <EXPORT ORDINAL="1965" NAME="?FStmtFromHobj@COfdPoolStmt@@QBEHJPAVCOfdStmt@@@Z" PURGE="8" COMMENT="" />
    <EXPORT ORDINAL="1966" NAME="?FStmtRequestedGet@COfdAcct@@QBEHXZ" PURGE="0" COMMENT="" />
    <EXPORT ORDINAL="1967" NAME="?FStorePinGet@COfdProvFi@@QBEHXZ" PURGE="0" COMMENT="" />
    <EXPORT ORDINAL="1968" NAME="?FSvcFromHobj@COfdPoolSvc@@QBEHJPAVCOfdSvc@@@Z" PURGE="8" COMMENT="" />
    <EXPORT ORDINAL="1969" NAME="?FSymDummyGet@COfdSec@@QBEHXZ" PURGE="0" COMMENT="" />
    <EXPORT ORDINAL="1970" NAME="?FTaxExemptGet@COfdSec@@QBEHXZ" PURGE="0" COMMENT="" />
    <EXPORT ORDINAL="1971" NAME="?FTaxExportGet@COfdAcct@@QBEHXZ" PURGE="0" COMMENT="" />
    <EXPORT ORDINAL="1972" NAME="?FTaxExtra@COfdTrnBase@@QBEHXZ" PURGE="0" COMMENT="" />
    <EXPORT ORDINAL="1973" NAME="?FTaxExtra@COfdTrnBase@@SAHJ@Z" PURGE="0" COMMENT="" />
    <EXPORT ORDINAL="1974" NAME="?FTaxGet@COfdCat@@QBEHXZ" PURGE="0" COMMENT="" />
    <EXPORT ORDINAL="1975" NAME="?FTaxGet@COfdTrnBase@@QBEHXZ" PURGE="0" COMMENT="" />
    <EXPORT ORDINAL="1976" NAME="?FTaxRelGet@COfdAcct@@QBEHXZ" PURGE="0" COMMENT="" />
    <EXPORT ORDINAL="1977" NAME="?FTaxableGet@COfdProduct@@QBEHXZ" PURGE="0" COMMENT="" />
    <EXPORT ORDINAL="1978" NAME="?FTaxlineFromHobj@COfdPoolTaxline@@QBEHJPAVCOfdTaxline@@@Z" PURGE="8" COMMENT="" />
    <EXPORT ORDINAL="1979" NAME="?FTmiFind@COfdPoolTmi@@QBEHPBDJPAVCOfdTmi@@PAH@Z" PURGE="16" COMMENT="" />
    <EXPORT ORDINAL="1980" NAME="?FTmiFromHobj@COfdPoolTmi@@QBEHJPAVCOfdTmi@@@Z" PURGE="8" COMMENT="" />
    <EXPORT ORDINAL="1981" NAME="?FTmiGet@COfdTrnBase@@QBEHXZ" PURGE="0" COMMENT="" />
    <EXPORT ORDINAL="1982" NAME="?FToFiGet@COfdMail@@QBEHXZ" PURGE="0" COMMENT="" />
    <EXPORT ORDINAL="1983" NAME="?FTrackInvGet@COfdProduct@@QBEHXZ" PURGE="0" COMMENT="" />
    <EXPORT ORDINAL="1984" NAME="?FTransfer@COfdTrnBase@@QBEHXZ" PURGE="0" COMMENT="" />
    <EXPORT ORDINAL="1985" NAME="?FTransfer@COfdTrnBase@@SAHJ@Z" PURGE="0" COMMENT="" />
    <EXPORT ORDINAL="1986" NAME="?FTransferAll@COfdTrnBase@@QBEHXZ" PURGE="0" COMMENT="" />
    <EXPORT ORDINAL="1987" NAME="?FTransferAll@COfdTrnBase@@SAHJ@Z" PURGE="0" COMMENT="" />
    <EXPORT ORDINAL="1988" NAME="?FTransferInv@COfdTrnBase@@QBEHXZ" PURGE="0" COMMENT="" />
    <EXPORT ORDINAL="1989" NAME="?FTransferInv@COfdTrnBase@@SAHJ@Z" PURGE="0" COMMENT="" />
    <EXPORT ORDINAL="1990" NAME="?FTripFind@COfdPoolTrip@@QBEHPBDJPAVCOfdTrip@@PAH@Z" PURGE="16" COMMENT="" />
    <EXPORT ORDINAL="1991" NAME="?FTripFromHobj@COfdPoolTrip@@QBEHJPAVCOfdTrip@@@Z" PURGE="8" COMMENT="" />
    <EXPORT ORDINAL="1992" NAME="?FTrnExists@COfdTrnCalcs@@QBEHXZ" PURGE="0" COMMENT="" />
    <EXPORT ORDINAL="1993" NAME="?FTrnFromHmco@COfdPoolTrn@@QBEHJPAVCOfdTrn@@@Z" PURGE="8" COMMENT="" />
    <EXPORT ORDINAL="1994" NAME="?FTrnFromHobj@COfdPoolTrn@@QBEHJPAVCOfdTrn@@@Z" PURGE="8" COMMENT="" />
    <EXPORT ORDINAL="1995" NAME="?FTxsrcFromHobj@COfdPoolTxsrc@@QBEHJPAVCOfdTxsrc@@@Z" PURGE="8" COMMENT="" />
    <EXPORT ORDINAL="1996" NAME="?FUieFind@COfdPoolUie@@QBEHPBDJPAVCOfdUie@@PAH@Z" PURGE="16" COMMENT="" />
    <EXPORT ORDINAL="1997" NAME="?FUieFromHobj@COfdPoolUie@@QBEHJPAVCOfdUie@@@Z" PURGE="8" COMMENT="" />
    <EXPORT ORDINAL="1998" NAME="?FUnassignedSplits@COfdPoolTrn@@QBEHXZ" PURGE="0" COMMENT="" />
    <EXPORT ORDINAL="1999" NAME="?FUnoteFind@COfdPoolUnote@@QBEHPBDJPAVCOfdUnote@@PAH@Z" PURGE="16" COMMENT="" />
    <EXPORT ORDINAL="2000" NAME="?FUnoteFromHobj@COfdPoolUnote@@QBEHJPAVCOfdUnote@@@Z" PURGE="8" COMMENT="" />
    <EXPORT ORDINAL="2001" NAME="?FUnreadGet@COfdTrn@@QBEHXZ" PURGE="0" COMMENT="" />
    <EXPORT ORDINAL="2002" NAME="?FUpdatePrice@COfdSec@@QBEHXZ" PURGE="0" COMMENT="" />
    <EXPORT ORDINAL="2003" NAME="?FUpdatePrice@COfdTrn@@QBEHXZ" PURGE="0" COMMENT="" />
    <EXPORT ORDINAL="2004" NAME="?FUpdatedFromHobj@COfdFile@@QAEHW4__MIDL___MIDL_itf_iofd_0120_0002@@J@Z" PURGE="8" COMMENT="" />
    <EXPORT ORDINAL="2005" NAME="?FUpdatedFromPos@COfdFile@@QAEHJJ@Z" PURGE="8" COMMENT="" />
    <EXPORT ORDINAL="2006" NAME="?FUsedByAst@COfdCat@@QBEHW4__MIDL___MIDL_itf_iofd_0121_0001@@H@Z" PURGE="8" COMMENT="" />
    <EXPORT ORDINAL="2007" NAME="?FUsesFld@COfdView@@QBEHJ@Z" PURGE="4" COMMENT="" />
    <EXPORT ORDINAL="2008" NAME="?FValueGet@COfdCrit@@QBEHXZ" PURGE="0" COMMENT="" />
    <EXPORT ORDINAL="2009" NAME="?FVatEnabledGet@COfdAcct@@QAEHXZ" PURGE="0" COMMENT="" />
    <EXPORT ORDINAL="2010" NAME="?FVendorGet@COfdPay@@QBEHXZ" PURGE="0" COMMENT="" />
    <EXPORT ORDINAL="2011" NAME="?FViewFind@COfdPoolView@@QBEHPBDJJPAVCOfdView@@PAH@Z" PURGE="20" COMMENT="" />
    <EXPORT ORDINAL="2012" NAME="?FViewFromHobj@COfdPoolView@@QBEHJPAVCOfdView@@@Z" PURGE="8" COMMENT="" />
    <EXPORT ORDINAL="2013" NAME="?FViewInCrncGet@COfdSec@@QBEHXZ" PURGE="0" COMMENT="" />
    <EXPORT ORDINAL="2014" NAME="?FVoidGet@COfdTrnBase@@QBEHXZ" PURGE="0" COMMENT="" />
    <EXPORT ORDINAL="2015" NAME="?FVoidGet@COfdTrnBase@@SAHJ@Z" PURGE="0" COMMENT="" />
    <EXPORT ORDINAL="2016" NAME="?FWatchGet@COfdAcct@@QBEHXZ" PURGE="0" COMMENT="" />
    <EXPORT ORDINAL="2017" NAME="?FWatchGet@COfdSec@@QBEHXZ" PURGE="0" COMMENT="" />
    <EXPORT ORDINAL="2018" NAME="?FXbagFromHobj@COfdPoolXbag@@QBEHJPAVCOfdXbag@@@Z" PURGE="8" COMMENT="" />
    <EXPORT ORDINAL="2019" NAME="?FiCurGet@COfdListFi@@QBE?AVCOfdFi@@XZ" PURGE="4" COMMENT="" />
    <EXPORT ORDINAL="2020" NAME="?FiGet@COfdAcct@@QBE?AVCOfdFi@@XZ" PURGE="4" COMMENT="" />
    <EXPORT ORDINAL="2021" NAME="?FiGet@COfdMail@@QBE?AVCOfdFi@@XZ" PURGE="4" COMMENT="" />
    <EXPORT ORDINAL="2022" NAME="?FiGet@COfdProvFi@@QBE?AVCOfdFi@@XZ" PURGE="4" COMMENT="" />
    <EXPORT ORDINAL="2023" NAME="?FiGet@COfdProvFiPay@@QBE?AVCOfdFi@@XZ" PURGE="4" COMMENT="" />
    <EXPORT ORDINAL="2024" NAME="?FiLastGet@COfdFile@@QBE?AVCOfdFi@@XZ" PURGE="4" COMMENT="" />
    <EXPORT ORDINAL="2025" NAME="?FieldIdInvalidGet@COfdObject@@QBEJXZ" PURGE="0" COMMENT="" />
    <EXPORT ORDINAL="2026" NAME="?FileCreate@COfdEngine@@QAE?AVCOfdFile@@PBD0HK0@Z" PURGE="24" COMMENT="" />
    <EXPORT ORDINAL="2027" NAME="?FileOpen@COfdEngine@@QAE?AVCOfdFile@@PBD00H@Z" PURGE="20" COMMENT="" />
    <EXPORT ORDINAL="2028" NAME="?FileOwningGet@COfdList@@QBE?AVCOfdFile@@XZ" PURGE="4" COMMENT="" />
    <EXPORT ORDINAL="2029" NAME="?FileOwningGet@COfdListLotTrn@@QBE?AVCOfdFile@@XZ" PURGE="4" COMMENT="" />
    <EXPORT ORDINAL="2030" NAME="?FileOwningGet@COfdListTrnPmts@@QBE?AVCOfdFile@@XZ" PURGE="4" COMMENT="" />
    <EXPORT ORDINAL="2031" NAME="?FileOwningGet@COfdObject@@QBE?AVCOfdFile@@XZ" PURGE="4" COMMENT="" />
    <EXPORT ORDINAL="2032" NAME="?FileOwningGet@COfdPool@@QBE?AVCOfdFile@@XZ" PURGE="4" COMMENT="" />
    <EXPORT ORDINAL="2033" NAME="?FiltGet@COfdCrit@@QBE?AW4__MIDL___MIDL_itf_iofd_0112_0002@@XZ" PURGE="0" COMMENT="" />
    <EXPORT ORDINAL="2034" NAME="?FindCustomField@COfdPool@@QAEJPBD@Z" PURGE="4" COMMENT="" />
    <EXPORT ORDINAL="2035" NAME="?FindCustomPoolTable@COfdFile@@QBEJPBD@Z" PURGE="4" COMMENT="" />
    <EXPORT ORDINAL="2036" NAME="?FitGet@COfdFi@@QBE?AW4__MIDL___MIDL_itf_iofd_0157_0001@@XZ" PURGE="0" COMMENT="" />
    <EXPORT ORDINAL="2037" NAME="?FixEuroExchgRate@COfdPoolCrnc@@QAEXXZ" PURGE="0" COMMENT="" />
    <EXPORT ORDINAL="2038" NAME="?FldGet@COfdCrit@@QBEJXZ" PURGE="0" COMMENT="" />
    <EXPORT ORDINAL="2039" NAME="?FldRecurseGet@COfdList@@QBEJXZ" PURGE="0" COMMENT="" />
    <EXPORT ORDINAL="2040" NAME="?FldRecurseGet@COfdView@@QBEJXZ" PURGE="0" COMMENT="" />
    <EXPORT ORDINAL="2041" NAME="?Free@COfdBuffer@@AAEXXZ" PURGE="0" COMMENT="" />
    <EXPORT ORDINAL="2042" NAME="?Free@COfdTsz@@AAEXXZ" PURGE="0" COMMENT="" />
    <EXPORT ORDINAL="2043" NAME="?FrqAdjGet@COfdAcct@@QBE?AW4__MIDL___MIDL_itf_iofd_0137_0014@@XZ" PURGE="0" COMMENT="" />
    <EXPORT ORDINAL="2044" NAME="?FrqCpdGet@COfdAcct@@QBE?AW4__MIDL___MIDL_itf_iofd_0137_0014@@XZ" PURGE="0" COMMENT="" />
    <EXPORT ORDINAL="2045" NAME="?FrqDebtPayGet@COfdAcct@@QBE?AW4__MIDL___MIDL_itf_iofd_0137_0014@@XZ" PURGE="0" COMMENT="" />
    <EXPORT ORDINAL="2046" NAME="?FrqGet@COfdAcct@@QBE?AW4__MIDL___MIDL_itf_iofd_0137_0014@@XZ" PURGE="0" COMMENT="" />
    <EXPORT ORDINAL="2047" NAME="?FrqGet@COfdBgt@@QBE?AW4__MIDL___MIDL_itf_iofd_0137_0014@@XZ" PURGE="0" COMMENT="" />
    <EXPORT ORDINAL="2048" NAME="?FrqGet@COfdBgtItm@@QBE?AW4__MIDL___MIDL_itf_iofd_0137_0014@@XZ" PURGE="0" COMMENT="" />
    <EXPORT ORDINAL="2049" NAME="?FrqGet@COfdBill@@UBE?AW4__MIDL___MIDL_itf_iofd_0137_0014@@XZ" PURGE="0" COMMENT="" />
    <EXPORT ORDINAL="2050" NAME="?FrqGet@COfdStmt@@QBE?AW4__MIDL___MIDL_itf_iofd_0137_0014@@XZ" PURGE="0" COMMENT="" />
    <EXPORT ORDINAL="2051" NAME="?FrqGet@COfdTrn@@UBE?AW4__MIDL___MIDL_itf_iofd_0137_0014@@XZ" PURGE="0" COMMENT="" />
    <EXPORT ORDINAL="2052" NAME="?FrqIntPmtGet@COfdSec@@QBE?AW4__MIDL___MIDL_itf_iofd_0137_0014@@XZ" PURGE="0" COMMENT="" />
    <EXPORT ORDINAL="2053" NAME="?FrqUpdGet@COfdProvFi@@QBE?AW4__MIDL___MIDL_itf_iofd_0137_0014@@XZ" PURGE="0" COMMENT="" />
    <EXPORT ORDINAL="2054" NAME="?GetExchangeRate@COfdCrnc@@QBENABV1@PANPAH2@Z" PURGE="16" COMMENT="" />
    <EXPORT ORDINAL="2055" NAME="?GetExchgInfoFromExchgid@COfdPoolCrnc@@QBEXJPAVCOfdCrnc@@0PAD@Z" PURGE="16" COMMENT="" />
    <EXPORT ORDINAL="2056" NAME="?GetExchgid@COfdCrnc@@QBEJABV1@@Z" PURGE="4" COMMENT="" />
    <EXPORT ORDINAL="2057" NAME="?GetFilePassportId@COfdEngine@@QAEXPBD0PAD@Z" PURGE="12" COMMENT="" />
    <EXPORT ORDINAL="2058" NAME="?GetFilePpSkippedCount@COfdEngine@@QAEXPBD0PAJ@Z" PURGE="12" COMMENT="" />
    <EXPORT ORDINAL="2059" NAME="?GetFilePwdType@COfdEngine@@QAEXPBD0PAJ@Z" PURGE="12" COMMENT="" />
    <EXPORT ORDINAL="2060" NAME="?GetInterface@COfdOleObject@@QBEPAUIUnknown@@HH@Z" PURGE="8" COMMENT="" />
    <EXPORT ORDINAL="2061" NAME="?GetRuntimeClass@COfdException@@UBEPAUCRuntimeClass@@XZ" PURGE="0" COMMENT="" />
    <EXPORT ORDINAL="2062" NAME="?GetSafePtr@COfdTsz@@QBEPBDXZ" PURGE="0" COMMENT="" />
    <EXPORT ORDINAL="2063" NAME="?GetSzExchgSymbol@COfdCrnc@@QBE?AVCOfdTsz@@ABV1@@Z" PURGE="8" COMMENT="" />
    <EXPORT ORDINAL="2064" NAME="?GetTreeViewArgs@COfdCrit@@QBEXPAJ000@Z" PURGE="16" COMMENT="" />
    <EXPORT ORDINAL="2065" NAME="?GetTreeViewArgs@COfdView@@QBEXPAJ000@Z" PURGE="16" COMMENT="" />
    <EXPORT ORDINAL="2066" NAME="?GetTypedPwd@COfdEngine@@QAEXPBDW4__MIDL___MIDL_itf_iofd_0110_0002@@PAD@Z" PURGE="12" COMMENT="" />
    <EXPORT ORDINAL="2067" NAME="?GrfAdviceGet@COfdAcct@@QBEJXZ" PURGE="0" COMMENT="" />
    <EXPORT ORDINAL="2068" NAME="?GrfBankCapGet@COfdProvFi@@QBEJXZ" PURGE="0" COMMENT="" />
    <EXPORT ORDINAL="2069" NAME="?GrfBgtStepGet@COfdBgt@@QBEJXZ" PURGE="0" COMMENT="" />
    <EXPORT ORDINAL="2070" NAME="?GrfCalcsGet@COfdTrnCalcs@@QBE?AW4__MIDL___MIDL_itf_iofd_0206_0001@@XZ" PURGE="0" COMMENT="" />
    <EXPORT ORDINAL="2071" NAME="?GrfConttGet@COfdPay@@QBEJXZ" PURGE="0" COMMENT="" />
    <EXPORT ORDINAL="2072" NAME="?GrfEbppFlagsGet@COfdStmt@@QBEJXZ" PURGE="0" COMMENT="" />
    <EXPORT ORDINAL="2073" NAME="?GrfEntryMethodsGet@COfdTrnBase@@QBE?AW4__MIDL___MIDL_itf_iofd_0137_0013@@XZ" PURGE="0" COMMENT="" />
    <EXPORT ORDINAL="2074" NAME="?GrfFollowupGet@COfdListTrn@@QBEJXZ" PURGE="0" COMMENT="" />
    <EXPORT ORDINAL="2075" NAME="?GrfFollowupGet@COfdTrn@@QBEJXZ" PURGE="0" COMMENT="" />
    <EXPORT ORDINAL="2076" NAME="?GrfGet@COfdUie@@QBEJXZ" PURGE="0" COMMENT="" />
    <EXPORT ORDINAL="2077" NAME="?GrfGet@COfdXbag@@QBEJXZ" PURGE="0" COMMENT="" />
    <EXPORT ORDINAL="2078" NAME="?GrfInvCapGet@COfdProvFi@@QBEJXZ" PURGE="0" COMMENT="" />
    <EXPORT ORDINAL="2079" NAME="?GrfPmtCapGet@COfdProvFi@@QBEJXZ" PURGE="0" COMMENT="" />
    <EXPORT ORDINAL="2080" NAME="?GrfProvCapGet@COfdProvFi@@QBEJXZ" PURGE="0" COMMENT="" />
    <EXPORT ORDINAL="2081" NAME="?GrfVersionGet@COfdFile@@QBEJXZ" PURGE="0" COMMENT="" />
    <EXPORT ORDINAL="2082" NAME="?GrfstemGet@COfdTrnBase@@QBEJXZ" PURGE="0" COMMENT="" />
    <EXPORT ORDINAL="2083" NAME="?GrfsvcCurrentGet@COfdSvc@@QBEJXZ" PURGE="0" COMMENT="" />
    <EXPORT ORDINAL="2084" NAME="?GrfsvcEnabledGet@COfdListProvFi@@QBEJXZ" PURGE="0" COMMENT="" />
    <EXPORT ORDINAL="2085" NAME="?GrfsvcEnabledGet@COfdProvFi@@QBEJXZ" PURGE="0" COMMENT="" />
    <EXPORT ORDINAL="2086" NAME="?GrfsvcOldGet@COfdSvc@@QBEJXZ" PURGE="0" COMMENT="" />
    <EXPORT ORDINAL="2087" NAME="?GrfsvcPendingGet@COfdSvc@@QBEJXZ" PURGE="0" COMMENT="" />
    <EXPORT ORDINAL="2088" NAME="?GrfsvcSupportedGet@COfdFi@@QBEJXZ" PURGE="0" COMMENT="" />
    <EXPORT ORDINAL="2089" NAME="?GrfsvcSupportedGet@COfdListFi@@QBEJXZ" PURGE="0" COMMENT="" />
    <EXPORT ORDINAL="2090" NAME="?GrfsvcSupportedGet@COfdListProvFi@@QBEJXZ" PURGE="0" COMMENT="" />
    <EXPORT ORDINAL="2091" NAME="?GrfsvcSupportedGet@COfdProvFi@@QBEJXZ" PURGE="0" COMMENT="" />
    <EXPORT ORDINAL="2092" NAME="?GrftfGet@COfdTrnBase@@QBEJXZ" PURGE="0" COMMENT="" />
    <EXPORT ORDINAL="2093" NAME="?GrfttGet@COfdTrnBase@@QBEJXZ" PURGE="0" COMMENT="" />
    <EXPORT ORDINAL="2094" NAME="?GrpGet@COfdAcct@@QBE?AW4__MIDL___MIDL_itf_iofd_0121_0006@@XZ" PURGE="0" COMMENT="" />
    <EXPORT ORDINAL="2095" NAME="?GrpGet@COfdTrn@@QBE?AW4__MIDL___MIDL_itf_iofd_0137_0008@@XZ" PURGE="0" COMMENT="" />
    <EXPORT ORDINAL="2096" NAME="?HAddrEbppPayGet@COfdStmt@@QBEJXZ" PURGE="0" COMMENT="" />
    <EXPORT ORDINAL="2097" NAME="?HBgtBktGet@COfdBgtItm@@QBEJXZ" PURGE="0" COMMENT="" />
    <EXPORT ORDINAL="2098" NAME="?HBgtGet@COfdBgtBkt@@QBEJXZ" PURGE="0" COMMENT="" />
    <EXPORT ORDINAL="2099" NAME="?HBgtGet@COfdBgtItm@@QBEJXZ" PURGE="0" COMMENT="" />
    <EXPORT ORDINAL="2100" NAME="?HBgtGet@COfdSavGoal@@QBEJXZ" PURGE="0" COMMENT="" />
    <EXPORT ORDINAL="2101" NAME="?HBgtItmLinkGet@COfdBgtItm@@QBEJXZ" PURGE="0" COMMENT="" />
    <EXPORT ORDINAL="2102" NAME="?HCatGet@COfdBgtItm@@QBEJXZ" PURGE="0" COMMENT="" />
    <EXPORT ORDINAL="2103" NAME="?HCatGet@COfdProduct@@QBEJXZ" PURGE="0" COMMENT="" />
    <EXPORT ORDINAL="2104" NAME="?HLstepNextGet@COfdLstep@@QBEJXZ" PURGE="0" COMMENT="" />
    <EXPORT ORDINAL="2105" NAME="?HacctBonusGet@COfdAcct@@QBEJXZ" PURGE="0" COMMENT="" />
    <EXPORT ORDINAL="2106" NAME="?HacctGet@COfdAuto@@QBEJXZ" PURGE="0" COMMENT="" />
    <EXPORT ORDINAL="2107" NAME="?HacctGet@COfdAwd@@QBEJXZ" PURGE="0" COMMENT="" />
    <EXPORT ORDINAL="2108" NAME="?HacctGet@COfdLot@@QBEJXZ" PURGE="0" COMMENT="" />
    <EXPORT ORDINAL="2109" NAME="?HacctGet@COfdMail@@QBEJXZ" PURGE="0" COMMENT="" />
    <EXPORT ORDINAL="2110" NAME="?HacctGet@COfdPortRec@@QBEJXZ" PURGE="0" COMMENT="" />
    <EXPORT ORDINAL="2111" NAME="?HacctGet@COfdPosStmt@@QBEJXZ" PURGE="0" COMMENT="" />
    <EXPORT ORDINAL="2112" NAME="?HacctGet@COfdSoq@@QBEJXZ" PURGE="0" COMMENT="" />
    <EXPORT ORDINAL="2113" NAME="?HacctGet@COfdStmt@@QBEJXZ" PURGE="0" COMMENT="" />
    <EXPORT ORDINAL="2114" NAME="?HacctGet@COfdSvc@@QBEJXZ" PURGE="0" COMMENT="" />
    <EXPORT ORDINAL="2115" NAME="?HacctGet@COfdTrnBase@@QBEJXZ" PURGE="0" COMMENT="" />
    <EXPORT ORDINAL="2116" NAME="?HacctLinkGet@COfdTrnBase@@QBEJXZ" PURGE="0" COMMENT="" />
    <EXPORT ORDINAL="2117" NAME="?HacctLoanGet@COfdLstep@@QBEJXZ" PURGE="0" COMMENT="" />
    <EXPORT ORDINAL="2118" NAME="?HacctMonthlyGet@COfdAcct@@QBEJXZ" PURGE="0" COMMENT="" />
    <EXPORT ORDINAL="2119" NAME="?HacctRelGet@COfdAcct@@QBEJXZ" PURGE="0" COMMENT="" />
    <EXPORT ORDINAL="2120" NAME="?HaddrBillGet@COfdPay@@QBEJXZ" PURGE="0" COMMENT="" />
    <EXPORT ORDINAL="2121" NAME="?HaddrBillGet@COfdTrnBase@@QBEJXZ" PURGE="0" COMMENT="" />
    <EXPORT ORDINAL="2122" NAME="?HaddrGet@COfdAcct@@QBEJXZ" PURGE="0" COMMENT="" />
    <EXPORT ORDINAL="2123" NAME="?HaddrGet@COfdFi@@QBEJXZ" PURGE="0" COMMENT="" />
    <EXPORT ORDINAL="2124" NAME="?HaddrGet@COfdPay@@QBEJXZ" PURGE="0" COMMENT="" />
    <EXPORT ORDINAL="2125" NAME="?HaddrGet@COfdProvFi@@QBEJXZ" PURGE="0" COMMENT="" />
    <EXPORT ORDINAL="2126" NAME="?HaddrGet@COfdProvFiPay@@QBEJXZ" PURGE="0" COMMENT="" />
    <EXPORT ORDINAL="2127" NAME="?HaddrGet@COfdStmt@@QBEJXZ" PURGE="0" COMMENT="" />
    <EXPORT ORDINAL="2128" NAME="?HaddrPOLGet@COfdFi@@QBEJXZ" PURGE="0" COMMENT="" />
    <EXPORT ORDINAL="2129" NAME="?HaddrShipGet@COfdPay@@QBEJXZ" PURGE="0" COMMENT="" />
    <EXPORT ORDINAL="2130" NAME="?HaddrShipGet@COfdTrnBase@@QBEJXZ" PURGE="0" COMMENT="" />
    <EXPORT ORDINAL="2131" NAME="?HautoGet@COfdTrip@@QBEJXZ" PURGE="0" COMMENT="" />
    <EXPORT ORDINAL="2132" NAME="?HbillHeadGet@COfdBill@@UBEJXZ" PURGE="0" COMMENT="" />
    <EXPORT ORDINAL="2133" NAME="?HbillHeadGet@COfdListBill@@QBEJXZ" PURGE="0" COMMENT="" />
    <EXPORT ORDINAL="2134" NAME="?HbillHeadGet@COfdTrn@@UBEJXZ" PURGE="0" COMMENT="" />
    <EXPORT ORDINAL="2135" NAME="?HbillParentGet@COfdBill@@QBEJXZ" PURGE="0" COMMENT="" />
    <EXPORT ORDINAL="2136" NAME="?HcatCls1Get@COfdTrnBase@@QBEJXZ" PURGE="0" COMMENT="" />
    <EXPORT ORDINAL="2137" NAME="?HcatCls2Get@COfdTrnBase@@QBEJXZ" PURGE="0" COMMENT="" />
    <EXPORT ORDINAL="2138" NAME="?HcatEndAdjGet@COfdAcct@@QBEJXZ" PURGE="0" COMMENT="" />
    <EXPORT ORDINAL="2139" NAME="?HcatFromRole@COfdPoolCat@@QBEJW4__MIDL___MIDL_itf_iofd_0125_0003@@@Z" PURGE="4" COMMENT="" />
    <EXPORT ORDINAL="2140" NAME="?HcatGet@COfdProj@@QBEJXZ" PURGE="0" COMMENT="" />
    <EXPORT ORDINAL="2141" NAME="?HcatGet@COfdTrnBase@@QBEJXZ" PURGE="0" COMMENT="" />
    <EXPORT ORDINAL="2142" NAME="?HcatInterestGet@COfdAcct@@QBEJXZ" PURGE="0" COMMENT="" />
    <EXPORT ORDINAL="2143" NAME="?HcatOpenAdjGet@COfdAcct@@QBEJXZ" PURGE="0" COMMENT="" />
    <EXPORT ORDINAL="2144" NAME="?HcatParentGet@COfdCat@@QBEJXZ" PURGE="0" COMMENT="" />
    <EXPORT ORDINAL="2145" NAME="?HcatPrincipalGet@COfdAcct@@QBEJXZ" PURGE="0" COMMENT="" />
    <EXPORT ORDINAL="2146" NAME="?HcatServiceGet@COfdAcct@@QBEJXZ" PURGE="0" COMMENT="" />
    <EXPORT ORDINAL="2147" NAME="?HclsKakGet@COfdTrnBase@@QBEJXZ" PURGE="0" COMMENT="" />
    <EXPORT ORDINAL="2148" NAME="?HcrncCurGet@COfdFile@@QBEJXZ" PURGE="0" COMMENT="" />
    <EXPORT ORDINAL="2149" NAME="?HcrncDefGet@COfdFile@@QBEJXZ" PURGE="0" COMMENT="" />
    <EXPORT ORDINAL="2150" NAME="?HcrncGet@COfdCurrency@@QBEJXZ" PURGE="0" COMMENT="" />
    <EXPORT ORDINAL="2151" NAME="?HcrncGet@COfdList@@QBEJXZ" PURGE="0" COMMENT="" />
    <EXPORT ORDINAL="2152" NAME="?HcrncGet@COfdObject@@QBEJXZ" PURGE="0" COMMENT="" />
    <EXPORT ORDINAL="2153" NAME="?HcrncOrigGet@COfdAcct@@QBEJXZ" PURGE="0" COMMENT="" />
    <EXPORT ORDINAL="2154" NAME="?HcrncPreReconGet@COfdXbag@@QBEJXZ" PURGE="0" COMMENT="" />
    <EXPORT ORDINAL="2155" NAME="?HcrncUserGet@COfdStmt@@QBEJXZ" PURGE="0" COMMENT="" />
    <EXPORT ORDINAL="2156" NAME="?HcrncUserGet@COfdTrnBase@@QBEJXZ" PURGE="0" COMMENT="" />
    <EXPORT ORDINAL="2157" NAME="?HctFromIdentity@COfdPoolCt@@QBEJW4__MIDL___MIDL_itf_iofd_0125_0001@@@Z" PURGE="4" COMMENT="" />
    <EXPORT ORDINAL="2158" NAME="?HctGet@COfdCat@@QBEJXZ" PURGE="0" COMMENT="" />
    <EXPORT ORDINAL="2159" NAME="?HcustGet@COfdPmt@@QBEJXZ" PURGE="0" COMMENT="" />
    <EXPORT ORDINAL="2160" NAME="?HfiGet@COfdAcct@@QBEJXZ" PURGE="0" COMMENT="" />
    <EXPORT ORDINAL="2161" NAME="?HfiGet@COfdMail@@QBEJXZ" PURGE="0" COMMENT="" />
    <EXPORT ORDINAL="2162" NAME="?HfiGet@COfdProvFi@@QBEJXZ" PURGE="0" COMMENT="" />
    <EXPORT ORDINAL="2163" NAME="?HfiGet@COfdProvFiPay@@QBEJXZ" PURGE="0" COMMENT="" />
    <EXPORT ORDINAL="2164" NAME="?HfiLastGet@COfdFile@@QBEJXZ" PURGE="0" COMMENT="" />
    <EXPORT ORDINAL="2165" NAME="?HivtyGet@COfdTrnBase@@QBEJXZ" PURGE="0" COMMENT="" />
    <EXPORT ORDINAL="2166" NAME="?HlotLinkGet@COfdLot@@QBEJXZ" PURGE="0" COMMENT="" />
    <EXPORT ORDINAL="2167" NAME="?HlotOpenGet@COfdLot@@QBEJXZ" PURGE="0" COMMENT="" />
    <EXPORT ORDINAL="2168" NAME="?HlotOrig@COfdLot@@QAEJXZ" PURGE="0" COMMENT="" />
    <EXPORT ORDINAL="2169" NAME="?HmcoGet@COfdAcct@@QBEJXZ" PURGE="0" COMMENT="" />
    <EXPORT ORDINAL="2170" NAME="?HmcoGet@COfdTrn@@QBEJXZ" PURGE="0" COMMENT="" />
    <EXPORT ORDINAL="2171" NAME="?HobjChartFilterGet@COfdAdv@@QBEJXZ" PURGE="0" COMMENT="" />
    <EXPORT ORDINAL="2172" NAME="?HobjCurGet@COfdList@@QBEJXZ" PURGE="0" COMMENT="" />
    <EXPORT ORDINAL="2173" NAME="?HobjCurGet@COfdListLotTrn@@QBEJXZ" PURGE="0" COMMENT="" />
    <EXPORT ORDINAL="2174" NAME="?HobjCurGet@COfdListTrnPmts@@QBEJXZ" PURGE="0" COMMENT="" />
    <EXPORT ORDINAL="2175" NAME="?HobjFilePropGet@COfdFile@@QBEJJ@Z" PURGE="4" COMMENT="" />
    <EXPORT ORDINAL="2176" NAME="?HobjFldGet@COfdList@@QBEJJ@Z" PURGE="4" COMMENT="" />
    <EXPORT ORDINAL="2177" NAME="?HobjFldGet@COfdListDel@@QBEJJ@Z" PURGE="4" COMMENT="" />
    <EXPORT ORDINAL="2178" NAME="?HobjFldGet@COfdListLotTrn@@QBEJJ@Z" PURGE="4" COMMENT="" />
    <EXPORT ORDINAL="2179" NAME="?HobjFldGet@COfdListSplit@@QBEJJ@Z" PURGE="4" COMMENT="" />
    <EXPORT ORDINAL="2180" NAME="?HobjFldGet@COfdListTrnPmts@@QBEJJ@Z" PURGE="4" COMMENT="" />
    <EXPORT ORDINAL="2181" NAME="?HobjFldGet@COfdObject@@QBEJJ@Z" PURGE="4" COMMENT="" />
    <EXPORT ORDINAL="2182" NAME="?HobjFromCeoid@COfdFile@@QBEJW4__MIDL___MIDL_itf_iofd_0120_0003@@J@Z" PURGE="8" COMMENT="" />
    <EXPORT ORDINAL="2183" NAME="?HobjFromSguid@COfdFile@@QAEJJVCOfdVariant@@@Z" PURGE="20" COMMENT="" />
    <EXPORT ORDINAL="2184" NAME="?HobjGet@COfdObject@@QBEJXZ" PURGE="0" COMMENT="" />
    <EXPORT ORDINAL="2185" NAME="?HobjLineGet@COfdTaxline@@QBEJXZ" PURGE="0" COMMENT="" />
    <EXPORT ORDINAL="2186" NAME="?HobjRelGet@COfdXbag@@QBEJXZ" PURGE="0" COMMENT="" />
    <EXPORT ORDINAL="2187" NAME="?HobjSelectedGet@COfdView@@QBEJXZ" PURGE="0" COMMENT="" />
    <EXPORT ORDINAL="2188" NAME="?HpayGet@COfdProvFiPay@@QBEJXZ" PURGE="0" COMMENT="" />
    <EXPORT ORDINAL="2189" NAME="?HpayGet@COfdTmi@@QBEJXZ" PURGE="0" COMMENT="" />
    <EXPORT ORDINAL="2190" NAME="?HpayGet@COfdTrnBase@@QBEJXZ" PURGE="0" COMMENT="" />
    <EXPORT ORDINAL="2191" NAME="?HpayParentGet@COfdPay@@QBEJXZ" PURGE="0" COMMENT="" />
    <EXPORT ORDINAL="2192" NAME="?HpayRelGet@COfdStmt@@QBEJXZ" PURGE="0" COMMENT="" />
    <EXPORT ORDINAL="2193" NAME="?HpgmCurGet@COfdAcct@@QBEJXZ" PURGE="0" COMMENT="" />
    <EXPORT ORDINAL="2194" NAME="?HpgmGet@COfdAwd@@QBEJXZ" PURGE="0" COMMENT="" />
    <EXPORT ORDINAL="2195" NAME="?HprodGet@COfdIvty@@QBEJXZ" PURGE="0" COMMENT="" />
    <EXPORT ORDINAL="2196" NAME="?HproductGet@COfdTmi@@QBEJXZ" PURGE="0" COMMENT="" />
    <EXPORT ORDINAL="2197" NAME="?HproductGet@COfdTrnBase@@QBEJXZ" PURGE="0" COMMENT="" />
    <EXPORT ORDINAL="2198" NAME="?HprojGet@COfdTrnBase@@QBEJXZ" PURGE="0" COMMENT="" />
    <EXPORT ORDINAL="2199" NAME="?HprovfiGet@COfdProvFiPay@@QBEJXZ" PURGE="0" COMMENT="" />
    <EXPORT ORDINAL="2200" NAME="?HprovfiGet@COfdSvc@@QBEJXZ" PURGE="0" COMMENT="" />
    <EXPORT ORDINAL="2201" NAME="?Hr@COfdException@@QAEJXZ" PURGE="0" COMMENT="" />
    <EXPORT ORDINAL="2202" NAME="?HrAcctCreate@COfdPoolAcct@@QBEJPAVCOfdAcct@@@Z" PURGE="4" COMMENT="" />
    <EXPORT ORDINAL="2203" NAME="?HrAddrCreate@COfdAcct@@QBEJPAVCOfdAddr@@@Z" PURGE="4" COMMENT="" />
    <EXPORT ORDINAL="2204" NAME="?HrAddrCreate@COfdFi@@QBEJPAVCOfdAddr@@@Z" PURGE="4" COMMENT="" />
    <EXPORT ORDINAL="2205" NAME="?HrAddrCreate@COfdPay@@QBEJPAVCOfdAddr@@@Z" PURGE="4" COMMENT="" />
    <EXPORT ORDINAL="2206" NAME="?HrAddrCreate@COfdProvFi@@QBEJPAVCOfdAddr@@@Z" PURGE="4" COMMENT="" />
    <EXPORT ORDINAL="2207" NAME="?HrAddrCreate@COfdProvFiPay@@QBEJPAVCOfdAddr@@@Z" PURGE="4" COMMENT="" />
    <EXPORT ORDINAL="2208" NAME="?HrAddrCreate@COfdStmt@@QBEJPAVCOfdAddr@@@Z" PURGE="4" COMMENT="" />
    <EXPORT ORDINAL="2209" NAME="?HrAddrCreate@COfdTrn@@QBEJPAVCOfdAddr@@@Z" PURGE="4" COMMENT="" />
    <EXPORT ORDINAL="2210" NAME="?HrAdvCreate@COfdPoolAdv@@QBEJPAVCOfdAdv@@@Z" PURGE="4" COMMENT="" />
    <EXPORT ORDINAL="2211" NAME="?HrAutoCreate@COfdPoolAuto@@QBEJPAVCOfdAuto@@@Z" PURGE="4" COMMENT="" />
    <EXPORT ORDINAL="2212" NAME="?HrAwdCreate@COfdPoolAwd@@QBEJPAVCOfdAwd@@@Z" PURGE="4" COMMENT="" />
    <EXPORT ORDINAL="2213" NAME="?HrBgtBktCreate@COfdPoolBgtBkt@@QBEJPAVCOfdBgtBkt@@@Z" PURGE="4" COMMENT="" />
    <EXPORT ORDINAL="2214" NAME="?HrBgtCreate@COfdPoolBgt@@QBEJPAVCOfdBgt@@@Z" PURGE="4" COMMENT="" />
    <EXPORT ORDINAL="2215" NAME="?HrBgtItmCreate@COfdPoolBgtItm@@QBEJPAVCOfdBgtItm@@@Z" PURGE="4" COMMENT="" />
    <EXPORT ORDINAL="2216" NAME="?HrBillCreate@COfdPoolBill@@QBEJPAVCOfdBill@@@Z" PURGE="4" COMMENT="" />
    <EXPORT ORDINAL="2217" NAME="?HrBrkStmtCreate@COfdPoolStmt@@QBEJPAVCOfdBrkStmt@@@Z" PURGE="4" COMMENT="" />
    <EXPORT ORDINAL="2218" NAME="?HrCatCreate@COfdPoolCat@@QBEJPAVCOfdCat@@@Z" PURGE="4" COMMENT="" />
    <EXPORT ORDINAL="2219" NAME="?HrCntryCreate@COfdPoolCntry@@QBEJPAVCOfdCntry@@@Z" PURGE="4" COMMENT="" />
    <EXPORT ORDINAL="2220" NAME="?HrCommitEdit@COfdBill@@QAEJJJ@Z" PURGE="8" COMMENT="" />
    <EXPORT ORDINAL="2221" NAME="?HrCommitEdit@COfdObject@@UAEJXZ" PURGE="0" COMMENT="" />
    <EXPORT ORDINAL="2222" NAME="?HrCommitEdit@COfdTrn@@UAEJXZ" PURGE="0" COMMENT="" />
    <EXPORT ORDINAL="2223" NAME="?HrCrncCreate@COfdPoolCrnc@@QBEJPAVCOfdCrnc@@@Z" PURGE="4" COMMENT="" />
    <EXPORT ORDINAL="2224" NAME="?HrCtCreate@COfdPoolCt@@QBEJPAVCOfdCt@@@Z" PURGE="4" COMMENT="" />
    <EXPORT ORDINAL="2225" NAME="?HrCustomCreate@COfdPoolCustom@@QBEJPAVCOfdCustom@@@Z" PURGE="4" COMMENT="" />
    <EXPORT ORDINAL="2226" NAME="?HrDelete@COfdObject@@UAEJXZ" PURGE="0" COMMENT="" />
    <EXPORT ORDINAL="2227" NAME="?HrDelete@COfdTrn@@UAEJXZ" PURGE="0" COMMENT="" />
    <EXPORT ORDINAL="2228" NAME="?HrDeleteAllInst@COfdBill@@QAEJXZ" PURGE="0" COMMENT="" />
    <EXPORT ORDINAL="2229" NAME="?HrDeleteAllUnpaidInst@COfdBill@@QAEJXZ" PURGE="0" COMMENT="" />
    <EXPORT ORDINAL="2230" NAME="?HrFiCreate@COfdPoolFi@@QBEJPAVCOfdFi@@@Z" PURGE="4" COMMENT="" />
    <EXPORT ORDINAL="2231" NAME="?HrIvtyCreate@COfdPoolIvty@@QBEJPAVCOfdIvty@@@Z" PURGE="4" COMMENT="" />
    <EXPORT ORDINAL="2232" NAME="?HrLotCreate@COfdPoolLot@@QBEJPAVCOfdLot@@@Z" PURGE="4" COMMENT="" />
    <EXPORT ORDINAL="2233" NAME="?HrLstepCreate@COfdAcct@@QBEJPAVCOfdLstep@@@Z" PURGE="4" COMMENT="" />
    <EXPORT ORDINAL="2234" NAME="?HrMailCreate@COfdPoolMail@@QBEJPAVCOfdMail@@@Z" PURGE="4" COMMENT="" />
    <EXPORT ORDINAL="2235" NAME="?HrObjCreate@COfdPool@@QBEJPAVCOfdObject@@@Z" PURGE="4" COMMENT="" />
    <EXPORT ORDINAL="2236" NAME="?HrPayCreate@COfdPoolPay@@QBEJPAVCOfdPay@@@Z" PURGE="4" COMMENT="" />
    <EXPORT ORDINAL="2237" NAME="?HrPgmCreate@COfdPoolPgm@@QBEJPAVCOfdPgm@@@Z" PURGE="4" COMMENT="" />
    <EXPORT ORDINAL="2238" NAME="?HrPmtCreate@COfdPoolPmt@@QBEJPAVCOfdPmt@@@Z" PURGE="4" COMMENT="" />
    <EXPORT ORDINAL="2239" NAME="?HrPortRecCreate@COfdPoolPortRec@@QBEJPAVCOfdPortRec@@@Z" PURGE="4" COMMENT="" />
    <EXPORT ORDINAL="2240" NAME="?HrPosStmtCreate@COfdPoolPosStmt@@QBEJPAVCOfdPosStmt@@@Z" PURGE="4" COMMENT="" />
    <EXPORT ORDINAL="2241" NAME="?HrPreCommit@COfdObject@@UAEJXZ" PURGE="0" COMMENT="" />
    <EXPORT ORDINAL="2242" NAME="?HrPriceCreate@COfdPoolPrice@@QBEJPAVCOfdPrice@@@Z" PURGE="4" COMMENT="" />
    <EXPORT ORDINAL="2243" NAME="?HrProductCreate@COfdPoolProduct@@QBEJPAVCOfdProduct@@@Z" PURGE="4" COMMENT="" />
    <EXPORT ORDINAL="2244" NAME="?HrProjCreate@COfdPoolProj@@QBEJPAVCOfdProj@@@Z" PURGE="4" COMMENT="" />
    <EXPORT ORDINAL="2245" NAME="?HrProvFiCreate@COfdPoolProvFi@@QBEJPAVCOfdProvFi@@@Z" PURGE="4" COMMENT="" />
    <EXPORT ORDINAL="2246" NAME="?HrProvFiPayCreate@COfdPoolProvFiPay@@QBEJPAVCOfdProvFiPay@@@Z" PURGE="4" COMMENT="" />
    <EXPORT ORDINAL="2247" NAME="?HrRemapCat@COfdPoolCat@@QAEJABVCOfdCat@@0@Z" PURGE="8" COMMENT="" />
    <EXPORT ORDINAL="2248" NAME="?HrRemapListCat@COfdPoolCat@@QAEJABVCOfdListCat@@ABVCOfdCat@@@Z" PURGE="8" COMMENT="" />
    <EXPORT ORDINAL="2249" NAME="?HrSavGoalCreate@COfdPoolSavGoal@@QBEJPAVCOfdSavGoal@@@Z" PURGE="4" COMMENT="" />
    <EXPORT ORDINAL="2250" NAME="?HrSecCreate@COfdPoolSec@@QBEJPAVCOfdSec@@@Z" PURGE="4" COMMENT="" />
    <EXPORT ORDINAL="2251" NAME="?HrSetSatMapping@COfdPoolSec@@QAEJPBDW4__MIDL___MIDL_itf_iofd_0147_0002@@@Z" PURGE="8" COMMENT="" />
    <EXPORT ORDINAL="2252" NAME="?HrSetStatusOnRange@COfdBill@@QAEJW4__MIDL___MIDL_itf_iofd_0249_0004@@JJ@Z" PURGE="12" COMMENT="" />
    <EXPORT ORDINAL="2253" NAME="?HrSoqCreate@COfdPoolSoq@@QBEJPAVCOfdSoq@@@Z" PURGE="4" COMMENT="" />
    <EXPORT ORDINAL="2254" NAME="?HrStmtCreate@COfdPoolStmt@@QBEJPAVCOfdStmt@@@Z" PURGE="4" COMMENT="" />
    <EXPORT ORDINAL="2255" NAME="?HrSvcCreate@COfdPoolSvc@@QBEJPAVCOfdSvc@@@Z" PURGE="4" COMMENT="" />
    <EXPORT ORDINAL="2256" NAME="?HrTaxlineCreate@COfdPoolTaxline@@QBEJPAVCOfdTaxline@@@Z" PURGE="4" COMMENT="" />
    <EXPORT ORDINAL="2257" NAME="?HrTmiCreate@COfdPoolTmi@@QBEJPAVCOfdTmi@@@Z" PURGE="4" COMMENT="" />
    <EXPORT ORDINAL="2258" NAME="?HrTripCreate@COfdPoolTrip@@QBEJPAVCOfdTrip@@@Z" PURGE="4" COMMENT="" />
    <EXPORT ORDINAL="2259" NAME="?HrTrnCreate@COfdPoolTrn@@QBEJPAVCOfdTrn@@@Z" PURGE="4" COMMENT="" />
    <EXPORT ORDINAL="2260" NAME="?HrTxsrcCreate@COfdPoolTxsrc@@QBEJPAVCOfdTxsrc@@@Z" PURGE="4" COMMENT="" />
    <EXPORT ORDINAL="2261" NAME="?HrUieCreate@COfdPoolUie@@QBEJPAVCOfdUie@@@Z" PURGE="4" COMMENT="" />
    <EXPORT ORDINAL="2262" NAME="?HrUnoteCreate@COfdPoolUnote@@QBEJPAVCOfdUnote@@@Z" PURGE="4" COMMENT="" />
    <EXPORT ORDINAL="2263" NAME="?HrViewCreate@COfdPoolView@@QAEJJPAVCOfdView@@@Z" PURGE="8" COMMENT="" />
    <EXPORT ORDINAL="2264" NAME="?HrXbagCreate@COfdPoolXbag@@QBEJPAVCOfdXbag@@@Z" PURGE="4" COMMENT="" />
    <EXPORT ORDINAL="2265" NAME="?HsecGet@COfdLot@@QBEJXZ" PURGE="0" COMMENT="" />
    <EXPORT ORDINAL="2266" NAME="?HsecGet@COfdPortRec@@QBEJXZ" PURGE="0" COMMENT="" />
    <EXPORT ORDINAL="2267" NAME="?HsecGet@COfdPrice@@QBEJXZ" PURGE="0" COMMENT="" />
    <EXPORT ORDINAL="2268" NAME="?HsecGet@COfdSoq@@QBEJXZ" PURGE="0" COMMENT="" />
    <EXPORT ORDINAL="2269" NAME="?HsecGet@COfdTrnBase@@QBEJXZ" PURGE="0" COMMENT="" />
    <EXPORT ORDINAL="2270" NAME="?HsecHacctFromHmcoPos@COfdFile@@QAEJJPAJ0@Z" PURGE="12" COMMENT="" />
    <EXPORT ORDINAL="2271" NAME="?HsecLinkGet@COfdSec@@QBEJXZ" PURGE="0" COMMENT="" />
    <EXPORT ORDINAL="2272" NAME="?HsrcGet@COfdTxsrc@@QBEJXZ" PURGE="0" COMMENT="" />
    <EXPORT ORDINAL="2273" NAME="?HstmtRelGet@COfdTrnBase@@QBEJXZ" PURGE="0" COMMENT="" />
    <EXPORT ORDINAL="2274" NAME="?HtmiGet@COfdTrnBase@@QBEJXZ" PURGE="0" COMMENT="" />
    <EXPORT ORDINAL="2275" NAME="?HtrnBuyGet@COfdLot@@QBEJXZ" PURGE="0" COMMENT="" />
    <EXPORT ORDINAL="2276" NAME="?HtrnCloseGet@COfdLot@@QBEJXZ" PURGE="0" COMMENT="" />
    <EXPORT ORDINAL="2277" NAME="?HtrnGet@COfdXbag@@QBEJXZ" PURGE="0" COMMENT="" />
    <EXPORT ORDINAL="2278" NAME="?HtrnInvoiceGet@COfdPmt@@QBEJXZ" PURGE="0" COMMENT="" />
    <EXPORT ORDINAL="2279" NAME="?HtrnLinkGet@COfdTrnBase@@QBEJXZ" PURGE="0" COMMENT="" />
    <EXPORT ORDINAL="2280" NAME="?HtrnOpenCurGet@COfdListLotTrn@@QBEJXZ" PURGE="0" COMMENT="" />
    <EXPORT ORDINAL="2281" NAME="?HtrnOpenGet@COfdLot@@QBEJXZ" PURGE="0" COMMENT="" />
    <EXPORT ORDINAL="2282" NAME="?HtrnParentGet@COfdTrnBase@@QBEJXZ" PURGE="0" COMMENT="" />
    <EXPORT ORDINAL="2283" NAME="?HtrnPmtGet@COfdPmt@@QBEJXZ" PURGE="0" COMMENT="" />
    <EXPORT ORDINAL="2284" NAME="?HtrnReimburseGet@COfdTrnBase@@QBEJXZ" PURGE="0" COMMENT="" />
    <EXPORT ORDINAL="2285" NAME="?HtrnSellGet@COfdLot@@QBEJXZ" PURGE="0" COMMENT="" />
    <EXPORT ORDINAL="2286" NAME="?HtrnSrcCurGet@COfdListSplit@@QBEJXZ" PURGE="0" COMMENT="" />
    <EXPORT ORDINAL="2287" NAME="?HtrnSrcGet@COfdTrnBase@@QBEJXZ" PURGE="0" COMMENT="" />
    <EXPORT ORDINAL="2288" NAME="?HtxsrcFromSrctHsrc@COfdPoolTxsrc@@QBEJW4__MIDL___MIDL_itf_iofd_0203_0001@@JJ@Z" PURGE="12" COMMENT="" />
    <EXPORT ORDINAL="2289" NAME="?HtxsrcFromSrctTaxTxn@COfdPoolTxsrc@@QBEJJJ@Z" PURGE="8" COMMENT="" />
    <EXPORT ORDINAL="2290" NAME="?HtxsrcGet@COfdTrnBase@@QBEJXZ" PURGE="0" COMMENT="" />
    <EXPORT ORDINAL="2291" NAME="?IItemCurGet@COfdList@@QBEJXZ" PURGE="0" COMMENT="" />
    <EXPORT ORDINAL="2292" NAME="?IItemCurGet@COfdListDel@@QBEJXZ" PURGE="0" COMMENT="" />
    <EXPORT ORDINAL="2293" NAME="?IItemCurGet@COfdListLotTrn@@QBEJXZ" PURGE="0" COMMENT="" />
    <EXPORT ORDINAL="2294" NAME="?IItemCurGet@COfdListSplit@@QBEJXZ" PURGE="0" COMMENT="" />
    <EXPORT ORDINAL="2295" NAME="?IItemCurGet@COfdListTrnPmts@@QBEJXZ" PURGE="0" COMMENT="" />
    <EXPORT ORDINAL="2296" NAME="?IItemFromHobj@COfdList@@QAEJJ@Z" PURGE="4" COMMENT="" />
    <EXPORT ORDINAL="2297" NAME="?IItemFromHobj@COfdListLotTrn@@QAEJJ@Z" PURGE="4" COMMENT="" />
    <EXPORT ORDINAL="2298" NAME="?IItemFromHobj@COfdListSplit@@QAEJJ@Z" PURGE="4" COMMENT="" />
    <EXPORT ORDINAL="2299" NAME="?IItemFromHobj@COfdListTrnPmts@@QAEJJ@Z" PURGE="4" COMMENT="" />
    <EXPORT ORDINAL="2300" NAME="?IOdoEndGet@COfdTrip@@QBEJXZ" PURGE="0" COMMENT="" />
    <EXPORT ORDINAL="2301" NAME="?IOdoStartGet@COfdTrip@@QBEJXZ" PURGE="0" COMMENT="" />
    <EXPORT ORDINAL="2302" NAME="?IPmtMaxGet@COfdAcct@@QAEJXZ" PURGE="0" COMMENT="" />
    <EXPORT ORDINAL="2303" NAME="?ISOCountryGet@COfdAcct@@QBEJXZ" PURGE="0" COMMENT="" />
    <EXPORT ORDINAL="2304" NAME="?ISOCountryGet@COfdAddr@@QBEJXZ" PURGE="0" COMMENT="" />
    <EXPORT ORDINAL="2305" NAME="?ISOCountryGet@COfdFi@@QBEJXZ" PURGE="0" COMMENT="" />
    <EXPORT ORDINAL="2306" NAME="?ISOCountryGet@COfdPay@@QBEJXZ" PURGE="0" COMMENT="" />
    <EXPORT ORDINAL="2307" NAME="?ISOCountryGet@COfdProvFi@@QBEJXZ" PURGE="0" COMMENT="" />
    <EXPORT ORDINAL="2308" NAME="?ISOCountryGet@COfdProvFiPay@@QBEJXZ" PURGE="0" COMMENT="" />
    <EXPORT ORDINAL="2309" NAME="?IgnoreParentFlag@COfdTrn@@QAEXXZ" PURGE="0" COMMENT="" />
    <EXPORT ORDINAL="2310" NAME="?IinstGet@COfdBill@@UBEJXZ" PURGE="0" COMMENT="" />
    <EXPORT ORDINAL="2311" NAME="?IinstGet@COfdListBill@@QBEJXZ" PURGE="0" COMMENT="" />
    <EXPORT ORDINAL="2312" NAME="?IinstGet@COfdTrn@@UBEJXZ" PURGE="0" COMMENT="" />
    <EXPORT ORDINAL="2313" NAME="?IinstLastSkippedGet@COfdBill@@QBEJXZ" PURGE="0" COMMENT="" />
    <EXPORT ORDINAL="2314" NAME="?IinstNextUnpaidGet@COfdBill@@QBEJXZ" PURGE="0" COMMENT="" />
    <EXPORT ORDINAL="2315" NAME="?IncrementId@COfdPoolTrn@@QBE?AVCOfdTsz@@PBDH@Z" PURGE="12" COMMENT="" />
    <EXPORT ORDINAL="2316" NAME="?InctGet@COfdBrkStmt@@QBEJXZ" PURGE="0" COMMENT="" />
    <EXPORT ORDINAL="2317" NAME="?Init@COfdBuffer@@QAEXI@Z" PURGE="4" COMMENT="" />
    <EXPORT ORDINAL="2318" NAME="?Init@COfdList@@UAEXXZ" PURGE="0" COMMENT="" />
    <EXPORT ORDINAL="2319" NAME="?Init@COfdListLotTrn@@QAEXJ@Z" PURGE="4" COMMENT="" />
    <EXPORT ORDINAL="2320" NAME="?Init@COfdListLotTrn@@QAEXJJNJ@Z" PURGE="20" COMMENT="" />
    <EXPORT ORDINAL="2321" NAME="?Init@COfdListTrnPmts@@QAEXABVCOfdTrn@@@Z" PURGE="4" COMMENT="" />
    <EXPORT ORDINAL="2322" NAME="?Init@COfdListTrnPmts@@QAEXABVCOfdTrn@@JJN@Z" PURGE="20" COMMENT="" />
    <EXPORT ORDINAL="2323" NAME="?Init@COfdObject@@UAEXXZ" PURGE="0" COMMENT="" />
    <EXPORT ORDINAL="2324" NAME="?Init@COfdPool@@UAEXXZ" PURGE="0" COMMENT="" />
    <EXPORT ORDINAL="2325" NAME="?InitLists@COfdTrnCalcs@@QAEXW4__MIDL___MIDL_itf_iofd_0206_0001@@PAVCOfdListSec@@PAVCOfdListAcct@@NJNNJ@Z" PURGE="44" COMMENT="" />
    <EXPORT ORDINAL="2326" NAME="?InitSecAcct@COfdTrnCalcs@@QAEXW4__MIDL___MIDL_itf_iofd_0206_0001@@JJNJNNJ@Z" PURGE="44" COMMENT="" />
    <EXPORT ORDINAL="2327" NAME="?InitTrn@COfdTrnCalcs@@QAEXW4__MIDL___MIDL_itf_iofd_0206_0001@@JJNNJ@Z" PURGE="32" COMMENT="" />
    <EXPORT ORDINAL="2328" NAME="?InsttGet@COfdTrnBase@@QBE?AW4__MIDL___MIDL_itf_iofd_0137_0021@@XZ" PURGE="0" COMMENT="" />
    <EXPORT ORDINAL="2329" NAME="?ItrnGet@COfdBill@@QBEJXZ" PURGE="0" COMMENT="" />
    <EXPORT ORDINAL="2330" NAME="?ItrnGet@COfdListBill@@QBEJXZ" PURGE="0" COMMENT="" />
    <EXPORT ORDINAL="2331" NAME="?ItrnLinkGet@COfdBill@@QBEJXZ" PURGE="0" COMMENT="" />
    <EXPORT ORDINAL="2332" NAME="?IvtyCurGet@COfdListIvty@@QBE?AVCOfdIvty@@XZ" PURGE="4" COMMENT="" />
    <EXPORT ORDINAL="2333" NAME="?IvtyGet@COfdTrnBase@@QAE?AVCOfdIvty@@XZ" PURGE="4" COMMENT="" />
    <EXPORT ORDINAL="2334" NAME="?IvtytGet@COfdIvty@@QBE?AW4__MIDL___MIDL_itf_iofd_0219_0002@@XZ" PURGE="0" COMMENT="" />
    <EXPORT ORDINAL="2335" NAME="?LAdvCatGet@COfdAdv@@QBEJXZ" PURGE="0" COMMENT="" />
    <EXPORT ORDINAL="2336" NAME="?LAdvGoalGet@COfdAdv@@QBEJXZ" PURGE="0" COMMENT="" />
    <EXPORT ORDINAL="2337" NAME="?LAdvIdGet@COfdAdv@@QBEJXZ" PURGE="0" COMMENT="" />
    <EXPORT ORDINAL="2338" NAME="?LAgeGet@COfdAdv@@QBEJXZ" PURGE="0" COMMENT="" />
    <EXPORT ORDINAL="2339" NAME="?LBaseImportanceGet@COfdAdv@@QBEJXZ" PURGE="0" COMMENT="" />
    <EXPORT ORDINAL="2340" NAME="?LBdsProvGuidGet@COfdProvFi@@QBEJXZ" PURGE="0" COMMENT="" />
    <EXPORT ORDINAL="2341" NAME="?LCBGet@COfdAcct@@QBEJXZ" PURGE="0" COMMENT="" />
    <EXPORT ORDINAL="2342" NAME="?LCompareStrings@COfdFile@@QAEJQBD0@Z" PURGE="8" COMMENT="" />
    <EXPORT ORDINAL="2343" NAME="?LCurImportanceGet@COfdAdv@@QBEJXZ" PURGE="0" COMMENT="" />
    <EXPORT ORDINAL="2344" NAME="?LDebtHtrnGet@COfdAcct@@QBEJXZ" PURGE="0" COMMENT="" />
    <EXPORT ORDINAL="2345" NAME="?LEbppSicGet@COfdStmt@@QBEJXZ" PURGE="0" COMMENT="" />
    <EXPORT ORDINAL="2346" NAME="?LFilePropGet@COfdFile@@QBEJJ@Z" PURGE="4" COMMENT="" />
    <EXPORT ORDINAL="2347" NAME="?LFldGet@COfdList@@QBEJJ@Z" PURGE="4" COMMENT="" />
    <EXPORT ORDINAL="2348" NAME="?LFldGet@COfdListDel@@QBEJJ@Z" PURGE="4" COMMENT="" />
    <EXPORT ORDINAL="2349" NAME="?LFldGet@COfdListLotTrn@@QBEJJ@Z" PURGE="4" COMMENT="" />
    <EXPORT ORDINAL="2350" NAME="?LFldGet@COfdListSplit@@QBEJJ@Z" PURGE="4" COMMENT="" />
    <EXPORT ORDINAL="2351" NAME="?LFldGet@COfdListTrnPmts@@QBEJJ@Z" PURGE="4" COMMENT="" />
    <EXPORT ORDINAL="2352" NAME="?LFldGet@COfdObject@@QBEJJ@Z" PURGE="4" COMMENT="" />
    <EXPORT ORDINAL="2353" NAME="?LIniGuidGet@COfdProvFi@@QBEJXZ" PURGE="0" COMMENT="" />
    <EXPORT ORDINAL="2354" NAME="?LPrevFileVersionGet@COfdFile@@QAEJXZ" PURGE="0" COMMENT="" />
    <EXPORT ORDINAL="2355" NAME="?LPriorityGet@COfdAdv@@QBEJXZ" PURGE="0" COMMENT="" />
    <EXPORT ORDINAL="2356" NAME="?LRegSoGet@COfdAcct@@QBEJXZ" PURGE="0" COMMENT="" />
    <EXPORT ORDINAL="2357" NAME="?LStatusGet@COfdAdv@@QBEJXZ" PURGE="0" COMMENT="" />
    <EXPORT ORDINAL="2358" NAME="?LStockScouterOverallRatingGet@COfdSec@@QBEJXZ" PURGE="0" COMMENT="" />
    <EXPORT ORDINAL="2359" NAME="?LTrnGet@COfdCt@@QBEJXZ" PURGE="0" COMMENT="" />
    <EXPORT ORDINAL="2360" NAME="?LTrnGet@COfdMail@@QBEJXZ" PURGE="0" COMMENT="" />
    <EXPORT ORDINAL="2361" NAME="?LTypeGet@COfdAdv@@QBEJXZ" PURGE="0" COMMENT="" />
    <EXPORT ORDINAL="2362" NAME="?LValueGet@COfdCrit@@QBEJXZ" PURGE="0" COMMENT="" />
    <EXPORT ORDINAL="2363" NAME="?LVersionGet@COfdEngine@@QBEJXZ" PURGE="0" COMMENT="" />
    <EXPORT ORDINAL="2364" NAME="?LXbagFldGet@COfdCat@@QBEJJW4__MIDL___MIDL_itf_iofd_0249_0002@@@Z" PURGE="8" COMMENT="" />
    <EXPORT ORDINAL="2365" NAME="?LXbagFldGet@COfdListBill@@QBEJJW4__MIDL___MIDL_itf_iofd_0249_0002@@@Z" PURGE="8" COMMENT="" />
    <EXPORT ORDINAL="2366" NAME="?LXbagFldGet@COfdListCat@@QBEJJW4__MIDL___MIDL_itf_iofd_0249_0002@@@Z" PURGE="8" COMMENT="" />
    <EXPORT ORDINAL="2367" NAME="?LXbagFldGet@COfdListTrn@@QBEJJW4__MIDL___MIDL_itf_iofd_0249_0002@@@Z" PURGE="8" COMMENT="" />
    <EXPORT ORDINAL="2368" NAME="?LXbagFldGet@COfdTrnBase@@QBEJJW4__MIDL___MIDL_itf_iofd_0249_0002@@@Z" PURGE="8" COMMENT="" />
    <EXPORT ORDINAL="2369" NAME="?LcidGet@COfdCrnc@@QBEJXZ" PURGE="0" COMMENT="" />
    <EXPORT ORDINAL="2370" NAME="?LcidGet@COfdFile@@QBEJXZ" PURGE="0" COMMENT="" />
    <EXPORT ORDINAL="2371" NAME="?LinkMergerSpinoff@COfdTrn@@QAEXABV1@@Z" PURGE="4" COMMENT="" />
    <EXPORT ORDINAL="2372" NAME="?LinkModelInst@COfdTrn@@QAEXABV1@@Z" PURGE="4" COMMENT="" />
    <EXPORT ORDINAL="2373" NAME="?LinkTransfer@COfdBill@@UAEXABVCOfdTrnBase@@@Z" PURGE="4" COMMENT="" />
    <EXPORT ORDINAL="2374" NAME="?LinkTransfer@COfdTrn@@UAEXABVCOfdTrnBase@@@Z" PURGE="4" COMMENT="" />
    <EXPORT ORDINAL="2375" NAME="?ListAcctClone@COfdListAcct@@QBE?AV1@W4__MIDL___MIDL_itf_iofd_0110_0007@@@Z" PURGE="8" COMMENT="" />
    <EXPORT ORDINAL="2376" NAME="?ListAcctCreate@COfdPoolAcct@@QBE?AVCOfdListAcct@@XZ" PURGE="4" COMMENT="" />
    <EXPORT ORDINAL="2377" NAME="?ListAddCreate@COfdFile@@QAE?AVCOfdListSync@@JN@Z" PURGE="16" COMMENT="" />
    <EXPORT ORDINAL="2378" NAME="?ListAdvClone@COfdListAdv@@QBE?AV1@W4__MIDL___MIDL_itf_iofd_0110_0007@@@Z" PURGE="8" COMMENT="" />
    <EXPORT ORDINAL="2379" NAME="?ListAdvCreate@COfdPoolAdv@@QBE?AVCOfdListAdv@@XZ" PURGE="4" COMMENT="" />
    <EXPORT ORDINAL="2380" NAME="?ListAutoClone@COfdListAuto@@QBE?AV1@W4__MIDL___MIDL_itf_iofd_0110_0007@@@Z" PURGE="8" COMMENT="" />
    <EXPORT ORDINAL="2381" NAME="?ListAutoCreate@COfdPoolAuto@@QBE?AVCOfdListAuto@@XZ" PURGE="4" COMMENT="" />
    <EXPORT ORDINAL="2382" NAME="?ListAwdClone@COfdListAwd@@QBE?AV1@W4__MIDL___MIDL_itf_iofd_0110_0007@@@Z" PURGE="8" COMMENT="" />
    <EXPORT ORDINAL="2383" NAME="?ListAwdCreate@COfdPoolAwd@@QBE?AVCOfdListAwd@@XZ" PURGE="4" COMMENT="" />
    <EXPORT ORDINAL="2384" NAME="?ListBgtBktClone@COfdListBgtBkt@@QBE?AV1@W4__MIDL___MIDL_itf_iofd_0110_0007@@@Z" PURGE="8" COMMENT="" />
    <EXPORT ORDINAL="2385" NAME="?ListBgtBktCreate@COfdPoolBgtBkt@@QBE?AVCOfdListBgtBkt@@XZ" PURGE="4" COMMENT="" />
    <EXPORT ORDINAL="2386" NAME="?ListBgtClone@COfdListBgt@@QBE?AV1@W4__MIDL___MIDL_itf_iofd_0110_0007@@@Z" PURGE="8" COMMENT="" />
    <EXPORT ORDINAL="2387" NAME="?ListBgtCreate@COfdPoolBgt@@QBE?AVCOfdListBgt@@XZ" PURGE="4" COMMENT="" />
    <EXPORT ORDINAL="2388" NAME="?ListBgtItmClone@COfdListBgtItm@@QBE?AV1@W4__MIDL___MIDL_itf_iofd_0110_0007@@@Z" PURGE="8" COMMENT="" />
    <EXPORT ORDINAL="2389" NAME="?ListBgtItmCreate@COfdPoolBgtItm@@QBE?AVCOfdListBgtItm@@XZ" PURGE="4" COMMENT="" />
    <EXPORT ORDINAL="2390" NAME="?ListBillClone@COfdListBill@@QBE?AV1@W4__MIDL___MIDL_itf_iofd_0110_0007@@@Z" PURGE="8" COMMENT="" />
    <EXPORT ORDINAL="2391" NAME="?ListBillCreate@COfdPoolBill@@QBE?AVCOfdListBill@@XZ" PURGE="4" COMMENT="" />
    <EXPORT ORDINAL="2392" NAME="?ListCatChildCreate@COfdCat@@QBE?AVCOfdListCat@@XZ" PURGE="4" COMMENT="" />
    <EXPORT ORDINAL="2393" NAME="?ListCatClone@COfdListCat@@QBE?AV1@W4__MIDL___MIDL_itf_iofd_0110_0007@@@Z" PURGE="8" COMMENT="" />
    <EXPORT ORDINAL="2394" NAME="?ListCatCreate@COfdPoolCat@@QBE?AVCOfdListCat@@XZ" PURGE="4" COMMENT="" />
    <EXPORT ORDINAL="2395" NAME="?ListClone@COfdList@@QBE?AV1@W4__MIDL___MIDL_itf_iofd_0110_0007@@@Z" PURGE="8" COMMENT="" />
    <EXPORT ORDINAL="2396" NAME="?ListCntryClone@COfdListCntry@@QBE?AV1@W4__MIDL___MIDL_itf_iofd_0110_0007@@@Z" PURGE="8" COMMENT="" />
    <EXPORT ORDINAL="2397" NAME="?ListCntryCreate@COfdPoolCntry@@QBE?AVCOfdListCntry@@XZ" PURGE="4" COMMENT="" />
    <EXPORT ORDINAL="2398" NAME="?ListCreate@COfdPool@@QBE?AVCOfdList@@XZ" PURGE="4" COMMENT="" />
    <EXPORT ORDINAL="2399" NAME="?ListCreateFromRghobj@COfdFile@@QAE?AVCOfdList@@JPAJH@Z" PURGE="16" COMMENT="" />
    <EXPORT ORDINAL="2400" NAME="?ListCritCreate@COfdView@@QBE?AVCOfdListCrit@@XZ" PURGE="4" COMMENT="" />
    <EXPORT ORDINAL="2401" NAME="?ListCrncClone@COfdListCrnc@@QBE?AV1@W4__MIDL___MIDL_itf_iofd_0110_0007@@@Z" PURGE="8" COMMENT="" />
    <EXPORT ORDINAL="2402" NAME="?ListCrncCreate@COfdPoolCrnc@@QBE?AVCOfdListCrnc@@XZ" PURGE="4" COMMENT="" />
    <EXPORT ORDINAL="2403" NAME="?ListCtClone@COfdListCt@@QBE?AV1@W4__MIDL___MIDL_itf_iofd_0110_0007@@@Z" PURGE="8" COMMENT="" />
    <EXPORT ORDINAL="2404" NAME="?ListCtCreate@COfdPoolCt@@QBE?AVCOfdListCt@@XZ" PURGE="4" COMMENT="" />
    <EXPORT ORDINAL="2405" NAME="?ListCustomClone@COfdListCustom@@QBE?AV1@W4__MIDL___MIDL_itf_iofd_0110_0007@@@Z" PURGE="8" COMMENT="" />
    <EXPORT ORDINAL="2406" NAME="?ListCustomCreate@COfdPoolCustom@@QBE?AVCOfdListCustom@@XZ" PURGE="4" COMMENT="" />
    <EXPORT ORDINAL="2407" NAME="?ListDelCreate@COfdFile@@QAE?AVCOfdListDel@@W4__MIDL___MIDL_itf_iofd_0120_0002@@N@Z" PURGE="16" COMMENT="" />
    <EXPORT ORDINAL="2408" NAME="?ListDeleteCreate@COfdFile@@QAE?AVCOfdListSync@@JN@Z" PURGE="16" COMMENT="" />
    <EXPORT ORDINAL="2409" NAME="?ListFiClone@COfdListFi@@QBE?AV1@W4__MIDL___MIDL_itf_iofd_0110_0007@@@Z" PURGE="8" COMMENT="" />
    <EXPORT ORDINAL="2410" NAME="?ListFiCreate@COfdPoolFi@@QBE?AVCOfdListFi@@XZ" PURGE="4" COMMENT="" />
    <EXPORT ORDINAL="2411" NAME="?ListIvtyClone@COfdListIvty@@QBE?AV1@W4__MIDL___MIDL_itf_iofd_0110_0007@@@Z" PURGE="8" COMMENT="" />
    <EXPORT ORDINAL="2412" NAME="?ListIvtyCreate@COfdPoolIvty@@QBE?AVCOfdListIvty@@XZ" PURGE="4" COMMENT="" />
    <EXPORT ORDINAL="2413" NAME="?ListLotClone@COfdListLot@@QBE?AV1@W4__MIDL___MIDL_itf_iofd_0110_0007@@@Z" PURGE="8" COMMENT="" />
    <EXPORT ORDINAL="2414" NAME="?ListLotClone@COfdListLotTrn@@QBE?AV1@W4__MIDL___MIDL_itf_iofd_0110_0007@@@Z" PURGE="8" COMMENT="" />
    <EXPORT ORDINAL="2415" NAME="?ListLotCreate@COfdPoolLot@@QBE?AVCOfdListLot@@XZ" PURGE="4" COMMENT="" />
    <EXPORT ORDINAL="2416" NAME="?ListLotFind@COfdPoolLot@@QBE?AVCOfdListLot@@ABVCOfdSec@@ABVCOfdAcct@@J@Z" PURGE="16" COMMENT="" />
    <EXPORT ORDINAL="2417" NAME="?ListLotTrnCreate@COfdPoolLot@@QBE?AVCOfdListLotTrn@@XZ" PURGE="4" COMMENT="" />
    <EXPORT ORDINAL="2418" NAME="?ListLotTrnGet@COfdTrn@@QBE?AVCOfdListLotTrn@@XZ" PURGE="4" COMMENT="" />
    <EXPORT ORDINAL="2419" NAME="?ListMailClone@COfdListMail@@QBE?AV1@W4__MIDL___MIDL_itf_iofd_0110_0007@@@Z" PURGE="8" COMMENT="" />
    <EXPORT ORDINAL="2420" NAME="?ListMailCreate@COfdPoolMail@@QBE?AVCOfdListMail@@XZ" PURGE="4" COMMENT="" />
    <EXPORT ORDINAL="2421" NAME="?ListPayClone@COfdListPay@@QBE?AV1@W4__MIDL___MIDL_itf_iofd_0110_0007@@@Z" PURGE="8" COMMENT="" />
    <EXPORT ORDINAL="2422" NAME="?ListPayCreate@COfdPoolPay@@QBE?AVCOfdListPay@@XZ" PURGE="4" COMMENT="" />
    <EXPORT ORDINAL="2423" NAME="?ListPgmClone@COfdListPgm@@QBE?AV1@W4__MIDL___MIDL_itf_iofd_0110_0007@@@Z" PURGE="8" COMMENT="" />
    <EXPORT ORDINAL="2424" NAME="?ListPgmCreate@COfdPoolPgm@@QBE?AVCOfdListPgm@@XZ" PURGE="4" COMMENT="" />
    <EXPORT ORDINAL="2425" NAME="?ListPmtClone@COfdListPmt@@QBE?AV1@W4__MIDL___MIDL_itf_iofd_0110_0007@@@Z" PURGE="8" COMMENT="" />
    <EXPORT ORDINAL="2426" NAME="?ListPmtCreate@COfdPoolPmt@@QBE?AVCOfdListPmt@@XZ" PURGE="4" COMMENT="" />
    <EXPORT ORDINAL="2427" NAME="?ListPortRecClone@COfdListPortRec@@QBE?AV1@W4__MIDL___MIDL_itf_iofd_0110_0007@@@Z" PURGE="8" COMMENT="" />
    <EXPORT ORDINAL="2428" NAME="?ListPortRecCreate@COfdPoolPortRec@@QBE?AVCOfdListPortRec@@XZ" PURGE="4" COMMENT="" />
    <EXPORT ORDINAL="2429" NAME="?ListPosStmtClone@COfdListPosStmt@@QBE?AV1@W4__MIDL___MIDL_itf_iofd_0110_0007@@@Z" PURGE="8" COMMENT="" />
    <EXPORT ORDINAL="2430" NAME="?ListPosStmtCreate@COfdPoolPosStmt@@QBE?AVCOfdListPosStmt@@XZ" PURGE="4" COMMENT="" />
    <EXPORT ORDINAL="2431" NAME="?ListPriceClone@COfdListPrice@@QBE?AV1@W4__MIDL___MIDL_itf_iofd_0110_0007@@@Z" PURGE="8" COMMENT="" />
    <EXPORT ORDINAL="2432" NAME="?ListPriceCreate@COfdPoolPrice@@QBE?AVCOfdListPrice@@XZ" PURGE="4" COMMENT="" />
    <EXPORT ORDINAL="2433" NAME="?ListProductClone@COfdListProduct@@QBE?AV1@W4__MIDL___MIDL_itf_iofd_0110_0007@@@Z" PURGE="8" COMMENT="" />
    <EXPORT ORDINAL="2434" NAME="?ListProductCreate@COfdPoolProduct@@QBE?AVCOfdListProduct@@XZ" PURGE="4" COMMENT="" />
    <EXPORT ORDINAL="2435" NAME="?ListProjClone@COfdListProj@@QBE?AV1@W4__MIDL___MIDL_itf_iofd_0110_0007@@@Z" PURGE="8" COMMENT="" />
    <EXPORT ORDINAL="2436" NAME="?ListProjCreate@COfdPoolProj@@QBE?AVCOfdListProj@@XZ" PURGE="4" COMMENT="" />
    <EXPORT ORDINAL="2437" NAME="?ListProvFiClone@COfdListProvFi@@QBE?AV1@W4__MIDL___MIDL_itf_iofd_0110_0007@@@Z" PURGE="8" COMMENT="" />
    <EXPORT ORDINAL="2438" NAME="?ListProvFiCreate@COfdFi@@QBE?AVCOfdListProvFi@@XZ" PURGE="4" COMMENT="" />
    <EXPORT ORDINAL="2439" NAME="?ListProvFiCreate@COfdPoolProvFi@@QBE?AVCOfdListProvFi@@XZ" PURGE="4" COMMENT="" />
    <EXPORT ORDINAL="2440" NAME="?ListProvFiPayClone@COfdListProvFiPay@@QBE?AV1@W4__MIDL___MIDL_itf_iofd_0110_0007@@@Z" PURGE="8" COMMENT="" />
    <EXPORT ORDINAL="2441" NAME="?ListProvFiPayCreate@COfdFi@@QBE?AVCOfdListProvFiPay@@XZ" PURGE="4" COMMENT="" />
    <EXPORT ORDINAL="2442" NAME="?ListProvFiPayCreate@COfdPay@@QBE?AVCOfdListProvFiPay@@XZ" PURGE="4" COMMENT="" />
    <EXPORT ORDINAL="2443" NAME="?ListProvFiPayCreate@COfdPoolProvFiPay@@QBE?AVCOfdListProvFiPay@@XZ" PURGE="4" COMMENT="" />
    <EXPORT ORDINAL="2444" NAME="?ListProvFiPayCreate@COfdProvFi@@QBE?AVCOfdListProvFiPay@@XZ" PURGE="4" COMMENT="" />
    <EXPORT ORDINAL="2445" NAME="?ListSavGoalClone@COfdListSavGoal@@QBE?AV1@W4__MIDL___MIDL_itf_iofd_0110_0007@@@Z" PURGE="8" COMMENT="" />
    <EXPORT ORDINAL="2446" NAME="?ListSavGoalCreate@COfdPoolSavGoal@@QBE?AVCOfdListSavGoal@@XZ" PURGE="4" COMMENT="" />
    <EXPORT ORDINAL="2447" NAME="?ListSecClone@COfdListSec@@QBE?AV1@W4__MIDL___MIDL_itf_iofd_0110_0007@@@Z" PURGE="8" COMMENT="" />
    <EXPORT ORDINAL="2448" NAME="?ListSecCreate@COfdPoolSec@@QBE?AVCOfdListSec@@XZ" PURGE="4" COMMENT="" />
    <EXPORT ORDINAL="2449" NAME="?ListSoqClone@COfdListSoq@@QBE?AV1@W4__MIDL___MIDL_itf_iofd_0110_0007@@@Z" PURGE="8" COMMENT="" />
    <EXPORT ORDINAL="2450" NAME="?ListSoqCreate@COfdPoolSoq@@QBE?AVCOfdListSoq@@XZ" PURGE="4" COMMENT="" />
    <EXPORT ORDINAL="2451" NAME="?ListSplitCreate@COfdTrn@@QAE?AVCOfdListSplit@@XZ" PURGE="4" COMMENT="" />
    <EXPORT ORDINAL="2452" NAME="?ListSplitGet@COfdBill@@QBE?AVCOfdListSplit@@XZ" PURGE="4" COMMENT="" />
    <EXPORT ORDINAL="2453" NAME="?ListSplitGet@COfdTrn@@QBE?AVCOfdListSplit@@XZ" PURGE="4" COMMENT="" />
    <EXPORT ORDINAL="2454" NAME="?ListStmtClone@COfdListStmt@@QBE?AV1@W4__MIDL___MIDL_itf_iofd_0110_0007@@@Z" PURGE="8" COMMENT="" />
    <EXPORT ORDINAL="2455" NAME="?ListStmtCreate@COfdPoolStmt@@QBE?AVCOfdListStmt@@XZ" PURGE="4" COMMENT="" />
    <EXPORT ORDINAL="2456" NAME="?ListSvcClone@COfdListSvc@@QBE?AV1@W4__MIDL___MIDL_itf_iofd_0110_0007@@@Z" PURGE="8" COMMENT="" />
    <EXPORT ORDINAL="2457" NAME="?ListSvcCreate@COfdAcct@@QBE?AVCOfdListSvc@@XZ" PURGE="4" COMMENT="" />
    <EXPORT ORDINAL="2458" NAME="?ListSvcCreate@COfdPoolSvc@@QBE?AVCOfdListSvc@@XZ" PURGE="4" COMMENT="" />
    <EXPORT ORDINAL="2459" NAME="?ListSvcCreate@COfdProvFi@@QBE?AVCOfdListSvc@@XZ" PURGE="4" COMMENT="" />
    <EXPORT ORDINAL="2460" NAME="?ListTaxlineClone@COfdListTaxline@@QBE?AV1@W4__MIDL___MIDL_itf_iofd_0110_0007@@@Z" PURGE="8" COMMENT="" />
    <EXPORT ORDINAL="2461" NAME="?ListTaxlineCreate@COfdPoolTaxline@@QBE?AVCOfdListTaxline@@XZ" PURGE="4" COMMENT="" />
    <EXPORT ORDINAL="2462" NAME="?ListTmiClone@COfdListTmi@@QBE?AV1@W4__MIDL___MIDL_itf_iofd_0110_0007@@@Z" PURGE="8" COMMENT="" />
    <EXPORT ORDINAL="2463" NAME="?ListTmiCreate@COfdPoolTmi@@QBE?AVCOfdListTmi@@XZ" PURGE="4" COMMENT="" />
    <EXPORT ORDINAL="2464" NAME="?ListTreeCreate@COfdPoolCat@@QBE?AVCOfdListCat@@JJJJJ@Z" PURGE="24" COMMENT="" />
    <EXPORT ORDINAL="2465" NAME="?ListTripClone@COfdListTrip@@QBE?AV1@W4__MIDL___MIDL_itf_iofd_0110_0007@@@Z" PURGE="8" COMMENT="" />
    <EXPORT ORDINAL="2466" NAME="?ListTripCreate@COfdPoolTrip@@QBE?AVCOfdListTrip@@XZ" PURGE="4" COMMENT="" />
    <EXPORT ORDINAL="2467" NAME="?ListTrnClone@COfdListTrn@@QBE?AV1@W4__MIDL___MIDL_itf_iofd_0110_0007@@@Z" PURGE="8" COMMENT="" />
    <EXPORT ORDINAL="2468" NAME="?ListTrnClone@COfdListTrnPmts@@QBE?AV1@W4__MIDL___MIDL_itf_iofd_0110_0007@@@Z" PURGE="8" COMMENT="" />
    <EXPORT ORDINAL="2469" NAME="?ListTrnCreate@COfdPoolTrn@@QBE?AVCOfdListTrn@@XZ" PURGE="4" COMMENT="" />
    <EXPORT ORDINAL="2470" NAME="?ListTrnPmtsCreate@COfdPoolTrn@@QBE?AVCOfdListTrnPmts@@XZ" PURGE="4" COMMENT="" />
    <EXPORT ORDINAL="2471" NAME="?ListTrnPmtsGet@COfdTrn@@QBE?AVCOfdListTrnPmts@@J@Z" PURGE="8" COMMENT="" />
    <EXPORT ORDINAL="2472" NAME="?ListTxsrcClone@COfdListTxsrc@@QBE?AV1@W4__MIDL___MIDL_itf_iofd_0110_0007@@@Z" PURGE="8" COMMENT="" />
    <EXPORT ORDINAL="2473" NAME="?ListTxsrcCreate@COfdPoolTxsrc@@QBE?AVCOfdListTxsrc@@XZ" PURGE="4" COMMENT="" />
    <EXPORT ORDINAL="2474" NAME="?ListUieClone@COfdListUie@@QBE?AV1@W4__MIDL___MIDL_itf_iofd_0110_0007@@@Z" PURGE="8" COMMENT="" />
    <EXPORT ORDINAL="2475" NAME="?ListUieCreate@COfdPoolUie@@QBE?AVCOfdListUie@@XZ" PURGE="4" COMMENT="" />
    <EXPORT ORDINAL="2476" NAME="?ListUnoteClone@COfdListUnote@@QBE?AV1@W4__MIDL___MIDL_itf_iofd_0110_0007@@@Z" PURGE="8" COMMENT="" />
    <EXPORT ORDINAL="2477" NAME="?ListUnoteCreate@COfdPoolUnote@@QBE?AVCOfdListUnote@@XZ" PURGE="4" COMMENT="" />
    <EXPORT ORDINAL="2478" NAME="?ListValueGet@COfdCrit@@QAE?AVCOfdList@@XZ" PURGE="4" COMMENT="" />
    <EXPORT ORDINAL="2479" NAME="?ListViewCreate@COfdPoolView@@QBE?AVCOfdListView@@XZ" PURGE="4" COMMENT="" />
    <EXPORT ORDINAL="2480" NAME="?ListXbagClone@COfdListXbag@@QBE?AV1@W4__MIDL___MIDL_itf_iofd_0110_0007@@@Z" PURGE="8" COMMENT="" />
    <EXPORT ORDINAL="2481" NAME="?ListXbagCreate@COfdPoolXbag@@QBE?AVCOfdListXbag@@XZ" PURGE="4" COMMENT="" />
    <EXPORT ORDINAL="2482" NAME="?LotCurGet@COfdListLot@@QBE?AVCOfdLot@@XZ" PURGE="4" COMMENT="" />
    <EXPORT ORDINAL="2483" NAME="?LotCurGet@COfdListLotTrn@@QBE?AVCOfdLot@@XZ" PURGE="4" COMMENT="" />
    <EXPORT ORDINAL="2484" NAME="?LotOrig@COfdLot@@QAE?AV1@XZ" PURGE="4" COMMENT="" />
    <EXPORT ORDINAL="2485" NAME="?LottGet@COfdBrkStmt@@QBE?AW4__MIDL___MIDL_itf_iofd_0137_0016@@XZ" PURGE="0" COMMENT="" />
    <EXPORT ORDINAL="2486" NAME="?LottGet@COfdLot@@QBEJXZ" PURGE="0" COMMENT="" />
    <EXPORT ORDINAL="2487" NAME="?LottGet@COfdTrnBase@@QBE?AW4__MIDL___MIDL_itf_iofd_0137_0016@@XZ" PURGE="0" COMMENT="" />
    <EXPORT ORDINAL="2488" NAME="?LsicGet@COfdStmt@@QBEJXZ" PURGE="0" COMMENT="" />
    <EXPORT ORDINAL="2489" NAME="?LstepGet@COfdAcct@@QBE?AVCOfdLstep@@XZ" PURGE="4" COMMENT="" />
    <EXPORT ORDINAL="2490" NAME="?LstepNextGet@COfdLstep@@QBE?AV1@XZ" PURGE="4" COMMENT="" />
    <EXPORT ORDINAL="2491" NAME="?MailCurGet@COfdListMail@@QBE?AVCOfdMail@@XZ" PURGE="4" COMMENT="" />
    <EXPORT ORDINAL="2492" NAME="?MaintainFile@COfdEngine@@QAEXPBD00K@Z" PURGE="16" COMMENT="" />
    <EXPORT ORDINAL="2493" NAME="?MakeTransferTrn@COfdTrn@@QAEXPBV1@H@Z" PURGE="8" COMMENT="" />
    <EXPORT ORDINAL="2494" NAME="?MoveFirst@COfdList@@QAEXXZ" PURGE="0" COMMENT="" />
    <EXPORT ORDINAL="2495" NAME="?MoveFirst@COfdListCrit@@QAEXXZ" PURGE="0" COMMENT="" />
    <EXPORT ORDINAL="2496" NAME="?MoveFirst@COfdListDel@@QAEXXZ" PURGE="0" COMMENT="" />
    <EXPORT ORDINAL="2497" NAME="?MoveFirst@COfdListLotTrn@@QAEXXZ" PURGE="0" COMMENT="" />
    <EXPORT ORDINAL="2498" NAME="?MoveFirst@COfdListSplit@@QAEXXZ" PURGE="0" COMMENT="" />
    <EXPORT ORDINAL="2499" NAME="?MoveFirst@COfdListTrnPmts@@QAEXXZ" PURGE="0" COMMENT="" />
    <EXPORT ORDINAL="2500" NAME="?MoveLast@COfdList@@QAEXXZ" PURGE="0" COMMENT="" />
    <EXPORT ORDINAL="2501" NAME="?MoveLast@COfdListCrit@@QAEXXZ" PURGE="0" COMMENT="" />
    <EXPORT ORDINAL="2502" NAME="?MoveLast@COfdListDel@@QAEXXZ" PURGE="0" COMMENT="" />
    <EXPORT ORDINAL="2503" NAME="?MoveLast@COfdListLotTrn@@QAEXXZ" PURGE="0" COMMENT="" />
    <EXPORT ORDINAL="2504" NAME="?MoveLast@COfdListSplit@@QAEXXZ" PURGE="0" COMMENT="" />
    <EXPORT ORDINAL="2505" NAME="?MoveLast@COfdListTrnPmts@@QAEXXZ" PURGE="0" COMMENT="" />
    <EXPORT ORDINAL="2506" NAME="?MoveNext@COfdList@@QAEXXZ" PURGE="0" COMMENT="" />
    <EXPORT ORDINAL="2507" NAME="?MoveNext@COfdListCrit@@QAEXXZ" PURGE="0" COMMENT="" />
    <EXPORT ORDINAL="2508" NAME="?MoveNext@COfdListDel@@QAEXXZ" PURGE="0" COMMENT="" />
    <EXPORT ORDINAL="2509" NAME="?MoveNext@COfdListLotTrn@@QAEXXZ" PURGE="0" COMMENT="" />
    <EXPORT ORDINAL="2510" NAME="?MoveNext@COfdListSplit@@QAEXXZ" PURGE="0" COMMENT="" />
    <EXPORT ORDINAL="2511" NAME="?MoveNext@COfdListTrnPmts@@QAEXXZ" PURGE="0" COMMENT="" />
    <EXPORT ORDINAL="2512" NAME="?MoveNextPrefix@COfdList@@QAEXPBDHH@Z" PURGE="12" COMMENT="" />
    <EXPORT ORDINAL="2513" NAME="?MovePrev@COfdList@@QAEXXZ" PURGE="0" COMMENT="" />
    <EXPORT ORDINAL="2514" NAME="?MovePrev@COfdListCrit@@QAEXXZ" PURGE="0" COMMENT="" />
    <EXPORT ORDINAL="2515" NAME="?MovePrev@COfdListDel@@QAEXXZ" PURGE="0" COMMENT="" />
    <EXPORT ORDINAL="2516" NAME="?MovePrev@COfdListLotTrn@@QAEXXZ" PURGE="0" COMMENT="" />
    <EXPORT ORDINAL="2517" NAME="?MovePrev@COfdListSplit@@QAEXXZ" PURGE="0" COMMENT="" />
    <EXPORT ORDINAL="2518" NAME="?MovePrev@COfdListTrnPmts@@QAEXXZ" PURGE="0" COMMENT="" />
    <EXPORT ORDINAL="2519" NAME="?MoveToAcct@COfdListAcct@@QAEXABVCOfdAcct@@@Z" PURGE="4" COMMENT="" />
    <EXPORT ORDINAL="2520" NAME="?MoveToAdv@COfdListAdv@@QAEXABVCOfdAdv@@@Z" PURGE="4" COMMENT="" />
    <EXPORT ORDINAL="2521" NAME="?MoveToAuto@COfdListAuto@@QAEXABVCOfdAuto@@@Z" PURGE="4" COMMENT="" />
    <EXPORT ORDINAL="2522" NAME="?MoveToAwd@COfdListAwd@@QAEXABVCOfdAwd@@@Z" PURGE="4" COMMENT="" />
    <EXPORT ORDINAL="2523" NAME="?MoveToBgt@COfdListBgt@@QAEXABVCOfdBgt@@@Z" PURGE="4" COMMENT="" />
    <EXPORT ORDINAL="2524" NAME="?MoveToBgtBkt@COfdListBgtBkt@@QAEXABVCOfdBgtBkt@@@Z" PURGE="4" COMMENT="" />
    <EXPORT ORDINAL="2525" NAME="?MoveToBgtItm@COfdListBgtItm@@QAEXABVCOfdBgtItm@@@Z" PURGE="4" COMMENT="" />
    <EXPORT ORDINAL="2526" NAME="?MoveToBill@COfdListBill@@QAEXABVCOfdBill@@@Z" PURGE="4" COMMENT="" />
    <EXPORT ORDINAL="2527" NAME="?MoveToBrkStmt@COfdListStmt@@QAEXABVCOfdBrkStmt@@@Z" PURGE="4" COMMENT="" />
    <EXPORT ORDINAL="2528" NAME="?MoveToCat@COfdListCat@@QAEXABVCOfdCat@@@Z" PURGE="4" COMMENT="" />
    <EXPORT ORDINAL="2529" NAME="?MoveToCntry@COfdListCntry@@QAEXABVCOfdCntry@@@Z" PURGE="4" COMMENT="" />
    <EXPORT ORDINAL="2530" NAME="?MoveToCrit@COfdListCrit@@QAEXABVCOfdCrit@@@Z" PURGE="4" COMMENT="" />
    <EXPORT ORDINAL="2531" NAME="?MoveToCrnc@COfdListCrnc@@QAEXABVCOfdCrnc@@@Z" PURGE="4" COMMENT="" />
    <EXPORT ORDINAL="2532" NAME="?MoveToCt@COfdListCt@@QAEXABVCOfdCt@@@Z" PURGE="4" COMMENT="" />
    <EXPORT ORDINAL="2533" NAME="?MoveToCustom@COfdListCustom@@QAEXABVCOfdCustom@@@Z" PURGE="4" COMMENT="" />
    <EXPORT ORDINAL="2534" NAME="?MoveToFi@COfdListFi@@QAEXABVCOfdFi@@@Z" PURGE="4" COMMENT="" />
    <EXPORT ORDINAL="2535" NAME="?MoveToHobj@COfdList@@QAEXJ@Z" PURGE="4" COMMENT="" />
    <EXPORT ORDINAL="2536" NAME="?MoveToHobj@COfdListLotTrn@@QAEXJ@Z" PURGE="4" COMMENT="" />
    <EXPORT ORDINAL="2537" NAME="?MoveToHobj@COfdListTrnPmts@@QAEXJ@Z" PURGE="4" COMMENT="" />
    <EXPORT ORDINAL="2538" NAME="?MoveToIvty@COfdListIvty@@QAEXABVCOfdIvty@@@Z" PURGE="4" COMMENT="" />
    <EXPORT ORDINAL="2539" NAME="?MoveToLot@COfdListLot@@QAEXABVCOfdLot@@@Z" PURGE="4" COMMENT="" />
    <EXPORT ORDINAL="2540" NAME="?MoveToLot@COfdListLotTrn@@QAEXABVCOfdLot@@@Z" PURGE="4" COMMENT="" />
    <EXPORT ORDINAL="2541" NAME="?MoveToMail@COfdListMail@@QAEXABVCOfdMail@@@Z" PURGE="4" COMMENT="" />
    <EXPORT ORDINAL="2542" NAME="?MoveToObject@COfdList@@QAEXABVCOfdObject@@@Z" PURGE="4" COMMENT="" />
    <EXPORT ORDINAL="2543" NAME="?MoveToPay@COfdListPay@@QAEXABVCOfdPay@@@Z" PURGE="4" COMMENT="" />
    <EXPORT ORDINAL="2544" NAME="?MoveToPgm@COfdListPgm@@QAEXABVCOfdPgm@@@Z" PURGE="4" COMMENT="" />
    <EXPORT ORDINAL="2545" NAME="?MoveToPmt@COfdListPmt@@QAEXABVCOfdPmt@@@Z" PURGE="4" COMMENT="" />
    <EXPORT ORDINAL="2546" NAME="?MoveToPortRec@COfdListPortRec@@QAEXABVCOfdPortRec@@@Z" PURGE="4" COMMENT="" />
    <EXPORT ORDINAL="2547" NAME="?MoveToPosStmt@COfdListPosStmt@@QAEXABVCOfdPosStmt@@@Z" PURGE="4" COMMENT="" />
    <EXPORT ORDINAL="2548" NAME="?MoveToPrice@COfdListPrice@@QAEXABVCOfdPrice@@@Z" PURGE="4" COMMENT="" />
    <EXPORT ORDINAL="2549" NAME="?MoveToProduct@COfdListProduct@@QAEXABVCOfdProduct@@@Z" PURGE="4" COMMENT="" />
    <EXPORT ORDINAL="2550" NAME="?MoveToProj@COfdListProj@@QAEXABVCOfdProj@@@Z" PURGE="4" COMMENT="" />
    <EXPORT ORDINAL="2551" NAME="?MoveToProvFi@COfdListProvFi@@QAEXABVCOfdProvFi@@@Z" PURGE="4" COMMENT="" />
    <EXPORT ORDINAL="2552" NAME="?MoveToProvFiPay@COfdListProvFiPay@@QAEXABVCOfdProvFiPay@@@Z" PURGE="4" COMMENT="" />
    <EXPORT ORDINAL="2553" NAME="?MoveToSavGoal@COfdListSavGoal@@QAEXABVCOfdSavGoal@@@Z" PURGE="4" COMMENT="" />
    <EXPORT ORDINAL="2554" NAME="?MoveToSec@COfdListSec@@QAEXABVCOfdSec@@@Z" PURGE="4" COMMENT="" />
    <EXPORT ORDINAL="2555" NAME="?MoveToSoq@COfdListSoq@@QAEXABVCOfdSoq@@@Z" PURGE="4" COMMENT="" />
    <EXPORT ORDINAL="2556" NAME="?MoveToStmt@COfdListStmt@@QAEXABVCOfdStmt@@@Z" PURGE="4" COMMENT="" />
    <EXPORT ORDINAL="2557" NAME="?MoveToSvc@COfdListSvc@@QAEXABVCOfdSvc@@@Z" PURGE="4" COMMENT="" />
    <EXPORT ORDINAL="2558" NAME="?MoveToTaxline@COfdListTaxline@@QAEXABVCOfdTaxline@@@Z" PURGE="4" COMMENT="" />
    <EXPORT ORDINAL="2559" NAME="?MoveToTmi@COfdListTmi@@QAEXABVCOfdTmi@@@Z" PURGE="4" COMMENT="" />
    <EXPORT ORDINAL="2560" NAME="?MoveToTrip@COfdListTrip@@QAEXABVCOfdTrip@@@Z" PURGE="4" COMMENT="" />
    <EXPORT ORDINAL="2561" NAME="?MoveToTrn@COfdListSplit@@QAEXABVCOfdTrn@@@Z" PURGE="4" COMMENT="" />
    <EXPORT ORDINAL="2562" NAME="?MoveToTrn@COfdListTrn@@QAEXABVCOfdTrn@@@Z" PURGE="4" COMMENT="" />
    <EXPORT ORDINAL="2563" NAME="?MoveToTrn@COfdListTrnPmts@@QAEXABVCOfdTrn@@@Z" PURGE="4" COMMENT="" />
    <EXPORT ORDINAL="2564" NAME="?MoveToTxsrc@COfdListTxsrc@@QAEXABVCOfdTxsrc@@@Z" PURGE="4" COMMENT="" />
    <EXPORT ORDINAL="2565" NAME="?MoveToUie@COfdListUie@@QAEXABVCOfdUie@@@Z" PURGE="4" COMMENT="" />
    <EXPORT ORDINAL="2566" NAME="?MoveToUnote@COfdListUnote@@QAEXABVCOfdUnote@@@Z" PURGE="4" COMMENT="" />
    <EXPORT ORDINAL="2567" NAME="?MoveToView@COfdListView@@QAEXABVCOfdView@@@Z" PURGE="4" COMMENT="" />
    <EXPORT ORDINAL="2568" NAME="?MoveToXbag@COfdListXbag@@QAEXABVCOfdXbag@@@Z" PURGE="4" COMMENT="" />
    <EXPORT ORDINAL="2569" NAME="?MsCommitRetryGet@COfdFile@@QBEJXZ" PURGE="0" COMMENT="" />
    <EXPORT ORDINAL="2570" NAME="?MsCommitTimeoutGet@COfdFile@@QBEJXZ" PURGE="0" COMMENT="" />
    <EXPORT ORDINAL="2571" NAME="?MtGet@COfdMail@@QBE?AW4__MIDL___MIDL_itf_iofd_0181_0002@@XZ" PURGE="0" COMMENT="" />
    <EXPORT ORDINAL="2572" NAME="?NLevelGet@COfdCat@@QBEJXZ" PURGE="0" COMMENT="" />
    <EXPORT ORDINAL="2573" NAME="?NYearGet@COfdAuto@@QBEJXZ" PURGE="0" COMMENT="" />
    <EXPORT ORDINAL="2574" NAME="?Notify@COfdNotifyEngine@@UAGJPAUIOfdEngine@@W4__MIDL___MIDL_itf_iofd_0242_0003@@JJ@Z" PURGE="20" COMMENT="" />
    <EXPORT ORDINAL="2575" NAME="?Notify@COfdNotifyList@@UAGJPAUIOfdList@@FJJJJJ@Z" PURGE="32" COMMENT="" />
    <EXPORT ORDINAL="2576" NAME="?Notify@COfdNotifyPool@@UAGJPAUIOfdPool@@FJJJJ@Z" PURGE="28" COMMENT="" />
    <EXPORT ORDINAL="2577" NAME="?NotifyEngineGet@COfdEngine@@QBEPAUIOfdNotifyEngine@@XZ" PURGE="0" COMMENT="" />
    <EXPORT ORDINAL="2578" NAME="?NotifyFileGet@COfdFile@@QBEPAUIOfdNotifyFile@@XZ" PURGE="0" COMMENT="" />
    <EXPORT ORDINAL="2579" NAME="?NotifyListGet@COfdList@@QBEPAUIOfdNotifyList@@XZ" PURGE="0" COMMENT="" />
    <EXPORT ORDINAL="2580" NAME="?NotifyPool@COfdNotifyFile@@UAGJPAUIOfdFile@@FJJJJ@Z" PURGE="28" COMMENT="" />
    <EXPORT ORDINAL="2581" NAME="?NotifyPoolGet@COfdPool@@QBEPAUIOfdNotifyPool@@XZ" PURGE="0" COMMENT="" />
    <EXPORT ORDINAL="2582" NAME="?NotifyProperty@COfdNotifyFile@@UAGJPAUIOfdFile@@FJJJ@Z" PURGE="24" COMMENT="" />
    <EXPORT ORDINAL="2583" NAME="?NtGet@COfdUnote@@QBE?AW4__MIDL___MIDL_itf_iofd_0255_0002@@XZ" PURGE="0" COMMENT="" />
    <EXPORT ORDINAL="2584" NAME="?ObjCurGet@COfdList@@QBE?AVCOfdObject@@XZ" PURGE="4" COMMENT="" />
    <EXPORT ORDINAL="2585" NAME="?ObjFldGet@COfdList@@QBE?AVCOfdObject@@J@Z" PURGE="8" COMMENT="" />
    <EXPORT ORDINAL="2586" NAME="?ObjFldGet@COfdListDel@@QBE?AVCOfdObject@@J@Z" PURGE="8" COMMENT="" />
    <EXPORT ORDINAL="2587" NAME="?ObjFldGet@COfdListLotTrn@@QBE?AVCOfdObject@@J@Z" PURGE="8" COMMENT="" />
    <EXPORT ORDINAL="2588" NAME="?ObjFldGet@COfdListSplit@@QBE?AVCOfdObject@@J@Z" PURGE="8" COMMENT="" />
    <EXPORT ORDINAL="2589" NAME="?ObjFldGet@COfdListTrnPmts@@QBE?AVCOfdObject@@J@Z" PURGE="8" COMMENT="" />
    <EXPORT ORDINAL="2590" NAME="?ObjFldGet@COfdObject@@QBE?AV1@J@Z" PURGE="8" COMMENT="" />
    <EXPORT ORDINAL="2591" NAME="?ObjTypeInfoGet@COfdCrit@@QBEXPAHPAJ@Z" PURGE="8" COMMENT="" />
    <EXPORT ORDINAL="2592" NAME="?ObjValueGet@COfdCrit@@QBE?AVCOfdObject@@XZ" PURGE="4" COMMENT="" />
    <EXPORT ORDINAL="2593" NAME="?ObjXbagFldGet@COfdCat@@QBE?AVCOfdObject@@JW4__MIDL___MIDL_itf_iofd_0249_0002@@@Z" PURGE="12" COMMENT="" />
    <EXPORT ORDINAL="2594" NAME="?ObjXbagFldGet@COfdListBill@@QBE?AVCOfdObject@@JW4__MIDL___MIDL_itf_iofd_0249_0002@@@Z" PURGE="12" COMMENT="" />
    <EXPORT ORDINAL="2595" NAME="?ObjXbagFldGet@COfdListCat@@QBE?AVCOfdObject@@JW4__MIDL___MIDL_itf_iofd_0249_0002@@@Z" PURGE="12" COMMENT="" />
    <EXPORT ORDINAL="2596" NAME="?ObjXbagFldGet@COfdListTrn@@QBE?AVCOfdObject@@JW4__MIDL___MIDL_itf_iofd_0249_0002@@@Z" PURGE="12" COMMENT="" />
    <EXPORT ORDINAL="2597" NAME="?ObjXbagFldGet@COfdTrnBase@@QBE?AVCOfdObject@@JW4__MIDL___MIDL_itf_iofd_0249_0002@@@Z" PURGE="12" COMMENT="" />
    <EXPORT ORDINAL="2598" NAME="?OlatGet@COfdSvc@@QBE?AW4__MIDL___MIDL_itf_iofd_0121_0005@@XZ" PURGE="0" COMMENT="" />
    <EXPORT ORDINAL="2599" NAME="?OlatHintGet@COfdAcct@@QBE?AW4__MIDL___MIDL_itf_iofd_0121_0005@@XZ" PURGE="0" COMMENT="" />
    <EXPORT ORDINAL="2600" NAME="?OldtGet@COfdProvFi@@QBE?AW4__MIDL___MIDL_itf_iofd_0157_0003@@XZ" PURGE="0" COMMENT="" />
    <EXPORT ORDINAL="2601" NAME="?OlidMacGet@COfdFile@@QBEJXZ" PURGE="0" COMMENT="" />
    <EXPORT ORDINAL="2602" NAME="?OlstGet@COfdTrnBase@@QBE?AW4__MIDL___MIDL_itf_iofd_0137_0012@@XZ" PURGE="0" COMMENT="" />
    <EXPORT ORDINAL="2603" NAME="?OlttGet@COfdStmt@@QBE?AW4__MIDL___MIDL_itf_iofd_0137_0011@@XZ" PURGE="0" COMMENT="" />
    <EXPORT ORDINAL="2604" NAME="?OlttGet@COfdTrnBase@@QBE?AW4__MIDL___MIDL_itf_iofd_0137_0011@@XZ" PURGE="0" COMMENT="" />
    <EXPORT ORDINAL="2605" NAME="?OnInterfaceChange@COfdList@@UAEXXZ" PURGE="-1" COMMENT="" />
    <EXPORT ORDINAL="2606" NAME="?OnInterfaceChange@COfdObject@@UAEXXZ" PURGE="-1" COMMENT="" />
    <EXPORT ORDINAL="2607" NAME="?OnInterfaceChange@COfdOleObject@@UAEXXZ" PURGE="0" COMMENT="" />
    <EXPORT ORDINAL="2608" NAME="?OnInterfaceChange@COfdPool@@UAEXXZ" PURGE="-1" COMMENT="" />
    <EXPORT ORDINAL="2609" NAME="?OperGet@COfdCrit@@QAE?AW4__MIDL___MIDL_itf_iofd_0112_0001@@XZ" PURGE="0" COMMENT="" />
    <EXPORT ORDINAL="2610" NAME="?Pack@COfdListCrit@@QAEXXZ" PURGE="0" COMMENT="" />
    <EXPORT ORDINAL="2611" NAME="?PayCurGet@COfdListPay@@QBE?AVCOfdPay@@XZ" PURGE="4" COMMENT="" />
    <EXPORT ORDINAL="2612" NAME="?PayGet@COfdProvFiPay@@QBE?AVCOfdPay@@XZ" PURGE="4" COMMENT="" />
    <EXPORT ORDINAL="2613" NAME="?PayGet@COfdTmi@@QBE?AVCOfdPay@@XZ" PURGE="4" COMMENT="" />
    <EXPORT ORDINAL="2614" NAME="?PayGet@COfdTrnBase@@QBE?AVCOfdPay@@XZ" PURGE="4" COMMENT="" />
    <EXPORT ORDINAL="2615" NAME="?PayParentGet@COfdPay@@QBE?AV1@XZ" PURGE="4" COMMENT="" />
    <EXPORT ORDINAL="2616" NAME="?PaytGet@COfdTrnBase@@QBE?AW4__MIDL___MIDL_itf_iofd_0137_0017@@XZ" PURGE="0" COMMENT="" />
    <EXPORT ORDINAL="2617" NAME="?PerformInvCalcs@COfdTrnCalcs@@QAEXW4__MIDL___MIDL_itf_iofd_0206_0001@@@Z" PURGE="4" COMMENT="" />
    <EXPORT ORDINAL="2618" NAME="?PgcGet@COfdPgm@@QBE?AW4__MIDL___MIDL_itf_iofd_0230_0003@@XZ" PURGE="0" COMMENT="" />
    <EXPORT ORDINAL="2619" NAME="?PgmCurGet@COfdListPgm@@QBE?AVCOfdPgm@@XZ" PURGE="4" COMMENT="" />
    <EXPORT ORDINAL="2620" NAME="?PgmGet@COfdAwd@@QBE?AVCOfdPgm@@XZ" PURGE="4" COMMENT="" />
    <EXPORT ORDINAL="2621" NAME="?PgmtGet@COfdPgm@@QBE?AW4__MIDL___MIDL_itf_iofd_0230_0002@@XZ" PURGE="0" COMMENT="" />
    <EXPORT ORDINAL="2622" NAME="?PmtCurGet@COfdListPmt@@QBE?AVCOfdPmt@@XZ" PURGE="4" COMMENT="" />
    <EXPORT ORDINAL="2623" NAME="?PmttGet@COfdProvFiPay@@QBE?AW4__MIDL___MIDL_itf_iofd_0172_0001@@XZ" PURGE="0" COMMENT="" />
    <EXPORT ORDINAL="2624" NAME="?PoolAcctOpen@COfdFile@@QBE?AVCOfdPoolAcct@@XZ" PURGE="4" COMMENT="" />
    <EXPORT ORDINAL="2625" NAME="?PoolAdvOpen@COfdFile@@QBE?AVCOfdPoolAdv@@XZ" PURGE="4" COMMENT="" />
    <EXPORT ORDINAL="2626" NAME="?PoolAutoOpen@COfdFile@@QBE?AVCOfdPoolAuto@@XZ" PURGE="4" COMMENT="" />
    <EXPORT ORDINAL="2627" NAME="?PoolAwdOpen@COfdFile@@QBE?AVCOfdPoolAwd@@XZ" PURGE="4" COMMENT="" />
    <EXPORT ORDINAL="2628" NAME="?PoolBgtBktOpen@COfdFile@@QBE?AVCOfdPoolBgtBkt@@XZ" PURGE="4" COMMENT="" />
    <EXPORT ORDINAL="2629" NAME="?PoolBgtItmOpen@COfdFile@@QBE?AVCOfdPoolBgtItm@@XZ" PURGE="4" COMMENT="" />
    <EXPORT ORDINAL="2630" NAME="?PoolBgtOpen@COfdFile@@QBE?AVCOfdPoolBgt@@XZ" PURGE="4" COMMENT="" />
    <EXPORT ORDINAL="2631" NAME="?PoolBillOpen@COfdFile@@QBE?AVCOfdPoolBill@@XZ" PURGE="4" COMMENT="" />
    <EXPORT ORDINAL="2632" NAME="?PoolCatOpen@COfdFile@@QBE?AVCOfdPoolCat@@XZ" PURGE="4" COMMENT="" />
    <EXPORT ORDINAL="2633" NAME="?PoolCntryOpen@COfdFile@@QBE?AVCOfdPoolCntry@@XZ" PURGE="4" COMMENT="" />
    <EXPORT ORDINAL="2634" NAME="?PoolCrncOpen@COfdFile@@QBE?AVCOfdPoolCrnc@@XZ" PURGE="4" COMMENT="" />
    <EXPORT ORDINAL="2635" NAME="?PoolCtOpen@COfdFile@@QBE?AVCOfdPoolCt@@XZ" PURGE="4" COMMENT="" />
    <EXPORT ORDINAL="2636" NAME="?PoolCustomOpen@COfdFile@@QBE?AVCOfdPoolCustom@@J@Z" PURGE="8" COMMENT="" />
    <EXPORT ORDINAL="2637" NAME="?PoolFiOpen@COfdFile@@QBE?AVCOfdPoolFi@@XZ" PURGE="4" COMMENT="" />
    <EXPORT ORDINAL="2638" NAME="?PoolIvtyOpen@COfdFile@@QBE?AVCOfdPoolIvty@@XZ" PURGE="4" COMMENT="" />
    <EXPORT ORDINAL="2639" NAME="?PoolLotOpen@COfdFile@@QBE?AVCOfdPoolLot@@XZ" PURGE="4" COMMENT="" />
    <EXPORT ORDINAL="2640" NAME="?PoolMailOpen@COfdFile@@QBE?AVCOfdPoolMail@@XZ" PURGE="4" COMMENT="" />
    <EXPORT ORDINAL="2641" NAME="?PoolOpen@COfdFile@@QBE?AVCOfdPool@@J@Z" PURGE="8" COMMENT="" />
    <EXPORT ORDINAL="2642" NAME="?PoolPayOpen@COfdFile@@QBE?AVCOfdPoolPay@@XZ" PURGE="4" COMMENT="" />
    <EXPORT ORDINAL="2643" NAME="?PoolPgmOpen@COfdFile@@QBE?AVCOfdPoolPgm@@XZ" PURGE="4" COMMENT="" />
    <EXPORT ORDINAL="2644" NAME="?PoolPmtOpen@COfdFile@@QBE?AVCOfdPoolPmt@@XZ" PURGE="4" COMMENT="" />
    <EXPORT ORDINAL="2645" NAME="?PoolPortRecOpen@COfdFile@@QBE?AVCOfdPoolPortRec@@XZ" PURGE="4" COMMENT="" />
    <EXPORT ORDINAL="2646" NAME="?PoolPosStmtOpen@COfdFile@@QBE?AVCOfdPoolPosStmt@@XZ" PURGE="4" COMMENT="" />
    <EXPORT ORDINAL="2647" NAME="?PoolPriceOpen@COfdFile@@QBE?AVCOfdPoolPrice@@XZ" PURGE="4" COMMENT="" />
    <EXPORT ORDINAL="2648" NAME="?PoolProductOpen@COfdFile@@QBE?AVCOfdPoolProduct@@XZ" PURGE="4" COMMENT="" />
    <EXPORT ORDINAL="2649" NAME="?PoolProjOpen@COfdFile@@QBE?AVCOfdPoolProj@@XZ" PURGE="4" COMMENT="" />
    <EXPORT ORDINAL="2650" NAME="?PoolProvFiOpen@COfdFile@@QBE?AVCOfdPoolProvFi@@XZ" PURGE="4" COMMENT="" />
    <EXPORT ORDINAL="2651" NAME="?PoolProvFiPayOpen@COfdFile@@QBE?AVCOfdPoolProvFiPay@@XZ" PURGE="4" COMMENT="" />
    <EXPORT ORDINAL="2652" NAME="?PoolSavGoalOpen@COfdFile@@QBE?AVCOfdPoolSavGoal@@XZ" PURGE="4" COMMENT="" />
    <EXPORT ORDINAL="2653" NAME="?PoolSecOpen@COfdFile@@QBE?AVCOfdPoolSec@@XZ" PURGE="4" COMMENT="" />
    <EXPORT ORDINAL="2654" NAME="?PoolSoqOpen@COfdFile@@QBE?AVCOfdPoolSoq@@XZ" PURGE="4" COMMENT="" />
    <EXPORT ORDINAL="2655" NAME="?PoolStmtOpen@COfdFile@@QBE?AVCOfdPoolStmt@@XZ" PURGE="4" COMMENT="" />
    <EXPORT ORDINAL="2656" NAME="?PoolSvcOpen@COfdFile@@QBE?AVCOfdPoolSvc@@XZ" PURGE="4" COMMENT="" />
    <EXPORT ORDINAL="2657" NAME="?PoolTaxlineOpen@COfdFile@@QBE?AVCOfdPoolTaxline@@XZ" PURGE="4" COMMENT="" />
    <EXPORT ORDINAL="2658" NAME="?PoolTmiOpen@COfdFile@@QBE?AVCOfdPoolTmi@@XZ" PURGE="4" COMMENT="" />
    <EXPORT ORDINAL="2659" NAME="?PoolTripOpen@COfdFile@@QBE?AVCOfdPoolTrip@@XZ" PURGE="4" COMMENT="" />
    <EXPORT ORDINAL="2660" NAME="?PoolTrnOpen@COfdFile@@QBE?AVCOfdPoolTrn@@XZ" PURGE="4" COMMENT="" />
    <EXPORT ORDINAL="2661" NAME="?PoolTxsrcOpen@COfdFile@@QBE?AVCOfdPoolTxsrc@@XZ" PURGE="4" COMMENT="" />
    <EXPORT ORDINAL="2662" NAME="?PoolUieOpen@COfdFile@@QBE?AVCOfdPoolUie@@XZ" PURGE="4" COMMENT="" />
    <EXPORT ORDINAL="2663" NAME="?PoolUnoteOpen@COfdFile@@QBE?AVCOfdPoolUnote@@XZ" PURGE="4" COMMENT="" />
    <EXPORT ORDINAL="2664" NAME="?PoolViewOpen@COfdFile@@QBE?AVCOfdPoolView@@XZ" PURGE="4" COMMENT="" />
    <EXPORT ORDINAL="2665" NAME="?PoolXbagOpen@COfdFile@@QBE?AVCOfdPoolXbag@@XZ" PURGE="4" COMMENT="" />
    <EXPORT ORDINAL="2666" NAME="?PortRecCurGet@COfdListPortRec@@QBE?AVCOfdPortRec@@XZ" PURGE="4" COMMENT="" />
    <EXPORT ORDINAL="2667" NAME="?PosCurGet@COfdListCrit@@QBEJXZ" PURGE="0" COMMENT="" />
    <EXPORT ORDINAL="2668" NAME="?PosGet@COfdUie@@QBEJXZ" PURGE="0" COMMENT="" />
    <EXPORT ORDINAL="2669" NAME="?PosIdFromHacct@COfdSec@@QBEJJ@Z" PURGE="4" COMMENT="" />
    <EXPORT ORDINAL="2670" NAME="?PosStmtCurGet@COfdListPosStmt@@QBE?AVCOfdPosStmt@@XZ" PURGE="4" COMMENT="" />
    <EXPORT ORDINAL="2671" NAME="?PriceCurGet@COfdListPrice@@QBE?AVCOfdPrice@@XZ" PURGE="4" COMMENT="" />
    <EXPORT ORDINAL="2672" NAME="?ProcessMCNotifications@COfdFile@@QAEXXZ" PURGE="0" COMMENT="" />
    <EXPORT ORDINAL="2673" NAME="?ProdGet@COfdIvty@@QBE?AVCOfdProduct@@XZ" PURGE="4" COMMENT="" />
    <EXPORT ORDINAL="2674" NAME="?ProductCurGet@COfdListProduct@@QBE?AVCOfdProduct@@XZ" PURGE="4" COMMENT="" />
    <EXPORT ORDINAL="2675" NAME="?ProductGet@COfdTmi@@QBE?AVCOfdProduct@@XZ" PURGE="4" COMMENT="" />
    <EXPORT ORDINAL="2676" NAME="?ProductGet@COfdTrnBase@@QBE?AVCOfdProduct@@XZ" PURGE="4" COMMENT="" />
    <EXPORT ORDINAL="2677" NAME="?ProjCurGet@COfdListProj@@QBE?AVCOfdProj@@XZ" PURGE="4" COMMENT="" />
    <EXPORT ORDINAL="2678" NAME="?ProjGet@COfdTrnBase@@QAE?AVCOfdProj@@XZ" PURGE="4" COMMENT="" />
    <EXPORT ORDINAL="2679" NAME="?ProvFiCurGet@COfdListProvFi@@QBE?AVCOfdProvFi@@XZ" PURGE="4" COMMENT="" />
    <EXPORT ORDINAL="2680" NAME="?ProvFiGet@COfdProvFiPay@@QBE?AVCOfdProvFi@@XZ" PURGE="4" COMMENT="" />
    <EXPORT ORDINAL="2681" NAME="?ProvFiGet@COfdSvc@@QBE?AVCOfdProvFi@@XZ" PURGE="4" COMMENT="" />
    <EXPORT ORDINAL="2682" NAME="?ProvFiPayCurGet@COfdListProvFiPay@@QBE?AVCOfdProvFiPay@@XZ" PURGE="4" COMMENT="" />
    <EXPORT ORDINAL="2683" NAME="?PsGet@COfdTrnBase@@QBE?AW4__MIDL___MIDL_itf_iofd_0137_0010@@XZ" PURGE="0" COMMENT="" />
    <EXPORT ORDINAL="2684" NAME="?Ptr@COfdTsz@@QBEPBDXZ" PURGE="0" COMMENT="" />
    <EXPORT ORDINAL="2685" NAME="?PurgeCeoidMapping@COfdFile@@QAEXXZ" PURGE="0" COMMENT="" />
    <EXPORT ORDINAL="2686" NAME="?PushFilterOper@COfdList@@QAEXW4__MIDL___MIDL_itf_iofd_0112_0001@@H@Z" PURGE="8" COMMENT="" />
    <EXPORT ORDINAL="2687" NAME="?PushFilterOper@COfdView@@QAEXW4__MIDL___MIDL_itf_iofd_0112_0001@@H@Z" PURGE="8" COMMENT="" />
    <EXPORT ORDINAL="2688" NAME="?PutExchangeRate@COfdCrnc@@QAEXABV1@NNH@Z" PURGE="24" COMMENT="" />
    <EXPORT ORDINAL="2689" NAME="?PutSicCat@COfdPoolCat@@QAEXJABVCOfdCat@@@Z" PURGE="8" COMMENT="" />
    <EXPORT ORDINAL="2690" NAME="?PutSzExchgSymbol@COfdCrnc@@QAEXABV1@PBD@Z" PURGE="8" COMMENT="" />
    <EXPORT ORDINAL="2691" NAME="?QtyAvailableCurGet@COfdListLotTrn@@QBENXZ" PURGE="0" COMMENT="" />
    <EXPORT ORDINAL="2692" NAME="?QtyClosedCurGet@COfdListLotTrn@@QBENXZ" PURGE="0" COMMENT="" />
    <EXPORT ORDINAL="2693" NAME="?QtyGet@COfdBrkStmt@@QBE?AVCOfdDouble@@XZ" PURGE="4" COMMENT="" />
    <EXPORT ORDINAL="2694" NAME="?QtyGet@COfdLot@@QBE?AVCOfdDouble@@XZ" PURGE="4" COMMENT="" />
    <EXPORT ORDINAL="2695" NAME="?QtyGet@COfdPosStmt@@QBE?AVCOfdDouble@@XZ" PURGE="4" COMMENT="" />
    <EXPORT ORDINAL="2696" NAME="?QtyGet@COfdTrnBase@@QBE?AVCOfdDouble@@XZ" PURGE="4" COMMENT="" />
    <EXPORT ORDINAL="2697" NAME="?QtyProdGet@COfdTrnBase@@QBE?AVCOfdDouble@@XZ" PURGE="4" COMMENT="" />
    <EXPORT ORDINAL="2698" NAME="?QueryInterface@COfdNotifyEngine@@UAGJABU_GUID@@PAPAX@Z" PURGE="12" COMMENT="" />
    <EXPORT ORDINAL="2699" NAME="?QueryInterface@COfdNotifyFile@@UAGJABU_GUID@@PAPAX@Z" PURGE="12" COMMENT="" />
    <EXPORT ORDINAL="2700" NAME="?QueryInterface@COfdNotifyList@@UAGJABU_GUID@@PAPAX@Z" PURGE="12" COMMENT="" />
    <EXPORT ORDINAL="2701" NAME="?QueryInterface@COfdNotifyPool@@UAGJABU_GUID@@PAPAX@Z" PURGE="12" COMMENT="" />
    <EXPORT ORDINAL="2702" NAME="?RateAPRGet@COfdAcct@@QBE?AVCOfdDouble@@XZ" PURGE="4" COMMENT="" />
    <EXPORT ORDINAL="2703" NAME="?RateCalcGet@COfdAcct@@QBE?AVCOfdDouble@@XZ" PURGE="4" COMMENT="" />
    <EXPORT ORDINAL="2704" NAME="?RateUserGet@COfdAcct@@QBE?AVCOfdDouble@@XZ" PURGE="4" COMMENT="" />
    <EXPORT ORDINAL="2705" NAME="?RatingGet@COfdSec@@QBE?AW4__MIDL___MIDL_itf_iofd_0147_0004@@XZ" PURGE="0" COMMENT="" />
    <EXPORT ORDINAL="2706" NAME="?RdrGet@COfdAcct@@QBE?AW4__MIDL___MIDL_itf_iofd_0121_0010@@XZ" PURGE="0" COMMENT="" />
    <EXPORT ORDINAL="2707" NAME="?Refresh@COfdObject@@QAEXXZ" PURGE="0" COMMENT="" />
    <EXPORT ORDINAL="2708" NAME="?RelateFieldToPool@COfdPool@@QAEXJHABV1@@Z" PURGE="12" COMMENT="" />
    <EXPORT ORDINAL="2709" NAME="?Release@COfdNotifyEngine@@UAGKXZ" PURGE="4" COMMENT="" />
    <EXPORT ORDINAL="2710" NAME="?Release@COfdNotifyFile@@UAGKXZ" PURGE="4" COMMENT="" />
    <EXPORT ORDINAL="2711" NAME="?Release@COfdNotifyList@@UAGKXZ" PURGE="4" COMMENT="" />
    <EXPORT ORDINAL="2712" NAME="?Release@COfdNotifyPool@@UAGKXZ" PURGE="4" COMMENT="" />
    <EXPORT ORDINAL="2713" NAME="?ReleaseThreadData@COfdException@@SAXXZ" PURGE="0" COMMENT="" />
    <EXPORT ORDINAL="2714" NAME="?RemapPayUsage@COfdPoolPay@@QAEXABVCOfdPay@@0@Z" PURGE="8" COMMENT="" />
    <EXPORT ORDINAL="2715" NAME="?RemapSecUsage@COfdPoolSec@@QAEXABVCOfdSec@@0@Z" PURGE="8" COMMENT="" />
    <EXPORT ORDINAL="2716" NAME="?Remove@COfdListSplit@@QAEXXZ" PURGE="0" COMMENT="" />
    <EXPORT ORDINAL="2717" NAME="?RemoveAll@COfdListDel@@QAEXXZ" PURGE="0" COMMENT="" />
    <EXPORT ORDINAL="2718" NAME="?RemoveAllSatMappings@COfdPoolSec@@QAEXXZ" PURGE="0" COMMENT="" />
    <EXPORT ORDINAL="2719" NAME="?RepairFile@COfdEngine@@QAEXPBD00@Z" PURGE="12" COMMENT="" />
    <EXPORT ORDINAL="2720" NAME="?ReplicatePassword@COfdFile@@QAEXQBD@Z" PURGE="4" COMMENT="" />
    <EXPORT ORDINAL="2721" NAME="?ResetSelection@COfdList@@QAEXH@Z" PURGE="4" COMMENT="" />
    <EXPORT ORDINAL="2722" NAME="?RgbAnonAcctGet@COfdSvc@@QBE?AVCOfdBuffer@@XZ" PURGE="4" COMMENT="" />
    <EXPORT ORDINAL="2723" NAME="?RgbAnonGet@COfdProvFiPay@@QBE?AVCOfdBuffer@@XZ" PURGE="4" COMMENT="" />
    <EXPORT ORDINAL="2724" NAME="?RgbCallSummGet@COfdProvFi@@QBE?AVCOfdBuffer@@XZ" PURGE="4" COMMENT="" />
    <EXPORT ORDINAL="2725" NAME="?RgbEntryIdGet@COfdPay@@QBE?AVCOfdBuffer@@XZ" PURGE="4" COMMENT="" />
    <EXPORT ORDINAL="2726" NAME="?RgbFilePropGet@COfdFile@@QBE?AVCOfdBuffer@@J@Z" PURGE="8" COMMENT="" />
    <EXPORT ORDINAL="2727" NAME="?RgbFldGet@COfdList@@QBE?AVCOfdBuffer@@J@Z" PURGE="8" COMMENT="" />
    <EXPORT ORDINAL="2728" NAME="?RgbFldGet@COfdListDel@@QBE?AVCOfdBuffer@@J@Z" PURGE="8" COMMENT="" />
    <EXPORT ORDINAL="2729" NAME="?RgbFldGet@COfdListLotTrn@@QBE?AVCOfdBuffer@@J@Z" PURGE="8" COMMENT="" />
    <EXPORT ORDINAL="2730" NAME="?RgbFldGet@COfdListSplit@@QBE?AVCOfdBuffer@@J@Z" PURGE="8" COMMENT="" />
    <EXPORT ORDINAL="2731" NAME="?RgbFldGet@COfdListTrnPmts@@QBE?AVCOfdBuffer@@J@Z" PURGE="8" COMMENT="" />
    <EXPORT ORDINAL="2732" NAME="?RgbFldGet@COfdObject@@QBE?AVCOfdBuffer@@J@Z" PURGE="8" COMMENT="" />
    <EXPORT ORDINAL="2733" NAME="?RgbFormatGet@COfdCrnc@@IBE?AVCOfdBuffer@@XZ" PURGE="4" COMMENT="" />
    <EXPORT ORDINAL="2734" NAME="?RgbHbillMap02Get@COfdFile@@QBE?AVCOfdBuffer@@XZ" PURGE="4" COMMENT="" />
    <EXPORT ORDINAL="2735" NAME="?RgbLogoLGet@COfdProvFi@@QBE?AVCOfdBuffer@@XZ" PURGE="4" COMMENT="" />
    <EXPORT ORDINAL="2736" NAME="?RgbLogoSGet@COfdProvFi@@QBE?AVCOfdBuffer@@XZ" PURGE="4" COMMENT="" />
    <EXPORT ORDINAL="2737" NAME="?RgbMemosGet@COfdPay@@QBE?AVCOfdBuffer@@XZ" PURGE="4" COMMENT="" />
    <EXPORT ORDINAL="2738" NAME="?RgbPcaGet@COfdProvFi@@QBE?AVCOfdBuffer@@XZ" PURGE="4" COMMENT="" />
    <EXPORT ORDINAL="2739" NAME="?RgbReceiveFileBackupGet@COfdProvFi@@QBE?AVCOfdBuffer@@XZ" PURGE="4" COMMENT="" />
    <EXPORT ORDINAL="2740" NAME="?RgbSendFileBackupGet@COfdProvFi@@QBE?AVCOfdBuffer@@XZ" PURGE="4" COMMENT="" />
    <EXPORT ORDINAL="2741" NAME="?RgbTermsGet@COfdPgm@@QBE?AVCOfdBuffer@@XZ" PURGE="4" COMMENT="" />
    <EXPORT ORDINAL="2742" NAME="?RollbackTrans@COfdEngine@@QAEXXZ" PURGE="0" COMMENT="" />
    <EXPORT ORDINAL="2743" NAME="?RtGet@COfdTrnBase@@QBE?AW4__MIDL___MIDL_itf_iofd_0137_0009@@XZ" PURGE="0" COMMENT="" />
    <EXPORT ORDINAL="2744" NAME="?RttGet@COfdAcct@@QBE?AW4__MIDL___MIDL_itf_iofd_0121_0011@@XZ" PURGE="0" COMMENT="" />
    <EXPORT ORDINAL="2745" NAME="?SalvageFile@COfdEngine@@QAEXPBD000KH@Z" PURGE="24" COMMENT="" />
    <EXPORT ORDINAL="2746" NAME="?SatFromName@COfdPoolSec@@QAE?AW4__MIDL___MIDL_itf_iofd_0147_0002@@PBD@Z" PURGE="4" COMMENT="" />
    <EXPORT ORDINAL="2747" NAME="?SatGet@COfdSec@@QBE?AW4__MIDL___MIDL_itf_iofd_0147_0002@@XZ" PURGE="0" COMMENT="" />
    <EXPORT ORDINAL="2748" NAME="?SavGoalCurGet@COfdListSavGoal@@QBE?AVCOfdSavGoal@@XZ" PURGE="4" COMMENT="" />
    <EXPORT ORDINAL="2749" NAME="?SctGet@COfdBrkStmt@@QBE?AW4__MIDL___MIDL_itf_iofd_0147_0001@@XZ" PURGE="0" COMMENT="" />
    <EXPORT ORDINAL="2750" NAME="?SctGet@COfdPosStmt@@QBE?AW4__MIDL___MIDL_itf_iofd_0147_0001@@XZ" PURGE="0" COMMENT="" />
    <EXPORT ORDINAL="2751" NAME="?SctGet@COfdSec@@QBE?AW4__MIDL___MIDL_itf_iofd_0147_0001@@XZ" PURGE="0" COMMENT="" />
    <EXPORT ORDINAL="2752" NAME="?SctsubGet@COfdSec@@QBE?AW4__MIDL___MIDL_itf_iofd_0147_0003@@XZ" PURGE="0" COMMENT="" />
    <EXPORT ORDINAL="2753" NAME="?SecCurGet@COfdListSec@@QBE?AVCOfdSec@@XZ" PURGE="4" COMMENT="" />
    <EXPORT ORDINAL="2754" NAME="?SecGet@COfdLot@@QBE?AVCOfdSec@@XZ" PURGE="4" COMMENT="" />
    <EXPORT ORDINAL="2755" NAME="?SecGet@COfdPortRec@@QBE?AVCOfdSec@@XZ" PURGE="4" COMMENT="" />
    <EXPORT ORDINAL="2756" NAME="?SecGet@COfdPrice@@QBE?AVCOfdSec@@XZ" PURGE="4" COMMENT="" />
    <EXPORT ORDINAL="2757" NAME="?SecGet@COfdSoq@@QBE?AVCOfdSec@@XZ" PURGE="4" COMMENT="" />
    <EXPORT ORDINAL="2758" NAME="?SecGet@COfdTrnBase@@QBE?AVCOfdSec@@XZ" PURGE="4" COMMENT="" />
    <EXPORT ORDINAL="2759" NAME="?SecLinkGet@COfdSec@@QBE?AV1@XZ" PURGE="4" COMMENT="" />
    <EXPORT ORDINAL="2760" NAME="?SetAat@COfdFi@@QAEXW4__MIDL___MIDL_itf_iofd_0158_0001@@@Z" PURGE="4" COMMENT="" />
    <EXPORT ORDINAL="2761" NAME="?SetAcct@COfdMail@@QAEXABVCOfdAcct@@@Z" PURGE="4" COMMENT="" />
    <EXPORT ORDINAL="2762" NAME="?SetAcct@COfdPortRec@@QAEXABVCOfdAcct@@@Z" PURGE="4" COMMENT="" />
    <EXPORT ORDINAL="2763" NAME="?SetAcct@COfdPosStmt@@QAEXABVCOfdAcct@@@Z" PURGE="4" COMMENT="" />
    <EXPORT ORDINAL="2764" NAME="?SetAcct@COfdSoq@@QAEXABVCOfdAcct@@@Z" PURGE="4" COMMENT="" />
    <EXPORT ORDINAL="2765" NAME="?SetAcct@COfdStmt@@QAEXABVCOfdAcct@@@Z" PURGE="4" COMMENT="" />
    <EXPORT ORDINAL="2766" NAME="?SetAcct@COfdSvc@@QAEXABVCOfdAcct@@@Z" PURGE="4" COMMENT="" />
    <EXPORT ORDINAL="2767" NAME="?SetAcct@COfdTrnBase@@QAEXABVCOfdAcct@@@Z" PURGE="4" COMMENT="" />
    <EXPORT ORDINAL="2768" NAME="?SetAcctLink@COfdTrnBase@@QAEXABVCOfdAcct@@@Z" PURGE="4" COMMENT="" />
    <EXPORT ORDINAL="2769" NAME="?SetAcctLoan@COfdLstep@@QAEXABVCOfdAcct@@@Z" PURGE="4" COMMENT="" />
    <EXPORT ORDINAL="2770" NAME="?SetAcctRel@COfdAcct@@QAEXABV1@@Z" PURGE="4" COMMENT="" />
    <EXPORT ORDINAL="2771" NAME="?SetAct@COfdBrkStmt@@QAEXW4__MIDL___MIDL_itf_iofd_0137_0015@@@Z" PURGE="4" COMMENT="" />
    <EXPORT ORDINAL="2772" NAME="?SetAct@COfdTrnBase@@QAEXW4__MIDL___MIDL_itf_iofd_0137_0015@@@Z" PURGE="4" COMMENT="" />
    <EXPORT ORDINAL="2773" NAME="?SetAddr@COfdAcct@@QAEXABVCOfdAddr@@@Z" PURGE="4" COMMENT="" />
    <EXPORT ORDINAL="2774" NAME="?SetAddr@COfdFi@@QAEXABVCOfdAddr@@@Z" PURGE="4" COMMENT="" />
    <EXPORT ORDINAL="2775" NAME="?SetAddr@COfdPay@@QAEXABVCOfdAddr@@@Z" PURGE="4" COMMENT="" />
    <EXPORT ORDINAL="2776" NAME="?SetAddr@COfdProvFi@@QAEXABVCOfdAddr@@@Z" PURGE="4" COMMENT="" />
    <EXPORT ORDINAL="2777" NAME="?SetAddr@COfdProvFiPay@@QAEXABVCOfdAddr@@@Z" PURGE="4" COMMENT="" />
    <EXPORT ORDINAL="2778" NAME="?SetAddr@COfdStmt@@QAEXABVCOfdAddr@@@Z" PURGE="4" COMMENT="" />
    <EXPORT ORDINAL="2779" NAME="?SetAddrBill@COfdPay@@QAEXABVCOfdAddr@@@Z" PURGE="4" COMMENT="" />
    <EXPORT ORDINAL="2780" NAME="?SetAddrBill@COfdTrnBase@@QAEXABVCOfdAddr@@@Z" PURGE="4" COMMENT="" />
    <EXPORT ORDINAL="2781" NAME="?SetAddrEbppPay@COfdStmt@@QAEXABVCOfdAddr@@@Z" PURGE="4" COMMENT="" />
    <EXPORT ORDINAL="2782" NAME="?SetAddrPOL@COfdFi@@QAEXABVCOfdAddr@@@Z" PURGE="4" COMMENT="" />
    <EXPORT ORDINAL="2783" NAME="?SetAddrShip@COfdPay@@QAEXABVCOfdAddr@@@Z" PURGE="4" COMMENT="" />
    <EXPORT ORDINAL="2784" NAME="?SetAddrShip@COfdTrnBase@@QAEXABVCOfdAddr@@@Z" PURGE="4" COMMENT="" />
    <EXPORT ORDINAL="2785" NAME="?SetAmtPaidCur@COfdListTrnPmts@@QAEXABVCOfdCurrency@@@Z" PURGE="4" COMMENT="" />
    <EXPORT ORDINAL="2786" NAME="?SetAmtUnassigned@COfdListTrnPmts@@QAEXABVCOfdCurrency@@@Z" PURGE="4" COMMENT="" />
    <EXPORT ORDINAL="2787" NAME="?SetAmtUnassignedOther@COfdListTrnPmts@@QAEXABVCOfdCurrency@@@Z" PURGE="4" COMMENT="" />
    <EXPORT ORDINAL="2788" NAME="?SetAst@COfdAcct@@QAEXW4__MIDL___MIDL_itf_iofd_0121_0001@@@Z" PURGE="4" COMMENT="" />
    <EXPORT ORDINAL="2789" NAME="?SetAst@COfdFile@@QAEXW4__MIDL___MIDL_itf_iofd_0121_0001@@@Z" PURGE="4" COMMENT="" />
    <EXPORT ORDINAL="2790" NAME="?SetAt@COfdAcct@@QAEXW4__MIDL___MIDL_itf_iofd_0121_0002@@@Z" PURGE="4" COMMENT="" />
    <EXPORT ORDINAL="2791" NAME="?SetAtEbppPmtAt@COfdStmt@@QAEXW4__MIDL___MIDL_itf_iofd_0121_0002@@@Z" PURGE="4" COMMENT="" />
    <EXPORT ORDINAL="2792" NAME="?SetAtTo@COfdStmt@@QAEXW4__MIDL___MIDL_itf_iofd_0121_0002@@@Z" PURGE="4" COMMENT="" />
    <EXPORT ORDINAL="2793" NAME="?SetAuto@COfdTrip@@QAEXABVCOfdAuto@@@Z" PURGE="4" COMMENT="" />
    <EXPORT ORDINAL="2794" NAME="?SetAutot@COfdAuto@@QAEXW4__MIDL___MIDL_itf_iofd_0216_0003@@@Z" PURGE="4" COMMENT="" />
    <EXPORT ORDINAL="2795" NAME="?SetAwdt@COfdAwd@@QAEXW4__MIDL___MIDL_itf_iofd_0230_0004@@@Z" PURGE="4" COMMENT="" />
    <EXPORT ORDINAL="2796" NAME="?SetBbt@COfdBgtBkt@@QAEXW4__MIDL___MIDL_itf_iofd_0239_0001@@@Z" PURGE="4" COMMENT="" />
    <EXPORT ORDINAL="2797" NAME="?SetBf@COfdBgt@@QAEXJ@Z" PURGE="4" COMMENT="" />
    <EXPORT ORDINAL="2798" NAME="?SetBgt@COfdBgtBkt@@QAEXABVCOfdBgt@@@Z" PURGE="4" COMMENT="" />
    <EXPORT ORDINAL="2799" NAME="?SetBgt@COfdBgtItm@@QAEXABVCOfdBgt@@@Z" PURGE="4" COMMENT="" />
    <EXPORT ORDINAL="2800" NAME="?SetBgt@COfdSavGoal@@QAEXABVCOfdBgt@@@Z" PURGE="4" COMMENT="" />
    <EXPORT ORDINAL="2801" NAME="?SetBgtBkt@COfdBgtItm@@QAEXABVCOfdBgtBkt@@@Z" PURGE="4" COMMENT="" />
    <EXPORT ORDINAL="2802" NAME="?SetBgtItmLink@COfdBgtItm@@QAEXABV1@@Z" PURGE="4" COMMENT="" />
    <EXPORT ORDINAL="2803" NAME="?SetBif@COfdBgtItm@@QAEXJ@Z" PURGE="4" COMMENT="" />
    <EXPORT ORDINAL="2804" NAME="?SetBillHead@COfdBill@@QAEXABV1@@Z" PURGE="4" COMMENT="" />
    <EXPORT ORDINAL="2805" NAME="?SetBillHead@COfdTrn@@QAEXABVCOfdBill@@@Z" PURGE="4" COMMENT="" />
    <EXPORT ORDINAL="2806" NAME="?SetBit@COfdBgtItm@@QAEXW4__MIDL___MIDL_itf_iofd_0194_0002@@@Z" PURGE="4" COMMENT="" />
    <EXPORT ORDINAL="2807" NAME="?SetBt@COfdXbag@@QAEXW4__MIDL___MIDL_itf_iofd_0249_0002@@@Z" PURGE="4" COMMENT="" />
    <EXPORT ORDINAL="2808" NAME="?SetCAdv@COfdPoolAdv@@QAEXJJ@Z" PURGE="8" COMMENT="" />
    <EXPORT ORDINAL="2809" NAME="?SetCDaysAutoEnter@COfdBill@@UAEXJ@Z" PURGE="4" COMMENT="" />
    <EXPORT ORDINAL="2810" NAME="?SetCDfltDaysToPay@COfdProvFi@@QAEXJ@Z" PURGE="4" COMMENT="" />
    <EXPORT ORDINAL="2811" NAME="?SetCDfltDaysWith@COfdProvFi@@QAEXJ@Z" PURGE="4" COMMENT="" />
    <EXPORT ORDINAL="2812" NAME="?SetCEstInst@COfdBill@@QAEXJ@Z" PURGE="4" COMMENT="" />
    <EXPORT ORDINAL="2813" NAME="?SetCFrqInst@COfdAcct@@QAEXABVCOfdDouble@@@Z" PURGE="4" COMMENT="" />
    <EXPORT ORDINAL="2814" NAME="?SetCFrqInst@COfdBgt@@QAEXABVCOfdDouble@@@Z" PURGE="4" COMMENT="" />
    <EXPORT ORDINAL="2815" NAME="?SetCFrqInst@COfdBgtItm@@QAEXABVCOfdDouble@@@Z" PURGE="4" COMMENT="" />
    <EXPORT ORDINAL="2816" NAME="?SetCFrqInst@COfdBill@@UAEXABVCOfdDouble@@@Z" PURGE="4" COMMENT="" />
    <EXPORT ORDINAL="2817" NAME="?SetCFrqInst@COfdStmt@@QAEXABVCOfdDouble@@@Z" PURGE="4" COMMENT="" />
    <EXPORT ORDINAL="2818" NAME="?SetCFrqInst@COfdTrn@@UAEXABVCOfdDouble@@@Z" PURGE="4" COMMENT="" />
    <EXPORT ORDINAL="2819" NAME="?SetCFrqInstAdj@COfdAcct@@QAEXABVCOfdDouble@@@Z" PURGE="4" COMMENT="" />
    <EXPORT ORDINAL="2820" NAME="?SetCFrqInstCpd@COfdAcct@@QAEXABVCOfdDouble@@@Z" PURGE="4" COMMENT="" />
    <EXPORT ORDINAL="2821" NAME="?SetCFrqInstDebtPay@COfdAcct@@QAEXABVCOfdDouble@@@Z" PURGE="4" COMMENT="" />
    <EXPORT ORDINAL="2822" NAME="?SetCFrqInstIntPmt@COfdSec@@QAEXABVCOfdDouble@@@Z" PURGE="4" COMMENT="" />
    <EXPORT ORDINAL="2823" NAME="?SetCFrqInstUpd@COfdProvFi@@QAEXABVCOfdDouble@@@Z" PURGE="4" COMMENT="" />
    <EXPORT ORDINAL="2824" NAME="?SetCIdDfltDaysToPay@COfdProvFi@@QAEXJ@Z" PURGE="4" COMMENT="" />
    <EXPORT ORDINAL="2825" NAME="?SetCIdDfltDaysWith@COfdProvFi@@QAEXJ@Z" PURGE="4" COMMENT="" />
    <EXPORT ORDINAL="2826" NAME="?SetCInstMax@COfdBill@@QAEXJ@Z" PURGE="4" COMMENT="" />
    <EXPORT ORDINAL="2827" NAME="?SetCIntraDfltDaysToPay@COfdProvFi@@QAEXJ@Z" PURGE="4" COMMENT="" />
    <EXPORT ORDINAL="2828" NAME="?SetCIntraDfltDaysWith@COfdProvFi@@QAEXJ@Z" PURGE="4" COMMENT="" />
    <EXPORT ORDINAL="2829" NAME="?SetCOdoNet@COfdTrip@@QAEXJ@Z" PURGE="4" COMMENT="" />
    <EXPORT ORDINAL="2830" NAME="?SetCPinMax@COfdProvFi@@QAEXJ@Z" PURGE="4" COMMENT="" />
    <EXPORT ORDINAL="2831" NAME="?SetCPinMin@COfdProvFi@@QAEXJ@Z" PURGE="4" COMMENT="" />
    <EXPORT ORDINAL="2832" NAME="?SetCXferDfltDaysToPay@COfdProvFi@@QAEXJ@Z" PURGE="4" COMMENT="" />
    <EXPORT ORDINAL="2833" NAME="?SetCXferDfltDaysWith@COfdProvFi@@QAEXJ@Z" PURGE="4" COMMENT="" />
    <EXPORT ORDINAL="2834" NAME="?SetCat@COfdBgtItm@@QAEXABVCOfdCat@@@Z" PURGE="4" COMMENT="" />
    <EXPORT ORDINAL="2835" NAME="?SetCat@COfdProduct@@QAEXABVCOfdCat@@@Z" PURGE="4" COMMENT="" />
    <EXPORT ORDINAL="2836" NAME="?SetCat@COfdProj@@QAEXABVCOfdCat@@@Z" PURGE="4" COMMENT="" />
    <EXPORT ORDINAL="2837" NAME="?SetCat@COfdTrnBase@@QAEXABVCOfdCat@@@Z" PURGE="4" COMMENT="" />
    <EXPORT ORDINAL="2838" NAME="?SetCatEmpMatch@COfdAcct@@QAEXABVCOfdCat@@@Z" PURGE="4" COMMENT="" />
    <EXPORT ORDINAL="2839" NAME="?SetCatEmpMatchPost@COfdAcct@@QAEXABVCOfdCat@@@Z" PURGE="4" COMMENT="" />
    <EXPORT ORDINAL="2840" NAME="?SetCatEndAdj@COfdAcct@@QAEXABVCOfdCat@@@Z" PURGE="4" COMMENT="" />
    <EXPORT ORDINAL="2841" NAME="?SetCatInterest@COfdAcct@@QAEXABVCOfdCat@@@Z" PURGE="4" COMMENT="" />
    <EXPORT ORDINAL="2842" NAME="?SetCatOpenAdj@COfdAcct@@QAEXABVCOfdCat@@@Z" PURGE="4" COMMENT="" />
    <EXPORT ORDINAL="2843" NAME="?SetCatParent@COfdCat@@QAEXABV1@@Z" PURGE="4" COMMENT="" />
    <EXPORT ORDINAL="2844" NAME="?SetCatPrincipal@COfdAcct@@QAEXABVCOfdCat@@@Z" PURGE="4" COMMENT="" />
    <EXPORT ORDINAL="2845" NAME="?SetCatService@COfdAcct@@QAEXABVCOfdCat@@@Z" PURGE="4" COMMENT="" />
    <EXPORT ORDINAL="2846" NAME="?SetCbt@COfdSec@@QAEXW4__MIDL___MIDL_itf_iofd_0147_0006@@@Z" PURGE="4" COMMENT="" />
    <EXPORT ORDINAL="2847" NAME="?SetCchDec@COfdFile@@QAEXJ@Z" PURGE="4" COMMENT="" />
    <EXPORT ORDINAL="2848" NAME="?SetCdayToPayPost@COfdProvFiPay@@QAEXJ@Z" PURGE="4" COMMENT="" />
    <EXPORT ORDINAL="2849" NAME="?SetCdayToPayPre@COfdProvFiPay@@QAEXJ@Z" PURGE="4" COMMENT="" />
    <EXPORT ORDINAL="2850" NAME="?SetCntry@COfdSec@@QAEXABVCOfdCntry@@@Z" PURGE="4" COMMENT="" />
    <EXPORT ORDINAL="2851" NAME="?SetCon@COfdCat@@QAEXJ@Z" PURGE="4" COMMENT="" />
    <EXPORT ORDINAL="2852" NAME="?SetContactData@COfdPay@@QAEXJ@Z" PURGE="4" COMMENT="" />
    <EXPORT ORDINAL="2853" NAME="?SetConversionCallback@COfdCurrency@@SAXP6AXPBV1@PAUAMTOLD@@@Z@Z" PURGE="0" COMMENT="" />
    <EXPORT ORDINAL="2854" NAME="?SetCpm@COfdAcct@@QAEXW4__MIDL___MIDL_itf_iofd_0121_0007@@@Z" PURGE="4" COMMENT="" />
    <EXPORT ORDINAL="2855" NAME="?SetCpmtsOL@COfdTrnBase@@QAEXJ@Z" PURGE="4" COMMENT="" />
    <EXPORT ORDINAL="2856" NAME="?SetCpmtsOl@COfdStmt@@QAEXJ@Z" PURGE="4" COMMENT="" />
    <EXPORT ORDINAL="2857" NAME="?SetCpmtsRemaining@COfdTrnBase@@QAEXJ@Z" PURGE="4" COMMENT="" />
    <EXPORT ORDINAL="2858" NAME="?SetCrnc@COfdAcct@@QAEXABVCOfdCrnc@@@Z" PURGE="4" COMMENT="" />
    <EXPORT ORDINAL="2859" NAME="?SetCrnc@COfdSec@@QAEXABVCOfdCrnc@@@Z" PURGE="4" COMMENT="" />
    <EXPORT ORDINAL="2860" NAME="?SetCrncCur@COfdFile@@QAEXABVCOfdCrnc@@@Z" PURGE="4" COMMENT="" />
    <EXPORT ORDINAL="2861" NAME="?SetCrncDef@COfdCntry@@QAEXABVCOfdCrnc@@@Z" PURGE="4" COMMENT="" />
    <EXPORT ORDINAL="2862" NAME="?SetCrncDef@COfdFile@@QAEXABVCOfdCrnc@@@Z" PURGE="4" COMMENT="" />
    <EXPORT ORDINAL="2863" NAME="?SetCrncOrig@COfdAcct@@QAEXABVCOfdCrnc@@@Z" PURGE="4" COMMENT="" />
    <EXPORT ORDINAL="2864" NAME="?SetCs@COfdStmt@@QAEXW4__MIDL___MIDL_itf_iofd_0137_0007@@@Z" PURGE="4" COMMENT="" />
    <EXPORT ORDINAL="2865" NAME="?SetCs@COfdTrnBase@@QAEXW4__MIDL___MIDL_itf_iofd_0137_0007@@@Z" PURGE="4" COMMENT="" />
    <EXPORT ORDINAL="2866" NAME="?SetCshrDenominator@COfdBrkStmt@@QAEXJ@Z" PURGE="4" COMMENT="" />
    <EXPORT ORDINAL="2867" NAME="?SetCshrNumerator@COfdBrkStmt@@QAEXJ@Z" PURGE="4" COMMENT="" />
    <EXPORT ORDINAL="2868" NAME="?SetCshrPost@COfdBrkStmt@@QAEXJ@Z" PURGE="4" COMMENT="" />
    <EXPORT ORDINAL="2869" NAME="?SetCshrPost@COfdPrice@@QAEXJ@Z" PURGE="4" COMMENT="" />
    <EXPORT ORDINAL="2870" NAME="?SetCshrPre@COfdBrkStmt@@QAEXJ@Z" PURGE="4" COMMENT="" />
    <EXPORT ORDINAL="2871" NAME="?SetCshrPre@COfdPrice@@QAEXJ@Z" PURGE="4" COMMENT="" />
    <EXPORT ORDINAL="2872" NAME="?SetCt@COfdCat@@QAEXABVCOfdCt@@@Z" PURGE="4" COMMENT="" />
    <EXPORT ORDINAL="2873" NAME="?SetCtIdentity@COfdPoolCt@@QAEXW4__MIDL___MIDL_itf_iofd_0125_0001@@ABVCOfdCt@@@Z" PURGE="8" COMMENT="" />
    <EXPORT ORDINAL="2874" NAME="?SetCtid@COfdCt@@QAEXW4__MIDL___MIDL_itf_iofd_0125_0001@@@Z" PURGE="4" COMMENT="" />
    <EXPORT ORDINAL="2875" NAME="?SetCtrnPartialChecks@COfdAcct@@QAEXJ@Z" PURGE="4" COMMENT="" />
    <EXPORT ORDINAL="2876" NAME="?SetCy10@COfdBgtItm@@QAEXABVCOfdCurrency@@@Z" PURGE="4" COMMENT="" />
    <EXPORT ORDINAL="2877" NAME="?SetCy11@COfdBgtItm@@QAEXABVCOfdCurrency@@@Z" PURGE="4" COMMENT="" />
    <EXPORT ORDINAL="2878" NAME="?SetCy12@COfdBgtItm@@QAEXABVCOfdCurrency@@@Z" PURGE="4" COMMENT="" />
    <EXPORT ORDINAL="2879" NAME="?SetCy1@COfdBgtItm@@QAEXABVCOfdCurrency@@@Z" PURGE="4" COMMENT="" />
    <EXPORT ORDINAL="2880" NAME="?SetCy2@COfdBgtItm@@QAEXABVCOfdCurrency@@@Z" PURGE="4" COMMENT="" />
    <EXPORT ORDINAL="2881" NAME="?SetCy3@COfdBgtItm@@QAEXABVCOfdCurrency@@@Z" PURGE="4" COMMENT="" />
    <EXPORT ORDINAL="2882" NAME="?SetCy4@COfdBgtItm@@QAEXABVCOfdCurrency@@@Z" PURGE="4" COMMENT="" />
    <EXPORT ORDINAL="2883" NAME="?SetCy5@COfdBgtItm@@QAEXABVCOfdCurrency@@@Z" PURGE="4" COMMENT="" />
    <EXPORT ORDINAL="2884" NAME="?SetCy6@COfdBgtItm@@QAEXABVCOfdCurrency@@@Z" PURGE="4" COMMENT="" />
    <EXPORT ORDINAL="2885" NAME="?SetCy7@COfdBgtItm@@QAEXABVCOfdCurrency@@@Z" PURGE="4" COMMENT="" />
    <EXPORT ORDINAL="2886" NAME="?SetCy8@COfdBgtItm@@QAEXABVCOfdCurrency@@@Z" PURGE="4" COMMENT="" />
    <EXPORT ORDINAL="2887" NAME="?SetCy9@COfdBgtItm@@QAEXABVCOfdCurrency@@@Z" PURGE="4" COMMENT="" />
    <EXPORT ORDINAL="2888" NAME="?SetCy@COfdPortRec@@QAEXABVCOfdCurrency@@@Z" PURGE="4" COMMENT="" />
    <EXPORT ORDINAL="2889" NAME="?SetCy@COfdProj@@QAEXABVCOfdCurrency@@@Z" PURGE="4" COMMENT="" />
    <EXPORT ORDINAL="2890" NAME="?SetCy@COfdSavGoal@@QAEXABVCOfdCurrency@@@Z" PURGE="4" COMMENT="" />
    <EXPORT ORDINAL="2891" NAME="?SetCy@COfdSec@@QAEXABVCOfdCurrency@@@Z" PURGE="4" COMMENT="" />
    <EXPORT ORDINAL="2892" NAME="?SetCy@COfdStmt@@QAEXABVCOfdCurrency@@@Z" PURGE="4" COMMENT="" />
    <EXPORT ORDINAL="2893" NAME="?SetCy@COfdTrnBase@@QAEXABVCOfdCurrency@@J@Z" PURGE="8" COMMENT="" />
    <EXPORT ORDINAL="2894" NAME="?SetCyBalloon@COfdAcct@@QAEXABVCOfdCurrency@@@Z" PURGE="4" COMMENT="" />
    <EXPORT ORDINAL="2895" NAME="?SetCyBase@COfdTrnBase@@QAEXABVCOfdCurrency@@@Z" PURGE="4" COMMENT="" />
    <EXPORT ORDINAL="2896" NAME="?SetCyCmn@COfdTrnBase@@QAEXABVCOfdCurrency@@J@Z" PURGE="8" COMMENT="" />
    <EXPORT ORDINAL="2897" NAME="?SetCyCommission@COfdBrkStmt@@QAEXABVCOfdCurrency@@@Z" PURGE="4" COMMENT="" />
    <EXPORT ORDINAL="2898" NAME="?SetCyCur@COfdAuto@@QAEXABVCOfdCurrency@@@Z" PURGE="4" COMMENT="" />
    <EXPORT ORDINAL="2899" NAME="?SetCyDividend@COfdPortRec@@QAEXABVCOfdCurrency@@@Z" PURGE="4" COMMENT="" />
    <EXPORT ORDINAL="2900" NAME="?SetCyEPS@COfdSec@@QAEXABVCOfdCurrency@@@Z" PURGE="4" COMMENT="" />
    <EXPORT ORDINAL="2901" NAME="?SetCyEbppDue@COfdStmt@@QAEXABVCOfdCurrency@@@Z" PURGE="4" COMMENT="" />
    <EXPORT ORDINAL="2902" NAME="?SetCyEbppPmt@COfdStmt@@QAEXABVCOfdCurrency@@@Z" PURGE="4" COMMENT="" />
    <EXPORT ORDINAL="2903" NAME="?SetCyEmplyer@COfdPortRec@@QAEXABVCOfdCurrency@@@Z" PURGE="4" COMMENT="" />
    <EXPORT ORDINAL="2904" NAME="?SetCyEndRec@COfdAcct@@QAEXABVCOfdCurrency@@@Z" PURGE="4" COMMENT="" />
    <EXPORT ORDINAL="2905" NAME="?SetCyFees@COfdTrip@@QAEXABVCOfdCurrency@@@Z" PURGE="4" COMMENT="" />
    <EXPORT ORDINAL="2906" NAME="?SetCyFieldFilter@COfdList@@QAEXJW4__MIDL___MIDL_itf_iofd_0112_0002@@ABVCOfdCurrency@@@Z" PURGE="12" COMMENT="" />
    <EXPORT ORDINAL="2907" NAME="?SetCyFieldFilter@COfdView@@QAEXJW4__MIDL___MIDL_itf_iofd_0112_0002@@ABVCOfdCurrency@@@Z" PURGE="12" COMMENT="" />
    <EXPORT ORDINAL="2908" NAME="?SetCyFileProp@COfdFile@@QAEXJABVCOfdCurrency@@@Z" PURGE="8" COMMENT="" />
    <EXPORT ORDINAL="2909" NAME="?SetCyFirst@COfdListTrn@@QAEXABVCOfdCurrency@@@Z" PURGE="4" COMMENT="" />
    <EXPORT ORDINAL="2910" NAME="?SetCyFld@COfdObject@@UAEXJABVCOfdCurrency@@@Z" PURGE="8" COMMENT="" />
    <EXPORT ORDINAL="2911" NAME="?SetCyFld@COfdStmt@@UAEXJABVCOfdCurrency@@@Z" PURGE="8" COMMENT="" />
    <EXPORT ORDINAL="2912" NAME="?SetCyFld@COfdTrnBase@@QAEXJABVCOfdCurrency@@J@Z" PURGE="12" COMMENT="" />
    <EXPORT ORDINAL="2913" NAME="?SetCyImmCapGain@COfdStmt@@QAEXABVCOfdCurrency@@@Z" PURGE="4" COMMENT="" />
    <EXPORT ORDINAL="2914" NAME="?SetCyImmCapGain@COfdTrnBase@@QAEXABVCOfdCurrency@@@Z" PURGE="4" COMMENT="" />
    <EXPORT ORDINAL="2915" NAME="?SetCyInt@COfdTrnBase@@QAEXABVCOfdCurrency@@@Z" PURGE="4" COMMENT="" />
    <EXPORT ORDINAL="2916" NAME="?SetCyInterest@COfdPortRec@@QAEXABVCOfdCurrency@@@Z" PURGE="4" COMMENT="" />
    <EXPORT ORDINAL="2917" NAME="?SetCyLastStmt@COfdStmt@@QAEXABVCOfdCurrency@@@Z" PURGE="4" COMMENT="" />
    <EXPORT ORDINAL="2918" NAME="?SetCyLastStmt@COfdSvc@@QAEXABVCOfdCurrency@@@Z" PURGE="4" COMMENT="" />
    <EXPORT ORDINAL="2919" NAME="?SetCyLimit@COfdAcct@@QAEXABVCOfdCurrency@@@Z" PURGE="4" COMMENT="" />
    <EXPORT ORDINAL="2920" NAME="?SetCyMonthly@COfdBgtItm@@QAEXABVCOfdCurrency@@@Z" PURGE="4" COMMENT="" />
    <EXPORT ORDINAL="2921" NAME="?SetCyOccasional@COfdBgtItm@@QAEXABVCOfdCurrency@@@Z" PURGE="4" COMMENT="" />
    <EXPORT ORDINAL="2922" NAME="?SetCyOpen@COfdAcct@@QAEXABVCOfdCurrency@@@Z" PURGE="4" COMMENT="" />
    <EXPORT ORDINAL="2923" NAME="?SetCyOpenRec@COfdAcct@@QAEXABVCOfdCurrency@@@Z" PURGE="4" COMMENT="" />
    <EXPORT ORDINAL="2924" NAME="?SetCyPI@COfdAcct@@QAEXABVCOfdCurrency@@@Z" PURGE="4" COMMENT="" />
    <EXPORT ORDINAL="2925" NAME="?SetCyPI@COfdLstep@@QAEXABVCOfdCurrency@@@Z" PURGE="4" COMMENT="" />
    <EXPORT ORDINAL="2926" NAME="?SetCyPar@COfdPosStmt@@QAEXABVCOfdCurrency@@@Z" PURGE="4" COMMENT="" />
    <EXPORT ORDINAL="2927" NAME="?SetCyPar@COfdStmt@@QAEXABVCOfdCurrency@@@Z" PURGE="4" COMMENT="" />
    <EXPORT ORDINAL="2928" NAME="?SetCyPayMin@COfdAcct@@QAEXABVCOfdCurrency@@@Z" PURGE="4" COMMENT="" />
    <EXPORT ORDINAL="2929" NAME="?SetCyPayment@COfdAcct@@QAEXABVCOfdCurrency@@@Z" PURGE="4" COMMENT="" />
    <EXPORT ORDINAL="2930" NAME="?SetCyPayment@COfdLstep@@QAEXABVCOfdCurrency@@@Z" PURGE="4" COMMENT="" />
    <EXPORT ORDINAL="2931" NAME="?SetCyPerFrq@COfdBgtItm@@QAEXABVCOfdCurrency@@@Z" PURGE="4" COMMENT="" />
    <EXPORT ORDINAL="2932" NAME="?SetCyPreRec@COfdTrnBase@@QAEXABVCOfdCurrency@@@Z" PURGE="4" COMMENT="" />
    <EXPORT ORDINAL="2933" NAME="?SetCySpending@COfdAcct@@QAEXABVCOfdCurrency@@@Z" PURGE="4" COMMENT="" />
    <EXPORT ORDINAL="2934" NAME="?SetCyTotal@COfdCat@@QAEXABVCOfdCurrency@@@Z" PURGE="4" COMMENT="" />
    <EXPORT ORDINAL="2935" NAME="?SetCyTotal@COfdTrnBase@@QAEXABVCOfdCurrency@@J@Z" PURGE="8" COMMENT="" />
    <EXPORT ORDINAL="2936" NAME="?SetCyUser@COfdPortRec@@QAEXABVCOfdCurrency@@@Z" PURGE="4" COMMENT="" />
    <EXPORT ORDINAL="2937" NAME="?SetCyVal@COfdCurrency@@QAEXJJJ@Z" PURGE="12" COMMENT="" />
    <EXPORT ORDINAL="2938" NAME="?SetCyValue@COfdCrit@@QAEXABVCOfdCurrency@@@Z" PURGE="4" COMMENT="" />
    <EXPORT ORDINAL="2939" NAME="?SetCyVat@COfdTrnBase@@QAEXABVCOfdCurrency@@J@Z" PURGE="8" COMMENT="" />
    <EXPORT ORDINAL="2940" NAME="?SetD52WeekHigh@COfdSec@@QAEXABVCOfdDouble@@@Z" PURGE="4" COMMENT="" />
    <EXPORT ORDINAL="2941" NAME="?SetD52WeekLow@COfdSec@@QAEXABVCOfdDouble@@@Z" PURGE="4" COMMENT="" />
    <EXPORT ORDINAL="2942" NAME="?SetDAsk@COfdSec@@QAEXABVCOfdDouble@@@Z" PURGE="4" COMMENT="" />
    <EXPORT ORDINAL="2943" NAME="?SetDBaseUnit@COfdSec@@QAEXABVCOfdDouble@@@Z" PURGE="4" COMMENT="" />
    <EXPORT ORDINAL="2944" NAME="?SetDBeta@COfdSec@@QAEXABVCOfdDouble@@@Z" PURGE="4" COMMENT="" />
    <EXPORT ORDINAL="2945" NAME="?SetDBid@COfdSec@@QAEXABVCOfdDouble@@@Z" PURGE="4" COMMENT="" />
    <EXPORT ORDINAL="2946" NAME="?SetDCapitalization@COfdSec@@QAEXABVCOfdDouble@@@Z" PURGE="4" COMMENT="" />
    <EXPORT ORDINAL="2947" NAME="?SetDChange@COfdPrice@@QAEXABVCOfdDouble@@@Z" PURGE="4" COMMENT="" />
    <EXPORT ORDINAL="2948" NAME="?SetDCost@COfdProduct@@QAEXABVCOfdDouble@@@Z" PURGE="4" COMMENT="" />
    <EXPORT ORDINAL="2949" NAME="?SetDDiscount@COfdPay@@QAEXABVCOfdDouble@@@Z" PURGE="4" COMMENT="" />
    <EXPORT ORDINAL="2950" NAME="?SetDDividendYield@COfdSec@@QAEXABVCOfdDouble@@@Z" PURGE="4" COMMENT="" />
    <EXPORT ORDINAL="2951" NAME="?SetDFieldFilter@COfdList@@QAEXJW4__MIDL___MIDL_itf_iofd_0112_0002@@ABVCOfdDouble@@@Z" PURGE="12" COMMENT="" />
    <EXPORT ORDINAL="2952" NAME="?SetDFieldFilter@COfdView@@QAEXJW4__MIDL___MIDL_itf_iofd_0112_0002@@ABVCOfdDouble@@@Z" PURGE="12" COMMENT="" />
    <EXPORT ORDINAL="2953" NAME="?SetDFileProp@COfdFile@@QAEXJVCOfdDouble@@@Z" PURGE="16" COMMENT="" />
    <EXPORT ORDINAL="2954" NAME="?SetDFld@COfdObject@@QAEXJABVCOfdDouble@@@Z" PURGE="8" COMMENT="" />
    <EXPORT ORDINAL="2955" NAME="?SetDHigh@COfdPrice@@QAEXABVCOfdDouble@@@Z" PURGE="4" COMMENT="" />
    <EXPORT ORDINAL="2956" NAME="?SetDHours@COfdTmi@@QAEXABVCOfdDouble@@@Z" PURGE="4" COMMENT="" />
    <EXPORT ORDINAL="2957" NAME="?SetDIntRate@COfdAcct@@QAEXABVCOfdDouble@@@Z" PURGE="4" COMMENT="" />
    <EXPORT ORDINAL="2958" NAME="?SetDIntRate@COfdSec@@QAEXABVCOfdDouble@@@Z" PURGE="4" COMMENT="" />
    <EXPORT ORDINAL="2959" NAME="?SetDIntRateChg@COfdAcct@@QAEXABVCOfdDouble@@@Z" PURGE="4" COMMENT="" />
    <EXPORT ORDINAL="2960" NAME="?SetDLow@COfdPrice@@QAEXABVCOfdDouble@@@Z" PURGE="4" COMMENT="" />
    <EXPORT ORDINAL="2961" NAME="?SetDOpen@COfdPrice@@QAEXABVCOfdDouble@@@Z" PURGE="4" COMMENT="" />
    <EXPORT ORDINAL="2962" NAME="?SetDPE@COfdPrice@@QAEXABVCOfdDouble@@@Z" PURGE="4" COMMENT="" />
    <EXPORT ORDINAL="2963" NAME="?SetDPayRateMin@COfdAcct@@QAEXABVCOfdDouble@@@Z" PURGE="4" COMMENT="" />
    <EXPORT ORDINAL="2964" NAME="?SetDPct@COfdXbag@@QAEXABVCOfdDouble@@@Z" PURGE="4" COMMENT="" />
    <EXPORT ORDINAL="2965" NAME="?SetDPctVestFirst@COfdSec@@QAEXABVCOfdDouble@@@Z" PURGE="4" COMMENT="" />
    <EXPORT ORDINAL="2966" NAME="?SetDPctVestNext@COfdSec@@QAEXABVCOfdDouble@@@Z" PURGE="4" COMMENT="" />
    <EXPORT ORDINAL="2967" NAME="?SetDPercentCash@COfdSec@@QAEXABVCOfdDouble@@@Z" PURGE="4" COMMENT="" />
    <EXPORT ORDINAL="2968" NAME="?SetDPercentDebt@COfdSec@@QAEXABVCOfdDouble@@@Z" PURGE="4" COMMENT="" />
    <EXPORT ORDINAL="2969" NAME="?SetDPercentEquity@COfdSec@@QAEXABVCOfdDouble@@@Z" PURGE="4" COMMENT="" />
    <EXPORT ORDINAL="2970" NAME="?SetDPercentOther@COfdSec@@QAEXABVCOfdDouble@@@Z" PURGE="4" COMMENT="" />
    <EXPORT ORDINAL="2971" NAME="?SetDPercentStockL@COfdSec@@QAEXABVCOfdDouble@@@Z" PURGE="4" COMMENT="" />
    <EXPORT ORDINAL="2972" NAME="?SetDPercentStockM@COfdSec@@QAEXABVCOfdDouble@@@Z" PURGE="4" COMMENT="" />
    <EXPORT ORDINAL="2973" NAME="?SetDPercentStockS@COfdSec@@QAEXABVCOfdDouble@@@Z" PURGE="4" COMMENT="" />
    <EXPORT ORDINAL="2974" NAME="?SetDPeriodExpire@COfdPgm@@QAEXABVCOfdDouble@@@Z" PURGE="4" COMMENT="" />
    <EXPORT ORDINAL="2975" NAME="?SetDPeriodExpire@COfdSec@@QAEXABVCOfdDouble@@@Z" PURGE="4" COMMENT="" />
    <EXPORT ORDINAL="2976" NAME="?SetDPeriodVestNext@COfdSec@@QAEXABVCOfdDouble@@@Z" PURGE="4" COMMENT="" />
    <EXPORT ORDINAL="2977" NAME="?SetDPrice@COfdIvty@@QAEXABVCOfdDouble@@@Z" PURGE="4" COMMENT="" />
    <EXPORT ORDINAL="2978" NAME="?SetDPrice@COfdPortRec@@QAEXABVCOfdDouble@@@Z" PURGE="4" COMMENT="" />
    <EXPORT ORDINAL="2979" NAME="?SetDPrice@COfdPrice@@QAEXABVCOfdDouble@@@Z" PURGE="4" COMMENT="" />
    <EXPORT ORDINAL="2980" NAME="?SetDPrice@COfdProduct@@QAEXABVCOfdDouble@@@Z" PURGE="4" COMMENT="" />
    <EXPORT ORDINAL="2981" NAME="?SetDPrice@COfdTrnBase@@QAEXABVCOfdDouble@@@Z" PURGE="4" COMMENT="" />
    <EXPORT ORDINAL="2982" NAME="?SetDPriceProd@COfdTrnBase@@QAEXVCOfdDouble@@@Z" PURGE="12" COMMENT="" />
    <EXPORT ORDINAL="2983" NAME="?SetDPriceSplit@COfdPrice@@QAEXABVCOfdDouble@@@Z" PURGE="4" COMMENT="" />
    <EXPORT ORDINAL="2984" NAME="?SetDPriceStrike@COfdPosStmt@@QAEXABVCOfdDouble@@@Z" PURGE="4" COMMENT="" />
    <EXPORT ORDINAL="2985" NAME="?SetDPriceStrike@COfdSec@@QAEXABVCOfdDouble@@@Z" PURGE="4" COMMENT="" />
    <EXPORT ORDINAL="2986" NAME="?SetDPriceStrike@COfdStmt@@QAEXABVCOfdDouble@@@Z" PURGE="4" COMMENT="" />
    <EXPORT ORDINAL="2987" NAME="?SetDQty@COfdIvty@@QAEXABVCOfdDouble@@@Z" PURGE="4" COMMENT="" />
    <EXPORT ORDINAL="2988" NAME="?SetDQty@COfdPortRec@@QAEXABVCOfdDouble@@@Z" PURGE="4" COMMENT="" />
    <EXPORT ORDINAL="2989" NAME="?SetDQty@COfdSoq@@QAEXABVCOfdDouble@@@Z" PURGE="4" COMMENT="" />
    <EXPORT ORDINAL="2990" NAME="?SetDROE@COfdSec@@QAEXABVCOfdDouble@@@Z" PURGE="4" COMMENT="" />
    <EXPORT ORDINAL="2991" NAME="?SetDROI1Year@COfdSec@@QAEXABVCOfdDouble@@@Z" PURGE="4" COMMENT="" />
    <EXPORT ORDINAL="2992" NAME="?SetDROI3Year@COfdSec@@QAEXABVCOfdDouble@@@Z" PURGE="4" COMMENT="" />
    <EXPORT ORDINAL="2993" NAME="?SetDROI5Year@COfdSec@@QAEXABVCOfdDouble@@@Z" PURGE="4" COMMENT="" />
    <EXPORT ORDINAL="2994" NAME="?SetDROI@COfdSec@@QAEXABVCOfdDouble@@@Z" PURGE="4" COMMENT="" />
    <EXPORT ORDINAL="2995" NAME="?SetDROIYTD@COfdSec@@QAEXABVCOfdDouble@@@Z" PURGE="4" COMMENT="" />
    <EXPORT ORDINAL="2996" NAME="?SetDRate@COfdTmi@@QAEXABVCOfdDouble@@@Z" PURGE="4" COMMENT="" />
    <EXPORT ORDINAL="2997" NAME="?SetDRateCalc@COfdLstep@@QAEXABVCOfdDouble@@@Z" PURGE="4" COMMENT="" />
    <EXPORT ORDINAL="2998" NAME="?SetDRateTax@COfdPay@@QAEXABVCOfdDouble@@@Z" PURGE="4" COMMENT="" />
    <EXPORT ORDINAL="2999" NAME="?SetDRateTax@COfdTrnBase@@QAEXABVCOfdDouble@@@Z" PURGE="4" COMMENT="" />
    <EXPORT ORDINAL="3000" NAME="?SetDRateToBase@COfdBrkStmt@@QAEXABVCOfdDouble@@@Z" PURGE="4" COMMENT="" />
    <EXPORT ORDINAL="3001" NAME="?SetDRateToBase@COfdTrnBase@@QAEXABVCOfdDouble@@@Z" PURGE="4" COMMENT="" />
    <EXPORT ORDINAL="3002" NAME="?SetDRateUser@COfdLstep@@QAEXABVCOfdDouble@@@Z" PURGE="4" COMMENT="" />
    <EXPORT ORDINAL="3003" NAME="?SetDReturn1Year@COfdSec@@QAEXABVCOfdDouble@@@Z" PURGE="4" COMMENT="" />
    <EXPORT ORDINAL="3004" NAME="?SetDReturn3Year@COfdSec@@QAEXABVCOfdDouble@@@Z" PURGE="4" COMMENT="" />
    <EXPORT ORDINAL="3005" NAME="?SetDSharesOutstanding@COfdSec@@QAEXABVCOfdDouble@@@Z" PURGE="4" COMMENT="" />
    <EXPORT ORDINAL="3006" NAME="?SetDStrike@COfdPrice@@QAEXABVCOfdDouble@@@Z" PURGE="4" COMMENT="" />
    <EXPORT ORDINAL="3007" NAME="?SetDTargetHigh@COfdSec@@QAEXABVCOfdDouble@@@Z" PURGE="4" COMMENT="" />
    <EXPORT ORDINAL="3008" NAME="?SetDTargetLow@COfdSec@@QAEXABVCOfdDouble@@@Z" PURGE="4" COMMENT="" />
    <EXPORT ORDINAL="3009" NAME="?SetDTargetPrice@COfdUnote@@QAEXABVCOfdDouble@@@Z" PURGE="4" COMMENT="" />
    <EXPORT ORDINAL="3010" NAME="?SetDUnitPrice@COfdBrkStmt@@QAEXABVCOfdDouble@@@Z" PURGE="4" COMMENT="" />
    <EXPORT ORDINAL="3011" NAME="?SetDUnitPrice@COfdPosStmt@@QAEXABVCOfdDouble@@@Z" PURGE="4" COMMENT="" />
    <EXPORT ORDINAL="3012" NAME="?SetDUnitRec@COfdAcct@@QAEXABVCOfdDouble@@@Z" PURGE="4" COMMENT="" />
    <EXPORT ORDINAL="3013" NAME="?SetDUnits@COfdAwd@@QAEXABVCOfdDouble@@@Z" PURGE="4" COMMENT="" />
    <EXPORT ORDINAL="3014" NAME="?SetDValue@COfdCrit@@QAEXABVCOfdDouble@@@Z" PURGE="4" COMMENT="" />
    <EXPORT ORDINAL="3015" NAME="?SetDVat@COfdCat@@QAEXABVCOfdDouble@@@Z" PURGE="4" COMMENT="" />
    <EXPORT ORDINAL="3016" NAME="?SetDVestFirst@COfdSec@@QAEXABVCOfdDouble@@@Z" PURGE="4" COMMENT="" />
    <EXPORT ORDINAL="3017" NAME="?SetDefLoanPayment@COfdAcct@@QAEXABVCOfdTrn@@@Z" PURGE="4" COMMENT="" />
    <EXPORT ORDINAL="3018" NAME="?SetDenomInfoChange@COfdFile@@QAEXJ@Z" PURGE="4" COMMENT="" />
    <EXPORT ORDINAL="3019" NAME="?SetDt@COfdAwd@@QAEXABVCBaseDateTime@@@Z" PURGE="4" COMMENT="" />
    <EXPORT ORDINAL="3020" NAME="?SetDt@COfdBgtItm@@QAEXABVCBaseDateTime@@@Z" PURGE="4" COMMENT="" />
    <EXPORT ORDINAL="3021" NAME="?SetDt@COfdBill@@UAEXABVCBaseDateTime@@@Z" PURGE="4" COMMENT="" />
    <EXPORT ORDINAL="3022" NAME="?SetDt@COfdIvty@@QAEXABVCBaseDateTime@@@Z" PURGE="4" COMMENT="" />
    <EXPORT ORDINAL="3023" NAME="?SetDt@COfdPrice@@QAEXABVCBaseDateTime@@@Z" PURGE="4" COMMENT="" />
    <EXPORT ORDINAL="3024" NAME="?SetDt@COfdSavGoal@@QAEXABVCBaseDateTime@@@Z" PURGE="4" COMMENT="" />
    <EXPORT ORDINAL="3025" NAME="?SetDt@COfdTrn@@UAEXABVCBaseDateTime@@@Z" PURGE="4" COMMENT="" />
    <EXPORT ORDINAL="3026" NAME="?SetDtAmortEnd@COfdLstep@@QAEXABVCBaseDateTime@@@Z" PURGE="4" COMMENT="" />
    <EXPORT ORDINAL="3027" NAME="?SetDtAsOf@COfdPosStmt@@QAEXABVCBaseDateTime@@@Z" PURGE="4" COMMENT="" />
    <EXPORT ORDINAL="3028" NAME="?SetDtCBPost@COfdAcct@@QAEXABVCBaseDateTime@@@Z" PURGE="4" COMMENT="" />
    <EXPORT ORDINAL="3029" NAME="?SetDtCCExp@COfdPay@@QAEXABVCBaseDateTime@@@Z" PURGE="4" COMMENT="" />
    <EXPORT ORDINAL="3030" NAME="?SetDtCall@COfdSec@@QAEXABVCBaseDateTime@@@Z" PURGE="4" COMMENT="" />
    <EXPORT ORDINAL="3031" NAME="?SetDtCleared@COfdTrnBase@@QAEXABVCBaseDateTime@@@Z" PURGE="4" COMMENT="" />
    <EXPORT ORDINAL="3032" NAME="?SetDtClose@COfdAcct@@QAEXABVCBaseDateTime@@@Z" PURGE="4" COMMENT="" />
    <EXPORT ORDINAL="3033" NAME="?SetDtCloseOffYear@COfdTrnBase@@QAEXABVCBaseDateTime@@@Z" PURGE="4" COMMENT="" />
    <EXPORT ORDINAL="3034" NAME="?SetDtDue@COfdTrnBase@@QAEXABVCBaseDateTime@@@Z" PURGE="4" COMMENT="" />
    <EXPORT ORDINAL="3035" NAME="?SetDtDueToBiller@COfdTrnBase@@QAEXABVCBaseDateTime@@@Z" PURGE="4" COMMENT="" />
    <EXPORT ORDINAL="3036" NAME="?SetDtEbppDue@COfdStmt@@QAEXABVCBaseDateTime@@@Z" PURGE="4" COMMENT="" />
    <EXPORT ORDINAL="3037" NAME="?SetDtEbppPmtDue@COfdStmt@@QAEXABVCBaseDateTime@@@Z" PURGE="4" COMMENT="" />
    <EXPORT ORDINAL="3038" NAME="?SetDtEnd@COfdBgt@@QAEXABVCBaseDateTime@@@Z" PURGE="4" COMMENT="" />
    <EXPORT ORDINAL="3039" NAME="?SetDtEnd@COfdLstep@@QAEXABVCBaseDateTime@@@Z" PURGE="4" COMMENT="" />
    <EXPORT ORDINAL="3040" NAME="?SetDtEnd@COfdProj@@QAEXABVCBaseDateTime@@@Z" PURGE="4" COMMENT="" />
    <EXPORT ORDINAL="3041" NAME="?SetDtEnd@COfdTmi@@QAEXABVCBaseDateTime@@@Z" PURGE="4" COMMENT="" />
    <EXPORT ORDINAL="3042" NAME="?SetDtEnd@COfdTrip@@QAEXABVCBaseDateTime@@@Z" PURGE="4" COMMENT="" />
    <EXPORT ORDINAL="3043" NAME="?SetDtEndRec@COfdAcct@@QAEXABVCBaseDateTime@@@Z" PURGE="4" COMMENT="" />
    <EXPORT ORDINAL="3044" NAME="?SetDtExpire@COfdAwd@@QAEXABVCBaseDateTime@@@Z" PURGE="4" COMMENT="" />
    <EXPORT ORDINAL="3045" NAME="?SetDtExpire@COfdFile@@QAEXABVCBaseDateTime@@@Z" PURGE="4" COMMENT="" />
    <EXPORT ORDINAL="3046" NAME="?SetDtExpire@COfdPosStmt@@QAEXABVCBaseDateTime@@@Z" PURGE="4" COMMENT="" />
    <EXPORT ORDINAL="3047" NAME="?SetDtExpire@COfdPrice@@QAEXABVCBaseDateTime@@@Z" PURGE="4" COMMENT="" />
    <EXPORT ORDINAL="3048" NAME="?SetDtExpire@COfdSec@@QAEXABVCBaseDateTime@@@Z" PURGE="4" COMMENT="" />
    <EXPORT ORDINAL="3049" NAME="?SetDtExpire@COfdStmt@@QAEXABVCBaseDateTime@@@Z" PURGE="4" COMMENT="" />
    <EXPORT ORDINAL="3050" NAME="?SetDtFYI@COfdSec@@QAEXABVCBaseDateTime@@@Z" PURGE="4" COMMENT="" />
    <EXPORT ORDINAL="3051" NAME="?SetDtFYILastRead@COfdSec@@QAEXABVCBaseDateTime@@@Z" PURGE="4" COMMENT="" />
    <EXPORT ORDINAL="3052" NAME="?SetDtFieldFilter@COfdList@@QAEXJW4__MIDL___MIDL_itf_iofd_0112_0002@@ABVCBaseDateTime@@@Z" PURGE="12" COMMENT="" />
    <EXPORT ORDINAL="3053" NAME="?SetDtFieldFilter@COfdView@@QAEXJW4__MIDL___MIDL_itf_iofd_0112_0002@@ABVCBaseDateTime@@@Z" PURGE="12" COMMENT="" />
    <EXPORT ORDINAL="3054" NAME="?SetDtFileProp@COfdFile@@QAEXJABVCBaseDateTime@@@Z" PURGE="8" COMMENT="" />
    <EXPORT ORDINAL="3055" NAME="?SetDtFld@COfdObject@@QAEXJABVCBaseDateTime@@@Z" PURGE="8" COMMENT="" />
    <EXPORT ORDINAL="3056" NAME="?SetDtFollowup@COfdXbag@@QAEXABVCBaseDateTime@@@Z" PURGE="4" COMMENT="" />
    <EXPORT ORDINAL="3057" NAME="?SetDtIniEntry@COfdProvFi@@QAEXABVCBaseDateTime@@@Z" PURGE="4" COMMENT="" />
    <EXPORT ORDINAL="3058" NAME="?SetDtIntRateChg@COfdAcct@@QAEXABVCBaseDateTime@@@Z" PURGE="4" COMMENT="" />
    <EXPORT ORDINAL="3059" NAME="?SetDtLastAcctUp@COfdProvFi@@QAEXABVCBaseDateTime@@@Z" PURGE="4" COMMENT="" />
    <EXPORT ORDINAL="3060" NAME="?SetDtLastAttempt@COfdProvFi@@QAEXABVCBaseDateTime@@@Z" PURGE="4" COMMENT="" />
    <EXPORT ORDINAL="3061" NAME="?SetDtLastCall@COfdProvFi@@QAEXABVCBaseDateTime@@@Z" PURGE="4" COMMENT="" />
    <EXPORT ORDINAL="3062" NAME="?SetDtLastHistQuote@COfdSec@@QAEXABVCBaseDateTime@@@Z" PURGE="4" COMMENT="" />
    <EXPORT ORDINAL="3063" NAME="?SetDtLastModified@COfdPay@@QAEXABVCBaseDateTime@@@Z" PURGE="4" COMMENT="" />
    <EXPORT ORDINAL="3064" NAME="?SetDtLastStmtDown@COfdSvc@@QAEXABVCBaseDateTime@@@Z" PURGE="4" COMMENT="" />
    <EXPORT ORDINAL="3065" NAME="?SetDtLastUpdate@COfdSec@@QAEXABVCBaseDateTime@@@Z" PURGE="4" COMMENT="" />
    <EXPORT ORDINAL="3066" NAME="?SetDtLatest@COfdPoolAdv@@QAEXJABVCBaseDateTime@@@Z" PURGE="8" COMMENT="" />
    <EXPORT ORDINAL="3067" NAME="?SetDtMaturity@COfdPosStmt@@QAEXABVCBaseDateTime@@@Z" PURGE="4" COMMENT="" />
    <EXPORT ORDINAL="3068" NAME="?SetDtMaturity@COfdSec@@QAEXABVCBaseDateTime@@@Z" PURGE="4" COMMENT="" />
    <EXPORT ORDINAL="3069" NAME="?SetDtMaturity@COfdStmt@@QAEXABVCBaseDateTime@@@Z" PURGE="4" COMMENT="" />
    <EXPORT ORDINAL="3070" NAME="?SetDtMax@COfdBill@@QAEXABVCBaseDateTime@@@Z" PURGE="4" COMMENT="" />
    <EXPORT ORDINAL="3071" NAME="?SetDtMnnFile@COfdProvFi@@QAEXABVCBaseDateTime@@@Z" PURGE="4" COMMENT="" />
    <EXPORT ORDINAL="3072" NAME="?SetDtModelEnd@COfdTrnBase@@QAEXABVCBaseDateTime@@@Z" PURGE="4" COMMENT="" />
    <EXPORT ORDINAL="3073" NAME="?SetDtModelStart@COfdTrnBase@@QAEXABVCBaseDateTime@@@Z" PURGE="4" COMMENT="" />
    <EXPORT ORDINAL="3074" NAME="?SetDtNews@COfdSec@@QAEXABVCBaseDateTime@@@Z" PURGE="4" COMMENT="" />
    <EXPORT ORDINAL="3075" NAME="?SetDtNewsLastRead@COfdSec@@QAEXABVCBaseDateTime@@@Z" PURGE="4" COMMENT="" />
    <EXPORT ORDINAL="3076" NAME="?SetDtNextAdj@COfdAcct@@QAEXABVCBaseDateTime@@@Z" PURGE="4" COMMENT="" />
    <EXPORT ORDINAL="3077" NAME="?SetDtNextDebtPay@COfdAcct@@QAEXABVCBaseDateTime@@@Z" PURGE="4" COMMENT="" />
    <EXPORT ORDINAL="3078" NAME="?SetDtOldRelGet@COfdTrnBase@@QAEXABVCBaseDateTime@@@Z" PURGE="4" COMMENT="" />
    <EXPORT ORDINAL="3079" NAME="?SetDtOpen@COfdAcct@@QAEXABVCBaseDateTime@@@Z" PURGE="4" COMMENT="" />
    <EXPORT ORDINAL="3080" NAME="?SetDtOpenRec@COfdAcct@@QAEXABVCBaseDateTime@@@Z" PURGE="4" COMMENT="" />
    <EXPORT ORDINAL="3081" NAME="?SetDtPost@COfdStmt@@QAEXABVCBaseDateTime@@@Z" PURGE="4" COMMENT="" />
    <EXPORT ORDINAL="3082" NAME="?SetDtPost@COfdTrnBase@@QAEXABVCBaseDateTime@@@Z" PURGE="4" COMMENT="" />
    <EXPORT ORDINAL="3083" NAME="?SetDtPurchase@COfdAcct@@QAEXABVCBaseDateTime@@@Z" PURGE="4" COMMENT="" />
    <EXPORT ORDINAL="3084" NAME="?SetDtPutToBiz@COfdAuto@@QAEXABVCBaseDateTime@@@Z" PURGE="4" COMMENT="" />
    <EXPORT ORDINAL="3085" NAME="?SetDtRecord@COfdPrice@@QAEXABVCBaseDateTime@@@Z" PURGE="4" COMMENT="" />
    <EXPORT ORDINAL="3086" NAME="?SetDtSent@COfdTrnBase@@QAEXABVCBaseDateTime@@@Z" PURGE="4" COMMENT="" />
    <EXPORT ORDINAL="3087" NAME="?SetDtSentByFi@COfdMail@@QAEXABVCBaseDateTime@@@Z" PURGE="4" COMMENT="" />
    <EXPORT ORDINAL="3088" NAME="?SetDtSentByOLP@COfdTrnBase@@QAEXABVCBaseDateTime@@@Z" PURGE="4" COMMENT="" />
    <EXPORT ORDINAL="3089" NAME="?SetDtSettle@COfdStmt@@QAEXABVCBaseDateTime@@@Z" PURGE="4" COMMENT="" />
    <EXPORT ORDINAL="3090" NAME="?SetDtShip@COfdTrnBase@@QAEXABVCBaseDateTime@@@Z" PURGE="4" COMMENT="" />
    <EXPORT ORDINAL="3091" NAME="?SetDtSplit@COfdSec@@QAEXABVCBaseDateTime@@@Z" PURGE="4" COMMENT="" />
    <EXPORT ORDINAL="3092" NAME="?SetDtStart@COfdBgt@@QAEXABVCBaseDateTime@@@Z" PURGE="4" COMMENT="" />
    <EXPORT ORDINAL="3093" NAME="?SetDtStart@COfdProj@@QAEXABVCBaseDateTime@@@Z" PURGE="4" COMMENT="" />
    <EXPORT ORDINAL="3094" NAME="?SetDtStart@COfdTmi@@QAEXABVCBaseDateTime@@@Z" PURGE="4" COMMENT="" />
    <EXPORT ORDINAL="3095" NAME="?SetDtStart@COfdTrip@@QAEXABVCBaseDateTime@@@Z" PURGE="4" COMMENT="" />
    <EXPORT ORDINAL="3096" NAME="?SetDtTarget@COfdUnote@@QAEXABVCBaseDateTime@@@Z" PURGE="4" COMMENT="" />
    <EXPORT ORDINAL="3097" NAME="?SetDtTrade@COfdBrkStmt@@QAEXABVCBaseDateTime@@@Z" PURGE="4" COMMENT="" />
    <EXPORT ORDINAL="3098" NAME="?SetDtTrigger@COfdAdv@@QAEXABVCBaseDateTime@@@Z" PURGE="4" COMMENT="" />
    <EXPORT ORDINAL="3099" NAME="?SetDtTrnOld@COfdXbag@@QAEXABVCBaseDateTime@@@Z" PURGE="4" COMMENT="" />
    <EXPORT ORDINAL="3100" NAME="?SetDtValue@COfdCrit@@QAEXABVCBaseDateTime@@@Z" PURGE="4" COMMENT="" />
    <EXPORT ORDINAL="3101" NAME="?SetDtWarrantyEnd@COfdAuto@@QAEXABVCBaseDateTime@@@Z" PURGE="4" COMMENT="" />
    <EXPORT ORDINAL="3102" NAME="?SetElt@COfdUie@@QAEXW4__MIDL___MIDL_itf_iofd_0252_0003@@@Z" PURGE="4" COMMENT="" />
    <EXPORT ORDINAL="3103" NAME="?SetExchgid@COfdPrice@@QAEXJ@Z" PURGE="4" COMMENT="" />
    <EXPORT ORDINAL="3104" NAME="?SetFAdjustAmtPost@COfdAcct@@QAEXH@Z" PURGE="4" COMMENT="" />
    <EXPORT ORDINAL="3105" NAME="?SetFAlsRequired@COfdProvFi@@QAEXH@Z" PURGE="4" COMMENT="" />
    <EXPORT ORDINAL="3106" NAME="?SetFApayUpdateNeeded@COfdTrnBase@@QAEXH@Z" PURGE="4" COMMENT="" />
    <EXPORT ORDINAL="3107" NAME="?SetFArm@COfdAcct@@QAEXH@Z" PURGE="4" COMMENT="" />
    <EXPORT ORDINAL="3108" NAME="?SetFAutoAS@COfdFi@@QAEXH@Z" PURGE="4" COMMENT="" />
    <EXPORT ORDINAL="3109" NAME="?SetFAutoASOSURequired@COfdFi@@QAEXH@Z" PURGE="4" COMMENT="" />
    <EXPORT ORDINAL="3110" NAME="?SetFAutoRecon@COfdAcct@@QAEXH@Z" PURGE="4" COMMENT="" />
    <EXPORT ORDINAL="3111" NAME="?SetFAutobalance@COfdAcct@@QAEXH@Z" PURGE="4" COMMENT="" />
    <EXPORT ORDINAL="3112" NAME="?SetFAutofillMemo@COfdPay@@QAEXH@Z" PURGE="4" COMMENT="" />
    <EXPORT ORDINAL="3113" NAME="?SetFBillMode@COfdListSplit@@QAEXH@Z" PURGE="4" COMMENT="" />
    <EXPORT ORDINAL="3114" NAME="?SetFBiz@COfdCt@@QAEXH@Z" PURGE="4" COMMENT="" />
    <EXPORT ORDINAL="3115" NAME="?SetFBusiness@COfdAcct@@QAEXH@Z" PURGE="4" COMMENT="" />
    <EXPORT ORDINAL="3116" NAME="?SetFBusiness@COfdCat@@QAEXH@Z" PURGE="4" COMMENT="" />
    <EXPORT ORDINAL="3117" NAME="?SetFCCPmt@COfdTrnBase@@QAEXH@Z" PURGE="4" COMMENT="" />
    <EXPORT ORDINAL="3118" NAME="?SetFCalc@COfdCat@@QAEXH@Z" PURGE="4" COMMENT="" />
    <EXPORT ORDINAL="3119" NAME="?SetFCall@COfdSec@@QAEXH@Z" PURGE="4" COMMENT="" />
    <EXPORT ORDINAL="3120" NAME="?SetFCallInProgress@COfdProvFi@@QAEXH@Z" PURGE="4" COMMENT="" />
    <EXPORT ORDINAL="3121" NAME="?SetFCanadian@COfdAcct@@QAEXH@Z" PURGE="4" COMMENT="" />
    <EXPORT ORDINAL="3122" NAME="?SetFCannotSend@COfdTrnBase@@QAEXH@Z" PURGE="4" COMMENT="" />
    <EXPORT ORDINAL="3123" NAME="?SetFClosed@COfdAcct@@QAEXH@Z" PURGE="4" COMMENT="" />
    <EXPORT ORDINAL="3124" NAME="?SetFClosed@COfdPgm@@QAEXH@Z" PURGE="4" COMMENT="" />
    <EXPORT ORDINAL="3125" NAME="?SetFClosing@COfdPrice@@QAEXH@Z" PURGE="4" COMMENT="" />
    <EXPORT ORDINAL="3126" NAME="?SetFCoupon@COfdAcct@@QAEXH@Z" PURGE="4" COMMENT="" />
    <EXPORT ORDINAL="3127" NAME="?SetFCreditRefund@COfdTrnBase@@QAEXH@Z" PURGE="4" COMMENT="" />
    <EXPORT ORDINAL="3128" NAME="?SetFCust@COfdPay@@QAEXH@Z" PURGE="4" COMMENT="" />
    <EXPORT ORDINAL="3129" NAME="?SetFDebtPlan@COfdAcct@@QAEXH@Z" PURGE="4" COMMENT="" />
    <EXPORT ORDINAL="3130" NAME="?SetFDebtPlan@COfdTrnBase@@QAEXH@Z" PURGE="4" COMMENT="" />
    <EXPORT ORDINAL="3131" NAME="?SetFDefBillAmt@COfdTrnBase@@QAEXH@Z" PURGE="4" COMMENT="" />
    <EXPORT ORDINAL="3132" NAME="?SetFDefBillDate@COfdTrnBase@@QAEXH@Z" PURGE="4" COMMENT="" />
    <EXPORT ORDINAL="3133" NAME="?SetFDefPmt@COfdTrnBase@@QAEXH@Z" PURGE="4" COMMENT="" />
    <EXPORT ORDINAL="3134" NAME="?SetFDenyWrite@COfdFile@@QAEXH@Z" PURGE="4" COMMENT="" />
    <EXPORT ORDINAL="3135" NAME="?SetFDenyWrite@COfdPool@@QAEXH@Z" PURGE="4" COMMENT="" />
    <EXPORT ORDINAL="3136" NAME="?SetFDetectedExp@COfdPgm@@QAEXH@Z" PURGE="4" COMMENT="" />
    <EXPORT ORDINAL="3137" NAME="?SetFDisallowThirdParty@COfdFi@@QAEXH@Z" PURGE="4" COMMENT="" />
    <EXPORT ORDINAL="3138" NAME="?SetFEmpMatch@COfdAcct@@QAEXH@Z" PURGE="4" COMMENT="" />
    <EXPORT ORDINAL="3139" NAME="?SetFEmpMatchPost@COfdAcct@@QAEXH@Z" PURGE="4" COMMENT="" />
    <EXPORT ORDINAL="3140" NAME="?SetFEstimate@COfdTrnBase@@QAEXH@Z" PURGE="4" COMMENT="" />
    <EXPORT ORDINAL="3141" NAME="?SetFEuroConverted@COfdCntry@@QAEXH@Z" PURGE="4" COMMENT="" />
    <EXPORT ORDINAL="3142" NAME="?SetFEuroConvertible@COfdCntry@@QAEXH@Z" PURGE="4" COMMENT="" />
    <EXPORT ORDINAL="3143" NAME="?SetFEuroDialogDisabled@COfdSec@@QAEXH@Z" PURGE="4" COMMENT="" />
    <EXPORT ORDINAL="3144" NAME="?SetFEuroPriceDownloaded@COfdSec@@QAEXH@Z" PURGE="4" COMMENT="" />
    <EXPORT ORDINAL="3145" NAME="?SetFExpireEntered@COfdAwd@@QAEXH@Z" PURGE="4" COMMENT="" />
    <EXPORT ORDINAL="3146" NAME="?SetFExtModule@COfdFi@@QAEXH@Z" PURGE="4" COMMENT="" />
    <EXPORT ORDINAL="3147" NAME="?SetFFavorite@COfdAcct@@QAEXH@Z" PURGE="4" COMMENT="" />
    <EXPORT ORDINAL="3148" NAME="?SetFFieldFilter@COfdList@@QAEXJW4__MIDL___MIDL_itf_iofd_0112_0002@@H@Z" PURGE="12" COMMENT="" />
    <EXPORT ORDINAL="3149" NAME="?SetFFieldFilter@COfdView@@QAEXJW4__MIDL___MIDL_itf_iofd_0112_0002@@H@Z" PURGE="12" COMMENT="" />
    <EXPORT ORDINAL="3150" NAME="?SetFFileProp@COfdFile@@QAEXJH@Z" PURGE="8" COMMENT="" />
    <EXPORT ORDINAL="3151" NAME="?SetFFld@COfdObject@@QAEXJH@Z" PURGE="8" COMMENT="" />
    <EXPORT ORDINAL="3152" NAME="?SetFFract@COfdPortRec@@QAEXH@Z" PURGE="4" COMMENT="" />
    <EXPORT ORDINAL="3153" NAME="?SetFFract@COfdTrnBase@@QAEXH@Z" PURGE="4" COMMENT="" />
    <EXPORT ORDINAL="3154" NAME="?SetFFractChange@COfdPrice@@QAEXH@Z" PURGE="4" COMMENT="" />
    <EXPORT ORDINAL="3155" NAME="?SetFFractHigh@COfdPrice@@QAEXH@Z" PURGE="4" COMMENT="" />
    <EXPORT ORDINAL="3156" NAME="?SetFFractLow@COfdPrice@@QAEXH@Z" PURGE="4" COMMENT="" />
    <EXPORT ORDINAL="3157" NAME="?SetFFractOpen@COfdPrice@@QAEXH@Z" PURGE="4" COMMENT="" />
    <EXPORT ORDINAL="3158" NAME="?SetFFractPE@COfdPrice@@QAEXH@Z" PURGE="4" COMMENT="" />
    <EXPORT ORDINAL="3159" NAME="?SetFFractPrice@COfdPrice@@QAEXH@Z" PURGE="4" COMMENT="" />
    <EXPORT ORDINAL="3160" NAME="?SetFFractSplit@COfdPrice@@QAEXH@Z" PURGE="4" COMMENT="" />
    <EXPORT ORDINAL="3161" NAME="?SetFFractStrike@COfdPrice@@QAEXH@Z" PURGE="4" COMMENT="" />
    <EXPORT ORDINAL="3162" NAME="?SetFGetHistQuotes@COfdSec@@QAEXH@Z" PURGE="4" COMMENT="" />
    <EXPORT ORDINAL="3163" NAME="?SetFGotInterest@COfdAcct@@QAEXH@Z" PURGE="4" COMMENT="" />
    <EXPORT ORDINAL="3164" NAME="?SetFGotService@COfdAcct@@QAEXH@Z" PURGE="4" COMMENT="" />
    <EXPORT ORDINAL="3165" NAME="?SetFHidden@COfdCrnc@@QAEXH@Z" PURGE="4" COMMENT="" />
    <EXPORT ORDINAL="3166" NAME="?SetFHidden@COfdFi@@QAEXH@Z" PURGE="4" COMMENT="" />
    <EXPORT ORDINAL="3167" NAME="?SetFHidden@COfdPay@@QAEXH@Z" PURGE="4" COMMENT="" />
    <EXPORT ORDINAL="3168" NAME="?SetFHidden@COfdProduct@@QAEXH@Z" PURGE="4" COMMENT="" />
    <EXPORT ORDINAL="3169" NAME="?SetFHidden@COfdSec@@QAEXH@Z" PURGE="4" COMMENT="" />
    <EXPORT ORDINAL="3170" NAME="?SetFInRec@COfdAcct@@QAEXH@Z" PURGE="4" COMMENT="" />
    <EXPORT ORDINAL="3171" NAME="?SetFInclude@COfdTaxline@@QAEXH@Z" PURGE="4" COMMENT="" />
    <EXPORT ORDINAL="3172" NAME="?SetFInheritAddr@COfdTrnBase@@QAEXH@Z" PURGE="4" COMMENT="" />
    <EXPORT ORDINAL="3173" NAME="?SetFInternet@COfdProvFi@@QAEXH@Z" PURGE="4" COMMENT="" />
    <EXPORT ORDINAL="3174" NAME="?SetFInvoiceUnpaid@COfdTrnBase@@QAEXH@Z" PURGE="4" COMMENT="" />
    <EXPORT ORDINAL="3175" NAME="?SetFIueIncomplete@COfdAcct@@QAEXH@Z" PURGE="4" COMMENT="" />
    <EXPORT ORDINAL="3176" NAME="?SetFLent@COfdAcct@@QAEXH@Z" PURGE="4" COMMENT="" />
    <EXPORT ORDINAL="3177" NAME="?SetFMCAllAPIs@COfdFile@@QAEXH@Z" PURGE="4" COMMENT="" />
    <EXPORT ORDINAL="3178" NAME="?SetFMerger@COfdTrnBase@@QAEXH@Z" PURGE="4" COMMENT="" />
    <EXPORT ORDINAL="3179" NAME="?SetFNew@COfdProvFiPay@@QAEXH@Z" PURGE="4" COMMENT="" />
    <EXPORT ORDINAL="3180" NAME="?SetFNew@COfdSvc@@QAEXH@Z" PURGE="4" COMMENT="" />
    <EXPORT ORDINAL="3181" NAME="?SetFNoRecurringBill@COfdPay@@QAEXH@Z" PURGE="4" COMMENT="" />
    <EXPORT ORDINAL="3182" NAME="?SetFNotify@COfdProvFi@@QAEXH@Z" PURGE="4" COMMENT="" />
    <EXPORT ORDINAL="3183" NAME="?SetFNotify@COfdProvFiPay@@QAEXH@Z" PURGE="4" COMMENT="" />
    <EXPORT ORDINAL="3184" NAME="?SetFNotify@COfdSvc@@QAEXH@Z" PURGE="4" COMMENT="" />
    <EXPORT ORDINAL="3185" NAME="?SetFOEMDisabled@COfdFi@@QAEXH@Z" PURGE="4" COMMENT="" />
    <EXPORT ORDINAL="3186" NAME="?SetFOLQuotes@COfdSec@@QAEXH@Z" PURGE="4" COMMENT="" />
    <EXPORT ORDINAL="3187" NAME="?SetFOSURequired@COfdProvFi@@QAEXH@Z" PURGE="4" COMMENT="" />
    <EXPORT ORDINAL="3188" NAME="?SetFOnline@COfdCrnc@@QAEXH@Z" PURGE="4" COMMENT="" />
    <EXPORT ORDINAL="3189" NAME="?SetFOnlineEnabled@COfdCntry@@QAEXH@Z" PURGE="4" COMMENT="" />
    <EXPORT ORDINAL="3190" NAME="?SetFOwnersTransfer@COfdTrnBase@@QAEXH@Z" PURGE="4" COMMENT="" />
    <EXPORT ORDINAL="3191" NAME="?SetFPinChg@COfdProvFi@@QAEXH@Z" PURGE="4" COMMENT="" />
    <EXPORT ORDINAL="3192" NAME="?SetFPoolDenyWrite@COfdFile@@QAEXJH@Z" PURGE="8" COMMENT="" />
    <EXPORT ORDINAL="3193" NAME="?SetFPostponed@COfdPortRec@@QAEXH@Z" PURGE="4" COMMENT="" />
    <EXPORT ORDINAL="3194" NAME="?SetFPrint@COfdTrnBase@@QAEXH@Z" PURGE="4" COMMENT="" />
    <EXPORT ORDINAL="3195" NAME="?SetFProcessed@COfdPosStmt@@QAEXH@Z" PURGE="4" COMMENT="" />
    <EXPORT ORDINAL="3196" NAME="?SetFRead@COfdMail@@QAEXH@Z" PURGE="4" COMMENT="" />
    <EXPORT ORDINAL="3197" NAME="?SetFReadLock@COfdList@@QAEXH@Z" PURGE="4" COMMENT="" />
    <EXPORT ORDINAL="3198" NAME="?SetFReadOnly@COfdObject@@QAEXH@Z" PURGE="4" COMMENT="" />
    <EXPORT ORDINAL="3199" NAME="?SetFReconPhantom@COfdTrnBase@@QAEXH@Z" PURGE="4" COMMENT="" />
    <EXPORT ORDINAL="3200" NAME="?SetFRegDetailMode@COfdAcct@@QAEXH@Z" PURGE="4" COMMENT="" />
    <EXPORT ORDINAL="3201" NAME="?SetFRegEntryByForm@COfdAcct@@QAEXH@Z" PURGE="4" COMMENT="" />
    <EXPORT ORDINAL="3202" NAME="?SetFRegSoInc@COfdAcct@@QAEXH@Z" PURGE="4" COMMENT="" />
    <EXPORT ORDINAL="3203" NAME="?SetFReimburse@COfdTrnBase@@QAEXH@Z" PURGE="4" COMMENT="" />
    <EXPORT ORDINAL="3204" NAME="?SetFRetirement@COfdAcct@@QAEXH@Z" PURGE="4" COMMENT="" />
    <EXPORT ORDINAL="3205" NAME="?SetFSavePinSuggested@COfdProvFi@@QAEXH@Z" PURGE="4" COMMENT="" />
    <EXPORT ORDINAL="3206" NAME="?SetFSelected@COfdPortRec@@QAEXH@Z" PURGE="4" COMMENT="" />
    <EXPORT ORDINAL="3207" NAME="?SetFSelected@COfdProvFi@@QAEXH@Z" PURGE="4" COMMENT="" />
    <EXPORT ORDINAL="3208" NAME="?SetFService@COfdProduct@@QAEXH@Z" PURGE="4" COMMENT="" />
    <EXPORT ORDINAL="3209" NAME="?SetFSimple@COfdBgt@@QAEXH@Z" PURGE="4" COMMENT="" />
    <EXPORT ORDINAL="3210" NAME="?SetFSpinoff@COfdTrnBase@@QAEXH@Z" PURGE="4" COMMENT="" />
    <EXPORT ORDINAL="3211" NAME="?SetFStandAloneBillpay@COfdProvFi@@QAEXH@Z" PURGE="4" COMMENT="" />
    <EXPORT ORDINAL="3212" NAME="?SetFStmtRequested@COfdAcct@@QAEXH@Z" PURGE="4" COMMENT="" />
    <EXPORT ORDINAL="3213" NAME="?SetFStorePin@COfdProvFi@@QAEXH@Z" PURGE="4" COMMENT="" />
    <EXPORT ORDINAL="3214" NAME="?SetFSymDummy@COfdSec@@QAEXH@Z" PURGE="4" COMMENT="" />
    <EXPORT ORDINAL="3215" NAME="?SetFTax@COfdCat@@QAEXH@Z" PURGE="4" COMMENT="" />
    <EXPORT ORDINAL="3216" NAME="?SetFTax@COfdTrnBase@@QAEXH@Z" PURGE="4" COMMENT="" />
    <EXPORT ORDINAL="3217" NAME="?SetFTaxExempt@COfdSec@@QAEXH@Z" PURGE="4" COMMENT="" />
    <EXPORT ORDINAL="3218" NAME="?SetFTaxExport@COfdAcct@@QAEXH@Z" PURGE="4" COMMENT="" />
    <EXPORT ORDINAL="3219" NAME="?SetFTaxExtra@COfdTrn@@QAEXH@Z" PURGE="4" COMMENT="" />
    <EXPORT ORDINAL="3220" NAME="?SetFTaxRel@COfdAcct@@QAEXH@Z" PURGE="4" COMMENT="" />
    <EXPORT ORDINAL="3221" NAME="?SetFTaxable@COfdProduct@@QAEXH@Z" PURGE="4" COMMENT="" />
    <EXPORT ORDINAL="3222" NAME="?SetFTmi@COfdTrnBase@@QAEXH@Z" PURGE="4" COMMENT="" />
    <EXPORT ORDINAL="3223" NAME="?SetFToFi@COfdMail@@QAEXH@Z" PURGE="4" COMMENT="" />
    <EXPORT ORDINAL="3224" NAME="?SetFTrackInv@COfdProduct@@QAEXH@Z" PURGE="4" COMMENT="" />
    <EXPORT ORDINAL="3225" NAME="?SetFUpdatedForAllTables@COfdFile@@QAEXXZ" PURGE="0" COMMENT="" />
    <EXPORT ORDINAL="3226" NAME="?SetFValue@COfdCrit@@QAEXH@Z" PURGE="4" COMMENT="" />
    <EXPORT ORDINAL="3227" NAME="?SetFVatEnabled@COfdAcct@@QAEXH@Z" PURGE="4" COMMENT="" />
    <EXPORT ORDINAL="3228" NAME="?SetFVendor@COfdPay@@QAEXH@Z" PURGE="4" COMMENT="" />
    <EXPORT ORDINAL="3229" NAME="?SetFViewInCrnc@COfdSec@@QAEXH@Z" PURGE="4" COMMENT="" />
    <EXPORT ORDINAL="3230" NAME="?SetFVoid@COfdTrn@@QAEXH@Z" PURGE="4" COMMENT="" />
    <EXPORT ORDINAL="3231" NAME="?SetFWatch@COfdAcct@@QAEXH@Z" PURGE="4" COMMENT="" />
    <EXPORT ORDINAL="3232" NAME="?SetFWatch@COfdSec@@QAEXH@Z" PURGE="4" COMMENT="" />
    <EXPORT ORDINAL="3233" NAME="?SetFi@COfdAcct@@QAEXABVCOfdFi@@@Z" PURGE="4" COMMENT="" />
    <EXPORT ORDINAL="3234" NAME="?SetFi@COfdMail@@QAEXABVCOfdFi@@@Z" PURGE="4" COMMENT="" />
    <EXPORT ORDINAL="3235" NAME="?SetFi@COfdProvFi@@QAEXABVCOfdFi@@@Z" PURGE="4" COMMENT="" />
    <EXPORT ORDINAL="3236" NAME="?SetFi@COfdProvFiPay@@QAEXABVCOfdFi@@@Z" PURGE="4" COMMENT="" />
    <EXPORT ORDINAL="3237" NAME="?SetFiLast@COfdFile@@QAEXABVCOfdFi@@@Z" PURGE="4" COMMENT="" />
    <EXPORT ORDINAL="3238" NAME="?SetFieldFilter@COfdList@@QAEXJW4__MIDL___MIDL_itf_iofd_0112_0002@@VCOfdVariant@@@Z" PURGE="24" COMMENT="" />
    <EXPORT ORDINAL="3239" NAME="?SetFieldFilter@COfdView@@QAEXJW4__MIDL___MIDL_itf_iofd_0112_0002@@VCOfdVariant@@@Z" PURGE="24" COMMENT="" />
    <EXPORT ORDINAL="3240" NAME="?SetFilePpSkippedCount@COfdEngine@@QAEXPBD0J@Z" PURGE="12" COMMENT="" />
    <EXPORT ORDINAL="3241" NAME="?SetFilt@COfdCrit@@QAEXW4__MIDL___MIDL_itf_iofd_0112_0002@@@Z" PURGE="4" COMMENT="" />
    <EXPORT ORDINAL="3242" NAME="?SetFilterFlags@COfdListBill@@QAEXI@Z" PURGE="4" COMMENT="" />
    <EXPORT ORDINAL="3243" NAME="?SetFilterFlags@COfdListTrn@@QAEXI@Z" PURGE="4" COMMENT="" />
    <EXPORT ORDINAL="3244" NAME="?SetFit@COfdFi@@QAEXW4__MIDL___MIDL_itf_iofd_0157_0001@@@Z" PURGE="4" COMMENT="" />
    <EXPORT ORDINAL="3245" NAME="?SetFldRecurse@COfdList@@QAEXJ@Z" PURGE="4" COMMENT="" />
    <EXPORT ORDINAL="3246" NAME="?SetFldRecurse@COfdView@@QAEXJ@Z" PURGE="4" COMMENT="" />
    <EXPORT ORDINAL="3247" NAME="?SetFrq@COfdAcct@@QAEXW4__MIDL___MIDL_itf_iofd_0137_0014@@@Z" PURGE="4" COMMENT="" />
    <EXPORT ORDINAL="3248" NAME="?SetFrq@COfdBgt@@QAEXW4__MIDL___MIDL_itf_iofd_0137_0014@@@Z" PURGE="4" COMMENT="" />
    <EXPORT ORDINAL="3249" NAME="?SetFrq@COfdBgtItm@@QAEXW4__MIDL___MIDL_itf_iofd_0137_0014@@@Z" PURGE="4" COMMENT="" />
    <EXPORT ORDINAL="3250" NAME="?SetFrq@COfdBill@@UAEXW4__MIDL___MIDL_itf_iofd_0137_0014@@@Z" PURGE="4" COMMENT="" />
    <EXPORT ORDINAL="3251" NAME="?SetFrq@COfdStmt@@QAEXW4__MIDL___MIDL_itf_iofd_0137_0014@@@Z" PURGE="4" COMMENT="" />
    <EXPORT ORDINAL="3252" NAME="?SetFrq@COfdTrn@@UAEXW4__MIDL___MIDL_itf_iofd_0137_0014@@@Z" PURGE="4" COMMENT="" />
    <EXPORT ORDINAL="3253" NAME="?SetFrqAdj@COfdAcct@@QAEXW4__MIDL___MIDL_itf_iofd_0137_0014@@@Z" PURGE="4" COMMENT="" />
    <EXPORT ORDINAL="3254" NAME="?SetFrqCpd@COfdAcct@@QAEXW4__MIDL___MIDL_itf_iofd_0137_0014@@@Z" PURGE="4" COMMENT="" />
    <EXPORT ORDINAL="3255" NAME="?SetFrqDebtPay@COfdAcct@@QAEXW4__MIDL___MIDL_itf_iofd_0137_0014@@@Z" PURGE="4" COMMENT="" />
    <EXPORT ORDINAL="3256" NAME="?SetFrqIntPmt@COfdSec@@QAEXW4__MIDL___MIDL_itf_iofd_0137_0014@@@Z" PURGE="4" COMMENT="" />
    <EXPORT ORDINAL="3257" NAME="?SetFrqUpd@COfdProvFi@@QAEXW4__MIDL___MIDL_itf_iofd_0137_0014@@@Z" PURGE="4" COMMENT="" />
    <EXPORT ORDINAL="3258" NAME="?SetGrf@COfdUie@@QAEXJ@Z" PURGE="4" COMMENT="" />
    <EXPORT ORDINAL="3259" NAME="?SetGrf@COfdXbag@@QAEXJ@Z" PURGE="4" COMMENT="" />
    <EXPORT ORDINAL="3260" NAME="?SetGrfAdvice@COfdAcct@@QAEXJ@Z" PURGE="4" COMMENT="" />
    <EXPORT ORDINAL="3261" NAME="?SetGrfBankCap@COfdProvFi@@QAEXJ@Z" PURGE="4" COMMENT="" />
    <EXPORT ORDINAL="3262" NAME="?SetGrfBgtStep@COfdBgt@@QAEXJ@Z" PURGE="4" COMMENT="" />
    <EXPORT ORDINAL="3263" NAME="?SetGrfCalcs@COfdTrnCalcs@@QAEXW4__MIDL___MIDL_itf_iofd_0206_0001@@@Z" PURGE="4" COMMENT="" />
    <EXPORT ORDINAL="3264" NAME="?SetGrfContt@COfdPay@@QAEXJ@Z" PURGE="4" COMMENT="" />
    <EXPORT ORDINAL="3265" NAME="?SetGrfEbppFlags@COfdStmt@@QAEXJ@Z" PURGE="4" COMMENT="" />
    <EXPORT ORDINAL="3266" NAME="?SetGrfEntryMethods@COfdTrnBase@@QAEXW4__MIDL___MIDL_itf_iofd_0137_0013@@@Z" PURGE="4" COMMENT="" />
    <EXPORT ORDINAL="3267" NAME="?SetGrfInvCap@COfdProvFi@@QAEXJ@Z" PURGE="4" COMMENT="" />
    <EXPORT ORDINAL="3268" NAME="?SetGrfPmtCap@COfdProvFi@@QAEXJ@Z" PURGE="4" COMMENT="" />
    <EXPORT ORDINAL="3269" NAME="?SetGrfProvCap@COfdProvFi@@QAEXJ@Z" PURGE="4" COMMENT="" />
    <EXPORT ORDINAL="3270" NAME="?SetGrfVersion@COfdFile@@QAEXJ@Z" PURGE="4" COMMENT="" />
    <EXPORT ORDINAL="3271" NAME="?SetGrfstem@COfdTrnBase@@QAEXJ@Z" PURGE="4" COMMENT="" />
    <EXPORT ORDINAL="3272" NAME="?SetGrfsvcCurrent@COfdSvc@@QAEXJ@Z" PURGE="4" COMMENT="" />
    <EXPORT ORDINAL="3273" NAME="?SetGrfsvcOld@COfdSvc@@QAEXJ@Z" PURGE="4" COMMENT="" />
    <EXPORT ORDINAL="3274" NAME="?SetGrfsvcPending@COfdSvc@@QAEXJ@Z" PURGE="4" COMMENT="" />
    <EXPORT ORDINAL="3275" NAME="?SetGrfsvcSupported@COfdProvFi@@QAEXJ@Z" PURGE="4" COMMENT="" />
    <EXPORT ORDINAL="3276" NAME="?SetGrp@COfdAcct@@QAEXW4__MIDL___MIDL_itf_iofd_0121_0006@@@Z" PURGE="4" COMMENT="" />
    <EXPORT ORDINAL="3277" NAME="?SetHacct@COfdAuto@@QAEXJ@Z" PURGE="4" COMMENT="" />
    <EXPORT ORDINAL="3278" NAME="?SetHacct@COfdAwd@@QAEXJ@Z" PURGE="4" COMMENT="" />
    <EXPORT ORDINAL="3279" NAME="?SetHacctBonus@COfdAcct@@QAEXJ@Z" PURGE="4" COMMENT="" />
    <EXPORT ORDINAL="3280" NAME="?SetHacctMonthly@COfdAcct@@QAEXJ@Z" PURGE="4" COMMENT="" />
    <EXPORT ORDINAL="3281" NAME="?SetHcatCls1@COfdTrnBase@@QAEXJ@Z" PURGE="4" COMMENT="" />
    <EXPORT ORDINAL="3282" NAME="?SetHcatCls2@COfdTrnBase@@QAEXJ@Z" PURGE="4" COMMENT="" />
    <EXPORT ORDINAL="3283" NAME="?SetHclsKak@COfdTrnBase@@QAEXJ@Z" PURGE="4" COMMENT="" />
    <EXPORT ORDINAL="3284" NAME="?SetHcrnc@COfdCurrency@@QAEXJ@Z" PURGE="4" COMMENT="" />
    <EXPORT ORDINAL="3285" NAME="?SetHcrncOrig@COfdAcct@@QAEXJ@Z" PURGE="4" COMMENT="" />
    <EXPORT ORDINAL="3286" NAME="?SetHcrncPreRecon@COfdXbag@@QAEXJ@Z" PURGE="4" COMMENT="" />
    <EXPORT ORDINAL="3287" NAME="?SetHcrncUser@COfdStmt@@QAEXJ@Z" PURGE="4" COMMENT="" />
    <EXPORT ORDINAL="3288" NAME="?SetHcrncUser@COfdTrnBase@@QAEXJ@Z" PURGE="4" COMMENT="" />
    <EXPORT ORDINAL="3289" NAME="?SetHmco@COfdAcct@@QAEXJ@Z" PURGE="4" COMMENT="" />
    <EXPORT ORDINAL="3290" NAME="?SetHmco@COfdTrn@@QAEXJ@Z" PURGE="4" COMMENT="" />
    <EXPORT ORDINAL="3291" NAME="?SetHobjChartFilter@COfdAdv@@QAEXJ@Z" PURGE="4" COMMENT="" />
    <EXPORT ORDINAL="3292" NAME="?SetHobjFieldFilter@COfdList@@QAEXJW4__MIDL___MIDL_itf_iofd_0112_0002@@J@Z" PURGE="12" COMMENT="" />
    <EXPORT ORDINAL="3293" NAME="?SetHobjLine@COfdTaxline@@QAEXJ@Z" PURGE="4" COMMENT="" />
    <EXPORT ORDINAL="3294" NAME="?SetHobjRel@COfdXbag@@QAEXJ@Z" PURGE="4" COMMENT="" />
    <EXPORT ORDINAL="3295" NAME="?SetHpay@COfdTrnBase@@QAEXJ@Z" PURGE="4" COMMENT="" />
    <EXPORT ORDINAL="3296" NAME="?SetHpayRel@COfdStmt@@QAEXJ@Z" PURGE="4" COMMENT="" />
    <EXPORT ORDINAL="3297" NAME="?SetHpgmCur@COfdAcct@@QAEXJ@Z" PURGE="4" COMMENT="" />
    <EXPORT ORDINAL="3298" NAME="?SetHr@COfdException@@QAEXJ@Z" PURGE="4" COMMENT="" />
    <EXPORT ORDINAL="3299" NAME="?SetHsrc@COfdTxsrc@@QAEXJ@Z" PURGE="4" COMMENT="" />
    <EXPORT ORDINAL="3300" NAME="?SetHtrn@COfdXbag@@QAEXJ@Z" PURGE="4" COMMENT="" />
    <EXPORT ORDINAL="3301" NAME="?SetHtrnReimburse@COfdTrnBase@@QAEXJ@Z" PURGE="4" COMMENT="" />
    <EXPORT ORDINAL="3302" NAME="?SetHtxsrc@COfdTrnBase@@QAEXJ@Z" PURGE="4" COMMENT="" />
    <EXPORT ORDINAL="3303" NAME="?SetIItemCur@COfdList@@QAEXJ@Z" PURGE="4" COMMENT="" />
    <EXPORT ORDINAL="3304" NAME="?SetIItemCur@COfdListDel@@QAEXJ@Z" PURGE="4" COMMENT="" />
    <EXPORT ORDINAL="3305" NAME="?SetIItemCur@COfdListLotTrn@@QAEXJ@Z" PURGE="4" COMMENT="" />
    <EXPORT ORDINAL="3306" NAME="?SetIItemCur@COfdListSplit@@QAEXJ@Z" PURGE="4" COMMENT="" />
    <EXPORT ORDINAL="3307" NAME="?SetIItemCur@COfdListTrnPmts@@QAEXJ@Z" PURGE="4" COMMENT="" />
    <EXPORT ORDINAL="3308" NAME="?SetIOdoEnd@COfdTrip@@QAEXJ@Z" PURGE="4" COMMENT="" />
    <EXPORT ORDINAL="3309" NAME="?SetIOdoStart@COfdTrip@@QAEXJ@Z" PURGE="4" COMMENT="" />
    <EXPORT ORDINAL="3310" NAME="?SetIPmtMax@COfdAcct@@QAEXJ@Z" PURGE="4" COMMENT="" />
    <EXPORT ORDINAL="3311" NAME="?SetISOCountry@COfdAcct@@QAEXJ@Z" PURGE="4" COMMENT="" />
    <EXPORT ORDINAL="3312" NAME="?SetISOCountry@COfdAddr@@QAEXJ@Z" PURGE="4" COMMENT="" />
    <EXPORT ORDINAL="3313" NAME="?SetISOCountry@COfdFi@@QAEXJ@Z" PURGE="4" COMMENT="" />
    <EXPORT ORDINAL="3314" NAME="?SetISOCountry@COfdPay@@QAEXJ@Z" PURGE="4" COMMENT="" />
    <EXPORT ORDINAL="3315" NAME="?SetISOCountry@COfdProvFi@@QAEXJ@Z" PURGE="4" COMMENT="" />
    <EXPORT ORDINAL="3316" NAME="?SetISOCountry@COfdProvFiPay@@QAEXJ@Z" PURGE="4" COMMENT="" />
    <EXPORT ORDINAL="3317" NAME="?SetIinst@COfdBill@@UAEXJ@Z" PURGE="4" COMMENT="" />
    <EXPORT ORDINAL="3318" NAME="?SetIinst@COfdTrn@@UAEXJ@Z" PURGE="4" COMMENT="" />
    <EXPORT ORDINAL="3319" NAME="?SetIinstLastSkipped@COfdBill@@QAEXJ@Z" PURGE="4" COMMENT="" />
    <EXPORT ORDINAL="3320" NAME="?SetIinstNextUnpaid@COfdBill@@QAEXJ@Z" PURGE="4" COMMENT="" />
    <EXPORT ORDINAL="3321" NAME="?SetInct@COfdBrkStmt@@QAEXJ@Z" PURGE="4" COMMENT="" />
    <EXPORT ORDINAL="3322" NAME="?SetInstt@COfdTrnBase@@QAEXW4__MIDL___MIDL_itf_iofd_0137_0021@@@Z" PURGE="4" COMMENT="" />
    <EXPORT ORDINAL="3323" NAME="?SetInterface@COfdOleObject@@QAEXPAUIUnknown@@H@Z" PURGE="8" COMMENT="" />
    <EXPORT ORDINAL="3324" NAME="?SetItrn@COfdBill@@QAEXJ@Z" PURGE="4" COMMENT="" />
    <EXPORT ORDINAL="3325" NAME="?SetItrnLink@COfdBill@@QAEXJ@Z" PURGE="4" COMMENT="" />
    <EXPORT ORDINAL="3326" NAME="?SetIvty@COfdTrnBase@@QAEXABVCOfdIvty@@@Z" PURGE="4" COMMENT="" />
    <EXPORT ORDINAL="3327" NAME="?SetIvtyt@COfdIvty@@QAEXW4__MIDL___MIDL_itf_iofd_0219_0002@@@Z" PURGE="4" COMMENT="" />
    <EXPORT ORDINAL="3328" NAME="?SetLAdvCat@COfdAdv@@QAEXJ@Z" PURGE="4" COMMENT="" />
    <EXPORT ORDINAL="3329" NAME="?SetLAdvGoal@COfdAdv@@QAEXJ@Z" PURGE="4" COMMENT="" />
    <EXPORT ORDINAL="3330" NAME="?SetLAdvId@COfdAdv@@QAEXJ@Z" PURGE="4" COMMENT="" />
    <EXPORT ORDINAL="3331" NAME="?SetLAge@COfdAdv@@QAEXJ@Z" PURGE="4" COMMENT="" />
    <EXPORT ORDINAL="3332" NAME="?SetLBaseImportance@COfdAdv@@QAEXJ@Z" PURGE="4" COMMENT="" />
    <EXPORT ORDINAL="3333" NAME="?SetLBdsProvGuid@COfdProvFi@@QAEXJ@Z" PURGE="4" COMMENT="" />
    <EXPORT ORDINAL="3334" NAME="?SetLCB@COfdAcct@@QAEXJ@Z" PURGE="4" COMMENT="" />
    <EXPORT ORDINAL="3335" NAME="?SetLCurImportance@COfdAdv@@QAEXJ@Z" PURGE="4" COMMENT="" />
    <EXPORT ORDINAL="3336" NAME="?SetLDebtHtrn@COfdAcct@@QAEXJ@Z" PURGE="4" COMMENT="" />
    <EXPORT ORDINAL="3337" NAME="?SetLEbppSic@COfdStmt@@QAEXJ@Z" PURGE="4" COMMENT="" />
    <EXPORT ORDINAL="3338" NAME="?SetLFieldFilter@COfdList@@QAEXJW4__MIDL___MIDL_itf_iofd_0112_0002@@J@Z" PURGE="12" COMMENT="" />
    <EXPORT ORDINAL="3339" NAME="?SetLFieldFilter@COfdView@@QAEXJW4__MIDL___MIDL_itf_iofd_0112_0002@@J@Z" PURGE="12" COMMENT="" />
    <EXPORT ORDINAL="3340" NAME="?SetLFileProp@COfdFile@@QAEXJJ@Z" PURGE="8" COMMENT="" />
    <EXPORT ORDINAL="3341" NAME="?SetLFld@COfdObject@@QAEXJJ@Z" PURGE="8" COMMENT="" />
    <EXPORT ORDINAL="3342" NAME="?SetLIniGuid@COfdProvFi@@QAEXJ@Z" PURGE="4" COMMENT="" />
    <EXPORT ORDINAL="3343" NAME="?SetLPriority@COfdAdv@@QAEXJ@Z" PURGE="4" COMMENT="" />
    <EXPORT ORDINAL="3344" NAME="?SetLRegSo@COfdAcct@@QAEXJ@Z" PURGE="4" COMMENT="" />
    <EXPORT ORDINAL="3345" NAME="?SetLStatus@COfdAdv@@QAEXJ@Z" PURGE="4" COMMENT="" />
    <EXPORT ORDINAL="3346" NAME="?SetLStockScouterOverallRating@COfdSec@@QAEXJ@Z" PURGE="4" COMMENT="" />
    <EXPORT ORDINAL="3347" NAME="?SetLTrn@COfdCt@@QAEXJ@Z" PURGE="4" COMMENT="" />
    <EXPORT ORDINAL="3348" NAME="?SetLTrn@COfdMail@@QAEXJ@Z" PURGE="4" COMMENT="" />
    <EXPORT ORDINAL="3349" NAME="?SetLType@COfdAdv@@QAEXJ@Z" PURGE="4" COMMENT="" />
    <EXPORT ORDINAL="3350" NAME="?SetLValue@COfdCrit@@QAEXJ@Z" PURGE="4" COMMENT="" />
    <EXPORT ORDINAL="3351" NAME="?SetLcid@COfdCrnc@@QAEXJ@Z" PURGE="4" COMMENT="" />
    <EXPORT ORDINAL="3352" NAME="?SetListLotTrn@COfdTrn@@QAEXABVCOfdListLotTrn@@@Z" PURGE="4" COMMENT="" />
    <EXPORT ORDINAL="3353" NAME="?SetListTrnPmts@COfdTrn@@QAEXABVCOfdListTrnPmts@@@Z" PURGE="4" COMMENT="" />
    <EXPORT ORDINAL="3354" NAME="?SetListValue@COfdCrit@@QAEXABVCOfdList@@@Z" PURGE="4" COMMENT="" />
    <EXPORT ORDINAL="3355" NAME="?SetLott@COfdBrkStmt@@QAEXW4__MIDL___MIDL_itf_iofd_0137_0016@@@Z" PURGE="4" COMMENT="" />
    <EXPORT ORDINAL="3356" NAME="?SetLott@COfdTrnBase@@QAEXW4__MIDL___MIDL_itf_iofd_0137_0016@@@Z" PURGE="4" COMMENT="" />
    <EXPORT ORDINAL="3357" NAME="?SetLsic@COfdStmt@@QAEXJ@Z" PURGE="4" COMMENT="" />
    <EXPORT ORDINAL="3358" NAME="?SetLstepNext@COfdLstep@@QAEXABV1@@Z" PURGE="4" COMMENT="" />
    <EXPORT ORDINAL="3359" NAME="?SetMsCommitRetry@COfdFile@@QAEXJ@Z" PURGE="4" COMMENT="" />
    <EXPORT ORDINAL="3360" NAME="?SetMsCommitTimeout@COfdFile@@QAEXJ@Z" PURGE="4" COMMENT="" />
    <EXPORT ORDINAL="3361" NAME="?SetMt@COfdMail@@QAEXW4__MIDL___MIDL_itf_iofd_0181_0002@@@Z" PURGE="4" COMMENT="" />
    <EXPORT ORDINAL="3362" NAME="?SetNYear@COfdAuto@@QAEXJ@Z" PURGE="4" COMMENT="" />
    <EXPORT ORDINAL="3363" NAME="?SetNotifyEngine@COfdEngine@@QAEXPAUIOfdNotifyEngine@@@Z" PURGE="4" COMMENT="" />
    <EXPORT ORDINAL="3364" NAME="?SetNotifyFile@COfdFile@@QAEXPAUIOfdNotifyFile@@@Z" PURGE="4" COMMENT="" />
    <EXPORT ORDINAL="3365" NAME="?SetNotifyList@COfdList@@QAEXPAUIOfdNotifyList@@@Z" PURGE="4" COMMENT="" />
    <EXPORT ORDINAL="3366" NAME="?SetNotifyPool@COfdPool@@QAEXPAUIOfdNotifyPool@@@Z" PURGE="4" COMMENT="" />
    <EXPORT ORDINAL="3367" NAME="?SetNotifyWhenCanCreate@COfdEngine@@QAEXH@Z" PURGE="4" COMMENT="" />
    <EXPORT ORDINAL="3368" NAME="?SetNt@COfdUnote@@QAEXW4__MIDL___MIDL_itf_iofd_0255_0002@@@Z" PURGE="4" COMMENT="" />
    <EXPORT ORDINAL="3369" NAME="?SetObjFieldFilter@COfdList@@QAEXJW4__MIDL___MIDL_itf_iofd_0112_0002@@ABVCOfdObject@@@Z" PURGE="12" COMMENT="" />
    <EXPORT ORDINAL="3370" NAME="?SetObjFieldFilter@COfdView@@QAEXJW4__MIDL___MIDL_itf_iofd_0112_0002@@ABVCOfdObject@@@Z" PURGE="12" COMMENT="" />
    <EXPORT ORDINAL="3371" NAME="?SetObjFieldFilterFromList@COfdList@@QAEXJW4__MIDL___MIDL_itf_iofd_0112_0002@@ABV1@@Z" PURGE="12" COMMENT="" />
    <EXPORT ORDINAL="3372" NAME="?SetObjFieldFilterFromList@COfdView@@QAEXJW4__MIDL___MIDL_itf_iofd_0112_0002@@ABVCOfdList@@@Z" PURGE="12" COMMENT="" />
    <EXPORT ORDINAL="3373" NAME="?SetObjFileProp@COfdFile@@QAEXJABVCOfdObject@@@Z" PURGE="8" COMMENT="" />
    <EXPORT ORDINAL="3374" NAME="?SetObjFld@COfdObject@@QAEXJABV1@@Z" PURGE="8" COMMENT="" />
    <EXPORT ORDINAL="3375" NAME="?SetObjValue@COfdCrit@@QAEXABVCOfdObject@@@Z" PURGE="4" COMMENT="" />
    <EXPORT ORDINAL="3376" NAME="?SetOlat@COfdSvc@@QAEXJ@Z" PURGE="4" COMMENT="" />
    <EXPORT ORDINAL="3377" NAME="?SetOlatHint@COfdAcct@@QAEXW4__MIDL___MIDL_itf_iofd_0121_0005@@@Z" PURGE="4" COMMENT="" />
    <EXPORT ORDINAL="3378" NAME="?SetOldt@COfdProvFi@@QAEXW4__MIDL___MIDL_itf_iofd_0157_0003@@@Z" PURGE="4" COMMENT="" />
    <EXPORT ORDINAL="3379" NAME="?SetOlidMac@COfdFile@@QAEXJ@Z" PURGE="4" COMMENT="" />
    <EXPORT ORDINAL="3380" NAME="?SetOlst@COfdTrnBase@@QAEXW4__MIDL___MIDL_itf_iofd_0137_0012@@@Z" PURGE="4" COMMENT="" />
    <EXPORT ORDINAL="3381" NAME="?SetOltt@COfdStmt@@QAEXW4__MIDL___MIDL_itf_iofd_0137_0011@@@Z" PURGE="4" COMMENT="" />
    <EXPORT ORDINAL="3382" NAME="?SetOltt@COfdTrnBase@@QAEXW4__MIDL___MIDL_itf_iofd_0137_0011@@@Z" PURGE="4" COMMENT="" />
    <EXPORT ORDINAL="3383" NAME="?SetPassportId@COfdFile@@QAEXPBD@Z" PURGE="4" COMMENT="" />
    <EXPORT ORDINAL="3384" NAME="?SetPay@COfdProvFiPay@@QAEXABVCOfdPay@@@Z" PURGE="4" COMMENT="" />
    <EXPORT ORDINAL="3385" NAME="?SetPay@COfdTmi@@QAEXABVCOfdPay@@@Z" PURGE="4" COMMENT="" />
    <EXPORT ORDINAL="3386" NAME="?SetPay@COfdTrnBase@@QAEXABVCOfdPay@@@Z" PURGE="4" COMMENT="" />
    <EXPORT ORDINAL="3387" NAME="?SetPayParent@COfdPay@@QAEXABV1@@Z" PURGE="4" COMMENT="" />
    <EXPORT ORDINAL="3388" NAME="?SetPayt@COfdTrnBase@@QAEXW4__MIDL___MIDL_itf_iofd_0137_0017@@@Z" PURGE="4" COMMENT="" />
    <EXPORT ORDINAL="3389" NAME="?SetPgc@COfdPgm@@QAEXW4__MIDL___MIDL_itf_iofd_0230_0003@@@Z" PURGE="4" COMMENT="" />
    <EXPORT ORDINAL="3390" NAME="?SetPgm@COfdAwd@@QAEXABVCOfdPgm@@@Z" PURGE="4" COMMENT="" />
    <EXPORT ORDINAL="3391" NAME="?SetPgmt@COfdPgm@@QAEXW4__MIDL___MIDL_itf_iofd_0230_0002@@@Z" PURGE="4" COMMENT="" />
    <EXPORT ORDINAL="3392" NAME="?SetPmtt@COfdProvFiPay@@QAEXW4__MIDL___MIDL_itf_iofd_0172_0001@@@Z" PURGE="4" COMMENT="" />
    <EXPORT ORDINAL="3393" NAME="?SetPos@COfdUie@@QAEXJ@Z" PURGE="4" COMMENT="" />
    <EXPORT ORDINAL="3394" NAME="?SetPosCur@COfdListCrit@@QAEXJ@Z" PURGE="4" COMMENT="" />
    <EXPORT ORDINAL="3395" NAME="?SetPosIdForHacct@COfdSec@@QAEXJJ@Z" PURGE="8" COMMENT="" />
    <EXPORT ORDINAL="3396" NAME="?SetProd@COfdIvty@@QAEXABVCOfdProduct@@@Z" PURGE="4" COMMENT="" />
    <EXPORT ORDINAL="3397" NAME="?SetProduct@COfdTmi@@QAEXABVCOfdProduct@@@Z" PURGE="4" COMMENT="" />
    <EXPORT ORDINAL="3398" NAME="?SetProduct@COfdTrnBase@@QAEXABVCOfdProduct@@@Z" PURGE="4" COMMENT="" />
    <EXPORT ORDINAL="3399" NAME="?SetProj@COfdTrnBase@@QAEXABVCOfdProj@@@Z" PURGE="4" COMMENT="" />
    <EXPORT ORDINAL="3400" NAME="?SetProvFi@COfdProvFiPay@@QAEXABVCOfdProvFi@@@Z" PURGE="4" COMMENT="" />
    <EXPORT ORDINAL="3401" NAME="?SetProvFi@COfdSvc@@QAEXABVCOfdProvFi@@@Z" PURGE="4" COMMENT="" />
    <EXPORT ORDINAL="3402" NAME="?SetPs@COfdTrnBase@@QAEXW4__MIDL___MIDL_itf_iofd_0137_0010@@@Z" PURGE="4" COMMENT="" />
    <EXPORT ORDINAL="3403" NAME="?SetPurchaseMin@COfdAcct@@QAEXABVCOfdCurrency@@@Z" PURGE="4" COMMENT="" />
    <EXPORT ORDINAL="3404" NAME="?SetQty@COfdBrkStmt@@QAEXVCOfdDouble@@@Z" PURGE="12" COMMENT="" />
    <EXPORT ORDINAL="3405" NAME="?SetQty@COfdPosStmt@@QAEXVCOfdDouble@@@Z" PURGE="12" COMMENT="" />
    <EXPORT ORDINAL="3406" NAME="?SetQty@COfdTrnBase@@QAEXABVCOfdDouble@@@Z" PURGE="4" COMMENT="" />
    <EXPORT ORDINAL="3407" NAME="?SetQtyClosedCur@COfdListLotTrn@@QAEXABN@Z" PURGE="4" COMMENT="" />
    <EXPORT ORDINAL="3408" NAME="?SetQtyProd@COfdTrnBase@@QAEXVCOfdDouble@@@Z" PURGE="12" COMMENT="" />
    <EXPORT ORDINAL="3409" NAME="?SetRateAPR@COfdAcct@@QAEXABVCOfdDouble@@@Z" PURGE="4" COMMENT="" />
    <EXPORT ORDINAL="3410" NAME="?SetRateCalc@COfdAcct@@QAEXABVCOfdDouble@@@Z" PURGE="4" COMMENT="" />
    <EXPORT ORDINAL="3411" NAME="?SetRateUser@COfdAcct@@QAEXABVCOfdDouble@@@Z" PURGE="4" COMMENT="" />
    <EXPORT ORDINAL="3412" NAME="?SetRating@COfdSec@@QAEXW4__MIDL___MIDL_itf_iofd_0147_0004@@@Z" PURGE="4" COMMENT="" />
    <EXPORT ORDINAL="3413" NAME="?SetRdr@COfdAcct@@QAEXW4__MIDL___MIDL_itf_iofd_0121_0010@@@Z" PURGE="4" COMMENT="" />
    <EXPORT ORDINAL="3414" NAME="?SetRgbAnon@COfdProvFiPay@@QAEXABVCOfdBuffer@@@Z" PURGE="4" COMMENT="" />
    <EXPORT ORDINAL="3415" NAME="?SetRgbAnonAcct@COfdSvc@@QAEXABVCOfdBuffer@@@Z" PURGE="4" COMMENT="" />
    <EXPORT ORDINAL="3416" NAME="?SetRgbCallSumm@COfdProvFi@@QAEXABVCOfdBuffer@@@Z" PURGE="4" COMMENT="" />
    <EXPORT ORDINAL="3417" NAME="?SetRgbEntryId@COfdPay@@QAEXABVCOfdBuffer@@@Z" PURGE="4" COMMENT="" />
    <EXPORT ORDINAL="3418" NAME="?SetRgbFileProp@COfdFile@@QAEXJABVCOfdBuffer@@@Z" PURGE="8" COMMENT="" />
    <EXPORT ORDINAL="3419" NAME="?SetRgbFld@COfdObject@@QAEXJABVCOfdBuffer@@@Z" PURGE="8" COMMENT="" />
    <EXPORT ORDINAL="3420" NAME="?SetRgbFormat@COfdCrnc@@QAEXABVCOfdBuffer@@@Z" PURGE="4" COMMENT="" />
    <EXPORT ORDINAL="3421" NAME="?SetRgbLogoL@COfdProvFi@@QAEXABVCOfdBuffer@@@Z" PURGE="4" COMMENT="" />
    <EXPORT ORDINAL="3422" NAME="?SetRgbLogoS@COfdProvFi@@QAEXABVCOfdBuffer@@@Z" PURGE="4" COMMENT="" />
    <EXPORT ORDINAL="3423" NAME="?SetRgbMemos@COfdPay@@QAEXABVCOfdBuffer@@@Z" PURGE="4" COMMENT="" />
    <EXPORT ORDINAL="3424" NAME="?SetRgbPca@COfdProvFi@@QAEXABVCOfdBuffer@@@Z" PURGE="4" COMMENT="" />
    <EXPORT ORDINAL="3425" NAME="?SetRgbReceiveFileBackup@COfdProvFi@@QAEXABVCOfdBuffer@@@Z" PURGE="4" COMMENT="" />
    <EXPORT ORDINAL="3426" NAME="?SetRgbSendFileBackup@COfdProvFi@@QAEXABVCOfdBuffer@@@Z" PURGE="4" COMMENT="" />
    <EXPORT ORDINAL="3427" NAME="?SetRgbTerms@COfdPgm@@QAEXABVCOfdBuffer@@@Z" PURGE="4" COMMENT="" />
    <EXPORT ORDINAL="3428" NAME="?SetRt@COfdTrnBase@@QAEXW4__MIDL___MIDL_itf_iofd_0137_0009@@@Z" PURGE="4" COMMENT="" />
    <EXPORT ORDINAL="3429" NAME="?SetRtt@COfdAcct@@QAEXW4__MIDL___MIDL_itf_iofd_0121_0011@@@Z" PURGE="4" COMMENT="" />
    <EXPORT ORDINAL="3430" NAME="?SetRunBalHcrnc@COfdListTrn@@QAEXJ@Z" PURGE="4" COMMENT="" />
    <EXPORT ORDINAL="3431" NAME="?SetSat@COfdSec@@QAEXW4__MIDL___MIDL_itf_iofd_0147_0002@@@Z" PURGE="4" COMMENT="" />
    <EXPORT ORDINAL="3432" NAME="?SetSct@COfdBrkStmt@@QAEXW4__MIDL___MIDL_itf_iofd_0147_0001@@@Z" PURGE="4" COMMENT="" />
    <EXPORT ORDINAL="3433" NAME="?SetSct@COfdPosStmt@@QAEXW4__MIDL___MIDL_itf_iofd_0147_0001@@@Z" PURGE="4" COMMENT="" />
    <EXPORT ORDINAL="3434" NAME="?SetSct@COfdSec@@QAEXW4__MIDL___MIDL_itf_iofd_0147_0001@@@Z" PURGE="4" COMMENT="" />
    <EXPORT ORDINAL="3435" NAME="?SetSctsub@COfdSec@@QAEXW4__MIDL___MIDL_itf_iofd_0147_0003@@@Z" PURGE="4" COMMENT="" />
    <EXPORT ORDINAL="3436" NAME="?SetSec@COfdPortRec@@QAEXABVCOfdSec@@@Z" PURGE="4" COMMENT="" />
    <EXPORT ORDINAL="3437" NAME="?SetSec@COfdPrice@@QAEXABVCOfdSec@@@Z" PURGE="4" COMMENT="" />
    <EXPORT ORDINAL="3438" NAME="?SetSec@COfdSoq@@QAEXABVCOfdSec@@@Z" PURGE="4" COMMENT="" />
    <EXPORT ORDINAL="3439" NAME="?SetSec@COfdTrnBase@@QAEXABVCOfdSec@@@Z" PURGE="4" COMMENT="" />
    <EXPORT ORDINAL="3440" NAME="?SetSecLink@COfdSec@@QAEXABV1@@Z" PURGE="4" COMMENT="" />
    <EXPORT ORDINAL="3441" NAME="?SetSelected@COfdList@@QAEXH@Z" PURGE="4" COMMENT="" />
    <EXPORT ORDINAL="3442" NAME="?SetSelected@COfdListDel@@QAEXH@Z" PURGE="4" COMMENT="" />
    <EXPORT ORDINAL="3443" NAME="?SetSelected@COfdListLotTrn@@QAEXH@Z" PURGE="4" COMMENT="" />
    <EXPORT ORDINAL="3444" NAME="?SetSelected@COfdListTrnPmts@@QAEXH@Z" PURGE="4" COMMENT="" />
    <EXPORT ORDINAL="3445" NAME="?SetShipPref@COfdPay@@QAEXW4__MIDL___MIDL_itf_iofd_0197_0003@@@Z" PURGE="4" COMMENT="" />
    <EXPORT ORDINAL="3446" NAME="?SetShipPref@COfdTrnBase@@QAEXW4__MIDL___MIDL_itf_iofd_0197_0003@@@Z" PURGE="4" COMMENT="" />
    <EXPORT ORDINAL="3447" NAME="?SetSic@COfdSec@@QAEXJ@Z" PURGE="4" COMMENT="" />
    <EXPORT ORDINAL="3448" NAME="?SetSize@COfdSec@@QAEXJ@Z" PURGE="4" COMMENT="" />
    <EXPORT ORDINAL="3449" NAME="?SetSort@COfdList@@QAEXJH@Z" PURGE="8" COMMENT="" />
    <EXPORT ORDINAL="3450" NAME="?SetSort@COfdListAcct@@QAEXW4__MIDL___MIDL_itf_iofd_0121_0004@@H@Z" PURGE="8" COMMENT="" />
    <EXPORT ORDINAL="3451" NAME="?SetSort@COfdListBill@@QAEXW4__MIDL___MIDL_itf_iofd_0252_0001@@H@Z" PURGE="8" COMMENT="" />
    <EXPORT ORDINAL="3452" NAME="?SetSort@COfdListCat@@QAEXW4__MIDL___MIDL_itf_iofd_0125_0004@@H@Z" PURGE="8" COMMENT="" />
    <EXPORT ORDINAL="3453" NAME="?SetSort@COfdListCrnc@@QAEXW4__MIDL___MIDL_itf_iofd_0131_0001@@H@Z" PURGE="8" COMMENT="" />
    <EXPORT ORDINAL="3454" NAME="?SetSort@COfdListCt@@QAEXW4__MIDL___MIDL_itf_iofd_0125_0005@@H@Z" PURGE="8" COMMENT="" />
    <EXPORT ORDINAL="3455" NAME="?SetSort@COfdListFi@@QAEXW4__MIDL___MIDL_itf_iofd_0157_0004@@H@Z" PURGE="8" COMMENT="" />
    <EXPORT ORDINAL="3456" NAME="?SetSort@COfdListMail@@QAEXW4__MIDL___MIDL_itf_iofd_0181_0001@@H@Z" PURGE="8" COMMENT="" />
    <EXPORT ORDINAL="3457" NAME="?SetSort@COfdListPay@@QAEXW4__MIDL___MIDL_itf_iofd_0160_0001@@H@Z" PURGE="8" COMMENT="" />
    <EXPORT ORDINAL="3458" NAME="?SetSort@COfdListPosStmt@@QAEXW4__MIDL___MIDL_itf_iofd_0166_0001@@H@Z" PURGE="8" COMMENT="" />
    <EXPORT ORDINAL="3459" NAME="?SetSort@COfdListPrice@@QAEXW4__MIDL___MIDL_itf_iofd_0175_0002@@H@Z" PURGE="8" COMMENT="" />
    <EXPORT ORDINAL="3460" NAME="?SetSort@COfdListProvFi@@QAEXW4__MIDL___MIDL_itf_iofd_0169_0003@@H@Z" PURGE="8" COMMENT="" />
    <EXPORT ORDINAL="3461" NAME="?SetSort@COfdListProvFiPay@@QAEXW4__MIDL___MIDL_itf_iofd_0172_0002@@H@Z" PURGE="8" COMMENT="" />
    <EXPORT ORDINAL="3462" NAME="?SetSort@COfdListSec@@QAEXW4__MIDL___MIDL_itf_iofd_0147_0005@@H@Z" PURGE="8" COMMENT="" />
    <EXPORT ORDINAL="3463" NAME="?SetSort@COfdListSoq@@QAEXW4__MIDL___MIDL_itf_iofd_0225_0001@@H@Z" PURGE="8" COMMENT="" />
    <EXPORT ORDINAL="3464" NAME="?SetSort@COfdListStmt@@QAEXW4__MIDL___MIDL_itf_iofd_0163_0003@@H@Z" PURGE="8" COMMENT="" />
    <EXPORT ORDINAL="3465" NAME="?SetSort@COfdListSvc@@QAEXW4__MIDL___MIDL_itf_iofd_0154_0006@@H@Z" PURGE="8" COMMENT="" />
    <EXPORT ORDINAL="3466" NAME="?SetSort@COfdListTrn@@QAEXW4__MIDL___MIDL_itf_iofd_0137_0006@@H@Z" PURGE="8" COMMENT="" />
    <EXPORT ORDINAL="3467" NAME="?SetSort@COfdListView@@QAEXW4__MIDL___MIDL_itf_iofd_0115_0001@@H@Z" PURGE="8" COMMENT="" />
    <EXPORT ORDINAL="3468" NAME="?SetSort@COfdView@@QAEXJ@Z" PURGE="4" COMMENT="" />
    <EXPORT ORDINAL="3469" NAME="?SetSrc@COfdPrice@@QAEXW4__MIDL___MIDL_itf_iofd_0175_0003@@@Z" PURGE="4" COMMENT="" />
    <EXPORT ORDINAL="3470" NAME="?SetSrct@COfdTxsrc@@QAEXW4__MIDL___MIDL_itf_iofd_0203_0001@@@Z" PURGE="4" COMMENT="" />
    <EXPORT ORDINAL="3471" NAME="?SetSt@COfdBill@@QAEXW4__MIDL___MIDL_itf_iofd_0249_0004@@@Z" PURGE="4" COMMENT="" />
    <EXPORT ORDINAL="3472" NAME="?SetSt@COfdProj@@QAEXW4__MIDL___MIDL_itf_iofd_0213_0002@@@Z" PURGE="4" COMMENT="" />
    <EXPORT ORDINAL="3473" NAME="?SetState@COfdBuffer@@QAEXW4DATASTATE@@@Z" PURGE="4" COMMENT="" />
    <EXPORT ORDINAL="3474" NAME="?SetState@COfdDouble@@QAEXW4DATASTATE@@@Z" PURGE="4" COMMENT="" />
    <EXPORT ORDINAL="3475" NAME="?SetState@COfdOleObject@@QAEXW4DATASTATE@@@Z" PURGE="4" COMMENT="" />
    <EXPORT ORDINAL="3476" NAME="?SetState@COfdTsz@@QAEXW4DATASTATE@@@Z" PURGE="4" COMMENT="" />
    <EXPORT ORDINAL="3477" NAME="?SetStatusOnRange@COfdBill@@QAEXW4__MIDL___MIDL_itf_iofd_0249_0004@@JJ@Z" PURGE="12" COMMENT="" />
    <EXPORT ORDINAL="3478" NAME="?SetStmtRel@COfdTrnBase@@QAEXABVCOfdStmt@@@Z" PURGE="4" COMMENT="" />
    <EXPORT ORDINAL="3479" NAME="?SetStmtt@COfdBrkStmt@@QAEXW4__MIDL___MIDL_itf_iofd_0163_0001@@@Z" PURGE="4" COMMENT="" />
    <EXPORT ORDINAL="3480" NAME="?SetStmtt@COfdStmt@@QAEXW4__MIDL___MIDL_itf_iofd_0163_0001@@@Z" PURGE="4" COMMENT="" />
    <EXPORT ORDINAL="3481" NAME="?SetStringTranslation@COfdFile@@QAEXW4__MIDL___MIDL_itf_iofd_0110_0003@@@Z" PURGE="4" COMMENT="" />
    <EXPORT ORDINAL="3482" NAME="?SetSubelt@COfdUie@@QAEXJ@Z" PURGE="4" COMMENT="" />
    <EXPORT ORDINAL="3483" NAME="?SetTaat@COfdAcct@@QAEXW4__MIDL___MIDL_itf_iofd_0230_0006@@@Z" PURGE="4" COMMENT="" />
    <EXPORT ORDINAL="3484" NAME="?SetTbl@COfdXbag@@QAEXJ@Z" PURGE="4" COMMENT="" />
    <EXPORT ORDINAL="3485" NAME="?SetTblChartFilter@COfdAdv@@QAEXJ@Z" PURGE="4" COMMENT="" />
    <EXPORT ORDINAL="3486" NAME="?SetTds@COfdTaxline@@QAEXW4__MIDL___MIDL_itf_iofd_0207_0001@@@Z" PURGE="4" COMMENT="" />
    <EXPORT ORDINAL="3487" NAME="?SetTef@COfdTrnBase@@QAEXW4__MIDL___MIDL_itf_iofd_0137_0023@@@Z" PURGE="4" COMMENT="" />
    <EXPORT ORDINAL="3488" NAME="?SetTerms@COfdPay@@QAEXW4__MIDL___MIDL_itf_iofd_0197_0002@@@Z" PURGE="4" COMMENT="" />
    <EXPORT ORDINAL="3489" NAME="?SetTerms@COfdTrnBase@@QAEXW4__MIDL___MIDL_itf_iofd_0197_0002@@@Z" PURGE="4" COMMENT="" />
    <EXPORT ORDINAL="3490" NAME="?SetTheme@COfdUie@@QAEXJ@Z" PURGE="4" COMMENT="" />
    <EXPORT ORDINAL="3491" NAME="?SetTmi@COfdTrnBase@@QAEXABVCOfdObject@@@Z" PURGE="4" COMMENT="" />
    <EXPORT ORDINAL="3492" NAME="?SetTreeViewArgs@COfdCrit@@QAEXJJJJ@Z" PURGE="16" COMMENT="" />
    <EXPORT ORDINAL="3493" NAME="?SetTreeViewArgs@COfdView@@QAEXJJJJ@Z" PURGE="16" COMMENT="" />
    <EXPORT ORDINAL="3494" NAME="?SetTszAcctNum@COfdPay@@QAEXPBD@Z" PURGE="4" COMMENT="" />
    <EXPORT ORDINAL="3495" NAME="?SetTszAcctNumAlias@COfdSvc@@QAEXPBD@Z" PURGE="4" COMMENT="" />
    <EXPORT ORDINAL="3496" NAME="?SetTszAcctSyncToken@COfdProvFi@@QAEXPBD@Z" PURGE="4" COMMENT="" />
    <EXPORT ORDINAL="3497" NAME="?SetTszActiveStmtURL@COfdFi@@QAEXPBD@Z" PURGE="4" COMMENT="" />
    <EXPORT ORDINAL="3498" NAME="?SetTszAddr1@COfdAcct@@QAEXPBD@Z" PURGE="4" COMMENT="" />
    <EXPORT ORDINAL="3499" NAME="?SetTszAddr1@COfdAddr@@QAEXPBD@Z" PURGE="4" COMMENT="" />
    <EXPORT ORDINAL="3500" NAME="?SetTszAddr1@COfdFi@@QAEXPBD@Z" PURGE="4" COMMENT="" />
    <EXPORT ORDINAL="3501" NAME="?SetTszAddr1@COfdPay@@QAEXPBD@Z" PURGE="4" COMMENT="" />
    <EXPORT ORDINAL="3502" NAME="?SetTszAddr1@COfdProvFi@@QAEXPBD@Z" PURGE="4" COMMENT="" />
    <EXPORT ORDINAL="3503" NAME="?SetTszAddr1@COfdProvFiPay@@QAEXPBD@Z" PURGE="4" COMMENT="" />
    <EXPORT ORDINAL="3504" NAME="?SetTszAddr2@COfdAcct@@QAEXPBD@Z" PURGE="4" COMMENT="" />
    <EXPORT ORDINAL="3505" NAME="?SetTszAddr2@COfdAddr@@QAEXPBD@Z" PURGE="4" COMMENT="" />
    <EXPORT ORDINAL="3506" NAME="?SetTszAddr2@COfdFi@@QAEXPBD@Z" PURGE="4" COMMENT="" />
    <EXPORT ORDINAL="3507" NAME="?SetTszAddr2@COfdPay@@QAEXPBD@Z" PURGE="4" COMMENT="" />
    <EXPORT ORDINAL="3508" NAME="?SetTszAddr2@COfdProvFi@@QAEXPBD@Z" PURGE="4" COMMENT="" />
    <EXPORT ORDINAL="3509" NAME="?SetTszAddr2@COfdProvFiPay@@QAEXPBD@Z" PURGE="4" COMMENT="" />
    <EXPORT ORDINAL="3510" NAME="?SetTszAddr3@COfdAcct@@QAEXPBD@Z" PURGE="4" COMMENT="" />
    <EXPORT ORDINAL="3511" NAME="?SetTszAddr3@COfdAddr@@QAEXPBD@Z" PURGE="4" COMMENT="" />
    <EXPORT ORDINAL="3512" NAME="?SetTszAddr3@COfdFi@@QAEXPBD@Z" PURGE="4" COMMENT="" />
    <EXPORT ORDINAL="3513" NAME="?SetTszAddr3@COfdPay@@QAEXPBD@Z" PURGE="4" COMMENT="" />
    <EXPORT ORDINAL="3514" NAME="?SetTszAddr3@COfdProvFi@@QAEXPBD@Z" PURGE="4" COMMENT="" />
    <EXPORT ORDINAL="3515" NAME="?SetTszAddr3@COfdProvFiPay@@QAEXPBD@Z" PURGE="4" COMMENT="" />
    <EXPORT ORDINAL="3516" NAME="?SetTszAddrEmail@COfdAcct@@QAEXPBD@Z" PURGE="4" COMMENT="" />
    <EXPORT ORDINAL="3517" NAME="?SetTszAddrEmail@COfdAddr@@QAEXPBD@Z" PURGE="4" COMMENT="" />
    <EXPORT ORDINAL="3518" NAME="?SetTszAddrEmail@COfdFi@@QAEXPBD@Z" PURGE="4" COMMENT="" />
    <EXPORT ORDINAL="3519" NAME="?SetTszAddrEmail@COfdPay@@QAEXPBD@Z" PURGE="4" COMMENT="" />
    <EXPORT ORDINAL="3520" NAME="?SetTszAddrEmail@COfdProvFi@@QAEXPBD@Z" PURGE="4" COMMENT="" />
    <EXPORT ORDINAL="3521" NAME="?SetTszAddrEmail@COfdProvFiPay@@QAEXPBD@Z" PURGE="4" COMMENT="" />
    <EXPORT ORDINAL="3522" NAME="?SetTszAls@COfdAcct@@QAEXPBD@Z" PURGE="4" COMMENT="" />
    <EXPORT ORDINAL="3523" NAME="?SetTszAls@COfdCat@@QAEXPBD@Z" PURGE="4" COMMENT="" />
    <EXPORT ORDINAL="3524" NAME="?SetTszAls@COfdPay@@QAEXPBD@Z" PURGE="4" COMMENT="" />
    <EXPORT ORDINAL="3525" NAME="?SetTszApayModelId@COfdStmt@@QAEXPBD@Z" PURGE="4" COMMENT="" />
    <EXPORT ORDINAL="3526" NAME="?SetTszApayModelId@COfdTrnBase@@QAEXPBD@Z" PURGE="4" COMMENT="" />
    <EXPORT ORDINAL="3527" NAME="?SetTszAutoASFID@COfdFi@@QAEXPBD@Z" PURGE="4" COMMENT="" />
    <EXPORT ORDINAL="3528" NAME="?SetTszAutoASURL@COfdFi@@QAEXPBD@Z" PURGE="4" COMMENT="" />
    <EXPORT ORDINAL="3529" NAME="?SetTszAutoASURLHelp@COfdFi@@QAEXPBD@Z" PURGE="4" COMMENT="" />
    <EXPORT ORDINAL="3530" NAME="?SetTszAutoASUserID@COfdFi@@QAEXPBD@Z" PURGE="4" COMMENT="" />
    <EXPORT ORDINAL="3531" NAME="?SetTszBackup@COfdFile@@QAEXPBD@Z" PURGE="4" COMMENT="" />
    <EXPORT ORDINAL="3532" NAME="?SetTszBankAdPath@COfdFi@@QAEXPBD@Z" PURGE="4" COMMENT="" />
    <EXPORT ORDINAL="3533" NAME="?SetTszBankAdURL@COfdFi@@QAEXPBD@Z" PURGE="4" COMMENT="" />
    <EXPORT ORDINAL="3534" NAME="?SetTszBankId@COfdPay@@QAEXPBD@Z" PURGE="4" COMMENT="" />
    <EXPORT ORDINAL="3535" NAME="?SetTszBankId@COfdSvc@@QAEXPBD@Z" PURGE="4" COMMENT="" />
    <EXPORT ORDINAL="3536" NAME="?SetTszBankIdTo@COfdStmt@@QAEXPBD@Z" PURGE="4" COMMENT="" />
    <EXPORT ORDINAL="3537" NAME="?SetTszBankMailSyncToken@COfdSvc@@QAEXPBD@Z" PURGE="4" COMMENT="" />
    <EXPORT ORDINAL="3538" NAME="?SetTszBdsId@COfdFi@@QAEXPBD@Z" PURGE="4" COMMENT="" />
    <EXPORT ORDINAL="3539" NAME="?SetTszBody@COfdMail@@QAEXPBD@Z" PURGE="4" COMMENT="" />
    <EXPORT ORDINAL="3540" NAME="?SetTszBranchId@COfdPay@@QAEXPBD@Z" PURGE="4" COMMENT="" />
    <EXPORT ORDINAL="3541" NAME="?SetTszBranchId@COfdSvc@@QAEXPBD@Z" PURGE="4" COMMENT="" />
    <EXPORT ORDINAL="3542" NAME="?SetTszBranchIdTo@COfdStmt@@QAEXPBD@Z" PURGE="4" COMMENT="" />
    <EXPORT ORDINAL="3543" NAME="?SetTszBrokerId@COfdProvFi@@QAEXPBD@Z" PURGE="4" COMMENT="" />
    <EXPORT ORDINAL="3544" NAME="?SetTszCCNum@COfdPay@@QAEXPBD@Z" PURGE="4" COMMENT="" />
    <EXPORT ORDINAL="3545" NAME="?SetTszCellPhone@COfdPay@@QAEXPBD@Z" PURGE="4" COMMENT="" />
    <EXPORT ORDINAL="3546" NAME="?SetTszCity@COfdAcct@@QAEXPBD@Z" PURGE="4" COMMENT="" />
    <EXPORT ORDINAL="3547" NAME="?SetTszCity@COfdAddr@@QAEXPBD@Z" PURGE="4" COMMENT="" />
    <EXPORT ORDINAL="3548" NAME="?SetTszCity@COfdFi@@QAEXPBD@Z" PURGE="4" COMMENT="" />
    <EXPORT ORDINAL="3549" NAME="?SetTszCity@COfdPay@@QAEXPBD@Z" PURGE="4" COMMENT="" />
    <EXPORT ORDINAL="3550" NAME="?SetTszCity@COfdProvFi@@QAEXPBD@Z" PURGE="4" COMMENT="" />
    <EXPORT ORDINAL="3551" NAME="?SetTszCity@COfdProvFiPay@@QAEXPBD@Z" PURGE="4" COMMENT="" />
    <EXPORT ORDINAL="3552" NAME="?SetTszClientId@COfdStmt@@QAEXPBD@Z" PURGE="4" COMMENT="" />
    <EXPORT ORDINAL="3553" NAME="?SetTszClientId@COfdTrnBase@@QAEXPBD@Z" PURGE="4" COMMENT="" />
    <EXPORT ORDINAL="3554" NAME="?SetTszClsidSubstituteComm@COfdProvFi@@QAEXPBD@Z" PURGE="4" COMMENT="" />
    <EXPORT ORDINAL="3555" NAME="?SetTszCode@COfdCntry@@QAEXPBD@Z" PURGE="4" COMMENT="" />
    <EXPORT ORDINAL="3556" NAME="?SetTszComment@COfdAcct@@QAEXPBD@Z" PURGE="4" COMMENT="" />
    <EXPORT ORDINAL="3557" NAME="?SetTszComment@COfdCat@@QAEXPBD@Z" PURGE="4" COMMENT="" />
    <EXPORT ORDINAL="3558" NAME="?SetTszComment@COfdFi@@QAEXPBD@Z" PURGE="4" COMMENT="" />
    <EXPORT ORDINAL="3559" NAME="?SetTszComment@COfdPay@@QAEXPBD@Z" PURGE="4" COMMENT="" />
    <EXPORT ORDINAL="3560" NAME="?SetTszComment@COfdSec@@QAEXPBD@Z" PURGE="4" COMMENT="" />
    <EXPORT ORDINAL="3561" NAME="?SetTszCompanyName@COfdPay@@QAEXPBD@Z" PURGE="4" COMMENT="" />
    <EXPORT ORDINAL="3562" NAME="?SetTszContact@COfdAcct@@QAEXPBD@Z" PURGE="4" COMMENT="" />
    <EXPORT ORDINAL="3563" NAME="?SetTszContact@COfdPay@@QAEXPBD@Z" PURGE="4" COMMENT="" />
    <EXPORT ORDINAL="3564" NAME="?SetTszContact@COfdTrip@@QAEXPBD@Z" PURGE="4" COMMENT="" />
    <EXPORT ORDINAL="3565" NAME="?SetTszCountry@COfdAcct@@QAEXPBD@Z" PURGE="4" COMMENT="" />
    <EXPORT ORDINAL="3566" NAME="?SetTszCountry@COfdAddr@@QAEXPBD@Z" PURGE="4" COMMENT="" />
    <EXPORT ORDINAL="3567" NAME="?SetTszCountry@COfdFi@@QAEXPBD@Z" PURGE="4" COMMENT="" />
    <EXPORT ORDINAL="3568" NAME="?SetTszCountry@COfdPay@@QAEXPBD@Z" PURGE="4" COMMENT="" />
    <EXPORT ORDINAL="3569" NAME="?SetTszCountry@COfdProvFi@@QAEXPBD@Z" PURGE="4" COMMENT="" />
    <EXPORT ORDINAL="3570" NAME="?SetTszCountry@COfdProvFiPay@@QAEXPBD@Z" PURGE="4" COMMENT="" />
    <EXPORT ORDINAL="3571" NAME="?SetTszCusip@COfdSec@@QAEXPBD@Z" PURGE="4" COMMENT="" />
    <EXPORT ORDINAL="3572" NAME="?SetTszDesc@COfdProduct@@QAEXPBD@Z" PURGE="4" COMMENT="" />
    <EXPORT ORDINAL="3573" NAME="?SetTszDesc@COfdProj@@QAEXPBD@Z" PURGE="4" COMMENT="" />
    <EXPORT ORDINAL="3574" NAME="?SetTszDesc@COfdTmi@@QAEXPBD@Z" PURGE="4" COMMENT="" />
    <EXPORT ORDINAL="3575" NAME="?SetTszDesc@COfdUie@@QAEXPBD@Z" PURGE="4" COMMENT="" />
    <EXPORT ORDINAL="3576" NAME="?SetTszDest@COfdTrip@@QAEXPBD@Z" PURGE="4" COMMENT="" />
    <EXPORT ORDINAL="3577" NAME="?SetTszEbppFitid@COfdTrnBase@@QAEXPBD@Z" PURGE="4" COMMENT="" />
    <EXPORT ORDINAL="3578" NAME="?SetTszEbppImageURL@COfdStmt@@QAEXPBD@Z" PURGE="4" COMMENT="" />
    <EXPORT ORDINAL="3579" NAME="?SetTszEbppImageURL@COfdTrnBase@@QAEXPBD@Z" PURGE="4" COMMENT="" />
    <EXPORT ORDINAL="3580" NAME="?SetTszEbppInstanceId@COfdStmt@@QAEXPBD@Z" PURGE="4" COMMENT="" />
    <EXPORT ORDINAL="3581" NAME="?SetTszEbppModelId@COfdStmt@@QAEXPBD@Z" PURGE="4" COMMENT="" />
    <EXPORT ORDINAL="3582" NAME="?SetTszEbppModelId@COfdTrnBase@@QAEXPBD@Z" PURGE="4" COMMENT="" />
    <EXPORT ORDINAL="3583" NAME="?SetTszEbppPay@COfdStmt@@QAEXPBD@Z" PURGE="4" COMMENT="" />
    <EXPORT ORDINAL="3584" NAME="?SetTszEbppPmtAcctNum@COfdStmt@@QAEXPBD@Z" PURGE="4" COMMENT="" />
    <EXPORT ORDINAL="3585" NAME="?SetTszEbppPmtBankId@COfdStmt@@QAEXPBD@Z" PURGE="4" COMMENT="" />
    <EXPORT ORDINAL="3586" NAME="?SetTszEbppPmtBranchId@COfdStmt@@QAEXPBD@Z" PURGE="4" COMMENT="" />
    <EXPORT ORDINAL="3587" NAME="?SetTszEbppPmtId@COfdStmt@@QAEXPBD@Z" PURGE="4" COMMENT="" />
    <EXPORT ORDINAL="3588" NAME="?SetTszEbppPmtId@COfdTrnBase@@QAEXPBD@Z" PURGE="4" COMMENT="" />
    <EXPORT ORDINAL="3589" NAME="?SetTszExchg@COfdSec@@QAEXPBD@Z" PURGE="4" COMMENT="" />
    <EXPORT ORDINAL="3590" NAME="?SetTszFax@COfdAcct@@QAEXPBD@Z" PURGE="4" COMMENT="" />
    <EXPORT ORDINAL="3591" NAME="?SetTszFax@COfdAddr@@QAEXPBD@Z" PURGE="4" COMMENT="" />
    <EXPORT ORDINAL="3592" NAME="?SetTszFax@COfdFi@@QAEXPBD@Z" PURGE="4" COMMENT="" />
    <EXPORT ORDINAL="3593" NAME="?SetTszFax@COfdPay@@QAEXPBD@Z" PURGE="4" COMMENT="" />
    <EXPORT ORDINAL="3594" NAME="?SetTszFax@COfdProvFi@@QAEXPBD@Z" PURGE="4" COMMENT="" />
    <EXPORT ORDINAL="3595" NAME="?SetTszFax@COfdProvFiPay@@QAEXPBD@Z" PURGE="4" COMMENT="" />
    <EXPORT ORDINAL="3596" NAME="?SetTszFaxAddr@COfdAcct@@QAEXPBD@Z" PURGE="4" COMMENT="" />
    <EXPORT ORDINAL="3597" NAME="?SetTszFiStmtId@COfdStmt@@QAEXPBD@Z" PURGE="4" COMMENT="" />
    <EXPORT ORDINAL="3598" NAME="?SetTszFiStmtId@COfdTrnBase@@QAEXPBD@Z" PURGE="4" COMMENT="" />
    <EXPORT ORDINAL="3599" NAME="?SetTszFiURL@COfdProvFi@@QAEXPBD@Z" PURGE="4" COMMENT="" />
    <EXPORT ORDINAL="3600" NAME="?SetTszFieldFilter@COfdList@@QAEXJW4__MIDL___MIDL_itf_iofd_0112_0002@@PBD@Z" PURGE="12" COMMENT="" />
    <EXPORT ORDINAL="3601" NAME="?SetTszFieldFilter@COfdView@@QAEXJW4__MIDL___MIDL_itf_iofd_0112_0002@@PBD@Z" PURGE="12" COMMENT="" />
    <EXPORT ORDINAL="3602" NAME="?SetTszFileId@COfdProvFi@@QAEXPBD@Z" PURGE="4" COMMENT="" />
    <EXPORT ORDINAL="3603" NAME="?SetTszFileProp@COfdFile@@QAEXJPBD@Z" PURGE="8" COMMENT="" />
    <EXPORT ORDINAL="3604" NAME="?SetTszFileUID@COfdProvFi@@QAEXPBD@Z" PURGE="4" COMMENT="" />
    <EXPORT ORDINAL="3605" NAME="?SetTszFld@COfdObject@@QAEXJPBD@Z" PURGE="8" COMMENT="" />
    <EXPORT ORDINAL="3606" NAME="?SetTszFreeForm@COfdAcct@@QAEXPBD@Z" PURGE="4" COMMENT="" />
    <EXPORT ORDINAL="3607" NAME="?SetTszFreeForm@COfdAddr@@QAEXPBD@Z" PURGE="4" COMMENT="" />
    <EXPORT ORDINAL="3608" NAME="?SetTszFreeForm@COfdFi@@QAEXPBD@Z" PURGE="4" COMMENT="" />
    <EXPORT ORDINAL="3609" NAME="?SetTszFreeForm@COfdPay@@QAEXPBD@Z" PURGE="4" COMMENT="" />
    <EXPORT ORDINAL="3610" NAME="?SetTszFreeForm@COfdProvFi@@QAEXPBD@Z" PURGE="4" COMMENT="" />
    <EXPORT ORDINAL="3611" NAME="?SetTszFreeForm@COfdProvFiPay@@QAEXPBD@Z" PURGE="4" COMMENT="" />
    <EXPORT ORDINAL="3612" NAME="?SetTszFrom@COfdMail@@QAEXPBD@Z" PURGE="4" COMMENT="" />
    <EXPORT ORDINAL="3613" NAME="?SetTszFull2@COfdCt@@QAEXPBD@Z" PURGE="4" COMMENT="" />
    <EXPORT ORDINAL="3614" NAME="?SetTszFull@COfdAcct@@QAEXPBD@Z" PURGE="4" COMMENT="" />
    <EXPORT ORDINAL="3615" NAME="?SetTszFull@COfdBgt@@QAEXPBD@Z" PURGE="4" COMMENT="" />
    <EXPORT ORDINAL="3616" NAME="?SetTszFull@COfdBgtBkt@@QAEXPBD@Z" PURGE="4" COMMENT="" />
    <EXPORT ORDINAL="3617" NAME="?SetTszFull@COfdBgtItm@@QAEXPBD@Z" PURGE="4" COMMENT="" />
    <EXPORT ORDINAL="3618" NAME="?SetTszFull@COfdCat@@QAEXPBD@Z" PURGE="4" COMMENT="" />
    <EXPORT ORDINAL="3619" NAME="?SetTszFull@COfdCntry@@QAEXPBD@Z" PURGE="4" COMMENT="" />
    <EXPORT ORDINAL="3620" NAME="?SetTszFull@COfdCt@@QAEXPBD@Z" PURGE="4" COMMENT="" />
    <EXPORT ORDINAL="3621" NAME="?SetTszFull@COfdFi@@QAEXPBD@Z" PURGE="4" COMMENT="" />
    <EXPORT ORDINAL="3622" NAME="?SetTszFull@COfdPay@@QAEXPBD@Z" PURGE="4" COMMENT="" />
    <EXPORT ORDINAL="3623" NAME="?SetTszFull@COfdPgm@@QAEXPBD@Z" PURGE="4" COMMENT="" />
    <EXPORT ORDINAL="3624" NAME="?SetTszFull@COfdProduct@@QAEXPBD@Z" PURGE="4" COMMENT="" />
    <EXPORT ORDINAL="3625" NAME="?SetTszFull@COfdProj@@QAEXPBD@Z" PURGE="4" COMMENT="" />
    <EXPORT ORDINAL="3626" NAME="?SetTszFull@COfdProvFi@@QAEXPBD@Z" PURGE="4" COMMENT="" />
    <EXPORT ORDINAL="3627" NAME="?SetTszFull@COfdSavGoal@@QAEXPBD@Z" PURGE="4" COMMENT="" />
    <EXPORT ORDINAL="3628" NAME="?SetTszFull@COfdSec@@QAEXPBD@Z" PURGE="4" COMMENT="" />
    <EXPORT ORDINAL="3629" NAME="?SetTszGuid@COfdAcct@@QAEXPBD@Z" PURGE="4" COMMENT="" />
    <EXPORT ORDINAL="3630" NAME="?SetTszGuid@COfdBill@@QAEXPBD@Z" PURGE="4" COMMENT="" />
    <EXPORT ORDINAL="3631" NAME="?SetTszGuid@COfdCrnc@@QAEXPBD@Z" PURGE="4" COMMENT="" />
    <EXPORT ORDINAL="3632" NAME="?SetTszGuid@COfdLot@@QAEXPBD@Z" PURGE="4" COMMENT="" />
    <EXPORT ORDINAL="3633" NAME="?SetTszGuid@COfdPay@@QAEXPBD@Z" PURGE="4" COMMENT="" />
    <EXPORT ORDINAL="3634" NAME="?SetTszGuid@COfdSoq@@QAEXPBD@Z" PURGE="4" COMMENT="" />
    <EXPORT ORDINAL="3635" NAME="?SetTszGuid@COfdTrnBase@@QAEXPBD@Z" PURGE="4" COMMENT="" />
    <EXPORT ORDINAL="3636" NAME="?SetTszGuidAcctMC@COfdAcct@@QAEXPBD@Z" PURGE="4" COMMENT="" />
    <EXPORT ORDINAL="3637" NAME="?SetTszId@COfdAcct@@QAEXPBD@Z" PURGE="4" COMMENT="" />
    <EXPORT ORDINAL="3638" NAME="?SetTszId@COfdAddr@@QAEXPBD@Z" PURGE="4" COMMENT="" />
    <EXPORT ORDINAL="3639" NAME="?SetTszId@COfdFi@@QAEXPBD@Z" PURGE="4" COMMENT="" />
    <EXPORT ORDINAL="3640" NAME="?SetTszId@COfdPay@@QAEXPBD@Z" PURGE="4" COMMENT="" />
    <EXPORT ORDINAL="3641" NAME="?SetTszId@COfdProvFi@@QAEXPBD@Z" PURGE="4" COMMENT="" />
    <EXPORT ORDINAL="3642" NAME="?SetTszId@COfdProvFiPay@@QAEXPBD@Z" PURGE="4" COMMENT="" />
    <EXPORT ORDINAL="3643" NAME="?SetTszId@COfdStmt@@QAEXPBD@Z" PURGE="4" COMMENT="" />
    <EXPORT ORDINAL="3644" NAME="?SetTszId@COfdTrnBase@@QAEXPBD@Z" PURGE="4" COMMENT="" />
    <EXPORT ORDINAL="3645" NAME="?SetTszId@COfdXbag@@QAEXPBD@Z" PURGE="4" COMMENT="" />
    <EXPORT ORDINAL="3646" NAME="?SetTszIdPrint@COfdAcct@@QAEXPBD@Z" PURGE="4" COMMENT="" />
    <EXPORT ORDINAL="3647" NAME="?SetTszImageURL@COfdUie@@QAEXPBD@Z" PURGE="4" COMMENT="" />
    <EXPORT ORDINAL="3648" NAME="?SetTszInfoHtmlPath@COfdProvFi@@QAEXPBD@Z" PURGE="4" COMMENT="" />
    <EXPORT ORDINAL="3649" NAME="?SetTszIntlChkSum@COfdPay@@QAEXPBD@Z" PURGE="4" COMMENT="" />
    <EXPORT ORDINAL="3650" NAME="?SetTszIntlChkSum@COfdSvc@@QAEXPBD@Z" PURGE="4" COMMENT="" />
    <EXPORT ORDINAL="3651" NAME="?SetTszIntlChkSumTo@COfdStmt@@QAEXPBD@Z" PURGE="4" COMMENT="" />
    <EXPORT ORDINAL="3652" NAME="?SetTszIntraSyncToken@COfdSvc@@QAEXPBD@Z" PURGE="4" COMMENT="" />
    <EXPORT ORDINAL="3653" NAME="?SetTszInvMailSyncToken@COfdSvc@@QAEXPBD@Z" PURGE="4" COMMENT="" />
    <EXPORT ORDINAL="3654" NAME="?SetTszIsoCode@COfdCrnc@@QAEXPBD@Z" PURGE="4" COMMENT="" />
    <EXPORT ORDINAL="3655" NAME="?SetTszIssuer@COfdSec@@QAEXPBD@Z" PURGE="4" COMMENT="" />
    <EXPORT ORDINAL="3656" NAME="?SetTszItem@COfdUie@@QAEXPBD@Z" PURGE="4" COMMENT="" />
    <EXPORT ORDINAL="3657" NAME="?SetTszLic@COfdAuto@@QAEXPBD@Z" PURGE="4" COMMENT="" />
    <EXPORT ORDINAL="3658" NAME="?SetTszLinkURL@COfdUie@@QAEXPBD@Z" PURGE="4" COMMENT="" />
    <EXPORT ORDINAL="3659" NAME="?SetTszList@COfdCt@@QAEXPBD@Z" PURGE="4" COMMENT="" />
    <EXPORT ORDINAL="3660" NAME="?SetTszMCId@COfdAcct@@QAEXPBD@Z" PURGE="4" COMMENT="" />
    <EXPORT ORDINAL="3661" NAME="?SetTszMailSyncToken@COfdProvFi@@QAEXPBD@Z" PURGE="4" COMMENT="" />
    <EXPORT ORDINAL="3662" NAME="?SetTszMake@COfdAuto@@QAEXPBD@Z" PURGE="4" COMMENT="" />
    <EXPORT ORDINAL="3663" NAME="?SetTszMemo@COfdAwd@@QAEXPBD@Z" PURGE="4" COMMENT="" />
    <EXPORT ORDINAL="3664" NAME="?SetTszMemo@COfdIvty@@QAEXPBD@Z" PURGE="4" COMMENT="" />
    <EXPORT ORDINAL="3665" NAME="?SetTszMemo@COfdPgm@@QAEXPBD@Z" PURGE="4" COMMENT="" />
    <EXPORT ORDINAL="3666" NAME="?SetTszMemo@COfdStmt@@QAEXPBD@Z" PURGE="4" COMMENT="" />
    <EXPORT ORDINAL="3667" NAME="?SetTszMemo@COfdTrnBase@@QAEXPBD@Z" PURGE="4" COMMENT="" />
    <EXPORT ORDINAL="3668" NAME="?SetTszMemo@COfdXbag@@QAEXPBD@Z" PURGE="4" COMMENT="" />
    <EXPORT ORDINAL="3669" NAME="?SetTszMid@COfdCt@@QAEXPBD@Z" PURGE="4" COMMENT="" />
    <EXPORT ORDINAL="3670" NAME="?SetTszModel@COfdAuto@@QAEXPBD@Z" PURGE="4" COMMENT="" />
    <EXPORT ORDINAL="3671" NAME="?SetTszName@COfdCrnc@@QAEXPBD@Z" PURGE="4" COMMENT="" />
    <EXPORT ORDINAL="3672" NAME="?SetTszName@COfdPosStmt@@QAEXPBD@Z" PURGE="4" COMMENT="" />
    <EXPORT ORDINAL="3673" NAME="?SetTszName@COfdView@@QAEXPBD@Z" PURGE="4" COMMENT="" />
    <EXPORT ORDINAL="3674" NAME="?SetTszNamePay@COfdStmt@@QAEXPBD@Z" PURGE="4" COMMENT="" />
    <EXPORT ORDINAL="3675" NAME="?SetTszNameUserFirst@COfdAcct@@QAEXPBD@Z" PURGE="4" COMMENT="" />
    <EXPORT ORDINAL="3676" NAME="?SetTszNameUserFirst@COfdAddr@@QAEXPBD@Z" PURGE="4" COMMENT="" />
    <EXPORT ORDINAL="3677" NAME="?SetTszNameUserFirst@COfdFi@@QAEXPBD@Z" PURGE="4" COMMENT="" />
    <EXPORT ORDINAL="3678" NAME="?SetTszNameUserFirst@COfdPay@@QAEXPBD@Z" PURGE="4" COMMENT="" />
    <EXPORT ORDINAL="3679" NAME="?SetTszNameUserFirst@COfdProvFi@@QAEXPBD@Z" PURGE="4" COMMENT="" />
    <EXPORT ORDINAL="3680" NAME="?SetTszNameUserFirst@COfdProvFiPay@@QAEXPBD@Z" PURGE="4" COMMENT="" />
    <EXPORT ORDINAL="3681" NAME="?SetTszNameUserLast@COfdAcct@@QAEXPBD@Z" PURGE="4" COMMENT="" />
    <EXPORT ORDINAL="3682" NAME="?SetTszNameUserLast@COfdAddr@@QAEXPBD@Z" PURGE="4" COMMENT="" />
    <EXPORT ORDINAL="3683" NAME="?SetTszNameUserLast@COfdFi@@QAEXPBD@Z" PURGE="4" COMMENT="" />
    <EXPORT ORDINAL="3684" NAME="?SetTszNameUserLast@COfdPay@@QAEXPBD@Z" PURGE="4" COMMENT="" />
    <EXPORT ORDINAL="3685" NAME="?SetTszNameUserLast@COfdProvFi@@QAEXPBD@Z" PURGE="4" COMMENT="" />
    <EXPORT ORDINAL="3686" NAME="?SetTszNameUserLast@COfdProvFiPay@@QAEXPBD@Z" PURGE="4" COMMENT="" />
    <EXPORT ORDINAL="3687" NAME="?SetTszNameUserMiddle@COfdAcct@@QAEXPBD@Z" PURGE="4" COMMENT="" />
    <EXPORT ORDINAL="3688" NAME="?SetTszNameUserMiddle@COfdAddr@@QAEXPBD@Z" PURGE="4" COMMENT="" />
    <EXPORT ORDINAL="3689" NAME="?SetTszNameUserMiddle@COfdFi@@QAEXPBD@Z" PURGE="4" COMMENT="" />
    <EXPORT ORDINAL="3690" NAME="?SetTszNameUserMiddle@COfdPay@@QAEXPBD@Z" PURGE="4" COMMENT="" />
    <EXPORT ORDINAL="3691" NAME="?SetTszNameUserMiddle@COfdProvFi@@QAEXPBD@Z" PURGE="4" COMMENT="" />
    <EXPORT ORDINAL="3692" NAME="?SetTszNameUserMiddle@COfdProvFiPay@@QAEXPBD@Z" PURGE="4" COMMENT="" />
    <EXPORT ORDINAL="3693" NAME="?SetTszNewsURL@COfdFi@@QAEXPBD@Z" PURGE="4" COMMENT="" />
    <EXPORT ORDINAL="3694" NAME="?SetTszNewsURL@COfdSec@@QAEXPBD@Z" PURGE="4" COMMENT="" />
    <EXPORT ORDINAL="3695" NAME="?SetTszNote@COfdUnote@@QAEXPBD@Z" PURGE="4" COMMENT="" />
    <EXPORT ORDINAL="3696" NAME="?SetTszNoteURL@COfdUnote@@QAEXPBD@Z" PURGE="4" COMMENT="" />
    <EXPORT ORDINAL="3697" NAME="?SetTszNum@COfdAcct@@QAEXPBD@Z" PURGE="4" COMMENT="" />
    <EXPORT ORDINAL="3698" NAME="?SetTszNum@COfdPgm@@QAEXPBD@Z" PURGE="4" COMMENT="" />
    <EXPORT ORDINAL="3699" NAME="?SetTszNumAcctTo@COfdStmt@@QAEXPBD@Z" PURGE="4" COMMENT="" />
    <EXPORT ORDINAL="3700" NAME="?SetTszOlMemo@COfdXbag@@QAEXPBD@Z" PURGE="4" COMMENT="" />
    <EXPORT ORDINAL="3701" NAME="?SetTszPONumber@COfdTrnBase@@QAEXPBD@Z" PURGE="4" COMMENT="" />
    <EXPORT ORDINAL="3702" NAME="?SetTszPager@COfdPay@@QAEXPBD@Z" PURGE="4" COMMENT="" />
    <EXPORT ORDINAL="3703" NAME="?SetTszPartNum@COfdProduct@@QAEXPBD@Z" PURGE="4" COMMENT="" />
    <EXPORT ORDINAL="3704" NAME="?SetTszPayID@COfdProvFiPay@@QAEXPBD@Z" PURGE="4" COMMENT="" />
    <EXPORT ORDINAL="3705" NAME="?SetTszPayId@COfdStmt@@QAEXPBD@Z" PURGE="4" COMMENT="" />
    <EXPORT ORDINAL="3706" NAME="?SetTszPayListId@COfdProvFiPay@@QAEXPBD@Z" PURGE="4" COMMENT="" />
    <EXPORT ORDINAL="3707" NAME="?SetTszPayeeSyncToken@COfdProvFi@@QAEXPBD@Z" PURGE="4" COMMENT="" />
    <EXPORT ORDINAL="3708" NAME="?SetTszPhoneHome@COfdAcct@@QAEXPBD@Z" PURGE="4" COMMENT="" />
    <EXPORT ORDINAL="3709" NAME="?SetTszPhoneHome@COfdAddr@@QAEXPBD@Z" PURGE="4" COMMENT="" />
    <EXPORT ORDINAL="3710" NAME="?SetTszPhoneHome@COfdFi@@QAEXPBD@Z" PURGE="4" COMMENT="" />
    <EXPORT ORDINAL="3711" NAME="?SetTszPhoneHome@COfdPay@@QAEXPBD@Z" PURGE="4" COMMENT="" />
    <EXPORT ORDINAL="3712" NAME="?SetTszPhoneHome@COfdProvFi@@QAEXPBD@Z" PURGE="4" COMMENT="" />
    <EXPORT ORDINAL="3713" NAME="?SetTszPhoneHome@COfdProvFiPay@@QAEXPBD@Z" PURGE="4" COMMENT="" />
    <EXPORT ORDINAL="3714" NAME="?SetTszPhoneWork@COfdAcct@@QAEXPBD@Z" PURGE="4" COMMENT="" />
    <EXPORT ORDINAL="3715" NAME="?SetTszPhoneWork@COfdAddr@@QAEXPBD@Z" PURGE="4" COMMENT="" />
    <EXPORT ORDINAL="3716" NAME="?SetTszPhoneWork@COfdFi@@QAEXPBD@Z" PURGE="4" COMMENT="" />
    <EXPORT ORDINAL="3717" NAME="?SetTszPhoneWork@COfdPay@@QAEXPBD@Z" PURGE="4" COMMENT="" />
    <EXPORT ORDINAL="3718" NAME="?SetTszPhoneWork@COfdProvFi@@QAEXPBD@Z" PURGE="4" COMMENT="" />
    <EXPORT ORDINAL="3719" NAME="?SetTszPhoneWork@COfdProvFiPay@@QAEXPBD@Z" PURGE="4" COMMENT="" />
    <EXPORT ORDINAL="3720" NAME="?SetTszPhonetic@COfdAcct@@QAEXPBD@Z" PURGE="4" COMMENT="" />
    <EXPORT ORDINAL="3721" NAME="?SetTszPhonetic@COfdBgtBkt@@QAEXPBD@Z" PURGE="4" COMMENT="" />
    <EXPORT ORDINAL="3722" NAME="?SetTszPhonetic@COfdCat@@QAEXPBD@Z" PURGE="4" COMMENT="" />
    <EXPORT ORDINAL="3723" NAME="?SetTszPhonetic@COfdFi@@QAEXPBD@Z" PURGE="4" COMMENT="" />
    <EXPORT ORDINAL="3724" NAME="?SetTszPhonetic@COfdPay@@QAEXPBD@Z" PURGE="4" COMMENT="" />
    <EXPORT ORDINAL="3725" NAME="?SetTszPhonetic@COfdPgm@@QAEXPBD@Z" PURGE="4" COMMENT="" />
    <EXPORT ORDINAL="3726" NAME="?SetTszPhonetic@COfdProduct@@QAEXPBD@Z" PURGE="4" COMMENT="" />
    <EXPORT ORDINAL="3727" NAME="?SetTszPhonetic@COfdSavGoal@@QAEXPBD@Z" PURGE="4" COMMENT="" />
    <EXPORT ORDINAL="3728" NAME="?SetTszPhonetic@COfdSec@@QAEXPBD@Z" PURGE="4" COMMENT="" />
    <EXPORT ORDINAL="3729" NAME="?SetTszPmtMailSyncToken@COfdProvFi@@QAEXPBD@Z" PURGE="4" COMMENT="" />
    <EXPORT ORDINAL="3730" NAME="?SetTszPmtSyncToken@COfdSvc@@QAEXPBD@Z" PURGE="4" COMMENT="" />
    <EXPORT ORDINAL="3731" NAME="?SetTszPmtType@COfdPay@@QAEXPBD@Z" PURGE="4" COMMENT="" />
    <EXPORT ORDINAL="3732" NAME="?SetTszPostalCode@COfdAcct@@QAEXPBD@Z" PURGE="4" COMMENT="" />
    <EXPORT ORDINAL="3733" NAME="?SetTszPostalCode@COfdAddr@@QAEXPBD@Z" PURGE="4" COMMENT="" />
    <EXPORT ORDINAL="3734" NAME="?SetTszPostalCode@COfdFi@@QAEXPBD@Z" PURGE="4" COMMENT="" />
    <EXPORT ORDINAL="3735" NAME="?SetTszPostalCode@COfdPay@@QAEXPBD@Z" PURGE="4" COMMENT="" />
    <EXPORT ORDINAL="3736" NAME="?SetTszPostalCode@COfdProvFi@@QAEXPBD@Z" PURGE="4" COMMENT="" />
    <EXPORT ORDINAL="3737" NAME="?SetTszPostalCode@COfdProvFiPay@@QAEXPBD@Z" PURGE="4" COMMENT="" />
    <EXPORT ORDINAL="3738" NAME="?SetTszProvBankId@COfdProvFi@@QAEXPBD@Z" PURGE="4" COMMENT="" />
    <EXPORT ORDINAL="3739" NAME="?SetTszProvId@COfdStmt@@QAEXPBD@Z" PURGE="4" COMMENT="" />
    <EXPORT ORDINAL="3740" NAME="?SetTszProvId@COfdTrnBase@@QAEXPBD@Z" PURGE="4" COMMENT="" />
    <EXPORT ORDINAL="3741" NAME="?SetTszProvUserId@COfdProvFi@@QAEXPBD@Z" PURGE="4" COMMENT="" />
    <EXPORT ORDINAL="3742" NAME="?SetTszPurchaseLoc@COfdAuto@@QAEXPBD@Z" PURGE="4" COMMENT="" />
    <EXPORT ORDINAL="3743" NAME="?SetTszPurpose@COfdTrip@@QAEXPBD@Z" PURGE="4" COMMENT="" />
    <EXPORT ORDINAL="3744" NAME="?SetTszPwdLabel@COfdProvFi@@QAEXPBD@Z" PURGE="4" COMMENT="" />
    <EXPORT ORDINAL="3745" NAME="?SetTszRecPmtSyncToken@COfdSvc@@QAEXPBD@Z" PURGE="4" COMMENT="" />
    <EXPORT ORDINAL="3746" NAME="?SetTszReplacements@COfdAdv@@QAEXPBD@Z" PURGE="4" COMMENT="" />
    <EXPORT ORDINAL="3747" NAME="?SetTszSecName@COfdBrkStmt@@QAEXPBD@Z" PURGE="4" COMMENT="" />
    <EXPORT ORDINAL="3748" NAME="?SetTszSecSymbol@COfdBrkStmt@@QAEXPBD@Z" PURGE="4" COMMENT="" />
    <EXPORT ORDINAL="3749" NAME="?SetTszSessId@COfdProvFi@@QAEXPBD@Z" PURGE="4" COMMENT="" />
    <EXPORT ORDINAL="3750" NAME="?SetTszSetupFileURL@COfdFi@@QAEXPBD@Z" PURGE="4" COMMENT="" />
    <EXPORT ORDINAL="3751" NAME="?SetTszSetupFileURL@COfdProvFi@@QAEXPBD@Z" PURGE="4" COMMENT="" />
    <EXPORT ORDINAL="3752" NAME="?SetTszShortName@COfdProvFi@@QAEXPBD@Z" PURGE="4" COMMENT="" />
    <EXPORT ORDINAL="3753" NAME="?SetTszSignupURL@COfdProvFi@@QAEXPBD@Z" PURGE="4" COMMENT="" />
    <EXPORT ORDINAL="3754" NAME="?SetTszState@COfdAcct@@QAEXPBD@Z" PURGE="4" COMMENT="" />
    <EXPORT ORDINAL="3755" NAME="?SetTszState@COfdAddr@@QAEXPBD@Z" PURGE="4" COMMENT="" />
    <EXPORT ORDINAL="3756" NAME="?SetTszState@COfdFi@@QAEXPBD@Z" PURGE="4" COMMENT="" />
    <EXPORT ORDINAL="3757" NAME="?SetTszState@COfdPay@@QAEXPBD@Z" PURGE="4" COMMENT="" />
    <EXPORT ORDINAL="3758" NAME="?SetTszState@COfdProvFi@@QAEXPBD@Z" PURGE="4" COMMENT="" />
    <EXPORT ORDINAL="3759" NAME="?SetTszState@COfdProvFiPay@@QAEXPBD@Z" PURGE="4" COMMENT="" />
    <EXPORT ORDINAL="3760" NAME="?SetTszStmtSyncToken@COfdSvc@@QAEXPBD@Z" PURGE="4" COMMENT="" />
    <EXPORT ORDINAL="3761" NAME="?SetTszSub@COfdCt@@QAEXPBD@Z" PURGE="4" COMMENT="" />
    <EXPORT ORDINAL="3762" NAME="?SetTszSubject@COfdMail@@QAEXPBD@Z" PURGE="4" COMMENT="" />
    <EXPORT ORDINAL="3763" NAME="?SetTszSubject@COfdUnote@@QAEXPBD@Z" PURGE="4" COMMENT="" />
    <EXPORT ORDINAL="3764" NAME="?SetTszSubstituteCommName@COfdProvFi@@QAEXPBD@Z" PURGE="4" COMMENT="" />
    <EXPORT ORDINAL="3765" NAME="?SetTszSvcUpdURL@COfdProvFi@@QAEXPBD@Z" PURGE="4" COMMENT="" />
    <EXPORT ORDINAL="3766" NAME="?SetTszSymbol@COfdCrnc@@QAEXPBD@Z" PURGE="4" COMMENT="" />
    <EXPORT ORDINAL="3767" NAME="?SetTszSymbol@COfdPosStmt@@QAEXPBD@Z" PURGE="4" COMMENT="" />
    <EXPORT ORDINAL="3768" NAME="?SetTszSymbol@COfdSec@@QAEXPBD@Z" PURGE="4" COMMENT="" />
    <EXPORT ORDINAL="3769" NAME="?SetTszTan@COfdProvFi@@QAEXPBD@Z" PURGE="4" COMMENT="" />
    <EXPORT ORDINAL="3770" NAME="?SetTszTo@COfdMail@@QAEXPBD@Z" PURGE="4" COMMENT="" />
    <EXPORT ORDINAL="3771" NAME="?SetTszTradingURL@COfdFi@@QAEXPBD@Z" PURGE="4" COMMENT="" />
    <EXPORT ORDINAL="3772" NAME="?SetTszUID@COfdBrkStmt@@QAEXPBD@Z" PURGE="4" COMMENT="" />
    <EXPORT ORDINAL="3773" NAME="?SetTszUID@COfdPosStmt@@QAEXPBD@Z" PURGE="4" COMMENT="" />
    <EXPORT ORDINAL="3774" NAME="?SetTszUID@COfdSec@@QAEXPBD@Z" PURGE="4" COMMENT="" />
    <EXPORT ORDINAL="3775" NAME="?SetTszUIDLabel@COfdProvFi@@QAEXPBD@Z" PURGE="4" COMMENT="" />
    <EXPORT ORDINAL="3776" NAME="?SetTszUIDType@COfdBrkStmt@@QAEXPBD@Z" PURGE="4" COMMENT="" />
    <EXPORT ORDINAL="3777" NAME="?SetTszUIDType@COfdPosStmt@@QAEXPBD@Z" PURGE="4" COMMENT="" />
    <EXPORT ORDINAL="3778" NAME="?SetTszUIDType@COfdSec@@QAEXPBD@Z" PURGE="4" COMMENT="" />
    <EXPORT ORDINAL="3779" NAME="?SetTszURL@COfdAcct@@QAEXPBD@Z" PURGE="4" COMMENT="" />
    <EXPORT ORDINAL="3780" NAME="?SetTszURL@COfdAddr@@QAEXPBD@Z" PURGE="4" COMMENT="" />
    <EXPORT ORDINAL="3781" NAME="?SetTszURL@COfdFi@@QAEXPBD@Z" PURGE="4" COMMENT="" />
    <EXPORT ORDINAL="3782" NAME="?SetTszURL@COfdPay@@QAEXPBD@Z" PURGE="4" COMMENT="" />
    <EXPORT ORDINAL="3783" NAME="?SetTszURL@COfdPgm@@QAEXPBD@Z" PURGE="4" COMMENT="" />
    <EXPORT ORDINAL="3784" NAME="?SetTszURL@COfdProvFi@@QAEXPBD@Z" PURGE="4" COMMENT="" />
    <EXPORT ORDINAL="3785" NAME="?SetTszURL@COfdProvFiPay@@QAEXPBD@Z" PURGE="4" COMMENT="" />
    <EXPORT ORDINAL="3786" NAME="?SetTszURLMfg@COfdAuto@@QAEXPBD@Z" PURGE="4" COMMENT="" />
    <EXPORT ORDINAL="3787" NAME="?SetTszUserAcctAtPay@COfdPay@@QAEXPBD@Z" PURGE="4" COMMENT="" />
    <EXPORT ORDINAL="3788" NAME="?SetTszUserAcctAtPay@COfdStmt@@QAEXPBD@Z" PURGE="4" COMMENT="" />
    <EXPORT ORDINAL="3789" NAME="?SetTszVIN@COfdAuto@@QAEXPBD@Z" PURGE="4" COMMENT="" />
    <EXPORT ORDINAL="3790" NAME="?SetTszValue@COfdCrit@@QAEXPBD@Z" PURGE="4" COMMENT="" />
    <EXPORT ORDINAL="3791" NAME="?SetTszVersion@COfdProvFi@@QAEXPBD@Z" PURGE="4" COMMENT="" />
    <EXPORT ORDINAL="3792" NAME="?SetTszVoice@COfdAcct@@QAEXPBD@Z" PURGE="4" COMMENT="" />
    <EXPORT ORDINAL="3793" NAME="?SetTszWarranty@COfdAuto@@QAEXPBD@Z" PURGE="4" COMMENT="" />
    <EXPORT ORDINAL="3794" NAME="?SetTszWebPage@COfdPay@@QAEXPBD@Z" PURGE="4" COMMENT="" />
    <EXPORT ORDINAL="3795" NAME="?SetTszWebPayURL@COfdFi@@QAEXPBD@Z" PURGE="4" COMMENT="" />
    <EXPORT ORDINAL="3796" NAME="?SetTszWebServicesURL@COfdFi@@QAEXPBD@Z" PURGE="4" COMMENT="" />
    <EXPORT ORDINAL="3797" NAME="?SetTszWebSignupURL@COfdFi@@QAEXPBD@Z" PURGE="4" COMMENT="" />
    <EXPORT ORDINAL="3798" NAME="?SetTut@COfdTrip@@QAEXW4__MIDL___MIDL_itf_iofd_0216_0002@@@Z" PURGE="4" COMMENT="" />
    <EXPORT ORDINAL="3799" NAME="?SetTxcpy@COfdTaxline@@QAEXJ@Z" PURGE="4" COMMENT="" />
    <EXPORT ORDINAL="3800" NAME="?SetTxcpy@COfdTxsrc@@QAEXJ@Z" PURGE="4" COMMENT="" />
    <EXPORT ORDINAL="3801" NAME="?SetTxn@COfdTaxline@@QAEXJ@Z" PURGE="4" COMMENT="" />
    <EXPORT ORDINAL="3802" NAME="?SetTxn@COfdTxsrc@@QAEXJ@Z" PURGE="4" COMMENT="" />
    <EXPORT ORDINAL="3803" NAME="?SetType@COfdCat@@QAEXJ@Z" PURGE="4" COMMENT="" />
    <EXPORT ORDINAL="3804" NAME="?SetUat@COfdAcct@@QAEXW4__MIDL___MIDL_itf_iofd_0242_0002@@@Z" PURGE="4" COMMENT="" />
    <EXPORT ORDINAL="3805" NAME="?SetUnitt@COfdPgm@@QAEXW4__MIDL___MIDL_itf_iofd_0230_0005@@@Z" PURGE="4" COMMENT="" />
    <EXPORT ORDINAL="3806" NAME="?SetUpdatePrice@COfdSec@@QAEXH@Z" PURGE="4" COMMENT="" />
    <EXPORT ORDINAL="3807" NAME="?SetUpdatePrice@COfdTrn@@QAEXH@Z" PURGE="4" COMMENT="" />
    <EXPORT ORDINAL="3808" NAME="?SetVarCustProp@COfdFile@@QAEXJVCOfdVariant@@@Z" PURGE="20" COMMENT="" />
    <EXPORT ORDINAL="3809" NAME="?SetVarFileProp@COfdFile@@QAEXW4__MIDL___MIDL_itf_iofd_0120_0001@@VCOfdVariant@@@Z" PURGE="20" COMMENT="" />
    <EXPORT ORDINAL="3810" NAME="?SetVarFld@COfdObject@@QAEXJVCOfdVariant@@@Z" PURGE="20" COMMENT="" />
    <EXPORT ORDINAL="3811" NAME="?SetVarValue@COfdCrit@@QAEXVCOfdVariant@@@Z" PURGE="16" COMMENT="" />
    <EXPORT ORDINAL="3812" NAME="?SetView@COfdList@@QAEXABVCOfdView@@@Z" PURGE="4" COMMENT="" />
    <EXPORT ORDINAL="3813" NAME="?SetVoidFieldFilter@COfdList@@QAEXJW4__MIDL___MIDL_itf_iofd_0112_0002@@@Z" PURGE="8" COMMENT="" />
    <EXPORT ORDINAL="3814" NAME="?SetVoidFieldFilter@COfdView@@QAEXJW4__MIDL___MIDL_itf_iofd_0112_0002@@@Z" PURGE="8" COMMENT="" />
    <EXPORT ORDINAL="3815" NAME="?SetVol@COfdPrice@@QAEXJ@Z" PURGE="4" COMMENT="" />
    <EXPORT ORDINAL="3816" NAME="?Setolit@COfdFi@@QAEXW4__MIDL___MIDL_itf_iofd_0157_0005@@@Z" PURGE="4" COMMENT="" />
    <EXPORT ORDINAL="3817" NAME="?SguidFromHobj@COfdFile@@QAE?AVCOfdVariant@@JJ@Z" PURGE="12" COMMENT="" />
    <EXPORT ORDINAL="3818" NAME="?ShipPrefGet@COfdPay@@QBE?AW4__MIDL___MIDL_itf_iofd_0197_0003@@XZ" PURGE="0" COMMENT="" />
    <EXPORT ORDINAL="3819" NAME="?ShipPrefGet@COfdTrnBase@@QBE?AW4__MIDL___MIDL_itf_iofd_0197_0003@@XZ" PURGE="0" COMMENT="" />
    <EXPORT ORDINAL="3820" NAME="?SicGet@COfdSec@@QBEJXZ" PURGE="0" COMMENT="" />
    <EXPORT ORDINAL="3821" NAME="?SizeFieldGet@COfdPool@@QBEJJ@Z" PURGE="4" COMMENT="" />
    <EXPORT ORDINAL="3822" NAME="?SizeGet@COfdSec@@QBEJXZ" PURGE="0" COMMENT="" />
    <EXPORT ORDINAL="3823" NAME="?SoqCurGet@COfdListSoq@@QBE?AVCOfdSoq@@XZ" PURGE="4" COMMENT="" />
    <EXPORT ORDINAL="3824" NAME="?SortGet@COfdList@@QBEJPAH@Z" PURGE="4" COMMENT="" />
    <EXPORT ORDINAL="3825" NAME="?SortGet@COfdListAcct@@QBE?AW4__MIDL___MIDL_itf_iofd_0121_0004@@PAH@Z" PURGE="4" COMMENT="" />
    <EXPORT ORDINAL="3826" NAME="?SortGet@COfdListBill@@QBE?AW4__MIDL___MIDL_itf_iofd_0252_0001@@PAH@Z" PURGE="4" COMMENT="" />
    <EXPORT ORDINAL="3827" NAME="?SortGet@COfdListCat@@QBE?AW4__MIDL___MIDL_itf_iofd_0125_0004@@PAH@Z" PURGE="4" COMMENT="" />
    <EXPORT ORDINAL="3828" NAME="?SortGet@COfdListCrnc@@QBE?AW4__MIDL___MIDL_itf_iofd_0131_0001@@PAH@Z" PURGE="4" COMMENT="" />
    <EXPORT ORDINAL="3829" NAME="?SortGet@COfdListCt@@QBE?AW4__MIDL___MIDL_itf_iofd_0125_0005@@PAH@Z" PURGE="4" COMMENT="" />
    <EXPORT ORDINAL="3830" NAME="?SortGet@COfdListFi@@QBE?AW4__MIDL___MIDL_itf_iofd_0157_0004@@PAH@Z" PURGE="4" COMMENT="" />
    <EXPORT ORDINAL="3831" NAME="?SortGet@COfdListLotTrn@@QBE?AW4__MIDL___MIDL_itf_iofd_0152_0001@@XZ" PURGE="0" COMMENT="" />
    <EXPORT ORDINAL="3832" NAME="?SortGet@COfdListMail@@QBE?AW4__MIDL___MIDL_itf_iofd_0181_0001@@PAH@Z" PURGE="4" COMMENT="" />
    <EXPORT ORDINAL="3833" NAME="?SortGet@COfdListPay@@QBE?AW4__MIDL___MIDL_itf_iofd_0160_0001@@PAH@Z" PURGE="4" COMMENT="" />
    <EXPORT ORDINAL="3834" NAME="?SortGet@COfdListPosStmt@@QBE?AW4__MIDL___MIDL_itf_iofd_0166_0001@@PAH@Z" PURGE="4" COMMENT="" />
    <EXPORT ORDINAL="3835" NAME="?SortGet@COfdListPrice@@QBE?AW4__MIDL___MIDL_itf_iofd_0175_0002@@PAH@Z" PURGE="4" COMMENT="" />
    <EXPORT ORDINAL="3836" NAME="?SortGet@COfdListProvFi@@QBE?AW4__MIDL___MIDL_itf_iofd_0169_0003@@PAH@Z" PURGE="4" COMMENT="" />
    <EXPORT ORDINAL="3837" NAME="?SortGet@COfdListProvFiPay@@QBE?AW4__MIDL___MIDL_itf_iofd_0172_0002@@PAH@Z" PURGE="4" COMMENT="" />
    <EXPORT ORDINAL="3838" NAME="?SortGet@COfdListSec@@QBE?AW4__MIDL___MIDL_itf_iofd_0147_0005@@PAH@Z" PURGE="4" COMMENT="" />
    <EXPORT ORDINAL="3839" NAME="?SortGet@COfdListSoq@@QBE?AW4__MIDL___MIDL_itf_iofd_0225_0001@@PAH@Z" PURGE="4" COMMENT="" />
    <EXPORT ORDINAL="3840" NAME="?SortGet@COfdListStmt@@QBE?AW4__MIDL___MIDL_itf_iofd_0163_0003@@PAH@Z" PURGE="4" COMMENT="" />
    <EXPORT ORDINAL="3841" NAME="?SortGet@COfdListSvc@@QBE?AW4__MIDL___MIDL_itf_iofd_0154_0006@@PAH@Z" PURGE="4" COMMENT="" />
    <EXPORT ORDINAL="3842" NAME="?SortGet@COfdListTrn@@QBE?AW4__MIDL___MIDL_itf_iofd_0137_0006@@PAH@Z" PURGE="4" COMMENT="" />
    <EXPORT ORDINAL="3843" NAME="?SortGet@COfdListTrnPmts@@QBE?AW4__MIDL___MIDL_itf_iofd_0137_0006@@XZ" PURGE="0" COMMENT="" />
    <EXPORT ORDINAL="3844" NAME="?SortGet@COfdListView@@QBE?AW4__MIDL___MIDL_itf_iofd_0115_0001@@PAH@Z" PURGE="4" COMMENT="" />
    <EXPORT ORDINAL="3845" NAME="?SortGet@COfdView@@QBEJXZ" PURGE="0" COMMENT="" />
    <EXPORT ORDINAL="3846" NAME="?SrcGet@COfdPrice@@QBE?AW4__MIDL___MIDL_itf_iofd_0175_0003@@XZ" PURGE="0" COMMENT="" />
    <EXPORT ORDINAL="3847" NAME="?SrctGet@COfdTxsrc@@QBE?AW4__MIDL___MIDL_itf_iofd_0203_0001@@XZ" PURGE="0" COMMENT="" />
    <EXPORT ORDINAL="3848" NAME="?StGet@COfdBill@@QBE?AW4__MIDL___MIDL_itf_iofd_0249_0004@@XZ" PURGE="0" COMMENT="" />
    <EXPORT ORDINAL="3849" NAME="?StGet@COfdProj@@QBE?AW4__MIDL___MIDL_itf_iofd_0213_0002@@XZ" PURGE="0" COMMENT="" />
    <EXPORT ORDINAL="3850" NAME="?StateGet@COfdBuffer@@QBE?AW4DATASTATE@@XZ" PURGE="0" COMMENT="" />
    <EXPORT ORDINAL="3851" NAME="?StateGet@COfdOleObject@@QBE?AW4DATASTATE@@XZ" PURGE="0" COMMENT="" />
    <EXPORT ORDINAL="3852" NAME="?StateGet@COfdTsz@@QBE?AW4DATASTATE@@XZ" PURGE="0" COMMENT="" />
    <EXPORT ORDINAL="3853" NAME="?StatusGet@COfdObject@@QBE?AW4__MIDL___MIDL_itf_iofd_0111_0001@@XZ" PURGE="0" COMMENT="" />
    <EXPORT ORDINAL="3854" NAME="?StmtCurGet@COfdListStmt@@QBE?AVCOfdStmt@@XZ" PURGE="4" COMMENT="" />
    <EXPORT ORDINAL="3855" NAME="?StmtRelGet@COfdTrnBase@@QAE?AVCOfdStmt@@XZ" PURGE="4" COMMENT="" />
    <EXPORT ORDINAL="3856" NAME="?StmttGet@COfdBrkStmt@@QBE?AW4__MIDL___MIDL_itf_iofd_0163_0001@@XZ" PURGE="0" COMMENT="" />
    <EXPORT ORDINAL="3857" NAME="?StmttGet@COfdStmt@@QBE?AW4__MIDL___MIDL_itf_iofd_0163_0001@@XZ" PURGE="0" COMMENT="" />
    <EXPORT ORDINAL="3858" NAME="?StringTranslationGet@COfdFile@@QBE?AW4__MIDL___MIDL_itf_iofd_0110_0003@@XZ" PURGE="0" COMMENT="" />
    <EXPORT ORDINAL="3859" NAME="?StringTranslationGet@COfdList@@QBE?AW4__MIDL___MIDL_itf_iofd_0110_0003@@XZ" PURGE="0" COMMENT="" />
    <EXPORT ORDINAL="3860" NAME="?StringTranslationGet@COfdListLotTrn@@QBE?AW4__MIDL___MIDL_itf_iofd_0110_0003@@XZ" PURGE="0" COMMENT="" />
    <EXPORT ORDINAL="3861" NAME="?StringTranslationGet@COfdListTrnPmts@@QBE?AW4__MIDL___MIDL_itf_iofd_0110_0003@@XZ" PURGE="0" COMMENT="" />
    <EXPORT ORDINAL="3862" NAME="?StringTranslationGet@COfdObject@@QBE?AW4__MIDL___MIDL_itf_iofd_0110_0003@@XZ" PURGE="0" COMMENT="" />
    <EXPORT ORDINAL="3863" NAME="?StringTranslationGet@COfdPool@@QBE?AW4__MIDL___MIDL_itf_iofd_0110_0003@@XZ" PURGE="0" COMMENT="" />
    <EXPORT ORDINAL="3864" NAME="?StringTranslationGet@COfdView@@QBE?AW4__MIDL___MIDL_itf_iofd_0110_0003@@XZ" PURGE="0" COMMENT="" />
    <EXPORT ORDINAL="3865" NAME="?SubViewGet@COfdCrit@@QBE?AVCOfdView@@XZ" PURGE="4" COMMENT="" />
    <EXPORT ORDINAL="3866" NAME="?SubeltGet@COfdUie@@QBEJXZ" PURGE="0" COMMENT="" />
    <EXPORT ORDINAL="3867" NAME="?SvcCurGet@COfdListSvc@@QBE?AVCOfdSvc@@XZ" PURGE="4" COMMENT="" />
    <EXPORT ORDINAL="3868" NAME="?SyncToPendingNotifications@COfdFile@@QAEXPAVCOfdList@@@Z" PURGE="4" COMMENT="" />
    <EXPORT ORDINAL="3869" NAME="?TaatGet@COfdAcct@@QBE?AW4__MIDL___MIDL_itf_iofd_0230_0006@@XZ" PURGE="0" COMMENT="" />
    <EXPORT ORDINAL="3870" NAME="?TaxlineCurGet@COfdListTaxline@@QBE?AVCOfdTaxline@@XZ" PURGE="4" COMMENT="" />
    <EXPORT ORDINAL="3871" NAME="?TblBaseTypeGet@COfdList@@QBEJXZ" PURGE="0" COMMENT="" />
    <EXPORT ORDINAL="3872" NAME="?TblBaseTypeGet@COfdListLotTrn@@QBEJXZ" PURGE="0" COMMENT="" />
    <EXPORT ORDINAL="3873" NAME="?TblBaseTypeGet@COfdListTrnPmts@@QBEJXZ" PURGE="0" COMMENT="" />
    <EXPORT ORDINAL="3874" NAME="?TblBaseTypeGet@COfdObject@@QBEJXZ" PURGE="0" COMMENT="" />
    <EXPORT ORDINAL="3875" NAME="?TblBaseTypeGet@COfdPool@@QBEJXZ" PURGE="0" COMMENT="" />
    <EXPORT ORDINAL="3876" NAME="?TblChartFilterGet@COfdAdv@@QBEJXZ" PURGE="0" COMMENT="" />
    <EXPORT ORDINAL="3877" NAME="?TblGet@COfdXbag@@QBEJXZ" PURGE="0" COMMENT="" />
    <EXPORT ORDINAL="3878" NAME="?TblTypeGet@COfdView@@QBEJXZ" PURGE="0" COMMENT="" />
    <EXPORT ORDINAL="3879" NAME="?TdsGet@COfdTaxline@@QBE?AW4__MIDL___MIDL_itf_iofd_0207_0001@@XZ" PURGE="0" COMMENT="" />
    <EXPORT ORDINAL="3880" NAME="?TefGet@COfdTrnBase@@QBE?AW4__MIDL___MIDL_itf_iofd_0137_0023@@XZ" PURGE="0" COMMENT="" />
    <EXPORT ORDINAL="3881" NAME="?TermsGet@COfdPay@@QBE?AW4__MIDL___MIDL_itf_iofd_0197_0002@@XZ" PURGE="0" COMMENT="" />
    <EXPORT ORDINAL="3882" NAME="?TermsGet@COfdTrnBase@@QBE?AW4__MIDL___MIDL_itf_iofd_0197_0002@@XZ" PURGE="0" COMMENT="" />
    <EXPORT ORDINAL="3883" NAME="?ThemeGet@COfdUie@@QBEJXZ" PURGE="0" COMMENT="" />
    <EXPORT ORDINAL="3884" NAME="?ThrowException@COfdException@@SAXJPBDH@Z" PURGE="0" COMMENT="" />
    <EXPORT ORDINAL="3885" NAME="?ThrowOfdExceptionReal@@YAXJPBDH@Z" PURGE="0" COMMENT="" />
    <EXPORT ORDINAL="3886" NAME="?TmiCurGet@COfdListTmi@@QBE?AVCOfdTmi@@XZ" PURGE="4" COMMENT="" />
    <EXPORT ORDINAL="3887" NAME="?TmiGet@COfdTrnBase@@QAE?AVCOfdTmi@@XZ" PURGE="4" COMMENT="" />
    <EXPORT ORDINAL="3888" NAME="?TripCurGet@COfdListTrip@@QBE?AVCOfdTrip@@XZ" PURGE="4" COMMENT="" />
    <EXPORT ORDINAL="3889" NAME="?TrnBuyGet@COfdLot@@QBE?AVCOfdTrn@@XZ" PURGE="4" COMMENT="" />
    <EXPORT ORDINAL="3890" NAME="?TrnCloseGet@COfdLot@@QBE?AVCOfdTrn@@XZ" PURGE="4" COMMENT="" />
    <EXPORT ORDINAL="3891" NAME="?TrnCurGet@COfdListSplit@@QBE?AVCOfdTrn@@XZ" PURGE="4" COMMENT="" />
    <EXPORT ORDINAL="3892" NAME="?TrnCurGet@COfdListTrn@@QBE?AVCOfdTrn@@XZ" PURGE="4" COMMENT="" />
    <EXPORT ORDINAL="3893" NAME="?TrnCurGet@COfdListTrnPmts@@QBE?AVCOfdTrn@@XZ" PURGE="4" COMMENT="" />
    <EXPORT ORDINAL="3894" NAME="?TrnDefLoanPaymentGet@COfdAcct@@QBE?AVCOfdTrn@@XZ" PURGE="4" COMMENT="" />
    <EXPORT ORDINAL="3895" NAME="?TrnFromInstance@COfdBill@@QBE?AVCOfdTrn@@XZ" PURGE="4" COMMENT="" />
    <EXPORT ORDINAL="3896" NAME="?TrnFromInstance@COfdListBill@@QBE?AVCOfdTrn@@XZ" PURGE="4" COMMENT="" />
    <EXPORT ORDINAL="3897" NAME="?TrnInnerGet@COfdBill@@QBE?AVCOfdTrn@@XZ" PURGE="4" COMMENT="" />
    <EXPORT ORDINAL="3898" NAME="?TrnInvoiceGet@COfdPmt@@QBE?AVCOfdTrn@@XZ" PURGE="4" COMMENT="" />
    <EXPORT ORDINAL="3899" NAME="?TrnLastPaidGet@COfdBill@@QBE?AVCOfdTrn@@XZ" PURGE="4" COMMENT="" />
    <EXPORT ORDINAL="3900" NAME="?TrnLinkGet@COfdBill@@UBE?AVCOfdTrn@@XZ" PURGE="4" COMMENT="" />
    <EXPORT ORDINAL="3901" NAME="?TrnLinkGet@COfdTrn@@UBE?AV1@XZ" PURGE="4" COMMENT="" />
    <EXPORT ORDINAL="3902" NAME="?TrnOpenGet@COfdLot@@QBE?AVCOfdTrn@@XZ" PURGE="4" COMMENT="" />
    <EXPORT ORDINAL="3903" NAME="?TrnPaidGet@COfdBill@@QBE?AVCOfdTrn@@XZ" PURGE="4" COMMENT="" />
    <EXPORT ORDINAL="3904" NAME="?TrnParentGet@COfdBill@@UBE?AVCOfdTrn@@XZ" PURGE="4" COMMENT="" />
    <EXPORT ORDINAL="3905" NAME="?TrnParentGet@COfdListSplit@@QBE?AVCOfdTrn@@XZ" PURGE="4" COMMENT="" />
    <EXPORT ORDINAL="3906" NAME="?TrnParentGet@COfdTrn@@UBE?AV1@XZ" PURGE="4" COMMENT="" />
    <EXPORT ORDINAL="3907" NAME="?TrnPmtGet@COfdPmt@@QBE?AVCOfdTrn@@XZ" PURGE="4" COMMENT="" />
    <EXPORT ORDINAL="3908" NAME="?TrnSellGet@COfdLot@@QBE?AVCOfdTrn@@XZ" PURGE="4" COMMENT="" />
    <EXPORT ORDINAL="3909" NAME="?TrnSrcGet@COfdBill@@UBE?AVCOfdTrn@@XZ" PURGE="4" COMMENT="" />
    <EXPORT ORDINAL="3910" NAME="?TrnSrcGet@COfdTrn@@UBE?AV1@XZ" PURGE="4" COMMENT="" />
    <EXPORT ORDINAL="3911" NAME="?TszAcctNumAliasGet@COfdSvc@@QBE?AVCOfdTsz@@XZ" PURGE="4" COMMENT="" />
    <EXPORT ORDINAL="3912" NAME="?TszAcctNumGet@COfdPay@@QBE?AVCOfdTsz@@XZ" PURGE="4" COMMENT="" />
    <EXPORT ORDINAL="3913" NAME="?TszAcctSyncTokenGet@COfdProvFi@@QBE?AVCOfdTsz@@XZ" PURGE="4" COMMENT="" />
    <EXPORT ORDINAL="3914" NAME="?TszActiveStmtURLGet@COfdFi@@QBE?AVCOfdTsz@@XZ" PURGE="4" COMMENT="" />
    <EXPORT ORDINAL="3915" NAME="?TszAddr1Get@COfdAcct@@QBE?AVCOfdTsz@@XZ" PURGE="4" COMMENT="" />
    <EXPORT ORDINAL="3916" NAME="?TszAddr1Get@COfdAddr@@QBE?AVCOfdTsz@@XZ" PURGE="4" COMMENT="" />
    <EXPORT ORDINAL="3917" NAME="?TszAddr1Get@COfdFi@@QBE?AVCOfdTsz@@XZ" PURGE="4" COMMENT="" />
    <EXPORT ORDINAL="3918" NAME="?TszAddr1Get@COfdPay@@QBE?AVCOfdTsz@@XZ" PURGE="4" COMMENT="" />
    <EXPORT ORDINAL="3919" NAME="?TszAddr1Get@COfdProvFi@@QBE?AVCOfdTsz@@XZ" PURGE="4" COMMENT="" />
    <EXPORT ORDINAL="3920" NAME="?TszAddr1Get@COfdProvFiPay@@QBE?AVCOfdTsz@@XZ" PURGE="4" COMMENT="" />
    <EXPORT ORDINAL="3921" NAME="?TszAddr2Get@COfdAcct@@QBE?AVCOfdTsz@@XZ" PURGE="4" COMMENT="" />
    <EXPORT ORDINAL="3922" NAME="?TszAddr2Get@COfdAddr@@QBE?AVCOfdTsz@@XZ" PURGE="4" COMMENT="" />
    <EXPORT ORDINAL="3923" NAME="?TszAddr2Get@COfdFi@@QBE?AVCOfdTsz@@XZ" PURGE="4" COMMENT="" />
    <EXPORT ORDINAL="3924" NAME="?TszAddr2Get@COfdPay@@QBE?AVCOfdTsz@@XZ" PURGE="4" COMMENT="" />
    <EXPORT ORDINAL="3925" NAME="?TszAddr2Get@COfdProvFi@@QBE?AVCOfdTsz@@XZ" PURGE="4" COMMENT="" />
    <EXPORT ORDINAL="3926" NAME="?TszAddr2Get@COfdProvFiPay@@QBE?AVCOfdTsz@@XZ" PURGE="4" COMMENT="" />
    <EXPORT ORDINAL="3927" NAME="?TszAddr3Get@COfdAcct@@QBE?AVCOfdTsz@@XZ" PURGE="4" COMMENT="" />
    <EXPORT ORDINAL="3928" NAME="?TszAddr3Get@COfdAddr@@QBE?AVCOfdTsz@@XZ" PURGE="4" COMMENT="" />
    <EXPORT ORDINAL="3929" NAME="?TszAddr3Get@COfdFi@@QBE?AVCOfdTsz@@XZ" PURGE="4" COMMENT="" />
    <EXPORT ORDINAL="3930" NAME="?TszAddr3Get@COfdPay@@QBE?AVCOfdTsz@@XZ" PURGE="4" COMMENT="" />
    <EXPORT ORDINAL="3931" NAME="?TszAddr3Get@COfdProvFi@@QBE?AVCOfdTsz@@XZ" PURGE="4" COMMENT="" />
    <EXPORT ORDINAL="3932" NAME="?TszAddr3Get@COfdProvFiPay@@QBE?AVCOfdTsz@@XZ" PURGE="4" COMMENT="" />
    <EXPORT ORDINAL="3933" NAME="?TszAddrEmailGet@COfdAcct@@QBE?AVCOfdTsz@@XZ" PURGE="4" COMMENT="" />
    <EXPORT ORDINAL="3934" NAME="?TszAddrEmailGet@COfdAddr@@QBE?AVCOfdTsz@@XZ" PURGE="4" COMMENT="" />
    <EXPORT ORDINAL="3935" NAME="?TszAddrEmailGet@COfdFi@@QBE?AVCOfdTsz@@XZ" PURGE="4" COMMENT="" />
    <EXPORT ORDINAL="3936" NAME="?TszAddrEmailGet@COfdPay@@QBE?AVCOfdTsz@@XZ" PURGE="4" COMMENT="" />
    <EXPORT ORDINAL="3937" NAME="?TszAddrEmailGet@COfdProvFi@@QBE?AVCOfdTsz@@XZ" PURGE="4" COMMENT="" />
    <EXPORT ORDINAL="3938" NAME="?TszAddrEmailGet@COfdProvFiPay@@QBE?AVCOfdTsz@@XZ" PURGE="4" COMMENT="" />
    <EXPORT ORDINAL="3939" NAME="?TszAlsGet@COfdAcct@@QBE?AVCOfdTsz@@XZ" PURGE="4" COMMENT="" />
    <EXPORT ORDINAL="3940" NAME="?TszAlsGet@COfdCat@@QBE?AVCOfdTsz@@XZ" PURGE="4" COMMENT="" />
    <EXPORT ORDINAL="3941" NAME="?TszAlsGet@COfdPay@@QBE?AVCOfdTsz@@XZ" PURGE="4" COMMENT="" />
    <EXPORT ORDINAL="3942" NAME="?TszApayModelIdGet@COfdStmt@@QBE?AVCOfdTsz@@XZ" PURGE="4" COMMENT="" />
    <EXPORT ORDINAL="3943" NAME="?TszApayModelIdGet@COfdTrnBase@@QBE?AVCOfdTsz@@XZ" PURGE="4" COMMENT="" />
    <EXPORT ORDINAL="3944" NAME="?TszAutoASFIDGet@COfdFi@@QBE?AVCOfdTsz@@XZ" PURGE="4" COMMENT="" />
    <EXPORT ORDINAL="3945" NAME="?TszAutoASURLGet@COfdFi@@QBE?AVCOfdTsz@@XZ" PURGE="4" COMMENT="" />
    <EXPORT ORDINAL="3946" NAME="?TszAutoASURLHelpGet@COfdFi@@QBE?AVCOfdTsz@@XZ" PURGE="4" COMMENT="" />
    <EXPORT ORDINAL="3947" NAME="?TszAutoASUserIDGet@COfdFi@@QBE?AVCOfdTsz@@XZ" PURGE="4" COMMENT="" />
    <EXPORT ORDINAL="3948" NAME="?TszBackupGet@COfdFile@@QBE?AVCOfdTsz@@XZ" PURGE="4" COMMENT="" />
    <EXPORT ORDINAL="3949" NAME="?TszBankAdPathGet@COfdFi@@QBE?AVCOfdTsz@@XZ" PURGE="4" COMMENT="" />
    <EXPORT ORDINAL="3950" NAME="?TszBankAdURLGet@COfdFi@@QBE?AVCOfdTsz@@XZ" PURGE="4" COMMENT="" />
    <EXPORT ORDINAL="3951" NAME="?TszBankIdGet@COfdPay@@QBE?AVCOfdTsz@@XZ" PURGE="4" COMMENT="" />
    <EXPORT ORDINAL="3952" NAME="?TszBankIdGet@COfdSvc@@QBE?AVCOfdTsz@@XZ" PURGE="4" COMMENT="" />
    <EXPORT ORDINAL="3953" NAME="?TszBankIdToGet@COfdStmt@@QBE?AVCOfdTsz@@XZ" PURGE="4" COMMENT="" />
    <EXPORT ORDINAL="3954" NAME="?TszBankMailSyncTokenGet@COfdSvc@@QBE?AVCOfdTsz@@XZ" PURGE="4" COMMENT="" />
    <EXPORT ORDINAL="3955" NAME="?TszBdsIdGet@COfdFi@@QBE?AVCOfdTsz@@XZ" PURGE="4" COMMENT="" />
    <EXPORT ORDINAL="3956" NAME="?TszBodyGet@COfdMail@@QBE?AVCOfdTsz@@XZ" PURGE="4" COMMENT="" />
    <EXPORT ORDINAL="3957" NAME="?TszBranchIdGet@COfdPay@@QBE?AVCOfdTsz@@XZ" PURGE="4" COMMENT="" />
    <EXPORT ORDINAL="3958" NAME="?TszBranchIdGet@COfdSvc@@QBE?AVCOfdTsz@@XZ" PURGE="4" COMMENT="" />
    <EXPORT ORDINAL="3959" NAME="?TszBranchIdToGet@COfdStmt@@QBE?AVCOfdTsz@@XZ" PURGE="4" COMMENT="" />
    <EXPORT ORDINAL="3960" NAME="?TszBrokerIdGet@COfdProvFi@@QBE?AVCOfdTsz@@XZ" PURGE="4" COMMENT="" />
    <EXPORT ORDINAL="3961" NAME="?TszCCNumGet@COfdPay@@QBE?AVCOfdTsz@@XZ" PURGE="4" COMMENT="" />
    <EXPORT ORDINAL="3962" NAME="?TszCellPhoneGet@COfdPay@@QBE?AVCOfdTsz@@XZ" PURGE="4" COMMENT="" />
    <EXPORT ORDINAL="3963" NAME="?TszCityGet@COfdAcct@@QBE?AVCOfdTsz@@XZ" PURGE="4" COMMENT="" />
    <EXPORT ORDINAL="3964" NAME="?TszCityGet@COfdAddr@@QBE?AVCOfdTsz@@XZ" PURGE="4" COMMENT="" />
    <EXPORT ORDINAL="3965" NAME="?TszCityGet@COfdFi@@QBE?AVCOfdTsz@@XZ" PURGE="4" COMMENT="" />
    <EXPORT ORDINAL="3966" NAME="?TszCityGet@COfdPay@@QBE?AVCOfdTsz@@XZ" PURGE="4" COMMENT="" />
    <EXPORT ORDINAL="3967" NAME="?TszCityGet@COfdProvFi@@QBE?AVCOfdTsz@@XZ" PURGE="4" COMMENT="" />
    <EXPORT ORDINAL="3968" NAME="?TszCityGet@COfdProvFiPay@@QBE?AVCOfdTsz@@XZ" PURGE="4" COMMENT="" />
    <EXPORT ORDINAL="3969" NAME="?TszClientIdGet@COfdStmt@@QBE?AVCOfdTsz@@XZ" PURGE="4" COMMENT="" />
    <EXPORT ORDINAL="3970" NAME="?TszClientIdGet@COfdTrnBase@@QBE?AVCOfdTsz@@XZ" PURGE="4" COMMENT="" />
    <EXPORT ORDINAL="3971" NAME="?TszClsidSubstituteCommGet@COfdProvFi@@QBE?AVCOfdTsz@@XZ" PURGE="4" COMMENT="" />
    <EXPORT ORDINAL="3972" NAME="?TszCodeGet@COfdCntry@@QBE?AVCOfdTsz@@XZ" PURGE="4" COMMENT="" />
    <EXPORT ORDINAL="3973" NAME="?TszCommentGet@COfdAcct@@QBE?AVCOfdTsz@@XZ" PURGE="4" COMMENT="" />
    <EXPORT ORDINAL="3974" NAME="?TszCommentGet@COfdCat@@QBE?AVCOfdTsz@@XZ" PURGE="4" COMMENT="" />
    <EXPORT ORDINAL="3975" NAME="?TszCommentGet@COfdFi@@QBE?AVCOfdTsz@@XZ" PURGE="4" COMMENT="" />
    <EXPORT ORDINAL="3976" NAME="?TszCommentGet@COfdPay@@QBE?AVCOfdTsz@@XZ" PURGE="4" COMMENT="" />
    <EXPORT ORDINAL="3977" NAME="?TszCommentGet@COfdSec@@QBE?AVCOfdTsz@@XZ" PURGE="4" COMMENT="" />
    <EXPORT ORDINAL="3978" NAME="?TszCompanyNameGet@COfdPay@@QBE?AVCOfdTsz@@XZ" PURGE="4" COMMENT="" />
    <EXPORT ORDINAL="3979" NAME="?TszContactGet@COfdAcct@@QBE?AVCOfdTsz@@XZ" PURGE="4" COMMENT="" />
    <EXPORT ORDINAL="3980" NAME="?TszContactGet@COfdPay@@QBE?AVCOfdTsz@@XZ" PURGE="4" COMMENT="" />
    <EXPORT ORDINAL="3981" NAME="?TszContactGet@COfdTrip@@QBE?AVCOfdTsz@@XZ" PURGE="4" COMMENT="" />
    <EXPORT ORDINAL="3982" NAME="?TszCountryGet@COfdAcct@@QBE?AVCOfdTsz@@XZ" PURGE="4" COMMENT="" />
    <EXPORT ORDINAL="3983" NAME="?TszCountryGet@COfdAddr@@QBE?AVCOfdTsz@@XZ" PURGE="4" COMMENT="" />
    <EXPORT ORDINAL="3984" NAME="?TszCountryGet@COfdFi@@QBE?AVCOfdTsz@@XZ" PURGE="4" COMMENT="" />
    <EXPORT ORDINAL="3985" NAME="?TszCountryGet@COfdPay@@QBE?AVCOfdTsz@@XZ" PURGE="4" COMMENT="" />
    <EXPORT ORDINAL="3986" NAME="?TszCountryGet@COfdProvFi@@QBE?AVCOfdTsz@@XZ" PURGE="4" COMMENT="" />
    <EXPORT ORDINAL="3987" NAME="?TszCountryGet@COfdProvFiPay@@QBE?AVCOfdTsz@@XZ" PURGE="4" COMMENT="" />
    <EXPORT ORDINAL="3988" NAME="?TszCusipGet@COfdSec@@QBE?AVCOfdTsz@@XZ" PURGE="4" COMMENT="" />
    <EXPORT ORDINAL="3989" NAME="?TszDescGet@COfdProduct@@QBE?AVCOfdTsz@@XZ" PURGE="4" COMMENT="" />
    <EXPORT ORDINAL="3990" NAME="?TszDescGet@COfdProj@@QBE?AVCOfdTsz@@XZ" PURGE="4" COMMENT="" />
    <EXPORT ORDINAL="3991" NAME="?TszDescGet@COfdTmi@@QBE?AVCOfdTsz@@XZ" PURGE="4" COMMENT="" />
    <EXPORT ORDINAL="3992" NAME="?TszDescGet@COfdUie@@QBE?AVCOfdTsz@@XZ" PURGE="4" COMMENT="" />
    <EXPORT ORDINAL="3993" NAME="?TszDestGet@COfdTrip@@QBE?AVCOfdTsz@@XZ" PURGE="4" COMMENT="" />
    <EXPORT ORDINAL="3994" NAME="?TszEbppFitidGet@COfdTrnBase@@QBE?AVCOfdTsz@@XZ" PURGE="4" COMMENT="" />
    <EXPORT ORDINAL="3995" NAME="?TszEbppImageURLGet@COfdStmt@@QBE?AVCOfdTsz@@XZ" PURGE="4" COMMENT="" />
    <EXPORT ORDINAL="3996" NAME="?TszEbppImageURLGet@COfdTrnBase@@QBE?AVCOfdTsz@@XZ" PURGE="4" COMMENT="" />
    <EXPORT ORDINAL="3997" NAME="?TszEbppInstanceIdGet@COfdStmt@@QBE?AVCOfdTsz@@XZ" PURGE="4" COMMENT="" />
    <EXPORT ORDINAL="3998" NAME="?TszEbppModelIdGet@COfdStmt@@QBE?AVCOfdTsz@@XZ" PURGE="4" COMMENT="" />
    <EXPORT ORDINAL="3999" NAME="?TszEbppModelIdGet@COfdTrnBase@@QBE?AVCOfdTsz@@XZ" PURGE="4" COMMENT="" />
    <EXPORT ORDINAL="4000" NAME="?TszEbppPayGet@COfdStmt@@QBE?AVCOfdTsz@@XZ" PURGE="4" COMMENT="" />
    <EXPORT ORDINAL="4001" NAME="?TszEbppPmtAcctNumGet@COfdStmt@@QBE?AVCOfdTsz@@XZ" PURGE="4" COMMENT="" />
    <EXPORT ORDINAL="4002" NAME="?TszEbppPmtBankIdGet@COfdStmt@@QBE?AVCOfdTsz@@XZ" PURGE="4" COMMENT="" />
    <EXPORT ORDINAL="4003" NAME="?TszEbppPmtBranchIdGet@COfdStmt@@QBE?AVCOfdTsz@@XZ" PURGE="4" COMMENT="" />
    <EXPORT ORDINAL="4004" NAME="?TszEbppPmtIdGet@COfdStmt@@QBE?AVCOfdTsz@@XZ" PURGE="4" COMMENT="" />
    <EXPORT ORDINAL="4005" NAME="?TszEbppPmtIdGet@COfdTrnBase@@QBE?AVCOfdTsz@@XZ" PURGE="4" COMMENT="" />
    <EXPORT ORDINAL="4006" NAME="?TszExchgGet@COfdSec@@QBE?AVCOfdTsz@@XZ" PURGE="4" COMMENT="" />
    <EXPORT ORDINAL="4007" NAME="?TszFaxAddrGet@COfdAcct@@QBE?AVCOfdTsz@@XZ" PURGE="4" COMMENT="" />
    <EXPORT ORDINAL="4008" NAME="?TszFaxGet@COfdAcct@@QBE?AVCOfdTsz@@XZ" PURGE="4" COMMENT="" />
    <EXPORT ORDINAL="4009" NAME="?TszFaxGet@COfdAddr@@QBE?AVCOfdTsz@@XZ" PURGE="4" COMMENT="" />
    <EXPORT ORDINAL="4010" NAME="?TszFaxGet@COfdFi@@QBE?AVCOfdTsz@@XZ" PURGE="4" COMMENT="" />
    <EXPORT ORDINAL="4011" NAME="?TszFaxGet@COfdPay@@QBE?AVCOfdTsz@@XZ" PURGE="4" COMMENT="" />
    <EXPORT ORDINAL="4012" NAME="?TszFaxGet@COfdProvFi@@QBE?AVCOfdTsz@@XZ" PURGE="4" COMMENT="" />
    <EXPORT ORDINAL="4013" NAME="?TszFaxGet@COfdProvFiPay@@QBE?AVCOfdTsz@@XZ" PURGE="4" COMMENT="" />
    <EXPORT ORDINAL="4014" NAME="?TszFiStmtIdGet@COfdStmt@@QBE?AVCOfdTsz@@XZ" PURGE="4" COMMENT="" />
    <EXPORT ORDINAL="4015" NAME="?TszFiStmtIdGet@COfdTrnBase@@QBE?AVCOfdTsz@@XZ" PURGE="4" COMMENT="" />
    <EXPORT ORDINAL="4016" NAME="?TszFiURLGet@COfdProvFi@@QBE?AVCOfdTsz@@XZ" PURGE="4" COMMENT="" />
    <EXPORT ORDINAL="4017" NAME="?TszFileIdGet@COfdProvFi@@QBE?AVCOfdTsz@@XZ" PURGE="4" COMMENT="" />
    <EXPORT ORDINAL="4018" NAME="?TszFilePropGet@COfdFile@@QBE?AVCOfdTsz@@J@Z" PURGE="8" COMMENT="" />
    <EXPORT ORDINAL="4019" NAME="?TszFileUIDGet@COfdProvFi@@QBE?AVCOfdTsz@@XZ" PURGE="4" COMMENT="" />
    <EXPORT ORDINAL="4020" NAME="?TszFldGet@COfdList@@QBE?AVCOfdTsz@@J@Z" PURGE="8" COMMENT="" />
    <EXPORT ORDINAL="4021" NAME="?TszFldGet@COfdListDel@@QBE?AVCOfdTsz@@J@Z" PURGE="8" COMMENT="" />
    <EXPORT ORDINAL="4022" NAME="?TszFldGet@COfdListLotTrn@@QBE?AVCOfdTsz@@J@Z" PURGE="8" COMMENT="" />
    <EXPORT ORDINAL="4023" NAME="?TszFldGet@COfdListSplit@@QBE?AVCOfdTsz@@J@Z" PURGE="8" COMMENT="" />
    <EXPORT ORDINAL="4024" NAME="?TszFldGet@COfdListTrnPmts@@QBE?AVCOfdTsz@@J@Z" PURGE="8" COMMENT="" />
    <EXPORT ORDINAL="4025" NAME="?TszFldGet@COfdObject@@QBE?AVCOfdTsz@@J@Z" PURGE="8" COMMENT="" />
    <EXPORT ORDINAL="4026" NAME="?TszFreeFormGet@COfdAcct@@QBE?AVCOfdTsz@@XZ" PURGE="4" COMMENT="" />
    <EXPORT ORDINAL="4027" NAME="?TszFreeFormGet@COfdAddr@@QBE?AVCOfdTsz@@XZ" PURGE="4" COMMENT="" />
    <EXPORT ORDINAL="4028" NAME="?TszFreeFormGet@COfdFi@@QBE?AVCOfdTsz@@XZ" PURGE="4" COMMENT="" />
    <EXPORT ORDINAL="4029" NAME="?TszFreeFormGet@COfdPay@@QBE?AVCOfdTsz@@XZ" PURGE="4" COMMENT="" />
    <EXPORT ORDINAL="4030" NAME="?TszFreeFormGet@COfdProvFi@@QBE?AVCOfdTsz@@XZ" PURGE="4" COMMENT="" />
    <EXPORT ORDINAL="4031" NAME="?TszFreeFormGet@COfdProvFiPay@@QBE?AVCOfdTsz@@XZ" PURGE="4" COMMENT="" />
    <EXPORT ORDINAL="4032" NAME="?TszFromGet@COfdMail@@QBE?AVCOfdTsz@@XZ" PURGE="4" COMMENT="" />
    <EXPORT ORDINAL="4033" NAME="?TszFull2Get@COfdCt@@QBE?AVCOfdTsz@@XZ" PURGE="4" COMMENT="" />
    <EXPORT ORDINAL="4034" NAME="?TszFullGet@COfdAcct@@QBE?AVCOfdTsz@@XZ" PURGE="4" COMMENT="" />
    <EXPORT ORDINAL="4035" NAME="?TszFullGet@COfdBgt@@QBE?AVCOfdTsz@@XZ" PURGE="4" COMMENT="" />
    <EXPORT ORDINAL="4036" NAME="?TszFullGet@COfdBgtBkt@@QBE?AVCOfdTsz@@XZ" PURGE="4" COMMENT="" />
    <EXPORT ORDINAL="4037" NAME="?TszFullGet@COfdBgtItm@@QBE?AVCOfdTsz@@XZ" PURGE="4" COMMENT="" />
    <EXPORT ORDINAL="4038" NAME="?TszFullGet@COfdCat@@QBE?AVCOfdTsz@@XZ" PURGE="4" COMMENT="" />
    <EXPORT ORDINAL="4039" NAME="?TszFullGet@COfdCntry@@QBE?AVCOfdTsz@@XZ" PURGE="4" COMMENT="" />
    <EXPORT ORDINAL="4040" NAME="?TszFullGet@COfdCt@@QBE?AVCOfdTsz@@XZ" PURGE="4" COMMENT="" />
    <EXPORT ORDINAL="4041" NAME="?TszFullGet@COfdFi@@QBE?AVCOfdTsz@@XZ" PURGE="4" COMMENT="" />
    <EXPORT ORDINAL="4042" NAME="?TszFullGet@COfdPay@@QBE?AVCOfdTsz@@XZ" PURGE="4" COMMENT="" />
    <EXPORT ORDINAL="4043" NAME="?TszFullGet@COfdPgm@@QBE?AVCOfdTsz@@XZ" PURGE="4" COMMENT="" />
    <EXPORT ORDINAL="4044" NAME="?TszFullGet@COfdProduct@@QBE?AVCOfdTsz@@XZ" PURGE="4" COMMENT="" />
    <EXPORT ORDINAL="4045" NAME="?TszFullGet@COfdProj@@QBE?AVCOfdTsz@@XZ" PURGE="4" COMMENT="" />
    <EXPORT ORDINAL="4046" NAME="?TszFullGet@COfdProvFi@@QBE?AVCOfdTsz@@XZ" PURGE="4" COMMENT="" />
    <EXPORT ORDINAL="4047" NAME="?TszFullGet@COfdSavGoal@@QBE?AVCOfdTsz@@XZ" PURGE="4" COMMENT="" />
    <EXPORT ORDINAL="4048" NAME="?TszFullGet@COfdSec@@QBE?AVCOfdTsz@@XZ" PURGE="4" COMMENT="" />
    <EXPORT ORDINAL="4049" NAME="?TszGuidAcctMCGet@COfdAcct@@QBE?AVCOfdTsz@@XZ" PURGE="4" COMMENT="" />
    <EXPORT ORDINAL="4050" NAME="?TszGuidGet@COfdAcct@@QBE?AVCOfdTsz@@XZ" PURGE="4" COMMENT="" />
    <EXPORT ORDINAL="4051" NAME="?TszGuidGet@COfdBill@@QBE?AVCOfdTsz@@XZ" PURGE="4" COMMENT="" />
    <EXPORT ORDINAL="4052" NAME="?TszGuidGet@COfdCrnc@@QBE?AVCOfdTsz@@XZ" PURGE="4" COMMENT="" />
    <EXPORT ORDINAL="4053" NAME="?TszGuidGet@COfdLot@@QBE?AVCOfdTsz@@XZ" PURGE="4" COMMENT="" />
    <EXPORT ORDINAL="4054" NAME="?TszGuidGet@COfdPay@@QBE?AVCOfdTsz@@XZ" PURGE="4" COMMENT="" />
    <EXPORT ORDINAL="4055" NAME="?TszGuidGet@COfdSoq@@QBE?AVCOfdTsz@@XZ" PURGE="4" COMMENT="" />
    <EXPORT ORDINAL="4056" NAME="?TszGuidGet@COfdTrnBase@@QBE?AVCOfdTsz@@XZ" PURGE="4" COMMENT="" />
    <EXPORT ORDINAL="4057" NAME="?TszIdGet@COfdAcct@@QBE?AVCOfdTsz@@XZ" PURGE="4" COMMENT="" />
    <EXPORT ORDINAL="4058" NAME="?TszIdGet@COfdAddr@@QBE?AVCOfdTsz@@XZ" PURGE="4" COMMENT="" />
    <EXPORT ORDINAL="4059" NAME="?TszIdGet@COfdFi@@QBE?AVCOfdTsz@@XZ" PURGE="4" COMMENT="" />
    <EXPORT ORDINAL="4060" NAME="?TszIdGet@COfdPay@@QBE?AVCOfdTsz@@XZ" PURGE="4" COMMENT="" />
    <EXPORT ORDINAL="4061" NAME="?TszIdGet@COfdProvFi@@QBE?AVCOfdTsz@@XZ" PURGE="4" COMMENT="" />
    <EXPORT ORDINAL="4062" NAME="?TszIdGet@COfdProvFiPay@@QBE?AVCOfdTsz@@XZ" PURGE="4" COMMENT="" />
    <EXPORT ORDINAL="4063" NAME="?TszIdGet@COfdStmt@@QBE?AVCOfdTsz@@XZ" PURGE="4" COMMENT="" />
    <EXPORT ORDINAL="4064" NAME="?TszIdGet@COfdTrnBase@@QBE?AVCOfdTsz@@XZ" PURGE="4" COMMENT="" />
    <EXPORT ORDINAL="4065" NAME="?TszIdGet@COfdXbag@@QBE?AVCOfdTsz@@XZ" PURGE="4" COMMENT="" />
    <EXPORT ORDINAL="4066" NAME="?TszIdNextGet@COfdAcct@@QBE?AVCOfdTsz@@XZ" PURGE="4" COMMENT="" />
    <EXPORT ORDINAL="4067" NAME="?TszIdPrintGet@COfdAcct@@QBE?AVCOfdTsz@@XZ" PURGE="4" COMMENT="" />
    <EXPORT ORDINAL="4068" NAME="?TszImageURLGet@COfdUie@@QBE?AVCOfdTsz@@XZ" PURGE="4" COMMENT="" />
    <EXPORT ORDINAL="4069" NAME="?TszInfoHtmlPathGet@COfdProvFi@@QBE?AVCOfdTsz@@XZ" PURGE="4" COMMENT="" />
    <EXPORT ORDINAL="4070" NAME="?TszIntlChkSumGet@COfdPay@@QBE?AVCOfdTsz@@XZ" PURGE="4" COMMENT="" />
    <EXPORT ORDINAL="4071" NAME="?TszIntlChkSumGet@COfdSvc@@QBE?AVCOfdTsz@@XZ" PURGE="4" COMMENT="" />
    <EXPORT ORDINAL="4072" NAME="?TszIntlChkSumToGet@COfdStmt@@QBE?AVCOfdTsz@@XZ" PURGE="4" COMMENT="" />
    <EXPORT ORDINAL="4073" NAME="?TszIntraSyncTokenGet@COfdSvc@@QBE?AVCOfdTsz@@XZ" PURGE="4" COMMENT="" />
    <EXPORT ORDINAL="4074" NAME="?TszInvMailSyncTokenGet@COfdSvc@@QBE?AVCOfdTsz@@XZ" PURGE="4" COMMENT="" />
    <EXPORT ORDINAL="4075" NAME="?TszIsoCodeGet@COfdCrnc@@QBE?AVCOfdTsz@@XZ" PURGE="4" COMMENT="" />
    <EXPORT ORDINAL="4076" NAME="?TszIssuerGet@COfdSec@@QBE?AVCOfdTsz@@XZ" PURGE="4" COMMENT="" />
    <EXPORT ORDINAL="4077" NAME="?TszItemGet@COfdUie@@QBE?AVCOfdTsz@@XZ" PURGE="4" COMMENT="" />
    <EXPORT ORDINAL="4078" NAME="?TszLicGet@COfdAuto@@QBE?AVCOfdTsz@@XZ" PURGE="4" COMMENT="" />
    <EXPORT ORDINAL="4079" NAME="?TszLinkURLGet@COfdUie@@QBE?AVCOfdTsz@@XZ" PURGE="4" COMMENT="" />
    <EXPORT ORDINAL="4080" NAME="?TszListGet@COfdCt@@QBE?AVCOfdTsz@@XZ" PURGE="4" COMMENT="" />
    <EXPORT ORDINAL="4081" NAME="?TszMCIdGet@COfdAcct@@QBE?AVCOfdTsz@@XZ" PURGE="4" COMMENT="" />
    <EXPORT ORDINAL="4082" NAME="?TszMailSyncTokenGet@COfdProvFi@@QBE?AVCOfdTsz@@XZ" PURGE="4" COMMENT="" />
    <EXPORT ORDINAL="4083" NAME="?TszMakeGet@COfdAuto@@QBE?AVCOfdTsz@@XZ" PURGE="4" COMMENT="" />
    <EXPORT ORDINAL="4084" NAME="?TszMemoFollowupGet@COfdListTrn@@QBE?AVCOfdTsz@@XZ" PURGE="4" COMMENT="" />
    <EXPORT ORDINAL="4085" NAME="?TszMemoFollowupGet@COfdTrn@@QBE?AVCOfdTsz@@XZ" PURGE="4" COMMENT="" />
    <EXPORT ORDINAL="4086" NAME="?TszMemoGet@COfdAwd@@QBE?AVCOfdTsz@@XZ" PURGE="4" COMMENT="" />
    <EXPORT ORDINAL="4087" NAME="?TszMemoGet@COfdIvty@@QBE?AVCOfdTsz@@XZ" PURGE="4" COMMENT="" />
    <EXPORT ORDINAL="4088" NAME="?TszMemoGet@COfdPgm@@QBE?AVCOfdTsz@@XZ" PURGE="4" COMMENT="" />
    <EXPORT ORDINAL="4089" NAME="?TszMemoGet@COfdStmt@@QBE?AVCOfdTsz@@XZ" PURGE="4" COMMENT="" />
    <EXPORT ORDINAL="4090" NAME="?TszMemoGet@COfdTrnBase@@QBE?AVCOfdTsz@@XZ" PURGE="4" COMMENT="" />
    <EXPORT ORDINAL="4091" NAME="?TszMemoGet@COfdXbag@@QBE?AVCOfdTsz@@XZ" PURGE="4" COMMENT="" />
    <EXPORT ORDINAL="4092" NAME="?TszMidGet@COfdCt@@QBE?AVCOfdTsz@@XZ" PURGE="4" COMMENT="" />
    <EXPORT ORDINAL="4093" NAME="?TszModelGet@COfdAuto@@QBE?AVCOfdTsz@@XZ" PURGE="4" COMMENT="" />
    <EXPORT ORDINAL="4094" NAME="?TszNameGet@COfdCrnc@@QBE?AVCOfdTsz@@XZ" PURGE="4" COMMENT="" />
    <EXPORT ORDINAL="4095" NAME="?TszNameGet@COfdPosStmt@@QBE?AVCOfdTsz@@XZ" PURGE="4" COMMENT="" />
    <EXPORT ORDINAL="4096" NAME="?TszNameGet@COfdView@@QBE?AVCOfdTsz@@XZ" PURGE="4" COMMENT="" />
    <EXPORT ORDINAL="4097" NAME="?TszNamePayGet@COfdStmt@@QBE?AVCOfdTsz@@XZ" PURGE="4" COMMENT="" />
    <EXPORT ORDINAL="4098" NAME="?TszNameUserFirstGet@COfdAcct@@QBE?AVCOfdTsz@@XZ" PURGE="4" COMMENT="" />
    <EXPORT ORDINAL="4099" NAME="?TszNameUserFirstGet@COfdAddr@@QBE?AVCOfdTsz@@XZ" PURGE="4" COMMENT="" />
    <EXPORT ORDINAL="4100" NAME="?TszNameUserFirstGet@COfdFi@@QBE?AVCOfdTsz@@XZ" PURGE="4" COMMENT="" />
    <EXPORT ORDINAL="4101" NAME="?TszNameUserFirstGet@COfdPay@@QBE?AVCOfdTsz@@XZ" PURGE="4" COMMENT="" />
    <EXPORT ORDINAL="4102" NAME="?TszNameUserFirstGet@COfdProvFi@@QBE?AVCOfdTsz@@XZ" PURGE="4" COMMENT="" />
    <EXPORT ORDINAL="4103" NAME="?TszNameUserFirstGet@COfdProvFiPay@@QBE?AVCOfdTsz@@XZ" PURGE="4" COMMENT="" />
    <EXPORT ORDINAL="4104" NAME="?TszNameUserLastGet@COfdAcct@@QBE?AVCOfdTsz@@XZ" PURGE="4" COMMENT="" />
    <EXPORT ORDINAL="4105" NAME="?TszNameUserLastGet@COfdAddr@@QBE?AVCOfdTsz@@XZ" PURGE="4" COMMENT="" />
    <EXPORT ORDINAL="4106" NAME="?TszNameUserLastGet@COfdFi@@QBE?AVCOfdTsz@@XZ" PURGE="4" COMMENT="" />
    <EXPORT ORDINAL="4107" NAME="?TszNameUserLastGet@COfdPay@@QBE?AVCOfdTsz@@XZ" PURGE="4" COMMENT="" />
    <EXPORT ORDINAL="4108" NAME="?TszNameUserLastGet@COfdProvFi@@QBE?AVCOfdTsz@@XZ" PURGE="4" COMMENT="" />
    <EXPORT ORDINAL="4109" NAME="?TszNameUserLastGet@COfdProvFiPay@@QBE?AVCOfdTsz@@XZ" PURGE="4" COMMENT="" />
    <EXPORT ORDINAL="4110" NAME="?TszNameUserMiddleGet@COfdAcct@@QBE?AVCOfdTsz@@XZ" PURGE="4" COMMENT="" />
    <EXPORT ORDINAL="4111" NAME="?TszNameUserMiddleGet@COfdAddr@@QBE?AVCOfdTsz@@XZ" PURGE="4" COMMENT="" />
    <EXPORT ORDINAL="4112" NAME="?TszNameUserMiddleGet@COfdFi@@QBE?AVCOfdTsz@@XZ" PURGE="4" COMMENT="" />
    <EXPORT ORDINAL="4113" NAME="?TszNameUserMiddleGet@COfdPay@@QBE?AVCOfdTsz@@XZ" PURGE="4" COMMENT="" />
    <EXPORT ORDINAL="4114" NAME="?TszNameUserMiddleGet@COfdProvFi@@QBE?AVCOfdTsz@@XZ" PURGE="4" COMMENT="" />
    <EXPORT ORDINAL="4115" NAME="?TszNameUserMiddleGet@COfdProvFiPay@@QBE?AVCOfdTsz@@XZ" PURGE="4" COMMENT="" />
    <EXPORT ORDINAL="4116" NAME="?TszNewsURLGet@COfdFi@@QBE?AVCOfdTsz@@XZ" PURGE="4" COMMENT="" />
    <EXPORT ORDINAL="4117" NAME="?TszNewsURLGet@COfdSec@@QBE?AVCOfdTsz@@XZ" PURGE="4" COMMENT="" />
    <EXPORT ORDINAL="4118" NAME="?TszNoteGet@COfdUnote@@QBE?AVCOfdTsz@@XZ" PURGE="4" COMMENT="" />
    <EXPORT ORDINAL="4119" NAME="?TszNoteURLGet@COfdUnote@@QBE?AVCOfdTsz@@XZ" PURGE="4" COMMENT="" />
    <EXPORT ORDINAL="4120" NAME="?TszNumAcctToGet@COfdStmt@@QBE?AVCOfdTsz@@XZ" PURGE="4" COMMENT="" />
    <EXPORT ORDINAL="4121" NAME="?TszNumGet@COfdAcct@@QBE?AVCOfdTsz@@XZ" PURGE="4" COMMENT="" />
    <EXPORT ORDINAL="4122" NAME="?TszNumGet@COfdPgm@@QBE?AVCOfdTsz@@XZ" PURGE="4" COMMENT="" />
    <EXPORT ORDINAL="4123" NAME="?TszOlMemoGet@COfdXbag@@QBE?AVCOfdTsz@@XZ" PURGE="4" COMMENT="" />
    <EXPORT ORDINAL="4124" NAME="?TszPCActualGet@COfdFile@@QBE?AVCOfdTsz@@XZ" PURGE="4" COMMENT="" />
    <EXPORT ORDINAL="4125" NAME="?TszPCPendingGet@COfdFile@@QBE?AVCOfdTsz@@XZ" PURGE="4" COMMENT="" />
    <EXPORT ORDINAL="4126" NAME="?TszPONumberGet@COfdTrnBase@@QBE?AVCOfdTsz@@XZ" PURGE="4" COMMENT="" />
    <EXPORT ORDINAL="4127" NAME="?TszPagerGet@COfdPay@@QBE?AVCOfdTsz@@XZ" PURGE="4" COMMENT="" />
    <EXPORT ORDINAL="4128" NAME="?TszPartNumGet@COfdProduct@@QBE?AVCOfdTsz@@XZ" PURGE="4" COMMENT="" />
    <EXPORT ORDINAL="4129" NAME="?TszPasswordGet@COfdFile@@QBE?AVCOfdTsz@@XZ" PURGE="4" COMMENT="" />
    <EXPORT ORDINAL="4130" NAME="?TszPathGet@COfdFile@@QBE?AVCOfdTsz@@XZ" PURGE="4" COMMENT="" />
    <EXPORT ORDINAL="4131" NAME="?TszPayIDGet@COfdProvFiPay@@QBE?AVCOfdTsz@@XZ" PURGE="4" COMMENT="" />
    <EXPORT ORDINAL="4132" NAME="?TszPayIdGet@COfdStmt@@QBE?AVCOfdTsz@@XZ" PURGE="4" COMMENT="" />
    <EXPORT ORDINAL="4133" NAME="?TszPayListIdGet@COfdProvFiPay@@QBE?AVCOfdTsz@@XZ" PURGE="4" COMMENT="" />
    <EXPORT ORDINAL="4134" NAME="?TszPayeeSyncTokenGet@COfdProvFi@@QBE?AVCOfdTsz@@XZ" PURGE="4" COMMENT="" />
    <EXPORT ORDINAL="4135" NAME="?TszPhoneHomeGet@COfdAcct@@QBE?AVCOfdTsz@@XZ" PURGE="4" COMMENT="" />
    <EXPORT ORDINAL="4136" NAME="?TszPhoneHomeGet@COfdAddr@@QBE?AVCOfdTsz@@XZ" PURGE="4" COMMENT="" />
    <EXPORT ORDINAL="4137" NAME="?TszPhoneHomeGet@COfdFi@@QBE?AVCOfdTsz@@XZ" PURGE="4" COMMENT="" />
    <EXPORT ORDINAL="4138" NAME="?TszPhoneHomeGet@COfdPay@@QBE?AVCOfdTsz@@XZ" PURGE="4" COMMENT="" />
    <EXPORT ORDINAL="4139" NAME="?TszPhoneHomeGet@COfdProvFi@@QBE?AVCOfdTsz@@XZ" PURGE="4" COMMENT="" />
    <EXPORT ORDINAL="4140" NAME="?TszPhoneHomeGet@COfdProvFiPay@@QBE?AVCOfdTsz@@XZ" PURGE="4" COMMENT="" />
    <EXPORT ORDINAL="4141" NAME="?TszPhoneWorkGet@COfdAcct@@QBE?AVCOfdTsz@@XZ" PURGE="4" COMMENT="" />
    <EXPORT ORDINAL="4142" NAME="?TszPhoneWorkGet@COfdAddr@@QBE?AVCOfdTsz@@XZ" PURGE="4" COMMENT="" />
    <EXPORT ORDINAL="4143" NAME="?TszPhoneWorkGet@COfdFi@@QBE?AVCOfdTsz@@XZ" PURGE="4" COMMENT="" />
    <EXPORT ORDINAL="4144" NAME="?TszPhoneWorkGet@COfdPay@@QBE?AVCOfdTsz@@XZ" PURGE="4" COMMENT="" />
    <EXPORT ORDINAL="4145" NAME="?TszPhoneWorkGet@COfdProvFi@@QBE?AVCOfdTsz@@XZ" PURGE="4" COMMENT="" />
    <EXPORT ORDINAL="4146" NAME="?TszPhoneWorkGet@COfdProvFiPay@@QBE?AVCOfdTsz@@XZ" PURGE="4" COMMENT="" />
    <EXPORT ORDINAL="4147" NAME="?TszPhoneticGet@COfdAcct@@QBE?AVCOfdTsz@@XZ" PURGE="4" COMMENT="" />
    <EXPORT ORDINAL="4148" NAME="?TszPhoneticGet@COfdBgtBkt@@QBE?AVCOfdTsz@@XZ" PURGE="4" COMMENT="" />
    <EXPORT ORDINAL="4149" NAME="?TszPhoneticGet@COfdCat@@QBE?AVCOfdTsz@@XZ" PURGE="4" COMMENT="" />
    <EXPORT ORDINAL="4150" NAME="?TszPhoneticGet@COfdFi@@QBE?AVCOfdTsz@@XZ" PURGE="4" COMMENT="" />
    <EXPORT ORDINAL="4151" NAME="?TszPhoneticGet@COfdPay@@QBE?AVCOfdTsz@@XZ" PURGE="4" COMMENT="" />
    <EXPORT ORDINAL="4152" NAME="?TszPhoneticGet@COfdPgm@@QBE?AVCOfdTsz@@XZ" PURGE="4" COMMENT="" />
    <EXPORT ORDINAL="4153" NAME="?TszPhoneticGet@COfdProduct@@QBE?AVCOfdTsz@@XZ" PURGE="4" COMMENT="" />
    <EXPORT ORDINAL="4154" NAME="?TszPhoneticGet@COfdSavGoal@@QBE?AVCOfdTsz@@XZ" PURGE="4" COMMENT="" />
    <EXPORT ORDINAL="4155" NAME="?TszPhoneticGet@COfdSec@@QBE?AVCOfdTsz@@XZ" PURGE="4" COMMENT="" />
    <EXPORT ORDINAL="4156" NAME="?TszPmtMailSyncTokenGet@COfdProvFi@@QBE?AVCOfdTsz@@XZ" PURGE="4" COMMENT="" />
    <EXPORT ORDINAL="4157" NAME="?TszPmtSyncTokenGet@COfdSvc@@QBE?AVCOfdTsz@@XZ" PURGE="4" COMMENT="" />
    <EXPORT ORDINAL="4158" NAME="?TszPmtTypeGet@COfdPay@@QBE?AVCOfdTsz@@XZ" PURGE="4" COMMENT="" />
    <EXPORT ORDINAL="4159" NAME="?TszPostalCodeGet@COfdAcct@@QBE?AVCOfdTsz@@XZ" PURGE="4" COMMENT="" />
    <EXPORT ORDINAL="4160" NAME="?TszPostalCodeGet@COfdAddr@@QBE?AVCOfdTsz@@XZ" PURGE="4" COMMENT="" />
    <EXPORT ORDINAL="4161" NAME="?TszPostalCodeGet@COfdFi@@QBE?AVCOfdTsz@@XZ" PURGE="4" COMMENT="" />
    <EXPORT ORDINAL="4162" NAME="?TszPostalCodeGet@COfdPay@@QBE?AVCOfdTsz@@XZ" PURGE="4" COMMENT="" />
    <EXPORT ORDINAL="4163" NAME="?TszPostalCodeGet@COfdProvFi@@QBE?AVCOfdTsz@@XZ" PURGE="4" COMMENT="" />
    <EXPORT ORDINAL="4164" NAME="?TszPostalCodeGet@COfdProvFiPay@@QBE?AVCOfdTsz@@XZ" PURGE="4" COMMENT="" />
    <EXPORT ORDINAL="4165" NAME="?TszProvBankIdGet@COfdProvFi@@QBE?AVCOfdTsz@@XZ" PURGE="4" COMMENT="" />
    <EXPORT ORDINAL="4166" NAME="?TszProvIdGet@COfdStmt@@QBE?AVCOfdTsz@@XZ" PURGE="4" COMMENT="" />
    <EXPORT ORDINAL="4167" NAME="?TszProvIdGet@COfdTrnBase@@QBE?AVCOfdTsz@@XZ" PURGE="4" COMMENT="" />
    <EXPORT ORDINAL="4168" NAME="?TszProvUserIdGet@COfdProvFi@@QBE?AVCOfdTsz@@XZ" PURGE="4" COMMENT="" />
    <EXPORT ORDINAL="4169" NAME="?TszPurchaseLocGet@COfdAuto@@QBE?AVCOfdTsz@@XZ" PURGE="4" COMMENT="" />
    <EXPORT ORDINAL="4170" NAME="?TszPurposeGet@COfdTrip@@QBE?AVCOfdTsz@@XZ" PURGE="4" COMMENT="" />
    <EXPORT ORDINAL="4171" NAME="?TszPwdLabelGet@COfdProvFi@@QBE?AVCOfdTsz@@XZ" PURGE="4" COMMENT="" />
    <EXPORT ORDINAL="4172" NAME="?TszRecPmtSyncTokenGet@COfdSvc@@QBE?AVCOfdTsz@@XZ" PURGE="4" COMMENT="" />
    <EXPORT ORDINAL="4173" NAME="?TszReplacementsGet@COfdAdv@@QBE?AVCOfdTsz@@XZ" PURGE="4" COMMENT="" />
    <EXPORT ORDINAL="4174" NAME="?TszSecNameGet@COfdBrkStmt@@QBE?AVCOfdTsz@@XZ" PURGE="4" COMMENT="" />
    <EXPORT ORDINAL="4175" NAME="?TszSecSymbolGet@COfdBrkStmt@@QBE?AVCOfdTsz@@XZ" PURGE="4" COMMENT="" />
    <EXPORT ORDINAL="4176" NAME="?TszSessIdGet@COfdProvFi@@QBE?AVCOfdTsz@@XZ" PURGE="4" COMMENT="" />
    <EXPORT ORDINAL="4177" NAME="?TszSetupFileURLGet@COfdFi@@QBE?AVCOfdTsz@@XZ" PURGE="4" COMMENT="" />
    <EXPORT ORDINAL="4178" NAME="?TszSetupFileURLGet@COfdProvFi@@QBE?AVCOfdTsz@@XZ" PURGE="4" COMMENT="" />
    <EXPORT ORDINAL="4179" NAME="?TszShortNameGet@COfdProvFi@@QBE?AVCOfdTsz@@XZ" PURGE="4" COMMENT="" />
    <EXPORT ORDINAL="4180" NAME="?TszSignupURLGet@COfdProvFi@@QBE?AVCOfdTsz@@XZ" PURGE="4" COMMENT="" />
    <EXPORT ORDINAL="4181" NAME="?TszStateGet@COfdAcct@@QBE?AVCOfdTsz@@XZ" PURGE="4" COMMENT="" />
    <EXPORT ORDINAL="4182" NAME="?TszStateGet@COfdAddr@@QBE?AVCOfdTsz@@XZ" PURGE="4" COMMENT="" />
    <EXPORT ORDINAL="4183" NAME="?TszStateGet@COfdFi@@QBE?AVCOfdTsz@@XZ" PURGE="4" COMMENT="" />
    <EXPORT ORDINAL="4184" NAME="?TszStateGet@COfdPay@@QBE?AVCOfdTsz@@XZ" PURGE="4" COMMENT="" />
    <EXPORT ORDINAL="4185" NAME="?TszStateGet@COfdProvFi@@QBE?AVCOfdTsz@@XZ" PURGE="4" COMMENT="" />
    <EXPORT ORDINAL="4186" NAME="?TszStateGet@COfdProvFiPay@@QBE?AVCOfdTsz@@XZ" PURGE="4" COMMENT="" />
    <EXPORT ORDINAL="4187" NAME="?TszStmtSyncTokenGet@COfdSvc@@QBE?AVCOfdTsz@@XZ" PURGE="4" COMMENT="" />
    <EXPORT ORDINAL="4188" NAME="?TszSubGet@COfdCt@@QBE?AVCOfdTsz@@XZ" PURGE="4" COMMENT="" />
    <EXPORT ORDINAL="4189" NAME="?TszSubjectGet@COfdMail@@QBE?AVCOfdTsz@@XZ" PURGE="4" COMMENT="" />
    <EXPORT ORDINAL="4190" NAME="?TszSubjectGet@COfdUnote@@QBE?AVCOfdTsz@@XZ" PURGE="4" COMMENT="" />
    <EXPORT ORDINAL="4191" NAME="?TszSubstituteCommNameGet@COfdProvFi@@QBE?AVCOfdTsz@@XZ" PURGE="4" COMMENT="" />
    <EXPORT ORDINAL="4192" NAME="?TszSvcUpdURLGet@COfdProvFi@@QBE?AVCOfdTsz@@XZ" PURGE="4" COMMENT="" />
    <EXPORT ORDINAL="4193" NAME="?TszSymbolGet@COfdCrnc@@QBE?AVCOfdTsz@@XZ" PURGE="4" COMMENT="" />
    <EXPORT ORDINAL="4194" NAME="?TszSymbolGet@COfdPosStmt@@QBE?AVCOfdTsz@@XZ" PURGE="4" COMMENT="" />
    <EXPORT ORDINAL="4195" NAME="?TszSymbolGet@COfdSec@@QBE?AVCOfdTsz@@XZ" PURGE="4" COMMENT="" />
    <EXPORT ORDINAL="4196" NAME="?TszTanGet@COfdProvFi@@QBE?AVCOfdTsz@@XZ" PURGE="4" COMMENT="" />
    <EXPORT ORDINAL="4197" NAME="?TszToGet@COfdMail@@QBE?AVCOfdTsz@@XZ" PURGE="4" COMMENT="" />
    <EXPORT ORDINAL="4198" NAME="?TszTradingURLGet@COfdFi@@QBE?AVCOfdTsz@@XZ" PURGE="4" COMMENT="" />
    <EXPORT ORDINAL="4199" NAME="?TszUIDGet@COfdBrkStmt@@QBE?AVCOfdTsz@@XZ" PURGE="4" COMMENT="" />
    <EXPORT ORDINAL="4200" NAME="?TszUIDGet@COfdPosStmt@@QBE?AVCOfdTsz@@XZ" PURGE="4" COMMENT="" />
    <EXPORT ORDINAL="4201" NAME="?TszUIDGet@COfdSec@@QBE?AVCOfdTsz@@XZ" PURGE="4" COMMENT="" />
    <EXPORT ORDINAL="4202" NAME="?TszUIDLabelGet@COfdProvFi@@QBE?AVCOfdTsz@@XZ" PURGE="4" COMMENT="" />
    <EXPORT ORDINAL="4203" NAME="?TszUIDTypeGet@COfdBrkStmt@@QBE?AVCOfdTsz@@XZ" PURGE="4" COMMENT="" />
    <EXPORT ORDINAL="4204" NAME="?TszUIDTypeGet@COfdPosStmt@@QBE?AVCOfdTsz@@XZ" PURGE="4" COMMENT="" />
    <EXPORT ORDINAL="4205" NAME="?TszUIDTypeGet@COfdSec@@QBE?AVCOfdTsz@@XZ" PURGE="4" COMMENT="" />
    <EXPORT ORDINAL="4206" NAME="?TszURLGet@COfdAcct@@QBE?AVCOfdTsz@@XZ" PURGE="4" COMMENT="" />
    <EXPORT ORDINAL="4207" NAME="?TszURLGet@COfdAddr@@QBE?AVCOfdTsz@@XZ" PURGE="4" COMMENT="" />
    <EXPORT ORDINAL="4208" NAME="?TszURLGet@COfdFi@@QBE?AVCOfdTsz@@XZ" PURGE="4" COMMENT="" />
    <EXPORT ORDINAL="4209" NAME="?TszURLGet@COfdPay@@QBE?AVCOfdTsz@@XZ" PURGE="4" COMMENT="" />
    <EXPORT ORDINAL="4210" NAME="?TszURLGet@COfdPgm@@QBE?AVCOfdTsz@@XZ" PURGE="4" COMMENT="" />
    <EXPORT ORDINAL="4211" NAME="?TszURLGet@COfdProvFi@@QBE?AVCOfdTsz@@XZ" PURGE="4" COMMENT="" />
    <EXPORT ORDINAL="4212" NAME="?TszURLGet@COfdProvFiPay@@QBE?AVCOfdTsz@@XZ" PURGE="4" COMMENT="" />
    <EXPORT ORDINAL="4213" NAME="?TszURLMfgGet@COfdAuto@@QBE?AVCOfdTsz@@XZ" PURGE="4" COMMENT="" />
    <EXPORT ORDINAL="4214" NAME="?TszUserAcctAtPayGet@COfdPay@@QBE?AVCOfdTsz@@XZ" PURGE="4" COMMENT="" />
    <EXPORT ORDINAL="4215" NAME="?TszUserAcctAtPayGet@COfdStmt@@QBE?AVCOfdTsz@@XZ" PURGE="4" COMMENT="" />
    <EXPORT ORDINAL="4216" NAME="?TszVINGet@COfdAuto@@QBE?AVCOfdTsz@@XZ" PURGE="4" COMMENT="" />
    <EXPORT ORDINAL="4217" NAME="?TszValueGet@COfdCrit@@QBE?AVCOfdTsz@@XZ" PURGE="4" COMMENT="" />
    <EXPORT ORDINAL="4218" NAME="?TszVersionGet@COfdProvFi@@QBE?AVCOfdTsz@@XZ" PURGE="4" COMMENT="" />
    <EXPORT ORDINAL="4219" NAME="?TszVoiceGet@COfdAcct@@QBE?AVCOfdTsz@@XZ" PURGE="4" COMMENT="" />
    <EXPORT ORDINAL="4220" NAME="?TszWarrantyGet@COfdAuto@@QBE?AVCOfdTsz@@XZ" PURGE="4" COMMENT="" />
    <EXPORT ORDINAL="4221" NAME="?TszWebPageGet@COfdPay@@QBE?AVCOfdTsz@@XZ" PURGE="4" COMMENT="" />
    <EXPORT ORDINAL="4222" NAME="?TszWebPayURLGet@COfdFi@@QBE?AVCOfdTsz@@XZ" PURGE="4" COMMENT="" />
    <EXPORT ORDINAL="4223" NAME="?TszWebServicesURLGet@COfdFi@@QBE?AVCOfdTsz@@XZ" PURGE="4" COMMENT="" />
    <EXPORT ORDINAL="4224" NAME="?TszWebSignupURLGet@COfdFi@@QBE?AVCOfdTsz@@XZ" PURGE="4" COMMENT="" />
    <EXPORT ORDINAL="4225" NAME="?TszXbagFldGet@COfdCat@@QBE?AVCOfdTsz@@JW4__MIDL___MIDL_itf_iofd_0249_0002@@@Z" PURGE="12" COMMENT="" />
    <EXPORT ORDINAL="4226" NAME="?TszXbagFldGet@COfdListBill@@QBE?AVCOfdTsz@@JW4__MIDL___MIDL_itf_iofd_0249_0002@@@Z" PURGE="12" COMMENT="" />
    <EXPORT ORDINAL="4227" NAME="?TszXbagFldGet@COfdListCat@@QBE?AVCOfdTsz@@JW4__MIDL___MIDL_itf_iofd_0249_0002@@@Z" PURGE="12" COMMENT="" />
    <EXPORT ORDINAL="4228" NAME="?TszXbagFldGet@COfdListTrn@@QBE?AVCOfdTsz@@JW4__MIDL___MIDL_itf_iofd_0249_0002@@@Z" PURGE="12" COMMENT="" />
    <EXPORT ORDINAL="4229" NAME="?TszXbagFldGet@COfdTrnBase@@QBE?AVCOfdTsz@@JW4__MIDL___MIDL_itf_iofd_0249_0002@@@Z" PURGE="12" COMMENT="" />
    <EXPORT ORDINAL="4230" NAME="?TutGet@COfdTrip@@QBE?AW4__MIDL___MIDL_itf_iofd_0216_0002@@XZ" PURGE="0" COMMENT="" />
    <EXPORT ORDINAL="4231" NAME="?TxcpyGet@COfdTaxline@@QBEJXZ" PURGE="0" COMMENT="" />
    <EXPORT ORDINAL="4232" NAME="?TxcpyGet@COfdTxsrc@@QBEJXZ" PURGE="0" COMMENT="" />
    <EXPORT ORDINAL="4233" NAME="?TxnGet@COfdTaxline@@QBEJXZ" PURGE="0" COMMENT="" />
    <EXPORT ORDINAL="4234" NAME="?TxnGet@COfdTxsrc@@QBEJXZ" PURGE="0" COMMENT="" />
    <EXPORT ORDINAL="4235" NAME="?TxsrcCurGet@COfdListTxsrc@@QBE?AVCOfdTxsrc@@XZ" PURGE="4" COMMENT="" />
    <EXPORT ORDINAL="4236" NAME="?TxsrcFromTxpd@COfdCat@@QBE?AVCOfdTxsrc@@J@Z" PURGE="8" COMMENT="" />
    <EXPORT ORDINAL="4237" NAME="?TypeFieldGet@COfdPool@@QBE?AW4__MIDL___MIDL_itf_iofd_0110_0001@@J@Z" PURGE="4" COMMENT="" />
    <EXPORT ORDINAL="4238" NAME="?TypeGet@COfdCat@@QBE?AW4__MIDL___MIDL_itf_iofd_0127_0001@@XZ" PURGE="0" COMMENT="" />
    <EXPORT ORDINAL="4239" NAME="?UatGet@COfdAcct@@QBE?AW4__MIDL___MIDL_itf_iofd_0242_0002@@XZ" PURGE="0" COMMENT="" />
    <EXPORT ORDINAL="4240" NAME="?UieCurGet@COfdListUie@@QBE?AVCOfdUie@@XZ" PURGE="4" COMMENT="" />
    <EXPORT ORDINAL="4241" NAME="?UnittGet@COfdPgm@@QBE?AW4__MIDL___MIDL_itf_iofd_0230_0005@@XZ" PURGE="0" COMMENT="" />
    <EXPORT ORDINAL="4242" NAME="?UnlinkMergerSpinoff@COfdTrn@@QAEXABV1@@Z" PURGE="4" COMMENT="" />
    <EXPORT ORDINAL="4243" NAME="?UnlinkModelInst@COfdTrn@@QAEXXZ" PURGE="0" COMMENT="" />
    <EXPORT ORDINAL="4244" NAME="?UnlinkTransfer@COfdBill@@UAEXXZ" PURGE="0" COMMENT="" />
    <EXPORT ORDINAL="4245" NAME="?UnlinkTransfer@COfdTrn@@UAEXXZ" PURGE="0" COMMENT="" />
    <EXPORT ORDINAL="4246" NAME="?UnoteCurGet@COfdListUnote@@QBE?AVCOfdUnote@@XZ" PURGE="4" COMMENT="" />
    <EXPORT ORDINAL="4247" NAME="?UpdateForSplit@COfdPoolPrice@@QAEXABVCOfdSec@@VCBaseDateTime@@HHW4__MIDL___MIDL_itf_iofd_0175_0001@@@Z" PURGE="32" COMMENT="" />
    <EXPORT ORDINAL="4248" NAME="?VarCompare@COfdVariant@@SAJABUtagVARIANT@@0PAHK@Z" PURGE="0" COMMENT="" />
    <EXPORT ORDINAL="4249" NAME="?VarCustPropGet@COfdFile@@QBE?AVCOfdVariant@@J@Z" PURGE="8" COMMENT="" />
    <EXPORT ORDINAL="4250" NAME="?VarFilePropGet@COfdFile@@QBE?AVCOfdVariant@@W4__MIDL___MIDL_itf_iofd_0120_0001@@@Z" PURGE="8" COMMENT="" />
    <EXPORT ORDINAL="4251" NAME="?VarFldGet@COfdList@@QBE?AVCOfdVariant@@J@Z" PURGE="8" COMMENT="" />
    <EXPORT ORDINAL="4252" NAME="?VarFldGet@COfdListDel@@QBE?AVCOfdVariant@@J@Z" PURGE="8" COMMENT="" />
    <EXPORT ORDINAL="4253" NAME="?VarFldGet@COfdListLotTrn@@QBE?AVCOfdVariant@@J@Z" PURGE="8" COMMENT="" />
    <EXPORT ORDINAL="4254" NAME="?VarFldGet@COfdListSplit@@QBE?AVCOfdVariant@@J@Z" PURGE="8" COMMENT="" />
    <EXPORT ORDINAL="4255" NAME="?VarFldGet@COfdListTrnPmts@@QBE?AVCOfdVariant@@J@Z" PURGE="8" COMMENT="" />
    <EXPORT ORDINAL="4256" NAME="?VarFldGet@COfdObject@@QBE?AVCOfdVariant@@J@Z" PURGE="8" COMMENT="" />
    <EXPORT ORDINAL="4257" NAME="?VarStrCompare@COfdVariant@@SAJPBD0PAHK@Z" PURGE="0" COMMENT="" />
    <EXPORT ORDINAL="4258" NAME="?VarValueGet@COfdCrit@@QBE?AVCOfdVariant@@XZ" PURGE="4" COMMENT="" />
    <EXPORT ORDINAL="4259" NAME="?VarXbagFldGet@COfdCat@@QBE?AVCOfdVariant@@JW4__MIDL___MIDL_itf_iofd_0249_0002@@@Z" PURGE="12" COMMENT="" />
    <EXPORT ORDINAL="4260" NAME="?VarXbagFldGet@COfdListBill@@QBE?AVCOfdVariant@@JW4__MIDL___MIDL_itf_iofd_0249_0002@@@Z" PURGE="12" COMMENT="" />
    <EXPORT ORDINAL="4261" NAME="?VarXbagFldGet@COfdListCat@@QBE?AVCOfdVariant@@JW4__MIDL___MIDL_itf_iofd_0249_0002@@@Z" PURGE="12" COMMENT="" />
    <EXPORT ORDINAL="4262" NAME="?VarXbagFldGet@COfdListTrn@@QBE?AVCOfdVariant@@JW4__MIDL___MIDL_itf_iofd_0249_0002@@@Z" PURGE="12" COMMENT="" />
    <EXPORT ORDINAL="4263" NAME="?VarXbagFldGet@COfdTrnBase@@QBE?AVCOfdVariant@@JW4__MIDL___MIDL_itf_iofd_0249_0002@@@Z" PURGE="12" COMMENT="" />
    <EXPORT ORDINAL="4264" NAME="?ViewClone@COfdList@@QBE?AVCOfdView@@XZ" PURGE="4" COMMENT="" />
    <EXPORT ORDINAL="4265" NAME="?ViewClone@COfdListLotTrn@@QBE?AVCOfdView@@XZ" PURGE="4" COMMENT="" />
    <EXPORT ORDINAL="4266" NAME="?ViewClone@COfdListTrnPmts@@QBE?AVCOfdView@@XZ" PURGE="4" COMMENT="" />
    <EXPORT ORDINAL="4267" NAME="?ViewCurGet@COfdListView@@QBE?AVCOfdView@@XZ" PURGE="4" COMMENT="" />
    <EXPORT ORDINAL="4268" NAME="?VolGet@COfdPrice@@QBEJXZ" PURGE="0" COMMENT="" />
    <EXPORT ORDINAL="4269" NAME="?WMagicGet@COfdFile@@QBEJXZ" PURGE="0" COMMENT="" />
    <EXPORT ORDINAL="4270" NAME="?XbagCurGet@COfdListXbag@@QBE?AVCOfdXbag@@XZ" PURGE="4" COMMENT="" />
    <EXPORT ORDINAL="4271" NAME="?XbagGet@COfdCat@@QBE?AVCOfdXbag@@W4__MIDL___MIDL_itf_iofd_0249_0002@@@Z" PURGE="8" COMMENT="" />
    <EXPORT ORDINAL="4272" NAME="?XbagGet@COfdListBill@@QBE?AVCOfdXbag@@W4__MIDL___MIDL_itf_iofd_0249_0002@@@Z" PURGE="8" COMMENT="" />
    <EXPORT ORDINAL="4273" NAME="?XbagGet@COfdListTrn@@QBE?AVCOfdXbag@@W4__MIDL___MIDL_itf_iofd_0249_0002@@@Z" PURGE="8" COMMENT="" />
    <EXPORT ORDINAL="4274" NAME="?XbagGet@COfdTrnBase@@QBE?AVCOfdXbag@@W4__MIDL___MIDL_itf_iofd_0249_0002@@@Z" PURGE="8" COMMENT="" />
    <EXPORT ORDINAL="4275" NAME="?_GetBaseClass@COfdException@@KGPAUCRuntimeClass@@XZ" PURGE="0" COMMENT="" />
    <EXPORT ORDINAL="4276" NAME="?billTriNil@@3VCBillTri@@B" PURGE="-1" COMMENT="" />
    <EXPORT ORDINAL="4277" NAME="?classCOfdException@COfdException@@2UCRuntimeClass@@B" PURGE="-1" COMMENT="" />
    <EXPORT ORDINAL="4278" NAME="?fJPN@@3HA" PURGE="-1" COMMENT="" />
    <EXPORT ORDINAL="4279" NAME="?m_callback@COfdCurrency@@1P6AXPBV1@PAUAMTOLD@@@ZA" PURGE="-1" COMMENT="" />
    <EXPORT ORDINAL="4280" NAME="?olitGet@COfdFi@@QBE?AW4__MIDL___MIDL_itf_iofd_0157_0005@@XZ" PURGE="0" COMMENT="" />
    <EXPORT ORDINAL="4281" NAME="?tszEmpty@COfdTsz@@0PBDB" PURGE="-1" COMMENT="" />
    <EXPORT ORDINAL="4282" NAME="?txpdGet@COfdTxsrc@@QBEJXZ" PURGE="0" COMMENT="" />
</LIBRARY>

