<?xml version="1.0" encoding="UTF-8"?>
<LIBRARY NAME="msdaipp.dll" PATH="/DLLArchive/etc/MSDAIPP.DLL" DATE="Fri Jul 03 21:55:00 CEST 2020" VERSION="8.103.5219.0">
    <EXPORT ORDINAL="1" NAME="DllCanUnloadNow" PURGE="0" COMMENT="" />
    <EXPORT ORDINAL="2" NAME="DllGetClassObject" PURGE="12" COMMENT="" />
    <EXPORT ORDINAL="3" NAME="DllRegisterServer" PURGE="0" COMMENT="" />
    <EXPORT ORDINAL="4" NAME="DllUnregisterServer" PURGE="0" COMMENT="" />
    <EXPORT ORDINAL="5" NAME="??0CComAutoCriticalSectionExported@@QAE@XZ" PURGE="0" COMMENT="" />
    <EXPORT ORDINAL="6" NAME="??0CFileMap@@QAE@ABV0@@Z" PURGE="4" COMMENT="" />
    <EXPORT ORDINAL="7" NAME="??0CRbPropRowset@@QAE@ABV0@@Z" PURGE="4" COMMENT="" />
    <EXPORT ORDINAL="8" NAME="??0CRbPropRowset@@QAE@XZ" PURGE="0" COMMENT="" />
    <EXPORT ORDINAL="9" NAME="??0CSystemFileAPIsWrapper@@QAE@ABV0@@Z" PURGE="4" COMMENT="" />
    <EXPORT ORDINAL="10" NAME="??0CSystemFileAPIsWrapper@@QAE@XZ" PURGE="0" COMMENT="" />
    <EXPORT ORDINAL="11" NAME="??0CWin95SystemFileAPIs@@QAE@ABV0@@Z" PURGE="4" COMMENT="" />
    <EXPORT ORDINAL="12" NAME="??0CWin95SystemFileAPIs@@QAE@XZ" PURGE="0" COMMENT="" />
    <EXPORT ORDINAL="13" NAME="??0CWinNTSystemFileAPIs@@QAE@ABV0@@Z" PURGE="4" COMMENT="" />
    <EXPORT ORDINAL="14" NAME="??0CWinNTSystemFileAPIs@@QAE@XZ" PURGE="0" COMMENT="" />
    <EXPORT ORDINAL="15" NAME="??1CComAutoCriticalSectionExported@@QAE@XZ" PURGE="0" COMMENT="" />
    <EXPORT ORDINAL="16" NAME="??1CRbPropRowset@@QAE@XZ" PURGE="0" COMMENT="" />
    <EXPORT ORDINAL="17" NAME="??4CBucket@@QAEAAV0@ABV0@@Z" PURGE="4" COMMENT="" />
    <EXPORT ORDINAL="18" NAME="??4CBucketW@@QAEAAV0@ABV0@@Z" PURGE="4" COMMENT="" />
    <EXPORT ORDINAL="19" NAME="??4CComAutoCriticalSectionExported@@QAEAAV0@ABV0@@Z" PURGE="4" COMMENT="" />
    <EXPORT ORDINAL="20" NAME="??4CFileMap@@QAEAAV0@ABV0@@Z" PURGE="4" COMMENT="" />
    <EXPORT ORDINAL="21" NAME="??4CMapper@@QAEAAV0@ABV0@@Z" PURGE="4" COMMENT="" />
    <EXPORT ORDINAL="22" NAME="??4CMapperW@@QAEAAV0@ABV0@@Z" PURGE="4" COMMENT="" />
    <EXPORT ORDINAL="23" NAME="??4CPathname@@QAEAAV0@ABV0@@Z" PURGE="4" COMMENT="" />
    <EXPORT ORDINAL="24" NAME="??4CRbPropRowset@@QAEAAV0@ABV0@@Z" PURGE="4" COMMENT="" />
    <EXPORT ORDINAL="25" NAME="??4CRegistry@@QAEAAV0@ABV0@@Z" PURGE="4" COMMENT="" />
    <EXPORT ORDINAL="26" NAME="??4CSystemFileAPIsWrapper@@QAEAAV0@ABV0@@Z" PURGE="4" COMMENT="" />
    <EXPORT ORDINAL="27" NAME="??4CWin95SystemFileAPIs@@QAEAAV0@ABV0@@Z" PURGE="4" COMMENT="" />
    <EXPORT ORDINAL="28" NAME="??4CWinNTSystemFileAPIs@@QAEAAV0@ABV0@@Z" PURGE="4" COMMENT="" />
    <EXPORT ORDINAL="29" NAME="??_7CFileMap@@6B@" PURGE="-1" COMMENT="" />
    <EXPORT ORDINAL="30" NAME="??_7CSystemFileAPIsWrapper@@6B@" PURGE="-1" COMMENT="" />
    <EXPORT ORDINAL="31" NAME="??_7CWin95SystemFileAPIs@@6B@" PURGE="-1" COMMENT="" />
    <EXPORT ORDINAL="32" NAME="??_7CWinNTSystemFileAPIs@@6B@" PURGE="-1" COMMENT="" />
    <EXPORT ORDINAL="33" NAME="??_C@_19JGFB@?$AA?2?$AA?2?$AA?4?$AA?2?$AA?$AA@" PURGE="-1" COMMENT="" />
    <EXPORT ORDINAL="34" NAME="??_FCFileMap@@QAEXXZ" PURGE="0" COMMENT="" />
    <EXPORT ORDINAL="35" NAME="?AddCalculatedColumn@CRbPropRowset@@QAEJABVCRbDbid@@PBGGKABUTCalculationSpec@@PAK@Z" PURGE="24" COMMENT="" />
    <EXPORT ORDINAL="36" NAME="?AddColumn@CRbPropRowset@@QAEJABVCRbDbid@@PBGGKPAK@Z" PURGE="20" COMMENT="" />
    <EXPORT ORDINAL="37" NAME="?AddRefRow@CRbPropRowset@@QAEJKPAK@Z" PURGE="8" COMMENT="" />
    <EXPORT ORDINAL="38" NAME="?AddRow@CRbPropRowset@@QAEJPAK@Z" PURGE="4" COMMENT="" />
    <EXPORT ORDINAL="39" NAME="?AddRow@CRbPropRowset@@QAEJPBGK0PAK@Z" PURGE="16" COMMENT="" />
    <EXPORT ORDINAL="40" NAME="?CalculatedPropertyGetFunction@CRbPropRowset@@AAEJKKKPBXPAKPAPBX@Z" PURGE="24" COMMENT="" />
    <EXPORT ORDINAL="41" NAME="?CalculatedPropertySetFunction@CRbPropRowset@@AAEJKKGKPBX@Z" PURGE="20" COMMENT="" />
    <EXPORT ORDINAL="42" NAME="?Clone@CRbPropRowset@@QAEJPAPAV1@@Z" PURGE="4" COMMENT="" />
    <EXPORT ORDINAL="43" NAME="?DBIDToOrdinal@CRbPropRowset@@QAEJABUtagDBID@@PAK@Z" PURGE="8" COMMENT="" />
    <EXPORT ORDINAL="44" NAME="?DeleteRow@CRbPropRowset@@QAEJK@Z" PURGE="4" COMMENT="" />
    <EXPORT ORDINAL="45" NAME="?FindRow@CRbPropRowset@@QAEJPBGPAK@Z" PURGE="8" COMMENT="" />
    <EXPORT ORDINAL="46" NAME="?GetFirstRow@CRbPropRowset@@QAEJPAK@Z" PURGE="4" COMMENT="" />
    <EXPORT ORDINAL="47" NAME="?GetNextRow@CRbPropRowset@@QAEJKPAK@Z" PURGE="8" COMMENT="" />
    <EXPORT ORDINAL="48" NAME="?Init@CRbPropRowset@@QAEJW4EPropRowsetType@@@Z" PURGE="4" COMMENT="" />
    <EXPORT ORDINAL="49" NAME="?Load@CRbPropRowset@@QAEJPAD@Z" PURGE="4" COMMENT="" />
    <EXPORT ORDINAL="50" NAME="?Load@CRbPropRowset@@QAEJPAUIStream@@@Z" PURGE="4" COMMENT="" />
    <EXPORT ORDINAL="51" NAME="?Lock@CComAutoCriticalSectionExported@@QAEXXZ" PURGE="0" COMMENT="" />
    <EXPORT ORDINAL="52" NAME="?ReleaseRow@CRbPropRowset@@QAEJKPAK@Z" PURGE="8" COMMENT="" />
    <EXPORT ORDINAL="53" NAME="?RowAddCalculatedPropertyByOrdinal@CRbPropRowset@@QAEJKKKPBX@Z" PURGE="16" COMMENT="" />
    <EXPORT ORDINAL="54" NAME="?RowCtor@CRbPropRowset@@AAEXKKKKK@Z" PURGE="20" COMMENT="" />
    <EXPORT ORDINAL="55" NAME="?RowDeletePropertyByOrdinal@CRbPropRowset@@QAEJKK@Z" PURGE="8" COMMENT="" />
    <EXPORT ORDINAL="56" NAME="?RowDeletePropertyByOrdinalHelper@CRbPropRowset@@AAEJKK_N@Z" PURGE="12" COMMENT="" />
    <EXPORT ORDINAL="57" NAME="?RowGetPropertyByOrdinal@CRbPropRowset@@QAEJKKPAGPAKPAPBXPAHPA_N@Z" PURGE="28" COMMENT="" />
    <EXPORT ORDINAL="58" NAME="?RowPropInitIteration@CRbPropRowset@@QAEJKPAPAX@Z" PURGE="8" COMMENT="" />
    <EXPORT ORDINAL="59" NAME="?RowPropIterate@CRbPropRowset@@QAEJKPAPAXPAVCNamValPair@@@Z" PURGE="12" COMMENT="" />
    <EXPORT ORDINAL="60" NAME="?RowSetAbsoluteParseName@CRbPropRowset@@QAEJKPBG_N@Z" PURGE="12" COMMENT="" />
    <EXPORT ORDINAL="61" NAME="?RowSetContentClass@CRbPropRowset@@QAEJKPBG_N@Z" PURGE="12" COMMENT="" />
    <EXPORT ORDINAL="62" NAME="?RowSetContentLanguage@CRbPropRowset@@QAEJKPBG_N@Z" PURGE="12" COMMENT="" />
    <EXPORT ORDINAL="63" NAME="?RowSetContentType@CRbPropRowset@@QAEJKPBG_N@Z" PURGE="12" COMMENT="" />
    <EXPORT ORDINAL="64" NAME="?RowSetCreationTime@CRbPropRowset@@QAEJKABU_FILETIME@@_N@Z" PURGE="12" COMMENT="" />
    <EXPORT ORDINAL="65" NAME="?RowSetDefaultDocument@CRbPropRowset@@QAEJKPBG_N@Z" PURGE="12" COMMENT="" />
    <EXPORT ORDINAL="66" NAME="?RowSetDisplayName@CRbPropRowset@@QAEJKPBG_N@Z" PURGE="12" COMMENT="" />
    <EXPORT ORDINAL="67" NAME="?RowSetFileSize@CRbPropRowset@@QAEJKABT_ULARGE_INTEGER@@_N@Z" PURGE="12" COMMENT="" />
    <EXPORT ORDINAL="68" NAME="?RowSetIsAvailableOffline@CRbPropRowset@@QAEJKF_N@Z" PURGE="12" COMMENT="" />
    <EXPORT ORDINAL="69" NAME="?RowSetIsCollection@CRbPropRowset@@QAEJKF_N@Z" PURGE="12" COMMENT="" />
    <EXPORT ORDINAL="70" NAME="?RowSetIsHidden@CRbPropRowset@@QAEJKF_N@Z" PURGE="12" COMMENT="" />
    <EXPORT ORDINAL="71" NAME="?RowSetIsMarkedForOffline@CRbPropRowset@@QAEJKF_N@Z" PURGE="12" COMMENT="" />
    <EXPORT ORDINAL="72" NAME="?RowSetIsReadOnly@CRbPropRowset@@QAEJKF_N@Z" PURGE="12" COMMENT="" />
    <EXPORT ORDINAL="73" NAME="?RowSetIsRoot@CRbPropRowset@@QAEJKF_N@Z" PURGE="12" COMMENT="" />
    <EXPORT ORDINAL="74" NAME="?RowSetIsStructuredDocument@CRbPropRowset@@QAEJKF_N@Z" PURGE="12" COMMENT="" />
    <EXPORT ORDINAL="75" NAME="?RowSetLastAccessTime@CRbPropRowset@@QAEJKABU_FILETIME@@_N@Z" PURGE="12" COMMENT="" />
    <EXPORT ORDINAL="76" NAME="?RowSetLastWriteTime@CRbPropRowset@@QAEJKABU_FILETIME@@_N@Z" PURGE="12" COMMENT="" />
    <EXPORT ORDINAL="77" NAME="?RowSetParentName@CRbPropRowset@@QAEJKPBG_N@Z" PURGE="12" COMMENT="" />
    <EXPORT ORDINAL="78" NAME="?RowSetParseName@CRbPropRowset@@QAEJKPBG_N@Z" PURGE="12" COMMENT="" />
    <EXPORT ORDINAL="79" NAME="?RowSetProperty@CRbPropRowset@@QAEJKPBG0_N@Z" PURGE="16" COMMENT="" />
    <EXPORT ORDINAL="80" NAME="?RowSetProperty@CRbPropRowset@@QAEJKPBGGKPBX_N@Z" PURGE="24" COMMENT="" />
    <EXPORT ORDINAL="81" NAME="?RowSetProperty@CRbPropRowset@@QAEJKPBGPAF_N@Z" PURGE="16" COMMENT="" />
    <EXPORT ORDINAL="82" NAME="?RowSetProperty@CRbPropRowset@@QAEJKPBGPAUtagVARIANT@@_N@Z" PURGE="16" COMMENT="" />
    <EXPORT ORDINAL="83" NAME="?RowSetProperty@CRbPropRowset@@QAEJKPBGPA_K_N@Z" PURGE="16" COMMENT="" />
    <EXPORT ORDINAL="84" NAME="?RowSetProperty@CRbPropRowset@@QAEJKPBGPBU_FILETIME@@_N@Z" PURGE="16" COMMENT="" />
    <EXPORT ORDINAL="85" NAME="?RowSetPropertyByOrdinal@CRbPropRowset@@QAEJKKGKPBX_N@Z" PURGE="24" COMMENT="" />
    <EXPORT ORDINAL="86" NAME="?RowSetPropertyPending@CRbPropRowset@@QAEJKPBG_N@Z" PURGE="12" COMMENT="" />
    <EXPORT ORDINAL="87" NAME="?RowSetPropertyPendingByOrdinal@CRbPropRowset@@QAEJKK_N@Z" PURGE="12" COMMENT="" />
    <EXPORT ORDINAL="88" NAME="?RowSetVariant@CRbPropRowset@@QAEJKKKKPAUtagVARIANT@@_N@Z" PURGE="24" COMMENT="" />
    <EXPORT ORDINAL="89" NAME="?RowUndoDeletePropertyByOrdinal@CRbPropRowset@@QAEJKK@Z" PURGE="8" COMMENT="" />
    <EXPORT ORDINAL="90" NAME="?Save@CRbPropRowset@@QAEJPAUIStream@@@Z" PURGE="4" COMMENT="" />
    <EXPORT ORDINAL="91" NAME="?SetExpireTime@CRbPropRowset@@QAEXABU_FILETIME@@@Z" PURGE="4" COMMENT="" />
    <EXPORT ORDINAL="92" NAME="?SetLastAccessTime@CRbPropRowset@@QAEXABU_FILETIME@@@Z" PURGE="4" COMMENT="" />
    <EXPORT ORDINAL="93" NAME="?SetLastModifiedTime@CRbPropRowset@@QAEXABU_FILETIME@@@Z" PURGE="4" COMMENT="" />
    <EXPORT ORDINAL="94" NAME="?SetLastSyncTime@CRbPropRowset@@QAEXABU_FILETIME@@@Z" PURGE="4" COMMENT="" />
    <EXPORT ORDINAL="95" NAME="?Unlock@CComAutoCriticalSectionExported@@QAEXXZ" PURGE="0" COMMENT="" />
    <EXPORT ORDINAL="96" NAME="?cGetCountOfColumns@CRbPropRowset@@QBEKXZ" PURGE="0" COMMENT="" />
    <EXPORT ORDINAL="97" NAME="?cGetRowCount@CRbPropRowset@@QBEJXZ" PURGE="0" COMMENT="" />
    <EXPORT ORDINAL="98" NAME="?dwAddNamedColumn@CRbPropRowset@@QAEKPBGGK@Z" PURGE="12" COMMENT="" />
    <EXPORT ORDINAL="99" NAME="?dwPropNameToOrdinal@CRbPropRowset@@QAEKPBG@Z" PURGE="4" COMMENT="" />
    <EXPORT ORDINAL="100" NAME="?dwPropNameToOrdinalAlternate@CRbPropRowset@@QAEKPBG@Z" PURGE="4" COMMENT="" />
    <EXPORT ORDINAL="101" NAME="?dwRowGetFlags@CRbPropRowset@@QBEKK@Z" PURGE="4" COMMENT="" />
    <EXPORT ORDINAL="102" NAME="?eGetPropRowsetType@CRbPropRowset@@ABE?AW4EPropRowsetType@@XZ" PURGE="0" COMMENT="" />
    <EXPORT ORDINAL="103" NAME="?fIsValidRowOffset@CRbPropRowset@@QBEHK@Z" PURGE="4" COMMENT="" />
    <EXPORT ORDINAL="104" NAME="?fRowGetIsCollection@CRbPropRowset@@QAEFK@Z" PURGE="4" COMMENT="" />
    <EXPORT ORDINAL="105" NAME="?fRowGetIsHidden@CRbPropRowset@@QAEFK@Z" PURGE="4" COMMENT="" />
    <EXPORT ORDINAL="106" NAME="?fRowGetIsReadOnly@CRbPropRowset@@QAEFK@Z" PURGE="4" COMMENT="" />
    <EXPORT ORDINAL="107" NAME="?fRowGetIsStructuredDocument@CRbPropRowset@@QAEFK@Z" PURGE="4" COMMENT="" />
    <EXPORT ORDINAL="108" NAME="?fRowIsDeleted@CRbPropRowset@@QBEHK@Z" PURGE="4" COMMENT="" />
    <EXPORT ORDINAL="109" NAME="?ftGetExpireTime@CRbPropRowset@@QBEABU_FILETIME@@XZ" PURGE="0" COMMENT="" />
    <EXPORT ORDINAL="110" NAME="?ftGetLastAccessTime@CRbPropRowset@@QBEABU_FILETIME@@XZ" PURGE="0" COMMENT="" />
    <EXPORT ORDINAL="111" NAME="?ftGetLastModifiedTime@CRbPropRowset@@QBEABU_FILETIME@@XZ" PURGE="0" COMMENT="" />
    <EXPORT ORDINAL="112" NAME="?ftGetLastSyncTime@CRbPropRowset@@QBEABU_FILETIME@@XZ" PURGE="0" COMMENT="" />
    <EXPORT ORDINAL="113" NAME="?ftRowGetCreationTime@CRbPropRowset@@QAEABU_FILETIME@@K@Z" PURGE="4" COMMENT="" />
    <EXPORT ORDINAL="114" NAME="?ftRowGetLastAccessTime@CRbPropRowset@@QAEABU_FILETIME@@K@Z" PURGE="4" COMMENT="" />
    <EXPORT ORDINAL="115" NAME="?ftRowGetLastWriteTime@CRbPropRowset@@QAEABU_FILETIME@@K@Z" PURGE="4" COMMENT="" />
    <EXPORT ORDINAL="116" NAME="?oAddParentUrl@CRbPropRowset@@QAEKPBG@Z" PURGE="4" COMMENT="" />
    <EXPORT ORDINAL="117" NAME="?oAllocate@CRbPropRowset@@QAEKI@Z" PURGE="4" COMMENT="" />
    <EXPORT ORDINAL="118" NAME="?oAllocateStr@CRbPropRowset@@QAEKPBG@Z" PURGE="4" COMMENT="" />
    <EXPORT ORDINAL="119" NAME="?oFindParentUrl@CRbPropRowset@@QAEKPBG@Z" PURGE="4" COMMENT="" />
    <EXPORT ORDINAL="120" NAME="?oGetColumnEntry@CRbPropRowset@@QBEKK@Z" PURGE="4" COMMENT="" />
    <EXPORT ORDINAL="121" NAME="?oRowFindCustPropEntry@CRbPropRowset@@ABEKKK@Z" PURGE="8" COMMENT="" />
    <EXPORT ORDINAL="122" NAME="?pGetHeader@CRbPropRowset@@QAEPAUTRbPropRowsetHeader@@XZ" PURGE="0" COMMENT="" />
    <EXPORT ORDINAL="123" NAME="?pGetHeader@CRbPropRowset@@QBEPBUTRbPropRowsetHeader@@XZ" PURGE="0" COMMENT="" />
    <EXPORT ORDINAL="124" NAME="?pOffsetToRow@CRbPropRowset@@QAEPAUTRbPropRow@@K@Z" PURGE="4" COMMENT="" />
    <EXPORT ORDINAL="125" NAME="?pOffsetToRow@CRbPropRowset@@QBEPBUTRbPropRow@@K@Z" PURGE="4" COMMENT="" />
    <EXPORT ORDINAL="126" NAME="?pdbidOrdinalToDbid@CRbPropRowset@@QBEPBVCRbDbid@@K@Z" PURGE="4" COMMENT="" />
    <EXPORT ORDINAL="127" NAME="?pvOffsetToPtr@CRbPropRowset@@QAEPAXK@Z" PURGE="4" COMMENT="" />
    <EXPORT ORDINAL="128" NAME="?pvOffsetToPtr@CRbPropRowset@@QBEPBXK@Z" PURGE="4" COMMENT="" />
    <EXPORT ORDINAL="129" NAME="?pwszOrdinalToColName@CRbPropRowset@@QBEPBGK@Z" PURGE="4" COMMENT="" />
    <EXPORT ORDINAL="130" NAME="?pwszRowGetContentClass@CRbPropRowset@@QBEPBGK@Z" PURGE="4" COMMENT="" />
    <EXPORT ORDINAL="131" NAME="?pwszRowGetContentLanguage@CRbPropRowset@@QBEPBGK@Z" PURGE="4" COMMENT="" />
    <EXPORT ORDINAL="132" NAME="?pwszRowGetContentType@CRbPropRowset@@QBEPBGK@Z" PURGE="4" COMMENT="" />
    <EXPORT ORDINAL="133" NAME="?pwszRowGetDefaultDocument@CRbPropRowset@@QBEPBGK@Z" PURGE="4" COMMENT="" />
    <EXPORT ORDINAL="134" NAME="?pwszRowGetDisplayName@CRbPropRowset@@QBEPBGK@Z" PURGE="4" COMMENT="" />
    <EXPORT ORDINAL="135" NAME="?pwszRowGetParentName@CRbPropRowset@@QBEPBGK@Z" PURGE="4" COMMENT="" />
    <EXPORT ORDINAL="136" NAME="?pwszRowGetParseName@CRbPropRowset@@QBEPBGK@Z" PURGE="4" COMMENT="" />
    <EXPORT ORDINAL="137" NAME="?uiGetNumBuckets@CMapperW@@QAEIXZ" PURGE="0" COMMENT="" />
    <EXPORT ORDINAL="138" NAME="?ulRowGetFileSize@CRbPropRowset@@QAEABT_ULARGE_INTEGER@@K@Z" PURGE="4" COMMENT="" />
</LIBRARY>

