<?xml version="1.0" encoding="UTF-8"?>
<LIBRARY NAME="msgbsutl.dll" PATH="/DLLArchive/etc/msgbsutl.dll" DATE="Fri Jul 03 12:55:34 PDT 2020" VERSION="Personal">
    <EXPORT ORDINAL="1" NAME="??0nsByteArray@@QAE@ABV0@@Z" PURGE="4" COMMENT="" />
    <EXPORT ORDINAL="2" NAME="??0nsByteArray@@QAE@XZ" PURGE="0" COMMENT="" />
    <EXPORT ORDINAL="3" NAME="??0nsLocalFolderSummarySpec@@QAE@ABV0@@Z" PURGE="4" COMMENT="" />
    <EXPORT ORDINAL="4" NAME="??0nsLocalFolderSummarySpec@@QAE@ABVnsFilePath@@H@Z" PURGE="8" COMMENT="" />
    <EXPORT ORDINAL="5" NAME="??0nsLocalFolderSummarySpec@@QAE@ABVnsFileSpec@@@Z" PURGE="4" COMMENT="" />
    <EXPORT ORDINAL="6" NAME="??0nsLocalFolderSummarySpec@@QAE@PBDH@Z" PURGE="8" COMMENT="" />
    <EXPORT ORDINAL="7" NAME="??0nsLocalFolderSummarySpec@@QAE@XZ" PURGE="0" COMMENT="" />
    <EXPORT ORDINAL="8" NAME="??0nsMsgAsyncWriteProtocol@@QAE@ABV0@@Z" PURGE="4" COMMENT="" />
    <EXPORT ORDINAL="9" NAME="??0nsMsgAsyncWriteProtocol@@QAE@PAVnsIURI@@@Z" PURGE="4" COMMENT="" />
    <EXPORT ORDINAL="10" NAME="??0nsMsgDBFolder@@QAE@ABV0@@Z" PURGE="4" COMMENT="" />
    <EXPORT ORDINAL="11" NAME="??0nsMsgDBFolder@@QAE@XZ" PURGE="0" COMMENT="" />
    <EXPORT ORDINAL="12" NAME="??0nsMsgFolder@@QAE@ABV0@@Z" PURGE="4" COMMENT="" />
    <EXPORT ORDINAL="13" NAME="??0nsMsgFolder@@QAE@XZ" PURGE="0" COMMENT="" />
    <EXPORT ORDINAL="14" NAME="??0nsMsgGroupRecord@@IAE@PAV0@PBD_JHHD@Z" PURGE="28" COMMENT="" />
    <EXPORT ORDINAL="15" NAME="??0nsMsgGroupRecord@@QAE@ABV0@@Z" PURGE="4" COMMENT="" />
    <EXPORT ORDINAL="16" NAME="??0nsMsgIdentity@@QAE@ABV0@@Z" PURGE="4" COMMENT="" />
    <EXPORT ORDINAL="17" NAME="??0nsMsgIdentity@@QAE@XZ" PURGE="0" COMMENT="" />
    <EXPORT ORDINAL="18" NAME="??0nsMsgIncomingServer@@QAE@ABV0@@Z" PURGE="4" COMMENT="" />
    <EXPORT ORDINAL="19" NAME="??0nsMsgIncomingServer@@QAE@XZ" PURGE="0" COMMENT="" />
    <EXPORT ORDINAL="20" NAME="??0nsMsgKeyArray@@QAE@ABV0@@Z" PURGE="4" COMMENT="" />
    <EXPORT ORDINAL="21" NAME="??0nsMsgKeyArray@@QAE@XZ" PURGE="0" COMMENT="" />
    <EXPORT ORDINAL="22" NAME="??0nsMsgKeySet@@IAE@PBD@Z" PURGE="4" COMMENT="" />
    <EXPORT ORDINAL="23" NAME="??0nsMsgKeySet@@IAE@XZ" PURGE="0" COMMENT="" />
    <EXPORT ORDINAL="24" NAME="??0nsMsgLineBuffer@@QAE@ABV0@@Z" PURGE="4" COMMENT="" />
    <EXPORT ORDINAL="25" NAME="??0nsMsgLineBuffer@@QAE@PAVnsMsgLineBufferHandler@@H@Z" PURGE="8" COMMENT="" />
    <EXPORT ORDINAL="26" NAME="??0nsMsgLineBufferHandler@@QAE@ABV0@@Z" PURGE="4" COMMENT="" />
    <EXPORT ORDINAL="27" NAME="??0nsMsgLineBufferHandler@@QAE@XZ" PURGE="0" COMMENT="" />
    <EXPORT ORDINAL="28" NAME="??0nsMsgLineStreamBuffer@@QAE@ABV0@@Z" PURGE="4" COMMENT="" />
    <EXPORT ORDINAL="29" NAME="??0nsMsgLineStreamBuffer@@QAE@IHH@Z" PURGE="12" COMMENT="" />
    <EXPORT ORDINAL="30" NAME="??0nsMsgMailNewsUrl@@QAE@ABV0@@Z" PURGE="4" COMMENT="" />
    <EXPORT ORDINAL="31" NAME="??0nsMsgMailNewsUrl@@QAE@XZ" PURGE="0" COMMENT="" />
    <EXPORT ORDINAL="32" NAME="??0nsMsgProtocol@@QAE@ABV0@@Z" PURGE="4" COMMENT="" />
    <EXPORT ORDINAL="33" NAME="??0nsMsgProtocol@@QAE@PAVnsIURI@@@Z" PURGE="4" COMMENT="" />
    <EXPORT ORDINAL="34" NAME="??0nsMsgTxn@@QAE@ABV0@@Z" PURGE="4" COMMENT="" />
    <EXPORT ORDINAL="35" NAME="??0nsMsgTxn@@QAE@XZ" PURGE="0" COMMENT="" />
    <EXPORT ORDINAL="36" NAME="??0nsNewsSummarySpec@@QAE@ABV0@@Z" PURGE="4" COMMENT="" />
    <EXPORT ORDINAL="37" NAME="??0nsNewsSummarySpec@@QAE@ABVnsFilePath@@@Z" PURGE="4" COMMENT="" />
    <EXPORT ORDINAL="38" NAME="??0nsNewsSummarySpec@@QAE@ABVnsFileSpec@@@Z" PURGE="4" COMMENT="" />
    <EXPORT ORDINAL="39" NAME="??0nsNewsSummarySpec@@QAE@PBD@Z" PURGE="4" COMMENT="" />
    <EXPORT ORDINAL="40" NAME="??0nsNewsSummarySpec@@QAE@XZ" PURGE="0" COMMENT="" />
    <EXPORT ORDINAL="41" NAME="??0nsQueryElementAt@@QAE@ABV0@@Z" PURGE="4" COMMENT="" />
    <EXPORT ORDINAL="42" NAME="??0nsQueryElementAt@@QAE@PAVnsICollection@@IPAI@Z" PURGE="12" COMMENT="" />
    <EXPORT ORDINAL="43" NAME="??0nsUInt32Array@@QAE@ABV0@@Z" PURGE="4" COMMENT="" />
    <EXPORT ORDINAL="44" NAME="??0nsUInt32Array@@QAE@XZ" PURGE="0" COMMENT="" />
    <EXPORT ORDINAL="45" NAME="??0nsUint8Array@@QAE@XZ" PURGE="0" COMMENT="" />
    <EXPORT ORDINAL="46" NAME="??1nsByteArray@@UAE@XZ" PURGE="0" COMMENT="" />
    <EXPORT ORDINAL="47" NAME="??1nsLocalFolderSummarySpec@@UAE@XZ" PURGE="0" COMMENT="" />
    <EXPORT ORDINAL="48" NAME="??1nsMsgAsyncWriteProtocol@@UAE@XZ" PURGE="0" COMMENT="" />
    <EXPORT ORDINAL="49" NAME="??1nsMsgDBFolder@@UAE@XZ" PURGE="0" COMMENT="" />
    <EXPORT ORDINAL="50" NAME="??1nsMsgFolder@@UAE@XZ" PURGE="0" COMMENT="" />
    <EXPORT ORDINAL="51" NAME="??1nsMsgGroupRecord@@UAE@XZ" PURGE="0" COMMENT="" />
    <EXPORT ORDINAL="52" NAME="??1nsMsgIdentity@@UAE@XZ" PURGE="0" COMMENT="" />
    <EXPORT ORDINAL="53" NAME="??1nsMsgIncomingServer@@UAE@XZ" PURGE="0" COMMENT="" />
    <EXPORT ORDINAL="54" NAME="??1nsMsgKeyArray@@UAE@XZ" PURGE="0" COMMENT="" />
    <EXPORT ORDINAL="55" NAME="??1nsMsgKeySet@@QAE@XZ" PURGE="0" COMMENT="" />
    <EXPORT ORDINAL="56" NAME="??1nsMsgLineBuffer@@UAE@XZ" PURGE="0" COMMENT="" />
    <EXPORT ORDINAL="57" NAME="??1nsMsgLineBufferHandler@@UAE@XZ" PURGE="0" COMMENT="" />
    <EXPORT ORDINAL="58" NAME="??1nsMsgLineStreamBuffer@@UAE@XZ" PURGE="0" COMMENT="" />
    <EXPORT ORDINAL="59" NAME="??1nsMsgMailNewsUrl@@MAE@XZ" PURGE="0" COMMENT="" />
    <EXPORT ORDINAL="60" NAME="??1nsMsgProtocol@@UAE@XZ" PURGE="0" COMMENT="" />
    <EXPORT ORDINAL="61" NAME="??1nsMsgTxn@@UAE@XZ" PURGE="0" COMMENT="" />
    <EXPORT ORDINAL="62" NAME="??1nsNewsSummarySpec@@UAE@XZ" PURGE="0" COMMENT="" />
    <EXPORT ORDINAL="63" NAME="??1nsUInt32Array@@UAE@XZ" PURGE="0" COMMENT="" />
    <EXPORT ORDINAL="64" NAME="??1nsUint8Array@@QAE@XZ" PURGE="0" COMMENT="" />
    <EXPORT ORDINAL="65" NAME="??4nsByteArray@@QAEAAV0@ABV0@@Z" PURGE="4" COMMENT="" />
    <EXPORT ORDINAL="66" NAME="??4nsLocalFolderSummarySpec@@QAEAAV0@ABV0@@Z" PURGE="4" COMMENT="" />
    <EXPORT ORDINAL="67" NAME="??4nsMsgAsyncWriteProtocol@@QAEAAV0@ABV0@@Z" PURGE="4" COMMENT="" />
    <EXPORT ORDINAL="68" NAME="??4nsMsgDBFolder@@QAEAAV0@ABV0@@Z" PURGE="4" COMMENT="" />
    <EXPORT ORDINAL="69" NAME="??4nsMsgFolder@@QAEAAV0@ABV0@@Z" PURGE="4" COMMENT="" />
    <EXPORT ORDINAL="70" NAME="??4nsMsgGroupRecord@@QAEAAV0@ABV0@@Z" PURGE="4" COMMENT="" />
    <EXPORT ORDINAL="71" NAME="??4nsMsgIdentity@@QAEAAV0@ABV0@@Z" PURGE="4" COMMENT="" />
    <EXPORT ORDINAL="72" NAME="??4nsMsgIncomingServer@@QAEAAV0@ABV0@@Z" PURGE="4" COMMENT="" />
    <EXPORT ORDINAL="73" NAME="??4nsMsgKeyArray@@QAEAAV0@ABV0@@Z" PURGE="4" COMMENT="" />
    <EXPORT ORDINAL="74" NAME="??4nsMsgKeySet@@QAEAAV0@ABV0@@Z" PURGE="4" COMMENT="" />
    <EXPORT ORDINAL="75" NAME="??4nsMsgLineBuffer@@QAEAAV0@ABV0@@Z" PURGE="4" COMMENT="" />
    <EXPORT ORDINAL="76" NAME="??4nsMsgLineBufferHandler@@QAEAAV0@ABV0@@Z" PURGE="4" COMMENT="" />
    <EXPORT ORDINAL="77" NAME="??4nsMsgLineStreamBuffer@@QAEAAV0@ABV0@@Z" PURGE="4" COMMENT="" />
    <EXPORT ORDINAL="78" NAME="??4nsMsgMailNewsUrl@@QAEAAV0@ABV0@@Z" PURGE="4" COMMENT="" />
    <EXPORT ORDINAL="79" NAME="??4nsMsgProtocol@@QAEAAV0@ABV0@@Z" PURGE="4" COMMENT="" />
    <EXPORT ORDINAL="80" NAME="??4nsMsgTxn@@QAEAAV0@ABV0@@Z" PURGE="4" COMMENT="" />
    <EXPORT ORDINAL="81" NAME="??4nsNewsSummarySpec@@QAEAAV0@ABV0@@Z" PURGE="4" COMMENT="" />
    <EXPORT ORDINAL="82" NAME="??4nsQueryElementAt@@QAEAAV0@ABV0@@Z" PURGE="4" COMMENT="" />
    <EXPORT ORDINAL="83" NAME="??4nsUInt32Array@@QAEAAV0@ABV0@@Z" PURGE="4" COMMENT="" />
    <EXPORT ORDINAL="84" NAME="??4nsUint8Array@@QAEAAV0@ABV0@@Z" PURGE="4" COMMENT="" />
    <EXPORT ORDINAL="85" NAME="??AnsMsgKeyArray@@QBEII@Z" PURGE="4" COMMENT="" />
    <EXPORT ORDINAL="86" NAME="??AnsUInt32Array@@QAEAAII@Z" PURGE="4" COMMENT="" />
    <EXPORT ORDINAL="87" NAME="??AnsUInt32Array@@QBEII@Z" PURGE="4" COMMENT="" />
    <EXPORT ORDINAL="88" NAME="??AnsUint8Array@@QAEAAEH@Z" PURGE="4" COMMENT="" />
    <EXPORT ORDINAL="89" NAME="??AnsUint8Array@@QBEEH@Z" PURGE="4" COMMENT="" />
    <EXPORT ORDINAL="90" NAME="??_7nsByteArray@@6B@" PURGE="-1" COMMENT="" />
    <EXPORT ORDINAL="91" NAME="??_7nsLocalFolderSummarySpec@@6B@" PURGE="-1" COMMENT="" />
    <EXPORT ORDINAL="92" NAME="??_7nsMsgAsyncWriteProtocol@@6BnsIChannel@@@" PURGE="-1" COMMENT="" />
    <EXPORT ORDINAL="93" NAME="??_7nsMsgAsyncWriteProtocol@@6BnsIStreamListener@@@" PURGE="-1" COMMENT="" />
    <EXPORT ORDINAL="94" NAME="??_7nsMsgDBFolder@@6BnsIDBChangeListener@@@" PURGE="-1" COMMENT="" />
    <EXPORT ORDINAL="95" NAME="??_7nsMsgDBFolder@@6BnsIMsgFolder@@@" PURGE="-1" COMMENT="" />
    <EXPORT ORDINAL="96" NAME="??_7nsMsgDBFolder@@6BnsIUrlListener@@@" PURGE="-1" COMMENT="" />
    <EXPORT ORDINAL="97" NAME="??_7nsMsgDBFolder@@6BnsRDFResource@@@" PURGE="-1" COMMENT="" />
    <EXPORT ORDINAL="98" NAME="??_7nsMsgDBFolder@@6BnsSupportsWeakReference@@@" PURGE="-1" COMMENT="" />
    <EXPORT ORDINAL="99" NAME="??_7nsMsgFolder@@6BnsIMsgFolder@@@" PURGE="-1" COMMENT="" />
    <EXPORT ORDINAL="100" NAME="??_7nsMsgFolder@@6BnsRDFResource@@@" PURGE="-1" COMMENT="" />
    <EXPORT ORDINAL="101" NAME="??_7nsMsgFolder@@6BnsSupportsWeakReference@@@" PURGE="-1" COMMENT="" />
    <EXPORT ORDINAL="102" NAME="??_7nsMsgGroupRecord@@6B@" PURGE="-1" COMMENT="" />
    <EXPORT ORDINAL="103" NAME="??_7nsMsgIdentity@@6B@" PURGE="-1" COMMENT="" />
    <EXPORT ORDINAL="104" NAME="??_7nsMsgIncomingServer@@6BnsIMsgIncomingServer@@@" PURGE="-1" COMMENT="" />
    <EXPORT ORDINAL="105" NAME="??_7nsMsgIncomingServer@@6BnsSupportsWeakReference@@@" PURGE="-1" COMMENT="" />
    <EXPORT ORDINAL="106" NAME="??_7nsMsgKeyArray@@6B@" PURGE="-1" COMMENT="" />
    <EXPORT ORDINAL="107" NAME="??_7nsMsgLineBuffer@@6B@" PURGE="-1" COMMENT="" />
    <EXPORT ORDINAL="108" NAME="??_7nsMsgLineBufferHandler@@6B@" PURGE="-1" COMMENT="" />
    <EXPORT ORDINAL="109" NAME="??_7nsMsgLineStreamBuffer@@6B@" PURGE="-1" COMMENT="" />
    <EXPORT ORDINAL="110" NAME="??_7nsMsgMailNewsUrl@@6B@" PURGE="-1" COMMENT="" />
    <EXPORT ORDINAL="111" NAME="??_7nsMsgProtocol@@6BnsIChannel@@@" PURGE="-1" COMMENT="" />
    <EXPORT ORDINAL="112" NAME="??_7nsMsgProtocol@@6BnsIStreamListener@@@" PURGE="-1" COMMENT="" />
    <EXPORT ORDINAL="113" NAME="??_7nsMsgTxn@@6B@" PURGE="-1" COMMENT="" />
    <EXPORT ORDINAL="114" NAME="??_7nsNewsSummarySpec@@6B@" PURGE="-1" COMMENT="" />
    <EXPORT ORDINAL="115" NAME="??_7nsQueryElementAt@@6B@" PURGE="-1" COMMENT="" />
    <EXPORT ORDINAL="116" NAME="??_7nsUInt32Array@@6B@" PURGE="-1" COMMENT="" />
    <EXPORT ORDINAL="117" NAME="?AcquireSemaphore@nsMsgFolder@@UAGIPAVnsISupports@@@Z" PURGE="8" COMMENT="" />
    <EXPORT ORDINAL="118" NAME="?Add@nsMsgKeyArray@@QAEII@Z" PURGE="4" COMMENT="" />
    <EXPORT ORDINAL="119" NAME="?Add@nsMsgKeyArray@@QAEIPAII@Z" PURGE="8" COMMENT="" />
    <EXPORT ORDINAL="120" NAME="?Add@nsMsgKeySet@@QAEHH@Z" PURGE="4" COMMENT="" />
    <EXPORT ORDINAL="121" NAME="?Add@nsUInt32Array@@QAEII@Z" PURGE="4" COMMENT="" />
    <EXPORT ORDINAL="122" NAME="?Add@nsUInt32Array@@QAEIPAII@Z" PURGE="8" COMMENT="" />
    <EXPORT ORDINAL="123" NAME="?Add@nsUint8Array@@QAEHE@Z" PURGE="4" COMMENT="" />
    <EXPORT ORDINAL="124" NAME="?AddFolderListener@nsMsgFolder@@UAGIPAVnsIFolderListener@@@Z" PURGE="8" COMMENT="" />
    <EXPORT ORDINAL="125" NAME="?AddMessageDispositionState@nsMsgDBFolder@@UAGIPAVnsIMsgDBHdr@@H@Z" PURGE="12" COMMENT="" />
    <EXPORT ORDINAL="126" NAME="?AddMessageDispositionState@nsMsgFolder@@UAGIPAVnsIMsgDBHdr@@H@Z" PURGE="12" COMMENT="" />
    <EXPORT ORDINAL="127" NAME="?AddRange@nsMsgKeySet@@QAEHHH@Z" PURGE="8" COMMENT="" />
    <EXPORT ORDINAL="128" NAME="?AddRef@nsMsgAsyncWriteProtocol@@UAGKXZ" PURGE="4" COMMENT="" />
    <EXPORT ORDINAL="129" NAME="?AddRef@nsMsgDBFolder@@UAGKXZ" PURGE="4" COMMENT="" />
    <EXPORT ORDINAL="130" NAME="?AddRef@nsMsgFolder@@UAGKXZ" PURGE="4" COMMENT="" />
    <EXPORT ORDINAL="131" NAME="?AddRef@nsMsgIdentity@@UAGKXZ" PURGE="4" COMMENT="" />
    <EXPORT ORDINAL="132" NAME="?AddRef@nsMsgIncomingServer@@UAGKXZ" PURGE="4" COMMENT="" />
    <EXPORT ORDINAL="133" NAME="?AddRef@nsMsgMailNewsUrl@@UAGKXZ" PURGE="4" COMMENT="" />
    <EXPORT ORDINAL="134" NAME="?AddRef@nsMsgProtocol@@UAGKXZ" PURGE="4" COMMENT="" />
    <EXPORT ORDINAL="135" NAME="?AddRef@nsMsgTxn@@UAGKXZ" PURGE="4" COMMENT="" />
    <EXPORT ORDINAL="136" NAME="?AddSubfolder@nsMsgFolder@@UAGIPAVnsAutoString@@PAPAVnsIMsgFolder@@@Z" PURGE="12" COMMENT="" />
    <EXPORT ORDINAL="137" NAME="?AddUnique@nsMsgFolder@@UAGIPAVnsISupports@@@Z" PURGE="8" COMMENT="" />
    <EXPORT ORDINAL="138" NAME="?AlertFilterChanged@nsMsgFolder@@UAGIPAVnsIMsgWindow@@@Z" PURGE="8" COMMENT="" />
    <EXPORT ORDINAL="139" NAME="?AllocateSpace@nsUInt32Array@@QAEHI@Z" PURGE="4" COMMENT="" />
    <EXPORT ORDINAL="140" NAME="?AllocateSpace@nsUint8Array@@QAEXI@Z" PURGE="4" COMMENT="" />
    <EXPORT ORDINAL="141" NAME="?AppendBuffer@nsByteArray@@QAEIPBDI@Z" PURGE="8" COMMENT="" />
    <EXPORT ORDINAL="142" NAME="?AppendElement@nsMsgFolder@@UAGIPAVnsISupports@@@Z" PURGE="8" COMMENT="" />
    <EXPORT ORDINAL="143" NAME="?AppendString@nsByteArray@@QAEIPBD@Z" PURGE="4" COMMENT="" />
    <EXPORT ORDINAL="144" NAME="?AsyncOpen@nsMsgProtocol@@UAGIPAVnsIStreamListener@@PAVnsISupports@@@Z" PURGE="12" COMMENT="" />
    <EXPORT ORDINAL="145" NAME="?AutoCompact@nsMsgDBFolder@@IAEIPAVnsIMsgWindow@@@Z" PURGE="4" COMMENT="" />
    <EXPORT ORDINAL="146" NAME="?BufferInput@nsMsgLineBuffer@@QAEHPBDH@Z" PURGE="8" COMMENT="" />
    <EXPORT ORDINAL="147" NAME="?CacheCacheEntry@nsMsgMailNewsUrl@@UAGIPAVnsICacheEntryDescriptor@@@Z" PURGE="8" COMMENT="" />
    <EXPORT ORDINAL="148" NAME="?Cancel@nsMsgAsyncWriteProtocol@@UAGII@Z" PURGE="8" COMMENT="" />
    <EXPORT ORDINAL="149" NAME="?Cancel@nsMsgProtocol@@UAGII@Z" PURGE="8" COMMENT="" />
    <EXPORT ORDINAL="150" NAME="?ChangeNumPendingTotalMessages@nsMsgFolder@@QAEXH@Z" PURGE="4" COMMENT="" />
    <EXPORT ORDINAL="151" NAME="?ChangeNumPendingUnread@nsMsgFolder@@QAEXH@Z" PURGE="4" COMMENT="" />
    <EXPORT ORDINAL="152" NAME="?CheckForToggleDelete@nsMsgTxn@@IAEIPAVnsIMsgFolder@@ABIPAH@Z" PURGE="12" COMMENT="" />
    <EXPORT ORDINAL="153" NAME="?CheckWithNewMessagesStatus@nsMsgDBFolder@@IAEIH@Z" PURGE="4" COMMENT="" />
    <EXPORT ORDINAL="154" NAME="?Clear@nsMsgFolder@@UAGIXZ" PURGE="4" COMMENT="" />
    <EXPORT ORDINAL="155" NAME="?ClearAllValues@nsMsgIdentity@@UAGIXZ" PURGE="4" COMMENT="" />
    <EXPORT ORDINAL="156" NAME="?ClearAllValues@nsMsgIncomingServer@@UAGIXZ" PURGE="4" COMMENT="" />
    <EXPORT ORDINAL="157" NAME="?ClearFlag@nsMsgFolder@@UAGII@Z" PURGE="8" COMMENT="" />
    <EXPORT ORDINAL="158" NAME="?ClearFlag@nsMsgProtocol@@UAEXI@Z" PURGE="4" COMMENT="" />
    <EXPORT ORDINAL="159" NAME="?ClearNewMessages@nsMsgDBFolder@@UAGIXZ" PURGE="4" COMMENT="" />
    <EXPORT ORDINAL="160" NAME="?ClearNewMessages@nsMsgFolder@@UAGIXZ" PURGE="4" COMMENT="" />
    <EXPORT ORDINAL="161" NAME="?ClearRequiresCleanup@nsMsgFolder@@UAGIXZ" PURGE="4" COMMENT="" />
    <EXPORT ORDINAL="162" NAME="?Clone@nsMsgMailNewsUrl@@UAGIPAPAVnsIURI@@@Z" PURGE="8" COMMENT="" />
    <EXPORT ORDINAL="163" NAME="?CloneData@nsUInt32Array@@QAEPAIXZ" PURGE="0" COMMENT="" />
    <EXPORT ORDINAL="164" NAME="?CloseCachedConnections@nsMsgIncomingServer@@UAGIXZ" PURGE="4" COMMENT="" />
    <EXPORT ORDINAL="165" NAME="?CloseSocket@nsMsgAsyncWriteProtocol@@MAEIXZ" PURGE="0" COMMENT="" />
    <EXPORT ORDINAL="166" NAME="?CloseSocket@nsMsgProtocol@@MAEIXZ" PURGE="0" COMMENT="" />
    <EXPORT ORDINAL="167" NAME="?Compact@nsMsgFolder@@UAGIPAVnsIUrlListener@@PAVnsIMsgWindow@@@Z" PURGE="12" COMMENT="" />
    <EXPORT ORDINAL="168" NAME="?CompactAll@nsMsgFolder@@UAGIPAVnsIUrlListener@@PAVnsIMsgWindow@@PAVnsISupportsArray@@H2@Z" PURGE="24" COMMENT="" />
    <EXPORT ORDINAL="169" NAME="?CompactAllOfflineStores@nsMsgDBFolder@@UAGIPAVnsIMsgWindow@@PAVnsISupportsArray@@@Z" PURGE="12" COMMENT="" />
    <EXPORT ORDINAL="170" NAME="?CompactOfflineStore@nsMsgDBFolder@@IAEIPAVnsIMsgWindow@@@Z" PURGE="4" COMMENT="" />
    <EXPORT ORDINAL="171" NAME="?CompareSortKeys@nsMsgFolder@@UAGIPAVnsIMsgFolder@@PAH@Z" PURGE="12" COMMENT="" />
    <EXPORT ORDINAL="172" NAME="?ConfigureTemporaryReturnReceiptsFilter@nsMsgIncomingServer@@UAGIPAVnsIMsgFilterList@@@Z" PURGE="8" COMMENT="" />
    <EXPORT ORDINAL="173" NAME="?ConfirmFolderDeletionForFilter@nsMsgFolder@@UAGIPAVnsIMsgWindow@@PAH@Z" PURGE="12" COMMENT="" />
    <EXPORT ORDINAL="174" NAME="?ContainsChildNamed@nsMsgFolder@@UAGIPBGPAH@Z" PURGE="12" COMMENT="" />
    <EXPORT ORDINAL="175" NAME="?ConvertAndSendBuffer@nsMsgLineBuffer@@IAEHXZ" PURGE="0" COMMENT="" />
    <EXPORT ORDINAL="176" NAME="?ConvertFromUnicode@@YAIPBDABVnsString@@PAPAD@Z" PURGE="0" COMMENT="" />
    <EXPORT ORDINAL="177" NAME="?ConvertToUnicode@@YAIPBD0AAVnsString@@@Z" PURGE="0" COMMENT="" />
    <EXPORT ORDINAL="178" NAME="?Copy@nsMsgIdentity@@UAGIPAVnsIMsgIdentity@@@Z" PURGE="8" COMMENT="" />
    <EXPORT ORDINAL="179" NAME="?CopyArray@nsMsgKeyArray@@QAEXAAV1@@Z" PURGE="4" COMMENT="" />
    <EXPORT ORDINAL="180" NAME="?CopyArray@nsMsgKeyArray@@QAEXPAV1@@Z" PURGE="4" COMMENT="" />
    <EXPORT ORDINAL="181" NAME="?CopyArray@nsUInt32Array@@QAEXAAV1@@Z" PURGE="4" COMMENT="" />
    <EXPORT ORDINAL="182" NAME="?CopyArray@nsUInt32Array@@QAEXPAV1@@Z" PURGE="4" COMMENT="" />
    <EXPORT ORDINAL="183" NAME="?CopyFileMessage@nsMsgFolder@@UAGIPAVnsIFileSpec@@PAVnsIMsgDBHdr@@HPAVnsIMsgWindow@@PAVnsIMsgCopyServiceListener@@@Z" PURGE="24" COMMENT="" />
    <EXPORT ORDINAL="184" NAME="?CopyFolder@nsMsgFolder@@UAGIPAVnsIMsgFolder@@HPAVnsIMsgWindow@@PAVnsIMsgCopyServiceListener@@@Z" PURGE="20" COMMENT="" />
    <EXPORT ORDINAL="185" NAME="?CopyMessages@nsMsgFolder@@UAGIPAVnsIMsgFolder@@PAVnsISupportsArray@@HPAVnsIMsgWindow@@PAVnsIMsgCopyServiceListener@@HH@Z" PURGE="32" COMMENT="" />
    <EXPORT ORDINAL="186" NAME="?Count@nsMsgFolder@@UAGIPAI@Z" PURGE="8" COMMENT="" />
    <EXPORT ORDINAL="187" NAME="?CountMissingInRange@nsMsgKeySet@@QAEHHH@Z" PURGE="8" COMMENT="" />
    <EXPORT ORDINAL="188" NAME="?Create@nsMsgGroupRecord@@SAPAV1@PAV1@PBDHH@Z" PURGE="0" COMMENT="" />
    <EXPORT ORDINAL="189" NAME="?Create@nsMsgGroupRecord@@SAPAV1@PAV1@PBD_JHH@Z" PURGE="0" COMMENT="" />
    <EXPORT ORDINAL="190" NAME="?Create@nsMsgKeySet@@SAPAV1@PBD@Z" PURGE="0" COMMENT="" />
    <EXPORT ORDINAL="191" NAME="?Create@nsMsgKeySet@@SAPAV1@XZ" PURGE="0" COMMENT="" />
    <EXPORT ORDINAL="192" NAME="?CreateBaseMessageURI@nsMsgFolder@@MAEIPBD@Z" PURGE="4" COMMENT="" />
    <EXPORT ORDINAL="193" NAME="?CreateCollationKey@nsMsgFolder@@IAEIABVnsString@@PAPAEPAI@Z" PURGE="12" COMMENT="" />
    <EXPORT ORDINAL="194" NAME="?CreateFileSpecForDB@nsMsgDBFolder@@IAEIPBDAAVnsFileSpec@@PAPAVnsIFileSpec@@@Z" PURGE="12" COMMENT="" />
    <EXPORT ORDINAL="195" NAME="?CreateRootFolder@nsMsgIncomingServer@@IAEIXZ" PURGE="0" COMMENT="" />
    <EXPORT ORDINAL="196" NAME="?CreateStartupUrl@@YAIPADPAPAVnsIURI@@@Z" PURGE="0" COMMENT="" />
    <EXPORT ORDINAL="197" NAME="?CreateStorageIfMissing@nsMsgFolder@@UAGIPAVnsIUrlListener@@@Z" PURGE="8" COMMENT="" />
    <EXPORT ORDINAL="198" NAME="?CreateSubfolder@nsMsgFolder@@UAGIPBGPAVnsIMsgWindow@@@Z" PURGE="12" COMMENT="" />
    <EXPORT ORDINAL="199" NAME="?CreateSummaryFileName@nsLocalFolderSummarySpec@@IAEXXZ" PURGE="0" COMMENT="" />
    <EXPORT ORDINAL="200" NAME="?CreateSummaryFileName@nsNewsSummarySpec@@IAEXXZ" PURGE="0" COMMENT="" />
    <EXPORT ORDINAL="201" NAME="?CreateUnicodeStringFromUtf7@@YAIPBDPAPAG@Z" PURGE="0" COMMENT="" />
    <EXPORT ORDINAL="202" NAME="?CreateUtf7ConvertedString@@YAPADPBDH@Z" PURGE="0" COMMENT="" />
    <EXPORT ORDINAL="203" NAME="?CreateUtf7ConvertedStringFromUnicode@@YAPADPBG@Z" PURGE="0" COMMENT="" />
    <EXPORT ORDINAL="204" NAME="?Delete@nsMsgFolder@@UAGIXZ" PURGE="4" COMMENT="" />
    <EXPORT ORDINAL="205" NAME="?DeleteSubFolders@nsMsgFolder@@UAGIPAVnsISupportsArray@@PAVnsIMsgWindow@@@Z" PURGE="12" COMMENT="" />
    <EXPORT ORDINAL="206" NAME="?DisplayOfflineMsg@nsMsgIncomingServer@@UAGIPAVnsIMsgWindow@@@Z" PURGE="8" COMMENT="" />
    <EXPORT ORDINAL="207" NAME="?DoTransaction@nsMsgTxn@@UAGIXZ" PURGE="4" COMMENT="" />
    <EXPORT ORDINAL="208" NAME="?DoesNotExistOnServer@nsMsgGroupRecord@@QAEHXZ" PURGE="0" COMMENT="" />
    <EXPORT ORDINAL="209" NAME="?DownloadAllForOffline@nsMsgDBFolder@@UAGIPAVnsIUrlListener@@PAVnsIMsgWindow@@@Z" PURGE="12" COMMENT="" />
    <EXPORT ORDINAL="210" NAME="?DownloadMessagesForOffline@nsMsgDBFolder@@UAGIPAVnsISupportsArray@@PAVnsIMsgWindow@@@Z" PURGE="12" COMMENT="" />
    <EXPORT ORDINAL="211" NAME="?ElementAt@nsUInt32Array@@QAEAAII@Z" PURGE="4" COMMENT="" />
    <EXPORT ORDINAL="212" NAME="?ElementAt@nsUint8Array@@QAEAAEH@Z" PURGE="4" COMMENT="" />
    <EXPORT ORDINAL="213" NAME="?EmptyTrash@nsMsgFolder@@UAGIPAVnsIMsgWindow@@PAVnsIUrlListener@@@Z" PURGE="12" COMMENT="" />
    <EXPORT ORDINAL="214" NAME="?EnableNotifications@nsMsgFolder@@UAGIHH@Z" PURGE="12" COMMENT="" />
    <EXPORT ORDINAL="215" NAME="?EndFolderLoading@nsMsgDBFolder@@UAGIXZ" PURGE="4" COMMENT="" />
    <EXPORT ORDINAL="216" NAME="?EndFolderLoading@nsMsgFolder@@UAGIXZ" PURGE="4" COMMENT="" />
    <EXPORT ORDINAL="217" NAME="?EndNewOfflineMessage@nsMsgDBFolder@@IAEIXZ" PURGE="0" COMMENT="" />
    <EXPORT ORDINAL="218" NAME="?Enumerate@nsMsgFolder@@UAGIPAPAVnsIEnumerator@@@Z" PURGE="8" COMMENT="" />
    <EXPORT ORDINAL="219" NAME="?Equals@nsMsgIncomingServer@@UAGIPAVnsIMsgIncomingServer@@PAH@Z" PURGE="12" COMMENT="" />
    <EXPORT ORDINAL="220" NAME="?Equals@nsMsgMailNewsUrl@@UAGIPAVnsIURI@@PAH@Z" PURGE="12" COMMENT="" />
    <EXPORT ORDINAL="221" NAME="?EscapeFromSpaceLine@@YAIPAVnsIFileSpec@@PADPBD@Z" PURGE="0" COMMENT="" />
    <EXPORT ORDINAL="222" NAME="?FindDescendant@nsMsgGroupRecord@@QAEPAV1@PBD@Z" PURGE="4" COMMENT="" />
    <EXPORT ORDINAL="223" NAME="?FindIndex@nsMsgKeyArray@@QAEIII@Z" PURGE="8" COMMENT="" />
    <EXPORT ORDINAL="224" NAME="?FindSubFolder@nsMsgFolder@@UAGIPBDPAPAVnsIFolder@@@Z" PURGE="12" COMMENT="" />
    <EXPORT ORDINAL="225" NAME="?FirstMissingRange@nsMsgKeySet@@QAEHHHPAH0@Z" PURGE="16" COMMENT="" />
    <EXPORT ORDINAL="226" NAME="?FirstNonMember@nsMsgKeySet@@QAEHXZ" PURGE="0" COMMENT="" />
    <EXPORT ORDINAL="227" NAME="?FlushLastLine@nsMsgLineBuffer@@UAEHXZ" PURGE="0" COMMENT="" />
    <EXPORT ORDINAL="228" NAME="?FlushToFolderCache@nsMsgDBFolder@@MAEIXZ" PURGE="0" COMMENT="" />
    <EXPORT ORDINAL="229" NAME="?ForceDBClosed@nsMsgDBFolder@@UAGIXZ" PURGE="4" COMMENT="" />
    <EXPORT ORDINAL="230" NAME="?ForceDBClosed@nsMsgFolder@@UAGIXZ" PURGE="4" COMMENT="" />
    <EXPORT ORDINAL="231" NAME="?ForgetPassword@nsMsgIncomingServer@@UAGIXZ" PURGE="4" COMMENT="" />
    <EXPORT ORDINAL="232" NAME="?ForgetSessionPassword@nsMsgIncomingServer@@UAGIXZ" PURGE="4" COMMENT="" />
    <EXPORT ORDINAL="233" NAME="?FreeExtra@nsUint8Array@@QAEXXZ" PURGE="0" COMMENT="" />
    <EXPORT ORDINAL="234" NAME="?GenerateMessageURI@nsMsgFolder@@UAGIIPAPAD@Z" PURGE="12" COMMENT="" />
    <EXPORT ORDINAL="235" NAME="?GeneratePrettyNameForMigration@nsMsgIncomingServer@@UAGIPAPAG@Z" PURGE="8" COMMENT="" />
    <EXPORT ORDINAL="236" NAME="?GenerateUniqueSubfolderName@nsMsgFolder@@UAGIPBGPAVnsIMsgFolder@@PAPAG@Z" PURGE="16" COMMENT="" />
    <EXPORT ORDINAL="237" NAME="?GetAbbreviatedName@nsMsgFolder@@UAGIPAPAG@Z" PURGE="8" COMMENT="" />
    <EXPORT ORDINAL="238" NAME="?GetAddTime@nsMsgGroupRecord@@QAE_JXZ" PURGE="0" COMMENT="" />
    <EXPORT ORDINAL="239" NAME="?GetAddToMemoryCache@nsMsgMailNewsUrl@@UAGIPAH@Z" PURGE="8" COMMENT="" />
    <EXPORT ORDINAL="240" NAME="?GetAllowsPosting@nsMsgFolder@@UAGIPAH@Z" PURGE="8" COMMENT="" />
    <EXPORT ORDINAL="241" NAME="?GetArray@nsMsgKeyArray@@QAEPAIXZ" PURGE="0" COMMENT="" />
    <EXPORT ORDINAL="242" NAME="?GetArray@nsUint8Array@@QAEPAEXZ" PURGE="0" COMMENT="" />
    <EXPORT ORDINAL="243" NAME="?GetAsciiHost@nsMsgMailNewsUrl@@UAGIAAVnsACString@@@Z" PURGE="8" COMMENT="" />
    <EXPORT ORDINAL="244" NAME="?GetAsciiSpec@nsMsgMailNewsUrl@@UAGIAAVnsACString@@@Z" PURGE="8" COMMENT="" />
    <EXPORT ORDINAL="245" NAME="?GetAt@nsMsgKeyArray@@QBEII@Z" PURGE="4" COMMENT="" />
    <EXPORT ORDINAL="246" NAME="?GetAt@nsUInt32Array@@QBEII@Z" PURGE="4" COMMENT="" />
    <EXPORT ORDINAL="247" NAME="?GetAt@nsUint8Array@@QBEEH@Z" PURGE="4" COMMENT="" />
    <EXPORT ORDINAL="248" NAME="?GetAttachSignature@nsMsgIdentity@@UAGIPAH@Z" PURGE="8" COMMENT="" />
    <EXPORT ORDINAL="249" NAME="?GetAttachVCard@nsMsgIdentity@@UAGIPAH@Z" PURGE="8" COMMENT="" />
    <EXPORT ORDINAL="250" NAME="?GetBaseMessageURI@nsMsgFolder@@UAGIPAPAD@Z" PURGE="8" COMMENT="" />
    <EXPORT ORDINAL="251" NAME="?GetBaseStringBundle@nsMsgFolder@@IAEIPAPAVnsIStringBundle@@@Z" PURGE="4" COMMENT="" />
    <EXPORT ORDINAL="252" NAME="?GetBccList@nsMsgIdentity@@UAGIPAPAD@Z" PURGE="8" COMMENT="" />
    <EXPORT ORDINAL="253" NAME="?GetBccOthers@nsMsgIdentity@@UAGIPAH@Z" PURGE="8" COMMENT="" />
    <EXPORT ORDINAL="254" NAME="?GetBccSelf@nsMsgIdentity@@UAGIPAH@Z" PURGE="8" COMMENT="" />
    <EXPORT ORDINAL="255" NAME="?GetBiffMinutes@nsMsgIncomingServer@@UAGIPAH@Z" PURGE="8" COMMENT="" />
    <EXPORT ORDINAL="256" NAME="?GetBiffState@nsMsgFolder@@UAGIPAI@Z" PURGE="8" COMMENT="" />
    <EXPORT ORDINAL="257" NAME="?GetBiffState@nsMsgIncomingServer@@UAGIPAI@Z" PURGE="8" COMMENT="" />
    <EXPORT ORDINAL="258" NAME="?GetBoolAttribute@nsMsgIdentity@@UAGIPBDPAH@Z" PURGE="12" COMMENT="" />
    <EXPORT ORDINAL="259" NAME="?GetBoolAttribute@nsMsgIncomingServer@@UAGIPBDPAH@Z" PURGE="12" COMMENT="" />
    <EXPORT ORDINAL="260" NAME="?GetBoolValue@nsMsgIncomingServer@@UAGIPBDPAH@Z" PURGE="12" COMMENT="" />
    <EXPORT ORDINAL="261" NAME="?GetBuffer@nsByteArray@@QAEPADXZ" PURGE="0" COMMENT="" />
    <EXPORT ORDINAL="262" NAME="?GetBufferPos@nsByteArray@@QAEIXZ" PURGE="0" COMMENT="" />
    <EXPORT ORDINAL="263" NAME="?GetBufferPos@nsMsgLineBuffer@@QAEIXZ" PURGE="0" COMMENT="" />
    <EXPORT ORDINAL="264" NAME="?GetCanBeDefaultServer@nsMsgIncomingServer@@UAGIPAH@Z" PURGE="8" COMMENT="" />
    <EXPORT ORDINAL="265" NAME="?GetCanCompact@nsMsgFolder@@UAGIPAH@Z" PURGE="8" COMMENT="" />
    <EXPORT ORDINAL="266" NAME="?GetCanCompactFoldersOnServer@nsMsgIncomingServer@@UAGIPAH@Z" PURGE="8" COMMENT="" />
    <EXPORT ORDINAL="267" NAME="?GetCanCreateFoldersOnServer@nsMsgIncomingServer@@UAGIPAH@Z" PURGE="8" COMMENT="" />
    <EXPORT ORDINAL="268" NAME="?GetCanCreateSubfolders@nsMsgFolder@@UAGIPAH@Z" PURGE="8" COMMENT="" />
    <EXPORT ORDINAL="269" NAME="?GetCanDelete@nsMsgIncomingServer@@UAGIPAH@Z" PURGE="8" COMMENT="" />
    <EXPORT ORDINAL="270" NAME="?GetCanEmptyTrashOnExit@nsMsgIncomingServer@@UAGIPAH@Z" PURGE="8" COMMENT="" />
    <EXPORT ORDINAL="271" NAME="?GetCanFileMessages@nsMsgFolder@@UAGIPAH@Z" PURGE="8" COMMENT="" />
    <EXPORT ORDINAL="272" NAME="?GetCanFileMessagesOnServer@nsMsgIncomingServer@@UAGIPAH@Z" PURGE="8" COMMENT="" />
    <EXPORT ORDINAL="273" NAME="?GetCanHaveFilters@nsMsgIncomingServer@@UAGIPAH@Z" PURGE="8" COMMENT="" />
    <EXPORT ORDINAL="274" NAME="?GetCanRename@nsMsgFolder@@UAGIPAH@Z" PURGE="8" COMMENT="" />
    <EXPORT ORDINAL="275" NAME="?GetCanSearchMessages@nsMsgIncomingServer@@UAGIPAH@Z" PURGE="8" COMMENT="" />
    <EXPORT ORDINAL="276" NAME="?GetCanSubscribe@nsMsgFolder@@UAGIPAH@Z" PURGE="8" COMMENT="" />
    <EXPORT ORDINAL="277" NAME="?GetCanUndoDeleteOnServer@nsMsgIncomingServer@@UAGIPAH@Z" PURGE="8" COMMENT="" />
    <EXPORT ORDINAL="278" NAME="?GetCategoryContainer@nsMsgGroupRecord@@QAEPAV1@XZ" PURGE="0" COMMENT="" />
    <EXPORT ORDINAL="279" NAME="?GetCharAttribute@nsMsgIdentity@@UAGIPBDPAPAD@Z" PURGE="12" COMMENT="" />
    <EXPORT ORDINAL="280" NAME="?GetCharAttribute@nsMsgIncomingServer@@UAGIPBDPAPAD@Z" PURGE="12" COMMENT="" />
    <EXPORT ORDINAL="281" NAME="?GetCharValue@nsMsgIncomingServer@@UAGIPBDPAPAD@Z" PURGE="12" COMMENT="" />
    <EXPORT ORDINAL="282" NAME="?GetCharset@nsMsgDBFolder@@UAGIPAPAG@Z" PURGE="8" COMMENT="" />
    <EXPORT ORDINAL="283" NAME="?GetCharsetOverride@nsMsgDBFolder@@UAGIPAH@Z" PURGE="8" COMMENT="" />
    <EXPORT ORDINAL="284" NAME="?GetChildNamed@nsMsgFolder@@UAGIPBGPAPAVnsISupports@@@Z" PURGE="12" COMMENT="" />
    <EXPORT ORDINAL="285" NAME="?GetChildWithURI@nsMsgFolder@@UAGIPBDHHPAPAVnsIMsgFolder@@@Z" PURGE="20" COMMENT="" />
    <EXPORT ORDINAL="286" NAME="?GetChildren@nsMsgGroupRecord@@QAEPAV1@XZ" PURGE="0" COMMENT="" />
    <EXPORT ORDINAL="287" NAME="?GetCommonBaseSpec@nsMsgMailNewsUrl@@UAGIPAVnsIURI@@AAVnsACString@@@Z" PURGE="12" COMMENT="" />
    <EXPORT ORDINAL="288" NAME="?GetComposeHtml@nsMsgIdentity@@UAGIPAH@Z" PURGE="8" COMMENT="" />
    <EXPORT ORDINAL="289" NAME="?GetConstructedPrettyName@nsMsgIncomingServer@@UAGIPAPAG@Z" PURGE="8" COMMENT="" />
    <EXPORT ORDINAL="290" NAME="?GetContentCharset@nsMsgProtocol@@UAGIAAVnsACString@@@Z" PURGE="8" COMMENT="" />
    <EXPORT ORDINAL="291" NAME="?GetContentLength@nsMsgProtocol@@UAGIPAH@Z" PURGE="8" COMMENT="" />
    <EXPORT ORDINAL="292" NAME="?GetContentType@nsMsgProtocol@@UAGIAAVnsACString@@@Z" PURGE="8" COMMENT="" />
    <EXPORT ORDINAL="293" NAME="?GetData@nsUInt32Array@@QAEPAIXZ" PURGE="0" COMMENT="" />
    <EXPORT ORDINAL="294" NAME="?GetDefaultCopiesAndFoldersPrefsToServer@nsMsgIncomingServer@@UAGIPAH@Z" PURGE="8" COMMENT="" />
    <EXPORT ORDINAL="295" NAME="?GetDeletable@nsMsgFolder@@UAGIPAH@Z" PURGE="8" COMMENT="" />
    <EXPORT ORDINAL="296" NAME="?GetDeleteIsMoveToTrash@nsMsgFolder@@UAGIPAH@Z" PURGE="8" COMMENT="" />
    <EXPORT ORDINAL="297" NAME="?GetDepth@nsMsgGroupRecord@@QAEHXZ" PURGE="0" COMMENT="" />
    <EXPORT ORDINAL="298" NAME="?GetDirectory@nsMsgMailNewsUrl@@UAGIAAVnsACString@@@Z" PURGE="8" COMMENT="" />
    <EXPORT ORDINAL="299" NAME="?GetDirectoryServer@nsMsgIdentity@@UAGIPAPAD@Z" PURGE="8" COMMENT="" />
    <EXPORT ORDINAL="300" NAME="?GetDisplayRecipients@nsMsgFolder@@UAGIPAH@Z" PURGE="8" COMMENT="" />
    <EXPORT ORDINAL="301" NAME="?GetDisplayStartupPage@nsMsgIncomingServer@@UAGIPAH@Z" PURGE="8" COMMENT="" />
    <EXPORT ORDINAL="302" NAME="?GetDoBiff@nsMsgIncomingServer@@UAGIPAH@Z" PURGE="8" COMMENT="" />
    <EXPORT ORDINAL="303" NAME="?GetDoFcc@nsMsgIdentity@@UAGIPAH@Z" PURGE="8" COMMENT="" />
    <EXPORT ORDINAL="304" NAME="?GetDownloadMessagesAtStartup@nsMsgIncomingServer@@UAGIPAH@Z" PURGE="8" COMMENT="" />
    <EXPORT ORDINAL="305" NAME="?GetDownloadOnBiff@nsMsgIncomingServer@@UAGIPAH@Z" PURGE="8" COMMENT="" />
    <EXPORT ORDINAL="306" NAME="?GetDownloadSettings@nsMsgDBFolder@@UAGIPAPAVnsIMsgDownloadSettings@@@Z" PURGE="8" COMMENT="" />
    <EXPORT ORDINAL="307" NAME="?GetDownloadSettings@nsMsgIncomingServer@@UAGIPAPAVnsIMsgDownloadSettings@@@Z" PURGE="8" COMMENT="" />
    <EXPORT ORDINAL="308" NAME="?GetDraftFolder@nsMsgIdentity@@UAGIPAPAD@Z" PURGE="8" COMMENT="" />
    <EXPORT ORDINAL="309" NAME="?GetDraftsFolderPickerMode@nsMsgIdentity@@UAGIPAPAD@Z" PURGE="8" COMMENT="" />
    <EXPORT ORDINAL="310" NAME="?GetElementAt@nsMsgFolder@@UAGIIPAPAVnsISupports@@@Z" PURGE="12" COMMENT="" />
    <EXPORT ORDINAL="311" NAME="?GetEmail@nsMsgIdentity@@UAGIPAPAD@Z" PURGE="8" COMMENT="" />
    <EXPORT ORDINAL="312" NAME="?GetEmptyTrashOnExit@nsMsgIncomingServer@@UAGIPAH@Z" PURGE="8" COMMENT="" />
    <EXPORT ORDINAL="313" NAME="?GetErrorMessage@nsMsgMailNewsUrl@@UAGIPAPAD@Z" PURGE="8" COMMENT="" />
    <EXPORT ORDINAL="314" NAME="?GetExpansionArray@nsMsgFolder@@UAGIPAVnsISupportsArray@@@Z" PURGE="8" COMMENT="" />
    <EXPORT ORDINAL="315" NAME="?GetExpungedBytes@nsMsgDBFolder@@UAGIPAI@Z" PURGE="8" COMMENT="" />
    <EXPORT ORDINAL="316" NAME="?GetExpungedBytes@nsMsgFolder@@UAGIPAI@Z" PURGE="8" COMMENT="" />
    <EXPORT ORDINAL="317" NAME="?GetFccFolder@nsMsgIdentity@@UAGIPAPAD@Z" PURGE="8" COMMENT="" />
    <EXPORT ORDINAL="318" NAME="?GetFccFolderPickerMode@nsMsgIdentity@@UAGIPAPAD@Z" PURGE="8" COMMENT="" />
    <EXPORT ORDINAL="319" NAME="?GetFileBaseName@nsMsgMailNewsUrl@@UAGIAAVnsACString@@@Z" PURGE="8" COMMENT="" />
    <EXPORT ORDINAL="320" NAME="?GetFileExtension@nsMsgMailNewsUrl@@UAGIAAVnsACString@@@Z" PURGE="8" COMMENT="" />
    <EXPORT ORDINAL="321" NAME="?GetFileFromURL@nsMsgProtocol@@IAEIPAVnsIURI@@PAPAVnsIFile@@@Z" PURGE="8" COMMENT="" />
    <EXPORT ORDINAL="322" NAME="?GetFileName@nsMsgMailNewsUrl@@UAGIAAVnsACString@@@Z" PURGE="8" COMMENT="" />
    <EXPORT ORDINAL="323" NAME="?GetFileOffset@nsMsgGroupRecord@@QAEHXZ" PURGE="0" COMMENT="" />
    <EXPORT ORDINAL="324" NAME="?GetFilePath@nsMsgMailNewsUrl@@UAGIAAVnsACString@@@Z" PURGE="8" COMMENT="" />
    <EXPORT ORDINAL="325" NAME="?GetFileValue@nsMsgIncomingServer@@UAGIPBDPAPAVnsIFileSpec@@@Z" PURGE="12" COMMENT="" />
    <EXPORT ORDINAL="326" NAME="?GetFilterList@nsMsgFolder@@UAGIPAVnsIMsgWindow@@PAPAVnsIMsgFilterList@@@Z" PURGE="12" COMMENT="" />
    <EXPORT ORDINAL="327" NAME="?GetFilterList@nsMsgIncomingServer@@UAGIPAVnsIMsgWindow@@PAPAVnsIMsgFilterList@@@Z" PURGE="12" COMMENT="" />
    <EXPORT ORDINAL="328" NAME="?GetFilterScope@nsMsgIncomingServer@@UAGIPAH@Z" PURGE="8" COMMENT="" />
    <EXPORT ORDINAL="329" NAME="?GetFirstMember@nsMsgKeySet@@QAEHXZ" PURGE="0" COMMENT="" />
    <EXPORT ORDINAL="330" NAME="?GetFirstNewMessage@nsMsgDBFolder@@UAGIPAPAVnsIMsgDBHdr@@@Z" PURGE="8" COMMENT="" />
    <EXPORT ORDINAL="331" NAME="?GetFirstNewMessage@nsMsgFolder@@UAGIPAPAVnsIMsgDBHdr@@@Z" PURGE="8" COMMENT="" />
    <EXPORT ORDINAL="332" NAME="?GetFlag@nsMsgFolder@@UAGIIPAH@Z" PURGE="12" COMMENT="" />
    <EXPORT ORDINAL="333" NAME="?GetFlags@nsMsgDBFolder@@UAGIPAI@Z" PURGE="8" COMMENT="" />
    <EXPORT ORDINAL="334" NAME="?GetFolderCacheElemFromFileSpec@nsMsgDBFolder@@IAEIPAVnsIFileSpec@@PAPAVnsIMsgFolderCacheElement@@@Z" PURGE="8" COMMENT="" />
    <EXPORT ORDINAL="335" NAME="?GetFolderCacheKey@nsMsgDBFolder@@IAEIPAPAVnsIFileSpec@@@Z" PURGE="4" COMMENT="" />
    <EXPORT ORDINAL="336" NAME="?GetFolderURL@nsMsgFolder@@UAGIPAPAD@Z" PURGE="8" COMMENT="" />
    <EXPORT ORDINAL="337" NAME="?GetFoldersWithFlag@nsMsgFolder@@UAGIIIPAIPAPAVnsIMsgFolder@@@Z" PURGE="20" COMMENT="" />
    <EXPORT ORDINAL="338" NAME="?GetFullName@nsMsgGroupRecord@@QAEPADXZ" PURGE="0" COMMENT="" />
    <EXPORT ORDINAL="339" NAME="?GetFullName@nsMsgIdentity@@UAGIPAPAG@Z" PURGE="8" COMMENT="" />
    <EXPORT ORDINAL="340" NAME="?GetGettingNewMessages@nsMsgDBFolder@@UAGIPAH@Z" PURGE="8" COMMENT="" />
    <EXPORT ORDINAL="341" NAME="?GetHasNewMessages@nsMsgDBFolder@@UAGIPAH@Z" PURGE="8" COMMENT="" />
    <EXPORT ORDINAL="342" NAME="?GetHasNewMessages@nsMsgFolder@@UAGIPAH@Z" PURGE="8" COMMENT="" />
    <EXPORT ORDINAL="343" NAME="?GetHasSubFolders@nsMsgFolder@@UAGIPAH@Z" PURGE="8" COMMENT="" />
    <EXPORT ORDINAL="344" NAME="?GetHierarchySeparator@nsMsgGroupRecord@@UAEDXZ" PURGE="0" COMMENT="" />
    <EXPORT ORDINAL="345" NAME="?GetHost@nsMsgMailNewsUrl@@UAGIAAVnsACString@@@Z" PURGE="8" COMMENT="" />
    <EXPORT ORDINAL="346" NAME="?GetHostName@nsMsgIncomingServer@@UAGIPAPAD@Z" PURGE="8" COMMENT="" />
    <EXPORT ORDINAL="347" NAME="?GetHostPort@nsMsgMailNewsUrl@@UAGIAAVnsACString@@@Z" PURGE="8" COMMENT="" />
    <EXPORT ORDINAL="348" NAME="?GetHostname@nsMsgFolder@@UAGIPAPAD@Z" PURGE="8" COMMENT="" />
    <EXPORT ORDINAL="349" NAME="?GetIMAPGroupRecord@nsMsgGroupRecord@@UAEPAVnsIMAPGroupRecord@@XZ" PURGE="0" COMMENT="" />
    <EXPORT ORDINAL="350" NAME="?GetIdentityName@nsMsgIdentity@@UAGIPAPAG@Z" PURGE="8" COMMENT="" />
    <EXPORT ORDINAL="351" NAME="?GetImageCacheSession@nsMsgMailNewsUrl@@UAGIPAPAVnsICacheSession@@@Z" PURGE="8" COMMENT="" />
    <EXPORT ORDINAL="352" NAME="?GetImapShared@nsMsgFolder@@UAGIPAH@Z" PURGE="8" COMMENT="" />
    <EXPORT ORDINAL="353" NAME="?GetIntAttribute@nsMsgIdentity@@UAGIPBDPAH@Z" PURGE="12" COMMENT="" />
    <EXPORT ORDINAL="354" NAME="?GetIntAttribute@nsMsgIncomingServer@@UAGIPBDPAH@Z" PURGE="12" COMMENT="" />
    <EXPORT ORDINAL="355" NAME="?GetIntValue@nsMsgIncomingServer@@UAGIPBDPAH@Z" PURGE="12" COMMENT="" />
    <EXPORT ORDINAL="356" NAME="?GetIsAuthenticated@nsMsgIncomingServer@@UAGIPAH@Z" PURGE="8" COMMENT="" />
    <EXPORT ORDINAL="357" NAME="?GetIsSecure@nsMsgIncomingServer@@UAGIPAH@Z" PURGE="8" COMMENT="" />
    <EXPORT ORDINAL="358" NAME="?GetIsSecureServer@nsMsgIncomingServer@@UAGIPAH@Z" PURGE="8" COMMENT="" />
    <EXPORT ORDINAL="359" NAME="?GetIsServer@nsMsgFolder@@UAGIPAH@Z" PURGE="8" COMMENT="" />
    <EXPORT ORDINAL="360" NAME="?GetIsTransient@nsMsgTxn@@UAGIPAH@Z" PURGE="8" COMMENT="" />
    <EXPORT ORDINAL="361" NAME="?GetJunkMailFolder@nsMsgIdentity@@UAGIPAPAD@Z" PURGE="8" COMMENT="" />
    <EXPORT ORDINAL="362" NAME="?GetKey@nsMsgIdentity@@UAGIPAPAD@Z" PURGE="8" COMMENT="" />
    <EXPORT ORDINAL="363" NAME="?GetKey@nsMsgIncomingServer@@UAGIPAPAD@Z" PURGE="8" COMMENT="" />
    <EXPORT ORDINAL="364" NAME="?GetKeyFromIndex@nsMsgKeyArray@@QAEII@Z" PURGE="4" COMMENT="" />
    <EXPORT ORDINAL="365" NAME="?GetKnowsSearchNntpExtension@nsMsgFolder@@UAGIPAH@Z" PURGE="8" COMMENT="" />
    <EXPORT ORDINAL="366" NAME="?GetLastMember@nsMsgKeySet@@QAEHXZ" PURGE="0" COMMENT="" />
    <EXPORT ORDINAL="367" NAME="?GetLimitOfflineMessageSize@nsMsgIncomingServer@@UAGIPAH@Z" PURGE="8" COMMENT="" />
    <EXPORT ORDINAL="368" NAME="?GetLoadFlags@nsMsgProtocol@@UAGIPAI@Z" PURGE="8" COMMENT="" />
    <EXPORT ORDINAL="369" NAME="?GetLoadGroup@nsMsgMailNewsUrl@@UAGIPAPAVnsILoadGroup@@@Z" PURGE="8" COMMENT="" />
    <EXPORT ORDINAL="370" NAME="?GetLoadGroup@nsMsgProtocol@@UAGIPAPAVnsILoadGroup@@@Z" PURGE="8" COMMENT="" />
    <EXPORT ORDINAL="371" NAME="?GetLocalPath@nsMsgIncomingServer@@UAGIPAPAVnsIFileSpec@@@Z" PURGE="8" COMMENT="" />
    <EXPORT ORDINAL="372" NAME="?GetLocalStoreType@nsMsgIncomingServer@@UAGIPAPAD@Z" PURGE="8" COMMENT="" />
    <EXPORT ORDINAL="373" NAME="?GetLocked@nsMsgFolder@@UAGIPAH@Z" PURGE="8" COMMENT="" />
    <EXPORT ORDINAL="374" NAME="?GetLoginAtStartUp@nsMsgIncomingServer@@UAGIPAH@Z" PURGE="8" COMMENT="" />
    <EXPORT ORDINAL="375" NAME="?GetManyHeadersToDownload@nsMsgDBFolder@@UAGIPAH@Z" PURGE="8" COMMENT="" />
    <EXPORT ORDINAL="376" NAME="?GetManyHeadersToDownload@nsMsgFolder@@UAGIPAH@Z" PURGE="8" COMMENT="" />
    <EXPORT ORDINAL="377" NAME="?GetMaxMessageSize@nsMsgIncomingServer@@UAGIPAH@Z" PURGE="8" COMMENT="" />
    <EXPORT ORDINAL="378" NAME="?GetMemCacheEntry@nsMsgMailNewsUrl@@UAGIPAPAVnsICacheEntryDescriptor@@@Z" PURGE="8" COMMENT="" />
    <EXPORT ORDINAL="379" NAME="?GetMessageHeader@nsMsgFolder@@UAGIIPAPAVnsIMsgDBHdr@@@Z" PURGE="12" COMMENT="" />
    <EXPORT ORDINAL="380" NAME="?GetMessageServiceContractIDForURI@@YAIPBDAAVnsCString@@@Z" PURGE="0" COMMENT="" />
    <EXPORT ORDINAL="381" NAME="?GetMessageServiceFromURI@@YAIPBDPAPAVnsIMsgMessageService@@@Z" PURGE="0" COMMENT="" />
    <EXPORT ORDINAL="382" NAME="?GetMessages@nsMsgFolder@@UAGIPAVnsIMsgWindow@@PAPAVnsISimpleEnumerator@@@Z" PURGE="12" COMMENT="" />
    <EXPORT ORDINAL="383" NAME="?GetMimeHeaders@nsMsgMailNewsUrl@@UAGIPAPAVnsIMimeHeaders@@@Z" PURGE="8" COMMENT="" />
    <EXPORT ORDINAL="384" NAME="?GetMsgDBHdrFromURI@@YAIPBDPAPAVnsIMsgDBHdr@@@Z" PURGE="0" COMMENT="" />
    <EXPORT ORDINAL="385" NAME="?GetMsgDatabase@nsMsgDBFolder@@UAGIPAVnsIMsgWindow@@PAPAVnsIMsgDatabase@@@Z" PURGE="12" COMMENT="" />
    <EXPORT ORDINAL="386" NAME="?GetMsgDatabase@nsMsgFolder@@UAGIPAVnsIMsgWindow@@PAPAVnsIMsgDatabase@@@Z" PURGE="12" COMMENT="" />
    <EXPORT ORDINAL="387" NAME="?GetMsgIsInLocalCache@nsMsgMailNewsUrl@@UAGIPAH@Z" PURGE="8" COMMENT="" />
    <EXPORT ORDINAL="388" NAME="?GetMsgWindow@nsMsgMailNewsUrl@@UAGIPAPAVnsIMsgWindow@@@Z" PURGE="8" COMMENT="" />
    <EXPORT ORDINAL="389" NAME="?GetMsgWindow@nsMsgTxn@@UAGIPAPAVnsIMsgWindow@@@Z" PURGE="8" COMMENT="" />
    <EXPORT ORDINAL="390" NAME="?GetName@nsMsgFolder@@UAGIPAPAG@Z" PURGE="8" COMMENT="" />
    <EXPORT ORDINAL="391" NAME="?GetName@nsMsgProtocol@@UAGIAAVnsACString@@@Z" PURGE="8" COMMENT="" />
    <EXPORT ORDINAL="392" NAME="?GetNewMessages@nsMsgFolder@@UAGIPAVnsIMsgWindow@@PAVnsIUrlListener@@@Z" PURGE="12" COMMENT="" />
    <EXPORT ORDINAL="393" NAME="?GetNewMessagesNotificationDescription@nsMsgFolder@@UAGIPAPAG@Z" PURGE="8" COMMENT="" />
    <EXPORT ORDINAL="394" NAME="?GetNextAlphabetic@nsMsgGroupRecord@@QAEPAV1@XZ" PURGE="0" COMMENT="" />
    <EXPORT ORDINAL="395" NAME="?GetNextAlphabeticNoCategories@nsMsgGroupRecord@@QAEPAV1@XZ" PURGE="0" COMMENT="" />
    <EXPORT ORDINAL="396" NAME="?GetNoSelect@nsMsgFolder@@UAGIPAH@Z" PURGE="8" COMMENT="" />
    <EXPORT ORDINAL="397" NAME="?GetNotificationCallbacks@nsMsgProtocol@@UAGIPAPAVnsIInterfaceRequestor@@@Z" PURGE="8" COMMENT="" />
    <EXPORT ORDINAL="398" NAME="?GetNumKids@nsMsgGroupRecord@@QAEHXZ" PURGE="0" COMMENT="" />
    <EXPORT ORDINAL="399" NAME="?GetNumNewMessages@nsMsgFolder@@UAGIHPAH@Z" PURGE="12" COMMENT="" />
    <EXPORT ORDINAL="400" NAME="?GetNumPendingTotalMessages@nsMsgFolder@@QAEHXZ" PURGE="0" COMMENT="" />
    <EXPORT ORDINAL="401" NAME="?GetNumPendingUnread@nsMsgFolder@@QAEHXZ" PURGE="0" COMMENT="" />
    <EXPORT ORDINAL="402" NAME="?GetNumUnread@nsMsgFolder@@UAGIHPAH@Z" PURGE="12" COMMENT="" />
    <EXPORT ORDINAL="403" NAME="?GetOfflineFileTransport@nsMsgDBFolder@@UAGIIPAI0PAPAVnsITransport@@@Z" PURGE="20" COMMENT="" />
    <EXPORT ORDINAL="404" NAME="?GetOfflineStoreInputStream@nsMsgDBFolder@@UAGIPAPAVnsIInputStream@@@Z" PURGE="8" COMMENT="" />
    <EXPORT ORDINAL="405" NAME="?GetOfflineStoreOutputStream@nsMsgDBFolder@@UAGIPAPAVnsIOutputStream@@@Z" PURGE="8" COMMENT="" />
    <EXPORT ORDINAL="406" NAME="?GetOfflineSupportLevel@nsMsgIncomingServer@@UAGIPAH@Z" PURGE="8" COMMENT="" />
    <EXPORT ORDINAL="407" NAME="?GetOrganization@nsMsgIdentity@@UAGIPAPAG@Z" PURGE="8" COMMENT="" />
    <EXPORT ORDINAL="408" NAME="?GetOriginCharset@nsMsgMailNewsUrl@@UAGIAAVnsACString@@@Z" PURGE="8" COMMENT="" />
    <EXPORT ORDINAL="409" NAME="?GetOriginalURI@nsMsgProtocol@@UAGIPAPAVnsIURI@@@Z" PURGE="8" COMMENT="" />
    <EXPORT ORDINAL="410" NAME="?GetOverrideGlobalPref@nsMsgIdentity@@UAGIPAH@Z" PURGE="8" COMMENT="" />
    <EXPORT ORDINAL="411" NAME="?GetOwner@nsMsgProtocol@@UAGIPAPAVnsISupports@@@Z" PURGE="8" COMMENT="" />
    <EXPORT ORDINAL="412" NAME="?GetParam@nsMsgMailNewsUrl@@UAGIAAVnsACString@@@Z" PURGE="8" COMMENT="" />
    <EXPORT ORDINAL="413" NAME="?GetParent@nsMsgFolder@@UAGIPAPAVnsIFolder@@@Z" PURGE="8" COMMENT="" />
    <EXPORT ORDINAL="414" NAME="?GetParent@nsMsgGroupRecord@@QAEPAV1@XZ" PURGE="0" COMMENT="" />
    <EXPORT ORDINAL="415" NAME="?GetParentMsgFolder@nsMsgFolder@@UAGIPAPAVnsIMsgFolder@@@Z" PURGE="8" COMMENT="" />
    <EXPORT ORDINAL="416" NAME="?GetPartName@nsMsgGroupRecord@@QAEPBDXZ" PURGE="0" COMMENT="" />
    <EXPORT ORDINAL="417" NAME="?GetPassword@nsMsgIncomingServer@@UAGIPAPAD@Z" PURGE="8" COMMENT="" />
    <EXPORT ORDINAL="418" NAME="?GetPassword@nsMsgMailNewsUrl@@UAGIAAVnsACString@@@Z" PURGE="8" COMMENT="" />
    <EXPORT ORDINAL="419" NAME="?GetPasswordWithUI@nsMsgIncomingServer@@UAGIPBG0PAVnsIMsgWindow@@PAHPAPAD@Z" PURGE="24" COMMENT="" />
    <EXPORT ORDINAL="420" NAME="?GetPath@nsMsgFolder@@UAGIPAPAVnsIFileSpec@@@Z" PURGE="8" COMMENT="" />
    <EXPORT ORDINAL="421" NAME="?GetPath@nsMsgMailNewsUrl@@UAGIAAVnsACString@@@Z" PURGE="8" COMMENT="" />
    <EXPORT ORDINAL="422" NAME="?GetPerformingBiff@nsMsgIncomingServer@@UAGIPAH@Z" PURGE="8" COMMENT="" />
    <EXPORT ORDINAL="423" NAME="?GetPersistElided@nsMsgFolder@@UAGIPAH@Z" PURGE="8" COMMENT="" />
    <EXPORT ORDINAL="424" NAME="?GetPort@nsMsgIncomingServer@@UAGIPAH@Z" PURGE="8" COMMENT="" />
    <EXPORT ORDINAL="425" NAME="?GetPort@nsMsgMailNewsUrl@@UAGIPAH@Z" PURGE="8" COMMENT="" />
    <EXPORT ORDINAL="426" NAME="?GetPrePath@nsMsgMailNewsUrl@@UAGIAAVnsACString@@@Z" PURGE="8" COMMENT="" />
    <EXPORT ORDINAL="427" NAME="?GetPrefPassword@nsMsgIncomingServer@@MAGIPAPAD@Z" PURGE="8" COMMENT="" />
    <EXPORT ORDINAL="428" NAME="?GetPrettiestName@nsMsgFolder@@UAGIPAPAG@Z" PURGE="8" COMMENT="" />
    <EXPORT ORDINAL="429" NAME="?GetPrettyName@nsMsgFolder@@UAGIPAPAG@Z" PURGE="8" COMMENT="" />
    <EXPORT ORDINAL="430" NAME="?GetPrettyName@nsMsgGroupRecord@@QAEPBDXZ" PURGE="0" COMMENT="" />
    <EXPORT ORDINAL="431" NAME="?GetPrettyName@nsMsgIncomingServer@@UAGIPAPAG@Z" PURGE="8" COMMENT="" />
    <EXPORT ORDINAL="432" NAME="?GetPromptDialogFromUrl@nsMsgProtocol@@IAEIPAVnsIMsgMailNewsUrl@@PAPAVnsIPrompt@@@Z" PURGE="8" COMMENT="" />
    <EXPORT ORDINAL="433" NAME="?GetPromptPurgeThreshold@nsMsgDBFolder@@IAEIPAH@Z" PURGE="4" COMMENT="" />
    <EXPORT ORDINAL="434" NAME="?GetPurgeThreshold@nsMsgDBFolder@@IAEIPAH@Z" PURGE="4" COMMENT="" />
    <EXPORT ORDINAL="435" NAME="?GetQuery@nsMsgMailNewsUrl@@UAGIAAVnsACString@@@Z" PURGE="8" COMMENT="" />
    <EXPORT ORDINAL="436" NAME="?GetRealHostName@nsMsgIncomingServer@@UAGIPAPAD@Z" PURGE="8" COMMENT="" />
    <EXPORT ORDINAL="437" NAME="?GetRealUsername@nsMsgIncomingServer@@UAGIPAPAD@Z" PURGE="8" COMMENT="" />
    <EXPORT ORDINAL="438" NAME="?GetRedirectorType@nsMsgIncomingServer@@UAGIPAPAD@Z" PURGE="8" COMMENT="" />
    <EXPORT ORDINAL="439" NAME="?GetRef@nsMsgMailNewsUrl@@UAGIAAVnsACString@@@Z" PURGE="8" COMMENT="" />
    <EXPORT ORDINAL="440" NAME="?GetRelativePathName@nsMsgFolder@@UAGIPAPAD@Z" PURGE="8" COMMENT="" />
    <EXPORT ORDINAL="441" NAME="?GetRelativeSpec@nsMsgMailNewsUrl@@UAGIPAVnsIURI@@AAVnsACString@@@Z" PURGE="12" COMMENT="" />
    <EXPORT ORDINAL="442" NAME="?GetRememberPassword@nsMsgIncomingServer@@UAGIPAH@Z" PURGE="8" COMMENT="" />
    <EXPORT ORDINAL="443" NAME="?GetRememberedPassword@nsMsgFolder@@UAGIPAPAD@Z" PURGE="8" COMMENT="" />
    <EXPORT ORDINAL="444" NAME="?GetReplyTo@nsMsgIdentity@@UAGIPAPAD@Z" PURGE="8" COMMENT="" />
    <EXPORT ORDINAL="445" NAME="?GetRequiresCleanup@nsMsgFolder@@UAGIPAH@Z" PURGE="8" COMMENT="" />
    <EXPORT ORDINAL="446" NAME="?GetRetentionSettings@nsMsgDBFolder@@UAGIPAPAVnsIMsgRetentionSettings@@@Z" PURGE="8" COMMENT="" />
    <EXPORT ORDINAL="447" NAME="?GetRetentionSettings@nsMsgIncomingServer@@UAGIPAPAVnsIMsgRetentionSettings@@@Z" PURGE="8" COMMENT="" />
    <EXPORT ORDINAL="448" NAME="?GetRootFolder@nsMsgFolder@@UAGIPAPAVnsIMsgFolder@@@Z" PURGE="8" COMMENT="" />
    <EXPORT ORDINAL="449" NAME="?GetRootFolder@nsMsgIncomingServer@@UAGIPAPAVnsIFolder@@@Z" PURGE="8" COMMENT="" />
    <EXPORT ORDINAL="450" NAME="?GetRootMsgFolder@nsMsgIncomingServer@@UAGIPAPAVnsIMsgFolder@@@Z" PURGE="8" COMMENT="" />
    <EXPORT ORDINAL="451" NAME="?GetSaveString@nsMsgGroupRecord@@QAEPADXZ" PURGE="0" COMMENT="" />
    <EXPORT ORDINAL="452" NAME="?GetScheme@nsMsgMailNewsUrl@@UAGIAAVnsACString@@@Z" PURGE="8" COMMENT="" />
    <EXPORT ORDINAL="453" NAME="?GetSearchScope@nsMsgIncomingServer@@UAGIPAH@Z" PURGE="8" COMMENT="" />
    <EXPORT ORDINAL="454" NAME="?GetSearchSession@nsMsgMailNewsUrl@@UAGIPAPAVnsIMsgSearchSession@@@Z" PURGE="8" COMMENT="" />
    <EXPORT ORDINAL="455" NAME="?GetSecurityInfo@nsMsgProtocol@@UAGIPAPAVnsISupports@@@Z" PURGE="8" COMMENT="" />
    <EXPORT ORDINAL="456" NAME="?GetServer@nsMsgFolder@@UAGIPAPAVnsIMsgIncomingServer@@@Z" PURGE="8" COMMENT="" />
    <EXPORT ORDINAL="457" NAME="?GetServer@nsMsgMailNewsUrl@@UAGIPAPAVnsIMsgIncomingServer@@@Z" PURGE="8" COMMENT="" />
    <EXPORT ORDINAL="458" NAME="?GetServerBusy@nsMsgIncomingServer@@UAGIPAH@Z" PURGE="8" COMMENT="" />
    <EXPORT ORDINAL="459" NAME="?GetServerRequiresPasswordForBiff@nsMsgIncomingServer@@UAGIPAH@Z" PURGE="8" COMMENT="" />
    <EXPORT ORDINAL="460" NAME="?GetServerURI@nsMsgIncomingServer@@UAGIPAPAD@Z" PURGE="8" COMMENT="" />
    <EXPORT ORDINAL="461" NAME="?GetShowDeletedMessages@nsMsgFolder@@UAGIPAH@Z" PURGE="8" COMMENT="" />
    <EXPORT ORDINAL="462" NAME="?GetShowSaveMsgDlg@nsMsgIdentity@@UAGIPAH@Z" PURGE="8" COMMENT="" />
    <EXPORT ORDINAL="463" NAME="?GetSibling@nsMsgGroupRecord@@QAEPAV1@XZ" PURGE="0" COMMENT="" />
    <EXPORT ORDINAL="464" NAME="?GetSiblingOrAncestorSibling@nsMsgGroupRecord@@QAEPAV1@XZ" PURGE="0" COMMENT="" />
    <EXPORT ORDINAL="465" NAME="?GetSignature@nsMsgIdentity@@UAGIPAPAVnsILocalFile@@@Z" PURGE="8" COMMENT="" />
    <EXPORT ORDINAL="466" NAME="?GetSignatureDate@nsMsgIdentity@@UAGIPAH@Z" PURGE="8" COMMENT="" />
    <EXPORT ORDINAL="467" NAME="?GetSize@nsByteArray@@QAEIXZ" PURGE="0" COMMENT="" />
    <EXPORT ORDINAL="468" NAME="?GetSize@nsUInt32Array@@QBEIXZ" PURGE="0" COMMENT="" />
    <EXPORT ORDINAL="469" NAME="?GetSize@nsUint8Array@@QBEHXZ" PURGE="0" COMMENT="" />
    <EXPORT ORDINAL="470" NAME="?GetSizeOnDisk@nsMsgFolder@@UAGIPAI@Z" PURGE="8" COMMENT="" />
    <EXPORT ORDINAL="471" NAME="?GetSmtpServerKey@nsMsgIdentity@@UAGIPAPAD@Z" PURGE="8" COMMENT="" />
    <EXPORT ORDINAL="472" NAME="?GetSortKey@nsMsgFolder@@UAGIPAPAEPAI@Z" PURGE="12" COMMENT="" />
    <EXPORT ORDINAL="473" NAME="?GetSortOrder@nsMsgFolder@@UAGIPAH@Z" PURGE="8" COMMENT="" />
    <EXPORT ORDINAL="474" NAME="?GetSpec@nsMsgMailNewsUrl@@UAGIAAVnsACString@@@Z" PURGE="8" COMMENT="" />
    <EXPORT ORDINAL="475" NAME="?GetStationeryFolder@nsMsgIdentity@@UAGIPAPAD@Z" PURGE="8" COMMENT="" />
    <EXPORT ORDINAL="476" NAME="?GetStatus@nsMsgProtocol@@UAGIPAI@Z" PURGE="8" COMMENT="" />
    <EXPORT ORDINAL="477" NAME="?GetStatusFeedback@nsMsgMailNewsUrl@@UAGIPAPAVnsIMsgStatusFeedback@@@Z" PURGE="8" COMMENT="" />
    <EXPORT ORDINAL="478" NAME="?GetStringFromBundle@nsMsgFolder@@IAEIPBDPAPAG@Z" PURGE="8" COMMENT="" />
    <EXPORT ORDINAL="479" NAME="?GetStringWithFolderNameFromBundle@nsMsgFolder@@UAGIPBDPAPAG@Z" PURGE="12" COMMENT="" />
    <EXPORT ORDINAL="480" NAME="?GetSubFolders@nsMsgFolder@@UAGIPAPAVnsIEnumerator@@@Z" PURGE="8" COMMENT="" />
    <EXPORT ORDINAL="481" NAME="?GetSupportsDiskSpace@nsMsgIncomingServer@@UAGIPAH@Z" PURGE="8" COMMENT="" />
    <EXPORT ORDINAL="482" NAME="?GetSupportsOffline@nsMsgDBFolder@@UAGIPAH@Z" PURGE="8" COMMENT="" />
    <EXPORT ORDINAL="483" NAME="?GetSuppressErrorMsgs@nsMsgMailNewsUrl@@UAGIPAH@Z" PURGE="8" COMMENT="" />
    <EXPORT ORDINAL="484" NAME="?GetTmplFolderPickerMode@nsMsgIdentity@@UAGIPAPAD@Z" PURGE="8" COMMENT="" />
    <EXPORT ORDINAL="485" NAME="?GetTotalMessages@nsMsgFolder@@UAGIHPAH@Z" PURGE="12" COMMENT="" />
    <EXPORT ORDINAL="486" NAME="?GetTransactionType@nsMsgTxn@@UAGIPAI@Z" PURGE="8" COMMENT="" />
    <EXPORT ORDINAL="487" NAME="?GetType@nsMsgIncomingServer@@UAGIPAPAD@Z" PURGE="8" COMMENT="" />
    <EXPORT ORDINAL="488" NAME="?GetURI@nsMsgFolder@@UAGIPAPAD@Z" PURGE="8" COMMENT="" />
    <EXPORT ORDINAL="489" NAME="?GetURI@nsMsgProtocol@@UAGIPAPAVnsIURI@@@Z" PURGE="8" COMMENT="" />
    <EXPORT ORDINAL="490" NAME="?GetUnicharAttribute@nsMsgIdentity@@UAGIPBDPAPAG@Z" PURGE="12" COMMENT="" />
    <EXPORT ORDINAL="491" NAME="?GetUnicharAttribute@nsMsgIncomingServer@@UAGIPBDPAPAG@Z" PURGE="12" COMMENT="" />
    <EXPORT ORDINAL="492" NAME="?GetUnicharValue@nsMsgIncomingServer@@UAGIPBDPAPAG@Z" PURGE="12" COMMENT="" />
    <EXPORT ORDINAL="493" NAME="?GetUniqueID@nsMsgGroupRecord@@QAEHXZ" PURGE="0" COMMENT="" />
    <EXPORT ORDINAL="494" NAME="?GetUpdatingFolder@nsMsgMailNewsUrl@@UAGIPAH@Z" PURGE="8" COMMENT="" />
    <EXPORT ORDINAL="495" NAME="?GetUpperBound@nsUint8Array@@QBEHXZ" PURGE="0" COMMENT="" />
    <EXPORT ORDINAL="496" NAME="?GetUriForMsg@nsMsgFolder@@UAGIPAVnsIMsgDBHdr@@PAPAD@Z" PURGE="12" COMMENT="" />
    <EXPORT ORDINAL="497" NAME="?GetUrlState@nsMsgMailNewsUrl@@UAGIPAH@Z" PURGE="8" COMMENT="" />
    <EXPORT ORDINAL="498" NAME="?GetUserPass@nsMsgMailNewsUrl@@UAGIAAVnsACString@@@Z" PURGE="8" COMMENT="" />
    <EXPORT ORDINAL="499" NAME="?GetUsername@nsMsgFolder@@UAGIPAPAD@Z" PURGE="8" COMMENT="" />
    <EXPORT ORDINAL="500" NAME="?GetUsername@nsMsgIncomingServer@@UAGIPAPAD@Z" PURGE="8" COMMENT="" />
    <EXPORT ORDINAL="501" NAME="?GetUsername@nsMsgMailNewsUrl@@UAGIAAVnsACString@@@Z" PURGE="8" COMMENT="" />
    <EXPORT ORDINAL="502" NAME="?GetVCard@nsMsgIdentity@@UAGIPAPAVnsIMsgVCard@@@Z" PURGE="8" COMMENT="" />
    <EXPORT ORDINAL="503" NAME="?GetValid@nsMsgIdentity@@UAGIPAH@Z" PURGE="8" COMMENT="" />
    <EXPORT ORDINAL="504" NAME="?GetValid@nsMsgIncomingServer@@UAGIPAH@Z" PURGE="8" COMMENT="" />
    <EXPORT ORDINAL="505" NAME="?GetVisibleSubFolders@nsMsgFolder@@UAGIPAPAVnsIEnumerator@@@Z" PURGE="8" COMMENT="" />
    <EXPORT ORDINAL="506" NAME="?GetWarnFilterChanged@nsMsgFolder@@IAEIPAH@Z" PURGE="4" COMMENT="" />
    <EXPORT ORDINAL="507" NAME="?GroupNameCompare@nsMsgGroupRecord@@SAHPBD0DH@Z" PURGE="0" COMMENT="" />
    <EXPORT ORDINAL="508" NAME="?Grow@nsMsgKeySet@@IAEHXZ" PURGE="0" COMMENT="" />
    <EXPORT ORDINAL="509" NAME="?GrowBuffer@nsByteArray@@QAEIII@Z" PURGE="8" COMMENT="" />
    <EXPORT ORDINAL="510" NAME="?GrowBuffer@nsMsgLineStreamBuffer@@QAEIH@Z" PURGE="4" COMMENT="" />
    <EXPORT ORDINAL="511" NAME="?HandleLine@nsMsgLineBuffer@@UAEHPADI@Z" PURGE="8" COMMENT="" />
    <EXPORT ORDINAL="512" NAME="?HasMsgOffline@nsMsgDBFolder@@UAGIIPAH@Z" PURGE="12" COMMENT="" />
    <EXPORT ORDINAL="513" NAME="?Init@nsMsgFolder@@UAGIPBD@Z" PURGE="8" COMMENT="" />
    <EXPORT ORDINAL="514" NAME="?InitFromURI@nsMsgProtocol@@MAEIPAVnsIURI@@@Z" PURGE="4" COMMENT="" />
    <EXPORT ORDINAL="515" NAME="?InitializeSibling@nsMsgGroupRecord@@UAEXXZ" PURGE="0" COMMENT="" />
    <EXPORT ORDINAL="516" NAME="?InsertAt@nsMsgKeyArray@@QAEXIIH@Z" PURGE="12" COMMENT="" />
    <EXPORT ORDINAL="517" NAME="?InsertAt@nsMsgKeyArray@@QAEXIPBV1@@Z" PURGE="8" COMMENT="" />
    <EXPORT ORDINAL="518" NAME="?InsertAt@nsUInt32Array@@QAEXIII@Z" PURGE="12" COMMENT="" />
    <EXPORT ORDINAL="519" NAME="?InsertAt@nsUInt32Array@@QAEXIPBV1@@Z" PURGE="8" COMMENT="" />
    <EXPORT ORDINAL="520" NAME="?InsertAt@nsUint8Array@@QAEIHEH@Z" PURGE="12" COMMENT="" />
    <EXPORT ORDINAL="521" NAME="?InsertAt@nsUint8Array@@QAEIHPAV1@@Z" PURGE="8" COMMENT="" />
    <EXPORT ORDINAL="522" NAME="?InternalSetHostName@nsMsgIncomingServer@@IAEIPBD0@Z" PURGE="8" COMMENT="" />
    <EXPORT ORDINAL="523" NAME="?IsAFromSpaceLine@@YAHPADPBD@Z" PURGE="0" COMMENT="" />
    <EXPORT ORDINAL="524" NAME="?IsAncestorOf@nsMsgFolder@@UAGIPAVnsIMsgFolder@@PAH@Z" PURGE="12" COMMENT="" />
    <EXPORT ORDINAL="525" NAME="?IsCategory@nsMsgGroupRecord@@UAEHXZ" PURGE="0" COMMENT="" />
    <EXPORT ORDINAL="526" NAME="?IsCategoryContainer@nsMsgGroupRecord@@UAEHXZ" PURGE="0" COMMENT="" />
    <EXPORT ORDINAL="527" NAME="?IsCommandEnabled@nsMsgDBFolder@@UAGIPBDPAH@Z" PURGE="12" COMMENT="" />
    <EXPORT ORDINAL="528" NAME="?IsDescendentsLoaded@nsMsgGroupRecord@@QAEHXZ" PURGE="0" COMMENT="" />
    <EXPORT ORDINAL="529" NAME="?IsDirty@nsMsgGroupRecord@@QAEHXZ" PURGE="0" COMMENT="" />
    <EXPORT ORDINAL="530" NAME="?IsExpanded@nsMsgGroupRecord@@QAEHXZ" PURGE="0" COMMENT="" />
    <EXPORT ORDINAL="531" NAME="?IsGroup@nsMsgGroupRecord@@UAEHXZ" PURGE="0" COMMENT="" />
    <EXPORT ORDINAL="532" NAME="?IsHTMLOKGroup@nsMsgGroupRecord@@QAEHXZ" PURGE="0" COMMENT="" />
    <EXPORT ORDINAL="533" NAME="?IsHTMLOKTree@nsMsgGroupRecord@@QAEHXZ" PURGE="0" COMMENT="" />
    <EXPORT ORDINAL="534" NAME="?IsIMAPGroupRecord@nsMsgGroupRecord@@UAEHXZ" PURGE="0" COMMENT="" />
    <EXPORT ORDINAL="535" NAME="?IsMember@nsMsgKeySet@@QAEHH@Z" PURGE="4" COMMENT="" />
    <EXPORT ORDINAL="536" NAME="?IsPending@nsMsgProtocol@@UAGIPAH@Z" PURGE="8" COMMENT="" />
    <EXPORT ORDINAL="537" NAME="?IsUrlType@nsMsgMailNewsUrl@@UAGIIPAH@Z" PURGE="12" COMMENT="" />
    <EXPORT ORDINAL="538" NAME="?IsValidFolderURI@@YAHPBD@Z" PURGE="0" COMMENT="" />
    <EXPORT ORDINAL="539" NAME="?IsVirtual@nsMsgGroupRecord@@QAEIPAH@Z" PURGE="4" COMMENT="" />
    <EXPORT ORDINAL="540" NAME="?LastMissingRange@nsMsgKeySet@@QAEHHHPAH0@Z" PURGE="16" COMMENT="" />
    <EXPORT ORDINAL="541" NAME="?ListDescendents@nsMsgFolder@@UAGIPAVnsISupportsArray@@@Z" PURGE="8" COMMENT="" />
    <EXPORT ORDINAL="542" NAME="?LoadUrl@nsMsgProtocol@@UAEIPAVnsIURI@@PAVnsISupports@@@Z" PURGE="8" COMMENT="" />
    <EXPORT ORDINAL="543" NAME="?MarkAllMessagesRead@nsMsgDBFolder@@UAGIXZ" PURGE="4" COMMENT="" />
    <EXPORT ORDINAL="544" NAME="?MarkAllMessagesRead@nsMsgFolder@@UAGIXZ" PURGE="4" COMMENT="" />
    <EXPORT ORDINAL="545" NAME="?MarkMessagesFlagged@nsMsgFolder@@UAGIPAVnsISupportsArray@@H@Z" PURGE="12" COMMENT="" />
    <EXPORT ORDINAL="546" NAME="?MarkMessagesRead@nsMsgFolder@@UAGIPAVnsISupportsArray@@H@Z" PURGE="12" COMMENT="" />
    <EXPORT ORDINAL="547" NAME="?MarkThreadRead@nsMsgDBFolder@@UAGIPAVnsIMsgThread@@@Z" PURGE="8" COMMENT="" />
    <EXPORT ORDINAL="548" NAME="?MarkThreadRead@nsMsgFolder@@UAGIPAVnsIMsgThread@@@Z" PURGE="8" COMMENT="" />
    <EXPORT ORDINAL="549" NAME="?MatchName@nsMsgFolder@@UAGIPAVnsString@@PAH@Z" PURGE="12" COMMENT="" />
    <EXPORT ORDINAL="550" NAME="?MatchOrChangeFilterDestination@nsMsgDBFolder@@UAGIPAVnsIMsgFolder@@HPAH@Z" PURGE="16" COMMENT="" />
    <EXPORT ORDINAL="551" NAME="?Merge@nsMsgTxn@@UAGIPAVnsITransaction@@PAH@Z" PURGE="12" COMMENT="" />
    <EXPORT ORDINAL="552" NAME="?MsgFitsDownloadCriteria@nsMsgDBFolder@@IAEIIPAH@Z" PURGE="8" COMMENT="" />
    <EXPORT ORDINAL="553" NAME="?NS_MsgCreatePathStringFromFolderURI@@YAIPBDAAVnsCString@@@Z" PURGE="0" COMMENT="" />
    <EXPORT ORDINAL="554" NAME="?NS_MsgDecodeUnescapeURLPath@@YAIPBDPAPAG@Z" PURGE="0" COMMENT="" />
    <EXPORT ORDINAL="555" NAME="?NS_MsgEscapeEncodeURLPath@@YAIPBGPAPAD@Z" PURGE="0" COMMENT="" />
    <EXPORT ORDINAL="556" NAME="?NS_MsgGetPriorityFromString@@YAIPBDPAH@Z" PURGE="0" COMMENT="" />
    <EXPORT ORDINAL="557" NAME="?NS_MsgGetUntranslatedPriorityName@@YAIHPAVnsString@@@Z" PURGE="0" COMMENT="" />
    <EXPORT ORDINAL="558" NAME="?NS_MsgHashIfNecessary@@YAIAAVnsCAutoString@@@Z" PURGE="0" COMMENT="" />
    <EXPORT ORDINAL="559" NAME="?NS_MsgSACat@@YAPADPAPADPBD@Z" PURGE="0" COMMENT="" />
    <EXPORT ORDINAL="560" NAME="?NS_MsgSACopy@@YAPADPAPADPBD@Z" PURGE="0" COMMENT="" />
    <EXPORT ORDINAL="561" NAME="?NS_MsgStripRE@@YAHPAPBDPAIPAPAD@Z" PURGE="0" COMMENT="" />
    <EXPORT ORDINAL="562" NAME="?NeedsExtraInfo@nsMsgGroupRecord@@QAEHXZ" PURGE="0" COMMENT="" />
    <EXPORT ORDINAL="563" NAME="?NotifyBoolPropertyChanged@nsMsgFolder@@UAGIPAVnsIAtom@@HH@Z" PURGE="16" COMMENT="" />
    <EXPORT ORDINAL="564" NAME="?NotifyCompactCompleted@nsMsgFolder@@UAGIXZ" PURGE="4" COMMENT="" />
    <EXPORT ORDINAL="565" NAME="?NotifyFolderEvent@nsMsgFolder@@UAGIPAVnsIAtom@@@Z" PURGE="8" COMMENT="" />
    <EXPORT ORDINAL="566" NAME="?NotifyIntPropertyChanged@nsMsgFolder@@UAGIPAVnsIAtom@@HH@Z" PURGE="16" COMMENT="" />
    <EXPORT ORDINAL="567" NAME="?NotifyItemAdded@nsMsgFolder@@UAGIPAVnsISupports@@0PBD@Z" PURGE="16" COMMENT="" />
    <EXPORT ORDINAL="568" NAME="?NotifyItemDeleted@nsMsgFolder@@UAGIPAVnsISupports@@0PBD@Z" PURGE="16" COMMENT="" />
    <EXPORT ORDINAL="569" NAME="?NotifyPropertyChanged@nsMsgFolder@@UAGIPAVnsIAtom@@PBD1@Z" PURGE="16" COMMENT="" />
    <EXPORT ORDINAL="570" NAME="?NotifyPropertyFlagChanged@nsMsgFolder@@UAGIPAVnsISupports@@PAVnsIAtom@@II@Z" PURGE="20" COMMENT="" />
    <EXPORT ORDINAL="571" NAME="?NotifyStoreClosedAllHeaders@nsMsgDBFolder@@IAEIXZ" PURGE="0" COMMENT="" />
    <EXPORT ORDINAL="572" NAME="?NotifyUnicharPropertyChanged@nsMsgFolder@@UAGIPAVnsIAtom@@PBG1@Z" PURGE="16" COMMENT="" />
    <EXPORT ORDINAL="573" NAME="?OnAnnouncerGoingAway@nsMsgDBFolder@@UAGIPAVnsIDBChangeAnnouncer@@@Z" PURGE="8" COMMENT="" />
    <EXPORT ORDINAL="574" NAME="?OnDataAvailable@nsMsgProtocol@@UAGIPAVnsIRequest@@PAVnsISupports@@PAVnsIInputStream@@II@Z" PURGE="24" COMMENT="" />
    <EXPORT ORDINAL="575" NAME="?OnFlagChange@nsMsgFolder@@UAGII@Z" PURGE="8" COMMENT="" />
    <EXPORT ORDINAL="576" NAME="?OnKeyAdded@nsMsgDBFolder@@UAGIIIHPAVnsIDBChangeListener@@@Z" PURGE="20" COMMENT="" />
    <EXPORT ORDINAL="577" NAME="?OnKeyAddedOrDeleted@nsMsgDBFolder@@IAEIIIHPAVnsIDBChangeListener@@HHH@Z" PURGE="28" COMMENT="" />
    <EXPORT ORDINAL="578" NAME="?OnKeyChange@nsMsgDBFolder@@UAGIIIIPAVnsIDBChangeListener@@@Z" PURGE="20" COMMENT="" />
    <EXPORT ORDINAL="579" NAME="?OnKeyDeleted@nsMsgDBFolder@@UAGIIIHPAVnsIDBChangeListener@@@Z" PURGE="20" COMMENT="" />
    <EXPORT ORDINAL="580" NAME="?OnParentChanged@nsMsgDBFolder@@UAGIIIIPAVnsIDBChangeListener@@@Z" PURGE="20" COMMENT="" />
    <EXPORT ORDINAL="581" NAME="?OnReadChanged@nsMsgDBFolder@@UAGIPAVnsIDBChangeListener@@@Z" PURGE="8" COMMENT="" />
    <EXPORT ORDINAL="582" NAME="?OnStartRequest@nsMsgProtocol@@UAGIPAVnsIRequest@@PAVnsISupports@@@Z" PURGE="12" COMMENT="" />
    <EXPORT ORDINAL="583" NAME="?OnStartRunningUrl@nsMsgDBFolder@@UAGIPAVnsIURI@@@Z" PURGE="8" COMMENT="" />
    <EXPORT ORDINAL="584" NAME="?OnStopRequest@nsMsgProtocol@@UAGIPAVnsIRequest@@PAVnsISupports@@I@Z" PURGE="16" COMMENT="" />
    <EXPORT ORDINAL="585" NAME="?OnStopRunningUrl@nsMsgDBFolder@@UAGIPAVnsIURI@@I@Z" PURGE="12" COMMENT="" />
    <EXPORT ORDINAL="586" NAME="?OnUserOrHostNameChanged@nsMsgIncomingServer@@UAGIPBD0@Z" PURGE="12" COMMENT="" />
    <EXPORT ORDINAL="587" NAME="?Open@nsMsgProtocol@@UAGIPAPAVnsIInputStream@@@Z" PURGE="8" COMMENT="" />
    <EXPORT ORDINAL="588" NAME="?OpenFileSocket@nsMsgProtocol@@MAEIPAVnsIURI@@IH@Z" PURGE="12" COMMENT="" />
    <EXPORT ORDINAL="589" NAME="?OpenNetworkSocket@nsMsgProtocol@@MAEIPAVnsIURI@@PBDPAVnsIInterfaceRequestor@@@Z" PURGE="12" COMMENT="" />
    <EXPORT ORDINAL="590" NAME="?OpenNetworkSocketWithInfo@nsMsgProtocol@@MAEIPBDH0PAVnsIProxyInfo@@PAVnsIInterfaceRequestor@@@Z" PURGE="20" COMMENT="" />
    <EXPORT ORDINAL="591" NAME="?Optimize@nsMsgKeySet@@IAEHXZ" PURGE="0" COMMENT="" />
    <EXPORT ORDINAL="592" NAME="?Output@nsMsgKeySet@@QAEIPAPAD@Z" PURGE="4" COMMENT="" />
    <EXPORT ORDINAL="593" NAME="?PerformBiff@nsMsgIncomingServer@@UAGIXZ" PURGE="4" COMMENT="" />
    <EXPORT ORDINAL="594" NAME="?PerformExpand@nsMsgIncomingServer@@UAGIPAVnsIMsgWindow@@@Z" PURGE="8" COMMENT="" />
    <EXPORT ORDINAL="595" NAME="?PostDataFinished@nsMsgAsyncWriteProtocol@@QAEIXZ" PURGE="0" COMMENT="" />
    <EXPORT ORDINAL="596" NAME="?PostMessage@nsMsgAsyncWriteProtocol@@UAEIPAVnsIURI@@PAVnsIFileSpec@@@Z" PURGE="8" COMMENT="" />
    <EXPORT ORDINAL="597" NAME="?PostMessage@nsMsgProtocol@@MAEIPAVnsIURI@@PAVnsIFileSpec@@@Z" PURGE="8" COMMENT="" />
    <EXPORT ORDINAL="598" NAME="?ProcessIncomingPostData@nsMsgAsyncWriteProtocol@@QAEIPAVnsIInputStream@@I@Z" PURGE="8" COMMENT="" />
    <EXPORT ORDINAL="599" NAME="?PropagateDelete@nsMsgFolder@@UAGIPAVnsIMsgFolder@@HPAVnsIMsgWindow@@@Z" PURGE="16" COMMENT="" />
    <EXPORT ORDINAL="600" NAME="?QueryElementAt@nsMsgFolder@@UAGIIABUnsID@@PAPAX@Z" PURGE="16" COMMENT="" />
    <EXPORT ORDINAL="601" NAME="?QueryInterface@nsMsgAsyncWriteProtocol@@UAGIABUnsID@@PAPAX@Z" PURGE="12" COMMENT="" />
    <EXPORT ORDINAL="602" NAME="?QueryInterface@nsMsgDBFolder@@UAGIABUnsID@@PAPAX@Z" PURGE="12" COMMENT="" />
    <EXPORT ORDINAL="603" NAME="?QueryInterface@nsMsgFolder@@UAGIABUnsID@@PAPAX@Z" PURGE="12" COMMENT="" />
    <EXPORT ORDINAL="604" NAME="?QueryInterface@nsMsgIdentity@@UAGIABUnsID@@PAPAX@Z" PURGE="12" COMMENT="" />
    <EXPORT ORDINAL="605" NAME="?QueryInterface@nsMsgIncomingServer@@UAGIABUnsID@@PAPAX@Z" PURGE="12" COMMENT="" />
    <EXPORT ORDINAL="606" NAME="?QueryInterface@nsMsgMailNewsUrl@@UAGIABUnsID@@PAPAX@Z" PURGE="12" COMMENT="" />
    <EXPORT ORDINAL="607" NAME="?QueryInterface@nsMsgProtocol@@UAGIABUnsID@@PAPAX@Z" PURGE="12" COMMENT="" />
    <EXPORT ORDINAL="608" NAME="?QueryInterface@nsMsgTxn@@UAGIABUnsID@@PAPAX@Z" PURGE="12" COMMENT="" />
    <EXPORT ORDINAL="609" NAME="?QuickSort@nsUInt32Array@@QAEXP6AHPBX0PAX@Z@Z" PURGE="4" COMMENT="" />
    <EXPORT ORDINAL="610" NAME="?Read@nsMsgFolder@@UAGIPAVnsIObjectInputStream@@@Z" PURGE="8" COMMENT="" />
    <EXPORT ORDINAL="611" NAME="?ReadDBFolderInfo@nsMsgDBFolder@@MAEIH@Z" PURGE="4" COMMENT="" />
    <EXPORT ORDINAL="612" NAME="?ReadFromFolderCacheElem@nsMsgDBFolder@@UAGIPAVnsIMsgFolderCacheElement@@@Z" PURGE="8" COMMENT="" />
    <EXPORT ORDINAL="613" NAME="?ReadNextLine@nsMsgLineStreamBuffer@@QAEPADPAVnsIInputStream@@AAIAAH@Z" PURGE="12" COMMENT="" />
    <EXPORT ORDINAL="614" NAME="?RecursiveDelete@nsMsgFolder@@UAGIHPAVnsIMsgWindow@@@Z" PURGE="12" COMMENT="" />
    <EXPORT ORDINAL="615" NAME="?RecursiveSetDeleteIsMoveToTrash@nsMsgFolder@@UAGIH@Z" PURGE="8" COMMENT="" />
    <EXPORT ORDINAL="616" NAME="?RegisterListener@nsMsgMailNewsUrl@@UAGIPAVnsIUrlListener@@@Z" PURGE="8" COMMENT="" />
    <EXPORT ORDINAL="617" NAME="?Release@nsMsgAsyncWriteProtocol@@UAGKXZ" PURGE="4" COMMENT="" />
    <EXPORT ORDINAL="618" NAME="?Release@nsMsgDBFolder@@UAGKXZ" PURGE="4" COMMENT="" />
    <EXPORT ORDINAL="619" NAME="?Release@nsMsgFolder@@UAGKXZ" PURGE="4" COMMENT="" />
    <EXPORT ORDINAL="620" NAME="?Release@nsMsgIdentity@@UAGKXZ" PURGE="4" COMMENT="" />
    <EXPORT ORDINAL="621" NAME="?Release@nsMsgIncomingServer@@UAGKXZ" PURGE="4" COMMENT="" />
    <EXPORT ORDINAL="622" NAME="?Release@nsMsgMailNewsUrl@@UAGKXZ" PURGE="4" COMMENT="" />
    <EXPORT ORDINAL="623" NAME="?Release@nsMsgProtocol@@UAGKXZ" PURGE="4" COMMENT="" />
    <EXPORT ORDINAL="624" NAME="?Release@nsMsgTxn@@UAGKXZ" PURGE="4" COMMENT="" />
    <EXPORT ORDINAL="625" NAME="?ReleaseSemaphore@nsMsgFolder@@UAGIPAVnsISupports@@@Z" PURGE="8" COMMENT="" />
    <EXPORT ORDINAL="626" NAME="?RememberPassword@nsMsgFolder@@UAGIPBD@Z" PURGE="8" COMMENT="" />
    <EXPORT ORDINAL="627" NAME="?Remove@nsMsgKeySet@@QAEHH@Z" PURGE="4" COMMENT="" />
    <EXPORT ORDINAL="628" NAME="?RemoveAll@nsUInt32Array@@QAEXXZ" PURGE="0" COMMENT="" />
    <EXPORT ORDINAL="629" NAME="?RemoveAll@nsUint8Array@@QAEXXZ" PURGE="0" COMMENT="" />
    <EXPORT ORDINAL="630" NAME="?RemoveAt@nsUInt32Array@@QAEXII@Z" PURGE="8" COMMENT="" />
    <EXPORT ORDINAL="631" NAME="?RemoveAt@nsUint8Array@@QAEXHH@Z" PURGE="8" COMMENT="" />
    <EXPORT ORDINAL="632" NAME="?RemoveCacheEntry@nsMsgMailNewsUrl@@UAGIPAVnsICacheEntryDescriptor@@@Z" PURGE="8" COMMENT="" />
    <EXPORT ORDINAL="633" NAME="?RemoveElement@nsMsgFolder@@UAGIPAVnsISupports@@@Z" PURGE="8" COMMENT="" />
    <EXPORT ORDINAL="634" NAME="?RemoveFiles@nsMsgIncomingServer@@UAGIXZ" PURGE="4" COMMENT="" />
    <EXPORT ORDINAL="635" NAME="?RemoveFolderListener@nsMsgFolder@@UAGIPAVnsIFolderListener@@@Z" PURGE="8" COMMENT="" />
    <EXPORT ORDINAL="636" NAME="?Rename@nsMsgFolder@@UAGIPBGPAVnsIMsgWindow@@@Z" PURGE="12" COMMENT="" />
    <EXPORT ORDINAL="637" NAME="?RenameSubFolders@nsMsgFolder@@UAGIPAVnsIMsgWindow@@PAVnsIMsgFolder@@@Z" PURGE="12" COMMENT="" />
    <EXPORT ORDINAL="638" NAME="?ReplaceElement@nsMsgFolder@@UAGIPAVnsISupports@@0@Z" PURGE="12" COMMENT="" />
    <EXPORT ORDINAL="639" NAME="?ResetWritePos@nsByteArray@@QAEXXZ" PURGE="0" COMMENT="" />
    <EXPORT ORDINAL="640" NAME="?Resolve@nsMsgMailNewsUrl@@UAGIABVnsACString@@AAV2@@Z" PURGE="12" COMMENT="" />
    <EXPORT ORDINAL="641" NAME="?Resume@nsMsgProtocol@@UAGIXZ" PURGE="4" COMMENT="" />
    <EXPORT ORDINAL="642" NAME="?ResumePostFileRead@nsMsgAsyncWriteProtocol@@QAEIXZ" PURGE="0" COMMENT="" />
    <EXPORT ORDINAL="643" NAME="?SchemeIs@nsMsgMailNewsUrl@@UAGIPBDPAH@Z" PURGE="12" COMMENT="" />
    <EXPORT ORDINAL="644" NAME="?SendData@nsMsgAsyncWriteProtocol@@UAEHPAVnsIURI@@PBDH@Z" PURGE="12" COMMENT="" />
    <EXPORT ORDINAL="645" NAME="?SendData@nsMsgProtocol@@MAEHPAVnsIURI@@PBDH@Z" PURGE="12" COMMENT="" />
    <EXPORT ORDINAL="646" NAME="?SendFlagNotifications@nsMsgDBFolder@@MAEIPAVnsISupports@@II@Z" PURGE="12" COMMENT="" />
    <EXPORT ORDINAL="647" NAME="?SetAddToMemoryCache@nsMsgMailNewsUrl@@UAGIH@Z" PURGE="8" COMMENT="" />
    <EXPORT ORDINAL="648" NAME="?SetArray@nsMsgKeyArray@@QAEXPAIHH@Z" PURGE="12" COMMENT="" />
    <EXPORT ORDINAL="649" NAME="?SetAt@nsMsgKeyArray@@QAEXII@Z" PURGE="8" COMMENT="" />
    <EXPORT ORDINAL="650" NAME="?SetAt@nsUInt32Array@@QAEXII@Z" PURGE="8" COMMENT="" />
    <EXPORT ORDINAL="651" NAME="?SetAt@nsUint8Array@@QAEXHE@Z" PURGE="8" COMMENT="" />
    <EXPORT ORDINAL="652" NAME="?SetAtGrow@nsMsgKeyArray@@QAEXII@Z" PURGE="8" COMMENT="" />
    <EXPORT ORDINAL="653" NAME="?SetAtGrow@nsUInt32Array@@QAEXII@Z" PURGE="8" COMMENT="" />
    <EXPORT ORDINAL="654" NAME="?SetAtGrow@nsUint8Array@@QAEXHE@Z" PURGE="8" COMMENT="" />
    <EXPORT ORDINAL="655" NAME="?SetAttachSignature@nsMsgIdentity@@UAGIH@Z" PURGE="8" COMMENT="" />
    <EXPORT ORDINAL="656" NAME="?SetAttachVCard@nsMsgIdentity@@UAGIH@Z" PURGE="8" COMMENT="" />
    <EXPORT ORDINAL="657" NAME="?SetBccList@nsMsgIdentity@@UAGIPBD@Z" PURGE="8" COMMENT="" />
    <EXPORT ORDINAL="658" NAME="?SetBccOthers@nsMsgIdentity@@UAGIH@Z" PURGE="8" COMMENT="" />
    <EXPORT ORDINAL="659" NAME="?SetBccSelf@nsMsgIdentity@@UAGIH@Z" PURGE="8" COMMENT="" />
    <EXPORT ORDINAL="660" NAME="?SetBiffMinutes@nsMsgIncomingServer@@UAGIH@Z" PURGE="8" COMMENT="" />
    <EXPORT ORDINAL="661" NAME="?SetBiffState@nsMsgFolder@@UAGII@Z" PURGE="8" COMMENT="" />
    <EXPORT ORDINAL="662" NAME="?SetBiffState@nsMsgIncomingServer@@UAGII@Z" PURGE="8" COMMENT="" />
    <EXPORT ORDINAL="663" NAME="?SetBoolAttribute@nsMsgIdentity@@UAGIPBDH@Z" PURGE="12" COMMENT="" />
    <EXPORT ORDINAL="664" NAME="?SetBoolAttribute@nsMsgIncomingServer@@UAGIPBDH@Z" PURGE="12" COMMENT="" />
    <EXPORT ORDINAL="665" NAME="?SetBoolValue@nsMsgIncomingServer@@UAGIPBDH@Z" PURGE="12" COMMENT="" />
    <EXPORT ORDINAL="666" NAME="?SetCanCreateFoldersOnServer@nsMsgIncomingServer@@UAGIH@Z" PURGE="8" COMMENT="" />
    <EXPORT ORDINAL="667" NAME="?SetCanDelete@nsMsgIncomingServer@@UAGIH@Z" PURGE="8" COMMENT="" />
    <EXPORT ORDINAL="668" NAME="?SetCanFileMessagesOnServer@nsMsgIncomingServer@@UAGIH@Z" PURGE="8" COMMENT="" />
    <EXPORT ORDINAL="669" NAME="?SetCharAttribute@nsMsgIdentity@@UAGIPBD0@Z" PURGE="12" COMMENT="" />
    <EXPORT ORDINAL="670" NAME="?SetCharAttribute@nsMsgIncomingServer@@UAGIPBD0@Z" PURGE="12" COMMENT="" />
    <EXPORT ORDINAL="671" NAME="?SetCharValue@nsMsgIncomingServer@@UAGIPBD0@Z" PURGE="12" COMMENT="" />
    <EXPORT ORDINAL="672" NAME="?SetCharset@nsMsgDBFolder@@UAGIPBG@Z" PURGE="8" COMMENT="" />
    <EXPORT ORDINAL="673" NAME="?SetCharsetOverride@nsMsgDBFolder@@UAGIH@Z" PURGE="8" COMMENT="" />
    <EXPORT ORDINAL="674" NAME="?SetComposeHtml@nsMsgIdentity@@UAGIH@Z" PURGE="8" COMMENT="" />
    <EXPORT ORDINAL="675" NAME="?SetContentCharset@nsMsgProtocol@@UAGIABVnsACString@@@Z" PURGE="8" COMMENT="" />
    <EXPORT ORDINAL="676" NAME="?SetContentLength@nsMsgProtocol@@UAGIH@Z" PURGE="8" COMMENT="" />
    <EXPORT ORDINAL="677" NAME="?SetContentType@nsMsgProtocol@@UAGIABVnsACString@@@Z" PURGE="8" COMMENT="" />
    <EXPORT ORDINAL="678" NAME="?SetDefaultCopiesAndFoldersPrefsToServer@nsMsgIncomingServer@@UAGIH@Z" PURGE="8" COMMENT="" />
    <EXPORT ORDINAL="679" NAME="?SetDefaultLocalPath@nsMsgIncomingServer@@UAGIPAVnsIFileSpec@@@Z" PURGE="8" COMMENT="" />
    <EXPORT ORDINAL="680" NAME="?SetDeleteIsMoveToTrash@nsMsgFolder@@UAGIH@Z" PURGE="8" COMMENT="" />
    <EXPORT ORDINAL="681" NAME="?SetDirectory@nsMsgMailNewsUrl@@UAGIABVnsACString@@@Z" PURGE="8" COMMENT="" />
    <EXPORT ORDINAL="682" NAME="?SetDirectoryServer@nsMsgIdentity@@UAGIPBD@Z" PURGE="8" COMMENT="" />
    <EXPORT ORDINAL="683" NAME="?SetDisplayStartupPage@nsMsgIncomingServer@@UAGIH@Z" PURGE="8" COMMENT="" />
    <EXPORT ORDINAL="684" NAME="?SetDoBiff@nsMsgIncomingServer@@UAGIH@Z" PURGE="8" COMMENT="" />
    <EXPORT ORDINAL="685" NAME="?SetDoFcc@nsMsgIdentity@@UAGIH@Z" PURGE="8" COMMENT="" />
    <EXPORT ORDINAL="686" NAME="?SetDoesNotExistOnServer@nsMsgGroupRecord@@QAEHH@Z" PURGE="4" COMMENT="" />
    <EXPORT ORDINAL="687" NAME="?SetDownloadOnBiff@nsMsgIncomingServer@@UAGIH@Z" PURGE="8" COMMENT="" />
    <EXPORT ORDINAL="688" NAME="?SetDownloadSettings@nsMsgDBFolder@@UAGIPAVnsIMsgDownloadSettings@@@Z" PURGE="8" COMMENT="" />
    <EXPORT ORDINAL="689" NAME="?SetDownloadSettings@nsMsgIncomingServer@@UAGIPAVnsIMsgDownloadSettings@@@Z" PURGE="8" COMMENT="" />
    <EXPORT ORDINAL="690" NAME="?SetDraftFolder@nsMsgIdentity@@UAGIPBD@Z" PURGE="8" COMMENT="" />
    <EXPORT ORDINAL="691" NAME="?SetDraftsFolderPickerMode@nsMsgIdentity@@UAGIPBD@Z" PURGE="8" COMMENT="" />
    <EXPORT ORDINAL="692" NAME="?SetElementAt@nsMsgFolder@@UAGIIPAVnsISupports@@@Z" PURGE="12" COMMENT="" />
    <EXPORT ORDINAL="693" NAME="?SetEmail@nsMsgIdentity@@UAGIPBD@Z" PURGE="8" COMMENT="" />
    <EXPORT ORDINAL="694" NAME="?SetEmptyTrashOnExit@nsMsgIncomingServer@@UAGIH@Z" PURGE="8" COMMENT="" />
    <EXPORT ORDINAL="695" NAME="?SetErrorMessage@nsMsgMailNewsUrl@@UAGIPBD@Z" PURGE="8" COMMENT="" />
    <EXPORT ORDINAL="696" NAME="?SetFccFolder@nsMsgIdentity@@UAGIPBD@Z" PURGE="8" COMMENT="" />
    <EXPORT ORDINAL="697" NAME="?SetFccFolderPickerMode@nsMsgIdentity@@UAGIPBD@Z" PURGE="8" COMMENT="" />
    <EXPORT ORDINAL="698" NAME="?SetFileBaseName@nsMsgMailNewsUrl@@UAGIABVnsACString@@@Z" PURGE="8" COMMENT="" />
    <EXPORT ORDINAL="699" NAME="?SetFileExtension@nsMsgMailNewsUrl@@UAGIABVnsACString@@@Z" PURGE="8" COMMENT="" />
    <EXPORT ORDINAL="700" NAME="?SetFileName@nsMsgMailNewsUrl@@UAGIABVnsACString@@@Z" PURGE="8" COMMENT="" />
    <EXPORT ORDINAL="701" NAME="?SetFileOffset@nsMsgGroupRecord@@QAEHH@Z" PURGE="4" COMMENT="" />
    <EXPORT ORDINAL="702" NAME="?SetFilePath@nsMsgMailNewsUrl@@UAGIABVnsACString@@@Z" PURGE="8" COMMENT="" />
    <EXPORT ORDINAL="703" NAME="?SetFileValue@nsMsgIncomingServer@@UAGIPBDPAVnsIFileSpec@@@Z" PURGE="12" COMMENT="" />
    <EXPORT ORDINAL="704" NAME="?SetFilterList@nsMsgIncomingServer@@UAGIPAVnsIMsgFilterList@@@Z" PURGE="8" COMMENT="" />
    <EXPORT ORDINAL="705" NAME="?SetFlag@nsMsgDBFolder@@UAGII@Z" PURGE="8" COMMENT="" />
    <EXPORT ORDINAL="706" NAME="?SetFlag@nsMsgFolder@@UAGII@Z" PURGE="8" COMMENT="" />
    <EXPORT ORDINAL="707" NAME="?SetFlag@nsMsgProtocol@@UAEXI@Z" PURGE="4" COMMENT="" />
    <EXPORT ORDINAL="708" NAME="?SetFlags@nsMsgFolder@@UAGII@Z" PURGE="8" COMMENT="" />
    <EXPORT ORDINAL="709" NAME="?SetFolderName@nsLocalFolderSummarySpec@@QAEXPBD@Z" PURGE="4" COMMENT="" />
    <EXPORT ORDINAL="710" NAME="?SetFolderName@nsNewsSummarySpec@@QAEXPBD@Z" PURGE="4" COMMENT="" />
    <EXPORT ORDINAL="711" NAME="?SetFullName@nsMsgIdentity@@UAGIPBG@Z" PURGE="8" COMMENT="" />
    <EXPORT ORDINAL="712" NAME="?SetGettingNewMessages@nsMsgDBFolder@@UAGIH@Z" PURGE="8" COMMENT="" />
    <EXPORT ORDINAL="713" NAME="?SetHasNewMessages@nsMsgDBFolder@@UAGIH@Z" PURGE="8" COMMENT="" />
    <EXPORT ORDINAL="714" NAME="?SetHasNewMessages@nsMsgFolder@@UAGIH@Z" PURGE="8" COMMENT="" />
    <EXPORT ORDINAL="715" NAME="?SetHost@nsMsgMailNewsUrl@@UAGIABVnsACString@@@Z" PURGE="8" COMMENT="" />
    <EXPORT ORDINAL="716" NAME="?SetHostName@nsMsgIncomingServer@@UAGIPBD@Z" PURGE="8" COMMENT="" />
    <EXPORT ORDINAL="717" NAME="?SetHostPort@nsMsgMailNewsUrl@@UAGIABVnsACString@@@Z" PURGE="8" COMMENT="" />
    <EXPORT ORDINAL="718" NAME="?SetIdentityName@nsMsgIdentity@@UAGIPBG@Z" PURGE="8" COMMENT="" />
    <EXPORT ORDINAL="719" NAME="?SetImageCacheSession@nsMsgMailNewsUrl@@UAGIPAVnsICacheSession@@@Z" PURGE="8" COMMENT="" />
    <EXPORT ORDINAL="720" NAME="?SetIntAttribute@nsMsgIdentity@@UAGIPBDH@Z" PURGE="12" COMMENT="" />
    <EXPORT ORDINAL="721" NAME="?SetIntAttribute@nsMsgIncomingServer@@UAGIPBDH@Z" PURGE="12" COMMENT="" />
    <EXPORT ORDINAL="722" NAME="?SetIntValue@nsMsgIncomingServer@@UAGIPBDH@Z" PURGE="12" COMMENT="" />
    <EXPORT ORDINAL="723" NAME="?SetIsCategoryContainer@nsMsgGroupRecord@@UAEHH@Z" PURGE="4" COMMENT="" />
    <EXPORT ORDINAL="724" NAME="?SetIsDescendentsLoaded@nsMsgGroupRecord@@QAEHH@Z" PURGE="4" COMMENT="" />
    <EXPORT ORDINAL="725" NAME="?SetIsExpanded@nsMsgGroupRecord@@QAEHH@Z" PURGE="4" COMMENT="" />
    <EXPORT ORDINAL="726" NAME="?SetIsGroup@nsMsgGroupRecord@@QAEHH@Z" PURGE="4" COMMENT="" />
    <EXPORT ORDINAL="727" NAME="?SetIsHTMLOKGroup@nsMsgGroupRecord@@QAEHH@Z" PURGE="4" COMMENT="" />
    <EXPORT ORDINAL="728" NAME="?SetIsHTMLOKTree@nsMsgGroupRecord@@QAEHH@Z" PURGE="4" COMMENT="" />
    <EXPORT ORDINAL="729" NAME="?SetIsSecure@nsMsgIncomingServer@@UAGIH@Z" PURGE="8" COMMENT="" />
    <EXPORT ORDINAL="730" NAME="?SetIsVirtual@nsMsgGroupRecord@@QAEIH@Z" PURGE="4" COMMENT="" />
    <EXPORT ORDINAL="731" NAME="?SetJunkMailFolder@nsMsgIdentity@@UAGIPBD@Z" PURGE="8" COMMENT="" />
    <EXPORT ORDINAL="732" NAME="?SetKey@nsMsgIdentity@@UAGIPBD@Z" PURGE="8" COMMENT="" />
    <EXPORT ORDINAL="733" NAME="?SetKey@nsMsgIncomingServer@@UAGIPBD@Z" PURGE="8" COMMENT="" />
    <EXPORT ORDINAL="734" NAME="?SetLastMember@nsMsgKeySet@@QAEXH@Z" PURGE="4" COMMENT="" />
    <EXPORT ORDINAL="735" NAME="?SetLimitOfflineMessageSize@nsMsgIncomingServer@@UAGIH@Z" PURGE="8" COMMENT="" />
    <EXPORT ORDINAL="736" NAME="?SetLoadFlags@nsMsgProtocol@@UAGII@Z" PURGE="8" COMMENT="" />
    <EXPORT ORDINAL="737" NAME="?SetLoadGroup@nsMsgProtocol@@UAGIPAVnsILoadGroup@@@Z" PURGE="8" COMMENT="" />
    <EXPORT ORDINAL="738" NAME="?SetLocalPath@nsMsgIncomingServer@@UAGIPAVnsIFileSpec@@@Z" PURGE="8" COMMENT="" />
    <EXPORT ORDINAL="739" NAME="?SetLoginAtStartUp@nsMsgIncomingServer@@UAGIH@Z" PURGE="8" COMMENT="" />
    <EXPORT ORDINAL="740" NAME="?SetLookingForCRLF@nsMsgLineBuffer@@IAEXH@Z" PURGE="4" COMMENT="" />
    <EXPORT ORDINAL="741" NAME="?SetMaxMessageSize@nsMsgIncomingServer@@UAGIH@Z" PURGE="8" COMMENT="" />
    <EXPORT ORDINAL="742" NAME="?SetMemCacheEntry@nsMsgMailNewsUrl@@UAGIPAVnsICacheEntryDescriptor@@@Z" PURGE="8" COMMENT="" />
    <EXPORT ORDINAL="743" NAME="?SetMimeHeaders@nsMsgMailNewsUrl@@UAGIPAVnsIMimeHeaders@@@Z" PURGE="8" COMMENT="" />
    <EXPORT ORDINAL="744" NAME="?SetMsgDatabase@nsMsgDBFolder@@UAGIPAVnsIMsgDatabase@@@Z" PURGE="8" COMMENT="" />
    <EXPORT ORDINAL="745" NAME="?SetMsgIsInLocalCache@nsMsgMailNewsUrl@@UAGIH@Z" PURGE="8" COMMENT="" />
    <EXPORT ORDINAL="746" NAME="?SetMsgWindow@nsMsgMailNewsUrl@@UAGIPAVnsIMsgWindow@@@Z" PURGE="8" COMMENT="" />
    <EXPORT ORDINAL="747" NAME="?SetMsgWindow@nsMsgTxn@@UAGIPAVnsIMsgWindow@@@Z" PURGE="8" COMMENT="" />
    <EXPORT ORDINAL="748" NAME="?SetName@nsMsgFolder@@UAGIPBG@Z" PURGE="8" COMMENT="" />
    <EXPORT ORDINAL="749" NAME="?SetNeedsExtraInfo@nsMsgGroupRecord@@QAEHH@Z" PURGE="4" COMMENT="" />
    <EXPORT ORDINAL="750" NAME="?SetNotificationCallbacks@nsMsgProtocol@@UAGIPAVnsIInterfaceRequestor@@@Z" PURGE="8" COMMENT="" />
    <EXPORT ORDINAL="751" NAME="?SetNumNewMessages@nsMsgFolder@@UAGIH@Z" PURGE="8" COMMENT="" />
    <EXPORT ORDINAL="752" NAME="?SetOfflineSupportLevel@nsMsgIncomingServer@@UAGIH@Z" PURGE="8" COMMENT="" />
    <EXPORT ORDINAL="753" NAME="?SetOrganization@nsMsgIdentity@@UAGIPBG@Z" PURGE="8" COMMENT="" />
    <EXPORT ORDINAL="754" NAME="?SetOriginalURI@nsMsgProtocol@@UAGIPAVnsIURI@@@Z" PURGE="8" COMMENT="" />
    <EXPORT ORDINAL="755" NAME="?SetOverrideGlobalPref@nsMsgIdentity@@UAGIH@Z" PURGE="8" COMMENT="" />
    <EXPORT ORDINAL="756" NAME="?SetOwner@nsMsgProtocol@@UAGIPAVnsISupports@@@Z" PURGE="8" COMMENT="" />
    <EXPORT ORDINAL="757" NAME="?SetParam@nsMsgMailNewsUrl@@UAGIABVnsACString@@@Z" PURGE="8" COMMENT="" />
    <EXPORT ORDINAL="758" NAME="?SetParent@nsMsgFolder@@UAGIPAVnsIFolder@@@Z" PURGE="8" COMMENT="" />
    <EXPORT ORDINAL="759" NAME="?SetPassword@nsMsgIncomingServer@@UAGIPBD@Z" PURGE="8" COMMENT="" />
    <EXPORT ORDINAL="760" NAME="?SetPassword@nsMsgMailNewsUrl@@UAGIABVnsACString@@@Z" PURGE="8" COMMENT="" />
    <EXPORT ORDINAL="761" NAME="?SetPath@nsMsgFolder@@UAGIPAVnsIFileSpec@@@Z" PURGE="8" COMMENT="" />
    <EXPORT ORDINAL="762" NAME="?SetPath@nsMsgMailNewsUrl@@UAGIABVnsACString@@@Z" PURGE="8" COMMENT="" />
    <EXPORT ORDINAL="763" NAME="?SetPerformingBiff@nsMsgIncomingServer@@UAGIH@Z" PURGE="8" COMMENT="" />
    <EXPORT ORDINAL="764" NAME="?SetPort@nsMsgIncomingServer@@UAGIH@Z" PURGE="8" COMMENT="" />
    <EXPORT ORDINAL="765" NAME="?SetPort@nsMsgMailNewsUrl@@UAGIH@Z" PURGE="8" COMMENT="" />
    <EXPORT ORDINAL="766" NAME="?SetPrefFlag@nsMsgFolder@@UAGIXZ" PURGE="4" COMMENT="" />
    <EXPORT ORDINAL="767" NAME="?SetPrefPassword@nsMsgIncomingServer@@MAGIPBD@Z" PURGE="8" COMMENT="" />
    <EXPORT ORDINAL="768" NAME="?SetPrettyName@nsMsgFolder@@UAGIPBG@Z" PURGE="8" COMMENT="" />
    <EXPORT ORDINAL="769" NAME="?SetPrettyName@nsMsgGroupRecord@@QAEHPBD@Z" PURGE="4" COMMENT="" />
    <EXPORT ORDINAL="770" NAME="?SetPrettyName@nsMsgIncomingServer@@UAGIPBG@Z" PURGE="8" COMMENT="" />
    <EXPORT ORDINAL="771" NAME="?SetQuery@nsMsgMailNewsUrl@@UAGIABVnsACString@@@Z" PURGE="8" COMMENT="" />
    <EXPORT ORDINAL="772" NAME="?SetRealHostName@nsMsgIncomingServer@@UAGIPBD@Z" PURGE="8" COMMENT="" />
    <EXPORT ORDINAL="773" NAME="?SetRealUsername@nsMsgIncomingServer@@UAGIPBD@Z" PURGE="8" COMMENT="" />
    <EXPORT ORDINAL="774" NAME="?SetRedirectorType@nsMsgIncomingServer@@UAGIPBD@Z" PURGE="8" COMMENT="" />
    <EXPORT ORDINAL="775" NAME="?SetRef@nsMsgMailNewsUrl@@UAGIABVnsACString@@@Z" PURGE="8" COMMENT="" />
    <EXPORT ORDINAL="776" NAME="?SetRememberPassword@nsMsgIncomingServer@@UAGIH@Z" PURGE="8" COMMENT="" />
    <EXPORT ORDINAL="777" NAME="?SetReplyTo@nsMsgIdentity@@UAGIPBD@Z" PURGE="8" COMMENT="" />
    <EXPORT ORDINAL="778" NAME="?SetRetentionSettings@nsMsgDBFolder@@UAGIPAVnsIMsgRetentionSettings@@@Z" PURGE="8" COMMENT="" />
    <EXPORT ORDINAL="779" NAME="?SetRetentionSettings@nsMsgIncomingServer@@UAGIPAVnsIMsgRetentionSettings@@@Z" PURGE="8" COMMENT="" />
    <EXPORT ORDINAL="780" NAME="?SetRootFolder@nsMsgIncomingServer@@UAGIPAVnsIFolder@@@Z" PURGE="8" COMMENT="" />
    <EXPORT ORDINAL="781" NAME="?SetScheme@nsMsgMailNewsUrl@@UAGIABVnsACString@@@Z" PURGE="8" COMMENT="" />
    <EXPORT ORDINAL="782" NAME="?SetSearchSession@nsMsgMailNewsUrl@@UAGIPAVnsIMsgSearchSession@@@Z" PURGE="8" COMMENT="" />
    <EXPORT ORDINAL="783" NAME="?SetServerBusy@nsMsgIncomingServer@@UAGIH@Z" PURGE="8" COMMENT="" />
    <EXPORT ORDINAL="784" NAME="?SetShowSaveMsgDlg@nsMsgIdentity@@UAGIH@Z" PURGE="8" COMMENT="" />
    <EXPORT ORDINAL="785" NAME="?SetSignature@nsMsgIdentity@@UAGIPAVnsILocalFile@@@Z" PURGE="8" COMMENT="" />
    <EXPORT ORDINAL="786" NAME="?SetSignatureDate@nsMsgIdentity@@UAGIH@Z" PURGE="8" COMMENT="" />
    <EXPORT ORDINAL="787" NAME="?SetSize@nsUInt32Array@@QAEHIHI@Z" PURGE="12" COMMENT="" />
    <EXPORT ORDINAL="788" NAME="?SetSize@nsUint8Array@@QAEXHH@Z" PURGE="8" COMMENT="" />
    <EXPORT ORDINAL="789" NAME="?SetSmtpServerKey@nsMsgIdentity@@UAGIPBD@Z" PURGE="8" COMMENT="" />
    <EXPORT ORDINAL="790" NAME="?SetSortOrder@nsMsgFolder@@UAGIH@Z" PURGE="8" COMMENT="" />
    <EXPORT ORDINAL="791" NAME="?SetSpec@nsMsgMailNewsUrl@@UAGIABVnsACString@@@Z" PURGE="8" COMMENT="" />
    <EXPORT ORDINAL="792" NAME="?SetStationeryFolder@nsMsgIdentity@@UAGIPBD@Z" PURGE="8" COMMENT="" />
    <EXPORT ORDINAL="793" NAME="?SetStatusFeedback@nsMsgMailNewsUrl@@UAGIPAVnsIMsgStatusFeedback@@@Z" PURGE="8" COMMENT="" />
    <EXPORT ORDINAL="794" NAME="?SetSuppressErrorMsgs@nsMsgMailNewsUrl@@UAGIH@Z" PURGE="8" COMMENT="" />
    <EXPORT ORDINAL="795" NAME="?SetTmplFolderPickerMode@nsMsgIdentity@@UAGIPBD@Z" PURGE="8" COMMENT="" />
    <EXPORT ORDINAL="796" NAME="?SetTransactionType@nsMsgTxn@@UAGII@Z" PURGE="8" COMMENT="" />
    <EXPORT ORDINAL="797" NAME="?SetType@nsMsgIncomingServer@@UAGIPBD@Z" PURGE="8" COMMENT="" />
    <EXPORT ORDINAL="798" NAME="?SetUnicharAttribute@nsMsgIdentity@@UAGIPBDPBG@Z" PURGE="12" COMMENT="" />
    <EXPORT ORDINAL="799" NAME="?SetUnicharAttribute@nsMsgIncomingServer@@UAGIPBDPBG@Z" PURGE="12" COMMENT="" />
    <EXPORT ORDINAL="800" NAME="?SetUnicharValue@nsMsgIncomingServer@@UAGIPBDPBG@Z" PURGE="12" COMMENT="" />
    <EXPORT ORDINAL="801" NAME="?SetUpdatingFolder@nsMsgMailNewsUrl@@UAGIH@Z" PURGE="8" COMMENT="" />
    <EXPORT ORDINAL="802" NAME="?SetUrl@nsMsgProtocol@@UAEIPAVnsIURI@@@Z" PURGE="4" COMMENT="" />
    <EXPORT ORDINAL="803" NAME="?SetUrlState@nsMsgMailNewsUrl@@UAGIHI@Z" PURGE="12" COMMENT="" />
    <EXPORT ORDINAL="804" NAME="?SetUserPass@nsMsgMailNewsUrl@@UAGIABVnsACString@@@Z" PURGE="8" COMMENT="" />
    <EXPORT ORDINAL="805" NAME="?SetUsername@nsMsgIncomingServer@@UAGIPBD@Z" PURGE="8" COMMENT="" />
    <EXPORT ORDINAL="806" NAME="?SetUsername@nsMsgMailNewsUrl@@UAGIABVnsACString@@@Z" PURGE="8" COMMENT="" />
    <EXPORT ORDINAL="807" NAME="?SetVCard@nsMsgIdentity@@UAGIPAVnsIMsgVCard@@@Z" PURGE="8" COMMENT="" />
    <EXPORT ORDINAL="808" NAME="?SetValid@nsMsgIdentity@@UAGIH@Z" PURGE="8" COMMENT="" />
    <EXPORT ORDINAL="809" NAME="?SetValid@nsMsgIncomingServer@@UAGIH@Z" PURGE="8" COMMENT="" />
    <EXPORT ORDINAL="810" NAME="?SetWarnFilterChanged@nsMsgFolder@@IAEIH@Z" PURGE="4" COMMENT="" />
    <EXPORT ORDINAL="811" NAME="?SetupTransportState@nsMsgAsyncWriteProtocol@@UAEIXZ" PURGE="0" COMMENT="" />
    <EXPORT ORDINAL="812" NAME="?SetupTransportState@nsMsgProtocol@@MAEIXZ" PURGE="0" COMMENT="" />
    <EXPORT ORDINAL="813" NAME="?ShouldStoreMsgOffline@nsMsgDBFolder@@UAGIIPAH@Z" PURGE="12" COMMENT="" />
    <EXPORT ORDINAL="814" NAME="?Shutdown@nsMsgDBFolder@@UAGIH@Z" PURGE="8" COMMENT="" />
    <EXPORT ORDINAL="815" NAME="?Shutdown@nsMsgFolder@@UAGIH@Z" PURGE="8" COMMENT="" />
    <EXPORT ORDINAL="816" NAME="?StartFolderLoading@nsMsgDBFolder@@UAGIXZ" PURGE="4" COMMENT="" />
    <EXPORT ORDINAL="817" NAME="?StartFolderLoading@nsMsgFolder@@UAGIXZ" PURGE="4" COMMENT="" />
    <EXPORT ORDINAL="818" NAME="?StartNewOfflineMessage@nsMsgDBFolder@@IAEIXZ" PURGE="0" COMMENT="" />
    <EXPORT ORDINAL="819" NAME="?StorePassword@nsMsgIncomingServer@@IAEIXZ" PURGE="0" COMMENT="" />
    <EXPORT ORDINAL="820" NAME="?SuckInName@nsMsgGroupRecord@@IAEPADPAD@Z" PURGE="4" COMMENT="" />
    <EXPORT ORDINAL="821" NAME="?SummaryChanged@nsMsgFolder@@UAGIXZ" PURGE="4" COMMENT="" />
    <EXPORT ORDINAL="822" NAME="?Suspend@nsMsgProtocol@@UAGIXZ" PURGE="4" COMMENT="" />
    <EXPORT ORDINAL="823" NAME="?SuspendPostFileRead@nsMsgAsyncWriteProtocol@@QAEIXZ" PURGE="0" COMMENT="" />
    <EXPORT ORDINAL="824" NAME="?TestFlag@nsMsgProtocol@@UAEHI@Z" PURGE="4" COMMENT="" />
    <EXPORT ORDINAL="825" NAME="?TestSemaphore@nsMsgFolder@@UAGIPAVnsISupports@@PAH@Z" PURGE="12" COMMENT="" />
    <EXPORT ORDINAL="826" NAME="?ThrowAlertMsg@nsMsgFolder@@UAGIPBDPAVnsIMsgWindow@@@Z" PURGE="12" COMMENT="" />
    <EXPORT ORDINAL="827" NAME="?ThrowConfirmationPrompt@nsMsgFolder@@IAEIPAVnsIMsgWindow@@PBGPAH@Z" PURGE="12" COMMENT="" />
    <EXPORT ORDINAL="828" NAME="?ToString@nsMsgIdentity@@UAGIPAPAG@Z" PURGE="8" COMMENT="" />
    <EXPORT ORDINAL="829" NAME="?ToString@nsMsgIncomingServer@@UAGIPAPAG@Z" PURGE="8" COMMENT="" />
    <EXPORT ORDINAL="830" NAME="?ToggleFlag@nsMsgFolder@@UAGII@Z" PURGE="8" COMMENT="" />
    <EXPORT ORDINAL="831" NAME="?TweakFlag@nsMsgGroupRecord@@IAEHIH@Z" PURGE="8" COMMENT="" />
    <EXPORT ORDINAL="832" NAME="?UnRegisterListener@nsMsgMailNewsUrl@@UAGIPAVnsIUrlListener@@@Z" PURGE="8" COMMENT="" />
    <EXPORT ORDINAL="833" NAME="?UnblockPostReader@nsMsgAsyncWriteProtocol@@QAEIXZ" PURGE="0" COMMENT="" />
    <EXPORT ORDINAL="834" NAME="?UpdateFolder@nsMsgFolder@@UAGIPAVnsIMsgWindow@@@Z" PURGE="8" COMMENT="" />
    <EXPORT ORDINAL="835" NAME="?UpdateProgress@nsMsgAsyncWriteProtocol@@QAEXI@Z" PURGE="4" COMMENT="" />
    <EXPORT ORDINAL="836" NAME="?UpdateSummaryTotals@nsMsgFolder@@UAGIH@Z" PURGE="8" COMMENT="" />
    <EXPORT ORDINAL="837" NAME="?UpdateSuspendedReadBytes@nsMsgAsyncWriteProtocol@@QAEIIH@Z" PURGE="8" COMMENT="" />
    <EXPORT ORDINAL="838" NAME="?UserNeedsToAuthenticateForFolder@nsMsgFolder@@UAGIHPAH@Z" PURGE="12" COMMENT="" />
    <EXPORT ORDINAL="839" NAME="?WeAreOffline@@YAHXZ" PURGE="0" COMMENT="" />
    <EXPORT ORDINAL="840" NAME="?Write@nsMsgFolder@@UAGIPAVnsIObjectOutputStream@@@Z" PURGE="8" COMMENT="" />
    <EXPORT ORDINAL="841" NAME="?WriteStartOfNewLocalMessage@nsMsgDBFolder@@IAEIXZ" PURGE="0" COMMENT="" />
    <EXPORT ORDINAL="842" NAME="?WriteToFolderCache@nsMsgDBFolder@@UAGIPAVnsIMsgFolderCache@@H@Z" PURGE="12" COMMENT="" />
    <EXPORT ORDINAL="843" NAME="?WriteToFolderCache@nsMsgIncomingServer@@UAGIPAVnsIMsgFolderCache@@@Z" PURGE="8" COMMENT="" />
    <EXPORT ORDINAL="844" NAME="?WriteToFolderCacheElem@nsMsgDBFolder@@UAGIPAVnsIMsgFolderCacheElement@@@Z" PURGE="8" COMMENT="" />
    <EXPORT ORDINAL="845" NAME="?clearPrefEnum@nsMsgIdentity@@CAXPBDPAX@Z" PURGE="0" COMMENT="" />
    <EXPORT ORDINAL="846" NAME="?clearPrefEnum@nsMsgIncomingServer@@KAXPBDPAX@Z" PURGE="0" COMMENT="" />
    <EXPORT ORDINAL="847" NAME="?createCollationKeyGenerator@nsMsgFolder@@KAIXZ" PURGE="0" COMMENT="" />
    <EXPORT ORDINAL="848" NAME="?gInstanceCount@nsMsgFolder@@1KA" PURGE="-1" COMMENT="" />
    <EXPORT ORDINAL="849" NAME="?getBoolPref@nsMsgIdentity@@IAEIPBDPAH@Z" PURGE="8" COMMENT="" />
    <EXPORT ORDINAL="850" NAME="?getCharPref@nsMsgIdentity@@IAEIPBDPAPAD@Z" PURGE="8" COMMENT="" />
    <EXPORT ORDINAL="851" NAME="?getDefaultBoolPref@nsMsgIdentity@@IAEIPBDPAH@Z" PURGE="8" COMMENT="" />
    <EXPORT ORDINAL="852" NAME="?getDefaultBoolPref@nsMsgIncomingServer@@IAEIPBDPAH@Z" PURGE="8" COMMENT="" />
    <EXPORT ORDINAL="853" NAME="?getDefaultCharPref@nsMsgIdentity@@IAEIPBDPAPAD@Z" PURGE="8" COMMENT="" />
    <EXPORT ORDINAL="854" NAME="?getDefaultCharPref@nsMsgIncomingServer@@IAEIPBDPAPAD@Z" PURGE="8" COMMENT="" />
    <EXPORT ORDINAL="855" NAME="?getDefaultIntPref@nsMsgIdentity@@IAEIPBDPAH@Z" PURGE="8" COMMENT="" />
    <EXPORT ORDINAL="856" NAME="?getDefaultIntPref@nsMsgIncomingServer@@IAEIPBDPAH@Z" PURGE="8" COMMENT="" />
    <EXPORT ORDINAL="857" NAME="?getDefaultPrefName@nsMsgIdentity@@IAEPADPBD@Z" PURGE="4" COMMENT="" />
    <EXPORT ORDINAL="858" NAME="?getDefaultPrefName@nsMsgIncomingServer@@IAEXPBDAAVnsCString@@@Z" PURGE="8" COMMENT="" />
    <EXPORT ORDINAL="859" NAME="?getDefaultUnicharPref@nsMsgIdentity@@IAEIPBDPAPAG@Z" PURGE="8" COMMENT="" />
    <EXPORT ORDINAL="860" NAME="?getDefaultUnicharPref@nsMsgIncomingServer@@IAEIPBDPAPAG@Z" PURGE="8" COMMENT="" />
    <EXPORT ORDINAL="861" NAME="?getFolderPref@nsMsgIdentity@@IAEIPBDPAPADH@Z" PURGE="12" COMMENT="" />
    <EXPORT ORDINAL="862" NAME="?getIntPref@nsMsgIdentity@@IAEIPBDPAH@Z" PURGE="8" COMMENT="" />
    <EXPORT ORDINAL="863" NAME="?getLength@nsMsgKeySet@@QAEHXZ" PURGE="0" COMMENT="" />
    <EXPORT ORDINAL="864" NAME="?getPrefName@nsMsgIdentity@@IAEPADPBD0@Z" PURGE="8" COMMENT="" />
    <EXPORT ORDINAL="865" NAME="?getPrefName@nsMsgIncomingServer@@IAEXPBD0AAVnsCString@@@Z" PURGE="12" COMMENT="" />
    <EXPORT ORDINAL="866" NAME="?getPrefService@nsMsgIdentity@@IAEIXZ" PURGE="0" COMMENT="" />
    <EXPORT ORDINAL="867" NAME="?getProtocolInfo@nsMsgIncomingServer@@IAEIPAPAVnsIMsgProtocolInfo@@@Z" PURGE="4" COMMENT="" />
    <EXPORT ORDINAL="868" NAME="?getUnicharPref@nsMsgIdentity@@IAEIPBDPAPAG@Z" PURGE="8" COMMENT="" />
    <EXPORT ORDINAL="869" NAME="?initializeStrings@nsMsgFolder@@KAIXZ" PURGE="0" COMMENT="" />
    <EXPORT ORDINAL="870" NAME="?kBiffStateAtom@nsMsgFolder@@1PAVnsIAtom@@A" PURGE="-1" COMMENT="" />
    <EXPORT ORDINAL="871" NAME="?kCollationKeyGenerator@nsMsgFolder@@1PAVnsICollation@@A" PURGE="-1" COMMENT="" />
    <EXPORT ORDINAL="872" NAME="?kFlaggedAtom@nsMsgFolder@@1PAVnsIAtom@@A" PURGE="-1" COMMENT="" />
    <EXPORT ORDINAL="873" NAME="?kLocalizedDraftsName@nsMsgFolder@@1PAGA" PURGE="-1" COMMENT="" />
    <EXPORT ORDINAL="874" NAME="?kLocalizedInboxName@nsMsgFolder@@1PAGA" PURGE="-1" COMMENT="" />
    <EXPORT ORDINAL="875" NAME="?kLocalizedSentName@nsMsgFolder@@1PAGA" PURGE="-1" COMMENT="" />
    <EXPORT ORDINAL="876" NAME="?kLocalizedTemplatesName@nsMsgFolder@@1PAGA" PURGE="-1" COMMENT="" />
    <EXPORT ORDINAL="877" NAME="?kLocalizedTrashName@nsMsgFolder@@1PAGA" PURGE="-1" COMMENT="" />
    <EXPORT ORDINAL="878" NAME="?kLocalizedUnsentName@nsMsgFolder@@1PAGA" PURGE="-1" COMMENT="" />
    <EXPORT ORDINAL="879" NAME="?kNameAtom@nsMsgFolder@@1PAVnsIAtom@@A" PURGE="-1" COMMENT="" />
    <EXPORT ORDINAL="880" NAME="?kNewMessagesAtom@nsMsgFolder@@1PAVnsIAtom@@A" PURGE="-1" COMMENT="" />
    <EXPORT ORDINAL="881" NAME="?kNumNewBiffMessagesAtom@nsMsgFolder@@1PAVnsIAtom@@A" PURGE="-1" COMMENT="" />
    <EXPORT ORDINAL="882" NAME="?kOpenAtom@nsMsgFolder@@1PAVnsIAtom@@A" PURGE="-1" COMMENT="" />
    <EXPORT ORDINAL="883" NAME="?kStatusAtom@nsMsgFolder@@1PAVnsIAtom@@A" PURGE="-1" COMMENT="" />
    <EXPORT ORDINAL="884" NAME="?kSynchronizeAtom@nsMsgFolder@@1PAVnsIAtom@@A" PURGE="-1" COMMENT="" />
    <EXPORT ORDINAL="885" NAME="?kTotalMessagesAtom@nsMsgFolder@@1PAVnsIAtom@@A" PURGE="-1" COMMENT="" />
    <EXPORT ORDINAL="886" NAME="?kTotalUnreadMessagesAtom@nsMsgFolder@@1PAVnsIAtom@@A" PURGE="-1" COMMENT="" />
    <EXPORT ORDINAL="887" NAME="?mDeleteOrMoveMsgCompletedAtom@nsMsgDBFolder@@1PAVnsIAtom@@A" PURGE="-1" COMMENT="" />
    <EXPORT ORDINAL="888" NAME="?mDeleteOrMoveMsgFailedAtom@nsMsgDBFolder@@1PAVnsIAtom@@A" PURGE="-1" COMMENT="" />
    <EXPORT ORDINAL="889" NAME="?mFolderLoadedAtom@nsMsgDBFolder@@1PAVnsIAtom@@A" PURGE="-1" COMMENT="" />
    <EXPORT ORDINAL="890" NAME="?mInstanceCount@nsMsgDBFolder@@1KA" PURGE="-1" COMMENT="" />
    <EXPORT ORDINAL="891" NAME="?msgCompHeaderInternalCharset@@YAPBDXZ" PURGE="0" COMMENT="" />
    <EXPORT ORDINAL="892" NAME="?nsGetMailFolderSeparator@@YAIAAVnsString@@@Z" PURGE="0" COMMENT="" />
    <EXPORT ORDINAL="893" NAME="?nsMsgGetNativePathString@@YAXPBDAAVnsString@@@Z" PURGE="0" COMMENT="" />
    <EXPORT ORDINAL="894" NAME="?nsMsgI18N7bit_data_part@@YAHPBD0I@Z" PURGE="0" COMMENT="" />
    <EXPORT ORDINAL="895" NAME="?nsMsgI18NConvertFromUnicode@@YAIABVnsCString@@ABVnsString@@AAV1@@Z" PURGE="0" COMMENT="" />
    <EXPORT ORDINAL="896" NAME="?nsMsgI18NConvertToEntity@@YAIABVnsString@@PAV1@@Z" PURGE="0" COMMENT="" />
    <EXPORT ORDINAL="897" NAME="?nsMsgI18NConvertToUnicode@@YAIABVnsCString@@0AAVnsString@@@Z" PURGE="0" COMMENT="" />
    <EXPORT ORDINAL="898" NAME="?nsMsgI18NEncodeMimePartIIStr@@YAPADPBDH0HH@Z" PURGE="0" COMMENT="" />
    <EXPORT ORDINAL="899" NAME="?nsMsgI18NFileSystemCharset@@YAPBDXZ" PURGE="0" COMMENT="" />
    <EXPORT ORDINAL="900" NAME="?nsMsgI18NFormatNNTPXPATInNonRFC1522Format@@YAIABVnsCString@@ABVnsString@@AAV1@@Z" PURGE="0" COMMENT="" />
    <EXPORT ORDINAL="901" NAME="?nsMsgI18NGetAcceptLanguage@@YAPADXZ" PURGE="0" COMMENT="" />
    <EXPORT ORDINAL="902" NAME="?nsMsgI18NParseMetaCharset@@YAPBDPAVnsFileSpec@@@Z" PURGE="0" COMMENT="" />
    <EXPORT ORDINAL="903" NAME="?nsMsgI18NSaveAsCharset@@YAIPBD0PBGPAPAD@Z" PURGE="0" COMMENT="" />
    <EXPORT ORDINAL="904" NAME="?nsMsgI18Ncheck_data_in_charset_range@@YAHPBDPBG@Z" PURGE="0" COMMENT="" />
    <EXPORT ORDINAL="905" NAME="?nsMsgI18Nmultibyte_charset@@YAHPBD@Z" PURGE="0" COMMENT="" />
    <EXPORT ORDINAL="906" NAME="?nsMsgI18Nstateful_charset@@YAHPBD@Z" PURGE="0" COMMENT="" />
    <EXPORT ORDINAL="907" NAME="?parseURI@nsMsgFolder@@IAEIH@Z" PURGE="4" COMMENT="" />
    <EXPORT ORDINAL="908" NAME="?setBoolPref@nsMsgIdentity@@IAEIPBDH@Z" PURGE="8" COMMENT="" />
    <EXPORT ORDINAL="909" NAME="?setCharPref@nsMsgIdentity@@IAEIPBD0@Z" PURGE="8" COMMENT="" />
    <EXPORT ORDINAL="910" NAME="?setFolderPref@nsMsgIdentity@@IAEIPBD0@Z" PURGE="8" COMMENT="" />
    <EXPORT ORDINAL="911" NAME="?setIntPref@nsMsgIdentity@@IAEIPBDH@Z" PURGE="8" COMMENT="" />
    <EXPORT ORDINAL="912" NAME="?setUnicharPref@nsMsgIdentity@@IAEIPBDPBG@Z" PURGE="8" COMMENT="" />
</LIBRARY>

