<?xml version="1.0" encoding="UTF-8"?>
<LIBRARY NAME="mspfctl0.dll" PATH="/DLLArchive/etc/mspfctl0.dll" DATE="Fri Jul 03 12:59:37 PDT 2020" VERSION="11.00.0716">
    <EXPORT ORDINAL="1" NAME="??0CDIBitmap@@QAE@XZ" PURGE="0" COMMENT="" />
    <EXPORT ORDINAL="2" NAME="??0CRawDIBitmap@@QAE@XZ" PURGE="0" COMMENT="" />
    <EXPORT ORDINAL="3" NAME="??0CSRManager@@QAE@XZ" PURGE="0" COMMENT="" />
    <EXPORT ORDINAL="4" NAME="??0CTaskList@@QAE@ABV0@@Z" PURGE="4" COMMENT="" />
    <EXPORT ORDINAL="5" NAME="??0CTaskList@@QAE@XZ" PURGE="0" COMMENT="" />
    <EXPORT ORDINAL="6" NAME="??0CTaskPopupMenu@@QAE@ABV0@@Z" PURGE="4" COMMENT="" />
    <EXPORT ORDINAL="7" NAME="??0CTaskPopupMenu@@QAE@XZ" PURGE="0" COMMENT="" />
    <EXPORT ORDINAL="8" NAME="??1CDIBitmap@@QAE@XZ" PURGE="0" COMMENT="" />
    <EXPORT ORDINAL="9" NAME="??1CRawDIBitmap@@QAE@XZ" PURGE="0" COMMENT="" />
    <EXPORT ORDINAL="10" NAME="??1CTaskList@@UAE@XZ" PURGE="0" COMMENT="" />
    <EXPORT ORDINAL="11" NAME="??1CTaskPopupMenu@@QAE@XZ" PURGE="0" COMMENT="" />
    <EXPORT ORDINAL="12" NAME="??2CDIBitmap@@SAPAXI@Z" PURGE="0" COMMENT="" />
    <EXPORT ORDINAL="13" NAME="??2CRawDIBitmap@@SAPAXI@Z" PURGE="0" COMMENT="" />
    <EXPORT ORDINAL="14" NAME="??3CDIBitmap@@SAXPAX@Z" PURGE="0" COMMENT="" />
    <EXPORT ORDINAL="15" NAME="??3CRawDIBitmap@@SAXPAX@Z" PURGE="0" COMMENT="" />
    <EXPORT ORDINAL="16" NAME="??4CDIBitmap@@QAEAAV0@AAV0@@Z" PURGE="4" COMMENT="" />
    <EXPORT ORDINAL="17" NAME="??4CRawDIBitmap@@QAEXAAV0@@Z" PURGE="4" COMMENT="" />
    <EXPORT ORDINAL="18" NAME="??4CSRManager@@QAEAAV0@ABV0@@Z" PURGE="4" COMMENT="" />
    <EXPORT ORDINAL="19" NAME="??4CTaskList@@QAEAAV0@ABV0@@Z" PURGE="4" COMMENT="" />
    <EXPORT ORDINAL="20" NAME="??4CTaskPopupMenu@@QAEAAV0@ABV0@@Z" PURGE="4" COMMENT="" />
    <EXPORT ORDINAL="21" NAME="??_7CTaskList@@6B@" PURGE="-1" COMMENT="" />
    <EXPORT ORDINAL="22" NAME="??_7CTaskPopupMenu@@6B@" PURGE="-1" COMMENT="" />
    <EXPORT ORDINAL="23" NAME="??_C@_0BD@IOHL@ClassMoneyTaskList?$AA@" PURGE="32" COMMENT="" />
    <EXPORT ORDINAL="24" NAME="?ActivateAllCmds@CSRManager@@QAEXPAUHWND__@@H@Z" PURGE="8" COMMENT="" />
    <EXPORT ORDINAL="25" NAME="?AddCmds@CSRManager@@QAEXQAUSPItem@@H@Z" PURGE="8" COMMENT="" />
    <EXPORT ORDINAL="26" NAME="?CoRgbLowerLeftCornerGet@CDIBitmap@@QAEKXZ" PURGE="0" COMMENT="" />
    <EXPORT ORDINAL="27" NAME="?CreateBitmapFromDib@CDIBitmap@@IAEXPAVCRawDIBitmap@@@Z" PURGE="4" COMMENT="" />
    <EXPORT ORDINAL="28" NAME="?CtskGet@CTaskList@@QAEKXZ" PURGE="0" COMMENT="" />
    <EXPORT ORDINAL="29" NAME="?DX@CRawDIBitmap@@QBEHXZ" PURGE="0" COMMENT="" />
    <EXPORT ORDINAL="30" NAME="?DY@CRawDIBitmap@@QBEHXZ" PURGE="0" COMMENT="" />
    <EXPORT ORDINAL="31" NAME="?Destroy@CTaskList@@QAEXXZ" PURGE="0" COMMENT="" />
    <EXPORT ORDINAL="32" NAME="?DoComboCmds@CSRManager@@SAXPAUHWND__@@G@Z" PURGE="0" COMMENT="" />
    <EXPORT ORDINAL="33" NAME="?Draw@CDIBitmap@@QAEXPAUHDC__@@HHI@Z" PURGE="16" COMMENT="" />
    <EXPORT ORDINAL="34" NAME="?DwGetFlags@CDIBitmap@@QBEKXZ" PURGE="0" COMMENT="" />
    <EXPORT ORDINAL="35" NAME="?DwPopupMenu@CTaskPopupMenu@@QAEKPBDPAUHMENU__@@IUtagPOINT@@PAUHWND__@@PAUHINSTANCE__@@PAUtagRECT@@3@Z" PURGE="36" COMMENT="" />
    <EXPORT ORDINAL="36" NAME="?DwTaskDataGet@CTaskList@@QAEKPAUTPOS__@@@Z" PURGE="4" COMMENT="" />
    <EXPORT ORDINAL="37" NAME="?DwTrackPopupMenu@CTaskList@@UAEKPAUHMENU__@@PAUtagPOINT@@PAUHWND__@@PAUtagTPMPARAMS@@@Z" PURGE="16" COMMENT="" />
    <EXPORT ORDINAL="38" NAME="?EndMenu@CTaskPopupMenu@@QAEXXZ" PURGE="0" COMMENT="" />
    <EXPORT ORDINAL="39" NAME="?F16Color@CRawDIBitmap@@QBEHXZ" PURGE="0" COMMENT="" />
    <EXPORT ORDINAL="40" NAME="?FAppendTask@CTaskList@@QAEHHPBDKPAUHMENU__@@@Z" PURGE="16" COMMENT="" />
    <EXPORT ORDINAL="41" NAME="?FAttach@CTaskList@@AAEHPAVCTaskListWnd@@@Z" PURGE="4" COMMENT="" />
    <EXPORT ORDINAL="42" NAME="?FAttach@CTaskList@@QAEHPAUHWND__@@@Z" PURGE="4" COMMENT="" />
    <EXPORT ORDINAL="43" NAME="?FChangeBitmap@CDIBitmap@@QAEHIK@Z" PURGE="8" COMMENT="" />
    <EXPORT ORDINAL="44" NAME="?FChangeBitmap@CDIBitmap@@QAEHQBDK@Z" PURGE="8" COMMENT="" />
    <EXPORT ORDINAL="45" NAME="?FChangeFlags@CDIBitmap@@QAEHK@Z" PURGE="4" COMMENT="" />
    <EXPORT ORDINAL="46" NAME="?FClickTask@CTaskList@@QAEHK@Z" PURGE="4" COMMENT="" />
    <EXPORT ORDINAL="47" NAME="?FCreatePalette@CDIBitmap@@QAEHXZ" PURGE="0" COMMENT="" />
    <EXPORT ORDINAL="48" NAME="?FDetach@CTaskList@@QAEHXZ" PURGE="0" COMMENT="" />
    <EXPORT ORDINAL="49" NAME="?FDisplayCmds@CSRManager@@QBEHXZ" PURGE="0" COMMENT="" />
    <EXPORT ORDINAL="50" NAME="?FEnableTask@CTaskList@@QAEHKH@Z" PURGE="8" COMMENT="" />
    <EXPORT ORDINAL="51" NAME="?FGetAutoHideHeaders@CTaskList@@QAEHXZ" PURGE="0" COMMENT="" />
    <EXPORT ORDINAL="52" NAME="?FGetConstructionMode@CTaskList@@QAEHXZ" PURGE="0" COMMENT="" />
    <EXPORT ORDINAL="53" NAME="?FGetDts@CTaskList@@QAEHPAUTPOS__@@PAUDRAWTASKSTRUCT_tag@@@Z" PURGE="8" COMMENT="" />
    <EXPORT ORDINAL="54" NAME="?FGetTaskRect@CTaskList@@QAEHPAUTPOS__@@PAUtagRECT@@@Z" PURGE="8" COMMENT="" />
    <EXPORT ORDINAL="55" NAME="?FGetTaskString@CTaskList@@QAEHPAUTPOS__@@PADK@Z" PURGE="12" COMMENT="" />
    <EXPORT ORDINAL="56" NAME="?FHasCmd@CSRManager@@QBEHPAUHWND__@@@Z" PURGE="4" COMMENT="" />
    <EXPORT ORDINAL="57" NAME="?FHasFID@CSRManager@@QBEHXZ" PURGE="0" COMMENT="" />
    <EXPORT ORDINAL="58" NAME="?FHitTest@CDIBitmap@@QAEHHHI@Z" PURGE="12" COMMENT="" />
    <EXPORT ORDINAL="59" NAME="?FInit@CDIBitmap@@QAEHPAUHINSTANCE__@@IK@Z" PURGE="12" COMMENT="" />
    <EXPORT ORDINAL="60" NAME="?FInit@CDIBitmap@@QAEHPAUHINSTANCE__@@QBDK@Z" PURGE="12" COMMENT="" />
    <EXPORT ORDINAL="61" NAME="?FInit@CRawDIBitmap@@QAEHPAUHINSTANCE__@@IK@Z" PURGE="12" COMMENT="" />
    <EXPORT ORDINAL="62" NAME="?FInit@CRawDIBitmap@@QAEHPAUHINSTANCE__@@QBDK@Z" PURGE="12" COMMENT="" />
    <EXPORT ORDINAL="63" NAME="?FInitFromMemory@CDIBitmap@@QAEHPBEK@Z" PURGE="8" COMMENT="" />
    <EXPORT ORDINAL="64" NAME="?FInitFromMemory@CRawDIBitmap@@QAEHPBEK@Z" PURGE="8" COMMENT="" />
    <EXPORT ORDINAL="65" NAME="?FInitFromUrl@CDIBitmap@@QAEHPBDK@Z" PURGE="8" COMMENT="" />
    <EXPORT ORDINAL="66" NAME="?FInsertTask@CTaskList@@QAEHPAUTPOS__@@HPBDKPAUHMENU__@@@Z" PURGE="20" COMMENT="" />
    <EXPORT ORDINAL="67" NAME="?FIsBarnCombo@CSRManager@@SAHPAUHWND__@@@Z" PURGE="0" COMMENT="" />
    <EXPORT ORDINAL="68" NAME="?FIsCBN@CSRManager@@SAHIIJ@Z" PURGE="0" COMMENT="" />
    <EXPORT ORDINAL="69" NAME="?FIsMSNURL@@YAHPBD@Z" PURGE="0" COMMENT="" />
    <EXPORT ORDINAL="70" NAME="?FIsMoneyCombo@CSRManager@@SAHPAUHWND__@@@Z" PURGE="0" COMMENT="" />
    <EXPORT ORDINAL="71" NAME="?FIsSRCombo@CSRManager@@SAHPAUHWND__@@@Z" PURGE="0" COMMENT="" />
    <EXPORT ORDINAL="72" NAME="?FIsTaskVisible@CTaskList@@QAEHPAUTPOS__@@@Z" PURGE="4" COMMENT="" />
    <EXPORT ORDINAL="73" NAME="?FIsWndClass@CSRManager@@CAHPAUHWND__@@PBD@Z" PURGE="0" COMMENT="" />
    <EXPORT ORDINAL="74" NAME="?FJapan@CSRManager@@QBEHXZ" PURGE="0" COMMENT="" />
    <EXPORT ORDINAL="75" NAME="?FLoadBitmap@CRawDIBitmap@@QAEHXZ" PURGE="0" COMMENT="" />
    <EXPORT ORDINAL="76" NAME="?FLoadTaskMenu@CTaskList@@QAEHPAUHINSTANCE__@@K@Z" PURGE="8" COMMENT="" />
    <EXPORT ORDINAL="77" NAME="?FModifyTask@CTaskList@@QAEHPAUTPOS__@@HPBDKPAUHMENU__@@@Z" PURGE="20" COMMENT="" />
    <EXPORT ORDINAL="78" NAME="?FMute@CSRManager@@QBEHXZ" PURGE="0" COMMENT="" />
    <EXPORT ORDINAL="79" NAME="?FNavBarBtn@CSRManager@@QBEHPAUHWND__@@@Z" PURGE="4" COMMENT="" />
    <EXPORT ORDINAL="80" NAME="?FOnDetach@CTaskList@@UAEHH@Z" PURGE="4" COMMENT="" />
    <EXPORT ORDINAL="81" NAME="?FReMeasureTasks@CTaskList@@QAEHXZ" PURGE="0" COMMENT="" />
    <EXPORT ORDINAL="82" NAME="?FRemoveTask@CTaskList@@QAEHK@Z" PURGE="4" COMMENT="" />
    <EXPORT ORDINAL="83" NAME="?FRequiresToolTip@CTaskList@@UAEHQAUDRAWTASKSTRUCT_tag@@@Z" PURGE="4" COMMENT="" />
    <EXPORT ORDINAL="84" NAME="?FSAPIInstalled@CSRManager@@QBEHXZ" PURGE="0" COMMENT="" />
    <EXPORT ORDINAL="85" NAME="?FSelectTask@CTaskList@@QAEHK@Z" PURGE="4" COMMENT="" />
    <EXPORT ORDINAL="86" NAME="?FSetDropPriority@CTaskList@@QAEHPAKG@Z" PURGE="8" COMMENT="" />
    <EXPORT ORDINAL="87" NAME="?FSetFocusOnCreate@CTaskPopupMenu@@UAE_NXZ" PURGE="0" COMMENT="" />
    <EXPORT ORDINAL="88" NAME="?FSetTaskData@CTaskList@@QAEHPAUTPOS__@@K@Z" PURGE="8" COMMENT="" />
    <EXPORT ORDINAL="89" NAME="?FShowTask@CTaskList@@QAEHKHH@Z" PURGE="12" COMMENT="" />
    <EXPORT ORDINAL="90" NAME="?FSpeechAvailable@CSRManager@@QBEHXZ" PURGE="0" COMMENT="" />
    <EXPORT ORDINAL="91" NAME="?FSpeechEnabled@CSRManager@@QBEHXZ" PURGE="0" COMMENT="" />
    <EXPORT ORDINAL="92" NAME="?FUseAltColor@CTaskList@@QAEHKH@Z" PURGE="8" COMMENT="" />
    <EXPORT ORDINAL="93" NAME="?FlushBitmap@CDIBitmap@@QAEXXZ" PURGE="0" COMMENT="" />
    <EXPORT ORDINAL="94" NAME="?FlushBitmap@CRawDIBitmap@@QAEXXZ" PURGE="0" COMMENT="" />
    <EXPORT ORDINAL="95" NAME="?GetHeight@CDIBitmap@@QAEHXZ" PURGE="0" COMMENT="" />
    <EXPORT ORDINAL="96" NAME="?GetPhaseHeight@CDIBitmap@@QAEHXZ" PURGE="0" COMMENT="" />
    <EXPORT ORDINAL="97" NAME="?GetPhaseWidth@CDIBitmap@@QAEHXZ" PURGE="0" COMMENT="" />
    <EXPORT ORDINAL="98" NAME="?GetShowState@CTaskList@@QAE?AW4TLS@@XZ" PURGE="0" COMMENT="" />
    <EXPORT ORDINAL="99" NAME="?GetTotalPhases@CDIBitmap@@QAEHXZ" PURGE="0" COMMENT="" />
    <EXPORT ORDINAL="100" NAME="?GetWidth@CDIBitmap@@QAEHXZ" PURGE="0" COMMENT="" />
    <EXPORT ORDINAL="101" NAME="?HBitmapGet@CDIBitmap@@QAEPAUHBITMAP__@@XZ" PURGE="0" COMMENT="" />
    <EXPORT ORDINAL="102" NAME="?HCurFromURL@@YAPAUHICON__@@PBD@Z" PURGE="0" COMMENT="" />
    <EXPORT ORDINAL="103" NAME="?HFindBitmap@CRawDIBitmap@@IAEPAUHRSRC__@@PBDI@Z" PURGE="8" COMMENT="" />
    <EXPORT ORDINAL="104" NAME="?HPaletteBackupGet@CDIBitmap@@SAPAUHPALETTE__@@XZ" PURGE="0" COMMENT="" />
    <EXPORT ORDINAL="105" NAME="?HPaletteGet@CDIBitmap@@SAPAUHPALETTE__@@XZ" PURGE="0" COMMENT="" />
    <EXPORT ORDINAL="106" NAME="?Hinst@CRawDIBitmap@@QBEPAUHINSTANCE__@@XZ" PURGE="0" COMMENT="" />
    <EXPORT ORDINAL="107" NAME="?HmnuFromTid@CTaskList@@QAEPAUHMENU__@@K@Z" PURGE="4" COMMENT="" />
    <EXPORT ORDINAL="108" NAME="?HwndCreate@CTaskList@@QAEPAUHWND__@@PBDPAUHMENU__@@KUtagRECT@@PAU2@PAUHINSTANCE__@@@Z" PURGE="36" COMMENT="" />
    <EXPORT ORDINAL="109" NAME="?HwndGet@CTaskList@@QAEPAUHWND__@@XZ" PURGE="0" COMMENT="" />
    <EXPORT ORDINAL="110" NAME="?LoadBitmapA@CDIBitmap@@QAEXXZ" PURGE="0" COMMENT="" />
    <EXPORT ORDINAL="111" NAME="?LoadFromFile@CRawDIBitmap@@IAEXXZ" PURGE="0" COMMENT="" />
    <EXPORT ORDINAL="112" NAME="?LoadFromMemory@CRawDIBitmap@@IAEXQBUBITMAPID@@PBE@Z" PURGE="8" COMMENT="" />
    <EXPORT ORDINAL="113" NAME="?LoadFromMemoryImage@CRawDIBitmap@@IAEXPBUtagBITMAPFILEHEADER@@@Z" PURGE="4" COMMENT="" />
    <EXPORT ORDINAL="114" NAME="?MeasureTask@CTaskList@@UAEXQAUDRAWTASKSTRUCT_tag@@PAG11@Z" PURGE="16" COMMENT="" />
    <EXPORT ORDINAL="115" NAME="?MoneyBitBlt@@YAHPAUHDC__@@HHHH0HHK@Z" PURGE="0" COMMENT="" />
    <EXPORT ORDINAL="116" NAME="?OnCloseMenu@CTaskPopupMenu@@UAEXI@Z" PURGE="4" COMMENT="" />
    <EXPORT ORDINAL="117" NAME="?OnCommand@CTaskList@@UAEXKPBD@Z" PURGE="8" COMMENT="" />
    <EXPORT ORDINAL="118" NAME="?OnInitMenuPopup@CTaskList@@UAEXPAUHMENU__@@PAUTPOS__@@1@Z" PURGE="12" COMMENT="" />
    <EXPORT ORDINAL="119" NAME="?OnMouseMove@CTaskPopupMenu@@UAEXPAUtagPOINT@@@Z" PURGE="4" COMMENT="" />
    <EXPORT ORDINAL="120" NAME="?OnSR@CSRManager@@QAEXABUSPItem@@PBQAUHWND__@@@Z" PURGE="8" COMMENT="" />
    <EXPORT ORDINAL="121" NAME="?OnUnhandledArrow@CTaskPopupMenu@@UAEX_N@Z" PURGE="4" COMMENT="" />
    <EXPORT ORDINAL="122" NAME="?PBitsGet@CRawDIBitmap@@QBEPBEXZ" PURGE="0" COMMENT="" />
    <EXPORT ORDINAL="123" NAME="?PBmiGet@CRawDIBitmap@@QBEPBUBITMAPINFO256@@XZ" PURGE="0" COMMENT="" />
    <EXPORT ORDINAL="124" NAME="?RGBFromIndex@@YAKK@Z" PURGE="0" COMMENT="" />
    <EXPORT ORDINAL="125" NAME="?RefreshSpeechCmds@CSRManager@@QAEXXZ" PURGE="0" COMMENT="" />
    <EXPORT ORDINAL="126" NAME="?ReleaseSP@CSRManager@@AAEXXZ" PURGE="0" COMMENT="" />
    <EXPORT ORDINAL="127" NAME="?RemoveAllCmds@CSRManager@@QAEXPAUHWND__@@@Z" PURGE="4" COMMENT="" />
    <EXPORT ORDINAL="128" NAME="?RemoveCmd@CSRManager@@QAEXPAUSPItem@@@Z" PURGE="4" COMMENT="" />
    <EXPORT ORDINAL="129" NAME="?ResetAll@CDIBitmap@@SAXXZ" PURGE="0" COMMENT="" />
    <EXPORT ORDINAL="130" NAME="?SColorsGet@CDIBitmap@@SA?AW4Colors@1@XZ" PURGE="0" COMMENT="" />
    <EXPORT ORDINAL="131" NAME="?SelectMasterPalette@CDIBitmap@@SAPAUHPALETTE__@@PAUHDC__@@@Z" PURGE="0" COMMENT="" />
    <EXPORT ORDINAL="132" NAME="?Set16Color@CRawDIBitmap@@QAEXH@Z" PURGE="4" COMMENT="" />
    <EXPORT ORDINAL="133" NAME="?SetAutoHideHeaders@CTaskList@@QAEXH@Z" PURGE="4" COMMENT="" />
    <EXPORT ORDINAL="134" NAME="?SetCSRMHelpers@CSRManager@@QAEXPAVCSRMHelpers@@@Z" PURGE="4" COMMENT="" />
    <EXPORT ORDINAL="135" NAME="?SetCSpeechCmds@CSRManager@@QAEXPAVCSpeechCmds@@@Z" PURGE="4" COMMENT="" />
    <EXPORT ORDINAL="136" NAME="?SetColors@CDIBitmap@@SAXW4Colors@1@@Z" PURGE="0" COMMENT="" />
    <EXPORT ORDINAL="137" NAME="?SetConstructionMode@CTaskList@@QAEXH@Z" PURGE="4" COMMENT="" />
    <EXPORT ORDINAL="138" NAME="?SetDGExFile@CSRManager@@QAEXPBD@Z" PURGE="4" COMMENT="" />
    <EXPORT ORDINAL="139" NAME="?SetFDisplayCmds@CSRManager@@QAEXH@Z" PURGE="4" COMMENT="" />
    <EXPORT ORDINAL="140" NAME="?SetFHasFID@CSRManager@@QAEXH@Z" PURGE="4" COMMENT="" />
    <EXPORT ORDINAL="141" NAME="?SetFJapan@CSRManager@@QAEXH@Z" PURGE="4" COMMENT="" />
    <EXPORT ORDINAL="142" NAME="?SetFMute@CSRManager@@QAEXH@Z" PURGE="4" COMMENT="" />
    <EXPORT ORDINAL="143" NAME="?SetFSpeechAvailable@CSRManager@@QAEXH@Z" PURGE="4" COMMENT="" />
    <EXPORT ORDINAL="144" NAME="?SetFSpeechEnabled@CSRManager@@QAEXH@Z" PURGE="4" COMMENT="" />
    <EXPORT ORDINAL="145" NAME="?SetHwndMenu@CSRManager@@QAEXPAUHWND__@@@Z" PURGE="4" COMMENT="" />
    <EXPORT ORDINAL="146" NAME="?SetHwndNavBar@CSRManager@@QAEXPAUHWND__@@@Z" PURGE="4" COMMENT="" />
    <EXPORT ORDINAL="147" NAME="?SetPhases@CDIBitmap@@QAEXI@Z" PURGE="4" COMMENT="" />
    <EXPORT ORDINAL="148" NAME="?SetRawDIB@CDIBitmap@@QAEXPAVCRawDIBitmap@@@Z" PURGE="4" COMMENT="" />
    <EXPORT ORDINAL="149" NAME="?SetSGFile@CSRManager@@QAEXPBD@Z" PURGE="4" COMMENT="" />
    <EXPORT ORDINAL="150" NAME="?SetTransparentColor@CDIBitmap@@QAEXK@Z" PURGE="4" COMMENT="" />
    <EXPORT ORDINAL="151" NAME="?SimKeyInput@@YAXH@Z" PURGE="0" COMMENT="" />
    <EXPORT ORDINAL="152" NAME="?StaticCleanup@CDIBitmap@@SAXXZ" PURGE="0" COMMENT="" />
    <EXPORT ORDINAL="153" NAME="?SubscribeToSGCmd@CSRManager@@QAEXKPAUHWND__@@H@Z" PURGE="12" COMMENT="" />
    <EXPORT ORDINAL="154" NAME="?SzNameId@CRawDIBitmap@@QBEPBDXZ" PURGE="0" COMMENT="" />
    <EXPORT ORDINAL="155" NAME="?SzNumFromSpeech@CSRManager@@SAPBDPBDPAH@Z" PURGE="0" COMMENT="" />
    <EXPORT ORDINAL="156" NAME="?TidFromTpos@CTaskList@@QAEKPAUTPOS__@@@Z" PURGE="4" COMMENT="" />
    <EXPORT ORDINAL="157" NAME="?Tile@CDIBitmap@@QAEXPAUHDC__@@QAUtagRECT@@@Z" PURGE="8" COMMENT="" />
    <EXPORT ORDINAL="158" NAME="?TileChildToParent@CDIBitmap@@QAEXPAUHDC__@@QAUtagRECT@@PAUHWND__@@2@Z" PURGE="16" COMMENT="" />
    <EXPORT ORDINAL="159" NAME="?TposFromTid@CTaskList@@QAEPAUTPOS__@@K@Z" PURGE="4" COMMENT="" />
    <EXPORT ORDINAL="160" NAME="?UnloadSAPI@CSRManager@@QAEXXZ" PURGE="0" COMMENT="" />
    <EXPORT ORDINAL="161" NAME="?WDrawTask@CTaskList@@UAEGQAUDRAWTASKSTRUCT_tag@@@Z" PURGE="4" COMMENT="" />
    <EXPORT ORDINAL="162" NAME="?WId@CRawDIBitmap@@QBEIXZ" PURGE="0" COMMENT="" />
    <EXPORT ORDINAL="163" NAME="?g_hwndTooltip@@3PAUHWND__@@A" PURGE="-1" COMMENT="" />
    <EXPORT ORDINAL="164" NAME="?g_srm@@3VCSRManager@@A" PURGE="-1" COMMENT="" />
    <EXPORT ORDINAL="165" NAME="?s_colors@CDIBitmap@@1W4Colors@1@A" PURGE="-1" COMMENT="" />
    <EXPORT ORDINAL="166" NAME="?s_dwResetId@CDIBitmap@@1KA" PURGE="-1" COMMENT="" />
    <EXPORT ORDINAL="167" NAME="?s_hPaletteBackup@CDIBitmap@@1PAUHPALETTE__@@A" PURGE="-1" COMMENT="" />
    <EXPORT ORDINAL="168" NAME="?s_hPaletteMaster@CDIBitmap@@1PAUHPALETTE__@@A" PURGE="-1" COMMENT="" />
    <EXPORT ORDINAL="169" NAME="?s_hdcMem@CDIBitmap@@1PAUHDC__@@A" PURGE="-1" COMMENT="" />
    <EXPORT ORDINAL="170" NAME="_AddEllipsis@20" PURGE="20" COMMENT="" />
    <EXPORT ORDINAL="171" NAME="_CchHtmlBreakLines@12" PURGE="12" COMMENT="" />
    <EXPORT ORDINAL="172" NAME="_CchHtmlEscapeText@16" PURGE="16" COMMENT="" />
    <EXPORT ORDINAL="173" NAME="_CenterRcHwnd@12" PURGE="12" COMMENT="" />
    <EXPORT ORDINAL="174" NAME="_ClipOpaqueChildren@16" PURGE="16" COMMENT="" />
    <EXPORT ORDINAL="175" NAME="CreateHtmlLite" PURGE="0" COMMENT="" />
    <EXPORT ORDINAL="176" NAME="_CreateRichTooltip@16" PURGE="16" COMMENT="" />
    <EXPORT ORDINAL="177" NAME="_CreateTooltip@16" PURGE="16" COMMENT="" />
    <EXPORT ORDINAL="178" NAME="_Ctl0PaintDropdownButton@20" PURGE="20" COMMENT="" />
    <EXPORT ORDINAL="179" NAME="_Ctl0PaintPushbutton@40" PURGE="40" COMMENT="" />
    <EXPORT ORDINAL="180" NAME="_Ctl0SetColorschemes@4" PURGE="4" COMMENT="" />
    <EXPORT ORDINAL="181" NAME="_Ctl0SetCurrentPalette@4" PURGE="4" COMMENT="" />
    <EXPORT ORDINAL="182" NAME="_Ctl0SetFontschemes@4" PURGE="4" COMMENT="" />
    <EXPORT ORDINAL="183" NAME="_Ctl0SetIDs@12" PURGE="12" COMMENT="" />
    <EXPORT ORDINAL="184" NAME="_Ctl0SetMainAppHwnd@4" PURGE="4" COMMENT="" />
    <EXPORT ORDINAL="185" NAME="_DestroyTooltip@4" PURGE="4" COMMENT="" />
    <EXPORT ORDINAL="186" NAME="_Draw3dEdges@20" PURGE="20" COMMENT="" />
    <EXPORT ORDINAL="187" NAME="_Draw3dTopEdge@12" PURGE="12" COMMENT="" />
    <EXPORT ORDINAL="188" NAME="_DrawTextEllipsis@20" PURGE="20" COMMENT="" />
    <EXPORT ORDINAL="189" NAME="_FBusyTooltip@0" PURGE="0" COMMENT="" />
    <EXPORT ORDINAL="190" NAME="_FDrawPictures@0" PURGE="0" COMMENT="" />
    <EXPORT ORDINAL="191" NAME="_FHtmlReplaceCtl@8" PURGE="8" COMMENT="" />
    <EXPORT ORDINAL="192" NAME="_FIsHintEdit@4" PURGE="4" COMMENT="" />
    <EXPORT ORDINAL="193" NAME="_FMakeHintEdit@12" PURGE="12" COMMENT="" />
    <EXPORT ORDINAL="194" NAME="_FMungeDlgTemplate@12" PURGE="12" COMMENT="" />
    <EXPORT ORDINAL="195" NAME="_FillRectRgb@12" PURGE="12" COMMENT="" />
    <EXPORT ORDINAL="196" NAME="_FreeMungedDlgTemplate@4" PURGE="4" COMMENT="" />
    <EXPORT ORDINAL="197" NAME="GetCtrlGuid" PURGE="0" COMMENT="" />
    <EXPORT ORDINAL="198" NAME="GetDlgID" PURGE="0" COMMENT="" />
    <EXPORT ORDINAL="199" NAME="HCursorWebGet" PURGE="0" COMMENT="" />
    <EXPORT ORDINAL="200" NAME="_HwndEditGet@4" PURGE="4" COMMENT="" />
    <EXPORT ORDINAL="201" NAME="_KeepRcOnScreen@8" PURGE="8" COMMENT="" />
    <EXPORT ORDINAL="202" NAME="LoadMungeMenu" PURGE="0" COMMENT="" />
    <EXPORT ORDINAL="203" NAME="_MnyTrackMouseEvent@4" PURGE="4" COMMENT="" />
    <EXPORT ORDINAL="204" NAME="MungeMenu" PURGE="0" COMMENT="" />
    <EXPORT ORDINAL="205" NAME="SetDlgIDCallBack" PURGE="0" COMMENT="" />
    <EXPORT ORDINAL="206" NAME="_SetEnableCtl0TermServerAware@4" PURGE="4" COMMENT="" />
</LIBRARY>

