<?xml version="1.0" encoding="UTF-8"?>
<LIBRARY NAME="mstores.dll" PATH="/DLLArchive/etc/MSTORES.DLL" DATE="Fri Jul 03 13:00:04 PDT 2020" VERSION="11.0.5516">
    <EXPORT ORDINAL="1" NAME="??0?$CAGTPX@PAG@@QAE@XZ" PURGE="0" COMMENT="" />
    <EXPORT ORDINAL="2" NAME="??0?$CAGTPX@PAUCImportTaskNode@@@@QAE@XZ" PURGE="0" COMMENT="" />
    <EXPORT ORDINAL="3" NAME="??0?$CAGTPX@PAVCatalogInfo@@@@QAE@XZ" PURGE="0" COMMENT="" />
    <EXPORT ORDINAL="4" NAME="??0?$CAGTPX@UCMapEntry@@@@QAE@XZ" PURGE="0" COMMENT="" />
    <EXPORT ORDINAL="5" NAME="??0CAG10InstallRegistryIO@@QAE@PBD@Z" PURGE="4" COMMENT="" />
    <EXPORT ORDINAL="6" NAME="??0CAG10RegistryIO@@QAE@XZ" PURGE="0" COMMENT="" />
    <EXPORT ORDINAL="7" NAME="??0CAGLegacyRegistryIO@@QAE@XZ" PURGE="0" COMMENT="" />
    <EXPORT ORDINAL="8" NAME="??0CAutoImpTaskQueue@@QAE@XZ" PURGE="0" COMMENT="" />
    <EXPORT ORDINAL="9" NAME="??0CAutoImportSetupDlg@@QAE@PAVCMStoreSApp@@PAVCMediaScan@@1@Z" PURGE="12" COMMENT="" />
    <EXPORT ORDINAL="10" NAME="??0CAutoImportStartupDlg@@QAE@PAVCMStoreSApp@@PAVCMediaScan@@H@Z" PURGE="12" COMMENT="" />
    <EXPORT ORDINAL="11" NAME="??0CBaseThreadTask@@QAE@ABV0@@Z" PURGE="4" COMMENT="" />
    <EXPORT ORDINAL="12" NAME="??0CBaseThreadTask@@QAE@E@Z" PURGE="4" COMMENT="" />
    <EXPORT ORDINAL="13" NAME="??0CCAGTimer@@QAE@XZ" PURGE="0" COMMENT="" />
    <EXPORT ORDINAL="14" NAME="??0CClipGalleryDataObject@@QAE@PAVCMStoreSApp@@@Z" PURGE="4" COMMENT="" />
    <EXPORT ORDINAL="15" NAME="??0CCompactDlg@@QAE@ABV0@@Z" PURGE="4" COMMENT="" />
    <EXPORT ORDINAL="16" NAME="??0CCompactDlg@@QAE@PAVCMStoreSApp@@P6AXPAX@Z1@Z" PURGE="12" COMMENT="" />
    <EXPORT ORDINAL="17" NAME="??0CCursorHolder@@QAE@AAVCMStoreSApp@@I@Z" PURGE="8" COMMENT="" />
    <EXPORT ORDINAL="18" NAME="??0CCursorHolder@@QAE@XZ" PURGE="0" COMMENT="" />
    <EXPORT ORDINAL="19" NAME="??0CDib@@QAE@XZ" PURGE="0" COMMENT="" />
    <EXPORT ORDINAL="20" NAME="??0CDropSource@@QAE@PAVCMStoreSApp@@@Z" PURGE="4" COMMENT="" />
    <EXPORT ORDINAL="21" NAME="??0CDropSource@@QAE@XZ" PURGE="0" COMMENT="" />
    <EXPORT ORDINAL="22" NAME="??0CDropTarget@@QAE@PAVCMStoreSApp@@PAUIPasteTarget@@@Z" PURGE="8" COMMENT="" />
    <EXPORT ORDINAL="23" NAME="??0CGELPreview@@QAE@ABV0@@Z" PURGE="4" COMMENT="" />
    <EXPORT ORDINAL="24" NAME="??0CGELPreview@@QAE@PAVCMStoreSApp@@PAUHWND__@@@Z" PURGE="8" COMMENT="" />
    <EXPORT ORDINAL="25" NAME="??0CImport@@QAE@PAVCMStoreSApp@@K@Z" PURGE="8" COMMENT="" />
    <EXPORT ORDINAL="26" NAME="??0CImportMeter@@QAE@PAVCMStoreSApp@@PAVCImport@@PBG2HHH@Z" PURGE="28" COMMENT="" />
    <EXPORT ORDINAL="27" NAME="??0CImportMeter@@QAE@PAVCMStoreSApp@@PAVCImport@@PBGPAUHDROP__@@HHH@Z" PURGE="28" COMMENT="" />
    <EXPORT ORDINAL="28" NAME="??0CImportMeter@@QAE@PAVCPackageFile@@PAUIUnknown@@HHH@Z" PURGE="20" COMMENT="" />
    <EXPORT ORDINAL="29" NAME="??0CImportTask@@QAE@ABV0@@Z" PURGE="4" COMMENT="" />
    <EXPORT ORDINAL="30" NAME="??0CImportTask@@QAE@PAVCMStoreSApp@@PBG1H@Z" PURGE="16" COMMENT="" />
    <EXPORT ORDINAL="31" NAME="??0CKeywordMeterDlg@@QAE@PAVCMStoreSApp@@PAVCMediaScan@@HHH@Z" PURGE="20" COMMENT="" />
    <EXPORT ORDINAL="32" NAME="??0CKeywordMgmtDlg@@QAE@PAVCMStoreSApp@@@Z" PURGE="4" COMMENT="" />
    <EXPORT ORDINAL="33" NAME="??0CLegacyDlg@@QAE@PAVCMStoreSApp@@@Z" PURGE="4" COMMENT="" />
    <EXPORT ORDINAL="34" NAME="??0CLegacyResultsDlg@@QAE@PAVCMStoreSApp@@@Z" PURGE="4" COMMENT="" />
    <EXPORT ORDINAL="35" NAME="??0CMCCatalogInfoEntry@@QAE@XZ" PURGE="0" COMMENT="" />
    <EXPORT ORDINAL="36" NAME="??0CMCCollectionEntry@@QAE@XZ" PURGE="0" COMMENT="" />
    <EXPORT ORDINAL="37" NAME="??0CMCCustomEntry@@QAE@XZ" PURGE="0" COMMENT="" />
    <EXPORT ORDINAL="38" NAME="??0CMediaPlayerPreview@@QAE@ABV0@@Z" PURGE="4" COMMENT="" />
    <EXPORT ORDINAL="39" NAME="??0CMediaPlayerPreview@@QAE@PAVCMStoreSApp@@PAUHWND__@@PAUIMultiMediaUINotify@@@Z" PURGE="12" COMMENT="" />
    <EXPORT ORDINAL="40" NAME="??0CMediaScan@@QAE@PAVCMStoreSApp@@H@Z" PURGE="8" COMMENT="" />
    <EXPORT ORDINAL="41" NAME="??0CMessagePreview@@QAE@PAVCMStoreSApp@@PAUHWND__@@@Z" PURGE="8" COMMENT="" />
    <EXPORT ORDINAL="42" NAME="??0CMoveClipsMeterDlg@@QAE@PAVCMStoreSApp@@PAUtagSTGMEDIUM@@PBGHHH@Z" PURGE="24" COMMENT="" />
    <EXPORT ORDINAL="43" NAME="??0CMoveCollectionDlg@@QAE@ABV0@@Z" PURGE="4" COMMENT="" />
    <EXPORT ORDINAL="44" NAME="??0CMoveCollectionDlg@@QAE@PAVCMStoreSApp@@PAVCTreeView@@W4eDlgType@@@Z" PURGE="12" COMMENT="" />
    <EXPORT ORDINAL="45" NAME="??0CMsoString@@QAE@XZ" PURGE="0" COMMENT="" />
    <EXPORT ORDINAL="46" NAME="??0CMstoreDBConnection@@QAE@PAVCMStoreSApp@@AAJ@Z" PURGE="8" COMMENT="" />
    <EXPORT ORDINAL="47" NAME="??0CMstoreDBRelease@@QAE@PAVCMStoreSApp@@@Z" PURGE="4" COMMENT="" />
    <EXPORT ORDINAL="48" NAME="??0CNewCollectionDlg@@QAE@ABV0@@Z" PURGE="4" COMMENT="" />
    <EXPORT ORDINAL="49" NAME="??0CNewCollectionDlg@@QAE@PAVCMStoreSApp@@PAVCTreeView@@@Z" PURGE="8" COMMENT="" />
    <EXPORT ORDINAL="50" NAME="??0CNewCollectionMeterDlg@@QAE@PAVCMStoreSApp@@PAVCMediaScan@@PAVCTreeView@@HHH@Z" PURGE="24" COMMENT="" />
    <EXPORT ORDINAL="51" NAME="??0CPackageFile@@QAE@PAVCMStoreSApp@@@Z" PURGE="4" COMMENT="" />
    <EXPORT ORDINAL="52" NAME="??0CPasteClipsDlg@@QAE@PAVCMStoreSApp@@PAUtagSTGMEDIUM@@PBGHHH@Z" PURGE="24" COMMENT="" />
    <EXPORT ORDINAL="53" NAME="??0CPasteObject@@QAE@PAUIPasteTarget@@PAVCMStoreSApp@@PAU_TREEITEM@@PAVCDropTarget@@H@Z" PURGE="20" COMMENT="" />
    <EXPORT ORDINAL="54" NAME="??0CPasteObject@@QAE@XZ" PURGE="0" COMMENT="" />
    <EXPORT ORDINAL="55" NAME="??0CPreview@@QAE@ABV0@@Z" PURGE="4" COMMENT="" />
    <EXPORT ORDINAL="56" NAME="??0CPreview@@QAE@PAVCMStoreSApp@@PAUHWND__@@@Z" PURGE="8" COMMENT="" />
    <EXPORT ORDINAL="57" NAME="??0CPreviewDlg@@QAE@PAVCMStoreSApp@@@Z" PURGE="4" COMMENT="" />
    <EXPORT ORDINAL="58" NAME="??0CPreviewManager@@QAE@ABV0@@Z" PURGE="4" COMMENT="" />
    <EXPORT ORDINAL="59" NAME="??0CPreviewManager@@QAE@PAVCMStoreSApp@@PAUHWND__@@IPAUIMultiMediaUINotify@@@Z" PURGE="16" COMMENT="" />
    <EXPORT ORDINAL="60" NAME="??0CScanMeter@@QAE@PAVCMStoreSApp@@PAVCMediaScan@@HHH@Z" PURGE="20" COMMENT="" />
    <EXPORT ORDINAL="61" NAME="??0CThumbGallery@@QAE@PAVCMStoreSApp@@IW4_MSOCAGEGalleryHostType@@P6APAV0@XZ@Z" PURGE="16" COMMENT="" />
    <EXPORT ORDINAL="62" NAME="??0CThumbnail@@QAE@PAVCMStoreSApp@@@Z" PURGE="4" COMMENT="" />
    <EXPORT ORDINAL="63" NAME="??0CTreeView@@QAE@ABV0@@Z" PURGE="4" COMMENT="" />
    <EXPORT ORDINAL="64" NAME="??0CTreeView@@QAE@PAVCMStoreSApp@@HHH@Z" PURGE="16" COMMENT="" />
    <EXPORT ORDINAL="65" NAME="??0CWzToIntMap@@QAE@XZ" PURGE="0" COMMENT="" />
    <EXPORT ORDINAL="66" NAME="??0CXmlDoc@@QAE@XZ" PURGE="0" COMMENT="" />
    <EXPORT ORDINAL="67" NAME="??0CatalogInfo@@QAE@ABV0@@Z" PURGE="4" COMMENT="" />
    <EXPORT ORDINAL="68" NAME="??0CatalogInfo@@QAE@XZ" PURGE="0" COMMENT="" />
    <EXPORT ORDINAL="69" NAME="??0ICagPreview@@QAE@ABU0@@Z" PURGE="4" COMMENT="" />
    <EXPORT ORDINAL="70" NAME="??0ICagPreview@@QAE@XZ" PURGE="0" COMMENT="" />
    <EXPORT ORDINAL="71" NAME="??0QueryListOfApps@@QAE@ABVRegistryIO@@@Z" PURGE="4" COMMENT="" />
    <EXPORT ORDINAL="72" NAME="??0RegistryIO@@QAE@ABV0@PBD@Z" PURGE="8" COMMENT="" />
    <EXPORT ORDINAL="73" NAME="??0RegistryIO@@QAE@PAUHKEY__@@PBD@Z" PURGE="8" COMMENT="" />
    <EXPORT ORDINAL="74" NAME="??0RegistryIO@@QAE@PBD0@Z" PURGE="8" COMMENT="" />
    <EXPORT ORDINAL="75" NAME="??1?$CAGTPX@PAG@@QAE@XZ" PURGE="0" COMMENT="" />
    <EXPORT ORDINAL="76" NAME="??1?$CAGTPX@PAUCImportTaskNode@@@@QAE@XZ" PURGE="0" COMMENT="" />
    <EXPORT ORDINAL="77" NAME="??1?$CAGTPX@PAVCatalogInfo@@@@QAE@XZ" PURGE="0" COMMENT="" />
    <EXPORT ORDINAL="78" NAME="??1?$CAGTPX@UCMapEntry@@@@QAE@XZ" PURGE="0" COMMENT="" />
    <EXPORT ORDINAL="79" NAME="??1CAG10InstallRegistryIO@@QAE@XZ" PURGE="0" COMMENT="" />
    <EXPORT ORDINAL="80" NAME="??1CAG10RegistryIO@@QAE@XZ" PURGE="0" COMMENT="" />
    <EXPORT ORDINAL="81" NAME="??1CAGLegacyRegistryIO@@QAE@XZ" PURGE="0" COMMENT="" />
    <EXPORT ORDINAL="82" NAME="??1CAutoImpTaskQueue@@QAE@XZ" PURGE="0" COMMENT="" />
    <EXPORT ORDINAL="83" NAME="??1CAutoImportSetupDlg@@QAE@XZ" PURGE="0" COMMENT="" />
    <EXPORT ORDINAL="84" NAME="??1CAutoImportStartupDlg@@QAE@XZ" PURGE="0" COMMENT="" />
    <EXPORT ORDINAL="85" NAME="??1CBaseThreadTask@@UAE@XZ" PURGE="0" COMMENT="" />
    <EXPORT ORDINAL="86" NAME="??1CCAGTimer@@QAE@XZ" PURGE="0" COMMENT="" />
    <EXPORT ORDINAL="87" NAME="??1CCompactDlg@@QAE@XZ" PURGE="0" COMMENT="" />
    <EXPORT ORDINAL="88" NAME="??1CCursorHolder@@QAE@XZ" PURGE="0" COMMENT="" />
    <EXPORT ORDINAL="89" NAME="??1CDib@@QAE@XZ" PURGE="0" COMMENT="" />
    <EXPORT ORDINAL="90" NAME="??1CDropTarget@@QAE@XZ" PURGE="0" COMMENT="" />
    <EXPORT ORDINAL="91" NAME="??1CGELPreview@@UAE@XZ" PURGE="0" COMMENT="" />
    <EXPORT ORDINAL="92" NAME="??1CImport@@QAE@XZ" PURGE="0" COMMENT="" />
    <EXPORT ORDINAL="93" NAME="??1CImportMeter@@QAE@XZ" PURGE="0" COMMENT="" />
    <EXPORT ORDINAL="94" NAME="??1CImportTask@@UAE@XZ" PURGE="0" COMMENT="" />
    <EXPORT ORDINAL="95" NAME="??1CKeywordMeterDlg@@QAE@XZ" PURGE="0" COMMENT="" />
    <EXPORT ORDINAL="96" NAME="??1CKeywordMgmtDlg@@QAE@XZ" PURGE="0" COMMENT="" />
    <EXPORT ORDINAL="97" NAME="??1CLegacyDlg@@QAE@XZ" PURGE="0" COMMENT="" />
    <EXPORT ORDINAL="98" NAME="??1CLegacyResultsDlg@@QAE@XZ" PURGE="0" COMMENT="" />
    <EXPORT ORDINAL="99" NAME="??1CMCCustomEntry@@QAE@XZ" PURGE="0" COMMENT="" />
    <EXPORT ORDINAL="100" NAME="??1CMediaPlayerPreview@@UAE@XZ" PURGE="0" COMMENT="" />
    <EXPORT ORDINAL="101" NAME="??1CMediaScan@@QAE@XZ" PURGE="0" COMMENT="" />
    <EXPORT ORDINAL="102" NAME="??1CMessagePreview@@UAE@XZ" PURGE="0" COMMENT="" />
    <EXPORT ORDINAL="103" NAME="??1CMoveClipsMeterDlg@@QAE@XZ" PURGE="0" COMMENT="" />
    <EXPORT ORDINAL="104" NAME="??1CMoveCollectionDlg@@QAE@XZ" PURGE="0" COMMENT="" />
    <EXPORT ORDINAL="105" NAME="??1CMsoString@@QAE@XZ" PURGE="0" COMMENT="" />
    <EXPORT ORDINAL="106" NAME="??1CMstoreDBConnection@@QAE@XZ" PURGE="0" COMMENT="" />
    <EXPORT ORDINAL="107" NAME="??1CMstoreDBRelease@@QAE@XZ" PURGE="0" COMMENT="" />
    <EXPORT ORDINAL="108" NAME="??1CNewCollectionDlg@@QAE@XZ" PURGE="0" COMMENT="" />
    <EXPORT ORDINAL="109" NAME="??1CNewCollectionMeterDlg@@QAE@XZ" PURGE="0" COMMENT="" />
    <EXPORT ORDINAL="110" NAME="??1CPackageFile@@QAE@XZ" PURGE="0" COMMENT="" />
    <EXPORT ORDINAL="111" NAME="??1CPasteClipsDlg@@QAE@XZ" PURGE="0" COMMENT="" />
    <EXPORT ORDINAL="112" NAME="??1CPasteObject@@QAE@XZ" PURGE="0" COMMENT="" />
    <EXPORT ORDINAL="113" NAME="??1CPreview@@UAE@XZ" PURGE="0" COMMENT="" />
    <EXPORT ORDINAL="114" NAME="??1CPreviewDlg@@QAE@XZ" PURGE="0" COMMENT="" />
    <EXPORT ORDINAL="115" NAME="??1CPreviewManager@@QAE@XZ" PURGE="0" COMMENT="" />
    <EXPORT ORDINAL="116" NAME="??1CScanMeter@@QAE@XZ" PURGE="0" COMMENT="" />
    <EXPORT ORDINAL="117" NAME="??1CThumbGallery@@QAE@XZ" PURGE="0" COMMENT="" />
    <EXPORT ORDINAL="118" NAME="??1CThumbnail@@QAE@XZ" PURGE="0" COMMENT="" />
    <EXPORT ORDINAL="119" NAME="??1CTreeView@@QAE@XZ" PURGE="0" COMMENT="" />
    <EXPORT ORDINAL="120" NAME="??1CWzToIntMap@@QAE@XZ" PURGE="0" COMMENT="" />
    <EXPORT ORDINAL="121" NAME="??1CXmlDoc@@QAE@XZ" PURGE="0" COMMENT="" />
    <EXPORT ORDINAL="122" NAME="??1CatalogInfo@@UAE@XZ" PURGE="0" COMMENT="" />
    <EXPORT ORDINAL="123" NAME="??1QueryListOfApps@@QAE@XZ" PURGE="0" COMMENT="" />
    <EXPORT ORDINAL="124" NAME="??1RegistryIO@@QAE@XZ" PURGE="0" COMMENT="" />
    <EXPORT ORDINAL="125" NAME="??4?$CAGTPX@PAG@@QAEAAV0@ABV0@@Z" PURGE="4" COMMENT="" />
    <EXPORT ORDINAL="126" NAME="??4?$CAGTPX@PAUCImportTaskNode@@@@QAEAAV0@ABV0@@Z" PURGE="4" COMMENT="" />
    <EXPORT ORDINAL="127" NAME="??4?$CAGTPX@PAVCatalogInfo@@@@QAEAAV0@ABV0@@Z" PURGE="4" COMMENT="" />
    <EXPORT ORDINAL="128" NAME="??4?$CAGTPX@UCMapEntry@@@@QAEAAV0@ABV0@@Z" PURGE="4" COMMENT="" />
    <EXPORT ORDINAL="129" NAME="??4CAG10InstallRegistryIO@@QAEAAV0@ABV0@@Z" PURGE="4" COMMENT="" />
    <EXPORT ORDINAL="130" NAME="??4CAG10RegistryIO@@QAEAAV0@ABV0@@Z" PURGE="4" COMMENT="" />
    <EXPORT ORDINAL="131" NAME="??4CAGLegacyRegistryIO@@QAEAAV0@ABV0@@Z" PURGE="4" COMMENT="" />
    <EXPORT ORDINAL="132" NAME="??4CAutoImpTaskQueue@@QAEAAV0@ABV0@@Z" PURGE="4" COMMENT="" />
    <EXPORT ORDINAL="133" NAME="??4CAutoImportSetupDlg@@QAEAAV0@ABV0@@Z" PURGE="4" COMMENT="" />
    <EXPORT ORDINAL="134" NAME="??4CAutoImportStartupDlg@@QAEAAV0@ABV0@@Z" PURGE="4" COMMENT="" />
    <EXPORT ORDINAL="135" NAME="??4CBaseThreadTask@@QAEAAV0@ABV0@@Z" PURGE="4" COMMENT="" />
    <EXPORT ORDINAL="136" NAME="??4CCAGTimer@@QAEAAV0@ABV0@@Z" PURGE="4" COMMENT="" />
    <EXPORT ORDINAL="137" NAME="??4CCompactDlg@@QAEAAV0@ABV0@@Z" PURGE="4" COMMENT="" />
    <EXPORT ORDINAL="138" NAME="??4CCursorHolder@@QAEAAV0@ABV0@@Z" PURGE="4" COMMENT="" />
    <EXPORT ORDINAL="139" NAME="??4CDib@@QAEAAV0@AAV0@@Z" PURGE="4" COMMENT="" />
    <EXPORT ORDINAL="140" NAME="??4CGELPreview@@QAEAAV0@ABV0@@Z" PURGE="4" COMMENT="" />
    <EXPORT ORDINAL="141" NAME="??4CImport@@QAEAAV0@ABV0@@Z" PURGE="4" COMMENT="" />
    <EXPORT ORDINAL="142" NAME="??4CImportMeter@@QAEAAV0@ABV0@@Z" PURGE="4" COMMENT="" />
    <EXPORT ORDINAL="143" NAME="??4CImportTask@@QAEAAV0@ABV0@@Z" PURGE="4" COMMENT="" />
    <EXPORT ORDINAL="144" NAME="??4CKeywordMeterDlg@@QAEAAV0@ABV0@@Z" PURGE="4" COMMENT="" />
    <EXPORT ORDINAL="145" NAME="??4CLegacyResultsDlg@@QAEAAV0@ABV0@@Z" PURGE="4" COMMENT="" />
    <EXPORT ORDINAL="146" NAME="??4CMCCatalogInfoEntry@@QAEAAU0@ABU0@@Z" PURGE="4" COMMENT="" />
    <EXPORT ORDINAL="147" NAME="??4CMCCollectionEntry@@QAEAAV0@ABV0@@Z" PURGE="4" COMMENT="" />
    <EXPORT ORDINAL="148" NAME="??4CMCCustomEntry@@QAEAAU0@ABU0@@Z" PURGE="4" COMMENT="" />
    <EXPORT ORDINAL="149" NAME="??4CMediaPlayerPreview@@QAEAAV0@ABV0@@Z" PURGE="4" COMMENT="" />
    <EXPORT ORDINAL="150" NAME="??4CMediaScan@@QAEAAV0@ABV0@@Z" PURGE="4" COMMENT="" />
    <EXPORT ORDINAL="151" NAME="??4CMoveClipsMeterDlg@@QAEAAV0@ABV0@@Z" PURGE="4" COMMENT="" />
    <EXPORT ORDINAL="152" NAME="??4CMoveCollectionDlg@@QAEAAV0@ABV0@@Z" PURGE="4" COMMENT="" />
    <EXPORT ORDINAL="153" NAME="??4CMstoreDBRelease@@QAEAAV0@ABV0@@Z" PURGE="4" COMMENT="" />
    <EXPORT ORDINAL="154" NAME="??4CNewCollectionDlg@@QAEAAV0@ABV0@@Z" PURGE="4" COMMENT="" />
    <EXPORT ORDINAL="155" NAME="??4CNewCollectionMeterDlg@@QAEAAV0@ABV0@@Z" PURGE="4" COMMENT="" />
    <EXPORT ORDINAL="156" NAME="??4CPackageFile@@QAEAAV0@ABV0@@Z" PURGE="4" COMMENT="" />
    <EXPORT ORDINAL="157" NAME="??4CPasteClipsDlg@@QAEAAV0@ABV0@@Z" PURGE="4" COMMENT="" />
    <EXPORT ORDINAL="158" NAME="??4CPasteObject@@QAEAAV0@ABV0@@Z" PURGE="4" COMMENT="" />
    <EXPORT ORDINAL="159" NAME="??4CPreview@@QAEAAV0@ABV0@@Z" PURGE="4" COMMENT="" />
    <EXPORT ORDINAL="160" NAME="??4CPreviewManager@@QAEAAV0@ABV0@@Z" PURGE="4" COMMENT="" />
    <EXPORT ORDINAL="161" NAME="??4CScanMeter@@QAEAAV0@ABV0@@Z" PURGE="4" COMMENT="" />
    <EXPORT ORDINAL="162" NAME="??4CTreeView@@QAEAAV0@ABV0@@Z" PURGE="4" COMMENT="" />
    <EXPORT ORDINAL="163" NAME="??4CXmlDoc@@QAEAAV0@ABV0@@Z" PURGE="4" COMMENT="" />
    <EXPORT ORDINAL="164" NAME="??4CatalogInfo@@QAEAAV0@ABV0@@Z" PURGE="4" COMMENT="" />
    <EXPORT ORDINAL="165" NAME="??4ICagPreview@@QAEAAU0@ABU0@@Z" PURGE="4" COMMENT="" />
    <EXPORT ORDINAL="166" NAME="??4QueryListOfApps@@QAEAAV0@ABV0@@Z" PURGE="4" COMMENT="" />
    <EXPORT ORDINAL="167" NAME="??4RegistryIO@@QAEAAV0@ABV0@@Z" PURGE="4" COMMENT="" />
    <EXPORT ORDINAL="168" NAME="??A?$CAGTPX@PAG@@QAEAAPAGH@Z" PURGE="4" COMMENT="" />
    <EXPORT ORDINAL="169" NAME="??A?$CAGTPX@PAG@@QBEAAPAGH@Z" PURGE="4" COMMENT="" />
    <EXPORT ORDINAL="170" NAME="??A?$CAGTPX@PAUCImportTaskNode@@@@QAEAAPAUCImportTaskNode@@H@Z" PURGE="4" COMMENT="" />
    <EXPORT ORDINAL="171" NAME="??A?$CAGTPX@PAUCImportTaskNode@@@@QBEAAPAUCImportTaskNode@@H@Z" PURGE="4" COMMENT="" />
    <EXPORT ORDINAL="172" NAME="??A?$CAGTPX@PAVCatalogInfo@@@@QAEAAPAVCatalogInfo@@H@Z" PURGE="4" COMMENT="" />
    <EXPORT ORDINAL="173" NAME="??A?$CAGTPX@PAVCatalogInfo@@@@QBEAAPAVCatalogInfo@@H@Z" PURGE="4" COMMENT="" />
    <EXPORT ORDINAL="174" NAME="??A?$CAGTPX@UCMapEntry@@@@QAEAAUCMapEntry@@H@Z" PURGE="4" COMMENT="" />
    <EXPORT ORDINAL="175" NAME="??A?$CAGTPX@UCMapEntry@@@@QBEAAUCMapEntry@@H@Z" PURGE="4" COMMENT="" />
    <EXPORT ORDINAL="176" NAME="??ACMsoString@@QBEGH@Z" PURGE="4" COMMENT="" />
    <EXPORT ORDINAL="177" NAME="??BCDib@@QBEPAUtagBITMAPINFO@@XZ" PURGE="0" COMMENT="" />
    <EXPORT ORDINAL="178" NAME="??BCMsoString@@QBEPBGXZ" PURGE="0" COMMENT="" />
    <EXPORT ORDINAL="179" NAME="??BCXmlDoc@@QAEPAUIXMLDOMDocument@@XZ" PURGE="0" COMMENT="" />
    <EXPORT ORDINAL="180" NAME="??BCXmlDoc@@QAEPBGXZ" PURGE="0" COMMENT="" />
    <EXPORT ORDINAL="181" NAME="??_7CBaseThreadTask@@6B@" PURGE="-1" COMMENT="" />
    <EXPORT ORDINAL="182" NAME="??_7CCompactDlg@@6B@" PURGE="-1" COMMENT="" />
    <EXPORT ORDINAL="183" NAME="??_7CGELPreview@@6B@" PURGE="-1" COMMENT="" />
    <EXPORT ORDINAL="184" NAME="??_7CImportTask@@6B@" PURGE="-1" COMMENT="" />
    <EXPORT ORDINAL="185" NAME="??_7CMediaPlayerPreview@@6B@" PURGE="-1" COMMENT="" />
    <EXPORT ORDINAL="186" NAME="??_7CMessagePreview@@6B@" PURGE="-1" COMMENT="" />
    <EXPORT ORDINAL="187" NAME="??_7CMoveCollectionDlg@@6B@" PURGE="-1" COMMENT="" />
    <EXPORT ORDINAL="188" NAME="??_7CMsoString@@6B@" PURGE="-1" COMMENT="" />
    <EXPORT ORDINAL="189" NAME="??_7CNewCollectionDlg@@6B@" PURGE="-1" COMMENT="" />
    <EXPORT ORDINAL="190" NAME="??_7CPreview@@6B@" PURGE="-1" COMMENT="" />
    <EXPORT ORDINAL="191" NAME="??_7CPreviewManager@@6B@" PURGE="-1" COMMENT="" />
    <EXPORT ORDINAL="192" NAME="??_7CTreeView@@6B@" PURGE="-1" COMMENT="" />
    <EXPORT ORDINAL="193" NAME="??_7CatalogInfo@@6B@" PURGE="-1" COMMENT="" />
    <EXPORT ORDINAL="194" NAME="??_7ICagPreview@@6B@" PURGE="40502" COMMENT="" />
    <EXPORT ORDINAL="195" NAME="??_FCBaseThreadTask@@QAEXXZ" PURGE="0" COMMENT="" />
    <EXPORT ORDINAL="196" NAME="?Abort@CCompactDlg@@QAEXXZ" PURGE="0" COMMENT="" />
    <EXPORT ORDINAL="197" NAME="?Abort@CImportMeter@@QAEXXZ" PURGE="0" COMMENT="" />
    <EXPORT ORDINAL="198" NAME="?Abort@CKeywordMeterDlg@@QAEXXZ" PURGE="0" COMMENT="" />
    <EXPORT ORDINAL="199" NAME="?Abort@CMoveClipsMeterDlg@@QAEXXZ" PURGE="0" COMMENT="" />
    <EXPORT ORDINAL="200" NAME="?Abort@CNewCollectionMeterDlg@@QAEXXZ" PURGE="0" COMMENT="" />
    <EXPORT ORDINAL="201" NAME="?Abort@CPasteClipsDlg@@QAEXXZ" PURGE="0" COMMENT="" />
    <EXPORT ORDINAL="202" NAME="?Abort@CScanMeter@@QAEXXZ" PURGE="0" COMMENT="" />
    <EXPORT ORDINAL="203" NAME="?AddChild@CTreeView@@QAEHABQAU_TREEITEM@@@Z" PURGE="4" COMMENT="" />
    <EXPORT ORDINAL="204" NAME="?AddDirToList@CMediaScan@@QAEJPBG@Z" PURGE="4" COMMENT="" />
    <EXPORT ORDINAL="205" NAME="?AddMergedSource@CMStoreSApp@@QAEJPBUIMsoSearchScopeEx@@PBG1@Z" PURGE="12" COMMENT="" />
    <EXPORT ORDINAL="206" NAME="?AddNewContentFromDirectory@CKeywordMeterDlg@@AAEJQBGPBG@Z" PURGE="8" COMMENT="" />
    <EXPORT ORDINAL="207" NAME="?AddNewFilesOfType@CKeywordMeterDlg@@AAEJQBGPBG1AAVCPackageFile@@@Z" PURGE="16" COMMENT="" />
    <EXPORT ORDINAL="208" NAME="?AddOneScope@CTreeView@@AAEJPBUIMsoSearchScopeEx@@H@Z" PURGE="8" COMMENT="" />
    <EXPORT ORDINAL="209" NAME="?AddRef@CBaseThreadTask@@UAEJXZ" PURGE="0" COMMENT="" />
    <EXPORT ORDINAL="210" NAME="?AddRef@CCompactDlg@@UAGKXZ" PURGE="4" COMMENT="" />
    <EXPORT ORDINAL="211" NAME="?AddTaskItem@CAutoImpTaskQueue@@QAEXHPBG0@Z" PURGE="12" COMMENT="" />
    <EXPORT ORDINAL="212" NAME="?AddToImportPackage@CKeywordMeterDlg@@AAEJPAGHPBGAAVCPackageFile@@@Z" PURGE="16" COMMENT="" />
    <EXPORT ORDINAL="213" NAME="?AddToResultsView@CPasteObject@@AAEJPAUIRowset@@@Z" PURGE="4" COMMENT="" />
    <EXPORT ORDINAL="214" NAME="?AdvertiseClipFormats@CClipGalleryDataObject@@QAGJKPAUCLIPRECORD@@PBG@Z" PURGE="16" COMMENT="" />
    <EXPORT ORDINAL="215" NAME="?AlertBox@CMStoreSApp@@QAEHIHHHHJPAPAG@Z" PURGE="28" COMMENT="" />
    <EXPORT ORDINAL="216" NAME="?AlertBox@CMStoreSApp@@QAEHPBGHHHHJPAPAG@Z" PURGE="28" COMMENT="" />
    <EXPORT ORDINAL="217" NAME="?AppendImportDirectory@CImportMeter@@QAEJPBG@Z" PURGE="4" COMMENT="" />
    <EXPORT ORDINAL="218" NAME="?AssertValidIndex@CMsoString@@QBEXH@Z" PURGE="4" COMMENT="" />
    <EXPORT ORDINAL="219" NAME="?AssertValidState@CMsoString@@QBEXXZ" PURGE="0" COMMENT="" />
    <EXPORT ORDINAL="220" NAME="?AssociateSearchClient@CThumbGallery@@QAEXPAVCSearchClient@@@Z" PURGE="4" COMMENT="" />
    <EXPORT ORDINAL="221" NAME="?AssociateThumblist@CSearchClient@@QAEXPAVCThumbGallery@@@Z" PURGE="4" COMMENT="" />
    <EXPORT ORDINAL="222" NAME="?AutoImportStartup@CMStoreSApp@@QAEXHH@Z" PURGE="8" COMMENT="" />
    <EXPORT ORDINAL="223" NAME="?AutoLayoutAutoImportSetup@CAutoImportSetupDlg@@QAEXXZ" PURGE="0" COMMENT="" />
    <EXPORT ORDINAL="224" NAME="?AutoPlay@CMediaPlayerPreview@@QAEXH@Z" PURGE="4" COMMENT="" />
    <EXPORT ORDINAL="225" NAME="?BeginCompact@CCompactDlg@@QAEXXZ" PURGE="0" COMMENT="" />
    <EXPORT ORDINAL="226" NAME="?BeginScan@CMediaScan@@QAEHXZ" PURGE="0" COMMENT="" />
    <EXPORT ORDINAL="227" NAME="?BindCatalog@CMStoreSApp@@QAEJPAUIMsoSearchScopeEx@@PAGH1HPBG@Z" PURGE="24" COMMENT="" />
    <EXPORT ORDINAL="228" NAME="?BodyAppendCost@CXmlDoc@@QAEJTtagCY@@K@Z" PURGE="12" COMMENT="" />
    <EXPORT ORDINAL="229" NAME="?BodyAppendDouble@CXmlDoc@@QAEJNK@Z" PURGE="12" COMMENT="" />
    <EXPORT ORDINAL="230" NAME="?BodyAppendEncodedStr@CXmlDoc@@QAEJPBG@Z" PURGE="4" COMMENT="" />
    <EXPORT ORDINAL="231" NAME="?BodyAppendFileTime@CXmlDoc@@QAEJABU_FILETIME@@K@Z" PURGE="8" COMMENT="" />
    <EXPORT ORDINAL="232" NAME="?BodyAppendGUID@CXmlDoc@@QAEJABU_GUID@@@Z" PURGE="4" COMMENT="" />
    <EXPORT ORDINAL="233" NAME="?BodyAppendInt@CXmlDoc@@QAEJH@Z" PURGE="4" COMMENT="" />
    <EXPORT ORDINAL="234" NAME="?BodyAppendLCID@CXmlDoc@@QAEJK@Z" PURGE="4" COMMENT="" />
    <EXPORT ORDINAL="235" NAME="?BodyAppendStr@CXmlDoc@@QAEJPBG@Z" PURGE="4" COMMENT="" />
    <EXPORT ORDINAL="236" NAME="?BodyAppendULONGLONG@CXmlDoc@@QAEJ_K@Z" PURGE="8" COMMENT="" />
    <EXPORT ORDINAL="237" NAME="?BodyInit@CXmlDoc@@QAEJXZ" PURGE="0" COMMENT="" />
    <EXPORT ORDINAL="238" NAME="?BodyRemoveStr@CXmlDoc@@QAEJPBG@Z" PURGE="4" COMMENT="" />
    <EXPORT ORDINAL="239" NAME="?BuildNewPath@CKeywordMeterDlg@@AAEJPBGPAGH@Z" PURGE="12" COMMENT="" />
    <EXPORT ORDINAL="240" NAME="?BuildNewPath@CNewCollectionMeterDlg@@AAEJPBGPAGH@Z" PURGE="12" COMMENT="" />
    <EXPORT ORDINAL="241" NAME="?BulkImportToCollections@CKeywordMeterDlg@@QAEXXZ" PURGE="0" COMMENT="" />
    <EXPORT ORDINAL="242" NAME="?CacheTextMetrics@CThumbnail@@SAXPAUHDC__@@@Z" PURGE="0" COMMENT="" />
    <EXPORT ORDINAL="243" NAME="?CanPasteToTreeView@CPasteObject@@AAEHPBU_POINTL@@@Z" PURGE="4" COMMENT="" />
    <EXPORT ORDINAL="244" NAME="?CchGetLength@CMsoString@@UBGHXZ" PURGE="4" COMMENT="" />
    <EXPORT ORDINAL="245" NAME="?CchWzDecodeInt@CMsoString@@UAGHHH@Z" PURGE="12" COMMENT="" />
    <EXPORT ORDINAL="246" NAME="?CchWzDecodeUint@CMsoString@@UAGHIH@Z" PURGE="12" COMMENT="" />
    <EXPORT ORDINAL="247" NAME="?CheckDirsInTreeView@CAutoImportSetupDlg@@AAEJPBG@Z" PURGE="4" COMMENT="" />
    <EXPORT ORDINAL="248" NAME="?CheckMoveOrCopyCollectionStatus@CMStoreSApp@@QAEHI@Z" PURGE="4" COMMENT="" />
    <EXPORT ORDINAL="249" NAME="?ChildHasMedia@CMediaScan@@QAEHK@Z" PURGE="4" COMMENT="" />
    <EXPORT ORDINAL="250" NAME="?Clear@CMCCatalogInfoEntry@@QAEXXZ" PURGE="0" COMMENT="" />
    <EXPORT ORDINAL="251" NAME="?Clear@CMCCollectionEntry@@QAEXXZ" PURGE="0" COMMENT="" />
    <EXPORT ORDINAL="252" NAME="?Clear@CMCCustomEntry@@QAEXXZ" PURGE="0" COMMENT="" />
    <EXPORT ORDINAL="253" NAME="?Clear@CPreview@@SAXPAUHDC__@@ABUtagRECT@@@Z" PURGE="0" COMMENT="" />
    <EXPORT ORDINAL="254" NAME="?Clear@CXmlDoc@@QAEXXZ" PURGE="0" COMMENT="" />
    <EXPORT ORDINAL="255" NAME="?CloneWithCollectionsOnly@CMediaScan@@QAEPAV1@XZ" PURGE="0" COMMENT="" />
    <EXPORT ORDINAL="256" NAME="?Close@RegistryIO@@QAEXXZ" PURGE="0" COMMENT="" />
    <EXPORT ORDINAL="257" NAME="?CollectionAlreadyExists@@YAJPAUIUnknown@@PBG@Z" PURGE="0" COMMENT="" />
    <EXPORT ORDINAL="258" NAME="?Compact@CCompactDlg@@AAEXPBUIMsoSearchScopeEx@@H@Z" PURGE="8" COMMENT="" />
    <EXPORT ORDINAL="259" NAME="?ConstructorError@CMediaScan@@QBEHXZ" PURGE="0" COMMENT="" />
    <EXPORT ORDINAL="260" NAME="?ContainsSpecialDir@CMediaScan@@QAEHPBGW4eSpecialDir@@@Z" PURGE="8" COMMENT="" />
    <EXPORT ORDINAL="261" NAME="?CopyDib@CDib@@QAEJPAEIPAI@Z" PURGE="12" COMMENT="" />
    <EXPORT ORDINAL="262" NAME="?CopySelectedWorkpaneClipsToCollection@CMStoreSApp@@QAEJXZ" PURGE="0" COMMENT="" />
    <EXPORT ORDINAL="263" NAME="?CountAllImportableFilesInDir@CMediaScan@@AAEHQBG@Z" PURGE="4" COMMENT="" />
    <EXPORT ORDINAL="264" NAME="?CountAllImportableFilesInSubDirs@CMediaScan@@QAEHXZ" PURGE="0" COMMENT="" />
    <EXPORT ORDINAL="265" NAME="?CountAllSubDirs@CMediaScan@@QAEHXZ" PURGE="0" COMMENT="" />
    <EXPORT ORDINAL="266" NAME="?CountCheckMarks@CAutoImportSetupDlg@@QAEHXZ" PURGE="0" COMMENT="" />
    <EXPORT ORDINAL="267" NAME="?CountCollectionDirs@CMediaScan@@QAEHXZ" PURGE="0" COMMENT="" />
    <EXPORT ORDINAL="268" NAME="?CountFilesOfType@CMediaScan@@CAHQBG0@Z" PURGE="0" COMMENT="" />
    <EXPORT ORDINAL="269" NAME="?CountRootDirectoriesForAllDrives@CMediaScan@@AAEHXZ" PURGE="0" COMMENT="" />
    <EXPORT ORDINAL="270" NAME="?CountRootDirs@CMediaScan@@CAHPBG@Z" PURGE="0" COMMENT="" />
    <EXPORT ORDINAL="271" NAME="?CountRootSubDirs@CMediaScan@@AAEHXZ" PURGE="0" COMMENT="" />
    <EXPORT ORDINAL="272" NAME="?CountValidSubDirs@CMediaScan@@AAEHPBGAAH@Z" PURGE="8" COMMENT="" />
    <EXPORT ORDINAL="273" NAME="?CreateCollection@CPackageFile@@QAEJPAUIUnknown@@PAGPBG1HPAPAUIRowset@@@Z" PURGE="24" COMMENT="" />
    <EXPORT ORDINAL="274" NAME="?CreateFromHBitmap@CDib@@QAE_NPAUHBITMAP__@@@Z" PURGE="4" COMMENT="" />
    <EXPORT ORDINAL="275" NAME="?CreateFullPathFromHTreeItem@CAutoImportSetupDlg@@AAEXPAU_TREEITEM@@PAGH@Z" PURGE="12" COMMENT="" />
    <EXPORT ORDINAL="276" NAME="?CreateNewClipFilepath@CPasteObject@@AAEPAGPBG@Z" PURGE="4" COMMENT="" />
    <EXPORT ORDINAL="277" NAME="?CreateNewSubCollection@CImport@@AAEJPBG@Z" PURGE="4" COMMENT="" />
    <EXPORT ORDINAL="278" NAME="?CreatePreviewWindow@CPreview@@IAEPAUHWND__@@PAU2@@Z" PURGE="4" COMMENT="" />
    <EXPORT ORDINAL="279" NAME="?CreateUserCollections@CNewCollectionMeterDlg@@QAEXXZ" PURGE="0" COMMENT="" />
    <EXPORT ORDINAL="280" NAME="?DatabaseWaitCursorOn@CMStoreSApp@@QAEXXZ" PURGE="0" COMMENT="" />
    <EXPORT ORDINAL="281" NAME="?Delete@?$CAGTPX@PAG@@QAEXHH@Z" PURGE="8" COMMENT="" />
    <EXPORT ORDINAL="282" NAME="?Delete@?$CAGTPX@PAUCImportTaskNode@@@@QAEXHH@Z" PURGE="8" COMMENT="" />
    <EXPORT ORDINAL="283" NAME="?Delete@?$CAGTPX@PAVCatalogInfo@@@@QAEXHH@Z" PURGE="8" COMMENT="" />
    <EXPORT ORDINAL="284" NAME="?Delete@?$CAGTPX@UCMapEntry@@@@QAEXHH@Z" PURGE="8" COMMENT="" />
    <EXPORT ORDINAL="285" NAME="?DeleteHItem@CTreeView@@QAEHPAU_TREEITEM@@@Z" PURGE="4" COMMENT="" />
    <EXPORT ORDINAL="286" NAME="?DeleteSectionKey@RegistryIO@@QAE_NPBD@Z" PURGE="4" COMMENT="" />
    <EXPORT ORDINAL="287" NAME="?DeleteSectionTree@RegistryIO@@QAE_NPBD@Z" PURGE="4" COMMENT="" />
    <EXPORT ORDINAL="288" NAME="?DeleteSelectedItems@CMStoreSApp@@QAEJXZ" PURGE="0" COMMENT="" />
    <EXPORT ORDINAL="289" NAME="?DeleteValue@RegistryIO@@QAE_NPBD@Z" PURGE="4" COMMENT="" />
    <EXPORT ORDINAL="290" NAME="?Detach@CDib@@QAEXXZ" PURGE="0" COMMENT="" />
    <EXPORT ORDINAL="291" NAME="?Detach@CThumbnail@@QAEXXZ" PURGE="0" COMMENT="" />
    <EXPORT ORDINAL="292" NAME="?DetermineAllFixedDrives@CMediaScan@@QAEHXZ" PURGE="0" COMMENT="" />
    <EXPORT ORDINAL="293" NAME="?DirectoryListImport@CPasteObject@@AAGJPBG0@Z" PURGE="12" COMMENT="" />
    <EXPORT ORDINAL="294" NAME="?DisconnectDatabase@CMStoreSApp@@QAEXXZ" PURGE="0" COMMENT="" />
    <EXPORT ORDINAL="295" NAME="?DisplayCollectionExistsAlert@CNewCollectionDlg@@QAEXXZ" PURGE="0" COMMENT="" />
    <EXPORT ORDINAL="296" NAME="?DisplayInvalidCollectionName@CNewCollectionDlg@@QAEXPBG@Z" PURGE="4" COMMENT="" />
    <EXPORT ORDINAL="297" NAME="?DisplayMoveErrorAlert@CTreeView@@AAEXKPBG@Z" PURGE="8" COMMENT="" />
    <EXPORT ORDINAL="298" NAME="?DisplayReservedCollectionAlert@CNewCollectionDlg@@QAEXPBG@Z" PURGE="4" COMMENT="" />
    <EXPORT ORDINAL="299" NAME="?DlmInit@CThumbGallery@@QAEXXZ" PURGE="0" COMMENT="" />
    <EXPORT ORDINAL="300" NAME="?DoAutoImport@CTreeView@@AAEJPAU_TREEITEM@@@Z" PURGE="4" COMMENT="" />
    <EXPORT ORDINAL="301" NAME="?DoTreeContextMenu@CTreeView@@UAEXPAUtagNMHDR@@PAU_TREEITEM@@UtagPOINT@@@Z" PURGE="16" COMMENT="" />
    <EXPORT ORDINAL="302" NAME="?Done@CCompactDlg@@QBEHXZ" PURGE="0" COMMENT="" />
    <EXPORT ORDINAL="303" NAME="?Done@CImportMeter@@QBEHXZ" PURGE="0" COMMENT="" />
    <EXPORT ORDINAL="304" NAME="?Done@CKeywordMeterDlg@@QBEHXZ" PURGE="0" COMMENT="" />
    <EXPORT ORDINAL="305" NAME="?Done@CMoveClipsMeterDlg@@QBEHXZ" PURGE="0" COMMENT="" />
    <EXPORT ORDINAL="306" NAME="?Done@CNewCollectionMeterDlg@@QBEHXZ" PURGE="0" COMMENT="" />
    <EXPORT ORDINAL="307" NAME="?Done@CPasteClipsDlg@@QBEHXZ" PURGE="0" COMMENT="" />
    <EXPORT ORDINAL="308" NAME="?Done@CScanMeter@@QBEHXZ" PURGE="0" COMMENT="" />
    <EXPORT ORDINAL="309" NAME="?DontShowAgain@CAutoImportStartupDlg@@QBEHXZ" PURGE="0" COMMENT="" />
    <EXPORT ORDINAL="310" NAME="?DrawBorder@CPreviewManager@@CAXPAUHDC__@@PBU_rec@@@Z" PURGE="0" COMMENT="" />
    <EXPORT ORDINAL="311" NAME="?DrawClipTip@CThumbnail@@ABEXPAUHDC__@@ABUtagRECT@@HW4EClipTipAlignment@@@Z" PURGE="16" COMMENT="" />
    <EXPORT ORDINAL="312" NAME="?DriveTypeExists@QueryListOfApps@@QBE_NKPAH@Z" PURGE="8" COMMENT="" />
    <EXPORT ORDINAL="313" NAME="?Empty@?$CAGTPX@PAG@@QAEXXZ" PURGE="0" COMMENT="" />
    <EXPORT ORDINAL="314" NAME="?Empty@?$CAGTPX@PAUCImportTaskNode@@@@QAEXXZ" PURGE="0" COMMENT="" />
    <EXPORT ORDINAL="315" NAME="?Empty@?$CAGTPX@PAVCatalogInfo@@@@QAEXXZ" PURGE="0" COMMENT="" />
    <EXPORT ORDINAL="316" NAME="?Empty@?$CAGTPX@UCMapEntry@@@@QAEXXZ" PURGE="0" COMMENT="" />
    <EXPORT ORDINAL="317" NAME="?Empty@CMsoString@@UAGXXZ" PURGE="4" COMMENT="" />
    <EXPORT ORDINAL="318" NAME="?EnactSiblingRule@CMediaScan@@AAEXXZ" PURGE="0" COMMENT="" />
    <EXPORT ORDINAL="319" NAME="?EnsureDataConnection@CMStoreSApp@@QAEJXZ" PURGE="0" COMMENT="" />
    <EXPORT ORDINAL="320" NAME="?EnsureVisible@CTreeView@@QAEHABQAU_TREEITEM@@@Z" PURGE="4" COMMENT="" />
    <EXPORT ORDINAL="321" NAME="?EnumKeys@RegistryIO@@QBE_NHPADH@Z" PURGE="12" COMMENT="" />
    <EXPORT ORDINAL="322" NAME="?ErrorAlertBox@CMStoreSApp@@QAEHIJ@Z" PURGE="8" COMMENT="" />
    <EXPORT ORDINAL="323" NAME="?ExamineDirForMedia@CMediaScan@@QAEJQBGH@Z" PURGE="8" COMMENT="" />
    <EXPORT ORDINAL="324" NAME="?ExamineSubDirForNewMedia@CImport@@AAEJPBG@Z" PURGE="4" COMMENT="" />
    <EXPORT ORDINAL="325" NAME="?ExamineSubDirsForNewMedia@CImportTask@@AAEXXZ" PURGE="0" COMMENT="" />
    <EXPORT ORDINAL="326" NAME="?ExcecuteBatchAdd@CKeywordMeterDlg@@AAEJAAVCPackageFile@@@Z" PURGE="4" COMMENT="" />
    <EXPORT ORDINAL="327" NAME="?Expand@CTreeView@@QAEHABQAU_TREEITEM@@I@Z" PURGE="8" COMMENT="" />
    <EXPORT ORDINAL="328" NAME="?FActiveDatabaseConnection@CMStoreSApp@@QBEHXZ" PURGE="0" COMMENT="" />
    <EXPORT ORDINAL="329" NAME="?FAddEntry@CWzToIntMap@@QAE_NPBGH@Z" PURGE="8" COMMENT="" />
    <EXPORT ORDINAL="330" NAME="?FAddKeywords@CMoveCollectionDlg@@QBEHXZ" PURGE="0" COMMENT="" />
    <EXPORT ORDINAL="331" NAME="?FAllowDragDrop@CTreeView@@QBEHXZ" PURGE="0" COMMENT="" />
    <EXPORT ORDINAL="332" NAME="?FAppend@?$CAGTPX@PAG@@QAEHPBQAG@Z" PURGE="4" COMMENT="" />
    <EXPORT ORDINAL="333" NAME="?FAppend@?$CAGTPX@PAUCImportTaskNode@@@@QAEHPBQAUCImportTaskNode@@@Z" PURGE="4" COMMENT="" />
    <EXPORT ORDINAL="334" NAME="?FAppend@?$CAGTPX@PAVCatalogInfo@@@@QAEHPBQAVCatalogInfo@@@Z" PURGE="4" COMMENT="" />
    <EXPORT ORDINAL="335" NAME="?FAppend@?$CAGTPX@UCMapEntry@@@@QAEHPBUCMapEntry@@@Z" PURGE="4" COMMENT="" />
    <EXPORT ORDINAL="336" NAME="?FAppendFromResource@CMsoString@@UAGHPAUHINSTANCE__@@H@Z" PURGE="12" COMMENT="" />
    <EXPORT ORDINAL="337" NAME="?FAppendFromResourceWz@CMsoString@@UAGHPAUHINSTANCE__@@HPBG@Z" PURGE="16" COMMENT="" />
    <EXPORT ORDINAL="338" NAME="?FAppendInt@CMsoString@@UAGHHH@Z" PURGE="12" COMMENT="" />
    <EXPORT ORDINAL="339" NAME="?FAppendRgwch@CMsoString@@UAGHPBGH@Z" PURGE="12" COMMENT="" />
    <EXPORT ORDINAL="340" NAME="?FAppendStr@CMsoString@@UAGHPBUIMsoString@@@Z" PURGE="8" COMMENT="" />
    <EXPORT ORDINAL="341" NAME="?FAppendWch@CMsoString@@UAGHG@Z" PURGE="8" COMMENT="" />
    <EXPORT ORDINAL="342" NAME="?FAppendWz@CMsoString@@UAGHPBG@Z" PURGE="8" COMMENT="" />
    <EXPORT ORDINAL="343" NAME="?FCanEditCollectionLabel@CTreeView@@UAEHPAU_TREEITEM@@@Z" PURGE="4" COMMENT="" />
    <EXPORT ORDINAL="344" NAME="?FCanShowResults@CMoveCollectionDlg@@UAGHXZ" PURGE="4" COMMENT="" />
    <EXPORT ORDINAL="345" NAME="?FCanShowResults@CNewCollectionDlg@@UAGHXZ" PURGE="4" COMMENT="" />
    <EXPORT ORDINAL="346" NAME="?FClear@CThumbnail@@QAEHXZ" PURGE="0" COMMENT="" />
    <EXPORT ORDINAL="347" NAME="?FClear@CWzToIntMap@@QAE_NXZ" PURGE="0" COMMENT="" />
    <EXPORT ORDINAL="348" NAME="?FCollectionListWasTrimmed@CNewCollectionMeterDlg@@QBEHXZ" PURGE="0" COMMENT="" />
    <EXPORT ORDINAL="349" NAME="?FCommitRename@CTreeView@@UAEHPAU_TREEITEM@@PBGH@Z" PURGE="12" COMMENT="" />
    <EXPORT ORDINAL="350" NAME="?FCompact@?$CAGTPX@PAG@@QAEHH@Z" PURGE="4" COMMENT="" />
    <EXPORT ORDINAL="351" NAME="?FCompact@?$CAGTPX@PAUCImportTaskNode@@@@QAEHH@Z" PURGE="4" COMMENT="" />
    <EXPORT ORDINAL="352" NAME="?FCompact@?$CAGTPX@PAVCatalogInfo@@@@QAEHH@Z" PURGE="4" COMMENT="" />
    <EXPORT ORDINAL="353" NAME="?FCompact@?$CAGTPX@UCMapEntry@@@@QAEHH@Z" PURGE="4" COMMENT="" />
    <EXPORT ORDINAL="354" NAME="?FCopyFromResource@CMsoString@@UAGHPAUHINSTANCE__@@H@Z" PURGE="12" COMMENT="" />
    <EXPORT ORDINAL="355" NAME="?FCopyFromTmc@CMsoString@@UAGHI@Z" PURGE="8" COMMENT="" />
    <EXPORT ORDINAL="356" NAME="?FCopyRgwch@CMsoString@@UAGHPBGH@Z" PURGE="12" COMMENT="" />
    <EXPORT ORDINAL="357" NAME="?FCopyStr@CMsoString@@UAGHPBUIMsoString@@@Z" PURGE="8" COMMENT="" />
    <EXPORT ORDINAL="358" NAME="?FCopyWz@CMsoString@@UAGHPBG@Z" PURGE="8" COMMENT="" />
    <EXPORT ORDINAL="359" NAME="?FCopyWzCch@CMsoString@@UAGHPBGH@Z" PURGE="12" COMMENT="" />
    <EXPORT ORDINAL="360" NAME="?FCreateMeter@CCompactDlg@@QAEHPAUHWND__@@PBU_rec@@PAPAX@Z" PURGE="12" COMMENT="" />
    <EXPORT ORDINAL="361" NAME="?FCreateMeter@CImportMeter@@QAEHPAUHWND__@@PBU_rec@@PAPAX@Z" PURGE="12" COMMENT="" />
    <EXPORT ORDINAL="362" NAME="?FCreateMeter@CKeywordMeterDlg@@QAEHPAUHWND__@@PBU_rec@@@Z" PURGE="8" COMMENT="" />
    <EXPORT ORDINAL="363" NAME="?FCreateMeter@CMoveClipsMeterDlg@@QAEHPAUHWND__@@PBU_rec@@PAPAX@Z" PURGE="12" COMMENT="" />
    <EXPORT ORDINAL="364" NAME="?FCreateMeter@CNewCollectionMeterDlg@@QAEHPAUHWND__@@PBU_rec@@PAPAX@Z" PURGE="12" COMMENT="" />
    <EXPORT ORDINAL="365" NAME="?FCreateMeter@CPasteClipsDlg@@QAEHPAUHWND__@@PBU_rec@@PAPAX@Z" PURGE="12" COMMENT="" />
    <EXPORT ORDINAL="366" NAME="?FCreateMeter@CScanMeter@@QAEHPAUHWND__@@PBU_rec@@PAPAX@Z" PURGE="12" COMMENT="" />
    <EXPORT ORDINAL="367" NAME="?FCreateStatusWindow@CAutoImportSetupDlg@@QAEHXZ" PURGE="0" COMMENT="" />
    <EXPORT ORDINAL="368" NAME="?FCreateTree@CTreeView@@QAEHPAUHWND__@@PBU_rec@@PAPAXPAUICollectionBrowser@@@Z" PURGE="16" COMMENT="" />
    <EXPORT ORDINAL="369" NAME="?FCursorOverTree@CTreeView@@QAEHXZ" PURGE="0" COMMENT="" />
    <EXPORT ORDINAL="370" NAME="?FDebugMessage@CMsoString@@UAGHPAUMSOINST@@IIJ@Z" PURGE="20" COMMENT="" />
    <EXPORT ORDINAL="371" NAME="?FDebugMessage@CThumbGallery@@QAGHPAUMSOINST@@IIJ@Z" PURGE="20" COMMENT="" />
    <EXPORT ORDINAL="372" NAME="?FDisableAlerts@CMStoreSApp@@QBEHXZ" PURGE="0" COMMENT="" />
    <EXPORT ORDINAL="373" NAME="?FDoDefaultSelection@CMoveCollectionDlg@@QAE_NXZ" PURGE="0" COMMENT="" />
    <EXPORT ORDINAL="374" NAME="?FDoDefaultSelection@CNewCollectionDlg@@QAE_NXZ" PURGE="0" COMMENT="" />
    <EXPORT ORDINAL="375" NAME="?FDraw@CThumbnail@@QBEHPAUHDC__@@ABUtagRECT@@HK@Z" PURGE="16" COMMENT="" />
    <EXPORT ORDINAL="376" NAME="?FDrawBorder@CThumbnail@@CAHPAUHDC__@@ABUtagRECT@@@Z" PURGE="0" COMMENT="" />
    <EXPORT ORDINAL="377" NAME="?FDrawDib@CThumbnail@@ABEHPAUHDC__@@ABUtagRECT@@1@Z" PURGE="12" COMMENT="" />
    <EXPORT ORDINAL="378" NAME="?FDrawIcon@CThumbnail@@ABEHPAUHDC__@@ABUtagRECT@@@Z" PURGE="8" COMMENT="" />
    <EXPORT ORDINAL="379" NAME="?FECommerceInProgress@CMStoreSApp@@QBEHXZ" PURGE="0" COMMENT="" />
    <EXPORT ORDINAL="380" NAME="?FEnsureBuffer@CMsoString@@AAEHH@Z" PURGE="4" COMMENT="" />
    <EXPORT ORDINAL="381" NAME="?FEntryAlreadyExists@CLegacyDlg@@QAEHPBD0@Z" PURGE="8" COMMENT="" />
    <EXPORT ORDINAL="382" NAME="?FEqualStr@CMsoString@@UBGHPBUIMsoString@@H@Z" PURGE="12" COMMENT="" />
    <EXPORT ORDINAL="383" NAME="?FEqualWz@CMsoString@@QBEHPBG@Z" PURGE="4" COMMENT="" />
    <EXPORT ORDINAL="384" NAME="?FEqualWz@CMsoString@@UBGHPBGH@Z" PURGE="12" COMMENT="" />
    <EXPORT ORDINAL="385" NAME="?FEqualWzNoCase@CMsoString@@QBEHPBG@Z" PURGE="4" COMMENT="" />
    <EXPORT ORDINAL="386" NAME="?FEqualWzSubstr@CMsoString@@UBGHPBGHH@Z" PURGE="16" COMMENT="" />
    <EXPORT ORDINAL="387" NAME="?FEqualWzSubstrTail@CMsoString@@UBGHPBGHHH@Z" PURGE="20" COMMENT="" />
    <EXPORT ORDINAL="388" NAME="?FEqualWzTail@CMsoString@@QBEHPBG@Z" PURGE="4" COMMENT="" />
    <EXPORT ORDINAL="389" NAME="?FEqualWzTail@CMsoString@@UBGHPBGH@Z" PURGE="12" COMMENT="" />
    <EXPORT ORDINAL="390" NAME="?FEqualWzTailNoCase@CMsoString@@QBEHPBG@Z" PURGE="4" COMMENT="" />
    <EXPORT ORDINAL="391" NAME="?FFindValue@CWzToIntMap@@QAE_NPBGPAH@Z" PURGE="8" COMMENT="" />
    <EXPORT ORDINAL="392" NAME="?FGetData@CMsoString@@UBGHPAGPAH@Z" PURGE="12" COMMENT="" />
    <EXPORT ORDINAL="393" NAME="?FGetEntryRect@CThumbGallery@@QAEHHAAUtagRECT@@@Z" PURGE="8" COMMENT="" />
    <EXPORT ORDINAL="394" NAME="?FGetGrabFocus@CTreeView@@QBEHXZ" PURGE="0" COMMENT="" />
    <EXPORT ORDINAL="395" NAME="?FGetPendingFocus@CTreeView@@QBEHXZ" PURGE="0" COMMENT="" />
    <EXPORT ORDINAL="396" NAME="?FGrab@CMstoreDBConnection@@QAEHXZ" PURGE="0" COMMENT="" />
    <EXPORT ORDINAL="397" NAME="?FGrabDatabaseConnection@CMStoreSApp@@QAEHXZ" PURGE="0" COMMENT="" />
    <EXPORT ORDINAL="398" NAME="?FHadConnection@CMstoreDBRelease@@QBEHXZ" PURGE="0" COMMENT="" />
    <EXPORT ORDINAL="399" NAME="?FHasConnection@CMstoreDBConnection@@QBEHXZ" PURGE="0" COMMENT="" />
    <EXPORT ORDINAL="400" NAME="?FHasImage@CThumbnail@@QBEHXZ" PURGE="0" COMMENT="" />
    <EXPORT ORDINAL="401" NAME="?FHasTextMetrics@CThumbnail@@SAHXZ" PURGE="0" COMMENT="" />
    <EXPORT ORDINAL="402" NAME="?FInWorkpane@CTreeView@@QBEHXZ" PURGE="0" COMMENT="" />
    <EXPORT ORDINAL="403" NAME="?FIncludeReadOnly@CTreeView@@QBEHXZ" PURGE="0" COMMENT="" />
    <EXPORT ORDINAL="404" NAME="?FInit@?$CAGTPX@PAG@@QAEHHHH@Z" PURGE="12" COMMENT="" />
    <EXPORT ORDINAL="405" NAME="?FInit@?$CAGTPX@PAUCImportTaskNode@@@@QAEHHHH@Z" PURGE="12" COMMENT="" />
    <EXPORT ORDINAL="406" NAME="?FInit@?$CAGTPX@PAVCatalogInfo@@@@QAEHHHH@Z" PURGE="12" COMMENT="" />
    <EXPORT ORDINAL="407" NAME="?FInit@?$CAGTPX@UCMapEntry@@@@QAEHHHH@Z" PURGE="12" COMMENT="" />
    <EXPORT ORDINAL="408" NAME="?FInit@CThumbnail@@QAEHI@Z" PURGE="4" COMMENT="" />
    <EXPORT ORDINAL="409" NAME="?FInit@CThumbnail@@QAEHPAUHICON__@@HPBG@Z" PURGE="12" COMMENT="" />
    <EXPORT ORDINAL="410" NAME="?FInit@CThumbnail@@QAEHPAUtagBITMAPINFO@@@Z" PURGE="4" COMMENT="" />
    <EXPORT ORDINAL="411" NAME="?FInsert@?$CAGTPX@PAG@@QAEHPBQAGH@Z" PURGE="8" COMMENT="" />
    <EXPORT ORDINAL="412" NAME="?FInsert@?$CAGTPX@PAUCImportTaskNode@@@@QAEHPBQAUCImportTaskNode@@H@Z" PURGE="8" COMMENT="" />
    <EXPORT ORDINAL="413" NAME="?FInsert@?$CAGTPX@PAVCatalogInfo@@@@QAEHPBQAVCatalogInfo@@H@Z" PURGE="8" COMMENT="" />
    <EXPORT ORDINAL="414" NAME="?FInsert@?$CAGTPX@UCMapEntry@@@@QAEHPBUCMapEntry@@H@Z" PURGE="8" COMMENT="" />
    <EXPORT ORDINAL="415" NAME="?FInsertWch@CMsoString@@UAGHGHH@Z" PURGE="16" COMMENT="" />
    <EXPORT ORDINAL="416" NAME="?FInsertWz@CMsoString@@UAGHPBGHH@Z" PURGE="16" COMMENT="" />
    <EXPORT ORDINAL="417" NAME="?FIsDeleteEnabled@CMStoreSApp@@QAEHXZ" PURGE="0" COMMENT="" />
    <EXPORT ORDINAL="418" NAME="?FIsEmpty@CMsoString@@UBGHXZ" PURGE="4" COMMENT="" />
    <EXPORT ORDINAL="419" NAME="?FIsMessagePreview@CPreviewManager@@QBEHXZ" PURGE="0" COMMENT="" />
    <EXPORT ORDINAL="420" NAME="?FIsMultiMediaPreview@CPreviewManager@@QBEHXZ" PURGE="0" COMMENT="" />
    <EXPORT ORDINAL="421" NAME="?FIsNotEmpty@CMsoString@@UBGHXZ" PURGE="4" COMMENT="" />
    <EXPORT ORDINAL="422" NAME="?FIsOfficeOnline@CMediaScan@@QBEHXZ" PURGE="0" COMMENT="" />
    <EXPORT ORDINAL="423" NAME="?FIsSearchResult@CSearchClient@@QBEHXZ" PURGE="0" COMMENT="" />
    <EXPORT ORDINAL="424" NAME="?FIsUserClipSelected@CMStoreSApp@@QAEHXZ" PURGE="0" COMMENT="" />
    <EXPORT ORDINAL="425" NAME="?FIsValidBufferIndex@CMsoString@@ABEHH@Z" PURGE="4" COMMENT="" />
    <EXPORT ORDINAL="426" NAME="?FIsValidIndex@CMsoString@@ABEHH@Z" PURGE="4" COMMENT="" />
    <EXPORT ORDINAL="427" NAME="?FLookup@?$CAGTPX@PAG@@QAEHPBQAGPAHP6IHPBX2@Z@Z" PURGE="12" COMMENT="" />
    <EXPORT ORDINAL="428" NAME="?FLookup@?$CAGTPX@PAUCImportTaskNode@@@@QAEHPBQAUCImportTaskNode@@PAHP6IHPBX2@Z@Z" PURGE="12" COMMENT="" />
    <EXPORT ORDINAL="429" NAME="?FLookup@?$CAGTPX@PAVCatalogInfo@@@@QAEHPBQAVCatalogInfo@@PAHP6IHPBX2@Z@Z" PURGE="12" COMMENT="" />
    <EXPORT ORDINAL="430" NAME="?FLookup@?$CAGTPX@UCMapEntry@@@@QAEHPBUCMapEntry@@PAHP6IHPBX2@Z@Z" PURGE="12" COMMENT="" />
    <EXPORT ORDINAL="431" NAME="?FLookupSort@?$CAGTPX@PAG@@QAEHPBQAGPAHP6IHPBX2@Z@Z" PURGE="12" COMMENT="" />
    <EXPORT ORDINAL="432" NAME="?FLookupSort@?$CAGTPX@PAUCImportTaskNode@@@@QAEHPBQAUCImportTaskNode@@PAHP6IHPBX2@Z@Z" PURGE="12" COMMENT="" />
    <EXPORT ORDINAL="433" NAME="?FLookupSort@?$CAGTPX@PAVCatalogInfo@@@@QAEHPBQAVCatalogInfo@@PAHP6IHPBX2@Z@Z" PURGE="12" COMMENT="" />
    <EXPORT ORDINAL="434" NAME="?FLookupSort@?$CAGTPX@UCMapEntry@@@@QAEHPBUCMapEntry@@PAHP6IHPBX2@Z@Z" PURGE="12" COMMENT="" />
    <EXPORT ORDINAL="435" NAME="?FMappedDirectoryExists@@YAHPAVCMStoreSApp@@PBG@Z" PURGE="0" COMMENT="" />
    <EXPORT ORDINAL="436" NAME="?FMediaGalleryFormatsAvailable@CMStoreSApp@@SAHXZ" PURGE="0" COMMENT="" />
    <EXPORT ORDINAL="437" NAME="?FNonClipboardVersion@CMoveClipsMeterDlg@@QBEHXZ" PURGE="0" COMMENT="" />
    <EXPORT ORDINAL="438" NAME="?FNonClipboardVersion@CPasteClipsDlg@@QBEHXZ" PURGE="0" COMMENT="" />
    <EXPORT ORDINAL="439" NAME="?FOnItemExpanding@CTreeView@@QAEHPBUtagTVITEMW@@@Z" PURGE="4" COMMENT="" />
    <EXPORT ORDINAL="440" NAME="?FOnLButtonUp@CThumbGallery@@QAEHIUtagPOINT@@@Z" PURGE="12" COMMENT="" />
    <EXPORT ORDINAL="441" NAME="?FPaintPlaceholder@CPreview@@KAHPAUHWND__@@@Z" PURGE="0" COMMENT="" />
    <EXPORT ORDINAL="442" NAME="?FPause@CMediaPlayerPreview@@QAEHXZ" PURGE="0" COMMENT="" />
    <EXPORT ORDINAL="443" NAME="?FPause@CPreviewManager@@QAEHXZ" PURGE="0" COMMENT="" />
    <EXPORT ORDINAL="444" NAME="?FPlay@CMediaPlayerPreview@@QAEHXZ" PURGE="0" COMMENT="" />
    <EXPORT ORDINAL="445" NAME="?FPlay@CPreviewManager@@QAEHXZ" PURGE="0" COMMENT="" />
    <EXPORT ORDINAL="446" NAME="?FRefresh@CTreeView@@QAEHPBG@Z" PURGE="4" COMMENT="" />
    <EXPORT ORDINAL="447" NAME="?FRefreshNeeded@CPasteObject@@AAEHXZ" PURGE="0" COMMENT="" />
    <EXPORT ORDINAL="448" NAME="?FRefreshRootItem@CTreeView@@QAEHPAU_TREEITEM@@@Z" PURGE="4" COMMENT="" />
    <EXPORT ORDINAL="449" NAME="?FRefreshRootScope@CTreeView@@QAEHI@Z" PURGE="4" COMMENT="" />
    <EXPORT ORDINAL="450" NAME="?FRemove@?$CAGTPX@PAG@@QAEHHH@Z" PURGE="8" COMMENT="" />
    <EXPORT ORDINAL="451" NAME="?FRemove@?$CAGTPX@PAUCImportTaskNode@@@@QAEHHH@Z" PURGE="8" COMMENT="" />
    <EXPORT ORDINAL="452" NAME="?FRemove@?$CAGTPX@PAVCatalogInfo@@@@QAEHHH@Z" PURGE="8" COMMENT="" />
    <EXPORT ORDINAL="453" NAME="?FRemove@?$CAGTPX@UCMapEntry@@@@QAEHHH@Z" PURGE="8" COMMENT="" />
    <EXPORT ORDINAL="454" NAME="?FRemove@CWzToIntMap@@QAE_NPBG@Z" PURGE="4" COMMENT="" />
    <EXPORT ORDINAL="455" NAME="?FRemoveAt@CMsoString@@UAGHHH@Z" PURGE="12" COMMENT="" />
    <EXPORT ORDINAL="456" NAME="?FScanInProgress@CMediaScan@@QBEHXZ" PURGE="0" COMMENT="" />
    <EXPORT ORDINAL="457" NAME="?FSelectedClipHasStyle@CMStoreSApp@@QAEHXZ" PURGE="0" COMMENT="" />
    <EXPORT ORDINAL="458" NAME="?FSetAt@CMsoString@@UAGHHG@Z" PURGE="12" COMMENT="" />
    <EXPORT ORDINAL="459" NAME="?FSetIMac@?$CAGTPX@PAG@@QAEHH@Z" PURGE="4" COMMENT="" />
    <EXPORT ORDINAL="460" NAME="?FSetIMac@?$CAGTPX@PAUCImportTaskNode@@@@QAEHH@Z" PURGE="4" COMMENT="" />
    <EXPORT ORDINAL="461" NAME="?FSetIMac@?$CAGTPX@PAVCatalogInfo@@@@QAEHH@Z" PURGE="4" COMMENT="" />
    <EXPORT ORDINAL="462" NAME="?FSetIMac@?$CAGTPX@UCMapEntry@@@@QAEHH@Z" PURGE="4" COMMENT="" />
    <EXPORT ORDINAL="463" NAME="?FSetIMax@?$CAGTPX@PAG@@QAEHH@Z" PURGE="4" COMMENT="" />
    <EXPORT ORDINAL="464" NAME="?FSetIMax@?$CAGTPX@PAUCImportTaskNode@@@@QAEHH@Z" PURGE="4" COMMENT="" />
    <EXPORT ORDINAL="465" NAME="?FSetIMax@?$CAGTPX@PAVCatalogInfo@@@@QAEHH@Z" PURGE="4" COMMENT="" />
    <EXPORT ORDINAL="466" NAME="?FSetIMax@?$CAGTPX@UCMapEntry@@@@QAEHH@Z" PURGE="4" COMMENT="" />
    <EXPORT ORDINAL="467" NAME="?FSomethingToPaste@CMStoreSApp@@SAHXZ" PURGE="0" COMMENT="" />
    <EXPORT ORDINAL="468" NAME="?FStandaloneAnvil@CMStoreSApp@@QBEHXZ" PURGE="0" COMMENT="" />
    <EXPORT ORDINAL="469" NAME="?FStartCheckMediaStateTimer@CMediaPlayerPreview@@QAEHXZ" PURGE="0" COMMENT="" />
    <EXPORT ORDINAL="470" NAME="?FStop@CMediaPlayerPreview@@QAEHXZ" PURGE="0" COMMENT="" />
    <EXPORT ORDINAL="471" NAME="?FStop@CPreviewManager@@QAEHXZ" PURGE="0" COMMENT="" />
    <EXPORT ORDINAL="472" NAME="?FStopCheckMediaStateTimer@CMediaPlayerPreview@@QAEHXZ" PURGE="0" COMMENT="" />
    <EXPORT ORDINAL="473" NAME="?FTruncAt@CMsoString@@UAGHH@Z" PURGE="8" COMMENT="" />
    <EXPORT ORDINAL="474" NAME="?FTruncLeft@CMsoString@@UAGHH@Z" PURGE="8" COMMENT="" />
    <EXPORT ORDINAL="475" NAME="?FTruncRight@CMsoString@@UAGHH@Z" PURGE="8" COMMENT="" />
    <EXPORT ORDINAL="476" NAME="?FValid@?$CAGTPX@PAG@@QBEHXZ" PURGE="0" COMMENT="" />
    <EXPORT ORDINAL="477" NAME="?FValid@?$CAGTPX@PAUCImportTaskNode@@@@QBEHXZ" PURGE="0" COMMENT="" />
    <EXPORT ORDINAL="478" NAME="?FValid@?$CAGTPX@PAVCatalogInfo@@@@QBEHXZ" PURGE="0" COMMENT="" />
    <EXPORT ORDINAL="479" NAME="?FValid@?$CAGTPX@UCMapEntry@@@@QBEHXZ" PURGE="0" COMMENT="" />
    <EXPORT ORDINAL="480" NAME="?FVolumeIsAvailable@CLegacyDlg@@AAEHPBD00@Z" PURGE="12" COMMENT="" />
    <EXPORT ORDINAL="481" NAME="?FWebClipSelected@CMStoreSApp@@QAEHXZ" PURGE="0" COMMENT="" />
    <EXPORT ORDINAL="482" NAME="?FWorkpaneWasHidden@CTreeView@@UAEHXZ" PURGE="0" COMMENT="" />
    <EXPORT ORDINAL="483" NAME="?FilePathContainsSpecialDir@CMediaScan@@QAEHPBGW4eSpecialDir@@@Z" PURGE="8" COMMENT="" />
    <EXPORT ORDINAL="484" NAME="?FilePathMatchesSpecialDir@CMediaScan@@QAEHPBGW4eSpecialDir@@@Z" PURGE="8" COMMENT="" />
    <EXPORT ORDINAL="485" NAME="?FillTreeView@CAutoImportSetupDlg@@QAEXXZ" PURGE="0" COMMENT="" />
    <EXPORT ORDINAL="486" NAME="?FillTreeViewLevel@CAutoImportSetupDlg@@QAEXPAU_TREEITEM@@@Z" PURGE="4" COMMENT="" />
    <EXPORT ORDINAL="487" NAME="?FillTreeViewWithHDInfo@CAutoImportSetupDlg@@QAEXXZ" PURGE="0" COMMENT="" />
    <EXPORT ORDINAL="488" NAME="?FindChildByName@CTreeView@@AAEPAU_TREEITEM@@ABQAU2@PBG@Z" PURGE="8" COMMENT="" />
    <EXPORT ORDINAL="489" NAME="?FindRoot@CMediaScan@@CAJPBG0PAGK@Z" PURGE="0" COMMENT="" />
    <EXPORT ORDINAL="490" NAME="?FireDeleteCommand@CTreeView@@UAEXXZ" PURGE="0" COMMENT="" />
    <EXPORT ORDINAL="491" NAME="?FireRenameCommand@CTreeView@@UAEXXZ" PURGE="0" COMMENT="" />
    <EXPORT ORDINAL="492" NAME="?Flush@CAutoImpTaskQueue@@QAEXXZ" PURGE="0" COMMENT="" />
    <EXPORT ORDINAL="493" NAME="?Free@CMsoString@@UAGXXZ" PURGE="4" COMMENT="" />
    <EXPORT ORDINAL="494" NAME="?GetAppRegistryKey@RegistryIO@@ABEPAUHKEY__@@PAU2@_N1@Z" PURGE="12" COMMENT="" />
    <EXPORT ORDINAL="495" NAME="?GetAutoCaptionFromPath@CImport@@SAJPBGPAGK@Z" PURGE="0" COMMENT="" />
    <EXPORT ORDINAL="496" NAME="?GetAutoKeywordsFromPath@CImport@@QAEJPBGPAGK@Z" PURGE="12" COMMENT="" />
    <EXPORT ORDINAL="497" NAME="?GetCachedScope@CMoveCollectionDlg@@UAGPAUIMsoSearchScope@@XZ" PURGE="4" COMMENT="" />
    <EXPORT ORDINAL="498" NAME="?GetCachedScope@CNewCollectionDlg@@UAGPAUIMsoSearchScope@@XZ" PURGE="4" COMMENT="" />
    <EXPORT ORDINAL="499" NAME="?GetClipTypeFromPath@CImport@@QAEKPBGPAGK@Z" PURGE="12" COMMENT="" />
    <EXPORT ORDINAL="500" NAME="?GetCollectionTreeViewPtr@CPasteObject@@AAEPAVCTreeView@@XZ" PURGE="0" COMMENT="" />
    <EXPORT ORDINAL="501" NAME="?GetCopyToCollectionIDS@CMStoreSApp@@QAEHXZ" PURGE="0" COMMENT="" />
    <EXPORT ORDINAL="502" NAME="?GetCurrentRootDirIdx@CMediaScan@@QBEKXZ" PURGE="0" COMMENT="" />
    <EXPORT ORDINAL="503" NAME="?GetCurrentScanDir@CMediaScan@@QAEPAGXZ" PURGE="0" COMMENT="" />
    <EXPORT ORDINAL="504" NAME="?GetDLLApp@CAutoImportSetupDlg@@QAEPAVCMStoreSApp@@XZ" PURGE="0" COMMENT="" />
    <EXPORT ORDINAL="505" NAME="?GetDLLApp@CAutoImportStartupDlg@@QAEPAVCMStoreSApp@@XZ" PURGE="0" COMMENT="" />
    <EXPORT ORDINAL="506" NAME="?GetDLLApp@CCompactDlg@@QAEPAVCMStoreSApp@@XZ" PURGE="0" COMMENT="" />
    <EXPORT ORDINAL="507" NAME="?GetDLLApp@CImportMeter@@QAEPAVCMStoreSApp@@XZ" PURGE="0" COMMENT="" />
    <EXPORT ORDINAL="508" NAME="?GetDLLApp@CKeywordMeterDlg@@QAEPAVCMStoreSApp@@XZ" PURGE="0" COMMENT="" />
    <EXPORT ORDINAL="509" NAME="?GetDLLApp@CMoveClipsMeterDlg@@QAEPAVCMStoreSApp@@XZ" PURGE="0" COMMENT="" />
    <EXPORT ORDINAL="510" NAME="?GetDLLApp@CNewCollectionMeterDlg@@QAEPAVCMStoreSApp@@XZ" PURGE="0" COMMENT="" />
    <EXPORT ORDINAL="511" NAME="?GetDLLApp@CPasteClipsDlg@@QAEPAVCMStoreSApp@@XZ" PURGE="0" COMMENT="" />
    <EXPORT ORDINAL="512" NAME="?GetDLLApp@CScanMeter@@QAEPAVCMStoreSApp@@XZ" PURGE="0" COMMENT="" />
    <EXPORT ORDINAL="513" NAME="?GetDLLApp@CTreeView@@QAEPAVCMStoreSApp@@XZ" PURGE="0" COMMENT="" />
    <EXPORT ORDINAL="514" NAME="?GetDLLAppPtr@CImport@@QAEPAVCMStoreSApp@@XZ" PURGE="0" COMMENT="" />
    <EXPORT ORDINAL="515" NAME="?GetDLLAppPtr@CLegacyDlg@@QAEPAVCMStoreSApp@@XZ" PURGE="0" COMMENT="" />
    <EXPORT ORDINAL="516" NAME="?GetDLLAppPtr@CLegacyResultsDlg@@QAEPAVCMStoreSApp@@XZ" PURGE="0" COMMENT="" />
    <EXPORT ORDINAL="517" NAME="?GetDLLAppPtr@CMoveCollectionDlg@@QAEPAVCMStoreSApp@@XZ" PURGE="0" COMMENT="" />
    <EXPORT ORDINAL="518" NAME="?GetDLLAppPtr@CNewCollectionDlg@@QAEPAVCMStoreSApp@@XZ" PURGE="0" COMMENT="" />
    <EXPORT ORDINAL="519" NAME="?GetDestCollectionURL@CMoveCollectionDlg@@QAEPAGXZ" PURGE="0" COMMENT="" />
    <EXPORT ORDINAL="520" NAME="?GetDestFriendlyName@CMoveCollectionDlg@@QAEPAGXZ" PURGE="0" COMMENT="" />
    <EXPORT ORDINAL="521" NAME="?GetDestinationCollectionURL@CImport@@QAEPAGXZ" PURGE="0" COMMENT="" />
    <EXPORT ORDINAL="522" NAME="?GetDib@CDib@@QAEPAUtagBITMAPINFO@@XZ" PURGE="0" COMMENT="" />
    <EXPORT ORDINAL="523" NAME="?GetDibSize@CDib@@QAEIXZ" PURGE="0" COMMENT="" />
    <EXPORT ORDINAL="524" NAME="?GetDirKeywordsFromPath@CImport@@SAXPBGPAGK@Z" PURGE="0" COMMENT="" />
    <EXPORT ORDINAL="525" NAME="?GetDirListSize@CMediaScan@@QBEKXZ" PURGE="0" COMMENT="" />
    <EXPORT ORDINAL="526" NAME="?GetDirPathByIdx@CMediaScan@@QAEPAGK@Z" PURGE="4" COMMENT="" />
    <EXPORT ORDINAL="527" NAME="?GetDlgType@CMoveCollectionDlg@@QBE?AW4eDlgType@@XZ" PURGE="0" COMMENT="" />
    <EXPORT ORDINAL="528" NAME="?GetDragHTREEITEM@CTreeView@@QAEPAU_TREEITEM@@XZ" PURGE="0" COMMENT="" />
    <EXPORT ORDINAL="529" NAME="?GetDropTarget@CTreeView@@QAEPAVCDropTarget@@XZ" PURGE="0" COMMENT="" />
    <EXPORT ORDINAL="530" NAME="?GetEmbeddedKeywords@CImport@@QAEXPBG0K@Z" PURGE="12" COMMENT="" />
    <EXPORT ORDINAL="531" NAME="?GetExistingThumblist@CMStoreSApp@@QAEXPAPAVCThumbGallery@@@Z" PURGE="4" COMMENT="" />
    <EXPORT ORDINAL="532" NAME="?GetFileSuffixFromPath@CImport@@SAPBGPBG@Z" PURGE="0" COMMENT="" />
    <EXPORT ORDINAL="533" NAME="?GetFixedDriveInfo@CMediaScan@@QAEHPAPAPAG@Z" PURGE="4" COMMENT="" />
    <EXPORT ORDINAL="534" NAME="?GetFriendlyNameForItem@CTreeView@@QAEPBGPAU_TREEITEM@@@Z" PURGE="4" COMMENT="" />
    <EXPORT ORDINAL="535" NAME="?GetGalleryItemHeight@CThumbGallery@@SAHXZ" PURGE="0" COMMENT="" />
    <EXPORT ORDINAL="536" NAME="?GetGalleryItemWidth@CThumbGallery@@SAHXZ" PURGE="0" COMMENT="" />
    <EXPORT ORDINAL="537" NAME="?GetHTREEITEMFromFullPath@CAutoImportSetupDlg@@AAEPAU_TREEITEM@@PBG@Z" PURGE="4" COMMENT="" />
    <EXPORT ORDINAL="538" NAME="?GetHdlg@CTreeView@@QBEPAPAXXZ" PURGE="0" COMMENT="" />
    <EXPORT ORDINAL="539" NAME="?GetHwnd@CMoveCollectionDlg@@UAGPAUHWND__@@XZ" PURGE="4" COMMENT="" />
    <EXPORT ORDINAL="540" NAME="?GetHwnd@CNewCollectionDlg@@UAGPAUHWND__@@XZ" PURGE="4" COMMENT="" />
    <EXPORT ORDINAL="541" NAME="?GetIRowPtr@CTreeView@@AAEPAUIRow@@PBG@Z" PURGE="4" COMMENT="" />
    <EXPORT ORDINAL="542" NAME="?GetImportProperties@CImport@@QAEJPBGAAV?$CAccessorRowset@V?$CAccessor@UCMCCustomEntry@@@ATL@@VCRowset@2@@ATL@@@Z" PURGE="8" COMMENT="" />
    <EXPORT ORDINAL="543" NAME="?GetImportType@CImport@@QBE?AW4eImportType@@XZ" PURGE="0" COMMENT="" />
    <EXPORT ORDINAL="544" NAME="?GetInfo@CThumbGallery@@QAEXPAH0000@Z" PURGE="20" COMMENT="" />
    <EXPORT ORDINAL="545" NAME="?GetLCID@CatalogInfo@@QBEKXZ" PURGE="0" COMMENT="" />
    <EXPORT ORDINAL="546" NAME="?GetLastError@RegistryIO@@QBEJXZ" PURGE="0" COMMENT="" />
    <EXPORT ORDINAL="547" NAME="?GetMainCollectionTreePtr@CMoveCollectionDlg@@QAEPAVCTreeView@@XZ" PURGE="0" COMMENT="" />
    <EXPORT ORDINAL="548" NAME="?GetMediaScanObject@CImport@@QAEJXZ" PURGE="0" COMMENT="" />
    <EXPORT ORDINAL="549" NAME="?GetMediaScanPtr@CAutoImportStartupDlg@@QAEPAVCMediaScan@@XZ" PURGE="0" COMMENT="" />
    <EXPORT ORDINAL="550" NAME="?GetMediaScanPtr@CKeywordMeterDlg@@QAEPAVCMediaScan@@XZ" PURGE="0" COMMENT="" />
    <EXPORT ORDINAL="551" NAME="?GetMediaScanPtr@CNewCollectionMeterDlg@@QAEPAVCMediaScan@@XZ" PURGE="0" COMMENT="" />
    <EXPORT ORDINAL="552" NAME="?GetMediaScanPtr@CScanMeter@@QAEPAVCMediaScan@@XZ" PURGE="0" COMMENT="" />
    <EXPORT ORDINAL="553" NAME="?GetNextDir@CImportTask@@AAEHXZ" PURGE="0" COMMENT="" />
    <EXPORT ORDINAL="554" NAME="?GetNextFilter@CImportTask@@AAEHXZ" PURGE="0" COMMENT="" />
    <EXPORT ORDINAL="555" NAME="?GetNextMediaDir@CMediaScan@@AAEPAGKAAK@Z" PURGE="8" COMMENT="" />
    <EXPORT ORDINAL="556" NAME="?GetNumberOfChildren@CTreeView@@QAEHABQAU_TREEITEM@@AAH@Z" PURGE="8" COMMENT="" />
    <EXPORT ORDINAL="557" NAME="?GetOpenKey@RegistryIO@@QAEPAUHKEY__@@XZ" PURGE="0" COMMENT="" />
    <EXPORT ORDINAL="558" NAME="?GetOperand@CMoveCollectionDlg@@QBE?AW4eOperand@@XZ" PURGE="0" COMMENT="" />
    <EXPORT ORDINAL="559" NAME="?GetPasteCollectionIMsoSL@CPasteObject@@AAEPAUIMsoSearchLocation@@PAU_TREEITEM@@@Z" PURGE="4" COMMENT="" />
    <EXPORT ORDINAL="560" NAME="?GetPasteCollectionURL@CPasteObject@@AAEPAGXZ" PURGE="0" COMMENT="" />
    <EXPORT ORDINAL="561" NAME="?GetPasteHTItem@CPasteObject@@QAEPAU_TREEITEM@@XZ" PURGE="0" COMMENT="" />
    <EXPORT ORDINAL="562" NAME="?GetPrevMediaDir@CMediaScan@@AAEPAGK@Z" PURGE="4" COMMENT="" />
    <EXPORT ORDINAL="563" NAME="?GetPriority@CBaseThreadTask@@QBEEXZ" PURGE="0" COMMENT="" />
    <EXPORT ORDINAL="564" NAME="?GetProfileIntA@RegistryIO@@QBAHPBDHZZ" PURGE="0" COMMENT="" />
    <EXPORT ORDINAL="565" NAME="?GetProfileStringA@RegistryIO@@QBA_NPBD0PADHZZ" PURGE="0" COMMENT="" />
    <EXPORT ORDINAL="566" NAME="?GetResourceHandle@CMStoreSApp@@QAEPAUHINSTANCE__@@XZ" PURGE="0" COMMENT="" />
    <EXPORT ORDINAL="567" NAME="?GetResultSet@CMoveCollectionDlg@@UAGPAUIResultSet@@XZ" PURGE="4" COMMENT="" />
    <EXPORT ORDINAL="568" NAME="?GetResultSet@CNewCollectionDlg@@UAGPAUIResultSet@@XZ" PURGE="4" COMMENT="" />
    <EXPORT ORDINAL="569" NAME="?GetRgbDib@CDib@@QAEJPAPAUtagBITMAPINFO@@@Z" PURGE="4" COMMENT="" />
    <EXPORT ORDINAL="570" NAME="?GetRgbaDib@CDib@@QAEJPAPAUtagBITMAPINFO@@@Z" PURGE="4" COMMENT="" />
    <EXPORT ORDINAL="571" NAME="?GetRootDirCount@CMediaScan@@QBEKXZ" PURGE="0" COMMENT="" />
    <EXPORT ORDINAL="572" NAME="?GetRootDrivePathByIdx@CMediaScan@@QAEPAGH@Z" PURGE="4" COMMENT="" />
    <EXPORT ORDINAL="573" NAME="?GetRowsetFromCollectionURL@CMStoreSApp@@QAEPAUIRowset@@PBG@Z" PURGE="4" COMMENT="" />
    <EXPORT ORDINAL="574" NAME="?GetRowsetPtr@CMoveCollectionDlg@@UAGPAUIRowset@@XZ" PURGE="4" COMMENT="" />
    <EXPORT ORDINAL="575" NAME="?GetRowsetPtr@CNewCollectionDlg@@UAGPAUIRowset@@XZ" PURGE="4" COMMENT="" />
    <EXPORT ORDINAL="576" NAME="?GetScanDir@CMediaScan@@QAEPAGKPAH00@Z" PURGE="16" COMMENT="" />
    <EXPORT ORDINAL="577" NAME="?GetScanMsg@CAutoImportSetupDlg@@QAEPAGXZ" PURGE="0" COMMENT="" />
    <EXPORT ORDINAL="578" NAME="?GetSearchClient@CMStoreSApp@@QAEPAVCSearchClient@@XZ" PURGE="0" COMMENT="" />
    <EXPORT ORDINAL="579" NAME="?GetSelectedClipCount@CMStoreSApp@@QAEHXZ" PURGE="0" COMMENT="" />
    <EXPORT ORDINAL="580" NAME="?GetSelectedItem@CTreeView@@QAEPAU_TREEITEM@@XZ" PURGE="0" COMMENT="" />
    <EXPORT ORDINAL="581" NAME="?GetSortedFilterPlex@CMStoreSApp@@QAEPAUMSOPXCAGFILETYPE@@XZ" PURGE="0" COMMENT="" />
    <EXPORT ORDINAL="582" NAME="?GetSpecialDir@CMediaScan@@QAEPAGW4eSpecialDir@@H@Z" PURGE="8" COMMENT="" />
    <EXPORT ORDINAL="583" NAME="?GetSpecialFolders@CMediaScan@@AAEXXZ" PURGE="0" COMMENT="" />
    <EXPORT ORDINAL="584" NAME="?GetStatusHwnd@CAutoImportSetupDlg@@QAEPAUHWND__@@XZ" PURGE="0" COMMENT="" />
    <EXPORT ORDINAL="585" NAME="?GetString@CatalogInfo@@QBEPBDW4StringNames@@@Z" PURGE="4" COMMENT="" />
    <EXPORT ORDINAL="586" NAME="?GetString@QueryListOfApps@@QBEPBDHW4StringNames@@@Z" PURGE="8" COMMENT="" />
    <EXPORT ORDINAL="587" NAME="?GetStringFromHTreeItem@CAutoImportSetupDlg@@AAEHPAU_TREEITEM@@PAGH@Z" PURGE="12" COMMENT="" />
    <EXPORT ORDINAL="588" NAME="?GetThumblist@CMStoreSApp@@QAEJIW4_MSOCAGEGalleryHostType@@P6APAVCThumbGallery@@XZPAPAV3@@Z" PURGE="16" COMMENT="" />
    <EXPORT ORDINAL="589" NAME="?GetTimeStampsAndSize@CImport@@CAJPBGPAU_FILETIME@@11PAT_ULARGE_INTEGER@@@Z" PURGE="0" COMMENT="" />
    <EXPORT ORDINAL="590" NAME="?GetTmc@CAutoImportStartupDlg@@QBEIXZ" PURGE="0" COMMENT="" />
    <EXPORT ORDINAL="591" NAME="?GetTmc@CThumbGallery@@QBEIXZ" PURGE="0" COMMENT="" />
    <EXPORT ORDINAL="592" NAME="?GetTreeViewDataObject@CTreeView@@QAEPAUIDataObject@@PAU_TREEITEM@@@Z" PURGE="4" COMMENT="" />
    <EXPORT ORDINAL="593" NAME="?GetTreeWrapperClass@CMoveCollectionDlg@@UAGPAXXZ" PURGE="4" COMMENT="" />
    <EXPORT ORDINAL="594" NAME="?GetTreeWrapperClass@CNewCollectionDlg@@UAGPAXXZ" PURGE="4" COMMENT="" />
    <EXPORT ORDINAL="595" NAME="?GetType@CBaseThreadTask@@UBE?AW4ETaskType@@XZ" PURGE="0" COMMENT="" />
    <EXPORT ORDINAL="596" NAME="?GetURLFromHTREEITEM@CTreeView@@QAEJPAU_TREEITEM@@PAGH@Z" PURGE="12" COMMENT="" />
    <EXPORT ORDINAL="597" NAME="?GetUnsanitizedPath@CMediaScan@@QAEJQBGPAGK@Z" PURGE="12" COMMENT="" />
    <EXPORT ORDINAL="598" NAME="?GetUnsupportedFileCount@CImport@@QBEKXZ" PURGE="0" COMMENT="" />
    <EXPORT ORDINAL="599" NAME="?GetVersion@CatalogInfo@@QBEJXZ" PURGE="0" COMMENT="" />
    <EXPORT ORDINAL="600" NAME="?GetVolumeID@CatalogInfo@@QBEJXZ" PURGE="0" COMMENT="" />
    <EXPORT ORDINAL="601" NAME="?Get_DriveType@CatalogInfo@@QBEKXZ" PURGE="0" COMMENT="" />
    <EXPORT ORDINAL="602" NAME="?Get_DriveType@QueryListOfApps@@QBEKH@Z" PURGE="4" COMMENT="" />
    <EXPORT ORDINAL="603" NAME="?HDInfoAvailable@CMediaScan@@QBEHXZ" PURGE="0" COMMENT="" />
    <EXPORT ORDINAL="604" NAME="?HItemInsert@CTreeView@@QAEPAU_TREEITEM@@PAU2@0JPBGI@Z" PURGE="20" COMMENT="" />
    <EXPORT ORDINAL="605" NAME="?HResultAlertBox@CMStoreSApp@@QAEHJIJ@Z" PURGE="12" COMMENT="" />
    <EXPORT ORDINAL="606" NAME="?HandleCollision@CTreeView@@QAEJPBUIMsoSearchLocation@@PAUIScopedOperations@@PBGQAPBGH@Z" PURGE="20" COMMENT="" />
    <EXPORT ORDINAL="607" NAME="?HandleError@CScanMeter@@QAEXXZ" PURGE="0" COMMENT="" />
    <EXPORT ORDINAL="608" NAME="?HandleImportError@CImport@@QAEXPBGJK@Z" PURGE="12" COMMENT="" />
    <EXPORT ORDINAL="609" NAME="?HandleImportError@CImportMeter@@AAEXPBGJ@Z" PURGE="8" COMMENT="" />
    <EXPORT ORDINAL="610" NAME="?HandleTreeAppsMenuEvent@CTreeView@@QAEXXZ" PURGE="0" COMMENT="" />
    <EXPORT ORDINAL="611" NAME="?HandleTreeClickEvent@CTreeView@@QAEXH@Z" PURGE="4" COMMENT="" />
    <EXPORT ORDINAL="612" NAME="?HandleTreeRightClickEvent@CTreeView@@QAEXPAUtagNMHDR@@@Z" PURGE="4" COMMENT="" />
    <EXPORT ORDINAL="613" NAME="?HandleTreeSelChangedEvent@CTreeView@@QAEXPAUtagNMTREEVIEWW@@@Z" PURGE="4" COMMENT="" />
    <EXPORT ORDINAL="614" NAME="?HasCLSID@CMediaScan@@SAHPBG@Z" PURGE="0" COMMENT="" />
    <EXPORT ORDINAL="615" NAME="?HasFilterPlex@CMediaScan@@QAEHXZ" PURGE="0" COMMENT="" />
    <EXPORT ORDINAL="616" NAME="?HasFocus@CTreeView@@QAEHXZ" PURGE="0" COMMENT="" />
    <EXPORT ORDINAL="617" NAME="?HasMedia@CMediaScan@@QAEHPBG@Z" PURGE="4" COMMENT="" />
    <EXPORT ORDINAL="618" NAME="?HasOutputColumns@CMCCatalogInfoEntry@@SA_NXZ" PURGE="0" COMMENT="" />
    <EXPORT ORDINAL="619" NAME="?HasOutputColumns@CMCCollectionEntry@@SA_NXZ" PURGE="0" COMMENT="" />
    <EXPORT ORDINAL="620" NAME="?HasOutputColumns@CMCCustomEntry@@SA_NXZ" PURGE="0" COMMENT="" />
    <EXPORT ORDINAL="621" NAME="?HasProgram@CMediaScan@@CAHPBG@Z" PURGE="0" COMMENT="" />
    <EXPORT ORDINAL="622" NAME="?HasSubdir@CMediaScan@@SAHPBG@Z" PURGE="0" COMMENT="" />
    <EXPORT ORDINAL="623" NAME="?Hide@CMediaPlayerPreview@@UAEXXZ" PURGE="0" COMMENT="" />
    <EXPORT ORDINAL="624" NAME="?Hide@CPreview@@UAEXXZ" PURGE="0" COMMENT="" />
    <EXPORT ORDINAL="625" NAME="?Hide@CPreviewManager@@UAEXXZ" PURGE="0" COMMENT="" />
    <EXPORT ORDINAL="626" NAME="?HilightScanDrive@CAutoImportSetupDlg@@QAEXPBG@Z" PURGE="4" COMMENT="" />
    <EXPORT ORDINAL="627" NAME="?HrCopyFromRegistry@CMsoString@@UAGJH@Z" PURGE="8" COMMENT="" />
    <EXPORT ORDINAL="628" NAME="?HrCreateAutoImportCollection@@YAJPAVCMStoreSApp@@PBG11H@Z" PURGE="0" COMMENT="" />
    <EXPORT ORDINAL="629" NAME="?HrEnsureConnectionToWeb@CMStoreSApp@@QAEJXZ" PURGE="0" COMMENT="" />
    <EXPORT ORDINAL="630" NAME="?HrGetClipDimensions@CMediaPlayerPreview@@QAEJAAUtagSIZE@@@Z" PURGE="4" COMMENT="" />
    <EXPORT ORDINAL="631" NAME="?HrGetHTREEITEMFromURL@CTreeView@@QAEJPBUIMsoSearchScopeEx@@PBGAAPAU_TREEITEM@@H@Z" PURGE="16" COMMENT="" />
    <EXPORT ORDINAL="632" NAME="?HrGetLocationNameFromHItem@CTreeView@@QAEJABQAU_TREEITEM@@PAGPAK@Z" PURGE="12" COMMENT="" />
    <EXPORT ORDINAL="633" NAME="?HrGetMessage@CMessagePreview@@QAEJPAGAAH@Z" PURGE="8" COMMENT="" />
    <EXPORT ORDINAL="634" NAME="?HrGetMoveCollectionName@CMoveCollectionDlg@@SAJPBGPAK@Z" PURGE="0" COMMENT="" />
    <EXPORT ORDINAL="635" NAME="?HrGetNewCollectionName@CNewCollectionDlg@@SAJPAGPAK@Z" PURGE="0" COMMENT="" />
    <EXPORT ORDINAL="636" NAME="?HrGetRootHItemFromScope@CTreeView@@QAEJPBUIMsoSearchScopeEx@@AAPAU_TREEITEM@@@Z" PURGE="8" COMMENT="" />
    <EXPORT ORDINAL="637" NAME="?HrGetSelectedLocationName@CMoveCollectionDlg@@QAEJPAGPAK@Z" PURGE="8" COMMENT="" />
    <EXPORT ORDINAL="638" NAME="?HrGetSelectedLocationName@CNewCollectionDlg@@QAEJPAGPAK@Z" PURGE="8" COMMENT="" />
    <EXPORT ORDINAL="639" NAME="?HrGetSelectionUrl@CMoveCollectionDlg@@QAEJPAGPAK@Z" PURGE="8" COMMENT="" />
    <EXPORT ORDINAL="640" NAME="?HrGetTooltip@CPreviewManager@@QAEJPAGAAH@Z" PURGE="8" COMMENT="" />
    <EXPORT ORDINAL="641" NAME="?HrGetUrl@CNewCollectionDlg@@QAEJPAGPAK@Z" PURGE="8" COMMENT="" />
    <EXPORT ORDINAL="642" NAME="?HrLocalPath@CPreview@@UAEJPAGAAH@Z" PURGE="8" COMMENT="" />
    <EXPORT ORDINAL="643" NAME="?HrLocalPath@CPreviewManager@@UAEJPAGAAH@Z" PURGE="8" COMMENT="" />
    <EXPORT ORDINAL="644" NAME="?HrPlayMediaClip@CMediaPlayerPreview@@SAJPAUHWND__@@PBG@Z" PURGE="0" COMMENT="" />
    <EXPORT ORDINAL="645" NAME="?HrRegQueryValue@CMsoString@@UAGJPAUHKEY__@@PBG@Z" PURGE="12" COMMENT="" />
    <EXPORT ORDINAL="646" NAME="?HrReset@CGELPreview@@UAEJXZ" PURGE="0" COMMENT="" />
    <EXPORT ORDINAL="647" NAME="?HrReset@CMediaPlayerPreview@@UAEJXZ" PURGE="0" COMMENT="" />
    <EXPORT ORDINAL="648" NAME="?HrReset@CMessagePreview@@UAEJXZ" PURGE="0" COMMENT="" />
    <EXPORT ORDINAL="649" NAME="?HrReset@CPreview@@UAEJXZ" PURGE="0" COMMENT="" />
    <EXPORT ORDINAL="650" NAME="?HrReset@CPreviewManager@@UAEJXZ" PURGE="0" COMMENT="" />
    <EXPORT ORDINAL="651" NAME="?HrResetIconImageLists@CMStoreSApp@@QAEJXZ" PURGE="0" COMMENT="" />
    <EXPORT ORDINAL="652" NAME="?HrSetIcon@CMessagePreview@@QAEJPAUHICON__@@HH@Z" PURGE="12" COMMENT="" />
    <EXPORT ORDINAL="653" NAME="?HrSetMessage@CMessagePreview@@QAEJPBG@Z" PURGE="4" COMMENT="" />
    <EXPORT ORDINAL="654" NAME="?HrSetMessagePreview@CPreviewManager@@QAEJPBGPAUHICON__@@H@Z" PURGE="12" COMMENT="" />
    <EXPORT ORDINAL="655" NAME="?HrSetSelectionUrl@CMoveCollectionDlg@@QAEJPBG@Z" PURGE="4" COMMENT="" />
    <EXPORT ORDINAL="656" NAME="?HrSetSource@CGELPreview@@UAEJPBG@Z" PURGE="4" COMMENT="" />
    <EXPORT ORDINAL="657" NAME="?HrSetSource@CMediaPlayerPreview@@UAEJPBG@Z" PURGE="4" COMMENT="" />
    <EXPORT ORDINAL="658" NAME="?HrSetSource@CMessagePreview@@UAEJPBG@Z" PURGE="4" COMMENT="" />
    <EXPORT ORDINAL="659" NAME="?HrSetSource@CPreview@@UAEJPBG@Z" PURGE="4" COMMENT="" />
    <EXPORT ORDINAL="660" NAME="?HrSetSource@CPreviewManager@@UAEJPBG@Z" PURGE="4" COMMENT="" />
    <EXPORT ORDINAL="661" NAME="?HrSetUrl@CNewCollectionDlg@@QAEJPBG@Z" PURGE="4" COMMENT="" />
    <EXPORT ORDINAL="662" NAME="?HwndEditControl@CTreeView@@QBEPAUHWND__@@XZ" PURGE="0" COMMENT="" />
    <EXPORT ORDINAL="663" NAME="?HwndMeter@CCompactDlg@@QBEPAUHWND__@@XZ" PURGE="0" COMMENT="" />
    <EXPORT ORDINAL="664" NAME="?HwndMeter@CImportMeter@@QBEPAUHWND__@@XZ" PURGE="0" COMMENT="" />
    <EXPORT ORDINAL="665" NAME="?HwndMeter@CKeywordMeterDlg@@QBEPAUHWND__@@XZ" PURGE="0" COMMENT="" />
    <EXPORT ORDINAL="666" NAME="?HwndMeter@CMoveClipsMeterDlg@@QBEPAUHWND__@@XZ" PURGE="0" COMMENT="" />
    <EXPORT ORDINAL="667" NAME="?HwndMeter@CNewCollectionMeterDlg@@QBEPAUHWND__@@XZ" PURGE="0" COMMENT="" />
    <EXPORT ORDINAL="668" NAME="?HwndMeter@CPasteClipsDlg@@QBEPAUHWND__@@XZ" PURGE="0" COMMENT="" />
    <EXPORT ORDINAL="669" NAME="?HwndMeter@CScanMeter@@QBEPAUHWND__@@XZ" PURGE="0" COMMENT="" />
    <EXPORT ORDINAL="670" NAME="?HwndPreview@CPreview@@UAEPAUHWND__@@XZ" PURGE="0" COMMENT="" />
    <EXPORT ORDINAL="671" NAME="?HwndPreview@CPreviewManager@@UAEPAUHWND__@@XZ" PURGE="0" COMMENT="" />
    <EXPORT ORDINAL="672" NAME="?HwndPreviewBackground@CMediaPlayerPreview@@QAEPAUHWND__@@XZ" PURGE="0" COMMENT="" />
    <EXPORT ORDINAL="673" NAME="?HwndTree@CTreeView@@QBEPAUHWND__@@XZ" PURGE="0" COMMENT="" />
    <EXPORT ORDINAL="674" NAME="?HwndTreeParent@CTreeView@@QBEPAUHWND__@@XZ" PURGE="0" COMMENT="" />
    <EXPORT ORDINAL="675" NAME="?IInsertSort@?$CAGTPX@PAG@@QAEHPBQAGP6IHPBX1@Z@Z" PURGE="8" COMMENT="" />
    <EXPORT ORDINAL="676" NAME="?IInsertSort@?$CAGTPX@PAUCImportTaskNode@@@@QAEHPBQAUCImportTaskNode@@P6IHPBX1@Z@Z" PURGE="8" COMMENT="" />
    <EXPORT ORDINAL="677" NAME="?IInsertSort@?$CAGTPX@PAVCatalogInfo@@@@QAEHPBQAVCatalogInfo@@P6IHPBX1@Z@Z" PURGE="8" COMMENT="" />
    <EXPORT ORDINAL="678" NAME="?IInsertSort@?$CAGTPX@UCMapEntry@@@@QAEHPBUCMapEntry@@P6IHPBX1@Z@Z" PURGE="8" COMMENT="" />
    <EXPORT ORDINAL="679" NAME="?IMac@?$CAGTPX@PAG@@QBEHXZ" PURGE="0" COMMENT="" />
    <EXPORT ORDINAL="680" NAME="?IMac@?$CAGTPX@PAUCImportTaskNode@@@@QBEHXZ" PURGE="0" COMMENT="" />
    <EXPORT ORDINAL="681" NAME="?IMac@?$CAGTPX@PAVCatalogInfo@@@@QBEHXZ" PURGE="0" COMMENT="" />
    <EXPORT ORDINAL="682" NAME="?IMac@?$CAGTPX@UCMapEntry@@@@QBEHXZ" PURGE="0" COMMENT="" />
    <EXPORT ORDINAL="683" NAME="?IMax@?$CAGTPX@PAG@@QBEHXZ" PURGE="0" COMMENT="" />
    <EXPORT ORDINAL="684" NAME="?IMax@?$CAGTPX@PAUCImportTaskNode@@@@QBEHXZ" PURGE="0" COMMENT="" />
    <EXPORT ORDINAL="685" NAME="?IMax@?$CAGTPX@PAVCatalogInfo@@@@QBEHXZ" PURGE="0" COMMENT="" />
    <EXPORT ORDINAL="686" NAME="?IMax@?$CAGTPX@UCMapEntry@@@@QBEHXZ" PURGE="0" COMMENT="" />
    <EXPORT ORDINAL="687" NAME="?IchFindWch@CMsoString@@QBEHG@Z" PURGE="4" COMMENT="" />
    <EXPORT ORDINAL="688" NAME="?IchFindWch@CMsoString@@UBGHGHH@Z" PURGE="16" COMMENT="" />
    <EXPORT ORDINAL="689" NAME="?IchFindWchNoCase@CMsoString@@QBEHG@Z" PURGE="4" COMMENT="" />
    <EXPORT ORDINAL="690" NAME="?IchFindWchReverse@CMsoString@@QBEHG@Z" PURGE="4" COMMENT="" />
    <EXPORT ORDINAL="691" NAME="?IchFindWchReverse@CMsoString@@UBGHGH@Z" PURGE="12" COMMENT="" />
    <EXPORT ORDINAL="692" NAME="?IchFindWchReverseNoCase@CMsoString@@QBEHG@Z" PURGE="4" COMMENT="" />
    <EXPORT ORDINAL="693" NAME="?IchFindWchSubstr@CMsoString@@UBGHGHHH@Z" PURGE="20" COMMENT="" />
    <EXPORT ORDINAL="694" NAME="?IchFindWchSubstrReverse@CMsoString@@UBGHGHHH@Z" PURGE="20" COMMENT="" />
    <EXPORT ORDINAL="695" NAME="?IchFindWz@CMsoString@@QBEHPBG@Z" PURGE="4" COMMENT="" />
    <EXPORT ORDINAL="696" NAME="?IchFindWz@CMsoString@@UBGHPBGHH@Z" PURGE="16" COMMENT="" />
    <EXPORT ORDINAL="697" NAME="?IchFindWzNoCase@CMsoString@@QBEHPBG@Z" PURGE="4" COMMENT="" />
    <EXPORT ORDINAL="698" NAME="?IchFindWzSubstr@CMsoString@@UBGHPBGHHH@Z" PURGE="20" COMMENT="" />
    <EXPORT ORDINAL="699" NAME="?ImportCatalog@CImport@@AAEJPBG@Z" PURGE="4" COMMENT="" />
    <EXPORT ORDINAL="700" NAME="?ImportDirClip@CImport@@QAEJPAUIRowset@@PBG@Z" PURGE="8" COMMENT="" />
    <EXPORT ORDINAL="701" NAME="?ImportDirClip@CImport@@QAEJPBG0@Z" PURGE="8" COMMENT="" />
    <EXPORT ORDINAL="702" NAME="?ImportFile@CImport@@QAEJPAUIRowset@@PBGK1@Z" PURGE="16" COMMENT="" />
    <EXPORT ORDINAL="703" NAME="?ImportFile@CImport@@QAEJPBG0K0@Z" PURGE="16" COMMENT="" />
    <EXPORT ORDINAL="704" NAME="?ImportFileFromStream@CPasteObject@@AAGJPAUIRowset@@PAUIStream@@PBG@Z" PURGE="16" COMMENT="" />
    <EXPORT ORDINAL="705" NAME="?ImportFilesFromDirectory@CImport@@QAEJPBG0@Z" PURGE="8" COMMENT="" />
    <EXPORT ORDINAL="706" NAME="?ImportFilesOfType@CImport@@AAEJPBG00@Z" PURGE="12" COMMENT="" />
    <EXPORT ORDINAL="707" NAME="?ImportFirstClipOfType@CImportTask@@AAEHXZ" PURGE="0" COMMENT="" />
    <EXPORT ORDINAL="708" NAME="?ImportMultipleFiles@CImport@@QAEJPBG0@Z" PURGE="8" COMMENT="" />
    <EXPORT ORDINAL="709" NAME="?ImportNewClip@CPasteObject@@AAGJPAUIRowset@@PBG@Z" PURGE="12" COMMENT="" />
    <EXPORT ORDINAL="710" NAME="?ImportNextClip@CImportTask@@AAEHXZ" PURGE="0" COMMENT="" />
    <EXPORT ORDINAL="711" NAME="?ImportRange@CImportMeter@@AAEJHHPAUICommandText@@@Z" PURGE="12" COMMENT="" />
    <EXPORT ORDINAL="712" NAME="?IncludeRootDirs@CMediaScan@@QAEXXZ" PURGE="0" COMMENT="" />
    <EXPORT ORDINAL="713" NAME="?Init@CClipGalleryDataObject@@QAGJXZ" PURGE="4" COMMENT="" />
    <EXPORT ORDINAL="714" NAME="?Init@CMsoString@@AAEXXZ" PURGE="0" COMMENT="" />
    <EXPORT ORDINAL="715" NAME="?Init@CTreeView@@QAEXI@Z" PURGE="4" COMMENT="" />
    <EXPORT ORDINAL="716" NAME="?InitDialog@CKeywordMeterDlg@@QAEXXZ" PURGE="0" COMMENT="" />
    <EXPORT ORDINAL="717" NAME="?InitDialog@CMoveClipsMeterDlg@@QAEXXZ" PURGE="0" COMMENT="" />
    <EXPORT ORDINAL="718" NAME="?InitDialog@CNewCollectionMeterDlg@@QAEXXZ" PURGE="0" COMMENT="" />
    <EXPORT ORDINAL="719" NAME="?InitDialog@CPasteClipsDlg@@QAEXXZ" PURGE="0" COMMENT="" />
    <EXPORT ORDINAL="720" NAME="?InitDirList@CMediaScan@@QAEJXZ" PURGE="0" COMMENT="" />
    <EXPORT ORDINAL="721" NAME="?InitDragDrop@CTreeView@@AAEXXZ" PURGE="0" COMMENT="" />
    <EXPORT ORDINAL="722" NAME="?InitMediaDirs@CMediaScan@@QAEXXZ" PURGE="0" COMMENT="" />
    <EXPORT ORDINAL="723" NAME="?Invalidate@CPreview@@UAEXPAUtagRECT@@H@Z" PURGE="8" COMMENT="" />
    <EXPORT ORDINAL="724" NAME="?Invalidate@CPreviewManager@@UAEXPAUtagRECT@@H@Z" PURGE="8" COMMENT="" />
    <EXPORT ORDINAL="725" NAME="?IsAProgramDirByIdx@CMediaScan@@QAEHK@Z" PURGE="4" COMMENT="" />
    <EXPORT ORDINAL="726" NAME="?IsAValidDrive@CMediaScan@@SAHPBGPAKPAH@Z" PURGE="0" COMMENT="" />
    <EXPORT ORDINAL="727" NAME="?IsIgnoreDir@CMediaScan@@QAEHPBGH@Z" PURGE="8" COMMENT="" />
    <EXPORT ORDINAL="728" NAME="?IsImportDirectory@CImport@@SAHPBG@Z" PURGE="0" COMMENT="" />
    <EXPORT ORDINAL="729" NAME="?IsInternetCacheByIdx@CMediaScan@@QAEHK@Z" PURGE="4" COMMENT="" />
    <EXPORT ORDINAL="730" NAME="?IsInvalidProfileDir@CMediaScan@@QAEHPBG@Z" PURGE="4" COMMENT="" />
    <EXPORT ORDINAL="731" NAME="?IsMovableCollection@CTreeView@@QAEHPAU_TREEITEM@@H@Z" PURGE="8" COMMENT="" />
    <EXPORT ORDINAL="732" NAME="?IsNetworkErrorCode@CMStoreSApp@@SAHJ@Z" PURGE="0" COMMENT="" />
    <EXPORT ORDINAL="733" NAME="?IsOfficeFormat@CPasteObject@@AAEHPAUIDataObject@@@Z" PURGE="4" COMMENT="" />
    <EXPORT ORDINAL="734" NAME="?IsReadOnlyClip@CPasteClipsDlg@@AAEHPBU_GUID@@@Z" PURGE="4" COMMENT="" />
    <EXPORT ORDINAL="735" NAME="?IsReadOnlyCollection@CTreeView@@QAEHPAU_TREEITEM@@@Z" PURGE="4" COMMENT="" />
    <EXPORT ORDINAL="736" NAME="?IsSpecialDir@CMediaScan@@QAEHPBGW4eSpecialDir@@H@Z" PURGE="12" COMMENT="" />
    <EXPORT ORDINAL="737" NAME="?IsTemporaryLocation@CMediaScan@@QAEHQBG@Z" PURGE="4" COMMENT="" />
    <EXPORT ORDINAL="738" NAME="?IsValidPasteTarget@CPasteObject@@QAEHPBU_POINTL@@@Z" PURGE="4" COMMENT="" />
    <EXPORT ORDINAL="739" NAME="?IsVisible@CTreeView@@QAEHXZ" PURGE="0" COMMENT="" />
    <EXPORT ORDINAL="740" NAME="?LParamFromHItem@CTreeView@@QAEJPAU_TREEITEM@@@Z" PURGE="4" COMMENT="" />
    <EXPORT ORDINAL="741" NAME="?ListProc@CThumbGallery@@QAEIIPAGIIII@Z" PURGE="24" COMMENT="" />
    <EXPORT ORDINAL="742" NAME="?LoadChildren@CTreeView@@QAEJABQAU_TREEITEM@@H@Z" PURGE="8" COMMENT="" />
    <EXPORT ORDINAL="743" NAME="?LoadFromAccessor@CPackageFile@@QAEJPAV?$CAccessorRowset@V?$CAccessor@UCMCCustomEntry@@@ATL@@VCRowset@2@@ATL@@PBG@Z" PURGE="8" COMMENT="" />
    <EXPORT ORDINAL="744" NAME="?LoadFromAccessorBegin@CPackageFile@@QAEJXZ" PURGE="0" COMMENT="" />
    <EXPORT ORDINAL="745" NAME="?LoadFromAccessorEnd@CPackageFile@@QAEJXZ" PURGE="0" COMMENT="" />
    <EXPORT ORDINAL="746" NAME="?LoadFromUrl@CXmlDoc@@QAEJPBG@Z" PURGE="4" COMMENT="" />
    <EXPORT ORDINAL="747" NAME="?LocaleExists@QueryListOfApps@@QBE_NKPAH@Z" PURGE="8" COMMENT="" />
    <EXPORT ORDINAL="748" NAME="?MakeDirACollection@CMediaScan@@QAEXPBGH@Z" PURGE="8" COMMENT="" />
    <EXPORT ORDINAL="749" NAME="?MakeLower@CMsoString@@UAGXXZ" PURGE="4" COMMENT="" />
    <EXPORT ORDINAL="750" NAME="?MakeSilbingDirACollection@CMediaScan@@AAEJPBG0@Z" PURGE="8" COMMENT="" />
    <EXPORT ORDINAL="751" NAME="?MakeUpper@CMsoString@@UAGXXZ" PURGE="4" COMMENT="" />
    <EXPORT ORDINAL="752" NAME="?MarkAllSubDirs@CMediaScan@@QAEJHPBGH@Z" PURGE="12" COMMENT="" />
    <EXPORT ORDINAL="753" NAME="?MatchDisk@QueryListOfApps@@ABE_NH@Z" PURGE="4" COMMENT="" />
    <EXPORT ORDINAL="754" NAME="?MatchName@CatalogInfo@@QBE_NPBD@Z" PURGE="4" COMMENT="" />
    <EXPORT ORDINAL="755" NAME="?MoveClips@CMoveClipsMeterDlg@@QAEXXZ" PURGE="0" COMMENT="" />
    <EXPORT ORDINAL="756" NAME="?MoveCollection@CTreeView@@QAEJPAU_TREEITEM@@PBGH@Z" PURGE="12" COMMENT="" />
    <EXPORT ORDINAL="757" NAME="?MoveCollection@CTreeView@@QAEJPBUIMsoSearchLocation@@PBG1H@Z" PURGE="16" COMMENT="" />
    <EXPORT ORDINAL="758" NAME="?MoveNonClipboardClips@CMoveClipsMeterDlg@@QAEXXZ" PURGE="0" COMMENT="" />
    <EXPORT ORDINAL="759" NAME="?NextDriveTypeExists@QueryListOfApps@@QBE_NKPAHH@Z" PURGE="12" COMMENT="" />
    <EXPORT ORDINAL="760" NAME="?NextLocaleExists@QueryListOfApps@@QBE_NKPAHH@Z" PURGE="12" COMMENT="" />
    <EXPORT ORDINAL="761" NAME="?NoMediaLeaf@CMediaScan@@QAEHK@Z" PURGE="4" COMMENT="" />
    <EXPORT ORDINAL="762" NAME="?NumberOfEntries@CThumbGallery@@QAEHXZ" PURGE="0" COMMENT="" />
    <EXPORT ORDINAL="763" NAME="?NumberOfVisibleEntries@CThumbGallery@@QAEHXZ" PURGE="0" COMMENT="" />
    <EXPORT ORDINAL="764" NAME="?OnDalPaint@CPreviewManager@@QAEHPBU_rec@@PAUHDC__@@@Z" PURGE="8" COMMENT="" />
    <EXPORT ORDINAL="765" NAME="?OnDestroy@CTreeView@@QAEXXZ" PURGE="0" COMMENT="" />
    <EXPORT ORDINAL="766" NAME="?OnDrag@CThumbGallery@@QAEXH@Z" PURGE="4" COMMENT="" />
    <EXPORT ORDINAL="767" NAME="?OnEraseBackground@CPreview@@UAEHPAUHWND__@@@Z" PURGE="4" COMMENT="" />
    <EXPORT ORDINAL="768" NAME="?OnEraseBackground@CPreviewManager@@UAEHPAUHWND__@@@Z" PURGE="4" COMMENT="" />
    <EXPORT ORDINAL="769" NAME="?OnLButtonDown@CPreview@@UAEHKUtagPOINTS@@@Z" PURGE="8" COMMENT="" />
    <EXPORT ORDINAL="770" NAME="?OnLButtonDown@CPreviewManager@@UAEHKUtagPOINTS@@@Z" PURGE="8" COMMENT="" />
    <EXPORT ORDINAL="771" NAME="?OnLButtonUp@CPreview@@UAEHKUtagPOINTS@@@Z" PURGE="8" COMMENT="" />
    <EXPORT ORDINAL="772" NAME="?OnLButtonUp@CPreviewManager@@UAEHKUtagPOINTS@@@Z" PURGE="8" COMMENT="" />
    <EXPORT ORDINAL="773" NAME="?OnLowResource@CCompactDlg@@UAGJK@Z" PURGE="8" COMMENT="" />
    <EXPORT ORDINAL="774" NAME="?OnMouseMove@CMessagePreview@@UAEHPAUHWND__@@@Z" PURGE="4" COMMENT="" />
    <EXPORT ORDINAL="775" NAME="?OnMouseMove@CPreview@@UAEHPAUHWND__@@@Z" PURGE="4" COMMENT="" />
    <EXPORT ORDINAL="776" NAME="?OnMouseMove@CPreviewManager@@UAEHPAUHWND__@@@Z" PURGE="4" COMMENT="" />
    <EXPORT ORDINAL="777" NAME="?OnPaint@CGELPreview@@UAEHPAUHWND__@@@Z" PURGE="4" COMMENT="" />
    <EXPORT ORDINAL="778" NAME="?OnPaint@CMediaPlayerPreview@@UAEHPAUHWND__@@@Z" PURGE="4" COMMENT="" />
    <EXPORT ORDINAL="779" NAME="?OnPaint@CMessagePreview@@UAEHPAUHWND__@@@Z" PURGE="4" COMMENT="" />
    <EXPORT ORDINAL="780" NAME="?OnPaint@CPreview@@UAEHPAUHWND__@@@Z" PURGE="4" COMMENT="" />
    <EXPORT ORDINAL="781" NAME="?OnPaint@CPreviewManager@@UAEHPAUHWND__@@@Z" PURGE="4" COMMENT="" />
    <EXPORT ORDINAL="782" NAME="?OnPalette@CKeywordMgmtDlg@@QAEXIPAUHWND__@@@Z" PURGE="8" COMMENT="" />
    <EXPORT ORDINAL="783" NAME="?OnPalette@CPreviewDlg@@QAEXIPAUHWND__@@@Z" PURGE="8" COMMENT="" />
    <EXPORT ORDINAL="784" NAME="?OnPalette@CThumbGallery@@QAEXIH@Z" PURGE="8" COMMENT="" />
    <EXPORT ORDINAL="785" NAME="?OnProgress@CCompactDlg@@UAGJKKKKKPAG@Z" PURGE="28" COMMENT="" />
    <EXPORT ORDINAL="786" NAME="?OnResize@CMediaPlayerPreview@@UAEHPAUtagRECT@@@Z" PURGE="4" COMMENT="" />
    <EXPORT ORDINAL="787" NAME="?OnResize@CPreview@@UAEHPAUtagRECT@@@Z" PURGE="4" COMMENT="" />
    <EXPORT ORDINAL="788" NAME="?OnResize@CPreviewManager@@UAEHPAUtagRECT@@@Z" PURGE="4" COMMENT="" />
    <EXPORT ORDINAL="789" NAME="?OnStop@CCompactDlg@@UAGJKKJPAG@Z" PURGE="20" COMMENT="" />
    <EXPORT ORDINAL="790" NAME="?OnSysColorChange@CTreeView@@QAEXXZ" PURGE="0" COMMENT="" />
    <EXPORT ORDINAL="791" NAME="?OnTimer@CMediaPlayerPreview@@UAEHI@Z" PURGE="4" COMMENT="" />
    <EXPORT ORDINAL="792" NAME="?OnTimer@CPreview@@UAEHI@Z" PURGE="4" COMMENT="" />
    <EXPORT ORDINAL="793" NAME="?OnTimer@CPreviewManager@@UAEHI@Z" PURGE="4" COMMENT="" />
    <EXPORT ORDINAL="794" NAME="?OutOfMemory@CMStoreSApp@@QAEXXZ" PURGE="0" COMMENT="" />
    <EXPORT ORDINAL="795" NAME="?PGet@?$CAGTPX@PAG@@QBEPAPAGH@Z" PURGE="4" COMMENT="" />
    <EXPORT ORDINAL="796" NAME="?PGet@?$CAGTPX@PAUCImportTaskNode@@@@QBEPAPAUCImportTaskNode@@H@Z" PURGE="4" COMMENT="" />
    <EXPORT ORDINAL="797" NAME="?PGet@?$CAGTPX@PAVCatalogInfo@@@@QBEPAPAVCatalogInfo@@H@Z" PURGE="4" COMMENT="" />
    <EXPORT ORDINAL="798" NAME="?PGet@?$CAGTPX@UCMapEntry@@@@QBEPAUCMapEntry@@H@Z" PURGE="4" COMMENT="" />
    <EXPORT ORDINAL="799" NAME="?PGetBookmark@CMStoreSApp@@QAEPAUCAIBookmark@@XZ" PURGE="0" COMMENT="" />
    <EXPORT ORDINAL="800" NAME="?PGetCollectionTree@CMStoreSApp@@QAEPAVCTreeView@@XZ" PURGE="0" COMMENT="" />
    <EXPORT ORDINAL="801" NAME="?PGetCriticalSection@CAutoImpTaskQueue@@QAEPAU_RTL_CRITICAL_SECTION@@XZ" PURGE="0" COMMENT="" />
    <EXPORT ORDINAL="802" NAME="?PGetDllApp@CThumbnail@@QAEQAVCMStoreSApp@@XZ" PURGE="0" COMMENT="" />
    <EXPORT ORDINAL="803" NAME="?PGetGELPreview@CPreviewManager@@AAEPAVCGELPreview@@XZ" PURGE="0" COMMENT="" />
    <EXPORT ORDINAL="804" NAME="?PGetImportedCatalogList@CLegacyDlg@@QBEPBGXZ" PURGE="0" COMMENT="" />
    <EXPORT ORDINAL="805" NAME="?PGetImportedClipPathList@CLegacyDlg@@QBEPBGXZ" PURGE="0" COMMENT="" />
    <EXPORT ORDINAL="806" NAME="?PGetLastFlushedCollectionURL@CAutoImpTaskQueue@@QAEPAGXZ" PURGE="0" COMMENT="" />
    <EXPORT ORDINAL="807" NAME="?PGetLastImportedFile@CImportTask@@QAEPAGXZ" PURGE="0" COMMENT="" />
    <EXPORT ORDINAL="808" NAME="?PGetMediaPlayerPreview@CPreviewManager@@AAEPAVCMediaPlayerPreview@@XZ" PURGE="0" COMMENT="" />
    <EXPORT ORDINAL="809" NAME="?PGetMessagePreview@CPreviewManager@@AAEPAVCMessagePreview@@XZ" PURGE="0" COMMENT="" />
    <EXPORT ORDINAL="810" NAME="?PGetNextTask@CAutoImpTaskQueue@@QAEPAUCImportTaskNode@@XZ" PURGE="0" COMMENT="" />
    <EXPORT ORDINAL="811" NAME="?PGetPasteTargetRowset@CPasteObject@@AAEPAUIRowset@@XZ" PURGE="0" COMMENT="" />
    <EXPORT ORDINAL="812" NAME="?PMainTree@CNewCollectionDlg@@QAEPAVCTreeView@@XZ" PURGE="0" COMMENT="" />
    <EXPORT ORDINAL="813" NAME="?PMediaScanGet@CAutoImportSetupDlg@@QAEPAVCMediaScan@@XZ" PURGE="0" COMMENT="" />
    <EXPORT ORDINAL="814" NAME="?PTreeViewGet@CAutoImportSetupDlg@@QAEPAVCAutoImportTreeview@@XZ" PURGE="0" COMMENT="" />
    <EXPORT ORDINAL="815" NAME="?PTreeViewGet@CMoveCollectionDlg@@QAEPAVCTreeView@@XZ" PURGE="0" COMMENT="" />
    <EXPORT ORDINAL="816" NAME="?PTreeViewGet@CNewCollectionDlg@@QAEPAVCTreeView@@XZ" PURGE="0" COMMENT="" />
    <EXPORT ORDINAL="817" NAME="?PWzGetImportDirList@CImportMeter@@QAEPAGXZ" PURGE="0" COMMENT="" />
    <EXPORT ORDINAL="818" NAME="?PaintGalleryEntry@CThumbGallery@@QAEXIPAPAXHPAUHDC__@@PBUtagRECT@@III@Z" PURGE="32" COMMENT="" />
    <EXPORT ORDINAL="819" NAME="?PasteBitmap@CPasteObject@@AAGJPAUtagSTGMEDIUM@@PAUIRowset@@@Z" PURGE="12" COMMENT="" />
    <EXPORT ORDINAL="820" NAME="?PasteDIBFromHGlobal@CPasteObject@@AAGJPAUtagSTGMEDIUM@@PAUIRowset@@@Z" PURGE="12" COMMENT="" />
    <EXPORT ORDINAL="821" NAME="?PasteFromData@CPasteObject@@QAEHPAUIDataObject@@@Z" PURGE="4" COMMENT="" />
    <EXPORT ORDINAL="822" NAME="?PasteHDROP@CPasteObject@@AAGJPAUtagSTGMEDIUM@@PAGK@Z" PURGE="16" COMMENT="" />
    <EXPORT ORDINAL="823" NAME="?PasteMStoreClip@CPasteObject@@AAGJPAUtagSTGMEDIUM@@PBG1@Z" PURGE="16" COMMENT="" />
    <EXPORT ORDINAL="824" NAME="?PasteMStoreClips@CPasteClipsDlg@@QAEXXZ" PURGE="0" COMMENT="" />
    <EXPORT ORDINAL="825" NAME="?PasteMStoreCollection@CPasteObject@@AAGJPAUtagSTGMEDIUM@@@Z" PURGE="8" COMMENT="" />
    <EXPORT ORDINAL="826" NAME="?PasteMetafile@CPasteObject@@AAGJPAUtagSTGMEDIUM@@PAUIRowset@@@Z" PURGE="12" COMMENT="" />
    <EXPORT ORDINAL="827" NAME="?PasteNonClipboardClips@CPasteClipsDlg@@QAEXXZ" PURGE="0" COMMENT="" />
    <EXPORT ORDINAL="828" NAME="?PasteOfficeArtData@CPasteObject@@AAGJPAUIDataObject@@PAUtagSTGMEDIUM@@PAUIRowset@@@Z" PURGE="16" COMMENT="" />
    <EXPORT ORDINAL="829" NAME="?PasteToSameParent@CPasteObject@@CAHPBG0@Z" PURGE="0" COMMENT="" />
    <EXPORT ORDINAL="830" NAME="?PathIsAWatchDir@CMediaScan@@QAEHPBG@Z" PURGE="4" COMMENT="" />
    <EXPORT ORDINAL="831" NAME="?Perform@CImportTask@@UAEXPAVCTaskThread@@@Z" PURGE="4" COMMENT="" />
    <EXPORT ORDINAL="832" NAME="?PickBestApp@QueryListOfApps@@QBE_NPAH@Z" PURGE="4" COMMENT="" />
    <EXPORT ORDINAL="833" NAME="?PopulateListbox@CLegacyResultsDlg@@QAEXXZ" PURGE="0" COMMENT="" />
    <EXPORT ORDINAL="834" NAME="?PostMessageToOpenDialogs@CMStoreSApp@@QAEXIIJ@Z" PURGE="12" COMMENT="" />
    <EXPORT ORDINAL="835" NAME="?PrimeAccessor@CImport@@QAEJPBGAAV?$CAccessorRowset@V?$CAccessor@UCMCCustomEntry@@@ATL@@VCRowset@2@@ATL@@H@Z" PURGE="12" COMMENT="" />
    <EXPORT ORDINAL="836" NAME="?PrimeAccessor@CMoveClipsMeterDlg@@AAEJPAUCLIPRECORD@@AAV?$CAccessorRowset@V?$CAccessor@UCMCCustomEntry@@@ATL@@VCRowset@2@@ATL@@@Z" PURGE="8" COMMENT="" />
    <EXPORT ORDINAL="837" NAME="?PrimeAccessor@CPasteClipsDlg@@AAEJPAUCLIPRECORD@@AAV?$CAccessorRowset@V?$CAccessor@UCMCCustomEntry@@@ATL@@VCRowset@2@@ATL@@@Z" PURGE="8" COMMENT="" />
    <EXPORT ORDINAL="838" NAME="?Process@CPackageFile@@QAEJPAUIUnknown@@@Z" PURGE="4" COMMENT="" />
    <EXPORT ORDINAL="839" NAME="?ProductExists@QueryListOfApps@@QBE_NPBDPAH@Z" PURGE="8" COMMENT="" />
    <EXPORT ORDINAL="840" NAME="?ProgressComplete@CCompactDlg@@QAEXXZ" PURGE="0" COMMENT="" />
    <EXPORT ORDINAL="841" NAME="?ProgressComplete@CImportMeter@@QAEXXZ" PURGE="0" COMMENT="" />
    <EXPORT ORDINAL="842" NAME="?ProgressComplete@CKeywordMeterDlg@@QAEXXZ" PURGE="0" COMMENT="" />
    <EXPORT ORDINAL="843" NAME="?ProgressComplete@CMoveClipsMeterDlg@@QAEXXZ" PURGE="0" COMMENT="" />
    <EXPORT ORDINAL="844" NAME="?ProgressComplete@CNewCollectionMeterDlg@@QAEXXZ" PURGE="0" COMMENT="" />
    <EXPORT ORDINAL="845" NAME="?ProgressComplete@CPasteClipsDlg@@QAEXXZ" PURGE="0" COMMENT="" />
    <EXPORT ORDINAL="846" NAME="?ProgressComplete@CScanMeter@@QAEXXZ" PURGE="0" COMMENT="" />
    <EXPORT ORDINAL="847" NAME="?PromptUserForPasteCollection@CImport@@AAEJPAPAUIRowset@@@Z" PURGE="4" COMMENT="" />
    <EXPORT ORDINAL="848" NAME="?PutInSelf@CPasteObject@@AAEHPBG@Z" PURGE="4" COMMENT="" />
    <EXPORT ORDINAL="849" NAME="?QueryInterface@CCompactDlg@@UAGJABU_GUID@@PAPAX@Z" PURGE="12" COMMENT="" />
    <EXPORT ORDINAL="850" NAME="?QueryInterface@CMoveCollectionDlg@@UAGJABU_GUID@@PAPAX@Z" PURGE="12" COMMENT="" />
    <EXPORT ORDINAL="851" NAME="?QueryInterface@CMsoString@@UAGJABU_GUID@@PAPAX@Z" PURGE="12" COMMENT="" />
    <EXPORT ORDINAL="852" NAME="?QueryInterface@CNewCollectionDlg@@UAGJABU_GUID@@PAPAX@Z" PURGE="12" COMMENT="" />
    <EXPORT ORDINAL="853" NAME="?QuickSort@?$CAGTPX@PAG@@QAEXP6IHPBX0@Z@Z" PURGE="4" COMMENT="" />
    <EXPORT ORDINAL="854" NAME="?QuickSort@?$CAGTPX@PAUCImportTaskNode@@@@QAEXP6IHPBX0@Z@Z" PURGE="4" COMMENT="" />
    <EXPORT ORDINAL="855" NAME="?QuickSort@?$CAGTPX@PAVCatalogInfo@@@@QAEXP6IHPBX0@Z@Z" PURGE="4" COMMENT="" />
    <EXPORT ORDINAL="856" NAME="?QuickSort@?$CAGTPX@UCMapEntry@@@@QAEXP6IHPBX0@Z@Z" PURGE="4" COMMENT="" />
    <EXPORT ORDINAL="857" NAME="?Ready@CCompactDlg@@QBEHXZ" PURGE="0" COMMENT="" />
    <EXPORT ORDINAL="858" NAME="?Ready@CImportMeter@@QBEHXZ" PURGE="0" COMMENT="" />
    <EXPORT ORDINAL="859" NAME="?Ready@CKeywordMeterDlg@@QBEHXZ" PURGE="0" COMMENT="" />
    <EXPORT ORDINAL="860" NAME="?Ready@CMoveClipsMeterDlg@@QBEHXZ" PURGE="0" COMMENT="" />
    <EXPORT ORDINAL="861" NAME="?Ready@CNewCollectionMeterDlg@@QBEHXZ" PURGE="0" COMMENT="" />
    <EXPORT ORDINAL="862" NAME="?Ready@CPasteClipsDlg@@QBEHXZ" PURGE="0" COMMENT="" />
    <EXPORT ORDINAL="863" NAME="?Ready@CScanMeter@@QBEHXZ" PURGE="0" COMMENT="" />
    <EXPORT ORDINAL="864" NAME="?RefuseFocus@CTreeView@@UAEXXZ" PURGE="0" COMMENT="" />
    <EXPORT ORDINAL="865" NAME="?RegisterDialogHWND@CMStoreSApp@@QAEXPAUHWND__@@@Z" PURGE="4" COMMENT="" />
    <EXPORT ORDINAL="866" NAME="?Release@CBaseThreadTask@@UAEJXZ" PURGE="0" COMMENT="" />
    <EXPORT ORDINAL="867" NAME="?Release@CCompactDlg@@UAGKXZ" PURGE="4" COMMENT="" />
    <EXPORT ORDINAL="868" NAME="?Release@CMstoreDBConnection@@QAEXXZ" PURGE="0" COMMENT="" />
    <EXPORT ORDINAL="869" NAME="?ReleaseBuffer@CMsoString@@UAGXXZ" PURGE="4" COMMENT="" />
    <EXPORT ORDINAL="870" NAME="?ReleaseDatabaseConnection@CMStoreSApp@@QAEXXZ" PURGE="0" COMMENT="" />
    <EXPORT ORDINAL="871" NAME="?RememberEditControlHwnd@CTreeView@@QAEXPAUHWND__@@@Z" PURGE="4" COMMENT="" />
    <EXPORT ORDINAL="872" NAME="?RemoveAnyUnselectedWatchDirs@CAutoImportSetupDlg@@QAEJXZ" PURGE="0" COMMENT="" />
    <EXPORT ORDINAL="873" NAME="?RemoveDuplicateKeywords@CImport@@QAEXPAGH@Z" PURGE="8" COMMENT="" />
    <EXPORT ORDINAL="874" NAME="?RemoveFromCollection@CMoveClipsMeterDlg@@AAEJAAVCXmlDoc@@PBG@Z" PURGE="8" COMMENT="" />
    <EXPORT ORDINAL="875" NAME="?RemoveLeadingSpaces@CMsoString@@UAGXXZ" PURGE="4" COMMENT="" />
    <EXPORT ORDINAL="876" NAME="?RemoveOutsideSpaces@CMsoString@@QAEXXZ" PURGE="0" COMMENT="" />
    <EXPORT ORDINAL="877" NAME="?RemoveTrailingComma@CImport@@CAXPAGH@Z" PURGE="0" COMMENT="" />
    <EXPORT ORDINAL="878" NAME="?RemoveTrailingSpaces@CMsoString@@UAGXXZ" PURGE="4" COMMENT="" />
    <EXPORT ORDINAL="879" NAME="?RenameCollection@CTreeView@@QAEJPBG0@Z" PURGE="8" COMMENT="" />
    <EXPORT ORDINAL="880" NAME="?RenameItem@CTreeView@@UAEXPAU_TREEITEM@@@Z" PURGE="4" COMMENT="" />
    <EXPORT ORDINAL="881" NAME="?ReplaceWchWithWch@CMsoString@@QAEXGG@Z" PURGE="8" COMMENT="" />
    <EXPORT ORDINAL="882" NAME="?ReplaceWchWithWch@CMsoString@@UAGXGGH@Z" PURGE="16" COMMENT="" />
    <EXPORT ORDINAL="883" NAME="?ReplaceWchWithWchSubstr@CMsoString@@UAGXGGHH@Z" PURGE="20" COMMENT="" />
    <EXPORT ORDINAL="884" NAME="?ResetAbortFlag@CImport@@QAEXXZ" PURGE="0" COMMENT="" />
    <EXPORT ORDINAL="885" NAME="?ResetDrawDelay@CSearchClient@@QAEXXZ" PURGE="0" COMMENT="" />
    <EXPORT ORDINAL="886" NAME="?ResetFilter@CImportTask@@AAEXXZ" PURGE="0" COMMENT="" />
    <EXPORT ORDINAL="887" NAME="?ResetImportErrFlags@CImport@@QAEXXZ" PURGE="0" COMMENT="" />
    <EXPORT ORDINAL="888" NAME="?ResetResultPages@CThumbGallery@@QAEXXZ" PURGE="0" COMMENT="" />
    <EXPORT ORDINAL="889" NAME="?ResolveShortcut@CImportMeter@@QAEJPAGH@Z" PURGE="8" COMMENT="" />
    <EXPORT ORDINAL="890" NAME="?ResolveShortcut@CKeywordMeterDlg@@AAEJPAGH@Z" PURGE="8" COMMENT="" />
    <EXPORT ORDINAL="891" NAME="?RestoreInteruptState@CImportTask@@AAEHXZ" PURGE="0" COMMENT="" />
    <EXPORT ORDINAL="892" NAME="?RevokeDragDrop@CThumbGallery@@QAEXXZ" PURGE="0" COMMENT="" />
    <EXPORT ORDINAL="893" NAME="?SaveBitmapToDisk@CPasteObject@@AAGJPBUtagBITMAPINFO@@PAPAG@Z" PURGE="12" COMMENT="" />
    <EXPORT ORDINAL="894" NAME="?ScaleDib@CDib@@QAEJKKK@Z" PURGE="12" COMMENT="" />
    <EXPORT ORDINAL="895" NAME="?ScanThreadProc@CMediaScan@@CGIPAX@Z" PURGE="4" COMMENT="" />
    <EXPORT ORDINAL="896" NAME="?ScorePicks@QueryListOfApps@@ABEHHHK@Z" PURGE="12" COMMENT="" />
    <EXPORT ORDINAL="897" NAME="?SearchFixedDrives@CMediaScan@@AAEJXZ" PURGE="0" COMMENT="" />
    <EXPORT ORDINAL="898" NAME="?SearchOfficeOnlineUserFolders@CMediaScan@@AAEJXZ" PURGE="0" COMMENT="" />
    <EXPORT ORDINAL="899" NAME="?SearchScanDirs@CMediaScan@@AAEJXZ" PURGE="0" COMMENT="" />
    <EXPORT ORDINAL="900" NAME="?SelectItem@CTreeView@@QAEHABQAU_TREEITEM@@@Z" PURGE="4" COMMENT="" />
    <EXPORT ORDINAL="901" NAME="?Set@CatalogInfo@@QAEXABVRegistryIO@@PBD@Z" PURGE="8" COMMENT="" />
    <EXPORT ORDINAL="902" NAME="?SetAutoPlay@CMediaPlayerPreview@@QAEXH@Z" PURGE="4" COMMENT="" />
    <EXPORT ORDINAL="903" NAME="?SetAutoPlay@CPreviewManager@@QAEXH@Z" PURGE="4" COMMENT="" />
    <EXPORT ORDINAL="904" NAME="?SetCheckStateForAllChildren@CAutoImportSetupDlg@@QAEXH@Z" PURGE="4" COMMENT="" />
    <EXPORT ORDINAL="905" NAME="?SetCollectionTreePtr@CMStoreSApp@@QAEXPAVCTreeView@@@Z" PURGE="4" COMMENT="" />
    <EXPORT ORDINAL="906" NAME="?SetCurrentFileAndFilter@CImportTask@@AAEHXZ" PURGE="0" COMMENT="" />
    <EXPORT ORDINAL="907" NAME="?SetDestCollectionURL@CMoveCollectionDlg@@QAEXPBG@Z" PURGE="4" COMMENT="" />
    <EXPORT ORDINAL="908" NAME="?SetDib@CDib@@QAEJPAUtagBITMAPINFO@@_N@Z" PURGE="8" COMMENT="" />
    <EXPORT ORDINAL="909" NAME="?SetDisableAlerts@CMStoreSApp@@QAEXH@Z" PURGE="4" COMMENT="" />
    <EXPORT ORDINAL="910" NAME="?SetDontShowFlag@CNewCollectionMeterDlg@@QAEXH@Z" PURGE="4" COMMENT="" />
    <EXPORT ORDINAL="911" NAME="?SetDragHTREEITEM@CTreeView@@QAEXPAU_TREEITEM@@@Z" PURGE="4" COMMENT="" />
    <EXPORT ORDINAL="912" NAME="?SetECommerceInProgress@CMStoreSApp@@QAEXH@Z" PURGE="4" COMMENT="" />
    <EXPORT ORDINAL="913" NAME="?SetErrorAlert@CMstoreDBConnection@@QAEXIJ@Z" PURGE="8" COMMENT="" />
    <EXPORT ORDINAL="914" NAME="?SetFocus@CTreeView@@QAEXXZ" PURGE="0" COMMENT="" />
    <EXPORT ORDINAL="915" NAME="?SetGrabFocus@CTreeView@@QAEXH@Z" PURGE="4" COMMENT="" />
    <EXPORT ORDINAL="916" NAME="?SetHDlg@CTreeView@@QAEXPAPAX@Z" PURGE="4" COMMENT="" />
    <EXPORT ORDINAL="917" NAME="?SetHiddenKeywords@CImport@@QAEXPBG@Z" PURGE="4" COMMENT="" />
    <EXPORT ORDINAL="918" NAME="?SetHwndTree@CTreeView@@QAEXPAUHWND__@@@Z" PURGE="4" COMMENT="" />
    <EXPORT ORDINAL="919" NAME="?SetHwndTreeParent@CTreeView@@QAEXPAUHWND__@@@Z" PURGE="4" COMMENT="" />
    <EXPORT ORDINAL="920" NAME="?SetImportType@CImport@@QAEXW4eImportType@@@Z" PURGE="4" COMMENT="" />
    <EXPORT ORDINAL="921" NAME="?SetMediaDirIdx@CMediaScan@@QAEHKHHH@Z" PURGE="16" COMMENT="" />
    <EXPORT ORDINAL="922" NAME="?SetNewCollectionRoot@CKeywordMeterDlg@@QAEJPAGH@Z" PURGE="8" COMMENT="" />
    <EXPORT ORDINAL="923" NAME="?SetNewCollectionRoot@CNewCollectionMeterDlg@@QAEJPAGH@Z" PURGE="8" COMMENT="" />
    <EXPORT ORDINAL="924" NAME="?SetOperand@CMoveCollectionDlg@@QAEXW4eOperand@@@Z" PURGE="4" COMMENT="" />
    <EXPORT ORDINAL="925" NAME="?SetOptionalInfo@CCAGTimer@@QAEJPAUHWND__@@IP6GX0IIK@Z@Z" PURGE="12" COMMENT="" />
    <EXPORT ORDINAL="926" NAME="?SetPendingFocus@CTreeView@@QAEXH@Z" PURGE="4" COMMENT="" />
    <EXPORT ORDINAL="927" NAME="?SetPos@CImportMeter@@QAEXH@Z" PURGE="4" COMMENT="" />
    <EXPORT ORDINAL="928" NAME="?SetPriority@CBaseThreadTask@@QAEXE@Z" PURGE="4" COMMENT="" />
    <EXPORT ORDINAL="929" NAME="?SetProgressMeter@CAutoImportSetupDlg@@QAEXPAVCProgressDlg@@@Z" PURGE="4" COMMENT="" />
    <EXPORT ORDINAL="930" NAME="?SetProgressMeterPtr@CMediaScan@@QAEXPAVCScanMeter@@@Z" PURGE="4" COMMENT="" />
    <EXPORT ORDINAL="931" NAME="?SetRetTmc@CAutoImportStartupDlg@@QAEXI@Z" PURGE="4" COMMENT="" />
    <EXPORT ORDINAL="932" NAME="?SetRgbaDib@CDib@@QAEJPAUtagBITMAPINFO@@@Z" PURGE="4" COMMENT="" />
    <EXPORT ORDINAL="933" NAME="?SetRootItems@CTreeView@@QAEXXZ" PURGE="0" COMMENT="" />
    <EXPORT ORDINAL="934" NAME="?SetScanDirList@CMediaScan@@QAEJPBG@Z" PURGE="4" COMMENT="" />
    <EXPORT ORDINAL="935" NAME="?SetScope@CNewCollectionMeterDlg@@QAEXH@Z" PURGE="4" COMMENT="" />
    <EXPORT ORDINAL="936" NAME="?SetScope@CScanMeter@@QAEXH@Z" PURGE="4" COMMENT="" />
    <EXPORT ORDINAL="937" NAME="?SetSearchResultsFlag@CSearchClient@@QAEXH@Z" PURGE="4" COMMENT="" />
    <EXPORT ORDINAL="938" NAME="?SetSectionKey@RegistryIO@@QAE_NPAUHKEY__@@PBD_N2@Z" PURGE="16" COMMENT="" />
    <EXPORT ORDINAL="939" NAME="?SetSectionKey@RegistryIO@@QAE_NPBD_N@Z" PURGE="8" COMMENT="" />
    <EXPORT ORDINAL="940" NAME="?SetSelectedFriendlyName@CMoveCollectionDlg@@QAEXXZ" PURGE="0" COMMENT="" />
    <EXPORT ORDINAL="941" NAME="?SetShowFlag@CAutoImportStartupDlg@@QAEXH@Z" PURGE="4" COMMENT="" />
    <EXPORT ORDINAL="942" NAME="?SetThreadState@CMediaScan@@QAEXH@Z" PURGE="4" COMMENT="" />
    <EXPORT ORDINAL="943" NAME="?SgnCompareWz@CMsoString@@QBEHPBG@Z" PURGE="4" COMMENT="" />
    <EXPORT ORDINAL="944" NAME="?SgnCompareWz@CMsoString@@UBGHPBGH@Z" PURGE="12" COMMENT="" />
    <EXPORT ORDINAL="945" NAME="?SgnCompareWzNoCase@CMsoString@@QBEHPBG@Z" PURGE="4" COMMENT="" />
    <EXPORT ORDINAL="946" NAME="?SgnCompareWzSubstr@CMsoString@@UBGHPBGHH@Z" PURGE="16" COMMENT="" />
    <EXPORT ORDINAL="947" NAME="?Show@CMediaPlayerPreview@@UAEXXZ" PURGE="0" COMMENT="" />
    <EXPORT ORDINAL="948" NAME="?Show@CPreview@@UAEXXZ" PURGE="0" COMMENT="" />
    <EXPORT ORDINAL="949" NAME="?Show@CPreviewManager@@UAEXXZ" PURGE="0" COMMENT="" />
    <EXPORT ORDINAL="950" NAME="?ShowCheckbox@CAutoImportStartupDlg@@QBEHXZ" PURGE="0" COMMENT="" />
    <EXPORT ORDINAL="951" NAME="?ShowDlg@CAutoImportSetupDlg@@QAEIXZ" PURGE="0" COMMENT="" />
    <EXPORT ORDINAL="952" NAME="?ShowDlg@CAutoImportStartupDlg@@QAEIH@Z" PURGE="4" COMMENT="" />
    <EXPORT ORDINAL="953" NAME="?ShowDlg@CCompactDlg@@QAEIXZ" PURGE="0" COMMENT="" />
    <EXPORT ORDINAL="954" NAME="?ShowDlg@CImportMeter@@QAEIXZ" PURGE="0" COMMENT="" />
    <EXPORT ORDINAL="955" NAME="?ShowDlg@CKeywordMeterDlg@@QAEIXZ" PURGE="0" COMMENT="" />
    <EXPORT ORDINAL="956" NAME="?ShowDlg@CKeywordMgmtDlg@@QAEXPAUIResultSet@@PAIHHPAUIResultTracker@@@Z" PURGE="20" COMMENT="" />
    <EXPORT ORDINAL="957" NAME="?ShowDlg@CLegacyResultsDlg@@QAEIXZ" PURGE="0" COMMENT="" />
    <EXPORT ORDINAL="958" NAME="?ShowDlg@CMoveClipsMeterDlg@@QAEIPBG@Z" PURGE="4" COMMENT="" />
    <EXPORT ORDINAL="959" NAME="?ShowDlg@CMoveCollectionDlg@@QAEIXZ" PURGE="0" COMMENT="" />
    <EXPORT ORDINAL="960" NAME="?ShowDlg@CNewCollectionDlg@@QAEXXZ" PURGE="0" COMMENT="" />
    <EXPORT ORDINAL="961" NAME="?ShowDlg@CNewCollectionMeterDlg@@QAEIXZ" PURGE="0" COMMENT="" />
    <EXPORT ORDINAL="962" NAME="?ShowDlg@CPasteClipsDlg@@QAEIPBG@Z" PURGE="4" COMMENT="" />
    <EXPORT ORDINAL="963" NAME="?ShowDlg@CPreviewDlg@@QAEXPAUIResultSet@@PAIHPAUIResultTracker@@@Z" PURGE="16" COMMENT="" />
    <EXPORT ORDINAL="964" NAME="?ShowDlg@CScanMeter@@QAEIXZ" PURGE="0" COMMENT="" />
    <EXPORT ORDINAL="965" NAME="?ShowNonClipboardMoveDlg@CMoveClipsMeterDlg@@QAEIPBG0PAUIResultSet@@@Z" PURGE="12" COMMENT="" />
    <EXPORT ORDINAL="966" NAME="?ShowNonClipboardMoveDlg@CPasteClipsDlg@@QAEIPBGPAUIResultSet@@@Z" PURGE="8" COMMENT="" />
    <EXPORT ORDINAL="967" NAME="?ShowResults@CMoveCollectionDlg@@UAGXPBGPAUIBindResource@@0PAUIMsoSearchScope@@@Z" PURGE="20" COMMENT="" />
    <EXPORT ORDINAL="968" NAME="?ShowResults@CNewCollectionDlg@@UAGXPBGPAUIBindResource@@0PAUIMsoSearchScope@@@Z" PURGE="20" COMMENT="" />
    <EXPORT ORDINAL="969" NAME="?ShowStaggered@CMessagePreview@@QAEXH@Z" PURGE="4" COMMENT="" />
    <EXPORT ORDINAL="970" NAME="?Size@CAutoImpTaskQueue@@QBEKXZ" PURGE="0" COMMENT="" />
    <EXPORT ORDINAL="971" NAME="?Size@CWzToIntMap@@QBEJXZ" PURGE="0" COMMENT="" />
    <EXPORT ORDINAL="972" NAME="?StartImporting@CImportMeter@@QAEJXZ" PURGE="0" COMMENT="" />
    <EXPORT ORDINAL="973" NAME="?StartMeter@CCompactDlg@@QAEXXZ" PURGE="0" COMMENT="" />
    <EXPORT ORDINAL="974" NAME="?StartMeter@CImportMeter@@QAEXXZ" PURGE="0" COMMENT="" />
    <EXPORT ORDINAL="975" NAME="?StartMeter@CKeywordMeterDlg@@QAEXXZ" PURGE="0" COMMENT="" />
    <EXPORT ORDINAL="976" NAME="?StartMeter@CMoveClipsMeterDlg@@QAEXXZ" PURGE="0" COMMENT="" />
    <EXPORT ORDINAL="977" NAME="?StartMeter@CNewCollectionMeterDlg@@QAEXXZ" PURGE="0" COMMENT="" />
    <EXPORT ORDINAL="978" NAME="?StartMeter@CPasteClipsDlg@@QAEXXZ" PURGE="0" COMMENT="" />
    <EXPORT ORDINAL="979" NAME="?StartMeter@CScanMeter@@QAEXXZ" PURGE="0" COMMENT="" />
    <EXPORT ORDINAL="980" NAME="?StartTimer@CCAGTimer@@QAEJIPAI@Z" PURGE="8" COMMENT="" />
    <EXPORT ORDINAL="981" NAME="?StepIt@CCompactDlg@@QAEXXZ" PURGE="0" COMMENT="" />
    <EXPORT ORDINAL="982" NAME="?StepIt@CKeywordMeterDlg@@QAEXXZ" PURGE="0" COMMENT="" />
    <EXPORT ORDINAL="983" NAME="?StepIt@CMoveClipsMeterDlg@@QAEXXZ" PURGE="0" COMMENT="" />
    <EXPORT ORDINAL="984" NAME="?StepIt@CNewCollectionMeterDlg@@QAEXXZ" PURGE="0" COMMENT="" />
    <EXPORT ORDINAL="985" NAME="?StepIt@CPasteClipsDlg@@QAEXXZ" PURGE="0" COMMENT="" />
    <EXPORT ORDINAL="986" NAME="?StepIt@CScanMeter@@QAEXXZ" PURGE="0" COMMENT="" />
    <EXPORT ORDINAL="987" NAME="?StopScan@CMediaScan@@QAEXXZ" PURGE="0" COMMENT="" />
    <EXPORT ORDINAL="988" NAME="?StopTimer@CCAGTimer@@QAEJXZ" PURGE="0" COMMENT="" />
    <EXPORT ORDINAL="989" NAME="?StyleSearch@CMStoreSApp@@QAEJXZ" PURGE="0" COMMENT="" />
    <EXPORT ORDINAL="990" NAME="?SupportedFileType@CImport@@AAEJPBGK@Z" PURGE="8" COMMENT="" />
    <EXPORT ORDINAL="991" NAME="?SuspendedDirStillMapsToCollection@CImportTask@@AAEHXZ" PURGE="0" COMMENT="" />
    <EXPORT ORDINAL="992" NAME="?Terminated@CCompactDlg@@QBEHXZ" PURGE="0" COMMENT="" />
    <EXPORT ORDINAL="993" NAME="?Terminated@CImport@@QBEHXZ" PURGE="0" COMMENT="" />
    <EXPORT ORDINAL="994" NAME="?Terminated@CImportMeter@@QBEHXZ" PURGE="0" COMMENT="" />
    <EXPORT ORDINAL="995" NAME="?Terminated@CKeywordMeterDlg@@QBEHXZ" PURGE="0" COMMENT="" />
    <EXPORT ORDINAL="996" NAME="?Terminated@CMoveClipsMeterDlg@@QBEHXZ" PURGE="0" COMMENT="" />
    <EXPORT ORDINAL="997" NAME="?Terminated@CNewCollectionMeterDlg@@QBEHXZ" PURGE="0" COMMENT="" />
    <EXPORT ORDINAL="998" NAME="?Terminated@CPasteClipsDlg@@QBEHXZ" PURGE="0" COMMENT="" />
    <EXPORT ORDINAL="999" NAME="?Terminated@CScanMeter@@QBEHXZ" PURGE="0" COMMENT="" />
    <EXPORT ORDINAL="1000" NAME="?TimerTick@CGELPreview@@QAEXK@Z" PURGE="4" COMMENT="" />
    <EXPORT ORDINAL="1001" NAME="?TmcTv@CTreeView@@QBEIXZ" PURGE="0" COMMENT="" />
    <EXPORT ORDINAL="1002" NAME="?TotalCompletedImports@CImportMeter@@QBEHXZ" PURGE="0" COMMENT="" />
    <EXPORT ORDINAL="1003" NAME="?UnregisterDialogHWND@CMStoreSApp@@QAEXPAUHWND__@@@Z" PURGE="4" COMMENT="" />
    <EXPORT ORDINAL="1004" NAME="?UpdateDataFromTreeViewSelections@CAutoImportSetupDlg@@QAEXXZ" PURGE="0" COMMENT="" />
    <EXPORT ORDINAL="1005" NAME="?UpdateEntry@QueryListOfApps@@QAEXABVRegistryIO@@HABVCatalogInfo@@@Z" PURGE="12" COMMENT="" />
    <EXPORT ORDINAL="1006" NAME="?UpdateHItemLocation@CTreeView@@QAEHPAU_TREEITEM@@PAUIMsoSearchLocation@@@Z" PURGE="8" COMMENT="" />
    <EXPORT ORDINAL="1007" NAME="?UpdatePathAndVersionInfo@CatalogInfo@@QAEXABVRegistryIO@@ABV1@@Z" PURGE="8" COMMENT="" />
    <EXPORT ORDINAL="1008" NAME="?UpdateScrollBar@CThumbGallery@@QAEXXZ" PURGE="0" COMMENT="" />
    <EXPORT ORDINAL="1009" NAME="?UpdateTreeWithExistingWatchDirData@CAutoImportSetupDlg@@QAEHXZ" PURGE="0" COMMENT="" />
    <EXPORT ORDINAL="1010" NAME="?VaRegQueryValue@RegistryIO@@ABEJPBDPADPAKPAX2@Z" PURGE="20" COMMENT="" />
    <EXPORT ORDINAL="1011" NAME="?VaRegSetValue@RegistryIO@@ABEJPBDPADKPBXK@Z" PURGE="20" COMMENT="" />
    <EXPORT ORDINAL="1012" NAME="?WaitUntilIdle@CMediaScan@@QAEXXZ" PURGE="0" COMMENT="" />
    <EXPORT ORDINAL="1013" NAME="?WaitUntilScanStops@CAutoImportSetupDlg@@QAEXXZ" PURGE="0" COMMENT="" />
    <EXPORT ORDINAL="1014" NAME="?WaitUntilScanStops@CScanMeter@@QAEXXZ" PURGE="0" COMMENT="" />
    <EXPORT ORDINAL="1015" NAME="?WasTerminated@CMediaScan@@QBEHXZ" PURGE="0" COMMENT="" />
    <EXPORT ORDINAL="1016" NAME="?WchGetAt@CMsoString@@UBGGH@Z" PURGE="8" COMMENT="" />
    <EXPORT ORDINAL="1017" NAME="?WorkpaneShow@CTreeView@@UAEXH@Z" PURGE="4" COMMENT="" />
    <EXPORT ORDINAL="1018" NAME="?WriteLegacyCatalogInfoToRegistry@CLegacyDlg@@QAEHPBD000@Z" PURGE="16" COMMENT="" />
    <EXPORT ORDINAL="1019" NAME="?WriteProfileIntA@RegistryIO@@QBA_NPBDHZZ" PURGE="0" COMMENT="" />
    <EXPORT ORDINAL="1020" NAME="?WriteProfileStringA@RegistryIO@@QBA_NPBD0ZZ" PURGE="0" COMMENT="" />
    <EXPORT ORDINAL="1021" NAME="?WriteSharedCatalogInfoToRegistry@CLegacyDlg@@QAEHPBD000@Z" PURGE="16" COMMENT="" />
    <EXPORT ORDINAL="1022" NAME="?WzGetValue@CMsoString@@UBGPBGXZ" PURGE="4" COMMENT="" />
    <EXPORT ORDINAL="1023" NAME="?WzLocalPath@CPreview@@UAEPBGXZ" PURGE="0" COMMENT="" />
    <EXPORT ORDINAL="1024" NAME="?WzLocalPath@CPreviewManager@@UAEPBGXZ" PURGE="0" COMMENT="" />
    <EXPORT ORDINAL="1025" NAME="?WzLockBuffer@CMsoString@@UAGPAGH@Z" PURGE="8" COMMENT="" />
    <EXPORT ORDINAL="1026" NAME="?_GetBindEntries@CMCCatalogInfoEntry@@SAJPAPAGPAKPAUtagDBBINDING@@KPA_NPAE_N@Z" PURGE="0" COMMENT="" />
    <EXPORT ORDINAL="1027" NAME="?_GetBindEntries@CMCCollectionEntry@@SAJPAPAGPAKPAUtagDBBINDING@@KPA_NPAE_N@Z" PURGE="0" COMMENT="" />
    <EXPORT ORDINAL="1028" NAME="?_GetBindEntries@CMCCustomEntry@@SAJPAPAGPAKPAUtagDBBINDING@@KPA_NPAE_N@Z" PURGE="0" COMMENT="" />
    <EXPORT ORDINAL="1029" NAME="?_GetNumAccessors@CMCCatalogInfoEntry@@SAKXZ" PURGE="0" COMMENT="" />
    <EXPORT ORDINAL="1030" NAME="?_GetNumAccessors@CMCCollectionEntry@@SAKXZ" PURGE="0" COMMENT="" />
    <EXPORT ORDINAL="1031" NAME="?_GetNumAccessors@CMCCustomEntry@@SAKXZ" PURGE="0" COMMENT="" />
    <EXPORT ORDINAL="1032" NAME="?_Process@CPackageFile@@AAEJPAUIUnknown@@PAVCImportMeter@@@Z" PURGE="8" COMMENT="" />
    <EXPORT ORDINAL="1033" NAME="?fConstructorError@CPasteObject@@QBEHXZ" PURGE="0" COMMENT="" />
    <EXPORT ORDINAL="1034" NAME="?fFullScan@CMediaScan@@ABEHXZ" PURGE="0" COMMENT="" />
    <EXPORT ORDINAL="1035" NAME="?fQueryPasteFromData@CPasteObject@@QAEHPAUIDataObject@@@Z" PURGE="4" COMMENT="" />
    <EXPORT ORDINAL="1036" NAME="?fStatusWindowExists@CAutoImportSetupDlg@@QBEHXZ" PURGE="0" COMMENT="" />
    <EXPORT ORDINAL="1037" NAME="?fUpdate@CAutoImportSetupDlg@@QBEHXZ" PURGE="0" COMMENT="" />
    <EXPORT ORDINAL="1038" NAME="?fWorkpane@CAutoImportStartupDlg@@QBEHXZ" PURGE="0" COMMENT="" />
    <EXPORT ORDINAL="1039" NAME="?g_pIDataObject@@3PAUIDataObject@@A" PURGE="-1" COMMENT="" />
    <EXPORT ORDINAL="1040" NAME="?m_fRegisteredPreviewWindow@CPreview@@2_NA" PURGE="-1" COMMENT="" />
    <EXPORT ORDINAL="1041" NAME="?m_fRegisteredTreeViewParent@CTreeView@@2HA" PURGE="-1" COMMENT="" />
    <EXPORT ORDINAL="1042" NAME="?m_szClassNameTreeViewParent@CTreeView@@2PAGA" PURGE="-1" COMMENT="" />
    <EXPORT ORDINAL="1043" NAME="?m_textMetric@CThumbnail@@0UtagTEXTMETRICA@@A" PURGE="-1" COMMENT="" />
    <EXPORT ORDINAL="1044" NAME="?m_wndprocSearchTree@CTreeView@@2P6GJPAUHWND__@@IIJ@ZA" PURGE="-1" COMMENT="" />
    <EXPORT ORDINAL="1045" NAME="?size@QueryListOfApps@@QBEHXZ" PURGE="0" COMMENT="" />
    <EXPORT ORDINAL="1046" NAME="_AssertValidClipType@4" PURGE="4" COMMENT="" />
    <EXPORT ORDINAL="1047" NAME="_BuildCollectionPath@16" PURGE="16" COMMENT="" />
    <EXPORT ORDINAL="1048" NAME="_CagDoDragDrop@24" PURGE="24" COMMENT="" />
    <EXPORT ORDINAL="1049" NAME="_CagExecuteCommandOnRowsetSession@20" PURGE="20" COMMENT="" />
    <EXPORT ORDINAL="1050" NAME="_CagExecuteCommandOnSession@20" PURGE="20" COMMENT="" />
    <EXPORT ORDINAL="1051" NAME="_CagGetFriendlyVolumeName@12" PURGE="12" COMMENT="" />
    <EXPORT ORDINAL="1052" NAME="_CagShellExecuteW@24" PURGE="24" COMMENT="" />
    <EXPORT ORDINAL="1053" NAME="_CalculateAspectRatio@16" PURGE="16" COMMENT="" />
    <EXPORT ORDINAL="1054" NAME="_CenterRect@8" PURGE="8" COMMENT="" />
    <EXPORT ORDINAL="1055" NAME="_ComposeTitle@12" PURGE="12" COMMENT="" />
    <EXPORT ORDINAL="1056" NAME="_CopyFileToPermanentLocation@20" PURGE="20" COMMENT="" />
    <EXPORT ORDINAL="1057" NAME="_CreateHiddenAutoImportCollection@8" PURGE="8" COMMENT="" />
    <EXPORT ORDINAL="1058" NAME="_CreatePermanentURL@16" PURGE="16" COMMENT="" />
    <EXPORT ORDINAL="1059" NAME="_CreateWindowEx32@52" PURGE="52" COMMENT="" />
    <EXPORT ORDINAL="1060" NAME="_DeleteClip@8" PURGE="8" COMMENT="" />
    <EXPORT ORDINAL="1061" NAME="_DeleteUserCollection@8" PURGE="8" COMMENT="" />
    <EXPORT ORDINAL="1062" NAME="DllCanUnloadNow" PURGE="0" COMMENT="" />
    <EXPORT ORDINAL="1063" NAME="DllGetClassObject" PURGE="12" COMMENT="" />
    <EXPORT ORDINAL="1064" NAME="_EscapeAmpersand@4" PURGE="4" COMMENT="" />
    <EXPORT ORDINAL="1065" NAME="_FAllowAutoImport@0" PURGE="0" COMMENT="" />
    <EXPORT ORDINAL="1066" NAME="_FAllowClipServerUpdate@0" PURGE="0" COMMENT="" />
    <EXPORT ORDINAL="1067" NAME="_FAllowClipsOnline@0" PURGE="0" COMMENT="" />
    <EXPORT ORDINAL="1068" NAME="_FAllowLegacyScope@0" PURGE="0" COMMENT="" />
    <EXPORT ORDINAL="1069" NAME="_FAllowMailAttach@0" PURGE="0" COMMENT="" />
    <EXPORT ORDINAL="1070" NAME="_FAllowOfficeScope@0" PURGE="0" COMMENT="" />
    <EXPORT ORDINAL="1071" NAME="_FAllowOpenClipsIn@0" PURGE="0" COMMENT="" />
    <EXPORT ORDINAL="1072" NAME="_FAllowPreviews@0" PURGE="0" COMMENT="" />
    <EXPORT ORDINAL="1073" NAME="_FAllowPrimaryChange@0" PURGE="0" COMMENT="" />
    <EXPORT ORDINAL="1074" NAME="_FAllowScanning@0" PURGE="0" COMMENT="" />
    <EXPORT ORDINAL="1075" NAME="_FAllowSharedScope@0" PURGE="0" COMMENT="" />
    <EXPORT ORDINAL="1076" NAME="_FAllowSoundsAndMotion@0" PURGE="0" COMMENT="" />
    <EXPORT ORDINAL="1077" NAME="_FAllowUserImport@0" PURGE="0" COMMENT="" />
    <EXPORT ORDINAL="1078" NAME="_FAllowUserScope@0" PURGE="0" COMMENT="" />
    <EXPORT ORDINAL="1079" NAME="_FAllowWebScope@0" PURGE="0" COMMENT="" />
    <EXPORT ORDINAL="1080" NAME="_FDialogContextHelp@20" PURGE="20" COMMENT="" />
    <EXPORT ORDINAL="1081" NAME="_FGetClipsOnlineURL@12" PURGE="12" COMMENT="" />
    <EXPORT ORDINAL="1082" NAME="_FIsReservedCollectionNameStr@4" PURGE="4" COMMENT="" />
    <EXPORT ORDINAL="1083" NAME="_FIsReservedCollectionNameWz@4" PURGE="4" COMMENT="" />
    <EXPORT ORDINAL="1084" NAME="_FIsRootScope@8" PURGE="8" COMMENT="" />
    <EXPORT ORDINAL="1085" NAME="_FIsUserScope@8" PURGE="8" COMMENT="" />
    <EXPORT ORDINAL="1086" NAME="_FIsWebClip@4" PURGE="4" COMMENT="" />
    <EXPORT ORDINAL="1087" NAME="_FIsWebLocation@8" PURGE="8" COMMENT="" />
    <EXPORT ORDINAL="1088" NAME="_FIsWebScope@8" PURGE="8" COMMENT="" />
    <EXPORT ORDINAL="1089" NAME="_FIsWritableScope@4" PURGE="4" COMMENT="" />
    <EXPORT ORDINAL="1090" NAME="_FLoadResourceStringWtz1@12" PURGE="12" COMMENT="" />
    <EXPORT ORDINAL="1091" NAME="_FLoadResourceStringWtz@8" PURGE="8" COMMENT="" />
    <EXPORT ORDINAL="1092" NAME="_FNameContainsInvalidCharacters@4" PURGE="4" COMMENT="" />
    <EXPORT ORDINAL="1093" NAME="_FPerformCagSearch@20" PURGE="20" COMMENT="" />
    <EXPORT ORDINAL="1094" NAME="_FUIBiDi@0" PURGE="0" COMMENT="" />
    <EXPORT ORDINAL="1095" NAME="_GenerateThumbnailFromFile@32" PURGE="32" COMMENT="" />
    <EXPORT ORDINAL="1096" NAME="_GetAutoImportDirectories@12" PURGE="12" COMMENT="" />
    <EXPORT ORDINAL="1097" NAME="GetCagInterface" PURGE="8" COMMENT="" />
    <EXPORT ORDINAL="1098" NAME="_GetClip@16" PURGE="16" COMMENT="" />
    <EXPORT ORDINAL="1099" NAME="_GetCollectionPathFromDirectory@12" PURGE="12" COMMENT="" />
    <EXPORT ORDINAL="1100" NAME="_GetIDataObject@0" PURGE="0" COMMENT="" />
    <EXPORT ORDINAL="1101" NAME="_GetIRowsetPtr@8" PURGE="8" COMMENT="" />
    <EXPORT ORDINAL="1102" NAME="_GetLocationBindInfo@24" PURGE="24" COMMENT="" />
    <EXPORT ORDINAL="1103" NAME="_GetMediaType@8" PURGE="8" COMMENT="" />
    <EXPORT ORDINAL="1104" NAME="_GetOfficeOnlineMyDocumentsFolder@12" PURGE="12" COMMENT="" />
    <EXPORT ORDINAL="1105" NAME="_GetRowCountFromRowset@8" PURGE="8" COMMENT="" />
    <EXPORT ORDINAL="1106" NAME="_GetWorkArea@4" PURGE="4" COMMENT="" />
    <EXPORT ORDINAL="1107" NAME="_GetWorkAreaForContainingMonitor@8" PURGE="8" COMMENT="" />
    <EXPORT ORDINAL="1108" NAME="_GetWzCaption@12" PURGE="12" COMMENT="" />
    <EXPORT ORDINAL="1109" NAME="_GetWzCost@12" PURGE="12" COMMENT="" />
    <EXPORT ORDINAL="1110" NAME="_GetWzDate@12" PURGE="12" COMMENT="" />
    <EXPORT ORDINAL="1111" NAME="_GetWzDuration@16" PURGE="16" COMMENT="" />
    <EXPORT ORDINAL="1112" NAME="_GetWzKeywords@12" PURGE="12" COMMENT="" />
    <EXPORT ORDINAL="1113" NAME="_GetWzOrientation@20" PURGE="20" COMMENT="" />
    <EXPORT ORDINAL="1114" NAME="_GetWzResolution@20" PURGE="20" COMMENT="" />
    <EXPORT ORDINAL="1115" NAME="_GetWzSize@16" PURGE="16" COMMENT="" />
    <EXPORT ORDINAL="1116" NAME="_GetWzType@16" PURGE="16" COMMENT="" />
    <EXPORT ORDINAL="1117" NAME="_GetWzUrl@12" PURGE="12" COMMENT="" />
    <EXPORT ORDINAL="1118" NAME="_HrCagAssocQueryString@28" PURGE="28" COMMENT="" />
    <EXPORT ORDINAL="1119" NAME="_HrCreateICagResultCache@8" PURGE="8" COMMENT="" />
    <EXPORT ORDINAL="1120" NAME="_HrCreateUserCollection@20" PURGE="20" COMMENT="" />
    <EXPORT ORDINAL="1121" NAME="_HrDetermineFileType@8" PURGE="8" COMMENT="" />
    <EXPORT ORDINAL="1122" NAME="_HrFollowHyperlink@4" PURGE="4" COMMENT="" />
    <EXPORT ORDINAL="1123" NAME="_HrGetBlipDimensions@12" PURGE="12" COMMENT="" />
    <EXPORT ORDINAL="1124" NAME="_HrGetEscapedDisplayName@12" PURGE="12" COMMENT="" />
    <EXPORT ORDINAL="1125" NAME="_HrGetFileNameFromAccessor@12" PURGE="12" COMMENT="" />
    <EXPORT ORDINAL="1126" NAME="_HrGetIMCBlobDataFromRowset@8" PURGE="8" COMMENT="" />
    <EXPORT ORDINAL="1127" NAME="_HrGetIconThumbnail@8" PURGE="8" COMMENT="" />
    <EXPORT ORDINAL="1128" NAME="_HrGetThumbnailFromCatalog@8" PURGE="8" COMMENT="" />
    <EXPORT ORDINAL="1129" NAME="_HrGetTooltipText@20" PURGE="20" COMMENT="" />
    <EXPORT ORDINAL="1130" NAME="_IsReadOnlyClip@8" PURGE="8" COMMENT="" />
    <EXPORT ORDINAL="1131" NAME="_IsRectOnScreen@4" PURGE="4" COMMENT="" />
    <EXPORT ORDINAL="1132" NAME="_LoadIconByType@8" PURGE="8" COMMENT="" />
    <EXPORT ORDINAL="1133" NAME="_MakeDuplicateFile@16" PURGE="16" COMMENT="" />
    <EXPORT ORDINAL="1134" NAME="_RegisterClassEx32@8" PURGE="8" COMMENT="" />
    <EXPORT ORDINAL="1135" NAME="_RemoveClipsFromCollection@12" PURGE="12" COMMENT="" />
    <EXPORT ORDINAL="1136" NAME="_ScaleRect@8" PURGE="8" COMMENT="" />
    <EXPORT ORDINAL="1137" NAME="_SetIDataObject@4" PURGE="4" COMMENT="" />
    <EXPORT ORDINAL="1138" NAME="_ShowImportUI@28" PURGE="28" COMMENT="" />
    <EXPORT ORDINAL="1139" NAME="_StoreAutoImportBookmark@12" PURGE="12" COMMENT="" />
    <EXPORT ORDINAL="1140" NAME="_TrimWhitespace@8" PURGE="8" COMMENT="" />
    <EXPORT ORDINAL="1141" NAME="__GetDIBInfoSize@4" PURGE="4" COMMENT="" />
    <EXPORT ORDINAL="1142" NAME="__GetDIBSize@4" PURGE="4" COMMENT="" />
</LIBRARY>

