<?xml version="1.0" encoding="UTF-8"?>
<LIBRARY NAME="ogremain.dll" PATH="/DLLArchive/etc/OgreMain.dll" DATE="Fri Jul 03 13:04:57 PDT 2020" VERSION="">
    <EXPORT ORDINAL="1" NAME="??0?$ControllerFunction@M@Ogre@@QAE@ABV01@@Z" PURGE="4" COMMENT="" />
    <EXPORT ORDINAL="2" NAME="??0?$ControllerFunction@M@Ogre@@QAE@_N@Z" PURGE="4" COMMENT="" />
    <EXPORT ORDINAL="3" NAME="??0?$ControllerValue@M@Ogre@@QAE@ABV01@@Z" PURGE="4" COMMENT="" />
    <EXPORT ORDINAL="4" NAME="??0?$ControllerValue@M@Ogre@@QAE@XZ" PURGE="0" COMMENT="" />
    <EXPORT ORDINAL="5" NAME="??0?$FactoryObj@VArchive@Ogre@@@Ogre@@QAE@ABV01@@Z" PURGE="4" COMMENT="" />
    <EXPORT ORDINAL="6" NAME="??0?$FactoryObj@VArchive@Ogre@@@Ogre@@QAE@XZ" PURGE="0" COMMENT="" />
    <EXPORT ORDINAL="7" NAME="??0?$FactoryObj@VParticleSystemRenderer@Ogre@@@Ogre@@QAE@ABV01@@Z" PURGE="4" COMMENT="" />
    <EXPORT ORDINAL="8" NAME="??0?$FactoryObj@VParticleSystemRenderer@Ogre@@@Ogre@@QAE@XZ" PURGE="0" COMMENT="" />
    <EXPORT ORDINAL="9" NAME="??0?$SharedPtr@VCompositor@Ogre@@@Ogre@@QAE@ABV01@@Z" PURGE="4" COMMENT="" />
    <EXPORT ORDINAL="10" NAME="??0?$SharedPtr@VCompositor@Ogre@@@Ogre@@QAE@PAVCompositor@1@@Z" PURGE="4" COMMENT="" />
    <EXPORT ORDINAL="11" NAME="??0?$SharedPtr@VCompositor@Ogre@@@Ogre@@QAE@XZ" PURGE="0" COMMENT="" />
    <EXPORT ORDINAL="12" NAME="??0?$SharedPtr@VFont@Ogre@@@Ogre@@QAE@ABV01@@Z" PURGE="4" COMMENT="" />
    <EXPORT ORDINAL="13" NAME="??0?$SharedPtr@VFont@Ogre@@@Ogre@@QAE@PAVFont@1@@Z" PURGE="4" COMMENT="" />
    <EXPORT ORDINAL="14" NAME="??0?$SharedPtr@VFont@Ogre@@@Ogre@@QAE@XZ" PURGE="0" COMMENT="" />
    <EXPORT ORDINAL="15" NAME="??0?$SharedPtr@VGpuProgram@Ogre@@@Ogre@@QAE@ABV01@@Z" PURGE="4" COMMENT="" />
    <EXPORT ORDINAL="16" NAME="??0?$SharedPtr@VGpuProgram@Ogre@@@Ogre@@QAE@PAVGpuProgram@1@@Z" PURGE="4" COMMENT="" />
    <EXPORT ORDINAL="17" NAME="??0?$SharedPtr@VGpuProgram@Ogre@@@Ogre@@QAE@XZ" PURGE="0" COMMENT="" />
    <EXPORT ORDINAL="18" NAME="??0?$SharedPtr@VHardwareIndexBuffer@Ogre@@@Ogre@@QAE@ABV01@@Z" PURGE="4" COMMENT="" />
    <EXPORT ORDINAL="19" NAME="??0?$SharedPtr@VHardwareIndexBuffer@Ogre@@@Ogre@@QAE@PAVHardwareIndexBuffer@1@@Z" PURGE="4" COMMENT="" />
    <EXPORT ORDINAL="20" NAME="??0?$SharedPtr@VHardwareIndexBuffer@Ogre@@@Ogre@@QAE@XZ" PURGE="0" COMMENT="" />
    <EXPORT ORDINAL="21" NAME="??0?$SharedPtr@VHardwarePixelBuffer@Ogre@@@Ogre@@QAE@ABV01@@Z" PURGE="4" COMMENT="" />
    <EXPORT ORDINAL="22" NAME="??0?$SharedPtr@VHardwarePixelBuffer@Ogre@@@Ogre@@QAE@PAVHardwarePixelBuffer@1@@Z" PURGE="4" COMMENT="" />
    <EXPORT ORDINAL="23" NAME="??0?$SharedPtr@VHardwarePixelBuffer@Ogre@@@Ogre@@QAE@XZ" PURGE="0" COMMENT="" />
    <EXPORT ORDINAL="24" NAME="??0?$SharedPtr@VHardwareVertexBuffer@Ogre@@@Ogre@@QAE@ABV01@@Z" PURGE="4" COMMENT="" />
    <EXPORT ORDINAL="25" NAME="??0?$SharedPtr@VHardwareVertexBuffer@Ogre@@@Ogre@@QAE@PAVHardwareVertexBuffer@1@@Z" PURGE="4" COMMENT="" />
    <EXPORT ORDINAL="26" NAME="??0?$SharedPtr@VHardwareVertexBuffer@Ogre@@@Ogre@@QAE@XZ" PURGE="0" COMMENT="" />
    <EXPORT ORDINAL="27" NAME="??0?$SharedPtr@VHighLevelGpuProgram@Ogre@@@Ogre@@QAE@ABV01@@Z" PURGE="4" COMMENT="" />
    <EXPORT ORDINAL="28" NAME="??0?$SharedPtr@VHighLevelGpuProgram@Ogre@@@Ogre@@QAE@PAVHighLevelGpuProgram@1@@Z" PURGE="4" COMMENT="" />
    <EXPORT ORDINAL="29" NAME="??0?$SharedPtr@VHighLevelGpuProgram@Ogre@@@Ogre@@QAE@XZ" PURGE="0" COMMENT="" />
    <EXPORT ORDINAL="30" NAME="??0?$SharedPtr@VMaterial@Ogre@@@Ogre@@QAE@ABV01@@Z" PURGE="4" COMMENT="" />
    <EXPORT ORDINAL="31" NAME="??0?$SharedPtr@VMaterial@Ogre@@@Ogre@@QAE@PAVMaterial@1@@Z" PURGE="4" COMMENT="" />
    <EXPORT ORDINAL="32" NAME="??0?$SharedPtr@VMaterial@Ogre@@@Ogre@@QAE@XZ" PURGE="0" COMMENT="" />
    <EXPORT ORDINAL="33" NAME="??0?$SharedPtr@VMesh@Ogre@@@Ogre@@QAE@ABV01@@Z" PURGE="4" COMMENT="" />
    <EXPORT ORDINAL="34" NAME="??0?$SharedPtr@VMesh@Ogre@@@Ogre@@QAE@PAVMesh@1@@Z" PURGE="4" COMMENT="" />
    <EXPORT ORDINAL="35" NAME="??0?$SharedPtr@VMesh@Ogre@@@Ogre@@QAE@XZ" PURGE="0" COMMENT="" />
    <EXPORT ORDINAL="36" NAME="??0?$SharedPtr@VPatchMesh@Ogre@@@Ogre@@QAE@ABV01@@Z" PURGE="4" COMMENT="" />
    <EXPORT ORDINAL="37" NAME="??0?$SharedPtr@VPatchMesh@Ogre@@@Ogre@@QAE@PAVPatchMesh@1@@Z" PURGE="4" COMMENT="" />
    <EXPORT ORDINAL="38" NAME="??0?$SharedPtr@VPatchMesh@Ogre@@@Ogre@@QAE@XZ" PURGE="0" COMMENT="" />
    <EXPORT ORDINAL="39" NAME="??0?$SharedPtr@VSkeleton@Ogre@@@Ogre@@QAE@ABV01@@Z" PURGE="4" COMMENT="" />
    <EXPORT ORDINAL="40" NAME="??0?$SharedPtr@VSkeleton@Ogre@@@Ogre@@QAE@PAVSkeleton@1@@Z" PURGE="4" COMMENT="" />
    <EXPORT ORDINAL="41" NAME="??0?$SharedPtr@VSkeleton@Ogre@@@Ogre@@QAE@XZ" PURGE="0" COMMENT="" />
    <EXPORT ORDINAL="42" NAME="??0?$SharedPtr@VTexture@Ogre@@@Ogre@@QAE@ABV01@@Z" PURGE="4" COMMENT="" />
    <EXPORT ORDINAL="43" NAME="??0?$SharedPtr@VTexture@Ogre@@@Ogre@@QAE@PAVTexture@1@@Z" PURGE="4" COMMENT="" />
    <EXPORT ORDINAL="44" NAME="??0?$SharedPtr@VTexture@Ogre@@@Ogre@@QAE@XZ" PURGE="0" COMMENT="" />
    <EXPORT ORDINAL="45" NAME="??0?$Singleton@VArchiveManager@Ogre@@@Ogre@@QAE@XZ" PURGE="0" COMMENT="" />
    <EXPORT ORDINAL="46" NAME="??0?$Singleton@VCompositorManager@Ogre@@@Ogre@@QAE@XZ" PURGE="0" COMMENT="" />
    <EXPORT ORDINAL="47" NAME="??0?$Singleton@VControllerManager@Ogre@@@Ogre@@QAE@XZ" PURGE="0" COMMENT="" />
    <EXPORT ORDINAL="48" NAME="??0?$Singleton@VDynLibManager@Ogre@@@Ogre@@QAE@XZ" PURGE="0" COMMENT="" />
    <EXPORT ORDINAL="49" NAME="??0?$Singleton@VEventProcessor@Ogre@@@Ogre@@QAE@XZ" PURGE="0" COMMENT="" />
    <EXPORT ORDINAL="50" NAME="??0?$Singleton@VExternalTextureSourceManager@Ogre@@@Ogre@@QAE@XZ" PURGE="0" COMMENT="" />
    <EXPORT ORDINAL="51" NAME="??0?$Singleton@VFontManager@Ogre@@@Ogre@@QAE@XZ" PURGE="0" COMMENT="" />
    <EXPORT ORDINAL="52" NAME="??0?$Singleton@VGpuProgramManager@Ogre@@@Ogre@@QAE@XZ" PURGE="0" COMMENT="" />
    <EXPORT ORDINAL="53" NAME="??0?$Singleton@VHardwareBufferManager@Ogre@@@Ogre@@QAE@XZ" PURGE="0" COMMENT="" />
    <EXPORT ORDINAL="54" NAME="??0?$Singleton@VHighLevelGpuProgramManager@Ogre@@@Ogre@@QAE@XZ" PURGE="0" COMMENT="" />
    <EXPORT ORDINAL="55" NAME="??0?$Singleton@VLogManager@Ogre@@@Ogre@@QAE@XZ" PURGE="0" COMMENT="" />
    <EXPORT ORDINAL="56" NAME="??0?$Singleton@VMaterialManager@Ogre@@@Ogre@@QAE@XZ" PURGE="0" COMMENT="" />
    <EXPORT ORDINAL="57" NAME="??0?$Singleton@VMeshManager@Ogre@@@Ogre@@QAE@XZ" PURGE="0" COMMENT="" />
    <EXPORT ORDINAL="58" NAME="??0?$Singleton@VOverlayManager@Ogre@@@Ogre@@QAE@XZ" PURGE="0" COMMENT="" />
    <EXPORT ORDINAL="59" NAME="??0?$Singleton@VParticleSystemManager@Ogre@@@Ogre@@QAE@XZ" PURGE="0" COMMENT="" />
    <EXPORT ORDINAL="60" NAME="??0?$Singleton@VPlatformManager@Ogre@@@Ogre@@QAE@XZ" PURGE="0" COMMENT="" />
    <EXPORT ORDINAL="61" NAME="??0?$Singleton@VProfiler@Ogre@@@Ogre@@QAE@XZ" PURGE="0" COMMENT="" />
    <EXPORT ORDINAL="62" NAME="??0?$Singleton@VResourceBackgroundQueue@Ogre@@@Ogre@@QAE@XZ" PURGE="0" COMMENT="" />
    <EXPORT ORDINAL="63" NAME="??0?$Singleton@VResourceGroupManager@Ogre@@@Ogre@@QAE@XZ" PURGE="0" COMMENT="" />
    <EXPORT ORDINAL="64" NAME="??0?$Singleton@VRoot@Ogre@@@Ogre@@QAE@XZ" PURGE="0" COMMENT="" />
    <EXPORT ORDINAL="65" NAME="??0?$Singleton@VSceneManagerEnumerator@Ogre@@@Ogre@@QAE@XZ" PURGE="0" COMMENT="" />
    <EXPORT ORDINAL="66" NAME="??0?$Singleton@VSkeletonManager@Ogre@@@Ogre@@QAE@XZ" PURGE="0" COMMENT="" />
    <EXPORT ORDINAL="67" NAME="??0?$Singleton@VTextureManager@Ogre@@@Ogre@@QAE@XZ" PURGE="0" COMMENT="" />
    <EXPORT ORDINAL="68" NAME="??0AnimableObject@Ogre@@QAE@ABV01@@Z" PURGE="4" COMMENT="" />
    <EXPORT ORDINAL="69" NAME="??0AnimableObject@Ogre@@QAE@XZ" PURGE="0" COMMENT="" />
    <EXPORT ORDINAL="70" NAME="??0AnimableValue@Ogre@@QAE@ABV01@@Z" PURGE="4" COMMENT="" />
    <EXPORT ORDINAL="71" NAME="??0AnimableValue@Ogre@@QAE@W4ValueType@01@@Z" PURGE="4" COMMENT="" />
    <EXPORT ORDINAL="72" NAME="??0Animation@Ogre@@QAE@ABV01@@Z" PURGE="4" COMMENT="" />
    <EXPORT ORDINAL="73" NAME="??0Animation@Ogre@@QAE@ABV?$basic_string@DU?$char_traits@D@std@@V?$allocator@D@2@@std@@M@Z" PURGE="8" COMMENT="" />
    <EXPORT ORDINAL="74" NAME="??0AnimationControllerFunction@Ogre@@QAE@ABV01@@Z" PURGE="4" COMMENT="" />
    <EXPORT ORDINAL="75" NAME="??0AnimationControllerFunction@Ogre@@QAE@MM@Z" PURGE="8" COMMENT="" />
    <EXPORT ORDINAL="76" NAME="??0AnimationState@Ogre@@QAE@ABV01@@Z" PURGE="4" COMMENT="" />
    <EXPORT ORDINAL="77" NAME="??0AnimationState@Ogre@@QAE@ABV?$basic_string@DU?$char_traits@D@std@@V?$allocator@D@2@@std@@PAVAnimationStateSet@1@M@Z" PURGE="12" COMMENT="" />
    <EXPORT ORDINAL="78" NAME="??0AnimationState@Ogre@@QAE@PAVAnimationStateSet@1@ABV01@@Z" PURGE="8" COMMENT="" />
    <EXPORT ORDINAL="79" NAME="??0AnimationStateControllerValue@Ogre@@QAE@ABV01@@Z" PURGE="4" COMMENT="" />
    <EXPORT ORDINAL="80" NAME="??0AnimationStateControllerValue@Ogre@@QAE@PAVAnimationState@1@@Z" PURGE="4" COMMENT="" />
    <EXPORT ORDINAL="81" NAME="??0AnimationStateSet@Ogre@@QAE@ABV01@@Z" PURGE="4" COMMENT="" />
    <EXPORT ORDINAL="82" NAME="??0AnimationStateSet@Ogre@@QAE@XZ" PURGE="0" COMMENT="" />
    <EXPORT ORDINAL="83" NAME="??0AnimationTrack@Ogre@@QAE@ABV01@@Z" PURGE="4" COMMENT="" />
    <EXPORT ORDINAL="84" NAME="??0AnimationTrack@Ogre@@QAE@PAVAnimation@1@G@Z" PURGE="8" COMMENT="" />
    <EXPORT ORDINAL="85" NAME="??0Archive@Ogre@@QAE@ABV01@@Z" PURGE="4" COMMENT="" />
    <EXPORT ORDINAL="86" NAME="??0Archive@Ogre@@QAE@ABV?$basic_string@DU?$char_traits@D@std@@V?$allocator@D@2@@std@@0@Z" PURGE="8" COMMENT="" />
    <EXPORT ORDINAL="87" NAME="??0ArchiveFactory@Ogre@@QAE@ABV01@@Z" PURGE="4" COMMENT="" />
    <EXPORT ORDINAL="88" NAME="??0ArchiveFactory@Ogre@@QAE@XZ" PURGE="0" COMMENT="" />
    <EXPORT ORDINAL="89" NAME="??0ArchiveManager@Ogre@@QAE@ABV01@@Z" PURGE="4" COMMENT="" />
    <EXPORT ORDINAL="90" NAME="??0ArchiveManager@Ogre@@QAE@XZ" PURGE="0" COMMENT="" />
    <EXPORT ORDINAL="91" NAME="??0AutoParamDataSource@Ogre@@QAE@ABV01@@Z" PURGE="4" COMMENT="" />
    <EXPORT ORDINAL="92" NAME="??0AutoParamDataSource@Ogre@@QAE@XZ" PURGE="0" COMMENT="" />
    <EXPORT ORDINAL="93" NAME="??0AutomaticGuardUnguard@Ogre@@QAE@ABV?$basic_string@DU?$char_traits@D@std@@V?$allocator@D@2@@std@@@Z" PURGE="4" COMMENT="" />
    <EXPORT ORDINAL="94" NAME="??0AxisAlignedBox@Ogre@@QAE@ABV01@@Z" PURGE="4" COMMENT="" />
    <EXPORT ORDINAL="95" NAME="??0AxisAlignedBox@Ogre@@QAE@ABVVector3@1@0@Z" PURGE="8" COMMENT="" />
    <EXPORT ORDINAL="96" NAME="??0AxisAlignedBox@Ogre@@QAE@MMMMMM@Z" PURGE="24" COMMENT="" />
    <EXPORT ORDINAL="97" NAME="??0AxisAlignedBox@Ogre@@QAE@XZ" PURGE="0" COMMENT="" />
    <EXPORT ORDINAL="98" NAME="??0AxisAlignedBoxSceneQuery@Ogre@@QAE@ABV01@@Z" PURGE="4" COMMENT="" />
    <EXPORT ORDINAL="99" NAME="??0AxisAlignedBoxSceneQuery@Ogre@@QAE@PAVSceneManager@1@@Z" PURGE="4" COMMENT="" />
    <EXPORT ORDINAL="100" NAME="??0Billboard@Ogre@@QAE@ABV01@@Z" PURGE="4" COMMENT="" />
    <EXPORT ORDINAL="101" NAME="??0Billboard@Ogre@@QAE@ABVVector3@1@PAVBillboardSet@1@ABVColourValue@1@@Z" PURGE="12" COMMENT="" />
    <EXPORT ORDINAL="102" NAME="??0Billboard@Ogre@@QAE@XZ" PURGE="0" COMMENT="" />
    <EXPORT ORDINAL="103" NAME="??0BillboardChain@Ogre@@QAE@ABV01@@Z" PURGE="4" COMMENT="" />
    <EXPORT ORDINAL="104" NAME="??0BillboardChain@Ogre@@QAE@ABV?$basic_string@DU?$char_traits@D@std@@V?$allocator@D@2@@std@@II_N11@Z" PURGE="24" COMMENT="" />
    <EXPORT ORDINAL="105" NAME="??0BillboardChainFactory@Ogre@@QAE@ABV01@@Z" PURGE="4" COMMENT="" />
    <EXPORT ORDINAL="106" NAME="??0BillboardChainFactory@Ogre@@QAE@XZ" PURGE="0" COMMENT="" />
    <EXPORT ORDINAL="107" NAME="??0BillboardParticleRenderer@Ogre@@QAE@ABV01@@Z" PURGE="4" COMMENT="" />
    <EXPORT ORDINAL="108" NAME="??0BillboardParticleRenderer@Ogre@@QAE@XZ" PURGE="0" COMMENT="" />
    <EXPORT ORDINAL="109" NAME="??0BillboardParticleRendererFactory@Ogre@@QAE@ABV01@@Z" PURGE="4" COMMENT="" />
    <EXPORT ORDINAL="110" NAME="??0BillboardParticleRendererFactory@Ogre@@QAE@XZ" PURGE="0" COMMENT="" />
    <EXPORT ORDINAL="111" NAME="??0BillboardSet@Ogre@@IAE@XZ" PURGE="0" COMMENT="" />
    <EXPORT ORDINAL="112" NAME="??0BillboardSet@Ogre@@QAE@ABV01@@Z" PURGE="4" COMMENT="" />
    <EXPORT ORDINAL="113" NAME="??0BillboardSet@Ogre@@QAE@ABV?$basic_string@DU?$char_traits@D@std@@V?$allocator@D@2@@std@@I_N@Z" PURGE="12" COMMENT="" />
    <EXPORT ORDINAL="114" NAME="??0BillboardSetFactory@Ogre@@QAE@ABV01@@Z" PURGE="4" COMMENT="" />
    <EXPORT ORDINAL="115" NAME="??0BillboardSetFactory@Ogre@@QAE@XZ" PURGE="0" COMMENT="" />
    <EXPORT ORDINAL="116" NAME="??0Bone@Ogre@@QAE@ABV01@@Z" PURGE="4" COMMENT="" />
    <EXPORT ORDINAL="117" NAME="??0Bone@Ogre@@QAE@ABV?$basic_string@DU?$char_traits@D@std@@V?$allocator@D@2@@std@@GPAVSkeleton@1@@Z" PURGE="12" COMMENT="" />
    <EXPORT ORDINAL="118" NAME="??0Bone@Ogre@@QAE@GPAVSkeleton@1@@Z" PURGE="8" COMMENT="" />
    <EXPORT ORDINAL="119" NAME="??0BorderPanelOverlayElement@Ogre@@QAE@ABV01@@Z" PURGE="4" COMMENT="" />
    <EXPORT ORDINAL="120" NAME="??0BorderPanelOverlayElement@Ogre@@QAE@ABV?$basic_string@DU?$char_traits@D@std@@V?$allocator@D@2@@std@@@Z" PURGE="4" COMMENT="" />
    <EXPORT ORDINAL="121" NAME="??0BorderPanelOverlayElementFactory@Ogre@@QAE@ABV01@@Z" PURGE="4" COMMENT="" />
    <EXPORT ORDINAL="122" NAME="??0BorderPanelOverlayElementFactory@Ogre@@QAE@XZ" PURGE="0" COMMENT="" />
    <EXPORT ORDINAL="123" NAME="??0BorderRenderable@Ogre@@QAE@ABV01@@Z" PURGE="4" COMMENT="" />
    <EXPORT ORDINAL="124" NAME="??0BorderRenderable@Ogre@@QAE@PAVBorderPanelOverlayElement@1@@Z" PURGE="4" COMMENT="" />
    <EXPORT ORDINAL="125" NAME="??0Camera@Ogre@@QAE@ABV?$basic_string@DU?$char_traits@D@std@@V?$allocator@D@2@@std@@PAVSceneManager@1@@Z" PURGE="8" COMMENT="" />
    <EXPORT ORDINAL="126" NAME="??0CmdAngle@EmitterCommands@Ogre@@QAE@ABV012@@Z" PURGE="4" COMMENT="" />
    <EXPORT ORDINAL="127" NAME="??0CmdAngle@EmitterCommands@Ogre@@QAE@XZ" PURGE="0" COMMENT="" />
    <EXPORT ORDINAL="128" NAME="??0CmdCaption@OverlayElementCommands@Ogre@@QAE@ABV012@@Z" PURGE="4" COMMENT="" />
    <EXPORT ORDINAL="129" NAME="??0CmdCaption@OverlayElementCommands@Ogre@@QAE@XZ" PURGE="0" COMMENT="" />
    <EXPORT ORDINAL="130" NAME="??0CmdColour@EmitterCommands@Ogre@@QAE@ABV012@@Z" PURGE="4" COMMENT="" />
    <EXPORT ORDINAL="131" NAME="??0CmdColour@EmitterCommands@Ogre@@QAE@XZ" PURGE="0" COMMENT="" />
    <EXPORT ORDINAL="132" NAME="??0CmdColourRangeEnd@EmitterCommands@Ogre@@QAE@ABV012@@Z" PURGE="4" COMMENT="" />
    <EXPORT ORDINAL="133" NAME="??0CmdColourRangeEnd@EmitterCommands@Ogre@@QAE@XZ" PURGE="0" COMMENT="" />
    <EXPORT ORDINAL="134" NAME="??0CmdColourRangeStart@EmitterCommands@Ogre@@QAE@ABV012@@Z" PURGE="4" COMMENT="" />
    <EXPORT ORDINAL="135" NAME="??0CmdColourRangeStart@EmitterCommands@Ogre@@QAE@XZ" PURGE="0" COMMENT="" />
    <EXPORT ORDINAL="136" NAME="??0CmdDirection@EmitterCommands@Ogre@@QAE@ABV012@@Z" PURGE="4" COMMENT="" />
    <EXPORT ORDINAL="137" NAME="??0CmdDirection@EmitterCommands@Ogre@@QAE@XZ" PURGE="0" COMMENT="" />
    <EXPORT ORDINAL="138" NAME="??0CmdDuration@EmitterCommands@Ogre@@QAE@ABV012@@Z" PURGE="4" COMMENT="" />
    <EXPORT ORDINAL="139" NAME="??0CmdDuration@EmitterCommands@Ogre@@QAE@XZ" PURGE="0" COMMENT="" />
    <EXPORT ORDINAL="140" NAME="??0CmdEmissionRate@EmitterCommands@Ogre@@QAE@ABV012@@Z" PURGE="4" COMMENT="" />
    <EXPORT ORDINAL="141" NAME="??0CmdEmissionRate@EmitterCommands@Ogre@@QAE@XZ" PURGE="0" COMMENT="" />
    <EXPORT ORDINAL="142" NAME="??0CmdHeight@OverlayElementCommands@Ogre@@QAE@ABV012@@Z" PURGE="4" COMMENT="" />
    <EXPORT ORDINAL="143" NAME="??0CmdHeight@OverlayElementCommands@Ogre@@QAE@XZ" PURGE="0" COMMENT="" />
    <EXPORT ORDINAL="144" NAME="??0CmdHorizontalAlign@OverlayElementCommands@Ogre@@QAE@ABV012@@Z" PURGE="4" COMMENT="" />
    <EXPORT ORDINAL="145" NAME="??0CmdHorizontalAlign@OverlayElementCommands@Ogre@@QAE@XZ" PURGE="0" COMMENT="" />
    <EXPORT ORDINAL="146" NAME="??0CmdLeft@OverlayElementCommands@Ogre@@QAE@ABV012@@Z" PURGE="4" COMMENT="" />
    <EXPORT ORDINAL="147" NAME="??0CmdLeft@OverlayElementCommands@Ogre@@QAE@XZ" PURGE="0" COMMENT="" />
    <EXPORT ORDINAL="148" NAME="??0CmdMaterial@OverlayElementCommands@Ogre@@QAE@ABV012@@Z" PURGE="4" COMMENT="" />
    <EXPORT ORDINAL="149" NAME="??0CmdMaterial@OverlayElementCommands@Ogre@@QAE@XZ" PURGE="0" COMMENT="" />
    <EXPORT ORDINAL="150" NAME="??0CmdMaxDuration@EmitterCommands@Ogre@@QAE@ABV012@@Z" PURGE="4" COMMENT="" />
    <EXPORT ORDINAL="151" NAME="??0CmdMaxDuration@EmitterCommands@Ogre@@QAE@XZ" PURGE="0" COMMENT="" />
    <EXPORT ORDINAL="152" NAME="??0CmdMaxRepeatDelay@EmitterCommands@Ogre@@QAE@ABV012@@Z" PURGE="4" COMMENT="" />
    <EXPORT ORDINAL="153" NAME="??0CmdMaxRepeatDelay@EmitterCommands@Ogre@@QAE@XZ" PURGE="0" COMMENT="" />
    <EXPORT ORDINAL="154" NAME="??0CmdMaxTTL@EmitterCommands@Ogre@@QAE@ABV012@@Z" PURGE="4" COMMENT="" />
    <EXPORT ORDINAL="155" NAME="??0CmdMaxTTL@EmitterCommands@Ogre@@QAE@XZ" PURGE="0" COMMENT="" />
    <EXPORT ORDINAL="156" NAME="??0CmdMaxVelocity@EmitterCommands@Ogre@@QAE@ABV012@@Z" PURGE="4" COMMENT="" />
    <EXPORT ORDINAL="157" NAME="??0CmdMaxVelocity@EmitterCommands@Ogre@@QAE@XZ" PURGE="0" COMMENT="" />
    <EXPORT ORDINAL="158" NAME="??0CmdMetricsMode@OverlayElementCommands@Ogre@@QAE@ABV012@@Z" PURGE="4" COMMENT="" />
    <EXPORT ORDINAL="159" NAME="??0CmdMetricsMode@OverlayElementCommands@Ogre@@QAE@XZ" PURGE="0" COMMENT="" />
    <EXPORT ORDINAL="160" NAME="??0CmdMinDuration@EmitterCommands@Ogre@@QAE@ABV012@@Z" PURGE="4" COMMENT="" />
    <EXPORT ORDINAL="161" NAME="??0CmdMinDuration@EmitterCommands@Ogre@@QAE@XZ" PURGE="0" COMMENT="" />
    <EXPORT ORDINAL="162" NAME="??0CmdMinRepeatDelay@EmitterCommands@Ogre@@QAE@ABV012@@Z" PURGE="4" COMMENT="" />
    <EXPORT ORDINAL="163" NAME="??0CmdMinRepeatDelay@EmitterCommands@Ogre@@QAE@XZ" PURGE="0" COMMENT="" />
    <EXPORT ORDINAL="164" NAME="??0CmdMinTTL@EmitterCommands@Ogre@@QAE@ABV012@@Z" PURGE="4" COMMENT="" />
    <EXPORT ORDINAL="165" NAME="??0CmdMinTTL@EmitterCommands@Ogre@@QAE@XZ" PURGE="0" COMMENT="" />
    <EXPORT ORDINAL="166" NAME="??0CmdMinVelocity@EmitterCommands@Ogre@@QAE@ABV012@@Z" PURGE="4" COMMENT="" />
    <EXPORT ORDINAL="167" NAME="??0CmdMinVelocity@EmitterCommands@Ogre@@QAE@XZ" PURGE="0" COMMENT="" />
    <EXPORT ORDINAL="168" NAME="??0CmdPosition@EmitterCommands@Ogre@@QAE@ABV012@@Z" PURGE="4" COMMENT="" />
    <EXPORT ORDINAL="169" NAME="??0CmdPosition@EmitterCommands@Ogre@@QAE@XZ" PURGE="0" COMMENT="" />
    <EXPORT ORDINAL="170" NAME="??0CmdRepeatDelay@EmitterCommands@Ogre@@QAE@ABV012@@Z" PURGE="4" COMMENT="" />
    <EXPORT ORDINAL="171" NAME="??0CmdRepeatDelay@EmitterCommands@Ogre@@QAE@XZ" PURGE="0" COMMENT="" />
    <EXPORT ORDINAL="172" NAME="??0CmdResolution@Font@Ogre@@QAE@ABV012@@Z" PURGE="4" COMMENT="" />
    <EXPORT ORDINAL="173" NAME="??0CmdResolution@Font@Ogre@@QAE@XZ" PURGE="0" COMMENT="" />
    <EXPORT ORDINAL="174" NAME="??0CmdSize@Font@Ogre@@QAE@ABV012@@Z" PURGE="4" COMMENT="" />
    <EXPORT ORDINAL="175" NAME="??0CmdSize@Font@Ogre@@QAE@XZ" PURGE="0" COMMENT="" />
    <EXPORT ORDINAL="176" NAME="??0CmdSkeletal@GpuProgram@Ogre@@QAE@ABV012@@Z" PURGE="4" COMMENT="" />
    <EXPORT ORDINAL="177" NAME="??0CmdSkeletal@GpuProgram@Ogre@@QAE@XZ" PURGE="0" COMMENT="" />
    <EXPORT ORDINAL="178" NAME="??0CmdSource@Font@Ogre@@QAE@ABV012@@Z" PURGE="4" COMMENT="" />
    <EXPORT ORDINAL="179" NAME="??0CmdSource@Font@Ogre@@QAE@XZ" PURGE="0" COMMENT="" />
    <EXPORT ORDINAL="180" NAME="??0CmdSyntax@GpuProgram@Ogre@@QAE@ABV012@@Z" PURGE="4" COMMENT="" />
    <EXPORT ORDINAL="181" NAME="??0CmdSyntax@GpuProgram@Ogre@@QAE@XZ" PURGE="0" COMMENT="" />
    <EXPORT ORDINAL="182" NAME="??0CmdTTL@EmitterCommands@Ogre@@QAE@ABV012@@Z" PURGE="4" COMMENT="" />
    <EXPORT ORDINAL="183" NAME="??0CmdTTL@EmitterCommands@Ogre@@QAE@XZ" PURGE="0" COMMENT="" />
    <EXPORT ORDINAL="184" NAME="??0CmdTop@OverlayElementCommands@Ogre@@QAE@ABV012@@Z" PURGE="4" COMMENT="" />
    <EXPORT ORDINAL="185" NAME="??0CmdTop@OverlayElementCommands@Ogre@@QAE@XZ" PURGE="0" COMMENT="" />
    <EXPORT ORDINAL="186" NAME="??0CmdType@Font@Ogre@@QAE@ABV012@@Z" PURGE="4" COMMENT="" />
    <EXPORT ORDINAL="187" NAME="??0CmdType@Font@Ogre@@QAE@XZ" PURGE="0" COMMENT="" />
    <EXPORT ORDINAL="188" NAME="??0CmdType@GpuProgram@Ogre@@QAE@ABV012@@Z" PURGE="4" COMMENT="" />
    <EXPORT ORDINAL="189" NAME="??0CmdType@GpuProgram@Ogre@@QAE@XZ" PURGE="0" COMMENT="" />
    <EXPORT ORDINAL="190" NAME="??0CmdVelocity@EmitterCommands@Ogre@@QAE@ABV012@@Z" PURGE="4" COMMENT="" />
    <EXPORT ORDINAL="191" NAME="??0CmdVelocity@EmitterCommands@Ogre@@QAE@XZ" PURGE="0" COMMENT="" />
    <EXPORT ORDINAL="192" NAME="??0CmdVerticalAlign@OverlayElementCommands@Ogre@@QAE@ABV012@@Z" PURGE="4" COMMENT="" />
    <EXPORT ORDINAL="193" NAME="??0CmdVerticalAlign@OverlayElementCommands@Ogre@@QAE@XZ" PURGE="0" COMMENT="" />
    <EXPORT ORDINAL="194" NAME="??0CmdVisible@OverlayElementCommands@Ogre@@QAE@ABV012@@Z" PURGE="4" COMMENT="" />
    <EXPORT ORDINAL="195" NAME="??0CmdVisible@OverlayElementCommands@Ogre@@QAE@XZ" PURGE="0" COMMENT="" />
    <EXPORT ORDINAL="196" NAME="??0CmdWidth@OverlayElementCommands@Ogre@@QAE@ABV012@@Z" PURGE="4" COMMENT="" />
    <EXPORT ORDINAL="197" NAME="??0CmdWidth@OverlayElementCommands@Ogre@@QAE@XZ" PURGE="0" COMMENT="" />
    <EXPORT ORDINAL="198" NAME="??0Codec@Ogre@@QAE@ABV01@@Z" PURGE="4" COMMENT="" />
    <EXPORT ORDINAL="199" NAME="??0Codec@Ogre@@QAE@XZ" PURGE="0" COMMENT="" />
    <EXPORT ORDINAL="200" NAME="??0ColourValue@Ogre@@QAE@MMMM@Z" PURGE="16" COMMENT="" />
    <EXPORT ORDINAL="201" NAME="??0Compiler2Pass@Ogre@@QAE@ABV01@@Z" PURGE="4" COMMENT="" />
    <EXPORT ORDINAL="202" NAME="??0Compiler2Pass@Ogre@@QAE@XZ" PURGE="0" COMMENT="" />
    <EXPORT ORDINAL="203" NAME="??0CompositionPass@Ogre@@QAE@ABV01@@Z" PURGE="4" COMMENT="" />
    <EXPORT ORDINAL="204" NAME="??0CompositionPass@Ogre@@QAE@PAVCompositionTargetPass@1@@Z" PURGE="4" COMMENT="" />
    <EXPORT ORDINAL="205" NAME="??0CompositionTargetPass@Ogre@@QAE@ABV01@@Z" PURGE="4" COMMENT="" />
    <EXPORT ORDINAL="206" NAME="??0CompositionTargetPass@Ogre@@QAE@PAVCompositionTechnique@1@@Z" PURGE="4" COMMENT="" />
    <EXPORT ORDINAL="207" NAME="??0CompositionTechnique@Ogre@@QAE@ABV01@@Z" PURGE="4" COMMENT="" />
    <EXPORT ORDINAL="208" NAME="??0CompositionTechnique@Ogre@@QAE@PAVCompositor@1@@Z" PURGE="4" COMMENT="" />
    <EXPORT ORDINAL="209" NAME="??0Compositor@Ogre@@QAE@ABV01@@Z" PURGE="4" COMMENT="" />
    <EXPORT ORDINAL="210" NAME="??0Compositor@Ogre@@QAE@PAVResourceManager@1@ABV?$basic_string@DU?$char_traits@D@std@@V?$allocator@D@2@@std@@K1_NPAVManualResourceLoader@1@@Z" PURGE="24" COMMENT="" />
    <EXPORT ORDINAL="211" NAME="??0CompositorChain@Ogre@@QAE@ABV01@@Z" PURGE="4" COMMENT="" />
    <EXPORT ORDINAL="212" NAME="??0CompositorChain@Ogre@@QAE@PAVViewport@1@@Z" PURGE="4" COMMENT="" />
    <EXPORT ORDINAL="213" NAME="??0CompositorInstance@Ogre@@QAE@ABV01@@Z" PURGE="4" COMMENT="" />
    <EXPORT ORDINAL="214" NAME="??0CompositorInstance@Ogre@@QAE@PAVCompositor@1@PAVCompositionTechnique@1@PAVCompositorChain@1@@Z" PURGE="12" COMMENT="" />
    <EXPORT ORDINAL="215" NAME="??0CompositorManager@Ogre@@QAE@ABV01@@Z" PURGE="4" COMMENT="" />
    <EXPORT ORDINAL="216" NAME="??0CompositorManager@Ogre@@QAE@XZ" PURGE="0" COMMENT="" />
    <EXPORT ORDINAL="217" NAME="??0CompositorPtr@Ogre@@QAE@ABV01@@Z" PURGE="4" COMMENT="" />
    <EXPORT ORDINAL="218" NAME="??0CompositorPtr@Ogre@@QAE@ABV?$SharedPtr@VResource@Ogre@@@1@@Z" PURGE="4" COMMENT="" />
    <EXPORT ORDINAL="219" NAME="??0CompositorPtr@Ogre@@QAE@PAVCompositor@1@@Z" PURGE="4" COMMENT="" />
    <EXPORT ORDINAL="220" NAME="??0CompositorPtr@Ogre@@QAE@XZ" PURGE="0" COMMENT="" />
    <EXPORT ORDINAL="221" NAME="??0CompositorScriptCompiler@Ogre@@QAE@ABV01@@Z" PURGE="4" COMMENT="" />
    <EXPORT ORDINAL="222" NAME="??0CompositorScriptCompiler@Ogre@@QAE@XZ" PURGE="0" COMMENT="" />
    <EXPORT ORDINAL="223" NAME="??0CompositorSerializer@Ogre@@QAE@ABV01@@Z" PURGE="4" COMMENT="" />
    <EXPORT ORDINAL="224" NAME="??0CompositorSerializer@Ogre@@QAE@XZ" PURGE="0" COMMENT="" />
    <EXPORT ORDINAL="225" NAME="??0ConfigDialog@Ogre@@QAE@ABV01@@Z" PURGE="4" COMMENT="" />
    <EXPORT ORDINAL="226" NAME="??0ConfigDialog@Ogre@@QAE@XZ" PURGE="0" COMMENT="" />
    <EXPORT ORDINAL="227" NAME="??0ConfigFile@Ogre@@QAE@ABV01@@Z" PURGE="4" COMMENT="" />
    <EXPORT ORDINAL="228" NAME="??0ConfigFile@Ogre@@QAE@XZ" PURGE="0" COMMENT="" />
    <EXPORT ORDINAL="229" NAME="??0ControllerManager@Ogre@@QAE@ABV01@@Z" PURGE="4" COMMENT="" />
    <EXPORT ORDINAL="230" NAME="??0ControllerManager@Ogre@@QAE@XZ" PURGE="0" COMMENT="" />
    <EXPORT ORDINAL="231" NAME="??0ConvexBody@Ogre@@QAE@ABV01@@Z" PURGE="4" COMMENT="" />
    <EXPORT ORDINAL="232" NAME="??0ConvexBody@Ogre@@QAE@XZ" PURGE="0" COMMENT="" />
    <EXPORT ORDINAL="233" NAME="??0Cursor@Ogre@@QAE@ABV01@@Z" PURGE="4" COMMENT="" />
    <EXPORT ORDINAL="234" NAME="??0Cursor@Ogre@@QAE@XZ" PURGE="0" COMMENT="" />
    <EXPORT ORDINAL="235" NAME="??0DataStream@Ogre@@QAE@ABV01@@Z" PURGE="4" COMMENT="" />
    <EXPORT ORDINAL="236" NAME="??0DataStream@Ogre@@QAE@ABV?$basic_string@DU?$char_traits@D@std@@V?$allocator@D@2@@std@@@Z" PURGE="4" COMMENT="" />
    <EXPORT ORDINAL="237" NAME="??0DataStream@Ogre@@QAE@XZ" PURGE="0" COMMENT="" />
    <EXPORT ORDINAL="238" NAME="??0DefaultAxisAlignedBoxSceneQuery@Ogre@@QAE@ABV01@@Z" PURGE="4" COMMENT="" />
    <EXPORT ORDINAL="239" NAME="??0DefaultAxisAlignedBoxSceneQuery@Ogre@@QAE@PAVSceneManager@1@@Z" PURGE="4" COMMENT="" />
    <EXPORT ORDINAL="240" NAME="??0DefaultHardwareBufferManager@Ogre@@QAE@ABV01@@Z" PURGE="4" COMMENT="" />
    <EXPORT ORDINAL="241" NAME="??0DefaultHardwareBufferManager@Ogre@@QAE@XZ" PURGE="0" COMMENT="" />
    <EXPORT ORDINAL="242" NAME="??0DefaultHardwareIndexBuffer@Ogre@@QAE@ABV01@@Z" PURGE="4" COMMENT="" />
    <EXPORT ORDINAL="243" NAME="??0DefaultHardwareIndexBuffer@Ogre@@QAE@W4IndexType@HardwareIndexBuffer@1@IW4Usage@HardwareBuffer@1@@Z" PURGE="12" COMMENT="" />
    <EXPORT ORDINAL="244" NAME="??0DefaultHardwareVertexBuffer@Ogre@@QAE@ABV01@@Z" PURGE="4" COMMENT="" />
    <EXPORT ORDINAL="245" NAME="??0DefaultHardwareVertexBuffer@Ogre@@QAE@IIW4Usage@HardwareBuffer@1@@Z" PURGE="12" COMMENT="" />
    <EXPORT ORDINAL="246" NAME="??0DefaultIntersectionSceneQuery@Ogre@@QAE@ABV01@@Z" PURGE="4" COMMENT="" />
    <EXPORT ORDINAL="247" NAME="??0DefaultIntersectionSceneQuery@Ogre@@QAE@PAVSceneManager@1@@Z" PURGE="4" COMMENT="" />
    <EXPORT ORDINAL="248" NAME="??0DefaultPlaneBoundedVolumeListSceneQuery@Ogre@@QAE@ABV01@@Z" PURGE="4" COMMENT="" />
    <EXPORT ORDINAL="249" NAME="??0DefaultPlaneBoundedVolumeListSceneQuery@Ogre@@QAE@PAVSceneManager@1@@Z" PURGE="4" COMMENT="" />
    <EXPORT ORDINAL="250" NAME="??0DefaultRaySceneQuery@Ogre@@QAE@ABV01@@Z" PURGE="4" COMMENT="" />
    <EXPORT ORDINAL="251" NAME="??0DefaultRaySceneQuery@Ogre@@QAE@PAVSceneManager@1@@Z" PURGE="4" COMMENT="" />
    <EXPORT ORDINAL="252" NAME="??0DefaultSceneManager@Ogre@@QAE@ABV01@@Z" PURGE="4" COMMENT="" />
    <EXPORT ORDINAL="253" NAME="??0DefaultSceneManager@Ogre@@QAE@ABV?$basic_string@DU?$char_traits@D@std@@V?$allocator@D@2@@std@@@Z" PURGE="4" COMMENT="" />
    <EXPORT ORDINAL="254" NAME="??0DefaultSceneManagerFactory@Ogre@@QAE@ABV01@@Z" PURGE="4" COMMENT="" />
    <EXPORT ORDINAL="255" NAME="??0DefaultSceneManagerFactory@Ogre@@QAE@XZ" PURGE="0" COMMENT="" />
    <EXPORT ORDINAL="256" NAME="??0DefaultShadowCameraSetup@Ogre@@QAE@ABV01@@Z" PURGE="4" COMMENT="" />
    <EXPORT ORDINAL="257" NAME="??0DefaultShadowCameraSetup@Ogre@@QAE@XZ" PURGE="0" COMMENT="" />
    <EXPORT ORDINAL="258" NAME="??0DefaultSphereSceneQuery@Ogre@@QAE@ABV01@@Z" PURGE="4" COMMENT="" />
    <EXPORT ORDINAL="259" NAME="??0DefaultSphereSceneQuery@Ogre@@QAE@PAVSceneManager@1@@Z" PURGE="4" COMMENT="" />
    <EXPORT ORDINAL="260" NAME="??0DynLib@Ogre@@QAE@ABV01@@Z" PURGE="4" COMMENT="" />
    <EXPORT ORDINAL="261" NAME="??0DynLib@Ogre@@QAE@ABV?$basic_string@DU?$char_traits@D@std@@V?$allocator@D@2@@std@@@Z" PURGE="4" COMMENT="" />
    <EXPORT ORDINAL="262" NAME="??0DynLibManager@Ogre@@QAE@ABV01@@Z" PURGE="4" COMMENT="" />
    <EXPORT ORDINAL="263" NAME="??0DynLibManager@Ogre@@QAE@XZ" PURGE="0" COMMENT="" />
    <EXPORT ORDINAL="264" NAME="??0EdgeData@Ogre@@QAE@ABV01@@Z" PURGE="4" COMMENT="" />
    <EXPORT ORDINAL="265" NAME="??0EdgeData@Ogre@@QAE@XZ" PURGE="0" COMMENT="" />
    <EXPORT ORDINAL="266" NAME="??0EdgeListBuilder@Ogre@@QAE@ABV01@@Z" PURGE="4" COMMENT="" />
    <EXPORT ORDINAL="267" NAME="??0EdgeListBuilder@Ogre@@QAE@XZ" PURGE="0" COMMENT="" />
    <EXPORT ORDINAL="268" NAME="??0Element@BillboardChain@Ogre@@QAE@ABV012@@Z" PURGE="4" COMMENT="" />
    <EXPORT ORDINAL="269" NAME="??0Element@BillboardChain@Ogre@@QAE@VVector3@2@MMVColourValue@2@@Z" PURGE="36" COMMENT="" />
    <EXPORT ORDINAL="270" NAME="??0Element@BillboardChain@Ogre@@QAE@XZ" PURGE="0" COMMENT="" />
    <EXPORT ORDINAL="271" NAME="??0Entity@Ogre@@IAE@ABV?$basic_string@DU?$char_traits@D@std@@V?$allocator@D@2@@std@@ABVMeshPtr@1@_N@Z" PURGE="12" COMMENT="" />
    <EXPORT ORDINAL="272" NAME="??0Entity@Ogre@@IAE@XZ" PURGE="0" COMMENT="" />
    <EXPORT ORDINAL="273" NAME="??0Entity@Ogre@@QAE@ABV01@@Z" PURGE="4" COMMENT="" />
    <EXPORT ORDINAL="274" NAME="??0EntityFactory@Ogre@@QAE@ABV01@@Z" PURGE="4" COMMENT="" />
    <EXPORT ORDINAL="275" NAME="??0EntityFactory@Ogre@@QAE@XZ" PURGE="0" COMMENT="" />
    <EXPORT ORDINAL="276" NAME="??0EntityShadowRenderable@Entity@Ogre@@QAE@ABV012@@Z" PURGE="4" COMMENT="" />
    <EXPORT ORDINAL="277" NAME="??0EntityShadowRenderable@Entity@Ogre@@QAE@PAV12@PAVHardwareIndexBufferSharedPtr@2@PBVVertexData@2@_NPAVSubEntity@2@3@Z" PURGE="24" COMMENT="" />
    <EXPORT ORDINAL="278" NAME="??0ErrorDialog@Ogre@@QAE@ABV01@@Z" PURGE="4" COMMENT="" />
    <EXPORT ORDINAL="279" NAME="??0ErrorDialog@Ogre@@QAE@XZ" PURGE="0" COMMENT="" />
    <EXPORT ORDINAL="280" NAME="??0EventDispatcher@Ogre@@QAE@ABV01@@Z" PURGE="4" COMMENT="" />
    <EXPORT ORDINAL="281" NAME="??0EventDispatcher@Ogre@@QAE@PAVTargetManager@1@@Z" PURGE="4" COMMENT="" />
    <EXPORT ORDINAL="282" NAME="??0EventListener@Ogre@@QAE@ABV01@@Z" PURGE="4" COMMENT="" />
    <EXPORT ORDINAL="283" NAME="??0EventListener@Ogre@@QAE@XZ" PURGE="0" COMMENT="" />
    <EXPORT ORDINAL="284" NAME="??0EventProcessor@Ogre@@QAE@ABV01@@Z" PURGE="4" COMMENT="" />
    <EXPORT ORDINAL="285" NAME="??0EventProcessor@Ogre@@QAE@XZ" PURGE="0" COMMENT="" />
    <EXPORT ORDINAL="286" NAME="??0EventQueue@Ogre@@QAE@ABV01@@Z" PURGE="4" COMMENT="" />
    <EXPORT ORDINAL="287" NAME="??0EventQueue@Ogre@@QAE@XZ" PURGE="0" COMMENT="" />
    <EXPORT ORDINAL="288" NAME="??0EventTarget@Ogre@@QAE@ABV01@@Z" PURGE="4" COMMENT="" />
    <EXPORT ORDINAL="289" NAME="??0EventTarget@Ogre@@QAE@XZ" PURGE="0" COMMENT="" />
    <EXPORT ORDINAL="290" NAME="??0Exception@Ogre@@QAE@ABV01@@Z" PURGE="4" COMMENT="" />
    <EXPORT ORDINAL="291" NAME="??0Exception@Ogre@@QAE@HABV?$basic_string@DU?$char_traits@D@std@@V?$allocator@D@2@@std@@0@Z" PURGE="12" COMMENT="" />
    <EXPORT ORDINAL="292" NAME="??0Exception@Ogre@@QAE@HABV?$basic_string@DU?$char_traits@D@std@@V?$allocator@D@2@@std@@0PBDJ@Z" PURGE="20" COMMENT="" />
    <EXPORT ORDINAL="293" NAME="??0ExternalTextureSource@Ogre@@QAE@ABV01@@Z" PURGE="4" COMMENT="" />
    <EXPORT ORDINAL="294" NAME="??0ExternalTextureSource@Ogre@@QAE@XZ" PURGE="0" COMMENT="" />
    <EXPORT ORDINAL="295" NAME="??0ExternalTextureSourceManager@Ogre@@QAE@ABV01@@Z" PURGE="4" COMMENT="" />
    <EXPORT ORDINAL="296" NAME="??0ExternalTextureSourceManager@Ogre@@QAE@XZ" PURGE="0" COMMENT="" />
    <EXPORT ORDINAL="297" NAME="??0FileHandleDataStream@Ogre@@QAE@ABV01@@Z" PURGE="4" COMMENT="" />
    <EXPORT ORDINAL="298" NAME="??0FileHandleDataStream@Ogre@@QAE@ABV?$basic_string@DU?$char_traits@D@std@@V?$allocator@D@2@@std@@PAU_iobuf@@@Z" PURGE="8" COMMENT="" />
    <EXPORT ORDINAL="299" NAME="??0FileHandleDataStream@Ogre@@QAE@PAU_iobuf@@@Z" PURGE="4" COMMENT="" />
    <EXPORT ORDINAL="300" NAME="??0FileStreamDataStream@Ogre@@QAE@ABV01@@Z" PURGE="4" COMMENT="" />
    <EXPORT ORDINAL="301" NAME="??0FileStreamDataStream@Ogre@@QAE@ABV?$basic_string@DU?$char_traits@D@std@@V?$allocator@D@2@@std@@PAV?$basic_ifstream@DU?$char_traits@D@std@@@3@I_N@Z" PURGE="16" COMMENT="" />
    <EXPORT ORDINAL="302" NAME="??0FileStreamDataStream@Ogre@@QAE@ABV?$basic_string@DU?$char_traits@D@std@@V?$allocator@D@2@@std@@PAV?$basic_ifstream@DU?$char_traits@D@std@@@3@_N@Z" PURGE="12" COMMENT="" />
    <EXPORT ORDINAL="303" NAME="??0FileStreamDataStream@Ogre@@QAE@PAV?$basic_ifstream@DU?$char_traits@D@std@@@std@@_N@Z" PURGE="8" COMMENT="" />
    <EXPORT ORDINAL="304" NAME="??0FileSystemArchive@Ogre@@QAE@ABV01@@Z" PURGE="4" COMMENT="" />
    <EXPORT ORDINAL="305" NAME="??0FileSystemArchive@Ogre@@QAE@ABV?$basic_string@DU?$char_traits@D@std@@V?$allocator@D@2@@std@@0@Z" PURGE="8" COMMENT="" />
    <EXPORT ORDINAL="306" NAME="??0FloatGpuParameterControllerValue@Ogre@@QAE@ABV01@@Z" PURGE="4" COMMENT="" />
    <EXPORT ORDINAL="307" NAME="??0FloatGpuParameterControllerValue@Ogre@@QAE@PAVGpuProgramParameters@1@I@Z" PURGE="8" COMMENT="" />
    <EXPORT ORDINAL="308" NAME="??0Font@Ogre@@QAE@ABV01@@Z" PURGE="4" COMMENT="" />
    <EXPORT ORDINAL="309" NAME="??0Font@Ogre@@QAE@PAVResourceManager@1@ABV?$basic_string@DU?$char_traits@D@std@@V?$allocator@D@2@@std@@K1_NPAVManualResourceLoader@1@@Z" PURGE="24" COMMENT="" />
    <EXPORT ORDINAL="310" NAME="??0FontManager@Ogre@@QAE@ABV01@@Z" PURGE="4" COMMENT="" />
    <EXPORT ORDINAL="311" NAME="??0FontManager@Ogre@@QAE@XZ" PURGE="0" COMMENT="" />
    <EXPORT ORDINAL="312" NAME="??0FontPtr@Ogre@@QAE@ABV01@@Z" PURGE="4" COMMENT="" />
    <EXPORT ORDINAL="313" NAME="??0FontPtr@Ogre@@QAE@ABV?$SharedPtr@VResource@Ogre@@@1@@Z" PURGE="4" COMMENT="" />
    <EXPORT ORDINAL="314" NAME="??0FontPtr@Ogre@@QAE@PAVFont@1@@Z" PURGE="4" COMMENT="" />
    <EXPORT ORDINAL="315" NAME="??0FontPtr@Ogre@@QAE@XZ" PURGE="0" COMMENT="" />
    <EXPORT ORDINAL="316" NAME="??0FrameListener@Ogre@@QAE@ABV01@@Z" PURGE="4" COMMENT="" />
    <EXPORT ORDINAL="317" NAME="??0FrameListener@Ogre@@QAE@XZ" PURGE="0" COMMENT="" />
    <EXPORT ORDINAL="318" NAME="??0FrameTimeControllerValue@Ogre@@QAE@ABV01@@Z" PURGE="4" COMMENT="" />
    <EXPORT ORDINAL="319" NAME="??0FrameTimeControllerValue@Ogre@@QAE@XZ" PURGE="0" COMMENT="" />
    <EXPORT ORDINAL="320" NAME="??0Frustum@Ogre@@QAE@XZ" PURGE="0" COMMENT="" />
    <EXPORT ORDINAL="321" NAME="??0GeometryBucket@StaticGeometry@Ogre@@QAE@ABV012@@Z" PURGE="4" COMMENT="" />
    <EXPORT ORDINAL="322" NAME="??0GeometryBucket@StaticGeometry@Ogre@@QAE@PAVMaterialBucket@12@ABV?$basic_string@DU?$char_traits@D@std@@V?$allocator@D@2@@std@@PBVVertexData@2@PBVIndexData@2@@Z" PURGE="16" COMMENT="" />
    <EXPORT ORDINAL="323" NAME="??0GpuProgram@Ogre@@QAE@ABV01@@Z" PURGE="4" COMMENT="" />
    <EXPORT ORDINAL="324" NAME="??0GpuProgram@Ogre@@QAE@PAVResourceManager@1@ABV?$basic_string@DU?$char_traits@D@std@@V?$allocator@D@2@@std@@K1_NPAVManualResourceLoader@1@@Z" PURGE="24" COMMENT="" />
    <EXPORT ORDINAL="325" NAME="??0GpuProgramManager@Ogre@@QAE@ABV01@@Z" PURGE="4" COMMENT="" />
    <EXPORT ORDINAL="326" NAME="??0GpuProgramManager@Ogre@@QAE@XZ" PURGE="0" COMMENT="" />
    <EXPORT ORDINAL="327" NAME="??0GpuProgramParameters@Ogre@@QAE@ABV01@@Z" PURGE="4" COMMENT="" />
    <EXPORT ORDINAL="328" NAME="??0GpuProgramParameters@Ogre@@QAE@XZ" PURGE="0" COMMENT="" />
    <EXPORT ORDINAL="329" NAME="??0GpuProgramPtr@Ogre@@QAE@ABV01@@Z" PURGE="4" COMMENT="" />
    <EXPORT ORDINAL="330" NAME="??0GpuProgramPtr@Ogre@@QAE@ABV?$SharedPtr@VResource@Ogre@@@1@@Z" PURGE="4" COMMENT="" />
    <EXPORT ORDINAL="331" NAME="??0GpuProgramPtr@Ogre@@QAE@PAVGpuProgram@1@@Z" PURGE="4" COMMENT="" />
    <EXPORT ORDINAL="332" NAME="??0GpuProgramPtr@Ogre@@QAE@XZ" PURGE="0" COMMENT="" />
    <EXPORT ORDINAL="333" NAME="??0GpuProgramUsage@Ogre@@QAE@ABV01@@Z" PURGE="4" COMMENT="" />
    <EXPORT ORDINAL="334" NAME="??0GpuProgramUsage@Ogre@@QAE@W4GpuProgramType@1@@Z" PURGE="4" COMMENT="" />
    <EXPORT ORDINAL="335" NAME="??0HardwareBuffer@Ogre@@QAE@ABV01@@Z" PURGE="4" COMMENT="" />
    <EXPORT ORDINAL="336" NAME="??0HardwareBuffer@Ogre@@QAE@W4Usage@01@_N1@Z" PURGE="12" COMMENT="" />
    <EXPORT ORDINAL="337" NAME="??0HardwareBufferLicensee@Ogre@@QAE@ABV01@@Z" PURGE="4" COMMENT="" />
    <EXPORT ORDINAL="338" NAME="??0HardwareBufferLicensee@Ogre@@QAE@XZ" PURGE="0" COMMENT="" />
    <EXPORT ORDINAL="339" NAME="??0HardwareBufferManager@Ogre@@QAE@ABV01@@Z" PURGE="4" COMMENT="" />
    <EXPORT ORDINAL="340" NAME="??0HardwareBufferManager@Ogre@@QAE@XZ" PURGE="0" COMMENT="" />
    <EXPORT ORDINAL="341" NAME="??0HardwareIndexBuffer@Ogre@@QAE@ABV01@@Z" PURGE="4" COMMENT="" />
    <EXPORT ORDINAL="342" NAME="??0HardwareIndexBuffer@Ogre@@QAE@W4IndexType@01@IW4Usage@HardwareBuffer@1@_N2@Z" PURGE="20" COMMENT="" />
    <EXPORT ORDINAL="343" NAME="??0HardwareIndexBufferSharedPtr@Ogre@@QAE@ABV01@@Z" PURGE="4" COMMENT="" />
    <EXPORT ORDINAL="344" NAME="??0HardwareIndexBufferSharedPtr@Ogre@@QAE@PAVHardwareIndexBuffer@1@@Z" PURGE="4" COMMENT="" />
    <EXPORT ORDINAL="345" NAME="??0HardwareIndexBufferSharedPtr@Ogre@@QAE@XZ" PURGE="0" COMMENT="" />
    <EXPORT ORDINAL="346" NAME="??0HardwareOcclusionQuery@Ogre@@QAE@ABV01@@Z" PURGE="4" COMMENT="" />
    <EXPORT ORDINAL="347" NAME="??0HardwareOcclusionQuery@Ogre@@QAE@XZ" PURGE="0" COMMENT="" />
    <EXPORT ORDINAL="348" NAME="??0HardwarePixelBuffer@Ogre@@QAE@ABV01@@Z" PURGE="4" COMMENT="" />
    <EXPORT ORDINAL="349" NAME="??0HardwarePixelBuffer@Ogre@@QAE@IIIW4PixelFormat@1@W4Usage@HardwareBuffer@1@_N2@Z" PURGE="28" COMMENT="" />
    <EXPORT ORDINAL="350" NAME="??0HardwarePixelBufferSharedPtr@Ogre@@QAE@ABV01@@Z" PURGE="4" COMMENT="" />
    <EXPORT ORDINAL="351" NAME="??0HardwarePixelBufferSharedPtr@Ogre@@QAE@PAVHardwarePixelBuffer@1@@Z" PURGE="4" COMMENT="" />
    <EXPORT ORDINAL="352" NAME="??0HardwarePixelBufferSharedPtr@Ogre@@QAE@XZ" PURGE="0" COMMENT="" />
    <EXPORT ORDINAL="353" NAME="??0HardwareVertexBuffer@Ogre@@QAE@ABV01@@Z" PURGE="4" COMMENT="" />
    <EXPORT ORDINAL="354" NAME="??0HardwareVertexBuffer@Ogre@@QAE@IIW4Usage@HardwareBuffer@1@_N1@Z" PURGE="20" COMMENT="" />
    <EXPORT ORDINAL="355" NAME="??0HardwareVertexBufferSharedPtr@Ogre@@QAE@ABV01@@Z" PURGE="4" COMMENT="" />
    <EXPORT ORDINAL="356" NAME="??0HardwareVertexBufferSharedPtr@Ogre@@QAE@PAVHardwareVertexBuffer@1@@Z" PURGE="4" COMMENT="" />
    <EXPORT ORDINAL="357" NAME="??0HardwareVertexBufferSharedPtr@Ogre@@QAE@XZ" PURGE="0" COMMENT="" />
    <EXPORT ORDINAL="358" NAME="??0HighLevelGpuProgram@Ogre@@QAE@ABV01@@Z" PURGE="4" COMMENT="" />
    <EXPORT ORDINAL="359" NAME="??0HighLevelGpuProgram@Ogre@@QAE@PAVResourceManager@1@ABV?$basic_string@DU?$char_traits@D@std@@V?$allocator@D@2@@std@@K1_NPAVManualResourceLoader@1@@Z" PURGE="24" COMMENT="" />
    <EXPORT ORDINAL="360" NAME="??0HighLevelGpuProgramFactory@Ogre@@QAE@ABV01@@Z" PURGE="4" COMMENT="" />
    <EXPORT ORDINAL="361" NAME="??0HighLevelGpuProgramFactory@Ogre@@QAE@XZ" PURGE="0" COMMENT="" />
    <EXPORT ORDINAL="362" NAME="??0HighLevelGpuProgramManager@Ogre@@QAE@ABV01@@Z" PURGE="4" COMMENT="" />
    <EXPORT ORDINAL="363" NAME="??0HighLevelGpuProgramManager@Ogre@@QAE@XZ" PURGE="0" COMMENT="" />
    <EXPORT ORDINAL="364" NAME="??0HighLevelGpuProgramPtr@Ogre@@QAE@ABV01@@Z" PURGE="4" COMMENT="" />
    <EXPORT ORDINAL="365" NAME="??0HighLevelGpuProgramPtr@Ogre@@QAE@ABV?$SharedPtr@VResource@Ogre@@@1@@Z" PURGE="4" COMMENT="" />
    <EXPORT ORDINAL="366" NAME="??0HighLevelGpuProgramPtr@Ogre@@QAE@PAVHighLevelGpuProgram@1@@Z" PURGE="4" COMMENT="" />
    <EXPORT ORDINAL="367" NAME="??0HighLevelGpuProgramPtr@Ogre@@QAE@XZ" PURGE="0" COMMENT="" />
    <EXPORT ORDINAL="368" NAME="??0ILImageCodec@Ogre@@QAE@ABV01@@Z" PURGE="4" COMMENT="" />
    <EXPORT ORDINAL="369" NAME="??0ILImageCodec@Ogre@@QAE@ABV?$basic_string@DU?$char_traits@D@std@@V?$allocator@D@2@@std@@I@Z" PURGE="8" COMMENT="" />
    <EXPORT ORDINAL="370" NAME="??0Image@Ogre@@QAE@ABV01@@Z" PURGE="4" COMMENT="" />
    <EXPORT ORDINAL="371" NAME="??0Image@Ogre@@QAE@XZ" PURGE="0" COMMENT="" />
    <EXPORT ORDINAL="372" NAME="??0ImageCodec@Ogre@@QAE@ABV01@@Z" PURGE="4" COMMENT="" />
    <EXPORT ORDINAL="373" NAME="??0ImageCodec@Ogre@@QAE@XZ" PURGE="0" COMMENT="" />
    <EXPORT ORDINAL="374" NAME="??0IndexData@Ogre@@QAE@XZ" PURGE="0" COMMENT="" />
    <EXPORT ORDINAL="375" NAME="??0InputEvent@Ogre@@QAE@PAVEventTarget@1@HMH@Z" PURGE="16" COMMENT="" />
    <EXPORT ORDINAL="376" NAME="??0InputReader@Ogre@@QAE@ABV01@@Z" PURGE="4" COMMENT="" />
    <EXPORT ORDINAL="377" NAME="??0InputReader@Ogre@@QAE@XZ" PURGE="0" COMMENT="" />
    <EXPORT ORDINAL="378" NAME="??0IntersectionSceneQuery@Ogre@@QAE@ABV01@@Z" PURGE="4" COMMENT="" />
    <EXPORT ORDINAL="379" NAME="??0IntersectionSceneQuery@Ogre@@QAE@PAVSceneManager@1@@Z" PURGE="4" COMMENT="" />
    <EXPORT ORDINAL="380" NAME="??0IntersectionSceneQueryListener@Ogre@@QAE@ABV01@@Z" PURGE="4" COMMENT="" />
    <EXPORT ORDINAL="381" NAME="??0IntersectionSceneQueryListener@Ogre@@QAE@XZ" PURGE="0" COMMENT="" />
    <EXPORT ORDINAL="382" NAME="??0IntersectionSceneQueryResult@Ogre@@QAE@ABU01@@Z" PURGE="4" COMMENT="" />
    <EXPORT ORDINAL="383" NAME="??0IntersectionSceneQueryResult@Ogre@@QAE@XZ" PURGE="0" COMMENT="" />
    <EXPORT ORDINAL="384" NAME="??0KeyEvent@Ogre@@QAE@PAVPositionTarget@1@HHMH@Z" PURGE="20" COMMENT="" />
    <EXPORT ORDINAL="385" NAME="??0KeyFrame@Ogre@@QAE@ABV01@@Z" PURGE="4" COMMENT="" />
    <EXPORT ORDINAL="386" NAME="??0KeyFrame@Ogre@@QAE@PBVAnimationTrack@1@M@Z" PURGE="8" COMMENT="" />
    <EXPORT ORDINAL="387" NAME="??0KeyListener@Ogre@@QAE@ABV01@@Z" PURGE="4" COMMENT="" />
    <EXPORT ORDINAL="388" NAME="??0KeyListener@Ogre@@QAE@XZ" PURGE="0" COMMENT="" />
    <EXPORT ORDINAL="389" NAME="??0KeyTarget@Ogre@@QAE@ABV01@@Z" PURGE="4" COMMENT="" />
    <EXPORT ORDINAL="390" NAME="??0KeyTarget@Ogre@@QAE@XZ" PURGE="0" COMMENT="" />
    <EXPORT ORDINAL="391" NAME="??0LODBucket@StaticGeometry@Ogre@@QAE@ABV012@@Z" PURGE="4" COMMENT="" />
    <EXPORT ORDINAL="392" NAME="??0LODBucket@StaticGeometry@Ogre@@QAE@PAVRegion@12@GM@Z" PURGE="12" COMMENT="" />
    <EXPORT ORDINAL="393" NAME="??0LayerBlendModeEx@Ogre@@QAE@XZ" PURGE="0" COMMENT="" />
    <EXPORT ORDINAL="394" NAME="??0Light@Ogre@@QAE@ABV01@@Z" PURGE="4" COMMENT="" />
    <EXPORT ORDINAL="395" NAME="??0Light@Ogre@@QAE@ABV?$basic_string@DU?$char_traits@D@std@@V?$allocator@D@2@@std@@@Z" PURGE="4" COMMENT="" />
    <EXPORT ORDINAL="396" NAME="??0Light@Ogre@@QAE@XZ" PURGE="0" COMMENT="" />
    <EXPORT ORDINAL="397" NAME="??0LightFactory@Ogre@@QAE@ABV01@@Z" PURGE="4" COMMENT="" />
    <EXPORT ORDINAL="398" NAME="??0LightFactory@Ogre@@QAE@XZ" PURGE="0" COMMENT="" />
    <EXPORT ORDINAL="399" NAME="??0LightInfo@SceneManager@Ogre@@QAE@ABU012@@Z" PURGE="4" COMMENT="" />
    <EXPORT ORDINAL="400" NAME="??0LightInfo@SceneManager@Ogre@@QAE@XZ" PURGE="0" COMMENT="" />
    <EXPORT ORDINAL="401" NAME="??0Listener@CompositorInstance@Ogre@@QAE@ABV012@@Z" PURGE="4" COMMENT="" />
    <EXPORT ORDINAL="402" NAME="??0Listener@CompositorInstance@Ogre@@QAE@XZ" PURGE="0" COMMENT="" />
    <EXPORT ORDINAL="403" NAME="??0Listener@MovableObject@Ogre@@QAE@ABV012@@Z" PURGE="4" COMMENT="" />
    <EXPORT ORDINAL="404" NAME="??0Listener@MovableObject@Ogre@@QAE@XZ" PURGE="0" COMMENT="" />
    <EXPORT ORDINAL="405" NAME="??0Listener@Node@Ogre@@QAE@ABV012@@Z" PURGE="4" COMMENT="" />
    <EXPORT ORDINAL="406" NAME="??0Listener@Node@Ogre@@QAE@XZ" PURGE="0" COMMENT="" />
    <EXPORT ORDINAL="407" NAME="??0Listener@RenderSystem@Ogre@@QAE@ABV012@@Z" PURGE="4" COMMENT="" />
    <EXPORT ORDINAL="408" NAME="??0Listener@RenderSystem@Ogre@@QAE@XZ" PURGE="0" COMMENT="" />
    <EXPORT ORDINAL="409" NAME="??0Log@Ogre@@QAE@ABV?$basic_string@DU?$char_traits@D@std@@V?$allocator@D@2@@std@@_N1@Z" PURGE="12" COMMENT="" />
    <EXPORT ORDINAL="410" NAME="??0LogListener@Ogre@@QAE@ABV01@@Z" PURGE="4" COMMENT="" />
    <EXPORT ORDINAL="411" NAME="??0LogListener@Ogre@@QAE@XZ" PURGE="0" COMMENT="" />
    <EXPORT ORDINAL="412" NAME="??0LogManager@Ogre@@QAE@ABV01@@Z" PURGE="4" COMMENT="" />
    <EXPORT ORDINAL="413" NAME="??0LogManager@Ogre@@QAE@XZ" PURGE="0" COMMENT="" />
    <EXPORT ORDINAL="414" NAME="??0ManualObject@Ogre@@QAE@ABV01@@Z" PURGE="4" COMMENT="" />
    <EXPORT ORDINAL="415" NAME="??0ManualObject@Ogre@@QAE@ABV?$basic_string@DU?$char_traits@D@std@@V?$allocator@D@2@@std@@@Z" PURGE="4" COMMENT="" />
    <EXPORT ORDINAL="416" NAME="??0ManualObjectFactory@Ogre@@QAE@ABV01@@Z" PURGE="4" COMMENT="" />
    <EXPORT ORDINAL="417" NAME="??0ManualObjectFactory@Ogre@@QAE@XZ" PURGE="0" COMMENT="" />
    <EXPORT ORDINAL="418" NAME="??0ManualObjectSection@ManualObject@Ogre@@QAE@ABV012@@Z" PURGE="4" COMMENT="" />
    <EXPORT ORDINAL="419" NAME="??0ManualObjectSection@ManualObject@Ogre@@QAE@PAV12@ABV?$basic_string@DU?$char_traits@D@std@@V?$allocator@D@2@@std@@W4OperationType@RenderOperation@2@@Z" PURGE="12" COMMENT="" />
    <EXPORT ORDINAL="420" NAME="??0ManualObjectSectionShadowRenderable@ManualObject@Ogre@@QAE@ABV012@@Z" PURGE="4" COMMENT="" />
    <EXPORT ORDINAL="421" NAME="??0ManualObjectSectionShadowRenderable@ManualObject@Ogre@@QAE@PAV12@PAVHardwareIndexBufferSharedPtr@2@PBVVertexData@2@_N3@Z" PURGE="20" COMMENT="" />
    <EXPORT ORDINAL="422" NAME="??0ManualResourceLoader@Ogre@@QAE@ABV01@@Z" PURGE="4" COMMENT="" />
    <EXPORT ORDINAL="423" NAME="??0ManualResourceLoader@Ogre@@QAE@XZ" PURGE="0" COMMENT="" />
    <EXPORT ORDINAL="424" NAME="??0Material@Ogre@@QAE@ABV01@@Z" PURGE="4" COMMENT="" />
    <EXPORT ORDINAL="425" NAME="??0Material@Ogre@@QAE@PAVResourceManager@1@ABV?$basic_string@DU?$char_traits@D@std@@V?$allocator@D@2@@std@@K1_NPAVManualResourceLoader@1@@Z" PURGE="24" COMMENT="" />
    <EXPORT ORDINAL="426" NAME="??0MaterialBucket@StaticGeometry@Ogre@@QAE@ABV012@@Z" PURGE="4" COMMENT="" />
    <EXPORT ORDINAL="427" NAME="??0MaterialBucket@StaticGeometry@Ogre@@QAE@PAVLODBucket@12@ABV?$basic_string@DU?$char_traits@D@std@@V?$allocator@D@2@@std@@@Z" PURGE="8" COMMENT="" />
    <EXPORT ORDINAL="428" NAME="??0MaterialManager@Ogre@@QAE@ABV01@@Z" PURGE="4" COMMENT="" />
    <EXPORT ORDINAL="429" NAME="??0MaterialManager@Ogre@@QAE@XZ" PURGE="0" COMMENT="" />
    <EXPORT ORDINAL="430" NAME="??0MaterialPtr@Ogre@@QAE@ABV01@@Z" PURGE="4" COMMENT="" />
    <EXPORT ORDINAL="431" NAME="??0MaterialPtr@Ogre@@QAE@ABV?$SharedPtr@VResource@Ogre@@@1@@Z" PURGE="4" COMMENT="" />
    <EXPORT ORDINAL="432" NAME="??0MaterialPtr@Ogre@@QAE@PAVMaterial@1@@Z" PURGE="4" COMMENT="" />
    <EXPORT ORDINAL="433" NAME="??0MaterialPtr@Ogre@@QAE@XZ" PURGE="0" COMMENT="" />
    <EXPORT ORDINAL="434" NAME="??0MaterialScriptCompiler@Ogre@@QAE@ABV01@@Z" PURGE="4" COMMENT="" />
    <EXPORT ORDINAL="435" NAME="??0MaterialScriptCompiler@Ogre@@QAE@XZ" PURGE="0" COMMENT="" />
    <EXPORT ORDINAL="436" NAME="??0MaterialSerializer@Ogre@@QAE@ABV01@@Z" PURGE="4" COMMENT="" />
    <EXPORT ORDINAL="437" NAME="??0MaterialSerializer@Ogre@@QAE@XZ" PURGE="0" COMMENT="" />
    <EXPORT ORDINAL="438" NAME="??0Math@Ogre@@QAE@I@Z" PURGE="4" COMMENT="" />
    <EXPORT ORDINAL="439" NAME="??0Matrix3@Ogre@@QAE@ABV01@@Z" PURGE="4" COMMENT="" />
    <EXPORT ORDINAL="440" NAME="??0Matrix3@Ogre@@QAE@MMMMMMMMM@Z" PURGE="36" COMMENT="" />
    <EXPORT ORDINAL="441" NAME="??0Matrix3@Ogre@@QAE@QAY02$$CBM@Z" PURGE="4" COMMENT="" />
    <EXPORT ORDINAL="442" NAME="??0Matrix3@Ogre@@QAE@XZ" PURGE="0" COMMENT="" />
    <EXPORT ORDINAL="443" NAME="??0Matrix4@Ogre@@QAE@ABVMatrix3@1@@Z" PURGE="4" COMMENT="" />
    <EXPORT ORDINAL="444" NAME="??0Matrix4@Ogre@@QAE@ABVQuaternion@1@@Z" PURGE="4" COMMENT="" />
    <EXPORT ORDINAL="445" NAME="??0Matrix4@Ogre@@QAE@MMMMMMMMMMMMMMMM@Z" PURGE="64" COMMENT="" />
    <EXPORT ORDINAL="446" NAME="??0Matrix4@Ogre@@QAE@XZ" PURGE="0" COMMENT="" />
    <EXPORT ORDINAL="447" NAME="??0MemoryDataStream@Ogre@@QAE@AAV?$SharedPtr@VDataStream@Ogre@@@1@_N@Z" PURGE="8" COMMENT="" />
    <EXPORT ORDINAL="448" NAME="??0MemoryDataStream@Ogre@@QAE@AAVDataStream@1@_N@Z" PURGE="8" COMMENT="" />
    <EXPORT ORDINAL="449" NAME="??0MemoryDataStream@Ogre@@QAE@ABV01@@Z" PURGE="4" COMMENT="" />
    <EXPORT ORDINAL="450" NAME="??0MemoryDataStream@Ogre@@QAE@ABV?$basic_string@DU?$char_traits@D@std@@V?$allocator@D@2@@std@@AAVDataStream@1@_N@Z" PURGE="12" COMMENT="" />
    <EXPORT ORDINAL="451" NAME="??0MemoryDataStream@Ogre@@QAE@ABV?$basic_string@DU?$char_traits@D@std@@V?$allocator@D@2@@std@@ABV?$SharedPtr@VDataStream@Ogre@@@1@_N@Z" PURGE="12" COMMENT="" />
    <EXPORT ORDINAL="452" NAME="??0MemoryDataStream@Ogre@@QAE@ABV?$basic_string@DU?$char_traits@D@std@@V?$allocator@D@2@@std@@I_N@Z" PURGE="12" COMMENT="" />
    <EXPORT ORDINAL="453" NAME="??0MemoryDataStream@Ogre@@QAE@ABV?$basic_string@DU?$char_traits@D@std@@V?$allocator@D@2@@std@@PAXI_N@Z" PURGE="16" COMMENT="" />
    <EXPORT ORDINAL="454" NAME="??0MemoryDataStream@Ogre@@QAE@I_N@Z" PURGE="8" COMMENT="" />
    <EXPORT ORDINAL="455" NAME="??0MemoryDataStream@Ogre@@QAE@PAXI_N@Z" PURGE="12" COMMENT="" />
    <EXPORT ORDINAL="456" NAME="??0MemoryManager@Ogre@@QAE@XZ" PURGE="0" COMMENT="" />
    <EXPORT ORDINAL="457" NAME="??0Mesh@Ogre@@QAE@ABV01@@Z" PURGE="4" COMMENT="" />
    <EXPORT ORDINAL="458" NAME="??0Mesh@Ogre@@QAE@PAVResourceManager@1@ABV?$basic_string@DU?$char_traits@D@std@@V?$allocator@D@2@@std@@K1_NPAVManualResourceLoader@1@@Z" PURGE="24" COMMENT="" />
    <EXPORT ORDINAL="459" NAME="??0MeshManager@Ogre@@QAE@ABV01@@Z" PURGE="4" COMMENT="" />
    <EXPORT ORDINAL="460" NAME="??0MeshManager@Ogre@@QAE@XZ" PURGE="0" COMMENT="" />
    <EXPORT ORDINAL="461" NAME="??0MeshPtr@Ogre@@QAE@ABV01@@Z" PURGE="4" COMMENT="" />
    <EXPORT ORDINAL="462" NAME="??0MeshPtr@Ogre@@QAE@ABV?$SharedPtr@VResource@Ogre@@@1@@Z" PURGE="4" COMMENT="" />
    <EXPORT ORDINAL="463" NAME="??0MeshPtr@Ogre@@QAE@PAVMesh@1@@Z" PURGE="4" COMMENT="" />
    <EXPORT ORDINAL="464" NAME="??0MeshPtr@Ogre@@QAE@XZ" PURGE="0" COMMENT="" />
    <EXPORT ORDINAL="465" NAME="??0MeshSerializer@Ogre@@QAE@ABV01@@Z" PURGE="4" COMMENT="" />
    <EXPORT ORDINAL="466" NAME="??0MeshSerializer@Ogre@@QAE@XZ" PURGE="0" COMMENT="" />
    <EXPORT ORDINAL="467" NAME="??0MouseEvent@Ogre@@QAE@PAVPositionTarget@1@HHMHMMMH@Z" PURGE="36" COMMENT="" />
    <EXPORT ORDINAL="468" NAME="??0MouseEvent@Ogre@@QAE@PAVPositionTarget@1@HHMHMMMMMMH@Z" PURGE="48" COMMENT="" />
    <EXPORT ORDINAL="469" NAME="??0MouseListener@Ogre@@QAE@ABV01@@Z" PURGE="4" COMMENT="" />
    <EXPORT ORDINAL="470" NAME="??0MouseListener@Ogre@@QAE@XZ" PURGE="0" COMMENT="" />
    <EXPORT ORDINAL="471" NAME="??0MouseMotionListener@Ogre@@QAE@ABV01@@Z" PURGE="4" COMMENT="" />
    <EXPORT ORDINAL="472" NAME="??0MouseMotionListener@Ogre@@QAE@XZ" PURGE="0" COMMENT="" />
    <EXPORT ORDINAL="473" NAME="??0MouseMotionTarget@Ogre@@QAE@ABV01@@Z" PURGE="4" COMMENT="" />
    <EXPORT ORDINAL="474" NAME="??0MouseMotionTarget@Ogre@@QAE@XZ" PURGE="0" COMMENT="" />
    <EXPORT ORDINAL="475" NAME="??0MouseTarget@Ogre@@QAE@ABV01@@Z" PURGE="4" COMMENT="" />
    <EXPORT ORDINAL="476" NAME="??0MouseTarget@Ogre@@QAE@XZ" PURGE="0" COMMENT="" />
    <EXPORT ORDINAL="477" NAME="??0MovableObject@Ogre@@QAE@ABV01@@Z" PURGE="4" COMMENT="" />
    <EXPORT ORDINAL="478" NAME="??0MovableObject@Ogre@@QAE@ABV?$basic_string@DU?$char_traits@D@std@@V?$allocator@D@2@@std@@@Z" PURGE="4" COMMENT="" />
    <EXPORT ORDINAL="479" NAME="??0MovableObject@Ogre@@QAE@XZ" PURGE="0" COMMENT="" />
    <EXPORT ORDINAL="480" NAME="??0MovableObjectFactory@Ogre@@QAE@ABV01@@Z" PURGE="4" COMMENT="" />
    <EXPORT ORDINAL="481" NAME="??0MovableObjectFactory@Ogre@@QAE@XZ" PURGE="0" COMMENT="" />
    <EXPORT ORDINAL="482" NAME="??0MovablePlane@Ogre@@QAE@ABV01@@Z" PURGE="4" COMMENT="" />
    <EXPORT ORDINAL="483" NAME="??0MovablePlane@Ogre@@QAE@ABV?$basic_string@DU?$char_traits@D@std@@V?$allocator@D@2@@std@@@Z" PURGE="4" COMMENT="" />
    <EXPORT ORDINAL="484" NAME="??0MovablePlane@Ogre@@QAE@ABVPlane@1@@Z" PURGE="4" COMMENT="" />
    <EXPORT ORDINAL="485" NAME="??0MovablePlane@Ogre@@QAE@ABVVector3@1@00@Z" PURGE="12" COMMENT="" />
    <EXPORT ORDINAL="486" NAME="??0MovablePlane@Ogre@@QAE@ABVVector3@1@0@Z" PURGE="8" COMMENT="" />
    <EXPORT ORDINAL="487" NAME="??0MovablePlane@Ogre@@QAE@ABVVector3@1@M@Z" PURGE="8" COMMENT="" />
    <EXPORT ORDINAL="488" NAME="??0MultiRenderTarget@Ogre@@QAE@ABV01@@Z" PURGE="4" COMMENT="" />
    <EXPORT ORDINAL="489" NAME="??0MultiRenderTarget@Ogre@@QAE@ABV?$basic_string@DU?$char_traits@D@std@@V?$allocator@D@2@@std@@@Z" PURGE="4" COMMENT="" />
    <EXPORT ORDINAL="490" NAME="??0Node@Ogre@@QAE@ABV01@@Z" PURGE="4" COMMENT="" />
    <EXPORT ORDINAL="491" NAME="??0Node@Ogre@@QAE@ABV?$basic_string@DU?$char_traits@D@std@@V?$allocator@D@2@@std@@@Z" PURGE="4" COMMENT="" />
    <EXPORT ORDINAL="492" NAME="??0Node@Ogre@@QAE@XZ" PURGE="0" COMMENT="" />
    <EXPORT ORDINAL="493" NAME="??0NodeAnimationTrack@Ogre@@QAE@ABV01@@Z" PURGE="4" COMMENT="" />
    <EXPORT ORDINAL="494" NAME="??0NodeAnimationTrack@Ogre@@QAE@PAVAnimation@1@G@Z" PURGE="8" COMMENT="" />
    <EXPORT ORDINAL="495" NAME="??0NodeAnimationTrack@Ogre@@QAE@PAVAnimation@1@GPAVNode@1@@Z" PURGE="12" COMMENT="" />
    <EXPORT ORDINAL="496" NAME="??0NumericAnimationTrack@Ogre@@QAE@ABV01@@Z" PURGE="4" COMMENT="" />
    <EXPORT ORDINAL="497" NAME="??0NumericAnimationTrack@Ogre@@QAE@PAVAnimation@1@G@Z" PURGE="8" COMMENT="" />
    <EXPORT ORDINAL="498" NAME="??0NumericAnimationTrack@Ogre@@QAE@PAVAnimation@1@GAAV?$SharedPtr@VAnimableValue@Ogre@@@1@@Z" PURGE="12" COMMENT="" />
    <EXPORT ORDINAL="499" NAME="??0NumericKeyFrame@Ogre@@QAE@ABV01@@Z" PURGE="4" COMMENT="" />
    <EXPORT ORDINAL="500" NAME="??0NumericKeyFrame@Ogre@@QAE@PBVAnimationTrack@1@M@Z" PURGE="8" COMMENT="" />
    <EXPORT ORDINAL="501" NAME="??0OptimisedUtil@Ogre@@QAE@XZ" PURGE="0" COMMENT="" />
    <EXPORT ORDINAL="502" NAME="??0Overlay@Ogre@@QAE@ABV01@@Z" PURGE="4" COMMENT="" />
    <EXPORT ORDINAL="503" NAME="??0Overlay@Ogre@@QAE@ABV?$basic_string@DU?$char_traits@D@std@@V?$allocator@D@2@@std@@@Z" PURGE="4" COMMENT="" />
    <EXPORT ORDINAL="504" NAME="??0OverlayContainer@Ogre@@QAE@ABV01@@Z" PURGE="4" COMMENT="" />
    <EXPORT ORDINAL="505" NAME="??0OverlayContainer@Ogre@@QAE@ABV?$basic_string@DU?$char_traits@D@std@@V?$allocator@D@2@@std@@@Z" PURGE="4" COMMENT="" />
    <EXPORT ORDINAL="506" NAME="??0OverlayElement@Ogre@@QAE@ABV01@@Z" PURGE="4" COMMENT="" />
    <EXPORT ORDINAL="507" NAME="??0OverlayElement@Ogre@@QAE@ABV?$basic_string@DU?$char_traits@D@std@@V?$allocator@D@2@@std@@@Z" PURGE="4" COMMENT="" />
    <EXPORT ORDINAL="508" NAME="??0OverlayElementFactory@Ogre@@QAE@ABV01@@Z" PURGE="4" COMMENT="" />
    <EXPORT ORDINAL="509" NAME="??0OverlayElementFactory@Ogre@@QAE@XZ" PURGE="0" COMMENT="" />
    <EXPORT ORDINAL="510" NAME="??0OverlayManager@Ogre@@QAE@ABV01@@Z" PURGE="4" COMMENT="" />
    <EXPORT ORDINAL="511" NAME="??0OverlayManager@Ogre@@QAE@XZ" PURGE="0" COMMENT="" />
    <EXPORT ORDINAL="512" NAME="??0PanelOverlayElement@Ogre@@QAE@ABV01@@Z" PURGE="4" COMMENT="" />
    <EXPORT ORDINAL="513" NAME="??0PanelOverlayElement@Ogre@@QAE@ABV?$basic_string@DU?$char_traits@D@std@@V?$allocator@D@2@@std@@@Z" PURGE="4" COMMENT="" />
    <EXPORT ORDINAL="514" NAME="??0PanelOverlayElementFactory@Ogre@@QAE@ABV01@@Z" PURGE="4" COMMENT="" />
    <EXPORT ORDINAL="515" NAME="??0PanelOverlayElementFactory@Ogre@@QAE@XZ" PURGE="0" COMMENT="" />
    <EXPORT ORDINAL="516" NAME="??0ParamCommand@Ogre@@QAE@ABV01@@Z" PURGE="4" COMMENT="" />
    <EXPORT ORDINAL="517" NAME="??0ParamCommand@Ogre@@QAE@XZ" PURGE="0" COMMENT="" />
    <EXPORT ORDINAL="518" NAME="??0ParamDictionary@Ogre@@QAE@ABV01@@Z" PURGE="4" COMMENT="" />
    <EXPORT ORDINAL="519" NAME="??0ParamDictionary@Ogre@@QAE@XZ" PURGE="0" COMMENT="" />
    <EXPORT ORDINAL="520" NAME="??0ParameterDef@Ogre@@QAE@ABV01@@Z" PURGE="4" COMMENT="" />
    <EXPORT ORDINAL="521" NAME="??0ParameterDef@Ogre@@QAE@ABV?$basic_string@DU?$char_traits@D@std@@V?$allocator@D@2@@std@@0W4ParameterType@1@@Z" PURGE="12" COMMENT="" />
    <EXPORT ORDINAL="522" NAME="??0Particle@Ogre@@QAE@ABV01@@Z" PURGE="4" COMMENT="" />
    <EXPORT ORDINAL="523" NAME="??0Particle@Ogre@@QAE@XZ" PURGE="0" COMMENT="" />
    <EXPORT ORDINAL="524" NAME="??0ParticleAffector@Ogre@@QAE@ABV01@@Z" PURGE="4" COMMENT="" />
    <EXPORT ORDINAL="525" NAME="??0ParticleAffector@Ogre@@QAE@PAVParticleSystem@1@@Z" PURGE="4" COMMENT="" />
    <EXPORT ORDINAL="526" NAME="??0ParticleAffectorFactory@Ogre@@QAE@ABV01@@Z" PURGE="4" COMMENT="" />
    <EXPORT ORDINAL="527" NAME="??0ParticleAffectorFactory@Ogre@@QAE@XZ" PURGE="0" COMMENT="" />
    <EXPORT ORDINAL="528" NAME="??0ParticleEmitter@Ogre@@QAE@ABV01@@Z" PURGE="4" COMMENT="" />
    <EXPORT ORDINAL="529" NAME="??0ParticleEmitter@Ogre@@QAE@PAVParticleSystem@1@@Z" PURGE="4" COMMENT="" />
    <EXPORT ORDINAL="530" NAME="??0ParticleEmitterFactory@Ogre@@QAE@ABV01@@Z" PURGE="4" COMMENT="" />
    <EXPORT ORDINAL="531" NAME="??0ParticleEmitterFactory@Ogre@@QAE@XZ" PURGE="0" COMMENT="" />
    <EXPORT ORDINAL="532" NAME="??0ParticleIterator@Ogre@@IAE@Viterator@?$list@PAVParticle@Ogre@@V?$allocator@PAVParticle@Ogre@@@std@@@std@@0@Z" PURGE="8" COMMENT="" />
    <EXPORT ORDINAL="533" NAME="??0ParticleSystem@Ogre@@QAE@ABV01@@Z" PURGE="4" COMMENT="" />
    <EXPORT ORDINAL="534" NAME="??0ParticleSystem@Ogre@@QAE@ABV?$basic_string@DU?$char_traits@D@std@@V?$allocator@D@2@@std@@0@Z" PURGE="8" COMMENT="" />
    <EXPORT ORDINAL="535" NAME="??0ParticleSystem@Ogre@@QAE@XZ" PURGE="0" COMMENT="" />
    <EXPORT ORDINAL="536" NAME="??0ParticleSystemFactory@Ogre@@QAE@ABV01@@Z" PURGE="4" COMMENT="" />
    <EXPORT ORDINAL="537" NAME="??0ParticleSystemFactory@Ogre@@QAE@XZ" PURGE="0" COMMENT="" />
    <EXPORT ORDINAL="538" NAME="??0ParticleSystemManager@Ogre@@QAE@ABV01@@Z" PURGE="4" COMMENT="" />
    <EXPORT ORDINAL="539" NAME="??0ParticleSystemManager@Ogre@@QAE@XZ" PURGE="0" COMMENT="" />
    <EXPORT ORDINAL="540" NAME="??0ParticleSystemRenderer@Ogre@@QAE@ABV01@@Z" PURGE="4" COMMENT="" />
    <EXPORT ORDINAL="541" NAME="??0ParticleSystemRenderer@Ogre@@QAE@XZ" PURGE="0" COMMENT="" />
    <EXPORT ORDINAL="542" NAME="??0ParticleSystemRendererFactory@Ogre@@QAE@ABV01@@Z" PURGE="4" COMMENT="" />
    <EXPORT ORDINAL="543" NAME="??0ParticleSystemRendererFactory@Ogre@@QAE@XZ" PURGE="0" COMMENT="" />
    <EXPORT ORDINAL="544" NAME="??0ParticleVisualData@Ogre@@QAE@ABV01@@Z" PURGE="4" COMMENT="" />
    <EXPORT ORDINAL="545" NAME="??0ParticleVisualData@Ogre@@QAE@XZ" PURGE="0" COMMENT="" />
    <EXPORT ORDINAL="546" NAME="??0Pass@Ogre@@QAE@ABV01@@Z" PURGE="4" COMMENT="" />
    <EXPORT ORDINAL="547" NAME="??0Pass@Ogre@@QAE@PAVTechnique@1@G@Z" PURGE="8" COMMENT="" />
    <EXPORT ORDINAL="548" NAME="??0Pass@Ogre@@QAE@PAVTechnique@1@GABV01@@Z" PURGE="12" COMMENT="" />
    <EXPORT ORDINAL="549" NAME="??0PassthroughControllerFunction@Ogre@@QAE@ABV01@@Z" PURGE="4" COMMENT="" />
    <EXPORT ORDINAL="550" NAME="??0PassthroughControllerFunction@Ogre@@QAE@_N@Z" PURGE="4" COMMENT="" />
    <EXPORT ORDINAL="551" NAME="??0PatchMesh@Ogre@@QAE@ABV01@@Z" PURGE="4" COMMENT="" />
    <EXPORT ORDINAL="552" NAME="??0PatchMesh@Ogre@@QAE@PAVResourceManager@1@ABV?$basic_string@DU?$char_traits@D@std@@V?$allocator@D@2@@std@@K1@Z" PURGE="16" COMMENT="" />
    <EXPORT ORDINAL="553" NAME="??0PatchMeshPtr@Ogre@@QAE@ABV01@@Z" PURGE="4" COMMENT="" />
    <EXPORT ORDINAL="554" NAME="??0PatchMeshPtr@Ogre@@QAE@ABV?$SharedPtr@VResource@Ogre@@@1@@Z" PURGE="4" COMMENT="" />
    <EXPORT ORDINAL="555" NAME="??0PatchMeshPtr@Ogre@@QAE@PAVPatchMesh@1@@Z" PURGE="4" COMMENT="" />
    <EXPORT ORDINAL="556" NAME="??0PatchMeshPtr@Ogre@@QAE@XZ" PURGE="0" COMMENT="" />
    <EXPORT ORDINAL="557" NAME="??0PatchSurface@Ogre@@QAE@ABV01@@Z" PURGE="4" COMMENT="" />
    <EXPORT ORDINAL="558" NAME="??0PatchSurface@Ogre@@QAE@XZ" PURGE="0" COMMENT="" />
    <EXPORT ORDINAL="559" NAME="??0PixelBox@Ogre@@QAE@ABUBox@1@W4PixelFormat@1@PAX@Z" PURGE="12" COMMENT="" />
    <EXPORT ORDINAL="560" NAME="??0PixelBox@Ogre@@QAE@IIIW4PixelFormat@1@PAX@Z" PURGE="20" COMMENT="" />
    <EXPORT ORDINAL="561" NAME="??0PixelBox@Ogre@@QAE@XZ" PURGE="0" COMMENT="" />
    <EXPORT ORDINAL="562" NAME="??0Plane@Ogre@@QAE@ABV01@@Z" PURGE="4" COMMENT="" />
    <EXPORT ORDINAL="563" NAME="??0Plane@Ogre@@QAE@ABVVector3@1@00@Z" PURGE="12" COMMENT="" />
    <EXPORT ORDINAL="564" NAME="??0Plane@Ogre@@QAE@ABVVector3@1@0@Z" PURGE="8" COMMENT="" />
    <EXPORT ORDINAL="565" NAME="??0Plane@Ogre@@QAE@ABVVector3@1@M@Z" PURGE="8" COMMENT="" />
    <EXPORT ORDINAL="566" NAME="??0Plane@Ogre@@QAE@XZ" PURGE="0" COMMENT="" />
    <EXPORT ORDINAL="567" NAME="??0PlaneBoundedVolume@Ogre@@QAE@ABV01@@Z" PURGE="4" COMMENT="" />
    <EXPORT ORDINAL="568" NAME="??0PlaneBoundedVolume@Ogre@@QAE@W4Side@Plane@1@@Z" PURGE="4" COMMENT="" />
    <EXPORT ORDINAL="569" NAME="??0PlaneBoundedVolume@Ogre@@QAE@XZ" PURGE="0" COMMENT="" />
    <EXPORT ORDINAL="570" NAME="??0PlaneBoundedVolumeListSceneQuery@Ogre@@QAE@ABV01@@Z" PURGE="4" COMMENT="" />
    <EXPORT ORDINAL="571" NAME="??0PlaneBoundedVolumeListSceneQuery@Ogre@@QAE@PAVSceneManager@1@@Z" PURGE="4" COMMENT="" />
    <EXPORT ORDINAL="572" NAME="??0PlaneOptimalShadowCameraSetup@Ogre@@AAE@XZ" PURGE="0" COMMENT="" />
    <EXPORT ORDINAL="573" NAME="??0PlaneOptimalShadowCameraSetup@Ogre@@QAE@ABV01@@Z" PURGE="4" COMMENT="" />
    <EXPORT ORDINAL="574" NAME="??0PlaneOptimalShadowCameraSetup@Ogre@@QAE@PAVMovablePlane@1@@Z" PURGE="4" COMMENT="" />
    <EXPORT ORDINAL="575" NAME="??0PlatformManager@Ogre@@QAE@XZ" PURGE="0" COMMENT="" />
    <EXPORT ORDINAL="576" NAME="??0Polygon@Ogre@@QAE@ABV01@@Z" PURGE="4" COMMENT="" />
    <EXPORT ORDINAL="577" NAME="??0Polygon@Ogre@@QAE@XZ" PURGE="0" COMMENT="" />
    <EXPORT ORDINAL="578" NAME="??0Pose@Ogre@@QAE@ABV01@@Z" PURGE="4" COMMENT="" />
    <EXPORT ORDINAL="579" NAME="??0Pose@Ogre@@QAE@GABV?$basic_string@DU?$char_traits@D@std@@V?$allocator@D@2@@std@@@Z" PURGE="8" COMMENT="" />
    <EXPORT ORDINAL="580" NAME="??0PositionTarget@Ogre@@QAE@ABV01@@Z" PURGE="4" COMMENT="" />
    <EXPORT ORDINAL="581" NAME="??0PositionTarget@Ogre@@QAE@XZ" PURGE="0" COMMENT="" />
    <EXPORT ORDINAL="582" NAME="??0Profile@Ogre@@QAE@ABV01@@Z" PURGE="4" COMMENT="" />
    <EXPORT ORDINAL="583" NAME="??0Profile@Ogre@@QAE@ABV?$basic_string@DU?$char_traits@D@std@@V?$allocator@D@2@@std@@@Z" PURGE="4" COMMENT="" />
    <EXPORT ORDINAL="584" NAME="??0Profiler@Ogre@@QAE@ABV01@@Z" PURGE="4" COMMENT="" />
    <EXPORT ORDINAL="585" NAME="??0Profiler@Ogre@@QAE@XZ" PURGE="0" COMMENT="" />
    <EXPORT ORDINAL="586" NAME="??0ProgressiveMesh@Ogre@@QAE@ABV01@@Z" PURGE="4" COMMENT="" />
    <EXPORT ORDINAL="587" NAME="??0ProgressiveMesh@Ogre@@QAE@PBVVertexData@1@PBVIndexData@1@@Z" PURGE="8" COMMENT="" />
    <EXPORT ORDINAL="588" NAME="??0Quaternion@Ogre@@QAE@ABV01@@Z" PURGE="4" COMMENT="" />
    <EXPORT ORDINAL="589" NAME="??0Quaternion@Ogre@@QAE@ABVMatrix3@1@@Z" PURGE="4" COMMENT="" />
    <EXPORT ORDINAL="590" NAME="??0Quaternion@Ogre@@QAE@ABVRadian@1@ABVVector3@1@@Z" PURGE="8" COMMENT="" />
    <EXPORT ORDINAL="591" NAME="??0Quaternion@Ogre@@QAE@ABVVector3@1@00@Z" PURGE="12" COMMENT="" />
    <EXPORT ORDINAL="592" NAME="??0Quaternion@Ogre@@QAE@MMMM@Z" PURGE="16" COMMENT="" />
    <EXPORT ORDINAL="593" NAME="??0Quaternion@Ogre@@QAE@PAM@Z" PURGE="4" COMMENT="" />
    <EXPORT ORDINAL="594" NAME="??0Quaternion@Ogre@@QAE@PBVVector3@1@@Z" PURGE="4" COMMENT="" />
    <EXPORT ORDINAL="595" NAME="??0QueuedRenderableCollection@Ogre@@QAE@ABV01@@Z" PURGE="4" COMMENT="" />
    <EXPORT ORDINAL="596" NAME="??0QueuedRenderableCollection@Ogre@@QAE@XZ" PURGE="0" COMMENT="" />
    <EXPORT ORDINAL="597" NAME="??0QueuedRenderableVisitor@Ogre@@QAE@ABV01@@Z" PURGE="4" COMMENT="" />
    <EXPORT ORDINAL="598" NAME="??0QueuedRenderableVisitor@Ogre@@QAE@XZ" PURGE="0" COMMENT="" />
    <EXPORT ORDINAL="599" NAME="??0Ray@Ogre@@QAE@ABV01@@Z" PURGE="4" COMMENT="" />
    <EXPORT ORDINAL="600" NAME="??0Ray@Ogre@@QAE@ABVVector3@1@0@Z" PURGE="8" COMMENT="" />
    <EXPORT ORDINAL="601" NAME="??0Ray@Ogre@@QAE@XZ" PURGE="0" COMMENT="" />
    <EXPORT ORDINAL="602" NAME="??0RaySceneQuery@Ogre@@QAE@ABV01@@Z" PURGE="4" COMMENT="" />
    <EXPORT ORDINAL="603" NAME="??0RaySceneQuery@Ogre@@QAE@PAVSceneManager@1@@Z" PURGE="4" COMMENT="" />
    <EXPORT ORDINAL="604" NAME="??0RaySceneQueryListener@Ogre@@QAE@ABV01@@Z" PURGE="4" COMMENT="" />
    <EXPORT ORDINAL="605" NAME="??0RaySceneQueryListener@Ogre@@QAE@XZ" PURGE="0" COMMENT="" />
    <EXPORT ORDINAL="606" NAME="??0Rectangle2D@Ogre@@QAE@ABV01@@Z" PURGE="4" COMMENT="" />
    <EXPORT ORDINAL="607" NAME="??0Rectangle2D@Ogre@@QAE@_N@Z" PURGE="4" COMMENT="" />
    <EXPORT ORDINAL="608" NAME="??0Region@StaticGeometry@Ogre@@QAE@ABV012@@Z" PURGE="4" COMMENT="" />
    <EXPORT ORDINAL="609" NAME="??0Region@StaticGeometry@Ogre@@QAE@PAV12@ABV?$basic_string@DU?$char_traits@D@std@@V?$allocator@D@2@@std@@PAVSceneManager@2@IABVVector3@2@@Z" PURGE="20" COMMENT="" />
    <EXPORT ORDINAL="610" NAME="??0RegionSceneQuery@Ogre@@QAE@ABV01@@Z" PURGE="4" COMMENT="" />
    <EXPORT ORDINAL="611" NAME="??0RegionSceneQuery@Ogre@@QAE@PAVSceneManager@1@@Z" PURGE="4" COMMENT="" />
    <EXPORT ORDINAL="612" NAME="??0RegionShadowRenderable@Region@StaticGeometry@Ogre@@QAE@ABV0123@@Z" PURGE="4" COMMENT="" />
    <EXPORT ORDINAL="613" NAME="??0RegionShadowRenderable@Region@StaticGeometry@Ogre@@QAE@PAV123@PAVHardwareIndexBufferSharedPtr@3@PBVVertexData@3@_N3@Z" PURGE="20" COMMENT="" />
    <EXPORT ORDINAL="614" NAME="??0RenderPriorityGroup@Ogre@@QAE@ABV01@@Z" PURGE="4" COMMENT="" />
    <EXPORT ORDINAL="615" NAME="??0RenderPriorityGroup@Ogre@@QAE@PAVRenderQueueGroup@1@_N11@Z" PURGE="16" COMMENT="" />
    <EXPORT ORDINAL="616" NAME="??0RenderQueue@Ogre@@QAE@ABV01@@Z" PURGE="4" COMMENT="" />
    <EXPORT ORDINAL="617" NAME="??0RenderQueue@Ogre@@QAE@XZ" PURGE="0" COMMENT="" />
    <EXPORT ORDINAL="618" NAME="??0RenderQueueGroup@Ogre@@QAE@ABV01@@Z" PURGE="4" COMMENT="" />
    <EXPORT ORDINAL="619" NAME="??0RenderQueueGroup@Ogre@@QAE@PAVRenderQueue@1@_N111@Z" PURGE="20" COMMENT="" />
    <EXPORT ORDINAL="620" NAME="??0RenderQueueInvocation@Ogre@@QAE@ABV01@@Z" PURGE="4" COMMENT="" />
    <EXPORT ORDINAL="621" NAME="??0RenderQueueInvocation@Ogre@@QAE@EABV?$basic_string@DU?$char_traits@D@std@@V?$allocator@D@2@@std@@@Z" PURGE="8" COMMENT="" />
    <EXPORT ORDINAL="622" NAME="??0RenderQueueInvocationSequence@Ogre@@QAE@ABV01@@Z" PURGE="4" COMMENT="" />
    <EXPORT ORDINAL="623" NAME="??0RenderQueueInvocationSequence@Ogre@@QAE@ABV?$basic_string@DU?$char_traits@D@std@@V?$allocator@D@2@@std@@@Z" PURGE="4" COMMENT="" />
    <EXPORT ORDINAL="624" NAME="??0RenderQueueListener@Ogre@@QAE@ABV01@@Z" PURGE="4" COMMENT="" />
    <EXPORT ORDINAL="625" NAME="??0RenderQueueListener@Ogre@@QAE@XZ" PURGE="0" COMMENT="" />
    <EXPORT ORDINAL="626" NAME="??0RenderSystem@Ogre@@QAE@ABV01@@Z" PURGE="4" COMMENT="" />
    <EXPORT ORDINAL="627" NAME="??0RenderSystem@Ogre@@QAE@XZ" PURGE="0" COMMENT="" />
    <EXPORT ORDINAL="628" NAME="??0RenderSystemCapabilities@Ogre@@QAE@ABV01@@Z" PURGE="4" COMMENT="" />
    <EXPORT ORDINAL="629" NAME="??0RenderSystemCapabilities@Ogre@@QAE@XZ" PURGE="0" COMMENT="" />
    <EXPORT ORDINAL="630" NAME="??0RenderTarget@Ogre@@QAE@ABV01@@Z" PURGE="4" COMMENT="" />
    <EXPORT ORDINAL="631" NAME="??0RenderTarget@Ogre@@QAE@XZ" PURGE="0" COMMENT="" />
    <EXPORT ORDINAL="632" NAME="??0RenderTargetListener@Ogre@@QAE@ABV01@@Z" PURGE="4" COMMENT="" />
    <EXPORT ORDINAL="633" NAME="??0RenderTargetListener@Ogre@@QAE@XZ" PURGE="0" COMMENT="" />
    <EXPORT ORDINAL="634" NAME="??0RenderTexture@Ogre@@QAE@ABV01@@Z" PURGE="4" COMMENT="" />
    <EXPORT ORDINAL="635" NAME="??0RenderTexture@Ogre@@QAE@PAVHardwarePixelBuffer@1@I@Z" PURGE="8" COMMENT="" />
    <EXPORT ORDINAL="636" NAME="??0RenderWindow@Ogre@@QAE@ABV01@@Z" PURGE="4" COMMENT="" />
    <EXPORT ORDINAL="637" NAME="??0RenderWindow@Ogre@@QAE@XZ" PURGE="0" COMMENT="" />
    <EXPORT ORDINAL="638" NAME="??0Renderable@Ogre@@QAE@ABV01@@Z" PURGE="4" COMMENT="" />
    <EXPORT ORDINAL="639" NAME="??0Renderable@Ogre@@QAE@XZ" PURGE="0" COMMENT="" />
    <EXPORT ORDINAL="640" NAME="??0RenderableListener@RenderQueue@Ogre@@QAE@ABV012@@Z" PURGE="4" COMMENT="" />
    <EXPORT ORDINAL="641" NAME="??0RenderableListener@RenderQueue@Ogre@@QAE@XZ" PURGE="0" COMMENT="" />
    <EXPORT ORDINAL="642" NAME="??0Resource@Ogre@@IAE@XZ" PURGE="0" COMMENT="" />
    <EXPORT ORDINAL="643" NAME="??0Resource@Ogre@@QAE@ABV01@@Z" PURGE="4" COMMENT="" />
    <EXPORT ORDINAL="644" NAME="??0Resource@Ogre@@QAE@PAVResourceManager@1@ABV?$basic_string@DU?$char_traits@D@std@@V?$allocator@D@2@@std@@K1_NPAVManualResourceLoader@1@@Z" PURGE="24" COMMENT="" />
    <EXPORT ORDINAL="645" NAME="??0ResourceBackgroundQueue@Ogre@@QAE@ABV01@@Z" PURGE="4" COMMENT="" />
    <EXPORT ORDINAL="646" NAME="??0ResourceBackgroundQueue@Ogre@@QAE@XZ" PURGE="0" COMMENT="" />
    <EXPORT ORDINAL="647" NAME="??0ResourceBackgroundQueueListener@Ogre@@QAE@ABV01@@Z" PURGE="4" COMMENT="" />
    <EXPORT ORDINAL="648" NAME="??0ResourceBackgroundQueueListener@Ogre@@QAE@XZ" PURGE="0" COMMENT="" />
    <EXPORT ORDINAL="649" NAME="??0ResourceGroupListener@Ogre@@QAE@ABV01@@Z" PURGE="4" COMMENT="" />
    <EXPORT ORDINAL="650" NAME="??0ResourceGroupListener@Ogre@@QAE@XZ" PURGE="0" COMMENT="" />
    <EXPORT ORDINAL="651" NAME="??0ResourceGroupManager@Ogre@@QAE@ABV01@@Z" PURGE="4" COMMENT="" />
    <EXPORT ORDINAL="652" NAME="??0ResourceGroupManager@Ogre@@QAE@XZ" PURGE="0" COMMENT="" />
    <EXPORT ORDINAL="653" NAME="??0ResourceManager@Ogre@@QAE@ABV01@@Z" PURGE="4" COMMENT="" />
    <EXPORT ORDINAL="654" NAME="??0ResourceManager@Ogre@@QAE@XZ" PURGE="0" COMMENT="" />
    <EXPORT ORDINAL="655" NAME="??0RibbonTrail@Ogre@@QAE@ABV01@@Z" PURGE="4" COMMENT="" />
    <EXPORT ORDINAL="656" NAME="??0RibbonTrail@Ogre@@QAE@ABV?$basic_string@DU?$char_traits@D@std@@V?$allocator@D@2@@std@@II_N1@Z" PURGE="20" COMMENT="" />
    <EXPORT ORDINAL="657" NAME="??0RibbonTrailFactory@Ogre@@QAE@ABV01@@Z" PURGE="4" COMMENT="" />
    <EXPORT ORDINAL="658" NAME="??0RibbonTrailFactory@Ogre@@QAE@XZ" PURGE="0" COMMENT="" />
    <EXPORT ORDINAL="659" NAME="??0Root@Ogre@@QAE@ABV01@@Z" PURGE="4" COMMENT="" />
    <EXPORT ORDINAL="660" NAME="??0Root@Ogre@@QAE@ABV?$basic_string@DU?$char_traits@D@std@@V?$allocator@D@2@@std@@00@Z" PURGE="12" COMMENT="" />
    <EXPORT ORDINAL="661" NAME="??0RotationalSpline@Ogre@@QAE@ABV01@@Z" PURGE="4" COMMENT="" />
    <EXPORT ORDINAL="662" NAME="??0RotationalSpline@Ogre@@QAE@XZ" PURGE="0" COMMENT="" />
    <EXPORT ORDINAL="663" NAME="??0ScaleControllerFunction@Ogre@@QAE@ABV01@@Z" PURGE="4" COMMENT="" />
    <EXPORT ORDINAL="664" NAME="??0ScaleControllerFunction@Ogre@@QAE@M_N@Z" PURGE="8" COMMENT="" />
    <EXPORT ORDINAL="665" NAME="??0SceneManager@Ogre@@QAE@ABV01@@Z" PURGE="4" COMMENT="" />
    <EXPORT ORDINAL="666" NAME="??0SceneManager@Ogre@@QAE@ABV?$basic_string@DU?$char_traits@D@std@@V?$allocator@D@2@@std@@@Z" PURGE="4" COMMENT="" />
    <EXPORT ORDINAL="667" NAME="??0SceneManagerEnumerator@Ogre@@QAE@ABV01@@Z" PURGE="4" COMMENT="" />
    <EXPORT ORDINAL="668" NAME="??0SceneManagerEnumerator@Ogre@@QAE@XZ" PURGE="0" COMMENT="" />
    <EXPORT ORDINAL="669" NAME="??0SceneManagerFactory@Ogre@@QAE@ABV01@@Z" PURGE="4" COMMENT="" />
    <EXPORT ORDINAL="670" NAME="??0SceneManagerFactory@Ogre@@QAE@XZ" PURGE="0" COMMENT="" />
    <EXPORT ORDINAL="671" NAME="??0SceneMgrQueuedRenderableVisitor@SceneManager@Ogre@@QAE@ABV012@@Z" PURGE="4" COMMENT="" />
    <EXPORT ORDINAL="672" NAME="??0SceneMgrQueuedRenderableVisitor@SceneManager@Ogre@@QAE@XZ" PURGE="0" COMMENT="" />
    <EXPORT ORDINAL="673" NAME="??0SceneNode@Ogre@@QAE@ABV01@@Z" PURGE="4" COMMENT="" />
    <EXPORT ORDINAL="674" NAME="??0SceneNode@Ogre@@QAE@PAVSceneManager@1@@Z" PURGE="4" COMMENT="" />
    <EXPORT ORDINAL="675" NAME="??0SceneNode@Ogre@@QAE@PAVSceneManager@1@ABV?$basic_string@DU?$char_traits@D@std@@V?$allocator@D@2@@std@@@Z" PURGE="8" COMMENT="" />
    <EXPORT ORDINAL="676" NAME="??0SceneQuery@Ogre@@QAE@ABV01@@Z" PURGE="4" COMMENT="" />
    <EXPORT ORDINAL="677" NAME="??0SceneQuery@Ogre@@QAE@PAVSceneManager@1@@Z" PURGE="4" COMMENT="" />
    <EXPORT ORDINAL="678" NAME="??0SceneQueryListener@Ogre@@QAE@ABV01@@Z" PURGE="4" COMMENT="" />
    <EXPORT ORDINAL="679" NAME="??0SceneQueryListener@Ogre@@QAE@XZ" PURGE="0" COMMENT="" />
    <EXPORT ORDINAL="680" NAME="??0SceneQueryResult@Ogre@@QAE@ABU01@@Z" PURGE="4" COMMENT="" />
    <EXPORT ORDINAL="681" NAME="??0SceneQueryResult@Ogre@@QAE@XZ" PURGE="0" COMMENT="" />
    <EXPORT ORDINAL="682" NAME="??0ScriptLoader@Ogre@@QAE@ABV01@@Z" PURGE="4" COMMENT="" />
    <EXPORT ORDINAL="683" NAME="??0ScriptLoader@Ogre@@QAE@XZ" PURGE="0" COMMENT="" />
    <EXPORT ORDINAL="684" NAME="??0Serializer@Ogre@@QAE@ABV01@@Z" PURGE="4" COMMENT="" />
    <EXPORT ORDINAL="685" NAME="??0Serializer@Ogre@@QAE@XZ" PURGE="0" COMMENT="" />
    <EXPORT ORDINAL="686" NAME="??0ShadowCameraSetup@Ogre@@QAE@ABV01@@Z" PURGE="4" COMMENT="" />
    <EXPORT ORDINAL="687" NAME="??0ShadowCameraSetup@Ogre@@QAE@XZ" PURGE="0" COMMENT="" />
    <EXPORT ORDINAL="688" NAME="??0ShadowCaster@Ogre@@QAE@ABV01@@Z" PURGE="4" COMMENT="" />
    <EXPORT ORDINAL="689" NAME="??0ShadowCaster@Ogre@@QAE@XZ" PURGE="0" COMMENT="" />
    <EXPORT ORDINAL="690" NAME="??0ShadowCasterSceneQueryListener@SceneManager@Ogre@@QAE@ABV012@@Z" PURGE="4" COMMENT="" />
    <EXPORT ORDINAL="691" NAME="??0ShadowCasterSceneQueryListener@SceneManager@Ogre@@QAE@PAV12@@Z" PURGE="4" COMMENT="" />
    <EXPORT ORDINAL="692" NAME="??0ShadowListener@Ogre@@QAE@ABV01@@Z" PURGE="4" COMMENT="" />
    <EXPORT ORDINAL="693" NAME="??0ShadowListener@Ogre@@QAE@XZ" PURGE="0" COMMENT="" />
    <EXPORT ORDINAL="694" NAME="??0ShadowRenderable@Ogre@@QAE@ABV01@@Z" PURGE="4" COMMENT="" />
    <EXPORT ORDINAL="695" NAME="??0ShadowRenderable@Ogre@@QAE@XZ" PURGE="0" COMMENT="" />
    <EXPORT ORDINAL="696" NAME="??0SimpleRenderable@Ogre@@QAE@ABV01@@Z" PURGE="4" COMMENT="" />
    <EXPORT ORDINAL="697" NAME="??0SimpleRenderable@Ogre@@QAE@XZ" PURGE="0" COMMENT="" />
    <EXPORT ORDINAL="698" NAME="??0SimpleSpline@Ogre@@QAE@ABV01@@Z" PURGE="4" COMMENT="" />
    <EXPORT ORDINAL="699" NAME="??0SimpleSpline@Ogre@@QAE@XZ" PURGE="0" COMMENT="" />
    <EXPORT ORDINAL="700" NAME="??0Skeleton@Ogre@@IAE@XZ" PURGE="0" COMMENT="" />
    <EXPORT ORDINAL="701" NAME="??0Skeleton@Ogre@@QAE@ABV01@@Z" PURGE="4" COMMENT="" />
    <EXPORT ORDINAL="702" NAME="??0Skeleton@Ogre@@QAE@PAVResourceManager@1@ABV?$basic_string@DU?$char_traits@D@std@@V?$allocator@D@2@@std@@K1_NPAVManualResourceLoader@1@@Z" PURGE="24" COMMENT="" />
    <EXPORT ORDINAL="703" NAME="??0SkeletonInstance@Ogre@@QAE@ABV01@@Z" PURGE="4" COMMENT="" />
    <EXPORT ORDINAL="704" NAME="??0SkeletonInstance@Ogre@@QAE@ABVSkeletonPtr@1@@Z" PURGE="4" COMMENT="" />
    <EXPORT ORDINAL="705" NAME="??0SkeletonManager@Ogre@@QAE@ABV01@@Z" PURGE="4" COMMENT="" />
    <EXPORT ORDINAL="706" NAME="??0SkeletonManager@Ogre@@QAE@XZ" PURGE="0" COMMENT="" />
    <EXPORT ORDINAL="707" NAME="??0SkeletonPtr@Ogre@@QAE@ABV01@@Z" PURGE="4" COMMENT="" />
    <EXPORT ORDINAL="708" NAME="??0SkeletonPtr@Ogre@@QAE@ABV?$SharedPtr@VResource@Ogre@@@1@@Z" PURGE="4" COMMENT="" />
    <EXPORT ORDINAL="709" NAME="??0SkeletonPtr@Ogre@@QAE@PAVSkeleton@1@@Z" PURGE="4" COMMENT="" />
    <EXPORT ORDINAL="710" NAME="??0SkeletonPtr@Ogre@@QAE@XZ" PURGE="0" COMMENT="" />
    <EXPORT ORDINAL="711" NAME="??0SkeletonSerializer@Ogre@@QAE@ABV01@@Z" PURGE="4" COMMENT="" />
    <EXPORT ORDINAL="712" NAME="??0SkeletonSerializer@Ogre@@QAE@XZ" PURGE="0" COMMENT="" />
    <EXPORT ORDINAL="713" NAME="??0Sphere@Ogre@@QAE@ABV01@@Z" PURGE="4" COMMENT="" />
    <EXPORT ORDINAL="714" NAME="??0Sphere@Ogre@@QAE@ABVVector3@1@M@Z" PURGE="8" COMMENT="" />
    <EXPORT ORDINAL="715" NAME="??0Sphere@Ogre@@QAE@XZ" PURGE="0" COMMENT="" />
    <EXPORT ORDINAL="716" NAME="??0SphereSceneQuery@Ogre@@QAE@ABV01@@Z" PURGE="4" COMMENT="" />
    <EXPORT ORDINAL="717" NAME="??0SphereSceneQuery@Ogre@@QAE@PAVSceneManager@1@@Z" PURGE="4" COMMENT="" />
    <EXPORT ORDINAL="718" NAME="??0StaticGeometry@Ogre@@QAE@ABV01@@Z" PURGE="4" COMMENT="" />
    <EXPORT ORDINAL="719" NAME="??0StaticGeometry@Ogre@@QAE@PAVSceneManager@1@ABV?$basic_string@DU?$char_traits@D@std@@V?$allocator@D@2@@std@@@Z" PURGE="8" COMMENT="" />
    <EXPORT ORDINAL="720" NAME="??0StringInterface@Ogre@@QAE@ABV01@@Z" PURGE="4" COMMENT="" />
    <EXPORT ORDINAL="721" NAME="??0StringInterface@Ogre@@QAE@XZ" PURGE="0" COMMENT="" />
    <EXPORT ORDINAL="722" NAME="??0SubEntity@Ogre@@IAE@PAVEntity@1@PAVSubMesh@1@@Z" PURGE="8" COMMENT="" />
    <EXPORT ORDINAL="723" NAME="??0SubEntity@Ogre@@QAE@ABV01@@Z" PURGE="4" COMMENT="" />
    <EXPORT ORDINAL="724" NAME="??0SubMesh@Ogre@@QAE@ABV01@@Z" PURGE="4" COMMENT="" />
    <EXPORT ORDINAL="725" NAME="??0SubMesh@Ogre@@QAE@XZ" PURGE="0" COMMENT="" />
    <EXPORT ORDINAL="726" NAME="??0TagPoint@Ogre@@QAE@ABV01@@Z" PURGE="4" COMMENT="" />
    <EXPORT ORDINAL="727" NAME="??0TagPoint@Ogre@@QAE@GPAVSkeleton@1@@Z" PURGE="8" COMMENT="" />
    <EXPORT ORDINAL="728" NAME="??0TargetManager@Ogre@@QAE@ABV01@@Z" PURGE="4" COMMENT="" />
    <EXPORT ORDINAL="729" NAME="??0TargetManager@Ogre@@QAE@XZ" PURGE="0" COMMENT="" />
    <EXPORT ORDINAL="730" NAME="??0Technique@Ogre@@QAE@ABV01@@Z" PURGE="4" COMMENT="" />
    <EXPORT ORDINAL="731" NAME="??0Technique@Ogre@@QAE@PAVMaterial@1@@Z" PURGE="4" COMMENT="" />
    <EXPORT ORDINAL="732" NAME="??0Technique@Ogre@@QAE@PAVMaterial@1@ABV01@@Z" PURGE="8" COMMENT="" />
    <EXPORT ORDINAL="733" NAME="??0TempBlendedBufferInfo@Ogre@@QAE@ABV01@@Z" PURGE="4" COMMENT="" />
    <EXPORT ORDINAL="734" NAME="??0TempBlendedBufferInfo@Ogre@@QAE@XZ" PURGE="0" COMMENT="" />
    <EXPORT ORDINAL="735" NAME="??0TexCoordModifierControllerValue@Ogre@@QAE@ABV01@@Z" PURGE="4" COMMENT="" />
    <EXPORT ORDINAL="736" NAME="??0TexCoordModifierControllerValue@Ogre@@QAE@PAVTextureUnitState@1@_N1111@Z" PURGE="24" COMMENT="" />
    <EXPORT ORDINAL="737" NAME="??0TextAreaOverlayElement@Ogre@@QAE@ABV01@@Z" PURGE="4" COMMENT="" />
    <EXPORT ORDINAL="738" NAME="??0TextAreaOverlayElement@Ogre@@QAE@ABV?$basic_string@DU?$char_traits@D@std@@V?$allocator@D@2@@std@@@Z" PURGE="4" COMMENT="" />
    <EXPORT ORDINAL="739" NAME="??0TextAreaOverlayElementFactory@Ogre@@QAE@ABV01@@Z" PURGE="4" COMMENT="" />
    <EXPORT ORDINAL="740" NAME="??0TextAreaOverlayElementFactory@Ogre@@QAE@XZ" PURGE="0" COMMENT="" />
    <EXPORT ORDINAL="741" NAME="??0Texture@Ogre@@QAE@ABV01@@Z" PURGE="4" COMMENT="" />
    <EXPORT ORDINAL="742" NAME="??0Texture@Ogre@@QAE@PAVResourceManager@1@ABV?$basic_string@DU?$char_traits@D@std@@V?$allocator@D@2@@std@@K1_NPAVManualResourceLoader@1@@Z" PURGE="24" COMMENT="" />
    <EXPORT ORDINAL="743" NAME="??0TextureFrameControllerValue@Ogre@@QAE@ABV01@@Z" PURGE="4" COMMENT="" />
    <EXPORT ORDINAL="744" NAME="??0TextureFrameControllerValue@Ogre@@QAE@PAVTextureUnitState@1@@Z" PURGE="4" COMMENT="" />
    <EXPORT ORDINAL="745" NAME="??0TextureManager@Ogre@@QAE@ABV01@@Z" PURGE="4" COMMENT="" />
    <EXPORT ORDINAL="746" NAME="??0TextureManager@Ogre@@QAE@XZ" PURGE="0" COMMENT="" />
    <EXPORT ORDINAL="747" NAME="??0TexturePtr@Ogre@@QAE@ABV01@@Z" PURGE="4" COMMENT="" />
    <EXPORT ORDINAL="748" NAME="??0TexturePtr@Ogre@@QAE@ABV?$SharedPtr@VResource@Ogre@@@1@@Z" PURGE="4" COMMENT="" />
    <EXPORT ORDINAL="749" NAME="??0TexturePtr@Ogre@@QAE@PAVTexture@1@@Z" PURGE="4" COMMENT="" />
    <EXPORT ORDINAL="750" NAME="??0TexturePtr@Ogre@@QAE@XZ" PURGE="0" COMMENT="" />
    <EXPORT ORDINAL="751" NAME="??0TextureUnitState@Ogre@@QAE@ABV01@@Z" PURGE="4" COMMENT="" />
    <EXPORT ORDINAL="752" NAME="??0TextureUnitState@Ogre@@QAE@PAVPass@1@@Z" PURGE="4" COMMENT="" />
    <EXPORT ORDINAL="753" NAME="??0TextureUnitState@Ogre@@QAE@PAVPass@1@ABV01@@Z" PURGE="8" COMMENT="" />
    <EXPORT ORDINAL="754" NAME="??0TextureUnitState@Ogre@@QAE@PAVPass@1@ABV?$basic_string@DU?$char_traits@D@std@@V?$allocator@D@2@@std@@I@Z" PURGE="12" COMMENT="" />
    <EXPORT ORDINAL="755" NAME="??0TimeIndex@Ogre@@QAE@M@Z" PURGE="4" COMMENT="" />
    <EXPORT ORDINAL="756" NAME="??0TimeIndex@Ogre@@QAE@MI@Z" PURGE="8" COMMENT="" />
    <EXPORT ORDINAL="757" NAME="??0Timer@Ogre@@QAE@ABV01@@Z" PURGE="4" COMMENT="" />
    <EXPORT ORDINAL="758" NAME="??0Timer@Ogre@@QAE@XZ" PURGE="0" COMMENT="" />
    <EXPORT ORDINAL="759" NAME="??0TransformKeyFrame@Ogre@@QAE@ABV01@@Z" PURGE="4" COMMENT="" />
    <EXPORT ORDINAL="760" NAME="??0TransformKeyFrame@Ogre@@QAE@PBVAnimationTrack@1@M@Z" PURGE="8" COMMENT="" />
    <EXPORT ORDINAL="761" NAME="??0UserDefinedObject@Ogre@@QAE@ABV01@@Z" PURGE="4" COMMENT="" />
    <EXPORT ORDINAL="762" NAME="??0UserDefinedObject@Ogre@@QAE@XZ" PURGE="0" COMMENT="" />
    <EXPORT ORDINAL="763" NAME="??0Vector2@Ogre@@QAE@ABV01@@Z" PURGE="4" COMMENT="" />
    <EXPORT ORDINAL="764" NAME="??0Vector2@Ogre@@QAE@M@Z" PURGE="4" COMMENT="" />
    <EXPORT ORDINAL="765" NAME="??0Vector2@Ogre@@QAE@MM@Z" PURGE="8" COMMENT="" />
    <EXPORT ORDINAL="766" NAME="??0Vector2@Ogre@@QAE@QAM@Z" PURGE="4" COMMENT="" />
    <EXPORT ORDINAL="767" NAME="??0Vector2@Ogre@@QAE@QBH@Z" PURGE="4" COMMENT="" />
    <EXPORT ORDINAL="768" NAME="??0Vector2@Ogre@@QAE@QBM@Z" PURGE="4" COMMENT="" />
    <EXPORT ORDINAL="769" NAME="??0Vector2@Ogre@@QAE@XZ" PURGE="0" COMMENT="" />
    <EXPORT ORDINAL="770" NAME="??0Vector3@Ogre@@QAE@ABV01@@Z" PURGE="4" COMMENT="" />
    <EXPORT ORDINAL="771" NAME="??0Vector3@Ogre@@QAE@M@Z" PURGE="4" COMMENT="" />
    <EXPORT ORDINAL="772" NAME="??0Vector3@Ogre@@QAE@MMM@Z" PURGE="12" COMMENT="" />
    <EXPORT ORDINAL="773" NAME="??0Vector3@Ogre@@QAE@QAM@Z" PURGE="4" COMMENT="" />
    <EXPORT ORDINAL="774" NAME="??0Vector3@Ogre@@QAE@QBH@Z" PURGE="4" COMMENT="" />
    <EXPORT ORDINAL="775" NAME="??0Vector3@Ogre@@QAE@QBM@Z" PURGE="4" COMMENT="" />
    <EXPORT ORDINAL="776" NAME="??0Vector3@Ogre@@QAE@XZ" PURGE="0" COMMENT="" />
    <EXPORT ORDINAL="777" NAME="??0Vector4@Ogre@@QAE@ABV01@@Z" PURGE="4" COMMENT="" />
    <EXPORT ORDINAL="778" NAME="??0Vector4@Ogre@@QAE@ABVVector3@1@@Z" PURGE="4" COMMENT="" />
    <EXPORT ORDINAL="779" NAME="??0Vector4@Ogre@@QAE@M@Z" PURGE="4" COMMENT="" />
    <EXPORT ORDINAL="780" NAME="??0Vector4@Ogre@@QAE@MMMM@Z" PURGE="16" COMMENT="" />
    <EXPORT ORDINAL="781" NAME="??0Vector4@Ogre@@QAE@QAM@Z" PURGE="4" COMMENT="" />
    <EXPORT ORDINAL="782" NAME="??0Vector4@Ogre@@QAE@QBH@Z" PURGE="4" COMMENT="" />
    <EXPORT ORDINAL="783" NAME="??0Vector4@Ogre@@QAE@QBM@Z" PURGE="4" COMMENT="" />
    <EXPORT ORDINAL="784" NAME="??0Vector4@Ogre@@QAE@XZ" PURGE="0" COMMENT="" />
    <EXPORT ORDINAL="785" NAME="??0VertexAnimationTrack@Ogre@@QAE@ABV01@@Z" PURGE="4" COMMENT="" />
    <EXPORT ORDINAL="786" NAME="??0VertexAnimationTrack@Ogre@@QAE@PAVAnimation@1@GW4VertexAnimationType@1@@Z" PURGE="12" COMMENT="" />
    <EXPORT ORDINAL="787" NAME="??0VertexAnimationTrack@Ogre@@QAE@PAVAnimation@1@GW4VertexAnimationType@1@PAVVertexData@1@W4TargetMode@01@@Z" PURGE="20" COMMENT="" />
    <EXPORT ORDINAL="788" NAME="??0VertexBufferBinding@Ogre@@QAE@ABV01@@Z" PURGE="4" COMMENT="" />
    <EXPORT ORDINAL="789" NAME="??0VertexBufferBinding@Ogre@@QAE@XZ" PURGE="0" COMMENT="" />
    <EXPORT ORDINAL="790" NAME="??0VertexCacheProfiler@Ogre@@QAE@IW4CacheType@01@@Z" PURGE="8" COMMENT="" />
    <EXPORT ORDINAL="791" NAME="??0VertexData@Ogre@@QAE@XZ" PURGE="0" COMMENT="" />
    <EXPORT ORDINAL="792" NAME="??0VertexDeclaration@Ogre@@QAE@ABV01@@Z" PURGE="4" COMMENT="" />
    <EXPORT ORDINAL="793" NAME="??0VertexDeclaration@Ogre@@QAE@XZ" PURGE="0" COMMENT="" />
    <EXPORT ORDINAL="794" NAME="??0VertexElement@Ogre@@QAE@GIW4VertexElementType@1@W4VertexElementSemantic@1@G@Z" PURGE="20" COMMENT="" />
    <EXPORT ORDINAL="795" NAME="??0VertexMorphKeyFrame@Ogre@@QAE@ABV01@@Z" PURGE="4" COMMENT="" />
    <EXPORT ORDINAL="796" NAME="??0VertexMorphKeyFrame@Ogre@@QAE@PBVAnimationTrack@1@M@Z" PURGE="8" COMMENT="" />
    <EXPORT ORDINAL="797" NAME="??0VertexPoseKeyFrame@Ogre@@QAE@ABV01@@Z" PURGE="4" COMMENT="" />
    <EXPORT ORDINAL="798" NAME="??0VertexPoseKeyFrame@Ogre@@QAE@PBVAnimationTrack@1@M@Z" PURGE="8" COMMENT="" />
    <EXPORT ORDINAL="799" NAME="??0Viewport@Ogre@@QAE@ABV01@@Z" PURGE="4" COMMENT="" />
    <EXPORT ORDINAL="800" NAME="??0Viewport@Ogre@@QAE@PAVCamera@1@PAVRenderTarget@1@MMMMH@Z" PURGE="28" COMMENT="" />
    <EXPORT ORDINAL="801" NAME="??0WaveformControllerFunction@Ogre@@QAE@ABV01@@Z" PURGE="4" COMMENT="" />
    <EXPORT ORDINAL="802" NAME="??0WaveformControllerFunction@Ogre@@QAE@W4WaveformType@1@MMMM_NM@Z" PURGE="28" COMMENT="" />
    <EXPORT ORDINAL="803" NAME="??0WireBoundingBox@Ogre@@QAE@ABV01@@Z" PURGE="4" COMMENT="" />
    <EXPORT ORDINAL="804" NAME="??0WireBoundingBox@Ogre@@QAE@XZ" PURGE="0" COMMENT="" />
    <EXPORT ORDINAL="805" NAME="??0ZipArchive@Ogre@@QAE@ABV01@@Z" PURGE="4" COMMENT="" />
    <EXPORT ORDINAL="806" NAME="??0ZipArchive@Ogre@@QAE@ABV?$basic_string@DU?$char_traits@D@std@@V?$allocator@D@2@@std@@0@Z" PURGE="8" COMMENT="" />
    <EXPORT ORDINAL="807" NAME="??1?$ControllerFunction@M@Ogre@@UAE@XZ" PURGE="0" COMMENT="" />
    <EXPORT ORDINAL="808" NAME="??1?$ControllerValue@M@Ogre@@UAE@XZ" PURGE="0" COMMENT="" />
    <EXPORT ORDINAL="809" NAME="??1?$FactoryObj@VArchive@Ogre@@@Ogre@@UAE@XZ" PURGE="0" COMMENT="" />
    <EXPORT ORDINAL="810" NAME="??1?$FactoryObj@VParticleSystemRenderer@Ogre@@@Ogre@@UAE@XZ" PURGE="0" COMMENT="" />
    <EXPORT ORDINAL="811" NAME="??1?$SharedPtr@VCompositor@Ogre@@@Ogre@@UAE@XZ" PURGE="0" COMMENT="" />
    <EXPORT ORDINAL="812" NAME="??1?$SharedPtr@VFont@Ogre@@@Ogre@@UAE@XZ" PURGE="0" COMMENT="" />
    <EXPORT ORDINAL="813" NAME="??1?$SharedPtr@VGpuProgram@Ogre@@@Ogre@@UAE@XZ" PURGE="0" COMMENT="" />
    <EXPORT ORDINAL="814" NAME="??1?$SharedPtr@VHardwareIndexBuffer@Ogre@@@Ogre@@UAE@XZ" PURGE="0" COMMENT="" />
    <EXPORT ORDINAL="815" NAME="??1?$SharedPtr@VHardwarePixelBuffer@Ogre@@@Ogre@@UAE@XZ" PURGE="0" COMMENT="" />
    <EXPORT ORDINAL="816" NAME="??1?$SharedPtr@VHardwareVertexBuffer@Ogre@@@Ogre@@UAE@XZ" PURGE="0" COMMENT="" />
    <EXPORT ORDINAL="817" NAME="??1?$SharedPtr@VHighLevelGpuProgram@Ogre@@@Ogre@@UAE@XZ" PURGE="0" COMMENT="" />
    <EXPORT ORDINAL="818" NAME="??1?$SharedPtr@VMaterial@Ogre@@@Ogre@@UAE@XZ" PURGE="0" COMMENT="" />
    <EXPORT ORDINAL="819" NAME="??1?$SharedPtr@VMesh@Ogre@@@Ogre@@UAE@XZ" PURGE="0" COMMENT="" />
    <EXPORT ORDINAL="820" NAME="??1?$SharedPtr@VPatchMesh@Ogre@@@Ogre@@UAE@XZ" PURGE="0" COMMENT="" />
    <EXPORT ORDINAL="821" NAME="??1?$SharedPtr@VSkeleton@Ogre@@@Ogre@@UAE@XZ" PURGE="0" COMMENT="" />
    <EXPORT ORDINAL="822" NAME="??1?$SharedPtr@VTexture@Ogre@@@Ogre@@UAE@XZ" PURGE="0" COMMENT="" />
    <EXPORT ORDINAL="823" NAME="??1?$Singleton@VArchiveManager@Ogre@@@Ogre@@QAE@XZ" PURGE="0" COMMENT="" />
    <EXPORT ORDINAL="824" NAME="??1?$Singleton@VCompositorManager@Ogre@@@Ogre@@QAE@XZ" PURGE="0" COMMENT="" />
    <EXPORT ORDINAL="825" NAME="??1?$Singleton@VControllerManager@Ogre@@@Ogre@@QAE@XZ" PURGE="0" COMMENT="" />
    <EXPORT ORDINAL="826" NAME="??1?$Singleton@VDynLibManager@Ogre@@@Ogre@@QAE@XZ" PURGE="0" COMMENT="" />
    <EXPORT ORDINAL="827" NAME="??1?$Singleton@VEventProcessor@Ogre@@@Ogre@@QAE@XZ" PURGE="0" COMMENT="" />
    <EXPORT ORDINAL="828" NAME="??1?$Singleton@VExternalTextureSourceManager@Ogre@@@Ogre@@QAE@XZ" PURGE="0" COMMENT="" />
    <EXPORT ORDINAL="829" NAME="??1?$Singleton@VFontManager@Ogre@@@Ogre@@QAE@XZ" PURGE="0" COMMENT="" />
    <EXPORT ORDINAL="830" NAME="??1?$Singleton@VGpuProgramManager@Ogre@@@Ogre@@QAE@XZ" PURGE="0" COMMENT="" />
    <EXPORT ORDINAL="831" NAME="??1?$Singleton@VHardwareBufferManager@Ogre@@@Ogre@@QAE@XZ" PURGE="0" COMMENT="" />
    <EXPORT ORDINAL="832" NAME="??1?$Singleton@VHighLevelGpuProgramManager@Ogre@@@Ogre@@QAE@XZ" PURGE="0" COMMENT="" />
    <EXPORT ORDINAL="833" NAME="??1?$Singleton@VLogManager@Ogre@@@Ogre@@QAE@XZ" PURGE="0" COMMENT="" />
    <EXPORT ORDINAL="834" NAME="??1?$Singleton@VMaterialManager@Ogre@@@Ogre@@QAE@XZ" PURGE="0" COMMENT="" />
    <EXPORT ORDINAL="835" NAME="??1?$Singleton@VMeshManager@Ogre@@@Ogre@@QAE@XZ" PURGE="0" COMMENT="" />
    <EXPORT ORDINAL="836" NAME="??1?$Singleton@VOverlayManager@Ogre@@@Ogre@@QAE@XZ" PURGE="0" COMMENT="" />
    <EXPORT ORDINAL="837" NAME="??1?$Singleton@VParticleSystemManager@Ogre@@@Ogre@@QAE@XZ" PURGE="0" COMMENT="" />
    <EXPORT ORDINAL="838" NAME="??1?$Singleton@VPlatformManager@Ogre@@@Ogre@@QAE@XZ" PURGE="0" COMMENT="" />
    <EXPORT ORDINAL="839" NAME="??1?$Singleton@VProfiler@Ogre@@@Ogre@@QAE@XZ" PURGE="0" COMMENT="" />
    <EXPORT ORDINAL="840" NAME="??1?$Singleton@VResourceBackgroundQueue@Ogre@@@Ogre@@QAE@XZ" PURGE="0" COMMENT="" />
    <EXPORT ORDINAL="841" NAME="??1?$Singleton@VResourceGroupManager@Ogre@@@Ogre@@QAE@XZ" PURGE="0" COMMENT="" />
    <EXPORT ORDINAL="842" NAME="??1?$Singleton@VRoot@Ogre@@@Ogre@@QAE@XZ" PURGE="0" COMMENT="" />
    <EXPORT ORDINAL="843" NAME="??1?$Singleton@VSceneManagerEnumerator@Ogre@@@Ogre@@QAE@XZ" PURGE="0" COMMENT="" />
    <EXPORT ORDINAL="844" NAME="??1?$Singleton@VSkeletonManager@Ogre@@@Ogre@@QAE@XZ" PURGE="0" COMMENT="" />
    <EXPORT ORDINAL="845" NAME="??1?$Singleton@VTextureManager@Ogre@@@Ogre@@QAE@XZ" PURGE="0" COMMENT="" />
    <EXPORT ORDINAL="846" NAME="??1AnimableObject@Ogre@@UAE@XZ" PURGE="0" COMMENT="" />
    <EXPORT ORDINAL="847" NAME="??1AnimableValue@Ogre@@UAE@XZ" PURGE="0" COMMENT="" />
    <EXPORT ORDINAL="848" NAME="??1Animation@Ogre@@UAE@XZ" PURGE="0" COMMENT="" />
    <EXPORT ORDINAL="849" NAME="??1AnimationControllerFunction@Ogre@@UAE@XZ" PURGE="0" COMMENT="" />
    <EXPORT ORDINAL="850" NAME="??1AnimationState@Ogre@@UAE@XZ" PURGE="-1" COMMENT="" />
    <EXPORT ORDINAL="851" NAME="??1AnimationStateControllerValue@Ogre@@UAE@XZ" PURGE="0" COMMENT="" />
    <EXPORT ORDINAL="852" NAME="??1AnimationStateSet@Ogre@@QAE@XZ" PURGE="0" COMMENT="" />
    <EXPORT ORDINAL="853" NAME="??1AnimationTrack@Ogre@@UAE@XZ" PURGE="0" COMMENT="" />
    <EXPORT ORDINAL="854" NAME="??1Archive@Ogre@@UAE@XZ" PURGE="0" COMMENT="" />
    <EXPORT ORDINAL="855" NAME="??1ArchiveFactory@Ogre@@UAE@XZ" PURGE="0" COMMENT="" />
    <EXPORT ORDINAL="856" NAME="??1ArchiveManager@Ogre@@UAE@XZ" PURGE="0" COMMENT="" />
    <EXPORT ORDINAL="857" NAME="??1AutoParamDataSource@Ogre@@QAE@XZ" PURGE="0" COMMENT="" />
    <EXPORT ORDINAL="858" NAME="??1AutomaticGuardUnguard@Ogre@@QAE@XZ" PURGE="0" COMMENT="" />
    <EXPORT ORDINAL="859" NAME="??1AxisAlignedBoxSceneQuery@Ogre@@UAE@XZ" PURGE="0" COMMENT="" />
    <EXPORT ORDINAL="860" NAME="??1Billboard@Ogre@@QAE@XZ" PURGE="0" COMMENT="" />
    <EXPORT ORDINAL="861" NAME="??1BillboardChain@Ogre@@UAE@XZ" PURGE="0" COMMENT="" />
    <EXPORT ORDINAL="862" NAME="??1BillboardChainFactory@Ogre@@UAE@XZ" PURGE="0" COMMENT="" />
    <EXPORT ORDINAL="863" NAME="??1BillboardParticleRenderer@Ogre@@UAE@XZ" PURGE="0" COMMENT="" />
    <EXPORT ORDINAL="864" NAME="??1BillboardParticleRendererFactory@Ogre@@UAE@XZ" PURGE="0" COMMENT="" />
    <EXPORT ORDINAL="865" NAME="??1BillboardSet@Ogre@@UAE@XZ" PURGE="0" COMMENT="" />
    <EXPORT ORDINAL="866" NAME="??1BillboardSetFactory@Ogre@@UAE@XZ" PURGE="0" COMMENT="" />
    <EXPORT ORDINAL="867" NAME="??1Bone@Ogre@@UAE@XZ" PURGE="0" COMMENT="" />
    <EXPORT ORDINAL="868" NAME="??1BorderPanelOverlayElement@Ogre@@UAE@XZ" PURGE="0" COMMENT="" />
    <EXPORT ORDINAL="869" NAME="??1BorderRenderable@Ogre@@UAE@XZ" PURGE="0" COMMENT="" />
    <EXPORT ORDINAL="870" NAME="??1Camera@Ogre@@UAE@XZ" PURGE="0" COMMENT="" />
    <EXPORT ORDINAL="871" NAME="??1CmdAngle@EmitterCommands@Ogre@@UAE@XZ" PURGE="0" COMMENT="" />
    <EXPORT ORDINAL="872" NAME="??1CmdCaption@OverlayElementCommands@Ogre@@UAE@XZ" PURGE="0" COMMENT="" />
    <EXPORT ORDINAL="873" NAME="??1CmdColour@EmitterCommands@Ogre@@UAE@XZ" PURGE="0" COMMENT="" />
    <EXPORT ORDINAL="874" NAME="??1CmdColourRangeEnd@EmitterCommands@Ogre@@UAE@XZ" PURGE="0" COMMENT="" />
    <EXPORT ORDINAL="875" NAME="??1CmdColourRangeStart@EmitterCommands@Ogre@@UAE@XZ" PURGE="0" COMMENT="" />
    <EXPORT ORDINAL="876" NAME="??1CmdDirection@EmitterCommands@Ogre@@UAE@XZ" PURGE="0" COMMENT="" />
    <EXPORT ORDINAL="877" NAME="??1CmdDuration@EmitterCommands@Ogre@@UAE@XZ" PURGE="0" COMMENT="" />
    <EXPORT ORDINAL="878" NAME="??1CmdEmissionRate@EmitterCommands@Ogre@@UAE@XZ" PURGE="0" COMMENT="" />
    <EXPORT ORDINAL="879" NAME="??1CmdHeight@OverlayElementCommands@Ogre@@UAE@XZ" PURGE="0" COMMENT="" />
    <EXPORT ORDINAL="880" NAME="??1CmdHorizontalAlign@OverlayElementCommands@Ogre@@UAE@XZ" PURGE="0" COMMENT="" />
    <EXPORT ORDINAL="881" NAME="??1CmdLeft@OverlayElementCommands@Ogre@@UAE@XZ" PURGE="0" COMMENT="" />
    <EXPORT ORDINAL="882" NAME="??1CmdMaterial@OverlayElementCommands@Ogre@@UAE@XZ" PURGE="0" COMMENT="" />
    <EXPORT ORDINAL="883" NAME="??1CmdMaxDuration@EmitterCommands@Ogre@@UAE@XZ" PURGE="0" COMMENT="" />
    <EXPORT ORDINAL="884" NAME="??1CmdMaxRepeatDelay@EmitterCommands@Ogre@@UAE@XZ" PURGE="0" COMMENT="" />
    <EXPORT ORDINAL="885" NAME="??1CmdMaxTTL@EmitterCommands@Ogre@@UAE@XZ" PURGE="0" COMMENT="" />
    <EXPORT ORDINAL="886" NAME="??1CmdMaxVelocity@EmitterCommands@Ogre@@UAE@XZ" PURGE="0" COMMENT="" />
    <EXPORT ORDINAL="887" NAME="??1CmdMetricsMode@OverlayElementCommands@Ogre@@UAE@XZ" PURGE="0" COMMENT="" />
    <EXPORT ORDINAL="888" NAME="??1CmdMinDuration@EmitterCommands@Ogre@@UAE@XZ" PURGE="0" COMMENT="" />
    <EXPORT ORDINAL="889" NAME="??1CmdMinRepeatDelay@EmitterCommands@Ogre@@UAE@XZ" PURGE="0" COMMENT="" />
    <EXPORT ORDINAL="890" NAME="??1CmdMinTTL@EmitterCommands@Ogre@@UAE@XZ" PURGE="0" COMMENT="" />
    <EXPORT ORDINAL="891" NAME="??1CmdMinVelocity@EmitterCommands@Ogre@@UAE@XZ" PURGE="0" COMMENT="" />
    <EXPORT ORDINAL="892" NAME="??1CmdPosition@EmitterCommands@Ogre@@UAE@XZ" PURGE="0" COMMENT="" />
    <EXPORT ORDINAL="893" NAME="??1CmdRepeatDelay@EmitterCommands@Ogre@@UAE@XZ" PURGE="0" COMMENT="" />
    <EXPORT ORDINAL="894" NAME="??1CmdResolution@Font@Ogre@@UAE@XZ" PURGE="0" COMMENT="" />
    <EXPORT ORDINAL="895" NAME="??1CmdSize@Font@Ogre@@UAE@XZ" PURGE="0" COMMENT="" />
    <EXPORT ORDINAL="896" NAME="??1CmdSkeletal@GpuProgram@Ogre@@UAE@XZ" PURGE="0" COMMENT="" />
    <EXPORT ORDINAL="897" NAME="??1CmdSource@Font@Ogre@@UAE@XZ" PURGE="0" COMMENT="" />
    <EXPORT ORDINAL="898" NAME="??1CmdSyntax@GpuProgram@Ogre@@UAE@XZ" PURGE="0" COMMENT="" />
    <EXPORT ORDINAL="899" NAME="??1CmdTTL@EmitterCommands@Ogre@@UAE@XZ" PURGE="0" COMMENT="" />
    <EXPORT ORDINAL="900" NAME="??1CmdTop@OverlayElementCommands@Ogre@@UAE@XZ" PURGE="0" COMMENT="" />
    <EXPORT ORDINAL="901" NAME="??1CmdType@Font@Ogre@@UAE@XZ" PURGE="0" COMMENT="" />
    <EXPORT ORDINAL="902" NAME="??1CmdType@GpuProgram@Ogre@@UAE@XZ" PURGE="0" COMMENT="" />
    <EXPORT ORDINAL="903" NAME="??1CmdVelocity@EmitterCommands@Ogre@@UAE@XZ" PURGE="0" COMMENT="" />
    <EXPORT ORDINAL="904" NAME="??1CmdVerticalAlign@OverlayElementCommands@Ogre@@UAE@XZ" PURGE="0" COMMENT="" />
    <EXPORT ORDINAL="905" NAME="??1CmdVisible@OverlayElementCommands@Ogre@@UAE@XZ" PURGE="0" COMMENT="" />
    <EXPORT ORDINAL="906" NAME="??1CmdWidth@OverlayElementCommands@Ogre@@UAE@XZ" PURGE="0" COMMENT="" />
    <EXPORT ORDINAL="907" NAME="??1Codec@Ogre@@UAE@XZ" PURGE="0" COMMENT="" />
    <EXPORT ORDINAL="908" NAME="??1Compiler2Pass@Ogre@@UAE@XZ" PURGE="0" COMMENT="" />
    <EXPORT ORDINAL="909" NAME="??1CompositionPass@Ogre@@QAE@XZ" PURGE="0" COMMENT="" />
    <EXPORT ORDINAL="910" NAME="??1CompositionTargetPass@Ogre@@QAE@XZ" PURGE="0" COMMENT="" />
    <EXPORT ORDINAL="911" NAME="??1CompositionTechnique@Ogre@@UAE@XZ" PURGE="0" COMMENT="" />
    <EXPORT ORDINAL="912" NAME="??1Compositor@Ogre@@UAE@XZ" PURGE="0" COMMENT="" />
    <EXPORT ORDINAL="913" NAME="??1CompositorChain@Ogre@@UAE@XZ" PURGE="0" COMMENT="" />
    <EXPORT ORDINAL="914" NAME="??1CompositorInstance@Ogre@@UAE@XZ" PURGE="0" COMMENT="" />
    <EXPORT ORDINAL="915" NAME="??1CompositorManager@Ogre@@UAE@XZ" PURGE="0" COMMENT="" />
    <EXPORT ORDINAL="916" NAME="??1CompositorPtr@Ogre@@UAE@XZ" PURGE="0" COMMENT="" />
    <EXPORT ORDINAL="917" NAME="??1CompositorScriptCompiler@Ogre@@UAE@XZ" PURGE="0" COMMENT="" />
    <EXPORT ORDINAL="918" NAME="??1CompositorSerializer@Ogre@@UAE@XZ" PURGE="0" COMMENT="" />
    <EXPORT ORDINAL="919" NAME="??1ConfigDialog@Ogre@@UAE@XZ" PURGE="0" COMMENT="" />
    <EXPORT ORDINAL="920" NAME="??1ConfigFile@Ogre@@UAE@XZ" PURGE="0" COMMENT="" />
    <EXPORT ORDINAL="921" NAME="??1ControllerManager@Ogre@@QAE@XZ" PURGE="0" COMMENT="" />
    <EXPORT ORDINAL="922" NAME="??1ConvexBody@Ogre@@QAE@XZ" PURGE="0" COMMENT="" />
    <EXPORT ORDINAL="923" NAME="??1Cursor@Ogre@@UAE@XZ" PURGE="0" COMMENT="" />
    <EXPORT ORDINAL="924" NAME="??1DataStream@Ogre@@UAE@XZ" PURGE="-1" COMMENT="" />
    <EXPORT ORDINAL="925" NAME="??1DefaultAxisAlignedBoxSceneQuery@Ogre@@UAE@XZ" PURGE="0" COMMENT="" />
    <EXPORT ORDINAL="926" NAME="??1DefaultHardwareBufferManager@Ogre@@UAE@XZ" PURGE="0" COMMENT="" />
    <EXPORT ORDINAL="927" NAME="??1DefaultHardwareIndexBuffer@Ogre@@UAE@XZ" PURGE="0" COMMENT="" />
    <EXPORT ORDINAL="928" NAME="??1DefaultHardwareVertexBuffer@Ogre@@UAE@XZ" PURGE="0" COMMENT="" />
    <EXPORT ORDINAL="929" NAME="??1DefaultIntersectionSceneQuery@Ogre@@UAE@XZ" PURGE="0" COMMENT="" />
    <EXPORT ORDINAL="930" NAME="??1DefaultPlaneBoundedVolumeListSceneQuery@Ogre@@UAE@XZ" PURGE="0" COMMENT="" />
    <EXPORT ORDINAL="931" NAME="??1DefaultRaySceneQuery@Ogre@@UAE@XZ" PURGE="0" COMMENT="" />
    <EXPORT ORDINAL="932" NAME="??1DefaultSceneManager@Ogre@@UAE@XZ" PURGE="0" COMMENT="" />
    <EXPORT ORDINAL="933" NAME="??1DefaultSceneManagerFactory@Ogre@@UAE@XZ" PURGE="0" COMMENT="" />
    <EXPORT ORDINAL="934" NAME="??1DefaultShadowCameraSetup@Ogre@@UAE@XZ" PURGE="0" COMMENT="" />
    <EXPORT ORDINAL="935" NAME="??1DefaultSphereSceneQuery@Ogre@@UAE@XZ" PURGE="0" COMMENT="" />
    <EXPORT ORDINAL="936" NAME="??1DynLib@Ogre@@QAE@XZ" PURGE="-1" COMMENT="" />
    <EXPORT ORDINAL="937" NAME="??1DynLibManager@Ogre@@UAE@XZ" PURGE="0" COMMENT="" />
    <EXPORT ORDINAL="938" NAME="??1EdgeData@Ogre@@QAE@XZ" PURGE="0" COMMENT="" />
    <EXPORT ORDINAL="939" NAME="??1EdgeListBuilder@Ogre@@UAE@XZ" PURGE="0" COMMENT="" />
    <EXPORT ORDINAL="940" NAME="??1Entity@Ogre@@UAE@XZ" PURGE="0" COMMENT="" />
    <EXPORT ORDINAL="941" NAME="??1EntityFactory@Ogre@@UAE@XZ" PURGE="0" COMMENT="" />
    <EXPORT ORDINAL="942" NAME="??1EntityShadowRenderable@Entity@Ogre@@UAE@XZ" PURGE="0" COMMENT="" />
    <EXPORT ORDINAL="943" NAME="??1ErrorDialog@Ogre@@UAE@XZ" PURGE="0" COMMENT="" />
    <EXPORT ORDINAL="944" NAME="??1EventDispatcher@Ogre@@UAE@XZ" PURGE="0" COMMENT="" />
    <EXPORT ORDINAL="945" NAME="??1EventListener@Ogre@@UAE@XZ" PURGE="0" COMMENT="" />
    <EXPORT ORDINAL="946" NAME="??1EventProcessor@Ogre@@UAE@XZ" PURGE="0" COMMENT="" />
    <EXPORT ORDINAL="947" NAME="??1EventQueue@Ogre@@UAE@XZ" PURGE="0" COMMENT="" />
    <EXPORT ORDINAL="948" NAME="??1EventTarget@Ogre@@UAE@XZ" PURGE="0" COMMENT="" />
    <EXPORT ORDINAL="949" NAME="??1Exception@Ogre@@UAE@XZ" PURGE="0" COMMENT="" />
    <EXPORT ORDINAL="950" NAME="??1ExternalTextureSource@Ogre@@UAE@XZ" PURGE="0" COMMENT="" />
    <EXPORT ORDINAL="951" NAME="??1ExternalTextureSourceManager@Ogre@@QAE@XZ" PURGE="0" COMMENT="" />
    <EXPORT ORDINAL="952" NAME="??1FileHandleDataStream@Ogre@@UAE@XZ" PURGE="-1" COMMENT="" />
    <EXPORT ORDINAL="953" NAME="??1FileStreamDataStream@Ogre@@UAE@XZ" PURGE="0" COMMENT="" />
    <EXPORT ORDINAL="954" NAME="??1FileSystemArchive@Ogre@@UAE@XZ" PURGE="0" COMMENT="" />
    <EXPORT ORDINAL="955" NAME="??1FloatGpuParameterControllerValue@Ogre@@UAE@XZ" PURGE="0" COMMENT="" />
    <EXPORT ORDINAL="956" NAME="??1Font@Ogre@@UAE@XZ" PURGE="0" COMMENT="" />
    <EXPORT ORDINAL="957" NAME="??1FontManager@Ogre@@UAE@XZ" PURGE="0" COMMENT="" />
    <EXPORT ORDINAL="958" NAME="??1FontPtr@Ogre@@UAE@XZ" PURGE="0" COMMENT="" />
    <EXPORT ORDINAL="959" NAME="??1FrameListener@Ogre@@UAE@XZ" PURGE="0" COMMENT="" />
    <EXPORT ORDINAL="960" NAME="??1FrameTimeControllerValue@Ogre@@UAE@XZ" PURGE="0" COMMENT="" />
    <EXPORT ORDINAL="961" NAME="??1Frustum@Ogre@@UAE@XZ" PURGE="0" COMMENT="" />
    <EXPORT ORDINAL="962" NAME="??1GeometryBucket@StaticGeometry@Ogre@@UAE@XZ" PURGE="0" COMMENT="" />
    <EXPORT ORDINAL="963" NAME="??1GpuProgram@Ogre@@UAE@XZ" PURGE="0" COMMENT="" />
    <EXPORT ORDINAL="964" NAME="??1GpuProgramManager@Ogre@@UAE@XZ" PURGE="0" COMMENT="" />
    <EXPORT ORDINAL="965" NAME="??1GpuProgramParameters@Ogre@@QAE@XZ" PURGE="0" COMMENT="" />
    <EXPORT ORDINAL="966" NAME="??1GpuProgramPtr@Ogre@@UAE@XZ" PURGE="0" COMMENT="" />
    <EXPORT ORDINAL="967" NAME="??1GpuProgramUsage@Ogre@@QAE@XZ" PURGE="0" COMMENT="" />
    <EXPORT ORDINAL="968" NAME="??1HardwareBuffer@Ogre@@UAE@XZ" PURGE="0" COMMENT="" />
    <EXPORT ORDINAL="969" NAME="??1HardwareBufferLicensee@Ogre@@UAE@XZ" PURGE="0" COMMENT="" />
    <EXPORT ORDINAL="970" NAME="??1HardwareBufferManager@Ogre@@UAE@XZ" PURGE="0" COMMENT="" />
    <EXPORT ORDINAL="971" NAME="??1HardwareIndexBuffer@Ogre@@UAE@XZ" PURGE="0" COMMENT="" />
    <EXPORT ORDINAL="972" NAME="??1HardwareIndexBufferSharedPtr@Ogre@@UAE@XZ" PURGE="0" COMMENT="" />
    <EXPORT ORDINAL="973" NAME="??1HardwareOcclusionQuery@Ogre@@UAE@XZ" PURGE="0" COMMENT="" />
    <EXPORT ORDINAL="974" NAME="??1HardwarePixelBuffer@Ogre@@UAE@XZ" PURGE="0" COMMENT="" />
    <EXPORT ORDINAL="975" NAME="??1HardwarePixelBufferSharedPtr@Ogre@@UAE@XZ" PURGE="0" COMMENT="" />
    <EXPORT ORDINAL="976" NAME="??1HardwareVertexBuffer@Ogre@@UAE@XZ" PURGE="0" COMMENT="" />
    <EXPORT ORDINAL="977" NAME="??1HardwareVertexBufferSharedPtr@Ogre@@UAE@XZ" PURGE="0" COMMENT="" />
    <EXPORT ORDINAL="978" NAME="??1HighLevelGpuProgram@Ogre@@UAE@XZ" PURGE="0" COMMENT="" />
    <EXPORT ORDINAL="979" NAME="??1HighLevelGpuProgramFactory@Ogre@@UAE@XZ" PURGE="0" COMMENT="" />
    <EXPORT ORDINAL="980" NAME="??1HighLevelGpuProgramManager@Ogre@@UAE@XZ" PURGE="0" COMMENT="" />
    <EXPORT ORDINAL="981" NAME="??1HighLevelGpuProgramPtr@Ogre@@UAE@XZ" PURGE="0" COMMENT="" />
    <EXPORT ORDINAL="982" NAME="??1ILImageCodec@Ogre@@UAE@XZ" PURGE="0" COMMENT="" />
    <EXPORT ORDINAL="983" NAME="??1Image@Ogre@@UAE@XZ" PURGE="0" COMMENT="" />
    <EXPORT ORDINAL="984" NAME="??1ImageCodec@Ogre@@UAE@XZ" PURGE="0" COMMENT="" />
    <EXPORT ORDINAL="985" NAME="??1IndexData@Ogre@@QAE@XZ" PURGE="0" COMMENT="" />
    <EXPORT ORDINAL="986" NAME="??1InputReader@Ogre@@UAE@XZ" PURGE="0" COMMENT="" />
    <EXPORT ORDINAL="987" NAME="??1IntersectionSceneQuery@Ogre@@UAE@XZ" PURGE="0" COMMENT="" />
    <EXPORT ORDINAL="988" NAME="??1IntersectionSceneQueryListener@Ogre@@UAE@XZ" PURGE="0" COMMENT="" />
    <EXPORT ORDINAL="989" NAME="??1IntersectionSceneQueryResult@Ogre@@QAE@XZ" PURGE="0" COMMENT="" />
    <EXPORT ORDINAL="990" NAME="??1KeyFrame@Ogre@@UAE@XZ" PURGE="0" COMMENT="" />
    <EXPORT ORDINAL="991" NAME="??1KeyListener@Ogre@@UAE@XZ" PURGE="0" COMMENT="" />
    <EXPORT ORDINAL="992" NAME="??1KeyTarget@Ogre@@UAE@XZ" PURGE="0" COMMENT="" />
    <EXPORT ORDINAL="993" NAME="??1LODBucket@StaticGeometry@Ogre@@UAE@XZ" PURGE="0" COMMENT="" />
    <EXPORT ORDINAL="994" NAME="??1Light@Ogre@@UAE@XZ" PURGE="0" COMMENT="" />
    <EXPORT ORDINAL="995" NAME="??1LightFactory@Ogre@@UAE@XZ" PURGE="0" COMMENT="" />
    <EXPORT ORDINAL="996" NAME="??1Listener@CompositorInstance@Ogre@@UAE@XZ" PURGE="0" COMMENT="" />
    <EXPORT ORDINAL="997" NAME="??1Listener@MovableObject@Ogre@@UAE@XZ" PURGE="0" COMMENT="" />
    <EXPORT ORDINAL="998" NAME="??1Listener@Node@Ogre@@UAE@XZ" PURGE="0" COMMENT="" />
    <EXPORT ORDINAL="999" NAME="??1Listener@RenderSystem@Ogre@@UAE@XZ" PURGE="0" COMMENT="" />
    <EXPORT ORDINAL="1000" NAME="??1Log@Ogre@@QAE@XZ" PURGE="0" COMMENT="" />
    <EXPORT ORDINAL="1001" NAME="??1LogListener@Ogre@@UAE@XZ" PURGE="0" COMMENT="" />
    <EXPORT ORDINAL="1002" NAME="??1LogManager@Ogre@@QAE@XZ" PURGE="0" COMMENT="" />
    <EXPORT ORDINAL="1003" NAME="??1ManualObject@Ogre@@UAE@XZ" PURGE="0" COMMENT="" />
    <EXPORT ORDINAL="1004" NAME="??1ManualObjectFactory@Ogre@@UAE@XZ" PURGE="0" COMMENT="" />
    <EXPORT ORDINAL="1005" NAME="??1ManualObjectSection@ManualObject@Ogre@@UAE@XZ" PURGE="0" COMMENT="" />
    <EXPORT ORDINAL="1006" NAME="??1ManualObjectSectionShadowRenderable@ManualObject@Ogre@@UAE@XZ" PURGE="0" COMMENT="" />
    <EXPORT ORDINAL="1007" NAME="??1ManualResourceLoader@Ogre@@UAE@XZ" PURGE="0" COMMENT="" />
    <EXPORT ORDINAL="1008" NAME="??1Material@Ogre@@UAE@XZ" PURGE="0" COMMENT="" />
    <EXPORT ORDINAL="1009" NAME="??1MaterialBucket@StaticGeometry@Ogre@@UAE@XZ" PURGE="0" COMMENT="" />
    <EXPORT ORDINAL="1010" NAME="??1MaterialManager@Ogre@@UAE@XZ" PURGE="0" COMMENT="" />
    <EXPORT ORDINAL="1011" NAME="??1MaterialPtr@Ogre@@UAE@XZ" PURGE="0" COMMENT="" />
    <EXPORT ORDINAL="1012" NAME="??1MaterialScriptCompiler@Ogre@@UAE@XZ" PURGE="0" COMMENT="" />
    <EXPORT ORDINAL="1013" NAME="??1MaterialSerializer@Ogre@@UAE@XZ" PURGE="0" COMMENT="" />
    <EXPORT ORDINAL="1014" NAME="??1Math@Ogre@@QAE@XZ" PURGE="0" COMMENT="" />
    <EXPORT ORDINAL="1015" NAME="??1MemoryDataStream@Ogre@@UAE@XZ" PURGE="-1" COMMENT="" />
    <EXPORT ORDINAL="1016" NAME="??1MemoryManager@Ogre@@QAE@XZ" PURGE="0" COMMENT="" />
    <EXPORT ORDINAL="1017" NAME="??1Mesh@Ogre@@UAE@XZ" PURGE="0" COMMENT="" />
    <EXPORT ORDINAL="1018" NAME="??1MeshManager@Ogre@@UAE@XZ" PURGE="0" COMMENT="" />
    <EXPORT ORDINAL="1019" NAME="??1MeshPtr@Ogre@@UAE@XZ" PURGE="0" COMMENT="" />
    <EXPORT ORDINAL="1020" NAME="??1MeshSerializer@Ogre@@UAE@XZ" PURGE="0" COMMENT="" />
    <EXPORT ORDINAL="1021" NAME="??1MouseListener@Ogre@@UAE@XZ" PURGE="0" COMMENT="" />
    <EXPORT ORDINAL="1022" NAME="??1MouseMotionListener@Ogre@@UAE@XZ" PURGE="0" COMMENT="" />
    <EXPORT ORDINAL="1023" NAME="??1MouseMotionTarget@Ogre@@UAE@XZ" PURGE="0" COMMENT="" />
    <EXPORT ORDINAL="1024" NAME="??1MouseTarget@Ogre@@UAE@XZ" PURGE="0" COMMENT="" />
    <EXPORT ORDINAL="1025" NAME="??1MovableObject@Ogre@@UAE@XZ" PURGE="0" COMMENT="" />
    <EXPORT ORDINAL="1026" NAME="??1MovableObjectFactory@Ogre@@UAE@XZ" PURGE="0" COMMENT="" />
    <EXPORT ORDINAL="1027" NAME="??1MovablePlane@Ogre@@UAE@XZ" PURGE="0" COMMENT="" />
    <EXPORT ORDINAL="1028" NAME="??1MultiRenderTarget@Ogre@@UAE@XZ" PURGE="0" COMMENT="" />
    <EXPORT ORDINAL="1029" NAME="??1Node@Ogre@@UAE@XZ" PURGE="0" COMMENT="" />
    <EXPORT ORDINAL="1030" NAME="??1NodeAnimationTrack@Ogre@@UAE@XZ" PURGE="0" COMMENT="" />
    <EXPORT ORDINAL="1031" NAME="??1NumericAnimationTrack@Ogre@@UAE@XZ" PURGE="0" COMMENT="" />
    <EXPORT ORDINAL="1032" NAME="??1NumericKeyFrame@Ogre@@UAE@XZ" PURGE="0" COMMENT="" />
    <EXPORT ORDINAL="1033" NAME="??1OptimisedUtil@Ogre@@UAE@XZ" PURGE="0" COMMENT="" />
    <EXPORT ORDINAL="1034" NAME="??1Overlay@Ogre@@UAE@XZ" PURGE="0" COMMENT="" />
    <EXPORT ORDINAL="1035" NAME="??1OverlayContainer@Ogre@@UAE@XZ" PURGE="0" COMMENT="" />
    <EXPORT ORDINAL="1036" NAME="??1OverlayElement@Ogre@@UAE@XZ" PURGE="0" COMMENT="" />
    <EXPORT ORDINAL="1037" NAME="??1OverlayManager@Ogre@@UAE@XZ" PURGE="0" COMMENT="" />
    <EXPORT ORDINAL="1038" NAME="??1PanelOverlayElement@Ogre@@UAE@XZ" PURGE="0" COMMENT="" />
    <EXPORT ORDINAL="1039" NAME="??1ParamCommand@Ogre@@UAE@XZ" PURGE="0" COMMENT="" />
    <EXPORT ORDINAL="1040" NAME="??1ParamDictionary@Ogre@@QAE@XZ" PURGE="0" COMMENT="" />
    <EXPORT ORDINAL="1041" NAME="??1ParameterDef@Ogre@@QAE@XZ" PURGE="0" COMMENT="" />
    <EXPORT ORDINAL="1042" NAME="??1ParticleAffector@Ogre@@UAE@XZ" PURGE="0" COMMENT="" />
    <EXPORT ORDINAL="1043" NAME="??1ParticleAffectorFactory@Ogre@@UAE@XZ" PURGE="0" COMMENT="" />
    <EXPORT ORDINAL="1044" NAME="??1ParticleEmitter@Ogre@@UAE@XZ" PURGE="0" COMMENT="" />
    <EXPORT ORDINAL="1045" NAME="??1ParticleEmitterFactory@Ogre@@UAE@XZ" PURGE="0" COMMENT="" />
    <EXPORT ORDINAL="1046" NAME="??1ParticleSystem@Ogre@@UAE@XZ" PURGE="0" COMMENT="" />
    <EXPORT ORDINAL="1047" NAME="??1ParticleSystemFactory@Ogre@@UAE@XZ" PURGE="0" COMMENT="" />
    <EXPORT ORDINAL="1048" NAME="??1ParticleSystemManager@Ogre@@UAE@XZ" PURGE="0" COMMENT="" />
    <EXPORT ORDINAL="1049" NAME="??1ParticleSystemRenderer@Ogre@@UAE@XZ" PURGE="0" COMMENT="" />
    <EXPORT ORDINAL="1050" NAME="??1ParticleSystemRendererFactory@Ogre@@UAE@XZ" PURGE="0" COMMENT="" />
    <EXPORT ORDINAL="1051" NAME="??1ParticleVisualData@Ogre@@UAE@XZ" PURGE="0" COMMENT="" />
    <EXPORT ORDINAL="1052" NAME="??1Pass@Ogre@@QAE@XZ" PURGE="-1" COMMENT="" />
    <EXPORT ORDINAL="1053" NAME="??1PassthroughControllerFunction@Ogre@@UAE@XZ" PURGE="0" COMMENT="" />
    <EXPORT ORDINAL="1054" NAME="??1PatchMesh@Ogre@@UAE@XZ" PURGE="0" COMMENT="" />
    <EXPORT ORDINAL="1055" NAME="??1PatchMeshPtr@Ogre@@UAE@XZ" PURGE="0" COMMENT="" />
    <EXPORT ORDINAL="1056" NAME="??1PatchSurface@Ogre@@QAE@XZ" PURGE="0" COMMENT="" />
    <EXPORT ORDINAL="1057" NAME="??1PlaneBoundedVolume@Ogre@@QAE@XZ" PURGE="0" COMMENT="" />
    <EXPORT ORDINAL="1058" NAME="??1PlaneBoundedVolumeListSceneQuery@Ogre@@UAE@XZ" PURGE="0" COMMENT="" />
    <EXPORT ORDINAL="1059" NAME="??1PlaneOptimalShadowCameraSetup@Ogre@@UAE@XZ" PURGE="0" COMMENT="" />
    <EXPORT ORDINAL="1060" NAME="??1PlatformManager@Ogre@@QAE@XZ" PURGE="0" COMMENT="" />
    <EXPORT ORDINAL="1061" NAME="??1Polygon@Ogre@@QAE@XZ" PURGE="0" COMMENT="" />
    <EXPORT ORDINAL="1062" NAME="??1Pose@Ogre@@UAE@XZ" PURGE="0" COMMENT="" />
    <EXPORT ORDINAL="1063" NAME="??1PositionTarget@Ogre@@UAE@XZ" PURGE="0" COMMENT="" />
    <EXPORT ORDINAL="1064" NAME="??1Profile@Ogre@@QAE@XZ" PURGE="0" COMMENT="" />
    <EXPORT ORDINAL="1065" NAME="??1Profiler@Ogre@@QAE@XZ" PURGE="0" COMMENT="" />
    <EXPORT ORDINAL="1066" NAME="??1ProgressiveMesh@Ogre@@UAE@XZ" PURGE="0" COMMENT="" />
    <EXPORT ORDINAL="1067" NAME="??1QueuedRenderableCollection@Ogre@@QAE@XZ" PURGE="0" COMMENT="" />
    <EXPORT ORDINAL="1068" NAME="??1QueuedRenderableVisitor@Ogre@@UAE@XZ" PURGE="0" COMMENT="" />
    <EXPORT ORDINAL="1069" NAME="??1RaySceneQuery@Ogre@@UAE@XZ" PURGE="0" COMMENT="" />
    <EXPORT ORDINAL="1070" NAME="??1RaySceneQueryListener@Ogre@@UAE@XZ" PURGE="0" COMMENT="" />
    <EXPORT ORDINAL="1071" NAME="??1Rectangle2D@Ogre@@UAE@XZ" PURGE="0" COMMENT="" />
    <EXPORT ORDINAL="1072" NAME="??1Region@StaticGeometry@Ogre@@UAE@XZ" PURGE="0" COMMENT="" />
    <EXPORT ORDINAL="1073" NAME="??1RegionSceneQuery@Ogre@@UAE@XZ" PURGE="0" COMMENT="" />
    <EXPORT ORDINAL="1074" NAME="??1RegionShadowRenderable@Region@StaticGeometry@Ogre@@UAE@XZ" PURGE="0" COMMENT="" />
    <EXPORT ORDINAL="1075" NAME="??1RenderPriorityGroup@Ogre@@QAE@XZ" PURGE="0" COMMENT="" />
    <EXPORT ORDINAL="1076" NAME="??1RenderQueue@Ogre@@UAE@XZ" PURGE="0" COMMENT="" />
    <EXPORT ORDINAL="1077" NAME="??1RenderQueueGroup@Ogre@@QAE@XZ" PURGE="0" COMMENT="" />
    <EXPORT ORDINAL="1078" NAME="??1RenderQueueInvocation@Ogre@@UAE@XZ" PURGE="-1" COMMENT="" />
    <EXPORT ORDINAL="1079" NAME="??1RenderQueueInvocationSequence@Ogre@@UAE@XZ" PURGE="0" COMMENT="" />
    <EXPORT ORDINAL="1080" NAME="??1RenderQueueListener@Ogre@@UAE@XZ" PURGE="0" COMMENT="" />
    <EXPORT ORDINAL="1081" NAME="??1RenderSystem@Ogre@@UAE@XZ" PURGE="0" COMMENT="" />
    <EXPORT ORDINAL="1082" NAME="??1RenderSystemCapabilities@Ogre@@QAE@XZ" PURGE="0" COMMENT="" />
    <EXPORT ORDINAL="1083" NAME="??1RenderTarget@Ogre@@UAE@XZ" PURGE="0" COMMENT="" />
    <EXPORT ORDINAL="1084" NAME="??1RenderTargetListener@Ogre@@UAE@XZ" PURGE="0" COMMENT="" />
    <EXPORT ORDINAL="1085" NAME="??1RenderTexture@Ogre@@UAE@XZ" PURGE="0" COMMENT="" />
    <EXPORT ORDINAL="1086" NAME="??1RenderWindow@Ogre@@UAE@XZ" PURGE="0" COMMENT="" />
    <EXPORT ORDINAL="1087" NAME="??1Renderable@Ogre@@UAE@XZ" PURGE="0" COMMENT="" />
    <EXPORT ORDINAL="1088" NAME="??1RenderableListener@RenderQueue@Ogre@@UAE@XZ" PURGE="0" COMMENT="" />
    <EXPORT ORDINAL="1089" NAME="??1Resource@Ogre@@UAE@XZ" PURGE="0" COMMENT="" />
    <EXPORT ORDINAL="1090" NAME="??1ResourceBackgroundQueue@Ogre@@UAE@XZ" PURGE="0" COMMENT="" />
    <EXPORT ORDINAL="1091" NAME="??1ResourceGroupListener@Ogre@@UAE@XZ" PURGE="0" COMMENT="" />
    <EXPORT ORDINAL="1092" NAME="??1ResourceGroupManager@Ogre@@UAE@XZ" PURGE="0" COMMENT="" />
    <EXPORT ORDINAL="1093" NAME="??1ResourceManager@Ogre@@UAE@XZ" PURGE="0" COMMENT="" />
    <EXPORT ORDINAL="1094" NAME="??1RibbonTrail@Ogre@@UAE@XZ" PURGE="0" COMMENT="" />
    <EXPORT ORDINAL="1095" NAME="??1RibbonTrailFactory@Ogre@@UAE@XZ" PURGE="0" COMMENT="" />
    <EXPORT ORDINAL="1096" NAME="??1Root@Ogre@@QAE@XZ" PURGE="0" COMMENT="" />
    <EXPORT ORDINAL="1097" NAME="??1RotationalSpline@Ogre@@QAE@XZ" PURGE="0" COMMENT="" />
    <EXPORT ORDINAL="1098" NAME="??1ScaleControllerFunction@Ogre@@UAE@XZ" PURGE="0" COMMENT="" />
    <EXPORT ORDINAL="1099" NAME="??1SceneManager@Ogre@@UAE@XZ" PURGE="0" COMMENT="" />
    <EXPORT ORDINAL="1100" NAME="??1SceneManagerEnumerator@Ogre@@QAE@XZ" PURGE="0" COMMENT="" />
    <EXPORT ORDINAL="1101" NAME="??1SceneManagerFactory@Ogre@@UAE@XZ" PURGE="0" COMMENT="" />
    <EXPORT ORDINAL="1102" NAME="??1SceneMgrQueuedRenderableVisitor@SceneManager@Ogre@@UAE@XZ" PURGE="0" COMMENT="" />
    <EXPORT ORDINAL="1103" NAME="??1SceneNode@Ogre@@UAE@XZ" PURGE="0" COMMENT="" />
    <EXPORT ORDINAL="1104" NAME="??1SceneQuery@Ogre@@UAE@XZ" PURGE="0" COMMENT="" />
    <EXPORT ORDINAL="1105" NAME="??1SceneQueryListener@Ogre@@UAE@XZ" PURGE="0" COMMENT="" />
    <EXPORT ORDINAL="1106" NAME="??1SceneQueryResult@Ogre@@QAE@XZ" PURGE="0" COMMENT="" />
    <EXPORT ORDINAL="1107" NAME="??1ScriptLoader@Ogre@@UAE@XZ" PURGE="0" COMMENT="" />
    <EXPORT ORDINAL="1108" NAME="??1Serializer@Ogre@@UAE@XZ" PURGE="-1" COMMENT="" />
    <EXPORT ORDINAL="1109" NAME="??1ShadowCameraSetup@Ogre@@UAE@XZ" PURGE="0" COMMENT="" />
    <EXPORT ORDINAL="1110" NAME="??1ShadowCaster@Ogre@@UAE@XZ" PURGE="0" COMMENT="" />
    <EXPORT ORDINAL="1111" NAME="??1ShadowCasterSceneQueryListener@SceneManager@Ogre@@UAE@XZ" PURGE="0" COMMENT="" />
    <EXPORT ORDINAL="1112" NAME="??1ShadowListener@Ogre@@UAE@XZ" PURGE="0" COMMENT="" />
    <EXPORT ORDINAL="1113" NAME="??1ShadowRenderable@Ogre@@UAE@XZ" PURGE="0" COMMENT="" />
    <EXPORT ORDINAL="1114" NAME="??1SimpleRenderable@Ogre@@UAE@XZ" PURGE="0" COMMENT="" />
    <EXPORT ORDINAL="1115" NAME="??1SimpleSpline@Ogre@@QAE@XZ" PURGE="0" COMMENT="" />
    <EXPORT ORDINAL="1116" NAME="??1Skeleton@Ogre@@UAE@XZ" PURGE="0" COMMENT="" />
    <EXPORT ORDINAL="1117" NAME="??1SkeletonInstance@Ogre@@UAE@XZ" PURGE="0" COMMENT="" />
    <EXPORT ORDINAL="1118" NAME="??1SkeletonManager@Ogre@@UAE@XZ" PURGE="0" COMMENT="" />
    <EXPORT ORDINAL="1119" NAME="??1SkeletonPtr@Ogre@@UAE@XZ" PURGE="0" COMMENT="" />
    <EXPORT ORDINAL="1120" NAME="??1SkeletonSerializer@Ogre@@UAE@XZ" PURGE="-1" COMMENT="" />
    <EXPORT ORDINAL="1121" NAME="??1SphereSceneQuery@Ogre@@UAE@XZ" PURGE="0" COMMENT="" />
    <EXPORT ORDINAL="1122" NAME="??1StaticGeometry@Ogre@@UAE@XZ" PURGE="0" COMMENT="" />
    <EXPORT ORDINAL="1123" NAME="??1StringInterface@Ogre@@UAE@XZ" PURGE="0" COMMENT="" />
    <EXPORT ORDINAL="1124" NAME="??1SubEntity@Ogre@@MAE@XZ" PURGE="0" COMMENT="" />
    <EXPORT ORDINAL="1125" NAME="??1SubMesh@Ogre@@QAE@XZ" PURGE="0" COMMENT="" />
    <EXPORT ORDINAL="1126" NAME="??1TagPoint@Ogre@@UAE@XZ" PURGE="0" COMMENT="" />
    <EXPORT ORDINAL="1127" NAME="??1Technique@Ogre@@QAE@XZ" PURGE="0" COMMENT="" />
    <EXPORT ORDINAL="1128" NAME="??1TempBlendedBufferInfo@Ogre@@UAE@XZ" PURGE="0" COMMENT="" />
    <EXPORT ORDINAL="1129" NAME="??1TexCoordModifierControllerValue@Ogre@@UAE@XZ" PURGE="0" COMMENT="" />
    <EXPORT ORDINAL="1130" NAME="??1TextAreaOverlayElement@Ogre@@UAE@XZ" PURGE="0" COMMENT="" />
    <EXPORT ORDINAL="1131" NAME="??1Texture@Ogre@@UAE@XZ" PURGE="0" COMMENT="" />
    <EXPORT ORDINAL="1132" NAME="??1TextureFrameControllerValue@Ogre@@UAE@XZ" PURGE="0" COMMENT="" />
    <EXPORT ORDINAL="1133" NAME="??1TextureManager@Ogre@@UAE@XZ" PURGE="0" COMMENT="" />
    <EXPORT ORDINAL="1134" NAME="??1TexturePtr@Ogre@@UAE@XZ" PURGE="0" COMMENT="" />
    <EXPORT ORDINAL="1135" NAME="??1TextureUnitState@Ogre@@QAE@XZ" PURGE="0" COMMENT="" />
    <EXPORT ORDINAL="1136" NAME="??1Timer@Ogre@@UAE@XZ" PURGE="0" COMMENT="" />
    <EXPORT ORDINAL="1137" NAME="??1TransformKeyFrame@Ogre@@UAE@XZ" PURGE="0" COMMENT="" />
    <EXPORT ORDINAL="1138" NAME="??1UserDefinedObject@Ogre@@UAE@XZ" PURGE="0" COMMENT="" />
    <EXPORT ORDINAL="1139" NAME="??1VertexAnimationTrack@Ogre@@UAE@XZ" PURGE="0" COMMENT="" />
    <EXPORT ORDINAL="1140" NAME="??1VertexBufferBinding@Ogre@@UAE@XZ" PURGE="0" COMMENT="" />
    <EXPORT ORDINAL="1141" NAME="??1VertexCacheProfiler@Ogre@@QAE@XZ" PURGE="0" COMMENT="" />
    <EXPORT ORDINAL="1142" NAME="??1VertexData@Ogre@@QAE@XZ" PURGE="0" COMMENT="" />
    <EXPORT ORDINAL="1143" NAME="??1VertexDeclaration@Ogre@@UAE@XZ" PURGE="0" COMMENT="" />
    <EXPORT ORDINAL="1144" NAME="??1VertexMorphKeyFrame@Ogre@@UAE@XZ" PURGE="0" COMMENT="" />
    <EXPORT ORDINAL="1145" NAME="??1VertexPoseKeyFrame@Ogre@@UAE@XZ" PURGE="0" COMMENT="" />
    <EXPORT ORDINAL="1146" NAME="??1Viewport@Ogre@@UAE@XZ" PURGE="0" COMMENT="" />
    <EXPORT ORDINAL="1147" NAME="??1WaveformControllerFunction@Ogre@@UAE@XZ" PURGE="0" COMMENT="" />
    <EXPORT ORDINAL="1148" NAME="??1WireBoundingBox@Ogre@@UAE@XZ" PURGE="0" COMMENT="" />
    <EXPORT ORDINAL="1149" NAME="??1ZipArchive@Ogre@@UAE@XZ" PURGE="0" COMMENT="" />
    <EXPORT ORDINAL="1150" NAME="??4?$ControllerFunction@M@Ogre@@QAEAAV01@ABV01@@Z" PURGE="4" COMMENT="" />
    <EXPORT ORDINAL="1151" NAME="??4?$ControllerValue@M@Ogre@@QAEAAV01@ABV01@@Z" PURGE="4" COMMENT="" />
    <EXPORT ORDINAL="1152" NAME="??4?$FactoryObj@VArchive@Ogre@@@Ogre@@QAEAAV01@ABV01@@Z" PURGE="4" COMMENT="" />
    <EXPORT ORDINAL="1153" NAME="??4?$FactoryObj@VParticleSystemRenderer@Ogre@@@Ogre@@QAEAAV01@ABV01@@Z" PURGE="4" COMMENT="" />
    <EXPORT ORDINAL="1154" NAME="??4?$SharedPtr@VCompositor@Ogre@@@Ogre@@QAEAAV01@ABV01@@Z" PURGE="4" COMMENT="" />
    <EXPORT ORDINAL="1155" NAME="??4?$SharedPtr@VFont@Ogre@@@Ogre@@QAEAAV01@ABV01@@Z" PURGE="4" COMMENT="" />
    <EXPORT ORDINAL="1156" NAME="??4?$SharedPtr@VGpuProgram@Ogre@@@Ogre@@QAEAAV01@ABV01@@Z" PURGE="4" COMMENT="" />
    <EXPORT ORDINAL="1157" NAME="??4?$SharedPtr@VHardwareIndexBuffer@Ogre@@@Ogre@@QAEAAV01@ABV01@@Z" PURGE="4" COMMENT="" />
    <EXPORT ORDINAL="1158" NAME="??4?$SharedPtr@VHardwarePixelBuffer@Ogre@@@Ogre@@QAEAAV01@ABV01@@Z" PURGE="4" COMMENT="" />
    <EXPORT ORDINAL="1159" NAME="??4?$SharedPtr@VHardwareVertexBuffer@Ogre@@@Ogre@@QAEAAV01@ABV01@@Z" PURGE="4" COMMENT="" />
    <EXPORT ORDINAL="1160" NAME="??4?$SharedPtr@VHighLevelGpuProgram@Ogre@@@Ogre@@QAEAAV01@ABV01@@Z" PURGE="4" COMMENT="" />
    <EXPORT ORDINAL="1161" NAME="??4?$SharedPtr@VMaterial@Ogre@@@Ogre@@QAEAAV01@ABV01@@Z" PURGE="4" COMMENT="" />
    <EXPORT ORDINAL="1162" NAME="??4?$SharedPtr@VMesh@Ogre@@@Ogre@@QAEAAV01@ABV01@@Z" PURGE="4" COMMENT="" />
    <EXPORT ORDINAL="1163" NAME="??4?$SharedPtr@VPatchMesh@Ogre@@@Ogre@@QAEAAV01@ABV01@@Z" PURGE="4" COMMENT="" />
    <EXPORT ORDINAL="1164" NAME="??4?$SharedPtr@VSkeleton@Ogre@@@Ogre@@QAEAAV01@ABV01@@Z" PURGE="4" COMMENT="" />
    <EXPORT ORDINAL="1165" NAME="??4?$SharedPtr@VTexture@Ogre@@@Ogre@@QAEAAV01@ABV01@@Z" PURGE="4" COMMENT="" />
    <EXPORT ORDINAL="1166" NAME="??4?$Singleton@VArchiveManager@Ogre@@@Ogre@@QAEAAV01@ABV01@@Z" PURGE="4" COMMENT="" />
    <EXPORT ORDINAL="1167" NAME="??4?$Singleton@VCompositorManager@Ogre@@@Ogre@@QAEAAV01@ABV01@@Z" PURGE="4" COMMENT="" />
    <EXPORT ORDINAL="1168" NAME="??4?$Singleton@VControllerManager@Ogre@@@Ogre@@QAEAAV01@ABV01@@Z" PURGE="4" COMMENT="" />
    <EXPORT ORDINAL="1169" NAME="??4?$Singleton@VDynLibManager@Ogre@@@Ogre@@QAEAAV01@ABV01@@Z" PURGE="4" COMMENT="" />
    <EXPORT ORDINAL="1170" NAME="??4?$Singleton@VEventProcessor@Ogre@@@Ogre@@QAEAAV01@ABV01@@Z" PURGE="4" COMMENT="" />
    <EXPORT ORDINAL="1171" NAME="??4?$Singleton@VExternalTextureSourceManager@Ogre@@@Ogre@@QAEAAV01@ABV01@@Z" PURGE="4" COMMENT="" />
    <EXPORT ORDINAL="1172" NAME="??4?$Singleton@VFontManager@Ogre@@@Ogre@@QAEAAV01@ABV01@@Z" PURGE="4" COMMENT="" />
    <EXPORT ORDINAL="1173" NAME="??4?$Singleton@VGpuProgramManager@Ogre@@@Ogre@@QAEAAV01@ABV01@@Z" PURGE="4" COMMENT="" />
    <EXPORT ORDINAL="1174" NAME="??4?$Singleton@VHardwareBufferManager@Ogre@@@Ogre@@QAEAAV01@ABV01@@Z" PURGE="4" COMMENT="" />
    <EXPORT ORDINAL="1175" NAME="??4?$Singleton@VHighLevelGpuProgramManager@Ogre@@@Ogre@@QAEAAV01@ABV01@@Z" PURGE="4" COMMENT="" />
    <EXPORT ORDINAL="1176" NAME="??4?$Singleton@VLogManager@Ogre@@@Ogre@@QAEAAV01@ABV01@@Z" PURGE="4" COMMENT="" />
    <EXPORT ORDINAL="1177" NAME="??4?$Singleton@VMaterialManager@Ogre@@@Ogre@@QAEAAV01@ABV01@@Z" PURGE="4" COMMENT="" />
    <EXPORT ORDINAL="1178" NAME="??4?$Singleton@VMeshManager@Ogre@@@Ogre@@QAEAAV01@ABV01@@Z" PURGE="4" COMMENT="" />
    <EXPORT ORDINAL="1179" NAME="??4?$Singleton@VOverlayManager@Ogre@@@Ogre@@QAEAAV01@ABV01@@Z" PURGE="4" COMMENT="" />
    <EXPORT ORDINAL="1180" NAME="??4?$Singleton@VParticleSystemManager@Ogre@@@Ogre@@QAEAAV01@ABV01@@Z" PURGE="4" COMMENT="" />
    <EXPORT ORDINAL="1181" NAME="??4?$Singleton@VPlatformManager@Ogre@@@Ogre@@QAEAAV01@ABV01@@Z" PURGE="4" COMMENT="" />
    <EXPORT ORDINAL="1182" NAME="??4?$Singleton@VProfiler@Ogre@@@Ogre@@QAEAAV01@ABV01@@Z" PURGE="4" COMMENT="" />
    <EXPORT ORDINAL="1183" NAME="??4?$Singleton@VResourceBackgroundQueue@Ogre@@@Ogre@@QAEAAV01@ABV01@@Z" PURGE="4" COMMENT="" />
    <EXPORT ORDINAL="1184" NAME="??4?$Singleton@VResourceGroupManager@Ogre@@@Ogre@@QAEAAV01@ABV01@@Z" PURGE="4" COMMENT="" />
    <EXPORT ORDINAL="1185" NAME="??4?$Singleton@VRoot@Ogre@@@Ogre@@QAEAAV01@ABV01@@Z" PURGE="4" COMMENT="" />
    <EXPORT ORDINAL="1186" NAME="??4?$Singleton@VSceneManagerEnumerator@Ogre@@@Ogre@@QAEAAV01@ABV01@@Z" PURGE="4" COMMENT="" />
    <EXPORT ORDINAL="1187" NAME="??4?$Singleton@VSkeletonManager@Ogre@@@Ogre@@QAEAAV01@ABV01@@Z" PURGE="4" COMMENT="" />
    <EXPORT ORDINAL="1188" NAME="??4?$Singleton@VTextureManager@Ogre@@@Ogre@@QAEAAV01@ABV01@@Z" PURGE="4" COMMENT="" />
    <EXPORT ORDINAL="1189" NAME="??4AlignedMemory@Ogre@@QAEAAV01@ABV01@@Z" PURGE="4" COMMENT="" />
    <EXPORT ORDINAL="1190" NAME="??4AnimableObject@Ogre@@QAEAAV01@ABV01@@Z" PURGE="4" COMMENT="" />
    <EXPORT ORDINAL="1191" NAME="??4AnimableValue@Ogre@@QAEAAV01@ABV01@@Z" PURGE="4" COMMENT="" />
    <EXPORT ORDINAL="1192" NAME="??4Animation@Ogre@@QAEAAV01@ABV01@@Z" PURGE="4" COMMENT="" />
    <EXPORT ORDINAL="1193" NAME="??4AnimationControllerFunction@Ogre@@QAEAAV01@ABV01@@Z" PURGE="4" COMMENT="" />
    <EXPORT ORDINAL="1194" NAME="??4AnimationState@Ogre@@QAEAAV01@ABV01@@Z" PURGE="4" COMMENT="" />
    <EXPORT ORDINAL="1195" NAME="??4AnimationStateControllerValue@Ogre@@QAEAAV01@ABV01@@Z" PURGE="4" COMMENT="" />
    <EXPORT ORDINAL="1196" NAME="??4AnimationStateSet@Ogre@@QAEAAV01@ABV01@@Z" PURGE="4" COMMENT="" />
    <EXPORT ORDINAL="1197" NAME="??4AnimationTrack@Ogre@@QAEAAV01@ABV01@@Z" PURGE="4" COMMENT="" />
    <EXPORT ORDINAL="1198" NAME="??4Archive@Ogre@@QAEAAV01@ABV01@@Z" PURGE="4" COMMENT="" />
    <EXPORT ORDINAL="1199" NAME="??4ArchiveFactory@Ogre@@QAEAAV01@ABV01@@Z" PURGE="4" COMMENT="" />
    <EXPORT ORDINAL="1200" NAME="??4ArchiveManager@Ogre@@QAEAAV01@ABV01@@Z" PURGE="4" COMMENT="" />
    <EXPORT ORDINAL="1201" NAME="??4AutoParamDataSource@Ogre@@QAEAAV01@ABV01@@Z" PURGE="4" COMMENT="" />
    <EXPORT ORDINAL="1202" NAME="??4AutomaticGuardUnguard@Ogre@@QAEAAV01@ABV01@@Z" PURGE="4" COMMENT="" />
    <EXPORT ORDINAL="1203" NAME="??4AxisAlignedBox@Ogre@@QAEAAV01@ABV01@@Z" PURGE="4" COMMENT="" />
    <EXPORT ORDINAL="1204" NAME="??4AxisAlignedBoxSceneQuery@Ogre@@QAEAAV01@ABV01@@Z" PURGE="4" COMMENT="" />
    <EXPORT ORDINAL="1205" NAME="??4Billboard@Ogre@@QAEAAV01@ABV01@@Z" PURGE="4" COMMENT="" />
    <EXPORT ORDINAL="1206" NAME="??4BillboardChain@Ogre@@QAEAAV01@ABV01@@Z" PURGE="4" COMMENT="" />
    <EXPORT ORDINAL="1207" NAME="??4BillboardChainFactory@Ogre@@QAEAAV01@ABV01@@Z" PURGE="4" COMMENT="" />
    <EXPORT ORDINAL="1208" NAME="??4BillboardParticleRenderer@Ogre@@QAEAAV01@ABV01@@Z" PURGE="4" COMMENT="" />
    <EXPORT ORDINAL="1209" NAME="??4BillboardParticleRendererFactory@Ogre@@QAEAAV01@ABV01@@Z" PURGE="4" COMMENT="" />
    <EXPORT ORDINAL="1210" NAME="??4BillboardSet@Ogre@@QAEAAV01@ABV01@@Z" PURGE="4" COMMENT="" />
    <EXPORT ORDINAL="1211" NAME="??4BillboardSetFactory@Ogre@@QAEAAV01@ABV01@@Z" PURGE="4" COMMENT="" />
    <EXPORT ORDINAL="1212" NAME="??4Bone@Ogre@@QAEAAV01@ABV01@@Z" PURGE="4" COMMENT="" />
    <EXPORT ORDINAL="1213" NAME="??4BorderPanelOverlayElement@Ogre@@QAEAAV01@ABV01@@Z" PURGE="4" COMMENT="" />
    <EXPORT ORDINAL="1214" NAME="??4BorderPanelOverlayElementFactory@Ogre@@QAEAAV01@ABV01@@Z" PURGE="4" COMMENT="" />
    <EXPORT ORDINAL="1215" NAME="??4BorderRenderable@Ogre@@QAEAAV01@ABV01@@Z" PURGE="4" COMMENT="" />
    <EXPORT ORDINAL="1216" NAME="??4CmdAngle@EmitterCommands@Ogre@@QAEAAV012@ABV012@@Z" PURGE="4" COMMENT="" />
    <EXPORT ORDINAL="1217" NAME="??4CmdCaption@OverlayElementCommands@Ogre@@QAEAAV012@ABV012@@Z" PURGE="4" COMMENT="" />
    <EXPORT ORDINAL="1218" NAME="??4CmdColour@EmitterCommands@Ogre@@QAEAAV012@ABV012@@Z" PURGE="4" COMMENT="" />
    <EXPORT ORDINAL="1219" NAME="??4CmdColourRangeEnd@EmitterCommands@Ogre@@QAEAAV012@ABV012@@Z" PURGE="4" COMMENT="" />
    <EXPORT ORDINAL="1220" NAME="??4CmdColourRangeStart@EmitterCommands@Ogre@@QAEAAV012@ABV012@@Z" PURGE="4" COMMENT="" />
    <EXPORT ORDINAL="1221" NAME="??4CmdDirection@EmitterCommands@Ogre@@QAEAAV012@ABV012@@Z" PURGE="4" COMMENT="" />
    <EXPORT ORDINAL="1222" NAME="??4CmdDuration@EmitterCommands@Ogre@@QAEAAV012@ABV012@@Z" PURGE="4" COMMENT="" />
    <EXPORT ORDINAL="1223" NAME="??4CmdEmissionRate@EmitterCommands@Ogre@@QAEAAV012@ABV012@@Z" PURGE="4" COMMENT="" />
    <EXPORT ORDINAL="1224" NAME="??4CmdHeight@OverlayElementCommands@Ogre@@QAEAAV012@ABV012@@Z" PURGE="4" COMMENT="" />
    <EXPORT ORDINAL="1225" NAME="??4CmdHorizontalAlign@OverlayElementCommands@Ogre@@QAEAAV012@ABV012@@Z" PURGE="4" COMMENT="" />
    <EXPORT ORDINAL="1226" NAME="??4CmdLeft@OverlayElementCommands@Ogre@@QAEAAV012@ABV012@@Z" PURGE="4" COMMENT="" />
    <EXPORT ORDINAL="1227" NAME="??4CmdMaterial@OverlayElementCommands@Ogre@@QAEAAV012@ABV012@@Z" PURGE="4" COMMENT="" />
    <EXPORT ORDINAL="1228" NAME="??4CmdMaxDuration@EmitterCommands@Ogre@@QAEAAV012@ABV012@@Z" PURGE="4" COMMENT="" />
    <EXPORT ORDINAL="1229" NAME="??4CmdMaxRepeatDelay@EmitterCommands@Ogre@@QAEAAV012@ABV012@@Z" PURGE="4" COMMENT="" />
    <EXPORT ORDINAL="1230" NAME="??4CmdMaxTTL@EmitterCommands@Ogre@@QAEAAV012@ABV012@@Z" PURGE="4" COMMENT="" />
    <EXPORT ORDINAL="1231" NAME="??4CmdMaxVelocity@EmitterCommands@Ogre@@QAEAAV012@ABV012@@Z" PURGE="4" COMMENT="" />
    <EXPORT ORDINAL="1232" NAME="??4CmdMetricsMode@OverlayElementCommands@Ogre@@QAEAAV012@ABV012@@Z" PURGE="4" COMMENT="" />
    <EXPORT ORDINAL="1233" NAME="??4CmdMinDuration@EmitterCommands@Ogre@@QAEAAV012@ABV012@@Z" PURGE="4" COMMENT="" />
    <EXPORT ORDINAL="1234" NAME="??4CmdMinRepeatDelay@EmitterCommands@Ogre@@QAEAAV012@ABV012@@Z" PURGE="4" COMMENT="" />
    <EXPORT ORDINAL="1235" NAME="??4CmdMinTTL@EmitterCommands@Ogre@@QAEAAV012@ABV012@@Z" PURGE="4" COMMENT="" />
    <EXPORT ORDINAL="1236" NAME="??4CmdMinVelocity@EmitterCommands@Ogre@@QAEAAV012@ABV012@@Z" PURGE="4" COMMENT="" />
    <EXPORT ORDINAL="1237" NAME="??4CmdPosition@EmitterCommands@Ogre@@QAEAAV012@ABV012@@Z" PURGE="4" COMMENT="" />
    <EXPORT ORDINAL="1238" NAME="??4CmdRepeatDelay@EmitterCommands@Ogre@@QAEAAV012@ABV012@@Z" PURGE="4" COMMENT="" />
    <EXPORT ORDINAL="1239" NAME="??4CmdResolution@Font@Ogre@@QAEAAV012@ABV012@@Z" PURGE="4" COMMENT="" />
    <EXPORT ORDINAL="1240" NAME="??4CmdSize@Font@Ogre@@QAEAAV012@ABV012@@Z" PURGE="4" COMMENT="" />
    <EXPORT ORDINAL="1241" NAME="??4CmdSkeletal@GpuProgram@Ogre@@QAEAAV012@ABV012@@Z" PURGE="4" COMMENT="" />
    <EXPORT ORDINAL="1242" NAME="??4CmdSource@Font@Ogre@@QAEAAV012@ABV012@@Z" PURGE="4" COMMENT="" />
    <EXPORT ORDINAL="1243" NAME="??4CmdSyntax@GpuProgram@Ogre@@QAEAAV012@ABV012@@Z" PURGE="4" COMMENT="" />
    <EXPORT ORDINAL="1244" NAME="??4CmdTTL@EmitterCommands@Ogre@@QAEAAV012@ABV012@@Z" PURGE="4" COMMENT="" />
    <EXPORT ORDINAL="1245" NAME="??4CmdTop@OverlayElementCommands@Ogre@@QAEAAV012@ABV012@@Z" PURGE="4" COMMENT="" />
    <EXPORT ORDINAL="1246" NAME="??4CmdType@Font@Ogre@@QAEAAV012@ABV012@@Z" PURGE="4" COMMENT="" />
    <EXPORT ORDINAL="1247" NAME="??4CmdType@GpuProgram@Ogre@@QAEAAV012@ABV012@@Z" PURGE="4" COMMENT="" />
    <EXPORT ORDINAL="1248" NAME="??4CmdVelocity@EmitterCommands@Ogre@@QAEAAV012@ABV012@@Z" PURGE="4" COMMENT="" />
    <EXPORT ORDINAL="1249" NAME="??4CmdVerticalAlign@OverlayElementCommands@Ogre@@QAEAAV012@ABV012@@Z" PURGE="4" COMMENT="" />
    <EXPORT ORDINAL="1250" NAME="??4CmdVisible@OverlayElementCommands@Ogre@@QAEAAV012@ABV012@@Z" PURGE="4" COMMENT="" />
    <EXPORT ORDINAL="1251" NAME="??4CmdWidth@OverlayElementCommands@Ogre@@QAEAAV012@ABV012@@Z" PURGE="4" COMMENT="" />
    <EXPORT ORDINAL="1252" NAME="??4Codec@Ogre@@QAEAAV01@ABV01@@Z" PURGE="4" COMMENT="" />
    <EXPORT ORDINAL="1253" NAME="??4ColourValue@Ogre@@QAEAAV01@ABV01@@Z" PURGE="4" COMMENT="" />
    <EXPORT ORDINAL="1254" NAME="??4Compiler2Pass@Ogre@@QAEAAV01@ABV01@@Z" PURGE="4" COMMENT="" />
    <EXPORT ORDINAL="1255" NAME="??4CompositionPass@Ogre@@QAEAAV01@ABV01@@Z" PURGE="4" COMMENT="" />
    <EXPORT ORDINAL="1256" NAME="??4CompositionTargetPass@Ogre@@QAEAAV01@ABV01@@Z" PURGE="4" COMMENT="" />
    <EXPORT ORDINAL="1257" NAME="??4CompositionTechnique@Ogre@@QAEAAV01@ABV01@@Z" PURGE="4" COMMENT="" />
    <EXPORT ORDINAL="1258" NAME="??4Compositor@Ogre@@QAEAAV01@ABV01@@Z" PURGE="4" COMMENT="" />
    <EXPORT ORDINAL="1259" NAME="??4CompositorChain@Ogre@@QAEAAV01@ABV01@@Z" PURGE="4" COMMENT="" />
    <EXPORT ORDINAL="1260" NAME="??4CompositorInstance@Ogre@@QAEAAV01@ABV01@@Z" PURGE="4" COMMENT="" />
    <EXPORT ORDINAL="1261" NAME="??4CompositorManager@Ogre@@QAEAAV01@ABV01@@Z" PURGE="4" COMMENT="" />
    <EXPORT ORDINAL="1262" NAME="??4CompositorPtr@Ogre@@QAEAAV01@ABV01@@Z" PURGE="4" COMMENT="" />
    <EXPORT ORDINAL="1263" NAME="??4CompositorPtr@Ogre@@QAEAAV01@ABV?$SharedPtr@VResource@Ogre@@@1@@Z" PURGE="4" COMMENT="" />
    <EXPORT ORDINAL="1264" NAME="??4CompositorScriptCompiler@Ogre@@QAEAAV01@ABV01@@Z" PURGE="4" COMMENT="" />
    <EXPORT ORDINAL="1265" NAME="??4CompositorSerializer@Ogre@@QAEAAV01@ABV01@@Z" PURGE="4" COMMENT="" />
    <EXPORT ORDINAL="1266" NAME="??4ConfigDialog@Ogre@@QAEAAV01@ABV01@@Z" PURGE="4" COMMENT="" />
    <EXPORT ORDINAL="1267" NAME="??4ConfigFile@Ogre@@QAEAAV01@ABV01@@Z" PURGE="4" COMMENT="" />
    <EXPORT ORDINAL="1268" NAME="??4ControllerManager@Ogre@@QAEAAV01@ABV01@@Z" PURGE="4" COMMENT="" />
    <EXPORT ORDINAL="1269" NAME="??4ConvexBody@Ogre@@QAEAAV01@ABV01@@Z" PURGE="4" COMMENT="" />
    <EXPORT ORDINAL="1270" NAME="??4Cursor@Ogre@@QAEAAV01@ABV01@@Z" PURGE="4" COMMENT="" />
    <EXPORT ORDINAL="1271" NAME="??4DataStream@Ogre@@QAEAAV01@ABV01@@Z" PURGE="4" COMMENT="" />
    <EXPORT ORDINAL="1272" NAME="??4DefaultAxisAlignedBoxSceneQuery@Ogre@@QAEAAV01@ABV01@@Z" PURGE="4" COMMENT="" />
    <EXPORT ORDINAL="1273" NAME="??4DefaultHardwareBufferManager@Ogre@@QAEAAV01@ABV01@@Z" PURGE="4" COMMENT="" />
    <EXPORT ORDINAL="1274" NAME="??4DefaultHardwareIndexBuffer@Ogre@@QAEAAV01@ABV01@@Z" PURGE="4" COMMENT="" />
    <EXPORT ORDINAL="1275" NAME="??4DefaultHardwareVertexBuffer@Ogre@@QAEAAV01@ABV01@@Z" PURGE="4" COMMENT="" />
    <EXPORT ORDINAL="1276" NAME="??4DefaultIntersectionSceneQuery@Ogre@@QAEAAV01@ABV01@@Z" PURGE="4" COMMENT="" />
    <EXPORT ORDINAL="1277" NAME="??4DefaultPlaneBoundedVolumeListSceneQuery@Ogre@@QAEAAV01@ABV01@@Z" PURGE="4" COMMENT="" />
    <EXPORT ORDINAL="1278" NAME="??4DefaultRaySceneQuery@Ogre@@QAEAAV01@ABV01@@Z" PURGE="4" COMMENT="" />
    <EXPORT ORDINAL="1279" NAME="??4DefaultSceneManager@Ogre@@QAEAAV01@ABV01@@Z" PURGE="4" COMMENT="" />
    <EXPORT ORDINAL="1280" NAME="??4DefaultSceneManagerFactory@Ogre@@QAEAAV01@ABV01@@Z" PURGE="4" COMMENT="" />
    <EXPORT ORDINAL="1281" NAME="??4DefaultShadowCameraSetup@Ogre@@QAEAAV01@ABV01@@Z" PURGE="4" COMMENT="" />
    <EXPORT ORDINAL="1282" NAME="??4DefaultSphereSceneQuery@Ogre@@QAEAAV01@ABV01@@Z" PURGE="4" COMMENT="" />
    <EXPORT ORDINAL="1283" NAME="??4DynLib@Ogre@@QAEAAV01@ABV01@@Z" PURGE="4" COMMENT="" />
    <EXPORT ORDINAL="1284" NAME="??4DynLibManager@Ogre@@QAEAAV01@ABV01@@Z" PURGE="4" COMMENT="" />
    <EXPORT ORDINAL="1285" NAME="??4EdgeData@Ogre@@QAEAAV01@ABV01@@Z" PURGE="4" COMMENT="" />
    <EXPORT ORDINAL="1286" NAME="??4EdgeListBuilder@Ogre@@QAEAAV01@ABV01@@Z" PURGE="4" COMMENT="" />
    <EXPORT ORDINAL="1287" NAME="??4Element@BillboardChain@Ogre@@QAEAAV012@ABV012@@Z" PURGE="4" COMMENT="" />
    <EXPORT ORDINAL="1288" NAME="??4Entity@Ogre@@QAEAAV01@ABV01@@Z" PURGE="4" COMMENT="" />
    <EXPORT ORDINAL="1289" NAME="??4EntityFactory@Ogre@@QAEAAV01@ABV01@@Z" PURGE="4" COMMENT="" />
    <EXPORT ORDINAL="1290" NAME="??4EntityShadowRenderable@Entity@Ogre@@QAEAAV012@ABV012@@Z" PURGE="4" COMMENT="" />
    <EXPORT ORDINAL="1291" NAME="??4ErrorDialog@Ogre@@QAEAAV01@ABV01@@Z" PURGE="4" COMMENT="" />
    <EXPORT ORDINAL="1292" NAME="??4EventDispatcher@Ogre@@QAEAAV01@ABV01@@Z" PURGE="4" COMMENT="" />
    <EXPORT ORDINAL="1293" NAME="??4EventListener@Ogre@@QAEAAV01@ABV01@@Z" PURGE="4" COMMENT="" />
    <EXPORT ORDINAL="1294" NAME="??4EventProcessor@Ogre@@QAEAAV01@ABV01@@Z" PURGE="4" COMMENT="" />
    <EXPORT ORDINAL="1295" NAME="??4EventQueue@Ogre@@QAEAAV01@ABV01@@Z" PURGE="4" COMMENT="" />
    <EXPORT ORDINAL="1296" NAME="??4EventTarget@Ogre@@QAEAAV01@ABV01@@Z" PURGE="4" COMMENT="" />
    <EXPORT ORDINAL="1297" NAME="??4Exception@Ogre@@QAEAAV01@ABV01@@Z" PURGE="4" COMMENT="" />
    <EXPORT ORDINAL="1298" NAME="??4ExternalTextureSource@Ogre@@QAEAAV01@ABV01@@Z" PURGE="4" COMMENT="" />
    <EXPORT ORDINAL="1299" NAME="??4ExternalTextureSourceManager@Ogre@@QAEAAV01@ABV01@@Z" PURGE="4" COMMENT="" />
    <EXPORT ORDINAL="1300" NAME="??4FileHandleDataStream@Ogre@@QAEAAV01@ABV01@@Z" PURGE="4" COMMENT="" />
    <EXPORT ORDINAL="1301" NAME="??4FileStreamDataStream@Ogre@@QAEAAV01@ABV01@@Z" PURGE="4" COMMENT="" />
    <EXPORT ORDINAL="1302" NAME="??4FileSystemArchive@Ogre@@QAEAAV01@ABV01@@Z" PURGE="4" COMMENT="" />
    <EXPORT ORDINAL="1303" NAME="??4FloatGpuParameterControllerValue@Ogre@@QAEAAV01@ABV01@@Z" PURGE="4" COMMENT="" />
    <EXPORT ORDINAL="1304" NAME="??4Font@Ogre@@QAEAAV01@ABV01@@Z" PURGE="4" COMMENT="" />
    <EXPORT ORDINAL="1305" NAME="??4FontManager@Ogre@@QAEAAV01@ABV01@@Z" PURGE="4" COMMENT="" />
    <EXPORT ORDINAL="1306" NAME="??4FontPtr@Ogre@@QAEAAV01@ABV01@@Z" PURGE="4" COMMENT="" />
    <EXPORT ORDINAL="1307" NAME="??4FontPtr@Ogre@@QAEAAV01@ABV?$SharedPtr@VResource@Ogre@@@1@@Z" PURGE="4" COMMENT="" />
    <EXPORT ORDINAL="1308" NAME="??4FrameListener@Ogre@@QAEAAV01@ABV01@@Z" PURGE="4" COMMENT="" />
    <EXPORT ORDINAL="1309" NAME="??4FrameTimeControllerValue@Ogre@@QAEAAV01@ABV01@@Z" PURGE="4" COMMENT="" />
    <EXPORT ORDINAL="1310" NAME="??4GeometryBucket@StaticGeometry@Ogre@@QAEAAV012@ABV012@@Z" PURGE="4" COMMENT="" />
    <EXPORT ORDINAL="1311" NAME="??4GpuProgram@Ogre@@QAEAAV01@ABV01@@Z" PURGE="4" COMMENT="" />
    <EXPORT ORDINAL="1312" NAME="??4GpuProgramManager@Ogre@@QAEAAV01@ABV01@@Z" PURGE="4" COMMENT="" />
    <EXPORT ORDINAL="1313" NAME="??4GpuProgramParameters@Ogre@@QAEAAV01@ABV01@@Z" PURGE="4" COMMENT="" />
    <EXPORT ORDINAL="1314" NAME="??4GpuProgramPtr@Ogre@@QAEAAV01@ABV01@@Z" PURGE="4" COMMENT="" />
    <EXPORT ORDINAL="1315" NAME="??4GpuProgramPtr@Ogre@@QAEAAV01@ABV?$SharedPtr@VResource@Ogre@@@1@@Z" PURGE="4" COMMENT="" />
    <EXPORT ORDINAL="1316" NAME="??4GpuProgramPtr@Ogre@@QAEAAV01@ABVHighLevelGpuProgramPtr@1@@Z" PURGE="4" COMMENT="" />
    <EXPORT ORDINAL="1317" NAME="??4GpuProgramUsage@Ogre@@QAEAAV01@ABV01@@Z" PURGE="4" COMMENT="" />
    <EXPORT ORDINAL="1318" NAME="??4HardwareBuffer@Ogre@@QAEAAV01@ABV01@@Z" PURGE="4" COMMENT="" />
    <EXPORT ORDINAL="1319" NAME="??4HardwareBufferLicensee@Ogre@@QAEAAV01@ABV01@@Z" PURGE="4" COMMENT="" />
    <EXPORT ORDINAL="1320" NAME="??4HardwareBufferManager@Ogre@@QAEAAV01@ABV01@@Z" PURGE="4" COMMENT="" />
    <EXPORT ORDINAL="1321" NAME="??4HardwareIndexBuffer@Ogre@@QAEAAV01@ABV01@@Z" PURGE="4" COMMENT="" />
    <EXPORT ORDINAL="1322" NAME="??4HardwareIndexBufferSharedPtr@Ogre@@QAEAAV01@ABV01@@Z" PURGE="4" COMMENT="" />
    <EXPORT ORDINAL="1323" NAME="??4HardwareOcclusionQuery@Ogre@@QAEAAV01@ABV01@@Z" PURGE="4" COMMENT="" />
    <EXPORT ORDINAL="1324" NAME="??4HardwarePixelBuffer@Ogre@@QAEAAV01@ABV01@@Z" PURGE="4" COMMENT="" />
    <EXPORT ORDINAL="1325" NAME="??4HardwarePixelBufferSharedPtr@Ogre@@QAEAAV01@ABV01@@Z" PURGE="4" COMMENT="" />
    <EXPORT ORDINAL="1326" NAME="??4HardwareVertexBuffer@Ogre@@QAEAAV01@ABV01@@Z" PURGE="4" COMMENT="" />
    <EXPORT ORDINAL="1327" NAME="??4HardwareVertexBufferSharedPtr@Ogre@@QAEAAV01@ABV01@@Z" PURGE="4" COMMENT="" />
    <EXPORT ORDINAL="1328" NAME="??4HighLevelGpuProgram@Ogre@@QAEAAV01@ABV01@@Z" PURGE="4" COMMENT="" />
    <EXPORT ORDINAL="1329" NAME="??4HighLevelGpuProgramFactory@Ogre@@QAEAAV01@ABV01@@Z" PURGE="4" COMMENT="" />
    <EXPORT ORDINAL="1330" NAME="??4HighLevelGpuProgramManager@Ogre@@QAEAAV01@ABV01@@Z" PURGE="4" COMMENT="" />
    <EXPORT ORDINAL="1331" NAME="??4HighLevelGpuProgramPtr@Ogre@@QAEAAV01@ABV01@@Z" PURGE="4" COMMENT="" />
    <EXPORT ORDINAL="1332" NAME="??4HighLevelGpuProgramPtr@Ogre@@QAEAAV01@ABV?$SharedPtr@VResource@Ogre@@@1@@Z" PURGE="4" COMMENT="" />
    <EXPORT ORDINAL="1333" NAME="??4HighLevelGpuProgramPtr@Ogre@@QAEAAV01@ABVGpuProgramPtr@1@@Z" PURGE="4" COMMENT="" />
    <EXPORT ORDINAL="1334" NAME="??4ILImageCodec@Ogre@@QAEAAV01@ABV01@@Z" PURGE="4" COMMENT="" />
    <EXPORT ORDINAL="1335" NAME="??4Image@Ogre@@QAEAAV01@ABV01@@Z" PURGE="4" COMMENT="" />
    <EXPORT ORDINAL="1336" NAME="??4ImageCodec@Ogre@@QAEAAV01@ABV01@@Z" PURGE="4" COMMENT="" />
    <EXPORT ORDINAL="1337" NAME="??4InputEvent@Ogre@@QAEAAV01@ABV01@@Z" PURGE="4" COMMENT="" />
    <EXPORT ORDINAL="1338" NAME="??4InputReader@Ogre@@QAEAAV01@ABV01@@Z" PURGE="4" COMMENT="" />
    <EXPORT ORDINAL="1339" NAME="??4IntersectionSceneQuery@Ogre@@QAEAAV01@ABV01@@Z" PURGE="4" COMMENT="" />
    <EXPORT ORDINAL="1340" NAME="??4IntersectionSceneQueryListener@Ogre@@QAEAAV01@ABV01@@Z" PURGE="4" COMMENT="" />
    <EXPORT ORDINAL="1341" NAME="??4IntersectionSceneQueryResult@Ogre@@QAEAAU01@ABU01@@Z" PURGE="4" COMMENT="" />
    <EXPORT ORDINAL="1342" NAME="??4KeyEvent@Ogre@@QAEAAV01@ABV01@@Z" PURGE="4" COMMENT="" />
    <EXPORT ORDINAL="1343" NAME="??4KeyFrame@Ogre@@QAEAAV01@ABV01@@Z" PURGE="4" COMMENT="" />
    <EXPORT ORDINAL="1344" NAME="??4KeyListener@Ogre@@QAEAAV01@ABV01@@Z" PURGE="4" COMMENT="" />
    <EXPORT ORDINAL="1345" NAME="??4KeyTarget@Ogre@@QAEAAV01@ABV01@@Z" PURGE="4" COMMENT="" />
    <EXPORT ORDINAL="1346" NAME="??4LODBucket@StaticGeometry@Ogre@@QAEAAV012@ABV012@@Z" PURGE="4" COMMENT="" />
    <EXPORT ORDINAL="1347" NAME="??4LayerBlendModeEx@Ogre@@QAEAAV01@ABV01@@Z" PURGE="4" COMMENT="" />
    <EXPORT ORDINAL="1348" NAME="??4Light@Ogre@@QAEAAV01@ABV01@@Z" PURGE="4" COMMENT="" />
    <EXPORT ORDINAL="1349" NAME="??4LightFactory@Ogre@@QAEAAV01@ABV01@@Z" PURGE="4" COMMENT="" />
    <EXPORT ORDINAL="1350" NAME="??4LightInfo@SceneManager@Ogre@@QAEAAU012@ABU012@@Z" PURGE="4" COMMENT="" />
    <EXPORT ORDINAL="1351" NAME="??4Listener@CompositorInstance@Ogre@@QAEAAV012@ABV012@@Z" PURGE="4" COMMENT="" />
    <EXPORT ORDINAL="1352" NAME="??4Listener@MovableObject@Ogre@@QAEAAV012@ABV012@@Z" PURGE="4" COMMENT="" />
    <EXPORT ORDINAL="1353" NAME="??4Listener@Node@Ogre@@QAEAAV012@ABV012@@Z" PURGE="4" COMMENT="" />
    <EXPORT ORDINAL="1354" NAME="??4Listener@RenderSystem@Ogre@@QAEAAV012@ABV012@@Z" PURGE="4" COMMENT="" />
    <EXPORT ORDINAL="1355" NAME="??4LogListener@Ogre@@QAEAAV01@ABV01@@Z" PURGE="4" COMMENT="" />
    <EXPORT ORDINAL="1356" NAME="??4LogManager@Ogre@@QAEAAV01@ABV01@@Z" PURGE="4" COMMENT="" />
    <EXPORT ORDINAL="1357" NAME="??4ManualObject@Ogre@@QAEAAV01@ABV01@@Z" PURGE="4" COMMENT="" />
    <EXPORT ORDINAL="1358" NAME="??4ManualObjectFactory@Ogre@@QAEAAV01@ABV01@@Z" PURGE="4" COMMENT="" />
    <EXPORT ORDINAL="1359" NAME="??4ManualObjectSection@ManualObject@Ogre@@QAEAAV012@ABV012@@Z" PURGE="4" COMMENT="" />
    <EXPORT ORDINAL="1360" NAME="??4ManualObjectSectionShadowRenderable@ManualObject@Ogre@@QAEAAV012@ABV012@@Z" PURGE="4" COMMENT="" />
    <EXPORT ORDINAL="1361" NAME="??4ManualResourceLoader@Ogre@@QAEAAV01@ABV01@@Z" PURGE="4" COMMENT="" />
    <EXPORT ORDINAL="1362" NAME="??4Material@Ogre@@QAEAAV01@ABV01@@Z" PURGE="4" COMMENT="" />
    <EXPORT ORDINAL="1363" NAME="??4MaterialBucket@StaticGeometry@Ogre@@QAEAAV012@ABV012@@Z" PURGE="4" COMMENT="" />
    <EXPORT ORDINAL="1364" NAME="??4MaterialManager@Ogre@@QAEAAV01@ABV01@@Z" PURGE="4" COMMENT="" />
    <EXPORT ORDINAL="1365" NAME="??4MaterialPtr@Ogre@@QAEAAV01@ABV01@@Z" PURGE="4" COMMENT="" />
    <EXPORT ORDINAL="1366" NAME="??4MaterialPtr@Ogre@@QAEAAV01@ABV?$SharedPtr@VResource@Ogre@@@1@@Z" PURGE="4" COMMENT="" />
    <EXPORT ORDINAL="1367" NAME="??4MaterialScriptCompiler@Ogre@@QAEAAV01@ABV01@@Z" PURGE="4" COMMENT="" />
    <EXPORT ORDINAL="1368" NAME="??4MaterialSerializer@Ogre@@QAEAAV01@ABV01@@Z" PURGE="4" COMMENT="" />
    <EXPORT ORDINAL="1369" NAME="??4Math@Ogre@@QAEAAV01@ABV01@@Z" PURGE="4" COMMENT="" />
    <EXPORT ORDINAL="1370" NAME="??4Matrix3@Ogre@@QAEAAV01@ABV01@@Z" PURGE="4" COMMENT="" />
    <EXPORT ORDINAL="1371" NAME="??4Matrix4@Ogre@@QAEAAV01@ABV01@@Z" PURGE="4" COMMENT="" />
    <EXPORT ORDINAL="1372" NAME="??4Matrix4@Ogre@@QAEXABVMatrix3@1@@Z" PURGE="4" COMMENT="" />
    <EXPORT ORDINAL="1373" NAME="??4MemoryDataStream@Ogre@@QAEAAV01@ABV01@@Z" PURGE="4" COMMENT="" />
    <EXPORT ORDINAL="1374" NAME="??4MemoryManager@Ogre@@QAEAAV01@ABV01@@Z" PURGE="4" COMMENT="" />
    <EXPORT ORDINAL="1375" NAME="??4Mesh@Ogre@@QAEAAV01@ABV01@@Z" PURGE="4" COMMENT="" />
    <EXPORT ORDINAL="1376" NAME="??4MeshManager@Ogre@@QAEAAV01@ABV01@@Z" PURGE="4" COMMENT="" />
    <EXPORT ORDINAL="1377" NAME="??4MeshPtr@Ogre@@QAEAAV01@ABV01@@Z" PURGE="4" COMMENT="" />
    <EXPORT ORDINAL="1378" NAME="??4MeshPtr@Ogre@@QAEAAV01@ABV?$SharedPtr@VResource@Ogre@@@1@@Z" PURGE="4" COMMENT="" />
    <EXPORT ORDINAL="1379" NAME="??4MeshSerializer@Ogre@@QAEAAV01@ABV01@@Z" PURGE="4" COMMENT="" />
    <EXPORT ORDINAL="1380" NAME="??4MouseEvent@Ogre@@QAEAAV01@ABV01@@Z" PURGE="4" COMMENT="" />
    <EXPORT ORDINAL="1381" NAME="??4MouseListener@Ogre@@QAEAAV01@ABV01@@Z" PURGE="4" COMMENT="" />
    <EXPORT ORDINAL="1382" NAME="??4MouseMotionListener@Ogre@@QAEAAV01@ABV01@@Z" PURGE="4" COMMENT="" />
    <EXPORT ORDINAL="1383" NAME="??4MouseMotionTarget@Ogre@@QAEAAV01@ABV01@@Z" PURGE="4" COMMENT="" />
    <EXPORT ORDINAL="1384" NAME="??4MouseState@Ogre@@QAEAAU01@ABU01@@Z" PURGE="4" COMMENT="" />
    <EXPORT ORDINAL="1385" NAME="??4MouseTarget@Ogre@@QAEAAV01@ABV01@@Z" PURGE="4" COMMENT="" />
    <EXPORT ORDINAL="1386" NAME="??4MovableObject@Ogre@@QAEAAV01@ABV01@@Z" PURGE="4" COMMENT="" />
    <EXPORT ORDINAL="1387" NAME="??4MovableObjectFactory@Ogre@@QAEAAV01@ABV01@@Z" PURGE="4" COMMENT="" />
    <EXPORT ORDINAL="1388" NAME="??4MovablePlane@Ogre@@QAEAAV01@ABV01@@Z" PURGE="4" COMMENT="" />
    <EXPORT ORDINAL="1389" NAME="??4MultiRenderTarget@Ogre@@QAEAAV01@ABV01@@Z" PURGE="4" COMMENT="" />
    <EXPORT ORDINAL="1390" NAME="??4Node@Ogre@@QAEAAV01@ABV01@@Z" PURGE="4" COMMENT="" />
    <EXPORT ORDINAL="1391" NAME="??4NodeAnimationTrack@Ogre@@QAEAAV01@ABV01@@Z" PURGE="4" COMMENT="" />
    <EXPORT ORDINAL="1392" NAME="??4NumericAnimationTrack@Ogre@@QAEAAV01@ABV01@@Z" PURGE="4" COMMENT="" />
    <EXPORT ORDINAL="1393" NAME="??4NumericKeyFrame@Ogre@@QAEAAV01@ABV01@@Z" PURGE="4" COMMENT="" />
    <EXPORT ORDINAL="1394" NAME="??4NumericSolver@Ogre@@QAEAAV01@ABV01@@Z" PURGE="4" COMMENT="" />
    <EXPORT ORDINAL="1395" NAME="??4Overlay@Ogre@@QAEAAV01@ABV01@@Z" PURGE="4" COMMENT="" />
    <EXPORT ORDINAL="1396" NAME="??4OverlayContainer@Ogre@@QAEAAV01@ABV01@@Z" PURGE="4" COMMENT="" />
    <EXPORT ORDINAL="1397" NAME="??4OverlayElement@Ogre@@QAEAAV01@ABV01@@Z" PURGE="4" COMMENT="" />
    <EXPORT ORDINAL="1398" NAME="??4OverlayElementFactory@Ogre@@QAEAAV01@ABV01@@Z" PURGE="4" COMMENT="" />
    <EXPORT ORDINAL="1399" NAME="??4OverlayManager@Ogre@@QAEAAV01@ABV01@@Z" PURGE="4" COMMENT="" />
    <EXPORT ORDINAL="1400" NAME="??4PanelOverlayElement@Ogre@@QAEAAV01@ABV01@@Z" PURGE="4" COMMENT="" />
    <EXPORT ORDINAL="1401" NAME="??4PanelOverlayElementFactory@Ogre@@QAEAAV01@ABV01@@Z" PURGE="4" COMMENT="" />
    <EXPORT ORDINAL="1402" NAME="??4ParamCommand@Ogre@@QAEAAV01@ABV01@@Z" PURGE="4" COMMENT="" />
    <EXPORT ORDINAL="1403" NAME="??4ParamDictionary@Ogre@@QAEAAV01@ABV01@@Z" PURGE="4" COMMENT="" />
    <EXPORT ORDINAL="1404" NAME="??4ParameterDef@Ogre@@QAEAAV01@ABV01@@Z" PURGE="4" COMMENT="" />
    <EXPORT ORDINAL="1405" NAME="??4Particle@Ogre@@QAEAAV01@ABV01@@Z" PURGE="4" COMMENT="" />
    <EXPORT ORDINAL="1406" NAME="??4ParticleAffector@Ogre@@QAEAAV01@ABV01@@Z" PURGE="4" COMMENT="" />
    <EXPORT ORDINAL="1407" NAME="??4ParticleAffectorFactory@Ogre@@QAEAAV01@ABV01@@Z" PURGE="4" COMMENT="" />
    <EXPORT ORDINAL="1408" NAME="??4ParticleEmitter@Ogre@@QAEAAV01@ABV01@@Z" PURGE="4" COMMENT="" />
    <EXPORT ORDINAL="1409" NAME="??4ParticleEmitterFactory@Ogre@@QAEAAV01@ABV01@@Z" PURGE="4" COMMENT="" />
    <EXPORT ORDINAL="1410" NAME="??4ParticleIterator@Ogre@@QAEAAV01@ABV01@@Z" PURGE="4" COMMENT="" />
    <EXPORT ORDINAL="1411" NAME="??4ParticleSystem@Ogre@@QAEAAV01@ABV01@@Z" PURGE="4" COMMENT="" />
    <EXPORT ORDINAL="1412" NAME="??4ParticleSystemFactory@Ogre@@QAEAAV01@ABV01@@Z" PURGE="4" COMMENT="" />
    <EXPORT ORDINAL="1413" NAME="??4ParticleSystemManager@Ogre@@QAEAAV01@ABV01@@Z" PURGE="4" COMMENT="" />
    <EXPORT ORDINAL="1414" NAME="??4ParticleSystemRenderer@Ogre@@QAEAAV01@ABV01@@Z" PURGE="4" COMMENT="" />
    <EXPORT ORDINAL="1415" NAME="??4ParticleSystemRendererFactory@Ogre@@QAEAAV01@ABV01@@Z" PURGE="4" COMMENT="" />
    <EXPORT ORDINAL="1416" NAME="??4ParticleVisualData@Ogre@@QAEAAV01@ABV01@@Z" PURGE="4" COMMENT="" />
    <EXPORT ORDINAL="1417" NAME="??4Pass@Ogre@@QAEAAV01@ABV01@@Z" PURGE="4" COMMENT="" />
    <EXPORT ORDINAL="1418" NAME="??4PassthroughControllerFunction@Ogre@@QAEAAV01@ABV01@@Z" PURGE="4" COMMENT="" />
    <EXPORT ORDINAL="1419" NAME="??4PatchMesh@Ogre@@QAEAAV01@ABV01@@Z" PURGE="4" COMMENT="" />
    <EXPORT ORDINAL="1420" NAME="??4PatchMeshPtr@Ogre@@QAEAAV01@ABV01@@Z" PURGE="4" COMMENT="" />
    <EXPORT ORDINAL="1421" NAME="??4PatchMeshPtr@Ogre@@QAEAAV01@ABV?$SharedPtr@VResource@Ogre@@@1@@Z" PURGE="4" COMMENT="" />
    <EXPORT ORDINAL="1422" NAME="??4PatchMeshPtr@Ogre@@QAEAAV01@ABVMeshPtr@1@@Z" PURGE="4" COMMENT="" />
    <EXPORT ORDINAL="1423" NAME="??4PatchSurface@Ogre@@QAEAAV01@ABV01@@Z" PURGE="4" COMMENT="" />
    <EXPORT ORDINAL="1424" NAME="??4PixelBox@Ogre@@QAEAAV01@ABV01@@Z" PURGE="4" COMMENT="" />
    <EXPORT ORDINAL="1425" NAME="??4PixelUtil@Ogre@@QAEAAV01@ABV01@@Z" PURGE="4" COMMENT="" />
    <EXPORT ORDINAL="1426" NAME="??4Plane@Ogre@@QAEAAV01@ABV01@@Z" PURGE="4" COMMENT="" />
    <EXPORT ORDINAL="1427" NAME="??4PlaneBoundedVolume@Ogre@@QAEAAV01@ABV01@@Z" PURGE="4" COMMENT="" />
    <EXPORT ORDINAL="1428" NAME="??4PlaneBoundedVolumeListSceneQuery@Ogre@@QAEAAV01@ABV01@@Z" PURGE="4" COMMENT="" />
    <EXPORT ORDINAL="1429" NAME="??4PlaneOptimalShadowCameraSetup@Ogre@@QAEAAV01@ABV01@@Z" PURGE="4" COMMENT="" />
    <EXPORT ORDINAL="1430" NAME="??4PlatformInformation@Ogre@@QAEAAV01@ABV01@@Z" PURGE="4" COMMENT="" />
    <EXPORT ORDINAL="1431" NAME="??4PlatformManager@Ogre@@QAEAAV01@ABV01@@Z" PURGE="4" COMMENT="" />
    <EXPORT ORDINAL="1432" NAME="??4Polygon@Ogre@@QAEAAV01@ABV01@@Z" PURGE="4" COMMENT="" />
    <EXPORT ORDINAL="1433" NAME="??4Pose@Ogre@@QAEAAV01@ABV01@@Z" PURGE="4" COMMENT="" />
    <EXPORT ORDINAL="1434" NAME="??4PositionTarget@Ogre@@QAEAAV01@ABV01@@Z" PURGE="4" COMMENT="" />
    <EXPORT ORDINAL="1435" NAME="??4Profile@Ogre@@QAEAAV01@ABV01@@Z" PURGE="4" COMMENT="" />
    <EXPORT ORDINAL="1436" NAME="??4Profiler@Ogre@@QAEAAV01@ABV01@@Z" PURGE="4" COMMENT="" />
    <EXPORT ORDINAL="1437" NAME="??4ProgressiveMesh@Ogre@@QAEAAV01@ABV01@@Z" PURGE="4" COMMENT="" />
    <EXPORT ORDINAL="1438" NAME="??4Quaternion@Ogre@@QAEAAV01@ABV01@@Z" PURGE="4" COMMENT="" />
    <EXPORT ORDINAL="1439" NAME="??4QueuedRenderableCollection@Ogre@@QAEAAV01@ABV01@@Z" PURGE="4" COMMENT="" />
    <EXPORT ORDINAL="1440" NAME="??4QueuedRenderableVisitor@Ogre@@QAEAAV01@ABV01@@Z" PURGE="4" COMMENT="" />
    <EXPORT ORDINAL="1441" NAME="??4Ray@Ogre@@QAEAAV01@ABV01@@Z" PURGE="4" COMMENT="" />
    <EXPORT ORDINAL="1442" NAME="??4RaySceneQuery@Ogre@@QAEAAV01@ABV01@@Z" PURGE="4" COMMENT="" />
    <EXPORT ORDINAL="1443" NAME="??4RaySceneQueryListener@Ogre@@QAEAAV01@ABV01@@Z" PURGE="4" COMMENT="" />
    <EXPORT ORDINAL="1444" NAME="??4RaySceneQueryResultEntry@Ogre@@QAEAAU01@ABU01@@Z" PURGE="4" COMMENT="" />
    <EXPORT ORDINAL="1445" NAME="??4Rectangle2D@Ogre@@QAEAAV01@ABV01@@Z" PURGE="4" COMMENT="" />
    <EXPORT ORDINAL="1446" NAME="??4Rectangle@Ogre@@QAEAAU01@ABU01@@Z" PURGE="4" COMMENT="" />
    <EXPORT ORDINAL="1447" NAME="??4Region@StaticGeometry@Ogre@@QAEAAV012@ABV012@@Z" PURGE="4" COMMENT="" />
    <EXPORT ORDINAL="1448" NAME="??4RegionSceneQuery@Ogre@@QAEAAV01@ABV01@@Z" PURGE="4" COMMENT="" />
    <EXPORT ORDINAL="1449" NAME="??4RegionShadowRenderable@Region@StaticGeometry@Ogre@@QAEAAV0123@ABV0123@@Z" PURGE="4" COMMENT="" />
    <EXPORT ORDINAL="1450" NAME="??4RenderPriorityGroup@Ogre@@QAEAAV01@ABV01@@Z" PURGE="4" COMMENT="" />
    <EXPORT ORDINAL="1451" NAME="??4RenderQueue@Ogre@@QAEAAV01@ABV01@@Z" PURGE="4" COMMENT="" />
    <EXPORT ORDINAL="1452" NAME="??4RenderQueueGroup@Ogre@@QAEAAV01@ABV01@@Z" PURGE="4" COMMENT="" />
    <EXPORT ORDINAL="1453" NAME="??4RenderQueueInvocation@Ogre@@QAEAAV01@ABV01@@Z" PURGE="4" COMMENT="" />
    <EXPORT ORDINAL="1454" NAME="??4RenderQueueInvocationSequence@Ogre@@QAEAAV01@ABV01@@Z" PURGE="4" COMMENT="" />
    <EXPORT ORDINAL="1455" NAME="??4RenderQueueListener@Ogre@@QAEAAV01@ABV01@@Z" PURGE="4" COMMENT="" />
    <EXPORT ORDINAL="1456" NAME="??4RenderSystem@Ogre@@QAEAAV01@ABV01@@Z" PURGE="4" COMMENT="" />
    <EXPORT ORDINAL="1457" NAME="??4RenderSystemCapabilities@Ogre@@QAEAAV01@ABV01@@Z" PURGE="4" COMMENT="" />
    <EXPORT ORDINAL="1458" NAME="??4RenderTarget@Ogre@@QAEAAV01@ABV01@@Z" PURGE="4" COMMENT="" />
    <EXPORT ORDINAL="1459" NAME="??4RenderTargetListener@Ogre@@QAEAAV01@ABV01@@Z" PURGE="4" COMMENT="" />
    <EXPORT ORDINAL="1460" NAME="??4RenderTexture@Ogre@@QAEAAV01@ABV01@@Z" PURGE="4" COMMENT="" />
    <EXPORT ORDINAL="1461" NAME="??4RenderWindow@Ogre@@QAEAAV01@ABV01@@Z" PURGE="4" COMMENT="" />
    <EXPORT ORDINAL="1462" NAME="??4Renderable@Ogre@@QAEAAV01@ABV01@@Z" PURGE="4" COMMENT="" />
    <EXPORT ORDINAL="1463" NAME="??4RenderableListener@RenderQueue@Ogre@@QAEAAV012@ABV012@@Z" PURGE="4" COMMENT="" />
    <EXPORT ORDINAL="1464" NAME="??4Resource@Ogre@@QAEAAV01@ABV01@@Z" PURGE="4" COMMENT="" />
    <EXPORT ORDINAL="1465" NAME="??4ResourceBackgroundQueue@Ogre@@QAEAAV01@ABV01@@Z" PURGE="4" COMMENT="" />
    <EXPORT ORDINAL="1466" NAME="??4ResourceBackgroundQueueListener@Ogre@@QAEAAV01@ABV01@@Z" PURGE="4" COMMENT="" />
    <EXPORT ORDINAL="1467" NAME="??4ResourceGroupListener@Ogre@@QAEAAV01@ABV01@@Z" PURGE="4" COMMENT="" />
    <EXPORT ORDINAL="1468" NAME="??4ResourceGroupManager@Ogre@@QAEAAV01@ABV01@@Z" PURGE="4" COMMENT="" />
    <EXPORT ORDINAL="1469" NAME="??4ResourceManager@Ogre@@QAEAAV01@ABV01@@Z" PURGE="4" COMMENT="" />
    <EXPORT ORDINAL="1470" NAME="??4RibbonTrail@Ogre@@QAEAAV01@ABV01@@Z" PURGE="4" COMMENT="" />
    <EXPORT ORDINAL="1471" NAME="??4RibbonTrailFactory@Ogre@@QAEAAV01@ABV01@@Z" PURGE="4" COMMENT="" />
    <EXPORT ORDINAL="1472" NAME="??4Root@Ogre@@QAEAAV01@ABV01@@Z" PURGE="4" COMMENT="" />
    <EXPORT ORDINAL="1473" NAME="??4RotationalSpline@Ogre@@QAEAAV01@ABV01@@Z" PURGE="4" COMMENT="" />
    <EXPORT ORDINAL="1474" NAME="??4ScaleControllerFunction@Ogre@@QAEAAV01@ABV01@@Z" PURGE="4" COMMENT="" />
    <EXPORT ORDINAL="1475" NAME="??4SceneManager@Ogre@@QAEAAV01@ABV01@@Z" PURGE="4" COMMENT="" />
    <EXPORT ORDINAL="1476" NAME="??4SceneManagerEnumerator@Ogre@@QAEAAV01@ABV01@@Z" PURGE="4" COMMENT="" />
    <EXPORT ORDINAL="1477" NAME="??4SceneManagerFactory@Ogre@@QAEAAV01@ABV01@@Z" PURGE="4" COMMENT="" />
    <EXPORT ORDINAL="1478" NAME="??4SceneMgrQueuedRenderableVisitor@SceneManager@Ogre@@QAEAAV012@ABV012@@Z" PURGE="4" COMMENT="" />
    <EXPORT ORDINAL="1479" NAME="??4SceneNode@Ogre@@QAEAAV01@ABV01@@Z" PURGE="4" COMMENT="" />
    <EXPORT ORDINAL="1480" NAME="??4SceneQuery@Ogre@@QAEAAV01@ABV01@@Z" PURGE="4" COMMENT="" />
    <EXPORT ORDINAL="1481" NAME="??4SceneQueryListener@Ogre@@QAEAAV01@ABV01@@Z" PURGE="4" COMMENT="" />
    <EXPORT ORDINAL="1482" NAME="??4SceneQueryResult@Ogre@@QAEAAU01@ABU01@@Z" PURGE="4" COMMENT="" />
    <EXPORT ORDINAL="1483" NAME="??4ScriptLoader@Ogre@@QAEAAV01@ABV01@@Z" PURGE="4" COMMENT="" />
    <EXPORT ORDINAL="1484" NAME="??4Serializer@Ogre@@QAEAAV01@ABV01@@Z" PURGE="4" COMMENT="" />
    <EXPORT ORDINAL="1485" NAME="??4ShadowCameraSetup@Ogre@@QAEAAV01@ABV01@@Z" PURGE="4" COMMENT="" />
    <EXPORT ORDINAL="1486" NAME="??4ShadowCaster@Ogre@@QAEAAV01@ABV01@@Z" PURGE="4" COMMENT="" />
    <EXPORT ORDINAL="1487" NAME="??4ShadowCasterSceneQueryListener@SceneManager@Ogre@@QAEAAV012@ABV012@@Z" PURGE="4" COMMENT="" />
    <EXPORT ORDINAL="1488" NAME="??4ShadowListener@Ogre@@QAEAAV01@ABV01@@Z" PURGE="4" COMMENT="" />
    <EXPORT ORDINAL="1489" NAME="??4ShadowRenderable@Ogre@@QAEAAV01@ABV01@@Z" PURGE="4" COMMENT="" />
    <EXPORT ORDINAL="1490" NAME="??4ShadowVolumeExtrudeProgram@Ogre@@QAEAAV01@ABV01@@Z" PURGE="4" COMMENT="" />
    <EXPORT ORDINAL="1491" NAME="??4SimpleRenderable@Ogre@@QAEAAV01@ABV01@@Z" PURGE="4" COMMENT="" />
    <EXPORT ORDINAL="1492" NAME="??4SimpleSpline@Ogre@@QAEAAV01@ABV01@@Z" PURGE="4" COMMENT="" />
    <EXPORT ORDINAL="1493" NAME="??4Skeleton@Ogre@@QAEAAV01@ABV01@@Z" PURGE="4" COMMENT="" />
    <EXPORT ORDINAL="1494" NAME="??4SkeletonInstance@Ogre@@QAEAAV01@ABV01@@Z" PURGE="4" COMMENT="" />
    <EXPORT ORDINAL="1495" NAME="??4SkeletonManager@Ogre@@QAEAAV01@ABV01@@Z" PURGE="4" COMMENT="" />
    <EXPORT ORDINAL="1496" NAME="??4SkeletonPtr@Ogre@@QAEAAV01@ABV01@@Z" PURGE="4" COMMENT="" />
    <EXPORT ORDINAL="1497" NAME="??4SkeletonPtr@Ogre@@QAEAAV01@ABV?$SharedPtr@VResource@Ogre@@@1@@Z" PURGE="4" COMMENT="" />
    <EXPORT ORDINAL="1498" NAME="??4SkeletonSerializer@Ogre@@QAEAAV01@ABV01@@Z" PURGE="4" COMMENT="" />
    <EXPORT ORDINAL="1499" NAME="??4Sphere@Ogre@@QAEAAV01@ABV01@@Z" PURGE="4" COMMENT="" />
    <EXPORT ORDINAL="1500" NAME="??4SphereSceneQuery@Ogre@@QAEAAV01@ABV01@@Z" PURGE="4" COMMENT="" />
    <EXPORT ORDINAL="1501" NAME="??4StaticGeometry@Ogre@@QAEAAV01@ABV01@@Z" PURGE="4" COMMENT="" />
    <EXPORT ORDINAL="1502" NAME="??4StringConverter@Ogre@@QAEAAV01@ABV01@@Z" PURGE="4" COMMENT="" />
    <EXPORT ORDINAL="1503" NAME="??4StringInterface@Ogre@@QAEAAV01@ABV01@@Z" PURGE="4" COMMENT="" />
    <EXPORT ORDINAL="1504" NAME="??4StringUtil@Ogre@@QAEAAV01@ABV01@@Z" PURGE="4" COMMENT="" />
    <EXPORT ORDINAL="1505" NAME="??4SubEntity@Ogre@@QAEAAV01@ABV01@@Z" PURGE="4" COMMENT="" />
    <EXPORT ORDINAL="1506" NAME="??4SubMesh@Ogre@@QAEAAV01@ABV01@@Z" PURGE="4" COMMENT="" />
    <EXPORT ORDINAL="1507" NAME="??4TagPoint@Ogre@@QAEAAV01@ABV01@@Z" PURGE="4" COMMENT="" />
    <EXPORT ORDINAL="1508" NAME="??4TargetManager@Ogre@@QAEAAV01@ABV01@@Z" PURGE="4" COMMENT="" />
    <EXPORT ORDINAL="1509" NAME="??4Technique@Ogre@@QAEAAV01@ABV01@@Z" PURGE="4" COMMENT="" />
    <EXPORT ORDINAL="1510" NAME="??4TempBlendedBufferInfo@Ogre@@QAEAAV01@ABV01@@Z" PURGE="4" COMMENT="" />
    <EXPORT ORDINAL="1511" NAME="??4TexCoordModifierControllerValue@Ogre@@QAEAAV01@ABV01@@Z" PURGE="4" COMMENT="" />
    <EXPORT ORDINAL="1512" NAME="??4TextAreaOverlayElement@Ogre@@QAEAAV01@ABV01@@Z" PURGE="4" COMMENT="" />
    <EXPORT ORDINAL="1513" NAME="??4TextAreaOverlayElementFactory@Ogre@@QAEAAV01@ABV01@@Z" PURGE="4" COMMENT="" />
    <EXPORT ORDINAL="1514" NAME="??4Texture@Ogre@@QAEAAV01@ABV01@@Z" PURGE="4" COMMENT="" />
    <EXPORT ORDINAL="1515" NAME="??4TextureFrameControllerValue@Ogre@@QAEAAV01@ABV01@@Z" PURGE="4" COMMENT="" />
    <EXPORT ORDINAL="1516" NAME="??4TextureManager@Ogre@@QAEAAV01@ABV01@@Z" PURGE="4" COMMENT="" />
    <EXPORT ORDINAL="1517" NAME="??4TexturePtr@Ogre@@QAEAAV01@ABV01@@Z" PURGE="4" COMMENT="" />
    <EXPORT ORDINAL="1518" NAME="??4TexturePtr@Ogre@@QAEAAV01@ABV?$SharedPtr@VResource@Ogre@@@1@@Z" PURGE="4" COMMENT="" />
    <EXPORT ORDINAL="1519" NAME="??4TextureUnitState@Ogre@@QAEAAV01@ABV01@@Z" PURGE="4" COMMENT="" />
    <EXPORT ORDINAL="1520" NAME="??4TimeIndex@Ogre@@QAEAAV01@ABV01@@Z" PURGE="4" COMMENT="" />
    <EXPORT ORDINAL="1521" NAME="??4Timer@Ogre@@QAEAAV01@ABV01@@Z" PURGE="4" COMMENT="" />
    <EXPORT ORDINAL="1522" NAME="??4TransformKeyFrame@Ogre@@QAEAAV01@ABV01@@Z" PURGE="4" COMMENT="" />
    <EXPORT ORDINAL="1523" NAME="??4UserDefinedObject@Ogre@@QAEAAV01@ABV01@@Z" PURGE="4" COMMENT="" />
    <EXPORT ORDINAL="1524" NAME="??4Vector2@Ogre@@QAEAAV01@ABV01@@Z" PURGE="4" COMMENT="" />
    <EXPORT ORDINAL="1525" NAME="??4Vector2@Ogre@@QAEAAV01@M@Z" PURGE="4" COMMENT="" />
    <EXPORT ORDINAL="1526" NAME="??4Vector3@Ogre@@QAEAAV01@ABV01@@Z" PURGE="4" COMMENT="" />
    <EXPORT ORDINAL="1527" NAME="??4Vector3@Ogre@@QAEAAV01@M@Z" PURGE="4" COMMENT="" />
    <EXPORT ORDINAL="1528" NAME="??4Vector4@Ogre@@QAEAAV01@ABV01@@Z" PURGE="4" COMMENT="" />
    <EXPORT ORDINAL="1529" NAME="??4Vector4@Ogre@@QAEAAV01@ABVVector3@1@@Z" PURGE="4" COMMENT="" />
    <EXPORT ORDINAL="1530" NAME="??4Vector4@Ogre@@QAEAAV01@M@Z" PURGE="4" COMMENT="" />
    <EXPORT ORDINAL="1531" NAME="??4VertexAnimationTrack@Ogre@@QAEAAV01@ABV01@@Z" PURGE="4" COMMENT="" />
    <EXPORT ORDINAL="1532" NAME="??4VertexBufferBinding@Ogre@@QAEAAV01@ABV01@@Z" PURGE="4" COMMENT="" />
    <EXPORT ORDINAL="1533" NAME="??4VertexCacheProfiler@Ogre@@QAEAAV01@ABV01@@Z" PURGE="4" COMMENT="" />
    <EXPORT ORDINAL="1534" NAME="??4VertexDeclaration@Ogre@@QAEAAV01@ABV01@@Z" PURGE="4" COMMENT="" />
    <EXPORT ORDINAL="1535" NAME="??4VertexElement@Ogre@@QAEAAV01@ABV01@@Z" PURGE="4" COMMENT="" />
    <EXPORT ORDINAL="1536" NAME="??4VertexMorphKeyFrame@Ogre@@QAEAAV01@ABV01@@Z" PURGE="4" COMMENT="" />
    <EXPORT ORDINAL="1537" NAME="??4VertexPoseKeyFrame@Ogre@@QAEAAV01@ABV01@@Z" PURGE="4" COMMENT="" />
    <EXPORT ORDINAL="1538" NAME="??4Viewport@Ogre@@QAEAAV01@ABV01@@Z" PURGE="4" COMMENT="" />
    <EXPORT ORDINAL="1539" NAME="??4WaveformControllerFunction@Ogre@@QAEAAV01@ABV01@@Z" PURGE="4" COMMENT="" />
    <EXPORT ORDINAL="1540" NAME="??4WireBoundingBox@Ogre@@QAEAAV01@ABV01@@Z" PURGE="4" COMMENT="" />
    <EXPORT ORDINAL="1541" NAME="??4ZipArchive@Ogre@@QAEAAV01@ABV01@@Z" PURGE="4" COMMENT="" />
    <EXPORT ORDINAL="1542" NAME="??6Ogre@@YAAAV?$basic_ostream@DU?$char_traits@D@std@@@std@@AAV12@AAVPlane@0@@Z" PURGE="0" COMMENT="" />
    <EXPORT ORDINAL="1543" NAME="??6Ogre@@YAAAV?$basic_ostream@DU?$char_traits@D@std@@@std@@AAV12@ABVCamera@0@@Z" PURGE="0" COMMENT="" />
    <EXPORT ORDINAL="1544" NAME="??6Ogre@@YAAAV?$basic_ostream@DU?$char_traits@D@std@@@std@@AAV12@ABVColourValue@0@@Z" PURGE="0" COMMENT="" />
    <EXPORT ORDINAL="1545" NAME="??6Ogre@@YAAAV?$basic_ostream@DU?$char_traits@D@std@@@std@@AAV12@ABVConvexBody@0@@Z" PURGE="0" COMMENT="" />
    <EXPORT ORDINAL="1546" NAME="??6Ogre@@YAAAV?$basic_ostream@DU?$char_traits@D@std@@@std@@AAV12@ABVMatrix4@0@@Z" PURGE="0" COMMENT="" />
    <EXPORT ORDINAL="1547" NAME="??6Ogre@@YAAAV?$basic_ostream@DU?$char_traits@D@std@@@std@@AAV12@ABVPolygon@0@@Z" PURGE="0" COMMENT="" />
    <EXPORT ORDINAL="1548" NAME="??6Ogre@@YAAAV?$basic_ostream@DU?$char_traits@D@std@@@std@@AAV12@ABVQuaternion@0@@Z" PURGE="0" COMMENT="" />
    <EXPORT ORDINAL="1549" NAME="??6Ogre@@YAAAV?$basic_ostream@DU?$char_traits@D@std@@@std@@AAV12@ABVVector2@0@@Z" PURGE="0" COMMENT="" />
    <EXPORT ORDINAL="1550" NAME="??6Ogre@@YAAAV?$basic_ostream@DU?$char_traits@D@std@@@std@@AAV12@ABVVector3@0@@Z" PURGE="0" COMMENT="" />
    <EXPORT ORDINAL="1551" NAME="??6Ogre@@YAAAV?$basic_ostream@DU?$char_traits@D@std@@@std@@AAV12@ABVVector4@0@@Z" PURGE="0" COMMENT="" />
    <EXPORT ORDINAL="1552" NAME="??8AnimationState@Ogre@@QBE_NABV01@@Z" PURGE="4" COMMENT="" />
    <EXPORT ORDINAL="1553" NAME="??8AxisAlignedBox@Ogre@@QBE_NABV01@@Z" PURGE="4" COMMENT="" />
    <EXPORT ORDINAL="1554" NAME="??8ColourValue@Ogre@@QBE_NABV01@@Z" PURGE="4" COMMENT="" />
    <EXPORT ORDINAL="1555" NAME="??8ConvexBody@Ogre@@QBE_NABV01@@Z" PURGE="4" COMMENT="" />
    <EXPORT ORDINAL="1556" NAME="??8LayerBlendModeEx@Ogre@@QBE_NABV01@@Z" PURGE="4" COMMENT="" />
    <EXPORT ORDINAL="1557" NAME="??8LightInfo@SceneManager@Ogre@@QBE_NABU012@@Z" PURGE="4" COMMENT="" />
    <EXPORT ORDINAL="1558" NAME="??8Matrix3@Ogre@@QBE_NABV01@@Z" PURGE="4" COMMENT="" />
    <EXPORT ORDINAL="1559" NAME="??8Matrix4@Ogre@@QBE_NABV01@@Z" PURGE="4" COMMENT="" />
    <EXPORT ORDINAL="1560" NAME="??8Plane@Ogre@@QBE_NABV01@@Z" PURGE="4" COMMENT="" />
    <EXPORT ORDINAL="1561" NAME="??8Polygon@Ogre@@QBE_NABV01@@Z" PURGE="4" COMMENT="" />
    <EXPORT ORDINAL="1562" NAME="??8Quaternion@Ogre@@QBE_NABV01@@Z" PURGE="4" COMMENT="" />
    <EXPORT ORDINAL="1563" NAME="??8Vector2@Ogre@@QBE_NABV01@@Z" PURGE="4" COMMENT="" />
    <EXPORT ORDINAL="1564" NAME="??8Vector3@Ogre@@QBE_NABV01@@Z" PURGE="4" COMMENT="" />
    <EXPORT ORDINAL="1565" NAME="??8Vector4@Ogre@@QBE_NABV01@@Z" PURGE="4" COMMENT="" />
    <EXPORT ORDINAL="1566" NAME="??8VertexDeclaration@Ogre@@QBE_NABV01@@Z" PURGE="4" COMMENT="" />
    <EXPORT ORDINAL="1567" NAME="??8VertexElement@Ogre@@QBE_NABV01@@Z" PURGE="4" COMMENT="" />
    <EXPORT ORDINAL="1568" NAME="??9AnimationState@Ogre@@QBE_NABV01@@Z" PURGE="4" COMMENT="" />
    <EXPORT ORDINAL="1569" NAME="??9AxisAlignedBox@Ogre@@QBE_NABV01@@Z" PURGE="4" COMMENT="" />
    <EXPORT ORDINAL="1570" NAME="??9ColourValue@Ogre@@QBE_NABV01@@Z" PURGE="4" COMMENT="" />
    <EXPORT ORDINAL="1571" NAME="??9ConvexBody@Ogre@@QBE_NABV01@@Z" PURGE="4" COMMENT="" />
    <EXPORT ORDINAL="1572" NAME="??9LayerBlendModeEx@Ogre@@QBE_NABV01@@Z" PURGE="4" COMMENT="" />
    <EXPORT ORDINAL="1573" NAME="??9LightInfo@SceneManager@Ogre@@QBE_NABU012@@Z" PURGE="4" COMMENT="" />
    <EXPORT ORDINAL="1574" NAME="??9Matrix3@Ogre@@QBE_NABV01@@Z" PURGE="4" COMMENT="" />
    <EXPORT ORDINAL="1575" NAME="??9Matrix4@Ogre@@QBE_NABV01@@Z" PURGE="4" COMMENT="" />
    <EXPORT ORDINAL="1576" NAME="??9Plane@Ogre@@QBE_NABV01@@Z" PURGE="4" COMMENT="" />
    <EXPORT ORDINAL="1577" NAME="??9Polygon@Ogre@@QBE_NABV01@@Z" PURGE="4" COMMENT="" />
    <EXPORT ORDINAL="1578" NAME="??9Quaternion@Ogre@@QBE_NABV01@@Z" PURGE="4" COMMENT="" />
    <EXPORT ORDINAL="1579" NAME="??9Vector2@Ogre@@QBE_NABV01@@Z" PURGE="4" COMMENT="" />
    <EXPORT ORDINAL="1580" NAME="??9Vector3@Ogre@@QBE_NABV01@@Z" PURGE="4" COMMENT="" />
    <EXPORT ORDINAL="1581" NAME="??9Vector4@Ogre@@QBE_NABV01@@Z" PURGE="4" COMMENT="" />
    <EXPORT ORDINAL="1582" NAME="??9VertexDeclaration@Ogre@@QBE_NABV01@@Z" PURGE="4" COMMENT="" />
    <EXPORT ORDINAL="1583" NAME="??AMatrix3@Ogre@@QBEPAMI@Z" PURGE="4" COMMENT="" />
    <EXPORT ORDINAL="1584" NAME="??AMatrix4@Ogre@@QAEPAMI@Z" PURGE="4" COMMENT="" />
    <EXPORT ORDINAL="1585" NAME="??AMatrix4@Ogre@@QBEQBMI@Z" PURGE="4" COMMENT="" />
    <EXPORT ORDINAL="1586" NAME="??AVector2@Ogre@@QAEAAMI@Z" PURGE="4" COMMENT="" />
    <EXPORT ORDINAL="1587" NAME="??AVector2@Ogre@@QBEMI@Z" PURGE="4" COMMENT="" />
    <EXPORT ORDINAL="1588" NAME="??AVector3@Ogre@@QAEAAMI@Z" PURGE="4" COMMENT="" />
    <EXPORT ORDINAL="1589" NAME="??AVector3@Ogre@@QBEMI@Z" PURGE="4" COMMENT="" />
    <EXPORT ORDINAL="1590" NAME="??AVector4@Ogre@@QAEAAMI@Z" PURGE="4" COMMENT="" />
    <EXPORT ORDINAL="1591" NAME="??AVector4@Ogre@@QBEMI@Z" PURGE="4" COMMENT="" />
    <EXPORT ORDINAL="1592" NAME="??C?$SharedPtr@VCompositor@Ogre@@@Ogre@@QBEPAVCompositor@1@XZ" PURGE="0" COMMENT="" />
    <EXPORT ORDINAL="1593" NAME="??C?$SharedPtr@VFont@Ogre@@@Ogre@@QBEPAVFont@1@XZ" PURGE="0" COMMENT="" />
    <EXPORT ORDINAL="1594" NAME="??C?$SharedPtr@VGpuProgram@Ogre@@@Ogre@@QBEPAVGpuProgram@1@XZ" PURGE="0" COMMENT="" />
    <EXPORT ORDINAL="1595" NAME="??C?$SharedPtr@VHardwareIndexBuffer@Ogre@@@Ogre@@QBEPAVHardwareIndexBuffer@1@XZ" PURGE="0" COMMENT="" />
    <EXPORT ORDINAL="1596" NAME="??C?$SharedPtr@VHardwarePixelBuffer@Ogre@@@Ogre@@QBEPAVHardwarePixelBuffer@1@XZ" PURGE="0" COMMENT="" />
    <EXPORT ORDINAL="1597" NAME="??C?$SharedPtr@VHardwareVertexBuffer@Ogre@@@Ogre@@QBEPAVHardwareVertexBuffer@1@XZ" PURGE="0" COMMENT="" />
    <EXPORT ORDINAL="1598" NAME="??C?$SharedPtr@VHighLevelGpuProgram@Ogre@@@Ogre@@QBEPAVHighLevelGpuProgram@1@XZ" PURGE="0" COMMENT="" />
    <EXPORT ORDINAL="1599" NAME="??C?$SharedPtr@VMaterial@Ogre@@@Ogre@@QBEPAVMaterial@1@XZ" PURGE="0" COMMENT="" />
    <EXPORT ORDINAL="1600" NAME="??C?$SharedPtr@VMesh@Ogre@@@Ogre@@QBEPAVMesh@1@XZ" PURGE="0" COMMENT="" />
    <EXPORT ORDINAL="1601" NAME="??C?$SharedPtr@VPatchMesh@Ogre@@@Ogre@@QBEPAVPatchMesh@1@XZ" PURGE="0" COMMENT="" />
    <EXPORT ORDINAL="1602" NAME="??C?$SharedPtr@VSkeleton@Ogre@@@Ogre@@QBEPAVSkeleton@1@XZ" PURGE="0" COMMENT="" />
    <EXPORT ORDINAL="1603" NAME="??C?$SharedPtr@VTexture@Ogre@@@Ogre@@QBEPAVTexture@1@XZ" PURGE="0" COMMENT="" />
    <EXPORT ORDINAL="1604" NAME="??D?$SharedPtr@VCompositor@Ogre@@@Ogre@@QBEAAVCompositor@1@XZ" PURGE="0" COMMENT="" />
    <EXPORT ORDINAL="1605" NAME="??D?$SharedPtr@VFont@Ogre@@@Ogre@@QBEAAVFont@1@XZ" PURGE="0" COMMENT="" />
    <EXPORT ORDINAL="1606" NAME="??D?$SharedPtr@VGpuProgram@Ogre@@@Ogre@@QBEAAVGpuProgram@1@XZ" PURGE="0" COMMENT="" />
    <EXPORT ORDINAL="1607" NAME="??D?$SharedPtr@VHardwareIndexBuffer@Ogre@@@Ogre@@QBEAAVHardwareIndexBuffer@1@XZ" PURGE="0" COMMENT="" />
    <EXPORT ORDINAL="1608" NAME="??D?$SharedPtr@VHardwarePixelBuffer@Ogre@@@Ogre@@QBEAAVHardwarePixelBuffer@1@XZ" PURGE="0" COMMENT="" />
    <EXPORT ORDINAL="1609" NAME="??D?$SharedPtr@VHardwareVertexBuffer@Ogre@@@Ogre@@QBEAAVHardwareVertexBuffer@1@XZ" PURGE="0" COMMENT="" />
    <EXPORT ORDINAL="1610" NAME="??D?$SharedPtr@VHighLevelGpuProgram@Ogre@@@Ogre@@QBEAAVHighLevelGpuProgram@1@XZ" PURGE="0" COMMENT="" />
    <EXPORT ORDINAL="1611" NAME="??D?$SharedPtr@VMaterial@Ogre@@@Ogre@@QBEAAVMaterial@1@XZ" PURGE="0" COMMENT="" />
    <EXPORT ORDINAL="1612" NAME="??D?$SharedPtr@VMesh@Ogre@@@Ogre@@QBEAAVMesh@1@XZ" PURGE="0" COMMENT="" />
    <EXPORT ORDINAL="1613" NAME="??D?$SharedPtr@VPatchMesh@Ogre@@@Ogre@@QBEAAVPatchMesh@1@XZ" PURGE="0" COMMENT="" />
    <EXPORT ORDINAL="1614" NAME="??D?$SharedPtr@VSkeleton@Ogre@@@Ogre@@QBEAAVSkeleton@1@XZ" PURGE="0" COMMENT="" />
    <EXPORT ORDINAL="1615" NAME="??D?$SharedPtr@VTexture@Ogre@@@Ogre@@QBEAAVTexture@1@XZ" PURGE="0" COMMENT="" />
    <EXPORT ORDINAL="1616" NAME="??DColourValue@Ogre@@QBE?AV01@ABV01@@Z" PURGE="8" COMMENT="" />
    <EXPORT ORDINAL="1617" NAME="??DColourValue@Ogre@@QBE?AV01@M@Z" PURGE="8" COMMENT="" />
    <EXPORT ORDINAL="1618" NAME="??DMatrix3@Ogre@@QBE?AV01@ABV01@@Z" PURGE="8" COMMENT="" />
    <EXPORT ORDINAL="1619" NAME="??DMatrix3@Ogre@@QBE?AV01@M@Z" PURGE="8" COMMENT="" />
    <EXPORT ORDINAL="1620" NAME="??DMatrix3@Ogre@@QBE?AVVector3@1@ABV21@@Z" PURGE="8" COMMENT="" />
    <EXPORT ORDINAL="1621" NAME="??DMatrix4@Ogre@@QAE?AV01@M@Z" PURGE="8" COMMENT="" />
    <EXPORT ORDINAL="1622" NAME="??DMatrix4@Ogre@@QBE?AV01@ABV01@@Z" PURGE="8" COMMENT="" />
    <EXPORT ORDINAL="1623" NAME="??DMatrix4@Ogre@@QBE?AVPlane@1@ABV21@@Z" PURGE="8" COMMENT="" />
    <EXPORT ORDINAL="1624" NAME="??DMatrix4@Ogre@@QBE?AVVector3@1@ABV21@@Z" PURGE="8" COMMENT="" />
    <EXPORT ORDINAL="1625" NAME="??DMatrix4@Ogre@@QBE?AVVector4@1@ABV21@@Z" PURGE="8" COMMENT="" />
    <EXPORT ORDINAL="1626" NAME="??DOgre@@YA?AVMatrix3@0@MABV10@@Z" PURGE="0" COMMENT="" />
    <EXPORT ORDINAL="1627" NAME="??DOgre@@YA?AVQuaternion@0@MABV10@@Z" PURGE="0" COMMENT="" />
    <EXPORT ORDINAL="1628" NAME="??DOgre@@YA?AVVector3@0@ABV10@ABVMatrix3@0@@Z" PURGE="0" COMMENT="" />
    <EXPORT ORDINAL="1629" NAME="??DQuaternion@Ogre@@QBE?AV01@ABV01@@Z" PURGE="8" COMMENT="" />
    <EXPORT ORDINAL="1630" NAME="??DQuaternion@Ogre@@QBE?AV01@M@Z" PURGE="8" COMMENT="" />
    <EXPORT ORDINAL="1631" NAME="??DQuaternion@Ogre@@QBE?AVVector3@1@ABV21@@Z" PURGE="8" COMMENT="" />
    <EXPORT ORDINAL="1632" NAME="??DRay@Ogre@@QBE?AVVector3@1@M@Z" PURGE="8" COMMENT="" />
    <EXPORT ORDINAL="1633" NAME="??DVector2@Ogre@@QBE?AV01@ABV01@@Z" PURGE="8" COMMENT="" />
    <EXPORT ORDINAL="1634" NAME="??DVector2@Ogre@@QBE?AV01@M@Z" PURGE="8" COMMENT="" />
    <EXPORT ORDINAL="1635" NAME="??DVector3@Ogre@@QBE?AV01@ABV01@@Z" PURGE="8" COMMENT="" />
    <EXPORT ORDINAL="1636" NAME="??DVector3@Ogre@@QBE?AV01@M@Z" PURGE="8" COMMENT="" />
    <EXPORT ORDINAL="1637" NAME="??DVector4@Ogre@@QBE?AV01@ABV01@@Z" PURGE="8" COMMENT="" />
    <EXPORT ORDINAL="1638" NAME="??DVector4@Ogre@@QBE?AV01@M@Z" PURGE="8" COMMENT="" />
    <EXPORT ORDINAL="1639" NAME="??GColourValue@Ogre@@QBE?AV01@ABV01@@Z" PURGE="8" COMMENT="" />
    <EXPORT ORDINAL="1640" NAME="??GMatrix3@Ogre@@QBE?AV01@ABV01@@Z" PURGE="8" COMMENT="" />
    <EXPORT ORDINAL="1641" NAME="??GMatrix3@Ogre@@QBE?AV01@XZ" PURGE="4" COMMENT="" />
    <EXPORT ORDINAL="1642" NAME="??GMatrix4@Ogre@@QBE?AV01@ABV01@@Z" PURGE="8" COMMENT="" />
    <EXPORT ORDINAL="1643" NAME="??GQuaternion@Ogre@@QBE?AV01@ABV01@@Z" PURGE="8" COMMENT="" />
    <EXPORT ORDINAL="1644" NAME="??GQuaternion@Ogre@@QBE?AV01@XZ" PURGE="4" COMMENT="" />
    <EXPORT ORDINAL="1645" NAME="??GVector2@Ogre@@QBE?AV01@ABV01@@Z" PURGE="8" COMMENT="" />
    <EXPORT ORDINAL="1646" NAME="??GVector2@Ogre@@QBE?AV01@XZ" PURGE="4" COMMENT="" />
    <EXPORT ORDINAL="1647" NAME="??GVector3@Ogre@@QBE?AV01@ABV01@@Z" PURGE="8" COMMENT="" />
    <EXPORT ORDINAL="1648" NAME="??GVector3@Ogre@@QBE?AV01@XZ" PURGE="4" COMMENT="" />
    <EXPORT ORDINAL="1649" NAME="??GVector4@Ogre@@QBE?AV01@ABV01@@Z" PURGE="8" COMMENT="" />
    <EXPORT ORDINAL="1650" NAME="??GVector4@Ogre@@QBE?AV01@XZ" PURGE="4" COMMENT="" />
    <EXPORT ORDINAL="1651" NAME="??HColourValue@Ogre@@QBE?AV01@ABV01@@Z" PURGE="8" COMMENT="" />
    <EXPORT ORDINAL="1652" NAME="??HMatrix3@Ogre@@QBE?AV01@ABV01@@Z" PURGE="8" COMMENT="" />
    <EXPORT ORDINAL="1653" NAME="??HMatrix4@Ogre@@QBE?AV01@ABV01@@Z" PURGE="8" COMMENT="" />
    <EXPORT ORDINAL="1654" NAME="??HQuaternion@Ogre@@QBE?AV01@ABV01@@Z" PURGE="8" COMMENT="" />
    <EXPORT ORDINAL="1655" NAME="??HVector2@Ogre@@QBE?AV01@ABV01@@Z" PURGE="8" COMMENT="" />
    <EXPORT ORDINAL="1656" NAME="??HVector2@Ogre@@QBEABV01@XZ" PURGE="0" COMMENT="" />
    <EXPORT ORDINAL="1657" NAME="??HVector3@Ogre@@QBE?AV01@ABV01@@Z" PURGE="8" COMMENT="" />
    <EXPORT ORDINAL="1658" NAME="??HVector3@Ogre@@QBEABV01@XZ" PURGE="0" COMMENT="" />
    <EXPORT ORDINAL="1659" NAME="??HVector4@Ogre@@QBE?AV01@ABV01@@Z" PURGE="8" COMMENT="" />
    <EXPORT ORDINAL="1660" NAME="??HVector4@Ogre@@QBEABV01@XZ" PURGE="0" COMMENT="" />
    <EXPORT ORDINAL="1661" NAME="??KColourValue@Ogre@@QBE?AV01@ABV01@@Z" PURGE="8" COMMENT="" />
    <EXPORT ORDINAL="1662" NAME="??KColourValue@Ogre@@QBE?AV01@M@Z" PURGE="8" COMMENT="" />
    <EXPORT ORDINAL="1663" NAME="??KVector2@Ogre@@QBE?AV01@ABV01@@Z" PURGE="8" COMMENT="" />
    <EXPORT ORDINAL="1664" NAME="??KVector2@Ogre@@QBE?AV01@M@Z" PURGE="8" COMMENT="" />
    <EXPORT ORDINAL="1665" NAME="??KVector3@Ogre@@QBE?AV01@ABV01@@Z" PURGE="8" COMMENT="" />
    <EXPORT ORDINAL="1666" NAME="??KVector3@Ogre@@QBE?AV01@M@Z" PURGE="8" COMMENT="" />
    <EXPORT ORDINAL="1667" NAME="??KVector4@Ogre@@QBE?AV01@ABV01@@Z" PURGE="8" COMMENT="" />
    <EXPORT ORDINAL="1668" NAME="??KVector4@Ogre@@QBE?AV01@M@Z" PURGE="8" COMMENT="" />
    <EXPORT ORDINAL="1669" NAME="??MRaySceneQueryResultEntry@Ogre@@QBE_NABU01@@Z" PURGE="4" COMMENT="" />
    <EXPORT ORDINAL="1670" NAME="??MVector2@Ogre@@QBE_NABV01@@Z" PURGE="4" COMMENT="" />
    <EXPORT ORDINAL="1671" NAME="??MVector3@Ogre@@QBE_NABV01@@Z" PURGE="4" COMMENT="" />
    <EXPORT ORDINAL="1672" NAME="??OVector2@Ogre@@QBE_NABV01@@Z" PURGE="4" COMMENT="" />
    <EXPORT ORDINAL="1673" NAME="??OVector3@Ogre@@QBE_NABV01@@Z" PURGE="4" COMMENT="" />
    <EXPORT ORDINAL="1674" NAME="??RDepthSortDescendingLess@QueuedRenderableCollection@Ogre@@QBE_NABURenderablePass@2@0@Z" PURGE="8" COMMENT="" />
    <EXPORT ORDINAL="1675" NAME="??RPassGroupLess@QueuedRenderableCollection@Ogre@@QBE_NPBVPass@2@0@Z" PURGE="8" COMMENT="" />
    <EXPORT ORDINAL="1676" NAME="??RlightLess@SceneManager@Ogre@@QBE_NPBVLight@2@0@Z" PURGE="8" COMMENT="" />
    <EXPORT ORDINAL="1677" NAME="??RmaterialLess@SceneManager@Ogre@@QBE_NPBVMaterial@2@0@Z" PURGE="8" COMMENT="" />
    <EXPORT ORDINAL="1678" NAME="??RvectorLess@Ogre@@QBE_NABVVector3@1@0@Z" PURGE="8" COMMENT="" />
    <EXPORT ORDINAL="1679" NAME="??XColourValue@Ogre@@QAEAAV01@M@Z" PURGE="4" COMMENT="" />
    <EXPORT ORDINAL="1680" NAME="??XVector2@Ogre@@QAEAAV01@ABV01@@Z" PURGE="4" COMMENT="" />
    <EXPORT ORDINAL="1681" NAME="??XVector2@Ogre@@QAEAAV01@M@Z" PURGE="4" COMMENT="" />
    <EXPORT ORDINAL="1682" NAME="??XVector3@Ogre@@QAEAAV01@ABV01@@Z" PURGE="4" COMMENT="" />
    <EXPORT ORDINAL="1683" NAME="??XVector3@Ogre@@QAEAAV01@M@Z" PURGE="4" COMMENT="" />
    <EXPORT ORDINAL="1684" NAME="??XVector4@Ogre@@QAEAAV01@ABV01@@Z" PURGE="4" COMMENT="" />
    <EXPORT ORDINAL="1685" NAME="??XVector4@Ogre@@QAEAAV01@M@Z" PURGE="4" COMMENT="" />
    <EXPORT ORDINAL="1686" NAME="??YColourValue@Ogre@@QAEAAV01@ABV01@@Z" PURGE="4" COMMENT="" />
    <EXPORT ORDINAL="1687" NAME="??YVector2@Ogre@@QAEAAV01@ABV01@@Z" PURGE="4" COMMENT="" />
    <EXPORT ORDINAL="1688" NAME="??YVector2@Ogre@@QAEAAV01@M@Z" PURGE="4" COMMENT="" />
    <EXPORT ORDINAL="1689" NAME="??YVector3@Ogre@@QAEAAV01@ABV01@@Z" PURGE="4" COMMENT="" />
    <EXPORT ORDINAL="1690" NAME="??YVector3@Ogre@@QAEAAV01@M@Z" PURGE="4" COMMENT="" />
    <EXPORT ORDINAL="1691" NAME="??YVector4@Ogre@@QAEAAV01@ABV01@@Z" PURGE="4" COMMENT="" />
    <EXPORT ORDINAL="1692" NAME="??YVector4@Ogre@@QAEAAV01@M@Z" PURGE="4" COMMENT="" />
    <EXPORT ORDINAL="1693" NAME="??ZColourValue@Ogre@@QAEAAV01@ABV01@@Z" PURGE="4" COMMENT="" />
    <EXPORT ORDINAL="1694" NAME="??ZVector2@Ogre@@QAEAAV01@ABV01@@Z" PURGE="4" COMMENT="" />
    <EXPORT ORDINAL="1695" NAME="??ZVector2@Ogre@@QAEAAV01@M@Z" PURGE="4" COMMENT="" />
    <EXPORT ORDINAL="1696" NAME="??ZVector3@Ogre@@QAEAAV01@ABV01@@Z" PURGE="4" COMMENT="" />
    <EXPORT ORDINAL="1697" NAME="??ZVector3@Ogre@@QAEAAV01@M@Z" PURGE="4" COMMENT="" />
    <EXPORT ORDINAL="1698" NAME="??ZVector4@Ogre@@QAEAAV01@ABV01@@Z" PURGE="4" COMMENT="" />
    <EXPORT ORDINAL="1699" NAME="??ZVector4@Ogre@@QAEAAV01@M@Z" PURGE="4" COMMENT="" />
    <EXPORT ORDINAL="1700" NAME="??_0ColourValue@Ogre@@QAEAAV01@M@Z" PURGE="4" COMMENT="" />
    <EXPORT ORDINAL="1701" NAME="??_0Vector2@Ogre@@QAEAAV01@ABV01@@Z" PURGE="4" COMMENT="" />
    <EXPORT ORDINAL="1702" NAME="??_0Vector2@Ogre@@QAEAAV01@M@Z" PURGE="4" COMMENT="" />
    <EXPORT ORDINAL="1703" NAME="??_0Vector3@Ogre@@QAEAAV01@ABV01@@Z" PURGE="4" COMMENT="" />
    <EXPORT ORDINAL="1704" NAME="??_0Vector3@Ogre@@QAEAAV01@M@Z" PURGE="4" COMMENT="" />
    <EXPORT ORDINAL="1705" NAME="??_0Vector4@Ogre@@QAEAAV01@ABV01@@Z" PURGE="4" COMMENT="" />
    <EXPORT ORDINAL="1706" NAME="??_0Vector4@Ogre@@QAEAAV01@M@Z" PURGE="4" COMMENT="" />
    <EXPORT ORDINAL="1707" NAME="??_7?$ControllerFunction@M@Ogre@@6B@" PURGE="-1" COMMENT="" />
    <EXPORT ORDINAL="1708" NAME="??_7?$ControllerValue@M@Ogre@@6B@" PURGE="-1" COMMENT="" />
    <EXPORT ORDINAL="1709" NAME="??_7?$FactoryObj@VArchive@Ogre@@@Ogre@@6B@" PURGE="-1" COMMENT="" />
    <EXPORT ORDINAL="1710" NAME="??_7?$FactoryObj@VParticleSystemRenderer@Ogre@@@Ogre@@6B@" PURGE="-1" COMMENT="" />
    <EXPORT ORDINAL="1711" NAME="??_7?$SharedPtr@VCompositor@Ogre@@@Ogre@@6B@" PURGE="-1" COMMENT="" />
    <EXPORT ORDINAL="1712" NAME="??_7?$SharedPtr@VFont@Ogre@@@Ogre@@6B@" PURGE="-1" COMMENT="" />
    <EXPORT ORDINAL="1713" NAME="??_7?$SharedPtr@VGpuProgram@Ogre@@@Ogre@@6B@" PURGE="-1" COMMENT="" />
    <EXPORT ORDINAL="1714" NAME="??_7?$SharedPtr@VHardwareIndexBuffer@Ogre@@@Ogre@@6B@" PURGE="-1" COMMENT="" />
    <EXPORT ORDINAL="1715" NAME="??_7?$SharedPtr@VHardwarePixelBuffer@Ogre@@@Ogre@@6B@" PURGE="-1" COMMENT="" />
    <EXPORT ORDINAL="1716" NAME="??_7?$SharedPtr@VHardwareVertexBuffer@Ogre@@@Ogre@@6B@" PURGE="-1" COMMENT="" />
    <EXPORT ORDINAL="1717" NAME="??_7?$SharedPtr@VHighLevelGpuProgram@Ogre@@@Ogre@@6B@" PURGE="-1" COMMENT="" />
    <EXPORT ORDINAL="1718" NAME="??_7?$SharedPtr@VMaterial@Ogre@@@Ogre@@6B@" PURGE="-1" COMMENT="" />
    <EXPORT ORDINAL="1719" NAME="??_7?$SharedPtr@VMesh@Ogre@@@Ogre@@6B@" PURGE="-1" COMMENT="" />
    <EXPORT ORDINAL="1720" NAME="??_7?$SharedPtr@VPatchMesh@Ogre@@@Ogre@@6B@" PURGE="-1" COMMENT="" />
    <EXPORT ORDINAL="1721" NAME="??_7?$SharedPtr@VSkeleton@Ogre@@@Ogre@@6B@" PURGE="-1" COMMENT="" />
    <EXPORT ORDINAL="1722" NAME="??_7?$SharedPtr@VTexture@Ogre@@@Ogre@@6B@" PURGE="-1" COMMENT="" />
    <EXPORT ORDINAL="1723" NAME="??_7AnimableObject@Ogre@@6B@" PURGE="-1" COMMENT="" />
    <EXPORT ORDINAL="1724" NAME="??_7AnimableValue@Ogre@@6B@" PURGE="-1" COMMENT="" />
    <EXPORT ORDINAL="1725" NAME="??_7Animation@Ogre@@6B@" PURGE="-1" COMMENT="" />
    <EXPORT ORDINAL="1726" NAME="??_7AnimationControllerFunction@Ogre@@6B@" PURGE="-1" COMMENT="" />
    <EXPORT ORDINAL="1727" NAME="??_7AnimationState@Ogre@@6B@" PURGE="-1" COMMENT="" />
    <EXPORT ORDINAL="1728" NAME="??_7AnimationStateControllerValue@Ogre@@6B@" PURGE="-1" COMMENT="" />
    <EXPORT ORDINAL="1729" NAME="??_7AnimationTrack@Ogre@@6B@" PURGE="-1" COMMENT="" />
    <EXPORT ORDINAL="1730" NAME="??_7Archive@Ogre@@6B@" PURGE="-1" COMMENT="" />
    <EXPORT ORDINAL="1731" NAME="??_7ArchiveFactory@Ogre@@6B@" PURGE="-1" COMMENT="" />
    <EXPORT ORDINAL="1732" NAME="??_7ArchiveManager@Ogre@@6B@" PURGE="-1" COMMENT="" />
    <EXPORT ORDINAL="1733" NAME="??_7AxisAlignedBoxSceneQuery@Ogre@@6BSceneQuery@1@@" PURGE="-1" COMMENT="" />
    <EXPORT ORDINAL="1734" NAME="??_7AxisAlignedBoxSceneQuery@Ogre@@6BSceneQueryListener@1@@" PURGE="-1" COMMENT="" />
    <EXPORT ORDINAL="1735" NAME="??_7BillboardChain@Ogre@@6B@" PURGE="-1" COMMENT="" />
    <EXPORT ORDINAL="1736" NAME="??_7BillboardChain@Ogre@@6BAnimableObject@1@@" PURGE="-1" COMMENT="" />
    <EXPORT ORDINAL="1737" NAME="??_7BillboardChain@Ogre@@6BShadowCaster@1@@" PURGE="-1" COMMENT="" />
    <EXPORT ORDINAL="1738" NAME="??_7BillboardChainFactory@Ogre@@6B@" PURGE="-1" COMMENT="" />
    <EXPORT ORDINAL="1739" NAME="??_7BillboardParticleRenderer@Ogre@@6B@" PURGE="-1" COMMENT="" />
    <EXPORT ORDINAL="1740" NAME="??_7BillboardParticleRendererFactory@Ogre@@6B@" PURGE="-1" COMMENT="" />
    <EXPORT ORDINAL="1741" NAME="??_7BillboardSet@Ogre@@6B@" PURGE="-1" COMMENT="" />
    <EXPORT ORDINAL="1742" NAME="??_7BillboardSet@Ogre@@6BAnimableObject@1@@" PURGE="-1" COMMENT="" />
    <EXPORT ORDINAL="1743" NAME="??_7BillboardSet@Ogre@@6BShadowCaster@1@@" PURGE="-1" COMMENT="" />
    <EXPORT ORDINAL="1744" NAME="??_7BillboardSetFactory@Ogre@@6B@" PURGE="-1" COMMENT="" />
    <EXPORT ORDINAL="1745" NAME="??_7Bone@Ogre@@6B@" PURGE="-1" COMMENT="" />
    <EXPORT ORDINAL="1746" NAME="??_7BorderPanelOverlayElement@Ogre@@6BRenderable@1@@" PURGE="-1" COMMENT="" />
    <EXPORT ORDINAL="1747" NAME="??_7BorderPanelOverlayElement@Ogre@@6BStringInterface@1@@" PURGE="-1" COMMENT="" />
    <EXPORT ORDINAL="1748" NAME="??_7BorderPanelOverlayElementFactory@Ogre@@6B@" PURGE="-1" COMMENT="" />
    <EXPORT ORDINAL="1749" NAME="??_7BorderRenderable@Ogre@@6B@" PURGE="-1" COMMENT="" />
    <EXPORT ORDINAL="1750" NAME="??_7Camera@Ogre@@6B@" PURGE="-1" COMMENT="" />
    <EXPORT ORDINAL="1751" NAME="??_7Camera@Ogre@@6BAnimableObject@1@@" PURGE="-1" COMMENT="" />
    <EXPORT ORDINAL="1752" NAME="??_7Camera@Ogre@@6BShadowCaster@1@@" PURGE="-1" COMMENT="" />
    <EXPORT ORDINAL="1753" NAME="??_7CmdAngle@EmitterCommands@Ogre@@6B@" PURGE="-1" COMMENT="" />
    <EXPORT ORDINAL="1754" NAME="??_7CmdCaption@OverlayElementCommands@Ogre@@6B@" PURGE="-1" COMMENT="" />
    <EXPORT ORDINAL="1755" NAME="??_7CmdColour@EmitterCommands@Ogre@@6B@" PURGE="-1" COMMENT="" />
    <EXPORT ORDINAL="1756" NAME="??_7CmdColourRangeEnd@EmitterCommands@Ogre@@6B@" PURGE="-1" COMMENT="" />
    <EXPORT ORDINAL="1757" NAME="??_7CmdColourRangeStart@EmitterCommands@Ogre@@6B@" PURGE="-1" COMMENT="" />
    <EXPORT ORDINAL="1758" NAME="??_7CmdDirection@EmitterCommands@Ogre@@6B@" PURGE="-1" COMMENT="" />
    <EXPORT ORDINAL="1759" NAME="??_7CmdDuration@EmitterCommands@Ogre@@6B@" PURGE="-1" COMMENT="" />
    <EXPORT ORDINAL="1760" NAME="??_7CmdEmissionRate@EmitterCommands@Ogre@@6B@" PURGE="-1" COMMENT="" />
    <EXPORT ORDINAL="1761" NAME="??_7CmdHeight@OverlayElementCommands@Ogre@@6B@" PURGE="-1" COMMENT="" />
    <EXPORT ORDINAL="1762" NAME="??_7CmdHorizontalAlign@OverlayElementCommands@Ogre@@6B@" PURGE="-1" COMMENT="" />
    <EXPORT ORDINAL="1763" NAME="??_7CmdLeft@OverlayElementCommands@Ogre@@6B@" PURGE="-1" COMMENT="" />
    <EXPORT ORDINAL="1764" NAME="??_7CmdMaterial@OverlayElementCommands@Ogre@@6B@" PURGE="-1" COMMENT="" />
    <EXPORT ORDINAL="1765" NAME="??_7CmdMaxDuration@EmitterCommands@Ogre@@6B@" PURGE="-1" COMMENT="" />
    <EXPORT ORDINAL="1766" NAME="??_7CmdMaxRepeatDelay@EmitterCommands@Ogre@@6B@" PURGE="-1" COMMENT="" />
    <EXPORT ORDINAL="1767" NAME="??_7CmdMaxTTL@EmitterCommands@Ogre@@6B@" PURGE="-1" COMMENT="" />
    <EXPORT ORDINAL="1768" NAME="??_7CmdMaxVelocity@EmitterCommands@Ogre@@6B@" PURGE="-1" COMMENT="" />
    <EXPORT ORDINAL="1769" NAME="??_7CmdMetricsMode@OverlayElementCommands@Ogre@@6B@" PURGE="-1" COMMENT="" />
    <EXPORT ORDINAL="1770" NAME="??_7CmdMinDuration@EmitterCommands@Ogre@@6B@" PURGE="-1" COMMENT="" />
    <EXPORT ORDINAL="1771" NAME="??_7CmdMinRepeatDelay@EmitterCommands@Ogre@@6B@" PURGE="-1" COMMENT="" />
    <EXPORT ORDINAL="1772" NAME="??_7CmdMinTTL@EmitterCommands@Ogre@@6B@" PURGE="-1" COMMENT="" />
    <EXPORT ORDINAL="1773" NAME="??_7CmdMinVelocity@EmitterCommands@Ogre@@6B@" PURGE="-1" COMMENT="" />
    <EXPORT ORDINAL="1774" NAME="??_7CmdPosition@EmitterCommands@Ogre@@6B@" PURGE="-1" COMMENT="" />
    <EXPORT ORDINAL="1775" NAME="??_7CmdRepeatDelay@EmitterCommands@Ogre@@6B@" PURGE="-1" COMMENT="" />
    <EXPORT ORDINAL="1776" NAME="??_7CmdResolution@Font@Ogre@@6B@" PURGE="-1" COMMENT="" />
    <EXPORT ORDINAL="1777" NAME="??_7CmdSize@Font@Ogre@@6B@" PURGE="-1" COMMENT="" />
    <EXPORT ORDINAL="1778" NAME="??_7CmdSkeletal@GpuProgram@Ogre@@6B@" PURGE="-1" COMMENT="" />
    <EXPORT ORDINAL="1779" NAME="??_7CmdSource@Font@Ogre@@6B@" PURGE="-1" COMMENT="" />
    <EXPORT ORDINAL="1780" NAME="??_7CmdSyntax@GpuProgram@Ogre@@6B@" PURGE="-1" COMMENT="" />
    <EXPORT ORDINAL="1781" NAME="??_7CmdTTL@EmitterCommands@Ogre@@6B@" PURGE="-1" COMMENT="" />
    <EXPORT ORDINAL="1782" NAME="??_7CmdTop@OverlayElementCommands@Ogre@@6B@" PURGE="-1" COMMENT="" />
    <EXPORT ORDINAL="1783" NAME="??_7CmdType@Font@Ogre@@6B@" PURGE="-1" COMMENT="" />
    <EXPORT ORDINAL="1784" NAME="??_7CmdType@GpuProgram@Ogre@@6B@" PURGE="-1" COMMENT="" />
    <EXPORT ORDINAL="1785" NAME="??_7CmdVelocity@EmitterCommands@Ogre@@6B@" PURGE="-1" COMMENT="" />
    <EXPORT ORDINAL="1786" NAME="??_7CmdVerticalAlign@OverlayElementCommands@Ogre@@6B@" PURGE="-1" COMMENT="" />
    <EXPORT ORDINAL="1787" NAME="??_7CmdVisible@OverlayElementCommands@Ogre@@6B@" PURGE="-1" COMMENT="" />
    <EXPORT ORDINAL="1788" NAME="??_7CmdWidth@OverlayElementCommands@Ogre@@6B@" PURGE="-1" COMMENT="" />
    <EXPORT ORDINAL="1789" NAME="??_7Codec@Ogre@@6B@" PURGE="-1" COMMENT="" />
    <EXPORT ORDINAL="1790" NAME="??_7Compiler2Pass@Ogre@@6B@" PURGE="-1" COMMENT="" />
    <EXPORT ORDINAL="1791" NAME="??_7CompositionTechnique@Ogre@@6B@" PURGE="-1" COMMENT="" />
    <EXPORT ORDINAL="1792" NAME="??_7Compositor@Ogre@@6B@" PURGE="-1" COMMENT="" />
    <EXPORT ORDINAL="1793" NAME="??_7CompositorChain@Ogre@@6B@" PURGE="-1" COMMENT="" />
    <EXPORT ORDINAL="1794" NAME="??_7CompositorInstance@Ogre@@6B@" PURGE="-1" COMMENT="" />
    <EXPORT ORDINAL="1795" NAME="??_7CompositorManager@Ogre@@6B@" PURGE="-1" COMMENT="" />
    <EXPORT ORDINAL="1796" NAME="??_7CompositorPtr@Ogre@@6B@" PURGE="-1" COMMENT="" />
    <EXPORT ORDINAL="1797" NAME="??_7CompositorScriptCompiler@Ogre@@6B@" PURGE="-1" COMMENT="" />
    <EXPORT ORDINAL="1798" NAME="??_7CompositorSerializer@Ogre@@6B@" PURGE="-1" COMMENT="" />
    <EXPORT ORDINAL="1799" NAME="??_7ConfigDialog@Ogre@@6B@" PURGE="-1" COMMENT="" />
    <EXPORT ORDINAL="1800" NAME="??_7ConfigFile@Ogre@@6B@" PURGE="-1" COMMENT="" />
    <EXPORT ORDINAL="1801" NAME="??_7Cursor@Ogre@@6BMouseMotionTarget@1@@" PURGE="-1" COMMENT="" />
    <EXPORT ORDINAL="1802" NAME="??_7Cursor@Ogre@@6BMouseTarget@1@@" PURGE="-1" COMMENT="" />
    <EXPORT ORDINAL="1803" NAME="??_7DataStream@Ogre@@6B@" PURGE="-1" COMMENT="" />
    <EXPORT ORDINAL="1804" NAME="??_7DefaultAxisAlignedBoxSceneQuery@Ogre@@6BSceneQuery@1@@" PURGE="-1" COMMENT="" />
    <EXPORT ORDINAL="1805" NAME="??_7DefaultAxisAlignedBoxSceneQuery@Ogre@@6BSceneQueryListener@1@@" PURGE="-1" COMMENT="" />
    <EXPORT ORDINAL="1806" NAME="??_7DefaultHardwareBufferManager@Ogre@@6B@" PURGE="-1" COMMENT="" />
    <EXPORT ORDINAL="1807" NAME="??_7DefaultHardwareIndexBuffer@Ogre@@6B@" PURGE="-1" COMMENT="" />
    <EXPORT ORDINAL="1808" NAME="??_7DefaultHardwareVertexBuffer@Ogre@@6B@" PURGE="-1" COMMENT="" />
    <EXPORT ORDINAL="1809" NAME="??_7DefaultIntersectionSceneQuery@Ogre@@6BIntersectionSceneQueryListener@1@@" PURGE="-1" COMMENT="" />
    <EXPORT ORDINAL="1810" NAME="??_7DefaultIntersectionSceneQuery@Ogre@@6BSceneQuery@1@@" PURGE="-1" COMMENT="" />
    <EXPORT ORDINAL="1811" NAME="??_7DefaultPlaneBoundedVolumeListSceneQuery@Ogre@@6BSceneQuery@1@@" PURGE="-1" COMMENT="" />
    <EXPORT ORDINAL="1812" NAME="??_7DefaultPlaneBoundedVolumeListSceneQuery@Ogre@@6BSceneQueryListener@1@@" PURGE="-1" COMMENT="" />
    <EXPORT ORDINAL="1813" NAME="??_7DefaultRaySceneQuery@Ogre@@6BRaySceneQueryListener@1@@" PURGE="-1" COMMENT="" />
    <EXPORT ORDINAL="1814" NAME="??_7DefaultRaySceneQuery@Ogre@@6BSceneQuery@1@@" PURGE="-1" COMMENT="" />
    <EXPORT ORDINAL="1815" NAME="??_7DefaultSceneManager@Ogre@@6B@" PURGE="-1" COMMENT="" />
    <EXPORT ORDINAL="1816" NAME="??_7DefaultSceneManagerFactory@Ogre@@6B@" PURGE="-1" COMMENT="" />
    <EXPORT ORDINAL="1817" NAME="??_7DefaultShadowCameraSetup@Ogre@@6B@" PURGE="-1" COMMENT="" />
    <EXPORT ORDINAL="1818" NAME="??_7DefaultSphereSceneQuery@Ogre@@6BSceneQuery@1@@" PURGE="-1" COMMENT="" />
    <EXPORT ORDINAL="1819" NAME="??_7DefaultSphereSceneQuery@Ogre@@6BSceneQueryListener@1@@" PURGE="-1" COMMENT="" />
    <EXPORT ORDINAL="1820" NAME="??_7DynLibManager@Ogre@@6B@" PURGE="-1" COMMENT="" />
    <EXPORT ORDINAL="1821" NAME="??_7EdgeListBuilder@Ogre@@6B@" PURGE="-1" COMMENT="" />
    <EXPORT ORDINAL="1822" NAME="??_7Entity@Ogre@@6BAnimableObject@1@@" PURGE="-1" COMMENT="" />
    <EXPORT ORDINAL="1823" NAME="??_7Entity@Ogre@@6BShadowCaster@1@@" PURGE="-1" COMMENT="" />
    <EXPORT ORDINAL="1824" NAME="??_7EntityFactory@Ogre@@6B@" PURGE="-1" COMMENT="" />
    <EXPORT ORDINAL="1825" NAME="??_7EntityShadowRenderable@Entity@Ogre@@6B@" PURGE="-1" COMMENT="" />
    <EXPORT ORDINAL="1826" NAME="??_7ErrorDialog@Ogre@@6B@" PURGE="-1" COMMENT="" />
    <EXPORT ORDINAL="1827" NAME="??_7EventDispatcher@Ogre@@6B@" PURGE="-1" COMMENT="" />
    <EXPORT ORDINAL="1828" NAME="??_7EventListener@Ogre@@6B@" PURGE="-1" COMMENT="" />
    <EXPORT ORDINAL="1829" NAME="??_7EventProcessor@Ogre@@6BFrameListener@1@@" PURGE="-1" COMMENT="" />
    <EXPORT ORDINAL="1830" NAME="??_7EventProcessor@Ogre@@6BKeyTarget@1@@" PURGE="-1" COMMENT="" />
    <EXPORT ORDINAL="1831" NAME="??_7EventProcessor@Ogre@@6BMouseMotionTarget@1@@" PURGE="-1" COMMENT="" />
    <EXPORT ORDINAL="1832" NAME="??_7EventProcessor@Ogre@@6BMouseTarget@1@@" PURGE="-1" COMMENT="" />
    <EXPORT ORDINAL="1833" NAME="??_7EventQueue@Ogre@@6B@" PURGE="-1" COMMENT="" />
    <EXPORT ORDINAL="1834" NAME="??_7EventTarget@Ogre@@6B@" PURGE="-1" COMMENT="" />
    <EXPORT ORDINAL="1835" NAME="??_7Exception@Ogre@@6B@" PURGE="-1" COMMENT="" />
    <EXPORT ORDINAL="1836" NAME="??_7ExternalTextureSource@Ogre@@6B@" PURGE="-1" COMMENT="" />
    <EXPORT ORDINAL="1837" NAME="??_7FileHandleDataStream@Ogre@@6B@" PURGE="-1" COMMENT="" />
    <EXPORT ORDINAL="1838" NAME="??_7FileStreamDataStream@Ogre@@6B@" PURGE="-1" COMMENT="" />
    <EXPORT ORDINAL="1839" NAME="??_7FileSystemArchive@Ogre@@6B@" PURGE="-1" COMMENT="" />
    <EXPORT ORDINAL="1840" NAME="??_7FloatGpuParameterControllerValue@Ogre@@6B@" PURGE="-1" COMMENT="" />
    <EXPORT ORDINAL="1841" NAME="??_7Font@Ogre@@6BManualResourceLoader@1@@" PURGE="-1" COMMENT="" />
    <EXPORT ORDINAL="1842" NAME="??_7Font@Ogre@@6BResource@1@@" PURGE="-1" COMMENT="" />
    <EXPORT ORDINAL="1843" NAME="??_7FontManager@Ogre@@6B@" PURGE="-1" COMMENT="" />
    <EXPORT ORDINAL="1844" NAME="??_7FontPtr@Ogre@@6B@" PURGE="-1" COMMENT="" />
    <EXPORT ORDINAL="1845" NAME="??_7FrameListener@Ogre@@6B@" PURGE="-1" COMMENT="" />
    <EXPORT ORDINAL="1846" NAME="??_7FrameTimeControllerValue@Ogre@@6B?$ControllerValue@M@1@@" PURGE="-1" COMMENT="" />
    <EXPORT ORDINAL="1847" NAME="??_7FrameTimeControllerValue@Ogre@@6BFrameListener@1@@" PURGE="-1" COMMENT="" />
    <EXPORT ORDINAL="1848" NAME="??_7Frustum@Ogre@@6B@" PURGE="-1" COMMENT="" />
    <EXPORT ORDINAL="1849" NAME="??_7Frustum@Ogre@@6BAnimableObject@1@@" PURGE="-1" COMMENT="" />
    <EXPORT ORDINAL="1850" NAME="??_7Frustum@Ogre@@6BShadowCaster@1@@" PURGE="-1" COMMENT="" />
    <EXPORT ORDINAL="1851" NAME="??_7GeometryBucket@StaticGeometry@Ogre@@6B@" PURGE="-1" COMMENT="" />
    <EXPORT ORDINAL="1852" NAME="??_7GpuProgram@Ogre@@6B@" PURGE="-1" COMMENT="" />
    <EXPORT ORDINAL="1853" NAME="??_7GpuProgramManager@Ogre@@6B@" PURGE="-1" COMMENT="" />
    <EXPORT ORDINAL="1854" NAME="??_7GpuProgramPtr@Ogre@@6B@" PURGE="-1" COMMENT="" />
    <EXPORT ORDINAL="1855" NAME="??_7HardwareBuffer@Ogre@@6B@" PURGE="-1" COMMENT="" />
    <EXPORT ORDINAL="1856" NAME="??_7HardwareBufferLicensee@Ogre@@6B@" PURGE="-1" COMMENT="" />
    <EXPORT ORDINAL="1857" NAME="??_7HardwareBufferManager@Ogre@@6B@" PURGE="-1" COMMENT="" />
    <EXPORT ORDINAL="1858" NAME="??_7HardwareIndexBuffer@Ogre@@6B@" PURGE="-1" COMMENT="" />
    <EXPORT ORDINAL="1859" NAME="??_7HardwareIndexBufferSharedPtr@Ogre@@6B@" PURGE="-1" COMMENT="" />
    <EXPORT ORDINAL="1860" NAME="??_7HardwareOcclusionQuery@Ogre@@6B@" PURGE="-1" COMMENT="" />
    <EXPORT ORDINAL="1861" NAME="??_7HardwarePixelBuffer@Ogre@@6B@" PURGE="-1" COMMENT="" />
    <EXPORT ORDINAL="1862" NAME="??_7HardwarePixelBufferSharedPtr@Ogre@@6B@" PURGE="-1" COMMENT="" />
    <EXPORT ORDINAL="1863" NAME="??_7HardwareVertexBuffer@Ogre@@6B@" PURGE="-1" COMMENT="" />
    <EXPORT ORDINAL="1864" NAME="??_7HardwareVertexBufferSharedPtr@Ogre@@6B@" PURGE="-1" COMMENT="" />
    <EXPORT ORDINAL="1865" NAME="??_7HighLevelGpuProgram@Ogre@@6B@" PURGE="-1" COMMENT="" />
    <EXPORT ORDINAL="1866" NAME="??_7HighLevelGpuProgramFactory@Ogre@@6B@" PURGE="-1" COMMENT="" />
    <EXPORT ORDINAL="1867" NAME="??_7HighLevelGpuProgramManager@Ogre@@6B@" PURGE="-1" COMMENT="" />
    <EXPORT ORDINAL="1868" NAME="??_7HighLevelGpuProgramPtr@Ogre@@6B@" PURGE="-1" COMMENT="" />
    <EXPORT ORDINAL="1869" NAME="??_7ILImageCodec@Ogre@@6B@" PURGE="-1" COMMENT="" />
    <EXPORT ORDINAL="1870" NAME="??_7Image@Ogre@@6B@" PURGE="-1" COMMENT="" />
    <EXPORT ORDINAL="1871" NAME="??_7ImageCodec@Ogre@@6B@" PURGE="-1" COMMENT="" />
    <EXPORT ORDINAL="1872" NAME="??_7InputReader@Ogre@@6B@" PURGE="-1" COMMENT="" />
    <EXPORT ORDINAL="1873" NAME="??_7IntersectionSceneQuery@Ogre@@6BIntersectionSceneQueryListener@1@@" PURGE="-1" COMMENT="" />
    <EXPORT ORDINAL="1874" NAME="??_7IntersectionSceneQuery@Ogre@@6BSceneQuery@1@@" PURGE="-1" COMMENT="" />
    <EXPORT ORDINAL="1875" NAME="??_7IntersectionSceneQueryListener@Ogre@@6B@" PURGE="-1" COMMENT="" />
    <EXPORT ORDINAL="1876" NAME="??_7KeyFrame@Ogre@@6B@" PURGE="-1" COMMENT="" />
    <EXPORT ORDINAL="1877" NAME="??_7KeyListener@Ogre@@6B@" PURGE="-1" COMMENT="" />
    <EXPORT ORDINAL="1878" NAME="??_7KeyTarget@Ogre@@6B@" PURGE="-1" COMMENT="" />
    <EXPORT ORDINAL="1879" NAME="??_7LODBucket@StaticGeometry@Ogre@@6B@" PURGE="-1" COMMENT="" />
    <EXPORT ORDINAL="1880" NAME="??_7Light@Ogre@@6BAnimableObject@1@@" PURGE="-1" COMMENT="" />
    <EXPORT ORDINAL="1881" NAME="??_7Light@Ogre@@6BShadowCaster@1@@" PURGE="-1" COMMENT="" />
    <EXPORT ORDINAL="1882" NAME="??_7LightFactory@Ogre@@6B@" PURGE="-1" COMMENT="" />
    <EXPORT ORDINAL="1883" NAME="??_7Listener@CompositorInstance@Ogre@@6B@" PURGE="-1" COMMENT="" />
    <EXPORT ORDINAL="1884" NAME="??_7Listener@MovableObject@Ogre@@6B@" PURGE="-1" COMMENT="" />
    <EXPORT ORDINAL="1885" NAME="??_7Listener@Node@Ogre@@6B@" PURGE="-1" COMMENT="" />
    <EXPORT ORDINAL="1886" NAME="??_7Listener@RenderSystem@Ogre@@6B@" PURGE="-1" COMMENT="" />
    <EXPORT ORDINAL="1887" NAME="??_7LogListener@Ogre@@6B@" PURGE="-1" COMMENT="" />
    <EXPORT ORDINAL="1888" NAME="??_7ManualObject@Ogre@@6BAnimableObject@1@@" PURGE="-1" COMMENT="" />
    <EXPORT ORDINAL="1889" NAME="??_7ManualObject@Ogre@@6BShadowCaster@1@@" PURGE="-1" COMMENT="" />
    <EXPORT ORDINAL="1890" NAME="??_7ManualObjectFactory@Ogre@@6B@" PURGE="-1" COMMENT="" />
    <EXPORT ORDINAL="1891" NAME="??_7ManualObjectSection@ManualObject@Ogre@@6B@" PURGE="-1" COMMENT="" />
    <EXPORT ORDINAL="1892" NAME="??_7ManualObjectSectionShadowRenderable@ManualObject@Ogre@@6B@" PURGE="-1" COMMENT="" />
    <EXPORT ORDINAL="1893" NAME="??_7ManualResourceLoader@Ogre@@6B@" PURGE="-1" COMMENT="" />
    <EXPORT ORDINAL="1894" NAME="??_7Material@Ogre@@6B@" PURGE="-1" COMMENT="" />
    <EXPORT ORDINAL="1895" NAME="??_7MaterialBucket@StaticGeometry@Ogre@@6B@" PURGE="-1" COMMENT="" />
    <EXPORT ORDINAL="1896" NAME="??_7MaterialManager@Ogre@@6B@" PURGE="-1" COMMENT="" />
    <EXPORT ORDINAL="1897" NAME="??_7MaterialPtr@Ogre@@6B@" PURGE="-1" COMMENT="" />
    <EXPORT ORDINAL="1898" NAME="??_7MaterialScriptCompiler@Ogre@@6B@" PURGE="-1" COMMENT="" />
    <EXPORT ORDINAL="1899" NAME="??_7MaterialSerializer@Ogre@@6B@" PURGE="-1" COMMENT="" />
    <EXPORT ORDINAL="1900" NAME="??_7MemoryDataStream@Ogre@@6B@" PURGE="-1" COMMENT="" />
    <EXPORT ORDINAL="1901" NAME="??_7Mesh@Ogre@@6B@" PURGE="-1" COMMENT="" />
    <EXPORT ORDINAL="1902" NAME="??_7MeshManager@Ogre@@6BManualResourceLoader@1@@" PURGE="-1" COMMENT="" />
    <EXPORT ORDINAL="1903" NAME="??_7MeshManager@Ogre@@6BResourceManager@1@@" PURGE="-1" COMMENT="" />
    <EXPORT ORDINAL="1904" NAME="??_7MeshPtr@Ogre@@6B@" PURGE="-1" COMMENT="" />
    <EXPORT ORDINAL="1905" NAME="??_7MeshSerializer@Ogre@@6B@" PURGE="-1" COMMENT="" />
    <EXPORT ORDINAL="1906" NAME="??_7MouseListener@Ogre@@6B@" PURGE="-1" COMMENT="" />
    <EXPORT ORDINAL="1907" NAME="??_7MouseMotionListener@Ogre@@6B@" PURGE="-1" COMMENT="" />
    <EXPORT ORDINAL="1908" NAME="??_7MouseMotionTarget@Ogre@@6B@" PURGE="-1" COMMENT="" />
    <EXPORT ORDINAL="1909" NAME="??_7MouseTarget@Ogre@@6B@" PURGE="-1" COMMENT="" />
    <EXPORT ORDINAL="1910" NAME="??_7MovableObject@Ogre@@6BAnimableObject@1@@" PURGE="-1" COMMENT="" />
    <EXPORT ORDINAL="1911" NAME="??_7MovableObject@Ogre@@6BShadowCaster@1@@" PURGE="-1" COMMENT="" />
    <EXPORT ORDINAL="1912" NAME="??_7MovableObjectFactory@Ogre@@6B@" PURGE="-1" COMMENT="" />
    <EXPORT ORDINAL="1913" NAME="??_7MovablePlane@Ogre@@6BAnimableObject@1@@" PURGE="-1" COMMENT="" />
    <EXPORT ORDINAL="1914" NAME="??_7MovablePlane@Ogre@@6BShadowCaster@1@@" PURGE="-1" COMMENT="" />
    <EXPORT ORDINAL="1915" NAME="??_7MultiRenderTarget@Ogre@@6B@" PURGE="-1" COMMENT="" />
    <EXPORT ORDINAL="1916" NAME="??_7Node@Ogre@@6B@" PURGE="-1" COMMENT="" />
    <EXPORT ORDINAL="1917" NAME="??_7NodeAnimationTrack@Ogre@@6B@" PURGE="-1" COMMENT="" />
    <EXPORT ORDINAL="1918" NAME="??_7NumericAnimationTrack@Ogre@@6B@" PURGE="-1" COMMENT="" />
    <EXPORT ORDINAL="1919" NAME="??_7NumericKeyFrame@Ogre@@6B@" PURGE="-1" COMMENT="" />
    <EXPORT ORDINAL="1920" NAME="??_7OptimisedUtil@Ogre@@6B@" PURGE="-1" COMMENT="" />
    <EXPORT ORDINAL="1921" NAME="??_7Overlay@Ogre@@6B@" PURGE="-1" COMMENT="" />
    <EXPORT ORDINAL="1922" NAME="??_7OverlayContainer@Ogre@@6BRenderable@1@@" PURGE="-1" COMMENT="" />
    <EXPORT ORDINAL="1923" NAME="??_7OverlayContainer@Ogre@@6BStringInterface@1@@" PURGE="-1" COMMENT="" />
    <EXPORT ORDINAL="1924" NAME="??_7OverlayElement@Ogre@@6BRenderable@1@@" PURGE="-1" COMMENT="" />
    <EXPORT ORDINAL="1925" NAME="??_7OverlayElement@Ogre@@6BStringInterface@1@@" PURGE="-1" COMMENT="" />
    <EXPORT ORDINAL="1926" NAME="??_7OverlayElementFactory@Ogre@@6B@" PURGE="-1" COMMENT="" />
    <EXPORT ORDINAL="1927" NAME="??_7OverlayManager@Ogre@@6B@" PURGE="-1" COMMENT="" />
    <EXPORT ORDINAL="1928" NAME="??_7PanelOverlayElement@Ogre@@6BRenderable@1@@" PURGE="-1" COMMENT="" />
    <EXPORT ORDINAL="1929" NAME="??_7PanelOverlayElement@Ogre@@6BStringInterface@1@@" PURGE="-1" COMMENT="" />
    <EXPORT ORDINAL="1930" NAME="??_7PanelOverlayElementFactory@Ogre@@6B@" PURGE="-1" COMMENT="" />
    <EXPORT ORDINAL="1931" NAME="??_7ParamCommand@Ogre@@6B@" PURGE="-1" COMMENT="" />
    <EXPORT ORDINAL="1932" NAME="??_7ParticleAffector@Ogre@@6B@" PURGE="-1" COMMENT="" />
    <EXPORT ORDINAL="1933" NAME="??_7ParticleAffectorFactory@Ogre@@6B@" PURGE="-1" COMMENT="" />
    <EXPORT ORDINAL="1934" NAME="??_7ParticleEmitter@Ogre@@6B@" PURGE="-1" COMMENT="" />
    <EXPORT ORDINAL="1935" NAME="??_7ParticleEmitterFactory@Ogre@@6B@" PURGE="-1" COMMENT="" />
    <EXPORT ORDINAL="1936" NAME="??_7ParticleSystem@Ogre@@6B@" PURGE="-1" COMMENT="" />
    <EXPORT ORDINAL="1937" NAME="??_7ParticleSystem@Ogre@@6BAnimableObject@1@@" PURGE="-1" COMMENT="" />
    <EXPORT ORDINAL="1938" NAME="??_7ParticleSystem@Ogre@@6BShadowCaster@1@@" PURGE="-1" COMMENT="" />
    <EXPORT ORDINAL="1939" NAME="??_7ParticleSystemFactory@Ogre@@6B@" PURGE="-1" COMMENT="" />
    <EXPORT ORDINAL="1940" NAME="??_7ParticleSystemManager@Ogre@@6B@" PURGE="-1" COMMENT="" />
    <EXPORT ORDINAL="1941" NAME="??_7ParticleSystemRenderer@Ogre@@6B@" PURGE="-1" COMMENT="" />
    <EXPORT ORDINAL="1942" NAME="??_7ParticleSystemRendererFactory@Ogre@@6B@" PURGE="-1" COMMENT="" />
    <EXPORT ORDINAL="1943" NAME="??_7ParticleVisualData@Ogre@@6B@" PURGE="-1" COMMENT="" />
    <EXPORT ORDINAL="1944" NAME="??_7PassthroughControllerFunction@Ogre@@6B@" PURGE="-1" COMMENT="" />
    <EXPORT ORDINAL="1945" NAME="??_7PatchMesh@Ogre@@6B@" PURGE="-1" COMMENT="" />
    <EXPORT ORDINAL="1946" NAME="??_7PatchMeshPtr@Ogre@@6B@" PURGE="-1" COMMENT="" />
    <EXPORT ORDINAL="1947" NAME="??_7PlaneBoundedVolumeListSceneQuery@Ogre@@6BSceneQuery@1@@" PURGE="-1" COMMENT="" />
    <EXPORT ORDINAL="1948" NAME="??_7PlaneBoundedVolumeListSceneQuery@Ogre@@6BSceneQueryListener@1@@" PURGE="-1" COMMENT="" />
    <EXPORT ORDINAL="1949" NAME="??_7PlaneOptimalShadowCameraSetup@Ogre@@6B@" PURGE="-1" COMMENT="" />
    <EXPORT ORDINAL="1950" NAME="??_7Pose@Ogre@@6B@" PURGE="-1" COMMENT="" />
    <EXPORT ORDINAL="1951" NAME="??_7PositionTarget@Ogre@@6B@" PURGE="-1" COMMENT="" />
    <EXPORT ORDINAL="1952" NAME="??_7ProgressiveMesh@Ogre@@6B@" PURGE="-1" COMMENT="" />
    <EXPORT ORDINAL="1953" NAME="??_7QueuedRenderableVisitor@Ogre@@6B@" PURGE="-1" COMMENT="" />
    <EXPORT ORDINAL="1954" NAME="??_7RaySceneQuery@Ogre@@6BRaySceneQueryListener@1@@" PURGE="-1" COMMENT="" />
    <EXPORT ORDINAL="1955" NAME="??_7RaySceneQuery@Ogre@@6BSceneQuery@1@@" PURGE="-1" COMMENT="" />
    <EXPORT ORDINAL="1956" NAME="??_7RaySceneQueryListener@Ogre@@6B@" PURGE="-1" COMMENT="" />
    <EXPORT ORDINAL="1957" NAME="??_7Rectangle2D@Ogre@@6B@" PURGE="-1" COMMENT="" />
    <EXPORT ORDINAL="1958" NAME="??_7Rectangle2D@Ogre@@6BAnimableObject@1@@" PURGE="-1" COMMENT="" />
    <EXPORT ORDINAL="1959" NAME="??_7Rectangle2D@Ogre@@6BShadowCaster@1@@" PURGE="-1" COMMENT="" />
    <EXPORT ORDINAL="1960" NAME="??_7Region@StaticGeometry@Ogre@@6BAnimableObject@2@@" PURGE="-1" COMMENT="" />
    <EXPORT ORDINAL="1961" NAME="??_7Region@StaticGeometry@Ogre@@6BShadowCaster@2@@" PURGE="-1" COMMENT="" />
    <EXPORT ORDINAL="1962" NAME="??_7RegionSceneQuery@Ogre@@6BSceneQuery@1@@" PURGE="-1" COMMENT="" />
    <EXPORT ORDINAL="1963" NAME="??_7RegionSceneQuery@Ogre@@6BSceneQueryListener@1@@" PURGE="-1" COMMENT="" />
    <EXPORT ORDINAL="1964" NAME="??_7RegionShadowRenderable@Region@StaticGeometry@Ogre@@6B@" PURGE="-1" COMMENT="" />
    <EXPORT ORDINAL="1965" NAME="??_7RenderQueue@Ogre@@6B@" PURGE="-1" COMMENT="" />
    <EXPORT ORDINAL="1966" NAME="??_7RenderQueueInvocation@Ogre@@6B@" PURGE="-1" COMMENT="" />
    <EXPORT ORDINAL="1967" NAME="??_7RenderQueueInvocationSequence@Ogre@@6B@" PURGE="-1" COMMENT="" />
    <EXPORT ORDINAL="1968" NAME="??_7RenderQueueListener@Ogre@@6B@" PURGE="-1" COMMENT="" />
    <EXPORT ORDINAL="1969" NAME="??_7RenderSystem@Ogre@@6B@" PURGE="-1" COMMENT="" />
    <EXPORT ORDINAL="1970" NAME="??_7RenderTarget@Ogre@@6B@" PURGE="-1" COMMENT="" />
    <EXPORT ORDINAL="1971" NAME="??_7RenderTargetListener@Ogre@@6B@" PURGE="-1" COMMENT="" />
    <EXPORT ORDINAL="1972" NAME="??_7RenderTexture@Ogre@@6B@" PURGE="-1" COMMENT="" />
    <EXPORT ORDINAL="1973" NAME="??_7RenderWindow@Ogre@@6B@" PURGE="-1" COMMENT="" />
    <EXPORT ORDINAL="1974" NAME="??_7Renderable@Ogre@@6B@" PURGE="-1" COMMENT="" />
    <EXPORT ORDINAL="1975" NAME="??_7RenderableListener@RenderQueue@Ogre@@6B@" PURGE="-1" COMMENT="" />
    <EXPORT ORDINAL="1976" NAME="??_7Resource@Ogre@@6B@" PURGE="-1" COMMENT="" />
    <EXPORT ORDINAL="1977" NAME="??_7ResourceBackgroundQueue@Ogre@@6B@" PURGE="-1" COMMENT="" />
    <EXPORT ORDINAL="1978" NAME="??_7ResourceBackgroundQueueListener@Ogre@@6B@" PURGE="-1" COMMENT="" />
    <EXPORT ORDINAL="1979" NAME="??_7ResourceGroupListener@Ogre@@6B@" PURGE="-1" COMMENT="" />
    <EXPORT ORDINAL="1980" NAME="??_7ResourceGroupManager@Ogre@@6B@" PURGE="-1" COMMENT="" />
    <EXPORT ORDINAL="1981" NAME="??_7ResourceManager@Ogre@@6B@" PURGE="-1" COMMENT="" />
    <EXPORT ORDINAL="1982" NAME="??_7RibbonTrail@Ogre@@6BAnimableObject@1@@" PURGE="-1" COMMENT="" />
    <EXPORT ORDINAL="1983" NAME="??_7RibbonTrail@Ogre@@6BBillboardChain@1@@" PURGE="-1" COMMENT="" />
    <EXPORT ORDINAL="1984" NAME="??_7RibbonTrail@Ogre@@6BListener@Node@1@@" PURGE="-1" COMMENT="" />
    <EXPORT ORDINAL="1985" NAME="??_7RibbonTrail@Ogre@@6BShadowCaster@1@@" PURGE="-1" COMMENT="" />
    <EXPORT ORDINAL="1986" NAME="??_7RibbonTrailFactory@Ogre@@6B@" PURGE="-1" COMMENT="" />
    <EXPORT ORDINAL="1987" NAME="??_7ScaleControllerFunction@Ogre@@6B@" PURGE="-1" COMMENT="" />
    <EXPORT ORDINAL="1988" NAME="??_7SceneManager@Ogre@@6B@" PURGE="-1" COMMENT="" />
    <EXPORT ORDINAL="1989" NAME="??_7SceneManagerFactory@Ogre@@6B@" PURGE="-1" COMMENT="" />
    <EXPORT ORDINAL="1990" NAME="??_7SceneMgrQueuedRenderableVisitor@SceneManager@Ogre@@6B@" PURGE="-1" COMMENT="" />
    <EXPORT ORDINAL="1991" NAME="??_7SceneNode@Ogre@@6B@" PURGE="-1" COMMENT="" />
    <EXPORT ORDINAL="1992" NAME="??_7SceneQuery@Ogre@@6B@" PURGE="-1" COMMENT="" />
    <EXPORT ORDINAL="1993" NAME="??_7SceneQueryListener@Ogre@@6B@" PURGE="-1" COMMENT="" />
    <EXPORT ORDINAL="1994" NAME="??_7ScriptLoader@Ogre@@6B@" PURGE="-1" COMMENT="" />
    <EXPORT ORDINAL="1995" NAME="??_7Serializer@Ogre@@6B@" PURGE="-1" COMMENT="" />
    <EXPORT ORDINAL="1996" NAME="??_7ShadowCameraSetup@Ogre@@6B@" PURGE="-1" COMMENT="" />
    <EXPORT ORDINAL="1997" NAME="??_7ShadowCaster@Ogre@@6B@" PURGE="-1" COMMENT="" />
    <EXPORT ORDINAL="1998" NAME="??_7ShadowCasterSceneQueryListener@SceneManager@Ogre@@6B@" PURGE="-1" COMMENT="" />
    <EXPORT ORDINAL="1999" NAME="??_7ShadowListener@Ogre@@6B@" PURGE="-1" COMMENT="" />
    <EXPORT ORDINAL="2000" NAME="??_7ShadowRenderable@Ogre@@6B@" PURGE="-1" COMMENT="" />
    <EXPORT ORDINAL="2001" NAME="??_7SimpleRenderable@Ogre@@6B@" PURGE="-1" COMMENT="" />
    <EXPORT ORDINAL="2002" NAME="??_7SimpleRenderable@Ogre@@6BAnimableObject@1@@" PURGE="-1" COMMENT="" />
    <EXPORT ORDINAL="2003" NAME="??_7SimpleRenderable@Ogre@@6BShadowCaster@1@@" PURGE="-1" COMMENT="" />
    <EXPORT ORDINAL="2004" NAME="??_7Skeleton@Ogre@@6B@" PURGE="-1" COMMENT="" />
    <EXPORT ORDINAL="2005" NAME="??_7SkeletonInstance@Ogre@@6B@" PURGE="-1" COMMENT="" />
    <EXPORT ORDINAL="2006" NAME="??_7SkeletonManager@Ogre@@6B@" PURGE="-1" COMMENT="" />
    <EXPORT ORDINAL="2007" NAME="??_7SkeletonPtr@Ogre@@6B@" PURGE="-1" COMMENT="" />
    <EXPORT ORDINAL="2008" NAME="??_7SkeletonSerializer@Ogre@@6B@" PURGE="-1" COMMENT="" />
    <EXPORT ORDINAL="2009" NAME="??_7SphereSceneQuery@Ogre@@6BSceneQuery@1@@" PURGE="-1" COMMENT="" />
    <EXPORT ORDINAL="2010" NAME="??_7SphereSceneQuery@Ogre@@6BSceneQueryListener@1@@" PURGE="-1" COMMENT="" />
    <EXPORT ORDINAL="2011" NAME="??_7StaticGeometry@Ogre@@6B@" PURGE="-1" COMMENT="" />
    <EXPORT ORDINAL="2012" NAME="??_7StringInterface@Ogre@@6B@" PURGE="-1" COMMENT="" />
    <EXPORT ORDINAL="2013" NAME="??_7SubEntity@Ogre@@6B@" PURGE="-1" COMMENT="" />
    <EXPORT ORDINAL="2014" NAME="??_7TagPoint@Ogre@@6B@" PURGE="-1" COMMENT="" />
    <EXPORT ORDINAL="2015" NAME="??_7TargetManager@Ogre@@6B@" PURGE="-1" COMMENT="" />
    <EXPORT ORDINAL="2016" NAME="??_7TempBlendedBufferInfo@Ogre@@6B@" PURGE="-1" COMMENT="" />
    <EXPORT ORDINAL="2017" NAME="??_7TexCoordModifierControllerValue@Ogre@@6B@" PURGE="-1" COMMENT="" />
    <EXPORT ORDINAL="2018" NAME="??_7TextAreaOverlayElement@Ogre@@6BRenderable@1@@" PURGE="-1" COMMENT="" />
    <EXPORT ORDINAL="2019" NAME="??_7TextAreaOverlayElement@Ogre@@6BStringInterface@1@@" PURGE="-1" COMMENT="" />
    <EXPORT ORDINAL="2020" NAME="??_7TextAreaOverlayElementFactory@Ogre@@6B@" PURGE="-1" COMMENT="" />
    <EXPORT ORDINAL="2021" NAME="??_7Texture@Ogre@@6B@" PURGE="-1" COMMENT="" />
    <EXPORT ORDINAL="2022" NAME="??_7TextureFrameControllerValue@Ogre@@6B@" PURGE="-1" COMMENT="" />
    <EXPORT ORDINAL="2023" NAME="??_7TextureManager@Ogre@@6B@" PURGE="-1" COMMENT="" />
    <EXPORT ORDINAL="2024" NAME="??_7TexturePtr@Ogre@@6B@" PURGE="-1" COMMENT="" />
    <EXPORT ORDINAL="2025" NAME="??_7Timer@Ogre@@6B@" PURGE="-1" COMMENT="" />
    <EXPORT ORDINAL="2026" NAME="??_7TransformKeyFrame@Ogre@@6B@" PURGE="-1" COMMENT="" />
    <EXPORT ORDINAL="2027" NAME="??_7UserDefinedObject@Ogre@@6B@" PURGE="-1" COMMENT="" />
    <EXPORT ORDINAL="2028" NAME="??_7VertexAnimationTrack@Ogre@@6B@" PURGE="-1" COMMENT="" />
    <EXPORT ORDINAL="2029" NAME="??_7VertexBufferBinding@Ogre@@6B@" PURGE="-1" COMMENT="" />
    <EXPORT ORDINAL="2030" NAME="??_7VertexDeclaration@Ogre@@6B@" PURGE="-1" COMMENT="" />
    <EXPORT ORDINAL="2031" NAME="??_7VertexMorphKeyFrame@Ogre@@6B@" PURGE="-1" COMMENT="" />
    <EXPORT ORDINAL="2032" NAME="??_7VertexPoseKeyFrame@Ogre@@6B@" PURGE="-1" COMMENT="" />
    <EXPORT ORDINAL="2033" NAME="??_7Viewport@Ogre@@6B@" PURGE="-1" COMMENT="" />
    <EXPORT ORDINAL="2034" NAME="??_7WaveformControllerFunction@Ogre@@6B@" PURGE="-1" COMMENT="" />
    <EXPORT ORDINAL="2035" NAME="??_7WireBoundingBox@Ogre@@6B@" PURGE="-1" COMMENT="" />
    <EXPORT ORDINAL="2036" NAME="??_7WireBoundingBox@Ogre@@6BAnimableObject@1@@" PURGE="-1" COMMENT="" />
    <EXPORT ORDINAL="2037" NAME="??_7WireBoundingBox@Ogre@@6BShadowCaster@1@@" PURGE="-1" COMMENT="" />
    <EXPORT ORDINAL="2038" NAME="??_7ZipArchive@Ogre@@6B@" PURGE="-1" COMMENT="" />
    <EXPORT ORDINAL="2039" NAME="??_B?1??getClientGrammerName@CompositorScriptCompiler@Ogre@@UBEABV?$basic_string@DU?$char_traits@D@std@@V?$allocator@D@2@@std@@XZ@51" PURGE="-1" COMMENT="" />
    <EXPORT ORDINAL="2040" NAME="??_B?1??getClientGrammerName@MaterialScriptCompiler@Ogre@@UBEABV?$basic_string@DU?$char_traits@D@std@@V?$allocator@D@2@@std@@XZ@51" PURGE="-1" COMMENT="" />
    <EXPORT ORDINAL="2041" NAME="??_B?1??getLights@BorderRenderable@Ogre@@UBEABV?$vector@PAVLight@Ogre@@V?$allocator@PAVLight@Ogre@@@std@@@std@@XZ@51" PURGE="-1" COMMENT="" />
    <EXPORT ORDINAL="2042" NAME="??_B?1??getLights@OverlayElement@Ogre@@UBEABV?$vector@PAVLight@Ogre@@V?$allocator@PAVLight@Ogre@@@std@@@std@@XZ@51" PURGE="-1" COMMENT="" />
    <EXPORT ORDINAL="2043" NAME="??_B?1??getTypeName@BorderPanelOverlayElementFactory@Ogre@@UBEABV?$basic_string@DU?$char_traits@D@std@@V?$allocator@D@2@@std@@XZ@51" PURGE="-1" COMMENT="" />
    <EXPORT ORDINAL="2044" NAME="??_B?1??getTypeName@PanelOverlayElementFactory@Ogre@@UBEABV?$basic_string@DU?$char_traits@D@std@@V?$allocator@D@2@@std@@XZ@51" PURGE="-1" COMMENT="" />
    <EXPORT ORDINAL="2045" NAME="??_B?1??getTypeName@TextAreaOverlayElementFactory@Ogre@@UBEABV?$basic_string@DU?$char_traits@D@std@@V?$allocator@D@2@@std@@XZ@51" PURGE="-1" COMMENT="" />
    <EXPORT ORDINAL="2046" NAME="??_FColourValue@Ogre@@QAEXXZ" PURGE="0" COMMENT="" />
    <EXPORT ORDINAL="2047" NAME="??_FMath@Ogre@@QAEXXZ" PURGE="0" COMMENT="" />
    <EXPORT ORDINAL="2048" NAME="??_FPassthroughControllerFunction@Ogre@@QAEXXZ" PURGE="0" COMMENT="" />
    <EXPORT ORDINAL="2049" NAME="??_FQuaternion@Ogre@@QAEXXZ" PURGE="0" COMMENT="" />
    <EXPORT ORDINAL="2050" NAME="??_FRectangle2D@Ogre@@QAEXXZ" PURGE="0" COMMENT="" />
    <EXPORT ORDINAL="2051" NAME="??_FRoot@Ogre@@QAEXXZ" PURGE="0" COMMENT="" />
    <EXPORT ORDINAL="2052" NAME="??_FVertexCacheProfiler@Ogre@@QAEXXZ" PURGE="0" COMMENT="" />
    <EXPORT ORDINAL="2053" NAME="?ACos@Math@Ogre@@SA?AVRadian@2@M@Z" PURGE="0" COMMENT="" />
    <EXPORT ORDINAL="2054" NAME="?ASin@Math@Ogre@@SA?AVRadian@2@M@Z" PURGE="0" COMMENT="" />
    <EXPORT ORDINAL="2055" NAME="?ATan2@Math@Ogre@@SA?AVRadian@2@MM@Z" PURGE="0" COMMENT="" />
    <EXPORT ORDINAL="2056" NAME="?ATan@Math@Ogre@@SA?AVRadian@2@M@Z" PURGE="0" COMMENT="" />
    <EXPORT ORDINAL="2057" NAME="?AUTODETECT_RESOURCE_GROUP_NAME@ResourceGroupManager@Ogre@@2V?$basic_string@DU?$char_traits@D@std@@V?$allocator@D@2@@std@@A" PURGE="-1" COMMENT="" />
    <EXPORT ORDINAL="2058" NAME="?Abs@Math@Ogre@@SA?AVDegree@2@ABV32@@Z" PURGE="0" COMMENT="" />
    <EXPORT ORDINAL="2059" NAME="?Abs@Math@Ogre@@SA?AVRadian@2@ABV32@@Z" PURGE="0" COMMENT="" />
    <EXPORT ORDINAL="2060" NAME="?Abs@Math@Ogre@@SAMM@Z" PURGE="0" COMMENT="" />
    <EXPORT ORDINAL="2061" NAME="?AngleUnitsToDegrees@Math@Ogre@@SAMM@Z" PURGE="0" COMMENT="" />
    <EXPORT ORDINAL="2062" NAME="?AngleUnitsToRadians@Math@Ogre@@SAMM@Z" PURGE="0" COMMENT="" />
    <EXPORT ORDINAL="2063" NAME="?AutoConstantDictionary@GpuProgramParameters@Ogre@@1PAUAutoConstantDefinition@12@A" PURGE="-1" COMMENT="" />
    <EXPORT ORDINAL="2064" NAME="?BEST@CompositorChain@Ogre@@2IB" PURGE="-1" COMMENT="" />
    <EXPORT ORDINAL="2065" NAME="?BLANK@StringUtil@Ogre@@2V?$basic_string@DU?$char_traits@D@std@@V?$allocator@D@2@@std@@B" PURGE="-1" COMMENT="" />
    <EXPORT ORDINAL="2066" NAME="?BOOTSTRAP_RESOURCE_GROUP_NAME@ResourceGroupManager@Ogre@@2V?$basic_string@DU?$char_traits@D@std@@V?$allocator@D@2@@std@@A" PURGE="-1" COMMENT="" />
    <EXPORT ORDINAL="2067" NAME="?Bidiagonalize@Matrix3@Ogre@@KAXAAV12@00@Z" PURGE="0" COMMENT="" />
    <EXPORT ORDINAL="2068" NAME="?Black@ColourValue@Ogre@@2V12@B" PURGE="-1" COMMENT="" />
    <EXPORT ORDINAL="2069" NAME="?Blue@ColourValue@Ogre@@2V12@B" PURGE="-1" COMMENT="" />
    <EXPORT ORDINAL="2070" NAME="?CLIPSPACE2DTOIMAGESPACE@Matrix4@Ogre@@2V12@B" PURGE="-1" COMMENT="" />
    <EXPORT ORDINAL="2071" NAME="?Ceil@Math@Ogre@@SAMM@Z" PURGE="0" COMMENT="" />
    <EXPORT ORDINAL="2072" NAME="?Cos@Math@Ogre@@SAMABVRadian@2@_N@Z" PURGE="0" COMMENT="" />
    <EXPORT ORDINAL="2073" NAME="?Cos@Math@Ogre@@SAMM_N@Z" PURGE="0" COMMENT="" />
    <EXPORT ORDINAL="2074" NAME="?DEFAULT_RESOURCE_GROUP_NAME@ResourceGroupManager@Ogre@@2V?$basic_string@DU?$char_traits@D@std@@V?$allocator@D@2@@std@@A" PURGE="-1" COMMENT="" />
    <EXPORT ORDINAL="2075" NAME="?DEFAULT_SCHEME_NAME@MaterialManager@Ogre@@2V?$basic_string@DU?$char_traits@D@std@@V?$allocator@D@2@@std@@A" PURGE="-1" COMMENT="" />
    <EXPORT ORDINAL="2076" NAME="?DegreesToAngleUnits@Math@Ogre@@SAMM@Z" PURGE="0" COMMENT="" />
    <EXPORT ORDINAL="2077" NAME="?DegreesToRadians@Math@Ogre@@SAMM@Z" PURGE="0" COMMENT="" />
    <EXPORT ORDINAL="2078" NAME="?Determinant@Matrix3@Ogre@@QBEMXZ" PURGE="0" COMMENT="" />
    <EXPORT ORDINAL="2079" NAME="?Dot@Quaternion@Ogre@@QBEMABV12@@Z" PURGE="4" COMMENT="" />
    <EXPORT ORDINAL="2080" NAME="?ENTITY_TYPE_MASK@SceneManager@Ogre@@2IA" PURGE="-1" COMMENT="" />
    <EXPORT ORDINAL="2081" NAME="?EPSILON@Matrix3@Ogre@@2MB" PURGE="-1" COMMENT="" />
    <EXPORT ORDINAL="2082" NAME="?EXPIRED_DELAY_FRAME_THRESHOLD@HardwareBufferManager@Ogre@@1IB" PURGE="-1" COMMENT="" />
    <EXPORT ORDINAL="2083" NAME="?EigenSolveSymmetric@Matrix3@Ogre@@QBEXQAMQAVVector3@2@@Z" PURGE="8" COMMENT="" />
    <EXPORT ORDINAL="2084" NAME="?Exp@Math@Ogre@@SAMM@Z" PURGE="0" COMMENT="" />
    <EXPORT ORDINAL="2085" NAME="?Exp@Quaternion@Ogre@@QBE?AV12@XZ" PURGE="4" COMMENT="" />
    <EXPORT ORDINAL="2086" NAME="?FACTORY_TYPE_NAME@BillboardChainFactory@Ogre@@2V?$basic_string@DU?$char_traits@D@std@@V?$allocator@D@2@@std@@A" PURGE="-1" COMMENT="" />
    <EXPORT ORDINAL="2087" NAME="?FACTORY_TYPE_NAME@BillboardSetFactory@Ogre@@2V?$basic_string@DU?$char_traits@D@std@@V?$allocator@D@2@@std@@A" PURGE="-1" COMMENT="" />
    <EXPORT ORDINAL="2088" NAME="?FACTORY_TYPE_NAME@DefaultSceneManagerFactory@Ogre@@2V?$basic_string@DU?$char_traits@D@std@@V?$allocator@D@2@@std@@B" PURGE="-1" COMMENT="" />
    <EXPORT ORDINAL="2089" NAME="?FACTORY_TYPE_NAME@EntityFactory@Ogre@@2V?$basic_string@DU?$char_traits@D@std@@V?$allocator@D@2@@std@@A" PURGE="-1" COMMENT="" />
    <EXPORT ORDINAL="2090" NAME="?FACTORY_TYPE_NAME@LightFactory@Ogre@@2V?$basic_string@DU?$char_traits@D@std@@V?$allocator@D@2@@std@@A" PURGE="-1" COMMENT="" />
    <EXPORT ORDINAL="2091" NAME="?FACTORY_TYPE_NAME@ManualObjectFactory@Ogre@@2V?$basic_string@DU?$char_traits@D@std@@V?$allocator@D@2@@std@@A" PURGE="-1" COMMENT="" />
    <EXPORT ORDINAL="2092" NAME="?FACTORY_TYPE_NAME@ParticleSystemFactory@Ogre@@2V?$basic_string@DU?$char_traits@D@std@@V?$allocator@D@2@@std@@A" PURGE="-1" COMMENT="" />
    <EXPORT ORDINAL="2093" NAME="?FACTORY_TYPE_NAME@RibbonTrailFactory@Ogre@@2V?$basic_string@DU?$char_traits@D@std@@V?$allocator@D@2@@std@@A" PURGE="-1" COMMENT="" />
    <EXPORT ORDINAL="2094" NAME="?FX_TYPE_MASK@SceneManager@Ogre@@2IA" PURGE="-1" COMMENT="" />
    <EXPORT ORDINAL="2095" NAME="?Floor@Math@Ogre@@SAMM@Z" PURGE="0" COMMENT="" />
    <EXPORT ORDINAL="2096" NAME="?FromAngleAxis@Quaternion@Ogre@@QAEXABVRadian@2@ABVVector3@2@@Z" PURGE="8" COMMENT="" />
    <EXPORT ORDINAL="2097" NAME="?FromAxes@Matrix3@Ogre@@QAEXABVVector3@2@00@Z" PURGE="12" COMMENT="" />
    <EXPORT ORDINAL="2098" NAME="?FromAxes@Quaternion@Ogre@@QAEXABVVector3@2@00@Z" PURGE="12" COMMENT="" />
    <EXPORT ORDINAL="2099" NAME="?FromAxes@Quaternion@Ogre@@QAEXPBVVector3@2@@Z" PURGE="4" COMMENT="" />
    <EXPORT ORDINAL="2100" NAME="?FromAxisAngle@Matrix3@Ogre@@QAEXABVVector3@2@ABVRadian@2@@Z" PURGE="8" COMMENT="" />
    <EXPORT ORDINAL="2101" NAME="?FromEulerAnglesXYZ@Matrix3@Ogre@@QAEXABVRadian@2@00@Z" PURGE="12" COMMENT="" />
    <EXPORT ORDINAL="2102" NAME="?FromEulerAnglesXZY@Matrix3@Ogre@@QAEXABVRadian@2@00@Z" PURGE="12" COMMENT="" />
    <EXPORT ORDINAL="2103" NAME="?FromEulerAnglesYXZ@Matrix3@Ogre@@QAEXABVRadian@2@00@Z" PURGE="12" COMMENT="" />
    <EXPORT ORDINAL="2104" NAME="?FromEulerAnglesYZX@Matrix3@Ogre@@QAEXABVRadian@2@00@Z" PURGE="12" COMMENT="" />
    <EXPORT ORDINAL="2105" NAME="?FromEulerAnglesZXY@Matrix3@Ogre@@QAEXABVRadian@2@00@Z" PURGE="12" COMMENT="" />
    <EXPORT ORDINAL="2106" NAME="?FromEulerAnglesZYX@Matrix3@Ogre@@QAEXABVRadian@2@00@Z" PURGE="12" COMMENT="" />
    <EXPORT ORDINAL="2107" NAME="?FromRotationMatrix@Quaternion@Ogre@@QAEXABVMatrix3@2@@Z" PURGE="4" COMMENT="" />
    <EXPORT ORDINAL="2108" NAME="?GetColumn@Matrix3@Ogre@@QBE?AVVector3@2@I@Z" PURGE="8" COMMENT="" />
    <EXPORT ORDINAL="2109" NAME="?GolubKahanStep@Matrix3@Ogre@@KAXAAV12@00@Z" PURGE="0" COMMENT="" />
    <EXPORT ORDINAL="2110" NAME="?Green@ColourValue@Ogre@@2V12@B" PURGE="-1" COMMENT="" />
    <EXPORT ORDINAL="2111" NAME="?HALF_PI@Math@Ogre@@2MB" PURGE="-1" COMMENT="" />
    <EXPORT ORDINAL="2112" NAME="?IAbs@Math@Ogre@@SAHH@Z" PURGE="0" COMMENT="" />
    <EXPORT ORDINAL="2113" NAME="?ICeil@Math@Ogre@@SAHM@Z" PURGE="0" COMMENT="" />
    <EXPORT ORDINAL="2114" NAME="?IDENTITY@Matrix3@Ogre@@2V12@B" PURGE="-1" COMMENT="" />
    <EXPORT ORDINAL="2115" NAME="?IDENTITY@Matrix4@Ogre@@2V12@B" PURGE="-1" COMMENT="" />
    <EXPORT ORDINAL="2116" NAME="?IDENTITY@Quaternion@Ogre@@2V12@B" PURGE="-1" COMMENT="" />
    <EXPORT ORDINAL="2117" NAME="?IFloor@Math@Ogre@@SAHM@Z" PURGE="0" COMMENT="" />
    <EXPORT ORDINAL="2118" NAME="?INFINITE_FAR_PLANE_ADJUST@Frustum@Ogre@@2MB" PURGE="-1" COMMENT="" />
    <EXPORT ORDINAL="2119" NAME="?INTERNAL_RESOURCE_GROUP_NAME@ResourceGroupManager@Ogre@@2V?$basic_string@DU?$char_traits@D@std@@V?$allocator@D@2@@std@@A" PURGE="-1" COMMENT="" />
    <EXPORT ORDINAL="2120" NAME="?INVALID_KEY_INDEX@TimeIndex@Ogre@@1IB" PURGE="-1" COMMENT="" />
    <EXPORT ORDINAL="2121" NAME="?ISign@Math@Ogre@@SAHH@Z" PURGE="0" COMMENT="" />
    <EXPORT ORDINAL="2122" NAME="?Intermediate@Quaternion@Ogre@@SAXABV12@00AAV12@1@Z" PURGE="0" COMMENT="" />
    <EXPORT ORDINAL="2123" NAME="?InvSqrt@Math@Ogre@@SAMM@Z" PURGE="0" COMMENT="" />
    <EXPORT ORDINAL="2124" NAME="?Inverse@Matrix3@Ogre@@QBE?AV12@M@Z" PURGE="8" COMMENT="" />
    <EXPORT ORDINAL="2125" NAME="?Inverse@Matrix3@Ogre@@QBE_NAAV12@M@Z" PURGE="8" COMMENT="" />
    <EXPORT ORDINAL="2126" NAME="?Inverse@Quaternion@Ogre@@QBE?AV12@XZ" PURGE="4" COMMENT="" />
    <EXPORT ORDINAL="2127" NAME="?LAST@CompositorChain@Ogre@@2IB" PURGE="-1" COMMENT="" />
    <EXPORT ORDINAL="2128" NAME="?LIGHT_TYPE_MASK@SceneManager@Ogre@@2IA" PURGE="-1" COMMENT="" />
    <EXPORT ORDINAL="2129" NAME="?Log@Math@Ogre@@SAMM@Z" PURGE="0" COMMENT="" />
    <EXPORT ORDINAL="2130" NAME="?Log@Quaternion@Ogre@@QBE?AV12@XZ" PURGE="4" COMMENT="" />
    <EXPORT ORDINAL="2131" NAME="?MaxCubicRoot@Matrix3@Ogre@@KAMQAM@Z" PURGE="0" COMMENT="" />
    <EXPORT ORDINAL="2132" NAME="?NEGATIVE_UNIT_X@Vector2@Ogre@@2V12@B" PURGE="-1" COMMENT="" />
    <EXPORT ORDINAL="2133" NAME="?NEGATIVE_UNIT_X@Vector3@Ogre@@2V12@B" PURGE="-1" COMMENT="" />
    <EXPORT ORDINAL="2134" NAME="?NEGATIVE_UNIT_Y@Vector2@Ogre@@2V12@B" PURGE="-1" COMMENT="" />
    <EXPORT ORDINAL="2135" NAME="?NEGATIVE_UNIT_Y@Vector3@Ogre@@2V12@B" PURGE="-1" COMMENT="" />
    <EXPORT ORDINAL="2136" NAME="?NEGATIVE_UNIT_Z@Vector3@Ogre@@2V12@B" PURGE="-1" COMMENT="" />
    <EXPORT ORDINAL="2137" NAME="?NEG_INFINITY@Math@Ogre@@2MB" PURGE="-1" COMMENT="" />
    <EXPORT ORDINAL="2138" NAME="?Norm@Quaternion@Ogre@@QBEMXZ" PURGE="0" COMMENT="" />
    <EXPORT ORDINAL="2139" NAME="?Orthonormalize@Matrix3@Ogre@@QAEXXZ" PURGE="0" COMMENT="" />
    <EXPORT ORDINAL="2140" NAME="?PI@Math@Ogre@@2MB" PURGE="-1" COMMENT="" />
    <EXPORT ORDINAL="2141" NAME="?POS_INFINITY@Math@Ogre@@2MB" PURGE="-1" COMMENT="" />
    <EXPORT ORDINAL="2142" NAME="?Pow@Math@Ogre@@SAMMM@Z" PURGE="0" COMMENT="" />
    <EXPORT ORDINAL="2143" NAME="?QDUDecomposition@Matrix3@Ogre@@QBEXAAV12@AAVVector3@2@1@Z" PURGE="12" COMMENT="" />
    <EXPORT ORDINAL="2144" NAME="?QLAlgorithm@Matrix3@Ogre@@IAE_NQAM0@Z" PURGE="8" COMMENT="" />
    <EXPORT ORDINAL="2145" NAME="?RENDER_QUEUE_INVOCATION_SHADOWS@RenderQueueInvocation@Ogre@@2V?$basic_string@DU?$char_traits@D@std@@V?$allocator@D@2@@std@@A" PURGE="-1" COMMENT="" />
    <EXPORT ORDINAL="2146" NAME="?RESOURCE_SYSTEM_NUM_REFERENCE_COUNTS@ResourceGroupManager@Ogre@@2IA" PURGE="-1" COMMENT="" />
    <EXPORT ORDINAL="2147" NAME="?RadiansToAngleUnits@Math@Ogre@@SAMM@Z" PURGE="0" COMMENT="" />
    <EXPORT ORDINAL="2148" NAME="?RadiansToDegrees@Math@Ogre@@SAMM@Z" PURGE="0" COMMENT="" />
    <EXPORT ORDINAL="2149" NAME="?RangeRandom@Math@Ogre@@SAMMM@Z" PURGE="0" COMMENT="" />
    <EXPORT ORDINAL="2150" NAME="?RealEqual@Math@Ogre@@SA_NMMM@Z" PURGE="0" COMMENT="" />
    <EXPORT ORDINAL="2151" NAME="?Red@ColourValue@Ogre@@2V12@B" PURGE="-1" COMMENT="" />
    <EXPORT ORDINAL="2152" NAME="?SEGMENT_EMPTY@BillboardChain@Ogre@@1IB" PURGE="-1" COMMENT="" />
    <EXPORT ORDINAL="2153" NAME="?STATICGEOMETRY_TYPE_MASK@SceneManager@Ogre@@2IA" PURGE="-1" COMMENT="" />
    <EXPORT ORDINAL="2154" NAME="?SetColumn@Matrix3@Ogre@@QAEXIABVVector3@2@@Z" PURGE="8" COMMENT="" />
    <EXPORT ORDINAL="2155" NAME="?Sign@Math@Ogre@@SA?AVDegree@2@ABV32@@Z" PURGE="0" COMMENT="" />
    <EXPORT ORDINAL="2156" NAME="?Sign@Math@Ogre@@SA?AVRadian@2@ABV32@@Z" PURGE="0" COMMENT="" />
    <EXPORT ORDINAL="2157" NAME="?Sign@Math@Ogre@@SAMM@Z" PURGE="0" COMMENT="" />
    <EXPORT ORDINAL="2158" NAME="?Sin@Math@Ogre@@SAMABVRadian@2@_N@Z" PURGE="0" COMMENT="" />
    <EXPORT ORDINAL="2159" NAME="?Sin@Math@Ogre@@SAMM_N@Z" PURGE="0" COMMENT="" />
    <EXPORT ORDINAL="2160" NAME="?SinTable@Math@Ogre@@KAMM@Z" PURGE="0" COMMENT="" />
    <EXPORT ORDINAL="2161" NAME="?SingularValueComposition@Matrix3@Ogre@@QAEXABV12@ABVVector3@2@0@Z" PURGE="12" COMMENT="" />
    <EXPORT ORDINAL="2162" NAME="?SingularValueDecomposition@Matrix3@Ogre@@QBEXAAV12@AAVVector3@2@0@Z" PURGE="12" COMMENT="" />
    <EXPORT ORDINAL="2163" NAME="?Slerp@Quaternion@Ogre@@SA?AV12@MABV12@0_N@Z" PURGE="0" COMMENT="" />
    <EXPORT ORDINAL="2164" NAME="?SlerpExtraSpins@Quaternion@Ogre@@SA?AV12@MABV12@0H@Z" PURGE="0" COMMENT="" />
    <EXPORT ORDINAL="2165" NAME="?SpectralNorm@Matrix3@Ogre@@QBEMXZ" PURGE="0" COMMENT="" />
    <EXPORT ORDINAL="2166" NAME="?Sqr@Math@Ogre@@SAMM@Z" PURGE="0" COMMENT="" />
    <EXPORT ORDINAL="2167" NAME="?Sqrt@Math@Ogre@@SA?AVDegree@2@ABV32@@Z" PURGE="0" COMMENT="" />
    <EXPORT ORDINAL="2168" NAME="?Sqrt@Math@Ogre@@SA?AVRadian@2@ABV32@@Z" PURGE="0" COMMENT="" />
    <EXPORT ORDINAL="2169" NAME="?Sqrt@Math@Ogre@@SAMM@Z" PURGE="0" COMMENT="" />
    <EXPORT ORDINAL="2170" NAME="?Squad@Quaternion@Ogre@@SA?AV12@MABV12@000_N@Z" PURGE="0" COMMENT="" />
    <EXPORT ORDINAL="2171" NAME="?StrBBox@Font@Ogre@@QAE?AU?$pair@II@std@@ABV?$basic_string@DU?$char_traits@D@std@@V?$allocator@D@2@@4@MAAVRenderWindow@2@@Z" PURGE="16" COMMENT="" />
    <EXPORT ORDINAL="2172" NAME="?SymmetricRandom@Math@Ogre@@SAMXZ" PURGE="0" COMMENT="" />
    <EXPORT ORDINAL="2173" NAME="?SystemTokenBase@Compiler2Pass@Ogre@@1IB" PURGE="-1" COMMENT="" />
    <EXPORT ORDINAL="2174" NAME="?TWO_PI@Math@Ogre@@2MB" PURGE="-1" COMMENT="" />
    <EXPORT ORDINAL="2175" NAME="?Tan@Math@Ogre@@SAMABVRadian@2@_N@Z" PURGE="0" COMMENT="" />
    <EXPORT ORDINAL="2176" NAME="?Tan@Math@Ogre@@SAMM_N@Z" PURGE="0" COMMENT="" />
    <EXPORT ORDINAL="2177" NAME="?TanTable@Math@Ogre@@KAMM@Z" PURGE="0" COMMENT="" />
    <EXPORT ORDINAL="2178" NAME="?TensorProduct@Matrix3@Ogre@@SAXABVVector3@2@0AAV12@@Z" PURGE="0" COMMENT="" />
    <EXPORT ORDINAL="2179" NAME="?ToAngleAxis@Quaternion@Ogre@@QBEXAAVDegree@2@AAVVector3@2@@Z" PURGE="8" COMMENT="" />
    <EXPORT ORDINAL="2180" NAME="?ToAngleAxis@Quaternion@Ogre@@QBEXAAVRadian@2@AAVVector3@2@@Z" PURGE="8" COMMENT="" />
    <EXPORT ORDINAL="2181" NAME="?ToAxes@Quaternion@Ogre@@QBEXAAVVector3@2@00@Z" PURGE="12" COMMENT="" />
    <EXPORT ORDINAL="2182" NAME="?ToAxes@Quaternion@Ogre@@QBEXPAVVector3@2@@Z" PURGE="4" COMMENT="" />
    <EXPORT ORDINAL="2183" NAME="?ToAxisAngle@Matrix3@Ogre@@QBEXAAVVector3@2@AAVDegree@2@@Z" PURGE="8" COMMENT="" />
    <EXPORT ORDINAL="2184" NAME="?ToAxisAngle@Matrix3@Ogre@@QBEXAAVVector3@2@AAVRadian@2@@Z" PURGE="8" COMMENT="" />
    <EXPORT ORDINAL="2185" NAME="?ToEulerAnglesXYZ@Matrix3@Ogre@@QBE_NAAVRadian@2@00@Z" PURGE="12" COMMENT="" />
    <EXPORT ORDINAL="2186" NAME="?ToEulerAnglesXZY@Matrix3@Ogre@@QBE_NAAVRadian@2@00@Z" PURGE="12" COMMENT="" />
    <EXPORT ORDINAL="2187" NAME="?ToEulerAnglesYXZ@Matrix3@Ogre@@QBE_NAAVRadian@2@00@Z" PURGE="12" COMMENT="" />
    <EXPORT ORDINAL="2188" NAME="?ToEulerAnglesYZX@Matrix3@Ogre@@QBE_NAAVRadian@2@00@Z" PURGE="12" COMMENT="" />
    <EXPORT ORDINAL="2189" NAME="?ToEulerAnglesZXY@Matrix3@Ogre@@QBE_NAAVRadian@2@00@Z" PURGE="12" COMMENT="" />
    <EXPORT ORDINAL="2190" NAME="?ToEulerAnglesZYX@Matrix3@Ogre@@QBE_NAAVRadian@2@00@Z" PURGE="12" COMMENT="" />
    <EXPORT ORDINAL="2191" NAME="?ToRotationMatrix@Quaternion@Ogre@@QBEXAAVMatrix3@2@@Z" PURGE="4" COMMENT="" />
    <EXPORT ORDINAL="2192" NAME="?Transpose@Matrix3@Ogre@@QBE?AV12@XZ" PURGE="4" COMMENT="" />
    <EXPORT ORDINAL="2193" NAME="?Tridiagonal@Matrix3@Ogre@@IAEXQAM0@Z" PURGE="8" COMMENT="" />
    <EXPORT ORDINAL="2194" NAME="?UNDER_USED_FRAME_THRESHOLD@HardwareBufferManager@Ogre@@1IB" PURGE="-1" COMMENT="" />
    <EXPORT ORDINAL="2195" NAME="?UNIT_SCALE@Vector2@Ogre@@2V12@B" PURGE="-1" COMMENT="" />
    <EXPORT ORDINAL="2196" NAME="?UNIT_SCALE@Vector3@Ogre@@2V12@B" PURGE="-1" COMMENT="" />
    <EXPORT ORDINAL="2197" NAME="?UNIT_X@Vector2@Ogre@@2V12@B" PURGE="-1" COMMENT="" />
    <EXPORT ORDINAL="2198" NAME="?UNIT_X@Vector3@Ogre@@2V12@B" PURGE="-1" COMMENT="" />
    <EXPORT ORDINAL="2199" NAME="?UNIT_Y@Vector2@Ogre@@2V12@B" PURGE="-1" COMMENT="" />
    <EXPORT ORDINAL="2200" NAME="?UNIT_Y@Vector3@Ogre@@2V12@B" PURGE="-1" COMMENT="" />
    <EXPORT ORDINAL="2201" NAME="?UNIT_Z@Vector3@Ogre@@2V12@B" PURGE="-1" COMMENT="" />
    <EXPORT ORDINAL="2202" NAME="?USER_TYPE_MASK_LIMIT@SceneManager@Ogre@@2IA" PURGE="-1" COMMENT="" />
    <EXPORT ORDINAL="2203" NAME="?UnitInverse@Quaternion@Ogre@@QBE?AV12@XZ" PURGE="4" COMMENT="" />
    <EXPORT ORDINAL="2204" NAME="?UnitRandom@Math@Ogre@@SAMXZ" PURGE="0" COMMENT="" />
    <EXPORT ORDINAL="2205" NAME="?ValidateToken@Compiler2Pass@Ogre@@IAE_NII@Z" PURGE="8" COMMENT="" />
    <EXPORT ORDINAL="2206" NAME="?WORLD_GEOMETRY_TYPE_MASK@SceneManager@Ogre@@2IA" PURGE="-1" COMMENT="" />
    <EXPORT ORDINAL="2207" NAME="?White@ColourValue@Ogre@@2V12@B" PURGE="-1" COMMENT="" />
    <EXPORT ORDINAL="2208" NAME="?ZERO@ColourValue@Ogre@@2V12@B" PURGE="-1" COMMENT="" />
    <EXPORT ORDINAL="2209" NAME="?ZERO@Matrix3@Ogre@@2V12@B" PURGE="-1" COMMENT="" />
    <EXPORT ORDINAL="2210" NAME="?ZERO@Matrix4@Ogre@@2V12@B" PURGE="-1" COMMENT="" />
    <EXPORT ORDINAL="2211" NAME="?ZERO@Quaternion@Ogre@@2V12@B" PURGE="-1" COMMENT="" />
    <EXPORT ORDINAL="2212" NAME="?ZERO@Vector2@Ogre@@2V12@B" PURGE="-1" COMMENT="" />
    <EXPORT ORDINAL="2213" NAME="?ZERO@Vector3@Ogre@@2V12@B" PURGE="-1" COMMENT="" />
    <EXPORT ORDINAL="2214" NAME="?ZERO@Vector4@Ogre@@2V12@B" PURGE="-1" COMMENT="" />
    <EXPORT ORDINAL="2215" NAME="?_addBoundingBoxToQueue@SceneNode@Ogre@@UAEXPAVRenderQueue@2@@Z" PURGE="4" COMMENT="" />
    <EXPORT ORDINAL="2216" NAME="?_addChild@OverlayContainer@Ogre@@QAEXPAVOverlayElement@2@@Z" PURGE="4" COMMENT="" />
    <EXPORT ORDINAL="2217" NAME="?_allocateNextMovableObjectTypeFlag@Root@Ogre@@QAEIXZ" PURGE="0" COMMENT="" />
    <EXPORT ORDINAL="2218" NAME="?_applyMotion@ParticleSystem@Ogre@@IAEXM@Z" PURGE="-1" COMMENT="" />
    <EXPORT ORDINAL="2219" NAME="?_applySceneAnimations@SceneManager@Ogre@@UAEXXZ" PURGE="0" COMMENT="" />
    <EXPORT ORDINAL="2220" NAME="?_areRenderStateChangesSuppressed@SceneManager@Ogre@@UBE_NXZ" PURGE="0" COMMENT="" />
    <EXPORT ORDINAL="2221" NAME="?_areShadowsSuppressed@SceneManager@Ogre@@UBE_NXZ" PURGE="0" COMMENT="" />
    <EXPORT ORDINAL="2222" NAME="?_autoTrack@Camera@Ogre@@QAEXXZ" PURGE="0" COMMENT="" />
    <EXPORT ORDINAL="2223" NAME="?_autoTrack@SceneNode@Ogre@@QAEXXZ" PURGE="0" COMMENT="" />
    <EXPORT ORDINAL="2224" NAME="?_beginGeometryCount@RenderSystem@Ogre@@UAEXXZ" PURGE="0" COMMENT="" />
    <EXPORT ORDINAL="2225" NAME="?_buildKeyFrameIndexMap@AnimationTrack@Ogre@@UAEXABV?$vector@MV?$allocator@M@std@@@std@@@Z" PURGE="4" COMMENT="" />
    <EXPORT ORDINAL="2226" NAME="?_buildMapBoneByHandle@Skeleton@Ogre@@UBEXPBV12@AAV?$vector@GV?$allocator@G@std@@@std@@@Z" PURGE="8" COMMENT="" />
    <EXPORT ORDINAL="2227" NAME="?_buildMapBoneByName@Skeleton@Ogre@@UBEXPBV12@AAV?$vector@GV?$allocator@G@std@@@std@@@Z" PURGE="8" COMMENT="" />
    <EXPORT ORDINAL="2228" NAME="?_clearSliceRTT@HardwarePixelBuffer@Ogre@@MAEXI@Z" PURGE="4" COMMENT="" />
    <EXPORT ORDINAL="2229" NAME="?_clearUpdatedFlag@Viewport@Ogre@@QAEXXZ" PURGE="0" COMMENT="" />
    <EXPORT ORDINAL="2230" NAME="?_clone@KeyFrame@Ogre@@UBEPAV12@PAVAnimationTrack@2@@Z" PURGE="4" COMMENT="" />
    <EXPORT ORDINAL="2231" NAME="?_clone@NodeAnimationTrack@Ogre@@QBEPAV12@PAVAnimation@2@@Z" PURGE="4" COMMENT="" />
    <EXPORT ORDINAL="2232" NAME="?_clone@NumericAnimationTrack@Ogre@@QBEPAV12@PAVAnimation@2@@Z" PURGE="4" COMMENT="" />
    <EXPORT ORDINAL="2233" NAME="?_clone@NumericKeyFrame@Ogre@@UBEPAVKeyFrame@2@PAVAnimationTrack@2@@Z" PURGE="4" COMMENT="" />
    <EXPORT ORDINAL="2234" NAME="?_clone@TransformKeyFrame@Ogre@@UBEPAVKeyFrame@2@PAVAnimationTrack@2@@Z" PURGE="4" COMMENT="" />
    <EXPORT ORDINAL="2235" NAME="?_clone@VertexAnimationTrack@Ogre@@QBEPAV12@PAVAnimation@2@@Z" PURGE="4" COMMENT="" />
    <EXPORT ORDINAL="2236" NAME="?_clone@VertexMorphKeyFrame@Ogre@@UBEPAVKeyFrame@2@PAVAnimationTrack@2@@Z" PURGE="4" COMMENT="" />
    <EXPORT ORDINAL="2237" NAME="?_clone@VertexPoseKeyFrame@Ogre@@UBEPAVKeyFrame@2@PAVAnimationTrack@2@@Z" PURGE="4" COMMENT="" />
    <EXPORT ORDINAL="2238" NAME="?_collectKeyFrameTimes@AnimationTrack@Ogre@@UAEXAAV?$vector@MV?$allocator@M@std@@@std@@@Z" PURGE="4" COMMENT="" />
    <EXPORT ORDINAL="2239" NAME="?_compile@CompositorChain@Ogre@@QAEXXZ" PURGE="0" COMMENT="" />
    <EXPORT ORDINAL="2240" NAME="?_compile@Technique@Ogre@@QAEX_N@Z" PURGE="4" COMMENT="" />
    <EXPORT ORDINAL="2241" NAME="?_compileBoneAssignments@Mesh@Ogre@@QAEXXZ" PURGE="0" COMMENT="" />
    <EXPORT ORDINAL="2242" NAME="?_compileBoneAssignments@SubMesh@Ogre@@QAEXXZ" PURGE="0" COMMENT="" />
    <EXPORT ORDINAL="2243" NAME="?_compileIlluminationPasses@Technique@Ogre@@QAEXXZ" PURGE="0" COMMENT="" />
    <EXPORT ORDINAL="2244" NAME="?_compileOutputOperation@CompositorInstance@Ogre@@UAEXAAVTargetOperation@12@@Z" PURGE="4" COMMENT="" />
    <EXPORT ORDINAL="2245" NAME="?_compileTargetOperations@CompositorInstance@Ogre@@UAEXAAV?$vector@VTargetOperation@CompositorInstance@Ogre@@V?$allocator@VTargetOperation@CompositorInstance@Ogre@@@std@@@std@@@Z" PURGE="4" COMMENT="" />
    <EXPORT ORDINAL="2246" NAME="?_createAffector@ParticleSystemManager@Ogre@@QAEPAVParticleAffector@2@ABV?$basic_string@DU?$char_traits@D@std@@V?$allocator@D@2@@std@@PAVParticleSystem@2@@Z" PURGE="8" COMMENT="" />
    <EXPORT ORDINAL="2247" NAME="?_createBuffers@BillboardSet@Ogre@@AAEXXZ" PURGE="0" COMMENT="" />
    <EXPORT ORDINAL="2248" NAME="?_createEmitter@ParticleSystemManager@Ogre@@QAEPAVParticleEmitter@2@ABV?$basic_string@DU?$char_traits@D@std@@V?$allocator@D@2@@std@@PAVParticleSystem@2@@Z" PURGE="8" COMMENT="" />
    <EXPORT ORDINAL="2249" NAME="?_createKeyFrameUnsorted@AnimationTrack@Ogre@@UAEPAVKeyFrame@2@M@Z" PURGE="4" COMMENT="" />
    <EXPORT ORDINAL="2250" NAME="?_createNodeKeyFrameUnsorted@NodeAnimationTrack@Ogre@@UAEPAVTransformKeyFrame@2@M@Z" PURGE="-1" COMMENT="" />
    <EXPORT ORDINAL="2251" NAME="?_createNumericKeyFrameUnsorted@NumericAnimationTrack@Ogre@@UAEPAVNumericKeyFrame@2@M@Z" PURGE="-1" COMMENT="" />
    <EXPORT ORDINAL="2252" NAME="?_createRenderer@ParticleSystemManager@Ogre@@QAEPAVParticleSystemRenderer@2@ABV?$basic_string@DU?$char_traits@D@std@@V?$allocator@D@2@@std@@@Z" PURGE="4" COMMENT="" />
    <EXPORT ORDINAL="2253" NAME="?_createVertexMorphKeyFrameUnsorted@VertexAnimationTrack@Ogre@@UAEPAVVertexMorphKeyFrame@2@M@Z" PURGE="-1" COMMENT="" />
    <EXPORT ORDINAL="2254" NAME="?_createVertexPoseKeyFrameUnsorted@VertexAnimationTrack@Ogre@@UAEPAVVertexPoseKeyFrame@2@M@Z" PURGE="-1" COMMENT="" />
    <EXPORT ORDINAL="2255" NAME="?_createVisualData@ParticleSystemRenderer@Ogre@@UAEPAVParticleVisualData@2@XZ" PURGE="0" COMMENT="" />
    <EXPORT ORDINAL="2256" NAME="?_destroyAffector@ParticleSystemManager@Ogre@@QAEXPAVParticleAffector@2@@Z" PURGE="4" COMMENT="" />
    <EXPORT ORDINAL="2257" NAME="?_destroyBuffers@BillboardSet@Ogre@@AAEXXZ" PURGE="0" COMMENT="" />
    <EXPORT ORDINAL="2258" NAME="?_destroyEmitter@ParticleSystemManager@Ogre@@QAEXPAVParticleEmitter@2@@Z" PURGE="4" COMMENT="" />
    <EXPORT ORDINAL="2259" NAME="?_destroyPool@ConvexBody@Ogre@@SAXXZ" PURGE="0" COMMENT="" />
    <EXPORT ORDINAL="2260" NAME="?_destroyRenderer@ParticleSystemManager@Ogre@@QAEXPAVParticleSystemRenderer@2@@Z" PURGE="4" COMMENT="" />
    <EXPORT ORDINAL="2261" NAME="?_destroyVisualData@ParticleSystemRenderer@Ogre@@UAEXPAVParticleVisualData@2@@Z" PURGE="4" COMMENT="" />
    <EXPORT ORDINAL="2262" NAME="?_detectImplementation@OptimisedUtil@Ogre@@KAPAV12@XZ" PURGE="0" COMMENT="" />
    <EXPORT ORDINAL="2263" NAME="?_determineAnimationTypes@Mesh@Ogre@@QBEXXZ" PURGE="0" COMMENT="" />
    <EXPORT ORDINAL="2264" NAME="?_dirtyHash@Pass@Ogre@@QAEXXZ" PURGE="0" COMMENT="" />
    <EXPORT ORDINAL="2265" NAME="?_disableTextureUnit@RenderSystem@Ogre@@UAEXI@Z" PURGE="4" COMMENT="" />
    <EXPORT ORDINAL="2266" NAME="?_disableTextureUnitsFrom@RenderSystem@Ogre@@UAEXI@Z" PURGE="4" COMMENT="" />
    <EXPORT ORDINAL="2267" NAME="?_dumpContents@Skeleton@Ogre@@IAEXABV?$basic_string@DU?$char_traits@D@std@@V?$allocator@D@2@@std@@@Z" PURGE="4" COMMENT="" />
    <EXPORT ORDINAL="2268" NAME="?_estimateNumKeyFrames@AnimationTrack@Ogre@@UAEXG@Z" PURGE="4" COMMENT="" />
    <EXPORT ORDINAL="2269" NAME="?_expire@ParticleSystem@Ogre@@IAEXM@Z" PURGE="4" COMMENT="" />
    <EXPORT ORDINAL="2270" NAME="?_findVisibleObjects@Overlay@Ogre@@QAEXPAVCamera@2@PAVRenderQueue@2@@Z" PURGE="8" COMMENT="" />
    <EXPORT ORDINAL="2271" NAME="?_findVisibleObjects@SceneManager@Ogre@@UAEXPAVCamera@2@_N@Z" PURGE="8" COMMENT="" />
    <EXPORT ORDINAL="2272" NAME="?_findVisibleObjects@SceneNode@Ogre@@UAEXPAVCamera@2@PAVRenderQueue@2@_N22@Z" PURGE="20" COMMENT="" />
    <EXPORT ORDINAL="2273" NAME="?_fireFrameEnded@Root@Ogre@@QAE_NAAUFrameEvent@2@@Z" PURGE="4" COMMENT="" />
    <EXPORT ORDINAL="2274" NAME="?_fireFrameEnded@Root@Ogre@@QAE_NXZ" PURGE="0" COMMENT="" />
    <EXPORT ORDINAL="2275" NAME="?_fireFrameStarted@Root@Ogre@@QAE_NAAUFrameEvent@2@@Z" PURGE="4" COMMENT="" />
    <EXPORT ORDINAL="2276" NAME="?_fireFrameStarted@Root@Ogre@@QAE_NXZ" PURGE="0" COMMENT="" />
    <EXPORT ORDINAL="2277" NAME="?_fireNotifyMaterialRender@CompositorInstance@Ogre@@QAEXIAAVMaterialPtr@2@@Z" PURGE="8" COMMENT="" />
    <EXPORT ORDINAL="2278" NAME="?_fireNotifyMaterialSetup@CompositorInstance@Ogre@@QAEXIAAVMaterialPtr@2@@Z" PURGE="8" COMMENT="" />
    <EXPORT ORDINAL="2279" NAME="?_forceReleaseBufferCopies@HardwareBufferManager@Ogre@@UAEXABVHardwareVertexBufferSharedPtr@2@@Z" PURGE="-1" COMMENT="" />
    <EXPORT ORDINAL="2280" NAME="?_forceReleaseBufferCopies@HardwareBufferManager@Ogre@@UAEXPAVHardwareVertexBuffer@2@@Z" PURGE="4" COMMENT="" />
    <EXPORT ORDINAL="2281" NAME="?_freeUnusedBufferCopies@HardwareBufferManager@Ogre@@UAEXXZ" PURGE="0" COMMENT="" />
    <EXPORT ORDINAL="2282" NAME="?_getActiveSchemeIndex@MaterialManager@Ogre@@UBEGXZ" PURGE="0" COMMENT="" />
    <EXPORT ORDINAL="2283" NAME="?_getAnimableValueNames@AnimableObject@Ogre@@IAEAAV?$vector@V?$basic_string@DU?$char_traits@D@std@@V?$allocator@D@2@@std@@V?$allocator@V?$basic_string@DU?$char_traits@D@std@@V?$allocator@D@2@@std@@@2@@std@@XZ" PURGE="0" COMMENT="" />
    <EXPORT ORDINAL="2284" NAME="?_getAnimationImpl@Mesh@Ogre@@UBEPAVAnimation@2@ABV?$basic_string@DU?$char_traits@D@std@@V?$allocator@D@2@@std@@@Z" PURGE="4" COMMENT="" />
    <EXPORT ORDINAL="2285" NAME="?_getAnimationImpl@Skeleton@Ogre@@UBEPAVAnimation@2@ABV?$basic_string@DU?$char_traits@D@std@@V?$allocator@D@2@@std@@PAPBULinkedSkeletonAnimationSource@2@@Z" PURGE="8" COMMENT="" />
    <EXPORT ORDINAL="2286" NAME="?_getAnimationImpl@SkeletonInstance@Ogre@@UBEPAVAnimation@2@ABV?$basic_string@DU?$char_traits@D@std@@V?$allocator@D@2@@std@@PAPBULinkedSkeletonAnimationSource@2@@Z" PURGE="-1" COMMENT="" />
    <EXPORT ORDINAL="2287" NAME="?_getAnimationTypesDirty@Mesh@Ogre@@QBE_NXZ" PURGE="0" COMMENT="" />
    <EXPORT ORDINAL="2288" NAME="?_getBatchCount@RenderSystem@Ogre@@UBEIXZ" PURGE="0" COMMENT="" />
    <EXPORT ORDINAL="2289" NAME="?_getBindingDelegate@GpuProgram@Ogre@@UAEPAV12@XZ" PURGE="0" COMMENT="" />
    <EXPORT ORDINAL="2290" NAME="?_getBindingDelegate@HighLevelGpuProgram@Ogre@@UAEPAVGpuProgram@2@XZ" PURGE="0" COMMENT="" />
    <EXPORT ORDINAL="2291" NAME="?_getBindingPoseInverseOrientation@Bone@Ogre@@QBEABVQuaternion@2@XZ" PURGE="0" COMMENT="" />
    <EXPORT ORDINAL="2292" NAME="?_getBindingPoseInversePosition@Bone@Ogre@@QBEABVVector3@2@XZ" PURGE="0" COMMENT="" />
    <EXPORT ORDINAL="2293" NAME="?_getBindingPoseInverseScale@Bone@Ogre@@QBEABVVector3@2@XZ" PURGE="0" COMMENT="" />
    <EXPORT ORDINAL="2294" NAME="?_getBoneMatrices@Entity@Ogre@@QBEPBVMatrix4@2@XZ" PURGE="0" COMMENT="" />
    <EXPORT ORDINAL="2295" NAME="?_getBoneMatrices@Skeleton@Ogre@@UAEXPAVMatrix4@2@@Z" PURGE="4" COMMENT="" />
    <EXPORT ORDINAL="2296" NAME="?_getBuffersMarkedForAnimation@Entity@Ogre@@QBE_NXZ" PURGE="0" COMMENT="" />
    <EXPORT ORDINAL="2297" NAME="?_getBuffersMarkedForAnimation@SubEntity@Ogre@@QBE_NXZ" PURGE="0" COMMENT="" />
    <EXPORT ORDINAL="2298" NAME="?_getClippingRegion@OverlayElement@Ogre@@UAEXAAURectangle@2@@Z" PURGE="4" COMMENT="" />
    <EXPORT ORDINAL="2299" NAME="?_getCreator@MovableObject@Ogre@@UBEPAVMovableObjectFactory@2@XZ" PURGE="0" COMMENT="" />
    <EXPORT ORDINAL="2300" NAME="?_getCullingMode@RenderSystem@Ogre@@UBE?AW4CullingMode@2@XZ" PURGE="0" COMMENT="" />
    <EXPORT ORDINAL="2301" NAME="?_getCurrentSceneManager@Root@Ogre@@QBEPAVSceneManager@2@XZ" PURGE="0" COMMENT="" />
    <EXPORT ORDINAL="2302" NAME="?_getDerivedLeft@OverlayElement@Ogre@@UAEMXZ" PURGE="0" COMMENT="" />
    <EXPORT ORDINAL="2303" NAME="?_getDerivedOrientation@Node@Ogre@@UBEABVQuaternion@2@XZ" PURGE="0" COMMENT="" />
    <EXPORT ORDINAL="2304" NAME="?_getDerivedPlane@MovablePlane@Ogre@@QBEABVPlane@2@XZ" PURGE="0" COMMENT="" />
    <EXPORT ORDINAL="2305" NAME="?_getDerivedPosition@Node@Ogre@@UBEABVVector3@2@XZ" PURGE="0" COMMENT="" />
    <EXPORT ORDINAL="2306" NAME="?_getDerivedScale@Node@Ogre@@UBEABVVector3@2@XZ" PURGE="0" COMMENT="" />
    <EXPORT ORDINAL="2307" NAME="?_getDerivedTop@OverlayElement@Ogre@@UAEMXZ" PURGE="0" COMMENT="" />
    <EXPORT ORDINAL="2308" NAME="?_getFaceCount@RenderSystem@Ogre@@UBEIXZ" PURGE="0" COMMENT="" />
    <EXPORT ORDINAL="2309" NAME="?_getFactory@ParticleSystemManager@Ogre@@QAEPAVParticleSystemFactory@2@XZ" PURGE="0" COMMENT="" />
    <EXPORT ORDINAL="2310" NAME="?_getFrustumClipVolumes@Light@Ogre@@UBEABV?$vector@VPlaneBoundedVolume@Ogre@@V?$allocator@VPlaneBoundedVolume@Ogre@@@std@@@std@@QBVCamera@2@@Z" PURGE="4" COMMENT="" />
    <EXPORT ORDINAL="2311" NAME="?_getFullLocalTransform@TagPoint@Ogre@@QBEABVMatrix4@2@XZ" PURGE="0" COMMENT="" />
    <EXPORT ORDINAL="2312" NAME="?_getFullTransform@Node@Ogre@@UBEABVMatrix4@2@XZ" PURGE="0" COMMENT="" />
    <EXPORT ORDINAL="2313" NAME="?_getHardwareVertexAnimVertexData@Entity@Ogre@@QBEPAVVertexData@2@XZ" PURGE="0" COMMENT="" />
    <EXPORT ORDINAL="2314" NAME="?_getHardwareVertexAnimVertexData@SubEntity@Ogre@@QAEPAVVertexData@2@XZ" PURGE="0" COMMENT="" />
    <EXPORT ORDINAL="2315" NAME="?_getHardwareVertexBuffer@Pose@Ogre@@QBEABVHardwareVertexBufferSharedPtr@2@I@Z" PURGE="4" COMMENT="" />
    <EXPORT ORDINAL="2316" NAME="?_getHeight@OverlayElement@Ogre@@QBEMXZ" PURGE="0" COMMENT="" />
    <EXPORT ORDINAL="2317" NAME="?_getImpl@RenderTarget@Ogre@@UAEPAVImpl@12@XZ" PURGE="0" COMMENT="" />
    <EXPORT ORDINAL="2318" NAME="?_getIterator@ParticleSystem@Ogre@@QAE?AVParticleIterator@2@XZ" PURGE="4" COMMENT="" />
    <EXPORT ORDINAL="2319" NAME="?_getLeft@OverlayElement@Ogre@@QBEMXZ" PURGE="0" COMMENT="" />
    <EXPORT ORDINAL="2320" NAME="?_getLightsAffectingFrustum@SceneManager@Ogre@@UBEABV?$vector@PAVLight@Ogre@@V?$allocator@PAVLight@Ogre@@@std@@@std@@XZ" PURGE="0" COMMENT="" />
    <EXPORT ORDINAL="2321" NAME="?_getLightsDirtyCounter@SceneManager@Ogre@@QBEKXZ" PURGE="0" COMMENT="" />
    <EXPORT ORDINAL="2322" NAME="?_getLodBiasInverse@Camera@Ogre@@QBEMXZ" PURGE="0" COMMENT="" />
    <EXPORT ORDINAL="2323" NAME="?_getManager@MovableObject@Ogre@@UBEPAVSceneManager@2@XZ" PURGE="0" COMMENT="" />
    <EXPORT ORDINAL="2324" NAME="?_getNearClipVolume@Light@Ogre@@UBEABVPlaneBoundedVolume@2@QBVCamera@2@@Z" PURGE="4" COMMENT="" />
    <EXPORT ORDINAL="2325" NAME="?_getNodeTrackList@Animation@Ogre@@QBEABV?$map@GPAVNodeAnimationTrack@Ogre@@U?$less@G@std@@V?$fast_pool_allocator@U?$pair@$$CBGPAVNodeAnimationTrack@Ogre@@@std@@Udefault_user_allocator_new_delete@boost@@Vspin_mutex@pool@details@4@$0CA@@boost@@@std@@XZ" PURGE="0" COMMENT="" />
    <EXPORT ORDINAL="2326" NAME="?_getNumBoneMatrices@Entity@Ogre@@QBEGXZ" PURGE="0" COMMENT="" />
    <EXPORT ORDINAL="2327" NAME="?_getNumRenderedBatches@Camera@Ogre@@QBEIXZ" PURGE="0" COMMENT="" />
    <EXPORT ORDINAL="2328" NAME="?_getNumRenderedBatches@Viewport@Ogre@@QBEIXZ" PURGE="0" COMMENT="" />
    <EXPORT ORDINAL="2329" NAME="?_getNumRenderedFaces@Camera@Ogre@@QBEIXZ" PURGE="0" COMMENT="" />
    <EXPORT ORDINAL="2330" NAME="?_getNumRenderedFaces@Viewport@Ogre@@QBEIXZ" PURGE="0" COMMENT="" />
    <EXPORT ORDINAL="2331" NAME="?_getNumericTrackList@Animation@Ogre@@QBEABV?$map@GPAVNumericAnimationTrack@Ogre@@U?$less@G@std@@V?$fast_pool_allocator@U?$pair@$$CBGPAVNumericAnimationTrack@Ogre@@@std@@Udefault_user_allocator_new_delete@boost@@Vspin_mutex@pool@details@4@$0CA@@boost@@@std@@XZ" PURGE="0" COMMENT="" />
    <EXPORT ORDINAL="2332" NAME="?_getOffsetTransform@Bone@Ogre@@QBEXAAVMatrix4@2@@Z" PURGE="4" COMMENT="" />
    <EXPORT ORDINAL="2333" NAME="?_getOriginalSceneCompositor@CompositorChain@Ogre@@QAEPAVCompositorInstance@2@XZ" PURGE="0" COMMENT="" />
    <EXPORT ORDINAL="2334" NAME="?_getParentNodeFullTransform@MovableObject@Ogre@@UBEABVMatrix4@2@XZ" PURGE="0" COMMENT="" />
    <EXPORT ORDINAL="2335" NAME="?_getQueueGroupIterator@RenderQueue@Ogre@@QAE?AV?$MapIterator@V?$map@EPAVRenderQueueGroup@Ogre@@U?$less@E@std@@V?$allocator@U?$pair@$$CBEPAVRenderQueueGroup@Ogre@@@std@@@4@@std@@@2@XZ" PURGE="4" COMMENT="" />
    <EXPORT ORDINAL="2336" NAME="?_getRelativeHeight@OverlayElement@Ogre@@UAEMXZ" PURGE="0" COMMENT="" />
    <EXPORT ORDINAL="2337" NAME="?_getRelativeWidth@OverlayElement@Ogre@@UAEMXZ" PURGE="0" COMMENT="" />
    <EXPORT ORDINAL="2338" NAME="?_getRenderOperation@SubMesh@Ogre@@QAEXAAVRenderOperation@2@G@Z" PURGE="8" COMMENT="" />
    <EXPORT ORDINAL="2339" NAME="?_getRenderQueueInvocationSequence@Viewport@Ogre@@QAEPAVRenderQueueInvocationSequence@2@XZ" PURGE="0" COMMENT="" />
    <EXPORT ORDINAL="2340" NAME="?_getResourceManager@ResourceGroupManager@Ogre@@QAEPAVResourceManager@2@ABV?$basic_string@DU?$char_traits@D@std@@V?$allocator@D@2@@std@@@Z" PURGE="4" COMMENT="" />
    <EXPORT ORDINAL="2341" NAME="?_getSchemeIndex@MaterialManager@Ogre@@UAEGABV?$basic_string@DU?$char_traits@D@std@@V?$allocator@D@2@@std@@@Z" PURGE="4" COMMENT="" />
    <EXPORT ORDINAL="2342" NAME="?_getSchemeIndex@Technique@Ogre@@QBEGXZ" PURGE="0" COMMENT="" />
    <EXPORT ORDINAL="2343" NAME="?_getSchemeName@MaterialManager@Ogre@@UAEABV?$basic_string@DU?$char_traits@D@std@@V?$allocator@D@2@@std@@G@Z" PURGE="4" COMMENT="" />
    <EXPORT ORDINAL="2344" NAME="?_getSkelAnimTempBufferInfo@Entity@Ogre@@QAEPAVTempBlendedBufferInfo@2@XZ" PURGE="0" COMMENT="" />
    <EXPORT ORDINAL="2345" NAME="?_getSkelAnimTempBufferInfo@SubEntity@Ogre@@QAEPAVTempBlendedBufferInfo@2@XZ" PURGE="0" COMMENT="" />
    <EXPORT ORDINAL="2346" NAME="?_getSkelAnimVertexData@Entity@Ogre@@QBEPAVVertexData@2@XZ" PURGE="0" COMMENT="" />
    <EXPORT ORDINAL="2347" NAME="?_getSkelAnimVertexData@SubEntity@Ogre@@QAEPAVVertexData@2@XZ" PURGE="0" COMMENT="" />
    <EXPORT ORDINAL="2348" NAME="?_getSoftwareVertexAnimVertexData@Entity@Ogre@@QBEPAVVertexData@2@XZ" PURGE="0" COMMENT="" />
    <EXPORT ORDINAL="2349" NAME="?_getSoftwareVertexAnimVertexData@SubEntity@Ogre@@QAEPAVVertexData@2@XZ" PURGE="0" COMMENT="" />
    <EXPORT ORDINAL="2350" NAME="?_getSortMode@BillboardParticleRenderer@Ogre@@UBE?AW4SortMode@2@XZ" PURGE="-1" COMMENT="" />
    <EXPORT ORDINAL="2351" NAME="?_getSortMode@BillboardSet@Ogre@@UBE?AW4SortMode@2@XZ" PURGE="0" COMMENT="" />
    <EXPORT ORDINAL="2352" NAME="?_getSubMeshIndex@Mesh@Ogre@@QBEGABV?$basic_string@DU?$char_traits@D@std@@V?$allocator@D@2@@std@@@Z" PURGE="4" COMMENT="" />
    <EXPORT ORDINAL="2353" NAME="?_getTexturedRectangle2D@CompositorManager@Ogre@@QAEPAVRenderable@2@XZ" PURGE="0" COMMENT="" />
    <EXPORT ORDINAL="2354" NAME="?_getTimeIndex@Animation@Ogre@@QBE?AVTimeIndex@2@M@Z" PURGE="8" COMMENT="" />
    <EXPORT ORDINAL="2355" NAME="?_getTop@OverlayElement@Ogre@@QBEMXZ" PURGE="0" COMMENT="" />
    <EXPORT ORDINAL="2356" NAME="?_getVertexAnimTempBufferInfo@Entity@Ogre@@QAEPAVTempBlendedBufferInfo@2@XZ" PURGE="0" COMMENT="" />
    <EXPORT ORDINAL="2357" NAME="?_getVertexAnimTempBufferInfo@SubEntity@Ogre@@QAEPAVTempBlendedBufferInfo@2@XZ" PURGE="0" COMMENT="" />
    <EXPORT ORDINAL="2358" NAME="?_getVertexCount@RenderSystem@Ogre@@UBEIXZ" PURGE="0" COMMENT="" />
    <EXPORT ORDINAL="2359" NAME="?_getVertexTrackList@Animation@Ogre@@QBEABV?$map@GPAVVertexAnimationTrack@Ogre@@U?$less@G@std@@V?$fast_pool_allocator@U?$pair@$$CBGPAVVertexAnimationTrack@Ogre@@@std@@Udefault_user_allocator_new_delete@boost@@Vspin_mutex@pool@details@4@$0CA@@boost@@@std@@XZ" PURGE="0" COMMENT="" />
    <EXPORT ORDINAL="2360" NAME="?_getViewport@RenderSystem@Ogre@@UAEPAVViewport@2@XZ" PURGE="0" COMMENT="" />
    <EXPORT ORDINAL="2361" NAME="?_getWidth@OverlayElement@Ogre@@QBEMXZ" PURGE="0" COMMENT="" />
    <EXPORT ORDINAL="2362" NAME="?_getWorldAABB@SceneNode@Ogre@@UBEABVAxisAlignedBox@2@XZ" PURGE="0" COMMENT="" />
    <EXPORT ORDINAL="2363" NAME="?_getWorldTransforms@Overlay@Ogre@@QBEXPAVMatrix4@2@@Z" PURGE="4" COMMENT="" />
    <EXPORT ORDINAL="2364" NAME="?_initAnimationState@Mesh@Ogre@@QAEXPAVAnimationStateSet@2@@Z" PURGE="4" COMMENT="" />
    <EXPORT ORDINAL="2365" NAME="?_initAnimationState@Skeleton@Ogre@@UAEXPAVAnimationStateSet@2@@Z" PURGE="4" COMMENT="" />
    <EXPORT ORDINAL="2366" NAME="?_initAnimationState@SkeletonInstance@Ogre@@UAEXPAVAnimationStateSet@2@@Z" PURGE="-1" COMMENT="" />
    <EXPORT ORDINAL="2367" NAME="?_initParticle@ParticleAffector@Ogre@@UAEXPAVParticle@2@@Z" PURGE="4" COMMENT="" />
    <EXPORT ORDINAL="2368" NAME="?_initParticle@ParticleEmitter@Ogre@@UAEXPAVParticle@2@@Z" PURGE="4" COMMENT="" />
    <EXPORT ORDINAL="2369" NAME="?_initRenderTargets@RenderSystem@Ogre@@UAEXXZ" PURGE="0" COMMENT="" />
    <EXPORT ORDINAL="2370" NAME="?_initialise@MeshManager@Ogre@@QAEXXZ" PURGE="0" COMMENT="" />
    <EXPORT ORDINAL="2371" NAME="?_initialise@ParticleSystemManager@Ogre@@QAEXXZ" PURGE="0" COMMENT="" />
    <EXPORT ORDINAL="2372" NAME="?_initialisePool@ConvexBody@Ogre@@SAXXZ" PURGE="0" COMMENT="" />
    <EXPORT ORDINAL="2373" NAME="?_injectRenderWithPass@SceneManager@Ogre@@UAEXPAVPass@2@PAVRenderable@2@_N@Z" PURGE="12" COMMENT="" />
    <EXPORT ORDINAL="2374" NAME="?_isAnimated@Entity@Ogre@@QBE_NXZ" PURGE="0" COMMENT="" />
    <EXPORT ORDINAL="2375" NAME="?_isSkeletonAnimated@Entity@Ogre@@QBE_NXZ" PURGE="0" COMMENT="" />
    <EXPORT ORDINAL="2376" NAME="?_isSupported@CompositionPass@Ogre@@QAE_NXZ" PURGE="0" COMMENT="" />
    <EXPORT ORDINAL="2377" NAME="?_isSupported@CompositionTargetPass@Ogre@@QAE_NXZ" PURGE="0" COMMENT="" />
    <EXPORT ORDINAL="2378" NAME="?_isUpdated@Viewport@Ogre@@QBE_NXZ" PURGE="0" COMMENT="" />
    <EXPORT ORDINAL="2379" NAME="?_is_initialised@ILImageCodec@Ogre@@0_NA" PURGE="-1" COMMENT="" />
    <EXPORT ORDINAL="2380" NAME="?_keyFrameDataChanged@AnimationTrack@Ogre@@UBEXXZ" PURGE="0" COMMENT="" />
    <EXPORT ORDINAL="2381" NAME="?_keyFrameDataChanged@NodeAnimationTrack@Ogre@@UBEXXZ" PURGE="0" COMMENT="" />
    <EXPORT ORDINAL="2382" NAME="?_keyFrameListChanged@Animation@Ogre@@QAEXXZ" PURGE="0" COMMENT="" />
    <EXPORT ORDINAL="2383" NAME="?_load@GpuProgramUsage@Ogre@@QAEXXZ" PURGE="0" COMMENT="" />
    <EXPORT ORDINAL="2384" NAME="?_load@Pass@Ogre@@QAEXXZ" PURGE="0" COMMENT="" />
    <EXPORT ORDINAL="2385" NAME="?_load@Technique@Ogre@@QAEXXZ" PURGE="0" COMMENT="" />
    <EXPORT ORDINAL="2386" NAME="?_load@TextureUnitState@Ogre@@QAEXXZ" PURGE="0" COMMENT="" />
    <EXPORT ORDINAL="2387" NAME="?_loadImages@Texture@Ogre@@MAEXABV?$vector@PBVImage@Ogre@@V?$allocator@PBVImage@Ogre@@@std@@@std@@@Z" PURGE="4" COMMENT="" />
    <EXPORT ORDINAL="2388" NAME="?_mapParameterNameToIndex@GpuProgramParameters@Ogre@@QAEXABV?$basic_string@DU?$char_traits@D@std@@V?$allocator@D@2@@std@@I@Z" PURGE="8" COMMENT="" />
    <EXPORT ORDINAL="2389" NAME="?_markBuffersUnusedForAnimation@SubEntity@Ogre@@QAEXXZ" PURGE="0" COMMENT="" />
    <EXPORT ORDINAL="2390" NAME="?_markBuffersUsedForAnimation@Entity@Ogre@@QAEXXZ" PURGE="0" COMMENT="" />
    <EXPORT ORDINAL="2391" NAME="?_markBuffersUsedForAnimation@SubEntity@Ogre@@QAEXXZ" PURGE="0" COMMENT="" />
    <EXPORT ORDINAL="2392" NAME="?_markDirty@CompositorChain@Ogre@@QAEXXZ" PURGE="0" COMMENT="" />
    <EXPORT ORDINAL="2393" NAME="?_mergeSkeletonAnimations@Skeleton@Ogre@@UAEXPBV12@ABV?$vector@GV?$allocator@G@std@@@std@@ABV?$vector@V?$basic_string@DU?$char_traits@D@std@@V?$allocator@D@2@@std@@V?$allocator@V?$basic_string@DU?$char_traits@D@std@@V?$allocator@D@2@@std@@@2@@4@@Z" PURGE="12" COMMENT="" />
    <EXPORT ORDINAL="2394" NAME="?_notifyAllResourcesRemoved@ResourceGroupManager@Ogre@@QAEXPAVResourceManager@2@@Z" PURGE="4" COMMENT="" />
    <EXPORT ORDINAL="2395" NAME="?_notifyAnimationStateEnabled@AnimationStateSet@Ogre@@QAEXPAVAnimationState@2@_N@Z" PURGE="8" COMMENT="" />
    <EXPORT ORDINAL="2396" NAME="?_notifyAttached@BillboardParticleRenderer@Ogre@@UAEXPAVNode@2@_N@Z" PURGE="-1" COMMENT="" />
    <EXPORT ORDINAL="2397" NAME="?_notifyAttached@Entity@Ogre@@UAEXPAVNode@2@_N@Z" PURGE="8" COMMENT="" />
    <EXPORT ORDINAL="2398" NAME="?_notifyAttached@Light@Ogre@@UAEXPAVNode@2@_N@Z" PURGE="8" COMMENT="" />
    <EXPORT ORDINAL="2399" NAME="?_notifyAttached@MovableObject@Ogre@@UAEXPAVNode@2@_N@Z" PURGE="8" COMMENT="" />
    <EXPORT ORDINAL="2400" NAME="?_notifyAttached@ParticleSystem@Ogre@@UAEXPAVNode@2@_N@Z" PURGE="8" COMMENT="" />
    <EXPORT ORDINAL="2401" NAME="?_notifyAutotrackingSceneNode@SceneManager@Ogre@@UAEXPAVSceneNode@2@_N@Z" PURGE="8" COMMENT="" />
    <EXPORT ORDINAL="2402" NAME="?_notifyBillboardResized@BillboardSet@Ogre@@UAEXXZ" PURGE="0" COMMENT="" />
    <EXPORT ORDINAL="2403" NAME="?_notifyBillboardRotated@BillboardSet@Ogre@@UAEXXZ" PURGE="0" COMMENT="" />
    <EXPORT ORDINAL="2404" NAME="?_notifyCameraRemoved@RenderSystem@Ogre@@UAEXPBVCamera@2@@Z" PURGE="4" COMMENT="" />
    <EXPORT ORDINAL="2405" NAME="?_notifyCameraRemoved@RenderTarget@Ogre@@UAEXPBVCamera@2@@Z" PURGE="4" COMMENT="" />
    <EXPORT ORDINAL="2406" NAME="?_notifyCreator@MovableObject@Ogre@@UAEXPAVMovableObjectFactory@2@@Z" PURGE="4" COMMENT="" />
    <EXPORT ORDINAL="2407" NAME="?_notifyCurrentCamera@BillboardChain@Ogre@@UAEXPAVCamera@2@@Z" PURGE="-1" COMMENT="" />
    <EXPORT ORDINAL="2408" NAME="?_notifyCurrentCamera@BillboardParticleRenderer@Ogre@@UAEXPAVCamera@2@@Z" PURGE="-1" COMMENT="" />
    <EXPORT ORDINAL="2409" NAME="?_notifyCurrentCamera@BillboardSet@Ogre@@UAEXPAVCamera@2@@Z" PURGE="4" COMMENT="" />
    <EXPORT ORDINAL="2410" NAME="?_notifyCurrentCamera@Entity@Ogre@@UAEXPAVCamera@2@@Z" PURGE="4" COMMENT="" />
    <EXPORT ORDINAL="2411" NAME="?_notifyCurrentCamera@Frustum@Ogre@@UAEXPAVCamera@2@@Z" PURGE="4" COMMENT="" />
    <EXPORT ORDINAL="2412" NAME="?_notifyCurrentCamera@MovableObject@Ogre@@UAEXPAVCamera@2@@Z" PURGE="4" COMMENT="" />
    <EXPORT ORDINAL="2413" NAME="?_notifyCurrentCamera@MovablePlane@Ogre@@UAEXPAVCamera@2@@Z" PURGE="4" COMMENT="" />
    <EXPORT ORDINAL="2414" NAME="?_notifyCurrentCamera@ParticleSystem@Ogre@@UAEXPAVCamera@2@@Z" PURGE="4" COMMENT="" />
    <EXPORT ORDINAL="2415" NAME="?_notifyCurrentCamera@Region@StaticGeometry@Ogre@@UAEXPAVCamera@3@@Z" PURGE="4" COMMENT="" />
    <EXPORT ORDINAL="2416" NAME="?_notifyCurrentCamera@SimpleRenderable@Ogre@@UAEXPAVCamera@2@@Z" PURGE="4" COMMENT="" />
    <EXPORT ORDINAL="2417" NAME="?_notifyDefaultDimensions@BillboardParticleRenderer@Ogre@@UAEXMM@Z" PURGE="-1" COMMENT="" />
    <EXPORT ORDINAL="2418" NAME="?_notifyDirty@AnimationStateSet@Ogre@@QAEXXZ" PURGE="0" COMMENT="" />
    <EXPORT ORDINAL="2419" NAME="?_notifyIndex@Pass@Ogre@@QAEXG@Z" PURGE="4" COMMENT="" />
    <EXPORT ORDINAL="2420" NAME="?_notifyIndexBufferDestroyed@HardwareBufferManager@Ogre@@QAEXPAVHardwareIndexBuffer@2@@Z" PURGE="4" COMMENT="" />
    <EXPORT ORDINAL="2421" NAME="?_notifyLightsDirty@SceneManager@Ogre@@UAEXXZ" PURGE="0" COMMENT="" />
    <EXPORT ORDINAL="2422" NAME="?_notifyManager@MovableObject@Ogre@@UAEXPAVSceneManager@2@@Z" PURGE="4" COMMENT="" />
    <EXPORT ORDINAL="2423" NAME="?_notifyManualBoneStateChange@Skeleton@Ogre@@UAEXPAVBone@2@@Z" PURGE="4" COMMENT="" />
    <EXPORT ORDINAL="2424" NAME="?_notifyManualBonesDirty@Skeleton@Ogre@@UAEXXZ" PURGE="0" COMMENT="" />
    <EXPORT ORDINAL="2425" NAME="?_notifyMoved@Light@Ogre@@UAEXXZ" PURGE="0" COMMENT="" />
    <EXPORT ORDINAL="2426" NAME="?_notifyMoved@MovableObject@Ogre@@UAEXXZ" PURGE="0" COMMENT="" />
    <EXPORT ORDINAL="2427" NAME="?_notifyNeedsRecompile@Material@Ogre@@QAEXXZ" PURGE="-1" COMMENT="" />
    <EXPORT ORDINAL="2428" NAME="?_notifyNeedsRecompile@Pass@Ogre@@QAEXXZ" PURGE="0" COMMENT="" />
    <EXPORT ORDINAL="2429" NAME="?_notifyNeedsRecompile@Technique@Ogre@@QAEXXZ" PURGE="0" COMMENT="" />
    <EXPORT ORDINAL="2430" NAME="?_notifyNeedsRecompile@TextureUnitState@Ogre@@QAEXXZ" PURGE="0" COMMENT="" />
    <EXPORT ORDINAL="2431" NAME="?_notifyOrigin@Overlay@Ogre@@QAEXABV?$basic_string@DU?$char_traits@D@std@@V?$allocator@D@2@@std@@@Z" PURGE="-1" COMMENT="" />
    <EXPORT ORDINAL="2432" NAME="?_notifyOrigin@ParticleSystem@Ogre@@QAEXABV?$basic_string@DU?$char_traits@D@std@@V?$allocator@D@2@@std@@@Z" PURGE="-1" COMMENT="" />
    <EXPORT ORDINAL="2433" NAME="?_notifyOrigin@Resource@Ogre@@QAEXABV?$basic_string@DU?$char_traits@D@std@@V?$allocator@D@2@@std@@@Z" PURGE="-1" COMMENT="" />
    <EXPORT ORDINAL="2434" NAME="?_notifyOwner@Billboard@Ogre@@QAEXPAVBillboardSet@2@@Z" PURGE="4" COMMENT="" />
    <EXPORT ORDINAL="2435" NAME="?_notifyOwner@Particle@Ogre@@QAEXPAVParticleSystem@2@@Z" PURGE="4" COMMENT="" />
    <EXPORT ORDINAL="2436" NAME="?_notifyParent@OverlayContainer@Ogre@@UAEXPAV12@PAVOverlay@2@@Z" PURGE="8" COMMENT="" />
    <EXPORT ORDINAL="2437" NAME="?_notifyParent@OverlayElement@Ogre@@UAEXPAVOverlayContainer@2@PAVOverlay@2@@Z" PURGE="8" COMMENT="" />
    <EXPORT ORDINAL="2438" NAME="?_notifyParent@TextureUnitState@Ogre@@QAEXPAVPass@2@@Z" PURGE="4" COMMENT="" />
    <EXPORT ORDINAL="2439" NAME="?_notifyParticleCleared@ParticleSystemRenderer@Ogre@@UAEXAAV?$list@PAVParticle@Ogre@@V?$allocator@PAVParticle@Ogre@@@std@@@std@@@Z" PURGE="4" COMMENT="" />
    <EXPORT ORDINAL="2440" NAME="?_notifyParticleEmitted@ParticleSystemRenderer@Ogre@@UAEXPAVParticle@2@@Z" PURGE="4" COMMENT="" />
    <EXPORT ORDINAL="2441" NAME="?_notifyParticleExpired@ParticleSystemRenderer@Ogre@@UAEXPAVParticle@2@@Z" PURGE="4" COMMENT="" />
    <EXPORT ORDINAL="2442" NAME="?_notifyParticleMoved@ParticleSystemRenderer@Ogre@@UAEXAAV?$list@PAVParticle@Ogre@@V?$allocator@PAVParticle@Ogre@@@std@@@std@@@Z" PURGE="4" COMMENT="" />
    <EXPORT ORDINAL="2443" NAME="?_notifyParticleQuota@BillboardParticleRenderer@Ogre@@UAEXI@Z" PURGE="-1" COMMENT="" />
    <EXPORT ORDINAL="2444" NAME="?_notifyParticleResized@BillboardParticleRenderer@Ogre@@UAEXXZ" PURGE="-1" COMMENT="" />
    <EXPORT ORDINAL="2445" NAME="?_notifyParticleResized@ParticleSystem@Ogre@@UAEXXZ" PURGE="0" COMMENT="" />
    <EXPORT ORDINAL="2446" NAME="?_notifyParticleResized@ParticleSystemRenderer@Ogre@@UAEXXZ" PURGE="0" COMMENT="" />
    <EXPORT ORDINAL="2447" NAME="?_notifyParticleRotated@BillboardParticleRenderer@Ogre@@UAEXXZ" PURGE="-1" COMMENT="" />
    <EXPORT ORDINAL="2448" NAME="?_notifyParticleRotated@ParticleSystem@Ogre@@UAEXXZ" PURGE="0" COMMENT="" />
    <EXPORT ORDINAL="2449" NAME="?_notifyParticleRotated@ParticleSystemRenderer@Ogre@@UAEXXZ" PURGE="0" COMMENT="" />
    <EXPORT ORDINAL="2450" NAME="?_notifyRenderedBatches@Camera@Ogre@@QAEXI@Z" PURGE="4" COMMENT="" />
    <EXPORT ORDINAL="2451" NAME="?_notifyRenderedFaces@Camera@Ogre@@QAEXI@Z" PURGE="4" COMMENT="" />
    <EXPORT ORDINAL="2452" NAME="?_notifyResourceCreated@ResourceGroupManager@Ogre@@QAEXAAV?$SharedPtr@VResource@Ogre@@@2@@Z" PURGE="4" COMMENT="" />
    <EXPORT ORDINAL="2453" NAME="?_notifyResourceGroupChanged@ResourceGroupManager@Ogre@@QAEXABV?$basic_string@DU?$char_traits@D@std@@V?$allocator@D@2@@std@@PAVResource@2@@Z" PURGE="8" COMMENT="" />
    <EXPORT ORDINAL="2454" NAME="?_notifyResourceLoaded@ResourceManager@Ogre@@UAEXPAVResource@2@@Z" PURGE="4" COMMENT="" />
    <EXPORT ORDINAL="2455" NAME="?_notifyResourceRemoved@ResourceGroupManager@Ogre@@QAEXAAV?$SharedPtr@VResource@Ogre@@@2@@Z" PURGE="4" COMMENT="" />
    <EXPORT ORDINAL="2456" NAME="?_notifyResourceTouched@ResourceManager@Ogre@@UAEXPAVResource@2@@Z" PURGE="4" COMMENT="" />
    <EXPORT ORDINAL="2457" NAME="?_notifyResourceUnloaded@ResourceManager@Ogre@@UAEXPAVResource@2@@Z" PURGE="4" COMMENT="" />
    <EXPORT ORDINAL="2458" NAME="?_notifyRootNode@SceneNode@Ogre@@UAEXXZ" PURGE="0" COMMENT="" />
    <EXPORT ORDINAL="2459" NAME="?_notifySkeleton@Mesh@Ogre@@QAEXAAVSkeletonPtr@2@@Z" PURGE="4" COMMENT="" />
    <EXPORT ORDINAL="2460" NAME="?_notifyTypeFlags@MovableObjectFactory@Ogre@@QAEXK@Z" PURGE="4" COMMENT="" />
    <EXPORT ORDINAL="2461" NAME="?_notifyVertexBufferDestroyed@HardwareBufferManager@Ogre@@QAEXPAVHardwareVertexBuffer@2@@Z" PURGE="4" COMMENT="" />
    <EXPORT ORDINAL="2462" NAME="?_notifyViewport@Camera@Ogre@@QAEXPAVViewport@2@@Z" PURGE="4" COMMENT="" />
    <EXPORT ORDINAL="2463" NAME="?_notifyViewport@OverlayContainer@Ogre@@UAEXXZ" PURGE="0" COMMENT="" />
    <EXPORT ORDINAL="2464" NAME="?_notifyViewport@OverlayElement@Ogre@@UAEXXZ" PURGE="0" COMMENT="" />
    <EXPORT ORDINAL="2465" NAME="?_notifyVisualData@Particle@Ogre@@QAEXPAVParticleVisualData@2@@Z" PURGE="4" COMMENT="" />
    <EXPORT ORDINAL="2466" NAME="?_notifyWorldGeometryStageEnded@ResourceGroupManager@Ogre@@QAEXXZ" PURGE="0" COMMENT="" />
    <EXPORT ORDINAL="2467" NAME="?_notifyWorldGeometryStageStarted@ResourceGroupManager@Ogre@@QAEXABV?$basic_string@DU?$char_traits@D@std@@V?$allocator@D@2@@std@@@Z" PURGE="4" COMMENT="" />
    <EXPORT ORDINAL="2468" NAME="?_notifyWorldTransforms@OverlayContainer@Ogre@@UAEXABVMatrix4@2@@Z" PURGE="4" COMMENT="" />
    <EXPORT ORDINAL="2469" NAME="?_notifyWorldTransforms@OverlayElement@Ogre@@UAEXABVMatrix4@2@@Z" PURGE="4" COMMENT="" />
    <EXPORT ORDINAL="2470" NAME="?_notifyZOrder@OverlayContainer@Ogre@@UAEXG@Z" PURGE="4" COMMENT="" />
    <EXPORT ORDINAL="2471" NAME="?_notifyZOrder@OverlayElement@Ogre@@UAEXG@Z" PURGE="4" COMMENT="" />
    <EXPORT ORDINAL="2472" NAME="?_parseColourValue@MaterialScriptCompiler@Ogre@@IAE?AVColourValue@2@XZ" PURGE="4" COMMENT="" />
    <EXPORT ORDINAL="2473" NAME="?_popFunction@Exception@Ogre@@SAXXZ" PURGE="0" COMMENT="" />
    <EXPORT ORDINAL="2474" NAME="?_populateLightList@SceneManager@Ogre@@UAEXABVVector3@2@MAAV?$vector@PAVLight@Ogre@@V?$allocator@PAVLight@Ogre@@@std@@@std@@@Z" PURGE="12" COMMENT="" />
    <EXPORT ORDINAL="2475" NAME="?_positionsOutOfDate@OverlayContainer@Ogre@@UAEXXZ" PURGE="0" COMMENT="" />
    <EXPORT ORDINAL="2476" NAME="?_positionsOutOfDate@OverlayElement@Ogre@@UAEXXZ" PURGE="0" COMMENT="" />
    <EXPORT ORDINAL="2477" NAME="?_pushFunction@Exception@Ogre@@SAXABV?$basic_string@DU?$char_traits@D@std@@V?$allocator@D@2@@std@@@Z" PURGE="0" COMMENT="" />
    <EXPORT ORDINAL="2478" NAME="?_pushSyntaxCode@GpuProgramManager@Ogre@@UAEXABV?$basic_string@DU?$char_traits@D@std@@V?$allocator@D@2@@std@@@Z" PURGE="4" COMMENT="" />
    <EXPORT ORDINAL="2479" NAME="?_queueOverlaysForRendering@OverlayManager@Ogre@@QAEXPAVCamera@2@PAVRenderQueue@2@PAVViewport@2@@Z" PURGE="12" COMMENT="" />
    <EXPORT ORDINAL="2480" NAME="?_queueSkiesForRendering@SceneManager@Ogre@@UAEXPAVCamera@2@@Z" PURGE="4" COMMENT="" />
    <EXPORT ORDINAL="2481" NAME="?_queuedOperation@CompositorChain@Ogre@@QAEXPAVRenderSystemOperation@CompositorInstance@2@@Z" PURGE="4" COMMENT="" />
    <EXPORT ORDINAL="2482" NAME="?_rationaliseBoneAssignments@Mesh@Ogre@@QAEGIAAV?$multimap@IUVertexBoneAssignment_s@Ogre@@U?$less@I@std@@V?$fast_pool_allocator@U?$pair@$$CBIUVertexBoneAssignment_s@Ogre@@@std@@Udefault_user_allocator_new_delete@boost@@Vspin_mutex@pool@details@4@$0CA@@boost@@@std@@@Z" PURGE="8" COMMENT="" />
    <EXPORT ORDINAL="2483" NAME="?_recalculateHash@Pass@Ogre@@QAEXXZ" PURGE="0" COMMENT="" />
    <EXPORT ORDINAL="2484" NAME="?_refreshAnimationState@Mesh@Ogre@@QAEXPAVAnimationStateSet@2@@Z" PURGE="4" COMMENT="" />
    <EXPORT ORDINAL="2485" NAME="?_refreshAnimationState@Skeleton@Ogre@@UAEXPAVAnimationStateSet@2@@Z" PURGE="4" COMMENT="" />
    <EXPORT ORDINAL="2486" NAME="?_refreshAnimationState@SkeletonInstance@Ogre@@UAEXPAVAnimationStateSet@2@@Z" PURGE="-1" COMMENT="" />
    <EXPORT ORDINAL="2487" NAME="?_registerResourceManager@ResourceGroupManager@Ogre@@QAEXABV?$basic_string@DU?$char_traits@D@std@@V?$allocator@D@2@@std@@PAVResourceManager@2@@Z" PURGE="8" COMMENT="" />
    <EXPORT ORDINAL="2488" NAME="?_registerScriptLoader@ResourceGroupManager@Ogre@@QAEXPAVScriptLoader@2@@Z" PURGE="4" COMMENT="" />
    <EXPORT ORDINAL="2489" NAME="?_releaseBufferCopies@HardwareBufferManager@Ogre@@UAEX_N@Z" PURGE="4" COMMENT="" />
    <EXPORT ORDINAL="2490" NAME="?_removeChild@OverlayContainer@Ogre@@QAEXABV?$basic_string@DU?$char_traits@D@std@@V?$allocator@D@2@@std@@@Z" PURGE="4" COMMENT="" />
    <EXPORT ORDINAL="2491" NAME="?_removeChild@OverlayContainer@Ogre@@QAEXPAVOverlayElement@2@@Z" PURGE="4" COMMENT="" />
    <EXPORT ORDINAL="2492" NAME="?_removeInstance@CompositorChain@Ogre@@QAEXPAVCompositorInstance@2@@Z" PURGE="4" COMMENT="" />
    <EXPORT ORDINAL="2493" NAME="?_render@RenderSystem@Ogre@@UAEXABVRenderOperation@2@@Z" PURGE="4" COMMENT="" />
    <EXPORT ORDINAL="2494" NAME="?_renderQueueGroupObjects@SceneManager@Ogre@@UAEXPAVRenderQueueGroup@2@W4OrganisationMode@QueuedRenderableCollection@2@@Z" PURGE="8" COMMENT="" />
    <EXPORT ORDINAL="2495" NAME="?_renderScene@Camera@Ogre@@QAEXPAVViewport@2@_N@Z" PURGE="8" COMMENT="" />
    <EXPORT ORDINAL="2496" NAME="?_renderScene@SceneManager@Ogre@@UAEXPAVCamera@2@PAVViewport@2@_N@Z" PURGE="12" COMMENT="" />
    <EXPORT ORDINAL="2497" NAME="?_renderVisibleObjects@SceneManager@Ogre@@UAEXXZ" PURGE="0" COMMENT="" />
    <EXPORT ORDINAL="2498" NAME="?_restoreBuffersForUnusedAnimation@SubEntity@Ogre@@QAEX_N@Z" PURGE="4" COMMENT="" />
    <EXPORT ORDINAL="2499" NAME="?_routeMessage@LogManager@Ogre@@IAEXABV?$basic_string@DU?$char_traits@D@std@@V?$allocator@D@2@@std@@0W4LogMessageLevel@2@_N@Z" PURGE="16" COMMENT="" />
    <EXPORT ORDINAL="2500" NAME="?_setBoundingSphereRadius@Mesh@Ogre@@QAEXM@Z" PURGE="4" COMMENT="" />
    <EXPORT ORDINAL="2501" NAME="?_setBounds@Mesh@Ogre@@QAEXABVAxisAlignedBox@2@_N@Z" PURGE="8" COMMENT="" />
    <EXPORT ORDINAL="2502" NAME="?_setCurrentSceneManager@Root@Ogre@@QAEXPAVSceneManager@2@@Z" PURGE="4" COMMENT="" />
    <EXPORT ORDINAL="2503" NAME="?_setDestinationRenderSystem@SceneManager@Ogre@@UAEXPAVRenderSystem@2@@Z" PURGE="4" COMMENT="" />
    <EXPORT ORDINAL="2504" NAME="?_setDimensions@OverlayElement@Ogre@@QAEXMM@Z" PURGE="8" COMMENT="" />
    <EXPORT ORDINAL="2505" NAME="?_setHeight@OverlayElement@Ogre@@QAEXM@Z" PURGE="4" COMMENT="" />
    <EXPORT ORDINAL="2506" NAME="?_setLeft@OverlayElement@Ogre@@QAEXM@Z" PURGE="4" COMMENT="" />
    <EXPORT ORDINAL="2507" NAME="?_setLodInfo@Mesh@Ogre@@QAEXG_N@Z" PURGE="8" COMMENT="" />
    <EXPORT ORDINAL="2508" NAME="?_setLodUsage@Mesh@Ogre@@QAEXGAAUMeshLodUsage@2@@Z" PURGE="8" COMMENT="" />
    <EXPORT ORDINAL="2509" NAME="?_setMaterial@BillboardParticleRenderer@Ogre@@UAEXAAVMaterialPtr@2@@Z" PURGE="-1" COMMENT="" />
    <EXPORT ORDINAL="2510" NAME="?_setParent@OverlayElement@Ogre@@QAEXPAVOverlayContainer@2@@Z" PURGE="4" COMMENT="" />
    <EXPORT ORDINAL="2511" NAME="?_setPass@SceneManager@Ogre@@UAEPBVPass@2@PBV32@_N1@Z" PURGE="12" COMMENT="" />
    <EXPORT ORDINAL="2512" NAME="?_setPosition@OverlayElement@Ogre@@QAEXMM@Z" PURGE="8" COMMENT="" />
    <EXPORT ORDINAL="2513" NAME="?_setPrimary@RenderWindow@Ogre@@IAEXXZ" PURGE="0" COMMENT="" />
    <EXPORT ORDINAL="2514" NAME="?_setSubMeshLodFaceList@Mesh@Ogre@@QAEXGGPAVIndexData@2@@Z" PURGE="12" COMMENT="" />
    <EXPORT ORDINAL="2515" NAME="?_setTextureBlendMode@RenderSystem@Ogre@@UAEXIABVLayerBlendModeEx@2@0@Z" PURGE="12" COMMENT="" />
    <EXPORT ORDINAL="2516" NAME="?_setTextureUnitFiltering@RenderSystem@Ogre@@UAEXIW4FilterOptions@2@00@Z" PURGE="16" COMMENT="" />
    <EXPORT ORDINAL="2517" NAME="?_setTextureUnitSettings@RenderSystem@Ogre@@UAEXIAAVTextureUnitState@2@@Z" PURGE="8" COMMENT="" />
    <EXPORT ORDINAL="2518" NAME="?_setTop@OverlayElement@Ogre@@QAEXM@Z" PURGE="4" COMMENT="" />
    <EXPORT ORDINAL="2519" NAME="?_setWidth@OverlayElement@Ogre@@QAEXM@Z" PURGE="4" COMMENT="" />
    <EXPORT ORDINAL="2520" NAME="?_setWorldMatrices@RenderSystem@Ogre@@UAEXPBVMatrix4@2@G@Z" PURGE="8" COMMENT="" />
    <EXPORT ORDINAL="2521" NAME="?_sortBillboards@BillboardSet@Ogre@@UAEXPAVCamera@2@@Z" PURGE="4" COMMENT="" />
    <EXPORT ORDINAL="2522" NAME="?_sortKeyFrames@AnimationTrack@Ogre@@UAEXXZ" PURGE="0" COMMENT="" />
    <EXPORT ORDINAL="2523" NAME="?_sortParticles@ParticleSystem@Ogre@@IAEXPAVCamera@2@@Z" PURGE="4" COMMENT="" />
    <EXPORT ORDINAL="2524" NAME="?_split@Pass@Ogre@@QAEPAV12@G@Z" PURGE="4" COMMENT="" />
    <EXPORT ORDINAL="2525" NAME="?_suppressRenderStateChanges@SceneManager@Ogre@@UAEX_N@Z" PURGE="4" COMMENT="" />
    <EXPORT ORDINAL="2526" NAME="?_suppressShadows@SceneManager@Ogre@@UAEX_N@Z" PURGE="4" COMMENT="" />
    <EXPORT ORDINAL="2527" NAME="?_throw@Exception@Ogre@@SAXHABV?$basic_string@DU?$char_traits@D@std@@V?$allocator@D@2@@std@@0PBDJ@Z" PURGE="-1" COMMENT="" />
    <EXPORT ORDINAL="2528" NAME="?_throw@Exception@Ogre@@SAXHABV?$basic_string@DU?$char_traits@D@std@@V?$allocator@D@2@@std@@PBD1J@Z" PURGE="-1" COMMENT="" />
    <EXPORT ORDINAL="2529" NAME="?_throw@Exception@Ogre@@SAXHPBD00J@Z" PURGE="-1" COMMENT="" />
    <EXPORT ORDINAL="2530" NAME="?_throw@Exception@Ogre@@SAXHPBDABV?$basic_string@DU?$char_traits@D@std@@V?$allocator@D@2@@std@@0J@Z" PURGE="-1" COMMENT="" />
    <EXPORT ORDINAL="2531" NAME="?_timeUpdate@RibbonTrail@Ogre@@UAEXM@Z" PURGE="4" COMMENT="" />
    <EXPORT ORDINAL="2532" NAME="?_triggerAffectors@ParticleSystem@Ogre@@IAEXM@Z" PURGE="4" COMMENT="" />
    <EXPORT ORDINAL="2533" NAME="?_triggerEmitters@ParticleSystem@Ogre@@IAEXM@Z" PURGE="4" COMMENT="" />
    <EXPORT ORDINAL="2534" NAME="?_unload@GpuProgramUsage@Ogre@@QAEXXZ" PURGE="0" COMMENT="" />
    <EXPORT ORDINAL="2535" NAME="?_unload@Pass@Ogre@@QAEXXZ" PURGE="0" COMMENT="" />
    <EXPORT ORDINAL="2536" NAME="?_unload@Technique@Ogre@@QAEXXZ" PURGE="0" COMMENT="" />
    <EXPORT ORDINAL="2537" NAME="?_unload@TextureUnitState@Ogre@@QAEXXZ" PURGE="0" COMMENT="" />
    <EXPORT ORDINAL="2538" NAME="?_unregisterResourceManager@ResourceGroupManager@Ogre@@QAEXABV?$basic_string@DU?$char_traits@D@std@@V?$allocator@D@2@@std@@@Z" PURGE="4" COMMENT="" />
    <EXPORT ORDINAL="2539" NAME="?_unregisterScriptLoader@ResourceGroupManager@Ogre@@QAEXPAVScriptLoader@2@@Z" PURGE="4" COMMENT="" />
    <EXPORT ORDINAL="2540" NAME="?_update@BorderPanelOverlayElement@Ogre@@UAEXXZ" PURGE="0" COMMENT="" />
    <EXPORT ORDINAL="2541" NAME="?_update@Node@Ogre@@UAEX_N0@Z" PURGE="8" COMMENT="" />
    <EXPORT ORDINAL="2542" NAME="?_update@OverlayContainer@Ogre@@UAEXXZ" PURGE="0" COMMENT="" />
    <EXPORT ORDINAL="2543" NAME="?_update@OverlayElement@Ogre@@UAEXXZ" PURGE="0" COMMENT="" />
    <EXPORT ORDINAL="2544" NAME="?_update@ParticleSystem@Ogre@@QAEXM@Z" PURGE="4" COMMENT="" />
    <EXPORT ORDINAL="2545" NAME="?_update@SceneNode@Ogre@@UAEX_N0@Z" PURGE="8" COMMENT="" />
    <EXPORT ORDINAL="2546" NAME="?_update@TextAreaOverlayElement@Ogre@@UAEXXZ" PURGE="0" COMMENT="" />
    <EXPORT ORDINAL="2547" NAME="?_updateAllRenderTargets@RenderSystem@Ogre@@UAEXXZ" PURGE="0" COMMENT="" />
    <EXPORT ORDINAL="2548" NAME="?_updateAllRenderTargets@Root@Ogre@@QAEXXZ" PURGE="-1" COMMENT="" />
    <EXPORT ORDINAL="2549" NAME="?_updateAnimation@Entity@Ogre@@QAEXXZ" PURGE="0" COMMENT="" />
    <EXPORT ORDINAL="2550" NAME="?_updateAutoParamsLightsOnly@GpuProgramParameters@Ogre@@QAEXABVAutoParamDataSource@2@@Z" PURGE="4" COMMENT="" />
    <EXPORT ORDINAL="2551" NAME="?_updateAutoParamsLightsOnly@Pass@Ogre@@QBEXABVAutoParamDataSource@2@@Z" PURGE="4" COMMENT="" />
    <EXPORT ORDINAL="2552" NAME="?_updateAutoParamsNoLights@GpuProgramParameters@Ogre@@QAEXABVAutoParamDataSource@2@@Z" PURGE="4" COMMENT="" />
    <EXPORT ORDINAL="2553" NAME="?_updateAutoParamsNoLights@Pass@Ogre@@QBEXABVAutoParamDataSource@2@@Z" PURGE="4" COMMENT="" />
    <EXPORT ORDINAL="2554" NAME="?_updateBounds@BillboardSet@Ogre@@UAEXXZ" PURGE="0" COMMENT="" />
    <EXPORT ORDINAL="2555" NAME="?_updateBounds@ParticleSystem@Ogre@@QAEXXZ" PURGE="0" COMMENT="" />
    <EXPORT ORDINAL="2556" NAME="?_updateBounds@SceneNode@Ogre@@UAEXXZ" PURGE="0" COMMENT="" />
    <EXPORT ORDINAL="2557" NAME="?_updateCompiledBoneAssignments@Mesh@Ogre@@QAEXXZ" PURGE="0" COMMENT="" />
    <EXPORT ORDINAL="2558" NAME="?_updateCustomGpuParameter@Renderable@Ogre@@UBEXABVAutoConstantEntry@GpuProgramParameters@2@PAV42@@Z" PURGE="8" COMMENT="" />
    <EXPORT ORDINAL="2559" NAME="?_updateCustomGpuParameter@SubEntity@Ogre@@UBEXABVAutoConstantEntry@GpuProgramParameters@2@PAV42@@Z" PURGE="8" COMMENT="" />
    <EXPORT ORDINAL="2560" NAME="?_updateDimensions@Viewport@Ogre@@QAEXXZ" PURGE="0" COMMENT="" />
    <EXPORT ORDINAL="2561" NAME="?_updateFromParent@Node@Ogre@@MBEXXZ" PURGE="0" COMMENT="" />
    <EXPORT ORDINAL="2562" NAME="?_updateFromParent@OverlayElement@Ogre@@UAEXXZ" PURGE="0" COMMENT="" />
    <EXPORT ORDINAL="2563" NAME="?_updateFromParent@SceneNode@Ogre@@MBEXXZ" PURGE="0" COMMENT="" />
    <EXPORT ORDINAL="2564" NAME="?_updateFromParent@TagPoint@Ogre@@UBEXXZ" PURGE="0" COMMENT="" />
    <EXPORT ORDINAL="2565" NAME="?_updateFromShadow@HardwareBuffer@Ogre@@UAEXXZ" PURGE="0" COMMENT="" />
    <EXPORT ORDINAL="2566" NAME="?_updateRenderQueue@BillboardChain@Ogre@@UAEXPAVRenderQueue@2@@Z" PURGE="4" COMMENT="" />
    <EXPORT ORDINAL="2567" NAME="?_updateRenderQueue@BillboardParticleRenderer@Ogre@@UAEXPAVRenderQueue@2@AAV?$list@PAVParticle@Ogre@@V?$allocator@PAVParticle@Ogre@@@std@@@std@@_N@Z" PURGE="12" COMMENT="" />
    <EXPORT ORDINAL="2568" NAME="?_updateRenderQueue@BillboardSet@Ogre@@UAEXPAVRenderQueue@2@@Z" PURGE="4" COMMENT="" />
    <EXPORT ORDINAL="2569" NAME="?_updateRenderQueue@BorderPanelOverlayElement@Ogre@@UAEXPAVRenderQueue@2@@Z" PURGE="4" COMMENT="" />
    <EXPORT ORDINAL="2570" NAME="?_updateRenderQueue@Entity@Ogre@@UAEXPAVRenderQueue@2@@Z" PURGE="4" COMMENT="" />
    <EXPORT ORDINAL="2571" NAME="?_updateRenderQueue@Frustum@Ogre@@UAEXPAVRenderQueue@2@@Z" PURGE="4" COMMENT="" />
    <EXPORT ORDINAL="2572" NAME="?_updateRenderQueue@Light@Ogre@@UAEXPAVRenderQueue@2@@Z" PURGE="4" COMMENT="" />
    <EXPORT ORDINAL="2573" NAME="?_updateRenderQueue@ManualObject@Ogre@@UAEXPAVRenderQueue@2@@Z" PURGE="4" COMMENT="" />
    <EXPORT ORDINAL="2574" NAME="?_updateRenderQueue@MovablePlane@Ogre@@UAEXPAVRenderQueue@2@@Z" PURGE="4" COMMENT="" />
    <EXPORT ORDINAL="2575" NAME="?_updateRenderQueue@OverlayContainer@Ogre@@UAEXPAVRenderQueue@2@@Z" PURGE="4" COMMENT="" />
    <EXPORT ORDINAL="2576" NAME="?_updateRenderQueue@OverlayElement@Ogre@@UAEXPAVRenderQueue@2@@Z" PURGE="4" COMMENT="" />
    <EXPORT ORDINAL="2577" NAME="?_updateRenderQueue@PanelOverlayElement@Ogre@@UAEXPAVRenderQueue@2@@Z" PURGE="4" COMMENT="" />
    <EXPORT ORDINAL="2578" NAME="?_updateRenderQueue@ParticleSystem@Ogre@@UAEXPAVRenderQueue@2@@Z" PURGE="4" COMMENT="" />
    <EXPORT ORDINAL="2579" NAME="?_updateRenderQueue@Region@StaticGeometry@Ogre@@UAEXPAVRenderQueue@3@@Z" PURGE="4" COMMENT="" />
    <EXPORT ORDINAL="2580" NAME="?_updateRenderQueue@SimpleRenderable@Ogre@@UAEXPAVRenderQueue@2@@Z" PURGE="4" COMMENT="" />
    <EXPORT ORDINAL="2581" NAME="?_updateSceneGraph@SceneManager@Ogre@@UAEXPAVCamera@2@@Z" PURGE="4" COMMENT="" />
    <EXPORT ORDINAL="2582" NAME="?_updateSkeletalAnimation@Entity@Ogre@@QAEXXZ" PURGE="0" COMMENT="" />
    <EXPORT ORDINAL="2583" NAME="?_updateTransforms@Skeleton@Ogre@@UAEXXZ" PURGE="0" COMMENT="" />
    <EXPORT ORDINAL="2584" NAME="?_weightedTransform@Node@Ogre@@UAEXMABVVector3@2@ABVQuaternion@2@0@Z" PURGE="16" COMMENT="" />
    <EXPORT ORDINAL="2585" NAME="?absDotProduct@Vector3@Ogre@@QBEMABV12@@Z" PURGE="4" COMMENT="" />
    <EXPORT ORDINAL="2586" NAME="?acceptVisitor@QueuedRenderableCollection@Ogre@@QBEXPAVQueuedRenderableVisitor@2@W4OrganisationMode@12@@Z" PURGE="8" COMMENT="" />
    <EXPORT ORDINAL="2587" NAME="?acceptVisitorAscending@QueuedRenderableCollection@Ogre@@IBEXPAVQueuedRenderableVisitor@2@@Z" PURGE="4" COMMENT="" />
    <EXPORT ORDINAL="2588" NAME="?acceptVisitorDescending@QueuedRenderableCollection@Ogre@@IBEXPAVQueuedRenderableVisitor@2@@Z" PURGE="4" COMMENT="" />
    <EXPORT ORDINAL="2589" NAME="?acceptVisitorGrouped@QueuedRenderableCollection@Ogre@@IBEXPAVQueuedRenderableVisitor@2@@Z" PURGE="4" COMMENT="" />
    <EXPORT ORDINAL="2590" NAME="?activateEventQueue@EventQueue@Ogre@@QAEX_N@Z" PURGE="4" COMMENT="" />
    <EXPORT ORDINAL="2591" NAME="?activatePreviousTokenAction@Compiler2Pass@Ogre@@AAEXXZ" PURGE="0" COMMENT="" />
    <EXPORT ORDINAL="2592" NAME="?add2D@Overlay@Ogre@@QAEXPAVOverlayContainer@2@@Z" PURGE="4" COMMENT="" />
    <EXPORT ORDINAL="2593" NAME="?add3D@Overlay@Ogre@@QAEXPAVSceneNode@2@@Z" PURGE="-1" COMMENT="" />
    <EXPORT ORDINAL="2594" NAME="?add@RenderQueueInvocationSequence@Ogre@@QAEPAVRenderQueueInvocation@2@EABV?$basic_string@DU?$char_traits@D@std@@V?$allocator@D@2@@std@@@Z" PURGE="8" COMMENT="" />
    <EXPORT ORDINAL="2595" NAME="?add@RenderQueueInvocationSequence@Ogre@@QAEXPAVRenderQueueInvocation@2@@Z" PURGE="4" COMMENT="" />
    <EXPORT ORDINAL="2596" NAME="?addAffector@ParticleSystem@Ogre@@QAEPAVParticleAffector@2@ABV?$basic_string@DU?$char_traits@D@std@@V?$allocator@D@2@@std@@@Z" PURGE="4" COMMENT="" />
    <EXPORT ORDINAL="2597" NAME="?addAffectorFactory@ParticleSystemManager@Ogre@@QAEXPAVParticleAffectorFactory@2@@Z" PURGE="4" COMMENT="" />
    <EXPORT ORDINAL="2598" NAME="?addArchiveFactory@ArchiveManager@Ogre@@QAEXPAVArchiveFactory@2@@Z" PURGE="4" COMMENT="" />
    <EXPORT ORDINAL="2599" NAME="?addBaseParameters@BorderPanelOverlayElement@Ogre@@MAEXXZ" PURGE="0" COMMENT="" />
    <EXPORT ORDINAL="2600" NAME="?addBaseParameters@OverlayElement@Ogre@@MAEXXZ" PURGE="0" COMMENT="" />
    <EXPORT ORDINAL="2601" NAME="?addBaseParameters@PanelOverlayElement@Ogre@@MAEXXZ" PURGE="0" COMMENT="" />
    <EXPORT ORDINAL="2602" NAME="?addBaseParameters@ParticleAffector@Ogre@@IAEXXZ" PURGE="0" COMMENT="" />
    <EXPORT ORDINAL="2603" NAME="?addBaseParameters@ParticleEmitter@Ogre@@IAEXXZ" PURGE="0" COMMENT="" />
    <EXPORT ORDINAL="2604" NAME="?addBaseParameters@TextAreaOverlayElement@Ogre@@MAEXXZ" PURGE="0" COMMENT="" />
    <EXPORT ORDINAL="2605" NAME="?addBaseParams@ExternalTextureSource@Ogre@@QAEXXZ" PURGE="0" COMMENT="" />
    <EXPORT ORDINAL="2606" NAME="?addBoneAssignment@Mesh@Ogre@@QAEXABUVertexBoneAssignment_s@2@@Z" PURGE="4" COMMENT="" />
    <EXPORT ORDINAL="2607" NAME="?addBoneAssignment@SubMesh@Ogre@@QAEXABUVertexBoneAssignment_s@2@@Z" PURGE="4" COMMENT="" />
    <EXPORT ORDINAL="2608" NAME="?addChainElement@BillboardChain@Ogre@@UAEXIABVElement@12@@Z" PURGE="8" COMMENT="" />
    <EXPORT ORDINAL="2609" NAME="?addChild@Node@Ogre@@UAEXPAV12@@Z" PURGE="4" COMMENT="" />
    <EXPORT ORDINAL="2610" NAME="?addChild@OverlayContainer@Ogre@@UAEXPAVOverlayElement@2@@Z" PURGE="4" COMMENT="" />
    <EXPORT ORDINAL="2611" NAME="?addChildImpl@OverlayContainer@Ogre@@UAEXPAV12@@Z" PURGE="4" COMMENT="" />
    <EXPORT ORDINAL="2612" NAME="?addChildImpl@OverlayContainer@Ogre@@UAEXPAVOverlayElement@2@@Z" PURGE="4" COMMENT="" />
    <EXPORT ORDINAL="2613" NAME="?addCompositor@CompositorChain@Ogre@@QAEPAVCompositorInstance@2@VCompositorPtr@2@II@Z" PURGE="20" COMMENT="" />
    <EXPORT ORDINAL="2614" NAME="?addCompositor@CompositorManager@Ogre@@QAEPAVCompositorInstance@2@PAVViewport@2@ABV?$basic_string@DU?$char_traits@D@std@@V?$allocator@D@2@@std@@H@Z" PURGE="12" COMMENT="" />
    <EXPORT ORDINAL="2615" NAME="?addConstantDefinition@GpuProgramParameters@Ogre@@QAEIABV?$basic_string@DU?$char_traits@D@std@@V?$allocator@D@2@@std@@IIW4ElementType@12@@Z" PURGE="16" COMMENT="" />
    <EXPORT ORDINAL="2616" NAME="?addCreatedResource@ResourceGroupManager@Ogre@@IAEXAAV?$SharedPtr@VResource@Ogre@@@2@AAUResourceGroup@12@@Z" PURGE="8" COMMENT="" />
    <EXPORT ORDINAL="2617" NAME="?addCursorMoveListener@EventProcessor@Ogre@@QAEXPAVMouseMotionListener@2@@Z" PURGE="4" COMMENT="" />
    <EXPORT ORDINAL="2618" NAME="?addCursorMoveListener@InputReader@Ogre@@QAEXPAVMouseMotionListener@2@@Z" PURGE="4" COMMENT="" />
    <EXPORT ORDINAL="2619" NAME="?addEffect@TextureUnitState@Ogre@@QAEXAAUTextureEffect@12@@Z" PURGE="4" COMMENT="" />
    <EXPORT ORDINAL="2620" NAME="?addElement@VertexDeclaration@Ogre@@UAEABVVertexElement@2@GIW4VertexElementType@2@W4VertexElementSemantic@2@G@Z" PURGE="20" COMMENT="" />
    <EXPORT ORDINAL="2621" NAME="?addEmitter@ParticleSystem@Ogre@@QAEPAVParticleEmitter@2@ABV?$basic_string@DU?$char_traits@D@std@@V?$allocator@D@2@@std@@@Z" PURGE="4" COMMENT="" />
    <EXPORT ORDINAL="2622" NAME="?addEmitterFactory@ParticleSystemManager@Ogre@@QAEXPAVParticleEmitterFactory@2@@Z" PURGE="4" COMMENT="" />
    <EXPORT ORDINAL="2623" NAME="?addEntity@StaticGeometry@Ogre@@UAEXPAVEntity@2@ABVVector3@2@ABVQuaternion@2@1@Z" PURGE="16" COMMENT="" />
    <EXPORT ORDINAL="2624" NAME="?addEventTarget@EventProcessor@Ogre@@QAEXPAVEventTarget@2@@Z" PURGE="4" COMMENT="" />
    <EXPORT ORDINAL="2625" NAME="?addExtraVertexPositionBuffer@ProgressiveMesh@Ogre@@UAEXPBVVertexData@2@@Z" PURGE="4" COMMENT="" />
    <EXPORT ORDINAL="2626" NAME="?addFactory@HighLevelGpuProgramManager@Ogre@@QAEXPAVHighLevelGpuProgramFactory@2@@Z" PURGE="4" COMMENT="" />
    <EXPORT ORDINAL="2627" NAME="?addFactory@SceneManagerEnumerator@Ogre@@QAEXPAVSceneManagerFactory@2@@Z" PURGE="4" COMMENT="" />
    <EXPORT ORDINAL="2628" NAME="?addFrameListener@Root@Ogre@@QAEXPAVFrameListener@2@@Z" PURGE="4" COMMENT="" />
    <EXPORT ORDINAL="2629" NAME="?addFrameTextureName@TextureUnitState@Ogre@@QAEXABV?$basic_string@DU?$char_traits@D@std@@V?$allocator@D@2@@std@@@Z" PURGE="4" COMMENT="" />
    <EXPORT ORDINAL="2630" NAME="?addImpl@ResourceManager@Ogre@@MAEXAAV?$SharedPtr@VResource@Ogre@@@2@@Z" PURGE="4" COMMENT="" />
    <EXPORT ORDINAL="2631" NAME="?addIndexData@EdgeListBuilder@Ogre@@QAEXPBVIndexData@2@IW4OperationType@RenderOperation@2@@Z" PURGE="12" COMMENT="" />
    <EXPORT ORDINAL="2632" NAME="?addKeyListener@KeyTarget@Ogre@@QAEXPAVKeyListener@2@@Z" PURGE="4" COMMENT="" />
    <EXPORT ORDINAL="2633" NAME="?addLexemeToken@Compiler2Pass@Ogre@@IAEXABV?$basic_string@DU?$char_traits@D@std@@V?$allocator@D@2@@std@@I_N1@Z" PURGE="16" COMMENT="" />
    <EXPORT ORDINAL="2634" NAME="?addLexemeTokenAction@CompositorScriptCompiler@Ogre@@IAEXABV?$basic_string@DU?$char_traits@D@std@@V?$allocator@D@2@@std@@IQ812@AEXXZ@Z" PURGE="12" COMMENT="" />
    <EXPORT ORDINAL="2635" NAME="?addLexemeTokenAction@MaterialScriptCompiler@Ogre@@IAEXABV?$basic_string@DU?$char_traits@D@std@@V?$allocator@D@2@@std@@IQ812@AEXXZ@Z" PURGE="12" COMMENT="" />
    <EXPORT ORDINAL="2636" NAME="?addLinkedSkeletonAnimationSource@Skeleton@Ogre@@UAEXABV?$basic_string@DU?$char_traits@D@std@@V?$allocator@D@2@@std@@M@Z" PURGE="8" COMMENT="" />
    <EXPORT ORDINAL="2637" NAME="?addLinkedSkeletonAnimationSource@SkeletonInstance@Ogre@@UAEXABV?$basic_string@DU?$char_traits@D@std@@V?$allocator@D@2@@std@@M@Z" PURGE="-1" COMMENT="" />
    <EXPORT ORDINAL="2638" NAME="?addListener@CompositorInstance@Ogre@@QAEXPAVListener@12@@Z" PURGE="4" COMMENT="" />
    <EXPORT ORDINAL="2639" NAME="?addListener@LogManager@Ogre@@QAEXPAVLogListener@2@@Z" PURGE="4" COMMENT="" />
    <EXPORT ORDINAL="2640" NAME="?addListener@RenderSystem@Ogre@@UAEXPAVListener@12@@Z" PURGE="4" COMMENT="" />
    <EXPORT ORDINAL="2641" NAME="?addListener@RenderTarget@Ogre@@UAEXPAVRenderTargetListener@2@@Z" PURGE="4" COMMENT="" />
    <EXPORT ORDINAL="2642" NAME="?addMouseListener@MouseTarget@Ogre@@QAEXPAVMouseListener@2@@Z" PURGE="4" COMMENT="" />
    <EXPORT ORDINAL="2643" NAME="?addMouseMotionListener@MouseMotionTarget@Ogre@@QAEXPAVMouseMotionListener@2@@Z" PURGE="4" COMMENT="" />
    <EXPORT ORDINAL="2644" NAME="?addMovableObjectFactory@Root@Ogre@@QAEXPAVMovableObjectFactory@2@_N@Z" PURGE="8" COMMENT="" />
    <EXPORT ORDINAL="2645" NAME="?addNode@RibbonTrail@Ogre@@UAEXPAVNode@2@@Z" PURGE="4" COMMENT="" />
    <EXPORT ORDINAL="2646" NAME="?addOrganisationMode@QueuedRenderableCollection@Ogre@@QAEXW4OrganisationMode@12@@Z" PURGE="4" COMMENT="" />
    <EXPORT ORDINAL="2647" NAME="?addOrganisationMode@RenderPriorityGroup@Ogre@@QAEXW4OrganisationMode@QueuedRenderableCollection@2@@Z" PURGE="4" COMMENT="" />
    <EXPORT ORDINAL="2648" NAME="?addOrganisationMode@RenderQueueGroup@Ogre@@QAEXW4OrganisationMode@QueuedRenderableCollection@2@@Z" PURGE="4" COMMENT="" />
    <EXPORT ORDINAL="2649" NAME="?addOverlayElementFactory@OverlayManager@Ogre@@QAEXPAVOverlayElementFactory@2@@Z" PURGE="4" COMMENT="" />
    <EXPORT ORDINAL="2650" NAME="?addParameter@ParamDictionary@Ogre@@QAEXABVParameterDef@2@PAVParamCommand@2@@Z" PURGE="8" COMMENT="" />
    <EXPORT ORDINAL="2651" NAME="?addPoint@RotationalSpline@Ogre@@QAEXABVQuaternion@2@@Z" PURGE="4" COMMENT="" />
    <EXPORT ORDINAL="2652" NAME="?addPoint@SimpleSpline@Ogre@@QAEXABVVector3@2@@Z" PURGE="4" COMMENT="" />
    <EXPORT ORDINAL="2653" NAME="?addPoseReference@VertexPoseKeyFrame@Ogre@@QAEXGM@Z" PURGE="8" COMMENT="" />
    <EXPORT ORDINAL="2654" NAME="?addQueryFlags@MovableObject@Ogre@@UAEXI@Z" PURGE="4" COMMENT="" />
    <EXPORT ORDINAL="2655" NAME="?addRenderQueueListener@SceneManager@Ogre@@UAEXPAVRenderQueueListener@2@@Z" PURGE="4" COMMENT="" />
    <EXPORT ORDINAL="2656" NAME="?addRenderSystem@Root@Ogre@@QAEXPAVRenderSystem@2@@Z" PURGE="4" COMMENT="" />
    <EXPORT ORDINAL="2657" NAME="?addRenderable@QueuedRenderableCollection@Ogre@@QAEXPAVPass@2@PAVRenderable@2@@Z" PURGE="8" COMMENT="" />
    <EXPORT ORDINAL="2658" NAME="?addRenderable@RenderPriorityGroup@Ogre@@QAEXPAVRenderable@2@PAVTechnique@2@@Z" PURGE="8" COMMENT="" />
    <EXPORT ORDINAL="2659" NAME="?addRenderable@RenderQueue@Ogre@@QAEXPAVRenderable@2@@Z" PURGE="4" COMMENT="" />
    <EXPORT ORDINAL="2660" NAME="?addRenderable@RenderQueue@Ogre@@QAEXPAVRenderable@2@E@Z" PURGE="8" COMMENT="" />
    <EXPORT ORDINAL="2661" NAME="?addRenderable@RenderQueue@Ogre@@QAEXPAVRenderable@2@EG@Z" PURGE="12" COMMENT="" />
    <EXPORT ORDINAL="2662" NAME="?addRenderable@RenderQueueGroup@Ogre@@QAEXPAVRenderable@2@PAVTechnique@2@G@Z" PURGE="12" COMMENT="" />
    <EXPORT ORDINAL="2663" NAME="?addRenderables@LODBucket@StaticGeometry@Ogre@@QAEXPAVRenderQueue@3@EM@Z" PURGE="12" COMMENT="" />
    <EXPORT ORDINAL="2664" NAME="?addRenderables@MaterialBucket@StaticGeometry@Ogre@@QAEXPAVRenderQueue@3@EM@Z" PURGE="12" COMMENT="" />
    <EXPORT ORDINAL="2665" NAME="?addRendererFactory@ParticleSystemManager@Ogre@@QAEXPAVParticleSystemRendererFactory@2@@Z" PURGE="4" COMMENT="" />
    <EXPORT ORDINAL="2666" NAME="?addResourceGroupListener@ResourceGroupManager@Ogre@@QAEXPAVResourceGroupListener@2@@Z" PURGE="4" COMMENT="" />
    <EXPORT ORDINAL="2667" NAME="?addResourceLocation@ResourceGroupManager@Ogre@@QAEXABV?$basic_string@DU?$char_traits@D@std@@V?$allocator@D@2@@std@@00_N@Z" PURGE="16" COMMENT="" />
    <EXPORT ORDINAL="2668" NAME="?addResourceLocation@Root@Ogre@@QAEXABV?$basic_string@DU?$char_traits@D@std@@V?$allocator@D@2@@std@@00_N@Z" PURGE="16" COMMENT="" />
    <EXPORT ORDINAL="2669" NAME="?addSceneManagerFactory@Root@Ogre@@QAEXPAVSceneManagerFactory@2@@Z" PURGE="4" COMMENT="" />
    <EXPORT ORDINAL="2670" NAME="?addSceneNode@StaticGeometry@Ogre@@UAEXPBVSceneNode@2@@Z" PURGE="4" COMMENT="" />
    <EXPORT ORDINAL="2671" NAME="?addShadowListener@SceneManager@Ogre@@UAEXPAVShadowListener@2@@Z" PURGE="4" COMMENT="" />
    <EXPORT ORDINAL="2672" NAME="?addSoftwareAnimationRequest@Entity@Ogre@@QAEX_N@Z" PURGE="4" COMMENT="" />
    <EXPORT ORDINAL="2673" NAME="?addSolidRenderable@RenderPriorityGroup@Ogre@@IAEXPAVTechnique@2@PAVRenderable@2@_N@Z" PURGE="12" COMMENT="" />
    <EXPORT ORDINAL="2674" NAME="?addSolidRenderableSplitByLightType@RenderPriorityGroup@Ogre@@IAEXPAVTechnique@2@PAVRenderable@2@@Z" PURGE="8" COMMENT="" />
    <EXPORT ORDINAL="2675" NAME="?addSpecialCaseRenderQueue@SceneManager@Ogre@@UAEXE@Z" PURGE="4" COMMENT="" />
    <EXPORT ORDINAL="2676" NAME="?addTargetManager@EventProcessor@Ogre@@QAEXPAVTargetManager@2@@Z" PURGE="4" COMMENT="" />
    <EXPORT ORDINAL="2677" NAME="?addTemplate@ParticleSystemManager@Ogre@@QAEXABV?$basic_string@DU?$char_traits@D@std@@V?$allocator@D@2@@std@@PAVParticleSystem@2@@Z" PURGE="8" COMMENT="" />
    <EXPORT ORDINAL="2678" NAME="?addTextureAlias@SubMesh@Ogre@@QAEXABV?$basic_string@DU?$char_traits@D@std@@V?$allocator@D@2@@std@@0@Z" PURGE="8" COMMENT="" />
    <EXPORT ORDINAL="2679" NAME="?addTextureUnitState@Pass@Ogre@@QAEXPAVTextureUnitState@2@@Z" PURGE="4" COMMENT="" />
    <EXPORT ORDINAL="2680" NAME="?addTime@AnimationState@Ogre@@QAEXM@Z" PURGE="4" COMMENT="" />
    <EXPORT ORDINAL="2681" NAME="?addToX@Cursor@Ogre@@QAEXM@Z" PURGE="4" COMMENT="" />
    <EXPORT ORDINAL="2682" NAME="?addToY@Cursor@Ogre@@QAEXM@Z" PURGE="4" COMMENT="" />
    <EXPORT ORDINAL="2683" NAME="?addToZ@Cursor@Ogre@@QAEXM@Z" PURGE="4" COMMENT="" />
    <EXPORT ORDINAL="2684" NAME="?addTransparentRenderable@RenderPriorityGroup@Ogre@@IAEXPAVTechnique@2@PAVRenderable@2@@Z" PURGE="8" COMMENT="" />
    <EXPORT ORDINAL="2685" NAME="?addVertex@Pose@Ogre@@QAEXIABVVector3@2@@Z" PURGE="8" COMMENT="" />
    <EXPORT ORDINAL="2686" NAME="?addVertexData@EdgeListBuilder@Ogre@@QAEXPBVVertexData@2@@Z" PURGE="4" COMMENT="" />
    <EXPORT ORDINAL="2687" NAME="?addViewport@RenderTarget@Ogre@@UAEPAVViewport@2@PAVCamera@2@HMMMM@Z" PURGE="24" COMMENT="" />
    <EXPORT ORDINAL="2688" NAME="?addVisibilityFlags@MovableObject@Ogre@@UAEXI@Z" PURGE="4" COMMENT="" />
    <EXPORT ORDINAL="2689" NAME="?addWorkingData@ProgressiveMesh@Ogre@@IAEXPBVVertexData@2@PBVIndexData@2@@Z" PURGE="8" COMMENT="" />
    <EXPORT ORDINAL="2690" NAME="?adjoint@Matrix4@Ogre@@QBE?AV12@XZ" PURGE="4" COMMENT="" />
    <EXPORT ORDINAL="2691" NAME="?allocMem@MemoryManager@Ogre@@QAEPAXPBDII@Z" PURGE="12" COMMENT="" />
    <EXPORT ORDINAL="2692" NAME="?allocate@AlignedMemory@Ogre@@SAPAXI@Z" PURGE="0" COMMENT="" />
    <EXPORT ORDINAL="2693" NAME="?allocate@AlignedMemory@Ogre@@SAPAXII@Z" PURGE="0" COMMENT="" />
    <EXPORT ORDINAL="2694" NAME="?allocateHardwareAnimationElements@VertexData@Ogre@@QAEXG@Z" PURGE="4" COMMENT="" />
    <EXPORT ORDINAL="2695" NAME="?allocatePolygon@ConvexBody@Ogre@@KAPAVPolygon@2@XZ" PURGE="0" COMMENT="" />
    <EXPORT ORDINAL="2696" NAME="?allocateSpace@ConvexBody@Ogre@@IAEXII@Z" PURGE="8" COMMENT="" />
    <EXPORT ORDINAL="2697" NAME="?allocateVertexBufferCopy@HardwareBufferManager@Ogre@@UAE?AVHardwareVertexBufferSharedPtr@2@ABV32@W4BufferLicenseType@12@PAVHardwareBufferLicensee@2@_N@Z" PURGE="20" COMMENT="" />
    <EXPORT ORDINAL="2698" NAME="?apply@Animation@Ogre@@QAEXMM_NM@Z" PURGE="16" COMMENT="" />
    <EXPORT ORDINAL="2699" NAME="?apply@Animation@Ogre@@QAEXPAVEntity@2@MM_N1@Z" PURGE="20" COMMENT="" />
    <EXPORT ORDINAL="2700" NAME="?apply@Animation@Ogre@@QAEXPAVSkeleton@2@MM_NM@Z" PURGE="20" COMMENT="" />
    <EXPORT ORDINAL="2701" NAME="?apply@NodeAnimationTrack@Ogre@@UAEXABVTimeIndex@2@M_NM@Z" PURGE="16" COMMENT="" />
    <EXPORT ORDINAL="2702" NAME="?apply@NumericAnimationTrack@Ogre@@UAEXABVTimeIndex@2@M_NM@Z" PURGE="16" COMMENT="" />
    <EXPORT ORDINAL="2703" NAME="?apply@VertexAnimationTrack@Ogre@@UAEXABVTimeIndex@2@M_NM@Z" PURGE="-1" COMMENT="" />
    <EXPORT ORDINAL="2704" NAME="?applyDefaults@Material@Ogre@@IAEXXZ" PURGE="0" COMMENT="" />
    <EXPORT ORDINAL="2705" NAME="?applyDeltaValue@AnimableValue@Ogre@@UAEXABVAny@2@@Z" PURGE="4" COMMENT="" />
    <EXPORT ORDINAL="2706" NAME="?applyDeltaValue@AnimableValue@Ogre@@UAEXABVColourValue@2@@Z" PURGE="-1" COMMENT="" />
    <EXPORT ORDINAL="2707" NAME="?applyDeltaValue@AnimableValue@Ogre@@UAEXABVQuaternion@2@@Z" PURGE="-1" COMMENT="" />
    <EXPORT ORDINAL="2708" NAME="?applyDeltaValue@AnimableValue@Ogre@@UAEXABVVector2@2@@Z" PURGE="-1" COMMENT="" />
    <EXPORT ORDINAL="2709" NAME="?applyDeltaValue@AnimableValue@Ogre@@UAEXABVVector3@2@@Z" PURGE="-1" COMMENT="" />
    <EXPORT ORDINAL="2710" NAME="?applyDeltaValue@AnimableValue@Ogre@@UAEXABVVector4@2@@Z" PURGE="-1" COMMENT="" />
    <EXPORT ORDINAL="2711" NAME="?applyDeltaValue@AnimableValue@Ogre@@UAEXH@Z" PURGE="-1" COMMENT="" />
    <EXPORT ORDINAL="2712" NAME="?applyDeltaValue@AnimableValue@Ogre@@UAEXM@Z" PURGE="-1" COMMENT="" />
    <EXPORT ORDINAL="2713" NAME="?applyGamma@Image@Ogre@@SAXPAEMIE@Z" PURGE="0" COMMENT="" />
    <EXPORT ORDINAL="2714" NAME="?applyPoseToVertexData@VertexAnimationTrack@Ogre@@IAEXPBVPose@2@PAVVertexData@2@M@Z" PURGE="12" COMMENT="" />
    <EXPORT ORDINAL="2715" NAME="?applyTextureAliases@Material@Ogre@@QBE_NABV?$map@V?$basic_string@DU?$char_traits@D@std@@V?$allocator@D@2@@std@@V12@U?$less@V?$basic_string@DU?$char_traits@D@std@@V?$allocator@D@2@@std@@@2@V?$allocator@U?$pair@$$CBV?$basic_string@DU?$char_traits@D@std@@V?$allocator@D@2@@std@@V12@@std@@@2@@std@@_N@Z" PURGE="8" COMMENT="" />
    <EXPORT ORDINAL="2716" NAME="?applyTextureAliases@Pass@Ogre@@QBE_NABV?$map@V?$basic_string@DU?$char_traits@D@std@@V?$allocator@D@2@@std@@V12@U?$less@V?$basic_string@DU?$char_traits@D@std@@V?$allocator@D@2@@std@@@2@V?$allocator@U?$pair@$$CBV?$basic_string@DU?$char_traits@D@std@@V?$allocator@D@2@@std@@V12@@std@@@2@@std@@_N@Z" PURGE="8" COMMENT="" />
    <EXPORT ORDINAL="2717" NAME="?applyTextureAliases@Technique@Ogre@@QBE_NABV?$map@V?$basic_string@DU?$char_traits@D@std@@V?$allocator@D@2@@std@@V12@U?$less@V?$basic_string@DU?$char_traits@D@std@@V?$allocator@D@2@@std@@@2@V?$allocator@U?$pair@$$CBV?$basic_string@DU?$char_traits@D@std@@V?$allocator@D@2@@std@@V12@@std@@@2@@std@@_N@Z" PURGE="8" COMMENT="" />
    <EXPORT ORDINAL="2718" NAME="?applyTextureAliases@TextureUnitState@Ogre@@QAE_NABV?$map@V?$basic_string@DU?$char_traits@D@std@@V?$allocator@D@2@@std@@V12@U?$less@V?$basic_string@DU?$char_traits@D@std@@V?$allocator@D@2@@std@@@2@V?$allocator@U?$pair@$$CBV?$basic_string@DU?$char_traits@D@std@@V?$allocator@D@2@@std@@V12@@std@@@2@@std@@_N@Z" PURGE="8" COMMENT="" />
    <EXPORT ORDINAL="2719" NAME="?applyToAnimable@NumericAnimationTrack@Ogre@@QAEXABV?$SharedPtr@VAnimableValue@Ogre@@@2@ABVTimeIndex@2@MM@Z" PURGE="16" COMMENT="" />
    <EXPORT ORDINAL="2720" NAME="?applyToNode@NodeAnimationTrack@Ogre@@UAEXPAVNode@2@ABVTimeIndex@2@M_NM@Z" PURGE="20" COMMENT="" />
    <EXPORT ORDINAL="2721" NAME="?applyToVertexData@VertexAnimationTrack@Ogre@@UAEXPAVVertexData@2@ABVTimeIndex@2@MPBV?$vector@PAVPose@Ogre@@V?$allocator@PAVPose@Ogre@@@std@@@std@@@Z" PURGE="16" COMMENT="" />
    <EXPORT ORDINAL="2722" NAME="?applyVertexAnimation@Entity@Ogre@@IAEX_N0@Z" PURGE="8" COMMENT="" />
    <EXPORT ORDINAL="2723" NAME="?assign@GeometryBucket@StaticGeometry@Ogre@@QAE_NPAUQueuedGeometry@23@@Z" PURGE="4" COMMENT="" />
    <EXPORT ORDINAL="2724" NAME="?assign@LODBucket@StaticGeometry@Ogre@@QAEXPAUQueuedSubMesh@23@G@Z" PURGE="8" COMMENT="" />
    <EXPORT ORDINAL="2725" NAME="?assign@MaterialBucket@StaticGeometry@Ogre@@QAEXPAUQueuedGeometry@23@@Z" PURGE="4" COMMENT="" />
    <EXPORT ORDINAL="2726" NAME="?assign@Region@StaticGeometry@Ogre@@QAEXPAUQueuedSubMesh@23@@Z" PURGE="4" COMMENT="" />
    <EXPORT ORDINAL="2727" NAME="?attachObject@SceneNode@Ogre@@UAEXPAVMovableObject@2@@Z" PURGE="4" COMMENT="" />
    <EXPORT ORDINAL="2728" NAME="?attachObjectImpl@Entity@Ogre@@IAEXPAVMovableObject@2@PAVTagPoint@2@@Z" PURGE="8" COMMENT="" />
    <EXPORT ORDINAL="2729" NAME="?attachObjectToBone@Entity@Ogre@@QAEPAVTagPoint@2@ABV?$basic_string@DU?$char_traits@D@std@@V?$allocator@D@2@@std@@PAVMovableObject@2@ABVQuaternion@2@ABVVector3@2@@Z" PURGE="16" COMMENT="" />
    <EXPORT ORDINAL="2730" NAME="?attachRenderTarget@RenderSystem@Ogre@@UAEXAAVRenderTarget@2@@Z" PURGE="4" COMMENT="" />
    <EXPORT ORDINAL="2731" NAME="?bakeNewLOD@ProgressiveMesh@Ogre@@IAEXPAVIndexData@2@@Z" PURGE="4" COMMENT="" />
    <EXPORT ORDINAL="2732" NAME="?baseVertexPointerToElement@VertexElement@Ogre@@QBEXPAXPAPAE@Z" PURGE="8" COMMENT="" />
    <EXPORT ORDINAL="2733" NAME="?baseVertexPointerToElement@VertexElement@Ogre@@QBEXPAXPAPAG@Z" PURGE="8" COMMENT="" />
    <EXPORT ORDINAL="2734" NAME="?baseVertexPointerToElement@VertexElement@Ogre@@QBEXPAXPAPAI@Z" PURGE="8" COMMENT="" />
    <EXPORT ORDINAL="2735" NAME="?baseVertexPointerToElement@VertexElement@Ogre@@QBEXPAXPAPAM@Z" PURGE="8" COMMENT="" />
    <EXPORT ORDINAL="2736" NAME="?baseVertexPointerToElement@VertexElement@Ogre@@QBEXPAXPAPAX@Z" PURGE="8" COMMENT="" />
    <EXPORT ORDINAL="2737" NAME="?begin@ManualObject@Ogre@@UAEXABV?$basic_string@DU?$char_traits@D@std@@V?$allocator@D@2@@std@@W4OperationType@RenderOperation@2@@Z" PURGE="8" COMMENT="" />
    <EXPORT ORDINAL="2738" NAME="?beginBillboards@BillboardSet@Ogre@@QAEXXZ" PURGE="0" COMMENT="" />
    <EXPORT ORDINAL="2739" NAME="?beginProfile@Profiler@Ogre@@QAEXABV?$basic_string@DU?$char_traits@D@std@@V?$allocator@D@2@@std@@@Z" PURGE="4" COMMENT="" />
    <EXPORT ORDINAL="2740" NAME="?beginSection@MaterialSerializer@Ogre@@AAEXG_N@Z" PURGE="8" COMMENT="" />
    <EXPORT ORDINAL="2741" NAME="?billboardVisible@BillboardSet@Ogre@@IAE_NPAVCamera@2@ABVBillboard@2@@Z" PURGE="8" COMMENT="" />
    <EXPORT ORDINAL="2742" NAME="?bind@?$SharedPtr@VCompositor@Ogre@@@Ogre@@QAEXPAVCompositor@2@@Z" PURGE="4" COMMENT="" />
    <EXPORT ORDINAL="2743" NAME="?bind@?$SharedPtr@VFont@Ogre@@@Ogre@@QAEXPAVFont@2@@Z" PURGE="4" COMMENT="" />
    <EXPORT ORDINAL="2744" NAME="?bind@?$SharedPtr@VGpuProgram@Ogre@@@Ogre@@QAEXPAVGpuProgram@2@@Z" PURGE="4" COMMENT="" />
    <EXPORT ORDINAL="2745" NAME="?bind@?$SharedPtr@VHardwareIndexBuffer@Ogre@@@Ogre@@QAEXPAVHardwareIndexBuffer@2@@Z" PURGE="4" COMMENT="" />
    <EXPORT ORDINAL="2746" NAME="?bind@?$SharedPtr@VHardwarePixelBuffer@Ogre@@@Ogre@@QAEXPAVHardwarePixelBuffer@2@@Z" PURGE="4" COMMENT="" />
    <EXPORT ORDINAL="2747" NAME="?bind@?$SharedPtr@VHardwareVertexBuffer@Ogre@@@Ogre@@QAEXPAVHardwareVertexBuffer@2@@Z" PURGE="4" COMMENT="" />
    <EXPORT ORDINAL="2748" NAME="?bind@?$SharedPtr@VHighLevelGpuProgram@Ogre@@@Ogre@@QAEXPAVHighLevelGpuProgram@2@@Z" PURGE="4" COMMENT="" />
    <EXPORT ORDINAL="2749" NAME="?bind@?$SharedPtr@VMaterial@Ogre@@@Ogre@@QAEXPAVMaterial@2@@Z" PURGE="4" COMMENT="" />
    <EXPORT ORDINAL="2750" NAME="?bind@?$SharedPtr@VMesh@Ogre@@@Ogre@@QAEXPAVMesh@2@@Z" PURGE="4" COMMENT="" />
    <EXPORT ORDINAL="2751" NAME="?bind@?$SharedPtr@VPatchMesh@Ogre@@@Ogre@@QAEXPAVPatchMesh@2@@Z" PURGE="4" COMMENT="" />
    <EXPORT ORDINAL="2752" NAME="?bind@?$SharedPtr@VSkeleton@Ogre@@@Ogre@@QAEXPAVSkeleton@2@@Z" PURGE="4" COMMENT="" />
    <EXPORT ORDINAL="2753" NAME="?bind@?$SharedPtr@VTexture@Ogre@@@Ogre@@QAEXPAVTexture@2@@Z" PURGE="4" COMMENT="" />
    <EXPORT ORDINAL="2754" NAME="?bindGpuProgram@RenderSystem@Ogre@@UAEXPAVGpuProgram@2@@Z" PURGE="4" COMMENT="" />
    <EXPORT ORDINAL="2755" NAME="?bindTempCopies@TempBlendedBufferInfo@Ogre@@QAEXPAVVertexData@2@_N@Z" PURGE="8" COMMENT="" />
    <EXPORT ORDINAL="2756" NAME="?blit@HardwarePixelBuffer@Ogre@@QAEXABVHardwarePixelBufferSharedPtr@2@@Z" PURGE="4" COMMENT="" />
    <EXPORT ORDINAL="2757" NAME="?blit@HardwarePixelBuffer@Ogre@@UAEXABVHardwarePixelBufferSharedPtr@2@ABUBox@2@1@Z" PURGE="12" COMMENT="" />
    <EXPORT ORDINAL="2758" NAME="?blitFromMemory@HardwarePixelBuffer@Ogre@@QAEXABVPixelBox@2@@Z" PURGE="4" COMMENT="" />
    <EXPORT ORDINAL="2759" NAME="?blitToMemory@HardwarePixelBuffer@Ogre@@QAEXABVPixelBox@2@@Z" PURGE="4" COMMENT="" />
    <EXPORT ORDINAL="2760" NAME="?buffersCheckedOut@TempBlendedBufferInfo@Ogre@@QBE_N_N0@Z" PURGE="8" COMMENT="" />
    <EXPORT ORDINAL="2761" NAME="?build@EdgeListBuilder@Ogre@@QAEPAVEdgeData@2@XZ" PURGE="0" COMMENT="" />
    <EXPORT ORDINAL="2762" NAME="?build@GeometryBucket@StaticGeometry@Ogre@@QAEX_N@Z" PURGE="4" COMMENT="" />
    <EXPORT ORDINAL="2763" NAME="?build@LODBucket@StaticGeometry@Ogre@@QAEX_N@Z" PURGE="4" COMMENT="" />
    <EXPORT ORDINAL="2764" NAME="?build@MaterialBucket@StaticGeometry@Ogre@@QAEX_N@Z" PURGE="4" COMMENT="" />
    <EXPORT ORDINAL="2765" NAME="?build@PatchSurface@Ogre@@QAEXABVHardwareVertexBufferSharedPtr@2@IABVHardwareIndexBufferSharedPtr@2@I@Z" PURGE="16" COMMENT="" />
    <EXPORT ORDINAL="2766" NAME="?build@ProgressiveMesh@Ogre@@UAEXGPAV?$vector@PAVIndexData@Ogre@@V?$allocator@PAVIndexData@Ogre@@@std@@@std@@W4VertexReductionQuota@12@M@Z" PURGE="16" COMMENT="" />
    <EXPORT ORDINAL="2767" NAME="?build@Region@StaticGeometry@Ogre@@QAEX_N@Z" PURGE="4" COMMENT="" />
    <EXPORT ORDINAL="2768" NAME="?build@StaticGeometry@Ogre@@UAEXXZ" PURGE="0" COMMENT="" />
    <EXPORT ORDINAL="2769" NAME="?buildClientBNFRulePaths@Compiler2Pass@Ogre@@AAEXXZ" PURGE="0" COMMENT="" />
    <EXPORT ORDINAL="2770" NAME="?buildEdgeList@Mesh@Ogre@@QAEXXZ" PURGE="0" COMMENT="" />
    <EXPORT ORDINAL="2771" NAME="?buildIndexMap@Mesh@Ogre@@IAEXABV?$multimap@IUVertexBoneAssignment_s@Ogre@@U?$less@I@std@@V?$fast_pool_allocator@U?$pair@$$CBIUVertexBoneAssignment_s@Ogre@@@std@@Udefault_user_allocator_new_delete@boost@@Vspin_mutex@pool@details@4@$0CA@@boost@@@std@@AAV?$vector@GV?$allocator@G@std@@@4@1@Z" PURGE="12" COMMENT="" />
    <EXPORT ORDINAL="2772" NAME="?buildInterpolationSplines@NodeAnimationTrack@Ogre@@MBEXXZ" PURGE="0" COMMENT="" />
    <EXPORT ORDINAL="2773" NAME="?buildKeyFrameTimeList@Animation@Ogre@@IBEXXZ" PURGE="0" COMMENT="" />
    <EXPORT ORDINAL="2774" NAME="?buildReflectionMatrix@Math@Ogre@@SA?AVMatrix4@2@ABVPlane@2@@Z" PURGE="0" COMMENT="" />
    <EXPORT ORDINAL="2775" NAME="?buildSubEntityList@Entity@Ogre@@IAEXABVMeshPtr@2@PAV?$vector@PAVSubEntity@Ogre@@V?$allocator@PAVSubEntity@Ogre@@@std@@@std@@@Z" PURGE="8" COMMENT="" />
    <EXPORT ORDINAL="2776" NAME="?buildTangentVectors@Mesh@Ogre@@QAEXGG@Z" PURGE="8" COMMENT="" />
    <EXPORT ORDINAL="2777" NAME="?buildTrianglesEdges@EdgeListBuilder@Ogre@@IAEXABUGeometry@12@@Z" PURGE="4" COMMENT="" />
    <EXPORT ORDINAL="2778" NAME="?buildTrigTables@Math@Ogre@@IAEXXZ" PURGE="0" COMMENT="" />
    <EXPORT ORDINAL="2779" NAME="?bulkPixelConversion@PixelUtil@Ogre@@SAXABVPixelBox@2@0@Z" PURGE="0" COMMENT="" />
    <EXPORT ORDINAL="2780" NAME="?bulkPixelConversion@PixelUtil@Ogre@@SAXPAXW4PixelFormat@2@01I@Z" PURGE="0" COMMENT="" />
    <EXPORT ORDINAL="2781" NAME="?cacheBoneMatrices@Entity@Ogre@@IAEXXZ" PURGE="0" COMMENT="" />
    <EXPORT ORDINAL="2782" NAME="?calcAnimationSize@SkeletonSerializer@Ogre@@AAEIPBVSkeleton@2@PBVAnimation@2@@Z" PURGE="8" COMMENT="" />
    <EXPORT ORDINAL="2783" NAME="?calcAnimationTrackSize@SkeletonSerializer@Ogre@@AAEIPBVSkeleton@2@PBVNodeAnimationTrack@2@@Z" PURGE="8" COMMENT="" />
    <EXPORT ORDINAL="2784" NAME="?calcBoneParentSize@SkeletonSerializer@Ogre@@AAEIPBVSkeleton@2@@Z" PURGE="4" COMMENT="" />
    <EXPORT ORDINAL="2785" NAME="?calcBoneSize@SkeletonSerializer@Ogre@@AAEIPBVSkeleton@2@PBVBone@2@@Z" PURGE="8" COMMENT="" />
    <EXPORT ORDINAL="2786" NAME="?calcBoneSizeWithoutScale@SkeletonSerializer@Ogre@@AAEIPBVSkeleton@2@PBVBone@2@@Z" PURGE="8" COMMENT="" />
    <EXPORT ORDINAL="2787" NAME="?calcKeyFrameListFlags@SkeletonSerializer@Ogre@@AAEGPBVNodeAnimationTrack@2@@Z" PURGE="4" COMMENT="" />
    <EXPORT ORDINAL="2788" NAME="?calcKeyFrameListSize@SkeletonSerializer@Ogre@@AAEIPBVSkeleton@2@PBVNodeAnimationTrack@2@G@Z" PURGE="12" COMMENT="" />
    <EXPORT ORDINAL="2789" NAME="?calcKeyFrameSize@SkeletonSerializer@Ogre@@AAEIPBVSkeleton@2@PBVTransformKeyFrame@2@@Z" PURGE="8" COMMENT="" />
    <EXPORT ORDINAL="2790" NAME="?calcKeyFrameSizeWithoutScale@SkeletonSerializer@Ogre@@AAEIPBVSkeleton@2@PBVTransformKeyFrame@2@@Z" PURGE="8" COMMENT="" />
    <EXPORT ORDINAL="2791" NAME="?calcProjectionParameters@Frustum@Ogre@@MBEXAAM000@Z" PURGE="16" COMMENT="" />
    <EXPORT ORDINAL="2792" NAME="?calcSkeletonAnimationLinkSize@SkeletonSerializer@Ogre@@AAEIPBVSkeleton@2@ABULinkedSkeletonAnimationSource@2@@Z" PURGE="8" COMMENT="" />
    <EXPORT ORDINAL="2793" NAME="?calculate@AnimationControllerFunction@Ogre@@UAEMM@Z" PURGE="4" COMMENT="" />
    <EXPORT ORDINAL="2794" NAME="?calculate@PassthroughControllerFunction@Ogre@@UAEMM@Z" PURGE="4" COMMENT="" />
    <EXPORT ORDINAL="2795" NAME="?calculate@ScaleControllerFunction@Ogre@@UAEMM@Z" PURGE="4" COMMENT="" />
    <EXPORT ORDINAL="2796" NAME="?calculate@WaveformControllerFunction@Ogre@@UAEMM@Z" PURGE="4" COMMENT="" />
    <EXPORT ORDINAL="2797" NAME="?calculateBasicFaceNormal@Math@Ogre@@SA?AVVector3@2@ABV32@00@Z" PURGE="0" COMMENT="" />
    <EXPORT ORDINAL="2798" NAME="?calculateBasicFaceNormalWithoutNormalize@Math@Ogre@@SA?AVVector3@2@ABV32@00@Z" PURGE="0" COMMENT="" />
    <EXPORT ORDINAL="2799" NAME="?calculateBounds@StaticGeometry@Ogre@@MAE?AVAxisAlignedBox@2@PAVVertexData@2@ABVVector3@2@ABVQuaternion@2@1@Z" PURGE="20" COMMENT="" />
    <EXPORT ORDINAL="2800" NAME="?calculateEventTime@Root@Ogre@@AAEMKW4FrameEventTimeType@12@@Z" PURGE="8" COMMENT="" />
    <EXPORT ORDINAL="2801" NAME="?calculateFaceNormal@Math@Ogre@@SA?AVVector4@2@ABVVector3@2@00@Z" PURGE="0" COMMENT="" />
    <EXPORT ORDINAL="2802" NAME="?calculateFaceNormalWithoutNormalize@Math@Ogre@@SA?AVVector4@2@ABVVector3@2@00@Z" PURGE="0" COMMENT="" />
    <EXPORT ORDINAL="2803" NAME="?calculateSize@Compositor@Ogre@@MBEIXZ" PURGE="0" COMMENT="" />
    <EXPORT ORDINAL="2804" NAME="?calculateSize@Font@Ogre@@MBEIXZ" PURGE="0" COMMENT="" />
    <EXPORT ORDINAL="2805" NAME="?calculateSize@GpuProgram@Ogre@@MBEIXZ" PURGE="0" COMMENT="" />
    <EXPORT ORDINAL="2806" NAME="?calculateSize@Image@Ogre@@SAIIIIIIW4PixelFormat@2@@Z" PURGE="0" COMMENT="" />
    <EXPORT ORDINAL="2807" NAME="?calculateSize@Material@Ogre@@MBEIXZ" PURGE="0" COMMENT="" />
    <EXPORT ORDINAL="2808" NAME="?calculateSize@Mesh@Ogre@@MBEIXZ" PURGE="0" COMMENT="" />
    <EXPORT ORDINAL="2809" NAME="?calculateSize@Skeleton@Ogre@@MBEIXZ" PURGE="0" COMMENT="" />
    <EXPORT ORDINAL="2810" NAME="?calculateSize@Texture@Ogre@@MBEIXZ" PURGE="0" COMMENT="" />
    <EXPORT ORDINAL="2811" NAME="?calculateTangentSpaceVector@Math@Ogre@@SA?AVVector3@2@ABV32@00MMMMMM@Z" PURGE="0" COMMENT="" />
    <EXPORT ORDINAL="2812" NAME="?cancelUpdate@Node@Ogre@@UAEXPAV12@@Z" PURGE="4" COMMENT="" />
    <EXPORT ORDINAL="2813" NAME="?changeEnableState@Profiler@Ogre@@IAEXXZ" PURGE="0" COMMENT="" />
    <EXPORT ORDINAL="2814" NAME="?changeGroupOwnership@Resource@Ogre@@QAEXABV?$basic_string@DU?$char_traits@D@std@@V?$allocator@D@2@@std@@@Z" PURGE="4" COMMENT="" />
    <EXPORT ORDINAL="2815" NAME="?checkMemoryAllocation@TextAreaOverlayElement@Ogre@@IAEXI@Z" PURGE="4" COMMENT="" />
    <EXPORT ORDINAL="2816" NAME="?checkTokenActionTrigger@Compiler2Pass@Ogre@@IAEXXZ" PURGE="0" COMMENT="" />
    <EXPORT ORDINAL="2817" NAME="?checkUsage@ResourceManager@Ogre@@MAEXXZ" PURGE="0" COMMENT="" />
    <EXPORT ORDINAL="2818" NAME="?checkZzipError@ZipArchive@Ogre@@IBEXHABV?$basic_string@DU?$char_traits@D@std@@V?$allocator@D@2@@std@@@Z" PURGE="8" COMMENT="" />
    <EXPORT ORDINAL="2819" NAME="?checkoutTempCopies@TempBlendedBufferInfo@Ogre@@QAEX_N0@Z" PURGE="8" COMMENT="" />
    <EXPORT ORDINAL="2820" NAME="?chooseVertexDataForBinding@Entity@Ogre@@QBE?AW4VertexDataBindChoice@12@_N@Z" PURGE="4" COMMENT="" />
    <EXPORT ORDINAL="2821" NAME="?cleanup@EventProcessor@Ogre@@IAEXXZ" PURGE="0" COMMENT="" />
    <EXPORT ORDINAL="2822" NAME="?cleanupDictionary@StringInterface@Ogre@@SAXXZ" PURGE="0" COMMENT="" />
    <EXPORT ORDINAL="2823" NAME="?clear@BillboardSet@Ogre@@UAEXXZ" PURGE="0" COMMENT="" />
    <EXPORT ORDINAL="2824" NAME="?clear@ConfigFile@Ogre@@QAEXXZ" PURGE="0" COMMENT="" />
    <EXPORT ORDINAL="2825" NAME="?clear@ManualObject@Ogre@@UAEXXZ" PURGE="0" COMMENT="" />
    <EXPORT ORDINAL="2826" NAME="?clear@Overlay@Ogre@@QAEXXZ" PURGE="0" COMMENT="" />
    <EXPORT ORDINAL="2827" NAME="?clear@ParticleSystem@Ogre@@QAEXXZ" PURGE="0" COMMENT="" />
    <EXPORT ORDINAL="2828" NAME="?clear@QueuedRenderableCollection@Ogre@@QAEXXZ" PURGE="0" COMMENT="" />
    <EXPORT ORDINAL="2829" NAME="?clear@RenderPriorityGroup@Ogre@@QAEXXZ" PURGE="0" COMMENT="" />
    <EXPORT ORDINAL="2830" NAME="?clear@RenderQueue@Ogre@@QAEX_N@Z" PURGE="4" COMMENT="" />
    <EXPORT ORDINAL="2831" NAME="?clear@RenderQueueGroup@Ogre@@QAEX_N@Z" PURGE="4" COMMENT="" />
    <EXPORT ORDINAL="2832" NAME="?clear@RenderQueueInvocationSequence@Ogre@@QAEXXZ" PURGE="0" COMMENT="" />
    <EXPORT ORDINAL="2833" NAME="?clear@RotationalSpline@Ogre@@QAEXXZ" PURGE="0" COMMENT="" />
    <EXPORT ORDINAL="2834" NAME="?clear@SimpleSpline@Ogre@@QAEXXZ" PURGE="0" COMMENT="" />
    <EXPORT ORDINAL="2835" NAME="?clearAllChains@BillboardChain@Ogre@@UAEXXZ" PURGE="0" COMMENT="" />
    <EXPORT ORDINAL="2836" NAME="?clearAllInputs@CompositionPass@Ogre@@QAEXXZ" PURGE="0" COMMENT="" />
    <EXPORT ORDINAL="2837" NAME="?clearAutoConstant@GpuProgramParameters@Ogre@@QAEXI@Z" PURGE="4" COMMENT="" />
    <EXPORT ORDINAL="2838" NAME="?clearAutoConstants@GpuProgramParameters@Ogre@@QAEXXZ" PURGE="0" COMMENT="" />
    <EXPORT ORDINAL="2839" NAME="?clearBestTechniqueList@Material@Ogre@@IAEXXZ" PURGE="0" COMMENT="" />
    <EXPORT ORDINAL="2840" NAME="?clearBoneAssignments@Mesh@Ogre@@QAEXXZ" PURGE="0" COMMENT="" />
    <EXPORT ORDINAL="2841" NAME="?clearBoneAssignments@SubMesh@Ogre@@QAEXXZ" PURGE="0" COMMENT="" />
    <EXPORT ORDINAL="2842" NAME="?clearChain@BillboardChain@Ogre@@UAEXI@Z" PURGE="4" COMMENT="" />
    <EXPORT ORDINAL="2843" NAME="?clearChain@RibbonTrail@Ogre@@UAEXI@Z" PURGE="4" COMMENT="" />
    <EXPORT ORDINAL="2844" NAME="?clearCompiledState@CompositorChain@Ogre@@IAEXXZ" PURGE="0" COMMENT="" />
    <EXPORT ORDINAL="2845" NAME="?clearControllers@ControllerManager@Ogre@@QAEXXZ" PURGE="0" COMMENT="" />
    <EXPORT ORDINAL="2846" NAME="?clearCustomParameters@Renderable@Ogre@@QAEXXZ" PURGE="0" COMMENT="" />
    <EXPORT ORDINAL="2847" NAME="?clearDirtyHashList@Pass@Ogre@@SAXXZ" PURGE="0" COMMENT="" />
    <EXPORT ORDINAL="2848" NAME="?clearEventTimes@Root@Ogre@@QAEXXZ" PURGE="0" COMMENT="" />
    <EXPORT ORDINAL="2849" NAME="?clearIlluminationPasses@Technique@Ogre@@IAEXXZ" PURGE="0" COMMENT="" />
    <EXPORT ORDINAL="2850" NAME="?clearNamedAutoConstant@GpuProgramParameters@Ogre@@QAEXABV?$basic_string@DU?$char_traits@D@std@@V?$allocator@D@2@@std@@@Z" PURGE="4" COMMENT="" />
    <EXPORT ORDINAL="2851" NAME="?clearQueue@MaterialSerializer@Ogre@@QAEXXZ" PURGE="0" COMMENT="" />
    <EXPORT ORDINAL="2852" NAME="?clearResourceGroup@ResourceGroupManager@Ogre@@QAEXABV?$basic_string@DU?$char_traits@D@std@@V?$allocator@D@2@@std@@@Z" PURGE="4" COMMENT="" />
    <EXPORT ORDINAL="2853" NAME="?clearResults@IntersectionSceneQuery@Ogre@@UAEXXZ" PURGE="0" COMMENT="" />
    <EXPORT ORDINAL="2854" NAME="?clearResults@RaySceneQuery@Ogre@@UAEXXZ" PURGE="0" COMMENT="" />
    <EXPORT ORDINAL="2855" NAME="?clearResults@RegionSceneQuery@Ogre@@UAEXXZ" PURGE="0" COMMENT="" />
    <EXPORT ORDINAL="2856" NAME="?clearScene@SceneManager@Ogre@@UAEXXZ" PURGE="0" COMMENT="" />
    <EXPORT ORDINAL="2857" NAME="?clearSpecialCaseRenderQueues@SceneManager@Ogre@@UAEXXZ" PURGE="0" COMMENT="" />
    <EXPORT ORDINAL="2858" NAME="?clearVertexOffsets@Pose@Ogre@@QAEXXZ" PURGE="0" COMMENT="" />
    <EXPORT ORDINAL="2859" NAME="?clip@ConvexBody@Ogre@@QAEXABV12@@Z" PURGE="4" COMMENT="" />
    <EXPORT ORDINAL="2860" NAME="?clip@ConvexBody@Ogre@@QAEXABVAxisAlignedBox@2@@Z" PURGE="4" COMMENT="" />
    <EXPORT ORDINAL="2861" NAME="?clip@ConvexBody@Ogre@@QAEXABVFrustum@2@@Z" PURGE="4" COMMENT="" />
    <EXPORT ORDINAL="2862" NAME="?clip@ConvexBody@Ogre@@QAEXABVPlane@2@_N@Z" PURGE="8" COMMENT="" />
    <EXPORT ORDINAL="2863" NAME="?cllocMem@MemoryManager@Ogre@@QAEPAXPBDIII@Z" PURGE="16" COMMENT="" />
    <EXPORT ORDINAL="2864" NAME="?clone@Animation@Ogre@@QBEPAV12@ABV?$basic_string@DU?$char_traits@D@std@@V?$allocator@D@2@@std@@@Z" PURGE="4" COMMENT="" />
    <EXPORT ORDINAL="2865" NAME="?clone@Entity@Ogre@@QBEPAV12@ABV?$basic_string@DU?$char_traits@D@std@@V?$allocator@D@2@@std@@@Z" PURGE="4" COMMENT="" />
    <EXPORT ORDINAL="2866" NAME="?clone@IndexData@Ogre@@QBEPAV12@_N@Z" PURGE="4" COMMENT="" />
    <EXPORT ORDINAL="2867" NAME="?clone@Material@Ogre@@QBE?AVMaterialPtr@2@ABV?$basic_string@DU?$char_traits@D@std@@V?$allocator@D@2@@std@@_N0@Z" PURGE="16" COMMENT="" />
    <EXPORT ORDINAL="2868" NAME="?clone@Mesh@Ogre@@QAE?AVMeshPtr@2@ABV?$basic_string@DU?$char_traits@D@std@@V?$allocator@D@2@@std@@0@Z" PURGE="12" COMMENT="" />
    <EXPORT ORDINAL="2869" NAME="?clone@OverlayContainer@Ogre@@UAEPAVOverlayElement@2@ABV?$basic_string@DU?$char_traits@D@std@@V?$allocator@D@2@@std@@@Z" PURGE="4" COMMENT="" />
    <EXPORT ORDINAL="2870" NAME="?clone@OverlayElement@Ogre@@UAEPAV12@ABV?$basic_string@DU?$char_traits@D@std@@V?$allocator@D@2@@std@@@Z" PURGE="4" COMMENT="" />
    <EXPORT ORDINAL="2871" NAME="?clone@Pose@Ogre@@QBEPAV12@XZ" PURGE="0" COMMENT="" />
    <EXPORT ORDINAL="2872" NAME="?clone@VertexData@Ogre@@QBEPAV12@_N@Z" PURGE="4" COMMENT="" />
    <EXPORT ORDINAL="2873" NAME="?clone@VertexDeclaration@Ogre@@UAEPAV12@XZ" PURGE="0" COMMENT="" />
    <EXPORT ORDINAL="2874" NAME="?cloneBoneAndChildren@SkeletonInstance@Ogre@@IAEXPAVBone@2@0@Z" PURGE="8" COMMENT="" />
    <EXPORT ORDINAL="2875" NAME="?cloneOverlayElementFromTemplate@OverlayManager@Ogre@@QAEPAVOverlayElement@2@ABV?$basic_string@DU?$char_traits@D@std@@V?$allocator@D@2@@std@@0@Z" PURGE="8" COMMENT="" />
    <EXPORT ORDINAL="2876" NAME="?cloneVertexDataRemoveBlendInfo@Entity@Ogre@@IAEPAVVertexData@2@PBV32@@Z" PURGE="4" COMMENT="" />
    <EXPORT ORDINAL="2877" NAME="?close@FileHandleDataStream@Ogre@@UAEXXZ" PURGE="0" COMMENT="" />
    <EXPORT ORDINAL="2878" NAME="?close@FileStreamDataStream@Ogre@@UAEXXZ" PURGE="0" COMMENT="" />
    <EXPORT ORDINAL="2879" NAME="?close@MemoryDataStream@Ogre@@UAEXXZ" PURGE="0" COMMENT="" />
    <EXPORT ORDINAL="2880" NAME="?closeGaps@VertexBufferBinding@Ogre@@UAEXAAV?$map@GGU?$less@G@std@@V?$allocator@U?$pair@$$CBGG@std@@@2@@std@@@Z" PURGE="4" COMMENT="" />
    <EXPORT ORDINAL="2881" NAME="?closeGapsInBindings@VertexData@Ogre@@QAEXXZ" PURGE="0" COMMENT="" />
    <EXPORT ORDINAL="2882" NAME="?closeGapsInSource@VertexDeclaration@Ogre@@QAEXXZ" PURGE="0" COMMENT="" />
    <EXPORT ORDINAL="2883" NAME="?code@ILImageCodec@Ogre@@UBE?AV?$SharedPtr@VDataStream@Ogre@@@2@AAV?$SharedPtr@VMemoryDataStream@Ogre@@@2@AAV?$SharedPtr@VCodecData@Codec@Ogre@@@2@@Z" PURGE="-1" COMMENT="" />
    <EXPORT ORDINAL="2884" NAME="?codeToFile@ILImageCodec@Ogre@@UBEXAAV?$SharedPtr@VMemoryDataStream@Ogre@@@2@ABV?$basic_string@DU?$char_traits@D@std@@V?$allocator@D@2@@std@@AAV?$SharedPtr@VCodecData@Codec@Ogre@@@2@@Z" PURGE="12" COMMENT="" />
    <EXPORT ORDINAL="2885" NAME="?collapse@ProgressiveMesh@Ogre@@IAEXPAVPMVertex@12@@Z" PURGE="4" COMMENT="" />
    <EXPORT ORDINAL="2886" NAME="?collectPasses@CompositorInstance@Ogre@@EAEXAAVTargetOperation@12@PAVCompositionTargetPass@2@@Z" PURGE="8" COMMENT="" />
    <EXPORT ORDINAL="2887" NAME="?colour@ManualObject@Ogre@@UAEXABVColourValue@2@@Z" PURGE="4" COMMENT="" />
    <EXPORT ORDINAL="2888" NAME="?colour@ManualObject@Ogre@@UAEXMMMM@Z" PURGE="16" COMMENT="" />
    <EXPORT ORDINAL="2889" NAME="?compile@Compiler2Pass@Ogre@@QAE_NABV?$basic_string@DU?$char_traits@D@std@@V?$allocator@D@2@@std@@0@Z" PURGE="8" COMMENT="" />
    <EXPORT ORDINAL="2890" NAME="?compile@Compositor@Ogre@@IAEXXZ" PURGE="0" COMMENT="" />
    <EXPORT ORDINAL="2891" NAME="?compile@Material@Ogre@@QAEX_N@Z" PURGE="4" COMMENT="" />
    <EXPORT ORDINAL="2892" NAME="?compileBoneAssignments@Mesh@Ogre@@IAEXABV?$multimap@IUVertexBoneAssignment_s@Ogre@@U?$less@I@std@@V?$fast_pool_allocator@U?$pair@$$CBIUVertexBoneAssignment_s@Ogre@@@std@@Udefault_user_allocator_new_delete@boost@@Vspin_mutex@pool@details@4@$0CA@@boost@@@std@@GAAV?$vector@GV?$allocator@G@std@@@4@PAVVertexData@2@@Z" PURGE="16" COMMENT="" />
    <EXPORT ORDINAL="2893" NAME="?compositorScript_BNF@CompositorScriptCompiler@Ogre@@1V?$basic_string@DU?$char_traits@D@std@@V?$allocator@D@2@@std@@A" PURGE="-1" COMMENT="" />
    <EXPORT ORDINAL="2894" NAME="?computeAllCosts@ProgressiveMesh@Ogre@@IAEXXZ" PURGE="0" COMMENT="" />
    <EXPORT ORDINAL="2895" NAME="?computeConstrainedProjection@PlaneOptimalShadowCameraSetup@Ogre@@ABE?AVMatrix4@2@ABVVector4@2@ABV?$vector@VVector4@Ogre@@V?$allocator@VVector4@Ogre@@@std@@@std@@ABV?$vector@VVector2@Ogre@@V?$allocator@VVector2@Ogre@@@std@@@6@@Z" PURGE="16" COMMENT="" />
    <EXPORT ORDINAL="2896" NAME="?computeEdgeCollapseCost@ProgressiveMesh@Ogre@@IAEMPAVPMVertex@12@0@Z" PURGE="8" COMMENT="" />
    <EXPORT ORDINAL="2897" NAME="?computeEdgeCostAtVertex@ProgressiveMesh@Ogre@@IAEXI@Z" PURGE="4" COMMENT="" />
    <EXPORT ORDINAL="2898" NAME="?computeEdgeCostAtVertexForBuffer@ProgressiveMesh@Ogre@@IAEMViterator@?$vector@UPMWorkingData@ProgressiveMesh@Ogre@@V?$allocator@UPMWorkingData@ProgressiveMesh@Ogre@@@std@@@std@@I@Z" PURGE="8" COMMENT="" />
    <EXPORT ORDINAL="2899" NAME="?concatenate@Matrix4@Ogre@@QAEXABV12@0@Z" PURGE="8" COMMENT="" />
    <EXPORT ORDINAL="2900" NAME="?concatenate@Matrix4@Ogre@@QBE?AV12@ABV12@@Z" PURGE="8" COMMENT="" />
    <EXPORT ORDINAL="2901" NAME="?concatenateAffine@Matrix4@Ogre@@QBE?AV12@ABV12@@Z" PURGE="8" COMMENT="" />
    <EXPORT ORDINAL="2902" NAME="?configureRenderer@ParticleSystem@Ogre@@IAEXXZ" PURGE="0" COMMENT="" />
    <EXPORT ORDINAL="2903" NAME="?connectOrCreateEdge@EdgeListBuilder@Ogre@@IAEXIIIIII@Z" PURGE="24" COMMENT="" />
    <EXPORT ORDINAL="2904" NAME="?consume@InputEvent@Ogre@@QAEXXZ" PURGE="0" COMMENT="" />
    <EXPORT ORDINAL="2905" NAME="?contains@AxisAlignedBox@Ogre@@QBE_NABV12@@Z" PURGE="4" COMMENT="" />
    <EXPORT ORDINAL="2906" NAME="?contains@AxisAlignedBox@Ogre@@QBE_NABVVector3@2@@Z" PURGE="4" COMMENT="" />
    <EXPORT ORDINAL="2907" NAME="?contains@OverlayElement@Ogre@@UBE_NMM@Z" PURGE="8" COMMENT="" />
    <EXPORT ORDINAL="2908" NAME="?convTexAddressMode@MaterialScriptCompiler@Ogre@@IAE?AW4TextureAddressingMode@TextureUnitState@2@XZ" PURGE="0" COMMENT="" />
    <EXPORT ORDINAL="2909" NAME="?convertBlendFactor@MaterialScriptCompiler@Ogre@@IAE?AW4SceneBlendFactor@2@XZ" PURGE="0" COMMENT="" />
    <EXPORT ORDINAL="2910" NAME="?convertBlendOpEx@MaterialScriptCompiler@Ogre@@IAE?AW4LayerBlendOperationEx@2@XZ" PURGE="2555" COMMENT="" />
    <EXPORT ORDINAL="2911" NAME="?convertBlendSource@MaterialScriptCompiler@Ogre@@IAE?AW4LayerBlendSource@2@XZ" PURGE="-1" COMMENT="" />
    <EXPORT ORDINAL="2912" NAME="?convertColourValue@RenderSystem@Ogre@@UAEXABVColourValue@2@PAI@Z" PURGE="8" COMMENT="" />
    <EXPORT ORDINAL="2913" NAME="?convertColourValue@Root@Ogre@@QAEXABVColourValue@2@PAI@Z" PURGE="-1" COMMENT="" />
    <EXPORT ORDINAL="2914" NAME="?convertColourValue@VertexElement@Ogre@@SAIABVColourValue@2@W4VertexElementType@2@@Z" PURGE="-1" COMMENT="" />
    <EXPORT ORDINAL="2915" NAME="?convertColourValue@VertexElement@Ogre@@SAXW4VertexElementType@2@0PAI@Z" PURGE="0" COMMENT="" />
    <EXPORT ORDINAL="2916" NAME="?convertCompareFunction@MaterialScriptCompiler@Ogre@@IAE?AW4CompareFunction@2@XZ" PURGE="0" COMMENT="" />
    <EXPORT ORDINAL="2917" NAME="?convertFiltering@MaterialScriptCompiler@Ogre@@IAE?AW4FilterOptions@2@XZ" PURGE="0" COMMENT="" />
    <EXPORT ORDINAL="2918" NAME="?convertFiltering@MaterialSerializer@Ogre@@IAE?AV?$basic_string@DU?$char_traits@D@std@@V?$allocator@D@2@@std@@W4FilterOptions@2@@Z" PURGE="8" COMMENT="" />
    <EXPORT ORDINAL="2919" NAME="?convertPackedColour@VertexData@Ogre@@QAEXW4VertexElementType@2@0@Z" PURGE="8" COMMENT="" />
    <EXPORT ORDINAL="2920" NAME="?convertToMesh@ManualObject@Ogre@@UAE?AVMeshPtr@2@ABV?$basic_string@DU?$char_traits@D@std@@V?$allocator@D@2@@std@@0@Z" PURGE="12" COMMENT="" />
    <EXPORT ORDINAL="2921" NAME="?copyConstantsFrom@GpuProgramParameters@Ogre@@QAEXABV12@@Z" PURGE="4" COMMENT="" />
    <EXPORT ORDINAL="2922" NAME="?copyData@HardwareBuffer@Ogre@@UAEXAAV12@III_N@Z" PURGE="20" COMMENT="" />
    <EXPORT ORDINAL="2923" NAME="?copyDetailsTo@Material@Ogre@@QBEXAAVMaterialPtr@2@@Z" PURGE="4" COMMENT="" />
    <EXPORT ORDINAL="2924" NAME="?copyFromTemplate@OverlayContainer@Ogre@@UAEXPAVOverlayElement@2@@Z" PURGE="4" COMMENT="" />
    <EXPORT ORDINAL="2925" NAME="?copyFromTemplate@OverlayElement@Ogre@@UAEXPAV12@@Z" PURGE="4" COMMENT="" />
    <EXPORT ORDINAL="2926" NAME="?copyMatchingState@AnimationStateSet@Ogre@@QBEXPAV12@@Z" PURGE="4" COMMENT="" />
    <EXPORT ORDINAL="2927" NAME="?copyParametersTo@StringInterface@Ogre@@UBEXPAV12@@Z" PURGE="4" COMMENT="" />
    <EXPORT ORDINAL="2928" NAME="?copyStateFrom@AnimationState@Ogre@@QAEXABV12@@Z" PURGE="4" COMMENT="" />
    <EXPORT ORDINAL="2929" NAME="?copyTempVertexToBuffer@ManualObject@Ogre@@MAEXXZ" PURGE="0" COMMENT="" />
    <EXPORT ORDINAL="2930" NAME="?copyToTexture@Texture@Ogre@@UAEXAAVTexturePtr@2@@Z" PURGE="4" COMMENT="" />
    <EXPORT ORDINAL="2931" NAME="?create@GpuProgramManager@Ogre@@UAE?AV?$SharedPtr@VResource@Ogre@@@2@ABV?$basic_string@DU?$char_traits@D@std@@V?$allocator@D@2@@std@@0W4GpuProgramType@2@0_NPAVManualResourceLoader@2@@Z" PURGE="28" COMMENT="" />
    <EXPORT ORDINAL="2932" NAME="?create@OverlayManager@Ogre@@QAEPAVOverlay@2@ABV?$basic_string@DU?$char_traits@D@std@@V?$allocator@D@2@@std@@@Z" PURGE="4" COMMENT="" />
    <EXPORT ORDINAL="2933" NAME="?create@ResourceManager@Ogre@@UAE?AV?$SharedPtr@VResource@Ogre@@@2@ABV?$basic_string@DU?$char_traits@D@std@@V?$allocator@D@2@@std@@0_NPAVManualResourceLoader@2@PBV?$map@V?$basic_string@DU?$char_traits@D@std@@V?$allocator@D@2@@std@@V12@U?$less@V?$basic_string@DU?$char_traits@D@std@@V?$allocator@D@2@@std@@@2@V?$allocator@U?$pair@$$CBV?$basic_string@DU?$char_traits@D@std@@V?$allocator@D@2@@std@@V12@@std@@@2@@5@@Z" PURGE="24" COMMENT="" />
    <EXPORT ORDINAL="2934" NAME="?createAABBQuery@SceneManager@Ogre@@UAEPAVAxisAlignedBoxSceneQuery@2@ABVAxisAlignedBox@2@K@Z" PURGE="8" COMMENT="" />
    <EXPORT ORDINAL="2935" NAME="?createAnimController@TextureUnitState@Ogre@@IAEXXZ" PURGE="0" COMMENT="" />
    <EXPORT ORDINAL="2936" NAME="?createAnimableDictionary@AnimableObject@Ogre@@IBEXXZ" PURGE="0" COMMENT="" />
    <EXPORT ORDINAL="2937" NAME="?createAnimableValue@AnimableObject@Ogre@@UAE?AV?$SharedPtr@VAnimableValue@Ogre@@@2@ABV?$basic_string@DU?$char_traits@D@std@@V?$allocator@D@2@@std@@@Z" PURGE="-1" COMMENT="" />
    <EXPORT ORDINAL="2938" NAME="?createAnimableValue@Light@Ogre@@UAE?AV?$SharedPtr@VAnimableValue@Ogre@@@2@ABV?$basic_string@DU?$char_traits@D@std@@V?$allocator@D@2@@std@@@Z" PURGE="8" COMMENT="" />
    <EXPORT ORDINAL="2939" NAME="?createAnimation@Mesh@Ogre@@UAEPAVAnimation@2@ABV?$basic_string@DU?$char_traits@D@std@@V?$allocator@D@2@@std@@M@Z" PURGE="8" COMMENT="" />
    <EXPORT ORDINAL="2940" NAME="?createAnimation@SceneManager@Ogre@@UAEPAVAnimation@2@ABV?$basic_string@DU?$char_traits@D@std@@V?$allocator@D@2@@std@@M@Z" PURGE="8" COMMENT="" />
    <EXPORT ORDINAL="2941" NAME="?createAnimation@Skeleton@Ogre@@UAEPAVAnimation@2@ABV?$basic_string@DU?$char_traits@D@std@@V?$allocator@D@2@@std@@M@Z" PURGE="8" COMMENT="" />
    <EXPORT ORDINAL="2942" NAME="?createAnimation@SkeletonInstance@Ogre@@UAEPAVAnimation@2@ABV?$basic_string@DU?$char_traits@D@std@@V?$allocator@D@2@@std@@M@Z" PURGE="-1" COMMENT="" />
    <EXPORT ORDINAL="2943" NAME="?createAnimationState@AnimationStateSet@Ogre@@QAEPAVAnimationState@2@ABV?$basic_string@DU?$char_traits@D@std@@V?$allocator@D@2@@std@@MMM_N@Z" PURGE="20" COMMENT="" />
    <EXPORT ORDINAL="2944" NAME="?createAnimationState@SceneManager@Ogre@@UAEPAVAnimationState@2@ABV?$basic_string@DU?$char_traits@D@std@@V?$allocator@D@2@@std@@@Z" PURGE="4" COMMENT="" />
    <EXPORT ORDINAL="2945" NAME="?createBezierPatch@MeshManager@Ogre@@QAE?AVPatchMeshPtr@2@ABV?$basic_string@DU?$char_traits@D@std@@V?$allocator@D@2@@std@@0PAXPAVVertexDeclaration@2@IIIIW4VisibleSide@PatchSurface@2@W4Usage@HardwareBuffer@2@4_N5@Z" PURGE="56" COMMENT="" />
    <EXPORT ORDINAL="2946" NAME="?createBillboard@BillboardSet@Ogre@@QAEPAVBillboard@2@ABVVector3@2@ABVColourValue@2@@Z" PURGE="8" COMMENT="" />
    <EXPORT ORDINAL="2947" NAME="?createBillboard@BillboardSet@Ogre@@QAEPAVBillboard@2@MMMABVColourValue@2@@Z" PURGE="16" COMMENT="" />
    <EXPORT ORDINAL="2948" NAME="?createBillboardChain@SceneManager@Ogre@@UAEPAVBillboardChain@2@ABV?$basic_string@DU?$char_traits@D@std@@V?$allocator@D@2@@std@@@Z" PURGE="4" COMMENT="" />
    <EXPORT ORDINAL="2949" NAME="?createBillboardSet@SceneManager@Ogre@@UAEPAVBillboardSet@2@ABV?$basic_string@DU?$char_traits@D@std@@V?$allocator@D@2@@std@@I@Z" PURGE="8" COMMENT="" />
    <EXPORT ORDINAL="2950" NAME="?createBone@Skeleton@Ogre@@UAEPAVBone@2@ABV?$basic_string@DU?$char_traits@D@std@@V?$allocator@D@2@@std@@@Z" PURGE="4" COMMENT="" />
    <EXPORT ORDINAL="2951" NAME="?createBone@Skeleton@Ogre@@UAEPAVBone@2@ABV?$basic_string@DU?$char_traits@D@std@@V?$allocator@D@2@@std@@G@Z" PURGE="8" COMMENT="" />
    <EXPORT ORDINAL="2952" NAME="?createBone@Skeleton@Ogre@@UAEPAVBone@2@G@Z" PURGE="4" COMMENT="" />
    <EXPORT ORDINAL="2953" NAME="?createBone@Skeleton@Ogre@@UAEPAVBone@2@XZ" PURGE="0" COMMENT="" />
    <EXPORT ORDINAL="2954" NAME="?createCamera@SceneManager@Ogre@@UAEPAVCamera@2@ABV?$basic_string@DU?$char_traits@D@std@@V?$allocator@D@2@@std@@@Z" PURGE="4" COMMENT="" />
    <EXPORT ORDINAL="2955" NAME="?createChild@Bone@Ogre@@QAEPAV12@GABVVector3@2@ABVQuaternion@2@@Z" PURGE="12" COMMENT="" />
    <EXPORT ORDINAL="2956" NAME="?createChild@Node@Ogre@@UAEPAV12@ABV?$basic_string@DU?$char_traits@D@std@@V?$allocator@D@2@@std@@ABVVector3@2@ABVQuaternion@2@@Z" PURGE="12" COMMENT="" />
    <EXPORT ORDINAL="2957" NAME="?createChild@Node@Ogre@@UAEPAV12@ABVVector3@2@ABVQuaternion@2@@Z" PURGE="8" COMMENT="" />
    <EXPORT ORDINAL="2958" NAME="?createChildImpl@Bone@Ogre@@MAEPAVNode@2@ABV?$basic_string@DU?$char_traits@D@std@@V?$allocator@D@2@@std@@@Z" PURGE="-1" COMMENT="" />
    <EXPORT ORDINAL="2959" NAME="?createChildImpl@Bone@Ogre@@MAEPAVNode@2@XZ" PURGE="-1" COMMENT="" />
    <EXPORT ORDINAL="2960" NAME="?createChildImpl@SceneNode@Ogre@@MAEPAVNode@2@ABV?$basic_string@DU?$char_traits@D@std@@V?$allocator@D@2@@std@@@Z" PURGE="-1" COMMENT="" />
    <EXPORT ORDINAL="2961" NAME="?createChildImpl@SceneNode@Ogre@@MAEPAVNode@2@XZ" PURGE="-1" COMMENT="" />
    <EXPORT ORDINAL="2962" NAME="?createChildSceneNode@SceneNode@Ogre@@UAEPAV12@ABV?$basic_string@DU?$char_traits@D@std@@V?$allocator@D@2@@std@@ABVVector3@2@ABVQuaternion@2@@Z" PURGE="-1" COMMENT="" />
    <EXPORT ORDINAL="2963" NAME="?createChildSceneNode@SceneNode@Ogre@@UAEPAV12@ABVVector3@2@ABVQuaternion@2@@Z" PURGE="-1" COMMENT="" />
    <EXPORT ORDINAL="2964" NAME="?createConfigDialog@PlatformManager@Ogre@@QAEPAVConfigDialog@2@XZ" PURGE="0" COMMENT="" />
    <EXPORT ORDINAL="2965" NAME="?createContainer@Profiler@Ogre@@IAEPAVOverlayContainer@2@XZ" PURGE="0" COMMENT="" />
    <EXPORT ORDINAL="2966" NAME="?createController@ControllerManager@Ogre@@QAEPAV?$Controller@M@2@ABV?$SharedPtr@V?$ControllerValue@M@Ogre@@@2@0ABV?$SharedPtr@V?$ControllerFunction@M@Ogre@@@2@@Z" PURGE="12" COMMENT="" />
    <EXPORT ORDINAL="2967" NAME="?createCurvedIllusionPlane@MeshManager@Ogre@@QAE?AVMeshPtr@2@ABV?$basic_string@DU?$char_traits@D@std@@V?$allocator@D@2@@std@@0ABVPlane@2@MMMHH_NHMMABVVector3@2@ABVQuaternion@2@W4Usage@HardwareBuffer@2@522H@Z" PURGE="80" COMMENT="" />
    <EXPORT ORDINAL="2968" NAME="?createCurvedPlane@MeshManager@Ogre@@QAE?AVMeshPtr@2@ABV?$basic_string@DU?$char_traits@D@std@@V?$allocator@D@2@@std@@0ABVPlane@2@MMMHH_NHMMABVVector3@2@W4Usage@HardwareBuffer@2@422@Z" PURGE="72" COMMENT="" />
    <EXPORT ORDINAL="2969" NAME="?createDeclaredResources@ResourceGroupManager@Ogre@@IAEXPAUResourceGroup@12@@Z" PURGE="4" COMMENT="" />
    <EXPORT ORDINAL="2970" NAME="?createEffectController@TextureUnitState@Ogre@@IAEXAAUTextureEffect@12@@Z" PURGE="4" COMMENT="" />
    <EXPORT ORDINAL="2971" NAME="?createEntity@SceneManager@Ogre@@UAEPAVEntity@2@ABV?$basic_string@DU?$char_traits@D@std@@V?$allocator@D@2@@std@@0_N@Z" PURGE="12" COMMENT="" />
    <EXPORT ORDINAL="2972" NAME="?createEntity@SceneManager@Ogre@@UAEPAVEntity@2@ABV?$basic_string@DU?$char_traits@D@std@@V?$allocator@D@2@@std@@W4PrefabType@12@@Z" PURGE="8" COMMENT="" />
    <EXPORT ORDINAL="2973" NAME="?createErrorDialog@PlatformManager@Ogre@@QAEPAVErrorDialog@2@XZ" PURGE="0" COMMENT="" />
    <EXPORT ORDINAL="2974" NAME="?createFrameTimePassthroughController@ControllerManager@Ogre@@QAEPAV?$Controller@M@2@ABV?$SharedPtr@V?$ControllerValue@M@Ogre@@@2@@Z" PURGE="4" COMMENT="" />
    <EXPORT ORDINAL="2975" NAME="?createGpuProgramTimerParam@ControllerManager@Ogre@@QAEPAV?$Controller@M@2@PAVGpuProgramParameters@2@IM@Z" PURGE="12" COMMENT="" />
    <EXPORT ORDINAL="2976" NAME="?createImpl@CompositorManager@Ogre@@UAEPAVResource@2@ABV?$basic_string@DU?$char_traits@D@std@@V?$allocator@D@2@@std@@K0_NPAVManualResourceLoader@2@PBV?$map@V?$basic_string@DU?$char_traits@D@std@@V?$allocator@D@2@@std@@V12@U?$less@V?$basic_string@DU?$char_traits@D@std@@V?$allocator@D@2@@std@@@2@V?$allocator@U?$pair@$$CBV?$basic_string@DU?$char_traits@D@std@@V?$allocator@D@2@@std@@V12@@std@@@2@@5@@Z" PURGE="24" COMMENT="" />
    <EXPORT ORDINAL="2977" NAME="?createImpl@FontManager@Ogre@@MAEPAVResource@2@ABV?$basic_string@DU?$char_traits@D@std@@V?$allocator@D@2@@std@@K0_NPAVManualResourceLoader@2@PBV?$map@V?$basic_string@DU?$char_traits@D@std@@V?$allocator@D@2@@std@@V12@U?$less@V?$basic_string@DU?$char_traits@D@std@@V?$allocator@D@2@@std@@@2@V?$allocator@U?$pair@$$CBV?$basic_string@DU?$char_traits@D@std@@V?$allocator@D@2@@std@@V12@@std@@@2@@5@@Z" PURGE="24" COMMENT="" />
    <EXPORT ORDINAL="2978" NAME="?createImpl@HighLevelGpuProgramManager@Ogre@@MAEPAVResource@2@ABV?$basic_string@DU?$char_traits@D@std@@V?$allocator@D@2@@std@@K0_NPAVManualResourceLoader@2@PBV?$map@V?$basic_string@DU?$char_traits@D@std@@V?$allocator@D@2@@std@@V12@U?$less@V?$basic_string@DU?$char_traits@D@std@@V?$allocator@D@2@@std@@@2@V?$allocator@U?$pair@$$CBV?$basic_string@DU?$char_traits@D@std@@V?$allocator@D@2@@std@@V12@@std@@@2@@5@@Z" PURGE="24" COMMENT="" />
    <EXPORT ORDINAL="2979" NAME="?createImpl@MaterialManager@Ogre@@MAEPAVResource@2@ABV?$basic_string@DU?$char_traits@D@std@@V?$allocator@D@2@@std@@K0_NPAVManualResourceLoader@2@PBV?$map@V?$basic_string@DU?$char_traits@D@std@@V?$allocator@D@2@@std@@V12@U?$less@V?$basic_string@DU?$char_traits@D@std@@V?$allocator@D@2@@std@@@2@V?$allocator@U?$pair@$$CBV?$basic_string@DU?$char_traits@D@std@@V?$allocator@D@2@@std@@V12@@std@@@2@@5@@Z" PURGE="24" COMMENT="" />
    <EXPORT ORDINAL="2980" NAME="?createImpl@MeshManager@Ogre@@MAEPAVResource@2@ABV?$basic_string@DU?$char_traits@D@std@@V?$allocator@D@2@@std@@K0_NPAVManualResourceLoader@2@PBV?$map@V?$basic_string@DU?$char_traits@D@std@@V?$allocator@D@2@@std@@V12@U?$less@V?$basic_string@DU?$char_traits@D@std@@V?$allocator@D@2@@std@@@2@V?$allocator@U?$pair@$$CBV?$basic_string@DU?$char_traits@D@std@@V?$allocator@D@2@@std@@V12@@std@@@2@@5@@Z" PURGE="24" COMMENT="" />
    <EXPORT ORDINAL="2981" NAME="?createImpl@SkeletonManager@Ogre@@MAEPAVResource@2@ABV?$basic_string@DU?$char_traits@D@std@@V?$allocator@D@2@@std@@K0_NPAVManualResourceLoader@2@PBV?$map@V?$basic_string@DU?$char_traits@D@std@@V?$allocator@D@2@@std@@V12@U?$less@V?$basic_string@DU?$char_traits@D@std@@V?$allocator@D@2@@std@@@2@V?$allocator@U?$pair@$$CBV?$basic_string@DU?$char_traits@D@std@@V?$allocator@D@2@@std@@V12@@std@@@2@@5@@Z" PURGE="24" COMMENT="" />
    <EXPORT ORDINAL="2982" NAME="?createIndexBuffer@DefaultHardwareBufferManager@Ogre@@UAE?AVHardwareIndexBufferSharedPtr@2@W4IndexType@HardwareIndexBuffer@2@IW4Usage@HardwareBuffer@2@_N@Z" PURGE="20" COMMENT="" />
    <EXPORT ORDINAL="2983" NAME="?createInputReader@PlatformManager@Ogre@@QAEPAVInputReader@2@XZ" PURGE="0" COMMENT="" />
    <EXPORT ORDINAL="2984" NAME="?createInstance@BillboardParticleRendererFactory@Ogre@@UAEPAVParticleSystemRenderer@2@ABV?$basic_string@DU?$char_traits@D@std@@V?$allocator@D@2@@std@@@Z" PURGE="4" COMMENT="" />
    <EXPORT ORDINAL="2985" NAME="?createInstance@CompositionTechnique@Ogre@@UAEPAVCompositorInstance@2@PAVCompositorChain@2@@Z" PURGE="4" COMMENT="" />
    <EXPORT ORDINAL="2986" NAME="?createInstance@DefaultSceneManagerFactory@Ogre@@UAEPAVSceneManager@2@ABV?$basic_string@DU?$char_traits@D@std@@V?$allocator@D@2@@std@@@Z" PURGE="4" COMMENT="" />
    <EXPORT ORDINAL="2987" NAME="?createInstance@MovableObjectFactory@Ogre@@UAEPAVMovableObject@2@ABV?$basic_string@DU?$char_traits@D@std@@V?$allocator@D@2@@std@@PAVSceneManager@2@PBV?$map@V?$basic_string@DU?$char_traits@D@std@@V?$allocator@D@2@@std@@V12@U?$less@V?$basic_string@DU?$char_traits@D@std@@V?$allocator@D@2@@std@@@2@V?$allocator@U?$pair@$$CBV?$basic_string@DU?$char_traits@D@std@@V?$allocator@D@2@@std@@V12@@std@@@2@@5@@Z" PURGE="12" COMMENT="" />
    <EXPORT ORDINAL="2988" NAME="?createInstanceImpl@BillboardChainFactory@Ogre@@MAEPAVMovableObject@2@ABV?$basic_string@DU?$char_traits@D@std@@V?$allocator@D@2@@std@@PBV?$map@V?$basic_string@DU?$char_traits@D@std@@V?$allocator@D@2@@std@@V12@U?$less@V?$basic_string@DU?$char_traits@D@std@@V?$allocator@D@2@@std@@@2@V?$allocator@U?$pair@$$CBV?$basic_string@DU?$char_traits@D@std@@V?$allocator@D@2@@std@@V12@@std@@@2@@5@@Z" PURGE="8" COMMENT="" />
    <EXPORT ORDINAL="2989" NAME="?createInstanceImpl@BillboardSetFactory@Ogre@@MAEPAVMovableObject@2@ABV?$basic_string@DU?$char_traits@D@std@@V?$allocator@D@2@@std@@PBV?$map@V?$basic_string@DU?$char_traits@D@std@@V?$allocator@D@2@@std@@V12@U?$less@V?$basic_string@DU?$char_traits@D@std@@V?$allocator@D@2@@std@@@2@V?$allocator@U?$pair@$$CBV?$basic_string@DU?$char_traits@D@std@@V?$allocator@D@2@@std@@V12@@std@@@2@@5@@Z" PURGE="8" COMMENT="" />
    <EXPORT ORDINAL="2990" NAME="?createInstanceImpl@EntityFactory@Ogre@@MAEPAVMovableObject@2@ABV?$basic_string@DU?$char_traits@D@std@@V?$allocator@D@2@@std@@PBV?$map@V?$basic_string@DU?$char_traits@D@std@@V?$allocator@D@2@@std@@V12@U?$less@V?$basic_string@DU?$char_traits@D@std@@V?$allocator@D@2@@std@@@2@V?$allocator@U?$pair@$$CBV?$basic_string@DU?$char_traits@D@std@@V?$allocator@D@2@@std@@V12@@std@@@2@@5@@Z" PURGE="8" COMMENT="" />
    <EXPORT ORDINAL="2991" NAME="?createInstanceImpl@LightFactory@Ogre@@MAEPAVMovableObject@2@ABV?$basic_string@DU?$char_traits@D@std@@V?$allocator@D@2@@std@@PBV?$map@V?$basic_string@DU?$char_traits@D@std@@V?$allocator@D@2@@std@@V12@U?$less@V?$basic_string@DU?$char_traits@D@std@@V?$allocator@D@2@@std@@@2@V?$allocator@U?$pair@$$CBV?$basic_string@DU?$char_traits@D@std@@V?$allocator@D@2@@std@@V12@@std@@@2@@5@@Z" PURGE="8" COMMENT="" />
    <EXPORT ORDINAL="2992" NAME="?createInstanceImpl@ManualObjectFactory@Ogre@@MAEPAVMovableObject@2@ABV?$basic_string@DU?$char_traits@D@std@@V?$allocator@D@2@@std@@PBV?$map@V?$basic_string@DU?$char_traits@D@std@@V?$allocator@D@2@@std@@V12@U?$less@V?$basic_string@DU?$char_traits@D@std@@V?$allocator@D@2@@std@@@2@V?$allocator@U?$pair@$$CBV?$basic_string@DU?$char_traits@D@std@@V?$allocator@D@2@@std@@V12@@std@@@2@@5@@Z" PURGE="8" COMMENT="" />
    <EXPORT ORDINAL="2993" NAME="?createInstanceImpl@ParticleSystemFactory@Ogre@@MAEPAVMovableObject@2@ABV?$basic_string@DU?$char_traits@D@std@@V?$allocator@D@2@@std@@PBV?$map@V?$basic_string@DU?$char_traits@D@std@@V?$allocator@D@2@@std@@V12@U?$less@V?$basic_string@DU?$char_traits@D@std@@V?$allocator@D@2@@std@@@2@V?$allocator@U?$pair@$$CBV?$basic_string@DU?$char_traits@D@std@@V?$allocator@D@2@@std@@V12@@std@@@2@@5@@Z" PURGE="8" COMMENT="" />
    <EXPORT ORDINAL="2994" NAME="?createInstanceImpl@RibbonTrailFactory@Ogre@@MAEPAVMovableObject@2@ABV?$basic_string@DU?$char_traits@D@std@@V?$allocator@D@2@@std@@PBV?$map@V?$basic_string@DU?$char_traits@D@std@@V?$allocator@D@2@@std@@V12@U?$less@V?$basic_string@DU?$char_traits@D@std@@V?$allocator@D@2@@std@@@2@V?$allocator@U?$pair@$$CBV?$basic_string@DU?$char_traits@D@std@@V?$allocator@D@2@@std@@V12@@std@@@2@@5@@Z" PURGE="8" COMMENT="" />
    <EXPORT ORDINAL="2995" NAME="?createInternalResources@Texture@Ogre@@UAEXXZ" PURGE="0" COMMENT="" />
    <EXPORT ORDINAL="2996" NAME="?createIntersectionQuery@SceneManager@Ogre@@UAEPAVIntersectionSceneQuery@2@K@Z" PURGE="4" COMMENT="" />
    <EXPORT ORDINAL="2997" NAME="?createKeyEvent@InputReader@Ogre@@IAEXHH@Z" PURGE="8" COMMENT="" />
    <EXPORT ORDINAL="2998" NAME="?createKeyFrame@AnimationTrack@Ogre@@UAEPAVKeyFrame@2@M@Z" PURGE="4" COMMENT="" />
    <EXPORT ORDINAL="2999" NAME="?createKeyFrameImpl@NodeAnimationTrack@Ogre@@MAEPAVKeyFrame@2@M@Z" PURGE="4" COMMENT="" />
    <EXPORT ORDINAL="3000" NAME="?createKeyFrameImpl@NumericAnimationTrack@Ogre@@MAEPAVKeyFrame@2@M@Z" PURGE="4" COMMENT="" />
    <EXPORT ORDINAL="3001" NAME="?createKeyFrameImpl@VertexAnimationTrack@Ogre@@MAEPAVKeyFrame@2@M@Z" PURGE="4" COMMENT="" />
    <EXPORT ORDINAL="3002" NAME="?createLight@SceneManager@Ogre@@UAEPAVLight@2@ABV?$basic_string@DU?$char_traits@D@std@@V?$allocator@D@2@@std@@@Z" PURGE="4" COMMENT="" />
    <EXPORT ORDINAL="3003" NAME="?createLocalMaterial@CompositorInstance@Ogre@@AAE?AVMaterialPtr@2@XZ" PURGE="4" COMMENT="" />
    <EXPORT ORDINAL="3004" NAME="?createLog@LogManager@Ogre@@QAEPAVLog@2@ABV?$basic_string@DU?$char_traits@D@std@@V?$allocator@D@2@@std@@_N11@Z" PURGE="16" COMMENT="" />
    <EXPORT ORDINAL="3005" NAME="?createManual@MeshManager@Ogre@@QAE?AVMeshPtr@2@ABV?$basic_string@DU?$char_traits@D@std@@V?$allocator@D@2@@std@@0PAVManualResourceLoader@2@@Z" PURGE="16" COMMENT="" />
    <EXPORT ORDINAL="3006" NAME="?createManual@TextureManager@Ogre@@QAE?AVTexturePtr@2@ABV?$basic_string@DU?$char_traits@D@std@@V?$allocator@D@2@@std@@0W4TextureType@2@IIHW4PixelFormat@2@HPAVManualResourceLoader@2@@Z" PURGE="40" COMMENT="" />
    <EXPORT ORDINAL="3007" NAME="?createManual@TextureManager@Ogre@@UAE?AVTexturePtr@2@ABV?$basic_string@DU?$char_traits@D@std@@V?$allocator@D@2@@std@@0W4TextureType@2@IIIHW4PixelFormat@2@HPAVManualResourceLoader@2@@Z" PURGE="44" COMMENT="" />
    <EXPORT ORDINAL="3008" NAME="?createManualLodLevel@Mesh@Ogre@@QAEXMABV?$basic_string@DU?$char_traits@D@std@@V?$allocator@D@2@@std@@@Z" PURGE="8" COMMENT="" />
    <EXPORT ORDINAL="3009" NAME="?createManualObject@SceneManager@Ogre@@UAEPAVManualObject@2@ABV?$basic_string@DU?$char_traits@D@std@@V?$allocator@D@2@@std@@@Z" PURGE="4" COMMENT="" />
    <EXPORT ORDINAL="3010" NAME="?createMouseEvent@InputReader@Ogre@@IAEXHH@Z" PURGE="8" COMMENT="" />
    <EXPORT ORDINAL="3011" NAME="?createMovableObject@SceneManager@Ogre@@UAEPAVMovableObject@2@ABV?$basic_string@DU?$char_traits@D@std@@V?$allocator@D@2@@std@@0PBV?$map@V?$basic_string@DU?$char_traits@D@std@@V?$allocator@D@2@@std@@V12@U?$less@V?$basic_string@DU?$char_traits@D@std@@V?$allocator@D@2@@std@@@2@V?$allocator@U?$pair@$$CBV?$basic_string@DU?$char_traits@D@std@@V?$allocator@D@2@@std@@V12@@std@@@2@@5@@Z" PURGE="12" COMMENT="" />
    <EXPORT ORDINAL="3012" NAME="?createNodeKeyFrame@NodeAnimationTrack@Ogre@@UAEPAVTransformKeyFrame@2@M@Z" PURGE="-1" COMMENT="" />
    <EXPORT ORDINAL="3013" NAME="?createNodeTrack@Animation@Ogre@@QAEPAVNodeAnimationTrack@2@G@Z" PURGE="4" COMMENT="" />
    <EXPORT ORDINAL="3014" NAME="?createNodeTrack@Animation@Ogre@@QAEPAVNodeAnimationTrack@2@GPAVNode@2@@Z" PURGE="8" COMMENT="" />
    <EXPORT ORDINAL="3015" NAME="?createNumericKeyFrame@NumericAnimationTrack@Ogre@@UAEPAVNumericKeyFrame@2@M@Z" PURGE="-1" COMMENT="" />
    <EXPORT ORDINAL="3016" NAME="?createNumericTrack@Animation@Ogre@@QAEPAVNumericAnimationTrack@2@G@Z" PURGE="4" COMMENT="" />
    <EXPORT ORDINAL="3017" NAME="?createNumericTrack@Animation@Ogre@@QAEPAVNumericAnimationTrack@2@GABV?$SharedPtr@VAnimableValue@Ogre@@@2@@Z" PURGE="8" COMMENT="" />
    <EXPORT ORDINAL="3018" NAME="?createOverlayElement@BorderPanelOverlayElementFactory@Ogre@@UAEPAVOverlayElement@2@ABV?$basic_string@DU?$char_traits@D@std@@V?$allocator@D@2@@std@@@Z" PURGE="4" COMMENT="" />
    <EXPORT ORDINAL="3019" NAME="?createOverlayElement@OverlayManager@Ogre@@QAEPAVOverlayElement@2@ABV?$basic_string@DU?$char_traits@D@std@@V?$allocator@D@2@@std@@0_N@Z" PURGE="12" COMMENT="" />
    <EXPORT ORDINAL="3020" NAME="?createOverlayElement@PanelOverlayElementFactory@Ogre@@UAEPAVOverlayElement@2@ABV?$basic_string@DU?$char_traits@D@std@@V?$allocator@D@2@@std@@@Z" PURGE="4" COMMENT="" />
    <EXPORT ORDINAL="3021" NAME="?createOverlayElement@TextAreaOverlayElementFactory@Ogre@@UAEPAVOverlayElement@2@ABV?$basic_string@DU?$char_traits@D@std@@V?$allocator@D@2@@std@@@Z" PURGE="4" COMMENT="" />
    <EXPORT ORDINAL="3022" NAME="?createOverlayElementFromFactory@OverlayManager@Ogre@@QAEPAVOverlayElement@2@ABV?$basic_string@DU?$char_traits@D@std@@V?$allocator@D@2@@std@@0@Z" PURGE="8" COMMENT="" />
    <EXPORT ORDINAL="3023" NAME="?createOverlayElementFromTemplate@OverlayManager@Ogre@@QAEPAVOverlayElement@2@ABV?$basic_string@DU?$char_traits@D@std@@V?$allocator@D@2@@std@@00_N@Z" PURGE="16" COMMENT="" />
    <EXPORT ORDINAL="3024" NAME="?createOverlayElementImpl@OverlayManager@Ogre@@IAEPAVOverlayElement@2@ABV?$basic_string@DU?$char_traits@D@std@@V?$allocator@D@2@@std@@0AAV?$map@V?$basic_string@DU?$char_traits@D@std@@V?$allocator@D@2@@std@@PAVOverlayElement@Ogre@@U?$less@V?$basic_string@DU?$char_traits@D@std@@V?$allocator@D@2@@std@@@2@V?$allocator@U?$pair@$$CBV?$basic_string@DU?$char_traits@D@std@@V?$allocator@D@2@@std@@PAVOverlayElement@Ogre@@@std@@@2@@5@@Z" PURGE="12" COMMENT="" />
    <EXPORT ORDINAL="3025" NAME="?createPanel@Profiler@Ogre@@IAEPAVOverlayElement@2@ABV?$basic_string@DU?$char_traits@D@std@@V?$allocator@D@2@@std@@MMMM0_N@Z" PURGE="28" COMMENT="" />
    <EXPORT ORDINAL="3026" NAME="?createParamDictionary@StringInterface@Ogre@@IAE_NABV?$basic_string@DU?$char_traits@D@std@@V?$allocator@D@2@@std@@@Z" PURGE="4" COMMENT="" />
    <EXPORT ORDINAL="3027" NAME="?createParamDictionary@StringInterface@Ogre@@IAE_NPBD@Z" PURGE="4" COMMENT="" />
    <EXPORT ORDINAL="3028" NAME="?createParameters@GpuProgram@Ogre@@UAE?AV?$SharedPtr@VGpuProgramParameters@Ogre@@@2@XZ" PURGE="4" COMMENT="" />
    <EXPORT ORDINAL="3029" NAME="?createParameters@HighLevelGpuProgram@Ogre@@UAE?AV?$SharedPtr@VGpuProgramParameters@Ogre@@@2@XZ" PURGE="4" COMMENT="" />
    <EXPORT ORDINAL="3030" NAME="?createParticle@ParticleSystem@Ogre@@QAEPAVParticle@2@XZ" PURGE="0" COMMENT="" />
    <EXPORT ORDINAL="3031" NAME="?createParticleSystem@SceneManager@Ogre@@UAEPAVParticleSystem@2@ABV?$basic_string@DU?$char_traits@D@std@@V?$allocator@D@2@@std@@0@Z" PURGE="8" COMMENT="" />
    <EXPORT ORDINAL="3032" NAME="?createParticleSystem@SceneManager@Ogre@@UAEPAVParticleSystem@2@ABV?$basic_string@DU?$char_traits@D@std@@V?$allocator@D@2@@std@@I0@Z" PURGE="12" COMMENT="" />
    <EXPORT ORDINAL="3033" NAME="?createPass@CompositionTargetPass@Ogre@@QAEPAVCompositionPass@2@XZ" PURGE="0" COMMENT="" />
    <EXPORT ORDINAL="3034" NAME="?createPass@Technique@Ogre@@QAEPAVPass@2@XZ" PURGE="0" COMMENT="" />
    <EXPORT ORDINAL="3035" NAME="?createPlane@MeshManager@Ogre@@QAE?AVMeshPtr@2@ABV?$basic_string@DU?$char_traits@D@std@@V?$allocator@D@2@@std@@0ABVPlane@2@MMHH_NHMMABVVector3@2@W4Usage@HardwareBuffer@2@422@Z" PURGE="68" COMMENT="" />
    <EXPORT ORDINAL="3036" NAME="?createPlaneBoundedVolumeQuery@SceneManager@Ogre@@UAEPAVPlaneBoundedVolumeListSceneQuery@2@ABV?$vector@VPlaneBoundedVolume@Ogre@@V?$allocator@VPlaneBoundedVolume@Ogre@@@std@@@std@@K@Z" PURGE="8" COMMENT="" />
    <EXPORT ORDINAL="3037" NAME="?createPose@Mesh@Ogre@@QAEPAVPose@2@GABV?$basic_string@DU?$char_traits@D@std@@V?$allocator@D@2@@std@@@Z" PURGE="8" COMMENT="" />
    <EXPORT ORDINAL="3038" NAME="?createPrefabPlane@MeshManager@Ogre@@IAEXXZ" PURGE="0" COMMENT="" />
    <EXPORT ORDINAL="3039" NAME="?createProgram@GpuProgramManager@Ogre@@UAE?AVGpuProgramPtr@2@ABV?$basic_string@DU?$char_traits@D@std@@V?$allocator@D@2@@std@@00W4GpuProgramType@2@0@Z" PURGE="24" COMMENT="" />
    <EXPORT ORDINAL="3040" NAME="?createProgram@HighLevelGpuProgramManager@Ogre@@UAE?AVHighLevelGpuProgramPtr@2@ABV?$basic_string@DU?$char_traits@D@std@@V?$allocator@D@2@@std@@00W4GpuProgramType@2@@Z" PURGE="20" COMMENT="" />
    <EXPORT ORDINAL="3041" NAME="?createProgramFromString@GpuProgramManager@Ogre@@UAE?AVGpuProgramPtr@2@ABV?$basic_string@DU?$char_traits@D@std@@V?$allocator@D@2@@std@@00W4GpuProgramType@2@0@Z" PURGE="24" COMMENT="" />
    <EXPORT ORDINAL="3042" NAME="?createRayQuery@SceneManager@Ogre@@UAEPAVRaySceneQuery@2@ABVRay@2@K@Z" PURGE="8" COMMENT="" />
    <EXPORT ORDINAL="3043" NAME="?createRenderQueueInvocationSequence@Root@Ogre@@QAEPAVRenderQueueInvocationSequence@2@ABV?$basic_string@DU?$char_traits@D@std@@V?$allocator@D@2@@std@@@Z" PURGE="4" COMMENT="" />
    <EXPORT ORDINAL="3044" NAME="?createRenderTexture@RenderSystem@Ogre@@QAEPAVRenderTexture@2@ABV?$basic_string@DU?$char_traits@D@std@@V?$allocator@D@2@@std@@IIW4TextureType@2@W4PixelFormat@2@PBV?$map@V?$basic_string@DU?$char_traits@D@std@@V?$allocator@D@2@@std@@V12@U?$less@V?$basic_string@DU?$char_traits@D@std@@V?$allocator@D@2@@std@@@2@V?$allocator@U?$pair@$$CBV?$basic_string@DU?$char_traits@D@std@@V?$allocator@D@2@@std@@V12@@std@@@2@@5@@Z" PURGE="24" COMMENT="" />
    <EXPORT ORDINAL="3045" NAME="?createRenderWindow@Root@Ogre@@QAEPAVRenderWindow@2@ABV?$basic_string@DU?$char_traits@D@std@@V?$allocator@D@2@@std@@II_NPBV?$map@V?$basic_string@DU?$char_traits@D@std@@V?$allocator@D@2@@std@@V12@U?$less@V?$basic_string@DU?$char_traits@D@std@@V?$allocator@D@2@@std@@@2@V?$allocator@U?$pair@$$CBV?$basic_string@DU?$char_traits@D@std@@V?$allocator@D@2@@std@@V12@@std@@@2@@5@@Z" PURGE="20" COMMENT="" />
    <EXPORT ORDINAL="3046" NAME="?createResourceGroup@ResourceGroupManager@Ogre@@QAEXABV?$basic_string@DU?$char_traits@D@std@@V?$allocator@D@2@@std@@@Z" PURGE="4" COMMENT="" />
    <EXPORT ORDINAL="3047" NAME="?createResources@CompositorInstance@Ogre@@AAEXXZ" PURGE="0" COMMENT="" />
    <EXPORT ORDINAL="3048" NAME="?createRibbonTrail@SceneManager@Ogre@@UAEPAVRibbonTrail@2@ABV?$basic_string@DU?$char_traits@D@std@@V?$allocator@D@2@@std@@@Z" PURGE="4" COMMENT="" />
    <EXPORT ORDINAL="3049" NAME="?createSceneManager@Root@Ogre@@QAEPAVSceneManager@2@ABV?$basic_string@DU?$char_traits@D@std@@V?$allocator@D@2@@std@@0@Z" PURGE="8" COMMENT="" />
    <EXPORT ORDINAL="3050" NAME="?createSceneManager@Root@Ogre@@QAEPAVSceneManager@2@GABV?$basic_string@DU?$char_traits@D@std@@V?$allocator@D@2@@std@@@Z" PURGE="8" COMMENT="" />
    <EXPORT ORDINAL="3051" NAME="?createSceneManager@SceneManagerEnumerator@Ogre@@QAEPAVSceneManager@2@ABV?$basic_string@DU?$char_traits@D@std@@V?$allocator@D@2@@std@@0@Z" PURGE="8" COMMENT="" />
    <EXPORT ORDINAL="3052" NAME="?createSceneManager@SceneManagerEnumerator@Ogre@@QAEPAVSceneManager@2@GABV?$basic_string@DU?$char_traits@D@std@@V?$allocator@D@2@@std@@@Z" PURGE="8" COMMENT="" />
    <EXPORT ORDINAL="3053" NAME="?createSceneNode@SceneManager@Ogre@@UAEPAVSceneNode@2@ABV?$basic_string@DU?$char_traits@D@std@@V?$allocator@D@2@@std@@@Z" PURGE="4" COMMENT="" />
    <EXPORT ORDINAL="3054" NAME="?createSceneNode@SceneManager@Ogre@@UAEPAVSceneNode@2@XZ" PURGE="0" COMMENT="" />
    <EXPORT ORDINAL="3055" NAME="?createShadowTextures@SceneManager@Ogre@@MAEXGGW4PixelFormat@2@@Z" PURGE="12" COMMENT="" />
    <EXPORT ORDINAL="3056" NAME="?createSkyboxPlane@SceneManager@Ogre@@IAE?AVMeshPtr@2@W4BoxPlane@12@MABVQuaternion@2@ABV?$basic_string@DU?$char_traits@D@std@@V?$allocator@D@2@@std@@@Z" PURGE="20" COMMENT="" />
    <EXPORT ORDINAL="3057" NAME="?createSkydomePlane@SceneManager@Ogre@@IAE?AVMeshPtr@2@W4BoxPlane@12@MMMABVQuaternion@2@HHHABV?$basic_string@DU?$char_traits@D@std@@V?$allocator@D@2@@std@@@Z" PURGE="40" COMMENT="" />
    <EXPORT ORDINAL="3058" NAME="?createSphereQuery@SceneManager@Ogre@@UAEPAVSphereSceneQuery@2@ABVSphere@2@K@Z" PURGE="8" COMMENT="" />
    <EXPORT ORDINAL="3059" NAME="?createStaticGeometry@SceneManager@Ogre@@UAEPAVStaticGeometry@2@ABV?$basic_string@DU?$char_traits@D@std@@V?$allocator@D@2@@std@@@Z" PURGE="4" COMMENT="" />
    <EXPORT ORDINAL="3060" NAME="?createSubMesh@Mesh@Ogre@@QAEPAVSubMesh@2@ABV?$basic_string@DU?$char_traits@D@std@@V?$allocator@D@2@@std@@@Z" PURGE="4" COMMENT="" />
    <EXPORT ORDINAL="3061" NAME="?createSubMesh@Mesh@Ogre@@QAEPAVSubMesh@2@XZ" PURGE="0" COMMENT="" />
    <EXPORT ORDINAL="3062" NAME="?createSystemImpl@ParticleSystemManager@Ogre@@IAEPAVParticleSystem@2@ABV?$basic_string@DU?$char_traits@D@std@@V?$allocator@D@2@@std@@0@Z" PURGE="8" COMMENT="" />
    <EXPORT ORDINAL="3063" NAME="?createSystemImpl@ParticleSystemManager@Ogre@@IAEPAVParticleSystem@2@ABV?$basic_string@DU?$char_traits@D@std@@V?$allocator@D@2@@std@@I0@Z" PURGE="12" COMMENT="" />
    <EXPORT ORDINAL="3064" NAME="?createTagPointOnBone@SkeletonInstance@Ogre@@QAEPAVTagPoint@2@PAVBone@2@ABVQuaternion@2@ABVVector3@2@@Z" PURGE="12" COMMENT="" />
    <EXPORT ORDINAL="3065" NAME="?createTargetPass@CompositionTechnique@Ogre@@QAEPAVCompositionTargetPass@2@XZ" PURGE="0" COMMENT="" />
    <EXPORT ORDINAL="3066" NAME="?createTechnique@Compositor@Ogre@@QAEPAVCompositionTechnique@2@XZ" PURGE="0" COMMENT="" />
    <EXPORT ORDINAL="3067" NAME="?createTechnique@Material@Ogre@@QAEPAVTechnique@2@XZ" PURGE="0" COMMENT="" />
    <EXPORT ORDINAL="3068" NAME="?createTemplate@ParticleSystemManager@Ogre@@QAEPAVParticleSystem@2@ABV?$basic_string@DU?$char_traits@D@std@@V?$allocator@D@2@@std@@0@Z" PURGE="8" COMMENT="" />
    <EXPORT ORDINAL="3069" NAME="?createTextArea@Profiler@Ogre@@IAEPAVOverlayElement@2@ABV?$basic_string@DU?$char_traits@D@std@@V?$allocator@D@2@@std@@MMMMI0_N@Z" PURGE="32" COMMENT="" />
    <EXPORT ORDINAL="3070" NAME="?createTextureAnimator@ControllerManager@Ogre@@QAEPAV?$Controller@M@2@PAVTextureUnitState@2@M@Z" PURGE="8" COMMENT="" />
    <EXPORT ORDINAL="3071" NAME="?createTextureDefinition@CompositionTechnique@Ogre@@QAEPAVTextureDefinition@12@ABV?$basic_string@DU?$char_traits@D@std@@V?$allocator@D@2@@std@@@Z" PURGE="4" COMMENT="" />
    <EXPORT ORDINAL="3072" NAME="?createTextureFromFont@Font@Ogre@@IAEXXZ" PURGE="0" COMMENT="" />
    <EXPORT ORDINAL="3073" NAME="?createTextureRotater@ControllerManager@Ogre@@QAEPAV?$Controller@M@2@PAVTextureUnitState@2@M@Z" PURGE="8" COMMENT="" />
    <EXPORT ORDINAL="3074" NAME="?createTextureUScroller@ControllerManager@Ogre@@QAEPAV?$Controller@M@2@PAVTextureUnitState@2@M@Z" PURGE="8" COMMENT="" />
    <EXPORT ORDINAL="3075" NAME="?createTextureUVScroller@ControllerManager@Ogre@@QAEPAV?$Controller@M@2@PAVTextureUnitState@2@M@Z" PURGE="8" COMMENT="" />
    <EXPORT ORDINAL="3076" NAME="?createTextureUnitState@Pass@Ogre@@QAEPAVTextureUnitState@2@ABV?$basic_string@DU?$char_traits@D@std@@V?$allocator@D@2@@std@@G@Z" PURGE="8" COMMENT="" />
    <EXPORT ORDINAL="3077" NAME="?createTextureUnitState@Pass@Ogre@@QAEPAVTextureUnitState@2@XZ" PURGE="0" COMMENT="" />
    <EXPORT ORDINAL="3078" NAME="?createTextureVScroller@ControllerManager@Ogre@@QAEPAV?$Controller@M@2@PAVTextureUnitState@2@M@Z" PURGE="8" COMMENT="" />
    <EXPORT ORDINAL="3079" NAME="?createTextureWaveTransformer@ControllerManager@Ogre@@QAEPAV?$Controller@M@2@PAVTextureUnitState@2@W4TextureTransformType@42@W4WaveformType@2@MMMM@Z" PURGE="28" COMMENT="" />
    <EXPORT ORDINAL="3080" NAME="?createTimer@PlatformManager@Ogre@@QAEPAVTimer@2@XZ" PURGE="0" COMMENT="" />
    <EXPORT ORDINAL="3081" NAME="?createVertexBuffer@DefaultHardwareBufferManager@Ogre@@UAE?AVHardwareVertexBufferSharedPtr@2@IIW4Usage@HardwareBuffer@2@_N@Z" PURGE="20" COMMENT="" />
    <EXPORT ORDINAL="3082" NAME="?createVertexBufferBinding@HardwareBufferManager@Ogre@@UAEPAVVertexBufferBinding@2@XZ" PURGE="0" COMMENT="" />
    <EXPORT ORDINAL="3083" NAME="?createVertexBufferBindingImpl@HardwareBufferManager@Ogre@@MAEPAVVertexBufferBinding@2@XZ" PURGE="0" COMMENT="" />
    <EXPORT ORDINAL="3084" NAME="?createVertexDeclaration@HardwareBufferManager@Ogre@@UAEPAVVertexDeclaration@2@XZ" PURGE="0" COMMENT="" />
    <EXPORT ORDINAL="3085" NAME="?createVertexDeclarationImpl@HardwareBufferManager@Ogre@@MAEPAVVertexDeclaration@2@XZ" PURGE="0" COMMENT="" />
    <EXPORT ORDINAL="3086" NAME="?createVertexMorphKeyFrame@VertexAnimationTrack@Ogre@@UAEPAVVertexMorphKeyFrame@2@M@Z" PURGE="-1" COMMENT="" />
    <EXPORT ORDINAL="3087" NAME="?createVertexPoseKeyFrame@VertexAnimationTrack@Ogre@@UAEPAVVertexPoseKeyFrame@2@M@Z" PURGE="-1" COMMENT="" />
    <EXPORT ORDINAL="3088" NAME="?createVertexTrack@Animation@Ogre@@QAEPAVVertexAnimationTrack@2@GPAVVertexData@2@W4VertexAnimationType@2@@Z" PURGE="12" COMMENT="" />
    <EXPORT ORDINAL="3089" NAME="?createVertexTrack@Animation@Ogre@@QAEPAVVertexAnimationTrack@2@GW4VertexAnimationType@2@@Z" PURGE="8" COMMENT="" />
    <EXPORT ORDINAL="3090" NAME="?createVisualParticles@ParticleSystem@Ogre@@IAEXII@Z" PURGE="8" COMMENT="" />
    <EXPORT ORDINAL="3091" NAME="?crossProduct@Vector2@Ogre@@QBEMABV12@@Z" PURGE="4" COMMENT="" />
    <EXPORT ORDINAL="3092" NAME="?crossProduct@Vector3@Ogre@@QBE?AV12@ABV12@@Z" PURGE="8" COMMENT="" />
    <EXPORT ORDINAL="3093" NAME="?deallocate@AlignedMemory@Ogre@@SAXPAX@Z" PURGE="0" COMMENT="" />
    <EXPORT ORDINAL="3094" NAME="?declareResource@ResourceGroupManager@Ogre@@QAEXABV?$basic_string@DU?$char_traits@D@std@@V?$allocator@D@2@@std@@00ABV?$map@V?$basic_string@DU?$char_traits@D@std@@V?$allocator@D@2@@std@@V12@U?$less@V?$basic_string@DU?$char_traits@D@std@@V?$allocator@D@2@@std@@@2@V?$allocator@U?$pair@$$CBV?$basic_string@DU?$char_traits@D@std@@V?$allocator@D@2@@std@@V12@@std@@@2@@4@@Z" PURGE="16" COMMENT="" />
    <EXPORT ORDINAL="3095" NAME="?declareResource@ResourceGroupManager@Ogre@@QAEXABV?$basic_string@DU?$char_traits@D@std@@V?$allocator@D@2@@std@@00PAVManualResourceLoader@2@ABV?$map@V?$basic_string@DU?$char_traits@D@std@@V?$allocator@D@2@@std@@V12@U?$less@V?$basic_string@DU?$char_traits@D@std@@V?$allocator@D@2@@std@@@2@V?$allocator@U?$pair@$$CBV?$basic_string@DU?$char_traits@D@std@@V?$allocator@D@2@@std@@V12@@std@@@2@@4@@Z" PURGE="20" COMMENT="" />
    <EXPORT ORDINAL="3096" NAME="?decode@ILImageCodec@Ogre@@UBE?AU?$pair@V?$SharedPtr@VMemoryDataStream@Ogre@@@Ogre@@V?$SharedPtr@VCodecData@Codec@Ogre@@@2@@std@@AAV?$SharedPtr@VDataStream@Ogre@@@2@@Z" PURGE="8" COMMENT="" />
    <EXPORT ORDINAL="3097" NAME="?defaultOrganisationMode@RenderPriorityGroup@Ogre@@QAEXXZ" PURGE="0" COMMENT="" />
    <EXPORT ORDINAL="3098" NAME="?defaultOrganisationMode@RenderQueueGroup@Ogre@@QAEXXZ" PURGE="0" COMMENT="" />
    <EXPORT ORDINAL="3099" NAME="?define@ConvexBody@Ogre@@QAEXABVAxisAlignedBox@2@@Z" PURGE="4" COMMENT="" />
    <EXPORT ORDINAL="3100" NAME="?define@ConvexBody@Ogre@@QAEXABVFrustum@2@@Z" PURGE="4" COMMENT="" />
    <EXPORT ORDINAL="3101" NAME="?define@PatchMesh@Ogre@@QAEXPAXPAVVertexDeclaration@2@IIIIW4VisibleSide@PatchSurface@2@W4Usage@HardwareBuffer@2@3_N4@Z" PURGE="44" COMMENT="" />
    <EXPORT ORDINAL="3102" NAME="?defineSurface@PatchSurface@Ogre@@QAEXPAXPAVVertexDeclaration@2@IIW4PatchSurfaceType@12@IIW4VisibleSide@12@@Z" PURGE="32" COMMENT="" />
    <EXPORT ORDINAL="3103" NAME="?deleteFrameTextureName@TextureUnitState@Ogre@@QAEXI@Z" PURGE="4" COMMENT="" />
    <EXPORT ORDINAL="3104" NAME="?deleteGroup@ResourceGroupManager@Ogre@@IAEXPAUResourceGroup@12@@Z" PURGE="4" COMMENT="" />
    <EXPORT ORDINAL="3105" NAME="?deletePolygon@ConvexBody@Ogre@@IAEXI@Z" PURGE="4" COMMENT="" />
    <EXPORT ORDINAL="3106" NAME="?deleteVertex@ConvexBody@Ogre@@IAEXII@Z" PURGE="8" COMMENT="" />
    <EXPORT ORDINAL="3107" NAME="?deleteVertex@Polygon@Ogre@@QAEXI@Z" PURGE="4" COMMENT="" />
    <EXPORT ORDINAL="3108" NAME="?deriveRootBone@Skeleton@Ogre@@IBEXXZ" PURGE="0" COMMENT="" />
    <EXPORT ORDINAL="3109" NAME="?deriveShadowCasterPass@SceneManager@Ogre@@IAEPBVPass@2@PBV32@@Z" PURGE="4" COMMENT="" />
    <EXPORT ORDINAL="3110" NAME="?deriveShadowReceiverPass@SceneManager@Ogre@@IAEPBVPass@2@PBV32@@Z" PURGE="4" COMMENT="" />
    <EXPORT ORDINAL="3111" NAME="?destroy@?$SharedPtr@VCompositor@Ogre@@@Ogre@@MAEXXZ" PURGE="0" COMMENT="" />
    <EXPORT ORDINAL="3112" NAME="?destroy@?$SharedPtr@VFont@Ogre@@@Ogre@@MAEXXZ" PURGE="0" COMMENT="" />
    <EXPORT ORDINAL="3113" NAME="?destroy@?$SharedPtr@VGpuProgram@Ogre@@@Ogre@@MAEXXZ" PURGE="0" COMMENT="" />
    <EXPORT ORDINAL="3114" NAME="?destroy@?$SharedPtr@VHardwareIndexBuffer@Ogre@@@Ogre@@MAEXXZ" PURGE="0" COMMENT="" />
    <EXPORT ORDINAL="3115" NAME="?destroy@?$SharedPtr@VHardwarePixelBuffer@Ogre@@@Ogre@@MAEXXZ" PURGE="0" COMMENT="" />
    <EXPORT ORDINAL="3116" NAME="?destroy@?$SharedPtr@VHardwareVertexBuffer@Ogre@@@Ogre@@MAEXXZ" PURGE="0" COMMENT="" />
    <EXPORT ORDINAL="3117" NAME="?destroy@?$SharedPtr@VHighLevelGpuProgram@Ogre@@@Ogre@@MAEXXZ" PURGE="0" COMMENT="" />
    <EXPORT ORDINAL="3118" NAME="?destroy@?$SharedPtr@VMaterial@Ogre@@@Ogre@@MAEXXZ" PURGE="0" COMMENT="" />
    <EXPORT ORDINAL="3119" NAME="?destroy@?$SharedPtr@VMesh@Ogre@@@Ogre@@MAEXXZ" PURGE="0" COMMENT="" />
    <EXPORT ORDINAL="3120" NAME="?destroy@?$SharedPtr@VPatchMesh@Ogre@@@Ogre@@MAEXXZ" PURGE="0" COMMENT="" />
    <EXPORT ORDINAL="3121" NAME="?destroy@?$SharedPtr@VSkeleton@Ogre@@@Ogre@@MAEXXZ" PURGE="0" COMMENT="" />
    <EXPORT ORDINAL="3122" NAME="?destroy@?$SharedPtr@VTexture@Ogre@@@Ogre@@MAEXXZ" PURGE="0" COMMENT="" />
    <EXPORT ORDINAL="3123" NAME="?destroy@MeshPtr@Ogre@@MAEXXZ" PURGE="0" COMMENT="" />
    <EXPORT ORDINAL="3124" NAME="?destroy@MovableObject@Ogre@@UAEXXZ" PURGE="0" COMMENT="" />
    <EXPORT ORDINAL="3125" NAME="?destroy@OverlayManager@Ogre@@QAEXABV?$basic_string@DU?$char_traits@D@std@@V?$allocator@D@2@@std@@@Z" PURGE="4" COMMENT="" />
    <EXPORT ORDINAL="3126" NAME="?destroy@OverlayManager@Ogre@@QAEXPAVOverlay@2@@Z" PURGE="4" COMMENT="" />
    <EXPORT ORDINAL="3127" NAME="?destroy@SceneNode@Ogre@@UAEXXZ" PURGE="0" COMMENT="" />
    <EXPORT ORDINAL="3128" NAME="?destroy@StaticGeometry@Ogre@@UAEXXZ" PURGE="0" COMMENT="" />
    <EXPORT ORDINAL="3129" NAME="?destroyAdvancedTexture@ExternalTextureSourceManager@Ogre@@QAEXABV?$basic_string@DU?$char_traits@D@std@@V?$allocator@D@2@@std@@0@Z" PURGE="8" COMMENT="" />
    <EXPORT ORDINAL="3130" NAME="?destroyAffector@ParticleAffectorFactory@Ogre@@UAEXPAVParticleAffector@2@@Z" PURGE="4" COMMENT="" />
    <EXPORT ORDINAL="3131" NAME="?destroyAll@OverlayManager@Ogre@@QAEXXZ" PURGE="0" COMMENT="" />
    <EXPORT ORDINAL="3132" NAME="?destroyAllAnimationStates@SceneManager@Ogre@@UAEXXZ" PURGE="0" COMMENT="" />
    <EXPORT ORDINAL="3133" NAME="?destroyAllAnimations@SceneManager@Ogre@@UAEXXZ" PURGE="0" COMMENT="" />
    <EXPORT ORDINAL="3134" NAME="?destroyAllBillboardChains@SceneManager@Ogre@@UAEXXZ" PURGE="0" COMMENT="" />
    <EXPORT ORDINAL="3135" NAME="?destroyAllBillboardSets@SceneManager@Ogre@@UAEXXZ" PURGE="0" COMMENT="" />
    <EXPORT ORDINAL="3136" NAME="?destroyAllBindings@HardwareBufferManager@Ogre@@MAEXXZ" PURGE="0" COMMENT="" />
    <EXPORT ORDINAL="3137" NAME="?destroyAllCameras@SceneManager@Ogre@@UAEXXZ" PURGE="0" COMMENT="" />
    <EXPORT ORDINAL="3138" NAME="?destroyAllDeclarations@HardwareBufferManager@Ogre@@MAEXXZ" PURGE="0" COMMENT="" />
    <EXPORT ORDINAL="3139" NAME="?destroyAllEntities@SceneManager@Ogre@@UAEXXZ" PURGE="0" COMMENT="" />
    <EXPORT ORDINAL="3140" NAME="?destroyAllLights@SceneManager@Ogre@@UAEXXZ" PURGE="0" COMMENT="" />
    <EXPORT ORDINAL="3141" NAME="?destroyAllManualObjects@SceneManager@Ogre@@UAEXXZ" PURGE="0" COMMENT="" />
    <EXPORT ORDINAL="3142" NAME="?destroyAllMovableObjects@SceneManager@Ogre@@UAEXXZ" PURGE="0" COMMENT="" />
    <EXPORT ORDINAL="3143" NAME="?destroyAllMovableObjectsByType@SceneManager@Ogre@@UAEXABV?$basic_string@DU?$char_traits@D@std@@V?$allocator@D@2@@std@@@Z" PURGE="4" COMMENT="" />
    <EXPORT ORDINAL="3144" NAME="?destroyAllNodeTracks@Animation@Ogre@@QAEXXZ" PURGE="0" COMMENT="" />
    <EXPORT ORDINAL="3145" NAME="?destroyAllNumericTracks@Animation@Ogre@@QAEXXZ" PURGE="0" COMMENT="" />
    <EXPORT ORDINAL="3146" NAME="?destroyAllOverlayElements@OverlayManager@Ogre@@QAEX_N@Z" PURGE="4" COMMENT="" />
    <EXPORT ORDINAL="3147" NAME="?destroyAllOverlayElementsImpl@OverlayManager@Ogre@@IAEXAAV?$map@V?$basic_string@DU?$char_traits@D@std@@V?$allocator@D@2@@std@@PAVOverlayElement@Ogre@@U?$less@V?$basic_string@DU?$char_traits@D@std@@V?$allocator@D@2@@std@@@2@V?$allocator@U?$pair@$$CBV?$basic_string@DU?$char_traits@D@std@@V?$allocator@D@2@@std@@PAVOverlayElement@Ogre@@@std@@@2@@std@@@Z" PURGE="4" COMMENT="" />
    <EXPORT ORDINAL="3148" NAME="?destroyAllParticleSystems@SceneManager@Ogre@@UAEXXZ" PURGE="0" COMMENT="" />
    <EXPORT ORDINAL="3149" NAME="?destroyAllRenderQueueInvocationSequences@Root@Ogre@@QAEXXZ" PURGE="0" COMMENT="" />
    <EXPORT ORDINAL="3150" NAME="?destroyAllRibbonTrails@SceneManager@Ogre@@UAEXXZ" PURGE="0" COMMENT="" />
    <EXPORT ORDINAL="3151" NAME="?destroyAllStaticGeometry@SceneManager@Ogre@@UAEXXZ" PURGE="0" COMMENT="" />
    <EXPORT ORDINAL="3152" NAME="?destroyAllTracks@Animation@Ogre@@QAEXXZ" PURGE="0" COMMENT="" />
    <EXPORT ORDINAL="3153" NAME="?destroyAllVertexTracks@Animation@Ogre@@QAEXXZ" PURGE="0" COMMENT="" />
    <EXPORT ORDINAL="3154" NAME="?destroyAnimation@SceneManager@Ogre@@UAEXABV?$basic_string@DU?$char_traits@D@std@@V?$allocator@D@2@@std@@@Z" PURGE="4" COMMENT="" />
    <EXPORT ORDINAL="3155" NAME="?destroyAnimationState@SceneManager@Ogre@@UAEXABV?$basic_string@DU?$char_traits@D@std@@V?$allocator@D@2@@std@@@Z" PURGE="4" COMMENT="" />
    <EXPORT ORDINAL="3156" NAME="?destroyBillboardChain@SceneManager@Ogre@@UAEXABV?$basic_string@DU?$char_traits@D@std@@V?$allocator@D@2@@std@@@Z" PURGE="4" COMMENT="" />
    <EXPORT ORDINAL="3157" NAME="?destroyBillboardChain@SceneManager@Ogre@@UAEXPAVBillboardChain@2@@Z" PURGE="-1" COMMENT="" />
    <EXPORT ORDINAL="3158" NAME="?destroyBillboardSet@SceneManager@Ogre@@UAEXABV?$basic_string@DU?$char_traits@D@std@@V?$allocator@D@2@@std@@@Z" PURGE="4" COMMENT="" />
    <EXPORT ORDINAL="3159" NAME="?destroyBillboardSet@SceneManager@Ogre@@UAEXPAVBillboardSet@2@@Z" PURGE="-1" COMMENT="" />
    <EXPORT ORDINAL="3160" NAME="?destroyCamera@SceneManager@Ogre@@UAEXABV?$basic_string@DU?$char_traits@D@std@@V?$allocator@D@2@@std@@@Z" PURGE="4" COMMENT="" />
    <EXPORT ORDINAL="3161" NAME="?destroyCamera@SceneManager@Ogre@@UAEXPAVCamera@2@@Z" PURGE="4" COMMENT="" />
    <EXPORT ORDINAL="3162" NAME="?destroyConfigDialog@PlatformManager@Ogre@@QAEXPAVConfigDialog@2@@Z" PURGE="4" COMMENT="" />
    <EXPORT ORDINAL="3163" NAME="?destroyController@ControllerManager@Ogre@@QAEXPAV?$Controller@M@2@@Z" PURGE="4" COMMENT="" />
    <EXPORT ORDINAL="3164" NAME="?destroyEmitter@ParticleEmitterFactory@Ogre@@UAEXPAVParticleEmitter@2@@Z" PURGE="4" COMMENT="" />
    <EXPORT ORDINAL="3165" NAME="?destroyEntity@SceneManager@Ogre@@UAEXABV?$basic_string@DU?$char_traits@D@std@@V?$allocator@D@2@@std@@@Z" PURGE="4" COMMENT="" />
    <EXPORT ORDINAL="3166" NAME="?destroyEntity@SceneManager@Ogre@@UAEXPAVEntity@2@@Z" PURGE="-1" COMMENT="" />
    <EXPORT ORDINAL="3167" NAME="?destroyErrorDialog@PlatformManager@Ogre@@QAEXPAVErrorDialog@2@@Z" PURGE="4" COMMENT="" />
    <EXPORT ORDINAL="3168" NAME="?destroyHardwareOcclusionQuery@RenderSystem@Ogre@@UAEXPAVHardwareOcclusionQuery@2@@Z" PURGE="4" COMMENT="" />
    <EXPORT ORDINAL="3169" NAME="?destroyInputReader@PlatformManager@Ogre@@QAEXPAVInputReader@2@@Z" PURGE="4" COMMENT="" />
    <EXPORT ORDINAL="3170" NAME="?destroyInstance@BillboardChainFactory@Ogre@@UAEXPAVMovableObject@2@@Z" PURGE="4" COMMENT="" />
    <EXPORT ORDINAL="3171" NAME="?destroyInstance@BillboardParticleRendererFactory@Ogre@@UAEXPAVParticleSystemRenderer@2@@Z" PURGE="4" COMMENT="" />
    <EXPORT ORDINAL="3172" NAME="?destroyInstance@BillboardSetFactory@Ogre@@UAEXPAVMovableObject@2@@Z" PURGE="4" COMMENT="" />
    <EXPORT ORDINAL="3173" NAME="?destroyInstance@CompositionTechnique@Ogre@@UAEXPAVCompositorInstance@2@@Z" PURGE="4" COMMENT="" />
    <EXPORT ORDINAL="3174" NAME="?destroyInstance@DefaultSceneManagerFactory@Ogre@@UAEXPAVSceneManager@2@@Z" PURGE="4" COMMENT="" />
    <EXPORT ORDINAL="3175" NAME="?destroyInstance@EntityFactory@Ogre@@UAEXPAVMovableObject@2@@Z" PURGE="4" COMMENT="" />
    <EXPORT ORDINAL="3176" NAME="?destroyInstance@LightFactory@Ogre@@UAEXPAVMovableObject@2@@Z" PURGE="4" COMMENT="" />
    <EXPORT ORDINAL="3177" NAME="?destroyInstance@ManualObjectFactory@Ogre@@UAEXPAVMovableObject@2@@Z" PURGE="4" COMMENT="" />
    <EXPORT ORDINAL="3178" NAME="?destroyInstance@ParticleSystemFactory@Ogre@@UAEXPAVMovableObject@2@@Z" PURGE="4" COMMENT="" />
    <EXPORT ORDINAL="3179" NAME="?destroyInstance@RibbonTrailFactory@Ogre@@UAEXPAVMovableObject@2@@Z" PURGE="4" COMMENT="" />
    <EXPORT ORDINAL="3180" NAME="?destroyKeyFrameImpl@NodeAnimationTrack@Ogre@@MAEXPAVKeyFrame@2@@Z" PURGE="4" COMMENT="" />
    <EXPORT ORDINAL="3181" NAME="?destroyKeyFrameImpl@NumericAnimationTrack@Ogre@@MAEXPAVKeyFrame@2@@Z" PURGE="4" COMMENT="" />
    <EXPORT ORDINAL="3182" NAME="?destroyKeyFrameImpl@VertexAnimationTrack@Ogre@@MAEXPAVKeyFrame@2@@Z" PURGE="4" COMMENT="" />
    <EXPORT ORDINAL="3183" NAME="?destroyLight@SceneManager@Ogre@@UAEXABV?$basic_string@DU?$char_traits@D@std@@V?$allocator@D@2@@std@@@Z" PURGE="4" COMMENT="" />
    <EXPORT ORDINAL="3184" NAME="?destroyLight@SceneManager@Ogre@@UAEXPAVLight@2@@Z" PURGE="-1" COMMENT="" />
    <EXPORT ORDINAL="3185" NAME="?destroyLog@LogManager@Ogre@@QAEXABV?$basic_string@DU?$char_traits@D@std@@V?$allocator@D@2@@std@@@Z" PURGE="4" COMMENT="" />
    <EXPORT ORDINAL="3186" NAME="?destroyLog@LogManager@Ogre@@QAEXPAVLog@2@@Z" PURGE="4" COMMENT="" />
    <EXPORT ORDINAL="3187" NAME="?destroyManualObject@SceneManager@Ogre@@UAEXABV?$basic_string@DU?$char_traits@D@std@@V?$allocator@D@2@@std@@@Z" PURGE="4" COMMENT="" />
    <EXPORT ORDINAL="3188" NAME="?destroyManualObject@SceneManager@Ogre@@UAEXPAVManualObject@2@@Z" PURGE="-1" COMMENT="" />
    <EXPORT ORDINAL="3189" NAME="?destroyMovableObject@SceneManager@Ogre@@UAEXABV?$basic_string@DU?$char_traits@D@std@@V?$allocator@D@2@@std@@0@Z" PURGE="8" COMMENT="" />
    <EXPORT ORDINAL="3190" NAME="?destroyMovableObject@SceneManager@Ogre@@UAEXPAVMovableObject@2@@Z" PURGE="4" COMMENT="" />
    <EXPORT ORDINAL="3191" NAME="?destroyNodeTrack@Animation@Ogre@@QAEXG@Z" PURGE="4" COMMENT="" />
    <EXPORT ORDINAL="3192" NAME="?destroyNumericTrack@Animation@Ogre@@QAEXG@Z" PURGE="4" COMMENT="" />
    <EXPORT ORDINAL="3193" NAME="?destroyOverlayElement@OverlayElementFactory@Ogre@@UAEXPAVOverlayElement@2@@Z" PURGE="4" COMMENT="" />
    <EXPORT ORDINAL="3194" NAME="?destroyOverlayElement@OverlayManager@Ogre@@QAEXABV?$basic_string@DU?$char_traits@D@std@@V?$allocator@D@2@@std@@_N@Z" PURGE="8" COMMENT="" />
    <EXPORT ORDINAL="3195" NAME="?destroyOverlayElement@OverlayManager@Ogre@@QAEXPAVOverlayElement@2@_N@Z" PURGE="8" COMMENT="" />
    <EXPORT ORDINAL="3196" NAME="?destroyOverlayElementImpl@OverlayManager@Ogre@@IAEXABV?$basic_string@DU?$char_traits@D@std@@V?$allocator@D@2@@std@@AAV?$map@V?$basic_string@DU?$char_traits@D@std@@V?$allocator@D@2@@std@@PAVOverlayElement@Ogre@@U?$less@V?$basic_string@DU?$char_traits@D@std@@V?$allocator@D@2@@std@@@2@V?$allocator@U?$pair@$$CBV?$basic_string@DU?$char_traits@D@std@@V?$allocator@D@2@@std@@PAVOverlayElement@Ogre@@@std@@@2@@4@@Z" PURGE="8" COMMENT="" />
    <EXPORT ORDINAL="3197" NAME="?destroyParticleSystem@SceneManager@Ogre@@UAEXABV?$basic_string@DU?$char_traits@D@std@@V?$allocator@D@2@@std@@@Z" PURGE="4" COMMENT="" />
    <EXPORT ORDINAL="3198" NAME="?destroyParticleSystem@SceneManager@Ogre@@UAEXPAVParticleSystem@2@@Z" PURGE="-1" COMMENT="" />
    <EXPORT ORDINAL="3199" NAME="?destroyQuery@SceneManager@Ogre@@UAEXPAVSceneQuery@2@@Z" PURGE="4" COMMENT="" />
    <EXPORT ORDINAL="3200" NAME="?destroyRenderQueueInvocationSequence@Root@Ogre@@QAEXABV?$basic_string@DU?$char_traits@D@std@@V?$allocator@D@2@@std@@@Z" PURGE="4" COMMENT="" />
    <EXPORT ORDINAL="3201" NAME="?destroyRenderTarget@RenderSystem@Ogre@@UAEXABV?$basic_string@DU?$char_traits@D@std@@V?$allocator@D@2@@std@@@Z" PURGE="4" COMMENT="" />
    <EXPORT ORDINAL="3202" NAME="?destroyRenderTexture@RenderSystem@Ogre@@UAEXABV?$basic_string@DU?$char_traits@D@std@@V?$allocator@D@2@@std@@@Z" PURGE="-1" COMMENT="" />
    <EXPORT ORDINAL="3203" NAME="?destroyRenderWindow@RenderSystem@Ogre@@UAEXABV?$basic_string@DU?$char_traits@D@std@@V?$allocator@D@2@@std@@@Z" PURGE="-1" COMMENT="" />
    <EXPORT ORDINAL="3204" NAME="?destroyResourceGroup@ResourceGroupManager@Ogre@@QAEXABV?$basic_string@DU?$char_traits@D@std@@V?$allocator@D@2@@std@@@Z" PURGE="4" COMMENT="" />
    <EXPORT ORDINAL="3205" NAME="?destroyResources@CompositorChain@Ogre@@IAEXXZ" PURGE="0" COMMENT="" />
    <EXPORT ORDINAL="3206" NAME="?destroyRibbonTrail@SceneManager@Ogre@@UAEXABV?$basic_string@DU?$char_traits@D@std@@V?$allocator@D@2@@std@@@Z" PURGE="4" COMMENT="" />
    <EXPORT ORDINAL="3207" NAME="?destroyRibbonTrail@SceneManager@Ogre@@UAEXPAVRibbonTrail@2@@Z" PURGE="-1" COMMENT="" />
    <EXPORT ORDINAL="3208" NAME="?destroySceneManager@Root@Ogre@@QAEXPAVSceneManager@2@@Z" PURGE="4" COMMENT="" />
    <EXPORT ORDINAL="3209" NAME="?destroySceneManager@SceneManagerEnumerator@Ogre@@QAEXPAVSceneManager@2@@Z" PURGE="4" COMMENT="" />
    <EXPORT ORDINAL="3210" NAME="?destroySceneNode@SceneManager@Ogre@@UAEXABV?$basic_string@DU?$char_traits@D@std@@V?$allocator@D@2@@std@@@Z" PURGE="4" COMMENT="" />
    <EXPORT ORDINAL="3211" NAME="?destroyShadowTextures@SceneManager@Ogre@@MAEXXZ" PURGE="0" COMMENT="" />
    <EXPORT ORDINAL="3212" NAME="?destroyStaticGeometry@SceneManager@Ogre@@UAEXABV?$basic_string@DU?$char_traits@D@std@@V?$allocator@D@2@@std@@@Z" PURGE="4" COMMENT="" />
    <EXPORT ORDINAL="3213" NAME="?destroyStaticGeometry@SceneManager@Ogre@@UAEXPAVStaticGeometry@2@@Z" PURGE="-1" COMMENT="" />
    <EXPORT ORDINAL="3214" NAME="?destroySystemImpl@ParticleSystemManager@Ogre@@IAEXPAVParticleSystem@2@@Z" PURGE="4" COMMENT="" />
    <EXPORT ORDINAL="3215" NAME="?destroyTimer@PlatformManager@Ogre@@QAEXPAVTimer@2@@Z" PURGE="4" COMMENT="" />
    <EXPORT ORDINAL="3216" NAME="?destroyVertexBufferBinding@HardwareBufferManager@Ogre@@UAEXPAVVertexBufferBinding@2@@Z" PURGE="4" COMMENT="" />
    <EXPORT ORDINAL="3217" NAME="?destroyVertexBufferBindingImpl@HardwareBufferManager@Ogre@@MAEXPAVVertexBufferBinding@2@@Z" PURGE="4" COMMENT="" />
    <EXPORT ORDINAL="3218" NAME="?destroyVertexDeclaration@HardwareBufferManager@Ogre@@UAEXPAVVertexDeclaration@2@@Z" PURGE="4" COMMENT="" />
    <EXPORT ORDINAL="3219" NAME="?destroyVertexDeclarationImpl@HardwareBufferManager@Ogre@@MAEXPAVVertexDeclaration@2@@Z" PURGE="4" COMMENT="" />
    <EXPORT ORDINAL="3220" NAME="?destroyVertexTrack@Animation@Ogre@@QAEXG@Z" PURGE="4" COMMENT="" />
    <EXPORT ORDINAL="3221" NAME="?destroyVisualParticles@ParticleSystem@Ogre@@IAEXII@Z" PURGE="8" COMMENT="" />
    <EXPORT ORDINAL="3222" NAME="?detachAllObjects@SceneNode@Ogre@@UAEXXZ" PURGE="0" COMMENT="" />
    <EXPORT ORDINAL="3223" NAME="?detachAllObjectsFromBone@Entity@Ogre@@QAEXXZ" PURGE="0" COMMENT="" />
    <EXPORT ORDINAL="3224" NAME="?detachAllObjectsImpl@Entity@Ogre@@IAEXXZ" PURGE="0" COMMENT="" />
    <EXPORT ORDINAL="3225" NAME="?detachObject@SceneNode@Ogre@@UAEPAVMovableObject@2@ABV?$basic_string@DU?$char_traits@D@std@@V?$allocator@D@2@@std@@@Z" PURGE="4" COMMENT="" />
    <EXPORT ORDINAL="3226" NAME="?detachObject@SceneNode@Ogre@@UAEPAVMovableObject@2@G@Z" PURGE="4" COMMENT="" />
    <EXPORT ORDINAL="3227" NAME="?detachObject@SceneNode@Ogre@@UAEXPAVMovableObject@2@@Z" PURGE="4" COMMENT="" />
    <EXPORT ORDINAL="3228" NAME="?detachObjectFromBone@Entity@Ogre@@QAEPAVMovableObject@2@ABV?$basic_string@DU?$char_traits@D@std@@V?$allocator@D@2@@std@@@Z" PURGE="4" COMMENT="" />
    <EXPORT ORDINAL="3229" NAME="?detachObjectFromBone@Entity@Ogre@@QAEXPAVMovableObject@2@@Z" PURGE="4" COMMENT="" />
    <EXPORT ORDINAL="3230" NAME="?detachObjectImpl@Entity@Ogre@@IAEXPAVMovableObject@2@@Z" PURGE="4" COMMENT="" />
    <EXPORT ORDINAL="3231" NAME="?detachRenderTarget@RenderSystem@Ogre@@UAEPAVRenderTarget@2@ABV?$basic_string@DU?$char_traits@D@std@@V?$allocator@D@2@@std@@@Z" PURGE="4" COMMENT="" />
    <EXPORT ORDINAL="3232" NAME="?detachRenderTarget@Root@Ogre@@QAEXABV?$basic_string@DU?$char_traits@D@std@@V?$allocator@D@2@@std@@@Z" PURGE="-1" COMMENT="" />
    <EXPORT ORDINAL="3233" NAME="?detachRenderTarget@Root@Ogre@@QAEXPAVRenderTarget@2@@Z" PURGE="4" COMMENT="" />
    <EXPORT ORDINAL="3234" NAME="?determinant@Matrix4@Ogre@@QBEMXZ" PURGE="0" COMMENT="" />
    <EXPORT ORDINAL="3235" NAME="?determineEndianness@Serializer@Ogre@@MAEXAAV?$SharedPtr@VDataStream@Ogre@@@2@@Z" PURGE="4" COMMENT="" />
    <EXPORT ORDINAL="3236" NAME="?determineEndianness@Serializer@Ogre@@MAEXW4Endian@12@@Z" PURGE="4" COMMENT="" />
    <EXPORT ORDINAL="3237" NAME="?determineGeometry@StaticGeometry@Ogre@@IAEPAV?$vector@USubMeshLodGeometryLink@StaticGeometry@Ogre@@V?$allocator@USubMeshLodGeometryLink@StaticGeometry@Ogre@@@std@@@std@@PAVSubMesh@2@@Z" PURGE="4" COMMENT="" />
    <EXPORT ORDINAL="3238" NAME="?directionEquals@Vector3@Ogre@@QBE_NABV12@ABVRadian@2@@Z" PURGE="8" COMMENT="" />
    <EXPORT ORDINAL="3239" NAME="?disableCustomNearClipPlane@Frustum@Ogre@@UAEXXZ" PURGE="-1" COMMENT="" />
    <EXPORT ORDINAL="3240" NAME="?disableProfile@Profiler@Ogre@@QAEXABV?$basic_string@DU?$char_traits@D@std@@V?$allocator@D@2@@std@@@Z" PURGE="4" COMMENT="" />
    <EXPORT ORDINAL="3241" NAME="?disableReflection@Frustum@Ogre@@UAEXXZ" PURGE="-1" COMMENT="" />
    <EXPORT ORDINAL="3242" NAME="?dispatchEvent@EventDispatcher@Ogre@@QAE_NPAVInputEvent@2@@Z" PURGE="4" COMMENT="" />
    <EXPORT ORDINAL="3243" NAME="?displayResults@Profiler@Ogre@@IAEXXZ" PURGE="0" COMMENT="" />
    <EXPORT ORDINAL="3244" NAME="?distance@Vector3@Ogre@@QBEMABV12@@Z" PURGE="4" COMMENT="" />
    <EXPORT ORDINAL="3245" NAME="?distributeControlPoints@PatchSurface@Ogre@@IAEXPAX@Z" PURGE="4" COMMENT="" />
    <EXPORT ORDINAL="3246" NAME="?dllocMem@MemoryManager@Ogre@@QAEXPBDIPAX@Z" PURGE="12" COMMENT="" />
    <EXPORT ORDINAL="3247" NAME="?doCopy@CmdAngle@EmitterCommands@Ogre@@UAEXPAXPBX@Z" PURGE="8" COMMENT="" />
    <EXPORT ORDINAL="3248" NAME="?doCopy@CmdColour@EmitterCommands@Ogre@@UAEXPAXPBX@Z" PURGE="8" COMMENT="" />
    <EXPORT ORDINAL="3249" NAME="?doCopy@CmdColourRangeEnd@EmitterCommands@Ogre@@UAEXPAXPBX@Z" PURGE="8" COMMENT="" />
    <EXPORT ORDINAL="3250" NAME="?doCopy@CmdColourRangeStart@EmitterCommands@Ogre@@UAEXPAXPBX@Z" PURGE="8" COMMENT="" />
    <EXPORT ORDINAL="3251" NAME="?doCopy@CmdDirection@EmitterCommands@Ogre@@UAEXPAXPBX@Z" PURGE="8" COMMENT="" />
    <EXPORT ORDINAL="3252" NAME="?doCopy@CmdDuration@EmitterCommands@Ogre@@UAEXPAXPBX@Z" PURGE="8" COMMENT="" />
    <EXPORT ORDINAL="3253" NAME="?doCopy@CmdEmissionRate@EmitterCommands@Ogre@@UAEXPAXPBX@Z" PURGE="8" COMMENT="" />
    <EXPORT ORDINAL="3254" NAME="?doCopy@CmdMaxDuration@EmitterCommands@Ogre@@UAEXPAXPBX@Z" PURGE="8" COMMENT="" />
    <EXPORT ORDINAL="3255" NAME="?doCopy@CmdMaxRepeatDelay@EmitterCommands@Ogre@@UAEXPAXPBX@Z" PURGE="8" COMMENT="" />
    <EXPORT ORDINAL="3256" NAME="?doCopy@CmdMaxTTL@EmitterCommands@Ogre@@UAEXPAXPBX@Z" PURGE="8" COMMENT="" />
    <EXPORT ORDINAL="3257" NAME="?doCopy@CmdMaxVelocity@EmitterCommands@Ogre@@UAEXPAXPBX@Z" PURGE="8" COMMENT="" />
    <EXPORT ORDINAL="3258" NAME="?doCopy@CmdMinDuration@EmitterCommands@Ogre@@UAEXPAXPBX@Z" PURGE="8" COMMENT="" />
    <EXPORT ORDINAL="3259" NAME="?doCopy@CmdMinRepeatDelay@EmitterCommands@Ogre@@UAEXPAXPBX@Z" PURGE="8" COMMENT="" />
    <EXPORT ORDINAL="3260" NAME="?doCopy@CmdMinTTL@EmitterCommands@Ogre@@UAEXPAXPBX@Z" PURGE="8" COMMENT="" />
    <EXPORT ORDINAL="3261" NAME="?doCopy@CmdMinVelocity@EmitterCommands@Ogre@@UAEXPAXPBX@Z" PURGE="8" COMMENT="" />
    <EXPORT ORDINAL="3262" NAME="?doCopy@CmdPosition@EmitterCommands@Ogre@@UAEXPAXPBX@Z" PURGE="8" COMMENT="" />
    <EXPORT ORDINAL="3263" NAME="?doCopy@CmdRepeatDelay@EmitterCommands@Ogre@@UAEXPAXPBX@Z" PURGE="8" COMMENT="" />
    <EXPORT ORDINAL="3264" NAME="?doCopy@CmdTTL@EmitterCommands@Ogre@@UAEXPAXPBX@Z" PURGE="8" COMMENT="" />
    <EXPORT ORDINAL="3265" NAME="?doCopy@CmdVelocity@EmitterCommands@Ogre@@UAEXPAXPBX@Z" PURGE="8" COMMENT="" />
    <EXPORT ORDINAL="3266" NAME="?doCopy@ParamCommand@Ogre@@UAEXPAXPBX@Z" PURGE="8" COMMENT="" />
    <EXPORT ORDINAL="3267" NAME="?doGet@CmdAngle@EmitterCommands@Ogre@@UBE?AV?$basic_string@DU?$char_traits@D@std@@V?$allocator@D@2@@std@@PBX@Z" PURGE="8" COMMENT="" />
    <EXPORT ORDINAL="3268" NAME="?doGet@CmdCaption@OverlayElementCommands@Ogre@@UBE?AV?$basic_string@DU?$char_traits@D@std@@V?$allocator@D@2@@std@@PBX@Z" PURGE="8" COMMENT="" />
    <EXPORT ORDINAL="3269" NAME="?doGet@CmdColour@EmitterCommands@Ogre@@UBE?AV?$basic_string@DU?$char_traits@D@std@@V?$allocator@D@2@@std@@PBX@Z" PURGE="8" COMMENT="" />
    <EXPORT ORDINAL="3270" NAME="?doGet@CmdColourRangeEnd@EmitterCommands@Ogre@@UBE?AV?$basic_string@DU?$char_traits@D@std@@V?$allocator@D@2@@std@@PBX@Z" PURGE="8" COMMENT="" />
    <EXPORT ORDINAL="3271" NAME="?doGet@CmdColourRangeStart@EmitterCommands@Ogre@@UBE?AV?$basic_string@DU?$char_traits@D@std@@V?$allocator@D@2@@std@@PBX@Z" PURGE="8" COMMENT="" />
    <EXPORT ORDINAL="3272" NAME="?doGet@CmdDirection@EmitterCommands@Ogre@@UBE?AV?$basic_string@DU?$char_traits@D@std@@V?$allocator@D@2@@std@@PBX@Z" PURGE="8" COMMENT="" />
    <EXPORT ORDINAL="3273" NAME="?doGet@CmdDuration@EmitterCommands@Ogre@@UBE?AV?$basic_string@DU?$char_traits@D@std@@V?$allocator@D@2@@std@@PBX@Z" PURGE="8" COMMENT="" />
    <EXPORT ORDINAL="3274" NAME="?doGet@CmdEmissionRate@EmitterCommands@Ogre@@UBE?AV?$basic_string@DU?$char_traits@D@std@@V?$allocator@D@2@@std@@PBX@Z" PURGE="8" COMMENT="" />
    <EXPORT ORDINAL="3275" NAME="?doGet@CmdHeight@OverlayElementCommands@Ogre@@UBE?AV?$basic_string@DU?$char_traits@D@std@@V?$allocator@D@2@@std@@PBX@Z" PURGE="8" COMMENT="" />
    <EXPORT ORDINAL="3276" NAME="?doGet@CmdHorizontalAlign@OverlayElementCommands@Ogre@@UBE?AV?$basic_string@DU?$char_traits@D@std@@V?$allocator@D@2@@std@@PBX@Z" PURGE="8" COMMENT="" />
    <EXPORT ORDINAL="3277" NAME="?doGet@CmdLeft@OverlayElementCommands@Ogre@@UBE?AV?$basic_string@DU?$char_traits@D@std@@V?$allocator@D@2@@std@@PBX@Z" PURGE="8" COMMENT="" />
    <EXPORT ORDINAL="3278" NAME="?doGet@CmdMaterial@OverlayElementCommands@Ogre@@UBE?AV?$basic_string@DU?$char_traits@D@std@@V?$allocator@D@2@@std@@PBX@Z" PURGE="8" COMMENT="" />
    <EXPORT ORDINAL="3279" NAME="?doGet@CmdMaxDuration@EmitterCommands@Ogre@@UBE?AV?$basic_string@DU?$char_traits@D@std@@V?$allocator@D@2@@std@@PBX@Z" PURGE="8" COMMENT="" />
    <EXPORT ORDINAL="3280" NAME="?doGet@CmdMaxRepeatDelay@EmitterCommands@Ogre@@UBE?AV?$basic_string@DU?$char_traits@D@std@@V?$allocator@D@2@@std@@PBX@Z" PURGE="8" COMMENT="" />
    <EXPORT ORDINAL="3281" NAME="?doGet@CmdMaxTTL@EmitterCommands@Ogre@@UBE?AV?$basic_string@DU?$char_traits@D@std@@V?$allocator@D@2@@std@@PBX@Z" PURGE="8" COMMENT="" />
    <EXPORT ORDINAL="3282" NAME="?doGet@CmdMaxVelocity@EmitterCommands@Ogre@@UBE?AV?$basic_string@DU?$char_traits@D@std@@V?$allocator@D@2@@std@@PBX@Z" PURGE="8" COMMENT="" />
    <EXPORT ORDINAL="3283" NAME="?doGet@CmdMetricsMode@OverlayElementCommands@Ogre@@UBE?AV?$basic_string@DU?$char_traits@D@std@@V?$allocator@D@2@@std@@PBX@Z" PURGE="8" COMMENT="" />
    <EXPORT ORDINAL="3284" NAME="?doGet@CmdMinDuration@EmitterCommands@Ogre@@UBE?AV?$basic_string@DU?$char_traits@D@std@@V?$allocator@D@2@@std@@PBX@Z" PURGE="8" COMMENT="" />
    <EXPORT ORDINAL="3285" NAME="?doGet@CmdMinRepeatDelay@EmitterCommands@Ogre@@UBE?AV?$basic_string@DU?$char_traits@D@std@@V?$allocator@D@2@@std@@PBX@Z" PURGE="8" COMMENT="" />
    <EXPORT ORDINAL="3286" NAME="?doGet@CmdMinTTL@EmitterCommands@Ogre@@UBE?AV?$basic_string@DU?$char_traits@D@std@@V?$allocator@D@2@@std@@PBX@Z" PURGE="8" COMMENT="" />
    <EXPORT ORDINAL="3287" NAME="?doGet@CmdMinVelocity@EmitterCommands@Ogre@@UBE?AV?$basic_string@DU?$char_traits@D@std@@V?$allocator@D@2@@std@@PBX@Z" PURGE="8" COMMENT="" />
    <EXPORT ORDINAL="3288" NAME="?doGet@CmdPosition@EmitterCommands@Ogre@@UBE?AV?$basic_string@DU?$char_traits@D@std@@V?$allocator@D@2@@std@@PBX@Z" PURGE="8" COMMENT="" />
    <EXPORT ORDINAL="3289" NAME="?doGet@CmdRepeatDelay@EmitterCommands@Ogre@@UBE?AV?$basic_string@DU?$char_traits@D@std@@V?$allocator@D@2@@std@@PBX@Z" PURGE="8" COMMENT="" />
    <EXPORT ORDINAL="3290" NAME="?doGet@CmdResolution@Font@Ogre@@UBE?AV?$basic_string@DU?$char_traits@D@std@@V?$allocator@D@2@@std@@PBX@Z" PURGE="8" COMMENT="" />
    <EXPORT ORDINAL="3291" NAME="?doGet@CmdSize@Font@Ogre@@UBE?AV?$basic_string@DU?$char_traits@D@std@@V?$allocator@D@2@@std@@PBX@Z" PURGE="8" COMMENT="" />
    <EXPORT ORDINAL="3292" NAME="?doGet@CmdSkeletal@GpuProgram@Ogre@@UBE?AV?$basic_string@DU?$char_traits@D@std@@V?$allocator@D@2@@std@@PBX@Z" PURGE="8" COMMENT="" />
    <EXPORT ORDINAL="3293" NAME="?doGet@CmdSource@Font@Ogre@@UBE?AV?$basic_string@DU?$char_traits@D@std@@V?$allocator@D@2@@std@@PBX@Z" PURGE="8" COMMENT="" />
    <EXPORT ORDINAL="3294" NAME="?doGet@CmdSyntax@GpuProgram@Ogre@@UBE?AV?$basic_string@DU?$char_traits@D@std@@V?$allocator@D@2@@std@@PBX@Z" PURGE="8" COMMENT="" />
    <EXPORT ORDINAL="3295" NAME="?doGet@CmdTTL@EmitterCommands@Ogre@@UBE?AV?$basic_string@DU?$char_traits@D@std@@V?$allocator@D@2@@std@@PBX@Z" PURGE="8" COMMENT="" />
    <EXPORT ORDINAL="3296" NAME="?doGet@CmdTop@OverlayElementCommands@Ogre@@UBE?AV?$basic_string@DU?$char_traits@D@std@@V?$allocator@D@2@@std@@PBX@Z" PURGE="8" COMMENT="" />
    <EXPORT ORDINAL="3297" NAME="?doGet@CmdType@Font@Ogre@@UBE?AV?$basic_string@DU?$char_traits@D@std@@V?$allocator@D@2@@std@@PBX@Z" PURGE="8" COMMENT="" />
    <EXPORT ORDINAL="3298" NAME="?doGet@CmdType@GpuProgram@Ogre@@UBE?AV?$basic_string@DU?$char_traits@D@std@@V?$allocator@D@2@@std@@PBX@Z" PURGE="8" COMMENT="" />
    <EXPORT ORDINAL="3299" NAME="?doGet@CmdVelocity@EmitterCommands@Ogre@@UBE?AV?$basic_string@DU?$char_traits@D@std@@V?$allocator@D@2@@std@@PBX@Z" PURGE="8" COMMENT="" />
    <EXPORT ORDINAL="3300" NAME="?doGet@CmdVerticalAlign@OverlayElementCommands@Ogre@@UBE?AV?$basic_string@DU?$char_traits@D@std@@V?$allocator@D@2@@std@@PBX@Z" PURGE="8" COMMENT="" />
    <EXPORT ORDINAL="3301" NAME="?doGet@CmdVisible@OverlayElementCommands@Ogre@@UBE?AV?$basic_string@DU?$char_traits@D@std@@V?$allocator@D@2@@std@@PBX@Z" PURGE="8" COMMENT="" />
    <EXPORT ORDINAL="3302" NAME="?doGet@CmdWidth@OverlayElementCommands@Ogre@@UBE?AV?$basic_string@DU?$char_traits@D@std@@V?$allocator@D@2@@std@@PBX@Z" PURGE="8" COMMENT="" />
    <EXPORT ORDINAL="3303" NAME="?doPass1@Compiler2Pass@Ogre@@IAE_NXZ" PURGE="0" COMMENT="" />
    <EXPORT ORDINAL="3304" NAME="?doPass2@Compiler2Pass@Ogre@@IAE_NXZ" PURGE="0" COMMENT="" />
    <EXPORT ORDINAL="3305" NAME="?doSet@CmdAngle@EmitterCommands@Ogre@@UAEXPAXABV?$basic_string@DU?$char_traits@D@std@@V?$allocator@D@2@@std@@@Z" PURGE="8" COMMENT="" />
    <EXPORT ORDINAL="3306" NAME="?doSet@CmdCaption@OverlayElementCommands@Ogre@@UAEXPAXABV?$basic_string@DU?$char_traits@D@std@@V?$allocator@D@2@@std@@@Z" PURGE="8" COMMENT="" />
    <EXPORT ORDINAL="3307" NAME="?doSet@CmdColour@EmitterCommands@Ogre@@UAEXPAXABV?$basic_string@DU?$char_traits@D@std@@V?$allocator@D@2@@std@@@Z" PURGE="8" COMMENT="" />
    <EXPORT ORDINAL="3308" NAME="?doSet@CmdColourRangeEnd@EmitterCommands@Ogre@@UAEXPAXABV?$basic_string@DU?$char_traits@D@std@@V?$allocator@D@2@@std@@@Z" PURGE="8" COMMENT="" />
    <EXPORT ORDINAL="3309" NAME="?doSet@CmdColourRangeStart@EmitterCommands@Ogre@@UAEXPAXABV?$basic_string@DU?$char_traits@D@std@@V?$allocator@D@2@@std@@@Z" PURGE="8" COMMENT="" />
    <EXPORT ORDINAL="3310" NAME="?doSet@CmdDirection@EmitterCommands@Ogre@@UAEXPAXABV?$basic_string@DU?$char_traits@D@std@@V?$allocator@D@2@@std@@@Z" PURGE="8" COMMENT="" />
    <EXPORT ORDINAL="3311" NAME="?doSet@CmdDuration@EmitterCommands@Ogre@@UAEXPAXABV?$basic_string@DU?$char_traits@D@std@@V?$allocator@D@2@@std@@@Z" PURGE="8" COMMENT="" />
    <EXPORT ORDINAL="3312" NAME="?doSet@CmdEmissionRate@EmitterCommands@Ogre@@UAEXPAXABV?$basic_string@DU?$char_traits@D@std@@V?$allocator@D@2@@std@@@Z" PURGE="8" COMMENT="" />
    <EXPORT ORDINAL="3313" NAME="?doSet@CmdHeight@OverlayElementCommands@Ogre@@UAEXPAXABV?$basic_string@DU?$char_traits@D@std@@V?$allocator@D@2@@std@@@Z" PURGE="8" COMMENT="" />
    <EXPORT ORDINAL="3314" NAME="?doSet@CmdHorizontalAlign@OverlayElementCommands@Ogre@@UAEXPAXABV?$basic_string@DU?$char_traits@D@std@@V?$allocator@D@2@@std@@@Z" PURGE="8" COMMENT="" />
    <EXPORT ORDINAL="3315" NAME="?doSet@CmdLeft@OverlayElementCommands@Ogre@@UAEXPAXABV?$basic_string@DU?$char_traits@D@std@@V?$allocator@D@2@@std@@@Z" PURGE="8" COMMENT="" />
    <EXPORT ORDINAL="3316" NAME="?doSet@CmdMaterial@OverlayElementCommands@Ogre@@UAEXPAXABV?$basic_string@DU?$char_traits@D@std@@V?$allocator@D@2@@std@@@Z" PURGE="8" COMMENT="" />
    <EXPORT ORDINAL="3317" NAME="?doSet@CmdMaxDuration@EmitterCommands@Ogre@@UAEXPAXABV?$basic_string@DU?$char_traits@D@std@@V?$allocator@D@2@@std@@@Z" PURGE="8" COMMENT="" />
    <EXPORT ORDINAL="3318" NAME="?doSet@CmdMaxRepeatDelay@EmitterCommands@Ogre@@UAEXPAXABV?$basic_string@DU?$char_traits@D@std@@V?$allocator@D@2@@std@@@Z" PURGE="8" COMMENT="" />
    <EXPORT ORDINAL="3319" NAME="?doSet@CmdMaxTTL@EmitterCommands@Ogre@@UAEXPAXABV?$basic_string@DU?$char_traits@D@std@@V?$allocator@D@2@@std@@@Z" PURGE="8" COMMENT="" />
    <EXPORT ORDINAL="3320" NAME="?doSet@CmdMaxVelocity@EmitterCommands@Ogre@@UAEXPAXABV?$basic_string@DU?$char_traits@D@std@@V?$allocator@D@2@@std@@@Z" PURGE="8" COMMENT="" />
    <EXPORT ORDINAL="3321" NAME="?doSet@CmdMetricsMode@OverlayElementCommands@Ogre@@UAEXPAXABV?$basic_string@DU?$char_traits@D@std@@V?$allocator@D@2@@std@@@Z" PURGE="8" COMMENT="" />
    <EXPORT ORDINAL="3322" NAME="?doSet@CmdMinDuration@EmitterCommands@Ogre@@UAEXPAXABV?$basic_string@DU?$char_traits@D@std@@V?$allocator@D@2@@std@@@Z" PURGE="8" COMMENT="" />
    <EXPORT ORDINAL="3323" NAME="?doSet@CmdMinRepeatDelay@EmitterCommands@Ogre@@UAEXPAXABV?$basic_string@DU?$char_traits@D@std@@V?$allocator@D@2@@std@@@Z" PURGE="8" COMMENT="" />
    <EXPORT ORDINAL="3324" NAME="?doSet@CmdMinTTL@EmitterCommands@Ogre@@UAEXPAXABV?$basic_string@DU?$char_traits@D@std@@V?$allocator@D@2@@std@@@Z" PURGE="8" COMMENT="" />
    <EXPORT ORDINAL="3325" NAME="?doSet@CmdMinVelocity@EmitterCommands@Ogre@@UAEXPAXABV?$basic_string@DU?$char_traits@D@std@@V?$allocator@D@2@@std@@@Z" PURGE="8" COMMENT="" />
    <EXPORT ORDINAL="3326" NAME="?doSet@CmdPosition@EmitterCommands@Ogre@@UAEXPAXABV?$basic_string@DU?$char_traits@D@std@@V?$allocator@D@2@@std@@@Z" PURGE="8" COMMENT="" />
    <EXPORT ORDINAL="3327" NAME="?doSet@CmdRepeatDelay@EmitterCommands@Ogre@@UAEXPAXABV?$basic_string@DU?$char_traits@D@std@@V?$allocator@D@2@@std@@@Z" PURGE="8" COMMENT="" />
    <EXPORT ORDINAL="3328" NAME="?doSet@CmdResolution@Font@Ogre@@UAEXPAXABV?$basic_string@DU?$char_traits@D@std@@V?$allocator@D@2@@std@@@Z" PURGE="8" COMMENT="" />
    <EXPORT ORDINAL="3329" NAME="?doSet@CmdSize@Font@Ogre@@UAEXPAXABV?$basic_string@DU?$char_traits@D@std@@V?$allocator@D@2@@std@@@Z" PURGE="8" COMMENT="" />
    <EXPORT ORDINAL="3330" NAME="?doSet@CmdSkeletal@GpuProgram@Ogre@@UAEXPAXABV?$basic_string@DU?$char_traits@D@std@@V?$allocator@D@2@@std@@@Z" PURGE="8" COMMENT="" />
    <EXPORT ORDINAL="3331" NAME="?doSet@CmdSource@Font@Ogre@@UAEXPAXABV?$basic_string@DU?$char_traits@D@std@@V?$allocator@D@2@@std@@@Z" PURGE="8" COMMENT="" />
    <EXPORT ORDINAL="3332" NAME="?doSet@CmdSyntax@GpuProgram@Ogre@@UAEXPAXABV?$basic_string@DU?$char_traits@D@std@@V?$allocator@D@2@@std@@@Z" PURGE="8" COMMENT="" />
    <EXPORT ORDINAL="3333" NAME="?doSet@CmdTTL@EmitterCommands@Ogre@@UAEXPAXABV?$basic_string@DU?$char_traits@D@std@@V?$allocator@D@2@@std@@@Z" PURGE="8" COMMENT="" />
    <EXPORT ORDINAL="3334" NAME="?doSet@CmdTop@OverlayElementCommands@Ogre@@UAEXPAXABV?$basic_string@DU?$char_traits@D@std@@V?$allocator@D@2@@std@@@Z" PURGE="8" COMMENT="" />
    <EXPORT ORDINAL="3335" NAME="?doSet@CmdType@Font@Ogre@@UAEXPAXABV?$basic_string@DU?$char_traits@D@std@@V?$allocator@D@2@@std@@@Z" PURGE="8" COMMENT="" />
    <EXPORT ORDINAL="3336" NAME="?doSet@CmdType@GpuProgram@Ogre@@UAEXPAXABV?$basic_string@DU?$char_traits@D@std@@V?$allocator@D@2@@std@@@Z" PURGE="8" COMMENT="" />
    <EXPORT ORDINAL="3337" NAME="?doSet@CmdVelocity@EmitterCommands@Ogre@@UAEXPAXABV?$basic_string@DU?$char_traits@D@std@@V?$allocator@D@2@@std@@@Z" PURGE="8" COMMENT="" />
    <EXPORT ORDINAL="3338" NAME="?doSet@CmdVerticalAlign@OverlayElementCommands@Ogre@@UAEXPAXABV?$basic_string@DU?$char_traits@D@std@@V?$allocator@D@2@@std@@@Z" PURGE="8" COMMENT="" />
    <EXPORT ORDINAL="3339" NAME="?doSet@CmdVisible@OverlayElementCommands@Ogre@@UAEXPAXABV?$basic_string@DU?$char_traits@D@std@@V?$allocator@D@2@@std@@@Z" PURGE="8" COMMENT="" />
    <EXPORT ORDINAL="3340" NAME="?doSet@CmdWidth@OverlayElementCommands@Ogre@@UAEXPAXABV?$basic_string@DU?$char_traits@D@std@@V?$allocator@D@2@@std@@@Z" PURGE="8" COMMENT="" />
    <EXPORT ORDINAL="3341" NAME="?dotProduct@Vector2@Ogre@@QBEMABV12@@Z" PURGE="4" COMMENT="" />
    <EXPORT ORDINAL="3342" NAME="?dotProduct@Vector3@Ogre@@QBEMABV12@@Z" PURGE="4" COMMENT="" />
    <EXPORT ORDINAL="3343" NAME="?dotProduct@Vector4@Ogre@@QBEMABV12@@Z" PURGE="4" COMMENT="" />
    <EXPORT ORDINAL="3344" NAME="?dropGroupContents@ResourceGroupManager@Ogre@@IAEXPAUResourceGroup@12@@Z" PURGE="4" COMMENT="" />
    <EXPORT ORDINAL="3345" NAME="?dump@GeometryBucket@StaticGeometry@Ogre@@QBEXAAV?$basic_ofstream@DU?$char_traits@D@std@@@std@@@Z" PURGE="4" COMMENT="" />
    <EXPORT ORDINAL="3346" NAME="?dump@LODBucket@StaticGeometry@Ogre@@QBEXAAV?$basic_ofstream@DU?$char_traits@D@std@@@std@@@Z" PURGE="4" COMMENT="" />
    <EXPORT ORDINAL="3347" NAME="?dump@MaterialBucket@StaticGeometry@Ogre@@QBEXAAV?$basic_ofstream@DU?$char_traits@D@std@@@std@@@Z" PURGE="4" COMMENT="" />
    <EXPORT ORDINAL="3348" NAME="?dump@Region@StaticGeometry@Ogre@@QBEXAAV?$basic_ofstream@DU?$char_traits@D@std@@@std@@@Z" PURGE="4" COMMENT="" />
    <EXPORT ORDINAL="3349" NAME="?dump@StaticGeometry@Ogre@@UBEXABV?$basic_string@DU?$char_traits@D@std@@V?$allocator@D@2@@std@@@Z" PURGE="4" COMMENT="" />
    <EXPORT ORDINAL="3350" NAME="?dumpContents@ProgressiveMesh@Ogre@@IAEXABV?$basic_string@DU?$char_traits@D@std@@V?$allocator@D@2@@std@@@Z" PURGE="4" COMMENT="" />
    <EXPORT ORDINAL="3351" NAME="?dynlibError@DynLib@Ogre@@IAE?AV?$basic_string@DU?$char_traits@D@std@@V?$allocator@D@2@@std@@XZ" PURGE="4" COMMENT="" />
    <EXPORT ORDINAL="3352" NAME="?enableCustomNearClipPlane@Frustum@Ogre@@UAEXABVPlane@2@@Z" PURGE="4" COMMENT="" />
    <EXPORT ORDINAL="3353" NAME="?enableCustomNearClipPlane@Frustum@Ogre@@UAEXPBVMovablePlane@2@@Z" PURGE="4" COMMENT="" />
    <EXPORT ORDINAL="3354" NAME="?enableProfile@Profiler@Ogre@@QAEXABV?$basic_string@DU?$char_traits@D@std@@V?$allocator@D@2@@std@@@Z" PURGE="4" COMMENT="" />
    <EXPORT ORDINAL="3355" NAME="?enableReflection@Frustum@Ogre@@UAEXABVPlane@2@@Z" PURGE="4" COMMENT="" />
    <EXPORT ORDINAL="3356" NAME="?enableReflection@Frustum@Ogre@@UAEXPBVMovablePlane@2@@Z" PURGE="4" COMMENT="" />
    <EXPORT ORDINAL="3357" NAME="?end@ManualObject@Ogre@@UAEXXZ" PURGE="0" COMMENT="" />
    <EXPORT ORDINAL="3358" NAME="?end@ParticleIterator@Ogre@@QAE_NXZ" PURGE="0" COMMENT="" />
    <EXPORT ORDINAL="3359" NAME="?endBillboards@BillboardSet@Ogre@@QAEXXZ" PURGE="-1" COMMENT="" />
    <EXPORT ORDINAL="3360" NAME="?endProfile@Profiler@Ogre@@QAEXABV?$basic_string@DU?$char_traits@D@std@@V?$allocator@D@2@@std@@@Z" PURGE="4" COMMENT="" />
    <EXPORT ORDINAL="3361" NAME="?endSection@MaterialSerializer@Ogre@@AAEXG_N@Z" PURGE="8" COMMENT="" />
    <EXPORT ORDINAL="3362" NAME="?endsWith@StringUtil@Ogre@@SA_NABV?$basic_string@DU?$char_traits@D@std@@V?$allocator@D@2@@std@@0_N@Z" PURGE="0" COMMENT="" />
    <EXPORT ORDINAL="3363" NAME="?eof@FileHandleDataStream@Ogre@@UBE_NXZ" PURGE="0" COMMENT="" />
    <EXPORT ORDINAL="3364" NAME="?eof@FileStreamDataStream@Ogre@@UBE_NXZ" PURGE="-1" COMMENT="" />
    <EXPORT ORDINAL="3365" NAME="?eof@MemoryDataStream@Ogre@@UBE_NXZ" PURGE="0" COMMENT="" />
    <EXPORT ORDINAL="3366" NAME="?equals@Quaternion@Ogre@@QBE_NABV12@ABVRadian@2@@Z" PURGE="8" COMMENT="" />
    <EXPORT ORDINAL="3367" NAME="?estimateIndexCount@ManualObject@Ogre@@UAEXI@Z" PURGE="-1" COMMENT="" />
    <EXPORT ORDINAL="3368" NAME="?estimateVertexCount@ManualObject@Ogre@@UAEXI@Z" PURGE="-1" COMMENT="" />
    <EXPORT ORDINAL="3369" NAME="?estimateWorldGeometry@SceneManager@Ogre@@UAEIAAV?$SharedPtr@VDataStream@Ogre@@@2@ABV?$basic_string@DU?$char_traits@D@std@@V?$allocator@D@2@@std@@@Z" PURGE="8" COMMENT="" />
    <EXPORT ORDINAL="3370" NAME="?estimateWorldGeometry@SceneManager@Ogre@@UAEIABV?$basic_string@DU?$char_traits@D@std@@V?$allocator@D@2@@std@@@Z" PURGE="4" COMMENT="" />
    <EXPORT ORDINAL="3371" NAME="?execute@DefaultAxisAlignedBoxSceneQuery@Ogre@@UAEXPAVSceneQueryListener@2@@Z" PURGE="4" COMMENT="" />
    <EXPORT ORDINAL="3372" NAME="?execute@DefaultIntersectionSceneQuery@Ogre@@UAEXPAVIntersectionSceneQueryListener@2@@Z" PURGE="4" COMMENT="" />
    <EXPORT ORDINAL="3373" NAME="?execute@DefaultPlaneBoundedVolumeListSceneQuery@Ogre@@UAEXPAVSceneQueryListener@2@@Z" PURGE="4" COMMENT="" />
    <EXPORT ORDINAL="3374" NAME="?execute@DefaultRaySceneQuery@Ogre@@UAEXPAVRaySceneQueryListener@2@@Z" PURGE="4" COMMENT="" />
    <EXPORT ORDINAL="3375" NAME="?execute@DefaultSphereSceneQuery@Ogre@@UAEXPAVSceneQueryListener@2@@Z" PURGE="4" COMMENT="" />
    <EXPORT ORDINAL="3376" NAME="?execute@IntersectionSceneQuery@Ogre@@UAEAAUIntersectionSceneQueryResult@2@XZ" PURGE="0" COMMENT="" />
    <EXPORT ORDINAL="3377" NAME="?execute@RaySceneQuery@Ogre@@UAEAAV?$vector@URaySceneQueryResultEntry@Ogre@@V?$allocator@URaySceneQueryResultEntry@Ogre@@@std@@@std@@XZ" PURGE="0" COMMENT="" />
    <EXPORT ORDINAL="3378" NAME="?execute@RegionSceneQuery@Ogre@@UAEAAUSceneQueryResult@2@XZ" PURGE="0" COMMENT="" />
    <EXPORT ORDINAL="3379" NAME="?executeTokenAction@CompositorScriptCompiler@Ogre@@MAEXI@Z" PURGE="4" COMMENT="" />
    <EXPORT ORDINAL="3380" NAME="?executeTokenAction@MaterialScriptCompiler@Ogre@@MAEXI@Z" PURGE="4" COMMENT="" />
    <EXPORT ORDINAL="3381" NAME="?exists@FileSystemArchive@Ogre@@UAE_NABV?$basic_string@DU?$char_traits@D@std@@V?$allocator@D@2@@std@@@Z" PURGE="4" COMMENT="" />
    <EXPORT ORDINAL="3382" NAME="?exists@ZipArchive@Ogre@@UAE_NABV?$basic_string@DU?$char_traits@D@std@@V?$allocator@D@2@@std@@@Z" PURGE="4" COMMENT="" />
    <EXPORT ORDINAL="3383" NAME="?exportMaterial@MaterialSerializer@Ogre@@QAEXABVMaterialPtr@2@ABV?$basic_string@DU?$char_traits@D@std@@V?$allocator@D@2@@std@@_N_N1@Z" PURGE="20" COMMENT="" />
    <EXPORT ORDINAL="3384" NAME="?exportMesh@MeshSerializer@Ogre@@QAEXPBVMesh@2@ABV?$basic_string@DU?$char_traits@D@std@@V?$allocator@D@2@@std@@W4Endian@Serializer@2@@Z" PURGE="12" COMMENT="" />
    <EXPORT ORDINAL="3385" NAME="?exportQueued@MaterialSerializer@Ogre@@QAEXABV?$basic_string@DU?$char_traits@D@std@@V?$allocator@D@2@@std@@_N0@Z" PURGE="12" COMMENT="" />
    <EXPORT ORDINAL="3386" NAME="?exportSkeleton@SkeletonSerializer@Ogre@@QAEXPBVSkeleton@2@ABV?$basic_string@DU?$char_traits@D@std@@V?$allocator@D@2@@std@@W4Endian@Serializer@2@@Z" PURGE="12" COMMENT="" />
    <EXPORT ORDINAL="3387" NAME="?extend@ConvexBody@Ogre@@QAEXABVVector3@2@@Z" PURGE="4" COMMENT="" />
    <EXPORT ORDINAL="3388" NAME="?extract3x3Matrix@Matrix4@Ogre@@QBEXAAVMatrix3@2@@Z" PURGE="4" COMMENT="" />
    <EXPORT ORDINAL="3389" NAME="?extractAllMovableObjectsByType@SceneManager@Ogre@@UAEXABV?$basic_string@DU?$char_traits@D@std@@V?$allocator@D@2@@std@@@Z" PURGE="4" COMMENT="" />
    <EXPORT ORDINAL="3390" NAME="?extractCompareFunc@CompositorScriptCompiler@Ogre@@IAE?AW4CompareFunction@2@XZ" PURGE="0" COMMENT="" />
    <EXPORT ORDINAL="3391" NAME="?extractFrom@TempBlendedBufferInfo@Ogre@@QAEXPBVVertexData@2@@Z" PURGE="4" COMMENT="" />
    <EXPORT ORDINAL="3392" NAME="?extractMovableObject@SceneManager@Ogre@@UAEXABV?$basic_string@DU?$char_traits@D@std@@V?$allocator@D@2@@std@@0@Z" PURGE="8" COMMENT="" />
    <EXPORT ORDINAL="3393" NAME="?extractMovableObject@SceneManager@Ogre@@UAEXPAVMovableObject@2@@Z" PURGE="4" COMMENT="" />
    <EXPORT ORDINAL="3394" NAME="?extractNonTerminal@Compiler2Pass@Ogre@@AAEXW4OperationType@12@@Z" PURGE="4" COMMENT="" />
    <EXPORT ORDINAL="3395" NAME="?extractNumericConstant@Compiler2Pass@Ogre@@AAEXW4OperationType@12@@Z" PURGE="4" COMMENT="" />
    <EXPORT ORDINAL="3396" NAME="?extractQuaternion@Matrix4@Ogre@@QBE?AVQuaternion@2@XZ" PURGE="4" COMMENT="" />
    <EXPORT ORDINAL="3397" NAME="?extractSet@Compiler2Pass@Ogre@@AAEXW4OperationType@12@@Z" PURGE="4" COMMENT="" />
    <EXPORT ORDINAL="3398" NAME="?extractStencilOp@CompositorScriptCompiler@Ogre@@IAE?AW4StencilOperation@2@XZ" PURGE="0" COMMENT="" />
    <EXPORT ORDINAL="3399" NAME="?extractTempBufferInfo@Entity@Ogre@@IAEXPAVVertexData@2@PAVTempBlendedBufferInfo@2@@Z" PURGE="8" COMMENT="" />
    <EXPORT ORDINAL="3400" NAME="?extractTerminal@Compiler2Pass@Ogre@@AAEXW4OperationType@12@_N@Z" PURGE="8" COMMENT="" />
    <EXPORT ORDINAL="3401" NAME="?extrudeBounds@ShadowCaster@Ogre@@MBEXAAVAxisAlignedBox@2@ABVVector4@2@M@Z" PURGE="12" COMMENT="" />
    <EXPORT ORDINAL="3402" NAME="?extrudeVertices@ShadowCaster@Ogre@@SAXABVHardwareVertexBufferSharedPtr@2@IABVVector4@2@M@Z" PURGE="-1" COMMENT="" />
    <EXPORT ORDINAL="3403" NAME="?fDeg2Rad@Math@Ogre@@2MB" PURGE="-1" COMMENT="" />
    <EXPORT ORDINAL="3404" NAME="?fRad2Deg@Math@Ogre@@2MB" PURGE="-1" COMMENT="" />
    <EXPORT ORDINAL="3405" NAME="?fSquareZero@?1??perpendicular@Vector3@Ogre@@QBE?AV23@XZ@4MB" PURGE="-1" COMMENT="" />
    <EXPORT ORDINAL="3406" NAME="?fastForward@ParticleSystem@Ogre@@QAEXMM@Z" PURGE="8" COMMENT="" />
    <EXPORT ORDINAL="3407" NAME="?find@FileSystemArchive@Ogre@@UAE?AV?$SharedPtr@V?$vector@V?$basic_string@DU?$char_traits@D@std@@V?$allocator@D@2@@std@@V?$allocator@V?$basic_string@DU?$char_traits@D@std@@V?$allocator@D@2@@std@@@2@@std@@@2@ABV?$basic_string@DU?$char_traits@D@std@@V?$allocator@D@2@@std@@_N@Z" PURGE="12" COMMENT="" />
    <EXPORT ORDINAL="3408" NAME="?find@ZipArchive@Ogre@@UAE?AV?$SharedPtr@V?$vector@V?$basic_string@DU?$char_traits@D@std@@V?$allocator@D@2@@std@@V?$allocator@V?$basic_string@DU?$char_traits@D@std@@V?$allocator@D@2@@std@@@2@@std@@@2@ABV?$basic_string@DU?$char_traits@D@std@@V?$allocator@D@2@@std@@_N@Z" PURGE="12" COMMENT="" />
    <EXPORT ORDINAL="3409" NAME="?findAndEraseEdgePair@ConvexBody@Ogre@@IBE_NABVVector3@2@AAV?$multimap@VVector3@Ogre@@V12@U?$less@VVector3@Ogre@@@std@@V?$allocator@U?$pair@$$CBVVector3@Ogre@@V12@@std@@@4@@std@@AAV32@@Z" PURGE="12" COMMENT="" />
    <EXPORT ORDINAL="3410" NAME="?findBlendedVertexData@Entity@Ogre@@IAEPBVVertexData@2@PBV32@@Z" PURGE="4" COMMENT="" />
    <EXPORT ORDINAL="3411" NAME="?findCommandLineOpts@Ogre@@YAHHPAPADAAV?$map@V?$basic_string@DU?$char_traits@D@std@@V?$allocator@D@2@@std@@_NU?$less@V?$basic_string@DU?$char_traits@D@std@@V?$allocator@D@2@@std@@@2@V?$allocator@U?$pair@$$CBV?$basic_string@DU?$char_traits@D@std@@V?$allocator@D@2@@std@@_N@std@@@2@@std@@AAV?$map@V?$basic_string@DU?$char_traits@D@std@@V?$allocator@D@2@@std@@V12@U?$less@V?$basic_string@DU?$char_traits@D@std@@V?$allocator@D@2@@std@@@2@V?$allocator@U?$pair@$$CBV?$basic_string@DU?$char_traits@D@std@@V?$allocator@D@2@@std@@V12@@std@@@2@@3@@Z" PURGE="0" COMMENT="" />
    <EXPORT ORDINAL="3412" NAME="?findEOL@Compiler2Pass@Ogre@@IAEXXZ" PURGE="0" COMMENT="" />
    <EXPORT ORDINAL="3413" NAME="?findElementAt@Overlay@Ogre@@UAEPAVOverlayElement@2@MM@Z" PURGE="8" COMMENT="" />
    <EXPORT ORDINAL="3414" NAME="?findElementAt@OverlayContainer@Ogre@@UAEPAVOverlayElement@2@MM@Z" PURGE="8" COMMENT="" />
    <EXPORT ORDINAL="3415" NAME="?findElementAt@OverlayElement@Ogre@@UAEPAV12@MM@Z" PURGE="8" COMMENT="" />
    <EXPORT ORDINAL="3416" NAME="?findElementBySemantic@VertexDeclaration@Ogre@@UAEPBVVertexElement@2@W4VertexElementSemantic@2@G@Z" PURGE="8" COMMENT="" />
    <EXPORT ORDINAL="3417" NAME="?findElementsBySource@VertexDeclaration@Ogre@@UAE?AV?$list@VVertexElement@Ogre@@V?$allocator@VVertexElement@Ogre@@@std@@@std@@G@Z" PURGE="8" COMMENT="" />
    <EXPORT ORDINAL="3418" NAME="?findFileInfo@FileSystemArchive@Ogre@@UAE?AV?$SharedPtr@V?$vector@UFileInfo@Ogre@@V?$allocator@UFileInfo@Ogre@@@std@@@std@@@2@ABV?$basic_string@DU?$char_traits@D@std@@V?$allocator@D@2@@std@@_N@Z" PURGE="12" COMMENT="" />
    <EXPORT ORDINAL="3419" NAME="?findFileInfo@ZipArchive@Ogre@@UAE?AV?$SharedPtr@V?$vector@UFileInfo@Ogre@@V?$allocator@UFileInfo@Ogre@@@std@@@std@@@2@ABV?$basic_string@DU?$char_traits@D@std@@V?$allocator@D@2@@std@@_N@Z" PURGE="12" COMMENT="" />
    <EXPORT ORDINAL="3420" NAME="?findFiles@FileSystemArchive@Ogre@@IAEXABV?$basic_string@DU?$char_traits@D@std@@V?$allocator@D@2@@std@@_N1PAV?$vector@V?$basic_string@DU?$char_traits@D@std@@V?$allocator@D@2@@std@@V?$allocator@V?$basic_string@DU?$char_traits@D@std@@V?$allocator@D@2@@std@@@2@@4@PAV?$vector@UFileInfo@Ogre@@V?$allocator@UFileInfo@Ogre@@@std@@@4@@Z" PURGE="20" COMMENT="" />
    <EXPORT ORDINAL="3421" NAME="?findGroupContainingResource@ResourceGroupManager@Ogre@@QAEABV?$basic_string@DU?$char_traits@D@std@@V?$allocator@D@2@@std@@ABV34@@Z" PURGE="4" COMMENT="" />
    <EXPORT ORDINAL="3422" NAME="?findGroupContainingResourceImpl@ResourceGroupManager@Ogre@@IAEPAUResourceGroup@12@ABV?$basic_string@DU?$char_traits@D@std@@V?$allocator@D@2@@std@@@Z" PURGE="4" COMMENT="" />
    <EXPORT ORDINAL="3423" NAME="?findLevel@PatchSurface@Ogre@@IAEIAAVVector3@2@00@Z" PURGE="12" COMMENT="" />
    <EXPORT ORDINAL="3424" NAME="?findLights@SceneNode@Ogre@@UBEXAAV?$vector@PAVLight@Ogre@@V?$allocator@PAVLight@Ogre@@@std@@@std@@M@Z" PURGE="8" COMMENT="" />
    <EXPORT ORDINAL="3425" NAME="?findLightsAffectingFrustum@SceneManager@Ogre@@MAEXPBVCamera@2@@Z" PURGE="4" COMMENT="" />
    <EXPORT ORDINAL="3426" NAME="?findMatchingConstantDefinition@GpuProgramParameters@Ogre@@QBEPBUConstantDefinition@12@ABV?$basic_string@DU?$char_traits@D@std@@V?$allocator@D@2@@std@@IW4ElementType@12@@Z" PURGE="12" COMMENT="" />
    <EXPORT ORDINAL="3427" NAME="?findOrCreateCommonVertex@EdgeListBuilder@Ogre@@IAEIABVVector3@2@III@Z" PURGE="16" COMMENT="" />
    <EXPORT ORDINAL="3428" NAME="?findResourceFileInfo@ResourceGroupManager@Ogre@@QAE?AV?$SharedPtr@V?$vector@UFileInfo@Ogre@@V?$allocator@UFileInfo@Ogre@@@std@@@std@@@2@ABV?$basic_string@DU?$char_traits@D@std@@V?$allocator@D@2@@std@@0@Z" PURGE="12" COMMENT="" />
    <EXPORT ORDINAL="3429" NAME="?findResourceNames@ResourceGroupManager@Ogre@@QAE?AV?$SharedPtr@V?$vector@V?$basic_string@DU?$char_traits@D@std@@V?$allocator@D@2@@std@@V?$allocator@V?$basic_string@DU?$char_traits@D@std@@V?$allocator@D@2@@std@@@2@@std@@@2@ABV?$basic_string@DU?$char_traits@D@std@@V?$allocator@D@2@@std@@0@Z" PURGE="12" COMMENT="" />
    <EXPORT ORDINAL="3430" NAME="?findShadowCastersForLight@SceneManager@Ogre@@MAEABV?$vector@PAVShadowCaster@Ogre@@V?$allocator@PAVShadowCaster@Ogre@@@std@@@std@@PBVLight@2@PBVCamera@2@@Z" PURGE="8" COMMENT="" />
    <EXPORT ORDINAL="3431" NAME="?findSubEntityForVertexData@Entity@Ogre@@IAEPAVSubEntity@2@PBVVertexData@2@@Z" PURGE="4" COMMENT="" />
    <EXPORT ORDINAL="3432" NAME="?finishProgramDefinition@MaterialScriptCompiler@Ogre@@IAEXXZ" PURGE="0" COMMENT="" />
    <EXPORT ORDINAL="3433" NAME="?finishProgramDefinition@MaterialSerializer@Ogre@@IAEXXZ" PURGE="0" COMMENT="" />
    <EXPORT ORDINAL="3434" NAME="?fireEvent@RenderSystem@Ogre@@MAEXABV?$basic_string@DU?$char_traits@D@std@@V?$allocator@D@2@@std@@PBV?$map@V?$basic_string@DU?$char_traits@D@std@@V?$allocator@D@2@@std@@V12@U?$less@V?$basic_string@DU?$char_traits@D@std@@V?$allocator@D@2@@std@@@2@V?$allocator@U?$pair@$$CBV?$basic_string@DU?$char_traits@D@std@@V?$allocator@D@2@@std@@V12@@std@@@2@@4@@Z" PURGE="8" COMMENT="" />
    <EXPORT ORDINAL="3435" NAME="?firePostUpdate@RenderTarget@Ogre@@MAEXXZ" PURGE="0" COMMENT="" />
    <EXPORT ORDINAL="3436" NAME="?firePreUpdate@RenderTarget@Ogre@@MAEXXZ" PURGE="0" COMMENT="" />
    <EXPORT ORDINAL="3437" NAME="?fireRenderQueueEnded@SceneManager@Ogre@@IAE_NEABV?$basic_string@DU?$char_traits@D@std@@V?$allocator@D@2@@std@@@Z" PURGE="8" COMMENT="" />
    <EXPORT ORDINAL="3438" NAME="?fireRenderQueueStarted@SceneManager@Ogre@@IAE_NEABV?$basic_string@DU?$char_traits@D@std@@V?$allocator@D@2@@std@@@Z" PURGE="8" COMMENT="" />
    <EXPORT ORDINAL="3439" NAME="?fireResourceEnded@ResourceGroupManager@Ogre@@IAEXXZ" PURGE="0" COMMENT="" />
    <EXPORT ORDINAL="3440" NAME="?fireResourceGroupLoadEnded@ResourceGroupManager@Ogre@@IAEXABV?$basic_string@DU?$char_traits@D@std@@V?$allocator@D@2@@std@@@Z" PURGE="4" COMMENT="" />
    <EXPORT ORDINAL="3441" NAME="?fireResourceGroupLoadStarted@ResourceGroupManager@Ogre@@IAEXABV?$basic_string@DU?$char_traits@D@std@@V?$allocator@D@2@@std@@I@Z" PURGE="8" COMMENT="" />
    <EXPORT ORDINAL="3442" NAME="?fireResourceGroupScriptingEnded@ResourceGroupManager@Ogre@@IAEXABV?$basic_string@DU?$char_traits@D@std@@V?$allocator@D@2@@std@@@Z" PURGE="4" COMMENT="" />
    <EXPORT ORDINAL="3443" NAME="?fireResourceGroupScriptingStarted@ResourceGroupManager@Ogre@@IAEXABV?$basic_string@DU?$char_traits@D@std@@V?$allocator@D@2@@std@@I@Z" PURGE="8" COMMENT="" />
    <EXPORT ORDINAL="3444" NAME="?fireResourceStarted@ResourceGroupManager@Ogre@@IAEXABV?$SharedPtr@VResource@Ogre@@@2@@Z" PURGE="4" COMMENT="" />
    <EXPORT ORDINAL="3445" NAME="?fireScriptEnded@ResourceGroupManager@Ogre@@IAEXXZ" PURGE="0" COMMENT="" />
    <EXPORT ORDINAL="3446" NAME="?fireScriptStarted@ResourceGroupManager@Ogre@@IAEXABV?$basic_string@DU?$char_traits@D@std@@V?$allocator@D@2@@std@@@Z" PURGE="4" COMMENT="" />
    <EXPORT ORDINAL="3447" NAME="?fireShadowTexturesPreCaster@SceneManager@Ogre@@IAEXPAVLight@2@PAVCamera@2@@Z" PURGE="8" COMMENT="" />
    <EXPORT ORDINAL="3448" NAME="?fireShadowTexturesPreReceiver@SceneManager@Ogre@@IAEXPAVLight@2@PAVFrustum@2@@Z" PURGE="8" COMMENT="" />
    <EXPORT ORDINAL="3449" NAME="?fireShadowTexturesUpdated@SceneManager@Ogre@@IAEXI@Z" PURGE="4" COMMENT="" />
    <EXPORT ORDINAL="3450" NAME="?fireViewportAdded@RenderTarget@Ogre@@MAEXPAVViewport@2@@Z" PURGE="4" COMMENT="" />
    <EXPORT ORDINAL="3451" NAME="?fireViewportPostUpdate@RenderTarget@Ogre@@MAEXPAVViewport@2@@Z" PURGE="4" COMMENT="" />
    <EXPORT ORDINAL="3452" NAME="?fireViewportPreUpdate@RenderTarget@Ogre@@MAEXPAVViewport@2@@Z" PURGE="4" COMMENT="" />
    <EXPORT ORDINAL="3453" NAME="?fireViewportRemoved@RenderTarget@Ogre@@MAEXPAVViewport@2@@Z" PURGE="4" COMMENT="" />
    <EXPORT ORDINAL="3454" NAME="?flipAroundX@Image@Ogre@@QAEAAV12@XZ" PURGE="0" COMMENT="" />
    <EXPORT ORDINAL="3455" NAME="?flipAroundY@Image@Ogre@@QAEAAV12@XZ" PURGE="-1" COMMENT="" />
    <EXPORT ORDINAL="3456" NAME="?flipEndian@Serializer@Ogre@@MAEXPAXI@Z" PURGE="8" COMMENT="" />
    <EXPORT ORDINAL="3457" NAME="?flipEndian@Serializer@Ogre@@MAEXPAXII@Z" PURGE="12" COMMENT="" />
    <EXPORT ORDINAL="3458" NAME="?flipFromLittleEndian@Serializer@Ogre@@MAEXPAXII@Z" PURGE="12" COMMENT="" />
    <EXPORT ORDINAL="3459" NAME="?flipToLittleEndian@Serializer@Ogre@@MAEXPAXII@Z" PURGE="12" COMMENT="" />
    <EXPORT ORDINAL="3460" NAME="?flipVisibility@SceneNode@Ogre@@UAEX_N@Z" PURGE="4" COMMENT="" />
    <EXPORT ORDINAL="3461" NAME="?flush@VertexCacheProfiler@Ogre@@QAEXXZ" PURGE="0" COMMENT="" />
    <EXPORT ORDINAL="3462" NAME="?forwardIntersect@Camera@Ogre@@UBEXABVPlane@2@PAV?$vector@VVector4@Ogre@@V?$allocator@VVector4@Ogre@@@std@@@std@@@Z" PURGE="8" COMMENT="" />
    <EXPORT ORDINAL="3463" NAME="?frameEnded@FrameListener@Ogre@@UAE_NABUFrameEvent@2@@Z" PURGE="4" COMMENT="" />
    <EXPORT ORDINAL="3464" NAME="?frameEnded@FrameTimeControllerValue@Ogre@@UAE_NABUFrameEvent@2@@Z" PURGE="4" COMMENT="" />
    <EXPORT ORDINAL="3465" NAME="?frameStarted@EventProcessor@Ogre@@UAE_NABUFrameEvent@2@@Z" PURGE="4" COMMENT="" />
    <EXPORT ORDINAL="3466" NAME="?frameStarted@FrameListener@Ogre@@UAE_NABUFrameEvent@2@@Z" PURGE="4" COMMENT="" />
    <EXPORT ORDINAL="3467" NAME="?frameStarted@FrameTimeControllerValue@Ogre@@UAE_NABUFrameEvent@2@@Z" PURGE="4" COMMENT="" />
    <EXPORT ORDINAL="3468" NAME="?freeChains@CompositorManager@Ogre@@AAEXXZ" PURGE="0" COMMENT="" />
    <EXPORT ORDINAL="3469" NAME="?freeData@Image@Ogre@@QAEXXZ" PURGE="0" COMMENT="" />
    <EXPORT ORDINAL="3470" NAME="?freeEdgeList@Mesh@Ogre@@QAEXXZ" PURGE="0" COMMENT="" />
    <EXPORT ORDINAL="3471" NAME="?freeInternalResources@Texture@Ogre@@UAEXXZ" PURGE="0" COMMENT="" />
    <EXPORT ORDINAL="3472" NAME="?freePolygon@ConvexBody@Ogre@@KAXPAVPolygon@2@@Z" PURGE="0" COMMENT="" />
    <EXPORT ORDINAL="3473" NAME="?freeResources@CompositorInstance@Ogre@@AAEXXZ" PURGE="0" COMMENT="" />
    <EXPORT ORDINAL="3474" NAME="?freeTagPoint@SkeletonInstance@Ogre@@QAEXPAVTagPoint@2@@Z" PURGE="4" COMMENT="" />
    <EXPORT ORDINAL="3475" NAME="?gaussianDistribution@Math@Ogre@@SAMMMM@Z" PURGE="0" COMMENT="" />
    <EXPORT ORDINAL="3476" NAME="?genBillboardAxes@BillboardSet@Ogre@@IAEXPAVVector3@2@0PBVBillboard@2@@Z" PURGE="12" COMMENT="" />
    <EXPORT ORDINAL="3477" NAME="?genConstantEmissionCount@ParticleEmitter@Ogre@@MAEGM@Z" PURGE="4" COMMENT="" />
    <EXPORT ORDINAL="3478" NAME="?genEmissionColour@ParticleEmitter@Ogre@@MAEXAAVColourValue@2@@Z" PURGE="4" COMMENT="" />
    <EXPORT ORDINAL="3479" NAME="?genEmissionDirection@ParticleEmitter@Ogre@@MAEXAAVVector3@2@@Z" PURGE="4" COMMENT="" />
    <EXPORT ORDINAL="3480" NAME="?genEmissionTTL@ParticleEmitter@Ogre@@MAEMXZ" PURGE="0" COMMENT="" />
    <EXPORT ORDINAL="3481" NAME="?genEmissionVelocity@ParticleEmitter@Ogre@@MAEXAAVVector3@2@@Z" PURGE="4" COMMENT="" />
    <EXPORT ORDINAL="3482" NAME="?genVertOffsets@BillboardSet@Ogre@@IAEXMMMMMMABVVector3@2@0PAV32@@Z" PURGE="36" COMMENT="" />
    <EXPORT ORDINAL="3483" NAME="?genVertices@BillboardSet@Ogre@@IAEXQBVVector3@2@ABVBillboard@2@@Z" PURGE="8" COMMENT="" />
    <EXPORT ORDINAL="3484" NAME="?generateLodLevels@Mesh@Ogre@@QAEXABV?$vector@MV?$allocator@M@std@@@std@@W4VertexReductionQuota@ProgressiveMesh@2@M@Z" PURGE="12" COMMENT="" />
    <EXPORT ORDINAL="3485" NAME="?generateShadowVolume@ShadowCaster@Ogre@@MAEXPAVEdgeData@2@ABVHardwareIndexBufferSharedPtr@2@PBVLight@2@AAV?$vector@PAVShadowRenderable@Ogre@@V?$allocator@PAVShadowRenderable@Ogre@@@std@@@std@@K@Z" PURGE="20" COMMENT="" />
    <EXPORT ORDINAL="3486" NAME="?generateUniqueName@Root@Ogre@@QAE?AV?$basic_string@DU?$char_traits@D@std@@V?$allocator@D@2@@std@@ABV34@@Z" PURGE="8" COMMENT="" />
    <EXPORT ORDINAL="3487" NAME="?get2DElementsIterator@Overlay@Ogre@@QAE?AV?$VectorIterator@V?$list@PAVOverlayContainer@Ogre@@V?$allocator@PAVOverlayContainer@Ogre@@@std@@@std@@@2@XZ" PURGE="4" COMMENT="" />
    <EXPORT ORDINAL="3488" NAME="?get@?$SharedPtr@VCompositor@Ogre@@@Ogre@@QBEPAVCompositor@2@XZ" PURGE="0" COMMENT="" />
    <EXPORT ORDINAL="3489" NAME="?get@?$SharedPtr@VFont@Ogre@@@Ogre@@QBEPAVFont@2@XZ" PURGE="0" COMMENT="" />
    <EXPORT ORDINAL="3490" NAME="?get@?$SharedPtr@VGpuProgram@Ogre@@@Ogre@@QBEPAVGpuProgram@2@XZ" PURGE="0" COMMENT="" />
    <EXPORT ORDINAL="3491" NAME="?get@?$SharedPtr@VHardwareIndexBuffer@Ogre@@@Ogre@@QBEPAVHardwareIndexBuffer@2@XZ" PURGE="0" COMMENT="" />
    <EXPORT ORDINAL="3492" NAME="?get@?$SharedPtr@VHardwarePixelBuffer@Ogre@@@Ogre@@QBEPAVHardwarePixelBuffer@2@XZ" PURGE="0" COMMENT="" />
    <EXPORT ORDINAL="3493" NAME="?get@?$SharedPtr@VHardwareVertexBuffer@Ogre@@@Ogre@@QBEPAVHardwareVertexBuffer@2@XZ" PURGE="0" COMMENT="" />
    <EXPORT ORDINAL="3494" NAME="?get@?$SharedPtr@VHighLevelGpuProgram@Ogre@@@Ogre@@QBEPAVHighLevelGpuProgram@2@XZ" PURGE="0" COMMENT="" />
    <EXPORT ORDINAL="3495" NAME="?get@?$SharedPtr@VMaterial@Ogre@@@Ogre@@QBEPAVMaterial@2@XZ" PURGE="0" COMMENT="" />
    <EXPORT ORDINAL="3496" NAME="?get@?$SharedPtr@VMesh@Ogre@@@Ogre@@QBEPAVMesh@2@XZ" PURGE="0" COMMENT="" />
    <EXPORT ORDINAL="3497" NAME="?get@?$SharedPtr@VPatchMesh@Ogre@@@Ogre@@QBEPAVPatchMesh@2@XZ" PURGE="0" COMMENT="" />
    <EXPORT ORDINAL="3498" NAME="?get@?$SharedPtr@VSkeleton@Ogre@@@Ogre@@QBEPAVSkeleton@2@XZ" PURGE="0" COMMENT="" />
    <EXPORT ORDINAL="3499" NAME="?get@?$SharedPtr@VTexture@Ogre@@@Ogre@@QBEPAVTexture@2@XZ" PURGE="0" COMMENT="" />
    <EXPORT ORDINAL="3500" NAME="?get@RenderQueueInvocationSequence@Ogre@@QAEPAVRenderQueueInvocation@2@I@Z" PURGE="4" COMMENT="" />
    <EXPORT ORDINAL="3501" NAME="?getAABB@ConvexBody@Ogre@@QBE?AVAxisAlignedBox@2@XZ" PURGE="4" COMMENT="" />
    <EXPORT ORDINAL="3502" NAME="?getActiveScheme@MaterialManager@Ogre@@UBEABV?$basic_string@DU?$char_traits@D@std@@V?$allocator@D@2@@std@@XZ" PURGE="0" COMMENT="" />
    <EXPORT ORDINAL="3503" NAME="?getActualDimensions@Viewport@Ogre@@QBEXAAH000@Z" PURGE="16" COMMENT="" />
    <EXPORT ORDINAL="3504" NAME="?getActualHeight@Viewport@Ogre@@QBEHXZ" PURGE="0" COMMENT="" />
    <EXPORT ORDINAL="3505" NAME="?getActualLeft@Viewport@Ogre@@QBEHXZ" PURGE="0" COMMENT="" />
    <EXPORT ORDINAL="3506" NAME="?getActualTop@Viewport@Ogre@@QBEHXZ" PURGE="0" COMMENT="" />
    <EXPORT ORDINAL="3507" NAME="?getActualWidth@Viewport@Ogre@@QBEHXZ" PURGE="0" COMMENT="" />
    <EXPORT ORDINAL="3508" NAME="?getAdjustedInput@?$ControllerFunction@M@Ogre@@IAEMM@Z" PURGE="4" COMMENT="" />
    <EXPORT ORDINAL="3509" NAME="?getAdjustedInput@WaveformControllerFunction@Ogre@@IAEMM@Z" PURGE="4" COMMENT="" />
    <EXPORT ORDINAL="3510" NAME="?getAffector@ParticleSystem@Ogre@@QBEPAVParticleAffector@2@G@Z" PURGE="4" COMMENT="" />
    <EXPORT ORDINAL="3511" NAME="?getAffectorFactoryIterator@ParticleSystemManager@Ogre@@QAE?AV?$MapIterator@V?$map@V?$basic_string@DU?$char_traits@D@std@@V?$allocator@D@2@@std@@PAVParticleAffectorFactory@Ogre@@U?$less@V?$basic_string@DU?$char_traits@D@std@@V?$allocator@D@2@@std@@@2@V?$allocator@U?$pair@$$CBV?$basic_string@DU?$char_traits@D@std@@V?$allocator@D@2@@std@@PAVParticleAffectorFactory@Ogre@@@std@@@2@@std@@@2@XZ" PURGE="4" COMMENT="" />
    <EXPORT ORDINAL="3512" NAME="?getAliasTextureIterator@SubMesh@Ogre@@QBE?AV?$ConstMapIterator@V?$map@V?$basic_string@DU?$char_traits@D@std@@V?$allocator@D@2@@std@@V12@U?$less@V?$basic_string@DU?$char_traits@D@std@@V?$allocator@D@2@@std@@@2@V?$allocator@U?$pair@$$CBV?$basic_string@DU?$char_traits@D@std@@V?$allocator@D@2@@std@@V12@@std@@@2@@std@@@2@XZ" PURGE="4" COMMENT="" />
    <EXPORT ORDINAL="3513" NAME="?getAlignment@TextAreaOverlayElement@Ogre@@QBE?AW4Alignment@12@XZ" PURGE="0" COMMENT="" />
    <EXPORT ORDINAL="3514" NAME="?getAllAnimationStates@Entity@Ogre@@QBEPAVAnimationStateSet@2@XZ" PURGE="0" COMMENT="" />
    <EXPORT ORDINAL="3515" NAME="?getAllCorners@AxisAlignedBox@Ogre@@QBEXQAVVector3@2@@Z" PURGE="4" COMMENT="" />
    <EXPORT ORDINAL="3516" NAME="?getAlphaBlendMode@TextureUnitState@Ogre@@QBEABVLayerBlendModeEx@2@XZ" PURGE="0" COMMENT="" />
    <EXPORT ORDINAL="3517" NAME="?getAlphaRejectFunction@Pass@Ogre@@QBE?AW4CompareFunction@2@XZ" PURGE="0" COMMENT="" />
    <EXPORT ORDINAL="3518" NAME="?getAlphaRejectValue@Pass@Ogre@@QBEEXZ" PURGE="0" COMMENT="" />
    <EXPORT ORDINAL="3519" NAME="?getAmbient@Pass@Ogre@@QBEABVColourValue@2@XZ" PURGE="0" COMMENT="" />
    <EXPORT ORDINAL="3520" NAME="?getAmbientLight@SceneManager@Ogre@@QBEABVColourValue@2@XZ" PURGE="0" COMMENT="" />
    <EXPORT ORDINAL="3521" NAME="?getAmbientLightColour@AutoParamDataSource@Ogre@@QBEABVColourValue@2@XZ" PURGE="0" COMMENT="" />
    <EXPORT ORDINAL="3522" NAME="?getAngle@ParticleEmitter@Ogre@@UBEABVRadian@2@XZ" PURGE="0" COMMENT="" />
    <EXPORT ORDINAL="3523" NAME="?getAngleUnit@Math@Ogre@@SA?AW4AngleUnit@12@XZ" PURGE="0" COMMENT="" />
    <EXPORT ORDINAL="3524" NAME="?getAnimableDictionaryName@AnimableObject@Ogre@@MBEABV?$basic_string@DU?$char_traits@D@std@@V?$allocator@D@2@@std@@XZ" PURGE="0" COMMENT="" />
    <EXPORT ORDINAL="3525" NAME="?getAnimableDictionaryName@Light@Ogre@@MBEABV?$basic_string@DU?$char_traits@D@std@@V?$allocator@D@2@@std@@XZ" PURGE="0" COMMENT="" />
    <EXPORT ORDINAL="3526" NAME="?getAnimableValueNames@AnimableObject@Ogre@@QBEABV?$vector@V?$basic_string@DU?$char_traits@D@std@@V?$allocator@D@2@@std@@V?$allocator@V?$basic_string@DU?$char_traits@D@std@@V?$allocator@D@2@@std@@@2@@std@@XZ" PURGE="0" COMMENT="" />
    <EXPORT ORDINAL="3527" NAME="?getAnimation@Mesh@Ogre@@UBEPAVAnimation@2@ABV?$basic_string@DU?$char_traits@D@std@@V?$allocator@D@2@@std@@@Z" PURGE="4" COMMENT="" />
    <EXPORT ORDINAL="3528" NAME="?getAnimation@Mesh@Ogre@@UBEPAVAnimation@2@G@Z" PURGE="4" COMMENT="" />
    <EXPORT ORDINAL="3529" NAME="?getAnimation@SceneManager@Ogre@@UBEPAVAnimation@2@ABV?$basic_string@DU?$char_traits@D@std@@V?$allocator@D@2@@std@@@Z" PURGE="4" COMMENT="" />
    <EXPORT ORDINAL="3530" NAME="?getAnimation@Skeleton@Ogre@@UBEPAVAnimation@2@ABV?$basic_string@DU?$char_traits@D@std@@V?$allocator@D@2@@std@@PAPBULinkedSkeletonAnimationSource@2@@Z" PURGE="8" COMMENT="" />
    <EXPORT ORDINAL="3531" NAME="?getAnimation@Skeleton@Ogre@@UBEPAVAnimation@2@G@Z" PURGE="4" COMMENT="" />
    <EXPORT ORDINAL="3532" NAME="?getAnimation@SkeletonInstance@Ogre@@UBEPAVAnimation@2@ABV?$basic_string@DU?$char_traits@D@std@@V?$allocator@D@2@@std@@PAPBULinkedSkeletonAnimationSource@2@@Z" PURGE="-1" COMMENT="" />
    <EXPORT ORDINAL="3533" NAME="?getAnimation@SkeletonInstance@Ogre@@UBEPAVAnimation@2@G@Z" PURGE="-1" COMMENT="" />
    <EXPORT ORDINAL="3534" NAME="?getAnimationDuration@TextureUnitState@Ogre@@QBEMXZ" PURGE="0" COMMENT="" />
    <EXPORT ORDINAL="3535" NAME="?getAnimationIterator@SceneManager@Ogre@@QAE?AV?$MapIterator@V?$map@V?$basic_string@DU?$char_traits@D@std@@V?$allocator@D@2@@std@@PAVAnimation@Ogre@@U?$less@V?$basic_string@DU?$char_traits@D@std@@V?$allocator@D@2@@std@@@2@V?$allocator@U?$pair@$$CBV?$basic_string@DU?$char_traits@D@std@@V?$allocator@D@2@@std@@PAVAnimation@Ogre@@@std@@@2@@std@@@2@XZ" PURGE="4" COMMENT="" />
    <EXPORT ORDINAL="3536" NAME="?getAnimationName@AnimationState@Ogre@@QBEABV?$basic_string@DU?$char_traits@D@std@@V?$allocator@D@2@@std@@XZ" PURGE="0" COMMENT="" />
    <EXPORT ORDINAL="3537" NAME="?getAnimationState@AnimationStateSet@Ogre@@QBEPAVAnimationState@2@ABV?$basic_string@DU?$char_traits@D@std@@V?$allocator@D@2@@std@@@Z" PURGE="4" COMMENT="" />
    <EXPORT ORDINAL="3538" NAME="?getAnimationState@Entity@Ogre@@QBEPAVAnimationState@2@ABV?$basic_string@DU?$char_traits@D@std@@V?$allocator@D@2@@std@@@Z" PURGE="4" COMMENT="" />
    <EXPORT ORDINAL="3539" NAME="?getAnimationState@SceneManager@Ogre@@UAEPAVAnimationState@2@ABV?$basic_string@DU?$char_traits@D@std@@V?$allocator@D@2@@std@@@Z" PURGE="4" COMMENT="" />
    <EXPORT ORDINAL="3540" NAME="?getAnimationStateIterator@AnimationStateSet@Ogre@@QAE?AV?$MapIterator@V?$map@V?$basic_string@DU?$char_traits@D@std@@V?$allocator@D@2@@std@@PAVAnimationState@Ogre@@U?$less@V?$basic_string@DU?$char_traits@D@std@@V?$allocator@D@2@@std@@@2@V?$fast_pool_allocator@U?$pair@$$CBV?$basic_string@DU?$char_traits@D@std@@V?$allocator@D@2@@std@@PAVAnimationState@Ogre@@@std@@Udefault_user_allocator_new_delete@boost@@Vspin_mutex@pool@details@4@$0CA@@boost@@@std@@@2@XZ" PURGE="4" COMMENT="" />
    <EXPORT ORDINAL="3541" NAME="?getAnimationStateIterator@AnimationStateSet@Ogre@@QBE?AV?$ConstMapIterator@V?$map@V?$basic_string@DU?$char_traits@D@std@@V?$allocator@D@2@@std@@PAVAnimationState@Ogre@@U?$less@V?$basic_string@DU?$char_traits@D@std@@V?$allocator@D@2@@std@@@2@V?$fast_pool_allocator@U?$pair@$$CBV?$basic_string@DU?$char_traits@D@std@@V?$allocator@D@2@@std@@PAVAnimationState@Ogre@@@std@@Udefault_user_allocator_new_delete@boost@@Vspin_mutex@pool@details@4@$0CA@@boost@@@std@@@2@XZ" PURGE="4" COMMENT="" />
    <EXPORT ORDINAL="3542" NAME="?getAnimationStateIterator@SceneManager@Ogre@@QAE?AV?$MapIterator@V?$map@V?$basic_string@DU?$char_traits@D@std@@V?$allocator@D@2@@std@@PAVAnimationState@Ogre@@U?$less@V?$basic_string@DU?$char_traits@D@std@@V?$allocator@D@2@@std@@@2@V?$fast_pool_allocator@U?$pair@$$CBV?$basic_string@DU?$char_traits@D@std@@V?$allocator@D@2@@std@@PAVAnimationState@Ogre@@@std@@Udefault_user_allocator_new_delete@boost@@Vspin_mutex@pool@details@4@$0CA@@boost@@@std@@@2@XZ" PURGE="4" COMMENT="" />
    <EXPORT ORDINAL="3543" NAME="?getAnimationType@VertexAnimationTrack@Ogre@@QBE?AW4VertexAnimationType@2@XZ" PURGE="0" COMMENT="" />
    <EXPORT ORDINAL="3544" NAME="?getAntialiasColour@Font@Ogre@@QBE_NXZ" PURGE="0" COMMENT="" />
    <EXPORT ORDINAL="3545" NAME="?getAs4DVector@Light@Ogre@@QBE?AVVector4@2@XZ" PURGE="4" COMMENT="" />
    <EXPORT ORDINAL="3546" NAME="?getAsABGR@ColourValue@Ogre@@QBEIXZ" PURGE="-1" COMMENT="" />
    <EXPORT ORDINAL="3547" NAME="?getAsABGR_Bootstrap@ColourValue@Ogre@@IBEIXZ" PURGE="-1" COMMENT="" />
    <EXPORT ORDINAL="3548" NAME="?getAsABGR_General@ColourValue@Ogre@@IBEIXZ" PURGE="0" COMMENT="" />
    <EXPORT ORDINAL="3549" NAME="?getAsABGR_SSE@ColourValue@Ogre@@IBEIXZ" PURGE="0" COMMENT="" />
    <EXPORT ORDINAL="3550" NAME="?getAsARGB@ColourValue@Ogre@@QBEIXZ" PURGE="-1" COMMENT="" />
    <EXPORT ORDINAL="3551" NAME="?getAsARGB_Bootstrap@ColourValue@Ogre@@IBEIXZ" PURGE="-1" COMMENT="" />
    <EXPORT ORDINAL="3552" NAME="?getAsARGB_General@ColourValue@Ogre@@IBEIXZ" PURGE="0" COMMENT="" />
    <EXPORT ORDINAL="3553" NAME="?getAsARGB_SSE@ColourValue@Ogre@@IBEIXZ" PURGE="0" COMMENT="" />
    <EXPORT ORDINAL="3554" NAME="?getAsBGRA@ColourValue@Ogre@@QBEIXZ" PURGE="-1" COMMENT="" />
    <EXPORT ORDINAL="3555" NAME="?getAsBGRA_Bootstrap@ColourValue@Ogre@@IBEIXZ" PURGE="-1" COMMENT="" />
    <EXPORT ORDINAL="3556" NAME="?getAsBGRA_General@ColourValue@Ogre@@IBEIXZ" PURGE="0" COMMENT="" />
    <EXPORT ORDINAL="3557" NAME="?getAsBGRA_SSE@ColourValue@Ogre@@IBEIXZ" PURGE="0" COMMENT="" />
    <EXPORT ORDINAL="3558" NAME="?getAsRGBA@ColourValue@Ogre@@QBEIXZ" PURGE="-1" COMMENT="" />
    <EXPORT ORDINAL="3559" NAME="?getAsRGBA_Bootstrap@ColourValue@Ogre@@IBEIXZ" PURGE="-1" COMMENT="" />
    <EXPORT ORDINAL="3560" NAME="?getAsRGBA_General@ColourValue@Ogre@@IBEIXZ" PURGE="0" COMMENT="" />
    <EXPORT ORDINAL="3561" NAME="?getAsRGBA_SSE@ColourValue@Ogre@@IBEIXZ" PURGE="0" COMMENT="" />
    <EXPORT ORDINAL="3562" NAME="?getAsString@DataStream@Ogre@@UAE?AV?$basic_string@DU?$char_traits@D@std@@V?$allocator@D@2@@std@@XZ" PURGE="4" COMMENT="" />
    <EXPORT ORDINAL="3563" NAME="?getAspectRatio@Frustum@Ogre@@UBEMXZ" PURGE="0" COMMENT="" />
    <EXPORT ORDINAL="3564" NAME="?getAssociatedAnimable@NumericAnimationTrack@Ogre@@UBEABV?$SharedPtr@VAnimableValue@Ogre@@@2@XZ" PURGE="0" COMMENT="" />
    <EXPORT ORDINAL="3565" NAME="?getAssociatedNode@NodeAnimationTrack@Ogre@@UBEPAVNode@2@XZ" PURGE="0" COMMENT="" />
    <EXPORT ORDINAL="3566" NAME="?getAssociatedVertexData@VertexAnimationTrack@Ogre@@QBEPAVVertexData@2@XZ" PURGE="0" COMMENT="" />
    <EXPORT ORDINAL="3567" NAME="?getAttachedObject@SceneNode@Ogre@@UAEPAVMovableObject@2@ABV?$basic_string@DU?$char_traits@D@std@@V?$allocator@D@2@@std@@@Z" PURGE="4" COMMENT="" />
    <EXPORT ORDINAL="3568" NAME="?getAttachedObject@SceneNode@Ogre@@UAEPAVMovableObject@2@G@Z" PURGE="4" COMMENT="" />
    <EXPORT ORDINAL="3569" NAME="?getAttachedObjectIterator@Entity@Ogre@@QAE?AV?$MapIterator@V?$map@V?$basic_string@DU?$char_traits@D@std@@V?$allocator@D@2@@std@@PAVMovableObject@Ogre@@U?$less@V?$basic_string@DU?$char_traits@D@std@@V?$allocator@D@2@@std@@@2@V?$allocator@U?$pair@$$CBV?$basic_string@DU?$char_traits@D@std@@V?$allocator@D@2@@std@@PAVMovableObject@Ogre@@@std@@@2@@std@@@2@XZ" PURGE="4" COMMENT="" />
    <EXPORT ORDINAL="3570" NAME="?getAttachedObjectIterator@SceneNode@Ogre@@UAE?AV?$MapIterator@V?$hash_map@V?$basic_string@DU?$char_traits@D@std@@V?$allocator@D@2@@std@@PAVMovableObject@Ogre@@V?$hash_compare@V?$basic_string@DU?$char_traits@D@std@@V?$allocator@D@2@@std@@U?$less@V?$basic_string@DU?$char_traits@D@std@@V?$allocator@D@2@@std@@@2@@stdext@@V?$allocator@U?$pair@$$CBV?$basic_string@DU?$char_traits@D@std@@V?$allocator@D@2@@std@@PAVMovableObject@Ogre@@@std@@@2@@stdext@@@2@XZ" PURGE="4" COMMENT="" />
    <EXPORT ORDINAL="3571" NAME="?getAttachedObjectIterator@SceneNode@Ogre@@UBE?AV?$ConstMapIterator@V?$hash_map@V?$basic_string@DU?$char_traits@D@std@@V?$allocator@D@2@@std@@PAVMovableObject@Ogre@@V?$hash_compare@V?$basic_string@DU?$char_traits@D@std@@V?$allocator@D@2@@std@@U?$less@V?$basic_string@DU?$char_traits@D@std@@V?$allocator@D@2@@std@@@2@@stdext@@V?$allocator@U?$pair@$$CBV?$basic_string@DU?$char_traits@D@std@@V?$allocator@D@2@@std@@PAVMovableObject@Ogre@@@std@@@2@@stdext@@@2@XZ" PURGE="4" COMMENT="" />
    <EXPORT ORDINAL="3572" NAME="?getAttenuationConstant@Light@Ogre@@QBEMXZ" PURGE="0" COMMENT="" />
    <EXPORT ORDINAL="3573" NAME="?getAttenuationLinear@Light@Ogre@@QBEMXZ" PURGE="0" COMMENT="" />
    <EXPORT ORDINAL="3574" NAME="?getAttenuationQuadric@Light@Ogre@@QBEMXZ" PURGE="0" COMMENT="" />
    <EXPORT ORDINAL="3575" NAME="?getAttenuationRange@Light@Ogre@@QBEMXZ" PURGE="0" COMMENT="" />
    <EXPORT ORDINAL="3576" NAME="?getAutoAspectRatio@Camera@Ogre@@QBE_NXZ" PURGE="0" COMMENT="" />
    <EXPORT ORDINAL="3577" NAME="?getAutoBuildEdgeLists@Mesh@Ogre@@QBE_NXZ" PURGE="0" COMMENT="" />
    <EXPORT ORDINAL="3578" NAME="?getAutoConstantCount@GpuProgramParameters@Ogre@@QBEIXZ" PURGE="0" COMMENT="" />
    <EXPORT ORDINAL="3579" NAME="?getAutoConstantDefinition@GpuProgramParameters@Ogre@@SAPBUAutoConstantDefinition@12@ABV?$basic_string@DU?$char_traits@D@std@@V?$allocator@D@2@@std@@@Z" PURGE="0" COMMENT="" />
    <EXPORT ORDINAL="3580" NAME="?getAutoConstantDefinition@GpuProgramParameters@Ogre@@SAPBUAutoConstantDefinition@12@I@Z" PURGE="0" COMMENT="" />
    <EXPORT ORDINAL="3581" NAME="?getAutoConstantEntry@GpuProgramParameters@Ogre@@QAEPAVAutoConstantEntry@12@I@Z" PURGE="4" COMMENT="" />
    <EXPORT ORDINAL="3582" NAME="?getAutoConstantIterator@GpuProgramParameters@Ogre@@QBE?AV?$ConstVectorIterator@V?$vector@VAutoConstantEntry@GpuProgramParameters@Ogre@@V?$allocator@VAutoConstantEntry@GpuProgramParameters@Ogre@@@std@@@std@@@2@XZ" PURGE="4" COMMENT="" />
    <EXPORT ORDINAL="3583" NAME="?getAutoCreatedWindow@Root@Ogre@@QAEPAVRenderWindow@2@XZ" PURGE="0" COMMENT="" />
    <EXPORT ORDINAL="3584" NAME="?getAutoOrganisedDeclaration@VertexDeclaration@Ogre@@QAEPAV12@_N0@Z" PURGE="8" COMMENT="" />
    <EXPORT ORDINAL="3585" NAME="?getAutoTrackLocalDirection@SceneNode@Ogre@@UAEABVVector3@2@XZ" PURGE="0" COMMENT="" />
    <EXPORT ORDINAL="3586" NAME="?getAutoTrackOffset@Camera@Ogre@@QBEABVVector3@2@XZ" PURGE="0" COMMENT="" />
    <EXPORT ORDINAL="3587" NAME="?getAutoTrackOffset@SceneNode@Ogre@@UAEABVVector3@2@XZ" PURGE="0" COMMENT="" />
    <EXPORT ORDINAL="3588" NAME="?getAutoTrackTarget@Camera@Ogre@@QBEPAVSceneNode@2@XZ" PURGE="0" COMMENT="" />
    <EXPORT ORDINAL="3589" NAME="?getAutoTrackTarget@SceneNode@Ogre@@UAEPAV12@XZ" PURGE="0" COMMENT="" />
    <EXPORT ORDINAL="3590" NAME="?getAutoULevel@PatchSurface@Ogre@@IAEI_N@Z" PURGE="4" COMMENT="" />
    <EXPORT ORDINAL="3591" NAME="?getAutoVLevel@PatchSurface@Ogre@@IAEI_N@Z" PURGE="4" COMMENT="" />
    <EXPORT ORDINAL="3592" NAME="?getAutoextend@BillboardSet@Ogre@@UBE_NXZ" PURGE="0" COMMENT="" />
    <EXPORT ORDINAL="3593" NAME="?getAvailableRenderers@Root@Ogre@@QAEPAV?$vector@PAVRenderSystem@Ogre@@V?$allocator@PAVRenderSystem@Ogre@@@std@@@std@@XZ" PURGE="0" COMMENT="" />
    <EXPORT ORDINAL="3594" NAME="?getAverageFPS@RenderTarget@Ogre@@UBEMXZ" PURGE="0" COMMENT="" />
    <EXPORT ORDINAL="3595" NAME="?getBNFExpressionOfPixelFormats@PixelUtil@Ogre@@SA?AV?$basic_string@DU?$char_traits@D@std@@V?$allocator@D@2@@std@@_N@Z" PURGE="0" COMMENT="" />
    <EXPORT ORDINAL="3596" NAME="?getBNFGrammerTextFromRulePath@Compiler2Pass@Ogre@@IAE?AV?$basic_string@DU?$char_traits@D@std@@V?$allocator@D@2@@std@@II@Z" PURGE="12" COMMENT="" />
    <EXPORT ORDINAL="3597" NAME="?getBPP@Image@Ogre@@QBEEXZ" PURGE="0" COMMENT="" />
    <EXPORT ORDINAL="3598" NAME="?getBackgroundColour@Viewport@Ogre@@QBEABVColourValue@2@XZ" PURGE="0" COMMENT="" />
    <EXPORT ORDINAL="3599" NAME="?getBaseType@VertexElement@Ogre@@SA?AW4VertexElementType@2@W432@@Z" PURGE="0" COMMENT="" />
    <EXPORT ORDINAL="3600" NAME="?getBatchCount@RenderTarget@Ogre@@UBEIXZ" PURGE="0" COMMENT="" />
    <EXPORT ORDINAL="3601" NAME="?getBestColourVertexElementType@VertexElement@Ogre@@SA?AW4VertexElementType@2@XZ" PURGE="0" COMMENT="" />
    <EXPORT ORDINAL="3602" NAME="?getBestFPS@RenderTarget@Ogre@@UBEMXZ" PURGE="0" COMMENT="" />
    <EXPORT ORDINAL="3603" NAME="?getBestFrameTime@RenderTarget@Ogre@@UBEMXZ" PURGE="0" COMMENT="" />
    <EXPORT ORDINAL="3604" NAME="?getBestTechnique@Material@Ogre@@QAEPAVTechnique@2@G@Z" PURGE="4" COMMENT="" />
    <EXPORT ORDINAL="3605" NAME="?getBillboard@BillboardSet@Ogre@@UBEPAVBillboard@2@I@Z" PURGE="4" COMMENT="" />
    <EXPORT ORDINAL="3606" NAME="?getBillboardChain@SceneManager@Ogre@@UAEPAVBillboardChain@2@ABV?$basic_string@DU?$char_traits@D@std@@V?$allocator@D@2@@std@@@Z" PURGE="4" COMMENT="" />
    <EXPORT ORDINAL="3607" NAME="?getBillboardOrigin@BillboardParticleRenderer@Ogre@@QBE?AW4BillboardOrigin@2@XZ" PURGE="-1" COMMENT="" />
    <EXPORT ORDINAL="3608" NAME="?getBillboardOrigin@BillboardSet@Ogre@@UBE?AW4BillboardOrigin@2@XZ" PURGE="0" COMMENT="" />
    <EXPORT ORDINAL="3609" NAME="?getBillboardRotationType@BillboardParticleRenderer@Ogre@@QBE?AW4BillboardRotationType@2@XZ" PURGE="-1" COMMENT="" />
    <EXPORT ORDINAL="3610" NAME="?getBillboardRotationType@BillboardSet@Ogre@@UBE?AW4BillboardRotationType@2@XZ" PURGE="0" COMMENT="" />
    <EXPORT ORDINAL="3611" NAME="?getBillboardSet@BillboardParticleRenderer@Ogre@@QBEPAVBillboardSet@2@XZ" PURGE="0" COMMENT="" />
    <EXPORT ORDINAL="3612" NAME="?getBillboardSet@SceneManager@Ogre@@UAEPAVBillboardSet@2@ABV?$basic_string@DU?$char_traits@D@std@@V?$allocator@D@2@@std@@@Z" PURGE="4" COMMENT="" />
    <EXPORT ORDINAL="3613" NAME="?getBillboardType@BillboardParticleRenderer@Ogre@@QBE?AW4BillboardType@2@XZ" PURGE="-1" COMMENT="" />
    <EXPORT ORDINAL="3614" NAME="?getBillboardType@BillboardSet@Ogre@@UBE?AW4BillboardType@2@XZ" PURGE="0" COMMENT="" />
    <EXPORT ORDINAL="3615" NAME="?getBindings@VertexBufferBinding@Ogre@@UBEABV?$map@GVHardwareVertexBufferSharedPtr@Ogre@@U?$less@G@std@@V?$allocator@U?$pair@$$CBGVHardwareVertexBufferSharedPtr@Ogre@@@std@@@4@@std@@XZ" PURGE="0" COMMENT="" />
    <EXPORT ORDINAL="3616" NAME="?getBitDepths@PixelUtil@Ogre@@SAXW4PixelFormat@2@QAH@Z" PURGE="0" COMMENT="" />
    <EXPORT ORDINAL="3617" NAME="?getBitMasks@PixelUtil@Ogre@@SAXW4PixelFormat@2@QAI@Z" PURGE="0" COMMENT="" />
    <EXPORT ORDINAL="3618" NAME="?getBlendMode@Skeleton@Ogre@@UBE?AW4SkeletonAnimationBlendMode@2@XZ" PURGE="0" COMMENT="" />
    <EXPORT ORDINAL="3619" NAME="?getBone@Skeleton@Ogre@@UBEPAVBone@2@ABV?$basic_string@DU?$char_traits@D@std@@V?$allocator@D@2@@std@@@Z" PURGE="4" COMMENT="" />
    <EXPORT ORDINAL="3620" NAME="?getBone@Skeleton@Ogre@@UBEPAVBone@2@G@Z" PURGE="4" COMMENT="" />
    <EXPORT ORDINAL="3621" NAME="?getBoneAssignmentIterator@Mesh@Ogre@@QAE?AV?$MapIterator@V?$multimap@IUVertexBoneAssignment_s@Ogre@@U?$less@I@std@@V?$fast_pool_allocator@U?$pair@$$CBIUVertexBoneAssignment_s@Ogre@@@std@@Udefault_user_allocator_new_delete@boost@@Vspin_mutex@pool@details@4@$0CA@@boost@@@std@@@2@XZ" PURGE="4" COMMENT="" />
    <EXPORT ORDINAL="3622" NAME="?getBoneAssignmentIterator@SubMesh@Ogre@@QAE?AV?$MapIterator@V?$multimap@IUVertexBoneAssignment_s@Ogre@@U?$less@I@std@@V?$fast_pool_allocator@U?$pair@$$CBIUVertexBoneAssignment_s@Ogre@@@std@@Udefault_user_allocator_new_delete@boost@@Vspin_mutex@pool@details@4@$0CA@@boost@@@std@@@2@XZ" PURGE="4" COMMENT="" />
    <EXPORT ORDINAL="3623" NAME="?getBoneIterator@Skeleton@Ogre@@UAE?AV?$VectorIterator@V?$vector@PAVBone@Ogre@@V?$allocator@PAVBone@Ogre@@@std@@@std@@@2@XZ" PURGE="4" COMMENT="" />
    <EXPORT ORDINAL="3624" NAME="?getBorderMaterialName@BorderPanelOverlayElement@Ogre@@QBEABV?$basic_string@DU?$char_traits@D@std@@V?$allocator@D@2@@std@@XZ" PURGE="0" COMMENT="" />
    <EXPORT ORDINAL="3625" NAME="?getBottomBorderSize@BorderPanelOverlayElement@Ogre@@QBEMXZ" PURGE="0" COMMENT="" />
    <EXPORT ORDINAL="3626" NAME="?getBottomBorderUVString@BorderPanelOverlayElement@Ogre@@QBE?AV?$basic_string@DU?$char_traits@D@std@@V?$allocator@D@2@@std@@XZ" PURGE="4" COMMENT="" />
    <EXPORT ORDINAL="3627" NAME="?getBottomLeftBorderUVString@BorderPanelOverlayElement@Ogre@@QBE?AV?$basic_string@DU?$char_traits@D@std@@V?$allocator@D@2@@std@@XZ" PURGE="4" COMMENT="" />
    <EXPORT ORDINAL="3628" NAME="?getBottomRightBorderUVString@BorderPanelOverlayElement@Ogre@@QBE?AV?$basic_string@DU?$char_traits@D@std@@V?$allocator@D@2@@std@@XZ" PURGE="4" COMMENT="" />
    <EXPORT ORDINAL="3629" NAME="?getBoundingBox@BillboardChain@Ogre@@UBEABVAxisAlignedBox@2@XZ" PURGE="0" COMMENT="" />
    <EXPORT ORDINAL="3630" NAME="?getBoundingBox@BillboardSet@Ogre@@UBEABVAxisAlignedBox@2@XZ" PURGE="0" COMMENT="" />
    <EXPORT ORDINAL="3631" NAME="?getBoundingBox@Entity@Ogre@@UBEABVAxisAlignedBox@2@XZ" PURGE="0" COMMENT="" />
    <EXPORT ORDINAL="3632" NAME="?getBoundingBox@Frustum@Ogre@@UBEABVAxisAlignedBox@2@XZ" PURGE="0" COMMENT="" />
    <EXPORT ORDINAL="3633" NAME="?getBoundingBox@Light@Ogre@@UBEABVAxisAlignedBox@2@XZ" PURGE="0" COMMENT="" />
    <EXPORT ORDINAL="3634" NAME="?getBoundingBox@ManualObject@Ogre@@UBEABVAxisAlignedBox@2@XZ" PURGE="0" COMMENT="" />
    <EXPORT ORDINAL="3635" NAME="?getBoundingBox@MovablePlane@Ogre@@UBEABVAxisAlignedBox@2@XZ" PURGE="0" COMMENT="" />
    <EXPORT ORDINAL="3636" NAME="?getBoundingBox@ParticleSystem@Ogre@@UBEABVAxisAlignedBox@2@XZ" PURGE="0" COMMENT="" />
    <EXPORT ORDINAL="3637" NAME="?getBoundingBox@Region@StaticGeometry@Ogre@@UBEABVAxisAlignedBox@3@XZ" PURGE="0" COMMENT="" />
    <EXPORT ORDINAL="3638" NAME="?getBoundingBox@SimpleRenderable@Ogre@@UBEABVAxisAlignedBox@2@XZ" PURGE="0" COMMENT="" />
    <EXPORT ORDINAL="3639" NAME="?getBoundingRadius@BillboardChain@Ogre@@UBEMXZ" PURGE="0" COMMENT="" />
    <EXPORT ORDINAL="3640" NAME="?getBoundingRadius@BillboardSet@Ogre@@UBEMXZ" PURGE="0" COMMENT="" />
    <EXPORT ORDINAL="3641" NAME="?getBoundingRadius@Camera@Ogre@@UBEMXZ" PURGE="0" COMMENT="" />
    <EXPORT ORDINAL="3642" NAME="?getBoundingRadius@Entity@Ogre@@UBEMXZ" PURGE="0" COMMENT="" />
    <EXPORT ORDINAL="3643" NAME="?getBoundingRadius@Frustum@Ogre@@UBEMXZ" PURGE="0" COMMENT="" />
    <EXPORT ORDINAL="3644" NAME="?getBoundingRadius@Light@Ogre@@UBEMXZ" PURGE="0" COMMENT="" />
    <EXPORT ORDINAL="3645" NAME="?getBoundingRadius@ManualObject@Ogre@@UBEMXZ" PURGE="0" COMMENT="" />
    <EXPORT ORDINAL="3646" NAME="?getBoundingRadius@MovablePlane@Ogre@@UBEMXZ" PURGE="0" COMMENT="" />
    <EXPORT ORDINAL="3647" NAME="?getBoundingRadius@ParticleSystem@Ogre@@UBEMXZ" PURGE="0" COMMENT="" />
    <EXPORT ORDINAL="3648" NAME="?getBoundingRadius@Rectangle2D@Ogre@@UBEMXZ" PURGE="0" COMMENT="" />
    <EXPORT ORDINAL="3649" NAME="?getBoundingRadius@Region@StaticGeometry@Ogre@@UBEMXZ" PURGE="0" COMMENT="" />
    <EXPORT ORDINAL="3650" NAME="?getBoundingRadius@WireBoundingBox@Ogre@@UBEMXZ" PURGE="0" COMMENT="" />
    <EXPORT ORDINAL="3651" NAME="?getBoundingSphereRadius@Mesh@Ogre@@QBEMXZ" PURGE="0" COMMENT="" />
    <EXPORT ORDINAL="3652" NAME="?getBoundingSphereRadius@PatchSurface@Ogre@@QBEMXZ" PURGE="0" COMMENT="" />
    <EXPORT ORDINAL="3653" NAME="?getBounds@Mesh@Ogre@@QBEABVAxisAlignedBox@2@XZ" PURGE="0" COMMENT="" />
    <EXPORT ORDINAL="3654" NAME="?getBounds@PatchSurface@Ogre@@QBEABVAxisAlignedBox@2@XZ" PURGE="0" COMMENT="" />
    <EXPORT ORDINAL="3655" NAME="?getBoundsPaddingFactor@MeshManager@Ogre@@QAEMXZ" PURGE="0" COMMENT="" />
    <EXPORT ORDINAL="3656" NAME="?getBox@AxisAlignedBoxSceneQuery@Ogre@@QBEABVAxisAlignedBox@2@XZ" PURGE="0" COMMENT="" />
    <EXPORT ORDINAL="3657" NAME="?getBuffer@VertexBufferBinding@Ogre@@UBEABVHardwareVertexBufferSharedPtr@2@G@Z" PURGE="4" COMMENT="" />
    <EXPORT ORDINAL="3658" NAME="?getBufferCount@VertexBufferBinding@Ogre@@UBEIXZ" PURGE="0" COMMENT="" />
    <EXPORT ORDINAL="3659" NAME="?getButtonID@MouseEvent@Ogre@@QBEHXZ" PURGE="0" COMMENT="" />
    <EXPORT ORDINAL="3660" NAME="?getByHandle@ResourceManager@Ogre@@UAE?AV?$SharedPtr@VResource@Ogre@@@2@K@Z" PURGE="8" COMMENT="" />
    <EXPORT ORDINAL="3661" NAME="?getByName@GpuProgramManager@Ogre@@QAE?AV?$SharedPtr@VResource@Ogre@@@2@ABV?$basic_string@DU?$char_traits@D@std@@V?$allocator@D@2@@std@@_N@Z" PURGE="12" COMMENT="" />
    <EXPORT ORDINAL="3662" NAME="?getByName@OverlayManager@Ogre@@QAEPAVOverlay@2@ABV?$basic_string@DU?$char_traits@D@std@@V?$allocator@D@2@@std@@@Z" PURGE="4" COMMENT="" />
    <EXPORT ORDINAL="3663" NAME="?getByName@ResourceManager@Ogre@@UAE?AV?$SharedPtr@VResource@Ogre@@@2@ABV?$basic_string@DU?$char_traits@D@std@@V?$allocator@D@2@@std@@@Z" PURGE="8" COMMENT="" />
    <EXPORT ORDINAL="3664" NAME="?getCamera@SceneManager@Ogre@@UAEPAVCamera@2@ABV?$basic_string@DU?$char_traits@D@std@@V?$allocator@D@2@@std@@@Z" PURGE="4" COMMENT="" />
    <EXPORT ORDINAL="3665" NAME="?getCamera@Viewport@Ogre@@QBEPAVCamera@2@XZ" PURGE="0" COMMENT="" />
    <EXPORT ORDINAL="3666" NAME="?getCameraIterator@SceneManager@Ogre@@QAE?AV?$MapIterator@V?$map@V?$basic_string@DU?$char_traits@D@std@@V?$allocator@D@2@@std@@PAVCamera@Ogre@@U?$less@V?$basic_string@DU?$char_traits@D@std@@V?$allocator@D@2@@std@@@2@V?$allocator@U?$pair@$$CBV?$basic_string@DU?$char_traits@D@std@@V?$allocator@D@2@@std@@PAVCamera@Ogre@@@std@@@2@@std@@@2@XZ" PURGE="4" COMMENT="" />
    <EXPORT ORDINAL="3667" NAME="?getCameraPosition@AutoParamDataSource@Ogre@@QBEABVVector4@2@XZ" PURGE="0" COMMENT="" />
    <EXPORT ORDINAL="3668" NAME="?getCameraPositionObjectSpace@AutoParamDataSource@Ogre@@QBEABVVector4@2@XZ" PURGE="0" COMMENT="" />
    <EXPORT ORDINAL="3669" NAME="?getCameraToViewportRay@Camera@Ogre@@QBE?AVRay@2@MM@Z" PURGE="12" COMMENT="" />
    <EXPORT ORDINAL="3670" NAME="?getCapabilities@RenderSystem@Ogre@@QBEPBVRenderSystemCapabilities@2@XZ" PURGE="0" COMMENT="" />
    <EXPORT ORDINAL="3671" NAME="?getCaption@OverlayElement@Ogre@@UBEABV?$basic_string@DU?$char_traits@D@std@@V?$allocator@D@2@@std@@XZ" PURGE="0" COMMENT="" />
    <EXPORT ORDINAL="3672" NAME="?getCaption@TextAreaOverlayElement@Ogre@@UBEABV?$basic_string@DU?$char_traits@D@std@@V?$allocator@D@2@@std@@XZ" PURGE="0" COMMENT="" />
    <EXPORT ORDINAL="3673" NAME="?getCastShadows@MovableObject@Ogre@@UBE_NXZ" PURGE="0" COMMENT="" />
    <EXPORT ORDINAL="3674" NAME="?getCastShadows@StaticGeometry@Ogre@@UAE_NXZ" PURGE="0" COMMENT="" />
    <EXPORT ORDINAL="3675" NAME="?getCastsShadows@GeometryBucket@StaticGeometry@Ogre@@UBE_NXZ" PURGE="-1" COMMENT="" />
    <EXPORT ORDINAL="3676" NAME="?getCastsShadows@Renderable@Ogre@@UBE_NXZ" PURGE="0" COMMENT="" />
    <EXPORT ORDINAL="3677" NAME="?getCastsShadows@SubEntity@Ogre@@UBE_NXZ" PURGE="-1" COMMENT="" />
    <EXPORT ORDINAL="3678" NAME="?getCellUVString@BorderPanelOverlayElement@Ogre@@IBE?AV?$basic_string@DU?$char_traits@D@std@@V?$allocator@D@2@@std@@W4BorderCellIndex@12@@Z" PURGE="8" COMMENT="" />
    <EXPORT ORDINAL="3679" NAME="?getCenter@AxisAlignedBox@Ogre@@QBE?AVVector3@2@XZ" PURGE="4" COMMENT="" />
    <EXPORT ORDINAL="3680" NAME="?getCenter@Sphere@Ogre@@QBEABVVector3@2@XZ" PURGE="0" COMMENT="" />
    <EXPORT ORDINAL="3681" NAME="?getCentre@Region@StaticGeometry@Ogre@@QBEABVVector3@3@XZ" PURGE="0" COMMENT="" />
    <EXPORT ORDINAL="3682" NAME="?getChain@CompositorInstance@Ogre@@QAEPAVCompositorChain@2@XZ" PURGE="0" COMMENT="" />
    <EXPORT ORDINAL="3683" NAME="?getChainElement@BillboardChain@Ogre@@UBEABVElement@12@II@Z" PURGE="8" COMMENT="" />
    <EXPORT ORDINAL="3684" NAME="?getChainLoop@BillboardChain@Ogre@@UBE_NI@Z" PURGE="4" COMMENT="" />
    <EXPORT ORDINAL="3685" NAME="?getCharHeight@TextAreaOverlayElement@Ogre@@QBEMXZ" PURGE="0" COMMENT="" />
    <EXPORT ORDINAL="3686" NAME="?getChild@Node@Ogre@@UBEPAV12@ABV?$basic_string@DU?$char_traits@D@std@@V?$allocator@D@2@@std@@@Z" PURGE="4" COMMENT="" />
    <EXPORT ORDINAL="3687" NAME="?getChild@Node@Ogre@@UBEPAV12@G@Z" PURGE="4" COMMENT="" />
    <EXPORT ORDINAL="3688" NAME="?getChild@Overlay@Ogre@@QAEPAVOverlayContainer@2@ABV?$basic_string@DU?$char_traits@D@std@@V?$allocator@D@2@@std@@@Z" PURGE="4" COMMENT="" />
    <EXPORT ORDINAL="3689" NAME="?getChild@OverlayContainer@Ogre@@UAEPAVOverlayElement@2@ABV?$basic_string@DU?$char_traits@D@std@@V?$allocator@D@2@@std@@@Z" PURGE="4" COMMENT="" />
    <EXPORT ORDINAL="3690" NAME="?getChildContainerIterator@OverlayContainer@Ogre@@UAE?AV?$MapIterator@V?$map@V?$basic_string@DU?$char_traits@D@std@@V?$allocator@D@2@@std@@PAVOverlayContainer@Ogre@@U?$less@V?$basic_string@DU?$char_traits@D@std@@V?$allocator@D@2@@std@@@2@V?$allocator@U?$pair@$$CBV?$basic_string@DU?$char_traits@D@std@@V?$allocator@D@2@@std@@PAVOverlayContainer@Ogre@@@std@@@2@@std@@@2@XZ" PURGE="4" COMMENT="" />
    <EXPORT ORDINAL="3691" NAME="?getChildIterator@Node@Ogre@@UAE?AV?$MapIterator@V?$hash_map@V?$basic_string@DU?$char_traits@D@std@@V?$allocator@D@2@@std@@PAVNode@Ogre@@V?$hash_compare@V?$basic_string@DU?$char_traits@D@std@@V?$allocator@D@2@@std@@U?$less@V?$basic_string@DU?$char_traits@D@std@@V?$allocator@D@2@@std@@@2@@stdext@@V?$allocator@U?$pair@$$CBV?$basic_string@DU?$char_traits@D@std@@V?$allocator@D@2@@std@@PAVNode@Ogre@@@std@@@2@@stdext@@@2@XZ" PURGE="4" COMMENT="" />
    <EXPORT ORDINAL="3692" NAME="?getChildIterator@Node@Ogre@@UBE?AV?$ConstMapIterator@V?$hash_map@V?$basic_string@DU?$char_traits@D@std@@V?$allocator@D@2@@std@@PAVNode@Ogre@@V?$hash_compare@V?$basic_string@DU?$char_traits@D@std@@V?$allocator@D@2@@std@@U?$less@V?$basic_string@DU?$char_traits@D@std@@V?$allocator@D@2@@std@@@2@@stdext@@V?$allocator@U?$pair@$$CBV?$basic_string@DU?$char_traits@D@std@@V?$allocator@D@2@@std@@PAVNode@Ogre@@@std@@@2@@stdext@@@2@XZ" PURGE="4" COMMENT="" />
    <EXPORT ORDINAL="3693" NAME="?getChildIterator@OverlayContainer@Ogre@@UAE?AV?$MapIterator@V?$map@V?$basic_string@DU?$char_traits@D@std@@V?$allocator@D@2@@std@@PAVOverlayElement@Ogre@@U?$less@V?$basic_string@DU?$char_traits@D@std@@V?$allocator@D@2@@std@@@2@V?$allocator@U?$pair@$$CBV?$basic_string@DU?$char_traits@D@std@@V?$allocator@D@2@@std@@PAVOverlayElement@Ogre@@@std@@@2@@std@@@2@XZ" PURGE="4" COMMENT="" />
    <EXPORT ORDINAL="3694" NAME="?getChildObjectsBoundingBox@Entity@Ogre@@QBE?AVAxisAlignedBox@2@XZ" PURGE="4" COMMENT="" />
    <EXPORT ORDINAL="3695" NAME="?getClearBuffers@CompositionPass@Ogre@@QAEIXZ" PURGE="0" COMMENT="" />
    <EXPORT ORDINAL="3696" NAME="?getClearBuffers@Viewport@Ogre@@QBEIXZ" PURGE="0" COMMENT="" />
    <EXPORT ORDINAL="3697" NAME="?getClearColour@CompositionPass@Ogre@@QAEABVColourValue@2@XZ" PURGE="0" COMMENT="" />
    <EXPORT ORDINAL="3698" NAME="?getClearDepth@CompositionPass@Ogre@@QAEMXZ" PURGE="0" COMMENT="" />
    <EXPORT ORDINAL="3699" NAME="?getClearEveryFrame@Viewport@Ogre@@QBE_NXZ" PURGE="0" COMMENT="" />
    <EXPORT ORDINAL="3700" NAME="?getClearStencil@CompositionPass@Ogre@@QAEIXZ" PURGE="0" COMMENT="" />
    <EXPORT ORDINAL="3701" NAME="?getClickCount@MouseEvent@Ogre@@QAEHXZ" PURGE="0" COMMENT="" />
    <EXPORT ORDINAL="3702" NAME="?getClientBNFGrammer@CompositorScriptCompiler@Ogre@@UAEABV?$basic_string@DU?$char_traits@D@std@@V?$allocator@D@2@@std@@XZ" PURGE="0" COMMENT="" />
    <EXPORT ORDINAL="3703" NAME="?getClientBNFGrammer@MaterialScriptCompiler@Ogre@@UAEABV?$basic_string@DU?$char_traits@D@std@@V?$allocator@D@2@@std@@XZ" PURGE="0" COMMENT="" />
    <EXPORT ORDINAL="3704" NAME="?getClientGrammerName@CompositorScriptCompiler@Ogre@@UBEABV?$basic_string@DU?$char_traits@D@std@@V?$allocator@D@2@@std@@XZ" PURGE="0" COMMENT="" />
    <EXPORT ORDINAL="3705" NAME="?getClientGrammerName@MaterialScriptCompiler@Ogre@@UBEABV?$basic_string@DU?$char_traits@D@std@@V?$allocator@D@2@@std@@XZ" PURGE="0" COMMENT="" />
    <EXPORT ORDINAL="3706" NAME="?getClientLexemeTokenID@Compiler2Pass@Ogre@@AAEIABV?$basic_string@DU?$char_traits@D@std@@V?$allocator@D@2@@std@@_N@Z" PURGE="8" COMMENT="" />
    <EXPORT ORDINAL="3707" NAME="?getClipPlanes@Renderable@Ogre@@UBEABV?$vector@VPlane@Ogre@@V?$allocator@VPlane@Ogre@@@std@@@std@@XZ" PURGE="0" COMMENT="" />
    <EXPORT ORDINAL="3708" NAME="?getCodec@Codec@Ogre@@SAPAV12@ABV?$basic_string@DU?$char_traits@D@std@@V?$allocator@D@2@@std@@@Z" PURGE="0" COMMENT="" />
    <EXPORT ORDINAL="3709" NAME="?getCodecIterator@Codec@Ogre@@SA?AV?$ConstMapIterator@V?$map@V?$basic_string@DU?$char_traits@D@std@@V?$allocator@D@2@@std@@PAVCodec@Ogre@@U?$less@V?$basic_string@DU?$char_traits@D@std@@V?$allocator@D@2@@std@@@2@V?$allocator@U?$pair@$$CBV?$basic_string@DU?$char_traits@D@std@@V?$allocator@D@2@@std@@PAVCodec@Ogre@@@std@@@2@@std@@@2@XZ" PURGE="0" COMMENT="" />
    <EXPORT ORDINAL="3710" NAME="?getColour@Billboard@Ogre@@QBEABVColourValue@2@XZ" PURGE="0" COMMENT="" />
    <EXPORT ORDINAL="3711" NAME="?getColour@OverlayElement@Ogre@@UBEABVColourValue@2@XZ" PURGE="0" COMMENT="" />
    <EXPORT ORDINAL="3712" NAME="?getColour@ParticleEmitter@Ogre@@UBEABVColourValue@2@XZ" PURGE="0" COMMENT="" />
    <EXPORT ORDINAL="3713" NAME="?getColour@TextAreaOverlayElement@Ogre@@UBEABVColourValue@2@XZ" PURGE="0" COMMENT="" />
    <EXPORT ORDINAL="3714" NAME="?getColourAt@Image@Ogre@@QAE?AVColourValue@2@HHH@Z" PURGE="16" COMMENT="" />
    <EXPORT ORDINAL="3715" NAME="?getColourBlendFallbackDest@TextureUnitState@Ogre@@QBE?AW4SceneBlendFactor@2@XZ" PURGE="0" COMMENT="" />
    <EXPORT ORDINAL="3716" NAME="?getColourBlendFallbackSrc@TextureUnitState@Ogre@@QBE?AW4SceneBlendFactor@2@XZ" PURGE="0" COMMENT="" />
    <EXPORT ORDINAL="3717" NAME="?getColourBlendMode@TextureUnitState@Ogre@@QBEABVLayerBlendModeEx@2@XZ" PURGE="0" COMMENT="" />
    <EXPORT ORDINAL="3718" NAME="?getColourBottom@TextAreaOverlayElement@Ogre@@QBEABVColourValue@2@XZ" PURGE="0" COMMENT="" />
    <EXPORT ORDINAL="3719" NAME="?getColourChange@RibbonTrail@Ogre@@UBEABVColourValue@2@I@Z" PURGE="4" COMMENT="" />
    <EXPORT ORDINAL="3720" NAME="?getColourDepth@RenderTarget@Ogre@@UBEIXZ" PURGE="0" COMMENT="" />
    <EXPORT ORDINAL="3721" NAME="?getColourRangeEnd@ParticleEmitter@Ogre@@UBEABVColourValue@2@XZ" PURGE="0" COMMENT="" />
    <EXPORT ORDINAL="3722" NAME="?getColourRangeStart@ParticleEmitter@Ogre@@UBEABVColourValue@2@XZ" PURGE="0" COMMENT="" />
    <EXPORT ORDINAL="3723" NAME="?getColourTop@TextAreaOverlayElement@Ogre@@QBEABVColourValue@2@XZ" PURGE="0" COMMENT="" />
    <EXPORT ORDINAL="3724" NAME="?getColourWriteEnabled@Pass@Ogre@@QBE_NXZ" PURGE="0" COMMENT="" />
    <EXPORT ORDINAL="3725" NAME="?getCommonDirection@BillboardParticleRenderer@Ogre@@QBEABVVector3@2@XZ" PURGE="-1" COMMENT="" />
    <EXPORT ORDINAL="3726" NAME="?getCommonDirection@BillboardSet@Ogre@@UBEABVVector3@2@XZ" PURGE="0" COMMENT="" />
    <EXPORT ORDINAL="3727" NAME="?getCommonUpVector@BillboardParticleRenderer@Ogre@@QBEABVVector3@2@XZ" PURGE="-1" COMMENT="" />
    <EXPORT ORDINAL="3728" NAME="?getCommonUpVector@BillboardSet@Ogre@@UBEABVVector3@2@XZ" PURGE="0" COMMENT="" />
    <EXPORT ORDINAL="3729" NAME="?getCompilationRequired@Material@Ogre@@QBE_NXZ" PURGE="0" COMMENT="" />
    <EXPORT ORDINAL="3730" NAME="?getComponentCount@PixelUtil@Ogre@@SAIW4PixelFormat@2@@Z" PURGE="0" COMMENT="" />
    <EXPORT ORDINAL="3731" NAME="?getComponentType@PixelUtil@Ogre@@SA?AW4PixelComponentType@2@W4PixelFormat@2@@Z" PURGE="0" COMMENT="" />
    <EXPORT ORDINAL="3732" NAME="?getCompositor@CompositorChain@Ogre@@QAEPAVCompositorInstance@2@I@Z" PURGE="4" COMMENT="" />
    <EXPORT ORDINAL="3733" NAME="?getCompositor@CompositorInstance@Ogre@@QAEPAVCompositor@2@XZ" PURGE="0" COMMENT="" />
    <EXPORT ORDINAL="3734" NAME="?getCompositorChain@CompositorManager@Ogre@@QAEPAVCompositorChain@2@PAVViewport@2@@Z" PURGE="4" COMMENT="" />
    <EXPORT ORDINAL="3735" NAME="?getCompositors@CompositorChain@Ogre@@QAE?AV?$VectorIterator@V?$vector@PAVCompositorInstance@Ogre@@V?$allocator@PAVCompositorInstance@Ogre@@@std@@@std@@@2@XZ" PURGE="4" COMMENT="" />
    <EXPORT ORDINAL="3736" NAME="?getConsecutiveSize@PixelBox@Ogre@@QBEIXZ" PURGE="0" COMMENT="" />
    <EXPORT ORDINAL="3737" NAME="?getConstantDefinition@GpuProgramParameters@Ogre@@QBEPBUConstantDefinition@12@ABV?$basic_string@DU?$char_traits@D@std@@V?$allocator@D@2@@std@@@Z" PURGE="4" COMMENT="" />
    <EXPORT ORDINAL="3738" NAME="?getConstantDefinition@GpuProgramParameters@Ogre@@QBEPBUConstantDefinition@12@I@Z" PURGE="4" COMMENT="" />
    <EXPORT ORDINAL="3739" NAME="?getControlPointBuffer@PatchSurface@Ogre@@QBEPAXXZ" PURGE="0" COMMENT="" />
    <EXPORT ORDINAL="3740" NAME="?getCosTime_0_1@AutoParamDataSource@Ogre@@QBEMM@Z" PURGE="4" COMMENT="" />
    <EXPORT ORDINAL="3741" NAME="?getCosTime_0_2Pi@AutoParamDataSource@Ogre@@QBEMM@Z" PURGE="4" COMMENT="" />
    <EXPORT ORDINAL="3742" NAME="?getCosTime_0_X@AutoParamDataSource@Ogre@@QBEMM@Z" PURGE="4" COMMENT="" />
    <EXPORT ORDINAL="3743" NAME="?getCpuFeatures@PlatformInformation@Ogre@@SAIXZ" PURGE="0" COMMENT="" />
    <EXPORT ORDINAL="3744" NAME="?getCpuIdentifier@PlatformInformation@Ogre@@SAABV?$basic_string@DU?$char_traits@D@std@@V?$allocator@D@2@@std@@XZ" PURGE="0" COMMENT="" />
    <EXPORT ORDINAL="3745" NAME="?getCreator@Resource@Ogre@@QAEPAVResourceManager@2@XZ" PURGE="0" COMMENT="" />
    <EXPORT ORDINAL="3746" NAME="?getCreator@SceneNode@Ogre@@QBEPAVSceneManager@2@XZ" PURGE="0" COMMENT="" />
    <EXPORT ORDINAL="3747" NAME="?getCullIndividually@BillboardSet@Ogre@@UBE_NXZ" PURGE="0" COMMENT="" />
    <EXPORT ORDINAL="3748" NAME="?getCullIndividually@ParticleSystem@Ogre@@UBE_NXZ" PURGE="0" COMMENT="" />
    <EXPORT ORDINAL="3749" NAME="?getCullingFrustum@Camera@Ogre@@QAEPAVFrustum@2@XZ" PURGE="0" COMMENT="" />
    <EXPORT ORDINAL="3750" NAME="?getCullingMode@Pass@Ogre@@QBE?AW4CullingMode@2@XZ" PURGE="0" COMMENT="" />
    <EXPORT ORDINAL="3751" NAME="?getCurrentFrame@TextureUnitState@Ogre@@QBEIXZ" PURGE="0" COMMENT="" />
    <EXPORT ORDINAL="3752" NAME="?getCurrentFrameNumber@Root@Ogre@@QBEKXZ" PURGE="0" COMMENT="" />
    <EXPORT ORDINAL="3753" NAME="?getCurrentIndexCount@PatchSurface@Ogre@@QBEIXZ" PURGE="0" COMMENT="" />
    <EXPORT ORDINAL="3754" NAME="?getCurrentLock@HardwarePixelBuffer@Ogre@@QAEABVPixelBox@2@XZ" PURGE="0" COMMENT="" />
    <EXPORT ORDINAL="3755" NAME="?getCurrentPlugIn@ExternalTextureSourceManager@Ogre@@QBEPAVExternalTextureSource@2@XZ" PURGE="0" COMMENT="" />
    <EXPORT ORDINAL="3756" NAME="?getCurrentPtr@MemoryDataStream@Ogre@@QAEPAEXZ" PURGE="0" COMMENT="" />
    <EXPORT ORDINAL="3757" NAME="?getCurrentRenderTarget@AutoParamDataSource@Ogre@@QBEPBVRenderTarget@2@XZ" PURGE="0" COMMENT="" />
    <EXPORT ORDINAL="3758" NAME="?getCurrentRenderable@AutoParamDataSource@Ogre@@QBEPBVRenderable@2@XZ" PURGE="0" COMMENT="" />
    <EXPORT ORDINAL="3759" NAME="?getCurrentTechnique@MaterialBucket@StaticGeometry@Ogre@@QBEPAVTechnique@3@XZ" PURGE="0" COMMENT="" />
    <EXPORT ORDINAL="3760" NAME="?getCurrentToken@Compiler2Pass@Ogre@@IBEABUTokenInst@12@I@Z" PURGE="4" COMMENT="" />
    <EXPORT ORDINAL="3761" NAME="?getCurrentTokenID@Compiler2Pass@Ogre@@IBEIXZ" PURGE="0" COMMENT="" />
    <EXPORT ORDINAL="3762" NAME="?getCurrentTokenLabel@Compiler2Pass@Ogre@@IBEABV?$basic_string@DU?$char_traits@D@std@@V?$allocator@D@2@@std@@XZ" PURGE="0" COMMENT="" />
    <EXPORT ORDINAL="3763" NAME="?getCurrentTokenLexeme@Compiler2Pass@Ogre@@IBEABV?$basic_string@DU?$char_traits@D@std@@V?$allocator@D@2@@std@@XZ" PURGE="0" COMMENT="" />
    <EXPORT ORDINAL="3764" NAME="?getCurrentTokenValue@Compiler2Pass@Ogre@@IBEMXZ" PURGE="0" COMMENT="" />
    <EXPORT ORDINAL="3765" NAME="?getCurrentViewport@SceneManager@Ogre@@QAEPAVViewport@2@XZ" PURGE="0" COMMENT="" />
    <EXPORT ORDINAL="3766" NAME="?getCustomAttribute@RenderTarget@Ogre@@UAEXABV?$basic_string@DU?$char_traits@D@std@@V?$allocator@D@2@@std@@PAX@Z" PURGE="-1" COMMENT="" />
    <EXPORT ORDINAL="3767" NAME="?getCustomParameter@Renderable@Ogre@@QBEABVVector4@2@I@Z" PURGE="4" COMMENT="" />
    <EXPORT ORDINAL="3768" NAME="?getCustomParameters@Renderable@Ogre@@QBEABV?$map@IVVector4@Ogre@@U?$less@I@std@@V?$allocator@U?$pair@$$CBIVVector4@Ogre@@@std@@@4@@std@@XZ" PURGE="0" COMMENT="" />
    <EXPORT ORDINAL="3769" NAME="?getCustomShadowCameraSetup@Light@Ogre@@QBEABV?$SharedPtr@VShadowCameraSetup@Ogre@@@2@XZ" PURGE="0" COMMENT="" />
    <EXPORT ORDINAL="3770" NAME="?getDarkCapBounds@MovableObject@Ogre@@UBEABVAxisAlignedBox@2@ABVLight@2@M@Z" PURGE="8" COMMENT="" />
    <EXPORT ORDINAL="3771" NAME="?getData@Image@Ogre@@QAEPAEXZ" PURGE="0" COMMENT="" />
    <EXPORT ORDINAL="3772" NAME="?getData@Image@Ogre@@QBEPBEXZ" PURGE="0" COMMENT="" />
    <EXPORT ORDINAL="3773" NAME="?getDataType@ImageCodec@Ogre@@UBE?AV?$basic_string@DU?$char_traits@D@std@@V?$allocator@D@2@@std@@XZ" PURGE="4" COMMENT="" />
    <EXPORT ORDINAL="3774" NAME="?getDebugText@RenderTarget@Ogre@@QBEABV?$basic_string@DU?$char_traits@D@std@@V?$allocator@D@2@@std@@XZ" PURGE="0" COMMENT="" />
    <EXPORT ORDINAL="3775" NAME="?getDefaultAnisotropy@MaterialManager@Ogre@@QBEIXZ" PURGE="0" COMMENT="" />
    <EXPORT ORDINAL="3776" NAME="?getDefaultHeight@BillboardSet@Ogre@@UBEMXZ" PURGE="0" COMMENT="" />
    <EXPORT ORDINAL="3777" NAME="?getDefaultHeight@ParticleSystem@Ogre@@UBEMXZ" PURGE="0" COMMENT="" />
    <EXPORT ORDINAL="3778" NAME="?getDefaultInterpolationMode@Animation@Ogre@@SA?AW4InterpolationMode@12@XZ" PURGE="0" COMMENT="" />
    <EXPORT ORDINAL="3779" NAME="?getDefaultIterationInterval@ParticleSystem@Ogre@@SAMXZ" PURGE="0" COMMENT="" />
    <EXPORT ORDINAL="3780" NAME="?getDefaultLog@LogManager@Ogre@@QAEPAVLog@2@XZ" PURGE="0" COMMENT="" />
    <EXPORT ORDINAL="3781" NAME="?getDefaultNonVisibleUpdateTimeout@ParticleSystem@Ogre@@SAMXZ" PURGE="0" COMMENT="" />
    <EXPORT ORDINAL="3782" NAME="?getDefaultNumMipmaps@TextureManager@Ogre@@UAEIXZ" PURGE="0" COMMENT="" />
    <EXPORT ORDINAL="3783" NAME="?getDefaultParameters@GpuProgram@Ogre@@UAE?AV?$SharedPtr@VGpuProgramParameters@Ogre@@@2@XZ" PURGE="4" COMMENT="" />
    <EXPORT ORDINAL="3784" NAME="?getDefaultQueryFlags@MovableObject@Ogre@@SAII@Z" PURGE="0" COMMENT="" />
    <EXPORT ORDINAL="3785" NAME="?getDefaultQueueGroup@RenderQueue@Ogre@@QBEEXZ" PURGE="0" COMMENT="" />
    <EXPORT ORDINAL="3786" NAME="?getDefaultRenderablePriority@RenderQueue@Ogre@@QBEGXZ" PURGE="0" COMMENT="" />
    <EXPORT ORDINAL="3787" NAME="?getDefaultRotationInterpolationMode@Animation@Ogre@@SA?AW4RotationInterpolationMode@12@XZ" PURGE="0" COMMENT="" />
    <EXPORT ORDINAL="3788" NAME="?getDefaultSettings@MaterialManager@Ogre@@UBE?AVMaterialPtr@2@XZ" PURGE="4" COMMENT="" />
    <EXPORT ORDINAL="3789" NAME="?getDefaultTextureFiltering@MaterialManager@Ogre@@UBE?AW4FilterOptions@2@W4FilterType@2@@Z" PURGE="4" COMMENT="" />
    <EXPORT ORDINAL="3790" NAME="?getDefaultVisibilityFlags@MovableObject@Ogre@@SAII@Z" PURGE="0" COMMENT="" />
    <EXPORT ORDINAL="3791" NAME="?getDefaultWidth@BillboardSet@Ogre@@UBEMXZ" PURGE="0" COMMENT="" />
    <EXPORT ORDINAL="3792" NAME="?getDefaultWidth@ParticleSystem@Ogre@@UBEMXZ" PURGE="0" COMMENT="" />
    <EXPORT ORDINAL="3793" NAME="?getDepth@HardwarePixelBuffer@Ogre@@QBEIXZ" PURGE="0" COMMENT="" />
    <EXPORT ORDINAL="3794" NAME="?getDepth@Image@Ogre@@QBEIXZ" PURGE="0" COMMENT="" />
    <EXPORT ORDINAL="3795" NAME="?getDepth@Texture@Ogre@@UBEIXZ" PURGE="0" COMMENT="" />
    <EXPORT ORDINAL="3796" NAME="?getDepthBias@Pass@Ogre@@QBEGXZ" PURGE="0" COMMENT="" />
    <EXPORT ORDINAL="3797" NAME="?getDepthCheckEnabled@Pass@Ogre@@QBE_NXZ" PURGE="0" COMMENT="" />
    <EXPORT ORDINAL="3798" NAME="?getDepthFunction@Pass@Ogre@@QBE?AW4CompareFunction@2@XZ" PURGE="0" COMMENT="" />
    <EXPORT ORDINAL="3799" NAME="?getDepthWriteEnabled@Pass@Ogre@@QBE_NXZ" PURGE="0" COMMENT="" />
    <EXPORT ORDINAL="3800" NAME="?getDerivedAmbientLightColour@AutoParamDataSource@Ogre@@QBE?AVColourValue@2@XZ" PURGE="4" COMMENT="" />
    <EXPORT ORDINAL="3801" NAME="?getDerivedDirection@Camera@Ogre@@QBE?AVVector3@2@XZ" PURGE="4" COMMENT="" />
    <EXPORT ORDINAL="3802" NAME="?getDerivedDirection@Light@Ogre@@QBEABVVector3@2@XZ" PURGE="0" COMMENT="" />
    <EXPORT ORDINAL="3803" NAME="?getDerivedOrientation@Camera@Ogre@@QBEABVQuaternion@2@XZ" PURGE="0" COMMENT="" />
    <EXPORT ORDINAL="3804" NAME="?getDerivedPosition@Camera@Ogre@@QBEABVVector3@2@XZ" PURGE="0" COMMENT="" />
    <EXPORT ORDINAL="3805" NAME="?getDerivedPosition@Light@Ogre@@QBEABVVector3@2@XZ" PURGE="0" COMMENT="" />
    <EXPORT ORDINAL="3806" NAME="?getDerivedRight@Camera@Ogre@@QBE?AVVector3@2@XZ" PURGE="4" COMMENT="" />
    <EXPORT ORDINAL="3807" NAME="?getDerivedSceneColour@AutoParamDataSource@Ogre@@QBE?AVColourValue@2@XZ" PURGE="4" COMMENT="" />
    <EXPORT ORDINAL="3808" NAME="?getDerivedUp@Camera@Ogre@@QBE?AVVector3@2@XZ" PURGE="4" COMMENT="" />
    <EXPORT ORDINAL="3809" NAME="?getDescription@Exception@Ogre@@QBEABV?$basic_string@DU?$char_traits@D@std@@V?$allocator@D@2@@std@@XZ" PURGE="0" COMMENT="" />
    <EXPORT ORDINAL="3810" NAME="?getDesiredFloatBitDepth@Texture@Ogre@@UBEGXZ" PURGE="0" COMMENT="" />
    <EXPORT ORDINAL="3811" NAME="?getDesiredFormat@Texture@Ogre@@UBE?AW4PixelFormat@2@XZ" PURGE="0" COMMENT="" />
    <EXPORT ORDINAL="3812" NAME="?getDesiredFormat@TextureUnitState@Ogre@@QBE?AW4PixelFormat@2@XZ" PURGE="0" COMMENT="" />
    <EXPORT ORDINAL="3813" NAME="?getDesiredIntegerBitDepth@Texture@Ogre@@UBEGXZ" PURGE="0" COMMENT="" />
    <EXPORT ORDINAL="3814" NAME="?getDestBlendFactor@Pass@Ogre@@QBE?AW4SceneBlendFactor@2@XZ" PURGE="0" COMMENT="" />
    <EXPORT ORDINAL="3815" NAME="?getDestinationRenderSystem@SceneManager@Ogre@@QAEPAVRenderSystem@2@XZ" PURGE="0" COMMENT="" />
    <EXPORT ORDINAL="3816" NAME="?getDictionaryStringName@ExternalTextureSource@Ogre@@QBEABV?$basic_string@DU?$char_traits@D@std@@V?$allocator@D@2@@std@@XZ" PURGE="0" COMMENT="" />
    <EXPORT ORDINAL="3817" NAME="?getDiffuse@Pass@Ogre@@QBEABVColourValue@2@XZ" PURGE="0" COMMENT="" />
    <EXPORT ORDINAL="3818" NAME="?getDiffuseColour@Light@Ogre@@QBEABVColourValue@2@XZ" PURGE="0" COMMENT="" />
    <EXPORT ORDINAL="3819" NAME="?getDirection@Camera@Ogre@@QBE?AVVector3@2@XZ" PURGE="4" COMMENT="" />
    <EXPORT ORDINAL="3820" NAME="?getDirection@Light@Ogre@@QBEABVVector3@2@XZ" PURGE="0" COMMENT="" />
    <EXPORT ORDINAL="3821" NAME="?getDirection@ParticleEmitter@Ogre@@UBEABVVector3@2@XZ" PURGE="0" COMMENT="" />
    <EXPORT ORDINAL="3822" NAME="?getDirection@Ray@Ogre@@QBEABVVector3@2@XZ" PURGE="0" COMMENT="" />
    <EXPORT ORDINAL="3823" NAME="?getDirectionalLightExtruderArbvp1@ShadowVolumeExtrudeProgram@Ogre@@SAABV?$basic_string@DU?$char_traits@D@std@@V?$allocator@D@2@@std@@XZ" PURGE="0" COMMENT="" />
    <EXPORT ORDINAL="3824" NAME="?getDirectionalLightExtruderArbvp1Debug@ShadowVolumeExtrudeProgram@Ogre@@SAABV?$basic_string@DU?$char_traits@D@std@@V?$allocator@D@2@@std@@XZ" PURGE="0" COMMENT="" />
    <EXPORT ORDINAL="3825" NAME="?getDirectionalLightExtruderArbvp1Finite@ShadowVolumeExtrudeProgram@Ogre@@SAABV?$basic_string@DU?$char_traits@D@std@@V?$allocator@D@2@@std@@XZ" PURGE="0" COMMENT="" />
    <EXPORT ORDINAL="3826" NAME="?getDirectionalLightExtruderArbvp1FiniteDebug@ShadowVolumeExtrudeProgram@Ogre@@SAABV?$basic_string@DU?$char_traits@D@std@@V?$allocator@D@2@@std@@XZ" PURGE="0" COMMENT="" />
    <EXPORT ORDINAL="3827" NAME="?getDirectionalLightExtruderVs_1_1@ShadowVolumeExtrudeProgram@Ogre@@SAABV?$basic_string@DU?$char_traits@D@std@@V?$allocator@D@2@@std@@XZ" PURGE="0" COMMENT="" />
    <EXPORT ORDINAL="3828" NAME="?getDirectionalLightExtruderVs_1_1Debug@ShadowVolumeExtrudeProgram@Ogre@@SAABV?$basic_string@DU?$char_traits@D@std@@V?$allocator@D@2@@std@@XZ" PURGE="0" COMMENT="" />
    <EXPORT ORDINAL="3829" NAME="?getDirectionalLightExtruderVs_1_1Finite@ShadowVolumeExtrudeProgram@Ogre@@SAABV?$basic_string@DU?$char_traits@D@std@@V?$allocator@D@2@@std@@XZ" PURGE="0" COMMENT="" />
    <EXPORT ORDINAL="3830" NAME="?getDirectionalLightExtruderVs_1_1FiniteDebug@ShadowVolumeExtrudeProgram@Ogre@@SAABV?$basic_string@DU?$char_traits@D@std@@V?$allocator@D@2@@std@@XZ" PURGE="0" COMMENT="" />
    <EXPORT ORDINAL="3831" NAME="?getDirtyFrameNumber@AnimationStateSet@Ogre@@QBEKXZ" PURGE="0" COMMENT="" />
    <EXPORT ORDINAL="3832" NAME="?getDirtyHashList@Pass@Ogre@@SAABV?$set@PAVPass@Ogre@@U?$less@PAVPass@Ogre@@@std@@V?$allocator@PAVPass@Ogre@@@4@@std@@XZ" PURGE="0" COMMENT="" />
    <EXPORT ORDINAL="3833" NAME="?getDisplaySceneNodes@SceneManager@Ogre@@UBE_NXZ" PURGE="0" COMMENT="" />
    <EXPORT ORDINAL="3834" NAME="?getDisplaySkeleton@Entity@Ogre@@QBE_NXZ" PURGE="0" COMMENT="" />
    <EXPORT ORDINAL="3835" NAME="?getDistance@Plane@Ogre@@QBEMABVVector3@2@@Z" PURGE="4" COMMENT="" />
    <EXPORT ORDINAL="3836" NAME="?getDuration@ParticleEmitter@Ogre@@UBEMXZ" PURGE="0" COMMENT="" />
    <EXPORT ORDINAL="3837" NAME="?getDynamic@BillboardChain@Ogre@@UBE_NXZ" PURGE="0" COMMENT="" />
    <EXPORT ORDINAL="3838" NAME="?getEdgeList@Entity@Ogre@@UAEPAVEdgeData@2@XZ" PURGE="0" COMMENT="" />
    <EXPORT ORDINAL="3839" NAME="?getEdgeList@ManualObject@Ogre@@UAEPAVEdgeData@2@XZ" PURGE="0" COMMENT="" />
    <EXPORT ORDINAL="3840" NAME="?getEdgeList@Mesh@Ogre@@QAEPAVEdgeData@2@I@Z" PURGE="4" COMMENT="" />
    <EXPORT ORDINAL="3841" NAME="?getEdgeList@Mesh@Ogre@@QBEPBVEdgeData@2@I@Z" PURGE="4" COMMENT="" />
    <EXPORT ORDINAL="3842" NAME="?getEdgeList@MovableObject@Ogre@@UAEPAVEdgeData@2@XZ" PURGE="0" COMMENT="" />
    <EXPORT ORDINAL="3843" NAME="?getEdgeList@Region@StaticGeometry@Ogre@@UAEPAVEdgeData@3@XZ" PURGE="0" COMMENT="" />
    <EXPORT ORDINAL="3844" NAME="?getEffects@TextureUnitState@Ogre@@QBEABV?$multimap@W4TextureEffectType@TextureUnitState@Ogre@@UTextureEffect@23@U?$less@W4TextureEffectType@TextureUnitState@Ogre@@@std@@V?$allocator@U?$pair@$$CBW4TextureEffectType@TextureUnitState@Ogre@@UTextureEffect@23@@std@@@6@@std@@XZ" PURGE="0" COMMENT="" />
    <EXPORT ORDINAL="3845" NAME="?getElapsedTime@ControllerManager@Ogre@@QBEMXZ" PURGE="0" COMMENT="" />
    <EXPORT ORDINAL="3846" NAME="?getElapsedTime@FrameTimeControllerValue@Ogre@@QBEMXZ" PURGE="0" COMMENT="" />
    <EXPORT ORDINAL="3847" NAME="?getElement@VertexDeclaration@Ogre@@QAEPBVVertexElement@2@G@Z" PURGE="4" COMMENT="" />
    <EXPORT ORDINAL="3848" NAME="?getElementCount@VertexDeclaration@Ogre@@QAEIXZ" PURGE="0" COMMENT="" />
    <EXPORT ORDINAL="3849" NAME="?getElementMap@OverlayManager@Ogre@@IAEAAV?$map@V?$basic_string@DU?$char_traits@D@std@@V?$allocator@D@2@@std@@PAVOverlayElement@Ogre@@U?$less@V?$basic_string@DU?$char_traits@D@std@@V?$allocator@D@2@@std@@@2@V?$allocator@U?$pair@$$CBV?$basic_string@DU?$char_traits@D@std@@V?$allocator@D@2@@std@@PAVOverlayElement@Ogre@@@std@@@2@@std@@_N@Z" PURGE="4" COMMENT="" />
    <EXPORT ORDINAL="3850" NAME="?getElements@VertexDeclaration@Ogre@@QBEABV?$list@VVertexElement@Ogre@@V?$allocator@VVertexElement@Ogre@@@std@@@std@@XZ" PURGE="0" COMMENT="" />
    <EXPORT ORDINAL="3851" NAME="?getEmissionRate@ParticleEmitter@Ogre@@UBEMXZ" PURGE="0" COMMENT="" />
    <EXPORT ORDINAL="3852" NAME="?getEmitter@ParticleSystem@Ogre@@QBEPAVParticleEmitter@2@G@Z" PURGE="4" COMMENT="" />
    <EXPORT ORDINAL="3853" NAME="?getEmitterFactoryIterator@ParticleSystemManager@Ogre@@QAE?AV?$MapIterator@V?$map@V?$basic_string@DU?$char_traits@D@std@@V?$allocator@D@2@@std@@PAVParticleEmitterFactory@Ogre@@U?$less@V?$basic_string@DU?$char_traits@D@std@@V?$allocator@D@2@@std@@@2@V?$allocator@U?$pair@$$CBV?$basic_string@DU?$char_traits@D@std@@V?$allocator@D@2@@std@@PAVParticleEmitterFactory@Ogre@@@std@@@2@@std@@@2@XZ" PURGE="4" COMMENT="" />
    <EXPORT ORDINAL="3854" NAME="?getEnableAutoBuildAllMeshesEdgeLists@MeshManager@Ogre@@QBE_NXZ" PURGE="0" COMMENT="" />
    <EXPORT ORDINAL="3855" NAME="?getEnableShadowsForUnregisteredGroup@RenderQueue@Ogre@@QBE_NXZ" PURGE="0" COMMENT="" />
    <EXPORT ORDINAL="3856" NAME="?getEnabled@AnimationState@Ogre@@QBE_NXZ" PURGE="0" COMMENT="" />
    <EXPORT ORDINAL="3857" NAME="?getEnabled@CompositorInstance@Ogre@@QAE_NXZ" PURGE="0" COMMENT="" />
    <EXPORT ORDINAL="3858" NAME="?getEnabled@ParticleEmitter@Ogre@@UBE_NXZ" PURGE="0" COMMENT="" />
    <EXPORT ORDINAL="3859" NAME="?getEnabled@Profiler@Ogre@@QBE_NXZ" PURGE="0" COMMENT="" />
    <EXPORT ORDINAL="3860" NAME="?getEnabledAnimationStateIterator@AnimationStateSet@Ogre@@QBE?AV?$ConstVectorIterator@V?$list@PAVAnimationState@Ogre@@V?$fast_pool_allocator@PAVAnimationState@Ogre@@Udefault_user_allocator_new_delete@boost@@Vspin_mutex@pool@details@4@$0CA@@boost@@@std@@@2@XZ" PURGE="4" COMMENT="" />
    <EXPORT ORDINAL="3861" NAME="?getEntity@SceneManager@Ogre@@UAEPAVEntity@2@ABV?$basic_string@DU?$char_traits@D@std@@V?$allocator@D@2@@std@@@Z" PURGE="4" COMMENT="" />
    <EXPORT ORDINAL="3862" NAME="?getErrorDescription@Root@Ogre@@QAE?AV?$basic_string@DU?$char_traits@D@std@@V?$allocator@D@2@@std@@J@Z" PURGE="8" COMMENT="" />
    <EXPORT ORDINAL="3863" NAME="?getExtensions@Codec@Ogre@@SA?AV?$vector@V?$basic_string@DU?$char_traits@D@std@@V?$allocator@D@2@@std@@V?$allocator@V?$basic_string@DU?$char_traits@D@std@@V?$allocator@D@2@@std@@@2@@std@@XZ" PURGE="0" COMMENT="" />
    <EXPORT ORDINAL="3864" NAME="?getExternalTextureSource@ExternalTextureSourceManager@Ogre@@QAEPAVExternalTextureSource@2@ABV?$basic_string@DU?$char_traits@D@std@@V?$allocator@D@2@@std@@@Z" PURGE="4" COMMENT="" />
    <EXPORT ORDINAL="3865" NAME="?getExtrusionDistance@ShadowCaster@Ogre@@IBEMABVVector3@2@PBVLight@2@@Z" PURGE="8" COMMENT="" />
    <EXPORT ORDINAL="3866" NAME="?getFOV@AutoParamDataSource@Ogre@@QBEMXZ" PURGE="0" COMMENT="" />
    <EXPORT ORDINAL="3867" NAME="?getFOVy@Frustum@Ogre@@UBEABVRadian@2@XZ" PURGE="0" COMMENT="" />
    <EXPORT ORDINAL="3868" NAME="?getFPS@AutoParamDataSource@Ogre@@QBEMXZ" PURGE="-1" COMMENT="" />
    <EXPORT ORDINAL="3869" NAME="?getFPS@ExternalTextureSource@Ogre@@QBE?BHXZ" PURGE="0" COMMENT="" />
    <EXPORT ORDINAL="3870" NAME="?getFactory@HighLevelGpuProgramManager@Ogre@@IAEPAVHighLevelGpuProgramFactory@2@ABV?$basic_string@DU?$char_traits@D@std@@V?$allocator@D@2@@std@@@Z" PURGE="4" COMMENT="" />
    <EXPORT ORDINAL="3871" NAME="?getFarClipDistance@AutoParamDataSource@Ogre@@QBEMXZ" PURGE="-1" COMMENT="" />
    <EXPORT ORDINAL="3872" NAME="?getFarClipDistance@Camera@Ogre@@UBEMXZ" PURGE="0" COMMENT="" />
    <EXPORT ORDINAL="3873" NAME="?getFarClipDistance@Frustum@Ogre@@UBEMXZ" PURGE="0" COMMENT="" />
    <EXPORT ORDINAL="3874" NAME="?getFile@Exception@Ogre@@QBEABV?$basic_string@DU?$char_traits@D@std@@V?$allocator@D@2@@std@@XZ" PURGE="0" COMMENT="" />
    <EXPORT ORDINAL="3875" NAME="?getFindVisibleObjects@SceneManager@Ogre@@UAE_NXZ" PURGE="0" COMMENT="" />
    <EXPORT ORDINAL="3876" NAME="?getFirstRenderQueue@CompositionPass@Ogre@@QAEEXZ" PURGE="0" COMMENT="" />
    <EXPORT ORDINAL="3877" NAME="?getFlags@PixelUtil@Ogre@@SAIW4PixelFormat@2@@Z" PURGE="0" COMMENT="" />
    <EXPORT ORDINAL="3878" NAME="?getFocalLength@Frustum@Ogre@@UBEMXZ" PURGE="0" COMMENT="" />
    <EXPORT ORDINAL="3879" NAME="?getFogColour@AutoParamDataSource@Ogre@@QBEABVColourValue@2@XZ" PURGE="0" COMMENT="" />
    <EXPORT ORDINAL="3880" NAME="?getFogColour@Pass@Ogre@@QBEABVColourValue@2@XZ" PURGE="0" COMMENT="" />
    <EXPORT ORDINAL="3881" NAME="?getFogColour@SceneManager@Ogre@@UBEABVColourValue@2@XZ" PURGE="0" COMMENT="" />
    <EXPORT ORDINAL="3882" NAME="?getFogDensity@Pass@Ogre@@QBEMXZ" PURGE="0" COMMENT="" />
    <EXPORT ORDINAL="3883" NAME="?getFogDensity@SceneManager@Ogre@@UBEMXZ" PURGE="0" COMMENT="" />
    <EXPORT ORDINAL="3884" NAME="?getFogEnd@Pass@Ogre@@QBEMXZ" PURGE="0" COMMENT="" />
    <EXPORT ORDINAL="3885" NAME="?getFogEnd@SceneManager@Ogre@@UBEMXZ" PURGE="0" COMMENT="" />
    <EXPORT ORDINAL="3886" NAME="?getFogMode@Pass@Ogre@@QBE?AW4FogMode@2@XZ" PURGE="0" COMMENT="" />
    <EXPORT ORDINAL="3887" NAME="?getFogMode@SceneManager@Ogre@@UBE?AW4FogMode@2@XZ" PURGE="0" COMMENT="" />
    <EXPORT ORDINAL="3888" NAME="?getFogOverride@Pass@Ogre@@QBE_NXZ" PURGE="0" COMMENT="" />
    <EXPORT ORDINAL="3889" NAME="?getFogParams@AutoParamDataSource@Ogre@@QBEABVVector4@2@XZ" PURGE="0" COMMENT="" />
    <EXPORT ORDINAL="3890" NAME="?getFogStart@Pass@Ogre@@QBEMXZ" PURGE="0" COMMENT="" />
    <EXPORT ORDINAL="3891" NAME="?getFogStart@SceneManager@Ogre@@UBEMXZ" PURGE="0" COMMENT="" />
    <EXPORT ORDINAL="3892" NAME="?getFontName@TextAreaOverlayElement@Ogre@@QBEABV?$basic_string@DU?$char_traits@D@std@@V?$allocator@D@2@@std@@XZ" PURGE="0" COMMENT="" />
    <EXPORT ORDINAL="3893" NAME="?getFormat@HardwarePixelBuffer@Ogre@@QBE?AW4PixelFormat@2@XZ" PURGE="0" COMMENT="" />
    <EXPORT ORDINAL="3894" NAME="?getFormat@Image@Ogre@@QBE?AW4PixelFormat@2@XZ" PURGE="0" COMMENT="" />
    <EXPORT ORDINAL="3895" NAME="?getFormat@Texture@Ogre@@UBE?AW4PixelFormat@2@XZ" PURGE="0" COMMENT="" />
    <EXPORT ORDINAL="3896" NAME="?getFormatForBitDepths@PixelUtil@Ogre@@SA?AW4PixelFormat@2@W432@GG@Z" PURGE="0" COMMENT="" />
    <EXPORT ORDINAL="3897" NAME="?getFormatFromName@PixelUtil@Ogre@@SA?AW4PixelFormat@2@ABV?$basic_string@DU?$char_traits@D@std@@V?$allocator@D@2@@std@@_N1@Z" PURGE="0" COMMENT="" />
    <EXPORT ORDINAL="3898" NAME="?getFormatName@PixelUtil@Ogre@@SA?AV?$basic_string@DU?$char_traits@D@std@@V?$allocator@D@2@@std@@W4PixelFormat@2@@Z" PURGE="0" COMMENT="" />
    <EXPORT ORDINAL="3899" NAME="?getFragmentProgram@Pass@Ogre@@QBEABVGpuProgramPtr@2@XZ" PURGE="0" COMMENT="" />
    <EXPORT ORDINAL="3900" NAME="?getFragmentProgramConstantBoolCount@RenderSystemCapabilities@Ogre@@QBEGXZ" PURGE="0" COMMENT="" />
    <EXPORT ORDINAL="3901" NAME="?getFragmentProgramConstantFloatCount@RenderSystemCapabilities@Ogre@@QBEGXZ" PURGE="0" COMMENT="" />
    <EXPORT ORDINAL="3902" NAME="?getFragmentProgramConstantIntCount@RenderSystemCapabilities@Ogre@@QBEGXZ" PURGE="0" COMMENT="" />
    <EXPORT ORDINAL="3903" NAME="?getFragmentProgramName@Pass@Ogre@@QBEABV?$basic_string@DU?$char_traits@D@std@@V?$allocator@D@2@@std@@XZ" PURGE="0" COMMENT="" />
    <EXPORT ORDINAL="3904" NAME="?getFragmentProgramParameters@Pass@Ogre@@QBE?AV?$SharedPtr@VGpuProgramParameters@Ogre@@@2@XZ" PURGE="4" COMMENT="" />
    <EXPORT ORDINAL="3905" NAME="?getFrameDelay@ControllerManager@Ogre@@QBEMXZ" PURGE="0" COMMENT="" />
    <EXPORT ORDINAL="3906" NAME="?getFrameDelay@FrameTimeControllerValue@Ogre@@QBEMXZ" PURGE="0" COMMENT="" />
    <EXPORT ORDINAL="3907" NAME="?getFrameSmoothingPeriod@Root@Ogre@@QBEMXZ" PURGE="0" COMMENT="" />
    <EXPORT ORDINAL="3908" NAME="?getFrameTextureName@TextureUnitState@Ogre@@QBEABV?$basic_string@DU?$char_traits@D@std@@V?$allocator@D@2@@std@@I@Z" PURGE="4" COMMENT="" />
    <EXPORT ORDINAL="3909" NAME="?getFrameTime@AutoParamDataSource@Ogre@@QBEMXZ" PURGE="-1" COMMENT="" />
    <EXPORT ORDINAL="3910" NAME="?getFrameTimeSource@ControllerManager@Ogre@@QBEABV?$SharedPtr@V?$ControllerValue@M@Ogre@@@2@XZ" PURGE="0" COMMENT="" />
    <EXPORT ORDINAL="3911" NAME="?getFrustumOffset@Frustum@Ogre@@UBEABVVector2@2@XZ" PURGE="0" COMMENT="" />
    <EXPORT ORDINAL="3912" NAME="?getFrustumPlane@Camera@Ogre@@UBEABVPlane@2@G@Z" PURGE="4" COMMENT="" />
    <EXPORT ORDINAL="3913" NAME="?getFrustumPlane@Frustum@Ogre@@UBEABVPlane@2@G@Z" PURGE="4" COMMENT="" />
    <EXPORT ORDINAL="3914" NAME="?getFrustumPlanes@Frustum@Ogre@@UBEPBVPlane@2@XZ" PURGE="0" COMMENT="" />
    <EXPORT ORDINAL="3915" NAME="?getFullDescription@Exception@Ogre@@QBE?AV?$basic_string@DU?$char_traits@D@std@@V?$allocator@D@2@@std@@XZ" PURGE="4" COMMENT="" />
    <EXPORT ORDINAL="3916" NAME="?getGamma@Texture@Ogre@@UBEMXZ" PURGE="0" COMMENT="" />
    <EXPORT ORDINAL="3917" NAME="?getGeometryFormatString@MaterialBucket@StaticGeometry@Ogre@@IAE?AV?$basic_string@DU?$char_traits@D@std@@V?$allocator@D@2@@std@@PAUSubMeshLodGeometryLink@23@@Z" PURGE="8" COMMENT="" />
    <EXPORT ORDINAL="3918" NAME="?getGeometryIterator@MaterialBucket@StaticGeometry@Ogre@@QAE?AV?$VectorIterator@V?$vector@PAVGeometryBucket@StaticGeometry@Ogre@@V?$allocator@PAVGeometryBucket@StaticGeometry@Ogre@@@std@@@std@@@3@XZ" PURGE="4" COMMENT="" />
    <EXPORT ORDINAL="3919" NAME="?getGlyphAspectRatio@Font@Ogre@@QBEMD@Z" PURGE="4" COMMENT="" />
    <EXPORT ORDINAL="3920" NAME="?getGlyphTexCoords@Font@Ogre@@QBEXDAAM000@Z" PURGE="20" COMMENT="" />
    <EXPORT ORDINAL="3921" NAME="?getGroup@Resource@Ogre@@QAEABV?$basic_string@DU?$char_traits@D@std@@V?$allocator@D@2@@std@@XZ" PURGE="0" COMMENT="" />
    <EXPORT ORDINAL="3922" NAME="?getGroup@SkeletonInstance@Ogre@@QAEABV?$basic_string@DU?$char_traits@D@std@@V?$allocator@D@2@@std@@XZ" PURGE="0" COMMENT="" />
    <EXPORT ORDINAL="3923" NAME="?getHalfSize@AxisAlignedBox@Ogre@@QBE?AVVector3@2@XZ" PURGE="4" COMMENT="" />
    <EXPORT ORDINAL="3924" NAME="?getHandle@AnimationTrack@Ogre@@QBEGXZ" PURGE="0" COMMENT="" />
    <EXPORT ORDINAL="3925" NAME="?getHandle@Bone@Ogre@@QBEGXZ" PURGE="0" COMMENT="" />
    <EXPORT ORDINAL="3926" NAME="?getHandle@Resource@Ogre@@QBEKXZ" PURGE="0" COMMENT="" />
    <EXPORT ORDINAL="3927" NAME="?getHandle@SkeletonInstance@Ogre@@QBEKXZ" PURGE="0" COMMENT="" />
    <EXPORT ORDINAL="3928" NAME="?getHasAlpha@Image@Ogre@@QBE_NXZ" PURGE="0" COMMENT="" />
    <EXPORT ORDINAL="3929" NAME="?getHash@Pass@Ogre@@QBEIXZ" PURGE="0" COMMENT="" />
    <EXPORT ORDINAL="3930" NAME="?getHeight@HardwarePixelBuffer@Ogre@@QBEIXZ" PURGE="0" COMMENT="" />
    <EXPORT ORDINAL="3931" NAME="?getHeight@Image@Ogre@@QBEIXZ" PURGE="0" COMMENT="" />
    <EXPORT ORDINAL="3932" NAME="?getHeight@OverlayElement@Ogre@@QBEMXZ" PURGE="0" COMMENT="" />
    <EXPORT ORDINAL="3933" NAME="?getHeight@RenderTarget@Ogre@@UBEIXZ" PURGE="0" COMMENT="" />
    <EXPORT ORDINAL="3934" NAME="?getHeight@Texture@Ogre@@UBEIXZ" PURGE="0" COMMENT="" />
    <EXPORT ORDINAL="3935" NAME="?getHeight@Viewport@Ogre@@QBEMXZ" PURGE="0" COMMENT="" />
    <EXPORT ORDINAL="3936" NAME="?getHits@VertexCacheProfiler@Ogre@@QAEIXZ" PURGE="0" COMMENT="" />
    <EXPORT ORDINAL="3937" NAME="?getHorizontalAlignment@OverlayElement@Ogre@@UBE?AW4GuiHorizontalAlignment@2@XZ" PURGE="0" COMMENT="" />
    <EXPORT ORDINAL="3938" NAME="?getID@InputEvent@Ogre@@QBEHXZ" PURGE="0" COMMENT="" />
    <EXPORT ORDINAL="3939" NAME="?getID@Region@StaticGeometry@Ogre@@QBEIXZ" PURGE="0" COMMENT="" />
    <EXPORT ORDINAL="3940" NAME="?getIdentifier@CompositionPass@Ogre@@QBEIXZ" PURGE="0" COMMENT="" />
    <EXPORT ORDINAL="3941" NAME="?getIlluminationPassIterator@Technique@Ogre@@QAE?BV?$VectorIterator@V?$vector@PAUIlluminationPass@Ogre@@V?$allocator@PAUIlluminationPass@Ogre@@@std@@@std@@@2@XZ" PURGE="4" COMMENT="" />
    <EXPORT ORDINAL="3942" NAME="?getImplementation@OptimisedUtil@Ogre@@SAPAV12@XZ" PURGE="0" COMMENT="" />
    <EXPORT ORDINAL="3943" NAME="?getIndex@Pass@Ogre@@QBEGXZ" PURGE="0" COMMENT="" />
    <EXPORT ORDINAL="3944" NAME="?getIndex@VertexElement@Ogre@@QBEGXZ" PURGE="0" COMMENT="" />
    <EXPORT ORDINAL="3945" NAME="?getIndexBufferUsage@Mesh@Ogre@@QBE?AW4Usage@HardwareBuffer@2@XZ" PURGE="0" COMMENT="" />
    <EXPORT ORDINAL="3946" NAME="?getIndexData@GeometryBucket@StaticGeometry@Ogre@@QBEPBVIndexData@3@XZ" PURGE="0" COMMENT="" />
    <EXPORT ORDINAL="3947" NAME="?getIndexOffset@PatchSurface@Ogre@@QBEIXZ" PURGE="0" COMMENT="" />
    <EXPORT ORDINAL="3948" NAME="?getIndexSize@HardwareIndexBuffer@Ogre@@QBEIXZ" PURGE="0" COMMENT="" />
    <EXPORT ORDINAL="3949" NAME="?getInheritOrientation@Node@Ogre@@UBE_NXZ" PURGE="0" COMMENT="" />
    <EXPORT ORDINAL="3950" NAME="?getInheritScale@Node@Ogre@@UBE_NXZ" PURGE="0" COMMENT="" />
    <EXPORT ORDINAL="3951" NAME="?getInitialColour@RibbonTrail@Ogre@@UBEABVColourValue@2@I@Z" PURGE="4" COMMENT="" />
    <EXPORT ORDINAL="3952" NAME="?getInitialOrientation@Node@Ogre@@UBEABVQuaternion@2@XZ" PURGE="0" COMMENT="" />
    <EXPORT ORDINAL="3953" NAME="?getInitialPosition@Node@Ogre@@UBEABVVector3@2@XZ" PURGE="0" COMMENT="" />
    <EXPORT ORDINAL="3954" NAME="?getInitialScale@Node@Ogre@@UBEABVVector3@2@XZ" PURGE="0" COMMENT="" />
    <EXPORT ORDINAL="3955" NAME="?getInitialWidth@RibbonTrail@Ogre@@UBEMI@Z" PURGE="4" COMMENT="" />
    <EXPORT ORDINAL="3956" NAME="?getInput@CompositionPass@Ogre@@QAEABV?$basic_string@DU?$char_traits@D@std@@V?$allocator@D@2@@std@@I@Z" PURGE="4" COMMENT="" />
    <EXPORT ORDINAL="3957" NAME="?getInputMode@CompositionTargetPass@Ogre@@QBE?AW4InputMode@12@XZ" PURGE="0" COMMENT="" />
    <EXPORT ORDINAL="3958" NAME="?getInputName@ExternalTextureSource@Ogre@@QBEABV?$basic_string@DU?$char_traits@D@std@@V?$allocator@D@2@@std@@XZ" PURGE="0" COMMENT="" />
    <EXPORT ORDINAL="3959" NAME="?getInputReader@EventProcessor@Ogre@@QAEPAVInputReader@2@XZ" PURGE="0" COMMENT="" />
    <EXPORT ORDINAL="3960" NAME="?getIntConstantCount@GpuProgramParameters@Ogre@@QBEIXZ" PURGE="0" COMMENT="" />
    <EXPORT ORDINAL="3961" NAME="?getIntConstantEntry@GpuProgramParameters@Ogre@@QAEPAUIntConstantEntry@12@I@Z" PURGE="4" COMMENT="" />
    <EXPORT ORDINAL="3962" NAME="?getIntConstantIterator@GpuProgramParameters@Ogre@@QBE?AV?$ConstVectorIterator@V?$vector@UIntConstantEntry@GpuProgramParameters@Ogre@@V?$allocator@UIntConstantEntry@GpuProgramParameters@Ogre@@@std@@@std@@@2@XZ" PURGE="4" COMMENT="" />
    <EXPORT ORDINAL="3963" NAME="?getInterpolatedKeyFrame@NodeAnimationTrack@Ogre@@UBEXABVTimeIndex@2@PAVKeyFrame@2@@Z" PURGE="8" COMMENT="" />
    <EXPORT ORDINAL="3964" NAME="?getInterpolatedKeyFrame@NumericAnimationTrack@Ogre@@UBEXABVTimeIndex@2@PAVKeyFrame@2@@Z" PURGE="8" COMMENT="" />
    <EXPORT ORDINAL="3965" NAME="?getInterpolatedKeyFrame@VertexAnimationTrack@Ogre@@UBEXABVTimeIndex@2@PAVKeyFrame@2@@Z" PURGE="8" COMMENT="" />
    <EXPORT ORDINAL="3966" NAME="?getInterpolationMode@Animation@Ogre@@QBE?AW4InterpolationMode@12@XZ" PURGE="0" COMMENT="" />
    <EXPORT ORDINAL="3967" NAME="?getInverseProjectionMatrix@AutoParamDataSource@Ogre@@QBE?AVMatrix4@2@XZ" PURGE="4" COMMENT="" />
    <EXPORT ORDINAL="3968" NAME="?getInverseTransposeProjectionMatrix@AutoParamDataSource@Ogre@@QBE?AVMatrix4@2@XZ" PURGE="4" COMMENT="" />
    <EXPORT ORDINAL="3969" NAME="?getInverseTransposeViewMatrix@AutoParamDataSource@Ogre@@QBE?AVMatrix4@2@XZ" PURGE="4" COMMENT="" />
    <EXPORT ORDINAL="3970" NAME="?getInverseTransposeViewProjMatrix@AutoParamDataSource@Ogre@@QBE?AVMatrix4@2@XZ" PURGE="4" COMMENT="" />
    <EXPORT ORDINAL="3971" NAME="?getInverseTransposeWorldMatrix@AutoParamDataSource@Ogre@@QBEABVMatrix4@2@XZ" PURGE="0" COMMENT="" />
    <EXPORT ORDINAL="3972" NAME="?getInverseTransposeWorldViewMatrix@AutoParamDataSource@Ogre@@QBEABVMatrix4@2@XZ" PURGE="0" COMMENT="" />
    <EXPORT ORDINAL="3973" NAME="?getInverseTransposeWorldViewProjMatrix@AutoParamDataSource@Ogre@@QBE?AVMatrix4@2@XZ" PURGE="4" COMMENT="" />
    <EXPORT ORDINAL="3974" NAME="?getInverseViewMatrix@AutoParamDataSource@Ogre@@QBEABVMatrix4@2@XZ" PURGE="0" COMMENT="" />
    <EXPORT ORDINAL="3975" NAME="?getInverseViewProjMatrix@AutoParamDataSource@Ogre@@QBE?AVMatrix4@2@XZ" PURGE="4" COMMENT="" />
    <EXPORT ORDINAL="3976" NAME="?getInverseViewportHeight@AutoParamDataSource@Ogre@@QBEMXZ" PURGE="0" COMMENT="" />
    <EXPORT ORDINAL="3977" NAME="?getInverseViewportWidth@AutoParamDataSource@Ogre@@QBEMXZ" PURGE="0" COMMENT="" />
    <EXPORT ORDINAL="3978" NAME="?getInverseWorldMatrix@AutoParamDataSource@Ogre@@QBEABVMatrix4@2@XZ" PURGE="0" COMMENT="" />
    <EXPORT ORDINAL="3979" NAME="?getInverseWorldViewMatrix@AutoParamDataSource@Ogre@@QBEABVMatrix4@2@XZ" PURGE="0" COMMENT="" />
    <EXPORT ORDINAL="3980" NAME="?getInverseWorldViewProjMatrix@AutoParamDataSource@Ogre@@QBE?AVMatrix4@2@XZ" PURGE="4" COMMENT="" />
    <EXPORT ORDINAL="3981" NAME="?getInvocationName@RenderQueueInvocation@Ogre@@UBEABV?$basic_string@DU?$char_traits@D@std@@V?$allocator@D@2@@std@@XZ" PURGE="0" COMMENT="" />
    <EXPORT ORDINAL="3982" NAME="?getIsAlpha@TextureUnitState@Ogre@@QBE_NXZ" PURGE="0" COMMENT="" />
    <EXPORT ORDINAL="3983" NAME="?getIteratePerLight@Pass@Ogre@@QBE_NXZ" PURGE="0" COMMENT="" />
    <EXPORT ORDINAL="3984" NAME="?getIterationInterval@ParticleSystem@Ogre@@QBEMXZ" PURGE="0" COMMENT="" />
    <EXPORT ORDINAL="3985" NAME="?getIterator@RenderQueueGroup@Ogre@@QAE?AV?$MapIterator@V?$map@GPAVRenderPriorityGroup@Ogre@@U?$less@G@std@@V?$allocator@U?$pair@$$CBGPAVRenderPriorityGroup@Ogre@@@std@@@4@@std@@@2@XZ" PURGE="4" COMMENT="" />
    <EXPORT ORDINAL="3986" NAME="?getKeepParticlesInLocalSpace@ParticleSystem@Ogre@@QBE_NXZ" PURGE="0" COMMENT="" />
    <EXPORT ORDINAL="3987" NAME="?getKey@KeyEvent@Ogre@@QAEHXZ" PURGE="0" COMMENT="" />
    <EXPORT ORDINAL="3988" NAME="?getKeyChar@InputReader@Ogre@@SADHJ@Z" PURGE="0" COMMENT="" />
    <EXPORT ORDINAL="3989" NAME="?getKeyChar@KeyEvent@Ogre@@QAEDXZ" PURGE="0" COMMENT="" />
    <EXPORT ORDINAL="3990" NAME="?getKeyFrame@AnimationTrack@Ogre@@UBEPAVKeyFrame@2@G@Z" PURGE="4" COMMENT="" />
    <EXPORT ORDINAL="3991" NAME="?getKeyFramesAtTime@AnimationTrack@Ogre@@UBEMABVTimeIndex@2@PAPAVKeyFrame@2@1PAG@Z" PURGE="16" COMMENT="" />
    <EXPORT ORDINAL="3992" NAME="?getKeyIndex@TimeIndex@Ogre@@QBEIXZ" PURGE="0" COMMENT="" />
    <EXPORT ORDINAL="3993" NAME="?getLODIterator@Region@StaticGeometry@Ogre@@QAE?AV?$VectorIterator@V?$vector@PAVLODBucket@StaticGeometry@Ogre@@V?$allocator@PAVLODBucket@StaticGeometry@Ogre@@@std@@@std@@@3@XZ" PURGE="4" COMMENT="" />
    <EXPORT ORDINAL="3994" NAME="?getLanguage@GpuProgram@Ogre@@UBEABV?$basic_string@DU?$char_traits@D@std@@V?$allocator@D@2@@std@@XZ" PURGE="0" COMMENT="" />
    <EXPORT ORDINAL="3995" NAME="?getLastBoundIndex@VertexBufferBinding@Ogre@@UBEGXZ" PURGE="0" COMMENT="" />
    <EXPORT ORDINAL="3996" NAME="?getLastException@Exception@Ogre@@SAPAV12@XZ" PURGE="0" COMMENT="" />
    <EXPORT ORDINAL="3997" NAME="?getLastFPS@RenderTarget@Ogre@@UBEMXZ" PURGE="0" COMMENT="" />
    <EXPORT ORDINAL="3998" NAME="?getLastQuerysPixelcount@HardwareOcclusionQuery@Ogre@@QBEIXZ" PURGE="0" COMMENT="" />
    <EXPORT ORDINAL="3999" NAME="?getLastRenderQueue@CompositionPass@Ogre@@QAEEXZ" PURGE="0" COMMENT="" />
    <EXPORT ORDINAL="4000" NAME="?getLastResults@IntersectionSceneQuery@Ogre@@UBEAAUIntersectionSceneQueryResult@2@XZ" PURGE="0" COMMENT="" />
    <EXPORT ORDINAL="4001" NAME="?getLastResults@RaySceneQuery@Ogre@@UAEAAV?$vector@URaySceneQueryResultEntry@Ogre@@V?$allocator@URaySceneQueryResultEntry@Ogre@@@std@@@std@@XZ" PURGE="0" COMMENT="" />
    <EXPORT ORDINAL="4002" NAME="?getLastResults@RegionSceneQuery@Ogre@@UBEAAUSceneQueryResult@2@XZ" PURGE="0" COMMENT="" />
    <EXPORT ORDINAL="4003" NAME="?getLeft@Cursor@Ogre@@UBEMXZ" PURGE="0" COMMENT="" />
    <EXPORT ORDINAL="4004" NAME="?getLeft@EventProcessor@Ogre@@UBEMXZ" PURGE="0" COMMENT="" />
    <EXPORT ORDINAL="4005" NAME="?getLeft@OverlayElement@Ogre@@QBEMXZ" PURGE="0" COMMENT="" />
    <EXPORT ORDINAL="4006" NAME="?getLeft@Viewport@Ogre@@QBEMXZ" PURGE="0" COMMENT="" />
    <EXPORT ORDINAL="4007" NAME="?getLeftBorderSize@BorderPanelOverlayElement@Ogre@@QBEMXZ" PURGE="0" COMMENT="" />
    <EXPORT ORDINAL="4008" NAME="?getLeftBorderUVString@BorderPanelOverlayElement@Ogre@@QBE?AV?$basic_string@DU?$char_traits@D@std@@V?$allocator@D@2@@std@@XZ" PURGE="4" COMMENT="" />
    <EXPORT ORDINAL="4009" NAME="?getLength@Animation@Ogre@@QBEMXZ" PURGE="0" COMMENT="" />
    <EXPORT ORDINAL="4010" NAME="?getLength@AnimationState@Ogre@@QBEMXZ" PURGE="0" COMMENT="" />
    <EXPORT ORDINAL="4011" NAME="?getLexemeText@Compiler2Pass@Ogre@@AAE?AV?$basic_string@DU?$char_traits@D@std@@V?$allocator@D@2@@std@@AAII@Z" PURGE="12" COMMENT="" />
    <EXPORT ORDINAL="4012" NAME="?getLight@AutoParamDataSource@Ogre@@QBEABVLight@2@I@Z" PURGE="4" COMMENT="" />
    <EXPORT ORDINAL="4013" NAME="?getLight@SceneManager@Ogre@@UAEPAVLight@2@ABV?$basic_string@DU?$char_traits@D@std@@V?$allocator@D@2@@std@@@Z" PURGE="4" COMMENT="" />
    <EXPORT ORDINAL="4014" NAME="?getLightCapBounds@MovableObject@Ogre@@UBEABVAxisAlignedBox@2@XZ" PURGE="0" COMMENT="" />
    <EXPORT ORDINAL="4015" NAME="?getLightCapRenderable@ShadowRenderable@Ogre@@QAEPAV12@XZ" PURGE="0" COMMENT="" />
    <EXPORT ORDINAL="4016" NAME="?getLightingEnabled@Pass@Ogre@@QBE_NXZ" PURGE="0" COMMENT="" />
    <EXPORT ORDINAL="4017" NAME="?getLights@BillboardChain@Ogre@@UBEABV?$vector@PAVLight@Ogre@@V?$allocator@PAVLight@Ogre@@@std@@@std@@XZ" PURGE="-1" COMMENT="" />
    <EXPORT ORDINAL="4018" NAME="?getLights@BillboardSet@Ogre@@UBEABV?$vector@PAVLight@Ogre@@V?$allocator@PAVLight@Ogre@@@std@@@std@@XZ" PURGE="-1" COMMENT="" />
    <EXPORT ORDINAL="4019" NAME="?getLights@BorderRenderable@Ogre@@UBEABV?$vector@PAVLight@Ogre@@V?$allocator@PAVLight@Ogre@@@std@@@std@@XZ" PURGE="0" COMMENT="" />
    <EXPORT ORDINAL="4020" NAME="?getLights@Frustum@Ogre@@UBEABV?$vector@PAVLight@Ogre@@V?$allocator@PAVLight@Ogre@@@std@@@std@@XZ" PURGE="0" COMMENT="" />
    <EXPORT ORDINAL="4021" NAME="?getLights@GeometryBucket@StaticGeometry@Ogre@@UBEABV?$vector@PAVLight@Ogre@@V?$allocator@PAVLight@Ogre@@@std@@@std@@XZ" PURGE="-1" COMMENT="" />
    <EXPORT ORDINAL="4022" NAME="?getLights@ManualObjectSection@ManualObject@Ogre@@UBEABV?$vector@PAVLight@Ogre@@V?$allocator@PAVLight@Ogre@@@std@@@std@@XZ" PURGE="-1" COMMENT="" />
    <EXPORT ORDINAL="4023" NAME="?getLights@Node@Ogre@@UBEABV?$vector@PAVLight@Ogre@@V?$allocator@PAVLight@Ogre@@@std@@@std@@XZ" PURGE="0" COMMENT="" />
    <EXPORT ORDINAL="4024" NAME="?getLights@OverlayElement@Ogre@@UBEABV?$vector@PAVLight@Ogre@@V?$allocator@PAVLight@Ogre@@@std@@@std@@XZ" PURGE="0" COMMENT="" />
    <EXPORT ORDINAL="4025" NAME="?getLights@ShadowRenderable@Ogre@@UBEABV?$vector@PAVLight@Ogre@@V?$allocator@PAVLight@Ogre@@@std@@@std@@XZ" PURGE="0" COMMENT="" />
    <EXPORT ORDINAL="4026" NAME="?getLights@SimpleRenderable@Ogre@@UBEABV?$vector@PAVLight@Ogre@@V?$allocator@PAVLight@Ogre@@@std@@@std@@XZ" PURGE="-1" COMMENT="" />
    <EXPORT ORDINAL="4027" NAME="?getLights@SubEntity@Ogre@@UBEABV?$vector@PAVLight@Ogre@@V?$allocator@PAVLight@Ogre@@@std@@@std@@XZ" PURGE="-1" COMMENT="" />
    <EXPORT ORDINAL="4028" NAME="?getLights@TagPoint@Ogre@@UBEABV?$vector@PAVLight@Ogre@@V?$allocator@PAVLight@Ogre@@@std@@@std@@XZ" PURGE="-1" COMMENT="" />
    <EXPORT ORDINAL="4029" NAME="?getLine@DataStream@Ogre@@UAE?AV?$basic_string@DU?$char_traits@D@std@@V?$allocator@D@2@@std@@_N@Z" PURGE="8" COMMENT="" />
    <EXPORT ORDINAL="4030" NAME="?getLine@Exception@Ogre@@QBEJXZ" PURGE="0" COMMENT="" />
    <EXPORT ORDINAL="4031" NAME="?getLinkedSkeletonAnimationSourceIterator@Skeleton@Ogre@@UBE?AV?$ConstVectorIterator@V?$vector@ULinkedSkeletonAnimationSource@Ogre@@V?$allocator@ULinkedSkeletonAnimationSource@Ogre@@@std@@@std@@@2@XZ" PURGE="4" COMMENT="" />
    <EXPORT ORDINAL="4032" NAME="?getLinkedSkeletonAnimationSourceIterator@SkeletonInstance@Ogre@@UBE?AV?$ConstVectorIterator@V?$vector@ULinkedSkeletonAnimationSource@Ogre@@V?$allocator@ULinkedSkeletonAnimationSource@Ogre@@@std@@@std@@@2@XZ" PURGE="4" COMMENT="" />
    <EXPORT ORDINAL="4033" NAME="?getListener@MovableObject@Ogre@@UBEPAVListener@12@XZ" PURGE="0" COMMENT="" />
    <EXPORT ORDINAL="4034" NAME="?getListener@Node@Ogre@@UBEPAVListener@12@XZ" PURGE="0" COMMENT="" />
    <EXPORT ORDINAL="4035" NAME="?getLoadingOrder@OverlayManager@Ogre@@UBEMXZ" PURGE="0" COMMENT="" />
    <EXPORT ORDINAL="4036" NAME="?getLoadingOrder@ParticleSystemManager@Ogre@@UBEMXZ" PURGE="0" COMMENT="" />
    <EXPORT ORDINAL="4037" NAME="?getLoadingOrder@ResourceManager@Ogre@@UBEMXZ" PURGE="0" COMMENT="" />
    <EXPORT ORDINAL="4038" NAME="?getLocalAxes@Node@Ogre@@UBE?AVMatrix3@2@XZ" PURGE="4" COMMENT="" />
    <EXPORT ORDINAL="4039" NAME="?getLod@LODBucket@StaticGeometry@Ogre@@QBEGXZ" PURGE="0" COMMENT="" />
    <EXPORT ORDINAL="4040" NAME="?getLodBias@Camera@Ogre@@QBEMXZ" PURGE="0" COMMENT="" />
    <EXPORT ORDINAL="4041" NAME="?getLodBias@CompositionTargetPass@Ogre@@QAEMXZ" PURGE="0" COMMENT="" />
    <EXPORT ORDINAL="4042" NAME="?getLodDistanceIterator@Material@Ogre@@QBE?AV?$ConstVectorIterator@V?$vector@MV?$allocator@M@std@@@std@@@2@XZ" PURGE="4" COMMENT="" />
    <EXPORT ORDINAL="4043" NAME="?getLodIndex@Material@Ogre@@QBEGM@Z" PURGE="4" COMMENT="" />
    <EXPORT ORDINAL="4044" NAME="?getLodIndex@Mesh@Ogre@@QBEGM@Z" PURGE="4" COMMENT="" />
    <EXPORT ORDINAL="4045" NAME="?getLodIndex@Technique@Ogre@@QBEGXZ" PURGE="0" COMMENT="" />
    <EXPORT ORDINAL="4046" NAME="?getLodIndexSquaredDepth@Material@Ogre@@QBEGM@Z" PURGE="4" COMMENT="" />
    <EXPORT ORDINAL="4047" NAME="?getLodIndexSquaredDepth@Mesh@Ogre@@QBEGM@Z" PURGE="4" COMMENT="" />
    <EXPORT ORDINAL="4048" NAME="?getLodLevel@Mesh@Ogre@@QBEABUMeshLodUsage@2@G@Z" PURGE="4" COMMENT="" />
    <EXPORT ORDINAL="4049" NAME="?getLog@LogManager@Ogre@@QAEPAVLog@2@ABV?$basic_string@DU?$char_traits@D@std@@V?$allocator@D@2@@std@@@Z" PURGE="4" COMMENT="" />
    <EXPORT ORDINAL="4050" NAME="?getLogDetail@Log@Ogre@@QBE?AW4LoggingLevel@2@XZ" PURGE="0" COMMENT="" />
    <EXPORT ORDINAL="4051" NAME="?getLoop@AnimationState@Ogre@@QBE_NXZ" PURGE="0" COMMENT="" />
    <EXPORT ORDINAL="4052" NAME="?getManualBonesDirtyCounter@Skeleton@Ogre@@UBEKXZ" PURGE="0" COMMENT="" />
    <EXPORT ORDINAL="4053" NAME="?getManualCullingMode@Pass@Ogre@@QBE?AW4ManualCullingMode@2@XZ" PURGE="0" COMMENT="" />
    <EXPORT ORDINAL="4054" NAME="?getManualLodLevel@Entity@Ogre@@QBEPAV12@I@Z" PURGE="4" COMMENT="" />
    <EXPORT ORDINAL="4055" NAME="?getManualObject@SceneManager@Ogre@@UAEPAVManualObject@2@ABV?$basic_string@DU?$char_traits@D@std@@V?$allocator@D@2@@std@@@Z" PURGE="4" COMMENT="" />
    <EXPORT ORDINAL="4056" NAME="?getMaterial@BillboardChain@Ogre@@UBEABVMaterialPtr@2@XZ" PURGE="0" COMMENT="" />
    <EXPORT ORDINAL="4057" NAME="?getMaterial@BillboardSet@Ogre@@UBEABVMaterialPtr@2@XZ" PURGE="0" COMMENT="" />
    <EXPORT ORDINAL="4058" NAME="?getMaterial@BorderRenderable@Ogre@@UBEABVMaterialPtr@2@XZ" PURGE="0" COMMENT="" />
    <EXPORT ORDINAL="4059" NAME="?getMaterial@CompositionPass@Ogre@@QBEABVMaterialPtr@2@XZ" PURGE="0" COMMENT="" />
    <EXPORT ORDINAL="4060" NAME="?getMaterial@Font@Ogre@@QAEABVMaterialPtr@2@XZ" PURGE="0" COMMENT="" />
    <EXPORT ORDINAL="4061" NAME="?getMaterial@Font@Ogre@@QBEABVMaterialPtr@2@XZ" PURGE="0" COMMENT="" />
    <EXPORT ORDINAL="4062" NAME="?getMaterial@Frustum@Ogre@@UBEABVMaterialPtr@2@XZ" PURGE="0" COMMENT="" />
    <EXPORT ORDINAL="4063" NAME="?getMaterial@GeometryBucket@StaticGeometry@Ogre@@UBEABVMaterialPtr@3@XZ" PURGE="0" COMMENT="" />
    <EXPORT ORDINAL="4064" NAME="?getMaterial@ManualObjectSection@ManualObject@Ogre@@UBEABVMaterialPtr@3@XZ" PURGE="0" COMMENT="" />
    <EXPORT ORDINAL="4065" NAME="?getMaterial@MaterialBucket@StaticGeometry@Ogre@@QBEABVMaterialPtr@3@XZ" PURGE="0" COMMENT="" />
    <EXPORT ORDINAL="4066" NAME="?getMaterial@Node@Ogre@@UBEABVMaterialPtr@2@XZ" PURGE="0" COMMENT="" />
    <EXPORT ORDINAL="4067" NAME="?getMaterial@OverlayElement@Ogre@@UBEABVMaterialPtr@2@XZ" PURGE="0" COMMENT="" />
    <EXPORT ORDINAL="4068" NAME="?getMaterial@ShadowRenderable@Ogre@@UBEABVMaterialPtr@2@XZ" PURGE="0" COMMENT="" />
    <EXPORT ORDINAL="4069" NAME="?getMaterial@SimpleRenderable@Ogre@@UBEABVMaterialPtr@2@XZ" PURGE="0" COMMENT="" />
    <EXPORT ORDINAL="4070" NAME="?getMaterial@SubEntity@Ogre@@UBEABVMaterialPtr@2@XZ" PURGE="0" COMMENT="" />
    <EXPORT ORDINAL="4071" NAME="?getMaterialIterator@LODBucket@StaticGeometry@Ogre@@QAE?AV?$MapIterator@V?$map@V?$basic_string@DU?$char_traits@D@std@@V?$allocator@D@2@@std@@PAVMaterialBucket@StaticGeometry@Ogre@@U?$less@V?$basic_string@DU?$char_traits@D@std@@V?$allocator@D@2@@std@@@2@V?$allocator@U?$pair@$$CBV?$basic_string@DU?$char_traits@D@std@@V?$allocator@D@2@@std@@PAVMaterialBucket@StaticGeometry@Ogre@@@std@@@2@@std@@@3@XZ" PURGE="4" COMMENT="" />
    <EXPORT ORDINAL="4072" NAME="?getMaterialName@BillboardChain@Ogre@@UBEABV?$basic_string@DU?$char_traits@D@std@@V?$allocator@D@2@@std@@XZ" PURGE="0" COMMENT="" />
    <EXPORT ORDINAL="4073" NAME="?getMaterialName@BillboardSet@Ogre@@UBEABV?$basic_string@DU?$char_traits@D@std@@V?$allocator@D@2@@std@@XZ" PURGE="0" COMMENT="" />
    <EXPORT ORDINAL="4074" NAME="?getMaterialName@ManualObjectSection@ManualObject@Ogre@@QBEABV?$basic_string@DU?$char_traits@D@std@@V?$allocator@D@2@@std@@XZ" PURGE="0" COMMENT="" />
    <EXPORT ORDINAL="4075" NAME="?getMaterialName@MaterialBucket@StaticGeometry@Ogre@@QBEABV?$basic_string@DU?$char_traits@D@std@@V?$allocator@D@2@@std@@XZ" PURGE="0" COMMENT="" />
    <EXPORT ORDINAL="4076" NAME="?getMaterialName@OverlayElement@Ogre@@UBEABV?$basic_string@DU?$char_traits@D@std@@V?$allocator@D@2@@std@@XZ" PURGE="0" COMMENT="" />
    <EXPORT ORDINAL="4077" NAME="?getMaterialName@ParticleSystem@Ogre@@UBEABV?$basic_string@DU?$char_traits@D@std@@V?$allocator@D@2@@std@@XZ" PURGE="0" COMMENT="" />
    <EXPORT ORDINAL="4078" NAME="?getMaterialName@SubEntity@Ogre@@QBEABV?$basic_string@DU?$char_traits@D@std@@V?$allocator@D@2@@std@@XZ" PURGE="0" COMMENT="" />
    <EXPORT ORDINAL="4079" NAME="?getMaterialName@SubMesh@Ogre@@QBEABV?$basic_string@DU?$char_traits@D@std@@V?$allocator@D@2@@std@@XZ" PURGE="0" COMMENT="" />
    <EXPORT ORDINAL="4080" NAME="?getMaterialScheme@CompositionTargetPass@Ogre@@QBEABV?$basic_string@DU?$char_traits@D@std@@V?$allocator@D@2@@std@@XZ" PURGE="0" COMMENT="" />
    <EXPORT ORDINAL="4081" NAME="?getMaterialScheme@Viewport@Ogre@@QBEABV?$basic_string@DU?$char_traits@D@std@@V?$allocator@D@2@@std@@XZ" PURGE="0" COMMENT="" />
    <EXPORT ORDINAL="4082" NAME="?getMaxChainElements@BillboardChain@Ogre@@UBEIXZ" PURGE="0" COMMENT="" />
    <EXPORT ORDINAL="4083" NAME="?getMaxDuration@ParticleEmitter@Ogre@@UBEMXZ" PURGE="0" COMMENT="" />
    <EXPORT ORDINAL="4084" NAME="?getMaxFragmentProgramVersion@RenderSystemCapabilities@Ogre@@QBEABV?$basic_string@DU?$char_traits@D@std@@V?$allocator@D@2@@std@@XZ" PURGE="0" COMMENT="" />
    <EXPORT ORDINAL="4085" NAME="?getMaxParticleVelocity@ParticleEmitter@Ogre@@UBEMXZ" PURGE="0" COMMENT="" />
    <EXPORT ORDINAL="4086" NAME="?getMaxPointSize@RenderSystemCapabilities@Ogre@@QBEMXZ" PURGE="0" COMMENT="" />
    <EXPORT ORDINAL="4087" NAME="?getMaxRepeatDelay@ParticleEmitter@Ogre@@UBEMXZ" PURGE="0" COMMENT="" />
    <EXPORT ORDINAL="4088" NAME="?getMaxResults@RaySceneQuery@Ogre@@UBEGXZ" PURGE="0" COMMENT="" />
    <EXPORT ORDINAL="4089" NAME="?getMaxSimultaneousLights@Pass@Ogre@@QBEGXZ" PURGE="0" COMMENT="" />
    <EXPORT ORDINAL="4090" NAME="?getMaxSource@VertexDeclaration@Ogre@@QBEGXZ" PURGE="0" COMMENT="" />
    <EXPORT ORDINAL="4091" NAME="?getMaxTimeToLive@ParticleEmitter@Ogre@@UBEMXZ" PURGE="0" COMMENT="" />
    <EXPORT ORDINAL="4092" NAME="?getMaxVertexProgramVersion@RenderSystemCapabilities@Ogre@@QBEABV?$basic_string@DU?$char_traits@D@std@@V?$allocator@D@2@@std@@XZ" PURGE="0" COMMENT="" />
    <EXPORT ORDINAL="4093" NAME="?getMaximum@AxisAlignedBox@Ogre@@QBEABVVector3@2@XZ" PURGE="0" COMMENT="" />
    <EXPORT ORDINAL="4094" NAME="?getMemoryBudget@ResourceManager@Ogre@@UBEIXZ" PURGE="0" COMMENT="" />
    <EXPORT ORDINAL="4095" NAME="?getMemorySize@PixelUtil@Ogre@@SAIIIIW4PixelFormat@2@@Z" PURGE="0" COMMENT="" />
    <EXPORT ORDINAL="4096" NAME="?getMemoryUsage@ResourceManager@Ogre@@MBEIXZ" PURGE="0" COMMENT="" />
    <EXPORT ORDINAL="4097" NAME="?getMesh@Entity@Ogre@@QBEABVMeshPtr@2@XZ" PURGE="0" COMMENT="" />
    <EXPORT ORDINAL="4098" NAME="?getMeshManager@Root@Ogre@@QAEPAVMeshManager@2@XZ" PURGE="0" COMMENT="" />
    <EXPORT ORDINAL="4099" NAME="?getMetaData@SceneManagerEnumerator@Ogre@@QBEPBUSceneManagerMetaData@2@ABV?$basic_string@DU?$char_traits@D@std@@V?$allocator@D@2@@std@@@Z" PURGE="4" COMMENT="" />
    <EXPORT ORDINAL="4100" NAME="?getMetaData@SceneManagerFactory@Ogre@@UBEABUSceneManagerMetaData@2@XZ" PURGE="0" COMMENT="" />
    <EXPORT ORDINAL="4101" NAME="?getMetaDataIterator@SceneManagerEnumerator@Ogre@@QBE?AV?$ConstVectorIterator@V?$vector@PBUSceneManagerMetaData@Ogre@@V?$allocator@PBUSceneManagerMetaData@Ogre@@@std@@@std@@@2@XZ" PURGE="4" COMMENT="" />
    <EXPORT ORDINAL="4102" NAME="?getMetrics@RenderTarget@Ogre@@UAEXAAI00@Z" PURGE="12" COMMENT="" />
    <EXPORT ORDINAL="4103" NAME="?getMetrics@RenderWindow@Ogre@@UAEXAAI00AAH1@Z" PURGE="20" COMMENT="" />
    <EXPORT ORDINAL="4104" NAME="?getMetricsMode@OverlayElement@Ogre@@UBE?AW4GuiMetricsMode@2@XZ" PURGE="0" COMMENT="" />
    <EXPORT ORDINAL="4105" NAME="?getMicroseconds@Timer@Ogre@@UAEKXZ" PURGE="-1" COMMENT="" />
    <EXPORT ORDINAL="4106" NAME="?getMicrosecondsCPU@Timer@Ogre@@UAEKXZ" PURGE="0" COMMENT="" />
    <EXPORT ORDINAL="4107" NAME="?getMilliseconds@Timer@Ogre@@UAEKXZ" PURGE="-1" COMMENT="" />
    <EXPORT ORDINAL="4108" NAME="?getMillisecondsCPU@Timer@Ogre@@UAEKXZ" PURGE="0" COMMENT="" />
    <EXPORT ORDINAL="4109" NAME="?getMinDuration@ParticleEmitter@Ogre@@UBEMXZ" PURGE="0" COMMENT="" />
    <EXPORT ORDINAL="4110" NAME="?getMinParticleVelocity@ParticleEmitter@Ogre@@UBEMXZ" PURGE="0" COMMENT="" />
    <EXPORT ORDINAL="4111" NAME="?getMinRepeatDelay@ParticleEmitter@Ogre@@UBEMXZ" PURGE="0" COMMENT="" />
    <EXPORT ORDINAL="4112" NAME="?getMinTimeToLive@ParticleEmitter@Ogre@@UBEMXZ" PURGE="0" COMMENT="" />
    <EXPORT ORDINAL="4113" NAME="?getMinimum@AxisAlignedBox@Ogre@@QBEABVVector3@2@XZ" PURGE="0" COMMENT="" />
    <EXPORT ORDINAL="4114" NAME="?getMipmapsHardwareGenerated@Texture@Ogre@@UBE_NXZ" PURGE="0" COMMENT="" />
    <EXPORT ORDINAL="4115" NAME="?getMisses@VertexCacheProfiler@Ogre@@QAEIXZ" PURGE="0" COMMENT="" />
    <EXPORT ORDINAL="4116" NAME="?getModifiers@InputEvent@Ogre@@QBEHXZ" PURGE="0" COMMENT="" />
    <EXPORT ORDINAL="4117" NAME="?getMouseRelativeX@InputReader@Ogre@@UBEJXZ" PURGE="-1" COMMENT="" />
    <EXPORT ORDINAL="4118" NAME="?getMouseRelativeY@InputReader@Ogre@@UBEJXZ" PURGE="-1" COMMENT="" />
    <EXPORT ORDINAL="4119" NAME="?getMouseRelativeZ@InputReader@Ogre@@UBEJXZ" PURGE="-1" COMMENT="" />
    <EXPORT ORDINAL="4120" NAME="?getMouseScale@InputReader@Ogre@@UBEMXZ" PURGE="0" COMMENT="" />
    <EXPORT ORDINAL="4121" NAME="?getMouseX@EventDispatcher@Ogre@@QBEMXZ" PURGE="0" COMMENT="" />
    <EXPORT ORDINAL="4122" NAME="?getMouseY@EventDispatcher@Ogre@@QBEMXZ" PURGE="0" COMMENT="" />
    <EXPORT ORDINAL="4123" NAME="?getMovableObject@SceneManager@Ogre@@UAEPAVMovableObject@2@ABV?$basic_string@DU?$char_traits@D@std@@V?$allocator@D@2@@std@@0@Z" PURGE="8" COMMENT="" />
    <EXPORT ORDINAL="4124" NAME="?getMovableObjectFactory@Root@Ogre@@QAEPAVMovableObjectFactory@2@ABV?$basic_string@DU?$char_traits@D@std@@V?$allocator@D@2@@std@@@Z" PURGE="4" COMMENT="" />
    <EXPORT ORDINAL="4125" NAME="?getMovableObjectFactoryIterator@Root@Ogre@@QBE?AV?$ConstMapIterator@V?$map@V?$basic_string@DU?$char_traits@D@std@@V?$allocator@D@2@@std@@PAVMovableObjectFactory@Ogre@@U?$less@V?$basic_string@DU?$char_traits@D@std@@V?$allocator@D@2@@std@@@2@V?$allocator@U?$pair@$$CBV?$basic_string@DU?$char_traits@D@std@@V?$allocator@D@2@@std@@PAVMovableObjectFactory@Ogre@@@std@@@2@@std@@@2@XZ" PURGE="4" COMMENT="" />
    <EXPORT ORDINAL="4126" NAME="?getMovableObjectIterator@SceneManager@Ogre@@UAE?AV?$MapIterator@V?$map@V?$basic_string@DU?$char_traits@D@std@@V?$allocator@D@2@@std@@PAVMovableObject@Ogre@@U?$less@V?$basic_string@DU?$char_traits@D@std@@V?$allocator@D@2@@std@@@2@V?$allocator@U?$pair@$$CBV?$basic_string@DU?$char_traits@D@std@@V?$allocator@D@2@@std@@PAVMovableObject@Ogre@@@std@@@2@@std@@@2@ABV?$basic_string@DU?$char_traits@D@std@@V?$allocator@D@2@@std@@@Z" PURGE="8" COMMENT="" />
    <EXPORT ORDINAL="4127" NAME="?getMovableObjectMap@SceneManager@Ogre@@IAEPAV?$map@V?$basic_string@DU?$char_traits@D@std@@V?$allocator@D@2@@std@@PAVMovableObject@Ogre@@U?$less@V?$basic_string@DU?$char_traits@D@std@@V?$allocator@D@2@@std@@@2@V?$allocator@U?$pair@$$CBV?$basic_string@DU?$char_traits@D@std@@V?$allocator@D@2@@std@@PAVMovableObject@Ogre@@@std@@@2@@std@@ABV?$basic_string@DU?$char_traits@D@std@@V?$allocator@D@2@@4@@Z" PURGE="4" COMMENT="" />
    <EXPORT ORDINAL="4128" NAME="?getMovableType@BillboardChain@Ogre@@UBEABV?$basic_string@DU?$char_traits@D@std@@V?$allocator@D@2@@std@@XZ" PURGE="0" COMMENT="" />
    <EXPORT ORDINAL="4129" NAME="?getMovableType@BillboardSet@Ogre@@UBEABV?$basic_string@DU?$char_traits@D@std@@V?$allocator@D@2@@std@@XZ" PURGE="0" COMMENT="" />
