<?xml version="1.0" encoding="UTF-8"?>
<LIBRARY NAME="oisapp.dll" PATH="/DLLArchive/etc/OISAPP.DLL" DATE="Fri Jul 03 13:04:56 PDT 2020" VERSION="11.0.5510">
    <EXPORT ORDINAL="1" NAME="?CdlDoEvent@OISAppApi@@YG_NAAUtagMSG@@@Z" PURGE="-1" COMMENT="" />
    <EXPORT ORDINAL="2" NAME="?CdlDoIdle@OISAppApi@@YGXXZ" PURGE="-1" COMMENT="" />
    <EXPORT ORDINAL="3" NAME="?CdlWorkPaneCallback@OISAppApi@@YIHHHPAX00@Z" PURGE="12" COMMENT="" />
    <EXPORT ORDINAL="4" NAME="?CreateMediaWindow@OISAppApi@@YGPAUHWND__@@PAU2@@Z" PURGE="4" COMMENT="" />
    <EXPORT ORDINAL="5" NAME="?DgBrightContrastPaneDialog@OISAppApi@@YGPAVDLDialog@Ofc@@AAUICdlContext@3@@Z" PURGE="4" COMMENT="" />
    <EXPORT ORDINAL="6" NAME="?DgCompressPicsDialog@OISAppApi@@YGPAVDLDialog@Ofc@@AAUICdlContext@3@@Z" PURGE="4" COMMENT="" />
    <EXPORT ORDINAL="7" NAME="?DgCropPaneDialog@OISAppApi@@YGPAVDLDialog@Ofc@@AAUICdlContext@3@@Z" PURGE="4" COMMENT="" />
    <EXPORT ORDINAL="8" NAME="?DgDownloadDialog@OISAppApi@@YGXAAUDownloadSettings@@@Z" PURGE="4" COMMENT="" />
    <EXPORT ORDINAL="9" NAME="?DgEditHomeDialog@OISAppApi@@YGPAVDLDialog@Ofc@@AAUICdlContext@3@@Z" PURGE="4" COMMENT="" />
    <EXPORT ORDINAL="10" NAME="?DgEditModeButtonBar@OISAppApi@@YGPAVDLDialog@Ofc@@AAUICdlContext@3@@Z" PURGE="4" COMMENT="" />
    <EXPORT ORDINAL="11" NAME="?DgEmailDialog@OISAppApi@@YGPAVDLDialog@Ofc@@AAUICdlContext@3@@Z" PURGE="4" COMMENT="" />
    <EXPORT ORDINAL="12" NAME="?DgEmailOptionsDialog@OISAppApi@@YGXAAVCEmailMngrCommand@@@Z" PURGE="4" COMMENT="" />
    <EXPORT ORDINAL="13" NAME="?DgFileFormatOptDialog@OISAppApi@@YGPAVDLDialog@Ofc@@AAUICdlContext@3@@Z" PURGE="4" COMMENT="" />
    <EXPORT ORDINAL="14" NAME="?DgHomeDialog@OISAppApi@@YGPAVDLDialog@Ofc@@AAUICdlContext@3@@Z" PURGE="4" COMMENT="" />
    <EXPORT ORDINAL="15" NAME="?DgHueSatPaneDialog@OISAppApi@@YGPAVDLDialog@Ofc@@AAUICdlContext@3@@Z" PURGE="4" COMMENT="" />
    <EXPORT ORDINAL="16" NAME="?DgLocatePicturesDialog@OISAppApi@@YGPAVDLDialog@Ofc@@AAUICdlContext@3@@Z" PURGE="4" COMMENT="" />
    <EXPORT ORDINAL="17" NAME="?DgNavigationPaneDialog@OISAppApi@@YGPAVDLDialog@Ofc@@AAUICdlContext@3@@Z" PURGE="4" COMMENT="" />
    <EXPORT ORDINAL="18" NAME="?DgOptionsDialog@OISAppApi@@YGXAAVCOptions@@@Z" PURGE="4" COMMENT="" />
    <EXPORT ORDINAL="19" NAME="?DgPropertiesPaneDialog@OISAppApi@@YGPAVDLDialog@Ofc@@AAUICdlContext@3@@Z" PURGE="4" COMMENT="" />
    <EXPORT ORDINAL="20" NAME="?DgPublishDialog@OISAppApi@@YGPAVDLDialog@Ofc@@AAUICdlContext@3@@Z" PURGE="4" COMMENT="" />
    <EXPORT ORDINAL="21" NAME="?DgRedEyePaneDialog@OISAppApi@@YGPAVDLDialog@Ofc@@AAUICdlContext@3@@Z" PURGE="4" COMMENT="" />
    <EXPORT ORDINAL="22" NAME="?DgRenamePaneDialog@OISAppApi@@YGPAVDLDialog@Ofc@@AAUICdlContext@3@_N@Z" PURGE="8" COMMENT="" />
    <EXPORT ORDINAL="23" NAME="?DgResizeDialog@OISAppApi@@YGPAVDLDialog@Ofc@@AAUICdlContext@3@_N@Z" PURGE="8" COMMENT="" />
    <EXPORT ORDINAL="24" NAME="?DgRotatePaneDialog@OISAppApi@@YGPAVDLDialog@Ofc@@AAUICdlContext@3@@Z" PURGE="4" COMMENT="" />
    <EXPORT ORDINAL="25" NAME="?DgSTSNewFolderDialog@OISAppApi@@YGXAAVCSTSNewFolderOptions@@@Z" PURGE="4" COMMENT="" />
    <EXPORT ORDINAL="26" NAME="?DgSendToDialog@OISAppApi@@YGXABUDownloadSettings@@@Z" PURGE="4" COMMENT="" />
    <EXPORT ORDINAL="27" NAME="?DgUploadDialog@OISAppApi@@YGPAVDLDialog@Ofc@@AAUICdlContext@3@@Z" PURGE="4" COMMENT="" />
    <EXPORT ORDINAL="28" NAME="?DgUploadModeButtonBar@OISAppApi@@YGPAVDLDialog@Ofc@@AAUICdlContext@3@@Z" PURGE="4" COMMENT="" />
    <EXPORT ORDINAL="29" NAME="?DoBrowseMode@COISApp@@SAXABV?$TObjArray@VCVarStr@Ofc@@@Ofc@@@Z" PURGE="0" COMMENT="" />
    <EXPORT ORDINAL="30" NAME="?DoDownloadMode@COISApp@@QAEXAAUDownloadSettings@@@Z" PURGE="4" COMMENT="" />
    <EXPORT ORDINAL="31" NAME="?DoEditMode@COISApp@@QAEXABV?$TObjArray@VCVarStr@Ofc@@@Ofc@@_N@Z" PURGE="8" COMMENT="" />
    <EXPORT ORDINAL="32" NAME="?DoNormalMode@COISApp@@SAXXZ" PURGE="0" COMMENT="" />
    <EXPORT ORDINAL="33" NAME="?DoSendToMode@COISApp@@QAEXABUDownloadSettings@@@Z" PURGE="4" COMMENT="" />
    <EXPORT ORDINAL="34" NAME="?DoUploadMode@COISApp@@QAEXABV?$TObjArray@VCVarStr@Ofc@@@Ofc@@@Z" PURGE="4" COMMENT="" />
    <EXPORT ORDINAL="35" NAME="?ExitInstance@OISAppApi@@YGXXZ" PURGE="0" COMMENT="" />
    <EXPORT ORDINAL="36" NAME="?FDoShutdown@OISAppApi@@YG_NXZ" PURGE="0" COMMENT="" />
    <EXPORT ORDINAL="37" NAME="?FIsEditMode@COISApp@@QBE_NXZ" PURGE="0" COMMENT="" />
    <EXPORT ORDINAL="38" NAME="?FIsRFMDisabled@COISApp@@QBE_NXZ" PURGE="0" COMMENT="" />
    <EXPORT ORDINAL="39" NAME="?FIsUploadMode@COISApp@@QBE_NXZ" PURGE="0" COMMENT="" />
    <EXPORT ORDINAL="40" NAME="?GetApp@OISAppApi@@YGPAVCOISApp@@XZ" PURGE="0" COMMENT="" />
    <EXPORT ORDINAL="41" NAME="?GetCDLContext@OISAppApi@@YGPAUICdlContext@Ofc@@XZ" PURGE="0" COMMENT="" />
    <EXPORT ORDINAL="42" NAME="?GetInstance@OISAppApi@@YGPAUHINSTANCE__@@XZ" PURGE="0" COMMENT="" />
    <EXPORT ORDINAL="43" NAME="?GetOISIntl@OISAppApi@@YGPAUHINSTANCE__@@XZ" PURGE="0" COMMENT="" />
    <EXPORT ORDINAL="44" NAME="?GetOISSelectionContext@OISAppApi@@YGXPAPAUIContext@Jot@@@Z" PURGE="4" COMMENT="" />
    <EXPORT ORDINAL="45" NAME="?GetRootCollection@CAppOA@@SAXPAPBG@Z" PURGE="0" COMMENT="" />
    <EXPORT ORDINAL="46" NAME="?GetTestWizardInfo@COISApp@@SAXW4TestWizardRequestedItem@@PAXPAUtagPOINT@@@Z" PURGE="0" COMMENT="" />
    <EXPORT ORDINAL="47" NAME="?InitInstance@OISAppApi@@YGXPAUMSOINST@@PAUHINSTANCE__@@@Z" PURGE="8" COMMENT="" />
    <EXPORT ORDINAL="48" NAME="?OnSetFocus@OISAppApi@@YGXXZ" PURGE="0" COMMENT="" />
    <EXPORT ORDINAL="49" NAME="?RFMDisableApp@COISApp@@QAEXXZ" PURGE="0" COMMENT="" />
    <EXPORT ORDINAL="50" NAME="?SetContextMenuCallback@OISAppApi@@YGXP6IXHABUtagPOINT@@H@Z@Z" PURGE="4" COMMENT="" />
    <EXPORT ORDINAL="51" NAME="?SetFrameHwnd@OISAppApi@@YGXPAUHWND__@@@Z" PURGE="4" COMMENT="" />
    <EXPORT ORDINAL="52" NAME="?SetShowToolbar@OISAppApi@@YGXP6IXH@Z@Z" PURGE="4" COMMENT="" />
    <EXPORT ORDINAL="53" NAME="?SetTestWizardInfo@COISApp@@SAJKUtagVARIANT@@@Z" PURGE="0" COMMENT="" />
    <EXPORT ORDINAL="54" NAME="?Singleton@CAppOA@@SAPAV1@XZ" PURGE="0" COMMENT="" />
</LIBRARY>

