<?xml version="1.0" encoding="UTF-8"?>
<LIBRARY NAME="olutdll.dll" PATH="/DLLArchive/etc/olutdll.dll" DATE="Fri Jul 03 13:05:10 PDT 2020" VERSION="11.00.0716">
    <EXPORT ORDINAL="1" NAME="??0CConversionRpt@@QAE@ABV0@@Z" PURGE="4" COMMENT="" />
    <EXPORT ORDINAL="2" NAME="??0CConversionRpt@@QAE@XZ" PURGE="0" COMMENT="" />
    <EXPORT ORDINAL="3" NAME="??0CFileMap@@QAE@XZ" PURGE="0" COMMENT="" />
    <EXPORT ORDINAL="4" NAME="??0CShowWaitCursor@@QAE@XZ" PURGE="0" COMMENT="" />
    <EXPORT ORDINAL="5" NAME="??1CConversionRpt@@QAE@XZ" PURGE="0" COMMENT="" />
    <EXPORT ORDINAL="6" NAME="??1CFileMap@@QAE@XZ" PURGE="0" COMMENT="" />
    <EXPORT ORDINAL="7" NAME="??1CShowWaitCursor@@QAE@XZ" PURGE="0" COMMENT="" />
    <EXPORT ORDINAL="8" NAME="??4CConversionRpt@@QAEAAV0@ABV0@@Z" PURGE="4" COMMENT="" />
    <EXPORT ORDINAL="9" NAME="??4CShowWaitCursor@@QAEAAV0@ABV0@@Z" PURGE="4" COMMENT="" />
    <EXPORT ORDINAL="10" NAME="?AddOutStandingTrns@CConversionRpt@@AAEXAAVCOfdProvFi@@@Z" PURGE="4" COMMENT="" />
    <EXPORT ORDINAL="11" NAME="?AddReportHeader@CConversionRpt@@AAEXXZ" PURGE="0" COMMENT="" />
    <EXPORT ORDINAL="12" NAME="?AddTrailor@CConversionRpt@@AAEXXZ" PURGE="0" COMMENT="" />
    <EXPORT ORDINAL="13" NAME="?CLSIDFromOldtVersion@@YA?AU_GUID@@W4__MIDL___MIDL_itf_iofd_0157_0003@@PBD@Z" PURGE="0" COMMENT="" />
    <EXPORT ORDINAL="14" NAME="?CbFile@CFileMap@@QAEKXZ" PURGE="0" COMMENT="" />
    <EXPORT ORDINAL="15" NAME="?CchStripBlankEnds@@YAHPADH0PAHI@Z" PURGE="0" COMMENT="" />
    <EXPORT ORDINAL="16" NAME="?CchStripSeparators@@YAIPADPBDIPAH2@Z" PURGE="0" COMMENT="" />
    <EXPORT ORDINAL="17" NAME="?CleanUp@CConversionRpt@@AAEXXZ" PURGE="0" COMMENT="" />
    <EXPORT ORDINAL="18" NAME="?CreateStringFromID@@YAHPAUHINSTANCE__@@AAVCString@@IZZ" PURGE="0" COMMENT="" />
    <EXPORT ORDINAL="19" NAME="?Deinit@CFileMap@@QAEXXZ" PURGE="0" COMMENT="" />
    <EXPORT ORDINAL="20" NAME="?DisplayTrnNoResponseMsg@@YAXPAUHWND__@@ABVCOfdTrn@@@Z" PURGE="0" COMMENT="" />
    <EXPORT ORDINAL="21" NAME="?DnmidFromHcrnc@@YAPAU_Dnmid@@J@Z" PURGE="0" COMMENT="" />
    <EXPORT ORDINAL="22" NAME="?DoConvertRptBillLines@CConversionRpt@@AAEXHAAVCOfdListBill@@@Z" PURGE="8" COMMENT="" />
    <EXPORT ORDINAL="23" NAME="?DoConvertRptTrnLines@CConversionRpt@@AAEXHAAVCOfdListTrn@@@Z" PURGE="8" COMMENT="" />
    <EXPORT ORDINAL="24" NAME="?Error@@YAHPAUHINSTANCE__@@PAUHWND__@@III@Z" PURGE="0" COMMENT="" />
    <EXPORT ORDINAL="25" NAME="?FCheckNoCr@@YAHAAVCOfdFi@@PAUHWND__@@@Z" PURGE="0" COMMENT="" />
    <EXPORT ORDINAL="26" NAME="?FFiInCrashRecovery@@YAHAAVCOfdFi@@@Z" PURGE="0" COMMENT="" />
    <EXPORT ORDINAL="27" NAME="?FGetColorLogoPath@@YAHAAVCString@@@Z" PURGE="0" COMMENT="" />
    <EXPORT ORDINAL="28" NAME="?FGetCurrencyFromISOCode@@YAHAAVCOfdFile@@PADAAVCOfdCrnc@@@Z" PURGE="0" COMMENT="" />
    <EXPORT ORDINAL="29" NAME="?FGetTodaysDateAsString@@YAHAAVCString@@@Z" PURGE="0" COMMENT="" />
    <EXPORT ORDINAL="30" NAME="?FIsTrnLevelCurrencyValid@@YAHJJ@Z" PURGE="0" COMMENT="" />
    <EXPORT ORDINAL="31" NAME="?FIsValidBankRTNorBankId@@YAHPBDH@Z" PURGE="0" COMMENT="" />
    <EXPORT ORDINAL="32" NAME="?FIsValidUSRoutingNumber@@YAHPBD@Z" PURGE="0" COMMENT="" />
    <EXPORT ORDINAL="33" NAME="?FLoadFIPartnerInfo@@YAHHAAUFIPartner@@H@Z" PURGE="0" COMMENT="" />
    <EXPORT ORDINAL="34" NAME="?FSetupForMCSync@@YAHABVCOfdFile@@@Z" PURGE="0" COMMENT="" />
    <EXPORT ORDINAL="35" NAME="?FSzBlankOrEmpty@@YAHPAD@Z" PURGE="0" COMMENT="" />
    <EXPORT ORDINAL="36" NAME="?FUseNonSecure@@YAHXZ" PURGE="0" COMMENT="" />
    <EXPORT ORDINAL="37" NAME="?FValidString@@YAHPADHH@Z" PURGE="0" COMMENT="" />
    <EXPORT ORDINAL="38" NAME="?FVerifyPassportPin@@YAHPBDPAUHWND__@@@Z" PURGE="0" COMMENT="" />
    <EXPORT ORDINAL="39" NAME="?FVerifyPin@@YAHAAVCOfdProvFi@@PBDPAUHWND__@@@Z" PURGE="0" COMMENT="" />
    <EXPORT ORDINAL="40" NAME="?FVerifyTAN@@YAHPBDPAUHWND__@@@Z" PURGE="0" COMMENT="" />
    <EXPORT ORDINAL="41" NAME="?FormatAmountString@@YA?AVCString@@ABTtagCY@@J@Z" PURGE="0" COMMENT="" />
    <EXPORT ORDINAL="42" NAME="?FormatDateString@@YA?AVCString@@ABN@Z" PURGE="0" COMMENT="" />
    <EXPORT ORDINAL="43" NAME="?FormatTimeString@@YA?AVCString@@ABN@Z" PURGE="0" COMMENT="" />
    <EXPORT ORDINAL="44" NAME="?GetFileName@CConversionRpt@@QAEXAAVCString@@@Z" PURGE="4" COMMENT="" />
    <EXPORT ORDINAL="45" NAME="?GetProvIniEntry@@YAPBDPBD00H@Z" PURGE="0" COMMENT="" />
    <EXPORT ORDINAL="46" NAME="?GetReportURL@CConversionRpt@@QAEXAAVCString@@@Z" PURGE="4" COMMENT="" />
    <EXPORT ORDINAL="47" NAME="?HrAcquireMutexLock@@YAJABVCOfdProvFi@@PAPAVCMutex@@PAPAVCSingleLock@@@Z" PURGE="0" COMMENT="" />
    <EXPORT ORDINAL="48" NAME="?HrAddDeadDvrReport@CConversionRpt@@QAEJAAVCOfdProvFi@@@Z" PURGE="4" COMMENT="" />
    <EXPORT ORDINAL="49" NAME="?HrAddGenericReport@CConversionRpt@@QAEJAAVCOfdProvFi@@@Z" PURGE="4" COMMENT="" />
    <EXPORT ORDINAL="50" NAME="?HrAddIsc2NpcReport@CConversionRpt@@QAEJAAVCOfdProvFi@@@Z" PURGE="4" COMMENT="" />
    <EXPORT ORDINAL="51" NAME="?HrBreakMailLines@@YAJPADJJPAPAD@Z" PURGE="0" COMMENT="" />
    <EXPORT ORDINAL="52" NAME="?HrCancelCrashRecovery@@YAJAAVCOfdProvFi@@@Z" PURGE="0" COMMENT="" />
    <EXPORT ORDINAL="53" NAME="?HrConversionRequired@@YAJAAVCOfdProvFi@@PBUFIPartner@@PAW4UPDATE_TYPE@@@Z" PURGE="0" COMMENT="" />
    <EXPORT ORDINAL="54" NAME="?HrConvertNpcToOfx@@YAJAAVCOfdProvFi@@@Z" PURGE="0" COMMENT="" />
    <EXPORT ORDINAL="55" NAME="?HrDeleteBankMail@@YAJABVCOfdFi@@HH@Z" PURGE="0" COMMENT="" />
    <EXPORT ORDINAL="56" NAME="?HrFindPayeeFromTrnId@@YAJPBDPAPAUIOfdPay@@PAUIOfdFile@@@Z" PURGE="0" COMMENT="" />
    <EXPORT ORDINAL="57" NAME="?HrFindProvider@@YAJABVCOfdFile@@ABVCOfdFi@@JPAVCOfdProvFi@@@Z" PURGE="0" COMMENT="" />
    <EXPORT ORDINAL="58" NAME="?HrFromException@@YAJPAVCException@@@Z" PURGE="0" COMMENT="" />
    <EXPORT ORDINAL="59" NAME="?HrGetFISkuBankID@@YAJPADHPAH@Z" PURGE="0" COMMENT="" />
    <EXPORT ORDINAL="60" NAME="?HrGetFullyQualifiedName@@YAJABVCOfdSec@@PAD@Z" PURGE="0" COMMENT="" />
    <EXPORT ORDINAL="61" NAME="?HrGetICallSummary@@YAJPAUUIINFO@@PAPAUICallSummary@@@Z" PURGE="0" COMMENT="" />
    <EXPORT ORDINAL="62" NAME="?HrGetNonSecureURL@@YAJPBDAAVCString@@@Z" PURGE="0" COMMENT="" />
    <EXPORT ORDINAL="63" NAME="?HrInit@CFileMap@@QAEJPBD@Z" PURGE="4" COMMENT="" />
    <EXPORT ORDINAL="64" NAME="?HrInitialize@CConversionRpt@@QAEJAAVCOfdFile@@@Z" PURGE="4" COMMENT="" />
    <EXPORT ORDINAL="65" NAME="?HrSetAndCommitPayeeNotify@@YAJABVCOfdPay@@ABVCOfdProvFi@@H@Z" PURGE="0" COMMENT="" />
    <EXPORT ORDINAL="66" NAME="?HrSetupProvFi@@YAJHAAVCOfdFi@@AAVCOfdProvFi@@H@Z" PURGE="0" COMMENT="" />
    <EXPORT ORDINAL="67" NAME="?HrValidMemo@@YAJABVCOfdTrn@@HHPAH@Z" PURGE="0" COMMENT="" />
    <EXPORT ORDINAL="68" NAME="?NBitsPerPixelAvailable@@YAHPAUHWND__@@@Z" PURGE="0" COMMENT="" />
    <EXPORT ORDINAL="69" NAME="?NLocalizableMessageBox@@YAHPAUHINSTANCE__@@PAUHWND__@@IKIZZ" PURGE="0" COMMENT="" />
    <EXPORT ORDINAL="70" NAME="?PvStartAddr@CFileMap@@QAEPAXXZ" PURGE="0" COMMENT="" />
    <EXPORT ORDINAL="71" NAME="?SaveFile@@YAHVCString@@PBDKH@Z" PURGE="0" COMMENT="" />
    <EXPORT ORDINAL="72" NAME="?SetBdsId@@YAXPAVCOfdFi@@@Z" PURGE="0" COMMENT="" />
    <EXPORT ORDINAL="73" NAME="?SetFastPict@@YAXPAUHINSTANCE__@@PAUHWND__@@PBDW4FASTPICTALIGN@@HHPAUHPALETTE__@@H@Z" PURGE="0" COMMENT="" />
    <EXPORT ORDINAL="74" NAME="?SzReadTextFile@@YAPADPAD@Z" PURGE="0" COMMENT="" />
    <EXPORT ORDINAL="75" NAME="?ThrowOlsException@@YGXJ@Z" PURGE="0" COMMENT="" />
    <EXPORT ORDINAL="76" NAME="?WriteString@CConversionRpt@@AAEXAAVCString@@@Z" PURGE="4" COMMENT="" />
    <EXPORT ORDINAL="77" NAME="DllRegisterServer" PURGE="0" COMMENT="" />
    <EXPORT ORDINAL="78" NAME="DllUnregisterServer" PURGE="0" COMMENT="" />
</LIBRARY>

