<?xml version="1.0" encoding="UTF-8"?>
<LIBRARY NAME="orcsystem.dll" PATH="/DLLArchive/etc/orcSystem.dll" DATE="Fri Jul 03 13:05:25 PDT 2020" VERSION="2.12.0.0">
    <EXPORT ORDINAL="1" NAME="??0?$Base_configurable@H@Orc@@QAE@ABV01@@Z" PURGE="4" COMMENT="" />
    <EXPORT ORDINAL="2" NAME="??0?$Base_configurable@H@Orc@@QAE@VString@1@ABH@Z" PURGE="28" COMMENT="" />
    <EXPORT ORDINAL="3" NAME="??0?$Base_configurable@H@Orc@@QAE@VString@1@ABHI@Z" PURGE="32" COMMENT="" />
    <EXPORT ORDINAL="4" NAME="??0?$Base_configurable@M@Orc@@QAE@ABV01@@Z" PURGE="4" COMMENT="" />
    <EXPORT ORDINAL="5" NAME="??0?$Base_configurable@M@Orc@@QAE@VString@1@ABM@Z" PURGE="28" COMMENT="" />
    <EXPORT ORDINAL="6" NAME="??0?$Base_configurable@M@Orc@@QAE@VString@1@ABMI@Z" PURGE="32" COMMENT="" />
    <EXPORT ORDINAL="7" NAME="??0?$Base_configurable@_N@Orc@@QAE@ABV01@@Z" PURGE="4" COMMENT="" />
    <EXPORT ORDINAL="8" NAME="??0?$Base_configurable@_N@Orc@@QAE@VString@1@AB_N@Z" PURGE="28" COMMENT="" />
    <EXPORT ORDINAL="9" NAME="??0?$Base_configurable@_N@Orc@@QAE@VString@1@AB_NI@Z" PURGE="32" COMMENT="" />
    <EXPORT ORDINAL="10" NAME="??0?$Configurable@H@Orc@@QAE@ABV01@@Z" PURGE="4" COMMENT="" />
    <EXPORT ORDINAL="11" NAME="??0?$Configurable@H@Orc@@QAE@VString@1@ABH@Z" PURGE="28" COMMENT="" />
    <EXPORT ORDINAL="12" NAME="??0?$Configurable@H@Orc@@QAE@VString@1@ABHI@Z" PURGE="32" COMMENT="" />
    <EXPORT ORDINAL="13" NAME="??0?$Configurable@M@Orc@@QAE@ABV01@@Z" PURGE="4" COMMENT="" />
    <EXPORT ORDINAL="14" NAME="??0?$Configurable@M@Orc@@QAE@VString@1@ABM@Z" PURGE="28" COMMENT="" />
    <EXPORT ORDINAL="15" NAME="??0?$Configurable@M@Orc@@QAE@VString@1@ABMI@Z" PURGE="32" COMMENT="" />
    <EXPORT ORDINAL="16" NAME="??0?$Configurable@_N@Orc@@QAE@ABV01@@Z" PURGE="4" COMMENT="" />
    <EXPORT ORDINAL="17" NAME="??0?$Configurable@_N@Orc@@QAE@VString@1@AB_N@Z" PURGE="28" COMMENT="" />
    <EXPORT ORDINAL="18" NAME="??0?$Configurable@_N@Orc@@QAE@VString@1@AB_NI@Z" PURGE="32" COMMENT="" />
    <EXPORT ORDINAL="19" NAME="??0?$FactoryObj@ViArchive@Orc@@@Orc@@QAE@ABV01@@Z" PURGE="4" COMMENT="" />
    <EXPORT ORDINAL="20" NAME="??0?$FactoryObj@ViArchive@Orc@@@Orc@@QAE@XZ" PURGE="0" COMMENT="" />
    <EXPORT ORDINAL="21" NAME="??0?$FactoryObj@ViCodec@Orc@@@Orc@@QAE@ABV01@@Z" PURGE="4" COMMENT="" />
    <EXPORT ORDINAL="22" NAME="??0?$FactoryObj@ViCodec@Orc@@@Orc@@QAE@XZ" PURGE="0" COMMENT="" />
    <EXPORT ORDINAL="23" NAME="??0?$FactoryObj@ViMovie@Orc@@@Orc@@QAE@ABV01@@Z" PURGE="4" COMMENT="" />
    <EXPORT ORDINAL="24" NAME="??0?$FactoryObj@ViMovie@Orc@@@Orc@@QAE@XZ" PURGE="0" COMMENT="" />
    <EXPORT ORDINAL="25" NAME="??0?$FactoryObj@ViSoundSystem@Orc@@@Orc@@QAE@ABV01@@Z" PURGE="4" COMMENT="" />
    <EXPORT ORDINAL="26" NAME="??0?$FactoryObj@ViSoundSystem@Orc@@@Orc@@QAE@XZ" PURGE="0" COMMENT="" />
    <EXPORT ORDINAL="27" NAME="??0?$_String_base@DV?$memtrack_allocator@D$0IMHGPCA@@stlp_std@@@stlp_std@@IAE@ABV?$memtrack_allocator@D$0IMHGPCA@@1@@Z" PURGE="4" COMMENT="" />
    <EXPORT ORDINAL="28" NAME="??0?$_String_base@DV?$memtrack_allocator@D$0IMHGPCA@@stlp_std@@@stlp_std@@IAE@ABV?$memtrack_allocator@D$0IMHGPCA@@1@I@Z" PURGE="8" COMMENT="" />
    <EXPORT ORDINAL="29" NAME="??0?$_String_base@DV?$memtrack_allocator@D$0IMHGPCA@@stlp_std@@@stlp_std@@IAE@V?$__move_source@V?$_String_base@DV?$memtrack_allocator@D$0IMHGPCA@@stlp_std@@@stlp_std@@@1@@Z" PURGE="4" COMMENT="" />
    <EXPORT ORDINAL="30" NAME="??0?$_String_base@DV?$memtrack_allocator@D$0IMHGPCA@@stlp_std@@@stlp_std@@QAE@ABV01@@Z" PURGE="4" COMMENT="" />
    <EXPORT ORDINAL="31" NAME="??0?$_String_base@_WV?$memtrack_allocator@_W$0IMHGPCA@@stlp_std@@@stlp_std@@IAE@ABV?$memtrack_allocator@_W$0IMHGPCA@@1@@Z" PURGE="4" COMMENT="" />
    <EXPORT ORDINAL="32" NAME="??0?$_String_base@_WV?$memtrack_allocator@_W$0IMHGPCA@@stlp_std@@@stlp_std@@IAE@ABV?$memtrack_allocator@_W$0IMHGPCA@@1@I@Z" PURGE="8" COMMENT="" />
    <EXPORT ORDINAL="33" NAME="??0?$_String_base@_WV?$memtrack_allocator@_W$0IMHGPCA@@stlp_std@@@stlp_std@@IAE@V?$__move_source@V?$_String_base@_WV?$memtrack_allocator@_W$0IMHGPCA@@stlp_std@@@stlp_std@@@1@@Z" PURGE="4" COMMENT="" />
    <EXPORT ORDINAL="34" NAME="??0?$_String_base@_WV?$memtrack_allocator@_W$0IMHGPCA@@stlp_std@@@stlp_std@@QAE@ABV01@@Z" PURGE="4" COMMENT="" />
    <EXPORT ORDINAL="35" NAME="??0?$basic_string@DV?$char_traits@D@stlp_std@@V?$memtrack_allocator@D$0IMHGPCA@@2@@stlp_std@@QAE@ABV01@@Z" PURGE="4" COMMENT="" />
    <EXPORT ORDINAL="36" NAME="??0?$basic_string@DV?$char_traits@D@stlp_std@@V?$memtrack_allocator@D$0IMHGPCA@@2@@stlp_std@@QAE@ABV01@IIABV?$memtrack_allocator@D$0IMHGPCA@@1@@Z" PURGE="16" COMMENT="" />
    <EXPORT ORDINAL="37" NAME="??0?$basic_string@DV?$char_traits@D@stlp_std@@V?$memtrack_allocator@D$0IMHGPCA@@2@@stlp_std@@QAE@ABV?$memtrack_allocator@D$0IMHGPCA@@1@@Z" PURGE="4" COMMENT="" />
    <EXPORT ORDINAL="38" NAME="??0?$basic_string@DV?$char_traits@D@stlp_std@@V?$memtrack_allocator@D$0IMHGPCA@@2@@stlp_std@@QAE@IDABV?$memtrack_allocator@D$0IMHGPCA@@1@@Z" PURGE="12" COMMENT="" />
    <EXPORT ORDINAL="39" NAME="??0?$basic_string@DV?$char_traits@D@stlp_std@@V?$memtrack_allocator@D$0IMHGPCA@@2@@stlp_std@@QAE@PBD0ABV?$memtrack_allocator@D$0IMHGPCA@@1@@Z" PURGE="12" COMMENT="" />
    <EXPORT ORDINAL="40" NAME="??0?$basic_string@DV?$char_traits@D@stlp_std@@V?$memtrack_allocator@D$0IMHGPCA@@2@@stlp_std@@QAE@PBDABV?$memtrack_allocator@D$0IMHGPCA@@1@@Z" PURGE="8" COMMENT="" />
    <EXPORT ORDINAL="41" NAME="??0?$basic_string@DV?$char_traits@D@stlp_std@@V?$memtrack_allocator@D$0IMHGPCA@@2@@stlp_std@@QAE@PBDIABV?$memtrack_allocator@D$0IMHGPCA@@1@@Z" PURGE="12" COMMENT="" />
    <EXPORT ORDINAL="42" NAME="??0?$basic_string@DV?$char_traits@D@stlp_std@@V?$memtrack_allocator@D$0IMHGPCA@@2@@stlp_std@@QAE@U_String_reserve_t@1@IABV?$memtrack_allocator@D$0IMHGPCA@@1@@Z" PURGE="12" COMMENT="" />
    <EXPORT ORDINAL="43" NAME="??0?$basic_string@DV?$char_traits@D@stlp_std@@V?$memtrack_allocator@D$0IMHGPCA@@2@@stlp_std@@QAE@V?$__move_source@V?$basic_string@DV?$char_traits@D@stlp_std@@V?$memtrack_allocator@D$0IMHGPCA@@2@@stlp_std@@@1@@Z" PURGE="4" COMMENT="" />
    <EXPORT ORDINAL="44" NAME="??0?$basic_string@_WV?$char_traits@_W@stlp_std@@V?$memtrack_allocator@_W$0IMHGPCA@@2@@stlp_std@@QAE@ABV01@@Z" PURGE="4" COMMENT="" />
    <EXPORT ORDINAL="45" NAME="??0?$basic_string@_WV?$char_traits@_W@stlp_std@@V?$memtrack_allocator@_W$0IMHGPCA@@2@@stlp_std@@QAE@ABV01@IIABV?$memtrack_allocator@_W$0IMHGPCA@@1@@Z" PURGE="16" COMMENT="" />
    <EXPORT ORDINAL="46" NAME="??0?$basic_string@_WV?$char_traits@_W@stlp_std@@V?$memtrack_allocator@_W$0IMHGPCA@@2@@stlp_std@@QAE@ABV?$memtrack_allocator@_W$0IMHGPCA@@1@@Z" PURGE="4" COMMENT="" />
    <EXPORT ORDINAL="47" NAME="??0?$basic_string@_WV?$char_traits@_W@stlp_std@@V?$memtrack_allocator@_W$0IMHGPCA@@2@@stlp_std@@QAE@I_WABV?$memtrack_allocator@_W$0IMHGPCA@@1@@Z" PURGE="12" COMMENT="" />
    <EXPORT ORDINAL="48" NAME="??0?$basic_string@_WV?$char_traits@_W@stlp_std@@V?$memtrack_allocator@_W$0IMHGPCA@@2@@stlp_std@@QAE@PB_W0ABV?$memtrack_allocator@_W$0IMHGPCA@@1@@Z" PURGE="12" COMMENT="" />
    <EXPORT ORDINAL="49" NAME="??0?$basic_string@_WV?$char_traits@_W@stlp_std@@V?$memtrack_allocator@_W$0IMHGPCA@@2@@stlp_std@@QAE@PB_WABV?$memtrack_allocator@_W$0IMHGPCA@@1@@Z" PURGE="8" COMMENT="" />
    <EXPORT ORDINAL="50" NAME="??0?$basic_string@_WV?$char_traits@_W@stlp_std@@V?$memtrack_allocator@_W$0IMHGPCA@@2@@stlp_std@@QAE@PB_WIABV?$memtrack_allocator@_W$0IMHGPCA@@1@@Z" PURGE="12" COMMENT="" />
    <EXPORT ORDINAL="51" NAME="??0?$basic_string@_WV?$char_traits@_W@stlp_std@@V?$memtrack_allocator@_W$0IMHGPCA@@2@@stlp_std@@QAE@U_String_reserve_t@1@IABV?$memtrack_allocator@_W$0IMHGPCA@@1@@Z" PURGE="12" COMMENT="" />
    <EXPORT ORDINAL="52" NAME="??0?$basic_string@_WV?$char_traits@_W@stlp_std@@V?$memtrack_allocator@_W$0IMHGPCA@@2@@stlp_std@@QAE@V?$__move_source@V?$basic_string@_WV?$char_traits@_W@stlp_std@@V?$memtrack_allocator@_W$0IMHGPCA@@2@@stlp_std@@@1@@Z" PURGE="4" COMMENT="" />
    <EXPORT ORDINAL="53" NAME="??0?$tSingleton@VArchiveManager@Orc@@@Orc@@QAE@XZ" PURGE="0" COMMENT="" />
    <EXPORT ORDINAL="54" NAME="??0?$tSingleton@VCodecManager@Orc@@@Orc@@QAE@XZ" PURGE="0" COMMENT="" />
    <EXPORT ORDINAL="55" NAME="??0?$tSingleton@VDeprecationMgr@Orc@@@Orc@@QAE@XZ" PURGE="0" COMMENT="" />
    <EXPORT ORDINAL="56" NAME="??0?$tSingleton@VLogManager@Orc@@@Orc@@QAE@XZ" PURGE="0" COMMENT="" />
    <EXPORT ORDINAL="57" NAME="??0?$tSingleton@VMovieManager@Orc@@@Orc@@QAE@XZ" PURGE="0" COMMENT="" />
    <EXPORT ORDINAL="58" NAME="??0?$tSingleton@VParticleSystemMgr@Orc@@@Orc@@QAE@XZ" PURGE="0" COMMENT="" />
    <EXPORT ORDINAL="59" NAME="??0?$tSingleton@VPlatformManager@Orc@@@Orc@@QAE@XZ" PURGE="0" COMMENT="" />
    <EXPORT ORDINAL="60" NAME="??0?$tSingleton@VProcessorInfo@Orc@@@Orc@@QAE@XZ" PURGE="0" COMMENT="" />
    <EXPORT ORDINAL="61" NAME="??0?$tSingleton@VProfileManager@Orc@@@Orc@@QAE@XZ" PURGE="0" COMMENT="" />
    <EXPORT ORDINAL="62" NAME="??0?$tSingleton@VQueuedTaskMgr@Orc@@@Orc@@QAE@XZ" PURGE="0" COMMENT="" />
    <EXPORT ORDINAL="63" NAME="??0?$tSingleton@VRoot@Orc@@@Orc@@QAE@XZ" PURGE="0" COMMENT="" />
    <EXPORT ORDINAL="64" NAME="??0?$tSingleton@VSoundSystemManager@Orc@@@Orc@@QAE@XZ" PURGE="0" COMMENT="" />
    <EXPORT ORDINAL="65" NAME="??0?$tSingleton@VcTableManager@Orc@@@Orc@@QAE@XZ" PURGE="0" COMMENT="" />
    <EXPORT ORDINAL="66" NAME="??0ArchiveFactory@Orc@@QAE@ABV01@@Z" PURGE="4" COMMENT="" />
    <EXPORT ORDINAL="67" NAME="??0ArchiveFactory@Orc@@QAE@XZ" PURGE="0" COMMENT="" />
    <EXPORT ORDINAL="68" NAME="??0ArchiveManager@Orc@@QAE@XZ" PURGE="0" COMMENT="" />
    <EXPORT ORDINAL="69" NAME="??0Breakpoint@Orc@@QAE@PAXHW4Condition@01@@Z" PURGE="12" COMMENT="" />
    <EXPORT ORDINAL="70" NAME="??0Breakpoint@Orc@@QAE@XZ" PURGE="0" COMMENT="" />
    <EXPORT ORDINAL="71" NAME="??0BuildDate@Orc@@QAE@PBD0@Z" PURGE="8" COMMENT="" />
    <EXPORT ORDINAL="72" NAME="??0BuildNumber@Orc@@QAE@XZ" PURGE="0" COMMENT="" />
    <EXPORT ORDINAL="73" NAME="??0BuildVersion@Orc@@QAE@EEEPBD@Z" PURGE="16" COMMENT="" />
    <EXPORT ORDINAL="74" NAME="??0BuildVersion@Orc@@QAE@XZ" PURGE="0" COMMENT="" />
    <EXPORT ORDINAL="75" NAME="??0CmdAngle@EmitterCommands@Orc@@QAE@ABV012@@Z" PURGE="4" COMMENT="" />
    <EXPORT ORDINAL="76" NAME="??0CmdAngle@EmitterCommands@Orc@@QAE@XZ" PURGE="0" COMMENT="" />
    <EXPORT ORDINAL="77" NAME="??0CmdAngleMax@EmitterCommands@Orc@@QAE@ABV012@@Z" PURGE="4" COMMENT="" />
    <EXPORT ORDINAL="78" NAME="??0CmdAngleMax@EmitterCommands@Orc@@QAE@XZ" PURGE="0" COMMENT="" />
    <EXPORT ORDINAL="79" NAME="??0CmdAnimFrames@EmitterCommands@Orc@@QAE@ABV012@@Z" PURGE="4" COMMENT="" />
    <EXPORT ORDINAL="80" NAME="??0CmdAnimFrames@EmitterCommands@Orc@@QAE@XZ" PURGE="0" COMMENT="" />
    <EXPORT ORDINAL="81" NAME="??0CmdAnimSpeed@EmitterCommands@Orc@@QAE@ABV012@@Z" PURGE="4" COMMENT="" />
    <EXPORT ORDINAL="82" NAME="??0CmdAnimSpeed@EmitterCommands@Orc@@QAE@XZ" PURGE="0" COMMENT="" />
    <EXPORT ORDINAL="83" NAME="??0CmdBrightness@EmitterCommands@Orc@@QAE@ABV012@@Z" PURGE="4" COMMENT="" />
    <EXPORT ORDINAL="84" NAME="??0CmdBrightness@EmitterCommands@Orc@@QAE@XZ" PURGE="0" COMMENT="" />
    <EXPORT ORDINAL="85" NAME="??0CmdCentered@EmitterCommands@Orc@@QAE@ABV012@@Z" PURGE="4" COMMENT="" />
    <EXPORT ORDINAL="86" NAME="??0CmdCentered@EmitterCommands@Orc@@QAE@XZ" PURGE="0" COMMENT="" />
    <EXPORT ORDINAL="87" NAME="??0CmdDirection@EmitterCommands@Orc@@QAE@ABV012@@Z" PURGE="4" COMMENT="" />
    <EXPORT ORDINAL="88" NAME="??0CmdDirection@EmitterCommands@Orc@@QAE@XZ" PURGE="0" COMMENT="" />
    <EXPORT ORDINAL="89" NAME="??0CmdEmissionAngle@EmitterCommands@Orc@@QAE@ABV012@@Z" PURGE="4" COMMENT="" />
    <EXPORT ORDINAL="90" NAME="??0CmdEmissionAngle@EmitterCommands@Orc@@QAE@XZ" PURGE="0" COMMENT="" />
    <EXPORT ORDINAL="91" NAME="??0CmdEmissionAngleMin@EmitterCommands@Orc@@QAE@ABV012@@Z" PURGE="4" COMMENT="" />
    <EXPORT ORDINAL="92" NAME="??0CmdEmissionAngleMin@EmitterCommands@Orc@@QAE@XZ" PURGE="0" COMMENT="" />
    <EXPORT ORDINAL="93" NAME="??0CmdEmissionRate@EmitterCommands@Orc@@QAE@ABV012@@Z" PURGE="4" COMMENT="" />
    <EXPORT ORDINAL="94" NAME="??0CmdEmissionRate@EmitterCommands@Orc@@QAE@XZ" PURGE="0" COMMENT="" />
    <EXPORT ORDINAL="95" NAME="??0CmdEmitAndDisable@EmitterCommands@Orc@@QAE@ABV012@@Z" PURGE="4" COMMENT="" />
    <EXPORT ORDINAL="96" NAME="??0CmdEmitAndDisable@EmitterCommands@Orc@@QAE@XZ" PURGE="0" COMMENT="" />
    <EXPORT ORDINAL="97" NAME="??0CmdIntenseFlag@EmitterCommands@Orc@@QAE@ABV012@@Z" PURGE="4" COMMENT="" />
    <EXPORT ORDINAL="98" NAME="??0CmdIntenseFlag@EmitterCommands@Orc@@QAE@XZ" PURGE="0" COMMENT="" />
    <EXPORT ORDINAL="99" NAME="??0CmdMaterial@EmitterCommands@Orc@@QAE@ABV012@@Z" PURGE="4" COMMENT="" />
    <EXPORT ORDINAL="100" NAME="??0CmdMaterial@EmitterCommands@Orc@@QAE@XZ" PURGE="0" COMMENT="" />
    <EXPORT ORDINAL="101" NAME="??0CmdMaxDuration@EmitterCommands@Orc@@QAE@ABV012@@Z" PURGE="4" COMMENT="" />
    <EXPORT ORDINAL="102" NAME="??0CmdMaxDuration@EmitterCommands@Orc@@QAE@XZ" PURGE="0" COMMENT="" />
    <EXPORT ORDINAL="103" NAME="??0CmdMaxRepeatDelay@EmitterCommands@Orc@@QAE@ABV012@@Z" PURGE="4" COMMENT="" />
    <EXPORT ORDINAL="104" NAME="??0CmdMaxRepeatDelay@EmitterCommands@Orc@@QAE@XZ" PURGE="0" COMMENT="" />
    <EXPORT ORDINAL="105" NAME="??0CmdMaxStartDelay@EmitterCommands@Orc@@QAE@ABV012@@Z" PURGE="4" COMMENT="" />
    <EXPORT ORDINAL="106" NAME="??0CmdMaxStartDelay@EmitterCommands@Orc@@QAE@XZ" PURGE="0" COMMENT="" />
    <EXPORT ORDINAL="107" NAME="??0CmdMaxTTL@EmitterCommands@Orc@@QAE@ABV012@@Z" PURGE="4" COMMENT="" />
    <EXPORT ORDINAL="108" NAME="??0CmdMaxTTL@EmitterCommands@Orc@@QAE@XZ" PURGE="0" COMMENT="" />
    <EXPORT ORDINAL="109" NAME="??0CmdMaxVelocity@EmitterCommands@Orc@@QAE@ABV012@@Z" PURGE="4" COMMENT="" />
    <EXPORT ORDINAL="110" NAME="??0CmdMaxVelocity@EmitterCommands@Orc@@QAE@XZ" PURGE="0" COMMENT="" />
    <EXPORT ORDINAL="111" NAME="??0CmdMinDuration@EmitterCommands@Orc@@QAE@ABV012@@Z" PURGE="4" COMMENT="" />
    <EXPORT ORDINAL="112" NAME="??0CmdMinDuration@EmitterCommands@Orc@@QAE@XZ" PURGE="0" COMMENT="" />
    <EXPORT ORDINAL="113" NAME="??0CmdMinRepeatDelay@EmitterCommands@Orc@@QAE@ABV012@@Z" PURGE="4" COMMENT="" />
    <EXPORT ORDINAL="114" NAME="??0CmdMinRepeatDelay@EmitterCommands@Orc@@QAE@XZ" PURGE="0" COMMENT="" />
    <EXPORT ORDINAL="115" NAME="??0CmdMinStartDelay@EmitterCommands@Orc@@QAE@ABV012@@Z" PURGE="4" COMMENT="" />
    <EXPORT ORDINAL="116" NAME="??0CmdMinStartDelay@EmitterCommands@Orc@@QAE@XZ" PURGE="0" COMMENT="" />
    <EXPORT ORDINAL="117" NAME="??0CmdMinTTL@EmitterCommands@Orc@@QAE@ABV012@@Z" PURGE="4" COMMENT="" />
    <EXPORT ORDINAL="118" NAME="??0CmdMinTTL@EmitterCommands@Orc@@QAE@XZ" PURGE="0" COMMENT="" />
    <EXPORT ORDINAL="119" NAME="??0CmdMinVelocity@EmitterCommands@Orc@@QAE@ABV012@@Z" PURGE="4" COMMENT="" />
    <EXPORT ORDINAL="120" NAME="??0CmdMinVelocity@EmitterCommands@Orc@@QAE@XZ" PURGE="0" COMMENT="" />
    <EXPORT ORDINAL="121" NAME="??0CmdOnEmitter@AffectorCommands@Orc@@QAE@ABV012@@Z" PURGE="4" COMMENT="" />
    <EXPORT ORDINAL="122" NAME="??0CmdOnEmitter@AffectorCommands@Orc@@QAE@XZ" PURGE="0" COMMENT="" />
    <EXPORT ORDINAL="123" NAME="??0CmdPerspective@EmitterCommands@Orc@@QAE@ABV012@@Z" PURGE="4" COMMENT="" />
    <EXPORT ORDINAL="124" NAME="??0CmdPerspective@EmitterCommands@Orc@@QAE@XZ" PURGE="0" COMMENT="" />
    <EXPORT ORDINAL="125" NAME="??0CmdPosition@EmitterCommands@Orc@@QAE@ABV012@@Z" PURGE="4" COMMENT="" />
    <EXPORT ORDINAL="126" NAME="??0CmdPosition@EmitterCommands@Orc@@QAE@XZ" PURGE="0" COMMENT="" />
    <EXPORT ORDINAL="127" NAME="??0CmdRepeatDelay@EmitterCommands@Orc@@QAE@ABV012@@Z" PURGE="4" COMMENT="" />
    <EXPORT ORDINAL="128" NAME="??0CmdRepeatDelay@EmitterCommands@Orc@@QAE@XZ" PURGE="0" COMMENT="" />
    <EXPORT ORDINAL="129" NAME="??0CmdSize@EmitterCommands@Orc@@QAE@ABV012@@Z" PURGE="4" COMMENT="" />
    <EXPORT ORDINAL="130" NAME="??0CmdSize@EmitterCommands@Orc@@QAE@XZ" PURGE="0" COMMENT="" />
    <EXPORT ORDINAL="131" NAME="??0CmdSizeMax@EmitterCommands@Orc@@QAE@ABV012@@Z" PURGE="4" COMMENT="" />
    <EXPORT ORDINAL="132" NAME="??0CmdSizeMax@EmitterCommands@Orc@@QAE@XZ" PURGE="0" COMMENT="" />
    <EXPORT ORDINAL="133" NAME="??0CmdStreakLength@EmitterCommands@Orc@@QAE@ABV012@@Z" PURGE="4" COMMENT="" />
    <EXPORT ORDINAL="134" NAME="??0CmdStreakLength@EmitterCommands@Orc@@QAE@XZ" PURGE="0" COMMENT="" />
    <EXPORT ORDINAL="135" NAME="??0CmdStreakSize@EmitterCommands@Orc@@QAE@ABV012@@Z" PURGE="4" COMMENT="" />
    <EXPORT ORDINAL="136" NAME="??0CmdStreakSize@EmitterCommands@Orc@@QAE@XZ" PURGE="0" COMMENT="" />
    <EXPORT ORDINAL="137" NAME="??0CodecFactory@Orc@@QAE@ABV01@@Z" PURGE="4" COMMENT="" />
    <EXPORT ORDINAL="138" NAME="??0CodecFactory@Orc@@QAE@XZ" PURGE="0" COMMENT="" />
    <EXPORT ORDINAL="139" NAME="??0CodecManager@Orc@@QAE@ABV01@@Z" PURGE="4" COMMENT="" />
    <EXPORT ORDINAL="140" NAME="??0CodecManager@Orc@@QAE@XZ" PURGE="0" COMMENT="" />
    <EXPORT ORDINAL="141" NAME="??0CodecParamsZip@Orc@@QAE@E@Z" PURGE="4" COMMENT="" />
    <EXPORT ORDINAL="142" NAME="??0ConfigDialog@Orc@@QAE@ABV01@@Z" PURGE="4" COMMENT="" />
    <EXPORT ORDINAL="143" NAME="??0ConfigDialog@Orc@@QAE@XZ" PURGE="0" COMMENT="" />
    <EXPORT ORDINAL="144" NAME="??0ConfigFile@Orc@@QAE@ABV01@@Z" PURGE="4" COMMENT="" />
    <EXPORT ORDINAL="145" NAME="??0ConfigFile@Orc@@QAE@XZ" PURGE="0" COMMENT="" />
    <EXPORT ORDINAL="146" NAME="??0ConsoleVar@Orc@@AAE@XZ" PURGE="0" COMMENT="" />
    <EXPORT ORDINAL="147" NAME="??0ConsoleVar@Orc@@QAE@ABV01@@Z" PURGE="4" COMMENT="" />
    <EXPORT ORDINAL="148" NAME="??0D3DXMATRIX@@QAE@ABU_D3DMATRIX@@@Z" PURGE="4" COMMENT="" />
    <EXPORT ORDINAL="149" NAME="??0D3DXMATRIX@@QAE@MMMMMMMMMMMMMMMM@Z" PURGE="64" COMMENT="" />
    <EXPORT ORDINAL="150" NAME="??0D3DXMATRIX@@QAE@PBM@Z" PURGE="4" COMMENT="" />
    <EXPORT ORDINAL="151" NAME="??0D3DXMATRIX@@QAE@PBUD3DXFLOAT16@@@Z" PURGE="4" COMMENT="" />
    <EXPORT ORDINAL="152" NAME="??0D3DXMATRIX@@QAE@XZ" PURGE="0" COMMENT="" />
    <EXPORT ORDINAL="153" NAME="??0D3DXPLANE@@QAE@MMMM@Z" PURGE="16" COMMENT="" />
    <EXPORT ORDINAL="154" NAME="??0D3DXPLANE@@QAE@PBM@Z" PURGE="4" COMMENT="" />
    <EXPORT ORDINAL="155" NAME="??0D3DXPLANE@@QAE@PBUD3DXFLOAT16@@@Z" PURGE="4" COMMENT="" />
    <EXPORT ORDINAL="156" NAME="??0D3DXPLANE@@QAE@XZ" PURGE="0" COMMENT="" />
    <EXPORT ORDINAL="157" NAME="??0D3DXVECTOR2@@QAE@MM@Z" PURGE="8" COMMENT="" />
    <EXPORT ORDINAL="158" NAME="??0D3DXVECTOR2@@QAE@PBM@Z" PURGE="4" COMMENT="" />
    <EXPORT ORDINAL="159" NAME="??0D3DXVECTOR2@@QAE@PBUD3DXFLOAT16@@@Z" PURGE="4" COMMENT="" />
    <EXPORT ORDINAL="160" NAME="??0D3DXVECTOR2@@QAE@XZ" PURGE="0" COMMENT="" />
    <EXPORT ORDINAL="161" NAME="??0D3DXVECTOR3@@QAE@ABU_D3DVECTOR@@@Z" PURGE="4" COMMENT="" />
    <EXPORT ORDINAL="162" NAME="??0D3DXVECTOR3@@QAE@MMM@Z" PURGE="12" COMMENT="" />
    <EXPORT ORDINAL="163" NAME="??0D3DXVECTOR3@@QAE@PBM@Z" PURGE="4" COMMENT="" />
    <EXPORT ORDINAL="164" NAME="??0D3DXVECTOR3@@QAE@PBUD3DXFLOAT16@@@Z" PURGE="4" COMMENT="" />
    <EXPORT ORDINAL="165" NAME="??0D3DXVECTOR3@@QAE@XZ" PURGE="0" COMMENT="" />
    <EXPORT ORDINAL="166" NAME="??0D3DXVECTOR4@@QAE@ABU_D3DVECTOR@@M@Z" PURGE="8" COMMENT="" />
    <EXPORT ORDINAL="167" NAME="??0D3DXVECTOR4@@QAE@MMMM@Z" PURGE="16" COMMENT="" />
    <EXPORT ORDINAL="168" NAME="??0D3DXVECTOR4@@QAE@PBM@Z" PURGE="4" COMMENT="" />
    <EXPORT ORDINAL="169" NAME="??0D3DXVECTOR4@@QAE@PBUD3DXFLOAT16@@@Z" PURGE="4" COMMENT="" />
    <EXPORT ORDINAL="170" NAME="??0D3DXVECTOR4@@QAE@XZ" PURGE="0" COMMENT="" />
    <EXPORT ORDINAL="171" NAME="??0DeprecationMgr@Orc@@QAE@ABV01@@Z" PURGE="4" COMMENT="" />
    <EXPORT ORDINAL="172" NAME="??0DirectoryMonitorTask@Orc@@QAE@XZ" PURGE="0" COMMENT="" />
    <EXPORT ORDINAL="173" NAME="??0ErrorDialog@Orc@@QAE@ABV01@@Z" PURGE="4" COMMENT="" />
    <EXPORT ORDINAL="174" NAME="??0ErrorDialog@Orc@@QAE@XZ" PURGE="0" COMMENT="" />
    <EXPORT ORDINAL="175" NAME="??0Exception@Orc@@QAE@ABV01@@Z" PURGE="4" COMMENT="" />
    <EXPORT ORDINAL="176" NAME="??0Exception@Orc@@QAE@_JABVString@1@1@Z" PURGE="16" COMMENT="" />
    <EXPORT ORDINAL="177" NAME="??0Exception@Orc@@QAE@_JABVString@1@1PADJ@Z" PURGE="24" COMMENT="" />
    <EXPORT ORDINAL="178" NAME="??0FileInfo@Orc@@QAE@XZ" PURGE="0" COMMENT="" />
    <EXPORT ORDINAL="179" NAME="??0FrameListener@Orc@@QAE@ABV01@@Z" PURGE="4" COMMENT="" />
    <EXPORT ORDINAL="180" NAME="??0FrameListener@Orc@@QAE@XZ" PURGE="0" COMMENT="" />
    <EXPORT ORDINAL="181" NAME="??0InputReader@Orc@@QAE@ABV01@@Z" PURGE="4" COMMENT="" />
    <EXPORT ORDINAL="182" NAME="??0InputReader@Orc@@QAE@XZ" PURGE="0" COMMENT="" />
    <EXPORT ORDINAL="183" NAME="??0Log@Orc@@AAE@ABV01@@Z" PURGE="4" COMMENT="" />
    <EXPORT ORDINAL="184" NAME="??0Log@Orc@@QAE@ABVString@1@_N1@Z" PURGE="12" COMMENT="" />
    <EXPORT ORDINAL="185" NAME="??0LogIndent@Orc@@QAE@G@Z" PURGE="4" COMMENT="" />
    <EXPORT ORDINAL="186" NAME="??0LogIndent@Orc@@QAE@XZ" PURGE="0" COMMENT="" />
    <EXPORT ORDINAL="187" NAME="??0LogManager@Orc@@QAE@ABV01@@Z" PURGE="4" COMMENT="" />
    <EXPORT ORDINAL="188" NAME="??0LogManager@Orc@@QAE@XZ" PURGE="0" COMMENT="" />
    <EXPORT ORDINAL="189" NAME="??0MD5Anim@Orc@@QAE@ABV01@@Z" PURGE="4" COMMENT="" />
    <EXPORT ORDINAL="190" NAME="??0MD5Anim@Orc@@QAE@XZ" PURGE="0" COMMENT="" />
    <EXPORT ORDINAL="191" NAME="??0MD5Hash@Orc@@QAE@XZ" PURGE="0" COMMENT="" />
    <EXPORT ORDINAL="192" NAME="??0MD5Loader@Orc@@QAE@XZ" PURGE="0" COMMENT="" />
    <EXPORT ORDINAL="193" NAME="??0MD5Mesh@Orc@@QAE@ABV01@@Z" PURGE="4" COMMENT="" />
    <EXPORT ORDINAL="194" NAME="??0MD5Mesh@Orc@@QAE@XZ" PURGE="0" COMMENT="" />
    <EXPORT ORDINAL="195" NAME="??0MovieFactory@Orc@@QAE@ABV01@@Z" PURGE="4" COMMENT="" />
    <EXPORT ORDINAL="196" NAME="??0MovieFactory@Orc@@QAE@XZ" PURGE="0" COMMENT="" />
    <EXPORT ORDINAL="197" NAME="??0MovieManager@Orc@@QAE@ABV01@@Z" PURGE="4" COMMENT="" />
    <EXPORT ORDINAL="198" NAME="??0MovieManager@Orc@@QAE@XZ" PURGE="0" COMMENT="" />
    <EXPORT ORDINAL="199" NAME="??0OsInfo@Orc@@QAE@XZ" PURGE="0" COMMENT="" />
    <EXPORT ORDINAL="200" NAME="??0ParamCommand@Orc@@QAE@ABV01@@Z" PURGE="4" COMMENT="" />
    <EXPORT ORDINAL="201" NAME="??0ParamCommand@Orc@@QAE@XZ" PURGE="0" COMMENT="" />
    <EXPORT ORDINAL="202" NAME="??0ParamDictionary@Orc@@QAE@ABV01@@Z" PURGE="4" COMMENT="" />
    <EXPORT ORDINAL="203" NAME="??0ParamDictionary@Orc@@QAE@XZ" PURGE="0" COMMENT="" />
    <EXPORT ORDINAL="204" NAME="??0ParameterDef@Orc@@QAE@ABV01@@Z" PURGE="4" COMMENT="" />
    <EXPORT ORDINAL="205" NAME="??0ParameterDef@Orc@@QAE@ABVString@1@0W4ParameterType@1@@Z" PURGE="12" COMMENT="" />
    <EXPORT ORDINAL="206" NAME="??0Particle@Orc@@QAE@XZ" PURGE="0" COMMENT="" />
    <EXPORT ORDINAL="207" NAME="??0ParticleAffector@Orc@@QAE@ABV01@@Z" PURGE="4" COMMENT="" />
    <EXPORT ORDINAL="208" NAME="??0ParticleAffector@Orc@@QAE@PAVParticleAffectorFactory@1@@Z" PURGE="4" COMMENT="" />
    <EXPORT ORDINAL="209" NAME="??0ParticleAffectorFactory@Orc@@QAE@ABV01@@Z" PURGE="4" COMMENT="" />
    <EXPORT ORDINAL="210" NAME="??0ParticleAffectorFactory@Orc@@QAE@XZ" PURGE="0" COMMENT="" />
    <EXPORT ORDINAL="211" NAME="??0ParticleEmitter@Orc@@QAE@ABV01@@Z" PURGE="4" COMMENT="" />
    <EXPORT ORDINAL="212" NAME="??0ParticleEmitter@Orc@@QAE@PAVParticleEmitterFactory@1@@Z" PURGE="4" COMMENT="" />
    <EXPORT ORDINAL="213" NAME="??0ParticleEmitterFactory@Orc@@QAE@ABV01@@Z" PURGE="4" COMMENT="" />
    <EXPORT ORDINAL="214" NAME="??0ParticleEmitterFactory@Orc@@QAE@XZ" PURGE="0" COMMENT="" />
    <EXPORT ORDINAL="215" NAME="??0ParticleSystem@Orc@@QAE@AAVcFile@1@@Z" PURGE="4" COMMENT="" />
    <EXPORT ORDINAL="216" NAME="??0ParticleSystem@Orc@@QAE@ABV01@@Z" PURGE="4" COMMENT="" />
    <EXPORT ORDINAL="217" NAME="??0ParticleSystem@Orc@@QAE@ABVString@1@0@Z" PURGE="8" COMMENT="" />
    <EXPORT ORDINAL="218" NAME="??0ParticleSystem@Orc@@QAE@ABVString@1@@Z" PURGE="4" COMMENT="" />
    <EXPORT ORDINAL="219" NAME="??0ParticleSystem@Orc@@QAE@XZ" PURGE="0" COMMENT="" />
    <EXPORT ORDINAL="220" NAME="??0ParticleSystemMgr@Orc@@QAE@ABV01@@Z" PURGE="4" COMMENT="" />
    <EXPORT ORDINAL="221" NAME="??0ParticleSystemMgr@Orc@@QAE@XZ" PURGE="0" COMMENT="" />
    <EXPORT ORDINAL="222" NAME="??0PlatformManager@Orc@@QAE@XZ" PURGE="0" COMMENT="" />
    <EXPORT ORDINAL="223" NAME="??0ProcessorInfo@Orc@@QAE@XZ" PURGE="0" COMMENT="" />
    <EXPORT ORDINAL="224" NAME="??0ProfileManager@Orc@@QAE@XZ" PURGE="0" COMMENT="" />
    <EXPORT ORDINAL="225" NAME="??0ProfileNode@Orc@@QAE@PBDPAV01@@Z" PURGE="8" COMMENT="" />
    <EXPORT ORDINAL="226" NAME="??0ProfileSample@Orc@@QAE@PBD@Z" PURGE="4" COMMENT="" />
    <EXPORT ORDINAL="227" NAME="??0QueuedTaskMgr@Orc@@QAE@ABV01@@Z" PURGE="4" COMMENT="" />
    <EXPORT ORDINAL="228" NAME="??0QueuedTaskMgr@Orc@@QAE@IW4eThreadPriority@1@II@Z" PURGE="16" COMMENT="" />
    <EXPORT ORDINAL="229" NAME="??0RandPseudo@Orc@@QAE@J@Z" PURGE="4" COMMENT="" />
    <EXPORT ORDINAL="230" NAME="??0RandPseudo@Orc@@QAE@XZ" PURGE="0" COMMENT="" />
    <EXPORT ORDINAL="231" NAME="??0RandPseudoOld@Orc@@QAE@J@Z" PURGE="4" COMMENT="" />
    <EXPORT ORDINAL="232" NAME="??0RandPseudoOld@Orc@@QAE@XZ" PURGE="0" COMMENT="" />
    <EXPORT ORDINAL="233" NAME="??0RenderSystem@Orc@@QAE@ABV01@@Z" PURGE="4" COMMENT="" />
    <EXPORT ORDINAL="234" NAME="??0RenderSystem@Orc@@QAE@XZ" PURGE="0" COMMENT="" />
    <EXPORT ORDINAL="235" NAME="??0RingBufferByte@Orc@@QAE@XZ" PURGE="0" COMMENT="" />
    <EXPORT ORDINAL="236" NAME="??0Root@Orc@@QAE@ABV01@@Z" PURGE="4" COMMENT="" />
    <EXPORT ORDINAL="237" NAME="??0Root@Orc@@QAE@ABVString@1@0_N@Z" PURGE="12" COMMENT="" />
    <EXPORT ORDINAL="238" NAME="??0SoundSystemFactory@Orc@@QAE@ABV01@@Z" PURGE="4" COMMENT="" />
    <EXPORT ORDINAL="239" NAME="??0SoundSystemFactory@Orc@@QAE@XZ" PURGE="0" COMMENT="" />
    <EXPORT ORDINAL="240" NAME="??0SoundSystemManager@Orc@@QAE@XZ" PURGE="0" COMMENT="" />
    <EXPORT ORDINAL="241" NAME="??0SplashDialog@Orc@@QAE@ABV01@@Z" PURGE="4" COMMENT="" />
    <EXPORT ORDINAL="242" NAME="??0SplashDialog@Orc@@QAE@XZ" PURGE="0" COMMENT="" />
    <EXPORT ORDINAL="243" NAME="??0Storable_configurable@Orc@@QAE@ABV01@@Z" PURGE="4" COMMENT="" />
    <EXPORT ORDINAL="244" NAME="??0Storable_configurable@Orc@@QAE@VString@1@I@Z" PURGE="28" COMMENT="" />
    <EXPORT ORDINAL="245" NAME="??0String@Orc@@QAE@ABV01@@Z" PURGE="4" COMMENT="" />
    <EXPORT ORDINAL="246" NAME="??0String@Orc@@QAE@ABV?$basic_string@DV?$char_traits@D@stlp_std@@V?$allocator@D@2@@stlp_std@@@Z" PURGE="4" COMMENT="" />
    <EXPORT ORDINAL="247" NAME="??0String@Orc@@QAE@ABV?$basic_string@DV?$char_traits@D@stlp_std@@V?$memtrack_allocator@D$0IMHGPCA@@2@@stlp_std@@@Z" PURGE="4" COMMENT="" />
    <EXPORT ORDINAL="248" NAME="??0String@Orc@@QAE@ABV?$basic_string@DV?$char_traits@D@stlp_std@@V?$memtrack_allocator@D$0IMHGPCA@@2@@stlp_std@@II@Z" PURGE="12" COMMENT="" />
    <EXPORT ORDINAL="249" NAME="??0String@Orc@@QAE@D@Z" PURGE="4" COMMENT="" />
    <EXPORT ORDINAL="250" NAME="??0String@Orc@@QAE@E@Z" PURGE="4" COMMENT="" />
    <EXPORT ORDINAL="251" NAME="??0String@Orc@@QAE@H@Z" PURGE="4" COMMENT="" />
    <EXPORT ORDINAL="252" NAME="??0String@Orc@@QAE@I@Z" PURGE="4" COMMENT="" />
    <EXPORT ORDINAL="253" NAME="??0String@Orc@@QAE@M@Z" PURGE="4" COMMENT="" />
    <EXPORT ORDINAL="254" NAME="??0String@Orc@@QAE@PBD@Z" PURGE="4" COMMENT="" />
    <EXPORT ORDINAL="255" NAME="??0String@Orc@@QAE@PBDI@Z" PURGE="8" COMMENT="" />
    <EXPORT ORDINAL="256" NAME="??0String@Orc@@QAE@XZ" PURGE="0" COMMENT="" />
    <EXPORT ORDINAL="257" NAME="??0String@Orc@@QAE@_N@Z" PURGE="4" COMMENT="" />
    <EXPORT ORDINAL="258" NAME="??0StringInterface@Orc@@QAE@ABV01@@Z" PURGE="4" COMMENT="" />
    <EXPORT ORDINAL="259" NAME="??0StringInterface@Orc@@QAE@XZ" PURGE="0" COMMENT="" />
    <EXPORT ORDINAL="260" NAME="??0TextToken@Orc@@QAE@ABV01@@Z" PURGE="4" COMMENT="" />
    <EXPORT ORDINAL="261" NAME="??0TextToken@Orc@@QAE@W4token_type@01@@Z" PURGE="4" COMMENT="" />
    <EXPORT ORDINAL="262" NAME="??0TextToken@Orc@@QAE@XZ" PURGE="0" COMMENT="" />
    <EXPORT ORDINAL="263" NAME="??0TextTokenizer@Orc@@QAE@AAVcFile@1@@Z" PURGE="4" COMMENT="" />
    <EXPORT ORDINAL="264" NAME="??0TextTokenizer@Orc@@QAE@ABV01@@Z" PURGE="4" COMMENT="" />
    <EXPORT ORDINAL="265" NAME="??0ThreadTask@Orc@@QAE@XZ" PURGE="0" COMMENT="" />
    <EXPORT ORDINAL="266" NAME="??0ThreadTaskInfo@ThreadTask@Orc@@QAE@XZ" PURGE="0" COMMENT="" />
    <EXPORT ORDINAL="267" NAME="??0TimeStepCollect@Orc@@QAE@IPBD@Z" PURGE="8" COMMENT="" />
    <EXPORT ORDINAL="268" NAME="??0Timer@Orc@@QAE@XZ" PURGE="0" COMMENT="" />
    <EXPORT ORDINAL="269" NAME="??0TimerCycle@Orc@@QAE@M@Z" PURGE="4" COMMENT="" />
    <EXPORT ORDINAL="270" NAME="??0TimerCycle@Orc@@QAE@XZ" PURGE="0" COMMENT="" />
    <EXPORT ORDINAL="271" NAME="??0TimerHelper@Orc@@QAE@PBD@Z" PURGE="4" COMMENT="" />
    <EXPORT ORDINAL="272" NAME="??0TimerInit@Orc@@QAE@XZ" PURGE="0" COMMENT="" />
    <EXPORT ORDINAL="273" NAME="??0WString@Orc@@QAE@ABV01@@Z" PURGE="4" COMMENT="" />
    <EXPORT ORDINAL="274" NAME="??0WString@Orc@@QAE@ABV?$basic_string@_WV?$char_traits@_W@stlp_std@@V?$memtrack_allocator@_W$0IMHGPCA@@2@@stlp_std@@@Z" PURGE="4" COMMENT="" />
    <EXPORT ORDINAL="275" NAME="??0WString@Orc@@QAE@PB_W@Z" PURGE="4" COMMENT="" />
    <EXPORT ORDINAL="276" NAME="??0WString@Orc@@QAE@PB_WI@Z" PURGE="8" COMMENT="" />
    <EXPORT ORDINAL="277" NAME="??0WString@Orc@@QAE@XZ" PURGE="0" COMMENT="" />
    <EXPORT ORDINAL="278" NAME="??0Win32Font@Orc@@QAE@XZ" PURGE="0" COMMENT="" />
    <EXPORT ORDINAL="279" NAME="??0_sFile_chunk@Orc@@QAE@III@Z" PURGE="12" COMMENT="" />
    <EXPORT ORDINAL="280" NAME="??0_sFile_chunk@Orc@@QAE@XZ" PURGE="0" COMMENT="" />
    <EXPORT ORDINAL="281" NAME="??0cArchiveContainer@Orc@@QAE@XZ" PURGE="0" COMMENT="" />
    <EXPORT ORDINAL="282" NAME="??0cBoundingBox@Orc@@QAE@ABUD3DXVECTOR3@@0@Z" PURGE="8" COMMENT="" />
    <EXPORT ORDINAL="283" NAME="??0cBoundingBox@Orc@@QAE@ABV01@@Z" PURGE="4" COMMENT="" />
    <EXPORT ORDINAL="284" NAME="??0cBoundingBox@Orc@@QAE@_N@Z" PURGE="4" COMMENT="" />
    <EXPORT ORDINAL="285" NAME="??0cBoundingBoxAA@Orc@@QAE@ABUD3DXVECTOR3@@0@Z" PURGE="8" COMMENT="" />
    <EXPORT ORDINAL="286" NAME="??0cBoundingBoxAA@Orc@@QAE@XZ" PURGE="0" COMMENT="" />
    <EXPORT ORDINAL="287" NAME="??0cBoundingCylinder@Orc@@QAE@ABUD3DXVECTOR3@@MM@Z" PURGE="12" COMMENT="" />
    <EXPORT ORDINAL="288" NAME="??0cBoundingCylinder@Orc@@QAE@ABV01@@Z" PURGE="4" COMMENT="" />
    <EXPORT ORDINAL="289" NAME="??0cBoundingCylinder@Orc@@QAE@XZ" PURGE="0" COMMENT="" />
    <EXPORT ORDINAL="290" NAME="??0cBoundingSphere@Orc@@QAE@ABUD3DXVECTOR3@@M@Z" PURGE="8" COMMENT="" />
    <EXPORT ORDINAL="291" NAME="??0cBoundingSphere@Orc@@QAE@ABV01@@Z" PURGE="4" COMMENT="" />
    <EXPORT ORDINAL="292" NAME="??0cBoundingSphere@Orc@@QAE@XZ" PURGE="0" COMMENT="" />
    <EXPORT ORDINAL="293" NAME="??0cBoxRay@Orc@@QAE@ABUD3DXVECTOR3@@00ABM@Z" PURGE="16" COMMENT="" />
    <EXPORT ORDINAL="294" NAME="??0cBoxRay@Orc@@QAE@XZ" PURGE="0" COMMENT="" />
    <EXPORT ORDINAL="295" NAME="??0cCRC32@Orc@@QAE@XZ" PURGE="0" COMMENT="" />
    <EXPORT ORDINAL="296" NAME="??0cCodecHuffman@Orc@@QAE@ABV01@@Z" PURGE="4" COMMENT="" />
    <EXPORT ORDINAL="297" NAME="??0cCodecHuffman@Orc@@QAE@XZ" PURGE="0" COMMENT="" />
    <EXPORT ORDINAL="298" NAME="??0cCodecLZ77@Orc@@QAE@ABV01@@Z" PURGE="4" COMMENT="" />
    <EXPORT ORDINAL="299" NAME="??0cCodecLZ77@Orc@@QAE@XZ" PURGE="0" COMMENT="" />
    <EXPORT ORDINAL="300" NAME="??0cCodecLZW@Orc@@QAE@ABV01@@Z" PURGE="4" COMMENT="" />
    <EXPORT ORDINAL="301" NAME="??0cCodecLZW@Orc@@QAE@XZ" PURGE="0" COMMENT="" />
    <EXPORT ORDINAL="302" NAME="??0cCodecMTF@Orc@@QAE@ABV01@@Z" PURGE="4" COMMENT="" />
    <EXPORT ORDINAL="303" NAME="??0cCodecMTF@Orc@@QAE@XZ" PURGE="0" COMMENT="" />
    <EXPORT ORDINAL="304" NAME="??0cCodecMulti@Orc@@QAE@ABV01@@Z" PURGE="4" COMMENT="" />
    <EXPORT ORDINAL="305" NAME="??0cCodecMulti@Orc@@QAE@XZ" PURGE="0" COMMENT="" />
    <EXPORT ORDINAL="306" NAME="??0cCodecZIP@Orc@@QAE@ABV01@@Z" PURGE="4" COMMENT="" />
    <EXPORT ORDINAL="307" NAME="??0cCodecZIP@Orc@@QAE@XZ" PURGE="0" COMMENT="" />
    <EXPORT ORDINAL="308" NAME="??0cCommand@Orc@@IAE@XZ" PURGE="0" COMMENT="" />
    <EXPORT ORDINAL="309" NAME="??0cCommand@Orc@@QAE@ABV01@@Z" PURGE="4" COMMENT="" />
    <EXPORT ORDINAL="310" NAME="??0cCritical@Orc@@QAE@I@Z" PURGE="4" COMMENT="" />
    <EXPORT ORDINAL="311" NAME="??0cCriticalHelper@Orc@@QAE@PBVcCritical@1@@Z" PURGE="4" COMMENT="" />
    <EXPORT ORDINAL="312" NAME="??0cDataStore@Orc@@QAE@ABV01@@Z" PURGE="4" COMMENT="" />
    <EXPORT ORDINAL="313" NAME="??0cDataStore@Orc@@QAE@PBXI@Z" PURGE="8" COMMENT="" />
    <EXPORT ORDINAL="314" NAME="??0cDataStore@Orc@@QAE@XZ" PURGE="0" COMMENT="" />
    <EXPORT ORDINAL="315" NAME="??0cFile@Orc@@QAE@ABV01@@Z" PURGE="4" COMMENT="" />
    <EXPORT ORDINAL="316" NAME="??0cFile@Orc@@QAE@XZ" PURGE="0" COMMENT="" />
    <EXPORT ORDINAL="317" NAME="??0cFileBit@Orc@@QAE@AAV?$vector@EV?$allocator@E@stlp_std@@@stlp_std@@@Z" PURGE="4" COMMENT="" />
    <EXPORT ORDINAL="318" NAME="??0cFileBit@Orc@@QAE@ABV01@@Z" PURGE="4" COMMENT="" />
    <EXPORT ORDINAL="319" NAME="??0cFileBit@Orc@@QAE@XZ" PURGE="0" COMMENT="" />
    <EXPORT ORDINAL="320" NAME="??0cFileBitOld@Orc@@QAE@AAV?$vector@EV?$allocator@E@stlp_std@@@stlp_std@@@Z" PURGE="4" COMMENT="" />
    <EXPORT ORDINAL="321" NAME="??0cFileBitOld@Orc@@QAE@ABV01@@Z" PURGE="4" COMMENT="" />
    <EXPORT ORDINAL="322" NAME="??0cFileBitOld@Orc@@QAE@XZ" PURGE="0" COMMENT="" />
    <EXPORT ORDINAL="323" NAME="??0cFileCached@Orc@@QAE@ABV01@@Z" PURGE="4" COMMENT="" />
    <EXPORT ORDINAL="324" NAME="??0cFileCached@Orc@@QAE@PAVcFile@1@II@Z" PURGE="12" COMMENT="" />
    <EXPORT ORDINAL="325" NAME="??0cFileDisk@Orc@@QAE@ABV01@@Z" PURGE="4" COMMENT="" />
    <EXPORT ORDINAL="326" NAME="??0cFileDisk@Orc@@QAE@PBDW4eOpenMode@01@@Z" PURGE="8" COMMENT="" />
    <EXPORT ORDINAL="327" NAME="??0cFileDisk@Orc@@QAE@XZ" PURGE="0" COMMENT="" />
    <EXPORT ORDINAL="328" NAME="??0cFileMem@Orc@@QAE@ABV01@@Z" PURGE="4" COMMENT="" />
    <EXPORT ORDINAL="329" NAME="??0cFileMem@Orc@@QAE@IPBE@Z" PURGE="8" COMMENT="" />
    <EXPORT ORDINAL="330" NAME="??0cFileMem@Orc@@QAE@XZ" PURGE="0" COMMENT="" />
    <EXPORT ORDINAL="331" NAME="??0cFileTempMem@Orc@@QAE@IPBE@Z" PURGE="8" COMMENT="" />
    <EXPORT ORDINAL="332" NAME="??0cFileTempMem@Orc@@QAE@XZ" PURGE="0" COMMENT="" />
    <EXPORT ORDINAL="333" NAME="??0cGate@Orc@@QAE@PBD@Z" PURGE="4" COMMENT="" />
    <EXPORT ORDINAL="334" NAME="??0cIO_bmp@Orc@@QAE@XZ" PURGE="0" COMMENT="" />
    <EXPORT ORDINAL="335" NAME="??0cIO_dds@Orc@@QAE@XZ" PURGE="0" COMMENT="" />
    <EXPORT ORDINAL="336" NAME="??0cIO_ico@Orc@@QAE@XZ" PURGE="0" COMMENT="" />
    <EXPORT ORDINAL="337" NAME="??0cIO_jpg@Orc@@QAE@XZ" PURGE="0" COMMENT="" />
    <EXPORT ORDINAL="338" NAME="??0cIO_pcx@Orc@@QAE@XZ" PURGE="0" COMMENT="" />
    <EXPORT ORDINAL="339" NAME="??0cIO_tga@Orc@@QAE@XZ" PURGE="0" COMMENT="" />
    <EXPORT ORDINAL="340" NAME="??0cImage@Orc@@QAE@ABV01@@Z" PURGE="4" COMMENT="" />
    <EXPORT ORDINAL="341" NAME="??0cImage@Orc@@QAE@XZ" PURGE="0" COMMENT="" />
    <EXPORT ORDINAL="342" NAME="??0cMD5@Orc@@QAE@XZ" PURGE="0" COMMENT="" />
    <EXPORT ORDINAL="343" NAME="??0cMacroCommand@Orc@@QAE@ABV01@@Z" PURGE="4" COMMENT="" />
    <EXPORT ORDINAL="344" NAME="??0cMacroCommand@Orc@@QAE@H@Z" PURGE="4" COMMENT="" />
    <EXPORT ORDINAL="345" NAME="??0cMacroCommand@Orc@@QAE@XZ" PURGE="0" COMMENT="" />
    <EXPORT ORDINAL="346" NAME="??0cMersenneTwister@Orc@@QAE@I@Z" PURGE="4" COMMENT="" />
    <EXPORT ORDINAL="347" NAME="??0cMersenneTwister@Orc@@QAE@PAI@Z" PURGE="4" COMMENT="" />
    <EXPORT ORDINAL="348" NAME="??0cMersenneTwister@Orc@@QAE@XZ" PURGE="0" COMMENT="" />
    <EXPORT ORDINAL="349" NAME="??0cMutex@Orc@@QAE@PBD@Z" PURGE="4" COMMENT="" />
    <EXPORT ORDINAL="350" NAME="??0cMutexHelper@Orc@@QAE@PAVcMutex@1@@Z" PURGE="4" COMMENT="" />
    <EXPORT ORDINAL="351" NAME="??0cOBB@Orc@@QAE@XZ" PURGE="0" COMMENT="" />
    <EXPORT ORDINAL="352" NAME="??0cObserver@Orc@@IAE@XZ" PURGE="0" COMMENT="" />
    <EXPORT ORDINAL="353" NAME="??0cObserver@Orc@@QAE@ABV01@@Z" PURGE="4" COMMENT="" />
    <EXPORT ORDINAL="354" NAME="??0cPalette@Orc@@QAE@QAE@Z" PURGE="4" COMMENT="" />
    <EXPORT ORDINAL="355" NAME="??0cPalette@Orc@@QAE@QAY02E@Z" PURGE="4" COMMENT="" />
    <EXPORT ORDINAL="356" NAME="??0cPalette@Orc@@QAE@XZ" PURGE="0" COMMENT="" />
    <EXPORT ORDINAL="357" NAME="??0cPixelFormat@Orc@@QAE@HIIII@Z" PURGE="20" COMMENT="" />
    <EXPORT ORDINAL="358" NAME="??0cPixelFormat@Orc@@QAE@W4ePixelFormat@01@@Z" PURGE="4" COMMENT="" />
    <EXPORT ORDINAL="359" NAME="??0cRandMsvc@Orc@@QAE@I@Z" PURGE="4" COMMENT="" />
    <EXPORT ORDINAL="360" NAME="??0cRay@Orc@@QAE@ABUD3DXVECTOR3@@0@Z" PURGE="8" COMMENT="" />
    <EXPORT ORDINAL="361" NAME="??0cRay@Orc@@QAE@XZ" PURGE="0" COMMENT="" />
    <EXPORT ORDINAL="362" NAME="??0cRectRay@Orc@@QAE@ABUD3DXVECTOR3@@000M@Z" PURGE="20" COMMENT="" />
    <EXPORT ORDINAL="363" NAME="??0cRectRay@Orc@@QAE@XZ" PURGE="0" COMMENT="" />
    <EXPORT ORDINAL="364" NAME="??0cRectRayHitTest@Orc@@QAE@ABVcRectRay@1@@Z" PURGE="4" COMMENT="" />
    <EXPORT ORDINAL="365" NAME="??0cRectRayHitTest@Orc@@QAE@XZ" PURGE="0" COMMENT="" />
    <EXPORT ORDINAL="366" NAME="??0cRectangle@Orc@@QAE@MMMM@Z" PURGE="16" COMMENT="" />
    <EXPORT ORDINAL="367" NAME="??0cRectangle@Orc@@QAE@XZ" PURGE="0" COMMENT="" />
    <EXPORT ORDINAL="368" NAME="??0cResource@Orc@@QAE@ABV01@@Z" PURGE="4" COMMENT="" />
    <EXPORT ORDINAL="369" NAME="??0cResource@Orc@@QAE@XZ" PURGE="0" COMMENT="" />
    <EXPORT ORDINAL="370" NAME="??0cResourceManager@Orc@@QAE@II@Z" PURGE="8" COMMENT="" />
    <EXPORT ORDINAL="371" NAME="??0cS3TC@Orc@@QAE@XZ" PURGE="0" COMMENT="" />
    <EXPORT ORDINAL="372" NAME="??0cSemaphore@Orc@@QAE@IIPBD@Z" PURGE="12" COMMENT="" />
    <EXPORT ORDINAL="373" NAME="??0cSignal@Orc@@QAE@PAD@Z" PURGE="4" COMMENT="" />
    <EXPORT ORDINAL="374" NAME="??0cSplineCR@Orc@@QAE@ABV01@@Z" PURGE="4" COMMENT="" />
    <EXPORT ORDINAL="375" NAME="??0cSplineCR@Orc@@QAE@XZ" PURGE="0" COMMENT="" />
    <EXPORT ORDINAL="376" NAME="??0cSubject@Orc@@IAE@XZ" PURGE="0" COMMENT="" />
    <EXPORT ORDINAL="377" NAME="??0cSubject@Orc@@QAE@ABV01@@Z" PURGE="4" COMMENT="" />
    <EXPORT ORDINAL="378" NAME="??0cTableManager@Orc@@QAE@ABV01@@Z" PURGE="4" COMMENT="" />
    <EXPORT ORDINAL="379" NAME="??0cTableManager@Orc@@QAE@XZ" PURGE="0" COMMENT="" />
    <EXPORT ORDINAL="380" NAME="??0cVarTable@Orc@@AAE@AAVcTableManager@1@PBD@Z" PURGE="8" COMMENT="" />
    <EXPORT ORDINAL="381" NAME="??0cVarTable@Orc@@QAE@ABV01@@Z" PURGE="4" COMMENT="" />
    <EXPORT ORDINAL="382" NAME="??0iArchive@Orc@@QAE@ABV01@@Z" PURGE="4" COMMENT="" />
    <EXPORT ORDINAL="383" NAME="??0iArchive@Orc@@QAE@PBD@Z" PURGE="4" COMMENT="" />
    <EXPORT ORDINAL="384" NAME="??0iArchive@Orc@@QAE@XZ" PURGE="0" COMMENT="" />
    <EXPORT ORDINAL="385" NAME="??0iCodec@Orc@@QAE@ABV01@@Z" PURGE="4" COMMENT="" />
    <EXPORT ORDINAL="386" NAME="??0iCodec@Orc@@QAE@XZ" PURGE="0" COMMENT="" />
    <EXPORT ORDINAL="387" NAME="??0iImageIO@Orc@@AAE@ABV01@@Z" PURGE="4" COMMENT="" />
    <EXPORT ORDINAL="388" NAME="??0iImageIO@Orc@@QAE@XZ" PURGE="0" COMMENT="" />
    <EXPORT ORDINAL="389" NAME="??0iMovie@Orc@@QAE@ABV01@@Z" PURGE="4" COMMENT="" />
    <EXPORT ORDINAL="390" NAME="??0iMovie@Orc@@QAE@ABVString@1@0@Z" PURGE="8" COMMENT="" />
    <EXPORT ORDINAL="391" NAME="??0iMovie@Orc@@QAE@XZ" PURGE="0" COMMENT="" />
    <EXPORT ORDINAL="392" NAME="??0iQueuedTask@Orc@@QAE@ABV01@@Z" PURGE="4" COMMENT="" />
    <EXPORT ORDINAL="393" NAME="??0iQueuedTask@Orc@@QAE@XZ" PURGE="0" COMMENT="" />
    <EXPORT ORDINAL="394" NAME="??0iQueuedThread@Orc@@QAE@ABV01@@Z" PURGE="4" COMMENT="" />
    <EXPORT ORDINAL="395" NAME="??0iQueuedThread@Orc@@QAE@PAVQueuedTaskMgr@1@II@Z" PURGE="12" COMMENT="" />
    <EXPORT ORDINAL="396" NAME="??0iSound3DStereo@Orc@@QAE@ABV01@@Z" PURGE="4" COMMENT="" />
    <EXPORT ORDINAL="397" NAME="??0iSound3DStereo@Orc@@QAE@PAViSoundSystem@1@@Z" PURGE="4" COMMENT="" />
    <EXPORT ORDINAL="398" NAME="??0iSound3DSubwoofer@Orc@@QAE@ABV01@@Z" PURGE="4" COMMENT="" />
    <EXPORT ORDINAL="399" NAME="??0iSound3DSubwoofer@Orc@@QAE@PAViSoundSystem@1@@Z" PURGE="4" COMMENT="" />
    <EXPORT ORDINAL="400" NAME="??0iSoundChannel@Orc@@QAE@ABV01@@Z" PURGE="4" COMMENT="" />
    <EXPORT ORDINAL="401" NAME="??0iSoundChannel@Orc@@QAE@IPAViSoundSystem@1@@Z" PURGE="8" COMMENT="" />
    <EXPORT ORDINAL="402" NAME="??0iSoundClip@Orc@@QAE@ABV01@@Z" PURGE="4" COMMENT="" />
    <EXPORT ORDINAL="403" NAME="??0iSoundClip@Orc@@QAE@PAViSoundSystem@1@PAViSoundChannel@1@_N@Z" PURGE="12" COMMENT="" />
    <EXPORT ORDINAL="404" NAME="??0iSoundSource@Orc@@QAE@UsSoundParams@1@@Z" PURGE="108" COMMENT="" />
    <EXPORT ORDINAL="405" NAME="??0iSoundSource@Orc@@QAE@XZ" PURGE="0" COMMENT="" />
    <EXPORT ORDINAL="406" NAME="??0iSoundSystem@Orc@@IAE@ABVString@1@0@Z" PURGE="8" COMMENT="" />
    <EXPORT ORDINAL="407" NAME="??0iSoundSystem@Orc@@IAE@XZ" PURGE="0" COMMENT="" />
    <EXPORT ORDINAL="408" NAME="??0iSoundSystem@Orc@@QAE@ABV01@@Z" PURGE="4" COMMENT="" />
    <EXPORT ORDINAL="409" NAME="??0iSoundVorbis@Orc@@QAE@ABV01@@Z" PURGE="4" COMMENT="" />
    <EXPORT ORDINAL="410" NAME="??0iSoundVorbis@Orc@@QAE@PAViSoundSystem@1@@Z" PURGE="4" COMMENT="" />
    <EXPORT ORDINAL="411" NAME="??0iThread@Orc@@QAE@ABV01@@Z" PURGE="4" COMMENT="" />
    <EXPORT ORDINAL="412" NAME="??0iThread@Orc@@QAE@I@Z" PURGE="4" COMMENT="" />
    <EXPORT ORDINAL="413" NAME="??0sIntersection@Orc@@QAE@XZ" PURGE="0" COMMENT="" />
    <EXPORT ORDINAL="414" NAME="??0sSoundCone@Orc@@QAE@XZ" PURGE="0" COMMENT="" />
    <EXPORT ORDINAL="415" NAME="??0sSoundParams@Orc@@QAE@XZ" PURGE="0" COMMENT="" />
    <EXPORT ORDINAL="416" NAME="??0sTriangleIntersection@Orc@@QAE@XZ" PURGE="0" COMMENT="" />
    <EXPORT ORDINAL="417" NAME="??0varType@Orc@@QAE@AAVIVarTable@1@@Z" PURGE="4" COMMENT="" />
    <EXPORT ORDINAL="418" NAME="??0varType@Orc@@QAE@H@Z" PURGE="4" COMMENT="" />
    <EXPORT ORDINAL="419" NAME="??0varType@Orc@@QAE@I@Z" PURGE="4" COMMENT="" />
    <EXPORT ORDINAL="420" NAME="??0varType@Orc@@QAE@M@Z" PURGE="4" COMMENT="" />
    <EXPORT ORDINAL="421" NAME="??0varType@Orc@@QAE@PAVIVarTable@1@@Z" PURGE="4" COMMENT="" />
    <EXPORT ORDINAL="422" NAME="??0varType@Orc@@QAE@PBD@Z" PURGE="4" COMMENT="" />
    <EXPORT ORDINAL="423" NAME="??0varType@Orc@@QAE@PBX@Z" PURGE="4" COMMENT="" />
    <EXPORT ORDINAL="424" NAME="??0varType@Orc@@QAE@XZ" PURGE="0" COMMENT="" />
    <EXPORT ORDINAL="425" NAME="??1?$Base_configurable@H@Orc@@UAE@XZ" PURGE="0" COMMENT="" />
    <EXPORT ORDINAL="426" NAME="??1?$Base_configurable@M@Orc@@UAE@XZ" PURGE="0" COMMENT="" />
    <EXPORT ORDINAL="427" NAME="??1?$Base_configurable@_N@Orc@@UAE@XZ" PURGE="0" COMMENT="" />
    <EXPORT ORDINAL="428" NAME="??1?$Configurable@H@Orc@@UAE@XZ" PURGE="0" COMMENT="" />
    <EXPORT ORDINAL="429" NAME="??1?$Configurable@M@Orc@@UAE@XZ" PURGE="0" COMMENT="" />
    <EXPORT ORDINAL="430" NAME="??1?$Configurable@_N@Orc@@UAE@XZ" PURGE="0" COMMENT="" />
    <EXPORT ORDINAL="431" NAME="??1?$FactoryObj@ViArchive@Orc@@@Orc@@UAE@XZ" PURGE="0" COMMENT="" />
    <EXPORT ORDINAL="432" NAME="??1?$FactoryObj@ViCodec@Orc@@@Orc@@UAE@XZ" PURGE="0" COMMENT="" />
    <EXPORT ORDINAL="433" NAME="??1?$FactoryObj@ViMovie@Orc@@@Orc@@UAE@XZ" PURGE="0" COMMENT="" />
    <EXPORT ORDINAL="434" NAME="??1?$FactoryObj@ViSoundSystem@Orc@@@Orc@@UAE@XZ" PURGE="0" COMMENT="" />
    <EXPORT ORDINAL="435" NAME="??1?$_String_base@DV?$memtrack_allocator@D$0IMHGPCA@@stlp_std@@@stlp_std@@IAE@XZ" PURGE="0" COMMENT="" />
    <EXPORT ORDINAL="436" NAME="??1?$_String_base@_WV?$memtrack_allocator@_W$0IMHGPCA@@stlp_std@@@stlp_std@@IAE@XZ" PURGE="0" COMMENT="" />
    <EXPORT ORDINAL="437" NAME="??1?$basic_string@DV?$char_traits@D@stlp_std@@V?$memtrack_allocator@D$0IMHGPCA@@2@@stlp_std@@QAE@XZ" PURGE="0" COMMENT="" />
    <EXPORT ORDINAL="438" NAME="??1?$basic_string@_WV?$char_traits@_W@stlp_std@@V?$memtrack_allocator@_W$0IMHGPCA@@2@@stlp_std@@QAE@XZ" PURGE="0" COMMENT="" />
    <EXPORT ORDINAL="439" NAME="??1?$tSingleton@VArchiveManager@Orc@@@Orc@@QAE@XZ" PURGE="0" COMMENT="" />
    <EXPORT ORDINAL="440" NAME="??1?$tSingleton@VCodecManager@Orc@@@Orc@@QAE@XZ" PURGE="0" COMMENT="" />
    <EXPORT ORDINAL="441" NAME="??1?$tSingleton@VDeprecationMgr@Orc@@@Orc@@QAE@XZ" PURGE="0" COMMENT="" />
    <EXPORT ORDINAL="442" NAME="??1?$tSingleton@VLogManager@Orc@@@Orc@@QAE@XZ" PURGE="0" COMMENT="" />
    <EXPORT ORDINAL="443" NAME="??1?$tSingleton@VMovieManager@Orc@@@Orc@@QAE@XZ" PURGE="0" COMMENT="" />
    <EXPORT ORDINAL="444" NAME="??1?$tSingleton@VParticleSystemMgr@Orc@@@Orc@@QAE@XZ" PURGE="0" COMMENT="" />
    <EXPORT ORDINAL="445" NAME="??1?$tSingleton@VPlatformManager@Orc@@@Orc@@QAE@XZ" PURGE="0" COMMENT="" />
    <EXPORT ORDINAL="446" NAME="??1?$tSingleton@VProcessorInfo@Orc@@@Orc@@QAE@XZ" PURGE="0" COMMENT="" />
    <EXPORT ORDINAL="447" NAME="??1?$tSingleton@VProfileManager@Orc@@@Orc@@QAE@XZ" PURGE="0" COMMENT="" />
    <EXPORT ORDINAL="448" NAME="??1?$tSingleton@VQueuedTaskMgr@Orc@@@Orc@@QAE@XZ" PURGE="0" COMMENT="" />
    <EXPORT ORDINAL="449" NAME="??1?$tSingleton@VRoot@Orc@@@Orc@@QAE@XZ" PURGE="0" COMMENT="" />
    <EXPORT ORDINAL="450" NAME="??1?$tSingleton@VSoundSystemManager@Orc@@@Orc@@QAE@XZ" PURGE="0" COMMENT="" />
    <EXPORT ORDINAL="451" NAME="??1?$tSingleton@VcTableManager@Orc@@@Orc@@QAE@XZ" PURGE="0" COMMENT="" />
    <EXPORT ORDINAL="452" NAME="??1ArchiveFactory@Orc@@UAE@XZ" PURGE="0" COMMENT="" />
    <EXPORT ORDINAL="453" NAME="??1ArchiveManager@Orc@@UAE@XZ" PURGE="0" COMMENT="" />
    <EXPORT ORDINAL="454" NAME="??1Breakpoint@Orc@@QAE@XZ" PURGE="0" COMMENT="" />
    <EXPORT ORDINAL="455" NAME="??1CmdAngle@EmitterCommands@Orc@@UAE@XZ" PURGE="0" COMMENT="" />
    <EXPORT ORDINAL="456" NAME="??1CmdAngleMax@EmitterCommands@Orc@@UAE@XZ" PURGE="0" COMMENT="" />
    <EXPORT ORDINAL="457" NAME="??1CmdAnimFrames@EmitterCommands@Orc@@UAE@XZ" PURGE="0" COMMENT="" />
    <EXPORT ORDINAL="458" NAME="??1CmdAnimSpeed@EmitterCommands@Orc@@UAE@XZ" PURGE="0" COMMENT="" />
    <EXPORT ORDINAL="459" NAME="??1CmdBrightness@EmitterCommands@Orc@@UAE@XZ" PURGE="0" COMMENT="" />
    <EXPORT ORDINAL="460" NAME="??1CmdCentered@EmitterCommands@Orc@@UAE@XZ" PURGE="0" COMMENT="" />
    <EXPORT ORDINAL="461" NAME="??1CmdDirection@EmitterCommands@Orc@@UAE@XZ" PURGE="0" COMMENT="" />
    <EXPORT ORDINAL="462" NAME="??1CmdEmissionAngle@EmitterCommands@Orc@@UAE@XZ" PURGE="0" COMMENT="" />
    <EXPORT ORDINAL="463" NAME="??1CmdEmissionAngleMin@EmitterCommands@Orc@@UAE@XZ" PURGE="0" COMMENT="" />
    <EXPORT ORDINAL="464" NAME="??1CmdEmissionRate@EmitterCommands@Orc@@UAE@XZ" PURGE="0" COMMENT="" />
    <EXPORT ORDINAL="465" NAME="??1CmdEmitAndDisable@EmitterCommands@Orc@@UAE@XZ" PURGE="0" COMMENT="" />
    <EXPORT ORDINAL="466" NAME="??1CmdIntenseFlag@EmitterCommands@Orc@@UAE@XZ" PURGE="0" COMMENT="" />
    <EXPORT ORDINAL="467" NAME="??1CmdMaterial@EmitterCommands@Orc@@UAE@XZ" PURGE="0" COMMENT="" />
    <EXPORT ORDINAL="468" NAME="??1CmdMaxDuration@EmitterCommands@Orc@@UAE@XZ" PURGE="0" COMMENT="" />
    <EXPORT ORDINAL="469" NAME="??1CmdMaxRepeatDelay@EmitterCommands@Orc@@UAE@XZ" PURGE="0" COMMENT="" />
    <EXPORT ORDINAL="470" NAME="??1CmdMaxStartDelay@EmitterCommands@Orc@@UAE@XZ" PURGE="0" COMMENT="" />
    <EXPORT ORDINAL="471" NAME="??1CmdMaxTTL@EmitterCommands@Orc@@UAE@XZ" PURGE="0" COMMENT="" />
    <EXPORT ORDINAL="472" NAME="??1CmdMaxVelocity@EmitterCommands@Orc@@UAE@XZ" PURGE="0" COMMENT="" />
    <EXPORT ORDINAL="473" NAME="??1CmdMinDuration@EmitterCommands@Orc@@UAE@XZ" PURGE="0" COMMENT="" />
    <EXPORT ORDINAL="474" NAME="??1CmdMinRepeatDelay@EmitterCommands@Orc@@UAE@XZ" PURGE="0" COMMENT="" />
    <EXPORT ORDINAL="475" NAME="??1CmdMinStartDelay@EmitterCommands@Orc@@UAE@XZ" PURGE="0" COMMENT="" />
    <EXPORT ORDINAL="476" NAME="??1CmdMinTTL@EmitterCommands@Orc@@UAE@XZ" PURGE="0" COMMENT="" />
    <EXPORT ORDINAL="477" NAME="??1CmdMinVelocity@EmitterCommands@Orc@@UAE@XZ" PURGE="0" COMMENT="" />
    <EXPORT ORDINAL="478" NAME="??1CmdOnEmitter@AffectorCommands@Orc@@UAE@XZ" PURGE="0" COMMENT="" />
    <EXPORT ORDINAL="479" NAME="??1CmdPerspective@EmitterCommands@Orc@@UAE@XZ" PURGE="0" COMMENT="" />
    <EXPORT ORDINAL="480" NAME="??1CmdPosition@EmitterCommands@Orc@@UAE@XZ" PURGE="0" COMMENT="" />
    <EXPORT ORDINAL="481" NAME="??1CmdRepeatDelay@EmitterCommands@Orc@@UAE@XZ" PURGE="0" COMMENT="" />
    <EXPORT ORDINAL="482" NAME="??1CmdSize@EmitterCommands@Orc@@UAE@XZ" PURGE="0" COMMENT="" />
    <EXPORT ORDINAL="483" NAME="??1CmdSizeMax@EmitterCommands@Orc@@UAE@XZ" PURGE="0" COMMENT="" />
    <EXPORT ORDINAL="484" NAME="??1CmdStreakLength@EmitterCommands@Orc@@UAE@XZ" PURGE="0" COMMENT="" />
    <EXPORT ORDINAL="485" NAME="??1CmdStreakSize@EmitterCommands@Orc@@UAE@XZ" PURGE="0" COMMENT="" />
    <EXPORT ORDINAL="486" NAME="??1CodecFactory@Orc@@UAE@XZ" PURGE="0" COMMENT="" />
    <EXPORT ORDINAL="487" NAME="??1CodecManager@Orc@@UAE@XZ" PURGE="0" COMMENT="" />
    <EXPORT ORDINAL="488" NAME="??1ConfigDialog@Orc@@UAE@XZ" PURGE="0" COMMENT="" />
    <EXPORT ORDINAL="489" NAME="??1ConfigFile@Orc@@QAE@XZ" PURGE="0" COMMENT="" />
    <EXPORT ORDINAL="490" NAME="??1ConsoleVar@Orc@@AAE@XZ" PURGE="0" COMMENT="" />
    <EXPORT ORDINAL="491" NAME="??1DeprecationMgr@Orc@@QAE@XZ" PURGE="0" COMMENT="" />
    <EXPORT ORDINAL="492" NAME="??1DirectoryMonitorTask@Orc@@UAE@XZ" PURGE="0" COMMENT="" />
    <EXPORT ORDINAL="493" NAME="??1ErrorDialog@Orc@@UAE@XZ" PURGE="0" COMMENT="" />
    <EXPORT ORDINAL="494" NAME="??1Exception@Orc@@QAE@XZ" PURGE="0" COMMENT="" />
    <EXPORT ORDINAL="495" NAME="??1InputReader@Orc@@UAE@XZ" PURGE="0" COMMENT="" />
    <EXPORT ORDINAL="496" NAME="??1Log@Orc@@UAE@XZ" PURGE="0" COMMENT="" />
    <EXPORT ORDINAL="497" NAME="??1LogIndent@Orc@@QAE@XZ" PURGE="0" COMMENT="" />
    <EXPORT ORDINAL="498" NAME="??1LogManager@Orc@@QAE@XZ" PURGE="0" COMMENT="" />
    <EXPORT ORDINAL="499" NAME="??1MD5Anim@Orc@@QAE@XZ" PURGE="0" COMMENT="" />
    <EXPORT ORDINAL="500" NAME="??1MD5Mesh@Orc@@QAE@XZ" PURGE="0" COMMENT="" />
    <EXPORT ORDINAL="501" NAME="??1MovieFactory@Orc@@UAE@XZ" PURGE="0" COMMENT="" />
    <EXPORT ORDINAL="502" NAME="??1MovieManager@Orc@@UAE@XZ" PURGE="0" COMMENT="" />
    <EXPORT ORDINAL="503" NAME="??1ParamCommand@Orc@@UAE@XZ" PURGE="0" COMMENT="" />
    <EXPORT ORDINAL="504" NAME="??1ParamDictionary@Orc@@QAE@XZ" PURGE="0" COMMENT="" />
    <EXPORT ORDINAL="505" NAME="??1ParameterDef@Orc@@QAE@XZ" PURGE="0" COMMENT="" />
    <EXPORT ORDINAL="506" NAME="??1ParticleAffector@Orc@@UAE@XZ" PURGE="0" COMMENT="" />
    <EXPORT ORDINAL="507" NAME="??1ParticleAffectorFactory@Orc@@UAE@XZ" PURGE="0" COMMENT="" />
    <EXPORT ORDINAL="508" NAME="??1ParticleEmitter@Orc@@UAE@XZ" PURGE="0" COMMENT="" />
    <EXPORT ORDINAL="509" NAME="??1ParticleEmitterFactory@Orc@@UAE@XZ" PURGE="0" COMMENT="" />
    <EXPORT ORDINAL="510" NAME="??1ParticleSystem@Orc@@UAE@XZ" PURGE="0" COMMENT="" />
    <EXPORT ORDINAL="511" NAME="??1ParticleSystemMgr@Orc@@QAE@XZ" PURGE="0" COMMENT="" />
    <EXPORT ORDINAL="512" NAME="??1PlatformManager@Orc@@QAE@XZ" PURGE="0" COMMENT="" />
    <EXPORT ORDINAL="513" NAME="??1ProcessorInfo@Orc@@QAE@XZ" PURGE="0" COMMENT="" />
    <EXPORT ORDINAL="514" NAME="??1ProfileManager@Orc@@QAE@XZ" PURGE="0" COMMENT="" />
    <EXPORT ORDINAL="515" NAME="??1ProfileNode@Orc@@QAE@XZ" PURGE="0" COMMENT="" />
    <EXPORT ORDINAL="516" NAME="??1ProfileSample@Orc@@QAE@XZ" PURGE="0" COMMENT="" />
    <EXPORT ORDINAL="517" NAME="??1QueuedTaskMgr@Orc@@QAE@XZ" PURGE="0" COMMENT="" />
    <EXPORT ORDINAL="518" NAME="??1RandPseudo@Orc@@QAE@XZ" PURGE="0" COMMENT="" />
    <EXPORT ORDINAL="519" NAME="??1RandPseudoOld@Orc@@QAE@XZ" PURGE="0" COMMENT="" />
    <EXPORT ORDINAL="520" NAME="??1RenderSystem@Orc@@UAE@XZ" PURGE="0" COMMENT="" />
    <EXPORT ORDINAL="521" NAME="??1RingBufferByte@Orc@@QAE@XZ" PURGE="0" COMMENT="" />
    <EXPORT ORDINAL="522" NAME="??1Root@Orc@@QAE@XZ" PURGE="0" COMMENT="" />
    <EXPORT ORDINAL="523" NAME="??1SoundSystemFactory@Orc@@UAE@XZ" PURGE="0" COMMENT="" />
    <EXPORT ORDINAL="524" NAME="??1SoundSystemManager@Orc@@UAE@XZ" PURGE="0" COMMENT="" />
    <EXPORT ORDINAL="525" NAME="??1SplashDialog@Orc@@UAE@XZ" PURGE="0" COMMENT="" />
    <EXPORT ORDINAL="526" NAME="??1Storable_configurable@Orc@@UAE@XZ" PURGE="0" COMMENT="" />
    <EXPORT ORDINAL="527" NAME="??1String@Orc@@QAE@XZ" PURGE="0" COMMENT="" />
    <EXPORT ORDINAL="528" NAME="??1StringInterface@Orc@@UAE@XZ" PURGE="0" COMMENT="" />
    <EXPORT ORDINAL="529" NAME="??1TextToken@Orc@@QAE@XZ" PURGE="0" COMMENT="" />
    <EXPORT ORDINAL="530" NAME="??1TextTokenizer@Orc@@QAE@XZ" PURGE="0" COMMENT="" />
    <EXPORT ORDINAL="531" NAME="??1ThreadTask@Orc@@UAE@XZ" PURGE="0" COMMENT="" />
    <EXPORT ORDINAL="532" NAME="??1TimerHelper@Orc@@QAE@XZ" PURGE="0" COMMENT="" />
    <EXPORT ORDINAL="533" NAME="??1TimerInit@Orc@@QAE@XZ" PURGE="0" COMMENT="" />
    <EXPORT ORDINAL="534" NAME="??1WString@Orc@@QAE@XZ" PURGE="0" COMMENT="" />
    <EXPORT ORDINAL="535" NAME="??1Win32Font@Orc@@QAE@XZ" PURGE="0" COMMENT="" />
    <EXPORT ORDINAL="536" NAME="??1cArchiveContainer@Orc@@QAE@XZ" PURGE="0" COMMENT="" />
    <EXPORT ORDINAL="537" NAME="??1cBoxRay@Orc@@QAE@XZ" PURGE="0" COMMENT="" />
    <EXPORT ORDINAL="538" NAME="??1cCodecHuffman@Orc@@QAE@XZ" PURGE="0" COMMENT="" />
    <EXPORT ORDINAL="539" NAME="??1cCodecLZ77@Orc@@QAE@XZ" PURGE="0" COMMENT="" />
    <EXPORT ORDINAL="540" NAME="??1cCodecLZW@Orc@@QAE@XZ" PURGE="0" COMMENT="" />
    <EXPORT ORDINAL="541" NAME="??1cCodecMulti@Orc@@QAE@XZ" PURGE="0" COMMENT="" />
    <EXPORT ORDINAL="542" NAME="??1cCodecZIP@Orc@@QAE@XZ" PURGE="0" COMMENT="" />
    <EXPORT ORDINAL="543" NAME="??1cCommand@Orc@@UAE@XZ" PURGE="0" COMMENT="" />
    <EXPORT ORDINAL="544" NAME="??1cCritical@Orc@@QAE@XZ" PURGE="0" COMMENT="" />
    <EXPORT ORDINAL="545" NAME="??1cCriticalHelper@Orc@@QAE@XZ" PURGE="0" COMMENT="" />
    <EXPORT ORDINAL="546" NAME="??1cDataStore@Orc@@QAE@XZ" PURGE="0" COMMENT="" />
    <EXPORT ORDINAL="547" NAME="??1cFile@Orc@@UAE@XZ" PURGE="0" COMMENT="" />
    <EXPORT ORDINAL="548" NAME="??1cFileBit@Orc@@UAE@XZ" PURGE="0" COMMENT="" />
    <EXPORT ORDINAL="549" NAME="??1cFileBitOld@Orc@@UAE@XZ" PURGE="0" COMMENT="" />
    <EXPORT ORDINAL="550" NAME="??1cFileCached@Orc@@UAE@XZ" PURGE="0" COMMENT="" />
    <EXPORT ORDINAL="551" NAME="??1cFileDisk@Orc@@UAE@XZ" PURGE="0" COMMENT="" />
    <EXPORT ORDINAL="552" NAME="??1cFileMem@Orc@@UAE@XZ" PURGE="0" COMMENT="" />
    <EXPORT ORDINAL="553" NAME="??1cFileTempMem@Orc@@UAE@XZ" PURGE="0" COMMENT="" />
    <EXPORT ORDINAL="554" NAME="??1cGate@Orc@@QAE@XZ" PURGE="0" COMMENT="" />
    <EXPORT ORDINAL="555" NAME="??1cIO_bmp@Orc@@UAE@XZ" PURGE="0" COMMENT="" />
    <EXPORT ORDINAL="556" NAME="??1cIO_dds@Orc@@UAE@XZ" PURGE="0" COMMENT="" />
    <EXPORT ORDINAL="557" NAME="??1cIO_ico@Orc@@UAE@XZ" PURGE="0" COMMENT="" />
    <EXPORT ORDINAL="558" NAME="??1cIO_jpg@Orc@@UAE@XZ" PURGE="0" COMMENT="" />
    <EXPORT ORDINAL="559" NAME="??1cIO_pcx@Orc@@UAE@XZ" PURGE="0" COMMENT="" />
    <EXPORT ORDINAL="560" NAME="??1cIO_tga@Orc@@UAE@XZ" PURGE="0" COMMENT="" />
    <EXPORT ORDINAL="561" NAME="??1cImage@Orc@@QAE@XZ" PURGE="0" COMMENT="" />
    <EXPORT ORDINAL="562" NAME="??1cMD5@Orc@@QAE@XZ" PURGE="0" COMMENT="" />
    <EXPORT ORDINAL="563" NAME="??1cMacroCommand@Orc@@UAE@XZ" PURGE="0" COMMENT="" />
    <EXPORT ORDINAL="564" NAME="??1cMutex@Orc@@QAE@XZ" PURGE="0" COMMENT="" />
    <EXPORT ORDINAL="565" NAME="??1cMutexHelper@Orc@@QAE@XZ" PURGE="0" COMMENT="" />
    <EXPORT ORDINAL="566" NAME="??1cObserver@Orc@@UAE@XZ" PURGE="0" COMMENT="" />
    <EXPORT ORDINAL="567" NAME="??1cPixelFormat@Orc@@QAE@XZ" PURGE="0" COMMENT="" />
    <EXPORT ORDINAL="568" NAME="??1cRectRay@Orc@@QAE@XZ" PURGE="0" COMMENT="" />
    <EXPORT ORDINAL="569" NAME="??1cResource@Orc@@UAE@XZ" PURGE="0" COMMENT="" />
    <EXPORT ORDINAL="570" NAME="??1cResourceManager@Orc@@UAE@XZ" PURGE="0" COMMENT="" />
    <EXPORT ORDINAL="571" NAME="??1cS3TC@Orc@@QAE@XZ" PURGE="0" COMMENT="" />
    <EXPORT ORDINAL="572" NAME="??1cSemaphore@Orc@@QAE@XZ" PURGE="0" COMMENT="" />
    <EXPORT ORDINAL="573" NAME="??1cSignal@Orc@@QAE@XZ" PURGE="0" COMMENT="" />
    <EXPORT ORDINAL="574" NAME="??1cSplineCR@Orc@@QAE@XZ" PURGE="0" COMMENT="" />
    <EXPORT ORDINAL="575" NAME="??1cSubject@Orc@@UAE@XZ" PURGE="0" COMMENT="" />
    <EXPORT ORDINAL="576" NAME="??1cTableManager@Orc@@QAE@XZ" PURGE="0" COMMENT="" />
    <EXPORT ORDINAL="577" NAME="??1cVarTable@Orc@@AAE@XZ" PURGE="0" COMMENT="" />
    <EXPORT ORDINAL="578" NAME="??1iArchive@Orc@@UAE@XZ" PURGE="0" COMMENT="" />
    <EXPORT ORDINAL="579" NAME="??1iImageIO@Orc@@UAE@XZ" PURGE="0" COMMENT="" />
    <EXPORT ORDINAL="580" NAME="??1iMovie@Orc@@UAE@XZ" PURGE="0" COMMENT="" />
    <EXPORT ORDINAL="581" NAME="??1iQueuedTask@Orc@@UAE@XZ" PURGE="0" COMMENT="" />
    <EXPORT ORDINAL="582" NAME="??1iQueuedThread@Orc@@UAE@XZ" PURGE="0" COMMENT="" />
    <EXPORT ORDINAL="583" NAME="??1iSound3DStereo@Orc@@UAE@XZ" PURGE="0" COMMENT="" />
    <EXPORT ORDINAL="584" NAME="??1iSound3DSubwoofer@Orc@@UAE@XZ" PURGE="0" COMMENT="" />
    <EXPORT ORDINAL="585" NAME="??1iSoundChannel@Orc@@UAE@XZ" PURGE="0" COMMENT="" />
    <EXPORT ORDINAL="586" NAME="??1iSoundClip@Orc@@UAE@XZ" PURGE="0" COMMENT="" />
    <EXPORT ORDINAL="587" NAME="??1iSoundSource@Orc@@QAE@XZ" PURGE="0" COMMENT="" />
    <EXPORT ORDINAL="588" NAME="??1iSoundSystem@Orc@@MAE@XZ" PURGE="0" COMMENT="" />
    <EXPORT ORDINAL="589" NAME="??1iSoundVorbis@Orc@@QAE@XZ" PURGE="0" COMMENT="" />
    <EXPORT ORDINAL="590" NAME="??1iThread@Orc@@UAE@XZ" PURGE="0" COMMENT="" />
    <EXPORT ORDINAL="591" NAME="??4?$Base_configurable@H@Orc@@QAEAAV01@ABV01@@Z" PURGE="4" COMMENT="" />
    <EXPORT ORDINAL="592" NAME="??4?$Base_configurable@M@Orc@@QAEAAV01@ABV01@@Z" PURGE="4" COMMENT="" />
    <EXPORT ORDINAL="593" NAME="??4?$Base_configurable@_N@Orc@@QAEAAV01@ABV01@@Z" PURGE="4" COMMENT="" />
    <EXPORT ORDINAL="594" NAME="??4?$Configurable@H@Orc@@QAEAAV01@ABV01@@Z" PURGE="4" COMMENT="" />
    <EXPORT ORDINAL="595" NAME="??4?$Configurable@M@Orc@@QAEAAV01@ABV01@@Z" PURGE="4" COMMENT="" />
    <EXPORT ORDINAL="596" NAME="??4?$Configurable@_N@Orc@@QAEAAV01@ABV01@@Z" PURGE="4" COMMENT="" />
    <EXPORT ORDINAL="597" NAME="??4?$FactoryObj@ViArchive@Orc@@@Orc@@QAEAAV01@ABV01@@Z" PURGE="4" COMMENT="" />
    <EXPORT ORDINAL="598" NAME="??4?$FactoryObj@ViCodec@Orc@@@Orc@@QAEAAV01@ABV01@@Z" PURGE="4" COMMENT="" />
    <EXPORT ORDINAL="599" NAME="??4?$FactoryObj@ViMovie@Orc@@@Orc@@QAEAAV01@ABV01@@Z" PURGE="4" COMMENT="" />
    <EXPORT ORDINAL="600" NAME="??4?$FactoryObj@ViSoundSystem@Orc@@@Orc@@QAEAAV01@ABV01@@Z" PURGE="4" COMMENT="" />
    <EXPORT ORDINAL="601" NAME="??4?$_String_base@DV?$memtrack_allocator@D$0IMHGPCA@@stlp_std@@@stlp_std@@QAEAAV01@ABV01@@Z" PURGE="4" COMMENT="" />
    <EXPORT ORDINAL="602" NAME="??4?$_String_base@_WV?$memtrack_allocator@_W$0IMHGPCA@@stlp_std@@@stlp_std@@QAEAAV01@ABV01@@Z" PURGE="4" COMMENT="" />
    <EXPORT ORDINAL="603" NAME="??4?$basic_string@DV?$char_traits@D@stlp_std@@V?$memtrack_allocator@D$0IMHGPCA@@2@@stlp_std@@QAEAAV01@ABV01@@Z" PURGE="4" COMMENT="" />
    <EXPORT ORDINAL="604" NAME="??4?$basic_string@DV?$char_traits@D@stlp_std@@V?$memtrack_allocator@D$0IMHGPCA@@2@@stlp_std@@QAEAAV01@D@Z" PURGE="4" COMMENT="" />
    <EXPORT ORDINAL="605" NAME="??4?$basic_string@DV?$char_traits@D@stlp_std@@V?$memtrack_allocator@D$0IMHGPCA@@2@@stlp_std@@QAEAAV01@PBD@Z" PURGE="4" COMMENT="" />
    <EXPORT ORDINAL="606" NAME="??4?$basic_string@_WV?$char_traits@_W@stlp_std@@V?$memtrack_allocator@_W$0IMHGPCA@@2@@stlp_std@@QAEAAV01@ABV01@@Z" PURGE="4" COMMENT="" />
    <EXPORT ORDINAL="607" NAME="??4?$basic_string@_WV?$char_traits@_W@stlp_std@@V?$memtrack_allocator@_W$0IMHGPCA@@2@@stlp_std@@QAEAAV01@PB_W@Z" PURGE="4" COMMENT="" />
    <EXPORT ORDINAL="608" NAME="??4?$basic_string@_WV?$char_traits@_W@stlp_std@@V?$memtrack_allocator@_W$0IMHGPCA@@2@@stlp_std@@QAEAAV01@_W@Z" PURGE="4" COMMENT="" />
    <EXPORT ORDINAL="609" NAME="??4?$tSingleton@VArchiveManager@Orc@@@Orc@@QAEAAV01@ABV01@@Z" PURGE="4" COMMENT="" />
    <EXPORT ORDINAL="610" NAME="??4?$tSingleton@VCodecManager@Orc@@@Orc@@QAEAAV01@ABV01@@Z" PURGE="4" COMMENT="" />
    <EXPORT ORDINAL="611" NAME="??4?$tSingleton@VDeprecationMgr@Orc@@@Orc@@QAEAAV01@ABV01@@Z" PURGE="4" COMMENT="" />
    <EXPORT ORDINAL="612" NAME="??4?$tSingleton@VLogManager@Orc@@@Orc@@QAEAAV01@ABV01@@Z" PURGE="4" COMMENT="" />
    <EXPORT ORDINAL="613" NAME="??4?$tSingleton@VMovieManager@Orc@@@Orc@@QAEAAV01@ABV01@@Z" PURGE="4" COMMENT="" />
    <EXPORT ORDINAL="614" NAME="??4?$tSingleton@VParticleSystemMgr@Orc@@@Orc@@QAEAAV01@ABV01@@Z" PURGE="4" COMMENT="" />
    <EXPORT ORDINAL="615" NAME="??4?$tSingleton@VPlatformManager@Orc@@@Orc@@QAEAAV01@ABV01@@Z" PURGE="4" COMMENT="" />
    <EXPORT ORDINAL="616" NAME="??4?$tSingleton@VProcessorInfo@Orc@@@Orc@@QAEAAV01@ABV01@@Z" PURGE="4" COMMENT="" />
    <EXPORT ORDINAL="617" NAME="??4?$tSingleton@VProfileManager@Orc@@@Orc@@QAEAAV01@ABV01@@Z" PURGE="4" COMMENT="" />
    <EXPORT ORDINAL="618" NAME="??4?$tSingleton@VQueuedTaskMgr@Orc@@@Orc@@QAEAAV01@ABV01@@Z" PURGE="4" COMMENT="" />
    <EXPORT ORDINAL="619" NAME="??4?$tSingleton@VRoot@Orc@@@Orc@@QAEAAV01@ABV01@@Z" PURGE="4" COMMENT="" />
    <EXPORT ORDINAL="620" NAME="??4?$tSingleton@VSoundSystemManager@Orc@@@Orc@@QAEAAV01@ABV01@@Z" PURGE="4" COMMENT="" />
    <EXPORT ORDINAL="621" NAME="??4?$tSingleton@VcTableManager@Orc@@@Orc@@QAEAAV01@ABV01@@Z" PURGE="4" COMMENT="" />
    <EXPORT ORDINAL="622" NAME="??4ArchiveFactory@Orc@@QAEAAV01@ABV01@@Z" PURGE="4" COMMENT="" />
    <EXPORT ORDINAL="623" NAME="??4Breakpoint@Orc@@QAEAAV01@ABV01@@Z" PURGE="4" COMMENT="" />
    <EXPORT ORDINAL="624" NAME="??4BuildDate@Orc@@QAEAAV01@ABV01@@Z" PURGE="4" COMMENT="" />
    <EXPORT ORDINAL="625" NAME="??4BuildNumber@Orc@@QAEAAV01@ABV01@@Z" PURGE="4" COMMENT="" />
    <EXPORT ORDINAL="626" NAME="??4BuildVersion@Orc@@QAEAAU01@ABU01@@Z" PURGE="4" COMMENT="" />
    <EXPORT ORDINAL="627" NAME="??4CmdAngle@EmitterCommands@Orc@@QAEAAV012@ABV012@@Z" PURGE="4" COMMENT="" />
    <EXPORT ORDINAL="628" NAME="??4CmdAngleMax@EmitterCommands@Orc@@QAEAAV012@ABV012@@Z" PURGE="4" COMMENT="" />
    <EXPORT ORDINAL="629" NAME="??4CmdAnimFrames@EmitterCommands@Orc@@QAEAAV012@ABV012@@Z" PURGE="4" COMMENT="" />
    <EXPORT ORDINAL="630" NAME="??4CmdAnimSpeed@EmitterCommands@Orc@@QAEAAV012@ABV012@@Z" PURGE="4" COMMENT="" />
    <EXPORT ORDINAL="631" NAME="??4CmdBrightness@EmitterCommands@Orc@@QAEAAV012@ABV012@@Z" PURGE="4" COMMENT="" />
    <EXPORT ORDINAL="632" NAME="??4CmdCentered@EmitterCommands@Orc@@QAEAAV012@ABV012@@Z" PURGE="4" COMMENT="" />
    <EXPORT ORDINAL="633" NAME="??4CmdDirection@EmitterCommands@Orc@@QAEAAV012@ABV012@@Z" PURGE="4" COMMENT="" />
    <EXPORT ORDINAL="634" NAME="??4CmdEmissionAngle@EmitterCommands@Orc@@QAEAAV012@ABV012@@Z" PURGE="4" COMMENT="" />
    <EXPORT ORDINAL="635" NAME="??4CmdEmissionAngleMin@EmitterCommands@Orc@@QAEAAV012@ABV012@@Z" PURGE="4" COMMENT="" />
    <EXPORT ORDINAL="636" NAME="??4CmdEmissionRate@EmitterCommands@Orc@@QAEAAV012@ABV012@@Z" PURGE="4" COMMENT="" />
    <EXPORT ORDINAL="637" NAME="??4CmdEmitAndDisable@EmitterCommands@Orc@@QAEAAV012@ABV012@@Z" PURGE="4" COMMENT="" />
    <EXPORT ORDINAL="638" NAME="??4CmdIntenseFlag@EmitterCommands@Orc@@QAEAAV012@ABV012@@Z" PURGE="4" COMMENT="" />
    <EXPORT ORDINAL="639" NAME="??4CmdMaterial@EmitterCommands@Orc@@QAEAAV012@ABV012@@Z" PURGE="4" COMMENT="" />
    <EXPORT ORDINAL="640" NAME="??4CmdMaxDuration@EmitterCommands@Orc@@QAEAAV012@ABV012@@Z" PURGE="4" COMMENT="" />
    <EXPORT ORDINAL="641" NAME="??4CmdMaxRepeatDelay@EmitterCommands@Orc@@QAEAAV012@ABV012@@Z" PURGE="4" COMMENT="" />
    <EXPORT ORDINAL="642" NAME="??4CmdMaxStartDelay@EmitterCommands@Orc@@QAEAAV012@ABV012@@Z" PURGE="4" COMMENT="" />
    <EXPORT ORDINAL="643" NAME="??4CmdMaxTTL@EmitterCommands@Orc@@QAEAAV012@ABV012@@Z" PURGE="4" COMMENT="" />
    <EXPORT ORDINAL="644" NAME="??4CmdMaxVelocity@EmitterCommands@Orc@@QAEAAV012@ABV012@@Z" PURGE="4" COMMENT="" />
    <EXPORT ORDINAL="645" NAME="??4CmdMinDuration@EmitterCommands@Orc@@QAEAAV012@ABV012@@Z" PURGE="4" COMMENT="" />
    <EXPORT ORDINAL="646" NAME="??4CmdMinRepeatDelay@EmitterCommands@Orc@@QAEAAV012@ABV012@@Z" PURGE="4" COMMENT="" />
    <EXPORT ORDINAL="647" NAME="??4CmdMinStartDelay@EmitterCommands@Orc@@QAEAAV012@ABV012@@Z" PURGE="4" COMMENT="" />
    <EXPORT ORDINAL="648" NAME="??4CmdMinTTL@EmitterCommands@Orc@@QAEAAV012@ABV012@@Z" PURGE="4" COMMENT="" />
    <EXPORT ORDINAL="649" NAME="??4CmdMinVelocity@EmitterCommands@Orc@@QAEAAV012@ABV012@@Z" PURGE="4" COMMENT="" />
    <EXPORT ORDINAL="650" NAME="??4CmdOnEmitter@AffectorCommands@Orc@@QAEAAV012@ABV012@@Z" PURGE="4" COMMENT="" />
    <EXPORT ORDINAL="651" NAME="??4CmdPerspective@EmitterCommands@Orc@@QAEAAV012@ABV012@@Z" PURGE="4" COMMENT="" />
    <EXPORT ORDINAL="652" NAME="??4CmdPosition@EmitterCommands@Orc@@QAEAAV012@ABV012@@Z" PURGE="4" COMMENT="" />
    <EXPORT ORDINAL="653" NAME="??4CmdRepeatDelay@EmitterCommands@Orc@@QAEAAV012@ABV012@@Z" PURGE="4" COMMENT="" />
    <EXPORT ORDINAL="654" NAME="??4CmdSize@EmitterCommands@Orc@@QAEAAV012@ABV012@@Z" PURGE="4" COMMENT="" />
    <EXPORT ORDINAL="655" NAME="??4CmdSizeMax@EmitterCommands@Orc@@QAEAAV012@ABV012@@Z" PURGE="4" COMMENT="" />
    <EXPORT ORDINAL="656" NAME="??4CmdStreakLength@EmitterCommands@Orc@@QAEAAV012@ABV012@@Z" PURGE="4" COMMENT="" />
    <EXPORT ORDINAL="657" NAME="??4CmdStreakSize@EmitterCommands@Orc@@QAEAAV012@ABV012@@Z" PURGE="4" COMMENT="" />
    <EXPORT ORDINAL="658" NAME="??4CodecFactory@Orc@@QAEAAV01@ABV01@@Z" PURGE="4" COMMENT="" />
    <EXPORT ORDINAL="659" NAME="??4CodecManager@Orc@@QAEAAV01@ABV01@@Z" PURGE="4" COMMENT="" />
    <EXPORT ORDINAL="660" NAME="??4CodecParams@Orc@@QAEAAV01@ABV01@@Z" PURGE="4" COMMENT="" />
    <EXPORT ORDINAL="661" NAME="??4CodecParamsZip@Orc@@QAEAAV01@ABV01@@Z" PURGE="4" COMMENT="" />
    <EXPORT ORDINAL="662" NAME="??4ConfigDialog@Orc@@QAEAAV01@ABV01@@Z" PURGE="4" COMMENT="" />
    <EXPORT ORDINAL="663" NAME="??4ConfigFile@Orc@@QAEAAV01@ABV01@@Z" PURGE="4" COMMENT="" />
    <EXPORT ORDINAL="664" NAME="??4ConsoleVar@Orc@@QAEAAV01@ABV01@@Z" PURGE="4" COMMENT="" />
    <EXPORT ORDINAL="665" NAME="??4D3DXMATRIX@@QAEAAU0@ABU0@@Z" PURGE="4" COMMENT="" />
    <EXPORT ORDINAL="666" NAME="??4D3DXPLANE@@QAEAAU0@ABU0@@Z" PURGE="4" COMMENT="" />
    <EXPORT ORDINAL="667" NAME="??4D3DXVECTOR2@@QAEAAU0@ABU0@@Z" PURGE="4" COMMENT="" />
    <EXPORT ORDINAL="668" NAME="??4D3DXVECTOR3@@QAEAAU0@ABU0@@Z" PURGE="4" COMMENT="" />
    <EXPORT ORDINAL="669" NAME="??4D3DXVECTOR4@@QAEAAU0@ABU0@@Z" PURGE="4" COMMENT="" />
    <EXPORT ORDINAL="670" NAME="??4DeprecationMgr@Orc@@QAEAAV01@ABV01@@Z" PURGE="4" COMMENT="" />
    <EXPORT ORDINAL="671" NAME="??4DirectoryMonitor@Orc@@QAEAAV01@ABV01@@Z" PURGE="4" COMMENT="" />
    <EXPORT ORDINAL="672" NAME="??4ErrorDialog@Orc@@QAEAAV01@ABV01@@Z" PURGE="4" COMMENT="" />
    <EXPORT ORDINAL="673" NAME="??4Exception@Orc@@QAEXABV01@@Z" PURGE="4" COMMENT="" />
    <EXPORT ORDINAL="674" NAME="??4FileInfo@Orc@@QAEAAU01@ABU01@@Z" PURGE="4" COMMENT="" />
    <EXPORT ORDINAL="675" NAME="??4FileSystem@Orc@@QAEAAV01@ABV01@@Z" PURGE="4" COMMENT="" />
    <EXPORT ORDINAL="676" NAME="??4FrameListener@Orc@@QAEAAV01@ABV01@@Z" PURGE="4" COMMENT="" />
    <EXPORT ORDINAL="677" NAME="??4InputReader@Orc@@QAEAAV01@ABV01@@Z" PURGE="4" COMMENT="" />
    <EXPORT ORDINAL="678" NAME="??4Log@Orc@@AAEAAV01@ABV01@@Z" PURGE="4" COMMENT="" />
    <EXPORT ORDINAL="679" NAME="??4LogIndent@Orc@@QAEAAV01@ABV01@@Z" PURGE="4" COMMENT="" />
    <EXPORT ORDINAL="680" NAME="??4LogManager@Orc@@QAEAAV01@ABV01@@Z" PURGE="4" COMMENT="" />
    <EXPORT ORDINAL="681" NAME="??4MD5Anim@Orc@@QAEAAV01@ABV01@@Z" PURGE="4" COMMENT="" />
    <EXPORT ORDINAL="682" NAME="??4MD5Hash@Orc@@QAEAAV01@ABV01@@Z" PURGE="4" COMMENT="" />
    <EXPORT ORDINAL="683" NAME="??4MD5Loader@Orc@@QAEAAV01@ABV01@@Z" PURGE="4" COMMENT="" />
    <EXPORT ORDINAL="684" NAME="??4MD5Mesh@Orc@@QAEAAV01@ABV01@@Z" PURGE="4" COMMENT="" />
    <EXPORT ORDINAL="685" NAME="??4MouseState@Orc@@QAEAAU01@ABU01@@Z" PURGE="4" COMMENT="" />
    <EXPORT ORDINAL="686" NAME="??4MovieFactory@Orc@@QAEAAV01@ABV01@@Z" PURGE="4" COMMENT="" />
    <EXPORT ORDINAL="687" NAME="??4MovieManager@Orc@@QAEAAV01@ABV01@@Z" PURGE="4" COMMENT="" />
    <EXPORT ORDINAL="688" NAME="??4OsInfo@Orc@@QAEAAV01@ABV01@@Z" PURGE="4" COMMENT="" />
    <EXPORT ORDINAL="689" NAME="??4ParamCommand@Orc@@QAEAAV01@ABV01@@Z" PURGE="4" COMMENT="" />
    <EXPORT ORDINAL="690" NAME="??4ParamDictionary@Orc@@QAEAAV01@ABV01@@Z" PURGE="4" COMMENT="" />
    <EXPORT ORDINAL="691" NAME="??4ParameterDef@Orc@@QAEAAV01@ABV01@@Z" PURGE="4" COMMENT="" />
    <EXPORT ORDINAL="692" NAME="??4Particle@Orc@@QAEAAV01@ABV01@@Z" PURGE="4" COMMENT="" />
    <EXPORT ORDINAL="693" NAME="??4ParticleAffector@Orc@@QAEAAV01@ABV01@@Z" PURGE="4" COMMENT="" />
    <EXPORT ORDINAL="694" NAME="??4ParticleAffectorFactory@Orc@@QAEAAV01@ABV01@@Z" PURGE="4" COMMENT="" />
    <EXPORT ORDINAL="695" NAME="??4ParticleEmitter@Orc@@QAEAAV01@ABV01@@Z" PURGE="4" COMMENT="" />
    <EXPORT ORDINAL="696" NAME="??4ParticleEmitterFactory@Orc@@QAEAAV01@ABV01@@Z" PURGE="4" COMMENT="" />
    <EXPORT ORDINAL="697" NAME="??4ParticleSystem@Orc@@QAEAAV01@ABV01@@Z" PURGE="4" COMMENT="" />
    <EXPORT ORDINAL="698" NAME="??4ParticleSystemMgr@Orc@@QAEAAV01@ABV01@@Z" PURGE="4" COMMENT="" />
    <EXPORT ORDINAL="699" NAME="??4PerfCounter@Orc@@QAEAAV01@ABV01@@Z" PURGE="4" COMMENT="" />
    <EXPORT ORDINAL="700" NAME="??4Perlin@Orc@@QAEAAV01@ABV01@@Z" PURGE="4" COMMENT="" />
    <EXPORT ORDINAL="701" NAME="??4ProcessorInfo@Orc@@QAEAAV01@ABV01@@Z" PURGE="4" COMMENT="" />
    <EXPORT ORDINAL="702" NAME="??4ProfileManager@Orc@@QAEAAV01@ABV01@@Z" PURGE="4" COMMENT="" />
    <EXPORT ORDINAL="703" NAME="??4ProfileNode@Orc@@QAEAAV01@ABV01@@Z" PURGE="4" COMMENT="" />
    <EXPORT ORDINAL="704" NAME="??4ProfileSample@Orc@@QAEAAV01@ABV01@@Z" PURGE="4" COMMENT="" />
    <EXPORT ORDINAL="705" NAME="??4QueuedTaskMgr@Orc@@QAEAAV01@ABV01@@Z" PURGE="4" COMMENT="" />
    <EXPORT ORDINAL="706" NAME="??4RandPseudo@Orc@@QAEAAV01@ABV01@@Z" PURGE="4" COMMENT="" />
    <EXPORT ORDINAL="707" NAME="??4RandPseudoOld@Orc@@QAEAAV01@ABV01@@Z" PURGE="4" COMMENT="" />
    <EXPORT ORDINAL="708" NAME="??4RenderSystem@Orc@@QAEAAV01@ABV01@@Z" PURGE="4" COMMENT="" />
    <EXPORT ORDINAL="709" NAME="??4RingBufferByte@Orc@@QAEAAV01@ABV01@@Z" PURGE="4" COMMENT="" />
    <EXPORT ORDINAL="710" NAME="??4Root@Orc@@QAEAAV01@ABV01@@Z" PURGE="4" COMMENT="" />
    <EXPORT ORDINAL="711" NAME="??4SoundSystemFactory@Orc@@QAEAAV01@ABV01@@Z" PURGE="4" COMMENT="" />
    <EXPORT ORDINAL="712" NAME="??4SplashDialog@Orc@@QAEAAV01@ABV01@@Z" PURGE="4" COMMENT="" />
    <EXPORT ORDINAL="713" NAME="??4Storable_configurable@Orc@@QAEAAV01@ABV01@@Z" PURGE="4" COMMENT="" />
    <EXPORT ORDINAL="714" NAME="??4String@Orc@@QAEAAV01@ABV01@@Z" PURGE="4" COMMENT="" />
    <EXPORT ORDINAL="715" NAME="??4StringConverter@Orc@@QAEAAV01@ABV01@@Z" PURGE="4" COMMENT="" />
    <EXPORT ORDINAL="716" NAME="??4StringInterface@Orc@@QAEAAV01@ABV01@@Z" PURGE="4" COMMENT="" />
    <EXPORT ORDINAL="717" NAME="??4StringTools@Orc@@QAEAAV01@ABV01@@Z" PURGE="4" COMMENT="" />
    <EXPORT ORDINAL="718" NAME="??4TextToken@Orc@@QAEAAV01@ABV01@@Z" PURGE="4" COMMENT="" />
    <EXPORT ORDINAL="719" NAME="??4ThreadTaskInfo@ThreadTask@Orc@@QAEAAU012@ABU012@@Z" PURGE="4" COMMENT="" />
    <EXPORT ORDINAL="720" NAME="??4TimeStepCollect@Orc@@QAEAAV01@ABV01@@Z" PURGE="4" COMMENT="" />
    <EXPORT ORDINAL="721" NAME="??4Timer@Orc@@QAEAAV01@ABV01@@Z" PURGE="4" COMMENT="" />
    <EXPORT ORDINAL="722" NAME="??4TimerCycle@Orc@@QAEAAV01@ABV01@@Z" PURGE="4" COMMENT="" />
    <EXPORT ORDINAL="723" NAME="??4TimerHelper@Orc@@QAEAAV01@ABV01@@Z" PURGE="4" COMMENT="" />
    <EXPORT ORDINAL="724" NAME="??4TimerInit@Orc@@QAEAAV01@ABV01@@Z" PURGE="4" COMMENT="" />
    <EXPORT ORDINAL="725" NAME="??4WString@Orc@@QAEAAV01@ABV01@@Z" PURGE="4" COMMENT="" />
    <EXPORT ORDINAL="726" NAME="??4Win32Font@Orc@@QAEAAV01@ABV01@@Z" PURGE="4" COMMENT="" />
    <EXPORT ORDINAL="727" NAME="??4_sFile_chunk@Orc@@QAEAAU01@ABU01@@Z" PURGE="4" COMMENT="" />
    <EXPORT ORDINAL="728" NAME="??4_sHeader@Orc@@QAEAAU01@ABU01@@Z" PURGE="4" COMMENT="" />
    <EXPORT ORDINAL="729" NAME="??4cBoundingBox@Orc@@QAEAAV01@ABV01@@Z" PURGE="4" COMMENT="" />
    <EXPORT ORDINAL="730" NAME="??4cBoundingBoxAA@Orc@@QAEAAV01@ABV01@@Z" PURGE="4" COMMENT="" />
    <EXPORT ORDINAL="731" NAME="??4cBoundingCylinder@Orc@@QAEAAV01@ABV01@@Z" PURGE="4" COMMENT="" />
    <EXPORT ORDINAL="732" NAME="??4cBoundingSphere@Orc@@QAEAAV01@ABV01@@Z" PURGE="4" COMMENT="" />
    <EXPORT ORDINAL="733" NAME="??4cBoxRay@Orc@@QAEAAV01@ABV01@@Z" PURGE="4" COMMENT="" />
    <EXPORT ORDINAL="734" NAME="??4cCRC32@Orc@@QAEAAV01@ABV01@@Z" PURGE="4" COMMENT="" />
    <EXPORT ORDINAL="735" NAME="??4cCodecHuffman@Orc@@QAEAAV01@ABV01@@Z" PURGE="4" COMMENT="" />
    <EXPORT ORDINAL="736" NAME="??4cCodecLZ77@Orc@@QAEAAV01@ABV01@@Z" PURGE="4" COMMENT="" />
    <EXPORT ORDINAL="737" NAME="??4cCodecLZW@Orc@@QAEAAV01@ABV01@@Z" PURGE="4" COMMENT="" />
    <EXPORT ORDINAL="738" NAME="??4cCodecMTF@Orc@@QAEAAV01@ABV01@@Z" PURGE="4" COMMENT="" />
    <EXPORT ORDINAL="739" NAME="??4cCodecMulti@Orc@@QAEAAV01@ABV01@@Z" PURGE="4" COMMENT="" />
    <EXPORT ORDINAL="740" NAME="??4cCodecZIP@Orc@@QAEAAV01@ABV01@@Z" PURGE="4" COMMENT="" />
    <EXPORT ORDINAL="741" NAME="??4cCommand@Orc@@QAEAAV01@ABV01@@Z" PURGE="4" COMMENT="" />
    <EXPORT ORDINAL="742" NAME="??4cCpuBinding@Orc@@QAEAAV01@ABV01@@Z" PURGE="4" COMMENT="" />
    <EXPORT ORDINAL="743" NAME="??4cCritical@Orc@@QAEAAV01@ABV01@@Z" PURGE="4" COMMENT="" />
    <EXPORT ORDINAL="744" NAME="??4cCriticalHelper@Orc@@QAEAAV01@ABV01@@Z" PURGE="4" COMMENT="" />
    <EXPORT ORDINAL="745" NAME="??4cDataStore@Orc@@QAEAAV01@ABV01@@Z" PURGE="4" COMMENT="" />
    <EXPORT ORDINAL="746" NAME="??4cFFT@Orc@@QAEAAV01@ABV01@@Z" PURGE="4" COMMENT="" />
    <EXPORT ORDINAL="747" NAME="??4cFile@Orc@@QAEAAV01@ABV01@@Z" PURGE="4" COMMENT="" />
    <EXPORT ORDINAL="748" NAME="??4cFileBit@Orc@@QAEAAV01@ABV01@@Z" PURGE="4" COMMENT="" />
    <EXPORT ORDINAL="749" NAME="??4cFileBitOld@Orc@@QAEAAV01@ABV01@@Z" PURGE="4" COMMENT="" />
    <EXPORT ORDINAL="750" NAME="??4cFileCached@Orc@@QAEAAV01@ABV01@@Z" PURGE="4" COMMENT="" />
    <EXPORT ORDINAL="751" NAME="??4cFileDisk@Orc@@QAEAAV01@ABV01@@Z" PURGE="4" COMMENT="" />
    <EXPORT ORDINAL="752" NAME="??4cFileMem@Orc@@QAEAAV01@ABV01@@Z" PURGE="4" COMMENT="" />
    <EXPORT ORDINAL="753" NAME="??4cGate@Orc@@QAEAAV01@ABV01@@Z" PURGE="4" COMMENT="" />
    <EXPORT ORDINAL="754" NAME="??4cImage@Orc@@QAEAAV01@ABV01@@Z" PURGE="4" COMMENT="" />
    <EXPORT ORDINAL="755" NAME="??4cMD5@Orc@@QAEAAV01@ABV01@@Z" PURGE="4" COMMENT="" />
    <EXPORT ORDINAL="756" NAME="??4cMacroCommand@Orc@@QAEAAV01@ABV01@@Z" PURGE="4" COMMENT="" />
    <EXPORT ORDINAL="757" NAME="??4cMath@Orc@@QAEAAV01@ABV01@@Z" PURGE="4" COMMENT="" />
    <EXPORT ORDINAL="758" NAME="??4cMersenneTwister@Orc@@QAEAAV01@ABV01@@Z" PURGE="4" COMMENT="" />
    <EXPORT ORDINAL="759" NAME="??4cMultiFrameProfiler@Orc@@QAEAAV01@ABV01@@Z" PURGE="4" COMMENT="" />
    <EXPORT ORDINAL="760" NAME="??4cMutex@Orc@@QAEAAV01@ABV01@@Z" PURGE="4" COMMENT="" />
    <EXPORT ORDINAL="761" NAME="??4cMutexHelper@Orc@@QAEAAV01@ABV01@@Z" PURGE="4" COMMENT="" />
    <EXPORT ORDINAL="762" NAME="??4cOBB@Orc@@QAEAAV01@ABV01@@Z" PURGE="4" COMMENT="" />
    <EXPORT ORDINAL="763" NAME="??4cObserver@Orc@@QAEAAV01@ABV01@@Z" PURGE="4" COMMENT="" />
    <EXPORT ORDINAL="764" NAME="??4cPalette@Orc@@QAEAAV01@ABV01@@Z" PURGE="4" COMMENT="" />
    <EXPORT ORDINAL="765" NAME="??4cPixelFormat@Orc@@QAEAAV01@ABV01@@Z" PURGE="4" COMMENT="" />
    <EXPORT ORDINAL="766" NAME="??4cRand@Orc@@QAEAAV01@ABV01@@Z" PURGE="4" COMMENT="" />
    <EXPORT ORDINAL="767" NAME="??4cRandMsvc@Orc@@QAEAAV01@ABV01@@Z" PURGE="4" COMMENT="" />
    <EXPORT ORDINAL="768" NAME="??4cRay@Orc@@QAEAAV01@ABV01@@Z" PURGE="4" COMMENT="" />
    <EXPORT ORDINAL="769" NAME="??4cRectRay@Orc@@QAEAAV01@ABV01@@Z" PURGE="4" COMMENT="" />
    <EXPORT ORDINAL="770" NAME="??4cRectRayHitTest@Orc@@QAEAAV01@ABV01@@Z" PURGE="4" COMMENT="" />
    <EXPORT ORDINAL="771" NAME="??4cRectangle@Orc@@QAEAAV01@ABV01@@Z" PURGE="4" COMMENT="" />
    <EXPORT ORDINAL="772" NAME="??4cResource@Orc@@QAEAAV01@ABV01@@Z" PURGE="4" COMMENT="" />
    <EXPORT ORDINAL="773" NAME="??4cS3TC@Orc@@QAEAAV01@ABV01@@Z" PURGE="4" COMMENT="" />
    <EXPORT ORDINAL="774" NAME="??4cSemaphore@Orc@@QAEAAV01@ABV01@@Z" PURGE="4" COMMENT="" />
    <EXPORT ORDINAL="775" NAME="??4cSignal@Orc@@QAEAAV01@ABV01@@Z" PURGE="4" COMMENT="" />
    <EXPORT ORDINAL="776" NAME="??4cSplineCR@Orc@@QAEAAV01@ABV01@@Z" PURGE="4" COMMENT="" />
    <EXPORT ORDINAL="777" NAME="??4cSubject@Orc@@QAEAAV01@ABV01@@Z" PURGE="4" COMMENT="" />
    <EXPORT ORDINAL="778" NAME="??4cSystem@Orc@@QAEAAV01@ABV01@@Z" PURGE="4" COMMENT="" />
    <EXPORT ORDINAL="779" NAME="??4cTableManager@Orc@@QAEAAV01@ABV01@@Z" PURGE="4" COMMENT="" />
    <EXPORT ORDINAL="780" NAME="??4iArchive@Orc@@QAEAAV01@ABV01@@Z" PURGE="4" COMMENT="" />
    <EXPORT ORDINAL="781" NAME="??4iCodec@Orc@@QAEAAV01@ABV01@@Z" PURGE="4" COMMENT="" />
    <EXPORT ORDINAL="782" NAME="??4iImageIO@Orc@@AAEXABV01@@Z" PURGE="4" COMMENT="" />
    <EXPORT ORDINAL="783" NAME="??4iMovie@Orc@@QAEAAV01@ABV01@@Z" PURGE="4" COMMENT="" />
    <EXPORT ORDINAL="784" NAME="??4iQueuedTask@Orc@@QAEAAV01@ABV01@@Z" PURGE="4" COMMENT="" />
    <EXPORT ORDINAL="785" NAME="??4iQueuedThread@Orc@@QAEAAV01@ABV01@@Z" PURGE="4" COMMENT="" />
    <EXPORT ORDINAL="786" NAME="??4iSound3DStereo@Orc@@QAEAAV01@ABV01@@Z" PURGE="4" COMMENT="" />
    <EXPORT ORDINAL="787" NAME="??4iSound3DSubwoofer@Orc@@QAEAAV01@ABV01@@Z" PURGE="4" COMMENT="" />
    <EXPORT ORDINAL="788" NAME="??4iSoundChannel@Orc@@QAEAAV01@ABV01@@Z" PURGE="4" COMMENT="" />
    <EXPORT ORDINAL="789" NAME="??4iSoundClip@Orc@@QAEAAV01@ABV01@@Z" PURGE="4" COMMENT="" />
    <EXPORT ORDINAL="790" NAME="??4iSoundSource@Orc@@QAEAAV01@ABV01@@Z" PURGE="4" COMMENT="" />
    <EXPORT ORDINAL="791" NAME="??4iSoundSystem@Orc@@QAEAAV01@ABV01@@Z" PURGE="4" COMMENT="" />
    <EXPORT ORDINAL="792" NAME="??4iSoundVorbis@Orc@@QAEAAV01@ABV01@@Z" PURGE="4" COMMENT="" />
    <EXPORT ORDINAL="793" NAME="??4iThread@Orc@@QAEAAV01@ABV01@@Z" PURGE="4" COMMENT="" />
    <EXPORT ORDINAL="794" NAME="??4sIntersection@Orc@@QAEAAU01@ABU01@@Z" PURGE="4" COMMENT="" />
    <EXPORT ORDINAL="795" NAME="??4sSoundCone@Orc@@QAEAAU01@ABU01@@Z" PURGE="4" COMMENT="" />
    <EXPORT ORDINAL="796" NAME="??4sSoundParams@Orc@@QAEAAU01@ABU01@@Z" PURGE="4" COMMENT="" />
    <EXPORT ORDINAL="797" NAME="??4sTriangleIntersection@Orc@@QAEAAU01@ABU01@@Z" PURGE="4" COMMENT="" />
    <EXPORT ORDINAL="798" NAME="??4varType@Orc@@QAEAAU01@ABU01@@Z" PURGE="4" COMMENT="" />
    <EXPORT ORDINAL="799" NAME="??5cFile@Orc@@QAEAAV01@AAD@Z" PURGE="4" COMMENT="" />
    <EXPORT ORDINAL="800" NAME="??5cFile@Orc@@QAEAAV01@AAE@Z" PURGE="4" COMMENT="" />
    <EXPORT ORDINAL="801" NAME="??5cFile@Orc@@QAEAAV01@AAF@Z" PURGE="4" COMMENT="" />
    <EXPORT ORDINAL="802" NAME="??5cFile@Orc@@QAEAAV01@AAG@Z" PURGE="4" COMMENT="" />
    <EXPORT ORDINAL="803" NAME="??5cFile@Orc@@QAEAAV01@AAH@Z" PURGE="4" COMMENT="" />
    <EXPORT ORDINAL="804" NAME="??5cFile@Orc@@QAEAAV01@AAI@Z" PURGE="4" COMMENT="" />
    <EXPORT ORDINAL="805" NAME="??5cFile@Orc@@QAEAAV01@AAM@Z" PURGE="4" COMMENT="" />
    <EXPORT ORDINAL="806" NAME="??5cFile@Orc@@QAEAAV01@AA_J@Z" PURGE="4" COMMENT="" />
    <EXPORT ORDINAL="807" NAME="??5cFile@Orc@@QAEAAV01@AA_K@Z" PURGE="4" COMMENT="" />
    <EXPORT ORDINAL="808" NAME="??6cFile@Orc@@QAEAAV01@D@Z" PURGE="4" COMMENT="" />
    <EXPORT ORDINAL="809" NAME="??6cFile@Orc@@QAEAAV01@E@Z" PURGE="4" COMMENT="" />
    <EXPORT ORDINAL="810" NAME="??6cFile@Orc@@QAEAAV01@F@Z" PURGE="4" COMMENT="" />
    <EXPORT ORDINAL="811" NAME="??6cFile@Orc@@QAEAAV01@G@Z" PURGE="4" COMMENT="" />
    <EXPORT ORDINAL="812" NAME="??6cFile@Orc@@QAEAAV01@H@Z" PURGE="4" COMMENT="" />
    <EXPORT ORDINAL="813" NAME="??6cFile@Orc@@QAEAAV01@I@Z" PURGE="4" COMMENT="" />
    <EXPORT ORDINAL="814" NAME="??6cFile@Orc@@QAEAAV01@M@Z" PURGE="4" COMMENT="" />
    <EXPORT ORDINAL="815" NAME="??6cFile@Orc@@QAEAAV01@_J@Z" PURGE="8" COMMENT="" />
    <EXPORT ORDINAL="816" NAME="??6cFile@Orc@@QAEAAV01@_K@Z" PURGE="8" COMMENT="" />
    <EXPORT ORDINAL="817" NAME="??8D3DXMATRIX@@QBEHABU0@@Z" PURGE="4" COMMENT="" />
    <EXPORT ORDINAL="818" NAME="??8D3DXPLANE@@QBEHABU0@@Z" PURGE="4" COMMENT="" />
    <EXPORT ORDINAL="819" NAME="??8D3DXVECTOR2@@QBEHABU0@@Z" PURGE="4" COMMENT="" />
    <EXPORT ORDINAL="820" NAME="??8D3DXVECTOR3@@QBEHABU0@@Z" PURGE="4" COMMENT="" />
    <EXPORT ORDINAL="821" NAME="??8D3DXVECTOR4@@QBEHABU0@@Z" PURGE="4" COMMENT="" />
    <EXPORT ORDINAL="822" NAME="??8MD5Hash@Orc@@QBE_NABV01@@Z" PURGE="4" COMMENT="" />
    <EXPORT ORDINAL="823" NAME="??8ParameterDef@Orc@@QAE_NABV01@@Z" PURGE="4" COMMENT="" />
    <EXPORT ORDINAL="824" NAME="??8TimerCycle@Orc@@QBE_NABV01@@Z" PURGE="4" COMMENT="" />
    <EXPORT ORDINAL="825" NAME="??8cCRC32@Orc@@QBE_NABV01@@Z" PURGE="4" COMMENT="" />
    <EXPORT ORDINAL="826" NAME="??8cPixelFormat@Orc@@QBE_NABV01@@Z" PURGE="4" COMMENT="" />
    <EXPORT ORDINAL="827" NAME="??9D3DXMATRIX@@QBEHABU0@@Z" PURGE="4" COMMENT="" />
    <EXPORT ORDINAL="828" NAME="??9D3DXPLANE@@QBEHABU0@@Z" PURGE="4" COMMENT="" />
    <EXPORT ORDINAL="829" NAME="??9D3DXVECTOR2@@QBEHABU0@@Z" PURGE="4" COMMENT="" />
    <EXPORT ORDINAL="830" NAME="??9D3DXVECTOR3@@QBEHABU0@@Z" PURGE="4" COMMENT="" />
    <EXPORT ORDINAL="831" NAME="??9D3DXVECTOR4@@QBEHABU0@@Z" PURGE="4" COMMENT="" />
    <EXPORT ORDINAL="832" NAME="??9MD5Hash@Orc@@QBE_NABV01@@Z" PURGE="4" COMMENT="" />
    <EXPORT ORDINAL="833" NAME="??9TimerCycle@Orc@@QBE_NABV01@@Z" PURGE="4" COMMENT="" />
    <EXPORT ORDINAL="834" NAME="??9cCRC32@Orc@@QBE_NABV01@@Z" PURGE="4" COMMENT="" />
    <EXPORT ORDINAL="835" NAME="??9cPixelFormat@Orc@@QBE_NABV01@@Z" PURGE="4" COMMENT="" />
    <EXPORT ORDINAL="836" NAME="??A?$basic_string@DV?$char_traits@D@stlp_std@@V?$memtrack_allocator@D$0IMHGPCA@@2@@stlp_std@@QAEAADI@Z" PURGE="4" COMMENT="" />
    <EXPORT ORDINAL="837" NAME="??A?$basic_string@DV?$char_traits@D@stlp_std@@V?$memtrack_allocator@D$0IMHGPCA@@2@@stlp_std@@QBEABDI@Z" PURGE="4" COMMENT="" />
    <EXPORT ORDINAL="838" NAME="??A?$basic_string@_WV?$char_traits@_W@stlp_std@@V?$memtrack_allocator@_W$0IMHGPCA@@2@@stlp_std@@QAEAA_WI@Z" PURGE="4" COMMENT="" />
    <EXPORT ORDINAL="839" NAME="??A?$basic_string@_WV?$char_traits@_W@stlp_std@@V?$memtrack_allocator@_W$0IMHGPCA@@2@@stlp_std@@QBEAB_WI@Z" PURGE="4" COMMENT="" />
    <EXPORT ORDINAL="840" NAME="??BD3DXMATRIX@@QAEPAMXZ" PURGE="0" COMMENT="" />
    <EXPORT ORDINAL="841" NAME="??BD3DXMATRIX@@QBEPBMXZ" PURGE="0" COMMENT="" />
    <EXPORT ORDINAL="842" NAME="??BD3DXPLANE@@QAEPAMXZ" PURGE="0" COMMENT="" />
    <EXPORT ORDINAL="843" NAME="??BD3DXPLANE@@QBEPBMXZ" PURGE="0" COMMENT="" />
    <EXPORT ORDINAL="844" NAME="??BD3DXVECTOR2@@QAEPAMXZ" PURGE="0" COMMENT="" />
    <EXPORT ORDINAL="845" NAME="??BD3DXVECTOR2@@QBEPBMXZ" PURGE="0" COMMENT="" />
    <EXPORT ORDINAL="846" NAME="??BD3DXVECTOR3@@QAEPAMXZ" PURGE="0" COMMENT="" />
    <EXPORT ORDINAL="847" NAME="??BD3DXVECTOR3@@QBEPBMXZ" PURGE="0" COMMENT="" />
    <EXPORT ORDINAL="848" NAME="??BD3DXVECTOR4@@QAEPAMXZ" PURGE="0" COMMENT="" />
    <EXPORT ORDINAL="849" NAME="??BD3DXVECTOR4@@QBEPBMXZ" PURGE="0" COMMENT="" />
    <EXPORT ORDINAL="850" NAME="??BString@Orc@@QBEPBDXZ" PURGE="0" COMMENT="" />
    <EXPORT ORDINAL="851" NAME="??BvarType@Orc@@QAEAAVIVarTable@1@XZ" PURGE="0" COMMENT="" />
    <EXPORT ORDINAL="852" NAME="??BvarType@Orc@@QBE?AVString@1@XZ" PURGE="4" COMMENT="" />
    <EXPORT ORDINAL="853" NAME="??BvarType@Orc@@QBEHXZ" PURGE="0" COMMENT="" />
    <EXPORT ORDINAL="854" NAME="??BvarType@Orc@@QBEIXZ" PURGE="0" COMMENT="" />
    <EXPORT ORDINAL="855" NAME="??BvarType@Orc@@QBEMXZ" PURGE="0" COMMENT="" />
    <EXPORT ORDINAL="856" NAME="??BvarType@Orc@@QBEPBDXZ" PURGE="0" COMMENT="" />
    <EXPORT ORDINAL="857" NAME="??DD3DXMATRIX@@QBE?AU0@ABU0@@Z" PURGE="8" COMMENT="" />
    <EXPORT ORDINAL="858" NAME="??DD3DXMATRIX@@QBE?AU0@M@Z" PURGE="8" COMMENT="" />
    <EXPORT ORDINAL="859" NAME="??DD3DXPLANE@@QBE?AU0@M@Z" PURGE="8" COMMENT="" />
    <EXPORT ORDINAL="860" NAME="??DD3DXVECTOR2@@QBE?AU0@M@Z" PURGE="8" COMMENT="" />
    <EXPORT ORDINAL="861" NAME="??DD3DXVECTOR3@@QBE?AU0@M@Z" PURGE="8" COMMENT="" />
    <EXPORT ORDINAL="862" NAME="??DD3DXVECTOR4@@QBE?AU0@M@Z" PURGE="8" COMMENT="" />
    <EXPORT ORDINAL="863" NAME="??DcRay@Orc@@QBE?AUD3DXVECTOR3@@M@Z" PURGE="8" COMMENT="" />
    <EXPORT ORDINAL="864" NAME="??GD3DXMATRIX@@QBE?AU0@ABU0@@Z" PURGE="8" COMMENT="" />
    <EXPORT ORDINAL="865" NAME="??GD3DXMATRIX@@QBE?AU0@XZ" PURGE="4" COMMENT="" />
    <EXPORT ORDINAL="866" NAME="??GD3DXPLANE@@QBE?AU0@XZ" PURGE="4" COMMENT="" />
    <EXPORT ORDINAL="867" NAME="??GD3DXVECTOR2@@QBE?AU0@ABU0@@Z" PURGE="8" COMMENT="" />
    <EXPORT ORDINAL="868" NAME="??GD3DXVECTOR2@@QBE?AU0@XZ" PURGE="4" COMMENT="" />
    <EXPORT ORDINAL="869" NAME="??GD3DXVECTOR3@@QBE?AU0@ABU0@@Z" PURGE="8" COMMENT="" />
    <EXPORT ORDINAL="870" NAME="??GD3DXVECTOR3@@QBE?AU0@XZ" PURGE="4" COMMENT="" />
    <EXPORT ORDINAL="871" NAME="??GD3DXVECTOR4@@QBE?AU0@ABU0@@Z" PURGE="8" COMMENT="" />
    <EXPORT ORDINAL="872" NAME="??GD3DXVECTOR4@@QBE?AU0@XZ" PURGE="4" COMMENT="" />
    <EXPORT ORDINAL="873" NAME="??GTimerCycle@Orc@@QBE?AV01@ABV01@@Z" PURGE="8" COMMENT="" />
    <EXPORT ORDINAL="874" NAME="??HD3DXMATRIX@@QBE?AU0@ABU0@@Z" PURGE="8" COMMENT="" />
    <EXPORT ORDINAL="875" NAME="??HD3DXMATRIX@@QBE?AU0@XZ" PURGE="4" COMMENT="" />
    <EXPORT ORDINAL="876" NAME="??HD3DXPLANE@@QBE?AU0@XZ" PURGE="4" COMMENT="" />
    <EXPORT ORDINAL="877" NAME="??HD3DXVECTOR2@@QBE?AU0@ABU0@@Z" PURGE="8" COMMENT="" />
    <EXPORT ORDINAL="878" NAME="??HD3DXVECTOR2@@QBE?AU0@XZ" PURGE="4" COMMENT="" />
    <EXPORT ORDINAL="879" NAME="??HD3DXVECTOR3@@QBE?AU0@ABU0@@Z" PURGE="8" COMMENT="" />
    <EXPORT ORDINAL="880" NAME="??HD3DXVECTOR3@@QBE?AU0@XZ" PURGE="4" COMMENT="" />
    <EXPORT ORDINAL="881" NAME="??HD3DXVECTOR4@@QBE?AU0@ABU0@@Z" PURGE="8" COMMENT="" />
    <EXPORT ORDINAL="882" NAME="??HD3DXVECTOR4@@QBE?AU0@XZ" PURGE="4" COMMENT="" />
    <EXPORT ORDINAL="883" NAME="??HTimerCycle@Orc@@QBE?AV01@ABV01@@Z" PURGE="8" COMMENT="" />
    <EXPORT ORDINAL="884" NAME="??KD3DXMATRIX@@QBE?AU0@M@Z" PURGE="8" COMMENT="" />
    <EXPORT ORDINAL="885" NAME="??KD3DXPLANE@@QBE?AU0@M@Z" PURGE="8" COMMENT="" />
    <EXPORT ORDINAL="886" NAME="??KD3DXVECTOR2@@QBE?AU0@M@Z" PURGE="8" COMMENT="" />
    <EXPORT ORDINAL="887" NAME="??KD3DXVECTOR3@@QBE?AU0@M@Z" PURGE="8" COMMENT="" />
    <EXPORT ORDINAL="888" NAME="??KD3DXVECTOR4@@QBE?AU0@M@Z" PURGE="8" COMMENT="" />
    <EXPORT ORDINAL="889" NAME="??MTimerCycle@Orc@@QBE_NABV01@@Z" PURGE="4" COMMENT="" />
    <EXPORT ORDINAL="890" NAME="??McResource@Orc@@UAE_NAAV01@@Z" PURGE="4" COMMENT="" />
    <EXPORT ORDINAL="891" NAME="??OTimerCycle@Orc@@QBE_NABV01@@Z" PURGE="4" COMMENT="" />
    <EXPORT ORDINAL="892" NAME="??RD3DXMATRIX@@QAEAAMII@Z" PURGE="8" COMMENT="" />
    <EXPORT ORDINAL="893" NAME="??RD3DXMATRIX@@QBEMII@Z" PURGE="8" COMMENT="" />
    <EXPORT ORDINAL="894" NAME="??XD3DXMATRIX@@QAEAAU0@ABU0@@Z" PURGE="4" COMMENT="" />
    <EXPORT ORDINAL="895" NAME="??XD3DXMATRIX@@QAEAAU0@M@Z" PURGE="4" COMMENT="" />
    <EXPORT ORDINAL="896" NAME="??XD3DXPLANE@@QAEAAU0@M@Z" PURGE="4" COMMENT="" />
    <EXPORT ORDINAL="897" NAME="??XD3DXVECTOR2@@QAEAAU0@M@Z" PURGE="4" COMMENT="" />
    <EXPORT ORDINAL="898" NAME="??XD3DXVECTOR3@@QAEAAU0@M@Z" PURGE="4" COMMENT="" />
    <EXPORT ORDINAL="899" NAME="??XD3DXVECTOR4@@QAEAAU0@M@Z" PURGE="4" COMMENT="" />
    <EXPORT ORDINAL="900" NAME="??Y?$basic_string@DV?$char_traits@D@stlp_std@@V?$memtrack_allocator@D$0IMHGPCA@@2@@stlp_std@@QAEAAV01@ABV01@@Z" PURGE="4" COMMENT="" />
    <EXPORT ORDINAL="901" NAME="??Y?$basic_string@DV?$char_traits@D@stlp_std@@V?$memtrack_allocator@D$0IMHGPCA@@2@@stlp_std@@QAEAAV01@D@Z" PURGE="4" COMMENT="" />
    <EXPORT ORDINAL="902" NAME="??Y?$basic_string@DV?$char_traits@D@stlp_std@@V?$memtrack_allocator@D$0IMHGPCA@@2@@stlp_std@@QAEAAV01@PBD@Z" PURGE="4" COMMENT="" />
    <EXPORT ORDINAL="903" NAME="??Y?$basic_string@_WV?$char_traits@_W@stlp_std@@V?$memtrack_allocator@_W$0IMHGPCA@@2@@stlp_std@@QAEAAV01@ABV01@@Z" PURGE="4" COMMENT="" />
    <EXPORT ORDINAL="904" NAME="??Y?$basic_string@_WV?$char_traits@_W@stlp_std@@V?$memtrack_allocator@_W$0IMHGPCA@@2@@stlp_std@@QAEAAV01@PB_W@Z" PURGE="4" COMMENT="" />
    <EXPORT ORDINAL="905" NAME="??Y?$basic_string@_WV?$char_traits@_W@stlp_std@@V?$memtrack_allocator@_W$0IMHGPCA@@2@@stlp_std@@QAEAAV01@_W@Z" PURGE="4" COMMENT="" />
    <EXPORT ORDINAL="906" NAME="??YD3DXMATRIX@@QAEAAU0@ABU0@@Z" PURGE="4" COMMENT="" />
    <EXPORT ORDINAL="907" NAME="??YD3DXVECTOR2@@QAEAAU0@ABU0@@Z" PURGE="4" COMMENT="" />
    <EXPORT ORDINAL="908" NAME="??YD3DXVECTOR3@@QAEAAU0@ABU0@@Z" PURGE="4" COMMENT="" />
    <EXPORT ORDINAL="909" NAME="??YD3DXVECTOR4@@QAEAAU0@ABU0@@Z" PURGE="4" COMMENT="" />
    <EXPORT ORDINAL="910" NAME="??YTimerCycle@Orc@@QAEAAV01@ABV01@@Z" PURGE="4" COMMENT="" />
    <EXPORT ORDINAL="911" NAME="??YcBoundingBox@Orc@@QAEAAV01@ABV01@@Z" PURGE="4" COMMENT="" />
    <EXPORT ORDINAL="912" NAME="??YcBoundingBoxAA@Orc@@QAEAAV01@ABV01@@Z" PURGE="4" COMMENT="" />
    <EXPORT ORDINAL="913" NAME="??ZD3DXMATRIX@@QAEAAU0@ABU0@@Z" PURGE="4" COMMENT="" />
    <EXPORT ORDINAL="914" NAME="??ZD3DXVECTOR2@@QAEAAU0@ABU0@@Z" PURGE="4" COMMENT="" />
    <EXPORT ORDINAL="915" NAME="??ZD3DXVECTOR3@@QAEAAU0@ABU0@@Z" PURGE="4" COMMENT="" />
    <EXPORT ORDINAL="916" NAME="??ZD3DXVECTOR4@@QAEAAU0@ABU0@@Z" PURGE="4" COMMENT="" />
    <EXPORT ORDINAL="917" NAME="??ZTimerCycle@Orc@@QAEAAV01@ABV01@@Z" PURGE="4" COMMENT="" />
    <EXPORT ORDINAL="918" NAME="??_0D3DXMATRIX@@QAEAAU0@M@Z" PURGE="4" COMMENT="" />
    <EXPORT ORDINAL="919" NAME="??_0D3DXPLANE@@QAEAAU0@M@Z" PURGE="4" COMMENT="" />
    <EXPORT ORDINAL="920" NAME="??_0D3DXVECTOR2@@QAEAAU0@M@Z" PURGE="4" COMMENT="" />
    <EXPORT ORDINAL="921" NAME="??_0D3DXVECTOR3@@QAEAAU0@M@Z" PURGE="4" COMMENT="" />
    <EXPORT ORDINAL="922" NAME="??_0D3DXVECTOR4@@QAEAAU0@M@Z" PURGE="4" COMMENT="" />
    <EXPORT ORDINAL="923" NAME="??_7?$Base_configurable@H@Orc@@6B@" PURGE="-1" COMMENT="" />
    <EXPORT ORDINAL="924" NAME="??_7?$Base_configurable@M@Orc@@6B@" PURGE="-1" COMMENT="" />
    <EXPORT ORDINAL="925" NAME="??_7?$Base_configurable@_N@Orc@@6B@" PURGE="-1" COMMENT="" />
    <EXPORT ORDINAL="926" NAME="??_7?$Configurable@H@Orc@@6B@" PURGE="-1" COMMENT="" />
    <EXPORT ORDINAL="927" NAME="??_7?$Configurable@M@Orc@@6B@" PURGE="-1" COMMENT="" />
    <EXPORT ORDINAL="928" NAME="??_7?$Configurable@_N@Orc@@6B@" PURGE="-1" COMMENT="" />
    <EXPORT ORDINAL="929" NAME="??_7?$FactoryObj@ViArchive@Orc@@@Orc@@6B@" PURGE="-1" COMMENT="" />
    <EXPORT ORDINAL="930" NAME="??_7?$FactoryObj@ViCodec@Orc@@@Orc@@6B@" PURGE="-1" COMMENT="" />
    <EXPORT ORDINAL="931" NAME="??_7?$FactoryObj@ViMovie@Orc@@@Orc@@6B@" PURGE="-1" COMMENT="" />
    <EXPORT ORDINAL="932" NAME="??_7?$FactoryObj@ViSoundSystem@Orc@@@Orc@@6B@" PURGE="-1" COMMENT="" />
    <EXPORT ORDINAL="933" NAME="??_7ArchiveFactory@Orc@@6B@" PURGE="-1" COMMENT="" />
    <EXPORT ORDINAL="934" NAME="??_7ArchiveManager@Orc@@6B@" PURGE="-1" COMMENT="" />
    <EXPORT ORDINAL="935" NAME="??_7CmdAngle@EmitterCommands@Orc@@6B@" PURGE="-1" COMMENT="" />
    <EXPORT ORDINAL="936" NAME="??_7CmdAngleMax@EmitterCommands@Orc@@6B@" PURGE="-1" COMMENT="" />
    <EXPORT ORDINAL="937" NAME="??_7CmdAnimFrames@EmitterCommands@Orc@@6B@" PURGE="-1" COMMENT="" />
    <EXPORT ORDINAL="938" NAME="??_7CmdAnimSpeed@EmitterCommands@Orc@@6B@" PURGE="-1" COMMENT="" />
    <EXPORT ORDINAL="939" NAME="??_7CmdBrightness@EmitterCommands@Orc@@6B@" PURGE="-1" COMMENT="" />
    <EXPORT ORDINAL="940" NAME="??_7CmdCentered@EmitterCommands@Orc@@6B@" PURGE="-1" COMMENT="" />
    <EXPORT ORDINAL="941" NAME="??_7CmdDirection@EmitterCommands@Orc@@6B@" PURGE="-1" COMMENT="" />
    <EXPORT ORDINAL="942" NAME="??_7CmdEmissionAngle@EmitterCommands@Orc@@6B@" PURGE="-1" COMMENT="" />
    <EXPORT ORDINAL="943" NAME="??_7CmdEmissionAngleMin@EmitterCommands@Orc@@6B@" PURGE="-1" COMMENT="" />
    <EXPORT ORDINAL="944" NAME="??_7CmdEmissionRate@EmitterCommands@Orc@@6B@" PURGE="-1" COMMENT="" />
    <EXPORT ORDINAL="945" NAME="??_7CmdEmitAndDisable@EmitterCommands@Orc@@6B@" PURGE="-1" COMMENT="" />
    <EXPORT ORDINAL="946" NAME="??_7CmdIntenseFlag@EmitterCommands@Orc@@6B@" PURGE="-1" COMMENT="" />
    <EXPORT ORDINAL="947" NAME="??_7CmdMaterial@EmitterCommands@Orc@@6B@" PURGE="-1" COMMENT="" />
    <EXPORT ORDINAL="948" NAME="??_7CmdMaxDuration@EmitterCommands@Orc@@6B@" PURGE="-1" COMMENT="" />
    <EXPORT ORDINAL="949" NAME="??_7CmdMaxRepeatDelay@EmitterCommands@Orc@@6B@" PURGE="-1" COMMENT="" />
    <EXPORT ORDINAL="950" NAME="??_7CmdMaxStartDelay@EmitterCommands@Orc@@6B@" PURGE="-1" COMMENT="" />
    <EXPORT ORDINAL="951" NAME="??_7CmdMaxTTL@EmitterCommands@Orc@@6B@" PURGE="-1" COMMENT="" />
    <EXPORT ORDINAL="952" NAME="??_7CmdMaxVelocity@EmitterCommands@Orc@@6B@" PURGE="-1" COMMENT="" />
    <EXPORT ORDINAL="953" NAME="??_7CmdMinDuration@EmitterCommands@Orc@@6B@" PURGE="-1" COMMENT="" />
    <EXPORT ORDINAL="954" NAME="??_7CmdMinRepeatDelay@EmitterCommands@Orc@@6B@" PURGE="-1" COMMENT="" />
    <EXPORT ORDINAL="955" NAME="??_7CmdMinStartDelay@EmitterCommands@Orc@@6B@" PURGE="-1" COMMENT="" />
    <EXPORT ORDINAL="956" NAME="??_7CmdMinTTL@EmitterCommands@Orc@@6B@" PURGE="-1" COMMENT="" />
    <EXPORT ORDINAL="957" NAME="??_7CmdMinVelocity@EmitterCommands@Orc@@6B@" PURGE="-1" COMMENT="" />
    <EXPORT ORDINAL="958" NAME="??_7CmdOnEmitter@AffectorCommands@Orc@@6B@" PURGE="-1" COMMENT="" />
    <EXPORT ORDINAL="959" NAME="??_7CmdPerspective@EmitterCommands@Orc@@6B@" PURGE="-1" COMMENT="" />
    <EXPORT ORDINAL="960" NAME="??_7CmdPosition@EmitterCommands@Orc@@6B@" PURGE="-1" COMMENT="" />
    <EXPORT ORDINAL="961" NAME="??_7CmdRepeatDelay@EmitterCommands@Orc@@6B@" PURGE="-1" COMMENT="" />
    <EXPORT ORDINAL="962" NAME="??_7CmdSize@EmitterCommands@Orc@@6B@" PURGE="-1" COMMENT="" />
    <EXPORT ORDINAL="963" NAME="??_7CmdSizeMax@EmitterCommands@Orc@@6B@" PURGE="-1" COMMENT="" />
    <EXPORT ORDINAL="964" NAME="??_7CmdStreakLength@EmitterCommands@Orc@@6B@" PURGE="-1" COMMENT="" />
    <EXPORT ORDINAL="965" NAME="??_7CmdStreakSize@EmitterCommands@Orc@@6B@" PURGE="-1" COMMENT="" />
    <EXPORT ORDINAL="966" NAME="??_7CodecFactory@Orc@@6B@" PURGE="-1" COMMENT="" />
    <EXPORT ORDINAL="967" NAME="??_7CodecManager@Orc@@6B@" PURGE="-1" COMMENT="" />
    <EXPORT ORDINAL="968" NAME="??_7ConfigDialog@Orc@@6B@" PURGE="-1" COMMENT="" />
    <EXPORT ORDINAL="969" NAME="??_7DirectoryMonitorTask@Orc@@6B@" PURGE="-1" COMMENT="" />
    <EXPORT ORDINAL="970" NAME="??_7ErrorDialog@Orc@@6B@" PURGE="-1" COMMENT="" />
    <EXPORT ORDINAL="971" NAME="??_7FrameListener@Orc@@6B@" PURGE="-1" COMMENT="" />
    <EXPORT ORDINAL="972" NAME="??_7InputReader@Orc@@6B@" PURGE="-1" COMMENT="" />
    <EXPORT ORDINAL="973" NAME="??_7Log@Orc@@6B@" PURGE="-1" COMMENT="" />
    <EXPORT ORDINAL="974" NAME="??_7MovieFactory@Orc@@6B@" PURGE="-1" COMMENT="" />
    <EXPORT ORDINAL="975" NAME="??_7MovieManager@Orc@@6B@" PURGE="-1" COMMENT="" />
    <EXPORT ORDINAL="976" NAME="??_7ParamCommand@Orc@@6B@" PURGE="-1" COMMENT="" />
    <EXPORT ORDINAL="977" NAME="??_7ParticleAffector@Orc@@6B@" PURGE="-1" COMMENT="" />
    <EXPORT ORDINAL="978" NAME="??_7ParticleAffectorFactory@Orc@@6B@" PURGE="-1" COMMENT="" />
    <EXPORT ORDINAL="979" NAME="??_7ParticleEmitter@Orc@@6B@" PURGE="-1" COMMENT="" />
    <EXPORT ORDINAL="980" NAME="??_7ParticleEmitterFactory@Orc@@6B@" PURGE="-1" COMMENT="" />
    <EXPORT ORDINAL="981" NAME="??_7ParticleSystem@Orc@@6B@" PURGE="-1" COMMENT="" />
    <EXPORT ORDINAL="982" NAME="??_7ParticleSystemMgr@Orc@@6B@" PURGE="-1" COMMENT="" />
    <EXPORT ORDINAL="983" NAME="??_7RenderSystem@Orc@@6B@" PURGE="-1" COMMENT="" />
    <EXPORT ORDINAL="984" NAME="??_7SoundSystemFactory@Orc@@6B@" PURGE="-1" COMMENT="" />
    <EXPORT ORDINAL="985" NAME="??_7SoundSystemManager@Orc@@6B@" PURGE="-1" COMMENT="" />
    <EXPORT ORDINAL="986" NAME="??_7SplashDialog@Orc@@6B@" PURGE="-1" COMMENT="" />
    <EXPORT ORDINAL="987" NAME="??_7Storable_configurable@Orc@@6B@" PURGE="-1" COMMENT="" />
    <EXPORT ORDINAL="988" NAME="??_7StringInterface@Orc@@6B@" PURGE="-1" COMMENT="" />
    <EXPORT ORDINAL="989" NAME="??_7ThreadTask@Orc@@6B@" PURGE="-1" COMMENT="" />
    <EXPORT ORDINAL="990" NAME="??_7cCodecHuffman@Orc@@6B@" PURGE="-1" COMMENT="" />
    <EXPORT ORDINAL="991" NAME="??_7cCodecLZ77@Orc@@6B@" PURGE="-1" COMMENT="" />
    <EXPORT ORDINAL="992" NAME="??_7cCodecLZW@Orc@@6B@" PURGE="-1" COMMENT="" />
    <EXPORT ORDINAL="993" NAME="??_7cCodecMTF@Orc@@6B@" PURGE="-1" COMMENT="" />
    <EXPORT ORDINAL="994" NAME="??_7cCodecZIP@Orc@@6B@" PURGE="-1" COMMENT="" />
    <EXPORT ORDINAL="995" NAME="??_7cCommand@Orc@@6B@" PURGE="-1" COMMENT="" />
    <EXPORT ORDINAL="996" NAME="??_7cFile@Orc@@6B@" PURGE="-1" COMMENT="" />
    <EXPORT ORDINAL="997" NAME="??_7cFileBit@Orc@@6B@" PURGE="-1" COMMENT="" />
    <EXPORT ORDINAL="998" NAME="??_7cFileBitOld@Orc@@6B@" PURGE="-1" COMMENT="" />
    <EXPORT ORDINAL="999" NAME="??_7cFileCached@Orc@@6B@" PURGE="-1" COMMENT="" />
    <EXPORT ORDINAL="1000" NAME="??_7cFileDisk@Orc@@6B@" PURGE="-1" COMMENT="" />
    <EXPORT ORDINAL="1001" NAME="??_7cFileMem@Orc@@6B@" PURGE="-1" COMMENT="" />
    <EXPORT ORDINAL="1002" NAME="??_7cFileTempMem@Orc@@6B@" PURGE="-1" COMMENT="" />
    <EXPORT ORDINAL="1003" NAME="??_7cIO_bmp@Orc@@6B@" PURGE="-1" COMMENT="" />
    <EXPORT ORDINAL="1004" NAME="??_7cIO_dds@Orc@@6B@" PURGE="-1" COMMENT="" />
    <EXPORT ORDINAL="1005" NAME="??_7cIO_ico@Orc@@6B@" PURGE="-1" COMMENT="" />
    <EXPORT ORDINAL="1006" NAME="??_7cIO_jpg@Orc@@6B@" PURGE="-1" COMMENT="" />
    <EXPORT ORDINAL="1007" NAME="??_7cIO_pcx@Orc@@6B@" PURGE="-1" COMMENT="" />
    <EXPORT ORDINAL="1008" NAME="??_7cIO_tga@Orc@@6B@" PURGE="-1" COMMENT="" />
    <EXPORT ORDINAL="1009" NAME="??_7cMacroCommand@Orc@@6B@" PURGE="-1" COMMENT="" />
    <EXPORT ORDINAL="1010" NAME="??_7cObserver@Orc@@6B@" PURGE="-1" COMMENT="" />
    <EXPORT ORDINAL="1011" NAME="??_7cResource@Orc@@6B@" PURGE="-1" COMMENT="" />
    <EXPORT ORDINAL="1012" NAME="??_7cResourceManager@Orc@@6B@" PURGE="-1" COMMENT="" />
    <EXPORT ORDINAL="1013" NAME="??_7cSubject@Orc@@6B@" PURGE="-1" COMMENT="" />
    <EXPORT ORDINAL="1014" NAME="??_7cTableManager@Orc@@6B@" PURGE="-1" COMMENT="" />
    <EXPORT ORDINAL="1015" NAME="??_7cVarTable@Orc@@6B@" PURGE="-1" COMMENT="" />
    <EXPORT ORDINAL="1016" NAME="??_7iArchive@Orc@@6B@" PURGE="-1" COMMENT="" />
    <EXPORT ORDINAL="1017" NAME="??_7iCodec@Orc@@6B@" PURGE="-1" COMMENT="" />
    <EXPORT ORDINAL="1018" NAME="??_7iImageIO@Orc@@6B@" PURGE="-1" COMMENT="" />
    <EXPORT ORDINAL="1019" NAME="??_7iMovie@Orc@@6B@" PURGE="-1" COMMENT="" />
    <EXPORT ORDINAL="1020" NAME="??_7iQueuedTask@Orc@@6B@" PURGE="-1" COMMENT="" />
    <EXPORT ORDINAL="1021" NAME="??_7iQueuedThread@Orc@@6B@" PURGE="-1" COMMENT="" />
    <EXPORT ORDINAL="1022" NAME="??_7iSound3DStereo@Orc@@6B@" PURGE="-1" COMMENT="" />
    <EXPORT ORDINAL="1023" NAME="??_7iSound3DSubwoofer@Orc@@6B@" PURGE="-1" COMMENT="" />
    <EXPORT ORDINAL="1024" NAME="??_7iSoundChannel@Orc@@6B@" PURGE="-1" COMMENT="" />
    <EXPORT ORDINAL="1025" NAME="??_7iSoundClip@Orc@@6B@" PURGE="-1" COMMENT="" />
    <EXPORT ORDINAL="1026" NAME="??_7iSoundSystem@Orc@@6B@" PURGE="-1" COMMENT="" />
    <EXPORT ORDINAL="1027" NAME="??_7iSoundVorbis@Orc@@6B@" PURGE="-1" COMMENT="" />
    <EXPORT ORDINAL="1028" NAME="??_7iThread@Orc@@6B@" PURGE="-1" COMMENT="" />
    <EXPORT ORDINAL="1029" NAME="??_B?1??Instance@ConsoleVar@Orc@@SAAAV12@XZ@51" PURGE="-1" COMMENT="" />
    <EXPORT ORDINAL="1030" NAME="??_B?1??getParameters@StringInterface@Orc@@QAEABV?$vector@VParameterDef@Orc@@V?$allocator@VParameterDef@Orc@@@stlp_std@@@stlp_std@@XZ@51" PURGE="-1" COMMENT="" />
    <EXPORT ORDINAL="1031" NAME="??_F?$basic_string@DV?$char_traits@D@stlp_std@@V?$memtrack_allocator@D$0IMHGPCA@@2@@stlp_std@@QAEXXZ" PURGE="0" COMMENT="" />
    <EXPORT ORDINAL="1032" NAME="??_F?$basic_string@_WV?$char_traits@_W@stlp_std@@V?$memtrack_allocator@_W$0IMHGPCA@@2@@stlp_std@@QAEXXZ" PURGE="0" COMMENT="" />
    <EXPORT ORDINAL="1033" NAME="??_FBuildDate@Orc@@QAEXXZ" PURGE="0" COMMENT="" />
    <EXPORT ORDINAL="1034" NAME="??_FRoot@Orc@@QAEXXZ" PURGE="0" COMMENT="" />
    <EXPORT ORDINAL="1035" NAME="??_FcBoundingBox@Orc@@QAEXXZ" PURGE="0" COMMENT="" />
    <EXPORT ORDINAL="1036" NAME="??_FcCritical@Orc@@QAEXXZ" PURGE="0" COMMENT="" />
    <EXPORT ORDINAL="1037" NAME="??_FcGate@Orc@@QAEXXZ" PURGE="0" COMMENT="" />
    <EXPORT ORDINAL="1038" NAME="??_FcMutex@Orc@@QAEXXZ" PURGE="0" COMMENT="" />
    <EXPORT ORDINAL="1039" NAME="??_FcPixelFormat@Orc@@QAEXXZ" PURGE="0" COMMENT="" />
    <EXPORT ORDINAL="1040" NAME="??_FcResourceManager@Orc@@QAEXXZ" PURGE="0" COMMENT="" />
    <EXPORT ORDINAL="1041" NAME="??_FcSemaphore@Orc@@QAEXXZ" PURGE="0" COMMENT="" />
    <EXPORT ORDINAL="1042" NAME="??_FcSignal@Orc@@QAEXXZ" PURGE="0" COMMENT="" />
    <EXPORT ORDINAL="1043" NAME="??_FiThread@Orc@@QAEXXZ" PURGE="0" COMMENT="" />
    <EXPORT ORDINAL="1044" NAME="?AddListener@cTableManager@Orc@@UAEXP6AXABUsMsgNotify@2@@ZPAXPAVIVarTable@2@@Z" PURGE="12" COMMENT="" />
    <EXPORT ORDINAL="1045" NAME="?AddRef@cVarTable@Orc@@UBEXXZ" PURGE="0" COMMENT="" />
    <EXPORT ORDINAL="1046" NAME="?AddString@cCodecLZ77@Orc@@AAEHHPAH@Z" PURGE="8" COMMENT="" />
    <EXPORT ORDINAL="1047" NAME="?CRC32Table@cCRC32@Orc@@2PAIA" PURGE="-1" COMMENT="" />
    <EXPORT ORDINAL="1048" NAME="?CalcKey@cVarTable@Orc@@SAIPBD@Z" PURGE="0" COMMENT="" />
    <EXPORT ORDINAL="1049" NAME="?Clear@cVarTable@Orc@@QAEXXZ" PURGE="0" COMMENT="" />
    <EXPORT ORDINAL="1050" NAME="?Code@cCodecMulti@Orc@@AAE_NAAVcFile@2@0HHP8iCodec@2@AA_N00ZZ@Z" PURGE="20" COMMENT="" />
    <EXPORT ORDINAL="1051" NAME="?ContractNode@cCodecLZ77@Orc@@AAEXHH@Z" PURGE="8" COMMENT="" />
    <EXPORT ORDINAL="1052" NAME="?CopyValue@cTableManager@Orc@@QAE?AUvarType@2@ABU32@@Z" PURGE="8" COMMENT="" />
    <EXPORT ORDINAL="1053" NAME="?Create@cTableManager@Orc@@QAEAAVcVarTable@2@PBD@Z" PURGE="4" COMMENT="" />
    <EXPORT ORDINAL="1054" NAME="?CreateSubTable@cVarTable@Orc@@UAEAAVIVarTable@2@UvarType@2@@Z" PURGE="8" COMMENT="" />
    <EXPORT ORDINAL="1055" NAME="?DeleteString@cCodecLZ77@Orc@@AAEXH@Z" PURGE="4" COMMENT="" />
    <EXPORT ORDINAL="1056" NAME="?DeserializeTemplates@ParticleSystemMgr@Orc@@QAE_NVString@2@@Z" PURGE="24" COMMENT="" />
    <EXPORT ORDINAL="1057" NAME="?Find@cVarTable@Orc@@ABEHI@Z" PURGE="4" COMMENT="" />
    <EXPORT ORDINAL="1058" NAME="?FindNextNode@cCodecLZ77@Orc@@AAEHH@Z" PURGE="4" COMMENT="" />
    <EXPORT ORDINAL="1059" NAME="?FlushFreelist@cTableManager@Orc@@AAEXXZ" PURGE="0" COMMENT="" />
    <EXPORT ORDINAL="1060" NAME="?FreeValue@cTableManager@Orc@@QAEXAAUvarType@2@@Z" PURGE="4" COMMENT="" />
    <EXPORT ORDINAL="1061" NAME="?Get@cVarTable@Orc@@UBE?AUvarType@2@U32@0@Z" PURGE="20" COMMENT="" />
    <EXPORT ORDINAL="1062" NAME="?GetManager@cVarTable@Orc@@UAEAAVITableManager@2@XZ" PURGE="0" COMMENT="" />
    <EXPORT ORDINAL="1063" NAME="?HTSupported@ProcessorInfo@Orc@@CA_NXZ" PURGE="0" COMMENT="" />
    <EXPORT ORDINAL="1064" NAME="?Init@cMersenneTwister@Orc@@QAEXI@Z" PURGE="4" COMMENT="" />
    <EXPORT ORDINAL="1065" NAME="?InitTree@cCodecLZ77@Orc@@AAEXH@Z" PURGE="4" COMMENT="" />
    <EXPORT ORDINAL="1066" NAME="?InitializeDictionary@cCodecLZW@Orc@@IAEXXZ" PURGE="0" COMMENT="" />
    <EXPORT ORDINAL="1067" NAME="?InitializeStorage@cCodecLZW@Orc@@IAEXXZ" PURGE="0" COMMENT="" />
    <EXPORT ORDINAL="1068" NAME="?Instance@?$tSingleton@VArchiveManager@Orc@@@Orc@@SAAAVArchiveManager@2@XZ" PURGE="0" COMMENT="" />
    <EXPORT ORDINAL="1069" NAME="?Instance@?$tSingleton@VCodecManager@Orc@@@Orc@@SAAAVCodecManager@2@XZ" PURGE="0" COMMENT="" />
    <EXPORT ORDINAL="1070" NAME="?Instance@?$tSingleton@VDeprecationMgr@Orc@@@Orc@@SAAAVDeprecationMgr@2@XZ" PURGE="0" COMMENT="" />
    <EXPORT ORDINAL="1071" NAME="?Instance@?$tSingleton@VLogManager@Orc@@@Orc@@SAAAVLogManager@2@XZ" PURGE="0" COMMENT="" />
    <EXPORT ORDINAL="1072" NAME="?Instance@?$tSingleton@VMovieManager@Orc@@@Orc@@SAAAVMovieManager@2@XZ" PURGE="0" COMMENT="" />
    <EXPORT ORDINAL="1073" NAME="?Instance@?$tSingleton@VParticleSystemMgr@Orc@@@Orc@@SAAAVParticleSystemMgr@2@XZ" PURGE="0" COMMENT="" />
    <EXPORT ORDINAL="1074" NAME="?Instance@?$tSingleton@VPlatformManager@Orc@@@Orc@@SAAAVPlatformManager@2@XZ" PURGE="0" COMMENT="" />
    <EXPORT ORDINAL="1075" NAME="?Instance@?$tSingleton@VProcessorInfo@Orc@@@Orc@@SAAAVProcessorInfo@2@XZ" PURGE="0" COMMENT="" />
    <EXPORT ORDINAL="1076" NAME="?Instance@?$tSingleton@VProfileManager@Orc@@@Orc@@SAAAVProfileManager@2@XZ" PURGE="0" COMMENT="" />
    <EXPORT ORDINAL="1077" NAME="?Instance@?$tSingleton@VQueuedTaskMgr@Orc@@@Orc@@SAAAVQueuedTaskMgr@2@XZ" PURGE="0" COMMENT="" />
    <EXPORT ORDINAL="1078" NAME="?Instance@?$tSingleton@VRoot@Orc@@@Orc@@SAAAVRoot@2@XZ" PURGE="0" COMMENT="" />
    <EXPORT ORDINAL="1079" NAME="?Instance@?$tSingleton@VSoundSystemManager@Orc@@@Orc@@SAAAVSoundSystemManager@2@XZ" PURGE="0" COMMENT="" />
    <EXPORT ORDINAL="1080" NAME="?Instance@?$tSingleton@VcTableManager@Orc@@@Orc@@SAAAVcTableManager@2@XZ" PURGE="0" COMMENT="" />
    <EXPORT ORDINAL="1081" NAME="?Instance@ArchiveManager@Orc@@SAAAV12@XZ" PURGE="0" COMMENT="" />
    <EXPORT ORDINAL="1082" NAME="?Instance@CodecManager@Orc@@SAAAV12@XZ" PURGE="0" COMMENT="" />
    <EXPORT ORDINAL="1083" NAME="?Instance@ConsoleVar@Orc@@SAAAV12@XZ" PURGE="0" COMMENT="" />
    <EXPORT ORDINAL="1084" NAME="?Instance@LogManager@Orc@@SAAAV12@XZ" PURGE="0" COMMENT="" />
    <EXPORT ORDINAL="1085" NAME="?Instance@ParticleSystemMgr@Orc@@SAAAV12@XZ" PURGE="0" COMMENT="" />
    <EXPORT ORDINAL="1086" NAME="?Instance@PlatformManager@Orc@@SAAAV12@XZ" PURGE="0" COMMENT="" />
    <EXPORT ORDINAL="1087" NAME="?Instance@Root@Orc@@SAAAV12@XZ" PURGE="0" COMMENT="" />
    <EXPORT ORDINAL="1088" NAME="?Instance@SoundSystemManager@Orc@@SAAAV12@XZ" PURGE="0" COMMENT="" />
    <EXPORT ORDINAL="1089" NAME="?InstanceActive@?$tSingleton@VArchiveManager@Orc@@@Orc@@SA_NXZ" PURGE="0" COMMENT="" />
    <EXPORT ORDINAL="1090" NAME="?InstanceActive@?$tSingleton@VCodecManager@Orc@@@Orc@@SA_NXZ" PURGE="0" COMMENT="" />
    <EXPORT ORDINAL="1091" NAME="?InstanceActive@?$tSingleton@VDeprecationMgr@Orc@@@Orc@@SA_NXZ" PURGE="0" COMMENT="" />
    <EXPORT ORDINAL="1092" NAME="?InstanceActive@?$tSingleton@VLogManager@Orc@@@Orc@@SA_NXZ" PURGE="0" COMMENT="" />
    <EXPORT ORDINAL="1093" NAME="?InstanceActive@?$tSingleton@VMovieManager@Orc@@@Orc@@SA_NXZ" PURGE="0" COMMENT="" />
    <EXPORT ORDINAL="1094" NAME="?InstanceActive@?$tSingleton@VParticleSystemMgr@Orc@@@Orc@@SA_NXZ" PURGE="0" COMMENT="" />
    <EXPORT ORDINAL="1095" NAME="?InstanceActive@?$tSingleton@VPlatformManager@Orc@@@Orc@@SA_NXZ" PURGE="0" COMMENT="" />
    <EXPORT ORDINAL="1096" NAME="?InstanceActive@?$tSingleton@VProcessorInfo@Orc@@@Orc@@SA_NXZ" PURGE="0" COMMENT="" />
    <EXPORT ORDINAL="1097" NAME="?InstanceActive@?$tSingleton@VProfileManager@Orc@@@Orc@@SA_NXZ" PURGE="0" COMMENT="" />
    <EXPORT ORDINAL="1098" NAME="?InstanceActive@?$tSingleton@VQueuedTaskMgr@Orc@@@Orc@@SA_NXZ" PURGE="0" COMMENT="" />
    <EXPORT ORDINAL="1099" NAME="?InstanceActive@?$tSingleton@VRoot@Orc@@@Orc@@SA_NXZ" PURGE="0" COMMENT="" />
    <EXPORT ORDINAL="1100" NAME="?InstanceActive@?$tSingleton@VSoundSystemManager@Orc@@@Orc@@SA_NXZ" PURGE="0" COMMENT="" />
    <EXPORT ORDINAL="1101" NAME="?InstanceActive@?$tSingleton@VcTableManager@Orc@@@Orc@@SA_NXZ" PURGE="0" COMMENT="" />
    <EXPORT ORDINAL="1102" NAME="?InstancePtr@?$tSingleton@VArchiveManager@Orc@@@Orc@@SAPAVArchiveManager@2@XZ" PURGE="0" COMMENT="" />
    <EXPORT ORDINAL="1103" NAME="?InstancePtr@?$tSingleton@VCodecManager@Orc@@@Orc@@SAPAVCodecManager@2@XZ" PURGE="0" COMMENT="" />
    <EXPORT ORDINAL="1104" NAME="?InstancePtr@?$tSingleton@VDeprecationMgr@Orc@@@Orc@@SAPAVDeprecationMgr@2@XZ" PURGE="0" COMMENT="" />
    <EXPORT ORDINAL="1105" NAME="?InstancePtr@?$tSingleton@VLogManager@Orc@@@Orc@@SAPAVLogManager@2@XZ" PURGE="0" COMMENT="" />
    <EXPORT ORDINAL="1106" NAME="?InstancePtr@?$tSingleton@VMovieManager@Orc@@@Orc@@SAPAVMovieManager@2@XZ" PURGE="0" COMMENT="" />
    <EXPORT ORDINAL="1107" NAME="?InstancePtr@?$tSingleton@VParticleSystemMgr@Orc@@@Orc@@SAPAVParticleSystemMgr@2@XZ" PURGE="0" COMMENT="" />
    <EXPORT ORDINAL="1108" NAME="?InstancePtr@?$tSingleton@VPlatformManager@Orc@@@Orc@@SAPAVPlatformManager@2@XZ" PURGE="0" COMMENT="" />
    <EXPORT ORDINAL="1109" NAME="?InstancePtr@?$tSingleton@VProcessorInfo@Orc@@@Orc@@SAPAVProcessorInfo@2@XZ" PURGE="0" COMMENT="" />
    <EXPORT ORDINAL="1110" NAME="?InstancePtr@?$tSingleton@VProfileManager@Orc@@@Orc@@SAPAVProfileManager@2@XZ" PURGE="0" COMMENT="" />
    <EXPORT ORDINAL="1111" NAME="?InstancePtr@?$tSingleton@VQueuedTaskMgr@Orc@@@Orc@@SAPAVQueuedTaskMgr@2@XZ" PURGE="0" COMMENT="" />
    <EXPORT ORDINAL="1112" NAME="?InstancePtr@?$tSingleton@VRoot@Orc@@@Orc@@SAPAVRoot@2@XZ" PURGE="0" COMMENT="" />
    <EXPORT ORDINAL="1113" NAME="?InstancePtr@?$tSingleton@VSoundSystemManager@Orc@@@Orc@@SAPAVSoundSystemManager@2@XZ" PURGE="0" COMMENT="" />
    <EXPORT ORDINAL="1114" NAME="?InstancePtr@?$tSingleton@VcTableManager@Orc@@@Orc@@SAPAVcTableManager@2@XZ" PURGE="0" COMMENT="" />
    <EXPORT ORDINAL="1115" NAME="?InstancePtr@ConsoleVar@Orc@@SAPAV12@XZ" PURGE="0" COMMENT="" />
    <EXPORT ORDINAL="1116" NAME="?ItemChange@cTableManager@Orc@@QAEXABVcVarTable@2@AAUKeyVal@32@ABUvarType@2@W4eMsgMode@12@P6AXABUsMsgNotify@2@@Z@Z" PURGE="20" COMMENT="" />
    <EXPORT ORDINAL="1117" NAME="?KeyFromVarType@cVarTable@Orc@@CA?AUsKey@12@UvarType@2@@Z" PURGE="0" COMMENT="" />
    <EXPORT ORDINAL="1118" NAME="?Load@cMersenneTwister@Orc@@QAEXPAI@Z" PURGE="4" COMMENT="" />
    <EXPORT ORDINAL="1119" NAME="?MD5Decode@cMD5@Orc@@AAEXPAIPAEI@Z" PURGE="12" COMMENT="" />
    <EXPORT ORDINAL="1120" NAME="?MD5Encode@cMD5@Orc@@AAEXPAEPAII@Z" PURGE="12" COMMENT="" />
    <EXPORT ORDINAL="1121" NAME="?MD5Transform@cMD5@Orc@@AAEXQAIQAE@Z" PURGE="8" COMMENT="" />
    <EXPORT ORDINAL="1122" NAME="?MD5memcpy@cMD5@Orc@@AAEXPAE0I@Z" PURGE="12" COMMENT="" />
    <EXPORT ORDINAL="1123" NAME="?MemoryLoad@cMersenneTwister@Orc@@QAEXPAD@Z" PURGE="4" COMMENT="" />
    <EXPORT ORDINAL="1124" NAME="?MemorySave@cMersenneTwister@Orc@@QBEXPAD@Z" PURGE="4" COMMENT="" />
    <EXPORT ORDINAL="1125" NAME="?MemorySaveSize@cMersenneTwister@Orc@@SAHXZ" PURGE="0" COMMENT="" />
    <EXPORT ORDINAL="1126" NAME="?NotifyCheck@cTableManager@Orc@@CA_NAAUsNotifyClient@12@P6AXABUsMsgNotify@2@@ZABVIVarTable@2@@Z" PURGE="0" COMMENT="" />
    <EXPORT ORDINAL="1127" NAME="?PostCommand@cVarTable@Orc@@UAEXUvarType@2@P6AXABUsMsgNotify@2@@Z@Z" PURGE="12" COMMENT="" />
    <EXPORT ORDINAL="1128" NAME="?Random01@cMersenneTwister@Orc@@QAEMXZ" PURGE="0" COMMENT="" />
    <EXPORT ORDINAL="1129" NAME="?Random@cMersenneTwister@Orc@@QAEIXZ" PURGE="0" COMMENT="" />
    <EXPORT ORDINAL="1130" NAME="?Register@cResourceManager@Orc@@UAEIABVString@2@W4ePriority@2@_NPAX@Z" PURGE="16" COMMENT="" />
    <EXPORT ORDINAL="1131" NAME="?Register@cResourceManager@Orc@@UAEIPAVcResource@2@W4ePriority@2@@Z" PURGE="8" COMMENT="" />
    <EXPORT ORDINAL="1132" NAME="?Register@cTableManager@Orc@@QAEXABVcVarTable@2@@Z" PURGE="4" COMMENT="" />
    <EXPORT ORDINAL="1133" NAME="?RegisterString@cTableManager@Orc@@QAEPBDPBD@Z" PURGE="4" COMMENT="" />
    <EXPORT ORDINAL="1134" NAME="?Release@cVarTable@Orc@@UBEXXZ" PURGE="0" COMMENT="" />
    <EXPORT ORDINAL="1135" NAME="?Reload@cMersenneTwister@Orc@@QAEIXZ" PURGE="0" COMMENT="" />
    <EXPORT ORDINAL="1136" NAME="?RemoveListener@cTableManager@Orc@@UAEXP6AXABUsMsgNotify@2@@ZPAX@Z" PURGE="8" COMMENT="" />
    <EXPORT ORDINAL="1137" NAME="?ReplaceNode@cCodecLZ77@Orc@@AAEXHH@Z" PURGE="8" COMMENT="" />
    <EXPORT ORDINAL="1138" NAME="?Return@ProfileNode@Orc@@QAE_NXZ" PURGE="0" COMMENT="" />
    <EXPORT ORDINAL="1139" NAME="?ReverseBits@cFFT@Orc@@CAIII@Z" PURGE="0" COMMENT="" />
    <EXPORT ORDINAL="1140" NAME="?Save@cMersenneTwister@Orc@@QAEXPAI@Z" PURGE="4" COMMENT="" />
    <EXPORT ORDINAL="1141" NAME="?SendCommand@cVarTable@Orc@@UAEXUvarType@2@P6AXABUsMsgNotify@2@@Z@Z" PURGE="12" COMMENT="" />
    <EXPORT ORDINAL="1142" NAME="?SerializeTemplates@ParticleSystemMgr@Orc@@QBEXVString@2@@Z" PURGE="24" COMMENT="" />
    <EXPORT ORDINAL="1143" NAME="?Set@cVarTable@Orc@@AAEXAAUKeyVal@12@ABUvarType@2@P6AXABUsMsgNotify@2@@Z@Z" PURGE="12" COMMENT="" />
    <EXPORT ORDINAL="1144" NAME="?Set@cVarTable@Orc@@UAEXUvarType@2@0P6AXABUsMsgNotify@2@@Z@Z" PURGE="20" COMMENT="" />
    <EXPORT ORDINAL="1145" NAME="?Unregister@cResourceManager@Orc@@UAEXI_N@Z" PURGE="8" COMMENT="" />
    <EXPORT ORDINAL="1146" NAME="?Unregister@cTableManager@Orc@@QAEXABVcVarTable@2@@Z" PURGE="4" COMMENT="" />
    <EXPORT ORDINAL="1147" NAME="?UnregisterString@cTableManager@Orc@@QAEXPBD@Z" PURGE="4" COMMENT="" />
    <EXPORT ORDINAL="1148" NAME="?_0_47@?1??rsqrt_base@cMath@Orc@@CAMM@Z@4MA" PURGE="-1" COMMENT="" />
    <EXPORT ORDINAL="1149" NAME="?_1_47@?1??rsqrt_base@cMath@Orc@@CAMM@Z@4MA" PURGE="-1" COMMENT="" />
    <EXPORT ORDINAL="1150" NAME="?_M_Finish@?$_String_base@DV?$memtrack_allocator@D$0IMHGPCA@@stlp_std@@@stlp_std@@IAEPADXZ" PURGE="0" COMMENT="" />
    <EXPORT ORDINAL="1151" NAME="?_M_Finish@?$_String_base@DV?$memtrack_allocator@D$0IMHGPCA@@stlp_std@@@stlp_std@@IBEPBDXZ" PURGE="0" COMMENT="" />
    <EXPORT ORDINAL="1152" NAME="?_M_Finish@?$_String_base@_WV?$memtrack_allocator@_W$0IMHGPCA@@stlp_std@@@stlp_std@@IAEPA_WXZ" PURGE="0" COMMENT="" />
    <EXPORT ORDINAL="1153" NAME="?_M_Finish@?$_String_base@_WV?$memtrack_allocator@_W$0IMHGPCA@@stlp_std@@@stlp_std@@IBEPB_WXZ" PURGE="0" COMMENT="" />
    <EXPORT ORDINAL="1154" NAME="?_M_Start@?$_String_base@DV?$memtrack_allocator@D$0IMHGPCA@@stlp_std@@@stlp_std@@IAEPADXZ" PURGE="0" COMMENT="" />
    <EXPORT ORDINAL="1155" NAME="?_M_Start@?$_String_base@DV?$memtrack_allocator@D$0IMHGPCA@@stlp_std@@@stlp_std@@IBEPBDXZ" PURGE="0" COMMENT="" />
    <EXPORT ORDINAL="1156" NAME="?_M_Start@?$_String_base@_WV?$memtrack_allocator@_W$0IMHGPCA@@stlp_std@@@stlp_std@@IAEPA_WXZ" PURGE="0" COMMENT="" />
    <EXPORT ORDINAL="1157" NAME="?_M_Start@?$_String_base@_WV?$memtrack_allocator@_W$0IMHGPCA@@stlp_std@@@stlp_std@@IBEPB_WXZ" PURGE="0" COMMENT="" />
    <EXPORT ORDINAL="1158" NAME="?_M_Swap@?$_String_base@DV?$memtrack_allocator@D$0IMHGPCA@@stlp_std@@@stlp_std@@IAEXAAV12@@Z" PURGE="4" COMMENT="" />
    <EXPORT ORDINAL="1159" NAME="?_M_Swap@?$_String_base@_WV?$memtrack_allocator@_W$0IMHGPCA@@stlp_std@@@stlp_std@@IAEXAAV12@@Z" PURGE="4" COMMENT="" />
    <EXPORT ORDINAL="1160" NAME="?_M_allocate_block@?$_String_base@DV?$memtrack_allocator@D$0IMHGPCA@@stlp_std@@@stlp_std@@IAEXI@Z" PURGE="4" COMMENT="" />
    <EXPORT ORDINAL="1161" NAME="?_M_allocate_block@?$_String_base@_WV?$memtrack_allocator@_W$0IMHGPCA@@stlp_std@@@stlp_std@@IAEXI@Z" PURGE="4" COMMENT="" />
    <EXPORT ORDINAL="1162" NAME="?_M_append@?$basic_string@DV?$char_traits@D@stlp_std@@V?$memtrack_allocator@D$0IMHGPCA@@2@@stlp_std@@IAEAAV12@PBD0@Z" PURGE="8" COMMENT="" />
    <EXPORT ORDINAL="1163" NAME="?_M_append@?$basic_string@_WV?$char_traits@_W@stlp_std@@V?$memtrack_allocator@_W$0IMHGPCA@@2@@stlp_std@@IAEAAV12@PB_W0@Z" PURGE="8" COMMENT="" />
    <EXPORT ORDINAL="1164" NAME="?_M_assign@?$basic_string@DV?$char_traits@D@stlp_std@@V?$memtrack_allocator@D$0IMHGPCA@@2@@stlp_std@@IAEAAV12@PBD0@Z" PURGE="8" COMMENT="" />
    <EXPORT ORDINAL="1165" NAME="?_M_assign@?$basic_string@_WV?$char_traits@_W@stlp_std@@V?$memtrack_allocator@_W$0IMHGPCA@@2@@stlp_std@@IAEAAV12@PB_W0@Z" PURGE="8" COMMENT="" />
    <EXPORT ORDINAL="1166" NAME="?_M_compare@?$basic_string@DV?$char_traits@D@stlp_std@@V?$memtrack_allocator@D$0IMHGPCA@@2@@stlp_std@@SAHPBD000@Z" PURGE="0" COMMENT="" />
    <EXPORT ORDINAL="1167" NAME="?_M_compare@?$basic_string@_WV?$char_traits@_W@stlp_std@@V?$memtrack_allocator@_W$0IMHGPCA@@2@@stlp_std@@SAHPB_W000@Z" PURGE="0" COMMENT="" />
    <EXPORT ORDINAL="1168" NAME="?_M_construct_null@?$basic_string@DV?$char_traits@D@stlp_std@@V?$memtrack_allocator@D$0IMHGPCA@@2@@stlp_std@@IBEXPAD@Z" PURGE="4" COMMENT="" />
    <EXPORT ORDINAL="1169" NAME="?_M_construct_null@?$basic_string@_WV?$char_traits@_W@stlp_std@@V?$memtrack_allocator@_W$0IMHGPCA@@2@@stlp_std@@IBEXPA_W@Z" PURGE="4" COMMENT="" />
    <EXPORT ORDINAL="1170" NAME="?_M_construct_null_aux@?$basic_string@DV?$char_traits@D@stlp_std@@V?$memtrack_allocator@D$0IMHGPCA@@2@@stlp_std@@IBEXPADABU__false_type@2@@Z" PURGE="8" COMMENT="" />
    <EXPORT ORDINAL="1171" NAME="?_M_construct_null_aux@?$basic_string@DV?$char_traits@D@stlp_std@@V?$memtrack_allocator@D$0IMHGPCA@@2@@stlp_std@@IBEXPADABU__true_type@2@@Z" PURGE="8" COMMENT="" />
    <EXPORT ORDINAL="1172" NAME="?_M_construct_null_aux@?$basic_string@_WV?$char_traits@_W@stlp_std@@V?$memtrack_allocator@_W$0IMHGPCA@@2@@stlp_std@@IBEXPA_WABU__false_type@2@@Z" PURGE="8" COMMENT="" />
    <EXPORT ORDINAL="1173" NAME="?_M_construct_null_aux@?$basic_string@_WV?$char_traits@_W@stlp_std@@V?$memtrack_allocator@_W$0IMHGPCA@@2@@stlp_std@@IBEXPA_WABU__true_type@2@@Z" PURGE="8" COMMENT="" />
    <EXPORT ORDINAL="1174" NAME="?_M_copy@?$basic_string@DV?$char_traits@D@stlp_std@@V?$memtrack_allocator@D$0IMHGPCA@@2@@stlp_std@@IAEXPBD0PAD@Z" PURGE="12" COMMENT="" />
    <EXPORT ORDINAL="1175" NAME="?_M_copy@?$basic_string@_WV?$char_traits@_W@stlp_std@@V?$memtrack_allocator@_W$0IMHGPCA@@2@@stlp_std@@IAEXPB_W0PA_W@Z" PURGE="12" COMMENT="" />
    <EXPORT ORDINAL="1176" NAME="?_M_copyT@?$basic_string@DV?$char_traits@D@stlp_std@@V?$memtrack_allocator@D$0IMHGPCA@@2@@stlp_std@@IAEXPBD0PAD@Z" PURGE="12" COMMENT="" />
    <EXPORT ORDINAL="1177" NAME="?_M_copyT@?$basic_string@_WV?$char_traits@_W@stlp_std@@V?$memtrack_allocator@_W$0IMHGPCA@@2@@stlp_std@@IAEXPB_W0PA_W@Z" PURGE="12" COMMENT="" />
    <EXPORT ORDINAL="1178" NAME="?_M_deallocate_block@?$_String_base@DV?$memtrack_allocator@D$0IMHGPCA@@stlp_std@@@stlp_std@@IAEXXZ" PURGE="0" COMMENT="" />
    <EXPORT ORDINAL="1179" NAME="?_M_deallocate_block@?$_String_base@_WV?$memtrack_allocator@_W$0IMHGPCA@@stlp_std@@@stlp_std@@IAEXXZ" PURGE="0" COMMENT="" />
    <EXPORT ORDINAL="1180" NAME="?_M_destroy_back@?$_String_base@DV?$memtrack_allocator@D$0IMHGPCA@@stlp_std@@@stlp_std@@IAEXXZ" PURGE="0" COMMENT="" />
    <EXPORT ORDINAL="1181" NAME="?_M_destroy_back@?$_String_base@_WV?$memtrack_allocator@_W$0IMHGPCA@@stlp_std@@@stlp_std@@IAEXXZ" PURGE="0" COMMENT="" />
    <EXPORT ORDINAL="1182" NAME="?_M_destroy_ptr_range@?$_String_base@DV?$memtrack_allocator@D$0IMHGPCA@@stlp_std@@@stlp_std@@IAEXPAD0@Z" PURGE="8" COMMENT="" />
    <EXPORT ORDINAL="1183" NAME="?_M_destroy_ptr_range@?$_String_base@_WV?$memtrack_allocator@_W$0IMHGPCA@@stlp_std@@@stlp_std@@IAEXPA_W0@Z" PURGE="8" COMMENT="" />
    <EXPORT ORDINAL="1184" NAME="?_M_destroy_range@?$_String_base@DV?$memtrack_allocator@D$0IMHGPCA@@stlp_std@@@stlp_std@@IAEXII@Z" PURGE="8" COMMENT="" />
    <EXPORT ORDINAL="1185" NAME="?_M_destroy_range@?$_String_base@_WV?$memtrack_allocator@_W$0IMHGPCA@@stlp_std@@@stlp_std@@IAEXII@Z" PURGE="8" COMMENT="" />
    <EXPORT ORDINAL="1186" NAME="?_M_force_construct_null@?$basic_string@DV?$char_traits@D@stlp_std@@V?$memtrack_allocator@D$0IMHGPCA@@2@@stlp_std@@IBEXPADABU__false_type@2@@Z" PURGE="8" COMMENT="" />
    <EXPORT ORDINAL="1187" NAME="?_M_force_construct_null@?$basic_string@DV?$char_traits@D@stlp_std@@V?$memtrack_allocator@D$0IMHGPCA@@2@@stlp_std@@IBEXPADABU__true_type@2@@Z" PURGE="8" COMMENT="" />
    <EXPORT ORDINAL="1188" NAME="?_M_force_construct_null@?$basic_string@_WV?$char_traits@_W@stlp_std@@V?$memtrack_allocator@_W$0IMHGPCA@@2@@stlp_std@@IBEXPA_WABU__false_type@2@@Z" PURGE="8" COMMENT="" />
    <EXPORT ORDINAL="1189" NAME="?_M_force_construct_null@?$basic_string@_WV?$char_traits@_W@stlp_std@@V?$memtrack_allocator@_W$0IMHGPCA@@2@@stlp_std@@IBEXPA_WABU__true_type@2@@Z" PURGE="8" COMMENT="" />
    <EXPORT ORDINAL="1190" NAME="?_M_force_terminate_string@?$basic_string@DV?$char_traits@D@stlp_std@@V?$memtrack_allocator@D$0IMHGPCA@@2@@stlp_std@@IAEXABU__false_type@2@@Z" PURGE="4" COMMENT="" />
    <EXPORT ORDINAL="1191" NAME="?_M_force_terminate_string@?$basic_string@DV?$char_traits@D@stlp_std@@V?$memtrack_allocator@D$0IMHGPCA@@2@@stlp_std@@IAEXABU__true_type@2@@Z" PURGE="4" COMMENT="" />
    <EXPORT ORDINAL="1192" NAME="?_M_force_terminate_string@?$basic_string@_WV?$char_traits@_W@stlp_std@@V?$memtrack_allocator@_W$0IMHGPCA@@2@@stlp_std@@IAEXABU__false_type@2@@Z" PURGE="4" COMMENT="" />
    <EXPORT ORDINAL="1193" NAME="?_M_force_terminate_string@?$basic_string@_WV?$char_traits@_W@stlp_std@@V?$memtrack_allocator@_W$0IMHGPCA@@2@@stlp_std@@IAEXABU__true_type@2@@Z" PURGE="4" COMMENT="" />
    <EXPORT ORDINAL="1194" NAME="?_M_insert@?$basic_string@DV?$char_traits@D@stlp_std@@V?$memtrack_allocator@D$0IMHGPCA@@2@@stlp_std@@IAEXPADPBD1_N@Z" PURGE="16" COMMENT="" />
    <EXPORT ORDINAL="1195" NAME="?_M_insert@?$basic_string@_WV?$char_traits@_W@stlp_std@@V?$memtrack_allocator@_W$0IMHGPCA@@2@@stlp_std@@IAEXPA_WPB_W1_N@Z" PURGE="16" COMMENT="" />
    <EXPORT ORDINAL="1196" NAME="?_M_insert_aux@?$basic_string@DV?$char_traits@D@stlp_std@@V?$memtrack_allocator@D$0IMHGPCA@@2@@stlp_std@@IAEPADPADD@Z" PURGE="8" COMMENT="" />
    <EXPORT ORDINAL="1197" NAME="?_M_insert_aux@?$basic_string@_WV?$char_traits@_W@stlp_std@@V?$memtrack_allocator@_W$0IMHGPCA@@2@@stlp_std@@IAEPA_WPA_W_W@Z" PURGE="8" COMMENT="" />
    <EXPORT ORDINAL="1198" NAME="?_M_inside@?$basic_string@DV?$char_traits@D@stlp_std@@V?$memtrack_allocator@D$0IMHGPCA@@2@@stlp_std@@IBE_NPBD@Z" PURGE="4" COMMENT="" />
    <EXPORT ORDINAL="1199" NAME="?_M_inside@?$basic_string@_WV?$char_traits@_W@stlp_std@@V?$memtrack_allocator@_W$0IMHGPCA@@2@@stlp_std@@IBE_NPB_W@Z" PURGE="4" COMMENT="" />
    <EXPORT ORDINAL="1200" NAME="?_M_move@?$basic_string@DV?$char_traits@D@stlp_std@@V?$memtrack_allocator@D$0IMHGPCA@@2@@stlp_std@@IAEXPBD0PAD@Z" PURGE="12" COMMENT="" />
    <EXPORT ORDINAL="1201" NAME="?_M_move@?$basic_string@_WV?$char_traits@_W@stlp_std@@V?$memtrack_allocator@_W$0IMHGPCA@@2@@stlp_std@@IAEXPB_W0PA_W@Z" PURGE="12" COMMENT="" />
    <EXPORT ORDINAL="1202" NAME="?_M_move_src@?$_String_base@DV?$memtrack_allocator@D$0IMHGPCA@@stlp_std@@@stlp_std@@IAEXAAV12@@Z" PURGE="4" COMMENT="" />
    <EXPORT ORDINAL="1203" NAME="?_M_move_src@?$_String_base@_WV?$memtrack_allocator@_W$0IMHGPCA@@stlp_std@@@stlp_std@@IAEXAAV12@@Z" PURGE="4" COMMENT="" />
    <EXPORT ORDINAL="1204" NAME="?_M_null@?$basic_string@DV?$char_traits@D@stlp_std@@V?$memtrack_allocator@D$0IMHGPCA@@2@@stlp_std@@KADXZ" PURGE="0" COMMENT="" />
    <EXPORT ORDINAL="1205" NAME="?_M_null@?$basic_string@_WV?$char_traits@_W@stlp_std@@V?$memtrack_allocator@_W$0IMHGPCA@@2@@stlp_std@@KA_WXZ" PURGE="0" COMMENT="" />
    <EXPORT ORDINAL="1206" NAME="?_M_range_initialize@?$basic_string@DV?$char_traits@D@stlp_std@@V?$memtrack_allocator@D$0IMHGPCA@@2@@stlp_std@@IAEXPBD0@Z" PURGE="8" COMMENT="" />
    <EXPORT ORDINAL="1207" NAME="?_M_range_initialize@?$basic_string@_WV?$char_traits@_W@stlp_std@@V?$memtrack_allocator@_W$0IMHGPCA@@2@@stlp_std@@IAEXPB_W0@Z" PURGE="8" COMMENT="" />
    <EXPORT ORDINAL="1208" NAME="?_M_replace@?$basic_string@DV?$char_traits@D@stlp_std@@V?$memtrack_allocator@D$0IMHGPCA@@2@@stlp_std@@IAEAAV12@PAD0PBD1_N@Z" PURGE="20" COMMENT="" />
    <EXPORT ORDINAL="1209" NAME="?_M_replace@?$basic_string@_WV?$char_traits@_W@stlp_std@@V?$memtrack_allocator@_W$0IMHGPCA@@2@@stlp_std@@IAEAAV12@PA_W0PB_W1_N@Z" PURGE="20" COMMENT="" />
    <EXPORT ORDINAL="1210" NAME="?_M_reset@?$_String_base@DV?$memtrack_allocator@D$0IMHGPCA@@stlp_std@@@stlp_std@@IAEXPAD00@Z" PURGE="12" COMMENT="" />
    <EXPORT ORDINAL="1211" NAME="?_M_reset@?$_String_base@_WV?$memtrack_allocator@_W$0IMHGPCA@@stlp_std@@@stlp_std@@IAEXPA_W00@Z" PURGE="12" COMMENT="" />
    <EXPORT ORDINAL="1212" NAME="?_M_terminate_string@?$basic_string@DV?$char_traits@D@stlp_std@@V?$memtrack_allocator@D$0IMHGPCA@@2@@stlp_std@@IAEXXZ" PURGE="0" COMMENT="" />
    <EXPORT ORDINAL="1213" NAME="?_M_terminate_string@?$basic_string@_WV?$char_traits@_W@stlp_std@@V?$memtrack_allocator@_W$0IMHGPCA@@2@@stlp_std@@IAEXXZ" PURGE="0" COMMENT="" />
    <EXPORT ORDINAL="1214" NAME="?_M_terminate_string_aux@?$basic_string@DV?$char_traits@D@stlp_std@@V?$memtrack_allocator@D$0IMHGPCA@@2@@stlp_std@@IAEXABU__false_type@2@@Z" PURGE="4" COMMENT="" />
    <EXPORT ORDINAL="1215" NAME="?_M_terminate_string_aux@?$basic_string@DV?$char_traits@D@stlp_std@@V?$memtrack_allocator@D$0IMHGPCA@@2@@stlp_std@@IAEXABU__true_type@2@@Z" PURGE="4" COMMENT="" />
    <EXPORT ORDINAL="1216" NAME="?_M_terminate_string_aux@?$basic_string@_WV?$char_traits@_W@stlp_std@@V?$memtrack_allocator@_W$0IMHGPCA@@2@@stlp_std@@IAEXABU__false_type@2@@Z" PURGE="4" COMMENT="" />
    <EXPORT ORDINAL="1217" NAME="?_M_terminate_string_aux@?$basic_string@_WV?$char_traits@_W@stlp_std@@V?$memtrack_allocator@_W$0IMHGPCA@@2@@stlp_std@@IAEXABU__true_type@2@@Z" PURGE="4" COMMENT="" />
    <EXPORT ORDINAL="1218" NAME="?_M_throw_length_error@?$_String_base@DV?$memtrack_allocator@D$0IMHGPCA@@stlp_std@@@stlp_std@@IBEXXZ" PURGE="0" COMMENT="" />
    <EXPORT ORDINAL="1219" NAME="?_M_throw_length_error@?$_String_base@_WV?$memtrack_allocator@_W$0IMHGPCA@@stlp_std@@@stlp_std@@IBEXXZ" PURGE="0" COMMENT="" />
    <EXPORT ORDINAL="1220" NAME="?_M_throw_out_of_range@?$_String_base@DV?$memtrack_allocator@D$0IMHGPCA@@stlp_std@@@stlp_std@@IBEXXZ" PURGE="0" COMMENT="" />
    <EXPORT ORDINAL="1221" NAME="?_M_throw_out_of_range@?$_String_base@_WV?$memtrack_allocator@_W$0IMHGPCA@@stlp_std@@@stlp_std@@IBEXXZ" PURGE="0" COMMENT="" />
    <EXPORT ORDINAL="1222" NAME="?_M_using_static_buf@?$_String_base@DV?$memtrack_allocator@D$0IMHGPCA@@stlp_std@@@stlp_std@@IBE_NXZ" PURGE="0" COMMENT="" />
    <EXPORT ORDINAL="1223" NAME="?_M_using_static_buf@?$_String_base@_WV?$memtrack_allocator@_W$0IMHGPCA@@stlp_std@@@stlp_std@@IBE_NXZ" PURGE="0" COMMENT="" />
    <EXPORT ORDINAL="1224" NAME="?_applyUpdates@ParticleSystem@Orc@@AAEXM@Z" PURGE="4" COMMENT="" />
    <EXPORT ORDINAL="1225" NAME="?_createAffector@ParticleSystemMgr@Orc@@QAEPAVParticleAffector@2@ABVString@2@@Z" PURGE="4" COMMENT="" />
    <EXPORT ORDINAL="1226" NAME="?_createAffector@ParticleSystemMgr@Orc@@QAEPAVParticleAffector@2@ABVString@2@AAVcFile@2@@Z" PURGE="8" COMMENT="" />
    <EXPORT ORDINAL="1227" NAME="?_createEmitter@ParticleSystemMgr@Orc@@QAEPAVParticleEmitter@2@ABVString@2@@Z" PURGE="4" COMMENT="" />
    <EXPORT ORDINAL="1228" NAME="?_createEmitter@ParticleSystemMgr@Orc@@QAEPAVParticleEmitter@2@ABVString@2@AAVcFile@2@@Z" PURGE="8" COMMENT="" />
    <EXPORT ORDINAL="1229" NAME="?_deserialize@ParticleAffector@Orc@@UAEXAAVcFile@2@@Z" PURGE="4" COMMENT="" />
    <EXPORT ORDINAL="1230" NAME="?_deserialize@ParticleEmitter@Orc@@UAEXAAVcFile@2@@Z" PURGE="4" COMMENT="" />
    <EXPORT ORDINAL="1231" NAME="?_destroyAffector@ParticleSystemMgr@Orc@@QAEXPAVParticleAffector@2@@Z" PURGE="4" COMMENT="" />
    <EXPORT ORDINAL="1232" NAME="?_destroyEmitter@ParticleSystemMgr@Orc@@QAEXPAVParticleEmitter@2@@Z" PURGE="4" COMMENT="" />
    <EXPORT ORDINAL="1233" NAME="?_encode@cCodecZIP@Orc@@AAE_NAAVcFile@2@0H@Z" PURGE="12" COMMENT="" />
    <EXPORT ORDINAL="1234" NAME="?_expire@ParticleSystem@Orc@@AAEXM@Z" PURGE="4" COMMENT="" />
    <EXPORT ORDINAL="1235" NAME="?_findResource@cArchiveContainer@Orc@@QAE_NABUHashConstCharPtr@2@PAUFileInfo@2@@Z" PURGE="8" COMMENT="" />
    <EXPORT ORDINAL="1236" NAME="?_findResource@cArchiveContainer@Orc@@QAE_NPBDPAUFileInfo@2@@Z" PURGE="8" COMMENT="" />
    <EXPORT ORDINAL="1237" NAME="?_findResourceData@cArchiveContainer@Orc@@QAE_NPBDAAVMemBlk@@IPAUFileInfo@2@@Z" PURGE="16" COMMENT="" />
    <EXPORT ORDINAL="1238" NAME="?_findResourceData@cResourceManager@Orc@@QAE_NPBDAAVMemBlk@@PAUFileInfo@2@@Z" PURGE="12" COMMENT="" />
    <EXPORT ORDINAL="1239" NAME="?_fireFrameEnded@Root@Orc@@QAE_NAAUFrameEvent@2@@Z" PURGE="4" COMMENT="" />
    <EXPORT ORDINAL="1240" NAME="?_fireFrameIdle@Root@Orc@@QAE_NAAUFrameEvent@2@@Z" PURGE="4" COMMENT="" />
    <EXPORT ORDINAL="1241" NAME="?_fireFrameRender@Root@Orc@@QAE_NXZ" PURGE="0" COMMENT="" />
    <EXPORT ORDINAL="1242" NAME="?_fireFrameStarted@Root@Orc@@QAE_NAAUFrameEvent@2@@Z" PURGE="4" COMMENT="" />
    <EXPORT ORDINAL="1243" NAME="?_initAffector@ParticleAffector@Orc@@UAEXXZ" PURGE="0" COMMENT="" />
    <EXPORT ORDINAL="1244" NAME="?_initEmitter@ParticleEmitter@Orc@@UAEXXZ" PURGE="0" COMMENT="" />
    <EXPORT ORDINAL="1245" NAME="?_initParticle@ParticleAffector@Orc@@UAEXPAVParticle@2@ABUD3DXVECTOR3@@@Z" PURGE="8" COMMENT="" />
    <EXPORT ORDINAL="1246" NAME="?_initParticle@ParticleEmitter@Orc@@UAEXPAVParticle@2@ABUD3DXVECTOR3@@@Z" PURGE="8" COMMENT="" />
    <EXPORT ORDINAL="1247" NAME="?_initialize@ParticleSystem@Orc@@AAEXXZ" PURGE="0" COMMENT="" />
    <EXPORT ORDINAL="1248" NAME="?_initializeFrom@ParticleSystem@Orc@@AAEXABV12@@Z" PURGE="4" COMMENT="" />
    <EXPORT ORDINAL="1249" NAME="?_instance@?$tSingleton@VArchiveManager@Orc@@@Orc@@0PAVArchiveManager@2@A" PURGE="-1" COMMENT="" />
    <EXPORT ORDINAL="1250" NAME="?_instance@?$tSingleton@VCodecManager@Orc@@@Orc@@0PAVCodecManager@2@A" PURGE="-1" COMMENT="" />
    <EXPORT ORDINAL="1251" NAME="?_instance@?$tSingleton@VDeprecationMgr@Orc@@@Orc@@0PAVDeprecationMgr@2@A" PURGE="-1" COMMENT="" />
    <EXPORT ORDINAL="1252" NAME="?_instance@?$tSingleton@VLogManager@Orc@@@Orc@@0PAVLogManager@2@A" PURGE="-1" COMMENT="" />
    <EXPORT ORDINAL="1253" NAME="?_instance@?$tSingleton@VMovieManager@Orc@@@Orc@@0PAVMovieManager@2@A" PURGE="-1" COMMENT="" />
    <EXPORT ORDINAL="1254" NAME="?_instance@?$tSingleton@VParticleSystemMgr@Orc@@@Orc@@0PAVParticleSystemMgr@2@A" PURGE="-1" COMMENT="" />
    <EXPORT ORDINAL="1255" NAME="?_instance@?$tSingleton@VPlatformManager@Orc@@@Orc@@0PAVPlatformManager@2@A" PURGE="-1" COMMENT="" />
    <EXPORT ORDINAL="1256" NAME="?_instance@?$tSingleton@VProcessorInfo@Orc@@@Orc@@0PAVProcessorInfo@2@A" PURGE="-1" COMMENT="" />
    <EXPORT ORDINAL="1257" NAME="?_instance@?$tSingleton@VProfileManager@Orc@@@Orc@@0PAVProfileManager@2@A" PURGE="-1" COMMENT="" />
    <EXPORT ORDINAL="1258" NAME="?_instance@?$tSingleton@VQueuedTaskMgr@Orc@@@Orc@@0PAVQueuedTaskMgr@2@A" PURGE="-1" COMMENT="" />
    <EXPORT ORDINAL="1259" NAME="?_instance@?$tSingleton@VRoot@Orc@@@Orc@@0PAVRoot@2@A" PURGE="-1" COMMENT="" />
    <EXPORT ORDINAL="1260" NAME="?_instance@?$tSingleton@VSoundSystemManager@Orc@@@Orc@@0PAVSoundSystemManager@2@A" PURGE="-1" COMMENT="" />
    <EXPORT ORDINAL="1261" NAME="?_instance@?$tSingleton@VcTableManager@Orc@@@Orc@@0PAVcTableManager@2@A" PURGE="-1" COMMENT="" />
    <EXPORT ORDINAL="1262" NAME="?_instance@?1??Instance@ConsoleVar@Orc@@SAAAV23@XZ@4V23@A" PURGE="-1" COMMENT="" />
    <EXPORT ORDINAL="1263" NAME="?_isHoldClick@MouseState@Orc@@QBE_NEMM@Z" PURGE="12" COMMENT="" />
    <EXPORT ORDINAL="1264" NAME="?_isMultiClick@MouseState@Orc@@QBE_NEMM@Z" PURGE="12" COMMENT="" />
    <EXPORT ORDINAL="1265" NAME="?_moveParticles@ParticleSystem@Orc@@AAEXABUD3DXVECTOR3@@@Z" PURGE="4" COMMENT="" />
    <EXPORT ORDINAL="1266" NAME="?_popFunction@Exception@Orc@@SAXXZ" PURGE="0" COMMENT="" />
    <EXPORT ORDINAL="1267" NAME="?_process@ThreadTask@Orc@@AAE_NM@Z" PURGE="4" COMMENT="" />
    <EXPORT ORDINAL="1268" NAME="?_pushFunction@Exception@Orc@@SAXABV?$basic_string@DV?$char_traits@D@stlp_std@@V?$allocator@D@2@@stlp_std@@@Z" PURGE="0" COMMENT="" />
    <EXPORT ORDINAL="1269" NAME="?_removeAllAffectorsOnEmitter@ParticleSystem@Orc@@AAEXE@Z" PURGE="4" COMMENT="" />
    <EXPORT ORDINAL="1270" NAME="?_serialize@ParticleAffector@Orc@@UAEXAAVcFile@2@@Z" PURGE="4" COMMENT="" />
    <EXPORT ORDINAL="1271" NAME="?_serialize@ParticleEmitter@Orc@@UAEXAAVcFile@2@@Z" PURGE="4" COMMENT="" />
    <EXPORT ORDINAL="1272" NAME="?_serialize@ParticleSystem@Orc@@UBEXAAVcFile@2@@Z" PURGE="4" COMMENT="" />
    <EXPORT ORDINAL="1273" NAME="?_setThreadFinished@iThread@Orc@@UAEXXZ" PURGE="0" COMMENT="" />
    <EXPORT ORDINAL="1274" NAME="?_triggerAffectors@ParticleSystem@Orc@@AAEXM@Z" PURGE="4" COMMENT="" />
    <EXPORT ORDINAL="1275" NAME="?_triggerEmitters@ParticleSystem@Orc@@AAEXM@Z" PURGE="4" COMMENT="" />
    <EXPORT ORDINAL="1276" NAME="?_updateBounds@ParticleSystem@Orc@@AAEXXZ" PURGE="0" COMMENT="" />
    <EXPORT ORDINAL="1277" NAME="?aabbExt3@cOBB@Orc@@QBEXAAUD3DXVECTOR3@@@Z" PURGE="4" COMMENT="" />
    <EXPORT ORDINAL="1278" NAME="?aabbExt4@cOBB@Orc@@QBEXAAUD3DXVECTOR4@@@Z" PURGE="4" COMMENT="" />
    <EXPORT ORDINAL="1279" NAME="?aabbExt4_sse@cOBB@Orc@@QBEXAAUD3DXVECTOR4@@@Z" PURGE="4" COMMENT="" />
    <EXPORT ORDINAL="1280" NAME="?abort@iQueuedTask@Orc@@QAEXXZ" PURGE="0" COMMENT="" />
    <EXPORT ORDINAL="1281" NAME="?abortQueuedTasks@QueuedTaskMgr@Orc@@QAEXXZ" PURGE="0" COMMENT="" />
    <EXPORT ORDINAL="1282" NAME="?abortTask@QueuedTaskMgr@Orc@@QAE?AW4eTaskStatus@2@PAViQueuedTask@2@@Z" PURGE="4" COMMENT="" />
    <EXPORT ORDINAL="1283" NAME="?abort_streaming@cResourceManager@Orc@@AAEXAAVcResource@2@@Z" PURGE="4" COMMENT="" />
    <EXPORT ORDINAL="1284" NAME="?abs@cMath@Orc@@SAMABM@Z" PURGE="0" COMMENT="" />
    <EXPORT ORDINAL="1285" NAME="?abs@cMath@Orc@@SANABN@Z" PURGE="0" COMMENT="" />
    <EXPORT ORDINAL="1286" NAME="?add@TimerCycle@Orc@@SAXABV12@0AAV12@@Z" PURGE="0" COMMENT="" />
    <EXPORT ORDINAL="1287" NAME="?add@cCRC32@Orc@@QAEIPBEI@Z" PURGE="8" COMMENT="" />
    <EXPORT ORDINAL="1288" NAME="?add@cMacroCommand@Orc@@UAEXPAVcCommand@2@@Z" PURGE="4" COMMENT="" />
    <EXPORT ORDINAL="1289" NAME="?addAffector@ParticleSystem@Orc@@QAEPAVParticleAffector@2@ABVString@2@@Z" PURGE="4" COMMENT="" />
    <EXPORT ORDINAL="1290" NAME="?addAffectorFactory@ParticleSystemMgr@Orc@@QAEXPAVParticleAffectorFactory@2@@Z" PURGE="4" COMMENT="" />
    <EXPORT ORDINAL="1291" NAME="?addArchive@cArchiveContainer@Orc@@QAEXAAViArchive@2@@Z" PURGE="4" COMMENT="" />
    <EXPORT ORDINAL="1292" NAME="?addArchive@cArchiveContainer@Orc@@QAEXABVString@2@0@Z" PURGE="8" COMMENT="" />
    <EXPORT ORDINAL="1293" NAME="?addArchiveFactory@ArchiveManager@Orc@@QAEXPAVArchiveFactory@2@@Z" PURGE="4" COMMENT="" />
    <EXPORT ORDINAL="1294" NAME="?addBaseParameters@ParticleAffector@Orc@@IAEXXZ" PURGE="0" COMMENT="" />
    <EXPORT ORDINAL="1295" NAME="?addBaseParameters@ParticleEmitter@Orc@@QAEXXZ" PURGE="0" COMMENT="" />
    <EXPORT ORDINAL="1296" NAME="?addCodec@cCodecMulti@Orc@@QAEXABVString@2@@Z" PURGE="4" COMMENT="" />
    <EXPORT ORDINAL="1297" NAME="?addCommonArchive@cArchiveContainer@Orc@@SAXABVString@2@0@Z" PURGE="0" COMMENT="" />
    <EXPORT ORDINAL="1298" NAME="?addCrc@cCRC32@Orc@@SAXAAIE@Z" PURGE="0" COMMENT="" />
    <EXPORT ORDINAL="1299" NAME="?addDeprecatedFunction@DeprecationMgr@Orc@@QAE_NPBD0PBX@Z" PURGE="12" COMMENT="" />
    <EXPORT ORDINAL="1300" NAME="?addDialog@Root@Orc@@QAEXPAX@Z" PURGE="4" COMMENT="" />
    <EXPORT ORDINAL="1301" NAME="?addEmitter@ParticleSystem@Orc@@QAEPAVParticleEmitter@2@ABVString@2@@Z" PURGE="4" COMMENT="" />
    <EXPORT ORDINAL="1302" NAME="?addEmitterFactory@ParticleSystemMgr@Orc@@QAEXPAVParticleEmitterFactory@2@@Z" PURGE="4" COMMENT="" />
    <EXPORT ORDINAL="1303" NAME="?addFactory@CodecManager@Orc@@QAEXPAVCodecFactory@2@@Z" PURGE="4" COMMENT="" />
    <EXPORT ORDINAL="1304" NAME="?addFrameListener@Root@Orc@@QAEXPAVFrameListener@2@@Z" PURGE="4" COMMENT="" />
    <EXPORT ORDINAL="1305" NAME="?addMovieFactory@MovieManager@Orc@@QAEXPAVMovieFactory@2@@Z" PURGE="4" COMMENT="" />
    <EXPORT ORDINAL="1306" NAME="?addParameter@ParamDictionary@Orc@@QAEXABVParameterDef@2@PAVParamCommand@2@@Z" PURGE="8" COMMENT="" />
    <EXPORT ORDINAL="1307" NAME="?addParticle@ParticleSystem@Orc@@QAEPAVParticle@2@XZ" PURGE="0" COMMENT="" />
    <EXPORT ORDINAL="1308" NAME="?addPoint@cBoundingBoxAA@Orc@@QAEXABUD3DXVECTOR3@@@Z" PURGE="4" COMMENT="" />
    <EXPORT ORDINAL="1309" NAME="?addPoint@cBoundingBoxAA@Orc@@QAEXABUD3DXVECTOR4@@@Z" PURGE="4" COMMENT="" />
    <EXPORT ORDINAL="1310" NAME="?addPoint@cRectRay@Orc@@QAEXABUD3DXVECTOR3@@_N@Z" PURGE="8" COMMENT="" />
    <EXPORT ORDINAL="1311" NAME="?addPoint@cRectangle@Orc@@QAEXABUD3DXVECTOR2@@@Z" PURGE="4" COMMENT="" />
    <EXPORT ORDINAL="1312" NAME="?addPoint@cRectangle@Orc@@QAEXABV12@@Z" PURGE="4" COMMENT="" />
    <EXPORT ORDINAL="1313" NAME="?addPoint_sse@cBoundingBoxAA@Orc@@QAEXABUD3DXVECTOR4@@@Z" PURGE="4" COMMENT="" />
    <EXPORT ORDINAL="1314" NAME="?addRenderSystem@Root@Orc@@QAEXPAVRenderSystem@2@@Z" PURGE="4" COMMENT="" />
    <EXPORT ORDINAL="1315" NAME="?addSoundSystemFactory@SoundSystemManager@Orc@@QAEXPAVSoundSystemFactory@2@@Z" PURGE="4" COMMENT="" />
    <EXPORT ORDINAL="1316" NAME="?addString@cCRC32@Orc@@QAEXPBD@Z" PURGE="4" COMMENT="" />
    <EXPORT ORDINAL="1317" NAME="?addTask@QueuedTaskMgr@Orc@@QAEXPAViQueuedTask@2@W4ePriority@2@@Z" PURGE="8" COMMENT="" />
    <EXPORT ORDINAL="1318" NAME="?addTemplate@ParticleSystemMgr@Orc@@QAEXABVString@2@ABVParticleSystem@2@@Z" PURGE="8" COMMENT="" />
    <EXPORT ORDINAL="1319" NAME="?addValue@cSplineCR@Orc@@QAEXABUD3DXVECTOR3@@@Z" PURGE="4" COMMENT="" />
    <EXPORT ORDINAL="1320" NAME="?advanceReadIndex@RingBufferByte@Orc@@IAEJJ@Z" PURGE="4" COMMENT="" />
    <EXPORT ORDINAL="1321" NAME="?advanceWriteIndex@RingBufferByte@Orc@@IAEJJ@Z" PURGE="4" COMMENT="" />
    <EXPORT ORDINAL="1322" NAME="?alignedLen@cDataStore@Orc@@ABEII@Z" PURGE="4" COMMENT="" />
    <EXPORT ORDINAL="1323" NAME="?allBufferFilled@iSoundVorbis@Orc@@QBE_NXZ" PURGE="0" COMMENT="" />
    <EXPORT ORDINAL="1324" NAME="?allocdata@cImage@Orc@@AAE_NI@Z" PURGE="4" COMMENT="" />
    <EXPORT ORDINAL="1325" NAME="?alreadyPlayed@iSoundChannel@Orc@@QBE_NXZ" PURGE="0" COMMENT="" />
    <EXPORT ORDINAL="1326" NAME="?alreadyPlayed@iSoundClip@Orc@@UBE_NXZ" PURGE="0" COMMENT="" />
    <EXPORT ORDINAL="1327" NAME="?angleNormalize180@cMath@Orc@@SAMM@Z" PURGE="0" COMMENT="" />
    <EXPORT ORDINAL="1328" NAME="?angleNormalize360@cMath@Orc@@SAMM@Z" PURGE="0" COMMENT="" />
    <EXPORT ORDINAL="1329" NAME="?append@?$basic_string@DV?$char_traits@D@stlp_std@@V?$memtrack_allocator@D$0IMHGPCA@@2@@stlp_std@@QAEAAV12@ABV12@@Z" PURGE="4" COMMENT="" />
    <EXPORT ORDINAL="1330" NAME="?append@?$basic_string@DV?$char_traits@D@stlp_std@@V?$memtrack_allocator@D$0IMHGPCA@@2@@stlp_std@@QAEAAV12@ABV12@II@Z" PURGE="12" COMMENT="" />
    <EXPORT ORDINAL="1331" NAME="?append@?$basic_string@DV?$char_traits@D@stlp_std@@V?$memtrack_allocator@D$0IMHGPCA@@2@@stlp_std@@QAEAAV12@ID@Z" PURGE="8" COMMENT="" />
    <EXPORT ORDINAL="1332" NAME="?append@?$basic_string@DV?$char_traits@D@stlp_std@@V?$memtrack_allocator@D$0IMHGPCA@@2@@stlp_std@@QAEAAV12@PBD0@Z" PURGE="8" COMMENT="" />
    <EXPORT ORDINAL="1333" NAME="?append@?$basic_string@DV?$char_traits@D@stlp_std@@V?$memtrack_allocator@D$0IMHGPCA@@2@@stlp_std@@QAEAAV12@PBD@Z" PURGE="4" COMMENT="" />
    <EXPORT ORDINAL="1334" NAME="?append@?$basic_string@DV?$char_traits@D@stlp_std@@V?$memtrack_allocator@D$0IMHGPCA@@2@@stlp_std@@QAEAAV12@PBDI@Z" PURGE="8" COMMENT="" />
    <EXPORT ORDINAL="1335" NAME="?append@?$basic_string@_WV?$char_traits@_W@stlp_std@@V?$memtrack_allocator@_W$0IMHGPCA@@2@@stlp_std@@QAEAAV12@ABV12@@Z" PURGE="4" COMMENT="" />
    <EXPORT ORDINAL="1336" NAME="?append@?$basic_string@_WV?$char_traits@_W@stlp_std@@V?$memtrack_allocator@_W$0IMHGPCA@@2@@stlp_std@@QAEAAV12@ABV12@II@Z" PURGE="12" COMMENT="" />
    <EXPORT ORDINAL="1337" NAME="?append@?$basic_string@_WV?$char_traits@_W@stlp_std@@V?$memtrack_allocator@_W$0IMHGPCA@@2@@stlp_std@@QAEAAV12@I_W@Z" PURGE="8" COMMENT="" />
    <EXPORT ORDINAL="1338" NAME="?append@?$basic_string@_WV?$char_traits@_W@stlp_std@@V?$memtrack_allocator@_W$0IMHGPCA@@2@@stlp_std@@QAEAAV12@PB_W0@Z" PURGE="8" COMMENT="" />
    <EXPORT ORDINAL="1339" NAME="?append@?$basic_string@_WV?$char_traits@_W@stlp_std@@V?$memtrack_allocator@_W$0IMHGPCA@@2@@stlp_std@@QAEAAV12@PB_W@Z" PURGE="4" COMMENT="" />
    <EXPORT ORDINAL="1340" NAME="?append@?$basic_string@_WV?$char_traits@_W@stlp_std@@V?$memtrack_allocator@_W$0IMHGPCA@@2@@stlp_std@@QAEAAV12@PB_WI@Z" PURGE="8" COMMENT="" />
    <EXPORT ORDINAL="1341" NAME="?applyAction@cImage@Orc@@QAE_NW4eImageCommand@2@@Z" PURGE="4" COMMENT="" />
    <EXPORT ORDINAL="1342" NAME="?applyDropShadowToTexture@Win32Font@Orc@@AAEXHHHHHHPAE@Z" PURGE="28" COMMENT="" />
    <EXPORT ORDINAL="1343" NAME="?applyFilter@cImage@Orc@@QAE_NQAY04F@Z" PURGE="4" COMMENT="" />
    <EXPORT ORDINAL="1344" NAME="?applyFilter@cImage@Orc@@QAE_NW4eImageFilter@2@@Z" PURGE="4" COMMENT="" />
    <EXPORT ORDINAL="1345" NAME="?applyGaussianBlurToTexture@Win32Font@Orc@@AAEXHHHHPAE@Z" PURGE="20" COMMENT="" />
    <EXPORT ORDINAL="1346" NAME="?applyGrayscale@cImage@Orc@@AAE_NXZ" PURGE="0" COMMENT="" />
    <EXPORT ORDINAL="1347" NAME="?applyOutlineToTexture@Win32Font@Orc@@AAEXHHHHHHPAE@Z" PURGE="28" COMMENT="" />
    <EXPORT ORDINAL="1348" NAME="?applyRotaryEffectToTexture@Win32Font@Orc@@AAEXHHHHPAE@Z" PURGE="20" COMMENT="" />
    <EXPORT ORDINAL="1349" NAME="?applyScanlineEffectToTexture@Win32Font@Orc@@AAEXHHHHPAE@Z" PURGE="20" COMMENT="" />
    <EXPORT ORDINAL="1350" NAME="?approximateLength@cSplineCR@Orc@@QAEMI@Z" PURGE="4" COMMENT="" />
    <EXPORT ORDINAL="1351" NAME="?assign@?$basic_string@DV?$char_traits@D@stlp_std@@V?$memtrack_allocator@D$0IMHGPCA@@2@@stlp_std@@QAEAAV12@ABV12@@Z" PURGE="4" COMMENT="" />
    <EXPORT ORDINAL="1352" NAME="?assign@?$basic_string@DV?$char_traits@D@stlp_std@@V?$memtrack_allocator@D$0IMHGPCA@@2@@stlp_std@@QAEAAV12@ABV12@II@Z" PURGE="12" COMMENT="" />
    <EXPORT ORDINAL="1353" NAME="?assign@?$basic_string@DV?$char_traits@D@stlp_std@@V?$memtrack_allocator@D$0IMHGPCA@@2@@stlp_std@@QAEAAV12@ID@Z" PURGE="8" COMMENT="" />
    <EXPORT ORDINAL="1354" NAME="?assign@?$basic_string@DV?$char_traits@D@stlp_std@@V?$memtrack_allocator@D$0IMHGPCA@@2@@stlp_std@@QAEAAV12@PBD0@Z" PURGE="8" COMMENT="" />
    <EXPORT ORDINAL="1355" NAME="?assign@?$basic_string@DV?$char_traits@D@stlp_std@@V?$memtrack_allocator@D$0IMHGPCA@@2@@stlp_std@@QAEAAV12@PBD@Z" PURGE="4" COMMENT="" />
    <EXPORT ORDINAL="1356" NAME="?assign@?$basic_string@DV?$char_traits@D@stlp_std@@V?$memtrack_allocator@D$0IMHGPCA@@2@@stlp_std@@QAEAAV12@PBDI@Z" PURGE="8" COMMENT="" />
    <EXPORT ORDINAL="1357" NAME="?assign@?$basic_string@_WV?$char_traits@_W@stlp_std@@V?$memtrack_allocator@_W$0IMHGPCA@@2@@stlp_std@@QAEAAV12@ABV12@@Z" PURGE="4" COMMENT="" />
    <EXPORT ORDINAL="1358" NAME="?assign@?$basic_string@_WV?$char_traits@_W@stlp_std@@V?$memtrack_allocator@_W$0IMHGPCA@@2@@stlp_std@@QAEAAV12@ABV12@II@Z" PURGE="12" COMMENT="" />
    <EXPORT ORDINAL="1359" NAME="?assign@?$basic_string@_WV?$char_traits@_W@stlp_std@@V?$memtrack_allocator@_W$0IMHGPCA@@2@@stlp_std@@QAEAAV12@I_W@Z" PURGE="8" COMMENT="" />
    <EXPORT ORDINAL="1360" NAME="?assign@?$basic_string@_WV?$char_traits@_W@stlp_std@@V?$memtrack_allocator@_W$0IMHGPCA@@2@@stlp_std@@QAEAAV12@PB_W0@Z" PURGE="8" COMMENT="" />
    <EXPORT ORDINAL="1361" NAME="?assign@?$basic_string@_WV?$char_traits@_W@stlp_std@@V?$memtrack_allocator@_W$0IMHGPCA@@2@@stlp_std@@QAEAAV12@PB_W@Z" PURGE="4" COMMENT="" />
    <EXPORT ORDINAL="1362" NAME="?assign@?$basic_string@_WV?$char_traits@_W@stlp_std@@V?$memtrack_allocator@_W$0IMHGPCA@@2@@stlp_std@@QAEAAV12@PB_WI@Z" PURGE="8" COMMENT="" />
    <EXPORT ORDINAL="1363" NAME="?assignTask@iQueuedThread@Orc@@QAEPAViQueuedTask@2@PAV32@@Z" PURGE="4" COMMENT="" />
    <EXPORT ORDINAL="1364" NAME="?async_read@cFile@Orc@@UAE_NPAXIP6AXI0@Z0@Z" PURGE="16" COMMENT="" />
    <EXPORT ORDINAL="1365" NAME="?async_read@cFileCached@Orc@@UAE_NPAXIIP6AXI0@Z0@Z" PURGE="20" COMMENT="" />
    <EXPORT ORDINAL="1366" NAME="?async_write@cFile@Orc@@UAE_NPBXIP6AXIPAX@Z1@Z" PURGE="16" COMMENT="" />
    <EXPORT ORDINAL="1367" NAME="?at@?$basic_string@DV?$char_traits@D@stlp_std@@V?$memtrack_allocator@D$0IMHGPCA@@2@@stlp_std@@QAEAADI@Z" PURGE="4" COMMENT="" />
    <EXPORT ORDINAL="1368" NAME="?at@?$basic_string@DV?$char_traits@D@stlp_std@@V?$memtrack_allocator@D$0IMHGPCA@@2@@stlp_std@@QBEABDI@Z" PURGE="4" COMMENT="" />
    <EXPORT ORDINAL="1369" NAME="?at@?$basic_string@_WV?$char_traits@_W@stlp_std@@V?$memtrack_allocator@_W$0IMHGPCA@@2@@stlp_std@@QAEAA_WI@Z" PURGE="4" COMMENT="" />
    <EXPORT ORDINAL="1370" NAME="?at@?$basic_string@_WV?$char_traits@_W@stlp_std@@V?$memtrack_allocator@_W$0IMHGPCA@@2@@stlp_std@@QBEAB_WI@Z" PURGE="4" COMMENT="" />
    <EXPORT ORDINAL="1371" NAME="?atan2@cMath@Orc@@SAMMM@Z" PURGE="0" COMMENT="" />
    <EXPORT ORDINAL="1372" NAME="?attach@cSubject@Orc@@UAEXPAVcObserver@2@@Z" PURGE="4" COMMENT="" />
    <EXPORT ORDINAL="1373" NAME="?begin@?$basic_string@DV?$char_traits@D@stlp_std@@V?$memtrack_allocator@D$0IMHGPCA@@2@@stlp_std@@QAEPADXZ" PURGE="0" COMMENT="" />
    <EXPORT ORDINAL="1374" NAME="?begin@?$basic_string@DV?$char_traits@D@stlp_std@@V?$memtrack_allocator@D$0IMHGPCA@@2@@stlp_std@@QBEPBDXZ" PURGE="0" COMMENT="" />
    <EXPORT ORDINAL="1375" NAME="?begin@?$basic_string@_WV?$char_traits@_W@stlp_std@@V?$memtrack_allocator@_W$0IMHGPCA@@2@@stlp_std@@QAEPA_WXZ" PURGE="0" COMMENT="" />
    <EXPORT ORDINAL="1376" NAME="?begin@?$basic_string@_WV?$char_traits@_W@stlp_std@@V?$memtrack_allocator@_W$0IMHGPCA@@2@@stlp_std@@QBEPB_WXZ" PURGE="0" COMMENT="" />
    <EXPORT ORDINAL="1377" NAME="?beginEvent@cMultiFrameProfiler@Orc@@SAXIPBD@Z" PURGE="0" COMMENT="" />
    <EXPORT ORDINAL="1378" NAME="?beginFrame@cMultiFrameProfiler@Orc@@SAXXZ" PURGE="0" COMMENT="" />
    <EXPORT ORDINAL="1379" NAME="?bindCurrentThread@cCpuBinding@Orc@@SAXW4eBinding@12@@Z" PURGE="0" COMMENT="" />
    <EXPORT ORDINAL="1380" NAME="?bitsPowerOfTwo@cMath@Orc@@SAII@Z" PURGE="0" COMMENT="" />
    <EXPORT ORDINAL="1381" NAME="?blowUpAddPoint@cRectRay@Orc@@SAXAAUsBlowUp@12@ABUD3DXVECTOR3@@@Z" PURGE="0" COMMENT="" />
    <EXPORT ORDINAL="1382" NAME="?blowUpAddPoints@cRectRay@Orc@@SAXAAUsBlowUp@12@PBUD3DXVECTOR3@@I@Z" PURGE="0" COMMENT="" />
    <EXPORT ORDINAL="1383" NAME="?blowUpFinish@cRectRay@Orc@@QAEXABUsBlowUp@12@_N@Z" PURGE="8" COMMENT="" />
    <EXPORT ORDINAL="1384" NAME="?blowUpInit@cRectRay@Orc@@QAEXAAUsBlowUp@12@@Z" PURGE="4" COMMENT="" />
    <EXPORT ORDINAL="1385" NAME="?buildChannels@MD5Anim@Orc@@AAEXAAVMD5Mesh@2@M@Z" PURGE="8" COMMENT="" />
    <EXPORT ORDINAL="1386" NAME="?buildHierarchy@MD5Mesh@Orc@@QAEXXZ" PURGE="0" COMMENT="" />
    <EXPORT ORDINAL="1387" NAME="?buildPixel@cPixelFormat@Orc@@QBEIEEEE@Z" PURGE="16" COMMENT="" />
    <EXPORT ORDINAL="1388" NAME="?buildPixel@cPixelFormat@Orc@@QBEIIIII@Z" PURGE="16" COMMENT="" />
    <EXPORT ORDINAL="1389" NAME="?buildPixel@cPixelFormat@Orc@@QBEIMMMM@Z" PURGE="16" COMMENT="" />
    <EXPORT ORDINAL="1390" NAME="?buildRelativePath@FileSystem@Orc@@SA?AVString@2@ABV32@0@Z" PURGE="0" COMMENT="" />
    <EXPORT ORDINAL="1391" NAME="?buildRotMatrixFromNormals@cMath@Orc@@SA?AUD3DXMATRIX@@PBUD3DXVECTOR3@@0@Z" PURGE="0" COMMENT="" />
    <EXPORT ORDINAL="1392" NAME="?buildTable@cCodecHuffman@Orc@@AAEPAVsHuffman@12@V?$vector@PAVsHuffman@cCodecHuffman@Orc@@V?$allocator@PAVsHuffman@cCodecHuffman@Orc@@@stlp_std@@@stlp_std@@@Z" PURGE="12" COMMENT="" />
    <EXPORT ORDINAL="1393" NAME="?bumpmap@cImage@Orc@@QAE_NAAV12@H@Z" PURGE="8" COMMENT="" />
    <EXPORT ORDINAL="1394" NAME="?c_str@?$basic_string@DV?$char_traits@D@stlp_std@@V?$memtrack_allocator@D$0IMHGPCA@@2@@stlp_std@@QBEPBDXZ" PURGE="0" COMMENT="" />
    <EXPORT ORDINAL="1395" NAME="?c_str@?$basic_string@_WV?$char_traits@_W@stlp_std@@V?$memtrack_allocator@_W$0IMHGPCA@@2@@stlp_std@@QBEPB_WXZ" PURGE="0" COMMENT="" />
    <EXPORT ORDINAL="1396" NAME="?calcBlockId@cDataStore@Orc@@SA?AUsBlockId@12@PBD@Z" PURGE="0" COMMENT="" />
    <EXPORT ORDINAL="1397" NAME="?calcCRC@cCRC32@Orc@@QAEIPBEI@Z" PURGE="8" COMMENT="" />
    <EXPORT ORDINAL="1398" NAME="?calcCRC@cCRC32@Orc@@SAIPBD@Z" PURGE="0" COMMENT="" />
    <EXPORT ORDINAL="1399" NAME="?calcHash@StringTools@Orc@@SAIPBD@Z" PURGE="0" COMMENT="" />
    <EXPORT ORDINAL="1400" NAME="?calcHash@StringTools@Orc@@SAIPBDPAE@Z" PURGE="0" COMMENT="" />
    <EXPORT ORDINAL="1401" NAME="?calculateClockSpeed@ProcessorInfo@Orc@@SA_J_N@Z" PURGE="0" COMMENT="" />
    <EXPORT ORDINAL="1402" NAME="?calculateEventTime@Root@Orc@@AAEMABVTimerCycle@2@W4FrameEventTimeType@12@@Z" PURGE="8" COMMENT="" />
    <EXPORT ORDINAL="1403" NAME="?call@ProfileNode@Orc@@QAEXXZ" PURGE="0" COMMENT="" />
    <EXPORT ORDINAL="1404" NAME="?canAffect@Particle@Orc@@QAE_NI@Z" PURGE="4" COMMENT="" />
    <EXPORT ORDINAL="1405" NAME="?canPreloadSounds@iSoundSystem@Orc@@QBE_NXZ" PURGE="0" COMMENT="" />
    <EXPORT ORDINAL="1406" NAME="?capacity@?$basic_string@DV?$char_traits@D@stlp_std@@V?$memtrack_allocator@D$0IMHGPCA@@2@@stlp_std@@QBEIXZ" PURGE="0" COMMENT="" />
    <EXPORT ORDINAL="1407" NAME="?capacity@?$basic_string@_WV?$char_traits@_W@stlp_std@@V?$memtrack_allocator@_W$0IMHGPCA@@2@@stlp_std@@QBEIXZ" PURGE="0" COMMENT="" />
    <EXPORT ORDINAL="1408" NAME="?capture@cMultiFrameProfiler@Orc@@SA_NPBDE@Z" PURGE="0" COMMENT="" />
    <EXPORT ORDINAL="1409" NAME="?center3@cBoundingBoxAA@Orc@@QBE?AUD3DXVECTOR3@@XZ" PURGE="4" COMMENT="" />
    <EXPORT ORDINAL="1410" NAME="?center4@cBoundingBoxAA@Orc@@QBE?AUD3DXVECTOR4@@XZ" PURGE="4" COMMENT="" />
    <EXPORT ORDINAL="1411" NAME="?changeIndent@LogManager@Orc@@IAEXH@Z" PURGE="4" COMMENT="" />
    <EXPORT ORDINAL="1412" NAME="?check3DNowTechnology@ProcessorInfo@Orc@@ABE_NXZ" PURGE="0" COMMENT="" />
    <EXPORT ORDINAL="1413" NAME="?checkACPI@ProcessorInfo@Orc@@ABE_NXZ" PURGE="0" COMMENT="" />
    <EXPORT ORDINAL="1414" NAME="?checkCMOVTechnology@ProcessorInfo@Orc@@ABE_NXZ" PURGE="0" COMMENT="" />
    <EXPORT ORDINAL="1415" NAME="?checkCpuName@ProcessorInfo@Orc@@AAE_NXZ" PURGE="0" COMMENT="" />
    <EXPORT ORDINAL="1416" NAME="?checkCpuSerial@ProcessorInfo@Orc@@ABE_NXZ" PURGE="0" COMMENT="" />
    <EXPORT ORDINAL="1417" NAME="?checkDefLogLevel@LogManager@Orc@@SA_NW4LogMessageLevel@2@@Z" PURGE="0" COMMENT="" />
    <EXPORT ORDINAL="1418" NAME="?checkFCMOVTechnology@ProcessorInfo@Orc@@ABE_NXZ" PURGE="0" COMMENT="" />
    <EXPORT ORDINAL="1419" NAME="?checkFPU@ProcessorInfo@Orc@@ABE_NXZ" PURGE="0" COMMENT="" />
    <EXPORT ORDINAL="1420" NAME="?checkForError@iSoundSystem@Orc@@UAE_NABVString@2@_N@Z" PURGE="8" COMMENT="" />
    <EXPORT ORDINAL="1421" NAME="?checkHeaderWAV@iSoundVorbis@Orc@@AAE_NPBEABVString@2@@Z" PURGE="8" COMMENT="" />
    <EXPORT ORDINAL="1422" NAME="?checkIA64Technology@ProcessorInfo@Orc@@ABE_NXZ" PURGE="0" COMMENT="" />
    <EXPORT ORDINAL="1423" NAME="?checkMMXTechnology@ProcessorInfo@Orc@@ABE_NXZ" PURGE="0" COMMENT="" />
    <EXPORT ORDINAL="1424" NAME="?checkPriority@iSoundSystem@Orc@@MAE_NIAAV?$vector@IV?$allocator@I@stlp_std@@@stlp_std@@PAViSoundSource@2@@Z" PURGE="12" COMMENT="" />
    <EXPORT ORDINAL="1425" NAME="?checkRDTSCTechnology@ProcessorInfo@Orc@@ABE_NXZ" PURGE="0" COMMENT="" />
    <EXPORT ORDINAL="1426" NAME="?checkSSE2Technology@ProcessorInfo@Orc@@ABE_NXZ" PURGE="0" COMMENT="" />
    <EXPORT ORDINAL="1427" NAME="?checkSSE3Technology@ProcessorInfo@Orc@@ABE_NXZ" PURGE="0" COMMENT="" />
    <EXPORT ORDINAL="1428" NAME="?checkSSETechnology@ProcessorInfo@Orc@@ABE_NXZ" PURGE="0" COMMENT="" />
    <EXPORT ORDINAL="1429" NAME="?checkSerialCPU@ProcessorInfo@Orc@@ABE_NXZ" PURGE="0" COMMENT="" />
    <EXPORT ORDINAL="1430" NAME="?checkSoundfile@iSoundSystem@Orc@@MAEXPAViSoundSource@2@_N@Z" PURGE="8" COMMENT="" />
    <EXPORT ORDINAL="1431" NAME="?checkSoundfileAndPlay@iSoundSystem@Orc@@MAE_NPAViSoundSource@2@_N@Z" PURGE="8" COMMENT="" />
    <EXPORT ORDINAL="1432" NAME="?checkSpeedstep@ProcessorInfo@Orc@@ABE_NXZ" PURGE="0" COMMENT="" />
    <EXPORT ORDINAL="1433" NAME="?checkThermalMonitor@ProcessorInfo@Orc@@ABE_NXZ" PURGE="0" COMMENT="" />
    <EXPORT ORDINAL="1434" NAME="?checkUsage@cResourceManager@Orc@@AAE_NAAUsCheckUsage@12@II@Z" PURGE="12" COMMENT="" />
    <EXPORT ORDINAL="1435" NAME="?checkUsage@cResourceManager@Orc@@UAEXXZ" PURGE="0" COMMENT="" />
    <EXPORT ORDINAL="1436" NAME="?checkUsageFlush@cResourceManager@Orc@@AAE_NAAUsCheckUsage@12@@Z" PURGE="4" COMMENT="" />
    <EXPORT ORDINAL="1437" NAME="?cleanupArchives@cArchiveContainer@Orc@@QAEXXZ" PURGE="-1" COMMENT="" />
    <EXPORT ORDINAL="1438" NAME="?clear@?$basic_string@DV?$char_traits@D@stlp_std@@V?$memtrack_allocator@D$0IMHGPCA@@2@@stlp_std@@QAEXXZ" PURGE="0" COMMENT="" />
    <EXPORT ORDINAL="1439" NAME="?clear@?$basic_string@_WV?$char_traits@_W@stlp_std@@V?$memtrack_allocator@_W$0IMHGPCA@@2@@stlp_std@@QAEXXZ" PURGE="0" COMMENT="" />
    <EXPORT ORDINAL="1440" NAME="?clear@Breakpoint@Orc@@QAEXXZ" PURGE="0" COMMENT="" />
    <EXPORT ORDINAL="1441" NAME="?clear@cFileMem@Orc@@QAEXXZ" PURGE="0" COMMENT="" />
    <EXPORT ORDINAL="1442" NAME="?clear@cSplineCR@Orc@@QAEXXZ" PURGE="0" COMMENT="" />
    <EXPORT ORDINAL="1443" NAME="?clearEventTimes@Root@Orc@@QAEXXZ" PURGE="0" COMMENT="" />
    <EXPORT ORDINAL="1444" NAME="?clip@cMath@Orc@@SAXABVFrustum@2@AAVPolygonObject@2@@Z" PURGE="0" COMMENT="" />
    <EXPORT ORDINAL="1445" NAME="?clip@cMath@Orc@@SAXABVcBoundingBoxAA@2@AAVPolygonObject@2@@Z" PURGE="0" COMMENT="" />
    <EXPORT ORDINAL="1446" NAME="?clip@cRectangle@Orc@@QAEXABV12@@Z" PURGE="4" COMMENT="" />
    <EXPORT ORDINAL="1447" NAME="?close@cDataStore@Orc@@QAEXXZ" PURGE="0" COMMENT="" />
    <EXPORT ORDINAL="1448" NAME="?close@cFileDisk@Orc@@QAE_NXZ" PURGE="0" COMMENT="" />
    <EXPORT ORDINAL="1449" NAME="?close@cFileMem@Orc@@UAE_NXZ" PURGE="0" COMMENT="" />
    <EXPORT ORDINAL="1450" NAME="?close@cFileTempMem@Orc@@UAE_NXZ" PURGE="0" COMMENT="" />
    <EXPORT ORDINAL="1451" NAME="?close@cGate@Orc@@QAEXXZ" PURGE="0" COMMENT="" />
    <EXPORT ORDINAL="1452" NAME="?close@iSound3DStereo@Orc@@UAEXXZ" PURGE="0" COMMENT="" />
    <EXPORT ORDINAL="1453" NAME="?close@iSound3DSubwoofer@Orc@@UAEXXZ" PURGE="0" COMMENT="" />
    <EXPORT ORDINAL="1454" NAME="?close@iSoundClip@Orc@@UAEXXZ" PURGE="0" COMMENT="" />
    <EXPORT ORDINAL="1455" NAME="?close@iSoundVorbis@Orc@@UAEXXZ" PURGE="0" COMMENT="" />
    <EXPORT ORDINAL="1456" NAME="?clrCanvas@cImage@Orc@@QAEXXZ" PURGE="0" COMMENT="" />
    <EXPORT ORDINAL="1457" NAME="?compare@?$basic_string@DV?$char_traits@D@stlp_std@@V?$memtrack_allocator@D$0IMHGPCA@@2@@stlp_std@@QBEHABV12@@Z" PURGE="4" COMMENT="" />
    <EXPORT ORDINAL="1458" NAME="?compare@?$basic_string@DV?$char_traits@D@stlp_std@@V?$memtrack_allocator@D$0IMHGPCA@@2@@stlp_std@@QBEHIIABV12@@Z" PURGE="12" COMMENT="" />
    <EXPORT ORDINAL="1459" NAME="?compare@?$basic_string@DV?$char_traits@D@stlp_std@@V?$memtrack_allocator@D$0IMHGPCA@@2@@stlp_std@@QBEHIIABV12@II@Z" PURGE="20" COMMENT="" />
    <EXPORT ORDINAL="1460" NAME="?compare@?$basic_string@DV?$char_traits@D@stlp_std@@V?$memtrack_allocator@D$0IMHGPCA@@2@@stlp_std@@QBEHIIPBD@Z" PURGE="12" COMMENT="" />
    <EXPORT ORDINAL="1461" NAME="?compare@?$basic_string@DV?$char_traits@D@stlp_std@@V?$memtrack_allocator@D$0IMHGPCA@@2@@stlp_std@@QBEHIIPBDI@Z" PURGE="16" COMMENT="" />
    <EXPORT ORDINAL="1462" NAME="?compare@?$basic_string@DV?$char_traits@D@stlp_std@@V?$memtrack_allocator@D$0IMHGPCA@@2@@stlp_std@@QBEHPBD@Z" PURGE="4" COMMENT="" />
    <EXPORT ORDINAL="1463" NAME="?compare@?$basic_string@_WV?$char_traits@_W@stlp_std@@V?$memtrack_allocator@_W$0IMHGPCA@@2@@stlp_std@@QBEHABV12@@Z" PURGE="4" COMMENT="" />
    <EXPORT ORDINAL="1464" NAME="?compare@?$basic_string@_WV?$char_traits@_W@stlp_std@@V?$memtrack_allocator@_W$0IMHGPCA@@2@@stlp_std@@QBEHIIABV12@@Z" PURGE="12" COMMENT="" />
    <EXPORT ORDINAL="1465" NAME="?compare@?$basic_string@_WV?$char_traits@_W@stlp_std@@V?$memtrack_allocator@_W$0IMHGPCA@@2@@stlp_std@@QBEHIIABV12@II@Z" PURGE="20" COMMENT="" />
    <EXPORT ORDINAL="1466" NAME="?compare@?$basic_string@_WV?$char_traits@_W@stlp_std@@V?$memtrack_allocator@_W$0IMHGPCA@@2@@stlp_std@@QBEHIIPB_W@Z" PURGE="12" COMMENT="" />
    <EXPORT ORDINAL="1467" NAME="?compare@?$basic_string@_WV?$char_traits@_W@stlp_std@@V?$memtrack_allocator@_W$0IMHGPCA@@2@@stlp_std@@QBEHIIPB_WI@Z" PURGE="16" COMMENT="" />
    <EXPORT ORDINAL="1468" NAME="?compare@?$basic_string@_WV?$char_traits@_W@stlp_std@@V?$memtrack_allocator@_W$0IMHGPCA@@2@@stlp_std@@QBEHPB_W@Z" PURGE="4" COMMENT="" />
    <EXPORT ORDINAL="1469" NAME="?compare@StringTools@Orc@@SAHPBD0@Z" PURGE="0" COMMENT="" />
    <EXPORT ORDINAL="1470" NAME="?compare@StringTools@Orc@@SAHPBD0PAE@Z" PURGE="0" COMMENT="" />
    <EXPORT ORDINAL="1471" NAME="?computeAxisAligned@cBoundingBox@Orc@@QAEXABV?$vector@UD3DXVECTOR3@@V?$allocator@UD3DXVECTOR3@@@stlp_std@@@stlp_std@@@Z" PURGE="4" COMMENT="" />
    <EXPORT ORDINAL="1472" NAME="?computeAxisAligned@cBoundingBox@Orc@@QAEXPBUD3DXVECTOR3@@I@Z" PURGE="8" COMMENT="" />
    <EXPORT ORDINAL="1473" NAME="?computeBuildNumber@BuildNumber@Orc@@SAHPBD@Z" PURGE="0" COMMENT="" />
    <EXPORT ORDINAL="1474" NAME="?computeDate@BuildDate@Orc@@AAEXPBD@Z" PURGE="4" COMMENT="" />
    <EXPORT ORDINAL="1475" NAME="?computeTime@BuildDate@Orc@@AAEXPBD@Z" PURGE="4" COMMENT="" />
    <EXPORT ORDINAL="1476" NAME="?connectBones@MD5Anim@Orc@@QAEXAAVMD5Mesh@2@@Z" PURGE="4" COMMENT="" />
    <EXPORT ORDINAL="1477" NAME="?convert@cMath@Orc@@SAXAAVcBoundingBoxAA@2@ABVcOBB@2@@Z" PURGE="0" COMMENT="" />
    <EXPORT ORDINAL="1478" NAME="?convert@cMath@Orc@@SAXAAVcOBB@2@ABVcBoundingBox@2@@Z" PURGE="0" COMMENT="" />
    <EXPORT ORDINAL="1479" NAME="?convertHexToInt32@TextToken@Orc@@QBEHXZ" PURGE="0" COMMENT="" />
    <EXPORT ORDINAL="1480" NAME="?convertStream@cPixelFormat@Orc@@SAIABV12@PAEI01I@Z" PURGE="0" COMMENT="" />
    <EXPORT ORDINAL="1481" NAME="?convertStreamFS@cPixelFormat@Orc@@SAIABV12@PAE01II@Z" PURGE="0" COMMENT="" />
    <EXPORT ORDINAL="1482" NAME="?convertToFloat32@TextToken@Orc@@QBEMXZ" PURGE="0" COMMENT="" />
    <EXPORT ORDINAL="1483" NAME="?convertToInt32@TextToken@Orc@@QBEHXZ" PURGE="0" COMMENT="" />
    <EXPORT ORDINAL="1484" NAME="?convertToString@TextToken@Orc@@QBE?AVString@2@XZ" PURGE="4" COMMENT="" />
    <EXPORT ORDINAL="1485" NAME="?convertToU16@TextToken@Orc@@QBEGXZ" PURGE="0" COMMENT="" />
    <EXPORT ORDINAL="1486" NAME="?convert_sse@cMath@Orc@@SAXAAVcBoundingBoxAA@2@ABVcOBB@2@@Z" PURGE="0" COMMENT="" />
    <EXPORT ORDINAL="1487" NAME="?copy@?$basic_string@DV?$char_traits@D@stlp_std@@V?$memtrack_allocator@D$0IMHGPCA@@2@@stlp_std@@QBEIPADII@Z" PURGE="12" COMMENT="" />
    <EXPORT ORDINAL="1488" NAME="?copy@?$basic_string@_WV?$char_traits@_W@stlp_std@@V?$memtrack_allocator@_W$0IMHGPCA@@2@@stlp_std@@QBEIPA_WII@Z" PURGE="12" COMMENT="" />
    <EXPORT ORDINAL="1489" NAME="?copyBlock@cDataStore@Orc@@QAE_NPBDABV12@@Z" PURGE="8" COMMENT="" />
    <EXPORT ORDINAL="1490" NAME="?copyBlock@cDataStore@Orc@@QAE_NUsBlockId@12@ABV12@@Z" PURGE="8" COMMENT="" />
    <EXPORT ORDINAL="1491" NAME="?copyFile@FileSystem@Orc@@SA_NABVString@2@0_N@Z" PURGE="0" COMMENT="" />
    <EXPORT ORDINAL="1492" NAME="?copyParametersToBinary@ParticleAffector@Orc@@UBEXPAV12@@Z" PURGE="4" COMMENT="" />
    <EXPORT ORDINAL="1493" NAME="?copyParametersToBinary@ParticleEmitter@Orc@@UBEXPAV12@@Z" PURGE="4" COMMENT="" />
    <EXPORT ORDINAL="1494" NAME="?copyPart@cImage@Orc@@QAE_NAAV12@GGGGGG@Z" PURGE="28" COMMENT="" />
    <EXPORT ORDINAL="1495" NAME="?correctMinMax@cBoundingBoxAA@Orc@@QAEXXZ" PURGE="0" COMMENT="" />
    <EXPORT ORDINAL="1496" NAME="?cos@cMath@Orc@@2P6AMM@ZA" PURGE="-1" COMMENT="" />
    <EXPORT ORDINAL="1497" NAME="?cos_base@cMath@Orc@@CAMM@Z" PURGE="0" COMMENT="" />
    <EXPORT ORDINAL="1498" NAME="?cos_sse2@cMath@Orc@@CAMM@Z" PURGE="0" COMMENT="" />
    <EXPORT ORDINAL="1499" NAME="?cos_sse@cMath@Orc@@CAMM@Z" PURGE="0" COMMENT="" />
    <EXPORT ORDINAL="1500" NAME="?countFrequencies@cCodecHuffman@Orc@@AAEIAAVcFile@2@V?$vector@PAVsHuffman@cCodecHuffman@Orc@@V?$allocator@PAVsHuffman@cCodecHuffman@Orc@@@stlp_std@@@stlp_std@@@Z" PURGE="16" COMMENT="" />
    <EXPORT ORDINAL="1501" NAME="?countVoices_2D@iSoundSystem@Orc@@QBE?BIXZ" PURGE="0" COMMENT="" />
    <EXPORT ORDINAL="1502" NAME="?countVoices_3D@iSoundSystem@Orc@@QBE?BIXZ" PURGE="0" COMMENT="" />
    <EXPORT ORDINAL="1503" NAME="?countVoices_51@iSoundSystem@Orc@@QBE?BIXZ" PURGE="0" COMMENT="" />
    <EXPORT ORDINAL="1504" NAME="?create3DStereo@iSoundSystem@Orc@@MAEPAViSound3DStereo@2@XZ" PURGE="0" COMMENT="" />
    <EXPORT ORDINAL="1505" NAME="?create3DSubwoofer@iSoundSystem@Orc@@MAEPAViSound3DSubwoofer@2@XZ" PURGE="0" COMMENT="" />
    <EXPORT ORDINAL="1506" NAME="?create@ArchiveManager@Orc@@UAEPAVcResource@2@ABVString@2@PAX@Z" PURGE="8" COMMENT="" />
    <EXPORT ORDINAL="1507" NAME="?create@MovieManager@Orc@@UAEPAViMovie@2@ABVString@2@0@Z" PURGE="8" COMMENT="" />
    <EXPORT ORDINAL="1508" NAME="?create@Win32Font@Orc@@QAE_NPBDHHHHH@Z" PURGE="24" COMMENT="" />
    <EXPORT ORDINAL="1509" NAME="?create@cResourceManager@Orc@@MAEPAVcResource@2@ABVString@2@PAX@Z" PURGE="8" COMMENT="" />
    <EXPORT ORDINAL="1510" NAME="?createAndPlay3DStereo@iSoundSystem@Orc@@MAEPAViSound3DStereo@2@PAViSoundSource@2@@Z" PURGE="4" COMMENT="" />
    <EXPORT ORDINAL="1511" NAME="?createAndPlay3DSubwoofer@iSoundSystem@Orc@@MAEPAViSound3DSubwoofer@2@PAViSoundSource@2@@Z" PURGE="4" COMMENT="" />
    <EXPORT ORDINAL="1512" NAME="?createAndPlayVorbis@iSoundSystem@Orc@@MAEPAViSoundVorbis@2@PAViSoundSource@2@@Z" PURGE="4" COMMENT="" />
    <EXPORT ORDINAL="1513" NAME="?createConfigDialog@PlatformManager@Orc@@QAEPAVConfigDialog@2@XZ" PURGE="0" COMMENT="" />
    <EXPORT ORDINAL="1514" NAME="?createErrorDialog@PlatformManager@Orc@@QAEPAVErrorDialog@2@XZ" PURGE="0" COMMENT="" />
    <EXPORT ORDINAL="1515" NAME="?createField@Perlin@Orc@@SAPAEIII@Z" PURGE="0" COMMENT="" />
    <EXPORT ORDINAL="1516" NAME="?createFieldWithOctave123@Perlin@Orc@@SAPAY03EIII@Z" PURGE="0" COMMENT="" />
    <EXPORT ORDINAL="1517" NAME="?createFieldWithOctave123@Perlin@Orc@@SAPAY03EIIII@Z" PURGE="0" COMMENT="" />
    <EXPORT ORDINAL="1518" NAME="?createInputReader@PlatformManager@Orc@@QAEPAVInputReader@2@XZ" PURGE="0" COMMENT="" />
    <EXPORT ORDINAL="1519" NAME="?createLog@LogManager@Orc@@QAEPAVLog@2@ABVString@2@_N11@Z" PURGE="16" COMMENT="" />
    <EXPORT ORDINAL="1520" NAME="?createParamDictionary@StringInterface@Orc@@IAE_NABVString@2@@Z" PURGE="4" COMMENT="" />
    <EXPORT ORDINAL="1521" NAME="?createSplashDialog@PlatformManager@Orc@@QAEPAVSplashDialog@2@XZ" PURGE="0" COMMENT="" />
    <EXPORT ORDINAL="1522" NAME="?createSystem@ParticleSystemMgr@Orc@@QAEPAVParticleSystem@2@ABVString@2@0@Z" PURGE="8" COMMENT="" />
    <EXPORT ORDINAL="1523" NAME="?createSystem@ParticleSystemMgr@Orc@@QAEPAVParticleSystem@2@ABVString@2@I@Z" PURGE="8" COMMENT="" />
    <EXPORT ORDINAL="1524" NAME="?createTemplate@ParticleSystemMgr@Orc@@QAEPAVParticleSystem@2@ABVString@2@@Z" PURGE="4" COMMENT="" />
    <EXPORT ORDINAL="1525" NAME="?createVorbisStream@iSoundSystem@Orc@@MAEPAViSoundVorbis@2@XZ" PURGE="0" COMMENT="" />
    <EXPORT ORDINAL="1526" NAME="?crop@cImage@Orc@@QAE_NHHHH@Z" PURGE="16" COMMENT="" />
    <EXPORT ORDINAL="1527" NAME="?cropAlphaBox@cImage@Orc@@QAE_NAAH000@Z" PURGE="16" COMMENT="" />
    <EXPORT ORDINAL="1528" NAME="?curve@Perlin@Orc@@KAMM@Z" PURGE="0" COMMENT="" />
    <EXPORT ORDINAL="1529" NAME="?data@?$basic_string@DV?$char_traits@D@stlp_std@@V?$memtrack_allocator@D$0IMHGPCA@@2@@stlp_std@@QBEPBDXZ" PURGE="0" COMMENT="" />
    <EXPORT ORDINAL="1530" NAME="?data@?$basic_string@_WV?$char_traits@_W@stlp_std@@V?$memtrack_allocator@_W$0IMHGPCA@@2@@stlp_std@@QBEPB_WXZ" PURGE="0" COMMENT="" />
    <EXPORT ORDINAL="1531" NAME="?debugInfo@MD5Mesh@Orc@@QAEXXZ" PURGE="0" COMMENT="" />
    <EXPORT ORDINAL="1532" NAME="?debugLog@TimerInit@Orc@@SAXXZ" PURGE="0" COMMENT="" />
    <EXPORT ORDINAL="1533" NAME="?debugLog@cResourceManager@Orc@@QAEXG@Z" PURGE="4" COMMENT="" />
    <EXPORT ORDINAL="1534" NAME="?debugTable@cCodecHuffman@Orc@@AAEXV?$vector@PAVsHuffman@cCodecHuffman@Orc@@V?$allocator@PAVsHuffman@cCodecHuffman@Orc@@@stlp_std@@@stlp_std@@@Z" PURGE="12" COMMENT="" />
    <EXPORT ORDINAL="1535" NAME="?decCurrentLoop@iSoundSource@Orc@@QAEXXZ" PURGE="0" COMMENT="" />
    <EXPORT ORDINAL="1536" NAME="?decRefCount@cResource@Orc@@QAEXXZ" PURGE="0" COMMENT="" />
    <EXPORT ORDINAL="1537" NAME="?decode@cCodecHuffman@Orc@@UAA_NAAVcFile@2@0ZZ" PURGE="0" COMMENT="" />
    <EXPORT ORDINAL="1538" NAME="?decode@cCodecLZ77@Orc@@UAA_NAAVcFile@2@0ZZ" PURGE="0" COMMENT="" />
    <EXPORT ORDINAL="1539" NAME="?decode@cCodecLZW@Orc@@UAA_NAAVcFile@2@0ZZ" PURGE="0" COMMENT="" />
    <EXPORT ORDINAL="1540" NAME="?decode@cCodecMTF@Orc@@SA_NPAXPBXI@Z" PURGE="0" COMMENT="" />
    <EXPORT ORDINAL="1541" NAME="?decode@cCodecMTF@Orc@@UAA_NAAVcFile@2@0ZZ" PURGE="0" COMMENT="" />
    <EXPORT ORDINAL="1542" NAME="?decode@cCodecMulti@Orc@@QAA_NAAVcFile@2@0ZZ" PURGE="0" COMMENT="" />
    <EXPORT ORDINAL="1543" NAME="?decode@cCodecZIP@Orc@@QAE_NAAVcFileMem@2@0@Z" PURGE="8" COMMENT="" />
    <EXPORT ORDINAL="1544" NAME="?decode@cCodecZIP@Orc@@UAA_NAAVcFile@2@0ZZ" PURGE="0" COMMENT="" />
    <EXPORT ORDINAL="1545" NAME="?decodeEx@cCodecZIP@Orc@@QAE_NAAVcFileMem@2@0@Z" PURGE="8" COMMENT="" />
    <EXPORT ORDINAL="1546" NAME="?decodePixelFormat@cIO_dds@Orc@@AAEXIAAI@Z" PURGE="8" COMMENT="" />
    <EXPORT ORDINAL="1547" NAME="?decodeVorbis@iSoundSystem@Orc@@UAE_NPBXIAAVMemBlk@@@Z" PURGE="12" COMMENT="" />
    <EXPORT ORDINAL="1548" NAME="?decode_string@cCodecLZW@Orc@@IAEIII@Z" PURGE="8" COMMENT="" />
    <EXPORT ORDINAL="1549" NAME="?decompress@cIO_dds@Orc@@AAE_NABUcIO_ddsInfo@12@AAVcImage@2@@Z" PURGE="8" COMMENT="" />
    <EXPORT ORDINAL="1550" NAME="?decreasePriority@iSoundChannel@Orc@@AAEXXZ" PURGE="0" COMMENT="" />
    <EXPORT ORDINAL="1551" NAME="?defLevelMessage@LogManager@Orc@@SAXPBDZZ" PURGE="0" COMMENT="" />
    <EXPORT ORDINAL="1552" NAME="?defaultLogLevel@LogManager@Orc@@2W4LoggingLevel@2@A" PURGE="-1" COMMENT="" />
    <EXPORT ORDINAL="1553" NAME="?defaultPose@MD5Mesh@Orc@@QAEXXZ" PURGE="0" COMMENT="" />
    <EXPORT ORDINAL="1554" NAME="?deg2rad@cMath@Orc@@SAMM@Z" PURGE="0" COMMENT="" />
    <EXPORT ORDINAL="1555" NAME="?deinit@StringTools@Orc@@SAXXZ" PURGE="0" COMMENT="" />
    <EXPORT ORDINAL="1556" NAME="?deinit@cCpuBinding@Orc@@SAXXZ" PURGE="0" COMMENT="" />
    <EXPORT ORDINAL="1557" NAME="?deleteFile@FileSystem@Orc@@SA_NABVString@2@@Z" PURGE="0" COMMENT="" />
    <EXPORT ORDINAL="1558" NAME="?destroy3DStereo@iSoundSystem@Orc@@MAE_NPBViSoundSource@2@I@Z" PURGE="8" COMMENT="" />
    <EXPORT ORDINAL="1559" NAME="?destroy3DStereo@iSoundSystem@Orc@@UAE_NPBViSound3DStereo@2@I@Z" PURGE="8" COMMENT="" />
    <EXPORT ORDINAL="1560" NAME="?destroy3DSubwoofer@iSoundSystem@Orc@@MAE_NPBViSoundSource@2@I@Z" PURGE="8" COMMENT="" />
    <EXPORT ORDINAL="1561" NAME="?destroy3DSubwoofer@iSoundSystem@Orc@@UAE_NPBViSound3DSubwoofer@2@I@Z" PURGE="8" COMMENT="" />
    <EXPORT ORDINAL="1562" NAME="?destroy@ArchiveManager@Orc@@UAEXPAVcResource@2@@Z" PURGE="4" COMMENT="" />
    <EXPORT ORDINAL="1563" NAME="?destroy@MovieManager@Orc@@UAEXPAViMovie@2@@Z" PURGE="4" COMMENT="" />
    <EXPORT ORDINAL="1564" NAME="?destroy@RingBufferByte@Orc@@QAEXXZ" PURGE="0" COMMENT="" />
    <EXPORT ORDINAL="1565" NAME="?destroy@SoundSystemManager@Orc@@MAEXPAVcResource@2@@Z" PURGE="4" COMMENT="" />
    <EXPORT ORDINAL="1566" NAME="?destroyAffector@ParticleAffectorFactory@Orc@@UAEXPAVParticleAffector@2@@Z" PURGE="4" COMMENT="" />
    <EXPORT ORDINAL="1567" NAME="?destroyConfigDialog@PlatformManager@Orc@@QAEXPAVConfigDialog@2@@Z" PURGE="4" COMMENT="" />
    <EXPORT ORDINAL="1568" NAME="?destroyEmitter@ParticleEmitterFactory@Orc@@UAEXPAVParticleEmitter@2@@Z" PURGE="4" COMMENT="" />
    <EXPORT ORDINAL="1569" NAME="?destroyErrorDialog@PlatformManager@Orc@@QAEXPAVErrorDialog@2@@Z" PURGE="4" COMMENT="" />
    <EXPORT ORDINAL="1570" NAME="?destroyInputReader@PlatformManager@Orc@@QAEXPAVInputReader@2@@Z" PURGE="4" COMMENT="" />
    <EXPORT ORDINAL="1571" NAME="?destroySoundClip@iSoundSystem@Orc@@UAE_NPAViSoundClip@2@I@Z" PURGE="8" COMMENT="" />
    <EXPORT ORDINAL="1572" NAME="?destroySoundClip@iSoundSystem@Orc@@UAE_NPAViSoundSource@2@I@Z" PURGE="8" COMMENT="" />
    <EXPORT ORDINAL="1573" NAME="?destroySplashDialog@PlatformManager@Orc@@QAEXPAVSplashDialog@2@@Z" PURGE="4" COMMENT="" />
    <EXPORT ORDINAL="1574" NAME="?destroySystem@ParticleSystemMgr@Orc@@QAEXPAVParticleSystem@2@@Z" PURGE="4" COMMENT="" />
    <EXPORT ORDINAL="1575" NAME="?destroyTemplate@ParticleSystemMgr@Orc@@QAEXABVString@2@@Z" PURGE="4" COMMENT="" />
    <EXPORT ORDINAL="1576" NAME="?destroyVorbis@iSoundSystem@Orc@@MAE_NPBViSoundSource@2@I@Z" PURGE="8" COMMENT="" />
    <EXPORT ORDINAL="1577" NAME="?destroyVorbis@iSoundSystem@Orc@@UAE_NPBViSoundVorbis@2@I@Z" PURGE="8" COMMENT="" />
    <EXPORT ORDINAL="1578" NAME="?destroyVorbis_work@iSoundSystem@Orc@@MAEXQAPAViSoundVorbis@2@I@Z" PURGE="8" COMMENT="" />
    <EXPORT ORDINAL="1579" NAME="?detach@cSubject@Orc@@UAEXPAVcObserver@2@@Z" PURGE="4" COMMENT="" />
    <EXPORT ORDINAL="1580" NAME="?dirs@DirectoryMonitor@Orc@@0PAUsMonitorDirectory@2@A" PURGE="-1" COMMENT="" />
    <EXPORT ORDINAL="1581" NAME="?disable@cCpuBinding@Orc@@SAXXZ" PURGE="0" COMMENT="" />
    <EXPORT ORDINAL="1582" NAME="?disableWetVolume@iSoundSource@Orc@@QAEXXZ" PURGE="0" COMMENT="" />
    <EXPORT ORDINAL="1583" NAME="?disableWetVolume@sSoundParams@Orc@@QAEXXZ" PURGE="0" COMMENT="" />
    <EXPORT ORDINAL="1584" NAME="?doGet@CmdAngle@EmitterCommands@Orc@@UBE?AVString@3@PBX@Z" PURGE="8" COMMENT="" />
    <EXPORT ORDINAL="1585" NAME="?doGet@CmdAngleMax@EmitterCommands@Orc@@UBE?AVString@3@PBX@Z" PURGE="8" COMMENT="" />
    <EXPORT ORDINAL="1586" NAME="?doGet@CmdAnimFrames@EmitterCommands@Orc@@UBE?AVString@3@PBX@Z" PURGE="8" COMMENT="" />
    <EXPORT ORDINAL="1587" NAME="?doGet@CmdAnimSpeed@EmitterCommands@Orc@@UBE?AVString@3@PBX@Z" PURGE="8" COMMENT="" />
    <EXPORT ORDINAL="1588" NAME="?doGet@CmdBrightness@EmitterCommands@Orc@@UBE?AVString@3@PBX@Z" PURGE="8" COMMENT="" />
    <EXPORT ORDINAL="1589" NAME="?doGet@CmdCentered@EmitterCommands@Orc@@UBE?AVString@3@PBX@Z" PURGE="8" COMMENT="" />
    <EXPORT ORDINAL="1590" NAME="?doGet@CmdDirection@EmitterCommands@Orc@@UBE?AVString@3@PBX@Z" PURGE="8" COMMENT="" />
    <EXPORT ORDINAL="1591" NAME="?doGet@CmdEmissionAngle@EmitterCommands@Orc@@UBE?AVString@3@PBX@Z" PURGE="8" COMMENT="" />
    <EXPORT ORDINAL="1592" NAME="?doGet@CmdEmissionAngleMin@EmitterCommands@Orc@@UBE?AVString@3@PBX@Z" PURGE="8" COMMENT="" />
    <EXPORT ORDINAL="1593" NAME="?doGet@CmdEmissionRate@EmitterCommands@Orc@@UBE?AVString@3@PBX@Z" PURGE="8" COMMENT="" />
    <EXPORT ORDINAL="1594" NAME="?doGet@CmdEmitAndDisable@EmitterCommands@Orc@@UBE?AVString@3@PBX@Z" PURGE="8" COMMENT="" />
    <EXPORT ORDINAL="1595" NAME="?doGet@CmdIntenseFlag@EmitterCommands@Orc@@UBE?AVString@3@PBX@Z" PURGE="8" COMMENT="" />
    <EXPORT ORDINAL="1596" NAME="?doGet@CmdMaterial@EmitterCommands@Orc@@UBE?AVString@3@PBX@Z" PURGE="8" COMMENT="" />
    <EXPORT ORDINAL="1597" NAME="?doGet@CmdMaxDuration@EmitterCommands@Orc@@UBE?AVString@3@PBX@Z" PURGE="8" COMMENT="" />
    <EXPORT ORDINAL="1598" NAME="?doGet@CmdMaxRepeatDelay@EmitterCommands@Orc@@UBE?AVString@3@PBX@Z" PURGE="8" COMMENT="" />
    <EXPORT ORDINAL="1599" NAME="?doGet@CmdMaxStartDelay@EmitterCommands@Orc@@UBE?AVString@3@PBX@Z" PURGE="8" COMMENT="" />
    <EXPORT ORDINAL="1600" NAME="?doGet@CmdMaxTTL@EmitterCommands@Orc@@UBE?AVString@3@PBX@Z" PURGE="8" COMMENT="" />
    <EXPORT ORDINAL="1601" NAME="?doGet@CmdMaxVelocity@EmitterCommands@Orc@@UBE?AVString@3@PBX@Z" PURGE="8" COMMENT="" />
    <EXPORT ORDINAL="1602" NAME="?doGet@CmdMinDuration@EmitterCommands@Orc@@UBE?AVString@3@PBX@Z" PURGE="8" COMMENT="" />
    <EXPORT ORDINAL="1603" NAME="?doGet@CmdMinRepeatDelay@EmitterCommands@Orc@@UBE?AVString@3@PBX@Z" PURGE="8" COMMENT="" />
    <EXPORT ORDINAL="1604" NAME="?doGet@CmdMinStartDelay@EmitterCommands@Orc@@UBE?AVString@3@PBX@Z" PURGE="8" COMMENT="" />
    <EXPORT ORDINAL="1605" NAME="?doGet@CmdMinTTL@EmitterCommands@Orc@@UBE?AVString@3@PBX@Z" PURGE="8" COMMENT="" />
    <EXPORT ORDINAL="1606" NAME="?doGet@CmdMinVelocity@EmitterCommands@Orc@@UBE?AVString@3@PBX@Z" PURGE="8" COMMENT="" />
    <EXPORT ORDINAL="1607" NAME="?doGet@CmdOnEmitter@AffectorCommands@Orc@@UBE?AVString@3@PBX@Z" PURGE="8" COMMENT="" />
    <EXPORT ORDINAL="1608" NAME="?doGet@CmdPerspective@EmitterCommands@Orc@@UBE?AVString@3@PBX@Z" PURGE="8" COMMENT="" />
    <EXPORT ORDINAL="1609" NAME="?doGet@CmdPosition@EmitterCommands@Orc@@UBE?AVString@3@PBX@Z" PURGE="8" COMMENT="" />
    <EXPORT ORDINAL="1610" NAME="?doGet@CmdRepeatDelay@EmitterCommands@Orc@@UBE?AVString@3@PBX@Z" PURGE="8" COMMENT="" />
    <EXPORT ORDINAL="1611" NAME="?doGet@CmdSize@EmitterCommands@Orc@@UBE?AVString@3@PBX@Z" PURGE="8" COMMENT="" />
    <EXPORT ORDINAL="1612" NAME="?doGet@CmdSizeMax@EmitterCommands@Orc@@UBE?AVString@3@PBX@Z" PURGE="8" COMMENT="" />
    <EXPORT ORDINAL="1613" NAME="?doGet@CmdStreakLength@EmitterCommands@Orc@@UBE?AVString@3@PBX@Z" PURGE="8" COMMENT="" />
    <EXPORT ORDINAL="1614" NAME="?doGet@CmdStreakSize@EmitterCommands@Orc@@UBE?AVString@3@PBX@Z" PURGE="8" COMMENT="" />
    <EXPORT ORDINAL="1615" NAME="?doSet@CmdAngle@EmitterCommands@Orc@@UAEXPAXABVString@3@@Z" PURGE="8" COMMENT="" />
    <EXPORT ORDINAL="1616" NAME="?doSet@CmdAngleMax@EmitterCommands@Orc@@UAEXPAXABVString@3@@Z" PURGE="8" COMMENT="" />
    <EXPORT ORDINAL="1617" NAME="?doSet@CmdAnimFrames@EmitterCommands@Orc@@UAEXPAXABVString@3@@Z" PURGE="8" COMMENT="" />
    <EXPORT ORDINAL="1618" NAME="?doSet@CmdAnimSpeed@EmitterCommands@Orc@@UAEXPAXABVString@3@@Z" PURGE="8" COMMENT="" />
    <EXPORT ORDINAL="1619" NAME="?doSet@CmdBrightness@EmitterCommands@Orc@@UAEXPAXABVString@3@@Z" PURGE="8" COMMENT="" />
    <EXPORT ORDINAL="1620" NAME="?doSet@CmdCentered@EmitterCommands@Orc@@UAEXPAXABVString@3@@Z" PURGE="8" COMMENT="" />
    <EXPORT ORDINAL="1621" NAME="?doSet@CmdDirection@EmitterCommands@Orc@@UAEXPAXABVString@3@@Z" PURGE="8" COMMENT="" />
    <EXPORT ORDINAL="1622" NAME="?doSet@CmdEmissionAngle@EmitterCommands@Orc@@UAEXPAXABVString@3@@Z" PURGE="8" COMMENT="" />
    <EXPORT ORDINAL="1623" NAME="?doSet@CmdEmissionAngleMin@EmitterCommands@Orc@@UAEXPAXABVString@3@@Z" PURGE="8" COMMENT="" />
    <EXPORT ORDINAL="1624" NAME="?doSet@CmdEmissionRate@EmitterCommands@Orc@@UAEXPAXABVString@3@@Z" PURGE="8" COMMENT="" />
    <EXPORT ORDINAL="1625" NAME="?doSet@CmdEmitAndDisable@EmitterCommands@Orc@@UAEXPAXABVString@3@@Z" PURGE="8" COMMENT="" />
    <EXPORT ORDINAL="1626" NAME="?doSet@CmdIntenseFlag@EmitterCommands@Orc@@UAEXPAXABVString@3@@Z" PURGE="8" COMMENT="" />
    <EXPORT ORDINAL="1627" NAME="?doSet@CmdMaterial@EmitterCommands@Orc@@UAEXPAXABVString@3@@Z" PURGE="8" COMMENT="" />
    <EXPORT ORDINAL="1628" NAME="?doSet@CmdMaxDuration@EmitterCommands@Orc@@UAEXPAXABVString@3@@Z" PURGE="8" COMMENT="" />
    <EXPORT ORDINAL="1629" NAME="?doSet@CmdMaxRepeatDelay@EmitterCommands@Orc@@UAEXPAXABVString@3@@Z" PURGE="8" COMMENT="" />
    <EXPORT ORDINAL="1630" NAME="?doSet@CmdMaxStartDelay@EmitterCommands@Orc@@UAEXPAXABVString@3@@Z" PURGE="8" COMMENT="" />
    <EXPORT ORDINAL="1631" NAME="?doSet@CmdMaxTTL@EmitterCommands@Orc@@UAEXPAXABVString@3@@Z" PURGE="8" COMMENT="" />
    <EXPORT ORDINAL="1632" NAME="?doSet@CmdMaxVelocity@EmitterCommands@Orc@@UAEXPAXABVString@3@@Z" PURGE="8" COMMENT="" />
    <EXPORT ORDINAL="1633" NAME="?doSet@CmdMinDuration@EmitterCommands@Orc@@UAEXPAXABVString@3@@Z" PURGE="8" COMMENT="" />
    <EXPORT ORDINAL="1634" NAME="?doSet@CmdMinRepeatDelay@EmitterCommands@Orc@@UAEXPAXABVString@3@@Z" PURGE="8" COMMENT="" />
    <EXPORT ORDINAL="1635" NAME="?doSet@CmdMinStartDelay@EmitterCommands@Orc@@UAEXPAXABVString@3@@Z" PURGE="8" COMMENT="" />
    <EXPORT ORDINAL="1636" NAME="?doSet@CmdMinTTL@EmitterCommands@Orc@@UAEXPAXABVString@3@@Z" PURGE="8" COMMENT="" />
    <EXPORT ORDINAL="1637" NAME="?doSet@CmdMinVelocity@EmitterCommands@Orc@@UAEXPAXABVString@3@@Z" PURGE="8" COMMENT="" />
    <EXPORT ORDINAL="1638" NAME="?doSet@CmdOnEmitter@AffectorCommands@Orc@@UAEXPAXABVString@3@@Z" PURGE="8" COMMENT="" />
    <EXPORT ORDINAL="1639" NAME="?doSet@CmdPerspective@EmitterCommands@Orc@@UAEXPAXABVString@3@@Z" PURGE="8" COMMENT="" />
    <EXPORT ORDINAL="1640" NAME="?doSet@CmdPosition@EmitterCommands@Orc@@UAEXPAXABVString@3@@Z" PURGE="8" COMMENT="" />
    <EXPORT ORDINAL="1641" NAME="?doSet@CmdRepeatDelay@EmitterCommands@Orc@@UAEXPAXABVString@3@@Z" PURGE="8" COMMENT="" />
    <EXPORT ORDINAL="1642" NAME="?doSet@CmdSize@EmitterCommands@Orc@@UAEXPAXABVString@3@@Z" PURGE="8" COMMENT="" />
    <EXPORT ORDINAL="1643" NAME="?doSet@CmdSizeMax@EmitterCommands@Orc@@UAEXPAXABVString@3@@Z" PURGE="8" COMMENT="" />
    <EXPORT ORDINAL="1644" NAME="?doSet@CmdStreakLength@EmitterCommands@Orc@@UAEXPAXABVString@3@@Z" PURGE="8" COMMENT="" />
    <EXPORT ORDINAL="1645" NAME="?doSet@CmdStreakSize@EmitterCommands@Orc@@UAEXPAXABVString@3@@Z" PURGE="8" COMMENT="" />
    <EXPORT ORDINAL="1646" NAME="?dumpStats@TimeStepCollect@Orc@@QAEXW4LogMessageLevel@2@@Z" PURGE="4" COMMENT="" />
    <EXPORT ORDINAL="1647" NAME="?dynCpy@cDataStore@Orc@@AAEXABV12@I@Z" PURGE="8" COMMENT="" />
    <EXPORT ORDINAL="1648" NAME="?empty@?$basic_string@DV?$char_traits@D@stlp_std@@V?$memtrack_allocator@D$0IMHGPCA@@2@@stlp_std@@QBE_NXZ" PURGE="0" COMMENT="" />
    <EXPORT ORDINAL="1649" NAME="?empty@?$basic_string@_WV?$char_traits@_W@stlp_std@@V?$memtrack_allocator@_W$0IMHGPCA@@2@@stlp_std@@QBE_NXZ" PURGE="0" COMMENT="" />
    <EXPORT ORDINAL="1650" NAME="?emptyList@?1??getParameters@StringInterface@Orc@@QAEABV?$vector@VParameterDef@Orc@@V?$allocator@VParameterDef@Orc@@@stlp_std@@@stlp_std@@XZ@4V45@A" PURGE="-1" COMMENT="" />
    <EXPORT ORDINAL="1651" NAME="?enableWetVolume@iSoundSource@Orc@@QAEXXZ" PURGE="0" COMMENT="" />
    <EXPORT ORDINAL="1652" NAME="?enableWetVolume@sSoundParams@Orc@@QAEXXZ" PURGE="0" COMMENT="" />
    <EXPORT ORDINAL="1653" NAME="?encode@cCodecHuffman@Orc@@UAA_NAAVcFile@2@0ZZ" PURGE="0" COMMENT="" />
    <EXPORT ORDINAL="1654" NAME="?encode@cCodecLZ77@Orc@@UAA_NAAVcFile@2@0ZZ" PURGE="0" COMMENT="" />
    <EXPORT ORDINAL="1655" NAME="?encode@cCodecLZW@Orc@@UAA_NAAVcFile@2@0ZZ" PURGE="0" COMMENT="" />
    <EXPORT ORDINAL="1656" NAME="?encode@cCodecMTF@Orc@@UAA_NAAVcFile@2@0ZZ" PURGE="0" COMMENT="" />
    <EXPORT ORDINAL="1657" NAME="?encode@cCodecMulti@Orc@@QAA_NAAVcFile@2@0ZZ" PURGE="0" COMMENT="" />
    <EXPORT ORDINAL="1658" NAME="?encode@cCodecZIP@Orc@@QAE_NAAVcFile@2@0VCodecParamsZip@2@@Z" PURGE="12" COMMENT="" />
    <EXPORT ORDINAL="1659" NAME="?encode@cCodecZIP@Orc@@UAA_NAAVcFile@2@0ZZ" PURGE="0" COMMENT="" />
    <EXPORT ORDINAL="1660" NAME="?encodeEx@cCodecZIP@Orc@@QAE_NAAVcFile@2@0VCodecParamsZip@2@@Z" PURGE="12" COMMENT="" />
    <EXPORT ORDINAL="1661" NAME="?end@?$basic_string@DV?$char_traits@D@stlp_std@@V?$memtrack_allocator@D$0IMHGPCA@@2@@stlp_std@@QAEPADXZ" PURGE="0" COMMENT="" />
    <EXPORT ORDINAL="1662" NAME="?end@?$basic_string@DV?$char_traits@D@stlp_std@@V?$memtrack_allocator@D$0IMHGPCA@@2@@stlp_std@@QBEPBDXZ" PURGE="0" COMMENT="" />
    <EXPORT ORDINAL="1663" NAME="?end@?$basic_string@_WV?$char_traits@_W@stlp_std@@V?$memtrack_allocator@_W$0IMHGPCA@@2@@stlp_std@@QAEPA_WXZ" PURGE="0" COMMENT="" />
    <EXPORT ORDINAL="1664" NAME="?end@?$basic_string@_WV?$char_traits@_W@stlp_std@@V?$memtrack_allocator@_W$0IMHGPCA@@2@@stlp_std@@QBEPB_WXZ" PURGE="0" COMMENT="" />
    <EXPORT ORDINAL="1665" NAME="?end@PerfCounter@Orc@@QAEXXZ" PURGE="0" COMMENT="" />
    <EXPORT ORDINAL="1666" NAME="?end@Timer@Orc@@QAEXXZ" PURGE="0" COMMENT="" />
    <EXPORT ORDINAL="1667" NAME="?endAsStart@Timer@Orc@@QAEXXZ" PURGE="0" COMMENT="" />
    <EXPORT ORDINAL="1668" NAME="?endEvent@cMultiFrameProfiler@Orc@@SAXPBD@Z" PURGE="0" COMMENT="" />
    <EXPORT ORDINAL="1669" NAME="?endFrame@cMultiFrameProfiler@Orc@@SAXXZ" PURGE="0" COMMENT="" />
    <EXPORT ORDINAL="1670" NAME="?endMessageLoop@Root@Orc@@QAEXXZ" PURGE="0" COMMENT="" />
    <EXPORT ORDINAL="1671" NAME="?eof@cFile@Orc@@QBE_NXZ" PURGE="0" COMMENT="" />
    <EXPORT ORDINAL="1672" NAME="?epsilon@?1??machine_epsilon@cMath@Orc@@SAMXZ@4MA" PURGE="-1" COMMENT="" />
    <EXPORT ORDINAL="1673" NAME="?erase@?$basic_string@DV?$char_traits@D@stlp_std@@V?$memtrack_allocator@D$0IMHGPCA@@2@@stlp_std@@QAEAAV12@II@Z" PURGE="8" COMMENT="" />
    <EXPORT ORDINAL="1674" NAME="?erase@?$basic_string@DV?$char_traits@D@stlp_std@@V?$memtrack_allocator@D$0IMHGPCA@@2@@stlp_std@@QAEPADPAD0@Z" PURGE="8" COMMENT="" />
    <EXPORT ORDINAL="1675" NAME="?erase@?$basic_string@DV?$char_traits@D@stlp_std@@V?$memtrack_allocator@D$0IMHGPCA@@2@@stlp_std@@QAEPADPAD@Z" PURGE="4" COMMENT="" />
    <EXPORT ORDINAL="1676" NAME="?erase@?$basic_string@_WV?$char_traits@_W@stlp_std@@V?$memtrack_allocator@_W$0IMHGPCA@@2@@stlp_std@@QAEAAV12@II@Z" PURGE="8" COMMENT="" />
    <EXPORT ORDINAL="1677" NAME="?erase@?$basic_string@_WV?$char_traits@_W@stlp_std@@V?$memtrack_allocator@_W$0IMHGPCA@@2@@stlp_std@@QAEPA_WPA_W0@Z" PURGE="8" COMMENT="" />
    <EXPORT ORDINAL="1678" NAME="?erase@?$basic_string@_WV?$char_traits@_W@stlp_std@@V?$memtrack_allocator@_W$0IMHGPCA@@2@@stlp_std@@QAEPA_WPA_W@Z" PURGE="4" COMMENT="" />
    <EXPORT ORDINAL="1679" NAME="?execute@cMacroCommand@Orc@@UAEXXZ" PURGE="0" COMMENT="" />
    <EXPORT ORDINAL="1680" NAME="?executeFrom@cMacroCommand@Orc@@UAEXH@Z" PURGE="4" COMMENT="" />
    <EXPORT ORDINAL="1681" NAME="?executeSingle@cMacroCommand@Orc@@UAEXHH@Z" PURGE="8" COMMENT="" />
    <EXPORT ORDINAL="1682" NAME="?ext3@cOBB@Orc@@QBE?AUD3DXVECTOR3@@XZ" PURGE="4" COMMENT="" />
    <EXPORT ORDINAL="1683" NAME="?ext4@cOBB@Orc@@QBE?AUD3DXVECTOR4@@XZ" PURGE="4" COMMENT="" />
    <EXPORT ORDINAL="1684" NAME="?extractEdges@cBoundingBoxAA@Orc@@QBEXPAUD3DXVECTOR3@@@Z" PURGE="4" COMMENT="" />
    <EXPORT ORDINAL="1685" NAME="?extractEdges@cBoundingBoxAA@Orc@@QBEXPAUD3DXVECTOR4@@@Z" PURGE="4" COMMENT="" />
    <EXPORT ORDINAL="1686" NAME="?extractEdges@cOBB@Orc@@QBEXPAUD3DXVECTOR3@@@Z" PURGE="4" COMMENT="" />
    <EXPORT ORDINAL="1687" NAME="?extractEdges@cOBB@Orc@@QBEXPAUD3DXVECTOR4@@@Z" PURGE="4" COMMENT="" />
    <EXPORT ORDINAL="1688" NAME="?extractEdges_sse@cBoundingBoxAA@Orc@@QBEXPAUD3DXVECTOR4@@@Z" PURGE="4" COMMENT="" />
    <EXPORT ORDINAL="1689" NAME="?extractEdges_sse@cOBB@Orc@@QBEXPAUD3DXVECTOR4@@@Z" PURGE="4" COMMENT="" />
    <EXPORT ORDINAL="1690" NAME="?fadeDown@iSoundChannel@Orc@@UAEXMI@Z" PURGE="8" COMMENT="" />
    <EXPORT ORDINAL="1691" NAME="?fadeIn@iSoundSystem@Orc@@UAE_NIMI_N@Z" PURGE="16" COMMENT="" />
    <EXPORT ORDINAL="1692" NAME="?fadeOut@iSoundSystem@Orc@@UAE_NIMI_N@Z" PURGE="16" COMMENT="" />
    <EXPORT ORDINAL="1693" NAME="?fadeUp@iSoundChannel@Orc@@UAEXMI@Z" PURGE="8" COMMENT="" />
    <EXPORT ORDINAL="1694" NAME="?fastDetect@iSoundSystem@Orc@@UAE_NXZ" PURGE="0" COMMENT="" />
    <EXPORT ORDINAL="1695" NAME="?fastForward@ParticleSystem@Orc@@QAEXMM@Z" PURGE="8" COMMENT="" />
    <EXPORT ORDINAL="1696" NAME="?fft_double@cFFT@Orc@@SAXIHPAN000@Z" PURGE="0" COMMENT="" />
    <EXPORT ORDINAL="1697" NAME="?fft_float@cFFT@Orc@@SAXIHPAM000@Z" PURGE="0" COMMENT="" />
    <EXPORT ORDINAL="1698" NAME="?fileExist@FileSystem@Orc@@SA_NABVString@2@@Z" PURGE="0" COMMENT="" />
    <EXPORT ORDINAL="1699" NAME="?fileSize@FileSystem@Orc@@SA_JABVString@2@@Z" PURGE="0" COMMENT="" />
    <EXPORT ORDINAL="1700" NAME="?fillBuffer@iSoundChannel@Orc@@UAE_NIPBEI@Z" PURGE="12" COMMENT="" />
    <EXPORT ORDINAL="1701" NAME="?fillNextToken@TextTokenizer@Orc@@AAEXXZ" PURGE="0" COMMENT="" />
    <EXPORT ORDINAL="1702" NAME="?final@cMD5@Orc@@QAEXAAVMD5Hash@2@@Z" PURGE="4" COMMENT="" />
    <EXPORT ORDINAL="1703" NAME="?final@cMD5@Orc@@QAEXQAE@Z" PURGE="4" COMMENT="" />
    <EXPORT ORDINAL="1704" NAME="?final@cMD5@Orc@@QAEXQAI@Z" PURGE="4" COMMENT="" />
    <EXPORT ORDINAL="1705" NAME="?find@?$basic_string@DV?$char_traits@D@stlp_std@@V?$memtrack_allocator@D$0IMHGPCA@@2@@stlp_std@@QBEIABV12@I@Z" PURGE="8" COMMENT="" />
    <EXPORT ORDINAL="1706" NAME="?find@?$basic_string@DV?$char_traits@D@stlp_std@@V?$memtrack_allocator@D$0IMHGPCA@@2@@stlp_std@@QBEID@Z" PURGE="4" COMMENT="" />
    <EXPORT ORDINAL="1707" NAME="?find@?$basic_string@DV?$char_traits@D@stlp_std@@V?$memtrack_allocator@D$0IMHGPCA@@2@@stlp_std@@QBEIDI@Z" PURGE="8" COMMENT="" />
    <EXPORT ORDINAL="1708" NAME="?find@?$basic_string@DV?$char_traits@D@stlp_std@@V?$memtrack_allocator@D$0IMHGPCA@@2@@stlp_std@@QBEIPBDI@Z" PURGE="8" COMMENT="" />
    <EXPORT ORDINAL="1709" NAME="?find@?$basic_string@DV?$char_traits@D@stlp_std@@V?$memtrack_allocator@D$0IMHGPCA@@2@@stlp_std@@QBEIPBDII@Z" PURGE="12" COMMENT="" />
    <EXPORT ORDINAL="1710" NAME="?find@?$basic_string@_WV?$char_traits@_W@stlp_std@@V?$memtrack_allocator@_W$0IMHGPCA@@2@@stlp_std@@QBEIABV12@I@Z" PURGE="8" COMMENT="" />
    <EXPORT ORDINAL="1711" NAME="?find@?$basic_string@_WV?$char_traits@_W@stlp_std@@V?$memtrack_allocator@_W$0IMHGPCA@@2@@stlp_std@@QBEIPB_WI@Z" PURGE="8" COMMENT="" />
    <EXPORT ORDINAL="1712" NAME="?find@?$basic_string@_WV?$char_traits@_W@stlp_std@@V?$memtrack_allocator@_W$0IMHGPCA@@2@@stlp_std@@QBEIPB_WII@Z" PURGE="12" COMMENT="" />
    <EXPORT ORDINAL="1713" NAME="?find@?$basic_string@_WV?$char_traits@_W@stlp_std@@V?$memtrack_allocator@_W$0IMHGPCA@@2@@stlp_std@@QBEI_W@Z" PURGE="4" COMMENT="" />
    <EXPORT ORDINAL="1714" NAME="?find@?$basic_string@_WV?$char_traits@_W@stlp_std@@V?$memtrack_allocator@_W$0IMHGPCA@@2@@stlp_std@@QBEI_WI@Z" PURGE="8" COMMENT="" />
    <EXPORT ORDINAL="1715" NAME="?findAffector@ParticleSystem@Orc@@QAEPAVParticleAffector@2@ABVString@2@@Z" PURGE="4" COMMENT="" />
    <EXPORT ORDINAL="1716" NAME="?findBlock@cDataStore@Orc@@ABE_NAAUsFindBlock@12@I@Z" PURGE="8" COMMENT="" />
    <EXPORT ORDINAL="1717" NAME="?findColor@cPalette@Orc@@QBE_NEEEAAG@Z" PURGE="16" COMMENT="" />
    <EXPORT ORDINAL="1718" NAME="?findEmitter@ParticleSystem@Orc@@QAEPAVParticleEmitter@2@ABVString@2@@Z" PURGE="4" COMMENT="" />
    <EXPORT ORDINAL="1719" NAME="?findFileEntry@cArchiveContainer@Orc@@AAEPAUsFileEntry@12@ABU312@@Z" PURGE="4" COMMENT="" />
    <EXPORT ORDINAL="1720" NAME="?findNearestColor@cPalette@Orc@@QAEEIII@Z" PURGE="12" COMMENT="" />
    <EXPORT ORDINAL="1721" NAME="?find_child_node@cCodecLZW@Orc@@IAEIHH@Z" PURGE="8" COMMENT="" />
    <EXPORT ORDINAL="1722" NAME="?find_first_not_of@?$basic_string@DV?$char_traits@D@stlp_std@@V?$memtrack_allocator@D$0IMHGPCA@@2@@stlp_std@@QBEIABV12@I@Z" PURGE="8" COMMENT="" />
    <EXPORT ORDINAL="1723" NAME="?find_first_not_of@?$basic_string@DV?$char_traits@D@stlp_std@@V?$memtrack_allocator@D$0IMHGPCA@@2@@stlp_std@@QBEIDI@Z" PURGE="8" COMMENT="" />
    <EXPORT ORDINAL="1724" NAME="?find_first_not_of@?$basic_string@DV?$char_traits@D@stlp_std@@V?$memtrack_allocator@D$0IMHGPCA@@2@@stlp_std@@QBEIPBDI@Z" PURGE="8" COMMENT="" />
    <EXPORT ORDINAL="1725" NAME="?find_first_not_of@?$basic_string@DV?$char_traits@D@stlp_std@@V?$memtrack_allocator@D$0IMHGPCA@@2@@stlp_std@@QBEIPBDII@Z" PURGE="12" COMMENT="" />
    <EXPORT ORDINAL="1726" NAME="?find_first_not_of@?$basic_string@_WV?$char_traits@_W@stlp_std@@V?$memtrack_allocator@_W$0IMHGPCA@@2@@stlp_std@@QBEIABV12@I@Z" PURGE="8" COMMENT="" />
    <EXPORT ORDINAL="1727" NAME="?find_first_not_of@?$basic_string@_WV?$char_traits@_W@stlp_std@@V?$memtrack_allocator@_W$0IMHGPCA@@2@@stlp_std@@QBEIPB_WI@Z" PURGE="8" COMMENT="" />
    <EXPORT ORDINAL="1728" NAME="?find_first_not_of@?$basic_string@_WV?$char_traits@_W@stlp_std@@V?$memtrack_allocator@_W$0IMHGPCA@@2@@stlp_std@@QBEIPB_WII@Z" PURGE="12" COMMENT="" />
    <EXPORT ORDINAL="1729" NAME="?find_first_not_of@?$basic_string@_WV?$char_traits@_W@stlp_std@@V?$memtrack_allocator@_W$0IMHGPCA@@2@@stlp_std@@QBEI_WI@Z" PURGE="8" COMMENT="" />
    <EXPORT ORDINAL="1730" NAME="?find_first_of@?$basic_string@DV?$char_traits@D@stlp_std@@V?$memtrack_allocator@D$0IMHGPCA@@2@@stlp_std@@QBEIABV12@I@Z" PURGE="8" COMMENT="" />
    <EXPORT ORDINAL="1731" NAME="?find_first_of@?$basic_string@DV?$char_traits@D@stlp_std@@V?$memtrack_allocator@D$0IMHGPCA@@2@@stlp_std@@QBEIDI@Z" PURGE="8" COMMENT="" />
    <EXPORT ORDINAL="1732" NAME="?find_first_of@?$basic_string@DV?$char_traits@D@stlp_std@@V?$memtrack_allocator@D$0IMHGPCA@@2@@stlp_std@@QBEIPBDI@Z" PURGE="8" COMMENT="" />
    <EXPORT ORDINAL="1733" NAME="?find_first_of@?$basic_string@DV?$char_traits@D@stlp_std@@V?$memtrack_allocator@D$0IMHGPCA@@2@@stlp_std@@QBEIPBDII@Z" PURGE="12" COMMENT="" />
    <EXPORT ORDINAL="1734" NAME="?find_first_of@?$basic_string@_WV?$char_traits@_W@stlp_std@@V?$memtrack_allocator@_W$0IMHGPCA@@2@@stlp_std@@QBEIABV12@I@Z" PURGE="8" COMMENT="" />
    <EXPORT ORDINAL="1735" NAME="?find_first_of@?$basic_string@_WV?$char_traits@_W@stlp_std@@V?$memtrack_allocator@_W$0IMHGPCA@@2@@stlp_std@@QBEIPB_WI@Z" PURGE="8" COMMENT="" />
    <EXPORT ORDINAL="1736" NAME="?find_first_of@?$basic_string@_WV?$char_traits@_W@stlp_std@@V?$memtrack_allocator@_W$0IMHGPCA@@2@@stlp_std@@QBEIPB_WII@Z" PURGE="12" COMMENT="" />
    <EXPORT ORDINAL="1737" NAME="?find_first_of@?$basic_string@_WV?$char_traits@_W@stlp_std@@V?$memtrack_allocator@_W$0IMHGPCA@@2@@stlp_std@@QBEI_WI@Z" PURGE="8" COMMENT="" />
    <EXPORT ORDINAL="1738" NAME="?find_last_not_of@?$basic_string@DV?$char_traits@D@stlp_std@@V?$memtrack_allocator@D$0IMHGPCA@@2@@stlp_std@@QBEIABV12@I@Z" PURGE="8" COMMENT="" />
    <EXPORT ORDINAL="1739" NAME="?find_last_not_of@?$basic_string@DV?$char_traits@D@stlp_std@@V?$memtrack_allocator@D$0IMHGPCA@@2@@stlp_std@@QBEIDI@Z" PURGE="8" COMMENT="" />
    <EXPORT ORDINAL="1740" NAME="?find_last_not_of@?$basic_string@DV?$char_traits@D@stlp_std@@V?$memtrack_allocator@D$0IMHGPCA@@2@@stlp_std@@QBEIPBDI@Z" PURGE="8" COMMENT="" />
    <EXPORT ORDINAL="1741" NAME="?find_last_not_of@?$basic_string@DV?$char_traits@D@stlp_std@@V?$memtrack_allocator@D$0IMHGPCA@@2@@stlp_std@@QBEIPBDII@Z" PURGE="12" COMMENT="" />
    <EXPORT ORDINAL="1742" NAME="?find_last_not_of@?$basic_string@_WV?$char_traits@_W@stlp_std@@V?$memtrack_allocator@_W$0IMHGPCA@@2@@stlp_std@@QBEIABV12@I@Z" PURGE="8" COMMENT="" />
    <EXPORT ORDINAL="1743" NAME="?find_last_not_of@?$basic_string@_WV?$char_traits@_W@stlp_std@@V?$memtrack_allocator@_W$0IMHGPCA@@2@@stlp_std@@QBEIPB_WI@Z" PURGE="8" COMMENT="" />
    <EXPORT ORDINAL="1744" NAME="?find_last_not_of@?$basic_string@_WV?$char_traits@_W@stlp_std@@V?$memtrack_allocator@_W$0IMHGPCA@@2@@stlp_std@@QBEIPB_WII@Z" PURGE="12" COMMENT="" />
    <EXPORT ORDINAL="1745" NAME="?find_last_not_of@?$basic_string@_WV?$char_traits@_W@stlp_std@@V?$memtrack_allocator@_W$0IMHGPCA@@2@@stlp_std@@QBEI_WI@Z" PURGE="8" COMMENT="" />
    <EXPORT ORDINAL="1746" NAME="?find_last_of@?$basic_string@DV?$char_traits@D@stlp_std@@V?$memtrack_allocator@D$0IMHGPCA@@2@@stlp_std@@QBEIABV12@I@Z" PURGE="8" COMMENT="" />
    <EXPORT ORDINAL="1747" NAME="?find_last_of@?$basic_string@DV?$char_traits@D@stlp_std@@V?$memtrack_allocator@D$0IMHGPCA@@2@@stlp_std@@QBEIDI@Z" PURGE="8" COMMENT="" />
    <EXPORT ORDINAL="1748" NAME="?find_last_of@?$basic_string@DV?$char_traits@D@stlp_std@@V?$memtrack_allocator@D$0IMHGPCA@@2@@stlp_std@@QBEIPBDI@Z" PURGE="8" COMMENT="" />
    <EXPORT ORDINAL="1749" NAME="?find_last_of@?$basic_string@DV?$char_traits@D@stlp_std@@V?$memtrack_allocator@D$0IMHGPCA@@2@@stlp_std@@QBEIPBDII@Z" PURGE="12" COMMENT="" />
    <EXPORT ORDINAL="1750" NAME="?find_last_of@?$basic_string@_WV?$char_traits@_W@stlp_std@@V?$memtrack_allocator@_W$0IMHGPCA@@2@@stlp_std@@QBEIABV12@I@Z" PURGE="8" COMMENT="" />
    <EXPORT ORDINAL="1751" NAME="?find_last_of@?$basic_string@_WV?$char_traits@_W@stlp_std@@V?$memtrack_allocator@_W$0IMHGPCA@@2@@stlp_std@@QBEIPB_WI@Z" PURGE="8" COMMENT="" />
    <EXPORT ORDINAL="1752" NAME="?find_last_of@?$basic_string@_WV?$char_traits@_W@stlp_std@@V?$memtrack_allocator@_W$0IMHGPCA@@2@@stlp_std@@QBEIPB_WII@Z" PURGE="12" COMMENT="" />
    <EXPORT ORDINAL="1753" NAME="?find_last_of@?$basic_string@_WV?$char_traits@_W@stlp_std@@V?$memtrack_allocator@_W$0IMHGPCA@@2@@stlp_std@@QBEI_WI@Z" PURGE="8" COMMENT="" />
    <EXPORT ORDINAL="1754" NAME="?findalpha4x4@cS3TC@Orc@@AAEIPAGPBEI@Z" PURGE="12" COMMENT="" />
    <EXPORT ORDINAL="1755" NAME="?findbest@cS3TC@Orc@@AAEXPAEPAII1I@Z" PURGE="20" COMMENT="" />
    <EXPORT ORDINAL="1756" NAME="?findcolor4x4@cS3TC@Orc@@AAEIPAGPBII@Z" PURGE="12" COMMENT="" />
    <EXPORT ORDINAL="1757" NAME="?findcolor4x4a@cS3TC@Orc@@AAEIPAGPBII@Z" PURGE="12" COMMENT="" />
    <EXPORT ORDINAL="1758" NAME="?finish@iQueuedTask@Orc@@QAEXXZ" PURGE="0" COMMENT="" />
    <EXPORT ORDINAL="1759" NAME="?fixErrors@cDataStore@Orc@@QAE_NXZ" PURGE="0" COMMENT="" />
    <EXPORT ORDINAL="1760" NAME="?fixedTable_decode_decompress@cCodecHuffman@Orc@@QBE_NPAXIPBXI@Z" PURGE="16" COMMENT="" />
    <EXPORT ORDINAL="1761" NAME="?fixedTable_decode_getuncompressedlength@cCodecHuffman@Orc@@QBEIPBXI@Z" PURGE="8" COMMENT="" />
    <EXPORT ORDINAL="1762" NAME="?fixedTable_decode_init@cCodecHuffman@Orc@@QAEXPBXI@Z" PURGE="8" COMMENT="" />
    <EXPORT ORDINAL="1763" NAME="?fixedTable_encode_add@cCodecHuffman@Orc@@QAEXPBXI@Z" PURGE="8" COMMENT="" />
    <EXPORT ORDINAL="1764" NAME="?fixedTable_encode_compress@cCodecHuffman@Orc@@QAE_NAAVcFile@2@PBXI@Z" PURGE="12" COMMENT="" />
    <EXPORT ORDINAL="1765" NAME="?fixedTable_encode_finish@cCodecHuffman@Orc@@QAEXXZ" PURGE="0" COMMENT="" />
    <EXPORT ORDINAL="1766" NAME="?fixedTable_encode_getTable@cCodecHuffman@Orc@@QAE_NAAVcFile@2@@Z" PURGE="4" COMMENT="" />
    <EXPORT ORDINAL="1767" NAME="?fixedTable_encode_init@cCodecHuffman@Orc@@QAEXXZ" PURGE="0" COMMENT="" />
    <EXPORT ORDINAL="1768" NAME="?floatToInt@cMath@Orc@@SAXMPAH@Z" PURGE="0" COMMENT="" />
    <EXPORT ORDINAL="1769" NAME="?flush@RingBufferByte@Orc@@QAEXXZ" PURGE="0" COMMENT="" />
    <EXPORT ORDINAL="1770" NAME="?force2D@iSoundSource@Orc@@QAEXXZ" PURGE="0" COMMENT="" />
    <EXPORT ORDINAL="1771" NAME="?force2D@sSoundParams@Orc@@QAEXXZ" PURGE="0" COMMENT="" />
    <EXPORT ORDINAL="1772" NAME="?forceTask@QueuedTaskMgr@Orc@@QAE?AW4eTaskStatus@2@PAViQueuedTask@2@@Z" PURGE="4" COMMENT="" />
    <EXPORT ORDINAL="1773" NAME="?fraction@cMath@Orc@@SAMM@Z" PURGE="0" COMMENT="" />
    <EXPORT ORDINAL="1774" NAME="?frameEnded@FrameListener@Orc@@UAE_NABUFrameEvent@2@@Z" PURGE="4" COMMENT="" />
    <EXPORT ORDINAL="1775" NAME="?frameEnded@ParticleSystemMgr@Orc@@UAE_NABUFrameEvent@2@@Z" PURGE="4" COMMENT="" />
    <EXPORT ORDINAL="1776" NAME="?frameIdle@FrameListener@Orc@@UAE_NABUFrameEvent@2@@Z" PURGE="4" COMMENT="" />
    <EXPORT ORDINAL="1777" NAME="?frameRender@FrameListener@Orc@@UAE_NXZ" PURGE="0" COMMENT="" />
    <EXPORT ORDINAL="1778" NAME="?frameStarted@FrameListener@Orc@@UAE_NABUFrameEvent@2@@Z" PURGE="4" COMMENT="" />
    <EXPORT ORDINAL="1779" NAME="?frameStarted@ParticleSystemMgr@Orc@@UAE_NABUFrameEvent@2@@Z" PURGE="4" COMMENT="" />
    <EXPORT ORDINAL="1780" NAME="?fromMatrix@cOBB@Orc@@SAAAV12@AAUD3DXMATRIX@@@Z" PURGE="0" COMMENT="" />
    <EXPORT ORDINAL="1781" NAME="?fromMatrix@cOBB@Orc@@SAABV12@ABUD3DXMATRIX@@@Z" PURGE="0" COMMENT="" />
    <EXPORT ORDINAL="1782" NAME="?from_S3TC1@cS3TC@Orc@@QAEXPAIPAGII@Z" PURGE="16" COMMENT="" />
    <EXPORT ORDINAL="1783" NAME="?from_S3TC2or3@cS3TC@Orc@@QAEXPAIPAGII@Z" PURGE="16" COMMENT="" />
    <EXPORT ORDINAL="1784" NAME="?from_S3TC4or5@cS3TC@Orc@@QAEXPAIPAGII@Z" PURGE="16" COMMENT="" />
    <EXPORT ORDINAL="1785" NAME="?from_string@?$Configurable@H@Orc@@UAEXPBD@Z" PURGE="4" COMMENT="" />
    <EXPORT ORDINAL="1786" NAME="?from_string@?$Configurable@M@Orc@@UAEXPBD@Z" PURGE="4" COMMENT="" />
    <EXPORT ORDINAL="1787" NAME="?from_string@?$Configurable@_N@Orc@@UAEXPBD@Z" PURGE="4" COMMENT="" />
    <EXPORT ORDINAL="1788" NAME="?gBuildNumber@BuildNumber@Orc@@0HA" PURGE="-1" COMMENT="" />
    <EXPORT ORDINAL="1789" NAME="?gClockSpeed@TimerInit@Orc@@0_KA" PURGE="-1" COMMENT="" />
    <EXPORT ORDINAL="1790" NAME="?gClockSpeedMicrosecondsMultiplier@TimerInit@Orc@@0NA" PURGE="-1" COMMENT="" />
    <EXPORT ORDINAL="1791" NAME="?gClockSpeedMillisecondsMultiplier@TimerInit@Orc@@0NA" PURGE="-1" COMMENT="" />
    <EXPORT ORDINAL="1792" NAME="?gClockSpeedSecondsMultiplier@TimerInit@Orc@@0NA" PURGE="-1" COMMENT="" />
    <EXPORT ORDINAL="1793" NAME="?gTimerCpu@TimerInit@Orc@@0PAUsTimerCpu@2@A" PURGE="-1" COMMENT="" />
    <EXPORT ORDINAL="1794" NAME="?gTimerType@TimerInit@Orc@@0W4eTimerType@12@A" PURGE="-1" COMMENT="" />
    <EXPORT ORDINAL="1795" NAME="?genConstantEmissionCount@ParticleEmitter@Orc@@MAEGM@Z" PURGE="4" COMMENT="" />
    <EXPORT ORDINAL="1796" NAME="?genEmissionDirection@ParticleEmitter@Orc@@MAEXAAUD3DXVECTOR3@@@Z" PURGE="4" COMMENT="" />
    <EXPORT ORDINAL="1797" NAME="?genEmissionTTL@ParticleEmitter@Orc@@MAEMXZ" PURGE="0" COMMENT="" />
    <EXPORT ORDINAL="1798" NAME="?genEmissionVelocity@ParticleEmitter@Orc@@MAEXAAUD3DXVECTOR3@@@Z" PURGE="4" COMMENT="" />
    <EXPORT ORDINAL="1799" NAME="?genRotationAngle@ParticleEmitter@Orc@@MAEMXZ" PURGE="0" COMMENT="" />
    <EXPORT ORDINAL="1800" NAME="?getAPIC@ProcessorInfo@Orc@@SAXAAE0@Z" PURGE="0" COMMENT="" />
    <EXPORT ORDINAL="1801" NAME="?getAPIC_bits@ProcessorInfo@Orc@@SAEXZ" PURGE="0" COMMENT="" />
    <EXPORT ORDINAL="1802" NAME="?getActualDuckingVolume@iSoundChannel@Orc@@QBE?BMXZ" PURGE="0" COMMENT="" />
    <EXPORT ORDINAL="1803" NAME="?getAffector@ParticleSystem@Orc@@QBEPAVParticleAffector@2@G@Z" PURGE="4" COMMENT="" />
    <EXPORT ORDINAL="1804" NAME="?getAffectorFactories@ParticleSystemMgr@Orc@@QBE?AV?$vector@VString@Orc@@V?$memtrack_allocator@VString@Orc@@$0IMHGPCA@@stlp_std@@@stlp_std@@XZ" PURGE="4" COMMENT="" />
    <EXPORT ORDINAL="1805" NAME="?getAllResources@cResourceManager@Orc@@UBEIAAV?$vector@VString@Orc@@V?$memtrack_allocator@VString@Orc@@$0IMHGPCA@@stlp_std@@@stlp_std@@@Z" PURGE="4" COMMENT="" />
    <EXPORT ORDINAL="1806" NAME="?getAlphaBits@cPixelFormat@Orc@@QBEII@Z" PURGE="4" COMMENT="" />
    <EXPORT ORDINAL="1807" NAME="?getAlphaMask@cPixelFormat@Orc@@QBEIXZ" PURGE="0" COMMENT="" />
    <EXPORT ORDINAL="1808" NAME="?getAlphaNumBits@cPixelFormat@Orc@@QBEIXZ" PURGE="0" COMMENT="" />
    <EXPORT ORDINAL="1809" NAME="?getAlphaShift@cPixelFormat@Orc@@QBEIXZ" PURGE="0" COMMENT="" />
    <EXPORT ORDINAL="1810" NAME="?getAngle@ParticleEmitter@Orc@@UBEMXZ" PURGE="0" COMMENT="" />
    <EXPORT ORDINAL="1811" NAME="?getAngle@cMath@Orc@@SAMMM@Z" PURGE="0" COMMENT="" />
    <EXPORT ORDINAL="1812" NAME="?getAngleMax@ParticleEmitter@Orc@@UBEMXZ" PURGE="0" COMMENT="" />
    <EXPORT ORDINAL="1813" NAME="?getAnimFrames@ParticleEmitter@Orc@@UBEEXZ" PURGE="0" COMMENT="" />
    <EXPORT ORDINAL="1814" NAME="?getAnimSpeed@ParticleEmitter@Orc@@UBEMXZ" PURGE="0" COMMENT="" />
    <EXPORT ORDINAL="1815" NAME="?getArea@cRectRay@Orc@@QBE?BMXZ" PURGE="0" COMMENT="" />
    <EXPORT ORDINAL="1816" NAME="?getArea@cRectangle@Orc@@QBEMXZ" PURGE="0" COMMENT="" />
    <EXPORT ORDINAL="1817" NAME="?getAsBool@ConsoleVar@Orc@@QAE_NABVString@2@@Z" PURGE="4" COMMENT="" />
    <EXPORT ORDINAL="1818" NAME="?getAsFloat@ConsoleVar@Orc@@QAEMABVString@2@@Z" PURGE="4" COMMENT="" />
    <EXPORT ORDINAL="1819" NAME="?getAsInt@ConsoleVar@Orc@@QAEHABVString@2@@Z" PURGE="4" COMMENT="" />
    <EXPORT ORDINAL="1820" NAME="?getAvailableRenderers@Root@Orc@@QAEPAV?$vector@PAVRenderSystem@Orc@@V?$allocator@PAVRenderSystem@Orc@@@stlp_std@@@stlp_std@@XZ" PURGE="0" COMMENT="" />
    <EXPORT ORDINAL="1821" NAME="?getAvailableThread@QueuedTaskMgr@Orc@@ABEPAViQueuedThread@2@XZ" PURGE="0" COMMENT="" />
    <EXPORT ORDINAL="1822" NAME="?getBPP@cPixelFormat@Orc@@QBEHXZ" PURGE="0" COMMENT="" />
    <EXPORT ORDINAL="1823" NAME="?getBaseLocation@cBoundingCylinder@Orc@@QBEABUD3DXVECTOR3@@XZ" PURGE="0" COMMENT="" />
    <EXPORT ORDINAL="1824" NAME="?getBasePriority@iSoundSource@Orc@@QBE?BW4ePriority@2@XZ" PURGE="0" COMMENT="" />
    <EXPORT ORDINAL="1825" NAME="?getBaseRect@cBoundingBoxAA@Orc@@QBE?AVcRectangle@2@XZ" PURGE="4" COMMENT="" />
    <EXPORT ORDINAL="1826" NAME="?getBits@cPixelFormat@Orc@@AAEHI@Z" PURGE="4" COMMENT="" />
    <EXPORT ORDINAL="1827" NAME="?getBitsPerPixel@cImage@Orc@@QBEGXZ" PURGE="0" COMMENT="" />
    <EXPORT ORDINAL="1828" NAME="?getBlock@cDataStore@Orc@@QBE_NPBDAAPBXAAI@Z" PURGE="12" COMMENT="" />
    <EXPORT ORDINAL="1829" NAME="?getBlock@cDataStore@Orc@@QBE_NUsBlockId@12@AAPBXAAI@Z" PURGE="12" COMMENT="" />
    <EXPORT ORDINAL="1830" NAME="?getBlueBits@cPixelFormat@Orc@@QBEII@Z" PURGE="4" COMMENT="" />
    <EXPORT ORDINAL="1831" NAME="?getBlueMask@cPixelFormat@Orc@@QBEIXZ" PURGE="0" COMMENT="" />
    <EXPORT ORDINAL="1832" NAME="?getBlueNumBits@cPixelFormat@Orc@@QBEIXZ" PURGE="0" COMMENT="" />
    <EXPORT ORDINAL="1833" NAME="?getBlueShift@cPixelFormat@Orc@@QBEIXZ" PURGE="0" COMMENT="" />
    <EXPORT ORDINAL="1834" NAME="?getBlurValueForPixel@Win32Font@Orc@@CAXPAEHPAMHHHH0@Z" PURGE="0" COMMENT="" />
    <EXPORT ORDINAL="1835" NAME="?getBoneCount@MD5Mesh@Orc@@QBEGXZ" PURGE="0" COMMENT="" />
    <EXPORT ORDINAL="1836" NAME="?getBoneIndex@MD5Mesh@Orc@@QBEGVString@2@@Z" PURGE="24" COMMENT="" />
    <EXPORT ORDINAL="1837" NAME="?getBoundExpo@ParticleSystem@Orc@@QBEMXZ" PURGE="0" COMMENT="" />
    <EXPORT ORDINAL="1838" NAME="?getBoundingBox@ParticleSystem@Orc@@QBEABVcBoundingBoxAA@2@XZ" PURGE="0" COMMENT="" />
    <EXPORT ORDINAL="1839" NAME="?getBrightness@Particle@Orc@@QBEMXZ" PURGE="0" COMMENT="" />
    <EXPORT ORDINAL="1840" NAME="?getBrightness@ParticleEmitter@Orc@@UBEMXZ" PURGE="0" COMMENT="" />
    <EXPORT ORDINAL="1841" NAME="?getBuildDate@Root@Orc@@QBEPBVBuildDate@2@XZ" PURGE="0" COMMENT="" />
    <EXPORT ORDINAL="1842" NAME="?getBuildNumber@BuildNumber@Orc@@SAHXZ" PURGE="0" COMMENT="" />
    <EXPORT ORDINAL="1843" NAME="?getByID@cResourceManager@Orc@@UAEPAVcResource@2@I_N@Z" PURGE="8" COMMENT="" />
    <EXPORT ORDINAL="1844" NAME="?getByName@cResourceManager@Orc@@UAEPAVcResource@2@ABVString@2@_N@Z" PURGE="8" COMMENT="" />
    <EXPORT ORDINAL="1845" NAME="?getBytePerPixel@cPixelFormat@Orc@@QBEHXZ" PURGE="0" COMMENT="" />
    <EXPORT ORDINAL="1846" NAME="?getBytesPerPixel@cImage@Orc@@QBEGXZ" PURGE="0" COMMENT="" />
    <EXPORT ORDINAL="1847" NAME="?getCPULoad@ProcessorInfo@Orc@@SAMM@Z" PURGE="0" COMMENT="" />
    <EXPORT ORDINAL="1848" NAME="?getCRC@cCRC32@Orc@@QBEIXZ" PURGE="0" COMMENT="" />
    <EXPORT ORDINAL="1849" NAME="?getCenter3@cBoundingBoxAA@Orc@@QBE?AUD3DXVECTOR3@@XZ" PURGE="4" COMMENT="" />
    <EXPORT ORDINAL="1850" NAME="?getCenter@cBoundingBox@Orc@@QBE?AUD3DXVECTOR3@@XZ" PURGE="4" COMMENT="" />
    <EXPORT ORDINAL="1851" NAME="?getCenter@cBoundingBoxAA@Orc@@QBE?AUD3DXVECTOR3@@XZ" PURGE="4" COMMENT="" />
    <EXPORT ORDINAL="1852" NAME="?getCenter@cBoundingSphere@Orc@@QBEABUD3DXVECTOR3@@XZ" PURGE="0" COMMENT="" />
    <EXPORT ORDINAL="1853" NAME="?getChannel@iSoundChannel@Orc@@QBE?BIXZ" PURGE="0" COMMENT="" />
    <EXPORT ORDINAL="1854" NAME="?getChannel@iSoundClip@Orc@@QBEPAViSoundChannel@2@XZ" PURGE="0" COMMENT="" />
    <EXPORT ORDINAL="1855" NAME="?getChannel@iSoundSystem@Orc@@IBEPAViSoundChannel@2@I@Z" PURGE="4" COMMENT="" />
    <EXPORT ORDINAL="1856" NAME="?getChannel@iSoundVorbis@Orc@@QBEPBViSoundChannel@2@XZ" PURGE="0" COMMENT="" />
    <EXPORT ORDINAL="1857" NAME="?getChannelHandle@iSoundChannel@Orc@@UBEPBXXZ" PURGE="0" COMMENT="" />
    <EXPORT ORDINAL="1858" NAME="?getChannelID@iSoundSystem@Orc@@QBE?BII@Z" PURGE="4" COMMENT="" />
    <EXPORT ORDINAL="1859" NAME="?getCharABCWidths@Win32Font@Orc@@QAEXHAAH00@Z" PURGE="16" COMMENT="" />
    <EXPORT ORDINAL="1860" NAME="?getCharRGBA@Win32Font@Orc@@QAEXHHHHHPAE@Z" PURGE="24" COMMENT="" />
    <EXPORT ORDINAL="1861" NAME="?getCharWidth@Win32Font@Orc@@QAEHH@Z" PURGE="4" COMMENT="" />
    <EXPORT ORDINAL="1862" NAME="?getChild@ProfileNode@Orc@@QAEPAV12@XZ" PURGE="0" COMMENT="" />
    <EXPORT ORDINAL="1863" NAME="?getClickCount@MouseState@Orc@@QBEGW4MouseMask@2@@Z" PURGE="4" COMMENT="" />
    <EXPORT ORDINAL="1864" NAME="?getCodec@CodecManager@Orc@@QAEPAViCodec@2@ABVString@2@@Z" PURGE="4" COMMENT="" />
    <EXPORT ORDINAL="1865" NAME="?getCoeffMatrix@cSplineCR@Orc@@SAABUD3DXMATRIX@@XZ" PURGE="0" COMMENT="" />
    <EXPORT ORDINAL="1866" NAME="?getCompanionData@iSoundSource@Orc@@QBEPBEAAI@Z" PURGE="4" COMMENT="" />
    <EXPORT ORDINAL="1867" NAME="?getCompanionName@iSoundSource@Orc@@QBEPBDXZ" PURGE="0" COMMENT="" />
    <EXPORT ORDINAL="1868" NAME="?getConfigurable@ConsoleVar@Orc@@QAE_NABVString@2@AAV32@PAI@Z" PURGE="12" COMMENT="" />
    <EXPORT ORDINAL="1869" NAME="?getConsoleVar@ConsoleVar@Orc@@QAE?AVString@2@I@Z" PURGE="8" COMMENT="" />
    <EXPORT ORDINAL="1870" NAME="?getCorner3@cBoundingBoxAA@Orc@@QBE?AUD3DXVECTOR3@@I@Z" PURGE="8" COMMENT="" />
    <EXPORT ORDINAL="1871" NAME="?getCorner4@cBoundingBoxAA@Orc@@QBE?AUD3DXVECTOR4@@I@Z" PURGE="8" COMMENT="" />
    <EXPORT ORDINAL="1872" NAME="?getCorner@cBoundingBox@Orc@@QBEABUD3DXVECTOR3@@G@Z" PURGE="4" COMMENT="" />
    <EXPORT ORDINAL="1873" NAME="?getCorner@cBoundingBoxAA@Orc@@QBE?AUD3DXVECTOR3@@I@Z" PURGE="8" COMMENT="" />
    <EXPORT ORDINAL="1874" NAME="?getCpuInfo@ProcessorInfo@Orc@@QBEPBUsCPUInfo@12@XZ" PURGE="0" COMMENT="" />
    <EXPORT ORDINAL="1875" NAME="?getCpuName@ProcessorInfo@Orc@@QBEPBDXZ" PURGE="0" COMMENT="" />
    <EXPORT ORDINAL="1876" NAME="?getCpuSerial@ProcessorInfo@Orc@@QBEPBDXZ" PURGE="0" COMMENT="" />
    <EXPORT ORDINAL="1877" NAME="?getCurrent3DCapsDesc@iSoundSystem@Orc@@UAE?AVString@2@XZ" PURGE="4" COMMENT="" />
    <EXPORT ORDINAL="1878" NAME="?getCurrent51CapsDesc@iSoundSystem@Orc@@UAE?AVString@2@XZ" PURGE="4" COMMENT="" />
    <EXPORT ORDINAL="1879" NAME="?getCurrentFrame@Particle@Orc@@QBEEXZ" PURGE="0" COMMENT="" />
    <EXPORT ORDINAL="1880" NAME="?getCurrentFrameStats@Root@Orc@@QAEPAUsHistory@OrcStats@12@XZ" PURGE="0" COMMENT="" />
    <EXPORT ORDINAL="1881" NAME="?getCurrentLoop@iSoundSource@Orc@@QBE?BIXZ" PURGE="0" COMMENT="" />
    <EXPORT ORDINAL="1882" NAME="?getCurrentTimeMS@iSoundSource@Orc@@QBE?BIXZ" PURGE="0" COMMENT="" />
    <EXPORT ORDINAL="1883" NAME="?getCustomFlag@iSoundChannel@Orc@@ABE_NXZ" PURGE="0" COMMENT="" />
    <EXPORT ORDINAL="1884" NAME="?getCycles@ProcessorInfo@Orc@@QBE_JXZ" PURGE="0" COMMENT="" />
    <EXPORT ORDINAL="1885" NAME="?getData@cFileBit@Orc@@UAEPAEXZ" PURGE="0" COMMENT="" />
    <EXPORT ORDINAL="1886" NAME="?getData@cFileBitOld@Orc@@UAEPAEXZ" PURGE="0" COMMENT="" />
    <EXPORT ORDINAL="1887" NAME="?getData@cFileMem@Orc@@UAEPAEXZ" PURGE="0" COMMENT="" />
    <EXPORT ORDINAL="1888" NAME="?getData@cFileMem@Orc@@UBEPBEXZ" PURGE="0" COMMENT="" />
    <EXPORT ORDINAL="1889" NAME="?getData@cImage@Orc@@QAEPAEXZ" PURGE="0" COMMENT="" />
    <EXPORT ORDINAL="1890" NAME="?getData@iSoundSource@Orc@@QBEPBEAAI@Z" PURGE="4" COMMENT="" />
    <EXPORT ORDINAL="1891" NAME="?getDataFP@cImage@Orc@@QAEPAMXZ" PURGE="0" COMMENT="" />
    <EXPORT ORDINAL="1892" NAME="?getDefaultLog@LogManager@Orc@@QAEPAVLog@2@XZ" PURGE="0" COMMENT="" />
    <EXPORT ORDINAL="1893" NAME="?getDictionaryList@StringInterface@Orc@@SA?AVString@2@XZ" PURGE="0" COMMENT="" />
    <EXPORT ORDINAL="1894" NAME="?getDimension@cRectangle@Orc@@QBE?AUD3DXVECTOR2@@XZ" PURGE="4" COMMENT="" />
    <EXPORT ORDINAL="1895" NAME="?getDirection@ParticleEmitter@Orc@@UBEABUD3DXVECTOR3@@XZ" PURGE="0" COMMENT="" />
    <EXPORT ORDINAL="1896" NAME="?getDirection@cBoxRay@Orc@@QBEABUD3DXVECTOR3@@XZ" PURGE="0" COMMENT="" />
    <EXPORT ORDINAL="1897" NAME="?getDirection@cRay@Orc@@QBEABUD3DXVECTOR3@@XZ" PURGE="0" COMMENT="" />
    <EXPORT ORDINAL="1898" NAME="?getDirection@cRectRay@Orc@@QBE?BUD3DXVECTOR3@@XZ" PURGE="4" COMMENT="" />
    <EXPORT ORDINAL="1899" NAME="?getDirectories@FileSystem@Orc@@SA_NABVString@2@AAV?$vector@VString@Orc@@V?$memtrack_allocator@VString@Orc@@$0IMHGPCA@@stlp_std@@@stlp_std@@0_N@Z" PURGE="0" COMMENT="" />
    <EXPORT ORDINAL="1900" NAME="?getDriverSamplerate@iSoundSystem@Orc@@QBE?BIXZ" PURGE="0" COMMENT="" />
    <EXPORT ORDINAL="1901" NAME="?getDuration@MD5Anim@Orc@@QAEMXZ" PURGE="0" COMMENT="" />
    <EXPORT ORDINAL="1902" NAME="?getDuration@ParticleEmitter@Orc@@UBEMXZ" PURGE="0" COMMENT="" />
    <EXPORT ORDINAL="1903" NAME="?getDuration@PerfCounter@Orc@@QBE_KXZ" PURGE="0" COMMENT="" />
    <EXPORT ORDINAL="1904" NAME="?getDuration@Timer@Orc@@QBEABVTimerCycle@2@XZ" PURGE="0" COMMENT="" />
    <EXPORT ORDINAL="1905" NAME="?getDurationInProgress@PerfCounter@Orc@@QBE_KXZ" PURGE="0" COMMENT="" />
    <EXPORT ORDINAL="1906" NAME="?getDurationInProgress@Timer@Orc@@QAEABVTimerCycle@2@XZ" PURGE="0" COMMENT="" />
    <EXPORT ORDINAL="1907" NAME="?getEmissionAngle@ParticleEmitter@Orc@@UBEMXZ" PURGE="0" COMMENT="" />
    <EXPORT ORDINAL="1908" NAME="?getEmissionAngleMin@ParticleEmitter@Orc@@UBEMXZ" PURGE="0" COMMENT="" />
    <EXPORT ORDINAL="1909" NAME="?getEmissionRate@ParticleEmitter@Orc@@UBEMXZ" PURGE="0" COMMENT="" />
    <EXPORT ORDINAL="1910" NAME="?getEmitter@ParticleSystem@Orc@@QBEPAVParticleEmitter@2@G@Z" PURGE="4" COMMENT="" />
    <EXPORT ORDINAL="1911" NAME="?getEmitterFactories@ParticleSystemMgr@Orc@@QBE?AV?$vector@VString@Orc@@V?$memtrack_allocator@VString@Orc@@$0IMHGPCA@@stlp_std@@@stlp_std@@XZ" PURGE="4" COMMENT="" />
    <EXPORT ORDINAL="1912" NAME="?getEnabled@ParticleEmitter@Orc@@UAE_NXZ" PURGE="0" COMMENT="" />
    <EXPORT ORDINAL="1913" NAME="?getEndTime@MD5Anim@Orc@@QBEMXZ" PURGE="0" COMMENT="" />
    <EXPORT ORDINAL="1914" NAME="?getEntry@cPalette@Orc@@QBEXGAAE00@Z" PURGE="16" COMMENT="" />
    <EXPORT ORDINAL="1915" NAME="?getExactText@TextToken@Orc@@QBEABVString@2@XZ" PURGE="0" COMMENT="" />
    <EXPORT ORDINAL="1916" NAME="?getExtents@cBoundingBox@Orc@@QAEXAAM00000@Z" PURGE="24" COMMENT="" />
    <EXPORT ORDINAL="1917" NAME="?getExtents@cBoundingBox@Orc@@QBEXAAUD3DXVECTOR3@@0@Z" PURGE="8" COMMENT="" />
    <EXPORT ORDINAL="1918" NAME="?getFactory@ParticleAffector@Orc@@UBEPAVParticleAffectorFactory@2@XZ" PURGE="0" COMMENT="" />
    <EXPORT ORDINAL="1919" NAME="?getFactory@ParticleEmitter@Orc@@UBEPAVParticleEmitterFactory@2@XZ" PURGE="0" COMMENT="" />
    <EXPORT ORDINAL="1920" NAME="?getFactoryName@cResource@Orc@@QBEABVString@2@XZ" PURGE="0" COMMENT="" />
    <EXPORT ORDINAL="1921" NAME="?getFactoryName@iMovie@Orc@@QBEABVString@2@XZ" PURGE="0" COMMENT="" />
    <EXPORT ORDINAL="1922" NAME="?getFadeInTimeMS@iSoundSource@Orc@@QBE?BGXZ" PURGE="0" COMMENT="" />
    <EXPORT ORDINAL="1923" NAME="?getFallbackName@iSoundSource@Orc@@QBEPBDXZ" PURGE="0" COMMENT="" />
    <EXPORT ORDINAL="1924" NAME="?getFileInfo@FileSystem@Orc@@SA_NABVString@2@AAUFileInfo@2@I@Z" PURGE="0" COMMENT="" />
    <EXPORT ORDINAL="1925" NAME="?getFileList@cArchiveContainer@Orc@@QBEIAAV?$vector@VString@Orc@@V?$memtrack_allocator@VString@Orc@@$0IMHGPCA@@stlp_std@@@stlp_std@@PBD@Z" PURGE="8" COMMENT="" />
    <EXPORT ORDINAL="1926" NAME="?getFileListSelf@cArchiveContainer@Orc@@QBEIAAV?$vector@VString@Orc@@V?$memtrack_allocator@VString@Orc@@$0IMHGPCA@@stlp_std@@@stlp_std@@PBD@Z" PURGE="8" COMMENT="" />
    <EXPORT ORDINAL="1927" NAME="?getFiles@FileSystem@Orc@@SA_NABVString@2@AAV?$vector@VString@Orc@@V?$memtrack_allocator@VString@Orc@@$0IMHGPCA@@stlp_std@@@stlp_std@@0_N@Z" PURGE="0" COMMENT="" />
    <EXPORT ORDINAL="1928" NAME="?getFlags@Win32Font@Orc@@QAEHXZ" PURGE="0" COMMENT="" />
    <EXPORT ORDINAL="1929" NAME="?getFormat@cPixelFormat@Orc@@QBE?AW4ePixelFormat@12@XZ" PURGE="0" COMMENT="" />
    <EXPORT ORDINAL="1930" NAME="?getFrameCount@Root@Orc@@QBEIXZ" PURGE="0" COMMENT="" />
    <EXPORT ORDINAL="1931" NAME="?getFrameRate@Root@Orc@@QBEMXZ" PURGE="0" COMMENT="" />
    <EXPORT ORDINAL="1932" NAME="?getFrameRateAvg@Root@Orc@@QBEMXZ" PURGE="0" COMMENT="" />
    <EXPORT ORDINAL="1933" NAME="?getFrameSmoothingPeriod@Root@Orc@@QBEMXZ" PURGE="0" COMMENT="" />
    <EXPORT ORDINAL="1934" NAME="?getFreeChannel@iSoundSystem@Orc@@MAEPAViSoundChannel@2@_N@Z" PURGE="4" COMMENT="" />
    <EXPORT ORDINAL="1935" NAME="?getFreeCrossfadeChannel@iSoundSystem@Orc@@MBEIXZ" PURGE="0" COMMENT="" />
    <EXPORT ORDINAL="1936" NAME="?getFreezeMouse@InputReader@Orc@@QBE_NXZ" PURGE="0" COMMENT="" />
    <EXPORT ORDINAL="1937" NAME="?getFullDescription@Exception@Orc@@QBE?AVString@2@XZ" PURGE="4" COMMENT="" />
    <EXPORT ORDINAL="1938" NAME="?getGHZ@ProcessorInfo@Orc@@QBEMXZ" PURGE="0" COMMENT="" />
    <EXPORT ORDINAL="1939" NAME="?getGlobalStats@cResourceManager@Orc@@SAABUsGlobalStats@12@XZ" PURGE="0" COMMENT="" />
    <EXPORT ORDINAL="1940" NAME="?getGlowRGBA@Win32Font@Orc@@QAEXHHHHHPAE@Z" PURGE="24" COMMENT="" />
    <EXPORT ORDINAL="1941" NAME="?getGreenBits@cPixelFormat@Orc@@QBEII@Z" PURGE="4" COMMENT="" />
    <EXPORT ORDINAL="1942" NAME="?getGreenMask@cPixelFormat@Orc@@QBEIXZ" PURGE="0" COMMENT="" />
    <EXPORT ORDINAL="1943" NAME="?getGreenNumBits@cPixelFormat@Orc@@QBEIXZ" PURGE="0" COMMENT="" />
    <EXPORT ORDINAL="1944" NAME="?getGreenShift@cPixelFormat@Orc@@QBEIXZ" PURGE="0" COMMENT="" />
    <EXPORT ORDINAL="1945" NAME="?getGroupVolume@iSoundSystem@Orc@@UBEMI@Z" PURGE="4" COMMENT="" />
    <EXPORT ORDINAL="1946" NAME="?getHeight@Win32Font@Orc@@QAEHXZ" PURGE="0" COMMENT="" />
    <EXPORT ORDINAL="1947" NAME="?getHeight@cBoundingCylinder@Orc@@QBEMXZ" PURGE="0" COMMENT="" />
    <EXPORT ORDINAL="1948" NAME="?getHeight@cImage@Orc@@QBEIXZ" PURGE="0" COMMENT="" />
    <EXPORT ORDINAL="1949" NAME="?getIdleThreads@QueuedTaskMgr@Orc@@QBEIXZ" PURGE="0" COMMENT="" />
    <EXPORT ORDINAL="1950" NAME="?getIgnoreRotation@ParticleSystem@Orc@@QBE_NXZ" PURGE="0" COMMENT="" />
    <EXPORT ORDINAL="1951" NAME="?getImage@cImage@Orc@@QAEIAAVcPixelFormat@2@PAE@Z" PURGE="8" COMMENT="" />
    <EXPORT ORDINAL="1952" NAME="?getInnerAngle@sSoundCone@Orc@@QBEMXZ" PURGE="0" COMMENT="" />
    <EXPORT ORDINAL="1953" NAME="?getInputDevice@Root@Orc@@QAEPAVInputReader@2@XZ" PURGE="0" COMMENT="" />
    <EXPORT ORDINAL="1954" NAME="?getKeyModifier@InputReader@Orc@@QBE_NW4KeyMask@2@@Z" PURGE="4" COMMENT="" />
    <EXPORT ORDINAL="1955" NAME="?getKeyModifiers@InputReader@Orc@@QBEIXZ" PURGE="0" COMMENT="" />
    <EXPORT ORDINAL="1956" NAME="?getKeyValue@MD5Anim@Orc@@AAEMGM@Z" PURGE="8" COMMENT="" />
    <EXPORT ORDINAL="1957" NAME="?getLFEVorbis@iSound3DStereo@Orc@@UBEPAViSoundVorbis@2@XZ" PURGE="0" COMMENT="" />
    <EXPORT ORDINAL="1958" NAME="?getLFEVorbis@iSound3DSubwoofer@Orc@@UBEPAViSoundVorbis@2@XZ" PURGE="0" COMMENT="" />
    <EXPORT ORDINAL="1959" NAME="?getLastAccess@cResource@Orc@@QBE_JXZ" PURGE="0" COMMENT="" />
    <EXPORT ORDINAL="1960" NAME="?getLastError@FileSystem@Orc@@SA?AVWString@2@XZ" PURGE="0" COMMENT="" />
    <EXPORT ORDINAL="1961" NAME="?getLastException@Exception@Orc@@SAPAV12@XZ" PURGE="0" COMMENT="" />
    <EXPORT ORDINAL="1962" NAME="?getLatestPlaying@iSoundSystem@Orc@@QBE?AVString@2@XZ" PURGE="4" COMMENT="" />
    <EXPORT ORDINAL="1963" NAME="?getLeft@cRectRay@Orc@@QBE?BUD3DXVECTOR3@@XZ" PURGE="4" COMMENT="" />
    <EXPORT ORDINAL="1964" NAME="?getLeftNrm@cRectRay@Orc@@QBE?BUD3DXVECTOR3@@XZ" PURGE="4" COMMENT="" />
    <EXPORT ORDINAL="1965" NAME="?getLeftVorbis@iSound3DStereo@Orc@@UBEPAViSoundVorbis@2@XZ" PURGE="0" COMMENT="" />
    <EXPORT ORDINAL="1966" NAME="?getLength@TextToken@Orc@@QBEIXZ" PURGE="0" COMMENT="" />
    <EXPORT ORDINAL="1967" NAME="?getLine@TextTokenizer@Orc@@QBEIXZ" PURGE="0" COMMENT="" />
    <EXPORT ORDINAL="1968" NAME="?getListener@iSoundSystem@Orc@@UAEXAAUD3DXVECTOR3@@00@Z" PURGE="12" COMMENT="" />
    <EXPORT ORDINAL="1969" NAME="?getListenerMode@iSoundSystem@Orc@@UBE?AW4eListenerMode@2@XZ" PURGE="0" COMMENT="" />
    <EXPORT ORDINAL="1970" NAME="?getListenerRoom@iSoundSystem@Orc@@UBE?AW4eListenerRoom@2@XZ" PURGE="0" COMMENT="" />
    <EXPORT ORDINAL="1971" NAME="?getListenerRoomDesc@iSoundSystem@Orc@@UBE?AVString@2@XZ" PURGE="4" COMMENT="" />
    <EXPORT ORDINAL="1972" NAME="?getLoadBalanceFactor@cResource@Orc@@UBEIXZ" PURGE="0" COMMENT="" />
    <EXPORT ORDINAL="1973" NAME="?getLocalizedKeyName@InputReader@Orc@@UBE?AVWString@2@W4KeyCode@2@@Z" PURGE="8" COMMENT="" />
    <EXPORT ORDINAL="1974" NAME="?getLog@LogManager@Orc@@QAEPAVLog@2@ABVString@2@@Z" PURGE="4" COMMENT="" />
    <EXPORT ORDINAL="1975" NAME="?getLogDetail@LogManager@Orc@@QAE?BW4LoggingLevel@2@XZ" PURGE="0" COMMENT="" />
    <EXPORT ORDINAL="1976" NAME="?getLogicalCPUs@ProcessorInfo@Orc@@QBEEXZ" PURGE="0" COMMENT="" />
    <EXPORT ORDINAL="1977" NAME="?getLogicalPerCPU@ProcessorInfo@Orc@@QBEEXZ" PURGE="0" COMMENT="" />
    <EXPORT ORDINAL="1978" NAME="?getLoop@iSoundSource@Orc@@QBE?BIXZ" PURGE="0" COMMENT="" />
    <EXPORT ORDINAL="1979" NAME="?getMD5@cMD5@Orc@@QAEXPAEIAAVMD5Hash@2@@Z" PURGE="12" COMMENT="" />
    <EXPORT ORDINAL="1980" NAME="?getMHZ@ProcessorInfo@Orc@@QBEMXZ" PURGE="0" COMMENT="" />
    <EXPORT ORDINAL="1981" NAME="?getMapTable@StringTools@Orc@@SAPAEW4MapTableType@12@@Z" PURGE="0" COMMENT="" />
    <EXPORT ORDINAL="1982" NAME="?getMapTable@StringTools@Orc@@SAPAEW4WildCardCompareTypes@12@@Z" PURGE="0" COMMENT="" />
    <EXPORT ORDINAL="1983" NAME="?getMasterVolume@iSoundSystem@Orc@@UBEMXZ" PURGE="0" COMMENT="" />
    <EXPORT ORDINAL="1984" NAME="?getMaterialName@ParticleEmitter@Orc@@QBEABVString@2@XZ" PURGE="0" COMMENT="" />
    <EXPORT ORDINAL="1985" NAME="?getMaterialName@ParticleSystem@Orc@@QBEABVString@2@E@Z" PURGE="4" COMMENT="" />
    <EXPORT ORDINAL="1986" NAME="?getMaxCharWidth@Win32Font@Orc@@QAEHXZ" PURGE="0" COMMENT="" />
    <EXPORT ORDINAL="1987" NAME="?getMaxDistance@iSound3DStereo@Orc@@UBE?BMXZ" PURGE="0" COMMENT="" />
    <EXPORT ORDINAL="1988" NAME="?getMaxDuration@ParticleEmitter@Orc@@UBEMXZ" PURGE="0" COMMENT="" />
    <EXPORT ORDINAL="1989" NAME="?getMaxParticleVelocity@ParticleEmitter@Orc@@UBEMXZ" PURGE="0" COMMENT="" />
    <EXPORT ORDINAL="1990" NAME="?getMaxRepeatDelay@ParticleEmitter@Orc@@UBEMXZ" PURGE="0" COMMENT="" />
    <EXPORT ORDINAL="1991" NAME="?getMaxStartDelay@ParticleEmitter@Orc@@UBEMXZ" PURGE="0" COMMENT="" />
    <EXPORT ORDINAL="1992" NAME="?getMaxTimeToLive@ParticleEmitter@Orc@@UBEMXZ" PURGE="0" COMMENT="" />
    <EXPORT ORDINAL="1993" NAME="?getMaximum@cBoundingBoxAA@Orc@@QBEABUD3DXVECTOR3@@XZ" PURGE="0" COMMENT="" />
    <EXPORT ORDINAL="1994" NAME="?getMemoryBudget@cResourceManager@Orc@@UBEIXZ" PURGE="0" COMMENT="" />
    <EXPORT ORDINAL="1995" NAME="?getMemoryUsage@cResourceManager@Orc@@UAEIXZ" PURGE="0" COMMENT="" />
    <EXPORT ORDINAL="1996" NAME="?getMicroseconds@TimerCycle@Orc@@QBEIXZ" PURGE="0" COMMENT="" />
    <EXPORT ORDINAL="1997" NAME="?getMicrosecondsF@TimerCycle@Orc@@QBENXZ" PURGE="0" COMMENT="" />
    <EXPORT ORDINAL="1998" NAME="?getMilliseconds@TimerCycle@Orc@@QBEIXZ" PURGE="0" COMMENT="" />
    <EXPORT ORDINAL="1999" NAME="?getMillisecondsF@TimerCycle@Orc@@QBENXZ" PURGE="0" COMMENT="" />
    <EXPORT ORDINAL="2000" NAME="?getMinDistance@iSound3DStereo@Orc@@UBE?BMXZ" PURGE="0" COMMENT="" />
    <EXPORT ORDINAL="2001" NAME="?getMinDuration@ParticleEmitter@Orc@@UBEMXZ" PURGE="0" COMMENT="" />
    <EXPORT ORDINAL="2002" NAME="?getMinParticleVelocity@ParticleEmitter@Orc@@UBEMXZ" PURGE="0" COMMENT="" />
    <EXPORT ORDINAL="2003" NAME="?getMinRepeatDelay@ParticleEmitter@Orc@@UBEMXZ" PURGE="0" COMMENT="" />
    <EXPORT ORDINAL="2004" NAME="?getMinStartDelay@ParticleEmitter@Orc@@UBEMXZ" PURGE="0" COMMENT="" />
    <EXPORT ORDINAL="2005" NAME="?getMinTimeToLive@ParticleEmitter@Orc@@UBEMXZ" PURGE="0" COMMENT="" />
    <EXPORT ORDINAL="2006" NAME="?getMinimum@cBoundingBoxAA@Orc@@QBEABUD3DXVECTOR3@@XZ" PURGE="0" COMMENT="" />
    <EXPORT ORDINAL="2007" NAME="?getModDate@FileInfo@Orc@@QAE_NGEE@Z" PURGE="12" COMMENT="" />
    <EXPORT ORDINAL="2008" NAME="?getMode@cDataStore@Orc@@QBE?AW4eMode@12@XZ" PURGE="0" COMMENT="" />
    <EXPORT ORDINAL="2009" NAME="?getMultiSetting@ConfigFile@Orc@@QAE?AV?$vector@VString@Orc@@V?$memtrack_allocator@VString@Orc@@$0IMHGPCA@@stlp_std@@@stlp_std@@ABVString@2@@Z" PURGE="8" COMMENT="" />
    <EXPORT ORDINAL="2010" NAME="?getName@ParticleSystem@Orc@@UBEABVString@2@XZ" PURGE="0" COMMENT="" />
    <EXPORT ORDINAL="2011" NAME="?getName@ProfileNode@Orc@@QAEPBDXZ" PURGE="0" COMMENT="" />
    <EXPORT ORDINAL="2012" NAME="?getName@Win32Font@Orc@@QAEPBDXZ" PURGE="0" COMMENT="" />
    <EXPORT ORDINAL="2013" NAME="?getName@cResource@Orc@@QBEABVString@2@XZ" PURGE="0" COMMENT="" />
    <EXPORT ORDINAL="2014" NAME="?getName@cResourceManager@Orc@@QAE?AVString@2@XZ" PURGE="4" COMMENT="" />
    <EXPORT ORDINAL="2015" NAME="?getName@iMovie@Orc@@QBEABVString@2@XZ" PURGE="0" COMMENT="" />
    <EXPORT ORDINAL="2016" NAME="?getNextToken@TextTokenizer@Orc@@QAE?AVTextToken@2@XZ" PURGE="4" COMMENT="" />
    <EXPORT ORDINAL="2017" NAME="?getNextUniqueFilename@FileSystem@Orc@@SA?AVString@2@ABV32@0@Z" PURGE="0" COMMENT="" />
    <EXPORT ORDINAL="2018" NAME="?getNumAffectors@ParticleSystem@Orc@@QBEGXZ" PURGE="0" COMMENT="" />
    <EXPORT ORDINAL="2019" NAME="?getNumBytes@cFileBit@Orc@@UBEIXZ" PURGE="0" COMMENT="" />
    <EXPORT ORDINAL="2020" NAME="?getNumBytes@cFileBitOld@Orc@@UBEIXZ" PURGE="0" COMMENT="" />
    <EXPORT ORDINAL="2021" NAME="?getNumChannels@iSoundChannel@Orc@@QBE?BEXZ" PURGE="0" COMMENT="" />
    <EXPORT ORDINAL="2022" NAME="?getNumChannels@iSoundSource@Orc@@QBE?BEXZ" PURGE="0" COMMENT="" />
    <EXPORT ORDINAL="2023" NAME="?getNumChannels@iSoundVorbis@Orc@@QAE?BEPBXIABVString@2@@Z" PURGE="12" COMMENT="" />
    <EXPORT ORDINAL="2024" NAME="?getNumChannels_Vorbis@iSoundSystem@Orc@@UAEIPAViSoundSource@2@@Z" PURGE="4" COMMENT="" />
    <EXPORT ORDINAL="2025" NAME="?getNumEmitters@ParticleSystem@Orc@@QBEGXZ" PURGE="0" COMMENT="" />
    <EXPORT ORDINAL="2026" NAME="?getNumPlayingChannels@iSoundSystem@Orc@@QBE?BIXZ" PURGE="0" COMMENT="" />
    <EXPORT ORDINAL="2027" NAME="?getNumPoints@cSplineCR@Orc@@QBEGXZ" PURGE="0" COMMENT="" />
    <EXPORT ORDINAL="2028" NAME="?getNumSpeakers@iSoundSystem@Orc@@QBE?BIXZ" PURGE="0" COMMENT="" />
    <EXPORT ORDINAL="2029" NAME="?getNumber@Exception@Orc@@QAE_JXZ" PURGE="0" COMMENT="" />
    <EXPORT ORDINAL="2030" NAME="?getOnEmitter@ParticleAffector@Orc@@UBEEXZ" PURGE="0" COMMENT="" />
    <EXPORT ORDINAL="2031" NAME="?getOrigin@cBoxRay@Orc@@QBEABUD3DXVECTOR3@@XZ" PURGE="0" COMMENT="" />
    <EXPORT ORDINAL="2032" NAME="?getOrigin@cRay@Orc@@QBEABUD3DXVECTOR3@@XZ" PURGE="0" COMMENT="" />
    <EXPORT ORDINAL="2033" NAME="?getOrigin@cRectRay@Orc@@QBE?BUD3DXVECTOR3@@XZ" PURGE="4" COMMENT="" />
    <EXPORT ORDINAL="2034" NAME="?getOutOfConeVol@sSoundCone@Orc@@QBEIXZ" PURGE="0" COMMENT="" />
    <EXPORT ORDINAL="2035" NAME="?getOuterAngle@sSoundCone@Orc@@QBEMXZ" PURGE="0" COMMENT="" />
    <EXPORT ORDINAL="2036" NAME="?getPalette@cImage@Orc@@QBEXAAVcPalette@2@@Z" PURGE="4" COMMENT="" />
    <EXPORT ORDINAL="2037" NAME="?getPalette@cPalette@Orc@@QAEXQAE@Z" PURGE="4" COMMENT="" />
    <EXPORT ORDINAL="2038" NAME="?getPalette@cPalette@Orc@@QAEXQAY02E@Z" PURGE="4" COMMENT="" />
    <EXPORT ORDINAL="2039" NAME="?getParamCommand@ParamDictionary@Orc@@IAEPAVParamCommand@2@ABVString@2@@Z" PURGE="4" COMMENT="" />
    <EXPORT ORDINAL="2040" NAME="?getParamDictionary@StringInterface@Orc@@QAEPAVParamDictionary@2@XZ" PURGE="0" COMMENT="" />
    <EXPORT ORDINAL="2041" NAME="?getParamDictionary@StringInterface@Orc@@SAPAVParamDictionary@2@VString@2@_N@Z" PURGE="0" COMMENT="" />
    <EXPORT ORDINAL="2042" NAME="?getParamType@ParameterDef@Orc@@QBEPBDXZ" PURGE="0" COMMENT="" />
    <EXPORT ORDINAL="2043" NAME="?getParameter@StringInterface@Orc@@UAE?AVString@2@ABV32@@Z" PURGE="8" COMMENT="" />
    <EXPORT ORDINAL="2044" NAME="?getParameters@ParamDictionary@Orc@@QAEABV?$vector@VParameterDef@Orc@@V?$allocator@VParameterDef@Orc@@@stlp_std@@@stlp_std@@XZ" PURGE="0" COMMENT="" />
    <EXPORT ORDINAL="2045" NAME="?getParameters@StringInterface@Orc@@QAEABV?$vector@VParameterDef@Orc@@V?$allocator@VParameterDef@Orc@@@stlp_std@@@stlp_std@@XZ" PURGE="0" COMMENT="" />
    <EXPORT ORDINAL="2046" NAME="?getParent@ProfileNode@Orc@@QAEPAV12@XZ" PURGE="0" COMMENT="" />
    <EXPORT ORDINAL="2047" NAME="?getParticleQuota@ParticleSystem@Orc@@QBEIXZ" PURGE="0" COMMENT="" />
    <EXPORT ORDINAL="2048" NAME="?getParticleSystemCount@ParticleSystemMgr@Orc@@QBEHXZ" PURGE="0" COMMENT="" />
    <EXPORT ORDINAL="2049" NAME="?getParticleSystemList@ParticleSystemMgr@Orc@@QBE?AVString@2@XZ" PURGE="4" COMMENT="" />
    <EXPORT ORDINAL="2050" NAME="?getParticleTemplateCount@ParticleSystemMgr@Orc@@QBEHXZ" PURGE="0" COMMENT="" />
    <EXPORT ORDINAL="2051" NAME="?getParticleTemplateList@ParticleSystemMgr@Orc@@QBE?AVString@2@XZ" PURGE="4" COMMENT="" />
    <EXPORT ORDINAL="2052" NAME="?getParticleVelocity@ParticleEmitter@Orc@@UBEMXZ" PURGE="0" COMMENT="" />
    <EXPORT ORDINAL="2053" NAME="?getParticles@ParticleSystem@Orc@@QAEPAVParticle@2@XZ" PURGE="0" COMMENT="" />
    <EXPORT ORDINAL="2054" NAME="?getPeakTime@ProfileNode@Orc@@QAEMXZ" PURGE="0" COMMENT="" />
    <EXPORT ORDINAL="2055" NAME="?getPerspective@ParticleEmitter@Orc@@UBE_NXZ" PURGE="0" COMMENT="" />
    <EXPORT ORDINAL="2056" NAME="?getPhysicalCPUs@ProcessorInfo@Orc@@QBEEXZ" PURGE="0" COMMENT="" />
    <EXPORT ORDINAL="2057" NAME="?getPitch@cImage@Orc@@QBEIXZ" PURGE="0" COMMENT="" />
    <EXPORT ORDINAL="2058" NAME="?getPitchFactor@iSoundSource@Orc@@QBE?BMXZ" PURGE="0" COMMENT="" />
    <EXPORT ORDINAL="2059" NAME="?getPitchVariation@iSoundSource@Orc@@QBE?BEXZ" PURGE="0" COMMENT="" />
    <EXPORT ORDINAL="2060" NAME="?getPixel@cImage@Orc@@QAEIII@Z" PURGE="8" COMMENT="" />
    <EXPORT ORDINAL="2061" NAME="?getPixelFormat@cImage@Orc@@QBEABVcPixelFormat@2@XZ" PURGE="0" COMMENT="" />
    <EXPORT ORDINAL="2062" NAME="?getPixelFormat@cImage@Orc@@QBEXAAVcPixelFormat@2@@Z" PURGE="4" COMMENT="" />
    <EXPORT ORDINAL="2063" NAME="?getPlane@cBoundingBox@Orc@@QBEABUD3DXPLANE@@G@Z" PURGE="4" COMMENT="" />
    <EXPORT ORDINAL="2064" NAME="?getPlane@cBoundingBoxAA@Orc@@QBE?AUD3DXPLANE@@I@Z" PURGE="8" COMMENT="" />
    <EXPORT ORDINAL="2065" NAME="?getPlaneSide@cBoundingBoxAA@Orc@@QBE?BW4PlaneSide@@ABUD3DXPLANE@@@Z" PURGE="4" COMMENT="" />
    <EXPORT ORDINAL="2066" NAME="?getPlayingChannels@iSoundSystem@Orc@@QAE?BIAAV?$vector@PAViSoundChannel@Orc@@V?$allocator@PAViSoundChannel@Orc@@@stlp_std@@@stlp_std@@@Z" PURGE="4" COMMENT="" />
    <EXPORT ORDINAL="2067" NAME="?getPlayingCounter@iSoundSource@Orc@@QBE?BIXZ" PURGE="0" COMMENT="" />
    <EXPORT ORDINAL="2068" NAME="?getPoint@cRay@Orc@@QBE?AUD3DXVECTOR3@@M@Z" PURGE="8" COMMENT="" />
    <EXPORT ORDINAL="2069" NAME="?getPosition@ParticleEmitter@Orc@@UBEABUD3DXVECTOR3@@XZ" PURGE="0" COMMENT="" />
    <EXPORT ORDINAL="2070" NAME="?getPosition@cRectangle@Orc@@QBE?AUD3DXVECTOR2@@XZ" PURGE="4" COMMENT="" />
    <EXPORT ORDINAL="2071" NAME="?getPosition@iSoundChannel@Orc@@UAE_NAAUD3DXVECTOR3@@@Z" PURGE="4" COMMENT="" />
    <EXPORT ORDINAL="2072" NAME="?getPosition@iSoundSource@Orc@@QBE?BUD3DXVECTOR3@@XZ" PURGE="4" COMMENT="" />
    <EXPORT ORDINAL="2073" NAME="?getPriority@iSoundChannel@Orc@@QBE?AW4ePriority@2@XZ" PURGE="0" COMMENT="" />
    <EXPORT ORDINAL="2074" NAME="?getProcessThreadsSnapshot@OsInfo@Orc@@SA_NAAV?$vector@IV?$allocator@I@stlp_std@@@stlp_std@@@Z" PURGE="0" COMMENT="" />
    <EXPORT ORDINAL="2075" NAME="?getProcessThreadsSnapshotDiff@OsInfo@Orc@@SA?AV?$vector@IV?$allocator@I@stlp_std@@@stlp_std@@AAV34@V34@@Z" PURGE="0" COMMENT="" />
    <EXPORT ORDINAL="2076" NAME="?getProcessorInfo@PlatformManager@Orc@@QBEABVProcessorInfo@2@XZ" PURGE="0" COMMENT="" />
    <EXPORT ORDINAL="2077" NAME="?getProcessorVendorId@ProcessorInfo@Orc@@ABEPBDXZ" PURGE="0" COMMENT="" />
    <EXPORT ORDINAL="2078" NAME="?getQueuedTasks@QueuedTaskMgr@Orc@@QBEIXZ" PURGE="0" COMMENT="" />
    <EXPORT ORDINAL="2079" NAME="?getRLECount@cIO_tga@Orc@@ABEHPAE0G@Z" PURGE="12" COMMENT="" />
    <EXPORT ORDINAL="2080" NAME="?getRadius@cBoundingCylinder@Orc@@QBEMXZ" PURGE="0" COMMENT="" />
    <EXPORT ORDINAL="2081" NAME="?getRadius@cBoundingSphere@Orc@@QBEMXZ" PURGE="0" COMMENT="" />
    <EXPORT ORDINAL="2082" NAME="?getRawData@cDataStore@Orc@@QBEPBXXZ" PURGE="0" COMMENT="" />
    <EXPORT ORDINAL="2083" NAME="?getRawPixelCount@cIO_tga@Orc@@ABEHPAE0G@Z" PURGE="12" COMMENT="" />
    <EXPORT ORDINAL="2084" NAME="?getRawSize@cDataStore@Orc@@QBEIXZ" PURGE="0" COMMENT="" />
    <EXPORT ORDINAL="2085" NAME="?getRayLen@cRectRay@Orc@@QBE?BMXZ" PURGE="0" COMMENT="" />
    <EXPORT ORDINAL="2086" NAME="?getReadAvailable@RingBufferByte@Orc@@QBEJXZ" PURGE="0" COMMENT="" />
    <EXPORT ORDINAL="2087" NAME="?getReadRegions@RingBufferByte@Orc@@IAEJJPAPAXPAJ01@Z" PURGE="20" COMMENT="" />
    <EXPORT ORDINAL="2088" NAME="?getReadable@iSoundClip@Orc@@UBEIXZ" PURGE="0" COMMENT="" />
    <EXPORT ORDINAL="2089" NAME="?getRedBits@cPixelFormat@Orc@@QBEII@Z" PURGE="4" COMMENT="" />
    <EXPORT ORDINAL="2090" NAME="?getRedMask@cPixelFormat@Orc@@QBEIXZ" PURGE="0" COMMENT="" />
    <EXPORT ORDINAL="2091" NAME="?getRedNumBits@cPixelFormat@Orc@@QBEIXZ" PURGE="0" COMMENT="" />
    <EXPORT ORDINAL="2092" NAME="?getRedShift@cPixelFormat@Orc@@QBEIXZ" PURGE="0" COMMENT="" />
    <EXPORT ORDINAL="2093" NAME="?getRefCount@cResource@Orc@@QBEIXZ" PURGE="0" COMMENT="" />
    <EXPORT ORDINAL="2094" NAME="?getRegisteredResources@cResourceManager@Orc@@UBEIAAV?$vector@VString@Orc@@V?$memtrack_allocator@VString@Orc@@$0IMHGPCA@@stlp_std@@@stlp_std@@@Z" PURGE="4" COMMENT="" />
    <EXPORT ORDINAL="2095" NAME="?getRenderSystem@Root@Orc@@QAEPAVRenderSystem@2@XZ" PURGE="0" COMMENT="" />
    <EXPORT ORDINAL="2096" NAME="?getRepeatDelay@ParticleEmitter@Orc@@UBEMXZ" PURGE="0" COMMENT="" />
    <EXPORT ORDINAL="2097" NAME="?getResourceDesc@iSoundSystem@Orc@@MBEXAAUsSoundResrcDesc@2@PBXI@Z" PURGE="12" COMMENT="" />
    <EXPORT ORDINAL="2098" NAME="?getResourceDesc@iSoundSystem@Orc@@QBEXAAUsSoundResrcDesc@2@PBDPBXI@Z" PURGE="16" COMMENT="" />
    <EXPORT ORDINAL="2099" NAME="?getResourceManagerCompanionID@iSoundSource@Orc@@QBE?BIXZ" PURGE="0" COMMENT="" />
    <EXPORT ORDINAL="2100" NAME="?getResourceManagerID@iSoundSource@Orc@@QBE?BIXZ" PURGE="0" COMMENT="" />
    <EXPORT ORDINAL="2101" NAME="?getResourceMgrTick@cResourceManager@Orc@@SAIXZ" PURGE="0" COMMENT="" />
    <EXPORT ORDINAL="2102" NAME="?getResourceName@iSoundChannel@Orc@@QBEPBDXZ" PURGE="0" COMMENT="" />
    <EXPORT ORDINAL="2103" NAME="?getResourceName@iSoundSource@Orc@@QBEPBDXZ" PURGE="0" COMMENT="" />
    <EXPORT ORDINAL="2104" NAME="?getResourceProfileID@iSoundSource@Orc@@QBE?BIXZ" PURGE="0" COMMENT="" />
    <EXPORT ORDINAL="2105" NAME="?getRightVorbis@iSound3DStereo@Orc@@UBEPAViSoundVorbis@2@XZ" PURGE="0" COMMENT="" />
    <EXPORT ORDINAL="2106" NAME="?getRoot@ProfileManager@Orc@@QAEPAVProfileNode@2@XZ" PURGE="0" COMMENT="" />
    <EXPORT ORDINAL="2107" NAME="?getRotation@Particle@Orc@@QBEMXZ" PURGE="0" COMMENT="" />
    <EXPORT ORDINAL="2108" NAME="?getRotationSpeed@Particle@Orc@@QBEMXZ" PURGE="0" COMMENT="" />
    <EXPORT ORDINAL="2109" NAME="?getS3TC_name@cS3TC@Orc@@QAEPBDW4eS3TC@12@@Z" PURGE="4" COMMENT="" />
    <EXPORT ORDINAL="2110" NAME="?getSampleLengthMS@iSoundSource@Orc@@QBE?BIXZ" PURGE="0" COMMENT="" />
    <EXPORT ORDINAL="2111" NAME="?getSamplerate@iSoundSource@Orc@@QBE?BGXZ" PURGE="0" COMMENT="" />
    <EXPORT ORDINAL="2112" NAME="?getSeconds@TimerCycle@Orc@@QBENXZ" PURGE="0" COMMENT="" />
    <EXPORT ORDINAL="2113" NAME="?getSeed@RandPseudo@Orc@@QBEJXZ" PURGE="0" COMMENT="" />
    <EXPORT ORDINAL="2114" NAME="?getSeed@RandPseudoOld@Orc@@QBEJXZ" PURGE="0" COMMENT="" />
    <EXPORT ORDINAL="2115" NAME="?getSetting@ConfigFile@Orc@@QAE?AVString@2@ABV32@@Z" PURGE="8" COMMENT="" />
    <EXPORT ORDINAL="2116" NAME="?getSettingsIterator@ConfigFile@Orc@@QAE?AV?$MapIterator@V?$multimap@VString@Orc@@V12@U?$less@VString@Orc@@@stlp_std@@V?$allocator@U?$pair@$$CBVString@Orc@@V12@@stlp_std@@@4@@stlp_std@@@2@XZ" PURGE="4" COMMENT="" />
    <EXPORT ORDINAL="2117" NAME="?getShiftBits@cPixelFormat@Orc@@AAEHI@Z" PURGE="4" COMMENT="" />
    <EXPORT ORDINAL="2118" NAME="?getSibling@ProfileNode@Orc@@QAEPAV12@XZ" PURGE="0" COMMENT="" />
    <EXPORT ORDINAL="2119" NAME="?getSize3@cBoundingBoxAA@Orc@@QBE?AUD3DXVECTOR3@@XZ" PURGE="4" COMMENT="" />
    <EXPORT ORDINAL="2120" NAME="?getSize@Particle@Orc@@QAEMXZ" PURGE="0" COMMENT="" />
    <EXPORT ORDINAL="2121" NAME="?getSize@ParticleEmitter@Orc@@UBEMXZ" PURGE="0" COMMENT="" />
    <EXPORT ORDINAL="2122" NAME="?getSize@cBoundingBox@Orc@@QBE?AUD3DXVECTOR3@@XZ" PURGE="4" COMMENT="" />
    <EXPORT ORDINAL="2123" NAME="?getSize@cBoundingBoxAA@Orc@@QBE?AUD3DXVECTOR3@@XZ" PURGE="4" COMMENT="" />
    <EXPORT ORDINAL="2124" NAME="?getSize@cBoxRay@Orc@@QBE?BMXZ" PURGE="0" COMMENT="" />
    <EXPORT ORDINAL="2125" NAME="?getSize@cResource@Orc@@UAEIXZ" PURGE="0" COMMENT="" />
    <EXPORT ORDINAL="2126" NAME="?getSizeLeft@cRectRay@Orc@@QBE?BMXZ" PURGE="0" COMMENT="" />
    <EXPORT ORDINAL="2127" NAME="?getSizeMax@ParticleEmitter@Orc@@UBEMXZ" PURGE="0" COMMENT="" />
    <EXPORT ORDINAL="2128" NAME="?getSizeUp@cRectRay@Orc@@QBE?BMXZ" PURGE="0" COMMENT="" />
    <EXPORT ORDINAL="2129" NAME="?getSoftParticles@ParticleSystem@Orc@@QBE_NXZ" PURGE="0" COMMENT="" />
    <EXPORT ORDINAL="2130" NAME="?getSoundCapsDesc@iSoundSystem@Orc@@UAE?AVString@2@W4eSoundCaps@2@@Z" PURGE="8" COMMENT="" />
    <EXPORT ORDINAL="2131" NAME="?getSoundDriverHandle1@iSoundSystem@Orc@@UBE_KXZ" PURGE="0" COMMENT="" />
    <EXPORT ORDINAL="2132" NAME="?getSoundDriverHandle2@iSoundSystem@Orc@@UBE_KXZ" PURGE="0" COMMENT="" />
    <EXPORT ORDINAL="2133" NAME="?getSoundDriverHandle3@iSoundSystem@Orc@@UBE_KXZ" PURGE="0" COMMENT="" />
    <EXPORT ORDINAL="2134" NAME="?getSoundGroup@iSound3DStereo@Orc@@UBE?BIXZ" PURGE="0" COMMENT="" />
    <EXPORT ORDINAL="2135" NAME="?getSoundGroup@iSound3DSubwoofer@Orc@@UBE?BIXZ" PURGE="0" COMMENT="" />
    <EXPORT ORDINAL="2136" NAME="?getSoundGroup@iSoundChannel@Orc@@QBE?BIXZ" PURGE="0" COMMENT="" />
    <EXPORT ORDINAL="2137" NAME="?getSoundGroup@iSoundClip@Orc@@QBE?BIXZ" PURGE="0" COMMENT="" />
    <EXPORT ORDINAL="2138" NAME="?getSoundGroup@iSoundSource@Orc@@QBE?BEXZ" PURGE="0" COMMENT="" />
    <EXPORT ORDINAL="2139" NAME="?getSoundGroup@iSoundVorbis@Orc@@QBE?BIXZ" PURGE="0" COMMENT="" />
    <EXPORT ORDINAL="2140" NAME="?getSoundInfo@iSoundSystem@Orc@@UAEHW4eSoundInfo@2@IPAVString@2@@Z" PURGE="12" COMMENT="" />
    <EXPORT ORDINAL="2141" NAME="?getSoundParams@iSoundChannel@Orc@@QBEABUsSoundParams@2@XZ" PURGE="0" COMMENT="" />
    <EXPORT ORDINAL="2142" NAME="?getSoundParams@iSoundSource@Orc@@QBEABUsSoundParams@2@XZ" PURGE="0" COMMENT="" />
    <EXPORT ORDINAL="2143" NAME="?getSoundSource@iSoundChannel@Orc@@QBEPAViSoundSource@2@XZ" PURGE="0" COMMENT="" />
    <EXPORT ORDINAL="2144" NAME="?getSoundSystemParams@iSoundSystem@Orc@@QBE?AUsSoundSystemParams@2@XZ" PURGE="4" COMMENT="" />
    <EXPORT ORDINAL="2145" NAME="?getStartDelay@ParticleEmitter@Orc@@QBEMXZ" PURGE="0" COMMENT="" />
    <EXPORT ORDINAL="2146" NAME="?getStartTime@MD5Anim@Orc@@QBEMXZ" PURGE="0" COMMENT="" />
    <EXPORT ORDINAL="2147" NAME="?getStats@Root@Orc@@QBEPBUOrcStats@12@XZ" PURGE="0" COMMENT="" />
    <EXPORT ORDINAL="2148" NAME="?getStats@cResourceManager@Orc@@QBEPBUStats@12@XZ" PURGE="0" COMMENT="" />
    <EXPORT ORDINAL="2149" NAME="?getStatus@iQueuedTask@Orc@@QBE?AW4eTaskStatus@2@XZ" PURGE="0" COMMENT="" />
    <EXPORT ORDINAL="2150" NAME="?getStereoCaps@iSoundSystem@Orc@@UBE?AW4eSoundCaps@2@W432@@Z" PURGE="4" COMMENT="" />
    <EXPORT ORDINAL="2151" NAME="?getStreakLength@ParticleEmitter@Orc@@UBEMXZ" PURGE="0" COMMENT="" />
    <EXPORT ORDINAL="2152" NAME="?getStreakSize@ParticleEmitter@Orc@@UBEMXZ" PURGE="0" COMMENT="" />
    <EXPORT ORDINAL="2153" NAME="?getStreamingEnabled@cArchiveContainer@Orc@@SA_NXZ" PURGE="0" COMMENT="" />
    <EXPORT ORDINAL="2154" NAME="?getStreamingMgr@cArchiveContainer@Orc@@SAPAViArchiveStreaming@2@XZ" PURGE="0" COMMENT="" />
    <EXPORT ORDINAL="2155" NAME="?getSubNode@ProfileNode@Orc@@QAEPAV12@PBD@Z" PURGE="4" COMMENT="" />
    <EXPORT ORDINAL="2156" NAME="?getSystem@ParticleSystemMgr@Orc@@QAEPAVParticleSystem@2@ABVString@2@@Z" PURGE="4" COMMENT="" />
    <EXPORT ORDINAL="2157" NAME="?getTangent@cSplineCR@Orc@@QBEABUD3DXVECTOR3@@G@Z" PURGE="4" COMMENT="" />
    <EXPORT ORDINAL="2158" NAME="?getTangent@cSplineCR@Orc@@QBEABUD3DXVECTOR3@@I@Z" PURGE="4" COMMENT="" />
    <EXPORT ORDINAL="2159" NAME="?getTangentVector@cSplineCR@Orc@@QAE?AUD3DXVECTOR3@@M@Z" PURGE="8" COMMENT="" />
    <EXPORT ORDINAL="2160" NAME="?getTask@iQueuedThread@Orc@@QBEPBViQueuedTask@2@XZ" PURGE="0" COMMENT="" />
    <EXPORT ORDINAL="2161" NAME="?getTaskName@iQueuedTask@Orc@@UBE?BVString@2@XZ" PURGE="4" COMMENT="" />
    <EXPORT ORDINAL="2162" NAME="?getTemplate@ParticleSystemMgr@Orc@@QAEPAVParticleSystem@2@ABVString@2@@Z" PURGE="4" COMMENT="" />
    <EXPORT ORDINAL="2163" NAME="?getTemplateName@ParticleSystem@Orc@@QBEABVString@2@XZ" PURGE="0" COMMENT="" />
    <EXPORT ORDINAL="2164" NAME="?getThread@QueuedTaskMgr@Orc@@QBEPBViQueuedThread@2@I@Z" PURGE="4" COMMENT="" />
    <EXPORT ORDINAL="2165" NAME="?getThreadCount@QueuedTaskMgr@Orc@@QBEIXZ" PURGE="0" COMMENT="" />
    <EXPORT ORDINAL="2166" NAME="?getThreadLoad@QueuedTaskMgr@Orc@@QAEMIM@Z" PURGE="8" COMMENT="" />
    <EXPORT ORDINAL="2167" NAME="?getThreadLoad@iThread@Orc@@UAEMM@Z" PURGE="4" COMMENT="" />
    <EXPORT ORDINAL="2168" NAME="?getThreadSleep@ThreadTask@Orc@@QBEIXZ" PURGE="0" COMMENT="" />
    <EXPORT ORDINAL="2169" NAME="?getThreadSleep@iThread@Orc@@UBEIXZ" PURGE="0" COMMENT="" />
    <EXPORT ORDINAL="2170" NAME="?getTickCounter@PerfCounter@Orc@@SA_KXZ" PURGE="0" COMMENT="" />
    <EXPORT ORDINAL="2171" NAME="?getTime@iSoundClip@Orc@@UBEMXZ" PURGE="0" COMMENT="" />
    <EXPORT ORDINAL="2172" NAME="?getTime@iSoundVorbis@Orc@@UBEMXZ" PURGE="0" COMMENT="" />
    <EXPORT ORDINAL="2173" NAME="?getTimeFactor@ParticleSystemMgr@Orc@@QAEMXZ" PURGE="0" COMMENT="" />
    <EXPORT ORDINAL="2174" NAME="?getTimeSinceInit@Root@Orc@@QBE?AVTimerCycle@2@XZ" PURGE="4" COMMENT="" />
    <EXPORT ORDINAL="2175" NAME="?getTimeStamp@ProcessorInfo@Orc@@CAXAA_J@Z" PURGE="0" COMMENT="" />
    <EXPORT ORDINAL="2176" NAME="?getTimeStamp@ProcessorInfo@Orc@@CAXPA_J@Z" PURGE="0" COMMENT="" />
    <EXPORT ORDINAL="2177" NAME="?getTimeToLive@ParticleEmitter@Orc@@UBEMXZ" PURGE="0" COMMENT="" />
    <EXPORT ORDINAL="2178" NAME="?getTimer@Root@Orc@@QAEPAVTimer@2@XZ" PURGE="0" COMMENT="" />
    <EXPORT ORDINAL="2179" NAME="?getTiming@TimerHelper@Orc@@QBEMXZ" PURGE="0" COMMENT="" />
    <EXPORT ORDINAL="2180" NAME="?getTotalCalls@ProfileNode@Orc@@QAEHXZ" PURGE="0" COMMENT="" />
    <EXPORT ORDINAL="2181" NAME="?getTotalTime@ProfileNode@Orc@@QAEMXZ" PURGE="0" COMMENT="" />
    <EXPORT ORDINAL="2182" NAME="?getType@ParticleAffector@Orc@@UBEQBDXZ" PURGE="-1" COMMENT="" />
    <EXPORT ORDINAL="2183" NAME="?getType@ParticleEmitter@Orc@@UBEQBDXZ" PURGE="-1" COMMENT="" />
    <EXPORT ORDINAL="2184" NAME="?getType@TextToken@Orc@@QBE?AW4token_type@12@XZ" PURGE="0" COMMENT="" />
    <EXPORT ORDINAL="2185" NAME="?getType@cFileBit@Orc@@UBE?AW4eFileClass@2@XZ" PURGE="0" COMMENT="" />
    <EXPORT ORDINAL="2186" NAME="?getType@cFileBitOld@Orc@@UBE?AW4eFileClass@2@XZ" PURGE="0" COMMENT="" />
    <EXPORT ORDINAL="2187" NAME="?getType@cFileDisk@Orc@@UBE?AW4eFileClass@2@XZ" PURGE="0" COMMENT="" />
    <EXPORT ORDINAL="2188" NAME="?getType@cFileMem@Orc@@UBE?AW4eFileClass@2@XZ" PURGE="0" COMMENT="" />
    <EXPORT ORDINAL="2189" NAME="?getTypeDesc@iSoundChannel@Orc@@QBEABVString@2@XZ" PURGE="0" COMMENT="" />
    <EXPORT ORDINAL="2190" NAME="?getUncompressedSize@cCodecZIP@Orc@@QBEIAAVcFile@2@@Z" PURGE="4" COMMENT="" />
    <EXPORT ORDINAL="2191" NAME="?getUniqueID@iSound3DStereo@Orc@@UBE?BIXZ" PURGE="0" COMMENT="" />
    <EXPORT ORDINAL="2192" NAME="?getUniqueID@iSound3DSubwoofer@Orc@@UBE?BIXZ" PURGE="0" COMMENT="" />
    <EXPORT ORDINAL="2193" NAME="?getUniqueID@iSoundChannel@Orc@@QBE?BIXZ" PURGE="0" COMMENT="" />
    <EXPORT ORDINAL="2194" NAME="?getUniqueID@iSoundClip@Orc@@QBE?BIXZ" PURGE="0" COMMENT="" />
    <EXPORT ORDINAL="2195" NAME="?getUniqueID@iSoundSource@Orc@@QBE?BIXZ" PURGE="0" COMMENT="" />
    <EXPORT ORDINAL="2196" NAME="?getUniqueID@iSoundVorbis@Orc@@QBE?BIXZ" PURGE="0" COMMENT="" />
    <EXPORT ORDINAL="2197" NAME="?getUp@cBoxRay@Orc@@QBEABUD3DXVECTOR3@@XZ" PURGE="0" COMMENT="" />
    <EXPORT ORDINAL="2198" NAME="?getUp@cRectRay@Orc@@QBE?BUD3DXVECTOR3@@XZ" PURGE="4" COMMENT="" />
    <EXPORT ORDINAL="2199" NAME="?getUpNrm@cRectRay@Orc@@QBE?BUD3DXVECTOR3@@XZ" PURGE="4" COMMENT="" />
    <EXPORT ORDINAL="2200" NAME="?getUserData@ParticleSystem@Orc@@QBEIXZ" PURGE="0" COMMENT="" />
    <EXPORT ORDINAL="2201" NAME="?getValue@cSplineCR@Orc@@QBEABUD3DXVECTOR3@@G@Z" PURGE="4" COMMENT="" />
    <EXPORT ORDINAL="2202" NAME="?getVendor@ProcessorInfo@Orc@@QBEPBDXZ" PURGE="0" COMMENT="" />
    <EXPORT ORDINAL="2203" NAME="?getVersion@Root@Orc@@QBEPBUBuildVersion@2@XZ" PURGE="0" COMMENT="" />
    <EXPORT ORDINAL="2204" NAME="?getVersionString@iSoundSystem@Orc@@UBEABVString@2@XZ" PURGE="0" COMMENT="" />
    <EXPORT ORDINAL="2205" NAME="?getVolume1@iSoundChannel@Orc@@QBEMXZ" PURGE="0" COMMENT="" />
    <EXPORT ORDINAL="2206" NAME="?getVolume1@iSoundClip@Orc@@UBEMXZ" PURGE="0" COMMENT="" />
    <EXPORT ORDINAL="2207" NAME="?getVolume1@iSoundSource@Orc@@QBE?BMXZ" PURGE="0" COMMENT="" />
    <EXPORT ORDINAL="2208" NAME="?getVolume1@iSoundVorbis@Orc@@UBEMXZ" PURGE="0" COMMENT="" />
    <EXPORT ORDINAL="2209" NAME="?getVolume2@iSoundChannel@Orc@@QBEMXZ" PURGE="0" COMMENT="" />
    <EXPORT ORDINAL="2210" NAME="?getVolume2@iSoundClip@Orc@@UBEMXZ" PURGE="0" COMMENT="" />
    <EXPORT ORDINAL="2211" NAME="?getVolume2@iSoundSource@Orc@@QBE?BMXZ" PURGE="0" COMMENT="" />
    <EXPORT ORDINAL="2212" NAME="?getVolume2@iSoundVorbis@Orc@@UBEMXZ" PURGE="0" COMMENT="" />
    <EXPORT ORDINAL="2213" NAME="?getVolume@cBoundingBoxAA@Orc@@QBEMXZ" PURGE="0" COMMENT="" />
    <EXPORT ORDINAL="2214" NAME="?getVorbis@iSound3DSubwoofer@Orc@@UBEPAViSoundVorbis@2@XZ" PURGE="0" COMMENT="" />
    <EXPORT ORDINAL="2215" NAME="?getWaitForVerticalBlank@RenderSystem@Orc@@QAE_NXZ" PURGE="0" COMMENT="" />
    <EXPORT ORDINAL="2216" NAME="?getWetVolume@iSoundSystem@Orc@@UBEMXZ" PURGE="0" COMMENT="" />
    <EXPORT ORDINAL="2217" NAME="?getWidth@cImage@Orc@@QBEIXZ" PURGE="0" COMMENT="" />
    <EXPORT ORDINAL="2218" NAME="?getWriteAlignment@cDataStore@Orc@@QBEIXZ" PURGE="0" COMMENT="" />
    <EXPORT ORDINAL="2219" NAME="?getWriteAvailable@RingBufferByte@Orc@@QBEJXZ" PURGE="0" COMMENT="" />
    <EXPORT ORDINAL="2220" NAME="?getWriteRegions@RingBufferByte@Orc@@IAEJJPAPAXPAJ01@Z" PURGE="20" COMMENT="" />
    <EXPORT ORDINAL="2221" NAME="?getWriteable@iSoundClip@Orc@@UBEIXZ" PURGE="0" COMMENT="" />
    <EXPORT ORDINAL="2222" NAME="?get_Frame_Count_Since_Reset@ProfileManager@Orc@@QAEHXZ" PURGE="0" COMMENT="" />
    <EXPORT ORDINAL="2223" NAME="?get_Time_Since_Reset@ProfileManager@Orc@@QAEMXZ" PURGE="0" COMMENT="" />
    <EXPORT ORDINAL="2224" NAME="?get_allocator@?$basic_string@DV?$char_traits@D@stlp_std@@V?$memtrack_allocator@D$0IMHGPCA@@2@@stlp_std@@QBE?AV?$memtrack_allocator@D$0IMHGPCA@@2@XZ" PURGE="4" COMMENT="" />
    <EXPORT ORDINAL="2225" NAME="?get_allocator@?$basic_string@_WV?$char_traits@_W@stlp_std@@V?$memtrack_allocator@_W$0IMHGPCA@@2@@stlp_std@@QBE?AV?$memtrack_allocator@_W$0IMHGPCA@@2@XZ" PURGE="4" COMMENT="" />
    <EXPORT ORDINAL="2226" NAME="?get_type@cCodecHuffman@Orc@@UBEPBDXZ" PURGE="0" COMMENT="" />
    <EXPORT ORDINAL="2227" NAME="?get_type@cIO_bmp@Orc@@UBEPBDXZ" PURGE="0" COMMENT="" />
    <EXPORT ORDINAL="2228" NAME="?get_type@cIO_dds@Orc@@UBEPBDXZ" PURGE="0" COMMENT="" />
    <EXPORT ORDINAL="2229" NAME="?get_type@cIO_ico@Orc@@UBEPBDXZ" PURGE="0" COMMENT="" />
    <EXPORT ORDINAL="2230" NAME="?get_type@cIO_jpg@Orc@@UBEPBDXZ" PURGE="0" COMMENT="" />
    <EXPORT ORDINAL="2231" NAME="?get_type@cIO_pcx@Orc@@UBEPBDXZ" PURGE="0" COMMENT="" />
    <EXPORT ORDINAL="2232" NAME="?get_type@cIO_tga@Orc@@UBEPBDXZ" PURGE="0" COMMENT="" />
    <EXPORT ORDINAL="2233" NAME="?grad@Perlin@Orc@@KAMHMM@Z" PURGE="0" COMMENT="" />
    <EXPORT ORDINAL="2234" NAME="?grad@Perlin@Orc@@KAMHMMM@Z" PURGE="0" COMMENT="" />
    <EXPORT ORDINAL="2235" NAME="?has3DInformation@iSoundSource@Orc@@QBE_NXZ" PURGE="0" COMMENT="" />
    <EXPORT ORDINAL="2236" NAME="?has3DInformation@sSoundParams@Orc@@QBE_NXZ" PURGE="0" COMMENT="" />
    <EXPORT ORDINAL="2237" NAME="?has3DNow@ProcessorInfo@Orc@@QBE_NXZ" PURGE="0" COMMENT="" />
    <EXPORT ORDINAL="2238" NAME="?hasACPI@ProcessorInfo@Orc@@QBE_NXZ" PURGE="0" COMMENT="" />
    <EXPORT ORDINAL="2239" NAME="?hasAlpha@cImage@Orc@@QAE_NXZ" PURGE="0" COMMENT="" />
    <EXPORT ORDINAL="2240" NAME="?hasCMOV@ProcessorInfo@Orc@@QBE_NXZ" PURGE="0" COMMENT="" />
    <EXPORT ORDINAL="2241" NAME="?hasCpuSerial@ProcessorInfo@Orc@@QBE_NXZ" PURGE="0" COMMENT="" />
    <EXPORT ORDINAL="2242" NAME="?hasDuckingRequested@iSoundChannel@Orc@@QBE_NXZ" PURGE="0" COMMENT="" />
    <EXPORT ORDINAL="2243" NAME="?hasDuckingRequested@iSoundSource@Orc@@QBE_NXZ" PURGE="0" COMMENT="" />
    <EXPORT ORDINAL="2244" NAME="?hasDuckingRequested@sSoundParams@Orc@@QBE_NXZ" PURGE="0" COMMENT="" />
    <EXPORT ORDINAL="2245" NAME="?hasFCMOV@ProcessorInfo@Orc@@QBE_NXZ" PURGE="0" COMMENT="" />
    <EXPORT ORDINAL="2246" NAME="?hasFPU@ProcessorInfo@Orc@@QBE_NXZ" PURGE="0" COMMENT="" />
    <EXPORT ORDINAL="2247" NAME="?hasHT@ProcessorInfo@Orc@@QBE_NXZ" PURGE="0" COMMENT="" />
    <EXPORT ORDINAL="2248" NAME="?hasMMX@ProcessorInfo@Orc@@QBE_NXZ" PURGE="0" COMMENT="" />
    <EXPORT ORDINAL="2249" NAME="?hasMP3Header@iSoundSource@Orc@@QBE_NXZ" PURGE="0" COMMENT="" />
    <EXPORT ORDINAL="2250" NAME="?hasOGGHeader@iSoundSource@Orc@@QBE_NXZ" PURGE="0" COMMENT="" />
    <EXPORT ORDINAL="2251" NAME="?hasPlayedOnce@iSoundSource@Orc@@QBE_NXZ" PURGE="0" COMMENT="" />
    <EXPORT ORDINAL="2252" NAME="?hasRDTSC@ProcessorInfo@Orc@@QBE_NXZ" PURGE="0" COMMENT="" />
    <EXPORT ORDINAL="2253" NAME="?hasSSE2@ProcessorInfo@Orc@@QBE_NXZ" PURGE="0" COMMENT="" />
    <EXPORT ORDINAL="2254" NAME="?hasSSE3@ProcessorInfo@Orc@@QBE_NXZ" PURGE="0" COMMENT="" />
    <EXPORT ORDINAL="2255" NAME="?hasSSE@ProcessorInfo@Orc@@QBE_NXZ" PURGE="0" COMMENT="" />
    <EXPORT ORDINAL="2256" NAME="?hasSpeedstep@ProcessorInfo@Orc@@QBE_NXZ" PURGE="0" COMMENT="" />
    <EXPORT ORDINAL="2257" NAME="?hasStreaks@ParticleEmitter@Orc@@QAE_NXZ" PURGE="0" COMMENT="" />
    <EXPORT ORDINAL="2258" NAME="?hasStreaks@ParticleSystem@Orc@@QAE_NXZ" PURGE="0" COMMENT="" />
    <EXPORT ORDINAL="2259" NAME="?hasThermalMonitor@ProcessorInfo@Orc@@QBE_NXZ" PURGE="0" COMMENT="" />
    <EXPORT ORDINAL="2260" NAME="?hasWAVHeader@iSoundSource@Orc@@QBE_NXZ" PURGE="0" COMMENT="" />
    <EXPORT ORDINAL="2261" NAME="?icos@cMath@Orc@@SAMM@Z" PURGE="-1" COMMENT="" />
    <EXPORT ORDINAL="2262" NAME="?incFrameCount@Root@Orc@@QAEXXZ" PURGE="0" COMMENT="" />
    <EXPORT ORDINAL="2263" NAME="?incRefCount@cResource@Orc@@QAEXXZ" PURGE="0" COMMENT="" />
    <EXPORT ORDINAL="2264" NAME="?increasePriority@iSoundChannel@Orc@@AAEXXZ" PURGE="0" COMMENT="" />
    <EXPORT ORDINAL="2265" NAME="?increment_Frame_Counter@ProfileManager@Orc@@QAEXXZ" PURGE="0" COMMENT="" />
    <EXPORT ORDINAL="2266" NAME="?init@?1??machine_epsilon@cMath@Orc@@SAMXZ@4_NA" PURGE="-1" COMMENT="" />
    <EXPORT ORDINAL="2267" NAME="?init@ProcessorInfo@Orc@@AAEX_N@Z" PURGE="4" COMMENT="" />
    <EXPORT ORDINAL="2268" NAME="?init@RingBufferByte@Orc@@QAE_NJ@Z" PURGE="4" COMMENT="" />
    <EXPORT ORDINAL="2269" NAME="?init@StringTools@Orc@@SAXXZ" PURGE="0" COMMENT="" />
    <EXPORT ORDINAL="2270" NAME="?init@TimerCycle@Orc@@QAEXM@Z" PURGE="4" COMMENT="" />
    <EXPORT ORDINAL="2271" NAME="?init@TimerCycle@Orc@@QAEXXZ" PURGE="0" COMMENT="" />
    <EXPORT ORDINAL="2272" NAME="?init@TimerInit@Orc@@SAXW4eTimerType@12@@Z" PURGE="0" COMMENT="" />
    <EXPORT ORDINAL="2273" NAME="?init@cCpuBinding@Orc@@SAX_N@Z" PURGE="0" COMMENT="" />
    <EXPORT ORDINAL="2274" NAME="?init@cMD5@Orc@@QAEXXZ" PURGE="0" COMMENT="" />
    <EXPORT ORDINAL="2275" NAME="?init@cMath@Orc@@SAX_N0000@Z" PURGE="0" COMMENT="" />
    <EXPORT ORDINAL="2276" NAME="?init@cSystem@Orc@@SAX_N0000@Z" PURGE="0" COMMENT="" />
    <EXPORT ORDINAL="2277" NAME="?init@iSoundChannel@Orc@@UAE_NPAViSoundSource@2@@Z" PURGE="4" COMMENT="" />
    <EXPORT ORDINAL="2278" NAME="?init@iSoundSource@Orc@@QAEXUsSoundParams@2@@Z" PURGE="108" COMMENT="" />
    <EXPORT ORDINAL="2279" NAME="?initParameters@ParticleSystem@Orc@@QAEXXZ" PURGE="0" COMMENT="" />
    <EXPORT ORDINAL="2280" NAME="?initSoundSystem@iSoundSystem@Orc@@UAE_NABUsSoundSystemParams@2@@Z" PURGE="4" COMMENT="" />
    <EXPORT ORDINAL="2281" NAME="?init_play@iSoundChannel@Orc@@UAE_NPAViSoundSource@2@I@Z" PURGE="8" COMMENT="" />
    <EXPORT ORDINAL="2282" NAME="?initialize@ParticleSystemMgr@Orc@@QAEXXZ" PURGE="0" COMMENT="" />
    <EXPORT ORDINAL="2283" NAME="?insert@?$basic_string@DV?$char_traits@D@stlp_std@@V?$memtrack_allocator@D$0IMHGPCA@@2@@stlp_std@@QAEAAV12@IABV12@@Z" PURGE="8" COMMENT="" />
    <EXPORT ORDINAL="2284" NAME="?insert@?$basic_string@DV?$char_traits@D@stlp_std@@V?$memtrack_allocator@D$0IMHGPCA@@2@@stlp_std@@QAEAAV12@IABV12@II@Z" PURGE="16" COMMENT="" />
    <EXPORT ORDINAL="2285" NAME="?insert@?$basic_string@DV?$char_traits@D@stlp_std@@V?$memtrack_allocator@D$0IMHGPCA@@2@@stlp_std@@QAEAAV12@IID@Z" PURGE="12" COMMENT="" />
    <EXPORT ORDINAL="2286" NAME="?insert@?$basic_string@DV?$char_traits@D@stlp_std@@V?$memtrack_allocator@D$0IMHGPCA@@2@@stlp_std@@QAEAAV12@IPBD@Z" PURGE="8" COMMENT="" />
    <EXPORT ORDINAL="2287" NAME="?insert@?$basic_string@DV?$char_traits@D@stlp_std@@V?$memtrack_allocator@D$0IMHGPCA@@2@@stlp_std@@QAEAAV12@IPBDI@Z" PURGE="12" COMMENT="" />
    <EXPORT ORDINAL="2288" NAME="?insert@?$basic_string@DV?$char_traits@D@stlp_std@@V?$memtrack_allocator@D$0IMHGPCA@@2@@stlp_std@@QAEPADPADD@Z" PURGE="8" COMMENT="" />
    <EXPORT ORDINAL="2289" NAME="?insert@?$basic_string@DV?$char_traits@D@stlp_std@@V?$memtrack_allocator@D$0IMHGPCA@@2@@stlp_std@@QAEXPADID@Z" PURGE="12" COMMENT="" />
    <EXPORT ORDINAL="2290" NAME="?insert@?$basic_string@DV?$char_traits@D@stlp_std@@V?$memtrack_allocator@D$0IMHGPCA@@2@@stlp_std@@QAEXPADPBD1@Z" PURGE="12" COMMENT="" />
    <EXPORT ORDINAL="2291" NAME="?insert@?$basic_string@_WV?$char_traits@_W@stlp_std@@V?$memtrack_allocator@_W$0IMHGPCA@@2@@stlp_std@@QAEAAV12@IABV12@@Z" PURGE="8" COMMENT="" />
    <EXPORT ORDINAL="2292" NAME="?insert@?$basic_string@_WV?$char_traits@_W@stlp_std@@V?$memtrack_allocator@_W$0IMHGPCA@@2@@stlp_std@@QAEAAV12@IABV12@II@Z" PURGE="16" COMMENT="" />
    <EXPORT ORDINAL="2293" NAME="?insert@?$basic_string@_WV?$char_traits@_W@stlp_std@@V?$memtrack_allocator@_W$0IMHGPCA@@2@@stlp_std@@QAEAAV12@II_W@Z" PURGE="12" COMMENT="" />
    <EXPORT ORDINAL="2294" NAME="?insert@?$basic_string@_WV?$char_traits@_W@stlp_std@@V?$memtrack_allocator@_W$0IMHGPCA@@2@@stlp_std@@QAEAAV12@IPB_W@Z" PURGE="8" COMMENT="" />
    <EXPORT ORDINAL="2295" NAME="?insert@?$basic_string@_WV?$char_traits@_W@stlp_std@@V?$memtrack_allocator@_W$0IMHGPCA@@2@@stlp_std@@QAEAAV12@IPB_WI@Z" PURGE="12" COMMENT="" />
    <EXPORT ORDINAL="2296" NAME="?insert@?$basic_string@_WV?$char_traits@_W@stlp_std@@V?$memtrack_allocator@_W$0IMHGPCA@@2@@stlp_std@@QAEPA_WPA_W_W@Z" PURGE="8" COMMENT="" />
    <EXPORT ORDINAL="2297" NAME="?insert@?$basic_string@_WV?$char_traits@_W@stlp_std@@V?$memtrack_allocator@_W$0IMHGPCA@@2@@stlp_std@@QAEXPA_WI_W@Z" PURGE="12" COMMENT="" />
    <EXPORT ORDINAL="2298" NAME="?insert@?$basic_string@_WV?$char_traits@_W@stlp_std@@V?$memtrack_allocator@_W$0IMHGPCA@@2@@stlp_std@@QAEXPA_WPB_W1@Z" PURGE="12" COMMENT="" />
    <EXPORT ORDINAL="2299" NAME="?interpolate@cSplineCR@Orc@@QBE?AUD3DXVECTOR3@@IM@Z" PURGE="12" COMMENT="" />
    <EXPORT ORDINAL="2300" NAME="?interpolate@cSplineCR@Orc@@QBE?AUD3DXVECTOR3@@M@Z" PURGE="8" COMMENT="" />
    <EXPORT ORDINAL="2301" NAME="?interpolate@cSplineCR@Orc@@SA?AUD3DXVECTOR3@@ABU3@000M@Z" PURGE="0" COMMENT="" />
    <EXPORT ORDINAL="2302" NAME="?intersects8_sse@cRectRayHitTest@Orc@@QBE_NPBUD3DXVECTOR3@@@Z" PURGE="4" COMMENT="" />
    <EXPORT ORDINAL="2303" NAME="?intersects@cMath@Orc@@SA_NABUD3DXPLANE@@ABUD3DXVECTOR3@@1PAU4@@Z" PURGE="0" COMMENT="" />
    <EXPORT ORDINAL="2304" NAME="?intersects@cMath@Orc@@SA_NABUD3DXPLANE@@ABVcBoundingBoxAA@2@@Z" PURGE="0" COMMENT="" />
    <EXPORT ORDINAL="2305" NAME="?intersects@cMath@Orc@@SA_NABVcBoundingBox@2@0PAUsIntersection@2@@Z" PURGE="0" COMMENT="" />
    <EXPORT ORDINAL="2306" NAME="?intersects@cMath@Orc@@SA_NABVcBoundingBox@2@ABUD3DXVECTOR3@@@Z" PURGE="0" COMMENT="" />
    <EXPORT ORDINAL="2307" NAME="?intersects@cMath@Orc@@SA_NABVcBoundingBox@2@ABVcBoundingBoxAA@2@PAUsIntersection@2@@Z" PURGE="0" COMMENT="" />
    <EXPORT ORDINAL="2308" NAME="?intersects@cMath@Orc@@SA_NABVcBoundingBox@2@ABVcBoundingSphere@2@@Z" PURGE="0" COMMENT="" />
    <EXPORT ORDINAL="2309" NAME="?intersects@cMath@Orc@@SA_NABVcBoundingBoxAA@2@0@Z" PURGE="0" COMMENT="" />
    <EXPORT ORDINAL="2310" NAME="?intersects@cMath@Orc@@SA_NABVcBoundingBoxAA@2@ABUD3DXVECTOR3@@@Z" PURGE="0" COMMENT="" />
    <EXPORT ORDINAL="2311" NAME="?intersects@cMath@Orc@@SA_NABVcBoundingBoxAA@2@ABVcBoundingBox@2@PAUsIntersection@2@@Z" PURGE="0" COMMENT="" />
    <EXPORT ORDINAL="2312" NAME="?intersects@cMath@Orc@@SA_NABVcBoundingCylinder@2@0@Z" PURGE="0" COMMENT="" />
    <EXPORT ORDINAL="2313" NAME="?intersects@cMath@Orc@@SA_NABVcBoundingCylinder@2@ABUD3DXVECTOR3@@@Z" PURGE="0" COMMENT="" />
    <EXPORT ORDINAL="2314" NAME="?intersects@cMath@Orc@@SA_NABVcBoundingSphere@2@0@Z" PURGE="0" COMMENT="" />
    <EXPORT ORDINAL="2315" NAME="?intersects@cMath@Orc@@SA_NABVcBoundingSphere@2@ABUD3DXPLANE@@@Z" PURGE="0" COMMENT="" />
    <EXPORT ORDINAL="2316" NAME="?intersects@cMath@Orc@@SA_NABVcBoundingSphere@2@ABUD3DXVECTOR3@@@Z" PURGE="0" COMMENT="" />
    <EXPORT ORDINAL="2317" NAME="?intersects@cMath@Orc@@SA_NABVcBoundingSphere@2@ABVcBoundingBox@2@@Z" PURGE="0" COMMENT="" />
    <EXPORT ORDINAL="2318" NAME="?intersects@cMath@Orc@@SA_NABVcBoundingSphere@2@ABVcBoundingBoxAA@2@@Z" PURGE="0" COMMENT="" />
    <EXPORT ORDINAL="2319" NAME="?intersects@cMath@Orc@@SA_NABVcBoundingSphere@2@ABVcOBB@2@@Z" PURGE="0" COMMENT="" />
    <EXPORT ORDINAL="2320" NAME="?intersects@cMath@Orc@@SA_NABVcBoundingSphere@2@PBUD3DXVECTOR3@@@Z" PURGE="0" COMMENT="" />
    <EXPORT ORDINAL="2321" NAME="?intersects@cMath@Orc@@SA_NABVcBoxRay@2@ABUD3DXVECTOR3@@@Z" PURGE="0" COMMENT="" />
    <EXPORT ORDINAL="2322" NAME="?intersects@cMath@Orc@@SA_NABVcBoxRay@2@ABVcBoundingBoxAA@2@@Z" PURGE="0" COMMENT="" />
    <EXPORT ORDINAL="2323" NAME="?intersects@cMath@Orc@@SA_NABVcBoxRay@2@PBUD3DXVECTOR3@@I@Z" PURGE="0" COMMENT="" />
    <EXPORT ORDINAL="2324" NAME="?intersects@cMath@Orc@@SA_NABVcRay@2@ABUD3DXPLANE@@PAUsIntersection@2@@Z" PURGE="0" COMMENT="" />
    <EXPORT ORDINAL="2325" NAME="?intersects@cMath@Orc@@SA_NABVcRay@2@ABUD3DXVECTOR3@@11PAUsTriangleIntersection@2@@Z" PURGE="0" COMMENT="" />
    <EXPORT ORDINAL="2326" NAME="?intersects@cMath@Orc@@SA_NABVcRay@2@ABVcBoundingBoxAA@2@PAUsIntersection@2@@Z" PURGE="0" COMMENT="" />
    <EXPORT ORDINAL="2327" NAME="?intersects@cMath@Orc@@SA_NABVcRay@2@ABVcBoundingSphere@2@PAUsIntersection@2@@Z" PURGE="0" COMMENT="" />
    <EXPORT ORDINAL="2328" NAME="?intersects@cMath@Orc@@SA_NABVcRectRay@2@ABVcBoundingBox@2@@Z" PURGE="0" COMMENT="" />
    <EXPORT ORDINAL="2329" NAME="?intersects@cMath@Orc@@SA_NABVcRectRay@2@ABVcBoundingBoxAA@2@@Z" PURGE="0" COMMENT="" />
    <EXPORT ORDINAL="2330" NAME="?intersects@cMath@Orc@@SA_NABVcRectRay@2@PBUD3DXVECTOR3@@I@Z" PURGE="0" COMMENT="" />
    <EXPORT ORDINAL="2331" NAME="?intersects@cRectRayHitTest@Orc@@QBE_NABVcBoundingBox@2@@Z" PURGE="4" COMMENT="" />
    <EXPORT ORDINAL="2332" NAME="?intersects@cRectRayHitTest@Orc@@QBE_NABVcBoundingBoxAA@2@@Z" PURGE="4" COMMENT="" />
    <EXPORT ORDINAL="2333" NAME="?intersects@cRectRayHitTest@Orc@@QBE_NABVcOBB@2@@Z" PURGE="4" COMMENT="" />
    <EXPORT ORDINAL="2334" NAME="?intersects@cRectRayHitTest@Orc@@QBE_NPBUD3DXVECTOR3@@I@Z" PURGE="8" COMMENT="" />
    <EXPORT ORDINAL="2335" NAME="?intersects@cRectangle@Orc@@QBE_NABV12@@Z" PURGE="4" COMMENT="" />
    <EXPORT ORDINAL="2336" NAME="?intersects@cRectangle@Orc@@QBE_NABV?$vector@UD3DXVECTOR2@@V?$allocator@UD3DXVECTOR2@@@stlp_std@@@stlp_std@@@Z" PURGE="4" COMMENT="" />
    <EXPORT ORDINAL="2337" NAME="?intersects_sse@cRectRayHitTest@Orc@@QBE_NABVcBoundingBoxAA@2@@Z" PURGE="4" COMMENT="" />
    <EXPORT ORDINAL="2338" NAME="?intersects_sse@cRectRayHitTest@Orc@@QBE_NABVcOBB@2@@Z" PURGE="4" COMMENT="" />
    <EXPORT ORDINAL="2339" NAME="?is2DForced@iSoundSource@Orc@@QBE_NXZ" PURGE="0" COMMENT="" />
    <EXPORT ORDINAL="2340" NAME="?is2DForced@sSoundParams@Orc@@QBE_NXZ" PURGE="0" COMMENT="" />
    <EXPORT ORDINAL="2341" NAME="?is3DChannel@iSoundChannel@Orc@@QBE_NXZ" PURGE="0" COMMENT="" />
    <EXPORT ORDINAL="2342" NAME="?is3DStereo@iSoundChannel@Orc@@QBE_NXZ" PURGE="0" COMMENT="" />
    <EXPORT ORDINAL="2343" NAME="?is3DStereo@iSoundSource@Orc@@QBE_NXZ" PURGE="0" COMMENT="" />
    <EXPORT ORDINAL="2344" NAME="?is3DSubwoofer@iSoundChannel@Orc@@QBE_NXZ" PURGE="0" COMMENT="" />
    <EXPORT ORDINAL="2345" NAME="?is3DSubwoofer@iSoundSource@Orc@@QBE_NXZ" PURGE="0" COMMENT="" />
    <EXPORT ORDINAL="2346" NAME="?is51Sound@iSoundChannel@Orc@@QBE_NXZ" PURGE="0" COMMENT="" />
    <EXPORT ORDINAL="2347" NAME="?is51Sound@iSoundSource@Orc@@QBE_NXZ" PURGE="0" COMMENT="" />
    <EXPORT ORDINAL="2348" NAME="?isADPCMCompressed@iSoundSource@Orc@@QBE_NXZ" PURGE="0" COMMENT="" />
    <EXPORT ORDINAL="2349" NAME="?isAffecting@ParticleSystem@Orc@@QBE_NXZ" PURGE="0" COMMENT="" />
    <EXPORT ORDINAL="2350" NAME="?isAlertable@ThreadTask@Orc@@QAE_NXZ" PURGE="0" COMMENT="" />
    <EXPORT ORDINAL="2351" NAME="?isAlive@ParticleSystem@Orc@@QBE_NXZ" PURGE="0" COMMENT="" />
    <EXPORT ORDINAL="2352" NAME="?isAliveEmitting@ParticleSystem@Orc@@QBE_NXZ" PURGE="0" COMMENT="" />
    <EXPORT ORDINAL="2353" NAME="?isAnyKnownFormat@iSoundSource@Orc@@QBE_NXZ" PURGE="0" COMMENT="" />
    <EXPORT ORDINAL="2354" NAME="?isBigEndian@ProcessorInfo@Orc@@QBE_NXZ" PURGE="0" COMMENT="" />
    <EXPORT ORDINAL="2355" NAME="?isBound@ParticleSystem@Orc@@QBE_NXZ" PURGE="0" COMMENT="" />
    <EXPORT ORDINAL="2356" NAME="?isBusy@iQueuedThread@Orc@@QBE_NXZ" PURGE="0" COMMENT="" />
    <EXPORT ORDINAL="2357" NAME="?isButtonDown@MouseState@Orc@@QBEGE@Z" PURGE="4" COMMENT="" />
    <EXPORT ORDINAL="2358" NAME="?isCenterLFEOn@sSoundParams@Orc@@QBE_NXZ" PURGE="0" COMMENT="" />
    <EXPORT ORDINAL="2359" NAME="?isCenterOnly@iSoundSource@Orc@@QBE_NXZ" PURGE="0" COMMENT="" />
    <EXPORT ORDINAL="2360" NAME="?isCentered@ParticleEmitter@Orc@@UBE_NXZ" PURGE="0" COMMENT="" />
    <EXPORT ORDINAL="2361" NAME="?isChannelInited@iSoundChannel@Orc@@QBE_NXZ" PURGE="0" COMMENT="" />
    <EXPORT ORDINAL="2362" NAME="?isCrossfadeChannel@iSoundSystem@Orc@@IBE_NI@Z" PURGE="4" COMMENT="" />
    <EXPORT ORDINAL="2363" NAME="?isCrossfadeChannel@iSoundSystem@Orc@@IBE_NPBViSoundChannel@2@@Z" PURGE="4" COMMENT="" />
    <EXPORT ORDINAL="2364" NAME="?isCustomFlagSet@iSoundSource@Orc@@QBE_NXZ" PURGE="0" COMMENT="" />
    <EXPORT ORDINAL="2365" NAME="?isDataPtr@varType@Orc@@QBE_NXZ" PURGE="0" COMMENT="" />
    <EXPORT ORDINAL="2366" NAME="?isDone@iQueuedTask@Orc@@QBE_NXZ" PURGE="0" COMMENT="" />
    <EXPORT ORDINAL="2367" NAME="?isDucked@iSoundChannel@Orc@@QBE_NXZ" PURGE="0" COMMENT="" />
    <EXPORT ORDINAL="2368" NAME="?isDuckingComplete@iSoundChannel@Orc@@QBE_NXZ" PURGE="0" COMMENT="" />
    <EXPORT ORDINAL="2369" NAME="?isDuckingLowPassOn@iSoundChannel@Orc@@QBE_NXZ" PURGE="0" COMMENT="" />
    <EXPORT ORDINAL="2370" NAME="?isDuckingLowPassOn@iSoundSource@Orc@@QBE_NXZ" PURGE="0" COMMENT="" />
    <EXPORT ORDINAL="2371" NAME="?isDuckingLowPassOn@sSoundParams@Orc@@QBE_NXZ" PURGE="0" COMMENT="" />
    <EXPORT ORDINAL="2372" NAME="?isDuckingRequested@iSoundSystem@Orc@@UBE_NXZ" PURGE="0" COMMENT="" />
    <EXPORT ORDINAL="2373" NAME="?isEOFAndBufferDried@iSoundClip@Orc@@QBE_NXZ" PURGE="0" COMMENT="" />
    <EXPORT ORDINAL="2374" NAME="?isEOFReached@iSoundClip@Orc@@QBE_NXZ" PURGE="0" COMMENT="" />
    <EXPORT ORDINAL="2375" NAME="?isEOFReached@iSoundVorbis@Orc@@QBE_NXZ" PURGE="0" COMMENT="" />
    <EXPORT ORDINAL="2376" NAME="?isEditorScriptModified@ParticleSystem@Orc@@QBE_NXZ" PURGE="0" COMMENT="" />
    <EXPORT ORDINAL="2377" NAME="?isEmitAndDisable@ParticleEmitter@Orc@@UBE_NXZ" PURGE="0" COMMENT="" />
    <EXPORT ORDINAL="2378" NAME="?isEmitting@ParticleSystem@Orc@@QBE_NXZ" PURGE="0" COMMENT="" />
    <EXPORT ORDINAL="2379" NAME="?isEqualTo@Win32Font@Orc@@QAE_NPBDHHHHH@Z" PURGE="24" COMMENT="" />
    <EXPORT ORDINAL="2380" NAME="?isExactText@TextToken@Orc@@QBE_NPAD@Z" PURGE="4" COMMENT="" />
    <EXPORT ORDINAL="2381" NAME="?isExpired@Particle@Orc@@QBE_NXZ" PURGE="0" COMMENT="" />
    <EXPORT ORDINAL="2382" NAME="?isFadingDown@iSoundChannel@Orc@@QBE_NXZ" PURGE="0" COMMENT="" />
    <EXPORT ORDINAL="2383" NAME="?isFadingUp@iSoundChannel@Orc@@QBE_NXZ" PURGE="0" COMMENT="" />
    <EXPORT ORDINAL="2384" NAME="?isFalloffOverride@sSoundParams@Orc@@QBE_NXZ" PURGE="0" COMMENT="" />
    <EXPORT ORDINAL="2385" NAME="?isFinished@iSound3DStereo@Orc@@UBE_NXZ" PURGE="0" COMMENT="" />
    <EXPORT ORDINAL="2386" NAME="?isFinished@iSound3DSubwoofer@Orc@@UBE_NXZ" PURGE="0" COMMENT="" />
    <EXPORT ORDINAL="2387" NAME="?isFinished@iSoundChannel@Orc@@QBE_NXZ" PURGE="0" COMMENT="" />
    <EXPORT ORDINAL="2388" NAME="?isFinished@iSoundClip@Orc@@UBE_NXZ" PURGE="0" COMMENT="" />
    <EXPORT ORDINAL="2389" NAME="?isFinished@iSoundVorbis@Orc@@QBE_NXZ" PURGE="0" COMMENT="" />
    <EXPORT ORDINAL="2390" NAME="?isFloat@varType@Orc@@QBE_NXZ" PURGE="0" COMMENT="" />
    <EXPORT ORDINAL="2391" NAME="?isFrontLeftOnly@iSoundSource@Orc@@QBE_NXZ" PURGE="0" COMMENT="" />
    <EXPORT ORDINAL="2392" NAME="?isFrontRightOnly@iSoundSource@Orc@@QBE_NXZ" PURGE="0" COMMENT="" />
    <EXPORT ORDINAL="2393" NAME="?isFrontSpeakersOn@sSoundParams@Orc@@QBE_NXZ" PURGE="0" COMMENT="" />
    <EXPORT ORDINAL="2394" NAME="?isI32@varType@Orc@@QBE_NXZ" PURGE="0" COMMENT="" />
    <EXPORT ORDINAL="2395" NAME="?isIA64@ProcessorInfo@Orc@@QBE_NXZ" PURGE="0" COMMENT="" />
    <EXPORT ORDINAL="2396" NAME="?isInUnitySpace@cBoundingBox@Orc@@QBE_NXZ" PURGE="0" COMMENT="" />
    <EXPORT ORDINAL="2397" NAME="?isInited@iSoundSystem@Orc@@QBE_NXZ" PURGE="0" COMMENT="" />
    <EXPORT ORDINAL="2398" NAME="?isInside@cRectangle@Orc@@QBE_NABV12@@Z" PURGE="4" COMMENT="" />
    <EXPORT ORDINAL="2399" NAME="?isInside@cRectangle@Orc@@QBE_NABV?$vector@UD3DXVECTOR2@@V?$allocator@UD3DXVECTOR2@@@stlp_std@@@stlp_std@@@Z" PURGE="4" COMMENT="" />
    <EXPORT ORDINAL="2400" NAME="?isInside@cRectangle@Orc@@QBE_NMM@Z" PURGE="8" COMMENT="" />
    <EXPORT ORDINAL="2401" NAME="?isInteger@cMath@Orc@@SA_NMM@Z" PURGE="0" COMMENT="" />
    <EXPORT ORDINAL="2402" NAME="?isIntense@ParticleEmitter@Orc@@UBE_NXZ" PURGE="0" COMMENT="" />
    <EXPORT ORDINAL="2403" NAME="?isLFEOnly@iSoundSource@Orc@@QBE_NXZ" PURGE="0" COMMENT="" />
    <EXPORT ORDINAL="2404" NAME="?isLeftDown@MouseState@Orc@@QBE_NW4KeyState@2@@Z" PURGE="4" COMMENT="" />
    <EXPORT ORDINAL="2405" NAME="?isLessThan@TimerCycle@Orc@@QBE_NABV12@@Z" PURGE="4" COMMENT="" />
    <EXPORT ORDINAL="2406" NAME="?isLittleEndian@ProcessorInfo@Orc@@QBE_NXZ" PURGE="0" COMMENT="" />
    <EXPORT ORDINAL="2407" NAME="?isLoaded@cResource@Orc@@QBE_NXZ" PURGE="0" COMMENT="" />
    <EXPORT ORDINAL="2408" NAME="?isLocalDuckingOn@iSoundChannel@Orc@@QBE_NXZ" PURGE="0" COMMENT="" />
    <EXPORT ORDINAL="2409" NAME="?isLocalDuckingOn@iSoundSource@Orc@@QBE_NXZ" PURGE="0" COMMENT="" />
    <EXPORT ORDINAL="2410" NAME="?isLocalDuckingOn@sSoundParams@Orc@@QBE_NXZ" PURGE="0" COMMENT="" />
    <EXPORT ORDINAL="2411" NAME="?isLooping@iSoundSource@Orc@@QBE_NXZ" PURGE="0" COMMENT="" />
    <EXPORT ORDINAL="2412" NAME="?isMaterialModified@ParticleEmitter@Orc@@QAE_NXZ" PURGE="0" COMMENT="" />
    <EXPORT ORDINAL="2413" NAME="?isMaterialModified@ParticleSystem@Orc@@QAE_NXZ" PURGE="0" COMMENT="" />
    <EXPORT ORDINAL="2414" NAME="?isMiddleDown@MouseState@Orc@@QBE_NW4KeyState@2@@Z" PURGE="4" COMMENT="" />
    <EXPORT ORDINAL="2415" NAME="?isMultiChannel@iSoundSystem@Orc@@QBE_NXZ" PURGE="0" COMMENT="" />
    <EXPORT ORDINAL="2416" NAME="?isMultiChannelClip@iSoundClip@Orc@@QBE_NXZ" PURGE="0" COMMENT="" />
    <EXPORT ORDINAL="2417" NAME="?isMuted@iSoundSystem@Orc@@UBE_NXZ" PURGE="0" COMMENT="" />
    <EXPORT ORDINAL="2418" NAME="?isNil@varType@Orc@@QBE_NXZ" PURGE="0" COMMENT="" />
    <EXPORT ORDINAL="2419" NAME="?isOnEmitter@ParticleAffector@Orc@@UBE_NE@Z" PURGE="4" COMMENT="" />
    <EXPORT ORDINAL="2420" NAME="?isOpenSky@iSoundSource@Orc@@QBE_NXZ" PURGE="0" COMMENT="" />
    <EXPORT ORDINAL="2421" NAME="?isOpenSky@sSoundParams@Orc@@QBE_NXZ" PURGE="0" COMMENT="" />
    <EXPORT ORDINAL="2422" NAME="?isOpened@iSoundClip@Orc@@UBE_NXZ" PURGE="0" COMMENT="" />
    <EXPORT ORDINAL="2423" NAME="?isOpened@iSoundVorbis@Orc@@QBE_NXZ" PURGE="0" COMMENT="" />
    <EXPORT ORDINAL="2424" NAME="?isOutside@MouseState@Orc@@QBE_NXZ" PURGE="0" COMMENT="" />
    <EXPORT ORDINAL="2425" NAME="?isParamChanged@iSoundSource@Orc@@QBE_NXZ" PURGE="0" COMMENT="" />
    <EXPORT ORDINAL="2426" NAME="?isPaused@iSoundChannel@Orc@@QBE_NXZ" PURGE="0" COMMENT="" />
    <EXPORT ORDINAL="2427" NAME="?isPaused@iSoundSystem@Orc@@UBE_NXZ" PURGE="0" COMMENT="" />
    <EXPORT ORDINAL="2428" NAME="?isPentium@ProcessorInfo@Orc@@QBE_NXZ" PURGE="0" COMMENT="" />
    <EXPORT ORDINAL="2429" NAME="?isPlayRequested@iSoundClip@Orc@@QBE_NXZ" PURGE="0" COMMENT="" />
    <EXPORT ORDINAL="2430" NAME="?isPlaying@iSoundChannel@Orc@@QBE_NXZ" PURGE="0" COMMENT="" />
    <EXPORT ORDINAL="2431" NAME="?isPlaying@iSoundClip@Orc@@UBE_NXZ" PURGE="0" COMMENT="" />
    <EXPORT ORDINAL="2432" NAME="?isPowerOfTwo@cMath@Orc@@SA_NI@Z" PURGE="0" COMMENT="" />
    <EXPORT ORDINAL="2433" NAME="?isPriorityWait@iSoundSource@Orc@@QBE_NXZ" PURGE="0" COMMENT="" />
    <EXPORT ORDINAL="2434" NAME="?isRearLeftOnly@iSoundSource@Orc@@QBE_NXZ" PURGE="0" COMMENT="" />
    <EXPORT ORDINAL="2435" NAME="?isRearRightOnly@iSoundSource@Orc@@QBE_NXZ" PURGE="0" COMMENT="" />
    <EXPORT ORDINAL="2436" NAME="?isRearSpeakersOn@sSoundParams@Orc@@QBE_NXZ" PURGE="0" COMMENT="" />
    <EXPORT ORDINAL="2437" NAME="?isRegistered@ConsoleVar@Orc@@QAE_NABVString@2@@Z" PURGE="4" COMMENT="" />
    <EXPORT ORDINAL="2438" NAME="?isRenderScan@sSoundParams@Orc@@QBE_NXZ" PURGE="0" COMMENT="" />
    <EXPORT ORDINAL="2439" NAME="?isResourceInUse@cResourceManager@Orc@@QAE_NABVString@2@@Z" PURGE="4" COMMENT="" />
    <EXPORT ORDINAL="2440" NAME="?isResourceLoaded@cResourceManager@Orc@@UAE_NVString@2@@Z" PURGE="24" COMMENT="" />
    <EXPORT ORDINAL="2441" NAME="?isResourceStreamed@cResourceManager@Orc@@UAE_NVString@2@@Z" PURGE="24" COMMENT="" />
    <EXPORT ORDINAL="2442" NAME="?isRightDown@MouseState@Orc@@QBE_NW4KeyState@2@@Z" PURGE="4" COMMENT="" />
    <EXPORT ORDINAL="2443" NAME="?isRoomReverbOn@iSoundSystem@Orc@@QBE_NXZ" PURGE="0" COMMENT="" />
    <EXPORT ORDINAL="2444" NAME="?isSingleSpeaker@iSoundSource@Orc@@QBE_NXZ" PURGE="0" COMMENT="" />
    <EXPORT ORDINAL="2445" NAME="?isSizeEqual@cRectangle@Orc@@QBE_NABV12@@Z" PURGE="4" COMMENT="" />
    <EXPORT ORDINAL="2446" NAME="?isSizeSmaller@cRectangle@Orc@@QBE_NABV12@@Z" PURGE="4" COMMENT="" />
    <EXPORT ORDINAL="2447" NAME="?isSoundSourcePaused@iSoundSystem@Orc@@QBE_NPAViSoundSource@2@@Z" PURGE="4" COMMENT="" />
    <EXPORT ORDINAL="2448" NAME="?isSoundSourcePlaying@iSoundSystem@Orc@@QBE_NPAViSoundSource@2@@Z" PURGE="4" COMMENT="" />
    <EXPORT ORDINAL="2449" NAME="?isStandAlone@iSoundVorbis@Orc@@QBE_NXZ" PURGE="0" COMMENT="" />
    <EXPORT ORDINAL="2450" NAME="?isStopped@iSoundSource@Orc@@QBE_NXZ" PURGE="0" COMMENT="" />
    <EXPORT ORDINAL="2451" NAME="?isStream@iSoundChannel@Orc@@QBE_NXZ" PURGE="0" COMMENT="" />
    <EXPORT ORDINAL="2452" NAME="?isStream@iSoundSource@Orc@@QBE_NXZ" PURGE="0" COMMENT="" />
    <EXPORT ORDINAL="2453" NAME="?isStreamRequested@iSoundChannel@Orc@@QBE_NXZ" PURGE="0" COMMENT="" />
    <EXPORT ORDINAL="2454" NAME="?isStreamRequested@iSoundSource@Orc@@QBE_NXZ" PURGE="0" COMMENT="" />
    <EXPORT ORDINAL="2455" NAME="?isStreaming@cResource@Orc@@QBE_NXZ" PURGE="0" COMMENT="" />
    <EXPORT ORDINAL="2456" NAME="?isString@varType@Orc@@QBE_NXZ" PURGE="0" COMMENT="" />
    <EXPORT ORDINAL="2457" NAME="?isSystemModified@ParticleSystem@Orc@@QAE_NXZ" PURGE="0" COMMENT="" />
    <EXPORT ORDINAL="2458" NAME="?isTable@varType@Orc@@QBE_NXZ" PURGE="0" COMMENT="" />
    <EXPORT ORDINAL="2459" NAME="?isThreadFinished@ThreadTask@Orc@@QBE_NXZ" PURGE="0" COMMENT="" />
    <EXPORT ORDINAL="2460" NAME="?isValid@Win32Font@Orc@@QAE_NXZ" PURGE="0" COMMENT="" />
    <EXPORT ORDINAL="2461" NAME="?isValidBoneIndex@MD5Mesh@Orc@@QBEGG@Z" PURGE="4" COMMENT="" />
    <EXPORT ORDINAL="2462" NAME="?isVolChanged@iSoundSource@Orc@@QBE_NXZ" PURGE="0" COMMENT="" />
    <EXPORT ORDINAL="2463" NAME="?isWetVolumeOn@iSoundSource@Orc@@QBE_NXZ" PURGE="0" COMMENT="" />
    <EXPORT ORDINAL="2464" NAME="?isWetVolumeOn@sSoundParams@Orc@@QBE_NXZ" PURGE="0" COMMENT="" />
    <EXPORT ORDINAL="2465" NAME="?isWithinThreshold@Log@Orc@@UAE_NW4LogMessageLevel@2@@Z" PURGE="4" COMMENT="" />
    <EXPORT ORDINAL="2466" NAME="?iscstrPtr@varType@Orc@@QBE_NXZ" PURGE="0" COMMENT="" />
    <EXPORT ORDINAL="2467" NAME="?isin@cMath@Orc@@SAMM@Z" PURGE="-1" COMMENT="" />
    <EXPORT ORDINAL="2468" NAME="?itan@cMath@Orc@@SAMM@Z" PURGE="0" COMMENT="" />
    <EXPORT ORDINAL="2469" NAME="?languageTrack@iMovie@Orc@@1IA" PURGE="-1" COMMENT="" />
    <EXPORT ORDINAL="2470" NAME="?last@Exception@Orc@@1PAV12@A" PURGE="-1" COMMENT="" />
    <EXPORT ORDINAL="2471" NAME="?length@?$basic_string@DV?$char_traits@D@stlp_std@@V?$memtrack_allocator@D$0IMHGPCA@@2@@stlp_std@@QBEIXZ" PURGE="0" COMMENT="" />
    <EXPORT ORDINAL="2472" NAME="?length@?$basic_string@_WV?$char_traits@_W@stlp_std@@V?$memtrack_allocator@_W$0IMHGPCA@@2@@stlp_std@@QBEIXZ" PURGE="0" COMMENT="" />
    <EXPORT ORDINAL="2473" NAME="?lerp@Perlin@Orc@@KAHHHH@Z" PURGE="0" COMMENT="" />
    <EXPORT ORDINAL="2474" NAME="?lerp@Perlin@Orc@@KAMMMM@Z" PURGE="0" COMMENT="" />
    <EXPORT ORDINAL="2475" NAME="?limitFramerate@Root@Orc@@AAEXABVTimerCycle@2@@Z" PURGE="4" COMMENT="" />
    <EXPORT ORDINAL="2476" NAME="?load@ArchiveManager@Orc@@QAEPAViArchive@2@ABVString@2@0@Z" PURGE="8" COMMENT="" />
    <EXPORT ORDINAL="2477" NAME="?load@ConfigFile@Orc@@QAEXABVString@2@0@Z" PURGE="8" COMMENT="" />
    <EXPORT ORDINAL="2478" NAME="?load@SoundSystemManager@Orc@@QAEPAViSoundSystem@2@ABVString@2@0W4ePriority@2@@Z" PURGE="12" COMMENT="" />
    <EXPORT ORDINAL="2479" NAME="?load@_sFile_chunk@Orc@@QAEIAAVcFile@2@@Z" PURGE="4" COMMENT="" />
    <EXPORT ORDINAL="2480" NAME="?load@_sHeader@Orc@@QAEIAAVcFile@2@@Z" PURGE="4" COMMENT="" />
    <EXPORT ORDINAL="2481" NAME="?load@cIO_bmp@Orc@@UAE_NAAVcFile@2@AAVcImage@2@I@Z" PURGE="12" COMMENT="" />
    <EXPORT ORDINAL="2482" NAME="?load@cIO_dds@Orc@@UAE_NAAVcFile@2@AAVcImage@2@I@Z" PURGE="12" COMMENT="" />
    <EXPORT ORDINAL="2483" NAME="?load@cIO_ico@Orc@@UAE_NAAVcFile@2@AAVcImage@2@I@Z" PURGE="12" COMMENT="" />
    <EXPORT ORDINAL="2484" NAME="?load@cIO_jpg@Orc@@UAE_NAAVcFile@2@AAVcImage@2@I@Z" PURGE="12" COMMENT="" />
    <EXPORT ORDINAL="2485" NAME="?load@cIO_pcx@Orc@@UAE_NAAVcFile@2@AAVcImage@2@I@Z" PURGE="12" COMMENT="" />
    <EXPORT ORDINAL="2486" NAME="?load@cIO_tga@Orc@@UAE_NAAVcFile@2@AAVcImage@2@I@Z" PURGE="12" COMMENT="" />
    <EXPORT ORDINAL="2487" NAME="?load@cResource@Orc@@MAE_NXZ" PURGE="0" COMMENT="" />
    <EXPORT ORDINAL="2488" NAME="?load@iSoundSystem@Orc@@MAE_NXZ" PURGE="0" COMMENT="" />
    <EXPORT ORDINAL="2489" NAME="?loadAnim@MD5Loader@Orc@@QAEXPBDAAVMD5Anim@2@@Z" PURGE="8" COMMENT="" />
    <EXPORT ORDINAL="2490" NAME="?loadEx@iImageIO@Orc@@UAE_NABVString@2@AAVcImage@2@I@Z" PURGE="12" COMMENT="" />
    <EXPORT ORDINAL="2491" NAME="?loadJascPal@cPalette@Orc@@QAE_NPBD@Z" PURGE="4" COMMENT="" />
    <EXPORT ORDINAL="2492" NAME="?loadModel@MD5Loader@Orc@@QAEXPBDAAVMD5Mesh@2@@Z" PURGE="8" COMMENT="" />
    <EXPORT ORDINAL="2493" NAME="?loadMsPal@cPalette@Orc@@QAE_NPBD@Z" PURGE="4" COMMENT="" />
    <EXPORT ORDINAL="2494" NAME="?loadPlugins@Root@Orc@@QAEXABVString@2@@Z" PURGE="4" COMMENT="" />
    <EXPORT ORDINAL="2495" NAME="?lock@ProfileManager@Orc@@QAEXXZ" PURGE="0" COMMENT="" />
    <EXPORT ORDINAL="2496" NAME="?logMessage@Log@Orc@@UAAXW4LogMessageLevel@2@PBDZZ" PURGE="0" COMMENT="" />
    <EXPORT ORDINAL="2497" NAME="?logMessage@Log@Orc@@UAEXABVString@2@W4LogMessageLevel@2@@Z" PURGE="8" COMMENT="" />
    <EXPORT ORDINAL="2498" NAME="?logMessage@Log@Orc@@UAEXABVWString@2@W4LogMessageLevel@2@@Z" PURGE="8" COMMENT="" />
    <EXPORT ORDINAL="2499" NAME="?logMessage@LogManager@Orc@@QAAXW4LogMessageLevel@2@PBDZZ" PURGE="0" COMMENT="" />
    <EXPORT ORDINAL="2500" NAME="?logMessage@LogManager@Orc@@QAEXABVString@2@W4LogMessageLevel@2@@Z" PURGE="8" COMMENT="" />
    <EXPORT ORDINAL="2501" NAME="?logMessage@LogManager@Orc@@QAEXABVWString@2@W4LogMessageLevel@2@@Z" PURGE="8" COMMENT="" />
    <EXPORT ORDINAL="2502" NAME="?logMessage@Orc@@YAXABVString@1@W4LogMessageLevel@1@@Z" PURGE="0" COMMENT="" />
    <EXPORT ORDINAL="2503" NAME="?logMessage@Orc@@YAXW4LogMessageLevel@1@PBDZZ" PURGE="0" COMMENT="" />
    <EXPORT ORDINAL="2504" NAME="?logicalProcessorsPerPackage@ProcessorInfo@Orc@@CAEXZ" PURGE="0" COMMENT="" />
    <EXPORT ORDINAL="2505" NAME="?mCoeffs@cSplineCR@Orc@@1QAY03$$CBMA" PURGE="-1" COMMENT="" />
    <EXPORT ORDINAL="2506" NAME="?mCommonArchives@cArchiveContainer@Orc@@2V12@A" PURGE="-1" COMMENT="" />
    <EXPORT ORDINAL="2507" NAME="?mEnableStreaming@cArchiveContainer@Orc@@0_NA" PURGE="-1" COMMENT="" />
    <EXPORT ORDINAL="2508" NAME="?mExternals@cArchiveContainer@Orc@@2PAViArchive@2@A" PURGE="-1" COMMENT="" />
    <EXPORT ORDINAL="2509" NAME="?mGlobalStats@cResourceManager@Orc@@1UsGlobalStats@12@A" PURGE="-1" COMMENT="" />
    <EXPORT ORDINAL="2510" NAME="?mInternals@cArchiveContainer@Orc@@2V?$vector@PAViArchive@Orc@@V?$allocator@PAViArchive@Orc@@@stlp_std@@@stlp_std@@A" PURGE="-1" COMMENT="" />
    <EXPORT ORDINAL="2511" NAME="?m_TableCount@cVarTable@Orc@@0HA" PURGE="-1" COMMENT="" />
    <EXPORT ORDINAL="2512" NAME="?machine_epsilon@cMath@Orc@@SAMXZ" PURGE="0" COMMENT="" />
    <EXPORT ORDINAL="2513" NAME="?makeGlobalString@Root@Orc@@QBEPBDPBD@Z" PURGE="4" COMMENT="" />
    <EXPORT ORDINAL="2514" NAME="?match@String@Orc@@QBE_NABV12@_N@Z" PURGE="8" COMMENT="" />
    <EXPORT ORDINAL="2515" NAME="?match@String@Orc@@QBE_NPBD_N@Z" PURGE="8" COMMENT="" />
    <EXPORT ORDINAL="2516" NAME="?match@String@Orc@@SAMABV12@0@Z" PURGE="0" COMMENT="" />
    <EXPORT ORDINAL="2517" NAME="?match@WString@Orc@@QBE_NABV12@_N@Z" PURGE="8" COMMENT="" />
    <EXPORT ORDINAL="2518" NAME="?match@WString@Orc@@SAMABVString@2@0@Z" PURGE="0" COMMENT="" />
    <EXPORT ORDINAL="2519" NAME="?matrixIdentity@Orc@@3UD3DXMATRIX@@A" PURGE="-1" COMMENT="" />
    <EXPORT ORDINAL="2520" NAME="?max3@cBoundingBoxAA@Orc@@AAEMMMM@Z" PURGE="12" COMMENT="" />
    <EXPORT ORDINAL="2521" NAME="?max3@cBoundingBoxAA@Orc@@QAEAAUD3DXVECTOR3@@XZ" PURGE="0" COMMENT="" />
    <EXPORT ORDINAL="2522" NAME="?max3@cBoundingBoxAA@Orc@@QBEABUD3DXVECTOR3@@XZ" PURGE="0" COMMENT="" />
    <EXPORT ORDINAL="2523" NAME="?max3@cOBB@Orc@@QBE?AUD3DXVECTOR3@@XZ" PURGE="4" COMMENT="" />
    <EXPORT ORDINAL="2524" NAME="?max4@cBoundingBoxAA@Orc@@QAEAAUD3DXVECTOR4@@XZ" PURGE="0" COMMENT="" />
    <EXPORT ORDINAL="2525" NAME="?max4@cBoundingBoxAA@Orc@@QBEABUD3DXVECTOR4@@XZ" PURGE="0" COMMENT="" />
    <EXPORT ORDINAL="2526" NAME="?max4@cOBB@Orc@@QBE?AUD3DXVECTOR4@@XZ" PURGE="4" COMMENT="" />
    <EXPORT ORDINAL="2527" NAME="?max_size@?$_String_base@DV?$memtrack_allocator@D$0IMHGPCA@@stlp_std@@@stlp_std@@IBEIXZ" PURGE="0" COMMENT="" />
    <EXPORT ORDINAL="2528" NAME="?max_size@?$_String_base@_WV?$memtrack_allocator@_W$0IMHGPCA@@stlp_std@@@stlp_std@@IBEIXZ" PURGE="0" COMMENT="" />
    <EXPORT ORDINAL="2529" NAME="?max_size@?$basic_string@DV?$char_traits@D@stlp_std@@V?$memtrack_allocator@D$0IMHGPCA@@2@@stlp_std@@QBEIXZ" PURGE="0" COMMENT="" />
    <EXPORT ORDINAL="2530" NAME="?max_size@?$basic_string@_WV?$char_traits@_W@stlp_std@@V?$memtrack_allocator@_W$0IMHGPCA@@2@@stlp_std@@QBEIXZ" PURGE="0" COMMENT="" />
    <EXPORT ORDINAL="2531" NAME="?memcmp@cSystem@Orc@@SA_NPBEEI@Z" PURGE="0" COMMENT="" />
    <EXPORT ORDINAL="2532" NAME="?memcpy@cSystem@Orc@@2P6APAXPAXPBXI@ZA" PURGE="-1" COMMENT="" />
    <EXPORT ORDINAL="2533" NAME="?min3@cBoundingBoxAA@Orc@@AAEMMMM@Z" PURGE="12" COMMENT="" />
    <EXPORT ORDINAL="2534" NAME="?min3@cBoundingBoxAA@Orc@@QAEAAUD3DXVECTOR3@@XZ" PURGE="0" COMMENT="" />
    <EXPORT ORDINAL="2535" NAME="?min3@cBoundingBoxAA@Orc@@QBEABUD3DXVECTOR3@@XZ" PURGE="0" COMMENT="" />
    <EXPORT ORDINAL="2536" NAME="?min3@cOBB@Orc@@QBE?AUD3DXVECTOR3@@XZ" PURGE="4" COMMENT="" />
    <EXPORT ORDINAL="2537" NAME="?min4@cBoundingBoxAA@Orc@@QAEAAUD3DXVECTOR4@@XZ" PURGE="0" COMMENT="" />
    <EXPORT ORDINAL="2538" NAME="?min4@cBoundingBoxAA@Orc@@QBEABUD3DXVECTOR4@@XZ" PURGE="0" COMMENT="" />
    <EXPORT ORDINAL="2539" NAME="?min4@cOBB@Orc@@QBE?AUD3DXVECTOR4@@XZ" PURGE="4" COMMENT="" />
    <EXPORT ORDINAL="2540" NAME="?minAreaRect@cMath@Orc@@SAMABV?$vector@UD3DXVECTOR2@@V?$allocator@UD3DXVECTOR2@@@stlp_std@@@stlp_std@@AAUD3DXVECTOR2@@QAU5@@Z" PURGE="0" COMMENT="" />
    <EXPORT ORDINAL="2541" NAME="?mirrorHorizontal@cImage@Orc@@QAE_NXZ" PURGE="0" COMMENT="" />
    <EXPORT ORDINAL="2542" NAME="?mirrorVertical@cImage@Orc@@QAE_NXZ" PURGE="0" COMMENT="" />
    <EXPORT ORDINAL="2543" NAME="?monitorDirectory@DirectoryMonitor@Orc@@SAIABVString@2@P6A_NW4eDirectoryMonitor@2@0@Z_N@Z" PURGE="0" COMMENT="" />
    <EXPORT ORDINAL="2544" NAME="?monitorDirectory@DirectoryMonitorTask@Orc@@QAEXABVString@2@P6A_NW4eDirectoryMonitor@2@0@Z_N@Z" PURGE="12" COMMENT="" />
    <EXPORT ORDINAL="2545" NAME="?move@cOBB@Orc@@QAEXABUD3DXVECTOR3@@@Z" PURGE="4" COMMENT="" />
    <EXPORT ORDINAL="2546" NAME="?move@cOBB@Orc@@QAEXABUD3DXVECTOR4@@@Z" PURGE="4" COMMENT="" />
    <EXPORT ORDINAL="2547" NAME="?moveFile@FileSystem@Orc@@SA_NABVString@2@0@Z" PURGE="0" COMMENT="" />
    <EXPORT ORDINAL="2548" NAME="?moveParticleSystem@ParticleSystem@Orc@@QAEXABUD3DXVECTOR3@@@Z" PURGE="4" COMMENT="" />
    <EXPORT ORDINAL="2549" NAME="?msAngleCmd@ParticleEmitter@Orc@@1VCmdAngle@EmitterCommands@2@A" PURGE="-1" COMMENT="" />
    <EXPORT ORDINAL="2550" NAME="?msAngleMaxCmd@ParticleEmitter@Orc@@1VCmdAngleMax@EmitterCommands@2@A" PURGE="-1" COMMENT="" />
    <EXPORT ORDINAL="2551" NAME="?msAnimFramesCmd@ParticleEmitter@Orc@@1VCmdAnimFrames@EmitterCommands@2@A" PURGE="-1" COMMENT="" />
    <EXPORT ORDINAL="2552" NAME="?msAnimSpeedCmd@ParticleEmitter@Orc@@1VCmdAnimSpeed@EmitterCommands@2@A" PURGE="-1" COMMENT="" />
    <EXPORT ORDINAL="2553" NAME="?msBoundCmd@ParticleSystem@Orc@@1VCmdBound@12@A" PURGE="-1" COMMENT="" />
    <EXPORT ORDINAL="2554" NAME="?msBoundExpoCmd@ParticleSystem@Orc@@1VCmdBoundExpo@12@A" PURGE="-1" COMMENT="" />
    <EXPORT ORDINAL="2555" NAME="?msBrightnessCmd@ParticleEmitter@Orc@@1VCmdBrightness@EmitterCommands@2@A" PURGE="-1" COMMENT="" />
    <EXPORT ORDINAL="2556" NAME="?msCenteredCmd@ParticleEmitter@Orc@@1VCmdCentered@EmitterCommands@2@A" PURGE="-1" COMMENT="" />
    <EXPORT ORDINAL="2557" NAME="?msDictionary@StringInterface@Orc@@1V?$map@VString@Orc@@VParamDictionary@2@U?$less@VString@Orc@@@stlp_std@@V?$allocator@U?$pair@$$CBVString@Orc@@VParamDictionary@2@@stlp_std@@@5@@stlp_std@@A" PURGE="-1" COMMENT="" />
    <EXPORT ORDINAL="2558" NAME="?msDirectionCmd@ParticleEmitter@Orc@@1VCmdDirection@EmitterCommands@2@A" PURGE="-1" COMMENT="" />
    <EXPORT ORDINAL="2559" NAME="?msEmissionAngleCmd@ParticleEmitter@Orc@@1VCmdEmissionAngle@EmitterCommands@2@A" PURGE="-1" COMMENT="" />
    <EXPORT ORDINAL="2560" NAME="?msEmissionAngleMinCmd@ParticleEmitter@Orc@@1VCmdEmissionAngleMin@EmitterCommands@2@A" PURGE="-1" COMMENT="" />
    <EXPORT ORDINAL="2561" NAME="?msEmissionRateCmd@ParticleEmitter@Orc@@1VCmdEmissionRate@EmitterCommands@2@A" PURGE="-1" COMMENT="" />
    <EXPORT ORDINAL="2562" NAME="?msEmitAndDisableCmd@ParticleEmitter@Orc@@1VCmdEmitAndDisable@EmitterCommands@2@A" PURGE="-1" COMMENT="" />
    <EXPORT ORDINAL="2563" NAME="?msFunctionStack@Exception@Orc@@1V?$list@VString@Orc@@V?$allocator@VString@Orc@@@stlp_std@@@stlp_std@@A" PURGE="-1" COMMENT="" />
    <EXPORT ORDINAL="2564" NAME="?msIgnoreRotationCmd@ParticleSystem@Orc@@1VCmdIgnoreRotation@12@A" PURGE="-1" COMMENT="" />
    <EXPORT ORDINAL="2565" NAME="?msIntenseFlagCmd@ParticleEmitter@Orc@@1VCmdIntenseFlag@EmitterCommands@2@A" PURGE="-1" COMMENT="" />
    <EXPORT ORDINAL="2566" NAME="?msMaterialCmd@ParticleEmitter@Orc@@1VCmdMaterial@EmitterCommands@2@A" PURGE="-1" COMMENT="" />
    <EXPORT ORDINAL="2567" NAME="?msMaxDurationCmd@ParticleEmitter@Orc@@1VCmdMaxDuration@EmitterCommands@2@A" PURGE="-1" COMMENT="" />
    <EXPORT ORDINAL="2568" NAME="?msMaxRepeatDelayCmd@ParticleEmitter@Orc@@1VCmdMaxRepeatDelay@EmitterCommands@2@A" PURGE="-1" COMMENT="" />
    <EXPORT ORDINAL="2569" NAME="?msMaxStartDelayCmd@ParticleEmitter@Orc@@1VCmdMaxStartDelay@EmitterCommands@2@A" PURGE="-1" COMMENT="" />
    <EXPORT ORDINAL="2570" NAME="?msMaxTTLCmd@ParticleEmitter@Orc@@1VCmdMaxTTL@EmitterCommands@2@A" PURGE="-1" COMMENT="" />
    <EXPORT ORDINAL="2571" NAME="?msMaxVelocityCmd@ParticleEmitter@Orc@@1VCmdMaxVelocity@EmitterCommands@2@A" PURGE="-1" COMMENT="" />
    <EXPORT ORDINAL="2572" NAME="?msMinDurationCmd@ParticleEmitter@Orc@@1VCmdMinDuration@EmitterCommands@2@A" PURGE="-1" COMMENT="" />
    <EXPORT ORDINAL="2573" NAME="?msMinRepeatDelayCmd@ParticleEmitter@Orc@@1VCmdMinRepeatDelay@EmitterCommands@2@A" PURGE="-1" COMMENT="" />
    <EXPORT ORDINAL="2574" NAME="?msMinStartDelayCmd@ParticleEmitter@Orc@@1VCmdMinStartDelay@EmitterCommands@2@A" PURGE="-1" COMMENT="" />
    <EXPORT ORDINAL="2575" NAME="?msMinTTLCmd@ParticleEmitter@Orc@@1VCmdMinTTL@EmitterCommands@2@A" PURGE="-1" COMMENT="" />
    <EXPORT ORDINAL="2576" NAME="?msMinVelocityCmd@ParticleEmitter@Orc@@1VCmdMinVelocity@EmitterCommands@2@A" PURGE="-1" COMMENT="" />
    <EXPORT ORDINAL="2577" NAME="?msOnEmitterCmd@ParticleAffector@Orc@@1VCmdOnEmitter@AffectorCommands@2@A" PURGE="-1" COMMENT="" />
    <EXPORT ORDINAL="2578" NAME="?msPerspectiveCmd@ParticleEmitter@Orc@@1VCmdPerspective@EmitterCommands@2@A" PURGE="-1" COMMENT="" />
    <EXPORT ORDINAL="2579" NAME="?msPositionCmd@ParticleEmitter@Orc@@1VCmdPosition@EmitterCommands@2@A" PURGE="-1" COMMENT="" />
    <EXPORT ORDINAL="2580" NAME="?msQuotaCmd@ParticleSystem@Orc@@1VCmdQuota@12@A" PURGE="-1" COMMENT="" />
    <EXPORT ORDINAL="2581" NAME="?msRepeatDelayCmd@ParticleEmitter@Orc@@1VCmdRepeatDelay@EmitterCommands@2@A" PURGE="-1" COMMENT="" />
    <EXPORT ORDINAL="2582" NAME="?msSizeCmd@ParticleEmitter@Orc@@1VCmdSize@EmitterCommands@2@A" PURGE="-1" COMMENT="" />
    <EXPORT ORDINAL="2583" NAME="?msSizeMaxCmd@ParticleEmitter@Orc@@1VCmdSizeMax@EmitterCommands@2@A" PURGE="-1" COMMENT="" />
    <EXPORT ORDINAL="2584" NAME="?msSoftParticlesCmd@ParticleSystem@Orc@@1VCmdSoftParticles@12@A" PURGE="-1" COMMENT="" />
    <EXPORT ORDINAL="2585" NAME="?msStreakLengthCmd@ParticleEmitter@Orc@@1VCmdStreakLength@EmitterCommands@2@A" PURGE="-1" COMMENT="" />
    <EXPORT ORDINAL="2586" NAME="?msStreakSizeCmd@ParticleEmitter@Orc@@1VCmdStreakSize@EmitterCommands@2@A" PURGE="-1" COMMENT="" />
    <EXPORT ORDINAL="2587" NAME="?mt@cRand@Orc@@0VcMersenneTwister@2@A" PURGE="-1" COMMENT="" />
    <EXPORT ORDINAL="2588" NAME="?nameToID@cResourceManager@Orc@@UAEIABVString@2@@Z" PURGE="4" COMMENT="" />
    <EXPORT ORDINAL="2589" NAME="?nextPowerOfTwo@cMath@Orc@@SAII@Z" PURGE="0" COMMENT="" />
    <EXPORT ORDINAL="2590" NAME="?nextTokenIsFollowedByWhitespace@TextTokenizer@Orc@@QBE_NXZ" PURGE="0" COMMENT="" />
    <EXPORT ORDINAL="2591" NAME="?nextTokenIsLast@TextTokenizer@Orc@@QBE_NXZ" PURGE="0" COMMENT="" />
    <EXPORT ORDINAL="2592" NAME="?nextTokenPreceededByWhitespace@TextTokenizer@Orc@@QBE_NXZ" PURGE="0" COMMENT="" />
    <EXPORT ORDINAL="2593" NAME="?noise@Perlin@Orc@@SAMMM@Z" PURGE="0" COMMENT="" />
    <EXPORT ORDINAL="2594" NAME="?noise@Perlin@Orc@@SAMMMM@Z" PURGE="0" COMMENT="" />
    <EXPORT ORDINAL="2595" NAME="?notify@cSubject@Orc@@UAEXXZ" PURGE="0" COMMENT="" />
    <EXPORT ORDINAL="2596" NAME="?numSubCommands@cMacroCommand@Orc@@UBEHXZ" PURGE="0" COMMENT="" />
    <EXPORT ORDINAL="2597" NAME="?off@cCritical@Orc@@QBEXXZ" PURGE="0" COMMENT="" />
    <EXPORT ORDINAL="2598" NAME="?off@cMutex@Orc@@QBEXXZ" PURGE="0" COMMENT="" />
    <EXPORT ORDINAL="2599" NAME="?oggErrorString@iSoundVorbis@Orc@@AAEPBDH@Z" PURGE="4" COMMENT="" />
    <EXPORT ORDINAL="2600" NAME="?on@cCritical@Orc@@QBEXXZ" PURGE="0" COMMENT="" />
    <EXPORT ORDINAL="2601" NAME="?on@cMutex@Orc@@QBEXXZ" PURGE="0" COMMENT="" />
    <EXPORT ORDINAL="2602" NAME="?open@cDataStore@Orc@@QAEXE@Z" PURGE="4" COMMENT="" />
    <EXPORT ORDINAL="2603" NAME="?open@cFileDisk@Orc@@QAE_NPBDW4eOpenMode@12@@Z" PURGE="8" COMMENT="" />
    <EXPORT ORDINAL="2604" NAME="?open@cFileMem@Orc@@QAE_NIPBE@Z" PURGE="8" COMMENT="" />
    <EXPORT ORDINAL="2605" NAME="?open@cFileMem@Orc@@QAE_NPBD@Z" PURGE="4" COMMENT="" />
    <EXPORT ORDINAL="2606" NAME="?open@cGate@Orc@@QAEXXZ" PURGE="0" COMMENT="" />
    <EXPORT ORDINAL="2607" NAME="?open@iSound3DStereo@Orc@@UAE_NPAViSoundSource@2@PAViSoundChannel@2@11PAViSoundVorbis@2@22@Z" PURGE="28" COMMENT="" />
    <EXPORT ORDINAL="2608" NAME="?open@iSound3DSubwoofer@Orc@@UAE_NPAViSoundSource@2@PAViSoundChannel@2@1PAViSoundVorbis@2@2@Z" PURGE="20" COMMENT="" />
    <EXPORT ORDINAL="2609" NAME="?open@iSoundClip@Orc@@UAE_NPAViSoundSource@2@I@Z" PURGE="8" COMMENT="" />
    <EXPORT ORDINAL="2610" NAME="?open@iSoundVorbis@Orc@@UAE_NPAViSoundSource@2@PAViSoundChannel@2@@Z" PURGE="8" COMMENT="" />
    <EXPORT ORDINAL="2611" NAME="?openShared@cFileMem@Orc@@QAE_NIPAE@Z" PURGE="8" COMMENT="" />
    <EXPORT ORDINAL="2612" NAME="?openVorbis@iSoundSystem@Orc@@MAE_NPAViSoundVorbis@2@PAViSoundSource@2@PAViSoundChannel@2@@Z" PURGE="12" COMMENT="" />
    <EXPORT ORDINAL="2613" NAME="?open_shared@cDataStore@Orc@@QAEXABV12@@Z" PURGE="4" COMMENT="" />
    <EXPORT ORDINAL="2614" NAME="?open_shared@cDataStore@Orc@@QAEXPBXI@Z" PURGE="8" COMMENT="" />
    <EXPORT ORDINAL="2615" NAME="?origin3@cOBB@Orc@@QAEAAUD3DXVECTOR3@@XZ" PURGE="0" COMMENT="" />
    <EXPORT ORDINAL="2616" NAME="?origin3@cOBB@Orc@@QBEABUD3DXVECTOR3@@XZ" PURGE="0" COMMENT="" />
    <EXPORT ORDINAL="2617" NAME="?origin4@cOBB@Orc@@QAEAAUD3DXVECTOR4@@XZ" PURGE="0" COMMENT="" />
    <EXPORT ORDINAL="2618" NAME="?origin4@cOBB@Orc@@QBEABUD3DXVECTOR4@@XZ" PURGE="0" COMMENT="" />
    <EXPORT ORDINAL="2619" NAME="?osBuild@OsInfo@Orc@@0UsOsBuild@12@A" PURGE="-1" COMMENT="" />
    <EXPORT ORDINAL="2620" NAME="?osThread@OsInfo@Orc@@0PAUsOsThread@12@A" PURGE="-1" COMMENT="" />
    <EXPORT ORDINAL="2621" NAME="?osType@OsInfo@Orc@@0W4OS_TYPE@12@A" PURGE="-1" COMMENT="" />
    <EXPORT ORDINAL="2622" NAME="?os_detectVersion@OsInfo@Orc@@AAEXXZ" PURGE="0" COMMENT="" />
    <EXPORT ORDINAL="2623" NAME="?os_getBuild@OsInfo@Orc@@QAEPBUsOsBuild@12@XZ" PURGE="0" COMMENT="" />
    <EXPORT ORDINAL="2624" NAME="?os_getString@OsInfo@Orc@@QAEPBDXZ" PURGE="0" COMMENT="" />
    <EXPORT ORDINAL="2625" NAME="?os_getVersion@OsInfo@Orc@@QAE?BW4OS_TYPE@12@XZ" PURGE="0" COMMENT="" />
    <EXPORT ORDINAL="2626" NAME="?os_meetsRequirements@OsInfo@Orc@@QAE_NW4OS_TYPE@12@@Z" PURGE="4" COMMENT="" />
    <EXPORT ORDINAL="2627" NAME="?p@Perlin@Orc@@1VPerm@12@B" PURGE="-1" COMMENT="" />
    <EXPORT ORDINAL="2628" NAME="?parseAffector@ParticleSystemMgr@Orc@@AAEXABVString@2@AAVTextTokenizer@2@PAVParticleSystem@2@@Z" PURGE="12" COMMENT="" />
    <EXPORT ORDINAL="2629" NAME="?parseBool@StringConverter@Orc@@SA_NABVString@2@@Z" PURGE="0" COMMENT="" />
    <EXPORT ORDINAL="2630" NAME="?parseColorValue@StringConverter@Orc@@SA?AUColor@2@ABVString@2@@Z" PURGE="0" COMMENT="" />
    <EXPORT ORDINAL="2631" NAME="?parseEmitter@ParticleSystemMgr@Orc@@AAEXABVString@2@AAVTextTokenizer@2@PAVParticleSystem@2@@Z" PURGE="12" COMMENT="" />
    <EXPORT ORDINAL="2632" NAME="?parseHex@StringConverter@Orc@@SAIABVString@2@@Z" PURGE="0" COMMENT="" />
    <EXPORT ORDINAL="2633" NAME="?parseInt@StringConverter@Orc@@SAHABVString@2@@Z" PURGE="-1" COMMENT="" />
    <EXPORT ORDINAL="2634" NAME="?parseMatrix4d@StringConverter@Orc@@SA?AUD3DXMATRIX@@ABVString@2@@Z" PURGE="0" COMMENT="" />
    <EXPORT ORDINAL="2635" NAME="?parseReal@StringConverter@Orc@@SAMABVString@2@@Z" PURGE="-1" COMMENT="" />
    <EXPORT ORDINAL="2636" NAME="?parseScript@ParticleSystemMgr@Orc@@AAE_NABVString@2@_N@Z" PURGE="8" COMMENT="" />
    <EXPORT ORDINAL="2637" NAME="?parseScript@ParticleSystemMgr@Orc@@QAE_NABVString@2@@Z" PURGE="4" COMMENT="" />
    <EXPORT ORDINAL="2638" NAME="?parseScriptDirectory@ParticleSystemMgr@Orc@@QAE_NABVString@2@@Z" PURGE="4" COMMENT="" />
    <EXPORT ORDINAL="2639" NAME="?parseUnsignedInt@StringConverter@Orc@@SAIABVString@2@@Z" PURGE="-1" COMMENT="" />
    <EXPORT ORDINAL="2640" NAME="?parseVector3d@StringConverter@Orc@@SA?AUD3DXVECTOR3@@ABVString@2@@Z" PURGE="0" COMMENT="" />
    <EXPORT ORDINAL="2641" NAME="?pass@cGate@Orc@@QAE_NI@Z" PURGE="4" COMMENT="" />
    <EXPORT ORDINAL="2642" NAME="?pcx_encode_byte@cIO_pcx@Orc@@AAEHEEAAVcFile@2@@Z" PURGE="12" COMMENT="" />
    <EXPORT ORDINAL="2643" NAME="?pcx_encode_line24@cIO_pcx@Orc@@AAEHPAEHHAAVcFile@2@@Z" PURGE="16" COMMENT="" />
    <EXPORT ORDINAL="2644" NAME="?pcx_encode_line@cIO_pcx@Orc@@AAEHPAEHAAVcFile@2@@Z" PURGE="12" COMMENT="" />
    <EXPORT ORDINAL="2645" NAME="?peekAtNextToken@TextTokenizer@Orc@@QAE?AVTextToken@2@XZ" PURGE="4" COMMENT="" />
    <EXPORT ORDINAL="2646" NAME="?perpendicular@cMath@Orc@@SAXPAUD3DXVECTOR3@@0@Z" PURGE="0" COMMENT="" />
    <EXPORT ORDINAL="2647" NAME="?play@iSound3DStereo@Orc@@UAE_NXZ" PURGE="0" COMMENT="" />
    <EXPORT ORDINAL="2648" NAME="?play@iSound3DSubwoofer@Orc@@UAE_NXZ" PURGE="0" COMMENT="" />
    <EXPORT ORDINAL="2649" NAME="?play@iSoundChannel@Orc@@UAE_NI@Z" PURGE="4" COMMENT="" />
    <EXPORT ORDINAL="2650" NAME="?play@iSoundClip@Orc@@UAE_NXZ" PURGE="0" COMMENT="" />
    <EXPORT ORDINAL="2651" NAME="?play@iSoundSystem@Orc@@UAE_NPAViSoundSource@2@@Z" PURGE="4" COMMENT="" />
    <EXPORT ORDINAL="2652" NAME="?play@iSoundVorbis@Orc@@UAE_NXZ" PURGE="0" COMMENT="" />
    <EXPORT ORDINAL="2653" NAME="?playAnimation@MD5Anim@Orc@@QAEXAAVMD5Mesh@2@M@Z" PURGE="8" COMMENT="" />
    <EXPORT ORDINAL="2654" NAME="?playOnPause@iSoundSource@Orc@@QBE_NXZ" PURGE="0" COMMENT="" />
    <EXPORT ORDINAL="2655" NAME="?playOnPause@sSoundParams@Orc@@QBE_NXZ" PURGE="0" COMMENT="" />
    <EXPORT ORDINAL="2656" NAME="?playWork@iSoundSystem@Orc@@MAE?AW4eSoundPlayReturn@2@PAViSoundSource@2@@Z" PURGE="4" COMMENT="" />
    <EXPORT ORDINAL="2657" NAME="?pointInTriangle@cMath@Orc@@SA_NABUD3DXVECTOR3@@PBU3@ABUD3DXPLANE@@M@Z" PURGE="0" COMMENT="" />
    <EXPORT ORDINAL="2658" NAME="?pointInTriangle@cMath@Orc@@SA_NABUD3DXVECTOR3@@PBU3@M@Z" PURGE="0" COMMENT="" />
    <EXPORT ORDINAL="2659" NAME="?pop_back@?$basic_string@DV?$char_traits@D@stlp_std@@V?$memtrack_allocator@D$0IMHGPCA@@2@@stlp_std@@QAEXXZ" PURGE="0" COMMENT="" />
    <EXPORT ORDINAL="2660" NAME="?pop_back@?$basic_string@_WV?$char_traits@_W@stlp_std@@V?$memtrack_allocator@_W$0IMHGPCA@@2@@stlp_std@@QAEXXZ" PURGE="0" COMMENT="" />
    <EXPORT ORDINAL="2661" NAME="?precalc@MD5Anim@Orc@@QAEXXZ" PURGE="0" COMMENT="" />
    <EXPORT ORDINAL="2662" NAME="?prepareFileName@FileSystem@Orc@@SAXAAVString@2@@Z" PURGE="0" COMMENT="" />
    <EXPORT ORDINAL="2663" NAME="?prepareFileName@FileSystem@Orc@@SAXPADPBD@Z" PURGE="0" COMMENT="" />
    <EXPORT ORDINAL="2664" NAME="?process@DirectoryMonitorTask@Orc@@EAE_NM@Z" PURGE="4" COMMENT="" />
    <EXPORT ORDINAL="2665" NAME="?profiling_state@Orc@@YAXW4eProfileState@1@@Z" PURGE="0" COMMENT="" />
    <EXPORT ORDINAL="2666" NAME="?push_back@?$basic_string@DV?$char_traits@D@stlp_std@@V?$memtrack_allocator@D$0IMHGPCA@@2@@stlp_std@@QAEXD@Z" PURGE="4" COMMENT="" />
    <EXPORT ORDINAL="2667" NAME="?push_back@?$basic_string@_WV?$char_traits@_W@stlp_std@@V?$memtrack_allocator@_W$0IMHGPCA@@2@@stlp_std@@QAEX_W@Z" PURGE="4" COMMENT="" />
    <EXPORT ORDINAL="2668" NAME="?rad2deg@cMath@Orc@@SAMM@Z" PURGE="0" COMMENT="" />
    <EXPORT ORDINAL="2669" NAME="?rad2range0_piDiv2@cMath@Orc@@SAMM@Z" PURGE="0" COMMENT="" />
    <EXPORT ORDINAL="2670" NAME="?radNormalize@cMath@Orc@@SAMM@Z" PURGE="0" COMMENT="" />
    <EXPORT ORDINAL="2671" NAME="?radNormalized_IsIn@cMath@Orc@@SA_NMMM_N@Z" PURGE="0" COMMENT="" />
    <EXPORT ORDINAL="2672" NAME="?rand@RandPseudo@Orc@@AAEHXZ" PURGE="0" COMMENT="" />
    <EXPORT ORDINAL="2673" NAME="?rand@RandPseudo@Orc@@QAEJJ@Z" PURGE="4" COMMENT="" />
    <EXPORT ORDINAL="2674" NAME="?rand@RandPseudoOld@Orc@@QAEJJ@Z" PURGE="4" COMMENT="" />
    <EXPORT ORDINAL="2675" NAME="?rand@cRandMsvc@Orc@@QAEHXZ" PURGE="0" COMMENT="" />
    <EXPORT ORDINAL="2676" NAME="?randMax@cMersenneTwister@Orc@@QBEHXZ" PURGE="0" COMMENT="" />
    <EXPORT ORDINAL="2677" NAME="?random01@RandPseudo@Orc@@QAEMXZ" PURGE="0" COMMENT="" />
    <EXPORT ORDINAL="2678" NAME="?random01@RandPseudoOld@Orc@@QAEMXZ" PURGE="0" COMMENT="" />
    <EXPORT ORDINAL="2679" NAME="?random01@cMersenneTwister@Orc@@QAEMXZ" PURGE="0" COMMENT="" />
    <EXPORT ORDINAL="2680" NAME="?random01@cRand@Orc@@SAMXZ" PURGE="0" COMMENT="" />
    <EXPORT ORDINAL="2681" NAME="?random@RandPseudo@Orc@@QAEMMM@Z" PURGE="8" COMMENT="" />
    <EXPORT ORDINAL="2682" NAME="?random@RandPseudoOld@Orc@@QAEMMM@Z" PURGE="8" COMMENT="" />
    <EXPORT ORDINAL="2683" NAME="?random@cMersenneTwister@Orc@@QAEHHH@Z" PURGE="8" COMMENT="" />
    <EXPORT ORDINAL="2684" NAME="?random@cRand@Orc@@SAHHH@Z" PURGE="0" COMMENT="" />
    <EXPORT ORDINAL="2685" NAME="?random@cRand@Orc@@SAIXZ" PURGE="0" COMMENT="" />
    <EXPORT ORDINAL="2686" NAME="?random@cRand@Orc@@SAMMM@Z" PURGE="0" COMMENT="" />
    <EXPORT ORDINAL="2687" NAME="?randomRange@cRand@Orc@@SAMMM@Z" PURGE="0" COMMENT="" />
    <EXPORT ORDINAL="2688" NAME="?randomSign@cRand@Orc@@SA_NXZ" PURGE="0" COMMENT="" />
    <EXPORT ORDINAL="2689" NAME="?rbegin@?$basic_string@DV?$char_traits@D@stlp_std@@V?$memtrack_allocator@D$0IMHGPCA@@2@@stlp_std@@QAE?AV?$reverse_iterator@PAD@2@XZ" PURGE="4" COMMENT="" />
    <EXPORT ORDINAL="2690" NAME="?rbegin@?$basic_string@DV?$char_traits@D@stlp_std@@V?$memtrack_allocator@D$0IMHGPCA@@2@@stlp_std@@QBE?AV?$reverse_iterator@PBD@2@XZ" PURGE="4" COMMENT="" />
    <EXPORT ORDINAL="2691" NAME="?rbegin@?$basic_string@_WV?$char_traits@_W@stlp_std@@V?$memtrack_allocator@_W$0IMHGPCA@@2@@stlp_std@@QAE?AV?$reverse_iterator@PA_W@2@XZ" PURGE="4" COMMENT="" />
    <EXPORT ORDINAL="2692" NAME="?rbegin@?$basic_string@_WV?$char_traits@_W@stlp_std@@V?$memtrack_allocator@_W$0IMHGPCA@@2@@stlp_std@@QBE?AV?$reverse_iterator@PB_W@2@XZ" PURGE="4" COMMENT="" />
    <EXPORT ORDINAL="2693" NAME="?rdtscCpuid@ProcessorInfo@Orc@@SAXPAIPA_K@Z" PURGE="0" COMMENT="" />
    <EXPORT ORDINAL="2694" NAME="?read@RingBufferByte@Orc@@QAEJPAXJ@Z" PURGE="8" COMMENT="" />
    <EXPORT ORDINAL="2695" NAME="?read@cFileBit@Orc@@UAEIPAXI@Z" PURGE="8" COMMENT="" />
    <EXPORT ORDINAL="2696" NAME="?read@cFileBitOld@Orc@@UAEIPAXI@Z" PURGE="8" COMMENT="" />
    <EXPORT ORDINAL="2697" NAME="?read@cFileCached@Orc@@UAEIPAXI@Z" PURGE="8" COMMENT="" />
    <EXPORT ORDINAL="2698" NAME="?read@cFileDisk@Orc@@UAEIPAXI@Z" PURGE="8" COMMENT="" />
    <EXPORT ORDINAL="2699" NAME="?read@cFileMem@Orc@@UAEIAAV12@I@Z" PURGE="8" COMMENT="" />
    <EXPORT ORDINAL="2700" NAME="?read@cFileMem@Orc@@UAEIPAXI@Z" PURGE="8" COMMENT="" />
    <EXPORT ORDINAL="2701" NAME="?readIdentifier@TextTokenizer@Orc@@AAEXXZ" PURGE="0" COMMENT="" />
    <EXPORT ORDINAL="2702" NAME="?readNumber@TextTokenizer@Orc@@AAEX_N@Z" PURGE="4" COMMENT="" />
    <EXPORT ORDINAL="2703" NAME="?readString@TextTokenizer@Orc@@AAEXXZ" PURGE="0" COMMENT="" />
    <EXPORT ORDINAL="2704" NAME="?readUntilEnd@TextTokenizer@Orc@@QAEXXZ" PURGE="0" COMMENT="" />
    <EXPORT ORDINAL="2705" NAME="?readUntilEol@TextTokenizer@Orc@@QAEXXZ" PURGE="0" COMMENT="" />
    <EXPORT ORDINAL="2706" NAME="?readUntilNextWhitespace@TextTokenizer@Orc@@QAEXXZ" PURGE="0" COMMENT="" />
    <EXPORT ORDINAL="2707" NAME="?readUntilToken@TextTokenizer@Orc@@QAEXABVTextToken@2@@Z" PURGE="4" COMMENT="" />
    <EXPORT ORDINAL="2708" NAME="?read_16@cFile@Orc@@QAE_NAAF@Z" PURGE="4" COMMENT="" />
    <EXPORT ORDINAL="2709" NAME="?read_16@cFile@Orc@@QAE_NAAG@Z" PURGE="4" COMMENT="" />
    <EXPORT ORDINAL="2710" NAME="?read_24bpp@cIO_pcx@Orc@@AAEHAAVcFile@2@AAVcImage@2@@Z" PURGE="8" COMMENT="" />
    <EXPORT ORDINAL="2711" NAME="?read_32@cFile@Orc@@QAE_NAAH@Z" PURGE="4" COMMENT="" />
    <EXPORT ORDINAL="2712" NAME="?read_32@cFile@Orc@@QAE_NAAI@Z" PURGE="4" COMMENT="" />
    <EXPORT ORDINAL="2713" NAME="?read_64@cFile@Orc@@QAE_NAA_J@Z" PURGE="4" COMMENT="" />
    <EXPORT ORDINAL="2714" NAME="?read_64@cFile@Orc@@QAE_NAA_K@Z" PURGE="4" COMMENT="" />
    <EXPORT ORDINAL="2715" NAME="?read_8@cFile@Orc@@QAE_NAAD@Z" PURGE="4" COMMENT="" />
    <EXPORT ORDINAL="2716" NAME="?read_8@cFile@Orc@@QAE_NAAE@Z" PURGE="4" COMMENT="" />
    <EXPORT ORDINAL="2717" NAME="?read_8bpp@cIO_pcx@Orc@@AAEHAAVcFile@2@AAVcImage@2@@Z" PURGE="8" COMMENT="" />
    <EXPORT ORDINAL="2718" NAME="?read_bit@cFileBit@Orc@@UAE_NXZ" PURGE="0" COMMENT="" />
    <EXPORT ORDINAL="2719" NAME="?read_bit@cFileBitOld@Orc@@UAE_NXZ" PURGE="0" COMMENT="" />
    <EXPORT ORDINAL="2720" NAME="?read_bits@cFileBit@Orc@@UAEII@Z" PURGE="4" COMMENT="" />
    <EXPORT ORDINAL="2721" NAME="?read_bits@cFileBitOld@Orc@@UAEII@Z" PURGE="4" COMMENT="" />
    <EXPORT ORDINAL="2722" NAME="?read_float@cFile@Orc@@QAE_NAAM@Z" PURGE="4" COMMENT="" />
    <EXPORT ORDINAL="2723" NAME="?read_header@cIO_bmp@Orc@@AAE_NAAVcFile@2@AAUsHeaderBMPCore@2@AAUsHeaderBMPInfo@2@@Z" PURGE="12" COMMENT="" />
    <EXPORT ORDINAL="2724" NAME="?read_header@cIO_ico@Orc@@QAEHAAVcFile@2@AAUsHeaderICO_dir@2@AAV?$vector@UsHeaderICO_dirEntry@Orc@@V?$allocator@UsHeaderICO_dirEntry@Orc@@@stlp_std@@@stlp_std@@@Z" PURGE="12" COMMENT="" />
    <EXPORT ORDINAL="2725" NAME="?read_header@cIO_pcx@Orc@@AAEHAAVcFile@2@AAUsHeaderPCX@2@PAVcPalette@2@@Z" PURGE="12" COMMENT="" />
    <EXPORT ORDINAL="2726" NAME="?read_header@cIO_tga@Orc@@AAEHAAVcFile@2@AAUsHeaderTGA@2@PAVcPalette@2@@Z" PURGE="12" COMMENT="" />
    <EXPORT ORDINAL="2727" NAME="?read_mat4d@cFile@Orc@@QAE_NAAUD3DXMATRIX@@@Z" PURGE="4" COMMENT="" />
    <EXPORT ORDINAL="2728" NAME="?read_string@cFile@Orc@@QAE_NAAVString@2@@Z" PURGE="4" COMMENT="" />
    <EXPORT ORDINAL="2729" NAME="?read_type10@cIO_tga@Orc@@AAEHAAVcFile@2@AAVcImage@2@@Z" PURGE="8" COMMENT="" />
    <EXPORT ORDINAL="2730" NAME="?read_type1@cIO_tga@Orc@@AAEHAAVcFile@2@AAVcImage@2@@Z" PURGE="8" COMMENT="" />
    <EXPORT ORDINAL="2731" NAME="?read_type2@cIO_tga@Orc@@AAEHAAVcFile@2@AAVcImage@2@@Z" PURGE="8" COMMENT="" />
    <EXPORT ORDINAL="2732" NAME="?read_type3@cIO_tga@Orc@@AAEHAAVcFile@2@AAVcImage@2@@Z" PURGE="8" COMMENT="" />
    <EXPORT ORDINAL="2733" NAME="?read_type_bf@cIO_bmp@Orc@@AAE_NAAVcFile@2@AAVcImage@2@@Z" PURGE="8" COMMENT="" />
    <EXPORT ORDINAL="2734" NAME="?read_type_bw@cIO_bmp@Orc@@AAE_NAAVcFile@2@AAVcImage@2@@Z" PURGE="8" COMMENT="" />
    <EXPORT ORDINAL="2735" NAME="?read_type_rgb@cIO_bmp@Orc@@AAE_NAAVcFile@2@AAVcImage@2@@Z" PURGE="8" COMMENT="" />
    <EXPORT ORDINAL="2736" NAME="?read_type_rle8@cIO_bmp@Orc@@AAE_NAAVcFile@2@AAVcImage@2@@Z" PURGE="8" COMMENT="" />
    <EXPORT ORDINAL="2737" NAME="?read_vec3d@cFile@Orc@@QAE_NAAUD3DXVECTOR3@@@Z" PURGE="4" COMMENT="" />
    <EXPORT ORDINAL="2738" NAME="?read_wstring@cFile@Orc@@QAE_NAAVWString@2@@Z" PURGE="4" COMMENT="" />
    <EXPORT ORDINAL="2739" NAME="?rebind@ParticleSystemMgr@Orc@@QAEXABVString@2@@Z" PURGE="4" COMMENT="" />
    <EXPORT ORDINAL="2740" NAME="?recalcTangents@cSplineCR@Orc@@QAEXXZ" PURGE="0" COMMENT="" />
    <EXPORT ORDINAL="2741" NAME="?recheck@ParticleSystem@Orc@@QAEXXZ" PURGE="0" COMMENT="" />
    <EXPORT ORDINAL="2742" NAME="?refreshArchive@cArchiveContainer@Orc@@QAEXXZ" PURGE="0" COMMENT="" />
    <EXPORT ORDINAL="2743" NAME="?refreshCommonArchive@cArchiveContainer@Orc@@QAEXXZ" PURGE="0" COMMENT="" />
    <EXPORT ORDINAL="2744" NAME="?refreshExternals@cArchiveContainer@Orc@@SAXABVString@2@@Z" PURGE="0" COMMENT="" />
    <EXPORT ORDINAL="2745" NAME="?refreshResource@cResourceManager@Orc@@UAEXI@Z" PURGE="4" COMMENT="" />
    <EXPORT ORDINAL="2746" NAME="?release@cSemaphore@Orc@@QAEXI@Z" PURGE="4" COMMENT="" />
    <EXPORT ORDINAL="2747" NAME="?remap@StringTools@Orc@@SAXPADPBDPAE@Z" PURGE="0" COMMENT="" />
    <EXPORT ORDINAL="2748" NAME="?remap@StringTools@Orc@@SAXPA_WPB_WPAE@Z" PURGE="0" COMMENT="" />
    <EXPORT ORDINAL="2749" NAME="?remove@cMacroCommand@Orc@@UAEXH@Z" PURGE="-1" COMMENT="" />
    <EXPORT ORDINAL="2750" NAME="?remove@cMacroCommand@Orc@@UAEXPAVcCommand@2@@Z" PURGE="4" COMMENT="" />
    <EXPORT ORDINAL="2751" NAME="?removeAffector@ParticleSystem@Orc@@QAE_NABVString@2@@Z" PURGE="4" COMMENT="" />
    <EXPORT ORDINAL="2752" NAME="?removeAffector@ParticleSystem@Orc@@QAE_NI@Z" PURGE="4" COMMENT="" />
    <EXPORT ORDINAL="2753" NAME="?removeAll@cMacroCommand@Orc@@UAEXXZ" PURGE="0" COMMENT="" />
    <EXPORT ORDINAL="2754" NAME="?removeAllAffectors@ParticleSystem@Orc@@QAEXXZ" PURGE="0" COMMENT="" />
    <EXPORT ORDINAL="2755" NAME="?removeAllEmitters@ParticleSystem@Orc@@QAEXXZ" PURGE="0" COMMENT="" />
    <EXPORT ORDINAL="2756" NAME="?removeDialog@Root@Orc@@QAEXPAX@Z" PURGE="4" COMMENT="" />
    <EXPORT ORDINAL="2757" NAME="?removeEmitter@ParticleSystem@Orc@@QAE_NABVString@2@@Z" PURGE="4" COMMENT="" />
    <EXPORT ORDINAL="2758" NAME="?removeEmitter@ParticleSystem@Orc@@QAE_NI@Z" PURGE="4" COMMENT="" />
    <EXPORT ORDINAL="2759" NAME="?removeFrameListener@Root@Orc@@QAEXPAVFrameListener@2@@Z" PURGE="4" COMMENT="" />
    <EXPORT ORDINAL="2760" NAME="?removeJob@QueuedTaskMgr@Orc@@AAEXPAViQueuedTask@2@@Z" PURGE="4" COMMENT="" />
    <EXPORT ORDINAL="2761" NAME="?rend@?$basic_string@DV?$char_traits@D@stlp_std@@V?$memtrack_allocator@D$0IMHGPCA@@2@@stlp_std@@QAE?AV?$reverse_iterator@PAD@2@XZ" PURGE="4" COMMENT="" />
    <EXPORT ORDINAL="2762" NAME="?rend@?$basic_string@DV?$char_traits@D@stlp_std@@V?$memtrack_allocator@D$0IMHGPCA@@2@@stlp_std@@QBE?AV?$reverse_iterator@PBD@2@XZ" PURGE="4" COMMENT="" />
    <EXPORT ORDINAL="2763" NAME="?rend@?$basic_string@_WV?$char_traits@_W@stlp_std@@V?$memtrack_allocator@_W$0IMHGPCA@@2@@stlp_std@@QAE?AV?$reverse_iterator@PA_W@2@XZ" PURGE="4" COMMENT="" />
    <EXPORT ORDINAL="2764" NAME="?rend@?$basic_string@_WV?$char_traits@_W@stlp_std@@V?$memtrack_allocator@_W$0IMHGPCA@@2@@stlp_std@@QBE?AV?$reverse_iterator@PB_W@2@XZ" PURGE="4" COMMENT="" />
    <EXPORT ORDINAL="2765" NAME="?replace@?$basic_string@DV?$char_traits@D@stlp_std@@V?$memtrack_allocator@D$0IMHGPCA@@2@@stlp_std@@QAEAAV12@IIABV12@@Z" PURGE="12" COMMENT="" />
    <EXPORT ORDINAL="2766" NAME="?replace@?$basic_string@DV?$char_traits@D@stlp_std@@V?$memtrack_allocator@D$0IMHGPCA@@2@@stlp_std@@QAEAAV12@IIABV12@II@Z" PURGE="20" COMMENT="" />
    <EXPORT ORDINAL="2767" NAME="?replace@?$basic_string@DV?$char_traits@D@stlp_std@@V?$memtrack_allocator@D$0IMHGPCA@@2@@stlp_std@@QAEAAV12@IIID@Z" PURGE="16" COMMENT="" />
    <EXPORT ORDINAL="2768" NAME="?replace@?$basic_string@DV?$char_traits@D@stlp_std@@V?$memtrack_allocator@D$0IMHGPCA@@2@@stlp_std@@QAEAAV12@IIPBD@Z" PURGE="12" COMMENT="" />
    <EXPORT ORDINAL="2769" NAME="?replace@?$basic_string@DV?$char_traits@D@stlp_std@@V?$memtrack_allocator@D$0IMHGPCA@@2@@stlp_std@@QAEAAV12@IIPBDI@Z" PURGE="16" COMMENT="" />
    <EXPORT ORDINAL="2770" NAME="?replace@?$basic_string@DV?$char_traits@D@stlp_std@@V?$memtrack_allocator@D$0IMHGPCA@@2@@stlp_std@@QAEAAV12@PAD0ABV12@@Z" PURGE="12" COMMENT="" />
    <EXPORT ORDINAL="2771" NAME="?replace@?$basic_string@DV?$char_traits@D@stlp_std@@V?$memtrack_allocator@D$0IMHGPCA@@2@@stlp_std@@QAEAAV12@PAD0ID@Z" PURGE="16" COMMENT="" />
    <EXPORT ORDINAL="2772" NAME="?replace@?$basic_string@DV?$char_traits@D@stlp_std@@V?$memtrack_allocator@D$0IMHGPCA@@2@@stlp_std@@QAEAAV12@PAD0PBD1@Z" PURGE="16" COMMENT="" />
    <EXPORT ORDINAL="2773" NAME="?replace@?$basic_string@DV?$char_traits@D@stlp_std@@V?$memtrack_allocator@D$0IMHGPCA@@2@@stlp_std@@QAEAAV12@PAD0PBD@Z" PURGE="12" COMMENT="" />
    <EXPORT ORDINAL="2774" NAME="?replace@?$basic_string@DV?$char_traits@D@stlp_std@@V?$memtrack_allocator@D$0IMHGPCA@@2@@stlp_std@@QAEAAV12@PAD0PBDI@Z" PURGE="16" COMMENT="" />
    <EXPORT ORDINAL="2775" NAME="?replace@?$basic_string@_WV?$char_traits@_W@stlp_std@@V?$memtrack_allocator@_W$0IMHGPCA@@2@@stlp_std@@QAEAAV12@IIABV12@@Z" PURGE="12" COMMENT="" />
    <EXPORT ORDINAL="2776" NAME="?replace@?$basic_string@_WV?$char_traits@_W@stlp_std@@V?$memtrack_allocator@_W$0IMHGPCA@@2@@stlp_std@@QAEAAV12@IIABV12@II@Z" PURGE="20" COMMENT="" />
    <EXPORT ORDINAL="2777" NAME="?replace@?$basic_string@_WV?$char_traits@_W@stlp_std@@V?$memtrack_allocator@_W$0IMHGPCA@@2@@stlp_std@@QAEAAV12@III_W@Z" PURGE="16" COMMENT="" />
    <EXPORT ORDINAL="2778" NAME="?replace@?$basic_string@_WV?$char_traits@_W@stlp_std@@V?$memtrack_allocator@_W$0IMHGPCA@@2@@stlp_std@@QAEAAV12@IIPB_W@Z" PURGE="12" COMMENT="" />
    <EXPORT ORDINAL="2779" NAME="?replace@?$basic_string@_WV?$char_traits@_W@stlp_std@@V?$memtrack_allocator@_W$0IMHGPCA@@2@@stlp_std@@QAEAAV12@IIPB_WI@Z" PURGE="16" COMMENT="" />
    <EXPORT ORDINAL="2780" NAME="?replace@?$basic_string@_WV?$char_traits@_W@stlp_std@@V?$memtrack_allocator@_W$0IMHGPCA@@2@@stlp_std@@QAEAAV12@PA_W0ABV12@@Z" PURGE="12" COMMENT="" />
    <EXPORT ORDINAL="2781" NAME="?replace@?$basic_string@_WV?$char_traits@_W@stlp_std@@V?$memtrack_allocator@_W$0IMHGPCA@@2@@stlp_std@@QAEAAV12@PA_W0I_W@Z" PURGE="16" COMMENT="" />
    <EXPORT ORDINAL="2782" NAME="?replace@?$basic_string@_WV?$char_traits@_W@stlp_std@@V?$memtrack_allocator@_W$0IMHGPCA@@2@@stlp_std@@QAEAAV12@PA_W0PB_W1@Z" PURGE="16" COMMENT="" />
    <EXPORT ORDINAL="2783" NAME="?replace@?$basic_string@_WV?$char_traits@_W@stlp_std@@V?$memtrack_allocator@_W$0IMHGPCA@@2@@stlp_std@@QAEAAV12@PA_W0PB_W@Z" PURGE="12" COMMENT="" />
    <EXPORT ORDINAL="2784" NAME="?replace@?$basic_string@_WV?$char_traits@_W@stlp_std@@V?$memtrack_allocator@_W$0IMHGPCA@@2@@stlp_std@@QAEAAV12@PA_W0PB_WI@Z" PURGE="16" COMMENT="" />
    <EXPORT ORDINAL="2785" NAME="?replaceAll@String@Orc@@QAEXABV12@0@Z" PURGE="8" COMMENT="" />
    <EXPORT ORDINAL="2786" NAME="?replaceAll@WString@Orc@@QAEXABV12@0@Z" PURGE="8" COMMENT="" />
    <EXPORT ORDINAL="2787" NAME="?replaceWildcard@String@Orc@@QAEXAAV?$vector@VString@Orc@@V?$allocator@VString@Orc@@@stlp_std@@@stlp_std@@@Z" PURGE="4" COMMENT="" />
    <EXPORT ORDINAL="2788" NAME="?replaceWildcard@String@Orc@@QAEXABV12@H@Z" PURGE="8" COMMENT="" />
    <EXPORT ORDINAL="2789" NAME="?replaceWildcard@WString@Orc@@QAEXAAV?$vector@VWString@Orc@@V?$allocator@VWString@Orc@@@stlp_std@@@stlp_std@@@Z" PURGE="4" COMMENT="" />
    <EXPORT ORDINAL="2790" NAME="?replaceWildcard@WString@Orc@@QAEXABV12@H@Z" PURGE="8" COMMENT="" />
    <EXPORT ORDINAL="2791" NAME="?reserve@?$basic_string@DV?$char_traits@D@stlp_std@@V?$memtrack_allocator@D$0IMHGPCA@@2@@stlp_std@@QAEXI@Z" PURGE="4" COMMENT="" />
    <EXPORT ORDINAL="2792" NAME="?reserve@?$basic_string@_WV?$char_traits@_W@stlp_std@@V?$memtrack_allocator@_W$0IMHGPCA@@2@@stlp_std@@QAEXI@Z" PURGE="4" COMMENT="" />
    <EXPORT ORDINAL="2793" NAME="?reserve@cFile@Orc@@UAE_NI@Z" PURGE="4" COMMENT="" />
    <EXPORT ORDINAL="2794" NAME="?reserve@cFileMem@Orc@@UAE_NI@Z" PURGE="4" COMMENT="" />
    <EXPORT ORDINAL="2795" NAME="?reserve@cFileTempMem@Orc@@UAE_NI@Z" PURGE="4" COMMENT="" />
    <EXPORT ORDINAL="2796" NAME="?reset3DStereo@iSoundSource@Orc@@QAEXXZ" PURGE="0" COMMENT="" />
    <EXPORT ORDINAL="2797" NAME="?reset3DSubwoofer@iSoundSource@Orc@@QAEXXZ" PURGE="0" COMMENT="" />
    <EXPORT ORDINAL="2798" NAME="?reset@FileInfo@Orc@@QAEXXZ" PURGE="0" COMMENT="" />
    <EXPORT ORDINAL="2799" NAME="?reset@ParticleSystem@Orc@@QAEXXZ" PURGE="0" COMMENT="" />
    <EXPORT ORDINAL="2800" NAME="?reset@ProfileManager@Orc@@QAEXXZ" PURGE="0" COMMENT="" />
    <EXPORT ORDINAL="2801" NAME="?reset@ProfileNode@Orc@@QAEXXZ" PURGE="0" COMMENT="" />
    <EXPORT ORDINAL="2802" NAME="?reset@cCRC32@Orc@@QAEXXZ" PURGE="0" COMMENT="" />
    <EXPORT ORDINAL="2803" NAME="?reset@cCodecMulti@Orc@@QAEXXZ" PURGE="0" COMMENT="" />
    <EXPORT ORDINAL="2804" NAME="?reset@cRectangle@Orc@@QAEXXZ" PURGE="0" COMMENT="" />
    <EXPORT ORDINAL="2805" NAME="?reset@iSoundSource@Orc@@QAEXXZ" PURGE="0" COMMENT="" />
    <EXPORT ORDINAL="2806" NAME="?reset@sSoundCone@Orc@@QAEXXZ" PURGE="0" COMMENT="" />
    <EXPORT ORDINAL="2807" NAME="?reset@sSoundParams@Orc@@QAEXXZ" PURGE="0" COMMENT="" />
    <EXPORT ORDINAL="2808" NAME="?resetAttrib@MD5Mesh@Orc@@QAEXXZ" PURGE="0" COMMENT="" />
    <EXPORT ORDINAL="2809" NAME="?resetChannelInited@iSoundChannel@Orc@@QAEXXZ" PURGE="0" COMMENT="" />
    <EXPORT ORDINAL="2810" NAME="?resetConeData@sSoundParams@Orc@@QAEXXZ" PURGE="0" COMMENT="" />
    <EXPORT ORDINAL="2811" NAME="?resetCustomFlag@iSoundChannel@Orc@@AAEXXZ" PURGE="0" COMMENT="" />
    <EXPORT ORDINAL="2812" NAME="?resetCustomFlag@iSoundSource@Orc@@QAEXXZ" PURGE="0" COMMENT="" />
    <EXPORT ORDINAL="2813" NAME="?resetDucking@iSoundChannel@Orc@@QAEXXZ" PURGE="0" COMMENT="" />
    <EXPORT ORDINAL="2814" NAME="?resetDuckingLowPass@iSoundSource@Orc@@QAEXXZ" PURGE="0" COMMENT="" />
    <EXPORT ORDINAL="2815" NAME="?resetDuckingRequest@iSoundChannel@Orc@@QAEXXZ" PURGE="0" COMMENT="" />
    <EXPORT ORDINAL="2816" NAME="?resetEOFAndBufferDried@iSoundClip@Orc@@QAEXXZ" PURGE="0" COMMENT="" />
    <EXPORT ORDINAL="2817" NAME="?resetFade@iSoundChannel@Orc@@QAEXXZ" PURGE="0" COMMENT="" />
    <EXPORT ORDINAL="2818" NAME="?resetFallbackName@iSoundSource@Orc@@QAEXXZ" PURGE="0" COMMENT="" />
    <EXPORT ORDINAL="2819" NAME="?resetForce2D@iSoundSource@Orc@@QAEXXZ" PURGE="0" COMMENT="" />
    <EXPORT ORDINAL="2820" NAME="?resetForce2D@sSoundParams@Orc@@QAEXXZ" PURGE="0" COMMENT="" />
    <EXPORT ORDINAL="2821" NAME="?resetFormats@iSoundSource@Orc@@QAEXXZ" PURGE="0" COMMENT="" />
    <EXPORT ORDINAL="2822" NAME="?resetGlobalStats@cResourceManager@Orc@@SAXXZ" PURGE="0" COMMENT="" />
    <EXPORT ORDINAL="2823" NAME="?resetLocalDucking@iSoundSource@Orc@@QAEXXZ" PURGE="0" COMMENT="" />
    <EXPORT ORDINAL="2824" NAME="?resetLowPassFiltering@iSoundSource@Orc@@QAEXXZ" PURGE="0" COMMENT="" />
    <EXPORT ORDINAL="2825" NAME="?resetOGGHeader@iSoundSource@Orc@@QAEXXZ" PURGE="0" COMMENT="" />
    <EXPORT ORDINAL="2826" NAME="?resetPalette@cPalette@Orc@@QAEXXZ" PURGE="0" COMMENT="" />
    <EXPORT ORDINAL="2827" NAME="?resetParamChanged@iSoundSource@Orc@@QAEXXZ" PURGE="0" COMMENT="" />
    <EXPORT ORDINAL="2828" NAME="?resetStandAlone@iSoundVorbis@Orc@@QAEXXZ" PURGE="0" COMMENT="" />
    <EXPORT ORDINAL="2829" NAME="?resetStats@cResourceManager@Orc@@QAEXXZ" PURGE="0" COMMENT="" />
    <EXPORT ORDINAL="2830" NAME="?resetStatus@iSoundChannel@Orc@@QAEXXZ" PURGE="0" COMMENT="" />
    <EXPORT ORDINAL="2831" NAME="?resetStream@iSoundSource@Orc@@QAEXXZ" PURGE="0" COMMENT="" />
    <EXPORT ORDINAL="2832" NAME="?resetStreamRequested@iSoundSource@Orc@@QAEXXZ" PURGE="0" COMMENT="" />
    <EXPORT ORDINAL="2833" NAME="?resetVolChanged@iSoundSource@Orc@@QAEXXZ" PURGE="0" COMMENT="" />
    <EXPORT ORDINAL="2834" NAME="?resetWAVHeader@iSoundSource@Orc@@QAEXXZ" PURGE="0" COMMENT="" />
    <EXPORT ORDINAL="2835" NAME="?resize@?$basic_string@DV?$char_traits@D@stlp_std@@V?$memtrack_allocator@D$0IMHGPCA@@2@@stlp_std@@QAEXI@Z" PURGE="4" COMMENT="" />
    <EXPORT ORDINAL="2836" NAME="?resize@?$basic_string@DV?$char_traits@D@stlp_std@@V?$memtrack_allocator@D$0IMHGPCA@@2@@stlp_std@@QAEXID@Z" PURGE="8" COMMENT="" />
    <EXPORT ORDINAL="2837" NAME="?resize@?$basic_string@_WV?$char_traits@_W@stlp_std@@V?$memtrack_allocator@_W$0IMHGPCA@@2@@stlp_std@@QAEXI@Z" PURGE="4" COMMENT="" />
    <EXPORT ORDINAL="2838" NAME="?resize@?$basic_string@_WV?$char_traits@_W@stlp_std@@V?$memtrack_allocator@_W$0IMHGPCA@@2@@stlp_std@@QAEXI_W@Z" PURGE="8" COMMENT="" />
    <EXPORT ORDINAL="2839" NAME="?resize@cFileMem@Orc@@QAE_NI@Z" PURGE="4" COMMENT="" />
    <EXPORT ORDINAL="2840" NAME="?resourceMgrTick@cResourceManager@Orc@@SAXXZ" PURGE="0" COMMENT="" />
    <EXPORT ORDINAL="2841" NAME="?restoreConfig@Root@Orc@@QAE_NXZ" PURGE="0" COMMENT="" />
    <EXPORT ORDINAL="2842" NAME="?resume@ThreadTask@Orc@@QAEIXZ" PURGE="0" COMMENT="" />
    <EXPORT ORDINAL="2843" NAME="?returnToPool@QueuedTaskMgr@Orc@@AAEXPAViQueuedThread@2@W4eThreadStatus@2@@Z" PURGE="8" COMMENT="" />
    <EXPORT ORDINAL="2844" NAME="?rfind@?$basic_string@DV?$char_traits@D@stlp_std@@V?$memtrack_allocator@D$0IMHGPCA@@2@@stlp_std@@QBEIABV12@I@Z" PURGE="8" COMMENT="" />
    <EXPORT ORDINAL="2845" NAME="?rfind@?$basic_string@DV?$char_traits@D@stlp_std@@V?$memtrack_allocator@D$0IMHGPCA@@2@@stlp_std@@QBEIDI@Z" PURGE="8" COMMENT="" />
    <EXPORT ORDINAL="2846" NAME="?rfind@?$basic_string@DV?$char_traits@D@stlp_std@@V?$memtrack_allocator@D$0IMHGPCA@@2@@stlp_std@@QBEIPBDI@Z" PURGE="8" COMMENT="" />
    <EXPORT ORDINAL="2847" NAME="?rfind@?$basic_string@DV?$char_traits@D@stlp_std@@V?$memtrack_allocator@D$0IMHGPCA@@2@@stlp_std@@QBEIPBDII@Z" PURGE="12" COMMENT="" />
    <EXPORT ORDINAL="2848" NAME="?rfind@?$basic_string@_WV?$char_traits@_W@stlp_std@@V?$memtrack_allocator@_W$0IMHGPCA@@2@@stlp_std@@QBEIABV12@I@Z" PURGE="8" COMMENT="" />
    <EXPORT ORDINAL="2849" NAME="?rfind@?$basic_string@_WV?$char_traits@_W@stlp_std@@V?$memtrack_allocator@_W$0IMHGPCA@@2@@stlp_std@@QBEIPB_WI@Z" PURGE="8" COMMENT="" />
    <EXPORT ORDINAL="2850" NAME="?rfind@?$basic_string@_WV?$char_traits@_W@stlp_std@@V?$memtrack_allocator@_W$0IMHGPCA@@2@@stlp_std@@QBEIPB_WII@Z" PURGE="12" COMMENT="" />
    <EXPORT ORDINAL="2851" NAME="?rfind@?$basic_string@_WV?$char_traits@_W@stlp_std@@V?$memtrack_allocator@_W$0IMHGPCA@@2@@stlp_std@@QBEI_WI@Z" PURGE="8" COMMENT="" />
    <EXPORT ORDINAL="2852" NAME="?rotate2D@cMath@Orc@@SAXAAUD3DXVECTOR3@@M@Z" PURGE="0" COMMENT="" />
    <EXPORT ORDINAL="2853" NAME="?rsqrt@cMath@Orc@@2P6AMM@ZA" PURGE="-1" COMMENT="" />
    <EXPORT ORDINAL="2854" NAME="?rsqrt_base@cMath@Orc@@CAMM@Z" PURGE="0" COMMENT="" />
    <EXPORT ORDINAL="2855" NAME="?rsqrt_q3@cMath@Orc@@CAMM@Z" PURGE="0" COMMENT="" />
    <EXPORT ORDINAL="2856" NAME="?rsqrt_sse@cMath@Orc@@CAMM@Z" PURGE="0" COMMENT="" />
    <EXPORT ORDINAL="2857" NAME="?run@Root@Orc@@QAEXXZ" PURGE="0" COMMENT="" />
    <EXPORT ORDINAL="2858" NAME="?runThread@iQueuedThread@Orc@@UAE?AW4eThreadStatus@2@M@Z" PURGE="4" COMMENT="" />
    <EXPORT ORDINAL="2859" NAME="?runThread@iThread@Orc@@UAE?AW4eThreadStatus@2@M@Z" PURGE="4" COMMENT="" />
    <EXPORT ORDINAL="2860" NAME="?sample@TimerCycle@Orc@@QAEXXZ" PURGE="0" COMMENT="" />
    <EXPORT ORDINAL="2861" NAME="?saturate@cMath@Orc@@SAMM@Z" PURGE="0" COMMENT="" />
    <EXPORT ORDINAL="2862" NAME="?save@ConfigFile@Orc@@QAEXXZ" PURGE="0" COMMENT="" />
    <EXPORT ORDINAL="2863" NAME="?save@_sFile_chunk@Orc@@QBEIAAVcFile@2@@Z" PURGE="4" COMMENT="" />
    <EXPORT ORDINAL="2864" NAME="?save@_sHeader@Orc@@QBEIAAVcFile@2@@Z" PURGE="4" COMMENT="" />
    <EXPORT ORDINAL="2865" NAME="?save@cIO_bmp@Orc@@UAE_NAAVcFile@2@AAVcImage@2@I@Z" PURGE="12" COMMENT="" />
    <EXPORT ORDINAL="2866" NAME="?save@cIO_dds@Orc@@UAE_NAAVcFile@2@AAVcImage@2@I@Z" PURGE="12" COMMENT="" />
    <EXPORT ORDINAL="2867" NAME="?save@cIO_ico@Orc@@UAE_NAAVcFile@2@AAVcImage@2@I@Z" PURGE="12" COMMENT="" />
    <EXPORT ORDINAL="2868" NAME="?save@cIO_jpg@Orc@@UAE_NAAVcFile@2@AAVcImage@2@I@Z" PURGE="12" COMMENT="" />
    <EXPORT ORDINAL="2869" NAME="?save@cIO_pcx@Orc@@UAE_NAAVcFile@2@AAVcImage@2@I@Z" PURGE="12" COMMENT="" />
    <EXPORT ORDINAL="2870" NAME="?save@cIO_tga@Orc@@UAE_NAAVcFile@2@AAVcImage@2@I@Z" PURGE="12" COMMENT="" />
    <EXPORT ORDINAL="2871" NAME="?saveAnim@MD5Loader@Orc@@QAEXPBDAAVMD5Anim@2@@Z" PURGE="8" COMMENT="" />
    <EXPORT ORDINAL="2872" NAME="?saveConfig@Root@Orc@@QAEXXZ" PURGE="0" COMMENT="" />
    <EXPORT ORDINAL="2873" NAME="?saveEx@iImageIO@Orc@@UAE_NABVString@2@AAVcImage@2@I@Z" PURGE="12" COMMENT="" />
    <EXPORT ORDINAL="2874" NAME="?saveJascPal@cPalette@Orc@@QAE_NPBD@Z" PURGE="4" COMMENT="" />
    <EXPORT ORDINAL="2875" NAME="?saveModel@MD5Loader@Orc@@QAEXPBDAAVMD5Mesh@2@@Z" PURGE="8" COMMENT="" />
    <EXPORT ORDINAL="2876" NAME="?saveMsPal@cPalette@Orc@@QAE_NPBD@Z" PURGE="4" COMMENT="" />
    <EXPORT ORDINAL="2877" NAME="?saveScript@ParticleSystemMgr@Orc@@QAE_NABVString@2@@Z" PURGE="4" COMMENT="" />
    <EXPORT ORDINAL="2878" NAME="?saveScriptDirectory@ParticleSystemMgr@Orc@@QAE_NABVString@2@_N@Z" PURGE="8" COMMENT="" />
    <EXPORT ORDINAL="2879" NAME="?saveScript_intern@ParticleSystemMgr@Orc@@AAE_NAAVString@2@AAVParticleSystem@2@@Z" PURGE="8" COMMENT="" />
    <EXPORT ORDINAL="2880" NAME="?save_type_bw@cIO_bmp@Orc@@AAE_NAAVcFile@2@AAVcImage@2@@Z" PURGE="8" COMMENT="" />
    <EXPORT ORDINAL="2881" NAME="?save_type_rgb@cIO_bmp@Orc@@AAE_NAAVcFile@2@AAVcImage@2@@Z" PURGE="8" COMMENT="" />
    <EXPORT ORDINAL="2882" NAME="?save_type_rle8@cIO_bmp@Orc@@AAE_NAAVcFile@2@AAVcImage@2@@Z" PURGE="8" COMMENT="" />
    <EXPORT ORDINAL="2883" NAME="?seed@RandPseudo@Orc@@QAEXI@Z" PURGE="4" COMMENT="" />
    <EXPORT ORDINAL="2884" NAME="?seed@RandPseudoOld@Orc@@QAEXJ@Z" PURGE="4" COMMENT="" />
    <EXPORT ORDINAL="2885" NAME="?seed@cMersenneTwister@Orc@@QAEXI@Z" PURGE="4" COMMENT="" />
    <EXPORT ORDINAL="2886" NAME="?seed@cRand@Orc@@SAXI@Z" PURGE="0" COMMENT="" />
    <EXPORT ORDINAL="2887" NAME="?seed@cRandMsvc@Orc@@QAEXI@Z" PURGE="4" COMMENT="" />
    <EXPORT ORDINAL="2888" NAME="?seek@cFileBit@Orc@@UAEII@Z" PURGE="4" COMMENT="" />
    <EXPORT ORDINAL="2889" NAME="?seek@cFileBitOld@Orc@@UAEII@Z" PURGE="4" COMMENT="" />
    <EXPORT ORDINAL="2890" NAME="?seek@cFileCached@Orc@@UAEII@Z" PURGE="4" COMMENT="" />
    <EXPORT ORDINAL="2891" NAME="?seek@cFileDisk@Orc@@UAEII@Z" PURGE="4" COMMENT="" />
    <EXPORT ORDINAL="2892" NAME="?seek@cFileMem@Orc@@UAEII@Z" PURGE="4" COMMENT="" />
    <EXPORT ORDINAL="2893" NAME="?set3DStereo@iSoundSource@Orc@@QAEXXZ" PURGE="0" COMMENT="" />
    <EXPORT ORDINAL="2894" NAME="?set3DSubwoofer@iSoundSource@Orc@@QAEXXZ" PURGE="0" COMMENT="" />
    <EXPORT ORDINAL="2895" NAME="?set51Sound@iSoundSource@Orc@@QAEXXZ" PURGE="0" COMMENT="" />
    <EXPORT ORDINAL="2896" NAME="?set@Breakpoint@Orc@@QAE_NPAXHW4Condition@12@@Z" PURGE="12" COMMENT="" />
    <EXPORT ORDINAL="2897" NAME="?set@BuildDate@Orc@@QAEXPBD0@Z" PURGE="8" COMMENT="" />
    <EXPORT ORDINAL="2898" NAME="?set@BuildVersion@Orc@@QAEXEEEPBD@Z" PURGE="16" COMMENT="" />
    <EXPORT ORDINAL="2899" NAME="?set@cFileMem@Orc@@QAE_NIPBE@Z" PURGE="8" COMMENT="" />
    <EXPORT ORDINAL="2900" NAME="?set@cRectRay@Orc@@QAEXABUD3DXVECTOR3@@000@Z" PURGE="16" COMMENT="" />
    <EXPORT ORDINAL="2901" NAME="?set@cRectRay@Orc@@QAEXABUD3DXVECTOR3@@000M@Z" PURGE="20" COMMENT="" />
    <EXPORT ORDINAL="2902" NAME="?set@cRectangle@Orc@@QAEXMMMM@Z" PURGE="16" COMMENT="" />
    <EXPORT ORDINAL="2903" NAME="?setActualVolume@iSoundChannel@Orc@@UAEXM@Z" PURGE="4" COMMENT="" />
    <EXPORT ORDINAL="2904" NAME="?setAffecting@ParticleSystem@Orc@@QAEX_N@Z" PURGE="4" COMMENT="" />
    <EXPORT ORDINAL="2905" NAME="?setAngle@ParticleEmitter@Orc@@UAEXM@Z" PURGE="4" COMMENT="" />
    <EXPORT ORDINAL="2906" NAME="?setAngleMax@ParticleEmitter@Orc@@UAEXM@Z" PURGE="4" COMMENT="" />
    <EXPORT ORDINAL="2907" NAME="?setAnimFrames@ParticleEmitter@Orc@@UAEXE@Z" PURGE="4" COMMENT="" />
    <EXPORT ORDINAL="2908" NAME="?setAnimSpeed@ParticleEmitter@Orc@@UAEXM@Z" PURGE="4" COMMENT="" />
    <EXPORT ORDINAL="2909" NAME="?setArchiveExternals@cArchiveContainer@Orc@@QAEX_N@Z" PURGE="4" COMMENT="" />
    <EXPORT ORDINAL="2910" NAME="?setAsActiveFont@Win32Font@Orc@@QAEXPAUHDC__@@@Z" PURGE="4" COMMENT="" />
    <EXPORT ORDINAL="2911" NAME="?setAutoCalculate@cSplineCR@Orc@@QAEX_N@Z" PURGE="4" COMMENT="" />
    <EXPORT ORDINAL="2912" NAME="?setBackgroundBehave@Root@Orc@@QAEX_N@Z" PURGE="4" COMMENT="" />
    <EXPORT ORDINAL="2913" NAME="?setBaseLocation@cBoundingCylinder@Orc@@QAEXAAUD3DXVECTOR3@@@Z" PURGE="4" COMMENT="" />
    <EXPORT ORDINAL="2914" NAME="?setBits@Breakpoint@Orc@@IAEXAAKHHH@Z" PURGE="16" COMMENT="" />
    <EXPORT ORDINAL="2915" NAME="?setBound@ParticleSystem@Orc@@QAEX_N@Z" PURGE="4" COMMENT="" />
    <EXPORT ORDINAL="2916" NAME="?setBoundExpo@ParticleSystem@Orc@@QAEXM@Z" PURGE="4" COMMENT="" />
    <EXPORT ORDINAL="2917" NAME="?setBrightness@Particle@Orc@@QAEXM@Z" PURGE="4" COMMENT="" />
    <EXPORT ORDINAL="2918" NAME="?setBrightness@ParticleEmitter@Orc@@UAEXM@Z" PURGE="4" COMMENT="" />
    <EXPORT ORDINAL="2919" NAME="?setBufferedInput@InputReader@Orc@@UAEX_N0@Z" PURGE="8" COMMENT="" />
    <EXPORT ORDINAL="2920" NAME="?setCallback@Log@Orc@@QAEXP6AXABVString@2@@Z@Z" PURGE="4" COMMENT="" />
    <EXPORT ORDINAL="2921" NAME="?setCallbackFilter@Log@Orc@@QAEXABVString@2@@Z" PURGE="4" COMMENT="" />
    <EXPORT ORDINAL="2922" NAME="?setCallbackFilter@LogManager@Orc@@QAEXABVString@2@@Z" PURGE="4" COMMENT="" />
    <EXPORT ORDINAL="2923" NAME="?setCameraListener@iSoundSystem@Orc@@UAEXABUD3DXVECTOR3@@00@Z" PURGE="12" COMMENT="" />
    <EXPORT ORDINAL="2924" NAME="?setCanvas@cImage@Orc@@QAEIABVcPixelFormat@2@GGGPAVcPalette@2@@Z" PURGE="20" COMMENT="" />
    <EXPORT ORDINAL="2925" NAME="?setCanvas@cImage@Orc@@QAEIABVcPixelFormat@2@GGPAVcPalette@2@@Z" PURGE="16" COMMENT="" />
    <EXPORT ORDINAL="2926" NAME="?setCenterOnly@iSoundSource@Orc@@QAEXXZ" PURGE="0" COMMENT="" />
    <EXPORT ORDINAL="2927" NAME="?setCentered@ParticleEmitter@Orc@@UAEX_N@Z" PURGE="4" COMMENT="" />
    <EXPORT ORDINAL="2928" NAME="?setChannelInited@iSoundChannel@Orc@@QAEXXZ" PURGE="0" COMMENT="" />
    <EXPORT ORDINAL="2929" NAME="?setCompanionData@iSoundSource@Orc@@QAEXPAEI@Z" PURGE="8" COMMENT="" />
    <EXPORT ORDINAL="2930" NAME="?setCompanionName@iSoundSource@Orc@@QAEXPBD@Z" PURGE="4" COMMENT="" />
    <EXPORT ORDINAL="2931" NAME="?setConeData@sSoundCone@Orc@@QAEXMMI@Z" PURGE="12" COMMENT="" />
    <EXPORT ORDINAL="2932" NAME="?setConeData@sSoundParams@Orc@@QAEXMMI@Z" PURGE="12" COMMENT="" />
    <EXPORT ORDINAL="2933" NAME="?setConfigurable@ConsoleVar@Orc@@QAE_NABVString@2@0@Z" PURGE="8" COMMENT="" />
    <EXPORT ORDINAL="2934" NAME="?setCurrentFrame@Particle@Orc@@QAEXE@Z" PURGE="4" COMMENT="" />
    <EXPORT ORDINAL="2935" NAME="?setCurrentTimeMS@iSoundSource@Orc@@QAEXI@Z" PURGE="4" COMMENT="" />
    <EXPORT ORDINAL="2936" NAME="?setCustomFlag@iSoundChannel@Orc@@AAEXXZ" PURGE="0" COMMENT="" />
    <EXPORT ORDINAL="2937" NAME="?setCustomFlag@iSoundSource@Orc@@QAEXXZ" PURGE="0" COMMENT="" />
    <EXPORT ORDINAL="2938" NAME="?setData@iSoundSource@Orc@@QAEXPAEI@Z" PURGE="8" COMMENT="" />
    <EXPORT ORDINAL="2939" NAME="?setDataExclusive@iSoundSource@Orc@@QAEXPAEI@Z" PURGE="8" COMMENT="" />
    <EXPORT ORDINAL="2940" NAME="?setDefaultCallback@LogManager@Orc@@QAEXP6AXABVString@2@@Z@Z" PURGE="4" COMMENT="" />
    <EXPORT ORDINAL="2941" NAME="?setDefaultGrayscale@cPalette@Orc@@QAEXXZ" PURGE="0" COMMENT="" />
    <EXPORT ORDINAL="2942" NAME="?setDefaultListener@iSoundSystem@Orc@@MAEXXZ" PURGE="0" COMMENT="" />
    <EXPORT ORDINAL="2943" NAME="?setDirection@ParticleEmitter@Orc@@UAEXABUD3DXVECTOR3@@@Z" PURGE="4" COMMENT="" />
    <EXPORT ORDINAL="2944" NAME="?setDirection@cBoxRay@Orc@@QAEXABUD3DXVECTOR3@@@Z" PURGE="4" COMMENT="" />
    <EXPORT ORDINAL="2945" NAME="?setDirection@cRay@Orc@@QAEXABUD3DXVECTOR3@@@Z" PURGE="4" COMMENT="" />
    <EXPORT ORDINAL="2946" NAME="?setDucking@iSoundChannel@Orc@@QAEXXZ" PURGE="0" COMMENT="" />
    <EXPORT ORDINAL="2947" NAME="?setDuckingLowPass@iSoundSource@Orc@@QAEXXZ" PURGE="0" COMMENT="" />
    <EXPORT ORDINAL="2948" NAME="?setDuration@ParticleEmitter@Orc@@UAEXM@Z" PURGE="4" COMMENT="" />
    <EXPORT ORDINAL="2949" NAME="?setDuration@ParticleEmitter@Orc@@UAEXMM@Z" PURGE="8" COMMENT="" />
    <EXPORT ORDINAL="2950" NAME="?setEOFReached@iSoundClip@Orc@@QAEXXZ" PURGE="0" COMMENT="" />
    <EXPORT ORDINAL="2951" NAME="?setEditorScriptModified@ParticleSystem@Orc@@QAEXXZ" PURGE="0" COMMENT="" />
    <EXPORT ORDINAL="2952" NAME="?setEmissionAngle@ParticleEmitter@Orc@@UAEXM@Z" PURGE="4" COMMENT="" />
    <EXPORT ORDINAL="2953" NAME="?setEmissionAngleMin@ParticleEmitter@Orc@@UAEXM@Z" PURGE="4" COMMENT="" />
    <EXPORT ORDINAL="2954" NAME="?setEmissionRate@ParticleEmitter@Orc@@UAEXM@Z" PURGE="4" COMMENT="" />
    <EXPORT ORDINAL="2955" NAME="?setEmitAndDisable@ParticleEmitter@Orc@@UAEX_N@Z" PURGE="4" COMMENT="" />
    <EXPORT ORDINAL="2956" NAME="?setEmitterData@ParticleEmitter@Orc@@UAEXPBVMemBlk@@@Z" PURGE="4" COMMENT="" />
    <EXPORT ORDINAL="2957" NAME="?setEmitterData@ParticleSystem@Orc@@QAEXPBVMemBlk@@@Z" PURGE="4" COMMENT="" />
    <EXPORT ORDINAL="2958" NAME="?setEmitting@ParticleSystem@Orc@@QAEX_N@Z" PURGE="4" COMMENT="" />
    <EXPORT ORDINAL="2959" NAME="?setEnabled@ParticleEmitter@Orc@@UAEX_N@Z" PURGE="4" COMMENT="" />
    <EXPORT ORDINAL="2960" NAME="?setEntry@cPalette@Orc@@QAEXGEEE@Z" PURGE="16" COMMENT="" />
    <EXPORT ORDINAL="2961" NAME="?setExtents@cBoundingBox@Orc@@QAEXABUD3DXVECTOR3@@0@Z" PURGE="8" COMMENT="" />
    <EXPORT ORDINAL="2962" NAME="?setExtents@cBoundingBox@Orc@@QAEXMMMMMM@Z" PURGE="24" COMMENT="" />
    <EXPORT ORDINAL="2963" NAME="?setExtents@cBoundingBoxAA@Orc@@QAEXABUD3DXVECTOR3@@0@Z" PURGE="8" COMMENT="" />
    <EXPORT ORDINAL="2964" NAME="?setFadeInTimeMS@iSoundSource@Orc@@QAEXG@Z" PURGE="4" COMMENT="" />
    <EXPORT ORDINAL="2965" NAME="?setFallbackName@iSoundSource@Orc@@QAEXPBD@Z" PURGE="4" COMMENT="" />
    <EXPORT ORDINAL="2966" NAME="?setFinished@iSoundChannel@Orc@@QAEXXZ" PURGE="0" COMMENT="" />
    <EXPORT ORDINAL="2967" NAME="?setForceImmediate@QueuedTaskMgr@Orc@@QAEX_N@Z" PURGE="4" COMMENT="" />
    <EXPORT ORDINAL="2968" NAME="?setFormat@cPixelFormat@Orc@@AAEXHIIII@Z" PURGE="20" COMMENT="" />
    <EXPORT ORDINAL="2969" NAME="?setFormat@cPixelFormat@Orc@@QAE_NW4ePixelFormat@12@@Z" PURGE="4" COMMENT="" />
    <EXPORT ORDINAL="2970" NAME="?setFrameSmoothingPeriod@Root@Orc@@QAEXM@Z" PURGE="4" COMMENT="" />
    <EXPORT ORDINAL="2971" NAME="?setFreezeMouse@InputReader@Orc@@QAEX_N@Z" PURGE="4" COMMENT="" />
    <EXPORT ORDINAL="2972" NAME="?setFrontLeftOnly@iSoundSource@Orc@@QAEXXZ" PURGE="0" COMMENT="" />
    <EXPORT ORDINAL="2973" NAME="?setFrontRightOnly@iSoundSource@Orc@@QAEXXZ" PURGE="0" COMMENT="" />
    <EXPORT ORDINAL="2974" NAME="?setGroupVolume@iSoundSystem@Orc@@UAEXIM@Z" PURGE="8" COMMENT="" />
    <EXPORT ORDINAL="2975" NAME="?setHeight@cBoundingCylinder@Orc@@QAEXM@Z" PURGE="4" COMMENT="" />
    <EXPORT ORDINAL="2976" NAME="?setHoldTime@InputReader@Orc@@QAEXM@Z" PURGE="4" COMMENT="" />
    <EXPORT ORDINAL="2977" NAME="?setIgnoreRotation@ParticleSystem@Orc@@QAEX_N@Z" PURGE="4" COMMENT="" />
    <EXPORT ORDINAL="2978" NAME="?setImage@cImage@Orc@@QAEIABVcPixelFormat@2@AAV12@@Z" PURGE="8" COMMENT="" />
    <EXPORT ORDINAL="2979" NAME="?setInnerAngle@sSoundCone@Orc@@QAEXM@Z" PURGE="4" COMMENT="" />
    <EXPORT ORDINAL="2980" NAME="?setInputDevice@Root@Orc@@QAEXPAVInputReader@2@@Z" PURGE="4" COMMENT="" />
    <EXPORT ORDINAL="2981" NAME="?setIntense@ParticleEmitter@Orc@@UAEX_N@Z" PURGE="4" COMMENT="" />
    <EXPORT ORDINAL="2982" NAME="?setInternals@cArchiveContainer@Orc@@SAPAViArchive@2@ABVString@2@0@Z" PURGE="0" COMMENT="" />
    <EXPORT ORDINAL="2983" NAME="?setLFEOnly@iSoundSource@Orc@@QAEXXZ" PURGE="0" COMMENT="" />
    <EXPORT ORDINAL="2984" NAME="?setLanguageTrack@iMovie@Orc@@SAXI@Z" PURGE="0" COMMENT="" />
    <EXPORT ORDINAL="2985" NAME="?setListener@iSoundSystem@Orc@@UAEXABUD3DXVECTOR3@@00@Z" PURGE="12" COMMENT="" />
    <EXPORT ORDINAL="2986" NAME="?setListenerMode@iSoundSystem@Orc@@UAEXW4eListenerMode@2@@Z" PURGE="4" COMMENT="" />
    <EXPORT ORDINAL="2987" NAME="?setListenerOrientation@iSoundSystem@Orc@@MAEXABUD3DXVECTOR3@@0@Z" PURGE="8" COMMENT="" />
    <EXPORT ORDINAL="2988" NAME="?setListenerPosition@iSoundSystem@Orc@@MAEXABUD3DXVECTOR3@@@Z" PURGE="4" COMMENT="" />
    <EXPORT ORDINAL="2989" NAME="?setListenerRoom@iSoundSystem@Orc@@UAE_NW4eListenerRoom@2@_N@Z" PURGE="8" COMMENT="" />
    <EXPORT ORDINAL="2990" NAME="?setLocalDucking@iSoundSource@Orc@@QAEXXZ" PURGE="0" COMMENT="" />
    <EXPORT ORDINAL="2991" NAME="?setLockRect@InputReader@Orc@@QAEXHHHH@Z" PURGE="16" COMMENT="" />
    <EXPORT ORDINAL="2992" NAME="?setLogDetail@Log@Orc@@UAEXW4LoggingLevel@2@@Z" PURGE="4" COMMENT="" />
    <EXPORT ORDINAL="2993" NAME="?setLogDetail@LogManager@Orc@@QAEXW4LoggingLevel@2@@Z" PURGE="4" COMMENT="" />
    <EXPORT ORDINAL="2994" NAME="?setLowPassFiltering@iSoundSource@Orc@@QAEXXZ" PURGE="0" COMMENT="" />
    <EXPORT ORDINAL="2995" NAME="?setMP3Header@iSoundSource@Orc@@QAEXXZ" PURGE="0" COMMENT="" />
    <EXPORT ORDINAL="2996" NAME="?setMasterVolume@iSoundSystem@Orc@@UAEXM@Z" PURGE="4" COMMENT="" />
    <EXPORT ORDINAL="2997" NAME="?setMaterialName@ParticleEmitter@Orc@@QAEXABVString@2@@Z" PURGE="4" COMMENT="" />
    <EXPORT ORDINAL="2998" NAME="?setMaxDuration@ParticleEmitter@Orc@@UAEXM@Z" PURGE="-1" COMMENT="" />
    <EXPORT ORDINAL="2999" NAME="?setMaxFrameRate@Root@Orc@@QAEXI@Z" PURGE="4" COMMENT="" />
    <EXPORT ORDINAL="3000" NAME="?setMaxParticleVelocity@ParticleEmitter@Orc@@UAEXM@Z" PURGE="4" COMMENT="" />
    <EXPORT ORDINAL="3001" NAME="?setMaxRepeatDelay@ParticleEmitter@Orc@@UAEXM@Z" PURGE="4" COMMENT="" />
    <EXPORT ORDINAL="3002" NAME="?setMaxStartDelay@ParticleEmitter@Orc@@UAEXM@Z" PURGE="4" COMMENT="" />
    <EXPORT ORDINAL="3003" NAME="?setMaxTimeToLive@ParticleEmitter@Orc@@UAEXM@Z" PURGE="4" COMMENT="" />
    <EXPORT ORDINAL="3004" NAME="?setMemoryBudget@cResourceManager@Orc@@UAEXI@Z" PURGE="4" COMMENT="" />
    <EXPORT ORDINAL="3005" NAME="?setMinDuration@ParticleEmitter@Orc@@UAEXM@Z" PURGE="-1" COMMENT="" />
    <EXPORT ORDINAL="3006" NAME="?setMinMax@cBoundingBoxAA@Orc@@QAEXABUD3DXVECTOR3@@0@Z" PURGE="8" COMMENT="" />
    <EXPORT ORDINAL="3007" NAME="?setMinMax@cBoundingBoxAA@Orc@@QAEXABUD3DXVECTOR4@@0@Z" PURGE="8" COMMENT="" />
    <EXPORT ORDINAL="3008" NAME="?setMinMax@cBoundingBoxAA@Orc@@QAEXMMMMMM@Z" PURGE="24" COMMENT="" />
    <EXPORT ORDINAL="3009" NAME="?setMinParticleVelocity@ParticleEmitter@Orc@@UAEXM@Z" PURGE="4" COMMENT="" />
    <EXPORT ORDINAL="3010" NAME="?setMinRepeatDelay@ParticleEmitter@Orc@@UAEXM@Z" PURGE="4" COMMENT="" />
    <EXPORT ORDINAL="3011" NAME="?setMinStartDelay@ParticleEmitter@Orc@@UAEXM@Z" PURGE="4" COMMENT="" />
    <EXPORT ORDINAL="3012" NAME="?setMinTimeToLive@ParticleEmitter@Orc@@UAEXM@Z" PURGE="4" COMMENT="" />
    <EXPORT ORDINAL="3013" NAME="?setMovieState@iMovie@Orc@@UAEXW4eMovieState@12@I@Z" PURGE="8" COMMENT="" />
    <EXPORT ORDINAL="3014" NAME="?setMultiChannelClip@iSoundClip@Orc@@QAEXXZ" PURGE="0" COMMENT="" />
    <EXPORT ORDINAL="3015" NAME="?setMultiClickTime@InputReader@Orc@@QAEXM@Z" PURGE="4" COMMENT="" />
    <EXPORT ORDINAL="3016" NAME="?setMuteOnOff@iSoundSystem@Orc@@UAEX_N@Z" PURGE="4" COMMENT="" />
    <EXPORT ORDINAL="3017" NAME="?setName@ParticleSystem@Orc@@QAEXABVString@2@@Z" PURGE="4" COMMENT="" />
    <EXPORT ORDINAL="3018" NAME="?setName@cResource@Orc@@IAEXABVString@2@@Z" PURGE="4" COMMENT="" />
    <EXPORT ORDINAL="3019" NAME="?setName@cResourceManager@Orc@@QAEXABVString@2@@Z" PURGE="4" COMMENT="" />
    <EXPORT ORDINAL="3020" NAME="?setNumChannels@iSoundChannel@Orc@@QAEXE@Z" PURGE="4" COMMENT="" />
    <EXPORT ORDINAL="3021" NAME="?setNumChannels@iSoundSource@Orc@@QAEXE@Z" PURGE="4" COMMENT="" />
    <EXPORT ORDINAL="3022" NAME="?setOGGHeader@iSoundSource@Orc@@QAEXXZ" PURGE="0" COMMENT="" />
    <EXPORT ORDINAL="3023" NAME="?setOnEmitter@ParticleAffector@Orc@@UAEXE@Z" PURGE="4" COMMENT="" />
    <EXPORT ORDINAL="3024" NAME="?setOrigin@cBoxRay@Orc@@QAEXABUD3DXVECTOR3@@@Z" PURGE="4" COMMENT="" />
    <EXPORT ORDINAL="3025" NAME="?setOrigin@cRay@Orc@@QAEXABUD3DXVECTOR3@@@Z" PURGE="4" COMMENT="" />
    <EXPORT ORDINAL="3026" NAME="?setOutOfConeVol@sSoundCone@Orc@@QAEXI@Z" PURGE="4" COMMENT="" />
    <EXPORT ORDINAL="3027" NAME="?setOuterAngle@sSoundCone@Orc@@QAEXM@Z" PURGE="4" COMMENT="" />
    <EXPORT ORDINAL="3028" NAME="?setPalette@cImage@Orc@@QAEXABVcPalette@2@@Z" PURGE="4" COMMENT="" />
    <EXPORT ORDINAL="3029" NAME="?setPalette@cPalette@Orc@@QAEXQAE@Z" PURGE="4" COMMENT="" />
    <EXPORT ORDINAL="3030" NAME="?setPalette@cPalette@Orc@@QAEXQAY02E@Z" PURGE="4" COMMENT="" />
    <EXPORT ORDINAL="3031" NAME="?setParamChanged@iSoundSource@Orc@@QAEXXZ" PURGE="0" COMMENT="" />
    <EXPORT ORDINAL="3032" NAME="?setParameter@ParticleSystem@Orc@@UAE_NABVString@2@0@Z" PURGE="8" COMMENT="" />
    <EXPORT ORDINAL="3033" NAME="?setParameter@StringInterface@Orc@@UAE_NABVString@2@0@Z" PURGE="8" COMMENT="" />
    <EXPORT ORDINAL="3034" NAME="?setParams@iSoundChannel@Orc@@UAE_NXZ" PURGE="0" COMMENT="" />
    <EXPORT ORDINAL="3035" NAME="?setParticleEmitterCallback@ParticleEmitter@Orc@@UAEXPAVParticleEmitterCallback@2@@Z" PURGE="4" COMMENT="" />
    <EXPORT ORDINAL="3036" NAME="?setParticleQuota@ParticleSystem@Orc@@QAEXI@Z" PURGE="4" COMMENT="" />
    <EXPORT ORDINAL="3037" NAME="?setParticleVelocity@ParticleEmitter@Orc@@UAEXM@Z" PURGE="4" COMMENT="" />
    <EXPORT ORDINAL="3038" NAME="?setParticleVelocity@ParticleEmitter@Orc@@UAEXMM@Z" PURGE="8" COMMENT="" />
    <EXPORT ORDINAL="3039" NAME="?setPause@iSoundChannel@Orc@@UAEX_N0@Z" PURGE="8" COMMENT="" />
    <EXPORT ORDINAL="3040" NAME="?setPause@iSoundClip@Orc@@UAEX_N0@Z" PURGE="8" COMMENT="" />
    <EXPORT ORDINAL="3041" NAME="?setPause@iSoundSystem@Orc@@UAEX_N@Z" PURGE="4" COMMENT="" />
    <EXPORT ORDINAL="3042" NAME="?setPause@iSoundVorbis@Orc@@UAEX_N0@Z" PURGE="8" COMMENT="" />
    <EXPORT ORDINAL="3043" NAME="?setPerspective@ParticleEmitter@Orc@@UAEX_N@Z" PURGE="4" COMMENT="" />
    <EXPORT ORDINAL="3044" NAME="?setPitchFactor@iSoundSource@Orc@@QAEXM@Z" PURGE="4" COMMENT="" />
    <EXPORT ORDINAL="3045" NAME="?setPitchVariation@iSoundSource@Orc@@QAEXE@Z" PURGE="4" COMMENT="" />
    <EXPORT ORDINAL="3046" NAME="?setPixel@cImage@Orc@@QAEXIIUColor@2@@Z" PURGE="12" COMMENT="" />
    <EXPORT ORDINAL="3047" NAME="?setPixelPal@cImage@Orc@@QAEXIIH@Z" PURGE="12" COMMENT="" />
    <EXPORT ORDINAL="3048" NAME="?setPlayOnPause@iSoundSource@Orc@@QAEXXZ" PURGE="0" COMMENT="" />
    <EXPORT ORDINAL="3049" NAME="?setPlaying@iSoundChannel@Orc@@QAEXXZ" PURGE="0" COMMENT="" />
    <EXPORT ORDINAL="3050" NAME="?setPlaying@iSoundSource@Orc@@QAEXXZ" PURGE="0" COMMENT="" />
    <EXPORT ORDINAL="3051" NAME="?setPosition@ParticleEmitter@Orc@@UAEXABUD3DXVECTOR3@@@Z" PURGE="4" COMMENT="" />
    <EXPORT ORDINAL="3052" NAME="?setPosition@cRectangle@Orc@@QAEXMM@Z" PURGE="8" COMMENT="" />
    <EXPORT ORDINAL="3053" NAME="?setPosition@iSoundChannel@Orc@@UAE_NABUD3DXVECTOR3@@@Z" PURGE="4" COMMENT="" />
    <EXPORT ORDINAL="3054" NAME="?setPosition@iSoundSource@Orc@@QAEXUD3DXVECTOR3@@@Z" PURGE="12" COMMENT="" />
    <EXPORT ORDINAL="3055" NAME="?setPriority@iSoundChannel@Orc@@AAEXW4ePriority@2@@Z" PURGE="4" COMMENT="" />
    <EXPORT ORDINAL="3056" NAME="?setPriorityWait@iSoundSource@Orc@@QAEXXZ" PURGE="0" COMMENT="" />
    <EXPORT ORDINAL="3057" NAME="?setProcessorAffinity@iThread@Orc@@UAEXI@Z" PURGE="4" COMMENT="" />
    <EXPORT ORDINAL="3058" NAME="?setRadius@cBoundingCylinder@Orc@@QAEXM@Z" PURGE="4" COMMENT="" />
    <EXPORT ORDINAL="3059" NAME="?setRay@cRectRayHitTest@Orc@@QAEXABVcRectRay@2@@Z" PURGE="4" COMMENT="" />
    <EXPORT ORDINAL="3060" NAME="?setRearLeftOnly@iSoundSource@Orc@@QAEXXZ" PURGE="0" COMMENT="" />
    <EXPORT ORDINAL="3061" NAME="?setRearRightOnly@iSoundSource@Orc@@QAEXXZ" PURGE="0" COMMENT="" />
    <EXPORT ORDINAL="3062" NAME="?setRenderSystem@Root@Orc@@QAEXPAVRenderSystem@2@@Z" PURGE="4" COMMENT="" />
    <EXPORT ORDINAL="3063" NAME="?setRepeatDelay@ParticleEmitter@Orc@@UAEXM@Z" PURGE="4" COMMENT="" />
    <EXPORT ORDINAL="3064" NAME="?setRepeatDelay@ParticleEmitter@Orc@@UAEXMM@Z" PURGE="8" COMMENT="" />
    <EXPORT ORDINAL="3065" NAME="?setResourceManagerCompanionID@iSoundSource@Orc@@QAEXI@Z" PURGE="4" COMMENT="" />
    <EXPORT ORDINAL="3066" NAME="?setResourceManagerID@iSoundSource@Orc@@QAEXI@Z" PURGE="4" COMMENT="" />
    <EXPORT ORDINAL="3067" NAME="?setResourceName@iSoundSource@Orc@@QAEXPBD@Z" PURGE="4" COMMENT="" />
    <EXPORT ORDINAL="3068" NAME="?setResourceProfileID@iSoundSource@Orc@@QAEXI@Z" PURGE="4" COMMENT="" />
    <EXPORT ORDINAL="3069" NAME="?setRotation@Particle@Orc@@QAEXM@Z" PURGE="4" COMMENT="" />
    <EXPORT ORDINAL="3070" NAME="?setRotationSpeed@Particle@Orc@@QAEXM@Z" PURGE="4" COMMENT="" />
    <EXPORT ORDINAL="3071" NAME="?setSampleLengthMS@iSoundSource@Orc@@QAEXI@Z" PURGE="4" COMMENT="" />
    <EXPORT ORDINAL="3072" NAME="?setSamplerate@iSoundChannel@Orc@@AAEXG@Z" PURGE="4" COMMENT="" />
    <EXPORT ORDINAL="3073" NAME="?setSamplerate@iSoundSource@Orc@@QAEXG@Z" PURGE="4" COMMENT="" />
    <EXPORT ORDINAL="3074" NAME="?setSetting@ConfigFile@Orc@@QAEXABVString@2@0@Z" PURGE="8" COMMENT="" />
    <EXPORT ORDINAL="3075" NAME="?setSetting@ConfigFile@Orc@@QAEXABVString@2@I@Z" PURGE="8" COMMENT="" />
    <EXPORT ORDINAL="3076" NAME="?setSize@Particle@Orc@@QAEXM@Z" PURGE="4" COMMENT="" />
    <EXPORT ORDINAL="3077" NAME="?setSize@ParticleEmitter@Orc@@UAEXM@Z" PURGE="4" COMMENT="" />
    <EXPORT ORDINAL="3078" NAME="?setSize@cBoxRay@Orc@@QAEXM@Z" PURGE="4" COMMENT="" />
    <EXPORT ORDINAL="3079" NAME="?setSize@cRectangle@Orc@@QAEXMM@Z" PURGE="8" COMMENT="" />
    <EXPORT ORDINAL="3080" NAME="?setSizeMax@ParticleEmitter@Orc@@UAEXM@Z" PURGE="4" COMMENT="" />
    <EXPORT ORDINAL="3081" NAME="?setSleepTime@Root@Orc@@QAEXG@Z" PURGE="4" COMMENT="" />
    <EXPORT ORDINAL="3082" NAME="?setSoftParticles@ParticleSystem@Orc@@QAEX_N@Z" PURGE="4" COMMENT="" />
    <EXPORT ORDINAL="3083" NAME="?setSoundParams@iSoundSource@Orc@@QAEXUsSoundParams@2@_N@Z" PURGE="112" COMMENT="" />
    <EXPORT ORDINAL="3084" NAME="?setSoundSystem@iMovie@Orc@@SAXPAViSoundSystem@2@@Z" PURGE="0" COMMENT="" />
    <EXPORT ORDINAL="3085" NAME="?setSpeakerSettings@iSoundClip@Orc@@UAE_N_N00@Z" PURGE="12" COMMENT="" />
    <EXPORT ORDINAL="3086" NAME="?setSpeakerSettings@iSoundSystem@Orc@@UAE_NI_N00@Z" PURGE="16" COMMENT="" />
    <EXPORT ORDINAL="3087" NAME="?setSpeakerSettings@iSoundVorbis@Orc@@UAE_N_N00@Z" PURGE="12" COMMENT="" />
    <EXPORT ORDINAL="3088" NAME="?setStandAlone@iSoundVorbis@Orc@@QAEXXZ" PURGE="0" COMMENT="" />
    <EXPORT ORDINAL="3089" NAME="?setStartDelay@ParticleEmitter@Orc@@QAEXM@Z" PURGE="4" COMMENT="" />
    <EXPORT ORDINAL="3090" NAME="?setStopped@iSoundSource@Orc@@QAEXXZ" PURGE="0" COMMENT="" />
    <EXPORT ORDINAL="3091" NAME="?setStreakLength@ParticleEmitter@Orc@@UAEXABM@Z" PURGE="4" COMMENT="" />
    <EXPORT ORDINAL="3092" NAME="?setStreakSize@ParticleEmitter@Orc@@UAEXABM@Z" PURGE="4" COMMENT="" />
    <EXPORT ORDINAL="3093" NAME="?setStream@iSoundSource@Orc@@QAEXXZ" PURGE="0" COMMENT="" />
    <EXPORT ORDINAL="3094" NAME="?setStreamRequested@iSoundSource@Orc@@QAEXXZ" PURGE="0" COMMENT="" />
    <EXPORT ORDINAL="3095" NAME="?setStreamingEnabled@cArchiveContainer@Orc@@SAX_N@Z" PURGE="0" COMMENT="" />
    <EXPORT ORDINAL="3096" NAME="?setStreamingMgr@cArchiveContainer@Orc@@SAXPAViArchiveStreaming@2@@Z" PURGE="0" COMMENT="" />
    <EXPORT ORDINAL="3097" NAME="?setTangent@cSplineCR@Orc@@QAEXIABUD3DXVECTOR3@@@Z" PURGE="8" COMMENT="" />
    <EXPORT ORDINAL="3098" NAME="?setTargetListener@iSoundSystem@Orc@@UAEXABUD3DXVECTOR3@@00@Z" PURGE="12" COMMENT="" />
    <EXPORT ORDINAL="3099" NAME="?setTemplateName@ParticleSystem@Orc@@QAEXABVString@2@@Z" PURGE="4" COMMENT="" />
    <EXPORT ORDINAL="3100" NAME="?setThreadFinished@ThreadTask@Orc@@AAEXXZ" PURGE="0" COMMENT="" />
    <EXPORT ORDINAL="3101" NAME="?setThreadName@OsInfo@Orc@@SAXIPBD@Z" PURGE="0" COMMENT="" />
    <EXPORT ORDINAL="3102" NAME="?setThreadPriority@QueuedTaskMgr@Orc@@QAEXW4eThreadPriority@2@@Z" PURGE="4" COMMENT="" />
    <EXPORT ORDINAL="3103" NAME="?setThreadPriority@iThread@Orc@@UAEXW4eThreadPriority@2@@Z" PURGE="4" COMMENT="" />
    <EXPORT ORDINAL="3104" NAME="?setThreadSleep@ThreadTask@Orc@@QAEXI_N@Z" PURGE="8" COMMENT="" />
    <EXPORT ORDINAL="3105" NAME="?setThreadSleep@iThread@Orc@@UAEXI@Z" PURGE="4" COMMENT="" />
    <EXPORT ORDINAL="3106" NAME="?setTime@iSoundClip@Orc@@UAEXM@Z" PURGE="4" COMMENT="" />
    <EXPORT ORDINAL="3107" NAME="?setTime@iSoundVorbis@Orc@@UAEXM@Z" PURGE="4" COMMENT="" />
    <EXPORT ORDINAL="3108" NAME="?setTimeClamp@ParticleSystem@Orc@@QAEXMM@Z" PURGE="8" COMMENT="" />
    <EXPORT ORDINAL="3109" NAME="?setTimeClamp@Root@Orc@@QAEXMM@Z" PURGE="8" COMMENT="" />
    <EXPORT ORDINAL="3110" NAME="?setTimeConst@Root@Orc@@QAEXM@Z" PURGE="4" COMMENT="" />
    <EXPORT ORDINAL="3111" NAME="?setTimeFactor@ParticleSystemMgr@Orc@@QAEXM@Z" PURGE="4" COMMENT="" />
    <EXPORT ORDINAL="3112" NAME="?setTimeToLive@ParticleEmitter@Orc@@UAEXM@Z" PURGE="4" COMMENT="" />
    <EXPORT ORDINAL="3113" NAME="?setTimeToLive@ParticleEmitter@Orc@@UAEXMM@Z" PURGE="8" COMMENT="" />
    <EXPORT ORDINAL="3114" NAME="?setUniqueID@iSoundSource@Orc@@QAEXI@Z" PURGE="4" COMMENT="" />
    <EXPORT ORDINAL="3115" NAME="?setUp@cBoxRay@Orc@@QAEXABUD3DXVECTOR3@@@Z" PURGE="4" COMMENT="" />
    <EXPORT ORDINAL="3116" NAME="?setUserData@ParticleSystem@Orc@@QAEXI@Z" PURGE="4" COMMENT="" />
    <EXPORT ORDINAL="3117" NAME="?setVolChanged@iSoundChannel@Orc@@QAEXXZ" PURGE="0" COMMENT="" />
    <EXPORT ORDINAL="3118" NAME="?setVolChanged@iSoundSource@Orc@@QAEXXZ" PURGE="0" COMMENT="" />
    <EXPORT ORDINAL="3119" NAME="?setVolume1@iSoundChannel@Orc@@QAEXM@Z" PURGE="4" COMMENT="" />
    <EXPORT ORDINAL="3120" NAME="?setVolume1@iSoundClip@Orc@@UAEXM@Z" PURGE="4" COMMENT="" />
    <EXPORT ORDINAL="3121" NAME="?setVolume1@iSoundSource@Orc@@QAEXM@Z" PURGE="4" COMMENT="" />
    <EXPORT ORDINAL="3122" NAME="?setVolume1@iSoundVorbis@Orc@@UAEXM@Z" PURGE="4" COMMENT="" />
    <EXPORT ORDINAL="3123" NAME="?setVolume2@iSoundChannel@Orc@@QAEXM@Z" PURGE="4" COMMENT="" />
    <EXPORT ORDINAL="3124" NAME="?setVolume2@iSoundClip@Orc@@UAEXM@Z" PURGE="4" COMMENT="" />
    <EXPORT ORDINAL="3125" NAME="?setVolume2@iSoundSource@Orc@@QAEXM@Z" PURGE="4" COMMENT="" />
    <EXPORT ORDINAL="3126" NAME="?setVolume2@iSoundVorbis@Orc@@UAEXM@Z" PURGE="4" COMMENT="" />
    <EXPORT ORDINAL="3127" NAME="?setWAVHeader@iSoundSource@Orc@@QAEX_N@Z" PURGE="4" COMMENT="" />
    <EXPORT ORDINAL="3128" NAME="?setWaitForVerticalBlank@RenderSystem@Orc@@QAEX_N@Z" PURGE="4" COMMENT="" />
    <EXPORT ORDINAL="3129" NAME="?setWetVolume@iSoundSystem@Orc@@UAEXM@Z" PURGE="4" COMMENT="" />
    <EXPORT ORDINAL="3130" NAME="?setstopAfterFade@iSoundChannel@Orc@@QAEXXZ" PURGE="0" COMMENT="" />
    <EXPORT ORDINAL="3131" NAME="?setuplookups@cS3TC@Orc@@AAEXXZ" PURGE="0" COMMENT="" />
    <EXPORT ORDINAL="3132" NAME="?showConfigDialog@Root@Orc@@QAE_NXZ" PURGE="0" COMMENT="" />
    <EXPORT ORDINAL="3133" NAME="?shutdown@RenderSystem@Orc@@UAEXXZ" PURGE="0" COMMENT="" />
    <EXPORT ORDINAL="3134" NAME="?shutdown@Root@Orc@@QAEXXZ" PURGE="0" COMMENT="" />
    <EXPORT ORDINAL="3135" NAME="?shutdownSoundSystem@iSoundSystem@Orc@@UAE_NXZ" PURGE="0" COMMENT="" />
    <EXPORT ORDINAL="3136" NAME="?signal@cSignal@Orc@@QAEXXZ" PURGE="0" COMMENT="" />
    <EXPORT ORDINAL="3137" NAME="?signalMainThread@cCpuBinding@Orc@@SAXXZ" PURGE="0" COMMENT="" />
    <EXPORT ORDINAL="3138" NAME="?sin@cMath@Orc@@SAMM@Z" PURGE="0" COMMENT="" />
    <EXPORT ORDINAL="3139" NAME="?sincos@cMath@Orc@@2P6AXMPAM0@ZA" PURGE="-1" COMMENT="" />
    <EXPORT ORDINAL="3140" NAME="?sincos_asm@cMath@Orc@@CAXMPAM0@Z" PURGE="0" COMMENT="" />
    <EXPORT ORDINAL="3141" NAME="?sincos_base@cMath@Orc@@CAXMPAM0@Z" PURGE="0" COMMENT="" />
    <EXPORT ORDINAL="3142" NAME="?sincos_sse2@cMath@Orc@@CAXMPAM0@Z" PURGE="0" COMMENT="" />
    <EXPORT ORDINAL="3143" NAME="?sincos_sse@cMath@Orc@@CAXMPAM0@Z" PURGE="0" COMMENT="" />
    <EXPORT ORDINAL="3144" NAME="?singleStep@Breakpoint@Orc@@SA_NXZ" PURGE="0" COMMENT="" />
    <EXPORT ORDINAL="3145" NAME="?size3@cBoundingBoxAA@Orc@@QBE?AUD3DXVECTOR3@@XZ" PURGE="4" COMMENT="" />
    <EXPORT ORDINAL="3146" NAME="?size3@cOBB@Orc@@QBE?AUD3DXVECTOR3@@XZ" PURGE="4" COMMENT="" />
    <EXPORT ORDINAL="3147" NAME="?size4@cBoundingBoxAA@Orc@@QBE?AUD3DXVECTOR4@@XZ" PURGE="4" COMMENT="" />
    <EXPORT ORDINAL="3148" NAME="?size4@cOBB@Orc@@QBE?AUD3DXVECTOR4@@XZ" PURGE="4" COMMENT="" />
    <EXPORT ORDINAL="3149" NAME="?size@?$basic_string@DV?$char_traits@D@stlp_std@@V?$memtrack_allocator@D$0IMHGPCA@@2@@stlp_std@@QBEIXZ" PURGE="0" COMMENT="" />
    <EXPORT ORDINAL="3150" NAME="?size@?$basic_string@_WV?$char_traits@_W@stlp_std@@V?$memtrack_allocator@_W$0IMHGPCA@@2@@stlp_std@@QBEIXZ" PURGE="0" COMMENT="" />
    <EXPORT ORDINAL="3151" NAME="?size@ConsoleVar@Orc@@QAEIXZ" PURGE="0" COMMENT="" />
    <EXPORT ORDINAL="3152" NAME="?size@RingBufferByte@Orc@@QBEIXZ" PURGE="0" COMMENT="" />
    <EXPORT ORDINAL="3153" NAME="?size@cFileBit@Orc@@UBEIXZ" PURGE="0" COMMENT="" />
    <EXPORT ORDINAL="3154" NAME="?size@cFileBitOld@Orc@@UBEIXZ" PURGE="0" COMMENT="" />
    <EXPORT ORDINAL="3155" NAME="?size@cFileCached@Orc@@UBEIXZ" PURGE="-1" COMMENT="" />
    <EXPORT ORDINAL="3156" NAME="?size@cFileDisk@Orc@@UBEIXZ" PURGE="0" COMMENT="" />
    <EXPORT ORDINAL="3157" NAME="?size@cFileMem@Orc@@UBEIXZ" PURGE="0" COMMENT="" />
    <EXPORT ORDINAL="3158" NAME="?skipComment_block@TextTokenizer@Orc@@QAEX_N@Z" PURGE="4" COMMENT="" />
    <EXPORT ORDINAL="3159" NAME="?skipComment_oneLine@TextTokenizer@Orc@@QAEX_N@Z" PURGE="4" COMMENT="" />
    <EXPORT ORDINAL="3160" NAME="?soundSystem@iMovie@Orc@@1PAViSoundSystem@2@A" PURGE="-1" COMMENT="" />
    <EXPORT ORDINAL="3161" NAME="?split@String@Orc@@QBEIAAV?$vector@VString@Orc@@V?$memtrack_allocator@VString@Orc@@$0IMHGPCA@@stlp_std@@@stlp_std@@ABV12@I@Z" PURGE="12" COMMENT="" />
    <EXPORT ORDINAL="3162" NAME="?split@WString@Orc@@QBEIAAV?$vector@VWString@Orc@@V?$allocator@VWString@Orc@@@stlp_std@@@stlp_std@@ABV12@I@Z" PURGE="12" COMMENT="" />
    <EXPORT ORDINAL="3163" NAME="?sprintf@String@Orc@@QAAXPBDZZ" PURGE="0" COMMENT="" />
    <EXPORT ORDINAL="3164" NAME="?sprintf@WString@Orc@@QAAXPB_WZZ" PURGE="0" COMMENT="" />
    <EXPORT ORDINAL="3165" NAME="?sqrt@cMath@Orc@@2P6AMM@ZA" PURGE="-1" COMMENT="" />
    <EXPORT ORDINAL="3166" NAME="?sqrt_base@cMath@Orc@@CAMM@Z" PURGE="0" COMMENT="" />
    <EXPORT ORDINAL="3167" NAME="?sqrt_sse@cMath@Orc@@CAMM@Z" PURGE="0" COMMENT="" />
    <EXPORT ORDINAL="3168" NAME="?start@PerfCounter@Orc@@QAEXXZ" PURGE="0" COMMENT="" />
    <EXPORT ORDINAL="3169" NAME="?start@Timer@Orc@@QAEXXZ" PURGE="0" COMMENT="" />
    <EXPORT ORDINAL="3170" NAME="?start_Profile@ProfileManager@Orc@@QAEXPBD@Z" PURGE="4" COMMENT="" />
    <EXPORT ORDINAL="3171" NAME="?static_stream_callback@cResourceManager@Orc@@CAXPBDAAVMemBlk@@PAXW4eStreamCallback@2@@Z" PURGE="0" COMMENT="" />
    <EXPORT ORDINAL="3172" NAME="?step@TimeStepCollect@Orc@@QAEXPBD@Z" PURGE="4" COMMENT="" />
    <EXPORT ORDINAL="3173" NAME="?stop@iSound3DStereo@Orc@@UAEXI@Z" PURGE="4" COMMENT="" />
    <EXPORT ORDINAL="3174" NAME="?stop@iSound3DSubwoofer@Orc@@UAEXI@Z" PURGE="4" COMMENT="" />
    <EXPORT ORDINAL="3175" NAME="?stop@iSoundChannel@Orc@@UAEXI@Z" PURGE="4" COMMENT="" />
    <EXPORT ORDINAL="3176" NAME="?stop@iSoundClip@Orc@@UAEXI@Z" PURGE="4" COMMENT="" />
    <EXPORT ORDINAL="3177" NAME="?stop@iSoundSystem@Orc@@UAE_NPAViSoundSource@2@I@Z" PURGE="8" COMMENT="" />
    <EXPORT ORDINAL="3178" NAME="?stop@iSoundVorbis@Orc@@UAE_NI@Z" PURGE="4" COMMENT="" />
    <EXPORT ORDINAL="3179" NAME="?stopAfterFade@iSoundChannel@Orc@@QBE_NXZ" PURGE="0" COMMENT="" />
    <EXPORT ORDINAL="3180" NAME="?stopAll@iSoundSystem@Orc@@UAE_NI@Z" PURGE="4" COMMENT="" />
    <EXPORT ORDINAL="3181" NAME="?stopChannel@iSoundSystem@Orc@@UAE_NII@Z" PURGE="8" COMMENT="" />
    <EXPORT ORDINAL="3182" NAME="?stop_Profile@ProfileManager@Orc@@QAEXXZ" PURGE="0" COMMENT="" />
    <EXPORT ORDINAL="3183" NAME="?strCpy@StringTools@Orc@@SAIPAXIPBD@Z" PURGE="0" COMMENT="" />
    <EXPORT ORDINAL="3184" NAME="?stream@iSoundVorbis@Orc@@UAE?BIII@Z" PURGE="8" COMMENT="" />
    <EXPORT ORDINAL="3185" NAME="?streamPeekNextToken@TextTokenizer@Orc@@ABE_NAAE@Z" PURGE="4" COMMENT="" />
    <EXPORT ORDINAL="3186" NAME="?streamResource@cResourceManager@Orc@@QAE_NAAVcResource@2@W4ePriority@2@@Z" PURGE="8" COMMENT="" />
    <EXPORT ORDINAL="3187" NAME="?streamResourceById@cResourceManager@Orc@@QAE_NIW4ePriority@2@@Z" PURGE="8" COMMENT="" />
    <EXPORT ORDINAL="3188" NAME="?streamResourceByName@cResourceManager@Orc@@UAE_NABVString@2@W4ePriority@2@PAX@Z" PURGE="12" COMMENT="" />
    <EXPORT ORDINAL="3189" NAME="?stream_callback@cResource@Orc@@MAE_NAAVMemBlk@@W4eStreamCallback@2@@Z" PURGE="8" COMMENT="" />
    <EXPORT ORDINAL="3190" NAME="?stream_callback@cResourceManager@Orc@@UAEXAAVcResource@2@AAVMemBlk@@W4eStreamCallback@2@@Z" PURGE="12" COMMENT="" />
    <EXPORT ORDINAL="3191" NAME="?streamer@cArchiveContainer@Orc@@2PAViArchiveStreaming@2@A" PURGE="-1" COMMENT="" />
    <EXPORT ORDINAL="3192" NAME="?sub@TimerCycle@Orc@@SAXABV12@0AAV12@@Z" PURGE="0" COMMENT="" />
    <EXPORT ORDINAL="3193" NAME="?substr@?$basic_string@DV?$char_traits@D@stlp_std@@V?$memtrack_allocator@D$0IMHGPCA@@2@@stlp_std@@QBE?AV12@II@Z" PURGE="12" COMMENT="" />
    <EXPORT ORDINAL="3194" NAME="?substr@?$basic_string@_WV?$char_traits@_W@stlp_std@@V?$memtrack_allocator@_W$0IMHGPCA@@2@@stlp_std@@QBE?AV12@II@Z" PURGE="12" COMMENT="" />
    <EXPORT ORDINAL="3195" NAME="?suspend@ThreadTask@Orc@@QAEIXZ" PURGE="0" COMMENT="" />
    <EXPORT ORDINAL="3196" NAME="?swap@?$basic_string@DV?$char_traits@D@stlp_std@@V?$memtrack_allocator@D$0IMHGPCA@@2@@stlp_std@@QAEXAAV12@@Z" PURGE="4" COMMENT="" />
    <EXPORT ORDINAL="3197" NAME="?swap@?$basic_string@_WV?$char_traits@_W@stlp_std@@V?$memtrack_allocator@_W$0IMHGPCA@@2@@stlp_std@@QAEXAAV12@@Z" PURGE="4" COMMENT="" />
    <EXPORT ORDINAL="3198" NAME="?swap@cDataStore@Orc@@QAEXAAV12@@Z" PURGE="4" COMMENT="" />
    <EXPORT ORDINAL="3199" NAME="?swap@cFileMem@Orc@@QAEAAV12@AAV12@@Z" PURGE="4" COMMENT="" />
    <EXPORT ORDINAL="3200" NAME="?swapRedAndBlue@cPalette@Orc@@QAEXXZ" PURGE="0" COMMENT="" />
    <EXPORT ORDINAL="3201" NAME="?tan@cMath@Orc@@SAMM@Z" PURGE="0" COMMENT="" />
    <EXPORT ORDINAL="3202" NAME="?tell@cFileBit@Orc@@UBEIXZ" PURGE="0" COMMENT="" />
    <EXPORT ORDINAL="3203" NAME="?tell@cFileBitOld@Orc@@UBEIXZ" PURGE="0" COMMENT="" />
    <EXPORT ORDINAL="3204" NAME="?tell@cFileCached@Orc@@UBEIXZ" PURGE="0" COMMENT="" />
    <EXPORT ORDINAL="3205" NAME="?tell@cFileDisk@Orc@@UBEIXZ" PURGE="0" COMMENT="" />
    <EXPORT ORDINAL="3206" NAME="?tell@cFileMem@Orc@@UBEIXZ" PURGE="0" COMMENT="" />
    <EXPORT ORDINAL="3207" NAME="?termHandler@Root@Orc@@SAXXZ" PURGE="-1" COMMENT="" />
    <EXPORT ORDINAL="3208" NAME="?ticksToMicroseconds@PerfCounter@Orc@@QBEI_K@Z" PURGE="8" COMMENT="" />
    <EXPORT ORDINAL="3209" NAME="?ticksToMicrosecondsF@PerfCounter@Orc@@QBEM_K@Z" PURGE="8" COMMENT="" />
    <EXPORT ORDINAL="3210" NAME="?ticksToMilliseconds@PerfCounter@Orc@@QBEI_K@Z" PURGE="8" COMMENT="" />
    <EXPORT ORDINAL="3211" NAME="?ticksToMillisecondsF@PerfCounter@Orc@@QBEM_K@Z" PURGE="8" COMMENT="" />
    <EXPORT ORDINAL="3212" NAME="?ticksToSeconds@PerfCounter@Orc@@QBEM_K@Z" PURGE="8" COMMENT="" />
    <EXPORT ORDINAL="3213" NAME="?toAABB@cOBB@Orc@@QBEXAAUD3DXVECTOR3@@0@Z" PURGE="8" COMMENT="" />
    <EXPORT ORDINAL="3214" NAME="?toAABB@cOBB@Orc@@QBEXAAUD3DXVECTOR4@@0@Z" PURGE="8" COMMENT="" />
    <EXPORT ORDINAL="3215" NAME="?toAABB_sse@cOBB@Orc@@QBEXAAUD3DXVECTOR4@@0@Z" PURGE="8" COMMENT="" />
    <EXPORT ORDINAL="3216" NAME="?toF32@varType@Orc@@QBEMM@Z" PURGE="4" COMMENT="" />
    <EXPORT ORDINAL="3217" NAME="?toI32@varType@Orc@@QBEHH@Z" PURGE="4" COMMENT="" />
    <EXPORT ORDINAL="3218" NAME="?toLower@StringTools@Orc@@SAXPAD@Z" PURGE="0" COMMENT="" />
    <EXPORT ORDINAL="3219" NAME="?toLower@StringTools@Orc@@SAXPA_W@Z" PURGE="0" COMMENT="" />
    <EXPORT ORDINAL="3220" NAME="?toLowerCase@String@Orc@@QAEAAV12@XZ" PURGE="0" COMMENT="" />
    <EXPORT ORDINAL="3221" NAME="?toLowerCase@WString@Orc@@QAEAAV12@XZ" PURGE="0" COMMENT="" />
    <EXPORT ORDINAL="3222" NAME="?toStPtr@varType@Orc@@QBEPBDPBD@Z" PURGE="4" COMMENT="" />
    <EXPORT ORDINAL="3223" NAME="?toString@String@Orc@@QAEXABVWString@2@@Z" PURGE="4" COMMENT="" />
    <EXPORT ORDINAL="3224" NAME="?toString@StringConverter@Orc@@SA?AVString@2@ABUD3DXMATRIX@@@Z" PURGE="0" COMMENT="" />
    <EXPORT ORDINAL="3225" NAME="?toString@StringConverter@Orc@@SA?AVString@2@ABUD3DXVECTOR3@@@Z" PURGE="0" COMMENT="" />
    <EXPORT ORDINAL="3226" NAME="?toString@StringConverter@Orc@@SA?AVString@2@H@Z" PURGE="0" COMMENT="" />
    <EXPORT ORDINAL="3227" NAME="?toString@StringConverter@Orc@@SA?AVString@2@I@Z" PURGE="0" COMMENT="" />
    <EXPORT ORDINAL="3228" NAME="?toString@StringConverter@Orc@@SA?AVString@2@M@Z" PURGE="0" COMMENT="" />
    <EXPORT ORDINAL="3229" NAME="?toString@StringConverter@Orc@@SA?AVString@2@UColor@2@@Z" PURGE="0" COMMENT="" />
    <EXPORT ORDINAL="3230" NAME="?toString@StringConverter@Orc@@SA?AVString@2@_N@Z" PURGE="0" COMMENT="" />
    <EXPORT ORDINAL="3231" NAME="?toString@WString@Orc@@QAEXABVString@2@@Z" PURGE="4" COMMENT="" />
    <EXPORT ORDINAL="3232" NAME="?toString@varType@Orc@@QBE?AVString@2@ABV32@@Z" PURGE="8" COMMENT="" />
    <EXPORT ORDINAL="3233" NAME="?toString@varType@Orc@@QBE?AVString@2@PBD@Z" PURGE="8" COMMENT="" />
    <EXPORT ORDINAL="3234" NAME="?toTable@varType@Orc@@QAEAAVIVarTable@2@XZ" PURGE="0" COMMENT="" />
    <EXPORT ORDINAL="3235" NAME="?toUpperCase@String@Orc@@QAEAAV12@XZ" PURGE="0" COMMENT="" />
    <EXPORT ORDINAL="3236" NAME="?toUpperCase@WString@Orc@@QAEAAV12@XZ" PURGE="0" COMMENT="" />
    <EXPORT ORDINAL="3237" NAME="?to_S3TC1@cS3TC@Orc@@QAEIPAXPBXIII@Z" PURGE="20" COMMENT="" />
    <EXPORT ORDINAL="3238" NAME="?to_S3TC1a@cS3TC@Orc@@QAEIPAXPBXIII@Z" PURGE="20" COMMENT="" />
    <EXPORT ORDINAL="3239" NAME="?to_S3TC2or3@cS3TC@Orc@@QAEIPAXPBXIII@Z" PURGE="20" COMMENT="" />
    <EXPORT ORDINAL="3240" NAME="?to_S3TC2or3vs4or5@cS3TC@Orc@@QAEIPAXPBXIIIPAI@Z" PURGE="24" COMMENT="" />
    <EXPORT ORDINAL="3241" NAME="?to_S3TC4or5@cS3TC@Orc@@QAEIPAXPBXIII@Z" PURGE="20" COMMENT="" />
    <EXPORT ORDINAL="3242" NAME="?to_string@?$Configurable@H@Orc@@UBEXPAD@Z" PURGE="4" COMMENT="" />
    <EXPORT ORDINAL="3243" NAME="?to_string@?$Configurable@M@Orc@@UBEXPAD@Z" PURGE="4" COMMENT="" />
    <EXPORT ORDINAL="3244" NAME="?to_string@?$Configurable@_N@Orc@@UBEXPAD@Z" PURGE="4" COMMENT="" />
    <EXPORT ORDINAL="3245" NAME="?touch@FileSystem@Orc@@SA_NABVString@2@@Z" PURGE="0" COMMENT="" />
    <EXPORT ORDINAL="3246" NAME="?touch@cResource@Orc@@QAEXXZ" PURGE="0" COMMENT="" />
    <EXPORT ORDINAL="3247" NAME="?transform@cBoundingBox@Orc@@QAEXABUD3DXMATRIX@@@Z" PURGE="4" COMMENT="" />
    <EXPORT ORDINAL="3248" NAME="?transform@cBoundingBoxAA@Orc@@QAEXABUD3DXMATRIX@@@Z" PURGE="4" COMMENT="" />
    <EXPORT ORDINAL="3249" NAME="?transform@cBoundingCylinder@Orc@@QAEXABUD3DXMATRIX@@@Z" PURGE="4" COMMENT="" />
    <EXPORT ORDINAL="3250" NAME="?transform@cBoundingSphere@Orc@@QAEXABUD3DXMATRIX@@@Z" PURGE="4" COMMENT="" />
    <EXPORT ORDINAL="3251" NAME="?transform@cOBB@Orc@@QAEXAAV12@ABUD3DXMATRIX@@@Z" PURGE="8" COMMENT="" />
    <EXPORT ORDINAL="3252" NAME="?transform@cOBB@Orc@@QAEXABUD3DXMATRIX@@@Z" PURGE="4" COMMENT="" />
    <EXPORT ORDINAL="3253" NAME="?transformAndProject@cBoundingBox@Orc@@QAEXABUD3DXMATRIX@@@Z" PURGE="4" COMMENT="" />
    <EXPORT ORDINAL="3254" NAME="?transformAndProject@cBoundingBoxAA@Orc@@QAEXABUD3DXMATRIX@@@Z" PURGE="4" COMMENT="" />
    <EXPORT ORDINAL="3255" NAME="?transformEdges@cOBB@Orc@@QBEXPAUD3DXVECTOR3@@ABUD3DXMATRIX@@@Z" PURGE="8" COMMENT="" />
    <EXPORT ORDINAL="3256" NAME="?transformEdges@cOBB@Orc@@QBEXPAUD3DXVECTOR4@@ABUD3DXMATRIX@@@Z" PURGE="8" COMMENT="" />
    <EXPORT ORDINAL="3257" NAME="?transformEdges_sse@cOBB@Orc@@QBEXPAUD3DXVECTOR4@@ABUD3DXMATRIX@@@Z" PURGE="8" COMMENT="" />
    <EXPORT ORDINAL="3258" NAME="?transform_float_I16@iSoundVorbis@Orc@@AAEXPBMPAFIE@Z" PURGE="16" COMMENT="" />
    <EXPORT ORDINAL="3259" NAME="?translate@cBoxRay@Orc@@QAEXABUD3DXVECTOR3@@@Z" PURGE="4" COMMENT="" />
    <EXPORT ORDINAL="3260" NAME="?translate@cRectRay@Orc@@QAEXABUD3DXVECTOR3@@@Z" PURGE="4" COMMENT="" />
    <EXPORT ORDINAL="3261" NAME="?trim@String@Orc@@QAEH_N0@Z" PURGE="8" COMMENT="" />
    <EXPORT ORDINAL="3262" NAME="?trim@WString@Orc@@QAEH_N0@Z" PURGE="8" COMMENT="" />
    <EXPORT ORDINAL="3263" NAME="?tryon@cCritical@Orc@@QBE_NXZ" PURGE="0" COMMENT="" />
    <EXPORT ORDINAL="3264" NAME="?type@varType@Orc@@QBE?AW4EType@12@XZ" PURGE="0" COMMENT="" />
    <EXPORT ORDINAL="3265" NAME="?unload@SoundSystemManager@Orc@@QAEXPAViSoundSystem@2@@Z" PURGE="4" COMMENT="" />
    <EXPORT ORDINAL="3266" NAME="?unload@cResource@Orc@@MAEXXZ" PURGE="0" COMMENT="" />
    <EXPORT ORDINAL="3267" NAME="?unload@iSoundSystem@Orc@@MAEXXZ" PURGE="0" COMMENT="" />
    <EXPORT ORDINAL="3268" NAME="?unloadAllResources@cResourceManager@Orc@@UAEXXZ" PURGE="0" COMMENT="" />
    <EXPORT ORDINAL="3269" NAME="?unloadAndDestroyAll@cResourceManager@Orc@@UAE_NXZ" PURGE="0" COMMENT="" />
    <EXPORT ORDINAL="3270" NAME="?unloadAndDestroyResource@cResourceManager@Orc@@IAEXPAVcResource@2@@Z" PURGE="4" COMMENT="" />
    <EXPORT ORDINAL="3271" NAME="?unloadPlugins@Root@Orc@@QAEXXZ" PURGE="0" COMMENT="" />
    <EXPORT ORDINAL="3272" NAME="?unloadResource@cResourceManager@Orc@@IAEXAAVcResource@2@@Z" PURGE="4" COMMENT="" />
    <EXPORT ORDINAL="3273" NAME="?unloadResource@cResourceManager@Orc@@QAEXI@Z" PURGE="4" COMMENT="" />
    <EXPORT ORDINAL="3274" NAME="?unlock@ProfileManager@Orc@@QAEXXZ" PURGE="0" COMMENT="" />
    <EXPORT ORDINAL="3275" NAME="?unsetLockRect@InputReader@Orc@@QAEXXZ" PURGE="0" COMMENT="" />
    <EXPORT ORDINAL="3276" NAME="?update@ParticleSystem@Orc@@QAEXM@Z" PURGE="4" COMMENT="" />
    <EXPORT ORDINAL="3277" NAME="?update@ParticleSystemMgr@Orc@@QAEXM@Z" PURGE="4" COMMENT="" />
    <EXPORT ORDINAL="3278" NAME="?update@cMD5@Orc@@QAEXPAEI@Z" PURGE="8" COMMENT="" />
    <EXPORT ORDINAL="3279" NAME="?update@iSound3DStereo@Orc@@UAEXMPAVcStereoCalc@2@@Z" PURGE="8" COMMENT="" />
    <EXPORT ORDINAL="3280" NAME="?update@iSound3DSubwoofer@Orc@@UAEXM@Z" PURGE="4" COMMENT="" />
    <EXPORT ORDINAL="3281" NAME="?update@iSoundChannel@Orc@@UAE?BIM@Z" PURGE="4" COMMENT="" />
    <EXPORT ORDINAL="3282" NAME="?update@iSoundClip@Orc@@UAEXM@Z" PURGE="4" COMMENT="" />
    <EXPORT ORDINAL="3283" NAME="?update@iSoundSystem@Orc@@UAEXM@Z" PURGE="4" COMMENT="" />
    <EXPORT ORDINAL="3284" NAME="?update@iSoundVorbis@Orc@@UAEXM@Z" PURGE="4" COMMENT="" />
    <EXPORT ORDINAL="3285" NAME="?updateDucking@iSoundSystem@Orc@@UAE_NXZ" PURGE="0" COMMENT="" />
    <EXPORT ORDINAL="3286" NAME="?updateLeftRightPos@iSound3DStereo@Orc@@EAEXPAVcStereoCalc@2@@Z" PURGE="4" COMMENT="" />
    <EXPORT ORDINAL="3287" NAME="?updatePoint@cSplineCR@Orc@@QAEXGABUD3DXVECTOR3@@@Z" PURGE="8" COMMENT="" />
    <EXPORT ORDINAL="3288" NAME="?updateVolume@iSoundChannel@Orc@@UAE_NXZ" PURGE="0" COMMENT="" />
    <EXPORT ORDINAL="3289" NAME="?updateVolume@iSoundSystem@Orc@@UAEXXZ" PURGE="0" COMMENT="" />
    <EXPORT ORDINAL="3290" NAME="?useHardwareMixer@iSoundSystem@Orc@@QBE_NXZ" PURGE="0" COMMENT="" />
    <EXPORT ORDINAL="3291" NAME="?useLowPassFiltering@iSoundChannel@Orc@@QBE_NXZ" PURGE="0" COMMENT="" />
    <EXPORT ORDINAL="3292" NAME="?useLowPassFiltering@iSoundSource@Orc@@QBE_NXZ" PURGE="0" COMMENT="" />
    <EXPORT ORDINAL="3293" NAME="?useLowPassFiltering@sSoundParams@Orc@@QBE_NXZ" PURGE="0" COMMENT="" />
    <EXPORT ORDINAL="3294" NAME="?wait@cSemaphore@Orc@@QAE_NI@Z" PURGE="4" COMMENT="" />
    <EXPORT ORDINAL="3295" NAME="?waitForFade@iSoundSystem@Orc@@UAEXI@Z" PURGE="4" COMMENT="" />
    <EXPORT ORDINAL="3296" NAME="?waitThreadFinish@ThreadTask@Orc@@QAEXXZ" PURGE="0" COMMENT="" />
    <EXPORT ORDINAL="3297" NAME="?wait_signal@cSignal@Orc@@QAE_NI@Z" PURGE="4" COMMENT="" />
    <EXPORT ORDINAL="3298" NAME="?wcMatch@StringTools@Orc@@SA_NPBD0PAE@Z" PURGE="0" COMMENT="" />
    <EXPORT ORDINAL="3299" NAME="?wcMatch@StringTools@Orc@@SA_NPB_W0PAE@Z" PURGE="0" COMMENT="" />
    <EXPORT ORDINAL="3300" NAME="?write@RingBufferByte@Orc@@QAEJPAXJ@Z" PURGE="8" COMMENT="" />
    <EXPORT ORDINAL="3301" NAME="?write@cFileBit@Orc@@UAEIPBXI@Z" PURGE="8" COMMENT="" />
    <EXPORT ORDINAL="3302" NAME="?write@cFileBitOld@Orc@@UAEIPBXI@Z" PURGE="8" COMMENT="" />
    <EXPORT ORDINAL="3303" NAME="?write@cFileCached@Orc@@UAEIPBXI@Z" PURGE="8" COMMENT="" />
    <EXPORT ORDINAL="3304" NAME="?write@cFileDisk@Orc@@UAEIABVcFileMem@2@@Z" PURGE="4" COMMENT="" />
    <EXPORT ORDINAL="3305" NAME="?write@cFileDisk@Orc@@UAEIPBXI@Z" PURGE="8" COMMENT="" />
    <EXPORT ORDINAL="3306" NAME="?write@cFileMem@Orc@@UAEIAAV12@@Z" PURGE="4" COMMENT="" />
    <EXPORT ORDINAL="3307" NAME="?write@cFileMem@Orc@@UAEIPBXI@Z" PURGE="8" COMMENT="" />
    <EXPORT ORDINAL="3308" NAME="?write@iSoundClip@Orc@@UAE_NPAEI@Z" PURGE="8" COMMENT="" />
    <EXPORT ORDINAL="3309" NAME="?writeBlock@cDataStore@Orc@@QAEXPBDPBXI@Z" PURGE="12" COMMENT="" />
    <EXPORT ORDINAL="3310" NAME="?writeBlock@cDataStore@Orc@@QAEXUsBlockId@12@PBXI@Z" PURGE="12" COMMENT="" />
    <EXPORT ORDINAL="3311" NAME="?writeZeros@cFileMem@Orc@@QAE_NI@Z" PURGE="4" COMMENT="" />
    <EXPORT ORDINAL="3312" NAME="?write_16@cFile@Orc@@QAEIF@Z" PURGE="4" COMMENT="" />
    <EXPORT ORDINAL="3313" NAME="?write_16@cFile@Orc@@QAEIG@Z" PURGE="4" COMMENT="" />
    <EXPORT ORDINAL="3314" NAME="?write_32@cFile@Orc@@QAEIH@Z" PURGE="4" COMMENT="" />
    <EXPORT ORDINAL="3315" NAME="?write_32@cFile@Orc@@QAEII@Z" PURGE="4" COMMENT="" />
    <EXPORT ORDINAL="3316" NAME="?write_64@cFile@Orc@@QAEI_J@Z" PURGE="8" COMMENT="" />
    <EXPORT ORDINAL="3317" NAME="?write_64@cFile@Orc@@QAEI_K@Z" PURGE="8" COMMENT="" />
    <EXPORT ORDINAL="3318" NAME="?write_8@cFile@Orc@@QAEID@Z" PURGE="4" COMMENT="" />
    <EXPORT ORDINAL="3319" NAME="?write_8@cFile@Orc@@QAEIE@Z" PURGE="4" COMMENT="" />
    <EXPORT ORDINAL="3320" NAME="?write_bit@cFileBit@Orc@@UAEX_N@Z" PURGE="4" COMMENT="" />
    <EXPORT ORDINAL="3321" NAME="?write_bit@cFileBitOld@Orc@@UAEX_N@Z" PURGE="4" COMMENT="" />
    <EXPORT ORDINAL="3322" NAME="?write_bitmap@cIO_pcx@Orc@@AAEHAAVcFile@2@AAVcImage@2@@Z" PURGE="8" COMMENT="" />
    <EXPORT ORDINAL="3323" NAME="?write_bits@cFileBit@Orc@@UAEXII@Z" PURGE="8" COMMENT="" />
    <EXPORT ORDINAL="3324" NAME="?write_bits@cFileBitOld@Orc@@UAEXII@Z" PURGE="8" COMMENT="" />
    <EXPORT ORDINAL="3325" NAME="?write_float@cFile@Orc@@QAEIM@Z" PURGE="4" COMMENT="" />
    <EXPORT ORDINAL="3326" NAME="?write_mat4d@cFile@Orc@@QAEIABUD3DXMATRIX@@@Z" PURGE="4" COMMENT="" />
    <EXPORT ORDINAL="3327" NAME="?write_string@cFile@Orc@@QAEIABVString@2@@Z" PURGE="4" COMMENT="" />
    <EXPORT ORDINAL="3328" NAME="?write_type10@cIO_tga@Orc@@AAEHAAVcFile@2@AAVcImage@2@@Z" PURGE="8" COMMENT="" />
    <EXPORT ORDINAL="3329" NAME="?write_type1@cIO_tga@Orc@@AAEHAAVcFile@2@AAVcImage@2@@Z" PURGE="8" COMMENT="" />
    <EXPORT ORDINAL="3330" NAME="?write_type2@cIO_tga@Orc@@AAEHAAVcFile@2@AAVcImage@2@@Z" PURGE="8" COMMENT="" />
    <EXPORT ORDINAL="3331" NAME="?write_vec3d@cFile@Orc@@QAEIABUD3DXVECTOR3@@@Z" PURGE="4" COMMENT="" />
    <EXPORT ORDINAL="3332" NAME="?write_wstring@cFile@Orc@@QAEIABVWString@2@@Z" PURGE="4" COMMENT="" />
    <EXPORT ORDINAL="3333" NAME="?xaxis3@cOBB@Orc@@QAEAAUD3DXVECTOR3@@XZ" PURGE="0" COMMENT="" />
    <EXPORT ORDINAL="3334" NAME="?xaxis3@cOBB@Orc@@QBEABUD3DXVECTOR3@@XZ" PURGE="0" COMMENT="" />
    <EXPORT ORDINAL="3335" NAME="?xaxis4@cOBB@Orc@@QAEAAUD3DXVECTOR4@@XZ" PURGE="0" COMMENT="" />
    <EXPORT ORDINAL="3336" NAME="?xaxis4@cOBB@Orc@@QBEABUD3DXVECTOR4@@XZ" PURGE="0" COMMENT="" />
    <EXPORT ORDINAL="3337" NAME="?yaxis3@cOBB@Orc@@QAEAAUD3DXVECTOR3@@XZ" PURGE="0" COMMENT="" />
    <EXPORT ORDINAL="3338" NAME="?yaxis3@cOBB@Orc@@QBEABUD3DXVECTOR3@@XZ" PURGE="0" COMMENT="" />
    <EXPORT ORDINAL="3339" NAME="?yaxis4@cOBB@Orc@@QAEAAUD3DXVECTOR4@@XZ" PURGE="0" COMMENT="" />
    <EXPORT ORDINAL="3340" NAME="?yaxis4@cOBB@Orc@@QBEABUD3DXVECTOR4@@XZ" PURGE="0" COMMENT="" />
    <EXPORT ORDINAL="3341" NAME="?zaxis3@cOBB@Orc@@QAEAAUD3DXVECTOR3@@XZ" PURGE="0" COMMENT="" />
    <EXPORT ORDINAL="3342" NAME="?zaxis3@cOBB@Orc@@QBEABUD3DXVECTOR3@@XZ" PURGE="0" COMMENT="" />
    <EXPORT ORDINAL="3343" NAME="?zaxis4@cOBB@Orc@@QAEAAUD3DXVECTOR4@@XZ" PURGE="0" COMMENT="" />
    <EXPORT ORDINAL="3344" NAME="?zaxis4@cOBB@Orc@@QBEABUD3DXVECTOR4@@XZ" PURGE="0" COMMENT="" />
    <EXPORT ORDINAL="3345" NAME="handleTerminate" PURGE="-1" COMMENT="" />
</LIBRARY>

