<?xml version="1.0" encoding="UTF-8"?>
<LIBRARY NAME="p5dll.dll" PATH="/DLLArchive/etc/p5dll.dll" DATE="Fri Jul 03 13:06:00 PDT 2020" VERSION="1, 0, 24, 7">
    <EXPORT ORDINAL="1" NAME="??0CP5DLL@@QAE@XZ" PURGE="0" COMMENT="" />
    <EXPORT ORDINAL="2" NAME="??1CP5DLL@@QAE@XZ" PURGE="0" COMMENT="" />
    <EXPORT ORDINAL="3" NAME="??4CEnumerator@@QAEAAV0@ABV0@@Z" PURGE="4" COMMENT="" />
    <EXPORT ORDINAL="4" NAME="??4CP5DLL@@QAEAAV0@ABV0@@Z" PURGE="4" COMMENT="" />
    <EXPORT ORDINAL="5" NAME="?CloseHidDevice@CEnumerator@@QAEXPAU_HID_DEVICE@@@Z" PURGE="4" COMMENT="" />
    <EXPORT ORDINAL="6" NAME="?FindHidDevice@CEnumerator@@QAE_NPAPAU_HID_DEVICE@@PAK@Z" PURGE="8" COMMENT="" />
    <EXPORT ORDINAL="7" NAME="?OpenHidDevice@CEnumerator@@AAEEPAXPAU_SP_DEVICE_INTERFACE_DATA@@PAU_HID_DEVICE@@@Z" PURGE="12" COMMENT="" />
    <EXPORT ORDINAL="8" NAME="?P5_CalibrateBendSensors@CP5DLL@@QAEXH@Z" PURGE="4" COMMENT="" />
    <EXPORT ORDINAL="9" NAME="?P5_CalibratePositionData@CP5DLL@@QAEXH@Z" PURGE="4" COMMENT="" />
    <EXPORT ORDINAL="10" NAME="?P5_Close@CP5DLL@@QAEXXZ" PURGE="0" COMMENT="" />
    <EXPORT ORDINAL="11" NAME="?P5_GetClickSensitivity@CP5DLL@@QAEXHPAH00@Z" PURGE="16" COMMENT="" />
    <EXPORT ORDINAL="12" NAME="?P5_GetLastError@CP5DLL@@QAEIPAH0@Z" PURGE="8" COMMENT="" />
    <EXPORT ORDINAL="13" NAME="?P5_GetMouseButtonAllocation@CP5DLL@@QAEXHPAH00@Z" PURGE="16" COMMENT="" />
    <EXPORT ORDINAL="14" NAME="?P5_GetMouseState@CP5DLL@@QAEIH@Z" PURGE="4" COMMENT="" />
    <EXPORT ORDINAL="15" NAME="?P5_GetMouseStickTime@CP5DLL@@QAEHH@Z" PURGE="4" COMMENT="" />
    <EXPORT ORDINAL="16" NAME="?P5_Init@CP5DLL@@QAEIXZ" PURGE="0" COMMENT="" />
    <EXPORT ORDINAL="17" NAME="?P5_SaveBendSensors@CP5DLL@@QAEXH@Z" PURGE="4" COMMENT="" />
    <EXPORT ORDINAL="18" NAME="?P5_SetClickSensitivity@CP5DLL@@QAEXHEEE@Z" PURGE="16" COMMENT="" />
    <EXPORT ORDINAL="19" NAME="?P5_SetMouseButtonAllocation@CP5DLL@@QAEXHHHH@Z" PURGE="16" COMMENT="" />
    <EXPORT ORDINAL="20" NAME="?P5_SetMouseState@CP5DLL@@QAEXHI@Z" PURGE="8" COMMENT="" />
    <EXPORT ORDINAL="21" NAME="?P5_SetMouseStickTime@CP5DLL@@QAEXHE@Z" PURGE="8" COMMENT="" />
</LIBRARY>

