<?xml version="1.0" encoding="UTF-8"?>
<LIBRARY NAME="pbkoe.dll" PATH="/DLLArchive/etc/PBKOE.dll" DATE="Fri Jul 03 22:06:12 CEST 2020" VERSION="3.00">
    <EXPORT ORDINAL="1" NAME="??0COutlkExprPbFile@@QAE@XZ" PURGE="0" COMMENT="" />
    <EXPORT ORDINAL="2" NAME="??1COutlkExprPbFile@@QAE@XZ" PURGE="0" COMMENT="" />
    <EXPORT ORDINAL="3" NAME="??_7COutlkExprPbFile@@6B@" PURGE="-1" COMMENT="" />
    <EXPORT ORDINAL="4" NAME="?CloseBook@COutlkExprPbFile@@UAEJXZ" PURGE="0" COMMENT="" />
    <EXPORT ORDINAL="5" NAME="?CopyRecord@COutlkExprPbFile@@UAEJPAU_PB_ENTRY_ID@@00@Z" PURGE="12" COMMENT="" />
    <EXPORT ORDINAL="6" NAME="?CreateBook@COutlkExprPbFile@@UAEJPAUHWND__@@PAD@Z" PURGE="8" COMMENT="" />
    <EXPORT ORDINAL="7" NAME="?CreateFolder@COutlkExprPbFile@@UAEJPAU_PB_ENTRY_ID@@W4FOLDERTYPES@@PAD0@Z" PURGE="16" COMMENT="" />
    <EXPORT ORDINAL="8" NAME="?CreateRecord@COutlkExprPbFile@@UAEJPAU_PB_ENTRY_ID@@PAUtagRecordDataFile@@0PBD@Z" PURGE="16" COMMENT="" />
    <EXPORT ORDINAL="9" NAME="?DefaultMapping@COutlkExprPbFile@@AAEXXZ" PURGE="0" COMMENT="" />
    <EXPORT ORDINAL="10" NAME="?DeleteDistList@COutlkExprPbFile@@AAEJPAU_PB_ENTRY_ID@@PAUIABContainer@@@Z" PURGE="8" COMMENT="" />
    <EXPORT ORDINAL="11" NAME="?DeleteFolder@COutlkExprPbFile@@UAEJPAU_PB_ENTRY_ID@@0@Z" PURGE="8" COMMENT="" />
    <EXPORT ORDINAL="12" NAME="?DeleteRecord@COutlkExprPbFile@@UAEJPAU_PB_ENTRY_ID@@0@Z" PURGE="8" COMMENT="" />
    <EXPORT ORDINAL="13" NAME="?DistListExistsInDistList@COutlkExprPbFile@@AAEJPAU_PB_ENTRY_ID@@PAH@Z" PURGE="8" COMMENT="" />
    <EXPORT ORDINAL="14" NAME="?DistListExistsInThisDistList@COutlkExprPbFile@@AAEJPAU_PB_ENTRY_ID@@0PAH@Z" PURGE="12" COMMENT="" />
    <EXPORT ORDINAL="15" NAME="?EmptyFolder@COutlkExprPbFile@@UAEJPAU_PB_ENTRY_ID@@@Z" PURGE="4" COMMENT="" />
    <EXPORT ORDINAL="16" NAME="?EnumFolders@COutlkExprPbFile@@UAEJP6GHW4FOLDERTYPES@@PADKPAU_PB_ENTRY_ID@@J@ZJ@Z" PURGE="8" COMMENT="" />
    <EXPORT ORDINAL="17" NAME="?EnumRecords@COutlkExprPbFile@@UAEJKPAU_PB_ENTRY_ID@@P6GHPAUtagRecordDataFile@@0PAW4SELECTION@@J@ZJ@Z" PURGE="16" COMMENT="" />
    <EXPORT ORDINAL="18" NAME="?ExpandDistList@COutlkExprPbFile@@AAEJPAU_PB_ENTRY_ID@@P6GHW4FOLDERTYPES@@PADK0J@ZJ@Z" PURGE="12" COMMENT="" />
    <EXPORT ORDINAL="19" NAME="?FreeProws@COutlkExprPbFile@@AAEXPAU_SRowSet@@@Z" PURGE="4" COMMENT="" />
    <EXPORT ORDINAL="20" NAME="?GetAvailableFields@COutlkExprPbFile@@UAEJPAPAU_FIELDLIST@@@Z" PURGE="4" COMMENT="" />
    <EXPORT ORDINAL="21" NAME="?GetFileInfo@COutlkExprPbFile@@UAEJPAU_FILE_INFO@@@Z" PURGE="4" COMMENT="" />
    <EXPORT ORDINAL="22" NAME="?GetFolderID@COutlkExprPbFile@@UAEJPADKPAU_PB_ENTRY_ID@@@Z" PURGE="12" COMMENT="" />
    <EXPORT ORDINAL="23" NAME="?GetFolderRecordCount@COutlkExprPbFile@@UAEJPAU_PB_ENTRY_ID@@PAK@Z" PURGE="8" COMMENT="" />
    <EXPORT ORDINAL="24" NAME="?GetItemEntryID@COutlkExprPbFile@@AAEHPAU_PB_ENTRY_ID@@K0@Z" PURGE="12" COMMENT="" />
    <EXPORT ORDINAL="25" NAME="?GetMapping@COutlkExprPbFile@@UAEJPAPAU_MAPTABLE@@H@Z" PURGE="8" COMMENT="" />
    <EXPORT ORDINAL="26" NAME="?GetValidMapFieldCount@COutlkExprPbFile@@AAEJPAH@Z" PURGE="4" COMMENT="" />
    <EXPORT ORDINAL="27" NAME="?IsDistListExisting@COutlkExprPbFile@@AAEHPAU_PB_ENTRY_ID@@@Z" PURGE="4" COMMENT="" />
    <EXPORT ORDINAL="28" NAME="?IsFunctionAvailable@COutlkExprPbFile@@UAEJPAD@Z" PURGE="4" COMMENT="" />
    <EXPORT ORDINAL="29" NAME="?MoveRecord@COutlkExprPbFile@@UAEJPAU_PB_ENTRY_ID@@00@Z" PURGE="12" COMMENT="" />
    <EXPORT ORDINAL="30" NAME="?OpenBook@COutlkExprPbFile@@UAEJPAUHWND__@@PAD@Z" PURGE="8" COMMENT="" />
    <EXPORT ORDINAL="31" NAME="?ReadRecord@COutlkExprPbFile@@UAEJPAU_PB_ENTRY_ID@@0KPAUtagRecordDataFile@@PAW4SELECTION@@PAW4ACCESS@@PAPAD@Z" PURGE="28" COMMENT="" />
    <EXPORT ORDINAL="32" NAME="?RenameFolder@COutlkExprPbFile@@UAEJPAU_PB_ENTRY_ID@@PAD@Z" PURGE="8" COMMENT="" />
    <EXPORT ORDINAL="33" NAME="?SetOwner@COutlkExprPbFile@@UAEJPADD@Z" PURGE="8" COMMENT="" />
    <EXPORT ORDINAL="34" NAME="?SetRecordAccess@COutlkExprPbFile@@UAEJPAU_PB_ENTRY_ID@@0W4ACCESS@@@Z" PURGE="12" COMMENT="" />
    <EXPORT ORDINAL="35" NAME="?TagRecord@COutlkExprPbFile@@UAEJPAU_PB_ENTRY_ID@@0W4SELECTION@@@Z" PURGE="12" COMMENT="" />
    <EXPORT ORDINAL="36" NAME="?UpdateExtendedProperties@COutlkExprPbFile@@AAEJPAUIMAPIProp@@H@Z" PURGE="8" COMMENT="" />
    <EXPORT ORDINAL="37" NAME="?UpdateRecord@COutlkExprPbFile@@UAEJPAU_PB_ENTRY_ID@@0PAUtagRecordDataFile@@PBD@Z" PURGE="16" COMMENT="" />
</LIBRARY>

