<?xml version="1.0" encoding="UTF-8"?>
<LIBRARY NAME="pdf417encoder.dll" PATH="/DLLArchive/etc/PDF417Encoder.dll" DATE="Fri Jul 03 22:06:24 CEST 2020" VERSION="">
    <EXPORT ORDINAL="1" NAME="PDF417Encode" PURGE="0" COMMENT="" />
    <EXPORT ORDINAL="2" NAME="PDF417GetImageSize" PURGE="0" COMMENT="" />
    <EXPORT ORDINAL="3" NAME="PDF417Free" PURGE="0" COMMENT="" />
    <EXPORT ORDINAL="4" NAME="??0AAdobeException@@QAE@ABV0@@Z" PURGE="4" COMMENT="" />
    <EXPORT ORDINAL="5" NAME="??0AAdobeException@@QAE@V?$basic_string@DU?$char_traits@D@std@@V?$allocator@D@2@@std@@@Z" PURGE="16" COMMENT="" />
    <EXPORT ORDINAL="6" NAME="??0AAdobeException@@QAE@XZ" PURGE="0" COMMENT="" />
    <EXPORT ORDINAL="7" NAME="??0ADataOverFlowException@@QAE@ABV0@@Z" PURGE="4" COMMENT="" />
    <EXPORT ORDINAL="8" NAME="??0ADataOverFlowException@@QAE@V?$basic_string@DU?$char_traits@D@std@@V?$allocator@D@2@@std@@@Z" PURGE="16" COMMENT="" />
    <EXPORT ORDINAL="9" NAME="??0AIllegalArgumentException@@QAE@ABV0@@Z" PURGE="4" COMMENT="" />
    <EXPORT ORDINAL="10" NAME="??0AIllegalArgumentException@@QAE@V?$basic_string@DU?$char_traits@D@std@@V?$allocator@D@2@@std@@@Z" PURGE="16" COMMENT="" />
    <EXPORT ORDINAL="11" NAME="??0AImage@@QAE@ABV0@@Z" PURGE="4" COMMENT="" />
    <EXPORT ORDINAL="12" NAME="??0AImage@@QAE@HH@Z" PURGE="8" COMMENT="" />
    <EXPORT ORDINAL="13" NAME="??0APDF417Encoder@@QAE@ABV0@@Z" PURGE="4" COMMENT="" />
    <EXPORT ORDINAL="14" NAME="??0APDF417Encoder@@QAE@XZ" PURGE="0" COMMENT="" />
    <EXPORT ORDINAL="15" NAME="??0APDF417Parameters@@QAE@ABV0@@Z" PURGE="4" COMMENT="" />
    <EXPORT ORDINAL="16" NAME="??0APDF417Parameters@@QAE@XZ" PURGE="0" COMMENT="" />
    <EXPORT ORDINAL="17" NAME="??1AAdobeException@@UAE@XZ" PURGE="0" COMMENT="" />
    <EXPORT ORDINAL="18" NAME="??1ADataOverFlowException@@UAE@XZ" PURGE="0" COMMENT="" />
    <EXPORT ORDINAL="19" NAME="??1AIllegalArgumentException@@UAE@XZ" PURGE="0" COMMENT="" />
    <EXPORT ORDINAL="20" NAME="??1AImage@@UAE@XZ" PURGE="0" COMMENT="" />
    <EXPORT ORDINAL="21" NAME="??1APDF417Encoder@@UAE@XZ" PURGE="0" COMMENT="" />
    <EXPORT ORDINAL="22" NAME="??1APDF417Parameters@@UAE@XZ" PURGE="0" COMMENT="" />
    <EXPORT ORDINAL="23" NAME="??4AAdobeException@@QAEAAV0@ABV0@@Z" PURGE="4" COMMENT="" />
    <EXPORT ORDINAL="24" NAME="??4ADataOverFlowException@@QAEAAV0@ABV0@@Z" PURGE="4" COMMENT="" />
    <EXPORT ORDINAL="25" NAME="??4AIllegalArgumentException@@QAEAAV0@ABV0@@Z" PURGE="4" COMMENT="" />
    <EXPORT ORDINAL="26" NAME="??4AImage@@QAEAAV0@ABV0@@Z" PURGE="4" COMMENT="" />
    <EXPORT ORDINAL="27" NAME="??4APDF417Encoder@@QAEAAV0@ABV0@@Z" PURGE="4" COMMENT="" />
    <EXPORT ORDINAL="28" NAME="??4APDF417Parameters@@QAEAAV0@ABV0@@Z" PURGE="4" COMMENT="" />
    <EXPORT ORDINAL="29" NAME="??4PDF417Image@@QAEAAU0@ABU0@@Z" PURGE="4" COMMENT="" />
    <EXPORT ORDINAL="30" NAME="??_7AAdobeException@@6B@" PURGE="-1" COMMENT="" />
    <EXPORT ORDINAL="31" NAME="??_7ADataOverFlowException@@6B@" PURGE="-1" COMMENT="" />
    <EXPORT ORDINAL="32" NAME="??_7AIllegalArgumentException@@6B@" PURGE="-1" COMMENT="" />
    <EXPORT ORDINAL="33" NAME="??_7AImage@@6B@" PURGE="-1" COMMENT="" />
    <EXPORT ORDINAL="34" NAME="??_7APDF417Encoder@@6B@" PURGE="-1" COMMENT="" />
    <EXPORT ORDINAL="35" NAME="??_7APDF417Parameters@@6B@" PURGE="-1" COMMENT="" />
    <EXPORT ORDINAL="36" NAME="?calculateRowsAndCols@APDF417Encoder@@AAEXHHHHAAH0@Z" PURGE="24" COMMENT="" />
    <EXPORT ORDINAL="37" NAME="?encode@APDF417Encoder@@QAEPAVAImage@@ABV?$vector@EV?$allocator@E@std@@@std@@AAVAPDF417Parameters@@@Z" PURGE="8" COMMENT="" />
    <EXPORT ORDINAL="38" NAME="?get@AImage@@QAEHHH@Z" PURGE="8" COMMENT="" />
    <EXPORT ORDINAL="39" NAME="?getBuffer@AImage@@QBEPAEXZ" PURGE="0" COMMENT="" />
    <EXPORT ORDINAL="40" NAME="?getBytesPerLine@AImage@@QAEHXZ" PURGE="0" COMMENT="" />
    <EXPORT ORDINAL="41" NAME="?getCols@AImage@@QAEHXZ" PURGE="0" COMMENT="" />
    <EXPORT ORDINAL="42" NAME="?getDataCols@APDF417Parameters@@UAEHXZ" PURGE="0" COMMENT="" />
    <EXPORT ORDINAL="43" NAME="?getDataRows@APDF417Parameters@@UAEHXZ" PURGE="0" COMMENT="" />
    <EXPORT ORDINAL="44" NAME="?getECCLevel@APDF417Parameters@@UAEHXZ" PURGE="0" COMMENT="" />
    <EXPORT ORDINAL="45" NAME="?getImageSize@APDF417Encoder@@QAE_NABV?$vector@EV?$allocator@E@std@@@std@@AAVAPDF417Parameters@@AAH2@Z" PURGE="16" COMMENT="" />
    <EXPORT ORDINAL="46" NAME="?getMessage@AAdobeException@@UAE?AV?$basic_string@DU?$char_traits@D@std@@V?$allocator@D@2@@std@@XZ" PURGE="4" COMMENT="" />
    <EXPORT ORDINAL="47" NAME="?getRowPtr@AImage@@QAEPAEH@Z" PURGE="4" COMMENT="" />
    <EXPORT ORDINAL="48" NAME="?getRows@AImage@@QAEHXZ" PURGE="0" COMMENT="" />
    <EXPORT ORDINAL="49" NAME="?getSize@AImage@@QAEHXZ" PURGE="0" COMMENT="" />
    <EXPORT ORDINAL="50" NAME="?getX@APDF417Parameters@@UAEHXZ" PURGE="0" COMMENT="" />
    <EXPORT ORDINAL="51" NAME="?getXSequence@APDF417Encoder@@QAEPAV?$basic_string@DU?$char_traits@D@std@@V?$allocator@D@2@@std@@ABV?$vector@EV?$allocator@E@std@@@3@AAVAPDF417Parameters@@@Z" PURGE="8" COMMENT="" />
    <EXPORT ORDINAL="52" NAME="?getXShave@APDF417Parameters@@UAEHXZ" PURGE="0" COMMENT="" />
    <EXPORT ORDINAL="53" NAME="?getY@APDF417Parameters@@UAEHXZ" PURGE="0" COMMENT="" />
    <EXPORT ORDINAL="54" NAME="?getYShave@APDF417Parameters@@UAEHXZ" PURGE="0" COMMENT="" />
    <EXPORT ORDINAL="55" NAME="?increaseECC@APDF417Encoder@@AAEHHHHH@Z" PURGE="16" COMMENT="" />
    <EXPORT ORDINAL="56" NAME="?isReaderInitialization@APDF417Parameters@@UAE_NXZ" PURGE="0" COMMENT="" />
    <EXPORT ORDINAL="57" NAME="?isTruncated@APDF417Parameters@@UAE_NXZ" PURGE="0" COMMENT="" />
    <EXPORT ORDINAL="58" NAME="?padData@APDF417Encoder@@AAEXAAV?$vector@IV?$allocator@I@std@@@std@@HHH@Z" PURGE="16" COMMENT="" />
    <EXPORT ORDINAL="59" NAME="?set@AImage@@QAEXHHH@Z" PURGE="12" COMMENT="" />
    <EXPORT ORDINAL="60" NAME="?setBuffer@AImage@@QAEXPAE@Z" PURGE="4" COMMENT="" />
    <EXPORT ORDINAL="61" NAME="?setDataCols@APDF417Parameters@@UAEXH@Z" PURGE="4" COMMENT="" />
    <EXPORT ORDINAL="62" NAME="?setDataRows@APDF417Parameters@@UAEXH@Z" PURGE="4" COMMENT="" />
    <EXPORT ORDINAL="63" NAME="?setECCLevel@APDF417Parameters@@UAEXH@Z" PURGE="4" COMMENT="" />
    <EXPORT ORDINAL="64" NAME="?setMessage@AAdobeException@@UAEXV?$basic_string@DU?$char_traits@D@std@@V?$allocator@D@2@@std@@@Z" PURGE="16" COMMENT="" />
    <EXPORT ORDINAL="65" NAME="?setReaderInitialization@APDF417Parameters@@UAEX_N@Z" PURGE="4" COMMENT="" />
    <EXPORT ORDINAL="66" NAME="?setRect@AImage@@QAEXHHHHH@Z" PURGE="20" COMMENT="" />
    <EXPORT ORDINAL="67" NAME="?setTruncated@APDF417Parameters@@UAEX_N@Z" PURGE="4" COMMENT="" />
    <EXPORT ORDINAL="68" NAME="?setX@APDF417Parameters@@UAEXH@Z" PURGE="4" COMMENT="" />
    <EXPORT ORDINAL="69" NAME="?setXShave@APDF417Parameters@@UAEXH@Z" PURGE="4" COMMENT="" />
    <EXPORT ORDINAL="70" NAME="?setY@APDF417Parameters@@UAEXH@Z" PURGE="4" COMMENT="" />
    <EXPORT ORDINAL="71" NAME="?setYShave@APDF417Parameters@@UAEXH@Z" PURGE="4" COMMENT="" />
    <EXPORT ORDINAL="72" NAME="?toString@APDF417Encoder@@AAE?AV?$basic_string@DU?$char_traits@D@std@@V?$allocator@D@2@@std@@AAV?$vector@IV?$allocator@I@std@@@3@@Z" PURGE="8" COMMENT="" />
</LIBRARY>

