<?xml version="1.0" encoding="UTF-8"?>
<LIBRARY NAME="planui.dll" PATH="/DLLArchive/etc/planui.dll" DATE="Fri Jul 03 13:07:05 PDT 2020" VERSION="11.00.0716">
    <EXPORT ORDINAL="1" NAME="??0CDateSelector@@QAE@XZ" PURGE="0" COMMENT="" />
    <EXPORT ORDINAL="2" NAME="??0CDisableElSearchAssert@@QAE@XZ" PURGE="0" COMMENT="" />
    <EXPORT ORDINAL="3" NAME="??0CDisablePlanEnumNotifications@@QAE@XZ" PURGE="0" COMMENT="" />
    <EXPORT ORDINAL="4" NAME="??0CDisablePlanModelDirtyNotifications@@QAE@XZ" PURGE="0" COMMENT="" />
    <EXPORT ORDINAL="5" NAME="??0CInflationSelector@@QAE@XZ" PURGE="0" COMMENT="" />
    <EXPORT ORDINAL="6" NAME="??0CPackageComboCtl@@QAE@XZ" PURGE="0" COMMENT="" />
    <EXPORT ORDINAL="7" NAME="??0CPackageComboIncome@@QAE@XZ" PURGE="0" COMMENT="" />
    <EXPORT ORDINAL="8" NAME="??0CPackageComboIncomeContribution@@QAE@XZ" PURGE="0" COMMENT="" />
    <EXPORT ORDINAL="9" NAME="??0CPackageComboLoan@@QAE@XZ" PURGE="0" COMMENT="" />
    <EXPORT ORDINAL="10" NAME="??0CPackageComboPerson@@QAE@XZ" PURGE="0" COMMENT="" />
    <EXPORT ORDINAL="11" NAME="??0CPackageComboSaving@@QAE@XZ" PURGE="0" COMMENT="" />
    <EXPORT ORDINAL="12" NAME="??0CPackageListAdj@@QAE@XZ" PURGE="0" COMMENT="" />
    <EXPORT ORDINAL="13" NAME="??0CPackageListAdjRF@@QAE@XZ" PURGE="0" COMMENT="" />
    <EXPORT ORDINAL="14" NAME="??0CPackageListCtl@@QAE@XZ" PURGE="0" COMMENT="" />
    <EXPORT ORDINAL="15" NAME="??0CPackageListIncome@@QAE@XZ" PURGE="0" COMMENT="" />
    <EXPORT ORDINAL="16" NAME="??0CPackageListLoan@@QAE@XZ" PURGE="0" COMMENT="" />
    <EXPORT ORDINAL="17" NAME="??0CPackageListPerson@@QAE@XZ" PURGE="0" COMMENT="" />
    <EXPORT ORDINAL="18" NAME="??0CPackageListSaving@@QAE@XZ" PURGE="0" COMMENT="" />
    <EXPORT ORDINAL="19" NAME="??0CPlanAmt@@QAE@ABV0@@Z" PURGE="4" COMMENT="" />
    <EXPORT ORDINAL="20" NAME="??0CPlanAmt@@QAE@ABVCAmt@@@Z" PURGE="4" COMMENT="" />
    <EXPORT ORDINAL="21" NAME="??0CPlanAmt@@QAE@ABVPLAN_AMT@@@Z" PURGE="4" COMMENT="" />
    <EXPORT ORDINAL="22" NAME="??0CPlanAmt@@QAE@N@Z" PURGE="8" COMMENT="" />
    <EXPORT ORDINAL="23" NAME="??0CPlanAmt@@QAE@XZ" PURGE="0" COMMENT="" />
    <EXPORT ORDINAL="24" NAME="??0CPlanAmtEdit@@QAE@XZ" PURGE="0" COMMENT="" />
    <EXPORT ORDINAL="25" NAME="??0CPlanDate@@QAE@ABFH@Z" PURGE="8" COMMENT="" />
    <EXPORT ORDINAL="26" NAME="??0CPlanDate@@QAE@ABV0@@Z" PURGE="4" COMMENT="" />
    <EXPORT ORDINAL="27" NAME="??0CPlanDate@@QAE@ABVCDate@@@Z" PURGE="4" COMMENT="" />
    <EXPORT ORDINAL="28" NAME="??0CPlanDate@@QAE@XZ" PURGE="0" COMMENT="" />
    <EXPORT ORDINAL="29" NAME="??0CPlanDateEdit@@QAE@XZ" PURGE="0" COMMENT="" />
    <EXPORT ORDINAL="30" NAME="??0CPlanDetailCtrl@@QAE@XZ" PURGE="0" COMMENT="" />
    <EXPORT ORDINAL="31" NAME="??0CPlanDetailGen@@QAE@XZ" PURGE="0" COMMENT="" />
    <EXPORT ORDINAL="32" NAME="??0CPlanEndDateSelector@@QAE@XZ" PURGE="0" COMMENT="" />
    <EXPORT ORDINAL="33" NAME="??0CPlanFrqNoOnceSelector@@QAE@XZ" PURGE="0" COMMENT="" />
    <EXPORT ORDINAL="34" NAME="??0CPlanFrqSelector@@QAE@XZ" PURGE="0" COMMENT="" />
    <EXPORT ORDINAL="35" NAME="??0CPlanNavPane@@QAE@XZ" PURGE="0" COMMENT="" />
    <EXPORT ORDINAL="36" NAME="??0CPlanNavPaneSB@@QAE@XZ" PURGE="0" COMMENT="" />
    <EXPORT ORDINAL="37" NAME="??0CPlanRate@@QAE@ABN@Z" PURGE="4" COMMENT="" />
    <EXPORT ORDINAL="38" NAME="??0CPlanRate@@QAE@XZ" PURGE="0" COMMENT="" />
    <EXPORT ORDINAL="39" NAME="??0CPlanSlider@@QAE@XZ" PURGE="0" COMMENT="" />
    <EXPORT ORDINAL="40" NAME="??0CPlanTextStream@@QAE@PAVCString@@@Z" PURGE="4" COMMENT="" />
    <EXPORT ORDINAL="41" NAME="??0CPlanTextStream@@QAE@PAX@Z" PURGE="4" COMMENT="" />
    <EXPORT ORDINAL="42" NAME="??0CPlanUrlMgr@@QAE@XZ" PURGE="0" COMMENT="" />
    <EXPORT ORDINAL="43" NAME="??0CRestoreForecastDate@@QAE@FW4PLAN_FLDCOMP_MODE@@H@Z" PURGE="12" COMMENT="" />
    <EXPORT ORDINAL="44" NAME="??0CRptManager@@QAE@XZ" PURGE="0" COMMENT="" />
    <EXPORT ORDINAL="45" NAME="??0CSubDialogDll@@QAE@XZ" PURGE="0" COMMENT="" />
    <EXPORT ORDINAL="46" NAME="??0CSubDlgMainComboDll@@QAE@XZ" PURGE="0" COMMENT="" />
    <EXPORT ORDINAL="47" NAME="??0CTaxRateSelector@@QAE@XZ" PURGE="0" COMMENT="" />
    <EXPORT ORDINAL="48" NAME="??1CDateSelector@@UAE@XZ" PURGE="0" COMMENT="" />
    <EXPORT ORDINAL="49" NAME="??1CDisableElSearchAssert@@QAE@XZ" PURGE="0" COMMENT="" />
    <EXPORT ORDINAL="50" NAME="??1CDisablePlanEnumNotifications@@QAE@XZ" PURGE="0" COMMENT="" />
    <EXPORT ORDINAL="51" NAME="??1CDisablePlanModelDirtyNotifications@@QAE@XZ" PURGE="0" COMMENT="" />
    <EXPORT ORDINAL="52" NAME="??1CInflationSelector@@UAE@XZ" PURGE="0" COMMENT="" />
    <EXPORT ORDINAL="53" NAME="??1CPackageComboCtl@@UAE@XZ" PURGE="-1" COMMENT="" />
    <EXPORT ORDINAL="54" NAME="??1CPackageComboIncome@@UAE@XZ" PURGE="0" COMMENT="" />
    <EXPORT ORDINAL="55" NAME="??1CPackageComboIncomeContribution@@UAE@XZ" PURGE="0" COMMENT="" />
    <EXPORT ORDINAL="56" NAME="??1CPackageComboLoan@@UAE@XZ" PURGE="0" COMMENT="" />
    <EXPORT ORDINAL="57" NAME="??1CPackageComboPerson@@UAE@XZ" PURGE="0" COMMENT="" />
    <EXPORT ORDINAL="58" NAME="??1CPackageComboSaving@@UAE@XZ" PURGE="0" COMMENT="" />
    <EXPORT ORDINAL="59" NAME="??1CPackageListAdj@@UAE@XZ" PURGE="0" COMMENT="" />
    <EXPORT ORDINAL="60" NAME="??1CPackageListAdjRF@@UAE@XZ" PURGE="0" COMMENT="" />
    <EXPORT ORDINAL="61" NAME="??1CPackageListCtl@@UAE@XZ" PURGE="0" COMMENT="" />
    <EXPORT ORDINAL="62" NAME="??1CPackageListIncome@@UAE@XZ" PURGE="0" COMMENT="" />
    <EXPORT ORDINAL="63" NAME="??1CPackageListLoan@@UAE@XZ" PURGE="0" COMMENT="" />
    <EXPORT ORDINAL="64" NAME="??1CPackageListPerson@@UAE@XZ" PURGE="0" COMMENT="" />
    <EXPORT ORDINAL="65" NAME="??1CPackageListSaving@@UAE@XZ" PURGE="0" COMMENT="" />
    <EXPORT ORDINAL="66" NAME="??1CPlanAmt@@QAE@XZ" PURGE="-1" COMMENT="" />
    <EXPORT ORDINAL="67" NAME="??1CPlanAmtEdit@@UAE@XZ" PURGE="0" COMMENT="" />
    <EXPORT ORDINAL="68" NAME="??1CPlanDateEdit@@UAE@XZ" PURGE="0" COMMENT="" />
    <EXPORT ORDINAL="69" NAME="??1CPlanDetailCtrl@@UAE@XZ" PURGE="0" COMMENT="" />
    <EXPORT ORDINAL="70" NAME="??1CPlanDetailGen@@QAE@XZ" PURGE="0" COMMENT="" />
    <EXPORT ORDINAL="71" NAME="??1CPlanEndDateSelector@@UAE@XZ" PURGE="0" COMMENT="" />
    <EXPORT ORDINAL="72" NAME="??1CPlanFrqNoOnceSelector@@UAE@XZ" PURGE="0" COMMENT="" />
    <EXPORT ORDINAL="73" NAME="??1CPlanFrqSelector@@UAE@XZ" PURGE="0" COMMENT="" />
    <EXPORT ORDINAL="74" NAME="??1CPlanNavPane@@UAE@XZ" PURGE="0" COMMENT="" />
    <EXPORT ORDINAL="75" NAME="??1CPlanNavPaneSB@@UAE@XZ" PURGE="0" COMMENT="" />
    <EXPORT ORDINAL="76" NAME="??1CPlanSlider@@UAE@XZ" PURGE="0" COMMENT="" />
    <EXPORT ORDINAL="77" NAME="??1CPlanTextStream@@QAE@XZ" PURGE="0" COMMENT="" />
    <EXPORT ORDINAL="78" NAME="??1CPlanUrlMgr@@QAE@XZ" PURGE="0" COMMENT="" />
    <EXPORT ORDINAL="79" NAME="??1CRestoreForecastDate@@QAE@XZ" PURGE="0" COMMENT="" />
    <EXPORT ORDINAL="80" NAME="??1CRptManager@@QAE@XZ" PURGE="0" COMMENT="" />
    <EXPORT ORDINAL="81" NAME="??1CSubDialogDll@@UAE@XZ" PURGE="-1" COMMENT="" />
    <EXPORT ORDINAL="82" NAME="??1CSubDlgMainComboDll@@UAE@XZ" PURGE="0" COMMENT="" />
    <EXPORT ORDINAL="83" NAME="??1CTaxRateSelector@@UAE@XZ" PURGE="0" COMMENT="" />
    <EXPORT ORDINAL="84" NAME="??4CActionGen@@QAEAAV0@ABV0@@Z" PURGE="4" COMMENT="" />
    <EXPORT ORDINAL="85" NAME="??4CAdviceGen@@QAEAAV0@ABV0@@Z" PURGE="4" COMMENT="" />
    <EXPORT ORDINAL="86" NAME="??4CAssumptionGen@@QAEAAV0@ABV0@@Z" PURGE="4" COMMENT="" />
    <EXPORT ORDINAL="87" NAME="??4CDisableElSearchAssert@@QAEAAV0@ABV0@@Z" PURGE="4" COMMENT="" />
    <EXPORT ORDINAL="88" NAME="??4CDisablePlanEnumNotifications@@QAEAAV0@ABV0@@Z" PURGE="4" COMMENT="" />
    <EXPORT ORDINAL="89" NAME="??4CDisablePlanModelDirtyNotifications@@QAEAAV0@ABV0@@Z" PURGE="4" COMMENT="" />
    <EXPORT ORDINAL="90" NAME="??4CPlanAmt@@QAEABV0@ABV0@@Z" PURGE="4" COMMENT="" />
    <EXPORT ORDINAL="91" NAME="??4CPlanAmt@@QAEABV0@ABVCAmt@@@Z" PURGE="4" COMMENT="" />
    <EXPORT ORDINAL="92" NAME="??4CPlanAmt@@QAEABV0@ABVCOfdCurrency@@@Z" PURGE="4" COMMENT="" />
    <EXPORT ORDINAL="93" NAME="??4CPlanAmt@@QAEABV0@ABVPLAN_AMT@@@Z" PURGE="4" COMMENT="" />
    <EXPORT ORDINAL="94" NAME="??4CPlanDate@@QAEABV0@ABF@Z" PURGE="4" COMMENT="" />
    <EXPORT ORDINAL="95" NAME="??4CPlanDate@@QAEABV0@ABV0@@Z" PURGE="4" COMMENT="" />
    <EXPORT ORDINAL="96" NAME="??4CPlanDate@@QAEABV0@ABVCDate@@@Z" PURGE="4" COMMENT="" />
    <EXPORT ORDINAL="97" NAME="??4CPlanDetailGen@@QAEAAV0@ABV0@@Z" PURGE="4" COMMENT="" />
    <EXPORT ORDINAL="98" NAME="??4CPlanRate@@QAEABV0@ABN@Z" PURGE="4" COMMENT="" />
    <EXPORT ORDINAL="99" NAME="??4CPlanRate@@QAEABV0@ABV0@@Z" PURGE="4" COMMENT="" />
    <EXPORT ORDINAL="100" NAME="??4CPlanTextStream@@QAEAAV0@ABV0@@Z" PURGE="4" COMMENT="" />
    <EXPORT ORDINAL="101" NAME="??4CPlanUrlMgr@@QAEAAV0@ABV0@@Z" PURGE="4" COMMENT="" />
    <EXPORT ORDINAL="102" NAME="??4CRestoreForecastDate@@QAEAAV0@ABV0@@Z" PURGE="4" COMMENT="" />
    <EXPORT ORDINAL="103" NAME="??4CRptManager@@QAEAAV0@ABV0@@Z" PURGE="4" COMMENT="" />
    <EXPORT ORDINAL="104" NAME="??8CPlanDate@@QBEHABV0@@Z" PURGE="4" COMMENT="" />
    <EXPORT ORDINAL="105" NAME="??9CPlanDate@@QBEHABV0@@Z" PURGE="4" COMMENT="" />
    <EXPORT ORDINAL="106" NAME="??BCPlanAmt@@QBE?AVPLAN_AMT@@XZ" PURGE="4" COMMENT="" />
    <EXPORT ORDINAL="107" NAME="??BCPlanDate@@QBE?AVCDate@@XZ" PURGE="4" COMMENT="" />
    <EXPORT ORDINAL="108" NAME="??BCPlanDate@@QBEFXZ" PURGE="0" COMMENT="" />
    <EXPORT ORDINAL="109" NAME="??BCPlanRate@@QBENXZ" PURGE="0" COMMENT="" />
    <EXPORT ORDINAL="110" NAME="??DCPlanAmt@@QAE?AV0@N@Z" PURGE="12" COMMENT="" />
    <EXPORT ORDINAL="111" NAME="??DCPlanAmt@@QAE?BV0@ABV0@@Z" PURGE="8" COMMENT="" />
    <EXPORT ORDINAL="112" NAME="??GCPlanAmt@@QAE?AV0@N@Z" PURGE="12" COMMENT="" />
    <EXPORT ORDINAL="113" NAME="??GCPlanAmt@@QAE?BV0@ABV0@@Z" PURGE="8" COMMENT="" />
    <EXPORT ORDINAL="114" NAME="??GCPlanAmt@@QBE?BV0@XZ" PURGE="4" COMMENT="" />
    <EXPORT ORDINAL="115" NAME="??HCPlanAmt@@QAE?AV0@N@Z" PURGE="12" COMMENT="" />
    <EXPORT ORDINAL="116" NAME="??HCPlanAmt@@QAE?BV0@ABV0@@Z" PURGE="8" COMMENT="" />
    <EXPORT ORDINAL="117" NAME="??KCPlanAmt@@QAE?AV0@N@Z" PURGE="12" COMMENT="" />
    <EXPORT ORDINAL="118" NAME="??KCPlanAmt@@QAE?BV0@ABV0@@Z" PURGE="8" COMMENT="" />
    <EXPORT ORDINAL="119" NAME="??MCPlanDate@@QBEHABV0@@Z" PURGE="4" COMMENT="" />
    <EXPORT ORDINAL="120" NAME="??NCPlanDate@@QBEHABV0@@Z" PURGE="4" COMMENT="" />
    <EXPORT ORDINAL="121" NAME="??OCPlanDate@@QBEHABV0@@Z" PURGE="4" COMMENT="" />
    <EXPORT ORDINAL="122" NAME="??PCPlanDate@@QBEHABV0@@Z" PURGE="4" COMMENT="" />
    <EXPORT ORDINAL="123" NAME="??XCPlanAmt@@QAEABV0@ABV0@@Z" PURGE="4" COMMENT="" />
    <EXPORT ORDINAL="124" NAME="??XCPlanAmt@@QAEABV0@N@Z" PURGE="8" COMMENT="" />
    <EXPORT ORDINAL="125" NAME="??YCPlanAmt@@QAEABV0@ABV0@@Z" PURGE="4" COMMENT="" />
    <EXPORT ORDINAL="126" NAME="??YCPlanAmt@@QAEABV0@N@Z" PURGE="8" COMMENT="" />
    <EXPORT ORDINAL="127" NAME="??ZCPlanAmt@@QAEABV0@ABV0@@Z" PURGE="4" COMMENT="" />
    <EXPORT ORDINAL="128" NAME="??ZCPlanAmt@@QAEABV0@N@Z" PURGE="8" COMMENT="" />
    <EXPORT ORDINAL="129" NAME="??_0CPlanAmt@@QAEABV0@ABV0@@Z" PURGE="4" COMMENT="" />
    <EXPORT ORDINAL="130" NAME="??_0CPlanAmt@@QAEABV0@N@Z" PURGE="8" COMMENT="" />
    <EXPORT ORDINAL="131" NAME="??_7CDateSelector@@6B@" PURGE="-1" COMMENT="" />
    <EXPORT ORDINAL="132" NAME="??_7CInflationSelector@@6B@" PURGE="-1" COMMENT="" />
    <EXPORT ORDINAL="133" NAME="??_7CPackageComboCtl@@6B@" PURGE="-1" COMMENT="" />
    <EXPORT ORDINAL="134" NAME="??_7CPackageComboIncome@@6B@" PURGE="-1" COMMENT="" />
    <EXPORT ORDINAL="135" NAME="??_7CPackageComboIncomeContribution@@6B@" PURGE="-1" COMMENT="" />
    <EXPORT ORDINAL="136" NAME="??_7CPackageComboLoan@@6B@" PURGE="-1" COMMENT="" />
    <EXPORT ORDINAL="137" NAME="??_7CPackageComboPerson@@6B@" PURGE="-1" COMMENT="" />
    <EXPORT ORDINAL="138" NAME="??_7CPackageComboSaving@@6B@" PURGE="-1" COMMENT="" />
    <EXPORT ORDINAL="139" NAME="??_7CPackageListAdj@@6BCMoneyMCListBox@@@" PURGE="6585" COMMENT="" />
    <EXPORT ORDINAL="140" NAME="??_7CPackageListAdj@@6BCPlanNotify@@@" PURGE="-1" COMMENT="" />
    <EXPORT ORDINAL="141" NAME="??_7CPackageListAdjRF@@6BCMoneyMCListBox@@@" PURGE="-1" COMMENT="" />
    <EXPORT ORDINAL="142" NAME="??_7CPackageListAdjRF@@6BCPlanNotify@@@" PURGE="-1" COMMENT="" />
    <EXPORT ORDINAL="143" NAME="??_7CPackageListCtl@@6BCMoneyMCListBox@@@" PURGE="-1" COMMENT="" />
    <EXPORT ORDINAL="144" NAME="??_7CPackageListCtl@@6BCPlanNotify@@@" PURGE="-1" COMMENT="" />
    <EXPORT ORDINAL="145" NAME="??_7CPackageListIncome@@6BCMoneyMCListBox@@@" PURGE="6585" COMMENT="" />
    <EXPORT ORDINAL="146" NAME="??_7CPackageListIncome@@6BCPlanNotify@@@" PURGE="-1" COMMENT="" />
    <EXPORT ORDINAL="147" NAME="??_7CPackageListLoan@@6BCMoneyMCListBox@@@" PURGE="6585" COMMENT="" />
    <EXPORT ORDINAL="148" NAME="??_7CPackageListLoan@@6BCPlanNotify@@@" PURGE="-1" COMMENT="" />
    <EXPORT ORDINAL="149" NAME="??_7CPackageListPerson@@6BCMoneyMCListBox@@@" PURGE="-1" COMMENT="" />
    <EXPORT ORDINAL="150" NAME="??_7CPackageListPerson@@6BCPlanNotify@@@" PURGE="-1" COMMENT="" />
    <EXPORT ORDINAL="151" NAME="??_7CPackageListSaving@@6BCMoneyMCListBox@@@" PURGE="6585" COMMENT="" />
    <EXPORT ORDINAL="152" NAME="??_7CPackageListSaving@@6BCPlanNotify@@@" PURGE="-1" COMMENT="" />
    <EXPORT ORDINAL="153" NAME="??_7CPlanAmtEdit@@6B@" PURGE="-1" COMMENT="" />
    <EXPORT ORDINAL="154" NAME="??_7CPlanDateEdit@@6B@" PURGE="-1" COMMENT="" />
    <EXPORT ORDINAL="155" NAME="??_7CPlanDetailCtrl@@6B@" PURGE="-1" COMMENT="" />
    <EXPORT ORDINAL="156" NAME="??_7CPlanEndDateSelector@@6B@" PURGE="-1" COMMENT="" />
    <EXPORT ORDINAL="157" NAME="??_7CPlanFrqNoOnceSelector@@6B@" PURGE="-1" COMMENT="" />
    <EXPORT ORDINAL="158" NAME="??_7CPlanFrqSelector@@6B@" PURGE="-1" COMMENT="" />
    <EXPORT ORDINAL="159" NAME="??_7CPlanNavPane@@6BCPlanNotify@@@" PURGE="-1" COMMENT="" />
    <EXPORT ORDINAL="160" NAME="??_7CPlanNavPane@@6BCSubDialog@@@" PURGE="-1" COMMENT="" />
    <EXPORT ORDINAL="161" NAME="??_7CPlanNavPaneSB@@6BCPlanNotify@@@" PURGE="-1" COMMENT="" />
    <EXPORT ORDINAL="162" NAME="??_7CPlanNavPaneSB@@6BCSubDialog@@@" PURGE="-1" COMMENT="" />
    <EXPORT ORDINAL="163" NAME="??_7CPlanSlider@@6B@" PURGE="-1" COMMENT="" />
    <EXPORT ORDINAL="164" NAME="??_7CSubDialogDll@@6B@" PURGE="-1" COMMENT="" />
    <EXPORT ORDINAL="165" NAME="??_7CSubDlgMainComboDll@@6B@" PURGE="-1" COMMENT="" />
    <EXPORT ORDINAL="166" NAME="??_7CTaxRateSelector@@6B@" PURGE="-1" COMMENT="" />
    <EXPORT ORDINAL="167" NAME="?AddAllListItems@CPackageComboCtl@@QAEXXZ" PURGE="0" COMMENT="" />
    <EXPORT ORDINAL="168" NAME="?AddAllListItems@CPackageListCtl@@QAEXXZ" PURGE="0" COMMENT="" />
    <EXPORT ORDINAL="169" NAME="?AddItem@CPackageComboCtl@@QAEHABVCPlanPackage@@HII@Z" PURGE="16" COMMENT="" />
    <EXPORT ORDINAL="170" NAME="?AddItem@CPackageListAdj@@UAEHABVCPlanPackage@@HII@Z" PURGE="16" COMMENT="" />
    <EXPORT ORDINAL="171" NAME="?AddItem@CPackageListCtl@@UAEHABVCPlanPackage@@HII@Z" PURGE="16" COMMENT="" />
    <EXPORT ORDINAL="172" NAME="?AgeGet@CPlanDate@@QBEHXZ" PURGE="0" COMMENT="" />
    <EXPORT ORDINAL="173" NAME="?AmountGet@CPlanSlider@@QAEJXZ" PURGE="0" COMMENT="" />
    <EXPORT ORDINAL="174" NAME="?AssetGenFundsGet@@YA?AVCPlanAssetElement@@XZ" PURGE="0" COMMENT="" />
    <EXPORT ORDINAL="175" NAME="?AssetLTInvestmentGet@@YA?AVCPlanAssetElement@@XZ" PURGE="0" COMMENT="" />
    <EXPORT ORDINAL="176" NAME="?CGraphs@CRptManager@@SAHXZ" PURGE="0" COMMENT="" />
    <EXPORT ORDINAL="177" NAME="?CLipConvertPkglstToRglipAdj@CAssumptionGen@@SAHVCPlanPackageList@@PAVLIP@@@Z" PURGE="0" COMMENT="" />
    <EXPORT ORDINAL="178" NAME="?CalcLivingExp@@YAXAAUCALCLIVEEXP@@@Z" PURGE="0" COMMENT="" />
    <EXPORT ORDINAL="179" NAME="?CchTextLimit@CPackageComboCtl@@UAEHXZ" PURGE="0" COMMENT="" />
    <EXPORT ORDINAL="180" NAME="?CchTextLimit@CPackageComboLoan@@UAEHXZ" PURGE="0" COMMENT="" />
    <EXPORT ORDINAL="181" NAME="?CchTextLimit@CPackageComboPerson@@UAEHXZ" PURGE="0" COMMENT="" />
    <EXPORT ORDINAL="182" NAME="?CleanupReports@CRptManager@@AAEXXZ" PURGE="0" COMMENT="" />
    <EXPORT ORDINAL="183" NAME="?CompareItem@CPackageListCtl@@UAEHPAUtagCOMPAREITEMSTRUCT@@@Z" PURGE="4" COMMENT="" />
    <EXPORT ORDINAL="184" NAME="?CompareLips@CPackageListCtl@@MAEHPBVLIP@@0@Z" PURGE="8" COMMENT="" />
    <EXPORT ORDINAL="185" NAME="?ConvertFromEDI@CPlanAmt@@QAEXABVCPlanModel@@@Z" PURGE="4" COMMENT="" />
    <EXPORT ORDINAL="186" NAME="?ConvertFromEDI@CPlanAmt@@QAEXXZ" PURGE="0" COMMENT="" />
    <EXPORT ORDINAL="187" NAME="?ConvertToBase@CPlanAmt@@QAEAAV1@ABVCPlanModel@@@Z" PURGE="4" COMMENT="" />
    <EXPORT ORDINAL="188" NAME="?ConvertToBase@CPlanAmt@@QAEAAV1@XZ" PURGE="0" COMMENT="" />
    <EXPORT ORDINAL="189" NAME="?CreateCareerStartEndAdjusts@@YAXAAVCPlanPackage@@AAVCPlanIncomeElement@@ABVCPlanPersonElement@@@Z" PURGE="0" COMMENT="" />
    <EXPORT ORDINAL="190" NAME="?CreateDefaultSalary@@YAXAAVCPlanPackage@@ABVCPlanPersonElement@@@Z" PURGE="0" COMMENT="" />
    <EXPORT ORDINAL="191" NAME="?DAgeFullRetire@@YANVCPlanDate@@@Z" PURGE="0" COMMENT="" />
    <EXPORT ORDINAL="192" NAME="?DEdiGlobalGet@@YANPBD@Z" PURGE="0" COMMENT="" />
    <EXPORT ORDINAL="193" NAME="?DeleteCareerStartEndAdjusts@@YAXAAVCPlanPackage@@@Z" PURGE="0" COMMENT="" />
    <EXPORT ORDINAL="194" NAME="?DeleteItem@CPackageListCtl@@UAEXPAUtagDELETEITEMSTRUCT@@@Z" PURGE="4" COMMENT="" />
    <EXPORT ORDINAL="195" NAME="?DeletePackItem@CPackageListAdj@@UAEXHPAH@Z" PURGE="8" COMMENT="" />
    <EXPORT ORDINAL="196" NAME="?DeletePackItem@CPackageListCtl@@UAEXHPAH@Z" PURGE="8" COMMENT="" />
    <EXPORT ORDINAL="197" NAME="?DoAddItem@CPackageListCtl@@IAEHABVCPlanPackage@@HII@Z" PURGE="16" COMMENT="" />
    <EXPORT ORDINAL="198" NAME="?DoDataExchange@CPlanSlider@@MAEXPAVCDataExchange@@@Z" PURGE="4" COMMENT="" />
    <EXPORT ORDINAL="199" NAME="?DoDeletePackItem@CPackageListCtl@@IAEXHPAH@Z" PURGE="8" COMMENT="" />
    <EXPORT ORDINAL="200" NAME="?DoDrawCustomPackItem@CPackageListCtl@@UAEXPAVCDC@@PBVLIP@@PAVCRect@@W4COLUMNTYPE@@@Z" PURGE="16" COMMENT="" />
    <EXPORT ORDINAL="201" NAME="?DoDrawMCItem@CPackageListCtl@@UAEXPAVCDC@@PAUtagDRAWITEMSTRUCT@@PAVCRect@@W4COLUMNTYPE@@@Z" PURGE="16" COMMENT="" />
    <EXPORT ORDINAL="202" NAME="?DoFindString@CPackageComboCtl@@UBEHHPBD@Z" PURGE="8" COMMENT="" />
    <EXPORT ORDINAL="203" NAME="?DoPlanAssetWizard@@YAXPAVCPlanPackage@@W4EDITAPAGE@@H0@Z" PURGE="0" COMMENT="" />
    <EXPORT ORDINAL="204" NAME="?DoPlanCareerWizard@@YAXAAVCPlanPackage@@PAV1@@Z" PURGE="0" COMMENT="" />
    <EXPORT ORDINAL="205" NAME="?DoPlanExpenseWizard@@YAXPAVCPlanPackage@@W4EDITEPAGE@@H0@Z" PURGE="0" COMMENT="" />
    <EXPORT ORDINAL="206" NAME="?DoPlanIncomeWizard@@YAXPAVCPlanPackage@@W4EDITIPAGE@@H0PAD@Z" PURGE="0" COMMENT="" />
    <EXPORT ORDINAL="207" NAME="?DoPlanInsuranceWizard@@YAXPAVCPlanPackage@@W4EDITINSPAGE@@H0@Z" PURGE="0" COMMENT="" />
    <EXPORT ORDINAL="208" NAME="DoPlanInvestmentWizard" PURGE="0" COMMENT="" />
    <EXPORT ORDINAL="209" NAME="?DoPlanLivExpAdjWizard@@YAXPAVCPlanPackage@@H@Z" PURGE="0" COMMENT="" />
    <EXPORT ORDINAL="210" NAME="DoPlanLoanWizard" PURGE="0" COMMENT="" />
    <EXPORT ORDINAL="211" NAME="?DoPlanPersonWizard@@YAXPAVCPlanPackage@@W4EDITPPAGE@@PAD@Z" PURGE="0" COMMENT="" />
    <EXPORT ORDINAL="212" NAME="?DoPlanPrint@@YAXPAVCPlace@@@Z" PURGE="0" COMMENT="" />
    <EXPORT ORDINAL="213" NAME="?DoPlanPrint@@YAXW4PSC@@@Z" PURGE="0" COMMENT="" />
    <EXPORT ORDINAL="214" NAME="DoPlanPrintYearByYear" PURGE="0" COMMENT="" />
    <EXPORT ORDINAL="215" NAME="?DoPlanSavingWizard@@YAXPAVCPlanPackage@@W4EDITSPAGE@@0H@Z" PURGE="0" COMMENT="" />
    <EXPORT ORDINAL="216" NAME="?DoPlanUpgradeWizard@@YAXXZ" PURGE="0" COMMENT="" />
    <EXPORT ORDINAL="217" NAME="?DyrGet@CPlanDate@@QBEHXZ" PURGE="0" COMMENT="" />
    <EXPORT ORDINAL="218" NAME="?ElGlobalGet@@YA?AVCPlanElement@@W4PLAN_ROLE@@@Z" PURGE="0" COMMENT="" />
    <EXPORT ORDINAL="219" NAME="?ElementGet@CPackageListAdj@@MAE?AVCPlanElement@@PBVLIP@@PBUKLCI@@@Z" PURGE="12" COMMENT="" />
    <EXPORT ORDINAL="220" NAME="?ElementGet@CPackageListCtl@@MAE?AVCPlanElement@@PBVLIP@@PBUKLCI@@@Z" PURGE="12" COMMENT="" />
    <EXPORT ORDINAL="221" NAME="?EnableConditionals@CDateSelector@@QAEXH@Z" PURGE="4" COMMENT="" />
    <EXPORT ORDINAL="222" NAME="?EnableOrDisableTabs@CPlanNavPane@@QAEXXZ" PURGE="0" COMMENT="" />
    <EXPORT ORDINAL="223" NAME="?ExpAdjAmtGet@@YA?AVPLAN_AMT@@PBVLIP@@PBUKLCI@@W4PLAN_FLDCOMP_MODE@@VCPlanElement@@VCPlanResultsLog@@@Z" PURGE="0" COMMENT="" />
    <EXPORT ORDINAL="224" NAME="?ExpAdjAmtGet@CPackageListAdjRF@@AAE?AVPLAN_AMT@@PBVLIP@@PBUKLCI@@W4PLAN_FLDCOMP_MODE@@@Z" PURGE="16" COMMENT="" />
    <EXPORT ORDINAL="225" NAME="?FAcctFixCostBasis@@YAHABVCPlanPackage@@@Z" PURGE="0" COMMENT="" />
    <EXPORT ORDINAL="226" NAME="?FAcctHaveLimit@@YAHABVCPlanPackage@@@Z" PURGE="0" COMMENT="" />
    <EXPORT ORDINAL="227" NAME="?FAddCustomItem@CInflationSelector@@QAEHPADABVCPlanField@@@Z" PURGE="8" COMMENT="" />
    <EXPORT ORDINAL="228" NAME="?FAddCustomItem@CTaxRateSelector@@QAEHPADABVCPlanField@@@Z" PURGE="8" COMMENT="" />
    <EXPORT ORDINAL="229" NAME="?FAddEndItem@CPackageListAdj@@UAEHABVCPlanPackage@@HII@Z" PURGE="16" COMMENT="" />
    <EXPORT ORDINAL="230" NAME="?FAddEndItem@CPackageListAdjRF@@UAEHABVCPlanPackage@@HII@Z" PURGE="16" COMMENT="" />
    <EXPORT ORDINAL="231" NAME="?FAssetAllocationComplete@@YAHHPAVCOfdListSec@@@Z" PURGE="0" COMMENT="" />
    <EXPORT ORDINAL="232" NAME="?FCanIncludePackage@@YAHVCPlanPackage@@H@Z" PURGE="0" COMMENT="" />
    <EXPORT ORDINAL="233" NAME="?FCreateDependent@@YAHAAVCPlanPackage@@AAVCPlanPersonElement@@NNABVCPlanAmt@@PBD@Z" PURGE="0" COMMENT="" />
    <EXPORT ORDINAL="234" NAME="?FCreateKid@@YAHAAVCPlanPackage@@AAVCPlanPersonElement@@HHHHPBDH@Z" PURGE="0" COMMENT="" />
    <EXPORT ORDINAL="235" NAME="?FDateGet@CPlanDateEdit@@QAEHPAVCPlanDate@@HH@Z" PURGE="12" COMMENT="" />
    <EXPORT ORDINAL="236" NAME="?FDoSetBeforeAfterMode@CDateSelector@@IAEHXZ" PURGE="0" COMMENT="" />
    <EXPORT ORDINAL="237" NAME="?FDoSetConditionalMode@CDateSelector@@IAEHXZ" PURGE="0" COMMENT="" />
    <EXPORT ORDINAL="238" NAME="?FDoSetFixedMode@CDateSelector@@IAEHXZ" PURGE="0" COMMENT="" />
    <EXPORT ORDINAL="239" NAME="?FDoSetPersonAgeMode@CDateSelector@@IAEHXZ" PURGE="0" COMMENT="" />
    <EXPORT ORDINAL="240" NAME="?FDoSetRelativeMode@CDateSelector@@IAEHXZ" PURGE="0" COMMENT="" />
    <EXPORT ORDINAL="241" NAME="?FDoubleClickBlank@CPackageListCtl@@QAEHXZ" PURGE="0" COMMENT="" />
    <EXPORT ORDINAL="242" NAME="?FDupDescriptionStr@@YAHABVCPlanModel@@PBDW4PLAN_FLDCOMP_MODE@@@Z" PURGE="0" COMMENT="" />
    <EXPORT ORDINAL="243" NAME="?FExcludePackage@CPackageListCtl@@UAEHABVCPlanPackage@@@Z" PURGE="4" COMMENT="" />
    <EXPORT ORDINAL="244" NAME="?FGenDetails@CAssumptionGen@@CAHPAW4PLAN_ROLE@@PBUKLCI@@PAVCPlanTextStream@@@Z" PURGE="0" COMMENT="" />
    <EXPORT ORDINAL="245" NAME="?FGenReport@CRptManager@@AAEHH@Z" PURGE="4" COMMENT="" />
    <EXPORT ORDINAL="246" NAME="?FGet@CDateSelector@@QAEHPAFH@Z" PURGE="8" COMMENT="" />
    <EXPORT ORDINAL="247" NAME="?FGet@CDateSelector@@QAEHPAVCPlanDateField@@H@Z" PURGE="8" COMMENT="" />
    <EXPORT ORDINAL="248" NAME="?FGet@CInflationSelector@@QAEHPAVCPlanField@@H@Z" PURGE="8" COMMENT="" />
    <EXPORT ORDINAL="249" NAME="?FGet@CPlanAmtEdit@@QAEHPAVCPlanAmt@@W4AMTFLAGS@@PAH@Z" PURGE="12" COMMENT="" />
    <EXPORT ORDINAL="250" NAME="?FGet@CPlanEndDateSelector@@QAEHABVCPlanDateField@@PAV2@ABVCPlanFreqField@@H@Z" PURGE="16" COMMENT="" />
    <EXPORT ORDINAL="251" NAME="?FGet@CPlanFrqSelector@@QAEHPAVCPlanFreqField@@PAVCPlanDateField@@1H@Z" PURGE="16" COMMENT="" />
    <EXPORT ORDINAL="252" NAME="?FGet@CTaxRateSelector@@QAEHPAVCPlanField@@H@Z" PURGE="8" COMMENT="" />
    <EXPORT ORDINAL="253" NAME="?FGetInternal@CDateSelector@@IAEHPAVCPlanDateField@@PAFPAJPAVPLAN_AMT@@H@Z" PURGE="20" COMMENT="" />
    <EXPORT ORDINAL="254" NAME="?FGetPersonInfo@CAssumptionGen@@SAHW4PLAN_ROLE@@PAD111@Z" PURGE="0" COMMENT="" />
    <EXPORT ORDINAL="255" NAME="?FIncludePackage@CPackageListCtl@@UAEHABVCPlanPackage@@@Z" PURGE="4" COMMENT="" />
    <EXPORT ORDINAL="256" NAME="?FIncludePackage@CPackageListIncome@@UAEHABVCPlanPackage@@@Z" PURGE="4" COMMENT="" />
    <EXPORT ORDINAL="257" NAME="?FIncludePackage@CPackageListPerson@@UAEHABVCPlanPackage@@@Z" PURGE="4" COMMENT="" />
    <EXPORT ORDINAL="258" NAME="?FIncludePackage@CPackageListSaving@@UAEHABVCPlanPackage@@@Z" PURGE="4" COMMENT="" />
    <EXPORT ORDINAL="259" NAME="?FInit@CPackageComboCtl@@QAEHPAVCWnd@@HAAVCPlanPackageList@@PBUKLCI@@@Z" PURGE="16" COMMENT="" />
    <EXPORT ORDINAL="260" NAME="?FInitCombo@CPackageComboIncome@@QAEHPAVCWnd@@H@Z" PURGE="8" COMMENT="" />
    <EXPORT ORDINAL="261" NAME="?FInitCombo@CPackageComboIncomeContribution@@QAEHPAVCWnd@@H@Z" PURGE="8" COMMENT="" />
    <EXPORT ORDINAL="262" NAME="?FInitCombo@CPackageComboLoan@@QAEHPAVCWnd@@H@Z" PURGE="8" COMMENT="" />
    <EXPORT ORDINAL="263" NAME="?FInitCombo@CPackageComboPerson@@QAEHPAVCWnd@@HHHH@Z" PURGE="20" COMMENT="" />
    <EXPORT ORDINAL="264" NAME="?FInitCombo@CPackageComboSaving@@QAEHPAVCWnd@@H@Z" PURGE="8" COMMENT="" />
    <EXPORT ORDINAL="265" NAME="?FInitIncomeList@CPackageListIncome@@QAEHXZ" PURGE="0" COMMENT="" />
    <EXPORT ORDINAL="266" NAME="?FInitList@CPackageListAdjRF@@QAEHHPAVCWnd@@H@Z" PURGE="12" COMMENT="" />
    <EXPORT ORDINAL="267" NAME="?FInitLoanList@CPackageListLoan@@QAEHXZ" PURGE="0" COMMENT="" />
    <EXPORT ORDINAL="268" NAME="?FInitPersonList@CPackageComboPerson@@QAEHHHH@Z" PURGE="12" COMMENT="" />
    <EXPORT ORDINAL="269" NAME="?FInitPersonList@CPackageListPerson@@QAEHHHH@Z" PURGE="12" COMMENT="" />
    <EXPORT ORDINAL="270" NAME="?FInitSavingList@CPackageListSaving@@QAEHXZ" PURGE="0" COMMENT="" />
    <EXPORT ORDINAL="271" NAME="?FLoad@CDateSelector@@QAEHABF@Z" PURGE="4" COMMENT="" />
    <EXPORT ORDINAL="272" NAME="?FLoad@CDateSelector@@QAEHABVCPlanDateField@@@Z" PURGE="4" COMMENT="" />
    <EXPORT ORDINAL="273" NAME="?FLoad@CInflationSelector@@QAEHABVCPlanField@@@Z" PURGE="4" COMMENT="" />
    <EXPORT ORDINAL="274" NAME="?FLoad@CPlanEndDateSelector@@QAEHABVCPlanDateField@@0ABVCPlanFreqField@@H@Z" PURGE="16" COMMENT="" />
    <EXPORT ORDINAL="275" NAME="?FLoad@CPlanFrqSelector@@QAEHABVCPlanFreqField@@@Z" PURGE="4" COMMENT="" />
    <EXPORT ORDINAL="276" NAME="?FLoad@CTaxRateSelector@@QAEHABVCPlanField@@@Z" PURGE="4" COMMENT="" />
    <EXPORT ORDINAL="277" NAME="?FLoadControls@CDateSelector@@QAEHPAVCWnd@@IABVCPlanPackage@@W4DATESELECTORFLAGS@@@Z" PURGE="16" COMMENT="" />
    <EXPORT ORDINAL="278" NAME="?FLoadControls@CInflationSelector@@QAEHPAVCWnd@@I@Z" PURGE="8" COMMENT="" />
    <EXPORT ORDINAL="279" NAME="?FLoadControls@CPlanEndDateSelector@@QAEHPAVCWnd@@IABVCPlanPackage@@@Z" PURGE="12" COMMENT="" />
    <EXPORT ORDINAL="280" NAME="?FLoadControls@CPlanFrqSelector@@QAEHPAVCWnd@@I@Z" PURGE="8" COMMENT="" />
    <EXPORT ORDINAL="281" NAME="?FLoadControls@CPlanNavPane@@QAEHPAVCPlace@@II@Z" PURGE="12" COMMENT="" />
    <EXPORT ORDINAL="282" NAME="?FLoadControls@CPlanNavPaneSB@@QAEHPAVCPlace@@I@Z" PURGE="8" COMMENT="" />
    <EXPORT ORDINAL="283" NAME="?FLoadControls@CPlanSlider@@QAEHPAVCWnd@@I@Z" PURGE="8" COMMENT="" />
    <EXPORT ORDINAL="284" NAME="?FLoadControls@CTaxRateSelector@@QAEHPAVCWnd@@I@Z" PURGE="8" COMMENT="" />
    <EXPORT ORDINAL="285" NAME="?FLoadList@CPlanNavPane@@QAEHXZ" PURGE="0" COMMENT="" />
    <EXPORT ORDINAL="286" NAME="?FLoadList@CPlanNavPaneSB@@QAEHXZ" PURGE="0" COMMENT="" />
    <EXPORT ORDINAL="287" NAME="?FOnlyOnce@CPlanFrqSelector@@QAEHXZ" PURGE="0" COMMENT="" />
    <EXPORT ORDINAL="288" NAME="?FPlannerUrl@CPlanUrlMgr@@SAHPBD@Z" PURGE="0" COMMENT="" />
    <EXPORT ORDINAL="289" NAME="?FPlannerUrlNavigate@CPlanUrlMgr@@SAHPBD@Z" PURGE="0" COMMENT="" />
    <EXPORT ORDINAL="290" NAME="?FPlannerUrlParseBegin@CPlanUrlMgr@@KAHPBDPAPADPAPBD@Z" PURGE="0" COMMENT="" />
    <EXPORT ORDINAL="291" NAME="?FRateAETRGet@@YAHPAVCPlanRate@@W4PLAN_FLDCOMP_MODE@@PAVCPlanAmt@@00@Z" PURGE="0" COMMENT="" />
    <EXPORT ORDINAL="292" NAME="?FReplaceControl@CSubDialogDll@@QAEHPAVCWnd@@II@Z" PURGE="12" COMMENT="" />
    <EXPORT ORDINAL="293" NAME="?FReplaceControl@CSubDlgMainComboDll@@QAEHPAVCWnd@@II@Z" PURGE="12" COMMENT="" />
    <EXPORT ORDINAL="294" NAME="?FRestoreContext@CPackageListCtl@@QAEHPAUIStream@@@Z" PURGE="4" COMMENT="" />
    <EXPORT ORDINAL="295" NAME="?FSaveContext@CPackageListCtl@@QAEHPAUIStream@@@Z" PURGE="4" COMMENT="" />
    <EXPORT ORDINAL="296" NAME="?FSaveMode@CPlanNavPane@@QAEHPAUIStream@@@Z" PURGE="4" COMMENT="" />
    <EXPORT ORDINAL="297" NAME="?FSearchHtblIndex@@YAHJJNPAJ@Z" PURGE="0" COMMENT="" />
    <EXPORT ORDINAL="298" NAME="?FSet@CPlanDateEdit@@QAEHVCPlanDate@@H@Z" PURGE="12" COMMENT="" />
    <EXPORT ORDINAL="299" NAME="?FSetMode@CPlanNavPane@@QAEHPAUIStream@@@Z" PURGE="4" COMMENT="" />
    <EXPORT ORDINAL="300" NAME="?FSetSizer@CPackageListCtl@@QAEHPAHHI@Z" PURGE="12" COMMENT="" />
    <EXPORT ORDINAL="301" NAME="?FSetSpecialDate@CDateSelector@@QAEHPBVCPlanField@@W4DLS@@@Z" PURGE="8" COMMENT="" />
    <EXPORT ORDINAL="302" NAME="?FShowUpgradeSummary@@YAHXZ" PURGE="0" COMMENT="" />
    <EXPORT ORDINAL="303" NAME="?FSkipBeneficiaries@@YAHABVCPlanPackage@@0@Z" PURGE="0" COMMENT="" />
    <EXPORT ORDINAL="304" NAME="?FUsePortfolio@@YAHABVCPlanPackage@@@Z" PURGE="0" COMMENT="" />
    <EXPORT ORDINAL="305" NAME="?FieldGet@CPackageListAdj@@MAE?AVCPlanField@@PBVLIP@@PBUKLCI@@@Z" PURGE="12" COMMENT="" />
    <EXPORT ORDINAL="306" NAME="?FieldGet@CPackageListCtl@@MAE?AVCPlanField@@PBVLIP@@PBUKLCI@@@Z" PURGE="12" COMMENT="" />
    <EXPORT ORDINAL="307" NAME="?FillSz@CPlanAmt@@QBEXPADHH@Z" PURGE="12" COMMENT="" />
    <EXPORT ORDINAL="308" NAME="?FillSz@CPlanDate@@QBEXPADH@Z" PURGE="8" COMMENT="" />
    <EXPORT ORDINAL="309" NAME="?FillSz@CPlanRate@@QBEXPADH@Z" PURGE="8" COMMENT="" />
    <EXPORT ORDINAL="310" NAME="?FillSzAge@@YAXFPADHH@Z" PURGE="0" COMMENT="" />
    <EXPORT ORDINAL="311" NAME="?FillSzAmount@@YAXVPLAN_AMT@@PADH@Z" PURGE="0" COMMENT="" />
    <EXPORT ORDINAL="312" NAME="?FillSzDate@@YAXFPADH@Z" PURGE="0" COMMENT="" />
    <EXPORT ORDINAL="313" NAME="?FillSzRate@@YAXNPADH@Z" PURGE="0" COMMENT="" />
    <EXPORT ORDINAL="314" NAME="FillSzSuggestedName" PURGE="0" COMMENT="" />
    <EXPORT ORDINAL="315" NAME="?FixSecondaryRateAdvancedRefs@@YAXVCPlanModel@@ABVCPlanPersonElement@@@Z" PURGE="0" COMMENT="" />
    <EXPORT ORDINAL="316" NAME="?FldGlobalGet@@YA?AVCPlanField@@W4PLAN_ROLE@@@Z" PURGE="0" COMMENT="" />
    <EXPORT ORDINAL="317" NAME="?GenAboutYou@CAssumptionGen@@CAXPAVCPlanTextStream@@H@Z" PURGE="0" COMMENT="" />
    <EXPORT ORDINAL="318" NAME="?GenAcct@CAssumptionGen@@CAXPAVCPlanTextStream@@H@Z" PURGE="0" COMMENT="" />
    <EXPORT ORDINAL="319" NAME="?GenAsset@CAssumptionGen@@CAXPAVCPlanTextStream@@H@Z" PURGE="0" COMMENT="" />
    <EXPORT ORDINAL="320" NAME="?GenCareer@CAssumptionGen@@CAXPAVCPlanTextStream@@H@Z" PURGE="0" COMMENT="" />
    <EXPORT ORDINAL="321" NAME="?GenCareerForPerson@CAssumptionGen@@CAXPAVCPlanTextStream@@W4PLAN_ROLE@@H@Z" PURGE="0" COMMENT="" />
    <EXPORT ORDINAL="322" NAME="?GenContent@CActionGen@@SAXPAVCPlanTextStream@@H@Z" PURGE="0" COMMENT="" />
    <EXPORT ORDINAL="323" NAME="?GenContent@CAdviceGen@@SAXPAVCPlanTextStream@@H@Z" PURGE="0" COMMENT="" />
    <EXPORT ORDINAL="324" NAME="?GenContent@CAssumptionGen@@SAXPAVCPlanTextStream@@H@Z" PURGE="0" COMMENT="" />
    <EXPORT ORDINAL="325" NAME="?GenContrib@CAssumptionGen@@CAXPAVCPlanTextStream@@H@Z" PURGE="0" COMMENT="" />
    <EXPORT ORDINAL="326" NAME="?GenExpense@CAssumptionGen@@CAXPAVCPlanTextStream@@H@Z" PURGE="0" COMMENT="" />
    <EXPORT ORDINAL="327" NAME="?GenIncome@CAssumptionGen@@CAXPAVCPlanTextStream@@H@Z" PURGE="0" COMMENT="" />
    <EXPORT ORDINAL="328" NAME="?GenInsurance@CAssumptionGen@@CAXPAVCPlanTextStream@@H@Z" PURGE="0" COMMENT="" />
    <EXPORT ORDINAL="329" NAME="?GenLivingExp@CAssumptionGen@@CAXPAVCPlanTextStream@@H@Z" PURGE="0" COMMENT="" />
    <EXPORT ORDINAL="330" NAME="?GenLoan@CAssumptionGen@@CAXPAVCPlanTextStream@@H@Z" PURGE="0" COMMENT="" />
    <EXPORT ORDINAL="331" NAME="?GenOption@CAssumptionGen@@CAXPAVCPlanTextStream@@H@Z" PURGE="0" COMMENT="" />
    <EXPORT ORDINAL="332" NAME="?GenReturn@CAssumptionGen@@CAXPAVCPlanTextStream@@H@Z" PURGE="0" COMMENT="" />
    <EXPORT ORDINAL="333" NAME="?GenTaxInflation@CAssumptionGen@@CAXPAVCPlanTextStream@@H@Z" PURGE="0" COMMENT="" />
    <EXPORT ORDINAL="334" NAME="?GenTitle@CAssumptionGen@@CAXPAVCPlanTextStream@@@Z" PURGE="0" COMMENT="" />
    <EXPORT ORDINAL="335" NAME="?GetEventSinkMap@CPlanSlider@@MBEPBUAFX_EVENTSINKMAP@@XZ" PURGE="0" COMMENT="" />
    <EXPORT ORDINAL="336" NAME="?GetFutureLivExpAmt@@YA?AVCPlanAmt@@FHW4PLAN_FLDCOMP_MODE@@@Z" PURGE="0" COMMENT="" />
    <EXPORT ORDINAL="337" NAME="?GetInvestmentRate@@YANPANPAVCPlanAmt@@@Z" PURGE="0" COMMENT="" />
    <EXPORT ORDINAL="338" NAME="?GetItemText@CPackageListCtl@@UAEPBDH@Z" PURGE="4" COMMENT="" />
    <EXPORT ORDINAL="339" NAME="?GetMessageMap@CDateSelector@@MBEPBUAFX_MSGMAP@@XZ" PURGE="0" COMMENT="" />
    <EXPORT ORDINAL="340" NAME="?GetMessageMap@CInflationSelector@@MBEPBUAFX_MSGMAP@@XZ" PURGE="0" COMMENT="" />
    <EXPORT ORDINAL="341" NAME="?GetMessageMap@CPackageListCtl@@MBEPBUAFX_MSGMAP@@XZ" PURGE="0" COMMENT="" />
    <EXPORT ORDINAL="342" NAME="?GetMessageMap@CPlanDetailCtrl@@MBEPBUAFX_MSGMAP@@XZ" PURGE="0" COMMENT="" />
    <EXPORT ORDINAL="343" NAME="?GetMessageMap@CPlanEndDateSelector@@MBEPBUAFX_MSGMAP@@XZ" PURGE="0" COMMENT="" />
    <EXPORT ORDINAL="344" NAME="?GetMessageMap@CPlanFrqSelector@@MBEPBUAFX_MSGMAP@@XZ" PURGE="0" COMMENT="" />
    <EXPORT ORDINAL="345" NAME="?GetMessageMap@CPlanNavPane@@MBEPBUAFX_MSGMAP@@XZ" PURGE="0" COMMENT="" />
    <EXPORT ORDINAL="346" NAME="?GetMessageMap@CPlanNavPaneSB@@MBEPBUAFX_MSGMAP@@XZ" PURGE="0" COMMENT="" />
    <EXPORT ORDINAL="347" NAME="?GetMessageMap@CPlanSlider@@MBEPBUAFX_MSGMAP@@XZ" PURGE="0" COMMENT="" />
    <EXPORT ORDINAL="348" NAME="?GetMessageMap@CTaxRateSelector@@MBEPBUAFX_MSGMAP@@XZ" PURGE="0" COMMENT="" />
    <EXPORT ORDINAL="349" NAME="?GetRealKLCI@CPackageListAdj@@AAEPBUKLCI@@PBVLIP@@PBU2@@Z" PURGE="8" COMMENT="" />
    <EXPORT ORDINAL="350" NAME="?GetRealKLCIAdj@@YAPBUKLCI@@PBVLIP@@PBU1@@Z" PURGE="0" COMMENT="" />
    <EXPORT ORDINAL="351" NAME="?HcrncFromAcctPkg@@YAJABVCPlanPackage@@@Z" PURGE="0" COMMENT="" />
    <EXPORT ORDINAL="352" NAME="?HobjFromAcctPackage@@YAJABVCPlanPackage@@@Z" PURGE="0" COMMENT="" />
    <EXPORT ORDINAL="353" NAME="?HrDetailElement@CPlanDetailGen@@SAJPBVCPlanElement@@W4ElementDetailLevel@@PAVCPlanTextStream@@W4PLAN_FLDCOMP_MODE@@@Z" PURGE="0" COMMENT="" />
    <EXPORT ORDINAL="354" NAME="?HrDetailField@CPlanDetailGen@@SAJPBVCPlanField@@W4FieldDetailLevel@@PAVCPlanTextStream@@W4PLAN_FLDCOMP_MODE@@@Z" PURGE="0" COMMENT="" />
    <EXPORT ORDINAL="355" NAME="?HrDetailPackage@CPlanDetailGen@@SAJPBVCPlanPackage@@W4PackageDetailLevel@@PAVCPlanTextStream@@@Z" PURGE="0" COMMENT="" />
    <EXPORT ORDINAL="356" NAME="?HrDetailString@CPlanDetailGen@@SAJPAUHINSTANCE__@@HPADPAVCPlanTextStream@@@Z" PURGE="0" COMMENT="" />
    <EXPORT ORDINAL="357" NAME="?HrWrite@CPlanTextStream@@QAAJPAUHINSTANCE__@@KPBDZZ" PURGE="0" COMMENT="" />
    <EXPORT ORDINAL="358" NAME="?HrWrite@CPlanTextStream@@QAEJPAUHINSTANCE__@@K@Z" PURGE="8" COMMENT="" />
    <EXPORT ORDINAL="359" NAME="?HrWrite@CPlanTextStream@@QAEJPBD@Z" PURGE="4" COMMENT="" />
    <EXPORT ORDINAL="360" NAME="HtmlGenModelYear" PURGE="0" COMMENT="" />
    <EXPORT ORDINAL="361" NAME="?HwndCheckBoxGet@CPlanDetailCtrl@@QAEQAUHWND__@@XZ" PURGE="0" COMMENT="" />
    <EXPORT ORDINAL="362" NAME="?IDDGet@CDateSelector@@UAEHXZ" PURGE="0" COMMENT="" />
    <EXPORT ORDINAL="363" NAME="?IDDGet@CInflationSelector@@UAEHXZ" PURGE="0" COMMENT="" />
    <EXPORT ORDINAL="364" NAME="?IDDGet@CPlanDetailCtrl@@UAEHXZ" PURGE="0" COMMENT="" />
    <EXPORT ORDINAL="365" NAME="?IDDGet@CPlanEndDateSelector@@UAEHXZ" PURGE="0" COMMENT="" />
    <EXPORT ORDINAL="366" NAME="?IDDGet@CPlanFrqNoOnceSelector@@UAEHXZ" PURGE="0" COMMENT="" />
    <EXPORT ORDINAL="367" NAME="?IDDGet@CPlanFrqSelector@@UAEHXZ" PURGE="0" COMMENT="" />
    <EXPORT ORDINAL="368" NAME="?IDDGet@CPlanNavPane@@UAEHXZ" PURGE="0" COMMENT="" />
    <EXPORT ORDINAL="369" NAME="?IDDGet@CPlanNavPaneSB@@UAEHXZ" PURGE="0" COMMENT="" />
    <EXPORT ORDINAL="370" NAME="?IDDGet@CPlanSlider@@UAEHXZ" PURGE="0" COMMENT="" />
    <EXPORT ORDINAL="371" NAME="?IDDGet@CTaxRateSelector@@UAEHXZ" PURGE="0" COMMENT="" />
    <EXPORT ORDINAL="372" NAME="?IItemFind@CPackageListCtl@@MAEHHHPAD@Z" PURGE="12" COMMENT="" />
    <EXPORT ORDINAL="373" NAME="?IReportFromType@CRptManager@@AAEHW4RPTT@@W4RPTSUB@@@Z" PURGE="8" COMMENT="" />
    <EXPORT ORDINAL="374" NAME="?IitemFromElid@CPackageComboCtl@@QAEHABJ@Z" PURGE="4" COMMENT="" />
    <EXPORT ORDINAL="375" NAME="?IitemFromElid@CPackageListCtl@@QAEHABJ@Z" PURGE="4" COMMENT="" />
    <EXPORT ORDINAL="376" NAME="?IitemFromPackage@CPackageComboCtl@@QAEHABVCPlanPackage@@@Z" PURGE="4" COMMENT="" />
    <EXPORT ORDINAL="377" NAME="?IitemFromPackage@CPackageListCtl@@QAEHABVCPlanPackage@@@Z" PURGE="4" COMMENT="" />
    <EXPORT ORDINAL="378" NAME="?Init@CPlanTextStream@@IAEXXZ" PURGE="0" COMMENT="" />
    <EXPORT ORDINAL="379" NAME="?InitSelection@CPlanNavPane@@IAEXXZ" PURGE="0" COMMENT="" />
    <EXPORT ORDINAL="380" NAME="?InitSelection@CPlanNavPaneSB@@QAEXXZ" PURGE="0" COMMENT="" />
    <EXPORT ORDINAL="381" NAME="?InsertGraphs@CRptManager@@SAXPAVCString@@@Z" PURGE="0" COMMENT="" />
    <EXPORT ORDINAL="382" NAME="?MdlGet@CPlanAmt@@QBEABVCPlanModel@@XZ" PURGE="0" COMMENT="" />
    <EXPORT ORDINAL="383" NAME="?MonGet@CPlanDate@@QBEHXZ" PURGE="0" COMMENT="" />
    <EXPORT ORDINAL="384" NAME="?NDayGet@CPlanDate@@QBEABHXZ" PURGE="0" COMMENT="" />
    <EXPORT ORDINAL="385" NAME="?NavfsPrimaryGet@CPlanNavPane@@QAE?AW4NAVPANE_FORCESTATE@@XZ" PURGE="0" COMMENT="" />
    <EXPORT ORDINAL="386" NAME="?NavfsSecondaryGet@CPlanNavPane@@QAE?AW4NAVPANE_FORCESTATE@@XZ" PURGE="0" COMMENT="" />
    <EXPORT ORDINAL="387" NAME="?OnAmbientProperty@CPlanSlider@@MAEHPAVCOleControlSite@@JPAUtagVARIANT@@@Z" PURGE="12" COMMENT="" />
    <EXPORT ORDINAL="388" NAME="?OnAmount@CPlanSlider@@IAEXXZ" PURGE="0" COMMENT="" />
    <EXPORT ORDINAL="389" NAME="?OnAutomationData@CDateSelector@@IAEJIJ@Z" PURGE="8" COMMENT="" />
    <EXPORT ORDINAL="390" NAME="?OnBeforeNavigate@CPlanDetailCtrl@@QAEJIJ@Z" PURGE="8" COMMENT="" />
    <EXPORT ORDINAL="391" NAME="?OnChangeRate@CInflationSelector@@IAEXXZ" PURGE="0" COMMENT="" />
    <EXPORT ORDINAL="392" NAME="?OnChangeRate@CTaxRateSelector@@QAEXXZ" PURGE="0" COMMENT="" />
    <EXPORT ORDINAL="393" NAME="?OnChar@CPackageListCtl@@IAEXIII@Z" PURGE="12" COMMENT="" />
    <EXPORT ORDINAL="394" NAME="?OnChgCol@CPackageListCtl@@IAEJIJ@Z" PURGE="8" COMMENT="" />
    <EXPORT ORDINAL="395" NAME="?OnControlType@CDateSelector@@IAEJIJ@Z" PURGE="8" COMMENT="" />
    <EXPORT ORDINAL="396" NAME="?OnDKillFocus@CDateSelector@@IAEXXZ" PURGE="0" COMMENT="" />
    <EXPORT ORDINAL="397" NAME="?OnDeltaPos@CPlanSlider@@IAEXPAUtagNMHDR@@PAJ@Z" PURGE="8" COMMENT="" />
    <EXPORT ORDINAL="398" NAME="?OnDestroy@CPackageListCtl@@IAEXXZ" PURGE="0" COMMENT="" />
    <EXPORT ORDINAL="399" NAME="?OnDestroy@CPlanDetailCtrl@@QAEXXZ" PURGE="-1" COMMENT="" />
    <EXPORT ORDINAL="400" NAME="?OnEnable@CDateSelector@@IAEXH@Z" PURGE="4" COMMENT="" />
    <EXPORT ORDINAL="401" NAME="?OnEraseBkgnd@CPlanDetailCtrl@@QAEHPAVCDC@@@Z" PURGE="4" COMMENT="" />
    <EXPORT ORDINAL="402" NAME="?OnExclude@CPlanDetailCtrl@@QAEXXZ" PURGE="0" COMMENT="" />
    <EXPORT ORDINAL="403" NAME="?OnFinalRelease@CPackageListCtl@@UAEXXZ" PURGE="0" COMMENT="" />
    <EXPORT ORDINAL="404" NAME="?OnFinalRelease@CPlanNavPane@@UAEXXZ" PURGE="0" COMMENT="" />
    <EXPORT ORDINAL="405" NAME="?OnFinalRelease@CPlanNavPaneSB@@UAEXXZ" PURGE="0" COMMENT="" />
    <EXPORT ORDINAL="406" NAME="?OnFindString@CPackageListCtl@@IAEJIJ@Z" PURGE="8" COMMENT="" />
    <EXPORT ORDINAL="407" NAME="?OnFindStringExact@CPackageListCtl@@IAEJIJ@Z" PURGE="8" COMMENT="" />
    <EXPORT ORDINAL="408" NAME="?OnHandleEnable@CInflationSelector@@UAEXH@Z" PURGE="4" COMMENT="" />
    <EXPORT ORDINAL="409" NAME="?OnHandleEnable@CTaxRateSelector@@UAEXH@Z" PURGE="4" COMMENT="" />
    <EXPORT ORDINAL="410" NAME="?OnInit@CRptManager@@QAEXPAUHWND__@@PAUHINSTANCE__@@@Z" PURGE="8" COMMENT="" />
    <EXPORT ORDINAL="411" NAME="?OnInitDialog@CPlanDetailCtrl@@UAEHXZ" PURGE="0" COMMENT="" />
    <EXPORT ORDINAL="412" NAME="?OnInitDialog@CPlanSlider@@MAEHXZ" PURGE="0" COMMENT="" />
    <EXPORT ORDINAL="413" NAME="?OnKillFocus@CDateSelector@@IAEXPAVCWnd@@@Z" PURGE="4" COMMENT="" />
    <EXPORT ORDINAL="414" NAME="?OnLButtonDblClk@CPackageListCtl@@IAEXIVCPoint@@@Z" PURGE="12" COMMENT="" />
    <EXPORT ORDINAL="415" NAME="?OnLabelClicked@CPlanSlider@@IAEXHJ@Z" PURGE="8" COMMENT="" />
    <EXPORT ORDINAL="416" NAME="?OnNextAccel@CPlanNavPane@@QAEXXZ" PURGE="-1" COMMENT="" />
    <EXPORT ORDINAL="417" NAME="?OnNotify@CPackageListCtl@@UAEJJJ@Z" PURGE="8" COMMENT="" />
    <EXPORT ORDINAL="418" NAME="?OnNotify@CPlanNavPane@@UAEJJJ@Z" PURGE="8" COMMENT="" />
    <EXPORT ORDINAL="419" NAME="?OnNotify@CPlanNavPaneSB@@UAEJJJ@Z" PURGE="8" COMMENT="" />
    <EXPORT ORDINAL="420" NAME="?OnPassiveX@CRptManager@@QAEJIJ@Z" PURGE="8" COMMENT="" />
    <EXPORT ORDINAL="421" NAME="?OnPassiveXPrint@CRptManager@@QAEJIJ@Z" PURGE="8" COMMENT="" />
    <EXPORT ORDINAL="422" NAME="?OnPlannerNav@CPlanNavPane@@QAEXK@Z" PURGE="4" COMMENT="" />
    <EXPORT ORDINAL="423" NAME="?OnPopup@CDateSelector@@IAEXXZ" PURGE="0" COMMENT="" />
    <EXPORT ORDINAL="424" NAME="?OnPostNotify@CPackageListCtl@@UAEXJJ@Z" PURGE="8" COMMENT="" />
    <EXPORT ORDINAL="425" NAME="?OnPreNotify@CPackageListAdjRF@@UAEXJJPAH00PAI1@Z" PURGE="28" COMMENT="" />
    <EXPORT ORDINAL="426" NAME="?OnPreNotify@CPackageListCtl@@UAEXJJPAH00PAI1@Z" PURGE="28" COMMENT="" />
    <EXPORT ORDINAL="427" NAME="?OnPrevAccel@CPlanNavPane@@QAEXXZ" PURGE="0" COMMENT="" />
    <EXPORT ORDINAL="428" NAME="?OnQueryOpaque@CPackageListCtl@@IAEJIJ@Z" PURGE="8" COMMENT="" />
    <EXPORT ORDINAL="429" NAME="?OnRangeModified@CPlanSlider@@IAEXJJ@Z" PURGE="8" COMMENT="" />
    <EXPORT ORDINAL="430" NAME="?OnSelChange@CPlanEndDateSelector@@QAEXI@Z" PURGE="4" COMMENT="" />
    <EXPORT ORDINAL="431" NAME="?OnSelChange@CPlanFrqSelector@@QAEXI@Z" PURGE="4" COMMENT="" />
    <EXPORT ORDINAL="432" NAME="?OnSelChange@CPlanNavPane@@IAEXI@Z" PURGE="4" COMMENT="" />
    <EXPORT ORDINAL="433" NAME="?OnSelChange@CPlanNavPaneSB@@IAEXI@Z" PURGE="4" COMMENT="" />
    <EXPORT ORDINAL="434" NAME="?OnSetFocus@CDateSelector@@IAEXPAVCWnd@@@Z" PURGE="4" COMMENT="" />
    <EXPORT ORDINAL="435" NAME="?OnSetFocusSlider@CPlanSlider@@IAEXXZ" PURGE="0" COMMENT="" />
    <EXPORT ORDINAL="436" NAME="?OnSize@CPackageListCtl@@IAEXIHH@Z" PURGE="12" COMMENT="" />
    <EXPORT ORDINAL="437" NAME="?OnSize@CPlanNavPane@@IAEXIHH@Z" PURGE="12" COMMENT="" />
    <EXPORT ORDINAL="438" NAME="?OnSize@CPlanNavPaneSB@@IAEXIHH@Z" PURGE="12" COMMENT="" />
    <EXPORT ORDINAL="439" NAME="?OnSpecialDateButtonSetFocus@CDateSelector@@IAEXXZ" PURGE="0" COMMENT="" />
    <EXPORT ORDINAL="440" NAME="?OnUpdateAge@CDateSelector@@IAEXXZ" PURGE="0" COMMENT="" />
    <EXPORT ORDINAL="441" NAME="?OnVScroll@CInflationSelector@@IAEXIIPAVCScrollBar@@@Z" PURGE="12" COMMENT="" />
    <EXPORT ORDINAL="442" NAME="?OnVScroll@CTaxRateSelector@@QAEXIIPAVCScrollBar@@@Z" PURGE="12" COMMENT="" />
    <EXPORT ORDINAL="443" NAME="?OnValueChangedSlider@CPlanSlider@@IAEXJ@Z" PURGE="4" COMMENT="" />
    <EXPORT ORDINAL="444" NAME="?OnValueChangingSlider@CPlanSlider@@IAEXJ@Z" PURGE="4" COMMENT="" />
    <EXPORT ORDINAL="445" NAME="?OnWinIniChange@CPlanDetailCtrl@@QAEXPBD@Z" PURGE="4" COMMENT="" />
    <EXPORT ORDINAL="446" NAME="?PackageCreate@CPackageComboCtl@@UAE?AVCPlanPackage@@PAD@Z" PURGE="8" COMMENT="" />
    <EXPORT ORDINAL="447" NAME="?PackageCreate@CPackageComboIncome@@UAE?AVCPlanPackage@@PAD@Z" PURGE="8" COMMENT="" />
    <EXPORT ORDINAL="448" NAME="?PackageCreate@CPackageComboIncomeContribution@@UAE?AVCPlanPackage@@PAD@Z" PURGE="8" COMMENT="" />
    <EXPORT ORDINAL="449" NAME="?PackageCreate@CPackageComboLoan@@UAE?AVCPlanPackage@@PAD@Z" PURGE="8" COMMENT="" />
    <EXPORT ORDINAL="450" NAME="?PackageCreate@CPackageComboPerson@@QAE?AVCPlanPackage@@PADW4EDITPPAGE@@@Z" PURGE="12" COMMENT="" />
    <EXPORT ORDINAL="451" NAME="?PackageCreate@CPackageComboPerson@@UAE?AVCPlanPackage@@PAD@Z" PURGE="8" COMMENT="" />
    <EXPORT ORDINAL="452" NAME="?PackageCreate@CPackageComboSaving@@UAE?AVCPlanPackage@@PAD@Z" PURGE="8" COMMENT="" />
    <EXPORT ORDINAL="453" NAME="?PackageCurGet@CPackageComboCtl@@QAE?AVCPlanPackage@@H@Z" PURGE="8" COMMENT="" />
    <EXPORT ORDINAL="454" NAME="?PackageCurGet@CPackageComboPerson@@QAE?AVCPlanPackage@@HW4EDITPPAGE@@@Z" PURGE="12" COMMENT="" />
    <EXPORT ORDINAL="455" NAME="?PackageCurGet@CPackageListCtl@@QAE?AVCPlanPackage@@XZ" PURGE="4" COMMENT="" />
    <EXPORT ORDINAL="456" NAME="?PackageFromIitem@CPackageComboCtl@@QAE?AVCPlanPackage@@H@Z" PURGE="8" COMMENT="" />
    <EXPORT ORDINAL="457" NAME="?PackageFromIitem@CPackageListCtl@@QAE?AVCPlanPackage@@H@Z" PURGE="8" COMMENT="" />
    <EXPORT ORDINAL="458" NAME="PlanDateCur" PURGE="0" COMMENT="" />
    <EXPORT ORDINAL="459" NAME="?PlanFindSalaryPkg@@YA?AVCPlanPackage@@ABVCPlanPersonElement@@@Z" PURGE="0" COMMENT="" />
    <EXPORT ORDINAL="460" NAME="?PlbPackGet@CPackageComboIncome@@UAEPAVCPackageListCtl@@XZ" PURGE="0" COMMENT="" />
    <EXPORT ORDINAL="461" NAME="?PlbPackGet@CPackageComboIncomeContribution@@UAEPAVCPackageListCtl@@XZ" PURGE="0" COMMENT="" />
    <EXPORT ORDINAL="462" NAME="?PlbPackGet@CPackageComboLoan@@UAEPAVCPackageListCtl@@XZ" PURGE="0" COMMENT="" />
    <EXPORT ORDINAL="463" NAME="?PlbPackGet@CPackageComboPerson@@UAEPAVCPackageListCtl@@XZ" PURGE="0" COMMENT="" />
    <EXPORT ORDINAL="464" NAME="?PlbPackGet@CPackageComboSaving@@UAEPAVCPackageListCtl@@XZ" PURGE="0" COMMENT="" />
    <EXPORT ORDINAL="465" NAME="?PlipFromIitem@CPackageComboCtl@@QAEPBVLIP@@H@Z" PURGE="4" COMMENT="" />
    <EXPORT ORDINAL="466" NAME="?PlipFromIitem@CPackageListCtl@@QAEPBVLIP@@H@Z" PURGE="4" COMMENT="" />
    <EXPORT ORDINAL="467" NAME="?PlistboxGet@CPackageComboCtl@@EAEPAVCMoneyMCListBox@@XZ" PURGE="-1" COMMENT="" />
    <EXPORT ORDINAL="468" NAME="?PreTranslateMessage@CPlanSlider@@UAEHPAUtagMSG@@@Z" PURGE="4" COMMENT="" />
    <EXPORT ORDINAL="469" NAME="?PrziGet@CPlanDetailCtrl@@MAEPAURESIZEINFO@@XZ" PURGE="0" COMMENT="" />
    <EXPORT ORDINAL="470" NAME="?PsizerGet@CPackageListCtl@@QAEPAVCSizer@@XZ" PURGE="0" COMMENT="" />
    <EXPORT ORDINAL="471" NAME="?RateInflationCur@@YA?AVCPlanRateField@@XZ" PURGE="0" COMMENT="" />
    <EXPORT ORDINAL="472" NAME="?RateTaxCur@@YA?AVCPlanRateField@@XZ" PURGE="0" COMMENT="" />
    <EXPORT ORDINAL="473" NAME="?ResetGraphCount@CRptManager@@SAXXZ" PURGE="0" COMMENT="" />
    <EXPORT ORDINAL="474" NAME="?ResetReports@CRptManager@@AAEXXZ" PURGE="0" COMMENT="" />
    <EXPORT ORDINAL="475" NAME="?ResetTabs@CPackageListCtl@@QAEXXZ" PURGE="0" COMMENT="" />
    <EXPORT ORDINAL="476" NAME="?RunForecast@CPackageListAdjRF@@AAEXXZ" PURGE="0" COMMENT="" />
    <EXPORT ORDINAL="477" NAME="?SFormat@CPlanAmt@@IBE?AVCString@@HH@Z" PURGE="12" COMMENT="" />
    <EXPORT ORDINAL="478" NAME="?SectionBR@CActionGen@@CAXPAVCPlanTextStream@@@Z" PURGE="0" COMMENT="" />
    <EXPORT ORDINAL="479" NAME="?SectionBR@CAssumptionGen@@CAXPAVCPlanTextStream@@@Z" PURGE="0" COMMENT="" />
    <EXPORT ORDINAL="480" NAME="?SectionHR@CActionGen@@CAXPAVCPlanTextStream@@@Z" PURGE="0" COMMENT="" />
    <EXPORT ORDINAL="481" NAME="?SectionHR@CAssumptionGen@@CAXPAVCPlanTextStream@@@Z" PURGE="0" COMMENT="" />
    <EXPORT ORDINAL="482" NAME="?SelectPackage@CPackageComboCtl@@QAEHABVCPlanPackage@@@Z" PURGE="4" COMMENT="" />
    <EXPORT ORDINAL="483" NAME="?SelectPackage@CPackageListCtl@@QAEHABVCPlanPackage@@@Z" PURGE="4" COMMENT="" />
    <EXPORT ORDINAL="484" NAME="?SelectPackage@CPackageListCtl@@QAEHJ@Z" PURGE="4" COMMENT="" />
    <EXPORT ORDINAL="485" NAME="?SendSelChange@CPackageListCtl@@IAEXXZ" PURGE="0" COMMENT="" />
    <EXPORT ORDINAL="486" NAME="?Set@CPlanAmtEdit@@QAEXABVCPlanAmt@@@Z" PURGE="4" COMMENT="" />
    <EXPORT ORDINAL="487" NAME="?SetAge@CDateSelector@@IAEXF@Z" PURGE="4" COMMENT="" />
    <EXPORT ORDINAL="488" NAME="?SetAmount@CPlanSlider@@IAEXXZ" PURGE="0" COMMENT="" />
    <EXPORT ORDINAL="489" NAME="?SetAmount@CPlanSlider@@QAEXJ@Z" PURGE="4" COMMENT="" />
    <EXPORT ORDINAL="490" NAME="?SetCtlCurrName@CPlanAmtEdit@@QAEXPAUHWND__@@@Z" PURGE="4" COMMENT="" />
    <EXPORT ORDINAL="491" NAME="?SetCtlCurrSymbol@CPlanAmtEdit@@QAEXPAUHWND__@@@Z" PURGE="4" COMMENT="" />
    <EXPORT ORDINAL="492" NAME="?SetDefault@CDateSelector@@QAEXXZ" PURGE="0" COMMENT="" />
    <EXPORT ORDINAL="493" NAME="?SetEDIAmt@CPlanAmt@@QAEXABN@Z" PURGE="4" COMMENT="" />
    <EXPORT ORDINAL="494" NAME="?SetEDIAmt@CPlanAmt@@QAEXABNABVCPlanModel@@@Z" PURGE="8" COMMENT="" />
    <EXPORT ORDINAL="495" NAME="?SetFixDateMode@CDateSelector@@QAEXH@Z" PURGE="4" COMMENT="" />
    <EXPORT ORDINAL="496" NAME="?SetFixedDate@CDateSelector@@IAEXHH@Z" PURGE="8" COMMENT="" />
    <EXPORT ORDINAL="497" NAME="?SetFldCompMode@CPackageListCtl@@QAEXW4PLAN_FLDCOMP_MODE@@@Z" PURGE="4" COMMENT="" />
    <EXPORT ORDINAL="498" NAME="?SetFromCyr@CPlanDate@@QAEXH@Z" PURGE="4" COMMENT="" />
    <EXPORT ORDINAL="499" NAME="?SetHcrnc@CPlanAmtEdit@@QAEXJ@Z" PURGE="4" COMMENT="" />
    <EXPORT ORDINAL="500" NAME="?SetHwndMainCustom@CRptManager@@SAXPAUHWND__@@@Z" PURGE="0" COMMENT="" />
    <EXPORT ORDINAL="501" NAME="?SetList@CPackageListCtl@@QAEXAAVCPlanPackageList@@@Z" PURGE="4" COMMENT="" />
    <EXPORT ORDINAL="502" NAME="?SetMainList@CInflationSelector@@UAEXH@Z" PURGE="4" COMMENT="" />
    <EXPORT ORDINAL="503" NAME="?SetMainList@CTaxRateSelector@@UAEXH@Z" PURGE="4" COMMENT="" />
    <EXPORT ORDINAL="504" NAME="?SetMdl@CPlanAmt@@QAEXABVCPlanModel@@@Z" PURGE="4" COMMENT="" />
    <EXPORT ORDINAL="505" NAME="?SetNDay@CPlanDate@@QAEXH@Z" PURGE="4" COMMENT="" />
    <EXPORT ORDINAL="506" NAME="?SetNavfsPrimary@CPlanNavPane@@QAEXW4NAVPANE_FORCESTATE@@@Z" PURGE="4" COMMENT="" />
    <EXPORT ORDINAL="507" NAME="?SetNavfsSecondary@CPlanNavPane@@QAEXW4NAVPANE_FORCESTATE@@@Z" PURGE="4" COMMENT="" />
    <EXPORT ORDINAL="508" NAME="?SetNoAETR@CTaxRateSelector@@QAEXXZ" PURGE="0" COMMENT="" />
    <EXPORT ORDINAL="509" NAME="?SetRangeTop@CPlanSlider@@QAEXJ@Z" PURGE="4" COMMENT="" />
    <EXPORT ORDINAL="510" NAME="?SetRgklci@CPackageListCtl@@QAEXPBUKLCI@@@Z" PURGE="4" COMMENT="" />
    <EXPORT ORDINAL="511" NAME="?SetSalaryDescription@@YAXABVCPlanPersonElement@@@Z" PURGE="0" COMMENT="" />
    <EXPORT ORDINAL="512" NAME="?SetTodayDollar@CPackageListAdjRF@@QAEXH@Z" PURGE="4" COMMENT="" />
    <EXPORT ORDINAL="513" NAME="?SetTodayDollar@CRptManager@@QAEXH@Z" PURGE="4" COMMENT="" />
    <EXPORT ORDINAL="514" NAME="?SetUpNavBar@CPlanNavPane@@QAEXABU_GUID@@@Z" PURGE="4" COMMENT="" />
    <EXPORT ORDINAL="515" NAME="?SetUpNavBar@CPlanNavPaneSB@@QAEXABU_GUID@@@Z" PURGE="4" COMMENT="" />
    <EXPORT ORDINAL="516" NAME="?SetXdt@CPlanDate@@QAEXF@Z" PURGE="4" COMMENT="" />
    <EXPORT ORDINAL="517" NAME="?SgnCmpCustomPackItem@CPackageListCtl@@UAEHPBVLIP@@0@Z" PURGE="8" COMMENT="" />
    <EXPORT ORDINAL="518" NAME="?SgnCmpField@@YAHABVCPlanField@@0W4PLAN_FLDCOMP_MODE@@@Z" PURGE="0" COMMENT="" />
    <EXPORT ORDINAL="519" NAME="?ShowPackage@CPlanDetailCtrl@@QAEXABVCPlanPackage@@@Z" PURGE="4" COMMENT="" />
    <EXPORT ORDINAL="520" NAME="?ShowRateError@CInflationSelector@@AAEXNH@Z" PURGE="12" COMMENT="" />
    <EXPORT ORDINAL="521" NAME="?ShowString@CPlanDetailCtrl@@QAEXPAUHINSTANCE__@@HPAD@Z" PURGE="12" COMMENT="" />
    <EXPORT ORDINAL="522" NAME="?StrGet@CPackageListAdj@@UAE?BVCString@@PBUKLCI@@PBVLIP@@W4PLAN_FLDCOMP_MODE@@@Z" PURGE="16" COMMENT="" />
    <EXPORT ORDINAL="523" NAME="?StrGet@CPackageListAdjRF@@UAE?BVCString@@PBUKLCI@@PBVLIP@@W4PLAN_FLDCOMP_MODE@@@Z" PURGE="16" COMMENT="" />
    <EXPORT ORDINAL="524" NAME="?StrGet@CPackageListCtl@@UAE?BVCString@@PBUKLCI@@PBVLIP@@W4PLAN_FLDCOMP_MODE@@@Z" PURGE="16" COMMENT="" />
    <EXPORT ORDINAL="525" NAME="?StrGetPackageNames@CAdviceGen@@CA?AVCString@@PAUtagVARIANT@@W4_PLAN_ADVICEID@@H@Z" PURGE="0" COMMENT="" />
    <EXPORT ORDINAL="526" NAME="?SubclassDlgItem@CPlanAmtEdit@@UAEHIPAVCWnd@@@Z" PURGE="8" COMMENT="" />
    <EXPORT ORDINAL="527" NAME="?SubclassWindow@CPlanAmtEdit@@UAEHPAUHWND__@@@Z" PURGE="4" COMMENT="" />
    <EXPORT ORDINAL="528" NAME="?TszEdiGlobalGet@@YA?AVCPlanTsz@@PBD@Z" PURGE="0" COMMENT="" />
    <EXPORT ORDINAL="529" NAME="?TszFormat@CPlanAmt@@IBEPBDPADIHH@Z" PURGE="16" COMMENT="" />
    <EXPORT ORDINAL="530" NAME="?UnInitRpt@CRptManager@@AAEXXZ" PURGE="0" COMMENT="" />
    <EXPORT ORDINAL="531" NAME="?UnloadList@CPlanNavPane@@QAEXXZ" PURGE="0" COMMENT="" />
    <EXPORT ORDINAL="532" NAME="?UnloadList@CPlanNavPaneSB@@QAEXXZ" PURGE="0" COMMENT="" />
    <EXPORT ORDINAL="533" NAME="?UpdateCareerTabs@CPlanNavPane@@QAEXPBD0@Z" PURGE="8" COMMENT="" />
    <EXPORT ORDINAL="534" NAME="?UpdateForcast@CPackageListAdjRF@@QAEXXZ" PURGE="0" COMMENT="" />
    <EXPORT ORDINAL="535" NAME="?UseAcctPkgCurrency@CPlanAmtEdit@@QAEXABVCPlanPackage@@@Z" PURGE="4" COMMENT="" />
    <EXPORT ORDINAL="536" NAME="?UseDoneMode@CPlanNavPane@@QAEXXZ" PURGE="0" COMMENT="" />
    <EXPORT ORDINAL="537" NAME="?XdtGet@CPlanDate@@QBEABFXZ" PURGE="0" COMMENT="" />
    <EXPORT ORDINAL="538" NAME="?ZeroAmt@CPlanAmt@@QAEXXZ" PURGE="0" COMMENT="" />
    <EXPORT ORDINAL="539" NAME="?_GetBaseEventSinkMap@CPlanSlider@@KGPBUAFX_EVENTSINKMAP@@XZ" PURGE="0" COMMENT="" />
    <EXPORT ORDINAL="540" NAME="?_GetBaseMessageMap@CDateSelector@@KGPBUAFX_MSGMAP@@XZ" PURGE="0" COMMENT="" />
    <EXPORT ORDINAL="541" NAME="?_GetBaseMessageMap@CInflationSelector@@KGPBUAFX_MSGMAP@@XZ" PURGE="0" COMMENT="" />
    <EXPORT ORDINAL="542" NAME="?_GetBaseMessageMap@CPackageListCtl@@KGPBUAFX_MSGMAP@@XZ" PURGE="0" COMMENT="" />
    <EXPORT ORDINAL="543" NAME="?_GetBaseMessageMap@CPlanDetailCtrl@@KGPBUAFX_MSGMAP@@XZ" PURGE="0" COMMENT="" />
    <EXPORT ORDINAL="544" NAME="?_GetBaseMessageMap@CPlanEndDateSelector@@KGPBUAFX_MSGMAP@@XZ" PURGE="0" COMMENT="" />
    <EXPORT ORDINAL="545" NAME="?_GetBaseMessageMap@CPlanFrqSelector@@KGPBUAFX_MSGMAP@@XZ" PURGE="0" COMMENT="" />
    <EXPORT ORDINAL="546" NAME="?_GetBaseMessageMap@CPlanNavPane@@KGPBUAFX_MSGMAP@@XZ" PURGE="0" COMMENT="" />
    <EXPORT ORDINAL="547" NAME="?_GetBaseMessageMap@CPlanNavPaneSB@@KGPBUAFX_MSGMAP@@XZ" PURGE="0" COMMENT="" />
    <EXPORT ORDINAL="548" NAME="?_GetBaseMessageMap@CPlanSlider@@KGPBUAFX_MSGMAP@@XZ" PURGE="0" COMMENT="" />
    <EXPORT ORDINAL="549" NAME="?_GetBaseMessageMap@CTaxRateSelector@@KGPBUAFX_MSGMAP@@XZ" PURGE="0" COMMENT="" />
    <EXPORT ORDINAL="550" NAME="?_eventsinkEntries@CPlanSlider@@0QBUAFX_EVENTSINKMAP_ENTRY@@B" PURGE="-1" COMMENT="" />
    <EXPORT ORDINAL="551" NAME="?_eventsinkEntryCount@CPlanSlider@@0IA" PURGE="-1" COMMENT="" />
    <EXPORT ORDINAL="552" NAME="?_messageEntries@CDateSelector@@0QBUAFX_MSGMAP_ENTRY@@B" PURGE="2488" COMMENT="" />
    <EXPORT ORDINAL="553" NAME="?_messageEntries@CInflationSelector@@0QBUAFX_MSGMAP_ENTRY@@B" PURGE="-1" COMMENT="" />
    <EXPORT ORDINAL="554" NAME="?_messageEntries@CPackageListCtl@@0QBUAFX_MSGMAP_ENTRY@@B" PURGE="-1" COMMENT="" />
    <EXPORT ORDINAL="555" NAME="?_messageEntries@CPlanDetailCtrl@@0QBUAFX_MSGMAP_ENTRY@@B" PURGE="-1" COMMENT="" />
    <EXPORT ORDINAL="556" NAME="?_messageEntries@CPlanEndDateSelector@@0QBUAFX_MSGMAP_ENTRY@@B" PURGE="2488" COMMENT="" />
    <EXPORT ORDINAL="557" NAME="?_messageEntries@CPlanFrqSelector@@0QBUAFX_MSGMAP_ENTRY@@B" PURGE="-1" COMMENT="" />
    <EXPORT ORDINAL="558" NAME="?_messageEntries@CPlanNavPane@@0QBUAFX_MSGMAP_ENTRY@@B" PURGE="-1" COMMENT="" />
    <EXPORT ORDINAL="559" NAME="?_messageEntries@CPlanNavPaneSB@@0QBUAFX_MSGMAP_ENTRY@@B" PURGE="-1" COMMENT="" />
    <EXPORT ORDINAL="560" NAME="?_messageEntries@CPlanSlider@@0QBUAFX_MSGMAP_ENTRY@@B" PURGE="-1" COMMENT="" />
    <EXPORT ORDINAL="561" NAME="?_messageEntries@CTaxRateSelector@@0QBUAFX_MSGMAP_ENTRY@@B" PURGE="-1" COMMENT="" />
    <EXPORT ORDINAL="562" NAME="?eventsinkMap@CPlanSlider@@1UAFX_EVENTSINKMAP@@B" PURGE="-1" COMMENT="" />
    <EXPORT ORDINAL="563" NAME="?g_szEdiNameAdultDependAgeEnd@@3PBDB" PURGE="-1" COMMENT="" />
    <EXPORT ORDINAL="564" NAME="?g_szEdiNameAdultDependAgeStart@@3PBDB" PURGE="-1" COMMENT="" />
    <EXPORT ORDINAL="565" NAME="?g_szEdiNameAdultDependCostHigh@@3PBDB" PURGE="-1" COMMENT="" />
    <EXPORT ORDINAL="566" NAME="?g_szEdiNameAdultDependCostLow@@3PBDB" PURGE="-1" COMMENT="" />
    <EXPORT ORDINAL="567" NAME="?g_szEdiNameAgeSalaryFlattens@@3PBDB" PURGE="-1" COMMENT="" />
    <EXPORT ORDINAL="568" NAME="?g_szEdiNameBaselineFudge@@3PBDB" PURGE="-1" COMMENT="" />
    <EXPORT ORDINAL="569" NAME="?g_szEdiNameColDataSource@@3PBDB" PURGE="-1" COMMENT="" />
    <EXPORT ORDINAL="570" NAME="?g_szEdiNameCollegeAvgLengthMax@@3PBDB" PURGE="-1" COMMENT="" />
    <EXPORT ORDINAL="571" NAME="?g_szEdiNameCollegeAvgLengthMin@@3PBDB" PURGE="-1" COMMENT="" />
    <EXPORT ORDINAL="572" NAME="?g_szEdiNameCollegeGrowthSz@@3PBDB" PURGE="-1" COMMENT="" />
    <EXPORT ORDINAL="573" NAME="?g_szEdiNameCollegeInflation@@3PBDB" PURGE="-1" COMMENT="" />
    <EXPORT ORDINAL="574" NAME="?g_szEdiNameColleteStateLong@@3PBDB" PURGE="-1" COMMENT="" />
    <EXPORT ORDINAL="575" NAME="?g_szEdiNameColleteStateShort@@3PBDB" PURGE="-1" COMMENT="" />
    <EXPORT ORDINAL="576" NAME="?g_szEdiNameColleteTypeLong@@3PBDB" PURGE="-1" COMMENT="" />
    <EXPORT ORDINAL="577" NAME="?g_szEdiNameColleteTypeShort@@3PBDB" PURGE="-1" COMMENT="" />
    <EXPORT ORDINAL="578" NAME="?g_szEdiNameDefAssetSellRate@@3PBDB" PURGE="-1" COMMENT="" />
    <EXPORT ORDINAL="579" NAME="?g_szEdiNameDefInsPolicyValue@@3PBDB" PURGE="-1" COMMENT="" />
    <EXPORT ORDINAL="580" NAME="?g_szEdiNameDefInsRateOfReturn@@3PBDB" PURGE="-1" COMMENT="" />
    <EXPORT ORDINAL="581" NAME="?g_szEdiNameDefInsRenewRate@@3PBDB" PURGE="-1" COMMENT="" />
    <EXPORT ORDINAL="582" NAME="?g_szEdiNameDefInsTermLength@@3PBDB" PURGE="-1" COMMENT="" />
    <EXPORT ORDINAL="583" NAME="?g_szEdiNameDefMaxCondAmt@@3PBDB" PURGE="-1" COMMENT="" />
    <EXPORT ORDINAL="584" NAME="?g_szEdiNameDefPensionAge@@3PBDB" PURGE="-1" COMMENT="" />
    <EXPORT ORDINAL="585" NAME="?g_szEdiNameDefSBAmount@@3PBDB" PURGE="-1" COMMENT="" />
    <EXPORT ORDINAL="586" NAME="?g_szEdiNameDefSBExpenses@@3PBDB" PURGE="-1" COMMENT="" />
    <EXPORT ORDINAL="587" NAME="?g_szEdiNameDefSBFell@@3PBDB" PURGE="-1" COMMENT="" />
    <EXPORT ORDINAL="588" NAME="?g_szEdiNameDefSBInflation@@3PBDB" PURGE="-1" COMMENT="" />
    <EXPORT ORDINAL="589" NAME="?g_szEdiNameDefSBSalaryInc@@3PBDB" PURGE="-1" COMMENT="" />
    <EXPORT ORDINAL="590" NAME="?g_szEdiNameDefSBTaxes@@3PBDB" PURGE="-1" COMMENT="" />
    <EXPORT ORDINAL="591" NAME="?g_szEdiNameDefSBTutition@@3PBDB" PURGE="-1" COMMENT="" />
    <EXPORT ORDINAL="592" NAME="?g_szEdiNameDefSBYears@@3PBDB" PURGE="-1" COMMENT="" />
    <EXPORT ORDINAL="593" NAME="?g_szEdiNameDefSSIWorkAge@@3PBDB" PURGE="-1" COMMENT="" />
    <EXPORT ORDINAL="594" NAME="?g_szEdiNameDiscExpense@@3PBDB" PURGE="-1" COMMENT="" />
    <EXPORT ORDINAL="595" NAME="?g_szEdiNameEarlyWithdrawAge@@3PBDB" PURGE="-1" COMMENT="" />
    <EXPORT ORDINAL="596" NAME="?g_szEdiNameEarlyWithdrawPenalty@@3PBDB" PURGE="-1" COMMENT="" />
    <EXPORT ORDINAL="597" NAME="?g_szEdiNameEmpTaxCap@@3PBDB" PURGE="-1" COMMENT="" />
    <EXPORT ORDINAL="598" NAME="?g_szEdiNameEmpTaxCapRate@@3PBDB" PURGE="-1" COMMENT="" />
    <EXPORT ORDINAL="599" NAME="?g_szEdiNameEmpTaxNonCapRate@@3PBDB" PURGE="-1" COMMENT="" />
    <EXPORT ORDINAL="600" NAME="?g_szEdiNameExcessContribFlag@@3PBDB" PURGE="-1" COMMENT="" />
    <EXPORT ORDINAL="601" NAME="?g_szEdiNameHomeSaleTaxFree@@3PBDB" PURGE="-1" COMMENT="" />
    <EXPORT ORDINAL="602" NAME="?g_szEdiNameInflation@@3PBDB" PURGE="-1" COMMENT="" />
    <EXPORT ORDINAL="603" NAME="?g_szEdiNameKidBirthCost@@3PBDB" PURGE="-1" COMMENT="" />
    <EXPORT ORDINAL="604" NAME="?g_szEdiNameKidCollegeAge@@3PBDB" PURGE="-1" COMMENT="" />
    <EXPORT ORDINAL="605" NAME="?g_szEdiNameKidCollegeCost@@3PBDB" PURGE="-1" COMMENT="" />
    <EXPORT ORDINAL="606" NAME="?g_szEdiNameKidCollegeDuration@@3PBDB" PURGE="-1" COMMENT="" />
    <EXPORT ORDINAL="607" NAME="?g_szEdiNameKidCollegeDurationText@@3PBDB" PURGE="-1" COMMENT="" />
    <EXPORT ORDINAL="608" NAME="?g_szEdiNameKidLivingAdjAge@@3PBDB" PURGE="-1" COMMENT="" />
    <EXPORT ORDINAL="609" NAME="?g_szEdiNameKidLivingAdjRate@@3PBDB" PURGE="-1" COMMENT="" />
    <EXPORT ORDINAL="610" NAME="?g_szEdiNameKidsTaxRate@@3PBDB" PURGE="-1" COMMENT="" />
    <EXPORT ORDINAL="611" NAME="?g_szEdiNameLifeExpectancy@@3PBDB" PURGE="-1" COMMENT="" />
    <EXPORT ORDINAL="612" NAME="?g_szEdiNameLivExpCalcRoundValue@@3PBDB" PURGE="-1" COMMENT="" />
    <EXPORT ORDINAL="613" NAME="?g_szEdiNameLivExpWarningPct@@3PBDB" PURGE="-1" COMMENT="" />
    <EXPORT ORDINAL="614" NAME="?g_szEdiNameMaxAge@@3PBDB" PURGE="-1" COMMENT="" />
    <EXPORT ORDINAL="615" NAME="?g_szEdiNameMaxSSIAge@@3PBDB" PURGE="-1" COMMENT="" />
    <EXPORT ORDINAL="616" NAME="?g_szEdiNameMinDistAge@@3PBDB" PURGE="-1" COMMENT="" />
    <EXPORT ORDINAL="617" NAME="?g_szEdiNameMinSSIAge@@3PBDB" PURGE="-1" COMMENT="" />
    <EXPORT ORDINAL="618" NAME="?g_szEdiNameParentalLoanRate@@3PBDB" PURGE="-1" COMMENT="" />
    <EXPORT ORDINAL="619" NAME="?g_szEdiNameRateOfReturn@@3PBDB" PURGE="-1" COMMENT="" />
    <EXPORT ORDINAL="620" NAME="?g_szEdiNameRateOfReturnAdj@@3PBDB" PURGE="-1" COMMENT="" />
    <EXPORT ORDINAL="621" NAME="?g_szEdiNameRealizeChild@@3PBDB" PURGE="-1" COMMENT="" />
    <EXPORT ORDINAL="622" NAME="?g_szEdiNameRealizeChildAdj@@3PBDB" PURGE="-1" COMMENT="" />
    <EXPORT ORDINAL="623" NAME="?g_szEdiNameRealizeOther@@3PBDB" PURGE="-1" COMMENT="" />
    <EXPORT ORDINAL="624" NAME="?g_szEdiNameRealizeOtherAdj@@3PBDB" PURGE="-1" COMMENT="" />
    <EXPORT ORDINAL="625" NAME="?g_szEdiNameReturnFutureCalcBaseAmt@@3PBDB" PURGE="-1" COMMENT="" />
    <EXPORT ORDINAL="626" NAME="?g_szEdiNameReturnHighRiskMinimumRate@@3PBDB" PURGE="-1" COMMENT="" />
    <EXPORT ORDINAL="627" NAME="?g_szEdiNameReturnLowRiskMinimumRate@@3PBDB" PURGE="-1" COMMENT="" />
    <EXPORT ORDINAL="628" NAME="?g_szEdiNameReturnMediumRiskMinimumRate@@3PBDB" PURGE="-1" COMMENT="" />
    <EXPORT ORDINAL="629" NAME="?g_szEdiNameReturnRateResolution@@3PBDB" PURGE="-1" COMMENT="" />
    <EXPORT ORDINAL="630" NAME="?g_szEdiNameSelfEmpTaxCap@@3PBDB" PURGE="-1" COMMENT="" />
    <EXPORT ORDINAL="631" NAME="?g_szEdiNameSelfEmpTaxCapRate@@3PBDB" PURGE="-1" COMMENT="" />
    <EXPORT ORDINAL="632" NAME="?g_szEdiNameSelfEmpTaxNonCapRate@@3PBDB" PURGE="-1" COMMENT="" />
    <EXPORT ORDINAL="633" NAME="?g_szEdiNameSocSecGrowthRate@@3PBDB" PURGE="-1" COMMENT="" />
    <EXPORT ORDINAL="634" NAME="?g_szEdiNameSurplusInv@@3PBDB" PURGE="-1" COMMENT="" />
    <EXPORT ORDINAL="635" NAME="?g_szEdiTblAcctInfo@@3PBDB" PURGE="-1" COMMENT="" />
    <EXPORT ORDINAL="636" NAME="?g_szEdiTblCollegeStates@@3PBDB" PURGE="-1" COMMENT="" />
    <EXPORT ORDINAL="637" NAME="?g_szEdiTblColleteTypes@@3PBDB" PURGE="-1" COMMENT="" />
    <EXPORT ORDINAL="638" NAME="?g_szEdiTblGlobals@@3PBDB" PURGE="-1" COMMENT="" />
    <EXPORT ORDINAL="639" NAME="?g_szEdiTblMinDist1@@3PBDB" PURGE="-1" COMMENT="" />
    <EXPORT ORDINAL="640" NAME="?g_szEdiTblMonDist2@@3PBDB" PURGE="-1" COMMENT="" />
    <EXPORT ORDINAL="641" NAME="?g_szEdiTblRORAnnualRisk@@3PBDB" PURGE="-1" COMMENT="" />
    <EXPORT ORDINAL="642" NAME="?g_szEdiTblRORInfo@@3PBDB" PURGE="-1" COMMENT="" />
    <EXPORT ORDINAL="643" NAME="?g_szEdiTblRORPortfolioMix@@3PBDB" PURGE="-1" COMMENT="" />
    <EXPORT ORDINAL="644" NAME="?g_szEdiTblSocSecAge@@3PBDB" PURGE="-1" COMMENT="" />
    <EXPORT ORDINAL="645" NAME="?g_szEdiTblTax@@3PBDB" PURGE="-1" COMMENT="" />
    <EXPORT ORDINAL="646" NAME="?m_cGraphs@CRptManager@@0HA" PURGE="-1" COMMENT="" />
    <EXPORT ORDINAL="647" NAME="?m_hinst@CActionGen@@0PAUHINSTANCE__@@A" PURGE="-1" COMMENT="" />
    <EXPORT ORDINAL="648" NAME="?m_hinst@CAdviceGen@@0PAUHINSTANCE__@@A" PURGE="-1" COMMENT="" />
    <EXPORT ORDINAL="649" NAME="?m_hinst@CAssumptionGen@@0PAUHINSTANCE__@@A" PURGE="-1" COMMENT="" />
    <EXPORT ORDINAL="650" NAME="?m_hwndMainCustom@CRptManager@@0PAUHWND__@@A" PURGE="-1" COMMENT="" />
    <EXPORT ORDINAL="651" NAME="?messageMap@CDateSelector@@1UAFX_MSGMAP@@B" PURGE="2488" COMMENT="" />
    <EXPORT ORDINAL="652" NAME="?messageMap@CInflationSelector@@1UAFX_MSGMAP@@B" PURGE="-1" COMMENT="" />
    <EXPORT ORDINAL="653" NAME="?messageMap@CPackageListCtl@@1UAFX_MSGMAP@@B" PURGE="-1" COMMENT="" />
    <EXPORT ORDINAL="654" NAME="?messageMap@CPlanDetailCtrl@@1UAFX_MSGMAP@@B" PURGE="-1" COMMENT="" />
    <EXPORT ORDINAL="655" NAME="?messageMap@CPlanEndDateSelector@@1UAFX_MSGMAP@@B" PURGE="2488" COMMENT="" />
    <EXPORT ORDINAL="656" NAME="?messageMap@CPlanFrqSelector@@1UAFX_MSGMAP@@B" PURGE="-1" COMMENT="" />
    <EXPORT ORDINAL="657" NAME="?messageMap@CPlanNavPane@@1UAFX_MSGMAP@@B" PURGE="-1" COMMENT="" />
    <EXPORT ORDINAL="658" NAME="?messageMap@CPlanNavPaneSB@@1UAFX_MSGMAP@@B" PURGE="-1" COMMENT="" />
    <EXPORT ORDINAL="659" NAME="?messageMap@CPlanSlider@@1UAFX_MSGMAP@@B" PURGE="-1" COMMENT="" />
    <EXPORT ORDINAL="660" NAME="?messageMap@CTaxRateSelector@@1UAFX_MSGMAP@@B" PURGE="-1" COMMENT="" />
    <EXPORT ORDINAL="661" NAME="?rgklciAssetList@@3QBUKLCI@@B" PURGE="-1" COMMENT="" />
    <EXPORT ORDINAL="662" NAME="?rgklciCareerList@@3QBUKLCI@@B" PURGE="-1" COMMENT="" />
    <EXPORT ORDINAL="663" NAME="?rgklciDependent@@3QBUKLCI@@B" PURGE="-1" COMMENT="" />
    <EXPORT ORDINAL="664" NAME="?rgklciExpenseList@@3QBUKLCI@@B" PURGE="-1" COMMENT="" />
    <EXPORT ORDINAL="665" NAME="?rgklciInvestList@@3QBUKLCI@@B" PURGE="0" COMMENT="" />
    <EXPORT ORDINAL="666" NAME="?rgklciListIncome@@3QBUKLCI@@B" PURGE="-1" COMMENT="" />
    <EXPORT ORDINAL="667" NAME="?rgklciLivExpenseList@@3QBUKLCI@@B" PURGE="-1" COMMENT="" />
    <EXPORT ORDINAL="668" NAME="?rgklciLoanList@@3QBUKLCI@@B" PURGE="-1" COMMENT="" />
    <EXPORT ORDINAL="669" NAME="?rgklciPolicyList@@3QBUKLCI@@B" PURGE="-1" COMMENT="" />
    <EXPORT ORDINAL="670" NAME="?rgklciSavingList@@3QBUKLCI@@B" PURGE="-1" COMMENT="" />
    <EXPORT ORDINAL="671" NAME="?s_rgrziControls@CPlanDetailCtrl@@1PAURESIZEINFO@@A" PURGE="-1" COMMENT="" />
    <EXPORT ORDINAL="672" NAME="?s_rgrziMain@CPlanDetailCtrl@@1PAURESIZEINFO@@A" PURGE="-1" COMMENT="" />
    <EXPORT ORDINAL="673" NAME="?s_rgrziTabs@CPlanDetailCtrl@@1PAURESIZEINFO@@A" PURGE="-1" COMMENT="" />
    <EXPORT ORDINAL="674" NAME="DumpPlanXml" PURGE="0" COMMENT="" />
    <EXPORT ORDINAL="675" NAME="FCreatePerson" PURGE="0" COMMENT="" />
    <EXPORT ORDINAL="676" NAME="VpaValidatePersonArgs" PURGE="0" COMMENT="" />
</LIBRARY>

