<?xml version="1.0" encoding="UTF-8"?>
<LIBRARY NAME="prototypeenginef.dll" PATH="/DLLArchive/etc/prototypeenginef.dll" DATE="Fri Jul 03 13:07:52 PDT 2020" VERSION="1, 0, 0, 1">
    <EXPORT ORDINAL="1" NAME="??0FlashFileHandler@scaleformp3d@@QAE@PBDHH@Z" PURGE="12" COMMENT="" />
    <EXPORT ORDINAL="2" NAME="??0FlashFileHandler@scaleformp3d@@QAE@XZ" PURGE="0" COMMENT="" />
    <EXPORT ORDINAL="3" NAME="??0GBufferedFile@@IAE@XZ" PURGE="0" COMMENT="" />
    <EXPORT ORDINAL="4" NAME="??0GBufferedFile@@QAE@PAVGFile@@@Z" PURGE="4" COMMENT="" />
    <EXPORT ORDINAL="5" NAME="??0GImage@@QAE@ABV0@@Z" PURGE="4" COMMENT="" />
    <EXPORT ORDINAL="6" NAME="??0GImage@@QAE@ABVGImageBase@@@Z" PURGE="4" COMMENT="" />
    <EXPORT ORDINAL="7" NAME="??0GImage@@QAE@W4ImageFormat@GImageBase@@KK@Z" PURGE="12" COMMENT="" />
    <EXPORT ORDINAL="8" NAME="??0GImage@@QAE@XZ" PURGE="0" COMMENT="" />
    <EXPORT ORDINAL="9" NAME="??0GRefCountBaseImpl@@QAE@PAVGRefCountImpl@@0@Z" PURGE="8" COMMENT="" />
    <EXPORT ORDINAL="10" NAME="??0GRefCountBaseImpl@@QAE@XZ" PURGE="0" COMMENT="" />
    <EXPORT ORDINAL="11" NAME="??0GSysFile@@QAE@PBDHH@Z" PURGE="12" COMMENT="" />
    <EXPORT ORDINAL="12" NAME="??0GSysFile@@QAE@XZ" PURGE="0" COMMENT="" />
    <EXPORT ORDINAL="13" NAME="??1GBufferedFile@@UAE@XZ" PURGE="0" COMMENT="" />
    <EXPORT ORDINAL="14" NAME="??1GFxLoader@@UAE@XZ" PURGE="0" COMMENT="" />
    <EXPORT ORDINAL="15" NAME="??1GImage@@UAE@XZ" PURGE="0" COMMENT="" />
    <EXPORT ORDINAL="16" NAME="??1GRefCountBaseImpl@@UAE@XZ" PURGE="0" COMMENT="" />
    <EXPORT ORDINAL="17" NAME="?Append@GMatrix2D@@QAEAAV1@ABV1@@Z" PURGE="4" COMMENT="" />
    <EXPORT ORDINAL="18" NAME="?Blend@GColor@@SG?AV1@V1@0M@Z" PURGE="16" COMMENT="" />
    <EXPORT ORDINAL="19" NAME="?BytesAvailable@GBufferedFile@@UAEHXZ" PURGE="0" COMMENT="" />
    <EXPORT ORDINAL="20" NAME="?ChangeSize@GBufferedFile@@UAE_NH@Z" PURGE="-1" COMMENT="" />
    <EXPORT ORDINAL="21" NAME="?Close@GBufferedFile@@UAE_NXZ" PURGE="-1" COMMENT="" />
    <EXPORT ORDINAL="22" NAME="?Close@GSysFile@@UAE_NXZ" PURGE="0" COMMENT="" />
    <EXPORT ORDINAL="23" NAME="?ConvertHSIToRGB@GColor@@SGXNNNPAN00@Z" PURGE="36" COMMENT="" />
    <EXPORT ORDINAL="24" NAME="?ConvertRGBToHSI@GColor@@SGXNNNPAN00@Z" PURGE="36" COMMENT="" />
    <EXPORT ORDINAL="25" NAME="?CopyFromStream@GBufferedFile@@UAEHPAVGFile@@H@Z" PURGE="8" COMMENT="" />
    <EXPORT ORDINAL="26" NAME="?DoesFlip@GMatrix2D@@QBE_NXZ" PURGE="0" COMMENT="" />
    <EXPORT ORDINAL="27" NAME="?EncloseTransform@GMatrix2D@@QBEXPAV?$GRect@M@@ABV2@@Z" PURGE="8" COMMENT="" />
    <EXPORT ORDINAL="28" NAME="?Flush@GBufferedFile@@UAE_NXZ" PURGE="-1" COMMENT="" />
    <EXPORT ORDINAL="29" NAME="?FlushBuffer@GBufferedFile@@IAEXXZ" PURGE="0" COMMENT="" />
    <EXPORT ORDINAL="30" NAME="?Format@GColor@@QBEXPAD@Z" PURGE="4" COMMENT="" />
    <EXPORT ORDINAL="31" NAME="?Format@GMatrix2D@@QBEXPAD@Z" PURGE="4" COMMENT="" />
    <EXPORT ORDINAL="32" NAME="?GetDeterminant@GMatrix2D@@QBEMXZ" PURGE="0" COMMENT="" />
    <EXPORT ORDINAL="33" NAME="?GetErrorCode@GSysFile@@UAEHXZ" PURGE="0" COMMENT="" />
    <EXPORT ORDINAL="34" NAME="?GetFileStat@GSysFile@@SA_NPAUGFileStat@@PBD@Z" PURGE="0" COMMENT="" />
    <EXPORT ORDINAL="35" NAME="?GetHSI@GColor@@QBEXPAH00@Z" PURGE="12" COMMENT="" />
    <EXPORT ORDINAL="36" NAME="?GetHSI@GColor@@QBEXPAM00@Z" PURGE="12" COMMENT="" />
    <EXPORT ORDINAL="37" NAME="?GetHSV@GColor@@QBEXPAH00@Z" PURGE="12" COMMENT="" />
    <EXPORT ORDINAL="38" NAME="?GetHSV@GColor@@QBEXPAM00@Z" PURGE="12" COMMENT="" />
    <EXPORT ORDINAL="39" NAME="?GetLength@GBufferedFile@@UAEHXZ" PURGE="0" COMMENT="" />
    <EXPORT ORDINAL="40" NAME="?GetMaxScale@GMatrix2D@@QBEMXZ" PURGE="0" COMMENT="" />
    <EXPORT ORDINAL="41" NAME="?GetRotation@GMatrix2D@@QBENXZ" PURGE="0" COMMENT="" />
    <EXPORT ORDINAL="42" NAME="?GetX@GMatrix2D@@QBEMXZ" PURGE="0" COMMENT="" />
    <EXPORT ORDINAL="43" NAME="?GetXScale@GMatrix2D@@QBENXZ" PURGE="0" COMMENT="" />
    <EXPORT ORDINAL="44" NAME="?GetY@GMatrix2D@@QBEMXZ" PURGE="0" COMMENT="" />
    <EXPORT ORDINAL="45" NAME="?GetYScale@GMatrix2D@@QBENXZ" PURGE="0" COMMENT="" />
    <EXPORT ORDINAL="46" NAME="?IsValid@GMatrix2D@@QBE_NXZ" PURGE="0" COMMENT="" />
    <EXPORT ORDINAL="47" NAME="?IsValid@GSysFile@@UAE_NXZ" PURGE="0" COMMENT="" />
    <EXPORT ORDINAL="48" NAME="?LGetLength@GBufferedFile@@UAE_JXZ" PURGE="0" COMMENT="" />
    <EXPORT ORDINAL="49" NAME="?LSeek@GBufferedFile@@UAE_J_JH@Z" PURGE="12" COMMENT="" />
    <EXPORT ORDINAL="50" NAME="?LTell@GBufferedFile@@UAE_JXZ" PURGE="0" COMMENT="" />
    <EXPORT ORDINAL="51" NAME="?LoadBuffer@GBufferedFile@@IAEXXZ" PURGE="0" COMMENT="" />
    <EXPORT ORDINAL="52" NAME="?Open@GSysFile@@QAE_NPBDHH@Z" PURGE="12" COMMENT="" />
    <EXPORT ORDINAL="53" NAME="?Prepend@GMatrix2D@@QAEAAV1@ABV1@@Z" PURGE="4" COMMENT="" />
    <EXPORT ORDINAL="54" NAME="?Read@GBufferedFile@@UAEHPAEH@Z" PURGE="8" COMMENT="" />
    <EXPORT ORDINAL="55" NAME="?Seek@GBufferedFile@@UAEHHH@Z" PURGE="8" COMMENT="" />
    <EXPORT ORDINAL="56" NAME="?SetBufferMode@GBufferedFile@@IAE_NW4BufferModeType@1@@Z" PURGE="4" COMMENT="" />
    <EXPORT ORDINAL="57" NAME="?SetHSI@GColor@@QAEXHHH@Z" PURGE="12" COMMENT="" />
    <EXPORT ORDINAL="58" NAME="?SetHSI@GColor@@QAEXMMM@Z" PURGE="12" COMMENT="" />
    <EXPORT ORDINAL="59" NAME="?SetHSV@GColor@@QAEXHHH@Z" PURGE="12" COMMENT="" />
    <EXPORT ORDINAL="60" NAME="?SetHSV@GColor@@QAEXMMM@Z" PURGE="12" COMMENT="" />
    <EXPORT ORDINAL="61" NAME="?SetIdentity@GMatrix2D@@QAEXXZ" PURGE="0" COMMENT="" />
    <EXPORT ORDINAL="62" NAME="?SetInverse@GMatrix2D@@QAEXABV1@@Z" PURGE="4" COMMENT="" />
    <EXPORT ORDINAL="63" NAME="?SetLerp@GMatrix2D@@QAEXABV1@0M@Z" PURGE="12" COMMENT="" />
    <EXPORT ORDINAL="64" NAME="?SetRefCountMode@GRefCountBaseImpl@@QAE_NI@Z" PURGE="4" COMMENT="" />
    <EXPORT ORDINAL="65" NAME="?SkipBytes@GBufferedFile@@UAEHH@Z" PURGE="4" COMMENT="" />
    <EXPORT ORDINAL="66" NAME="?Swap@GMatrix2D@@QAEXPAV1@@Z" PURGE="4" COMMENT="" />
    <EXPORT ORDINAL="67" NAME="?Tell@GBufferedFile@@UAEHXZ" PURGE="0" COMMENT="" />
    <EXPORT ORDINAL="68" NAME="?Transform@GMatrix2D@@QBEXPAV?$GPoint@M@@ABV2@@Z" PURGE="8" COMMENT="" />
    <EXPORT ORDINAL="69" NAME="?TransformByInverse@GMatrix2D@@QBEXPAV?$GPoint@M@@ABV2@@Z" PURGE="8" COMMENT="" />
    <EXPORT ORDINAL="70" NAME="?TransformVector@GMatrix2D@@QBEXPAV?$GPoint@M@@ABV2@@Z" PURGE="8" COMMENT="" />
    <EXPORT ORDINAL="71" NAME="?Write@GBufferedFile@@UAEHPBEH@Z" PURGE="8" COMMENT="" />
    <EXPORT ORDINAL="72" NAME="EngineInitialize" PURGE="0" COMMENT="" />
    <EXPORT ORDINAL="73" NAME="EngineKeyboardService" PURGE="0" COMMENT="" />
    <EXPORT ORDINAL="74" NAME="EngineMouseService" PURGE="0" COMMENT="" />
    <EXPORT ORDINAL="75" NAME="EngineService" PURGE="0" COMMENT="" />
    <EXPORT ORDINAL="76" NAME="EngineTerminate" PURGE="0" COMMENT="" />
    <EXPORT ORDINAL="77" NAME="EngineWindowFocus" PURGE="0" COMMENT="" />
</LIBRARY>

