<?xml version="1.0" encoding="UTF-8"?>
<LIBRARY NAME="ptplatform.dll" PATH="/DLLArchive/etc/PtPlatform.dll" DATE="Fri Jul 03 13:08:07 PDT 2020" VERSION="2.0.0.0">
    <EXPORT ORDINAL="1" NAME="??0?$PtSmartPointer@VPtIoNotify@@@@QAE@ABV0@@Z" PURGE="4" COMMENT="" />
    <EXPORT ORDINAL="2" NAME="??0?$PtSmartPointer@VPtIoNotify@@@@QAE@PAVPtIoNotify@@@Z" PURGE="4" COMMENT="" />
    <EXPORT ORDINAL="3" NAME="??0?$PtSmartPointer@VPtIoNotify@@@@QAE@XZ" PURGE="0" COMMENT="" />
    <EXPORT ORDINAL="4" NAME="??0Descriptor@PtException@@QAE@ABU01@@Z" PURGE="4" COMMENT="" />
    <EXPORT ORDINAL="5" NAME="??0Descriptor@PtException@@QAE@XZ" PURGE="0" COMMENT="" />
    <EXPORT ORDINAL="6" NAME="??0Link@PtIoQueue@@QAE@XZ" PURGE="0" COMMENT="" />
    <EXPORT ORDINAL="7" NAME="??0PtCondVar@@QAE@XZ" PURGE="0" COMMENT="" />
    <EXPORT ORDINAL="8" NAME="??0PtConfig@@QAE@XZ" PURGE="0" COMMENT="" />
    <EXPORT ORDINAL="9" NAME="??0PtDynamicLibrary@@QAE@PBD@Z" PURGE="4" COMMENT="" />
    <EXPORT ORDINAL="10" NAME="??0PtExMemory@@QAE@ABV0@@Z" PURGE="4" COMMENT="" />
    <EXPORT ORDINAL="11" NAME="??0PtExMemory@@QAE@ABVPtExWhere@@PBVPtException@@@Z" PURGE="8" COMMENT="" />
    <EXPORT ORDINAL="12" NAME="??0PtExMemory@@QAE@ABVexception@@ABVPtExWhere@@PBVPtException@@@Z" PURGE="12" COMMENT="" />
    <EXPORT ORDINAL="13" NAME="??0PtExMemory@@QAE@PBDABVPtExWhere@@PBVPtException@@@Z" PURGE="12" COMMENT="" />
    <EXPORT ORDINAL="14" NAME="??0PtExSystem@@QAE@ABV0@@Z" PURGE="4" COMMENT="" />
    <EXPORT ORDINAL="15" NAME="??0PtExSystem@@QAE@HABVPtExWhere@@PBVPtException@@@Z" PURGE="12" COMMENT="" />
    <EXPORT ORDINAL="16" NAME="??0PtExWhere@@QAE@ABV0@@Z" PURGE="4" COMMENT="" />
    <EXPORT ORDINAL="17" NAME="??0PtExWhere@@QAE@PBDH@Z" PURGE="8" COMMENT="" />
    <EXPORT ORDINAL="18" NAME="??0PtExWhere@@QAE@XZ" PURGE="0" COMMENT="" />
    <EXPORT ORDINAL="19" NAME="??0PtException@@IAE@ABVPtExWhere@@PBV0@@Z" PURGE="8" COMMENT="" />
    <EXPORT ORDINAL="20" NAME="??0PtException@@QAE@ABV0@@Z" PURGE="4" COMMENT="" />
    <EXPORT ORDINAL="21" NAME="??0PtIoDevice@@IAE@HH@Z" PURGE="8" COMMENT="" />
    <EXPORT ORDINAL="22" NAME="??0PtIoDeviceFile@@IAE@PBDW4Flags@0@@Z" PURGE="8" COMMENT="" />
    <EXPORT ORDINAL="23" NAME="??0PtIoDeviceServer@@IAE@GPAVPtIoNotify@@@Z" PURGE="8" COMMENT="" />
    <EXPORT ORDINAL="24" NAME="??0PtIoDeviceSocket@@IAE@IPAUsockaddr_in@@@Z" PURGE="8" COMMENT="" />
    <EXPORT ORDINAL="25" NAME="??0PtIoDeviceSocket@@IAE@PBDF@Z" PURGE="8" COMMENT="" />
    <EXPORT ORDINAL="26" NAME="??0PtIoNotify@@IAE@XZ" PURGE="0" COMMENT="" />
    <EXPORT ORDINAL="27" NAME="??0PtIoNotifyAccept@@IAE@XZ" PURGE="0" COMMENT="" />
    <EXPORT ORDINAL="28" NAME="??0PtIoQueue@@QAE@XZ" PURGE="0" COMMENT="" />
    <EXPORT ORDINAL="29" NAME="??0PtIoRequest@@AAE@PAVPtIoNotify@@HW4ReqPri@0@@Z" PURGE="12" COMMENT="" />
    <EXPORT ORDINAL="30" NAME="??0PtMutex@@QAE@XZ" PURGE="0" COMMENT="" />
    <EXPORT ORDINAL="31" NAME="??0PtSemaphore@@QAE@H@Z" PURGE="4" COMMENT="" />
    <EXPORT ORDINAL="32" NAME="??0PtSignal@@QAE@ABV0@@Z" PURGE="4" COMMENT="" />
    <EXPORT ORDINAL="33" NAME="??0PtSignal@@QAE@XZ" PURGE="0" COMMENT="" />
    <EXPORT ORDINAL="34" NAME="??0PtSmartPointerBase@@QAE@XZ" PURGE="0" COMMENT="" />
    <EXPORT ORDINAL="35" NAME="??0PtThread@@QAE@ABV0@@Z" PURGE="4" COMMENT="" />
    <EXPORT ORDINAL="36" NAME="??0PtThread@@QAE@_N@Z" PURGE="4" COMMENT="" />
    <EXPORT ORDINAL="37" NAME="??1?$PtSmartPointer@VPtIoNotify@@@@QAE@XZ" PURGE="0" COMMENT="" />
    <EXPORT ORDINAL="38" NAME="??1Descriptor@PtException@@QAE@XZ" PURGE="0" COMMENT="" />
    <EXPORT ORDINAL="39" NAME="??1Link@PtIoQueue@@UAE@XZ" PURGE="0" COMMENT="" />
    <EXPORT ORDINAL="40" NAME="??1PtCondVar@@QAE@XZ" PURGE="0" COMMENT="" />
    <EXPORT ORDINAL="41" NAME="??1PtConfig@@QAE@XZ" PURGE="0" COMMENT="" />
    <EXPORT ORDINAL="42" NAME="??1PtDynamicLibrary@@QAE@XZ" PURGE="0" COMMENT="" />
    <EXPORT ORDINAL="43" NAME="??1PtExMemory@@UAE@XZ" PURGE="0" COMMENT="" />
    <EXPORT ORDINAL="44" NAME="??1PtExSystem@@UAE@XZ" PURGE="0" COMMENT="" />
    <EXPORT ORDINAL="45" NAME="??1PtExWhere@@QAE@XZ" PURGE="0" COMMENT="" />
    <EXPORT ORDINAL="46" NAME="??1PtException@@UAE@XZ" PURGE="0" COMMENT="" />
    <EXPORT ORDINAL="47" NAME="??1PtIoDevice@@UAE@XZ" PURGE="0" COMMENT="" />
    <EXPORT ORDINAL="48" NAME="??1PtIoDeviceFile@@UAE@XZ" PURGE="0" COMMENT="" />
    <EXPORT ORDINAL="49" NAME="??1PtIoDeviceServer@@UAE@XZ" PURGE="0" COMMENT="" />
    <EXPORT ORDINAL="50" NAME="??1PtIoDeviceSocket@@UAE@XZ" PURGE="0" COMMENT="" />
    <EXPORT ORDINAL="51" NAME="??1PtIoNotify@@UAE@XZ" PURGE="0" COMMENT="" />
    <EXPORT ORDINAL="52" NAME="??1PtIoNotifyAccept@@UAE@XZ" PURGE="0" COMMENT="" />
    <EXPORT ORDINAL="53" NAME="??1PtIoQueue@@QAE@XZ" PURGE="0" COMMENT="" />
    <EXPORT ORDINAL="54" NAME="??1PtIoRequest@@MAE@XZ" PURGE="0" COMMENT="" />
    <EXPORT ORDINAL="55" NAME="??1PtMutex@@QAE@XZ" PURGE="0" COMMENT="" />
    <EXPORT ORDINAL="56" NAME="??1PtSemaphore@@QAE@XZ" PURGE="0" COMMENT="" />
    <EXPORT ORDINAL="57" NAME="??1PtSignal@@UAE@XZ" PURGE="0" COMMENT="" />
    <EXPORT ORDINAL="58" NAME="??1PtSmartPointerBase@@UAE@XZ" PURGE="0" COMMENT="" />
    <EXPORT ORDINAL="59" NAME="??1PtThread@@UAE@XZ" PURGE="0" COMMENT="" />
    <EXPORT ORDINAL="60" NAME="??2PtIoRequest@@SAPAXII@Z" PURGE="0" COMMENT="" />
    <EXPORT ORDINAL="61" NAME="??3PtIoRequest@@SAXPAXI@Z" PURGE="0" COMMENT="" />
    <EXPORT ORDINAL="62" NAME="??4?$PtSmartPointer@VPtIoNotify@@@@QAEABV0@ABV0@@Z" PURGE="4" COMMENT="" />
    <EXPORT ORDINAL="63" NAME="??4?$PtSmartPointer@VPtIoNotify@@@@QAEABV0@H@Z" PURGE="4" COMMENT="" />
    <EXPORT ORDINAL="64" NAME="??4?$PtSmartPointer@VPtIoNotify@@@@QAEABV0@PAVPtIoNotify@@@Z" PURGE="4" COMMENT="" />
    <EXPORT ORDINAL="65" NAME="??4Descriptor@PtException@@QAEAAU01@ABU01@@Z" PURGE="4" COMMENT="" />
    <EXPORT ORDINAL="66" NAME="??4PtConfig@@QAEAAV0@ABV0@@Z" PURGE="4" COMMENT="" />
    <EXPORT ORDINAL="67" NAME="??4PtDynamicLibrary@@QAEAAV0@ABV0@@Z" PURGE="4" COMMENT="" />
    <EXPORT ORDINAL="68" NAME="??4PtExMemory@@QAEAAV0@ABV0@@Z" PURGE="4" COMMENT="" />
    <EXPORT ORDINAL="69" NAME="??4PtExSeverity@@QAEAAU0@ABU0@@Z" PURGE="4" COMMENT="" />
    <EXPORT ORDINAL="70" NAME="??4PtExSystem@@QAEAAV0@ABV0@@Z" PURGE="4" COMMENT="" />
    <EXPORT ORDINAL="71" NAME="??4PtExWhere@@QAEAAV0@ABV0@@Z" PURGE="4" COMMENT="" />
    <EXPORT ORDINAL="72" NAME="??4PtException@@QAEAAV0@ABV0@@Z" PURGE="4" COMMENT="" />
    <EXPORT ORDINAL="73" NAME="??4PtSignal@@QAEAAV0@ABV0@@Z" PURGE="4" COMMENT="" />
    <EXPORT ORDINAL="74" NAME="??4PtThread@@QAEAAV0@ABV0@@Z" PURGE="4" COMMENT="" />
    <EXPORT ORDINAL="75" NAME="??7?$PtSmartPointer@VPtIoNotify@@@@QBE_NXZ" PURGE="0" COMMENT="" />
    <EXPORT ORDINAL="76" NAME="??8?$PtSmartPointer@VPtIoNotify@@@@QBE_NABV0@@Z" PURGE="4" COMMENT="" />
    <EXPORT ORDINAL="77" NAME="??8?$PtSmartPointer@VPtIoNotify@@@@QBE_NPBVPtIoNotify@@@Z" PURGE="4" COMMENT="" />
    <EXPORT ORDINAL="78" NAME="??9?$PtSmartPointer@VPtIoNotify@@@@QBE_NABV0@@Z" PURGE="4" COMMENT="" />
    <EXPORT ORDINAL="79" NAME="??9?$PtSmartPointer@VPtIoNotify@@@@QBE_NPBVPtIoNotify@@@Z" PURGE="4" COMMENT="" />
    <EXPORT ORDINAL="80" NAME="??C?$PtSmartPointer@VPtIoNotify@@@@QBEPAVPtIoNotify@@XZ" PURGE="0" COMMENT="" />
    <EXPORT ORDINAL="81" NAME="??D?$PtSmartPointer@VPtIoNotify@@@@QBEAAVPtIoNotify@@XZ" PURGE="0" COMMENT="" />
    <EXPORT ORDINAL="82" NAME="??_7Link@PtIoQueue@@6B@" PURGE="-1" COMMENT="" />
    <EXPORT ORDINAL="83" NAME="??_7PtExMemory@@6B@" PURGE="-1" COMMENT="" />
    <EXPORT ORDINAL="84" NAME="??_7PtExSystem@@6B@" PURGE="-1" COMMENT="" />
    <EXPORT ORDINAL="85" NAME="??_7PtException@@6B@" PURGE="-1" COMMENT="" />
    <EXPORT ORDINAL="86" NAME="??_7PtIoDevice@@6B@" PURGE="-1" COMMENT="" />
    <EXPORT ORDINAL="87" NAME="??_7PtIoDeviceFile@@6B@" PURGE="-1" COMMENT="" />
    <EXPORT ORDINAL="88" NAME="??_7PtIoDeviceServer@@6B@" PURGE="-1" COMMENT="" />
    <EXPORT ORDINAL="89" NAME="??_7PtIoDeviceSocket@@6B@" PURGE="-1" COMMENT="" />
    <EXPORT ORDINAL="90" NAME="??_7PtIoNotify@@6B@" PURGE="-1" COMMENT="" />
    <EXPORT ORDINAL="91" NAME="??_7PtIoNotifyAccept@@6B@" PURGE="-1" COMMENT="" />
    <EXPORT ORDINAL="92" NAME="??_7PtIoRequest@@6BLink@PtIoQueue@@@" PURGE="-1" COMMENT="" />
    <EXPORT ORDINAL="93" NAME="??_7PtIoRequest@@6BPtSmartPointerBase@@@" PURGE="-1" COMMENT="" />
    <EXPORT ORDINAL="94" NAME="??_7PtSignal@@6B@" PURGE="-1" COMMENT="" />
    <EXPORT ORDINAL="95" NAME="??_7PtSmartPointerBase@@6B@" PURGE="-1" COMMENT="" />
    <EXPORT ORDINAL="96" NAME="??_7PtThread@@6B@" PURGE="-1" COMMENT="" />
    <EXPORT ORDINAL="97" NAME="??_C@_0BM@GCDK@Win2K?2PtPlatformSemaphore?4h?$AA@" PURGE="-1" COMMENT="" />
    <EXPORT ORDINAL="98" NAME="??_C@_0EP@JAHF@D?3?2di?2album?9lite?2chandra?2main?2bu@" PURGE="-1" COMMENT="" />
    <EXPORT ORDINAL="99" NAME="??_FPtIoDevice@@QAEXXZ" PURGE="0" COMMENT="" />
    <EXPORT ORDINAL="100" NAME="??_FPtSemaphore@@QAEXXZ" PURGE="0" COMMENT="" />
    <EXPORT ORDINAL="101" NAME="??_FPtThread@@QAEXXZ" PURGE="0" COMMENT="" />
    <EXPORT ORDINAL="102" NAME="?Connect@PtIoDeviceSocket@@SA?AV?$PtSmartPointer@VPtIoDeviceSocket@@@@PBDF@Z" PURGE="0" COMMENT="" />
    <EXPORT ORDINAL="103" NAME="?Create@PtIoDeviceFile@@SA?AV?$PtSmartPointer@VPtIoDeviceFile@@@@PBDW4Flags@1@@Z" PURGE="0" COMMENT="" />
    <EXPORT ORDINAL="104" NAME="?Create@PtIoDeviceServer@@SA?AV?$PtSmartPointer@VPtIoDeviceServer@@@@GPAVPtIoNotifyAccept@@@Z" PURGE="0" COMMENT="" />
    <EXPORT ORDINAL="105" NAME="?Create@PtIoDeviceSocket@@SA?AV?$PtSmartPointer@VPtIoDeviceSocket@@@@IPAUsockaddr_in@@@Z" PURGE="0" COMMENT="" />
    <EXPORT ORDINAL="106" NAME="?Create@PtIoRequest@@SA?AV?$PtSmartPointer@VPtIoRequest@@@@PAVPtIoNotify@@HW4ReqPri@1@@Z" PURGE="0" COMMENT="" />
    <EXPORT ORDINAL="107" NAME="?CreateTemp@PtIoDeviceFile@@SA?AV?$PtSmartPointer@VPtIoDeviceFile@@@@PBD0@Z" PURGE="0" COMMENT="" />
    <EXPORT ORDINAL="108" NAME="?EstablishHandler@PtSignal@@SAXPBV1@PAPBV1@@Z" PURGE="0" COMMENT="" />
    <EXPORT ORDINAL="109" NAME="?ExitCode@PtThread@@QBEHXZ" PURGE="0" COMMENT="" />
    <EXPORT ORDINAL="110" NAME="?IsThisThread@PtThread@@QAE_NXZ" PURGE="0" COMMENT="" />
    <EXPORT ORDINAL="111" NAME="?IsThreadCountZero@PtThread@@SA_NXZ" PURGE="0" COMMENT="" />
    <EXPORT ORDINAL="112" NAME="?IsThreadPrimary@PtThread@@SA_NXZ" PURGE="0" COMMENT="" />
    <EXPORT ORDINAL="113" NAME="?Poll@PtException@@SAPAV1@XZ" PURGE="0" COMMENT="" />
    <EXPORT ORDINAL="114" NAME="?Post@PtException@@SAXABV1@@Z" PURGE="0" COMMENT="" />
    <EXPORT ORDINAL="115" NAME="?PtConfigInfo@@YG?AVPtConfig@@XZ" PURGE="4" COMMENT="" />
    <EXPORT ORDINAL="116" NAME="?PtErrorCode@@YGHXZ" PURGE="-1" COMMENT="" />
    <EXPORT ORDINAL="117" NAME="?PtOSType@@YG?AW4PtOsTypes@@XZ" PURGE="0" COMMENT="" />
    <EXPORT ORDINAL="118" NAME="?PtOSVersion@@YGXPAH00@Z" PURGE="12" COMMENT="" />
    <EXPORT ORDINAL="119" NAME="?PtOSVersionString@@YGPADQAD@Z" PURGE="4" COMMENT="" />
    <EXPORT ORDINAL="120" NAME="?PtPlatformInit@@YGXABVPtConfig@@@Z" PURGE="4" COMMENT="" />
    <EXPORT ORDINAL="121" NAME="?PtPlatformUninit@@YGXXZ" PURGE="0" COMMENT="" />
    <EXPORT ORDINAL="122" NAME="?PtProcessorCount@@YGHXZ" PURGE="0" COMMENT="" />
    <EXPORT ORDINAL="123" NAME="?PtProcessorPageSize@@YGHXZ" PURGE="0" COMMENT="" />
    <EXPORT ORDINAL="124" NAME="?PtSleep@@YGXH@Z" PURGE="4" COMMENT="" />
    <EXPORT ORDINAL="125" NAME="?PtSysLogEvent@@YAPBDQADHHZZ" PURGE="0" COMMENT="" />
    <EXPORT ORDINAL="126" NAME="?PtSysLogEvent@@YAXHZZ" PURGE="0" COMMENT="" />
    <EXPORT ORDINAL="127" NAME="?PtThreadCmp@@YG_NKK@Z" PURGE="8" COMMENT="" />
    <EXPORT ORDINAL="128" NAME="?PtThreadSelf@@YGKXZ" PURGE="-1" COMMENT="" />
    <EXPORT ORDINAL="129" NAME="?PtTimeDstOffset@@YGHXZ" PURGE="0" COMMENT="" />
    <EXPORT ORDINAL="130" NAME="?PtTimeGMT@@YG_JXZ" PURGE="0" COMMENT="" />
    <EXPORT ORDINAL="131" NAME="?PtTimeLocal@@YG_JXZ" PURGE="0" COMMENT="" />
    <EXPORT ORDINAL="132" NAME="?PtTimeZoneOffset@@YGHXZ" PURGE="0" COMMENT="" />
    <EXPORT ORDINAL="133" NAME="?accept@PtIoDeviceServer@@QAEXXZ" PURGE="0" COMMENT="" />
    <EXPORT ORDINAL="134" NAME="?begin@PtThread@@QAEXXZ" PURGE="0" COMMENT="" />
    <EXPORT ORDINAL="135" NAME="?broadcast@PtCondVar@@QAEXXZ" PURGE="0" COMMENT="" />
    <EXPORT ORDINAL="136" NAME="?buffer@PtIoRequest@@QAEPADXZ" PURGE="0" COMMENT="" />
    <EXPORT ORDINAL="137" NAME="?cancel@PtIoDevice@@QAEXABV?$PtSmartPointer@VPtIoRequest@@@@@Z" PURGE="4" COMMENT="" />
    <EXPORT ORDINAL="138" NAME="?cancelAll@PtIoDevice@@QAEXXZ" PURGE="0" COMMENT="" />
    <EXPORT ORDINAL="139" NAME="?cancel_L@PtIoDevice@@AAEXPAVPtIoRequest@@@Z" PURGE="4" COMMENT="" />
    <EXPORT ORDINAL="140" NAME="?cancelled@PtIoNotifyAccept@@EAEXPAVPtIoRequest@@@Z" PURGE="4" COMMENT="" />
    <EXPORT ORDINAL="141" NAME="?cancelled@PtIoRequest@@IAEXXZ" PURGE="0" COMMENT="" />
    <EXPORT ORDINAL="142" NAME="?clone@PtException@@QBEPAV1@XZ" PURGE="-1" COMMENT="" />
    <EXPORT ORDINAL="143" NAME="?cloneMe@PtExMemory@@EBEPAVPtException@@XZ" PURGE="0" COMMENT="" />
    <EXPORT ORDINAL="144" NAME="?cloneMe@PtExSystem@@EBEPAVPtException@@XZ" PURGE="0" COMMENT="" />
    <EXPORT ORDINAL="145" NAME="?close_@PtIoDeviceFile@@AAEXXZ" PURGE="0" COMMENT="" />
    <EXPORT ORDINAL="146" NAME="?close_@PtThread@@AAEXI@Z" PURGE="4" COMMENT="" />
    <EXPORT ORDINAL="147" NAME="?completeRequest_@PtIoDevice@@IAEXPAVPtIoRequest@@HH@Z" PURGE="12" COMMENT="" />
    <EXPORT ORDINAL="148" NAME="?completed@PtIoNotifyAccept@@EAEXPAVPtIoRequest@@H@Z" PURGE="8" COMMENT="" />
    <EXPORT ORDINAL="149" NAME="?control@PtIoDevice@@QAEXABV?$PtSmartPointer@VPtIoRequest@@@@@Z" PURGE="4" COMMENT="" />
    <EXPORT ORDINAL="150" NAME="?decRefCount@PtSmartPointerBase@@QAEXXZ" PURGE="0" COMMENT="" />
    <EXPORT ORDINAL="151" NAME="?depth@PtException@@QBEHXZ" PURGE="0" COMMENT="" />
    <EXPORT ORDINAL="152" NAME="?description@PtException@@QBEABUDescriptor@1@H@Z" PURGE="4" COMMENT="" />
    <EXPORT ORDINAL="153" NAME="?destroy_@PtCondVar@@AAEXXZ" PURGE="0" COMMENT="" />
    <EXPORT ORDINAL="154" NAME="?destroy_@PtMutex@@AAEXXZ" PURGE="0" COMMENT="" />
    <EXPORT ORDINAL="155" NAME="?destroy_@PtSemaphore@@AAEXXZ" PURGE="0" COMMENT="" />
    <EXPORT ORDINAL="156" NAME="?erase@PtIoQueue@@QAEXPAULink@1@@Z" PURGE="4" COMMENT="" />
    <EXPORT ORDINAL="157" NAME="?failed@PtIoNotifyAccept@@EAEXPAVPtIoRequest@@ABVPtExSystem@@@Z" PURGE="8" COMMENT="" />
    <EXPORT ORDINAL="158" NAME="?flush@PtIoDeviceFile@@QBEXXZ" PURGE="0" COMMENT="" />
    <EXPORT ORDINAL="159" NAME="?function_@PtDynamicLibrary@@AAEPAXPBD@Z" PURGE="4" COMMENT="" />
    <EXPORT ORDINAL="160" NAME="?genericError@PtExSystem@@QBEHXZ" PURGE="0" COMMENT="" />
    <EXPORT ORDINAL="161" NAME="?getDetachedFlag@PtConfig@@QBE_NXZ" PURGE="0" COMMENT="" />
    <EXPORT ORDINAL="162" NAME="?getFile@PtExWhere@@QBEPBDXZ" PURGE="0" COMMENT="" />
    <EXPORT ORDINAL="163" NAME="?getFileIoThreads@PtConfig@@QBEHXZ" PURGE="0" COMMENT="" />
    <EXPORT ORDINAL="164" NAME="?getLine@PtExWhere@@QBE?BHXZ" PURGE="0" COMMENT="" />
    <EXPORT ORDINAL="165" NAME="?getMsgFile@PtConfig@@QBEPBDXZ" PURGE="0" COMMENT="" />
    <EXPORT ORDINAL="166" NAME="?getOpt_SO_DEBUG@PtIoDeviceSocket@@QBE_NXZ" PURGE="0" COMMENT="" />
    <EXPORT ORDINAL="167" NAME="?getOpt_SO_KEEPALIVE@PtIoDeviceSocket@@QBE_NXZ" PURGE="0" COMMENT="" />
    <EXPORT ORDINAL="168" NAME="?getOpt_SO_OOBINLINE@PtIoDeviceSocket@@QBE_NXZ" PURGE="0" COMMENT="" />
    <EXPORT ORDINAL="169" NAME="?getOpt_SO_RCVBUF@PtIoDeviceSocket@@QBEHXZ" PURGE="0" COMMENT="" />
    <EXPORT ORDINAL="170" NAME="?getOpt_SO_SNDBUF@PtIoDeviceSocket@@QBEHXZ" PURGE="0" COMMENT="" />
    <EXPORT ORDINAL="171" NAME="?getOpt_TCP_NODELAY@PtIoDeviceSocket@@QBE_NXZ" PURGE="0" COMMENT="" />
    <EXPORT ORDINAL="172" NAME="?getPeerName@PtIoDeviceSocket@@QBEXPADH@Z" PURGE="8" COMMENT="" />
    <EXPORT ORDINAL="173" NAME="?getRemoteHostName@PtIoDeviceSocket@@QBEXPADH@Z" PURGE="8" COMMENT="" />
    <EXPORT ORDINAL="174" NAME="?getSocketAcceptRequests@PtConfig@@QBEHXZ" PURGE="0" COMMENT="" />
    <EXPORT ORDINAL="175" NAME="?getSocketIoThreads@PtConfig@@QBEHXZ" PURGE="0" COMMENT="" />
    <EXPORT ORDINAL="176" NAME="?getSocketOptBool_@PtIoDeviceSocket@@ABE_NHH@Z" PURGE="8" COMMENT="" />
    <EXPORT ORDINAL="177" NAME="?getSocketOptInt_@PtIoDeviceSocket@@ABEHHH@Z" PURGE="8" COMMENT="" />
    <EXPORT ORDINAL="178" NAME="?getSysLogTag@PtConfig@@QBEPBDXZ" PURGE="0" COMMENT="" />
    <EXPORT ORDINAL="179" NAME="?getThreadId@PtExWhere@@QBEKXZ" PURGE="0" COMMENT="" />
    <EXPORT ORDINAL="180" NAME="?grab@?$PtSmartPointer@VPtIoNotify@@@@AAEXPAVPtIoNotify@@@Z" PURGE="4" COMMENT="" />
    <EXPORT ORDINAL="181" NAME="?handle@PtIoDevice@@IAEXPAX@Z" PURGE="4" COMMENT="" />
    <EXPORT ORDINAL="182" NAME="?handle@PtIoDevice@@QBEPAXXZ" PURGE="0" COMMENT="" />
    <EXPORT ORDINAL="183" NAME="?id@PtThread@@QBEKXZ" PURGE="0" COMMENT="" />
    <EXPORT ORDINAL="184" NAME="?incRefCount@PtSmartPointerBase@@QAEXXZ" PURGE="0" COMMENT="" />
    <EXPORT ORDINAL="185" NAME="?init_@PtCondVar@@AAEXXZ" PURGE="0" COMMENT="" />
    <EXPORT ORDINAL="186" NAME="?init_@PtIoDeviceServer@@AAEXXZ" PURGE="0" COMMENT="" />
    <EXPORT ORDINAL="187" NAME="?init_@PtIoDeviceSocket@@AAEXXZ" PURGE="0" COMMENT="" />
    <EXPORT ORDINAL="188" NAME="?init_@PtMutex@@AAEXXZ" PURGE="0" COMMENT="" />
    <EXPORT ORDINAL="189" NAME="?init_@PtSemaphore@@AAEXXZ" PURGE="0" COMMENT="" />
    <EXPORT ORDINAL="190" NAME="?isCancelled@PtIoRequest@@QBE_NXZ" PURGE="0" COMMENT="" />
    <EXPORT ORDINAL="191" NAME="?isControl@PtIoRequest@@QBE_NXZ" PURGE="0" COMMENT="" />
    <EXPORT ORDINAL="192" NAME="?isDone@PtIoRequest@@QBE_NXZ" PURGE="0" COMMENT="" />
    <EXPORT ORDINAL="193" NAME="?isIssued@PtIoRequest@@IBE_NXZ" PURGE="0" COMMENT="" />
    <EXPORT ORDINAL="194" NAME="?isRead@PtIoRequest@@QBE_NXZ" PURGE="0" COMMENT="" />
    <EXPORT ORDINAL="195" NAME="?isWrite@PtIoRequest@@QBE_NXZ" PURGE="0" COMMENT="" />
    <EXPORT ORDINAL="196" NAME="?issueControl_@PtIoDevice@@MAEXPAVPtIoRequest@@@Z" PURGE="4" COMMENT="" />
    <EXPORT ORDINAL="197" NAME="?issueControl_@PtIoDeviceServer@@MAEXPAVPtIoRequest@@@Z" PURGE="4" COMMENT="" />
    <EXPORT ORDINAL="198" NAME="?issueNext_@PtIoDevice@@AAEX_N0@Z" PURGE="8" COMMENT="" />
    <EXPORT ORDINAL="199" NAME="?issueRead_@PtIoDeviceFile@@MAEXPAVPtIoRequest@@@Z" PURGE="4" COMMENT="" />
    <EXPORT ORDINAL="200" NAME="?issueRead_@PtIoDeviceServer@@MAEXPAVPtIoRequest@@@Z" PURGE="4" COMMENT="" />
    <EXPORT ORDINAL="201" NAME="?issueRead_@PtIoDeviceSocket@@MAEXPAVPtIoRequest@@@Z" PURGE="4" COMMENT="" />
    <EXPORT ORDINAL="202" NAME="?issueWrite_@PtIoDeviceFile@@MAEXPAVPtIoRequest@@@Z" PURGE="4" COMMENT="" />
    <EXPORT ORDINAL="203" NAME="?issueWrite_@PtIoDeviceServer@@MAEXPAVPtIoRequest@@@Z" PURGE="4" COMMENT="" />
    <EXPORT ORDINAL="204" NAME="?issueWrite_@PtIoDeviceSocket@@MAEXPAVPtIoRequest@@@Z" PURGE="4" COMMENT="" />
    <EXPORT ORDINAL="205" NAME="?join@PtThread@@QAEXXZ" PURGE="0" COMMENT="" />
    <EXPORT ORDINAL="206" NAME="?length@PtIoDeviceFile@@QAE_JXZ" PURGE="0" COMMENT="" />
    <EXPORT ORDINAL="207" NAME="?length@PtIoRequest@@QAEXH@Z" PURGE="4" COMMENT="" />
    <EXPORT ORDINAL="208" NAME="?length@PtIoRequest@@QBEHXZ" PURGE="0" COMMENT="" />
    <EXPORT ORDINAL="209" NAME="?lock@PtMutex@@QAEXXZ" PURGE="0" COMMENT="" />
    <EXPORT ORDINAL="210" NAME="?mErrorMap_@PtExSystem@@0PAUErrorMap@1@A" PURGE="-1" COMMENT="" />
    <EXPORT ORDINAL="211" NAME="?mOutOfMemory@PtExMemory@@0PADA" PURGE="-1" COMMENT="" />
    <EXPORT ORDINAL="212" NAME="?mapSize_@PtExSystem@@CAHXZ" PURGE="0" COMMENT="" />
    <EXPORT ORDINAL="213" NAME="?notify@PtIoRequest@@IBEABV?$PtSmartPointer@VPtIoNotify@@@@XZ" PURGE="0" COMMENT="" />
    <EXPORT ORDINAL="214" NAME="?notify_@PtIoDeviceServer@@ABEPAVPtIoNotify@@XZ" PURGE="0" COMMENT="" />
    <EXPORT ORDINAL="215" NAME="?offset@PtIoRequest@@QAEX_J@Z" PURGE="8" COMMENT="" />
    <EXPORT ORDINAL="216" NAME="?offset@PtIoRequest@@QBE_JXZ" PURGE="0" COMMENT="" />
    <EXPORT ORDINAL="217" NAME="?open_@PtIoDeviceFile@@AAEXXZ" PURGE="0" COMMENT="" />
    <EXPORT ORDINAL="218" NAME="?peek_front@PtIoQueue@@QAEPAULink@1@XZ" PURGE="0" COMMENT="" />
    <EXPORT ORDINAL="219" NAME="?pop_front@PtIoQueue@@QAEPAULink@1@XZ" PURGE="0" COMMENT="" />
    <EXPORT ORDINAL="220" NAME="?post@PtSemaphore@@QAEXXZ" PURGE="0" COMMENT="" />
    <EXPORT ORDINAL="221" NAME="?priority@PtIoDevice@@QAEXABV?$PtSmartPointer@VPtIoRequest@@@@W4ReqPri@PtIoRequest@@@Z" PURGE="8" COMMENT="" />
    <EXPORT ORDINAL="222" NAME="?priority@PtIoRequest@@IAEXW4ReqPri@1@@Z" PURGE="4" COMMENT="" />
    <EXPORT ORDINAL="223" NAME="?priority@PtIoRequest@@QBE?AW4ReqPri@1@XZ" PURGE="0" COMMENT="" />
    <EXPORT ORDINAL="224" NAME="?priority@PtThread@@QAEXW4Priority@1@@Z" PURGE="4" COMMENT="" />
    <EXPORT ORDINAL="225" NAME="?priority@PtThread@@QBE?AW4Priority@1@XZ" PURGE="0" COMMENT="" />
    <EXPORT ORDINAL="226" NAME="?push_back@PtIoQueue@@QAEXPAULink@1@@Z" PURGE="4" COMMENT="" />
    <EXPORT ORDINAL="227" NAME="?read@PtIoDevice@@QAEXABV?$PtSmartPointer@VPtIoRequest@@@@@Z" PURGE="4" COMMENT="" />
    <EXPORT ORDINAL="228" NAME="?release@?$PtSmartPointer@VPtIoNotify@@@@AAEXXZ" PURGE="0" COMMENT="" />
    <EXPORT ORDINAL="229" NAME="?reuse@PtIoRequest@@QAEXXZ" PURGE="0" COMMENT="" />
    <EXPORT ORDINAL="230" NAME="?server@PtIoNotifyAccept@@ABEPAVPtIoDevice@@XZ" PURGE="0" COMMENT="" />
    <EXPORT ORDINAL="231" NAME="?server@PtIoNotifyAccept@@QAEXPAVPtIoDevice@@@Z" PURGE="4" COMMENT="" />
    <EXPORT ORDINAL="232" NAME="?setControl@PtIoRequest@@IAEXXZ" PURGE="0" COMMENT="" />
    <EXPORT ORDINAL="233" NAME="?setDetachedFlag@PtConfig@@QAEX_N@Z" PURGE="4" COMMENT="" />
    <EXPORT ORDINAL="234" NAME="?setDone@PtIoRequest@@IAEXXZ" PURGE="0" COMMENT="" />
    <EXPORT ORDINAL="235" NAME="?setFileIoThreads@PtConfig@@QAEXH@Z" PURGE="4" COMMENT="" />
    <EXPORT ORDINAL="236" NAME="?setIssued@PtIoRequest@@IAEXXZ" PURGE="0" COMMENT="" />
    <EXPORT ORDINAL="237" NAME="?setMsgFile@PtConfig@@QAEXPBD@Z" PURGE="4" COMMENT="" />
    <EXPORT ORDINAL="238" NAME="?setOpt_SO_DEBUG@PtIoDeviceSocket@@QAEX_N@Z" PURGE="4" COMMENT="" />
    <EXPORT ORDINAL="239" NAME="?setOpt_SO_KEEPALIVE@PtIoDeviceSocket@@QAEX_N@Z" PURGE="4" COMMENT="" />
    <EXPORT ORDINAL="240" NAME="?setOpt_SO_OOBINLINE@PtIoDeviceSocket@@QAEX_N@Z" PURGE="4" COMMENT="" />
    <EXPORT ORDINAL="241" NAME="?setOpt_SO_RCVBUF@PtIoDeviceSocket@@QAEXH@Z" PURGE="4" COMMENT="" />
    <EXPORT ORDINAL="242" NAME="?setOpt_SO_SNDBUF@PtIoDeviceSocket@@QAEXH@Z" PURGE="4" COMMENT="" />
    <EXPORT ORDINAL="243" NAME="?setOpt_TCP_NODELAY@PtIoDeviceSocket@@QAEX_N@Z" PURGE="4" COMMENT="" />
    <EXPORT ORDINAL="244" NAME="?setRead@PtIoRequest@@IAEXXZ" PURGE="0" COMMENT="" />
    <EXPORT ORDINAL="245" NAME="?setSocketAcceptRequests@PtConfig@@QAEXH@Z" PURGE="4" COMMENT="" />
    <EXPORT ORDINAL="246" NAME="?setSocketIoThreads@PtConfig@@QAEXH@Z" PURGE="4" COMMENT="" />
    <EXPORT ORDINAL="247" NAME="?setSocketOpt_@PtIoDeviceSocket@@AAEXHHH@Z" PURGE="12" COMMENT="" />
    <EXPORT ORDINAL="248" NAME="?setSocketOpt_@PtIoDeviceSocket@@AAEXHH_N@Z" PURGE="12" COMMENT="" />
    <EXPORT ORDINAL="249" NAME="?setSysLogTag@PtConfig@@QAEXPBD@Z" PURGE="4" COMMENT="" />
    <EXPORT ORDINAL="250" NAME="?setWrite@PtIoRequest@@IAEXXZ" PURGE="0" COMMENT="" />
    <EXPORT ORDINAL="251" NAME="?shutdown@PtIoDeviceServer@@QAEXXZ" PURGE="0" COMMENT="" />
    <EXPORT ORDINAL="252" NAME="?shutdown@PtIoDeviceSocket@@QBEXW4How@1@@Z" PURGE="4" COMMENT="" />
    <EXPORT ORDINAL="253" NAME="?signal@PtCondVar@@QAEXXZ" PURGE="0" COMMENT="" />
    <EXPORT ORDINAL="254" NAME="?size@PtIoQueue@@QBEHXZ" PURGE="0" COMMENT="" />
    <EXPORT ORDINAL="255" NAME="?size@PtIoRequest@@QBEHXZ" PURGE="0" COMMENT="" />
    <EXPORT ORDINAL="256" NAME="?socket_@PtIoDeviceServer@@ABEIXZ" PURGE="0" COMMENT="" />
    <EXPORT ORDINAL="257" NAME="?socket_@PtIoDeviceSocket@@ABEIXZ" PURGE="0" COMMENT="" />
    <EXPORT ORDINAL="258" NAME="?symToAddr@PtDynamicLibrary@@QAEPAXPBD@Z" PURGE="4" COMMENT="" />
    <EXPORT ORDINAL="259" NAME="?systemError@PtExSystem@@QBEHXZ" PURGE="0" COMMENT="" />
    <EXPORT ORDINAL="260" NAME="?timedwait@PtCondVar@@QAE_NAAVPtMutex@@H@Z" PURGE="8" COMMENT="" />
    <EXPORT ORDINAL="261" NAME="?trywait@PtSemaphore@@QAE_NXZ" PURGE="0" COMMENT="" />
    <EXPORT ORDINAL="262" NAME="?unlock@PtMutex@@QAEXXZ" PURGE="0" COMMENT="" />
    <EXPORT ORDINAL="263" NAME="?useAsyncFileIo@PtConfig@@QAEX_N@Z" PURGE="4" COMMENT="" />
    <EXPORT ORDINAL="264" NAME="?useAsyncFileIo@PtConfig@@QBE_NXZ" PURGE="0" COMMENT="" />
    <EXPORT ORDINAL="265" NAME="?useAsyncNetworkIo@PtConfig@@QAEX_N@Z" PURGE="4" COMMENT="" />
    <EXPORT ORDINAL="266" NAME="?useAsyncNetworkIo@PtConfig@@QBE_NXZ" PURGE="0" COMMENT="" />
    <EXPORT ORDINAL="267" NAME="?useDebugAbort@PtConfig@@QAEX_N@Z" PURGE="4" COMMENT="" />
    <EXPORT ORDINAL="268" NAME="?useDebugAbort@PtConfig@@QBE_NXZ" PURGE="0" COMMENT="" />
    <EXPORT ORDINAL="269" NAME="?useEventLogging@PtConfig@@QAEX_N@Z" PURGE="4" COMMENT="" />
    <EXPORT ORDINAL="270" NAME="?useEventLogging@PtConfig@@QBE_NXZ" PURGE="0" COMMENT="" />
    <EXPORT ORDINAL="271" NAME="?useTerminationHandler@PtConfig@@QAEX_N@Z" PURGE="4" COMMENT="" />
    <EXPORT ORDINAL="272" NAME="?useTerminationHandler@PtConfig@@QBE_NXZ" PURGE="0" COMMENT="" />
    <EXPORT ORDINAL="273" NAME="?wait@PtCondVar@@QAEXAAVPtMutex@@@Z" PURGE="4" COMMENT="" />
    <EXPORT ORDINAL="274" NAME="?wait@PtSemaphore@@QAEXXZ" PURGE="0" COMMENT="" />
    <EXPORT ORDINAL="275" NAME="?wait_@PtCondVar@@AAE_NAAVPtMutex@@H@Z" PURGE="8" COMMENT="" />
    <EXPORT ORDINAL="276" NAME="?what@Descriptor@PtException@@QBEPBDXZ" PURGE="0" COMMENT="" />
    <EXPORT ORDINAL="277" NAME="?what@PtExMemory@@UBEPBDXZ" PURGE="0" COMMENT="" />
    <EXPORT ORDINAL="278" NAME="?what@PtExSystem@@UBEPBDXZ" PURGE="0" COMMENT="" />
    <EXPORT ORDINAL="279" NAME="?where@Descriptor@PtException@@QBEABVPtExWhere@@XZ" PURGE="0" COMMENT="" />
    <EXPORT ORDINAL="280" NAME="?write@PtIoDevice@@QAEXABV?$PtSmartPointer@VPtIoRequest@@@@@Z" PURGE="4" COMMENT="" />
</LIBRARY>

