<?xml version="1.0" encoding="UTF-8"?>
<LIBRARY NAME="pvrtexlib.dll" PATH="/DLLArchive/etc/PVRTexLib.dll" DATE="Wed Mar 13 19:45:45 CET 2013" VERSION="4.04">
    <EXPORT ORDINAL="1" NAME="??0?$CPVRTArray@I@@QAE@ABV0@@Z" PURGE="4" COMMENT="" />
    <EXPORT ORDINAL="2" NAME="??0?$CPVRTArray@I@@QAE@XZ" PURGE="0" COMMENT="" />
    <EXPORT ORDINAL="3" NAME="??0?$CPVRTArray@UMetaDataBlock@@@@QAE@ABV0@@Z" PURGE="4" COMMENT="" />
    <EXPORT ORDINAL="4" NAME="??0?$CPVRTArray@UMetaDataBlock@@@@QAE@XZ" PURGE="0" COMMENT="" />
    <EXPORT ORDINAL="5" NAME="??0?$CPVRTArray@V?$CPVRTMap@IUMetaDataBlock@@@@@@QAE@ABV0@@Z" PURGE="4" COMMENT="" />
    <EXPORT ORDINAL="6" NAME="??0?$CPVRTArray@V?$CPVRTMap@IUMetaDataBlock@@@@@@QAE@XZ" PURGE="0" COMMENT="" />
    <EXPORT ORDINAL="7" NAME="??0?$CPVRTMap@IUMetaDataBlock@@@@QAE@ABV0@@Z" PURGE="4" COMMENT="" />
    <EXPORT ORDINAL="8" NAME="??0?$CPVRTMap@IUMetaDataBlock@@@@QAE@XZ" PURGE="0" COMMENT="" />
    <EXPORT ORDINAL="9" NAME="??0?$CPVRTMap@IV?$CPVRTMap@IUMetaDataBlock@@@@@@QAE@ABV0@@Z" PURGE="4" COMMENT="" />
    <EXPORT ORDINAL="10" NAME="??0?$CPVRTMap@IV?$CPVRTMap@IUMetaDataBlock@@@@@@QAE@XZ" PURGE="0" COMMENT="" />
    <EXPORT ORDINAL="11" NAME="??0CPVRTexture@pvrtexture@@QAE@ABV01@@Z" PURGE="4" COMMENT="" />
    <EXPORT ORDINAL="12" NAME="??0CPVRTexture@pvrtexture@@QAE@ABVCPVRTextureHeader@1@PBX@Z" PURGE="8" COMMENT="" />
    <EXPORT ORDINAL="13" NAME="??0CPVRTexture@pvrtexture@@QAE@PBD@Z" PURGE="4" COMMENT="" />
    <EXPORT ORDINAL="14" NAME="??0CPVRTexture@pvrtexture@@QAE@PBX@Z" PURGE="4" COMMENT="" />
    <EXPORT ORDINAL="15" NAME="??0CPVRTexture@pvrtexture@@QAE@XZ" PURGE="0" COMMENT="" />
    <EXPORT ORDINAL="16" NAME="??0CPVRTextureHeader@pvrtexture@@QAE@ABV01@@Z" PURGE="4" COMMENT="" />
    <EXPORT ORDINAL="17" NAME="??0CPVRTextureHeader@pvrtexture@@QAE@UPVRTextureHeaderV3@@IPAUMetaDataBlock@@@Z" PURGE="60" COMMENT="" />
    <EXPORT ORDINAL="18" NAME="??0CPVRTextureHeader@pvrtexture@@QAE@XZ" PURGE="0" COMMENT="" />
    <EXPORT ORDINAL="19" NAME="??0CPVRTextureHeader@pvrtexture@@QAE@_KIIIIIIW4EPVRTColourSpace@@W4EPVRTVariableType@@_N@Z" PURGE="44" COMMENT="" />
    <EXPORT ORDINAL="20" NAME="??0PVRTextureHeaderV3@@QAE@XZ" PURGE="0" COMMENT="" />
    <EXPORT ORDINAL="21" NAME="??0PixelType@pvrtexture@@QAE@EEEEEEEE@Z" PURGE="32" COMMENT="" />
    <EXPORT ORDINAL="22" NAME="??0PixelType@pvrtexture@@QAE@XZ" PURGE="0" COMMENT="" />
    <EXPORT ORDINAL="23" NAME="??0PixelType@pvrtexture@@QAE@_K@Z" PURGE="8" COMMENT="" />
    <EXPORT ORDINAL="24" NAME="??1?$CPVRTArray@I@@UAE@XZ" PURGE="0" COMMENT="" />
    <EXPORT ORDINAL="25" NAME="??1?$CPVRTArray@UMetaDataBlock@@@@UAE@XZ" PURGE="0" COMMENT="" />
    <EXPORT ORDINAL="26" NAME="??1?$CPVRTArray@V?$CPVRTMap@IUMetaDataBlock@@@@@@UAE@XZ" PURGE="0" COMMENT="" />
    <EXPORT ORDINAL="27" NAME="??1?$CPVRTMap@IUMetaDataBlock@@@@QAE@XZ" PURGE="0" COMMENT="" />
    <EXPORT ORDINAL="28" NAME="??1?$CPVRTMap@IV?$CPVRTMap@IUMetaDataBlock@@@@@@QAE@XZ" PURGE="0" COMMENT="" />
    <EXPORT ORDINAL="29" NAME="??1CPVRTexture@pvrtexture@@QAE@XZ" PURGE="0" COMMENT="" />
    <EXPORT ORDINAL="30" NAME="??1CPVRTextureHeader@pvrtexture@@QAE@XZ" PURGE="0" COMMENT="" />
    <EXPORT ORDINAL="31" NAME="??4?$CPVRTArray@I@@QAEAAV0@ABV0@@Z" PURGE="4" COMMENT="" />
    <EXPORT ORDINAL="32" NAME="??4?$CPVRTArray@UMetaDataBlock@@@@QAEAAV0@ABV0@@Z" PURGE="4" COMMENT="" />
    <EXPORT ORDINAL="33" NAME="??4?$CPVRTArray@V?$CPVRTMap@IUMetaDataBlock@@@@@@QAEAAV0@ABV0@@Z" PURGE="4" COMMENT="" />
    <EXPORT ORDINAL="34" NAME="??4?$CPVRTMap@IUMetaDataBlock@@@@QAEAAV0@ABV0@@Z" PURGE="4" COMMENT="" />
    <EXPORT ORDINAL="35" NAME="??4?$CPVRTMap@IV?$CPVRTMap@IUMetaDataBlock@@@@@@QAEAAV0@ABV0@@Z" PURGE="4" COMMENT="" />
    <EXPORT ORDINAL="36" NAME="??4CPVRTexture@pvrtexture@@QAEAAV01@ABV01@@Z" PURGE="4" COMMENT="" />
    <EXPORT ORDINAL="37" NAME="??4CPVRTextureHeader@pvrtexture@@QAEAAV01@ABV01@@Z" PURGE="4" COMMENT="" />
    <EXPORT ORDINAL="38" NAME="??4LowHigh@PixelType@pvrtexture@@QAEAAU012@ABU012@@Z" PURGE="4" COMMENT="" />
    <EXPORT ORDINAL="39" NAME="??4PVRTextureHeaderV3@@QAEAAU0@ABU0@@Z" PURGE="4" COMMENT="" />
    <EXPORT ORDINAL="40" NAME="??4PixelType@pvrtexture@@QAEAAT01@ABT01@@Z" PURGE="4" COMMENT="" />
    <EXPORT ORDINAL="41" NAME="??A?$CPVRTArray@I@@QAEAAII@Z" PURGE="4" COMMENT="" />
    <EXPORT ORDINAL="42" NAME="??A?$CPVRTArray@I@@QBEABII@Z" PURGE="4" COMMENT="" />
    <EXPORT ORDINAL="43" NAME="??A?$CPVRTArray@UMetaDataBlock@@@@QAEAAUMetaDataBlock@@I@Z" PURGE="4" COMMENT="" />
    <EXPORT ORDINAL="44" NAME="??A?$CPVRTArray@UMetaDataBlock@@@@QBEABUMetaDataBlock@@I@Z" PURGE="4" COMMENT="" />
    <EXPORT ORDINAL="45" NAME="??A?$CPVRTArray@V?$CPVRTMap@IUMetaDataBlock@@@@@@QAEAAV?$CPVRTMap@IUMetaDataBlock@@@@I@Z" PURGE="4" COMMENT="" />
    <EXPORT ORDINAL="46" NAME="??A?$CPVRTArray@V?$CPVRTMap@IUMetaDataBlock@@@@@@QBEABV?$CPVRTMap@IUMetaDataBlock@@@@I@Z" PURGE="4" COMMENT="" />
    <EXPORT ORDINAL="47" NAME="??A?$CPVRTMap@IUMetaDataBlock@@@@QAEAAUMetaDataBlock@@I@Z" PURGE="4" COMMENT="" />
    <EXPORT ORDINAL="48" NAME="??A?$CPVRTMap@IV?$CPVRTMap@IUMetaDataBlock@@@@@@QAEAAV?$CPVRTMap@IUMetaDataBlock@@@@I@Z" PURGE="4" COMMENT="" />
    <EXPORT ORDINAL="49" NAME="??_7?$CPVRTArray@I@@6B@" PURGE="-1" COMMENT="" />
    <EXPORT ORDINAL="50" NAME="??_7?$CPVRTArray@UMetaDataBlock@@@@6B@" PURGE="-1" COMMENT="" />
    <EXPORT ORDINAL="51" NAME="??_7?$CPVRTArray@V?$CPVRTMap@IUMetaDataBlock@@@@@@6B@" PURGE="-1" COMMENT="" />
    <EXPORT ORDINAL="52" NAME="??_OCPVRTString@@QAEXAAV0@@Z" PURGE="4" COMMENT="" />
    <EXPORT ORDINAL="53" NAME="?Append@?$CPVRTArray@I@@QAEIABI@Z" PURGE="4" COMMENT="" />
    <EXPORT ORDINAL="54" NAME="?Append@?$CPVRTArray@I@@QAEIXZ" PURGE="0" COMMENT="" />
    <EXPORT ORDINAL="55" NAME="?Append@?$CPVRTArray@UMetaDataBlock@@@@QAEIABUMetaDataBlock@@@Z" PURGE="4" COMMENT="" />
    <EXPORT ORDINAL="56" NAME="?Append@?$CPVRTArray@UMetaDataBlock@@@@QAEIXZ" PURGE="0" COMMENT="" />
    <EXPORT ORDINAL="57" NAME="?Append@?$CPVRTArray@V?$CPVRTMap@IUMetaDataBlock@@@@@@QAEIABV?$CPVRTMap@IUMetaDataBlock@@@@@Z" PURGE="4" COMMENT="" />
    <EXPORT ORDINAL="58" NAME="?Append@?$CPVRTArray@V?$CPVRTMap@IUMetaDataBlock@@@@@@QAEIXZ" PURGE="0" COMMENT="" />
    <EXPORT ORDINAL="59" NAME="?Bleed@pvrtexture@@YA_NAAVCPVRTexture@1@@Z" PURGE="0" COMMENT="" />
    <EXPORT ORDINAL="60" NAME="?Border@pvrtexture@@YA_NAAVCPVRTexture@1@III@Z" PURGE="0" COMMENT="" />
    <EXPORT ORDINAL="61" NAME="?Clear@?$CPVRTMap@IUMetaDataBlock@@@@QAEXXZ" PURGE="0" COMMENT="" />
    <EXPORT ORDINAL="62" NAME="?Clear@?$CPVRTMap@IV?$CPVRTMap@IUMetaDataBlock@@@@@@QAEXXZ" PURGE="0" COMMENT="" />
    <EXPORT ORDINAL="63" NAME="?ColourMIPMaps@pvrtexture@@YA_NAAVCPVRTexture@1@@Z" PURGE="0" COMMENT="" />
    <EXPORT ORDINAL="64" NAME="?CopyChannels@pvrtexture@@YA_NAAVCPVRTexture@1@ABV21@IPAW4EChannelName@1@2@Z" PURGE="0" COMMENT="" />
    <EXPORT ORDINAL="65" NAME="?Exists@?$CPVRTMap@IUMetaDataBlock@@@@QBE_NI@Z" PURGE="4" COMMENT="" />
    <EXPORT ORDINAL="66" NAME="?Flip@pvrtexture@@YA_NAAVCPVRTexture@1@W4EPVRTAxis@@@Z" PURGE="0" COMMENT="" />
    <EXPORT ORDINAL="67" NAME="?GenerateMIPMaps@pvrtexture@@YA_NAAVCPVRTexture@1@W4EResizeMode@1@I@Z" PURGE="0" COMMENT="" />
    <EXPORT ORDINAL="68" NAME="?GenerateNormalMap@pvrtexture@@YA_NAAVCPVRTexture@1@MVCPVRTString@@@Z" PURGE="0" COMMENT="" />
    <EXPORT ORDINAL="69" NAME="?GetCapacity@?$CPVRTArray@I@@QBEIXZ" PURGE="0" COMMENT="" />
    <EXPORT ORDINAL="70" NAME="?GetCapacity@?$CPVRTArray@UMetaDataBlock@@@@QBEIXZ" PURGE="0" COMMENT="" />
    <EXPORT ORDINAL="71" NAME="?GetCapacity@?$CPVRTArray@V?$CPVRTMap@IUMetaDataBlock@@@@@@QBEIXZ" PURGE="0" COMMENT="" />
    <EXPORT ORDINAL="72" NAME="?GetDataAtIndex@?$CPVRTMap@IUMetaDataBlock@@@@QAEPBUMetaDataBlock@@I@Z" PURGE="4" COMMENT="" />
    <EXPORT ORDINAL="73" NAME="?GetDataAtIndex@?$CPVRTMap@IV?$CPVRTMap@IUMetaDataBlock@@@@@@QAEPBV?$CPVRTMap@IUMetaDataBlock@@@@I@Z" PURGE="4" COMMENT="" />
    <EXPORT ORDINAL="74" NAME="?GetDefaultSize@?$CPVRTArray@I@@SAIXZ" PURGE="0" COMMENT="" />
    <EXPORT ORDINAL="75" NAME="?GetDefaultSize@?$CPVRTArray@UMetaDataBlock@@@@SAIXZ" PURGE="0" COMMENT="" />
    <EXPORT ORDINAL="76" NAME="?GetDefaultSize@?$CPVRTArray@V?$CPVRTMap@IUMetaDataBlock@@@@@@SAIXZ" PURGE="0" COMMENT="" />
    <EXPORT ORDINAL="77" NAME="?GetIndexOf@?$CPVRTMap@IUMetaDataBlock@@@@QBEII@Z" PURGE="4" COMMENT="" />
    <EXPORT ORDINAL="78" NAME="?GetIndexOf@?$CPVRTMap@IV?$CPVRTMap@IUMetaDataBlock@@@@@@QBEII@Z" PURGE="4" COMMENT="" />
    <EXPORT ORDINAL="79" NAME="?GetSize@?$CPVRTArray@I@@QBEIXZ" PURGE="0" COMMENT="" />
    <EXPORT ORDINAL="80" NAME="?GetSize@?$CPVRTArray@UMetaDataBlock@@@@QBEIXZ" PURGE="0" COMMENT="" />
    <EXPORT ORDINAL="81" NAME="?GetSize@?$CPVRTArray@V?$CPVRTMap@IUMetaDataBlock@@@@@@QBEIXZ" PURGE="0" COMMENT="" />
    <EXPORT ORDINAL="82" NAME="?GetSize@?$CPVRTMap@IUMetaDataBlock@@@@QBEIXZ" PURGE="0" COMMENT="" />
    <EXPORT ORDINAL="83" NAME="?GetSize@?$CPVRTMap@IV?$CPVRTMap@IUMetaDataBlock@@@@@@QBEIXZ" PURGE="0" COMMENT="" />
    <EXPORT ORDINAL="84" NAME="?PreMultiplyAlpha@pvrtexture@@YA_NAAVCPVRTexture@1@@Z" PURGE="0" COMMENT="" />
    <EXPORT ORDINAL="85" NAME="?Remove@?$CPVRTArray@I@@UAE?AW4EPVRTError@@I@Z" PURGE="4" COMMENT="" />
    <EXPORT ORDINAL="86" NAME="?Remove@?$CPVRTArray@UMetaDataBlock@@@@UAE?AW4EPVRTError@@I@Z" PURGE="4" COMMENT="" />
    <EXPORT ORDINAL="87" NAME="?Remove@?$CPVRTArray@V?$CPVRTMap@IUMetaDataBlock@@@@@@UAE?AW4EPVRTError@@I@Z" PURGE="4" COMMENT="" />
    <EXPORT ORDINAL="88" NAME="?Remove@?$CPVRTMap@IUMetaDataBlock@@@@QAE?AW4EPVRTError@@I@Z" PURGE="4" COMMENT="" />
    <EXPORT ORDINAL="89" NAME="?RemoveLast@?$CPVRTArray@I@@UAE?AW4EPVRTError@@XZ" PURGE="0" COMMENT="" />
    <EXPORT ORDINAL="90" NAME="?RemoveLast@?$CPVRTArray@UMetaDataBlock@@@@UAE?AW4EPVRTError@@XZ" PURGE="0" COMMENT="" />
    <EXPORT ORDINAL="91" NAME="?RemoveLast@?$CPVRTArray@V?$CPVRTMap@IUMetaDataBlock@@@@@@UAE?AW4EPVRTError@@XZ" PURGE="0" COMMENT="" />
    <EXPORT ORDINAL="92" NAME="?Resize@pvrtexture@@YA_NAAVCPVRTexture@1@ABI11W4EResizeMode@1@@Z" PURGE="0" COMMENT="" />
    <EXPORT ORDINAL="93" NAME="?Rotate90@pvrtexture@@YA_NAAVCPVRTexture@1@W4EPVRTAxis@@_N@Z" PURGE="0" COMMENT="" />
    <EXPORT ORDINAL="94" NAME="?SetCapacity@?$CPVRTArray@I@@QAE?AW4EPVRTError@@I@Z" PURGE="4" COMMENT="" />
    <EXPORT ORDINAL="95" NAME="?SetCapacity@?$CPVRTArray@UMetaDataBlock@@@@QAE?AW4EPVRTError@@I@Z" PURGE="4" COMMENT="" />
    <EXPORT ORDINAL="96" NAME="?SetCapacity@?$CPVRTArray@V?$CPVRTMap@IUMetaDataBlock@@@@@@QAE?AW4EPVRTError@@I@Z" PURGE="4" COMMENT="" />
    <EXPORT ORDINAL="97" NAME="?SetChannels@pvrtexture@@YA_NAAVCPVRTexture@1@IPAW4EChannelName@1@PAI@Z" PURGE="0" COMMENT="" />
    <EXPORT ORDINAL="98" NAME="?SetChannelsFloat@pvrtexture@@YA_NAAVCPVRTexture@1@IPAW4EChannelName@1@PAM@Z" PURGE="0" COMMENT="" />
    <EXPORT ORDINAL="99" NAME="?Transcode@pvrtexture@@YA_NAAVCPVRTexture@1@TPixelType@1@W4EPVRTVariableType@@W4EPVRTColourSpace@@W4ECompressorQuality@1@_N@Z" PURGE="0" COMMENT="" />
    <EXPORT ORDINAL="100" NAME="?addMetaData@CPVRTextureHeader@pvrtexture@@QAEXABUMetaDataBlock@@@Z" PURGE="4" COMMENT="" />
    <EXPORT ORDINAL="101" NAME="?getBitsPerPixel@CPVRTextureHeader@pvrtexture@@QBE?BIXZ" PURGE="0" COMMENT="" />
    <EXPORT ORDINAL="102" NAME="?getBorder@CPVRTextureHeader@pvrtexture@@QBEXAAI00@Z" PURGE="12" COMMENT="" />
    <EXPORT ORDINAL="103" NAME="?getBumpMapOrder@CPVRTextureHeader@pvrtexture@@QBE?BVCPVRTString@@XZ" PURGE="4" COMMENT="" />
    <EXPORT ORDINAL="104" NAME="?getBumpMapScale@CPVRTextureHeader@pvrtexture@@QBE?BMXZ" PURGE="0" COMMENT="" />
    <EXPORT ORDINAL="105" NAME="?getChannelType@CPVRTextureHeader@pvrtexture@@QBE?BW4EPVRTVariableType@@XZ" PURGE="0" COMMENT="" />
    <EXPORT ORDINAL="106" NAME="?getColourSpace@CPVRTextureHeader@pvrtexture@@QBE?BW4EPVRTColourSpace@@XZ" PURGE="0" COMMENT="" />
    <EXPORT ORDINAL="107" NAME="?getCubeMapOrder@CPVRTextureHeader@pvrtexture@@QBE?BVCPVRTString@@XZ" PURGE="4" COMMENT="" />
    <EXPORT ORDINAL="108" NAME="?getD3DFormat@CPVRTextureHeader@pvrtexture@@QBE?BIXZ" PURGE="0" COMMENT="" />
    <EXPORT ORDINAL="109" NAME="?getDXGIFormat@CPVRTextureHeader@pvrtexture@@QBE?BIXZ" PURGE="0" COMMENT="" />
    <EXPORT ORDINAL="110" NAME="?getDataPtr@CPVRTexture@pvrtexture@@QBEPAXIII@Z" PURGE="12" COMMENT="" />
    <EXPORT ORDINAL="111" NAME="?getDataSize@CPVRTextureHeader@pvrtexture@@QBE?BIH_N0@Z" PURGE="12" COMMENT="" />
    <EXPORT ORDINAL="112" NAME="?getDepth@CPVRTextureHeader@pvrtexture@@QBE?BII@Z" PURGE="4" COMMENT="" />
    <EXPORT ORDINAL="113" NAME="?getFileHeader@CPVRTextureHeader@pvrtexture@@QBE?BUPVRTextureHeaderV3@@XZ" PURGE="4" COMMENT="" />
    <EXPORT ORDINAL="114" NAME="?getHeader@CPVRTexture@pvrtexture@@QBEABVCPVRTextureHeader@2@XZ" PURGE="0" COMMENT="" />
    <EXPORT ORDINAL="115" NAME="?getHeight@CPVRTextureHeader@pvrtexture@@QBE?BII@Z" PURGE="4" COMMENT="" />
    <EXPORT ORDINAL="116" NAME="?getMetaData@CPVRTextureHeader@pvrtexture@@QBE?AUMetaDataBlock@@II@Z" PURGE="12" COMMENT="" />
    <EXPORT ORDINAL="117" NAME="?getMetaDataSize@CPVRTextureHeader@pvrtexture@@QBE?BIXZ" PURGE="0" COMMENT="" />
    <EXPORT ORDINAL="118" NAME="?getNumArrayMembers@CPVRTextureHeader@pvrtexture@@QBE?BIXZ" PURGE="0" COMMENT="" />
    <EXPORT ORDINAL="119" NAME="?getNumFaces@CPVRTextureHeader@pvrtexture@@QBE?BIXZ" PURGE="0" COMMENT="" />
    <EXPORT ORDINAL="120" NAME="?getNumMIPLevels@CPVRTextureHeader@pvrtexture@@QBE?BIXZ" PURGE="0" COMMENT="" />
    <EXPORT ORDINAL="121" NAME="?getNumTextureAtlasMembers@CPVRTextureHeader@pvrtexture@@QBE?BHXZ" PURGE="0" COMMENT="" />
    <EXPORT ORDINAL="122" NAME="?getOGLESFormat@CPVRTextureHeader@pvrtexture@@QBEXAAI00@Z" PURGE="12" COMMENT="" />
    <EXPORT ORDINAL="123" NAME="?getOGLFormat@CPVRTextureHeader@pvrtexture@@QBEXAAI00@Z" PURGE="12" COMMENT="" />
    <EXPORT ORDINAL="124" NAME="?getOrientation@CPVRTextureHeader@pvrtexture@@QBE?BW4EPVRTOrientation@@W4EPVRTAxis@@@Z" PURGE="4" COMMENT="" />
    <EXPORT ORDINAL="125" NAME="?getPixelType@CPVRTextureHeader@pvrtexture@@QBE?BTPixelType@2@XZ" PURGE="4" COMMENT="" />
    <EXPORT ORDINAL="126" NAME="?getTextureAtlasData@CPVRTextureHeader@pvrtexture@@QBEPBMXZ" PURGE="0" COMMENT="" />
    <EXPORT ORDINAL="127" NAME="?getTextureSize@CPVRTextureHeader@pvrtexture@@QBE?BIH_N0@Z" PURGE="12" COMMENT="" />
    <EXPORT ORDINAL="128" NAME="?getWidth@CPVRTextureHeader@pvrtexture@@QBE?BII@Z" PURGE="4" COMMENT="" />
    <EXPORT ORDINAL="129" NAME="?hasMetaData@CPVRTextureHeader@pvrtexture@@QBE_NII@Z" PURGE="8" COMMENT="" />
    <EXPORT ORDINAL="130" NAME="?isBumpMap@CPVRTextureHeader@pvrtexture@@QBE?B_NXZ" PURGE="0" COMMENT="" />
    <EXPORT ORDINAL="131" NAME="?isFileCompressed@CPVRTextureHeader@pvrtexture@@QBE?B_NXZ" PURGE="0" COMMENT="" />
    <EXPORT ORDINAL="132" NAME="?isPreMultiplied@CPVRTextureHeader@pvrtexture@@QBE?B_NXZ" PURGE="0" COMMENT="" />
    <EXPORT ORDINAL="133" NAME="?privateLoadDDSFile@CPVRTexture@pvrtexture@@AAE_NPAU_iobuf@@@Z" PURGE="4" COMMENT="" />
    <EXPORT ORDINAL="134" NAME="?privateLoadKTXFile@CPVRTexture@pvrtexture@@AAE_NPAU_iobuf@@@Z" PURGE="4" COMMENT="" />
    <EXPORT ORDINAL="135" NAME="?privateLoadPVRFile@CPVRTexture@pvrtexture@@AAE_NPAU_iobuf@@@Z" PURGE="4" COMMENT="" />
    <EXPORT ORDINAL="136" NAME="?privateSaveCHeaderFile@CPVRTexture@pvrtexture@@ABE_NPAU_iobuf@@VCPVRTString@@@Z" PURGE="20" COMMENT="" />
    <EXPORT ORDINAL="137" NAME="?privateSaveDDSFile@CPVRTexture@pvrtexture@@ABE_NPAU_iobuf@@@Z" PURGE="4" COMMENT="" />
    <EXPORT ORDINAL="138" NAME="?privateSaveKTXFile@CPVRTexture@pvrtexture@@ABE_NPAU_iobuf@@@Z" PURGE="4" COMMENT="" />
    <EXPORT ORDINAL="139" NAME="?privateSaveLegacyPVRFile@CPVRTexture@pvrtexture@@ABE_NPAU_iobuf@@W4ELegacyApi@2@@Z" PURGE="8" COMMENT="" />
    <EXPORT ORDINAL="140" NAME="?privateSavePVRFile@CPVRTexture@pvrtexture@@ABE_NPAU_iobuf@@@Z" PURGE="4" COMMENT="" />
    <EXPORT ORDINAL="141" NAME="?removeMetaData@CPVRTextureHeader@pvrtexture@@QAEXABI0@Z" PURGE="8" COMMENT="" />
    <EXPORT ORDINAL="142" NAME="?saveFile@CPVRTexture@pvrtexture@@QBE_NABVCPVRTString@@@Z" PURGE="4" COMMENT="" />
    <EXPORT ORDINAL="143" NAME="?saveFileLegacyPVR@CPVRTexture@pvrtexture@@QBE_NABVCPVRTString@@W4ELegacyApi@2@@Z" PURGE="8" COMMENT="" />
    <EXPORT ORDINAL="144" NAME="?setBorder@CPVRTextureHeader@pvrtexture@@QAEXIII@Z" PURGE="12" COMMENT="" />
    <EXPORT ORDINAL="145" NAME="?setBumpMap@CPVRTextureHeader@pvrtexture@@QAEXMVCPVRTString@@@Z" PURGE="20" COMMENT="" />
    <EXPORT ORDINAL="146" NAME="?setChannelType@CPVRTextureHeader@pvrtexture@@QAEXW4EPVRTVariableType@@@Z" PURGE="4" COMMENT="" />
    <EXPORT ORDINAL="147" NAME="?setColourSpace@CPVRTextureHeader@pvrtexture@@QAEXW4EPVRTColourSpace@@@Z" PURGE="4" COMMENT="" />
    <EXPORT ORDINAL="148" NAME="?setCubeMapOrder@CPVRTextureHeader@pvrtexture@@QAEXVCPVRTString@@@Z" PURGE="16" COMMENT="" />
    <EXPORT ORDINAL="149" NAME="?setD3DFormat@CPVRTextureHeader@pvrtexture@@QAE_NABI@Z" PURGE="4" COMMENT="" />
    <EXPORT ORDINAL="150" NAME="?setDXGIFormat@CPVRTextureHeader@pvrtexture@@QAE_NABI@Z" PURGE="4" COMMENT="" />
    <EXPORT ORDINAL="151" NAME="?setDepth@CPVRTextureHeader@pvrtexture@@QAEXI@Z" PURGE="4" COMMENT="" />
    <EXPORT ORDINAL="152" NAME="?setHeight@CPVRTextureHeader@pvrtexture@@QAEXI@Z" PURGE="4" COMMENT="" />
    <EXPORT ORDINAL="153" NAME="?setIsFileCompressed@CPVRTextureHeader@pvrtexture@@QAEX_N@Z" PURGE="4" COMMENT="" />
    <EXPORT ORDINAL="154" NAME="?setIsPreMultiplied@CPVRTextureHeader@pvrtexture@@QAEX_N@Z" PURGE="4" COMMENT="" />
    <EXPORT ORDINAL="155" NAME="?setNumArrayMembers@CPVRTextureHeader@pvrtexture@@QAEXI@Z" PURGE="4" COMMENT="" />
    <EXPORT ORDINAL="156" NAME="?setNumFaces@CPVRTextureHeader@pvrtexture@@QAEXI@Z" PURGE="4" COMMENT="" />
    <EXPORT ORDINAL="157" NAME="?setNumMIPLevels@CPVRTextureHeader@pvrtexture@@QAEXI@Z" PURGE="4" COMMENT="" />
    <EXPORT ORDINAL="158" NAME="?setOGLESFormat@CPVRTextureHeader@pvrtexture@@QAE_NABI00@Z" PURGE="12" COMMENT="" />
    <EXPORT ORDINAL="159" NAME="?setOGLFormat@CPVRTextureHeader@pvrtexture@@QAE_NABI00@Z" PURGE="12" COMMENT="" />
    <EXPORT ORDINAL="160" NAME="?setOrientation@CPVRTextureHeader@pvrtexture@@QAEXW4EPVRTOrientation@@@Z" PURGE="4" COMMENT="" />
    <EXPORT ORDINAL="161" NAME="?setPixelFormat@CPVRTextureHeader@pvrtexture@@QAEXTPixelType@2@@Z" PURGE="8" COMMENT="" />
    <EXPORT ORDINAL="162" NAME="?setTextureAtlas@CPVRTextureHeader@pvrtexture@@QAEXPAMI@Z" PURGE="8" COMMENT="" />
    <EXPORT ORDINAL="163" NAME="?setWidth@CPVRTextureHeader@pvrtexture@@QAEXI@Z" PURGE="4" COMMENT="" />
</LIBRARY>

