<?xml version="1.0" encoding="UTF-8"?>
<LIBRARY NAME="qt5opengl.dll" PATH="/DLLArchive/etc/Qt5OpenGL.dll" DATE="Thu Apr 14 19:32:36 PDT 2022" VERSION="5.15.2.0">
    <EXPORT ORDINAL="1" NAME="??0QGL2PaintEngineEx@@QAE@XZ" PURGE="0" COMMENT="" />
    <EXPORT ORDINAL="2" NAME="??0QGLBuffer@@QAE@ABV0@@Z" PURGE="4" COMMENT="" />
    <EXPORT ORDINAL="3" NAME="??0QGLBuffer@@QAE@W4Type@0@@Z" PURGE="4" COMMENT="" />
    <EXPORT ORDINAL="4" NAME="??0QGLBuffer@@QAE@XZ" PURGE="0" COMMENT="" />
    <EXPORT ORDINAL="5" NAME="??0QGLColormap@@QAE@ABV0@@Z" PURGE="4" COMMENT="" />
    <EXPORT ORDINAL="6" NAME="??0QGLColormap@@QAE@XZ" PURGE="0" COMMENT="" />
    <EXPORT ORDINAL="7" NAME="??0QGLContext@@AAE@PAVQOpenGLContext@@@Z" PURGE="4" COMMENT="" />
    <EXPORT ORDINAL="8" NAME="??0QGLContext@@QAE@ABVQGLFormat@@@Z" PURGE="4" COMMENT="" />
    <EXPORT ORDINAL="9" NAME="??0QGLContext@@QAE@ABVQGLFormat@@PAVQPaintDevice@@@Z" PURGE="8" COMMENT="" />
    <EXPORT ORDINAL="10" NAME="??0QGLCustomShaderStage@@QAE@ABV0@@Z" PURGE="4" COMMENT="" />
    <EXPORT ORDINAL="11" NAME="??0QGLCustomShaderStage@@QAE@XZ" PURGE="0" COMMENT="" />
    <EXPORT ORDINAL="12" NAME="??0QGLEngineShaderManager@@QAE@PAVQGLContext@@@Z" PURGE="4" COMMENT="" />
    <EXPORT ORDINAL="13" NAME="??0QGLEngineSharedShaders@@QAE@ABV0@@Z" PURGE="4" COMMENT="" />
    <EXPORT ORDINAL="14" NAME="??0QGLEngineSharedShaders@@QAE@PBVQGLContext@@@Z" PURGE="4" COMMENT="" />
    <EXPORT ORDINAL="15" NAME="??0QGLFormat@@QAE@ABV0@@Z" PURGE="4" COMMENT="" />
    <EXPORT ORDINAL="16" NAME="??0QGLFormat@@QAE@V?$QFlags@W4FormatOption@QGL@@@@H@Z" PURGE="8" COMMENT="" />
    <EXPORT ORDINAL="17" NAME="??0QGLFormat@@QAE@XZ" PURGE="0" COMMENT="" />
    <EXPORT ORDINAL="18" NAME="??0QGLFramebufferObject@@QAE@ABVQSize@@ABVQGLFramebufferObjectFormat@@@Z" PURGE="8" COMMENT="" />
    <EXPORT ORDINAL="19" NAME="??0QGLFramebufferObject@@QAE@ABVQSize@@I@Z" PURGE="8" COMMENT="" />
    <EXPORT ORDINAL="20" NAME="??0QGLFramebufferObject@@QAE@ABVQSize@@W4Attachment@0@II@Z" PURGE="16" COMMENT="" />
    <EXPORT ORDINAL="21" NAME="??0QGLFramebufferObject@@QAE@HHABVQGLFramebufferObjectFormat@@@Z" PURGE="12" COMMENT="" />
    <EXPORT ORDINAL="22" NAME="??0QGLFramebufferObject@@QAE@HHI@Z" PURGE="12" COMMENT="" />
    <EXPORT ORDINAL="23" NAME="??0QGLFramebufferObject@@QAE@HHW4Attachment@0@II@Z" PURGE="20" COMMENT="" />
    <EXPORT ORDINAL="24" NAME="??0QGLFramebufferObjectFormat@@QAE@ABV0@@Z" PURGE="4" COMMENT="" />
    <EXPORT ORDINAL="25" NAME="??0QGLFramebufferObjectFormat@@QAE@XZ" PURGE="0" COMMENT="" />
    <EXPORT ORDINAL="26" NAME="??0QGLFunctions@@QAE@PBVQGLContext@@@Z" PURGE="4" COMMENT="" />
    <EXPORT ORDINAL="27" NAME="??0QGLFunctions@@QAE@XZ" PURGE="0" COMMENT="" />
    <EXPORT ORDINAL="28" NAME="??0QGLPaintDevice@@QAE@XZ" PURGE="0" COMMENT="" />
    <EXPORT ORDINAL="29" NAME="??0QGLPixelBuffer@@QAE@ABVQSize@@ABVQGLFormat@@PAVQGLWidget@@@Z" PURGE="12" COMMENT="" />
    <EXPORT ORDINAL="30" NAME="??0QGLPixelBuffer@@QAE@HHABVQGLFormat@@PAVQGLWidget@@@Z" PURGE="16" COMMENT="" />
    <EXPORT ORDINAL="31" NAME="??0QGLShader@@QAE@V?$QFlags@W4ShaderTypeBit@QGLShader@@@@PAVQObject@@@Z" PURGE="8" COMMENT="" />
    <EXPORT ORDINAL="32" NAME="??0QGLShader@@QAE@V?$QFlags@W4ShaderTypeBit@QGLShader@@@@PBVQGLContext@@PAVQObject@@@Z" PURGE="12" COMMENT="" />
    <EXPORT ORDINAL="33" NAME="??0QGLShaderProgram@@QAE@PAVQObject@@@Z" PURGE="4" COMMENT="" />
    <EXPORT ORDINAL="34" NAME="??0QGLShaderProgram@@QAE@PBVQGLContext@@PAVQObject@@@Z" PURGE="8" COMMENT="" />
    <EXPORT ORDINAL="35" NAME="??0QGLShareContextScope@@QAE@PBVQGLContext@@@Z" PURGE="4" COMMENT="" />
    <EXPORT ORDINAL="36" NAME="??0QGLSignalProxy@@QAE@XZ" PURGE="0" COMMENT="" />
    <EXPORT ORDINAL="37" NAME="??0QGLTextureGlyphCache@@QAE@ABV0@@Z" PURGE="4" COMMENT="" />
    <EXPORT ORDINAL="38" NAME="??0QGLTextureGlyphCache@@QAE@W4GlyphFormat@QFontEngine@@ABVQTransform@@@Z" PURGE="8" COMMENT="" />
    <EXPORT ORDINAL="39" NAME="??0QGLWidget@@IAE@AAVQGLWidgetPrivate@@ABVQGLFormat@@PAVQWidget@@PBV0@V?$QFlags@W4WindowType@Qt@@@@@Z" PURGE="20" COMMENT="" />
    <EXPORT ORDINAL="40" NAME="??0QGLWidget@@QAE@ABVQGLFormat@@PAVQWidget@@PBV0@V?$QFlags@W4WindowType@Qt@@@@@Z" PURGE="16" COMMENT="" />
    <EXPORT ORDINAL="41" NAME="??0QGLWidget@@QAE@PAVQGLContext@@PAVQWidget@@PBV0@V?$QFlags@W4WindowType@Qt@@@@@Z" PURGE="16" COMMENT="" />
    <EXPORT ORDINAL="42" NAME="??0QGLWidget@@QAE@PAVQWidget@@PBV0@V?$QFlags@W4WindowType@Qt@@@@@Z" PURGE="12" COMMENT="" />
    <EXPORT ORDINAL="43" NAME="??0QGLWidgetGLPaintDevice@@QAE@XZ" PURGE="0" COMMENT="" />
    <EXPORT ORDINAL="44" NAME="??0QGLWidgetPrivate@@QAE@XZ" PURGE="0" COMMENT="" />
    <EXPORT ORDINAL="45" NAME="??0QGraphicsShaderEffect@@QAE@PAVQObject@@@Z" PURGE="4" COMMENT="" />
    <EXPORT ORDINAL="46" NAME="??1QGL2PaintEngineEx@@UAE@XZ" PURGE="-1" COMMENT="" />
    <EXPORT ORDINAL="47" NAME="??1QGLBuffer@@QAE@XZ" PURGE="0" COMMENT="" />
    <EXPORT ORDINAL="48" NAME="??1QGLColormap@@QAE@XZ" PURGE="0" COMMENT="" />
    <EXPORT ORDINAL="49" NAME="??1QGLContext@@UAE@XZ" PURGE="0" COMMENT="" />
    <EXPORT ORDINAL="50" NAME="??1QGLCustomShaderStage@@UAE@XZ" PURGE="0" COMMENT="" />
    <EXPORT ORDINAL="51" NAME="??1QGLEngineShaderManager@@UAE@XZ" PURGE="-1" COMMENT="" />
    <EXPORT ORDINAL="52" NAME="??1QGLEngineSharedShaders@@QAE@XZ" PURGE="0" COMMENT="" />
    <EXPORT ORDINAL="53" NAME="??1QGLFormat@@QAE@XZ" PURGE="0" COMMENT="" />
    <EXPORT ORDINAL="54" NAME="??1QGLFramebufferObject@@UAE@XZ" PURGE="-1" COMMENT="" />
    <EXPORT ORDINAL="55" NAME="??1QGLFramebufferObjectFormat@@QAE@XZ" PURGE="0" COMMENT="" />
    <EXPORT ORDINAL="56" NAME="??1QGLFunctions@@QAE@XZ" PURGE="0" COMMENT="" />
    <EXPORT ORDINAL="57" NAME="??1QGLPaintDevice@@UAE@XZ" PURGE="-1" COMMENT="" />
    <EXPORT ORDINAL="58" NAME="??1QGLPixelBuffer@@UAE@XZ" PURGE="-1" COMMENT="" />
    <EXPORT ORDINAL="59" NAME="??1QGLShader@@UAE@XZ" PURGE="-1" COMMENT="" />
    <EXPORT ORDINAL="60" NAME="??1QGLShaderProgram@@UAE@XZ" PURGE="-1" COMMENT="" />
    <EXPORT ORDINAL="61" NAME="??1QGLShareContextScope@@QAE@XZ" PURGE="0" COMMENT="" />
    <EXPORT ORDINAL="62" NAME="??1QGLSignalProxy@@UAE@XZ" PURGE="-1" COMMENT="" />
    <EXPORT ORDINAL="63" NAME="??1QGLTextureGlyphCache@@UAE@XZ" PURGE="-1" COMMENT="" />
    <EXPORT ORDINAL="64" NAME="??1QGLWidget@@UAE@XZ" PURGE="-1" COMMENT="" />
    <EXPORT ORDINAL="65" NAME="??1QGLWidgetGLPaintDevice@@UAE@XZ" PURGE="-1" COMMENT="" />
    <EXPORT ORDINAL="66" NAME="??1QGLWidgetPrivate@@UAE@XZ" PURGE="-1" COMMENT="" />
    <EXPORT ORDINAL="67" NAME="??1QGraphicsShaderEffect@@UAE@XZ" PURGE="-1" COMMENT="" />
    <EXPORT ORDINAL="68" NAME="??4QGLBuffer@@QAEAAV0@ABV0@@Z" PURGE="4" COMMENT="" />
    <EXPORT ORDINAL="69" NAME="??4QGLColormap@@QAEAAV0@ABV0@@Z" PURGE="4" COMMENT="" />
    <EXPORT ORDINAL="70" NAME="??4QGLCustomShaderStage@@QAEAAV0@ABV0@@Z" PURGE="4" COMMENT="" />
    <EXPORT ORDINAL="71" NAME="??4QGLEngineSharedShaders@@QAEAAV0@ABV0@@Z" PURGE="4" COMMENT="" />
    <EXPORT ORDINAL="72" NAME="??4QGLFormat@@QAEAAV0@ABV0@@Z" PURGE="4" COMMENT="" />
    <EXPORT ORDINAL="73" NAME="??4QGLFramebufferObjectFormat@@QAEAAV0@ABV0@@Z" PURGE="4" COMMENT="" />
    <EXPORT ORDINAL="74" NAME="??4QGLFunctions@@QAEAAV0@ABV0@@Z" PURGE="4" COMMENT="" />
    <EXPORT ORDINAL="75" NAME="??4QGLShareContextScope@@QAEAAV0@ABV0@@Z" PURGE="4" COMMENT="" />
    <EXPORT ORDINAL="76" NAME="??4QGLTextureDestroyer@@QAEAAV0@$$QAV0@@Z" PURGE="4" COMMENT="" />
    <EXPORT ORDINAL="77" NAME="??4QGLTextureDestroyer@@QAEAAV0@ABV0@@Z" PURGE="4" COMMENT="" />
    <EXPORT ORDINAL="78" NAME="??6@YA?AVQDebug@@V0@ABVQGLFormat@@@Z" PURGE="0" COMMENT="" />
    <EXPORT ORDINAL="79" NAME="??8@YA_NABVQGLFormat@@0@Z" PURGE="0" COMMENT="" />
    <EXPORT ORDINAL="80" NAME="??8QGLFramebufferObjectFormat@@QBE_NABV0@@Z" PURGE="4" COMMENT="" />
    <EXPORT ORDINAL="81" NAME="??9@YA_NABVQGLFormat@@0@Z" PURGE="0" COMMENT="" />
    <EXPORT ORDINAL="82" NAME="??9QGLFramebufferObjectFormat@@QBE_NABV0@@Z" PURGE="4" COMMENT="" />
    <EXPORT ORDINAL="83" NAME="??BQGLShareContextScope@@QAEPAVQGLContext@@XZ" PURGE="0" COMMENT="" />
    <EXPORT ORDINAL="84" NAME="??CQGLShareContextScope@@QAEPAVQGLContext@@XZ" PURGE="0" COMMENT="" />
    <EXPORT ORDINAL="85" NAME="??_7QGL2PaintEngineEx@@6B@" PURGE="-1" COMMENT="" />
    <EXPORT ORDINAL="86" NAME="??_7QGLContext@@6B@" PURGE="-1" COMMENT="" />
    <EXPORT ORDINAL="87" NAME="??_7QGLCustomShaderStage@@6B@" PURGE="-1" COMMENT="" />
    <EXPORT ORDINAL="88" NAME="??_7QGLEngineShaderManager@@6B@" PURGE="-1" COMMENT="" />
    <EXPORT ORDINAL="89" NAME="??_7QGLFramebufferObject@@6B@" PURGE="-1" COMMENT="" />
    <EXPORT ORDINAL="90" NAME="??_7QGLPaintDevice@@6B@" PURGE="-1" COMMENT="" />
    <EXPORT ORDINAL="91" NAME="??_7QGLPixelBuffer@@6B@" PURGE="-1" COMMENT="" />
    <EXPORT ORDINAL="92" NAME="??_7QGLShader@@6B@" PURGE="-1" COMMENT="" />
    <EXPORT ORDINAL="93" NAME="??_7QGLShaderProgram@@6B@" PURGE="-1" COMMENT="" />
    <EXPORT ORDINAL="94" NAME="??_7QGLSignalProxy@@6B@" PURGE="-1" COMMENT="" />
    <EXPORT ORDINAL="95" NAME="??_7QGLTextureGlyphCache@@6B@" PURGE="-1" COMMENT="" />
    <EXPORT ORDINAL="96" NAME="??_7QGLWidget@@6BQObject@@@" PURGE="-1" COMMENT="" />
    <EXPORT ORDINAL="97" NAME="??_7QGLWidget@@6BQPaintDevice@@@" PURGE="-1" COMMENT="" />
    <EXPORT ORDINAL="98" NAME="??_7QGLWidgetGLPaintDevice@@6B@" PURGE="-1" COMMENT="" />
    <EXPORT ORDINAL="99" NAME="??_7QGLWidgetPrivate@@6B@" PURGE="-1" COMMENT="" />
    <EXPORT ORDINAL="100" NAME="??_7QGraphicsShaderEffect@@6B@" PURGE="-1" COMMENT="" />
    <EXPORT ORDINAL="101" NAME="??_FQGLShaderProgram@@QAEXXZ" PURGE="0" COMMENT="" />
    <EXPORT ORDINAL="102" NAME="??_FQGLWidget@@QAEXXZ" PURGE="0" COMMENT="" />
    <EXPORT ORDINAL="103" NAME="??_FQGraphicsShaderEffect@@QAEXXZ" PURGE="0" COMMENT="" />
    <EXPORT ORDINAL="104" NAME="?aboutToDestroy@QGLWidgetPrivate@@UAEXXZ" PURGE="0" COMMENT="" />
    <EXPORT ORDINAL="105" NAME="?aboutToDestroyContext@QGLSignalProxy@@QAEXPBVQGLContext@@@Z" PURGE="4" COMMENT="" />
    <EXPORT ORDINAL="106" NAME="?accum@QGLFormat@@QBE_NXZ" PURGE="0" COMMENT="" />
    <EXPORT ORDINAL="107" NAME="?accumBufferSize@QGLFormat@@QBEHXZ" PURGE="0" COMMENT="" />
    <EXPORT ORDINAL="108" NAME="?addShader@QGLShaderProgram@@QAE_NPAVQGLShader@@@Z" PURGE="4" COMMENT="" />
    <EXPORT ORDINAL="109" NAME="?addShaderFromSourceCode@QGLShaderProgram@@QAE_NV?$QFlags@W4ShaderTypeBit@QGLShader@@@@ABVQByteArray@@@Z" PURGE="8" COMMENT="" />
    <EXPORT ORDINAL="110" NAME="?addShaderFromSourceCode@QGLShaderProgram@@QAE_NV?$QFlags@W4ShaderTypeBit@QGLShader@@@@ABVQString@@@Z" PURGE="8" COMMENT="" />
    <EXPORT ORDINAL="111" NAME="?addShaderFromSourceCode@QGLShaderProgram@@QAE_NV?$QFlags@W4ShaderTypeBit@QGLShader@@@@PBD@Z" PURGE="8" COMMENT="" />
    <EXPORT ORDINAL="112" NAME="?addShaderFromSourceFile@QGLShaderProgram@@QAE_NV?$QFlags@W4ShaderTypeBit@QGLShader@@@@ABVQString@@@Z" PURGE="8" COMMENT="" />
    <EXPORT ORDINAL="113" NAME="?allocate@QGLBuffer@@QAEXH@Z" PURGE="4" COMMENT="" />
    <EXPORT ORDINAL="114" NAME="?allocate@QGLBuffer@@QAEXPBXH@Z" PURGE="8" COMMENT="" />
    <EXPORT ORDINAL="115" NAME="?alpha@QGLFormat@@QBE_NXZ" PURGE="0" COMMENT="" />
    <EXPORT ORDINAL="116" NAME="?alphaBufferSize@QGLFormat@@QBEHXZ" PURGE="0" COMMENT="" />
    <EXPORT ORDINAL="117" NAME="?alphaRequested@QGLPaintDevice@@UBE_NXZ" PURGE="0" COMMENT="" />
    <EXPORT ORDINAL="118" NAME="?areSharing@QGLContext@@SA_NPBV1@0@Z" PURGE="0" COMMENT="" />
    <EXPORT ORDINAL="119" NAME="?attachment@QGLFramebufferObject@@QBE?AW4Attachment@1@XZ" PURGE="0" COMMENT="" />
    <EXPORT ORDINAL="120" NAME="?attachment@QGLFramebufferObjectFormat@@QBE?AW4Attachment@QGLFramebufferObject@@XZ" PURGE="0" COMMENT="" />
    <EXPORT ORDINAL="121" NAME="?attributeLocation@QGLShaderProgram@@QBEHABVQByteArray@@@Z" PURGE="4" COMMENT="" />
    <EXPORT ORDINAL="122" NAME="?attributeLocation@QGLShaderProgram@@QBEHABVQString@@@Z" PURGE="4" COMMENT="" />
    <EXPORT ORDINAL="123" NAME="?attributeLocation@QGLShaderProgram@@QBEHPBD@Z" PURGE="4" COMMENT="" />
    <EXPORT ORDINAL="124" NAME="?autoBufferSwap@QGLWidget@@IBE_NXZ" PURGE="0" COMMENT="" />
    <EXPORT ORDINAL="125" NAME="?begin@QGL2PaintEngineEx@@UAE_NPAVQPaintDevice@@@Z" PURGE="4" COMMENT="" />
    <EXPORT ORDINAL="126" NAME="?beginNativePainting@QGL2PaintEngineEx@@UAEXXZ" PURGE="0" COMMENT="" />
    <EXPORT ORDINAL="127" NAME="?beginPaint@QGLPaintDevice@@UAEXXZ" PURGE="0" COMMENT="" />
    <EXPORT ORDINAL="128" NAME="?beginPaint@QGLWidgetGLPaintDevice@@UAEXXZ" PURGE="0" COMMENT="" />
    <EXPORT ORDINAL="129" NAME="?bind@QGLBuffer@@QAE_NXZ" PURGE="0" COMMENT="" />
    <EXPORT ORDINAL="130" NAME="?bind@QGLFramebufferObject@@QAE_NXZ" PURGE="0" COMMENT="" />
    <EXPORT ORDINAL="131" NAME="?bind@QGLShaderProgram@@QAE_NXZ" PURGE="0" COMMENT="" />
    <EXPORT ORDINAL="132" NAME="?bindAttributeLocation@QGLShaderProgram@@QAEXABVQByteArray@@H@Z" PURGE="8" COMMENT="" />
    <EXPORT ORDINAL="133" NAME="?bindAttributeLocation@QGLShaderProgram@@QAEXABVQString@@H@Z" PURGE="8" COMMENT="" />
    <EXPORT ORDINAL="134" NAME="?bindAttributeLocation@QGLShaderProgram@@QAEXPBDH@Z" PURGE="8" COMMENT="" />
    <EXPORT ORDINAL="135" NAME="?bindDefault@QGLFramebufferObject@@SA_NXZ" PURGE="0" COMMENT="" />
    <EXPORT ORDINAL="136" NAME="?bindTexture@QGLContext@@QAEIABVQImage@@IH@Z" PURGE="12" COMMENT="" />
    <EXPORT ORDINAL="137" NAME="?bindTexture@QGLContext@@QAEIABVQImage@@IHV?$QFlags@W4BindOption@QGLContext@@@@@Z" PURGE="16" COMMENT="" />
    <EXPORT ORDINAL="138" NAME="?bindTexture@QGLContext@@QAEIABVQPixmap@@IH@Z" PURGE="12" COMMENT="" />
    <EXPORT ORDINAL="139" NAME="?bindTexture@QGLContext@@QAEIABVQPixmap@@IHV?$QFlags@W4BindOption@QGLContext@@@@@Z" PURGE="16" COMMENT="" />
    <EXPORT ORDINAL="140" NAME="?bindTexture@QGLContext@@QAEIABVQString@@@Z" PURGE="4" COMMENT="" />
    <EXPORT ORDINAL="141" NAME="?bindTexture@QGLPixelBuffer@@QAEIABVQImage@@I@Z" PURGE="8" COMMENT="" />
    <EXPORT ORDINAL="142" NAME="?bindTexture@QGLPixelBuffer@@QAEIABVQPixmap@@I@Z" PURGE="8" COMMENT="" />
    <EXPORT ORDINAL="143" NAME="?bindTexture@QGLPixelBuffer@@QAEIABVQString@@@Z" PURGE="4" COMMENT="" />
    <EXPORT ORDINAL="144" NAME="?bindTexture@QGLWidget@@QAEIABVQImage@@IH@Z" PURGE="12" COMMENT="" />
    <EXPORT ORDINAL="145" NAME="?bindTexture@QGLWidget@@QAEIABVQImage@@IHV?$QFlags@W4BindOption@QGLContext@@@@@Z" PURGE="16" COMMENT="" />
    <EXPORT ORDINAL="146" NAME="?bindTexture@QGLWidget@@QAEIABVQPixmap@@IH@Z" PURGE="12" COMMENT="" />
    <EXPORT ORDINAL="147" NAME="?bindTexture@QGLWidget@@QAEIABVQPixmap@@IHV?$QFlags@W4BindOption@QGLContext@@@@@Z" PURGE="16" COMMENT="" />
    <EXPORT ORDINAL="148" NAME="?bindTexture@QGLWidget@@QAEIABVQString@@@Z" PURGE="4" COMMENT="" />
    <EXPORT ORDINAL="149" NAME="?bindToDynamicTexture@QGLPixelBuffer@@QAE_NI@Z" PURGE="4" COMMENT="" />
    <EXPORT ORDINAL="150" NAME="?blitFramebuffer@QGLFramebufferObject@@SAXPAV1@ABVQRect@@01II@Z" PURGE="0" COMMENT="" />
    <EXPORT ORDINAL="151" NAME="?blitProgram@QGLEngineShaderManager@@QAEPAVQGLShaderProgram@@XZ" PURGE="0" COMMENT="" />
    <EXPORT ORDINAL="152" NAME="?blitProgram@QGLEngineSharedShaders@@QAEPAVQGLShaderProgram@@XZ" PURGE="0" COMMENT="" />
    <EXPORT ORDINAL="153" NAME="?blueBufferSize@QGLFormat@@QBEHXZ" PURGE="0" COMMENT="" />
    <EXPORT ORDINAL="154" NAME="?brushChanged@QGL2PaintEngineEx@@UAEXXZ" PURGE="0" COMMENT="" />
    <EXPORT ORDINAL="155" NAME="?brushOriginChanged@QGL2PaintEngineEx@@UAEXXZ" PURGE="0" COMMENT="" />
    <EXPORT ORDINAL="156" NAME="?bufferId@QGLBuffer@@QBEIXZ" PURGE="0" COMMENT="" />
    <EXPORT ORDINAL="157" NAME="?chooseContext@QGLContext@@MAE_NPBV1@@Z" PURGE="4" COMMENT="" />
    <EXPORT ORDINAL="158" NAME="?cleanup@QGLColormap@@CAXPAUQGLColormapData@1@@Z" PURGE="0" COMMENT="" />
    <EXPORT ORDINAL="159" NAME="?cleanupColormaps@QGLWidgetPrivate@@QAEXXZ" PURGE="0" COMMENT="" />
    <EXPORT ORDINAL="160" NAME="?cleanupCustomStage@QGLEngineSharedShaders@@QAEXPAVQGLCustomShaderStage@@@Z" PURGE="4" COMMENT="" />
    <EXPORT ORDINAL="161" NAME="?clear@QGLTextureGlyphCache@@QAEXXZ" PURGE="0" COMMENT="" />
    <EXPORT ORDINAL="162" NAME="?clip@QGL2PaintEngineEx@@UAEXABVQVectorPath@@W4ClipOperation@Qt@@@Z" PURGE="8" COMMENT="" />
    <EXPORT ORDINAL="163" NAME="?clipEnabledChanged@QGL2PaintEngineEx@@UAEXXZ" PURGE="-1" COMMENT="" />
    <EXPORT ORDINAL="164" NAME="?colorIndex@QGLContext@@IBEIABVQColor@@@Z" PURGE="4" COMMENT="" />
    <EXPORT ORDINAL="165" NAME="?colormap@QGLWidget@@QBEABVQGLColormap@@XZ" PURGE="0" COMMENT="" />
    <EXPORT ORDINAL="166" NAME="?compileSourceCode@QGLShader@@QAE_NABVQByteArray@@@Z" PURGE="4" COMMENT="" />
    <EXPORT ORDINAL="167" NAME="?compileSourceCode@QGLShader@@QAE_NABVQString@@@Z" PURGE="4" COMMENT="" />
    <EXPORT ORDINAL="168" NAME="?compileSourceCode@QGLShader@@QAE_NPBD@Z" PURGE="4" COMMENT="" />
    <EXPORT ORDINAL="169" NAME="?compileSourceFile@QGLShader@@QAE_NABVQString@@@Z" PURGE="4" COMMENT="" />
    <EXPORT ORDINAL="170" NAME="?compositionModeChanged@QGL2PaintEngineEx@@UAEXXZ" PURGE="0" COMMENT="" />
    <EXPORT ORDINAL="171" NAME="?context@QGLPixelBuffer@@QBEPAVQGLContext@@XZ" PURGE="0" COMMENT="" />
    <EXPORT ORDINAL="172" NAME="?context@QGLWidget@@QBEPAVQGLContext@@XZ" PURGE="0" COMMENT="" />
    <EXPORT ORDINAL="173" NAME="?context@QGLWidgetGLPaintDevice@@UBEPAVQGLContext@@XZ" PURGE="0" COMMENT="" />
    <EXPORT ORDINAL="174" NAME="?contextGroup@QGLTextureGlyphCache@@QBEPBVQOpenGLContextGroup@@XZ" PURGE="0" COMMENT="" />
    <EXPORT ORDINAL="175" NAME="?contextHandle@QGLContext@@QBEPAVQOpenGLContext@@XZ" PURGE="0" COMMENT="" />
    <EXPORT ORDINAL="176" NAME="?convertToGLFormat@QGLWidget@@SA?AVQImage@@ABV2@@Z" PURGE="0" COMMENT="" />
    <EXPORT ORDINAL="177" NAME="?create@QGLBuffer@@QAE_NXZ" PURGE="0" COMMENT="" />
    <EXPORT ORDINAL="178" NAME="?create@QGLContext@@UAE_NPBV1@@Z" PURGE="4" COMMENT="" />
    <EXPORT ORDINAL="179" NAME="?createState@QGL2PaintEngineEx@@UBEPAVQPainterState@@PAV2@@Z" PURGE="4" COMMENT="" />
    <EXPORT ORDINAL="180" NAME="?createTextureData@QGLTextureGlyphCache@@UAEXHH@Z" PURGE="8" COMMENT="" />
    <EXPORT ORDINAL="181" NAME="?currentContext@QGLContext@@SAPBV1@XZ" PURGE="0" COMMENT="" />
    <EXPORT ORDINAL="182" NAME="?currentCtx@QGLContext@@1PAV1@A" PURGE="-1" COMMENT="" />
    <EXPORT ORDINAL="183" NAME="?currentProgram@QGLEngineShaderManager@@QAEPAVQGLShaderProgram@@XZ" PURGE="0" COMMENT="" />
    <EXPORT ORDINAL="184" NAME="?d_func@QGL2PaintEngineEx@@AAEPAVQGL2PaintEngineExPrivate@@XZ" PURGE="0" COMMENT="" />
    <EXPORT ORDINAL="185" NAME="?d_func@QGL2PaintEngineEx@@ABEPBVQGL2PaintEngineExPrivate@@XZ" PURGE="0" COMMENT="" />
    <EXPORT ORDINAL="186" NAME="?d_func@QGLBuffer@@AAEPAVQGLBufferPrivate@@XZ" PURGE="0" COMMENT="" />
    <EXPORT ORDINAL="187" NAME="?d_func@QGLBuffer@@ABEPBVQGLBufferPrivate@@XZ" PURGE="0" COMMENT="" />
    <EXPORT ORDINAL="188" NAME="?d_func@QGLContext@@AAEPAVQGLContextPrivate@@XZ" PURGE="0" COMMENT="" />
    <EXPORT ORDINAL="189" NAME="?d_func@QGLContext@@ABEPBVQGLContextPrivate@@XZ" PURGE="0" COMMENT="" />
    <EXPORT ORDINAL="190" NAME="?d_func@QGLCustomShaderStage@@AAEPAVQGLCustomShaderStagePrivate@@XZ" PURGE="0" COMMENT="" />
    <EXPORT ORDINAL="191" NAME="?d_func@QGLCustomShaderStage@@ABEPBVQGLCustomShaderStagePrivate@@XZ" PURGE="0" COMMENT="" />
    <EXPORT ORDINAL="192" NAME="?d_func@QGLFramebufferObject@@AAEPAVQGLFramebufferObjectPrivate@@XZ" PURGE="0" COMMENT="" />
    <EXPORT ORDINAL="193" NAME="?d_func@QGLFramebufferObject@@ABEPBVQGLFramebufferObjectPrivate@@XZ" PURGE="0" COMMENT="" />
    <EXPORT ORDINAL="194" NAME="?d_func@QGLPixelBuffer@@AAEPAVQGLPixelBufferPrivate@@XZ" PURGE="0" COMMENT="" />
    <EXPORT ORDINAL="195" NAME="?d_func@QGLPixelBuffer@@ABEPBVQGLPixelBufferPrivate@@XZ" PURGE="0" COMMENT="" />
    <EXPORT ORDINAL="196" NAME="?d_func@QGLShader@@AAEPAVQGLShaderPrivate@@XZ" PURGE="0" COMMENT="" />
    <EXPORT ORDINAL="197" NAME="?d_func@QGLShader@@ABEPBVQGLShaderPrivate@@XZ" PURGE="0" COMMENT="" />
    <EXPORT ORDINAL="198" NAME="?d_func@QGLShaderProgram@@AAEPAVQGLShaderProgramPrivate@@XZ" PURGE="0" COMMENT="" />
    <EXPORT ORDINAL="199" NAME="?d_func@QGLShaderProgram@@ABEPBVQGLShaderProgramPrivate@@XZ" PURGE="0" COMMENT="" />
    <EXPORT ORDINAL="200" NAME="?d_func@QGLWidget@@AAEPAVQGLWidgetPrivate@@XZ" PURGE="0" COMMENT="" />
    <EXPORT ORDINAL="201" NAME="?d_func@QGLWidget@@ABEPBVQGLWidgetPrivate@@XZ" PURGE="0" COMMENT="" />
    <EXPORT ORDINAL="202" NAME="?d_func@QGraphicsShaderEffect@@AAEPAVQGraphicsShaderEffectPrivate@@XZ" PURGE="0" COMMENT="" />
    <EXPORT ORDINAL="203" NAME="?d_func@QGraphicsShaderEffect@@ABEPBVQGraphicsShaderEffectPrivate@@XZ" PURGE="0" COMMENT="" />
    <EXPORT ORDINAL="204" NAME="?defaultFormat@QGLFormat@@SA?AV1@XZ" PURGE="0" COMMENT="" />
    <EXPORT ORDINAL="205" NAME="?defaultOverlayFormat@QGLFormat@@SA?AV1@XZ" PURGE="0" COMMENT="" />
    <EXPORT ORDINAL="206" NAME="?deleteTexture@QGLContext@@QAEXI@Z" PURGE="4" COMMENT="" />
    <EXPORT ORDINAL="207" NAME="?deleteTexture@QGLPixelBuffer@@QAEXI@Z" PURGE="4" COMMENT="" />
    <EXPORT ORDINAL="208" NAME="?deleteTexture@QGLWidget@@QAEXI@Z" PURGE="4" COMMENT="" />
    <EXPORT ORDINAL="209" NAME="?depth@QGLFormat@@QBE_NXZ" PURGE="0" COMMENT="" />
    <EXPORT ORDINAL="210" NAME="?depthBufferSize@QGLFormat@@QBEHXZ" PURGE="0" COMMENT="" />
    <EXPORT ORDINAL="211" NAME="?destroy@QGLBuffer@@QAEXXZ" PURGE="0" COMMENT="" />
    <EXPORT ORDINAL="212" NAME="?detach@QGLColormap@@QAEXXZ" PURGE="0" COMMENT="" />
    <EXPORT ORDINAL="213" NAME="?detach@QGLFormat@@AAEXXZ" PURGE="0" COMMENT="" />
    <EXPORT ORDINAL="214" NAME="?detach@QGLFramebufferObjectFormat@@AAEXXZ" PURGE="0" COMMENT="" />
    <EXPORT ORDINAL="215" NAME="?detach_helper@QGLColormap@@AAEXXZ" PURGE="0" COMMENT="" />
    <EXPORT ORDINAL="216" NAME="?devType@QGLFramebufferObject@@MBEHXZ" PURGE="0" COMMENT="" />
    <EXPORT ORDINAL="217" NAME="?devType@QGLPaintDevice@@UBEHXZ" PURGE="0" COMMENT="" />
    <EXPORT ORDINAL="218" NAME="?devType@QGLPixelBuffer@@MBEHXZ" PURGE="0" COMMENT="" />
    <EXPORT ORDINAL="219" NAME="?device@QGLContext@@QBEPAVQPaintDevice@@XZ" PURGE="0" COMMENT="" />
    <EXPORT ORDINAL="220" NAME="?deviceIsPixmap@QGLContext@@IBE_NXZ" PURGE="0" COMMENT="" />
    <EXPORT ORDINAL="221" NAME="?directRendering@QGLFormat@@QBE_NXZ" PURGE="0" COMMENT="" />
    <EXPORT ORDINAL="222" NAME="?disableAttributeArray@QGLShaderProgram@@QAEXH@Z" PURGE="4" COMMENT="" />
    <EXPORT ORDINAL="223" NAME="?disableAttributeArray@QGLShaderProgram@@QAEXPBD@Z" PURGE="4" COMMENT="" />
    <EXPORT ORDINAL="224" NAME="?doneCurrent@QGLContext@@UAEXXZ" PURGE="-1" COMMENT="" />
    <EXPORT ORDINAL="225" NAME="?doneCurrent@QGLPixelBuffer@@QAE_NXZ" PURGE="0" COMMENT="" />
    <EXPORT ORDINAL="226" NAME="?doneCurrent@QGLWidget@@QAEXXZ" PURGE="-1" COMMENT="" />
    <EXPORT ORDINAL="227" NAME="?doubleBuffer@QGLFormat@@QBE_NXZ" PURGE="0" COMMENT="" />
    <EXPORT ORDINAL="228" NAME="?doubleBuffer@QGLWidget@@QBE_NXZ" PURGE="0" COMMENT="" />
    <EXPORT ORDINAL="229" NAME="?draw@QGraphicsShaderEffect@@MAEXPAVQPainter@@@Z" PURGE="4" COMMENT="" />
    <EXPORT ORDINAL="230" NAME="?drawImage@QGL2PaintEngineEx@@UAEXABVQRectF@@ABVQImage@@0V?$QFlags@W4ImageConversionFlag@Qt@@@@@Z" PURGE="16" COMMENT="" />
    <EXPORT ORDINAL="231" NAME="?drawPixmap@QGL2PaintEngineEx@@UAEXABVQRectF@@ABVQPixmap@@0@Z" PURGE="12" COMMENT="" />
    <EXPORT ORDINAL="232" NAME="?drawPixmapFragments@QGL2PaintEngineEx@@UAEXPBVPixmapFragment@QPainter@@HABVQPixmap@@V?$QFlags@W4PixmapFragmentHint@QPainter@@@@@Z" PURGE="16" COMMENT="" />
    <EXPORT ORDINAL="233" NAME="?drawStaticTextItem@QGL2PaintEngineEx@@UAEXPAVQStaticTextItem@@@Z" PURGE="4" COMMENT="" />
    <EXPORT ORDINAL="234" NAME="?drawTextItem@QGL2PaintEngineEx@@UAEXABVQPointF@@ABVQTextItem@@@Z" PURGE="8" COMMENT="" />
    <EXPORT ORDINAL="235" NAME="?drawTexture@QGL2PaintEngineEx@@QAE_NABVQRectF@@IABVQSize@@0@Z" PURGE="16" COMMENT="" />
    <EXPORT ORDINAL="236" NAME="?drawTexture@QGLContext@@QAEXABVQPointF@@II@Z" PURGE="12" COMMENT="" />
    <EXPORT ORDINAL="237" NAME="?drawTexture@QGLContext@@QAEXABVQRectF@@II@Z" PURGE="12" COMMENT="" />
    <EXPORT ORDINAL="238" NAME="?drawTexture@QGLFramebufferObject@@QAEXABVQPointF@@II@Z" PURGE="12" COMMENT="" />
    <EXPORT ORDINAL="239" NAME="?drawTexture@QGLFramebufferObject@@QAEXABVQRectF@@II@Z" PURGE="12" COMMENT="" />
    <EXPORT ORDINAL="240" NAME="?drawTexture@QGLPixelBuffer@@QAEXABVQPointF@@II@Z" PURGE="12" COMMENT="" />
    <EXPORT ORDINAL="241" NAME="?drawTexture@QGLPixelBuffer@@QAEXABVQRectF@@II@Z" PURGE="12" COMMENT="" />
    <EXPORT ORDINAL="242" NAME="?drawTexture@QGLWidget@@QAEXABVQPointF@@II@Z" PURGE="12" COMMENT="" />
    <EXPORT ORDINAL="243" NAME="?drawTexture@QGLWidget@@QAEXABVQRectF@@II@Z" PURGE="12" COMMENT="" />
    <EXPORT ORDINAL="244" NAME="?emitAboutToDestroyContext@QGLSignalProxy@@QAEXPBVQGLContext@@@Z" PURGE="4" COMMENT="" />
    <EXPORT ORDINAL="245" NAME="?emitFreeTexture@QGLTextureDestroyer@@QAEXPAVQGLContext@@PAVQPlatformPixmap@@I@Z" PURGE="12" COMMENT="" />
    <EXPORT ORDINAL="246" NAME="?enableAttributeArray@QGLShaderProgram@@QAEXH@Z" PURGE="4" COMMENT="" />
    <EXPORT ORDINAL="247" NAME="?enableAttributeArray@QGLShaderProgram@@QAEXPBD@Z" PURGE="4" COMMENT="" />
    <EXPORT ORDINAL="248" NAME="?end@QGL2PaintEngineEx@@UAE_NXZ" PURGE="0" COMMENT="" />
    <EXPORT ORDINAL="249" NAME="?endNativePainting@QGL2PaintEngineEx@@UAEXXZ" PURGE="0" COMMENT="" />
    <EXPORT ORDINAL="250" NAME="?endPaint@QGLPaintDevice@@UAEXXZ" PURGE="0" COMMENT="" />
    <EXPORT ORDINAL="251" NAME="?endPaint@QGLWidgetGLPaintDevice@@UAEXXZ" PURGE="0" COMMENT="" />
    <EXPORT ORDINAL="252" NAME="?ensureActive@QGL2PaintEngineEx@@QAEXXZ" PURGE="0" COMMENT="" />
    <EXPORT ORDINAL="253" NAME="?ensureActiveTarget@QGLPaintDevice@@UAEXXZ" PURGE="0" COMMENT="" />
    <EXPORT ORDINAL="254" NAME="?entryColor@QGLColormap@@QBE?AVQColor@@H@Z" PURGE="8" COMMENT="" />
    <EXPORT ORDINAL="255" NAME="?entryRgb@QGLColormap@@QBEIH@Z" PURGE="4" COMMENT="" />
    <EXPORT ORDINAL="256" NAME="?event@QGLWidget@@MAE_NPAVQEvent@@@Z" PURGE="-1" COMMENT="" />
    <EXPORT ORDINAL="257" NAME="?fill@QGL2PaintEngineEx@@UAEXABVQVectorPath@@ABVQBrush@@@Z" PURGE="8" COMMENT="" />
    <EXPORT ORDINAL="258" NAME="?fillTexture@QGLTextureGlyphCache@@UAEXABUCoord@QTextureGlyphCache@@IUQFixed@@@Z" PURGE="12" COMMENT="" />
    <EXPORT ORDINAL="259" NAME="?filterMode@QGLTextureGlyphCache@@QBE?AW4FilterMode@1@XZ" PURGE="0" COMMENT="" />
    <EXPORT ORDINAL="260" NAME="?find@QGLColormap@@QBEHI@Z" PURGE="4" COMMENT="" />
    <EXPORT ORDINAL="261" NAME="?findNearest@QGLColormap@@QBEHI@Z" PURGE="4" COMMENT="" />
    <EXPORT ORDINAL="262" NAME="?findProgramInCache@QGLEngineSharedShaders@@QAEPAVQGLEngineShaderProg@@ABV2@@Z" PURGE="4" COMMENT="" />
    <EXPORT ORDINAL="263" NAME="?format@QGLContext@@QBE?AVQGLFormat@@XZ" PURGE="4" COMMENT="" />
    <EXPORT ORDINAL="264" NAME="?format@QGLFramebufferObject@@QBE?AVQGLFramebufferObjectFormat@@XZ" PURGE="4" COMMENT="" />
    <EXPORT ORDINAL="265" NAME="?format@QGLPaintDevice@@UBE?AVQGLFormat@@XZ" PURGE="4" COMMENT="" />
    <EXPORT ORDINAL="266" NAME="?format@QGLPixelBuffer@@QBE?AVQGLFormat@@XZ" PURGE="4" COMMENT="" />
    <EXPORT ORDINAL="267" NAME="?format@QGLWidget@@QBE?AVQGLFormat@@XZ" PURGE="4" COMMENT="" />
    <EXPORT ORDINAL="268" NAME="?freeTextureFunc@QGLTextureDestroyer@@CAXPAVQOpenGLFunctions@@I@Z" PURGE="0" COMMENT="" />
    <EXPORT ORDINAL="269" NAME="?fromOpenGLContext@QGLContext@@SAPAV1@PAVQOpenGLContext@@@Z" PURGE="0" COMMENT="" />
    <EXPORT ORDINAL="270" NAME="?fromSurfaceFormat@QGLFormat@@SA?AV1@ABVQSurfaceFormat@@@Z" PURGE="0" COMMENT="" />
    <EXPORT ORDINAL="271" NAME="?functions@QGLContext@@QBEPAVQGLFunctions@@XZ" PURGE="0" COMMENT="" />
    <EXPORT ORDINAL="272" NAME="?generateDynamicTexture@QGLPixelBuffer@@QBEIXZ" PURGE="0" COMMENT="" />
    <EXPORT ORDINAL="273" NAME="?geometryInputType@QGLShaderProgram@@QBEIXZ" PURGE="0" COMMENT="" />
    <EXPORT ORDINAL="274" NAME="?geometryOutputType@QGLShaderProgram@@QBEIXZ" PURGE="0" COMMENT="" />
    <EXPORT ORDINAL="275" NAME="?geometryOutputVertexCount@QGLShaderProgram@@QBEHXZ" PURGE="0" COMMENT="" />
    <EXPORT ORDINAL="276" NAME="?getDevice@QGLPaintDevice@@SAPAV1@PAVQPaintDevice@@@Z" PURGE="0" COMMENT="" />
    <EXPORT ORDINAL="277" NAME="?getProcAddress@QGLContext@@QBEP6AXXZABVQString@@@Z" PURGE="4" COMMENT="" />
    <EXPORT ORDINAL="278" NAME="?getUniformLocation@QGLEngineShaderManager@@QAEIW4Uniform@1@@Z" PURGE="4" COMMENT="" />
    <EXPORT ORDINAL="279" NAME="?glActiveTexture@QGLFunctions@@QAEXI@Z" PURGE="-1" COMMENT="" />
    <EXPORT ORDINAL="280" NAME="?glAttachShader@QGLFunctions@@QAEXII@Z" PURGE="-1" COMMENT="" />
    <EXPORT ORDINAL="281" NAME="?glBindAttribLocation@QGLFunctions@@QAEXIIPBD@Z" PURGE="-1" COMMENT="" />
    <EXPORT ORDINAL="282" NAME="?glBindBuffer@QGLFunctions@@QAEXII@Z" PURGE="-1" COMMENT="" />
    <EXPORT ORDINAL="283" NAME="?glBindFramebuffer@QGLFunctions@@QAEXII@Z" PURGE="8" COMMENT="" />
    <EXPORT ORDINAL="284" NAME="?glBindRenderbuffer@QGLFunctions@@QAEXII@Z" PURGE="-1" COMMENT="" />
    <EXPORT ORDINAL="285" NAME="?glBlendColor@QGLFunctions@@QAEXMMMM@Z" PURGE="16" COMMENT="" />
    <EXPORT ORDINAL="286" NAME="?glBlendEquation@QGLFunctions@@QAEXI@Z" PURGE="-1" COMMENT="" />
    <EXPORT ORDINAL="287" NAME="?glBlendEquationSeparate@QGLFunctions@@QAEXII@Z" PURGE="-1" COMMENT="" />
    <EXPORT ORDINAL="288" NAME="?glBlendFuncSeparate@QGLFunctions@@QAEXIIII@Z" PURGE="-1" COMMENT="" />
    <EXPORT ORDINAL="289" NAME="?glBufferData@QGLFunctions@@QAEXIHPBXI@Z" PURGE="-1" COMMENT="" />
    <EXPORT ORDINAL="290" NAME="?glBufferSubData@QGLFunctions@@QAEXIHHPBX@Z" PURGE="-1" COMMENT="" />
    <EXPORT ORDINAL="291" NAME="?glCheckFramebufferStatus@QGLFunctions@@QAEII@Z" PURGE="-1" COMMENT="" />
    <EXPORT ORDINAL="292" NAME="?glClearDepthf@QGLFunctions@@QAEXM@Z" PURGE="4" COMMENT="" />
    <EXPORT ORDINAL="293" NAME="?glCompileShader@QGLFunctions@@QAEXI@Z" PURGE="-1" COMMENT="" />
    <EXPORT ORDINAL="294" NAME="?glCompressedTexImage2D@QGLFunctions@@QAEXIHIHHHHPBX@Z" PURGE="-1" COMMENT="" />
    <EXPORT ORDINAL="295" NAME="?glCompressedTexSubImage2D@QGLFunctions@@QAEXIHHHHHIHPBX@Z" PURGE="-1" COMMENT="" />
    <EXPORT ORDINAL="296" NAME="?glCreateProgram@QGLFunctions@@QAEIXZ" PURGE="-1" COMMENT="" />
    <EXPORT ORDINAL="297" NAME="?glCreateShader@QGLFunctions@@QAEII@Z" PURGE="-1" COMMENT="" />
    <EXPORT ORDINAL="298" NAME="?glDeleteBuffers@QGLFunctions@@QAEXHPBI@Z" PURGE="-1" COMMENT="" />
    <EXPORT ORDINAL="299" NAME="?glDeleteFramebuffers@QGLFunctions@@QAEXHPBI@Z" PURGE="-1" COMMENT="" />
    <EXPORT ORDINAL="300" NAME="?glDeleteProgram@QGLFunctions@@QAEXI@Z" PURGE="-1" COMMENT="" />
    <EXPORT ORDINAL="301" NAME="?glDeleteRenderbuffers@QGLFunctions@@QAEXHPBI@Z" PURGE="-1" COMMENT="" />
    <EXPORT ORDINAL="302" NAME="?glDeleteShader@QGLFunctions@@QAEXI@Z" PURGE="-1" COMMENT="" />
    <EXPORT ORDINAL="303" NAME="?glDepthRangef@QGLFunctions@@QAEXMM@Z" PURGE="8" COMMENT="" />
    <EXPORT ORDINAL="304" NAME="?glDetachShader@QGLFunctions@@QAEXII@Z" PURGE="-1" COMMENT="" />
    <EXPORT ORDINAL="305" NAME="?glDisableVertexAttribArray@QGLFunctions@@QAEXI@Z" PURGE="-1" COMMENT="" />
    <EXPORT ORDINAL="306" NAME="?glDraw@QGLWidget@@MAEXXZ" PURGE="0" COMMENT="" />
    <EXPORT ORDINAL="307" NAME="?glEnableVertexAttribArray@QGLFunctions@@QAEXI@Z" PURGE="-1" COMMENT="" />
    <EXPORT ORDINAL="308" NAME="?glFramebufferRenderbuffer@QGLFunctions@@QAEXIIII@Z" PURGE="-1" COMMENT="" />
    <EXPORT ORDINAL="309" NAME="?glFramebufferTexture2D@QGLFunctions@@QAEXIIIIH@Z" PURGE="-1" COMMENT="" />
    <EXPORT ORDINAL="310" NAME="?glGenBuffers@QGLFunctions@@QAEXHPAI@Z" PURGE="-1" COMMENT="" />
    <EXPORT ORDINAL="311" NAME="?glGenFramebuffers@QGLFunctions@@QAEXHPAI@Z" PURGE="-1" COMMENT="" />
    <EXPORT ORDINAL="312" NAME="?glGenRenderbuffers@QGLFunctions@@QAEXHPAI@Z" PURGE="-1" COMMENT="" />
    <EXPORT ORDINAL="313" NAME="?glGenerateMipmap@QGLFunctions@@QAEXI@Z" PURGE="-1" COMMENT="" />
    <EXPORT ORDINAL="314" NAME="?glGetActiveAttrib@QGLFunctions@@QAEXIIHPAH0PAIPAD@Z" PURGE="-1" COMMENT="" />
    <EXPORT ORDINAL="315" NAME="?glGetActiveUniform@QGLFunctions@@QAEXIIHPAH0PAIPAD@Z" PURGE="-1" COMMENT="" />
    <EXPORT ORDINAL="316" NAME="?glGetAttachedShaders@QGLFunctions@@QAEXIHPAHPAI@Z" PURGE="-1" COMMENT="" />
    <EXPORT ORDINAL="317" NAME="?glGetAttribLocation@QGLFunctions@@QAEHIPBD@Z" PURGE="-1" COMMENT="" />
    <EXPORT ORDINAL="318" NAME="?glGetBufferParameteriv@QGLFunctions@@QAEXIIPAH@Z" PURGE="-1" COMMENT="" />
    <EXPORT ORDINAL="319" NAME="?glGetFramebufferAttachmentParameteriv@QGLFunctions@@QAEXIIIPAH@Z" PURGE="-1" COMMENT="" />
    <EXPORT ORDINAL="320" NAME="?glGetProgramInfoLog@QGLFunctions@@QAEXIHPAHPAD@Z" PURGE="-1" COMMENT="" />
    <EXPORT ORDINAL="321" NAME="?glGetProgramiv@QGLFunctions@@QAEXIIPAH@Z" PURGE="-1" COMMENT="" />
    <EXPORT ORDINAL="322" NAME="?glGetRenderbufferParameteriv@QGLFunctions@@QAEXIIPAH@Z" PURGE="-1" COMMENT="" />
    <EXPORT ORDINAL="323" NAME="?glGetShaderInfoLog@QGLFunctions@@QAEXIHPAHPAD@Z" PURGE="-1" COMMENT="" />
    <EXPORT ORDINAL="324" NAME="?glGetShaderPrecisionFormat@QGLFunctions@@QAEXIIPAH0@Z" PURGE="-1" COMMENT="" />
    <EXPORT ORDINAL="325" NAME="?glGetShaderSource@QGLFunctions@@QAEXIHPAHPAD@Z" PURGE="-1" COMMENT="" />
    <EXPORT ORDINAL="326" NAME="?glGetShaderiv@QGLFunctions@@QAEXIIPAH@Z" PURGE="-1" COMMENT="" />
    <EXPORT ORDINAL="327" NAME="?glGetUniformLocation@QGLFunctions@@QAEHIPBD@Z" PURGE="-1" COMMENT="" />
    <EXPORT ORDINAL="328" NAME="?glGetUniformfv@QGLFunctions@@QAEXIHPAM@Z" PURGE="-1" COMMENT="" />
    <EXPORT ORDINAL="329" NAME="?glGetUniformiv@QGLFunctions@@QAEXIHPAH@Z" PURGE="-1" COMMENT="" />
    <EXPORT ORDINAL="330" NAME="?glGetVertexAttribPointerv@QGLFunctions@@QAEXIIPAPAX@Z" PURGE="-1" COMMENT="" />
    <EXPORT ORDINAL="331" NAME="?glGetVertexAttribfv@QGLFunctions@@QAEXIIPAM@Z" PURGE="-1" COMMENT="" />
    <EXPORT ORDINAL="332" NAME="?glGetVertexAttribiv@QGLFunctions@@QAEXIIPAH@Z" PURGE="-1" COMMENT="" />
    <EXPORT ORDINAL="333" NAME="?glInit@QGLWidget@@MAEXXZ" PURGE="0" COMMENT="" />
    <EXPORT ORDINAL="334" NAME="?glIsBuffer@QGLFunctions@@QAEEI@Z" PURGE="-1" COMMENT="" />
    <EXPORT ORDINAL="335" NAME="?glIsFramebuffer@QGLFunctions@@QAEEI@Z" PURGE="-1" COMMENT="" />
    <EXPORT ORDINAL="336" NAME="?glIsProgram@QGLFunctions@@QAEEI@Z" PURGE="-1" COMMENT="" />
    <EXPORT ORDINAL="337" NAME="?glIsRenderbuffer@QGLFunctions@@QAEEI@Z" PURGE="-1" COMMENT="" />
    <EXPORT ORDINAL="338" NAME="?glIsShader@QGLFunctions@@QAEEI@Z" PURGE="-1" COMMENT="" />
    <EXPORT ORDINAL="339" NAME="?glLinkProgram@QGLFunctions@@QAEXI@Z" PURGE="-1" COMMENT="" />
    <EXPORT ORDINAL="340" NAME="?glReleaseShaderCompiler@QGLFunctions@@QAEXXZ" PURGE="-1" COMMENT="" />
    <EXPORT ORDINAL="341" NAME="?glRenderbufferStorage@QGLFunctions@@QAEXIIHH@Z" PURGE="-1" COMMENT="" />
    <EXPORT ORDINAL="342" NAME="?glSampleCoverage@QGLFunctions@@QAEXME@Z" PURGE="8" COMMENT="" />
    <EXPORT ORDINAL="343" NAME="?glShaderBinary@QGLFunctions@@QAEXHPBIIPBXH@Z" PURGE="-1" COMMENT="" />
    <EXPORT ORDINAL="344" NAME="?glShaderSource@QGLFunctions@@QAEXIHPAPBDPBH@Z" PURGE="-1" COMMENT="" />
    <EXPORT ORDINAL="345" NAME="?glStencilFuncSeparate@QGLFunctions@@QAEXIIHI@Z" PURGE="-1" COMMENT="" />
    <EXPORT ORDINAL="346" NAME="?glStencilMaskSeparate@QGLFunctions@@QAEXII@Z" PURGE="-1" COMMENT="" />
    <EXPORT ORDINAL="347" NAME="?glStencilOpSeparate@QGLFunctions@@QAEXIIII@Z" PURGE="-1" COMMENT="" />
    <EXPORT ORDINAL="348" NAME="?glUniform1f@QGLFunctions@@QAEXHM@Z" PURGE="8" COMMENT="" />
    <EXPORT ORDINAL="349" NAME="?glUniform1fv@QGLFunctions@@QAEXHHPBM@Z" PURGE="-1" COMMENT="" />
    <EXPORT ORDINAL="350" NAME="?glUniform1i@QGLFunctions@@QAEXHH@Z" PURGE="-1" COMMENT="" />
    <EXPORT ORDINAL="351" NAME="?glUniform1iv@QGLFunctions@@QAEXHHPBH@Z" PURGE="-1" COMMENT="" />
    <EXPORT ORDINAL="352" NAME="?glUniform2f@QGLFunctions@@QAEXHMM@Z" PURGE="12" COMMENT="" />
    <EXPORT ORDINAL="353" NAME="?glUniform2fv@QGLFunctions@@QAEXHHPBM@Z" PURGE="-1" COMMENT="" />
    <EXPORT ORDINAL="354" NAME="?glUniform2i@QGLFunctions@@QAEXHHH@Z" PURGE="-1" COMMENT="" />
    <EXPORT ORDINAL="355" NAME="?glUniform2iv@QGLFunctions@@QAEXHHPBH@Z" PURGE="-1" COMMENT="" />
    <EXPORT ORDINAL="356" NAME="?glUniform3f@QGLFunctions@@QAEXHMMM@Z" PURGE="16" COMMENT="" />
    <EXPORT ORDINAL="357" NAME="?glUniform3fv@QGLFunctions@@QAEXHHPBM@Z" PURGE="-1" COMMENT="" />
    <EXPORT ORDINAL="358" NAME="?glUniform3i@QGLFunctions@@QAEXHHHH@Z" PURGE="-1" COMMENT="" />
    <EXPORT ORDINAL="359" NAME="?glUniform3iv@QGLFunctions@@QAEXHHPBH@Z" PURGE="-1" COMMENT="" />
    <EXPORT ORDINAL="360" NAME="?glUniform4f@QGLFunctions@@QAEXHMMMM@Z" PURGE="20" COMMENT="" />
    <EXPORT ORDINAL="361" NAME="?glUniform4fv@QGLFunctions@@QAEXHHPBM@Z" PURGE="-1" COMMENT="" />
    <EXPORT ORDINAL="362" NAME="?glUniform4i@QGLFunctions@@QAEXHHHHH@Z" PURGE="-1" COMMENT="" />
    <EXPORT ORDINAL="363" NAME="?glUniform4iv@QGLFunctions@@QAEXHHPBH@Z" PURGE="-1" COMMENT="" />
    <EXPORT ORDINAL="364" NAME="?glUniformMatrix2fv@QGLFunctions@@QAEXHHEPBM@Z" PURGE="-1" COMMENT="" />
    <EXPORT ORDINAL="365" NAME="?glUniformMatrix3fv@QGLFunctions@@QAEXHHEPBM@Z" PURGE="-1" COMMENT="" />
    <EXPORT ORDINAL="366" NAME="?glUniformMatrix4fv@QGLFunctions@@QAEXHHEPBM@Z" PURGE="-1" COMMENT="" />
    <EXPORT ORDINAL="367" NAME="?glUseProgram@QGLFunctions@@QAEXI@Z" PURGE="-1" COMMENT="" />
    <EXPORT ORDINAL="368" NAME="?glValidateProgram@QGLFunctions@@QAEXI@Z" PURGE="-1" COMMENT="" />
    <EXPORT ORDINAL="369" NAME="?glVertexAttrib1f@QGLFunctions@@QAEXIM@Z" PURGE="8" COMMENT="" />
    <EXPORT ORDINAL="370" NAME="?glVertexAttrib1fv@QGLFunctions@@QAEXIPBM@Z" PURGE="-1" COMMENT="" />
    <EXPORT ORDINAL="371" NAME="?glVertexAttrib2f@QGLFunctions@@QAEXIMM@Z" PURGE="12" COMMENT="" />
    <EXPORT ORDINAL="372" NAME="?glVertexAttrib2fv@QGLFunctions@@QAEXIPBM@Z" PURGE="-1" COMMENT="" />
    <EXPORT ORDINAL="373" NAME="?glVertexAttrib3f@QGLFunctions@@QAEXIMMM@Z" PURGE="16" COMMENT="" />
    <EXPORT ORDINAL="374" NAME="?glVertexAttrib3fv@QGLFunctions@@QAEXIPBM@Z" PURGE="-1" COMMENT="" />
    <EXPORT ORDINAL="375" NAME="?glVertexAttrib4f@QGLFunctions@@QAEXIMMMM@Z" PURGE="20" COMMENT="" />
    <EXPORT ORDINAL="376" NAME="?glVertexAttrib4fv@QGLFunctions@@QAEXIPBM@Z" PURGE="-1" COMMENT="" />
    <EXPORT ORDINAL="377" NAME="?glVertexAttribPointer@QGLFunctions@@QAEXIHIEHPBX@Z" PURGE="-1" COMMENT="" />
    <EXPORT ORDINAL="378" NAME="?glyphPadding@QGLTextureGlyphCache@@UBEHXZ" PURGE="0" COMMENT="" />
    <EXPORT ORDINAL="379" NAME="?grabFrameBuffer@QGLWidget@@QAE?AVQImage@@_N@Z" PURGE="8" COMMENT="" />
    <EXPORT ORDINAL="380" NAME="?greenBufferSize@QGLFormat@@QBEHXZ" PURGE="0" COMMENT="" />
    <EXPORT ORDINAL="381" NAME="?handle@QGLColormap@@IAEPAXXZ" PURGE="0" COMMENT="" />
    <EXPORT ORDINAL="382" NAME="?handle@QGLFramebufferObject@@QBEIXZ" PURGE="0" COMMENT="" />
    <EXPORT ORDINAL="383" NAME="?handle@QGLPixelBuffer@@QBEPAXXZ" PURGE="0" COMMENT="" />
    <EXPORT ORDINAL="384" NAME="?hasComplexGeometry@QGLEngineShaderManager@@QBE_NXZ" PURGE="0" COMMENT="" />
    <EXPORT ORDINAL="385" NAME="?hasOpenGL@QGLFormat@@SA_NXZ" PURGE="0" COMMENT="" />
    <EXPORT ORDINAL="386" NAME="?hasOpenGLFeature@QGLFunctions@@QBE_NW4OpenGLFeature@1@@Z" PURGE="4" COMMENT="" />
    <EXPORT ORDINAL="387" NAME="?hasOpenGLFramebufferBlit@QGLFramebufferObject@@SA_NXZ" PURGE="0" COMMENT="" />
    <EXPORT ORDINAL="388" NAME="?hasOpenGLFramebufferObjects@QGLFramebufferObject@@SA_NXZ" PURGE="0" COMMENT="" />
    <EXPORT ORDINAL="389" NAME="?hasOpenGLOverlays@QGLFormat@@SA_NXZ" PURGE="0" COMMENT="" />
    <EXPORT ORDINAL="390" NAME="?hasOpenGLPbuffers@QGLPixelBuffer@@SA_NXZ" PURGE="0" COMMENT="" />
    <EXPORT ORDINAL="391" NAME="?hasOpenGLShaderPrograms@QGLShaderProgram@@SA_NPBVQGLContext@@@Z" PURGE="0" COMMENT="" />
    <EXPORT ORDINAL="392" NAME="?hasOpenGLShaders@QGLShader@@SA_NV?$QFlags@W4ShaderTypeBit@QGLShader@@@@PBVQGLContext@@@Z" PURGE="0" COMMENT="" />
    <EXPORT ORDINAL="393" NAME="?hasOverlay@QGLFormat@@QBE_NXZ" PURGE="0" COMMENT="" />
    <EXPORT ORDINAL="394" NAME="?height@QGLTextureGlyphCache@@QBEHXZ" PURGE="0" COMMENT="" />
    <EXPORT ORDINAL="395" NAME="?init@QGLShaderProgram@@AAE_NXZ" PURGE="0" COMMENT="" />
    <EXPORT ORDINAL="396" NAME="?init@QGLWidgetPrivate@@QAEXPAVQGLContext@@PBVQGLWidget@@@Z" PURGE="8" COMMENT="" />
    <EXPORT ORDINAL="397" NAME="?initContext@QGLWidgetPrivate@@QAEXPAVQGLContext@@PBVQGLWidget@@@Z" PURGE="8" COMMENT="" />
    <EXPORT ORDINAL="398" NAME="?initializeGL@QGLWidget@@MAEXXZ" PURGE="0" COMMENT="" />
    <EXPORT ORDINAL="399" NAME="?initializeGLFunctions@QGLFunctions@@QAEXPBVQGLContext@@@Z" PURGE="4" COMMENT="" />
    <EXPORT ORDINAL="400" NAME="?initializeOverlayGL@QGLWidget@@MAEXXZ" PURGE="0" COMMENT="" />
    <EXPORT ORDINAL="401" NAME="?initialized@QGLContext@@IBE_NXZ" PURGE="0" COMMENT="" />
    <EXPORT ORDINAL="402" NAME="?instance@QGLSignalProxy@@SAPAV1@XZ" PURGE="0" COMMENT="" />
    <EXPORT ORDINAL="403" NAME="?internalTextureFormat@QGLFramebufferObjectFormat@@QBEIXZ" PURGE="0" COMMENT="" />
    <EXPORT ORDINAL="404" NAME="?invalidateState@QGL2PaintEngineEx@@QAEXXZ" PURGE="0" COMMENT="" />
    <EXPORT ORDINAL="405" NAME="?isBound@QGLFramebufferObject@@QBE_NXZ" PURGE="0" COMMENT="" />
    <EXPORT ORDINAL="406" NAME="?isCompiled@QGLShader@@QBE_NXZ" PURGE="0" COMMENT="" />
    <EXPORT ORDINAL="407" NAME="?isCreated@QGLBuffer@@QBE_NXZ" PURGE="0" COMMENT="" />
    <EXPORT ORDINAL="408" NAME="?isEmpty@QGLColormap@@QBE_NXZ" PURGE="0" COMMENT="" />
    <EXPORT ORDINAL="409" NAME="?isFlipped@QGLPaintDevice@@UBE_NXZ" PURGE="0" COMMENT="" />
    <EXPORT ORDINAL="410" NAME="?isInitialized@QGLFunctions@@CA_NPBUQGLFunctionsPrivate@@@Z" PURGE="0" COMMENT="" />
    <EXPORT ORDINAL="411" NAME="?isLinked@QGLShaderProgram@@QBE_NXZ" PURGE="0" COMMENT="" />
    <EXPORT ORDINAL="412" NAME="?isNativePaintingActive@QGL2PaintEngineEx@@QBE_NXZ" PURGE="0" COMMENT="" />
    <EXPORT ORDINAL="413" NAME="?isSharing@QGLContext@@QBE_NXZ" PURGE="0" COMMENT="" />
    <EXPORT ORDINAL="414" NAME="?isSharing@QGLWidget@@QBE_NXZ" PURGE="0" COMMENT="" />
    <EXPORT ORDINAL="415" NAME="?isValid@QGLContext@@QBE_NXZ" PURGE="0" COMMENT="" />
    <EXPORT ORDINAL="416" NAME="?isValid@QGLFramebufferObject@@QBE_NXZ" PURGE="0" COMMENT="" />
    <EXPORT ORDINAL="417" NAME="?isValid@QGLPixelBuffer@@QBE_NXZ" PURGE="0" COMMENT="" />
    <EXPORT ORDINAL="418" NAME="?isValid@QGLWidget@@QBE_NXZ" PURGE="0" COMMENT="" />
    <EXPORT ORDINAL="419" NAME="?link@QGLShaderProgram@@UAE_NXZ" PURGE="0" COMMENT="" />
    <EXPORT ORDINAL="420" NAME="?log@QGLShader@@QBE?AVQString@@XZ" PURGE="4" COMMENT="" />
    <EXPORT ORDINAL="421" NAME="?log@QGLShaderProgram@@QBE?AVQString@@XZ" PURGE="4" COMMENT="" />
    <EXPORT ORDINAL="422" NAME="?majorVersion@QGLFormat@@QBEHXZ" PURGE="0" COMMENT="" />
    <EXPORT ORDINAL="423" NAME="?makeCurrent@QGLContext@@UAEXXZ" PURGE="0" COMMENT="" />
    <EXPORT ORDINAL="424" NAME="?makeCurrent@QGLPixelBuffer@@QAE_NXZ" PURGE="0" COMMENT="" />
    <EXPORT ORDINAL="425" NAME="?makeCurrent@QGLWidget@@QAEXXZ" PURGE="0" COMMENT="" />
    <EXPORT ORDINAL="426" NAME="?makeCurrent@QGLWidgetPrivate@@QAE_NXZ" PURGE="0" COMMENT="" />
    <EXPORT ORDINAL="427" NAME="?makeOverlayCurrent@QGLWidget@@QAEXXZ" PURGE="0" COMMENT="" />
    <EXPORT ORDINAL="428" NAME="?map@QGLBuffer@@QAEPAXW4Access@1@@Z" PURGE="4" COMMENT="" />
    <EXPORT ORDINAL="429" NAME="?maxGeometryOutputVertices@QGLShaderProgram@@QBEHXZ" PURGE="0" COMMENT="" />
    <EXPORT ORDINAL="430" NAME="?maxTextureHeight@QGLTextureGlyphCache@@UBEHXZ" PURGE="0" COMMENT="" />
    <EXPORT ORDINAL="431" NAME="?maxTextureWidth@QGLTextureGlyphCache@@UBEHXZ" PURGE="0" COMMENT="" />
    <EXPORT ORDINAL="432" NAME="?metaObject@QGLEngineShaderManager@@UBEPBUQMetaObject@@XZ" PURGE="0" COMMENT="" />
    <EXPORT ORDINAL="433" NAME="?metaObject@QGLShader@@UBEPBUQMetaObject@@XZ" PURGE="0" COMMENT="" />
    <EXPORT ORDINAL="434" NAME="?metaObject@QGLShaderProgram@@UBEPBUQMetaObject@@XZ" PURGE="0" COMMENT="" />
    <EXPORT ORDINAL="435" NAME="?metaObject@QGLSignalProxy@@UBEPBUQMetaObject@@XZ" PURGE="0" COMMENT="" />
    <EXPORT ORDINAL="436" NAME="?metaObject@QGLWidget@@UBEPBUQMetaObject@@XZ" PURGE="0" COMMENT="" />
    <EXPORT ORDINAL="437" NAME="?metaObject@QGraphicsShaderEffect@@UBEPBUQMetaObject@@XZ" PURGE="0" COMMENT="" />
    <EXPORT ORDINAL="438" NAME="?metric@QGLFramebufferObject@@MBEHW4PaintDeviceMetric@QPaintDevice@@@Z" PURGE="4" COMMENT="" />
    <EXPORT ORDINAL="439" NAME="?metric@QGLPaintDevice@@MBEHW4PaintDeviceMetric@QPaintDevice@@@Z" PURGE="4" COMMENT="" />
    <EXPORT ORDINAL="440" NAME="?metric@QGLPixelBuffer@@MBEHW4PaintDeviceMetric@QPaintDevice@@@Z" PURGE="4" COMMENT="" />
    <EXPORT ORDINAL="441" NAME="?minorVersion@QGLFormat@@QBEHXZ" PURGE="0" COMMENT="" />
    <EXPORT ORDINAL="442" NAME="?mipmap@QGLFramebufferObjectFormat@@QBE_NXZ" PURGE="0" COMMENT="" />
    <EXPORT ORDINAL="443" NAME="?moveToThread@QGLContext@@QAEXPAVQThread@@@Z" PURGE="4" COMMENT="" />
    <EXPORT ORDINAL="444" NAME="?opacityChanged@QGL2PaintEngineEx@@UAEXXZ" PURGE="0" COMMENT="" />
    <EXPORT ORDINAL="445" NAME="?openGLFeatures@QGLFunctions@@QBE?AV?$QFlags@W4OpenGLFeature@QGLFunctions@@@@XZ" PURGE="4" COMMENT="" />
    <EXPORT ORDINAL="446" NAME="?openGLVersionFlags@QGLFormat@@SA?AV?$QFlags@W4OpenGLVersionFlag@QGLFormat@@@@XZ" PURGE="0" COMMENT="" />
    <EXPORT ORDINAL="447" NAME="?optimiseForBrushTransform@QGLEngineShaderManager@@QAEXW4TransformationType@QTransform@@@Z" PURGE="4" COMMENT="" />
    <EXPORT ORDINAL="448" NAME="?overlayContext@QGLWidget@@QBEPBVQGLContext@@XZ" PURGE="0" COMMENT="" />
    <EXPORT ORDINAL="449" NAME="?overlayTransparentColor@QGLContext@@QBE?AVQColor@@XZ" PURGE="4" COMMENT="" />
    <EXPORT ORDINAL="450" NAME="?paintEngine@QGLFramebufferObject@@UBEPAVQPaintEngine@@XZ" PURGE="0" COMMENT="" />
    <EXPORT ORDINAL="451" NAME="?paintEngine@QGLPixelBuffer@@UBEPAVQPaintEngine@@XZ" PURGE="0" COMMENT="" />
    <EXPORT ORDINAL="452" NAME="?paintEngine@QGLWidget@@UBEPAVQPaintEngine@@XZ" PURGE="0" COMMENT="" />
    <EXPORT ORDINAL="453" NAME="?paintEngine@QGLWidgetGLPaintDevice@@UBEPAVQPaintEngine@@XZ" PURGE="-1" COMMENT="" />
    <EXPORT ORDINAL="454" NAME="?paintEvent@QGLWidget@@MAEXPAVQPaintEvent@@@Z" PURGE="4" COMMENT="" />
    <EXPORT ORDINAL="455" NAME="?paintGL@QGLWidget@@MAEXXZ" PURGE="0" COMMENT="" />
    <EXPORT ORDINAL="456" NAME="?paintOverlayGL@QGLWidget@@MAEXXZ" PURGE="0" COMMENT="" />
    <EXPORT ORDINAL="457" NAME="?penChanged@QGL2PaintEngineEx@@UAEXXZ" PURGE="0" COMMENT="" />
    <EXPORT ORDINAL="458" NAME="?pixelShaderFragment@QGraphicsShaderEffect@@QBE?AVQByteArray@@XZ" PURGE="4" COMMENT="" />
    <EXPORT ORDINAL="459" NAME="?plane@QGLFormat@@QBEHXZ" PURGE="0" COMMENT="" />
    <EXPORT ORDINAL="460" NAME="?profile@QGLFormat@@QBE?AW4OpenGLContextProfile@1@XZ" PURGE="0" COMMENT="" />
    <EXPORT ORDINAL="461" NAME="?programId@QGLShaderProgram@@QBEIXZ" PURGE="0" COMMENT="" />
    <EXPORT ORDINAL="462" NAME="?qShaderSnippets@QGLEngineSharedShaders@@0PAPBDA" PURGE="-1" COMMENT="" />
    <EXPORT ORDINAL="463" NAME="?q_func@QGLWidgetPrivate@@AAEPAVQGLWidget@@XZ" PURGE="0" COMMENT="" />
    <EXPORT ORDINAL="464" NAME="?q_func@QGLWidgetPrivate@@ABEPBVQGLWidget@@XZ" PURGE="0" COMMENT="" />
    <EXPORT ORDINAL="465" NAME="?qglClearColor@QGLWidget@@QBEXABVQColor@@@Z" PURGE="4" COMMENT="" />
    <EXPORT ORDINAL="466" NAME="?qglColor@QGLWidget@@QBEXABVQColor@@@Z" PURGE="4" COMMENT="" />
    <EXPORT ORDINAL="467" NAME="?qt_metacall@QGLEngineShaderManager@@UAEHW4Call@QMetaObject@@HPAPAX@Z" PURGE="-1" COMMENT="" />
    <EXPORT ORDINAL="468" NAME="?qt_metacall@QGLShader@@UAEHW4Call@QMetaObject@@HPAPAX@Z" PURGE="-1" COMMENT="" />
    <EXPORT ORDINAL="469" NAME="?qt_metacall@QGLShaderProgram@@UAEHW4Call@QMetaObject@@HPAPAX@Z" PURGE="12" COMMENT="" />
    <EXPORT ORDINAL="470" NAME="?qt_metacall@QGLSignalProxy@@UAEHW4Call@QMetaObject@@HPAPAX@Z" PURGE="12" COMMENT="" />
    <EXPORT ORDINAL="471" NAME="?qt_metacall@QGLWidget@@UAEHW4Call@QMetaObject@@HPAPAX@Z" PURGE="12" COMMENT="" />
    <EXPORT ORDINAL="472" NAME="?qt_metacall@QGraphicsShaderEffect@@UAEHW4Call@QMetaObject@@HPAPAX@Z" PURGE="-1" COMMENT="" />
    <EXPORT ORDINAL="473" NAME="?qt_metacast@QGLEngineShaderManager@@UAEPAXPBD@Z" PURGE="4" COMMENT="" />
    <EXPORT ORDINAL="474" NAME="?qt_metacast@QGLShader@@UAEPAXPBD@Z" PURGE="4" COMMENT="" />
    <EXPORT ORDINAL="475" NAME="?qt_metacast@QGLShaderProgram@@UAEPAXPBD@Z" PURGE="4" COMMENT="" />
    <EXPORT ORDINAL="476" NAME="?qt_metacast@QGLSignalProxy@@UAEPAXPBD@Z" PURGE="4" COMMENT="" />
    <EXPORT ORDINAL="477" NAME="?qt_metacast@QGLWidget@@UAEPAXPBD@Z" PURGE="4" COMMENT="" />
    <EXPORT ORDINAL="478" NAME="?qt_metacast@QGraphicsShaderEffect@@UAEPAXPBD@Z" PURGE="4" COMMENT="" />
    <EXPORT ORDINAL="479" NAME="?qt_qgl_paint_engine@@YAPAVQPaintEngine@@XZ" PURGE="0" COMMENT="" />
    <EXPORT ORDINAL="480" NAME="?qt_static_metacall@QGLEngineShaderManager@@CAXPAVQObject@@W4Call@QMetaObject@@HPAPAX@Z" PURGE="0" COMMENT="" />
    <EXPORT ORDINAL="481" NAME="?qt_static_metacall@QGLShader@@CAXPAVQObject@@W4Call@QMetaObject@@HPAPAX@Z" PURGE="0" COMMENT="" />
    <EXPORT ORDINAL="482" NAME="?qt_static_metacall@QGLShaderProgram@@CAXPAVQObject@@W4Call@QMetaObject@@HPAPAX@Z" PURGE="0" COMMENT="" />
    <EXPORT ORDINAL="483" NAME="?qt_static_metacall@QGLSignalProxy@@CAXPAVQObject@@W4Call@QMetaObject@@HPAPAX@Z" PURGE="0" COMMENT="" />
    <EXPORT ORDINAL="484" NAME="?qt_static_metacall@QGLWidget@@CAXPAVQObject@@W4Call@QMetaObject@@HPAPAX@Z" PURGE="0" COMMENT="" />
    <EXPORT ORDINAL="485" NAME="?qt_static_metacall@QGraphicsShaderEffect@@CAXPAVQObject@@W4Call@QMetaObject@@HPAPAX@Z" PURGE="0" COMMENT="" />
    <EXPORT ORDINAL="486" NAME="?read@QGLBuffer@@QAE_NHPAXH@Z" PURGE="12" COMMENT="" />
    <EXPORT ORDINAL="487" NAME="?redBufferSize@QGLFormat@@QBEHXZ" PURGE="0" COMMENT="" />
    <EXPORT ORDINAL="488" NAME="?release@QGLBuffer@@QAEXXZ" PURGE="0" COMMENT="" />
    <EXPORT ORDINAL="489" NAME="?release@QGLBuffer@@SAXW4Type@1@@Z" PURGE="0" COMMENT="" />
    <EXPORT ORDINAL="490" NAME="?release@QGLFramebufferObject@@QAE_NXZ" PURGE="0" COMMENT="" />
    <EXPORT ORDINAL="491" NAME="?release@QGLShaderProgram@@QAEXXZ" PURGE="0" COMMENT="" />
    <EXPORT ORDINAL="492" NAME="?releaseFromDynamicTexture@QGLPixelBuffer@@QAEXXZ" PURGE="0" COMMENT="" />
    <EXPORT ORDINAL="493" NAME="?removeAllShaders@QGLShaderProgram@@QAEXXZ" PURGE="0" COMMENT="" />
    <EXPORT ORDINAL="494" NAME="?removeCustomStage@QGLEngineShaderManager@@QAEXXZ" PURGE="0" COMMENT="" />
    <EXPORT ORDINAL="495" NAME="?removeFromPainter@QGLCustomShaderStage@@QAEXPAVQPainter@@@Z" PURGE="4" COMMENT="" />
    <EXPORT ORDINAL="496" NAME="?removeShader@QGLShaderProgram@@QAEXPAVQGLShader@@@Z" PURGE="4" COMMENT="" />
    <EXPORT ORDINAL="497" NAME="?renderCxPm@QGLWidgetPrivate@@QAE_NPAVQPixmap@@@Z" PURGE="4" COMMENT="" />
    <EXPORT ORDINAL="498" NAME="?renderHintsChanged@QGL2PaintEngineEx@@UAEXXZ" PURGE="0" COMMENT="" />
    <EXPORT ORDINAL="499" NAME="?renderPixmap@QGLWidget@@QAE?AVQPixmap@@HH_N@Z" PURGE="16" COMMENT="" />
    <EXPORT ORDINAL="500" NAME="?renderText@QGLWidget@@QAEXHHABVQString@@ABVQFont@@@Z" PURGE="16" COMMENT="" />
    <EXPORT ORDINAL="501" NAME="?renderText@QGLWidget@@QAEXNNNABVQString@@ABVQFont@@@Z" PURGE="32" COMMENT="" />
    <EXPORT ORDINAL="502" NAME="?requestedFormat@QGLContext@@QBE?AVQGLFormat@@XZ" PURGE="4" COMMENT="" />
    <EXPORT ORDINAL="503" NAME="?requiresPretransformedGlyphPositions@QGL2PaintEngineEx@@UBE_NPAVQFontEngine@@ABVQTransform@@@Z" PURGE="8" COMMENT="" />
    <EXPORT ORDINAL="504" NAME="?reset@QGLContext@@QAEXXZ" PURGE="0" COMMENT="" />
    <EXPORT ORDINAL="505" NAME="?resizeEvent@QGLWidget@@MAEXPAVQResizeEvent@@@Z" PURGE="4" COMMENT="" />
    <EXPORT ORDINAL="506" NAME="?resizeGL@QGLWidget@@MAEXHH@Z" PURGE="8" COMMENT="" />
    <EXPORT ORDINAL="507" NAME="?resizeOverlayGL@QGLWidget@@MAEXHH@Z" PURGE="8" COMMENT="" />
    <EXPORT ORDINAL="508" NAME="?resizeTextureData@QGLTextureGlyphCache@@UAEXHH@Z" PURGE="8" COMMENT="" />
    <EXPORT ORDINAL="509" NAME="?rgba@QGLFormat@@QBE_NXZ" PURGE="0" COMMENT="" />
    <EXPORT ORDINAL="510" NAME="?sampleBuffers@QGLFormat@@QBE_NXZ" PURGE="0" COMMENT="" />
    <EXPORT ORDINAL="511" NAME="?samples@QGLFormat@@QBEHXZ" PURGE="0" COMMENT="" />
    <EXPORT ORDINAL="512" NAME="?samples@QGLFramebufferObjectFormat@@QBEHXZ" PURGE="0" COMMENT="" />
    <EXPORT ORDINAL="513" NAME="?serialNumber@QGLTextureGlyphCache@@QBEHXZ" PURGE="0" COMMENT="" />
    <EXPORT ORDINAL="514" NAME="?setAccum@QGLFormat@@QAEX_N@Z" PURGE="4" COMMENT="" />
    <EXPORT ORDINAL="515" NAME="?setAccumBufferSize@QGLFormat@@QAEXH@Z" PURGE="4" COMMENT="" />
    <EXPORT ORDINAL="516" NAME="?setAlpha@QGLFormat@@QAEX_N@Z" PURGE="4" COMMENT="" />
    <EXPORT ORDINAL="517" NAME="?setAlphaBufferSize@QGLFormat@@QAEXH@Z" PURGE="4" COMMENT="" />
    <EXPORT ORDINAL="518" NAME="?setAttachment@QGLFramebufferObjectFormat@@QAEXW4Attachment@QGLFramebufferObject@@@Z" PURGE="4" COMMENT="" />
    <EXPORT ORDINAL="519" NAME="?setAttributeArray@QGLShaderProgram@@QAEXHIPBXHH@Z" PURGE="20" COMMENT="" />
    <EXPORT ORDINAL="520" NAME="?setAttributeArray@QGLShaderProgram@@QAEXHPBMHH@Z" PURGE="16" COMMENT="" />
    <EXPORT ORDINAL="521" NAME="?setAttributeArray@QGLShaderProgram@@QAEXHPBVQVector2D@@H@Z" PURGE="12" COMMENT="" />
    <EXPORT ORDINAL="522" NAME="?setAttributeArray@QGLShaderProgram@@QAEXHPBVQVector3D@@H@Z" PURGE="12" COMMENT="" />
    <EXPORT ORDINAL="523" NAME="?setAttributeArray@QGLShaderProgram@@QAEXHPBVQVector4D@@H@Z" PURGE="12" COMMENT="" />
    <EXPORT ORDINAL="524" NAME="?setAttributeArray@QGLShaderProgram@@QAEXPBDIPBXHH@Z" PURGE="20" COMMENT="" />
    <EXPORT ORDINAL="525" NAME="?setAttributeArray@QGLShaderProgram@@QAEXPBDPBMHH@Z" PURGE="16" COMMENT="" />
    <EXPORT ORDINAL="526" NAME="?setAttributeArray@QGLShaderProgram@@QAEXPBDPBVQVector2D@@H@Z" PURGE="12" COMMENT="" />
    <EXPORT ORDINAL="527" NAME="?setAttributeArray@QGLShaderProgram@@QAEXPBDPBVQVector3D@@H@Z" PURGE="12" COMMENT="" />
    <EXPORT ORDINAL="528" NAME="?setAttributeArray@QGLShaderProgram@@QAEXPBDPBVQVector4D@@H@Z" PURGE="12" COMMENT="" />
    <EXPORT ORDINAL="529" NAME="?setAttributeBuffer@QGLShaderProgram@@QAEXHIHHH@Z" PURGE="20" COMMENT="" />
    <EXPORT ORDINAL="530" NAME="?setAttributeBuffer@QGLShaderProgram@@QAEXPBDIHHH@Z" PURGE="20" COMMENT="" />
    <EXPORT ORDINAL="531" NAME="?setAttributeValue@QGLShaderProgram@@QAEXHABVQColor@@@Z" PURGE="8" COMMENT="" />
    <EXPORT ORDINAL="532" NAME="?setAttributeValue@QGLShaderProgram@@QAEXHABVQVector2D@@@Z" PURGE="8" COMMENT="" />
    <EXPORT ORDINAL="533" NAME="?setAttributeValue@QGLShaderProgram@@QAEXHABVQVector3D@@@Z" PURGE="8" COMMENT="" />
    <EXPORT ORDINAL="534" NAME="?setAttributeValue@QGLShaderProgram@@QAEXHABVQVector4D@@@Z" PURGE="8" COMMENT="" />
    <EXPORT ORDINAL="535" NAME="?setAttributeValue@QGLShaderProgram@@QAEXHM@Z" PURGE="8" COMMENT="" />
    <EXPORT ORDINAL="536" NAME="?setAttributeValue@QGLShaderProgram@@QAEXHMM@Z" PURGE="12" COMMENT="" />
    <EXPORT ORDINAL="537" NAME="?setAttributeValue@QGLShaderProgram@@QAEXHMMM@Z" PURGE="16" COMMENT="" />
    <EXPORT ORDINAL="538" NAME="?setAttributeValue@QGLShaderProgram@@QAEXHMMMM@Z" PURGE="20" COMMENT="" />
    <EXPORT ORDINAL="539" NAME="?setAttributeValue@QGLShaderProgram@@QAEXHPBMHH@Z" PURGE="16" COMMENT="" />
    <EXPORT ORDINAL="540" NAME="?setAttributeValue@QGLShaderProgram@@QAEXPBDABVQColor@@@Z" PURGE="8" COMMENT="" />
    <EXPORT ORDINAL="541" NAME="?setAttributeValue@QGLShaderProgram@@QAEXPBDABVQVector2D@@@Z" PURGE="8" COMMENT="" />
    <EXPORT ORDINAL="542" NAME="?setAttributeValue@QGLShaderProgram@@QAEXPBDABVQVector3D@@@Z" PURGE="8" COMMENT="" />
    <EXPORT ORDINAL="543" NAME="?setAttributeValue@QGLShaderProgram@@QAEXPBDABVQVector4D@@@Z" PURGE="8" COMMENT="" />
    <EXPORT ORDINAL="544" NAME="?setAttributeValue@QGLShaderProgram@@QAEXPBDM@Z" PURGE="8" COMMENT="" />
    <EXPORT ORDINAL="545" NAME="?setAttributeValue@QGLShaderProgram@@QAEXPBDMM@Z" PURGE="12" COMMENT="" />
    <EXPORT ORDINAL="546" NAME="?setAttributeValue@QGLShaderProgram@@QAEXPBDMMM@Z" PURGE="16" COMMENT="" />
    <EXPORT ORDINAL="547" NAME="?setAttributeValue@QGLShaderProgram@@QAEXPBDMMMM@Z" PURGE="20" COMMENT="" />
    <EXPORT ORDINAL="548" NAME="?setAttributeValue@QGLShaderProgram@@QAEXPBDPBMHH@Z" PURGE="16" COMMENT="" />
    <EXPORT ORDINAL="549" NAME="?setAutoBufferSwap@QGLWidget@@IAEX_N@Z" PURGE="4" COMMENT="" />
    <EXPORT ORDINAL="550" NAME="?setBlueBufferSize@QGLFormat@@QAEXH@Z" PURGE="4" COMMENT="" />
    <EXPORT ORDINAL="551" NAME="?setColormap@QGLWidget@@QAEXABVQGLColormap@@@Z" PURGE="4" COMMENT="" />
    <EXPORT ORDINAL="552" NAME="?setCompositionMode@QGLEngineShaderManager@@QAEXW4CompositionMode@QPainter@@@Z" PURGE="4" COMMENT="" />
    <EXPORT ORDINAL="553" NAME="?setContext@QGLWidget@@QAEXPAVQGLContext@@PBV2@_N@Z" PURGE="12" COMMENT="" />
    <EXPORT ORDINAL="554" NAME="?setCustomStage@QGLEngineShaderManager@@QAEXPAVQGLCustomShaderStage@@@Z" PURGE="4" COMMENT="" />
    <EXPORT ORDINAL="555" NAME="?setDefaultFormat@QGLFormat@@SAXABV1@@Z" PURGE="0" COMMENT="" />
    <EXPORT ORDINAL="556" NAME="?setDefaultOverlayFormat@QGLFormat@@SAXABV1@@Z" PURGE="0" COMMENT="" />
    <EXPORT ORDINAL="557" NAME="?setDepth@QGLFormat@@QAEX_N@Z" PURGE="4" COMMENT="" />
    <EXPORT ORDINAL="558" NAME="?setDepthBufferSize@QGLFormat@@QAEXH@Z" PURGE="4" COMMENT="" />
    <EXPORT ORDINAL="559" NAME="?setDevice@QGLContext@@IAEXPAVQPaintDevice@@@Z" PURGE="4" COMMENT="" />
    <EXPORT ORDINAL="560" NAME="?setDirectRendering@QGLFormat@@QAEX_N@Z" PURGE="4" COMMENT="" />
    <EXPORT ORDINAL="561" NAME="?setDirty@QGLEngineShaderManager@@QAEXXZ" PURGE="0" COMMENT="" />
    <EXPORT ORDINAL="562" NAME="?setDoubleBuffer@QGLFormat@@QAEX_N@Z" PURGE="4" COMMENT="" />
    <EXPORT ORDINAL="563" NAME="?setEntries@QGLColormap@@QAEXHPBIH@Z" PURGE="12" COMMENT="" />
    <EXPORT ORDINAL="564" NAME="?setEntry@QGLColormap@@QAEXHABVQColor@@@Z" PURGE="8" COMMENT="" />
    <EXPORT ORDINAL="565" NAME="?setEntry@QGLColormap@@QAEXHI@Z" PURGE="8" COMMENT="" />
    <EXPORT ORDINAL="566" NAME="?setFilterMode@QGLTextureGlyphCache@@QAEXW4FilterMode@1@@Z" PURGE="4" COMMENT="" />
    <EXPORT ORDINAL="567" NAME="?setFormat@QGLContext@@QAEXABVQGLFormat@@@Z" PURGE="4" COMMENT="" />
    <EXPORT ORDINAL="568" NAME="?setFormat@QGLWidget@@QAEXABVQGLFormat@@@Z" PURGE="4" COMMENT="" />
    <EXPORT ORDINAL="569" NAME="?setGeometryInputType@QGLShaderProgram@@QAEXI@Z" PURGE="4" COMMENT="" />
    <EXPORT ORDINAL="570" NAME="?setGeometryOutputType@QGLShaderProgram@@QAEXI@Z" PURGE="4" COMMENT="" />
    <EXPORT ORDINAL="571" NAME="?setGeometryOutputVertexCount@QGLShaderProgram@@QAEXH@Z" PURGE="4" COMMENT="" />
    <EXPORT ORDINAL="572" NAME="?setGreenBufferSize@QGLFormat@@QAEXH@Z" PURGE="4" COMMENT="" />
    <EXPORT ORDINAL="573" NAME="?setHandle@QGLColormap@@IAEXPAX@Z" PURGE="4" COMMENT="" />
    <EXPORT ORDINAL="574" NAME="?setHasComplexGeometry@QGLEngineShaderManager@@QAEX_N@Z" PURGE="4" COMMENT="" />
    <EXPORT ORDINAL="575" NAME="?setInactive@QGLCustomShaderStage@@QAEXXZ" PURGE="0" COMMENT="" />
    <EXPORT ORDINAL="576" NAME="?setInitialized@QGLContext@@IAEX_N@Z" PURGE="4" COMMENT="" />
    <EXPORT ORDINAL="577" NAME="?setInternalTextureFormat@QGLFramebufferObjectFormat@@QAEXI@Z" PURGE="4" COMMENT="" />
    <EXPORT ORDINAL="578" NAME="?setMaskType@QGLEngineShaderManager@@QAEXW4MaskType@1@@Z" PURGE="4" COMMENT="" />
    <EXPORT ORDINAL="579" NAME="?setMipmap@QGLFramebufferObjectFormat@@QAEX_N@Z" PURGE="4" COMMENT="" />
    <EXPORT ORDINAL="580" NAME="?setOnPainter@QGLCustomShaderStage@@QAE_NPAVQPainter@@@Z" PURGE="4" COMMENT="" />
    <EXPORT ORDINAL="581" NAME="?setOpacityMode@QGLEngineShaderManager@@QAEXW4OpacityMode@1@@Z" PURGE="4" COMMENT="" />
    <EXPORT ORDINAL="582" NAME="?setOption@QGLFormat@@QAEXV?$QFlags@W4FormatOption@QGL@@@@@Z" PURGE="4" COMMENT="" />
    <EXPORT ORDINAL="583" NAME="?setOverlay@QGLFormat@@QAEX_N@Z" PURGE="4" COMMENT="" />
    <EXPORT ORDINAL="584" NAME="?setPaintEnginePrivate@QGLTextureGlyphCache@@QAEXPAVQGL2PaintEngineExPrivate@@@Z" PURGE="4" COMMENT="" />
    <EXPORT ORDINAL="585" NAME="?setPixelShaderFragment@QGraphicsShaderEffect@@QAEXABVQByteArray@@@Z" PURGE="4" COMMENT="" />
    <EXPORT ORDINAL="586" NAME="?setPlane@QGLFormat@@QAEXH@Z" PURGE="4" COMMENT="" />
    <EXPORT ORDINAL="587" NAME="?setProfile@QGLFormat@@QAEXW4OpenGLContextProfile@1@@Z" PURGE="4" COMMENT="" />
    <EXPORT ORDINAL="588" NAME="?setRedBufferSize@QGLFormat@@QAEXH@Z" PURGE="4" COMMENT="" />
    <EXPORT ORDINAL="589" NAME="?setRgba@QGLFormat@@QAEX_N@Z" PURGE="4" COMMENT="" />
    <EXPORT ORDINAL="590" NAME="?setSampleBuffers@QGLFormat@@QAEX_N@Z" PURGE="4" COMMENT="" />
    <EXPORT ORDINAL="591" NAME="?setSamples@QGLFormat@@QAEXH@Z" PURGE="4" COMMENT="" />
    <EXPORT ORDINAL="592" NAME="?setSamples@QGLFramebufferObjectFormat@@QAEXH@Z" PURGE="4" COMMENT="" />
    <EXPORT ORDINAL="593" NAME="?setSource@QGLCustomShaderStage@@IAEXABVQByteArray@@@Z" PURGE="-1" COMMENT="" />
    <EXPORT ORDINAL="594" NAME="?setSrcPixelType@QGLEngineShaderManager@@QAEXW4BrushStyle@Qt@@@Z" PURGE="4" COMMENT="" />
    <EXPORT ORDINAL="595" NAME="?setSrcPixelType@QGLEngineShaderManager@@QAEXW4PixelSrcType@1@@Z" PURGE="4" COMMENT="" />
    <EXPORT ORDINAL="596" NAME="?setState@QGL2PaintEngineEx@@UAEXPAVQPainterState@@@Z" PURGE="4" COMMENT="" />
    <EXPORT ORDINAL="597" NAME="?setStencil@QGLFormat@@QAEX_N@Z" PURGE="4" COMMENT="" />
    <EXPORT ORDINAL="598" NAME="?setStencilBufferSize@QGLFormat@@QAEXH@Z" PURGE="4" COMMENT="" />
    <EXPORT ORDINAL="599" NAME="?setStereo@QGLFormat@@QAEX_N@Z" PURGE="4" COMMENT="" />
    <EXPORT ORDINAL="600" NAME="?setSwapInterval@QGLFormat@@QAEXH@Z" PURGE="4" COMMENT="" />
    <EXPORT ORDINAL="601" NAME="?setTextureCacheLimit@QGLContext@@SAXH@Z" PURGE="0" COMMENT="" />
    <EXPORT ORDINAL="602" NAME="?setTextureTarget@QGLFramebufferObjectFormat@@QAEXI@Z" PURGE="4" COMMENT="" />
    <EXPORT ORDINAL="603" NAME="?setTranslateZ@QGL2PaintEngineEx@@QAEXM@Z" PURGE="4" COMMENT="" />
    <EXPORT ORDINAL="604" NAME="?setUniformValue@QGLShaderProgram@@QAEXHABV?$QGenericMatrix@$01$01M@@@Z" PURGE="8" COMMENT="" />
    <EXPORT ORDINAL="605" NAME="?setUniformValue@QGLShaderProgram@@QAEXHABV?$QGenericMatrix@$01$02M@@@Z" PURGE="8" COMMENT="" />
    <EXPORT ORDINAL="606" NAME="?setUniformValue@QGLShaderProgram@@QAEXHABV?$QGenericMatrix@$01$03M@@@Z" PURGE="8" COMMENT="" />
    <EXPORT ORDINAL="607" NAME="?setUniformValue@QGLShaderProgram@@QAEXHABV?$QGenericMatrix@$02$01M@@@Z" PURGE="8" COMMENT="" />
    <EXPORT ORDINAL="608" NAME="?setUniformValue@QGLShaderProgram@@QAEXHABV?$QGenericMatrix@$02$02M@@@Z" PURGE="8" COMMENT="" />
    <EXPORT ORDINAL="609" NAME="?setUniformValue@QGLShaderProgram@@QAEXHABV?$QGenericMatrix@$02$03M@@@Z" PURGE="8" COMMENT="" />
    <EXPORT ORDINAL="610" NAME="?setUniformValue@QGLShaderProgram@@QAEXHABV?$QGenericMatrix@$03$01M@@@Z" PURGE="8" COMMENT="" />
    <EXPORT ORDINAL="611" NAME="?setUniformValue@QGLShaderProgram@@QAEXHABV?$QGenericMatrix@$03$02M@@@Z" PURGE="8" COMMENT="" />
    <EXPORT ORDINAL="612" NAME="?setUniformValue@QGLShaderProgram@@QAEXHABVQColor@@@Z" PURGE="8" COMMENT="" />
    <EXPORT ORDINAL="613" NAME="?setUniformValue@QGLShaderProgram@@QAEXHABVQMatrix4x4@@@Z" PURGE="8" COMMENT="" />
    <EXPORT ORDINAL="614" NAME="?setUniformValue@QGLShaderProgram@@QAEXHABVQPoint@@@Z" PURGE="8" COMMENT="" />
    <EXPORT ORDINAL="615" NAME="?setUniformValue@QGLShaderProgram@@QAEXHABVQPointF@@@Z" PURGE="8" COMMENT="" />
    <EXPORT ORDINAL="616" NAME="?setUniformValue@QGLShaderProgram@@QAEXHABVQSize@@@Z" PURGE="8" COMMENT="" />
    <EXPORT ORDINAL="617" NAME="?setUniformValue@QGLShaderProgram@@QAEXHABVQSizeF@@@Z" PURGE="8" COMMENT="" />
    <EXPORT ORDINAL="618" NAME="?setUniformValue@QGLShaderProgram@@QAEXHABVQTransform@@@Z" PURGE="8" COMMENT="" />
    <EXPORT ORDINAL="619" NAME="?setUniformValue@QGLShaderProgram@@QAEXHABVQVector2D@@@Z" PURGE="8" COMMENT="" />
    <EXPORT ORDINAL="620" NAME="?setUniformValue@QGLShaderProgram@@QAEXHABVQVector3D@@@Z" PURGE="8" COMMENT="" />
    <EXPORT ORDINAL="621" NAME="?setUniformValue@QGLShaderProgram@@QAEXHABVQVector4D@@@Z" PURGE="8" COMMENT="" />
    <EXPORT ORDINAL="622" NAME="?setUniformValue@QGLShaderProgram@@QAEXHH@Z" PURGE="8" COMMENT="" />
    <EXPORT ORDINAL="623" NAME="?setUniformValue@QGLShaderProgram@@QAEXHI@Z" PURGE="8" COMMENT="" />
    <EXPORT ORDINAL="624" NAME="?setUniformValue@QGLShaderProgram@@QAEXHM@Z" PURGE="8" COMMENT="" />
    <EXPORT ORDINAL="625" NAME="?setUniformValue@QGLShaderProgram@@QAEXHMM@Z" PURGE="12" COMMENT="" />
    <EXPORT ORDINAL="626" NAME="?setUniformValue@QGLShaderProgram@@QAEXHMMM@Z" PURGE="16" COMMENT="" />
    <EXPORT ORDINAL="627" NAME="?setUniformValue@QGLShaderProgram@@QAEXHMMMM@Z" PURGE="20" COMMENT="" />
    <EXPORT ORDINAL="628" NAME="?setUniformValue@QGLShaderProgram@@QAEXHQAY01$$CBM@Z" PURGE="8" COMMENT="" />
    <EXPORT ORDINAL="629" NAME="?setUniformValue@QGLShaderProgram@@QAEXHQAY02$$CBM@Z" PURGE="8" COMMENT="" />
    <EXPORT ORDINAL="630" NAME="?setUniformValue@QGLShaderProgram@@QAEXHQAY03$$CBM@Z" PURGE="8" COMMENT="" />
    <EXPORT ORDINAL="631" NAME="?setUniformValue@QGLShaderProgram@@QAEXPBDABV?$QGenericMatrix@$01$01M@@@Z" PURGE="8" COMMENT="" />
    <EXPORT ORDINAL="632" NAME="?setUniformValue@QGLShaderProgram@@QAEXPBDABV?$QGenericMatrix@$01$02M@@@Z" PURGE="8" COMMENT="" />
    <EXPORT ORDINAL="633" NAME="?setUniformValue@QGLShaderProgram@@QAEXPBDABV?$QGenericMatrix@$01$03M@@@Z" PURGE="8" COMMENT="" />
    <EXPORT ORDINAL="634" NAME="?setUniformValue@QGLShaderProgram@@QAEXPBDABV?$QGenericMatrix@$02$01M@@@Z" PURGE="8" COMMENT="" />
    <EXPORT ORDINAL="635" NAME="?setUniformValue@QGLShaderProgram@@QAEXPBDABV?$QGenericMatrix@$02$02M@@@Z" PURGE="8" COMMENT="" />
    <EXPORT ORDINAL="636" NAME="?setUniformValue@QGLShaderProgram@@QAEXPBDABV?$QGenericMatrix@$02$03M@@@Z" PURGE="8" COMMENT="" />
    <EXPORT ORDINAL="637" NAME="?setUniformValue@QGLShaderProgram@@QAEXPBDABV?$QGenericMatrix@$03$01M@@@Z" PURGE="8" COMMENT="" />
    <EXPORT ORDINAL="638" NAME="?setUniformValue@QGLShaderProgram@@QAEXPBDABV?$QGenericMatrix@$03$02M@@@Z" PURGE="8" COMMENT="" />
    <EXPORT ORDINAL="639" NAME="?setUniformValue@QGLShaderProgram@@QAEXPBDABVQColor@@@Z" PURGE="8" COMMENT="" />
    <EXPORT ORDINAL="640" NAME="?setUniformValue@QGLShaderProgram@@QAEXPBDABVQMatrix4x4@@@Z" PURGE="8" COMMENT="" />
    <EXPORT ORDINAL="641" NAME="?setUniformValue@QGLShaderProgram@@QAEXPBDABVQPoint@@@Z" PURGE="8" COMMENT="" />
    <EXPORT ORDINAL="642" NAME="?setUniformValue@QGLShaderProgram@@QAEXPBDABVQPointF@@@Z" PURGE="8" COMMENT="" />
    <EXPORT ORDINAL="643" NAME="?setUniformValue@QGLShaderProgram@@QAEXPBDABVQSize@@@Z" PURGE="8" COMMENT="" />
    <EXPORT ORDINAL="644" NAME="?setUniformValue@QGLShaderProgram@@QAEXPBDABVQSizeF@@@Z" PURGE="8" COMMENT="" />
    <EXPORT ORDINAL="645" NAME="?setUniformValue@QGLShaderProgram@@QAEXPBDABVQTransform@@@Z" PURGE="8" COMMENT="" />
    <EXPORT ORDINAL="646" NAME="?setUniformValue@QGLShaderProgram@@QAEXPBDABVQVector2D@@@Z" PURGE="8" COMMENT="" />
    <EXPORT ORDINAL="647" NAME="?setUniformValue@QGLShaderProgram@@QAEXPBDABVQVector3D@@@Z" PURGE="8" COMMENT="" />
    <EXPORT ORDINAL="648" NAME="?setUniformValue@QGLShaderProgram@@QAEXPBDABVQVector4D@@@Z" PURGE="8" COMMENT="" />
    <EXPORT ORDINAL="649" NAME="?setUniformValue@QGLShaderProgram@@QAEXPBDH@Z" PURGE="8" COMMENT="" />
    <EXPORT ORDINAL="650" NAME="?setUniformValue@QGLShaderProgram@@QAEXPBDI@Z" PURGE="8" COMMENT="" />
    <EXPORT ORDINAL="651" NAME="?setUniformValue@QGLShaderProgram@@QAEXPBDM@Z" PURGE="8" COMMENT="" />
    <EXPORT ORDINAL="652" NAME="?setUniformValue@QGLShaderProgram@@QAEXPBDMM@Z" PURGE="12" COMMENT="" />
    <EXPORT ORDINAL="653" NAME="?setUniformValue@QGLShaderProgram@@QAEXPBDMMM@Z" PURGE="16" COMMENT="" />
    <EXPORT ORDINAL="654" NAME="?setUniformValue@QGLShaderProgram@@QAEXPBDMMMM@Z" PURGE="20" COMMENT="" />
    <EXPORT ORDINAL="655" NAME="?setUniformValue@QGLShaderProgram@@QAEXPBDQAY01$$CBM@Z" PURGE="8" COMMENT="" />
    <EXPORT ORDINAL="656" NAME="?setUniformValue@QGLShaderProgram@@QAEXPBDQAY02$$CBM@Z" PURGE="8" COMMENT="" />
    <EXPORT ORDINAL="657" NAME="?setUniformValue@QGLShaderProgram@@QAEXPBDQAY03$$CBM@Z" PURGE="8" COMMENT="" />
    <EXPORT ORDINAL="658" NAME="?setUniformValueArray@QGLShaderProgram@@QAEXHPBHH@Z" PURGE="12" COMMENT="" />
    <EXPORT ORDINAL="659" NAME="?setUniformValueArray@QGLShaderProgram@@QAEXHPBIH@Z" PURGE="12" COMMENT="" />
    <EXPORT ORDINAL="660" NAME="?setUniformValueArray@QGLShaderProgram@@QAEXHPBMHH@Z" PURGE="16" COMMENT="" />
    <EXPORT ORDINAL="661" NAME="?setUniformValueArray@QGLShaderProgram@@QAEXHPBV?$QGenericMatrix@$01$01M@@H@Z" PURGE="12" COMMENT="" />
    <EXPORT ORDINAL="662" NAME="?setUniformValueArray@QGLShaderProgram@@QAEXHPBV?$QGenericMatrix@$01$02M@@H@Z" PURGE="12" COMMENT="" />
    <EXPORT ORDINAL="663" NAME="?setUniformValueArray@QGLShaderProgram@@QAEXHPBV?$QGenericMatrix@$01$03M@@H@Z" PURGE="12" COMMENT="" />
    <EXPORT ORDINAL="664" NAME="?setUniformValueArray@QGLShaderProgram@@QAEXHPBV?$QGenericMatrix@$02$01M@@H@Z" PURGE="12" COMMENT="" />
    <EXPORT ORDINAL="665" NAME="?setUniformValueArray@QGLShaderProgram@@QAEXHPBV?$QGenericMatrix@$02$02M@@H@Z" PURGE="12" COMMENT="" />
    <EXPORT ORDINAL="666" NAME="?setUniformValueArray@QGLShaderProgram@@QAEXHPBV?$QGenericMatrix@$02$03M@@H@Z" PURGE="12" COMMENT="" />
    <EXPORT ORDINAL="667" NAME="?setUniformValueArray@QGLShaderProgram@@QAEXHPBV?$QGenericMatrix@$03$01M@@H@Z" PURGE="12" COMMENT="" />
    <EXPORT ORDINAL="668" NAME="?setUniformValueArray@QGLShaderProgram@@QAEXHPBV?$QGenericMatrix@$03$02M@@H@Z" PURGE="12" COMMENT="" />
    <EXPORT ORDINAL="669" NAME="?setUniformValueArray@QGLShaderProgram@@QAEXHPBVQMatrix4x4@@H@Z" PURGE="12" COMMENT="" />
    <EXPORT ORDINAL="670" NAME="?setUniformValueArray@QGLShaderProgram@@QAEXHPBVQVector2D@@H@Z" PURGE="12" COMMENT="" />
    <EXPORT ORDINAL="671" NAME="?setUniformValueArray@QGLShaderProgram@@QAEXHPBVQVector3D@@H@Z" PURGE="12" COMMENT="" />
    <EXPORT ORDINAL="672" NAME="?setUniformValueArray@QGLShaderProgram@@QAEXHPBVQVector4D@@H@Z" PURGE="12" COMMENT="" />
    <EXPORT ORDINAL="673" NAME="?setUniformValueArray@QGLShaderProgram@@QAEXPBDPBHH@Z" PURGE="12" COMMENT="" />
    <EXPORT ORDINAL="674" NAME="?setUniformValueArray@QGLShaderProgram@@QAEXPBDPBIH@Z" PURGE="12" COMMENT="" />
    <EXPORT ORDINAL="675" NAME="?setUniformValueArray@QGLShaderProgram@@QAEXPBDPBMHH@Z" PURGE="16" COMMENT="" />
    <EXPORT ORDINAL="676" NAME="?setUniformValueArray@QGLShaderProgram@@QAEXPBDPBV?$QGenericMatrix@$01$01M@@H@Z" PURGE="12" COMMENT="" />
    <EXPORT ORDINAL="677" NAME="?setUniformValueArray@QGLShaderProgram@@QAEXPBDPBV?$QGenericMatrix@$01$02M@@H@Z" PURGE="12" COMMENT="" />
    <EXPORT ORDINAL="678" NAME="?setUniformValueArray@QGLShaderProgram@@QAEXPBDPBV?$QGenericMatrix@$01$03M@@H@Z" PURGE="12" COMMENT="" />
    <EXPORT ORDINAL="679" NAME="?setUniformValueArray@QGLShaderProgram@@QAEXPBDPBV?$QGenericMatrix@$02$01M@@H@Z" PURGE="12" COMMENT="" />
    <EXPORT ORDINAL="680" NAME="?setUniformValueArray@QGLShaderProgram@@QAEXPBDPBV?$QGenericMatrix@$02$02M@@H@Z" PURGE="12" COMMENT="" />
    <EXPORT ORDINAL="681" NAME="?setUniformValueArray@QGLShaderProgram@@QAEXPBDPBV?$QGenericMatrix@$02$03M@@H@Z" PURGE="12" COMMENT="" />
    <EXPORT ORDINAL="682" NAME="?setUniformValueArray@QGLShaderProgram@@QAEXPBDPBV?$QGenericMatrix@$03$01M@@H@Z" PURGE="12" COMMENT="" />
    <EXPORT ORDINAL="683" NAME="?setUniformValueArray@QGLShaderProgram@@QAEXPBDPBV?$QGenericMatrix@$03$02M@@H@Z" PURGE="12" COMMENT="" />
    <EXPORT ORDINAL="684" NAME="?setUniformValueArray@QGLShaderProgram@@QAEXPBDPBVQMatrix4x4@@H@Z" PURGE="12" COMMENT="" />
    <EXPORT ORDINAL="685" NAME="?setUniformValueArray@QGLShaderProgram@@QAEXPBDPBVQVector2D@@H@Z" PURGE="12" COMMENT="" />
    <EXPORT ORDINAL="686" NAME="?setUniformValueArray@QGLShaderProgram@@QAEXPBDPBVQVector3D@@H@Z" PURGE="12" COMMENT="" />
    <EXPORT ORDINAL="687" NAME="?setUniformValueArray@QGLShaderProgram@@QAEXPBDPBVQVector4D@@H@Z" PURGE="12" COMMENT="" />
    <EXPORT ORDINAL="688" NAME="?setUniforms@QGLCustomShaderStage@@UAEXPAVQGLShaderProgram@@@Z" PURGE="4" COMMENT="" />
    <EXPORT ORDINAL="689" NAME="?setUniforms@QGraphicsShaderEffect@@MAEXPAVQGLShaderProgram@@@Z" PURGE="4" COMMENT="" />
    <EXPORT ORDINAL="690" NAME="?setUniformsDirty@QGLCustomShaderStage@@QAEXXZ" PURGE="0" COMMENT="" />
    <EXPORT ORDINAL="691" NAME="?setUniformsDirty@QGraphicsShaderEffect@@IAEXXZ" PURGE="0" COMMENT="" />
    <EXPORT ORDINAL="692" NAME="?setUsagePattern@QGLBuffer@@QAEXW4UsagePattern@1@@Z" PURGE="4" COMMENT="" />
    <EXPORT ORDINAL="693" NAME="?setValid@QGLContext@@IAEX_N@Z" PURGE="4" COMMENT="" />
    <EXPORT ORDINAL="694" NAME="?setVersion@QGLFormat@@QAEXHH@Z" PURGE="8" COMMENT="" />
    <EXPORT ORDINAL="695" NAME="?setWidget@QGLWidgetGLPaintDevice@@QAEXPAVQGLWidget@@@Z" PURGE="4" COMMENT="" />
    <EXPORT ORDINAL="696" NAME="?setWindowCreated@QGLContext@@IAEX_N@Z" PURGE="4" COMMENT="" />
    <EXPORT ORDINAL="697" NAME="?shaderDestroyed@QGLShaderProgram@@AAEXXZ" PURGE="0" COMMENT="" />
    <EXPORT ORDINAL="698" NAME="?shaderId@QGLShader@@QBEIXZ" PURGE="0" COMMENT="" />
    <EXPORT ORDINAL="699" NAME="?shaderType@QGLShader@@QBE?AV?$QFlags@W4ShaderTypeBit@QGLShader@@@@XZ" PURGE="4" COMMENT="" />
    <EXPORT ORDINAL="700" NAME="?shaders@QGLShaderProgram@@QBE?AV?$QList@PAVQGLShader@@@@XZ" PURGE="4" COMMENT="" />
    <EXPORT ORDINAL="701" NAME="?shadersForContext@QGLEngineSharedShaders@@SAPAV1@PBVQGLContext@@@Z" PURGE="0" COMMENT="" />
    <EXPORT ORDINAL="702" NAME="?shared_null@QGLColormap@@0UQGLColormapData@1@A" PURGE="-1" COMMENT="" />
    <EXPORT ORDINAL="703" NAME="?shouldDrawCachedGlyphs@QGL2PaintEngineEx@@UBE_NPAVQFontEngine@@ABVQTransform@@@Z" PURGE="8" COMMENT="" />
    <EXPORT ORDINAL="704" NAME="?simpleProgram@QGLEngineShaderManager@@QAEPAVQGLShaderProgram@@XZ" PURGE="0" COMMENT="" />
    <EXPORT ORDINAL="705" NAME="?simpleProgram@QGLEngineSharedShaders@@QAEPAVQGLShaderProgram@@XZ" PURGE="0" COMMENT="" />
    <EXPORT ORDINAL="706" NAME="?size@QGLBuffer@@QBEHXZ" PURGE="0" COMMENT="" />
    <EXPORT ORDINAL="707" NAME="?size@QGLColormap@@QBEHXZ" PURGE="0" COMMENT="" />
    <EXPORT ORDINAL="708" NAME="?size@QGLFramebufferObject@@QBE?AVQSize@@XZ" PURGE="4" COMMENT="" />
    <EXPORT ORDINAL="709" NAME="?size@QGLPixelBuffer@@QBE?AVQSize@@XZ" PURGE="4" COMMENT="" />
    <EXPORT ORDINAL="710" NAME="?size@QGLWidgetGLPaintDevice@@UBE?AVQSize@@XZ" PURGE="4" COMMENT="" />
    <EXPORT ORDINAL="711" NAME="?source@QGLCustomShaderStage@@QBE?AVQByteArray@@XZ" PURGE="4" COMMENT="" />
    <EXPORT ORDINAL="712" NAME="?sourceCode@QGLShader@@QBE?AVQByteArray@@XZ" PURGE="4" COMMENT="" />
    <EXPORT ORDINAL="713" NAME="?state@QGL2PaintEngineEx@@QAEPAVQGL2PaintEngineState@@XZ" PURGE="0" COMMENT="" />
    <EXPORT ORDINAL="714" NAME="?state@QGL2PaintEngineEx@@QBEPBVQGL2PaintEngineState@@XZ" PURGE="0" COMMENT="" />
    <EXPORT ORDINAL="715" NAME="?staticMetaObject@QGLEngineShaderManager@@2UQMetaObject@@B" PURGE="-1" COMMENT="" />
    <EXPORT ORDINAL="716" NAME="?staticMetaObject@QGLEngineSharedShaders@@2UQMetaObject@@B" PURGE="-1" COMMENT="" />
    <EXPORT ORDINAL="717" NAME="?staticMetaObject@QGLShader@@2UQMetaObject@@B" PURGE="-1" COMMENT="" />
    <EXPORT ORDINAL="718" NAME="?staticMetaObject@QGLShaderProgram@@2UQMetaObject@@B" PURGE="-1" COMMENT="" />
    <EXPORT ORDINAL="719" NAME="?staticMetaObject@QGLSignalProxy@@2UQMetaObject@@B" PURGE="-1" COMMENT="" />
    <EXPORT ORDINAL="720" NAME="?staticMetaObject@QGLWidget@@2UQMetaObject@@B" PURGE="-1" COMMENT="" />
    <EXPORT ORDINAL="721" NAME="?staticMetaObject@QGraphicsShaderEffect@@2UQMetaObject@@B" PURGE="-1" COMMENT="" />
    <EXPORT ORDINAL="722" NAME="?stencil@QGLFormat@@QBE_NXZ" PURGE="0" COMMENT="" />
    <EXPORT ORDINAL="723" NAME="?stencilBufferSize@QGLFormat@@QBEHXZ" PURGE="0" COMMENT="" />
    <EXPORT ORDINAL="724" NAME="?stereo@QGLFormat@@QBE_NXZ" PURGE="0" COMMENT="" />
    <EXPORT ORDINAL="725" NAME="?stroke@QGL2PaintEngineEx@@UAEXABVQVectorPath@@ABVQPen@@@Z" PURGE="8" COMMENT="" />
    <EXPORT ORDINAL="726" NAME="?swapBuffers@QGLContext@@UBEXXZ" PURGE="0" COMMENT="" />
    <EXPORT ORDINAL="727" NAME="?swapBuffers@QGLWidget@@QAEXXZ" PURGE="-1" COMMENT="" />
    <EXPORT ORDINAL="728" NAME="?swapInterval@QGLFormat@@QBEHXZ" PURGE="0" COMMENT="" />
    <EXPORT ORDINAL="729" NAME="?testOption@QGLFormat@@QBE_NV?$QFlags@W4FormatOption@QGL@@@@@Z" PURGE="4" COMMENT="" />
    <EXPORT ORDINAL="730" NAME="?texture@QGLFramebufferObject@@QBEIXZ" PURGE="0" COMMENT="" />
    <EXPORT ORDINAL="731" NAME="?texture@QGLTextureGlyphCache@@QBEIXZ" PURGE="0" COMMENT="" />
    <EXPORT ORDINAL="732" NAME="?textureCacheLimit@QGLContext@@SAHXZ" PURGE="0" COMMENT="" />
    <EXPORT ORDINAL="733" NAME="?textureTarget@QGLFramebufferObjectFormat@@QBEIXZ" PURGE="0" COMMENT="" />
    <EXPORT ORDINAL="734" NAME="?toImage@QGLFramebufferObject@@QBE?AVQImage@@XZ" PURGE="4" COMMENT="" />
    <EXPORT ORDINAL="735" NAME="?toImage@QGLPixelBuffer@@QBE?AVQImage@@XZ" PURGE="4" COMMENT="" />
    <EXPORT ORDINAL="736" NAME="?toSurfaceFormat@QGLFormat@@SA?AVQSurfaceFormat@@ABV1@@Z" PURGE="0" COMMENT="" />
    <EXPORT ORDINAL="737" NAME="?tr@QGLEngineShaderManager@@SA?AVQString@@PBD0H@Z" PURGE="0" COMMENT="" />
    <EXPORT ORDINAL="738" NAME="?tr@QGLShader@@SA?AVQString@@PBD0H@Z" PURGE="0" COMMENT="" />
    <EXPORT ORDINAL="739" NAME="?tr@QGLShaderProgram@@SA?AVQString@@PBD0H@Z" PURGE="0" COMMENT="" />
    <EXPORT ORDINAL="740" NAME="?tr@QGLSignalProxy@@SA?AVQString@@PBD0H@Z" PURGE="0" COMMENT="" />
    <EXPORT ORDINAL="741" NAME="?tr@QGLWidget@@SA?AVQString@@PBD0H@Z" PURGE="0" COMMENT="" />
    <EXPORT ORDINAL="742" NAME="?tr@QGraphicsShaderEffect@@SA?AVQString@@PBD0H@Z" PURGE="0" COMMENT="" />
    <EXPORT ORDINAL="743" NAME="?trUtf8@QGLEngineShaderManager@@SA?AVQString@@PBD0H@Z" PURGE="0" COMMENT="" />
    <EXPORT ORDINAL="744" NAME="?trUtf8@QGLShader@@SA?AVQString@@PBD0H@Z" PURGE="0" COMMENT="" />
    <EXPORT ORDINAL="745" NAME="?trUtf8@QGLShaderProgram@@SA?AVQString@@PBD0H@Z" PURGE="0" COMMENT="" />
    <EXPORT ORDINAL="746" NAME="?trUtf8@QGLSignalProxy@@SA?AVQString@@PBD0H@Z" PURGE="0" COMMENT="" />
    <EXPORT ORDINAL="747" NAME="?trUtf8@QGLWidget@@SA?AVQString@@PBD0H@Z" PURGE="0" COMMENT="" />
    <EXPORT ORDINAL="748" NAME="?trUtf8@QGraphicsShaderEffect@@SA?AVQString@@PBD0H@Z" PURGE="0" COMMENT="" />
    <EXPORT ORDINAL="749" NAME="?transformChanged@QGL2PaintEngineEx@@UAEXXZ" PURGE="0" COMMENT="" />
    <EXPORT ORDINAL="750" NAME="?type@QGL2PaintEngineEx@@UBE?AW4Type@QPaintEngine@@XZ" PURGE="0" COMMENT="" />
    <EXPORT ORDINAL="751" NAME="?type@QGLBuffer@@QBE?AW4Type@1@XZ" PURGE="0" COMMENT="" />
    <EXPORT ORDINAL="752" NAME="?uniformLocation@QGLShaderProgram@@QBEHABVQByteArray@@@Z" PURGE="4" COMMENT="" />
    <EXPORT ORDINAL="753" NAME="?uniformLocation@QGLShaderProgram@@QBEHABVQString@@@Z" PURGE="4" COMMENT="" />
    <EXPORT ORDINAL="754" NAME="?uniformLocation@QGLShaderProgram@@QBEHPBD@Z" PURGE="4" COMMENT="" />
    <EXPORT ORDINAL="755" NAME="?unmap@QGLBuffer@@QAE_NXZ" PURGE="0" COMMENT="" />
    <EXPORT ORDINAL="756" NAME="?updateDynamicTexture@QGLPixelBuffer@@QBEXI@Z" PURGE="4" COMMENT="" />
    <EXPORT ORDINAL="757" NAME="?updateGL@QGLWidget@@UAEXXZ" PURGE="0" COMMENT="" />
    <EXPORT ORDINAL="758" NAME="?updateOverlayGL@QGLWidget@@UAEXXZ" PURGE="0" COMMENT="" />
    <EXPORT ORDINAL="759" NAME="?usagePattern@QGLBuffer@@QBE?AW4UsagePattern@1@XZ" PURGE="0" COMMENT="" />
    <EXPORT ORDINAL="760" NAME="?useBlitProgram@QGLEngineShaderManager@@QAEXXZ" PURGE="0" COMMENT="" />
    <EXPORT ORDINAL="761" NAME="?useCorrectShaderProg@QGLEngineShaderManager@@QAE_NXZ" PURGE="0" COMMENT="" />
    <EXPORT ORDINAL="762" NAME="?useSimpleProgram@QGLEngineShaderManager@@QAEXXZ" PURGE="0" COMMENT="" />
    <EXPORT ORDINAL="763" NAME="?width@QGLTextureGlyphCache@@QBEHXZ" PURGE="0" COMMENT="" />
    <EXPORT ORDINAL="764" NAME="?windowCreated@QGLContext@@IBE_NXZ" PURGE="0" COMMENT="" />
    <EXPORT ORDINAL="765" NAME="?write@QGLBuffer@@QAEXHPBXH@Z" PURGE="12" COMMENT="" />
</LIBRARY>

