<?xml version="1.0" encoding="UTF-8"?>
<LIBRARY NAME="qt5script.dll" PATH="/DLLArchive/etc/Qt5Script.dll" DATE="Mon Dec 26 22:04:56 PST 2022" VERSION="5.15.2.0">
    <EXPORT ORDINAL="1" NAME="??0PersistentIdentifier@QScriptDeclarativeClass@@AAE@PAVQScriptEnginePrivate@@@Z" PURGE="4" COMMENT="" />
    <EXPORT ORDINAL="2" NAME="??0PersistentIdentifier@QScriptDeclarativeClass@@QAE@ABV01@@Z" PURGE="4" COMMENT="" />
    <EXPORT ORDINAL="3" NAME="??0PersistentIdentifier@QScriptDeclarativeClass@@QAE@XZ" PURGE="0" COMMENT="" />
    <EXPORT ORDINAL="4" NAME="??0QScriptClass@@IAE@PAVQScriptEngine@@AAVQScriptClassPrivate@@@Z" PURGE="8" COMMENT="" />
    <EXPORT ORDINAL="5" NAME="??0QScriptClass@@QAE@PAVQScriptEngine@@@Z" PURGE="4" COMMENT="" />
    <EXPORT ORDINAL="6" NAME="??0QScriptClassPropertyIterator@@IAE@ABVQScriptValue@@@Z" PURGE="4" COMMENT="" />
    <EXPORT ORDINAL="7" NAME="??0QScriptClassPropertyIterator@@IAE@ABVQScriptValue@@AAVQScriptClassPropertyIteratorPrivate@@@Z" PURGE="8" COMMENT="" />
    <EXPORT ORDINAL="8" NAME="??0QScriptContext@@AAE@XZ" PURGE="0" COMMENT="" />
    <EXPORT ORDINAL="9" NAME="??0QScriptContextInfo@@QAE@ABV0@@Z" PURGE="4" COMMENT="" />
    <EXPORT ORDINAL="10" NAME="??0QScriptContextInfo@@QAE@PBVQScriptContext@@@Z" PURGE="4" COMMENT="" />
    <EXPORT ORDINAL="11" NAME="??0QScriptContextInfo@@QAE@XZ" PURGE="0" COMMENT="" />
    <EXPORT ORDINAL="12" NAME="??0QScriptDeclarativeClass@@QAE@PAVQScriptEngine@@@Z" PURGE="4" COMMENT="" />
    <EXPORT ORDINAL="13" NAME="??0QScriptEngine@@IAE@AAVQScriptEnginePrivate@@PAVQObject@@@Z" PURGE="8" COMMENT="" />
    <EXPORT ORDINAL="14" NAME="??0QScriptEngine@@QAE@PAVQObject@@@Z" PURGE="4" COMMENT="" />
    <EXPORT ORDINAL="15" NAME="??0QScriptEngine@@QAE@XZ" PURGE="0" COMMENT="" />
    <EXPORT ORDINAL="16" NAME="??0QScriptEngineAgent@@IAE@AAVQScriptEngineAgentPrivate@@PAVQScriptEngine@@@Z" PURGE="8" COMMENT="" />
    <EXPORT ORDINAL="17" NAME="??0QScriptEngineAgent@@QAE@PAVQScriptEngine@@@Z" PURGE="4" COMMENT="" />
    <EXPORT ORDINAL="18" NAME="??0QScriptEngineAgentPrivate@@QAE@ABV0@@Z" PURGE="4" COMMENT="" />
    <EXPORT ORDINAL="19" NAME="??0QScriptEngineAgentPrivate@@QAE@XZ" PURGE="0" COMMENT="" />
    <EXPORT ORDINAL="20" NAME="??0QScriptExtensionInterface@@QAE@$$QAU0@@Z" PURGE="4" COMMENT="" />
    <EXPORT ORDINAL="21" NAME="??0QScriptExtensionInterface@@QAE@ABU0@@Z" PURGE="4" COMMENT="" />
    <EXPORT ORDINAL="22" NAME="??0QScriptExtensionInterface@@QAE@XZ" PURGE="0" COMMENT="" />
    <EXPORT ORDINAL="23" NAME="??0QScriptExtensionPlugin@@QAE@PAVQObject@@@Z" PURGE="4" COMMENT="" />
    <EXPORT ORDINAL="24" NAME="??0QScriptProgram@@QAE@ABV0@@Z" PURGE="4" COMMENT="" />
    <EXPORT ORDINAL="25" NAME="??0QScriptProgram@@QAE@ABVQString@@V1@H@Z" PURGE="12" COMMENT="" />
    <EXPORT ORDINAL="26" NAME="??0QScriptProgram@@QAE@XZ" PURGE="0" COMMENT="" />
    <EXPORT ORDINAL="27" NAME="??0QScriptString@@QAE@ABV0@@Z" PURGE="4" COMMENT="" />
    <EXPORT ORDINAL="28" NAME="??0QScriptString@@QAE@XZ" PURGE="0" COMMENT="" />
    <EXPORT ORDINAL="29" NAME="??0QScriptSyntaxCheckResult@@AAE@PAVQScriptSyntaxCheckResultPrivate@@@Z" PURGE="4" COMMENT="" />
    <EXPORT ORDINAL="30" NAME="??0QScriptSyntaxCheckResult@@AAE@XZ" PURGE="0" COMMENT="" />
    <EXPORT ORDINAL="31" NAME="??0QScriptSyntaxCheckResult@@QAE@ABV0@@Z" PURGE="4" COMMENT="" />
    <EXPORT ORDINAL="32" NAME="??0QScriptValue@@AAE@PAVQScriptValuePrivate@@@Z" PURGE="4" COMMENT="" />
    <EXPORT ORDINAL="33" NAME="??0QScriptValue@@QAE@ABV0@@Z" PURGE="4" COMMENT="" />
    <EXPORT ORDINAL="34" NAME="??0QScriptValue@@QAE@ABVQLatin1String@@@Z" PURGE="4" COMMENT="" />
    <EXPORT ORDINAL="35" NAME="??0QScriptValue@@QAE@ABVQString@@@Z" PURGE="4" COMMENT="" />
    <EXPORT ORDINAL="36" NAME="??0QScriptValue@@QAE@H@Z" PURGE="4" COMMENT="" />
    <EXPORT ORDINAL="37" NAME="??0QScriptValue@@QAE@I@Z" PURGE="4" COMMENT="" />
    <EXPORT ORDINAL="38" NAME="??0QScriptValue@@QAE@N@Z" PURGE="8" COMMENT="" />
    <EXPORT ORDINAL="39" NAME="??0QScriptValue@@QAE@PAVQScriptEngine@@ABVQString@@@Z" PURGE="8" COMMENT="" />
    <EXPORT ORDINAL="40" NAME="??0QScriptValue@@QAE@PAVQScriptEngine@@H@Z" PURGE="8" COMMENT="" />
    <EXPORT ORDINAL="41" NAME="??0QScriptValue@@QAE@PAVQScriptEngine@@I@Z" PURGE="8" COMMENT="" />
    <EXPORT ORDINAL="42" NAME="??0QScriptValue@@QAE@PAVQScriptEngine@@N@Z" PURGE="12" COMMENT="" />
    <EXPORT ORDINAL="43" NAME="??0QScriptValue@@QAE@PAVQScriptEngine@@PBD@Z" PURGE="8" COMMENT="" />
    <EXPORT ORDINAL="44" NAME="??0QScriptValue@@QAE@PAVQScriptEngine@@W4SpecialValue@0@@Z" PURGE="8" COMMENT="" />
    <EXPORT ORDINAL="45" NAME="??0QScriptValue@@QAE@PAVQScriptEngine@@_N@Z" PURGE="8" COMMENT="" />
    <EXPORT ORDINAL="46" NAME="??0QScriptValue@@QAE@PBD@Z" PURGE="4" COMMENT="" />
    <EXPORT ORDINAL="47" NAME="??0QScriptValue@@QAE@W4SpecialValue@0@@Z" PURGE="4" COMMENT="" />
    <EXPORT ORDINAL="48" NAME="??0QScriptValue@@QAE@XZ" PURGE="0" COMMENT="" />
    <EXPORT ORDINAL="49" NAME="??0QScriptValue@@QAE@_N@Z" PURGE="4" COMMENT="" />
    <EXPORT ORDINAL="50" NAME="??0QScriptValueIterator@@QAE@ABVQScriptValue@@@Z" PURGE="4" COMMENT="" />
    <EXPORT ORDINAL="51" NAME="??0QScriptable@@QAE@XZ" PURGE="0" COMMENT="" />
    <EXPORT ORDINAL="52" NAME="??0Value@QScriptDeclarativeClass@@QAE@ABV01@@Z" PURGE="4" COMMENT="" />
    <EXPORT ORDINAL="53" NAME="??0Value@QScriptDeclarativeClass@@QAE@PAVQScriptContext@@ABVQScriptValue@@@Z" PURGE="8" COMMENT="" />
    <EXPORT ORDINAL="54" NAME="??0Value@QScriptDeclarativeClass@@QAE@PAVQScriptContext@@ABVQString@@@Z" PURGE="8" COMMENT="" />
    <EXPORT ORDINAL="55" NAME="??0Value@QScriptDeclarativeClass@@QAE@PAVQScriptContext@@H@Z" PURGE="8" COMMENT="" />
    <EXPORT ORDINAL="56" NAME="??0Value@QScriptDeclarativeClass@@QAE@PAVQScriptContext@@I@Z" PURGE="8" COMMENT="" />
    <EXPORT ORDINAL="57" NAME="??0Value@QScriptDeclarativeClass@@QAE@PAVQScriptContext@@M@Z" PURGE="8" COMMENT="" />
    <EXPORT ORDINAL="58" NAME="??0Value@QScriptDeclarativeClass@@QAE@PAVQScriptContext@@N@Z" PURGE="12" COMMENT="" />
    <EXPORT ORDINAL="59" NAME="??0Value@QScriptDeclarativeClass@@QAE@PAVQScriptContext@@_N@Z" PURGE="8" COMMENT="" />
    <EXPORT ORDINAL="60" NAME="??0Value@QScriptDeclarativeClass@@QAE@PAVQScriptEngine@@ABVQScriptValue@@@Z" PURGE="8" COMMENT="" />
    <EXPORT ORDINAL="61" NAME="??0Value@QScriptDeclarativeClass@@QAE@PAVQScriptEngine@@ABVQString@@@Z" PURGE="8" COMMENT="" />
    <EXPORT ORDINAL="62" NAME="??0Value@QScriptDeclarativeClass@@QAE@PAVQScriptEngine@@H@Z" PURGE="8" COMMENT="" />
    <EXPORT ORDINAL="63" NAME="??0Value@QScriptDeclarativeClass@@QAE@PAVQScriptEngine@@I@Z" PURGE="8" COMMENT="" />
    <EXPORT ORDINAL="64" NAME="??0Value@QScriptDeclarativeClass@@QAE@PAVQScriptEngine@@M@Z" PURGE="8" COMMENT="" />
    <EXPORT ORDINAL="65" NAME="??0Value@QScriptDeclarativeClass@@QAE@PAVQScriptEngine@@N@Z" PURGE="12" COMMENT="" />
    <EXPORT ORDINAL="66" NAME="??0Value@QScriptDeclarativeClass@@QAE@PAVQScriptEngine@@_N@Z" PURGE="8" COMMENT="" />
    <EXPORT ORDINAL="67" NAME="??0Value@QScriptDeclarativeClass@@QAE@XZ" PURGE="0" COMMENT="" />
    <EXPORT ORDINAL="68" NAME="??1PersistentIdentifier@QScriptDeclarativeClass@@QAE@XZ" PURGE="0" COMMENT="" />
    <EXPORT ORDINAL="69" NAME="??1QScriptClass@@UAE@XZ" PURGE="0" COMMENT="" />
    <EXPORT ORDINAL="70" NAME="??1QScriptClassPropertyIterator@@UAE@XZ" PURGE="0" COMMENT="" />
    <EXPORT ORDINAL="71" NAME="??1QScriptContext@@QAE@XZ" PURGE="0" COMMENT="" />
    <EXPORT ORDINAL="72" NAME="??1QScriptContextInfo@@QAE@XZ" PURGE="0" COMMENT="" />
    <EXPORT ORDINAL="73" NAME="??1QScriptDeclarativeClass@@UAE@XZ" PURGE="0" COMMENT="" />
    <EXPORT ORDINAL="74" NAME="??1QScriptEngine@@UAE@XZ" PURGE="-1" COMMENT="" />
    <EXPORT ORDINAL="75" NAME="??1QScriptEngineAgent@@UAE@XZ" PURGE="0" COMMENT="" />
    <EXPORT ORDINAL="76" NAME="??1QScriptEngineAgentPrivate@@UAE@XZ" PURGE="0" COMMENT="" />
    <EXPORT ORDINAL="77" NAME="??1QScriptExtensionInterface@@UAE@XZ" PURGE="-1" COMMENT="" />
    <EXPORT ORDINAL="78" NAME="??1QScriptExtensionPlugin@@UAE@XZ" PURGE="-1" COMMENT="" />
    <EXPORT ORDINAL="79" NAME="??1QScriptProgram@@QAE@XZ" PURGE="0" COMMENT="" />
    <EXPORT ORDINAL="80" NAME="??1QScriptString@@QAE@XZ" PURGE="0" COMMENT="" />
    <EXPORT ORDINAL="81" NAME="??1QScriptSyntaxCheckResult@@QAE@XZ" PURGE="0" COMMENT="" />
    <EXPORT ORDINAL="82" NAME="??1QScriptValue@@QAE@XZ" PURGE="0" COMMENT="" />
    <EXPORT ORDINAL="83" NAME="??1QScriptValueIterator@@QAE@XZ" PURGE="0" COMMENT="" />
    <EXPORT ORDINAL="84" NAME="??1QScriptable@@QAE@XZ" PURGE="0" COMMENT="" />
    <EXPORT ORDINAL="85" NAME="??1Value@QScriptDeclarativeClass@@QAE@XZ" PURGE="0" COMMENT="" />
    <EXPORT ORDINAL="86" NAME="??4PersistentIdentifier@QScriptDeclarativeClass@@QAEAAV01@ABV01@@Z" PURGE="4" COMMENT="" />
    <EXPORT ORDINAL="87" NAME="??4QScriptContextInfo@@QAEAAV0@ABV0@@Z" PURGE="4" COMMENT="" />
    <EXPORT ORDINAL="88" NAME="??4QScriptEngineAgentPrivate@@QAEAAV0@ABV0@@Z" PURGE="4" COMMENT="" />
    <EXPORT ORDINAL="89" NAME="??4QScriptExtensionInterface@@QAEAAU0@$$QAU0@@Z" PURGE="4" COMMENT="" />
    <EXPORT ORDINAL="90" NAME="??4QScriptExtensionInterface@@QAEAAU0@ABU0@@Z" PURGE="4" COMMENT="" />
    <EXPORT ORDINAL="91" NAME="??4QScriptProgram@@QAEAAV0@ABV0@@Z" PURGE="4" COMMENT="" />
    <EXPORT ORDINAL="92" NAME="??4QScriptString@@QAEAAV0@ABV0@@Z" PURGE="4" COMMENT="" />
    <EXPORT ORDINAL="93" NAME="??4QScriptSyntaxCheckResult@@QAEAAV0@ABV0@@Z" PURGE="4" COMMENT="" />
    <EXPORT ORDINAL="94" NAME="??4QScriptValue@@QAEAAV0@ABV0@@Z" PURGE="4" COMMENT="" />
    <EXPORT ORDINAL="95" NAME="??4QScriptValueIterator@@QAEAAV0@AAVQScriptValue@@@Z" PURGE="4" COMMENT="" />
    <EXPORT ORDINAL="96" NAME="??4Value@QScriptDeclarativeClass@@QAEAAV01@ABV01@@Z" PURGE="4" COMMENT="" />
    <EXPORT ORDINAL="97" NAME="??5@YAAAVQDataStream@@AAV0@AAVQScriptContextInfo@@@Z" PURGE="0" COMMENT="" />
    <EXPORT ORDINAL="98" NAME="??6@YAAAVQDataStream@@AAV0@ABVQScriptContextInfo@@@Z" PURGE="0" COMMENT="" />
    <EXPORT ORDINAL="99" NAME="??8QScriptContextInfo@@QBE_NABV0@@Z" PURGE="4" COMMENT="" />
    <EXPORT ORDINAL="100" NAME="??8QScriptProgram@@QBE_NABV0@@Z" PURGE="4" COMMENT="" />
    <EXPORT ORDINAL="101" NAME="??8QScriptString@@QBE_NABV0@@Z" PURGE="4" COMMENT="" />
    <EXPORT ORDINAL="102" NAME="??9QScriptContextInfo@@QBE_NABV0@@Z" PURGE="4" COMMENT="" />
    <EXPORT ORDINAL="103" NAME="??9QScriptProgram@@QBE_NABV0@@Z" PURGE="4" COMMENT="" />
    <EXPORT ORDINAL="104" NAME="??9QScriptString@@QBE_NABV0@@Z" PURGE="4" COMMENT="" />
    <EXPORT ORDINAL="105" NAME="??BQScriptString@@QBE?AVQString@@XZ" PURGE="4" COMMENT="" />
    <EXPORT ORDINAL="106" NAME="??_7QScriptClass@@6B@" PURGE="-1" COMMENT="" />
    <EXPORT ORDINAL="107" NAME="??_7QScriptClassPropertyIterator@@6B@" PURGE="-1" COMMENT="" />
    <EXPORT ORDINAL="108" NAME="??_7QScriptDeclarativeClass@@6B@" PURGE="-1" COMMENT="" />
    <EXPORT ORDINAL="109" NAME="??_7QScriptEngine@@6B@" PURGE="-1" COMMENT="" />
    <EXPORT ORDINAL="110" NAME="??_7QScriptEngineAgent@@6B@" PURGE="-1" COMMENT="" />
    <EXPORT ORDINAL="111" NAME="??_7QScriptEngineAgentPrivate@@6B@" PURGE="-1" COMMENT="" />
    <EXPORT ORDINAL="112" NAME="??_7QScriptExtensionInterface@@6B@" PURGE="-1" COMMENT="" />
    <EXPORT ORDINAL="113" NAME="??_7QScriptExtensionPlugin@@6BQObject@@@" PURGE="-1" COMMENT="" />
    <EXPORT ORDINAL="114" NAME="??_7QScriptExtensionPlugin@@6BQScriptExtensionInterface@@@" PURGE="-1" COMMENT="" />
    <EXPORT ORDINAL="115" NAME="??_FQScriptExtensionPlugin@@QAEXXZ" PURGE="0" COMMENT="" />
    <EXPORT ORDINAL="116" NAME="?abortEvaluation@QScriptEngine@@QAEXABVQScriptValue@@@Z" PURGE="4" COMMENT="" />
    <EXPORT ORDINAL="117" NAME="?activationObject@QScriptContext@@QBE?AVQScriptValue@@XZ" PURGE="4" COMMENT="" />
    <EXPORT ORDINAL="118" NAME="?agent@QScriptEngine@@QBEPAVQScriptEngineAgent@@XZ" PURGE="0" COMMENT="" />
    <EXPORT ORDINAL="119" NAME="?argument@QScriptContext@@QBE?AVQScriptValue@@H@Z" PURGE="8" COMMENT="" />
    <EXPORT ORDINAL="120" NAME="?argument@QScriptable@@QBE?AVQScriptValue@@H@Z" PURGE="8" COMMENT="" />
    <EXPORT ORDINAL="121" NAME="?argumentCount@QScriptContext@@QBEHXZ" PURGE="0" COMMENT="" />
    <EXPORT ORDINAL="122" NAME="?argumentCount@QScriptable@@QBEHXZ" PURGE="0" COMMENT="" />
    <EXPORT ORDINAL="123" NAME="?argumentsObject@QScriptContext@@QBE?AVQScriptValue@@XZ" PURGE="4" COMMENT="" />
    <EXPORT ORDINAL="124" NAME="?atStatement@QScriptEngineAgentPrivate@@UAEXABVDebuggerCallFrame@QTJSC@@HH@Z" PURGE="12" COMMENT="" />
    <EXPORT ORDINAL="125" NAME="?attach@QScriptEngineAgentPrivate@@QAEXXZ" PURGE="0" COMMENT="" />
    <EXPORT ORDINAL="126" NAME="?availableExtensions@QScriptEngine@@QBE?AVQStringList@@XZ" PURGE="4" COMMENT="" />
    <EXPORT ORDINAL="127" NAME="?backtrace@QScriptContext@@QBE?AVQStringList@@XZ" PURGE="4" COMMENT="" />
    <EXPORT ORDINAL="128" NAME="?call@QScriptDeclarativeClass@@UAE?AVValue@1@PAUObject@1@PAVQScriptContext@@@Z" PURGE="12" COMMENT="" />
    <EXPORT ORDINAL="129" NAME="?call@QScriptValue@@QAE?AV1@ABV1@0@Z" PURGE="12" COMMENT="" />
    <EXPORT ORDINAL="130" NAME="?call@QScriptValue@@QAE?AV1@ABV1@ABV?$QList@VQScriptValue@@@@@Z" PURGE="12" COMMENT="" />
    <EXPORT ORDINAL="131" NAME="?callEvent@QScriptEngineAgentPrivate@@UAEXABVDebuggerCallFrame@QTJSC@@HH@Z" PURGE="12" COMMENT="" />
    <EXPORT ORDINAL="132" NAME="?callee@QScriptContext@@QBE?AVQScriptValue@@XZ" PURGE="4" COMMENT="" />
    <EXPORT ORDINAL="133" NAME="?canEvaluate@QScriptEngine@@QBE_NABVQString@@@Z" PURGE="4" COMMENT="" />
    <EXPORT ORDINAL="134" NAME="?checkSyntax@QScriptEngine@@SA?AVQScriptSyntaxCheckResult@@ABVQString@@@Z" PURGE="0" COMMENT="" />
    <EXPORT ORDINAL="135" NAME="?clearExceptions@QScriptEngine@@QAEXXZ" PURGE="0" COMMENT="" />
    <EXPORT ORDINAL="136" NAME="?collectGarbage@QScriptEngine@@QAEXXZ" PURGE="0" COMMENT="" />
    <EXPORT ORDINAL="137" NAME="?columnNumber@QScriptContextInfo@@QBEHXZ" PURGE="0" COMMENT="" />
    <EXPORT ORDINAL="138" NAME="?compare@QScriptDeclarativeClass@@UAE_NPAUObject@1@0@Z" PURGE="8" COMMENT="" />
    <EXPORT ORDINAL="139" NAME="?construct@QScriptValue@@QAE?AV1@ABV1@@Z" PURGE="8" COMMENT="" />
    <EXPORT ORDINAL="140" NAME="?construct@QScriptValue@@QAE?AV1@ABV?$QList@VQScriptValue@@@@@Z" PURGE="8" COMMENT="" />
    <EXPORT ORDINAL="141" NAME="?context@QScriptDeclarativeClass@@QBEPAVQScriptContext@@XZ" PURGE="0" COMMENT="" />
    <EXPORT ORDINAL="142" NAME="?context@QScriptable@@QBEPAVQScriptContext@@XZ" PURGE="0" COMMENT="" />
    <EXPORT ORDINAL="143" NAME="?contextPop@QScriptEngineAgent@@UAEXXZ" PURGE="0" COMMENT="" />
    <EXPORT ORDINAL="144" NAME="?contextPush@QScriptEngineAgent@@UAEXXZ" PURGE="0" COMMENT="" />
    <EXPORT ORDINAL="145" NAME="?convert@QScriptEngine@@AAE_NABVQScriptValue@@HPAX@Z" PURGE="12" COMMENT="" />
    <EXPORT ORDINAL="146" NAME="?convertV2@QScriptEngine@@CA_NABVQScriptValue@@HPAX@Z" PURGE="0" COMMENT="" />
    <EXPORT ORDINAL="147" NAME="?create@QScriptEngine@@AAE?AVQScriptValue@@HPBX@Z" PURGE="12" COMMENT="" />
    <EXPORT ORDINAL="148" NAME="?createPersistentIdentifier@QScriptDeclarativeClass@@QAE?AVPersistentIdentifier@1@ABQAX@Z" PURGE="8" COMMENT="" />
    <EXPORT ORDINAL="149" NAME="?createPersistentIdentifier@QScriptDeclarativeClass@@QAE?AVPersistentIdentifier@1@ABVQString@@@Z" PURGE="8" COMMENT="" />
    <EXPORT ORDINAL="150" NAME="?currentContext@QScriptEngine@@QBEPAVQScriptContext@@XZ" PURGE="0" COMMENT="" />
    <EXPORT ORDINAL="151" NAME="?d_func@QScriptClass@@AAEPAVQScriptClassPrivate@@XZ" PURGE="0" COMMENT="" />
    <EXPORT ORDINAL="152" NAME="?d_func@QScriptClass@@ABEPBVQScriptClassPrivate@@XZ" PURGE="0" COMMENT="" />
    <EXPORT ORDINAL="153" NAME="?d_func@QScriptClassPropertyIterator@@AAEPAVQScriptClassPropertyIteratorPrivate@@XZ" PURGE="0" COMMENT="" />
    <EXPORT ORDINAL="154" NAME="?d_func@QScriptClassPropertyIterator@@ABEPBVQScriptClassPropertyIteratorPrivate@@XZ" PURGE="0" COMMENT="" />
    <EXPORT ORDINAL="155" NAME="?d_func@QScriptContext@@AAEPAVQScriptContextPrivate@@XZ" PURGE="0" COMMENT="" />
    <EXPORT ORDINAL="156" NAME="?d_func@QScriptContext@@ABEPBVQScriptContextPrivate@@XZ" PURGE="0" COMMENT="" />
    <EXPORT ORDINAL="157" NAME="?d_func@QScriptContextInfo@@AAEPAVQScriptContextInfoPrivate@@XZ" PURGE="0" COMMENT="" />
    <EXPORT ORDINAL="158" NAME="?d_func@QScriptContextInfo@@ABEPBVQScriptContextInfoPrivate@@XZ" PURGE="0" COMMENT="" />
    <EXPORT ORDINAL="159" NAME="?d_func@QScriptEngine@@AAEPAVQScriptEnginePrivate@@XZ" PURGE="0" COMMENT="" />
    <EXPORT ORDINAL="160" NAME="?d_func@QScriptEngine@@ABEPBVQScriptEnginePrivate@@XZ" PURGE="0" COMMENT="" />
    <EXPORT ORDINAL="161" NAME="?d_func@QScriptEngineAgent@@AAEPAVQScriptEngineAgentPrivate@@XZ" PURGE="0" COMMENT="" />
    <EXPORT ORDINAL="162" NAME="?d_func@QScriptEngineAgent@@ABEPBVQScriptEngineAgentPrivate@@XZ" PURGE="0" COMMENT="" />
    <EXPORT ORDINAL="163" NAME="?d_func@QScriptProgram@@AAEPAVQScriptProgramPrivate@@XZ" PURGE="0" COMMENT="" />
    <EXPORT ORDINAL="164" NAME="?d_func@QScriptProgram@@ABEPBVQScriptProgramPrivate@@XZ" PURGE="0" COMMENT="" />
    <EXPORT ORDINAL="165" NAME="?d_func@QScriptString@@AAEPAVQScriptStringPrivate@@XZ" PURGE="0" COMMENT="" />
    <EXPORT ORDINAL="166" NAME="?d_func@QScriptString@@ABEPBVQScriptStringPrivate@@XZ" PURGE="0" COMMENT="" />
    <EXPORT ORDINAL="167" NAME="?d_func@QScriptSyntaxCheckResult@@AAEPAVQScriptSyntaxCheckResultPrivate@@XZ" PURGE="0" COMMENT="" />
    <EXPORT ORDINAL="168" NAME="?d_func@QScriptSyntaxCheckResult@@ABEPBVQScriptSyntaxCheckResultPrivate@@XZ" PURGE="0" COMMENT="" />
    <EXPORT ORDINAL="169" NAME="?d_func@QScriptValue@@AAEPAVQScriptValuePrivate@@XZ" PURGE="0" COMMENT="" />
    <EXPORT ORDINAL="170" NAME="?d_func@QScriptValue@@ABEPBVQScriptValuePrivate@@XZ" PURGE="0" COMMENT="" />
    <EXPORT ORDINAL="171" NAME="?d_func@QScriptValueIterator@@AAEPAVQScriptValueIteratorPrivate@@XZ" PURGE="0" COMMENT="" />
    <EXPORT ORDINAL="172" NAME="?d_func@QScriptValueIterator@@ABEPBVQScriptValueIteratorPrivate@@XZ" PURGE="0" COMMENT="" />
    <EXPORT ORDINAL="173" NAME="?d_func@QScriptable@@AAEPAVQScriptablePrivate@@XZ" PURGE="0" COMMENT="" />
    <EXPORT ORDINAL="174" NAME="?d_func@QScriptable@@ABEPBVQScriptablePrivate@@XZ" PURGE="0" COMMENT="" />
    <EXPORT ORDINAL="175" NAME="?data@QScriptValue@@QBE?AV1@XZ" PURGE="4" COMMENT="" />
    <EXPORT ORDINAL="176" NAME="?defaultPrototype@QScriptEngine@@QBE?AVQScriptValue@@H@Z" PURGE="8" COMMENT="" />
    <EXPORT ORDINAL="177" NAME="?detach@QScriptEngineAgentPrivate@@QAEXXZ" PURGE="0" COMMENT="" />
    <EXPORT ORDINAL="178" NAME="?didExecuteProgram@QScriptEngineAgentPrivate@@UAEXABVDebuggerCallFrame@QTJSC@@HH@Z" PURGE="12" COMMENT="" />
    <EXPORT ORDINAL="179" NAME="?didReachBreakpoint@QScriptEngineAgentPrivate@@UAEXABVDebuggerCallFrame@QTJSC@@HH@Z" PURGE="12" COMMENT="" />
    <EXPORT ORDINAL="180" NAME="?engine@QScriptClass@@QBEPAVQScriptEngine@@XZ" PURGE="0" COMMENT="" />
    <EXPORT ORDINAL="181" NAME="?engine@QScriptContext@@QBEPAVQScriptEngine@@XZ" PURGE="0" COMMENT="" />
    <EXPORT ORDINAL="182" NAME="?engine@QScriptDeclarativeClass@@QBEPAVQScriptEngine@@XZ" PURGE="0" COMMENT="" />
    <EXPORT ORDINAL="183" NAME="?engine@QScriptEngineAgent@@QBEPAVQScriptEngine@@XZ" PURGE="0" COMMENT="" />
    <EXPORT ORDINAL="184" NAME="?engine@QScriptValue@@QBEPAVQScriptEngine@@XZ" PURGE="0" COMMENT="" />
    <EXPORT ORDINAL="185" NAME="?engine@QScriptable@@QBEPAVQScriptEngine@@XZ" PURGE="0" COMMENT="" />
    <EXPORT ORDINAL="186" NAME="?equals@QScriptValue@@QBE_NABV1@@Z" PURGE="4" COMMENT="" />
    <EXPORT ORDINAL="187" NAME="?errorColumnNumber@QScriptSyntaxCheckResult@@QBEHXZ" PURGE="0" COMMENT="" />
    <EXPORT ORDINAL="188" NAME="?errorLineNumber@QScriptSyntaxCheckResult@@QBEHXZ" PURGE="0" COMMENT="" />
    <EXPORT ORDINAL="189" NAME="?errorMessage@QScriptSyntaxCheckResult@@QBE?AVQString@@XZ" PURGE="4" COMMENT="" />
    <EXPORT ORDINAL="190" NAME="?evaluate@QScriptEngine@@QAE?AVQScriptValue@@ABVQScriptProgram@@@Z" PURGE="8" COMMENT="" />
    <EXPORT ORDINAL="191" NAME="?evaluate@QScriptEngine@@QAE?AVQScriptValue@@ABVQString@@0H@Z" PURGE="16" COMMENT="" />
    <EXPORT ORDINAL="192" NAME="?evaluateStart@QScriptEngineAgentPrivate@@UAEXH@Z" PURGE="4" COMMENT="" />
    <EXPORT ORDINAL="193" NAME="?evaluateStop@QScriptEngineAgentPrivate@@UAEXABVJSValue@QTJSC@@H@Z" PURGE="8" COMMENT="" />
    <EXPORT ORDINAL="194" NAME="?exception@QScriptEngineAgentPrivate@@UAEXABVDebuggerCallFrame@QTJSC@@HH_N@Z" PURGE="16" COMMENT="" />
    <EXPORT ORDINAL="195" NAME="?exceptionCatch@QScriptEngineAgent@@UAEX_JABVQScriptValue@@@Z" PURGE="12" COMMENT="" />
    <EXPORT ORDINAL="196" NAME="?exceptionCatch@QScriptEngineAgentPrivate@@UAEXABVDebuggerCallFrame@QTJSC@@H@Z" PURGE="8" COMMENT="" />
    <EXPORT ORDINAL="197" NAME="?exceptionThrow@QScriptEngineAgent@@UAEX_JABVQScriptValue@@_N@Z" PURGE="16" COMMENT="" />
    <EXPORT ORDINAL="198" NAME="?exceptionThrow@QScriptEngineAgentPrivate@@UAEXABVDebuggerCallFrame@QTJSC@@H_N@Z" PURGE="12" COMMENT="" />
    <EXPORT ORDINAL="199" NAME="?extension@QScriptClass@@UAE?AVQVariant@@W4Extension@1@ABV2@@Z" PURGE="12" COMMENT="" />
    <EXPORT ORDINAL="200" NAME="?extension@QScriptEngineAgent@@UAE?AVQVariant@@W4Extension@1@ABV2@@Z" PURGE="12" COMMENT="" />
    <EXPORT ORDINAL="201" NAME="?fileName@QScriptContextInfo@@QBE?AVQString@@XZ" PURGE="4" COMMENT="" />
    <EXPORT ORDINAL="202" NAME="?fileName@QScriptProgram@@QBE?AVQString@@XZ" PURGE="4" COMMENT="" />
    <EXPORT ORDINAL="203" NAME="?firstLineNumber@QScriptProgram@@QBEHXZ" PURGE="0" COMMENT="" />
    <EXPORT ORDINAL="204" NAME="?flags@QScriptClassPropertyIterator@@UBE?AV?$QFlags@W4PropertyFlag@QScriptValue@@@@XZ" PURGE="4" COMMENT="" />
    <EXPORT ORDINAL="205" NAME="?flags@QScriptValueIterator@@QBE?AV?$QFlags@W4PropertyFlag@QScriptValue@@@@XZ" PURGE="4" COMMENT="" />
    <EXPORT ORDINAL="206" NAME="?function@QScriptDeclarativeClass@@SA?AVQScriptValue@@ABV2@ABQAX@Z" PURGE="0" COMMENT="" />
    <EXPORT ORDINAL="207" NAME="?functionEndLineNumber@QScriptContextInfo@@QBEHXZ" PURGE="0" COMMENT="" />
    <EXPORT ORDINAL="208" NAME="?functionEntry@QScriptEngineAgent@@UAEX_J@Z" PURGE="8" COMMENT="" />
    <EXPORT ORDINAL="209" NAME="?functionExit@QScriptEngineAgent@@UAEX_JABVQScriptValue@@@Z" PURGE="12" COMMENT="" />
    <EXPORT ORDINAL="210" NAME="?functionExit@QScriptEngineAgentPrivate@@UAEXABVJSValue@QTJSC@@H@Z" PURGE="8" COMMENT="" />
    <EXPORT ORDINAL="211" NAME="?functionMetaIndex@QScriptContextInfo@@QBEHXZ" PURGE="0" COMMENT="" />
    <EXPORT ORDINAL="212" NAME="?functionName@QScriptContextInfo@@QBE?AVQString@@XZ" PURGE="4" COMMENT="" />
    <EXPORT ORDINAL="213" NAME="?functionParameterNames@QScriptContextInfo@@QBE?AVQStringList@@XZ" PURGE="4" COMMENT="" />
    <EXPORT ORDINAL="214" NAME="?functionStartLineNumber@QScriptContextInfo@@QBEHXZ" PURGE="0" COMMENT="" />
    <EXPORT ORDINAL="215" NAME="?functionType@QScriptContextInfo@@QBE?AW4FunctionType@1@XZ" PURGE="0" COMMENT="" />
    <EXPORT ORDINAL="216" NAME="?functionValue@QScriptDeclarativeClass@@SA?AVValue@1@ABVQScriptValue@@ABQAX@Z" PURGE="0" COMMENT="" />
    <EXPORT ORDINAL="217" NAME="?get@QScriptEngineAgentPrivate@@SAPAV1@PAVQScriptEngineAgent@@@Z" PURGE="0" COMMENT="" />
    <EXPORT ORDINAL="218" NAME="?get@QScriptEngineAgentPrivate@@SAPAVQScriptEngineAgent@@PAV1@@Z" PURGE="0" COMMENT="" />
    <EXPORT ORDINAL="219" NAME="?globalObject@QScriptEngine@@QBE?AVQScriptValue@@XZ" PURGE="4" COMMENT="" />
    <EXPORT ORDINAL="220" NAME="?hasNext@QScriptValueIterator@@QBE_NXZ" PURGE="0" COMMENT="" />
    <EXPORT ORDINAL="221" NAME="?hasPrevious@QScriptValueIterator@@QBE_NXZ" PURGE="0" COMMENT="" />
    <EXPORT ORDINAL="222" NAME="?hasUncaughtException@QScriptEngine@@QBE_NXZ" PURGE="0" COMMENT="" />
    <EXPORT ORDINAL="223" NAME="?id@QScriptClassPropertyIterator@@UBEIXZ" PURGE="0" COMMENT="" />
    <EXPORT ORDINAL="224" NAME="?importExtension@QScriptEngine@@QAE?AVQScriptValue@@ABVQString@@@Z" PURGE="8" COMMENT="" />
    <EXPORT ORDINAL="225" NAME="?importedExtensions@QScriptEngine@@QBE?AVQStringList@@XZ" PURGE="4" COMMENT="" />
    <EXPORT ORDINAL="226" NAME="?installTranslatorFunctions@QScriptEngine@@QAEXABVQScriptValue@@@Z" PURGE="4" COMMENT="" />
    <EXPORT ORDINAL="227" NAME="?instanceOf@QScriptValue@@QBE_NABV1@@Z" PURGE="4" COMMENT="" />
    <EXPORT ORDINAL="228" NAME="?isArray@QScriptValue@@QBE_NXZ" PURGE="0" COMMENT="" />
    <EXPORT ORDINAL="229" NAME="?isBool@QScriptValue@@QBE_NXZ" PURGE="0" COMMENT="" />
    <EXPORT ORDINAL="230" NAME="?isBoolean@QScriptValue@@QBE_NXZ" PURGE="0" COMMENT="" />
    <EXPORT ORDINAL="231" NAME="?isCalledAsConstructor@QScriptContext@@QBE_NXZ" PURGE="0" COMMENT="" />
    <EXPORT ORDINAL="232" NAME="?isDate@QScriptValue@@QBE_NXZ" PURGE="0" COMMENT="" />
    <EXPORT ORDINAL="233" NAME="?isError@QScriptValue@@QBE_NXZ" PURGE="0" COMMENT="" />
    <EXPORT ORDINAL="234" NAME="?isEvaluating@QScriptEngine@@QBE_NXZ" PURGE="0" COMMENT="" />
    <EXPORT ORDINAL="235" NAME="?isFunction@QScriptValue@@QBE_NXZ" PURGE="0" COMMENT="" />
    <EXPORT ORDINAL="236" NAME="?isNull@QScriptContextInfo@@QBE_NXZ" PURGE="0" COMMENT="" />
    <EXPORT ORDINAL="237" NAME="?isNull@QScriptProgram@@QBE_NXZ" PURGE="0" COMMENT="" />
    <EXPORT ORDINAL="238" NAME="?isNull@QScriptValue@@QBE_NXZ" PURGE="0" COMMENT="" />
    <EXPORT ORDINAL="239" NAME="?isNumber@QScriptValue@@QBE_NXZ" PURGE="0" COMMENT="" />
    <EXPORT ORDINAL="240" NAME="?isObject@QScriptValue@@QBE_NXZ" PURGE="0" COMMENT="" />
    <EXPORT ORDINAL="241" NAME="?isQMetaObject@QScriptValue@@QBE_NXZ" PURGE="0" COMMENT="" />
    <EXPORT ORDINAL="242" NAME="?isQObject@QScriptDeclarativeClass@@UBE_NXZ" PURGE="0" COMMENT="" />
    <EXPORT ORDINAL="243" NAME="?isQObject@QScriptValue@@QBE_NXZ" PURGE="0" COMMENT="" />
    <EXPORT ORDINAL="244" NAME="?isRegExp@QScriptValue@@QBE_NXZ" PURGE="0" COMMENT="" />
    <EXPORT ORDINAL="245" NAME="?isString@QScriptValue@@QBE_NXZ" PURGE="0" COMMENT="" />
    <EXPORT ORDINAL="246" NAME="?isUndefined@QScriptValue@@QBE_NXZ" PURGE="0" COMMENT="" />
    <EXPORT ORDINAL="247" NAME="?isValid@QScriptString@@QBE_NXZ" PURGE="0" COMMENT="" />
    <EXPORT ORDINAL="248" NAME="?isValid@QScriptValue@@QBE_NXZ" PURGE="0" COMMENT="" />
    <EXPORT ORDINAL="249" NAME="?isVariant@QScriptValue@@QBE_NXZ" PURGE="0" COMMENT="" />
    <EXPORT ORDINAL="250" NAME="?lessThan@QScriptValue@@QBE_NABV1@@Z" PURGE="4" COMMENT="" />
    <EXPORT ORDINAL="251" NAME="?lineNumber@QScriptContextInfo@@QBEHXZ" PURGE="0" COMMENT="" />
    <EXPORT ORDINAL="252" NAME="?metaObject@QScriptEngine@@UBEPBUQMetaObject@@XZ" PURGE="0" COMMENT="" />
    <EXPORT ORDINAL="253" NAME="?metaObject@QScriptExtensionPlugin@@UBEPBUQMetaObject@@XZ" PURGE="0" COMMENT="" />
    <EXPORT ORDINAL="254" NAME="?name@QScriptClass@@UBE?AVQString@@XZ" PURGE="4" COMMENT="" />
    <EXPORT ORDINAL="255" NAME="?name@QScriptValueIterator@@QBE?AVQString@@XZ" PURGE="4" COMMENT="" />
    <EXPORT ORDINAL="256" NAME="?newActivationObject@QScriptEngine@@QAE?AVQScriptValue@@XZ" PURGE="4" COMMENT="" />
    <EXPORT ORDINAL="257" NAME="?newArray@QScriptEngine@@QAE?AVQScriptValue@@I@Z" PURGE="8" COMMENT="" />
    <EXPORT ORDINAL="258" NAME="?newDate@QScriptEngine@@QAE?AVQScriptValue@@ABVQDateTime@@@Z" PURGE="8" COMMENT="" />
    <EXPORT ORDINAL="259" NAME="?newDate@QScriptEngine@@QAE?AVQScriptValue@@N@Z" PURGE="12" COMMENT="" />
    <EXPORT ORDINAL="260" NAME="?newFunction@QScriptEngine@@QAE?AVQScriptValue@@P6A?AV2@PAVQScriptContext@@PAV1@@ZABV2@H@Z" PURGE="16" COMMENT="" />
    <EXPORT ORDINAL="261" NAME="?newFunction@QScriptEngine@@QAE?AVQScriptValue@@P6A?AV2@PAVQScriptContext@@PAV1@@ZH@Z" PURGE="12" COMMENT="" />
    <EXPORT ORDINAL="262" NAME="?newFunction@QScriptEngine@@QAE?AVQScriptValue@@P6A?AV2@PAVQScriptContext@@PAV1@PAX@Z2@Z" PURGE="12" COMMENT="" />
    <EXPORT ORDINAL="263" NAME="?newIterator@QScriptClass@@UAEPAVQScriptClassPropertyIterator@@ABVQScriptValue@@@Z" PURGE="4" COMMENT="" />
    <EXPORT ORDINAL="264" NAME="?newObject@QScriptDeclarativeClass@@SA?AVQScriptValue@@PAVQScriptEngine@@PAV1@PAUObject@1@@Z" PURGE="0" COMMENT="" />
    <EXPORT ORDINAL="265" NAME="?newObject@QScriptEngine@@QAE?AVQScriptValue@@PAVQScriptClass@@ABV2@@Z" PURGE="12" COMMENT="" />
    <EXPORT ORDINAL="266" NAME="?newObject@QScriptEngine@@QAE?AVQScriptValue@@XZ" PURGE="4" COMMENT="" />
    <EXPORT ORDINAL="267" NAME="?newObjectValue@QScriptDeclarativeClass@@SA?AVValue@1@PAVQScriptEngine@@PAV1@PAUObject@1@@Z" PURGE="0" COMMENT="" />
    <EXPORT ORDINAL="268" NAME="?newQMetaObject@QScriptEngine@@QAE?AVQScriptValue@@PBUQMetaObject@@ABV2@@Z" PURGE="12" COMMENT="" />
    <EXPORT ORDINAL="269" NAME="?newQObject@QScriptEngine@@QAE?AVQScriptValue@@ABV2@PAVQObject@@W4ValueOwnership@1@ABV?$QFlags@W4QObjectWrapOption@QScriptEngine@@@@@Z" PURGE="20" COMMENT="" />
    <EXPORT ORDINAL="270" NAME="?newQObject@QScriptEngine@@QAE?AVQScriptValue@@PAVQObject@@W4ValueOwnership@1@ABV?$QFlags@W4QObjectWrapOption@QScriptEngine@@@@@Z" PURGE="16" COMMENT="" />
    <EXPORT ORDINAL="271" NAME="?newRegExp@QScriptEngine@@QAE?AVQScriptValue@@ABVQRegExp@@@Z" PURGE="8" COMMENT="" />
    <EXPORT ORDINAL="272" NAME="?newRegExp@QScriptEngine@@QAE?AVQScriptValue@@ABVQString@@0@Z" PURGE="12" COMMENT="" />
    <EXPORT ORDINAL="273" NAME="?newStaticScopeObject@QScriptDeclarativeClass@@SA?AVQScriptValue@@PAVQScriptEngine@@@Z" PURGE="0" COMMENT="" />
    <EXPORT ORDINAL="274" NAME="?newStaticScopeObject@QScriptDeclarativeClass@@SA?AVQScriptValue@@PAVQScriptEngine@@HPBVQString@@PBV2@PBV?$QFlags@W4PropertyFlag@QScriptValue@@@@@Z" PURGE="0" COMMENT="" />
    <EXPORT ORDINAL="275" NAME="?newVariant@QScriptEngine@@QAE?AVQScriptValue@@ABV2@ABVQVariant@@@Z" PURGE="12" COMMENT="" />
    <EXPORT ORDINAL="276" NAME="?newVariant@QScriptEngine@@QAE?AVQScriptValue@@ABVQVariant@@@Z" PURGE="8" COMMENT="" />
    <EXPORT ORDINAL="277" NAME="?next@QScriptValueIterator@@QAEXXZ" PURGE="0" COMMENT="" />
    <EXPORT ORDINAL="278" NAME="?nullValue@QScriptEngine@@QAE?AVQScriptValue@@XZ" PURGE="4" COMMENT="" />
    <EXPORT ORDINAL="279" NAME="?object@QScriptClassPropertyIterator@@QBE?AVQScriptValue@@XZ" PURGE="4" COMMENT="" />
    <EXPORT ORDINAL="280" NAME="?object@QScriptDeclarativeClass@@SAPAUObject@1@ABVQScriptValue@@@Z" PURGE="0" COMMENT="" />
    <EXPORT ORDINAL="281" NAME="?objectById@QScriptEngine@@QBE?AVQScriptValue@@_J@Z" PURGE="12" COMMENT="" />
    <EXPORT ORDINAL="282" NAME="?objectId@QScriptValue@@QBE_JXZ" PURGE="0" COMMENT="" />
    <EXPORT ORDINAL="283" NAME="?parentContext@QScriptContext@@QBEPAV1@XZ" PURGE="0" COMMENT="" />
    <EXPORT ORDINAL="284" NAME="?popContext@QScriptEngine@@QAEXXZ" PURGE="0" COMMENT="" />
    <EXPORT ORDINAL="285" NAME="?popScope@QScriptContext@@QAE?AVQScriptValue@@XZ" PURGE="4" COMMENT="" />
    <EXPORT ORDINAL="286" NAME="?positionChange@QScriptEngineAgent@@UAEX_JHH@Z" PURGE="16" COMMENT="" />
    <EXPORT ORDINAL="287" NAME="?previous@QScriptValueIterator@@QAEXXZ" PURGE="0" COMMENT="" />
    <EXPORT ORDINAL="288" NAME="?processEventsInterval@QScriptEngine@@QBEHXZ" PURGE="0" COMMENT="" />
    <EXPORT ORDINAL="289" NAME="?property@QScriptClass@@UAE?AVQScriptValue@@ABV2@ABVQScriptString@@I@Z" PURGE="16" COMMENT="" />
    <EXPORT ORDINAL="290" NAME="?property@QScriptDeclarativeClass@@SA?AVQScriptValue@@ABV2@ABQAX@Z" PURGE="0" COMMENT="" />
    <EXPORT ORDINAL="291" NAME="?property@QScriptDeclarativeClass@@UAE?AVValue@1@PAUObject@1@ABQAX@Z" PURGE="12" COMMENT="" />
    <EXPORT ORDINAL="292" NAME="?property@QScriptValue@@QBE?AV1@ABVQScriptString@@ABV?$QFlags@W4ResolveFlag@QScriptValue@@@@@Z" PURGE="12" COMMENT="" />
    <EXPORT ORDINAL="293" NAME="?property@QScriptValue@@QBE?AV1@ABVQString@@ABV?$QFlags@W4ResolveFlag@QScriptValue@@@@@Z" PURGE="12" COMMENT="" />
    <EXPORT ORDINAL="294" NAME="?property@QScriptValue@@QBE?AV1@IABV?$QFlags@W4ResolveFlag@QScriptValue@@@@@Z" PURGE="12" COMMENT="" />
    <EXPORT ORDINAL="295" NAME="?propertyFlags@QScriptClass@@UAE?AV?$QFlags@W4PropertyFlag@QScriptValue@@@@ABVQScriptValue@@ABVQScriptString@@I@Z" PURGE="16" COMMENT="" />
    <EXPORT ORDINAL="296" NAME="?propertyFlags@QScriptDeclarativeClass@@UAE?AV?$QFlags@W4PropertyFlag@QScriptValue@@@@PAUObject@1@ABQAX@Z" PURGE="12" COMMENT="" />
    <EXPORT ORDINAL="297" NAME="?propertyFlags@QScriptValue@@QBE?AV?$QFlags@W4PropertyFlag@QScriptValue@@@@ABVQScriptString@@ABV?$QFlags@W4ResolveFlag@QScriptValue@@@@@Z" PURGE="12" COMMENT="" />
    <EXPORT ORDINAL="298" NAME="?propertyFlags@QScriptValue@@QBE?AV?$QFlags@W4PropertyFlag@QScriptValue@@@@ABVQString@@ABV?$QFlags@W4ResolveFlag@QScriptValue@@@@@Z" PURGE="12" COMMENT="" />
    <EXPORT ORDINAL="299" NAME="?propertyNames@QScriptDeclarativeClass@@UAE?AVQStringList@@PAUObject@1@@Z" PURGE="8" COMMENT="" />
    <EXPORT ORDINAL="300" NAME="?propertyValue@QScriptDeclarativeClass@@SA?AVValue@1@ABVQScriptValue@@ABQAX@Z" PURGE="0" COMMENT="" />
    <EXPORT ORDINAL="301" NAME="?prototype@QScriptClass@@UBE?AVQScriptValue@@XZ" PURGE="4" COMMENT="" />
    <EXPORT ORDINAL="302" NAME="?prototype@QScriptValue@@QBE?AV1@XZ" PURGE="4" COMMENT="" />
    <EXPORT ORDINAL="303" NAME="?pushCleanContext@QScriptDeclarativeClass@@SAPAVQScriptContext@@PAVQScriptEngine@@@Z" PURGE="0" COMMENT="" />
    <EXPORT ORDINAL="304" NAME="?pushContext@QScriptEngine@@QAEPAVQScriptContext@@XZ" PURGE="0" COMMENT="" />
    <EXPORT ORDINAL="305" NAME="?pushScope@QScriptContext@@QAEXABVQScriptValue@@@Z" PURGE="4" COMMENT="" />
    <EXPORT ORDINAL="306" NAME="?qHash@@YAIABVQScriptString@@@Z" PURGE="0" COMMENT="" />
    <EXPORT ORDINAL="307" NAME="?qScriptConnect@@YA_NPAVQObject@@PBDABVQScriptValue@@2@Z" PURGE="0" COMMENT="" />
    <EXPORT ORDINAL="308" NAME="?qScriptDisconnect@@YA_NPAVQObject@@PBDABVQScriptValue@@2@Z" PURGE="0" COMMENT="" />
    <EXPORT ORDINAL="309" NAME="?q_func@QScriptEngineAgentPrivate@@AAEPAVQScriptEngineAgent@@XZ" PURGE="0" COMMENT="" />
    <EXPORT ORDINAL="310" NAME="?q_func@QScriptEngineAgentPrivate@@ABEPBVQScriptEngineAgent@@XZ" PURGE="0" COMMENT="" />
    <EXPORT ORDINAL="311" NAME="?qt_metacall@QScriptEngine@@UAEHW4Call@QMetaObject@@HPAPAX@Z" PURGE="12" COMMENT="" />
    <EXPORT ORDINAL="312" NAME="?qt_metacall@QScriptExtensionPlugin@@UAEHW4Call@QMetaObject@@HPAPAX@Z" PURGE="-1" COMMENT="" />
    <EXPORT ORDINAL="313" NAME="?qt_metacast@QScriptEngine@@UAEPAXPBD@Z" PURGE="4" COMMENT="" />
    <EXPORT ORDINAL="314" NAME="?qt_metacast@QScriptExtensionPlugin@@UAEPAXPBD@Z" PURGE="4" COMMENT="" />
    <EXPORT ORDINAL="315" NAME="?qt_static_metacall@QScriptEngine@@CAXPAVQObject@@W4Call@QMetaObject@@HPAPAX@Z" PURGE="0" COMMENT="" />
    <EXPORT ORDINAL="316" NAME="?qt_static_metacall@QScriptExtensionPlugin@@CAXPAVQObject@@W4Call@QMetaObject@@HPAPAX@Z" PURGE="0" COMMENT="" />
    <EXPORT ORDINAL="317" NAME="?queryProperty@QScriptClass@@UAE?AV?$QFlags@W4QueryFlag@QScriptClass@@@@ABVQScriptValue@@ABVQScriptString@@V2@PAI@Z" PURGE="20" COMMENT="" />
    <EXPORT ORDINAL="318" NAME="?queryProperty@QScriptDeclarativeClass@@UAE?AV?$QFlags@W4QueryFlag@QScriptClass@@@@PAUObject@1@ABQAXV2@@Z" PURGE="16" COMMENT="" />
    <EXPORT ORDINAL="319" NAME="?registerCustomType@QScriptEngine@@AAEXHP6A?AVQScriptValue@@PAV1@PBX@ZP6AXABV2@PAX@Z3@Z" PURGE="16" COMMENT="" />
    <EXPORT ORDINAL="320" NAME="?remove@QScriptValueIterator@@QAEXXZ" PURGE="0" COMMENT="" />
    <EXPORT ORDINAL="321" NAME="?reportAdditionalMemoryCost@QScriptEngine@@QAEXH@Z" PURGE="4" COMMENT="" />
    <EXPORT ORDINAL="322" NAME="?returnEvent@QScriptEngineAgentPrivate@@UAEXABVDebuggerCallFrame@QTJSC@@HH@Z" PURGE="12" COMMENT="" />
    <EXPORT ORDINAL="323" NAME="?returnValue@QScriptContext@@QBE?AVQScriptValue@@XZ" PURGE="4" COMMENT="" />
    <EXPORT ORDINAL="324" NAME="?scope@QScriptValue@@QBE?AV1@XZ" PURGE="4" COMMENT="" />
    <EXPORT ORDINAL="325" NAME="?scopeChain@QScriptContext@@QBE?AV?$QList@VQScriptValue@@@@XZ" PURGE="4" COMMENT="" />
    <EXPORT ORDINAL="326" NAME="?scopeChainValue@QScriptDeclarativeClass@@SA?AVQScriptValue@@PAVQScriptContext@@H@Z" PURGE="0" COMMENT="" />
    <EXPORT ORDINAL="327" NAME="?scriptClass@QScriptDeclarativeClass@@SAPAV1@ABVQScriptValue@@@Z" PURGE="0" COMMENT="" />
    <EXPORT ORDINAL="328" NAME="?scriptClass@QScriptValue@@QBEPAVQScriptClass@@XZ" PURGE="0" COMMENT="" />
    <EXPORT ORDINAL="329" NAME="?scriptId@QScriptContextInfo@@QBE_JXZ" PURGE="0" COMMENT="" />
    <EXPORT ORDINAL="330" NAME="?scriptLoad@QScriptEngineAgent@@UAEX_JABVQString@@1H@Z" PURGE="20" COMMENT="" />
    <EXPORT ORDINAL="331" NAME="?scriptLoad@QScriptEngineAgentPrivate@@UAEX_JABVUString@QTJSC@@1H@Z" PURGE="20" COMMENT="" />
    <EXPORT ORDINAL="332" NAME="?scriptName@QScriptValueIterator@@QBE?AVQScriptString@@XZ" PURGE="4" COMMENT="" />
    <EXPORT ORDINAL="333" NAME="?scriptUnload@QScriptEngineAgent@@UAEX_J@Z" PURGE="8" COMMENT="" />
    <EXPORT ORDINAL="334" NAME="?scriptUnload@QScriptEngineAgentPrivate@@UAEX_J@Z" PURGE="8" COMMENT="" />
    <EXPORT ORDINAL="335" NAME="?setActivationObject@QScriptContext@@QAEXABVQScriptValue@@@Z" PURGE="4" COMMENT="" />
    <EXPORT ORDINAL="336" NAME="?setAgent@QScriptEngine@@QAEXPAVQScriptEngineAgent@@@Z" PURGE="4" COMMENT="" />
    <EXPORT ORDINAL="337" NAME="?setData@QScriptValue@@QAEXABV1@@Z" PURGE="4" COMMENT="" />
    <EXPORT ORDINAL="338" NAME="?setDefaultPrototype@QScriptEngine@@QAEXHABVQScriptValue@@@Z" PURGE="8" COMMENT="" />
    <EXPORT ORDINAL="339" NAME="?setGlobalObject@QScriptEngine@@QAEXABVQScriptValue@@@Z" PURGE="4" COMMENT="" />
    <EXPORT ORDINAL="340" NAME="?setProcessEventsInterval@QScriptEngine@@QAEXH@Z" PURGE="4" COMMENT="" />
    <EXPORT ORDINAL="341" NAME="?setProperty@QScriptClass@@UAEXAAVQScriptValue@@ABVQScriptString@@IABV2@@Z" PURGE="16" COMMENT="" />
    <EXPORT ORDINAL="342" NAME="?setProperty@QScriptDeclarativeClass@@UAEXPAUObject@1@ABQAXABVQScriptValue@@@Z" PURGE="12" COMMENT="" />
    <EXPORT ORDINAL="343" NAME="?setProperty@QScriptValue@@QAEXABVQScriptString@@ABV1@ABV?$QFlags@W4PropertyFlag@QScriptValue@@@@@Z" PURGE="12" COMMENT="" />
    <EXPORT ORDINAL="344" NAME="?setProperty@QScriptValue@@QAEXABVQString@@ABV1@ABV?$QFlags@W4PropertyFlag@QScriptValue@@@@@Z" PURGE="12" COMMENT="" />
    <EXPORT ORDINAL="345" NAME="?setProperty@QScriptValue@@QAEXIABV1@ABV?$QFlags@W4PropertyFlag@QScriptValue@@@@@Z" PURGE="12" COMMENT="" />
    <EXPORT ORDINAL="346" NAME="?setPrototype@QScriptValue@@QAEXABV1@@Z" PURGE="4" COMMENT="" />
    <EXPORT ORDINAL="347" NAME="?setReturnValue@QScriptContext@@QAEXABVQScriptValue@@@Z" PURGE="4" COMMENT="" />
    <EXPORT ORDINAL="348" NAME="?setScope@QScriptValue@@QAEXABV1@@Z" PURGE="4" COMMENT="" />
    <EXPORT ORDINAL="349" NAME="?setScriptClass@QScriptValue@@QAEXPAVQScriptClass@@@Z" PURGE="4" COMMENT="" />
    <EXPORT ORDINAL="350" NAME="?setSupportsCall@QScriptDeclarativeClass@@QAEX_N@Z" PURGE="4" COMMENT="" />
    <EXPORT ORDINAL="351" NAME="?setThisObject@QScriptContext@@QAEXABVQScriptValue@@@Z" PURGE="4" COMMENT="" />
    <EXPORT ORDINAL="352" NAME="?setValue@QScriptValueIterator@@QAEXABVQScriptValue@@@Z" PURGE="4" COMMENT="" />
    <EXPORT ORDINAL="353" NAME="?setupPackage@QScriptExtensionPlugin@@QBE?AVQScriptValue@@ABVQString@@PAVQScriptEngine@@@Z" PURGE="12" COMMENT="" />
    <EXPORT ORDINAL="354" NAME="?signalHandlerException@QScriptEngine@@QAEXABVQScriptValue@@@Z" PURGE="4" COMMENT="" />
    <EXPORT ORDINAL="355" NAME="?sourceCode@QScriptProgram@@QBE?AVQString@@XZ" PURGE="4" COMMENT="" />
    <EXPORT ORDINAL="356" NAME="?sourceParsed@QScriptEngineAgentPrivate@@UAEXPAVExecState@QTJSC@@ABVSourceCode@3@HABVUString@3@@Z" PURGE="16" COMMENT="" />
    <EXPORT ORDINAL="357" NAME="?startsWithUpper@QScriptDeclarativeClass@@QAE_NABQAX@Z" PURGE="4" COMMENT="" />
    <EXPORT ORDINAL="358" NAME="?state@QScriptContext@@QBE?AW4ExecutionState@1@XZ" PURGE="0" COMMENT="" />
    <EXPORT ORDINAL="359" NAME="?state@QScriptSyntaxCheckResult@@QBE?AW4State@1@XZ" PURGE="0" COMMENT="" />
    <EXPORT ORDINAL="360" NAME="?staticMetaObject@QScriptEngine@@2UQMetaObject@@B" PURGE="-1" COMMENT="" />
    <EXPORT ORDINAL="361" NAME="?staticMetaObject@QScriptExtensionPlugin@@2UQMetaObject@@B" PURGE="-1" COMMENT="" />
    <EXPORT ORDINAL="362" NAME="?strictlyEquals@QScriptValue@@QBE_NABV1@@Z" PURGE="4" COMMENT="" />
    <EXPORT ORDINAL="363" NAME="?supportsCall@QScriptDeclarativeClass@@QBE_NXZ" PURGE="0" COMMENT="" />
    <EXPORT ORDINAL="364" NAME="?supportsExtension@QScriptClass@@UBE_NW4Extension@1@@Z" PURGE="4" COMMENT="" />
    <EXPORT ORDINAL="365" NAME="?supportsExtension@QScriptEngineAgent@@UBE_NW4Extension@1@@Z" PURGE="4" COMMENT="" />
    <EXPORT ORDINAL="366" NAME="?thisObject@QScriptContext@@QBE?AVQScriptValue@@XZ" PURGE="4" COMMENT="" />
    <EXPORT ORDINAL="367" NAME="?thisObject@QScriptable@@QBE?AVQScriptValue@@XZ" PURGE="4" COMMENT="" />
    <EXPORT ORDINAL="368" NAME="?throwError@QScriptContext@@QAE?AVQScriptValue@@ABVQString@@@Z" PURGE="8" COMMENT="" />
    <EXPORT ORDINAL="369" NAME="?throwError@QScriptContext@@QAE?AVQScriptValue@@W4Error@1@ABVQString@@@Z" PURGE="12" COMMENT="" />
    <EXPORT ORDINAL="370" NAME="?throwValue@QScriptContext@@QAE?AVQScriptValue@@ABV2@@Z" PURGE="8" COMMENT="" />
    <EXPORT ORDINAL="371" NAME="?toArrayIndex@QScriptDeclarativeClass@@QAEIABQAXPA_N@Z" PURGE="8" COMMENT="" />
    <EXPORT ORDINAL="372" NAME="?toArrayIndex@QScriptString@@QBEIPA_N@Z" PURGE="4" COMMENT="" />
    <EXPORT ORDINAL="373" NAME="?toBack@QScriptValueIterator@@QAEXXZ" PURGE="0" COMMENT="" />
    <EXPORT ORDINAL="374" NAME="?toBool@QScriptValue@@QBE_NXZ" PURGE="0" COMMENT="" />
    <EXPORT ORDINAL="375" NAME="?toBoolean@QScriptValue@@QBE_NXZ" PURGE="0" COMMENT="" />
    <EXPORT ORDINAL="376" NAME="?toDateTime@QScriptValue@@QBE?AVQDateTime@@XZ" PURGE="4" COMMENT="" />
    <EXPORT ORDINAL="377" NAME="?toFront@QScriptValueIterator@@QAEXXZ" PURGE="0" COMMENT="" />
    <EXPORT ORDINAL="378" NAME="?toInt32@QScriptValue@@QBEHXZ" PURGE="0" COMMENT="" />
    <EXPORT ORDINAL="379" NAME="?toInteger@QScriptValue@@QBENXZ" PURGE="0" COMMENT="" />
    <EXPORT ORDINAL="380" NAME="?toNumber@QScriptValue@@QBENXZ" PURGE="0" COMMENT="" />
    <EXPORT ORDINAL="381" NAME="?toObject@QScriptEngine@@QAE?AVQScriptValue@@ABV2@@Z" PURGE="8" COMMENT="" />
    <EXPORT ORDINAL="382" NAME="?toObject@QScriptValue@@QBE?AV1@XZ" PURGE="4" COMMENT="" />
    <EXPORT ORDINAL="383" NAME="?toQMetaObject@QScriptValue@@QBEPBUQMetaObject@@XZ" PURGE="0" COMMENT="" />
    <EXPORT ORDINAL="384" NAME="?toQObject@QScriptDeclarativeClass@@UAEPAVQObject@@PAUObject@1@PA_N@Z" PURGE="8" COMMENT="" />
    <EXPORT ORDINAL="385" NAME="?toQObject@QScriptValue@@QBEPAVQObject@@XZ" PURGE="0" COMMENT="" />
    <EXPORT ORDINAL="386" NAME="?toRegExp@QScriptValue@@QBE?AVQRegExp@@XZ" PURGE="4" COMMENT="" />
    <EXPORT ORDINAL="387" NAME="?toScriptValue@Value@QScriptDeclarativeClass@@QBE?AVQScriptValue@@PAVQScriptEngine@@@Z" PURGE="8" COMMENT="" />
    <EXPORT ORDINAL="388" NAME="?toString@PersistentIdentifier@QScriptDeclarativeClass@@QBE?AVQString@@XZ" PURGE="4" COMMENT="" />
    <EXPORT ORDINAL="389" NAME="?toString@QScriptContext@@QBE?AVQString@@XZ" PURGE="4" COMMENT="" />
    <EXPORT ORDINAL="390" NAME="?toString@QScriptDeclarativeClass@@QAE?AVQString@@ABQAX@Z" PURGE="8" COMMENT="" />
    <EXPORT ORDINAL="391" NAME="?toString@QScriptString@@QBE?AVQString@@XZ" PURGE="4" COMMENT="" />
    <EXPORT ORDINAL="392" NAME="?toString@QScriptValue@@QBE?AVQString@@XZ" PURGE="4" COMMENT="" />
    <EXPORT ORDINAL="393" NAME="?toStringHandle@QScriptEngine@@QAE?AVQScriptString@@ABVQString@@@Z" PURGE="8" COMMENT="" />
    <EXPORT ORDINAL="394" NAME="?toUInt16@QScriptValue@@QBEGXZ" PURGE="0" COMMENT="" />
    <EXPORT ORDINAL="395" NAME="?toUInt32@QScriptValue@@QBEIXZ" PURGE="0" COMMENT="" />
    <EXPORT ORDINAL="396" NAME="?toVariant@QScriptDeclarativeClass@@UAE?AVQVariant@@PAUObject@1@PA_N@Z" PURGE="12" COMMENT="" />
    <EXPORT ORDINAL="397" NAME="?toVariant@QScriptValue@@QBE?AVQVariant@@XZ" PURGE="4" COMMENT="" />
    <EXPORT ORDINAL="398" NAME="?tr@QScriptEngine@@SA?AVQString@@PBD0H@Z" PURGE="0" COMMENT="" />
    <EXPORT ORDINAL="399" NAME="?tr@QScriptExtensionPlugin@@SA?AVQString@@PBD0H@Z" PURGE="0" COMMENT="" />
    <EXPORT ORDINAL="400" NAME="?trUtf8@QScriptEngine@@SA?AVQString@@PBD0H@Z" PURGE="0" COMMENT="" />
    <EXPORT ORDINAL="401" NAME="?trUtf8@QScriptExtensionPlugin@@SA?AVQString@@PBD0H@Z" PURGE="0" COMMENT="" />
    <EXPORT ORDINAL="402" NAME="?uncaughtException@QScriptEngine@@QBE?AVQScriptValue@@XZ" PURGE="4" COMMENT="" />
    <EXPORT ORDINAL="403" NAME="?uncaughtExceptionBacktrace@QScriptEngine@@QBE?AVQStringList@@XZ" PURGE="4" COMMENT="" />
    <EXPORT ORDINAL="404" NAME="?uncaughtExceptionLineNumber@QScriptEngine@@QBEHXZ" PURGE="0" COMMENT="" />
    <EXPORT ORDINAL="405" NAME="?undefinedValue@QScriptEngine@@QAE?AVQScriptValue@@XZ" PURGE="4" COMMENT="" />
    <EXPORT ORDINAL="406" NAME="?value@QScriptValueIterator@@QBE?AVQScriptValue@@XZ" PURGE="4" COMMENT="" />
    <EXPORT ORDINAL="407" NAME="?willExecuteProgram@QScriptEngineAgentPrivate@@UAEXABVDebuggerCallFrame@QTJSC@@HH@Z" PURGE="12" COMMENT="" />
</LIBRARY>

