<?xml version="1.0" encoding="UTF-8"?>
<LIBRARY NAME="qtcore4.dll" PATH="/DLLArchive/etc/QTCore4.dll" DATE="Wed Mar 13 11:45:45 PDT 2013" VERSION="4.8.3.0">
    <EXPORT ORDINAL="1" NAME="??0?$QVector@VQPoint@@@@QAE@ABV0@@Z" PURGE="4" COMMENT="" />
    <EXPORT ORDINAL="2" NAME="??0?$QVector@VQPoint@@@@QAE@H@Z" PURGE="4" COMMENT="" />
    <EXPORT ORDINAL="3" NAME="??0?$QVector@VQPoint@@@@QAE@HABVQPoint@@@Z" PURGE="8" COMMENT="" />
    <EXPORT ORDINAL="4" NAME="??0?$QVector@VQPoint@@@@QAE@XZ" PURGE="0" COMMENT="" />
    <EXPORT ORDINAL="5" NAME="??0?$QVector@VQPointF@@@@QAE@ABV0@@Z" PURGE="4" COMMENT="" />
    <EXPORT ORDINAL="6" NAME="??0?$QVector@VQPointF@@@@QAE@H@Z" PURGE="4" COMMENT="" />
    <EXPORT ORDINAL="7" NAME="??0?$QVector@VQPointF@@@@QAE@HABVQPointF@@@Z" PURGE="8" COMMENT="" />
    <EXPORT ORDINAL="8" NAME="??0?$QVector@VQPointF@@@@QAE@XZ" PURGE="0" COMMENT="" />
    <EXPORT ORDINAL="9" NAME="??0?$QVector@VQXmlStreamAttribute@@@@QAE@ABV0@@Z" PURGE="4" COMMENT="" />
    <EXPORT ORDINAL="10" NAME="??0?$QVector@VQXmlStreamAttribute@@@@QAE@H@Z" PURGE="4" COMMENT="" />
    <EXPORT ORDINAL="11" NAME="??0?$QVector@VQXmlStreamAttribute@@@@QAE@HABVQXmlStreamAttribute@@@Z" PURGE="8" COMMENT="" />
    <EXPORT ORDINAL="12" NAME="??0?$QVector@VQXmlStreamAttribute@@@@QAE@XZ" PURGE="0" COMMENT="" />
    <EXPORT ORDINAL="13" NAME="??0BlockSizeManager@QtConcurrent@@QAE@ABV01@@Z" PURGE="4" COMMENT="" />
    <EXPORT ORDINAL="14" NAME="??0BlockSizeManager@QtConcurrent@@QAE@H@Z" PURGE="4" COMMENT="" />
    <EXPORT ORDINAL="15" NAME="??0ConverterState@QTextCodec@@QAE@V?$QFlags@W4ConversionFlag@QTextCodec@@@@@Z" PURGE="4" COMMENT="" />
    <EXPORT ORDINAL="16" NAME="??0Exception@QtConcurrent@@QAE@ABV01@@Z" PURGE="4" COMMENT="" />
    <EXPORT ORDINAL="17" NAME="??0Exception@QtConcurrent@@QAE@XZ" PURGE="0" COMMENT="" />
    <EXPORT ORDINAL="18" NAME="??0ExceptionStore@internal@QtConcurrent@@QAE@ABV012@@Z" PURGE="4" COMMENT="" />
    <EXPORT ORDINAL="19" NAME="??0ExceptionStore@internal@QtConcurrent@@QAE@XZ" PURGE="0" COMMENT="" />
    <EXPORT ORDINAL="20" NAME="??0QAbstractAnimation@@IAE@AAVQAbstractAnimationPrivate@@PAVQObject@@@Z" PURGE="8" COMMENT="" />
    <EXPORT ORDINAL="21" NAME="??0QAbstractAnimation@@QAE@PAVQObject@@@Z" PURGE="4" COMMENT="" />
    <EXPORT ORDINAL="22" NAME="??0QAbstractDynamicMetaObject@@QAE@ABU0@@Z" PURGE="4" COMMENT="" />
    <EXPORT ORDINAL="23" NAME="??0QAbstractDynamicMetaObject@@QAE@XZ" PURGE="0" COMMENT="" />
    <EXPORT ORDINAL="24" NAME="??0QAbstractEventDispatcher@@IAE@AAVQAbstractEventDispatcherPrivate@@PAVQObject@@@Z" PURGE="8" COMMENT="" />
    <EXPORT ORDINAL="25" NAME="??0QAbstractEventDispatcher@@QAE@PAVQObject@@@Z" PURGE="4" COMMENT="" />
    <EXPORT ORDINAL="26" NAME="??0QAbstractEventDispatcherPrivate@@QAE@ABV0@@Z" PURGE="4" COMMENT="" />
    <EXPORT ORDINAL="27" NAME="??0QAbstractEventDispatcherPrivate@@QAE@XZ" PURGE="0" COMMENT="" />
    <EXPORT ORDINAL="28" NAME="??0QAbstractFileEngine@@IAE@AAVQAbstractFileEnginePrivate@@@Z" PURGE="4" COMMENT="" />
    <EXPORT ORDINAL="29" NAME="??0QAbstractFileEngine@@IAE@XZ" PURGE="0" COMMENT="" />
    <EXPORT ORDINAL="30" NAME="??0QAbstractFileEngineHandler@@QAE@ABV0@@Z" PURGE="4" COMMENT="" />
    <EXPORT ORDINAL="31" NAME="??0QAbstractFileEngineHandler@@QAE@XZ" PURGE="0" COMMENT="" />
    <EXPORT ORDINAL="32" NAME="??0QAbstractFileEngineIterator@@QAE@V?$QFlags@W4Filter@QDir@@@@ABVQStringList@@@Z" PURGE="8" COMMENT="" />
    <EXPORT ORDINAL="33" NAME="??0QAbstractItemModel@@IAE@AAVQAbstractItemModelPrivate@@PAVQObject@@@Z" PURGE="8" COMMENT="" />
    <EXPORT ORDINAL="34" NAME="??0QAbstractItemModel@@QAE@PAVQObject@@@Z" PURGE="4" COMMENT="" />
    <EXPORT ORDINAL="35" NAME="??0QAbstractItemModelPrivate@@QAE@ABV0@@Z" PURGE="4" COMMENT="" />
    <EXPORT ORDINAL="36" NAME="??0QAbstractItemModelPrivate@@QAE@XZ" PURGE="0" COMMENT="" />
    <EXPORT ORDINAL="37" NAME="??0QAbstractListModel@@IAE@AAVQAbstractItemModelPrivate@@PAVQObject@@@Z" PURGE="8" COMMENT="" />
    <EXPORT ORDINAL="38" NAME="??0QAbstractListModel@@QAE@PAVQObject@@@Z" PURGE="4" COMMENT="" />
    <EXPORT ORDINAL="39" NAME="??0QAbstractState@@IAE@AAVQAbstractStatePrivate@@PAVQState@@@Z" PURGE="8" COMMENT="" />
    <EXPORT ORDINAL="40" NAME="??0QAbstractState@@IAE@PAVQState@@@Z" PURGE="4" COMMENT="" />
    <EXPORT ORDINAL="41" NAME="??0QAbstractTableModel@@IAE@AAVQAbstractItemModelPrivate@@PAVQObject@@@Z" PURGE="8" COMMENT="" />
    <EXPORT ORDINAL="42" NAME="??0QAbstractTableModel@@QAE@PAVQObject@@@Z" PURGE="4" COMMENT="" />
    <EXPORT ORDINAL="43" NAME="??0QAbstractTransition@@IAE@AAVQAbstractTransitionPrivate@@PAVQState@@@Z" PURGE="8" COMMENT="" />
    <EXPORT ORDINAL="44" NAME="??0QAbstractTransition@@QAE@PAVQState@@@Z" PURGE="4" COMMENT="" />
    <EXPORT ORDINAL="45" NAME="??0QAbstractTransitionPrivate@@QAE@ABV0@@Z" PURGE="4" COMMENT="" />
    <EXPORT ORDINAL="46" NAME="??0QAbstractTransitionPrivate@@QAE@XZ" PURGE="0" COMMENT="" />
    <EXPORT ORDINAL="47" NAME="??0QAnimationDriver@@IAE@AAVQAnimationDriverPrivate@@PAVQObject@@@Z" PURGE="8" COMMENT="" />
    <EXPORT ORDINAL="48" NAME="??0QAnimationDriver@@QAE@PAVQObject@@@Z" PURGE="4" COMMENT="" />
    <EXPORT ORDINAL="49" NAME="??0QAnimationDriverPrivate@@QAE@ABV0@@Z" PURGE="4" COMMENT="" />
    <EXPORT ORDINAL="50" NAME="??0QAnimationDriverPrivate@@QAE@XZ" PURGE="0" COMMENT="" />
    <EXPORT ORDINAL="51" NAME="??0QAnimationGroup@@IAE@AAVQAnimationGroupPrivate@@PAVQObject@@@Z" PURGE="8" COMMENT="" />
    <EXPORT ORDINAL="52" NAME="??0QAnimationGroup@@QAE@PAVQObject@@@Z" PURGE="4" COMMENT="" />
    <EXPORT ORDINAL="53" NAME="??0QAtomicInt@@QAE@ABV0@@Z" PURGE="4" COMMENT="" />
    <EXPORT ORDINAL="54" NAME="??0QAtomicInt@@QAE@H@Z" PURGE="4" COMMENT="" />
    <EXPORT ORDINAL="55" NAME="??0QBasicTimer@@QAE@XZ" PURGE="0" COMMENT="" />
    <EXPORT ORDINAL="56" NAME="??0QBitArray@@QAE@ABV0@@Z" PURGE="4" COMMENT="" />
    <EXPORT ORDINAL="57" NAME="??0QBitArray@@QAE@H_N@Z" PURGE="8" COMMENT="" />
    <EXPORT ORDINAL="58" NAME="??0QBitArray@@QAE@XZ" PURGE="0" COMMENT="" />
    <EXPORT ORDINAL="59" NAME="??0QBitRef@@AAE@AAVQBitArray@@H@Z" PURGE="8" COMMENT="" />
    <EXPORT ORDINAL="60" NAME="??0QBuffer@@QAE@PAVQByteArray@@PAVQObject@@@Z" PURGE="8" COMMENT="" />
    <EXPORT ORDINAL="61" NAME="??0QBuffer@@QAE@PAVQObject@@@Z" PURGE="4" COMMENT="" />
    <EXPORT ORDINAL="62" NAME="??0QByteArray@@AAE@PAUData@0@HH@Z" PURGE="12" COMMENT="" />
    <EXPORT ORDINAL="63" NAME="??0QByteArray@@QAE@ABV0@@Z" PURGE="4" COMMENT="" />
    <EXPORT ORDINAL="64" NAME="??0QByteArray@@QAE@H@Z" PURGE="4" COMMENT="" />
    <EXPORT ORDINAL="65" NAME="??0QByteArray@@QAE@HD@Z" PURGE="8" COMMENT="" />
    <EXPORT ORDINAL="66" NAME="??0QByteArray@@QAE@HW4Initialization@Qt@@@Z" PURGE="8" COMMENT="" />
    <EXPORT ORDINAL="67" NAME="??0QByteArray@@QAE@PBD@Z" PURGE="4" COMMENT="" />
    <EXPORT ORDINAL="68" NAME="??0QByteArray@@QAE@PBDH@Z" PURGE="8" COMMENT="" />
    <EXPORT ORDINAL="69" NAME="??0QByteArray@@QAE@XZ" PURGE="0" COMMENT="" />
    <EXPORT ORDINAL="70" NAME="??0QByteArrayMatcher@@QAE@ABV0@@Z" PURGE="4" COMMENT="" />
    <EXPORT ORDINAL="71" NAME="??0QByteArrayMatcher@@QAE@ABVQByteArray@@@Z" PURGE="4" COMMENT="" />
    <EXPORT ORDINAL="72" NAME="??0QByteArrayMatcher@@QAE@PBDH@Z" PURGE="8" COMMENT="" />
    <EXPORT ORDINAL="73" NAME="??0QByteArrayMatcher@@QAE@XZ" PURGE="0" COMMENT="" />
    <EXPORT ORDINAL="74" NAME="??0QByteRef@@AAE@AAVQByteArray@@H@Z" PURGE="8" COMMENT="" />
    <EXPORT ORDINAL="75" NAME="??0QChar@@QAE@D@Z" PURGE="4" COMMENT="" />
    <EXPORT ORDINAL="76" NAME="??0QChar@@QAE@E@Z" PURGE="4" COMMENT="" />
    <EXPORT ORDINAL="77" NAME="??0QChar@@QAE@EE@Z" PURGE="8" COMMENT="" />
    <EXPORT ORDINAL="78" NAME="??0QChar@@QAE@F@Z" PURGE="4" COMMENT="" />
    <EXPORT ORDINAL="79" NAME="??0QChar@@QAE@G@Z" PURGE="4" COMMENT="" />
    <EXPORT ORDINAL="80" NAME="??0QChar@@QAE@H@Z" PURGE="4" COMMENT="" />
    <EXPORT ORDINAL="81" NAME="??0QChar@@QAE@I@Z" PURGE="4" COMMENT="" />
    <EXPORT ORDINAL="82" NAME="??0QChar@@QAE@UQLatin1Char@@@Z" PURGE="4" COMMENT="" />
    <EXPORT ORDINAL="83" NAME="??0QChar@@QAE@W4SpecialCharacter@0@@Z" PURGE="4" COMMENT="" />
    <EXPORT ORDINAL="84" NAME="??0QChar@@QAE@XZ" PURGE="0" COMMENT="" />
    <EXPORT ORDINAL="85" NAME="??0QCharRef@@AAE@AAVQString@@H@Z" PURGE="8" COMMENT="" />
    <EXPORT ORDINAL="86" NAME="??0QChildEvent@@QAE@ABV0@@Z" PURGE="4" COMMENT="" />
    <EXPORT ORDINAL="87" NAME="??0QChildEvent@@QAE@W4Type@QEvent@@PAVQObject@@@Z" PURGE="8" COMMENT="" />
    <EXPORT ORDINAL="88" NAME="??0QCoreApplication@@IAE@AAVQCoreApplicationPrivate@@@Z" PURGE="4" COMMENT="" />
    <EXPORT ORDINAL="89" NAME="??0QCoreApplication@@QAE@AAHPAPAD@Z" PURGE="8" COMMENT="" />
    <EXPORT ORDINAL="90" NAME="??0QCoreApplication@@QAE@AAHPAPADH@Z" PURGE="12" COMMENT="" />
    <EXPORT ORDINAL="91" NAME="??0QCoreApplicationPrivate@@QAE@AAHPAPADI@Z" PURGE="12" COMMENT="" />
    <EXPORT ORDINAL="92" NAME="??0QCoreApplicationPrivate@@QAE@ABV0@@Z" PURGE="4" COMMENT="" />
    <EXPORT ORDINAL="93" NAME="??0QCryptographicHash@@QAE@W4Algorithm@0@@Z" PURGE="4" COMMENT="" />
    <EXPORT ORDINAL="94" NAME="??0QCustomEvent@@QAE@ABV0@@Z" PURGE="4" COMMENT="" />
    <EXPORT ORDINAL="95" NAME="??0QCustomEvent@@QAE@HPAX@Z" PURGE="8" COMMENT="" />
    <EXPORT ORDINAL="96" NAME="??0QDataStream@@QAE@ABVQByteArray@@@Z" PURGE="4" COMMENT="" />
    <EXPORT ORDINAL="97" NAME="??0QDataStream@@QAE@PAVQByteArray@@H@Z" PURGE="8" COMMENT="" />
    <EXPORT ORDINAL="98" NAME="??0QDataStream@@QAE@PAVQByteArray@@V?$QFlags@W4OpenModeFlag@QIODevice@@@@@Z" PURGE="8" COMMENT="" />
    <EXPORT ORDINAL="99" NAME="??0QDataStream@@QAE@PAVQIODevice@@@Z" PURGE="4" COMMENT="" />
    <EXPORT ORDINAL="100" NAME="??0QDataStream@@QAE@XZ" PURGE="0" COMMENT="" />
    <EXPORT ORDINAL="101" NAME="??0QDate@@QAE@HHH@Z" PURGE="12" COMMENT="" />
    <EXPORT ORDINAL="102" NAME="??0QDate@@QAE@XZ" PURGE="0" COMMENT="" />
    <EXPORT ORDINAL="103" NAME="??0QDateTime@@QAE@ABV0@@Z" PURGE="4" COMMENT="" />
    <EXPORT ORDINAL="104" NAME="??0QDateTime@@QAE@ABVQDate@@@Z" PURGE="4" COMMENT="" />
    <EXPORT ORDINAL="105" NAME="??0QDateTime@@QAE@ABVQDate@@ABVQTime@@W4TimeSpec@Qt@@@Z" PURGE="12" COMMENT="" />
    <EXPORT ORDINAL="106" NAME="??0QDateTime@@QAE@XZ" PURGE="0" COMMENT="" />
    <EXPORT ORDINAL="107" NAME="??0QDateTimeParser@@QAE@ABV0@@Z" PURGE="4" COMMENT="" />
    <EXPORT ORDINAL="108" NAME="??0QDateTimeParser@@QAE@W4Type@QVariant@@W4Context@0@@Z" PURGE="8" COMMENT="" />
    <EXPORT ORDINAL="109" NAME="??0QDebug@@QAE@ABV0@@Z" PURGE="4" COMMENT="" />
    <EXPORT ORDINAL="110" NAME="??0QDebug@@QAE@PAVQIODevice@@@Z" PURGE="4" COMMENT="" />
    <EXPORT ORDINAL="111" NAME="??0QDebug@@QAE@PAVQString@@@Z" PURGE="4" COMMENT="" />
    <EXPORT ORDINAL="112" NAME="??0QDebug@@QAE@W4QtMsgType@@@Z" PURGE="4" COMMENT="" />
    <EXPORT ORDINAL="113" NAME="??0QDir@@QAE@ABV0@@Z" PURGE="4" COMMENT="" />
    <EXPORT ORDINAL="114" NAME="??0QDir@@QAE@ABVQString@@0V?$QFlags@W4SortFlag@QDir@@@@V?$QFlags@W4Filter@QDir@@@@@Z" PURGE="16" COMMENT="" />
    <EXPORT ORDINAL="115" NAME="??0QDir@@QAE@ABVQString@@@Z" PURGE="4" COMMENT="" />
    <EXPORT ORDINAL="116" NAME="??0QDirIterator@@QAE@ABVQDir@@V?$QFlags@W4IteratorFlag@QDirIterator@@@@@Z" PURGE="8" COMMENT="" />
    <EXPORT ORDINAL="117" NAME="??0QDirIterator@@QAE@ABVQString@@ABVQStringList@@V?$QFlags@W4Filter@QDir@@@@V?$QFlags@W4IteratorFlag@QDirIterator@@@@@Z" PURGE="16" COMMENT="" />
    <EXPORT ORDINAL="118" NAME="??0QDirIterator@@QAE@ABVQString@@V?$QFlags@W4Filter@QDir@@@@V?$QFlags@W4IteratorFlag@QDirIterator@@@@@Z" PURGE="12" COMMENT="" />
    <EXPORT ORDINAL="119" NAME="??0QDirIterator@@QAE@ABVQString@@V?$QFlags@W4IteratorFlag@QDirIterator@@@@@Z" PURGE="8" COMMENT="" />
    <EXPORT ORDINAL="120" NAME="??0QDynamicPropertyChangeEvent@@QAE@ABV0@@Z" PURGE="4" COMMENT="" />
    <EXPORT ORDINAL="121" NAME="??0QDynamicPropertyChangeEvent@@QAE@ABVQByteArray@@@Z" PURGE="4" COMMENT="" />
    <EXPORT ORDINAL="122" NAME="??0QEasingCurve@@QAE@ABV0@@Z" PURGE="4" COMMENT="" />
    <EXPORT ORDINAL="123" NAME="??0QEasingCurve@@QAE@W4Type@0@@Z" PURGE="4" COMMENT="" />
    <EXPORT ORDINAL="124" NAME="??0QEvent@@QAE@ABV0@@Z" PURGE="4" COMMENT="" />
    <EXPORT ORDINAL="125" NAME="??0QEvent@@QAE@W4Type@0@@Z" PURGE="4" COMMENT="" />
    <EXPORT ORDINAL="126" NAME="??0QEventDispatcherWin32@@QAE@PAVQObject@@@Z" PURGE="4" COMMENT="" />
    <EXPORT ORDINAL="127" NAME="??0QEventLoop@@QAE@PAVQObject@@@Z" PURGE="4" COMMENT="" />
    <EXPORT ORDINAL="128" NAME="??0QEventTransition@@IAE@AAVQEventTransitionPrivate@@PAVQObject@@W4Type@QEvent@@PAVQState@@@Z" PURGE="16" COMMENT="" />
    <EXPORT ORDINAL="129" NAME="??0QEventTransition@@IAE@AAVQEventTransitionPrivate@@PAVQState@@@Z" PURGE="8" COMMENT="" />
    <EXPORT ORDINAL="130" NAME="??0QEventTransition@@QAE@PAVQObject@@W4Type@QEvent@@PAVQState@@@Z" PURGE="12" COMMENT="" />
    <EXPORT ORDINAL="131" NAME="??0QEventTransition@@QAE@PAVQState@@@Z" PURGE="4" COMMENT="" />
    <EXPORT ORDINAL="132" NAME="??0QEventTransitionPrivate@@QAE@ABV0@@Z" PURGE="4" COMMENT="" />
    <EXPORT ORDINAL="133" NAME="??0QEventTransitionPrivate@@QAE@XZ" PURGE="0" COMMENT="" />
    <EXPORT ORDINAL="134" NAME="??0QFSFileEngine@@IAE@AAVQFSFileEnginePrivate@@@Z" PURGE="4" COMMENT="" />
    <EXPORT ORDINAL="135" NAME="??0QFSFileEngine@@QAE@ABVQString@@@Z" PURGE="4" COMMENT="" />
    <EXPORT ORDINAL="136" NAME="??0QFSFileEngine@@QAE@XZ" PURGE="0" COMMENT="" />
    <EXPORT ORDINAL="137" NAME="??0QFactoryInterface@@QAE@ABU0@@Z" PURGE="4" COMMENT="" />
    <EXPORT ORDINAL="138" NAME="??0QFactoryInterface@@QAE@XZ" PURGE="0" COMMENT="" />
    <EXPORT ORDINAL="139" NAME="??0QFactoryLoader@@QAE@PBDABVQString@@W4CaseSensitivity@Qt@@@Z" PURGE="12" COMMENT="" />
    <EXPORT ORDINAL="140" NAME="??0QFile@@IAE@AAVQFilePrivate@@PAVQObject@@@Z" PURGE="8" COMMENT="" />
    <EXPORT ORDINAL="141" NAME="??0QFile@@QAE@ABVQString@@@Z" PURGE="4" COMMENT="" />
    <EXPORT ORDINAL="142" NAME="??0QFile@@QAE@ABVQString@@PAVQObject@@@Z" PURGE="8" COMMENT="" />
    <EXPORT ORDINAL="143" NAME="??0QFile@@QAE@PAVQObject@@@Z" PURGE="4" COMMENT="" />
    <EXPORT ORDINAL="144" NAME="??0QFile@@QAE@XZ" PURGE="0" COMMENT="" />
    <EXPORT ORDINAL="145" NAME="??0QFileInfo@@QAE@ABV0@@Z" PURGE="4" COMMENT="" />
    <EXPORT ORDINAL="146" NAME="??0QFileInfo@@QAE@ABVQDir@@ABVQString@@@Z" PURGE="8" COMMENT="" />
    <EXPORT ORDINAL="147" NAME="??0QFileInfo@@QAE@ABVQFile@@@Z" PURGE="4" COMMENT="" />
    <EXPORT ORDINAL="148" NAME="??0QFileInfo@@QAE@ABVQString@@@Z" PURGE="4" COMMENT="" />
    <EXPORT ORDINAL="149" NAME="??0QFileInfo@@QAE@PAVQFileInfoPrivate@@@Z" PURGE="4" COMMENT="" />
    <EXPORT ORDINAL="150" NAME="??0QFileInfo@@QAE@XZ" PURGE="0" COMMENT="" />
    <EXPORT ORDINAL="151" NAME="??0QFileSystemWatcher@@QAE@ABVQStringList@@PAVQObject@@@Z" PURGE="8" COMMENT="" />
    <EXPORT ORDINAL="152" NAME="??0QFileSystemWatcher@@QAE@PAVQObject@@@Z" PURGE="4" COMMENT="" />
    <EXPORT ORDINAL="153" NAME="??0QFinalState@@QAE@PAVQState@@@Z" PURGE="4" COMMENT="" />
    <EXPORT ORDINAL="154" NAME="??0QFlag@@QAE@H@Z" PURGE="4" COMMENT="" />
    <EXPORT ORDINAL="155" NAME="??0QFutureInterfaceBase@@QAE@ABV0@@Z" PURGE="4" COMMENT="" />
    <EXPORT ORDINAL="156" NAME="??0QFutureInterfaceBase@@QAE@W4State@0@@Z" PURGE="4" COMMENT="" />
    <EXPORT ORDINAL="157" NAME="??0QFutureWatcherBase@@QAE@PAVQObject@@@Z" PURGE="4" COMMENT="" />
    <EXPORT ORDINAL="158" NAME="??0QGenericArgument@@QAE@PBDPBX@Z" PURGE="8" COMMENT="" />
    <EXPORT ORDINAL="159" NAME="??0QGenericReturnArgument@@QAE@PBDPAX@Z" PURGE="8" COMMENT="" />
    <EXPORT ORDINAL="160" NAME="??0QHistoryState@@QAE@PAVQState@@@Z" PURGE="4" COMMENT="" />
    <EXPORT ORDINAL="161" NAME="??0QHistoryState@@QAE@W4HistoryType@0@PAVQState@@@Z" PURGE="8" COMMENT="" />
    <EXPORT ORDINAL="162" NAME="??0QIODevice@@IAE@AAVQIODevicePrivate@@PAVQObject@@@Z" PURGE="8" COMMENT="" />
    <EXPORT ORDINAL="163" NAME="??0QIODevice@@QAE@PAVQObject@@@Z" PURGE="4" COMMENT="" />
    <EXPORT ORDINAL="164" NAME="??0QIODevice@@QAE@XZ" PURGE="0" COMMENT="" />
    <EXPORT ORDINAL="165" NAME="??0QIODevicePrivate@@QAE@ABV0@@Z" PURGE="4" COMMENT="" />
    <EXPORT ORDINAL="166" NAME="??0QIODevicePrivate@@QAE@XZ" PURGE="0" COMMENT="" />
    <EXPORT ORDINAL="167" NAME="??0QIncompatibleFlag@@QAE@H@Z" PURGE="4" COMMENT="" />
    <EXPORT ORDINAL="168" NAME="??0QLatin1String@@QAE@PBD@Z" PURGE="4" COMMENT="" />
    <EXPORT ORDINAL="169" NAME="??0QLibrary@@QAE@ABVQString@@0PAVQObject@@@Z" PURGE="12" COMMENT="" />
    <EXPORT ORDINAL="170" NAME="??0QLibrary@@QAE@ABVQString@@HPAVQObject@@@Z" PURGE="12" COMMENT="" />
    <EXPORT ORDINAL="171" NAME="??0QLibrary@@QAE@ABVQString@@PAVQObject@@@Z" PURGE="8" COMMENT="" />
    <EXPORT ORDINAL="172" NAME="??0QLibrary@@QAE@PAVQObject@@@Z" PURGE="4" COMMENT="" />
    <EXPORT ORDINAL="173" NAME="??0QLibraryInfo@@AAE@XZ" PURGE="0" COMMENT="" />
    <EXPORT ORDINAL="174" NAME="??0QLine@@QAE@ABVQPoint@@0@Z" PURGE="8" COMMENT="" />
    <EXPORT ORDINAL="175" NAME="??0QLine@@QAE@HHHH@Z" PURGE="16" COMMENT="" />
    <EXPORT ORDINAL="176" NAME="??0QLine@@QAE@XZ" PURGE="0" COMMENT="" />
    <EXPORT ORDINAL="177" NAME="??0QLineF@@QAE@ABVQLine@@@Z" PURGE="4" COMMENT="" />
    <EXPORT ORDINAL="178" NAME="??0QLineF@@QAE@ABVQPointF@@0@Z" PURGE="8" COMMENT="" />
    <EXPORT ORDINAL="179" NAME="??0QLineF@@QAE@NNNN@Z" PURGE="32" COMMENT="" />
    <EXPORT ORDINAL="180" NAME="??0QLineF@@QAE@XZ" PURGE="0" COMMENT="" />
    <EXPORT ORDINAL="181" NAME="??0QLocale@@QAE@ABV0@@Z" PURGE="4" COMMENT="" />
    <EXPORT ORDINAL="182" NAME="??0QLocale@@QAE@ABVQString@@@Z" PURGE="4" COMMENT="" />
    <EXPORT ORDINAL="183" NAME="??0QLocale@@QAE@W4Language@0@W4Country@0@@Z" PURGE="8" COMMENT="" />
    <EXPORT ORDINAL="184" NAME="??0QLocale@@QAE@W4Language@0@W4Script@0@W4Country@0@@Z" PURGE="12" COMMENT="" />
    <EXPORT ORDINAL="185" NAME="??0QLocale@@QAE@XZ" PURGE="0" COMMENT="" />
    <EXPORT ORDINAL="186" NAME="??0QMetaCallEvent@@QAE@ABV0@@Z" PURGE="4" COMMENT="" />
    <EXPORT ORDINAL="187" NAME="??0QMetaCallEvent@@QAE@GGP6AXPAVQObject@@W4Call@QMetaObject@@HPAPAX@ZPBV1@HHPAH2PAVQSemaphore@@@Z" PURGE="36" COMMENT="" />
    <EXPORT ORDINAL="188" NAME="??0QMetaClassInfo@@QAE@XZ" PURGE="0" COMMENT="" />
    <EXPORT ORDINAL="189" NAME="??0QMetaEnum@@QAE@XZ" PURGE="0" COMMENT="" />
    <EXPORT ORDINAL="190" NAME="??0QMetaMethod@@QAE@XZ" PURGE="0" COMMENT="" />
    <EXPORT ORDINAL="191" NAME="??0QMetaProperty@@QAE@XZ" PURGE="0" COMMENT="" />
    <EXPORT ORDINAL="192" NAME="??0QMimeData@@QAE@XZ" PURGE="0" COMMENT="" />
    <EXPORT ORDINAL="193" NAME="??0QModelIndex@@AAE@HHPAXPBVQAbstractItemModel@@@Z" PURGE="16" COMMENT="" />
    <EXPORT ORDINAL="194" NAME="??0QModelIndex@@QAE@ABV0@@Z" PURGE="4" COMMENT="" />
    <EXPORT ORDINAL="195" NAME="??0QModelIndex@@QAE@XZ" PURGE="0" COMMENT="" />
    <EXPORT ORDINAL="196" NAME="??0QMutex@@QAE@W4RecursionMode@0@@Z" PURGE="4" COMMENT="" />
    <EXPORT ORDINAL="197" NAME="??0QMutex@@QAE@_N@Z" PURGE="4" COMMENT="" />
    <EXPORT ORDINAL="198" NAME="??0QMutexLocker@@QAE@PAVQMutex@@@Z" PURGE="4" COMMENT="" />
    <EXPORT ORDINAL="199" NAME="??0QMutexPool@@QAE@ABV0@@Z" PURGE="4" COMMENT="" />
    <EXPORT ORDINAL="200" NAME="??0QMutexPool@@QAE@W4RecursionMode@QMutex@@H@Z" PURGE="8" COMMENT="" />
    <EXPORT ORDINAL="201" NAME="??0QNonContiguousByteDevice@@IAE@XZ" PURGE="0" COMMENT="" />
    <EXPORT ORDINAL="202" NAME="??0QObject@@IAE@AAVQObjectPrivate@@PAV0@@Z" PURGE="8" COMMENT="" />
    <EXPORT ORDINAL="203" NAME="??0QObject@@QAE@PAV0@@Z" PURGE="4" COMMENT="" />
    <EXPORT ORDINAL="204" NAME="??0QObject@@QAE@PAV0@PBD@Z" PURGE="8" COMMENT="" />
    <EXPORT ORDINAL="205" NAME="??0QObjectCleanupHandler@@QAE@XZ" PURGE="0" COMMENT="" />
    <EXPORT ORDINAL="206" NAME="??0QObjectPrivate@@QAE@ABV0@@Z" PURGE="4" COMMENT="" />
    <EXPORT ORDINAL="207" NAME="??0QObjectPrivate@@QAE@H@Z" PURGE="4" COMMENT="" />
    <EXPORT ORDINAL="208" NAME="??0QObjectUserData@@QAE@ABV0@@Z" PURGE="4" COMMENT="" />
    <EXPORT ORDINAL="209" NAME="??0QObjectUserData@@QAE@XZ" PURGE="0" COMMENT="" />
    <EXPORT ORDINAL="210" NAME="??0QParallelAnimationGroup@@IAE@AAVQParallelAnimationGroupPrivate@@PAVQObject@@@Z" PURGE="8" COMMENT="" />
    <EXPORT ORDINAL="211" NAME="??0QParallelAnimationGroup@@QAE@PAVQObject@@@Z" PURGE="4" COMMENT="" />
    <EXPORT ORDINAL="212" NAME="??0QPauseAnimation@@QAE@HPAVQObject@@@Z" PURGE="8" COMMENT="" />
    <EXPORT ORDINAL="213" NAME="??0QPauseAnimation@@QAE@PAVQObject@@@Z" PURGE="4" COMMENT="" />
    <EXPORT ORDINAL="214" NAME="??0QPersistentModelIndex@@QAE@ABV0@@Z" PURGE="4" COMMENT="" />
    <EXPORT ORDINAL="215" NAME="??0QPersistentModelIndex@@QAE@ABVQModelIndex@@@Z" PURGE="4" COMMENT="" />
    <EXPORT ORDINAL="216" NAME="??0QPersistentModelIndex@@QAE@XZ" PURGE="0" COMMENT="" />
    <EXPORT ORDINAL="217" NAME="??0QPluginLoader@@QAE@ABVQString@@PAVQObject@@@Z" PURGE="8" COMMENT="" />
    <EXPORT ORDINAL="218" NAME="??0QPluginLoader@@QAE@PAVQObject@@@Z" PURGE="4" COMMENT="" />
    <EXPORT ORDINAL="219" NAME="??0QPoint@@QAE@HH@Z" PURGE="8" COMMENT="" />
    <EXPORT ORDINAL="220" NAME="??0QPoint@@QAE@XZ" PURGE="0" COMMENT="" />
    <EXPORT ORDINAL="221" NAME="??0QPointF@@QAE@ABVQPoint@@@Z" PURGE="4" COMMENT="" />
    <EXPORT ORDINAL="222" NAME="??0QPointF@@QAE@NN@Z" PURGE="16" COMMENT="" />
    <EXPORT ORDINAL="223" NAME="??0QPointF@@QAE@XZ" PURGE="0" COMMENT="" />
    <EXPORT ORDINAL="224" NAME="??0QProcess@@QAE@PAVQObject@@@Z" PURGE="4" COMMENT="" />
    <EXPORT ORDINAL="225" NAME="??0QProcessEnvironment@@QAE@ABV0@@Z" PURGE="4" COMMENT="" />
    <EXPORT ORDINAL="226" NAME="??0QProcessEnvironment@@QAE@XZ" PURGE="0" COMMENT="" />
    <EXPORT ORDINAL="227" NAME="??0QPropertyAnimation@@QAE@PAVQObject@@@Z" PURGE="4" COMMENT="" />
    <EXPORT ORDINAL="228" NAME="??0QPropertyAnimation@@QAE@PAVQObject@@ABVQByteArray@@0@Z" PURGE="12" COMMENT="" />
    <EXPORT ORDINAL="229" NAME="??0QReadLocker@@QAE@PAVQReadWriteLock@@@Z" PURGE="4" COMMENT="" />
    <EXPORT ORDINAL="230" NAME="??0QReadWriteLock@@QAE@W4RecursionMode@0@@Z" PURGE="4" COMMENT="" />
    <EXPORT ORDINAL="231" NAME="??0QReadWriteLock@@QAE@XZ" PURGE="0" COMMENT="" />
    <EXPORT ORDINAL="232" NAME="??0QRect@@QAE@ABVQPoint@@0@Z" PURGE="8" COMMENT="" />
    <EXPORT ORDINAL="233" NAME="??0QRect@@QAE@ABVQPoint@@ABVQSize@@@Z" PURGE="8" COMMENT="" />
    <EXPORT ORDINAL="234" NAME="??0QRect@@QAE@HHHH@Z" PURGE="16" COMMENT="" />
    <EXPORT ORDINAL="235" NAME="??0QRect@@QAE@XZ" PURGE="0" COMMENT="" />
    <EXPORT ORDINAL="236" NAME="??0QRectF@@QAE@ABVQPointF@@0@Z" PURGE="8" COMMENT="" />
    <EXPORT ORDINAL="237" NAME="??0QRectF@@QAE@ABVQPointF@@ABVQSizeF@@@Z" PURGE="8" COMMENT="" />
    <EXPORT ORDINAL="238" NAME="??0QRectF@@QAE@ABVQRect@@@Z" PURGE="4" COMMENT="" />
    <EXPORT ORDINAL="239" NAME="??0QRectF@@QAE@NNNN@Z" PURGE="32" COMMENT="" />
    <EXPORT ORDINAL="240" NAME="??0QRectF@@QAE@XZ" PURGE="0" COMMENT="" />
    <EXPORT ORDINAL="241" NAME="??0QRegExp@@QAE@ABV0@@Z" PURGE="4" COMMENT="" />
    <EXPORT ORDINAL="242" NAME="??0QRegExp@@QAE@ABVQString@@W4CaseSensitivity@Qt@@W4PatternSyntax@0@@Z" PURGE="12" COMMENT="" />
    <EXPORT ORDINAL="243" NAME="??0QRegExp@@QAE@ABVQString@@_N1@Z" PURGE="12" COMMENT="" />
    <EXPORT ORDINAL="244" NAME="??0QRegExp@@QAE@XZ" PURGE="0" COMMENT="" />
    <EXPORT ORDINAL="245" NAME="??0QResource@@QAE@ABVQString@@ABVQLocale@@@Z" PURGE="8" COMMENT="" />
    <EXPORT ORDINAL="246" NAME="??0QSemaphore@@QAE@H@Z" PURGE="4" COMMENT="" />
    <EXPORT ORDINAL="247" NAME="??0QSequentialAnimationGroup@@IAE@AAVQSequentialAnimationGroupPrivate@@PAVQObject@@@Z" PURGE="8" COMMENT="" />
    <EXPORT ORDINAL="248" NAME="??0QSequentialAnimationGroup@@QAE@PAVQObject@@@Z" PURGE="4" COMMENT="" />
    <EXPORT ORDINAL="249" NAME="??0QSettings@@QAE@ABVQString@@0PAVQObject@@@Z" PURGE="12" COMMENT="" />
    <EXPORT ORDINAL="250" NAME="??0QSettings@@QAE@ABVQString@@W4Format@0@PAVQObject@@@Z" PURGE="12" COMMENT="" />
    <EXPORT ORDINAL="251" NAME="??0QSettings@@QAE@PAVQObject@@@Z" PURGE="4" COMMENT="" />
    <EXPORT ORDINAL="252" NAME="??0QSettings@@QAE@W4Format@0@W4Scope@0@ABVQString@@2PAVQObject@@@Z" PURGE="20" COMMENT="" />
    <EXPORT ORDINAL="253" NAME="??0QSettings@@QAE@W4Scope@0@ABVQString@@1PAVQObject@@@Z" PURGE="16" COMMENT="" />
    <EXPORT ORDINAL="254" NAME="??0QSharedData@@QAE@ABV0@@Z" PURGE="4" COMMENT="" />
    <EXPORT ORDINAL="255" NAME="??0QSharedData@@QAE@XZ" PURGE="0" COMMENT="" />
    <EXPORT ORDINAL="256" NAME="??0QSharedMemory@@QAE@ABVQString@@PAVQObject@@@Z" PURGE="8" COMMENT="" />
    <EXPORT ORDINAL="257" NAME="??0QSharedMemory@@QAE@PAVQObject@@@Z" PURGE="4" COMMENT="" />
    <EXPORT ORDINAL="258" NAME="??0QSignalMapper@@QAE@PAVQObject@@@Z" PURGE="4" COMMENT="" />
    <EXPORT ORDINAL="259" NAME="??0QSignalMapper@@QAE@PAVQObject@@PBD@Z" PURGE="8" COMMENT="" />
    <EXPORT ORDINAL="260" NAME="??0QSignalTransition@@QAE@PAVQObject@@PBDPAVQState@@@Z" PURGE="12" COMMENT="" />
    <EXPORT ORDINAL="261" NAME="??0QSignalTransition@@QAE@PAVQState@@@Z" PURGE="4" COMMENT="" />
    <EXPORT ORDINAL="262" NAME="??0QSize@@QAE@HH@Z" PURGE="8" COMMENT="" />
    <EXPORT ORDINAL="263" NAME="??0QSize@@QAE@XZ" PURGE="0" COMMENT="" />
    <EXPORT ORDINAL="264" NAME="??0QSizeF@@QAE@ABVQSize@@@Z" PURGE="4" COMMENT="" />
    <EXPORT ORDINAL="265" NAME="??0QSizeF@@QAE@NN@Z" PURGE="16" COMMENT="" />
    <EXPORT ORDINAL="266" NAME="??0QSizeF@@QAE@XZ" PURGE="0" COMMENT="" />
    <EXPORT ORDINAL="267" NAME="??0QSocketNotifier@@QAE@HW4Type@0@PAVQObject@@@Z" PURGE="12" COMMENT="" />
    <EXPORT ORDINAL="268" NAME="??0QSocketNotifier@@QAE@HW4Type@0@PAVQObject@@PBD@Z" PURGE="16" COMMENT="" />
    <EXPORT ORDINAL="269" NAME="??0QState@@IAE@AAVQStatePrivate@@PAV0@@Z" PURGE="8" COMMENT="" />
    <EXPORT ORDINAL="270" NAME="??0QState@@QAE@PAV0@@Z" PURGE="4" COMMENT="" />
    <EXPORT ORDINAL="271" NAME="??0QState@@QAE@W4ChildMode@0@PAV0@@Z" PURGE="8" COMMENT="" />
    <EXPORT ORDINAL="272" NAME="??0QStateMachine@@IAE@AAVQStateMachinePrivate@@PAVQObject@@@Z" PURGE="8" COMMENT="" />
    <EXPORT ORDINAL="273" NAME="??0QStateMachine@@QAE@PAVQObject@@@Z" PURGE="4" COMMENT="" />
    <EXPORT ORDINAL="274" NAME="??0QStateMachinePrivate@@QAE@XZ" PURGE="0" COMMENT="" />
    <EXPORT ORDINAL="275" NAME="??0QString@@AAE@PAUData@0@H@Z" PURGE="8" COMMENT="" />
    <EXPORT ORDINAL="276" NAME="??0QString@@QAE@ABUNull@0@@Z" PURGE="4" COMMENT="" />
    <EXPORT ORDINAL="277" NAME="??0QString@@QAE@ABV0@@Z" PURGE="4" COMMENT="" />
    <EXPORT ORDINAL="278" NAME="??0QString@@QAE@ABVQByteArray@@@Z" PURGE="4" COMMENT="" />
    <EXPORT ORDINAL="279" NAME="??0QString@@QAE@ABVQLatin1String@@@Z" PURGE="4" COMMENT="" />
    <EXPORT ORDINAL="280" NAME="??0QString@@QAE@HVQChar@@@Z" PURGE="8" COMMENT="" />
    <EXPORT ORDINAL="281" NAME="??0QString@@QAE@HW4Initialization@Qt@@@Z" PURGE="8" COMMENT="" />
    <EXPORT ORDINAL="282" NAME="??0QString@@QAE@PBD@Z" PURGE="4" COMMENT="" />
    <EXPORT ORDINAL="283" NAME="??0QString@@QAE@PBVQChar@@@Z" PURGE="4" COMMENT="" />
    <EXPORT ORDINAL="284" NAME="??0QString@@QAE@PBVQChar@@H@Z" PURGE="8" COMMENT="" />
    <EXPORT ORDINAL="285" NAME="??0QString@@QAE@VQChar@@@Z" PURGE="4" COMMENT="" />
    <EXPORT ORDINAL="286" NAME="??0QString@@QAE@XZ" PURGE="0" COMMENT="" />
    <EXPORT ORDINAL="287" NAME="??0QStringMatcher@@QAE@ABV0@@Z" PURGE="4" COMMENT="" />
    <EXPORT ORDINAL="288" NAME="??0QStringMatcher@@QAE@ABVQString@@W4CaseSensitivity@Qt@@@Z" PURGE="8" COMMENT="" />
    <EXPORT ORDINAL="289" NAME="??0QStringMatcher@@QAE@PBVQChar@@HW4CaseSensitivity@Qt@@@Z" PURGE="12" COMMENT="" />
    <EXPORT ORDINAL="290" NAME="??0QStringMatcher@@QAE@XZ" PURGE="0" COMMENT="" />
    <EXPORT ORDINAL="291" NAME="??0QStringRef@@QAE@ABV0@@Z" PURGE="4" COMMENT="" />
    <EXPORT ORDINAL="292" NAME="??0QStringRef@@QAE@PBVQString@@@Z" PURGE="4" COMMENT="" />
    <EXPORT ORDINAL="293" NAME="??0QStringRef@@QAE@PBVQString@@HH@Z" PURGE="12" COMMENT="" />
    <EXPORT ORDINAL="294" NAME="??0QStringRef@@QAE@XZ" PURGE="0" COMMENT="" />
    <EXPORT ORDINAL="295" NAME="??0QSystemError@@QAE@HW4ErrorScope@0@@Z" PURGE="8" COMMENT="" />
    <EXPORT ORDINAL="296" NAME="??0QSystemError@@QAE@XZ" PURGE="0" COMMENT="" />
    <EXPORT ORDINAL="297" NAME="??0QSystemLocale@@AAE@_N@Z" PURGE="4" COMMENT="" />
    <EXPORT ORDINAL="298" NAME="??0QSystemLocale@@QAE@ABV0@@Z" PURGE="4" COMMENT="" />
    <EXPORT ORDINAL="299" NAME="??0QSystemLocale@@QAE@XZ" PURGE="0" COMMENT="" />
    <EXPORT ORDINAL="300" NAME="??0QSystemSemaphore@@QAE@ABVQString@@HW4AccessMode@0@@Z" PURGE="12" COMMENT="" />
    <EXPORT ORDINAL="301" NAME="??0QTemporaryFile@@QAE@ABVQString@@@Z" PURGE="4" COMMENT="" />
    <EXPORT ORDINAL="302" NAME="??0QTemporaryFile@@QAE@ABVQString@@PAVQObject@@@Z" PURGE="8" COMMENT="" />
    <EXPORT ORDINAL="303" NAME="??0QTemporaryFile@@QAE@PAVQObject@@@Z" PURGE="4" COMMENT="" />
    <EXPORT ORDINAL="304" NAME="??0QTemporaryFile@@QAE@XZ" PURGE="0" COMMENT="" />
    <EXPORT ORDINAL="305" NAME="??0QTextBoundaryFinder@@QAE@ABV0@@Z" PURGE="4" COMMENT="" />
    <EXPORT ORDINAL="306" NAME="??0QTextBoundaryFinder@@QAE@W4BoundaryType@0@ABVQString@@@Z" PURGE="8" COMMENT="" />
    <EXPORT ORDINAL="307" NAME="??0QTextBoundaryFinder@@QAE@W4BoundaryType@0@PBVQChar@@HPAEH@Z" PURGE="20" COMMENT="" />
    <EXPORT ORDINAL="308" NAME="??0QTextBoundaryFinder@@QAE@XZ" PURGE="0" COMMENT="" />
    <EXPORT ORDINAL="309" NAME="??0QTextCodec@@IAE@XZ" PURGE="0" COMMENT="" />
    <EXPORT ORDINAL="310" NAME="??0QTextCodecFactoryInterface@@QAE@ABU0@@Z" PURGE="4" COMMENT="" />
    <EXPORT ORDINAL="311" NAME="??0QTextCodecFactoryInterface@@QAE@XZ" PURGE="0" COMMENT="" />
    <EXPORT ORDINAL="312" NAME="??0QTextCodecPlugin@@QAE@PAVQObject@@@Z" PURGE="4" COMMENT="" />
    <EXPORT ORDINAL="313" NAME="??0QTextDecoder@@QAE@PBVQTextCodec@@@Z" PURGE="4" COMMENT="" />
    <EXPORT ORDINAL="314" NAME="??0QTextDecoder@@QAE@PBVQTextCodec@@V?$QFlags@W4ConversionFlag@QTextCodec@@@@@Z" PURGE="8" COMMENT="" />
    <EXPORT ORDINAL="315" NAME="??0QTextEncoder@@QAE@PBVQTextCodec@@@Z" PURGE="4" COMMENT="" />
    <EXPORT ORDINAL="316" NAME="??0QTextEncoder@@QAE@PBVQTextCodec@@V?$QFlags@W4ConversionFlag@QTextCodec@@@@@Z" PURGE="8" COMMENT="" />
    <EXPORT ORDINAL="317" NAME="??0QTextIStream@@QAE@PAU_iobuf@@@Z" PURGE="4" COMMENT="" />
    <EXPORT ORDINAL="318" NAME="??0QTextIStream@@QAE@PAVQByteArray@@@Z" PURGE="4" COMMENT="" />
    <EXPORT ORDINAL="319" NAME="??0QTextIStream@@QAE@PBVQString@@@Z" PURGE="4" COMMENT="" />
    <EXPORT ORDINAL="320" NAME="??0QTextOStream@@QAE@PAU_iobuf@@@Z" PURGE="4" COMMENT="" />
    <EXPORT ORDINAL="321" NAME="??0QTextOStream@@QAE@PAVQByteArray@@@Z" PURGE="4" COMMENT="" />
    <EXPORT ORDINAL="322" NAME="??0QTextOStream@@QAE@PAVQString@@@Z" PURGE="4" COMMENT="" />
    <EXPORT ORDINAL="323" NAME="??0QTextStream@@QAE@ABVQByteArray@@V?$QFlags@W4OpenModeFlag@QIODevice@@@@@Z" PURGE="8" COMMENT="" />
    <EXPORT ORDINAL="324" NAME="??0QTextStream@@QAE@PAU_iobuf@@V?$QFlags@W4OpenModeFlag@QIODevice@@@@@Z" PURGE="8" COMMENT="" />
    <EXPORT ORDINAL="325" NAME="??0QTextStream@@QAE@PAVQByteArray@@V?$QFlags@W4OpenModeFlag@QIODevice@@@@@Z" PURGE="8" COMMENT="" />
    <EXPORT ORDINAL="326" NAME="??0QTextStream@@QAE@PAVQIODevice@@@Z" PURGE="4" COMMENT="" />
    <EXPORT ORDINAL="327" NAME="??0QTextStream@@QAE@PAVQString@@V?$QFlags@W4OpenModeFlag@QIODevice@@@@@Z" PURGE="8" COMMENT="" />
    <EXPORT ORDINAL="328" NAME="??0QTextStream@@QAE@XZ" PURGE="0" COMMENT="" />
    <EXPORT ORDINAL="329" NAME="??0QTextStreamManipulator@@QAE@P8QTextStream@@AEXH@ZH@Z" PURGE="8" COMMENT="" />
    <EXPORT ORDINAL="330" NAME="??0QTextStreamManipulator@@QAE@P8QTextStream@@AEXVQChar@@@Z0@Z" PURGE="8" COMMENT="" />
    <EXPORT ORDINAL="331" NAME="??0QThread@@IAE@AAVQThreadPrivate@@PAVQObject@@@Z" PURGE="8" COMMENT="" />
    <EXPORT ORDINAL="332" NAME="??0QThread@@QAE@PAVQObject@@@Z" PURGE="4" COMMENT="" />
    <EXPORT ORDINAL="333" NAME="??0QThreadPool@@QAE@PAVQObject@@@Z" PURGE="4" COMMENT="" />
    <EXPORT ORDINAL="334" NAME="??0QThreadStorageData@@QAE@P6AXPAX@Z@Z" PURGE="4" COMMENT="" />
    <EXPORT ORDINAL="335" NAME="??0QTime@@QAE@HHHH@Z" PURGE="16" COMMENT="" />
    <EXPORT ORDINAL="336" NAME="??0QTime@@QAE@XZ" PURGE="0" COMMENT="" />
    <EXPORT ORDINAL="337" NAME="??0QTimeLine@@QAE@HPAVQObject@@@Z" PURGE="8" COMMENT="" />
    <EXPORT ORDINAL="338" NAME="??0QTimer@@QAE@PAVQObject@@@Z" PURGE="4" COMMENT="" />
    <EXPORT ORDINAL="339" NAME="??0QTimer@@QAE@PAVQObject@@PBD@Z" PURGE="8" COMMENT="" />
    <EXPORT ORDINAL="340" NAME="??0QTimerEvent@@QAE@ABV0@@Z" PURGE="4" COMMENT="" />
    <EXPORT ORDINAL="341" NAME="??0QTimerEvent@@QAE@H@Z" PURGE="4" COMMENT="" />
    <EXPORT ORDINAL="342" NAME="??0QTranslator@@QAE@PAVQObject@@@Z" PURGE="4" COMMENT="" />
    <EXPORT ORDINAL="343" NAME="??0QTranslator@@QAE@PAVQObject@@PBD@Z" PURGE="8" COMMENT="" />
    <EXPORT ORDINAL="344" NAME="??0QUnifiedTimer@@AAE@XZ" PURGE="0" COMMENT="" />
    <EXPORT ORDINAL="345" NAME="??0QUrl@@QAE@ABV0@@Z" PURGE="4" COMMENT="" />
    <EXPORT ORDINAL="346" NAME="??0QUrl@@QAE@ABVQString@@@Z" PURGE="4" COMMENT="" />
    <EXPORT ORDINAL="347" NAME="??0QUrl@@QAE@ABVQString@@W4ParsingMode@0@@Z" PURGE="8" COMMENT="" />
    <EXPORT ORDINAL="348" NAME="??0QUrl@@QAE@XZ" PURGE="0" COMMENT="" />
    <EXPORT ORDINAL="349" NAME="??0QUuid@@QAE@ABU_GUID@@@Z" PURGE="4" COMMENT="" />
    <EXPORT ORDINAL="350" NAME="??0QUuid@@QAE@ABVQByteArray@@@Z" PURGE="4" COMMENT="" />
    <EXPORT ORDINAL="351" NAME="??0QUuid@@QAE@ABVQString@@@Z" PURGE="4" COMMENT="" />
    <EXPORT ORDINAL="352" NAME="??0QUuid@@QAE@IGGEEEEEEEE@Z" PURGE="44" COMMENT="" />
    <EXPORT ORDINAL="353" NAME="??0QUuid@@QAE@PBD@Z" PURGE="4" COMMENT="" />
    <EXPORT ORDINAL="354" NAME="??0QUuid@@QAE@XZ" PURGE="0" COMMENT="" />
    <EXPORT ORDINAL="355" NAME="??0QVariant@@AAE@PAX@Z" PURGE="4" COMMENT="" />
    <EXPORT ORDINAL="356" NAME="??0QVariant@@QAE@AAVQDataStream@@@Z" PURGE="4" COMMENT="" />
    <EXPORT ORDINAL="357" NAME="??0QVariant@@QAE@ABV0@@Z" PURGE="4" COMMENT="" />
    <EXPORT ORDINAL="358" NAME="??0QVariant@@QAE@ABV?$QHash@VQString@@VQVariant@@@@@Z" PURGE="4" COMMENT="" />
    <EXPORT ORDINAL="359" NAME="??0QVariant@@QAE@ABV?$QList@VQVariant@@@@@Z" PURGE="4" COMMENT="" />
    <EXPORT ORDINAL="360" NAME="??0QVariant@@QAE@ABV?$QMap@VQString@@VQVariant@@@@@Z" PURGE="4" COMMENT="" />
    <EXPORT ORDINAL="361" NAME="??0QVariant@@QAE@ABVQBitArray@@@Z" PURGE="4" COMMENT="" />
    <EXPORT ORDINAL="362" NAME="??0QVariant@@QAE@ABVQByteArray@@@Z" PURGE="4" COMMENT="" />
    <EXPORT ORDINAL="363" NAME="??0QVariant@@QAE@ABVQChar@@@Z" PURGE="4" COMMENT="" />
    <EXPORT ORDINAL="364" NAME="??0QVariant@@QAE@ABVQDate@@@Z" PURGE="4" COMMENT="" />
    <EXPORT ORDINAL="365" NAME="??0QVariant@@QAE@ABVQDateTime@@@Z" PURGE="4" COMMENT="" />
    <EXPORT ORDINAL="366" NAME="??0QVariant@@QAE@ABVQEasingCurve@@@Z" PURGE="4" COMMENT="" />
    <EXPORT ORDINAL="367" NAME="??0QVariant@@QAE@ABVQLatin1String@@@Z" PURGE="4" COMMENT="" />
    <EXPORT ORDINAL="368" NAME="??0QVariant@@QAE@ABVQLine@@@Z" PURGE="4" COMMENT="" />
    <EXPORT ORDINAL="369" NAME="??0QVariant@@QAE@ABVQLineF@@@Z" PURGE="4" COMMENT="" />
    <EXPORT ORDINAL="370" NAME="??0QVariant@@QAE@ABVQLocale@@@Z" PURGE="4" COMMENT="" />
    <EXPORT ORDINAL="371" NAME="??0QVariant@@QAE@ABVQPoint@@@Z" PURGE="4" COMMENT="" />
    <EXPORT ORDINAL="372" NAME="??0QVariant@@QAE@ABVQPointF@@@Z" PURGE="4" COMMENT="" />
    <EXPORT ORDINAL="373" NAME="??0QVariant@@QAE@ABVQRect@@@Z" PURGE="4" COMMENT="" />
    <EXPORT ORDINAL="374" NAME="??0QVariant@@QAE@ABVQRectF@@@Z" PURGE="4" COMMENT="" />
    <EXPORT ORDINAL="375" NAME="??0QVariant@@QAE@ABVQRegExp@@@Z" PURGE="4" COMMENT="" />
    <EXPORT ORDINAL="376" NAME="??0QVariant@@QAE@ABVQSize@@@Z" PURGE="4" COMMENT="" />
    <EXPORT ORDINAL="377" NAME="??0QVariant@@QAE@ABVQSizeF@@@Z" PURGE="4" COMMENT="" />
    <EXPORT ORDINAL="378" NAME="??0QVariant@@QAE@ABVQString@@@Z" PURGE="4" COMMENT="" />
    <EXPORT ORDINAL="379" NAME="??0QVariant@@QAE@ABVQStringList@@@Z" PURGE="4" COMMENT="" />
    <EXPORT ORDINAL="380" NAME="??0QVariant@@QAE@ABVQTime@@@Z" PURGE="4" COMMENT="" />
    <EXPORT ORDINAL="381" NAME="??0QVariant@@QAE@ABVQUrl@@@Z" PURGE="4" COMMENT="" />
    <EXPORT ORDINAL="382" NAME="??0QVariant@@QAE@H@Z" PURGE="4" COMMENT="" />
    <EXPORT ORDINAL="383" NAME="??0QVariant@@QAE@HPBX@Z" PURGE="8" COMMENT="" />
    <EXPORT ORDINAL="384" NAME="??0QVariant@@QAE@HPBXI@Z" PURGE="12" COMMENT="" />
    <EXPORT ORDINAL="385" NAME="??0QVariant@@QAE@I@Z" PURGE="4" COMMENT="" />
    <EXPORT ORDINAL="386" NAME="??0QVariant@@QAE@M@Z" PURGE="4" COMMENT="" />
    <EXPORT ORDINAL="387" NAME="??0QVariant@@QAE@N@Z" PURGE="8" COMMENT="" />
    <EXPORT ORDINAL="388" NAME="??0QVariant@@QAE@PBD@Z" PURGE="4" COMMENT="" />
    <EXPORT ORDINAL="389" NAME="??0QVariant@@QAE@W4GlobalColor@Qt@@@Z" PURGE="4" COMMENT="" />
    <EXPORT ORDINAL="390" NAME="??0QVariant@@QAE@W4Type@0@@Z" PURGE="4" COMMENT="" />
    <EXPORT ORDINAL="391" NAME="??0QVariant@@QAE@XZ" PURGE="0" COMMENT="" />
    <EXPORT ORDINAL="392" NAME="??0QVariant@@QAE@_J@Z" PURGE="8" COMMENT="" />
    <EXPORT ORDINAL="393" NAME="??0QVariant@@QAE@_K@Z" PURGE="8" COMMENT="" />
    <EXPORT ORDINAL="394" NAME="??0QVariant@@QAE@_N@Z" PURGE="4" COMMENT="" />
    <EXPORT ORDINAL="395" NAME="??0QVariant@@QAE@_NH@Z" PURGE="8" COMMENT="" />
    <EXPORT ORDINAL="396" NAME="??0QVariantAnimation@@IAE@AAVQVariantAnimationPrivate@@PAVQObject@@@Z" PURGE="8" COMMENT="" />
    <EXPORT ORDINAL="397" NAME="??0QVariantAnimation@@QAE@PAVQObject@@@Z" PURGE="4" COMMENT="" />
    <EXPORT ORDINAL="398" NAME="??0QWaitCondition@@QAE@XZ" PURGE="0" COMMENT="" />
    <EXPORT ORDINAL="399" NAME="??0QWinEventNotifier@@QAE@PAVQObject@@@Z" PURGE="4" COMMENT="" />
    <EXPORT ORDINAL="400" NAME="??0QWinEventNotifier@@QAE@PAXPAVQObject@@@Z" PURGE="8" COMMENT="" />
    <EXPORT ORDINAL="401" NAME="??0QWindowsPipeWriter@@QAE@PAXPAVQObject@@@Z" PURGE="8" COMMENT="" />
    <EXPORT ORDINAL="402" NAME="??0QWriteLocker@@QAE@PAVQReadWriteLock@@@Z" PURGE="4" COMMENT="" />
    <EXPORT ORDINAL="403" NAME="??0QXmlStreamAttribute@@QAE@ABV0@@Z" PURGE="4" COMMENT="" />
    <EXPORT ORDINAL="404" NAME="??0QXmlStreamAttribute@@QAE@ABVQString@@00@Z" PURGE="12" COMMENT="" />
    <EXPORT ORDINAL="405" NAME="??0QXmlStreamAttribute@@QAE@ABVQString@@0@Z" PURGE="8" COMMENT="" />
    <EXPORT ORDINAL="406" NAME="??0QXmlStreamAttribute@@QAE@XZ" PURGE="0" COMMENT="" />
    <EXPORT ORDINAL="407" NAME="??0QXmlStreamAttributes@@QAE@ABV0@@Z" PURGE="4" COMMENT="" />
    <EXPORT ORDINAL="408" NAME="??0QXmlStreamAttributes@@QAE@XZ" PURGE="0" COMMENT="" />
    <EXPORT ORDINAL="409" NAME="??0QXmlStreamEntityDeclaration@@QAE@ABV0@@Z" PURGE="4" COMMENT="" />
    <EXPORT ORDINAL="410" NAME="??0QXmlStreamEntityDeclaration@@QAE@XZ" PURGE="0" COMMENT="" />
    <EXPORT ORDINAL="411" NAME="??0QXmlStreamEntityResolver@@QAE@ABV0@@Z" PURGE="4" COMMENT="" />
    <EXPORT ORDINAL="412" NAME="??0QXmlStreamEntityResolver@@QAE@XZ" PURGE="0" COMMENT="" />
    <EXPORT ORDINAL="413" NAME="??0QXmlStreamNamespaceDeclaration@@QAE@ABV0@@Z" PURGE="4" COMMENT="" />
    <EXPORT ORDINAL="414" NAME="??0QXmlStreamNamespaceDeclaration@@QAE@ABVQString@@0@Z" PURGE="8" COMMENT="" />
    <EXPORT ORDINAL="415" NAME="??0QXmlStreamNamespaceDeclaration@@QAE@XZ" PURGE="0" COMMENT="" />
    <EXPORT ORDINAL="416" NAME="??0QXmlStreamNotationDeclaration@@QAE@ABV0@@Z" PURGE="4" COMMENT="" />
    <EXPORT ORDINAL="417" NAME="??0QXmlStreamNotationDeclaration@@QAE@XZ" PURGE="0" COMMENT="" />
    <EXPORT ORDINAL="418" NAME="??0QXmlStreamReader@@QAE@ABVQByteArray@@@Z" PURGE="4" COMMENT="" />
    <EXPORT ORDINAL="419" NAME="??0QXmlStreamReader@@QAE@ABVQString@@@Z" PURGE="4" COMMENT="" />
    <EXPORT ORDINAL="420" NAME="??0QXmlStreamReader@@QAE@PAVQIODevice@@@Z" PURGE="4" COMMENT="" />
    <EXPORT ORDINAL="421" NAME="??0QXmlStreamReader@@QAE@PBD@Z" PURGE="4" COMMENT="" />
    <EXPORT ORDINAL="422" NAME="??0QXmlStreamReader@@QAE@XZ" PURGE="0" COMMENT="" />
    <EXPORT ORDINAL="423" NAME="??0QXmlStreamStringRef@@QAE@ABV0@@Z" PURGE="4" COMMENT="" />
    <EXPORT ORDINAL="424" NAME="??0QXmlStreamStringRef@@QAE@ABVQString@@@Z" PURGE="4" COMMENT="" />
    <EXPORT ORDINAL="425" NAME="??0QXmlStreamStringRef@@QAE@ABVQStringRef@@@Z" PURGE="4" COMMENT="" />
    <EXPORT ORDINAL="426" NAME="??0QXmlStreamStringRef@@QAE@XZ" PURGE="0" COMMENT="" />
    <EXPORT ORDINAL="427" NAME="??0QXmlStreamWriter@@QAE@PAVQByteArray@@@Z" PURGE="4" COMMENT="" />
    <EXPORT ORDINAL="428" NAME="??0QXmlStreamWriter@@QAE@PAVQIODevice@@@Z" PURGE="4" COMMENT="" />
    <EXPORT ORDINAL="429" NAME="??0QXmlStreamWriter@@QAE@PAVQString@@@Z" PURGE="4" COMMENT="" />
    <EXPORT ORDINAL="430" NAME="??0QXmlStreamWriter@@QAE@XZ" PURGE="0" COMMENT="" />
    <EXPORT ORDINAL="431" NAME="??0ResultIteratorBase@QtConcurrent@@QAE@Vconst_iterator@?$QMap@HVResultItem@QtConcurrent@@@@H@Z" PURGE="8" COMMENT="" />
    <EXPORT ORDINAL="432" NAME="??0ResultIteratorBase@QtConcurrent@@QAE@XZ" PURGE="0" COMMENT="" />
    <EXPORT ORDINAL="433" NAME="??0ResultStoreBase@QtConcurrent@@QAE@ABV01@@Z" PURGE="4" COMMENT="" />
    <EXPORT ORDINAL="434" NAME="??0ResultStoreBase@QtConcurrent@@QAE@XZ" PURGE="0" COMMENT="" />
    <EXPORT ORDINAL="435" NAME="??0SignalEvent@QStateMachine@@QAE@ABV01@@Z" PURGE="4" COMMENT="" />
    <EXPORT ORDINAL="436" NAME="??0SignalEvent@QStateMachine@@QAE@PAVQObject@@HABV?$QList@VQVariant@@@@@Z" PURGE="12" COMMENT="" />
    <EXPORT ORDINAL="437" NAME="??0ThreadEngineBase@QtConcurrent@@QAE@XZ" PURGE="0" COMMENT="" />
    <EXPORT ORDINAL="438" NAME="??0UnhandledException@QtConcurrent@@QAE@ABV01@@Z" PURGE="4" COMMENT="" />
    <EXPORT ORDINAL="439" NAME="??0UnhandledException@QtConcurrent@@QAE@XZ" PURGE="0" COMMENT="" />
    <EXPORT ORDINAL="440" NAME="??0WrappedEvent@QStateMachine@@QAE@ABV01@@Z" PURGE="4" COMMENT="" />
    <EXPORT ORDINAL="441" NAME="??0WrappedEvent@QStateMachine@@QAE@PAVQObject@@PAVQEvent@@@Z" PURGE="8" COMMENT="" />
    <EXPORT ORDINAL="442" NAME="??1?$QVector@VQPoint@@@@QAE@XZ" PURGE="0" COMMENT="" />
    <EXPORT ORDINAL="443" NAME="??1?$QVector@VQPointF@@@@QAE@XZ" PURGE="0" COMMENT="" />
    <EXPORT ORDINAL="444" NAME="??1?$QVector@VQXmlStreamAttribute@@@@QAE@XZ" PURGE="0" COMMENT="" />
    <EXPORT ORDINAL="445" NAME="??1BlockSizeManager@QtConcurrent@@QAE@XZ" PURGE="0" COMMENT="" />
    <EXPORT ORDINAL="446" NAME="??1ConverterState@QTextCodec@@QAE@XZ" PURGE="0" COMMENT="" />
    <EXPORT ORDINAL="447" NAME="??1Exception@QtConcurrent@@UAE@XZ" PURGE="-1" COMMENT="" />
    <EXPORT ORDINAL="448" NAME="??1ExceptionStore@internal@QtConcurrent@@QAE@XZ" PURGE="0" COMMENT="" />
    <EXPORT ORDINAL="449" NAME="??1QAbstractAnimation@@UAE@XZ" PURGE="0" COMMENT="" />
    <EXPORT ORDINAL="450" NAME="??1QAbstractDynamicMetaObject@@UAE@XZ" PURGE="0" COMMENT="" />
    <EXPORT ORDINAL="451" NAME="??1QAbstractEventDispatcher@@UAE@XZ" PURGE="0" COMMENT="" />
    <EXPORT ORDINAL="452" NAME="??1QAbstractEventDispatcherPrivate@@UAE@XZ" PURGE="0" COMMENT="" />
    <EXPORT ORDINAL="453" NAME="??1QAbstractFileEngine@@UAE@XZ" PURGE="0" COMMENT="" />
    <EXPORT ORDINAL="454" NAME="??1QAbstractFileEngineHandler@@UAE@XZ" PURGE="0" COMMENT="" />
    <EXPORT ORDINAL="455" NAME="??1QAbstractFileEngineIterator@@UAE@XZ" PURGE="0" COMMENT="" />
    <EXPORT ORDINAL="456" NAME="??1QAbstractItemModel@@UAE@XZ" PURGE="0" COMMENT="" />
    <EXPORT ORDINAL="457" NAME="??1QAbstractItemModelPrivate@@UAE@XZ" PURGE="0" COMMENT="" />
    <EXPORT ORDINAL="458" NAME="??1QAbstractListModel@@UAE@XZ" PURGE="0" COMMENT="" />
    <EXPORT ORDINAL="459" NAME="??1QAbstractState@@UAE@XZ" PURGE="0" COMMENT="" />
    <EXPORT ORDINAL="460" NAME="??1QAbstractTableModel@@UAE@XZ" PURGE="0" COMMENT="" />
    <EXPORT ORDINAL="461" NAME="??1QAbstractTransition@@UAE@XZ" PURGE="0" COMMENT="" />
    <EXPORT ORDINAL="462" NAME="??1QAbstractTransitionPrivate@@UAE@XZ" PURGE="0" COMMENT="" />
    <EXPORT ORDINAL="463" NAME="??1QAnimationDriver@@UAE@XZ" PURGE="0" COMMENT="" />
    <EXPORT ORDINAL="464" NAME="??1QAnimationDriverPrivate@@UAE@XZ" PURGE="0" COMMENT="" />
    <EXPORT ORDINAL="465" NAME="??1QAnimationGroup@@UAE@XZ" PURGE="0" COMMENT="" />
    <EXPORT ORDINAL="466" NAME="??1QBasicTimer@@QAE@XZ" PURGE="0" COMMENT="" />
    <EXPORT ORDINAL="467" NAME="??1QBitArray@@QAE@XZ" PURGE="0" COMMENT="" />
    <EXPORT ORDINAL="468" NAME="??1QBuffer@@UAE@XZ" PURGE="0" COMMENT="" />
    <EXPORT ORDINAL="469" NAME="??1QByteArray@@QAE@XZ" PURGE="0" COMMENT="" />
    <EXPORT ORDINAL="470" NAME="??1QByteArrayMatcher@@QAE@XZ" PURGE="0" COMMENT="" />
    <EXPORT ORDINAL="471" NAME="??1QChildEvent@@UAE@XZ" PURGE="0" COMMENT="" />
    <EXPORT ORDINAL="472" NAME="??1QCoreApplication@@UAE@XZ" PURGE="0" COMMENT="" />
    <EXPORT ORDINAL="473" NAME="??1QCoreApplicationPrivate@@UAE@XZ" PURGE="0" COMMENT="" />
    <EXPORT ORDINAL="474" NAME="??1QCryptographicHash@@QAE@XZ" PURGE="0" COMMENT="" />
    <EXPORT ORDINAL="475" NAME="??1QCustomEvent@@UAE@XZ" PURGE="0" COMMENT="" />
    <EXPORT ORDINAL="476" NAME="??1QDataStream@@UAE@XZ" PURGE="0" COMMENT="" />
    <EXPORT ORDINAL="477" NAME="??1QDateTime@@QAE@XZ" PURGE="0" COMMENT="" />
    <EXPORT ORDINAL="478" NAME="??1QDateTimeParser@@UAE@XZ" PURGE="0" COMMENT="" />
    <EXPORT ORDINAL="479" NAME="??1QDebug@@QAE@XZ" PURGE="0" COMMENT="" />
    <EXPORT ORDINAL="480" NAME="??1QDir@@QAE@XZ" PURGE="0" COMMENT="" />
    <EXPORT ORDINAL="481" NAME="??1QDirIterator@@UAE@XZ" PURGE="0" COMMENT="" />
    <EXPORT ORDINAL="482" NAME="??1QDynamicPropertyChangeEvent@@UAE@XZ" PURGE="0" COMMENT="" />
    <EXPORT ORDINAL="483" NAME="??1QEasingCurve@@QAE@XZ" PURGE="0" COMMENT="" />
    <EXPORT ORDINAL="484" NAME="??1QEvent@@UAE@XZ" PURGE="0" COMMENT="" />
    <EXPORT ORDINAL="485" NAME="??1QEventDispatcherWin32@@UAE@XZ" PURGE="0" COMMENT="" />
    <EXPORT ORDINAL="486" NAME="??1QEventLoop@@UAE@XZ" PURGE="0" COMMENT="" />
    <EXPORT ORDINAL="487" NAME="??1QEventTransition@@UAE@XZ" PURGE="0" COMMENT="" />
    <EXPORT ORDINAL="488" NAME="??1QEventTransitionPrivate@@UAE@XZ" PURGE="0" COMMENT="" />
    <EXPORT ORDINAL="489" NAME="??1QFSFileEngine@@UAE@XZ" PURGE="0" COMMENT="" />
    <EXPORT ORDINAL="490" NAME="??1QFactoryInterface@@UAE@XZ" PURGE="0" COMMENT="" />
    <EXPORT ORDINAL="491" NAME="??1QFactoryLoader@@UAE@XZ" PURGE="0" COMMENT="" />
    <EXPORT ORDINAL="492" NAME="??1QFile@@UAE@XZ" PURGE="0" COMMENT="" />
    <EXPORT ORDINAL="493" NAME="??1QFileInfo@@QAE@XZ" PURGE="0" COMMENT="" />
    <EXPORT ORDINAL="494" NAME="??1QFileSystemWatcher@@UAE@XZ" PURGE="0" COMMENT="" />
    <EXPORT ORDINAL="495" NAME="??1QFinalState@@UAE@XZ" PURGE="0" COMMENT="" />
    <EXPORT ORDINAL="496" NAME="??1QFutureInterfaceBase@@UAE@XZ" PURGE="0" COMMENT="" />
    <EXPORT ORDINAL="497" NAME="??1QFutureWatcherBase@@UAE@XZ" PURGE="0" COMMENT="" />
    <EXPORT ORDINAL="498" NAME="??1QHistoryState@@UAE@XZ" PURGE="0" COMMENT="" />
    <EXPORT ORDINAL="499" NAME="??1QIODevice@@UAE@XZ" PURGE="0" COMMENT="" />
    <EXPORT ORDINAL="500" NAME="??1QIODevicePrivate@@UAE@XZ" PURGE="0" COMMENT="" />
    <EXPORT ORDINAL="501" NAME="??1QLibrary@@UAE@XZ" PURGE="0" COMMENT="" />
    <EXPORT ORDINAL="502" NAME="??1QMetaCallEvent@@UAE@XZ" PURGE="0" COMMENT="" />
    <EXPORT ORDINAL="503" NAME="??1QMimeData@@UAE@XZ" PURGE="0" COMMENT="" />
    <EXPORT ORDINAL="504" NAME="??1QModelIndex@@QAE@XZ" PURGE="0" COMMENT="" />
    <EXPORT ORDINAL="505" NAME="??1QMutex@@QAE@XZ" PURGE="0" COMMENT="" />
    <EXPORT ORDINAL="506" NAME="??1QMutexLocker@@QAE@XZ" PURGE="0" COMMENT="" />
    <EXPORT ORDINAL="507" NAME="??1QMutexPool@@QAE@XZ" PURGE="0" COMMENT="" />
    <EXPORT ORDINAL="508" NAME="??1QNonContiguousByteDevice@@UAE@XZ" PURGE="0" COMMENT="" />
    <EXPORT ORDINAL="509" NAME="??1QObject@@UAE@XZ" PURGE="0" COMMENT="" />
    <EXPORT ORDINAL="510" NAME="??1QObjectCleanupHandler@@UAE@XZ" PURGE="0" COMMENT="" />
    <EXPORT ORDINAL="511" NAME="??1QObjectPrivate@@UAE@XZ" PURGE="0" COMMENT="" />
    <EXPORT ORDINAL="512" NAME="??1QObjectUserData@@UAE@XZ" PURGE="0" COMMENT="" />
    <EXPORT ORDINAL="513" NAME="??1QParallelAnimationGroup@@UAE@XZ" PURGE="0" COMMENT="" />
    <EXPORT ORDINAL="514" NAME="??1QPauseAnimation@@UAE@XZ" PURGE="0" COMMENT="" />
    <EXPORT ORDINAL="515" NAME="??1QPersistentModelIndex@@QAE@XZ" PURGE="0" COMMENT="" />
    <EXPORT ORDINAL="516" NAME="??1QPluginLoader@@UAE@XZ" PURGE="0" COMMENT="" />
    <EXPORT ORDINAL="517" NAME="??1QProcess@@UAE@XZ" PURGE="0" COMMENT="" />
    <EXPORT ORDINAL="518" NAME="??1QProcessEnvironment@@QAE@XZ" PURGE="0" COMMENT="" />
    <EXPORT ORDINAL="519" NAME="??1QPropertyAnimation@@UAE@XZ" PURGE="0" COMMENT="" />
    <EXPORT ORDINAL="520" NAME="??1QReadLocker@@QAE@XZ" PURGE="0" COMMENT="" />
    <EXPORT ORDINAL="521" NAME="??1QReadWriteLock@@QAE@XZ" PURGE="0" COMMENT="" />
    <EXPORT ORDINAL="522" NAME="??1QRegExp@@QAE@XZ" PURGE="0" COMMENT="" />
    <EXPORT ORDINAL="523" NAME="??1QResource@@QAE@XZ" PURGE="0" COMMENT="" />
    <EXPORT ORDINAL="524" NAME="??1QSemaphore@@QAE@XZ" PURGE="0" COMMENT="" />
    <EXPORT ORDINAL="525" NAME="??1QSequentialAnimationGroup@@UAE@XZ" PURGE="0" COMMENT="" />
    <EXPORT ORDINAL="526" NAME="??1QSettings@@UAE@XZ" PURGE="0" COMMENT="" />
    <EXPORT ORDINAL="527" NAME="??1QSharedMemory@@UAE@XZ" PURGE="0" COMMENT="" />
    <EXPORT ORDINAL="528" NAME="??1QSignalMapper@@UAE@XZ" PURGE="0" COMMENT="" />
    <EXPORT ORDINAL="529" NAME="??1QSignalTransition@@UAE@XZ" PURGE="0" COMMENT="" />
    <EXPORT ORDINAL="530" NAME="??1QSocketNotifier@@UAE@XZ" PURGE="0" COMMENT="" />
    <EXPORT ORDINAL="531" NAME="??1QState@@UAE@XZ" PURGE="0" COMMENT="" />
    <EXPORT ORDINAL="532" NAME="??1QStateMachine@@UAE@XZ" PURGE="0" COMMENT="" />
    <EXPORT ORDINAL="533" NAME="??1QStateMachinePrivate@@UAE@XZ" PURGE="0" COMMENT="" />
    <EXPORT ORDINAL="534" NAME="??1QString@@QAE@XZ" PURGE="0" COMMENT="" />
    <EXPORT ORDINAL="535" NAME="??1QStringMatcher@@QAE@XZ" PURGE="0" COMMENT="" />
    <EXPORT ORDINAL="536" NAME="??1QStringRef@@QAE@XZ" PURGE="0" COMMENT="" />
    <EXPORT ORDINAL="537" NAME="??1QSystemLocale@@UAE@XZ" PURGE="0" COMMENT="" />
    <EXPORT ORDINAL="538" NAME="??1QSystemSemaphore@@QAE@XZ" PURGE="0" COMMENT="" />
    <EXPORT ORDINAL="539" NAME="??1QTemporaryFile@@UAE@XZ" PURGE="0" COMMENT="" />
    <EXPORT ORDINAL="540" NAME="??1QTextBoundaryFinder@@QAE@XZ" PURGE="0" COMMENT="" />
    <EXPORT ORDINAL="541" NAME="??1QTextCodec@@MAE@XZ" PURGE="0" COMMENT="" />
    <EXPORT ORDINAL="542" NAME="??1QTextCodecFactoryInterface@@UAE@XZ" PURGE="0" COMMENT="" />
    <EXPORT ORDINAL="543" NAME="??1QTextCodecPlugin@@UAE@XZ" PURGE="0" COMMENT="" />
    <EXPORT ORDINAL="544" NAME="??1QTextDecoder@@QAE@XZ" PURGE="0" COMMENT="" />
    <EXPORT ORDINAL="545" NAME="??1QTextEncoder@@QAE@XZ" PURGE="0" COMMENT="" />
    <EXPORT ORDINAL="546" NAME="??1QTextIStream@@UAE@XZ" PURGE="0" COMMENT="" />
    <EXPORT ORDINAL="547" NAME="??1QTextOStream@@UAE@XZ" PURGE="0" COMMENT="" />
    <EXPORT ORDINAL="548" NAME="??1QTextStream@@UAE@XZ" PURGE="0" COMMENT="" />
    <EXPORT ORDINAL="549" NAME="??1QThread@@UAE@XZ" PURGE="0" COMMENT="" />
    <EXPORT ORDINAL="550" NAME="??1QThreadPool@@UAE@XZ" PURGE="0" COMMENT="" />
    <EXPORT ORDINAL="551" NAME="??1QThreadStorageData@@QAE@XZ" PURGE="0" COMMENT="" />
    <EXPORT ORDINAL="552" NAME="??1QTimeLine@@UAE@XZ" PURGE="0" COMMENT="" />
    <EXPORT ORDINAL="553" NAME="??1QTimer@@UAE@XZ" PURGE="0" COMMENT="" />
    <EXPORT ORDINAL="554" NAME="??1QTimerEvent@@UAE@XZ" PURGE="0" COMMENT="" />
    <EXPORT ORDINAL="555" NAME="??1QTranslator@@UAE@XZ" PURGE="0" COMMENT="" />
    <EXPORT ORDINAL="556" NAME="??1QUnifiedTimer@@UAE@XZ" PURGE="0" COMMENT="" />
    <EXPORT ORDINAL="557" NAME="??1QUrl@@QAE@XZ" PURGE="0" COMMENT="" />
    <EXPORT ORDINAL="558" NAME="??1QVariant@@QAE@XZ" PURGE="0" COMMENT="" />
    <EXPORT ORDINAL="559" NAME="??1QVariantAnimation@@UAE@XZ" PURGE="0" COMMENT="" />
    <EXPORT ORDINAL="560" NAME="??1QWaitCondition@@QAE@XZ" PURGE="0" COMMENT="" />
    <EXPORT ORDINAL="561" NAME="??1QWinEventNotifier@@UAE@XZ" PURGE="0" COMMENT="" />
    <EXPORT ORDINAL="562" NAME="??1QWindowsPipeWriter@@UAE@XZ" PURGE="0" COMMENT="" />
    <EXPORT ORDINAL="563" NAME="??1QWriteLocker@@QAE@XZ" PURGE="0" COMMENT="" />
    <EXPORT ORDINAL="564" NAME="??1QXmlStreamAttribute@@QAE@XZ" PURGE="0" COMMENT="" />
    <EXPORT ORDINAL="565" NAME="??1QXmlStreamAttributes@@QAE@XZ" PURGE="0" COMMENT="" />
    <EXPORT ORDINAL="566" NAME="??1QXmlStreamEntityDeclaration@@QAE@XZ" PURGE="0" COMMENT="" />
    <EXPORT ORDINAL="567" NAME="??1QXmlStreamEntityResolver@@UAE@XZ" PURGE="0" COMMENT="" />
    <EXPORT ORDINAL="568" NAME="??1QXmlStreamNamespaceDeclaration@@QAE@XZ" PURGE="0" COMMENT="" />
    <EXPORT ORDINAL="569" NAME="??1QXmlStreamNotationDeclaration@@QAE@XZ" PURGE="0" COMMENT="" />
    <EXPORT ORDINAL="570" NAME="??1QXmlStreamReader@@QAE@XZ" PURGE="0" COMMENT="" />
    <EXPORT ORDINAL="571" NAME="??1QXmlStreamStringRef@@QAE@XZ" PURGE="0" COMMENT="" />
    <EXPORT ORDINAL="572" NAME="??1QXmlStreamWriter@@QAE@XZ" PURGE="0" COMMENT="" />
    <EXPORT ORDINAL="573" NAME="??1ResultStoreBase@QtConcurrent@@UAE@XZ" PURGE="0" COMMENT="" />
    <EXPORT ORDINAL="574" NAME="??1SignalEvent@QStateMachine@@UAE@XZ" PURGE="0" COMMENT="" />
    <EXPORT ORDINAL="575" NAME="??1ThreadEngineBase@QtConcurrent@@UAE@XZ" PURGE="0" COMMENT="" />
    <EXPORT ORDINAL="576" NAME="??1UnhandledException@QtConcurrent@@UAE@XZ" PURGE="-1" COMMENT="" />
    <EXPORT ORDINAL="577" NAME="??1WrappedEvent@QStateMachine@@UAE@XZ" PURGE="0" COMMENT="" />
    <EXPORT ORDINAL="578" NAME="??4?$QVector@VQPoint@@@@QAEAAV0@ABV0@@Z" PURGE="4" COMMENT="" />
    <EXPORT ORDINAL="579" NAME="??4?$QVector@VQPointF@@@@QAEAAV0@ABV0@@Z" PURGE="4" COMMENT="" />
    <EXPORT ORDINAL="580" NAME="??4?$QVector@VQXmlStreamAttribute@@@@QAEAAV0@ABV0@@Z" PURGE="4" COMMENT="" />
    <EXPORT ORDINAL="581" NAME="??4Exception@QtConcurrent@@QAEAAV01@ABV01@@Z" PURGE="4" COMMENT="" />
    <EXPORT ORDINAL="582" NAME="??4ExceptionStore@internal@QtConcurrent@@QAEAAV012@ABV012@@Z" PURGE="4" COMMENT="" />
    <EXPORT ORDINAL="583" NAME="??4QAbstractConcatenable@@QAEAAU0@ABU0@@Z" PURGE="4" COMMENT="" />
    <EXPORT ORDINAL="584" NAME="??4QAbstractDeclarativeData@@QAEAAV0@ABV0@@Z" PURGE="4" COMMENT="" />
    <EXPORT ORDINAL="585" NAME="??4QAbstractDynamicMetaObject@@QAEAAU0@ABU0@@Z" PURGE="4" COMMENT="" />
    <EXPORT ORDINAL="586" NAME="??4QAbstractEventDispatcherPrivate@@QAEAAV0@ABV0@@Z" PURGE="4" COMMENT="" />
    <EXPORT ORDINAL="587" NAME="??4QAbstractFileEngineHandler@@QAEAAV0@ABV0@@Z" PURGE="4" COMMENT="" />
    <EXPORT ORDINAL="588" NAME="??4QAbstractItemModelPrivate@@QAEAAV0@ABV0@@Z" PURGE="4" COMMENT="" />
    <EXPORT ORDINAL="589" NAME="??4QAbstractTransitionPrivate@@QAEAAV0@ABV0@@Z" PURGE="4" COMMENT="" />
    <EXPORT ORDINAL="590" NAME="??4QAnimationDriverPrivate@@QAEAAV0@ABV0@@Z" PURGE="4" COMMENT="" />
    <EXPORT ORDINAL="591" NAME="??4QAtomicInt@@QAEAAV0@ABV0@@Z" PURGE="4" COMMENT="" />
    <EXPORT ORDINAL="592" NAME="??4QAtomicInt@@QAEAAV0@H@Z" PURGE="4" COMMENT="" />
    <EXPORT ORDINAL="593" NAME="??4QBasicAtomicInt@@QAEAAV0@ABV0@@Z" PURGE="4" COMMENT="" />
    <EXPORT ORDINAL="594" NAME="??4QBasicAtomicInt@@QAEAAV0@H@Z" PURGE="4" COMMENT="" />
    <EXPORT ORDINAL="595" NAME="??4QBasicTimer@@QAEAAV0@ABV0@@Z" PURGE="4" COMMENT="" />
    <EXPORT ORDINAL="596" NAME="??4QBitArray@@QAEAAV0@ABV0@@Z" PURGE="4" COMMENT="" />
    <EXPORT ORDINAL="597" NAME="??4QBitRef@@QAEAAV0@ABV0@@Z" PURGE="4" COMMENT="" />
    <EXPORT ORDINAL="598" NAME="??4QBitRef@@QAEAAV0@_N@Z" PURGE="4" COMMENT="" />
    <EXPORT ORDINAL="599" NAME="??4QByteArray@@QAEAAV0@ABV0@@Z" PURGE="4" COMMENT="" />
    <EXPORT ORDINAL="600" NAME="??4QByteArray@@QAEAAV0@PBD@Z" PURGE="4" COMMENT="" />
    <EXPORT ORDINAL="601" NAME="??4QByteArrayMatcher@@QAEAAV0@ABV0@@Z" PURGE="4" COMMENT="" />
    <EXPORT ORDINAL="602" NAME="??4QByteRef@@QAEAAV0@ABV0@@Z" PURGE="4" COMMENT="" />
    <EXPORT ORDINAL="603" NAME="??4QByteRef@@QAEAAV0@D@Z" PURGE="4" COMMENT="" />
    <EXPORT ORDINAL="604" NAME="??4QChar@@QAEAAV0@ABV0@@Z" PURGE="4" COMMENT="" />
    <EXPORT ORDINAL="605" NAME="??4QCharRef@@QAEAAV0@ABV0@@Z" PURGE="4" COMMENT="" />
    <EXPORT ORDINAL="606" NAME="??4QCharRef@@QAEAAV0@ABVQChar@@@Z" PURGE="4" COMMENT="" />
    <EXPORT ORDINAL="607" NAME="??4QCharRef@@QAEAAV0@D@Z" PURGE="4" COMMENT="" />
    <EXPORT ORDINAL="608" NAME="??4QCharRef@@QAEAAV0@E@Z" PURGE="4" COMMENT="" />
    <EXPORT ORDINAL="609" NAME="??4QCharRef@@QAEAAV0@F@Z" PURGE="4" COMMENT="" />
    <EXPORT ORDINAL="610" NAME="??4QCharRef@@QAEAAV0@G@Z" PURGE="4" COMMENT="" />
    <EXPORT ORDINAL="611" NAME="??4QCharRef@@QAEAAV0@H@Z" PURGE="4" COMMENT="" />
    <EXPORT ORDINAL="612" NAME="??4QCharRef@@QAEAAV0@I@Z" PURGE="4" COMMENT="" />
    <EXPORT ORDINAL="613" NAME="??4QChildEvent@@QAEAAV0@ABV0@@Z" PURGE="4" COMMENT="" />
    <EXPORT ORDINAL="614" NAME="??4QContiguousCacheData@@QAEAAU0@ABU0@@Z" PURGE="4" COMMENT="" />
    <EXPORT ORDINAL="615" NAME="??4QCustomEvent@@QAEAAV0@ABV0@@Z" PURGE="4" COMMENT="" />
    <EXPORT ORDINAL="616" NAME="??4QDate@@QAEAAV0@ABV0@@Z" PURGE="4" COMMENT="" />
    <EXPORT ORDINAL="617" NAME="??4QDateTime@@QAEAAV0@ABV0@@Z" PURGE="4" COMMENT="" />
    <EXPORT ORDINAL="618" NAME="??4QDateTimeParser@@QAEAAV0@ABV0@@Z" PURGE="4" COMMENT="" />
    <EXPORT ORDINAL="619" NAME="??4QDebug@@QAEAAV0@ABV0@@Z" PURGE="4" COMMENT="" />
    <EXPORT ORDINAL="620" NAME="??4QDir@@QAEAAV0@ABV0@@Z" PURGE="4" COMMENT="" />
    <EXPORT ORDINAL="621" NAME="??4QDir@@QAEAAV0@ABVQString@@@Z" PURGE="4" COMMENT="" />
    <EXPORT ORDINAL="622" NAME="??4QDynamicPropertyChangeEvent@@QAEAAV0@ABV0@@Z" PURGE="4" COMMENT="" />
    <EXPORT ORDINAL="623" NAME="??4QEasingCurve@@QAEAAV0@ABV0@@Z" PURGE="4" COMMENT="" />
    <EXPORT ORDINAL="624" NAME="??4QElapsedTimer@@QAEAAV0@ABV0@@Z" PURGE="4" COMMENT="" />
    <EXPORT ORDINAL="625" NAME="??4QEvent@@QAEAAV0@ABV0@@Z" PURGE="4" COMMENT="" />
    <EXPORT ORDINAL="626" NAME="??4QEventTransitionPrivate@@QAEAAV0@ABV0@@Z" PURGE="4" COMMENT="" />
    <EXPORT ORDINAL="627" NAME="??4QFactoryInterface@@QAEAAU0@ABU0@@Z" PURGE="4" COMMENT="" />
    <EXPORT ORDINAL="628" NAME="??4QFileInfo@@QAEAAV0@ABV0@@Z" PURGE="4" COMMENT="" />
    <EXPORT ORDINAL="629" NAME="??4QFlag@@QAEAAV0@ABV0@@Z" PURGE="4" COMMENT="" />
    <EXPORT ORDINAL="630" NAME="??4QFutureInterfaceBase@@QAEAAV0@ABV0@@Z" PURGE="4" COMMENT="" />
    <EXPORT ORDINAL="631" NAME="??4QGenericArgument@@QAEAAV0@ABV0@@Z" PURGE="4" COMMENT="" />
    <EXPORT ORDINAL="632" NAME="??4QGenericReturnArgument@@QAEAAV0@ABV0@@Z" PURGE="4" COMMENT="" />
    <EXPORT ORDINAL="633" NAME="??4QHashData@@QAEAAU0@ABU0@@Z" PURGE="4" COMMENT="" />
    <EXPORT ORDINAL="634" NAME="??4QIODevicePrivate@@QAEAAV0@ABV0@@Z" PURGE="4" COMMENT="" />
    <EXPORT ORDINAL="635" NAME="??4QIncompatibleFlag@@QAEAAV0@ABV0@@Z" PURGE="4" COMMENT="" />
    <EXPORT ORDINAL="636" NAME="??4QInternal@@QAEAAV0@ABV0@@Z" PURGE="4" COMMENT="" />
    <EXPORT ORDINAL="637" NAME="??4QLatin1String@@QAEAAV0@ABV0@@Z" PURGE="4" COMMENT="" />
    <EXPORT ORDINAL="638" NAME="??4QLibraryInfo@@QAEAAV0@ABV0@@Z" PURGE="4" COMMENT="" />
    <EXPORT ORDINAL="639" NAME="??4QLine@@QAEAAV0@ABV0@@Z" PURGE="4" COMMENT="" />
    <EXPORT ORDINAL="640" NAME="??4QLineF@@QAEAAV0@ABV0@@Z" PURGE="4" COMMENT="" />
    <EXPORT ORDINAL="641" NAME="??4QLinkedListData@@QAEAAU0@ABU0@@Z" PURGE="4" COMMENT="" />
    <EXPORT ORDINAL="642" NAME="??4QListData@@QAEAAU0@ABU0@@Z" PURGE="4" COMMENT="" />
    <EXPORT ORDINAL="643" NAME="??4QLocale@@QAEAAV0@ABV0@@Z" PURGE="4" COMMENT="" />
    <EXPORT ORDINAL="644" NAME="??4QLocalePrivate@@QAEAAU0@ABU0@@Z" PURGE="4" COMMENT="" />
    <EXPORT ORDINAL="645" NAME="??4QMapData@@QAEAAU0@ABU0@@Z" PURGE="4" COMMENT="" />
    <EXPORT ORDINAL="646" NAME="??4QMetaCallEvent@@QAEAAV0@ABV0@@Z" PURGE="4" COMMENT="" />
    <EXPORT ORDINAL="647" NAME="??4QMetaClassInfo@@QAEAAV0@ABV0@@Z" PURGE="4" COMMENT="" />
    <EXPORT ORDINAL="648" NAME="??4QMetaEnum@@QAEAAV0@ABV0@@Z" PURGE="4" COMMENT="" />
    <EXPORT ORDINAL="649" NAME="??4QMetaMethod@@QAEAAV0@ABV0@@Z" PURGE="4" COMMENT="" />
    <EXPORT ORDINAL="650" NAME="??4QMetaObject@@QAEAAU0@ABU0@@Z" PURGE="4" COMMENT="" />
    <EXPORT ORDINAL="651" NAME="??4QMetaProperty@@QAEAAV0@ABV0@@Z" PURGE="4" COMMENT="" />
    <EXPORT ORDINAL="652" NAME="??4QMetaType@@QAEAAV0@ABV0@@Z" PURGE="4" COMMENT="" />
    <EXPORT ORDINAL="653" NAME="??4QModelIndex@@QAEAAV0@ABV0@@Z" PURGE="4" COMMENT="" />
    <EXPORT ORDINAL="654" NAME="??4QMutexPool@@QAEAAV0@ABV0@@Z" PURGE="4" COMMENT="" />
    <EXPORT ORDINAL="655" NAME="??4QNonContiguousByteDeviceFactory@@QAEAAV0@ABV0@@Z" PURGE="4" COMMENT="" />
    <EXPORT ORDINAL="656" NAME="??4QObjectPrivate@@QAEAAV0@ABV0@@Z" PURGE="4" COMMENT="" />
    <EXPORT ORDINAL="657" NAME="??4QObjectUserData@@QAEAAV0@ABV0@@Z" PURGE="4" COMMENT="" />
    <EXPORT ORDINAL="658" NAME="??4QPersistentModelIndex@@QAEAAV0@ABV0@@Z" PURGE="4" COMMENT="" />
    <EXPORT ORDINAL="659" NAME="??4QPersistentModelIndex@@QAEAAV0@ABVQModelIndex@@@Z" PURGE="4" COMMENT="" />
    <EXPORT ORDINAL="660" NAME="??4QPoint@@QAEAAV0@ABV0@@Z" PURGE="4" COMMENT="" />
    <EXPORT ORDINAL="661" NAME="??4QPointF@@QAEAAV0@ABV0@@Z" PURGE="4" COMMENT="" />
    <EXPORT ORDINAL="662" NAME="??4QProcessEnvironment@@QAEAAV0@ABV0@@Z" PURGE="4" COMMENT="" />
    <EXPORT ORDINAL="663" NAME="??4QRect@@QAEAAV0@ABV0@@Z" PURGE="4" COMMENT="" />
    <EXPORT ORDINAL="664" NAME="??4QRectF@@QAEAAV0@ABV0@@Z" PURGE="4" COMMENT="" />
    <EXPORT ORDINAL="665" NAME="??4QRegExp@@QAEAAV0@ABV0@@Z" PURGE="4" COMMENT="" />
    <EXPORT ORDINAL="666" NAME="??4QSize@@QAEAAV0@ABV0@@Z" PURGE="4" COMMENT="" />
    <EXPORT ORDINAL="667" NAME="??4QSizeF@@QAEAAV0@ABV0@@Z" PURGE="4" COMMENT="" />
    <EXPORT ORDINAL="668" NAME="??4QString@@QAEAAV0@ABUNull@0@@Z" PURGE="4" COMMENT="" />
    <EXPORT ORDINAL="669" NAME="??4QString@@QAEAAV0@ABV0@@Z" PURGE="4" COMMENT="" />
    <EXPORT ORDINAL="670" NAME="??4QString@@QAEAAV0@ABVQByteArray@@@Z" PURGE="4" COMMENT="" />
    <EXPORT ORDINAL="671" NAME="??4QString@@QAEAAV0@ABVQLatin1String@@@Z" PURGE="4" COMMENT="" />
    <EXPORT ORDINAL="672" NAME="??4QString@@QAEAAV0@D@Z" PURGE="4" COMMENT="" />
    <EXPORT ORDINAL="673" NAME="??4QString@@QAEAAV0@PBD@Z" PURGE="4" COMMENT="" />
    <EXPORT ORDINAL="674" NAME="??4QString@@QAEAAV0@VQChar@@@Z" PURGE="4" COMMENT="" />
    <EXPORT ORDINAL="675" NAME="??4QStringMatcher@@QAEAAV0@ABV0@@Z" PURGE="4" COMMENT="" />
    <EXPORT ORDINAL="676" NAME="??4QStringRef@@QAEAAV0@ABV0@@Z" PURGE="4" COMMENT="" />
    <EXPORT ORDINAL="677" NAME="??4QStringRef@@QAEAAV0@PBVQString@@@Z" PURGE="4" COMMENT="" />
    <EXPORT ORDINAL="678" NAME="??4QSysInfo@@QAEAAV0@ABV0@@Z" PURGE="4" COMMENT="" />
    <EXPORT ORDINAL="679" NAME="??4QSystemError@@QAEAAV0@ABV0@@Z" PURGE="4" COMMENT="" />
    <EXPORT ORDINAL="680" NAME="??4QSystemLocale@@QAEAAV0@ABV0@@Z" PURGE="4" COMMENT="" />
    <EXPORT ORDINAL="681" NAME="??4QTextBoundaryFinder@@QAEAAV0@ABV0@@Z" PURGE="4" COMMENT="" />
    <EXPORT ORDINAL="682" NAME="??4QTextCodecFactoryInterface@@QAEAAU0@ABU0@@Z" PURGE="4" COMMENT="" />
    <EXPORT ORDINAL="683" NAME="??4QTextStreamManipulator@@QAEAAV0@ABV0@@Z" PURGE="4" COMMENT="" />
    <EXPORT ORDINAL="684" NAME="??4QThreadStorageData@@QAEAAV0@ABV0@@Z" PURGE="4" COMMENT="" />
    <EXPORT ORDINAL="685" NAME="??4QTime@@QAEAAV0@ABV0@@Z" PURGE="4" COMMENT="" />
    <EXPORT ORDINAL="686" NAME="??4QTimerEvent@@QAEAAV0@ABV0@@Z" PURGE="4" COMMENT="" />
    <EXPORT ORDINAL="687" NAME="??4QUrl@@QAEAAV0@ABV0@@Z" PURGE="4" COMMENT="" />
    <EXPORT ORDINAL="688" NAME="??4QUrl@@QAEAAV0@ABVQString@@@Z" PURGE="4" COMMENT="" />
    <EXPORT ORDINAL="689" NAME="??4QUuid@@QAEAAU0@ABU0@@Z" PURGE="4" COMMENT="" />
    <EXPORT ORDINAL="690" NAME="??4QUuid@@QAEAAU0@ABU_GUID@@@Z" PURGE="4" COMMENT="" />
    <EXPORT ORDINAL="691" NAME="??4QVariant@@QAEAAV0@ABV0@@Z" PURGE="4" COMMENT="" />
    <EXPORT ORDINAL="692" NAME="??4QVectorData@@QAEAAU0@ABU0@@Z" PURGE="4" COMMENT="" />
    <EXPORT ORDINAL="693" NAME="??4QXmlStreamAttribute@@QAEAAV0@ABV0@@Z" PURGE="4" COMMENT="" />
    <EXPORT ORDINAL="694" NAME="??4QXmlStreamAttributes@@QAEAAV0@ABV0@@Z" PURGE="4" COMMENT="" />
    <EXPORT ORDINAL="695" NAME="??4QXmlStreamEntityDeclaration@@QAEAAV0@ABV0@@Z" PURGE="4" COMMENT="" />
    <EXPORT ORDINAL="696" NAME="??4QXmlStreamEntityResolver@@QAEAAV0@ABV0@@Z" PURGE="4" COMMENT="" />
    <EXPORT ORDINAL="697" NAME="??4QXmlStreamNamespaceDeclaration@@QAEAAV0@ABV0@@Z" PURGE="4" COMMENT="" />
    <EXPORT ORDINAL="698" NAME="??4QXmlStreamNotationDeclaration@@QAEAAV0@ABV0@@Z" PURGE="4" COMMENT="" />
    <EXPORT ORDINAL="699" NAME="??4QXmlStreamStringRef@@QAEAAV0@ABV0@@Z" PURGE="4" COMMENT="" />
    <EXPORT ORDINAL="700" NAME="??4QXmlUtils@@QAEAAV0@ABV0@@Z" PURGE="4" COMMENT="" />
    <EXPORT ORDINAL="701" NAME="??4ResultIteratorBase@QtConcurrent@@QAEAAV01@ABV01@@Z" PURGE="4" COMMENT="" />
    <EXPORT ORDINAL="702" NAME="??4ResultStoreBase@QtConcurrent@@QAEAAV01@ABV01@@Z" PURGE="4" COMMENT="" />
    <EXPORT ORDINAL="703" NAME="??4SignalEvent@QStateMachine@@QAEAAV01@ABV01@@Z" PURGE="4" COMMENT="" />
    <EXPORT ORDINAL="704" NAME="??4UnhandledException@QtConcurrent@@QAEAAV01@ABV01@@Z" PURGE="4" COMMENT="" />
    <EXPORT ORDINAL="705" NAME="??4WrappedEvent@QStateMachine@@QAEAAV01@ABV01@@Z" PURGE="4" COMMENT="" />
    <EXPORT ORDINAL="706" NAME="??5@YAAAVQDataStream@@AAV0@AAUQUuid@@@Z" PURGE="0" COMMENT="" />
    <EXPORT ORDINAL="707" NAME="??5@YAAAVQDataStream@@AAV0@AAVQBitArray@@@Z" PURGE="0" COMMENT="" />
    <EXPORT ORDINAL="708" NAME="??5@YAAAVQDataStream@@AAV0@AAVQByteArray@@@Z" PURGE="0" COMMENT="" />
    <EXPORT ORDINAL="709" NAME="??5@YAAAVQDataStream@@AAV0@AAVQChar@@@Z" PURGE="0" COMMENT="" />
    <EXPORT ORDINAL="710" NAME="??5@YAAAVQDataStream@@AAV0@AAVQDate@@@Z" PURGE="0" COMMENT="" />
    <EXPORT ORDINAL="711" NAME="??5@YAAAVQDataStream@@AAV0@AAVQDateTime@@@Z" PURGE="0" COMMENT="" />
    <EXPORT ORDINAL="712" NAME="??5@YAAAVQDataStream@@AAV0@AAVQEasingCurve@@@Z" PURGE="0" COMMENT="" />
    <EXPORT ORDINAL="713" NAME="??5@YAAAVQDataStream@@AAV0@AAVQLine@@@Z" PURGE="0" COMMENT="" />
    <EXPORT ORDINAL="714" NAME="??5@YAAAVQDataStream@@AAV0@AAVQLineF@@@Z" PURGE="0" COMMENT="" />
    <EXPORT ORDINAL="715" NAME="??5@YAAAVQDataStream@@AAV0@AAVQLocale@@@Z" PURGE="0" COMMENT="" />
    <EXPORT ORDINAL="716" NAME="??5@YAAAVQDataStream@@AAV0@AAVQPoint@@@Z" PURGE="0" COMMENT="" />
    <EXPORT ORDINAL="717" NAME="??5@YAAAVQDataStream@@AAV0@AAVQPointF@@@Z" PURGE="0" COMMENT="" />
    <EXPORT ORDINAL="718" NAME="??5@YAAAVQDataStream@@AAV0@AAVQRect@@@Z" PURGE="0" COMMENT="" />
    <EXPORT ORDINAL="719" NAME="??5@YAAAVQDataStream@@AAV0@AAVQRectF@@@Z" PURGE="0" COMMENT="" />
    <EXPORT ORDINAL="720" NAME="??5@YAAAVQDataStream@@AAV0@AAVQRegExp@@@Z" PURGE="0" COMMENT="" />
    <EXPORT ORDINAL="721" NAME="??5@YAAAVQDataStream@@AAV0@AAVQSize@@@Z" PURGE="0" COMMENT="" />
    <EXPORT ORDINAL="722" NAME="??5@YAAAVQDataStream@@AAV0@AAVQSizeF@@@Z" PURGE="0" COMMENT="" />
    <EXPORT ORDINAL="723" NAME="??5@YAAAVQDataStream@@AAV0@AAVQString@@@Z" PURGE="0" COMMENT="" />
    <EXPORT ORDINAL="724" NAME="??5@YAAAVQDataStream@@AAV0@AAVQTime@@@Z" PURGE="0" COMMENT="" />
    <EXPORT ORDINAL="725" NAME="??5@YAAAVQDataStream@@AAV0@AAVQUrl@@@Z" PURGE="0" COMMENT="" />
    <EXPORT ORDINAL="726" NAME="??5@YAAAVQDataStream@@AAV0@AAVQVariant@@@Z" PURGE="0" COMMENT="" />
    <EXPORT ORDINAL="727" NAME="??5@YAAAVQDataStream@@AAV0@AAW4Type@QVariant@@@Z" PURGE="0" COMMENT="" />
    <EXPORT ORDINAL="728" NAME="??5QDataStream@@QAEAAV0@AAC@Z" PURGE="4" COMMENT="" />
    <EXPORT ORDINAL="729" NAME="??5QDataStream@@QAEAAV0@AAE@Z" PURGE="4" COMMENT="" />
    <EXPORT ORDINAL="730" NAME="??5QDataStream@@QAEAAV0@AAF@Z" PURGE="4" COMMENT="" />
    <EXPORT ORDINAL="731" NAME="??5QDataStream@@QAEAAV0@AAG@Z" PURGE="4" COMMENT="" />
    <EXPORT ORDINAL="732" NAME="??5QDataStream@@QAEAAV0@AAH@Z" PURGE="4" COMMENT="" />
    <EXPORT ORDINAL="733" NAME="??5QDataStream@@QAEAAV0@AAI@Z" PURGE="4" COMMENT="" />
    <EXPORT ORDINAL="734" NAME="??5QDataStream@@QAEAAV0@AAM@Z" PURGE="4" COMMENT="" />
    <EXPORT ORDINAL="735" NAME="??5QDataStream@@QAEAAV0@AAN@Z" PURGE="4" COMMENT="" />
    <EXPORT ORDINAL="736" NAME="??5QDataStream@@QAEAAV0@AAPAD@Z" PURGE="4" COMMENT="" />
    <EXPORT ORDINAL="737" NAME="??5QDataStream@@QAEAAV0@AA_J@Z" PURGE="4" COMMENT="" />
    <EXPORT ORDINAL="738" NAME="??5QDataStream@@QAEAAV0@AA_K@Z" PURGE="4" COMMENT="" />
    <EXPORT ORDINAL="739" NAME="??5QDataStream@@QAEAAV0@AA_N@Z" PURGE="4" COMMENT="" />
    <EXPORT ORDINAL="740" NAME="??5QTextStream@@QAEAAV0@AAD@Z" PURGE="4" COMMENT="" />
    <EXPORT ORDINAL="741" NAME="??5QTextStream@@QAEAAV0@AAF@Z" PURGE="4" COMMENT="" />
    <EXPORT ORDINAL="742" NAME="??5QTextStream@@QAEAAV0@AAG@Z" PURGE="4" COMMENT="" />
    <EXPORT ORDINAL="743" NAME="??5QTextStream@@QAEAAV0@AAH@Z" PURGE="4" COMMENT="" />
    <EXPORT ORDINAL="744" NAME="??5QTextStream@@QAEAAV0@AAI@Z" PURGE="4" COMMENT="" />
    <EXPORT ORDINAL="745" NAME="??5QTextStream@@QAEAAV0@AAJ@Z" PURGE="4" COMMENT="" />
    <EXPORT ORDINAL="746" NAME="??5QTextStream@@QAEAAV0@AAK@Z" PURGE="4" COMMENT="" />
    <EXPORT ORDINAL="747" NAME="??5QTextStream@@QAEAAV0@AAM@Z" PURGE="4" COMMENT="" />
    <EXPORT ORDINAL="748" NAME="??5QTextStream@@QAEAAV0@AAN@Z" PURGE="4" COMMENT="" />
    <EXPORT ORDINAL="749" NAME="??5QTextStream@@QAEAAV0@AAVQByteArray@@@Z" PURGE="4" COMMENT="" />
    <EXPORT ORDINAL="750" NAME="??5QTextStream@@QAEAAV0@AAVQChar@@@Z" PURGE="4" COMMENT="" />
    <EXPORT ORDINAL="751" NAME="??5QTextStream@@QAEAAV0@AAVQString@@@Z" PURGE="4" COMMENT="" />
    <EXPORT ORDINAL="752" NAME="??5QTextStream@@QAEAAV0@AA_J@Z" PURGE="4" COMMENT="" />
    <EXPORT ORDINAL="753" NAME="??5QTextStream@@QAEAAV0@AA_K@Z" PURGE="4" COMMENT="" />
    <EXPORT ORDINAL="754" NAME="??5QTextStream@@QAEAAV0@PAD@Z" PURGE="4" COMMENT="" />
    <EXPORT ORDINAL="755" NAME="??6?$QVector@VQPoint@@@@QAEAAV0@ABV0@@Z" PURGE="4" COMMENT="" />
    <EXPORT ORDINAL="756" NAME="??6?$QVector@VQPoint@@@@QAEAAV0@ABVQPoint@@@Z" PURGE="4" COMMENT="" />
    <EXPORT ORDINAL="757" NAME="??6?$QVector@VQPointF@@@@QAEAAV0@ABV0@@Z" PURGE="4" COMMENT="" />
    <EXPORT ORDINAL="758" NAME="??6?$QVector@VQPointF@@@@QAEAAV0@ABVQPointF@@@Z" PURGE="4" COMMENT="" />
    <EXPORT ORDINAL="759" NAME="??6?$QVector@VQXmlStreamAttribute@@@@QAEAAV0@ABV0@@Z" PURGE="4" COMMENT="" />
    <EXPORT ORDINAL="760" NAME="??6?$QVector@VQXmlStreamAttribute@@@@QAEAAV0@ABVQXmlStreamAttribute@@@Z" PURGE="4" COMMENT="" />
    <EXPORT ORDINAL="761" NAME="??6@YA?AVQDebug@@V0@ABUtagMSG@@@Z" PURGE="0" COMMENT="" />
    <EXPORT ORDINAL="762" NAME="??6@YA?AVQDebug@@V0@ABVQDate@@@Z" PURGE="0" COMMENT="" />
    <EXPORT ORDINAL="763" NAME="??6@YA?AVQDebug@@V0@ABVQDateTime@@@Z" PURGE="0" COMMENT="" />
    <EXPORT ORDINAL="764" NAME="??6@YA?AVQDebug@@V0@ABVQDir@@@Z" PURGE="0" COMMENT="" />
    <EXPORT ORDINAL="765" NAME="??6@YA?AVQDebug@@V0@ABVQEasingCurve@@@Z" PURGE="0" COMMENT="" />
    <EXPORT ORDINAL="766" NAME="??6@YA?AVQDebug@@V0@ABVQLine@@@Z" PURGE="0" COMMENT="" />
    <EXPORT ORDINAL="767" NAME="??6@YA?AVQDebug@@V0@ABVQLineF@@@Z" PURGE="0" COMMENT="" />
    <EXPORT ORDINAL="768" NAME="??6@YA?AVQDebug@@V0@ABVQMargins@@@Z" PURGE="0" COMMENT="" />
    <EXPORT ORDINAL="769" NAME="??6@YA?AVQDebug@@V0@ABVQModelIndex@@@Z" PURGE="0" COMMENT="" />
    <EXPORT ORDINAL="770" NAME="??6@YA?AVQDebug@@V0@ABVQPersistentModelIndex@@@Z" PURGE="0" COMMENT="" />
    <EXPORT ORDINAL="771" NAME="??6@YA?AVQDebug@@V0@ABVQPoint@@@Z" PURGE="0" COMMENT="" />
    <EXPORT ORDINAL="772" NAME="??6@YA?AVQDebug@@V0@ABVQPointF@@@Z" PURGE="0" COMMENT="" />
    <EXPORT ORDINAL="773" NAME="??6@YA?AVQDebug@@V0@ABVQRect@@@Z" PURGE="0" COMMENT="" />
    <EXPORT ORDINAL="774" NAME="??6@YA?AVQDebug@@V0@ABVQRectF@@@Z" PURGE="0" COMMENT="" />
    <EXPORT ORDINAL="775" NAME="??6@YA?AVQDebug@@V0@ABVQSize@@@Z" PURGE="0" COMMENT="" />
    <EXPORT ORDINAL="776" NAME="??6@YA?AVQDebug@@V0@ABVQSizeF@@@Z" PURGE="0" COMMENT="" />
    <EXPORT ORDINAL="777" NAME="??6@YA?AVQDebug@@V0@ABVQTime@@@Z" PURGE="0" COMMENT="" />
    <EXPORT ORDINAL="778" NAME="??6@YA?AVQDebug@@V0@ABVQUrl@@@Z" PURGE="0" COMMENT="" />
    <EXPORT ORDINAL="779" NAME="??6@YA?AVQDebug@@V0@ABVQVariant@@@Z" PURGE="0" COMMENT="" />
    <EXPORT ORDINAL="780" NAME="??6@YA?AVQDebug@@V0@PBVQObject@@@Z" PURGE="0" COMMENT="" />
    <EXPORT ORDINAL="781" NAME="??6@YA?AVQDebug@@V0@V?$QFlags@W4Filter@QDir@@@@@Z" PURGE="0" COMMENT="" />
    <EXPORT ORDINAL="782" NAME="??6@YA?AVQDebug@@V0@V?$QFlags@W4OpenModeFlag@QIODevice@@@@@Z" PURGE="0" COMMENT="" />
    <EXPORT ORDINAL="783" NAME="??6@YA?AVQDebug@@V0@W4Type@QVariant@@@Z" PURGE="0" COMMENT="" />
    <EXPORT ORDINAL="784" NAME="??6@YAAAVQDataStream@@AAV0@ABUQUuid@@@Z" PURGE="0" COMMENT="" />
    <EXPORT ORDINAL="785" NAME="??6@YAAAVQDataStream@@AAV0@ABVQBitArray@@@Z" PURGE="0" COMMENT="" />
    <EXPORT ORDINAL="786" NAME="??6@YAAAVQDataStream@@AAV0@ABVQByteArray@@@Z" PURGE="0" COMMENT="" />
    <EXPORT ORDINAL="787" NAME="??6@YAAAVQDataStream@@AAV0@ABVQChar@@@Z" PURGE="0" COMMENT="" />
    <EXPORT ORDINAL="788" NAME="??6@YAAAVQDataStream@@AAV0@ABVQDate@@@Z" PURGE="0" COMMENT="" />
    <EXPORT ORDINAL="789" NAME="??6@YAAAVQDataStream@@AAV0@ABVQDateTime@@@Z" PURGE="0" COMMENT="" />
    <EXPORT ORDINAL="790" NAME="??6@YAAAVQDataStream@@AAV0@ABVQEasingCurve@@@Z" PURGE="0" COMMENT="" />
    <EXPORT ORDINAL="791" NAME="??6@YAAAVQDataStream@@AAV0@ABVQLine@@@Z" PURGE="0" COMMENT="" />
    <EXPORT ORDINAL="792" NAME="??6@YAAAVQDataStream@@AAV0@ABVQLineF@@@Z" PURGE="0" COMMENT="" />
    <EXPORT ORDINAL="793" NAME="??6@YAAAVQDataStream@@AAV0@ABVQLocale@@@Z" PURGE="0" COMMENT="" />
    <EXPORT ORDINAL="794" NAME="??6@YAAAVQDataStream@@AAV0@ABVQPoint@@@Z" PURGE="0" COMMENT="" />
    <EXPORT ORDINAL="795" NAME="??6@YAAAVQDataStream@@AAV0@ABVQPointF@@@Z" PURGE="0" COMMENT="" />
    <EXPORT ORDINAL="796" NAME="??6@YAAAVQDataStream@@AAV0@ABVQRect@@@Z" PURGE="0" COMMENT="" />
    <EXPORT ORDINAL="797" NAME="??6@YAAAVQDataStream@@AAV0@ABVQRectF@@@Z" PURGE="0" COMMENT="" />
    <EXPORT ORDINAL="798" NAME="??6@YAAAVQDataStream@@AAV0@ABVQRegExp@@@Z" PURGE="0" COMMENT="" />
    <EXPORT ORDINAL="799" NAME="??6@YAAAVQDataStream@@AAV0@ABVQSize@@@Z" PURGE="0" COMMENT="" />
    <EXPORT ORDINAL="800" NAME="??6@YAAAVQDataStream@@AAV0@ABVQSizeF@@@Z" PURGE="0" COMMENT="" />
    <EXPORT ORDINAL="801" NAME="??6@YAAAVQDataStream@@AAV0@ABVQString@@@Z" PURGE="0" COMMENT="" />
    <EXPORT ORDINAL="802" NAME="??6@YAAAVQDataStream@@AAV0@ABVQTime@@@Z" PURGE="0" COMMENT="" />
    <EXPORT ORDINAL="803" NAME="??6@YAAAVQDataStream@@AAV0@ABVQUrl@@@Z" PURGE="0" COMMENT="" />
    <EXPORT ORDINAL="804" NAME="??6@YAAAVQDataStream@@AAV0@ABVQVariant@@@Z" PURGE="0" COMMENT="" />
    <EXPORT ORDINAL="805" NAME="??6@YAAAVQDataStream@@AAV0@W4Type@QVariant@@@Z" PURGE="0" COMMENT="" />
    <EXPORT ORDINAL="806" NAME="??6QDataStream@@QAEAAV0@C@Z" PURGE="4" COMMENT="" />
    <EXPORT ORDINAL="807" NAME="??6QDataStream@@QAEAAV0@E@Z" PURGE="4" COMMENT="" />
    <EXPORT ORDINAL="808" NAME="??6QDataStream@@QAEAAV0@F@Z" PURGE="4" COMMENT="" />
    <EXPORT ORDINAL="809" NAME="??6QDataStream@@QAEAAV0@G@Z" PURGE="4" COMMENT="" />
    <EXPORT ORDINAL="810" NAME="??6QDataStream@@QAEAAV0@H@Z" PURGE="4" COMMENT="" />
    <EXPORT ORDINAL="811" NAME="??6QDataStream@@QAEAAV0@I@Z" PURGE="4" COMMENT="" />
    <EXPORT ORDINAL="812" NAME="??6QDataStream@@QAEAAV0@M@Z" PURGE="4" COMMENT="" />
    <EXPORT ORDINAL="813" NAME="??6QDataStream@@QAEAAV0@N@Z" PURGE="8" COMMENT="" />
    <EXPORT ORDINAL="814" NAME="??6QDataStream@@QAEAAV0@PBD@Z" PURGE="4" COMMENT="" />
    <EXPORT ORDINAL="815" NAME="??6QDataStream@@QAEAAV0@_J@Z" PURGE="8" COMMENT="" />
    <EXPORT ORDINAL="816" NAME="??6QDataStream@@QAEAAV0@_K@Z" PURGE="8" COMMENT="" />
    <EXPORT ORDINAL="817" NAME="??6QDataStream@@QAEAAV0@_N@Z" PURGE="4" COMMENT="" />
    <EXPORT ORDINAL="818" NAME="??6QDebug@@QAEAAV0@ABVQByteArray@@@Z" PURGE="4" COMMENT="" />
    <EXPORT ORDINAL="819" NAME="??6QDebug@@QAEAAV0@ABVQLatin1String@@@Z" PURGE="4" COMMENT="" />
    <EXPORT ORDINAL="820" NAME="??6QDebug@@QAEAAV0@ABVQString@@@Z" PURGE="4" COMMENT="" />
    <EXPORT ORDINAL="821" NAME="??6QDebug@@QAEAAV0@ABVQStringRef@@@Z" PURGE="4" COMMENT="" />
    <EXPORT ORDINAL="822" NAME="??6QDebug@@QAEAAV0@D@Z" PURGE="4" COMMENT="" />
    <EXPORT ORDINAL="823" NAME="??6QDebug@@QAEAAV0@F@Z" PURGE="4" COMMENT="" />
    <EXPORT ORDINAL="824" NAME="??6QDebug@@QAEAAV0@G@Z" PURGE="4" COMMENT="" />
    <EXPORT ORDINAL="825" NAME="??6QDebug@@QAEAAV0@H@Z" PURGE="4" COMMENT="" />
    <EXPORT ORDINAL="826" NAME="??6QDebug@@QAEAAV0@I@Z" PURGE="4" COMMENT="" />
    <EXPORT ORDINAL="827" NAME="??6QDebug@@QAEAAV0@J@Z" PURGE="4" COMMENT="" />
    <EXPORT ORDINAL="828" NAME="??6QDebug@@QAEAAV0@K@Z" PURGE="4" COMMENT="" />
    <EXPORT ORDINAL="829" NAME="??6QDebug@@QAEAAV0@M@Z" PURGE="4" COMMENT="" />
    <EXPORT ORDINAL="830" NAME="??6QDebug@@QAEAAV0@N@Z" PURGE="8" COMMENT="" />
    <EXPORT ORDINAL="831" NAME="??6QDebug@@QAEAAV0@P6AAAVQTextStream@@AAV1@@Z@Z" PURGE="4" COMMENT="" />
    <EXPORT ORDINAL="832" NAME="??6QDebug@@QAEAAV0@PBD@Z" PURGE="4" COMMENT="" />
    <EXPORT ORDINAL="833" NAME="??6QDebug@@QAEAAV0@PBX@Z" PURGE="4" COMMENT="" />
    <EXPORT ORDINAL="834" NAME="??6QDebug@@QAEAAV0@VQBool@@@Z" PURGE="4" COMMENT="" />
    <EXPORT ORDINAL="835" NAME="??6QDebug@@QAEAAV0@VQChar@@@Z" PURGE="4" COMMENT="" />
    <EXPORT ORDINAL="836" NAME="??6QDebug@@QAEAAV0@VQTextStreamManipulator@@@Z" PURGE="16" COMMENT="" />
    <EXPORT ORDINAL="837" NAME="??6QDebug@@QAEAAV0@_J@Z" PURGE="8" COMMENT="" />
    <EXPORT ORDINAL="838" NAME="??6QDebug@@QAEAAV0@_K@Z" PURGE="8" COMMENT="" />
    <EXPORT ORDINAL="839" NAME="??6QDebug@@QAEAAV0@_N@Z" PURGE="4" COMMENT="" />
    <EXPORT ORDINAL="840" NAME="??6QTextStream@@QAEAAV0@ABVQByteArray@@@Z" PURGE="4" COMMENT="" />
    <EXPORT ORDINAL="841" NAME="??6QTextStream@@QAEAAV0@ABVQString@@@Z" PURGE="4" COMMENT="" />
    <EXPORT ORDINAL="842" NAME="??6QTextStream@@QAEAAV0@D@Z" PURGE="4" COMMENT="" />
    <EXPORT ORDINAL="843" NAME="??6QTextStream@@QAEAAV0@F@Z" PURGE="4" COMMENT="" />
    <EXPORT ORDINAL="844" NAME="??6QTextStream@@QAEAAV0@G@Z" PURGE="4" COMMENT="" />
    <EXPORT ORDINAL="845" NAME="??6QTextStream@@QAEAAV0@H@Z" PURGE="4" COMMENT="" />
    <EXPORT ORDINAL="846" NAME="??6QTextStream@@QAEAAV0@I@Z" PURGE="4" COMMENT="" />
    <EXPORT ORDINAL="847" NAME="??6QTextStream@@QAEAAV0@J@Z" PURGE="4" COMMENT="" />
    <EXPORT ORDINAL="848" NAME="??6QTextStream@@QAEAAV0@K@Z" PURGE="4" COMMENT="" />
    <EXPORT ORDINAL="849" NAME="??6QTextStream@@QAEAAV0@M@Z" PURGE="4" COMMENT="" />
    <EXPORT ORDINAL="850" NAME="??6QTextStream@@QAEAAV0@N@Z" PURGE="8" COMMENT="" />
    <EXPORT ORDINAL="851" NAME="??6QTextStream@@QAEAAV0@PBD@Z" PURGE="4" COMMENT="" />
    <EXPORT ORDINAL="852" NAME="??6QTextStream@@QAEAAV0@PBX@Z" PURGE="4" COMMENT="" />
    <EXPORT ORDINAL="853" NAME="??6QTextStream@@QAEAAV0@VQBool@@@Z" PURGE="4" COMMENT="" />
    <EXPORT ORDINAL="854" NAME="??6QTextStream@@QAEAAV0@VQChar@@@Z" PURGE="4" COMMENT="" />
    <EXPORT ORDINAL="855" NAME="??6QTextStream@@QAEAAV0@_J@Z" PURGE="8" COMMENT="" />
    <EXPORT ORDINAL="856" NAME="??6QTextStream@@QAEAAV0@_K@Z" PURGE="8" COMMENT="" />
    <EXPORT ORDINAL="857" NAME="??7QBasicAtomicInt@@QBE_NXZ" PURGE="0" COMMENT="" />
    <EXPORT ORDINAL="858" NAME="??7QBitRef@@QBE_NXZ" PURGE="0" COMMENT="" />
    <EXPORT ORDINAL="859" NAME="??8?$QVector@VQPoint@@@@QBE_NABV0@@Z" PURGE="4" COMMENT="" />
    <EXPORT ORDINAL="860" NAME="??8?$QVector@VQPointF@@@@QBE_NABV0@@Z" PURGE="4" COMMENT="" />
    <EXPORT ORDINAL="861" NAME="??8?$QVector@VQXmlStreamAttribute@@@@QBE_NABV0@@Z" PURGE="4" COMMENT="" />
    <EXPORT ORDINAL="862" NAME="??8@YA_NABUSectionNode@QDateTimeParser@@0@Z" PURGE="0" COMMENT="" />
    <EXPORT ORDINAL="863" NAME="??8@YA_NABVQLatin1String@@ABVQStringRef@@@Z" PURGE="0" COMMENT="" />
    <EXPORT ORDINAL="864" NAME="??8@YA_NABVQRect@@0@Z" PURGE="0" COMMENT="" />
    <EXPORT ORDINAL="865" NAME="??8@YA_NABVQRectF@@0@Z" PURGE="0" COMMENT="" />
    <EXPORT ORDINAL="866" NAME="??8@YA_NABVQString@@ABVQStringRef@@@Z" PURGE="0" COMMENT="" />
    <EXPORT ORDINAL="867" NAME="??8@YA_NABVQStringRef@@0@Z" PURGE="0" COMMENT="" />
    <EXPORT ORDINAL="868" NAME="??8QBasicAtomicInt@@QBE_NH@Z" PURGE="4" COMMENT="" />
    <EXPORT ORDINAL="869" NAME="??8QBitArray@@QBE_NABV0@@Z" PURGE="4" COMMENT="" />
    <EXPORT ORDINAL="870" NAME="??8QByteArray@@QBE_NABVQString@@@Z" PURGE="4" COMMENT="" />
    <EXPORT ORDINAL="871" NAME="??8QByteRef@@QBE_ND@Z" PURGE="4" COMMENT="" />
    <EXPORT ORDINAL="872" NAME="??8QDate@@QBE_NABV0@@Z" PURGE="4" COMMENT="" />
    <EXPORT ORDINAL="873" NAME="??8QDateTime@@QBE_NABV0@@Z" PURGE="4" COMMENT="" />
    <EXPORT ORDINAL="874" NAME="??8QDir@@QBE_NABV0@@Z" PURGE="4" COMMENT="" />
    <EXPORT ORDINAL="875" NAME="??8QEasingCurve@@QBE_NABV0@@Z" PURGE="4" COMMENT="" />
    <EXPORT ORDINAL="876" NAME="??8QElapsedTimer@@QBE_NABV0@@Z" PURGE="4" COMMENT="" />
    <EXPORT ORDINAL="877" NAME="??8QFileInfo@@QAE_NABV0@@Z" PURGE="4" COMMENT="" />
    <EXPORT ORDINAL="878" NAME="??8QFileInfo@@QBE_NABV0@@Z" PURGE="4" COMMENT="" />
    <EXPORT ORDINAL="879" NAME="??8QFutureInterfaceBase@@QBE_NABV0@@Z" PURGE="4" COMMENT="" />
    <EXPORT ORDINAL="880" NAME="??8QLatin1String@@QBE_NABVQString@@@Z" PURGE="4" COMMENT="" />
    <EXPORT ORDINAL="881" NAME="??8QLatin1String@@QBE_NPBD@Z" PURGE="4" COMMENT="" />
    <EXPORT ORDINAL="882" NAME="??8QLine@@QBE_NABV0@@Z" PURGE="4" COMMENT="" />
    <EXPORT ORDINAL="883" NAME="??8QLineF@@QBE_NABV0@@Z" PURGE="4" COMMENT="" />
    <EXPORT ORDINAL="884" NAME="??8QLocale@@QBE_NABV0@@Z" PURGE="4" COMMENT="" />
    <EXPORT ORDINAL="885" NAME="??8QModelIndex@@QBE_NABV0@@Z" PURGE="4" COMMENT="" />
    <EXPORT ORDINAL="886" NAME="??8QPersistentModelIndex@@QBE_NABV0@@Z" PURGE="4" COMMENT="" />
    <EXPORT ORDINAL="887" NAME="??8QPersistentModelIndex@@QBE_NABVQModelIndex@@@Z" PURGE="4" COMMENT="" />
    <EXPORT ORDINAL="888" NAME="??8QProcessEnvironment@@QBE_NABV0@@Z" PURGE="4" COMMENT="" />
    <EXPORT ORDINAL="889" NAME="??8QRegExp@@QBE_NABV0@@Z" PURGE="4" COMMENT="" />
    <EXPORT ORDINAL="890" NAME="??8QString@@QBE_NABV0@@Z" PURGE="4" COMMENT="" />
    <EXPORT ORDINAL="891" NAME="??8QString@@QBE_NABVQByteArray@@@Z" PURGE="4" COMMENT="" />
    <EXPORT ORDINAL="892" NAME="??8QString@@QBE_NABVQLatin1String@@@Z" PURGE="4" COMMENT="" />
    <EXPORT ORDINAL="893" NAME="??8QString@@QBE_NPBD@Z" PURGE="4" COMMENT="" />
    <EXPORT ORDINAL="894" NAME="??8QTime@@QBE_NABV0@@Z" PURGE="4" COMMENT="" />
    <EXPORT ORDINAL="895" NAME="??8QUrl@@QBE_NABV0@@Z" PURGE="4" COMMENT="" />
    <EXPORT ORDINAL="896" NAME="??8QUuid@@QBE_NABU0@@Z" PURGE="4" COMMENT="" />
    <EXPORT ORDINAL="897" NAME="??8QUuid@@QBE_NABU_GUID@@@Z" PURGE="4" COMMENT="" />
    <EXPORT ORDINAL="898" NAME="??8QVariant@@QBE_NABV0@@Z" PURGE="4" COMMENT="" />
    <EXPORT ORDINAL="899" NAME="??8QXmlStreamAttribute@@QBE_NABV0@@Z" PURGE="4" COMMENT="" />
    <EXPORT ORDINAL="900" NAME="??8QXmlStreamEntityDeclaration@@QBE_NABV0@@Z" PURGE="4" COMMENT="" />
    <EXPORT ORDINAL="901" NAME="??8QXmlStreamNamespaceDeclaration@@QBE_NABV0@@Z" PURGE="4" COMMENT="" />
    <EXPORT ORDINAL="902" NAME="??8QXmlStreamNotationDeclaration@@QBE_NABV0@@Z" PURGE="4" COMMENT="" />
    <EXPORT ORDINAL="903" NAME="??8ResultIteratorBase@QtConcurrent@@QBE_NABV01@@Z" PURGE="4" COMMENT="" />
    <EXPORT ORDINAL="904" NAME="??9?$QVector@VQPoint@@@@QBE_NABV0@@Z" PURGE="4" COMMENT="" />
    <EXPORT ORDINAL="905" NAME="??9?$QVector@VQPointF@@@@QBE_NABV0@@Z" PURGE="4" COMMENT="" />
    <EXPORT ORDINAL="906" NAME="??9?$QVector@VQXmlStreamAttribute@@@@QBE_NABV0@@Z" PURGE="4" COMMENT="" />
    <EXPORT ORDINAL="907" NAME="??9@YA_NABVQRect@@0@Z" PURGE="0" COMMENT="" />
    <EXPORT ORDINAL="908" NAME="??9@YA_NABVQRectF@@0@Z" PURGE="0" COMMENT="" />
    <EXPORT ORDINAL="909" NAME="??9QBasicAtomicInt@@QBE_NH@Z" PURGE="4" COMMENT="" />
    <EXPORT ORDINAL="910" NAME="??9QBitArray@@QBE_NABV0@@Z" PURGE="4" COMMENT="" />
    <EXPORT ORDINAL="911" NAME="??9QByteArray@@QBE_NABVQString@@@Z" PURGE="4" COMMENT="" />
    <EXPORT ORDINAL="912" NAME="??9QByteRef@@QBE_ND@Z" PURGE="4" COMMENT="" />
    <EXPORT ORDINAL="913" NAME="??9QDate@@QBE_NABV0@@Z" PURGE="4" COMMENT="" />
    <EXPORT ORDINAL="914" NAME="??9QDateTime@@QBE_NABV0@@Z" PURGE="4" COMMENT="" />
    <EXPORT ORDINAL="915" NAME="??9QDir@@QBE_NABV0@@Z" PURGE="4" COMMENT="" />
    <EXPORT ORDINAL="916" NAME="??9QEasingCurve@@QBE_NABV0@@Z" PURGE="4" COMMENT="" />
    <EXPORT ORDINAL="917" NAME="??9QElapsedTimer@@QBE_NABV0@@Z" PURGE="4" COMMENT="" />
    <EXPORT ORDINAL="918" NAME="??9QFileInfo@@QAE_NABV0@@Z" PURGE="4" COMMENT="" />
    <EXPORT ORDINAL="919" NAME="??9QFileInfo@@QBE_NABV0@@Z" PURGE="4" COMMENT="" />
    <EXPORT ORDINAL="920" NAME="??9QFutureInterfaceBase@@QBE_NABV0@@Z" PURGE="4" COMMENT="" />
    <EXPORT ORDINAL="921" NAME="??9QLatin1String@@QBE_NABVQString@@@Z" PURGE="4" COMMENT="" />
    <EXPORT ORDINAL="922" NAME="??9QLatin1String@@QBE_NPBD@Z" PURGE="4" COMMENT="" />
    <EXPORT ORDINAL="923" NAME="??9QLine@@QBE_NABV0@@Z" PURGE="4" COMMENT="" />
    <EXPORT ORDINAL="924" NAME="??9QLineF@@QBE_NABV0@@Z" PURGE="4" COMMENT="" />
    <EXPORT ORDINAL="925" NAME="??9QLocale@@QBE_NABV0@@Z" PURGE="4" COMMENT="" />
    <EXPORT ORDINAL="926" NAME="??9QModelIndex@@QBE_NABV0@@Z" PURGE="4" COMMENT="" />
    <EXPORT ORDINAL="927" NAME="??9QPersistentModelIndex@@QBE_NABV0@@Z" PURGE="4" COMMENT="" />
    <EXPORT ORDINAL="928" NAME="??9QPersistentModelIndex@@QBE_NABVQModelIndex@@@Z" PURGE="4" COMMENT="" />
    <EXPORT ORDINAL="929" NAME="??9QProcessEnvironment@@QBE_NABV0@@Z" PURGE="4" COMMENT="" />
    <EXPORT ORDINAL="930" NAME="??9QRegExp@@QBE_NABV0@@Z" PURGE="4" COMMENT="" />
    <EXPORT ORDINAL="931" NAME="??9QString@@QBE_NABV0@@Z" PURGE="4" COMMENT="" />
    <EXPORT ORDINAL="932" NAME="??9QString@@QBE_NABVQByteArray@@@Z" PURGE="4" COMMENT="" />
    <EXPORT ORDINAL="933" NAME="??9QString@@QBE_NABVQLatin1String@@@Z" PURGE="4" COMMENT="" />
    <EXPORT ORDINAL="934" NAME="??9QString@@QBE_NPBD@Z" PURGE="4" COMMENT="" />
    <EXPORT ORDINAL="935" NAME="??9QTime@@QBE_NABV0@@Z" PURGE="4" COMMENT="" />
    <EXPORT ORDINAL="936" NAME="??9QUrl@@QBE_NABV0@@Z" PURGE="4" COMMENT="" />
    <EXPORT ORDINAL="937" NAME="??9QUuid@@QBE_NABU0@@Z" PURGE="4" COMMENT="" />
    <EXPORT ORDINAL="938" NAME="??9QUuid@@QBE_NABU_GUID@@@Z" PURGE="4" COMMENT="" />
    <EXPORT ORDINAL="939" NAME="??9QVariant@@QBE_NABV0@@Z" PURGE="4" COMMENT="" />
    <EXPORT ORDINAL="940" NAME="??9QXmlStreamAttribute@@QBE_NABV0@@Z" PURGE="4" COMMENT="" />
    <EXPORT ORDINAL="941" NAME="??9QXmlStreamEntityDeclaration@@QBE_NABV0@@Z" PURGE="4" COMMENT="" />
    <EXPORT ORDINAL="942" NAME="??9QXmlStreamNamespaceDeclaration@@QBE_NABV0@@Z" PURGE="4" COMMENT="" />
    <EXPORT ORDINAL="943" NAME="??9QXmlStreamNotationDeclaration@@QBE_NABV0@@Z" PURGE="4" COMMENT="" />
    <EXPORT ORDINAL="944" NAME="??9ResultIteratorBase@QtConcurrent@@QBE_NABV01@@Z" PURGE="4" COMMENT="" />
    <EXPORT ORDINAL="945" NAME="??A?$QVector@VQPoint@@@@QAEAAVQPoint@@H@Z" PURGE="4" COMMENT="" />
    <EXPORT ORDINAL="946" NAME="??A?$QVector@VQPoint@@@@QBEABVQPoint@@H@Z" PURGE="4" COMMENT="" />
    <EXPORT ORDINAL="947" NAME="??A?$QVector@VQPointF@@@@QAEAAVQPointF@@H@Z" PURGE="4" COMMENT="" />
    <EXPORT ORDINAL="948" NAME="??A?$QVector@VQPointF@@@@QBEABVQPointF@@H@Z" PURGE="4" COMMENT="" />
    <EXPORT ORDINAL="949" NAME="??A?$QVector@VQXmlStreamAttribute@@@@QAEAAVQXmlStreamAttribute@@H@Z" PURGE="4" COMMENT="" />
    <EXPORT ORDINAL="950" NAME="??A?$QVector@VQXmlStreamAttribute@@@@QBEABVQXmlStreamAttribute@@H@Z" PURGE="4" COMMENT="" />
    <EXPORT ORDINAL="951" NAME="??AQBitArray@@QAE?AVQBitRef@@H@Z" PURGE="8" COMMENT="" />
    <EXPORT ORDINAL="952" NAME="??AQBitArray@@QAE?AVQBitRef@@I@Z" PURGE="8" COMMENT="" />
    <EXPORT ORDINAL="953" NAME="??AQBitArray@@QBE_NH@Z" PURGE="4" COMMENT="" />
    <EXPORT ORDINAL="954" NAME="??AQBitArray@@QBE_NI@Z" PURGE="4" COMMENT="" />
    <EXPORT ORDINAL="955" NAME="??AQByteArray@@QAE?AVQByteRef@@H@Z" PURGE="8" COMMENT="" />
    <EXPORT ORDINAL="956" NAME="??AQByteArray@@QAE?AVQByteRef@@I@Z" PURGE="8" COMMENT="" />
    <EXPORT ORDINAL="957" NAME="??AQByteArray@@QBE?BDH@Z" PURGE="4" COMMENT="" />
    <EXPORT ORDINAL="958" NAME="??AQByteArray@@QBE?BDI@Z" PURGE="4" COMMENT="" />
    <EXPORT ORDINAL="959" NAME="??AQDir@@QBE?AVQString@@H@Z" PURGE="8" COMMENT="" />
    <EXPORT ORDINAL="960" NAME="??AQString@@QAE?AVQCharRef@@H@Z" PURGE="8" COMMENT="" />
    <EXPORT ORDINAL="961" NAME="??AQString@@QAE?AVQCharRef@@I@Z" PURGE="8" COMMENT="" />
    <EXPORT ORDINAL="962" NAME="??AQString@@QBE?BVQChar@@H@Z" PURGE="8" COMMENT="" />
    <EXPORT ORDINAL="963" NAME="??AQString@@QBE?BVQChar@@I@Z" PURGE="8" COMMENT="" />
    <EXPORT ORDINAL="964" NAME="??BQBasicAtomicInt@@QBEHXZ" PURGE="0" COMMENT="" />
    <EXPORT ORDINAL="965" NAME="??BQBitRef@@QBE_NXZ" PURGE="0" COMMENT="" />
    <EXPORT ORDINAL="966" NAME="??BQByteArray@@QBEPBDXZ" PURGE="0" COMMENT="" />
    <EXPORT ORDINAL="967" NAME="??BQByteArray@@QBEPBXXZ" PURGE="0" COMMENT="" />
    <EXPORT ORDINAL="968" NAME="??BQByteRef@@QBE?BDXZ" PURGE="0" COMMENT="" />
    <EXPORT ORDINAL="969" NAME="??BQCharRef@@QBE?AVQChar@@XZ" PURGE="4" COMMENT="" />
    <EXPORT ORDINAL="970" NAME="??BQFlag@@QBEHXZ" PURGE="0" COMMENT="" />
    <EXPORT ORDINAL="971" NAME="??BQIncompatibleFlag@@QBEHXZ" PURGE="0" COMMENT="" />
    <EXPORT ORDINAL="972" NAME="??BQPersistentModelIndex@@QBEABVQModelIndex@@XZ" PURGE="0" COMMENT="" />
    <EXPORT ORDINAL="973" NAME="??BQString@@QBEPBDXZ" PURGE="0" COMMENT="" />
    <EXPORT ORDINAL="974" NAME="??BQUrl@@QBE?AVQString@@XZ" PURGE="4" COMMENT="" />
    <EXPORT ORDINAL="975" NAME="??BQUuid@@QBE?AU_GUID@@XZ" PURGE="4" COMMENT="" />
    <EXPORT ORDINAL="976" NAME="??BQUuid@@QBE?AVQString@@XZ" PURGE="4" COMMENT="" />
    <EXPORT ORDINAL="977" NAME="??BQXmlStreamStringRef@@QBE?AVQStringRef@@XZ" PURGE="4" COMMENT="" />
    <EXPORT ORDINAL="978" NAME="??EResultIteratorBase@QtConcurrent@@QAE?AV01@XZ" PURGE="4" COMMENT="" />
    <EXPORT ORDINAL="979" NAME="??H?$QVector@VQPoint@@@@QBE?AV0@ABV0@@Z" PURGE="8" COMMENT="" />
    <EXPORT ORDINAL="980" NAME="??H?$QVector@VQPointF@@@@QBE?AV0@ABV0@@Z" PURGE="8" COMMENT="" />
    <EXPORT ORDINAL="981" NAME="??H?$QVector@VQXmlStreamAttribute@@@@QBE?AV0@ABV0@@Z" PURGE="8" COMMENT="" />
    <EXPORT ORDINAL="982" NAME="??I@YA?AVQBitArray@@ABV0@0@Z" PURGE="0" COMMENT="" />
    <EXPORT ORDINAL="983" NAME="??IQRect@@QBE?AV0@ABV0@@Z" PURGE="8" COMMENT="" />
    <EXPORT ORDINAL="984" NAME="??IQRectF@@QBE?AV0@ABV0@@Z" PURGE="8" COMMENT="" />
    <EXPORT ORDINAL="985" NAME="??M@YA_NABVQElapsedTimer@@0@Z" PURGE="0" COMMENT="" />
    <EXPORT ORDINAL="986" NAME="??M@YA_NABVQStringRef@@0@Z" PURGE="0" COMMENT="" />
    <EXPORT ORDINAL="987" NAME="??MQByteArray@@QBE_NABVQString@@@Z" PURGE="4" COMMENT="" />
    <EXPORT ORDINAL="988" NAME="??MQByteRef@@QBE_ND@Z" PURGE="4" COMMENT="" />
    <EXPORT ORDINAL="989" NAME="??MQDate@@QBE_NABV0@@Z" PURGE="4" COMMENT="" />
    <EXPORT ORDINAL="990" NAME="??MQDateTime@@QBE_NABV0@@Z" PURGE="4" COMMENT="" />
    <EXPORT ORDINAL="991" NAME="??MQLatin1String@@QBE_NABVQString@@@Z" PURGE="4" COMMENT="" />
    <EXPORT ORDINAL="992" NAME="??MQLatin1String@@QBE_NPBD@Z" PURGE="4" COMMENT="" />
    <EXPORT ORDINAL="993" NAME="??MQModelIndex@@QBE_NABV0@@Z" PURGE="4" COMMENT="" />
    <EXPORT ORDINAL="994" NAME="??MQPersistentModelIndex@@QBE_NABV0@@Z" PURGE="4" COMMENT="" />
    <EXPORT ORDINAL="995" NAME="??MQString@@QBE_NABV0@@Z" PURGE="4" COMMENT="" />
    <EXPORT ORDINAL="996" NAME="??MQString@@QBE_NABVQByteArray@@@Z" PURGE="4" COMMENT="" />
    <EXPORT ORDINAL="997" NAME="??MQString@@QBE_NABVQLatin1String@@@Z" PURGE="4" COMMENT="" />
    <EXPORT ORDINAL="998" NAME="??MQString@@QBE_NPBD@Z" PURGE="4" COMMENT="" />
    <EXPORT ORDINAL="999" NAME="??MQTime@@QBE_NABV0@@Z" PURGE="4" COMMENT="" />
    <EXPORT ORDINAL="1000" NAME="??MQUrl@@QBE_NABV0@@Z" PURGE="4" COMMENT="" />
    <EXPORT ORDINAL="1001" NAME="??MQUuid@@QBE_NABU0@@Z" PURGE="4" COMMENT="" />
    <EXPORT ORDINAL="1002" NAME="??NQByteArray@@QBE_NABVQString@@@Z" PURGE="4" COMMENT="" />
    <EXPORT ORDINAL="1003" NAME="??NQByteRef@@QBE_ND@Z" PURGE="4" COMMENT="" />
    <EXPORT ORDINAL="1004" NAME="??NQDate@@QBE_NABV0@@Z" PURGE="4" COMMENT="" />
    <EXPORT ORDINAL="1005" NAME="??NQDateTime@@QBE_NABV0@@Z" PURGE="4" COMMENT="" />
    <EXPORT ORDINAL="1006" NAME="??NQLatin1String@@QBE_NABVQString@@@Z" PURGE="4" COMMENT="" />
    <EXPORT ORDINAL="1007" NAME="??NQLatin1String@@QBE_NPBD@Z" PURGE="4" COMMENT="" />
    <EXPORT ORDINAL="1008" NAME="??NQString@@QBE_NABV0@@Z" PURGE="4" COMMENT="" />
    <EXPORT ORDINAL="1009" NAME="??NQString@@QBE_NABVQByteArray@@@Z" PURGE="4" COMMENT="" />
    <EXPORT ORDINAL="1010" NAME="??NQString@@QBE_NABVQLatin1String@@@Z" PURGE="4" COMMENT="" />
    <EXPORT ORDINAL="1011" NAME="??NQString@@QBE_NPBD@Z" PURGE="4" COMMENT="" />
    <EXPORT ORDINAL="1012" NAME="??NQTime@@QBE_NABV0@@Z" PURGE="4" COMMENT="" />
    <EXPORT ORDINAL="1013" NAME="??OQByteArray@@QBE_NABVQString@@@Z" PURGE="4" COMMENT="" />
    <EXPORT ORDINAL="1014" NAME="??OQByteRef@@QBE_ND@Z" PURGE="4" COMMENT="" />
    <EXPORT ORDINAL="1015" NAME="??OQDate@@QBE_NABV0@@Z" PURGE="4" COMMENT="" />
    <EXPORT ORDINAL="1016" NAME="??OQDateTime@@QBE_NABV0@@Z" PURGE="4" COMMENT="" />
    <EXPORT ORDINAL="1017" NAME="??OQLatin1String@@QBE_NABVQString@@@Z" PURGE="4" COMMENT="" />
    <EXPORT ORDINAL="1018" NAME="??OQLatin1String@@QBE_NPBD@Z" PURGE="4" COMMENT="" />
    <EXPORT ORDINAL="1019" NAME="??OQString@@QBE_NABV0@@Z" PURGE="4" COMMENT="" />
    <EXPORT ORDINAL="1020" NAME="??OQString@@QBE_NABVQByteArray@@@Z" PURGE="4" COMMENT="" />
    <EXPORT ORDINAL="1021" NAME="??OQString@@QBE_NABVQLatin1String@@@Z" PURGE="4" COMMENT="" />
    <EXPORT ORDINAL="1022" NAME="??OQString@@QBE_NPBD@Z" PURGE="4" COMMENT="" />
    <EXPORT ORDINAL="1023" NAME="??OQTime@@QBE_NABV0@@Z" PURGE="4" COMMENT="" />
    <EXPORT ORDINAL="1024" NAME="??OQUuid@@QBE_NABU0@@Z" PURGE="4" COMMENT="" />
    <EXPORT ORDINAL="1025" NAME="??PQByteArray@@QBE_NABVQString@@@Z" PURGE="4" COMMENT="" />
    <EXPORT ORDINAL="1026" NAME="??PQByteRef@@QBE_ND@Z" PURGE="4" COMMENT="" />
    <EXPORT ORDINAL="1027" NAME="??PQDate@@QBE_NABV0@@Z" PURGE="4" COMMENT="" />
    <EXPORT ORDINAL="1028" NAME="??PQDateTime@@QBE_NABV0@@Z" PURGE="4" COMMENT="" />
    <EXPORT ORDINAL="1029" NAME="??PQLatin1String@@QBE_NABVQString@@@Z" PURGE="4" COMMENT="" />
    <EXPORT ORDINAL="1030" NAME="??PQLatin1String@@QBE_NPBD@Z" PURGE="4" COMMENT="" />
    <EXPORT ORDINAL="1031" NAME="??PQString@@QBE_NABV0@@Z" PURGE="4" COMMENT="" />
    <EXPORT ORDINAL="1032" NAME="??PQString@@QBE_NABVQByteArray@@@Z" PURGE="4" COMMENT="" />
    <EXPORT ORDINAL="1033" NAME="??PQString@@QBE_NABVQLatin1String@@@Z" PURGE="4" COMMENT="" />
    <EXPORT ORDINAL="1034" NAME="??PQString@@QBE_NPBD@Z" PURGE="4" COMMENT="" />
    <EXPORT ORDINAL="1035" NAME="??PQTime@@QBE_NABV0@@Z" PURGE="4" COMMENT="" />
    <EXPORT ORDINAL="1036" NAME="??SQBitArray@@QBE?AV0@XZ" PURGE="4" COMMENT="" />
    <EXPORT ORDINAL="1037" NAME="??T@YA?AVQBitArray@@ABV0@0@Z" PURGE="0" COMMENT="" />
    <EXPORT ORDINAL="1038" NAME="??U@YA?AVQBitArray@@ABV0@0@Z" PURGE="0" COMMENT="" />
    <EXPORT ORDINAL="1039" NAME="??UQRect@@QBE?AV0@ABV0@@Z" PURGE="8" COMMENT="" />
    <EXPORT ORDINAL="1040" NAME="??UQRectF@@QBE?AV0@ABV0@@Z" PURGE="8" COMMENT="" />
    <EXPORT ORDINAL="1041" NAME="??XQPoint@@QAEAAV0@H@Z" PURGE="4" COMMENT="" />
    <EXPORT ORDINAL="1042" NAME="??XQPoint@@QAEAAV0@M@Z" PURGE="4" COMMENT="" />
    <EXPORT ORDINAL="1043" NAME="??XQPoint@@QAEAAV0@N@Z" PURGE="8" COMMENT="" />
    <EXPORT ORDINAL="1044" NAME="??XQPointF@@QAEAAV0@N@Z" PURGE="8" COMMENT="" />
    <EXPORT ORDINAL="1045" NAME="??XQSize@@QAEAAV0@N@Z" PURGE="8" COMMENT="" />
    <EXPORT ORDINAL="1046" NAME="??XQSizeF@@QAEAAV0@N@Z" PURGE="8" COMMENT="" />
    <EXPORT ORDINAL="1047" NAME="??Y?$QVector@VQPoint@@@@QAEAAV0@ABV0@@Z" PURGE="4" COMMENT="" />
    <EXPORT ORDINAL="1048" NAME="??Y?$QVector@VQPoint@@@@QAEAAV0@ABVQPoint@@@Z" PURGE="4" COMMENT="" />
    <EXPORT ORDINAL="1049" NAME="??Y?$QVector@VQPointF@@@@QAEAAV0@ABV0@@Z" PURGE="4" COMMENT="" />
    <EXPORT ORDINAL="1050" NAME="??Y?$QVector@VQPointF@@@@QAEAAV0@ABVQPointF@@@Z" PURGE="4" COMMENT="" />
    <EXPORT ORDINAL="1051" NAME="??Y?$QVector@VQXmlStreamAttribute@@@@QAEAAV0@ABV0@@Z" PURGE="4" COMMENT="" />
    <EXPORT ORDINAL="1052" NAME="??Y?$QVector@VQXmlStreamAttribute@@@@QAEAAV0@ABVQXmlStreamAttribute@@@Z" PURGE="4" COMMENT="" />
    <EXPORT ORDINAL="1053" NAME="??YQByteArray@@QAEAAV0@ABV0@@Z" PURGE="4" COMMENT="" />
    <EXPORT ORDINAL="1054" NAME="??YQByteArray@@QAEAAV0@ABVQString@@@Z" PURGE="4" COMMENT="" />
    <EXPORT ORDINAL="1055" NAME="??YQByteArray@@QAEAAV0@D@Z" PURGE="4" COMMENT="" />
    <EXPORT ORDINAL="1056" NAME="??YQByteArray@@QAEAAV0@PBD@Z" PURGE="4" COMMENT="" />
    <EXPORT ORDINAL="1057" NAME="??YQPoint@@QAEAAV0@ABV0@@Z" PURGE="4" COMMENT="" />
    <EXPORT ORDINAL="1058" NAME="??YQPointF@@QAEAAV0@ABV0@@Z" PURGE="4" COMMENT="" />
    <EXPORT ORDINAL="1059" NAME="??YQSize@@QAEAAV0@ABV0@@Z" PURGE="4" COMMENT="" />
    <EXPORT ORDINAL="1060" NAME="??YQSizeF@@QAEAAV0@ABV0@@Z" PURGE="4" COMMENT="" />
    <EXPORT ORDINAL="1061" NAME="??YQString@@QAEAAV0@ABV0@@Z" PURGE="4" COMMENT="" />
    <EXPORT ORDINAL="1062" NAME="??YQString@@QAEAAV0@ABVQByteArray@@@Z" PURGE="4" COMMENT="" />
    <EXPORT ORDINAL="1063" NAME="??YQString@@QAEAAV0@ABVQLatin1String@@@Z" PURGE="4" COMMENT="" />
    <EXPORT ORDINAL="1064" NAME="??YQString@@QAEAAV0@ABVQStringRef@@@Z" PURGE="4" COMMENT="" />
    <EXPORT ORDINAL="1065" NAME="??YQString@@QAEAAV0@D@Z" PURGE="4" COMMENT="" />
    <EXPORT ORDINAL="1066" NAME="??YQString@@QAEAAV0@PBD@Z" PURGE="4" COMMENT="" />
    <EXPORT ORDINAL="1067" NAME="??YQString@@QAEAAV0@VQChar@@@Z" PURGE="4" COMMENT="" />
    <EXPORT ORDINAL="1068" NAME="??YQString@@QAEAAV0@W4SpecialCharacter@QChar@@@Z" PURGE="4" COMMENT="" />
    <EXPORT ORDINAL="1069" NAME="??ZQPoint@@QAEAAV0@ABV0@@Z" PURGE="4" COMMENT="" />
    <EXPORT ORDINAL="1070" NAME="??ZQPointF@@QAEAAV0@ABV0@@Z" PURGE="4" COMMENT="" />
    <EXPORT ORDINAL="1071" NAME="??ZQSize@@QAEAAV0@ABV0@@Z" PURGE="4" COMMENT="" />
    <EXPORT ORDINAL="1072" NAME="??ZQSizeF@@QAEAAV0@ABV0@@Z" PURGE="4" COMMENT="" />
    <EXPORT ORDINAL="1073" NAME="??_0QPoint@@QAEAAV0@N@Z" PURGE="8" COMMENT="" />
    <EXPORT ORDINAL="1074" NAME="??_0QPointF@@QAEAAV0@N@Z" PURGE="8" COMMENT="" />
    <EXPORT ORDINAL="1075" NAME="??_0QSize@@QAEAAV0@N@Z" PURGE="8" COMMENT="" />
    <EXPORT ORDINAL="1076" NAME="??_0QSizeF@@QAEAAV0@N@Z" PURGE="8" COMMENT="" />
    <EXPORT ORDINAL="1077" NAME="??_4QBitArray@@QAEAAV0@ABV0@@Z" PURGE="4" COMMENT="" />
    <EXPORT ORDINAL="1078" NAME="??_4QRect@@QAEAAV0@ABV0@@Z" PURGE="4" COMMENT="" />
    <EXPORT ORDINAL="1079" NAME="??_4QRectF@@QAEAAV0@ABV0@@Z" PURGE="4" COMMENT="" />
    <EXPORT ORDINAL="1080" NAME="??_5QBitArray@@QAEAAV0@ABV0@@Z" PURGE="4" COMMENT="" />
    <EXPORT ORDINAL="1081" NAME="??_5QRect@@QAEAAV0@ABV0@@Z" PURGE="4" COMMENT="" />
    <EXPORT ORDINAL="1082" NAME="??_5QRectF@@QAEAAV0@ABV0@@Z" PURGE="4" COMMENT="" />
    <EXPORT ORDINAL="1083" NAME="??_6QBitArray@@QAEAAV0@ABV0@@Z" PURGE="4" COMMENT="" />
    <EXPORT ORDINAL="1084" NAME="??_7Exception@QtConcurrent@@6B@" PURGE="-1" COMMENT="" />
    <EXPORT ORDINAL="1085" NAME="??_7QAbstractAnimation@@6B@" PURGE="-1" COMMENT="" />
    <EXPORT ORDINAL="1086" NAME="??_7QAbstractDynamicMetaObject@@6B@" PURGE="-1" COMMENT="" />
    <EXPORT ORDINAL="1087" NAME="??_7QAbstractEventDispatcher@@6B@" PURGE="-1" COMMENT="" />
    <EXPORT ORDINAL="1088" NAME="??_7QAbstractEventDispatcherPrivate@@6B@" PURGE="-1" COMMENT="" />
    <EXPORT ORDINAL="1089" NAME="??_7QAbstractFileEngine@@6B@" PURGE="-1" COMMENT="" />
    <EXPORT ORDINAL="1090" NAME="??_7QAbstractFileEngineHandler@@6B@" PURGE="-1" COMMENT="" />
    <EXPORT ORDINAL="1091" NAME="??_7QAbstractFileEngineIterator@@6B@" PURGE="-1" COMMENT="" />
    <EXPORT ORDINAL="1092" NAME="??_7QAbstractItemModel@@6B@" PURGE="-1" COMMENT="" />
    <EXPORT ORDINAL="1093" NAME="??_7QAbstractItemModelPrivate@@6B@" PURGE="-1" COMMENT="" />
    <EXPORT ORDINAL="1094" NAME="??_7QAbstractListModel@@6B@" PURGE="-1" COMMENT="" />
    <EXPORT ORDINAL="1095" NAME="??_7QAbstractState@@6B@" PURGE="-1" COMMENT="" />
    <EXPORT ORDINAL="1096" NAME="??_7QAbstractTableModel@@6B@" PURGE="-1" COMMENT="" />
    <EXPORT ORDINAL="1097" NAME="??_7QAbstractTransition@@6B@" PURGE="-1" COMMENT="" />
    <EXPORT ORDINAL="1098" NAME="??_7QAbstractTransitionPrivate@@6B@" PURGE="-1" COMMENT="" />
    <EXPORT ORDINAL="1099" NAME="??_7QAnimationDriver@@6B@" PURGE="-1" COMMENT="" />
    <EXPORT ORDINAL="1100" NAME="??_7QAnimationDriverPrivate@@6B@" PURGE="-1" COMMENT="" />
    <EXPORT ORDINAL="1101" NAME="??_7QAnimationGroup@@6B@" PURGE="-1" COMMENT="" />
    <EXPORT ORDINAL="1102" NAME="??_7QBuffer@@6B@" PURGE="-1" COMMENT="" />
    <EXPORT ORDINAL="1103" NAME="??_7QChildEvent@@6B@" PURGE="-1" COMMENT="" />
    <EXPORT ORDINAL="1104" NAME="??_7QCoreApplication@@6B@" PURGE="-1" COMMENT="" />
    <EXPORT ORDINAL="1105" NAME="??_7QCoreApplicationPrivate@@6B@" PURGE="-1" COMMENT="" />
    <EXPORT ORDINAL="1106" NAME="??_7QCustomEvent@@6B@" PURGE="-1" COMMENT="" />
    <EXPORT ORDINAL="1107" NAME="??_7QDataStream@@6B@" PURGE="-1" COMMENT="" />
    <EXPORT ORDINAL="1108" NAME="??_7QDateTimeParser@@6B@" PURGE="-1" COMMENT="" />
    <EXPORT ORDINAL="1109" NAME="??_7QDirIterator@@6B@" PURGE="-1" COMMENT="" />
    <EXPORT ORDINAL="1110" NAME="??_7QDynamicPropertyChangeEvent@@6B@" PURGE="-1" COMMENT="" />
    <EXPORT ORDINAL="1111" NAME="??_7QEvent@@6B@" PURGE="-1" COMMENT="" />
    <EXPORT ORDINAL="1112" NAME="??_7QEventDispatcherWin32@@6B@" PURGE="-1" COMMENT="" />
    <EXPORT ORDINAL="1113" NAME="??_7QEventLoop@@6B@" PURGE="-1" COMMENT="" />
    <EXPORT ORDINAL="1114" NAME="??_7QEventTransition@@6B@" PURGE="-1" COMMENT="" />
    <EXPORT ORDINAL="1115" NAME="??_7QEventTransitionPrivate@@6B@" PURGE="-1" COMMENT="" />
    <EXPORT ORDINAL="1116" NAME="??_7QFSFileEngine@@6B@" PURGE="-1" COMMENT="" />
    <EXPORT ORDINAL="1117" NAME="??_7QFactoryInterface@@6B@" PURGE="-1" COMMENT="" />
    <EXPORT ORDINAL="1118" NAME="??_7QFactoryLoader@@6B@" PURGE="-1" COMMENT="" />
    <EXPORT ORDINAL="1119" NAME="??_7QFile@@6B@" PURGE="-1" COMMENT="" />
    <EXPORT ORDINAL="1120" NAME="??_7QFileSystemWatcher@@6B@" PURGE="-1" COMMENT="" />
    <EXPORT ORDINAL="1121" NAME="??_7QFinalState@@6B@" PURGE="-1" COMMENT="" />
    <EXPORT ORDINAL="1122" NAME="??_7QFutureInterfaceBase@@6B@" PURGE="-1" COMMENT="" />
    <EXPORT ORDINAL="1123" NAME="??_7QFutureWatcherBase@@6B@" PURGE="-1" COMMENT="" />
    <EXPORT ORDINAL="1124" NAME="??_7QHistoryState@@6B@" PURGE="-1" COMMENT="" />
    <EXPORT ORDINAL="1125" NAME="??_7QIODevice@@6B@" PURGE="-1" COMMENT="" />
    <EXPORT ORDINAL="1126" NAME="??_7QIODevicePrivate@@6B@" PURGE="-1" COMMENT="" />
    <EXPORT ORDINAL="1127" NAME="??_7QLibrary@@6B@" PURGE="-1" COMMENT="" />
    <EXPORT ORDINAL="1128" NAME="??_7QMetaCallEvent@@6B@" PURGE="-1" COMMENT="" />
    <EXPORT ORDINAL="1129" NAME="??_7QMimeData@@6B@" PURGE="-1" COMMENT="" />
    <EXPORT ORDINAL="1130" NAME="??_7QNonContiguousByteDevice@@6B@" PURGE="-1" COMMENT="" />
    <EXPORT ORDINAL="1131" NAME="??_7QObject@@6B@" PURGE="-1" COMMENT="" />
    <EXPORT ORDINAL="1132" NAME="??_7QObjectCleanupHandler@@6B@" PURGE="-1" COMMENT="" />
    <EXPORT ORDINAL="1133" NAME="??_7QObjectPrivate@@6B@" PURGE="-1" COMMENT="" />
    <EXPORT ORDINAL="1134" NAME="??_7QObjectUserData@@6B@" PURGE="-1" COMMENT="" />
    <EXPORT ORDINAL="1135" NAME="??_7QParallelAnimationGroup@@6B@" PURGE="-1" COMMENT="" />
    <EXPORT ORDINAL="1136" NAME="??_7QPauseAnimation@@6B@" PURGE="-1" COMMENT="" />
    <EXPORT ORDINAL="1137" NAME="??_7QPluginLoader@@6B@" PURGE="-1" COMMENT="" />
    <EXPORT ORDINAL="1138" NAME="??_7QProcess@@6B@" PURGE="-1" COMMENT="" />
    <EXPORT ORDINAL="1139" NAME="??_7QPropertyAnimation@@6B@" PURGE="-1" COMMENT="" />
    <EXPORT ORDINAL="1140" NAME="??_7QSequentialAnimationGroup@@6B@" PURGE="-1" COMMENT="" />
    <EXPORT ORDINAL="1141" NAME="??_7QSettings@@6B@" PURGE="-1" COMMENT="" />
    <EXPORT ORDINAL="1142" NAME="??_7QSharedMemory@@6B@" PURGE="-1" COMMENT="" />
    <EXPORT ORDINAL="1143" NAME="??_7QSignalMapper@@6B@" PURGE="-1" COMMENT="" />
    <EXPORT ORDINAL="1144" NAME="??_7QSignalTransition@@6B@" PURGE="-1" COMMENT="" />
    <EXPORT ORDINAL="1145" NAME="??_7QSocketNotifier@@6B@" PURGE="-1" COMMENT="" />
    <EXPORT ORDINAL="1146" NAME="??_7QState@@6B@" PURGE="-1" COMMENT="" />
    <EXPORT ORDINAL="1147" NAME="??_7QStateMachine@@6B@" PURGE="-1" COMMENT="" />
    <EXPORT ORDINAL="1148" NAME="??_7QStateMachinePrivate@@6B@" PURGE="-1" COMMENT="" />
    <EXPORT ORDINAL="1149" NAME="??_7QSystemLocale@@6B@" PURGE="-1" COMMENT="" />
    <EXPORT ORDINAL="1150" NAME="??_7QTemporaryFile@@6B@" PURGE="-1" COMMENT="" />
    <EXPORT ORDINAL="1151" NAME="??_7QTextCodec@@6B@" PURGE="-1" COMMENT="" />
    <EXPORT ORDINAL="1152" NAME="??_7QTextCodecFactoryInterface@@6B@" PURGE="-1" COMMENT="" />
    <EXPORT ORDINAL="1153" NAME="??_7QTextCodecPlugin@@6BQObject@@@" PURGE="-1" COMMENT="" />
    <EXPORT ORDINAL="1154" NAME="??_7QTextCodecPlugin@@6BQTextCodecFactoryInterface@@@" PURGE="-1" COMMENT="" />
    <EXPORT ORDINAL="1155" NAME="??_7QTextIStream@@6B@" PURGE="-1" COMMENT="" />
    <EXPORT ORDINAL="1156" NAME="??_7QTextOStream@@6B@" PURGE="-1" COMMENT="" />
    <EXPORT ORDINAL="1157" NAME="??_7QTextStream@@6B@" PURGE="-1" COMMENT="" />
    <EXPORT ORDINAL="1158" NAME="??_7QThread@@6B@" PURGE="-1" COMMENT="" />
    <EXPORT ORDINAL="1159" NAME="??_7QThreadPool@@6B@" PURGE="-1" COMMENT="" />
    <EXPORT ORDINAL="1160" NAME="??_7QTimeLine@@6B@" PURGE="-1" COMMENT="" />
    <EXPORT ORDINAL="1161" NAME="??_7QTimer@@6B@" PURGE="-1" COMMENT="" />
    <EXPORT ORDINAL="1162" NAME="??_7QTimerEvent@@6B@" PURGE="-1" COMMENT="" />
    <EXPORT ORDINAL="1163" NAME="??_7QTranslator@@6B@" PURGE="-1" COMMENT="" />
    <EXPORT ORDINAL="1164" NAME="??_7QUnifiedTimer@@6B@" PURGE="-1" COMMENT="" />
    <EXPORT ORDINAL="1165" NAME="??_7QVariantAnimation@@6B@" PURGE="-1" COMMENT="" />
    <EXPORT ORDINAL="1166" NAME="??_7QWinEventNotifier@@6B@" PURGE="-1" COMMENT="" />
    <EXPORT ORDINAL="1167" NAME="??_7QWindowsPipeWriter@@6B@" PURGE="-1" COMMENT="" />
    <EXPORT ORDINAL="1168" NAME="??_7QXmlStreamEntityResolver@@6B@" PURGE="-1" COMMENT="" />
    <EXPORT ORDINAL="1169" NAME="??_7ResultStoreBase@QtConcurrent@@6B@" PURGE="-1" COMMENT="" />
    <EXPORT ORDINAL="1170" NAME="??_7SignalEvent@QStateMachine@@6B@" PURGE="-1" COMMENT="" />
    <EXPORT ORDINAL="1171" NAME="??_7ThreadEngineBase@QtConcurrent@@6B@" PURGE="-1" COMMENT="" />
    <EXPORT ORDINAL="1172" NAME="??_7UnhandledException@QtConcurrent@@6B@" PURGE="-1" COMMENT="" />
    <EXPORT ORDINAL="1173" NAME="??_7WrappedEvent@QStateMachine@@6B@" PURGE="-1" COMMENT="" />
    <EXPORT ORDINAL="1174" NAME="??_FConverterState@QTextCodec@@QAEXXZ" PURGE="0" COMMENT="" />
    <EXPORT ORDINAL="1175" NAME="??_FQAbstractAnimation@@QAEXXZ" PURGE="0" COMMENT="" />
    <EXPORT ORDINAL="1176" NAME="??_FQAbstractEventDispatcher@@QAEXXZ" PURGE="0" COMMENT="" />
    <EXPORT ORDINAL="1177" NAME="??_FQAbstractItemModel@@QAEXXZ" PURGE="0" COMMENT="" />
    <EXPORT ORDINAL="1178" NAME="??_FQAbstractListModel@@QAEXXZ" PURGE="0" COMMENT="" />
    <EXPORT ORDINAL="1179" NAME="??_FQAbstractState@@QAEXXZ" PURGE="0" COMMENT="" />
    <EXPORT ORDINAL="1180" NAME="??_FQAbstractTableModel@@QAEXXZ" PURGE="0" COMMENT="" />
    <EXPORT ORDINAL="1181" NAME="??_FQAbstractTransition@@QAEXXZ" PURGE="0" COMMENT="" />
    <EXPORT ORDINAL="1182" NAME="??_FQAnimationDriver@@QAEXXZ" PURGE="0" COMMENT="" />
    <EXPORT ORDINAL="1183" NAME="??_FQAnimationGroup@@QAEXXZ" PURGE="0" COMMENT="" />
    <EXPORT ORDINAL="1184" NAME="??_FQAtomicInt@@QAEXXZ" PURGE="0" COMMENT="" />
    <EXPORT ORDINAL="1185" NAME="??_FQBuffer@@QAEXXZ" PURGE="0" COMMENT="" />
    <EXPORT ORDINAL="1186" NAME="??_FQDir@@QAEXXZ" PURGE="0" COMMENT="" />
    <EXPORT ORDINAL="1187" NAME="??_FQEasingCurve@@QAEXXZ" PURGE="0" COMMENT="" />
    <EXPORT ORDINAL="1188" NAME="??_FQEventDispatcherWin32@@QAEXXZ" PURGE="0" COMMENT="" />
    <EXPORT ORDINAL="1189" NAME="??_FQEventLoop@@QAEXXZ" PURGE="0" COMMENT="" />
    <EXPORT ORDINAL="1190" NAME="??_FQEventTransition@@QAEXXZ" PURGE="0" COMMENT="" />
    <EXPORT ORDINAL="1191" NAME="??_FQFileSystemWatcher@@QAEXXZ" PURGE="0" COMMENT="" />
    <EXPORT ORDINAL="1192" NAME="??_FQFinalState@@QAEXXZ" PURGE="0" COMMENT="" />
    <EXPORT ORDINAL="1193" NAME="??_FQFutureInterfaceBase@@QAEXXZ" PURGE="0" COMMENT="" />
    <EXPORT ORDINAL="1194" NAME="??_FQFutureWatcherBase@@QAEXXZ" PURGE="0" COMMENT="" />
    <EXPORT ORDINAL="1195" NAME="??_FQGenericArgument@@QAEXXZ" PURGE="0" COMMENT="" />
    <EXPORT ORDINAL="1196" NAME="??_FQGenericReturnArgument@@QAEXXZ" PURGE="0" COMMENT="" />
    <EXPORT ORDINAL="1197" NAME="??_FQHistoryState@@QAEXXZ" PURGE="0" COMMENT="" />
    <EXPORT ORDINAL="1198" NAME="??_FQLibrary@@QAEXXZ" PURGE="0" COMMENT="" />
    <EXPORT ORDINAL="1199" NAME="??_FQMutex@@QAEXXZ" PURGE="0" COMMENT="" />
    <EXPORT ORDINAL="1200" NAME="??_FQMutexPool@@QAEXXZ" PURGE="0" COMMENT="" />
    <EXPORT ORDINAL="1201" NAME="??_FQObject@@QAEXXZ" PURGE="0" COMMENT="" />
    <EXPORT ORDINAL="1202" NAME="??_FQObjectPrivate@@QAEXXZ" PURGE="0" COMMENT="" />
    <EXPORT ORDINAL="1203" NAME="??_FQParallelAnimationGroup@@QAEXXZ" PURGE="0" COMMENT="" />
    <EXPORT ORDINAL="1204" NAME="??_FQPauseAnimation@@QAEXXZ" PURGE="0" COMMENT="" />
    <EXPORT ORDINAL="1205" NAME="??_FQPluginLoader@@QAEXXZ" PURGE="0" COMMENT="" />
    <EXPORT ORDINAL="1206" NAME="??_FQProcess@@QAEXXZ" PURGE="0" COMMENT="" />
    <EXPORT ORDINAL="1207" NAME="??_FQPropertyAnimation@@QAEXXZ" PURGE="0" COMMENT="" />
    <EXPORT ORDINAL="1208" NAME="??_FQResource@@QAEXXZ" PURGE="0" COMMENT="" />
    <EXPORT ORDINAL="1209" NAME="??_FQSemaphore@@QAEXXZ" PURGE="0" COMMENT="" />
    <EXPORT ORDINAL="1210" NAME="??_FQSequentialAnimationGroup@@QAEXXZ" PURGE="0" COMMENT="" />
    <EXPORT ORDINAL="1211" NAME="??_FQSettings@@QAEXXZ" PURGE="0" COMMENT="" />
    <EXPORT ORDINAL="1212" NAME="??_FQSharedMemory@@QAEXXZ" PURGE="0" COMMENT="" />
    <EXPORT ORDINAL="1213" NAME="??_FQSignalMapper@@QAEXXZ" PURGE="0" COMMENT="" />
    <EXPORT ORDINAL="1214" NAME="??_FQSignalTransition@@QAEXXZ" PURGE="0" COMMENT="" />
    <EXPORT ORDINAL="1215" NAME="??_FQState@@QAEXXZ" PURGE="0" COMMENT="" />
    <EXPORT ORDINAL="1216" NAME="??_FQStateMachine@@QAEXXZ" PURGE="0" COMMENT="" />
    <EXPORT ORDINAL="1217" NAME="??_FQTextCodecPlugin@@QAEXXZ" PURGE="0" COMMENT="" />
    <EXPORT ORDINAL="1218" NAME="??_FQThread@@QAEXXZ" PURGE="0" COMMENT="" />
    <EXPORT ORDINAL="1219" NAME="??_FQThreadPool@@QAEXXZ" PURGE="0" COMMENT="" />
    <EXPORT ORDINAL="1220" NAME="??_FQTimeLine@@QAEXXZ" PURGE="0" COMMENT="" />
    <EXPORT ORDINAL="1221" NAME="??_FQTimer@@QAEXXZ" PURGE="0" COMMENT="" />
    <EXPORT ORDINAL="1222" NAME="??_FQTranslator@@QAEXXZ" PURGE="0" COMMENT="" />
    <EXPORT ORDINAL="1223" NAME="??_FQVariantAnimation@@QAEXXZ" PURGE="0" COMMENT="" />
    <EXPORT ORDINAL="1224" NAME="??_FQWinEventNotifier@@QAEXXZ" PURGE="0" COMMENT="" />
    <EXPORT ORDINAL="1225" NAME="?QStringList_contains@QtPrivate@@YA?AVQBool@@PBVQStringList@@ABVQString@@W4CaseSensitivity@Qt@@@Z" PURGE="0" COMMENT="" />
    <EXPORT ORDINAL="1226" NAME="?QStringList_filter@QtPrivate@@YA?AVQStringList@@PBV2@ABVQRegExp@@@Z" PURGE="0" COMMENT="" />
    <EXPORT ORDINAL="1227" NAME="?QStringList_filter@QtPrivate@@YA?AVQStringList@@PBV2@ABVQString@@W4CaseSensitivity@Qt@@@Z" PURGE="0" COMMENT="" />
    <EXPORT ORDINAL="1228" NAME="?QStringList_indexOf@QtPrivate@@YAHPBVQStringList@@AAVQRegExp@@H@Z" PURGE="0" COMMENT="" />
    <EXPORT ORDINAL="1229" NAME="?QStringList_indexOf@QtPrivate@@YAHPBVQStringList@@ABVQRegExp@@H@Z" PURGE="0" COMMENT="" />
    <EXPORT ORDINAL="1230" NAME="?QStringList_join@QtPrivate@@YA?AVQString@@PBVQStringList@@ABV2@@Z" PURGE="0" COMMENT="" />
    <EXPORT ORDINAL="1231" NAME="?QStringList_lastIndexOf@QtPrivate@@YAHPBVQStringList@@AAVQRegExp@@H@Z" PURGE="0" COMMENT="" />
    <EXPORT ORDINAL="1232" NAME="?QStringList_lastIndexOf@QtPrivate@@YAHPBVQStringList@@ABVQRegExp@@H@Z" PURGE="0" COMMENT="" />
    <EXPORT ORDINAL="1233" NAME="?QStringList_removeDuplicates@QtPrivate@@YAHPAVQStringList@@@Z" PURGE="0" COMMENT="" />
    <EXPORT ORDINAL="1234" NAME="?QStringList_replaceInStrings@QtPrivate@@YAXPAVQStringList@@ABVQRegExp@@ABVQString@@@Z" PURGE="0" COMMENT="" />
    <EXPORT ORDINAL="1235" NAME="?QStringList_replaceInStrings@QtPrivate@@YAXPAVQStringList@@ABVQString@@1W4CaseSensitivity@Qt@@@Z" PURGE="0" COMMENT="" />
    <EXPORT ORDINAL="1236" NAME="?QStringList_sort@QtPrivate@@YAXPAVQStringList@@@Z" PURGE="0" COMMENT="" />
    <EXPORT ORDINAL="1237" NAME="?WindowsVersion@QSysInfo@@2W4WinVersion@1@B" PURGE="-1" COMMENT="" />
    <EXPORT ORDINAL="1238" NAME="?_q_animationFinished@QStateMachinePrivate@@QAEXXZ" PURGE="0" COMMENT="" />
    <EXPORT ORDINAL="1239" NAME="?_q_process@QStateMachinePrivate@@QAEXXZ" PURGE="0" COMMENT="" />
    <EXPORT ORDINAL="1240" NAME="?_q_reregisterTimers@QObjectPrivate@@QAEXPAX@Z" PURGE="4" COMMENT="" />
    <EXPORT ORDINAL="1241" NAME="?_q_start@QStateMachinePrivate@@QAEXXZ" PURGE="0" COMMENT="" />
    <EXPORT ORDINAL="1242" NAME="?aboutToBlock@QAbstractEventDispatcher@@IAEXXZ" PURGE="0" COMMENT="" />
    <EXPORT ORDINAL="1243" NAME="?aboutToClose@QIODevice@@IAEXXZ" PURGE="0" COMMENT="" />
    <EXPORT ORDINAL="1244" NAME="?aboutToQuit@QCoreApplication@@IAEXXZ" PURGE="0" COMMENT="" />
    <EXPORT ORDINAL="1245" NAME="?absFilePath@QDir@@QBE?AVQString@@ABV2@_N@Z" PURGE="12" COMMENT="" />
    <EXPORT ORDINAL="1246" NAME="?absFilePath@QFileInfo@@QBE?AVQString@@XZ" PURGE="4" COMMENT="" />
    <EXPORT ORDINAL="1247" NAME="?absPath@QDir@@QBE?AVQString@@XZ" PURGE="4" COMMENT="" />
    <EXPORT ORDINAL="1248" NAME="?absoluteDir@QFileInfo@@QBE?AVQDir@@XZ" PURGE="4" COMMENT="" />
    <EXPORT ORDINAL="1249" NAME="?absoluteFilePath@QDir@@QBE?AVQString@@ABV2@@Z" PURGE="8" COMMENT="" />
    <EXPORT ORDINAL="1250" NAME="?absoluteFilePath@QFileInfo@@QBE?AVQString@@XZ" PURGE="4" COMMENT="" />
    <EXPORT ORDINAL="1251" NAME="?absoluteFilePath@QResource@@QBE?AVQString@@XZ" PURGE="4" COMMENT="" />
    <EXPORT ORDINAL="1252" NAME="?absoluteMax@QDateTimeParser@@QBEHHABVQDateTime@@@Z" PURGE="8" COMMENT="" />
    <EXPORT ORDINAL="1253" NAME="?absoluteMin@QDateTimeParser@@QBEHH@Z" PURGE="4" COMMENT="" />
    <EXPORT ORDINAL="1254" NAME="?absolutePath@QDir@@QBE?AVQString@@XZ" PURGE="4" COMMENT="" />
    <EXPORT ORDINAL="1255" NAME="?absolutePath@QFileInfo@@QBE?AVQString@@XZ" PURGE="4" COMMENT="" />
    <EXPORT ORDINAL="1256" NAME="?accept@QEvent@@QAEXXZ" PURGE="0" COMMENT="" />
    <EXPORT ORDINAL="1257" NAME="?access@QMetaMethod@@QBE?AW4Access@1@XZ" PURGE="0" COMMENT="" />
    <EXPORT ORDINAL="1258" NAME="?acquire@QSemaphore@@QAEXH@Z" PURGE="4" COMMENT="" />
    <EXPORT ORDINAL="1259" NAME="?acquire@QSystemSemaphore@@QAE_NXZ" PURGE="0" COMMENT="" />
    <EXPORT ORDINAL="1260" NAME="?acquireBarrierSemaphore@ThreadEngineBase@QtConcurrent@@QAEXXZ" PURGE="0" COMMENT="" />
    <EXPORT ORDINAL="1261" NAME="?activate@QMetaObject@@SAXPAVQObject@@HHPAPAX@Z" PURGE="0" COMMENT="" />
    <EXPORT ORDINAL="1262" NAME="?activate@QMetaObject@@SAXPAVQObject@@HPAPAX@Z" PURGE="0" COMMENT="" />
    <EXPORT ORDINAL="1263" NAME="?activate@QMetaObject@@SAXPAVQObject@@PBU1@HHPAPAX@Z" PURGE="0" COMMENT="" />
    <EXPORT ORDINAL="1264" NAME="?activate@QMetaObject@@SAXPAVQObject@@PBU1@HPAPAX@Z" PURGE="0" COMMENT="" />
    <EXPORT ORDINAL="1265" NAME="?activateCallbacks@QInternal@@SA_NW4Callback@1@PAPAX@Z" PURGE="0" COMMENT="" />
    <EXPORT ORDINAL="1266" NAME="?activateEventNotifiers@QEventDispatcherWin32@@QAEXXZ" PURGE="0" COMMENT="" />
    <EXPORT ORDINAL="1267" NAME="?activated@QSocketNotifier@@IAEXH@Z" PURGE="4" COMMENT="" />
    <EXPORT ORDINAL="1268" NAME="?activated@QWinEventNotifier@@IAEXPAX@Z" PURGE="4" COMMENT="" />
    <EXPORT ORDINAL="1269" NAME="?activeThreadCount@QThreadPool@@QBEHXZ" PURGE="0" COMMENT="" />
    <EXPORT ORDINAL="1270" NAME="?add@QObjectCleanupHandler@@QAEPAVQObject@@PAV2@@Z" PURGE="4" COMMENT="" />
    <EXPORT ORDINAL="1271" NAME="?addAnimation@QAbstractTransition@@QAEXPAVQAbstractAnimation@@@Z" PURGE="4" COMMENT="" />
    <EXPORT ORDINAL="1272" NAME="?addAnimation@QAnimationGroup@@QAEXPAVQAbstractAnimation@@@Z" PURGE="4" COMMENT="" />
    <EXPORT ORDINAL="1273" NAME="?addConnection@QObjectPrivate@@QAEXHPAUConnection@1@@Z" PURGE="8" COMMENT="" />
    <EXPORT ORDINAL="1274" NAME="?addCoords@QRect@@QAEXHHHH@Z" PURGE="16" COMMENT="" />
    <EXPORT ORDINAL="1275" NAME="?addData@QCryptographicHash@@QAEXABVQByteArray@@@Z" PURGE="4" COMMENT="" />
    <EXPORT ORDINAL="1276" NAME="?addData@QCryptographicHash@@QAEXPBDH@Z" PURGE="8" COMMENT="" />
    <EXPORT ORDINAL="1277" NAME="?addData@QXmlStreamReader@@QAEXABVQByteArray@@@Z" PURGE="4" COMMENT="" />
    <EXPORT ORDINAL="1278" NAME="?addData@QXmlStreamReader@@QAEXABVQString@@@Z" PURGE="4" COMMENT="" />
    <EXPORT ORDINAL="1279" NAME="?addData@QXmlStreamReader@@QAEXPBD@Z" PURGE="4" COMMENT="" />
    <EXPORT ORDINAL="1280" NAME="?addDays@QDate@@QBE?AV1@H@Z" PURGE="8" COMMENT="" />
    <EXPORT ORDINAL="1281" NAME="?addDays@QDateTime@@QBE?AV1@H@Z" PURGE="8" COMMENT="" />
    <EXPORT ORDINAL="1282" NAME="?addDefaultAnimation@QStateMachine@@QAEXPAVQAbstractAnimation@@@Z" PURGE="4" COMMENT="" />
    <EXPORT ORDINAL="1283" NAME="?addEncodedQueryItem@QUrl@@QAEXABVQByteArray@@0@Z" PURGE="8" COMMENT="" />
    <EXPORT ORDINAL="1284" NAME="?addExtraNamespaceDeclaration@QXmlStreamReader@@QAEXABVQXmlStreamNamespaceDeclaration@@@Z" PURGE="4" COMMENT="" />
    <EXPORT ORDINAL="1285" NAME="?addExtraNamespaceDeclarations@QXmlStreamReader@@QAEXABV?$QVector@VQXmlStreamNamespaceDeclaration@@@@@Z" PURGE="4" COMMENT="" />
    <EXPORT ORDINAL="1286" NAME="?addGuard@QMetaObject@@SAXPAPAVQObject@@@Z" PURGE="0" COMMENT="" />
    <EXPORT ORDINAL="1287" NAME="?addLibraryPath@QCoreApplication@@SAXABVQString@@@Z" PURGE="0" COMMENT="" />
    <EXPORT ORDINAL="1288" NAME="?addMSecs@QDateTime@@QBE?AV1@_J@Z" PURGE="12" COMMENT="" />
    <EXPORT ORDINAL="1289" NAME="?addMSecs@QTime@@QBE?AV1@H@Z" PURGE="8" COMMENT="" />
    <EXPORT ORDINAL="1290" NAME="?addMonths@QDate@@QBE?AV1@H@Z" PURGE="8" COMMENT="" />
    <EXPORT ORDINAL="1291" NAME="?addMonths@QDateTime@@QBE?AV1@H@Z" PURGE="8" COMMENT="" />
    <EXPORT ORDINAL="1292" NAME="?addPath@QFileSystemWatcher@@QAEXABVQString@@@Z" PURGE="4" COMMENT="" />
    <EXPORT ORDINAL="1293" NAME="?addPath@QUrl@@QAEXABVQString@@@Z" PURGE="4" COMMENT="" />
    <EXPORT ORDINAL="1294" NAME="?addPaths@QFileSystemWatcher@@QAEXABVQStringList@@@Z" PURGE="4" COMMENT="" />
    <EXPORT ORDINAL="1295" NAME="?addPause@QSequentialAnimationGroup@@QAEPAVQPauseAnimation@@H@Z" PURGE="4" COMMENT="" />
    <EXPORT ORDINAL="1296" NAME="?addQueryItem@QUrl@@QAEXABVQString@@0@Z" PURGE="8" COMMENT="" />
    <EXPORT ORDINAL="1297" NAME="?addResourceSearchPath@QDir@@SAXABVQString@@@Z" PURGE="0" COMMENT="" />
    <EXPORT ORDINAL="1298" NAME="?addResult@ResultStoreBase@QtConcurrent@@QAEHHPBX@Z" PURGE="8" COMMENT="" />
    <EXPORT ORDINAL="1299" NAME="?addResults@ResultStoreBase@QtConcurrent@@QAEHHPBXHH@Z" PURGE="16" COMMENT="" />
    <EXPORT ORDINAL="1300" NAME="?addSearchPath@QDir@@SAXABVQString@@0@Z" PURGE="0" COMMENT="" />
    <EXPORT ORDINAL="1301" NAME="?addSearchPath@QResource@@SAXABVQString@@@Z" PURGE="0" COMMENT="" />
    <EXPORT ORDINAL="1302" NAME="?addSecs@QDateTime@@QBE?AV1@H@Z" PURGE="8" COMMENT="" />
    <EXPORT ORDINAL="1303" NAME="?addSecs@QTime@@QBE?AV1@H@Z" PURGE="8" COMMENT="" />
    <EXPORT ORDINAL="1304" NAME="?addState@QStateMachine@@QAEXPAVQAbstractState@@@Z" PURGE="4" COMMENT="" />
    <EXPORT ORDINAL="1305" NAME="?addStatesToEnter@QStateMachinePrivate@@QAEXPAVQAbstractState@@PAVQState@@AAV?$QSet@PAVQAbstractState@@@@2@Z" PURGE="16" COMMENT="" />
    <EXPORT ORDINAL="1306" NAME="?addTransition@QState@@QAEPAVQAbstractTransition@@PAVQAbstractState@@@Z" PURGE="4" COMMENT="" />
    <EXPORT ORDINAL="1307" NAME="?addTransition@QState@@QAEPAVQSignalTransition@@PAVQObject@@PBDPAVQAbstractState@@@Z" PURGE="12" COMMENT="" />
    <EXPORT ORDINAL="1308" NAME="?addTransition@QState@@QAEXPAVQAbstractTransition@@@Z" PURGE="4" COMMENT="" />
    <EXPORT ORDINAL="1309" NAME="?addYears@QDate@@QBE?AV1@H@Z" PURGE="8" COMMENT="" />
    <EXPORT ORDINAL="1310" NAME="?addYears@QDateTime@@QBE?AV1@H@Z" PURGE="8" COMMENT="" />
    <EXPORT ORDINAL="1311" NAME="?added@QChildEvent@@QBE_NXZ" PURGE="0" COMMENT="" />
    <EXPORT ORDINAL="1312" NAME="?adjust@QRect@@QAEXHHHH@Z" PURGE="16" COMMENT="" />
    <EXPORT ORDINAL="1313" NAME="?adjust@QRectF@@QAEXNNNN@Z" PURGE="32" COMMENT="" />
    <EXPORT ORDINAL="1314" NAME="?adjusted@QRect@@QBE?AV1@HHHH@Z" PURGE="20" COMMENT="" />
    <EXPORT ORDINAL="1315" NAME="?adjusted@QRectF@@QBE?AV1@NNNN@Z" PURGE="36" COMMENT="" />
    <EXPORT ORDINAL="1316" NAME="?advance@QAnimationDriver@@QAEXXZ" PURGE="0" COMMENT="" />
    <EXPORT ORDINAL="1317" NAME="?aliases@QTextCodec@@UBE?AV?$QList@VQByteArray@@@@XZ" PURGE="4" COMMENT="" />
    <EXPORT ORDINAL="1318" NAME="?alignOfTypedData@?$QVector@VQPoint@@@@ABEHXZ" PURGE="0" COMMENT="" />
    <EXPORT ORDINAL="1319" NAME="?alignOfTypedData@?$QVector@VQPointF@@@@ABEHXZ" PURGE="0" COMMENT="" />
    <EXPORT ORDINAL="1320" NAME="?alignOfTypedData@?$QVector@VQXmlStreamAttribute@@@@ABEHXZ" PURGE="0" COMMENT="" />
    <EXPORT ORDINAL="1321" NAME="?allEncodedQueryItemValues@QUrl@@QBE?AV?$QList@VQByteArray@@@@ABVQByteArray@@@Z" PURGE="8" COMMENT="" />
    <EXPORT ORDINAL="1322" NAME="?allKeys@QSettings@@QBE?AVQStringList@@XZ" PURGE="4" COMMENT="" />
    <EXPORT ORDINAL="1323" NAME="?allQueryItemValues@QUrl@@QBE?AVQStringList@@ABVQString@@@Z" PURGE="8" COMMENT="" />
    <EXPORT ORDINAL="1324" NAME="?allocate@QContiguousCacheData@@SAPAU1@HH@Z" PURGE="0" COMMENT="" />
    <EXPORT ORDINAL="1325" NAME="?allocate@QVectorData@@SAPAU1@HH@Z" PURGE="0" COMMENT="" />
    <EXPORT ORDINAL="1326" NAME="?allocateNode@QHashData@@QAEPAXH@Z" PURGE="4" COMMENT="" />
    <EXPORT ORDINAL="1327" NAME="?allocateNode@QHashData@@QAEPAXXZ" PURGE="0" COMMENT="" />
    <EXPORT ORDINAL="1328" NAME="?allocateTimerId@QAbstractEventDispatcherPrivate@@SAHXZ" PURGE="0" COMMENT="" />
    <EXPORT ORDINAL="1329" NAME="?allowMove@QAbstractItemModelPrivate@@QAE_NABVQModelIndex@@HH0HW4Orientation@Qt@@@Z" PURGE="24" COMMENT="" />
    <EXPORT ORDINAL="1330" NAME="?amText@QLocale@@QBE?AVQString@@XZ" PURGE="4" COMMENT="" />
    <EXPORT ORDINAL="1331" NAME="?amplitude@QEasingCurve@@QBENXZ" PURGE="0" COMMENT="" />
    <EXPORT ORDINAL="1332" NAME="?angle@QLineF@@QBENABV1@@Z" PURGE="4" COMMENT="" />
    <EXPORT ORDINAL="1333" NAME="?angle@QLineF@@QBENXZ" PURGE="0" COMMENT="" />
    <EXPORT ORDINAL="1334" NAME="?angleTo@QLineF@@QBENABV1@@Z" PURGE="4" COMMENT="" />
    <EXPORT ORDINAL="1335" NAME="?animationAt@QAnimationGroup@@QBEPAVQAbstractAnimation@@H@Z" PURGE="4" COMMENT="" />
    <EXPORT ORDINAL="1336" NAME="?animationCount@QAnimationGroup@@QBEHXZ" PURGE="0" COMMENT="" />
    <EXPORT ORDINAL="1337" NAME="?animations@QAbstractTransition@@QBE?AV?$QList@PAVQAbstractAnimation@@@@XZ" PURGE="4" COMMENT="" />
    <EXPORT ORDINAL="1338" NAME="?appName@QCoreApplicationPrivate@@UBE?AVQString@@XZ" PURGE="4" COMMENT="" />
    <EXPORT ORDINAL="1339" NAME="?app_compile_version@QCoreApplicationPrivate@@2HA" PURGE="-1" COMMENT="" />
    <EXPORT ORDINAL="1340" NAME="?append2@QListData@@QAEPAPAXABU1@@Z" PURGE="4" COMMENT="" />
    <EXPORT ORDINAL="1341" NAME="?append@?$QVector@VQPoint@@@@QAEXABVQPoint@@@Z" PURGE="4" COMMENT="" />
    <EXPORT ORDINAL="1342" NAME="?append@?$QVector@VQPointF@@@@QAEXABVQPointF@@@Z" PURGE="4" COMMENT="" />
    <EXPORT ORDINAL="1343" NAME="?append@?$QVector@VQXmlStreamAttribute@@@@QAEXABVQXmlStreamAttribute@@@Z" PURGE="4" COMMENT="" />
    <EXPORT ORDINAL="1344" NAME="?append@QByteArray@@QAEAAV1@ABV1@@Z" PURGE="4" COMMENT="" />
    <EXPORT ORDINAL="1345" NAME="?append@QByteArray@@QAEAAV1@ABVQString@@@Z" PURGE="4" COMMENT="" />
    <EXPORT ORDINAL="1346" NAME="?append@QByteArray@@QAEAAV1@D@Z" PURGE="4" COMMENT="" />
    <EXPORT ORDINAL="1347" NAME="?append@QByteArray@@QAEAAV1@PBD@Z" PURGE="4" COMMENT="" />
    <EXPORT ORDINAL="1348" NAME="?append@QByteArray@@QAEAAV1@PBDH@Z" PURGE="8" COMMENT="" />
    <EXPORT ORDINAL="1349" NAME="?append@QListData@@QAEPAPAXABU1@@Z" PURGE="4" COMMENT="" />
    <EXPORT ORDINAL="1350" NAME="?append@QListData@@QAEPAPAXH@Z" PURGE="4" COMMENT="" />
    <EXPORT ORDINAL="1351" NAME="?append@QListData@@QAEPAPAXXZ" PURGE="0" COMMENT="" />
    <EXPORT ORDINAL="1352" NAME="?append@QString@@QAEAAV1@ABV1@@Z" PURGE="4" COMMENT="" />
    <EXPORT ORDINAL="1353" NAME="?append@QString@@QAEAAV1@ABVQByteArray@@@Z" PURGE="4" COMMENT="" />
    <EXPORT ORDINAL="1354" NAME="?append@QString@@QAEAAV1@ABVQLatin1String@@@Z" PURGE="4" COMMENT="" />
    <EXPORT ORDINAL="1355" NAME="?append@QString@@QAEAAV1@ABVQStringRef@@@Z" PURGE="4" COMMENT="" />
    <EXPORT ORDINAL="1356" NAME="?append@QString@@QAEAAV1@PBD@Z" PURGE="4" COMMENT="" />
    <EXPORT ORDINAL="1357" NAME="?append@QString@@QAEAAV1@VQChar@@@Z" PURGE="4" COMMENT="" />
    <EXPORT ORDINAL="1358" NAME="?append@QXmlStreamAttributes@@QAEXABVQString@@00@Z" PURGE="12" COMMENT="" />
    <EXPORT ORDINAL="1359" NAME="?append@QXmlStreamAttributes@@QAEXABVQString@@0@Z" PURGE="8" COMMENT="" />
    <EXPORT ORDINAL="1360" NAME="?appendApplicationPathToLibraryPaths@QCoreApplicationPrivate@@QAEXXZ" PURGE="0" COMMENT="" />
    <EXPORT ORDINAL="1361" NAME="?appendTo@QStringRef@@QBE?AV1@PAVQString@@@Z" PURGE="8" COMMENT="" />
    <EXPORT ORDINAL="1362" NAME="?applicationDirPath@QCoreApplication@@SA?AVQString@@XZ" PURGE="0" COMMENT="" />
    <EXPORT ORDINAL="1363" NAME="?applicationFilePath@QCoreApplication@@SA?AVQString@@XZ" PURGE="0" COMMENT="" />
    <EXPORT ORDINAL="1364" NAME="?applicationName@QCoreApplication@@SA?AVQString@@XZ" PURGE="0" COMMENT="" />
    <EXPORT ORDINAL="1365" NAME="?applicationName@QSettings@@QBE?AVQString@@XZ" PURGE="4" COMMENT="" />
    <EXPORT ORDINAL="1366" NAME="?applicationPid@QCoreApplication@@SA_JXZ" PURGE="0" COMMENT="" />
    <EXPORT ORDINAL="1367" NAME="?applicationVersion@QCoreApplication@@SA?AVQString@@XZ" PURGE="0" COMMENT="" />
    <EXPORT ORDINAL="1368" NAME="?applyProperties@QStateMachinePrivate@@QAEXABV?$QList@PAVQAbstractTransition@@@@ABV?$QList@PAVQAbstractState@@@@1@Z" PURGE="12" COMMENT="" />
    <EXPORT ORDINAL="1369" NAME="?arg@QString@@QBE?AV1@ABV1@00000000@Z" PURGE="40" COMMENT="" />
    <EXPORT ORDINAL="1370" NAME="?arg@QString@@QBE?AV1@ABV1@0000000@Z" PURGE="36" COMMENT="" />
    <EXPORT ORDINAL="1371" NAME="?arg@QString@@QBE?AV1@ABV1@000000@Z" PURGE="32" COMMENT="" />
    <EXPORT ORDINAL="1372" NAME="?arg@QString@@QBE?AV1@ABV1@00000@Z" PURGE="28" COMMENT="" />
    <EXPORT ORDINAL="1373" NAME="?arg@QString@@QBE?AV1@ABV1@0000@Z" PURGE="24" COMMENT="" />
    <EXPORT ORDINAL="1374" NAME="?arg@QString@@QBE?AV1@ABV1@000@Z" PURGE="20" COMMENT="" />
    <EXPORT ORDINAL="1375" NAME="?arg@QString@@QBE?AV1@ABV1@00@Z" PURGE="16" COMMENT="" />
    <EXPORT ORDINAL="1376" NAME="?arg@QString@@QBE?AV1@ABV1@0@Z" PURGE="12" COMMENT="" />
    <EXPORT ORDINAL="1377" NAME="?arg@QString@@QBE?AV1@ABV1@HABVQChar@@@Z" PURGE="16" COMMENT="" />
    <EXPORT ORDINAL="1378" NAME="?arg@QString@@QBE?AV1@DHABVQChar@@@Z" PURGE="16" COMMENT="" />
    <EXPORT ORDINAL="1379" NAME="?arg@QString@@QBE?AV1@FHHABVQChar@@@Z" PURGE="20" COMMENT="" />
    <EXPORT ORDINAL="1380" NAME="?arg@QString@@QBE?AV1@GHHABVQChar@@@Z" PURGE="20" COMMENT="" />
    <EXPORT ORDINAL="1381" NAME="?arg@QString@@QBE?AV1@HHHABVQChar@@@Z" PURGE="20" COMMENT="" />
    <EXPORT ORDINAL="1382" NAME="?arg@QString@@QBE?AV1@IHHABVQChar@@@Z" PURGE="20" COMMENT="" />
    <EXPORT ORDINAL="1383" NAME="?arg@QString@@QBE?AV1@JHHABVQChar@@@Z" PURGE="20" COMMENT="" />
    <EXPORT ORDINAL="1384" NAME="?arg@QString@@QBE?AV1@KHHABVQChar@@@Z" PURGE="20" COMMENT="" />
    <EXPORT ORDINAL="1385" NAME="?arg@QString@@QBE?AV1@NHDHABVQChar@@@Z" PURGE="28" COMMENT="" />
    <EXPORT ORDINAL="1386" NAME="?arg@QString@@QBE?AV1@VQChar@@HABV2@@Z" PURGE="16" COMMENT="" />
    <EXPORT ORDINAL="1387" NAME="?arg@QString@@QBE?AV1@_JHHABVQChar@@@Z" PURGE="24" COMMENT="" />
    <EXPORT ORDINAL="1388" NAME="?arg@QString@@QBE?AV1@_KHHABVQChar@@@Z" PURGE="24" COMMENT="" />
    <EXPORT ORDINAL="1389" NAME="?argc@QCoreApplication@@SAHXZ" PURGE="0" COMMENT="" />
    <EXPORT ORDINAL="1390" NAME="?args@QMetaCallEvent@@QBEPAPAXXZ" PURGE="0" COMMENT="" />
    <EXPORT ORDINAL="1391" NAME="?arguments@QCoreApplication@@SA?AVQStringList@@XZ" PURGE="0" COMMENT="" />
    <EXPORT ORDINAL="1392" NAME="?arguments@SignalEvent@QStateMachine@@QBE?AV?$QList@VQVariant@@@@XZ" PURGE="4" COMMENT="" />
    <EXPORT ORDINAL="1393" NAME="?argv@QCoreApplication@@SAPAPADXZ" PURGE="0" COMMENT="" />
    <EXPORT ORDINAL="1394" NAME="?asBitArray@QVariant@@QAEAAVQBitArray@@XZ" PURGE="0" COMMENT="" />
    <EXPORT ORDINAL="1395" NAME="?asBool@QVariant@@QAEAA_NXZ" PURGE="0" COMMENT="" />
    <EXPORT ORDINAL="1396" NAME="?asByteArray@QVariant@@QAEAAVQByteArray@@XZ" PURGE="0" COMMENT="" />
    <EXPORT ORDINAL="1397" NAME="?asCString@QVariant@@QAEAAVQByteArray@@XZ" PURGE="0" COMMENT="" />
    <EXPORT ORDINAL="1398" NAME="?asDate@QVariant@@QAEAAVQDate@@XZ" PURGE="0" COMMENT="" />
    <EXPORT ORDINAL="1399" NAME="?asDateTime@QVariant@@QAEAAVQDateTime@@XZ" PURGE="0" COMMENT="" />
    <EXPORT ORDINAL="1400" NAME="?asDouble@QVariant@@QAEAANXZ" PURGE="0" COMMENT="" />
    <EXPORT ORDINAL="1401" NAME="?asInt@QVariant@@QAEAAHXZ" PURGE="0" COMMENT="" />
    <EXPORT ORDINAL="1402" NAME="?asList@QVariant@@QAEAAV?$QList@VQVariant@@@@XZ" PURGE="0" COMMENT="" />
    <EXPORT ORDINAL="1403" NAME="?asLongLong@QVariant@@QAEAA_JXZ" PURGE="0" COMMENT="" />
    <EXPORT ORDINAL="1404" NAME="?asMap@QVariant@@QAEAAV?$QMap@VQString@@VQVariant@@@@XZ" PURGE="0" COMMENT="" />
    <EXPORT ORDINAL="1405" NAME="?asPoint@QVariant@@QAEAAVQPoint@@XZ" PURGE="0" COMMENT="" />
    <EXPORT ORDINAL="1406" NAME="?asRect@QVariant@@QAEAAVQRect@@XZ" PURGE="0" COMMENT="" />
    <EXPORT ORDINAL="1407" NAME="?asSize@QVariant@@QAEAAVQSize@@XZ" PURGE="0" COMMENT="" />
    <EXPORT ORDINAL="1408" NAME="?asString@QVariant@@QAEAAVQString@@XZ" PURGE="0" COMMENT="" />
    <EXPORT ORDINAL="1409" NAME="?asStringList@QVariant@@QAEAAVQStringList@@XZ" PURGE="0" COMMENT="" />
    <EXPORT ORDINAL="1410" NAME="?asTime@QVariant@@QAEAAVQTime@@XZ" PURGE="0" COMMENT="" />
    <EXPORT ORDINAL="1411" NAME="?asUInt@QVariant@@QAEAAIXZ" PURGE="0" COMMENT="" />
    <EXPORT ORDINAL="1412" NAME="?asULongLong@QVariant@@QAEAA_KXZ" PURGE="0" COMMENT="" />
    <EXPORT ORDINAL="1413" NAME="?ascii@QChar@@QBE?BDXZ" PURGE="0" COMMENT="" />
    <EXPORT ORDINAL="1414" NAME="?ascii@QCharRef@@QBE?BDXZ" PURGE="0" COMMENT="" />
    <EXPORT ORDINAL="1415" NAME="?ascii@QString@@QBEPBDXZ" PURGE="0" COMMENT="" />
    <EXPORT ORDINAL="1416" NAME="?ascii_helper@QString@@IBEPBDXZ" PURGE="0" COMMENT="" />
    <EXPORT ORDINAL="1417" NAME="?assignProperty@QState@@QAEXPAVQObject@@PBDABVQVariant@@@Z" PURGE="12" COMMENT="" />
    <EXPORT ORDINAL="1418" NAME="?at@?$QVector@VQPoint@@@@QBEABVQPoint@@H@Z" PURGE="4" COMMENT="" />
    <EXPORT ORDINAL="1419" NAME="?at@?$QVector@VQPointF@@@@QBEABVQPointF@@H@Z" PURGE="4" COMMENT="" />
    <EXPORT ORDINAL="1420" NAME="?at@?$QVector@VQXmlStreamAttribute@@@@QBEABVQXmlStreamAttribute@@H@Z" PURGE="4" COMMENT="" />
    <EXPORT ORDINAL="1421" NAME="?at@QBitArray@@QBE_NH@Z" PURGE="4" COMMENT="" />
    <EXPORT ORDINAL="1422" NAME="?at@QByteArray@@QBE?BDH@Z" PURGE="4" COMMENT="" />
    <EXPORT ORDINAL="1423" NAME="?at@QIODevice@@QAE_N_J@Z" PURGE="8" COMMENT="" />
    <EXPORT ORDINAL="1424" NAME="?at@QIODevice@@QBE_JXZ" PURGE="-1" COMMENT="" />
    <EXPORT ORDINAL="1425" NAME="?at@QListData@@QBEPAPAXH@Z" PURGE="4" COMMENT="" />
    <EXPORT ORDINAL="1426" NAME="?at@QString@@QBE?BVQChar@@H@Z" PURGE="8" COMMENT="" />
    <EXPORT ORDINAL="1427" NAME="?at@QStringRef@@QBE?BVQChar@@H@Z" PURGE="8" COMMENT="" />
    <EXPORT ORDINAL="1428" NAME="?atEnd@QAbstractFileEngine@@QBE_NXZ" PURGE="0" COMMENT="" />
    <EXPORT ORDINAL="1429" NAME="?atEnd@QBuffer@@UBE_NXZ" PURGE="0" COMMENT="" />
    <EXPORT ORDINAL="1430" NAME="?atEnd@QDataStream@@QBE_NXZ" PURGE="0" COMMENT="" />
    <EXPORT ORDINAL="1431" NAME="?atEnd@QFile@@UBE_NXZ" PURGE="0" COMMENT="" />
    <EXPORT ORDINAL="1432" NAME="?atEnd@QIODevice@@UBE_NXZ" PURGE="0" COMMENT="" />
    <EXPORT ORDINAL="1433" NAME="?atEnd@QProcess@@UBE_NXZ" PURGE="0" COMMENT="" />
    <EXPORT ORDINAL="1434" NAME="?atEnd@QTextStream@@QBE_NXZ" PURGE="0" COMMENT="" />
    <EXPORT ORDINAL="1435" NAME="?atEnd@QXmlStreamReader@@QBE_NXZ" PURGE="0" COMMENT="" />
    <EXPORT ORDINAL="1436" NAME="?attach@QSharedMemory@@QAE_NW4AccessMode@1@@Z" PURGE="4" COMMENT="" />
    <EXPORT ORDINAL="1437" NAME="?attribs@QCoreApplicationPrivate@@2IA" PURGE="-1" COMMENT="" />
    <EXPORT ORDINAL="1438" NAME="?attributes@QMetaMethod@@QBEHXZ" PURGE="0" COMMENT="" />
    <EXPORT ORDINAL="1439" NAME="?attributes@QXmlStreamReader@@QBE?AVQXmlStreamAttributes@@XZ" PURGE="4" COMMENT="" />
    <EXPORT ORDINAL="1440" NAME="?authority@QUrl@@QBE?AVQString@@XZ" PURGE="4" COMMENT="" />
    <EXPORT ORDINAL="1441" NAME="?autoDetectUnicode@QTextStream@@QBE_NXZ" PURGE="0" COMMENT="" />
    <EXPORT ORDINAL="1442" NAME="?autoFormatting@QXmlStreamWriter@@QBE_NXZ" PURGE="0" COMMENT="" />
    <EXPORT ORDINAL="1443" NAME="?autoFormattingIndent@QXmlStreamWriter@@QBEHXZ" PURGE="0" COMMENT="" />
    <EXPORT ORDINAL="1444" NAME="?autoRemove@QTemporaryFile@@QBE_NXZ" PURGE="0" COMMENT="" />
    <EXPORT ORDINAL="1445" NAME="?available@QSemaphore@@QBEHXZ" PURGE="0" COMMENT="" />
    <EXPORT ORDINAL="1446" NAME="?availableCodecs@QTextCodec@@SA?AV?$QList@VQByteArray@@@@XZ" PURGE="0" COMMENT="" />
    <EXPORT ORDINAL="1447" NAME="?availableMibs@QTextCodec@@SA?AV?$QList@H@@XZ" PURGE="0" COMMENT="" />
    <EXPORT ORDINAL="1448" NAME="?awake@QAbstractEventDispatcher@@IAEXXZ" PURGE="0" COMMENT="" />
    <EXPORT ORDINAL="1449" NAME="?back@?$QVector@VQPoint@@@@QAEAAVQPoint@@XZ" PURGE="0" COMMENT="" />
    <EXPORT ORDINAL="1450" NAME="?back@?$QVector@VQPoint@@@@QBEABVQPoint@@XZ" PURGE="0" COMMENT="" />
    <EXPORT ORDINAL="1451" NAME="?back@?$QVector@VQPointF@@@@QAEAAVQPointF@@XZ" PURGE="0" COMMENT="" />
    <EXPORT ORDINAL="1452" NAME="?back@?$QVector@VQPointF@@@@QBEABVQPointF@@XZ" PURGE="0" COMMENT="" />
    <EXPORT ORDINAL="1453" NAME="?back@?$QVector@VQXmlStreamAttribute@@@@QAEAAVQXmlStreamAttribute@@XZ" PURGE="0" COMMENT="" />
    <EXPORT ORDINAL="1454" NAME="?back@?$QVector@VQXmlStreamAttribute@@@@QBEABVQXmlStreamAttribute@@XZ" PURGE="0" COMMENT="" />
    <EXPORT ORDINAL="1455" NAME="?baseName@QFileInfo@@QAE?AVQString@@_N@Z" PURGE="8" COMMENT="" />
    <EXPORT ORDINAL="1456" NAME="?baseName@QFileInfo@@QBE?AVQString@@XZ" PURGE="4" COMMENT="" />
    <EXPORT ORDINAL="1457" NAME="?batchSize@ResultIteratorBase@QtConcurrent@@QBEHXZ" PURGE="0" COMMENT="" />
    <EXPORT ORDINAL="1458" NAME="?batchedAdvance@ResultIteratorBase@QtConcurrent@@QAEXXZ" PURGE="0" COMMENT="" />
    <EXPORT ORDINAL="1459" NAME="?bcp47Name@QLocale@@QBE?AVQString@@XZ" PURGE="4" COMMENT="" />
    <EXPORT ORDINAL="1460" NAME="?bcp47Name@QLocalePrivate@@QBE?AVQString@@XZ" PURGE="4" COMMENT="" />
    <EXPORT ORDINAL="1461" NAME="?begin@?$QVector@VQPoint@@@@QAEPAVQPoint@@XZ" PURGE="0" COMMENT="" />
    <EXPORT ORDINAL="1462" NAME="?begin@?$QVector@VQPoint@@@@QBEPBVQPoint@@XZ" PURGE="0" COMMENT="" />
    <EXPORT ORDINAL="1463" NAME="?begin@?$QVector@VQPointF@@@@QAEPAVQPointF@@XZ" PURGE="0" COMMENT="" />
    <EXPORT ORDINAL="1464" NAME="?begin@?$QVector@VQPointF@@@@QBEPBVQPointF@@XZ" PURGE="0" COMMENT="" />
    <EXPORT ORDINAL="1465" NAME="?begin@?$QVector@VQXmlStreamAttribute@@@@QAEPAVQXmlStreamAttribute@@XZ" PURGE="0" COMMENT="" />
    <EXPORT ORDINAL="1466" NAME="?begin@?$QVector@VQXmlStreamAttribute@@@@QBEPBVQXmlStreamAttribute@@XZ" PURGE="0" COMMENT="" />
    <EXPORT ORDINAL="1467" NAME="?begin@QByteArray@@QAEPADXZ" PURGE="0" COMMENT="" />
    <EXPORT ORDINAL="1468" NAME="?begin@QByteArray@@QBEPBDXZ" PURGE="0" COMMENT="" />
    <EXPORT ORDINAL="1469" NAME="?begin@QListData@@QBEPAPAXXZ" PURGE="0" COMMENT="" />
    <EXPORT ORDINAL="1470" NAME="?begin@QString@@QAEPAVQChar@@XZ" PURGE="0" COMMENT="" />
    <EXPORT ORDINAL="1471" NAME="?begin@QString@@QBEPBVQChar@@XZ" PURGE="0" COMMENT="" />
    <EXPORT ORDINAL="1472" NAME="?begin@ResultStoreBase@QtConcurrent@@QBE?AVResultIteratorBase@2@XZ" PURGE="4" COMMENT="" />
    <EXPORT ORDINAL="1473" NAME="?beginEntryList@QAbstractFileEngine@@UAEPAVQAbstractFileEngineIterator@@V?$QFlags@W4Filter@QDir@@@@ABVQStringList@@@Z" PURGE="8" COMMENT="" />
    <EXPORT ORDINAL="1474" NAME="?beginEntryList@QFSFileEngine@@UAEPAVQAbstractFileEngineIterator@@V?$QFlags@W4Filter@QDir@@@@ABVQStringList@@@Z" PURGE="8" COMMENT="" />
    <EXPORT ORDINAL="1475" NAME="?beginGroup@QSettings@@QAEXABVQString@@@Z" PURGE="4" COMMENT="" />
    <EXPORT ORDINAL="1476" NAME="?beginInsertColumns@QAbstractItemModel@@IAEXABVQModelIndex@@HH@Z" PURGE="12" COMMENT="" />
    <EXPORT ORDINAL="1477" NAME="?beginInsertRows@QAbstractItemModel@@IAEXABVQModelIndex@@HH@Z" PURGE="12" COMMENT="" />
    <EXPORT ORDINAL="1478" NAME="?beginMicrostep@QStateMachine@@MAEXPAVQEvent@@@Z" PURGE="4" COMMENT="" />
    <EXPORT ORDINAL="1479" NAME="?beginMoveColumns@QAbstractItemModel@@IAE_NABVQModelIndex@@HH0H@Z" PURGE="20" COMMENT="" />
    <EXPORT ORDINAL="1480" NAME="?beginMoveRows@QAbstractItemModel@@IAE_NABVQModelIndex@@HH0H@Z" PURGE="20" COMMENT="" />
    <EXPORT ORDINAL="1481" NAME="?beginReadArray@QSettings@@QAEHABVQString@@@Z" PURGE="4" COMMENT="" />
    <EXPORT ORDINAL="1482" NAME="?beginRemoveColumns@QAbstractItemModel@@IAEXABVQModelIndex@@HH@Z" PURGE="12" COMMENT="" />
    <EXPORT ORDINAL="1483" NAME="?beginRemoveRows@QAbstractItemModel@@IAEXABVQModelIndex@@HH@Z" PURGE="12" COMMENT="" />
    <EXPORT ORDINAL="1484" NAME="?beginResetModel@QAbstractItemModel@@IAEXXZ" PURGE="0" COMMENT="" />
    <EXPORT ORDINAL="1485" NAME="?beginSelectTransitions@QStateMachine@@MAEXPAVQEvent@@@Z" PURGE="4" COMMENT="" />
    <EXPORT ORDINAL="1486" NAME="?beginWriteArray@QSettings@@QAEXABVQString@@H@Z" PURGE="8" COMMENT="" />
    <EXPORT ORDINAL="1487" NAME="?bin@@YAAAVQTextStream@@AAV1@@Z" PURGE="0" COMMENT="" />
    <EXPORT ORDINAL="1488" NAME="?blockSignals@QObject@@QAE_N_N@Z" PURGE="4" COMMENT="" />
    <EXPORT ORDINAL="1489" NAME="?blockSize@BlockSizeManager@QtConcurrent@@QAEHXZ" PURGE="0" COMMENT="" />
    <EXPORT ORDINAL="1490" NAME="?blockSizeMaxed@BlockSizeManager@QtConcurrent@@AAE_NXZ" PURGE="0" COMMENT="" />
    <EXPORT ORDINAL="1491" NAME="?bom@@YAAAVQTextStream@@AAV1@@Z" PURGE="0" COMMENT="" />
    <EXPORT ORDINAL="1492" NAME="?bottom@QRect@@QBEHXZ" PURGE="0" COMMENT="" />
    <EXPORT ORDINAL="1493" NAME="?bottom@QRectF@@QBENXZ" PURGE="0" COMMENT="" />
    <EXPORT ORDINAL="1494" NAME="?bottomLeft@QRect@@QBE?AVQPoint@@XZ" PURGE="4" COMMENT="" />
    <EXPORT ORDINAL="1495" NAME="?bottomLeft@QRectF@@QBE?AVQPointF@@XZ" PURGE="4" COMMENT="" />
    <EXPORT ORDINAL="1496" NAME="?bottomRight@QRect@@QBE?AVQPoint@@XZ" PURGE="4" COMMENT="" />
    <EXPORT ORDINAL="1497" NAME="?bottomRight@QRectF@@QBE?AVQPointF@@XZ" PURGE="4" COMMENT="" />
    <EXPORT ORDINAL="1498" NAME="?boundaryReasons@QTextBoundaryFinder@@QBE?AV?$QFlags@W4BoundaryReason@QTextBoundaryFinder@@@@XZ" PURGE="4" COMMENT="" />
    <EXPORT ORDINAL="1499" NAME="?boundedTo@QSize@@QBE?AV1@ABV1@@Z" PURGE="8" COMMENT="" />
    <EXPORT ORDINAL="1500" NAME="?boundedTo@QSizeF@@QBE?AV1@ABV1@@Z" PURGE="8" COMMENT="" />
    <EXPORT ORDINAL="1501" NAME="?buddy@QAbstractItemModel@@UBE?AVQModelIndex@@ABV2@@Z" PURGE="8" COMMENT="" />
    <EXPORT ORDINAL="1502" NAME="?buffer@QBuffer@@QAEAAVQByteArray@@XZ" PURGE="0" COMMENT="" />
    <EXPORT ORDINAL="1503" NAME="?buffer@QBuffer@@QBEABVQByteArray@@XZ" PURGE="0" COMMENT="" />
    <EXPORT ORDINAL="1504" NAME="?buildDate@QLibraryInfo@@SA?AVQDate@@XZ" PURGE="0" COMMENT="" />
    <EXPORT ORDINAL="1505" NAME="?buildKey@QLibraryInfo@@SA?AVQString@@XZ" PURGE="0" COMMENT="" />
    <EXPORT ORDINAL="1506" NAME="?bundleName@QFileInfo@@QBE?AVQString@@XZ" PURGE="4" COMMENT="" />
    <EXPORT ORDINAL="1507" NAME="?byteOrder@QDataStream@@QBE?AW4ByteOrder@1@XZ" PURGE="0" COMMENT="" />
    <EXPORT ORDINAL="1508" NAME="?bytearrayToDouble@QLocalePrivate@@SANPBDPA_N1@Z" PURGE="0" COMMENT="" />
    <EXPORT ORDINAL="1509" NAME="?bytearrayToLongLong@QLocalePrivate@@SA_JPBDHPA_N1@Z" PURGE="0" COMMENT="" />
    <EXPORT ORDINAL="1510" NAME="?bytearrayToUnsLongLong@QLocalePrivate@@SA_KPBDHPA_N@Z" PURGE="0" COMMENT="" />
    <EXPORT ORDINAL="1511" NAME="?bytesAvailable@QIODevice@@UBE_JXZ" PURGE="0" COMMENT="" />
    <EXPORT ORDINAL="1512" NAME="?bytesAvailable@QProcess@@UBE_JXZ" PURGE="0" COMMENT="" />
    <EXPORT ORDINAL="1513" NAME="?bytesToWrite@QIODevice@@UBE_JXZ" PURGE="0" COMMENT="" />
    <EXPORT ORDINAL="1514" NAME="?bytesToWrite@QProcess@@UBE_JXZ" PURGE="0" COMMENT="" />
    <EXPORT ORDINAL="1515" NAME="?bytesToWrite@QWindowsPipeWriter@@QBE_JXZ" PURGE="0" COMMENT="" />
    <EXPORT ORDINAL="1516" NAME="?bytesWritten@QIODevice@@IAEX_J@Z" PURGE="8" COMMENT="" />
    <EXPORT ORDINAL="1517" NAME="?bytesWritten@QWindowsPipeWriter@@IAEX_J@Z" PURGE="8" COMMENT="" />
    <EXPORT ORDINAL="1518" NAME="?c@QLocale@@SA?AV1@XZ" PURGE="0" COMMENT="" />
    <EXPORT ORDINAL="1519" NAME="?caching@QFileInfo@@QBE_NXZ" PURGE="0" COMMENT="" />
    <EXPORT ORDINAL="1520" NAME="?callEventTest@QAbstractTransitionPrivate@@QAE_NPAVQEvent@@@Z" PURGE="-1" COMMENT="" />
    <EXPORT ORDINAL="1521" NAME="?callFunction@QInternal@@SA_NW4InternalFunction@1@PAPAX@Z" PURGE="0" COMMENT="" />
    <EXPORT ORDINAL="1522" NAME="?callOnTransition@QAbstractTransitionPrivate@@UAEXPAVQEvent@@@Z" PURGE="-1" COMMENT="" />
    <EXPORT ORDINAL="1523" NAME="?canCast@QVariant@@QBE_NW4Type@1@@Z" PURGE="4" COMMENT="" />
    <EXPORT ORDINAL="1524" NAME="?canConvert@QVariant@@QBE_NW4Type@1@@Z" PURGE="4" COMMENT="" />
    <EXPORT ORDINAL="1525" NAME="?canEncode@QTextCodec@@QBE_NABVQString@@@Z" PURGE="4" COMMENT="" />
    <EXPORT ORDINAL="1526" NAME="?canEncode@QTextCodec@@QBE_NVQChar@@@Z" PURGE="4" COMMENT="" />
    <EXPORT ORDINAL="1527" NAME="?canFetchMore@QAbstractItemModel@@UBE_NABVQModelIndex@@@Z" PURGE="4" COMMENT="" />
    <EXPORT ORDINAL="1528" NAME="?canIncrementVectorIndex@ResultIteratorBase@QtConcurrent@@QBE_NXZ" PURGE="0" COMMENT="" />
    <EXPORT ORDINAL="1529" NAME="?canReadLine@QBuffer@@UBE_NXZ" PURGE="0" COMMENT="" />
    <EXPORT ORDINAL="1530" NAME="?canReadLine@QIODevice@@UBE_NXZ" PURGE="0" COMMENT="" />
    <EXPORT ORDINAL="1531" NAME="?canReadLine@QProcess@@UBE_NXZ" PURGE="0" COMMENT="" />
    <EXPORT ORDINAL="1532" NAME="?canWrite@QWindowsPipeWriter@@IAEXXZ" PURGE="0" COMMENT="" />
    <EXPORT ORDINAL="1533" NAME="?cancel@QFutureInterfaceBase@@QAEXXZ" PURGE="0" COMMENT="" />
    <EXPORT ORDINAL="1534" NAME="?cancel@QFutureWatcherBase@@QAEXXZ" PURGE="0" COMMENT="" />
    <EXPORT ORDINAL="1535" NAME="?cancelAllDelayedEvents@QStateMachinePrivate@@QAEXXZ" PURGE="0" COMMENT="" />
    <EXPORT ORDINAL="1536" NAME="?cancelDelayedEvent@QStateMachine@@QAE_NH@Z" PURGE="4" COMMENT="" />
    <EXPORT ORDINAL="1537" NAME="?canceled@QFutureWatcherBase@@IAEXXZ" PURGE="0" COMMENT="" />
    <EXPORT ORDINAL="1538" NAME="?canonicalFilePath@QFileInfo@@QBE?AVQString@@XZ" PURGE="4" COMMENT="" />
    <EXPORT ORDINAL="1539" NAME="?canonicalPath@QDir@@QBE?AVQString@@XZ" PURGE="4" COMMENT="" />
    <EXPORT ORDINAL="1540" NAME="?canonicalPath@QFileInfo@@QBE?AVQString@@XZ" PURGE="4" COMMENT="" />
    <EXPORT ORDINAL="1541" NAME="?cap@QRegExp@@QAE?AVQString@@H@Z" PURGE="8" COMMENT="" />
    <EXPORT ORDINAL="1542" NAME="?cap@QRegExp@@QBE?AVQString@@H@Z" PURGE="8" COMMENT="" />
    <EXPORT ORDINAL="1543" NAME="?capacity@?$QVector@VQPoint@@@@QBEHXZ" PURGE="0" COMMENT="" />
    <EXPORT ORDINAL="1544" NAME="?capacity@?$QVector@VQPointF@@@@QBEHXZ" PURGE="0" COMMENT="" />
    <EXPORT ORDINAL="1545" NAME="?capacity@?$QVector@VQXmlStreamAttribute@@@@QBEHXZ" PURGE="0" COMMENT="" />
    <EXPORT ORDINAL="1546" NAME="?capacity@QByteArray@@QBEHXZ" PURGE="0" COMMENT="" />
    <EXPORT ORDINAL="1547" NAME="?capacity@QString@@QBEHXZ" PURGE="0" COMMENT="" />
    <EXPORT ORDINAL="1548" NAME="?captureCount@QRegExp@@QBEHXZ" PURGE="0" COMMENT="" />
    <EXPORT ORDINAL="1549" NAME="?capturedTexts@QRegExp@@QAE?AVQStringList@@XZ" PURGE="4" COMMENT="" />
    <EXPORT ORDINAL="1550" NAME="?capturedTexts@QRegExp@@QBE?AVQStringList@@XZ" PURGE="4" COMMENT="" />
    <EXPORT ORDINAL="1551" NAME="?caseSensitive@QAbstractFileEngine@@UBE_NXZ" PURGE="0" COMMENT="" />
    <EXPORT ORDINAL="1552" NAME="?caseSensitive@QFSFileEngine@@UBE_NXZ" PURGE="0" COMMENT="" />
    <EXPORT ORDINAL="1553" NAME="?caseSensitive@QRegExp@@QBE_NXZ" PURGE="0" COMMENT="" />
    <EXPORT ORDINAL="1554" NAME="?caseSensitivity@QRegExp@@QBE?AW4CaseSensitivity@Qt@@XZ" PURGE="0" COMMENT="" />
    <EXPORT ORDINAL="1555" NAME="?caseSensitivity@QStringMatcher@@QBE?AW4CaseSensitivity@Qt@@XZ" PURGE="0" COMMENT="" />
    <EXPORT ORDINAL="1556" NAME="?cast@QMetaObject@@QBEPAVQObject@@PAV2@@Z" PURGE="4" COMMENT="" />
    <EXPORT ORDINAL="1557" NAME="?cast@QMetaObject@@QBEPBVQObject@@PBV2@@Z" PURGE="4" COMMENT="" />
    <EXPORT ORDINAL="1558" NAME="?cast@QVariant@@QAE_NW4Type@1@@Z" PURGE="4" COMMENT="" />
    <EXPORT ORDINAL="1559" NAME="?castOrDetach@QVariant@@IAEPAXW4Type@1@@Z" PURGE="4" COMMENT="" />
    <EXPORT ORDINAL="1560" NAME="?category@QChar@@QBE?AW4Category@1@XZ" PURGE="0" COMMENT="" />
    <EXPORT ORDINAL="1561" NAME="?category@QChar@@SI?AW4Category@1@G@Z" PURGE="0" COMMENT="" />
    <EXPORT ORDINAL="1562" NAME="?category@QChar@@SI?AW4Category@1@I@Z" PURGE="0" COMMENT="" />
    <EXPORT ORDINAL="1563" NAME="?category@QCharRef@@QBE?AW4Category@QChar@@XZ" PURGE="0" COMMENT="" />
    <EXPORT ORDINAL="1564" NAME="?cd@QDir@@QAE_NABVQString@@@Z" PURGE="4" COMMENT="" />
    <EXPORT ORDINAL="1565" NAME="?cdUp@QDir@@QAE_NXZ" PURGE="0" COMMENT="" />
    <EXPORT ORDINAL="1566" NAME="?cdUp@QUrl@@QAE_NXZ" PURGE="0" COMMENT="" />
    <EXPORT ORDINAL="1567" NAME="?cell@QChar@@QBEEXZ" PURGE="0" COMMENT="" />
    <EXPORT ORDINAL="1568" NAME="?cell@QCharRef@@QBEEXZ" PURGE="0" COMMENT="" />
    <EXPORT ORDINAL="1569" NAME="?center@@YAAAVQTextStream@@AAV1@@Z" PURGE="0" COMMENT="" />
    <EXPORT ORDINAL="1570" NAME="?center@QRect@@QBE?AVQPoint@@XZ" PURGE="4" COMMENT="" />
    <EXPORT ORDINAL="1571" NAME="?center@QRectF@@QBE?AVQPointF@@XZ" PURGE="4" COMMENT="" />
    <EXPORT ORDINAL="1572" NAME="?cftr@QTextCodec@@0PAV1@A" PURGE="-1" COMMENT="" />
    <EXPORT ORDINAL="1573" NAME="?changeGuard@QMetaObject@@SAXPAPAVQObject@@PAV2@@Z" PURGE="0" COMMENT="" />
    <EXPORT ORDINAL="1574" NAME="?changeInterval@QTimer@@QAEXH@Z" PURGE="4" COMMENT="" />
    <EXPORT ORDINAL="1575" NAME="?changePersistentIndex@QAbstractItemModel@@IAEXABVQModelIndex@@0@Z" PURGE="8" COMMENT="" />
    <EXPORT ORDINAL="1576" NAME="?changePersistentIndexList@QAbstractItemModel@@IAEXABV?$QList@VQModelIndex@@@@0@Z" PURGE="8" COMMENT="" />
    <EXPORT ORDINAL="1577" NAME="?characterOffset@QXmlStreamReader@@QBE_JXZ" PURGE="0" COMMENT="" />
    <EXPORT ORDINAL="1578" NAME="?checkConnectArgs@QMetaObject@@SA_NPBD0@Z" PURGE="0" COMMENT="" />
    <EXPORT ORDINAL="1579" NAME="?checkConnectArgs@QObject@@IAE_NPBDPBV1@0@Z" PURGE="12" COMMENT="" />
    <EXPORT ORDINAL="1580" NAME="?checkInstance@QCoreApplicationPrivate@@SA_NPBD@Z" PURGE="0" COMMENT="" />
    <EXPORT ORDINAL="1581" NAME="?child@QChildEvent@@QBEPAVQObject@@XZ" PURGE="0" COMMENT="" />
    <EXPORT ORDINAL="1582" NAME="?child@QModelIndex@@QBE?AV1@HH@Z" PURGE="12" COMMENT="" />
    <EXPORT ORDINAL="1583" NAME="?child@QObject@@QBEPAV1@PBD0_N@Z" PURGE="12" COMMENT="" />
    <EXPORT ORDINAL="1584" NAME="?child@QPersistentModelIndex@@QBE?AVQModelIndex@@HH@Z" PURGE="12" COMMENT="" />
    <EXPORT ORDINAL="1585" NAME="?childEvent@QObject@@MAEXPAVQChildEvent@@@Z" PURGE="4" COMMENT="" />
    <EXPORT ORDINAL="1586" NAME="?childGroups@QSettings@@QBE?AVQStringList@@XZ" PURGE="4" COMMENT="" />
    <EXPORT ORDINAL="1587" NAME="?childKeys@QSettings@@QBE?AVQStringList@@XZ" PURGE="4" COMMENT="" />
    <EXPORT ORDINAL="1588" NAME="?childMode@QState@@QBE?AW4ChildMode@1@XZ" PURGE="0" COMMENT="" />
    <EXPORT ORDINAL="1589" NAME="?children@QObject@@QBEABV?$QList@PAVQObject@@@@XZ" PURGE="0" COMMENT="" />
    <EXPORT ORDINAL="1590" NAME="?children@QResource@@IBE?AVQStringList@@XZ" PURGE="4" COMMENT="" />
    <EXPORT ORDINAL="1591" NAME="?chop@QByteArray@@QAEXH@Z" PURGE="4" COMMENT="" />
    <EXPORT ORDINAL="1592" NAME="?chop@QString@@QAEXH@Z" PURGE="4" COMMENT="" />
    <EXPORT ORDINAL="1593" NAME="?classInfo@QMetaObject@@QBE?AVQMetaClassInfo@@H@Z" PURGE="8" COMMENT="" />
    <EXPORT ORDINAL="1594" NAME="?classInfoCount@QMetaObject@@QBEHXZ" PURGE="0" COMMENT="" />
    <EXPORT ORDINAL="1595" NAME="?classInfoOffset@QMetaObject@@QBEHXZ" PURGE="0" COMMENT="" />
    <EXPORT ORDINAL="1596" NAME="?className@QMetaObject@@QBEPBDXZ" PURGE="0" COMMENT="" />
    <EXPORT ORDINAL="1597" NAME="?className@QObject@@QBEPBDXZ" PURGE="0" COMMENT="" />
    <EXPORT ORDINAL="1598" NAME="?cleanConnectionLists@QObjectPrivate@@QAEXXZ" PURGE="0" COMMENT="" />
    <EXPORT ORDINAL="1599" NAME="?cleanDirPath@QDir@@SA?AVQString@@ABV2@@Z" PURGE="0" COMMENT="" />
    <EXPORT ORDINAL="1600" NAME="?cleanPath@QDir@@SA?AVQString@@ABV2@@Z" PURGE="0" COMMENT="" />
    <EXPORT ORDINAL="1601" NAME="?cleanup@QThread@@CAXXZ" PURGE="0" COMMENT="" />
    <EXPORT ORDINAL="1602" NAME="?clear@?$QVector@VQPoint@@@@QAEXXZ" PURGE="0" COMMENT="" />
    <EXPORT ORDINAL="1603" NAME="?clear@?$QVector@VQPointF@@@@QAEXXZ" PURGE="0" COMMENT="" />
    <EXPORT ORDINAL="1604" NAME="?clear@?$QVector@VQXmlStreamAttribute@@@@QAEXXZ" PURGE="0" COMMENT="" />
    <EXPORT ORDINAL="1605" NAME="?clear@QAnimationGroup@@QAEXXZ" PURGE="0" COMMENT="" />
    <EXPORT ORDINAL="1606" NAME="?clear@QBitArray@@QAEXXZ" PURGE="0" COMMENT="" />
    <EXPORT ORDINAL="1607" NAME="?clear@QByteArray@@QAEXXZ" PURGE="0" COMMENT="" />
    <EXPORT ORDINAL="1608" NAME="?clear@QMimeData@@QAEXXZ" PURGE="0" COMMENT="" />
    <EXPORT ORDINAL="1609" NAME="?clear@QObjectCleanupHandler@@QAEXXZ" PURGE="0" COMMENT="" />
    <EXPORT ORDINAL="1610" NAME="?clear@QProcessEnvironment@@QAEXXZ" PURGE="0" COMMENT="" />
    <EXPORT ORDINAL="1611" NAME="?clear@QSettings@@QAEXXZ" PURGE="0" COMMENT="" />
    <EXPORT ORDINAL="1612" NAME="?clear@QString@@QAEXXZ" PURGE="0" COMMENT="" />
    <EXPORT ORDINAL="1613" NAME="?clear@QStringRef@@QAEXXZ" PURGE="0" COMMENT="" />
    <EXPORT ORDINAL="1614" NAME="?clear@QUrl@@QAEXXZ" PURGE="0" COMMENT="" />
    <EXPORT ORDINAL="1615" NAME="?clear@QVariant@@QAEXXZ" PURGE="0" COMMENT="" />
    <EXPORT ORDINAL="1616" NAME="?clear@QXmlStreamReader@@QAEXXZ" PURGE="0" COMMENT="" />
    <EXPORT ORDINAL="1617" NAME="?clear@QXmlStreamStringRef@@QAEXXZ" PURGE="0" COMMENT="" />
    <EXPORT ORDINAL="1618" NAME="?clearBit@QBitArray@@QAEXH@Z" PURGE="4" COMMENT="" />
    <EXPORT ORDINAL="1619" NAME="?clearError@QStateMachine@@QAEXXZ" PURGE="0" COMMENT="" />
    <EXPORT ORDINAL="1620" NAME="?clearGuards@QObjectPrivate@@SAXPAVQObject@@@Z" PURGE="0" COMMENT="" />
    <EXPORT ORDINAL="1621" NAME="?clearHistory@QStateMachinePrivate@@QAEXXZ" PURGE="0" COMMENT="" />
    <EXPORT ORDINAL="1622" NAME="?clockType@QElapsedTimer@@SA?AW4ClockType@1@XZ" PURGE="0" COMMENT="" />
    <EXPORT ORDINAL="1623" NAME="?clone@Exception@QtConcurrent@@UBEPAV12@XZ" PURGE="0" COMMENT="" />
    <EXPORT ORDINAL="1624" NAME="?clone@UnhandledException@QtConcurrent@@UBEPAVException@2@XZ" PURGE="0" COMMENT="" />
    <EXPORT ORDINAL="1625" NAME="?close@QAbstractFileEngine@@UAE_NXZ" PURGE="0" COMMENT="" />
    <EXPORT ORDINAL="1626" NAME="?close@QBuffer@@UAEXXZ" PURGE="0" COMMENT="" />
    <EXPORT ORDINAL="1627" NAME="?close@QFSFileEngine@@UAE_NXZ" PURGE="0" COMMENT="" />
    <EXPORT ORDINAL="1628" NAME="?close@QFile@@UAEXXZ" PURGE="0" COMMENT="" />
    <EXPORT ORDINAL="1629" NAME="?close@QIODevice@@UAEXXZ" PURGE="0" COMMENT="" />
    <EXPORT ORDINAL="1630" NAME="?close@QProcess@@UAEXXZ" PURGE="0" COMMENT="" />
    <EXPORT ORDINAL="1631" NAME="?closeReadChannel@QProcess@@QAEXW4ProcessChannel@1@@Z" PURGE="4" COMMENT="" />
    <EXPORT ORDINAL="1632" NAME="?closeWriteChannel@QProcess@@QAEXXZ" PURGE="0" COMMENT="" />
    <EXPORT ORDINAL="1633" NAME="?closestPauseAnimationTimeToFinish@QUnifiedTimer@@AAEHXZ" PURGE="0" COMMENT="" />
    <EXPORT ORDINAL="1634" NAME="?closingDown@QAbstractEventDispatcher@@UAEXXZ" PURGE="0" COMMENT="" />
    <EXPORT ORDINAL="1635" NAME="?closingDown@QCoreApplication@@SA_NXZ" PURGE="0" COMMENT="" />
    <EXPORT ORDINAL="1636" NAME="?closingDown@QEventDispatcherWin32@@UAEXXZ" PURGE="0" COMMENT="" />
    <EXPORT ORDINAL="1637" NAME="?cmp@QVariant@@IBE_NABV1@@Z" PURGE="4" COMMENT="" />
    <EXPORT ORDINAL="1638" NAME="?codeToCountry@QLocalePrivate@@SA?AW4Country@QLocale@@ABVQString@@@Z" PURGE="0" COMMENT="" />
    <EXPORT ORDINAL="1639" NAME="?codeToLanguage@QLocalePrivate@@SA?AW4Language@QLocale@@ABVQString@@@Z" PURGE="0" COMMENT="" />
    <EXPORT ORDINAL="1640" NAME="?codeToScript@QLocalePrivate@@SA?AW4Script@QLocale@@ABVQString@@@Z" PURGE="0" COMMENT="" />
    <EXPORT ORDINAL="1641" NAME="?codec@QTextStream@@QBEPAVQTextCodec@@XZ" PURGE="0" COMMENT="" />
    <EXPORT ORDINAL="1642" NAME="?codec@QXmlStreamWriter@@QBEPAVQTextCodec@@XZ" PURGE="0" COMMENT="" />
    <EXPORT ORDINAL="1643" NAME="?codecForCStrings@QString@@0PAVQTextCodec@@A" PURGE="-1" COMMENT="" />
    <EXPORT ORDINAL="1644" NAME="?codecForCStrings@QTextCodec@@SAPAV1@XZ" PURGE="0" COMMENT="" />
    <EXPORT ORDINAL="1645" NAME="?codecForContent@QTextCodec@@SAPAV1@PBDH@Z" PURGE="0" COMMENT="" />
    <EXPORT ORDINAL="1646" NAME="?codecForHtml@QTextCodec@@SAPAV1@ABVQByteArray@@@Z" PURGE="0" COMMENT="" />
    <EXPORT ORDINAL="1647" NAME="?codecForHtml@QTextCodec@@SAPAV1@ABVQByteArray@@PAV1@@Z" PURGE="0" COMMENT="" />
    <EXPORT ORDINAL="1648" NAME="?codecForIndex@QTextCodec@@SAPAV1@H@Z" PURGE="0" COMMENT="" />
    <EXPORT ORDINAL="1649" NAME="?codecForLocale@QTextCodec@@SAPAV1@XZ" PURGE="0" COMMENT="" />
    <EXPORT ORDINAL="1650" NAME="?codecForMib@QTextCodec@@SAPAV1@H@Z" PURGE="0" COMMENT="" />
    <EXPORT ORDINAL="1651" NAME="?codecForName@QTextCodec@@SAPAV1@ABVQByteArray@@@Z" PURGE="0" COMMENT="" />
    <EXPORT ORDINAL="1652" NAME="?codecForName@QTextCodec@@SAPAV1@PBD@Z" PURGE="0" COMMENT="" />
    <EXPORT ORDINAL="1653" NAME="?codecForName@QTextCodec@@SAPAV1@PBDH@Z" PURGE="0" COMMENT="" />
    <EXPORT ORDINAL="1654" NAME="?codecForTr@QTextCodec@@SAPAV1@XZ" PURGE="0" COMMENT="" />
    <EXPORT ORDINAL="1655" NAME="?codecForUtfText@QTextCodec@@SAPAV1@ABVQByteArray@@@Z" PURGE="0" COMMENT="" />
    <EXPORT ORDINAL="1656" NAME="?codecForUtfText@QTextCodec@@SAPAV1@ABVQByteArray@@PAV1@@Z" PURGE="0" COMMENT="" />
    <EXPORT ORDINAL="1657" NAME="?colorData@QMimeData@@QBE?AVQVariant@@XZ" PURGE="4" COMMENT="" />
    <EXPORT ORDINAL="1658" NAME="?column@QModelIndex@@QBEHXZ" PURGE="0" COMMENT="" />
    <EXPORT ORDINAL="1659" NAME="?column@QPersistentModelIndex@@QBEHXZ" PURGE="0" COMMENT="" />
    <EXPORT ORDINAL="1660" NAME="?columnCount@QAbstractListModel@@EBEHABVQModelIndex@@@Z" PURGE="4" COMMENT="" />
    <EXPORT ORDINAL="1661" NAME="?columnNumber@QXmlStreamReader@@QBE_JXZ" PURGE="0" COMMENT="" />
    <EXPORT ORDINAL="1662" NAME="?columnsAboutToBeInserted@QAbstractItemModel@@AAEXABVQModelIndex@@HH@Z" PURGE="12" COMMENT="" />
    <EXPORT ORDINAL="1663" NAME="?columnsAboutToBeInserted@QAbstractItemModelPrivate@@QAEXABVQModelIndex@@HH@Z" PURGE="12" COMMENT="" />
    <EXPORT ORDINAL="1664" NAME="?columnsAboutToBeMoved@QAbstractItemModel@@AAEXABVQModelIndex@@HH0H@Z" PURGE="20" COMMENT="" />
    <EXPORT ORDINAL="1665" NAME="?columnsAboutToBeRemoved@QAbstractItemModel@@AAEXABVQModelIndex@@HH@Z" PURGE="12" COMMENT="" />
    <EXPORT ORDINAL="1666" NAME="?columnsAboutToBeRemoved@QAbstractItemModelPrivate@@QAEXABVQModelIndex@@HH@Z" PURGE="12" COMMENT="" />
    <EXPORT ORDINAL="1667" NAME="?columnsInserted@QAbstractItemModel@@AAEXABVQModelIndex@@HH@Z" PURGE="12" COMMENT="" />
    <EXPORT ORDINAL="1668" NAME="?columnsInserted@QAbstractItemModelPrivate@@QAEXABVQModelIndex@@HH@Z" PURGE="12" COMMENT="" />
    <EXPORT ORDINAL="1669" NAME="?columnsMoved@QAbstractItemModel@@AAEXABVQModelIndex@@HH0H@Z" PURGE="20" COMMENT="" />
    <EXPORT ORDINAL="1670" NAME="?columnsRemoved@QAbstractItemModel@@AAEXABVQModelIndex@@HH@Z" PURGE="12" COMMENT="" />
    <EXPORT ORDINAL="1671" NAME="?columnsRemoved@QAbstractItemModelPrivate@@QAEXABVQModelIndex@@HH@Z" PURGE="12" COMMENT="" />
    <EXPORT ORDINAL="1672" NAME="?combiningClass@QChar@@QBEEXZ" PURGE="0" COMMENT="" />
    <EXPORT ORDINAL="1673" NAME="?combiningClass@QChar@@SIEG@Z" PURGE="0" COMMENT="" />
    <EXPORT ORDINAL="1674" NAME="?combiningClass@QChar@@SIEI@Z" PURGE="0" COMMENT="" />
    <EXPORT ORDINAL="1675" NAME="?combiningClass@QCharRef@@QBEEXZ" PURGE="0" COMMENT="" />
    <EXPORT ORDINAL="1676" NAME="?compare@QString@@QBEHABV1@@Z" PURGE="4" COMMENT="" />
    <EXPORT ORDINAL="1677" NAME="?compare@QString@@QBEHABV1@W4CaseSensitivity@Qt@@@Z" PURGE="8" COMMENT="" />
    <EXPORT ORDINAL="1678" NAME="?compare@QString@@QBEHABVQLatin1String@@W4CaseSensitivity@Qt@@@Z" PURGE="8" COMMENT="" />
    <EXPORT ORDINAL="1679" NAME="?compare@QString@@QBEHABVQStringRef@@W4CaseSensitivity@Qt@@@Z" PURGE="8" COMMENT="" />
    <EXPORT ORDINAL="1680" NAME="?compare@QString@@SAHABV1@0@Z" PURGE="0" COMMENT="" />
    <EXPORT ORDINAL="1681" NAME="?compare@QString@@SAHABV1@0W4CaseSensitivity@Qt@@@Z" PURGE="0" COMMENT="" />
    <EXPORT ORDINAL="1682" NAME="?compare@QString@@SAHABV1@ABVQLatin1String@@W4CaseSensitivity@Qt@@@Z" PURGE="0" COMMENT="" />
    <EXPORT ORDINAL="1683" NAME="?compare@QString@@SAHABV1@ABVQStringRef@@W4CaseSensitivity@Qt@@@Z" PURGE="0" COMMENT="" />
    <EXPORT ORDINAL="1684" NAME="?compare@QString@@SAHABVQLatin1String@@ABV1@W4CaseSensitivity@Qt@@@Z" PURGE="0" COMMENT="" />
    <EXPORT ORDINAL="1685" NAME="?compare@QStringRef@@QBEHABV1@W4CaseSensitivity@Qt@@@Z" PURGE="8" COMMENT="" />
    <EXPORT ORDINAL="1686" NAME="?compare@QStringRef@@QBEHABVQString@@W4CaseSensitivity@Qt@@@Z" PURGE="8" COMMENT="" />
    <EXPORT ORDINAL="1687" NAME="?compare@QStringRef@@QBEHVQLatin1String@@W4CaseSensitivity@Qt@@@Z" PURGE="8" COMMENT="" />
    <EXPORT ORDINAL="1688" NAME="?compare@QStringRef@@SAHABV1@0W4CaseSensitivity@Qt@@@Z" PURGE="0" COMMENT="" />
    <EXPORT ORDINAL="1689" NAME="?compare@QStringRef@@SAHABV1@ABVQString@@W4CaseSensitivity@Qt@@@Z" PURGE="0" COMMENT="" />
    <EXPORT ORDINAL="1690" NAME="?compare@QStringRef@@SAHABV1@VQLatin1String@@W4CaseSensitivity@Qt@@@Z" PURGE="0" COMMENT="" />
    <EXPORT ORDINAL="1691" NAME="?compare_helper@QString@@CAHPBVQChar@@H0HW4CaseSensitivity@Qt@@@Z" PURGE="0" COMMENT="" />
    <EXPORT ORDINAL="1692" NAME="?compare_helper@QString@@CAHPBVQChar@@HVQLatin1String@@W4CaseSensitivity@Qt@@@Z" PURGE="0" COMMENT="" />
    <EXPORT ORDINAL="1693" NAME="?completeBaseName@QFileInfo@@QBE?AVQString@@XZ" PURGE="4" COMMENT="" />
    <EXPORT ORDINAL="1694" NAME="?completeSuffix@QFileInfo@@QBE?AVQString@@XZ" PURGE="4" COMMENT="" />
    <EXPORT ORDINAL="1695" NAME="?compressEvent@QCoreApplication@@MAE_NPAVQEvent@@PAVQObject@@PAVQPostEventList@@@Z" PURGE="12" COMMENT="" />
    <EXPORT ORDINAL="1696" NAME="?configuration@QStateMachine@@QBE?AV?$QSet@PAVQAbstractState@@@@XZ" PURGE="4" COMMENT="" />
    <EXPORT ORDINAL="1697" NAME="?connect@QMetaObject@@SA_NPBVQObject@@H0HHPAH@Z" PURGE="0" COMMENT="" />
    <EXPORT ORDINAL="1698" NAME="?connect@QObject@@QBE_NPBV1@PBD1W4ConnectionType@Qt@@@Z" PURGE="16" COMMENT="" />
    <EXPORT ORDINAL="1699" NAME="?connect@QObject@@SA_NPBV1@ABVQMetaMethod@@01W4ConnectionType@Qt@@@Z" PURGE="0" COMMENT="" />
    <EXPORT ORDINAL="1700" NAME="?connect@QObject@@SA_NPBV1@PBD01W4ConnectionType@Qt@@@Z" PURGE="0" COMMENT="" />
    <EXPORT ORDINAL="1701" NAME="?connectNotify@QBuffer@@MAEXPBD@Z" PURGE="4" COMMENT="" />
    <EXPORT ORDINAL="1702" NAME="?connectNotify@QFutureWatcherBase@@MAEXPBD@Z" PURGE="4" COMMENT="" />
    <EXPORT ORDINAL="1703" NAME="?connectNotify@QObject@@MAEXPBD@Z" PURGE="4" COMMENT="" />
    <EXPORT ORDINAL="1704" NAME="?connectNotify@QObjectPrivate@@QAEXPBD@Z" PURGE="-1" COMMENT="" />
    <EXPORT ORDINAL="1705" NAME="?connectOutputInterface@QFutureWatcherBase@@IAEXXZ" PURGE="0" COMMENT="" />
    <EXPORT ORDINAL="1706" NAME="?connectSlotsByName@QMetaObject@@SAXPAVQObject@@@Z" PURGE="0" COMMENT="" />
    <EXPORT ORDINAL="1707" NAME="?constBegin@?$QVector@VQPoint@@@@QBEPBVQPoint@@XZ" PURGE="0" COMMENT="" />
    <EXPORT ORDINAL="1708" NAME="?constBegin@?$QVector@VQPointF@@@@QBEPBVQPointF@@XZ" PURGE="0" COMMENT="" />
    <EXPORT ORDINAL="1709" NAME="?constBegin@?$QVector@VQXmlStreamAttribute@@@@QBEPBVQXmlStreamAttribute@@XZ" PURGE="0" COMMENT="" />
    <EXPORT ORDINAL="1710" NAME="?constBegin@QByteArray@@QBEPBDXZ" PURGE="0" COMMENT="" />
    <EXPORT ORDINAL="1711" NAME="?constBegin@QString@@QBEPBVQChar@@XZ" PURGE="0" COMMENT="" />
    <EXPORT ORDINAL="1712" NAME="?constData@?$QVector@VQPoint@@@@QBEPBVQPoint@@XZ" PURGE="0" COMMENT="" />
    <EXPORT ORDINAL="1713" NAME="?constData@?$QVector@VQPointF@@@@QBEPBVQPointF@@XZ" PURGE="0" COMMENT="" />
    <EXPORT ORDINAL="1714" NAME="?constData@?$QVector@VQXmlStreamAttribute@@@@QBEPBVQXmlStreamAttribute@@XZ" PURGE="0" COMMENT="" />
    <EXPORT ORDINAL="1715" NAME="?constData@QByteArray@@QBEPBDXZ" PURGE="0" COMMENT="" />
    <EXPORT ORDINAL="1716" NAME="?constData@QSharedMemory@@QBEPBXXZ" PURGE="0" COMMENT="" />
    <EXPORT ORDINAL="1717" NAME="?constData@QString@@QBEPBVQChar@@XZ" PURGE="0" COMMENT="" />
    <EXPORT ORDINAL="1718" NAME="?constData@QStringRef@@QBEPBVQChar@@XZ" PURGE="0" COMMENT="" />
    <EXPORT ORDINAL="1719" NAME="?constData@QVariant@@QBEPBXXZ" PURGE="0" COMMENT="" />
    <EXPORT ORDINAL="1720" NAME="?constEnd@?$QVector@VQPoint@@@@QBEPBVQPoint@@XZ" PURGE="0" COMMENT="" />
    <EXPORT ORDINAL="1721" NAME="?constEnd@?$QVector@VQPointF@@@@QBEPBVQPointF@@XZ" PURGE="0" COMMENT="" />
    <EXPORT ORDINAL="1722" NAME="?constEnd@?$QVector@VQXmlStreamAttribute@@@@QBEPBVQXmlStreamAttribute@@XZ" PURGE="0" COMMENT="" />
    <EXPORT ORDINAL="1723" NAME="?constEnd@QByteArray@@QBEPBDXZ" PURGE="0" COMMENT="" />
    <EXPORT ORDINAL="1724" NAME="?constEnd@QString@@QBEPBVQChar@@XZ" PURGE="0" COMMENT="" />
    <EXPORT ORDINAL="1725" NAME="?constref@QString@@QBE?AVQChar@@I@Z" PURGE="8" COMMENT="" />
    <EXPORT ORDINAL="1726" NAME="?construct@QMetaType@@SAPAXHPBX@Z" PURGE="0" COMMENT="" />
    <EXPORT ORDINAL="1727" NAME="?constructor@QMetaObject@@QBE?AVQMetaMethod@@H@Z" PURGE="8" COMMENT="" />
    <EXPORT ORDINAL="1728" NAME="?constructorCount@QMetaObject@@QBEHXZ" PURGE="0" COMMENT="" />
    <EXPORT ORDINAL="1729" NAME="?contains@?$QVector@VQPoint@@@@QBE_NABVQPoint@@@Z" PURGE="4" COMMENT="" />
    <EXPORT ORDINAL="1730" NAME="?contains@?$QVector@VQPointF@@@@QBE_NABVQPointF@@@Z" PURGE="4" COMMENT="" />
    <EXPORT ORDINAL="1731" NAME="?contains@?$QVector@VQXmlStreamAttribute@@@@QBE_NABVQXmlStreamAttribute@@@Z" PURGE="4" COMMENT="" />
    <EXPORT ORDINAL="1732" NAME="?contains@QByteArray@@QBE?AVQBool@@ABV1@@Z" PURGE="8" COMMENT="" />
    <EXPORT ORDINAL="1733" NAME="?contains@QByteArray@@QBE?AVQBool@@D@Z" PURGE="8" COMMENT="" />
    <EXPORT ORDINAL="1734" NAME="?contains@QByteArray@@QBE?AVQBool@@PBD@Z" PURGE="8" COMMENT="" />
    <EXPORT ORDINAL="1735" NAME="?contains@QProcessEnvironment@@QBE_NABVQString@@@Z" PURGE="4" COMMENT="" />
    <EXPORT ORDINAL="1736" NAME="?contains@QRect@@QBE_NABV1@_N@Z" PURGE="8" COMMENT="" />
    <EXPORT ORDINAL="1737" NAME="?contains@QRect@@QBE_NABVQPoint@@_N@Z" PURGE="8" COMMENT="" />
    <EXPORT ORDINAL="1738" NAME="?contains@QRect@@QBE_NHH@Z" PURGE="8" COMMENT="" />
    <EXPORT ORDINAL="1739" NAME="?contains@QRect@@QBE_NHH_N@Z" PURGE="12" COMMENT="" />
    <EXPORT ORDINAL="1740" NAME="?contains@QRectF@@QBE_NABV1@@Z" PURGE="4" COMMENT="" />
    <EXPORT ORDINAL="1741" NAME="?contains@QRectF@@QBE_NABVQPointF@@@Z" PURGE="4" COMMENT="" />
    <EXPORT ORDINAL="1742" NAME="?contains@QRectF@@QBE_NNN@Z" PURGE="16" COMMENT="" />
    <EXPORT ORDINAL="1743" NAME="?contains@QSettings@@QBE_NABVQString@@@Z" PURGE="4" COMMENT="" />
    <EXPORT ORDINAL="1744" NAME="?contains@QString@@QBE?AVQBool@@AAVQRegExp@@@Z" PURGE="8" COMMENT="" />
    <EXPORT ORDINAL="1745" NAME="?contains@QString@@QBE?AVQBool@@ABV1@W4CaseSensitivity@Qt@@@Z" PURGE="12" COMMENT="" />
    <EXPORT ORDINAL="1746" NAME="?contains@QString@@QBE?AVQBool@@ABV1@_N@Z" PURGE="12" COMMENT="" />
    <EXPORT ORDINAL="1747" NAME="?contains@QString@@QBE?AVQBool@@ABVQRegExp@@@Z" PURGE="8" COMMENT="" />
    <EXPORT ORDINAL="1748" NAME="?contains@QString@@QBE?AVQBool@@ABVQStringRef@@W4CaseSensitivity@Qt@@@Z" PURGE="12" COMMENT="" />
    <EXPORT ORDINAL="1749" NAME="?contains@QString@@QBE?AVQBool@@VQChar@@W4CaseSensitivity@Qt@@@Z" PURGE="12" COMMENT="" />
    <EXPORT ORDINAL="1750" NAME="?contains@QString@@QBE?AVQBool@@VQChar@@_N@Z" PURGE="12" COMMENT="" />
    <EXPORT ORDINAL="1751" NAME="?contains@QStringRef@@QBE?AVQBool@@ABV1@W4CaseSensitivity@Qt@@@Z" PURGE="12" COMMENT="" />
    <EXPORT ORDINAL="1752" NAME="?contains@QStringRef@@QBE?AVQBool@@ABVQString@@W4CaseSensitivity@Qt@@@Z" PURGE="12" COMMENT="" />
    <EXPORT ORDINAL="1753" NAME="?contains@QStringRef@@QBE?AVQBool@@VQChar@@W4CaseSensitivity@Qt@@@Z" PURGE="12" COMMENT="" />
    <EXPORT ORDINAL="1754" NAME="?contains@QStringRef@@QBE?AVQBool@@VQLatin1String@@W4CaseSensitivity@Qt@@@Z" PURGE="12" COMMENT="" />
    <EXPORT ORDINAL="1755" NAME="?contains@ResultStoreBase@QtConcurrent@@QBE_NH@Z" PURGE="4" COMMENT="" />
    <EXPORT ORDINAL="1756" NAME="?continueFreeData@QMapData@@QAEXH@Z" PURGE="4" COMMENT="" />
    <EXPORT ORDINAL="1757" NAME="?convert@QVariant@@QAE_NW4Type@1@@Z" PURGE="4" COMMENT="" />
    <EXPORT ORDINAL="1758" NAME="?convertFromAscii@QAbstractConcatenable@@KAXDAAPAVQChar@@@Z" PURGE="0" COMMENT="" />
    <EXPORT ORDINAL="1759" NAME="?convertFromAscii@QAbstractConcatenable@@KAXPBDHAAPAVQChar@@@Z" PURGE="0" COMMENT="" />
    <EXPORT ORDINAL="1760" NAME="?convertSeparators@QDir@@SA?AVQString@@ABV2@@Z" PURGE="0" COMMENT="" />
    <EXPORT ORDINAL="1761" NAME="?convertToAbs@QDir@@QAEXXZ" PURGE="0" COMMENT="" />
    <EXPORT ORDINAL="1762" NAME="?convertToAbs@QFileInfo@@QAE_NXZ" PURGE="0" COMMENT="" />
    <EXPORT ORDINAL="1763" NAME="?convertToAscii@QAbstractConcatenable@@KAXPBVQChar@@HAAPAD@Z" PURGE="0" COMMENT="" />
    <EXPORT ORDINAL="1764" NAME="?convertToAscii@QAbstractConcatenable@@KAXVQChar@@AAPAD@Z" PURGE="0" COMMENT="" />
    <EXPORT ORDINAL="1765" NAME="?convertToLatin1@QAbstractConcatenable@@KAXVQChar@@AAPAD@Z" PURGE="0" COMMENT="" />
    <EXPORT ORDINAL="1766" NAME="?coords@QRect@@QBEXPAH000@Z" PURGE="16" COMMENT="" />
    <EXPORT ORDINAL="1767" NAME="?copy@QAbstractFileEngine@@UAE_NABVQString@@@Z" PURGE="4" COMMENT="" />
    <EXPORT ORDINAL="1768" NAME="?copy@QFSFileEngine@@UAE_NABVQString@@@Z" PURGE="4" COMMENT="" />
    <EXPORT ORDINAL="1769" NAME="?copy@QFile@@QAE_NABVQString@@@Z" PURGE="4" COMMENT="" />
    <EXPORT ORDINAL="1770" NAME="?copy@QFile@@SA_NABVQString@@0@Z" PURGE="0" COMMENT="" />
    <EXPORT ORDINAL="1771" NAME="?copy@QString@@QBE?AV1@XZ" PURGE="4" COMMENT="" />
    <EXPORT ORDINAL="1772" NAME="?count@?$QVector@VQPoint@@@@QBEHABVQPoint@@@Z" PURGE="4" COMMENT="" />
    <EXPORT ORDINAL="1773" NAME="?count@?$QVector@VQPoint@@@@QBEHXZ" PURGE="0" COMMENT="" />
    <EXPORT ORDINAL="1774" NAME="?count@?$QVector@VQPointF@@@@QBEHABVQPointF@@@Z" PURGE="4" COMMENT="" />
    <EXPORT ORDINAL="1775" NAME="?count@?$QVector@VQPointF@@@@QBEHXZ" PURGE="0" COMMENT="" />
    <EXPORT ORDINAL="1776" NAME="?count@?$QVector@VQXmlStreamAttribute@@@@QBEHABVQXmlStreamAttribute@@@Z" PURGE="4" COMMENT="" />
    <EXPORT ORDINAL="1777" NAME="?count@?$QVector@VQXmlStreamAttribute@@@@QBEHXZ" PURGE="0" COMMENT="" />
    <EXPORT ORDINAL="1778" NAME="?count@QBitArray@@QBEHXZ" PURGE="0" COMMENT="" />
    <EXPORT ORDINAL="1779" NAME="?count@QBitArray@@QBEH_N@Z" PURGE="4" COMMENT="" />
    <EXPORT ORDINAL="1780" NAME="?count@QByteArray@@QBEHABV1@@Z" PURGE="4" COMMENT="" />
    <EXPORT ORDINAL="1781" NAME="?count@QByteArray@@QBEHD@Z" PURGE="4" COMMENT="" />
    <EXPORT ORDINAL="1782" NAME="?count@QByteArray@@QBEHPBD@Z" PURGE="4" COMMENT="" />
    <EXPORT ORDINAL="1783" NAME="?count@QByteArray@@QBEHXZ" PURGE="0" COMMENT="" />
    <EXPORT ORDINAL="1784" NAME="?count@QDir@@QBEIXZ" PURGE="0" COMMENT="" />
    <EXPORT ORDINAL="1785" NAME="?count@QString@@QBEHABV1@W4CaseSensitivity@Qt@@@Z" PURGE="8" COMMENT="" />
    <EXPORT ORDINAL="1786" NAME="?count@QString@@QBEHABVQRegExp@@@Z" PURGE="4" COMMENT="" />
    <EXPORT ORDINAL="1787" NAME="?count@QString@@QBEHABVQStringRef@@W4CaseSensitivity@Qt@@@Z" PURGE="8" COMMENT="" />
    <EXPORT ORDINAL="1788" NAME="?count@QString@@QBEHVQChar@@W4CaseSensitivity@Qt@@@Z" PURGE="8" COMMENT="" />
    <EXPORT ORDINAL="1789" NAME="?count@QString@@QBEHXZ" PURGE="0" COMMENT="" />
    <EXPORT ORDINAL="1790" NAME="?count@QStringRef@@QBEHABV1@W4CaseSensitivity@Qt@@@Z" PURGE="8" COMMENT="" />
    <EXPORT ORDINAL="1791" NAME="?count@QStringRef@@QBEHABVQString@@W4CaseSensitivity@Qt@@@Z" PURGE="8" COMMENT="" />
    <EXPORT ORDINAL="1792" NAME="?count@QStringRef@@QBEHVQChar@@W4CaseSensitivity@Qt@@@Z" PURGE="8" COMMENT="" />
    <EXPORT ORDINAL="1793" NAME="?count@QStringRef@@QBEHXZ" PURGE="0" COMMENT="" />
    <EXPORT ORDINAL="1794" NAME="?count@ResultStoreBase@QtConcurrent@@QBEHXZ" PURGE="0" COMMENT="" />
    <EXPORT ORDINAL="1795" NAME="?countriesForLanguage@QLocale@@SA?AV?$QList@W4Country@QLocale@@@@W4Language@1@@Z" PURGE="0" COMMENT="" />
    <EXPORT ORDINAL="1796" NAME="?country@QLocale@@QBE?AW4Country@1@XZ" PURGE="0" COMMENT="" />
    <EXPORT ORDINAL="1797" NAME="?countryCode@QLocalePrivate@@QBE?AVQString@@XZ" PURGE="4" COMMENT="" />
    <EXPORT ORDINAL="1798" NAME="?countryId@QLocalePrivate@@QBEGXZ" PURGE="0" COMMENT="" />
    <EXPORT ORDINAL="1799" NAME="?countryToString@QLocale@@SA?AVQString@@W4Country@1@@Z" PURGE="0" COMMENT="" />
    <EXPORT ORDINAL="1800" NAME="?create@QAbstractFileEngine@@SAPAV1@ABVQString@@@Z" PURGE="0" COMMENT="" />
    <EXPORT ORDINAL="1801" NAME="?create@QNonContiguousByteDeviceFactory@@SAPAVQNonContiguousByteDevice@@PAVQByteArray@@@Z" PURGE="0" COMMENT="" />
    <EXPORT ORDINAL="1802" NAME="?create@QNonContiguousByteDeviceFactory@@SAPAVQNonContiguousByteDevice@@PAVQIODevice@@@Z" PURGE="0" COMMENT="" />
    <EXPORT ORDINAL="1803" NAME="?create@QNonContiguousByteDeviceFactory@@SAPAVQNonContiguousByteDevice@@V?$QSharedPointer@VQRingBuffer@@@@@Z" PURGE="0" COMMENT="" />
    <EXPORT ORDINAL="1804" NAME="?create@QSharedMemory@@QAE_NHW4AccessMode@1@@Z" PURGE="8" COMMENT="" />
    <EXPORT ORDINAL="1805" NAME="?create@QTextCodecPlugin@@EAEPAVQTextCodec@@ABVQString@@@Z" PURGE="4" COMMENT="" />
    <EXPORT ORDINAL="1806" NAME="?create@QVariant@@IAEXHPBX@Z" PURGE="8" COMMENT="" />
    <EXPORT ORDINAL="1807" NAME="?createData@QMapData@@SAPAU1@H@Z" PURGE="0" COMMENT="" />
    <EXPORT ORDINAL="1808" NAME="?createData@QMapData@@SAPAU1@XZ" PURGE="0" COMMENT="" />
    <EXPORT ORDINAL="1809" NAME="?createEventDispatcher@QCoreApplicationPrivate@@UAEXXZ" PURGE="0" COMMENT="" />
    <EXPORT ORDINAL="1810" NAME="?createIndex@QAbstractItemModel@@IBE?AVQModelIndex@@HHH@Z" PURGE="16" COMMENT="" />
    <EXPORT ORDINAL="1811" NAME="?createIndex@QAbstractItemModel@@IBE?AVQModelIndex@@HHI@Z" PURGE="16" COMMENT="" />
    <EXPORT ORDINAL="1812" NAME="?createIndex@QAbstractItemModel@@IBE?AVQModelIndex@@HHPAX@Z" PURGE="16" COMMENT="" />
    <EXPORT ORDINAL="1813" NAME="?createIndex@QAbstractItemModelPrivate@@QBE?AVQModelIndex@@HHH@Z" PURGE="16" COMMENT="" />
    <EXPORT ORDINAL="1814" NAME="?createIndex@QAbstractItemModelPrivate@@QBE?AVQModelIndex@@HHPAX@Z" PURGE="16" COMMENT="" />
    <EXPORT ORDINAL="1815" NAME="?createInternalHwnd@QEventDispatcherWin32@@AAEXXZ" PURGE="0" COMMENT="" />
    <EXPORT ORDINAL="1816" NAME="?createLocalFile@QTemporaryFile@@SAPAV1@AAVQFile@@@Z" PURGE="0" COMMENT="" />
    <EXPORT ORDINAL="1817" NAME="?createLocalFile@QTemporaryFile@@SAPAV1@ABVQString@@@Z" PURGE="0" COMMENT="" />
    <EXPORT ORDINAL="1818" NAME="?createMutex@QMutexPool@@AAEPAVQMutex@@H@Z" PURGE="4" COMMENT="" />
    <EXPORT ORDINAL="1819" NAME="?createProperty@QAbstractDynamicMetaObject@@UAEHPBD0@Z" PURGE="8" COMMENT="" />
    <EXPORT ORDINAL="1820" NAME="?createSeparatedList@QLocale@@QBE?AVQString@@ABVQStringList@@@Z" PURGE="8" COMMENT="" />
    <EXPORT ORDINAL="1821" NAME="?createUuid@QUuid@@SA?AU1@XZ" PURGE="0" COMMENT="" />
    <EXPORT ORDINAL="1822" NAME="?created@QFileInfo@@QBE?AVQDateTime@@XZ" PURGE="4" COMMENT="" />
    <EXPORT ORDINAL="1823" NAME="?currencySymbol@QLocale@@QBE?AVQString@@W4CurrencySymbolFormat@1@@Z" PURGE="8" COMMENT="" />
    <EXPORT ORDINAL="1824" NAME="?current@QDir@@SA?AV1@XZ" PURGE="0" COMMENT="" />
    <EXPORT ORDINAL="1825" NAME="?currentAnimation@QSequentialAnimationGroup@@QBEPAVQAbstractAnimation@@XZ" PURGE="0" COMMENT="" />
    <EXPORT ORDINAL="1826" NAME="?currentAnimationChanged@QSequentialAnimationGroup@@IAEXPAVQAbstractAnimation@@@Z" PURGE="4" COMMENT="" />
    <EXPORT ORDINAL="1827" NAME="?currentDate@QDate@@SA?AV1@W4TimeSpec@Qt@@@Z" PURGE="0" COMMENT="" />
    <EXPORT ORDINAL="1828" NAME="?currentDate@QDate@@SA?AV1@XZ" PURGE="0" COMMENT="" />
    <EXPORT ORDINAL="1829" NAME="?currentDateTime@QDateTime@@SA?AV1@W4TimeSpec@Qt@@@Z" PURGE="0" COMMENT="" />
    <EXPORT ORDINAL="1830" NAME="?currentDateTime@QDateTime@@SA?AV1@XZ" PURGE="0" COMMENT="" />
    <EXPORT ORDINAL="1831" NAME="?currentDateTimeUtc@QDateTime@@SA?AV1@XZ" PURGE="0" COMMENT="" />
    <EXPORT ORDINAL="1832" NAME="?currentDirPath@QDir@@SA?AVQString@@XZ" PURGE="0" COMMENT="" />
    <EXPORT ORDINAL="1833" NAME="?currentFileInfo@QAbstractFileEngineIterator@@UBE?AVQFileInfo@@XZ" PURGE="4" COMMENT="" />
    <EXPORT ORDINAL="1834" NAME="?currentFilePath@QAbstractFileEngineIterator@@QBE?AVQString@@XZ" PURGE="4" COMMENT="" />
    <EXPORT ORDINAL="1835" NAME="?currentFrame@QTimeLine@@QBEHXZ" PURGE="0" COMMENT="" />
    <EXPORT ORDINAL="1836" NAME="?currentLoop@QAbstractAnimation@@QBEHXZ" PURGE="0" COMMENT="" />
    <EXPORT ORDINAL="1837" NAME="?currentLoopChanged@QAbstractAnimation@@IAEXH@Z" PURGE="4" COMMENT="" />
    <EXPORT ORDINAL="1838" NAME="?currentLoopTime@QAbstractAnimation@@QBEHXZ" PURGE="0" COMMENT="" />
    <EXPORT ORDINAL="1839" NAME="?currentMSecsSinceEpoch@QDateTime@@SA_JXZ" PURGE="0" COMMENT="" />
    <EXPORT ORDINAL="1840" NAME="?currentPath@QDir@@SA?AVQString@@XZ" PURGE="0" COMMENT="" />
    <EXPORT ORDINAL="1841" NAME="?currentPath@QFSFileEngine@@SA?AVQString@@ABV2@@Z" PURGE="0" COMMENT="" />
    <EXPORT ORDINAL="1842" NAME="?currentThread@QThread@@SAPAV1@XZ" PURGE="0" COMMENT="" />
    <EXPORT ORDINAL="1843" NAME="?currentThreadId@QThread@@SAPAXXZ" PURGE="-1" COMMENT="" />
    <EXPORT ORDINAL="1844" NAME="?currentTime@QAbstractAnimation@@QBEHXZ" PURGE="0" COMMENT="" />
    <EXPORT ORDINAL="1845" NAME="?currentTime@QTime@@SA?AV1@W4TimeSpec@Qt@@@Z" PURGE="0" COMMENT="" />
    <EXPORT ORDINAL="1846" NAME="?currentTime@QTime@@SA?AV1@XZ" PURGE="0" COMMENT="" />
    <EXPORT ORDINAL="1847" NAME="?currentTime@QTimeLine@@QBEHXZ" PURGE="0" COMMENT="" />
    <EXPORT ORDINAL="1848" NAME="?currentUnicodeVersion@QChar@@SI?AW4UnicodeVersion@1@XZ" PURGE="0" COMMENT="" />
    <EXPORT ORDINAL="1849" NAME="?currentValue@QTimeLine@@QBENXZ" PURGE="0" COMMENT="" />
    <EXPORT ORDINAL="1850" NAME="?currentValue@QVariantAnimation@@QBE?AVQVariant@@XZ" PURGE="4" COMMENT="" />
    <EXPORT ORDINAL="1851" NAME="?cursorPosition@QDateTimeParser@@UBEHXZ" PURGE="0" COMMENT="" />
    <EXPORT ORDINAL="1852" NAME="?curveShape@QTimeLine@@QBE?AW4CurveShape@1@XZ" PURGE="0" COMMENT="" />
    <EXPORT ORDINAL="1853" NAME="?customEvent@QObject@@MAEXPAVQEvent@@@Z" PURGE="4" COMMENT="" />
    <EXPORT ORDINAL="1854" NAME="?customType@QEasingCurve@@QBEP6ANN@ZXZ" PURGE="0" COMMENT="" />
    <EXPORT ORDINAL="1855" NAME="?d@QLocale@@ABEPBUQLocalePrivate@@XZ" PURGE="0" COMMENT="" />
    <EXPORT ORDINAL="1856" NAME="?d_func@QAbstractAnimation@@AAEPAVQAbstractAnimationPrivate@@XZ" PURGE="0" COMMENT="" />
    <EXPORT ORDINAL="1857" NAME="?d_func@QAbstractAnimation@@ABEPBVQAbstractAnimationPrivate@@XZ" PURGE="0" COMMENT="" />
    <EXPORT ORDINAL="1858" NAME="?d_func@QAbstractEventDispatcher@@AAEPAVQAbstractEventDispatcherPrivate@@XZ" PURGE="0" COMMENT="" />
    <EXPORT ORDINAL="1859" NAME="?d_func@QAbstractEventDispatcher@@ABEPBVQAbstractEventDispatcherPrivate@@XZ" PURGE="0" COMMENT="" />
    <EXPORT ORDINAL="1860" NAME="?d_func@QAbstractFileEngine@@AAEPAVQAbstractFileEnginePrivate@@XZ" PURGE="0" COMMENT="" />
    <EXPORT ORDINAL="1861" NAME="?d_func@QAbstractFileEngine@@ABEPBVQAbstractFileEnginePrivate@@XZ" PURGE="0" COMMENT="" />
    <EXPORT ORDINAL="1862" NAME="?d_func@QAbstractItemModel@@AAEPAVQAbstractItemModelPrivate@@XZ" PURGE="0" COMMENT="" />
    <EXPORT ORDINAL="1863" NAME="?d_func@QAbstractItemModel@@ABEPBVQAbstractItemModelPrivate@@XZ" PURGE="0" COMMENT="" />
    <EXPORT ORDINAL="1864" NAME="?d_func@QAbstractState@@AAEPAVQAbstractStatePrivate@@XZ" PURGE="0" COMMENT="" />
    <EXPORT ORDINAL="1865" NAME="?d_func@QAbstractState@@ABEPBVQAbstractStatePrivate@@XZ" PURGE="0" COMMENT="" />
    <EXPORT ORDINAL="1866" NAME="?d_func@QAbstractTransition@@AAEPAVQAbstractTransitionPrivate@@XZ" PURGE="0" COMMENT="" />
    <EXPORT ORDINAL="1867" NAME="?d_func@QAbstractTransition@@ABEPBVQAbstractTransitionPrivate@@XZ" PURGE="0" COMMENT="" />
    <EXPORT ORDINAL="1868" NAME="?d_func@QAnimationDriver@@AAEPAVQAnimationDriverPrivate@@XZ" PURGE="0" COMMENT="" />
    <EXPORT ORDINAL="1869" NAME="?d_func@QAnimationDriver@@ABEPBVQAnimationDriverPrivate@@XZ" PURGE="0" COMMENT="" />
    <EXPORT ORDINAL="1870" NAME="?d_func@QAnimationGroup@@AAEPAVQAnimationGroupPrivate@@XZ" PURGE="0" COMMENT="" />
    <EXPORT ORDINAL="1871" NAME="?d_func@QAnimationGroup@@ABEPBVQAnimationGroupPrivate@@XZ" PURGE="0" COMMENT="" />
    <EXPORT ORDINAL="1872" NAME="?d_func@QBuffer@@AAEPAVQBufferPrivate@@XZ" PURGE="0" COMMENT="" />
    <EXPORT ORDINAL="1873" NAME="?d_func@QBuffer@@ABEPBVQBufferPrivate@@XZ" PURGE="0" COMMENT="" />
    <EXPORT ORDINAL="1874" NAME="?d_func@QCoreApplication@@AAEPAVQCoreApplicationPrivate@@XZ" PURGE="0" COMMENT="" />
    <EXPORT ORDINAL="1875" NAME="?d_func@QCoreApplication@@ABEPBVQCoreApplicationPrivate@@XZ" PURGE="0" COMMENT="" />
    <EXPORT ORDINAL="1876" NAME="?d_func@QEventDispatcherWin32@@AAEPAVQEventDispatcherWin32Private@@XZ" PURGE="0" COMMENT="" />
    <EXPORT ORDINAL="1877" NAME="?d_func@QEventDispatcherWin32@@ABEPBVQEventDispatcherWin32Private@@XZ" PURGE="0" COMMENT="" />
    <EXPORT ORDINAL="1878" NAME="?d_func@QEventLoop@@AAEPAVQEventLoopPrivate@@XZ" PURGE="0" COMMENT="" />
    <EXPORT ORDINAL="1879" NAME="?d_func@QEventLoop@@ABEPBVQEventLoopPrivate@@XZ" PURGE="0" COMMENT="" />
    <EXPORT ORDINAL="1880" NAME="?d_func@QEventTransition@@AAEPAVQEventTransitionPrivate@@XZ" PURGE="0" COMMENT="" />
    <EXPORT ORDINAL="1881" NAME="?d_func@QEventTransition@@ABEPBVQEventTransitionPrivate@@XZ" PURGE="0" COMMENT="" />
    <EXPORT ORDINAL="1882" NAME="?d_func@QFSFileEngine@@AAEPAVQFSFileEnginePrivate@@XZ" PURGE="0" COMMENT="" />
    <EXPORT ORDINAL="1883" NAME="?d_func@QFSFileEngine@@ABEPBVQFSFileEnginePrivate@@XZ" PURGE="0" COMMENT="" />
    <EXPORT ORDINAL="1884" NAME="?d_func@QFactoryLoader@@AAEPAVQFactoryLoaderPrivate@@XZ" PURGE="0" COMMENT="" />
    <EXPORT ORDINAL="1885" NAME="?d_func@QFactoryLoader@@ABEPBVQFactoryLoaderPrivate@@XZ" PURGE="0" COMMENT="" />
    <EXPORT ORDINAL="1886" NAME="?d_func@QFile@@AAEPAVQFilePrivate@@XZ" PURGE="0" COMMENT="" />
    <EXPORT ORDINAL="1887" NAME="?d_func@QFile@@ABEPBVQFilePrivate@@XZ" PURGE="0" COMMENT="" />
    <EXPORT ORDINAL="1888" NAME="?d_func@QFileInfo@@AAEPAVQFileInfoPrivate@@XZ" PURGE="0" COMMENT="" />
    <EXPORT ORDINAL="1889" NAME="?d_func@QFileInfo@@ABEPBVQFileInfoPrivate@@XZ" PURGE="0" COMMENT="" />
    <EXPORT ORDINAL="1890" NAME="?d_func@QFileSystemWatcher@@AAEPAVQFileSystemWatcherPrivate@@XZ" PURGE="0" COMMENT="" />
    <EXPORT ORDINAL="1891" NAME="?d_func@QFileSystemWatcher@@ABEPBVQFileSystemWatcherPrivate@@XZ" PURGE="0" COMMENT="" />
    <EXPORT ORDINAL="1892" NAME="?d_func@QFinalState@@AAEPAVQFinalStatePrivate@@XZ" PURGE="0" COMMENT="" />
    <EXPORT ORDINAL="1893" NAME="?d_func@QFinalState@@ABEPBVQFinalStatePrivate@@XZ" PURGE="0" COMMENT="" />
    <EXPORT ORDINAL="1894" NAME="?d_func@QFutureWatcherBase@@AAEPAVQFutureWatcherBasePrivate@@XZ" PURGE="0" COMMENT="" />
    <EXPORT ORDINAL="1895" NAME="?d_func@QFutureWatcherBase@@ABEPBVQFutureWatcherBasePrivate@@XZ" PURGE="0" COMMENT="" />
    <EXPORT ORDINAL="1896" NAME="?d_func@QHistoryState@@AAEPAVQHistoryStatePrivate@@XZ" PURGE="0" COMMENT="" />
    <EXPORT ORDINAL="1897" NAME="?d_func@QHistoryState@@ABEPBVQHistoryStatePrivate@@XZ" PURGE="0" COMMENT="" />
    <EXPORT ORDINAL="1898" NAME="?d_func@QIODevice@@AAEPAVQIODevicePrivate@@XZ" PURGE="0" COMMENT="" />
    <EXPORT ORDINAL="1899" NAME="?d_func@QIODevice@@ABEPBVQIODevicePrivate@@XZ" PURGE="0" COMMENT="" />
    <EXPORT ORDINAL="1900" NAME="?d_func@QMimeData@@AAEPAVQMimeDataPrivate@@XZ" PURGE="0" COMMENT="" />
    <EXPORT ORDINAL="1901" NAME="?d_func@QMimeData@@ABEPBVQMimeDataPrivate@@XZ" PURGE="0" COMMENT="" />
    <EXPORT ORDINAL="1902" NAME="?d_func@QObject@@AAEPAVQObjectPrivate@@XZ" PURGE="0" COMMENT="" />
    <EXPORT ORDINAL="1903" NAME="?d_func@QObject@@ABEPBVQObjectPrivate@@XZ" PURGE="0" COMMENT="" />
    <EXPORT ORDINAL="1904" NAME="?d_func@QParallelAnimationGroup@@AAEPAVQParallelAnimationGroupPrivate@@XZ" PURGE="0" COMMENT="" />
    <EXPORT ORDINAL="1905" NAME="?d_func@QParallelAnimationGroup@@ABEPBVQParallelAnimationGroupPrivate@@XZ" PURGE="0" COMMENT="" />
    <EXPORT ORDINAL="1906" NAME="?d_func@QPauseAnimation@@AAEPAVQPauseAnimationPrivate@@XZ" PURGE="0" COMMENT="" />
    <EXPORT ORDINAL="1907" NAME="?d_func@QPauseAnimation@@ABEPBVQPauseAnimationPrivate@@XZ" PURGE="0" COMMENT="" />
    <EXPORT ORDINAL="1908" NAME="?d_func@QProcess@@AAEPAVQProcessPrivate@@XZ" PURGE="0" COMMENT="" />
    <EXPORT ORDINAL="1909" NAME="?d_func@QProcess@@ABEPBVQProcessPrivate@@XZ" PURGE="0" COMMENT="" />
    <EXPORT ORDINAL="1910" NAME="?d_func@QPropertyAnimation@@AAEPAVQPropertyAnimationPrivate@@XZ" PURGE="0" COMMENT="" />
    <EXPORT ORDINAL="1911" NAME="?d_func@QPropertyAnimation@@ABEPBVQPropertyAnimationPrivate@@XZ" PURGE="0" COMMENT="" />
    <EXPORT ORDINAL="1912" NAME="?d_func@QResource@@AAEPAVQResourcePrivate@@XZ" PURGE="0" COMMENT="" />
    <EXPORT ORDINAL="1913" NAME="?d_func@QResource@@ABEPBVQResourcePrivate@@XZ" PURGE="0" COMMENT="" />
    <EXPORT ORDINAL="1914" NAME="?d_func@QSequentialAnimationGroup@@AAEPAVQSequentialAnimationGroupPrivate@@XZ" PURGE="0" COMMENT="" />
    <EXPORT ORDINAL="1915" NAME="?d_func@QSequentialAnimationGroup@@ABEPBVQSequentialAnimationGroupPrivate@@XZ" PURGE="0" COMMENT="" />
    <EXPORT ORDINAL="1916" NAME="?d_func@QSettings@@AAEPAVQSettingsPrivate@@XZ" PURGE="0" COMMENT="" />
    <EXPORT ORDINAL="1917" NAME="?d_func@QSettings@@ABEPBVQSettingsPrivate@@XZ" PURGE="0" COMMENT="" />
    <EXPORT ORDINAL="1918" NAME="?d_func@QSharedMemory@@AAEPAVQSharedMemoryPrivate@@XZ" PURGE="0" COMMENT="" />
    <EXPORT ORDINAL="1919" NAME="?d_func@QSharedMemory@@ABEPBVQSharedMemoryPrivate@@XZ" PURGE="0" COMMENT="" />
    <EXPORT ORDINAL="1920" NAME="?d_func@QSignalMapper@@AAEPAVQSignalMapperPrivate@@XZ" PURGE="0" COMMENT="" />
    <EXPORT ORDINAL="1921" NAME="?d_func@QSignalMapper@@ABEPBVQSignalMapperPrivate@@XZ" PURGE="0" COMMENT="" />
    <EXPORT ORDINAL="1922" NAME="?d_func@QSignalTransition@@AAEPAVQSignalTransitionPrivate@@XZ" PURGE="0" COMMENT="" />
    <EXPORT ORDINAL="1923" NAME="?d_func@QSignalTransition@@ABEPBVQSignalTransitionPrivate@@XZ" PURGE="0" COMMENT="" />
    <EXPORT ORDINAL="1924" NAME="?d_func@QSocketNotifier@@AAEPAVQObjectPrivate@@XZ" PURGE="0" COMMENT="" />
    <EXPORT ORDINAL="1925" NAME="?d_func@QSocketNotifier@@ABEPBVQObjectPrivate@@XZ" PURGE="0" COMMENT="" />
    <EXPORT ORDINAL="1926" NAME="?d_func@QState@@AAEPAVQStatePrivate@@XZ" PURGE="0" COMMENT="" />
    <EXPORT ORDINAL="1927" NAME="?d_func@QState@@ABEPBVQStatePrivate@@XZ" PURGE="0" COMMENT="" />
    <EXPORT ORDINAL="1928" NAME="?d_func@QStateMachine@@AAEPAVQStateMachinePrivate@@XZ" PURGE="0" COMMENT="" />
    <EXPORT ORDINAL="1929" NAME="?d_func@QStateMachine@@ABEPBVQStateMachinePrivate@@XZ" PURGE="0" COMMENT="" />
    <EXPORT ORDINAL="1930" NAME="?d_func@QTemporaryFile@@AAEPAVQTemporaryFilePrivate@@XZ" PURGE="0" COMMENT="" />
    <EXPORT ORDINAL="1931" NAME="?d_func@QTemporaryFile@@ABEPBVQTemporaryFilePrivate@@XZ" PURGE="0" COMMENT="" />
    <EXPORT ORDINAL="1932" NAME="?d_func@QTextStream@@AAEPAVQTextStreamPrivate@@XZ" PURGE="0" COMMENT="" />
    <EXPORT ORDINAL="1933" NAME="?d_func@QTextStream@@ABEPBVQTextStreamPrivate@@XZ" PURGE="0" COMMENT="" />
    <EXPORT ORDINAL="1934" NAME="?d_func@QThread@@AAEPAVQThreadPrivate@@XZ" PURGE="0" COMMENT="" />
    <EXPORT ORDINAL="1935" NAME="?d_func@QThread@@ABEPBVQThreadPrivate@@XZ" PURGE="0" COMMENT="" />
    <EXPORT ORDINAL="1936" NAME="?d_func@QThreadPool@@AAEPAVQThreadPoolPrivate@@XZ" PURGE="0" COMMENT="" />
    <EXPORT ORDINAL="1937" NAME="?d_func@QThreadPool@@ABEPBVQThreadPoolPrivate@@XZ" PURGE="0" COMMENT="" />
    <EXPORT ORDINAL="1938" NAME="?d_func@QTimeLine@@AAEPAVQTimeLinePrivate@@XZ" PURGE="0" COMMENT="" />
    <EXPORT ORDINAL="1939" NAME="?d_func@QTimeLine@@ABEPBVQTimeLinePrivate@@XZ" PURGE="0" COMMENT="" />
    <EXPORT ORDINAL="1940" NAME="?d_func@QTranslator@@AAEPAVQTranslatorPrivate@@XZ" PURGE="0" COMMENT="" />
    <EXPORT ORDINAL="1941" NAME="?d_func@QTranslator@@ABEPBVQTranslatorPrivate@@XZ" PURGE="0" COMMENT="" />
    <EXPORT ORDINAL="1942" NAME="?d_func@QVariantAnimation@@AAEPAVQVariantAnimationPrivate@@XZ" PURGE="0" COMMENT="" />
    <EXPORT ORDINAL="1943" NAME="?d_func@QVariantAnimation@@ABEPBVQVariantAnimationPrivate@@XZ" PURGE="0" COMMENT="" />
    <EXPORT ORDINAL="1944" NAME="?d_func@QWinEventNotifier@@AAEPAVQObjectPrivate@@XZ" PURGE="0" COMMENT="" />
    <EXPORT ORDINAL="1945" NAME="?d_func@QWinEventNotifier@@ABEPBVQObjectPrivate@@XZ" PURGE="0" COMMENT="" />
    <EXPORT ORDINAL="1946" NAME="?d_func@QXmlStreamReader@@AAEPAVQXmlStreamReaderPrivate@@XZ" PURGE="0" COMMENT="" />
    <EXPORT ORDINAL="1947" NAME="?d_func@QXmlStreamReader@@ABEPBVQXmlStreamReaderPrivate@@XZ" PURGE="0" COMMENT="" />
    <EXPORT ORDINAL="1948" NAME="?d_func@QXmlStreamWriter@@AAEPAVQXmlStreamWriterPrivate@@XZ" PURGE="0" COMMENT="" />
    <EXPORT ORDINAL="1949" NAME="?d_func@QXmlStreamWriter@@ABEPBVQXmlStreamWriterPrivate@@XZ" PURGE="0" COMMENT="" />
    <EXPORT ORDINAL="1950" NAME="?data@?$QVector@VQPoint@@@@QAEPAVQPoint@@XZ" PURGE="0" COMMENT="" />
    <EXPORT ORDINAL="1951" NAME="?data@?$QVector@VQPoint@@@@QBEPBVQPoint@@XZ" PURGE="0" COMMENT="" />
    <EXPORT ORDINAL="1952" NAME="?data@?$QVector@VQPointF@@@@QAEPAVQPointF@@XZ" PURGE="0" COMMENT="" />
    <EXPORT ORDINAL="1953" NAME="?data@?$QVector@VQPointF@@@@QBEPBVQPointF@@XZ" PURGE="0" COMMENT="" />
    <EXPORT ORDINAL="1954" NAME="?data@?$QVector@VQXmlStreamAttribute@@@@QAEPAVQXmlStreamAttribute@@XZ" PURGE="0" COMMENT="" />
    <EXPORT ORDINAL="1955" NAME="?data@?$QVector@VQXmlStreamAttribute@@@@QBEPBVQXmlStreamAttribute@@XZ" PURGE="0" COMMENT="" />
    <EXPORT ORDINAL="1956" NAME="?data@QBuffer@@QBEABVQByteArray@@XZ" PURGE="0" COMMENT="" />
    <EXPORT ORDINAL="1957" NAME="?data@QByteArray@@QAEPADXZ" PURGE="0" COMMENT="" />
    <EXPORT ORDINAL="1958" NAME="?data@QByteArray@@QBEPBDXZ" PURGE="0" COMMENT="" />
    <EXPORT ORDINAL="1959" NAME="?data@QCustomEvent@@QBEPAXXZ" PURGE="0" COMMENT="" />
    <EXPORT ORDINAL="1960" NAME="?data@QGenericArgument@@QBEPAXXZ" PURGE="0" COMMENT="" />
    <EXPORT ORDINAL="1961" NAME="?data@QMimeData@@QBE?AVQByteArray@@ABVQString@@@Z" PURGE="8" COMMENT="" />
    <EXPORT ORDINAL="1962" NAME="?data@QModelIndex@@QBE?AVQVariant@@H@Z" PURGE="8" COMMENT="" />
    <EXPORT ORDINAL="1963" NAME="?data@QPersistentModelIndex@@QBE?AVQVariant@@H@Z" PURGE="8" COMMENT="" />
    <EXPORT ORDINAL="1964" NAME="?data@QResource@@QBEPBEXZ" PURGE="0" COMMENT="" />
    <EXPORT ORDINAL="1965" NAME="?data@QSharedMemory@@QAEPAXXZ" PURGE="0" COMMENT="" />
    <EXPORT ORDINAL="1966" NAME="?data@QSharedMemory@@QBEPBXXZ" PURGE="0" COMMENT="" />
    <EXPORT ORDINAL="1967" NAME="?data@QString@@QAEPAVQChar@@XZ" PURGE="0" COMMENT="" />
    <EXPORT ORDINAL="1968" NAME="?data@QString@@QBEPBVQChar@@XZ" PURGE="0" COMMENT="" />
    <EXPORT ORDINAL="1969" NAME="?data@QStringRef@@QBEPBVQChar@@XZ" PURGE="0" COMMENT="" />
    <EXPORT ORDINAL="1970" NAME="?data@QVariant@@QAEPAXXZ" PURGE="0" COMMENT="" />
    <EXPORT ORDINAL="1971" NAME="?data@QVariant@@QBEPBXXZ" PURGE="0" COMMENT="" />
    <EXPORT ORDINAL="1972" NAME="?dataChanged@QAbstractItemModel@@IAEXABVQModelIndex@@0@Z" PURGE="8" COMMENT="" />
    <EXPORT ORDINAL="1973" NAME="?data_ptr@QBitArray@@QAEAAPAUData@QByteArray@@XZ" PURGE="0" COMMENT="" />
    <EXPORT ORDINAL="1974" NAME="?data_ptr@QByteArray@@QAEAAPAUData@1@XZ" PURGE="0" COMMENT="" />
    <EXPORT ORDINAL="1975" NAME="?data_ptr@QString@@QAEAAPAUData@1@XZ" PURGE="0" COMMENT="" />
    <EXPORT ORDINAL="1976" NAME="?data_ptr@QUrl@@QAEAAPAVQUrlPrivate@@XZ" PURGE="0" COMMENT="" />
    <EXPORT ORDINAL="1977" NAME="?data_ptr@QVariant@@QAEAAUPrivate@1@XZ" PURGE="0" COMMENT="" />
    <EXPORT ORDINAL="1978" NAME="?date@QDateTime@@QBE?AVQDate@@XZ" PURGE="4" COMMENT="" />
    <EXPORT ORDINAL="1979" NAME="?dateFormat@QLocale@@QBE?AVQString@@W4FormatType@1@@Z" PURGE="8" COMMENT="" />
    <EXPORT ORDINAL="1980" NAME="?dateTimeFormat@QLocale@@QBE?AVQString@@W4FormatType@1@@Z" PURGE="8" COMMENT="" />
    <EXPORT ORDINAL="1981" NAME="?dateTimeToString@QLocalePrivate@@QBE?AVQString@@ABV2@PBVQDate@@PBVQTime@@PBVQLocale@@@Z" PURGE="20" COMMENT="" />
    <EXPORT ORDINAL="1982" NAME="?day@QDate@@QBEHXZ" PURGE="0" COMMENT="" />
    <EXPORT ORDINAL="1983" NAME="?dayName@QDate@@SA?AVQString@@H@Z" PURGE="0" COMMENT="" />
    <EXPORT ORDINAL="1984" NAME="?dayName@QLocale@@QBE?AVQString@@HW4FormatType@1@@Z" PURGE="12" COMMENT="" />
    <EXPORT ORDINAL="1985" NAME="?dayOfWeek@QDate@@QBEHXZ" PURGE="0" COMMENT="" />
    <EXPORT ORDINAL="1986" NAME="?dayOfYear@QDate@@QBEHXZ" PURGE="0" COMMENT="" />
    <EXPORT ORDINAL="1987" NAME="?daysInMonth@QDate@@QBEHXZ" PURGE="0" COMMENT="" />
    <EXPORT ORDINAL="1988" NAME="?daysInYear@QDate@@QBEHXZ" PURGE="0" COMMENT="" />
    <EXPORT ORDINAL="1989" NAME="?daysTo@QDate@@QBEHABV1@@Z" PURGE="4" COMMENT="" />
    <EXPORT ORDINAL="1990" NAME="?daysTo@QDateTime@@QBEHABV1@@Z" PURGE="4" COMMENT="" />
    <EXPORT ORDINAL="1991" NAME="?dec@@YAAAVQTextStream@@AAV1@@Z" PURGE="0" COMMENT="" />
    <EXPORT ORDINAL="1992" NAME="?decimal@QLocalePrivate@@QBE?AVQChar@@XZ" PURGE="4" COMMENT="" />
    <EXPORT ORDINAL="1993" NAME="?decimalPoint@QLocale@@QBE?AVQChar@@XZ" PURGE="4" COMMENT="" />
    <EXPORT ORDINAL="1994" NAME="?decode@QUrl@@SAXAAVQString@@@Z" PURGE="0" COMMENT="" />
    <EXPORT ORDINAL="1995" NAME="?decodeData@QAbstractItemModel@@IAE_NHHABVQModelIndex@@AAVQDataStream@@@Z" PURGE="16" COMMENT="" />
    <EXPORT ORDINAL="1996" NAME="?decodeMSG@@YA?AVQString@@ABUtagMSG@@@Z" PURGE="0" COMMENT="" />
    <EXPORT ORDINAL="1997" NAME="?decodeName@QFile@@SA?AVQString@@ABVQByteArray@@@Z" PURGE="0" COMMENT="" />
    <EXPORT ORDINAL="1998" NAME="?decodeName@QFile@@SA?AVQString@@PBD@Z" PURGE="0" COMMENT="" />
    <EXPORT ORDINAL="1999" NAME="?decomposition@QChar@@QBE?AVQString@@XZ" PURGE="4" COMMENT="" />
    <EXPORT ORDINAL="2000" NAME="?decomposition@QChar@@SI?AVQString@@I@Z" PURGE="0" COMMENT="" />
    <EXPORT ORDINAL="2001" NAME="?decomposition@QCharRef@@QBE?AVQString@@XZ" PURGE="4" COMMENT="" />
    <EXPORT ORDINAL="2002" NAME="?decompositionTag@QChar@@QBE?AW4Decomposition@1@XZ" PURGE="0" COMMENT="" />
    <EXPORT ORDINAL="2003" NAME="?decompositionTag@QChar@@SI?AW4Decomposition@1@I@Z" PURGE="0" COMMENT="" />
    <EXPORT ORDINAL="2004" NAME="?decompositionTag@QCharRef@@QBE?AW4Decomposition@QChar@@XZ" PURGE="0" COMMENT="" />
    <EXPORT ORDINAL="2005" NAME="?defaultAnimations@QStateMachine@@QBE?AV?$QList@PAVQAbstractAnimation@@@@XZ" PURGE="4" COMMENT="" />
    <EXPORT ORDINAL="2006" NAME="?defaultFormat@QSettings@@SA?AW4Format@1@XZ" PURGE="0" COMMENT="" />
    <EXPORT ORDINAL="2007" NAME="?defaultRoleNames@QAbstractItemModelPrivate@@SAABV?$QHash@HVQByteArray@@@@XZ" PURGE="0" COMMENT="" />
    <EXPORT ORDINAL="2008" NAME="?defaultState@QHistoryState@@QBEPAVQAbstractState@@XZ" PURGE="0" COMMENT="" />
    <EXPORT ORDINAL="2009" NAME="?deleteChildren@QObjectPrivate@@QAEXXZ" PURGE="0" COMMENT="" />
    <EXPORT ORDINAL="2010" NAME="?deleteLater@QObject@@QAEXXZ" PURGE="0" COMMENT="" />
    <EXPORT ORDINAL="2011" NAME="?dequeueExternalEvent@QStateMachinePrivate@@QAEPAVQEvent@@XZ" PURGE="0" COMMENT="" />
    <EXPORT ORDINAL="2012" NAME="?dequeueInternalEvent@QStateMachinePrivate@@QAEPAVQEvent@@XZ" PURGE="0" COMMENT="" />
    <EXPORT ORDINAL="2013" NAME="?deref@QBasicAtomicInt@@QAE_NXZ" PURGE="0" COMMENT="" />
    <EXPORT ORDINAL="2014" NAME="?destroy@QMetaType@@SAXHPAX@Z" PURGE="0" COMMENT="" />
    <EXPORT ORDINAL="2015" NAME="?destroyAndFree@QHashData@@QAEXXZ" PURGE="0" COMMENT="" />
    <EXPORT ORDINAL="2016" NAME="?destroyed@QAbstractDeclarativeData@@2P6AXPAV1@PAVQObject@@@ZA" PURGE="-1" COMMENT="" />
    <EXPORT ORDINAL="2017" NAME="?destroyed@QObject@@IAEXPAV1@@Z" PURGE="4" COMMENT="" />
    <EXPORT ORDINAL="2018" NAME="?detach2@QListData@@QAEPAUData@1@XZ" PURGE="0" COMMENT="" />
    <EXPORT ORDINAL="2019" NAME="?detach3@QListData@@QAEPAUData@1@XZ" PURGE="0" COMMENT="" />
    <EXPORT ORDINAL="2020" NAME="?detach@?$QVector@VQPoint@@@@QAEXXZ" PURGE="0" COMMENT="" />
    <EXPORT ORDINAL="2021" NAME="?detach@?$QVector@VQPointF@@@@QAEXXZ" PURGE="0" COMMENT="" />
    <EXPORT ORDINAL="2022" NAME="?detach@?$QVector@VQXmlStreamAttribute@@@@QAEXXZ" PURGE="0" COMMENT="" />
    <EXPORT ORDINAL="2023" NAME="?detach@QBitArray@@QAEXXZ" PURGE="0" COMMENT="" />
    <EXPORT ORDINAL="2024" NAME="?detach@QByteArray@@QAEXXZ" PURGE="0" COMMENT="" />
    <EXPORT ORDINAL="2025" NAME="?detach@QDateTime@@AAEXXZ" PURGE="0" COMMENT="" />
    <EXPORT ORDINAL="2026" NAME="?detach@QFileInfo@@QAEXXZ" PURGE="0" COMMENT="" />
    <EXPORT ORDINAL="2027" NAME="?detach@QListData@@QAEPAUData@1@H@Z" PURGE="4" COMMENT="" />
    <EXPORT ORDINAL="2028" NAME="?detach@QListData@@QAEPAUData@1@XZ" PURGE="0" COMMENT="" />
    <EXPORT ORDINAL="2029" NAME="?detach@QSharedMemory@@QAE_NXZ" PURGE="0" COMMENT="" />
    <EXPORT ORDINAL="2030" NAME="?detach@QString@@QAEXXZ" PURGE="0" COMMENT="" />
    <EXPORT ORDINAL="2031" NAME="?detach@QUrl@@AAEXAAVQMutexLocker@@@Z" PURGE="4" COMMENT="" />
    <EXPORT ORDINAL="2032" NAME="?detach@QUrl@@QAEXXZ" PURGE="0" COMMENT="" />
    <EXPORT ORDINAL="2033" NAME="?detach@QVariant@@QAEXXZ" PURGE="0" COMMENT="" />
    <EXPORT ORDINAL="2034" NAME="?detach_grow@QListData@@QAEPAUData@1@PAHH@Z" PURGE="8" COMMENT="" />
    <EXPORT ORDINAL="2035" NAME="?detach_helper2@QHashData@@QAEPAU1@P6AXPAUNode@1@PAX@ZP6AX0@ZHH@Z" PURGE="16" COMMENT="" />
    <EXPORT ORDINAL="2036" NAME="?detach_helper@?$QVector@VQPoint@@@@AAEXXZ" PURGE="0" COMMENT="" />
    <EXPORT ORDINAL="2037" NAME="?detach_helper@?$QVector@VQPointF@@@@AAEXXZ" PURGE="0" COMMENT="" />
    <EXPORT ORDINAL="2038" NAME="?detach_helper@?$QVector@VQXmlStreamAttribute@@@@AAEXXZ" PURGE="0" COMMENT="" />
    <EXPORT ORDINAL="2039" NAME="?detach_helper@QHashData@@QAEPAU1@P6AXPAUNode@1@PAX@ZH@Z" PURGE="8" COMMENT="" />
    <EXPORT ORDINAL="2040" NAME="?device@QDataStream@@QBEPAVQIODevice@@XZ" PURGE="0" COMMENT="" />
    <EXPORT ORDINAL="2041" NAME="?device@QTextStream@@QBEPAVQIODevice@@XZ" PURGE="0" COMMENT="" />
    <EXPORT ORDINAL="2042" NAME="?device@QXmlStreamReader@@QBEPAVQIODevice@@XZ" PURGE="0" COMMENT="" />
    <EXPORT ORDINAL="2043" NAME="?device@QXmlStreamWriter@@QBEPAVQIODevice@@XZ" PURGE="0" COMMENT="" />
    <EXPORT ORDINAL="2044" NAME="?digitToCLocale@QLocalePrivate@@QBEDABVQChar@@@Z" PURGE="4" COMMENT="" />
    <EXPORT ORDINAL="2045" NAME="?digitValue@QChar@@QBEHXZ" PURGE="0" COMMENT="" />
    <EXPORT ORDINAL="2046" NAME="?digitValue@QChar@@SIHG@Z" PURGE="0" COMMENT="" />
    <EXPORT ORDINAL="2047" NAME="?digitValue@QChar@@SIHI@Z" PURGE="0" COMMENT="" />
    <EXPORT ORDINAL="2048" NAME="?digitValue@QCharRef@@QBEHXZ" PURGE="0" COMMENT="" />
    <EXPORT ORDINAL="2049" NAME="?dir@QFileInfo@@QBE?AVQDir@@XZ" PURGE="4" COMMENT="" />
    <EXPORT ORDINAL="2050" NAME="?dir@QFileInfo@@QBE?AVQDir@@_N@Z" PURGE="8" COMMENT="" />
    <EXPORT ORDINAL="2051" NAME="?dirName@QDir@@QBE?AVQString@@XZ" PURGE="4" COMMENT="" />
    <EXPORT ORDINAL="2052" NAME="?dirPath@QFileInfo@@QBE?AVQString@@_N@Z" PURGE="8" COMMENT="" />
    <EXPORT ORDINAL="2053" NAME="?dirPath@QUrl@@QBE?AVQString@@XZ" PURGE="4" COMMENT="" />
    <EXPORT ORDINAL="2054" NAME="?direction@QAbstractAnimation@@QBE?AW4Direction@1@XZ" PURGE="0" COMMENT="" />
    <EXPORT ORDINAL="2055" NAME="?direction@QChar@@QBE?AW4Direction@1@XZ" PURGE="0" COMMENT="" />
    <EXPORT ORDINAL="2056" NAME="?direction@QChar@@SI?AW4Direction@1@G@Z" PURGE="0" COMMENT="" />
    <EXPORT ORDINAL="2057" NAME="?direction@QChar@@SI?AW4Direction@1@I@Z" PURGE="0" COMMENT="" />
    <EXPORT ORDINAL="2058" NAME="?direction@QCharRef@@QBE?AW4Direction@QChar@@XZ" PURGE="0" COMMENT="" />
    <EXPORT ORDINAL="2059" NAME="?direction@QTimeLine@@QBE?AW4Direction@1@XZ" PURGE="0" COMMENT="" />
    <EXPORT ORDINAL="2060" NAME="?directionChanged@QAbstractAnimation@@IAEXW4Direction@1@@Z" PURGE="4" COMMENT="" />
    <EXPORT ORDINAL="2061" NAME="?directories@QFileSystemWatcher@@QBE?AVQStringList@@XZ" PURGE="4" COMMENT="" />
    <EXPORT ORDINAL="2062" NAME="?directoryChanged@QFileSystemWatcher@@IAEXABVQString@@@Z" PURGE="4" COMMENT="" />
    <EXPORT ORDINAL="2063" NAME="?disableReset@QNonContiguousByteDevice@@QAEXXZ" PURGE="0" COMMENT="" />
    <EXPORT ORDINAL="2064" NAME="?disconnect@QMetaObject@@SA_NPBVQObject@@H0H@Z" PURGE="0" COMMENT="" />
    <EXPORT ORDINAL="2065" NAME="?disconnect@QObject@@QAE_NPBDPBV1@0@Z" PURGE="12" COMMENT="" />
    <EXPORT ORDINAL="2066" NAME="?disconnect@QObject@@QAE_NPBV1@PBD@Z" PURGE="8" COMMENT="" />
    <EXPORT ORDINAL="2067" NAME="?disconnect@QObject@@SA_NPBV1@ABVQMetaMethod@@01@Z" PURGE="0" COMMENT="" />
    <EXPORT ORDINAL="2068" NAME="?disconnect@QObject@@SA_NPBV1@PBD01@Z" PURGE="0" COMMENT="" />
    <EXPORT ORDINAL="2069" NAME="?disconnectNotify@QBuffer@@MAEXPBD@Z" PURGE="4" COMMENT="" />
    <EXPORT ORDINAL="2070" NAME="?disconnectNotify@QFutureWatcherBase@@MAEXPBD@Z" PURGE="4" COMMENT="" />
    <EXPORT ORDINAL="2071" NAME="?disconnectNotify@QObject@@MAEXPBD@Z" PURGE="4" COMMENT="" />
    <EXPORT ORDINAL="2072" NAME="?disconnectNotify@QObjectPrivate@@QAEXPBD@Z" PURGE="-1" COMMENT="" />
    <EXPORT ORDINAL="2073" NAME="?disconnectOne@QMetaObject@@SA_NPBVQObject@@H0H@Z" PURGE="0" COMMENT="" />
    <EXPORT ORDINAL="2074" NAME="?disconnectOutputInterface@QFutureWatcherBase@@IAEX_N@Z" PURGE="4" COMMENT="" />
    <EXPORT ORDINAL="2075" NAME="?displayText@QDateTimeParser@@UBE?AVQString@@XZ" PURGE="4" COMMENT="" />
    <EXPORT ORDINAL="2076" NAME="?documentEncoding@QXmlStreamReader@@QBE?AVQStringRef@@XZ" PURGE="4" COMMENT="" />
    <EXPORT ORDINAL="2077" NAME="?documentVersion@QXmlStreamReader@@QBE?AVQStringRef@@XZ" PURGE="4" COMMENT="" />
    <EXPORT ORDINAL="2078" NAME="?doubleToString@QLocalePrivate@@QBE?AVQString@@NHW4DoubleForm@1@HI@Z" PURGE="28" COMMENT="" />
    <EXPORT ORDINAL="2079" NAME="?doubleToString@QLocalePrivate@@SA?AVQString@@VQChar@@00000NHW4DoubleForm@1@HI@Z" PURGE="0" COMMENT="" />
    <EXPORT ORDINAL="2080" NAME="?drives@QDir@@SA?AV?$QList@VQFileInfo@@@@XZ" PURGE="0" COMMENT="" />
    <EXPORT ORDINAL="2081" NAME="?drives@QFSFileEngine@@SA?AV?$QList@VQFileInfo@@@@XZ" PURGE="0" COMMENT="" />
    <EXPORT ORDINAL="2082" NAME="?dropMimeData@QAbstractItemModel@@UAE_NPBVQMimeData@@W4DropAction@Qt@@HHABVQModelIndex@@@Z" PURGE="20" COMMENT="" />
    <EXPORT ORDINAL="2083" NAME="?dropMimeData@QAbstractListModel@@UAE_NPBVQMimeData@@W4DropAction@Qt@@HHABVQModelIndex@@@Z" PURGE="20" COMMENT="" />
    <EXPORT ORDINAL="2084" NAME="?dropMimeData@QAbstractTableModel@@UAE_NPBVQMimeData@@W4DropAction@Qt@@HHABVQModelIndex@@@Z" PURGE="20" COMMENT="" />
    <EXPORT ORDINAL="2085" NAME="?ds@QTime@@ABEHXZ" PURGE="0" COMMENT="" />
    <EXPORT ORDINAL="2086" NAME="?dtdName@QXmlStreamReader@@QBE?AVQStringRef@@XZ" PURGE="4" COMMENT="" />
    <EXPORT ORDINAL="2087" NAME="?dtdPublicId@QXmlStreamReader@@QBE?AVQStringRef@@XZ" PURGE="4" COMMENT="" />
    <EXPORT ORDINAL="2088" NAME="?dtdSystemId@QXmlStreamReader@@QBE?AVQStringRef@@XZ" PURGE="4" COMMENT="" />
    <EXPORT ORDINAL="2089" NAME="?dumpObjectInfo@QObject@@QAEXXZ" PURGE="0" COMMENT="" />
    <EXPORT ORDINAL="2090" NAME="?dumpObjectTree@QObject@@QAEXXZ" PURGE="0" COMMENT="" />
    <EXPORT ORDINAL="2091" NAME="?duplicate@QByteArray@@QAEAAV1@ABV1@@Z" PURGE="4" COMMENT="" />
    <EXPORT ORDINAL="2092" NAME="?duplicate@QByteArray@@QAEAAV1@PBDI@Z" PURGE="8" COMMENT="" />
    <EXPORT ORDINAL="2093" NAME="?duration@QParallelAnimationGroup@@UBEHXZ" PURGE="0" COMMENT="" />
    <EXPORT ORDINAL="2094" NAME="?duration@QPauseAnimation@@UBEHXZ" PURGE="0" COMMENT="" />
    <EXPORT ORDINAL="2095" NAME="?duration@QSequentialAnimationGroup@@UBEHXZ" PURGE="0" COMMENT="" />
    <EXPORT ORDINAL="2096" NAME="?duration@QTimeLine@@QBEHXZ" PURGE="0" COMMENT="" />
    <EXPORT ORDINAL="2097" NAME="?duration@QVariantAnimation@@UBEHXZ" PURGE="0" COMMENT="" />
    <EXPORT ORDINAL="2098" NAME="?dx@QLine@@QBEHXZ" PURGE="0" COMMENT="" />
    <EXPORT ORDINAL="2099" NAME="?dx@QLineF@@QBENXZ" PURGE="0" COMMENT="" />
    <EXPORT ORDINAL="2100" NAME="?dy@QLine@@QBEHXZ" PURGE="0" COMMENT="" />
    <EXPORT ORDINAL="2101" NAME="?dy@QLineF@@QBENXZ" PURGE="0" COMMENT="" />
    <EXPORT ORDINAL="2102" NAME="?dynamicPropertyNames@QObject@@QBE?AV?$QList@VQByteArray@@@@XZ" PURGE="4" COMMENT="" />
    <EXPORT ORDINAL="2103" NAME="?easingCurve@QTimeLine@@QBE?AVQEasingCurve@@XZ" PURGE="4" COMMENT="" />
    <EXPORT ORDINAL="2104" NAME="?easingCurve@QVariantAnimation@@QBE?AVQEasingCurve@@XZ" PURGE="4" COMMENT="" />
    <EXPORT ORDINAL="2105" NAME="?elapsed@QElapsedTimer@@QBE_JXZ" PURGE="0" COMMENT="" />
    <EXPORT ORDINAL="2106" NAME="?elapsed@QTime@@QBEHXZ" PURGE="0" COMMENT="" />
    <EXPORT ORDINAL="2107" NAME="?emitTriggered@QAbstractTransitionPrivate@@QAEXXZ" PURGE="0" COMMENT="" />
    <EXPORT ORDINAL="2108" NAME="?empty@?$QVector@VQPoint@@@@QBE_NXZ" PURGE="0" COMMENT="" />
    <EXPORT ORDINAL="2109" NAME="?empty@?$QVector@VQPointF@@@@QBE_NXZ" PURGE="0" COMMENT="" />
    <EXPORT ORDINAL="2110" NAME="?empty@?$QVector@VQXmlStreamAttribute@@@@QBE_NXZ" PURGE="0" COMMENT="" />
    <EXPORT ORDINAL="2111" NAME="?enclosingMetaObject@QMetaClassInfo@@QBEPBUQMetaObject@@XZ" PURGE="0" COMMENT="" />
    <EXPORT ORDINAL="2112" NAME="?enclosingMetaObject@QMetaEnum@@QBEPBUQMetaObject@@XZ" PURGE="0" COMMENT="" />
    <EXPORT ORDINAL="2113" NAME="?enclosingMetaObject@QMetaMethod@@QBEPBUQMetaObject@@XZ" PURGE="0" COMMENT="" />
    <EXPORT ORDINAL="2114" NAME="?enclosingMetaObject@QMetaProperty@@QBEPBUQMetaObject@@XZ" PURGE="0" COMMENT="" />
    <EXPORT ORDINAL="2115" NAME="?encode@QUrl@@SAXAAVQString@@@Z" PURGE="0" COMMENT="" />
    <EXPORT ORDINAL="2116" NAME="?encodeData@QAbstractItemModel@@IBEXABV?$QList@VQModelIndex@@@@AAVQDataStream@@@Z" PURGE="8" COMMENT="" />
    <EXPORT ORDINAL="2117" NAME="?encodeName@QFile@@SA?AVQByteArray@@ABVQString@@@Z" PURGE="0" COMMENT="" />
    <EXPORT ORDINAL="2118" NAME="?encodedFragment@QUrl@@QBE?AVQByteArray@@XZ" PURGE="4" COMMENT="" />
    <EXPORT ORDINAL="2119" NAME="?encodedHost@QUrl@@QBE?AVQByteArray@@XZ" PURGE="4" COMMENT="" />
    <EXPORT ORDINAL="2120" NAME="?encodedPassword@QUrl@@QBE?AVQByteArray@@XZ" PURGE="4" COMMENT="" />
    <EXPORT ORDINAL="2121" NAME="?encodedPath@QUrl@@QBE?AVQByteArray@@XZ" PURGE="4" COMMENT="" />
    <EXPORT ORDINAL="2122" NAME="?encodedQuery@QUrl@@QBE?AVQByteArray@@XZ" PURGE="4" COMMENT="" />
    <EXPORT ORDINAL="2123" NAME="?encodedQueryItemValue@QUrl@@QBE?AVQByteArray@@ABV2@@Z" PURGE="8" COMMENT="" />
    <EXPORT ORDINAL="2124" NAME="?encodedQueryItems@QUrl@@QBE?AV?$QList@U?$QPair@VQByteArray@@V1@@@@@XZ" PURGE="4" COMMENT="" />
    <EXPORT ORDINAL="2125" NAME="?encodedUserName@QUrl@@QBE?AVQByteArray@@XZ" PURGE="4" COMMENT="" />
    <EXPORT ORDINAL="2126" NAME="?end@?$QVector@VQPoint@@@@QAEPAVQPoint@@XZ" PURGE="0" COMMENT="" />
    <EXPORT ORDINAL="2127" NAME="?end@?$QVector@VQPoint@@@@QBEPBVQPoint@@XZ" PURGE="0" COMMENT="" />
    <EXPORT ORDINAL="2128" NAME="?end@?$QVector@VQPointF@@@@QAEPAVQPointF@@XZ" PURGE="0" COMMENT="" />
    <EXPORT ORDINAL="2129" NAME="?end@?$QVector@VQPointF@@@@QBEPBVQPointF@@XZ" PURGE="0" COMMENT="" />
    <EXPORT ORDINAL="2130" NAME="?end@?$QVector@VQXmlStreamAttribute@@@@QAEPAVQXmlStreamAttribute@@XZ" PURGE="0" COMMENT="" />
    <EXPORT ORDINAL="2131" NAME="?end@?$QVector@VQXmlStreamAttribute@@@@QBEPBVQXmlStreamAttribute@@XZ" PURGE="0" COMMENT="" />
    <EXPORT ORDINAL="2132" NAME="?end@QByteArray@@QAEPADXZ" PURGE="0" COMMENT="" />
    <EXPORT ORDINAL="2133" NAME="?end@QByteArray@@QBEPBDXZ" PURGE="0" COMMENT="" />
    <EXPORT ORDINAL="2134" NAME="?end@QListData@@QBEPAPAXXZ" PURGE="0" COMMENT="" />
    <EXPORT ORDINAL="2135" NAME="?end@QString@@QAEPAVQChar@@XZ" PURGE="0" COMMENT="" />
    <EXPORT ORDINAL="2136" NAME="?end@QString@@QBEPBVQChar@@XZ" PURGE="0" COMMENT="" />
    <EXPORT ORDINAL="2137" NAME="?end@ResultStoreBase@QtConcurrent@@QBE?AVResultIteratorBase@2@XZ" PURGE="4" COMMENT="" />
    <EXPORT ORDINAL="2138" NAME="?endArray@QSettings@@QAEXXZ" PURGE="0" COMMENT="" />
    <EXPORT ORDINAL="2139" NAME="?endEntryList@QAbstractFileEngine@@UAEPAVQAbstractFileEngineIterator@@XZ" PURGE="0" COMMENT="" />
    <EXPORT ORDINAL="2140" NAME="?endEntryList@QFSFileEngine@@UAEPAVQAbstractFileEngineIterator@@XZ" PURGE="0" COMMENT="" />
    <EXPORT ORDINAL="2141" NAME="?endFrame@QTimeLine@@QBEHXZ" PURGE="0" COMMENT="" />
    <EXPORT ORDINAL="2142" NAME="?endGroup@QSettings@@QAEXXZ" PURGE="0" COMMENT="" />
    <EXPORT ORDINAL="2143" NAME="?endInsertColumns@QAbstractItemModel@@IAEXXZ" PURGE="0" COMMENT="" />
    <EXPORT ORDINAL="2144" NAME="?endInsertRows@QAbstractItemModel@@IAEXXZ" PURGE="0" COMMENT="" />
    <EXPORT ORDINAL="2145" NAME="?endMicrostep@QStateMachine@@MAEXPAVQEvent@@@Z" PURGE="4" COMMENT="" />
    <EXPORT ORDINAL="2146" NAME="?endMoveColumns@QAbstractItemModel@@IAEXXZ" PURGE="0" COMMENT="" />
    <EXPORT ORDINAL="2147" NAME="?endMoveRows@QAbstractItemModel@@IAEXXZ" PURGE="0" COMMENT="" />
    <EXPORT ORDINAL="2148" NAME="?endRemoveColumns@QAbstractItemModel@@IAEXXZ" PURGE="0" COMMENT="" />
    <EXPORT ORDINAL="2149" NAME="?endRemoveRows@QAbstractItemModel@@IAEXXZ" PURGE="0" COMMENT="" />
    <EXPORT ORDINAL="2150" NAME="?endResetModel@QAbstractItemModel@@IAEXXZ" PURGE="0" COMMENT="" />
    <EXPORT ORDINAL="2151" NAME="?endSelectTransitions@QStateMachine@@MAEXPAVQEvent@@@Z" PURGE="4" COMMENT="" />
    <EXPORT ORDINAL="2152" NAME="?endValue@QVariantAnimation@@QBE?AVQVariant@@XZ" PURGE="4" COMMENT="" />
    <EXPORT ORDINAL="2153" NAME="?endl@@YAAAVQTextStream@@AAV1@@Z" PURGE="0" COMMENT="" />
    <EXPORT ORDINAL="2154" NAME="?endsWith@?$QVector@VQPoint@@@@QBE_NABVQPoint@@@Z" PURGE="4" COMMENT="" />
    <EXPORT ORDINAL="2155" NAME="?endsWith@?$QVector@VQPointF@@@@QBE_NABVQPointF@@@Z" PURGE="4" COMMENT="" />
    <EXPORT ORDINAL="2156" NAME="?endsWith@?$QVector@VQXmlStreamAttribute@@@@QBE_NABVQXmlStreamAttribute@@@Z" PURGE="4" COMMENT="" />
    <EXPORT ORDINAL="2157" NAME="?endsWith@QByteArray@@QBE_NABV1@@Z" PURGE="4" COMMENT="" />
    <EXPORT ORDINAL="2158" NAME="?endsWith@QByteArray@@QBE_ND@Z" PURGE="4" COMMENT="" />
    <EXPORT ORDINAL="2159" NAME="?endsWith@QByteArray@@QBE_NPBD@Z" PURGE="4" COMMENT="" />
    <EXPORT ORDINAL="2160" NAME="?endsWith@QString@@QBE_NABV1@W4CaseSensitivity@Qt@@@Z" PURGE="8" COMMENT="" />
    <EXPORT ORDINAL="2161" NAME="?endsWith@QString@@QBE_NABV1@_N@Z" PURGE="8" COMMENT="" />
    <EXPORT ORDINAL="2162" NAME="?endsWith@QString@@QBE_NABVQChar@@W4CaseSensitivity@Qt@@@Z" PURGE="8" COMMENT="" />
    <EXPORT ORDINAL="2163" NAME="?endsWith@QString@@QBE_NABVQLatin1String@@W4CaseSensitivity@Qt@@@Z" PURGE="8" COMMENT="" />
    <EXPORT ORDINAL="2164" NAME="?endsWith@QString@@QBE_NABVQStringRef@@W4CaseSensitivity@Qt@@@Z" PURGE="8" COMMENT="" />
    <EXPORT ORDINAL="2165" NAME="?endsWith@QStringRef@@QBE_NABV1@W4CaseSensitivity@Qt@@@Z" PURGE="8" COMMENT="" />
    <EXPORT ORDINAL="2166" NAME="?endsWith@QStringRef@@QBE_NABVQString@@W4CaseSensitivity@Qt@@@Z" PURGE="8" COMMENT="" />
    <EXPORT ORDINAL="2167" NAME="?endsWith@QStringRef@@QBE_NVQChar@@W4CaseSensitivity@Qt@@@Z" PURGE="8" COMMENT="" />
    <EXPORT ORDINAL="2168" NAME="?endsWith@QStringRef@@QBE_NVQLatin1String@@W4CaseSensitivity@Qt@@@Z" PURGE="8" COMMENT="" />
    <EXPORT ORDINAL="2169" NAME="?ensureTimerUpdate@QUnifiedTimer@@SAXXZ" PURGE="0" COMMENT="" />
    <EXPORT ORDINAL="2170" NAME="?enterStates@QStateMachinePrivate@@QAE?AV?$QList@PAVQAbstractState@@@@PAVQEvent@@ABV?$QList@PAVQAbstractTransition@@@@@Z" PURGE="12" COMMENT="" />
    <EXPORT ORDINAL="2171" NAME="?enter_loop@QCoreApplication@@SAHXZ" PURGE="0" COMMENT="" />
    <EXPORT ORDINAL="2172" NAME="?entered@QAbstractState@@AAEXXZ" PURGE="0" COMMENT="" />
    <EXPORT ORDINAL="2173" NAME="?entityDeclarations@QXmlStreamReader@@QBE?AV?$QVector@VQXmlStreamEntityDeclaration@@@@XZ" PURGE="4" COMMENT="" />
    <EXPORT ORDINAL="2174" NAME="?entityResolver@QXmlStreamReader@@QBEPAVQXmlStreamEntityResolver@@XZ" PURGE="0" COMMENT="" />
    <EXPORT ORDINAL="2175" NAME="?entryInfo@QAbstractFileEngineIterator@@MBE?AVQVariant@@W4EntryInfoType@1@@Z" PURGE="8" COMMENT="" />
    <EXPORT ORDINAL="2176" NAME="?entryInfoList@QDir@@QBE?AV?$QList@VQFileInfo@@@@ABVQString@@V?$QFlags@W4Filter@QDir@@@@V?$QFlags@W4SortFlag@QDir@@@@@Z" PURGE="16" COMMENT="" />
    <EXPORT ORDINAL="2177" NAME="?entryInfoList@QDir@@QBE?AV?$QList@VQFileInfo@@@@ABVQStringList@@V?$QFlags@W4Filter@QDir@@@@V?$QFlags@W4SortFlag@QDir@@@@@Z" PURGE="16" COMMENT="" />
    <EXPORT ORDINAL="2178" NAME="?entryInfoList@QDir@@QBE?AV?$QList@VQFileInfo@@@@V?$QFlags@W4Filter@QDir@@@@V?$QFlags@W4SortFlag@QDir@@@@@Z" PURGE="12" COMMENT="" />
    <EXPORT ORDINAL="2179" NAME="?entryList@QAbstractFileEngine@@UBE?AVQStringList@@V?$QFlags@W4Filter@QDir@@@@ABV2@@Z" PURGE="12" COMMENT="" />
    <EXPORT ORDINAL="2180" NAME="?entryList@QDir@@QBE?AVQStringList@@ABV2@V?$QFlags@W4Filter@QDir@@@@V?$QFlags@W4SortFlag@QDir@@@@@Z" PURGE="16" COMMENT="" />
    <EXPORT ORDINAL="2181" NAME="?entryList@QDir@@QBE?AVQStringList@@ABVQString@@V?$QFlags@W4Filter@QDir@@@@V?$QFlags@W4SortFlag@QDir@@@@@Z" PURGE="16" COMMENT="" />
    <EXPORT ORDINAL="2182" NAME="?entryList@QDir@@QBE?AVQStringList@@V?$QFlags@W4Filter@QDir@@@@V?$QFlags@W4SortFlag@QDir@@@@@Z" PURGE="12" COMMENT="" />
    <EXPORT ORDINAL="2183" NAME="?entryList@QFSFileEngine@@UBE?AVQStringList@@V?$QFlags@W4Filter@QDir@@@@ABV2@@Z" PURGE="12" COMMENT="" />
    <EXPORT ORDINAL="2184" NAME="?entryList@QSettings@@QBE?AVQStringList@@ABVQString@@@Z" PURGE="8" COMMENT="" />
    <EXPORT ORDINAL="2185" NAME="?enumerator@QMetaObject@@QBE?AVQMetaEnum@@H@Z" PURGE="8" COMMENT="" />
    <EXPORT ORDINAL="2186" NAME="?enumerator@QMetaProperty@@QBE?AVQMetaEnum@@XZ" PURGE="4" COMMENT="" />
    <EXPORT ORDINAL="2187" NAME="?enumeratorCount@QMetaObject@@QBEHXZ" PURGE="0" COMMENT="" />
    <EXPORT ORDINAL="2188" NAME="?enumeratorOffset@QMetaObject@@QBEHXZ" PURGE="0" COMMENT="" />
    <EXPORT ORDINAL="2189" NAME="?environment@QProcess@@QBE?AVQStringList@@XZ" PURGE="4" COMMENT="" />
    <EXPORT ORDINAL="2190" NAME="?eof@QDataStream@@QBE_NXZ" PURGE="0" COMMENT="" />
    <EXPORT ORDINAL="2191" NAME="?erase@?$QVector@VQPoint@@@@QAEPAVQPoint@@PAV2@0@Z" PURGE="8" COMMENT="" />
    <EXPORT ORDINAL="2192" NAME="?erase@?$QVector@VQPoint@@@@QAEPAVQPoint@@PAV2@@Z" PURGE="4" COMMENT="" />
    <EXPORT ORDINAL="2193" NAME="?erase@?$QVector@VQPointF@@@@QAEPAVQPointF@@PAV2@0@Z" PURGE="8" COMMENT="" />
    <EXPORT ORDINAL="2194" NAME="?erase@?$QVector@VQPointF@@@@QAEPAVQPointF@@PAV2@@Z" PURGE="4" COMMENT="" />
    <EXPORT ORDINAL="2195" NAME="?erase@?$QVector@VQXmlStreamAttribute@@@@QAEPAVQXmlStreamAttribute@@PAV2@0@Z" PURGE="8" COMMENT="" />
    <EXPORT ORDINAL="2196" NAME="?erase@?$QVector@VQXmlStreamAttribute@@@@QAEPAVQXmlStreamAttribute@@PAV2@@Z" PURGE="4" COMMENT="" />
    <EXPORT ORDINAL="2197" NAME="?erase@QListData@@QAEPAPAXPAPAX@Z" PURGE="4" COMMENT="" />
    <EXPORT ORDINAL="2198" NAME="?error@QAbstractFileEngine@@QBE?AW4FileError@QFile@@XZ" PURGE="0" COMMENT="" />
    <EXPORT ORDINAL="2199" NAME="?error@QFile@@QBE?AW4FileError@1@XZ" PURGE="0" COMMENT="" />
    <EXPORT ORDINAL="2200" NAME="?error@QProcess@@IAEXW4ProcessError@1@@Z" PURGE="4" COMMENT="" />
    <EXPORT ORDINAL="2201" NAME="?error@QProcess@@QBE?AW4ProcessError@1@XZ" PURGE="0" COMMENT="" />
    <EXPORT ORDINAL="2202" NAME="?error@QSharedMemory@@QBE?AW4SharedMemoryError@1@XZ" PURGE="0" COMMENT="" />
    <EXPORT ORDINAL="2203" NAME="?error@QStateMachine@@QBE?AW4Error@1@XZ" PURGE="0" COMMENT="" />
    <EXPORT ORDINAL="2204" NAME="?error@QSystemError@@QAEHXZ" PURGE="0" COMMENT="" />
    <EXPORT ORDINAL="2205" NAME="?error@QSystemSemaphore@@QBE?AW4SystemSemaphoreError@1@XZ" PURGE="0" COMMENT="" />
    <EXPORT ORDINAL="2206" NAME="?error@QXmlStreamReader@@QBE?AW4Error@1@XZ" PURGE="0" COMMENT="" />
    <EXPORT ORDINAL="2207" NAME="?errorState@QState@@QBEPAVQAbstractState@@XZ" PURGE="0" COMMENT="" />
    <EXPORT ORDINAL="2208" NAME="?errorString@QAbstractFileEngine@@QBE?AVQString@@XZ" PURGE="4" COMMENT="" />
    <EXPORT ORDINAL="2209" NAME="?errorString@QIODevice@@QBE?AVQString@@XZ" PURGE="4" COMMENT="" />
    <EXPORT ORDINAL="2210" NAME="?errorString@QLibrary@@QBE?AVQString@@XZ" PURGE="4" COMMENT="" />
    <EXPORT ORDINAL="2211" NAME="?errorString@QPluginLoader@@QBE?AVQString@@XZ" PURGE="4" COMMENT="" />
    <EXPORT ORDINAL="2212" NAME="?errorString@QRegExp@@QAE?AVQString@@XZ" PURGE="4" COMMENT="" />
    <EXPORT ORDINAL="2213" NAME="?errorString@QRegExp@@QBE?AVQString@@XZ" PURGE="4" COMMENT="" />
    <EXPORT ORDINAL="2214" NAME="?errorString@QSharedMemory@@QBE?AVQString@@XZ" PURGE="4" COMMENT="" />
    <EXPORT ORDINAL="2215" NAME="?errorString@QStateMachine@@QBE?AVQString@@XZ" PURGE="4" COMMENT="" />
    <EXPORT ORDINAL="2216" NAME="?errorString@QSystemSemaphore@@QBE?AVQString@@XZ" PURGE="4" COMMENT="" />
    <EXPORT ORDINAL="2217" NAME="?errorString@QUrl@@QBE?AVQString@@XZ" PURGE="4" COMMENT="" />
    <EXPORT ORDINAL="2218" NAME="?errorString@QXmlStreamReader@@QBE?AVQString@@XZ" PURGE="4" COMMENT="" />
    <EXPORT ORDINAL="2219" NAME="?escape@QRegExp@@SA?AVQString@@ABV2@@Z" PURGE="0" COMMENT="" />
    <EXPORT ORDINAL="2220" NAME="?event@QAbstractAnimation@@MAE_NPAVQEvent@@@Z" PURGE="4" COMMENT="" />
    <EXPORT ORDINAL="2221" NAME="?event@QAbstractState@@MAE_NPAVQEvent@@@Z" PURGE="4" COMMENT="" />
    <EXPORT ORDINAL="2222" NAME="?event@QAbstractTransition@@MAE_NPAVQEvent@@@Z" PURGE="4" COMMENT="" />
    <EXPORT ORDINAL="2223" NAME="?event@QAnimationGroup@@MAE_NPAVQEvent@@@Z" PURGE="4" COMMENT="" />
    <EXPORT ORDINAL="2224" NAME="?event@QCoreApplication@@MAE_NPAVQEvent@@@Z" PURGE="4" COMMENT="" />
    <EXPORT ORDINAL="2225" NAME="?event@QEventDispatcherWin32@@UAE_NPAVQEvent@@@Z" PURGE="4" COMMENT="" />
    <EXPORT ORDINAL="2226" NAME="?event@QEventTransition@@MAE_NPAVQEvent@@@Z" PURGE="4" COMMENT="" />
    <EXPORT ORDINAL="2227" NAME="?event@QFinalState@@MAE_NPAVQEvent@@@Z" PURGE="4" COMMENT="" />
    <EXPORT ORDINAL="2228" NAME="?event@QFutureWatcherBase@@UAE_NPAVQEvent@@@Z" PURGE="4" COMMENT="" />
    <EXPORT ORDINAL="2229" NAME="?event@QHistoryState@@MAE_NPAVQEvent@@@Z" PURGE="4" COMMENT="" />
    <EXPORT ORDINAL="2230" NAME="?event@QObject@@UAE_NPAVQEvent@@@Z" PURGE="4" COMMENT="" />
    <EXPORT ORDINAL="2231" NAME="?event@QParallelAnimationGroup@@MAE_NPAVQEvent@@@Z" PURGE="4" COMMENT="" />
    <EXPORT ORDINAL="2232" NAME="?event@QPauseAnimation@@MAE_NPAVQEvent@@@Z" PURGE="4" COMMENT="" />
    <EXPORT ORDINAL="2233" NAME="?event@QPropertyAnimation@@MAE_NPAVQEvent@@@Z" PURGE="4" COMMENT="" />
    <EXPORT ORDINAL="2234" NAME="?event@QSequentialAnimationGroup@@MAE_NPAVQEvent@@@Z" PURGE="4" COMMENT="" />
    <EXPORT ORDINAL="2235" NAME="?event@QSettings@@MAE_NPAVQEvent@@@Z" PURGE="4" COMMENT="" />
    <EXPORT ORDINAL="2236" NAME="?event@QSignalTransition@@MAE_NPAVQEvent@@@Z" PURGE="4" COMMENT="" />
    <EXPORT ORDINAL="2237" NAME="?event@QSocketNotifier@@MAE_NPAVQEvent@@@Z" PURGE="4" COMMENT="" />
    <EXPORT ORDINAL="2238" NAME="?event@QState@@MAE_NPAVQEvent@@@Z" PURGE="4" COMMENT="" />
    <EXPORT ORDINAL="2239" NAME="?event@QStateMachine@@MAE_NPAVQEvent@@@Z" PURGE="4" COMMENT="" />
    <EXPORT ORDINAL="2240" NAME="?event@QVariantAnimation@@MAE_NPAVQEvent@@@Z" PURGE="4" COMMENT="" />
    <EXPORT ORDINAL="2241" NAME="?event@QWinEventNotifier@@MAE_NPAVQEvent@@@Z" PURGE="4" COMMENT="" />
    <EXPORT ORDINAL="2242" NAME="?event@WrappedEvent@QStateMachine@@QBEPAVQEvent@@XZ" PURGE="0" COMMENT="" />
    <EXPORT ORDINAL="2243" NAME="?eventDispatcher@QCoreApplicationPrivate@@2PAVQAbstractEventDispatcher@@A" PURGE="-1" COMMENT="" />
    <EXPORT ORDINAL="2244" NAME="?eventFilter@QObject@@UAE_NPAV1@PAVQEvent@@@Z" PURGE="8" COMMENT="" />
    <EXPORT ORDINAL="2245" NAME="?eventFilter@QStateMachine@@UAE_NPAVQObject@@PAVQEvent@@@Z" PURGE="8" COMMENT="" />
    <EXPORT ORDINAL="2246" NAME="?eventSource@QEventTransition@@QBEPAVQObject@@XZ" PURGE="0" COMMENT="" />
    <EXPORT ORDINAL="2247" NAME="?eventTest@QEventTransition@@MAE_NPAVQEvent@@@Z" PURGE="4" COMMENT="" />
    <EXPORT ORDINAL="2248" NAME="?eventTest@QSignalTransition@@MAE_NPAVQEvent@@@Z" PURGE="4" COMMENT="" />
    <EXPORT ORDINAL="2249" NAME="?eventType@QEventTransition@@QBE?AW4Type@QEvent@@XZ" PURGE="0" COMMENT="" />
    <EXPORT ORDINAL="2250" NAME="?exactMatch@QRegExp@@QBE_NABVQString@@@Z" PURGE="4" COMMENT="" />
    <EXPORT ORDINAL="2251" NAME="?exception@ExceptionStore@internal@QtConcurrent@@QAE?AVExceptionHolder@23@XZ" PURGE="4" COMMENT="" />
    <EXPORT ORDINAL="2252" NAME="?exceptionStore@QFutureInterfaceBase@@QAEAAVExceptionStore@internal@QtConcurrent@@XZ" PURGE="0" COMMENT="" />
    <EXPORT ORDINAL="2253" NAME="?exec@QCoreApplication@@SAHXZ" PURGE="0" COMMENT="" />
    <EXPORT ORDINAL="2254" NAME="?exec@QEventLoop@@QAEHV?$QFlags@W4ProcessEventsFlag@QEventLoop@@@@@Z" PURGE="4" COMMENT="" />
    <EXPORT ORDINAL="2255" NAME="?exec@QTextStreamManipulator@@QAEXAAVQTextStream@@@Z" PURGE="4" COMMENT="" />
    <EXPORT ORDINAL="2256" NAME="?exec@QThread@@IAEHXZ" PURGE="0" COMMENT="" />
    <EXPORT ORDINAL="2257" NAME="?execute@QProcess@@SAHABVQString@@@Z" PURGE="0" COMMENT="" />
    <EXPORT ORDINAL="2258" NAME="?execute@QProcess@@SAHABVQString@@ABVQStringList@@@Z" PURGE="0" COMMENT="" />
    <EXPORT ORDINAL="2259" NAME="?executeTransitionContent@QStateMachinePrivate@@QAEXPAVQEvent@@ABV?$QList@PAVQAbstractTransition@@@@@Z" PURGE="8" COMMENT="" />
    <EXPORT ORDINAL="2260" NAME="?exists@QDir@@QBE_NABVQString@@@Z" PURGE="4" COMMENT="" />
    <EXPORT ORDINAL="2261" NAME="?exists@QDir@@QBE_NXZ" PURGE="0" COMMENT="" />
    <EXPORT ORDINAL="2262" NAME="?exists@QFile@@QBE_NXZ" PURGE="0" COMMENT="" />
    <EXPORT ORDINAL="2263" NAME="?exists@QFile@@SA_NABVQString@@@Z" PURGE="0" COMMENT="" />
    <EXPORT ORDINAL="2264" NAME="?exists@QFileInfo@@QBE_NXZ" PURGE="0" COMMENT="" />
    <EXPORT ORDINAL="2265" NAME="?exit@QCoreApplication@@SAXH@Z" PURGE="0" COMMENT="" />
    <EXPORT ORDINAL="2266" NAME="?exit@QEventLoop@@QAEXH@Z" PURGE="4" COMMENT="" />
    <EXPORT ORDINAL="2267" NAME="?exit@QThread@@QAEXH@Z" PURGE="4" COMMENT="" />
    <EXPORT ORDINAL="2268" NAME="?exitCode@QProcess@@QBEHXZ" PURGE="0" COMMENT="" />
    <EXPORT ORDINAL="2269" NAME="?exitStates@QStateMachinePrivate@@QAE?AV?$QList@PAVQAbstractState@@@@PAVQEvent@@ABV?$QList@PAVQAbstractTransition@@@@@Z" PURGE="12" COMMENT="" />
    <EXPORT ORDINAL="2270" NAME="?exitStatus@QProcess@@QBE?AW4ExitStatus@1@XZ" PURGE="0" COMMENT="" />
    <EXPORT ORDINAL="2271" NAME="?exit_loop@QCoreApplication@@SAXXZ" PURGE="0" COMMENT="" />
    <EXPORT ORDINAL="2272" NAME="?exited@QAbstractState@@AAEXXZ" PURGE="0" COMMENT="" />
    <EXPORT ORDINAL="2273" NAME="?expand@QByteArray@@AAEXH@Z" PURGE="4" COMMENT="" />
    <EXPORT ORDINAL="2274" NAME="?expand@QString@@AAEXH@Z" PURGE="4" COMMENT="" />
    <EXPORT ORDINAL="2275" NAME="?expandedTo@QSize@@QBE?AV1@ABV1@@Z" PURGE="8" COMMENT="" />
    <EXPORT ORDINAL="2276" NAME="?expandedTo@QSizeF@@QBE?AV1@ABV1@@Z" PURGE="8" COMMENT="" />
    <EXPORT ORDINAL="2277" NAME="?expectedResultCount@QFutureInterfaceBase@@QAEHXZ" PURGE="0" COMMENT="" />
    <EXPORT ORDINAL="2278" NAME="?expiryTimeout@QThreadPool@@QBEHXZ" PURGE="0" COMMENT="" />
    <EXPORT ORDINAL="2279" NAME="?exponential@QLocale@@QBE?AVQChar@@XZ" PURGE="4" COMMENT="" />
    <EXPORT ORDINAL="2280" NAME="?exponential@QLocalePrivate@@QBE?AVQChar@@XZ" PURGE="4" COMMENT="" />
    <EXPORT ORDINAL="2281" NAME="?extension@QAbstractFileEngine@@UAE_NW4Extension@1@PBVExtensionOption@1@PAVExtensionReturn@1@@Z" PURGE="12" COMMENT="" />
    <EXPORT ORDINAL="2282" NAME="?extension@QFSFileEngine@@UAE_NW4Extension@QAbstractFileEngine@@PBVExtensionOption@3@PAVExtensionReturn@3@@Z" PURGE="12" COMMENT="" />
    <EXPORT ORDINAL="2283" NAME="?extension@QFileInfo@@QBE?AVQString@@_N@Z" PURGE="8" COMMENT="" />
    <EXPORT ORDINAL="2284" NAME="?fallbackLocale@QSystemLocale@@UBE?AVQLocale@@XZ" PURGE="4" COMMENT="" />
    <EXPORT ORDINAL="2285" NAME="?fallbacksEnabled@QSettings@@QBE_NXZ" PURGE="0" COMMENT="" />
    <EXPORT ORDINAL="2286" NAME="?fetchAndAddAcquire@QBasicAtomicInt@@QAEHH@Z" PURGE="4" COMMENT="" />
    <EXPORT ORDINAL="2287" NAME="?fetchAndAddOrdered@QBasicAtomicInt@@QAEHH@Z" PURGE="4" COMMENT="" />
    <EXPORT ORDINAL="2288" NAME="?fetchAndAddRelaxed@QBasicAtomicInt@@QAEHH@Z" PURGE="4" COMMENT="" />
    <EXPORT ORDINAL="2289" NAME="?fetchAndAddRelease@QBasicAtomicInt@@QAEHH@Z" PURGE="4" COMMENT="" />
    <EXPORT ORDINAL="2290" NAME="?fetchAndStoreAcquire@QBasicAtomicInt@@QAEHH@Z" PURGE="4" COMMENT="" />
    <EXPORT ORDINAL="2291" NAME="?fetchAndStoreOrdered@QBasicAtomicInt@@QAEHH@Z" PURGE="4" COMMENT="" />
    <EXPORT ORDINAL="2292" NAME="?fetchAndStoreRelaxed@QBasicAtomicInt@@QAEHH@Z" PURGE="4" COMMENT="" />
    <EXPORT ORDINAL="2293" NAME="?fetchAndStoreRelease@QBasicAtomicInt@@QAEHH@Z" PURGE="4" COMMENT="" />
    <EXPORT ORDINAL="2294" NAME="?fetchMore@QAbstractItemModel@@UAEXABVQModelIndex@@@Z" PURGE="4" COMMENT="" />
    <EXPORT ORDINAL="2295" NAME="?fieldAlignment@QTextStream@@QBE?AW4FieldAlignment@1@XZ" PURGE="0" COMMENT="" />
    <EXPORT ORDINAL="2296" NAME="?fieldInfo@QDateTimeParser@@QBE?AV?$QFlags@W4FieldInfoFlag@QDateTimeParser@@@@H@Z" PURGE="8" COMMENT="" />
    <EXPORT ORDINAL="2297" NAME="?fieldWidth@QTextStream@@QBEHXZ" PURGE="0" COMMENT="" />
    <EXPORT ORDINAL="2298" NAME="?fileChanged@QFileSystemWatcher@@IAEXABVQString@@@Z" PURGE="4" COMMENT="" />
    <EXPORT ORDINAL="2299" NAME="?fileEngine@QFile@@UBEPAVQAbstractFileEngine@@XZ" PURGE="0" COMMENT="" />
    <EXPORT ORDINAL="2300" NAME="?fileEngine@QTemporaryFile@@UBEPAVQAbstractFileEngine@@XZ" PURGE="0" COMMENT="" />
    <EXPORT ORDINAL="2301" NAME="?fileFlags@QAbstractFileEngine@@UBE?AV?$QFlags@W4FileFlag@QAbstractFileEngine@@@@V2@@Z" PURGE="8" COMMENT="" />
    <EXPORT ORDINAL="2302" NAME="?fileFlags@QFSFileEngine@@UBE?AV?$QFlags@W4FileFlag@QAbstractFileEngine@@@@V2@@Z" PURGE="8" COMMENT="" />
    <EXPORT ORDINAL="2303" NAME="?fileInfo@QDirIterator@@QBE?AVQFileInfo@@XZ" PURGE="4" COMMENT="" />
    <EXPORT ORDINAL="2304" NAME="?fileName@QAbstractFileEngine@@UBE?AVQString@@W4FileName@1@@Z" PURGE="8" COMMENT="" />
    <EXPORT ORDINAL="2305" NAME="?fileName@QDirIterator@@QBE?AVQString@@XZ" PURGE="4" COMMENT="" />
    <EXPORT ORDINAL="2306" NAME="?fileName@QFSFileEngine@@UBE?AVQString@@W4FileName@QAbstractFileEngine@@@Z" PURGE="8" COMMENT="" />
    <EXPORT ORDINAL="2307" NAME="?fileName@QFile@@QBE?AVQString@@XZ" PURGE="4" COMMENT="" />
    <EXPORT ORDINAL="2308" NAME="?fileName@QFileInfo@@QBE?AVQString@@XZ" PURGE="4" COMMENT="" />
    <EXPORT ORDINAL="2309" NAME="?fileName@QLibrary@@QBE?AVQString@@XZ" PURGE="4" COMMENT="" />
    <EXPORT ORDINAL="2310" NAME="?fileName@QPluginLoader@@QBE?AVQString@@XZ" PURGE="4" COMMENT="" />
    <EXPORT ORDINAL="2311" NAME="?fileName@QResource@@QBE?AVQString@@XZ" PURGE="4" COMMENT="" />
    <EXPORT ORDINAL="2312" NAME="?fileName@QSettings@@QBE?AVQString@@XZ" PURGE="4" COMMENT="" />
    <EXPORT ORDINAL="2313" NAME="?fileName@QTemporaryFile@@QBE?AVQString@@XZ" PURGE="4" COMMENT="" />
    <EXPORT ORDINAL="2314" NAME="?fileName@QUrl@@QBE?AVQString@@XZ" PURGE="4" COMMENT="" />
    <EXPORT ORDINAL="2315" NAME="?filePath@QDir@@QBE?AVQString@@ABV2@@Z" PURGE="8" COMMENT="" />
    <EXPORT ORDINAL="2316" NAME="?filePath@QDirIterator@@QBE?AVQString@@XZ" PURGE="4" COMMENT="" />
    <EXPORT ORDINAL="2317" NAME="?filePath@QFileInfo@@QBE?AVQString@@XZ" PURGE="4" COMMENT="" />
    <EXPORT ORDINAL="2318" NAME="?fileTemplate@QTemporaryFile@@QBE?AVQString@@XZ" PURGE="4" COMMENT="" />
    <EXPORT ORDINAL="2319" NAME="?fileTime@QAbstractFileEngine@@UBE?AVQDateTime@@W4FileTime@1@@Z" PURGE="8" COMMENT="" />
    <EXPORT ORDINAL="2320" NAME="?fileTime@QFSFileEngine@@UBE?AVQDateTime@@W4FileTime@QAbstractFileEngine@@@Z" PURGE="8" COMMENT="" />
    <EXPORT ORDINAL="2321" NAME="?files@QFileSystemWatcher@@QBE?AVQStringList@@XZ" PURGE="4" COMMENT="" />
    <EXPORT ORDINAL="2322" NAME="?fill@?$QVector@VQPoint@@@@QAEAAV1@ABVQPoint@@H@Z" PURGE="8" COMMENT="" />
    <EXPORT ORDINAL="2323" NAME="?fill@?$QVector@VQPointF@@@@QAEAAV1@ABVQPointF@@H@Z" PURGE="8" COMMENT="" />
    <EXPORT ORDINAL="2324" NAME="?fill@?$QVector@VQXmlStreamAttribute@@@@QAEAAV1@ABVQXmlStreamAttribute@@H@Z" PURGE="8" COMMENT="" />
    <EXPORT ORDINAL="2325" NAME="?fill@QBitArray@@QAEX_NHH@Z" PURGE="12" COMMENT="" />
    <EXPORT ORDINAL="2326" NAME="?fill@QBitArray@@QAE_N_NH@Z" PURGE="8" COMMENT="" />
    <EXPORT ORDINAL="2327" NAME="?fill@QByteArray@@QAEAAV1@DH@Z" PURGE="8" COMMENT="" />
    <EXPORT ORDINAL="2328" NAME="?fill@QString@@QAEAAV1@VQChar@@H@Z" PURGE="8" COMMENT="" />
    <EXPORT ORDINAL="2329" NAME="?fill@QTextStream@@QAEHH@Z" PURGE="4" COMMENT="" />
    <EXPORT ORDINAL="2330" NAME="?filter@QDir@@QBE?AV?$QFlags@W4Filter@QDir@@@@XZ" PURGE="4" COMMENT="" />
    <EXPORT ORDINAL="2331" NAME="?filterEvent@QAbstractEventDispatcher@@QAE_NPAX@Z" PURGE="4" COMMENT="" />
    <EXPORT ORDINAL="2332" NAME="?filterEvent@QCoreApplication@@QAE_NPAXPAJ@Z" PURGE="8" COMMENT="" />
    <EXPORT ORDINAL="2333" NAME="?filterMode@ResultStoreBase@QtConcurrent@@QBE_NXZ" PURGE="0" COMMENT="" />
    <EXPORT ORDINAL="2334" NAME="?filters@QAbstractFileEngineIterator@@QBE?AV?$QFlags@W4Filter@QDir@@@@XZ" PURGE="4" COMMENT="" />
    <EXPORT ORDINAL="2335" NAME="?find@QByteArray@@QBEHABV1@H@Z" PURGE="8" COMMENT="" />
    <EXPORT ORDINAL="2336" NAME="?find@QByteArray@@QBEHABVQString@@H@Z" PURGE="8" COMMENT="" />
    <EXPORT ORDINAL="2337" NAME="?find@QByteArray@@QBEHDH@Z" PURGE="8" COMMENT="" />
    <EXPORT ORDINAL="2338" NAME="?find@QByteArray@@QBEHPBDH@Z" PURGE="8" COMMENT="" />
    <EXPORT ORDINAL="2339" NAME="?find@QString@@QBEHAAVQRegExp@@H@Z" PURGE="8" COMMENT="" />
    <EXPORT ORDINAL="2340" NAME="?find@QString@@QBEHABV1@H_N@Z" PURGE="12" COMMENT="" />
    <EXPORT ORDINAL="2341" NAME="?find@QString@@QBEHABVQRegExp@@H@Z" PURGE="8" COMMENT="" />
    <EXPORT ORDINAL="2342" NAME="?find@QString@@QBEHVQChar@@H_N@Z" PURGE="12" COMMENT="" />
    <EXPORT ORDINAL="2343" NAME="?find@QTranslator@@QBE?AVQString@@PBD00@Z" PURGE="16" COMMENT="" />
    <EXPORT ORDINAL="2344" NAME="?findAmPm@QDateTimeParser@@QBEHAAVQString@@HPAH@Z" PURGE="12" COMMENT="" />
    <EXPORT ORDINAL="2345" NAME="?findDay@QDateTimeParser@@QBEHABVQString@@HHPAV2@PAH@Z" PURGE="20" COMMENT="" />
    <EXPORT ORDINAL="2346" NAME="?findErrorState@QStateMachinePrivate@@QAEPAVQAbstractState@@PAV2@@Z" PURGE="4" COMMENT="" />
    <EXPORT ORDINAL="2347" NAME="?findLCA@QStateMachinePrivate@@QBEPAVQState@@ABV?$QList@PAVQAbstractState@@@@@Z" PURGE="4" COMMENT="" />
    <EXPORT ORDINAL="2348" NAME="?findLocale@QLocalePrivate@@SAPBU1@W4Language@QLocale@@W4Script@3@W4Country@3@@Z" PURGE="0" COMMENT="" />
    <EXPORT ORDINAL="2349" NAME="?findMonth@QDateTimeParser@@QBEHABVQString@@HHPAV2@PAH@Z" PURGE="20" COMMENT="" />
    <EXPORT ORDINAL="2350" NAME="?findRev@QByteArray@@QBEHABV1@H@Z" PURGE="8" COMMENT="" />
    <EXPORT ORDINAL="2351" NAME="?findRev@QByteArray@@QBEHABVQString@@H@Z" PURGE="8" COMMENT="" />
    <EXPORT ORDINAL="2352" NAME="?findRev@QByteArray@@QBEHDH@Z" PURGE="8" COMMENT="" />
    <EXPORT ORDINAL="2353" NAME="?findRev@QByteArray@@QBEHPBDH@Z" PURGE="8" COMMENT="" />
    <EXPORT ORDINAL="2354" NAME="?findRev@QString@@QBEHAAVQRegExp@@H@Z" PURGE="8" COMMENT="" />
    <EXPORT ORDINAL="2355" NAME="?findRev@QString@@QBEHABV1@H_N@Z" PURGE="12" COMMENT="" />
    <EXPORT ORDINAL="2356" NAME="?findRev@QString@@QBEHABVQRegExp@@H@Z" PURGE="8" COMMENT="" />
    <EXPORT ORDINAL="2357" NAME="?findRev@QString@@QBEHVQChar@@H_N@Z" PURGE="12" COMMENT="" />
    <EXPORT ORDINAL="2358" NAME="?finish@QThreadStorageData@@SAXPAPAX@Z" PURGE="0" COMMENT="" />
    <EXPORT ORDINAL="2359" NAME="?finish@ThreadEngineBase@QtConcurrent@@MAEXXZ" PURGE="0" COMMENT="" />
    <EXPORT ORDINAL="2360" NAME="?finished@QAbstractAnimation@@IAEXXZ" PURGE="0" COMMENT="" />
    <EXPORT ORDINAL="2361" NAME="?finished@QFutureWatcherBase@@IAEXXZ" PURGE="0" COMMENT="" />
    <EXPORT ORDINAL="2362" NAME="?finished@QProcess@@IAEXH@Z" PURGE="4" COMMENT="" />
    <EXPORT ORDINAL="2363" NAME="?finished@QProcess@@IAEXHW4ExitStatus@1@@Z" PURGE="8" COMMENT="" />
    <EXPORT ORDINAL="2364" NAME="?finished@QState@@IAEXXZ" PURGE="0" COMMENT="" />
    <EXPORT ORDINAL="2365" NAME="?finished@QThread@@IAEXXZ" PURGE="0" COMMENT="" />
    <EXPORT ORDINAL="2366" NAME="?finished@QThread@@QBE_NXZ" PURGE="0" COMMENT="" />
    <EXPORT ORDINAL="2367" NAME="?finished@QTimeLine@@IAEXXZ" PURGE="0" COMMENT="" />
    <EXPORT ORDINAL="2368" NAME="?first@?$QVector@VQPoint@@@@QAEAAVQPoint@@XZ" PURGE="0" COMMENT="" />
    <EXPORT ORDINAL="2369" NAME="?first@?$QVector@VQPoint@@@@QBEABVQPoint@@XZ" PURGE="0" COMMENT="" />
    <EXPORT ORDINAL="2370" NAME="?first@?$QVector@VQPointF@@@@QAEAAVQPointF@@XZ" PURGE="0" COMMENT="" />
    <EXPORT ORDINAL="2371" NAME="?first@?$QVector@VQPointF@@@@QBEABVQPointF@@XZ" PURGE="0" COMMENT="" />
    <EXPORT ORDINAL="2372" NAME="?first@?$QVector@VQXmlStreamAttribute@@@@QAEAAVQXmlStreamAttribute@@XZ" PURGE="0" COMMENT="" />
    <EXPORT ORDINAL="2373" NAME="?first@?$QVector@VQXmlStreamAttribute@@@@QBEABVQXmlStreamAttribute@@XZ" PURGE="0" COMMENT="" />
    <EXPORT ORDINAL="2374" NAME="?firstDayOfWeek@QLocale@@QBE?AW4DayOfWeek@Qt@@XZ" PURGE="0" COMMENT="" />
    <EXPORT ORDINAL="2375" NAME="?firstNode@QHashData@@QAEPAUNode@1@XZ" PURGE="0" COMMENT="" />
    <EXPORT ORDINAL="2376" NAME="?fixed@@YAAAVQTextStream@@AAV1@@Z" PURGE="0" COMMENT="" />
    <EXPORT ORDINAL="2377" NAME="?flags@QAbstractItemModel@@UBE?AV?$QFlags@W4ItemFlag@Qt@@@@ABVQModelIndex@@@Z" PURGE="8" COMMENT="" />
    <EXPORT ORDINAL="2378" NAME="?flags@QIODevice@@QBEHXZ" PURGE="0" COMMENT="" />
    <EXPORT ORDINAL="2379" NAME="?flags@QModelIndex@@QBE?AV?$QFlags@W4ItemFlag@Qt@@@@XZ" PURGE="4" COMMENT="" />
    <EXPORT ORDINAL="2380" NAME="?flags@QPersistentModelIndex@@QBE?AV?$QFlags@W4ItemFlag@Qt@@@@XZ" PURGE="4" COMMENT="" />
    <EXPORT ORDINAL="2381" NAME="?flags@QTextStream@@QAEHH@Z" PURGE="4" COMMENT="" />
    <EXPORT ORDINAL="2382" NAME="?flags@QTextStream@@QBEHXZ" PURGE="0" COMMENT="" />
    <EXPORT ORDINAL="2383" NAME="?flagsInternal@QTextStream@@AAEHH@Z" PURGE="4" COMMENT="" />
    <EXPORT ORDINAL="2384" NAME="?flagsInternal@QTextStream@@ABEHXZ" PURGE="0" COMMENT="" />
    <EXPORT ORDINAL="2385" NAME="?floatingPointPrecision@QDataStream@@QBE?AW4FloatingPointPrecision@1@XZ" PURGE="0" COMMENT="" />
    <EXPORT ORDINAL="2386" NAME="?flush@@YAAAVQTextStream@@AAV1@@Z" PURGE="0" COMMENT="" />
    <EXPORT ORDINAL="2387" NAME="?flush@QAbstractFileEngine@@UAE_NXZ" PURGE="0" COMMENT="" />
    <EXPORT ORDINAL="2388" NAME="?flush@QCoreApplication@@SAXXZ" PURGE="0" COMMENT="" />
    <EXPORT ORDINAL="2389" NAME="?flush@QEventDispatcherWin32@@UAEXXZ" PURGE="0" COMMENT="" />
    <EXPORT ORDINAL="2390" NAME="?flush@QFSFileEngine@@UAE_NXZ" PURGE="0" COMMENT="" />
    <EXPORT ORDINAL="2391" NAME="?flush@QFile@@QAE_NXZ" PURGE="0" COMMENT="" />
    <EXPORT ORDINAL="2392" NAME="?flush@QTextStream@@QAEXXZ" PURGE="0" COMMENT="" />
    <EXPORT ORDINAL="2393" NAME="?forcepoint@@YAAAVQTextStream@@AAV1@@Z" PURGE="0" COMMENT="" />
    <EXPORT ORDINAL="2394" NAME="?forcesign@@YAAAVQTextStream@@AAV1@@Z" PURGE="0" COMMENT="" />
    <EXPORT ORDINAL="2395" NAME="?format@QSettings@@QBE?AW4Format@1@XZ" PURGE="0" COMMENT="" />
    <EXPORT ORDINAL="2396" NAME="?formats@QMimeData@@UBE?AVQStringList@@XZ" PURGE="4" COMMENT="" />
    <EXPORT ORDINAL="2397" NAME="?fragment@QUrl@@QBE?AVQString@@XZ" PURGE="4" COMMENT="" />
    <EXPORT ORDINAL="2398" NAME="?frameChanged@QTimeLine@@IAEXH@Z" PURGE="4" COMMENT="" />
    <EXPORT ORDINAL="2399" NAME="?frameForTime@QTimeLine@@QBEHH@Z" PURGE="4" COMMENT="" />
    <EXPORT ORDINAL="2400" NAME="?free@?$QVector@VQPoint@@@@AAEXPAU?$QVectorTypedData@VQPoint@@@@@Z" PURGE="4" COMMENT="" />
    <EXPORT ORDINAL="2401" NAME="?free@?$QVector@VQPointF@@@@AAEXPAU?$QVectorTypedData@VQPointF@@@@@Z" PURGE="4" COMMENT="" />
    <EXPORT ORDINAL="2402" NAME="?free@?$QVector@VQXmlStreamAttribute@@@@AAEXPAU?$QVectorTypedData@VQXmlStreamAttribute@@@@@Z" PURGE="4" COMMENT="" />
    <EXPORT ORDINAL="2403" NAME="?free@QContiguousCacheData@@SAXPAU1@@Z" PURGE="0" COMMENT="" />
    <EXPORT ORDINAL="2404" NAME="?free@QString@@CAXPAUData@1@@Z" PURGE="0" COMMENT="" />
    <EXPORT ORDINAL="2405" NAME="?free@QVectorData@@SAXPAU1@H@Z" PURGE="0" COMMENT="" />
    <EXPORT ORDINAL="2406" NAME="?freeNode@QHashData@@QAEXPAX@Z" PURGE="4" COMMENT="" />
    <EXPORT ORDINAL="2407" NAME="?free_helper@QHashData@@QAEXP6AXPAUNode@1@@Z@Z" PURGE="4" COMMENT="" />
    <EXPORT ORDINAL="2408" NAME="?fromAce@QUrl@@SA?AVQString@@ABVQByteArray@@@Z" PURGE="0" COMMENT="" />
    <EXPORT ORDINAL="2409" NAME="?fromAscii@QChar@@SA?AV1@D@Z" PURGE="0" COMMENT="" />
    <EXPORT ORDINAL="2410" NAME="?fromAscii@QString@@SA?AV1@PBDH@Z" PURGE="0" COMMENT="" />
    <EXPORT ORDINAL="2411" NAME="?fromAscii_helper@QString@@CAPAUData@1@PBDH@Z" PURGE="0" COMMENT="" />
    <EXPORT ORDINAL="2412" NAME="?fromBase64@QByteArray@@SA?AV1@ABV1@@Z" PURGE="0" COMMENT="" />
    <EXPORT ORDINAL="2413" NAME="?fromEncoded@QUrl@@SA?AV1@ABVQByteArray@@@Z" PURGE="0" COMMENT="" />
    <EXPORT ORDINAL="2414" NAME="?fromEncoded@QUrl@@SA?AV1@ABVQByteArray@@W4ParsingMode@1@@Z" PURGE="0" COMMENT="" />
    <EXPORT ORDINAL="2415" NAME="?fromHex@QByteArray@@SA?AV1@ABV1@@Z" PURGE="0" COMMENT="" />
    <EXPORT ORDINAL="2416" NAME="?fromJulianDay@QDate@@SA?AV1@H@Z" PURGE="0" COMMENT="" />
    <EXPORT ORDINAL="2417" NAME="?fromLatin1@QChar@@SA?AV1@D@Z" PURGE="0" COMMENT="" />
    <EXPORT ORDINAL="2418" NAME="?fromLatin1@QString@@SA?AV1@PBDH@Z" PURGE="0" COMMENT="" />
    <EXPORT ORDINAL="2419" NAME="?fromLatin1_helper@QString@@CAPAUData@1@PBDH@Z" PURGE="0" COMMENT="" />
    <EXPORT ORDINAL="2420" NAME="?fromList@?$QVector@VQPoint@@@@SA?AV1@ABV?$QList@VQPoint@@@@@Z" PURGE="0" COMMENT="" />
    <EXPORT ORDINAL="2421" NAME="?fromList@?$QVector@VQPointF@@@@SA?AV1@ABV?$QList@VQPointF@@@@@Z" PURGE="0" COMMENT="" />
    <EXPORT ORDINAL="2422" NAME="?fromList@?$QVector@VQXmlStreamAttribute@@@@SA?AV1@ABV?$QList@VQXmlStreamAttribute@@@@@Z" PURGE="0" COMMENT="" />
    <EXPORT ORDINAL="2423" NAME="?fromLocal8Bit@QString@@SA?AV1@PBDH@Z" PURGE="0" COMMENT="" />
    <EXPORT ORDINAL="2424" NAME="?fromLocalFile@QUrl@@SA?AV1@ABVQString@@@Z" PURGE="0" COMMENT="" />
    <EXPORT ORDINAL="2425" NAME="?fromMSecsSinceEpoch@QDateTime@@SA?AV1@_J@Z" PURGE="0" COMMENT="" />
    <EXPORT ORDINAL="2426" NAME="?fromNativeSeparators@QDir@@SA?AVQString@@ABV2@@Z" PURGE="0" COMMENT="" />
    <EXPORT ORDINAL="2427" NAME="?fromPercentEncoding@QByteArray@@SA?AV1@ABV1@D@Z" PURGE="0" COMMENT="" />
    <EXPORT ORDINAL="2428" NAME="?fromPercentEncoding@QUrl@@SA?AVQString@@ABVQByteArray@@@Z" PURGE="0" COMMENT="" />
    <EXPORT ORDINAL="2429" NAME="?fromPolar@QLineF@@SA?AV1@NN@Z" PURGE="0" COMMENT="" />
    <EXPORT ORDINAL="2430" NAME="?fromPunycode@QUrl@@SA?AVQString@@ABVQByteArray@@@Z" PURGE="0" COMMENT="" />
    <EXPORT ORDINAL="2431" NAME="?fromRawData@QByteArray@@SA?AV1@PBDH@Z" PURGE="0" COMMENT="" />
    <EXPORT ORDINAL="2432" NAME="?fromRawData@QString@@SA?AV1@PBVQChar@@H@Z" PURGE="0" COMMENT="" />
    <EXPORT ORDINAL="2433" NAME="?fromRfc4122@QUuid@@SA?AU1@ABVQByteArray@@@Z" PURGE="0" COMMENT="" />
    <EXPORT ORDINAL="2434" NAME="?fromStdString@QString@@SA?AV1@ABV?$basic_string@DU?$char_traits@D@std@@V?$allocator@D@2@@std@@@Z" PURGE="0" COMMENT="" />
    <EXPORT ORDINAL="2435" NAME="?fromStdVector@?$QVector@VQPoint@@@@SA?AV1@ABV?$vector@VQPoint@@V?$allocator@VQPoint@@@std@@@std@@@Z" PURGE="0" COMMENT="" />
    <EXPORT ORDINAL="2436" NAME="?fromStdVector@?$QVector@VQPointF@@@@SA?AV1@ABV?$vector@VQPointF@@V?$allocator@VQPointF@@@std@@@std@@@Z" PURGE="0" COMMENT="" />
    <EXPORT ORDINAL="2437" NAME="?fromStdVector@?$QVector@VQXmlStreamAttribute@@@@SA?AV1@ABV?$vector@VQXmlStreamAttribute@@V?$allocator@VQXmlStreamAttribute@@@std@@@std@@@Z" PURGE="0" COMMENT="" />
    <EXPORT ORDINAL="2438" NAME="?fromStdWString@QString@@SA?AV1@ABV?$basic_string@GU?$char_traits@G@std@@V?$allocator@G@2@@std@@@Z" PURGE="0" COMMENT="" />
    <EXPORT ORDINAL="2439" NAME="?fromString@QDate@@SA?AV1@ABVQString@@0@Z" PURGE="0" COMMENT="" />
    <EXPORT ORDINAL="2440" NAME="?fromString@QDate@@SA?AV1@ABVQString@@W4DateFormat@Qt@@@Z" PURGE="0" COMMENT="" />
    <EXPORT ORDINAL="2441" NAME="?fromString@QDateTime@@SA?AV1@ABVQString@@0@Z" PURGE="0" COMMENT="" />
    <EXPORT ORDINAL="2442" NAME="?fromString@QDateTime@@SA?AV1@ABVQString@@W4DateFormat@Qt@@@Z" PURGE="0" COMMENT="" />
    <EXPORT ORDINAL="2443" NAME="?fromString@QDateTimeParser@@QBE_NABVQString@@PAVQDate@@PAVQTime@@@Z" PURGE="12" COMMENT="" />
    <EXPORT ORDINAL="2444" NAME="?fromString@QTime@@SA?AV1@ABVQString@@0@Z" PURGE="0" COMMENT="" />
    <EXPORT ORDINAL="2445" NAME="?fromString@QTime@@SA?AV1@ABVQString@@W4DateFormat@Qt@@@Z" PURGE="0" COMMENT="" />
    <EXPORT ORDINAL="2446" NAME="?fromTime_t@QDateTime@@SA?AV1@I@Z" PURGE="0" COMMENT="" />
    <EXPORT ORDINAL="2447" NAME="?fromUcs2@QString@@SA?AV1@PBGH@Z" PURGE="0" COMMENT="" />
    <EXPORT ORDINAL="2448" NAME="?fromUcs4@QString@@SA?AV1@PBIH@Z" PURGE="0" COMMENT="" />
    <EXPORT ORDINAL="2449" NAME="?fromUnicode@QTextCodec@@QBE?AVQByteArray@@ABVQString@@@Z" PURGE="8" COMMENT="" />
    <EXPORT ORDINAL="2450" NAME="?fromUnicode@QTextCodec@@QBE?AVQByteArray@@ABVQString@@AAH@Z" PURGE="12" COMMENT="" />
    <EXPORT ORDINAL="2451" NAME="?fromUnicode@QTextCodec@@QBE?AVQByteArray@@PBVQChar@@HPAUConverterState@1@@Z" PURGE="16" COMMENT="" />
    <EXPORT ORDINAL="2452" NAME="?fromUnicode@QTextEncoder@@QAE?AVQByteArray@@ABVQString@@@Z" PURGE="8" COMMENT="" />
    <EXPORT ORDINAL="2453" NAME="?fromUnicode@QTextEncoder@@QAE?AVQByteArray@@ABVQString@@AAH@Z" PURGE="12" COMMENT="" />
    <EXPORT ORDINAL="2454" NAME="?fromUnicode@QTextEncoder@@QAE?AVQByteArray@@PBVQChar@@H@Z" PURGE="12" COMMENT="" />
    <EXPORT ORDINAL="2455" NAME="?fromUserInput@QUrl@@SA?AV1@ABVQString@@@Z" PURGE="0" COMMENT="" />
    <EXPORT ORDINAL="2456" NAME="?fromUtf16@QString@@SA?AV1@PBGH@Z" PURGE="0" COMMENT="" />
    <EXPORT ORDINAL="2457" NAME="?fromUtf8@QString@@SA?AV1@PBDH@Z" PURGE="0" COMMENT="" />
    <EXPORT ORDINAL="2458" NAME="?fromWCharArray@QString@@SA?AV1@PBGH@Z" PURGE="0" COMMENT="" />
    <EXPORT ORDINAL="2459" NAME="?front@?$QVector@VQPoint@@@@QAEAAVQPoint@@XZ" PURGE="0" COMMENT="" />
    <EXPORT ORDINAL="2460" NAME="?front@?$QVector@VQPoint@@@@QBEABVQPoint@@XZ" PURGE="0" COMMENT="" />
    <EXPORT ORDINAL="2461" NAME="?front@?$QVector@VQPointF@@@@QAEAAVQPointF@@XZ" PURGE="0" COMMENT="" />
    <EXPORT ORDINAL="2462" NAME="?front@?$QVector@VQPointF@@@@QBEABVQPointF@@XZ" PURGE="0" COMMENT="" />
    <EXPORT ORDINAL="2463" NAME="?front@?$QVector@VQXmlStreamAttribute@@@@QAEAAVQXmlStreamAttribute@@XZ" PURGE="0" COMMENT="" />
    <EXPORT ORDINAL="2464" NAME="?front@?$QVector@VQXmlStreamAttribute@@@@QBEABVQXmlStreamAttribute@@XZ" PURGE="0" COMMENT="" />
    <EXPORT ORDINAL="2465" NAME="?generateByteOrderMark@QTextStream@@QBE_NXZ" PURGE="0" COMMENT="" />
    <EXPORT ORDINAL="2466" NAME="?get@QAbstractTransitionPrivate@@SAPAV1@PAVQAbstractTransition@@@Z" PURGE="0" COMMENT="" />
    <EXPORT ORDINAL="2467" NAME="?get@QEventTransitionPrivate@@SAPAV1@PAVQEventTransition@@@Z" PURGE="0" COMMENT="" />
    <EXPORT ORDINAL="2468" NAME="?get@QMutexPool@@QAEPAVQMutex@@PBX@Z" PURGE="4" COMMENT="" />
    <EXPORT ORDINAL="2469" NAME="?get@QObjectPrivate@@SAPAV1@PAVQObject@@@Z" PURGE="0" COMMENT="" />
    <EXPORT ORDINAL="2470" NAME="?get@QStateMachinePrivate@@SAPAV1@PAVQStateMachine@@@Z" PURGE="0" COMMENT="" />
    <EXPORT ORDINAL="2471" NAME="?get@QThreadStorageData@@QBEPAPAXXZ" PURGE="0" COMMENT="" />
    <EXPORT ORDINAL="2472" NAME="?getAmPmText@QDateTimeParser@@UBE?AVQString@@W4AmPm@1@W4Case@1@@Z" PURGE="12" COMMENT="" />
    <EXPORT ORDINAL="2473" NAME="?getAndRef@ExternalRefCountData@QtSharedPointer@@SAPAU12@PBVQObject@@@Z" PURGE="0" COMMENT="" />
    <EXPORT ORDINAL="2474" NAME="?getChar@QIODevice@@QAE_NPAD@Z" PURGE="4" COMMENT="" />
    <EXPORT ORDINAL="2475" NAME="?getCoords@QRect@@QBEXPAH000@Z" PURGE="16" COMMENT="" />
    <EXPORT ORDINAL="2476" NAME="?getCoords@QRectF@@QBEXPAN000@Z" PURGE="16" COMMENT="" />
    <EXPORT ORDINAL="2477" NAME="?getDate@QDate@@QAEXPAH00@Z" PURGE="12" COMMENT="" />
    <EXPORT ORDINAL="2478" NAME="?getDigit@QDateTimeParser@@QBEHABVQDateTime@@H@Z" PURGE="8" COMMENT="" />
    <EXPORT ORDINAL="2479" NAME="?getInterpolator@QVariantAnimationPrivate@@SAP6A?AVQVariant@@PBX0N@ZH@Z" PURGE="0" COMMENT="" />
    <EXPORT ORDINAL="2480" NAME="?getLangAndCountry@QLocalePrivate@@SAXABVQString@@AAW4Language@QLocale@@AAW4Script@4@AAW4Country@4@@Z" PURGE="0" COMMENT="" />
    <EXPORT ORDINAL="2481" NAME="?getMaximum@QDateTimeParser@@UBE?AVQDateTime@@XZ" PURGE="4" COMMENT="" />
    <EXPORT ORDINAL="2482" NAME="?getMinimum@QDateTimeParser@@UBE?AVQDateTime@@XZ" PURGE="4" COMMENT="" />
    <EXPORT ORDINAL="2483" NAME="?getRect@QRect@@QBEXPAH000@Z" PURGE="16" COMMENT="" />
    <EXPORT ORDINAL="2484" NAME="?getRect@QRectF@@QBEXPAN000@Z" PURGE="16" COMMENT="" />
    <EXPORT ORDINAL="2485" NAME="?getch@QIODevice@@QAEHXZ" PURGE="0" COMMENT="" />
    <EXPORT ORDINAL="2486" NAME="?globalInstance@QThreadPool@@SAPAV1@XZ" PURGE="0" COMMENT="" />
    <EXPORT ORDINAL="2487" NAME="?globalInstanceGet@QMutexPool@@SAPAVQMutex@@PBX@Z" PURGE="0" COMMENT="" />
    <EXPORT ORDINAL="2488" NAME="?globalRestorePolicy@QStateMachine@@QBE?AW4RestorePolicy@1@XZ" PURGE="0" COMMENT="" />
    <EXPORT ORDINAL="2489" NAME="?goToState@QStateMachinePrivate@@QAEXPAVQAbstractState@@@Z" PURGE="4" COMMENT="" />
    <EXPORT ORDINAL="2490" NAME="?gregorianToJulian@QDate@@SAIHHH@Z" PURGE="0" COMMENT="" />
    <EXPORT ORDINAL="2491" NAME="?group@QAbstractAnimation@@QBEPAVQAnimationGroup@@XZ" PURGE="0" COMMENT="" />
    <EXPORT ORDINAL="2492" NAME="?group@QFileInfo@@QBE?AVQString@@XZ" PURGE="4" COMMENT="" />
    <EXPORT ORDINAL="2493" NAME="?group@QLocalePrivate@@QBE?AVQChar@@XZ" PURGE="4" COMMENT="" />
    <EXPORT ORDINAL="2494" NAME="?group@QSettings@@QBE?AVQString@@XZ" PURGE="4" COMMENT="" />
    <EXPORT ORDINAL="2495" NAME="?groupId@QFileInfo@@QBEIXZ" PURGE="0" COMMENT="" />
    <EXPORT ORDINAL="2496" NAME="?groupSeparator@QLocale@@QBE?AVQChar@@XZ" PURGE="4" COMMENT="" />
    <EXPORT ORDINAL="2497" NAME="?grow@QString@@CAHH@Z" PURGE="0" COMMENT="" />
    <EXPORT ORDINAL="2498" NAME="?grow@QVectorData@@SAHHHH_N@Z" PURGE="0" COMMENT="" />
    <EXPORT ORDINAL="2499" NAME="?hadWritten@QWindowsPipeWriter@@QBE_NXZ" PURGE="0" COMMENT="" />
    <EXPORT ORDINAL="2500" NAME="?handle@QAbstractFileEngine@@UBEHXZ" PURGE="0" COMMENT="" />
    <EXPORT ORDINAL="2501" NAME="?handle@QFSFileEngine@@UBEHXZ" PURGE="0" COMMENT="" />
    <EXPORT ORDINAL="2502" NAME="?handle@QFile@@QBEHXZ" PURGE="0" COMMENT="" />
    <EXPORT ORDINAL="2503" NAME="?handle@QWinEventNotifier@@QBEPAXXZ" PURGE="0" COMMENT="" />
    <EXPORT ORDINAL="2504" NAME="?handleException@ThreadEngineBase@QtConcurrent@@AAEXABVException@2@@Z" PURGE="4" COMMENT="" />
    <EXPORT ORDINAL="2505" NAME="?handleFilteredEvent@QStateMachinePrivate@@QAEXPAVQObject@@PAVQEvent@@@Z" PURGE="8" COMMENT="" />
    <EXPORT ORDINAL="2506" NAME="?handleTransitionSignal@QStateMachinePrivate@@QAEXPAVQObject@@HPAPAX@Z" PURGE="12" COMMENT="" />
    <EXPORT ORDINAL="2507" NAME="?handler@QStateMachinePrivate@@2PBUHandler@1@B" PURGE="-1" COMMENT="" />
    <EXPORT ORDINAL="2508" NAME="?handler@QVariant@@1PBUHandler@1@B" PURGE="-1" COMMENT="" />
    <EXPORT ORDINAL="2509" NAME="?hasAttribute@QXmlStreamAttributes@@QBE_NABVQLatin1String@@@Z" PURGE="4" COMMENT="" />
    <EXPORT ORDINAL="2510" NAME="?hasAttribute@QXmlStreamAttributes@@QBE_NABVQString@@0@Z" PURGE="8" COMMENT="" />
    <EXPORT ORDINAL="2511" NAME="?hasAttribute@QXmlStreamAttributes@@QBE_NABVQString@@@Z" PURGE="4" COMMENT="" />
    <EXPORT ORDINAL="2512" NAME="?hasChildren@QAbstractItemModel@@UBE_NABVQModelIndex@@@Z" PURGE="4" COMMENT="" />
    <EXPORT ORDINAL="2513" NAME="?hasChildren@QAbstractListModel@@EBE_NABVQModelIndex@@@Z" PURGE="4" COMMENT="" />
    <EXPORT ORDINAL="2514" NAME="?hasChildren@QAbstractTableModel@@EBE_NABVQModelIndex@@@Z" PURGE="4" COMMENT="" />
    <EXPORT ORDINAL="2515" NAME="?hasColor@QMimeData@@QBE_NXZ" PURGE="0" COMMENT="" />
    <EXPORT ORDINAL="2516" NAME="?hasEncodedQueryItem@QUrl@@QBE_NABVQByteArray@@@Z" PURGE="4" COMMENT="" />
    <EXPORT ORDINAL="2517" NAME="?hasError@QXmlStreamReader@@QBE_NXZ" PURGE="0" COMMENT="" />
    <EXPORT ORDINAL="2518" NAME="?hasError@QXmlStreamWriter@@QBE_NXZ" PURGE="0" COMMENT="" />
    <EXPORT ORDINAL="2519" NAME="?hasException@ExceptionStore@internal@QtConcurrent@@QBE_NXZ" PURGE="0" COMMENT="" />
    <EXPORT ORDINAL="2520" NAME="?hasExpired@QElapsedTimer@@QBE_N_J@Z" PURGE="8" COMMENT="" />
    <EXPORT ORDINAL="2521" NAME="?hasFailure@QTextDecoder@@QBE_NXZ" PURGE="0" COMMENT="" />
    <EXPORT ORDINAL="2522" NAME="?hasFailure@QTextEncoder@@QBE_NXZ" PURGE="0" COMMENT="" />
    <EXPORT ORDINAL="2523" NAME="?hasFormat@QMimeData@@UBE_NABVQString@@@Z" PURGE="4" COMMENT="" />
    <EXPORT ORDINAL="2524" NAME="?hasFragment@QUrl@@QBE_NXZ" PURGE="0" COMMENT="" />
    <EXPORT ORDINAL="2525" NAME="?hasHost@QUrl@@QBE_NXZ" PURGE="0" COMMENT="" />
    <EXPORT ORDINAL="2526" NAME="?hasHtml@QMimeData@@QBE_NXZ" PURGE="0" COMMENT="" />
    <EXPORT ORDINAL="2527" NAME="?hasImage@QMimeData@@QBE_NXZ" PURGE="0" COMMENT="" />
    <EXPORT ORDINAL="2528" NAME="?hasIndex@QAbstractItemModel@@QBE_NHHABVQModelIndex@@@Z" PURGE="12" COMMENT="" />
    <EXPORT ORDINAL="2529" NAME="?hasMirrored@QChar@@QBE_NXZ" PURGE="0" COMMENT="" />
    <EXPORT ORDINAL="2530" NAME="?hasMirrored@QCharRef@@QBE_NXZ" PURGE="0" COMMENT="" />
    <EXPORT ORDINAL="2531" NAME="?hasNext@QDirIterator@@QBE_NXZ" PURGE="0" COMMENT="" />
    <EXPORT ORDINAL="2532" NAME="?hasNextResult@ResultStoreBase@QtConcurrent@@QBE_NXZ" PURGE="0" COMMENT="" />
    <EXPORT ORDINAL="2533" NAME="?hasNotifySignal@QMetaProperty@@QBE_NXZ" PURGE="0" COMMENT="" />
    <EXPORT ORDINAL="2534" NAME="?hasPassword@QUrl@@QBE_NXZ" PURGE="0" COMMENT="" />
    <EXPORT ORDINAL="2535" NAME="?hasPath@QUrl@@QBE_NXZ" PURGE="0" COMMENT="" />
    <EXPORT ORDINAL="2536" NAME="?hasPendingEvents@QCoreApplication@@SA_NXZ" PURGE="0" COMMENT="" />
    <EXPORT ORDINAL="2537" NAME="?hasPendingEvents@QEventDispatcherWin32@@UAE_NXZ" PURGE="0" COMMENT="" />
    <EXPORT ORDINAL="2538" NAME="?hasPort@QUrl@@QBE_NXZ" PURGE="0" COMMENT="" />
    <EXPORT ORDINAL="2539" NAME="?hasQuery@QUrl@@QBE_NXZ" PURGE="0" COMMENT="" />
    <EXPORT ORDINAL="2540" NAME="?hasQueryItem@QUrl@@QBE_NABVQString@@@Z" PURGE="4" COMMENT="" />
    <EXPORT ORDINAL="2541" NAME="?hasRef@QUrl@@QBE_NXZ" PURGE="0" COMMENT="" />
    <EXPORT ORDINAL="2542" NAME="?hasRestorable@QStateMachinePrivate@@QBE_NPAVQObject@@ABVQByteArray@@@Z" PURGE="8" COMMENT="" />
    <EXPORT ORDINAL="2543" NAME="?hasShrunk@QHashData@@QAEXXZ" PURGE="0" COMMENT="" />
    <EXPORT ORDINAL="2544" NAME="?hasStdCppSet@QMetaProperty@@QBE_NXZ" PURGE="0" COMMENT="" />
    <EXPORT ORDINAL="2545" NAME="?hasText@QMimeData@@QBE_NXZ" PURGE="0" COMMENT="" />
    <EXPORT ORDINAL="2546" NAME="?hasThrown@ExceptionStore@internal@QtConcurrent@@QBE_NXZ" PURGE="0" COMMENT="" />
    <EXPORT ORDINAL="2547" NAME="?hasUrls@QMimeData@@QBE_NXZ" PURGE="0" COMMENT="" />
    <EXPORT ORDINAL="2548" NAME="?hasUser@QUrl@@QBE_NXZ" PURGE="0" COMMENT="" />
    <EXPORT ORDINAL="2549" NAME="?hash@QCryptographicHash@@SA?AVQByteArray@@ABV2@W4Algorithm@1@@Z" PURGE="0" COMMENT="" />
    <EXPORT ORDINAL="2550" NAME="?headerData@QAbstractItemModel@@UBE?AVQVariant@@HW4Orientation@Qt@@H@Z" PURGE="16" COMMENT="" />
    <EXPORT ORDINAL="2551" NAME="?headerDataChanged@QAbstractItemModel@@IAEXW4Orientation@Qt@@HH@Z" PURGE="12" COMMENT="" />
    <EXPORT ORDINAL="2552" NAME="?height@QRect@@QBEHXZ" PURGE="0" COMMENT="" />
    <EXPORT ORDINAL="2553" NAME="?height@QRectF@@QBENXZ" PURGE="0" COMMENT="" />
    <EXPORT ORDINAL="2554" NAME="?height@QSize@@QBEHXZ" PURGE="0" COMMENT="" />
    <EXPORT ORDINAL="2555" NAME="?height@QSizeF@@QBENXZ" PURGE="0" COMMENT="" />
    <EXPORT ORDINAL="2556" NAME="?hex@@YAAAVQTextStream@@AAV1@@Z" PURGE="0" COMMENT="" />
    <EXPORT ORDINAL="2557" NAME="?highSurrogate@QChar@@SAGI@Z" PURGE="0" COMMENT="" />
    <EXPORT ORDINAL="2558" NAME="?historyType@QHistoryState@@QBE?AW4HistoryType@1@XZ" PURGE="0" COMMENT="" />
    <EXPORT ORDINAL="2559" NAME="?home@QDir@@SA?AV1@XZ" PURGE="0" COMMENT="" />
    <EXPORT ORDINAL="2560" NAME="?homeDirPath@QDir@@SA?AVQString@@XZ" PURGE="0" COMMENT="" />
    <EXPORT ORDINAL="2561" NAME="?homePath@QDir@@SA?AVQString@@XZ" PURGE="0" COMMENT="" />
    <EXPORT ORDINAL="2562" NAME="?homePath@QFSFileEngine@@SA?AVQString@@XZ" PURGE="0" COMMENT="" />
    <EXPORT ORDINAL="2563" NAME="?host@QUrl@@QBE?AVQString@@XZ" PURGE="4" COMMENT="" />
    <EXPORT ORDINAL="2564" NAME="?hour@QTime@@QBEHXZ" PURGE="0" COMMENT="" />
    <EXPORT ORDINAL="2565" NAME="?html@QMimeData@@QBE?AVQString@@XZ" PURGE="4" COMMENT="" />
    <EXPORT ORDINAL="2566" NAME="?id@QMetaCallEvent@@QBEHXZ" PURGE="0" COMMENT="" />
    <EXPORT ORDINAL="2567" NAME="?idealThreadCount@QThread@@SAHXZ" PURGE="0" COMMENT="" />
    <EXPORT ORDINAL="2568" NAME="?idnWhitelist@QUrl@@SA?AVQStringList@@XZ" PURGE="0" COMMENT="" />
    <EXPORT ORDINAL="2569" NAME="?ignore@QEvent@@QAEXXZ" PURGE="0" COMMENT="" />
    <EXPORT ORDINAL="2570" NAME="?imageData@QMimeData@@QBE?AVQVariant@@XZ" PURGE="4" COMMENT="" />
    <EXPORT ORDINAL="2571" NAME="?index@QAbstractListModel@@UBE?AVQModelIndex@@HHABV2@@Z" PURGE="16" COMMENT="" />
    <EXPORT ORDINAL="2572" NAME="?index@QAbstractTableModel@@UBE?AVQModelIndex@@HHABV2@@Z" PURGE="16" COMMENT="" />
    <EXPORT ORDINAL="2573" NAME="?indexIn@QByteArrayMatcher@@QBEHABVQByteArray@@H@Z" PURGE="8" COMMENT="" />
    <EXPORT ORDINAL="2574" NAME="?indexIn@QByteArrayMatcher@@QBEHPBDHH@Z" PURGE="12" COMMENT="" />
    <EXPORT ORDINAL="2575" NAME="?indexIn@QRegExp@@QBEHABVQString@@HW4CaretMode@1@@Z" PURGE="12" COMMENT="" />
    <EXPORT ORDINAL="2576" NAME="?indexIn@QStringMatcher@@QBEHABVQString@@H@Z" PURGE="8" COMMENT="" />
    <EXPORT ORDINAL="2577" NAME="?indexIn@QStringMatcher@@QBEHPBVQChar@@HH@Z" PURGE="12" COMMENT="" />
    <EXPORT ORDINAL="2578" NAME="?indexOf@?$QVector@VQPoint@@@@QBEHABVQPoint@@H@Z" PURGE="8" COMMENT="" />
    <EXPORT ORDINAL="2579" NAME="?indexOf@?$QVector@VQPointF@@@@QBEHABVQPointF@@H@Z" PURGE="8" COMMENT="" />
    <EXPORT ORDINAL="2580" NAME="?indexOf@?$QVector@VQXmlStreamAttribute@@@@QBEHABVQXmlStreamAttribute@@H@Z" PURGE="8" COMMENT="" />
    <EXPORT ORDINAL="2581" NAME="?indexOf@QByteArray@@QBEHABV1@H@Z" PURGE="8" COMMENT="" />
    <EXPORT ORDINAL="2582" NAME="?indexOf@QByteArray@@QBEHABVQString@@H@Z" PURGE="8" COMMENT="" />
    <EXPORT ORDINAL="2583" NAME="?indexOf@QByteArray@@QBEHDH@Z" PURGE="8" COMMENT="" />
    <EXPORT ORDINAL="2584" NAME="?indexOf@QByteArray@@QBEHPBDH@Z" PURGE="8" COMMENT="" />
    <EXPORT ORDINAL="2585" NAME="?indexOf@QString@@QBEHAAVQRegExp@@H@Z" PURGE="8" COMMENT="" />
    <EXPORT ORDINAL="2586" NAME="?indexOf@QString@@QBEHABV1@HW4CaseSensitivity@Qt@@@Z" PURGE="12" COMMENT="" />
    <EXPORT ORDINAL="2587" NAME="?indexOf@QString@@QBEHABVQLatin1String@@HW4CaseSensitivity@Qt@@@Z" PURGE="12" COMMENT="" />
    <EXPORT ORDINAL="2588" NAME="?indexOf@QString@@QBEHABVQRegExp@@H@Z" PURGE="8" COMMENT="" />
    <EXPORT ORDINAL="2589" NAME="?indexOf@QString@@QBEHABVQStringRef@@HW4CaseSensitivity@Qt@@@Z" PURGE="12" COMMENT="" />
    <EXPORT ORDINAL="2590" NAME="?indexOf@QString@@QBEHVQChar@@HW4CaseSensitivity@Qt@@@Z" PURGE="12" COMMENT="" />
    <EXPORT ORDINAL="2591" NAME="?indexOf@QStringRef@@QBEHABV1@HW4CaseSensitivity@Qt@@@Z" PURGE="12" COMMENT="" />
    <EXPORT ORDINAL="2592" NAME="?indexOf@QStringRef@@QBEHABVQString@@HW4CaseSensitivity@Qt@@@Z" PURGE="12" COMMENT="" />
    <EXPORT ORDINAL="2593" NAME="?indexOf@QStringRef@@QBEHVQChar@@HW4CaseSensitivity@Qt@@@Z" PURGE="12" COMMENT="" />
    <EXPORT ORDINAL="2594" NAME="?indexOf@QStringRef@@QBEHVQLatin1String@@HW4CaseSensitivity@Qt@@@Z" PURGE="12" COMMENT="" />
    <EXPORT ORDINAL="2595" NAME="?indexOfAnimation@QAnimationGroup@@QBEHPAVQAbstractAnimation@@@Z" PURGE="4" COMMENT="" />
    <EXPORT ORDINAL="2596" NAME="?indexOfClassInfo@QMetaObject@@QBEHPBD@Z" PURGE="4" COMMENT="" />
    <EXPORT ORDINAL="2597" NAME="?indexOfConstructor@QMetaObject@@QBEHPBD@Z" PURGE="4" COMMENT="" />
    <EXPORT ORDINAL="2598" NAME="?indexOfEnumerator@QMetaObject@@QBEHPBD@Z" PURGE="4" COMMENT="" />
    <EXPORT ORDINAL="2599" NAME="?indexOfMethod@QMetaObject@@QBEHPBD@Z" PURGE="4" COMMENT="" />
    <EXPORT ORDINAL="2600" NAME="?indexOfProperty@QMetaObject@@QBEHPBD@Z" PURGE="4" COMMENT="" />
    <EXPORT ORDINAL="2601" NAME="?indexOfSignal@QMetaObject@@QBEHPBD@Z" PURGE="4" COMMENT="" />
    <EXPORT ORDINAL="2602" NAME="?indexOfSlot@QMetaObject@@QBEHPBD@Z" PURGE="4" COMMENT="" />
    <EXPORT ORDINAL="2603" NAME="?indexValid@QAbstractItemModelPrivate@@QBE_NABVQModelIndex@@@Z" PURGE="4" COMMENT="" />
    <EXPORT ORDINAL="2604" NAME="?inherits@QObject@@QBE_NPBD@Z" PURGE="4" COMMENT="" />
    <EXPORT ORDINAL="2605" NAME="?iniCodec@QSettings@@QBEPAVQTextCodec@@XZ" PURGE="0" COMMENT="" />
    <EXPORT ORDINAL="2606" NAME="?init@QAbstractEventDispatcherPrivate@@QAEXXZ" PURGE="0" COMMENT="" />
    <EXPORT ORDINAL="2607" NAME="?init@QCoreApplication@@AAEXXZ" PURGE="0" COMMENT="" />
    <EXPORT ORDINAL="2608" NAME="?initialState@QState@@QBEPAVQAbstractState@@XZ" PURGE="0" COMMENT="" />
    <EXPORT ORDINAL="2609" NAME="?initialize@QThread@@CAXXZ" PURGE="0" COMMENT="" />
    <EXPORT ORDINAL="2610" NAME="?initializeAnimation@QStateMachinePrivate@@QAE?AU?$QPair@V?$QList@PAVQAbstractAnimation@@@@V1@@@PAVQAbstractAnimation@@ABUQPropertyAssignment@@@Z" PURGE="12" COMMENT="" />
    <EXPORT ORDINAL="2611" NAME="?insert@?$QVector@VQPoint@@@@QAEPAVQPoint@@PAV2@ABV2@@Z" PURGE="8" COMMENT="" />
    <EXPORT ORDINAL="2612" NAME="?insert@?$QVector@VQPoint@@@@QAEPAVQPoint@@PAV2@HABV2@@Z" PURGE="12" COMMENT="" />
    <EXPORT ORDINAL="2613" NAME="?insert@?$QVector@VQPoint@@@@QAEXHABVQPoint@@@Z" PURGE="8" COMMENT="" />
    <EXPORT ORDINAL="2614" NAME="?insert@?$QVector@VQPoint@@@@QAEXHHABVQPoint@@@Z" PURGE="12" COMMENT="" />
    <EXPORT ORDINAL="2615" NAME="?insert@?$QVector@VQPointF@@@@QAEPAVQPointF@@PAV2@ABV2@@Z" PURGE="8" COMMENT="" />
    <EXPORT ORDINAL="2616" NAME="?insert@?$QVector@VQPointF@@@@QAEPAVQPointF@@PAV2@HABV2@@Z" PURGE="12" COMMENT="" />
    <EXPORT ORDINAL="2617" NAME="?insert@?$QVector@VQPointF@@@@QAEXHABVQPointF@@@Z" PURGE="8" COMMENT="" />
    <EXPORT ORDINAL="2618" NAME="?insert@?$QVector@VQPointF@@@@QAEXHHABVQPointF@@@Z" PURGE="12" COMMENT="" />
    <EXPORT ORDINAL="2619" NAME="?insert@?$QVector@VQXmlStreamAttribute@@@@QAEPAVQXmlStreamAttribute@@PAV2@ABV2@@Z" PURGE="8" COMMENT="" />
    <EXPORT ORDINAL="2620" NAME="?insert@?$QVector@VQXmlStreamAttribute@@@@QAEPAVQXmlStreamAttribute@@PAV2@HABV2@@Z" PURGE="12" COMMENT="" />
    <EXPORT ORDINAL="2621" NAME="?insert@?$QVector@VQXmlStreamAttribute@@@@QAEXHABVQXmlStreamAttribute@@@Z" PURGE="8" COMMENT="" />
    <EXPORT ORDINAL="2622" NAME="?insert@?$QVector@VQXmlStreamAttribute@@@@QAEXHHABVQXmlStreamAttribute@@@Z" PURGE="12" COMMENT="" />
    <EXPORT ORDINAL="2623" NAME="?insert@QByteArray@@QAEAAV1@HABV1@@Z" PURGE="8" COMMENT="" />
    <EXPORT ORDINAL="2624" NAME="?insert@QByteArray@@QAEAAV1@HABVQString@@@Z" PURGE="8" COMMENT="" />
    <EXPORT ORDINAL="2625" NAME="?insert@QByteArray@@QAEAAV1@HD@Z" PURGE="8" COMMENT="" />
    <EXPORT ORDINAL="2626" NAME="?insert@QByteArray@@QAEAAV1@HPBD@Z" PURGE="8" COMMENT="" />
    <EXPORT ORDINAL="2627" NAME="?insert@QByteArray@@QAEAAV1@HPBDH@Z" PURGE="12" COMMENT="" />
    <EXPORT ORDINAL="2628" NAME="?insert@QListData@@QAEPAPAXH@Z" PURGE="4" COMMENT="" />
    <EXPORT ORDINAL="2629" NAME="?insert@QProcessEnvironment@@QAEXABV1@@Z" PURGE="4" COMMENT="" />
    <EXPORT ORDINAL="2630" NAME="?insert@QProcessEnvironment@@QAEXABVQString@@0@Z" PURGE="8" COMMENT="" />
    <EXPORT ORDINAL="2631" NAME="?insert@QString@@QAEAAV1@HABV1@@Z" PURGE="8" COMMENT="" />
    <EXPORT ORDINAL="2632" NAME="?insert@QString@@QAEAAV1@HABVQLatin1String@@@Z" PURGE="8" COMMENT="" />
    <EXPORT ORDINAL="2633" NAME="?insert@QString@@QAEAAV1@HPBVQChar@@H@Z" PURGE="12" COMMENT="" />
    <EXPORT ORDINAL="2634" NAME="?insert@QString@@QAEAAV1@HVQChar@@@Z" PURGE="8" COMMENT="" />
    <EXPORT ORDINAL="2635" NAME="?insertAnimation@QAnimationGroup@@QAEXHPAVQAbstractAnimation@@@Z" PURGE="8" COMMENT="" />
    <EXPORT ORDINAL="2636" NAME="?insertChild@QObject@@QAEXPAV1@@Z" PURGE="4" COMMENT="" />
    <EXPORT ORDINAL="2637" NAME="?insertColumn@QAbstractItemModel@@QAE_NHABVQModelIndex@@@Z" PURGE="8" COMMENT="" />
    <EXPORT ORDINAL="2638" NAME="?insertColumns@QAbstractItemModel@@UAE_NHHABVQModelIndex@@@Z" PURGE="12" COMMENT="" />
    <EXPORT ORDINAL="2639" NAME="?insertPause@QSequentialAnimationGroup@@QAEPAVQPauseAnimation@@HH@Z" PURGE="8" COMMENT="" />
    <EXPORT ORDINAL="2640" NAME="?insertResultItem@ResultStoreBase@QtConcurrent@@IAEHHAAVResultItem@2@@Z" PURGE="8" COMMENT="" />
    <EXPORT ORDINAL="2641" NAME="?insertResultItemIfValid@ResultStoreBase@QtConcurrent@@IAEXHAAVResultItem@2@@Z" PURGE="8" COMMENT="" />
    <EXPORT ORDINAL="2642" NAME="?insertRow@QAbstractItemModel@@QAE_NHABVQModelIndex@@@Z" PURGE="8" COMMENT="" />
    <EXPORT ORDINAL="2643" NAME="?insertRows@QAbstractItemModel@@UAE_NHHABVQModelIndex@@@Z" PURGE="12" COMMENT="" />
    <EXPORT ORDINAL="2644" NAME="?insertSearchPath@QSettings@@QAEXW4System@1@ABVQString@@@Z" PURGE="8" COMMENT="" />
    <EXPORT ORDINAL="2645" NAME="?inserted@QChildEvent@@QBE_NXZ" PURGE="0" COMMENT="" />
    <EXPORT ORDINAL="2646" NAME="?install@QAnimationDriver@@QAEXXZ" PURGE="0" COMMENT="" />
    <EXPORT ORDINAL="2647" NAME="?installAnimationDriver@QUnifiedTimer@@QAEXPAVQAnimationDriver@@@Z" PURGE="4" COMMENT="" />
    <EXPORT ORDINAL="2648" NAME="?installEventFilter@QObject@@QAEXPAV1@@Z" PURGE="4" COMMENT="" />
    <EXPORT ORDINAL="2649" NAME="?installTranslator@QCoreApplication@@SAXPAVQTranslator@@@Z" PURGE="0" COMMENT="" />
    <EXPORT ORDINAL="2650" NAME="?instance@QAbstractEventDispatcher@@SAPAV1@PAVQThread@@@Z" PURGE="0" COMMENT="" />
    <EXPORT ORDINAL="2651" NAME="?instance@QCoreApplication@@SAPAV1@XZ" PURGE="0" COMMENT="" />
    <EXPORT ORDINAL="2652" NAME="?instance@QFactoryLoader@@QBEPAVQObject@@ABVQString@@@Z" PURGE="4" COMMENT="" />
    <EXPORT ORDINAL="2653" NAME="?instance@QMutexPool@@SAPAV1@XZ" PURGE="0" COMMENT="" />
    <EXPORT ORDINAL="2654" NAME="?instance@QPluginLoader@@QAEPAVQObject@@XZ" PURGE="0" COMMENT="" />
    <EXPORT ORDINAL="2655" NAME="?instance@QUnifiedTimer@@SAPAV1@XZ" PURGE="0" COMMENT="" />
    <EXPORT ORDINAL="2656" NAME="?instance@QUnifiedTimer@@SAPAV1@_N@Z" PURGE="0" COMMENT="" />
    <EXPORT ORDINAL="2657" NAME="?integerBase@QTextStream@@QBEHXZ" PURGE="0" COMMENT="" />
    <EXPORT ORDINAL="2658" NAME="?internalId@QModelIndex@@QBE_JXZ" PURGE="0" COMMENT="" />
    <EXPORT ORDINAL="2659" NAME="?internalId@QPersistentModelIndex@@QBE_JXZ" PURGE="0" COMMENT="" />
    <EXPORT ORDINAL="2660" NAME="?internalPointer@QModelIndex@@QBEPAXXZ" PURGE="0" COMMENT="" />
    <EXPORT ORDINAL="2661" NAME="?internalPointer@QPersistentModelIndex@@QBEPAXXZ" PURGE="0" COMMENT="" />
    <EXPORT ORDINAL="2662" NAME="?internalSafetyCheckAdd2@QtSharedPointer@@YAXPBXPDX@Z" PURGE="0" COMMENT="" />
    <EXPORT ORDINAL="2663" NAME="?internalSafetyCheckAdd@QtSharedPointer@@YAXPDX@Z" PURGE="0" COMMENT="" />
    <EXPORT ORDINAL="2664" NAME="?internalSafetyCheckRemove2@QtSharedPointer@@YAXPBX@Z" PURGE="0" COMMENT="" />
    <EXPORT ORDINAL="2665" NAME="?internalSafetyCheckRemove@QtSharedPointer@@YAXPDX@Z" PURGE="0" COMMENT="" />
    <EXPORT ORDINAL="2666" NAME="?interpolated@QVariantAnimation@@MBE?AVQVariant@@ABV2@0N@Z" PURGE="20" COMMENT="" />
    <EXPORT ORDINAL="2667" NAME="?interrupt@QEventDispatcherWin32@@UAEXXZ" PURGE="-1" COMMENT="" />
    <EXPORT ORDINAL="2668" NAME="?intersect@QLineF@@QBE?AW4IntersectType@1@ABV1@PAVQPointF@@@Z" PURGE="8" COMMENT="" />
    <EXPORT ORDINAL="2669" NAME="?intersect@QRect@@QBE?AV1@ABV1@@Z" PURGE="8" COMMENT="" />
    <EXPORT ORDINAL="2670" NAME="?intersect@QRectF@@QBE?AV1@ABV1@@Z" PURGE="8" COMMENT="" />
    <EXPORT ORDINAL="2671" NAME="?intersected@QRect@@QBE?AV1@ABV1@@Z" PURGE="8" COMMENT="" />
    <EXPORT ORDINAL="2672" NAME="?intersected@QRectF@@QBE?AV1@ABV1@@Z" PURGE="8" COMMENT="" />
    <EXPORT ORDINAL="2673" NAME="?intersects@QRect@@QBE_NABV1@@Z" PURGE="4" COMMENT="" />
    <EXPORT ORDINAL="2674" NAME="?intersects@QRectF@@QBE_NABV1@@Z" PURGE="4" COMMENT="" />
    <EXPORT ORDINAL="2675" NAME="?interval@QTimer@@QBEHXZ" PURGE="0" COMMENT="" />
    <EXPORT ORDINAL="2676" NAME="?invalidate@QElapsedTimer@@QAEXXZ" PURGE="0" COMMENT="" />
    <EXPORT ORDINAL="2677" NAME="?invalidatePersistentIndex@QAbstractItemModelPrivate@@QAEXABVQModelIndex@@@Z" PURGE="4" COMMENT="" />
    <EXPORT ORDINAL="2678" NAME="?invalidatePersistentIndexes@QAbstractItemModelPrivate@@QAEXXZ" PURGE="0" COMMENT="" />
    <EXPORT ORDINAL="2679" NAME="?invoke@QMetaMethod@@QBE_NPAVQObject@@VQGenericArgument@@111111111@Z" PURGE="84" COMMENT="" />
    <EXPORT ORDINAL="2680" NAME="?invoke@QMetaMethod@@QBE_NPAVQObject@@VQGenericReturnArgument@@VQGenericArgument@@222222222@Z" PURGE="92" COMMENT="" />
    <EXPORT ORDINAL="2681" NAME="?invoke@QMetaMethod@@QBE_NPAVQObject@@W4ConnectionType@Qt@@VQGenericArgument@@222222222@Z" PURGE="88" COMMENT="" />
    <EXPORT ORDINAL="2682" NAME="?invoke@QMetaMethod@@QBE_NPAVQObject@@W4ConnectionType@Qt@@VQGenericReturnArgument@@VQGenericArgument@@333333333@Z" PURGE="96" COMMENT="" />
    <EXPORT ORDINAL="2683" NAME="?invokeMethod@QMetaObject@@SA_NPAVQObject@@PBDVQGenericArgument@@222222222@Z" PURGE="0" COMMENT="" />
    <EXPORT ORDINAL="2684" NAME="?invokeMethod@QMetaObject@@SA_NPAVQObject@@PBDVQGenericReturnArgument@@VQGenericArgument@@333333333@Z" PURGE="0" COMMENT="" />
    <EXPORT ORDINAL="2685" NAME="?invokeMethod@QMetaObject@@SA_NPAVQObject@@PBDW4ConnectionType@Qt@@VQGenericArgument@@333333333@Z" PURGE="0" COMMENT="" />
    <EXPORT ORDINAL="2686" NAME="?invokeMethod@QMetaObject@@SA_NPAVQObject@@PBDW4ConnectionType@Qt@@VQGenericReturnArgument@@VQGenericArgument@@444444444@Z" PURGE="0" COMMENT="" />
    <EXPORT ORDINAL="2687" NAME="?isA@QObject@@QBE_NPBD@Z" PURGE="4" COMMENT="" />
    <EXPORT ORDINAL="2688" NAME="?isAbsolute@QDir@@QBE_NXZ" PURGE="0" COMMENT="" />
    <EXPORT ORDINAL="2689" NAME="?isAbsolute@QFileInfo@@QBE_NXZ" PURGE="0" COMMENT="" />
    <EXPORT ORDINAL="2690" NAME="?isAbsolutePath@QDir@@SA_NABVQString@@@Z" PURGE="0" COMMENT="" />
    <EXPORT ORDINAL="2691" NAME="?isAccepted@QEvent@@QBE_NXZ" PURGE="0" COMMENT="" />
    <EXPORT ORDINAL="2692" NAME="?isActive@QBasicTimer@@QBE_NXZ" PURGE="0" COMMENT="" />
    <EXPORT ORDINAL="2693" NAME="?isActive@QTimer@@QBE_NXZ" PURGE="0" COMMENT="" />
    <EXPORT ORDINAL="2694" NAME="?isAnimated@QStateMachine@@QBE_NXZ" PURGE="0" COMMENT="" />
    <EXPORT ORDINAL="2695" NAME="?isAsynchronous@QIODevice@@QBE_NXZ" PURGE="0" COMMENT="" />
    <EXPORT ORDINAL="2696" NAME="?isAtBoundary@QTextBoundaryFinder@@QBE_NXZ" PURGE="0" COMMENT="" />
    <EXPORT ORDINAL="2697" NAME="?isAtomic@QStateMachinePrivate@@QBE_NPBVQAbstractState@@@Z" PURGE="4" COMMENT="" />
    <EXPORT ORDINAL="2698" NAME="?isAttached@QSharedMemory@@QBE_NXZ" PURGE="0" COMMENT="" />
    <EXPORT ORDINAL="2699" NAME="?isBaseChar@QXmlUtils@@CA_NVQChar@@@Z" PURGE="0" COMMENT="" />
    <EXPORT ORDINAL="2700" NAME="?isBuffered@QIODevice@@QBE_NXZ" PURGE="0" COMMENT="" />
    <EXPORT ORDINAL="2701" NAME="?isBundle@QFileInfo@@QBE_NXZ" PURGE="0" COMMENT="" />
    <EXPORT ORDINAL="2702" NAME="?isCDATA@QXmlStreamReader@@QBE_NXZ" PURGE="0" COMMENT="" />
    <EXPORT ORDINAL="2703" NAME="?isCanceled@QFutureInterfaceBase@@QBE_NXZ" PURGE="0" COMMENT="" />
    <EXPORT ORDINAL="2704" NAME="?isCanceled@QFutureWatcherBase@@QBE_NXZ" PURGE="0" COMMENT="" />
    <EXPORT ORDINAL="2705" NAME="?isCanceled@ThreadEngineBase@QtConcurrent@@QAE_NXZ" PURGE="0" COMMENT="" />
    <EXPORT ORDINAL="2706" NAME="?isChar@QXmlUtils@@SA_NVQChar@@@Z" PURGE="0" COMMENT="" />
    <EXPORT ORDINAL="2707" NAME="?isCharacters@QXmlStreamReader@@QBE_NXZ" PURGE="0" COMMENT="" />
    <EXPORT ORDINAL="2708" NAME="?isCombinedAccess@QIODevice@@QBE_NXZ" PURGE="0" COMMENT="" />
    <EXPORT ORDINAL="2709" NAME="?isCombiningChar@QXmlUtils@@CA_NVQChar@@@Z" PURGE="0" COMMENT="" />
    <EXPORT ORDINAL="2710" NAME="?isComment@QXmlStreamReader@@QBE_NXZ" PURGE="0" COMMENT="" />
    <EXPORT ORDINAL="2711" NAME="?isCompound@QStateMachinePrivate@@QBE_NPBVQAbstractState@@@Z" PURGE="4" COMMENT="" />
    <EXPORT ORDINAL="2712" NAME="?isCompressed@QResource@@QBE_NXZ" PURGE="0" COMMENT="" />
    <EXPORT ORDINAL="2713" NAME="?isConstant@QMetaProperty@@QBE_NXZ" PURGE="0" COMMENT="" />
    <EXPORT ORDINAL="2714" NAME="?isDTD@QXmlStreamReader@@QBE_NXZ" PURGE="0" COMMENT="" />
    <EXPORT ORDINAL="2715" NAME="?isDefault@QXmlStreamAttribute@@QBE_NXZ" PURGE="0" COMMENT="" />
    <EXPORT ORDINAL="2716" NAME="?isDescendantOf@QStateMachinePrivate@@SA_NPBVQAbstractState@@0@Z" PURGE="0" COMMENT="" />
    <EXPORT ORDINAL="2717" NAME="?isDesignable@QMetaProperty@@QBE_NPBVQObject@@@Z" PURGE="4" COMMENT="" />
    <EXPORT ORDINAL="2718" NAME="?isDetached@?$QVector@VQPoint@@@@QBE_NXZ" PURGE="0" COMMENT="" />
    <EXPORT ORDINAL="2719" NAME="?isDetached@?$QVector@VQPointF@@@@QBE_NXZ" PURGE="0" COMMENT="" />
    <EXPORT ORDINAL="2720" NAME="?isDetached@?$QVector@VQXmlStreamAttribute@@@@QBE_NXZ" PURGE="0" COMMENT="" />
    <EXPORT ORDINAL="2721" NAME="?isDetached@QBitArray@@QBE_NXZ" PURGE="0" COMMENT="" />
    <EXPORT ORDINAL="2722" NAME="?isDetached@QByteArray@@QBE_NXZ" PURGE="0" COMMENT="" />
    <EXPORT ORDINAL="2723" NAME="?isDetached@QString@@QBE_NXZ" PURGE="0" COMMENT="" />
    <EXPORT ORDINAL="2724" NAME="?isDetached@QUrl@@QBE_NXZ" PURGE="0" COMMENT="" />
    <EXPORT ORDINAL="2725" NAME="?isDetached@QVariant@@QBE_NXZ" PURGE="0" COMMENT="" />
    <EXPORT ORDINAL="2726" NAME="?isDigit@QChar@@QBE_NXZ" PURGE="0" COMMENT="" />
    <EXPORT ORDINAL="2727" NAME="?isDigit@QCharRef@@QBE_NXZ" PURGE="0" COMMENT="" />
    <EXPORT ORDINAL="2728" NAME="?isDigit@QXmlUtils@@CA_NVQChar@@@Z" PURGE="0" COMMENT="" />
    <EXPORT ORDINAL="2729" NAME="?isDir@QFileInfo@@QBE_NXZ" PURGE="0" COMMENT="" />
    <EXPORT ORDINAL="2730" NAME="?isDir@QResource@@IBE_NXZ" PURGE="0" COMMENT="" />
    <EXPORT ORDINAL="2731" NAME="?isDirectAccess@QIODevice@@QBE_NXZ" PURGE="0" COMMENT="" />
    <EXPORT ORDINAL="2732" NAME="?isEditable@QMetaProperty@@QBE_NPBVQObject@@@Z" PURGE="4" COMMENT="" />
    <EXPORT ORDINAL="2733" NAME="?isEmpty@?$QVector@VQPoint@@@@QBE_NXZ" PURGE="0" COMMENT="" />
    <EXPORT ORDINAL="2734" NAME="?isEmpty@?$QVector@VQPointF@@@@QBE_NXZ" PURGE="0" COMMENT="" />
    <EXPORT ORDINAL="2735" NAME="?isEmpty@?$QVector@VQXmlStreamAttribute@@@@QBE_NXZ" PURGE="0" COMMENT="" />
    <EXPORT ORDINAL="2736" NAME="?isEmpty@QBitArray@@QBE_NXZ" PURGE="0" COMMENT="" />
    <EXPORT ORDINAL="2737" NAME="?isEmpty@QByteArray@@QBE_NXZ" PURGE="0" COMMENT="" />
    <EXPORT ORDINAL="2738" NAME="?isEmpty@QListData@@QBE_NXZ" PURGE="0" COMMENT="" />
    <EXPORT ORDINAL="2739" NAME="?isEmpty@QObjectCleanupHandler@@QBE_NXZ" PURGE="0" COMMENT="" />
    <EXPORT ORDINAL="2740" NAME="?isEmpty@QProcessEnvironment@@QBE_NXZ" PURGE="0" COMMENT="" />
    <EXPORT ORDINAL="2741" NAME="?isEmpty@QRect@@QBE_NXZ" PURGE="0" COMMENT="" />
    <EXPORT ORDINAL="2742" NAME="?isEmpty@QRectF@@QBE_NXZ" PURGE="0" COMMENT="" />
    <EXPORT ORDINAL="2743" NAME="?isEmpty@QRegExp@@QBE_NXZ" PURGE="0" COMMENT="" />
    <EXPORT ORDINAL="2744" NAME="?isEmpty@QSize@@QBE_NXZ" PURGE="0" COMMENT="" />
    <EXPORT ORDINAL="2745" NAME="?isEmpty@QSizeF@@QBE_NXZ" PURGE="0" COMMENT="" />
    <EXPORT ORDINAL="2746" NAME="?isEmpty@QString@@QBE_NXZ" PURGE="0" COMMENT="" />
    <EXPORT ORDINAL="2747" NAME="?isEmpty@QStringRef@@QBE_NXZ" PURGE="0" COMMENT="" />
    <EXPORT ORDINAL="2748" NAME="?isEmpty@QTranslator@@UBE_NXZ" PURGE="0" COMMENT="" />
    <EXPORT ORDINAL="2749" NAME="?isEmpty@QUrl@@QBE_NXZ" PURGE="0" COMMENT="" />
    <EXPORT ORDINAL="2750" NAME="?isEnabled@QSocketNotifier@@QBE_NXZ" PURGE="0" COMMENT="" />
    <EXPORT ORDINAL="2751" NAME="?isEnabled@QWinEventNotifier@@QBE_NXZ" PURGE="0" COMMENT="" />
    <EXPORT ORDINAL="2752" NAME="?isEncName@QXmlUtils@@SA_NABVQString@@@Z" PURGE="0" COMMENT="" />
    <EXPORT ORDINAL="2753" NAME="?isEndDocument@QXmlStreamReader@@QBE_NXZ" PURGE="0" COMMENT="" />
    <EXPORT ORDINAL="2754" NAME="?isEndElement@QXmlStreamReader@@QBE_NXZ" PURGE="0" COMMENT="" />
    <EXPORT ORDINAL="2755" NAME="?isEntityReference@QXmlStreamReader@@QBE_NXZ" PURGE="0" COMMENT="" />
    <EXPORT ORDINAL="2756" NAME="?isEnumType@QMetaProperty@@QBE_NXZ" PURGE="0" COMMENT="" />
    <EXPORT ORDINAL="2757" NAME="?isExecutable@QFileInfo@@QBE_NXZ" PURGE="0" COMMENT="" />
    <EXPORT ORDINAL="2758" NAME="?isExtender@QXmlUtils@@CA_NVQChar@@@Z" PURGE="0" COMMENT="" />
    <EXPORT ORDINAL="2759" NAME="?isExternalEventQueueEmpty@QStateMachinePrivate@@QAE_NXZ" PURGE="0" COMMENT="" />
    <EXPORT ORDINAL="2760" NAME="?isFetchAndAddNative@QBasicAtomicInt@@SA_NXZ" PURGE="0" COMMENT="" />
    <EXPORT ORDINAL="2761" NAME="?isFetchAndAddWaitFree@QBasicAtomicInt@@SA_NXZ" PURGE="0" COMMENT="" />
    <EXPORT ORDINAL="2762" NAME="?isFetchAndStoreNative@QBasicAtomicInt@@SA_NXZ" PURGE="0" COMMENT="" />
    <EXPORT ORDINAL="2763" NAME="?isFetchAndStoreWaitFree@QBasicAtomicInt@@SA_NXZ" PURGE="0" COMMENT="" />
    <EXPORT ORDINAL="2764" NAME="?isFile@QFileInfo@@QBE_NXZ" PURGE="0" COMMENT="" />
    <EXPORT ORDINAL="2765" NAME="?isFile@QResource@@IBE_NXZ" PURGE="0" COMMENT="" />
    <EXPORT ORDINAL="2766" NAME="?isFinal@QMetaProperty@@QBE_NXZ" PURGE="0" COMMENT="" />
    <EXPORT ORDINAL="2767" NAME="?isFinal@QStateMachinePrivate@@SA_NPBVQAbstractState@@@Z" PURGE="0" COMMENT="" />
    <EXPORT ORDINAL="2768" NAME="?isFinished@QFutureInterfaceBase@@QBE_NXZ" PURGE="0" COMMENT="" />
    <EXPORT ORDINAL="2769" NAME="?isFinished@QFutureWatcherBase@@QBE_NXZ" PURGE="0" COMMENT="" />
    <EXPORT ORDINAL="2770" NAME="?isFinished@QThread@@QBE_NXZ" PURGE="0" COMMENT="" />
    <EXPORT ORDINAL="2771" NAME="?isFlag@QMetaEnum@@QBE_NXZ" PURGE="0" COMMENT="" />
    <EXPORT ORDINAL="2772" NAME="?isFlagType@QMetaProperty@@QBE_NXZ" PURGE="0" COMMENT="" />
    <EXPORT ORDINAL="2773" NAME="?isHidden@QFileInfo@@QBE_NXZ" PURGE="0" COMMENT="" />
    <EXPORT ORDINAL="2774" NAME="?isHighSurrogate@QChar@@QBE_NXZ" PURGE="0" COMMENT="" />
    <EXPORT ORDINAL="2775" NAME="?isHighSurrogate@QChar@@SA_NI@Z" PURGE="0" COMMENT="" />
    <EXPORT ORDINAL="2776" NAME="?isIdeographic@QXmlUtils@@CA_NVQChar@@@Z" PURGE="0" COMMENT="" />
    <EXPORT ORDINAL="2777" NAME="?isInFinalState@QStateMachinePrivate@@QBE_NPAVQAbstractState@@@Z" PURGE="4" COMMENT="" />
    <EXPORT ORDINAL="2778" NAME="?isInactive@QIODevice@@QBE_NXZ" PURGE="0" COMMENT="" />
    <EXPORT ORDINAL="2779" NAME="?isInternalEventQueueEmpty@QStateMachinePrivate@@QAE_NXZ" PURGE="0" COMMENT="" />
    <EXPORT ORDINAL="2780" NAME="?isLeapYear@QDate@@SA_NH@Z" PURGE="0" COMMENT="" />
    <EXPORT ORDINAL="2781" NAME="?isLetter@QChar@@QBE_NXZ" PURGE="0" COMMENT="" />
    <EXPORT ORDINAL="2782" NAME="?isLetter@QCharRef@@QBE_NXZ" PURGE="0" COMMENT="" />
    <EXPORT ORDINAL="2783" NAME="?isLetter@QXmlUtils@@SA_NVQChar@@@Z" PURGE="0" COMMENT="" />
    <EXPORT ORDINAL="2784" NAME="?isLetterOrNumber@QChar@@QBE_NXZ" PURGE="0" COMMENT="" />
    <EXPORT ORDINAL="2785" NAME="?isLetterOrNumber@QCharRef@@QAE_NXZ" PURGE="0" COMMENT="" />
    <EXPORT ORDINAL="2786" NAME="?isLibrary@QLibrary@@SA_NABVQString@@@Z" PURGE="0" COMMENT="" />
    <EXPORT ORDINAL="2787" NAME="?isLoaded@QLibrary@@QBE_NXZ" PURGE="0" COMMENT="" />
    <EXPORT ORDINAL="2788" NAME="?isLoaded@QPluginLoader@@QBE_NXZ" PURGE="0" COMMENT="" />
    <EXPORT ORDINAL="2789" NAME="?isLocalFile@QUrl@@QBE_NXZ" PURGE="0" COMMENT="" />
    <EXPORT ORDINAL="2790" NAME="?isLowSurrogate@QChar@@QBE_NXZ" PURGE="0" COMMENT="" />
    <EXPORT ORDINAL="2791" NAME="?isLowSurrogate@QChar@@SA_NI@Z" PURGE="0" COMMENT="" />
    <EXPORT ORDINAL="2792" NAME="?isLower@QChar@@QBE_NXZ" PURGE="0" COMMENT="" />
    <EXPORT ORDINAL="2793" NAME="?isLower@QCharRef@@QBE_NXZ" PURGE="0" COMMENT="" />
    <EXPORT ORDINAL="2794" NAME="?isMark@QChar@@QBE_NXZ" PURGE="0" COMMENT="" />
    <EXPORT ORDINAL="2795" NAME="?isMark@QCharRef@@QBE_NXZ" PURGE="0" COMMENT="" />
    <EXPORT ORDINAL="2796" NAME="?isMinimal@QRegExp@@QBE_NXZ" PURGE="0" COMMENT="" />
    <EXPORT ORDINAL="2797" NAME="?isMonotonic@QElapsedTimer@@SA_NXZ" PURGE="0" COMMENT="" />
    <EXPORT ORDINAL="2798" NAME="?isNCName@QXmlUtils@@SA_NABVQString@@@Z" PURGE="0" COMMENT="" />
    <EXPORT ORDINAL="2799" NAME="?isNCName@QXmlUtils@@SA_NABVQStringRef@@@Z" PURGE="0" COMMENT="" />
    <EXPORT ORDINAL="2800" NAME="?isNameChar@QXmlUtils@@SA_NVQChar@@@Z" PURGE="0" COMMENT="" />
    <EXPORT ORDINAL="2801" NAME="?isNull@QBitArray@@QBE_NXZ" PURGE="0" COMMENT="" />
    <EXPORT ORDINAL="2802" NAME="?isNull@QByteArray@@QBE_NXZ" PURGE="0" COMMENT="" />
    <EXPORT ORDINAL="2803" NAME="?isNull@QChar@@QBE_NXZ" PURGE="0" COMMENT="" />
    <EXPORT ORDINAL="2804" NAME="?isNull@QCharRef@@QBE_NXZ" PURGE="0" COMMENT="" />
    <EXPORT ORDINAL="2805" NAME="?isNull@QDate@@QBE_NXZ" PURGE="0" COMMENT="" />
    <EXPORT ORDINAL="2806" NAME="?isNull@QDateTime@@QBE_NXZ" PURGE="0" COMMENT="" />
    <EXPORT ORDINAL="2807" NAME="?isNull@QLine@@QBE_NXZ" PURGE="0" COMMENT="" />
    <EXPORT ORDINAL="2808" NAME="?isNull@QLineF@@QBE_NXZ" PURGE="0" COMMENT="" />
    <EXPORT ORDINAL="2809" NAME="?isNull@QPoint@@QBE_NXZ" PURGE="0" COMMENT="" />
    <EXPORT ORDINAL="2810" NAME="?isNull@QPointF@@QBE_NXZ" PURGE="0" COMMENT="" />
    <EXPORT ORDINAL="2811" NAME="?isNull@QRect@@QBE_NXZ" PURGE="0" COMMENT="" />
    <EXPORT ORDINAL="2812" NAME="?isNull@QRectF@@QBE_NXZ" PURGE="0" COMMENT="" />
    <EXPORT ORDINAL="2813" NAME="?isNull@QSize@@QBE_NXZ" PURGE="0" COMMENT="" />
    <EXPORT ORDINAL="2814" NAME="?isNull@QSizeF@@QBE_NXZ" PURGE="0" COMMENT="" />
    <EXPORT ORDINAL="2815" NAME="?isNull@QString@@QBE_NXZ" PURGE="0" COMMENT="" />
    <EXPORT ORDINAL="2816" NAME="?isNull@QStringRef@@QBE_NXZ" PURGE="0" COMMENT="" />
    <EXPORT ORDINAL="2817" NAME="?isNull@QTime@@QBE_NXZ" PURGE="0" COMMENT="" />
    <EXPORT ORDINAL="2818" NAME="?isNull@QUuid@@QBE_NXZ" PURGE="0" COMMENT="" />
    <EXPORT ORDINAL="2819" NAME="?isNull@QVariant@@QBE_NXZ" PURGE="0" COMMENT="" />
    <EXPORT ORDINAL="2820" NAME="?isNumber@QChar@@QBE_NXZ" PURGE="0" COMMENT="" />
    <EXPORT ORDINAL="2821" NAME="?isNumber@QCharRef@@QBE_NXZ" PURGE="0" COMMENT="" />
    <EXPORT ORDINAL="2822" NAME="?isOpen@QIODevice@@QBE_NXZ" PURGE="0" COMMENT="" />
    <EXPORT ORDINAL="2823" NAME="?isParallel@QStateMachinePrivate@@SA_NPBVQAbstractState@@@Z" PURGE="0" COMMENT="" />
    <EXPORT ORDINAL="2824" NAME="?isParentOf@QUrl@@QBE_NABV1@@Z" PURGE="4" COMMENT="" />
    <EXPORT ORDINAL="2825" NAME="?isPaused@QFutureInterfaceBase@@QBE_NXZ" PURGE="0" COMMENT="" />
    <EXPORT ORDINAL="2826" NAME="?isPaused@QFutureWatcherBase@@QBE_NXZ" PURGE="0" COMMENT="" />
    <EXPORT ORDINAL="2827" NAME="?isPreempted@QStateMachinePrivate@@QBE_NPBVQAbstractState@@ABV?$QSet@PAVQAbstractTransition@@@@@Z" PURGE="8" COMMENT="" />
    <EXPORT ORDINAL="2828" NAME="?isPrint@QChar@@QBE_NXZ" PURGE="0" COMMENT="" />
    <EXPORT ORDINAL="2829" NAME="?isPrint@QCharRef@@QBE_NXZ" PURGE="0" COMMENT="" />
    <EXPORT ORDINAL="2830" NAME="?isPrintableData@QDataStream@@QBE_NXZ" PURGE="0" COMMENT="" />
    <EXPORT ORDINAL="2831" NAME="?isProcessingInstruction@QXmlStreamReader@@QBE_NXZ" PURGE="0" COMMENT="" />
    <EXPORT ORDINAL="2832" NAME="?isProgressReportingEnabled@ThreadEngineBase@QtConcurrent@@QAE_NXZ" PURGE="0" COMMENT="" />
    <EXPORT ORDINAL="2833" NAME="?isProgressUpdateNeeded@QFutureInterfaceBase@@QBE_NXZ" PURGE="0" COMMENT="" />
    <EXPORT ORDINAL="2834" NAME="?isPublicID@QXmlUtils@@SA_NABVQString@@@Z" PURGE="0" COMMENT="" />
    <EXPORT ORDINAL="2835" NAME="?isPunct@QChar@@QBE_NXZ" PURGE="0" COMMENT="" />
    <EXPORT ORDINAL="2836" NAME="?isPunct@QCharRef@@QBE_NXZ" PURGE="0" COMMENT="" />
    <EXPORT ORDINAL="2837" NAME="?isRaw@QIODevice@@QBE_NXZ" PURGE="0" COMMENT="" />
    <EXPORT ORDINAL="2838" NAME="?isReadable@QDir@@QBE_NXZ" PURGE="0" COMMENT="" />
    <EXPORT ORDINAL="2839" NAME="?isReadable@QFileInfo@@QBE_NXZ" PURGE="0" COMMENT="" />
    <EXPORT ORDINAL="2840" NAME="?isReadable@QIODevice@@QBE_NXZ" PURGE="0" COMMENT="" />
    <EXPORT ORDINAL="2841" NAME="?isReadable@QMetaProperty@@QBE_NXZ" PURGE="0" COMMENT="" />
    <EXPORT ORDINAL="2842" NAME="?isReferenceCountingNative@QBasicAtomicInt@@SA_NXZ" PURGE="0" COMMENT="" />
    <EXPORT ORDINAL="2843" NAME="?isReferenceCountingWaitFree@QBasicAtomicInt@@SA_NXZ" PURGE="0" COMMENT="" />
    <EXPORT ORDINAL="2844" NAME="?isRegistered@QMetaType@@SA_NH@Z" PURGE="0" COMMENT="" />
    <EXPORT ORDINAL="2845" NAME="?isRelative@QDir@@QBE_NXZ" PURGE="0" COMMENT="" />
    <EXPORT ORDINAL="2846" NAME="?isRelative@QFileInfo@@QBE_NXZ" PURGE="0" COMMENT="" />
    <EXPORT ORDINAL="2847" NAME="?isRelative@QUrl@@QBE_NXZ" PURGE="0" COMMENT="" />
    <EXPORT ORDINAL="2848" NAME="?isRelativePath@QAbstractFileEngine@@UBE_NXZ" PURGE="0" COMMENT="" />
    <EXPORT ORDINAL="2849" NAME="?isRelativePath@QDir@@SA_NABVQString@@@Z" PURGE="0" COMMENT="" />
    <EXPORT ORDINAL="2850" NAME="?isRelativePath@QFSFileEngine@@UBE_NXZ" PURGE="0" COMMENT="" />
    <EXPORT ORDINAL="2851" NAME="?isRelativeUrl@QUrl@@SA_NABVQString@@@Z" PURGE="0" COMMENT="" />
    <EXPORT ORDINAL="2852" NAME="?isResetDisabled@QNonContiguousByteDevice@@QAE_NXZ" PURGE="0" COMMENT="" />
    <EXPORT ORDINAL="2853" NAME="?isResettable@QMetaProperty@@QBE_NXZ" PURGE="0" COMMENT="" />
    <EXPORT ORDINAL="2854" NAME="?isResultReadyAt@QFutureInterfaceBase@@QBE_NH@Z" PURGE="4" COMMENT="" />
    <EXPORT ORDINAL="2855" NAME="?isRightToLeft@QString@@QBE_NXZ" PURGE="0" COMMENT="" />
    <EXPORT ORDINAL="2856" NAME="?isRoot@QDir@@QBE_NXZ" PURGE="0" COMMENT="" />
    <EXPORT ORDINAL="2857" NAME="?isRoot@QFileInfo@@QBE_NXZ" PURGE="0" COMMENT="" />
    <EXPORT ORDINAL="2858" NAME="?isRunning@QAnimationDriver@@QBE_NXZ" PURGE="0" COMMENT="" />
    <EXPORT ORDINAL="2859" NAME="?isRunning@QEventLoop@@QBE_NXZ" PURGE="0" COMMENT="" />
    <EXPORT ORDINAL="2860" NAME="?isRunning@QFutureInterfaceBase@@QBE_NXZ" PURGE="0" COMMENT="" />
    <EXPORT ORDINAL="2861" NAME="?isRunning@QFutureWatcherBase@@QBE_NXZ" PURGE="0" COMMENT="" />
    <EXPORT ORDINAL="2862" NAME="?isRunning@QStateMachine@@QBE_NXZ" PURGE="0" COMMENT="" />
    <EXPORT ORDINAL="2863" NAME="?isRunning@QThread@@QBE_NXZ" PURGE="0" COMMENT="" />
    <EXPORT ORDINAL="2864" NAME="?isScriptable@QMetaProperty@@QBE_NPBVQObject@@@Z" PURGE="4" COMMENT="" />
    <EXPORT ORDINAL="2865" NAME="?isSender@QObjectPrivate@@QBE_NPBVQObject@@PBD@Z" PURGE="8" COMMENT="" />
    <EXPORT ORDINAL="2866" NAME="?isSequential@QAbstractFileEngine@@UBE_NXZ" PURGE="0" COMMENT="" />
    <EXPORT ORDINAL="2867" NAME="?isSequential@QFSFileEngine@@UBE_NXZ" PURGE="0" COMMENT="" />
    <EXPORT ORDINAL="2868" NAME="?isSequential@QFile@@UBE_NXZ" PURGE="0" COMMENT="" />
    <EXPORT ORDINAL="2869" NAME="?isSequential@QIODevice@@UBE_NXZ" PURGE="0" COMMENT="" />
    <EXPORT ORDINAL="2870" NAME="?isSequential@QIODevicePrivate@@QBE_NXZ" PURGE="0" COMMENT="" />
    <EXPORT ORDINAL="2871" NAME="?isSequential@QProcess@@UBE_NXZ" PURGE="0" COMMENT="" />
    <EXPORT ORDINAL="2872" NAME="?isSequentialAccess@QIODevice@@QBE_NXZ" PURGE="-1" COMMENT="" />
    <EXPORT ORDINAL="2873" NAME="?isSharedWith@?$QVector@VQPoint@@@@QBE_NABV1@@Z" PURGE="4" COMMENT="" />
    <EXPORT ORDINAL="2874" NAME="?isSharedWith@?$QVector@VQPointF@@@@QBE_NABV1@@Z" PURGE="4" COMMENT="" />
    <EXPORT ORDINAL="2875" NAME="?isSharedWith@?$QVector@VQXmlStreamAttribute@@@@QBE_NABV1@@Z" PURGE="4" COMMENT="" />
    <EXPORT ORDINAL="2876" NAME="?isSharedWith@QByteArray@@QBE_NABV1@@Z" PURGE="4" COMMENT="" />
    <EXPORT ORDINAL="2877" NAME="?isSharedWith@QString@@QBE_NABV1@@Z" PURGE="4" COMMENT="" />
    <EXPORT ORDINAL="2878" NAME="?isSignalConnected@QObjectPrivate@@QBE_NI@Z" PURGE="4" COMMENT="" />
    <EXPORT ORDINAL="2879" NAME="?isSimpleText@QString@@QBE_NXZ" PURGE="0" COMMENT="" />
    <EXPORT ORDINAL="2880" NAME="?isSingleShot@QTimer@@QBE_NXZ" PURGE="0" COMMENT="" />
    <EXPORT ORDINAL="2881" NAME="?isSpace@QChar@@QBE_NXZ" PURGE="0" COMMENT="" />
    <EXPORT ORDINAL="2882" NAME="?isSpace@QCharRef@@QBE_NXZ" PURGE="0" COMMENT="" />
    <EXPORT ORDINAL="2883" NAME="?isStandaloneDocument@QXmlStreamReader@@QBE_NXZ" PURGE="0" COMMENT="" />
    <EXPORT ORDINAL="2884" NAME="?isStartDocument@QXmlStreamReader@@QBE_NXZ" PURGE="0" COMMENT="" />
    <EXPORT ORDINAL="2885" NAME="?isStartElement@QXmlStreamReader@@QBE_NXZ" PURGE="0" COMMENT="" />
    <EXPORT ORDINAL="2886" NAME="?isStarted@QFutureInterfaceBase@@QBE_NXZ" PURGE="0" COMMENT="" />
    <EXPORT ORDINAL="2887" NAME="?isStarted@QFutureWatcherBase@@QBE_NXZ" PURGE="0" COMMENT="" />
    <EXPORT ORDINAL="2888" NAME="?isStored@QMetaProperty@@QBE_NPBVQObject@@@Z" PURGE="4" COMMENT="" />
    <EXPORT ORDINAL="2889" NAME="?isSymLink@QFileInfo@@QBE_NXZ" PURGE="0" COMMENT="" />
    <EXPORT ORDINAL="2890" NAME="?isSymbol@QChar@@QBE_NXZ" PURGE="0" COMMENT="" />
    <EXPORT ORDINAL="2891" NAME="?isSynchronous@QIODevice@@QBE_NXZ" PURGE="0" COMMENT="" />
    <EXPORT ORDINAL="2892" NAME="?isTestAndSetNative@QBasicAtomicInt@@SA_NXZ" PURGE="0" COMMENT="" />
    <EXPORT ORDINAL="2893" NAME="?isTestAndSetWaitFree@QBasicAtomicInt@@SA_NXZ" PURGE="0" COMMENT="" />
    <EXPORT ORDINAL="2894" NAME="?isTextModeEnabled@QIODevice@@QBE_NXZ" PURGE="0" COMMENT="" />
    <EXPORT ORDINAL="2895" NAME="?isThrottled@QFutureInterfaceBase@@QBE_NXZ" PURGE="0" COMMENT="" />
    <EXPORT ORDINAL="2896" NAME="?isTitleCase@QChar@@QBE_NXZ" PURGE="0" COMMENT="" />
    <EXPORT ORDINAL="2897" NAME="?isTitleCase@QCharRef@@QBE_NXZ" PURGE="0" COMMENT="" />
    <EXPORT ORDINAL="2898" NAME="?isTranslated@QIODevice@@QBE_NXZ" PURGE="0" COMMENT="" />
    <EXPORT ORDINAL="2899" NAME="?isTranslatorInstalled@QCoreApplicationPrivate@@SA_NPAVQTranslator@@@Z" PURGE="0" COMMENT="" />
    <EXPORT ORDINAL="2900" NAME="?isUpper@QChar@@QBE_NXZ" PURGE="0" COMMENT="" />
    <EXPORT ORDINAL="2901" NAME="?isUpper@QCharRef@@QBE_NXZ" PURGE="0" COMMENT="" />
    <EXPORT ORDINAL="2902" NAME="?isUser@QMetaProperty@@QBE_NPBVQObject@@@Z" PURGE="4" COMMENT="" />
    <EXPORT ORDINAL="2903" NAME="?isValid@QDate@@QBE_NXZ" PURGE="0" COMMENT="" />
    <EXPORT ORDINAL="2904" NAME="?isValid@QDate@@SA_NHHH@Z" PURGE="0" COMMENT="" />
    <EXPORT ORDINAL="2905" NAME="?isValid@QDateTime@@QBE_NXZ" PURGE="0" COMMENT="" />
    <EXPORT ORDINAL="2906" NAME="?isValid@QElapsedTimer@@QBE_NXZ" PURGE="0" COMMENT="" />
    <EXPORT ORDINAL="2907" NAME="?isValid@QMetaEnum@@QBE_NXZ" PURGE="0" COMMENT="" />
    <EXPORT ORDINAL="2908" NAME="?isValid@QMetaProperty@@QBE_NXZ" PURGE="0" COMMENT="" />
    <EXPORT ORDINAL="2909" NAME="?isValid@QModelIndex@@QBE_NXZ" PURGE="0" COMMENT="" />
    <EXPORT ORDINAL="2910" NAME="?isValid@QPersistentModelIndex@@QBE_NXZ" PURGE="0" COMMENT="" />
    <EXPORT ORDINAL="2911" NAME="?isValid@QRect@@QBE_NXZ" PURGE="0" COMMENT="" />
    <EXPORT ORDINAL="2912" NAME="?isValid@QRectF@@QBE_NXZ" PURGE="0" COMMENT="" />
    <EXPORT ORDINAL="2913" NAME="?isValid@QRegExp@@QBE_NXZ" PURGE="0" COMMENT="" />
    <EXPORT ORDINAL="2914" NAME="?isValid@QResource@@QBE_NXZ" PURGE="0" COMMENT="" />
    <EXPORT ORDINAL="2915" NAME="?isValid@QSize@@QBE_NXZ" PURGE="0" COMMENT="" />
    <EXPORT ORDINAL="2916" NAME="?isValid@QSizeF@@QBE_NXZ" PURGE="0" COMMENT="" />
    <EXPORT ORDINAL="2917" NAME="?isValid@QTextBoundaryFinder@@QBE_NXZ" PURGE="0" COMMENT="" />
    <EXPORT ORDINAL="2918" NAME="?isValid@QTime@@QBE_NXZ" PURGE="0" COMMENT="" />
    <EXPORT ORDINAL="2919" NAME="?isValid@QTime@@SA_NHHHH@Z" PURGE="0" COMMENT="" />
    <EXPORT ORDINAL="2920" NAME="?isValid@QUrl@@QBE_NXZ" PURGE="0" COMMENT="" />
    <EXPORT ORDINAL="2921" NAME="?isValid@QVariant@@QBE_NXZ" PURGE="0" COMMENT="" />
    <EXPORT ORDINAL="2922" NAME="?isVector@ResultIteratorBase@QtConcurrent@@QBE_NXZ" PURGE="0" COMMENT="" />
    <EXPORT ORDINAL="2923" NAME="?isWhitespace@QXmlStreamReader@@QBE_NXZ" PURGE="0" COMMENT="" />
    <EXPORT ORDINAL="2924" NAME="?isWidgetType@QObject@@QBE_NXZ" PURGE="0" COMMENT="" />
    <EXPORT ORDINAL="2925" NAME="?isWritable@QFileInfo@@QBE_NXZ" PURGE="0" COMMENT="" />
    <EXPORT ORDINAL="2926" NAME="?isWritable@QIODevice@@QBE_NXZ" PURGE="0" COMMENT="" />
    <EXPORT ORDINAL="2927" NAME="?isWritable@QMetaProperty@@QBE_NXZ" PURGE="0" COMMENT="" />
    <EXPORT ORDINAL="2928" NAME="?isWritable@QSettings@@QBE_NXZ" PURGE="-1" COMMENT="" />
    <EXPORT ORDINAL="2929" NAME="?is_app_closing@QCoreApplicationPrivate@@2_NA" PURGE="-1" COMMENT="" />
    <EXPORT ORDINAL="2930" NAME="?is_app_running@QCoreApplicationPrivate@@2_NA" PURGE="-1" COMMENT="" />
    <EXPORT ORDINAL="2931" NAME="?itemData@QAbstractItemModel@@UBE?AV?$QMap@HVQVariant@@@@ABVQModelIndex@@@Z" PURGE="8" COMMENT="" />
    <EXPORT ORDINAL="2932" NAME="?itemsAboutToBeMoved@QAbstractItemModelPrivate@@QAEXABVQModelIndex@@HH0HW4Orientation@Qt@@@Z" PURGE="24" COMMENT="" />
    <EXPORT ORDINAL="2933" NAME="?itemsMoved@QAbstractItemModelPrivate@@QAEXABVQModelIndex@@HH0HW4Orientation@Qt@@@Z" PURGE="24" COMMENT="" />
    <EXPORT ORDINAL="2934" NAME="?joining@QChar@@QBE?AW4Joining@1@XZ" PURGE="0" COMMENT="" />
    <EXPORT ORDINAL="2935" NAME="?joining@QChar@@SI?AW4Joining@1@G@Z" PURGE="0" COMMENT="" />
    <EXPORT ORDINAL="2936" NAME="?joining@QChar@@SI?AW4Joining@1@I@Z" PURGE="0" COMMENT="" />
    <EXPORT ORDINAL="2937" NAME="?joining@QCharRef@@QBE?AW4Joining@QChar@@XZ" PURGE="0" COMMENT="" />
    <EXPORT ORDINAL="2938" NAME="?julianToGregorian@QDate@@SAXIAAH00@Z" PURGE="0" COMMENT="" />
    <EXPORT ORDINAL="2939" NAME="?key@QMetaEnum@@QBEPBDH@Z" PURGE="4" COMMENT="" />
    <EXPORT ORDINAL="2940" NAME="?key@QSharedMemory@@QBE?AVQString@@XZ" PURGE="4" COMMENT="" />
    <EXPORT ORDINAL="2941" NAME="?key@QSystemSemaphore@@QBE?AVQString@@XZ" PURGE="4" COMMENT="" />
    <EXPORT ORDINAL="2942" NAME="?keyCount@QMetaEnum@@QBEHXZ" PURGE="0" COMMENT="" />
    <EXPORT ORDINAL="2943" NAME="?keyToValue@QMetaEnum@@QBEHPBD@Z" PURGE="4" COMMENT="" />
    <EXPORT ORDINAL="2944" NAME="?keyValueAt@QVariantAnimation@@QBE?AVQVariant@@N@Z" PURGE="12" COMMENT="" />
    <EXPORT ORDINAL="2945" NAME="?keyValues@QVariantAnimation@@QBE?AV?$QVector@U?$QPair@NVQVariant@@@@@@XZ" PURGE="4" COMMENT="" />
    <EXPORT ORDINAL="2946" NAME="?keys@QFactoryLoader@@QBE?AVQStringList@@XZ" PURGE="4" COMMENT="" />
    <EXPORT ORDINAL="2947" NAME="?keys@QProcessEnvironment@@QBE?AVQStringList@@XZ" PURGE="4" COMMENT="" />
    <EXPORT ORDINAL="2948" NAME="?keys@QTextCodecPlugin@@EBE?AVQStringList@@XZ" PURGE="4" COMMENT="" />
    <EXPORT ORDINAL="2949" NAME="?keysToValue@QMetaEnum@@QBEHPBD@Z" PURGE="4" COMMENT="" />
    <EXPORT ORDINAL="2950" NAME="?kill@QProcess@@QAEXXZ" PURGE="0" COMMENT="" />
    <EXPORT ORDINAL="2951" NAME="?killTimer@QObject@@QAEXH@Z" PURGE="4" COMMENT="" />
    <EXPORT ORDINAL="2952" NAME="?killTimer@QTimer@@AAEXH@Z" PURGE="4" COMMENT="" />
    <EXPORT ORDINAL="2953" NAME="?language@QLocale@@QBE?AW4Language@1@XZ" PURGE="0" COMMENT="" />
    <EXPORT ORDINAL="2954" NAME="?languageCode@QLocalePrivate@@QBE?AVQString@@XZ" PURGE="4" COMMENT="" />
    <EXPORT ORDINAL="2955" NAME="?languageId@QLocalePrivate@@QBEGXZ" PURGE="0" COMMENT="" />
    <EXPORT ORDINAL="2956" NAME="?languageToString@QLocale@@SA?AVQString@@W4Language@1@@Z" PURGE="0" COMMENT="" />
    <EXPORT ORDINAL="2957" NAME="?last@?$QVector@VQPoint@@@@QAEAAVQPoint@@XZ" PURGE="0" COMMENT="" />
    <EXPORT ORDINAL="2958" NAME="?last@?$QVector@VQPoint@@@@QBEABVQPoint@@XZ" PURGE="0" COMMENT="" />
    <EXPORT ORDINAL="2959" NAME="?last@?$QVector@VQPointF@@@@QAEAAVQPointF@@XZ" PURGE="0" COMMENT="" />
    <EXPORT ORDINAL="2960" NAME="?last@?$QVector@VQPointF@@@@QBEABVQPointF@@XZ" PURGE="0" COMMENT="" />
    <EXPORT ORDINAL="2961" NAME="?last@?$QVector@VQXmlStreamAttribute@@@@QAEAAVQXmlStreamAttribute@@XZ" PURGE="0" COMMENT="" />
    <EXPORT ORDINAL="2962" NAME="?last@?$QVector@VQXmlStreamAttribute@@@@QBEABVQXmlStreamAttribute@@XZ" PURGE="0" COMMENT="" />
    <EXPORT ORDINAL="2963" NAME="?lastIndexIn@QRegExp@@QBEHABVQString@@HW4CaretMode@1@@Z" PURGE="12" COMMENT="" />
    <EXPORT ORDINAL="2964" NAME="?lastIndexOf@?$QVector@VQPoint@@@@QBEHABVQPoint@@H@Z" PURGE="8" COMMENT="" />
    <EXPORT ORDINAL="2965" NAME="?lastIndexOf@?$QVector@VQPointF@@@@QBEHABVQPointF@@H@Z" PURGE="8" COMMENT="" />
    <EXPORT ORDINAL="2966" NAME="?lastIndexOf@?$QVector@VQXmlStreamAttribute@@@@QBEHABVQXmlStreamAttribute@@H@Z" PURGE="8" COMMENT="" />
    <EXPORT ORDINAL="2967" NAME="?lastIndexOf@QByteArray@@QBEHABV1@H@Z" PURGE="8" COMMENT="" />
    <EXPORT ORDINAL="2968" NAME="?lastIndexOf@QByteArray@@QBEHABVQString@@H@Z" PURGE="8" COMMENT="" />
    <EXPORT ORDINAL="2969" NAME="?lastIndexOf@QByteArray@@QBEHDH@Z" PURGE="8" COMMENT="" />
    <EXPORT ORDINAL="2970" NAME="?lastIndexOf@QByteArray@@QBEHPBDH@Z" PURGE="8" COMMENT="" />
    <EXPORT ORDINAL="2971" NAME="?lastIndexOf@QString@@QBEHAAVQRegExp@@H@Z" PURGE="8" COMMENT="" />
    <EXPORT ORDINAL="2972" NAME="?lastIndexOf@QString@@QBEHABV1@HW4CaseSensitivity@Qt@@@Z" PURGE="12" COMMENT="" />
    <EXPORT ORDINAL="2973" NAME="?lastIndexOf@QString@@QBEHABVQLatin1String@@HW4CaseSensitivity@Qt@@@Z" PURGE="12" COMMENT="" />
    <EXPORT ORDINAL="2974" NAME="?lastIndexOf@QString@@QBEHABVQRegExp@@H@Z" PURGE="8" COMMENT="" />
    <EXPORT ORDINAL="2975" NAME="?lastIndexOf@QString@@QBEHABVQStringRef@@HW4CaseSensitivity@Qt@@@Z" PURGE="12" COMMENT="" />
    <EXPORT ORDINAL="2976" NAME="?lastIndexOf@QString@@QBEHVQChar@@HW4CaseSensitivity@Qt@@@Z" PURGE="12" COMMENT="" />
    <EXPORT ORDINAL="2977" NAME="?lastIndexOf@QStringRef@@QBEHABV1@HW4CaseSensitivity@Qt@@@Z" PURGE="12" COMMENT="" />
    <EXPORT ORDINAL="2978" NAME="?lastIndexOf@QStringRef@@QBEHABVQString@@HW4CaseSensitivity@Qt@@@Z" PURGE="12" COMMENT="" />
    <EXPORT ORDINAL="2979" NAME="?lastIndexOf@QStringRef@@QBEHVQChar@@HW4CaseSensitivity@Qt@@@Z" PURGE="12" COMMENT="" />
    <EXPORT ORDINAL="2980" NAME="?lastIndexOf@QStringRef@@QBEHVQLatin1String@@HW4CaseSensitivity@Qt@@@Z" PURGE="12" COMMENT="" />
    <EXPORT ORDINAL="2981" NAME="?lastModified@QFileInfo@@QBE?AVQDateTime@@XZ" PURGE="4" COMMENT="" />
    <EXPORT ORDINAL="2982" NAME="?lastRead@QFileInfo@@QBE?AVQDateTime@@XZ" PURGE="4" COMMENT="" />
    <EXPORT ORDINAL="2983" NAME="?latin1@QChar@@QBE?BDXZ" PURGE="0" COMMENT="" />
    <EXPORT ORDINAL="2984" NAME="?latin1@QCharRef@@QBE?BDXZ" PURGE="0" COMMENT="" />
    <EXPORT ORDINAL="2985" NAME="?latin1@QLatin1String@@QBEPBDXZ" PURGE="0" COMMENT="" />
    <EXPORT ORDINAL="2986" NAME="?latin1@QString@@QBEPBDXZ" PURGE="0" COMMENT="" />
    <EXPORT ORDINAL="2987" NAME="?latin1_helper@QString@@IBEPBDXZ" PURGE="0" COMMENT="" />
    <EXPORT ORDINAL="2988" NAME="?layoutAboutToBeChanged@QAbstractItemModel@@IAEXXZ" PURGE="0" COMMENT="" />
    <EXPORT ORDINAL="2989" NAME="?layoutChanged@QAbstractItemModel@@IAEXXZ" PURGE="0" COMMENT="" />
    <EXPORT ORDINAL="2990" NAME="?leapYear@QDate@@SA_NH@Z" PURGE="0" COMMENT="" />
    <EXPORT ORDINAL="2991" NAME="?left@@YAAAVQTextStream@@AAV1@@Z" PURGE="0" COMMENT="" />
    <EXPORT ORDINAL="2992" NAME="?left@QByteArray@@QBE?AV1@H@Z" PURGE="8" COMMENT="" />
    <EXPORT ORDINAL="2993" NAME="?left@QRect@@QBEHXZ" PURGE="0" COMMENT="" />
    <EXPORT ORDINAL="2994" NAME="?left@QRectF@@QBENXZ" PURGE="0" COMMENT="" />
    <EXPORT ORDINAL="2995" NAME="?left@QString@@QBE?AV1@H@Z" PURGE="8" COMMENT="" />
    <EXPORT ORDINAL="2996" NAME="?leftJustified@QByteArray@@QBE?AV1@HD_N@Z" PURGE="16" COMMENT="" />
    <EXPORT ORDINAL="2997" NAME="?leftJustified@QString@@QBE?AV1@HVQChar@@_N@Z" PURGE="16" COMMENT="" />
    <EXPORT ORDINAL="2998" NAME="?leftJustify@QByteArray@@QBE?AV1@ID_N@Z" PURGE="16" COMMENT="" />
    <EXPORT ORDINAL="2999" NAME="?leftJustify@QString@@QBE?AV1@HVQChar@@_N@Z" PURGE="16" COMMENT="" />
    <EXPORT ORDINAL="3000" NAME="?leftRef@QString@@QBE?AVQStringRef@@H@Z" PURGE="8" COMMENT="" />
    <EXPORT ORDINAL="3001" NAME="?length@QByteArray@@QBEHXZ" PURGE="0" COMMENT="" />
    <EXPORT ORDINAL="3002" NAME="?length@QLineF@@QBENXZ" PURGE="-1" COMMENT="" />
    <EXPORT ORDINAL="3003" NAME="?length@QString@@QBEHXZ" PURGE="0" COMMENT="" />
    <EXPORT ORDINAL="3004" NAME="?length@QStringRef@@QBEHXZ" PURGE="0" COMMENT="" />
    <EXPORT ORDINAL="3005" NAME="?library@QLibrary@@QBE?AVQString@@XZ" PURGE="4" COMMENT="" />
    <EXPORT ORDINAL="3006" NAME="?libraryPaths@QCoreApplication@@SA?AVQStringList@@XZ" PURGE="0" COMMENT="" />
    <EXPORT ORDINAL="3007" NAME="?licensedProducts@QLibraryInfo@@SA?AVQString@@XZ" PURGE="0" COMMENT="" />
    <EXPORT ORDINAL="3008" NAME="?licensee@QLibraryInfo@@SA?AVQString@@XZ" PURGE="0" COMMENT="" />
    <EXPORT ORDINAL="3009" NAME="?lineBreakClass@QUnicodeTables@@YI?AW4LineBreakClass@1@I@Z" PURGE="0" COMMENT="" />
    <EXPORT ORDINAL="3010" NAME="?lineNumber@QXmlStreamReader@@QBE_JXZ" PURGE="0" COMMENT="" />
    <EXPORT ORDINAL="3011" NAME="?link@QAbstractFileEngine@@UAE_NABVQString@@@Z" PURGE="4" COMMENT="" />
    <EXPORT ORDINAL="3012" NAME="?link@QFSFileEngine@@UAE_NABVQString@@@Z" PURGE="4" COMMENT="" />
    <EXPORT ORDINAL="3013" NAME="?link@QFile@@QAE_NABVQString@@@Z" PURGE="4" COMMENT="" />
    <EXPORT ORDINAL="3014" NAME="?link@QFile@@SA_NABVQString@@0@Z" PURGE="0" COMMENT="" />
    <EXPORT ORDINAL="3015" NAME="?list@QLocalePrivate@@QBE?AVQChar@@XZ" PURGE="4" COMMENT="" />
    <EXPORT ORDINAL="3016" NAME="?load@QLibrary@@QAE_NXZ" PURGE="0" COMMENT="" />
    <EXPORT ORDINAL="3017" NAME="?load@QMetaType@@SA_NAAVQDataStream@@HPAX@Z" PURGE="0" COMMENT="" />
    <EXPORT ORDINAL="3018" NAME="?load@QPluginLoader@@QAE_NXZ" PURGE="0" COMMENT="" />
    <EXPORT ORDINAL="3019" NAME="?load@QSystemLibrary@@SAPAUHINSTANCE__@@PBG_N@Z" PURGE="0" COMMENT="" />
    <EXPORT ORDINAL="3020" NAME="?load@QTranslator@@QAE_NABVQLocale@@ABVQString@@111@Z" PURGE="20" COMMENT="" />
    <EXPORT ORDINAL="3021" NAME="?load@QTranslator@@QAE_NABVQString@@000@Z" PURGE="16" COMMENT="" />
    <EXPORT ORDINAL="3022" NAME="?load@QTranslator@@QAE_NPBEH@Z" PURGE="8" COMMENT="" />
    <EXPORT ORDINAL="3023" NAME="?load@QVariant@@QAEXAAVQDataStream@@@Z" PURGE="4" COMMENT="" />
    <EXPORT ORDINAL="3024" NAME="?loadHints@QLibrary@@QBE?AV?$QFlags@W4LoadHint@QLibrary@@@@XZ" PURGE="4" COMMENT="" />
    <EXPORT ORDINAL="3025" NAME="?loadHints@QPluginLoader@@QBE?AV?$QFlags@W4LoadHint@QLibrary@@@@XZ" PURGE="4" COMMENT="" />
    <EXPORT ORDINAL="3026" NAME="?local8Bit@QString@@QBE?AVQByteArray@@XZ" PURGE="4" COMMENT="" />
    <EXPORT ORDINAL="3027" NAME="?locale@QDateTimeParser@@UBE?AVQLocale@@XZ" PURGE="4" COMMENT="" />
    <EXPORT ORDINAL="3028" NAME="?locale@QResource@@QBE?AVQLocale@@XZ" PURGE="4" COMMENT="" />
    <EXPORT ORDINAL="3029" NAME="?locale@QTextCodec@@SAPBDXZ" PURGE="0" COMMENT="" />
    <EXPORT ORDINAL="3030" NAME="?locale@QTextStream@@QBE?AVQLocale@@XZ" PURGE="4" COMMENT="" />
    <EXPORT ORDINAL="3031" NAME="?localeAwareCompare@QString@@QBEHABV1@@Z" PURGE="4" COMMENT="" />
    <EXPORT ORDINAL="3032" NAME="?localeAwareCompare@QString@@QBEHABVQStringRef@@@Z" PURGE="4" COMMENT="" />
    <EXPORT ORDINAL="3033" NAME="?localeAwareCompare@QString@@SAHABV1@0@Z" PURGE="0" COMMENT="" />
    <EXPORT ORDINAL="3034" NAME="?localeAwareCompare@QString@@SAHABV1@ABVQStringRef@@@Z" PURGE="0" COMMENT="" />
    <EXPORT ORDINAL="3035" NAME="?localeAwareCompare@QStringRef@@QBEHABV1@@Z" PURGE="4" COMMENT="" />
    <EXPORT ORDINAL="3036" NAME="?localeAwareCompare@QStringRef@@QBEHABVQString@@@Z" PURGE="4" COMMENT="" />
    <EXPORT ORDINAL="3037" NAME="?localeAwareCompare@QStringRef@@SAHABV1@0@Z" PURGE="0" COMMENT="" />
    <EXPORT ORDINAL="3038" NAME="?localeAwareCompare@QStringRef@@SAHABV1@ABVQString@@@Z" PURGE="0" COMMENT="" />
    <EXPORT ORDINAL="3039" NAME="?localeAwareCompare_helper@QString@@CAHPBVQChar@@H0H@Z" PURGE="0" COMMENT="" />
    <EXPORT ORDINAL="3040" NAME="?location@QLibraryInfo@@SA?AVQString@@W4LibraryLocation@1@@Z" PURGE="0" COMMENT="" />
    <EXPORT ORDINAL="3041" NAME="?lock@QCoreApplication@@QAEXXZ" PURGE="0" COMMENT="" />
    <EXPORT ORDINAL="3042" NAME="?lock@QMutex@@QAEXXZ" PURGE="0" COMMENT="" />
    <EXPORT ORDINAL="3043" NAME="?lock@QSharedMemory@@QAE_NXZ" PURGE="0" COMMENT="" />
    <EXPORT ORDINAL="3044" NAME="?lockForRead@QReadWriteLock@@QAEXXZ" PURGE="0" COMMENT="" />
    <EXPORT ORDINAL="3045" NAME="?lockForWrite@QReadWriteLock@@QAEXXZ" PURGE="0" COMMENT="" />
    <EXPORT ORDINAL="3046" NAME="?lockInline@QMutex@@QAEXXZ" PURGE="0" COMMENT="" />
    <EXPORT ORDINAL="3047" NAME="?lockInternal@QMutex@@AAEXXZ" PURGE="0" COMMENT="" />
    <EXPORT ORDINAL="3048" NAME="?locked@QCoreApplication@@QAE_NXZ" PURGE="0" COMMENT="" />
    <EXPORT ORDINAL="3049" NAME="?locked@QMutex@@QAE_NXZ" PURGE="0" COMMENT="" />
    <EXPORT ORDINAL="3050" NAME="?longDayName@QDate@@SA?AVQString@@H@Z" PURGE="0" COMMENT="" />
    <EXPORT ORDINAL="3051" NAME="?longDayName@QDate@@SA?AVQString@@HW4MonthNameType@1@@Z" PURGE="0" COMMENT="" />
    <EXPORT ORDINAL="3052" NAME="?longLongToString@QLocalePrivate@@QBE?AVQString@@_JHHHI@Z" PURGE="28" COMMENT="" />
    <EXPORT ORDINAL="3053" NAME="?longLongToString@QLocalePrivate@@SA?AVQString@@VQChar@@000_JHHHI@Z" PURGE="0" COMMENT="" />
    <EXPORT ORDINAL="3054" NAME="?longMonthName@QDate@@SA?AVQString@@H@Z" PURGE="0" COMMENT="" />
    <EXPORT ORDINAL="3055" NAME="?longMonthName@QDate@@SA?AVQString@@HW4MonthNameType@1@@Z" PURGE="0" COMMENT="" />
    <EXPORT ORDINAL="3056" NAME="?loopCount@QAbstractAnimation@@QBEHXZ" PURGE="0" COMMENT="" />
    <EXPORT ORDINAL="3057" NAME="?loopCount@QTimeLine@@QBEHXZ" PURGE="0" COMMENT="" />
    <EXPORT ORDINAL="3058" NAME="?loopLevel@QCoreApplication@@SAHXZ" PURGE="0" COMMENT="" />
    <EXPORT ORDINAL="3059" NAME="?lowSurrogate@QChar@@SAGI@Z" PURGE="0" COMMENT="" />
    <EXPORT ORDINAL="3060" NAME="?lower@QByteArray@@QBE?AV1@XZ" PURGE="4" COMMENT="" />
    <EXPORT ORDINAL="3061" NAME="?lower@QChar@@QBE?AV1@XZ" PURGE="4" COMMENT="" />
    <EXPORT ORDINAL="3062" NAME="?lower@QCharRef@@QBE?AVQChar@@XZ" PURGE="4" COMMENT="" />
    <EXPORT ORDINAL="3063" NAME="?lower@QString@@QBE?AV1@XZ" PURGE="4" COMMENT="" />
    <EXPORT ORDINAL="3064" NAME="?lowercasebase@@YAAAVQTextStream@@AAV1@@Z" PURGE="0" COMMENT="" />
    <EXPORT ORDINAL="3065" NAME="?lowercasedigits@@YAAAVQTextStream@@AAV1@@Z" PURGE="0" COMMENT="" />
    <EXPORT ORDINAL="3066" NAME="?machine@QAbstractState@@QBEPAVQStateMachine@@XZ" PURGE="0" COMMENT="" />
    <EXPORT ORDINAL="3067" NAME="?machine@QAbstractTransition@@QBEPAVQStateMachine@@XZ" PURGE="0" COMMENT="" />
    <EXPORT ORDINAL="3068" NAME="?machine@QAbstractTransitionPrivate@@QBEPAVQStateMachine@@XZ" PURGE="0" COMMENT="" />
    <EXPORT ORDINAL="3069" NAME="?mainThread@QCoreApplicationPrivate@@SAPAVQThread@@XZ" PURGE="0" COMMENT="" />
    <EXPORT ORDINAL="3070" NAME="?makeAbsolute@QDir@@QAE_NXZ" PURGE="0" COMMENT="" />
    <EXPORT ORDINAL="3071" NAME="?makeAbsolute@QFileInfo@@QAE_NXZ" PURGE="0" COMMENT="" />
    <EXPORT ORDINAL="3072" NAME="?makeDecoder@QTextCodec@@QBEPAVQTextDecoder@@V?$QFlags@W4ConversionFlag@QTextCodec@@@@@Z" PURGE="4" COMMENT="" />
    <EXPORT ORDINAL="3073" NAME="?makeDecoder@QTextCodec@@QBEPAVQTextDecoder@@XZ" PURGE="0" COMMENT="" />
    <EXPORT ORDINAL="3074" NAME="?makeEncoder@QTextCodec@@QBEPAVQTextEncoder@@V?$QFlags@W4ConversionFlag@QTextCodec@@@@@Z" PURGE="4" COMMENT="" />
    <EXPORT ORDINAL="3075" NAME="?makeEncoder@QTextCodec@@QBEPAVQTextEncoder@@XZ" PURGE="0" COMMENT="" />
    <EXPORT ORDINAL="3076" NAME="?malloc@?$QVector@VQPoint@@@@AAEPAUQVectorData@@H@Z" PURGE="4" COMMENT="" />
    <EXPORT ORDINAL="3077" NAME="?malloc@?$QVector@VQPointF@@@@AAEPAUQVectorData@@H@Z" PURGE="4" COMMENT="" />
    <EXPORT ORDINAL="3078" NAME="?malloc@?$QVector@VQXmlStreamAttribute@@@@AAEPAUQVectorData@@H@Z" PURGE="4" COMMENT="" />
    <EXPORT ORDINAL="3079" NAME="?malloc@QVectorData@@SAPAU1@HHHPAU1@@Z" PURGE="0" COMMENT="" />
    <EXPORT ORDINAL="3080" NAME="?manhattanLength@QPoint@@QBEHXZ" PURGE="0" COMMENT="" />
    <EXPORT ORDINAL="3081" NAME="?manhattanLength@QPointF@@QBENXZ" PURGE="0" COMMENT="" />
    <EXPORT ORDINAL="3082" NAME="?map@QAbstractFileEngine@@QAEPAE_J0W4MemoryMapFlags@QFile@@@Z" PURGE="20" COMMENT="" />
    <EXPORT ORDINAL="3083" NAME="?map@QFile@@QAEPAE_J0W4MemoryMapFlags@1@@Z" PURGE="20" COMMENT="" />
    <EXPORT ORDINAL="3084" NAME="?map@QSignalMapper@@QAEXPAVQObject@@@Z" PURGE="4" COMMENT="" />
    <EXPORT ORDINAL="3085" NAME="?map@QSignalMapper@@QAEXXZ" PURGE="0" COMMENT="" />
    <EXPORT ORDINAL="3086" NAME="?mapped@QSignalMapper@@IAEXABVQString@@@Z" PURGE="4" COMMENT="" />
    <EXPORT ORDINAL="3087" NAME="?mapped@QSignalMapper@@IAEXH@Z" PURGE="4" COMMENT="" />
    <EXPORT ORDINAL="3088" NAME="?mapped@QSignalMapper@@IAEXPAVQObject@@@Z" PURGE="4" COMMENT="" />
    <EXPORT ORDINAL="3089" NAME="?mapped@QSignalMapper@@IAEXPAVQWidget@@@Z" PURGE="4" COMMENT="" />
    <EXPORT ORDINAL="3090" NAME="?mapping@QSignalMapper@@QBEPAVQObject@@ABVQString@@@Z" PURGE="4" COMMENT="" />
    <EXPORT ORDINAL="3091" NAME="?mapping@QSignalMapper@@QBEPAVQObject@@H@Z" PURGE="4" COMMENT="" />
    <EXPORT ORDINAL="3092" NAME="?mapping@QSignalMapper@@QBEPAVQObject@@PAV2@@Z" PURGE="4" COMMENT="" />
    <EXPORT ORDINAL="3093" NAME="?mapping@QSignalMapper@@QBEPAVQObject@@PAVQWidget@@@Z" PURGE="4" COMMENT="" />
    <EXPORT ORDINAL="3094" NAME="?match@QAbstractItemModel@@UBE?AV?$QList@VQModelIndex@@@@ABVQModelIndex@@HABVQVariant@@HV?$QFlags@W4MatchFlag@Qt@@@@@Z" PURGE="24" COMMENT="" />
    <EXPORT ORDINAL="3095" NAME="?match@QDir@@SA_NABVQString@@0@Z" PURGE="0" COMMENT="" />
    <EXPORT ORDINAL="3096" NAME="?match@QDir@@SA_NABVQStringList@@ABVQString@@@Z" PURGE="0" COMMENT="" />
    <EXPORT ORDINAL="3097" NAME="?matchAllDirs@QDir@@QBE_NXZ" PURGE="0" COMMENT="" />
    <EXPORT ORDINAL="3098" NAME="?matchedLength@QRegExp@@QBEHXZ" PURGE="0" COMMENT="" />
    <EXPORT ORDINAL="3099" NAME="?matchingLocales@QLocale@@SA?AV?$QList@VQLocale@@@@W4Language@1@W4Script@1@W4Country@1@@Z" PURGE="0" COMMENT="" />
    <EXPORT ORDINAL="3100" NAME="?maxChange@QDateTimeParser@@QBEHH@Z" PURGE="4" COMMENT="" />
    <EXPORT ORDINAL="3101" NAME="?maxThreadCount@QThreadPool@@QBEHXZ" PURGE="0" COMMENT="" />
    <EXPORT ORDINAL="3102" NAME="?maybeRegister@QEventTransitionPrivate@@QAEXXZ" PURGE="0" COMMENT="" />
    <EXPORT ORDINAL="3103" NAME="?maybeSpace@QDebug@@QAEAAV1@XZ" PURGE="0" COMMENT="" />
    <EXPORT ORDINAL="3104" NAME="?measurementSystem@QLocale@@QBE?AW4MeasurementSystem@1@XZ" PURGE="0" COMMENT="" />
    <EXPORT ORDINAL="3105" NAME="?measurementSystem@QLocalePrivate@@QBE?AW4MeasurementSystem@QLocale@@XZ" PURGE="0" COMMENT="" />
    <EXPORT ORDINAL="3106" NAME="?metaCall@QAbstractDynamicMetaObject@@UAEHW4Call@QMetaObject@@HPAPAX@Z" PURGE="12" COMMENT="" />
    <EXPORT ORDINAL="3107" NAME="?metaObject@QAbstractAnimation@@UBEPBUQMetaObject@@XZ" PURGE="0" COMMENT="" />
    <EXPORT ORDINAL="3108" NAME="?metaObject@QAbstractEventDispatcher@@UBEPBUQMetaObject@@XZ" PURGE="0" COMMENT="" />
    <EXPORT ORDINAL="3109" NAME="?metaObject@QAbstractItemModel@@UBEPBUQMetaObject@@XZ" PURGE="0" COMMENT="" />
    <EXPORT ORDINAL="3110" NAME="?metaObject@QAbstractListModel@@UBEPBUQMetaObject@@XZ" PURGE="0" COMMENT="" />
    <EXPORT ORDINAL="3111" NAME="?metaObject@QAbstractState@@UBEPBUQMetaObject@@XZ" PURGE="0" COMMENT="" />
    <EXPORT ORDINAL="3112" NAME="?metaObject@QAbstractTableModel@@UBEPBUQMetaObject@@XZ" PURGE="0" COMMENT="" />
    <EXPORT ORDINAL="3113" NAME="?metaObject@QAbstractTransition@@UBEPBUQMetaObject@@XZ" PURGE="0" COMMENT="" />
    <EXPORT ORDINAL="3114" NAME="?metaObject@QAnimationDriver@@UBEPBUQMetaObject@@XZ" PURGE="0" COMMENT="" />
    <EXPORT ORDINAL="3115" NAME="?metaObject@QAnimationGroup@@UBEPBUQMetaObject@@XZ" PURGE="0" COMMENT="" />
    <EXPORT ORDINAL="3116" NAME="?metaObject@QBuffer@@UBEPBUQMetaObject@@XZ" PURGE="0" COMMENT="" />
    <EXPORT ORDINAL="3117" NAME="?metaObject@QCoreApplication@@UBEPBUQMetaObject@@XZ" PURGE="0" COMMENT="" />
    <EXPORT ORDINAL="3118" NAME="?metaObject@QEventDispatcherWin32@@UBEPBUQMetaObject@@XZ" PURGE="0" COMMENT="" />
    <EXPORT ORDINAL="3119" NAME="?metaObject@QEventLoop@@UBEPBUQMetaObject@@XZ" PURGE="0" COMMENT="" />
    <EXPORT ORDINAL="3120" NAME="?metaObject@QEventTransition@@UBEPBUQMetaObject@@XZ" PURGE="0" COMMENT="" />
    <EXPORT ORDINAL="3121" NAME="?metaObject@QFactoryLoader@@UBEPBUQMetaObject@@XZ" PURGE="0" COMMENT="" />
    <EXPORT ORDINAL="3122" NAME="?metaObject@QFile@@UBEPBUQMetaObject@@XZ" PURGE="0" COMMENT="" />
    <EXPORT ORDINAL="3123" NAME="?metaObject@QFileSystemWatcher@@UBEPBUQMetaObject@@XZ" PURGE="0" COMMENT="" />
    <EXPORT ORDINAL="3124" NAME="?metaObject@QFinalState@@UBEPBUQMetaObject@@XZ" PURGE="0" COMMENT="" />
    <EXPORT ORDINAL="3125" NAME="?metaObject@QFutureWatcherBase@@UBEPBUQMetaObject@@XZ" PURGE="0" COMMENT="" />
    <EXPORT ORDINAL="3126" NAME="?metaObject@QHistoryState@@UBEPBUQMetaObject@@XZ" PURGE="0" COMMENT="" />
    <EXPORT ORDINAL="3127" NAME="?metaObject@QIODevice@@UBEPBUQMetaObject@@XZ" PURGE="0" COMMENT="" />
    <EXPORT ORDINAL="3128" NAME="?metaObject@QLibrary@@UBEPBUQMetaObject@@XZ" PURGE="0" COMMENT="" />
    <EXPORT ORDINAL="3129" NAME="?metaObject@QMimeData@@UBEPBUQMetaObject@@XZ" PURGE="0" COMMENT="" />
    <EXPORT ORDINAL="3130" NAME="?metaObject@QNonContiguousByteDevice@@UBEPBUQMetaObject@@XZ" PURGE="0" COMMENT="" />
    <EXPORT ORDINAL="3131" NAME="?metaObject@QObject@@UBEPBUQMetaObject@@XZ" PURGE="0" COMMENT="" />
    <EXPORT ORDINAL="3132" NAME="?metaObject@QObjectCleanupHandler@@UBEPBUQMetaObject@@XZ" PURGE="0" COMMENT="" />
    <EXPORT ORDINAL="3133" NAME="?metaObject@QParallelAnimationGroup@@UBEPBUQMetaObject@@XZ" PURGE="0" COMMENT="" />
    <EXPORT ORDINAL="3134" NAME="?metaObject@QPauseAnimation@@UBEPBUQMetaObject@@XZ" PURGE="0" COMMENT="" />
    <EXPORT ORDINAL="3135" NAME="?metaObject@QPluginLoader@@UBEPBUQMetaObject@@XZ" PURGE="0" COMMENT="" />
    <EXPORT ORDINAL="3136" NAME="?metaObject@QProcess@@UBEPBUQMetaObject@@XZ" PURGE="0" COMMENT="" />
    <EXPORT ORDINAL="3137" NAME="?metaObject@QPropertyAnimation@@UBEPBUQMetaObject@@XZ" PURGE="0" COMMENT="" />
    <EXPORT ORDINAL="3138" NAME="?metaObject@QSequentialAnimationGroup@@UBEPBUQMetaObject@@XZ" PURGE="0" COMMENT="" />
    <EXPORT ORDINAL="3139" NAME="?metaObject@QSettings@@UBEPBUQMetaObject@@XZ" PURGE="0" COMMENT="" />
    <EXPORT ORDINAL="3140" NAME="?metaObject@QSharedMemory@@UBEPBUQMetaObject@@XZ" PURGE="0" COMMENT="" />
    <EXPORT ORDINAL="3141" NAME="?metaObject@QSignalMapper@@UBEPBUQMetaObject@@XZ" PURGE="0" COMMENT="" />
    <EXPORT ORDINAL="3142" NAME="?metaObject@QSignalTransition@@UBEPBUQMetaObject@@XZ" PURGE="0" COMMENT="" />
    <EXPORT ORDINAL="3143" NAME="?metaObject@QSocketNotifier@@UBEPBUQMetaObject@@XZ" PURGE="0" COMMENT="" />
    <EXPORT ORDINAL="3144" NAME="?metaObject@QState@@UBEPBUQMetaObject@@XZ" PURGE="0" COMMENT="" />
    <EXPORT ORDINAL="3145" NAME="?metaObject@QStateMachine@@UBEPBUQMetaObject@@XZ" PURGE="0" COMMENT="" />
    <EXPORT ORDINAL="3146" NAME="?metaObject@QTemporaryFile@@UBEPBUQMetaObject@@XZ" PURGE="0" COMMENT="" />
    <EXPORT ORDINAL="3147" NAME="?metaObject@QTextCodecPlugin@@UBEPBUQMetaObject@@XZ" PURGE="0" COMMENT="" />
    <EXPORT ORDINAL="3148" NAME="?metaObject@QThread@@UBEPBUQMetaObject@@XZ" PURGE="0" COMMENT="" />
    <EXPORT ORDINAL="3149" NAME="?metaObject@QThreadPool@@UBEPBUQMetaObject@@XZ" PURGE="0" COMMENT="" />
    <EXPORT ORDINAL="3150" NAME="?metaObject@QTimeLine@@UBEPBUQMetaObject@@XZ" PURGE="0" COMMENT="" />
    <EXPORT ORDINAL="3151" NAME="?metaObject@QTimer@@UBEPBUQMetaObject@@XZ" PURGE="0" COMMENT="" />
    <EXPORT ORDINAL="3152" NAME="?metaObject@QTranslator@@UBEPBUQMetaObject@@XZ" PURGE="0" COMMENT="" />
    <EXPORT ORDINAL="3153" NAME="?metaObject@QVariantAnimation@@UBEPBUQMetaObject@@XZ" PURGE="0" COMMENT="" />
    <EXPORT ORDINAL="3154" NAME="?metaObject@QWinEventNotifier@@UBEPBUQMetaObject@@XZ" PURGE="0" COMMENT="" />
    <EXPORT ORDINAL="3155" NAME="?metaObject@QWindowsPipeWriter@@UBEPBUQMetaObject@@XZ" PURGE="0" COMMENT="" />
    <EXPORT ORDINAL="3156" NAME="?metacall@QMetaObject@@SAHPAVQObject@@W4Call@1@HPAPAX@Z" PURGE="0" COMMENT="" />
    <EXPORT ORDINAL="3157" NAME="?method@QMetaObject@@QBE?AVQMetaMethod@@H@Z" PURGE="8" COMMENT="" />
    <EXPORT ORDINAL="3158" NAME="?methodCount@QMetaObject@@QBEHXZ" PURGE="0" COMMENT="" />
    <EXPORT ORDINAL="3159" NAME="?methodIndex@QMetaMethod@@QBEHXZ" PURGE="0" COMMENT="" />
    <EXPORT ORDINAL="3160" NAME="?methodOffset@QMetaObject@@QBEHXZ" PURGE="0" COMMENT="" />
    <EXPORT ORDINAL="3161" NAME="?methodType@QMetaMethod@@QBE?AW4MethodType@1@XZ" PURGE="0" COMMENT="" />
    <EXPORT ORDINAL="3162" NAME="?microstep@QStateMachinePrivate@@QAEXPAVQEvent@@ABV?$QList@PAVQAbstractTransition@@@@@Z" PURGE="8" COMMENT="" />
    <EXPORT ORDINAL="3163" NAME="?mid@?$QVector@VQPoint@@@@QBE?AV1@HH@Z" PURGE="12" COMMENT="" />
    <EXPORT ORDINAL="3164" NAME="?mid@?$QVector@VQPointF@@@@QBE?AV1@HH@Z" PURGE="12" COMMENT="" />
    <EXPORT ORDINAL="3165" NAME="?mid@?$QVector@VQXmlStreamAttribute@@@@QBE?AV1@HH@Z" PURGE="12" COMMENT="" />
    <EXPORT ORDINAL="3166" NAME="?mid@QByteArray@@QBE?AV1@HH@Z" PURGE="12" COMMENT="" />
    <EXPORT ORDINAL="3167" NAME="?mid@QString@@QBE?AV1@HH@Z" PURGE="12" COMMENT="" />
    <EXPORT ORDINAL="3168" NAME="?midRef@QString@@QBE?AVQStringRef@@HH@Z" PURGE="12" COMMENT="" />
    <EXPORT ORDINAL="3169" NAME="?mightGrow@QHashData@@QAEXXZ" PURGE="0" COMMENT="" />
    <EXPORT ORDINAL="3170" NAME="?mimeData@QAbstractItemModel@@UBEPAVQMimeData@@ABV?$QList@VQModelIndex@@@@@Z" PURGE="4" COMMENT="" />
    <EXPORT ORDINAL="3171" NAME="?mimeName@QTextCodec@@QBE?AVQByteArray@@XZ" PURGE="4" COMMENT="" />
    <EXPORT ORDINAL="3172" NAME="?mimeTypes@QAbstractItemModel@@UBE?AVQStringList@@XZ" PURGE="4" COMMENT="" />
    <EXPORT ORDINAL="3173" NAME="?minimal@QRegExp@@QBE_NXZ" PURGE="0" COMMENT="" />
    <EXPORT ORDINAL="3174" NAME="?minus@QLocalePrivate@@QBE?AVQChar@@XZ" PURGE="4" COMMENT="" />
    <EXPORT ORDINAL="3175" NAME="?minute@QTime@@QBEHXZ" PURGE="0" COMMENT="" />
    <EXPORT ORDINAL="3176" NAME="?mirrored@QChar@@QBE_NXZ" PURGE="0" COMMENT="" />
    <EXPORT ORDINAL="3177" NAME="?mirrored@QCharRef@@QBE_NXZ" PURGE="0" COMMENT="" />
    <EXPORT ORDINAL="3178" NAME="?mirroredChar@QChar@@QBE?AV1@XZ" PURGE="4" COMMENT="" />
    <EXPORT ORDINAL="3179" NAME="?mirroredChar@QChar@@SIGG@Z" PURGE="0" COMMENT="" />
    <EXPORT ORDINAL="3180" NAME="?mirroredChar@QChar@@SIII@Z" PURGE="0" COMMENT="" />
    <EXPORT ORDINAL="3181" NAME="?mirroredChar@QCharRef@@QBE?AVQChar@@XZ" PURGE="4" COMMENT="" />
    <EXPORT ORDINAL="3182" NAME="?mkdir@QAbstractFileEngine@@UBE_NABVQString@@_N@Z" PURGE="8" COMMENT="" />
    <EXPORT ORDINAL="3183" NAME="?mkdir@QDir@@QBE_NABVQString@@@Z" PURGE="4" COMMENT="" />
    <EXPORT ORDINAL="3184" NAME="?mkdir@QDir@@QBE_NABVQString@@_N@Z" PURGE="8" COMMENT="" />
    <EXPORT ORDINAL="3185" NAME="?mkdir@QFSFileEngine@@UBE_NABVQString@@_N@Z" PURGE="8" COMMENT="" />
    <EXPORT ORDINAL="3186" NAME="?mkpath@QDir@@QBE_NABVQString@@@Z" PURGE="4" COMMENT="" />
    <EXPORT ORDINAL="3187" NAME="?mode@QIODevice@@QBEHXZ" PURGE="0" COMMENT="" />
    <EXPORT ORDINAL="3188" NAME="?model@QModelIndex@@QBEPBVQAbstractItemModel@@XZ" PURGE="0" COMMENT="" />
    <EXPORT ORDINAL="3189" NAME="?model@QPersistentModelIndex@@QBEPBVQAbstractItemModel@@XZ" PURGE="0" COMMENT="" />
    <EXPORT ORDINAL="3190" NAME="?modelAboutToBeReset@QAbstractItemModel@@AAEXXZ" PURGE="0" COMMENT="" />
    <EXPORT ORDINAL="3191" NAME="?modelReset@QAbstractItemModel@@AAEXXZ" PURGE="0" COMMENT="" />
    <EXPORT ORDINAL="3192" NAME="?month@QDate@@QBEHXZ" PURGE="0" COMMENT="" />
    <EXPORT ORDINAL="3193" NAME="?monthName@QDate@@SA?AVQString@@H@Z" PURGE="0" COMMENT="" />
    <EXPORT ORDINAL="3194" NAME="?monthName@QLocale@@QBE?AVQString@@HW4FormatType@1@@Z" PURGE="12" COMMENT="" />
    <EXPORT ORDINAL="3195" NAME="?move@QListData@@QAEXHH@Z" PURGE="8" COMMENT="" />
    <EXPORT ORDINAL="3196" NAME="?moveBottom@QRect@@QAEXH@Z" PURGE="4" COMMENT="" />
    <EXPORT ORDINAL="3197" NAME="?moveBottom@QRectF@@QAEXN@Z" PURGE="8" COMMENT="" />
    <EXPORT ORDINAL="3198" NAME="?moveBottomLeft@QRect@@QAEXABVQPoint@@@Z" PURGE="4" COMMENT="" />
    <EXPORT ORDINAL="3199" NAME="?moveBottomLeft@QRectF@@QAEXABVQPointF@@@Z" PURGE="4" COMMENT="" />
    <EXPORT ORDINAL="3200" NAME="?moveBottomRight@QRect@@QAEXABVQPoint@@@Z" PURGE="4" COMMENT="" />
    <EXPORT ORDINAL="3201" NAME="?moveBottomRight@QRectF@@QAEXABVQPointF@@@Z" PURGE="4" COMMENT="" />
    <EXPORT ORDINAL="3202" NAME="?moveBy@QRect@@QAEXABVQPoint@@@Z" PURGE="4" COMMENT="" />
    <EXPORT ORDINAL="3203" NAME="?moveBy@QRect@@QAEXHH@Z" PURGE="8" COMMENT="" />
    <EXPORT ORDINAL="3204" NAME="?moveCenter@QRect@@QAEXABVQPoint@@@Z" PURGE="4" COMMENT="" />
    <EXPORT ORDINAL="3205" NAME="?moveCenter@QRectF@@QAEXABVQPointF@@@Z" PURGE="4" COMMENT="" />
    <EXPORT ORDINAL="3206" NAME="?moveLeft@QRect@@QAEXH@Z" PURGE="4" COMMENT="" />
    <EXPORT ORDINAL="3207" NAME="?moveLeft@QRectF@@QAEXN@Z" PURGE="8" COMMENT="" />
    <EXPORT ORDINAL="3208" NAME="?movePersistentIndexes@QAbstractItemModelPrivate@@QAEXV?$QVector@PAVQPersistentModelIndexData@@@@HABVQModelIndex@@W4Orientation@Qt@@@Z" PURGE="16" COMMENT="" />
    <EXPORT ORDINAL="3209" NAME="?moveRight@QRect@@QAEXH@Z" PURGE="4" COMMENT="" />
    <EXPORT ORDINAL="3210" NAME="?moveRight@QRectF@@QAEXN@Z" PURGE="8" COMMENT="" />
    <EXPORT ORDINAL="3211" NAME="?moveTo@QRect@@QAEXABVQPoint@@@Z" PURGE="4" COMMENT="" />
    <EXPORT ORDINAL="3212" NAME="?moveTo@QRect@@QAEXHH@Z" PURGE="8" COMMENT="" />
    <EXPORT ORDINAL="3213" NAME="?moveTo@QRectF@@QAEXABVQPointF@@@Z" PURGE="4" COMMENT="" />
    <EXPORT ORDINAL="3214" NAME="?moveTo@QRectF@@QAEXNN@Z" PURGE="16" COMMENT="" />
    <EXPORT ORDINAL="3215" NAME="?moveToThread@QObject@@QAEXPAVQThread@@@Z" PURGE="4" COMMENT="" />
    <EXPORT ORDINAL="3216" NAME="?moveToThread_helper@QObjectPrivate@@QAEXXZ" PURGE="0" COMMENT="" />
    <EXPORT ORDINAL="3217" NAME="?moveTop@QRect@@QAEXH@Z" PURGE="4" COMMENT="" />
    <EXPORT ORDINAL="3218" NAME="?moveTop@QRectF@@QAEXN@Z" PURGE="8" COMMENT="" />
    <EXPORT ORDINAL="3219" NAME="?moveTopLeft@QRect@@QAEXABVQPoint@@@Z" PURGE="4" COMMENT="" />
    <EXPORT ORDINAL="3220" NAME="?moveTopLeft@QRectF@@QAEXABVQPointF@@@Z" PURGE="4" COMMENT="" />
    <EXPORT ORDINAL="3221" NAME="?moveTopRight@QRect@@QAEXABVQPoint@@@Z" PURGE="4" COMMENT="" />
    <EXPORT ORDINAL="3222" NAME="?moveTopRight@QRectF@@QAEXABVQPointF@@@Z" PURGE="4" COMMENT="" />
    <EXPORT ORDINAL="3223" NAME="?msec@QTime@@QBEHXZ" PURGE="0" COMMENT="" />
    <EXPORT ORDINAL="3224" NAME="?msecsSinceReference@QElapsedTimer@@QBE_JXZ" PURGE="0" COMMENT="" />
    <EXPORT ORDINAL="3225" NAME="?msecsTo@QDateTime@@QBE_JABV1@@Z" PURGE="4" COMMENT="" />
    <EXPORT ORDINAL="3226" NAME="?msecsTo@QElapsedTimer@@QBE_JABV1@@Z" PURGE="4" COMMENT="" />
    <EXPORT ORDINAL="3227" NAME="?msecsTo@QTime@@QBEHABV1@@Z" PURGE="4" COMMENT="" />
    <EXPORT ORDINAL="3228" NAME="?msleep@QThread@@KAXK@Z" PURGE="0" COMMENT="" />
    <EXPORT ORDINAL="3229" NAME="?multiArg@QString@@ABE?AV1@HPAPBV1@@Z" PURGE="12" COMMENT="" />
    <EXPORT ORDINAL="3230" NAME="?mutex@QFutureInterfaceBase@@QBEPAVQMutex@@XZ" PURGE="0" COMMENT="" />
    <EXPORT ORDINAL="3231" NAME="?mutex@QMutexLocker@@QBEPAVQMutex@@XZ" PURGE="0" COMMENT="" />
    <EXPORT ORDINAL="3232" NAME="?name@QFile@@QBE?AVQString@@XZ" PURGE="4" COMMENT="" />
    <EXPORT ORDINAL="3233" NAME="?name@QGenericArgument@@QBEPBDXZ" PURGE="0" COMMENT="" />
    <EXPORT ORDINAL="3234" NAME="?name@QLocale@@QBE?AVQString@@XZ" PURGE="4" COMMENT="" />
    <EXPORT ORDINAL="3235" NAME="?name@QMetaClassInfo@@QBEPBDXZ" PURGE="0" COMMENT="" />
    <EXPORT ORDINAL="3236" NAME="?name@QMetaEnum@@QBEPBDXZ" PURGE="0" COMMENT="" />
    <EXPORT ORDINAL="3237" NAME="?name@QMetaProperty@@QBEPBDXZ" PURGE="0" COMMENT="" />
    <EXPORT ORDINAL="3238" NAME="?name@QObject@@QBEPBDPBD@Z" PURGE="4" COMMENT="" />
    <EXPORT ORDINAL="3239" NAME="?name@QObject@@QBEPBDXZ" PURGE="0" COMMENT="" />
    <EXPORT ORDINAL="3240" NAME="?name@QXmlStreamAttribute@@QBE?AVQStringRef@@XZ" PURGE="4" COMMENT="" />
    <EXPORT ORDINAL="3241" NAME="?name@QXmlStreamEntityDeclaration@@QBE?AVQStringRef@@XZ" PURGE="4" COMMENT="" />
    <EXPORT ORDINAL="3242" NAME="?name@QXmlStreamNotationDeclaration@@QBE?AVQStringRef@@XZ" PURGE="4" COMMENT="" />
    <EXPORT ORDINAL="3243" NAME="?name@QXmlStreamReader@@QBE?AVQStringRef@@XZ" PURGE="4" COMMENT="" />
    <EXPORT ORDINAL="3244" NAME="?nameFilter@QDir@@QBE?AVQString@@XZ" PURGE="4" COMMENT="" />
    <EXPORT ORDINAL="3245" NAME="?nameFilters@QAbstractFileEngineIterator@@QBE?AVQStringList@@XZ" PURGE="4" COMMENT="" />
    <EXPORT ORDINAL="3246" NAME="?nameFilters@QDir@@QBE?AVQStringList@@XZ" PURGE="4" COMMENT="" />
    <EXPORT ORDINAL="3247" NAME="?nameFiltersFromString@QDir@@SA?AVQStringList@@ABVQString@@@Z" PURGE="0" COMMENT="" />
    <EXPORT ORDINAL="3248" NAME="?nameToType@QVariant@@SA?AW4Type@1@PBD@Z" PURGE="0" COMMENT="" />
    <EXPORT ORDINAL="3249" NAME="?namespaceDeclarations@QXmlStreamReader@@QBE?AV?$QVector@VQXmlStreamNamespaceDeclaration@@@@XZ" PURGE="4" COMMENT="" />
    <EXPORT ORDINAL="3250" NAME="?namespaceProcessing@QXmlStreamReader@@QBE_NXZ" PURGE="0" COMMENT="" />
    <EXPORT ORDINAL="3251" NAME="?namespaceUri@QXmlStreamAttribute@@QBE?AVQStringRef@@XZ" PURGE="4" COMMENT="" />
    <EXPORT ORDINAL="3252" NAME="?namespaceUri@QXmlStreamNamespaceDeclaration@@QBE?AVQStringRef@@XZ" PURGE="4" COMMENT="" />
    <EXPORT ORDINAL="3253" NAME="?namespaceUri@QXmlStreamReader@@QBE?AVQStringRef@@XZ" PURGE="4" COMMENT="" />
    <EXPORT ORDINAL="3254" NAME="?nativeArguments@QProcess@@QBE?AVQString@@XZ" PURGE="4" COMMENT="" />
    <EXPORT ORDINAL="3255" NAME="?nativeCountryName@QLocale@@QBE?AVQString@@XZ" PURGE="4" COMMENT="" />
    <EXPORT ORDINAL="3256" NAME="?nativeKey@QSharedMemory@@QBE?AVQString@@XZ" PURGE="4" COMMENT="" />
    <EXPORT ORDINAL="3257" NAME="?nativeLanguageName@QLocale@@QBE?AVQString@@XZ" PURGE="4" COMMENT="" />
    <EXPORT ORDINAL="3258" NAME="?negativeSign@QLocale@@QBE?AVQChar@@XZ" PURGE="4" COMMENT="" />
    <EXPORT ORDINAL="3259" NAME="?networkOrdered@QChar@@SA_NXZ" PURGE="0" COMMENT="" />
    <EXPORT ORDINAL="3260" NAME="?newInstance@QMetaObject@@QBEPAVQObject@@VQGenericArgument@@000000000@Z" PURGE="80" COMMENT="" />
    <EXPORT ORDINAL="3261" NAME="?next@QDirIterator@@QAE?AVQString@@XZ" PURGE="4" COMMENT="" />
    <EXPORT ORDINAL="3262" NAME="?nextNode@QHashData@@SAPAUNode@1@PAU21@@Z" PURGE="0" COMMENT="" />
    <EXPORT ORDINAL="3263" NAME="?node_create@QMapData@@QAEPAUNode@1@QAPAU21@H@Z" PURGE="8" COMMENT="" />
    <EXPORT ORDINAL="3264" NAME="?node_create@QMapData@@QAEPAUNode@1@QAPAU21@HH@Z" PURGE="12" COMMENT="" />
    <EXPORT ORDINAL="3265" NAME="?node_delete@QMapData@@QAEXQAPAUNode@1@HPAU21@@Z" PURGE="12" COMMENT="" />
    <EXPORT ORDINAL="3266" NAME="?noforcepoint@@YAAAVQTextStream@@AAV1@@Z" PURGE="0" COMMENT="" />
    <EXPORT ORDINAL="3267" NAME="?noforcesign@@YAAAVQTextStream@@AAV1@@Z" PURGE="0" COMMENT="" />
    <EXPORT ORDINAL="3268" NAME="?normalVector@QLineF@@QBE?AV1@XZ" PURGE="4" COMMENT="" />
    <EXPORT ORDINAL="3269" NAME="?normalize@QRect@@QBE?AV1@XZ" PURGE="4" COMMENT="" />
    <EXPORT ORDINAL="3270" NAME="?normalizeSignalSlot@QObject@@KA?AVQByteArray@@PBD@Z" PURGE="0" COMMENT="" />
    <EXPORT ORDINAL="3271" NAME="?normalized@QRect@@QBE?AV1@XZ" PURGE="4" COMMENT="" />
    <EXPORT ORDINAL="3272" NAME="?normalized@QRectF@@QBE?AV1@XZ" PURGE="4" COMMENT="" />
    <EXPORT ORDINAL="3273" NAME="?normalized@QString@@QBE?AV1@W4NormalizationForm@1@@Z" PURGE="8" COMMENT="" />
    <EXPORT ORDINAL="3274" NAME="?normalized@QString@@QBE?AV1@W4NormalizationForm@1@W4UnicodeVersion@QChar@@@Z" PURGE="12" COMMENT="" />
    <EXPORT ORDINAL="3275" NAME="?normalizedSignature@QMetaObject@@SA?AVQByteArray@@PBD@Z" PURGE="0" COMMENT="" />
    <EXPORT ORDINAL="3276" NAME="?normalizedType@QMetaObject@@SA?AVQByteArray@@PBD@Z" PURGE="0" COMMENT="" />
    <EXPORT ORDINAL="3277" NAME="?noshowbase@@YAAAVQTextStream@@AAV1@@Z" PURGE="0" COMMENT="" />
    <EXPORT ORDINAL="3278" NAME="?nospace@QDebug@@QAEAAV1@XZ" PURGE="0" COMMENT="" />
    <EXPORT ORDINAL="3279" NAME="?notationDeclarations@QXmlStreamReader@@QBE?AV?$QVector@VQXmlStreamNotationDeclaration@@@@XZ" PURGE="4" COMMENT="" />
    <EXPORT ORDINAL="3280" NAME="?notationName@QXmlStreamEntityDeclaration@@QBE?AVQStringRef@@XZ" PURGE="4" COMMENT="" />
    <EXPORT ORDINAL="3281" NAME="?notify@QCoreApplication@@UAE_NPAVQObject@@PAVQEvent@@@Z" PURGE="8" COMMENT="" />
    <EXPORT ORDINAL="3282" NAME="?notifyInternal@QCoreApplication@@AAE_NPAVQObject@@PAVQEvent@@@Z" PURGE="8" COMMENT="" />
    <EXPORT ORDINAL="3283" NAME="?notifySignal@QMetaProperty@@QBE?AVQMetaMethod@@XZ" PURGE="4" COMMENT="" />
    <EXPORT ORDINAL="3284" NAME="?notifySignalIndex@QMetaProperty@@QBEHXZ" PURGE="0" COMMENT="" />
    <EXPORT ORDINAL="3285" NAME="?notify_helper@QCoreApplicationPrivate@@QAE_NPAVQObject@@PAVQEvent@@@Z" PURGE="8" COMMENT="" />
    <EXPORT ORDINAL="3286" NAME="?nsecsElapsed@QElapsedTimer@@QBE_JXZ" PURGE="0" COMMENT="" />
    <EXPORT ORDINAL="3287" NAME="?nulTerminated@QByteArray@@ABE?AV1@XZ" PURGE="4" COMMENT="" />
    <EXPORT ORDINAL="3288" NAME="?null@QString@@2UNull@1@B" PURGE="-1" COMMENT="" />
    <EXPORT ORDINAL="3289" NAME="?numCaptures@QRegExp@@QBEHXZ" PURGE="0" COMMENT="" />
    <EXPORT ORDINAL="3290" NAME="?number@QByteArray@@SA?AV1@HH@Z" PURGE="0" COMMENT="" />
    <EXPORT ORDINAL="3291" NAME="?number@QByteArray@@SA?AV1@IH@Z" PURGE="0" COMMENT="" />
    <EXPORT ORDINAL="3292" NAME="?number@QByteArray@@SA?AV1@NDH@Z" PURGE="0" COMMENT="" />
    <EXPORT ORDINAL="3293" NAME="?number@QByteArray@@SA?AV1@_JH@Z" PURGE="0" COMMENT="" />
    <EXPORT ORDINAL="3294" NAME="?number@QByteArray@@SA?AV1@_KH@Z" PURGE="0" COMMENT="" />
    <EXPORT ORDINAL="3295" NAME="?number@QString@@SA?AV1@HH@Z" PURGE="0" COMMENT="" />
    <EXPORT ORDINAL="3296" NAME="?number@QString@@SA?AV1@IH@Z" PURGE="0" COMMENT="" />
    <EXPORT ORDINAL="3297" NAME="?number@QString@@SA?AV1@JH@Z" PURGE="0" COMMENT="" />
    <EXPORT ORDINAL="3298" NAME="?number@QString@@SA?AV1@KH@Z" PURGE="0" COMMENT="" />
    <EXPORT ORDINAL="3299" NAME="?number@QString@@SA?AV1@NDH@Z" PURGE="0" COMMENT="" />
    <EXPORT ORDINAL="3300" NAME="?number@QString@@SA?AV1@_JH@Z" PURGE="0" COMMENT="" />
    <EXPORT ORDINAL="3301" NAME="?number@QString@@SA?AV1@_KH@Z" PURGE="0" COMMENT="" />
    <EXPORT ORDINAL="3302" NAME="?numberFlags@QTextStream@@QBE?AV?$QFlags@W4NumberFlag@QTextStream@@@@XZ" PURGE="4" COMMENT="" />
    <EXPORT ORDINAL="3303" NAME="?numberOptions@QLocale@@QBE?AV?$QFlags@W4NumberOption@QLocale@@@@XZ" PURGE="4" COMMENT="" />
    <EXPORT ORDINAL="3304" NAME="?numberToCLocale@QLocalePrivate@@QBE_NABVQString@@W4GroupSeparatorMode@1@PAV?$QVarLengthArray@D$0BAA@@@@Z" PURGE="12" COMMENT="" />
    <EXPORT ORDINAL="3305" NAME="?object@WrappedEvent@QStateMachine@@QBEPAVQObject@@XZ" PURGE="0" COMMENT="" />
    <EXPORT ORDINAL="3306" NAME="?objectDestroyed@QObjectCleanupHandler@@AAEXPAVQObject@@@Z" PURGE="4" COMMENT="" />
    <EXPORT ORDINAL="3307" NAME="?objectName@QObject@@QBE?AVQString@@XZ" PURGE="4" COMMENT="" />
    <EXPORT ORDINAL="3308" NAME="?objectNameChanged@QAbstractDeclarativeData@@2P6AXPAV1@PAVQObject@@@ZA" PURGE="-1" COMMENT="" />
    <EXPORT ORDINAL="3309" NAME="?oct@@YAAAVQTextStream@@AAV1@@Z" PURGE="0" COMMENT="" />
    <EXPORT ORDINAL="3310" NAME="?onEntry@QFinalState@@MAEXPAVQEvent@@@Z" PURGE="4" COMMENT="" />
    <EXPORT ORDINAL="3311" NAME="?onEntry@QHistoryState@@MAEXPAVQEvent@@@Z" PURGE="4" COMMENT="" />
    <EXPORT ORDINAL="3312" NAME="?onEntry@QState@@MAEXPAVQEvent@@@Z" PURGE="4" COMMENT="" />
    <EXPORT ORDINAL="3313" NAME="?onEntry@QStateMachine@@MAEXPAVQEvent@@@Z" PURGE="4" COMMENT="" />
    <EXPORT ORDINAL="3314" NAME="?onExit@QFinalState@@MAEXPAVQEvent@@@Z" PURGE="4" COMMENT="" />
    <EXPORT ORDINAL="3315" NAME="?onExit@QHistoryState@@MAEXPAVQEvent@@@Z" PURGE="4" COMMENT="" />
    <EXPORT ORDINAL="3316" NAME="?onExit@QState@@MAEXPAVQEvent@@@Z" PURGE="4" COMMENT="" />
    <EXPORT ORDINAL="3317" NAME="?onExit@QStateMachine@@MAEXPAVQEvent@@@Z" PURGE="4" COMMENT="" />
    <EXPORT ORDINAL="3318" NAME="?onTransition@QEventTransition@@MAEXPAVQEvent@@@Z" PURGE="4" COMMENT="" />
    <EXPORT ORDINAL="3319" NAME="?onTransition@QSignalTransition@@MAEXPAVQEvent@@@Z" PURGE="4" COMMENT="" />
    <EXPORT ORDINAL="3320" NAME="?open@QAbstractFileEngine@@UAE_NV?$QFlags@W4OpenModeFlag@QIODevice@@@@@Z" PURGE="4" COMMENT="" />
    <EXPORT ORDINAL="3321" NAME="?open@QBuffer@@UAE_NV?$QFlags@W4OpenModeFlag@QIODevice@@@@@Z" PURGE="4" COMMENT="" />
    <EXPORT ORDINAL="3322" NAME="?open@QFSFileEngine@@QAE_NV?$QFlags@W4OpenModeFlag@QIODevice@@@@H@Z" PURGE="8" COMMENT="" />
    <EXPORT ORDINAL="3323" NAME="?open@QFSFileEngine@@QAE_NV?$QFlags@W4OpenModeFlag@QIODevice@@@@HV?$QFlags@W4FileHandleFlag@QFile@@@@@Z" PURGE="12" COMMENT="" />
    <EXPORT ORDINAL="3324" NAME="?open@QFSFileEngine@@QAE_NV?$QFlags@W4OpenModeFlag@QIODevice@@@@PAU_iobuf@@@Z" PURGE="8" COMMENT="" />
    <EXPORT ORDINAL="3325" NAME="?open@QFSFileEngine@@QAE_NV?$QFlags@W4OpenModeFlag@QIODevice@@@@PAU_iobuf@@V?$QFlags@W4FileHandleFlag@QFile@@@@@Z" PURGE="12" COMMENT="" />
    <EXPORT ORDINAL="3326" NAME="?open@QFSFileEngine@@UAE_NV?$QFlags@W4OpenModeFlag@QIODevice@@@@@Z" PURGE="4" COMMENT="" />
    <EXPORT ORDINAL="3327" NAME="?open@QFile@@QAE_NHV?$QFlags@W4OpenModeFlag@QIODevice@@@@@Z" PURGE="8" COMMENT="" />
    <EXPORT ORDINAL="3328" NAME="?open@QFile@@QAE_NHV?$QFlags@W4OpenModeFlag@QIODevice@@@@V?$QFlags@W4FileHandleFlag@QFile@@@@@Z" PURGE="12" COMMENT="" />
    <EXPORT ORDINAL="3329" NAME="?open@QFile@@QAE_NPAU_iobuf@@V?$QFlags@W4OpenModeFlag@QIODevice@@@@@Z" PURGE="8" COMMENT="" />
    <EXPORT ORDINAL="3330" NAME="?open@QFile@@QAE_NPAU_iobuf@@V?$QFlags@W4OpenModeFlag@QIODevice@@@@V?$QFlags@W4FileHandleFlag@QFile@@@@@Z" PURGE="12" COMMENT="" />
    <EXPORT ORDINAL="3331" NAME="?open@QFile@@QAE_NV?$QFlags@W4OpenModeFlag@QIODevice@@@@H@Z" PURGE="8" COMMENT="" />
    <EXPORT ORDINAL="3332" NAME="?open@QFile@@QAE_NV?$QFlags@W4OpenModeFlag@QIODevice@@@@PAU_iobuf@@@Z" PURGE="8" COMMENT="" />
    <EXPORT ORDINAL="3333" NAME="?open@QFile@@UAE_NV?$QFlags@W4OpenModeFlag@QIODevice@@@@@Z" PURGE="4" COMMENT="" />
    <EXPORT ORDINAL="3334" NAME="?open@QIODevice@@UAE_NV?$QFlags@W4OpenModeFlag@QIODevice@@@@@Z" PURGE="4" COMMENT="" />
    <EXPORT ORDINAL="3335" NAME="?open@QTemporaryFile@@MAE_NV?$QFlags@W4OpenModeFlag@QIODevice@@@@@Z" PURGE="4" COMMENT="" />
    <EXPORT ORDINAL="3336" NAME="?open@QTemporaryFile@@QAE_NXZ" PURGE="0" COMMENT="" />
    <EXPORT ORDINAL="3337" NAME="?openMode@QIODevice@@QBE?AV?$QFlags@W4OpenModeFlag@QIODevice@@@@XZ" PURGE="4" COMMENT="" />
    <EXPORT ORDINAL="3338" NAME="?organizationDomain@QCoreApplication@@SA?AVQString@@XZ" PURGE="0" COMMENT="" />
    <EXPORT ORDINAL="3339" NAME="?organizationName@QCoreApplication@@SA?AVQString@@XZ" PURGE="0" COMMENT="" />
    <EXPORT ORDINAL="3340" NAME="?organizationName@QSettings@@QBE?AVQString@@XZ" PURGE="4" COMMENT="" />
    <EXPORT ORDINAL="3341" NAME="?overshoot@QEasingCurve@@QBENXZ" PURGE="0" COMMENT="" />
    <EXPORT ORDINAL="3342" NAME="?owner@QAbstractFileEngine@@UBE?AVQString@@W4FileOwner@1@@Z" PURGE="8" COMMENT="" />
    <EXPORT ORDINAL="3343" NAME="?owner@QFSFileEngine@@UBE?AVQString@@W4FileOwner@QAbstractFileEngine@@@Z" PURGE="8" COMMENT="" />
    <EXPORT ORDINAL="3344" NAME="?owner@QFileInfo@@QBE?AVQString@@XZ" PURGE="4" COMMENT="" />
    <EXPORT ORDINAL="3345" NAME="?ownerId@QAbstractFileEngine@@UBEIW4FileOwner@1@@Z" PURGE="4" COMMENT="" />
    <EXPORT ORDINAL="3346" NAME="?ownerId@QFSFileEngine@@UBEIW4FileOwner@QAbstractFileEngine@@@Z" PURGE="4" COMMENT="" />
    <EXPORT ORDINAL="3347" NAME="?ownerId@QFileInfo@@QBEIXZ" PURGE="0" COMMENT="" />
    <EXPORT ORDINAL="3348" NAME="?p1@QLine@@QBE?AVQPoint@@XZ" PURGE="4" COMMENT="" />
    <EXPORT ORDINAL="3349" NAME="?p1@QLineF@@QBE?AVQPointF@@XZ" PURGE="4" COMMENT="" />
    <EXPORT ORDINAL="3350" NAME="?p2@QLine@@QBE?AVQPoint@@XZ" PURGE="4" COMMENT="" />
    <EXPORT ORDINAL="3351" NAME="?p2@QLineF@@QBE?AVQPointF@@XZ" PURGE="4" COMMENT="" />
    <EXPORT ORDINAL="3352" NAME="?padChar@QTextStream@@QBE?AVQChar@@XZ" PURGE="4" COMMENT="" />
    <EXPORT ORDINAL="3353" NAME="?parameterNames@QMetaMethod@@QBE?AV?$QList@VQByteArray@@@@XZ" PURGE="4" COMMENT="" />
    <EXPORT ORDINAL="3354" NAME="?parameterTypes@QMetaMethod@@QBE?AV?$QList@VQByteArray@@@@XZ" PURGE="4" COMMENT="" />
    <EXPORT ORDINAL="3355" NAME="?parent@QAbstractListModel@@EBE?AVQModelIndex@@ABV2@@Z" PURGE="8" COMMENT="" />
    <EXPORT ORDINAL="3356" NAME="?parent@QAbstractTableModel@@EBE?AVQModelIndex@@ABV2@@Z" PURGE="8" COMMENT="" />
    <EXPORT ORDINAL="3357" NAME="?parent@QModelIndex@@QBE?AV1@XZ" PURGE="4" COMMENT="" />
    <EXPORT ORDINAL="3358" NAME="?parent@QObject@@QBEPAV1@XZ" PURGE="0" COMMENT="" />
    <EXPORT ORDINAL="3359" NAME="?parent@QPersistentModelIndex@@QBE?AVQModelIndex@@XZ" PURGE="4" COMMENT="" />
    <EXPORT ORDINAL="3360" NAME="?parentChanged@QAbstractDeclarativeData@@2P6AXPAV1@PAVQObject@@1@ZA" PURGE="-1" COMMENT="" />
    <EXPORT ORDINAL="3361" NAME="?parentState@QAbstractState@@QBEPAVQState@@XZ" PURGE="0" COMMENT="" />
    <EXPORT ORDINAL="3362" NAME="?parse@QDateTimeParser@@QBE?AUStateNode@1@AAVQString@@AAHABVQDateTime@@_N@Z" PURGE="20" COMMENT="" />
    <EXPORT ORDINAL="3363" NAME="?parseFormat@QDateTimeParser@@QAE_NABVQString@@@Z" PURGE="4" COMMENT="" />
    <EXPORT ORDINAL="3364" NAME="?parseSection@QDateTimeParser@@QBEHABVQDateTime@@HAAVQString@@AAHHAAW4State@1@PAH@Z" PURGE="28" COMMENT="" />
    <EXPORT ORDINAL="3365" NAME="?password@QUrl@@QBE?AVQString@@XZ" PURGE="4" COMMENT="" />
    <EXPORT ORDINAL="3366" NAME="?path@QAbstractFileEngineIterator@@QBE?AVQString@@XZ" PURGE="4" COMMENT="" />
    <EXPORT ORDINAL="3367" NAME="?path@QDir@@QBE?AVQString@@XZ" PURGE="4" COMMENT="" />
    <EXPORT ORDINAL="3368" NAME="?path@QDirIterator@@QBE?AVQString@@XZ" PURGE="4" COMMENT="" />
    <EXPORT ORDINAL="3369" NAME="?path@QFileInfo@@QBE?AVQString@@XZ" PURGE="4" COMMENT="" />
    <EXPORT ORDINAL="3370" NAME="?path@QUrl@@QBE?AVQString@@XZ" PURGE="4" COMMENT="" />
    <EXPORT ORDINAL="3371" NAME="?pattern@QByteArrayMatcher@@QBE?AVQByteArray@@XZ" PURGE="4" COMMENT="" />
    <EXPORT ORDINAL="3372" NAME="?pattern@QRegExp@@QBE?AVQString@@XZ" PURGE="4" COMMENT="" />
    <EXPORT ORDINAL="3373" NAME="?pattern@QStringMatcher@@QBE?AVQString@@XZ" PURGE="4" COMMENT="" />
    <EXPORT ORDINAL="3374" NAME="?patternSyntax@QRegExp@@QBE?AW4PatternSyntax@1@XZ" PURGE="0" COMMENT="" />
    <EXPORT ORDINAL="3375" NAME="?pause@QAbstractAnimation@@QAEXXZ" PURGE="0" COMMENT="" />
    <EXPORT ORDINAL="3376" NAME="?pause@QFutureWatcherBase@@QAEXXZ" PURGE="0" COMMENT="" />
    <EXPORT ORDINAL="3377" NAME="?paused@QFutureWatcherBase@@IAEXXZ" PURGE="0" COMMENT="" />
    <EXPORT ORDINAL="3378" NAME="?peek@QIODevice@@QAE?AVQByteArray@@_J@Z" PURGE="12" COMMENT="" />
    <EXPORT ORDINAL="3379" NAME="?peek@QIODevice@@QAE_JPAD_J@Z" PURGE="12" COMMENT="" />
    <EXPORT ORDINAL="3380" NAME="?peek@QIODevicePrivate@@UAE?AVQByteArray@@_J@Z" PURGE="12" COMMENT="" />
    <EXPORT ORDINAL="3381" NAME="?peek@QIODevicePrivate@@UAE_JPAD_J@Z" PURGE="12" COMMENT="" />
    <EXPORT ORDINAL="3382" NAME="?percent@QLocale@@QBE?AVQChar@@XZ" PURGE="4" COMMENT="" />
    <EXPORT ORDINAL="3383" NAME="?percent@QLocalePrivate@@QBE?AVQChar@@XZ" PURGE="4" COMMENT="" />
    <EXPORT ORDINAL="3384" NAME="?period@QEasingCurve@@QBENXZ" PURGE="0" COMMENT="" />
    <EXPORT ORDINAL="3385" NAME="?permission@QFileInfo@@QBE_NV?$QFlags@W4Permission@QFile@@@@@Z" PURGE="4" COMMENT="" />
    <EXPORT ORDINAL="3386" NAME="?permission@QFileInfo@@QBE_NV?$QFlags@W4Permission@QFileInfo@@@@@Z" PURGE="4" COMMENT="" />
    <EXPORT ORDINAL="3387" NAME="?permissions@QFile@@QBE?AV?$QFlags@W4Permission@QFile@@@@XZ" PURGE="4" COMMENT="" />
    <EXPORT ORDINAL="3388" NAME="?permissions@QFile@@SA?AV?$QFlags@W4Permission@QFile@@@@ABVQString@@@Z" PURGE="0" COMMENT="" />
    <EXPORT ORDINAL="3389" NAME="?permissions@QFileInfo@@QBE?AV?$QFlags@W4Permission@QFile@@@@XZ" PURGE="4" COMMENT="" />
    <EXPORT ORDINAL="3390" NAME="?persistentIndexList@QAbstractItemModel@@IBE?AV?$QList@VQModelIndex@@@@XZ" PURGE="4" COMMENT="" />
    <EXPORT ORDINAL="3391" NAME="?pid@QProcess@@QBEPAU_PROCESS_INFORMATION@@XZ" PURGE="0" COMMENT="" />
    <EXPORT ORDINAL="3392" NAME="?placeMetaCall@QMetaCallEvent@@UAEXPAVQObject@@@Z" PURGE="4" COMMENT="" />
    <EXPORT ORDINAL="3393" NAME="?plus@QLocalePrivate@@QBE?AVQChar@@XZ" PURGE="4" COMMENT="" />
    <EXPORT ORDINAL="3394" NAME="?pmText@QLocale@@QBE?AVQString@@XZ" PURGE="4" COMMENT="" />
    <EXPORT ORDINAL="3395" NAME="?pointAt@QLineF@@QBE?AVQPointF@@N@Z" PURGE="12" COMMENT="" />
    <EXPORT ORDINAL="3396" NAME="?polished@QChildEvent@@QBE_NXZ" PURGE="0" COMMENT="" />
    <EXPORT ORDINAL="3397" NAME="?pop_back@?$QVector@VQPoint@@@@QAEXXZ" PURGE="0" COMMENT="" />
    <EXPORT ORDINAL="3398" NAME="?pop_back@?$QVector@VQPointF@@@@QAEXXZ" PURGE="0" COMMENT="" />
    <EXPORT ORDINAL="3399" NAME="?pop_back@?$QVector@VQXmlStreamAttribute@@@@QAEXXZ" PURGE="0" COMMENT="" />
    <EXPORT ORDINAL="3400" NAME="?pop_front@?$QVector@VQPoint@@@@QAEXXZ" PURGE="0" COMMENT="" />
    <EXPORT ORDINAL="3401" NAME="?pop_front@?$QVector@VQPointF@@@@QAEXXZ" PURGE="0" COMMENT="" />
    <EXPORT ORDINAL="3402" NAME="?pop_front@?$QVector@VQXmlStreamAttribute@@@@QAEXXZ" PURGE="0" COMMENT="" />
    <EXPORT ORDINAL="3403" NAME="?port@QUrl@@QBEHH@Z" PURGE="4" COMMENT="" />
    <EXPORT ORDINAL="3404" NAME="?port@QUrl@@QBEHXZ" PURGE="0" COMMENT="" />
    <EXPORT ORDINAL="3405" NAME="?pos@QAbstractFileEngine@@UBE_JXZ" PURGE="0" COMMENT="" />
    <EXPORT ORDINAL="3406" NAME="?pos@QBuffer@@UBE_JXZ" PURGE="0" COMMENT="" />
    <EXPORT ORDINAL="3407" NAME="?pos@QFSFileEngine@@UBE_JXZ" PURGE="0" COMMENT="" />
    <EXPORT ORDINAL="3408" NAME="?pos@QFile@@UBE_JXZ" PURGE="0" COMMENT="" />
    <EXPORT ORDINAL="3409" NAME="?pos@QIODevice@@UBE_JXZ" PURGE="0" COMMENT="" />
    <EXPORT ORDINAL="3410" NAME="?pos@QRegExp@@QAEHH@Z" PURGE="4" COMMENT="" />
    <EXPORT ORDINAL="3411" NAME="?pos@QRegExp@@QBEHH@Z" PURGE="4" COMMENT="" />
    <EXPORT ORDINAL="3412" NAME="?pos@QTextStream@@QBE_JXZ" PURGE="0" COMMENT="" />
    <EXPORT ORDINAL="3413" NAME="?position@QStringRef@@QBEHXZ" PURGE="0" COMMENT="" />
    <EXPORT ORDINAL="3414" NAME="?position@QTextBoundaryFinder@@QBEHXZ" PURGE="0" COMMENT="" />
    <EXPORT ORDINAL="3415" NAME="?position@QXmlStreamStringRef@@QBEHXZ" PURGE="0" COMMENT="" />
    <EXPORT ORDINAL="3416" NAME="?positiveSign@QLocale@@QBE?AVQChar@@XZ" PURGE="4" COMMENT="" />
    <EXPORT ORDINAL="3417" NAME="?postDelayedEvent@QStateMachine@@QAEHPAVQEvent@@H@Z" PURGE="8" COMMENT="" />
    <EXPORT ORDINAL="3418" NAME="?postEvent@QCoreApplication@@SAXPAVQObject@@PAVQEvent@@@Z" PURGE="0" COMMENT="" />
    <EXPORT ORDINAL="3419" NAME="?postEvent@QCoreApplication@@SAXPAVQObject@@PAVQEvent@@H@Z" PURGE="0" COMMENT="" />
    <EXPORT ORDINAL="3420" NAME="?postEvent@QStateMachine@@QAEXPAVQEvent@@W4EventPriority@1@@Z" PURGE="8" COMMENT="" />
    <EXPORT ORDINAL="3421" NAME="?postExternalEvent@QStateMachinePrivate@@QAEXPAVQEvent@@@Z" PURGE="4" COMMENT="" />
    <EXPORT ORDINAL="3422" NAME="?postInternalEvent@QStateMachinePrivate@@QAEXPAVQEvent@@@Z" PURGE="4" COMMENT="" />
    <EXPORT ORDINAL="3423" NAME="?potentialValue@QDateTimeParser@@QBE_NABVQString@@HHHABVQDateTime@@H@Z" PURGE="24" COMMENT="" />
    <EXPORT ORDINAL="3424" NAME="?precision@QTextStream@@QAEHH@Z" PURGE="4" COMMENT="" />
    <EXPORT ORDINAL="3425" NAME="?prefix@QXmlStreamAttribute@@QBE?AVQStringRef@@XZ" PURGE="4" COMMENT="" />
    <EXPORT ORDINAL="3426" NAME="?prefix@QXmlStreamNamespaceDeclaration@@QBE?AVQStringRef@@XZ" PURGE="4" COMMENT="" />
    <EXPORT ORDINAL="3427" NAME="?prefix@QXmlStreamReader@@QBE?AVQStringRef@@XZ" PURGE="4" COMMENT="" />
    <EXPORT ORDINAL="3428" NAME="?prepend@?$QVector@VQPoint@@@@QAEXABVQPoint@@@Z" PURGE="4" COMMENT="" />
    <EXPORT ORDINAL="3429" NAME="?prepend@?$QVector@VQPointF@@@@QAEXABVQPointF@@@Z" PURGE="4" COMMENT="" />
    <EXPORT ORDINAL="3430" NAME="?prepend@?$QVector@VQXmlStreamAttribute@@@@QAEXABVQXmlStreamAttribute@@@Z" PURGE="4" COMMENT="" />
    <EXPORT ORDINAL="3431" NAME="?prepend@QByteArray@@QAEAAV1@ABV1@@Z" PURGE="4" COMMENT="" />
    <EXPORT ORDINAL="3432" NAME="?prepend@QByteArray@@QAEAAV1@D@Z" PURGE="4" COMMENT="" />
    <EXPORT ORDINAL="3433" NAME="?prepend@QByteArray@@QAEAAV1@PBD@Z" PURGE="4" COMMENT="" />
    <EXPORT ORDINAL="3434" NAME="?prepend@QByteArray@@QAEAAV1@PBDH@Z" PURGE="8" COMMENT="" />
    <EXPORT ORDINAL="3435" NAME="?prepend@QListData@@QAEPAPAXXZ" PURGE="0" COMMENT="" />
    <EXPORT ORDINAL="3436" NAME="?prepend@QString@@QAEAAV1@ABV1@@Z" PURGE="4" COMMENT="" />
    <EXPORT ORDINAL="3437" NAME="?prepend@QString@@QAEAAV1@ABVQByteArray@@@Z" PURGE="4" COMMENT="" />
    <EXPORT ORDINAL="3438" NAME="?prepend@QString@@QAEAAV1@ABVQLatin1String@@@Z" PURGE="4" COMMENT="" />
    <EXPORT ORDINAL="3439" NAME="?prepend@QString@@QAEAAV1@PBD@Z" PURGE="4" COMMENT="" />
    <EXPORT ORDINAL="3440" NAME="?prepend@QString@@QAEAAV1@VQChar@@@Z" PURGE="4" COMMENT="" />
    <EXPORT ORDINAL="3441" NAME="?previousNode@QHashData@@SAPAUNode@1@PAU21@@Z" PURGE="0" COMMENT="" />
    <EXPORT ORDINAL="3442" NAME="?priority@QThread@@QBE?AW4Priority@1@XZ" PURGE="0" COMMENT="" />
    <EXPORT ORDINAL="3443" NAME="?processChannelMode@QProcess@@QBE?AW4ProcessChannelMode@1@XZ" PURGE="0" COMMENT="" />
    <EXPORT ORDINAL="3444" NAME="?processCommandLineArguments@QCoreApplicationPrivate@@QAEXXZ" PURGE="0" COMMENT="" />
    <EXPORT ORDINAL="3445" NAME="?processEnvironment@QProcess@@QBE?AVQProcessEnvironment@@XZ" PURGE="4" COMMENT="" />
    <EXPORT ORDINAL="3446" NAME="?processEvents@QCoreApplication@@SAXV?$QFlags@W4ProcessEventsFlag@QEventLoop@@@@@Z" PURGE="0" COMMENT="" />
    <EXPORT ORDINAL="3447" NAME="?processEvents@QCoreApplication@@SAXV?$QFlags@W4ProcessEventsFlag@QEventLoop@@@@H@Z" PURGE="0" COMMENT="" />
    <EXPORT ORDINAL="3448" NAME="?processEvents@QEventDispatcherWin32@@UAE_NV?$QFlags@W4ProcessEventsFlag@QEventLoop@@@@@Z" PURGE="4" COMMENT="" />
    <EXPORT ORDINAL="3449" NAME="?processEvents@QEventLoop@@QAEXV?$QFlags@W4ProcessEventsFlag@QEventLoop@@@@H@Z" PURGE="8" COMMENT="" />
    <EXPORT ORDINAL="3450" NAME="?processEvents@QEventLoop@@QAE_NV?$QFlags@W4ProcessEventsFlag@QEventLoop@@@@@Z" PURGE="4" COMMENT="" />
    <EXPORT ORDINAL="3451" NAME="?processEvents@QStateMachinePrivate@@QAEXW4EventProcessingMode@1@@Z" PURGE="4" COMMENT="" />
    <EXPORT ORDINAL="3452" NAME="?processOneEvent@QCoreApplication@@SAXXZ" PURGE="0" COMMENT="" />
    <EXPORT ORDINAL="3453" NAME="?processingInstructionData@QXmlStreamReader@@QBE?AVQStringRef@@XZ" PURGE="4" COMMENT="" />
    <EXPORT ORDINAL="3454" NAME="?processingInstructionTarget@QXmlStreamReader@@QBE?AVQStringRef@@XZ" PURGE="4" COMMENT="" />
    <EXPORT ORDINAL="3455" NAME="?progressMaximum@QFutureInterfaceBase@@QBEHXZ" PURGE="0" COMMENT="" />
    <EXPORT ORDINAL="3456" NAME="?progressMaximum@QFutureWatcherBase@@QBEHXZ" PURGE="0" COMMENT="" />
    <EXPORT ORDINAL="3457" NAME="?progressMinimum@QFutureInterfaceBase@@QBEHXZ" PURGE="0" COMMENT="" />
    <EXPORT ORDINAL="3458" NAME="?progressMinimum@QFutureWatcherBase@@QBEHXZ" PURGE="0" COMMENT="" />
    <EXPORT ORDINAL="3459" NAME="?progressRangeChanged@QFutureWatcherBase@@IAEXHH@Z" PURGE="8" COMMENT="" />
    <EXPORT ORDINAL="3460" NAME="?progressText@QFutureInterfaceBase@@QBE?AVQString@@XZ" PURGE="4" COMMENT="" />
    <EXPORT ORDINAL="3461" NAME="?progressText@QFutureWatcherBase@@QBE?AVQString@@XZ" PURGE="4" COMMENT="" />
    <EXPORT ORDINAL="3462" NAME="?progressTextChanged@QFutureWatcherBase@@IAEXABVQString@@@Z" PURGE="4" COMMENT="" />
    <EXPORT ORDINAL="3463" NAME="?progressValue@QFutureInterfaceBase@@QBEHXZ" PURGE="0" COMMENT="" />
    <EXPORT ORDINAL="3464" NAME="?progressValue@QFutureWatcherBase@@QBEHXZ" PURGE="0" COMMENT="" />
    <EXPORT ORDINAL="3465" NAME="?progressValueChanged@QFutureWatcherBase@@IAEXH@Z" PURGE="4" COMMENT="" />
    <EXPORT ORDINAL="3466" NAME="?properAncestors@QStateMachinePrivate@@SA?AV?$QList@PAVQState@@@@PBVQAbstractState@@PBVQState@@@Z" PURGE="0" COMMENT="" />
    <EXPORT ORDINAL="3467" NAME="?properties@QUnicodeTables@@YIPBUProperties@1@G@Z" PURGE="0" COMMENT="" />
    <EXPORT ORDINAL="3468" NAME="?properties@QUnicodeTables@@YIPBUProperties@1@I@Z" PURGE="0" COMMENT="" />
    <EXPORT ORDINAL="3469" NAME="?propertiesAssigned@QState@@IAEXXZ" PURGE="0" COMMENT="" />
    <EXPORT ORDINAL="3470" NAME="?property@QMetaObject@@QBE?AVQMetaProperty@@H@Z" PURGE="8" COMMENT="" />
    <EXPORT ORDINAL="3471" NAME="?property@QObject@@QBE?AVQVariant@@PBD@Z" PURGE="8" COMMENT="" />
    <EXPORT ORDINAL="3472" NAME="?propertyCount@QMetaObject@@QBEHXZ" PURGE="0" COMMENT="" />
    <EXPORT ORDINAL="3473" NAME="?propertyIndex@QMetaProperty@@QBEHXZ" PURGE="0" COMMENT="" />
    <EXPORT ORDINAL="3474" NAME="?propertyName@QDynamicPropertyChangeEvent@@QBE?AVQByteArray@@XZ" PURGE="4" COMMENT="" />
    <EXPORT ORDINAL="3475" NAME="?propertyName@QPropertyAnimation@@QBE?AVQByteArray@@XZ" PURGE="4" COMMENT="" />
    <EXPORT ORDINAL="3476" NAME="?propertyOffset@QMetaObject@@QBEHXZ" PURGE="0" COMMENT="" />
    <EXPORT ORDINAL="3477" NAME="?protocol@QUrl@@QBE?AVQString@@XZ" PURGE="4" COMMENT="" />
    <EXPORT ORDINAL="3478" NAME="?publicId@QXmlStreamEntityDeclaration@@QBE?AVQStringRef@@XZ" PURGE="4" COMMENT="" />
    <EXPORT ORDINAL="3479" NAME="?publicId@QXmlStreamNotationDeclaration@@QBE?AVQStringRef@@XZ" PURGE="4" COMMENT="" />
    <EXPORT ORDINAL="3480" NAME="?push_back@?$QVector@VQPoint@@@@QAEXABVQPoint@@@Z" PURGE="4" COMMENT="" />
    <EXPORT ORDINAL="3481" NAME="?push_back@?$QVector@VQPointF@@@@QAEXABVQPointF@@@Z" PURGE="4" COMMENT="" />
    <EXPORT ORDINAL="3482" NAME="?push_back@?$QVector@VQXmlStreamAttribute@@@@QAEXABVQXmlStreamAttribute@@@Z" PURGE="4" COMMENT="" />
    <EXPORT ORDINAL="3483" NAME="?push_back@QByteArray@@QAEXABV1@@Z" PURGE="4" COMMENT="" />
    <EXPORT ORDINAL="3484" NAME="?push_back@QByteArray@@QAEXD@Z" PURGE="4" COMMENT="" />
    <EXPORT ORDINAL="3485" NAME="?push_back@QByteArray@@QAEXPBD@Z" PURGE="4" COMMENT="" />
    <EXPORT ORDINAL="3486" NAME="?push_back@QString@@QAEXABV1@@Z" PURGE="4" COMMENT="" />
    <EXPORT ORDINAL="3487" NAME="?push_back@QString@@QAEXVQChar@@@Z" PURGE="4" COMMENT="" />
    <EXPORT ORDINAL="3488" NAME="?push_front@?$QVector@VQPoint@@@@QAEXABVQPoint@@@Z" PURGE="4" COMMENT="" />
    <EXPORT ORDINAL="3489" NAME="?push_front@?$QVector@VQPointF@@@@QAEXABVQPointF@@@Z" PURGE="4" COMMENT="" />
    <EXPORT ORDINAL="3490" NAME="?push_front@?$QVector@VQXmlStreamAttribute@@@@QAEXABVQXmlStreamAttribute@@@Z" PURGE="4" COMMENT="" />
    <EXPORT ORDINAL="3491" NAME="?push_front@QByteArray@@QAEXABV1@@Z" PURGE="4" COMMENT="" />
    <EXPORT ORDINAL="3492" NAME="?push_front@QByteArray@@QAEXD@Z" PURGE="4" COMMENT="" />
    <EXPORT ORDINAL="3493" NAME="?push_front@QByteArray@@QAEXPBD@Z" PURGE="4" COMMENT="" />
    <EXPORT ORDINAL="3494" NAME="?push_front@QString@@QAEXABV1@@Z" PURGE="4" COMMENT="" />
    <EXPORT ORDINAL="3495" NAME="?push_front@QString@@QAEXVQChar@@@Z" PURGE="4" COMMENT="" />
    <EXPORT ORDINAL="3496" NAME="?putChar@QIODevice@@QAE_ND@Z" PURGE="-1" COMMENT="" />
    <EXPORT ORDINAL="3497" NAME="?putCharHelper@QIODevicePrivate@@UAE_ND@Z" PURGE="4" COMMENT="" />
    <EXPORT ORDINAL="3498" NAME="?putch@QIODevice@@QAEHH@Z" PURGE="4" COMMENT="" />
    <EXPORT ORDINAL="3499" NAME="?qAddPostRoutine@@YAXP6AXXZ@Z" PURGE="0" COMMENT="" />
    <EXPORT ORDINAL="3500" NAME="?qAllocMore@@YAHHH@Z" PURGE="0" COMMENT="" />
    <EXPORT ORDINAL="3501" NAME="?qAppFileName@@YA?AVQString@@XZ" PURGE="0" COMMENT="" />
    <EXPORT ORDINAL="3502" NAME="?qAppName@@YA?AVQString@@XZ" PURGE="0" COMMENT="" />
    <EXPORT ORDINAL="3503" NAME="?qBadAlloc@@YAXXZ" PURGE="-1" COMMENT="" />
    <EXPORT ORDINAL="3504" NAME="?qChecksum@@YAGPBDI@Z" PURGE="0" COMMENT="" />
    <EXPORT ORDINAL="3505" NAME="?qCompress@@YA?AVQByteArray@@PBEHH@Z" PURGE="0" COMMENT="" />
    <EXPORT ORDINAL="3506" NAME="?qCritical@@YA?AVQDebug@@XZ" PURGE="0" COMMENT="" />
    <EXPORT ORDINAL="3507" NAME="?qCritical@@YAXPBDZZ" PURGE="0" COMMENT="" />
    <EXPORT ORDINAL="3508" NAME="?qDebug@@YA?AVQDebug@@XZ" PURGE="0" COMMENT="" />
    <EXPORT ORDINAL="3509" NAME="?qDebug@@YAXPBDZZ" PURGE="0" COMMENT="" />
    <EXPORT ORDINAL="3510" NAME="?qDecodeDataUrl@@YA?AU?$QPair@VQString@@VQByteArray@@@@ABVQUrl@@@Z" PURGE="0" COMMENT="" />
    <EXPORT ORDINAL="3511" NAME="?qDeleteInEventHandler@@YAXPAVQObject@@@Z" PURGE="0" COMMENT="" />
    <EXPORT ORDINAL="3512" NAME="?qDetectCPUFeatures@@YAIXZ" PURGE="0" COMMENT="" />
    <EXPORT ORDINAL="3513" NAME="?qErrnoWarning@@YAXHPBDZZ" PURGE="0" COMMENT="" />
    <EXPORT ORDINAL="3514" NAME="?qErrnoWarning@@YAXPBDZZ" PURGE="0" COMMENT="" />
    <EXPORT ORDINAL="3515" NAME="?qFatal@@YAXPBDZZ" PURGE="0" COMMENT="" />
    <EXPORT ORDINAL="3516" NAME="?qFlagLocation@@YAPBDPBD@Z" PURGE="0" COMMENT="" />
    <EXPORT ORDINAL="3517" NAME="?qFree@@YAXPAX@Z" PURGE="-1" COMMENT="" />
    <EXPORT ORDINAL="3518" NAME="?qFreeAligned@@YAXPAX@Z" PURGE="0" COMMENT="" />
    <EXPORT ORDINAL="3519" NAME="?qGetCharAttributes@@YAXPBGIPBUHB_ScriptItem@@IPAUHB_CharAttributes@@@Z" PURGE="0" COMMENT="" />
    <EXPORT ORDINAL="3520" NAME="?qGlobalPostedEventsCount@@YAIXZ" PURGE="0" COMMENT="" />
    <EXPORT ORDINAL="3521" NAME="?qHBFreeFace@@YAXPAUHB_FaceRec_@@@Z" PURGE="0" COMMENT="" />
    <EXPORT ORDINAL="3522" NAME="?qHBNewFace@@YAPAUHB_FaceRec_@@PAXP6A?AW4HB_Error@@0IPAEPAI@Z@Z" PURGE="0" COMMENT="" />
    <EXPORT ORDINAL="3523" NAME="?qHash@@YAIABVQBitArray@@@Z" PURGE="0" COMMENT="" />
    <EXPORT ORDINAL="3524" NAME="?qHash@@YAIABVQByteArray@@@Z" PURGE="0" COMMENT="" />
    <EXPORT ORDINAL="3525" NAME="?qHash@@YAIABVQString@@@Z" PURGE="0" COMMENT="" />
    <EXPORT ORDINAL="3526" NAME="?qHash@@YAIABVQStringRef@@@Z" PURGE="0" COMMENT="" />
    <EXPORT ORDINAL="3527" NAME="?qInf@@YANXZ" PURGE="0" COMMENT="" />
    <EXPORT ORDINAL="3528" NAME="?qInitResourceIO@@YAXXZ" PURGE="0" COMMENT="" />
    <EXPORT ORDINAL="3529" NAME="?qInstallMsgHandler@@YAP6AXW4QtMsgType@@PBD@ZP6AX01@Z@Z" PURGE="0" COMMENT="" />
    <EXPORT ORDINAL="3530" NAME="?qInstallPath@@YAPBDXZ" PURGE="0" COMMENT="" />
    <EXPORT ORDINAL="3531" NAME="?qInstallPathBins@@YAPBDXZ" PURGE="0" COMMENT="" />
    <EXPORT ORDINAL="3532" NAME="?qInstallPathData@@YAPBDXZ" PURGE="0" COMMENT="" />
    <EXPORT ORDINAL="3533" NAME="?qInstallPathDocs@@YAPBDXZ" PURGE="0" COMMENT="" />
    <EXPORT ORDINAL="3534" NAME="?qInstallPathHeaders@@YAPBDXZ" PURGE="0" COMMENT="" />
    <EXPORT ORDINAL="3535" NAME="?qInstallPathLibs@@YAPBDXZ" PURGE="0" COMMENT="" />
    <EXPORT ORDINAL="3536" NAME="?qInstallPathPlugins@@YAPBDXZ" PURGE="0" COMMENT="" />
    <EXPORT ORDINAL="3537" NAME="?qInstallPathSysconf@@YAPBDXZ" PURGE="0" COMMENT="" />
    <EXPORT ORDINAL="3538" NAME="?qInstallPathTranslations@@YAPBDXZ" PURGE="0" COMMENT="" />
    <EXPORT ORDINAL="3539" NAME="?qIsEffectiveTLD@@YA_NABVQString@@@Z" PURGE="0" COMMENT="" />
    <EXPORT ORDINAL="3540" NAME="?qIsFinite@@YA_NM@Z" PURGE="0" COMMENT="" />
    <EXPORT ORDINAL="3541" NAME="?qIsFinite@@YA_NN@Z" PURGE="0" COMMENT="" />
    <EXPORT ORDINAL="3542" NAME="?qIsInf@@YA_NM@Z" PURGE="0" COMMENT="" />
    <EXPORT ORDINAL="3543" NAME="?qIsInf@@YA_NN@Z" PURGE="0" COMMENT="" />
    <EXPORT ORDINAL="3544" NAME="?qIsNaN@@YA_NM@Z" PURGE="0" COMMENT="" />
    <EXPORT ORDINAL="3545" NAME="?qIsNaN@@YA_NN@Z" PURGE="0" COMMENT="" />
    <EXPORT ORDINAL="3546" NAME="?qMalloc@@YAPAXI@Z" PURGE="-1" COMMENT="" />
    <EXPORT ORDINAL="3547" NAME="?qMallocAligned@@YAPAXII@Z" PURGE="0" COMMENT="" />
    <EXPORT ORDINAL="3548" NAME="?qMemCopy@@YAPAXPAXPBXI@Z" PURGE="-1" COMMENT="" />
    <EXPORT ORDINAL="3549" NAME="?qMemSet@@YAPAXPAXHI@Z" PURGE="-1" COMMENT="" />
    <EXPORT ORDINAL="3550" NAME="?qMetaTypeGuiHelper@@3PBUQMetaTypeGuiHelper@@B" PURGE="-1" COMMENT="" />
    <EXPORT ORDINAL="3551" NAME="?qQNaN@@YANXZ" PURGE="0" COMMENT="" />
    <EXPORT ORDINAL="3552" NAME="?qRealloc@@YAPAXPAXI@Z" PURGE="-1" COMMENT="" />
    <EXPORT ORDINAL="3553" NAME="?qReallocAligned@@YAPAXPAXIII@Z" PURGE="0" COMMENT="" />
    <EXPORT ORDINAL="3554" NAME="?qRegisterResourceData@@YA_NHPBE00@Z" PURGE="0" COMMENT="" />
    <EXPORT ORDINAL="3555" NAME="?qRegisterStaticPluginInstanceFunction@@YAXP6APAVQObject@@XZ@Z" PURGE="0" COMMENT="" />
    <EXPORT ORDINAL="3556" NAME="?qRemovePostRoutine@@YAXP6AXXZ@Z" PURGE="0" COMMENT="" />
    <EXPORT ORDINAL="3557" NAME="?qSNaN@@YANXZ" PURGE="0" COMMENT="" />
    <EXPORT ORDINAL="3558" NAME="?qShapeItem@@YAEPAUHB_ShaperItem_@@@Z" PURGE="0" COMMENT="" />
    <EXPORT ORDINAL="3559" NAME="?qSharedBuild@@YA_NXZ" PURGE="0" COMMENT="" />
    <EXPORT ORDINAL="3560" NAME="?qSystemWarning@@YAXPBDH@Z" PURGE="0" COMMENT="" />
    <EXPORT ORDINAL="3561" NAME="?qTopLevelDomain@@YA?AVQString@@ABV1@@Z" PURGE="0" COMMENT="" />
    <EXPORT ORDINAL="3562" NAME="?qUncompress@@YA?AVQByteArray@@PBEH@Z" PURGE="0" COMMENT="" />
    <EXPORT ORDINAL="3563" NAME="?qUnregisterResourceData@@YA_NHPBE00@Z" PURGE="0" COMMENT="" />
    <EXPORT ORDINAL="3564" NAME="?qVersion@@YAPBDXZ" PURGE="0" COMMENT="" />
    <EXPORT ORDINAL="3565" NAME="?qWarning@@YA?AVQDebug@@XZ" PURGE="0" COMMENT="" />
    <EXPORT ORDINAL="3566" NAME="?qWarning@@YAXPBDZZ" PURGE="0" COMMENT="" />
    <EXPORT ORDINAL="3567" NAME="?qWinAppCmdShow@@YAHXZ" PURGE="0" COMMENT="" />
    <EXPORT ORDINAL="3568" NAME="?qWinAppInst@@YAPAUHINSTANCE__@@XZ" PURGE="0" COMMENT="" />
    <EXPORT ORDINAL="3569" NAME="?qWinAppPrevInst@@YAPAUHINSTANCE__@@XZ" PURGE="0" COMMENT="" />
    <EXPORT ORDINAL="3570" NAME="?qWinMain@@YAXPAUHINSTANCE__@@0PADHAAHAAV?$QVector@PAD@@@Z" PURGE="0" COMMENT="" />
    <EXPORT ORDINAL="3571" NAME="?qWinMsgHandler@@YAXW4QtMsgType@@PBD@Z" PURGE="0" COMMENT="" />
    <EXPORT ORDINAL="3572" NAME="?q_func@QAbstractEventDispatcherPrivate@@AAEPAVQAbstractEventDispatcher@@XZ" PURGE="0" COMMENT="" />
    <EXPORT ORDINAL="3573" NAME="?q_func@QAbstractEventDispatcherPrivate@@ABEPBVQAbstractEventDispatcher@@XZ" PURGE="0" COMMENT="" />
    <EXPORT ORDINAL="3574" NAME="?q_func@QAbstractItemModelPrivate@@AAEPAVQAbstractItemModel@@XZ" PURGE="0" COMMENT="" />
    <EXPORT ORDINAL="3575" NAME="?q_func@QAbstractItemModelPrivate@@ABEPBVQAbstractItemModel@@XZ" PURGE="0" COMMENT="" />
    <EXPORT ORDINAL="3576" NAME="?q_func@QAbstractTransitionPrivate@@AAEPAVQAbstractTransition@@XZ" PURGE="0" COMMENT="" />
    <EXPORT ORDINAL="3577" NAME="?q_func@QAbstractTransitionPrivate@@ABEPBVQAbstractTransition@@XZ" PURGE="0" COMMENT="" />
    <EXPORT ORDINAL="3578" NAME="?q_func@QCoreApplicationPrivate@@AAEPAVQCoreApplication@@XZ" PURGE="0" COMMENT="" />
    <EXPORT ORDINAL="3579" NAME="?q_func@QCoreApplicationPrivate@@ABEPBVQCoreApplication@@XZ" PURGE="0" COMMENT="" />
    <EXPORT ORDINAL="3580" NAME="?q_func@QEventTransitionPrivate@@AAEPAVQEventTransition@@XZ" PURGE="0" COMMENT="" />
    <EXPORT ORDINAL="3581" NAME="?q_func@QEventTransitionPrivate@@ABEPBVQEventTransition@@XZ" PURGE="0" COMMENT="" />
    <EXPORT ORDINAL="3582" NAME="?q_func@QIODevicePrivate@@AAEPAVQIODevice@@XZ" PURGE="0" COMMENT="" />
    <EXPORT ORDINAL="3583" NAME="?q_func@QIODevicePrivate@@ABEPBVQIODevice@@XZ" PURGE="0" COMMENT="" />
    <EXPORT ORDINAL="3584" NAME="?q_func@QObjectPrivate@@AAEPAVQObject@@XZ" PURGE="0" COMMENT="" />
    <EXPORT ORDINAL="3585" NAME="?q_func@QObjectPrivate@@ABEPBVQObject@@XZ" PURGE="0" COMMENT="" />
    <EXPORT ORDINAL="3586" NAME="?q_func@QStateMachinePrivate@@AAEPAVQStateMachine@@XZ" PURGE="0" COMMENT="" />
    <EXPORT ORDINAL="3587" NAME="?q_func@QStateMachinePrivate@@ABEPBVQStateMachine@@XZ" PURGE="0" COMMENT="" />
    <EXPORT ORDINAL="3588" NAME="?qcoreStateMachineHandler@@YAPBUHandler@QStateMachinePrivate@@XZ" PURGE="0" COMMENT="" />
    <EXPORT ORDINAL="3589" NAME="?qcoreVariantHandler@@YAPBUHandler@QVariant@@XZ" PURGE="0" COMMENT="" />
    <EXPORT ORDINAL="3590" NAME="?qdtoa@@YAPADNHHPAH0PAPAD1@Z" PURGE="0" COMMENT="" />
    <EXPORT ORDINAL="3591" NAME="?qgetenv@@YA?AVQByteArray@@PBD@Z" PURGE="0" COMMENT="" />
    <EXPORT ORDINAL="3592" NAME="?qmljsDebugArguments@QCoreApplicationPrivate@@SA?AVQString@@XZ" PURGE="0" COMMENT="" />
    <EXPORT ORDINAL="3593" NAME="?qputenv@@YA_NPBDABVQByteArray@@@Z" PURGE="0" COMMENT="" />
    <EXPORT ORDINAL="3594" NAME="?qrand@@YAHXZ" PURGE="-1" COMMENT="" />
    <EXPORT ORDINAL="3595" NAME="?qsnprintf@@YAHPADIPBDZZ" PURGE="0" COMMENT="" />
    <EXPORT ORDINAL="3596" NAME="?qsrand@@YAXI@Z" PURGE="-1" COMMENT="" />
    <EXPORT ORDINAL="3597" NAME="?qstrcmp@@YAHABVQByteArray@@0@Z" PURGE="0" COMMENT="" />
    <EXPORT ORDINAL="3598" NAME="?qstrcmp@@YAHABVQByteArray@@PBD@Z" PURGE="0" COMMENT="" />
    <EXPORT ORDINAL="3599" NAME="?qstrcmp@@YAHPBD0@Z" PURGE="0" COMMENT="" />
    <EXPORT ORDINAL="3600" NAME="?qstrcpy@@YAPADPADPBD@Z" PURGE="0" COMMENT="" />
    <EXPORT ORDINAL="3601" NAME="?qstrdup@@YAPADPBD@Z" PURGE="0" COMMENT="" />
    <EXPORT ORDINAL="3602" NAME="?qstricmp@@YAHPBD0@Z" PURGE="0" COMMENT="" />
    <EXPORT ORDINAL="3603" NAME="?qstrncpy@@YAPADPADPBDI@Z" PURGE="0" COMMENT="" />
    <EXPORT ORDINAL="3604" NAME="?qstrnicmp@@YAHPBD0I@Z" PURGE="0" COMMENT="" />
    <EXPORT ORDINAL="3605" NAME="?qstrtod@@YANPBDPAPBDPA_N@Z" PURGE="0" COMMENT="" />
    <EXPORT ORDINAL="3606" NAME="?qtTrId@@YA?AVQString@@PBDH@Z" PURGE="0" COMMENT="" />
    <EXPORT ORDINAL="3607" NAME="?qt_assert@@YAXPBD0H@Z" PURGE="0" COMMENT="" />
    <EXPORT ORDINAL="3608" NAME="?qt_assert_x@@YAXPBD00H@Z" PURGE="0" COMMENT="" />
    <EXPORT ORDINAL="3609" NAME="?qt_call_post_routines@@YAXXZ" PURGE="0" COMMENT="" />
    <EXPORT ORDINAL="3610" NAME="?qt_check_pointer@@YAXPBDH@Z" PURGE="0" COMMENT="" />
    <EXPORT ORDINAL="3611" NAME="?qt_error_string@@YA?AVQString@@H@Z" PURGE="0" COMMENT="" />
    <EXPORT ORDINAL="3612" NAME="?qt_global_mutexpool@@3PAVQMutexPool@@A" PURGE="-1" COMMENT="" />
    <EXPORT ORDINAL="3613" NAME="?qt_int_sqrt@@YAII@Z" PURGE="0" COMMENT="" />
    <EXPORT ORDINAL="3614" NAME="?qt_localeFromLCID@@YA?AVQLocale@@K@Z" PURGE="0" COMMENT="" />
    <EXPORT ORDINAL="3615" NAME="?qt_locale_initialized@@3_NA" PURGE="-1" COMMENT="" />
    <EXPORT ORDINAL="3616" NAME="?qt_message_output@@YAXW4QtMsgType@@PBD@Z" PURGE="0" COMMENT="" />
    <EXPORT ORDINAL="3617" NAME="?qt_metacall@QAbstractAnimation@@UAEHW4Call@QMetaObject@@HPAPAX@Z" PURGE="12" COMMENT="" />
    <EXPORT ORDINAL="3618" NAME="?qt_metacall@QAbstractEventDispatcher@@UAEHW4Call@QMetaObject@@HPAPAX@Z" PURGE="12" COMMENT="" />
    <EXPORT ORDINAL="3619" NAME="?qt_metacall@QAbstractItemModel@@UAEHW4Call@QMetaObject@@HPAPAX@Z" PURGE="12" COMMENT="" />
    <EXPORT ORDINAL="3620" NAME="?qt_metacall@QAbstractListModel@@UAEHW4Call@QMetaObject@@HPAPAX@Z" PURGE="12" COMMENT="" />
    <EXPORT ORDINAL="3621" NAME="?qt_metacall@QAbstractState@@UAEHW4Call@QMetaObject@@HPAPAX@Z" PURGE="12" COMMENT="" />
    <EXPORT ORDINAL="3622" NAME="?qt_metacall@QAbstractTableModel@@UAEHW4Call@QMetaObject@@HPAPAX@Z" PURGE="12" COMMENT="" />
    <EXPORT ORDINAL="3623" NAME="?qt_metacall@QAbstractTransition@@UAEHW4Call@QMetaObject@@HPAPAX@Z" PURGE="12" COMMENT="" />
    <EXPORT ORDINAL="3624" NAME="?qt_metacall@QAnimationDriver@@UAEHW4Call@QMetaObject@@HPAPAX@Z" PURGE="12" COMMENT="" />
    <EXPORT ORDINAL="3625" NAME="?qt_metacall@QAnimationGroup@@UAEHW4Call@QMetaObject@@HPAPAX@Z" PURGE="12" COMMENT="" />
    <EXPORT ORDINAL="3626" NAME="?qt_metacall@QBuffer@@UAEHW4Call@QMetaObject@@HPAPAX@Z" PURGE="12" COMMENT="" />
    <EXPORT ORDINAL="3627" NAME="?qt_metacall@QCoreApplication@@UAEHW4Call@QMetaObject@@HPAPAX@Z" PURGE="12" COMMENT="" />
    <EXPORT ORDINAL="3628" NAME="?qt_metacall@QEventDispatcherWin32@@UAEHW4Call@QMetaObject@@HPAPAX@Z" PURGE="12" COMMENT="" />
    <EXPORT ORDINAL="3629" NAME="?qt_metacall@QEventLoop@@UAEHW4Call@QMetaObject@@HPAPAX@Z" PURGE="12" COMMENT="" />
    <EXPORT ORDINAL="3630" NAME="?qt_metacall@QEventTransition@@UAEHW4Call@QMetaObject@@HPAPAX@Z" PURGE="12" COMMENT="" />
    <EXPORT ORDINAL="3631" NAME="?qt_metacall@QFactoryLoader@@UAEHW4Call@QMetaObject@@HPAPAX@Z" PURGE="12" COMMENT="" />
    <EXPORT ORDINAL="3632" NAME="?qt_metacall@QFile@@UAEHW4Call@QMetaObject@@HPAPAX@Z" PURGE="12" COMMENT="" />
    <EXPORT ORDINAL="3633" NAME="?qt_metacall@QFileSystemWatcher@@UAEHW4Call@QMetaObject@@HPAPAX@Z" PURGE="12" COMMENT="" />
    <EXPORT ORDINAL="3634" NAME="?qt_metacall@QFinalState@@UAEHW4Call@QMetaObject@@HPAPAX@Z" PURGE="12" COMMENT="" />
    <EXPORT ORDINAL="3635" NAME="?qt_metacall@QFutureWatcherBase@@UAEHW4Call@QMetaObject@@HPAPAX@Z" PURGE="12" COMMENT="" />
    <EXPORT ORDINAL="3636" NAME="?qt_metacall@QHistoryState@@UAEHW4Call@QMetaObject@@HPAPAX@Z" PURGE="12" COMMENT="" />
    <EXPORT ORDINAL="3637" NAME="?qt_metacall@QIODevice@@UAEHW4Call@QMetaObject@@HPAPAX@Z" PURGE="12" COMMENT="" />
    <EXPORT ORDINAL="3638" NAME="?qt_metacall@QLibrary@@UAEHW4Call@QMetaObject@@HPAPAX@Z" PURGE="12" COMMENT="" />
    <EXPORT ORDINAL="3639" NAME="?qt_metacall@QMimeData@@UAEHW4Call@QMetaObject@@HPAPAX@Z" PURGE="12" COMMENT="" />
    <EXPORT ORDINAL="3640" NAME="?qt_metacall@QNonContiguousByteDevice@@UAEHW4Call@QMetaObject@@HPAPAX@Z" PURGE="12" COMMENT="" />
    <EXPORT ORDINAL="3641" NAME="?qt_metacall@QObject@@UAEHW4Call@QMetaObject@@HPAPAX@Z" PURGE="12" COMMENT="" />
    <EXPORT ORDINAL="3642" NAME="?qt_metacall@QObjectCleanupHandler@@UAEHW4Call@QMetaObject@@HPAPAX@Z" PURGE="12" COMMENT="" />
    <EXPORT ORDINAL="3643" NAME="?qt_metacall@QParallelAnimationGroup@@UAEHW4Call@QMetaObject@@HPAPAX@Z" PURGE="12" COMMENT="" />
    <EXPORT ORDINAL="3644" NAME="?qt_metacall@QPauseAnimation@@UAEHW4Call@QMetaObject@@HPAPAX@Z" PURGE="12" COMMENT="" />
    <EXPORT ORDINAL="3645" NAME="?qt_metacall@QPluginLoader@@UAEHW4Call@QMetaObject@@HPAPAX@Z" PURGE="12" COMMENT="" />
    <EXPORT ORDINAL="3646" NAME="?qt_metacall@QProcess@@UAEHW4Call@QMetaObject@@HPAPAX@Z" PURGE="12" COMMENT="" />
    <EXPORT ORDINAL="3647" NAME="?qt_metacall@QPropertyAnimation@@UAEHW4Call@QMetaObject@@HPAPAX@Z" PURGE="12" COMMENT="" />
    <EXPORT ORDINAL="3648" NAME="?qt_metacall@QSequentialAnimationGroup@@UAEHW4Call@QMetaObject@@HPAPAX@Z" PURGE="12" COMMENT="" />
    <EXPORT ORDINAL="3649" NAME="?qt_metacall@QSettings@@UAEHW4Call@QMetaObject@@HPAPAX@Z" PURGE="12" COMMENT="" />
    <EXPORT ORDINAL="3650" NAME="?qt_metacall@QSharedMemory@@UAEHW4Call@QMetaObject@@HPAPAX@Z" PURGE="12" COMMENT="" />
    <EXPORT ORDINAL="3651" NAME="?qt_metacall@QSignalMapper@@UAEHW4Call@QMetaObject@@HPAPAX@Z" PURGE="12" COMMENT="" />
    <EXPORT ORDINAL="3652" NAME="?qt_metacall@QSignalTransition@@UAEHW4Call@QMetaObject@@HPAPAX@Z" PURGE="12" COMMENT="" />
    <EXPORT ORDINAL="3653" NAME="?qt_metacall@QSocketNotifier@@UAEHW4Call@QMetaObject@@HPAPAX@Z" PURGE="12" COMMENT="" />
    <EXPORT ORDINAL="3654" NAME="?qt_metacall@QState@@UAEHW4Call@QMetaObject@@HPAPAX@Z" PURGE="12" COMMENT="" />
    <EXPORT ORDINAL="3655" NAME="?qt_metacall@QStateMachine@@UAEHW4Call@QMetaObject@@HPAPAX@Z" PURGE="12" COMMENT="" />
    <EXPORT ORDINAL="3656" NAME="?qt_metacall@QTemporaryFile@@UAEHW4Call@QMetaObject@@HPAPAX@Z" PURGE="12" COMMENT="" />
    <EXPORT ORDINAL="3657" NAME="?qt_metacall@QTextCodecPlugin@@UAEHW4Call@QMetaObject@@HPAPAX@Z" PURGE="12" COMMENT="" />
    <EXPORT ORDINAL="3658" NAME="?qt_metacall@QThread@@UAEHW4Call@QMetaObject@@HPAPAX@Z" PURGE="12" COMMENT="" />
    <EXPORT ORDINAL="3659" NAME="?qt_metacall@QThreadPool@@UAEHW4Call@QMetaObject@@HPAPAX@Z" PURGE="12" COMMENT="" />
    <EXPORT ORDINAL="3660" NAME="?qt_metacall@QTimeLine@@UAEHW4Call@QMetaObject@@HPAPAX@Z" PURGE="12" COMMENT="" />
    <EXPORT ORDINAL="3661" NAME="?qt_metacall@QTimer@@UAEHW4Call@QMetaObject@@HPAPAX@Z" PURGE="12" COMMENT="" />
    <EXPORT ORDINAL="3662" NAME="?qt_metacall@QTranslator@@UAEHW4Call@QMetaObject@@HPAPAX@Z" PURGE="12" COMMENT="" />
    <EXPORT ORDINAL="3663" NAME="?qt_metacall@QVariantAnimation@@UAEHW4Call@QMetaObject@@HPAPAX@Z" PURGE="12" COMMENT="" />
    <EXPORT ORDINAL="3664" NAME="?qt_metacall@QWinEventNotifier@@UAEHW4Call@QMetaObject@@HPAPAX@Z" PURGE="12" COMMENT="" />
    <EXPORT ORDINAL="3665" NAME="?qt_metacall@QWindowsPipeWriter@@UAEHW4Call@QMetaObject@@HPAPAX@Z" PURGE="12" COMMENT="" />
    <EXPORT ORDINAL="3666" NAME="?qt_metacast@QAbstractAnimation@@UAEPAXPBD@Z" PURGE="4" COMMENT="" />
    <EXPORT ORDINAL="3667" NAME="?qt_metacast@QAbstractEventDispatcher@@UAEPAXPBD@Z" PURGE="4" COMMENT="" />
    <EXPORT ORDINAL="3668" NAME="?qt_metacast@QAbstractItemModel@@UAEPAXPBD@Z" PURGE="4" COMMENT="" />
    <EXPORT ORDINAL="3669" NAME="?qt_metacast@QAbstractListModel@@UAEPAXPBD@Z" PURGE="4" COMMENT="" />
    <EXPORT ORDINAL="3670" NAME="?qt_metacast@QAbstractState@@UAEPAXPBD@Z" PURGE="4" COMMENT="" />
    <EXPORT ORDINAL="3671" NAME="?qt_metacast@QAbstractTableModel@@UAEPAXPBD@Z" PURGE="4" COMMENT="" />
    <EXPORT ORDINAL="3672" NAME="?qt_metacast@QAbstractTransition@@UAEPAXPBD@Z" PURGE="4" COMMENT="" />
    <EXPORT ORDINAL="3673" NAME="?qt_metacast@QAnimationDriver@@UAEPAXPBD@Z" PURGE="4" COMMENT="" />
    <EXPORT ORDINAL="3674" NAME="?qt_metacast@QAnimationGroup@@UAEPAXPBD@Z" PURGE="4" COMMENT="" />
    <EXPORT ORDINAL="3675" NAME="?qt_metacast@QBuffer@@UAEPAXPBD@Z" PURGE="4" COMMENT="" />
    <EXPORT ORDINAL="3676" NAME="?qt_metacast@QCoreApplication@@UAEPAXPBD@Z" PURGE="4" COMMENT="" />
    <EXPORT ORDINAL="3677" NAME="?qt_metacast@QEventDispatcherWin32@@UAEPAXPBD@Z" PURGE="4" COMMENT="" />
    <EXPORT ORDINAL="3678" NAME="?qt_metacast@QEventLoop@@UAEPAXPBD@Z" PURGE="4" COMMENT="" />
    <EXPORT ORDINAL="3679" NAME="?qt_metacast@QEventTransition@@UAEPAXPBD@Z" PURGE="4" COMMENT="" />
    <EXPORT ORDINAL="3680" NAME="?qt_metacast@QFactoryLoader@@UAEPAXPBD@Z" PURGE="4" COMMENT="" />
    <EXPORT ORDINAL="3681" NAME="?qt_metacast@QFile@@UAEPAXPBD@Z" PURGE="4" COMMENT="" />
    <EXPORT ORDINAL="3682" NAME="?qt_metacast@QFileSystemWatcher@@UAEPAXPBD@Z" PURGE="4" COMMENT="" />
    <EXPORT ORDINAL="3683" NAME="?qt_metacast@QFinalState@@UAEPAXPBD@Z" PURGE="4" COMMENT="" />
    <EXPORT ORDINAL="3684" NAME="?qt_metacast@QFutureWatcherBase@@UAEPAXPBD@Z" PURGE="4" COMMENT="" />
    <EXPORT ORDINAL="3685" NAME="?qt_metacast@QHistoryState@@UAEPAXPBD@Z" PURGE="4" COMMENT="" />
    <EXPORT ORDINAL="3686" NAME="?qt_metacast@QIODevice@@UAEPAXPBD@Z" PURGE="4" COMMENT="" />
    <EXPORT ORDINAL="3687" NAME="?qt_metacast@QLibrary@@UAEPAXPBD@Z" PURGE="4" COMMENT="" />
    <EXPORT ORDINAL="3688" NAME="?qt_metacast@QMimeData@@UAEPAXPBD@Z" PURGE="4" COMMENT="" />
    <EXPORT ORDINAL="3689" NAME="?qt_metacast@QNonContiguousByteDevice@@UAEPAXPBD@Z" PURGE="4" COMMENT="" />
    <EXPORT ORDINAL="3690" NAME="?qt_metacast@QObject@@UAEPAXPBD@Z" PURGE="4" COMMENT="" />
    <EXPORT ORDINAL="3691" NAME="?qt_metacast@QObjectCleanupHandler@@UAEPAXPBD@Z" PURGE="4" COMMENT="" />
    <EXPORT ORDINAL="3692" NAME="?qt_metacast@QParallelAnimationGroup@@UAEPAXPBD@Z" PURGE="4" COMMENT="" />
    <EXPORT ORDINAL="3693" NAME="?qt_metacast@QPauseAnimation@@UAEPAXPBD@Z" PURGE="4" COMMENT="" />
    <EXPORT ORDINAL="3694" NAME="?qt_metacast@QPluginLoader@@UAEPAXPBD@Z" PURGE="4" COMMENT="" />
    <EXPORT ORDINAL="3695" NAME="?qt_metacast@QProcess@@UAEPAXPBD@Z" PURGE="4" COMMENT="" />
    <EXPORT ORDINAL="3696" NAME="?qt_metacast@QPropertyAnimation@@UAEPAXPBD@Z" PURGE="4" COMMENT="" />
    <EXPORT ORDINAL="3697" NAME="?qt_metacast@QSequentialAnimationGroup@@UAEPAXPBD@Z" PURGE="4" COMMENT="" />
    <EXPORT ORDINAL="3698" NAME="?qt_metacast@QSettings@@UAEPAXPBD@Z" PURGE="4" COMMENT="" />
    <EXPORT ORDINAL="3699" NAME="?qt_metacast@QSharedMemory@@UAEPAXPBD@Z" PURGE="4" COMMENT="" />
    <EXPORT ORDINAL="3700" NAME="?qt_metacast@QSignalMapper@@UAEPAXPBD@Z" PURGE="4" COMMENT="" />
    <EXPORT ORDINAL="3701" NAME="?qt_metacast@QSignalTransition@@UAEPAXPBD@Z" PURGE="4" COMMENT="" />
    <EXPORT ORDINAL="3702" NAME="?qt_metacast@QSocketNotifier@@UAEPAXPBD@Z" PURGE="4" COMMENT="" />
    <EXPORT ORDINAL="3703" NAME="?qt_metacast@QState@@UAEPAXPBD@Z" PURGE="4" COMMENT="" />
    <EXPORT ORDINAL="3704" NAME="?qt_metacast@QStateMachine@@UAEPAXPBD@Z" PURGE="4" COMMENT="" />
    <EXPORT ORDINAL="3705" NAME="?qt_metacast@QTemporaryFile@@UAEPAXPBD@Z" PURGE="4" COMMENT="" />
    <EXPORT ORDINAL="3706" NAME="?qt_metacast@QTextCodecPlugin@@UAEPAXPBD@Z" PURGE="4" COMMENT="" />
    <EXPORT ORDINAL="3707" NAME="?qt_metacast@QThread@@UAEPAXPBD@Z" PURGE="4" COMMENT="" />
    <EXPORT ORDINAL="3708" NAME="?qt_metacast@QThreadPool@@UAEPAXPBD@Z" PURGE="4" COMMENT="" />
    <EXPORT ORDINAL="3709" NAME="?qt_metacast@QTimeLine@@UAEPAXPBD@Z" PURGE="4" COMMENT="" />
    <EXPORT ORDINAL="3710" NAME="?qt_metacast@QTimer@@UAEPAXPBD@Z" PURGE="4" COMMENT="" />
    <EXPORT ORDINAL="3711" NAME="?qt_metacast@QTranslator@@UAEPAXPBD@Z" PURGE="4" COMMENT="" />
    <EXPORT ORDINAL="3712" NAME="?qt_metacast@QVariantAnimation@@UAEPAXPBD@Z" PURGE="4" COMMENT="" />
    <EXPORT ORDINAL="3713" NAME="?qt_metacast@QWinEventNotifier@@UAEPAXPBD@Z" PURGE="4" COMMENT="" />
    <EXPORT ORDINAL="3714" NAME="?qt_metacast@QWindowsPipeWriter@@UAEPAXPBD@Z" PURGE="4" COMMENT="" />
    <EXPORT ORDINAL="3715" NAME="?qt_ntfs_permission_lookup@@3HA" PURGE="-1" COMMENT="" />
    <EXPORT ORDINAL="3716" NAME="?qt_qFindChild_helper@@YAPAVQObject@@PBV1@ABVQString@@ABUQMetaObject@@@Z" PURGE="0" COMMENT="" />
    <EXPORT ORDINAL="3717" NAME="?qt_qFindChildren_helper@@YAXPBVQObject@@ABVQString@@PBVQRegExp@@ABUQMetaObject@@PAV?$QList@PAX@@@Z" PURGE="0" COMMENT="" />
    <EXPORT ORDINAL="3718" NAME="?qt_regexp_toCanonical@@YA?AVQString@@ABV1@W4PatternSyntax@QRegExp@@@Z" PURGE="0" COMMENT="" />
    <EXPORT ORDINAL="3719" NAME="?qt_register_signal_spy_callbacks@@YAXABUQSignalSpyCallbackSet@@@Z" PURGE="0" COMMENT="" />
    <EXPORT ORDINAL="3720" NAME="?qt_signal_spy_callback_set@@3UQSignalSpyCallbackSet@@A" PURGE="-1" COMMENT="" />
    <EXPORT ORDINAL="3721" NAME="?qt_sine_table@@3QBNB" PURGE="-1" COMMENT="" />
    <EXPORT ORDINAL="3722" NAME="?qt_static_metacall@QAbstractAnimation@@CAXPAVQObject@@W4Call@QMetaObject@@HPAPAX@Z" PURGE="0" COMMENT="" />
    <EXPORT ORDINAL="3723" NAME="?qt_static_metacall@QAbstractEventDispatcher@@CAXPAVQObject@@W4Call@QMetaObject@@HPAPAX@Z" PURGE="0" COMMENT="" />
    <EXPORT ORDINAL="3724" NAME="?qt_static_metacall@QAbstractItemModel@@CAXPAVQObject@@W4Call@QMetaObject@@HPAPAX@Z" PURGE="0" COMMENT="" />
    <EXPORT ORDINAL="3725" NAME="?qt_static_metacall@QAbstractListModel@@CAXPAVQObject@@W4Call@QMetaObject@@HPAPAX@Z" PURGE="0" COMMENT="" />
    <EXPORT ORDINAL="3726" NAME="?qt_static_metacall@QAbstractState@@CAXPAVQObject@@W4Call@QMetaObject@@HPAPAX@Z" PURGE="0" COMMENT="" />
    <EXPORT ORDINAL="3727" NAME="?qt_static_metacall@QAbstractTableModel@@CAXPAVQObject@@W4Call@QMetaObject@@HPAPAX@Z" PURGE="0" COMMENT="" />
    <EXPORT ORDINAL="3728" NAME="?qt_static_metacall@QAbstractTransition@@CAXPAVQObject@@W4Call@QMetaObject@@HPAPAX@Z" PURGE="0" COMMENT="" />
    <EXPORT ORDINAL="3729" NAME="?qt_static_metacall@QAnimationDriver@@CAXPAVQObject@@W4Call@QMetaObject@@HPAPAX@Z" PURGE="0" COMMENT="" />
    <EXPORT ORDINAL="3730" NAME="?qt_static_metacall@QAnimationGroup@@CAXPAVQObject@@W4Call@QMetaObject@@HPAPAX@Z" PURGE="0" COMMENT="" />
    <EXPORT ORDINAL="3731" NAME="?qt_static_metacall@QBuffer@@CAXPAVQObject@@W4Call@QMetaObject@@HPAPAX@Z" PURGE="0" COMMENT="" />
    <EXPORT ORDINAL="3732" NAME="?qt_static_metacall@QCoreApplication@@CAXPAVQObject@@W4Call@QMetaObject@@HPAPAX@Z" PURGE="0" COMMENT="" />
    <EXPORT ORDINAL="3733" NAME="?qt_static_metacall@QEventDispatcherWin32@@CAXPAVQObject@@W4Call@QMetaObject@@HPAPAX@Z" PURGE="0" COMMENT="" />
    <EXPORT ORDINAL="3734" NAME="?qt_static_metacall@QEventLoop@@CAXPAVQObject@@W4Call@QMetaObject@@HPAPAX@Z" PURGE="0" COMMENT="" />
    <EXPORT ORDINAL="3735" NAME="?qt_static_metacall@QEventTransition@@CAXPAVQObject@@W4Call@QMetaObject@@HPAPAX@Z" PURGE="0" COMMENT="" />
    <EXPORT ORDINAL="3736" NAME="?qt_static_metacall@QFactoryLoader@@CAXPAVQObject@@W4Call@QMetaObject@@HPAPAX@Z" PURGE="0" COMMENT="" />
    <EXPORT ORDINAL="3737" NAME="?qt_static_metacall@QFile@@CAXPAVQObject@@W4Call@QMetaObject@@HPAPAX@Z" PURGE="0" COMMENT="" />
    <EXPORT ORDINAL="3738" NAME="?qt_static_metacall@QFileSystemWatcher@@CAXPAVQObject@@W4Call@QMetaObject@@HPAPAX@Z" PURGE="0" COMMENT="" />
    <EXPORT ORDINAL="3739" NAME="?qt_static_metacall@QFinalState@@CAXPAVQObject@@W4Call@QMetaObject@@HPAPAX@Z" PURGE="0" COMMENT="" />
    <EXPORT ORDINAL="3740" NAME="?qt_static_metacall@QFutureWatcherBase@@CAXPAVQObject@@W4Call@QMetaObject@@HPAPAX@Z" PURGE="0" COMMENT="" />
    <EXPORT ORDINAL="3741" NAME="?qt_static_metacall@QHistoryState@@CAXPAVQObject@@W4Call@QMetaObject@@HPAPAX@Z" PURGE="0" COMMENT="" />
    <EXPORT ORDINAL="3742" NAME="?qt_static_metacall@QIODevice@@CAXPAVQObject@@W4Call@QMetaObject@@HPAPAX@Z" PURGE="0" COMMENT="" />
    <EXPORT ORDINAL="3743" NAME="?qt_static_metacall@QLibrary@@CAXPAVQObject@@W4Call@QMetaObject@@HPAPAX@Z" PURGE="0" COMMENT="" />
    <EXPORT ORDINAL="3744" NAME="?qt_static_metacall@QMimeData@@CAXPAVQObject@@W4Call@QMetaObject@@HPAPAX@Z" PURGE="0" COMMENT="" />
    <EXPORT ORDINAL="3745" NAME="?qt_static_metacall@QNonContiguousByteDevice@@CAXPAVQObject@@W4Call@QMetaObject@@HPAPAX@Z" PURGE="0" COMMENT="" />
    <EXPORT ORDINAL="3746" NAME="?qt_static_metacall@QObject@@CAXPAV1@W4Call@QMetaObject@@HPAPAX@Z" PURGE="0" COMMENT="" />
    <EXPORT ORDINAL="3747" NAME="?qt_static_metacall@QObjectCleanupHandler@@CAXPAVQObject@@W4Call@QMetaObject@@HPAPAX@Z" PURGE="0" COMMENT="" />
    <EXPORT ORDINAL="3748" NAME="?qt_static_metacall@QParallelAnimationGroup@@CAXPAVQObject@@W4Call@QMetaObject@@HPAPAX@Z" PURGE="0" COMMENT="" />
    <EXPORT ORDINAL="3749" NAME="?qt_static_metacall@QPauseAnimation@@CAXPAVQObject@@W4Call@QMetaObject@@HPAPAX@Z" PURGE="0" COMMENT="" />
    <EXPORT ORDINAL="3750" NAME="?qt_static_metacall@QPluginLoader@@CAXPAVQObject@@W4Call@QMetaObject@@HPAPAX@Z" PURGE="0" COMMENT="" />
    <EXPORT ORDINAL="3751" NAME="?qt_static_metacall@QProcess@@CAXPAVQObject@@W4Call@QMetaObject@@HPAPAX@Z" PURGE="0" COMMENT="" />
    <EXPORT ORDINAL="3752" NAME="?qt_static_metacall@QPropertyAnimation@@CAXPAVQObject@@W4Call@QMetaObject@@HPAPAX@Z" PURGE="0" COMMENT="" />
    <EXPORT ORDINAL="3753" NAME="?qt_static_metacall@QSequentialAnimationGroup@@CAXPAVQObject@@W4Call@QMetaObject@@HPAPAX@Z" PURGE="0" COMMENT="" />
    <EXPORT ORDINAL="3754" NAME="?qt_static_metacall@QSettings@@CAXPAVQObject@@W4Call@QMetaObject@@HPAPAX@Z" PURGE="0" COMMENT="" />
    <EXPORT ORDINAL="3755" NAME="?qt_static_metacall@QSharedMemory@@CAXPAVQObject@@W4Call@QMetaObject@@HPAPAX@Z" PURGE="0" COMMENT="" />
    <EXPORT ORDINAL="3756" NAME="?qt_static_metacall@QSignalMapper@@CAXPAVQObject@@W4Call@QMetaObject@@HPAPAX@Z" PURGE="0" COMMENT="" />
    <EXPORT ORDINAL="3757" NAME="?qt_static_metacall@QSignalTransition@@CAXPAVQObject@@W4Call@QMetaObject@@HPAPAX@Z" PURGE="0" COMMENT="" />
    <EXPORT ORDINAL="3758" NAME="?qt_static_metacall@QSocketNotifier@@CAXPAVQObject@@W4Call@QMetaObject@@HPAPAX@Z" PURGE="0" COMMENT="" />
    <EXPORT ORDINAL="3759" NAME="?qt_static_metacall@QState@@CAXPAVQObject@@W4Call@QMetaObject@@HPAPAX@Z" PURGE="0" COMMENT="" />
    <EXPORT ORDINAL="3760" NAME="?qt_static_metacall@QStateMachine@@CAXPAVQObject@@W4Call@QMetaObject@@HPAPAX@Z" PURGE="0" COMMENT="" />
    <EXPORT ORDINAL="3761" NAME="?qt_static_metacall@QTemporaryFile@@CAXPAVQObject@@W4Call@QMetaObject@@HPAPAX@Z" PURGE="0" COMMENT="" />
    <EXPORT ORDINAL="3762" NAME="?qt_static_metacall@QTextCodecPlugin@@CAXPAVQObject@@W4Call@QMetaObject@@HPAPAX@Z" PURGE="0" COMMENT="" />
    <EXPORT ORDINAL="3763" NAME="?qt_static_metacall@QThread@@CAXPAVQObject@@W4Call@QMetaObject@@HPAPAX@Z" PURGE="0" COMMENT="" />
    <EXPORT ORDINAL="3764" NAME="?qt_static_metacall@QThreadPool@@CAXPAVQObject@@W4Call@QMetaObject@@HPAPAX@Z" PURGE="0" COMMENT="" />
    <EXPORT ORDINAL="3765" NAME="?qt_static_metacall@QTimeLine@@CAXPAVQObject@@W4Call@QMetaObject@@HPAPAX@Z" PURGE="0" COMMENT="" />
    <EXPORT ORDINAL="3766" NAME="?qt_static_metacall@QTimer@@CAXPAVQObject@@W4Call@QMetaObject@@HPAPAX@Z" PURGE="0" COMMENT="" />
    <EXPORT ORDINAL="3767" NAME="?qt_static_metacall@QTranslator@@CAXPAVQObject@@W4Call@QMetaObject@@HPAPAX@Z" PURGE="0" COMMENT="" />
    <EXPORT ORDINAL="3768" NAME="?qt_static_metacall@QVariantAnimation@@CAXPAVQObject@@W4Call@QMetaObject@@HPAPAX@Z" PURGE="0" COMMENT="" />
    <EXPORT ORDINAL="3769" NAME="?qt_static_metacall@QWinEventNotifier@@CAXPAVQObject@@W4Call@QMetaObject@@HPAPAX@Z" PURGE="0" COMMENT="" />
    <EXPORT ORDINAL="3770" NAME="?qt_static_metacall@QWindowsPipeWriter@@CAXPAVQObject@@W4Call@QMetaObject@@HPAPAX@Z" PURGE="0" COMMENT="" />
    <EXPORT ORDINAL="3771" NAME="?qualifiedName@QXmlStreamAttribute@@QBE?AVQStringRef@@XZ" PURGE="4" COMMENT="" />
    <EXPORT ORDINAL="3772" NAME="?qualifiedName@QXmlStreamReader@@QBE?AVQStringRef@@XZ" PURGE="4" COMMENT="" />
    <EXPORT ORDINAL="3773" NAME="?query@QSystemLocale@@UBE?AVQVariant@@W4QueryType@1@V2@@Z" PURGE="24" COMMENT="" />
    <EXPORT ORDINAL="3774" NAME="?query@QUrl@@QBE?AVQString@@XZ" PURGE="4" COMMENT="" />
    <EXPORT ORDINAL="3775" NAME="?queryItemValue@QUrl@@QBE?AVQString@@ABV2@@Z" PURGE="8" COMMENT="" />
    <EXPORT ORDINAL="3776" NAME="?queryItems@QUrl@@QBE?AV?$QList@U?$QPair@VQString@@V1@@@@@XZ" PURGE="4" COMMENT="" />
    <EXPORT ORDINAL="3777" NAME="?queryList@QObject@@QBE?AV?$QList@PAVQObject@@@@PBD0_N1@Z" PURGE="20" COMMENT="" />
    <EXPORT ORDINAL="3778" NAME="?queryPairDelimiter@QUrl@@QBEDXZ" PURGE="0" COMMENT="" />
    <EXPORT ORDINAL="3779" NAME="?queryState@QFutureInterfaceBase@@QBE_NW4State@1@@Z" PURGE="4" COMMENT="" />
    <EXPORT ORDINAL="3780" NAME="?queryValueDelimiter@QUrl@@QBEDXZ" PURGE="0" COMMENT="" />
    <EXPORT ORDINAL="3781" NAME="?quit@QCoreApplication@@SAXXZ" PURGE="0" COMMENT="" />
    <EXPORT ORDINAL="3782" NAME="?quit@QEventLoop@@QAEXXZ" PURGE="0" COMMENT="" />
    <EXPORT ORDINAL="3783" NAME="?quit@QThread@@QAEXXZ" PURGE="0" COMMENT="" />
    <EXPORT ORDINAL="3784" NAME="?quoteString@QLocale@@QBE?AVQString@@ABV2@W4QuotationStyle@1@@Z" PURGE="12" COMMENT="" />
    <EXPORT ORDINAL="3785" NAME="?quoteString@QLocale@@QBE?AVQString@@ABVQStringRef@@W4QuotationStyle@1@@Z" PURGE="12" COMMENT="" />
    <EXPORT ORDINAL="3786" NAME="?qvsnprintf@@YAHPADIPBD0@Z" PURGE="0" COMMENT="" />
    <EXPORT ORDINAL="3787" NAME="?rBottom@QRect@@QAEAAHXZ" PURGE="0" COMMENT="" />
    <EXPORT ORDINAL="3788" NAME="?rLeft@QRect@@QAEAAHXZ" PURGE="0" COMMENT="" />
    <EXPORT ORDINAL="3789" NAME="?rRight@QRect@@QAEAAHXZ" PURGE="0" COMMENT="" />
    <EXPORT ORDINAL="3790" NAME="?rTop@QRect@@QAEAAHXZ" PURGE="0" COMMENT="" />
    <EXPORT ORDINAL="3791" NAME="?raise@Exception@QtConcurrent@@UBEXXZ" PURGE="-1" COMMENT="" />
    <EXPORT ORDINAL="3792" NAME="?raise@UnhandledException@QtConcurrent@@UBEXXZ" PURGE="-1" COMMENT="" />
    <EXPORT ORDINAL="3793" NAME="?raiseError@QXmlStreamReader@@QAEXABVQString@@@Z" PURGE="4" COMMENT="" />
    <EXPORT ORDINAL="3794" NAME="?rangeContains@QXmlUtils@@CA_NPBVQXmlCharRange@@0VQChar@@@Z" PURGE="0" COMMENT="" />
    <EXPORT ORDINAL="3795" NAME="?read@QAbstractFileEngine@@UAE_JPAD_J@Z" PURGE="12" COMMENT="" />
    <EXPORT ORDINAL="3796" NAME="?read@QFSFileEngine@@UAE_JPAD_J@Z" PURGE="12" COMMENT="" />
    <EXPORT ORDINAL="3797" NAME="?read@QIODevice@@QAE?AVQByteArray@@_J@Z" PURGE="12" COMMENT="" />
    <EXPORT ORDINAL="3798" NAME="?read@QIODevice@@QAE_JPAD_J@Z" PURGE="12" COMMENT="" />
    <EXPORT ORDINAL="3799" NAME="?read@QMetaProperty@@QBE?AVQVariant@@PBVQObject@@@Z" PURGE="8" COMMENT="" />
    <EXPORT ORDINAL="3800" NAME="?read@QTextStream@@QAE?AVQString@@XZ" PURGE="4" COMMENT="" />
    <EXPORT ORDINAL="3801" NAME="?read@QTextStream@@QAE?AVQString@@_J@Z" PURGE="12" COMMENT="" />
    <EXPORT ORDINAL="3802" NAME="?readAll@QIODevice@@QAE?AVQByteArray@@XZ" PURGE="4" COMMENT="" />
    <EXPORT ORDINAL="3803" NAME="?readAll@QTextStream@@QAE?AVQString@@XZ" PURGE="4" COMMENT="" />
    <EXPORT ORDINAL="3804" NAME="?readAllStandardError@QProcess@@QAE?AVQByteArray@@XZ" PURGE="4" COMMENT="" />
    <EXPORT ORDINAL="3805" NAME="?readAllStandardOutput@QProcess@@QAE?AVQByteArray@@XZ" PURGE="4" COMMENT="" />
    <EXPORT ORDINAL="3806" NAME="?readBlock@QIODevice@@QAE_JPAD_K@Z" PURGE="12" COMMENT="" />
    <EXPORT ORDINAL="3807" NAME="?readBoolEntry@QSettings@@QAE_NABVQString@@_NPA_N@Z" PURGE="12" COMMENT="" />
    <EXPORT ORDINAL="3808" NAME="?readBytes@QDataStream@@QAEAAV1@AAPADAAI@Z" PURGE="8" COMMENT="" />
    <EXPORT ORDINAL="3809" NAME="?readChannel@QProcess@@QBE?AW4ProcessChannel@1@XZ" PURGE="0" COMMENT="" />
    <EXPORT ORDINAL="3810" NAME="?readChannelFinished@QIODevice@@IAEXXZ" PURGE="0" COMMENT="" />
    <EXPORT ORDINAL="3811" NAME="?readChannelMode@QProcess@@QBE?AW4ProcessChannelMode@1@XZ" PURGE="0" COMMENT="" />
    <EXPORT ORDINAL="3812" NAME="?readData@QBuffer@@MAE_JPAD_J@Z" PURGE="12" COMMENT="" />
    <EXPORT ORDINAL="3813" NAME="?readData@QFile@@MAE_JPAD_J@Z" PURGE="12" COMMENT="" />
    <EXPORT ORDINAL="3814" NAME="?readData@QProcess@@MAE_JPAD_J@Z" PURGE="12" COMMENT="" />
    <EXPORT ORDINAL="3815" NAME="?readDoubleEntry@QSettings@@QAENABVQString@@NPA_N@Z" PURGE="16" COMMENT="" />
    <EXPORT ORDINAL="3816" NAME="?readElementText@QXmlStreamReader@@QAE?AVQString@@W4ReadElementTextBehaviour@1@@Z" PURGE="8" COMMENT="" />
    <EXPORT ORDINAL="3817" NAME="?readElementText@QXmlStreamReader@@QAE?AVQString@@XZ" PURGE="4" COMMENT="" />
    <EXPORT ORDINAL="3818" NAME="?readEntry@QSettings@@QAE?AVQString@@ABV2@0PA_N@Z" PURGE="16" COMMENT="" />
    <EXPORT ORDINAL="3819" NAME="?readLine@QAbstractFileEngine@@UAE_JPAD_J@Z" PURGE="12" COMMENT="" />
    <EXPORT ORDINAL="3820" NAME="?readLine@QFSFileEngine@@UAE_JPAD_J@Z" PURGE="12" COMMENT="" />
    <EXPORT ORDINAL="3821" NAME="?readLine@QIODevice@@QAE?AVQByteArray@@_J@Z" PURGE="12" COMMENT="" />
    <EXPORT ORDINAL="3822" NAME="?readLine@QIODevice@@QAE_JPAD_J@Z" PURGE="12" COMMENT="" />
    <EXPORT ORDINAL="3823" NAME="?readLine@QTextStream@@QAE?AVQString@@_J@Z" PURGE="12" COMMENT="" />
    <EXPORT ORDINAL="3824" NAME="?readLineData@QFile@@MAE_JPAD_J@Z" PURGE="12" COMMENT="" />
    <EXPORT ORDINAL="3825" NAME="?readLineData@QIODevice@@MAE_JPAD_J@Z" PURGE="12" COMMENT="" />
    <EXPORT ORDINAL="3826" NAME="?readLink@QFile@@QBE?AVQString@@XZ" PURGE="4" COMMENT="" />
    <EXPORT ORDINAL="3827" NAME="?readLink@QFile@@SA?AVQString@@ABV2@@Z" PURGE="0" COMMENT="" />
    <EXPORT ORDINAL="3828" NAME="?readLink@QFileInfo@@QBE?AVQString@@XZ" PURGE="4" COMMENT="" />
    <EXPORT ORDINAL="3829" NAME="?readListEntry@QSettings@@QAE?AVQStringList@@ABVQString@@PA_N@Z" PURGE="12" COMMENT="" />
    <EXPORT ORDINAL="3830" NAME="?readListEntry@QSettings@@QAE?AVQStringList@@ABVQString@@VQChar@@PA_N@Z" PURGE="16" COMMENT="" />
    <EXPORT ORDINAL="3831" NAME="?readNext@QXmlStreamReader@@QAE?AW4TokenType@1@XZ" PURGE="0" COMMENT="" />
    <EXPORT ORDINAL="3832" NAME="?readNextStartElement@QXmlStreamReader@@QAE_NXZ" PURGE="0" COMMENT="" />
    <EXPORT ORDINAL="3833" NAME="?readNumEntry@QSettings@@QAEHABVQString@@HPA_N@Z" PURGE="12" COMMENT="" />
    <EXPORT ORDINAL="3834" NAME="?readProgress@QNonContiguousByteDevice@@IAEX_J0@Z" PURGE="16" COMMENT="" />
    <EXPORT ORDINAL="3835" NAME="?readRawBytes@QDataStream@@QAEAAV1@PADI@Z" PURGE="8" COMMENT="" />
    <EXPORT ORDINAL="3836" NAME="?readRawData@QDataStream@@QAEHPADH@Z" PURGE="8" COMMENT="" />
    <EXPORT ORDINAL="3837" NAME="?readWriteLock@QReadLocker@@QBEPAVQReadWriteLock@@XZ" PURGE="0" COMMENT="" />
    <EXPORT ORDINAL="3838" NAME="?readWriteLock@QWriteLocker@@QBEPAVQReadWriteLock@@XZ" PURGE="0" COMMENT="" />
    <EXPORT ORDINAL="3839" NAME="?readyRead@QIODevice@@IAEXXZ" PURGE="0" COMMENT="" />
    <EXPORT ORDINAL="3840" NAME="?readyRead@QNonContiguousByteDevice@@IAEXXZ" PURGE="0" COMMENT="" />
    <EXPORT ORDINAL="3841" NAME="?readyReadStandardError@QProcess@@IAEXXZ" PURGE="0" COMMENT="" />
    <EXPORT ORDINAL="3842" NAME="?readyReadStandardOutput@QProcess@@IAEXXZ" PURGE="0" COMMENT="" />
    <EXPORT ORDINAL="3843" NAME="?realNumberNotation@QTextStream@@QBE?AW4RealNumberNotation@1@XZ" PURGE="0" COMMENT="" />
    <EXPORT ORDINAL="3844" NAME="?realNumberPrecision@QTextStream@@QBEHXZ" PURGE="0" COMMENT="" />
    <EXPORT ORDINAL="3845" NAME="?realloc@?$QVector@VQPoint@@@@AAEXHH@Z" PURGE="8" COMMENT="" />
    <EXPORT ORDINAL="3846" NAME="?realloc@?$QVector@VQPointF@@@@AAEXHH@Z" PURGE="8" COMMENT="" />
    <EXPORT ORDINAL="3847" NAME="?realloc@?$QVector@VQXmlStreamAttribute@@@@AAEXHH@Z" PURGE="8" COMMENT="" />
    <EXPORT ORDINAL="3848" NAME="?realloc@QByteArray@@AAEXH@Z" PURGE="4" COMMENT="" />
    <EXPORT ORDINAL="3849" NAME="?realloc@QListData@@QAEXH@Z" PURGE="4" COMMENT="" />
    <EXPORT ORDINAL="3850" NAME="?realloc@QString@@AAEXH@Z" PURGE="4" COMMENT="" />
    <EXPORT ORDINAL="3851" NAME="?realloc@QString@@AAEXXZ" PURGE="0" COMMENT="" />
    <EXPORT ORDINAL="3852" NAME="?reallocate@QVectorData@@SAPAU1@PAU1@HHH@Z" PURGE="0" COMMENT="" />
    <EXPORT ORDINAL="3853" NAME="?receiverList@QObjectPrivate@@QBE?AV?$QList@PAVQObject@@@@PBD@Z" PURGE="8" COMMENT="" />
    <EXPORT ORDINAL="3854" NAME="?receivers@QObject@@IBEHPBD@Z" PURGE="4" COMMENT="" />
    <EXPORT ORDINAL="3855" NAME="?rect@QRect@@QBEXPAH000@Z" PURGE="16" COMMENT="" />
    <EXPORT ORDINAL="3856" NAME="?ref@QBasicAtomicInt@@QAE_NXZ" PURGE="0" COMMENT="" />
    <EXPORT ORDINAL="3857" NAME="?ref@QString@@QAEAAVQChar@@I@Z" PURGE="4" COMMENT="" />
    <EXPORT ORDINAL="3858" NAME="?ref@QUrl@@QBE?AVQString@@XZ" PURGE="4" COMMENT="" />
    <EXPORT ORDINAL="3859" NAME="?referenceCountIsOne@QFutureInterfaceBase@@IBE_NXZ" PURGE="0" COMMENT="" />
    <EXPORT ORDINAL="3860" NAME="?refresh@QDir@@QBEXXZ" PURGE="0" COMMENT="" />
    <EXPORT ORDINAL="3861" NAME="?refresh@QFileInfo@@QAEXXZ" PURGE="0" COMMENT="" />
    <EXPORT ORDINAL="3862" NAME="?refreshAll@QFactoryLoader@@SAXXZ" PURGE="0" COMMENT="" />
    <EXPORT ORDINAL="3863" NAME="?registerAnimation@QUnifiedTimer@@SAXPAVQAbstractAnimation@@_N@Z" PURGE="0" COMMENT="" />
    <EXPORT ORDINAL="3864" NAME="?registerCallback@QInternal@@SA_NW4Callback@1@P6A_NPAPAX@Z@Z" PURGE="0" COMMENT="" />
    <EXPORT ORDINAL="3865" NAME="?registerEventNotifier@QEventDispatcherWin32@@QAE_NPAVQWinEventNotifier@@@Z" PURGE="4" COMMENT="" />
    <EXPORT ORDINAL="3866" NAME="?registerEventTransition@QStateMachinePrivate@@QAEXPAVQEventTransition@@@Z" PURGE="4" COMMENT="" />
    <EXPORT ORDINAL="3867" NAME="?registerEventType@QEvent@@SAHH@Z" PURGE="0" COMMENT="" />
    <EXPORT ORDINAL="3868" NAME="?registerFormat@QSettings@@SA?AW4Format@1@ABVQString@@P6A_NAAVQIODevice@@AAV?$QMap@VQString@@VQVariant@@@@@ZP6A_N1ABV5@@ZW4CaseSensitivity@Qt@@@Z" PURGE="0" COMMENT="" />
    <EXPORT ORDINAL="3869" NAME="?registerInterpolator@QVariantAnimation@@CAXP6A?AVQVariant@@PBX0N@ZH@Z" PURGE="0" COMMENT="" />
    <EXPORT ORDINAL="3870" NAME="?registerResource@QResource@@SA_NABVQString@@0@Z" PURGE="0" COMMENT="" />
    <EXPORT ORDINAL="3871" NAME="?registerResource@QResource@@SA_NPBEABVQString@@@Z" PURGE="0" COMMENT="" />
    <EXPORT ORDINAL="3872" NAME="?registerRestorable@QStateMachinePrivate@@QAEXPAVQObject@@ABVQByteArray@@@Z" PURGE="8" COMMENT="" />
    <EXPORT ORDINAL="3873" NAME="?registerRunningAnimation@QUnifiedTimer@@AAEXPAVQAbstractAnimation@@@Z" PURGE="4" COMMENT="" />
    <EXPORT ORDINAL="3874" NAME="?registerSignalTransition@QStateMachinePrivate@@QAEXPAVQSignalTransition@@@Z" PURGE="4" COMMENT="" />
    <EXPORT ORDINAL="3875" NAME="?registerSocketNotifier@QEventDispatcherWin32@@UAEXPAVQSocketNotifier@@@Z" PURGE="4" COMMENT="" />
    <EXPORT ORDINAL="3876" NAME="?registerStreamOperators@QMetaType@@SAXHP6AXAAVQDataStream@@PBX@ZP6AX0PAX@Z@Z" PURGE="0" COMMENT="" />
    <EXPORT ORDINAL="3877" NAME="?registerStreamOperators@QMetaType@@SAXPBDP6AXAAVQDataStream@@PBX@ZP6AX1PAX@Z@Z" PURGE="0" COMMENT="" />
    <EXPORT ORDINAL="3878" NAME="?registerTimer@QAbstractEventDispatcher@@QAEHHPAVQObject@@@Z" PURGE="8" COMMENT="" />
    <EXPORT ORDINAL="3879" NAME="?registerTimer@QEventDispatcherWin32@@UAEXHHPAVQObject@@@Z" PURGE="12" COMMENT="" />
    <EXPORT ORDINAL="3880" NAME="?registerTransitions@QStateMachinePrivate@@QAEXPAVQAbstractState@@@Z" PURGE="4" COMMENT="" />
    <EXPORT ORDINAL="3881" NAME="?registerType@QMetaType@@SAHPBDP6AXPAX@ZP6APAXPBX@Z@Z" PURGE="0" COMMENT="" />
    <EXPORT ORDINAL="3882" NAME="?registerTypedef@QMetaType@@SAHPBDH@Z" PURGE="0" COMMENT="" />
    <EXPORT ORDINAL="3883" NAME="?registerUserData@QObject@@SAIXZ" PURGE="0" COMMENT="" />
    <EXPORT ORDINAL="3884" NAME="?registeredTimers@QEventDispatcherWin32@@UBE?AV?$QList@U?$QPair@HH@@@@PAVQObject@@@Z" PURGE="8" COMMENT="" />
    <EXPORT ORDINAL="3885" NAME="?rehash@QHashData@@QAEXH@Z" PURGE="4" COMMENT="" />
    <EXPORT ORDINAL="3886" NAME="?relativeFilePath@QDir@@QBE?AVQString@@ABV2@@Z" PURGE="8" COMMENT="" />
    <EXPORT ORDINAL="3887" NAME="?release@QSemaphore@@QAEXH@Z" PURGE="4" COMMENT="" />
    <EXPORT ORDINAL="3888" NAME="?release@QSystemSemaphore@@QAE_NH@Z" PURGE="4" COMMENT="" />
    <EXPORT ORDINAL="3889" NAME="?releaseThread@QThreadPool@@QAEXXZ" PURGE="0" COMMENT="" />
    <EXPORT ORDINAL="3890" NAME="?releaseTimerId@QAbstractEventDispatcherPrivate@@SAXH@Z" PURGE="0" COMMENT="" />
    <EXPORT ORDINAL="3891" NAME="?relock@QMutexLocker@@QAEXXZ" PURGE="0" COMMENT="" />
    <EXPORT ORDINAL="3892" NAME="?relock@QReadLocker@@QAEXXZ" PURGE="0" COMMENT="" />
    <EXPORT ORDINAL="3893" NAME="?relock@QWriteLocker@@QAEXXZ" PURGE="0" COMMENT="" />
    <EXPORT ORDINAL="3894" NAME="?remove@?$QVector@VQPoint@@@@QAEXH@Z" PURGE="4" COMMENT="" />
    <EXPORT ORDINAL="3895" NAME="?remove@?$QVector@VQPoint@@@@QAEXHH@Z" PURGE="8" COMMENT="" />
    <EXPORT ORDINAL="3896" NAME="?remove@?$QVector@VQPointF@@@@QAEXH@Z" PURGE="4" COMMENT="" />
    <EXPORT ORDINAL="3897" NAME="?remove@?$QVector@VQPointF@@@@QAEXHH@Z" PURGE="8" COMMENT="" />
    <EXPORT ORDINAL="3898" NAME="?remove@?$QVector@VQXmlStreamAttribute@@@@QAEXH@Z" PURGE="4" COMMENT="" />
    <EXPORT ORDINAL="3899" NAME="?remove@?$QVector@VQXmlStreamAttribute@@@@QAEXHH@Z" PURGE="8" COMMENT="" />
    <EXPORT ORDINAL="3900" NAME="?remove@QAbstractFileEngine@@UAE_NXZ" PURGE="0" COMMENT="" />
    <EXPORT ORDINAL="3901" NAME="?remove@QByteArray@@QAEAAV1@HH@Z" PURGE="8" COMMENT="" />
    <EXPORT ORDINAL="3902" NAME="?remove@QDir@@QAE_NABVQString@@@Z" PURGE="4" COMMENT="" />
    <EXPORT ORDINAL="3903" NAME="?remove@QFSFileEngine@@UAE_NXZ" PURGE="0" COMMENT="" />
    <EXPORT ORDINAL="3904" NAME="?remove@QFile@@QAE_NXZ" PURGE="0" COMMENT="" />
    <EXPORT ORDINAL="3905" NAME="?remove@QFile@@SA_NABVQString@@@Z" PURGE="0" COMMENT="" />
    <EXPORT ORDINAL="3906" NAME="?remove@QListData@@QAEXH@Z" PURGE="4" COMMENT="" />
    <EXPORT ORDINAL="3907" NAME="?remove@QListData@@QAEXHH@Z" PURGE="8" COMMENT="" />
    <EXPORT ORDINAL="3908" NAME="?remove@QObjectCleanupHandler@@QAEXPAVQObject@@@Z" PURGE="4" COMMENT="" />
    <EXPORT ORDINAL="3909" NAME="?remove@QProcessEnvironment@@QAEXABVQString@@@Z" PURGE="4" COMMENT="" />
    <EXPORT ORDINAL="3910" NAME="?remove@QSettings@@QAEXABVQString@@@Z" PURGE="4" COMMENT="" />
    <EXPORT ORDINAL="3911" NAME="?remove@QString@@QAEAAV1@ABV1@W4CaseSensitivity@Qt@@@Z" PURGE="8" COMMENT="" />
    <EXPORT ORDINAL="3912" NAME="?remove@QString@@QAEAAV1@ABV1@_N@Z" PURGE="8" COMMENT="" />
    <EXPORT ORDINAL="3913" NAME="?remove@QString@@QAEAAV1@ABVQRegExp@@@Z" PURGE="4" COMMENT="" />
    <EXPORT ORDINAL="3914" NAME="?remove@QString@@QAEAAV1@HH@Z" PURGE="8" COMMENT="" />
    <EXPORT ORDINAL="3915" NAME="?remove@QString@@QAEAAV1@VQChar@@W4CaseSensitivity@Qt@@@Z" PURGE="8" COMMENT="" />
    <EXPORT ORDINAL="3916" NAME="?remove@QString@@QAEAAV1@VQChar@@_N@Z" PURGE="8" COMMENT="" />
    <EXPORT ORDINAL="3917" NAME="?removeAllEncodedQueryItems@QUrl@@QAEXABVQByteArray@@@Z" PURGE="4" COMMENT="" />
    <EXPORT ORDINAL="3918" NAME="?removeAllQueryItems@QUrl@@QAEXABVQString@@@Z" PURGE="4" COMMENT="" />
    <EXPORT ORDINAL="3919" NAME="?removeAnimation@QAbstractTransition@@QAEXPAVQAbstractAnimation@@@Z" PURGE="4" COMMENT="" />
    <EXPORT ORDINAL="3920" NAME="?removeAnimation@QAnimationGroup@@QAEXPAVQAbstractAnimation@@@Z" PURGE="4" COMMENT="" />
    <EXPORT ORDINAL="3921" NAME="?removeChild@QObject@@QAEXPAV1@@Z" PURGE="4" COMMENT="" />
    <EXPORT ORDINAL="3922" NAME="?removeColumn@QAbstractItemModel@@QAE_NHABVQModelIndex@@@Z" PURGE="8" COMMENT="" />
    <EXPORT ORDINAL="3923" NAME="?removeColumns@QAbstractItemModel@@UAE_NHHABVQModelIndex@@@Z" PURGE="12" COMMENT="" />
    <EXPORT ORDINAL="3924" NAME="?removeDefaultAnimation@QStateMachine@@QAEXPAVQAbstractAnimation@@@Z" PURGE="4" COMMENT="" />
    <EXPORT ORDINAL="3925" NAME="?removeEncodedQueryItem@QUrl@@QAEXABVQByteArray@@@Z" PURGE="4" COMMENT="" />
    <EXPORT ORDINAL="3926" NAME="?removeEntry@QSettings@@QAE_NABVQString@@@Z" PURGE="4" COMMENT="" />
    <EXPORT ORDINAL="3927" NAME="?removeEventFilter@QObject@@QAEXPAV1@@Z" PURGE="4" COMMENT="" />
    <EXPORT ORDINAL="3928" NAME="?removeFormat@QMimeData@@QAEXABVQString@@@Z" PURGE="4" COMMENT="" />
    <EXPORT ORDINAL="3929" NAME="?removeGuard@QMetaObject@@SAXPAPAVQObject@@@Z" PURGE="0" COMMENT="" />
    <EXPORT ORDINAL="3930" NAME="?removeLibraryPath@QCoreApplication@@SAXABVQString@@@Z" PURGE="0" COMMENT="" />
    <EXPORT ORDINAL="3931" NAME="?removeMappings@QSignalMapper@@QAEXPAVQObject@@@Z" PURGE="4" COMMENT="" />
    <EXPORT ORDINAL="3932" NAME="?removePath@QFileSystemWatcher@@QAEXABVQString@@@Z" PURGE="4" COMMENT="" />
    <EXPORT ORDINAL="3933" NAME="?removePaths@QFileSystemWatcher@@QAEXABVQStringList@@@Z" PURGE="4" COMMENT="" />
    <EXPORT ORDINAL="3934" NAME="?removePersistentIndexData@QAbstractItemModelPrivate@@QAEXPAVQPersistentModelIndexData@@@Z" PURGE="4" COMMENT="" />
    <EXPORT ORDINAL="3935" NAME="?removePostedEvent@QCoreApplicationPrivate@@SAXPAVQEvent@@@Z" PURGE="0" COMMENT="" />
    <EXPORT ORDINAL="3936" NAME="?removePostedEvents@QCoreApplication@@SAXPAVQObject@@@Z" PURGE="0" COMMENT="" />
    <EXPORT ORDINAL="3937" NAME="?removePostedEvents@QCoreApplication@@SAXPAVQObject@@H@Z" PURGE="0" COMMENT="" />
    <EXPORT ORDINAL="3938" NAME="?removePostedTimerEvent@QCoreApplicationPrivate@@SAXPAVQObject@@H@Z" PURGE="0" COMMENT="" />
    <EXPORT ORDINAL="3939" NAME="?removeQueryItem@QUrl@@QAEXABVQString@@@Z" PURGE="4" COMMENT="" />
    <EXPORT ORDINAL="3940" NAME="?removeRow@QAbstractItemModel@@QAE_NHABVQModelIndex@@@Z" PURGE="8" COMMENT="" />
    <EXPORT ORDINAL="3941" NAME="?removeRows@QAbstractItemModel@@UAE_NHHABVQModelIndex@@@Z" PURGE="12" COMMENT="" />
    <EXPORT ORDINAL="3942" NAME="?removeSearchPath@QSettings@@QAEXW4System@1@ABVQString@@@Z" PURGE="8" COMMENT="" />
    <EXPORT ORDINAL="3943" NAME="?removeStartState@QStateMachinePrivate@@QAEXXZ" PURGE="0" COMMENT="" />
    <EXPORT ORDINAL="3944" NAME="?removeState@QStateMachine@@QAEXPAVQAbstractState@@@Z" PURGE="4" COMMENT="" />
    <EXPORT ORDINAL="3945" NAME="?removeTransition@QState@@QAEXPAVQAbstractTransition@@@Z" PURGE="4" COMMENT="" />
    <EXPORT ORDINAL="3946" NAME="?removeTranslator@QCoreApplication@@SAXPAVQTranslator@@@Z" PURGE="0" COMMENT="" />
    <EXPORT ORDINAL="3947" NAME="?removed@QChildEvent@@QBE_NXZ" PURGE="0" COMMENT="" />
    <EXPORT ORDINAL="3948" NAME="?rename@QAbstractFileEngine@@UAE_NABVQString@@@Z" PURGE="4" COMMENT="" />
    <EXPORT ORDINAL="3949" NAME="?rename@QDir@@QAE_NABVQString@@0@Z" PURGE="8" COMMENT="" />
    <EXPORT ORDINAL="3950" NAME="?rename@QFSFileEngine@@UAE_NABVQString@@@Z" PURGE="4" COMMENT="" />
    <EXPORT ORDINAL="3951" NAME="?rename@QFile@@QAE_NABVQString@@@Z" PURGE="4" COMMENT="" />
    <EXPORT ORDINAL="3952" NAME="?rename@QFile@@SA_NABVQString@@0@Z" PURGE="0" COMMENT="" />
    <EXPORT ORDINAL="3953" NAME="?repeated@QByteArray@@QBE?AV1@H@Z" PURGE="8" COMMENT="" />
    <EXPORT ORDINAL="3954" NAME="?repeated@QString@@QBE?AV1@H@Z" PURGE="8" COMMENT="" />
    <EXPORT ORDINAL="3955" NAME="?replace@?$QVector@VQPoint@@@@QAEXHABVQPoint@@@Z" PURGE="8" COMMENT="" />
    <EXPORT ORDINAL="3956" NAME="?replace@?$QVector@VQPointF@@@@QAEXHABVQPointF@@@Z" PURGE="8" COMMENT="" />
    <EXPORT ORDINAL="3957" NAME="?replace@?$QVector@VQXmlStreamAttribute@@@@QAEXHABVQXmlStreamAttribute@@@Z" PURGE="8" COMMENT="" />
    <EXPORT ORDINAL="3958" NAME="?replace@QByteArray@@QAEAAV1@ABV1@0@Z" PURGE="8" COMMENT="" />
    <EXPORT ORDINAL="3959" NAME="?replace@QByteArray@@QAEAAV1@ABV1@PBD@Z" PURGE="8" COMMENT="" />
    <EXPORT ORDINAL="3960" NAME="?replace@QByteArray@@QAEAAV1@ABVQString@@ABV1@@Z" PURGE="8" COMMENT="" />
    <EXPORT ORDINAL="3961" NAME="?replace@QByteArray@@QAEAAV1@ABVQString@@PBD@Z" PURGE="8" COMMENT="" />
    <EXPORT ORDINAL="3962" NAME="?replace@QByteArray@@QAEAAV1@DABV1@@Z" PURGE="8" COMMENT="" />
    <EXPORT ORDINAL="3963" NAME="?replace@QByteArray@@QAEAAV1@DABVQString@@@Z" PURGE="8" COMMENT="" />
    <EXPORT ORDINAL="3964" NAME="?replace@QByteArray@@QAEAAV1@DD@Z" PURGE="8" COMMENT="" />
    <EXPORT ORDINAL="3965" NAME="?replace@QByteArray@@QAEAAV1@DPBD@Z" PURGE="8" COMMENT="" />
    <EXPORT ORDINAL="3966" NAME="?replace@QByteArray@@QAEAAV1@HHABV1@@Z" PURGE="12" COMMENT="" />
    <EXPORT ORDINAL="3967" NAME="?replace@QByteArray@@QAEAAV1@HHPBD@Z" PURGE="12" COMMENT="" />
    <EXPORT ORDINAL="3968" NAME="?replace@QByteArray@@QAEAAV1@HHPBDH@Z" PURGE="16" COMMENT="" />
    <EXPORT ORDINAL="3969" NAME="?replace@QByteArray@@QAEAAV1@PBD0@Z" PURGE="8" COMMENT="" />
    <EXPORT ORDINAL="3970" NAME="?replace@QByteArray@@QAEAAV1@PBDABV1@@Z" PURGE="8" COMMENT="" />
    <EXPORT ORDINAL="3971" NAME="?replace@QByteArray@@QAEAAV1@PBDH0H@Z" PURGE="16" COMMENT="" />
    <EXPORT ORDINAL="3972" NAME="?replace@QString@@QAEAAV1@ABV1@0W4CaseSensitivity@Qt@@@Z" PURGE="12" COMMENT="" />
    <EXPORT ORDINAL="3973" NAME="?replace@QString@@QAEAAV1@ABV1@0_N@Z" PURGE="12" COMMENT="" />
    <EXPORT ORDINAL="3974" NAME="?replace@QString@@QAEAAV1@ABV1@ABVQLatin1String@@W4CaseSensitivity@Qt@@@Z" PURGE="12" COMMENT="" />
    <EXPORT ORDINAL="3975" NAME="?replace@QString@@QAEAAV1@ABVQLatin1String@@0W4CaseSensitivity@Qt@@@Z" PURGE="12" COMMENT="" />
    <EXPORT ORDINAL="3976" NAME="?replace@QString@@QAEAAV1@ABVQLatin1String@@ABV1@W4CaseSensitivity@Qt@@@Z" PURGE="12" COMMENT="" />
    <EXPORT ORDINAL="3977" NAME="?replace@QString@@QAEAAV1@ABVQRegExp@@ABV1@@Z" PURGE="8" COMMENT="" />
    <EXPORT ORDINAL="3978" NAME="?replace@QString@@QAEAAV1@DABV1@W4CaseSensitivity@Qt@@@Z" PURGE="12" COMMENT="" />
    <EXPORT ORDINAL="3979" NAME="?replace@QString@@QAEAAV1@DABV1@_N@Z" PURGE="12" COMMENT="" />
    <EXPORT ORDINAL="3980" NAME="?replace@QString@@QAEAAV1@HHABV1@@Z" PURGE="12" COMMENT="" />
    <EXPORT ORDINAL="3981" NAME="?replace@QString@@QAEAAV1@HHPBVQChar@@H@Z" PURGE="16" COMMENT="" />
    <EXPORT ORDINAL="3982" NAME="?replace@QString@@QAEAAV1@HHVQChar@@@Z" PURGE="12" COMMENT="" />
    <EXPORT ORDINAL="3983" NAME="?replace@QString@@QAEAAV1@PBVQChar@@H0HW4CaseSensitivity@Qt@@@Z" PURGE="20" COMMENT="" />
    <EXPORT ORDINAL="3984" NAME="?replace@QString@@QAEAAV1@VQChar@@0W4CaseSensitivity@Qt@@@Z" PURGE="12" COMMENT="" />
    <EXPORT ORDINAL="3985" NAME="?replace@QString@@QAEAAV1@VQChar@@ABV1@W4CaseSensitivity@Qt@@@Z" PURGE="12" COMMENT="" />
    <EXPORT ORDINAL="3986" NAME="?replace@QString@@QAEAAV1@VQChar@@ABV1@_N@Z" PURGE="12" COMMENT="" />
    <EXPORT ORDINAL="3987" NAME="?replace@QString@@QAEAAV1@VQChar@@ABVQLatin1String@@W4CaseSensitivity@Qt@@@Z" PURGE="12" COMMENT="" />
    <EXPORT ORDINAL="3988" NAME="?replace_helper@QString@@AAEXPAIHHPBVQChar@@H@Z" PURGE="20" COMMENT="" />
    <EXPORT ORDINAL="3989" NAME="?reportCanceled@QFutureInterfaceBase@@QAEXXZ" PURGE="0" COMMENT="" />
    <EXPORT ORDINAL="3990" NAME="?reportException@QFutureInterfaceBase@@QAEXABVException@QtConcurrent@@@Z" PURGE="4" COMMENT="" />
    <EXPORT ORDINAL="3991" NAME="?reportFinished@QFutureInterfaceBase@@QAEXXZ" PURGE="0" COMMENT="" />
    <EXPORT ORDINAL="3992" NAME="?reportResultsReady@QFutureInterfaceBase@@QAEXHH@Z" PURGE="8" COMMENT="" />
    <EXPORT ORDINAL="3993" NAME="?reportStarted@QFutureInterfaceBase@@QAEXXZ" PURGE="0" COMMENT="" />
    <EXPORT ORDINAL="3994" NAME="?requiresSurrogates@QChar@@SA_NI@Z" PURGE="0" COMMENT="" />
    <EXPORT ORDINAL="3995" NAME="?reserve@?$QVector@VQPoint@@@@QAEXH@Z" PURGE="4" COMMENT="" />
    <EXPORT ORDINAL="3996" NAME="?reserve@?$QVector@VQPointF@@@@QAEXH@Z" PURGE="4" COMMENT="" />
    <EXPORT ORDINAL="3997" NAME="?reserve@?$QVector@VQXmlStreamAttribute@@@@QAEXH@Z" PURGE="4" COMMENT="" />
    <EXPORT ORDINAL="3998" NAME="?reserve@QByteArray@@QAEXH@Z" PURGE="4" COMMENT="" />
    <EXPORT ORDINAL="3999" NAME="?reserve@QString@@QAEXH@Z" PURGE="4" COMMENT="" />
    <EXPORT ORDINAL="4000" NAME="?reserveThread@QThreadPool@@QAEXXZ" PURGE="0" COMMENT="" />
    <EXPORT ORDINAL="4001" NAME="?reset@@YAAAVQTextStream@@AAV1@@Z" PURGE="0" COMMENT="" />
    <EXPORT ORDINAL="4002" NAME="?reset@QAbstractItemModel@@IAEXXZ" PURGE="0" COMMENT="" />
    <EXPORT ORDINAL="4003" NAME="?reset@QCryptographicHash@@QAEXXZ" PURGE="0" COMMENT="" />
    <EXPORT ORDINAL="4004" NAME="?reset@QIODevice@@UAE_NXZ" PURGE="0" COMMENT="" />
    <EXPORT ORDINAL="4005" NAME="?reset@QMetaProperty@@QBE_NPAVQObject@@@Z" PURGE="4" COMMENT="" />
    <EXPORT ORDINAL="4006" NAME="?reset@QTextStream@@QAEXXZ" PURGE="0" COMMENT="" />
    <EXPORT ORDINAL="4007" NAME="?reset@QUrl@@IAEXXZ" PURGE="0" COMMENT="" />
    <EXPORT ORDINAL="4008" NAME="?resetCurrentSender@QObjectPrivate@@SAXPAVQObject@@PAUSender@1@1@Z" PURGE="0" COMMENT="" />
    <EXPORT ORDINAL="4009" NAME="?resetGroup@QSettings@@QAEXXZ" PURGE="0" COMMENT="" />
    <EXPORT ORDINAL="4010" NAME="?resetInternalData@QAbstractItemModel@@IAEXXZ" PURGE="0" COMMENT="" />
    <EXPORT ORDINAL="4011" NAME="?resetRawData@QByteArray@@QAEXPBDI@Z" PURGE="8" COMMENT="" />
    <EXPORT ORDINAL="4012" NAME="?resetStatus@QDataStream@@QAEXXZ" PURGE="0" COMMENT="" />
    <EXPORT ORDINAL="4013" NAME="?resetStatus@QIODevice@@QAEXXZ" PURGE="0" COMMENT="" />
    <EXPORT ORDINAL="4014" NAME="?resetStatus@QTextStream@@QAEXXZ" PURGE="0" COMMENT="" />
    <EXPORT ORDINAL="4015" NAME="?resize@?$QVector@VQPoint@@@@QAEXH@Z" PURGE="4" COMMENT="" />
    <EXPORT ORDINAL="4016" NAME="?resize@?$QVector@VQPointF@@@@QAEXH@Z" PURGE="4" COMMENT="" />
    <EXPORT ORDINAL="4017" NAME="?resize@?$QVector@VQXmlStreamAttribute@@@@QAEXH@Z" PURGE="4" COMMENT="" />
    <EXPORT ORDINAL="4018" NAME="?resize@QBitArray@@QAEXH@Z" PURGE="4" COMMENT="" />
    <EXPORT ORDINAL="4019" NAME="?resize@QByteArray@@QAEXH@Z" PURGE="4" COMMENT="" />
    <EXPORT ORDINAL="4020" NAME="?resize@QFile@@QAE_N_J@Z" PURGE="8" COMMENT="" />
    <EXPORT ORDINAL="4021" NAME="?resize@QFile@@SA_NABVQString@@_J@Z" PURGE="0" COMMENT="" />
    <EXPORT ORDINAL="4022" NAME="?resize@QString@@QAEXH@Z" PURGE="4" COMMENT="" />
    <EXPORT ORDINAL="4023" NAME="?resolve@QLibrary@@QAEPAXPBD@Z" PURGE="4" COMMENT="" />
    <EXPORT ORDINAL="4024" NAME="?resolve@QLibrary@@SAPAXABVQString@@0PBD@Z" PURGE="0" COMMENT="" />
    <EXPORT ORDINAL="4025" NAME="?resolve@QLibrary@@SAPAXABVQString@@HPBD@Z" PURGE="0" COMMENT="" />
    <EXPORT ORDINAL="4026" NAME="?resolve@QLibrary@@SAPAXABVQString@@PBD@Z" PURGE="0" COMMENT="" />
    <EXPORT ORDINAL="4027" NAME="?resolveEntity@QXmlStreamEntityResolver@@UAE?AVQString@@ABV2@0@Z" PURGE="12" COMMENT="" />
    <EXPORT ORDINAL="4028" NAME="?resolveUndeclaredEntity@QXmlStreamEntityResolver@@UAE?AVQString@@ABV2@@Z" PURGE="8" COMMENT="" />
    <EXPORT ORDINAL="4029" NAME="?resolved@QUrl@@QBE?AV1@ABV1@@Z" PURGE="8" COMMENT="" />
    <EXPORT ORDINAL="4030" NAME="?restart@QElapsedTimer@@QAE_JXZ" PURGE="0" COMMENT="" />
    <EXPORT ORDINAL="4031" NAME="?restart@QTime@@QAEHXZ" PURGE="0" COMMENT="" />
    <EXPORT ORDINAL="4032" NAME="?restartAnimationTimer@QUnifiedTimer@@QAEXXZ" PURGE="0" COMMENT="" />
    <EXPORT ORDINAL="4033" NAME="?restorableValue@QStateMachinePrivate@@QBE?AVQVariant@@PAVQObject@@ABVQByteArray@@@Z" PURGE="12" COMMENT="" />
    <EXPORT ORDINAL="4034" NAME="?restorablesToPropertyList@QStateMachinePrivate@@QBE?AV?$QList@UQPropertyAssignment@@@@ABV?$QHash@U?$QPair@PAVQObject@@VQByteArray@@@@VQVariant@@@@@Z" PURGE="8" COMMENT="" />
    <EXPORT ORDINAL="4035" NAME="?result@QCryptographicHash@@QBE?AVQByteArray@@XZ" PURGE="4" COMMENT="" />
    <EXPORT ORDINAL="4036" NAME="?resultAt@ResultStoreBase@QtConcurrent@@QBE?AVResultIteratorBase@2@H@Z" PURGE="8" COMMENT="" />
    <EXPORT ORDINAL="4037" NAME="?resultCount@QFutureInterfaceBase@@QBEHXZ" PURGE="0" COMMENT="" />
    <EXPORT ORDINAL="4038" NAME="?resultIndex@ResultIteratorBase@QtConcurrent@@QBEHXZ" PURGE="0" COMMENT="" />
    <EXPORT ORDINAL="4039" NAME="?resultReadyAt@QFutureWatcherBase@@IAEXH@Z" PURGE="4" COMMENT="" />
    <EXPORT ORDINAL="4040" NAME="?resultStoreBase@QFutureInterfaceBase@@QAEAAVResultStoreBase@QtConcurrent@@XZ" PURGE="0" COMMENT="" />
    <EXPORT ORDINAL="4041" NAME="?resultStoreBase@QFutureInterfaceBase@@QBEABVResultStoreBase@QtConcurrent@@XZ" PURGE="0" COMMENT="" />
    <EXPORT ORDINAL="4042" NAME="?resultsReadyAt@QFutureWatcherBase@@IAEXHH@Z" PURGE="8" COMMENT="" />
    <EXPORT ORDINAL="4043" NAME="?resume@QAbstractAnimation@@QAEXXZ" PURGE="0" COMMENT="" />
    <EXPORT ORDINAL="4044" NAME="?resume@QFutureWatcherBase@@QAEXXZ" PURGE="0" COMMENT="" />
    <EXPORT ORDINAL="4045" NAME="?resume@QTimeLine@@QAEXXZ" PURGE="0" COMMENT="" />
    <EXPORT ORDINAL="4046" NAME="?resumed@QFutureWatcherBase@@IAEXXZ" PURGE="0" COMMENT="" />
    <EXPORT ORDINAL="4047" NAME="?retrieveData@QMimeData@@MBE?AVQVariant@@ABVQString@@W4Type@2@@Z" PURGE="12" COMMENT="" />
    <EXPORT ORDINAL="4048" NAME="?revert@QAbstractItemModel@@UAEXXZ" PURGE="0" COMMENT="" />
    <EXPORT ORDINAL="4049" NAME="?revision@QMetaMethod@@QBEHXZ" PURGE="0" COMMENT="" />
    <EXPORT ORDINAL="4050" NAME="?revision@QMetaProperty@@QBEHXZ" PURGE="0" COMMENT="" />
    <EXPORT ORDINAL="4051" NAME="?rheight@QSize@@QAEAAHXZ" PURGE="0" COMMENT="" />
    <EXPORT ORDINAL="4052" NAME="?rheight@QSizeF@@QAEAANXZ" PURGE="0" COMMENT="" />
    <EXPORT ORDINAL="4053" NAME="?right@@YAAAVQTextStream@@AAV1@@Z" PURGE="0" COMMENT="" />
    <EXPORT ORDINAL="4054" NAME="?right@QByteArray@@QBE?AV1@H@Z" PURGE="8" COMMENT="" />
    <EXPORT ORDINAL="4055" NAME="?right@QRect@@QBEHXZ" PURGE="0" COMMENT="" />
    <EXPORT ORDINAL="4056" NAME="?right@QRectF@@QBENXZ" PURGE="0" COMMENT="" />
    <EXPORT ORDINAL="4057" NAME="?right@QString@@QBE?AV1@H@Z" PURGE="8" COMMENT="" />
    <EXPORT ORDINAL="4058" NAME="?rightJustified@QByteArray@@QBE?AV1@HD_N@Z" PURGE="16" COMMENT="" />
    <EXPORT ORDINAL="4059" NAME="?rightJustified@QString@@QBE?AV1@HVQChar@@_N@Z" PURGE="16" COMMENT="" />
    <EXPORT ORDINAL="4060" NAME="?rightJustify@QByteArray@@QBE?AV1@ID_N@Z" PURGE="16" COMMENT="" />
    <EXPORT ORDINAL="4061" NAME="?rightJustify@QString@@QBE?AV1@HVQChar@@_N@Z" PURGE="16" COMMENT="" />
    <EXPORT ORDINAL="4062" NAME="?rightRef@QString@@QBE?AVQStringRef@@H@Z" PURGE="8" COMMENT="" />
    <EXPORT ORDINAL="4063" NAME="?rmdir@QAbstractFileEngine@@UBE_NABVQString@@_N@Z" PURGE="8" COMMENT="" />
    <EXPORT ORDINAL="4064" NAME="?rmdir@QDir@@QBE_NABVQString@@@Z" PURGE="4" COMMENT="" />
    <EXPORT ORDINAL="4065" NAME="?rmdir@QDir@@QBE_NABVQString@@_N@Z" PURGE="8" COMMENT="" />
    <EXPORT ORDINAL="4066" NAME="?rmdir@QFSFileEngine@@UBE_NABVQString@@_N@Z" PURGE="8" COMMENT="" />
    <EXPORT ORDINAL="4067" NAME="?rmpath@QDir@@QBE_NABVQString@@@Z" PURGE="4" COMMENT="" />
    <EXPORT ORDINAL="4068" NAME="?roleNames@QAbstractItemModel@@QBEABV?$QHash@HVQByteArray@@@@XZ" PURGE="0" COMMENT="" />
    <EXPORT ORDINAL="4069" NAME="?root@QDir@@SA?AV1@XZ" PURGE="0" COMMENT="" />
    <EXPORT ORDINAL="4070" NAME="?rootDirPath@QDir@@SA?AVQString@@XZ" PURGE="0" COMMENT="" />
    <EXPORT ORDINAL="4071" NAME="?rootPath@QDir@@SA?AVQString@@XZ" PURGE="0" COMMENT="" />
    <EXPORT ORDINAL="4072" NAME="?rootPath@QFSFileEngine@@SA?AVQString@@XZ" PURGE="0" COMMENT="" />
    <EXPORT ORDINAL="4073" NAME="?rootState@QStateMachinePrivate@@QBEPAVQState@@XZ" PURGE="0" COMMENT="" />
    <EXPORT ORDINAL="4074" NAME="?row@QChar@@QBEEXZ" PURGE="0" COMMENT="" />
    <EXPORT ORDINAL="4075" NAME="?row@QCharRef@@QBEEXZ" PURGE="0" COMMENT="" />
    <EXPORT ORDINAL="4076" NAME="?row@QModelIndex@@QBEHXZ" PURGE="0" COMMENT="" />
    <EXPORT ORDINAL="4077" NAME="?row@QPersistentModelIndex@@QBEHXZ" PURGE="0" COMMENT="" />
    <EXPORT ORDINAL="4078" NAME="?rowsAboutToBeInserted@QAbstractItemModel@@AAEXABVQModelIndex@@HH@Z" PURGE="12" COMMENT="" />
    <EXPORT ORDINAL="4079" NAME="?rowsAboutToBeInserted@QAbstractItemModelPrivate@@QAEXABVQModelIndex@@HH@Z" PURGE="12" COMMENT="" />
    <EXPORT ORDINAL="4080" NAME="?rowsAboutToBeMoved@QAbstractItemModel@@AAEXABVQModelIndex@@HH0H@Z" PURGE="20" COMMENT="" />
    <EXPORT ORDINAL="4081" NAME="?rowsAboutToBeRemoved@QAbstractItemModel@@AAEXABVQModelIndex@@HH@Z" PURGE="12" COMMENT="" />
    <EXPORT ORDINAL="4082" NAME="?rowsAboutToBeRemoved@QAbstractItemModelPrivate@@QAEXABVQModelIndex@@HH@Z" PURGE="12" COMMENT="" />
    <EXPORT ORDINAL="4083" NAME="?rowsInserted@QAbstractItemModel@@AAEXABVQModelIndex@@HH@Z" PURGE="12" COMMENT="" />
    <EXPORT ORDINAL="4084" NAME="?rowsInserted@QAbstractItemModelPrivate@@QAEXABVQModelIndex@@HH@Z" PURGE="12" COMMENT="" />
    <EXPORT ORDINAL="4085" NAME="?rowsMoved@QAbstractItemModel@@AAEXABVQModelIndex@@HH0H@Z" PURGE="20" COMMENT="" />
    <EXPORT ORDINAL="4086" NAME="?rowsRemoved@QAbstractItemModel@@AAEXABVQModelIndex@@HH@Z" PURGE="12" COMMENT="" />
    <EXPORT ORDINAL="4087" NAME="?rowsRemoved@QAbstractItemModelPrivate@@QAEXABVQModelIndex@@HH@Z" PURGE="12" COMMENT="" />
    <EXPORT ORDINAL="4088" NAME="?run@QThread@@MAEXXZ" PURGE="0" COMMENT="" />
    <EXPORT ORDINAL="4089" NAME="?run@QWindowsPipeWriter@@MAEXXZ" PURGE="0" COMMENT="" />
    <EXPORT ORDINAL="4090" NAME="?run@ThreadEngineBase@QtConcurrent@@EAEXXZ" PURGE="0" COMMENT="" />
    <EXPORT ORDINAL="4091" NAME="?running@QThread@@QBE_NXZ" PURGE="0" COMMENT="" />
    <EXPORT ORDINAL="4092" NAME="?runningAnimationCount@QUnifiedTimer@@QAEHXZ" PURGE="0" COMMENT="" />
    <EXPORT ORDINAL="4093" NAME="?rwidth@QSize@@QAEAAHXZ" PURGE="0" COMMENT="" />
    <EXPORT ORDINAL="4094" NAME="?rwidth@QSizeF@@QAEAANXZ" PURGE="0" COMMENT="" />
    <EXPORT ORDINAL="4095" NAME="?rx@QPoint@@QAEAAHXZ" PURGE="0" COMMENT="" />
    <EXPORT ORDINAL="4096" NAME="?rx@QPointF@@QAEAANXZ" PURGE="0" COMMENT="" />
    <EXPORT ORDINAL="4097" NAME="?ry@QPoint@@QAEAAHXZ" PURGE="0" COMMENT="" />
    <EXPORT ORDINAL="4098" NAME="?ry@QPointF@@QAEAANXZ" PURGE="0" COMMENT="" />
    <EXPORT ORDINAL="4099" NAME="?save@QMetaType@@SA_NAAVQDataStream@@HPBX@Z" PURGE="0" COMMENT="" />
    <EXPORT ORDINAL="4100" NAME="?save@QVariant@@QBEXAAVQDataStream@@@Z" PURGE="4" COMMENT="" />
    <EXPORT ORDINAL="4101" NAME="?scale@QSize@@QAEXABV1@W4AspectRatioMode@Qt@@@Z" PURGE="8" COMMENT="" />
    <EXPORT ORDINAL="4102" NAME="?scale@QSize@@QAEXHHW4AspectRatioMode@Qt@@@Z" PURGE="12" COMMENT="" />
    <EXPORT ORDINAL="4103" NAME="?scale@QSizeF@@QAEXABV1@W4AspectRatioMode@Qt@@@Z" PURGE="8" COMMENT="" />
    <EXPORT ORDINAL="4104" NAME="?scale@QSizeF@@QAEXNNW4AspectRatioMode@Qt@@@Z" PURGE="20" COMMENT="" />
    <EXPORT ORDINAL="4105" NAME="?scheme@QUrl@@QBE?AVQString@@XZ" PURGE="4" COMMENT="" />
    <EXPORT ORDINAL="4106" NAME="?scientific@@YAAAVQTextStream@@AAV1@@Z" PURGE="0" COMMENT="" />
    <EXPORT ORDINAL="4107" NAME="?scope@QMetaEnum@@QBEPBDXZ" PURGE="0" COMMENT="" />
    <EXPORT ORDINAL="4108" NAME="?scope@QSettings@@QBE?AW4Scope@1@XZ" PURGE="0" COMMENT="" />
    <EXPORT ORDINAL="4109" NAME="?scope@QSystemError@@QAE?AW4ErrorScope@1@XZ" PURGE="0" COMMENT="" />
    <EXPORT ORDINAL="4110" NAME="?script@QLocale@@QBE?AW4Script@1@XZ" PURGE="0" COMMENT="" />
    <EXPORT ORDINAL="4111" NAME="?script@QUnicodeTables@@YIHI@Z" PURGE="0" COMMENT="" />
    <EXPORT ORDINAL="4112" NAME="?scriptCode@QLocalePrivate@@QBE?AVQString@@XZ" PURGE="4" COMMENT="" />
    <EXPORT ORDINAL="4113" NAME="?scriptToString@QLocale@@SA?AVQString@@W4Script@1@@Z" PURGE="0" COMMENT="" />
    <EXPORT ORDINAL="4114" NAME="?search@QRegExp@@QBEHABVQString@@HW4CaretMode@1@@Z" PURGE="12" COMMENT="" />
    <EXPORT ORDINAL="4115" NAME="?searchPaths@QDir@@SA?AVQStringList@@ABVQString@@@Z" PURGE="0" COMMENT="" />
    <EXPORT ORDINAL="4116" NAME="?searchPaths@QResource@@SA?AVQStringList@@XZ" PURGE="0" COMMENT="" />
    <EXPORT ORDINAL="4117" NAME="?searchRev@QRegExp@@QBEHABVQString@@HW4CaretMode@1@@Z" PURGE="12" COMMENT="" />
    <EXPORT ORDINAL="4118" NAME="?second@QTime@@QBEHXZ" PURGE="0" COMMENT="" />
    <EXPORT ORDINAL="4119" NAME="?secsTo@QDateTime@@QBEHABV1@@Z" PURGE="4" COMMENT="" />
    <EXPORT ORDINAL="4120" NAME="?secsTo@QElapsedTimer@@QBE_JABV1@@Z" PURGE="4" COMMENT="" />
    <EXPORT ORDINAL="4121" NAME="?secsTo@QTime@@QBEHABV1@@Z" PURGE="4" COMMENT="" />
    <EXPORT ORDINAL="4122" NAME="?section@QString@@QBE?AV1@ABV1@HHV?$QFlags@W4SectionFlag@QString@@@@@Z" PURGE="20" COMMENT="" />
    <EXPORT ORDINAL="4123" NAME="?section@QString@@QBE?AV1@ABVQRegExp@@HHV?$QFlags@W4SectionFlag@QString@@@@@Z" PURGE="20" COMMENT="" />
    <EXPORT ORDINAL="4124" NAME="?section@QString@@QBE?AV1@VQChar@@HHV?$QFlags@W4SectionFlag@QString@@@@@Z" PURGE="20" COMMENT="" />
    <EXPORT ORDINAL="4125" NAME="?sectionFormat@QDateTimeParser@@QBE?AVQString@@H@Z" PURGE="8" COMMENT="" />
    <EXPORT ORDINAL="4126" NAME="?sectionFormat@QDateTimeParser@@QBE?AVQString@@W4Section@1@H@Z" PURGE="12" COMMENT="" />
    <EXPORT ORDINAL="4127" NAME="?sectionMaxSize@QDateTimeParser@@QBEHH@Z" PURGE="4" COMMENT="" />
    <EXPORT ORDINAL="4128" NAME="?sectionMaxSize@QDateTimeParser@@QBEHW4Section@1@H@Z" PURGE="8" COMMENT="" />
    <EXPORT ORDINAL="4129" NAME="?sectionName@QDateTimeParser@@QBE?AVQString@@H@Z" PURGE="8" COMMENT="" />
    <EXPORT ORDINAL="4130" NAME="?sectionNode@QDateTimeParser@@QBEABUSectionNode@1@H@Z" PURGE="4" COMMENT="" />
    <EXPORT ORDINAL="4131" NAME="?sectionPos@QDateTimeParser@@QBEHABUSectionNode@1@@Z" PURGE="4" COMMENT="" />
    <EXPORT ORDINAL="4132" NAME="?sectionPos@QDateTimeParser@@QBEHH@Z" PURGE="4" COMMENT="" />
    <EXPORT ORDINAL="4133" NAME="?sectionSize@QDateTimeParser@@QBEHH@Z" PURGE="4" COMMENT="" />
    <EXPORT ORDINAL="4134" NAME="?sectionText@QDateTimeParser@@QBE?AVQString@@ABV2@HH@Z" PURGE="16" COMMENT="" />
    <EXPORT ORDINAL="4135" NAME="?sectionText@QDateTimeParser@@QBE?AVQString@@H@Z" PURGE="8" COMMENT="" />
    <EXPORT ORDINAL="4136" NAME="?sectionType@QDateTimeParser@@QBE?AW4Section@1@H@Z" PURGE="4" COMMENT="" />
    <EXPORT ORDINAL="4137" NAME="?seek@QAbstractFileEngine@@UAE_N_J@Z" PURGE="8" COMMENT="" />
    <EXPORT ORDINAL="4138" NAME="?seek@QBuffer@@UAE_N_J@Z" PURGE="8" COMMENT="" />
    <EXPORT ORDINAL="4139" NAME="?seek@QFSFileEngine@@UAE_N_J@Z" PURGE="8" COMMENT="" />
    <EXPORT ORDINAL="4140" NAME="?seek@QFile@@UAE_N_J@Z" PURGE="8" COMMENT="" />
    <EXPORT ORDINAL="4141" NAME="?seek@QIODevice@@UAE_N_J@Z" PURGE="8" COMMENT="" />
    <EXPORT ORDINAL="4142" NAME="?seek@QTextStream@@QAE_N_J@Z" PURGE="8" COMMENT="" />
    <EXPORT ORDINAL="4143" NAME="?selectTransitions@QStateMachinePrivate@@QBE?AV?$QSet@PAVQAbstractTransition@@@@PAVQEvent@@@Z" PURGE="8" COMMENT="" />
    <EXPORT ORDINAL="4144" NAME="?self@QCoreApplication@@0PAV1@A" PURGE="-1" COMMENT="" />
    <EXPORT ORDINAL="4145" NAME="?sendEvent@QCoreApplication@@SA_NPAVQObject@@PAVQEvent@@@Z" PURGE="0" COMMENT="" />
    <EXPORT ORDINAL="4146" NAME="?sendPendingChildInsertedEvents@QObjectPrivate@@QAEXXZ" PURGE="0" COMMENT="" />
    <EXPORT ORDINAL="4147" NAME="?sendPostedEvents@QCoreApplication@@SAXPAVQObject@@H@Z" PURGE="0" COMMENT="" />
    <EXPORT ORDINAL="4148" NAME="?sendPostedEvents@QCoreApplication@@SAXXZ" PURGE="0" COMMENT="" />
    <EXPORT ORDINAL="4149" NAME="?sendPostedEvents@QCoreApplicationPrivate@@SAXPAVQObject@@HPAVQThreadData@@@Z" PURGE="0" COMMENT="" />
    <EXPORT ORDINAL="4150" NAME="?sendSpontaneousEvent@QCoreApplication@@CA_NPAVQObject@@PAVQEvent@@@Z" PURGE="0" COMMENT="" />
    <EXPORT ORDINAL="4151" NAME="?sendThroughApplicationEventFilters@QCoreApplicationPrivate@@QAE_NPAVQObject@@PAVQEvent@@@Z" PURGE="8" COMMENT="" />
    <EXPORT ORDINAL="4152" NAME="?sendThroughObjectEventFilters@QCoreApplicationPrivate@@QAE_NPAVQObject@@PAVQEvent@@@Z" PURGE="8" COMMENT="" />
    <EXPORT ORDINAL="4153" NAME="?sender@QMetaCallEvent@@QBEPBVQObject@@XZ" PURGE="0" COMMENT="" />
    <EXPORT ORDINAL="4154" NAME="?sender@QObject@@IBEPAV1@XZ" PURGE="0" COMMENT="" />
    <EXPORT ORDINAL="4155" NAME="?sender@SignalEvent@QStateMachine@@QBEPAVQObject@@XZ" PURGE="0" COMMENT="" />
    <EXPORT ORDINAL="4156" NAME="?senderList@QObjectPrivate@@QBE?AV?$QList@PAVQObject@@@@XZ" PURGE="4" COMMENT="" />
    <EXPORT ORDINAL="4157" NAME="?senderObject@QSignalTransition@@QBEPAVQObject@@XZ" PURGE="0" COMMENT="" />
    <EXPORT ORDINAL="4158" NAME="?senderSignalIndex@QObject@@IBEHXZ" PURGE="0" COMMENT="" />
    <EXPORT ORDINAL="4159" NAME="?separator@QDir@@SA?AVQChar@@XZ" PURGE="0" COMMENT="" />
    <EXPORT ORDINAL="4160" NAME="?set@QThreadStorageData@@QAEPAPAXPAX@Z" PURGE="4" COMMENT="" />
    <EXPORT ORDINAL="4161" NAME="?setAccepted@QEvent@@QAEX_N@Z" PURGE="4" COMMENT="" />
    <EXPORT ORDINAL="4162" NAME="?setAmplitude@QEasingCurve@@QAEXN@Z" PURGE="8" COMMENT="" />
    <EXPORT ORDINAL="4163" NAME="?setAngle@QLineF@@QAEXN@Z" PURGE="8" COMMENT="" />
    <EXPORT ORDINAL="4164" NAME="?setAnimated@QStateMachine@@QAEX_N@Z" PURGE="4" COMMENT="" />
    <EXPORT ORDINAL="4165" NAME="?setApplicationName@QCoreApplication@@SAXABVQString@@@Z" PURGE="0" COMMENT="" />
    <EXPORT ORDINAL="4166" NAME="?setApplicationVersion@QCoreApplication@@SAXABVQString@@@Z" PURGE="0" COMMENT="" />
    <EXPORT ORDINAL="4167" NAME="?setArrayIndex@QSettings@@QAEXH@Z" PURGE="4" COMMENT="" />
    <EXPORT ORDINAL="4168" NAME="?setAscii@QString@@QAEAAV1@PBDH@Z" PURGE="8" COMMENT="" />
    <EXPORT ORDINAL="4169" NAME="?setAttribute@QCoreApplication@@SAXW4ApplicationAttribute@Qt@@_N@Z" PURGE="0" COMMENT="" />
    <EXPORT ORDINAL="4170" NAME="?setAuthority@QUrl@@QAEXABVQString@@@Z" PURGE="4" COMMENT="" />
    <EXPORT ORDINAL="4171" NAME="?setAutoDetectUnicode@QTextStream@@QAEX_N@Z" PURGE="4" COMMENT="" />
    <EXPORT ORDINAL="4172" NAME="?setAutoFormatting@QXmlStreamWriter@@QAEX_N@Z" PURGE="4" COMMENT="" />
    <EXPORT ORDINAL="4173" NAME="?setAutoFormattingIndent@QXmlStreamWriter@@QAEXH@Z" PURGE="4" COMMENT="" />
    <EXPORT ORDINAL="4174" NAME="?setAutoRemove@QTemporaryFile@@QAEX_N@Z" PURGE="4" COMMENT="" />
    <EXPORT ORDINAL="4175" NAME="?setAutoUnload@QLibrary@@QAEX_N@Z" PURGE="4" COMMENT="" />
    <EXPORT ORDINAL="4176" NAME="?setBit@QBitArray@@QAEXH@Z" PURGE="4" COMMENT="" />
    <EXPORT ORDINAL="4177" NAME="?setBit@QBitArray@@QAEXH_N@Z" PURGE="8" COMMENT="" />
    <EXPORT ORDINAL="4178" NAME="?setBottom@QRect@@QAEXH@Z" PURGE="4" COMMENT="" />
    <EXPORT ORDINAL="4179" NAME="?setBottom@QRectF@@QAEXN@Z" PURGE="8" COMMENT="" />
    <EXPORT ORDINAL="4180" NAME="?setBottomLeft@QRect@@QAEXABVQPoint@@@Z" PURGE="4" COMMENT="" />
    <EXPORT ORDINAL="4181" NAME="?setBottomLeft@QRectF@@QAEXABVQPointF@@@Z" PURGE="4" COMMENT="" />
    <EXPORT ORDINAL="4182" NAME="?setBottomRight@QRect@@QAEXABVQPoint@@@Z" PURGE="4" COMMENT="" />
    <EXPORT ORDINAL="4183" NAME="?setBottomRight@QRectF@@QAEXABVQPointF@@@Z" PURGE="4" COMMENT="" />
    <EXPORT ORDINAL="4184" NAME="?setBuffer@QBuffer@@QAEXPAVQByteArray@@@Z" PURGE="4" COMMENT="" />
    <EXPORT ORDINAL="4185" NAME="?setByteOrder@QDataStream@@QAEXW4ByteOrder@1@@Z" PURGE="4" COMMENT="" />
    <EXPORT ORDINAL="4186" NAME="?setCaching@QFileInfo@@QAEX_N@Z" PURGE="4" COMMENT="" />
    <EXPORT ORDINAL="4187" NAME="?setCaseSensitive@QRegExp@@QAEX_N@Z" PURGE="4" COMMENT="" />
    <EXPORT ORDINAL="4188" NAME="?setCaseSensitivity@QRegExp@@QAEXW4CaseSensitivity@Qt@@@Z" PURGE="4" COMMENT="" />
    <EXPORT ORDINAL="4189" NAME="?setCaseSensitivity@QStringMatcher@@QAEXW4CaseSensitivity@Qt@@@Z" PURGE="4" COMMENT="" />
    <EXPORT ORDINAL="4190" NAME="?setCell@QChar@@QAEXE@Z" PURGE="4" COMMENT="" />
    <EXPORT ORDINAL="4191" NAME="?setCell@QCharRef@@QAEXE@Z" PURGE="4" COMMENT="" />
    <EXPORT ORDINAL="4192" NAME="?setChildMode@QState@@QAEXW4ChildMode@1@@Z" PURGE="4" COMMENT="" />
    <EXPORT ORDINAL="4193" NAME="?setCodec@QTextStream@@QAEXPAVQTextCodec@@@Z" PURGE="4" COMMENT="" />
    <EXPORT ORDINAL="4194" NAME="?setCodec@QTextStream@@QAEXPBD@Z" PURGE="4" COMMENT="" />
    <EXPORT ORDINAL="4195" NAME="?setCodec@QXmlStreamWriter@@QAEXPAVQTextCodec@@@Z" PURGE="4" COMMENT="" />
    <EXPORT ORDINAL="4196" NAME="?setCodec@QXmlStreamWriter@@QAEXPBD@Z" PURGE="4" COMMENT="" />
    <EXPORT ORDINAL="4197" NAME="?setCodecForCStrings@QTextCodec@@SAXPAV1@@Z" PURGE="0" COMMENT="" />
    <EXPORT ORDINAL="4198" NAME="?setCodecForLocale@QTextCodec@@SAXPAV1@@Z" PURGE="0" COMMENT="" />
    <EXPORT ORDINAL="4199" NAME="?setCodecForTr@QTextCodec@@SAXPAV1@@Z" PURGE="0" COMMENT="" />
    <EXPORT ORDINAL="4200" NAME="?setColorData@QMimeData@@QAEXABVQVariant@@@Z" PURGE="4" COMMENT="" />
    <EXPORT ORDINAL="4201" NAME="?setConsistentTiming@QUnifiedTimer@@QAEX_N@Z" PURGE="4" COMMENT="" />
    <EXPORT ORDINAL="4202" NAME="?setCoords@QRect@@QAEXHHHH@Z" PURGE="16" COMMENT="" />
    <EXPORT ORDINAL="4203" NAME="?setCoords@QRectF@@QAEXNNNN@Z" PURGE="32" COMMENT="" />
    <EXPORT ORDINAL="4204" NAME="?setCurrent@QDir@@SA_NABVQString@@@Z" PURGE="0" COMMENT="" />
    <EXPORT ORDINAL="4205" NAME="?setCurrentPath@QFSFileEngine@@SA_NABVQString@@@Z" PURGE="0" COMMENT="" />
    <EXPORT ORDINAL="4206" NAME="?setCurrentSender@QObjectPrivate@@SAPAUSender@1@PAVQObject@@PAU21@@Z" PURGE="0" COMMENT="" />
    <EXPORT ORDINAL="4207" NAME="?setCurrentTime@QAbstractAnimation@@QAEXH@Z" PURGE="4" COMMENT="" />
    <EXPORT ORDINAL="4208" NAME="?setCurrentTime@QTimeLine@@QAEXH@Z" PURGE="4" COMMENT="" />
    <EXPORT ORDINAL="4209" NAME="?setCurveShape@QTimeLine@@QAEXW4CurveShape@1@@Z" PURGE="4" COMMENT="" />
    <EXPORT ORDINAL="4210" NAME="?setCustomType@QEasingCurve@@QAEXP6ANN@Z@Z" PURGE="4" COMMENT="" />
    <EXPORT ORDINAL="4211" NAME="?setData@QAbstractItemModel@@UAE_NABVQModelIndex@@ABVQVariant@@H@Z" PURGE="12" COMMENT="" />
    <EXPORT ORDINAL="4212" NAME="?setData@QBuffer@@QAEXABVQByteArray@@@Z" PURGE="4" COMMENT="" />
    <EXPORT ORDINAL="4213" NAME="?setData@QBuffer@@QAEXPBDH@Z" PURGE="8" COMMENT="" />
    <EXPORT ORDINAL="4214" NAME="?setData@QCustomEvent@@QAEXPAX@Z" PURGE="4" COMMENT="" />
    <EXPORT ORDINAL="4215" NAME="?setData@QMimeData@@QAEXABVQString@@ABVQByteArray@@@Z" PURGE="8" COMMENT="" />
    <EXPORT ORDINAL="4216" NAME="?setDate@QDate@@QAE_NHHH@Z" PURGE="12" COMMENT="" />
    <EXPORT ORDINAL="4217" NAME="?setDate@QDateTime@@QAEXABVQDate@@@Z" PURGE="4" COMMENT="" />
    <EXPORT ORDINAL="4218" NAME="?setDecodingFunction@QFile@@SAXP6A?AVQString@@ABVQByteArray@@@Z@Z" PURGE="0" COMMENT="" />
    <EXPORT ORDINAL="4219" NAME="?setDefault@QLocale@@SAXABV1@@Z" PURGE="0" COMMENT="" />
    <EXPORT ORDINAL="4220" NAME="?setDefaultFormat@QSettings@@SAXW4Format@1@@Z" PURGE="0" COMMENT="" />
    <EXPORT ORDINAL="4221" NAME="?setDefaultState@QHistoryState@@QAEXPAVQAbstractState@@@Z" PURGE="4" COMMENT="" />
    <EXPORT ORDINAL="4222" NAME="?setDevice@QDataStream@@QAEXPAVQIODevice@@@Z" PURGE="4" COMMENT="" />
    <EXPORT ORDINAL="4223" NAME="?setDevice@QTextStream@@QAEXPAVQIODevice@@@Z" PURGE="4" COMMENT="" />
    <EXPORT ORDINAL="4224" NAME="?setDevice@QXmlStreamReader@@QAEXPAVQIODevice@@@Z" PURGE="4" COMMENT="" />
    <EXPORT ORDINAL="4225" NAME="?setDevice@QXmlStreamWriter@@QAEXPAVQIODevice@@@Z" PURGE="4" COMMENT="" />
    <EXPORT ORDINAL="4226" NAME="?setDigit@QDateTimeParser@@QBE_NAAVQDateTime@@HH@Z" PURGE="12" COMMENT="" />
    <EXPORT ORDINAL="4227" NAME="?setDirection@QAbstractAnimation@@QAEXW4Direction@1@@Z" PURGE="4" COMMENT="" />
    <EXPORT ORDINAL="4228" NAME="?setDirection@QTimeLine@@QAEXW4Direction@1@@Z" PURGE="4" COMMENT="" />
    <EXPORT ORDINAL="4229" NAME="?setDuration@QPauseAnimation@@QAEXH@Z" PURGE="4" COMMENT="" />
    <EXPORT ORDINAL="4230" NAME="?setDuration@QTimeLine@@QAEXH@Z" PURGE="4" COMMENT="" />
    <EXPORT ORDINAL="4231" NAME="?setDuration@QVariantAnimation@@QAEXH@Z" PURGE="4" COMMENT="" />
    <EXPORT ORDINAL="4232" NAME="?setEasingCurve@QTimeLine@@QAEXABVQEasingCurve@@@Z" PURGE="4" COMMENT="" />
    <EXPORT ORDINAL="4233" NAME="?setEasingCurve@QVariantAnimation@@QAEXABVQEasingCurve@@@Z" PURGE="4" COMMENT="" />
    <EXPORT ORDINAL="4234" NAME="?setEnabled@QSocketNotifier@@QAEX_N@Z" PURGE="4" COMMENT="" />
    <EXPORT ORDINAL="4235" NAME="?setEnabled@QWinEventNotifier@@QAEX_N@Z" PURGE="4" COMMENT="" />
    <EXPORT ORDINAL="4236" NAME="?setEncodedFragment@QUrl@@QAEXABVQByteArray@@@Z" PURGE="4" COMMENT="" />
    <EXPORT ORDINAL="4237" NAME="?setEncodedHost@QUrl@@QAEXABVQByteArray@@@Z" PURGE="4" COMMENT="" />
    <EXPORT ORDINAL="4238" NAME="?setEncodedPassword@QUrl@@QAEXABVQByteArray@@@Z" PURGE="4" COMMENT="" />
    <EXPORT ORDINAL="4239" NAME="?setEncodedPath@QUrl@@QAEXABVQByteArray@@@Z" PURGE="4" COMMENT="" />
    <EXPORT ORDINAL="4240" NAME="?setEncodedQuery@QUrl@@QAEXABVQByteArray@@@Z" PURGE="4" COMMENT="" />
    <EXPORT ORDINAL="4241" NAME="?setEncodedQueryItems@QUrl@@QAEXABV?$QList@U?$QPair@VQByteArray@@V1@@@@@@Z" PURGE="4" COMMENT="" />
    <EXPORT ORDINAL="4242" NAME="?setEncodedUrl@QUrl@@QAEXABVQByteArray@@@Z" PURGE="4" COMMENT="" />
    <EXPORT ORDINAL="4243" NAME="?setEncodedUrl@QUrl@@QAEXABVQByteArray@@W4ParsingMode@1@@Z" PURGE="8" COMMENT="" />
    <EXPORT ORDINAL="4244" NAME="?setEncodedUserName@QUrl@@QAEXABVQByteArray@@@Z" PURGE="4" COMMENT="" />
    <EXPORT ORDINAL="4245" NAME="?setEncoding@QTextStream@@QAEXW4Encoding@1@@Z" PURGE="4" COMMENT="" />
    <EXPORT ORDINAL="4246" NAME="?setEncodingFunction@QFile@@SAXP6A?AVQByteArray@@ABVQString@@@Z@Z" PURGE="0" COMMENT="" />
    <EXPORT ORDINAL="4247" NAME="?setEndFrame@QTimeLine@@QAEXH@Z" PURGE="4" COMMENT="" />
    <EXPORT ORDINAL="4248" NAME="?setEndValue@QVariantAnimation@@QAEXABVQVariant@@@Z" PURGE="4" COMMENT="" />
    <EXPORT ORDINAL="4249" NAME="?setEntityResolver@QXmlStreamReader@@QAEXPAVQXmlStreamEntityResolver@@@Z" PURGE="4" COMMENT="" />
    <EXPORT ORDINAL="4250" NAME="?setEnvironment@QProcess@@QAEXABVQStringList@@@Z" PURGE="4" COMMENT="" />
    <EXPORT ORDINAL="4251" NAME="?setError@QAbstractFileEngine@@IAEXW4FileError@QFile@@ABVQString@@@Z" PURGE="8" COMMENT="" />
    <EXPORT ORDINAL="4252" NAME="?setError@QStateMachinePrivate@@QAEXW4Error@QStateMachine@@PAVQAbstractState@@@Z" PURGE="8" COMMENT="" />
    <EXPORT ORDINAL="4253" NAME="?setErrorState@QState@@QAEXPAVQAbstractState@@@Z" PURGE="4" COMMENT="" />
    <EXPORT ORDINAL="4254" NAME="?setErrorString@QIODevice@@IAEXABVQString@@@Z" PURGE="4" COMMENT="" />
    <EXPORT ORDINAL="4255" NAME="?setEventFilter@QAbstractEventDispatcher@@QAEP6A_NPAX@ZP6A_N0@Z@Z" PURGE="4" COMMENT="" />
    <EXPORT ORDINAL="4256" NAME="?setEventFilter@QCoreApplication@@QAEP6A_NPAXPAJ@ZP6A_N01@Z@Z" PURGE="4" COMMENT="" />
    <EXPORT ORDINAL="4257" NAME="?setEventSource@QEventTransition@@QAEXPAVQObject@@@Z" PURGE="4" COMMENT="" />
    <EXPORT ORDINAL="4258" NAME="?setEventType@QEventTransition@@QAEXW4Type@QEvent@@@Z" PURGE="4" COMMENT="" />
    <EXPORT ORDINAL="4259" NAME="?setException@ExceptionStore@internal@QtConcurrent@@QAEXABVException@3@@Z" PURGE="4" COMMENT="" />
    <EXPORT ORDINAL="4260" NAME="?setExpectedResultCount@QFutureInterfaceBase@@QAEXH@Z" PURGE="4" COMMENT="" />
    <EXPORT ORDINAL="4261" NAME="?setExpiryTimeout@QThreadPool@@QAEXH@Z" PURGE="4" COMMENT="" />
    <EXPORT ORDINAL="4262" NAME="?setFallbacksEnabled@QSettings@@QAEX_N@Z" PURGE="4" COMMENT="" />
    <EXPORT ORDINAL="4263" NAME="?setFieldAlignment@QTextStream@@QAEXW4FieldAlignment@1@@Z" PURGE="4" COMMENT="" />
    <EXPORT ORDINAL="4264" NAME="?setFieldWidth@QTextStream@@QAEXH@Z" PURGE="4" COMMENT="" />
    <EXPORT ORDINAL="4265" NAME="?setFile@QFileInfo@@QAEXABVQDir@@ABVQString@@@Z" PURGE="8" COMMENT="" />
    <EXPORT ORDINAL="4266" NAME="?setFile@QFileInfo@@QAEXABVQFile@@@Z" PURGE="4" COMMENT="" />
    <EXPORT ORDINAL="4267" NAME="?setFile@QFileInfo@@QAEXABVQString@@@Z" PURGE="4" COMMENT="" />
    <EXPORT ORDINAL="4268" NAME="?setFileName@QAbstractFileEngine@@UAEXABVQString@@@Z" PURGE="4" COMMENT="" />
    <EXPORT ORDINAL="4269" NAME="?setFileName@QFSFileEngine@@UAEXABVQString@@@Z" PURGE="4" COMMENT="" />
    <EXPORT ORDINAL="4270" NAME="?setFileName@QFile@@QAEXABVQString@@@Z" PURGE="4" COMMENT="" />
    <EXPORT ORDINAL="4271" NAME="?setFileName@QLibrary@@QAEXABVQString@@@Z" PURGE="4" COMMENT="" />
    <EXPORT ORDINAL="4272" NAME="?setFileName@QPluginLoader@@QAEXABVQString@@@Z" PURGE="4" COMMENT="" />
    <EXPORT ORDINAL="4273" NAME="?setFileName@QResource@@QAEXABVQString@@@Z" PURGE="4" COMMENT="" />
    <EXPORT ORDINAL="4274" NAME="?setFileName@QUrl@@QAEXABVQString@@@Z" PURGE="4" COMMENT="" />
    <EXPORT ORDINAL="4275" NAME="?setFileNameAndVersion@QLibrary@@QAEXABVQString@@0@Z" PURGE="8" COMMENT="" />
    <EXPORT ORDINAL="4276" NAME="?setFileNameAndVersion@QLibrary@@QAEXABVQString@@H@Z" PURGE="8" COMMENT="" />
    <EXPORT ORDINAL="4277" NAME="?setFileTemplate@QTemporaryFile@@QAEXABVQString@@@Z" PURGE="4" COMMENT="" />
    <EXPORT ORDINAL="4278" NAME="?setFilter@QDir@@QAEXV?$QFlags@W4Filter@QDir@@@@@Z" PURGE="4" COMMENT="" />
    <EXPORT ORDINAL="4279" NAME="?setFilterMode@QFutureInterfaceBase@@QAEX_N@Z" PURGE="4" COMMENT="" />
    <EXPORT ORDINAL="4280" NAME="?setFilterMode@ResultStoreBase@QtConcurrent@@QAEX_N@Z" PURGE="4" COMMENT="" />
    <EXPORT ORDINAL="4281" NAME="?setFloatingPointPrecision@QDataStream@@QAEXW4FloatingPointPrecision@1@@Z" PURGE="4" COMMENT="" />
    <EXPORT ORDINAL="4282" NAME="?setFragment@QUrl@@QAEXABVQString@@@Z" PURGE="4" COMMENT="" />
    <EXPORT ORDINAL="4283" NAME="?setFrameRange@QTimeLine@@QAEXHH@Z" PURGE="8" COMMENT="" />
    <EXPORT ORDINAL="4284" NAME="?setGenerateByteOrderMark@QTextStream@@QAEX_N@Z" PURGE="4" COMMENT="" />
    <EXPORT ORDINAL="4285" NAME="?setGlobalRestorePolicy@QStateMachine@@QAEXW4RestorePolicy@1@@Z" PURGE="4" COMMENT="" />
    <EXPORT ORDINAL="4286" NAME="?setHMS@QTime@@QAE_NHHHH@Z" PURGE="16" COMMENT="" />
    <EXPORT ORDINAL="4287" NAME="?setHandle@QWinEventNotifier@@QAEXPAX@Z" PURGE="4" COMMENT="" />
    <EXPORT ORDINAL="4288" NAME="?setHeaderData@QAbstractItemModel@@UAE_NHW4Orientation@Qt@@ABVQVariant@@H@Z" PURGE="16" COMMENT="" />
    <EXPORT ORDINAL="4289" NAME="?setHeight@QRect@@QAEXH@Z" PURGE="4" COMMENT="" />
    <EXPORT ORDINAL="4290" NAME="?setHeight@QRectF@@QAEXN@Z" PURGE="8" COMMENT="" />
    <EXPORT ORDINAL="4291" NAME="?setHeight@QSize@@QAEXH@Z" PURGE="4" COMMENT="" />
    <EXPORT ORDINAL="4292" NAME="?setHeight@QSizeF@@QAEXN@Z" PURGE="8" COMMENT="" />
    <EXPORT ORDINAL="4293" NAME="?setHistoryType@QHistoryState@@QAEXW4HistoryType@1@@Z" PURGE="4" COMMENT="" />
    <EXPORT ORDINAL="4294" NAME="?setHost@QUrl@@QAEXABVQString@@@Z" PURGE="4" COMMENT="" />
    <EXPORT ORDINAL="4295" NAME="?setHtml@QMimeData@@QAEXABVQString@@@Z" PURGE="4" COMMENT="" />
    <EXPORT ORDINAL="4296" NAME="?setIdnWhitelist@QUrl@@SAXABVQStringList@@@Z" PURGE="0" COMMENT="" />
    <EXPORT ORDINAL="4297" NAME="?setImageData@QMimeData@@QAEXABVQVariant@@@Z" PURGE="4" COMMENT="" />
    <EXPORT ORDINAL="4298" NAME="?setIniCodec@QSettings@@QAEXPAVQTextCodec@@@Z" PURGE="4" COMMENT="" />
    <EXPORT ORDINAL="4299" NAME="?setIniCodec@QSettings@@QAEXPBD@Z" PURGE="4" COMMENT="" />
    <EXPORT ORDINAL="4300" NAME="?setInitialState@QState@@QAEXPAVQAbstractState@@@Z" PURGE="4" COMMENT="" />
    <EXPORT ORDINAL="4301" NAME="?setIntegerBase@QTextStream@@QAEXH@Z" PURGE="4" COMMENT="" />
    <EXPORT ORDINAL="4302" NAME="?setInterval@QTimer@@QAEXH@Z" PURGE="4" COMMENT="" />
    <EXPORT ORDINAL="4303" NAME="?setItemData@QAbstractItemModel@@UAE_NABVQModelIndex@@ABV?$QMap@HVQVariant@@@@@Z" PURGE="8" COMMENT="" />
    <EXPORT ORDINAL="4304" NAME="?setKey@QSharedMemory@@QAEXABVQString@@@Z" PURGE="4" COMMENT="" />
    <EXPORT ORDINAL="4305" NAME="?setKey@QSystemSemaphore@@QAEXABVQString@@HW4AccessMode@1@@Z" PURGE="12" COMMENT="" />
    <EXPORT ORDINAL="4306" NAME="?setKeyValueAt@QVariantAnimation@@QAEXNABVQVariant@@@Z" PURGE="12" COMMENT="" />
    <EXPORT ORDINAL="4307" NAME="?setKeyValues@QVariantAnimation@@QAEXABV?$QVector@U?$QPair@NVQVariant@@@@@@@Z" PURGE="4" COMMENT="" />
    <EXPORT ORDINAL="4308" NAME="?setLatin1@QString@@QAEAAV1@PBDH@Z" PURGE="8" COMMENT="" />
    <EXPORT ORDINAL="4309" NAME="?setLeft@QRect@@QAEXH@Z" PURGE="4" COMMENT="" />
    <EXPORT ORDINAL="4310" NAME="?setLeft@QRectF@@QAEXN@Z" PURGE="8" COMMENT="" />
    <EXPORT ORDINAL="4311" NAME="?setLength@QLineF@@QAEXN@Z" PURGE="8" COMMENT="" />
    <EXPORT ORDINAL="4312" NAME="?setLength@QString@@QAEXH@Z" PURGE="4" COMMENT="" />
    <EXPORT ORDINAL="4313" NAME="?setLibraryPaths@QCoreApplication@@SAXABVQStringList@@@Z" PURGE="0" COMMENT="" />
    <EXPORT ORDINAL="4314" NAME="?setLine@QLine@@QAEXHHHH@Z" PURGE="16" COMMENT="" />
    <EXPORT ORDINAL="4315" NAME="?setLine@QLineF@@QAEXNNNN@Z" PURGE="32" COMMENT="" />
    <EXPORT ORDINAL="4316" NAME="?setLoadHints@QLibrary@@QAEXV?$QFlags@W4LoadHint@QLibrary@@@@@Z" PURGE="4" COMMENT="" />
    <EXPORT ORDINAL="4317" NAME="?setLoadHints@QPluginLoader@@QAEXV?$QFlags@W4LoadHint@QLibrary@@@@@Z" PURGE="4" COMMENT="" />
    <EXPORT ORDINAL="4318" NAME="?setLocale@QResource@@QAEXABVQLocale@@@Z" PURGE="4" COMMENT="" />
    <EXPORT ORDINAL="4319" NAME="?setLocale@QTextStream@@QAEXABVQLocale@@@Z" PURGE="4" COMMENT="" />
    <EXPORT ORDINAL="4320" NAME="?setLoopCount@QAbstractAnimation@@QAEXH@Z" PURGE="4" COMMENT="" />
    <EXPORT ORDINAL="4321" NAME="?setLoopCount@QTimeLine@@QAEXH@Z" PURGE="4" COMMENT="" />
    <EXPORT ORDINAL="4322" NAME="?setMSecsSinceEpoch@QDateTime@@QAEX_J@Z" PURGE="8" COMMENT="" />
    <EXPORT ORDINAL="4323" NAME="?setMapping@QSignalMapper@@QAEXPAVQObject@@0@Z" PURGE="8" COMMENT="" />
    <EXPORT ORDINAL="4324" NAME="?setMapping@QSignalMapper@@QAEXPAVQObject@@ABVQString@@@Z" PURGE="8" COMMENT="" />
    <EXPORT ORDINAL="4325" NAME="?setMapping@QSignalMapper@@QAEXPAVQObject@@H@Z" PURGE="8" COMMENT="" />
    <EXPORT ORDINAL="4326" NAME="?setMapping@QSignalMapper@@QAEXPAVQObject@@PAVQWidget@@@Z" PURGE="8" COMMENT="" />
    <EXPORT ORDINAL="4327" NAME="?setMatchAllDirs@QDir@@QAEX_N@Z" PURGE="4" COMMENT="" />
    <EXPORT ORDINAL="4328" NAME="?setMaxThreadCount@QThreadPool@@QAEXH@Z" PURGE="4" COMMENT="" />
    <EXPORT ORDINAL="4329" NAME="?setMinimal@QRegExp@@QAEX_N@Z" PURGE="4" COMMENT="" />
    <EXPORT ORDINAL="4330" NAME="?setName@QFile@@QAEXABVQString@@@Z" PURGE="4" COMMENT="" />
    <EXPORT ORDINAL="4331" NAME="?setName@QObject@@QAEXPBD@Z" PURGE="4" COMMENT="" />
    <EXPORT ORDINAL="4332" NAME="?setNameFilter@QDir@@QAEXABVQString@@@Z" PURGE="4" COMMENT="" />
    <EXPORT ORDINAL="4333" NAME="?setNameFilters@QDir@@QAEXABVQStringList@@@Z" PURGE="4" COMMENT="" />
    <EXPORT ORDINAL="4334" NAME="?setNamespaceProcessing@QXmlStreamReader@@QAEX_N@Z" PURGE="4" COMMENT="" />
    <EXPORT ORDINAL="4335" NAME="?setNativeArguments@QProcess@@QAEXABVQString@@@Z" PURGE="4" COMMENT="" />
    <EXPORT ORDINAL="4336" NAME="?setNativeKey@QSharedMemory@@QAEXABVQString@@@Z" PURGE="4" COMMENT="" />
    <EXPORT ORDINAL="4337" NAME="?setNum@QByteArray@@QAEAAV1@FH@Z" PURGE="8" COMMENT="" />
    <EXPORT ORDINAL="4338" NAME="?setNum@QByteArray@@QAEAAV1@GH@Z" PURGE="8" COMMENT="" />
    <EXPORT ORDINAL="4339" NAME="?setNum@QByteArray@@QAEAAV1@HH@Z" PURGE="8" COMMENT="" />
    <EXPORT ORDINAL="4340" NAME="?setNum@QByteArray@@QAEAAV1@IH@Z" PURGE="8" COMMENT="" />
    <EXPORT ORDINAL="4341" NAME="?setNum@QByteArray@@QAEAAV1@MDH@Z" PURGE="12" COMMENT="" />
    <EXPORT ORDINAL="4342" NAME="?setNum@QByteArray@@QAEAAV1@NDH@Z" PURGE="16" COMMENT="" />
    <EXPORT ORDINAL="4343" NAME="?setNum@QByteArray@@QAEAAV1@_JH@Z" PURGE="12" COMMENT="" />
    <EXPORT ORDINAL="4344" NAME="?setNum@QByteArray@@QAEAAV1@_KH@Z" PURGE="12" COMMENT="" />
    <EXPORT ORDINAL="4345" NAME="?setNum@QString@@QAEAAV1@FH@Z" PURGE="8" COMMENT="" />
    <EXPORT ORDINAL="4346" NAME="?setNum@QString@@QAEAAV1@GH@Z" PURGE="8" COMMENT="" />
    <EXPORT ORDINAL="4347" NAME="?setNum@QString@@QAEAAV1@HH@Z" PURGE="8" COMMENT="" />
    <EXPORT ORDINAL="4348" NAME="?setNum@QString@@QAEAAV1@IH@Z" PURGE="8" COMMENT="" />
    <EXPORT ORDINAL="4349" NAME="?setNum@QString@@QAEAAV1@JH@Z" PURGE="8" COMMENT="" />
    <EXPORT ORDINAL="4350" NAME="?setNum@QString@@QAEAAV1@KH@Z" PURGE="8" COMMENT="" />
    <EXPORT ORDINAL="4351" NAME="?setNum@QString@@QAEAAV1@MDH@Z" PURGE="12" COMMENT="" />
    <EXPORT ORDINAL="4352" NAME="?setNum@QString@@QAEAAV1@NDH@Z" PURGE="16" COMMENT="" />
    <EXPORT ORDINAL="4353" NAME="?setNum@QString@@QAEAAV1@_JH@Z" PURGE="12" COMMENT="" />
    <EXPORT ORDINAL="4354" NAME="?setNum@QString@@QAEAAV1@_KH@Z" PURGE="12" COMMENT="" />
    <EXPORT ORDINAL="4355" NAME="?setNumberFlags@QTextStream@@QAEXV?$QFlags@W4NumberFlag@QTextStream@@@@@Z" PURGE="4" COMMENT="" />
    <EXPORT ORDINAL="4356" NAME="?setNumberOptions@QLocale@@QAEXV?$QFlags@W4NumberOption@QLocale@@@@@Z" PURGE="4" COMMENT="" />
    <EXPORT ORDINAL="4357" NAME="?setObjectName@QObject@@QAEXABVQString@@@Z" PURGE="4" COMMENT="" />
    <EXPORT ORDINAL="4358" NAME="?setOpenMode@QIODevice@@IAEXV?$QFlags@W4OpenModeFlag@QIODevice@@@@@Z" PURGE="4" COMMENT="" />
    <EXPORT ORDINAL="4359" NAME="?setOrganizationDomain@QCoreApplication@@SAXABVQString@@@Z" PURGE="0" COMMENT="" />
    <EXPORT ORDINAL="4360" NAME="?setOrganizationName@QCoreApplication@@SAXABVQString@@@Z" PURGE="0" COMMENT="" />
    <EXPORT ORDINAL="4361" NAME="?setOvershoot@QEasingCurve@@QAEXN@Z" PURGE="8" COMMENT="" />
    <EXPORT ORDINAL="4362" NAME="?setP1@QLine@@QAEXABVQPoint@@@Z" PURGE="4" COMMENT="" />
    <EXPORT ORDINAL="4363" NAME="?setP1@QLineF@@QAEXABVQPointF@@@Z" PURGE="4" COMMENT="" />
    <EXPORT ORDINAL="4364" NAME="?setP2@QLine@@QAEXABVQPoint@@@Z" PURGE="4" COMMENT="" />
    <EXPORT ORDINAL="4365" NAME="?setP2@QLineF@@QAEXABVQPointF@@@Z" PURGE="4" COMMENT="" />
    <EXPORT ORDINAL="4366" NAME="?setPadChar@QTextStream@@QAEXVQChar@@@Z" PURGE="4" COMMENT="" />
    <EXPORT ORDINAL="4367" NAME="?setParent@QObject@@QAEXPAV1@@Z" PURGE="4" COMMENT="" />
    <EXPORT ORDINAL="4368" NAME="?setParent_helper@QObjectPrivate@@QAEXPAVQObject@@@Z" PURGE="4" COMMENT="" />
    <EXPORT ORDINAL="4369" NAME="?setPassword@QUrl@@QAEXABVQString@@@Z" PURGE="4" COMMENT="" />
    <EXPORT ORDINAL="4370" NAME="?setPath@QAbstractFileEngineIterator@@AAEXABVQString@@@Z" PURGE="4" COMMENT="" />
    <EXPORT ORDINAL="4371" NAME="?setPath@QDir@@QAEXABVQString@@@Z" PURGE="4" COMMENT="" />
    <EXPORT ORDINAL="4372" NAME="?setPath@QSettings@@QAEXABVQString@@0W4Scope@1@@Z" PURGE="12" COMMENT="" />
    <EXPORT ORDINAL="4373" NAME="?setPath@QSettings@@SAXW4Format@1@W4Scope@1@ABVQString@@@Z" PURGE="0" COMMENT="" />
    <EXPORT ORDINAL="4374" NAME="?setPath@QUrl@@QAEXABVQString@@@Z" PURGE="4" COMMENT="" />
    <EXPORT ORDINAL="4375" NAME="?setPath_helper@QSettings@@AAEXW4Scope@1@ABVQString@@1@Z" PURGE="12" COMMENT="" />
    <EXPORT ORDINAL="4376" NAME="?setPattern@QByteArrayMatcher@@QAEXABVQByteArray@@@Z" PURGE="4" COMMENT="" />
    <EXPORT ORDINAL="4377" NAME="?setPattern@QRegExp@@QAEXABVQString@@@Z" PURGE="4" COMMENT="" />
    <EXPORT ORDINAL="4378" NAME="?setPattern@QStringMatcher@@QAEXABVQString@@@Z" PURGE="4" COMMENT="" />
    <EXPORT ORDINAL="4379" NAME="?setPatternSyntax@QRegExp@@QAEXW4PatternSyntax@1@@Z" PURGE="4" COMMENT="" />
    <EXPORT ORDINAL="4380" NAME="?setPaused@QAbstractAnimation@@QAEX_N@Z" PURGE="4" COMMENT="" />
    <EXPORT ORDINAL="4381" NAME="?setPaused@QFutureInterfaceBase@@QAEX_N@Z" PURGE="4" COMMENT="" />
    <EXPORT ORDINAL="4382" NAME="?setPaused@QFutureWatcherBase@@QAEX_N@Z" PURGE="4" COMMENT="" />
    <EXPORT ORDINAL="4383" NAME="?setPaused@QTimeLine@@QAEX_N@Z" PURGE="4" COMMENT="" />
    <EXPORT ORDINAL="4384" NAME="?setPendingResultsLimit@QFutureWatcherBase@@QAEXH@Z" PURGE="4" COMMENT="" />
    <EXPORT ORDINAL="4385" NAME="?setPeriod@QEasingCurve@@QAEXN@Z" PURGE="8" COMMENT="" />
    <EXPORT ORDINAL="4386" NAME="?setPermissions@QAbstractFileEngine@@UAE_NI@Z" PURGE="4" COMMENT="" />
    <EXPORT ORDINAL="4387" NAME="?setPermissions@QFSFileEngine@@UAE_NI@Z" PURGE="4" COMMENT="" />
    <EXPORT ORDINAL="4388" NAME="?setPermissions@QFile@@QAE_NV?$QFlags@W4Permission@QFile@@@@@Z" PURGE="4" COMMENT="" />
    <EXPORT ORDINAL="4389" NAME="?setPermissions@QFile@@SA_NABVQString@@V?$QFlags@W4Permission@QFile@@@@@Z" PURGE="0" COMMENT="" />
    <EXPORT ORDINAL="4390" NAME="?setPoints@QLine@@QAEXABVQPoint@@0@Z" PURGE="8" COMMENT="" />
    <EXPORT ORDINAL="4391" NAME="?setPoints@QLineF@@QAEXABVQPointF@@0@Z" PURGE="8" COMMENT="" />
    <EXPORT ORDINAL="4392" NAME="?setPort@QUrl@@QAEXH@Z" PURGE="4" COMMENT="" />
    <EXPORT ORDINAL="4393" NAME="?setPosition@QTextBoundaryFinder@@QAEXH@Z" PURGE="4" COMMENT="" />
    <EXPORT ORDINAL="4394" NAME="?setPrintableData@QDataStream@@QAEX_N@Z" PURGE="4" COMMENT="" />
    <EXPORT ORDINAL="4395" NAME="?setPriority@QThread@@QAEXW4Priority@1@@Z" PURGE="4" COMMENT="" />
    <EXPORT ORDINAL="4396" NAME="?setProcessChannelMode@QProcess@@QAEXW4ProcessChannelMode@1@@Z" PURGE="4" COMMENT="" />
    <EXPORT ORDINAL="4397" NAME="?setProcessEnvironment@QProcess@@QAEXABVQProcessEnvironment@@@Z" PURGE="4" COMMENT="" />
    <EXPORT ORDINAL="4398" NAME="?setProcessState@QProcess@@IAEXW4ProcessState@1@@Z" PURGE="4" COMMENT="" />
    <EXPORT ORDINAL="4399" NAME="?setProgressRange@QFutureInterfaceBase@@QAEXHH@Z" PURGE="8" COMMENT="" />
    <EXPORT ORDINAL="4400" NAME="?setProgressRange@ThreadEngineBase@QtConcurrent@@QAEXHH@Z" PURGE="8" COMMENT="" />
    <EXPORT ORDINAL="4401" NAME="?setProgressValue@QFutureInterfaceBase@@QAEXH@Z" PURGE="4" COMMENT="" />
    <EXPORT ORDINAL="4402" NAME="?setProgressValue@ThreadEngineBase@QtConcurrent@@QAEXH@Z" PURGE="4" COMMENT="" />
    <EXPORT ORDINAL="4403" NAME="?setProgressValueAndText@QFutureInterfaceBase@@QAEXHABVQString@@@Z" PURGE="8" COMMENT="" />
    <EXPORT ORDINAL="4404" NAME="?setProperty@QObject@@QAE_NPBDABVQVariant@@@Z" PURGE="8" COMMENT="" />
    <EXPORT ORDINAL="4405" NAME="?setPropertyName@QPropertyAnimation@@QAEXABVQByteArray@@@Z" PURGE="4" COMMENT="" />
    <EXPORT ORDINAL="4406" NAME="?setProtocol@QUrl@@QAEXABVQString@@@Z" PURGE="4" COMMENT="" />
    <EXPORT ORDINAL="4407" NAME="?setQObjectShared@ExternalRefCountData@QtSharedPointer@@QAEXPBVQObject@@_N@Z" PURGE="8" COMMENT="" />
    <EXPORT ORDINAL="4408" NAME="?setQuery@QUrl@@QAEXABVQString@@@Z" PURGE="4" COMMENT="" />
    <EXPORT ORDINAL="4409" NAME="?setQueryDelimiters@QUrl@@QAEXDD@Z" PURGE="8" COMMENT="" />
    <EXPORT ORDINAL="4410" NAME="?setQueryItems@QUrl@@QAEXABV?$QList@U?$QPair@VQString@@V1@@@@@@Z" PURGE="4" COMMENT="" />
    <EXPORT ORDINAL="4411" NAME="?setRawData@QByteArray@@QAEAAV1@PBDI@Z" PURGE="8" COMMENT="" />
    <EXPORT ORDINAL="4412" NAME="?setRawData@QString@@QAEAAV1@PBVQChar@@H@Z" PURGE="8" COMMENT="" />
    <EXPORT ORDINAL="4413" NAME="?setReadChannel@QProcess@@QAEXW4ProcessChannel@1@@Z" PURGE="4" COMMENT="" />
    <EXPORT ORDINAL="4414" NAME="?setReadChannelMode@QProcess@@QAEXW4ProcessChannelMode@1@@Z" PURGE="4" COMMENT="" />
    <EXPORT ORDINAL="4415" NAME="?setRealNumberNotation@QTextStream@@QAEXW4RealNumberNotation@1@@Z" PURGE="4" COMMENT="" />
    <EXPORT ORDINAL="4416" NAME="?setRealNumberPrecision@QTextStream@@QAEXH@Z" PURGE="4" COMMENT="" />
    <EXPORT ORDINAL="4417" NAME="?setRect@QRect@@QAEXHHHH@Z" PURGE="16" COMMENT="" />
    <EXPORT ORDINAL="4418" NAME="?setRect@QRectF@@QAEXNNNN@Z" PURGE="32" COMMENT="" />
    <EXPORT ORDINAL="4419" NAME="?setRef@QUrl@@QAEXABVQString@@@Z" PURGE="4" COMMENT="" />
    <EXPORT ORDINAL="4420" NAME="?setRight@QRect@@QAEXH@Z" PURGE="4" COMMENT="" />
    <EXPORT ORDINAL="4421" NAME="?setRight@QRectF@@QAEXN@Z" PURGE="8" COMMENT="" />
    <EXPORT ORDINAL="4422" NAME="?setRoleNames@QAbstractItemModel@@IAEXABV?$QHash@HVQByteArray@@@@@Z" PURGE="4" COMMENT="" />
    <EXPORT ORDINAL="4423" NAME="?setRow@QChar@@QAEXE@Z" PURGE="4" COMMENT="" />
    <EXPORT ORDINAL="4424" NAME="?setRow@QCharRef@@QAEXE@Z" PURGE="4" COMMENT="" />
    <EXPORT ORDINAL="4425" NAME="?setRunnable@QFutureInterfaceBase@@QAEXPAVQRunnable@@@Z" PURGE="4" COMMENT="" />
    <EXPORT ORDINAL="4426" NAME="?setScheme@QUrl@@QAEXABVQString@@@Z" PURGE="4" COMMENT="" />
    <EXPORT ORDINAL="4427" NAME="?setSearchPaths@QDir@@SAXABVQString@@ABVQStringList@@@Z" PURGE="0" COMMENT="" />
    <EXPORT ORDINAL="4428" NAME="?setSenderObject@QSignalTransition@@QAEXPAVQObject@@@Z" PURGE="4" COMMENT="" />
    <EXPORT ORDINAL="4429" NAME="?setSharable@?$QVector@VQPoint@@@@QAEX_N@Z" PURGE="4" COMMENT="" />
    <EXPORT ORDINAL="4430" NAME="?setSharable@?$QVector@VQPointF@@@@QAEX_N@Z" PURGE="4" COMMENT="" />
    <EXPORT ORDINAL="4431" NAME="?setSharable@?$QVector@VQXmlStreamAttribute@@@@QAEX_N@Z" PURGE="4" COMMENT="" />
    <EXPORT ORDINAL="4432" NAME="?setSignal@QSignalTransition@@QAEXABVQByteArray@@@Z" PURGE="4" COMMENT="" />
    <EXPORT ORDINAL="4433" NAME="?setSingleShot@QTimer@@QAEX_N@Z" PURGE="4" COMMENT="" />
    <EXPORT ORDINAL="4434" NAME="?setSize@QAbstractFileEngine@@UAE_N_J@Z" PURGE="8" COMMENT="" />
    <EXPORT ORDINAL="4435" NAME="?setSize@QFSFileEngine@@UAE_N_J@Z" PURGE="8" COMMENT="" />
    <EXPORT ORDINAL="4436" NAME="?setSize@QRect@@QAEXABVQSize@@@Z" PURGE="4" COMMENT="" />
    <EXPORT ORDINAL="4437" NAME="?setSize@QRectF@@QAEXABVQSizeF@@@Z" PURGE="4" COMMENT="" />
    <EXPORT ORDINAL="4438" NAME="?setSlowModeEnabled@QUnifiedTimer@@QAEX_N@Z" PURGE="4" COMMENT="" />
    <EXPORT ORDINAL="4439" NAME="?setSlowdownFactor@QUnifiedTimer@@QAEXN@Z" PURGE="8" COMMENT="" />
    <EXPORT ORDINAL="4440" NAME="?setSorting@QDir@@QAEXV?$QFlags@W4SortFlag@QDir@@@@@Z" PURGE="4" COMMENT="" />
    <EXPORT ORDINAL="4441" NAME="?setStackSize@QThread@@QAEXI@Z" PURGE="4" COMMENT="" />
    <EXPORT ORDINAL="4442" NAME="?setStandardErrorFile@QProcess@@QAEXABVQString@@V?$QFlags@W4OpenModeFlag@QIODevice@@@@@Z" PURGE="8" COMMENT="" />
    <EXPORT ORDINAL="4443" NAME="?setStandardInputFile@QProcess@@QAEXABVQString@@@Z" PURGE="4" COMMENT="" />
    <EXPORT ORDINAL="4444" NAME="?setStandardOutputFile@QProcess@@QAEXABVQString@@V?$QFlags@W4OpenModeFlag@QIODevice@@@@@Z" PURGE="8" COMMENT="" />
    <EXPORT ORDINAL="4445" NAME="?setStandardOutputProcess@QProcess@@QAEXPAV1@@Z" PURGE="4" COMMENT="" />
    <EXPORT ORDINAL="4446" NAME="?setStartFrame@QTimeLine@@QAEXH@Z" PURGE="4" COMMENT="" />
    <EXPORT ORDINAL="4447" NAME="?setStartValue@QVariantAnimation@@QAEXABVQVariant@@@Z" PURGE="4" COMMENT="" />
    <EXPORT ORDINAL="4448" NAME="?setStatus@QDataStream@@QAEXW4Status@1@@Z" PURGE="4" COMMENT="" />
    <EXPORT ORDINAL="4449" NAME="?setStatus@QTextStream@@QAEXW4Status@1@@Z" PURGE="4" COMMENT="" />
    <EXPORT ORDINAL="4450" NAME="?setString@QTextStream@@QAEXPAVQString@@V?$QFlags@W4OpenModeFlag@QIODevice@@@@@Z" PURGE="8" COMMENT="" />
    <EXPORT ORDINAL="4451" NAME="?setSupportedDragActions@QAbstractItemModel@@QAEXV?$QFlags@W4DropAction@Qt@@@@@Z" PURGE="4" COMMENT="" />
    <EXPORT ORDINAL="4452" NAME="?setSystemIniPath@QSettings@@SAXABVQString@@@Z" PURGE="0" COMMENT="" />
    <EXPORT ORDINAL="4453" NAME="?setTargetObject@QPropertyAnimation@@QAEXPAVQObject@@@Z" PURGE="4" COMMENT="" />
    <EXPORT ORDINAL="4454" NAME="?setTargetState@QAbstractTransition@@QAEXPAVQAbstractState@@@Z" PURGE="4" COMMENT="" />
    <EXPORT ORDINAL="4455" NAME="?setTargetStates@QAbstractTransition@@QAEXABV?$QList@PAVQAbstractState@@@@@Z" PURGE="4" COMMENT="" />
    <EXPORT ORDINAL="4456" NAME="?setTerminationEnabled@QThread@@KAX_N@Z" PURGE="0" COMMENT="" />
    <EXPORT ORDINAL="4457" NAME="?setText@QMimeData@@QAEXABVQString@@@Z" PURGE="4" COMMENT="" />
    <EXPORT ORDINAL="4458" NAME="?setTextModeEnabled@QIODevice@@QAEX_N@Z" PURGE="4" COMMENT="" />
    <EXPORT ORDINAL="4459" NAME="?setThreadData_helper@QObjectPrivate@@QAEXPAVQThreadData@@0@Z" PURGE="8" COMMENT="" />
    <EXPORT ORDINAL="4460" NAME="?setThrottled@QFutureInterfaceBase@@QAEX_N@Z" PURGE="4" COMMENT="" />
    <EXPORT ORDINAL="4461" NAME="?setTime@QDateTime@@QAEXABVQTime@@@Z" PURGE="4" COMMENT="" />
    <EXPORT ORDINAL="4462" NAME="?setTimeSpec@QDateTime@@QAEXW4TimeSpec@Qt@@@Z" PURGE="4" COMMENT="" />
    <EXPORT ORDINAL="4463" NAME="?setTime_t@QDateTime@@QAEXI@Z" PURGE="4" COMMENT="" />
    <EXPORT ORDINAL="4464" NAME="?setTime_t@QDateTime@@QAEXIW4TimeSpec@Qt@@@Z" PURGE="8" COMMENT="" />
    <EXPORT ORDINAL="4465" NAME="?setTimingInterval@QUnifiedTimer@@QAEXH@Z" PURGE="4" COMMENT="" />
    <EXPORT ORDINAL="4466" NAME="?setTop@QRect@@QAEXH@Z" PURGE="4" COMMENT="" />
    <EXPORT ORDINAL="4467" NAME="?setTop@QRectF@@QAEXN@Z" PURGE="8" COMMENT="" />
    <EXPORT ORDINAL="4468" NAME="?setTopLeft@QRect@@QAEXABVQPoint@@@Z" PURGE="4" COMMENT="" />
    <EXPORT ORDINAL="4469" NAME="?setTopLeft@QRectF@@QAEXABVQPointF@@@Z" PURGE="4" COMMENT="" />
    <EXPORT ORDINAL="4470" NAME="?setTopRight@QRect@@QAEXABVQPoint@@@Z" PURGE="4" COMMENT="" />
    <EXPORT ORDINAL="4471" NAME="?setTopRight@QRectF@@QAEXABVQPointF@@@Z" PURGE="4" COMMENT="" />
    <EXPORT ORDINAL="4472" NAME="?setType@QEasingCurve@@QAEXW4Type@1@@Z" PURGE="4" COMMENT="" />
    <EXPORT ORDINAL="4473" NAME="?setUnicode@QString@@QAEAAV1@PBVQChar@@H@Z" PURGE="8" COMMENT="" />
    <EXPORT ORDINAL="4474" NAME="?setUnicodeCodes@QString@@QAEAAV1@PBGH@Z" PURGE="8" COMMENT="" />
    <EXPORT ORDINAL="4475" NAME="?setUpdateInterval@QTimeLine@@QAEXH@Z" PURGE="4" COMMENT="" />
    <EXPORT ORDINAL="4476" NAME="?setUrl@QUrl@@QAEXABVQString@@@Z" PURGE="4" COMMENT="" />
    <EXPORT ORDINAL="4477" NAME="?setUrl@QUrl@@QAEXABVQString@@W4ParsingMode@1@@Z" PURGE="8" COMMENT="" />
    <EXPORT ORDINAL="4478" NAME="?setUrls@QMimeData@@QAEXABV?$QList@VQUrl@@@@@Z" PURGE="4" COMMENT="" />
    <EXPORT ORDINAL="4479" NAME="?setUser@QUrl@@QAEXABVQString@@@Z" PURGE="4" COMMENT="" />
    <EXPORT ORDINAL="4480" NAME="?setUserData@QObject@@QAEXIPAVQObjectUserData@@@Z" PURGE="8" COMMENT="" />
    <EXPORT ORDINAL="4481" NAME="?setUserInfo@QUrl@@QAEXABVQString@@@Z" PURGE="4" COMMENT="" />
    <EXPORT ORDINAL="4482" NAME="?setUserIniPath@QSettings@@SAXABVQString@@@Z" PURGE="0" COMMENT="" />
    <EXPORT ORDINAL="4483" NAME="?setUserName@QUrl@@QAEXABVQString@@@Z" PURGE="4" COMMENT="" />
    <EXPORT ORDINAL="4484" NAME="?setUtcOffset@QDateTime@@QAEXH@Z" PURGE="4" COMMENT="" />
    <EXPORT ORDINAL="4485" NAME="?setUtf16@QString@@QAEAAV1@PBGH@Z" PURGE="8" COMMENT="" />
    <EXPORT ORDINAL="4486" NAME="?setValue@QSettings@@QAEXABVQString@@ABVQVariant@@@Z" PURGE="8" COMMENT="" />
    <EXPORT ORDINAL="4487" NAME="?setVersion@QDataStream@@QAEXH@Z" PURGE="4" COMMENT="" />
    <EXPORT ORDINAL="4488" NAME="?setWidth@QRect@@QAEXH@Z" PURGE="4" COMMENT="" />
    <EXPORT ORDINAL="4489" NAME="?setWidth@QRectF@@QAEXN@Z" PURGE="8" COMMENT="" />
    <EXPORT ORDINAL="4490" NAME="?setWidth@QSize@@QAEXH@Z" PURGE="4" COMMENT="" />
    <EXPORT ORDINAL="4491" NAME="?setWidth@QSizeF@@QAEXN@Z" PURGE="8" COMMENT="" />
    <EXPORT ORDINAL="4492" NAME="?setWildcard@QRegExp@@QAEX_N@Z" PURGE="4" COMMENT="" />
    <EXPORT ORDINAL="4493" NAME="?setWorkingDirectory@QProcess@@QAEXABVQString@@@Z" PURGE="4" COMMENT="" />
    <EXPORT ORDINAL="4494" NAME="?setX@QPoint@@QAEXH@Z" PURGE="4" COMMENT="" />
    <EXPORT ORDINAL="4495" NAME="?setX@QPointF@@QAEXN@Z" PURGE="8" COMMENT="" />
    <EXPORT ORDINAL="4496" NAME="?setX@QRect@@QAEXH@Z" PURGE="4" COMMENT="" />
    <EXPORT ORDINAL="4497" NAME="?setX@QRectF@@QAEXN@Z" PURGE="8" COMMENT="" />
    <EXPORT ORDINAL="4498" NAME="?setY@QPoint@@QAEXH@Z" PURGE="4" COMMENT="" />
    <EXPORT ORDINAL="4499" NAME="?setY@QPointF@@QAEXN@Z" PURGE="8" COMMENT="" />
    <EXPORT ORDINAL="4500" NAME="?setY@QRect@@QAEXH@Z" PURGE="4" COMMENT="" />
    <EXPORT ORDINAL="4501" NAME="?setY@QRectF@@QAEXN@Z" PURGE="8" COMMENT="" />
    <EXPORT ORDINAL="4502" NAME="?setYMD@QDate@@QAE_NHHH@Z" PURGE="12" COMMENT="" />
    <EXPORT ORDINAL="4503" NAME="?setf@QTextStream@@QAEHH@Z" PURGE="4" COMMENT="" />
    <EXPORT ORDINAL="4504" NAME="?setf@QTextStream@@QAEHHH@Z" PURGE="8" COMMENT="" />
    <EXPORT ORDINAL="4505" NAME="?setupChildProcess@QProcess@@MAEXXZ" PURGE="0" COMMENT="" />
    <EXPORT ORDINAL="4506" NAME="?shared_empty@QByteArray@@0UData@1@A" PURGE="-1" COMMENT="" />
    <EXPORT ORDINAL="4507" NAME="?shared_empty@QString@@0UData@1@A" PURGE="-1" COMMENT="" />
    <EXPORT ORDINAL="4508" NAME="?shared_null@QByteArray@@0UData@1@A" PURGE="-1" COMMENT="" />
    <EXPORT ORDINAL="4509" NAME="?shared_null@QHashData@@2U1@A" PURGE="-1" COMMENT="" />
    <EXPORT ORDINAL="4510" NAME="?shared_null@QLinkedListData@@2U1@A" PURGE="-1" COMMENT="" />
    <EXPORT ORDINAL="4511" NAME="?shared_null@QListData@@2UData@1@A" PURGE="-1" COMMENT="" />
    <EXPORT ORDINAL="4512" NAME="?shared_null@QMapData@@2U1@A" PURGE="-1" COMMENT="" />
    <EXPORT ORDINAL="4513" NAME="?shared_null@QString@@0UData@1@A" PURGE="-1" COMMENT="" />
    <EXPORT ORDINAL="4514" NAME="?shared_null@QVectorData@@2U1@A" PURGE="-1" COMMENT="" />
    <EXPORT ORDINAL="4515" NAME="?shortDayName@QDate@@SA?AVQString@@H@Z" PURGE="0" COMMENT="" />
    <EXPORT ORDINAL="4516" NAME="?shortDayName@QDate@@SA?AVQString@@HW4MonthNameType@1@@Z" PURGE="0" COMMENT="" />
    <EXPORT ORDINAL="4517" NAME="?shortMonthName@QDate@@SA?AVQString@@H@Z" PURGE="0" COMMENT="" />
    <EXPORT ORDINAL="4518" NAME="?shortMonthName@QDate@@SA?AVQString@@HW4MonthNameType@1@@Z" PURGE="0" COMMENT="" />
    <EXPORT ORDINAL="4519" NAME="?shouldStartThread@ThreadEngineBase@QtConcurrent@@MAE_NXZ" PURGE="0" COMMENT="" />
    <EXPORT ORDINAL="4520" NAME="?shouldThrottleThread@ThreadEngineBase@QtConcurrent@@MAE_NXZ" PURGE="0" COMMENT="" />
    <EXPORT ORDINAL="4521" NAME="?showbase@@YAAAVQTextStream@@AAV1@@Z" PURGE="0" COMMENT="" />
    <EXPORT ORDINAL="4522" NAME="?sibling@QAbstractItemModel@@QBE?AVQModelIndex@@HHABV2@@Z" PURGE="16" COMMENT="" />
    <EXPORT ORDINAL="4523" NAME="?sibling@QModelIndex@@QBE?AV1@HH@Z" PURGE="12" COMMENT="" />
    <EXPORT ORDINAL="4524" NAME="?sibling@QPersistentModelIndex@@QBE?AVQModelIndex@@HH@Z" PURGE="12" COMMENT="" />
    <EXPORT ORDINAL="4525" NAME="?signal@QSignalTransition@@QBE?AVQByteArray@@XZ" PURGE="4" COMMENT="" />
    <EXPORT ORDINAL="4526" NAME="?signalId@QMetaCallEvent@@QBEHXZ" PURGE="0" COMMENT="" />
    <EXPORT ORDINAL="4527" NAME="?signalIndex@QObjectPrivate@@QBEHPBD@Z" PURGE="4" COMMENT="" />
    <EXPORT ORDINAL="4528" NAME="?signalIndex@SignalEvent@QStateMachine@@QBEHXZ" PURGE="0" COMMENT="" />
    <EXPORT ORDINAL="4529" NAME="?signalsBlocked@QObject@@QBE_NXZ" PURGE="0" COMMENT="" />
    <EXPORT ORDINAL="4530" NAME="?signature@QMetaMethod@@QBEPBDXZ" PURGE="0" COMMENT="" />
    <EXPORT ORDINAL="4531" NAME="?simplified@QByteArray@@QBE?AV1@XZ" PURGE="4" COMMENT="" />
    <EXPORT ORDINAL="4532" NAME="?simplified@QString@@QBE?AV1@XZ" PURGE="4" COMMENT="" />
    <EXPORT ORDINAL="4533" NAME="?simplifyWhiteSpace@QByteArray@@QBE?AV1@XZ" PURGE="4" COMMENT="" />
    <EXPORT ORDINAL="4534" NAME="?simplifyWhiteSpace@QString@@QBE?AV1@XZ" PURGE="4" COMMENT="" />
    <EXPORT ORDINAL="4535" NAME="?singleShot@QTimer@@SAXHPAVQObject@@PBD@Z" PURGE="0" COMMENT="" />
    <EXPORT ORDINAL="4536" NAME="?size@?$QVector@VQPoint@@@@QBEHXZ" PURGE="0" COMMENT="" />
    <EXPORT ORDINAL="4537" NAME="?size@?$QVector@VQPointF@@@@QBEHXZ" PURGE="0" COMMENT="" />
    <EXPORT ORDINAL="4538" NAME="?size@?$QVector@VQXmlStreamAttribute@@@@QBEHXZ" PURGE="0" COMMENT="" />
    <EXPORT ORDINAL="4539" NAME="?size@QAbstractFileEngine@@UBE_JXZ" PURGE="0" COMMENT="" />
    <EXPORT ORDINAL="4540" NAME="?size@QBitArray@@QBEHXZ" PURGE="0" COMMENT="" />
    <EXPORT ORDINAL="4541" NAME="?size@QBuffer@@UBE_JXZ" PURGE="0" COMMENT="" />
    <EXPORT ORDINAL="4542" NAME="?size@QByteArray@@QBEHXZ" PURGE="0" COMMENT="" />
    <EXPORT ORDINAL="4543" NAME="?size@QFSFileEngine@@UBE_JXZ" PURGE="0" COMMENT="" />
    <EXPORT ORDINAL="4544" NAME="?size@QFile@@UBE_JXZ" PURGE="0" COMMENT="" />
    <EXPORT ORDINAL="4545" NAME="?size@QFileInfo@@QBE_JXZ" PURGE="0" COMMENT="" />
    <EXPORT ORDINAL="4546" NAME="?size@QIODevice@@UBE_JXZ" PURGE="0" COMMENT="" />
    <EXPORT ORDINAL="4547" NAME="?size@QListData@@QBEHXZ" PURGE="0" COMMENT="" />
    <EXPORT ORDINAL="4548" NAME="?size@QRect@@QBE?AVQSize@@XZ" PURGE="4" COMMENT="" />
    <EXPORT ORDINAL="4549" NAME="?size@QRectF@@QBE?AVQSizeF@@XZ" PURGE="4" COMMENT="" />
    <EXPORT ORDINAL="4550" NAME="?size@QResource@@QBE_JXZ" PURGE="0" COMMENT="" />
    <EXPORT ORDINAL="4551" NAME="?size@QSharedMemory@@QBEHXZ" PURGE="0" COMMENT="" />
    <EXPORT ORDINAL="4552" NAME="?size@QString@@QBEHXZ" PURGE="0" COMMENT="" />
    <EXPORT ORDINAL="4553" NAME="?size@QStringRef@@QBEHXZ" PURGE="0" COMMENT="" />
    <EXPORT ORDINAL="4554" NAME="?size@QXmlStreamStringRef@@QBEHXZ" PURGE="0" COMMENT="" />
    <EXPORT ORDINAL="4555" NAME="?sizeOfTypedData@?$QVector@VQPoint@@@@AAEHXZ" PURGE="0" COMMENT="" />
    <EXPORT ORDINAL="4556" NAME="?sizeOfTypedData@?$QVector@VQPointF@@@@AAEHXZ" PURGE="0" COMMENT="" />
    <EXPORT ORDINAL="4557" NAME="?sizeOfTypedData@?$QVector@VQXmlStreamAttribute@@@@AAEHXZ" PURGE="0" COMMENT="" />
    <EXPORT ORDINAL="4558" NAME="?skipCurrentElement@QXmlStreamReader@@QAEXXZ" PURGE="0" COMMENT="" />
    <EXPORT ORDINAL="4559" NAME="?skipRawData@QDataStream@@QAEHH@Z" PURGE="4" COMMENT="" />
    <EXPORT ORDINAL="4560" NAME="?skipToNextSection@QDateTimeParser@@QBE_NHABVQDateTime@@ABVQString@@@Z" PURGE="12" COMMENT="" />
    <EXPORT ORDINAL="4561" NAME="?skipWhiteSpace@QTextStream@@QAEXXZ" PURGE="0" COMMENT="" />
    <EXPORT ORDINAL="4562" NAME="?sleep@QThread@@KAXK@Z" PURGE="0" COMMENT="" />
    <EXPORT ORDINAL="4563" NAME="?socket@QSocketNotifier@@QBEHXZ" PURGE="0" COMMENT="" />
    <EXPORT ORDINAL="4564" NAME="?sort@QAbstractItemModel@@UAEXHW4SortOrder@Qt@@@Z" PURGE="8" COMMENT="" />
    <EXPORT ORDINAL="4565" NAME="?sorting@QDir@@QBE?AV?$QFlags@W4SortFlag@QDir@@@@XZ" PURGE="4" COMMENT="" />
    <EXPORT ORDINAL="4566" NAME="?sourceState@QAbstractTransition@@QBEPAVQState@@XZ" PURGE="0" COMMENT="" />
    <EXPORT ORDINAL="4567" NAME="?sourceState@QAbstractTransitionPrivate@@QBEPAVQState@@XZ" PURGE="0" COMMENT="" />
    <EXPORT ORDINAL="4568" NAME="?space@QDebug@@QAEAAV1@XZ" PURGE="0" COMMENT="" />
    <EXPORT ORDINAL="4569" NAME="?span@QAbstractItemModel@@UBE?AVQSize@@ABVQModelIndex@@@Z" PURGE="8" COMMENT="" />
    <EXPORT ORDINAL="4570" NAME="?split@QByteArray@@QBE?AV?$QList@VQByteArray@@@@D@Z" PURGE="8" COMMENT="" />
    <EXPORT ORDINAL="4571" NAME="?split@QString@@QBE?AVQStringList@@ABV1@W4SplitBehavior@1@W4CaseSensitivity@Qt@@@Z" PURGE="16" COMMENT="" />
    <EXPORT ORDINAL="4572" NAME="?split@QString@@QBE?AVQStringList@@ABVQChar@@W4SplitBehavior@1@W4CaseSensitivity@Qt@@@Z" PURGE="16" COMMENT="" />
    <EXPORT ORDINAL="4573" NAME="?split@QString@@QBE?AVQStringList@@ABVQRegExp@@W4SplitBehavior@1@@Z" PURGE="12" COMMENT="" />
    <EXPORT ORDINAL="4574" NAME="?spontaneous@QEvent@@QBE_NXZ" PURGE="0" COMMENT="" />
    <EXPORT ORDINAL="4575" NAME="?sprintf@QString@@QAAAAV1@PBDZZ" PURGE="0" COMMENT="" />
    <EXPORT ORDINAL="4576" NAME="?squeeze@?$QVector@VQPoint@@@@QAEXXZ" PURGE="0" COMMENT="" />
    <EXPORT ORDINAL="4577" NAME="?squeeze@?$QVector@VQPointF@@@@QAEXXZ" PURGE="0" COMMENT="" />
    <EXPORT ORDINAL="4578" NAME="?squeeze@?$QVector@VQXmlStreamAttribute@@@@QAEXXZ" PURGE="0" COMMENT="" />
    <EXPORT ORDINAL="4579" NAME="?squeeze@QByteArray@@QAEXXZ" PURGE="0" COMMENT="" />
    <EXPORT ORDINAL="4580" NAME="?squeeze@QString@@QAEXXZ" PURGE="0" COMMENT="" />
    <EXPORT ORDINAL="4581" NAME="?stackSize@QThread@@QBEIXZ" PURGE="0" COMMENT="" />
    <EXPORT ORDINAL="4582" NAME="?standaloneDayName@QLocale@@QBE?AVQString@@HW4FormatType@1@@Z" PURGE="12" COMMENT="" />
    <EXPORT ORDINAL="4583" NAME="?standaloneMonthName@QLocale@@QBE?AVQString@@HW4FormatType@1@@Z" PURGE="12" COMMENT="" />
    <EXPORT ORDINAL="4584" NAME="?start@QAbstractAnimation@@QAEXW4DeletionPolicy@1@@Z" PURGE="4" COMMENT="" />
    <EXPORT ORDINAL="4585" NAME="?start@QAnimationDriver@@AAEXXZ" PURGE="0" COMMENT="" />
    <EXPORT ORDINAL="4586" NAME="?start@QBasicTimer@@QAEXHPAVQObject@@@Z" PURGE="8" COMMENT="" />
    <EXPORT ORDINAL="4587" NAME="?start@QElapsedTimer@@QAEXXZ" PURGE="0" COMMENT="" />
    <EXPORT ORDINAL="4588" NAME="?start@QProcess@@QAEXABVQString@@ABVQStringList@@V?$QFlags@W4OpenModeFlag@QIODevice@@@@@Z" PURGE="12" COMMENT="" />
    <EXPORT ORDINAL="4589" NAME="?start@QProcess@@QAEXABVQString@@V?$QFlags@W4OpenModeFlag@QIODevice@@@@@Z" PURGE="8" COMMENT="" />
    <EXPORT ORDINAL="4590" NAME="?start@QStateMachine@@QAEXXZ" PURGE="0" COMMENT="" />
    <EXPORT ORDINAL="4591" NAME="?start@QThread@@QAEXW4Priority@1@@Z" PURGE="4" COMMENT="" />
    <EXPORT ORDINAL="4592" NAME="?start@QThreadPool@@QAEXPAVQRunnable@@H@Z" PURGE="8" COMMENT="" />
    <EXPORT ORDINAL="4593" NAME="?start@QTime@@QAEXXZ" PURGE="0" COMMENT="" />
    <EXPORT ORDINAL="4594" NAME="?start@QTimeLine@@QAEXXZ" PURGE="0" COMMENT="" />
    <EXPORT ORDINAL="4595" NAME="?start@QTimer@@QAEHH_N@Z" PURGE="8" COMMENT="" />
    <EXPORT ORDINAL="4596" NAME="?start@QTimer@@QAEXH@Z" PURGE="4" COMMENT="" />
    <EXPORT ORDINAL="4597" NAME="?start@QTimer@@QAEXXZ" PURGE="0" COMMENT="" />
    <EXPORT ORDINAL="4598" NAME="?start@ThreadEngineBase@QtConcurrent@@MAEXXZ" PURGE="0" COMMENT="" />
    <EXPORT ORDINAL="4599" NAME="?startBlocking@ThreadEngineBase@QtConcurrent@@QAEXXZ" PURGE="0" COMMENT="" />
    <EXPORT ORDINAL="4600" NAME="?startDetached@QProcess@@SA_NABVQString@@@Z" PURGE="0" COMMENT="" />
    <EXPORT ORDINAL="4601" NAME="?startDetached@QProcess@@SA_NABVQString@@ABVQStringList@@0PA_J@Z" PURGE="0" COMMENT="" />
    <EXPORT ORDINAL="4602" NAME="?startDetached@QProcess@@SA_NABVQString@@ABVQStringList@@@Z" PURGE="0" COMMENT="" />
    <EXPORT ORDINAL="4603" NAME="?startFrame@QTimeLine@@QBEHXZ" PURGE="0" COMMENT="" />
    <EXPORT ORDINAL="4604" NAME="?startSingleThreaded@ThreadEngineBase@QtConcurrent@@QAEXXZ" PURGE="-1" COMMENT="" />
    <EXPORT ORDINAL="4605" NAME="?startState@QStateMachinePrivate@@QAEPAVQState@@XZ" PURGE="0" COMMENT="" />
    <EXPORT ORDINAL="4606" NAME="?startThread@ThreadEngineBase@QtConcurrent@@QAEXXZ" PURGE="0" COMMENT="" />
    <EXPORT ORDINAL="4607" NAME="?startThreadInternal@ThreadEngineBase@QtConcurrent@@AAE_NXZ" PURGE="0" COMMENT="" />
    <EXPORT ORDINAL="4608" NAME="?startThreads@ThreadEngineBase@QtConcurrent@@AAEXXZ" PURGE="0" COMMENT="" />
    <EXPORT ORDINAL="4609" NAME="?startTimer@QObject@@QAEHH@Z" PURGE="4" COMMENT="" />
    <EXPORT ORDINAL="4610" NAME="?startTimer@QTimer@@AAEHH@Z" PURGE="4" COMMENT="" />
    <EXPORT ORDINAL="4611" NAME="?startValue@QVariantAnimation@@QBE?AVQVariant@@XZ" PURGE="4" COMMENT="" />
    <EXPORT ORDINAL="4612" NAME="?started@QAnimationDriver@@MAEXXZ" PURGE="0" COMMENT="" />
    <EXPORT ORDINAL="4613" NAME="?started@QFutureWatcherBase@@IAEXXZ" PURGE="0" COMMENT="" />
    <EXPORT ORDINAL="4614" NAME="?started@QProcess@@IAEXXZ" PURGE="0" COMMENT="" />
    <EXPORT ORDINAL="4615" NAME="?started@QStateMachine@@IAEXXZ" PURGE="0" COMMENT="" />
    <EXPORT ORDINAL="4616" NAME="?started@QThread@@IAEXXZ" PURGE="0" COMMENT="" />
    <EXPORT ORDINAL="4617" NAME="?startingUp@QAbstractEventDispatcher@@UAEXXZ" PURGE="0" COMMENT="" />
    <EXPORT ORDINAL="4618" NAME="?startingUp@QCoreApplication@@SA_NXZ" PURGE="0" COMMENT="" />
    <EXPORT ORDINAL="4619" NAME="?startingUp@QEventDispatcherWin32@@UAEXXZ" PURGE="0" COMMENT="" />
    <EXPORT ORDINAL="4620" NAME="?startsWith@?$QVector@VQPoint@@@@QBE_NABVQPoint@@@Z" PURGE="4" COMMENT="" />
    <EXPORT ORDINAL="4621" NAME="?startsWith@?$QVector@VQPointF@@@@QBE_NABVQPointF@@@Z" PURGE="4" COMMENT="" />
    <EXPORT ORDINAL="4622" NAME="?startsWith@?$QVector@VQXmlStreamAttribute@@@@QBE_NABVQXmlStreamAttribute@@@Z" PURGE="4" COMMENT="" />
    <EXPORT ORDINAL="4623" NAME="?startsWith@QByteArray@@QBE_NABV1@@Z" PURGE="4" COMMENT="" />
    <EXPORT ORDINAL="4624" NAME="?startsWith@QByteArray@@QBE_ND@Z" PURGE="4" COMMENT="" />
    <EXPORT ORDINAL="4625" NAME="?startsWith@QByteArray@@QBE_NPBD@Z" PURGE="4" COMMENT="" />
    <EXPORT ORDINAL="4626" NAME="?startsWith@QString@@QBE_NABV1@W4CaseSensitivity@Qt@@@Z" PURGE="8" COMMENT="" />
    <EXPORT ORDINAL="4627" NAME="?startsWith@QString@@QBE_NABV1@_N@Z" PURGE="8" COMMENT="" />
    <EXPORT ORDINAL="4628" NAME="?startsWith@QString@@QBE_NABVQChar@@W4CaseSensitivity@Qt@@@Z" PURGE="8" COMMENT="" />
    <EXPORT ORDINAL="4629" NAME="?startsWith@QString@@QBE_NABVQLatin1String@@W4CaseSensitivity@Qt@@@Z" PURGE="8" COMMENT="" />
    <EXPORT ORDINAL="4630" NAME="?startsWith@QString@@QBE_NABVQStringRef@@W4CaseSensitivity@Qt@@@Z" PURGE="8" COMMENT="" />
    <EXPORT ORDINAL="4631" NAME="?startsWith@QStringRef@@QBE_NABV1@W4CaseSensitivity@Qt@@@Z" PURGE="8" COMMENT="" />
    <EXPORT ORDINAL="4632" NAME="?startsWith@QStringRef@@QBE_NABVQString@@W4CaseSensitivity@Qt@@@Z" PURGE="8" COMMENT="" />
    <EXPORT ORDINAL="4633" NAME="?startsWith@QStringRef@@QBE_NVQChar@@W4CaseSensitivity@Qt@@@Z" PURGE="8" COMMENT="" />
    <EXPORT ORDINAL="4634" NAME="?startsWith@QStringRef@@QBE_NVQLatin1String@@W4CaseSensitivity@Qt@@@Z" PURGE="8" COMMENT="" />
    <EXPORT ORDINAL="4635" NAME="?state@QAbstractAnimation@@QBE?AW4State@1@XZ" PURGE="0" COMMENT="" />
    <EXPORT ORDINAL="4636" NAME="?state@QIODevice@@QBEHXZ" PURGE="0" COMMENT="" />
    <EXPORT ORDINAL="4637" NAME="?state@QProcess@@QBE?AW4ProcessState@1@XZ" PURGE="0" COMMENT="" />
    <EXPORT ORDINAL="4638" NAME="?state@QTimeLine@@QBE?AW4State@1@XZ" PURGE="0" COMMENT="" />
    <EXPORT ORDINAL="4639" NAME="?stateChanged@QAbstractAnimation@@IAEXW4State@1@0@Z" PURGE="8" COMMENT="" />
    <EXPORT ORDINAL="4640" NAME="?stateChanged@QProcess@@IAEXW4ProcessState@1@@Z" PURGE="4" COMMENT="" />
    <EXPORT ORDINAL="4641" NAME="?stateChanged@QTimeLine@@IAEXW4State@1@@Z" PURGE="4" COMMENT="" />
    <EXPORT ORDINAL="4642" NAME="?stateEntryLessThan@QStateMachinePrivate@@SA_NPAVQAbstractState@@0@Z" PURGE="0" COMMENT="" />
    <EXPORT ORDINAL="4643" NAME="?stateExitLessThan@QStateMachinePrivate@@SA_NPAVQAbstractState@@0@Z" PURGE="0" COMMENT="" />
    <EXPORT ORDINAL="4644" NAME="?stateName@QDateTimeParser@@QBE?AVQString@@H@Z" PURGE="8" COMMENT="" />
    <EXPORT ORDINAL="4645" NAME="?staticEmptyModel@QAbstractItemModelPrivate@@SAPAVQAbstractItemModel@@XZ" PURGE="0" COMMENT="" />
    <EXPORT ORDINAL="4646" NAME="?staticInstances@QPluginLoader@@SA?AV?$QList@PAVQObject@@@@XZ" PURGE="0" COMMENT="" />
    <EXPORT ORDINAL="4647" NAME="?staticMetaObject@QAbstractAnimation@@2UQMetaObject@@B" PURGE="-1" COMMENT="" />
    <EXPORT ORDINAL="4648" NAME="?staticMetaObject@QAbstractEventDispatcher@@2UQMetaObject@@B" PURGE="-1" COMMENT="" />
    <EXPORT ORDINAL="4649" NAME="?staticMetaObject@QAbstractItemModel@@2UQMetaObject@@B" PURGE="-1" COMMENT="" />
    <EXPORT ORDINAL="4650" NAME="?staticMetaObject@QAbstractListModel@@2UQMetaObject@@B" PURGE="-1" COMMENT="" />
    <EXPORT ORDINAL="4651" NAME="?staticMetaObject@QAbstractState@@2UQMetaObject@@B" PURGE="-1" COMMENT="" />
    <EXPORT ORDINAL="4652" NAME="?staticMetaObject@QAbstractTableModel@@2UQMetaObject@@B" PURGE="-1" COMMENT="" />
    <EXPORT ORDINAL="4653" NAME="?staticMetaObject@QAbstractTransition@@2UQMetaObject@@B" PURGE="-1" COMMENT="" />
    <EXPORT ORDINAL="4654" NAME="?staticMetaObject@QAnimationDriver@@2UQMetaObject@@B" PURGE="-1" COMMENT="" />
    <EXPORT ORDINAL="4655" NAME="?staticMetaObject@QAnimationGroup@@2UQMetaObject@@B" PURGE="-1" COMMENT="" />
    <EXPORT ORDINAL="4656" NAME="?staticMetaObject@QBuffer@@2UQMetaObject@@B" PURGE="-1" COMMENT="" />
    <EXPORT ORDINAL="4657" NAME="?staticMetaObject@QCoreApplication@@2UQMetaObject@@B" PURGE="-1" COMMENT="" />
    <EXPORT ORDINAL="4658" NAME="?staticMetaObject@QEasingCurve@@2UQMetaObject@@B" PURGE="-1" COMMENT="" />
    <EXPORT ORDINAL="4659" NAME="?staticMetaObject@QEvent@@2UQMetaObject@@B" PURGE="-1" COMMENT="" />
    <EXPORT ORDINAL="4660" NAME="?staticMetaObject@QEventDispatcherWin32@@2UQMetaObject@@B" PURGE="-1" COMMENT="" />
    <EXPORT ORDINAL="4661" NAME="?staticMetaObject@QEventLoop@@2UQMetaObject@@B" PURGE="-1" COMMENT="" />
    <EXPORT ORDINAL="4662" NAME="?staticMetaObject@QEventTransition@@2UQMetaObject@@B" PURGE="-1" COMMENT="" />
    <EXPORT ORDINAL="4663" NAME="?staticMetaObject@QFactoryLoader@@2UQMetaObject@@B" PURGE="-1" COMMENT="" />
    <EXPORT ORDINAL="4664" NAME="?staticMetaObject@QFile@@2UQMetaObject@@B" PURGE="-1" COMMENT="" />
    <EXPORT ORDINAL="4665" NAME="?staticMetaObject@QFileSystemWatcher@@2UQMetaObject@@B" PURGE="-1" COMMENT="" />
    <EXPORT ORDINAL="4666" NAME="?staticMetaObject@QFinalState@@2UQMetaObject@@B" PURGE="-1" COMMENT="" />
    <EXPORT ORDINAL="4667" NAME="?staticMetaObject@QFutureWatcherBase@@2UQMetaObject@@B" PURGE="-1" COMMENT="" />
    <EXPORT ORDINAL="4668" NAME="?staticMetaObject@QHistoryState@@2UQMetaObject@@B" PURGE="-1" COMMENT="" />
    <EXPORT ORDINAL="4669" NAME="?staticMetaObject@QIODevice@@2UQMetaObject@@B" PURGE="-1" COMMENT="" />
    <EXPORT ORDINAL="4670" NAME="?staticMetaObject@QLibrary@@2UQMetaObject@@B" PURGE="-1" COMMENT="" />
    <EXPORT ORDINAL="4671" NAME="?staticMetaObject@QLocale@@2UQMetaObject@@B" PURGE="-1" COMMENT="" />
    <EXPORT ORDINAL="4672" NAME="?staticMetaObject@QMimeData@@2UQMetaObject@@B" PURGE="-1" COMMENT="" />
    <EXPORT ORDINAL="4673" NAME="?staticMetaObject@QNonContiguousByteDevice@@2UQMetaObject@@B" PURGE="-1" COMMENT="" />
    <EXPORT ORDINAL="4674" NAME="?staticMetaObject@QObject@@2UQMetaObject@@B" PURGE="-1" COMMENT="" />
    <EXPORT ORDINAL="4675" NAME="?staticMetaObject@QObjectCleanupHandler@@2UQMetaObject@@B" PURGE="-1" COMMENT="" />
    <EXPORT ORDINAL="4676" NAME="?staticMetaObject@QParallelAnimationGroup@@2UQMetaObject@@B" PURGE="-1" COMMENT="" />
    <EXPORT ORDINAL="4677" NAME="?staticMetaObject@QPauseAnimation@@2UQMetaObject@@B" PURGE="-1" COMMENT="" />
    <EXPORT ORDINAL="4678" NAME="?staticMetaObject@QPluginLoader@@2UQMetaObject@@B" PURGE="-1" COMMENT="" />
    <EXPORT ORDINAL="4679" NAME="?staticMetaObject@QProcess@@2UQMetaObject@@B" PURGE="-1" COMMENT="" />
    <EXPORT ORDINAL="4680" NAME="?staticMetaObject@QPropertyAnimation@@2UQMetaObject@@B" PURGE="-1" COMMENT="" />
    <EXPORT ORDINAL="4681" NAME="?staticMetaObject@QSequentialAnimationGroup@@2UQMetaObject@@B" PURGE="-1" COMMENT="" />
    <EXPORT ORDINAL="4682" NAME="?staticMetaObject@QSettings@@2UQMetaObject@@B" PURGE="-1" COMMENT="" />
    <EXPORT ORDINAL="4683" NAME="?staticMetaObject@QSharedMemory@@2UQMetaObject@@B" PURGE="-1" COMMENT="" />
    <EXPORT ORDINAL="4684" NAME="?staticMetaObject@QSignalMapper@@2UQMetaObject@@B" PURGE="-1" COMMENT="" />
    <EXPORT ORDINAL="4685" NAME="?staticMetaObject@QSignalTransition@@2UQMetaObject@@B" PURGE="-1" COMMENT="" />
    <EXPORT ORDINAL="4686" NAME="?staticMetaObject@QSocketNotifier@@2UQMetaObject@@B" PURGE="-1" COMMENT="" />
    <EXPORT ORDINAL="4687" NAME="?staticMetaObject@QState@@2UQMetaObject@@B" PURGE="-1" COMMENT="" />
    <EXPORT ORDINAL="4688" NAME="?staticMetaObject@QStateMachine@@2UQMetaObject@@B" PURGE="-1" COMMENT="" />
    <EXPORT ORDINAL="4689" NAME="?staticMetaObject@QTemporaryFile@@2UQMetaObject@@B" PURGE="-1" COMMENT="" />
    <EXPORT ORDINAL="4690" NAME="?staticMetaObject@QTextCodecPlugin@@2UQMetaObject@@B" PURGE="-1" COMMENT="" />
    <EXPORT ORDINAL="4691" NAME="?staticMetaObject@QThread@@2UQMetaObject@@B" PURGE="-1" COMMENT="" />
    <EXPORT ORDINAL="4692" NAME="?staticMetaObject@QThreadPool@@2UQMetaObject@@B" PURGE="-1" COMMENT="" />
    <EXPORT ORDINAL="4693" NAME="?staticMetaObject@QTimeLine@@2UQMetaObject@@B" PURGE="-1" COMMENT="" />
    <EXPORT ORDINAL="4694" NAME="?staticMetaObject@QTimer@@2UQMetaObject@@B" PURGE="-1" COMMENT="" />
    <EXPORT ORDINAL="4695" NAME="?staticMetaObject@QTranslator@@2UQMetaObject@@B" PURGE="-1" COMMENT="" />
    <EXPORT ORDINAL="4696" NAME="?staticMetaObject@QVariantAnimation@@2UQMetaObject@@B" PURGE="-1" COMMENT="" />
    <EXPORT ORDINAL="4697" NAME="?staticMetaObject@QWinEventNotifier@@2UQMetaObject@@B" PURGE="-1" COMMENT="" />
    <EXPORT ORDINAL="4698" NAME="?staticMetaObject@QWindowsPipeWriter@@2UQMetaObject@@B" PURGE="-1" COMMENT="" />
    <EXPORT ORDINAL="4699" NAME="?staticMetaObjectExtraData@QAbstractAnimation@@0UQMetaObjectExtraData@@B" PURGE="-1" COMMENT="" />
    <EXPORT ORDINAL="4700" NAME="?staticMetaObjectExtraData@QAbstractEventDispatcher@@0UQMetaObjectExtraData@@B" PURGE="-1" COMMENT="" />
    <EXPORT ORDINAL="4701" NAME="?staticMetaObjectExtraData@QAbstractItemModel@@0UQMetaObjectExtraData@@B" PURGE="-1" COMMENT="" />
    <EXPORT ORDINAL="4702" NAME="?staticMetaObjectExtraData@QAbstractListModel@@0UQMetaObjectExtraData@@B" PURGE="-1" COMMENT="" />
    <EXPORT ORDINAL="4703" NAME="?staticMetaObjectExtraData@QAbstractState@@0UQMetaObjectExtraData@@B" PURGE="-1" COMMENT="" />
    <EXPORT ORDINAL="4704" NAME="?staticMetaObjectExtraData@QAbstractTableModel@@0UQMetaObjectExtraData@@B" PURGE="-1" COMMENT="" />
    <EXPORT ORDINAL="4705" NAME="?staticMetaObjectExtraData@QAbstractTransition@@0UQMetaObjectExtraData@@B" PURGE="-1" COMMENT="" />
    <EXPORT ORDINAL="4706" NAME="?staticMetaObjectExtraData@QAnimationDriver@@0UQMetaObjectExtraData@@B" PURGE="-1" COMMENT="" />
    <EXPORT ORDINAL="4707" NAME="?staticMetaObjectExtraData@QAnimationGroup@@0UQMetaObjectExtraData@@B" PURGE="-1" COMMENT="" />
    <EXPORT ORDINAL="4708" NAME="?staticMetaObjectExtraData@QBuffer@@0UQMetaObjectExtraData@@B" PURGE="-1" COMMENT="" />
    <EXPORT ORDINAL="4709" NAME="?staticMetaObjectExtraData@QCoreApplication@@0UQMetaObjectExtraData@@B" PURGE="-1" COMMENT="" />
    <EXPORT ORDINAL="4710" NAME="?staticMetaObjectExtraData@QEventDispatcherWin32@@0UQMetaObjectExtraData@@B" PURGE="-1" COMMENT="" />
    <EXPORT ORDINAL="4711" NAME="?staticMetaObjectExtraData@QEventLoop@@0UQMetaObjectExtraData@@B" PURGE="-1" COMMENT="" />
    <EXPORT ORDINAL="4712" NAME="?staticMetaObjectExtraData@QEventTransition@@0UQMetaObjectExtraData@@B" PURGE="-1" COMMENT="" />
    <EXPORT ORDINAL="4713" NAME="?staticMetaObjectExtraData@QFactoryLoader@@0UQMetaObjectExtraData@@B" PURGE="-1" COMMENT="" />
    <EXPORT ORDINAL="4714" NAME="?staticMetaObjectExtraData@QFile@@0UQMetaObjectExtraData@@B" PURGE="-1" COMMENT="" />
    <EXPORT ORDINAL="4715" NAME="?staticMetaObjectExtraData@QFileSystemWatcher@@0UQMetaObjectExtraData@@B" PURGE="-1" COMMENT="" />
    <EXPORT ORDINAL="4716" NAME="?staticMetaObjectExtraData@QFinalState@@0UQMetaObjectExtraData@@B" PURGE="-1" COMMENT="" />
    <EXPORT ORDINAL="4717" NAME="?staticMetaObjectExtraData@QFutureWatcherBase@@0UQMetaObjectExtraData@@B" PURGE="-1" COMMENT="" />
    <EXPORT ORDINAL="4718" NAME="?staticMetaObjectExtraData@QHistoryState@@0UQMetaObjectExtraData@@B" PURGE="-1" COMMENT="" />
    <EXPORT ORDINAL="4719" NAME="?staticMetaObjectExtraData@QIODevice@@0UQMetaObjectExtraData@@B" PURGE="-1" COMMENT="" />
    <EXPORT ORDINAL="4720" NAME="?staticMetaObjectExtraData@QLibrary@@0UQMetaObjectExtraData@@B" PURGE="-1" COMMENT="" />
    <EXPORT ORDINAL="4721" NAME="?staticMetaObjectExtraData@QMimeData@@0UQMetaObjectExtraData@@B" PURGE="-1" COMMENT="" />
    <EXPORT ORDINAL="4722" NAME="?staticMetaObjectExtraData@QNonContiguousByteDevice@@0UQMetaObjectExtraData@@B" PURGE="-1" COMMENT="" />
    <EXPORT ORDINAL="4723" NAME="?staticMetaObjectExtraData@QObject@@0UQMetaObjectExtraData@@B" PURGE="-1" COMMENT="" />
    <EXPORT ORDINAL="4724" NAME="?staticMetaObjectExtraData@QObjectCleanupHandler@@0UQMetaObjectExtraData@@B" PURGE="-1" COMMENT="" />
    <EXPORT ORDINAL="4725" NAME="?staticMetaObjectExtraData@QParallelAnimationGroup@@0UQMetaObjectExtraData@@B" PURGE="-1" COMMENT="" />
    <EXPORT ORDINAL="4726" NAME="?staticMetaObjectExtraData@QPauseAnimation@@0UQMetaObjectExtraData@@B" PURGE="-1" COMMENT="" />
    <EXPORT ORDINAL="4727" NAME="?staticMetaObjectExtraData@QPluginLoader@@0UQMetaObjectExtraData@@B" PURGE="-1" COMMENT="" />
    <EXPORT ORDINAL="4728" NAME="?staticMetaObjectExtraData@QProcess@@0UQMetaObjectExtraData@@B" PURGE="-1" COMMENT="" />
    <EXPORT ORDINAL="4729" NAME="?staticMetaObjectExtraData@QPropertyAnimation@@0UQMetaObjectExtraData@@B" PURGE="-1" COMMENT="" />
    <EXPORT ORDINAL="4730" NAME="?staticMetaObjectExtraData@QSequentialAnimationGroup@@0UQMetaObjectExtraData@@B" PURGE="-1" COMMENT="" />
    <EXPORT ORDINAL="4731" NAME="?staticMetaObjectExtraData@QSettings@@0UQMetaObjectExtraData@@B" PURGE="-1" COMMENT="" />
    <EXPORT ORDINAL="4732" NAME="?staticMetaObjectExtraData@QSharedMemory@@0UQMetaObjectExtraData@@B" PURGE="-1" COMMENT="" />
    <EXPORT ORDINAL="4733" NAME="?staticMetaObjectExtraData@QSignalMapper@@0UQMetaObjectExtraData@@B" PURGE="-1" COMMENT="" />
    <EXPORT ORDINAL="4734" NAME="?staticMetaObjectExtraData@QSignalTransition@@0UQMetaObjectExtraData@@B" PURGE="-1" COMMENT="" />
    <EXPORT ORDINAL="4735" NAME="?staticMetaObjectExtraData@QSocketNotifier@@0UQMetaObjectExtraData@@B" PURGE="-1" COMMENT="" />
    <EXPORT ORDINAL="4736" NAME="?staticMetaObjectExtraData@QState@@0UQMetaObjectExtraData@@B" PURGE="-1" COMMENT="" />
    <EXPORT ORDINAL="4737" NAME="?staticMetaObjectExtraData@QStateMachine@@0UQMetaObjectExtraData@@B" PURGE="-1" COMMENT="" />
    <EXPORT ORDINAL="4738" NAME="?staticMetaObjectExtraData@QTemporaryFile@@0UQMetaObjectExtraData@@B" PURGE="-1" COMMENT="" />
    <EXPORT ORDINAL="4739" NAME="?staticMetaObjectExtraData@QTextCodecPlugin@@0UQMetaObjectExtraData@@B" PURGE="-1" COMMENT="" />
    <EXPORT ORDINAL="4740" NAME="?staticMetaObjectExtraData@QThread@@0UQMetaObjectExtraData@@B" PURGE="-1" COMMENT="" />
    <EXPORT ORDINAL="4741" NAME="?staticMetaObjectExtraData@QThreadPool@@0UQMetaObjectExtraData@@B" PURGE="-1" COMMENT="" />
    <EXPORT ORDINAL="4742" NAME="?staticMetaObjectExtraData@QTimeLine@@0UQMetaObjectExtraData@@B" PURGE="-1" COMMENT="" />
    <EXPORT ORDINAL="4743" NAME="?staticMetaObjectExtraData@QTimer@@0UQMetaObjectExtraData@@B" PURGE="-1" COMMENT="" />
    <EXPORT ORDINAL="4744" NAME="?staticMetaObjectExtraData@QTranslator@@0UQMetaObjectExtraData@@B" PURGE="-1" COMMENT="" />
    <EXPORT ORDINAL="4745" NAME="?staticMetaObjectExtraData@QVariantAnimation@@0UQMetaObjectExtraData@@B" PURGE="-1" COMMENT="" />
    <EXPORT ORDINAL="4746" NAME="?staticMetaObjectExtraData@QWinEventNotifier@@0UQMetaObjectExtraData@@B" PURGE="-1" COMMENT="" />
    <EXPORT ORDINAL="4747" NAME="?staticMetaObjectExtraData@QWindowsPipeWriter@@0UQMetaObjectExtraData@@B" PURGE="-1" COMMENT="" />
    <EXPORT ORDINAL="4748" NAME="?staticQtMetaObject@QObject@@1UQMetaObject@@B" PURGE="-1" COMMENT="" />
    <EXPORT ORDINAL="4749" NAME="?static_metacall@QMetaObject@@QBEHW4Call@1@HPAPAX@Z" PURGE="12" COMMENT="" />
    <EXPORT ORDINAL="4750" NAME="?status@QDataStream@@QBE?AW4Status@1@XZ" PURGE="0" COMMENT="" />
    <EXPORT ORDINAL="4751" NAME="?status@QIODevice@@QBEHXZ" PURGE="0" COMMENT="" />
    <EXPORT ORDINAL="4752" NAME="?status@QSettings@@QBE?AW4Status@1@XZ" PURGE="0" COMMENT="" />
    <EXPORT ORDINAL="4753" NAME="?status@QTextStream@@QBE?AW4Status@1@XZ" PURGE="0" COMMENT="" />
    <EXPORT ORDINAL="4754" NAME="?stop@QAbstractAnimation@@QAEXXZ" PURGE="0" COMMENT="" />
    <EXPORT ORDINAL="4755" NAME="?stop@QAnimationDriver@@AAEXXZ" PURGE="0" COMMENT="" />
    <EXPORT ORDINAL="4756" NAME="?stop@QBasicTimer@@QAEXXZ" PURGE="0" COMMENT="" />
    <EXPORT ORDINAL="4757" NAME="?stop@QStateMachine@@QAEXXZ" PURGE="0" COMMENT="" />
    <EXPORT ORDINAL="4758" NAME="?stop@QTimeLine@@QAEXXZ" PURGE="0" COMMENT="" />
    <EXPORT ORDINAL="4759" NAME="?stop@QTimer@@QAEXXZ" PURGE="0" COMMENT="" />
    <EXPORT ORDINAL="4760" NAME="?stopped@QAnimationDriver@@MAEXXZ" PURGE="0" COMMENT="" />
    <EXPORT ORDINAL="4761" NAME="?stopped@QStateMachine@@IAEXXZ" PURGE="0" COMMENT="" />
    <EXPORT ORDINAL="4762" NAME="?string@QStringRef@@QBEPBVQString@@XZ" PURGE="0" COMMENT="" />
    <EXPORT ORDINAL="4763" NAME="?string@QTextBoundaryFinder@@QBE?AVQString@@XZ" PURGE="4" COMMENT="" />
    <EXPORT ORDINAL="4764" NAME="?string@QTextStream@@QBEPAVQString@@XZ" PURGE="0" COMMENT="" />
    <EXPORT ORDINAL="4765" NAME="?string@QXmlStreamStringRef@@QBEPBVQString@@XZ" PURGE="0" COMMENT="" />
    <EXPORT ORDINAL="4766" NAME="?stringToDouble@QLocalePrivate@@QBENABVQString@@PA_NW4GroupSeparatorMode@1@@Z" PURGE="12" COMMENT="" />
    <EXPORT ORDINAL="4767" NAME="?stringToLongLong@QLocalePrivate@@QBE_JABVQString@@HPA_NW4GroupSeparatorMode@1@@Z" PURGE="16" COMMENT="" />
    <EXPORT ORDINAL="4768" NAME="?stringToUnsLongLong@QLocalePrivate@@QBE_KABVQString@@HPA_NW4GroupSeparatorMode@1@@Z" PURGE="16" COMMENT="" />
    <EXPORT ORDINAL="4769" NAME="?stripWhiteSpace@QByteArray@@QBE?AV1@XZ" PURGE="4" COMMENT="" />
    <EXPORT ORDINAL="4770" NAME="?stripWhiteSpace@QString@@QBE?AV1@XZ" PURGE="4" COMMENT="" />
    <EXPORT ORDINAL="4771" NAME="?subkeyList@QSettings@@QBE?AVQStringList@@ABVQString@@@Z" PURGE="8" COMMENT="" />
    <EXPORT ORDINAL="4772" NAME="?submit@QAbstractItemModel@@UAE_NXZ" PURGE="0" COMMENT="" />
    <EXPORT ORDINAL="4773" NAME="?suffix@QFileInfo@@QBE?AVQString@@XZ" PURGE="4" COMMENT="" />
    <EXPORT ORDINAL="4774" NAME="?superClass@QMetaObject@@QBEPBU1@XZ" PURGE="0" COMMENT="" />
    <EXPORT ORDINAL="4775" NAME="?superClassName@QMetaObject@@QBEPBDXZ" PURGE="0" COMMENT="" />
    <EXPORT ORDINAL="4776" NAME="?supportedDragActions@QAbstractItemModel@@QBE?AV?$QFlags@W4DropAction@Qt@@@@XZ" PURGE="4" COMMENT="" />
    <EXPORT ORDINAL="4777" NAME="?supportedDropActions@QAbstractItemModel@@UBE?AV?$QFlags@W4DropAction@Qt@@@@XZ" PURGE="4" COMMENT="" />
    <EXPORT ORDINAL="4778" NAME="?supportsExtension@QAbstractFileEngine@@UBE_NW4Extension@1@@Z" PURGE="4" COMMENT="" />
    <EXPORT ORDINAL="4779" NAME="?supportsExtension@QFSFileEngine@@UBE_NW4Extension@QAbstractFileEngine@@@Z" PURGE="4" COMMENT="" />
    <EXPORT ORDINAL="4780" NAME="?surrogateToUcs4@QChar@@SAIGG@Z" PURGE="0" COMMENT="" />
    <EXPORT ORDINAL="4781" NAME="?surrogateToUcs4@QChar@@SAIV1@0@Z" PURGE="0" COMMENT="" />
    <EXPORT ORDINAL="4782" NAME="?swap@?$QVector@VQPoint@@@@QAEXAAV1@@Z" PURGE="4" COMMENT="" />
    <EXPORT ORDINAL="4783" NAME="?swap@?$QVector@VQPointF@@@@QAEXAAV1@@Z" PURGE="4" COMMENT="" />
    <EXPORT ORDINAL="4784" NAME="?swap@?$QVector@VQXmlStreamAttribute@@@@QAEXAAV1@@Z" PURGE="4" COMMENT="" />
    <EXPORT ORDINAL="4785" NAME="?swap@QBitArray@@QAEXAAV1@@Z" PURGE="4" COMMENT="" />
    <EXPORT ORDINAL="4786" NAME="?swap@QByteArray@@QAEXAAV1@@Z" PURGE="4" COMMENT="" />
    <EXPORT ORDINAL="4787" NAME="?swap@QRegExp@@QAEXAAV1@@Z" PURGE="4" COMMENT="" />
    <EXPORT ORDINAL="4788" NAME="?swap@QString@@QAEXAAV1@@Z" PURGE="4" COMMENT="" />
    <EXPORT ORDINAL="4789" NAME="?swap@QUrl@@QAEXAAV1@@Z" PURGE="4" COMMENT="" />
    <EXPORT ORDINAL="4790" NAME="?swap@QVariant@@QAEXAAV1@@Z" PURGE="4" COMMENT="" />
    <EXPORT ORDINAL="4791" NAME="?symLinkTarget@QFile@@QBE?AVQString@@XZ" PURGE="4" COMMENT="" />
    <EXPORT ORDINAL="4792" NAME="?symLinkTarget@QFile@@SA?AVQString@@ABV2@@Z" PURGE="0" COMMENT="" />
    <EXPORT ORDINAL="4793" NAME="?symLinkTarget@QFileInfo@@QBE?AVQString@@XZ" PURGE="4" COMMENT="" />
    <EXPORT ORDINAL="4794" NAME="?sync@QSettings@@QAEXXZ" PURGE="-1" COMMENT="" />
    <EXPORT ORDINAL="4795" NAME="?syncPendingResults@ResultStoreBase@QtConcurrent@@IAEXXZ" PURGE="0" COMMENT="" />
    <EXPORT ORDINAL="4796" NAME="?syncResultCount@ResultStoreBase@QtConcurrent@@IAEXXZ" PURGE="0" COMMENT="" />
    <EXPORT ORDINAL="4797" NAME="?system@QLocale@@SA?AV1@XZ" PURGE="0" COMMENT="" />
    <EXPORT ORDINAL="4798" NAME="?systemEnvironment@QProcess@@SA?AVQStringList@@XZ" PURGE="0" COMMENT="" />
    <EXPORT ORDINAL="4799" NAME="?systemEnvironment@QProcessEnvironment@@SA?AV1@XZ" PURGE="0" COMMENT="" />
    <EXPORT ORDINAL="4800" NAME="?systemId@QXmlStreamEntityDeclaration@@QBE?AVQStringRef@@XZ" PURGE="4" COMMENT="" />
    <EXPORT ORDINAL="4801" NAME="?systemId@QXmlStreamNotationDeclaration@@QBE?AVQStringRef@@XZ" PURGE="4" COMMENT="" />
    <EXPORT ORDINAL="4802" NAME="?tag@QMetaMethod@@QBEPBDXZ" PURGE="0" COMMENT="" />
    <EXPORT ORDINAL="4803" NAME="?takeAnimation@QAnimationGroup@@QAEPAVQAbstractAnimation@@H@Z" PURGE="4" COMMENT="" />
    <EXPORT ORDINAL="4804" NAME="?targetObject@QPropertyAnimation@@QBEPAVQObject@@XZ" PURGE="0" COMMENT="" />
    <EXPORT ORDINAL="4805" NAME="?targetState@QAbstractTransition@@QBEPAVQAbstractState@@XZ" PURGE="0" COMMENT="" />
    <EXPORT ORDINAL="4806" NAME="?targetStates@QAbstractTransition@@QBE?AV?$QList@PAVQAbstractState@@@@XZ" PURGE="4" COMMENT="" />
    <EXPORT ORDINAL="4807" NAME="?temp@QDir@@SA?AV1@XZ" PURGE="0" COMMENT="" />
    <EXPORT ORDINAL="4808" NAME="?tempPath@QDir@@SA?AVQString@@XZ" PURGE="0" COMMENT="" />
    <EXPORT ORDINAL="4809" NAME="?tempPath@QFSFileEngine@@SA?AVQString@@XZ" PURGE="0" COMMENT="" />
    <EXPORT ORDINAL="4810" NAME="?terminate@QProcess@@QAEXXZ" PURGE="0" COMMENT="" />
    <EXPORT ORDINAL="4811" NAME="?terminate@QThread@@QAEXXZ" PURGE="0" COMMENT="" />
    <EXPORT ORDINAL="4812" NAME="?terminated@QThread@@IAEXXZ" PURGE="0" COMMENT="" />
    <EXPORT ORDINAL="4813" NAME="?testAndSetAcquire@QBasicAtomicInt@@QAE_NHH@Z" PURGE="8" COMMENT="" />
    <EXPORT ORDINAL="4814" NAME="?testAndSetOrdered@QBasicAtomicInt@@QAE_NHH@Z" PURGE="8" COMMENT="" />
    <EXPORT ORDINAL="4815" NAME="?testAndSetRelaxed@QBasicAtomicInt@@QAE_NHH@Z" PURGE="8" COMMENT="" />
    <EXPORT ORDINAL="4816" NAME="?testAndSetRelease@QBasicAtomicInt@@QAE_NHH@Z" PURGE="8" COMMENT="" />
    <EXPORT ORDINAL="4817" NAME="?testAttribute@QCoreApplication@@SA_NW4ApplicationAttribute@Qt@@@Z" PURGE="0" COMMENT="" />
    <EXPORT ORDINAL="4818" NAME="?testAttribute@QCoreApplicationPrivate@@SA_NI@Z" PURGE="0" COMMENT="" />
    <EXPORT ORDINAL="4819" NAME="?testBit@QBitArray@@QBE_NH@Z" PURGE="4" COMMENT="" />
    <EXPORT ORDINAL="4820" NAME="?text@QMimeData@@QBE?AVQString@@XZ" PURGE="4" COMMENT="" />
    <EXPORT ORDINAL="4821" NAME="?text@QXmlStreamReader@@QBE?AVQStringRef@@XZ" PURGE="4" COMMENT="" />
    <EXPORT ORDINAL="4822" NAME="?textDirection@QLocale@@QBE?AW4LayoutDirection@Qt@@XZ" PURGE="0" COMMENT="" />
    <EXPORT ORDINAL="4823" NAME="?theMainThread@QCoreApplicationPrivate@@2PAVQThread@@A" PURGE="-1" COMMENT="" />
    <EXPORT ORDINAL="4824" NAME="?thread@QObject@@QBEPAVQThread@@XZ" PURGE="0" COMMENT="" />
    <EXPORT ORDINAL="4825" NAME="?threadExit@ThreadEngineBase@QtConcurrent@@AAEXXZ" PURGE="0" COMMENT="" />
    <EXPORT ORDINAL="4826" NAME="?threadFunction@ThreadEngineBase@QtConcurrent@@MAE?AW4ThreadFunctionResult@2@XZ" PURGE="0" COMMENT="" />
    <EXPORT ORDINAL="4827" NAME="?threadThrottleExit@ThreadEngineBase@QtConcurrent@@AAE_NXZ" PURGE="0" COMMENT="" />
    <EXPORT ORDINAL="4828" NAME="?throwPossibleException@ExceptionStore@internal@QtConcurrent@@QAEXXZ" PURGE="0" COMMENT="" />
    <EXPORT ORDINAL="4829" NAME="?time@QDateTime@@QBE?AVQTime@@XZ" PURGE="4" COMMENT="" />
    <EXPORT ORDINAL="4830" NAME="?timeAfterUser@BlockSizeManager@QtConcurrent@@QAEXXZ" PURGE="0" COMMENT="" />
    <EXPORT ORDINAL="4831" NAME="?timeBeforeUser@BlockSizeManager@QtConcurrent@@QAEXXZ" PURGE="0" COMMENT="" />
    <EXPORT ORDINAL="4832" NAME="?timeFormat@QLocale@@QBE?AVQString@@W4FormatType@1@@Z" PURGE="8" COMMENT="" />
    <EXPORT ORDINAL="4833" NAME="?timeSpec@QDateTime@@QBE?AW4TimeSpec@Qt@@XZ" PURGE="0" COMMENT="" />
    <EXPORT ORDINAL="4834" NAME="?timeout@QTimer@@IAEXXZ" PURGE="0" COMMENT="" />
    <EXPORT ORDINAL="4835" NAME="?timerEvent@QObject@@MAEXPAVQTimerEvent@@@Z" PURGE="4" COMMENT="" />
    <EXPORT ORDINAL="4836" NAME="?timerEvent@QTimeLine@@MAEXPAVQTimerEvent@@@Z" PURGE="4" COMMENT="" />
    <EXPORT ORDINAL="4837" NAME="?timerEvent@QTimer@@MAEXPAVQTimerEvent@@@Z" PURGE="4" COMMENT="" />
    <EXPORT ORDINAL="4838" NAME="?timerEvent@QUnifiedTimer@@MAEXPAVQTimerEvent@@@Z" PURGE="4" COMMENT="" />
    <EXPORT ORDINAL="4839" NAME="?timerId@QBasicTimer@@QBEHXZ" PURGE="0" COMMENT="" />
    <EXPORT ORDINAL="4840" NAME="?timerId@QTimer@@QBEHXZ" PURGE="0" COMMENT="" />
    <EXPORT ORDINAL="4841" NAME="?timerId@QTimerEvent@@QBEHXZ" PURGE="0" COMMENT="" />
    <EXPORT ORDINAL="4842" NAME="?toAce@QUrl@@SA?AVQByteArray@@ABVQString@@@Z" PURGE="0" COMMENT="" />
    <EXPORT ORDINAL="4843" NAME="?toAlignedRect@QRectF@@QBE?AVQRect@@XZ" PURGE="4" COMMENT="" />
    <EXPORT ORDINAL="4844" NAME="?toAscii@QChar@@QBE?BDXZ" PURGE="0" COMMENT="" />
    <EXPORT ORDINAL="4845" NAME="?toAscii@QCharRef@@QBE?BDXZ" PURGE="0" COMMENT="" />
    <EXPORT ORDINAL="4846" NAME="?toAscii@QString@@QBE?AVQByteArray@@XZ" PURGE="4" COMMENT="" />
    <EXPORT ORDINAL="4847" NAME="?toAscii@QStringRef@@QBE?AVQByteArray@@XZ" PURGE="4" COMMENT="" />
    <EXPORT ORDINAL="4848" NAME="?toBase64@QByteArray@@QBE?AV1@XZ" PURGE="4" COMMENT="" />
    <EXPORT ORDINAL="4849" NAME="?toBitArray@QVariant@@QBE?AVQBitArray@@XZ" PURGE="4" COMMENT="" />
    <EXPORT ORDINAL="4850" NAME="?toBool@QVariant@@QBE_NXZ" PURGE="0" COMMENT="" />
    <EXPORT ORDINAL="4851" NAME="?toByteArray@QUuid@@QBE?AVQByteArray@@XZ" PURGE="4" COMMENT="" />
    <EXPORT ORDINAL="4852" NAME="?toByteArray@QVariant@@QBE?AVQByteArray@@XZ" PURGE="4" COMMENT="" />
    <EXPORT ORDINAL="4853" NAME="?toCString@QVariant@@QBE?BVQByteArray@@XZ" PURGE="4" COMMENT="" />
    <EXPORT ORDINAL="4854" NAME="?toCaseFolded@QChar@@QBE?AV1@XZ" PURGE="4" COMMENT="" />
    <EXPORT ORDINAL="4855" NAME="?toCaseFolded@QChar@@SIGG@Z" PURGE="0" COMMENT="" />
    <EXPORT ORDINAL="4856" NAME="?toCaseFolded@QChar@@SIII@Z" PURGE="0" COMMENT="" />
    <EXPORT ORDINAL="4857" NAME="?toCaseFolded@QString@@QBE?AV1@XZ" PURGE="4" COMMENT="" />
    <EXPORT ORDINAL="4858" NAME="?toChar@QVariant@@QBE?AVQChar@@XZ" PURGE="4" COMMENT="" />
    <EXPORT ORDINAL="4859" NAME="?toCurrencyString@QLocale@@QBE?AVQString@@FABV2@@Z" PURGE="12" COMMENT="" />
    <EXPORT ORDINAL="4860" NAME="?toCurrencyString@QLocale@@QBE?AVQString@@GABV2@@Z" PURGE="12" COMMENT="" />
    <EXPORT ORDINAL="4861" NAME="?toCurrencyString@QLocale@@QBE?AVQString@@HABV2@@Z" PURGE="12" COMMENT="" />
    <EXPORT ORDINAL="4862" NAME="?toCurrencyString@QLocale@@QBE?AVQString@@IABV2@@Z" PURGE="12" COMMENT="" />
    <EXPORT ORDINAL="4863" NAME="?toCurrencyString@QLocale@@QBE?AVQString@@MABV2@@Z" PURGE="12" COMMENT="" />
    <EXPORT ORDINAL="4864" NAME="?toCurrencyString@QLocale@@QBE?AVQString@@NABV2@@Z" PURGE="16" COMMENT="" />
    <EXPORT ORDINAL="4865" NAME="?toCurrencyString@QLocale@@QBE?AVQString@@_JABV2@@Z" PURGE="16" COMMENT="" />
    <EXPORT ORDINAL="4866" NAME="?toCurrencyString@QLocale@@QBE?AVQString@@_KABV2@@Z" PURGE="16" COMMENT="" />
    <EXPORT ORDINAL="4867" NAME="?toDate@QLocale@@QBE?AVQDate@@ABVQString@@0@Z" PURGE="12" COMMENT="" />
    <EXPORT ORDINAL="4868" NAME="?toDate@QLocale@@QBE?AVQDate@@ABVQString@@W4FormatType@1@@Z" PURGE="12" COMMENT="" />
    <EXPORT ORDINAL="4869" NAME="?toDate@QVariant@@QBE?AVQDate@@XZ" PURGE="4" COMMENT="" />
    <EXPORT ORDINAL="4870" NAME="?toDateTime@QLocale@@QBE?AVQDateTime@@ABVQString@@0@Z" PURGE="12" COMMENT="" />
    <EXPORT ORDINAL="4871" NAME="?toDateTime@QLocale@@QBE?AVQDateTime@@ABVQString@@W4FormatType@1@@Z" PURGE="12" COMMENT="" />
    <EXPORT ORDINAL="4872" NAME="?toDateTime@QVariant@@QBE?AVQDateTime@@XZ" PURGE="4" COMMENT="" />
    <EXPORT ORDINAL="4873" NAME="?toDouble@QByteArray@@QBENPA_N@Z" PURGE="4" COMMENT="" />
    <EXPORT ORDINAL="4874" NAME="?toDouble@QLocale@@QBENABVQString@@PA_N@Z" PURGE="8" COMMENT="" />
    <EXPORT ORDINAL="4875" NAME="?toDouble@QString@@QBENPA_N@Z" PURGE="4" COMMENT="" />
    <EXPORT ORDINAL="4876" NAME="?toDouble@QVariant@@QBENPA_N@Z" PURGE="4" COMMENT="" />
    <EXPORT ORDINAL="4877" NAME="?toEasingCurve@QVariant@@QBE?AVQEasingCurve@@XZ" PURGE="4" COMMENT="" />
    <EXPORT ORDINAL="4878" NAME="?toEncoded@QUrl@@QBE?AVQByteArray@@V?$QFlags@W4FormattingOption@QUrl@@@@@Z" PURGE="8" COMMENT="" />
    <EXPORT ORDINAL="4879" NAME="?toEnd@QTextBoundaryFinder@@QAEXXZ" PURGE="0" COMMENT="" />
    <EXPORT ORDINAL="4880" NAME="?toFinalState@QStateMachinePrivate@@SAPAVQFinalState@@PAVQAbstractState@@@Z" PURGE="0" COMMENT="" />
    <EXPORT ORDINAL="4881" NAME="?toFloat@QByteArray@@QBEMPA_N@Z" PURGE="4" COMMENT="" />
    <EXPORT ORDINAL="4882" NAME="?toFloat@QLocale@@QBEMABVQString@@PA_N@Z" PURGE="8" COMMENT="" />
    <EXPORT ORDINAL="4883" NAME="?toFloat@QString@@QBEMPA_N@Z" PURGE="4" COMMENT="" />
    <EXPORT ORDINAL="4884" NAME="?toFloat@QVariant@@QBEMPA_N@Z" PURGE="4" COMMENT="" />
    <EXPORT ORDINAL="4885" NAME="?toHash@QVariant@@QBE?AV?$QHash@VQString@@VQVariant@@@@XZ" PURGE="4" COMMENT="" />
    <EXPORT ORDINAL="4886" NAME="?toHex@QByteArray@@QBE?AV1@XZ" PURGE="4" COMMENT="" />
    <EXPORT ORDINAL="4887" NAME="?toHistoryState@QStateMachinePrivate@@SAPAVQHistoryState@@PAVQAbstractState@@@Z" PURGE="0" COMMENT="" />
    <EXPORT ORDINAL="4888" NAME="?toInt@QByteArray@@QBEHPA_NH@Z" PURGE="8" COMMENT="" />
    <EXPORT ORDINAL="4889" NAME="?toInt@QLocale@@QBEHABVQString@@PA_NH@Z" PURGE="12" COMMENT="" />
    <EXPORT ORDINAL="4890" NAME="?toInt@QString@@QBEHPA_NH@Z" PURGE="8" COMMENT="" />
    <EXPORT ORDINAL="4891" NAME="?toInt@QVariant@@QBEHPA_N@Z" PURGE="4" COMMENT="" />
    <EXPORT ORDINAL="4892" NAME="?toJulianDay@QDate@@QBEHXZ" PURGE="0" COMMENT="" />
    <EXPORT ORDINAL="4893" NAME="?toLatin1@QChar@@QBE?BDXZ" PURGE="0" COMMENT="" />
    <EXPORT ORDINAL="4894" NAME="?toLatin1@QCharRef@@QBE?BDXZ" PURGE="0" COMMENT="" />
    <EXPORT ORDINAL="4895" NAME="?toLatin1@QString@@QBE?AVQByteArray@@XZ" PURGE="4" COMMENT="" />
    <EXPORT ORDINAL="4896" NAME="?toLatin1@QStringRef@@QBE?AVQByteArray@@XZ" PURGE="4" COMMENT="" />
    <EXPORT ORDINAL="4897" NAME="?toLine@QLineF@@QBE?AVQLine@@XZ" PURGE="4" COMMENT="" />
    <EXPORT ORDINAL="4898" NAME="?toLine@QVariant@@QBE?AVQLine@@XZ" PURGE="4" COMMENT="" />
    <EXPORT ORDINAL="4899" NAME="?toLineF@QVariant@@QBE?AVQLineF@@XZ" PURGE="4" COMMENT="" />
    <EXPORT ORDINAL="4900" NAME="?toList@?$QVector@VQPoint@@@@QBE?AV?$QList@VQPoint@@@@XZ" PURGE="4" COMMENT="" />
    <EXPORT ORDINAL="4901" NAME="?toList@?$QVector@VQPointF@@@@QBE?AV?$QList@VQPointF@@@@XZ" PURGE="4" COMMENT="" />
    <EXPORT ORDINAL="4902" NAME="?toList@?$QVector@VQXmlStreamAttribute@@@@QBE?AV?$QList@VQXmlStreamAttribute@@@@XZ" PURGE="4" COMMENT="" />
    <EXPORT ORDINAL="4903" NAME="?toList@QVariant@@QBE?AV?$QList@VQVariant@@@@XZ" PURGE="4" COMMENT="" />
    <EXPORT ORDINAL="4904" NAME="?toLocal8Bit@QString@@QBE?AVQByteArray@@XZ" PURGE="4" COMMENT="" />
    <EXPORT ORDINAL="4905" NAME="?toLocal8Bit@QStringRef@@QBE?AVQByteArray@@XZ" PURGE="4" COMMENT="" />
    <EXPORT ORDINAL="4906" NAME="?toLocalFile@QUrl@@QBE?AVQString@@XZ" PURGE="4" COMMENT="" />
    <EXPORT ORDINAL="4907" NAME="?toLocalTime@QDateTime@@QBE?AV1@XZ" PURGE="4" COMMENT="" />
    <EXPORT ORDINAL="4908" NAME="?toLocale@QVariant@@QBE?AVQLocale@@XZ" PURGE="4" COMMENT="" />
    <EXPORT ORDINAL="4909" NAME="?toLong@QByteArray@@QBEJPA_NH@Z" PURGE="8" COMMENT="" />
    <EXPORT ORDINAL="4910" NAME="?toLong@QString@@QBEJPA_NH@Z" PURGE="8" COMMENT="" />
    <EXPORT ORDINAL="4911" NAME="?toLongLong@QByteArray@@QBE_JPA_NH@Z" PURGE="8" COMMENT="" />
    <EXPORT ORDINAL="4912" NAME="?toLongLong@QLocale@@QBE_JABVQString@@PA_NH@Z" PURGE="12" COMMENT="" />
    <EXPORT ORDINAL="4913" NAME="?toLongLong@QString@@QBE_JPA_NH@Z" PURGE="8" COMMENT="" />
    <EXPORT ORDINAL="4914" NAME="?toLongLong@QVariant@@QBE_JPA_N@Z" PURGE="4" COMMENT="" />
    <EXPORT ORDINAL="4915" NAME="?toLower@QByteArray@@QBE?AV1@XZ" PURGE="4" COMMENT="" />
    <EXPORT ORDINAL="4916" NAME="?toLower@QChar@@QBE?AV1@XZ" PURGE="4" COMMENT="" />
    <EXPORT ORDINAL="4917" NAME="?toLower@QChar@@SIGG@Z" PURGE="0" COMMENT="" />
    <EXPORT ORDINAL="4918" NAME="?toLower@QChar@@SIII@Z" PURGE="0" COMMENT="" />
    <EXPORT ORDINAL="4919" NAME="?toLower@QCharRef@@QBE?AVQChar@@XZ" PURGE="4" COMMENT="" />
    <EXPORT ORDINAL="4920" NAME="?toLower@QLocale@@QBE?AVQString@@ABV2@@Z" PURGE="8" COMMENT="" />
    <EXPORT ORDINAL="4921" NAME="?toLower@QString@@QBE?AV1@XZ" PURGE="4" COMMENT="" />
    <EXPORT ORDINAL="4922" NAME="?toMSecsSinceEpoch@QDateTime@@QBE_JXZ" PURGE="0" COMMENT="" />
