<?xml version="1.0" encoding="UTF-8"?>
<LIBRARY NAME="qtgui4.dll" PATH="/DLLArchive/etc/QTGui4.dll" DATE="Wed Mar 13 11:45:45 PDT 2013" VERSION="4.8.3.0">
    <EXPORT ORDINAL="1" NAME="??0?$QList@VQItemSelectionRange@@@@QAE@ABV0@@Z" PURGE="4" COMMENT="" />
    <EXPORT ORDINAL="2" NAME="??0?$QList@VQItemSelectionRange@@@@QAE@XZ" PURGE="0" COMMENT="" />
    <EXPORT ORDINAL="3" NAME="??0FileInfo@QZipReader@@QAE@ABU01@@Z" PURGE="4" COMMENT="" />
    <EXPORT ORDINAL="4" NAME="??0FileInfo@QZipReader@@QAE@XZ" PURGE="0" COMMENT="" />
    <EXPORT ORDINAL="5" NAME="??0Key@QPixmapCache@@QAE@ABV01@@Z" PURGE="4" COMMENT="" />
    <EXPORT ORDINAL="6" NAME="??0Key@QPixmapCache@@QAE@XZ" PURGE="0" COMMENT="" />
    <EXPORT ORDINAL="7" NAME="??0Parser@QCss@@QAE@ABV01@@Z" PURGE="4" COMMENT="" />
    <EXPORT ORDINAL="8" NAME="??0Parser@QCss@@QAE@ABVQString@@_N@Z" PURGE="8" COMMENT="" />
    <EXPORT ORDINAL="9" NAME="??0Parser@QCss@@QAE@XZ" PURGE="0" COMMENT="" />
    <EXPORT ORDINAL="10" NAME="??0QAbstractButton@@IAE@AAVQAbstractButtonPrivate@@PAVQWidget@@@Z" PURGE="8" COMMENT="" />
    <EXPORT ORDINAL="11" NAME="??0QAbstractButton@@QAE@PAVQWidget@@@Z" PURGE="4" COMMENT="" />
    <EXPORT ORDINAL="12" NAME="??0QAbstractButton@@QAE@PAVQWidget@@PBDV?$QFlags@W4WindowType@Qt@@@@@Z" PURGE="12" COMMENT="" />
    <EXPORT ORDINAL="13" NAME="??0QAbstractGraphicsShapeItem@@IAE@AAVQAbstractGraphicsShapeItemPrivate@@PAVQGraphicsItem@@PAVQGraphicsScene@@@Z" PURGE="12" COMMENT="" />
    <EXPORT ORDINAL="14" NAME="??0QAbstractGraphicsShapeItem@@QAE@PAVQGraphicsItem@@PAVQGraphicsScene@@@Z" PURGE="8" COMMENT="" />
    <EXPORT ORDINAL="15" NAME="??0QAbstractItemDelegate@@IAE@AAVQObjectPrivate@@PAVQObject@@@Z" PURGE="8" COMMENT="" />
    <EXPORT ORDINAL="16" NAME="??0QAbstractItemDelegate@@QAE@PAVQObject@@@Z" PURGE="4" COMMENT="" />
    <EXPORT ORDINAL="17" NAME="??0QAbstractItemView@@IAE@AAVQAbstractItemViewPrivate@@PAVQWidget@@@Z" PURGE="8" COMMENT="" />
    <EXPORT ORDINAL="18" NAME="??0QAbstractItemView@@QAE@PAVQWidget@@@Z" PURGE="4" COMMENT="" />
    <EXPORT ORDINAL="19" NAME="??0QAbstractPageSetupDialog@@QAE@AAVQAbstractPageSetupDialogPrivate@@PAVQPrinter@@PAVQWidget@@@Z" PURGE="12" COMMENT="" />
    <EXPORT ORDINAL="20" NAME="??0QAbstractPageSetupDialog@@QAE@PAVQPrinter@@PAVQWidget@@@Z" PURGE="8" COMMENT="" />
    <EXPORT ORDINAL="21" NAME="??0QAbstractPrintDialog@@IAE@AAVQAbstractPrintDialogPrivate@@PAVQPrinter@@PAVQWidget@@@Z" PURGE="12" COMMENT="" />
    <EXPORT ORDINAL="22" NAME="??0QAbstractPrintDialog@@QAE@PAVQPrinter@@PAVQWidget@@@Z" PURGE="8" COMMENT="" />
    <EXPORT ORDINAL="23" NAME="??0QAbstractProxyModel@@IAE@AAVQAbstractProxyModelPrivate@@PAVQObject@@@Z" PURGE="8" COMMENT="" />
    <EXPORT ORDINAL="24" NAME="??0QAbstractProxyModel@@QAE@PAVQObject@@@Z" PURGE="4" COMMENT="" />
    <EXPORT ORDINAL="25" NAME="??0QAbstractScrollArea@@IAE@AAVQAbstractScrollAreaPrivate@@PAVQWidget@@@Z" PURGE="8" COMMENT="" />
    <EXPORT ORDINAL="26" NAME="??0QAbstractScrollArea@@QAE@PAVQWidget@@@Z" PURGE="4" COMMENT="" />
    <EXPORT ORDINAL="27" NAME="??0QAbstractScrollAreaPrivate@@QAE@XZ" PURGE="0" COMMENT="" />
    <EXPORT ORDINAL="28" NAME="??0QAbstractSlider@@IAE@AAVQAbstractSliderPrivate@@PAVQWidget@@@Z" PURGE="8" COMMENT="" />
    <EXPORT ORDINAL="29" NAME="??0QAbstractSlider@@QAE@PAVQWidget@@@Z" PURGE="4" COMMENT="" />
    <EXPORT ORDINAL="30" NAME="??0QAbstractSpinBox@@IAE@AAVQAbstractSpinBoxPrivate@@PAVQWidget@@@Z" PURGE="8" COMMENT="" />
    <EXPORT ORDINAL="31" NAME="??0QAbstractSpinBox@@QAE@PAVQWidget@@@Z" PURGE="4" COMMENT="" />
    <EXPORT ORDINAL="32" NAME="??0QAbstractTextDocumentLayout@@IAE@AAVQAbstractTextDocumentLayoutPrivate@@PAVQTextDocument@@@Z" PURGE="8" COMMENT="" />
    <EXPORT ORDINAL="33" NAME="??0QAbstractTextDocumentLayout@@QAE@PAVQTextDocument@@@Z" PURGE="4" COMMENT="" />
    <EXPORT ORDINAL="34" NAME="??0QAbstractUndoItem@@QAE@ABV0@@Z" PURGE="4" COMMENT="" />
    <EXPORT ORDINAL="35" NAME="??0QAbstractUndoItem@@QAE@XZ" PURGE="0" COMMENT="" />
    <EXPORT ORDINAL="36" NAME="??0QAccessible2Interface@@QAE@ABV0@@Z" PURGE="4" COMMENT="" />
    <EXPORT ORDINAL="37" NAME="??0QAccessible2Interface@@QAE@XZ" PURGE="0" COMMENT="" />
    <EXPORT ORDINAL="38" NAME="??0QAccessibleActionInterface@@QAE@ABV0@@Z" PURGE="4" COMMENT="" />
    <EXPORT ORDINAL="39" NAME="??0QAccessibleActionInterface@@QAE@XZ" PURGE="0" COMMENT="" />
    <EXPORT ORDINAL="40" NAME="??0QAccessibleApplication@@QAE@XZ" PURGE="0" COMMENT="" />
    <EXPORT ORDINAL="41" NAME="??0QAccessibleEditableTextInterface@@QAE@ABV0@@Z" PURGE="4" COMMENT="" />
    <EXPORT ORDINAL="42" NAME="??0QAccessibleEditableTextInterface@@QAE@XZ" PURGE="0" COMMENT="" />
    <EXPORT ORDINAL="43" NAME="??0QAccessibleEvent@@QAE@ABV0@@Z" PURGE="4" COMMENT="" />
    <EXPORT ORDINAL="44" NAME="??0QAccessibleEvent@@QAE@W4Type@QEvent@@H@Z" PURGE="8" COMMENT="" />
    <EXPORT ORDINAL="45" NAME="??0QAccessibleFactoryInterface@@QAE@ABU0@@Z" PURGE="4" COMMENT="" />
    <EXPORT ORDINAL="46" NAME="??0QAccessibleFactoryInterface@@QAE@XZ" PURGE="0" COMMENT="" />
    <EXPORT ORDINAL="47" NAME="??0QAccessibleImageInterface@@QAE@ABV0@@Z" PURGE="4" COMMENT="" />
    <EXPORT ORDINAL="48" NAME="??0QAccessibleImageInterface@@QAE@XZ" PURGE="0" COMMENT="" />
    <EXPORT ORDINAL="49" NAME="??0QAccessibleInterface@@QAE@ABV0@@Z" PURGE="4" COMMENT="" />
    <EXPORT ORDINAL="50" NAME="??0QAccessibleInterface@@QAE@XZ" PURGE="0" COMMENT="" />
    <EXPORT ORDINAL="51" NAME="??0QAccessibleInterfaceEx@@QAE@ABV0@@Z" PURGE="4" COMMENT="" />
    <EXPORT ORDINAL="52" NAME="??0QAccessibleInterfaceEx@@QAE@XZ" PURGE="0" COMMENT="" />
    <EXPORT ORDINAL="53" NAME="??0QAccessibleObject@@QAE@PAVQObject@@@Z" PURGE="4" COMMENT="" />
    <EXPORT ORDINAL="54" NAME="??0QAccessibleObjectEx@@QAE@PAVQObject@@@Z" PURGE="4" COMMENT="" />
    <EXPORT ORDINAL="55" NAME="??0QAccessiblePlugin@@QAE@PAVQObject@@@Z" PURGE="4" COMMENT="" />
    <EXPORT ORDINAL="56" NAME="??0QAccessibleSimpleEditableTextInterface@@QAE@ABV0@@Z" PURGE="4" COMMENT="" />
    <EXPORT ORDINAL="57" NAME="??0QAccessibleSimpleEditableTextInterface@@QAE@PAVQAccessibleInterface@@@Z" PURGE="4" COMMENT="" />
    <EXPORT ORDINAL="58" NAME="??0QAccessibleTable2CellInterface@@QAE@ABV0@@Z" PURGE="4" COMMENT="" />
    <EXPORT ORDINAL="59" NAME="??0QAccessibleTable2CellInterface@@QAE@XZ" PURGE="0" COMMENT="" />
    <EXPORT ORDINAL="60" NAME="??0QAccessibleTable2Interface@@QAE@ABV0@@Z" PURGE="4" COMMENT="" />
    <EXPORT ORDINAL="61" NAME="??0QAccessibleTable2Interface@@QAE@XZ" PURGE="0" COMMENT="" />
    <EXPORT ORDINAL="62" NAME="??0QAccessibleTableInterface@@QAE@ABV0@@Z" PURGE="4" COMMENT="" />
    <EXPORT ORDINAL="63" NAME="??0QAccessibleTableInterface@@QAE@XZ" PURGE="0" COMMENT="" />
    <EXPORT ORDINAL="64" NAME="??0QAccessibleTextInterface@@QAE@ABV0@@Z" PURGE="4" COMMENT="" />
    <EXPORT ORDINAL="65" NAME="??0QAccessibleTextInterface@@QAE@XZ" PURGE="0" COMMENT="" />
    <EXPORT ORDINAL="66" NAME="??0QAccessibleValueInterface@@QAE@ABV0@@Z" PURGE="4" COMMENT="" />
    <EXPORT ORDINAL="67" NAME="??0QAccessibleValueInterface@@QAE@XZ" PURGE="0" COMMENT="" />
    <EXPORT ORDINAL="68" NAME="??0QAccessibleWidget@@QAE@PAVQWidget@@W4Role@QAccessible@@ABVQString@@@Z" PURGE="12" COMMENT="" />
    <EXPORT ORDINAL="69" NAME="??0QAccessibleWidgetEx@@QAE@PAVQWidget@@W4Role@QAccessible@@ABVQString@@@Z" PURGE="12" COMMENT="" />
    <EXPORT ORDINAL="70" NAME="??0QAction@@IAE@AAVQActionPrivate@@PAVQObject@@@Z" PURGE="8" COMMENT="" />
    <EXPORT ORDINAL="71" NAME="??0QAction@@QAE@ABVQIcon@@ABVQString@@ABVQKeySequence@@PAVQObject@@PBD@Z" PURGE="20" COMMENT="" />
    <EXPORT ORDINAL="72" NAME="??0QAction@@QAE@ABVQIcon@@ABVQString@@PAVQObject@@@Z" PURGE="12" COMMENT="" />
    <EXPORT ORDINAL="73" NAME="??0QAction@@QAE@ABVQString@@ABVQKeySequence@@PAVQObject@@PBD@Z" PURGE="16" COMMENT="" />
    <EXPORT ORDINAL="74" NAME="??0QAction@@QAE@ABVQString@@PAVQObject@@@Z" PURGE="8" COMMENT="" />
    <EXPORT ORDINAL="75" NAME="??0QAction@@QAE@PAVQObject@@@Z" PURGE="4" COMMENT="" />
    <EXPORT ORDINAL="76" NAME="??0QAction@@QAE@PAVQObject@@PBD@Z" PURGE="8" COMMENT="" />
    <EXPORT ORDINAL="77" NAME="??0QActionEvent@@QAE@ABV0@@Z" PURGE="4" COMMENT="" />
    <EXPORT ORDINAL="78" NAME="??0QActionEvent@@QAE@HPAVQAction@@0@Z" PURGE="12" COMMENT="" />
    <EXPORT ORDINAL="79" NAME="??0QActionGroup@@QAE@PAVQObject@@@Z" PURGE="4" COMMENT="" />
    <EXPORT ORDINAL="80" NAME="??0QApplication@@QAE@AAHPAPAD@Z" PURGE="8" COMMENT="" />
    <EXPORT ORDINAL="81" NAME="??0QApplication@@QAE@AAHPAPADH@Z" PURGE="12" COMMENT="" />
    <EXPORT ORDINAL="82" NAME="??0QApplication@@QAE@AAHPAPADW4Type@0@@Z" PURGE="12" COMMENT="" />
    <EXPORT ORDINAL="83" NAME="??0QApplication@@QAE@AAHPAPADW4Type@0@H@Z" PURGE="16" COMMENT="" />
    <EXPORT ORDINAL="84" NAME="??0QApplication@@QAE@AAHPAPAD_N@Z" PURGE="12" COMMENT="" />
    <EXPORT ORDINAL="85" NAME="??0QApplication@@QAE@AAHPAPAD_NH@Z" PURGE="16" COMMENT="" />
    <EXPORT ORDINAL="86" NAME="??0QApplicationPrivate@@QAE@AAHPAPADW4Type@QApplication@@H@Z" PURGE="16" COMMENT="" />
    <EXPORT ORDINAL="87" NAME="??0QBitmap@@QAE@ABV0@@Z" PURGE="4" COMMENT="" />
    <EXPORT ORDINAL="88" NAME="??0QBitmap@@QAE@ABVQImage@@@Z" PURGE="4" COMMENT="" />
    <EXPORT ORDINAL="89" NAME="??0QBitmap@@QAE@ABVQPixmap@@@Z" PURGE="4" COMMENT="" />
    <EXPORT ORDINAL="90" NAME="??0QBitmap@@QAE@ABVQSize@@@Z" PURGE="4" COMMENT="" />
    <EXPORT ORDINAL="91" NAME="??0QBitmap@@QAE@ABVQSize@@PBE_N@Z" PURGE="12" COMMENT="" />
    <EXPORT ORDINAL="92" NAME="??0QBitmap@@QAE@ABVQSize@@_N@Z" PURGE="8" COMMENT="" />
    <EXPORT ORDINAL="93" NAME="??0QBitmap@@QAE@ABVQString@@PBD@Z" PURGE="8" COMMENT="" />
    <EXPORT ORDINAL="94" NAME="??0QBitmap@@QAE@HH@Z" PURGE="8" COMMENT="" />
    <EXPORT ORDINAL="95" NAME="??0QBitmap@@QAE@HHPBE_N@Z" PURGE="16" COMMENT="" />
    <EXPORT ORDINAL="96" NAME="??0QBitmap@@QAE@HH_N@Z" PURGE="12" COMMENT="" />
    <EXPORT ORDINAL="97" NAME="??0QBitmap@@QAE@XZ" PURGE="0" COMMENT="" />
    <EXPORT ORDINAL="98" NAME="??0QBlittable@@QAE@ABV0@@Z" PURGE="4" COMMENT="" />
    <EXPORT ORDINAL="99" NAME="??0QBlittable@@QAE@ABVQSize@@V?$QFlags@W4Capability@QBlittable@@@@@Z" PURGE="8" COMMENT="" />
    <EXPORT ORDINAL="100" NAME="??0QBlittablePixmapData@@QAE@XZ" PURGE="0" COMMENT="" />
    <EXPORT ORDINAL="101" NAME="??0QBlitterPaintEngine@@QAE@PAVQBlittablePixmapData@@@Z" PURGE="4" COMMENT="" />
    <EXPORT ORDINAL="102" NAME="??0QBoxLayout@@QAE@PAVQLayout@@W4Direction@0@HPBD@Z" PURGE="16" COMMENT="" />
    <EXPORT ORDINAL="103" NAME="??0QBoxLayout@@QAE@PAVQWidget@@W4Direction@0@HHPBD@Z" PURGE="20" COMMENT="" />
    <EXPORT ORDINAL="104" NAME="??0QBoxLayout@@QAE@W4Direction@0@HPBD@Z" PURGE="12" COMMENT="" />
    <EXPORT ORDINAL="105" NAME="??0QBoxLayout@@QAE@W4Direction@0@PAVQWidget@@@Z" PURGE="8" COMMENT="" />
    <EXPORT ORDINAL="106" NAME="??0QBrush@@QAE@ABV0@@Z" PURGE="4" COMMENT="" />
    <EXPORT ORDINAL="107" NAME="??0QBrush@@QAE@ABVQColor@@ABVQPixmap@@@Z" PURGE="8" COMMENT="" />
    <EXPORT ORDINAL="108" NAME="??0QBrush@@QAE@ABVQColor@@W4BrushStyle@Qt@@@Z" PURGE="8" COMMENT="" />
    <EXPORT ORDINAL="109" NAME="??0QBrush@@QAE@ABVQGradient@@@Z" PURGE="4" COMMENT="" />
    <EXPORT ORDINAL="110" NAME="??0QBrush@@QAE@ABVQImage@@@Z" PURGE="4" COMMENT="" />
    <EXPORT ORDINAL="111" NAME="??0QBrush@@QAE@ABVQPixmap@@@Z" PURGE="4" COMMENT="" />
    <EXPORT ORDINAL="112" NAME="??0QBrush@@QAE@W4BrushStyle@Qt@@@Z" PURGE="4" COMMENT="" />
    <EXPORT ORDINAL="113" NAME="??0QBrush@@QAE@W4GlobalColor@Qt@@ABVQPixmap@@@Z" PURGE="8" COMMENT="" />
    <EXPORT ORDINAL="114" NAME="??0QBrush@@QAE@W4GlobalColor@Qt@@W4BrushStyle@2@@Z" PURGE="8" COMMENT="" />
    <EXPORT ORDINAL="115" NAME="??0QBrush@@QAE@XZ" PURGE="0" COMMENT="" />
    <EXPORT ORDINAL="116" NAME="??0QButtonGroup@@QAE@PAVQObject@@@Z" PURGE="4" COMMENT="" />
    <EXPORT ORDINAL="117" NAME="??0QCDEStyle@@QAE@_N@Z" PURGE="4" COMMENT="" />
    <EXPORT ORDINAL="118" NAME="??0QCalendarWidget@@QAE@PAVQWidget@@@Z" PURGE="4" COMMENT="" />
    <EXPORT ORDINAL="119" NAME="??0QCheckBox@@QAE@ABVQString@@PAVQWidget@@@Z" PURGE="8" COMMENT="" />
    <EXPORT ORDINAL="120" NAME="??0QCheckBox@@QAE@ABVQString@@PAVQWidget@@PBD@Z" PURGE="12" COMMENT="" />
    <EXPORT ORDINAL="121" NAME="??0QCheckBox@@QAE@PAVQWidget@@@Z" PURGE="4" COMMENT="" />
    <EXPORT ORDINAL="122" NAME="??0QCheckBox@@QAE@PAVQWidget@@PBD@Z" PURGE="8" COMMENT="" />
    <EXPORT ORDINAL="123" NAME="??0QCleanlooksStyle@@IAE@AAVQCleanlooksStylePrivate@@@Z" PURGE="4" COMMENT="" />
    <EXPORT ORDINAL="124" NAME="??0QCleanlooksStyle@@QAE@XZ" PURGE="0" COMMENT="" />
    <EXPORT ORDINAL="125" NAME="??0QClipboard@@AAE@PAVQObject@@@Z" PURGE="4" COMMENT="" />
    <EXPORT ORDINAL="126" NAME="??0QClipboardEvent@@QAE@ABV0@@Z" PURGE="4" COMMENT="" />
    <EXPORT ORDINAL="127" NAME="??0QClipboardEvent@@QAE@PAVQEventPrivate@@@Z" PURGE="4" COMMENT="" />
    <EXPORT ORDINAL="128" NAME="??0QCloseEvent@@QAE@ABV0@@Z" PURGE="4" COMMENT="" />
    <EXPORT ORDINAL="129" NAME="??0QCloseEvent@@QAE@XZ" PURGE="0" COMMENT="" />
    <EXPORT ORDINAL="130" NAME="??0QColor@@QAE@ABV0@@Z" PURGE="4" COMMENT="" />
    <EXPORT ORDINAL="131" NAME="??0QColor@@QAE@ABVQString@@@Z" PURGE="4" COMMENT="" />
    <EXPORT ORDINAL="132" NAME="??0QColor@@QAE@HHHH@Z" PURGE="16" COMMENT="" />
    <EXPORT ORDINAL="133" NAME="??0QColor@@QAE@HHHW4Spec@0@@Z" PURGE="16" COMMENT="" />
    <EXPORT ORDINAL="134" NAME="??0QColor@@QAE@I@Z" PURGE="4" COMMENT="" />
    <EXPORT ORDINAL="135" NAME="??0QColor@@QAE@PBD@Z" PURGE="4" COMMENT="" />
    <EXPORT ORDINAL="136" NAME="??0QColor@@QAE@W4GlobalColor@Qt@@@Z" PURGE="4" COMMENT="" />
    <EXPORT ORDINAL="137" NAME="??0QColor@@QAE@W4Spec@0@@Z" PURGE="4" COMMENT="" />
    <EXPORT ORDINAL="138" NAME="??0QColor@@QAE@XZ" PURGE="0" COMMENT="" />
    <EXPORT ORDINAL="139" NAME="??0QColorDialog@@AAE@PAVQWidget@@_N@Z" PURGE="8" COMMENT="" />
    <EXPORT ORDINAL="140" NAME="??0QColorDialog@@QAE@ABVQColor@@PAVQWidget@@@Z" PURGE="8" COMMENT="" />
    <EXPORT ORDINAL="141" NAME="??0QColorDialog@@QAE@PAVQWidget@@@Z" PURGE="4" COMMENT="" />
    <EXPORT ORDINAL="142" NAME="??0QColorGroup@@QAE@ABV0@@Z" PURGE="4" COMMENT="" />
    <EXPORT ORDINAL="143" NAME="??0QColorGroup@@QAE@ABVQBrush@@00000000@Z" PURGE="36" COMMENT="" />
    <EXPORT ORDINAL="144" NAME="??0QColorGroup@@QAE@ABVQColor@@000000@Z" PURGE="28" COMMENT="" />
    <EXPORT ORDINAL="145" NAME="??0QColorGroup@@QAE@ABVQPalette@@@Z" PURGE="4" COMMENT="" />
    <EXPORT ORDINAL="146" NAME="??0QColorGroup@@QAE@XZ" PURGE="0" COMMENT="" />
    <EXPORT ORDINAL="147" NAME="??0QColormap@@AAE@XZ" PURGE="0" COMMENT="" />
    <EXPORT ORDINAL="148" NAME="??0QColormap@@QAE@ABV0@@Z" PURGE="4" COMMENT="" />
    <EXPORT ORDINAL="149" NAME="??0QColumnView@@IAE@AAVQColumnViewPrivate@@PAVQWidget@@@Z" PURGE="8" COMMENT="" />
    <EXPORT ORDINAL="150" NAME="??0QColumnView@@QAE@PAVQWidget@@@Z" PURGE="4" COMMENT="" />
    <EXPORT ORDINAL="151" NAME="??0QComboBox@@IAE@AAVQComboBoxPrivate@@PAVQWidget@@@Z" PURGE="8" COMMENT="" />
    <EXPORT ORDINAL="152" NAME="??0QComboBox@@QAE@PAVQWidget@@@Z" PURGE="4" COMMENT="" />
    <EXPORT ORDINAL="153" NAME="??0QComboBox@@QAE@PAVQWidget@@PBD@Z" PURGE="8" COMMENT="" />
    <EXPORT ORDINAL="154" NAME="??0QComboBox@@QAE@_NPAVQWidget@@PBD@Z" PURGE="12" COMMENT="" />
    <EXPORT ORDINAL="155" NAME="??0QCommandLinkButton@@QAE@ABVQString@@0PAVQWidget@@@Z" PURGE="12" COMMENT="" />
    <EXPORT ORDINAL="156" NAME="??0QCommandLinkButton@@QAE@ABVQString@@PAVQWidget@@@Z" PURGE="8" COMMENT="" />
    <EXPORT ORDINAL="157" NAME="??0QCommandLinkButton@@QAE@PAVQWidget@@@Z" PURGE="4" COMMENT="" />
    <EXPORT ORDINAL="158" NAME="??0QCommonStyle@@IAE@AAVQCommonStylePrivate@@@Z" PURGE="4" COMMENT="" />
    <EXPORT ORDINAL="159" NAME="??0QCommonStyle@@QAE@XZ" PURGE="0" COMMENT="" />
    <EXPORT ORDINAL="160" NAME="??0QCompleter@@QAE@ABVQStringList@@PAVQObject@@@Z" PURGE="8" COMMENT="" />
    <EXPORT ORDINAL="161" NAME="??0QCompleter@@QAE@PAVQAbstractItemModel@@PAVQObject@@@Z" PURGE="8" COMMENT="" />
    <EXPORT ORDINAL="162" NAME="??0QCompleter@@QAE@PAVQObject@@@Z" PURGE="4" COMMENT="" />
    <EXPORT ORDINAL="163" NAME="??0QConicalGradient@@QAE@ABV0@@Z" PURGE="4" COMMENT="" />
    <EXPORT ORDINAL="164" NAME="??0QConicalGradient@@QAE@ABVQPointF@@N@Z" PURGE="12" COMMENT="" />
    <EXPORT ORDINAL="165" NAME="??0QConicalGradient@@QAE@NNN@Z" PURGE="24" COMMENT="" />
    <EXPORT ORDINAL="166" NAME="??0QConicalGradient@@QAE@XZ" PURGE="0" COMMENT="" />
    <EXPORT ORDINAL="167" NAME="??0QContextMenuEvent@@QAE@ABV0@@Z" PURGE="4" COMMENT="" />
    <EXPORT ORDINAL="168" NAME="??0QContextMenuEvent@@QAE@W4Reason@0@ABVQPoint@@1@Z" PURGE="12" COMMENT="" />
    <EXPORT ORDINAL="169" NAME="??0QContextMenuEvent@@QAE@W4Reason@0@ABVQPoint@@1H@Z" PURGE="16" COMMENT="" />
    <EXPORT ORDINAL="170" NAME="??0QContextMenuEvent@@QAE@W4Reason@0@ABVQPoint@@1V?$QFlags@W4KeyboardModifier@Qt@@@@@Z" PURGE="16" COMMENT="" />
    <EXPORT ORDINAL="171" NAME="??0QContextMenuEvent@@QAE@W4Reason@0@ABVQPoint@@@Z" PURGE="8" COMMENT="" />
    <EXPORT ORDINAL="172" NAME="??0QContextMenuEvent@@QAE@W4Reason@0@ABVQPoint@@H@Z" PURGE="12" COMMENT="" />
    <EXPORT ORDINAL="173" NAME="??0QCursor@@QAE@ABV0@@Z" PURGE="4" COMMENT="" />
    <EXPORT ORDINAL="174" NAME="??0QCursor@@QAE@ABVQBitmap@@0HH@Z" PURGE="16" COMMENT="" />
    <EXPORT ORDINAL="175" NAME="??0QCursor@@QAE@ABVQPixmap@@HH@Z" PURGE="12" COMMENT="" />
    <EXPORT ORDINAL="176" NAME="??0QCursor@@QAE@PAUHICON__@@@Z" PURGE="4" COMMENT="" />
    <EXPORT ORDINAL="177" NAME="??0QCursor@@QAE@W4CursorShape@Qt@@@Z" PURGE="4" COMMENT="" />
    <EXPORT ORDINAL="178" NAME="??0QCursor@@QAE@XZ" PURGE="0" COMMENT="" />
    <EXPORT ORDINAL="179" NAME="??0QDashStroker@@QAE@ABV0@@Z" PURGE="4" COMMENT="" />
    <EXPORT ORDINAL="180" NAME="??0QDashStroker@@QAE@PAVQStroker@@@Z" PURGE="4" COMMENT="" />
    <EXPORT ORDINAL="181" NAME="??0QDataWidgetMapper@@QAE@PAVQObject@@@Z" PURGE="4" COMMENT="" />
    <EXPORT ORDINAL="182" NAME="??0QDateEdit@@QAE@ABVQDate@@PAVQWidget@@@Z" PURGE="8" COMMENT="" />
    <EXPORT ORDINAL="183" NAME="??0QDateEdit@@QAE@PAVQWidget@@@Z" PURGE="4" COMMENT="" />
    <EXPORT ORDINAL="184" NAME="??0QDateTimeEdit@@IAE@ABVQVariant@@W4Type@1@PAVQWidget@@@Z" PURGE="12" COMMENT="" />
    <EXPORT ORDINAL="185" NAME="??0QDateTimeEdit@@QAE@ABVQDate@@PAVQWidget@@@Z" PURGE="8" COMMENT="" />
    <EXPORT ORDINAL="186" NAME="??0QDateTimeEdit@@QAE@ABVQDateTime@@PAVQWidget@@@Z" PURGE="8" COMMENT="" />
    <EXPORT ORDINAL="187" NAME="??0QDateTimeEdit@@QAE@ABVQTime@@PAVQWidget@@@Z" PURGE="8" COMMENT="" />
    <EXPORT ORDINAL="188" NAME="??0QDateTimeEdit@@QAE@PAVQWidget@@@Z" PURGE="4" COMMENT="" />
    <EXPORT ORDINAL="189" NAME="??0QDesktopWidget@@QAE@XZ" PURGE="0" COMMENT="" />
    <EXPORT ORDINAL="190" NAME="??0QDial@@QAE@HHHHPAVQWidget@@PBD@Z" PURGE="24" COMMENT="" />
    <EXPORT ORDINAL="191" NAME="??0QDial@@QAE@PAVQWidget@@@Z" PURGE="4" COMMENT="" />
    <EXPORT ORDINAL="192" NAME="??0QDial@@QAE@PAVQWidget@@PBD@Z" PURGE="8" COMMENT="" />
    <EXPORT ORDINAL="193" NAME="??0QDialog@@IAE@AAVQDialogPrivate@@PAVQWidget@@V?$QFlags@W4WindowType@Qt@@@@@Z" PURGE="12" COMMENT="" />
    <EXPORT ORDINAL="194" NAME="??0QDialog@@QAE@PAVQWidget@@PBD_NV?$QFlags@W4WindowType@Qt@@@@@Z" PURGE="16" COMMENT="" />
    <EXPORT ORDINAL="195" NAME="??0QDialog@@QAE@PAVQWidget@@V?$QFlags@W4WindowType@Qt@@@@@Z" PURGE="8" COMMENT="" />
    <EXPORT ORDINAL="196" NAME="??0QDialogButtonBox@@QAE@PAVQWidget@@@Z" PURGE="4" COMMENT="" />
    <EXPORT ORDINAL="197" NAME="??0QDialogButtonBox@@QAE@V?$QFlags@W4StandardButton@QDialogButtonBox@@@@W4Orientation@Qt@@PAVQWidget@@@Z" PURGE="12" COMMENT="" />
    <EXPORT ORDINAL="198" NAME="??0QDialogButtonBox@@QAE@W4Orientation@Qt@@PAVQWidget@@@Z" PURGE="8" COMMENT="" />
    <EXPORT ORDINAL="199" NAME="??0QDirModel@@IAE@AAVQDirModelPrivate@@PAVQObject@@@Z" PURGE="8" COMMENT="" />
    <EXPORT ORDINAL="200" NAME="??0QDirModel@@QAE@ABVQStringList@@V?$QFlags@W4Filter@QDir@@@@V?$QFlags@W4SortFlag@QDir@@@@PAVQObject@@@Z" PURGE="16" COMMENT="" />
    <EXPORT ORDINAL="201" NAME="??0QDirModel@@QAE@PAVQObject@@@Z" PURGE="4" COMMENT="" />
    <EXPORT ORDINAL="202" NAME="??0QDockWidget@@QAE@ABVQString@@PAVQWidget@@V?$QFlags@W4WindowType@Qt@@@@@Z" PURGE="12" COMMENT="" />
    <EXPORT ORDINAL="203" NAME="??0QDockWidget@@QAE@PAVQWidget@@V?$QFlags@W4WindowType@Qt@@@@@Z" PURGE="8" COMMENT="" />
    <EXPORT ORDINAL="204" NAME="??0QDockWidgetLayout@@QAE@PAVQWidget@@@Z" PURGE="4" COMMENT="" />
    <EXPORT ORDINAL="205" NAME="??0QDoubleSpinBox@@QAE@PAVQWidget@@@Z" PURGE="4" COMMENT="" />
    <EXPORT ORDINAL="206" NAME="??0QDoubleValidator@@QAE@NNHPAVQObject@@@Z" PURGE="24" COMMENT="" />
    <EXPORT ORDINAL="207" NAME="??0QDoubleValidator@@QAE@NNHPAVQObject@@PBD@Z" PURGE="28" COMMENT="" />
    <EXPORT ORDINAL="208" NAME="??0QDoubleValidator@@QAE@PAVQObject@@@Z" PURGE="4" COMMENT="" />
    <EXPORT ORDINAL="209" NAME="??0QDoubleValidator@@QAE@PAVQObject@@PBD@Z" PURGE="8" COMMENT="" />
    <EXPORT ORDINAL="210" NAME="??0QDrag@@QAE@PAVQWidget@@@Z" PURGE="4" COMMENT="" />
    <EXPORT ORDINAL="211" NAME="??0QDragEnterEvent@@QAE@ABV0@@Z" PURGE="4" COMMENT="" />
    <EXPORT ORDINAL="212" NAME="??0QDragEnterEvent@@QAE@ABVQPoint@@V?$QFlags@W4DropAction@Qt@@@@PBVQMimeData@@V?$QFlags@W4MouseButton@Qt@@@@V?$QFlags@W4KeyboardModifier@Qt@@@@@Z" PURGE="20" COMMENT="" />
    <EXPORT ORDINAL="213" NAME="??0QDragLeaveEvent@@QAE@ABV0@@Z" PURGE="4" COMMENT="" />
    <EXPORT ORDINAL="214" NAME="??0QDragLeaveEvent@@QAE@XZ" PURGE="0" COMMENT="" />
    <EXPORT ORDINAL="215" NAME="??0QDragMoveEvent@@QAE@ABV0@@Z" PURGE="4" COMMENT="" />
    <EXPORT ORDINAL="216" NAME="??0QDragMoveEvent@@QAE@ABVQPoint@@V?$QFlags@W4DropAction@Qt@@@@PBVQMimeData@@V?$QFlags@W4MouseButton@Qt@@@@V?$QFlags@W4KeyboardModifier@Qt@@@@W4Type@QEvent@@@Z" PURGE="24" COMMENT="" />
    <EXPORT ORDINAL="217" NAME="??0QDragResponseEvent@@QAE@ABV0@@Z" PURGE="4" COMMENT="" />
    <EXPORT ORDINAL="218" NAME="??0QDragResponseEvent@@QAE@_N@Z" PURGE="4" COMMENT="" />
    <EXPORT ORDINAL="219" NAME="??0QDropEvent@@QAE@ABV0@@Z" PURGE="4" COMMENT="" />
    <EXPORT ORDINAL="220" NAME="??0QDropEvent@@QAE@ABVQPoint@@V?$QFlags@W4DropAction@Qt@@@@PBVQMimeData@@V?$QFlags@W4MouseButton@Qt@@@@V?$QFlags@W4KeyboardModifier@Qt@@@@W4Type@QEvent@@@Z" PURGE="24" COMMENT="" />
    <EXPORT ORDINAL="221" NAME="??0QErrorMessage@@QAE@PAVQWidget@@@Z" PURGE="4" COMMENT="" />
    <EXPORT ORDINAL="222" NAME="??0QFileDialog@@IAE@ABUQFileDialogArgs@@@Z" PURGE="4" COMMENT="" />
    <EXPORT ORDINAL="223" NAME="??0QFileDialog@@QAE@PAVQWidget@@ABVQString@@11@Z" PURGE="16" COMMENT="" />
    <EXPORT ORDINAL="224" NAME="??0QFileDialog@@QAE@PAVQWidget@@V?$QFlags@W4WindowType@Qt@@@@@Z" PURGE="8" COMMENT="" />
    <EXPORT ORDINAL="225" NAME="??0QFileIconProvider@@QAE@XZ" PURGE="0" COMMENT="" />
    <EXPORT ORDINAL="226" NAME="??0QFileOpenEvent@@QAE@ABV0@@Z" PURGE="4" COMMENT="" />
    <EXPORT ORDINAL="227" NAME="??0QFileOpenEvent@@QAE@ABVQString@@@Z" PURGE="4" COMMENT="" />
    <EXPORT ORDINAL="228" NAME="??0QFileOpenEvent@@QAE@ABVQUrl@@@Z" PURGE="4" COMMENT="" />
    <EXPORT ORDINAL="229" NAME="??0QFileSystemModel@@IAE@AAVQFileSystemModelPrivate@@PAVQObject@@@Z" PURGE="8" COMMENT="" />
    <EXPORT ORDINAL="230" NAME="??0QFileSystemModel@@QAE@PAVQObject@@@Z" PURGE="4" COMMENT="" />
    <EXPORT ORDINAL="231" NAME="??0QFocusEvent@@QAE@ABV0@@Z" PURGE="4" COMMENT="" />
    <EXPORT ORDINAL="232" NAME="??0QFocusEvent@@QAE@W4Type@QEvent@@W4FocusReason@Qt@@@Z" PURGE="8" COMMENT="" />
    <EXPORT ORDINAL="233" NAME="??0QFocusFrame@@QAE@PAVQWidget@@@Z" PURGE="4" COMMENT="" />
    <EXPORT ORDINAL="234" NAME="??0QFont@@AAE@PAVQFontPrivate@@@Z" PURGE="4" COMMENT="" />
    <EXPORT ORDINAL="235" NAME="??0QFont@@QAE@ABV0@@Z" PURGE="4" COMMENT="" />
    <EXPORT ORDINAL="236" NAME="??0QFont@@QAE@ABV0@PAVQPaintDevice@@@Z" PURGE="8" COMMENT="" />
    <EXPORT ORDINAL="237" NAME="??0QFont@@QAE@ABVQString@@HH_N@Z" PURGE="16" COMMENT="" />
    <EXPORT ORDINAL="238" NAME="??0QFont@@QAE@XZ" PURGE="0" COMMENT="" />
    <EXPORT ORDINAL="239" NAME="??0QFontComboBox@@QAE@PAVQWidget@@@Z" PURGE="4" COMMENT="" />
    <EXPORT ORDINAL="240" NAME="??0QFontDatabase@@QAE@XZ" PURGE="0" COMMENT="" />
    <EXPORT ORDINAL="241" NAME="??0QFontDialog@@AAE@PAVQWidget@@_NV?$QFlags@W4WindowType@Qt@@@@@Z" PURGE="12" COMMENT="" />
    <EXPORT ORDINAL="242" NAME="??0QFontDialog@@QAE@ABVQFont@@PAVQWidget@@@Z" PURGE="8" COMMENT="" />
    <EXPORT ORDINAL="243" NAME="??0QFontDialog@@QAE@PAVQWidget@@@Z" PURGE="4" COMMENT="" />
    <EXPORT ORDINAL="244" NAME="??0QFontEngine@@QAE@XZ" PURGE="0" COMMENT="" />
    <EXPORT ORDINAL="245" NAME="??0QFontInfo@@QAE@ABV0@@Z" PURGE="4" COMMENT="" />
    <EXPORT ORDINAL="246" NAME="??0QFontInfo@@QAE@ABVQFont@@@Z" PURGE="4" COMMENT="" />
    <EXPORT ORDINAL="247" NAME="??0QFontMetrics@@QAE@ABV0@@Z" PURGE="4" COMMENT="" />
    <EXPORT ORDINAL="248" NAME="??0QFontMetrics@@QAE@ABVQFont@@@Z" PURGE="4" COMMENT="" />
    <EXPORT ORDINAL="249" NAME="??0QFontMetrics@@QAE@ABVQFont@@PAVQPaintDevice@@@Z" PURGE="8" COMMENT="" />
    <EXPORT ORDINAL="250" NAME="??0QFontMetricsF@@QAE@ABV0@@Z" PURGE="4" COMMENT="" />
    <EXPORT ORDINAL="251" NAME="??0QFontMetricsF@@QAE@ABVQFont@@@Z" PURGE="4" COMMENT="" />
    <EXPORT ORDINAL="252" NAME="??0QFontMetricsF@@QAE@ABVQFont@@PAVQPaintDevice@@@Z" PURGE="8" COMMENT="" />
    <EXPORT ORDINAL="253" NAME="??0QFontMetricsF@@QAE@ABVQFontMetrics@@@Z" PURGE="4" COMMENT="" />
    <EXPORT ORDINAL="254" NAME="??0QFontPrivate@@QAE@ABV0@@Z" PURGE="4" COMMENT="" />
    <EXPORT ORDINAL="255" NAME="??0QFontPrivate@@QAE@XZ" PURGE="0" COMMENT="" />
    <EXPORT ORDINAL="256" NAME="??0QFormLayout@@QAE@PAVQWidget@@@Z" PURGE="4" COMMENT="" />
    <EXPORT ORDINAL="257" NAME="??0QFrame@@IAE@AAVQFramePrivate@@PAVQWidget@@V?$QFlags@W4WindowType@Qt@@@@@Z" PURGE="12" COMMENT="" />
    <EXPORT ORDINAL="258" NAME="??0QFrame@@QAE@PAVQWidget@@PBDV?$QFlags@W4WindowType@Qt@@@@@Z" PURGE="12" COMMENT="" />
    <EXPORT ORDINAL="259" NAME="??0QFrame@@QAE@PAVQWidget@@V?$QFlags@W4WindowType@Qt@@@@@Z" PURGE="8" COMMENT="" />
    <EXPORT ORDINAL="260" NAME="??0QGesture@@IAE@AAVQGesturePrivate@@PAVQObject@@@Z" PURGE="8" COMMENT="" />
    <EXPORT ORDINAL="261" NAME="??0QGesture@@QAE@PAVQObject@@@Z" PURGE="4" COMMENT="" />
    <EXPORT ORDINAL="262" NAME="??0QGestureEvent@@QAE@ABV0@@Z" PURGE="4" COMMENT="" />
    <EXPORT ORDINAL="263" NAME="??0QGestureEvent@@QAE@ABV?$QList@PAVQGesture@@@@@Z" PURGE="4" COMMENT="" />
    <EXPORT ORDINAL="264" NAME="??0QGestureRecognizer@@QAE@ABV0@@Z" PURGE="4" COMMENT="" />
    <EXPORT ORDINAL="265" NAME="??0QGestureRecognizer@@QAE@XZ" PURGE="0" COMMENT="" />
    <EXPORT ORDINAL="266" NAME="??0QGlyphRun@@QAE@ABV0@@Z" PURGE="4" COMMENT="" />
    <EXPORT ORDINAL="267" NAME="??0QGlyphRun@@QAE@XZ" PURGE="0" COMMENT="" />
    <EXPORT ORDINAL="268" NAME="??0QGradient@@QAE@ABV0@@Z" PURGE="4" COMMENT="" />
    <EXPORT ORDINAL="269" NAME="??0QGradient@@QAE@XZ" PURGE="0" COMMENT="" />
    <EXPORT ORDINAL="270" NAME="??0QGraphicsAnchor@@AAE@PAVQGraphicsAnchorLayout@@@Z" PURGE="4" COMMENT="" />
    <EXPORT ORDINAL="271" NAME="??0QGraphicsAnchorLayout@@QAE@PAVQGraphicsLayoutItem@@@Z" PURGE="4" COMMENT="" />
    <EXPORT ORDINAL="272" NAME="??0QGraphicsBlurEffect@@QAE@PAVQObject@@@Z" PURGE="4" COMMENT="" />
    <EXPORT ORDINAL="273" NAME="??0QGraphicsColorizeEffect@@QAE@PAVQObject@@@Z" PURGE="4" COMMENT="" />
    <EXPORT ORDINAL="274" NAME="??0QGraphicsDropShadowEffect@@QAE@PAVQObject@@@Z" PURGE="4" COMMENT="" />
    <EXPORT ORDINAL="275" NAME="??0QGraphicsEffect@@IAE@AAVQGraphicsEffectPrivate@@PAVQObject@@@Z" PURGE="8" COMMENT="" />
    <EXPORT ORDINAL="276" NAME="??0QGraphicsEffect@@QAE@PAVQObject@@@Z" PURGE="4" COMMENT="" />
    <EXPORT ORDINAL="277" NAME="??0QGraphicsEffectPrivate@@QAE@ABV0@@Z" PURGE="4" COMMENT="" />
    <EXPORT ORDINAL="278" NAME="??0QGraphicsEffectPrivate@@QAE@XZ" PURGE="0" COMMENT="" />
    <EXPORT ORDINAL="279" NAME="??0QGraphicsEffectSource@@IAE@AAVQGraphicsEffectSourcePrivate@@PAVQObject@@@Z" PURGE="8" COMMENT="" />
    <EXPORT ORDINAL="280" NAME="??0QGraphicsEllipseItem@@QAE@ABVQRectF@@PAVQGraphicsItem@@PAVQGraphicsScene@@@Z" PURGE="12" COMMENT="" />
    <EXPORT ORDINAL="281" NAME="??0QGraphicsEllipseItem@@QAE@NNNNPAVQGraphicsItem@@PAVQGraphicsScene@@@Z" PURGE="40" COMMENT="" />
    <EXPORT ORDINAL="282" NAME="??0QGraphicsEllipseItem@@QAE@PAVQGraphicsItem@@PAVQGraphicsScene@@@Z" PURGE="8" COMMENT="" />
    <EXPORT ORDINAL="283" NAME="??0QGraphicsGridLayout@@QAE@PAVQGraphicsLayoutItem@@@Z" PURGE="4" COMMENT="" />
    <EXPORT ORDINAL="284" NAME="??0QGraphicsItem@@IAE@AAVQGraphicsItemPrivate@@PAV0@PAVQGraphicsScene@@@Z" PURGE="12" COMMENT="" />
    <EXPORT ORDINAL="285" NAME="??0QGraphicsItem@@QAE@PAV0@PAVQGraphicsScene@@@Z" PURGE="8" COMMENT="" />
    <EXPORT ORDINAL="286" NAME="??0QGraphicsItemAnimation@@QAE@PAVQObject@@@Z" PURGE="4" COMMENT="" />
    <EXPORT ORDINAL="287" NAME="??0QGraphicsItemGroup@@QAE@PAVQGraphicsItem@@PAVQGraphicsScene@@@Z" PURGE="8" COMMENT="" />
    <EXPORT ORDINAL="288" NAME="??0QGraphicsItemPrivate@@QAE@ABV0@@Z" PURGE="4" COMMENT="" />
    <EXPORT ORDINAL="289" NAME="??0QGraphicsItemPrivate@@QAE@XZ" PURGE="0" COMMENT="" />
    <EXPORT ORDINAL="290" NAME="??0QGraphicsLayout@@IAE@AAVQGraphicsLayoutPrivate@@PAVQGraphicsLayoutItem@@@Z" PURGE="8" COMMENT="" />
    <EXPORT ORDINAL="291" NAME="??0QGraphicsLayout@@QAE@PAVQGraphicsLayoutItem@@@Z" PURGE="4" COMMENT="" />
    <EXPORT ORDINAL="292" NAME="??0QGraphicsLayoutItem@@IAE@AAVQGraphicsLayoutItemPrivate@@@Z" PURGE="4" COMMENT="" />
    <EXPORT ORDINAL="293" NAME="??0QGraphicsLayoutItem@@QAE@PAV0@_N@Z" PURGE="8" COMMENT="" />
    <EXPORT ORDINAL="294" NAME="??0QGraphicsLineItem@@QAE@ABVQLineF@@PAVQGraphicsItem@@PAVQGraphicsScene@@@Z" PURGE="12" COMMENT="" />
    <EXPORT ORDINAL="295" NAME="??0QGraphicsLineItem@@QAE@NNNNPAVQGraphicsItem@@PAVQGraphicsScene@@@Z" PURGE="40" COMMENT="" />
    <EXPORT ORDINAL="296" NAME="??0QGraphicsLineItem@@QAE@PAVQGraphicsItem@@PAVQGraphicsScene@@@Z" PURGE="8" COMMENT="" />
    <EXPORT ORDINAL="297" NAME="??0QGraphicsLinearLayout@@QAE@PAVQGraphicsLayoutItem@@@Z" PURGE="4" COMMENT="" />
    <EXPORT ORDINAL="298" NAME="??0QGraphicsLinearLayout@@QAE@W4Orientation@Qt@@PAVQGraphicsLayoutItem@@@Z" PURGE="8" COMMENT="" />
    <EXPORT ORDINAL="299" NAME="??0QGraphicsObject@@IAE@AAVQGraphicsItemPrivate@@PAVQGraphicsItem@@PAVQGraphicsScene@@@Z" PURGE="12" COMMENT="" />
    <EXPORT ORDINAL="300" NAME="??0QGraphicsObject@@QAE@PAVQGraphicsItem@@@Z" PURGE="4" COMMENT="" />
    <EXPORT ORDINAL="301" NAME="??0QGraphicsOpacityEffect@@QAE@PAVQObject@@@Z" PURGE="4" COMMENT="" />
    <EXPORT ORDINAL="302" NAME="??0QGraphicsPathItem@@QAE@ABVQPainterPath@@PAVQGraphicsItem@@PAVQGraphicsScene@@@Z" PURGE="12" COMMENT="" />
    <EXPORT ORDINAL="303" NAME="??0QGraphicsPathItem@@QAE@PAVQGraphicsItem@@PAVQGraphicsScene@@@Z" PURGE="8" COMMENT="" />
    <EXPORT ORDINAL="304" NAME="??0QGraphicsPixmapItem@@QAE@ABVQPixmap@@PAVQGraphicsItem@@PAVQGraphicsScene@@@Z" PURGE="12" COMMENT="" />
    <EXPORT ORDINAL="305" NAME="??0QGraphicsPixmapItem@@QAE@PAVQGraphicsItem@@PAVQGraphicsScene@@@Z" PURGE="8" COMMENT="" />
    <EXPORT ORDINAL="306" NAME="??0QGraphicsPolygonItem@@QAE@ABVQPolygonF@@PAVQGraphicsItem@@PAVQGraphicsScene@@@Z" PURGE="12" COMMENT="" />
    <EXPORT ORDINAL="307" NAME="??0QGraphicsPolygonItem@@QAE@PAVQGraphicsItem@@PAVQGraphicsScene@@@Z" PURGE="8" COMMENT="" />
    <EXPORT ORDINAL="308" NAME="??0QGraphicsProxyWidget@@QAE@PAVQGraphicsItem@@V?$QFlags@W4WindowType@Qt@@@@@Z" PURGE="8" COMMENT="" />
    <EXPORT ORDINAL="309" NAME="??0QGraphicsRectItem@@QAE@ABVQRectF@@PAVQGraphicsItem@@PAVQGraphicsScene@@@Z" PURGE="12" COMMENT="" />
    <EXPORT ORDINAL="310" NAME="??0QGraphicsRectItem@@QAE@NNNNPAVQGraphicsItem@@PAVQGraphicsScene@@@Z" PURGE="40" COMMENT="" />
    <EXPORT ORDINAL="311" NAME="??0QGraphicsRectItem@@QAE@PAVQGraphicsItem@@PAVQGraphicsScene@@@Z" PURGE="8" COMMENT="" />
    <EXPORT ORDINAL="312" NAME="??0QGraphicsRotation@@QAE@PAVQObject@@@Z" PURGE="4" COMMENT="" />
    <EXPORT ORDINAL="313" NAME="??0QGraphicsScale@@QAE@PAVQObject@@@Z" PURGE="4" COMMENT="" />
    <EXPORT ORDINAL="314" NAME="??0QGraphicsScene@@QAE@ABVQRectF@@PAVQObject@@@Z" PURGE="8" COMMENT="" />
    <EXPORT ORDINAL="315" NAME="??0QGraphicsScene@@QAE@NNNNPAVQObject@@@Z" PURGE="36" COMMENT="" />
    <EXPORT ORDINAL="316" NAME="??0QGraphicsScene@@QAE@PAVQObject@@@Z" PURGE="4" COMMENT="" />
    <EXPORT ORDINAL="317" NAME="??0QGraphicsSceneContextMenuEvent@@QAE@W4Type@QEvent@@@Z" PURGE="4" COMMENT="" />
    <EXPORT ORDINAL="318" NAME="??0QGraphicsSceneDragDropEvent@@QAE@W4Type@QEvent@@@Z" PURGE="4" COMMENT="" />
    <EXPORT ORDINAL="319" NAME="??0QGraphicsSceneEvent@@IAE@AAVQGraphicsSceneEventPrivate@@W4Type@QEvent@@@Z" PURGE="8" COMMENT="" />
    <EXPORT ORDINAL="320" NAME="??0QGraphicsSceneEvent@@QAE@W4Type@QEvent@@@Z" PURGE="4" COMMENT="" />
    <EXPORT ORDINAL="321" NAME="??0QGraphicsSceneHelpEvent@@QAE@W4Type@QEvent@@@Z" PURGE="4" COMMENT="" />
    <EXPORT ORDINAL="322" NAME="??0QGraphicsSceneHoverEvent@@QAE@W4Type@QEvent@@@Z" PURGE="4" COMMENT="" />
    <EXPORT ORDINAL="323" NAME="??0QGraphicsSceneMouseEvent@@QAE@W4Type@QEvent@@@Z" PURGE="4" COMMENT="" />
    <EXPORT ORDINAL="324" NAME="??0QGraphicsSceneMoveEvent@@QAE@XZ" PURGE="0" COMMENT="" />
    <EXPORT ORDINAL="325" NAME="??0QGraphicsSceneResizeEvent@@QAE@XZ" PURGE="0" COMMENT="" />
    <EXPORT ORDINAL="326" NAME="??0QGraphicsSceneWheelEvent@@QAE@W4Type@QEvent@@@Z" PURGE="4" COMMENT="" />
    <EXPORT ORDINAL="327" NAME="??0QGraphicsSimpleTextItem@@QAE@ABVQString@@PAVQGraphicsItem@@PAVQGraphicsScene@@@Z" PURGE="12" COMMENT="" />
    <EXPORT ORDINAL="328" NAME="??0QGraphicsSimpleTextItem@@QAE@PAVQGraphicsItem@@PAVQGraphicsScene@@@Z" PURGE="8" COMMENT="" />
    <EXPORT ORDINAL="329" NAME="??0QGraphicsSystem@@QAE@ABV0@@Z" PURGE="4" COMMENT="" />
    <EXPORT ORDINAL="330" NAME="??0QGraphicsSystem@@QAE@XZ" PURGE="0" COMMENT="" />
    <EXPORT ORDINAL="331" NAME="??0QGraphicsSystemPlugin@@QAE@PAVQObject@@@Z" PURGE="4" COMMENT="" />
    <EXPORT ORDINAL="332" NAME="??0QGraphicsTextItem@@QAE@ABVQString@@PAVQGraphicsItem@@PAVQGraphicsScene@@@Z" PURGE="12" COMMENT="" />
    <EXPORT ORDINAL="333" NAME="??0QGraphicsTextItem@@QAE@PAVQGraphicsItem@@PAVQGraphicsScene@@@Z" PURGE="8" COMMENT="" />
    <EXPORT ORDINAL="334" NAME="??0QGraphicsTransform@@IAE@AAVQGraphicsTransformPrivate@@PAVQObject@@@Z" PURGE="8" COMMENT="" />
    <EXPORT ORDINAL="335" NAME="??0QGraphicsTransform@@QAE@PAVQObject@@@Z" PURGE="4" COMMENT="" />
    <EXPORT ORDINAL="336" NAME="??0QGraphicsView@@IAE@AAVQGraphicsViewPrivate@@PAVQWidget@@@Z" PURGE="8" COMMENT="" />
    <EXPORT ORDINAL="337" NAME="??0QGraphicsView@@QAE@PAVQGraphicsScene@@PAVQWidget@@@Z" PURGE="8" COMMENT="" />
    <EXPORT ORDINAL="338" NAME="??0QGraphicsView@@QAE@PAVQWidget@@@Z" PURGE="4" COMMENT="" />
    <EXPORT ORDINAL="339" NAME="??0QGraphicsViewPrivate@@QAE@XZ" PURGE="0" COMMENT="" />
    <EXPORT ORDINAL="340" NAME="??0QGraphicsWidget@@IAE@AAVQGraphicsWidgetPrivate@@PAVQGraphicsItem@@PAVQGraphicsScene@@V?$QFlags@W4WindowType@Qt@@@@@Z" PURGE="16" COMMENT="" />
    <EXPORT ORDINAL="341" NAME="??0QGraphicsWidget@@QAE@PAVQGraphicsItem@@V?$QFlags@W4WindowType@Qt@@@@@Z" PURGE="8" COMMENT="" />
    <EXPORT ORDINAL="342" NAME="??0QGridLayout@@QAE@HHHPBD@Z" PURGE="16" COMMENT="" />
    <EXPORT ORDINAL="343" NAME="??0QGridLayout@@QAE@PAVQLayout@@HHHPBD@Z" PURGE="20" COMMENT="" />
    <EXPORT ORDINAL="344" NAME="??0QGridLayout@@QAE@PAVQWidget@@@Z" PURGE="4" COMMENT="" />
    <EXPORT ORDINAL="345" NAME="??0QGridLayout@@QAE@PAVQWidget@@HHHHPBD@Z" PURGE="24" COMMENT="" />
    <EXPORT ORDINAL="346" NAME="??0QGridLayout@@QAE@XZ" PURGE="0" COMMENT="" />
    <EXPORT ORDINAL="347" NAME="??0QGroupBox@@QAE@ABVQString@@PAVQWidget@@@Z" PURGE="8" COMMENT="" />
    <EXPORT ORDINAL="348" NAME="??0QGroupBox@@QAE@ABVQString@@PAVQWidget@@PBD@Z" PURGE="12" COMMENT="" />
    <EXPORT ORDINAL="349" NAME="??0QGroupBox@@QAE@PAVQWidget@@@Z" PURGE="4" COMMENT="" />
    <EXPORT ORDINAL="350" NAME="??0QGroupBox@@QAE@PAVQWidget@@PBD@Z" PURGE="8" COMMENT="" />
    <EXPORT ORDINAL="351" NAME="??0QGuiPlatformPlugin@@QAE@PAVQObject@@@Z" PURGE="4" COMMENT="" />
    <EXPORT ORDINAL="352" NAME="??0QGuiPlatformPluginInterface@@QAE@ABU0@@Z" PURGE="4" COMMENT="" />
    <EXPORT ORDINAL="353" NAME="??0QGuiPlatformPluginInterface@@QAE@XZ" PURGE="0" COMMENT="" />
    <EXPORT ORDINAL="354" NAME="??0QHBoxLayout@@QAE@HPBD@Z" PURGE="8" COMMENT="" />
    <EXPORT ORDINAL="355" NAME="??0QHBoxLayout@@QAE@PAVQLayout@@HPBD@Z" PURGE="12" COMMENT="" />
    <EXPORT ORDINAL="356" NAME="??0QHBoxLayout@@QAE@PAVQWidget@@@Z" PURGE="4" COMMENT="" />
    <EXPORT ORDINAL="357" NAME="??0QHBoxLayout@@QAE@PAVQWidget@@HHPBD@Z" PURGE="16" COMMENT="" />
    <EXPORT ORDINAL="358" NAME="??0QHBoxLayout@@QAE@XZ" PURGE="0" COMMENT="" />
    <EXPORT ORDINAL="359" NAME="??0QHeaderView@@IAE@AAVQHeaderViewPrivate@@W4Orientation@Qt@@PAVQWidget@@@Z" PURGE="12" COMMENT="" />
    <EXPORT ORDINAL="360" NAME="??0QHeaderView@@QAE@W4Orientation@Qt@@PAVQWidget@@@Z" PURGE="8" COMMENT="" />
    <EXPORT ORDINAL="361" NAME="??0QHelpEvent@@QAE@ABV0@@Z" PURGE="4" COMMENT="" />
    <EXPORT ORDINAL="362" NAME="??0QHelpEvent@@QAE@W4Type@QEvent@@ABVQPoint@@1@Z" PURGE="12" COMMENT="" />
    <EXPORT ORDINAL="363" NAME="??0QHideEvent@@QAE@ABV0@@Z" PURGE="4" COMMENT="" />
    <EXPORT ORDINAL="364" NAME="??0QHideEvent@@QAE@XZ" PURGE="0" COMMENT="" />
    <EXPORT ORDINAL="365" NAME="??0QHoverEvent@@QAE@ABV0@@Z" PURGE="4" COMMENT="" />
    <EXPORT ORDINAL="366" NAME="??0QHoverEvent@@QAE@W4Type@QEvent@@ABVQPoint@@1@Z" PURGE="12" COMMENT="" />
    <EXPORT ORDINAL="367" NAME="??0QIcon@@QAE@ABV0@@Z" PURGE="4" COMMENT="" />
    <EXPORT ORDINAL="368" NAME="??0QIcon@@QAE@ABVQPixmap@@@Z" PURGE="4" COMMENT="" />
    <EXPORT ORDINAL="369" NAME="??0QIcon@@QAE@ABVQString@@@Z" PURGE="4" COMMENT="" />
    <EXPORT ORDINAL="370" NAME="??0QIcon@@QAE@PAVQIconEngine@@@Z" PURGE="4" COMMENT="" />
    <EXPORT ORDINAL="371" NAME="??0QIcon@@QAE@PAVQIconEngineV2@@@Z" PURGE="4" COMMENT="" />
    <EXPORT ORDINAL="372" NAME="??0QIcon@@QAE@XZ" PURGE="0" COMMENT="" />
    <EXPORT ORDINAL="373" NAME="??0QIconDragEvent@@QAE@ABV0@@Z" PURGE="4" COMMENT="" />
    <EXPORT ORDINAL="374" NAME="??0QIconDragEvent@@QAE@XZ" PURGE="0" COMMENT="" />
    <EXPORT ORDINAL="375" NAME="??0QIconEngine@@QAE@ABV0@@Z" PURGE="4" COMMENT="" />
    <EXPORT ORDINAL="376" NAME="??0QIconEngine@@QAE@XZ" PURGE="0" COMMENT="" />
    <EXPORT ORDINAL="377" NAME="??0QIconEngineFactoryInterface@@QAE@ABU0@@Z" PURGE="4" COMMENT="" />
    <EXPORT ORDINAL="378" NAME="??0QIconEngineFactoryInterface@@QAE@XZ" PURGE="0" COMMENT="" />
    <EXPORT ORDINAL="379" NAME="??0QIconEngineFactoryInterfaceV2@@QAE@ABU0@@Z" PURGE="4" COMMENT="" />
    <EXPORT ORDINAL="380" NAME="??0QIconEngineFactoryInterfaceV2@@QAE@XZ" PURGE="0" COMMENT="" />
    <EXPORT ORDINAL="381" NAME="??0QIconEnginePlugin@@QAE@PAVQObject@@@Z" PURGE="4" COMMENT="" />
    <EXPORT ORDINAL="382" NAME="??0QIconEnginePluginV2@@QAE@PAVQObject@@@Z" PURGE="4" COMMENT="" />
    <EXPORT ORDINAL="383" NAME="??0QIconEngineV2@@QAE@ABV0@@Z" PURGE="4" COMMENT="" />
    <EXPORT ORDINAL="384" NAME="??0QIconEngineV2@@QAE@XZ" PURGE="0" COMMENT="" />
    <EXPORT ORDINAL="385" NAME="??0QIdentityProxyModel@@IAE@AAVQIdentityProxyModelPrivate@@PAVQObject@@@Z" PURGE="8" COMMENT="" />
    <EXPORT ORDINAL="386" NAME="??0QIdentityProxyModel@@QAE@PAVQObject@@@Z" PURGE="4" COMMENT="" />
    <EXPORT ORDINAL="387" NAME="??0QImage@@QAE@ABV0@@Z" PURGE="4" COMMENT="" />
    <EXPORT ORDINAL="388" NAME="??0QImage@@QAE@ABVQByteArray@@@Z" PURGE="4" COMMENT="" />
    <EXPORT ORDINAL="389" NAME="??0QImage@@QAE@ABVQSize@@HHW4Endian@0@@Z" PURGE="16" COMMENT="" />
    <EXPORT ORDINAL="390" NAME="??0QImage@@QAE@ABVQSize@@W4Format@0@@Z" PURGE="8" COMMENT="" />
    <EXPORT ORDINAL="391" NAME="??0QImage@@QAE@ABVQString@@PBD@Z" PURGE="8" COMMENT="" />
    <EXPORT ORDINAL="392" NAME="??0QImage@@QAE@HHHHW4Endian@0@@Z" PURGE="20" COMMENT="" />
    <EXPORT ORDINAL="393" NAME="??0QImage@@QAE@HHW4Format@0@@Z" PURGE="12" COMMENT="" />
    <EXPORT ORDINAL="394" NAME="??0QImage@@QAE@PAEHHHPBIHW4Endian@0@@Z" PURGE="28" COMMENT="" />
    <EXPORT ORDINAL="395" NAME="??0QImage@@QAE@PAEHHHW4Format@0@@Z" PURGE="20" COMMENT="" />
    <EXPORT ORDINAL="396" NAME="??0QImage@@QAE@PAEHHW4Format@0@@Z" PURGE="16" COMMENT="" />
    <EXPORT ORDINAL="397" NAME="??0QImage@@QAE@PBD0@Z" PURGE="8" COMMENT="" />
    <EXPORT ORDINAL="398" NAME="??0QImage@@QAE@PBEHHHW4Format@0@@Z" PURGE="20" COMMENT="" />
    <EXPORT ORDINAL="399" NAME="??0QImage@@QAE@PBEHHW4Format@0@@Z" PURGE="16" COMMENT="" />
    <EXPORT ORDINAL="400" NAME="??0QImage@@QAE@QBQBD@Z" PURGE="4" COMMENT="" />
    <EXPORT ORDINAL="401" NAME="??0QImage@@QAE@XZ" PURGE="0" COMMENT="" />
    <EXPORT ORDINAL="402" NAME="??0QImageData@@QAE@ABU0@@Z" PURGE="4" COMMENT="" />
    <EXPORT ORDINAL="403" NAME="??0QImageData@@QAE@XZ" PURGE="0" COMMENT="" />
    <EXPORT ORDINAL="404" NAME="??0QImageIOHandler@@IAE@AAVQImageIOHandlerPrivate@@@Z" PURGE="4" COMMENT="" />
    <EXPORT ORDINAL="405" NAME="??0QImageIOHandler@@QAE@XZ" PURGE="0" COMMENT="" />
    <EXPORT ORDINAL="406" NAME="??0QImageIOHandlerFactoryInterface@@QAE@ABU0@@Z" PURGE="4" COMMENT="" />
    <EXPORT ORDINAL="407" NAME="??0QImageIOHandlerFactoryInterface@@QAE@XZ" PURGE="0" COMMENT="" />
    <EXPORT ORDINAL="408" NAME="??0QImageIOPlugin@@QAE@PAVQObject@@@Z" PURGE="4" COMMENT="" />
    <EXPORT ORDINAL="409" NAME="??0QImagePixmapCleanupHooks@@QAE@ABV0@@Z" PURGE="4" COMMENT="" />
    <EXPORT ORDINAL="410" NAME="??0QImagePixmapCleanupHooks@@QAE@XZ" PURGE="0" COMMENT="" />
    <EXPORT ORDINAL="411" NAME="??0QImageReader@@QAE@ABVQString@@ABVQByteArray@@@Z" PURGE="8" COMMENT="" />
    <EXPORT ORDINAL="412" NAME="??0QImageReader@@QAE@PAVQIODevice@@ABVQByteArray@@@Z" PURGE="8" COMMENT="" />
    <EXPORT ORDINAL="413" NAME="??0QImageReader@@QAE@XZ" PURGE="0" COMMENT="" />
    <EXPORT ORDINAL="414" NAME="??0QImageTextKeyLang@@QAE@ABV0@@Z" PURGE="4" COMMENT="" />
    <EXPORT ORDINAL="415" NAME="??0QImageTextKeyLang@@QAE@PBD0@Z" PURGE="8" COMMENT="" />
    <EXPORT ORDINAL="416" NAME="??0QImageTextKeyLang@@QAE@XZ" PURGE="0" COMMENT="" />
    <EXPORT ORDINAL="417" NAME="??0QImageTextureGlyphCache@@QAE@ABV0@@Z" PURGE="4" COMMENT="" />
    <EXPORT ORDINAL="418" NAME="??0QImageTextureGlyphCache@@QAE@W4Type@QFontEngineGlyphCache@@ABVQTransform@@@Z" PURGE="8" COMMENT="" />
    <EXPORT ORDINAL="419" NAME="??0QImageWriter@@QAE@ABVQString@@ABVQByteArray@@@Z" PURGE="8" COMMENT="" />
    <EXPORT ORDINAL="420" NAME="??0QImageWriter@@QAE@PAVQIODevice@@ABVQByteArray@@@Z" PURGE="8" COMMENT="" />
    <EXPORT ORDINAL="421" NAME="??0QImageWriter@@QAE@XZ" PURGE="0" COMMENT="" />
    <EXPORT ORDINAL="422" NAME="??0QInputContext@@QAE@PAVQObject@@@Z" PURGE="4" COMMENT="" />
    <EXPORT ORDINAL="423" NAME="??0QInputContextFactoryInterface@@QAE@ABU0@@Z" PURGE="4" COMMENT="" />
    <EXPORT ORDINAL="424" NAME="??0QInputContextFactoryInterface@@QAE@XZ" PURGE="0" COMMENT="" />
    <EXPORT ORDINAL="425" NAME="??0QInputContextPlugin@@QAE@PAVQObject@@@Z" PURGE="4" COMMENT="" />
    <EXPORT ORDINAL="426" NAME="??0QInputDialog@@AAE@ABVQString@@0PAVQWidget@@1V?$QFlags@W4WindowType@Qt@@@@@Z" PURGE="20" COMMENT="" />
    <EXPORT ORDINAL="427" NAME="??0QInputDialog@@AAE@ABVQString@@PAVQWidget@@W4Type@0@V?$QFlags@W4WindowType@Qt@@@@@Z" PURGE="16" COMMENT="" />
    <EXPORT ORDINAL="428" NAME="??0QInputDialog@@QAE@PAVQWidget@@V?$QFlags@W4WindowType@Qt@@@@@Z" PURGE="8" COMMENT="" />
    <EXPORT ORDINAL="429" NAME="??0QInputEvent@@QAE@ABV0@@Z" PURGE="4" COMMENT="" />
    <EXPORT ORDINAL="430" NAME="??0QInputEvent@@QAE@W4Type@QEvent@@V?$QFlags@W4KeyboardModifier@Qt@@@@@Z" PURGE="8" COMMENT="" />
    <EXPORT ORDINAL="431" NAME="??0QInputMethodEvent@@QAE@ABV0@@Z" PURGE="4" COMMENT="" />
    <EXPORT ORDINAL="432" NAME="??0QInputMethodEvent@@QAE@ABVQString@@ABV?$QList@VAttribute@QInputMethodEvent@@@@@Z" PURGE="8" COMMENT="" />
    <EXPORT ORDINAL="433" NAME="??0QInputMethodEvent@@QAE@XZ" PURGE="0" COMMENT="" />
    <EXPORT ORDINAL="434" NAME="??0QIntValidator@@QAE@HHPAVQObject@@@Z" PURGE="12" COMMENT="" />
    <EXPORT ORDINAL="435" NAME="??0QIntValidator@@QAE@HHPAVQObject@@PBD@Z" PURGE="16" COMMENT="" />
    <EXPORT ORDINAL="436" NAME="??0QIntValidator@@QAE@PAVQObject@@@Z" PURGE="4" COMMENT="" />
    <EXPORT ORDINAL="437" NAME="??0QIntValidator@@QAE@PAVQObject@@PBD@Z" PURGE="8" COMMENT="" />
    <EXPORT ORDINAL="438" NAME="??0QInternalMimeData@@QAE@XZ" PURGE="0" COMMENT="" />
    <EXPORT ORDINAL="439" NAME="??0QItemDelegate@@QAE@PAVQObject@@@Z" PURGE="4" COMMENT="" />
    <EXPORT ORDINAL="440" NAME="??0QItemEditorCreatorBase@@QAE@ABV0@@Z" PURGE="4" COMMENT="" />
    <EXPORT ORDINAL="441" NAME="??0QItemEditorCreatorBase@@QAE@XZ" PURGE="0" COMMENT="" />
    <EXPORT ORDINAL="442" NAME="??0QItemEditorFactory@@QAE@ABV0@@Z" PURGE="4" COMMENT="" />
    <EXPORT ORDINAL="443" NAME="??0QItemEditorFactory@@QAE@XZ" PURGE="0" COMMENT="" />
    <EXPORT ORDINAL="444" NAME="??0QItemSelection@@QAE@ABV0@@Z" PURGE="4" COMMENT="" />
    <EXPORT ORDINAL="445" NAME="??0QItemSelection@@QAE@ABVQModelIndex@@0@Z" PURGE="8" COMMENT="" />
    <EXPORT ORDINAL="446" NAME="??0QItemSelection@@QAE@XZ" PURGE="0" COMMENT="" />
    <EXPORT ORDINAL="447" NAME="??0QItemSelectionModel@@IAE@AAVQItemSelectionModelPrivate@@PAVQAbstractItemModel@@@Z" PURGE="8" COMMENT="" />
    <EXPORT ORDINAL="448" NAME="??0QItemSelectionModel@@QAE@PAVQAbstractItemModel@@@Z" PURGE="4" COMMENT="" />
    <EXPORT ORDINAL="449" NAME="??0QItemSelectionModel@@QAE@PAVQAbstractItemModel@@PAVQObject@@@Z" PURGE="8" COMMENT="" />
    <EXPORT ORDINAL="450" NAME="??0QItemSelectionRange@@QAE@ABV0@@Z" PURGE="4" COMMENT="" />
    <EXPORT ORDINAL="451" NAME="??0QItemSelectionRange@@QAE@ABVQModelIndex@@0@Z" PURGE="8" COMMENT="" />
    <EXPORT ORDINAL="452" NAME="??0QItemSelectionRange@@QAE@ABVQModelIndex@@@Z" PURGE="4" COMMENT="" />
    <EXPORT ORDINAL="453" NAME="??0QItemSelectionRange@@QAE@XZ" PURGE="0" COMMENT="" />
    <EXPORT ORDINAL="454" NAME="??0QKeyEvent@@QAE@ABV0@@Z" PURGE="4" COMMENT="" />
    <EXPORT ORDINAL="455" NAME="??0QKeyEvent@@QAE@W4Type@QEvent@@HHHABVQString@@_NG@Z" PURGE="28" COMMENT="" />
    <EXPORT ORDINAL="456" NAME="??0QKeyEvent@@QAE@W4Type@QEvent@@HV?$QFlags@W4KeyboardModifier@Qt@@@@ABVQString@@_NG@Z" PURGE="24" COMMENT="" />
    <EXPORT ORDINAL="457" NAME="??0QKeyEventTransition@@QAE@PAVQObject@@W4Type@QEvent@@HPAVQState@@@Z" PURGE="16" COMMENT="" />
    <EXPORT ORDINAL="458" NAME="??0QKeyEventTransition@@QAE@PAVQState@@@Z" PURGE="4" COMMENT="" />
    <EXPORT ORDINAL="459" NAME="??0QKeySequence@@QAE@ABV0@@Z" PURGE="4" COMMENT="" />
    <EXPORT ORDINAL="460" NAME="??0QKeySequence@@QAE@ABVQString@@@Z" PURGE="4" COMMENT="" />
    <EXPORT ORDINAL="461" NAME="??0QKeySequence@@QAE@ABVQString@@W4SequenceFormat@0@@Z" PURGE="8" COMMENT="" />
    <EXPORT ORDINAL="462" NAME="??0QKeySequence@@QAE@HHHH@Z" PURGE="16" COMMENT="" />
    <EXPORT ORDINAL="463" NAME="??0QKeySequence@@QAE@W4StandardKey@0@@Z" PURGE="4" COMMENT="" />
    <EXPORT ORDINAL="464" NAME="??0QKeySequence@@QAE@XZ" PURGE="0" COMMENT="" />
    <EXPORT ORDINAL="465" NAME="??0QLCDNumber@@QAE@IPAVQWidget@@@Z" PURGE="8" COMMENT="" />
    <EXPORT ORDINAL="466" NAME="??0QLCDNumber@@QAE@IPAVQWidget@@PBD@Z" PURGE="12" COMMENT="" />
    <EXPORT ORDINAL="467" NAME="??0QLCDNumber@@QAE@PAVQWidget@@@Z" PURGE="4" COMMENT="" />
    <EXPORT ORDINAL="468" NAME="??0QLCDNumber@@QAE@PAVQWidget@@PBD@Z" PURGE="8" COMMENT="" />
    <EXPORT ORDINAL="469" NAME="??0QLabel@@QAE@ABVQString@@PAVQWidget@@PBDV?$QFlags@W4WindowType@Qt@@@@@Z" PURGE="16" COMMENT="" />
    <EXPORT ORDINAL="470" NAME="??0QLabel@@QAE@ABVQString@@PAVQWidget@@V?$QFlags@W4WindowType@Qt@@@@@Z" PURGE="12" COMMENT="" />
    <EXPORT ORDINAL="471" NAME="??0QLabel@@QAE@PAVQWidget@@ABVQString@@0PBDV?$QFlags@W4WindowType@Qt@@@@@Z" PURGE="20" COMMENT="" />
    <EXPORT ORDINAL="472" NAME="??0QLabel@@QAE@PAVQWidget@@PBDV?$QFlags@W4WindowType@Qt@@@@@Z" PURGE="12" COMMENT="" />
    <EXPORT ORDINAL="473" NAME="??0QLabel@@QAE@PAVQWidget@@V?$QFlags@W4WindowType@Qt@@@@@Z" PURGE="8" COMMENT="" />
    <EXPORT ORDINAL="474" NAME="??0QLayout@@IAE@AAVQLayoutPrivate@@PAV0@PAVQWidget@@@Z" PURGE="12" COMMENT="" />
    <EXPORT ORDINAL="475" NAME="??0QLayout@@QAE@HPBD@Z" PURGE="8" COMMENT="" />
    <EXPORT ORDINAL="476" NAME="??0QLayout@@QAE@PAV0@HPBD@Z" PURGE="12" COMMENT="" />
    <EXPORT ORDINAL="477" NAME="??0QLayout@@QAE@PAVQWidget@@@Z" PURGE="4" COMMENT="" />
    <EXPORT ORDINAL="478" NAME="??0QLayout@@QAE@PAVQWidget@@HHPBD@Z" PURGE="16" COMMENT="" />
    <EXPORT ORDINAL="479" NAME="??0QLayout@@QAE@XZ" PURGE="0" COMMENT="" />
    <EXPORT ORDINAL="480" NAME="??0QLayoutItem@@QAE@ABV0@@Z" PURGE="4" COMMENT="" />
    <EXPORT ORDINAL="481" NAME="??0QLayoutItem@@QAE@V?$QFlags@W4AlignmentFlag@Qt@@@@@Z" PURGE="4" COMMENT="" />
    <EXPORT ORDINAL="482" NAME="??0QLayoutIterator@@AAE@PAVQLayout@@_N@Z" PURGE="8" COMMENT="" />
    <EXPORT ORDINAL="483" NAME="??0QLayoutIterator@@QAE@ABV0@@Z" PURGE="4" COMMENT="" />
    <EXPORT ORDINAL="484" NAME="??0QLayoutIterator@@QAE@PAVQLayout@@@Z" PURGE="4" COMMENT="" />
    <EXPORT ORDINAL="485" NAME="??0QLayoutPrivate@@QAE@ABV0@@Z" PURGE="4" COMMENT="" />
    <EXPORT ORDINAL="486" NAME="??0QLayoutPrivate@@QAE@XZ" PURGE="0" COMMENT="" />
    <EXPORT ORDINAL="487" NAME="??0QLineControl@@QAE@ABVQString@@@Z" PURGE="4" COMMENT="" />
    <EXPORT ORDINAL="488" NAME="??0QLineEdit@@QAE@ABVQString@@0PAVQWidget@@PBD@Z" PURGE="16" COMMENT="" />
    <EXPORT ORDINAL="489" NAME="??0QLineEdit@@QAE@ABVQString@@PAVQWidget@@@Z" PURGE="8" COMMENT="" />
    <EXPORT ORDINAL="490" NAME="??0QLineEdit@@QAE@ABVQString@@PAVQWidget@@PBD@Z" PURGE="12" COMMENT="" />
    <EXPORT ORDINAL="491" NAME="??0QLineEdit@@QAE@PAVQWidget@@@Z" PURGE="4" COMMENT="" />
    <EXPORT ORDINAL="492" NAME="??0QLineEdit@@QAE@PAVQWidget@@PBD@Z" PURGE="8" COMMENT="" />
    <EXPORT ORDINAL="493" NAME="??0QLinearGradient@@QAE@ABV0@@Z" PURGE="4" COMMENT="" />
    <EXPORT ORDINAL="494" NAME="??0QLinearGradient@@QAE@ABVQPointF@@0@Z" PURGE="8" COMMENT="" />
    <EXPORT ORDINAL="495" NAME="??0QLinearGradient@@QAE@NNNN@Z" PURGE="32" COMMENT="" />
    <EXPORT ORDINAL="496" NAME="??0QLinearGradient@@QAE@XZ" PURGE="0" COMMENT="" />
    <EXPORT ORDINAL="497" NAME="??0QListView@@IAE@AAVQListViewPrivate@@PAVQWidget@@@Z" PURGE="8" COMMENT="" />
    <EXPORT ORDINAL="498" NAME="??0QListView@@QAE@PAVQWidget@@@Z" PURGE="4" COMMENT="" />
    <EXPORT ORDINAL="499" NAME="??0QListWidget@@QAE@PAVQWidget@@@Z" PURGE="4" COMMENT="" />
    <EXPORT ORDINAL="500" NAME="??0QListWidgetItem@@QAE@ABV0@@Z" PURGE="4" COMMENT="" />
    <EXPORT ORDINAL="501" NAME="??0QListWidgetItem@@QAE@ABVQIcon@@ABVQString@@PAVQListWidget@@H@Z" PURGE="16" COMMENT="" />
    <EXPORT ORDINAL="502" NAME="??0QListWidgetItem@@QAE@ABVQString@@PAVQListWidget@@H@Z" PURGE="12" COMMENT="" />
    <EXPORT ORDINAL="503" NAME="??0QListWidgetItem@@QAE@PAVQListWidget@@H@Z" PURGE="8" COMMENT="" />
    <EXPORT ORDINAL="504" NAME="??0QMainWindow@@QAE@PAVQWidget@@PBDV?$QFlags@W4WindowType@Qt@@@@@Z" PURGE="12" COMMENT="" />
    <EXPORT ORDINAL="505" NAME="??0QMainWindow@@QAE@PAVQWidget@@V?$QFlags@W4WindowType@Qt@@@@@Z" PURGE="8" COMMENT="" />
    <EXPORT ORDINAL="506" NAME="??0QMatrix4x4@@AAE@H@Z" PURGE="4" COMMENT="" />
    <EXPORT ORDINAL="507" NAME="??0QMatrix4x4@@QAE@ABVQMatrix@@@Z" PURGE="4" COMMENT="" />
    <EXPORT ORDINAL="508" NAME="??0QMatrix4x4@@QAE@ABVQTransform@@@Z" PURGE="4" COMMENT="" />
    <EXPORT ORDINAL="509" NAME="??0QMatrix4x4@@QAE@NNNNNNNNNNNNNNNN@Z" PURGE="128" COMMENT="" />
    <EXPORT ORDINAL="510" NAME="??0QMatrix4x4@@QAE@PBN@Z" PURGE="4" COMMENT="" />
    <EXPORT ORDINAL="511" NAME="??0QMatrix4x4@@QAE@PBNHH@Z" PURGE="12" COMMENT="" />
    <EXPORT ORDINAL="512" NAME="??0QMatrix4x4@@QAE@XZ" PURGE="0" COMMENT="" />
    <EXPORT ORDINAL="513" NAME="??0QMatrix@@AAE@NNNNNN_N@Z" PURGE="52" COMMENT="" />
    <EXPORT ORDINAL="514" NAME="??0QMatrix@@AAE@_N@Z" PURGE="4" COMMENT="" />
    <EXPORT ORDINAL="515" NAME="??0QMatrix@@QAE@ABV0@@Z" PURGE="4" COMMENT="" />
    <EXPORT ORDINAL="516" NAME="??0QMatrix@@QAE@NNNNNN@Z" PURGE="48" COMMENT="" />
    <EXPORT ORDINAL="517" NAME="??0QMatrix@@QAE@W4Initialization@Qt@@@Z" PURGE="4" COMMENT="" />
    <EXPORT ORDINAL="518" NAME="??0QMatrix@@QAE@XZ" PURGE="0" COMMENT="" />
    <EXPORT ORDINAL="519" NAME="??0QMdiArea@@QAE@PAVQWidget@@@Z" PURGE="4" COMMENT="" />
    <EXPORT ORDINAL="520" NAME="??0QMdiSubWindow@@QAE@PAVQWidget@@V?$QFlags@W4WindowType@Qt@@@@@Z" PURGE="8" COMMENT="" />
    <EXPORT ORDINAL="521" NAME="??0QMenu@@IAE@AAVQMenuPrivate@@PAVQWidget@@@Z" PURGE="8" COMMENT="" />
    <EXPORT ORDINAL="522" NAME="??0QMenu@@QAE@ABVQString@@PAVQWidget@@@Z" PURGE="8" COMMENT="" />
    <EXPORT ORDINAL="523" NAME="??0QMenu@@QAE@PAVQWidget@@@Z" PURGE="4" COMMENT="" />
    <EXPORT ORDINAL="524" NAME="??0QMenuBar@@QAE@PAVQWidget@@@Z" PURGE="4" COMMENT="" />
    <EXPORT ORDINAL="525" NAME="??0QMenuBar@@QAE@PAVQWidget@@PBD@Z" PURGE="8" COMMENT="" />
    <EXPORT ORDINAL="526" NAME="??0QMenuItem@@QAE@XZ" PURGE="0" COMMENT="" />
    <EXPORT ORDINAL="527" NAME="??0QMenubarUpdatedEvent@@QAE@ABV0@@Z" PURGE="4" COMMENT="" />
    <EXPORT ORDINAL="528" NAME="??0QMenubarUpdatedEvent@@QAE@QAVQMenuBar@@@Z" PURGE="4" COMMENT="" />
    <EXPORT ORDINAL="529" NAME="??0QMessageBox@@QAE@ABVQString@@0W4Icon@0@HHHPAVQWidget@@PBD_NV?$QFlags@W4WindowType@Qt@@@@@Z" PURGE="40" COMMENT="" />
    <EXPORT ORDINAL="530" NAME="??0QMessageBox@@QAE@ABVQString@@0W4Icon@0@HHHPAVQWidget@@V?$QFlags@W4WindowType@Qt@@@@@Z" PURGE="32" COMMENT="" />
    <EXPORT ORDINAL="531" NAME="??0QMessageBox@@QAE@PAVQWidget@@@Z" PURGE="4" COMMENT="" />
    <EXPORT ORDINAL="532" NAME="??0QMessageBox@@QAE@PAVQWidget@@PBD@Z" PURGE="8" COMMENT="" />
    <EXPORT ORDINAL="533" NAME="??0QMessageBox@@QAE@W4Icon@0@ABVQString@@1V?$QFlags@W4StandardButton@QMessageBox@@@@PAVQWidget@@V?$QFlags@W4WindowType@Qt@@@@@Z" PURGE="24" COMMENT="" />
    <EXPORT ORDINAL="534" NAME="??0QMimeSource@@QAE@ABV0@@Z" PURGE="4" COMMENT="" />
    <EXPORT ORDINAL="535" NAME="??0QMimeSource@@QAE@XZ" PURGE="0" COMMENT="" />
    <EXPORT ORDINAL="536" NAME="??0QMotifStyle@@IAE@AAVQMotifStylePrivate@@_N@Z" PURGE="8" COMMENT="" />
    <EXPORT ORDINAL="537" NAME="??0QMotifStyle@@QAE@_N@Z" PURGE="4" COMMENT="" />
    <EXPORT ORDINAL="538" NAME="??0QMouseEvent@@QAE@ABV0@@Z" PURGE="4" COMMENT="" />
    <EXPORT ORDINAL="539" NAME="??0QMouseEvent@@QAE@W4Type@QEvent@@ABVQPoint@@1HH@Z" PURGE="20" COMMENT="" />
    <EXPORT ORDINAL="540" NAME="??0QMouseEvent@@QAE@W4Type@QEvent@@ABVQPoint@@1W4MouseButton@Qt@@V?$QFlags@W4MouseButton@Qt@@@@V?$QFlags@W4KeyboardModifier@Qt@@@@@Z" PURGE="24" COMMENT="" />
    <EXPORT ORDINAL="541" NAME="??0QMouseEvent@@QAE@W4Type@QEvent@@ABVQPoint@@HH@Z" PURGE="16" COMMENT="" />
    <EXPORT ORDINAL="542" NAME="??0QMouseEvent@@QAE@W4Type@QEvent@@ABVQPoint@@W4MouseButton@Qt@@V?$QFlags@W4MouseButton@Qt@@@@V?$QFlags@W4KeyboardModifier@Qt@@@@@Z" PURGE="20" COMMENT="" />
    <EXPORT ORDINAL="543" NAME="??0QMouseEventTransition@@QAE@PAVQObject@@W4Type@QEvent@@W4MouseButton@Qt@@PAVQState@@@Z" PURGE="16" COMMENT="" />
    <EXPORT ORDINAL="544" NAME="??0QMouseEventTransition@@QAE@PAVQState@@@Z" PURGE="4" COMMENT="" />
    <EXPORT ORDINAL="545" NAME="??0QMoveEvent@@QAE@ABV0@@Z" PURGE="4" COMMENT="" />
    <EXPORT ORDINAL="546" NAME="??0QMoveEvent@@QAE@ABVQPoint@@0@Z" PURGE="8" COMMENT="" />
    <EXPORT ORDINAL="547" NAME="??0QMovie@@QAE@ABVQString@@ABVQByteArray@@PAVQObject@@@Z" PURGE="12" COMMENT="" />
    <EXPORT ORDINAL="548" NAME="??0QMovie@@QAE@PAVQIODevice@@ABVQByteArray@@PAVQObject@@@Z" PURGE="12" COMMENT="" />
    <EXPORT ORDINAL="549" NAME="??0QMovie@@QAE@PAVQObject@@@Z" PURGE="4" COMMENT="" />
    <EXPORT ORDINAL="550" NAME="??0QPageSetupDialog@@QAE@PAVQPrinter@@PAVQWidget@@@Z" PURGE="8" COMMENT="" />
    <EXPORT ORDINAL="551" NAME="??0QPageSetupDialog@@QAE@PAVQWidget@@@Z" PURGE="4" COMMENT="" />
    <EXPORT ORDINAL="552" NAME="??0QPaintBuffer@@QAE@ABV0@@Z" PURGE="4" COMMENT="" />
    <EXPORT ORDINAL="553" NAME="??0QPaintBuffer@@QAE@XZ" PURGE="0" COMMENT="" />
    <EXPORT ORDINAL="554" NAME="??0QPaintBufferResource@@QAE@P6AXPAX@ZPAVQObject@@@Z" PURGE="8" COMMENT="" />
    <EXPORT ORDINAL="555" NAME="??0QPaintBufferSignalProxy@@QAE@XZ" PURGE="0" COMMENT="" />
    <EXPORT ORDINAL="556" NAME="??0QPaintDevice@@IAE@XZ" PURGE="0" COMMENT="" />
    <EXPORT ORDINAL="557" NAME="??0QPaintEngine@@IAE@AAVQPaintEnginePrivate@@V?$QFlags@W4PaintEngineFeature@QPaintEngine@@@@@Z" PURGE="8" COMMENT="" />
    <EXPORT ORDINAL="558" NAME="??0QPaintEngine@@QAE@V?$QFlags@W4PaintEngineFeature@QPaintEngine@@@@@Z" PURGE="4" COMMENT="" />
    <EXPORT ORDINAL="559" NAME="??0QPaintEngineEx@@IAE@AAVQPaintEngineExPrivate@@@Z" PURGE="4" COMMENT="" />
    <EXPORT ORDINAL="560" NAME="??0QPaintEngineEx@@QAE@XZ" PURGE="0" COMMENT="" />
    <EXPORT ORDINAL="561" NAME="??0QPaintEngineExPrivate@@QAE@ABV0@@Z" PURGE="4" COMMENT="" />
    <EXPORT ORDINAL="562" NAME="??0QPaintEngineExPrivate@@QAE@XZ" PURGE="0" COMMENT="" />
    <EXPORT ORDINAL="563" NAME="??0QPaintEngineExReplayer@@QAE@ABV0@@Z" PURGE="4" COMMENT="" />
    <EXPORT ORDINAL="564" NAME="??0QPaintEngineExReplayer@@QAE@XZ" PURGE="0" COMMENT="" />
    <EXPORT ORDINAL="565" NAME="??0QPaintEngineState@@QAE@ABV0@@Z" PURGE="4" COMMENT="" />
    <EXPORT ORDINAL="566" NAME="??0QPaintEngineState@@QAE@XZ" PURGE="0" COMMENT="" />
    <EXPORT ORDINAL="567" NAME="??0QPaintEvent@@QAE@ABV0@@Z" PURGE="4" COMMENT="" />
    <EXPORT ORDINAL="568" NAME="??0QPaintEvent@@QAE@ABVQRect@@@Z" PURGE="4" COMMENT="" />
    <EXPORT ORDINAL="569" NAME="??0QPaintEvent@@QAE@ABVQRegion@@@Z" PURGE="4" COMMENT="" />
    <EXPORT ORDINAL="570" NAME="??0QPaintEvent@@QAE@ABVQRegion@@ABVQRect@@@Z" PURGE="8" COMMENT="" />
    <EXPORT ORDINAL="571" NAME="??0QPainter@@QAE@PAVQPaintDevice@@@Z" PURGE="4" COMMENT="" />
    <EXPORT ORDINAL="572" NAME="??0QPainter@@QAE@XZ" PURGE="0" COMMENT="" />
    <EXPORT ORDINAL="573" NAME="??0QPainterPath@@QAE@ABV0@@Z" PURGE="4" COMMENT="" />
    <EXPORT ORDINAL="574" NAME="??0QPainterPath@@QAE@ABVQPointF@@@Z" PURGE="4" COMMENT="" />
    <EXPORT ORDINAL="575" NAME="??0QPainterPath@@QAE@XZ" PURGE="0" COMMENT="" />
    <EXPORT ORDINAL="576" NAME="??0QPainterPathStroker@@QAE@XZ" PURGE="0" COMMENT="" />
    <EXPORT ORDINAL="577" NAME="??0QPainterReplayer@@QAE@ABV0@@Z" PURGE="4" COMMENT="" />
    <EXPORT ORDINAL="578" NAME="??0QPainterReplayer@@QAE@XZ" PURGE="0" COMMENT="" />
    <EXPORT ORDINAL="579" NAME="??0QPainterState@@QAE@ABV0@@Z" PURGE="4" COMMENT="" />
    <EXPORT ORDINAL="580" NAME="??0QPainterState@@QAE@PBV0@@Z" PURGE="4" COMMENT="" />
    <EXPORT ORDINAL="581" NAME="??0QPainterState@@QAE@XZ" PURGE="0" COMMENT="" />
    <EXPORT ORDINAL="582" NAME="??0QPalette@@QAE@ABV0@@Z" PURGE="4" COMMENT="" />
    <EXPORT ORDINAL="583" NAME="??0QPalette@@QAE@ABVQBrush@@00000000@Z" PURGE="36" COMMENT="" />
    <EXPORT ORDINAL="584" NAME="??0QPalette@@QAE@ABVQColor@@000000@Z" PURGE="28" COMMENT="" />
    <EXPORT ORDINAL="585" NAME="??0QPalette@@QAE@ABVQColor@@0@Z" PURGE="8" COMMENT="" />
    <EXPORT ORDINAL="586" NAME="??0QPalette@@QAE@ABVQColor@@@Z" PURGE="4" COMMENT="" />
    <EXPORT ORDINAL="587" NAME="??0QPalette@@QAE@ABVQColorGroup@@00@Z" PURGE="12" COMMENT="" />
    <EXPORT ORDINAL="588" NAME="??0QPalette@@QAE@W4GlobalColor@Qt@@@Z" PURGE="4" COMMENT="" />
    <EXPORT ORDINAL="589" NAME="??0QPalette@@QAE@XZ" PURGE="0" COMMENT="" />
    <EXPORT ORDINAL="590" NAME="??0QPanGesture@@QAE@PAVQObject@@@Z" PURGE="4" COMMENT="" />
    <EXPORT ORDINAL="591" NAME="??0QPen@@QAE@ABV0@@Z" PURGE="4" COMMENT="" />
    <EXPORT ORDINAL="592" NAME="??0QPen@@QAE@ABVQBrush@@NW4PenStyle@Qt@@W4PenCapStyle@3@W4PenJoinStyle@3@@Z" PURGE="24" COMMENT="" />
    <EXPORT ORDINAL="593" NAME="??0QPen@@QAE@ABVQColor@@@Z" PURGE="4" COMMENT="" />
    <EXPORT ORDINAL="594" NAME="??0QPen@@QAE@W4PenStyle@Qt@@@Z" PURGE="4" COMMENT="" />
    <EXPORT ORDINAL="595" NAME="??0QPen@@QAE@XZ" PURGE="0" COMMENT="" />
    <EXPORT ORDINAL="596" NAME="??0QPicture@@IAE@AAVQPicturePrivate@@@Z" PURGE="4" COMMENT="" />
    <EXPORT ORDINAL="597" NAME="??0QPicture@@QAE@ABV0@@Z" PURGE="4" COMMENT="" />
    <EXPORT ORDINAL="598" NAME="??0QPicture@@QAE@H@Z" PURGE="4" COMMENT="" />
    <EXPORT ORDINAL="599" NAME="??0QPictureFormatInterface@@QAE@ABU0@@Z" PURGE="4" COMMENT="" />
    <EXPORT ORDINAL="600" NAME="??0QPictureFormatInterface@@QAE@XZ" PURGE="0" COMMENT="" />
    <EXPORT ORDINAL="601" NAME="??0QPictureFormatPlugin@@QAE@PAVQObject@@@Z" PURGE="4" COMMENT="" />
    <EXPORT ORDINAL="602" NAME="??0QPictureIO@@QAE@ABVQString@@PBD@Z" PURGE="8" COMMENT="" />
    <EXPORT ORDINAL="603" NAME="??0QPictureIO@@QAE@PAVQIODevice@@PBD@Z" PURGE="8" COMMENT="" />
    <EXPORT ORDINAL="604" NAME="??0QPictureIO@@QAE@XZ" PURGE="0" COMMENT="" />
    <EXPORT ORDINAL="605" NAME="??0QPinchGesture@@QAE@PAVQObject@@@Z" PURGE="4" COMMENT="" />
    <EXPORT ORDINAL="606" NAME="??0QPixmap@@AAE@ABVQSize@@H@Z" PURGE="8" COMMENT="" />
    <EXPORT ORDINAL="607" NAME="??0QPixmap@@AAE@ABVQSize@@W4Type@0@@Z" PURGE="8" COMMENT="" />
    <EXPORT ORDINAL="608" NAME="??0QPixmap@@QAE@ABV0@@Z" PURGE="4" COMMENT="" />
    <EXPORT ORDINAL="609" NAME="??0QPixmap@@QAE@ABVQImage@@@Z" PURGE="4" COMMENT="" />
    <EXPORT ORDINAL="610" NAME="??0QPixmap@@QAE@ABVQSize@@@Z" PURGE="4" COMMENT="" />
    <EXPORT ORDINAL="611" NAME="??0QPixmap@@QAE@ABVQString@@PBDV?$QFlags@W4ImageConversionFlag@Qt@@@@@Z" PURGE="12" COMMENT="" />
    <EXPORT ORDINAL="612" NAME="??0QPixmap@@QAE@ABVQString@@PBDW4ColorMode@0@@Z" PURGE="12" COMMENT="" />
    <EXPORT ORDINAL="613" NAME="??0QPixmap@@QAE@HH@Z" PURGE="8" COMMENT="" />
    <EXPORT ORDINAL="614" NAME="??0QPixmap@@QAE@PAVQPixmapData@@@Z" PURGE="4" COMMENT="" />
    <EXPORT ORDINAL="615" NAME="??0QPixmap@@QAE@QBQBD@Z" PURGE="4" COMMENT="" />
    <EXPORT ORDINAL="616" NAME="??0QPixmap@@QAE@XZ" PURGE="0" COMMENT="" />
    <EXPORT ORDINAL="617" NAME="??0QPixmapBlurFilter@@QAE@PAVQObject@@@Z" PURGE="4" COMMENT="" />
    <EXPORT ORDINAL="618" NAME="??0QPixmapColorizeFilter@@QAE@PAVQObject@@@Z" PURGE="4" COMMENT="" />
    <EXPORT ORDINAL="619" NAME="??0QPixmapConvolutionFilter@@QAE@PAVQObject@@@Z" PURGE="4" COMMENT="" />
    <EXPORT ORDINAL="620" NAME="??0QPixmapData@@QAE@ABV0@@Z" PURGE="4" COMMENT="" />
    <EXPORT ORDINAL="621" NAME="??0QPixmapData@@QAE@W4PixelType@0@H@Z" PURGE="8" COMMENT="" />
    <EXPORT ORDINAL="622" NAME="??0QPixmapDropShadowFilter@@QAE@PAVQObject@@@Z" PURGE="4" COMMENT="" />
    <EXPORT ORDINAL="623" NAME="??0QPixmapFilter@@IAE@AAVQPixmapFilterPrivate@@W4FilterType@0@PAVQObject@@@Z" PURGE="12" COMMENT="" />
    <EXPORT ORDINAL="624" NAME="??0QPixmapFilter@@IAE@W4FilterType@0@PAVQObject@@@Z" PURGE="8" COMMENT="" />
    <EXPORT ORDINAL="625" NAME="??0QPlainTextDocumentLayout@@QAE@PAVQTextDocument@@@Z" PURGE="4" COMMENT="" />
    <EXPORT ORDINAL="626" NAME="??0QPlainTextEdit@@IAE@AAVQPlainTextEditPrivate@@PAVQWidget@@@Z" PURGE="8" COMMENT="" />
    <EXPORT ORDINAL="627" NAME="??0QPlainTextEdit@@QAE@ABVQString@@PAVQWidget@@@Z" PURGE="8" COMMENT="" />
    <EXPORT ORDINAL="628" NAME="??0QPlainTextEdit@@QAE@PAVQWidget@@@Z" PURGE="4" COMMENT="" />
    <EXPORT ORDINAL="629" NAME="??0QPlastiqueStyle@@QAE@XZ" PURGE="0" COMMENT="" />
    <EXPORT ORDINAL="630" NAME="??0QPolygon@@QAE@ABV0@@Z" PURGE="4" COMMENT="" />
    <EXPORT ORDINAL="631" NAME="??0QPolygon@@QAE@ABV?$QVector@VQPoint@@@@@Z" PURGE="4" COMMENT="" />
    <EXPORT ORDINAL="632" NAME="??0QPolygon@@QAE@ABVQRect@@_N@Z" PURGE="8" COMMENT="" />
    <EXPORT ORDINAL="633" NAME="??0QPolygon@@QAE@H@Z" PURGE="4" COMMENT="" />
    <EXPORT ORDINAL="634" NAME="??0QPolygon@@QAE@HPBH@Z" PURGE="8" COMMENT="" />
    <EXPORT ORDINAL="635" NAME="??0QPolygon@@QAE@XZ" PURGE="0" COMMENT="" />
    <EXPORT ORDINAL="636" NAME="??0QPolygonF@@QAE@ABV0@@Z" PURGE="4" COMMENT="" />
    <EXPORT ORDINAL="637" NAME="??0QPolygonF@@QAE@ABV?$QVector@VQPointF@@@@@Z" PURGE="4" COMMENT="" />
    <EXPORT ORDINAL="638" NAME="??0QPolygonF@@QAE@ABVQPolygon@@@Z" PURGE="4" COMMENT="" />
    <EXPORT ORDINAL="639" NAME="??0QPolygonF@@QAE@ABVQRectF@@@Z" PURGE="4" COMMENT="" />
    <EXPORT ORDINAL="640" NAME="??0QPolygonF@@QAE@H@Z" PURGE="4" COMMENT="" />
    <EXPORT ORDINAL="641" NAME="??0QPolygonF@@QAE@XZ" PURGE="0" COMMENT="" />
    <EXPORT ORDINAL="642" NAME="??0QPrintDialog@@QAE@PAVQPrinter@@PAVQWidget@@@Z" PURGE="8" COMMENT="" />
    <EXPORT ORDINAL="643" NAME="??0QPrintDialog@@QAE@PAVQWidget@@@Z" PURGE="4" COMMENT="" />
    <EXPORT ORDINAL="644" NAME="??0QPrintEngine@@QAE@ABV0@@Z" PURGE="4" COMMENT="" />
    <EXPORT ORDINAL="645" NAME="??0QPrintEngine@@QAE@XZ" PURGE="0" COMMENT="" />
    <EXPORT ORDINAL="646" NAME="??0QPrintPreviewDialog@@QAE@PAVQPrinter@@PAVQWidget@@V?$QFlags@W4WindowType@Qt@@@@@Z" PURGE="12" COMMENT="" />
    <EXPORT ORDINAL="647" NAME="??0QPrintPreviewDialog@@QAE@PAVQWidget@@V?$QFlags@W4WindowType@Qt@@@@@Z" PURGE="8" COMMENT="" />
    <EXPORT ORDINAL="648" NAME="??0QPrintPreviewWidget@@QAE@PAVQPrinter@@PAVQWidget@@V?$QFlags@W4WindowType@Qt@@@@@Z" PURGE="12" COMMENT="" />
    <EXPORT ORDINAL="649" NAME="??0QPrintPreviewWidget@@QAE@PAVQWidget@@V?$QFlags@W4WindowType@Qt@@@@@Z" PURGE="8" COMMENT="" />
    <EXPORT ORDINAL="650" NAME="??0QPrinter@@QAE@ABVQPrinterInfo@@W4PrinterMode@0@@Z" PURGE="8" COMMENT="" />
    <EXPORT ORDINAL="651" NAME="??0QPrinter@@QAE@W4PrinterMode@0@@Z" PURGE="4" COMMENT="" />
    <EXPORT ORDINAL="652" NAME="??0QPrinterInfo@@AAE@ABVQString@@@Z" PURGE="4" COMMENT="" />
    <EXPORT ORDINAL="653" NAME="??0QPrinterInfo@@QAE@ABV0@@Z" PURGE="4" COMMENT="" />
    <EXPORT ORDINAL="654" NAME="??0QPrinterInfo@@QAE@ABVQPrinter@@@Z" PURGE="4" COMMENT="" />
    <EXPORT ORDINAL="655" NAME="??0QPrinterInfo@@QAE@XZ" PURGE="0" COMMENT="" />
    <EXPORT ORDINAL="656" NAME="??0QProgressBar@@QAE@PAVQWidget@@@Z" PURGE="4" COMMENT="" />
    <EXPORT ORDINAL="657" NAME="??0QProgressDialog@@QAE@ABVQString@@0HHPAVQWidget@@V?$QFlags@W4WindowType@Qt@@@@@Z" PURGE="24" COMMENT="" />
    <EXPORT ORDINAL="658" NAME="??0QProgressDialog@@QAE@PAVQWidget@@V?$QFlags@W4WindowType@Qt@@@@@Z" PURGE="8" COMMENT="" />
    <EXPORT ORDINAL="659" NAME="??0QProxyModel@@IAE@AAVQProxyModelPrivate@@PAVQObject@@@Z" PURGE="8" COMMENT="" />
    <EXPORT ORDINAL="660" NAME="??0QProxyModel@@QAE@PAVQObject@@@Z" PURGE="4" COMMENT="" />
    <EXPORT ORDINAL="661" NAME="??0QProxyStyle@@QAE@PAVQStyle@@@Z" PURGE="4" COMMENT="" />
    <EXPORT ORDINAL="662" NAME="??0QPushButton@@IAE@AAVQPushButtonPrivate@@PAVQWidget@@@Z" PURGE="8" COMMENT="" />
    <EXPORT ORDINAL="663" NAME="??0QPushButton@@QAE@ABVQIcon@@ABVQString@@PAVQWidget@@@Z" PURGE="12" COMMENT="" />
    <EXPORT ORDINAL="664" NAME="??0QPushButton@@QAE@ABVQIcon@@ABVQString@@PAVQWidget@@PBD@Z" PURGE="16" COMMENT="" />
    <EXPORT ORDINAL="665" NAME="??0QPushButton@@QAE@ABVQString@@PAVQWidget@@@Z" PURGE="8" COMMENT="" />
    <EXPORT ORDINAL="666" NAME="??0QPushButton@@QAE@ABVQString@@PAVQWidget@@PBD@Z" PURGE="12" COMMENT="" />
    <EXPORT ORDINAL="667" NAME="??0QPushButton@@QAE@PAVQWidget@@@Z" PURGE="4" COMMENT="" />
    <EXPORT ORDINAL="668" NAME="??0QPushButton@@QAE@PAVQWidget@@PBD@Z" PURGE="8" COMMENT="" />
    <EXPORT ORDINAL="669" NAME="??0QQuaternion@@QAE@ABVQVector4D@@@Z" PURGE="4" COMMENT="" />
    <EXPORT ORDINAL="670" NAME="??0QQuaternion@@QAE@NABVQVector3D@@@Z" PURGE="12" COMMENT="" />
    <EXPORT ORDINAL="671" NAME="??0QQuaternion@@QAE@NNNN@Z" PURGE="32" COMMENT="" />
    <EXPORT ORDINAL="672" NAME="??0QQuaternion@@QAE@XZ" PURGE="0" COMMENT="" />
    <EXPORT ORDINAL="673" NAME="??0QRadialGradient@@QAE@ABV0@@Z" PURGE="4" COMMENT="" />
    <EXPORT ORDINAL="674" NAME="??0QRadialGradient@@QAE@ABVQPointF@@N0@Z" PURGE="16" COMMENT="" />
    <EXPORT ORDINAL="675" NAME="??0QRadialGradient@@QAE@ABVQPointF@@N0N@Z" PURGE="24" COMMENT="" />
    <EXPORT ORDINAL="676" NAME="??0QRadialGradient@@QAE@ABVQPointF@@N@Z" PURGE="12" COMMENT="" />
    <EXPORT ORDINAL="677" NAME="??0QRadialGradient@@QAE@NNN@Z" PURGE="24" COMMENT="" />
    <EXPORT ORDINAL="678" NAME="??0QRadialGradient@@QAE@NNNNN@Z" PURGE="40" COMMENT="" />
    <EXPORT ORDINAL="679" NAME="??0QRadialGradient@@QAE@NNNNNN@Z" PURGE="48" COMMENT="" />
    <EXPORT ORDINAL="680" NAME="??0QRadialGradient@@QAE@XZ" PURGE="0" COMMENT="" />
    <EXPORT ORDINAL="681" NAME="??0QRadioButton@@QAE@ABVQString@@PAVQWidget@@@Z" PURGE="8" COMMENT="" />
    <EXPORT ORDINAL="682" NAME="??0QRadioButton@@QAE@ABVQString@@PAVQWidget@@PBD@Z" PURGE="12" COMMENT="" />
    <EXPORT ORDINAL="683" NAME="??0QRadioButton@@QAE@PAVQWidget@@@Z" PURGE="4" COMMENT="" />
    <EXPORT ORDINAL="684" NAME="??0QRadioButton@@QAE@PAVQWidget@@PBD@Z" PURGE="8" COMMENT="" />
    <EXPORT ORDINAL="685" NAME="??0QRasterPixmapData@@QAE@ABV0@@Z" PURGE="4" COMMENT="" />
    <EXPORT ORDINAL="686" NAME="??0QRasterPixmapData@@QAE@W4PixelType@QPixmapData@@@Z" PURGE="4" COMMENT="" />
    <EXPORT ORDINAL="687" NAME="??0QRasterWindowSurface@@QAE@PAVQWidget@@_N@Z" PURGE="8" COMMENT="" />
    <EXPORT ORDINAL="688" NAME="??0QRawFont@@QAE@ABV0@@Z" PURGE="4" COMMENT="" />
    <EXPORT ORDINAL="689" NAME="??0QRawFont@@QAE@ABVQByteArray@@NW4HintingPreference@QFont@@@Z" PURGE="16" COMMENT="" />
    <EXPORT ORDINAL="690" NAME="??0QRawFont@@QAE@ABVQString@@NW4HintingPreference@QFont@@@Z" PURGE="16" COMMENT="" />
    <EXPORT ORDINAL="691" NAME="??0QRawFont@@QAE@XZ" PURGE="0" COMMENT="" />
    <EXPORT ORDINAL="692" NAME="??0QRegExpValidator@@QAE@ABVQRegExp@@PAVQObject@@@Z" PURGE="8" COMMENT="" />
    <EXPORT ORDINAL="693" NAME="??0QRegExpValidator@@QAE@ABVQRegExp@@PAVQObject@@PBD@Z" PURGE="12" COMMENT="" />
    <EXPORT ORDINAL="694" NAME="??0QRegExpValidator@@QAE@PAVQObject@@@Z" PURGE="4" COMMENT="" />
    <EXPORT ORDINAL="695" NAME="??0QRegExpValidator@@QAE@PAVQObject@@PBD@Z" PURGE="8" COMMENT="" />
    <EXPORT ORDINAL="696" NAME="??0QRegion@@QAE@ABV0@@Z" PURGE="4" COMMENT="" />
    <EXPORT ORDINAL="697" NAME="??0QRegion@@QAE@ABVQBitmap@@@Z" PURGE="4" COMMENT="" />
    <EXPORT ORDINAL="698" NAME="??0QRegion@@QAE@ABVQPolygon@@W4FillRule@Qt@@@Z" PURGE="8" COMMENT="" />
    <EXPORT ORDINAL="699" NAME="??0QRegion@@QAE@ABVQPolygon@@_N@Z" PURGE="8" COMMENT="" />
    <EXPORT ORDINAL="700" NAME="??0QRegion@@QAE@ABVQRect@@W4RegionType@0@@Z" PURGE="8" COMMENT="" />
    <EXPORT ORDINAL="701" NAME="??0QRegion@@QAE@HHHHW4RegionType@0@@Z" PURGE="20" COMMENT="" />
    <EXPORT ORDINAL="702" NAME="??0QRegion@@QAE@XZ" PURGE="0" COMMENT="" />
    <EXPORT ORDINAL="703" NAME="??0QResizeEvent@@QAE@ABV0@@Z" PURGE="4" COMMENT="" />
    <EXPORT ORDINAL="704" NAME="??0QResizeEvent@@QAE@ABVQSize@@0@Z" PURGE="8" COMMENT="" />
    <EXPORT ORDINAL="705" NAME="??0QRubberBand@@QAE@W4Shape@0@PAVQWidget@@@Z" PURGE="8" COMMENT="" />
    <EXPORT ORDINAL="706" NAME="??0QRuntimePixmapData@@QAE@ABV0@@Z" PURGE="4" COMMENT="" />
    <EXPORT ORDINAL="707" NAME="??0QRuntimePixmapData@@QAE@PBVQRuntimeGraphicsSystem@@W4PixelType@QPixmapData@@@Z" PURGE="8" COMMENT="" />
    <EXPORT ORDINAL="708" NAME="??0QScrollArea@@IAE@AAVQScrollAreaPrivate@@PAVQWidget@@@Z" PURGE="8" COMMENT="" />
    <EXPORT ORDINAL="709" NAME="??0QScrollArea@@QAE@PAVQWidget@@@Z" PURGE="4" COMMENT="" />
    <EXPORT ORDINAL="710" NAME="??0QScrollBar@@QAE@HHHHHW4Orientation@Qt@@PAVQWidget@@PBD@Z" PURGE="32" COMMENT="" />
    <EXPORT ORDINAL="711" NAME="??0QScrollBar@@QAE@PAVQWidget@@@Z" PURGE="4" COMMENT="" />
    <EXPORT ORDINAL="712" NAME="??0QScrollBar@@QAE@PAVQWidget@@PBD@Z" PURGE="8" COMMENT="" />
    <EXPORT ORDINAL="713" NAME="??0QScrollBar@@QAE@W4Orientation@Qt@@PAVQWidget@@@Z" PURGE="8" COMMENT="" />
    <EXPORT ORDINAL="714" NAME="??0QScrollBar@@QAE@W4Orientation@Qt@@PAVQWidget@@PBD@Z" PURGE="12" COMMENT="" />
    <EXPORT ORDINAL="715" NAME="??0QSessionManager@@AAE@PAVQApplication@@AAVQString@@1@Z" PURGE="12" COMMENT="" />
    <EXPORT ORDINAL="716" NAME="??0QShortcut@@QAE@ABVQKeySequence@@PAVQWidget@@PBD2W4ShortcutContext@Qt@@@Z" PURGE="20" COMMENT="" />
    <EXPORT ORDINAL="717" NAME="??0QShortcut@@QAE@PAVQWidget@@@Z" PURGE="4" COMMENT="" />
    <EXPORT ORDINAL="718" NAME="??0QShortcutEvent@@QAE@ABV0@@Z" PURGE="4" COMMENT="" />
    <EXPORT ORDINAL="719" NAME="??0QShortcutEvent@@QAE@ABVQKeySequence@@H_N@Z" PURGE="12" COMMENT="" />
    <EXPORT ORDINAL="720" NAME="??0QShowEvent@@QAE@ABV0@@Z" PURGE="4" COMMENT="" />
    <EXPORT ORDINAL="721" NAME="??0QShowEvent@@QAE@XZ" PURGE="0" COMMENT="" />
    <EXPORT ORDINAL="722" NAME="??0QSizeGrip@@QAE@PAVQWidget@@@Z" PURGE="4" COMMENT="" />
    <EXPORT ORDINAL="723" NAME="??0QSizeGrip@@QAE@PAVQWidget@@PBD@Z" PURGE="8" COMMENT="" />
    <EXPORT ORDINAL="724" NAME="??0QSizePolicy@@AAE@H@Z" PURGE="4" COMMENT="" />
    <EXPORT ORDINAL="725" NAME="??0QSizePolicy@@QAE@W4Policy@0@0@Z" PURGE="8" COMMENT="" />
    <EXPORT ORDINAL="726" NAME="??0QSizePolicy@@QAE@W4Policy@0@0EE_N@Z" PURGE="20" COMMENT="" />
    <EXPORT ORDINAL="727" NAME="??0QSizePolicy@@QAE@W4Policy@0@0W4ControlType@0@@Z" PURGE="12" COMMENT="" />
    <EXPORT ORDINAL="728" NAME="??0QSizePolicy@@QAE@W4Policy@0@0_N@Z" PURGE="12" COMMENT="" />
    <EXPORT ORDINAL="729" NAME="??0QSizePolicy@@QAE@XZ" PURGE="0" COMMENT="" />
    <EXPORT ORDINAL="730" NAME="??0QSlider@@QAE@HHHHW4Orientation@Qt@@PAVQWidget@@PBD@Z" PURGE="28" COMMENT="" />
    <EXPORT ORDINAL="731" NAME="??0QSlider@@QAE@PAVQWidget@@@Z" PURGE="4" COMMENT="" />
    <EXPORT ORDINAL="732" NAME="??0QSlider@@QAE@PAVQWidget@@PBD@Z" PURGE="8" COMMENT="" />
    <EXPORT ORDINAL="733" NAME="??0QSlider@@QAE@W4Orientation@Qt@@PAVQWidget@@@Z" PURGE="8" COMMENT="" />
    <EXPORT ORDINAL="734" NAME="??0QSlider@@QAE@W4Orientation@Qt@@PAVQWidget@@PBD@Z" PURGE="12" COMMENT="" />
    <EXPORT ORDINAL="735" NAME="??0QSortFilterProxyModel@@QAE@PAVQObject@@@Z" PURGE="4" COMMENT="" />
    <EXPORT ORDINAL="736" NAME="??0QSound@@QAE@ABVQString@@PAVQObject@@@Z" PURGE="8" COMMENT="" />
    <EXPORT ORDINAL="737" NAME="??0QSound@@QAE@ABVQString@@PAVQObject@@PBD@Z" PURGE="12" COMMENT="" />
    <EXPORT ORDINAL="738" NAME="??0QSpacerItem@@QAE@ABV0@@Z" PURGE="4" COMMENT="" />
    <EXPORT ORDINAL="739" NAME="??0QSpacerItem@@QAE@HHW4Policy@QSizePolicy@@0@Z" PURGE="16" COMMENT="" />
    <EXPORT ORDINAL="740" NAME="??0QSpinBox@@QAE@HHHPAVQWidget@@PBD@Z" PURGE="20" COMMENT="" />
    <EXPORT ORDINAL="741" NAME="??0QSpinBox@@QAE@PAVQWidget@@@Z" PURGE="4" COMMENT="" />
    <EXPORT ORDINAL="742" NAME="??0QSpinBox@@QAE@PAVQWidget@@PBD@Z" PURGE="8" COMMENT="" />
    <EXPORT ORDINAL="743" NAME="??0QSplashScreen@@QAE@ABVQPixmap@@V?$QFlags@W4WindowType@Qt@@@@@Z" PURGE="8" COMMENT="" />
    <EXPORT ORDINAL="744" NAME="??0QSplashScreen@@QAE@PAVQWidget@@ABVQPixmap@@V?$QFlags@W4WindowType@Qt@@@@@Z" PURGE="12" COMMENT="" />
    <EXPORT ORDINAL="745" NAME="??0QSplitter@@QAE@PAVQWidget@@@Z" PURGE="4" COMMENT="" />
    <EXPORT ORDINAL="746" NAME="??0QSplitter@@QAE@PAVQWidget@@PBD@Z" PURGE="8" COMMENT="" />
    <EXPORT ORDINAL="747" NAME="??0QSplitter@@QAE@W4Orientation@Qt@@PAVQWidget@@@Z" PURGE="8" COMMENT="" />
    <EXPORT ORDINAL="748" NAME="??0QSplitter@@QAE@W4Orientation@Qt@@PAVQWidget@@PBD@Z" PURGE="12" COMMENT="" />
    <EXPORT ORDINAL="749" NAME="??0QSplitterHandle@@QAE@W4Orientation@Qt@@PAVQSplitter@@@Z" PURGE="8" COMMENT="" />
    <EXPORT ORDINAL="750" NAME="??0QStackedLayout@@QAE@PAVQLayout@@@Z" PURGE="4" COMMENT="" />
    <EXPORT ORDINAL="751" NAME="??0QStackedLayout@@QAE@PAVQWidget@@@Z" PURGE="4" COMMENT="" />
    <EXPORT ORDINAL="752" NAME="??0QStackedLayout@@QAE@XZ" PURGE="0" COMMENT="" />
    <EXPORT ORDINAL="753" NAME="??0QStackedWidget@@QAE@PAVQWidget@@@Z" PURGE="4" COMMENT="" />
    <EXPORT ORDINAL="754" NAME="??0QStandardItem@@IAE@AAVQStandardItemPrivate@@@Z" PURGE="4" COMMENT="" />
    <EXPORT ORDINAL="755" NAME="??0QStandardItem@@IAE@ABV0@@Z" PURGE="4" COMMENT="" />
    <EXPORT ORDINAL="756" NAME="??0QStandardItem@@QAE@ABVQIcon@@ABVQString@@@Z" PURGE="8" COMMENT="" />
    <EXPORT ORDINAL="757" NAME="??0QStandardItem@@QAE@ABVQString@@@Z" PURGE="4" COMMENT="" />
    <EXPORT ORDINAL="758" NAME="??0QStandardItem@@QAE@HH@Z" PURGE="8" COMMENT="" />
    <EXPORT ORDINAL="759" NAME="??0QStandardItem@@QAE@XZ" PURGE="0" COMMENT="" />
    <EXPORT ORDINAL="760" NAME="??0QStandardItemModel@@IAE@AAVQStandardItemModelPrivate@@PAVQObject@@@Z" PURGE="8" COMMENT="" />
    <EXPORT ORDINAL="761" NAME="??0QStandardItemModel@@QAE@HHPAVQObject@@@Z" PURGE="12" COMMENT="" />
    <EXPORT ORDINAL="762" NAME="??0QStandardItemModel@@QAE@PAVQObject@@@Z" PURGE="4" COMMENT="" />
    <EXPORT ORDINAL="763" NAME="??0QStaticText@@QAE@ABV0@@Z" PURGE="4" COMMENT="" />
    <EXPORT ORDINAL="764" NAME="??0QStaticText@@QAE@ABVQString@@@Z" PURGE="4" COMMENT="" />
    <EXPORT ORDINAL="765" NAME="??0QStaticText@@QAE@XZ" PURGE="0" COMMENT="" />
    <EXPORT ORDINAL="766" NAME="??0QStaticTextItem@@QAE@ABV0@@Z" PURGE="4" COMMENT="" />
    <EXPORT ORDINAL="767" NAME="??0QStaticTextItem@@QAE@XZ" PURGE="0" COMMENT="" />
    <EXPORT ORDINAL="768" NAME="??0QStatusBar@@QAE@PAVQWidget@@@Z" PURGE="4" COMMENT="" />
    <EXPORT ORDINAL="769" NAME="??0QStatusBar@@QAE@PAVQWidget@@PBD@Z" PURGE="8" COMMENT="" />
    <EXPORT ORDINAL="770" NAME="??0QStatusTipEvent@@QAE@ABV0@@Z" PURGE="4" COMMENT="" />
    <EXPORT ORDINAL="771" NAME="??0QStatusTipEvent@@QAE@ABVQString@@@Z" PURGE="4" COMMENT="" />
    <EXPORT ORDINAL="772" NAME="??0QStringListModel@@QAE@ABVQStringList@@PAVQObject@@@Z" PURGE="8" COMMENT="" />
    <EXPORT ORDINAL="773" NAME="??0QStringListModel@@QAE@PAVQObject@@@Z" PURGE="4" COMMENT="" />
    <EXPORT ORDINAL="774" NAME="??0QStroker@@QAE@ABV0@@Z" PURGE="4" COMMENT="" />
    <EXPORT ORDINAL="775" NAME="??0QStroker@@QAE@XZ" PURGE="0" COMMENT="" />
    <EXPORT ORDINAL="776" NAME="??0QStrokerOps@@QAE@ABV0@@Z" PURGE="4" COMMENT="" />
    <EXPORT ORDINAL="777" NAME="??0QStrokerOps@@QAE@XZ" PURGE="0" COMMENT="" />
    <EXPORT ORDINAL="778" NAME="??0QStyle@@IAE@AAVQStylePrivate@@@Z" PURGE="4" COMMENT="" />
    <EXPORT ORDINAL="779" NAME="??0QStyle@@QAE@XZ" PURGE="0" COMMENT="" />
    <EXPORT ORDINAL="780" NAME="??0QStyleFactoryInterface@@QAE@ABU0@@Z" PURGE="4" COMMENT="" />
    <EXPORT ORDINAL="781" NAME="??0QStyleFactoryInterface@@QAE@XZ" PURGE="0" COMMENT="" />
    <EXPORT ORDINAL="782" NAME="??0QStyleHintReturn@@QAE@HH@Z" PURGE="8" COMMENT="" />
    <EXPORT ORDINAL="783" NAME="??0QStyleHintReturnMask@@QAE@ABV0@@Z" PURGE="4" COMMENT="" />
    <EXPORT ORDINAL="784" NAME="??0QStyleHintReturnMask@@QAE@XZ" PURGE="0" COMMENT="" />
    <EXPORT ORDINAL="785" NAME="??0QStyleHintReturnVariant@@QAE@ABV0@@Z" PURGE="4" COMMENT="" />
    <EXPORT ORDINAL="786" NAME="??0QStyleHintReturnVariant@@QAE@XZ" PURGE="0" COMMENT="" />
    <EXPORT ORDINAL="787" NAME="??0QStyleOption@@QAE@ABV0@@Z" PURGE="4" COMMENT="" />
    <EXPORT ORDINAL="788" NAME="??0QStyleOption@@QAE@HH@Z" PURGE="8" COMMENT="" />
    <EXPORT ORDINAL="789" NAME="??0QStyleOptionButton@@IAE@H@Z" PURGE="4" COMMENT="" />
    <EXPORT ORDINAL="790" NAME="??0QStyleOptionButton@@QAE@ABV0@@Z" PURGE="4" COMMENT="" />
    <EXPORT ORDINAL="791" NAME="??0QStyleOptionButton@@QAE@XZ" PURGE="0" COMMENT="" />
    <EXPORT ORDINAL="792" NAME="??0QStyleOptionComboBox@@IAE@H@Z" PURGE="4" COMMENT="" />
    <EXPORT ORDINAL="793" NAME="??0QStyleOptionComboBox@@QAE@ABV0@@Z" PURGE="4" COMMENT="" />
    <EXPORT ORDINAL="794" NAME="??0QStyleOptionComboBox@@QAE@XZ" PURGE="0" COMMENT="" />
    <EXPORT ORDINAL="795" NAME="??0QStyleOptionComplex@@QAE@ABV0@@Z" PURGE="4" COMMENT="" />
    <EXPORT ORDINAL="796" NAME="??0QStyleOptionComplex@@QAE@HH@Z" PURGE="8" COMMENT="" />
    <EXPORT ORDINAL="797" NAME="??0QStyleOptionDockWidget@@IAE@H@Z" PURGE="4" COMMENT="" />
    <EXPORT ORDINAL="798" NAME="??0QStyleOptionDockWidget@@QAE@ABV0@@Z" PURGE="4" COMMENT="" />
    <EXPORT ORDINAL="799" NAME="??0QStyleOptionDockWidget@@QAE@XZ" PURGE="0" COMMENT="" />
    <EXPORT ORDINAL="800" NAME="??0QStyleOptionDockWidgetV2@@IAE@H@Z" PURGE="4" COMMENT="" />
    <EXPORT ORDINAL="801" NAME="??0QStyleOptionDockWidgetV2@@QAE@ABV0@@Z" PURGE="4" COMMENT="" />
    <EXPORT ORDINAL="802" NAME="??0QStyleOptionDockWidgetV2@@QAE@ABVQStyleOptionDockWidget@@@Z" PURGE="4" COMMENT="" />
    <EXPORT ORDINAL="803" NAME="??0QStyleOptionDockWidgetV2@@QAE@XZ" PURGE="0" COMMENT="" />
    <EXPORT ORDINAL="804" NAME="??0QStyleOptionFocusRect@@IAE@H@Z" PURGE="4" COMMENT="" />
    <EXPORT ORDINAL="805" NAME="??0QStyleOptionFocusRect@@QAE@ABV0@@Z" PURGE="4" COMMENT="" />
    <EXPORT ORDINAL="806" NAME="??0QStyleOptionFocusRect@@QAE@XZ" PURGE="0" COMMENT="" />
    <EXPORT ORDINAL="807" NAME="??0QStyleOptionFrame@@IAE@H@Z" PURGE="4" COMMENT="" />
    <EXPORT ORDINAL="808" NAME="??0QStyleOptionFrame@@QAE@ABV0@@Z" PURGE="4" COMMENT="" />
    <EXPORT ORDINAL="809" NAME="??0QStyleOptionFrame@@QAE@XZ" PURGE="0" COMMENT="" />
    <EXPORT ORDINAL="810" NAME="??0QStyleOptionFrameV2@@IAE@H@Z" PURGE="4" COMMENT="" />
    <EXPORT ORDINAL="811" NAME="??0QStyleOptionFrameV2@@QAE@ABV0@@Z" PURGE="4" COMMENT="" />
    <EXPORT ORDINAL="812" NAME="??0QStyleOptionFrameV2@@QAE@ABVQStyleOptionFrame@@@Z" PURGE="4" COMMENT="" />
    <EXPORT ORDINAL="813" NAME="??0QStyleOptionFrameV2@@QAE@XZ" PURGE="0" COMMENT="" />
    <EXPORT ORDINAL="814" NAME="??0QStyleOptionFrameV3@@IAE@H@Z" PURGE="4" COMMENT="" />
    <EXPORT ORDINAL="815" NAME="??0QStyleOptionFrameV3@@QAE@ABV0@@Z" PURGE="4" COMMENT="" />
    <EXPORT ORDINAL="816" NAME="??0QStyleOptionFrameV3@@QAE@ABVQStyleOptionFrame@@@Z" PURGE="4" COMMENT="" />
    <EXPORT ORDINAL="817" NAME="??0QStyleOptionFrameV3@@QAE@XZ" PURGE="0" COMMENT="" />
    <EXPORT ORDINAL="818" NAME="??0QStyleOptionGraphicsItem@@IAE@H@Z" PURGE="4" COMMENT="" />
    <EXPORT ORDINAL="819" NAME="??0QStyleOptionGraphicsItem@@QAE@ABV0@@Z" PURGE="4" COMMENT="" />
    <EXPORT ORDINAL="820" NAME="??0QStyleOptionGraphicsItem@@QAE@XZ" PURGE="0" COMMENT="" />
    <EXPORT ORDINAL="821" NAME="??0QStyleOptionGroupBox@@IAE@H@Z" PURGE="4" COMMENT="" />
    <EXPORT ORDINAL="822" NAME="??0QStyleOptionGroupBox@@QAE@ABV0@@Z" PURGE="4" COMMENT="" />
    <EXPORT ORDINAL="823" NAME="??0QStyleOptionGroupBox@@QAE@XZ" PURGE="0" COMMENT="" />
    <EXPORT ORDINAL="824" NAME="??0QStyleOptionHeader@@IAE@H@Z" PURGE="4" COMMENT="" />
    <EXPORT ORDINAL="825" NAME="??0QStyleOptionHeader@@QAE@ABV0@@Z" PURGE="4" COMMENT="" />
    <EXPORT ORDINAL="826" NAME="??0QStyleOptionHeader@@QAE@XZ" PURGE="0" COMMENT="" />
    <EXPORT ORDINAL="827" NAME="??0QStyleOptionMenuItem@@IAE@H@Z" PURGE="4" COMMENT="" />
    <EXPORT ORDINAL="828" NAME="??0QStyleOptionMenuItem@@QAE@ABV0@@Z" PURGE="4" COMMENT="" />
    <EXPORT ORDINAL="829" NAME="??0QStyleOptionMenuItem@@QAE@XZ" PURGE="0" COMMENT="" />
    <EXPORT ORDINAL="830" NAME="??0QStyleOptionProgressBar@@IAE@H@Z" PURGE="4" COMMENT="" />
    <EXPORT ORDINAL="831" NAME="??0QStyleOptionProgressBar@@QAE@ABV0@@Z" PURGE="4" COMMENT="" />
    <EXPORT ORDINAL="832" NAME="??0QStyleOptionProgressBar@@QAE@XZ" PURGE="0" COMMENT="" />
    <EXPORT ORDINAL="833" NAME="??0QStyleOptionProgressBarV2@@IAE@H@Z" PURGE="4" COMMENT="" />
    <EXPORT ORDINAL="834" NAME="??0QStyleOptionProgressBarV2@@QAE@ABV0@@Z" PURGE="4" COMMENT="" />
    <EXPORT ORDINAL="835" NAME="??0QStyleOptionProgressBarV2@@QAE@ABVQStyleOptionProgressBar@@@Z" PURGE="4" COMMENT="" />
    <EXPORT ORDINAL="836" NAME="??0QStyleOptionProgressBarV2@@QAE@XZ" PURGE="0" COMMENT="" />
    <EXPORT ORDINAL="837" NAME="??0QStyleOptionQ3DockWindow@@IAE@H@Z" PURGE="4" COMMENT="" />
    <EXPORT ORDINAL="838" NAME="??0QStyleOptionQ3DockWindow@@QAE@ABV0@@Z" PURGE="4" COMMENT="" />
    <EXPORT ORDINAL="839" NAME="??0QStyleOptionQ3DockWindow@@QAE@XZ" PURGE="0" COMMENT="" />
    <EXPORT ORDINAL="840" NAME="??0QStyleOptionQ3ListView@@IAE@H@Z" PURGE="4" COMMENT="" />
    <EXPORT ORDINAL="841" NAME="??0QStyleOptionQ3ListView@@QAE@ABV0@@Z" PURGE="4" COMMENT="" />
    <EXPORT ORDINAL="842" NAME="??0QStyleOptionQ3ListView@@QAE@XZ" PURGE="0" COMMENT="" />
    <EXPORT ORDINAL="843" NAME="??0QStyleOptionQ3ListViewItem@@IAE@H@Z" PURGE="4" COMMENT="" />
    <EXPORT ORDINAL="844" NAME="??0QStyleOptionQ3ListViewItem@@QAE@ABV0@@Z" PURGE="4" COMMENT="" />
    <EXPORT ORDINAL="845" NAME="??0QStyleOptionQ3ListViewItem@@QAE@XZ" PURGE="0" COMMENT="" />
    <EXPORT ORDINAL="846" NAME="??0QStyleOptionRubberBand@@IAE@H@Z" PURGE="4" COMMENT="" />
    <EXPORT ORDINAL="847" NAME="??0QStyleOptionRubberBand@@QAE@ABV0@@Z" PURGE="4" COMMENT="" />
    <EXPORT ORDINAL="848" NAME="??0QStyleOptionRubberBand@@QAE@XZ" PURGE="0" COMMENT="" />
    <EXPORT ORDINAL="849" NAME="??0QStyleOptionSizeGrip@@IAE@H@Z" PURGE="4" COMMENT="" />
    <EXPORT ORDINAL="850" NAME="??0QStyleOptionSizeGrip@@QAE@ABV0@@Z" PURGE="4" COMMENT="" />
    <EXPORT ORDINAL="851" NAME="??0QStyleOptionSizeGrip@@QAE@XZ" PURGE="0" COMMENT="" />
    <EXPORT ORDINAL="852" NAME="??0QStyleOptionSlider@@IAE@H@Z" PURGE="4" COMMENT="" />
    <EXPORT ORDINAL="853" NAME="??0QStyleOptionSlider@@QAE@ABV0@@Z" PURGE="4" COMMENT="" />
    <EXPORT ORDINAL="854" NAME="??0QStyleOptionSlider@@QAE@XZ" PURGE="0" COMMENT="" />
    <EXPORT ORDINAL="855" NAME="??0QStyleOptionSpinBox@@IAE@H@Z" PURGE="4" COMMENT="" />
    <EXPORT ORDINAL="856" NAME="??0QStyleOptionSpinBox@@QAE@ABV0@@Z" PURGE="4" COMMENT="" />
    <EXPORT ORDINAL="857" NAME="??0QStyleOptionSpinBox@@QAE@XZ" PURGE="0" COMMENT="" />
    <EXPORT ORDINAL="858" NAME="??0QStyleOptionTab@@IAE@H@Z" PURGE="4" COMMENT="" />
    <EXPORT ORDINAL="859" NAME="??0QStyleOptionTab@@QAE@ABV0@@Z" PURGE="4" COMMENT="" />
    <EXPORT ORDINAL="860" NAME="??0QStyleOptionTab@@QAE@XZ" PURGE="0" COMMENT="" />
    <EXPORT ORDINAL="861" NAME="??0QStyleOptionTabBarBase@@IAE@H@Z" PURGE="4" COMMENT="" />
    <EXPORT ORDINAL="862" NAME="??0QStyleOptionTabBarBase@@QAE@ABV0@@Z" PURGE="4" COMMENT="" />
    <EXPORT ORDINAL="863" NAME="??0QStyleOptionTabBarBase@@QAE@XZ" PURGE="0" COMMENT="" />
    <EXPORT ORDINAL="864" NAME="??0QStyleOptionTabBarBaseV2@@IAE@H@Z" PURGE="4" COMMENT="" />
    <EXPORT ORDINAL="865" NAME="??0QStyleOptionTabBarBaseV2@@QAE@ABV0@@Z" PURGE="4" COMMENT="" />
    <EXPORT ORDINAL="866" NAME="??0QStyleOptionTabBarBaseV2@@QAE@ABVQStyleOptionTabBarBase@@@Z" PURGE="4" COMMENT="" />
    <EXPORT ORDINAL="867" NAME="??0QStyleOptionTabBarBaseV2@@QAE@XZ" PURGE="0" COMMENT="" />
    <EXPORT ORDINAL="868" NAME="??0QStyleOptionTabV2@@IAE@H@Z" PURGE="4" COMMENT="" />
    <EXPORT ORDINAL="869" NAME="??0QStyleOptionTabV2@@QAE@ABV0@@Z" PURGE="4" COMMENT="" />
    <EXPORT ORDINAL="870" NAME="??0QStyleOptionTabV2@@QAE@ABVQStyleOptionTab@@@Z" PURGE="4" COMMENT="" />
    <EXPORT ORDINAL="871" NAME="??0QStyleOptionTabV2@@QAE@XZ" PURGE="0" COMMENT="" />
    <EXPORT ORDINAL="872" NAME="??0QStyleOptionTabV3@@IAE@H@Z" PURGE="4" COMMENT="" />
    <EXPORT ORDINAL="873" NAME="??0QStyleOptionTabV3@@QAE@ABV0@@Z" PURGE="4" COMMENT="" />
    <EXPORT ORDINAL="874" NAME="??0QStyleOptionTabV3@@QAE@ABVQStyleOptionTab@@@Z" PURGE="4" COMMENT="" />
    <EXPORT ORDINAL="875" NAME="??0QStyleOptionTabV3@@QAE@ABVQStyleOptionTabV2@@@Z" PURGE="4" COMMENT="" />
    <EXPORT ORDINAL="876" NAME="??0QStyleOptionTabV3@@QAE@XZ" PURGE="0" COMMENT="" />
    <EXPORT ORDINAL="877" NAME="??0QStyleOptionTabWidgetFrame@@IAE@H@Z" PURGE="4" COMMENT="" />
    <EXPORT ORDINAL="878" NAME="??0QStyleOptionTabWidgetFrame@@QAE@ABV0@@Z" PURGE="4" COMMENT="" />
    <EXPORT ORDINAL="879" NAME="??0QStyleOptionTabWidgetFrame@@QAE@XZ" PURGE="0" COMMENT="" />
    <EXPORT ORDINAL="880" NAME="??0QStyleOptionTabWidgetFrameV2@@IAE@H@Z" PURGE="4" COMMENT="" />
    <EXPORT ORDINAL="881" NAME="??0QStyleOptionTabWidgetFrameV2@@QAE@ABV0@@Z" PURGE="4" COMMENT="" />
    <EXPORT ORDINAL="882" NAME="??0QStyleOptionTabWidgetFrameV2@@QAE@ABVQStyleOptionTabWidgetFrame@@@Z" PURGE="4" COMMENT="" />
    <EXPORT ORDINAL="883" NAME="??0QStyleOptionTabWidgetFrameV2@@QAE@XZ" PURGE="0" COMMENT="" />
    <EXPORT ORDINAL="884" NAME="??0QStyleOptionTitleBar@@IAE@H@Z" PURGE="4" COMMENT="" />
    <EXPORT ORDINAL="885" NAME="??0QStyleOptionTitleBar@@QAE@ABV0@@Z" PURGE="4" COMMENT="" />
    <EXPORT ORDINAL="886" NAME="??0QStyleOptionTitleBar@@QAE@XZ" PURGE="0" COMMENT="" />
    <EXPORT ORDINAL="887" NAME="??0QStyleOptionToolBar@@IAE@H@Z" PURGE="4" COMMENT="" />
    <EXPORT ORDINAL="888" NAME="??0QStyleOptionToolBar@@QAE@ABV0@@Z" PURGE="4" COMMENT="" />
    <EXPORT ORDINAL="889" NAME="??0QStyleOptionToolBar@@QAE@XZ" PURGE="0" COMMENT="" />
    <EXPORT ORDINAL="890" NAME="??0QStyleOptionToolBox@@IAE@H@Z" PURGE="4" COMMENT="" />
    <EXPORT ORDINAL="891" NAME="??0QStyleOptionToolBox@@QAE@ABV0@@Z" PURGE="4" COMMENT="" />
    <EXPORT ORDINAL="892" NAME="??0QStyleOptionToolBox@@QAE@XZ" PURGE="0" COMMENT="" />
    <EXPORT ORDINAL="893" NAME="??0QStyleOptionToolBoxV2@@IAE@H@Z" PURGE="4" COMMENT="" />
    <EXPORT ORDINAL="894" NAME="??0QStyleOptionToolBoxV2@@QAE@ABV0@@Z" PURGE="4" COMMENT="" />
    <EXPORT ORDINAL="895" NAME="??0QStyleOptionToolBoxV2@@QAE@ABVQStyleOptionToolBox@@@Z" PURGE="4" COMMENT="" />
    <EXPORT ORDINAL="896" NAME="??0QStyleOptionToolBoxV2@@QAE@XZ" PURGE="0" COMMENT="" />
    <EXPORT ORDINAL="897" NAME="??0QStyleOptionToolButton@@IAE@H@Z" PURGE="4" COMMENT="" />
    <EXPORT ORDINAL="898" NAME="??0QStyleOptionToolButton@@QAE@ABV0@@Z" PURGE="4" COMMENT="" />
    <EXPORT ORDINAL="899" NAME="??0QStyleOptionToolButton@@QAE@XZ" PURGE="0" COMMENT="" />
    <EXPORT ORDINAL="900" NAME="??0QStyleOptionViewItem@@IAE@H@Z" PURGE="4" COMMENT="" />
    <EXPORT ORDINAL="901" NAME="??0QStyleOptionViewItem@@QAE@ABV0@@Z" PURGE="4" COMMENT="" />
    <EXPORT ORDINAL="902" NAME="??0QStyleOptionViewItem@@QAE@XZ" PURGE="0" COMMENT="" />
    <EXPORT ORDINAL="903" NAME="??0QStyleOptionViewItemV2@@IAE@H@Z" PURGE="4" COMMENT="" />
    <EXPORT ORDINAL="904" NAME="??0QStyleOptionViewItemV2@@QAE@ABV0@@Z" PURGE="4" COMMENT="" />
    <EXPORT ORDINAL="905" NAME="??0QStyleOptionViewItemV2@@QAE@ABVQStyleOptionViewItem@@@Z" PURGE="4" COMMENT="" />
    <EXPORT ORDINAL="906" NAME="??0QStyleOptionViewItemV2@@QAE@XZ" PURGE="0" COMMENT="" />
    <EXPORT ORDINAL="907" NAME="??0QStyleOptionViewItemV3@@IAE@H@Z" PURGE="4" COMMENT="" />
    <EXPORT ORDINAL="908" NAME="??0QStyleOptionViewItemV3@@QAE@ABV0@@Z" PURGE="4" COMMENT="" />
    <EXPORT ORDINAL="909" NAME="??0QStyleOptionViewItemV3@@QAE@ABVQStyleOptionViewItem@@@Z" PURGE="4" COMMENT="" />
    <EXPORT ORDINAL="910" NAME="??0QStyleOptionViewItemV3@@QAE@XZ" PURGE="0" COMMENT="" />
    <EXPORT ORDINAL="911" NAME="??0QStyleOptionViewItemV4@@IAE@H@Z" PURGE="4" COMMENT="" />
    <EXPORT ORDINAL="912" NAME="??0QStyleOptionViewItemV4@@QAE@ABV0@@Z" PURGE="4" COMMENT="" />
    <EXPORT ORDINAL="913" NAME="??0QStyleOptionViewItemV4@@QAE@ABVQStyleOptionViewItem@@@Z" PURGE="4" COMMENT="" />
    <EXPORT ORDINAL="914" NAME="??0QStyleOptionViewItemV4@@QAE@XZ" PURGE="0" COMMENT="" />
    <EXPORT ORDINAL="915" NAME="??0QStylePlugin@@QAE@PAVQObject@@@Z" PURGE="4" COMMENT="" />
    <EXPORT ORDINAL="916" NAME="??0QStyledItemDelegate@@QAE@PAVQObject@@@Z" PURGE="4" COMMENT="" />
    <EXPORT ORDINAL="917" NAME="??0QSwipeGesture@@QAE@PAVQObject@@@Z" PURGE="4" COMMENT="" />
    <EXPORT ORDINAL="918" NAME="??0QSyntaxHighlighter@@QAE@PAVQObject@@@Z" PURGE="4" COMMENT="" />
    <EXPORT ORDINAL="919" NAME="??0QSyntaxHighlighter@@QAE@PAVQTextDocument@@@Z" PURGE="4" COMMENT="" />
    <EXPORT ORDINAL="920" NAME="??0QSyntaxHighlighter@@QAE@PAVQTextEdit@@@Z" PURGE="4" COMMENT="" />
    <EXPORT ORDINAL="921" NAME="??0QSystemTrayIcon@@QAE@ABVQIcon@@PAVQObject@@@Z" PURGE="8" COMMENT="" />
    <EXPORT ORDINAL="922" NAME="??0QSystemTrayIcon@@QAE@PAVQObject@@@Z" PURGE="4" COMMENT="" />
    <EXPORT ORDINAL="923" NAME="??0QTabBar@@QAE@PAVQWidget@@@Z" PURGE="4" COMMENT="" />
    <EXPORT ORDINAL="924" NAME="??0QTabWidget@@QAE@PAVQWidget@@@Z" PURGE="4" COMMENT="" />
    <EXPORT ORDINAL="925" NAME="??0QTabWidget@@QAE@PAVQWidget@@PBDV?$QFlags@W4WindowType@Qt@@@@@Z" PURGE="12" COMMENT="" />
    <EXPORT ORDINAL="926" NAME="??0QTableView@@IAE@AAVQTableViewPrivate@@PAVQWidget@@@Z" PURGE="8" COMMENT="" />
    <EXPORT ORDINAL="927" NAME="??0QTableView@@QAE@PAVQWidget@@@Z" PURGE="4" COMMENT="" />
    <EXPORT ORDINAL="928" NAME="??0QTableWidget@@QAE@HHPAVQWidget@@@Z" PURGE="12" COMMENT="" />
    <EXPORT ORDINAL="929" NAME="??0QTableWidget@@QAE@PAVQWidget@@@Z" PURGE="4" COMMENT="" />
    <EXPORT ORDINAL="930" NAME="??0QTableWidgetItem@@QAE@ABV0@@Z" PURGE="4" COMMENT="" />
    <EXPORT ORDINAL="931" NAME="??0QTableWidgetItem@@QAE@ABVQIcon@@ABVQString@@H@Z" PURGE="12" COMMENT="" />
    <EXPORT ORDINAL="932" NAME="??0QTableWidgetItem@@QAE@ABVQString@@H@Z" PURGE="8" COMMENT="" />
    <EXPORT ORDINAL="933" NAME="??0QTableWidgetItem@@QAE@H@Z" PURGE="4" COMMENT="" />
    <EXPORT ORDINAL="934" NAME="??0QTableWidgetSelectionRange@@QAE@ABV0@@Z" PURGE="4" COMMENT="" />
    <EXPORT ORDINAL="935" NAME="??0QTableWidgetSelectionRange@@QAE@HHHH@Z" PURGE="16" COMMENT="" />
    <EXPORT ORDINAL="936" NAME="??0QTableWidgetSelectionRange@@QAE@XZ" PURGE="0" COMMENT="" />
    <EXPORT ORDINAL="937" NAME="??0QTabletEvent@@QAE@ABV0@@Z" PURGE="4" COMMENT="" />
    <EXPORT ORDINAL="938" NAME="??0QTabletEvent@@QAE@W4Type@QEvent@@ABVQPoint@@1ABVQPointF@@HHNHHNNHV?$QFlags@W4KeyboardModifier@Qt@@@@_J@Z" PURGE="72" COMMENT="" />
    <EXPORT ORDINAL="939" NAME="??0QTapAndHoldGesture@@QAE@PAVQObject@@@Z" PURGE="4" COMMENT="" />
    <EXPORT ORDINAL="940" NAME="??0QTapGesture@@QAE@PAVQObject@@@Z" PURGE="4" COMMENT="" />
    <EXPORT ORDINAL="941" NAME="??0QTessellator@@QAE@ABV0@@Z" PURGE="4" COMMENT="" />
    <EXPORT ORDINAL="942" NAME="??0QTessellator@@QAE@XZ" PURGE="0" COMMENT="" />
    <EXPORT ORDINAL="943" NAME="??0QTextBlock@@QAE@ABV0@@Z" PURGE="4" COMMENT="" />
    <EXPORT ORDINAL="944" NAME="??0QTextBlock@@QAE@PAVQTextDocumentPrivate@@H@Z" PURGE="8" COMMENT="" />
    <EXPORT ORDINAL="945" NAME="??0QTextBlock@@QAE@XZ" PURGE="0" COMMENT="" />
    <EXPORT ORDINAL="946" NAME="??0QTextBlockFormat@@IAE@ABVQTextFormat@@@Z" PURGE="4" COMMENT="" />
    <EXPORT ORDINAL="947" NAME="??0QTextBlockFormat@@QAE@ABV0@@Z" PURGE="4" COMMENT="" />
    <EXPORT ORDINAL="948" NAME="??0QTextBlockFormat@@QAE@XZ" PURGE="0" COMMENT="" />
    <EXPORT ORDINAL="949" NAME="??0QTextBlockGroup@@IAE@AAVQTextBlockGroupPrivate@@PAVQTextDocument@@@Z" PURGE="8" COMMENT="" />
    <EXPORT ORDINAL="950" NAME="??0QTextBlockGroup@@IAE@PAVQTextDocument@@@Z" PURGE="4" COMMENT="" />
    <EXPORT ORDINAL="951" NAME="??0QTextBlockUserData@@QAE@ABV0@@Z" PURGE="4" COMMENT="" />
    <EXPORT ORDINAL="952" NAME="??0QTextBlockUserData@@QAE@XZ" PURGE="0" COMMENT="" />
    <EXPORT ORDINAL="953" NAME="??0QTextBrowser@@QAE@PAVQWidget@@@Z" PURGE="4" COMMENT="" />
    <EXPORT ORDINAL="954" NAME="??0QTextBrowser@@QAE@PAVQWidget@@PBD@Z" PURGE="8" COMMENT="" />
    <EXPORT ORDINAL="955" NAME="??0QTextCharFormat@@IAE@ABVQTextFormat@@@Z" PURGE="4" COMMENT="" />
    <EXPORT ORDINAL="956" NAME="??0QTextCharFormat@@QAE@ABV0@@Z" PURGE="4" COMMENT="" />
    <EXPORT ORDINAL="957" NAME="??0QTextCharFormat@@QAE@XZ" PURGE="0" COMMENT="" />
    <EXPORT ORDINAL="958" NAME="??0QTextControl@@QAE@ABVQString@@PAVQObject@@@Z" PURGE="8" COMMENT="" />
    <EXPORT ORDINAL="959" NAME="??0QTextControl@@QAE@PAVQObject@@@Z" PURGE="4" COMMENT="" />
    <EXPORT ORDINAL="960" NAME="??0QTextControl@@QAE@PAVQTextDocument@@PAVQObject@@@Z" PURGE="8" COMMENT="" />
    <EXPORT ORDINAL="961" NAME="??0QTextCursor@@QAE@ABV0@@Z" PURGE="4" COMMENT="" />
    <EXPORT ORDINAL="962" NAME="??0QTextCursor@@QAE@ABVQTextBlock@@@Z" PURGE="4" COMMENT="" />
    <EXPORT ORDINAL="963" NAME="??0QTextCursor@@QAE@PAVQTextCursorPrivate@@@Z" PURGE="4" COMMENT="" />
    <EXPORT ORDINAL="964" NAME="??0QTextCursor@@QAE@PAVQTextDocument@@@Z" PURGE="4" COMMENT="" />
    <EXPORT ORDINAL="965" NAME="??0QTextCursor@@QAE@PAVQTextDocumentPrivate@@H@Z" PURGE="8" COMMENT="" />
    <EXPORT ORDINAL="966" NAME="??0QTextCursor@@QAE@PAVQTextFrame@@@Z" PURGE="4" COMMENT="" />
    <EXPORT ORDINAL="967" NAME="??0QTextCursor@@QAE@XZ" PURGE="0" COMMENT="" />
    <EXPORT ORDINAL="968" NAME="??0QTextDocument@@IAE@AAVQTextDocumentPrivate@@PAVQObject@@@Z" PURGE="8" COMMENT="" />
    <EXPORT ORDINAL="969" NAME="??0QTextDocument@@QAE@ABVQString@@PAVQObject@@@Z" PURGE="8" COMMENT="" />
    <EXPORT ORDINAL="970" NAME="??0QTextDocument@@QAE@PAVQObject@@@Z" PURGE="4" COMMENT="" />
    <EXPORT ORDINAL="971" NAME="??0QTextDocumentFragment@@QAE@ABV0@@Z" PURGE="4" COMMENT="" />
    <EXPORT ORDINAL="972" NAME="??0QTextDocumentFragment@@QAE@ABVQTextCursor@@@Z" PURGE="4" COMMENT="" />
    <EXPORT ORDINAL="973" NAME="??0QTextDocumentFragment@@QAE@PBVQTextDocument@@@Z" PURGE="4" COMMENT="" />
    <EXPORT ORDINAL="974" NAME="??0QTextDocumentFragment@@QAE@XZ" PURGE="0" COMMENT="" />
    <EXPORT ORDINAL="975" NAME="??0QTextDocumentWriter@@QAE@ABVQString@@ABVQByteArray@@@Z" PURGE="8" COMMENT="" />
    <EXPORT ORDINAL="976" NAME="??0QTextDocumentWriter@@QAE@PAVQIODevice@@ABVQByteArray@@@Z" PURGE="8" COMMENT="" />
    <EXPORT ORDINAL="977" NAME="??0QTextDocumentWriter@@QAE@XZ" PURGE="0" COMMENT="" />
    <EXPORT ORDINAL="978" NAME="??0QTextEdit@@IAE@AAVQTextEditPrivate@@PAVQWidget@@@Z" PURGE="8" COMMENT="" />
    <EXPORT ORDINAL="979" NAME="??0QTextEdit@@QAE@ABVQString@@PAVQWidget@@@Z" PURGE="8" COMMENT="" />
    <EXPORT ORDINAL="980" NAME="??0QTextEdit@@QAE@PAVQWidget@@@Z" PURGE="4" COMMENT="" />
    <EXPORT ORDINAL="981" NAME="??0QTextEdit@@QAE@PAVQWidget@@PBD@Z" PURGE="8" COMMENT="" />
    <EXPORT ORDINAL="982" NAME="??0QTextEngine@@QAE@ABV0@@Z" PURGE="4" COMMENT="" />
    <EXPORT ORDINAL="983" NAME="??0QTextEngine@@QAE@ABVQString@@ABVQFont@@@Z" PURGE="8" COMMENT="" />
    <EXPORT ORDINAL="984" NAME="??0QTextEngine@@QAE@XZ" PURGE="0" COMMENT="" />
    <EXPORT ORDINAL="985" NAME="??0QTextFormat@@QAE@ABV0@@Z" PURGE="4" COMMENT="" />
    <EXPORT ORDINAL="986" NAME="??0QTextFormat@@QAE@H@Z" PURGE="4" COMMENT="" />
    <EXPORT ORDINAL="987" NAME="??0QTextFormat@@QAE@XZ" PURGE="0" COMMENT="" />
    <EXPORT ORDINAL="988" NAME="??0QTextFormatCollection@@QAE@ABV0@@Z" PURGE="4" COMMENT="" />
    <EXPORT ORDINAL="989" NAME="??0QTextFormatCollection@@QAE@XZ" PURGE="0" COMMENT="" />
    <EXPORT ORDINAL="990" NAME="??0QTextFragment@@QAE@ABV0@@Z" PURGE="4" COMMENT="" />
    <EXPORT ORDINAL="991" NAME="??0QTextFragment@@QAE@PBVQTextDocumentPrivate@@HH@Z" PURGE="12" COMMENT="" />
    <EXPORT ORDINAL="992" NAME="??0QTextFragment@@QAE@XZ" PURGE="0" COMMENT="" />
    <EXPORT ORDINAL="993" NAME="??0QTextFrame@@IAE@AAVQTextFramePrivate@@PAVQTextDocument@@@Z" PURGE="8" COMMENT="" />
    <EXPORT ORDINAL="994" NAME="??0QTextFrame@@QAE@PAVQTextDocument@@@Z" PURGE="4" COMMENT="" />
    <EXPORT ORDINAL="995" NAME="??0QTextFrameFormat@@IAE@ABVQTextFormat@@@Z" PURGE="4" COMMENT="" />
    <EXPORT ORDINAL="996" NAME="??0QTextFrameFormat@@QAE@ABV0@@Z" PURGE="4" COMMENT="" />
    <EXPORT ORDINAL="997" NAME="??0QTextFrameFormat@@QAE@XZ" PURGE="0" COMMENT="" />
    <EXPORT ORDINAL="998" NAME="??0QTextFrameLayoutData@@QAE@ABV0@@Z" PURGE="4" COMMENT="" />
    <EXPORT ORDINAL="999" NAME="??0QTextFrameLayoutData@@QAE@XZ" PURGE="0" COMMENT="" />
    <EXPORT ORDINAL="1000" NAME="??0QTextImageFormat@@IAE@ABVQTextFormat@@@Z" PURGE="4" COMMENT="" />
    <EXPORT ORDINAL="1001" NAME="??0QTextImageFormat@@QAE@ABV0@@Z" PURGE="4" COMMENT="" />
    <EXPORT ORDINAL="1002" NAME="??0QTextImageFormat@@QAE@XZ" PURGE="0" COMMENT="" />
    <EXPORT ORDINAL="1003" NAME="??0QTextInlineObject@@QAE@HPAVQTextEngine@@@Z" PURGE="8" COMMENT="" />
    <EXPORT ORDINAL="1004" NAME="??0QTextInlineObject@@QAE@XZ" PURGE="0" COMMENT="" />
    <EXPORT ORDINAL="1005" NAME="??0QTextLayout@@AAE@PAVQTextEngine@@@Z" PURGE="4" COMMENT="" />
    <EXPORT ORDINAL="1006" NAME="??0QTextLayout@@QAE@ABVQString@@@Z" PURGE="4" COMMENT="" />
    <EXPORT ORDINAL="1007" NAME="??0QTextLayout@@QAE@ABVQString@@ABVQFont@@PAVQPaintDevice@@@Z" PURGE="12" COMMENT="" />
    <EXPORT ORDINAL="1008" NAME="??0QTextLayout@@QAE@ABVQTextBlock@@@Z" PURGE="4" COMMENT="" />
    <EXPORT ORDINAL="1009" NAME="??0QTextLayout@@QAE@XZ" PURGE="0" COMMENT="" />
    <EXPORT ORDINAL="1010" NAME="??0QTextLength@@QAE@W4Type@0@N@Z" PURGE="12" COMMENT="" />
    <EXPORT ORDINAL="1011" NAME="??0QTextLength@@QAE@XZ" PURGE="0" COMMENT="" />
    <EXPORT ORDINAL="1012" NAME="??0QTextLine@@AAE@HPAVQTextEngine@@@Z" PURGE="8" COMMENT="" />
    <EXPORT ORDINAL="1013" NAME="??0QTextLine@@QAE@XZ" PURGE="0" COMMENT="" />
    <EXPORT ORDINAL="1014" NAME="??0QTextList@@QAE@PAVQTextDocument@@@Z" PURGE="4" COMMENT="" />
    <EXPORT ORDINAL="1015" NAME="??0QTextListFormat@@IAE@ABVQTextFormat@@@Z" PURGE="4" COMMENT="" />
    <EXPORT ORDINAL="1016" NAME="??0QTextListFormat@@QAE@ABV0@@Z" PURGE="4" COMMENT="" />
    <EXPORT ORDINAL="1017" NAME="??0QTextListFormat@@QAE@XZ" PURGE="0" COMMENT="" />
    <EXPORT ORDINAL="1018" NAME="??0QTextObject@@IAE@AAVQTextObjectPrivate@@PAVQTextDocument@@@Z" PURGE="8" COMMENT="" />
    <EXPORT ORDINAL="1019" NAME="??0QTextObject@@IAE@PAVQTextDocument@@@Z" PURGE="4" COMMENT="" />
    <EXPORT ORDINAL="1020" NAME="??0QTextObjectInterface@@QAE@ABV0@@Z" PURGE="4" COMMENT="" />
    <EXPORT ORDINAL="1021" NAME="??0QTextObjectInterface@@QAE@XZ" PURGE="0" COMMENT="" />
    <EXPORT ORDINAL="1022" NAME="??0QTextOption@@QAE@ABV0@@Z" PURGE="4" COMMENT="" />
    <EXPORT ORDINAL="1023" NAME="??0QTextOption@@QAE@V?$QFlags@W4AlignmentFlag@Qt@@@@@Z" PURGE="4" COMMENT="" />
    <EXPORT ORDINAL="1024" NAME="??0QTextOption@@QAE@XZ" PURGE="0" COMMENT="" />
    <EXPORT ORDINAL="1025" NAME="??0QTextTable@@QAE@PAVQTextDocument@@@Z" PURGE="4" COMMENT="" />
    <EXPORT ORDINAL="1026" NAME="??0QTextTableCell@@AAE@PBVQTextTable@@H@Z" PURGE="8" COMMENT="" />
    <EXPORT ORDINAL="1027" NAME="??0QTextTableCell@@QAE@ABV0@@Z" PURGE="4" COMMENT="" />
    <EXPORT ORDINAL="1028" NAME="??0QTextTableCell@@QAE@XZ" PURGE="0" COMMENT="" />
    <EXPORT ORDINAL="1029" NAME="??0QTextTableCellFormat@@IAE@ABVQTextFormat@@@Z" PURGE="4" COMMENT="" />
    <EXPORT ORDINAL="1030" NAME="??0QTextTableCellFormat@@QAE@ABV0@@Z" PURGE="4" COMMENT="" />
    <EXPORT ORDINAL="1031" NAME="??0QTextTableCellFormat@@QAE@XZ" PURGE="0" COMMENT="" />
    <EXPORT ORDINAL="1032" NAME="??0QTextTableFormat@@IAE@ABVQTextFormat@@@Z" PURGE="4" COMMENT="" />
    <EXPORT ORDINAL="1033" NAME="??0QTextTableFormat@@QAE@ABV0@@Z" PURGE="4" COMMENT="" />
    <EXPORT ORDINAL="1034" NAME="??0QTextTableFormat@@QAE@XZ" PURGE="0" COMMENT="" />
    <EXPORT ORDINAL="1035" NAME="??0QTextureGlyphCache@@QAE@ABV0@@Z" PURGE="4" COMMENT="" />
    <EXPORT ORDINAL="1036" NAME="??0QTextureGlyphCache@@QAE@W4Type@QFontEngineGlyphCache@@ABVQTransform@@@Z" PURGE="8" COMMENT="" />
    <EXPORT ORDINAL="1037" NAME="??0QTimeEdit@@QAE@ABVQTime@@PAVQWidget@@@Z" PURGE="8" COMMENT="" />
    <EXPORT ORDINAL="1038" NAME="??0QTimeEdit@@QAE@PAVQWidget@@@Z" PURGE="4" COMMENT="" />
    <EXPORT ORDINAL="1039" NAME="??0QToolBar@@QAE@ABVQString@@PAVQWidget@@@Z" PURGE="8" COMMENT="" />
    <EXPORT ORDINAL="1040" NAME="??0QToolBar@@QAE@PAVQWidget@@@Z" PURGE="4" COMMENT="" />
    <EXPORT ORDINAL="1041" NAME="??0QToolBar@@QAE@PAVQWidget@@PBD@Z" PURGE="8" COMMENT="" />
    <EXPORT ORDINAL="1042" NAME="??0QToolBarChangeEvent@@QAE@ABV0@@Z" PURGE="4" COMMENT="" />
    <EXPORT ORDINAL="1043" NAME="??0QToolBarChangeEvent@@QAE@_N@Z" PURGE="4" COMMENT="" />
    <EXPORT ORDINAL="1044" NAME="??0QToolBox@@QAE@PAVQWidget@@PBDV?$QFlags@W4WindowType@Qt@@@@@Z" PURGE="12" COMMENT="" />
    <EXPORT ORDINAL="1045" NAME="??0QToolBox@@QAE@PAVQWidget@@V?$QFlags@W4WindowType@Qt@@@@@Z" PURGE="8" COMMENT="" />
    <EXPORT ORDINAL="1046" NAME="??0QToolButton@@IAE@AAVQToolButtonPrivate@@PAVQWidget@@@Z" PURGE="8" COMMENT="" />
    <EXPORT ORDINAL="1047" NAME="??0QToolButton@@QAE@ABVQIcon@@ABVQString@@1PAVQObject@@PBDPAVQWidget@@3@Z" PURGE="28" COMMENT="" />
    <EXPORT ORDINAL="1048" NAME="??0QToolButton@@QAE@PAVQWidget@@@Z" PURGE="4" COMMENT="" />
    <EXPORT ORDINAL="1049" NAME="??0QToolButton@@QAE@PAVQWidget@@PBD@Z" PURGE="8" COMMENT="" />
    <EXPORT ORDINAL="1050" NAME="??0QToolButton@@QAE@W4ArrowType@Qt@@PAVQWidget@@PBD@Z" PURGE="12" COMMENT="" />
    <EXPORT ORDINAL="1051" NAME="??0QTouchEvent@@QAE@ABV0@@Z" PURGE="4" COMMENT="" />
    <EXPORT ORDINAL="1052" NAME="??0QTouchEvent@@QAE@W4Type@QEvent@@W4DeviceType@0@V?$QFlags@W4KeyboardModifier@Qt@@@@V?$QFlags@W4TouchPointState@Qt@@@@ABV?$QList@VTouchPoint@QTouchEvent@@@@@Z" PURGE="20" COMMENT="" />
    <EXPORT ORDINAL="1053" NAME="??0QTransform@@AAE@NNNNNNNNN_N@Z" PURGE="76" COMMENT="" />
    <EXPORT ORDINAL="1054" NAME="??0QTransform@@AAE@_N@Z" PURGE="4" COMMENT="" />
    <EXPORT ORDINAL="1055" NAME="??0QTransform@@QAE@ABV0@@Z" PURGE="4" COMMENT="" />
    <EXPORT ORDINAL="1056" NAME="??0QTransform@@QAE@ABVQMatrix@@@Z" PURGE="4" COMMENT="" />
    <EXPORT ORDINAL="1057" NAME="??0QTransform@@QAE@NNNNNN@Z" PURGE="48" COMMENT="" />
    <EXPORT ORDINAL="1058" NAME="??0QTransform@@QAE@NNNNNNNNN@Z" PURGE="72" COMMENT="" />
    <EXPORT ORDINAL="1059" NAME="??0QTransform@@QAE@W4Initialization@Qt@@@Z" PURGE="4" COMMENT="" />
    <EXPORT ORDINAL="1060" NAME="??0QTransform@@QAE@XZ" PURGE="0" COMMENT="" />
    <EXPORT ORDINAL="1061" NAME="??0QTreeView@@IAE@AAVQTreeViewPrivate@@PAVQWidget@@@Z" PURGE="8" COMMENT="" />
    <EXPORT ORDINAL="1062" NAME="??0QTreeView@@QAE@PAVQWidget@@@Z" PURGE="4" COMMENT="" />
    <EXPORT ORDINAL="1063" NAME="??0QTreeViewPrivate@@QAE@XZ" PURGE="0" COMMENT="" />
    <EXPORT ORDINAL="1064" NAME="??0QTreeWidget@@QAE@PAVQWidget@@@Z" PURGE="4" COMMENT="" />
    <EXPORT ORDINAL="1065" NAME="??0QTreeWidgetItem@@QAE@ABV0@@Z" PURGE="4" COMMENT="" />
    <EXPORT ORDINAL="1066" NAME="??0QTreeWidgetItem@@QAE@ABVQStringList@@H@Z" PURGE="8" COMMENT="" />
    <EXPORT ORDINAL="1067" NAME="??0QTreeWidgetItem@@QAE@H@Z" PURGE="4" COMMENT="" />
    <EXPORT ORDINAL="1068" NAME="??0QTreeWidgetItem@@QAE@PAV0@0H@Z" PURGE="12" COMMENT="" />
    <EXPORT ORDINAL="1069" NAME="??0QTreeWidgetItem@@QAE@PAV0@ABVQStringList@@H@Z" PURGE="12" COMMENT="" />
    <EXPORT ORDINAL="1070" NAME="??0QTreeWidgetItem@@QAE@PAV0@H@Z" PURGE="8" COMMENT="" />
    <EXPORT ORDINAL="1071" NAME="??0QTreeWidgetItem@@QAE@PAVQTreeWidget@@ABVQStringList@@H@Z" PURGE="12" COMMENT="" />
    <EXPORT ORDINAL="1072" NAME="??0QTreeWidgetItem@@QAE@PAVQTreeWidget@@H@Z" PURGE="8" COMMENT="" />
    <EXPORT ORDINAL="1073" NAME="??0QTreeWidgetItem@@QAE@PAVQTreeWidget@@PAV0@H@Z" PURGE="12" COMMENT="" />
    <EXPORT ORDINAL="1074" NAME="??0QTreeWidgetItemIterator@@QAE@ABV0@@Z" PURGE="4" COMMENT="" />
    <EXPORT ORDINAL="1075" NAME="??0QTreeWidgetItemIterator@@QAE@PAVQTreeWidget@@V?$QFlags@W4IteratorFlag@QTreeWidgetItemIterator@@@@@Z" PURGE="8" COMMENT="" />
    <EXPORT ORDINAL="1076" NAME="??0QTreeWidgetItemIterator@@QAE@PAVQTreeWidgetItem@@V?$QFlags@W4IteratorFlag@QTreeWidgetItemIterator@@@@@Z" PURGE="8" COMMENT="" />
    <EXPORT ORDINAL="1077" NAME="??0QUndoCommand@@QAE@ABVQString@@PAV0@@Z" PURGE="8" COMMENT="" />
    <EXPORT ORDINAL="1078" NAME="??0QUndoCommand@@QAE@PAV0@@Z" PURGE="4" COMMENT="" />
    <EXPORT ORDINAL="1079" NAME="??0QUndoGroup@@QAE@PAVQObject@@@Z" PURGE="4" COMMENT="" />
    <EXPORT ORDINAL="1080" NAME="??0QUndoStack@@QAE@PAVQObject@@@Z" PURGE="4" COMMENT="" />
    <EXPORT ORDINAL="1081" NAME="??0QUndoView@@QAE@PAVQUndoGroup@@PAVQWidget@@@Z" PURGE="8" COMMENT="" />
    <EXPORT ORDINAL="1082" NAME="??0QUndoView@@QAE@PAVQUndoStack@@PAVQWidget@@@Z" PURGE="8" COMMENT="" />
    <EXPORT ORDINAL="1083" NAME="??0QUndoView@@QAE@PAVQWidget@@@Z" PURGE="4" COMMENT="" />
    <EXPORT ORDINAL="1084" NAME="??0QVBoxLayout@@QAE@HPBD@Z" PURGE="8" COMMENT="" />
    <EXPORT ORDINAL="1085" NAME="??0QVBoxLayout@@QAE@PAVQLayout@@HPBD@Z" PURGE="12" COMMENT="" />
    <EXPORT ORDINAL="1086" NAME="??0QVBoxLayout@@QAE@PAVQWidget@@@Z" PURGE="4" COMMENT="" />
    <EXPORT ORDINAL="1087" NAME="??0QVBoxLayout@@QAE@PAVQWidget@@HHPBD@Z" PURGE="16" COMMENT="" />
    <EXPORT ORDINAL="1088" NAME="??0QVBoxLayout@@QAE@XZ" PURGE="0" COMMENT="" />
    <EXPORT ORDINAL="1089" NAME="??0QValidator@@IAE@AAVQObjectPrivate@@PAVQObject@@@Z" PURGE="8" COMMENT="" />
    <EXPORT ORDINAL="1090" NAME="??0QValidator@@IAE@AAVQValidatorPrivate@@PAVQObject@@@Z" PURGE="8" COMMENT="" />
    <EXPORT ORDINAL="1091" NAME="??0QValidator@@QAE@PAVQObject@@@Z" PURGE="4" COMMENT="" />
    <EXPORT ORDINAL="1092" NAME="??0QValidator@@QAE@PAVQObject@@PBD@Z" PURGE="8" COMMENT="" />
    <EXPORT ORDINAL="1093" NAME="??0QVector2D@@AAE@MMH@Z" PURGE="12" COMMENT="" />
    <EXPORT ORDINAL="1094" NAME="??0QVector2D@@QAE@ABVQPoint@@@Z" PURGE="4" COMMENT="" />
    <EXPORT ORDINAL="1095" NAME="??0QVector2D@@QAE@ABVQPointF@@@Z" PURGE="4" COMMENT="" />
    <EXPORT ORDINAL="1096" NAME="??0QVector2D@@QAE@ABVQVector3D@@@Z" PURGE="4" COMMENT="" />
    <EXPORT ORDINAL="1097" NAME="??0QVector2D@@QAE@ABVQVector4D@@@Z" PURGE="4" COMMENT="" />
    <EXPORT ORDINAL="1098" NAME="??0QVector2D@@QAE@NN@Z" PURGE="16" COMMENT="" />
    <EXPORT ORDINAL="1099" NAME="??0QVector2D@@QAE@XZ" PURGE="0" COMMENT="" />
    <EXPORT ORDINAL="1100" NAME="??0QVector3D@@AAE@MMMH@Z" PURGE="16" COMMENT="" />
    <EXPORT ORDINAL="1101" NAME="??0QVector3D@@QAE@ABVQPoint@@@Z" PURGE="4" COMMENT="" />
    <EXPORT ORDINAL="1102" NAME="??0QVector3D@@QAE@ABVQPointF@@@Z" PURGE="4" COMMENT="" />
    <EXPORT ORDINAL="1103" NAME="??0QVector3D@@QAE@ABVQVector2D@@@Z" PURGE="4" COMMENT="" />
    <EXPORT ORDINAL="1104" NAME="??0QVector3D@@QAE@ABVQVector2D@@N@Z" PURGE="12" COMMENT="" />
    <EXPORT ORDINAL="1105" NAME="??0QVector3D@@QAE@ABVQVector4D@@@Z" PURGE="4" COMMENT="" />
    <EXPORT ORDINAL="1106" NAME="??0QVector3D@@QAE@NNN@Z" PURGE="24" COMMENT="" />
    <EXPORT ORDINAL="1107" NAME="??0QVector3D@@QAE@XZ" PURGE="0" COMMENT="" />
    <EXPORT ORDINAL="1108" NAME="??0QVector4D@@AAE@MMMMH@Z" PURGE="20" COMMENT="" />
    <EXPORT ORDINAL="1109" NAME="??0QVector4D@@QAE@ABVQPoint@@@Z" PURGE="4" COMMENT="" />
    <EXPORT ORDINAL="1110" NAME="??0QVector4D@@QAE@ABVQPointF@@@Z" PURGE="4" COMMENT="" />
    <EXPORT ORDINAL="1111" NAME="??0QVector4D@@QAE@ABVQVector2D@@@Z" PURGE="4" COMMENT="" />
    <EXPORT ORDINAL="1112" NAME="??0QVector4D@@QAE@ABVQVector2D@@NN@Z" PURGE="20" COMMENT="" />
    <EXPORT ORDINAL="1113" NAME="??0QVector4D@@QAE@ABVQVector3D@@@Z" PURGE="4" COMMENT="" />
    <EXPORT ORDINAL="1114" NAME="??0QVector4D@@QAE@ABVQVector3D@@N@Z" PURGE="12" COMMENT="" />
    <EXPORT ORDINAL="1115" NAME="??0QVector4D@@QAE@NNNN@Z" PURGE="32" COMMENT="" />
    <EXPORT ORDINAL="1116" NAME="??0QVector4D@@QAE@XZ" PURGE="0" COMMENT="" />
    <EXPORT ORDINAL="1117" NAME="??0QVectorPath@@QAE@PBNHPBW4ElementType@QPainterPath@@I@Z" PURGE="16" COMMENT="" />
    <EXPORT ORDINAL="1118" NAME="??0QVolatileImage@@QAE@ABV0@@Z" PURGE="4" COMMENT="" />
    <EXPORT ORDINAL="1119" NAME="??0QVolatileImage@@QAE@ABVQImage@@@Z" PURGE="4" COMMENT="" />
    <EXPORT ORDINAL="1120" NAME="??0QVolatileImage@@QAE@HHW4Format@QImage@@@Z" PURGE="12" COMMENT="" />
    <EXPORT ORDINAL="1121" NAME="??0QVolatileImage@@QAE@PAX0@Z" PURGE="8" COMMENT="" />
    <EXPORT ORDINAL="1122" NAME="??0QVolatileImage@@QAE@XZ" PURGE="0" COMMENT="" />
    <EXPORT ORDINAL="1123" NAME="??0QWhatsThis@@AAE@XZ" PURGE="0" COMMENT="" />
    <EXPORT ORDINAL="1124" NAME="??0QWhatsThisClickedEvent@@QAE@ABV0@@Z" PURGE="4" COMMENT="" />
    <EXPORT ORDINAL="1125" NAME="??0QWhatsThisClickedEvent@@QAE@ABVQString@@@Z" PURGE="4" COMMENT="" />
    <EXPORT ORDINAL="1126" NAME="??0QWheelEvent@@QAE@ABV0@@Z" PURGE="4" COMMENT="" />
    <EXPORT ORDINAL="1127" NAME="??0QWheelEvent@@QAE@ABVQPoint@@0HHW4Orientation@Qt@@@Z" PURGE="20" COMMENT="" />
    <EXPORT ORDINAL="1128" NAME="??0QWheelEvent@@QAE@ABVQPoint@@0HV?$QFlags@W4MouseButton@Qt@@@@V?$QFlags@W4KeyboardModifier@Qt@@@@W4Orientation@Qt@@@Z" PURGE="24" COMMENT="" />
    <EXPORT ORDINAL="1129" NAME="??0QWheelEvent@@QAE@ABVQPoint@@HHW4Orientation@Qt@@@Z" PURGE="16" COMMENT="" />
    <EXPORT ORDINAL="1130" NAME="??0QWheelEvent@@QAE@ABVQPoint@@HV?$QFlags@W4MouseButton@Qt@@@@V?$QFlags@W4KeyboardModifier@Qt@@@@W4Orientation@Qt@@@Z" PURGE="20" COMMENT="" />
    <EXPORT ORDINAL="1131" NAME="??0QWidget@@IAE@AAVQWidgetPrivate@@PAV0@V?$QFlags@W4WindowType@Qt@@@@@Z" PURGE="12" COMMENT="" />
    <EXPORT ORDINAL="1132" NAME="??0QWidget@@QAE@PAV0@PBDV?$QFlags@W4WindowType@Qt@@@@@Z" PURGE="12" COMMENT="" />
    <EXPORT ORDINAL="1133" NAME="??0QWidget@@QAE@PAV0@V?$QFlags@W4WindowType@Qt@@@@@Z" PURGE="8" COMMENT="" />
    <EXPORT ORDINAL="1134" NAME="??0QWidgetAction@@QAE@PAVQObject@@@Z" PURGE="4" COMMENT="" />
    <EXPORT ORDINAL="1135" NAME="??0QWidgetItem@@QAE@PAVQWidget@@@Z" PURGE="4" COMMENT="" />
    <EXPORT ORDINAL="1136" NAME="??0QWidgetItemV2@@QAE@PAVQWidget@@@Z" PURGE="4" COMMENT="" />
    <EXPORT ORDINAL="1137" NAME="??0QWidgetPrivate@@QAE@ABV0@@Z" PURGE="4" COMMENT="" />
    <EXPORT ORDINAL="1138" NAME="??0QWidgetPrivate@@QAE@H@Z" PURGE="4" COMMENT="" />
    <EXPORT ORDINAL="1139" NAME="??0QWidgetResizeHandler@@QAE@PAVQWidget@@0@Z" PURGE="8" COMMENT="" />
    <EXPORT ORDINAL="1140" NAME="??0QWindowStateChangeEvent@@QAE@ABV0@@Z" PURGE="4" COMMENT="" />
    <EXPORT ORDINAL="1141" NAME="??0QWindowStateChangeEvent@@QAE@V?$QFlags@W4WindowState@Qt@@@@@Z" PURGE="4" COMMENT="" />
    <EXPORT ORDINAL="1142" NAME="??0QWindowStateChangeEvent@@QAE@V?$QFlags@W4WindowState@Qt@@@@_N@Z" PURGE="8" COMMENT="" />
    <EXPORT ORDINAL="1143" NAME="??0QWindowSurface@@QAE@ABV0@@Z" PURGE="4" COMMENT="" />
    <EXPORT ORDINAL="1144" NAME="??0QWindowSurface@@QAE@PAVQWidget@@_N@Z" PURGE="8" COMMENT="" />
    <EXPORT ORDINAL="1145" NAME="??0QWindowsMime@@QAE@ABV0@@Z" PURGE="4" COMMENT="" />
    <EXPORT ORDINAL="1146" NAME="??0QWindowsMime@@QAE@XZ" PURGE="0" COMMENT="" />
    <EXPORT ORDINAL="1147" NAME="??0QWindowsStyle@@IAE@AAVQWindowsStylePrivate@@@Z" PURGE="4" COMMENT="" />
    <EXPORT ORDINAL="1148" NAME="??0QWindowsStyle@@QAE@XZ" PURGE="0" COMMENT="" />
    <EXPORT ORDINAL="1149" NAME="??0QWindowsVistaStyle@@QAE@XZ" PURGE="0" COMMENT="" />
    <EXPORT ORDINAL="1150" NAME="??0QWindowsXPStyle@@QAE@AAVQWindowsXPStylePrivate@@@Z" PURGE="4" COMMENT="" />
    <EXPORT ORDINAL="1151" NAME="??0QWindowsXPStyle@@QAE@XZ" PURGE="0" COMMENT="" />
    <EXPORT ORDINAL="1152" NAME="??0QWizard@@QAE@PAVQWidget@@V?$QFlags@W4WindowType@Qt@@@@@Z" PURGE="8" COMMENT="" />
    <EXPORT ORDINAL="1153" NAME="??0QWizardPage@@QAE@PAVQWidget@@@Z" PURGE="4" COMMENT="" />
    <EXPORT ORDINAL="1154" NAME="??0QWorkspace@@QAE@PAVQWidget@@@Z" PURGE="4" COMMENT="" />
    <EXPORT ORDINAL="1155" NAME="??0QWorkspace@@QAE@PAVQWidget@@PBD@Z" PURGE="8" COMMENT="" />
    <EXPORT ORDINAL="1156" NAME="??0QZipReader@@QAE@ABVQString@@V?$QFlags@W4OpenModeFlag@QIODevice@@@@@Z" PURGE="8" COMMENT="" />
    <EXPORT ORDINAL="1157" NAME="??0QZipReader@@QAE@PAVQIODevice@@@Z" PURGE="4" COMMENT="" />
    <EXPORT ORDINAL="1158" NAME="??0QZipWriter@@QAE@ABVQString@@V?$QFlags@W4OpenModeFlag@QIODevice@@@@@Z" PURGE="8" COMMENT="" />
    <EXPORT ORDINAL="1159" NAME="??0QZipWriter@@QAE@PAVQIODevice@@@Z" PURGE="4" COMMENT="" />
    <EXPORT ORDINAL="1160" NAME="??0StyleSelector@QCss@@QAE@ABV01@@Z" PURGE="4" COMMENT="" />
    <EXPORT ORDINAL="1161" NAME="??0StyleSelector@QCss@@QAE@XZ" PURGE="0" COMMENT="" />
    <EXPORT ORDINAL="1162" NAME="??0Symbol@QCss@@QAE@ABU01@@Z" PURGE="4" COMMENT="" />
    <EXPORT ORDINAL="1163" NAME="??0Symbol@QCss@@QAE@XZ" PURGE="0" COMMENT="" />
    <EXPORT ORDINAL="1164" NAME="??0Tab@QTextOption@@QAE@NW4TabType@1@VQChar@@@Z" PURGE="16" COMMENT="" />
    <EXPORT ORDINAL="1165" NAME="??0Tab@QTextOption@@QAE@XZ" PURGE="0" COMMENT="" />
    <EXPORT ORDINAL="1166" NAME="??0TouchPoint@QTouchEvent@@QAE@ABV01@@Z" PURGE="4" COMMENT="" />
    <EXPORT ORDINAL="1167" NAME="??0TouchPoint@QTouchEvent@@QAE@H@Z" PURGE="4" COMMENT="" />
    <EXPORT ORDINAL="1168" NAME="??0Value@QCss@@QAE@ABU01@@Z" PURGE="4" COMMENT="" />
    <EXPORT ORDINAL="1169" NAME="??0Value@QCss@@QAE@XZ" PURGE="0" COMMENT="" />
    <EXPORT ORDINAL="1170" NAME="??0iterator@QTextBlock@@AAE@PBVQTextDocumentPrivate@@HHH@Z" PURGE="16" COMMENT="" />
    <EXPORT ORDINAL="1171" NAME="??0iterator@QTextBlock@@QAE@ABV01@@Z" PURGE="4" COMMENT="" />
    <EXPORT ORDINAL="1172" NAME="??0iterator@QTextBlock@@QAE@XZ" PURGE="0" COMMENT="" />
    <EXPORT ORDINAL="1173" NAME="??0iterator@QTextFrame@@AAE@PAV1@HHH@Z" PURGE="16" COMMENT="" />
    <EXPORT ORDINAL="1174" NAME="??0iterator@QTextFrame@@QAE@ABV01@@Z" PURGE="4" COMMENT="" />
    <EXPORT ORDINAL="1175" NAME="??0iterator@QTextFrame@@QAE@XZ" PURGE="0" COMMENT="" />
    <EXPORT ORDINAL="1176" NAME="??1?$QList@VQItemSelectionRange@@@@QAE@XZ" PURGE="0" COMMENT="" />
    <EXPORT ORDINAL="1177" NAME="??1FileInfo@QZipReader@@QAE@XZ" PURGE="0" COMMENT="" />
    <EXPORT ORDINAL="1178" NAME="??1Key@QPixmapCache@@QAE@XZ" PURGE="0" COMMENT="" />
    <EXPORT ORDINAL="1179" NAME="??1Parser@QCss@@QAE@XZ" PURGE="0" COMMENT="" />
    <EXPORT ORDINAL="1180" NAME="??1QAbstractButton@@UAE@XZ" PURGE="0" COMMENT="" />
    <EXPORT ORDINAL="1181" NAME="??1QAbstractGraphicsShapeItem@@UAE@XZ" PURGE="0" COMMENT="" />
    <EXPORT ORDINAL="1182" NAME="??1QAbstractItemDelegate@@UAE@XZ" PURGE="-1" COMMENT="" />
    <EXPORT ORDINAL="1183" NAME="??1QAbstractItemView@@UAE@XZ" PURGE="0" COMMENT="" />
    <EXPORT ORDINAL="1184" NAME="??1QAbstractPageSetupDialog@@UAE@XZ" PURGE="0" COMMENT="" />
    <EXPORT ORDINAL="1185" NAME="??1QAbstractPrintDialog@@UAE@XZ" PURGE="0" COMMENT="" />
    <EXPORT ORDINAL="1186" NAME="??1QAbstractProxyModel@@UAE@XZ" PURGE="-1" COMMENT="" />
    <EXPORT ORDINAL="1187" NAME="??1QAbstractScrollArea@@UAE@XZ" PURGE="0" COMMENT="" />
    <EXPORT ORDINAL="1188" NAME="??1QAbstractScrollAreaPrivate@@UAE@XZ" PURGE="0" COMMENT="" />
    <EXPORT ORDINAL="1189" NAME="??1QAbstractSlider@@UAE@XZ" PURGE="0" COMMENT="" />
    <EXPORT ORDINAL="1190" NAME="??1QAbstractSpinBox@@UAE@XZ" PURGE="0" COMMENT="" />
    <EXPORT ORDINAL="1191" NAME="??1QAbstractTextDocumentLayout@@UAE@XZ" PURGE="-1" COMMENT="" />
    <EXPORT ORDINAL="1192" NAME="??1QAbstractUndoItem@@UAE@XZ" PURGE="0" COMMENT="" />
    <EXPORT ORDINAL="1193" NAME="??1QAccessible2Interface@@UAE@XZ" PURGE="0" COMMENT="" />
    <EXPORT ORDINAL="1194" NAME="??1QAccessibleActionInterface@@UAE@XZ" PURGE="0" COMMENT="" />
    <EXPORT ORDINAL="1195" NAME="??1QAccessibleApplication@@UAE@XZ" PURGE="0" COMMENT="" />
    <EXPORT ORDINAL="1196" NAME="??1QAccessibleEditableTextInterface@@UAE@XZ" PURGE="0" COMMENT="" />
    <EXPORT ORDINAL="1197" NAME="??1QAccessibleEvent@@UAE@XZ" PURGE="0" COMMENT="" />
    <EXPORT ORDINAL="1198" NAME="??1QAccessibleFactoryInterface@@UAE@XZ" PURGE="0" COMMENT="" />
    <EXPORT ORDINAL="1199" NAME="??1QAccessibleImageInterface@@UAE@XZ" PURGE="0" COMMENT="" />
    <EXPORT ORDINAL="1200" NAME="??1QAccessibleInterface@@UAE@XZ" PURGE="0" COMMENT="" />
    <EXPORT ORDINAL="1201" NAME="??1QAccessibleInterfaceEx@@UAE@XZ" PURGE="0" COMMENT="" />
    <EXPORT ORDINAL="1202" NAME="??1QAccessibleObject@@MAE@XZ" PURGE="0" COMMENT="" />
    <EXPORT ORDINAL="1203" NAME="??1QAccessibleObjectEx@@MAE@XZ" PURGE="0" COMMENT="" />
    <EXPORT ORDINAL="1204" NAME="??1QAccessiblePlugin@@UAE@XZ" PURGE="-1" COMMENT="" />
    <EXPORT ORDINAL="1205" NAME="??1QAccessibleSimpleEditableTextInterface@@UAE@XZ" PURGE="0" COMMENT="" />
    <EXPORT ORDINAL="1206" NAME="??1QAccessibleTable2CellInterface@@UAE@XZ" PURGE="0" COMMENT="" />
    <EXPORT ORDINAL="1207" NAME="??1QAccessibleTable2Interface@@UAE@XZ" PURGE="0" COMMENT="" />
    <EXPORT ORDINAL="1208" NAME="??1QAccessibleTableInterface@@UAE@XZ" PURGE="0" COMMENT="" />
    <EXPORT ORDINAL="1209" NAME="??1QAccessibleTextInterface@@UAE@XZ" PURGE="0" COMMENT="" />
    <EXPORT ORDINAL="1210" NAME="??1QAccessibleValueInterface@@UAE@XZ" PURGE="0" COMMENT="" />
    <EXPORT ORDINAL="1211" NAME="??1QAccessibleWidget@@MAE@XZ" PURGE="0" COMMENT="" />
    <EXPORT ORDINAL="1212" NAME="??1QAccessibleWidgetEx@@MAE@XZ" PURGE="0" COMMENT="" />
    <EXPORT ORDINAL="1213" NAME="??1QAction@@UAE@XZ" PURGE="0" COMMENT="" />
    <EXPORT ORDINAL="1214" NAME="??1QActionEvent@@UAE@XZ" PURGE="-1" COMMENT="" />
    <EXPORT ORDINAL="1215" NAME="??1QActionGroup@@UAE@XZ" PURGE="-1" COMMENT="" />
    <EXPORT ORDINAL="1216" NAME="??1QApplication@@UAE@XZ" PURGE="0" COMMENT="" />
    <EXPORT ORDINAL="1217" NAME="??1QApplicationPrivate@@UAE@XZ" PURGE="0" COMMENT="" />
    <EXPORT ORDINAL="1218" NAME="??1QBitmap@@UAE@XZ" PURGE="0" COMMENT="" />
    <EXPORT ORDINAL="1219" NAME="??1QBlittable@@UAE@XZ" PURGE="0" COMMENT="" />
    <EXPORT ORDINAL="1220" NAME="??1QBlittablePixmapData@@UAE@XZ" PURGE="0" COMMENT="" />
    <EXPORT ORDINAL="1221" NAME="??1QBlitterPaintEngine@@UAE@XZ" PURGE="0" COMMENT="" />
    <EXPORT ORDINAL="1222" NAME="??1QBoxLayout@@UAE@XZ" PURGE="0" COMMENT="" />
    <EXPORT ORDINAL="1223" NAME="??1QBrush@@QAE@XZ" PURGE="0" COMMENT="" />
    <EXPORT ORDINAL="1224" NAME="??1QButtonGroup@@UAE@XZ" PURGE="0" COMMENT="" />
    <EXPORT ORDINAL="1225" NAME="??1QCDEStyle@@UAE@XZ" PURGE="0" COMMENT="" />
    <EXPORT ORDINAL="1226" NAME="??1QCalendarWidget@@UAE@XZ" PURGE="0" COMMENT="" />
    <EXPORT ORDINAL="1227" NAME="??1QCheckBox@@UAE@XZ" PURGE="0" COMMENT="" />
    <EXPORT ORDINAL="1228" NAME="??1QCleanlooksStyle@@UAE@XZ" PURGE="-1" COMMENT="" />
    <EXPORT ORDINAL="1229" NAME="??1QClipboard@@EAE@XZ" PURGE="0" COMMENT="" />
    <EXPORT ORDINAL="1230" NAME="??1QClipboardEvent@@UAE@XZ" PURGE="-1" COMMENT="" />
    <EXPORT ORDINAL="1231" NAME="??1QCloseEvent@@UAE@XZ" PURGE="-1" COMMENT="" />
    <EXPORT ORDINAL="1232" NAME="??1QColorDialog@@AAE@XZ" PURGE="0" COMMENT="" />
    <EXPORT ORDINAL="1233" NAME="??1QColorDialog@@UAE@XZ" PURGE="0" COMMENT="" />
    <EXPORT ORDINAL="1234" NAME="??1QColorGroup@@QAE@XZ" PURGE="0" COMMENT="" />
    <EXPORT ORDINAL="1235" NAME="??1QColormap@@QAE@XZ" PURGE="0" COMMENT="" />
    <EXPORT ORDINAL="1236" NAME="??1QColumnView@@UAE@XZ" PURGE="0" COMMENT="" />
    <EXPORT ORDINAL="1237" NAME="??1QComboBox@@UAE@XZ" PURGE="0" COMMENT="" />
    <EXPORT ORDINAL="1238" NAME="??1QCommandLinkButton@@UAE@XZ" PURGE="0" COMMENT="" />
    <EXPORT ORDINAL="1239" NAME="??1QCommonStyle@@UAE@XZ" PURGE="-1" COMMENT="" />
    <EXPORT ORDINAL="1240" NAME="??1QCompleter@@UAE@XZ" PURGE="-1" COMMENT="" />
    <EXPORT ORDINAL="1241" NAME="??1QConicalGradient@@QAE@XZ" PURGE="0" COMMENT="" />
    <EXPORT ORDINAL="1242" NAME="??1QContextMenuEvent@@UAE@XZ" PURGE="-1" COMMENT="" />
    <EXPORT ORDINAL="1243" NAME="??1QCursor@@QAE@XZ" PURGE="0" COMMENT="" />
    <EXPORT ORDINAL="1244" NAME="??1QDashStroker@@UAE@XZ" PURGE="0" COMMENT="" />
    <EXPORT ORDINAL="1245" NAME="??1QDataWidgetMapper@@UAE@XZ" PURGE="-1" COMMENT="" />
    <EXPORT ORDINAL="1246" NAME="??1QDateEdit@@UAE@XZ" PURGE="0" COMMENT="" />
    <EXPORT ORDINAL="1247" NAME="??1QDateTimeEdit@@UAE@XZ" PURGE="0" COMMENT="" />
    <EXPORT ORDINAL="1248" NAME="??1QDesktopWidget@@UAE@XZ" PURGE="0" COMMENT="" />
    <EXPORT ORDINAL="1249" NAME="??1QDial@@UAE@XZ" PURGE="0" COMMENT="" />
    <EXPORT ORDINAL="1250" NAME="??1QDialog@@UAE@XZ" PURGE="0" COMMENT="" />
    <EXPORT ORDINAL="1251" NAME="??1QDialogButtonBox@@UAE@XZ" PURGE="0" COMMENT="" />
    <EXPORT ORDINAL="1252" NAME="??1QDirModel@@UAE@XZ" PURGE="-1" COMMENT="" />
    <EXPORT ORDINAL="1253" NAME="??1QDockWidget@@UAE@XZ" PURGE="0" COMMENT="" />
    <EXPORT ORDINAL="1254" NAME="??1QDockWidgetLayout@@UAE@XZ" PURGE="0" COMMENT="" />
    <EXPORT ORDINAL="1255" NAME="??1QDoubleSpinBox@@UAE@XZ" PURGE="0" COMMENT="" />
    <EXPORT ORDINAL="1256" NAME="??1QDoubleValidator@@UAE@XZ" PURGE="-1" COMMENT="" />
    <EXPORT ORDINAL="1257" NAME="??1QDrag@@UAE@XZ" PURGE="0" COMMENT="" />
    <EXPORT ORDINAL="1258" NAME="??1QDragEnterEvent@@UAE@XZ" PURGE="0" COMMENT="" />
    <EXPORT ORDINAL="1259" NAME="??1QDragLeaveEvent@@UAE@XZ" PURGE="-1" COMMENT="" />
    <EXPORT ORDINAL="1260" NAME="??1QDragMoveEvent@@UAE@XZ" PURGE="0" COMMENT="" />
    <EXPORT ORDINAL="1261" NAME="??1QDragResponseEvent@@UAE@XZ" PURGE="-1" COMMENT="" />
    <EXPORT ORDINAL="1262" NAME="??1QDropEvent@@UAE@XZ" PURGE="0" COMMENT="" />
    <EXPORT ORDINAL="1263" NAME="??1QErrorMessage@@UAE@XZ" PURGE="0" COMMENT="" />
    <EXPORT ORDINAL="1264" NAME="??1QFileDialog@@UAE@XZ" PURGE="0" COMMENT="" />
    <EXPORT ORDINAL="1265" NAME="??1QFileIconProvider@@UAE@XZ" PURGE="0" COMMENT="" />
    <EXPORT ORDINAL="1266" NAME="??1QFileOpenEvent@@UAE@XZ" PURGE="0" COMMENT="" />
    <EXPORT ORDINAL="1267" NAME="??1QFileSystemModel@@UAE@XZ" PURGE="-1" COMMENT="" />
    <EXPORT ORDINAL="1268" NAME="??1QFocusEvent@@UAE@XZ" PURGE="-1" COMMENT="" />
    <EXPORT ORDINAL="1269" NAME="??1QFocusFrame@@UAE@XZ" PURGE="0" COMMENT="" />
    <EXPORT ORDINAL="1270" NAME="??1QFont@@QAE@XZ" PURGE="0" COMMENT="" />
    <EXPORT ORDINAL="1271" NAME="??1QFontComboBox@@UAE@XZ" PURGE="0" COMMENT="" />
    <EXPORT ORDINAL="1272" NAME="??1QFontDialog@@AAE@XZ" PURGE="0" COMMENT="" />
    <EXPORT ORDINAL="1273" NAME="??1QFontDialog@@UAE@XZ" PURGE="0" COMMENT="" />
    <EXPORT ORDINAL="1274" NAME="??1QFontEngine@@UAE@XZ" PURGE="0" COMMENT="" />
    <EXPORT ORDINAL="1275" NAME="??1QFontInfo@@QAE@XZ" PURGE="0" COMMENT="" />
    <EXPORT ORDINAL="1276" NAME="??1QFontMetrics@@QAE@XZ" PURGE="0" COMMENT="" />
    <EXPORT ORDINAL="1277" NAME="??1QFontMetricsF@@QAE@XZ" PURGE="0" COMMENT="" />
    <EXPORT ORDINAL="1278" NAME="??1QFontPrivate@@QAE@XZ" PURGE="0" COMMENT="" />
    <EXPORT ORDINAL="1279" NAME="??1QFormLayout@@UAE@XZ" PURGE="0" COMMENT="" />
    <EXPORT ORDINAL="1280" NAME="??1QFrame@@UAE@XZ" PURGE="0" COMMENT="" />
    <EXPORT ORDINAL="1281" NAME="??1QGesture@@UAE@XZ" PURGE="-1" COMMENT="" />
    <EXPORT ORDINAL="1282" NAME="??1QGestureEvent@@UAE@XZ" PURGE="0" COMMENT="" />
    <EXPORT ORDINAL="1283" NAME="??1QGestureRecognizer@@UAE@XZ" PURGE="0" COMMENT="" />
    <EXPORT ORDINAL="1284" NAME="??1QGlyphRun@@QAE@XZ" PURGE="0" COMMENT="" />
    <EXPORT ORDINAL="1285" NAME="??1QGradient@@QAE@XZ" PURGE="0" COMMENT="" />
    <EXPORT ORDINAL="1286" NAME="??1QGraphicsAnchor@@UAE@XZ" PURGE="-1" COMMENT="" />
    <EXPORT ORDINAL="1287" NAME="??1QGraphicsAnchorLayout@@UAE@XZ" PURGE="0" COMMENT="" />
    <EXPORT ORDINAL="1288" NAME="??1QGraphicsBlurEffect@@UAE@XZ" PURGE="0" COMMENT="" />
    <EXPORT ORDINAL="1289" NAME="??1QGraphicsColorizeEffect@@UAE@XZ" PURGE="0" COMMENT="" />
    <EXPORT ORDINAL="1290" NAME="??1QGraphicsDropShadowEffect@@UAE@XZ" PURGE="0" COMMENT="" />
    <EXPORT ORDINAL="1291" NAME="??1QGraphicsEffect@@UAE@XZ" PURGE="0" COMMENT="" />
    <EXPORT ORDINAL="1292" NAME="??1QGraphicsEffectPrivate@@UAE@XZ" PURGE="-1" COMMENT="" />
    <EXPORT ORDINAL="1293" NAME="??1QGraphicsEffectSource@@UAE@XZ" PURGE="-1" COMMENT="" />
    <EXPORT ORDINAL="1294" NAME="??1QGraphicsEllipseItem@@UAE@XZ" PURGE="0" COMMENT="" />
    <EXPORT ORDINAL="1295" NAME="??1QGraphicsGridLayout@@UAE@XZ" PURGE="0" COMMENT="" />
    <EXPORT ORDINAL="1296" NAME="??1QGraphicsItem@@UAE@XZ" PURGE="0" COMMENT="" />
    <EXPORT ORDINAL="1297" NAME="??1QGraphicsItemAnimation@@UAE@XZ" PURGE="0" COMMENT="" />
    <EXPORT ORDINAL="1298" NAME="??1QGraphicsItemGroup@@UAE@XZ" PURGE="0" COMMENT="" />
    <EXPORT ORDINAL="1299" NAME="??1QGraphicsItemPrivate@@UAE@XZ" PURGE="0" COMMENT="" />
    <EXPORT ORDINAL="1300" NAME="??1QGraphicsLayout@@UAE@XZ" PURGE="0" COMMENT="" />
    <EXPORT ORDINAL="1301" NAME="??1QGraphicsLayoutItem@@UAE@XZ" PURGE="0" COMMENT="" />
    <EXPORT ORDINAL="1302" NAME="??1QGraphicsLineItem@@UAE@XZ" PURGE="0" COMMENT="" />
    <EXPORT ORDINAL="1303" NAME="??1QGraphicsLinearLayout@@UAE@XZ" PURGE="0" COMMENT="" />
    <EXPORT ORDINAL="1304" NAME="??1QGraphicsObject@@UAE@XZ" PURGE="0" COMMENT="" />
    <EXPORT ORDINAL="1305" NAME="??1QGraphicsOpacityEffect@@UAE@XZ" PURGE="0" COMMENT="" />
    <EXPORT ORDINAL="1306" NAME="??1QGraphicsPathItem@@UAE@XZ" PURGE="0" COMMENT="" />
    <EXPORT ORDINAL="1307" NAME="??1QGraphicsPixmapItem@@UAE@XZ" PURGE="0" COMMENT="" />
    <EXPORT ORDINAL="1308" NAME="??1QGraphicsPolygonItem@@UAE@XZ" PURGE="0" COMMENT="" />
    <EXPORT ORDINAL="1309" NAME="??1QGraphicsProxyWidget@@UAE@XZ" PURGE="0" COMMENT="" />
    <EXPORT ORDINAL="1310" NAME="??1QGraphicsRectItem@@UAE@XZ" PURGE="0" COMMENT="" />
    <EXPORT ORDINAL="1311" NAME="??1QGraphicsRotation@@UAE@XZ" PURGE="0" COMMENT="" />
    <EXPORT ORDINAL="1312" NAME="??1QGraphicsScale@@UAE@XZ" PURGE="0" COMMENT="" />
    <EXPORT ORDINAL="1313" NAME="??1QGraphicsScene@@UAE@XZ" PURGE="0" COMMENT="" />
    <EXPORT ORDINAL="1314" NAME="??1QGraphicsSceneContextMenuEvent@@UAE@XZ" PURGE="0" COMMENT="" />
    <EXPORT ORDINAL="1315" NAME="??1QGraphicsSceneDragDropEvent@@UAE@XZ" PURGE="0" COMMENT="" />
    <EXPORT ORDINAL="1316" NAME="??1QGraphicsSceneEvent@@UAE@XZ" PURGE="0" COMMENT="" />
    <EXPORT ORDINAL="1317" NAME="??1QGraphicsSceneHelpEvent@@UAE@XZ" PURGE="0" COMMENT="" />
    <EXPORT ORDINAL="1318" NAME="??1QGraphicsSceneHoverEvent@@UAE@XZ" PURGE="0" COMMENT="" />
    <EXPORT ORDINAL="1319" NAME="??1QGraphicsSceneMouseEvent@@UAE@XZ" PURGE="0" COMMENT="" />
    <EXPORT ORDINAL="1320" NAME="??1QGraphicsSceneMoveEvent@@UAE@XZ" PURGE="0" COMMENT="" />
    <EXPORT ORDINAL="1321" NAME="??1QGraphicsSceneResizeEvent@@UAE@XZ" PURGE="0" COMMENT="" />
    <EXPORT ORDINAL="1322" NAME="??1QGraphicsSceneWheelEvent@@UAE@XZ" PURGE="0" COMMENT="" />
    <EXPORT ORDINAL="1323" NAME="??1QGraphicsSimpleTextItem@@UAE@XZ" PURGE="0" COMMENT="" />
    <EXPORT ORDINAL="1324" NAME="??1QGraphicsSystem@@UAE@XZ" PURGE="0" COMMENT="" />
    <EXPORT ORDINAL="1325" NAME="??1QGraphicsSystemPlugin@@UAE@XZ" PURGE="-1" COMMENT="" />
    <EXPORT ORDINAL="1326" NAME="??1QGraphicsTextItem@@UAE@XZ" PURGE="0" COMMENT="" />
    <EXPORT ORDINAL="1327" NAME="??1QGraphicsTransform@@UAE@XZ" PURGE="0" COMMENT="" />
    <EXPORT ORDINAL="1328" NAME="??1QGraphicsView@@UAE@XZ" PURGE="0" COMMENT="" />
    <EXPORT ORDINAL="1329" NAME="??1QGraphicsViewPrivate@@UAE@XZ" PURGE="0" COMMENT="" />
    <EXPORT ORDINAL="1330" NAME="??1QGraphicsWidget@@UAE@XZ" PURGE="0" COMMENT="" />
    <EXPORT ORDINAL="1331" NAME="??1QGridLayout@@UAE@XZ" PURGE="0" COMMENT="" />
    <EXPORT ORDINAL="1332" NAME="??1QGroupBox@@UAE@XZ" PURGE="0" COMMENT="" />
    <EXPORT ORDINAL="1333" NAME="??1QGuiPlatformPlugin@@UAE@XZ" PURGE="-1" COMMENT="" />
    <EXPORT ORDINAL="1334" NAME="??1QGuiPlatformPluginInterface@@UAE@XZ" PURGE="0" COMMENT="" />
    <EXPORT ORDINAL="1335" NAME="??1QHBoxLayout@@UAE@XZ" PURGE="0" COMMENT="" />
    <EXPORT ORDINAL="1336" NAME="??1QHeaderView@@UAE@XZ" PURGE="0" COMMENT="" />
    <EXPORT ORDINAL="1337" NAME="??1QHelpEvent@@UAE@XZ" PURGE="-1" COMMENT="" />
    <EXPORT ORDINAL="1338" NAME="??1QHideEvent@@UAE@XZ" PURGE="-1" COMMENT="" />
    <EXPORT ORDINAL="1339" NAME="??1QHoverEvent@@UAE@XZ" PURGE="-1" COMMENT="" />
    <EXPORT ORDINAL="1340" NAME="??1QIcon@@QAE@XZ" PURGE="0" COMMENT="" />
    <EXPORT ORDINAL="1341" NAME="??1QIconDragEvent@@UAE@XZ" PURGE="-1" COMMENT="" />
    <EXPORT ORDINAL="1342" NAME="??1QIconEngine@@UAE@XZ" PURGE="0" COMMENT="" />
    <EXPORT ORDINAL="1343" NAME="??1QIconEngineFactoryInterface@@UAE@XZ" PURGE="0" COMMENT="" />
    <EXPORT ORDINAL="1344" NAME="??1QIconEngineFactoryInterfaceV2@@UAE@XZ" PURGE="0" COMMENT="" />
    <EXPORT ORDINAL="1345" NAME="??1QIconEnginePlugin@@UAE@XZ" PURGE="-1" COMMENT="" />
    <EXPORT ORDINAL="1346" NAME="??1QIconEnginePluginV2@@UAE@XZ" PURGE="-1" COMMENT="" />
    <EXPORT ORDINAL="1347" NAME="??1QIconEngineV2@@UAE@XZ" PURGE="0" COMMENT="" />
    <EXPORT ORDINAL="1348" NAME="??1QIdentityProxyModel@@UAE@XZ" PURGE="-1" COMMENT="" />
    <EXPORT ORDINAL="1349" NAME="??1QImage@@UAE@XZ" PURGE="0" COMMENT="" />
    <EXPORT ORDINAL="1350" NAME="??1QImageData@@QAE@XZ" PURGE="0" COMMENT="" />
    <EXPORT ORDINAL="1351" NAME="??1QImageIOHandler@@UAE@XZ" PURGE="0" COMMENT="" />
    <EXPORT ORDINAL="1352" NAME="??1QImageIOHandlerFactoryInterface@@UAE@XZ" PURGE="0" COMMENT="" />
    <EXPORT ORDINAL="1353" NAME="??1QImageIOPlugin@@UAE@XZ" PURGE="-1" COMMENT="" />
    <EXPORT ORDINAL="1354" NAME="??1QImagePixmapCleanupHooks@@QAE@XZ" PURGE="0" COMMENT="" />
    <EXPORT ORDINAL="1355" NAME="??1QImageReader@@QAE@XZ" PURGE="0" COMMENT="" />
    <EXPORT ORDINAL="1356" NAME="??1QImageTextKeyLang@@QAE@XZ" PURGE="0" COMMENT="" />
    <EXPORT ORDINAL="1357" NAME="??1QImageTextureGlyphCache@@UAE@XZ" PURGE="0" COMMENT="" />
    <EXPORT ORDINAL="1358" NAME="??1QImageWriter@@QAE@XZ" PURGE="0" COMMENT="" />
    <EXPORT ORDINAL="1359" NAME="??1QInputContext@@UAE@XZ" PURGE="-1" COMMENT="" />
    <EXPORT ORDINAL="1360" NAME="??1QInputContextFactoryInterface@@UAE@XZ" PURGE="0" COMMENT="" />
    <EXPORT ORDINAL="1361" NAME="??1QInputContextPlugin@@UAE@XZ" PURGE="-1" COMMENT="" />
    <EXPORT ORDINAL="1362" NAME="??1QInputDialog@@AAE@XZ" PURGE="0" COMMENT="" />
    <EXPORT ORDINAL="1363" NAME="??1QInputDialog@@UAE@XZ" PURGE="0" COMMENT="" />
    <EXPORT ORDINAL="1364" NAME="??1QInputEvent@@UAE@XZ" PURGE="-1" COMMENT="" />
    <EXPORT ORDINAL="1365" NAME="??1QInputMethodEvent@@UAE@XZ" PURGE="0" COMMENT="" />
    <EXPORT ORDINAL="1366" NAME="??1QIntValidator@@UAE@XZ" PURGE="-1" COMMENT="" />
    <EXPORT ORDINAL="1367" NAME="??1QInternalMimeData@@UAE@XZ" PURGE="-1" COMMENT="" />
    <EXPORT ORDINAL="1368" NAME="??1QItemDelegate@@UAE@XZ" PURGE="-1" COMMENT="" />
    <EXPORT ORDINAL="1369" NAME="??1QItemEditorCreatorBase@@UAE@XZ" PURGE="0" COMMENT="" />
    <EXPORT ORDINAL="1370" NAME="??1QItemEditorFactory@@UAE@XZ" PURGE="0" COMMENT="" />
    <EXPORT ORDINAL="1371" NAME="??1QItemSelection@@QAE@XZ" PURGE="0" COMMENT="" />
    <EXPORT ORDINAL="1372" NAME="??1QItemSelectionModel@@UAE@XZ" PURGE="-1" COMMENT="" />
    <EXPORT ORDINAL="1373" NAME="??1QItemSelectionRange@@QAE@XZ" PURGE="0" COMMENT="" />
    <EXPORT ORDINAL="1374" NAME="??1QKeyEvent@@UAE@XZ" PURGE="0" COMMENT="" />
    <EXPORT ORDINAL="1375" NAME="??1QKeyEventTransition@@UAE@XZ" PURGE="0" COMMENT="" />
    <EXPORT ORDINAL="1376" NAME="??1QKeySequence@@QAE@XZ" PURGE="0" COMMENT="" />
    <EXPORT ORDINAL="1377" NAME="??1QLCDNumber@@UAE@XZ" PURGE="0" COMMENT="" />
    <EXPORT ORDINAL="1378" NAME="??1QLabel@@UAE@XZ" PURGE="0" COMMENT="" />
    <EXPORT ORDINAL="1379" NAME="??1QLayout@@UAE@XZ" PURGE="0" COMMENT="" />
    <EXPORT ORDINAL="1380" NAME="??1QLayoutItem@@UAE@XZ" PURGE="0" COMMENT="" />
    <EXPORT ORDINAL="1381" NAME="??1QLayoutPrivate@@UAE@XZ" PURGE="-1" COMMENT="" />
    <EXPORT ORDINAL="1382" NAME="??1QLineControl@@UAE@XZ" PURGE="0" COMMENT="" />
    <EXPORT ORDINAL="1383" NAME="??1QLineEdit@@UAE@XZ" PURGE="0" COMMENT="" />
    <EXPORT ORDINAL="1384" NAME="??1QLinearGradient@@QAE@XZ" PURGE="0" COMMENT="" />
    <EXPORT ORDINAL="1385" NAME="??1QListView@@UAE@XZ" PURGE="0" COMMENT="" />
    <EXPORT ORDINAL="1386" NAME="??1QListWidget@@UAE@XZ" PURGE="0" COMMENT="" />
    <EXPORT ORDINAL="1387" NAME="??1QListWidgetItem@@UAE@XZ" PURGE="0" COMMENT="" />
    <EXPORT ORDINAL="1388" NAME="??1QMainWindow@@UAE@XZ" PURGE="0" COMMENT="" />
    <EXPORT ORDINAL="1389" NAME="??1QMdiArea@@UAE@XZ" PURGE="0" COMMENT="" />
    <EXPORT ORDINAL="1390" NAME="??1QMdiSubWindow@@UAE@XZ" PURGE="0" COMMENT="" />
    <EXPORT ORDINAL="1391" NAME="??1QMenu@@UAE@XZ" PURGE="0" COMMENT="" />
    <EXPORT ORDINAL="1392" NAME="??1QMenuBar@@UAE@XZ" PURGE="0" COMMENT="" />
    <EXPORT ORDINAL="1393" NAME="??1QMenuItem@@UAE@XZ" PURGE="0" COMMENT="" />
    <EXPORT ORDINAL="1394" NAME="??1QMenubarUpdatedEvent@@UAE@XZ" PURGE="-1" COMMENT="" />
    <EXPORT ORDINAL="1395" NAME="??1QMessageBox@@UAE@XZ" PURGE="0" COMMENT="" />
    <EXPORT ORDINAL="1396" NAME="??1QMimeSource@@UAE@XZ" PURGE="0" COMMENT="" />
    <EXPORT ORDINAL="1397" NAME="??1QMotifStyle@@UAE@XZ" PURGE="0" COMMENT="" />
    <EXPORT ORDINAL="1398" NAME="??1QMouseEvent@@UAE@XZ" PURGE="-1" COMMENT="" />
    <EXPORT ORDINAL="1399" NAME="??1QMouseEventTransition@@UAE@XZ" PURGE="0" COMMENT="" />
    <EXPORT ORDINAL="1400" NAME="??1QMoveEvent@@UAE@XZ" PURGE="-1" COMMENT="" />
    <EXPORT ORDINAL="1401" NAME="??1QMovie@@UAE@XZ" PURGE="0" COMMENT="" />
    <EXPORT ORDINAL="1402" NAME="??1QPageSetupDialog@@UAE@XZ" PURGE="0" COMMENT="" />
    <EXPORT ORDINAL="1403" NAME="??1QPaintBuffer@@UAE@XZ" PURGE="0" COMMENT="" />
    <EXPORT ORDINAL="1404" NAME="??1QPaintBufferResource@@UAE@XZ" PURGE="0" COMMENT="" />
    <EXPORT ORDINAL="1405" NAME="??1QPaintBufferSignalProxy@@UAE@XZ" PURGE="-1" COMMENT="" />
    <EXPORT ORDINAL="1406" NAME="??1QPaintDevice@@UAE@XZ" PURGE="0" COMMENT="" />
    <EXPORT ORDINAL="1407" NAME="??1QPaintEngine@@UAE@XZ" PURGE="0" COMMENT="" />
    <EXPORT ORDINAL="1408" NAME="??1QPaintEngineEx@@UAE@XZ" PURGE="0" COMMENT="" />
    <EXPORT ORDINAL="1409" NAME="??1QPaintEngineExPrivate@@UAE@XZ" PURGE="0" COMMENT="" />
    <EXPORT ORDINAL="1410" NAME="??1QPaintEngineExReplayer@@UAE@XZ" PURGE="0" COMMENT="" />
    <EXPORT ORDINAL="1411" NAME="??1QPaintEvent@@UAE@XZ" PURGE="0" COMMENT="" />
    <EXPORT ORDINAL="1412" NAME="??1QPainter@@QAE@XZ" PURGE="0" COMMENT="" />
    <EXPORT ORDINAL="1413" NAME="??1QPainterPath@@QAE@XZ" PURGE="0" COMMENT="" />
    <EXPORT ORDINAL="1414" NAME="??1QPainterPathStroker@@QAE@XZ" PURGE="0" COMMENT="" />
    <EXPORT ORDINAL="1415" NAME="??1QPainterReplayer@@UAE@XZ" PURGE="0" COMMENT="" />
    <EXPORT ORDINAL="1416" NAME="??1QPainterState@@UAE@XZ" PURGE="0" COMMENT="" />
    <EXPORT ORDINAL="1417" NAME="??1QPalette@@QAE@XZ" PURGE="0" COMMENT="" />
    <EXPORT ORDINAL="1418" NAME="??1QPanGesture@@UAE@XZ" PURGE="-1" COMMENT="" />
    <EXPORT ORDINAL="1419" NAME="??1QPen@@QAE@XZ" PURGE="0" COMMENT="" />
    <EXPORT ORDINAL="1420" NAME="??1QPicture@@UAE@XZ" PURGE="0" COMMENT="" />
    <EXPORT ORDINAL="1421" NAME="??1QPictureFormatInterface@@UAE@XZ" PURGE="0" COMMENT="" />
    <EXPORT ORDINAL="1422" NAME="??1QPictureFormatPlugin@@UAE@XZ" PURGE="-1" COMMENT="" />
    <EXPORT ORDINAL="1423" NAME="??1QPictureIO@@QAE@XZ" PURGE="0" COMMENT="" />
    <EXPORT ORDINAL="1424" NAME="??1QPinchGesture@@UAE@XZ" PURGE="-1" COMMENT="" />
    <EXPORT ORDINAL="1425" NAME="??1QPixmap@@UAE@XZ" PURGE="0" COMMENT="" />
    <EXPORT ORDINAL="1426" NAME="??1QPixmapBlurFilter@@UAE@XZ" PURGE="-1" COMMENT="" />
    <EXPORT ORDINAL="1427" NAME="??1QPixmapColorizeFilter@@UAE@XZ" PURGE="-1" COMMENT="" />
    <EXPORT ORDINAL="1428" NAME="??1QPixmapConvolutionFilter@@UAE@XZ" PURGE="-1" COMMENT="" />
    <EXPORT ORDINAL="1429" NAME="??1QPixmapData@@UAE@XZ" PURGE="0" COMMENT="" />
    <EXPORT ORDINAL="1430" NAME="??1QPixmapDropShadowFilter@@UAE@XZ" PURGE="-1" COMMENT="" />
    <EXPORT ORDINAL="1431" NAME="??1QPixmapFilter@@UAE@XZ" PURGE="-1" COMMENT="" />
    <EXPORT ORDINAL="1432" NAME="??1QPlainTextDocumentLayout@@UAE@XZ" PURGE="-1" COMMENT="" />
    <EXPORT ORDINAL="1433" NAME="??1QPlainTextEdit@@UAE@XZ" PURGE="0" COMMENT="" />
    <EXPORT ORDINAL="1434" NAME="??1QPlastiqueStyle@@UAE@XZ" PURGE="-1" COMMENT="" />
    <EXPORT ORDINAL="1435" NAME="??1QPolygon@@QAE@XZ" PURGE="-1" COMMENT="" />
    <EXPORT ORDINAL="1436" NAME="??1QPolygonF@@QAE@XZ" PURGE="-1" COMMENT="" />
    <EXPORT ORDINAL="1437" NAME="??1QPrintDialog@@UAE@XZ" PURGE="0" COMMENT="" />
    <EXPORT ORDINAL="1438" NAME="??1QPrintEngine@@UAE@XZ" PURGE="0" COMMENT="" />
    <EXPORT ORDINAL="1439" NAME="??1QPrintPreviewDialog@@UAE@XZ" PURGE="0" COMMENT="" />
    <EXPORT ORDINAL="1440" NAME="??1QPrintPreviewWidget@@UAE@XZ" PURGE="0" COMMENT="" />
    <EXPORT ORDINAL="1441" NAME="??1QPrinter@@UAE@XZ" PURGE="0" COMMENT="" />
    <EXPORT ORDINAL="1442" NAME="??1QPrinterInfo@@QAE@XZ" PURGE="0" COMMENT="" />
    <EXPORT ORDINAL="1443" NAME="??1QProgressBar@@UAE@XZ" PURGE="0" COMMENT="" />
    <EXPORT ORDINAL="1444" NAME="??1QProgressDialog@@UAE@XZ" PURGE="0" COMMENT="" />
    <EXPORT ORDINAL="1445" NAME="??1QProxyModel@@UAE@XZ" PURGE="-1" COMMENT="" />
    <EXPORT ORDINAL="1446" NAME="??1QProxyStyle@@UAE@XZ" PURGE="-1" COMMENT="" />
    <EXPORT ORDINAL="1447" NAME="??1QPushButton@@UAE@XZ" PURGE="0" COMMENT="" />
    <EXPORT ORDINAL="1448" NAME="??1QRadialGradient@@QAE@XZ" PURGE="0" COMMENT="" />
    <EXPORT ORDINAL="1449" NAME="??1QRadioButton@@UAE@XZ" PURGE="0" COMMENT="" />
    <EXPORT ORDINAL="1450" NAME="??1QRasterPixmapData@@UAE@XZ" PURGE="0" COMMENT="" />
    <EXPORT ORDINAL="1451" NAME="??1QRasterWindowSurface@@UAE@XZ" PURGE="0" COMMENT="" />
    <EXPORT ORDINAL="1452" NAME="??1QRawFont@@QAE@XZ" PURGE="0" COMMENT="" />
    <EXPORT ORDINAL="1453" NAME="??1QRegExpValidator@@UAE@XZ" PURGE="0" COMMENT="" />
    <EXPORT ORDINAL="1454" NAME="??1QRegion@@QAE@XZ" PURGE="0" COMMENT="" />
    <EXPORT ORDINAL="1455" NAME="??1QResizeEvent@@UAE@XZ" PURGE="-1" COMMENT="" />
    <EXPORT ORDINAL="1456" NAME="??1QRubberBand@@UAE@XZ" PURGE="0" COMMENT="" />
    <EXPORT ORDINAL="1457" NAME="??1QRuntimePixmapData@@UAE@XZ" PURGE="0" COMMENT="" />
    <EXPORT ORDINAL="1458" NAME="??1QScrollArea@@UAE@XZ" PURGE="0" COMMENT="" />
    <EXPORT ORDINAL="1459" NAME="??1QScrollBar@@UAE@XZ" PURGE="0" COMMENT="" />
    <EXPORT ORDINAL="1460" NAME="??1QSessionManager@@EAE@XZ" PURGE="-1" COMMENT="" />
    <EXPORT ORDINAL="1461" NAME="??1QShortcut@@UAE@XZ" PURGE="0" COMMENT="" />
    <EXPORT ORDINAL="1462" NAME="??1QShortcutEvent@@UAE@XZ" PURGE="0" COMMENT="" />
    <EXPORT ORDINAL="1463" NAME="??1QShowEvent@@UAE@XZ" PURGE="-1" COMMENT="" />
    <EXPORT ORDINAL="1464" NAME="??1QSizeGrip@@UAE@XZ" PURGE="0" COMMENT="" />
    <EXPORT ORDINAL="1465" NAME="??1QSlider@@UAE@XZ" PURGE="0" COMMENT="" />
    <EXPORT ORDINAL="1466" NAME="??1QSortFilterProxyModel@@UAE@XZ" PURGE="0" COMMENT="" />
    <EXPORT ORDINAL="1467" NAME="??1QSound@@UAE@XZ" PURGE="0" COMMENT="" />
    <EXPORT ORDINAL="1468" NAME="??1QSpacerItem@@UAE@XZ" PURGE="0" COMMENT="" />
    <EXPORT ORDINAL="1469" NAME="??1QSpinBox@@UAE@XZ" PURGE="0" COMMENT="" />
    <EXPORT ORDINAL="1470" NAME="??1QSplashScreen@@UAE@XZ" PURGE="0" COMMENT="" />
    <EXPORT ORDINAL="1471" NAME="??1QSplitter@@UAE@XZ" PURGE="0" COMMENT="" />
    <EXPORT ORDINAL="1472" NAME="??1QSplitterHandle@@UAE@XZ" PURGE="0" COMMENT="" />
    <EXPORT ORDINAL="1473" NAME="??1QStackedLayout@@UAE@XZ" PURGE="0" COMMENT="" />
    <EXPORT ORDINAL="1474" NAME="??1QStackedWidget@@UAE@XZ" PURGE="0" COMMENT="" />
    <EXPORT ORDINAL="1475" NAME="??1QStandardItem@@UAE@XZ" PURGE="0" COMMENT="" />
    <EXPORT ORDINAL="1476" NAME="??1QStandardItemModel@@UAE@XZ" PURGE="-1" COMMENT="" />
    <EXPORT ORDINAL="1477" NAME="??1QStaticText@@QAE@XZ" PURGE="0" COMMENT="" />
    <EXPORT ORDINAL="1478" NAME="??1QStaticTextItem@@QAE@XZ" PURGE="0" COMMENT="" />
    <EXPORT ORDINAL="1479" NAME="??1QStatusBar@@UAE@XZ" PURGE="0" COMMENT="" />
    <EXPORT ORDINAL="1480" NAME="??1QStatusTipEvent@@UAE@XZ" PURGE="0" COMMENT="" />
    <EXPORT ORDINAL="1481" NAME="??1QStringListModel@@UAE@XZ" PURGE="0" COMMENT="" />
    <EXPORT ORDINAL="1482" NAME="??1QStroker@@UAE@XZ" PURGE="0" COMMENT="" />
    <EXPORT ORDINAL="1483" NAME="??1QStrokerOps@@UAE@XZ" PURGE="0" COMMENT="" />
    <EXPORT ORDINAL="1484" NAME="??1QStyle@@UAE@XZ" PURGE="-1" COMMENT="" />
    <EXPORT ORDINAL="1485" NAME="??1QStyleFactoryInterface@@UAE@XZ" PURGE="0" COMMENT="" />
    <EXPORT ORDINAL="1486" NAME="??1QStyleHintReturn@@QAE@XZ" PURGE="0" COMMENT="" />
    <EXPORT ORDINAL="1487" NAME="??1QStyleHintReturnMask@@QAE@XZ" PURGE="0" COMMENT="" />
    <EXPORT ORDINAL="1488" NAME="??1QStyleHintReturnVariant@@QAE@XZ" PURGE="0" COMMENT="" />
    <EXPORT ORDINAL="1489" NAME="??1QStyleOption@@QAE@XZ" PURGE="0" COMMENT="" />
    <EXPORT ORDINAL="1490" NAME="??1QStyleOptionButton@@QAE@XZ" PURGE="0" COMMENT="" />
    <EXPORT ORDINAL="1491" NAME="??1QStyleOptionComboBox@@QAE@XZ" PURGE="0" COMMENT="" />
    <EXPORT ORDINAL="1492" NAME="??1QStyleOptionComplex@@QAE@XZ" PURGE="0" COMMENT="" />
    <EXPORT ORDINAL="1493" NAME="??1QStyleOptionDockWidget@@QAE@XZ" PURGE="0" COMMENT="" />
    <EXPORT ORDINAL="1494" NAME="??1QStyleOptionDockWidgetV2@@QAE@XZ" PURGE="0" COMMENT="" />
    <EXPORT ORDINAL="1495" NAME="??1QStyleOptionFocusRect@@QAE@XZ" PURGE="0" COMMENT="" />
    <EXPORT ORDINAL="1496" NAME="??1QStyleOptionFrame@@QAE@XZ" PURGE="0" COMMENT="" />
    <EXPORT ORDINAL="1497" NAME="??1QStyleOptionFrameV2@@QAE@XZ" PURGE="0" COMMENT="" />
    <EXPORT ORDINAL="1498" NAME="??1QStyleOptionFrameV3@@QAE@XZ" PURGE="0" COMMENT="" />
    <EXPORT ORDINAL="1499" NAME="??1QStyleOptionGraphicsItem@@QAE@XZ" PURGE="0" COMMENT="" />
    <EXPORT ORDINAL="1500" NAME="??1QStyleOptionGroupBox@@QAE@XZ" PURGE="0" COMMENT="" />
    <EXPORT ORDINAL="1501" NAME="??1QStyleOptionHeader@@QAE@XZ" PURGE="0" COMMENT="" />
    <EXPORT ORDINAL="1502" NAME="??1QStyleOptionMenuItem@@QAE@XZ" PURGE="0" COMMENT="" />
    <EXPORT ORDINAL="1503" NAME="??1QStyleOptionProgressBar@@QAE@XZ" PURGE="0" COMMENT="" />
    <EXPORT ORDINAL="1504" NAME="??1QStyleOptionProgressBarV2@@QAE@XZ" PURGE="0" COMMENT="" />
    <EXPORT ORDINAL="1505" NAME="??1QStyleOptionQ3DockWindow@@QAE@XZ" PURGE="0" COMMENT="" />
    <EXPORT ORDINAL="1506" NAME="??1QStyleOptionQ3ListView@@QAE@XZ" PURGE="0" COMMENT="" />
    <EXPORT ORDINAL="1507" NAME="??1QStyleOptionQ3ListViewItem@@QAE@XZ" PURGE="0" COMMENT="" />
    <EXPORT ORDINAL="1508" NAME="??1QStyleOptionRubberBand@@QAE@XZ" PURGE="0" COMMENT="" />
    <EXPORT ORDINAL="1509" NAME="??1QStyleOptionSizeGrip@@QAE@XZ" PURGE="0" COMMENT="" />
    <EXPORT ORDINAL="1510" NAME="??1QStyleOptionSlider@@QAE@XZ" PURGE="0" COMMENT="" />
    <EXPORT ORDINAL="1511" NAME="??1QStyleOptionSpinBox@@QAE@XZ" PURGE="0" COMMENT="" />
    <EXPORT ORDINAL="1512" NAME="??1QStyleOptionTab@@QAE@XZ" PURGE="0" COMMENT="" />
    <EXPORT ORDINAL="1513" NAME="??1QStyleOptionTabBarBase@@QAE@XZ" PURGE="0" COMMENT="" />
    <EXPORT ORDINAL="1514" NAME="??1QStyleOptionTabBarBaseV2@@QAE@XZ" PURGE="0" COMMENT="" />
    <EXPORT ORDINAL="1515" NAME="??1QStyleOptionTabV2@@QAE@XZ" PURGE="0" COMMENT="" />
    <EXPORT ORDINAL="1516" NAME="??1QStyleOptionTabV3@@QAE@XZ" PURGE="0" COMMENT="" />
    <EXPORT ORDINAL="1517" NAME="??1QStyleOptionTabWidgetFrame@@QAE@XZ" PURGE="0" COMMENT="" />
    <EXPORT ORDINAL="1518" NAME="??1QStyleOptionTabWidgetFrameV2@@QAE@XZ" PURGE="0" COMMENT="" />
    <EXPORT ORDINAL="1519" NAME="??1QStyleOptionTitleBar@@QAE@XZ" PURGE="0" COMMENT="" />
    <EXPORT ORDINAL="1520" NAME="??1QStyleOptionToolBar@@QAE@XZ" PURGE="0" COMMENT="" />
    <EXPORT ORDINAL="1521" NAME="??1QStyleOptionToolBox@@QAE@XZ" PURGE="0" COMMENT="" />
    <EXPORT ORDINAL="1522" NAME="??1QStyleOptionToolBoxV2@@QAE@XZ" PURGE="0" COMMENT="" />
    <EXPORT ORDINAL="1523" NAME="??1QStyleOptionToolButton@@QAE@XZ" PURGE="0" COMMENT="" />
    <EXPORT ORDINAL="1524" NAME="??1QStyleOptionViewItem@@QAE@XZ" PURGE="0" COMMENT="" />
    <EXPORT ORDINAL="1525" NAME="??1QStyleOptionViewItemV2@@QAE@XZ" PURGE="0" COMMENT="" />
    <EXPORT ORDINAL="1526" NAME="??1QStyleOptionViewItemV3@@QAE@XZ" PURGE="0" COMMENT="" />
    <EXPORT ORDINAL="1527" NAME="??1QStyleOptionViewItemV4@@QAE@XZ" PURGE="0" COMMENT="" />
    <EXPORT ORDINAL="1528" NAME="??1QStylePlugin@@UAE@XZ" PURGE="-1" COMMENT="" />
    <EXPORT ORDINAL="1529" NAME="??1QStyledItemDelegate@@UAE@XZ" PURGE="-1" COMMENT="" />
    <EXPORT ORDINAL="1530" NAME="??1QSwipeGesture@@UAE@XZ" PURGE="-1" COMMENT="" />
    <EXPORT ORDINAL="1531" NAME="??1QSyntaxHighlighter@@UAE@XZ" PURGE="0" COMMENT="" />
    <EXPORT ORDINAL="1532" NAME="??1QSystemTrayIcon@@UAE@XZ" PURGE="0" COMMENT="" />
    <EXPORT ORDINAL="1533" NAME="??1QTabBar@@UAE@XZ" PURGE="0" COMMENT="" />
    <EXPORT ORDINAL="1534" NAME="??1QTabWidget@@UAE@XZ" PURGE="0" COMMENT="" />
    <EXPORT ORDINAL="1535" NAME="??1QTableView@@UAE@XZ" PURGE="0" COMMENT="" />
    <EXPORT ORDINAL="1536" NAME="??1QTableWidget@@UAE@XZ" PURGE="0" COMMENT="" />
    <EXPORT ORDINAL="1537" NAME="??1QTableWidgetItem@@UAE@XZ" PURGE="0" COMMENT="" />
    <EXPORT ORDINAL="1538" NAME="??1QTableWidgetSelectionRange@@QAE@XZ" PURGE="0" COMMENT="" />
    <EXPORT ORDINAL="1539" NAME="??1QTabletEvent@@UAE@XZ" PURGE="-1" COMMENT="" />
    <EXPORT ORDINAL="1540" NAME="??1QTapAndHoldGesture@@UAE@XZ" PURGE="-1" COMMENT="" />
    <EXPORT ORDINAL="1541" NAME="??1QTapGesture@@UAE@XZ" PURGE="-1" COMMENT="" />
    <EXPORT ORDINAL="1542" NAME="??1QTessellator@@UAE@XZ" PURGE="0" COMMENT="" />
    <EXPORT ORDINAL="1543" NAME="??1QTextBlockFormat@@QAE@XZ" PURGE="0" COMMENT="" />
    <EXPORT ORDINAL="1544" NAME="??1QTextBlockGroup@@MAE@XZ" PURGE="-1" COMMENT="" />
    <EXPORT ORDINAL="1545" NAME="??1QTextBlockUserData@@UAE@XZ" PURGE="0" COMMENT="" />
    <EXPORT ORDINAL="1546" NAME="??1QTextBrowser@@UAE@XZ" PURGE="0" COMMENT="" />
    <EXPORT ORDINAL="1547" NAME="??1QTextCharFormat@@QAE@XZ" PURGE="0" COMMENT="" />
    <EXPORT ORDINAL="1548" NAME="??1QTextControl@@UAE@XZ" PURGE="-1" COMMENT="" />
    <EXPORT ORDINAL="1549" NAME="??1QTextCursor@@QAE@XZ" PURGE="0" COMMENT="" />
    <EXPORT ORDINAL="1550" NAME="??1QTextDocument@@UAE@XZ" PURGE="-1" COMMENT="" />
    <EXPORT ORDINAL="1551" NAME="??1QTextDocumentFragment@@QAE@XZ" PURGE="0" COMMENT="" />
    <EXPORT ORDINAL="1552" NAME="??1QTextDocumentWriter@@QAE@XZ" PURGE="0" COMMENT="" />
    <EXPORT ORDINAL="1553" NAME="??1QTextEdit@@UAE@XZ" PURGE="0" COMMENT="" />
    <EXPORT ORDINAL="1554" NAME="??1QTextEngine@@QAE@XZ" PURGE="0" COMMENT="" />
    <EXPORT ORDINAL="1555" NAME="??1QTextFormat@@QAE@XZ" PURGE="0" COMMENT="" />
    <EXPORT ORDINAL="1556" NAME="??1QTextFormatCollection@@QAE@XZ" PURGE="0" COMMENT="" />
    <EXPORT ORDINAL="1557" NAME="??1QTextFrame@@UAE@XZ" PURGE="0" COMMENT="" />
    <EXPORT ORDINAL="1558" NAME="??1QTextFrameFormat@@QAE@XZ" PURGE="0" COMMENT="" />
    <EXPORT ORDINAL="1559" NAME="??1QTextFrameLayoutData@@UAE@XZ" PURGE="0" COMMENT="" />
    <EXPORT ORDINAL="1560" NAME="??1QTextImageFormat@@QAE@XZ" PURGE="0" COMMENT="" />
    <EXPORT ORDINAL="1561" NAME="??1QTextLayout@@QAE@XZ" PURGE="0" COMMENT="" />
    <EXPORT ORDINAL="1562" NAME="??1QTextList@@UAE@XZ" PURGE="-1" COMMENT="" />
    <EXPORT ORDINAL="1563" NAME="??1QTextListFormat@@QAE@XZ" PURGE="0" COMMENT="" />
    <EXPORT ORDINAL="1564" NAME="??1QTextObject@@MAE@XZ" PURGE="-1" COMMENT="" />
    <EXPORT ORDINAL="1565" NAME="??1QTextObjectInterface@@UAE@XZ" PURGE="0" COMMENT="" />
    <EXPORT ORDINAL="1566" NAME="??1QTextOption@@QAE@XZ" PURGE="0" COMMENT="" />
    <EXPORT ORDINAL="1567" NAME="??1QTextTable@@UAE@XZ" PURGE="0" COMMENT="" />
    <EXPORT ORDINAL="1568" NAME="??1QTextTableCell@@QAE@XZ" PURGE="0" COMMENT="" />
    <EXPORT ORDINAL="1569" NAME="??1QTextTableCellFormat@@QAE@XZ" PURGE="0" COMMENT="" />
    <EXPORT ORDINAL="1570" NAME="??1QTextTableFormat@@QAE@XZ" PURGE="0" COMMENT="" />
    <EXPORT ORDINAL="1571" NAME="??1QTextureGlyphCache@@UAE@XZ" PURGE="0" COMMENT="" />
    <EXPORT ORDINAL="1572" NAME="??1QTimeEdit@@UAE@XZ" PURGE="0" COMMENT="" />
    <EXPORT ORDINAL="1573" NAME="??1QToolBar@@UAE@XZ" PURGE="0" COMMENT="" />
    <EXPORT ORDINAL="1574" NAME="??1QToolBarChangeEvent@@UAE@XZ" PURGE="-1" COMMENT="" />
    <EXPORT ORDINAL="1575" NAME="??1QToolBox@@UAE@XZ" PURGE="0" COMMENT="" />
    <EXPORT ORDINAL="1576" NAME="??1QToolButton@@UAE@XZ" PURGE="0" COMMENT="" />
    <EXPORT ORDINAL="1577" NAME="??1QTouchEvent@@UAE@XZ" PURGE="0" COMMENT="" />
    <EXPORT ORDINAL="1578" NAME="??1QTreeView@@UAE@XZ" PURGE="0" COMMENT="" />
    <EXPORT ORDINAL="1579" NAME="??1QTreeViewPrivate@@UAE@XZ" PURGE="0" COMMENT="" />
    <EXPORT ORDINAL="1580" NAME="??1QTreeWidget@@UAE@XZ" PURGE="0" COMMENT="" />
    <EXPORT ORDINAL="1581" NAME="??1QTreeWidgetItem@@UAE@XZ" PURGE="0" COMMENT="" />
    <EXPORT ORDINAL="1582" NAME="??1QTreeWidgetItemIterator@@QAE@XZ" PURGE="0" COMMENT="" />
    <EXPORT ORDINAL="1583" NAME="??1QUndoCommand@@UAE@XZ" PURGE="0" COMMENT="" />
    <EXPORT ORDINAL="1584" NAME="??1QUndoGroup@@UAE@XZ" PURGE="0" COMMENT="" />
    <EXPORT ORDINAL="1585" NAME="??1QUndoStack@@UAE@XZ" PURGE="0" COMMENT="" />
    <EXPORT ORDINAL="1586" NAME="??1QUndoView@@UAE@XZ" PURGE="0" COMMENT="" />
    <EXPORT ORDINAL="1587" NAME="??1QVBoxLayout@@UAE@XZ" PURGE="0" COMMENT="" />
    <EXPORT ORDINAL="1588" NAME="??1QValidator@@UAE@XZ" PURGE="-1" COMMENT="" />
    <EXPORT ORDINAL="1589" NAME="??1QVectorPath@@QAE@XZ" PURGE="0" COMMENT="" />
    <EXPORT ORDINAL="1590" NAME="??1QVolatileImage@@QAE@XZ" PURGE="0" COMMENT="" />
    <EXPORT ORDINAL="1591" NAME="??1QWhatsThisClickedEvent@@UAE@XZ" PURGE="0" COMMENT="" />
    <EXPORT ORDINAL="1592" NAME="??1QWheelEvent@@UAE@XZ" PURGE="-1" COMMENT="" />
    <EXPORT ORDINAL="1593" NAME="??1QWidget@@UAE@XZ" PURGE="0" COMMENT="" />
    <EXPORT ORDINAL="1594" NAME="??1QWidgetAction@@UAE@XZ" PURGE="0" COMMENT="" />
    <EXPORT ORDINAL="1595" NAME="??1QWidgetItem@@UAE@XZ" PURGE="0" COMMENT="" />
    <EXPORT ORDINAL="1596" NAME="??1QWidgetItemV2@@UAE@XZ" PURGE="0" COMMENT="" />
    <EXPORT ORDINAL="1597" NAME="??1QWidgetPrivate@@UAE@XZ" PURGE="0" COMMENT="" />
    <EXPORT ORDINAL="1598" NAME="??1QWidgetResizeHandler@@UAE@XZ" PURGE="-1" COMMENT="" />
    <EXPORT ORDINAL="1599" NAME="??1QWindowStateChangeEvent@@UAE@XZ" PURGE="-1" COMMENT="" />
    <EXPORT ORDINAL="1600" NAME="??1QWindowSurface@@UAE@XZ" PURGE="0" COMMENT="" />
    <EXPORT ORDINAL="1601" NAME="??1QWindowsMime@@UAE@XZ" PURGE="0" COMMENT="" />
    <EXPORT ORDINAL="1602" NAME="??1QWindowsStyle@@UAE@XZ" PURGE="-1" COMMENT="" />
    <EXPORT ORDINAL="1603" NAME="??1QWindowsVistaStyle@@UAE@XZ" PURGE="-1" COMMENT="" />
    <EXPORT ORDINAL="1604" NAME="??1QWindowsXPStyle@@UAE@XZ" PURGE="-1" COMMENT="" />
    <EXPORT ORDINAL="1605" NAME="??1QWizard@@UAE@XZ" PURGE="0" COMMENT="" />
    <EXPORT ORDINAL="1606" NAME="??1QWizardPage@@UAE@XZ" PURGE="0" COMMENT="" />
    <EXPORT ORDINAL="1607" NAME="??1QWorkspace@@UAE@XZ" PURGE="0" COMMENT="" />
    <EXPORT ORDINAL="1608" NAME="??1QZipReader@@QAE@XZ" PURGE="0" COMMENT="" />
    <EXPORT ORDINAL="1609" NAME="??1QZipWriter@@QAE@XZ" PURGE="0" COMMENT="" />
    <EXPORT ORDINAL="1610" NAME="??1StyleSelector@QCss@@UAE@XZ" PURGE="0" COMMENT="" />
    <EXPORT ORDINAL="1611" NAME="??1Symbol@QCss@@QAE@XZ" PURGE="-1" COMMENT="" />
    <EXPORT ORDINAL="1612" NAME="??1TouchPoint@QTouchEvent@@QAE@XZ" PURGE="0" COMMENT="" />
    <EXPORT ORDINAL="1613" NAME="??1Value@QCss@@QAE@XZ" PURGE="-1" COMMENT="" />
    <EXPORT ORDINAL="1614" NAME="??4?$QList@VQItemSelectionRange@@@@QAEAAV0@ABV0@@Z" PURGE="4" COMMENT="" />
    <EXPORT ORDINAL="1615" NAME="??4FileInfo@QZipReader@@QAEAAU01@ABU01@@Z" PURGE="4" COMMENT="" />
    <EXPORT ORDINAL="1616" NAME="??4Key@QPixmapCache@@QAEAAV01@ABV01@@Z" PURGE="4" COMMENT="" />
    <EXPORT ORDINAL="1617" NAME="??4Parser@QCss@@QAEAAV01@ABV01@@Z" PURGE="4" COMMENT="" />
    <EXPORT ORDINAL="1618" NAME="??4QAbstractUndoItem@@QAEAAV0@ABV0@@Z" PURGE="4" COMMENT="" />
    <EXPORT ORDINAL="1619" NAME="??4QAccessible2Interface@@QAEAAV0@ABV0@@Z" PURGE="4" COMMENT="" />
    <EXPORT ORDINAL="1620" NAME="??4QAccessible@@QAEAAV0@ABV0@@Z" PURGE="4" COMMENT="" />
    <EXPORT ORDINAL="1621" NAME="??4QAccessibleActionInterface@@QAEAAV0@ABV0@@Z" PURGE="4" COMMENT="" />
    <EXPORT ORDINAL="1622" NAME="??4QAccessibleEditableTextInterface@@QAEAAV0@ABV0@@Z" PURGE="4" COMMENT="" />
    <EXPORT ORDINAL="1623" NAME="??4QAccessibleEvent@@QAEAAV0@ABV0@@Z" PURGE="4" COMMENT="" />
    <EXPORT ORDINAL="1624" NAME="??4QAccessibleFactoryInterface@@QAEAAU0@ABU0@@Z" PURGE="4" COMMENT="" />
    <EXPORT ORDINAL="1625" NAME="??4QAccessibleImageInterface@@QAEAAV0@ABV0@@Z" PURGE="4" COMMENT="" />
    <EXPORT ORDINAL="1626" NAME="??4QAccessibleInterface@@QAEAAV0@ABV0@@Z" PURGE="4" COMMENT="" />
    <EXPORT ORDINAL="1627" NAME="??4QAccessibleInterfaceEx@@QAEAAV0@ABV0@@Z" PURGE="4" COMMENT="" />
    <EXPORT ORDINAL="1628" NAME="??4QAccessibleSimpleEditableTextInterface@@QAEAAV0@ABV0@@Z" PURGE="4" COMMENT="" />
    <EXPORT ORDINAL="1629" NAME="??4QAccessibleTable2CellInterface@@QAEAAV0@ABV0@@Z" PURGE="4" COMMENT="" />
    <EXPORT ORDINAL="1630" NAME="??4QAccessibleTable2Interface@@QAEAAV0@ABV0@@Z" PURGE="4" COMMENT="" />
    <EXPORT ORDINAL="1631" NAME="??4QAccessibleTableInterface@@QAEAAV0@ABV0@@Z" PURGE="4" COMMENT="" />
    <EXPORT ORDINAL="1632" NAME="??4QAccessibleTextInterface@@QAEAAV0@ABV0@@Z" PURGE="4" COMMENT="" />
    <EXPORT ORDINAL="1633" NAME="??4QAccessibleValueInterface@@QAEAAV0@ABV0@@Z" PURGE="4" COMMENT="" />
    <EXPORT ORDINAL="1634" NAME="??4QActionEvent@@QAEAAV0@ABV0@@Z" PURGE="4" COMMENT="" />
    <EXPORT ORDINAL="1635" NAME="??4QBezier@@QAEAAV0@ABV0@@Z" PURGE="4" COMMENT="" />
    <EXPORT ORDINAL="1636" NAME="??4QBitmap@@QAEAAV0@ABV0@@Z" PURGE="4" COMMENT="" />
    <EXPORT ORDINAL="1637" NAME="??4QBitmap@@QAEAAV0@ABVQImage@@@Z" PURGE="4" COMMENT="" />
    <EXPORT ORDINAL="1638" NAME="??4QBitmap@@QAEAAV0@ABVQPixmap@@@Z" PURGE="4" COMMENT="" />
    <EXPORT ORDINAL="1639" NAME="??4QBlittable@@QAEAAV0@ABV0@@Z" PURGE="4" COMMENT="" />
    <EXPORT ORDINAL="1640" NAME="??4QBrush@@QAEAAV0@ABV0@@Z" PURGE="4" COMMENT="" />
    <EXPORT ORDINAL="1641" NAME="??4QClipboardEvent@@QAEAAV0@ABV0@@Z" PURGE="4" COMMENT="" />
    <EXPORT ORDINAL="1642" NAME="??4QCloseEvent@@QAEAAV0@ABV0@@Z" PURGE="4" COMMENT="" />
    <EXPORT ORDINAL="1643" NAME="??4QColor@@QAEAAV0@ABV0@@Z" PURGE="4" COMMENT="" />
    <EXPORT ORDINAL="1644" NAME="??4QColor@@QAEAAV0@W4GlobalColor@Qt@@@Z" PURGE="4" COMMENT="" />
    <EXPORT ORDINAL="1645" NAME="??4QColorDialog@@QAEAAV0@ABV0@@Z" PURGE="4" COMMENT="" />
    <EXPORT ORDINAL="1646" NAME="??4QColorGroup@@QAEAAV0@ABV0@@Z" PURGE="4" COMMENT="" />
    <EXPORT ORDINAL="1647" NAME="??4QColormap@@QAEAAV0@ABV0@@Z" PURGE="4" COMMENT="" />
    <EXPORT ORDINAL="1648" NAME="??4QConicalGradient@@QAEAAV0@ABV0@@Z" PURGE="4" COMMENT="" />
    <EXPORT ORDINAL="1649" NAME="??4QContextMenuEvent@@QAEAAV0@ABV0@@Z" PURGE="4" COMMENT="" />
    <EXPORT ORDINAL="1650" NAME="??4QCursor@@QAEAAV0@ABV0@@Z" PURGE="4" COMMENT="" />
    <EXPORT ORDINAL="1651" NAME="??4QDashStroker@@QAEAAV0@ABV0@@Z" PURGE="4" COMMENT="" />
    <EXPORT ORDINAL="1652" NAME="??4QDesktopServices@@QAEAAV0@ABV0@@Z" PURGE="4" COMMENT="" />
    <EXPORT ORDINAL="1653" NAME="??4QDragEnterEvent@@QAEAAV0@ABV0@@Z" PURGE="4" COMMENT="" />
    <EXPORT ORDINAL="1654" NAME="??4QDragLeaveEvent@@QAEAAV0@ABV0@@Z" PURGE="4" COMMENT="" />
    <EXPORT ORDINAL="1655" NAME="??4QDragMoveEvent@@QAEAAV0@ABV0@@Z" PURGE="4" COMMENT="" />
    <EXPORT ORDINAL="1656" NAME="??4QDragResponseEvent@@QAEAAV0@ABV0@@Z" PURGE="4" COMMENT="" />
    <EXPORT ORDINAL="1657" NAME="??4QDropEvent@@QAEAAV0@ABV0@@Z" PURGE="4" COMMENT="" />
    <EXPORT ORDINAL="1658" NAME="??4QFileOpenEvent@@QAEAAV0@ABV0@@Z" PURGE="4" COMMENT="" />
    <EXPORT ORDINAL="1659" NAME="??4QFocusEvent@@QAEAAV0@ABV0@@Z" PURGE="4" COMMENT="" />
    <EXPORT ORDINAL="1660" NAME="??4QFont@@QAEAAV0@ABV0@@Z" PURGE="4" COMMENT="" />
    <EXPORT ORDINAL="1661" NAME="??4QFontDatabase@@QAEAAV0@ABV0@@Z" PURGE="4" COMMENT="" />
    <EXPORT ORDINAL="1662" NAME="??4QFontDialog@@QAEAAV0@ABV0@@Z" PURGE="4" COMMENT="" />
    <EXPORT ORDINAL="1663" NAME="??4QFontInfo@@QAEAAV0@ABV0@@Z" PURGE="4" COMMENT="" />
    <EXPORT ORDINAL="1664" NAME="??4QFontMetrics@@QAEAAV0@ABV0@@Z" PURGE="4" COMMENT="" />
    <EXPORT ORDINAL="1665" NAME="??4QFontMetricsF@@QAEAAV0@ABV0@@Z" PURGE="4" COMMENT="" />
    <EXPORT ORDINAL="1666" NAME="??4QFontMetricsF@@QAEAAV0@ABVQFontMetrics@@@Z" PURGE="4" COMMENT="" />
    <EXPORT ORDINAL="1667" NAME="??4QFontPrivate@@AAEAAV0@ABV0@@Z" PURGE="4" COMMENT="" />
    <EXPORT ORDINAL="1668" NAME="??4QGestureEvent@@QAEAAV0@ABV0@@Z" PURGE="4" COMMENT="" />
    <EXPORT ORDINAL="1669" NAME="??4QGestureRecognizer@@QAEAAV0@ABV0@@Z" PURGE="4" COMMENT="" />
    <EXPORT ORDINAL="1670" NAME="??4QGlyphRun@@QAEAAV0@ABV0@@Z" PURGE="4" COMMENT="" />
    <EXPORT ORDINAL="1671" NAME="??4QGradient@@QAEAAV0@ABV0@@Z" PURGE="4" COMMENT="" />
    <EXPORT ORDINAL="1672" NAME="??4QGraphicsEffectPrivate@@QAEAAV0@ABV0@@Z" PURGE="4" COMMENT="" />
    <EXPORT ORDINAL="1673" NAME="??4QGraphicsItemPrivate@@QAEAAV0@ABV0@@Z" PURGE="4" COMMENT="" />
    <EXPORT ORDINAL="1674" NAME="??4QGraphicsSystem@@QAEAAV0@ABV0@@Z" PURGE="4" COMMENT="" />
    <EXPORT ORDINAL="1675" NAME="??4QGraphicsSystemEx@@QAEAAV0@ABV0@@Z" PURGE="4" COMMENT="" />
    <EXPORT ORDINAL="1676" NAME="??4QGuiPlatformPluginInterface@@QAEAAU0@ABU0@@Z" PURGE="4" COMMENT="" />
    <EXPORT ORDINAL="1677" NAME="??4QHelpEvent@@QAEAAV0@ABV0@@Z" PURGE="4" COMMENT="" />
    <EXPORT ORDINAL="1678" NAME="??4QHideEvent@@QAEAAV0@ABV0@@Z" PURGE="4" COMMENT="" />
    <EXPORT ORDINAL="1679" NAME="??4QHoverEvent@@QAEAAV0@ABV0@@Z" PURGE="4" COMMENT="" />
    <EXPORT ORDINAL="1680" NAME="??4QIcon@@QAEAAV0@ABV0@@Z" PURGE="4" COMMENT="" />
    <EXPORT ORDINAL="1681" NAME="??4QIconDragEvent@@QAEAAV0@ABV0@@Z" PURGE="4" COMMENT="" />
    <EXPORT ORDINAL="1682" NAME="??4QIconEngine@@QAEAAV0@ABV0@@Z" PURGE="4" COMMENT="" />
    <EXPORT ORDINAL="1683" NAME="??4QIconEngineFactoryInterface@@QAEAAU0@ABU0@@Z" PURGE="4" COMMENT="" />
    <EXPORT ORDINAL="1684" NAME="??4QIconEngineFactoryInterfaceV2@@QAEAAU0@ABU0@@Z" PURGE="4" COMMENT="" />
    <EXPORT ORDINAL="1685" NAME="??4QIconEngineV2@@QAEAAV0@ABV0@@Z" PURGE="4" COMMENT="" />
    <EXPORT ORDINAL="1686" NAME="??4QImage@@QAEAAV0@ABV0@@Z" PURGE="4" COMMENT="" />
    <EXPORT ORDINAL="1687" NAME="??4QImageData@@QAEAAU0@ABU0@@Z" PURGE="4" COMMENT="" />
    <EXPORT ORDINAL="1688" NAME="??4QImageIOHandlerFactoryInterface@@QAEAAU0@ABU0@@Z" PURGE="4" COMMENT="" />
    <EXPORT ORDINAL="1689" NAME="??4QImagePixmapCleanupHooks@@QAEAAV0@ABV0@@Z" PURGE="4" COMMENT="" />
    <EXPORT ORDINAL="1690" NAME="??4QImageTextKeyLang@@QAEAAV0@ABV0@@Z" PURGE="4" COMMENT="" />
    <EXPORT ORDINAL="1691" NAME="??4QInputContextFactory@@QAEAAV0@ABV0@@Z" PURGE="4" COMMENT="" />
    <EXPORT ORDINAL="1692" NAME="??4QInputContextFactoryInterface@@QAEAAU0@ABU0@@Z" PURGE="4" COMMENT="" />
    <EXPORT ORDINAL="1693" NAME="??4QInputDialog@@QAEAAV0@ABV0@@Z" PURGE="4" COMMENT="" />
    <EXPORT ORDINAL="1694" NAME="??4QInputEvent@@QAEAAV0@ABV0@@Z" PURGE="4" COMMENT="" />
    <EXPORT ORDINAL="1695" NAME="??4QInputMethodEvent@@QAEAAV0@ABV0@@Z" PURGE="4" COMMENT="" />
    <EXPORT ORDINAL="1696" NAME="??4QItemEditorCreatorBase@@QAEAAV0@ABV0@@Z" PURGE="4" COMMENT="" />
    <EXPORT ORDINAL="1697" NAME="??4QItemEditorFactory@@QAEAAV0@ABV0@@Z" PURGE="4" COMMENT="" />
    <EXPORT ORDINAL="1698" NAME="??4QItemSelection@@QAEAAV0@ABV0@@Z" PURGE="4" COMMENT="" />
    <EXPORT ORDINAL="1699" NAME="??4QItemSelectionRange@@QAEAAV0@ABV0@@Z" PURGE="4" COMMENT="" />
    <EXPORT ORDINAL="1700" NAME="??4QKeyEvent@@QAEAAV0@ABV0@@Z" PURGE="4" COMMENT="" />
    <EXPORT ORDINAL="1701" NAME="??4QKeySequence@@QAEAAV0@ABV0@@Z" PURGE="4" COMMENT="" />
    <EXPORT ORDINAL="1702" NAME="??4QLayoutItem@@QAEAAV0@ABV0@@Z" PURGE="4" COMMENT="" />
    <EXPORT ORDINAL="1703" NAME="??4QLayoutIterator@@QAEAAV0@ABV0@@Z" PURGE="4" COMMENT="" />
    <EXPORT ORDINAL="1704" NAME="??4QLayoutPrivate@@QAEAAV0@ABV0@@Z" PURGE="4" COMMENT="" />
    <EXPORT ORDINAL="1705" NAME="??4QLinearGradient@@QAEAAV0@ABV0@@Z" PURGE="4" COMMENT="" />
    <EXPORT ORDINAL="1706" NAME="??4QListWidgetItem@@QAEAAV0@ABV0@@Z" PURGE="4" COMMENT="" />
    <EXPORT ORDINAL="1707" NAME="??4QMatrix4x4@@QAEAAV0@ABV0@@Z" PURGE="4" COMMENT="" />
    <EXPORT ORDINAL="1708" NAME="??4QMatrix@@QAEAAV0@ABV0@@Z" PURGE="4" COMMENT="" />
    <EXPORT ORDINAL="1709" NAME="??4QMenubarUpdatedEvent@@QAEAAV0@ABV0@@Z" PURGE="4" COMMENT="" />
    <EXPORT ORDINAL="1710" NAME="??4QMimeSource@@QAEAAV0@ABV0@@Z" PURGE="4" COMMENT="" />
    <EXPORT ORDINAL="1711" NAME="??4QMouseEvent@@QAEAAV0@ABV0@@Z" PURGE="4" COMMENT="" />
    <EXPORT ORDINAL="1712" NAME="??4QMoveEvent@@QAEAAV0@ABV0@@Z" PURGE="4" COMMENT="" />
    <EXPORT ORDINAL="1713" NAME="??4QPaintBuffer@@QAEAAV0@ABV0@@Z" PURGE="4" COMMENT="" />
    <EXPORT ORDINAL="1714" NAME="??4QPaintEngineExPrivate@@QAEAAV0@ABV0@@Z" PURGE="4" COMMENT="" />
    <EXPORT ORDINAL="1715" NAME="??4QPaintEngineExReplayer@@QAEAAV0@ABV0@@Z" PURGE="4" COMMENT="" />
    <EXPORT ORDINAL="1716" NAME="??4QPaintEngineState@@QAEAAV0@ABV0@@Z" PURGE="4" COMMENT="" />
    <EXPORT ORDINAL="1717" NAME="??4QPaintEvent@@QAEAAV0@ABV0@@Z" PURGE="4" COMMENT="" />
    <EXPORT ORDINAL="1718" NAME="??4QPainterPath@@QAEAAV0@ABV0@@Z" PURGE="4" COMMENT="" />
    <EXPORT ORDINAL="1719" NAME="??4QPainterReplayer@@QAEAAV0@ABV0@@Z" PURGE="4" COMMENT="" />
    <EXPORT ORDINAL="1720" NAME="??4QPainterState@@QAEAAV0@ABV0@@Z" PURGE="4" COMMENT="" />
    <EXPORT ORDINAL="1721" NAME="??4QPalette@@QAEAAV0@ABV0@@Z" PURGE="4" COMMENT="" />
    <EXPORT ORDINAL="1722" NAME="??4QPen@@QAEAAV0@ABV0@@Z" PURGE="4" COMMENT="" />
    <EXPORT ORDINAL="1723" NAME="??4QPicture@@QAEAAV0@ABV0@@Z" PURGE="4" COMMENT="" />
    <EXPORT ORDINAL="1724" NAME="??4QPictureFormatInterface@@QAEAAU0@ABU0@@Z" PURGE="4" COMMENT="" />
    <EXPORT ORDINAL="1725" NAME="??4QPixmap@@QAEAAV0@ABV0@@Z" PURGE="4" COMMENT="" />
    <EXPORT ORDINAL="1726" NAME="??4QPixmap@@QAEAAV0@ABVQImage@@@Z" PURGE="4" COMMENT="" />
    <EXPORT ORDINAL="1727" NAME="??4QPixmapCache@@QAEAAV0@ABV0@@Z" PURGE="4" COMMENT="" />
    <EXPORT ORDINAL="1728" NAME="??4QPixmapData@@QAEAAV0@ABV0@@Z" PURGE="4" COMMENT="" />
    <EXPORT ORDINAL="1729" NAME="??4QPolygon@@QAEAAV0@ABV0@@Z" PURGE="4" COMMENT="" />
    <EXPORT ORDINAL="1730" NAME="??4QPolygonF@@QAEAAV0@ABV0@@Z" PURGE="4" COMMENT="" />
    <EXPORT ORDINAL="1731" NAME="??4QPrintEngine@@QAEAAV0@ABV0@@Z" PURGE="4" COMMENT="" />
    <EXPORT ORDINAL="1732" NAME="??4QPrinterInfo@@QAEAAV0@ABV0@@Z" PURGE="4" COMMENT="" />
    <EXPORT ORDINAL="1733" NAME="??4QQuaternion@@QAEAAV0@ABV0@@Z" PURGE="4" COMMENT="" />
    <EXPORT ORDINAL="1734" NAME="??4QRadialGradient@@QAEAAV0@ABV0@@Z" PURGE="4" COMMENT="" />
    <EXPORT ORDINAL="1735" NAME="??4QRasterPixmapData@@QAEAAV0@ABV0@@Z" PURGE="4" COMMENT="" />
    <EXPORT ORDINAL="1736" NAME="??4QRawFont@@QAEAAV0@ABV0@@Z" PURGE="4" COMMENT="" />
    <EXPORT ORDINAL="1737" NAME="??4QRegion@@QAEAAV0@ABV0@@Z" PURGE="4" COMMENT="" />
    <EXPORT ORDINAL="1738" NAME="??4QResizeEvent@@QAEAAV0@ABV0@@Z" PURGE="4" COMMENT="" />
    <EXPORT ORDINAL="1739" NAME="??4QRuntimePixmapData@@QAEAAV0@ABV0@@Z" PURGE="4" COMMENT="" />
    <EXPORT ORDINAL="1740" NAME="??4QShortcutEvent@@QAEAAV0@ABV0@@Z" PURGE="4" COMMENT="" />
    <EXPORT ORDINAL="1741" NAME="??4QShowEvent@@QAEAAV0@ABV0@@Z" PURGE="4" COMMENT="" />
    <EXPORT ORDINAL="1742" NAME="??4QSizePolicy@@QAEAAV0@ABV0@@Z" PURGE="4" COMMENT="" />
    <EXPORT ORDINAL="1743" NAME="??4QSpacerItem@@QAEAAV0@ABV0@@Z" PURGE="4" COMMENT="" />
    <EXPORT ORDINAL="1744" NAME="??4QStandardItem@@IAEAAV0@ABV0@@Z" PURGE="4" COMMENT="" />
    <EXPORT ORDINAL="1745" NAME="??4QStaticText@@QAEAAV0@ABV0@@Z" PURGE="4" COMMENT="" />
    <EXPORT ORDINAL="1746" NAME="??4QStaticTextItem@@QAEXABV0@@Z" PURGE="4" COMMENT="" />
    <EXPORT ORDINAL="1747" NAME="??4QStatusTipEvent@@QAEAAV0@ABV0@@Z" PURGE="4" COMMENT="" />
    <EXPORT ORDINAL="1748" NAME="??4QStroker@@QAEAAV0@ABV0@@Z" PURGE="4" COMMENT="" />
    <EXPORT ORDINAL="1749" NAME="??4QStrokerOps@@QAEAAV0@ABV0@@Z" PURGE="4" COMMENT="" />
    <EXPORT ORDINAL="1750" NAME="??4QStyleFactory@@QAEAAV0@ABV0@@Z" PURGE="4" COMMENT="" />
    <EXPORT ORDINAL="1751" NAME="??4QStyleFactoryInterface@@QAEAAU0@ABU0@@Z" PURGE="4" COMMENT="" />
    <EXPORT ORDINAL="1752" NAME="??4QStyleHintReturn@@QAEAAV0@ABV0@@Z" PURGE="4" COMMENT="" />
    <EXPORT ORDINAL="1753" NAME="??4QStyleHintReturnMask@@QAEAAV0@ABV0@@Z" PURGE="4" COMMENT="" />
    <EXPORT ORDINAL="1754" NAME="??4QStyleHintReturnVariant@@QAEAAV0@ABV0@@Z" PURGE="4" COMMENT="" />
    <EXPORT ORDINAL="1755" NAME="??4QStyleOption@@QAEAAV0@ABV0@@Z" PURGE="4" COMMENT="" />
    <EXPORT ORDINAL="1756" NAME="??4QStyleOptionButton@@QAEAAV0@ABV0@@Z" PURGE="4" COMMENT="" />
    <EXPORT ORDINAL="1757" NAME="??4QStyleOptionComboBox@@QAEAAV0@ABV0@@Z" PURGE="4" COMMENT="" />
    <EXPORT ORDINAL="1758" NAME="??4QStyleOptionComplex@@QAEAAV0@ABV0@@Z" PURGE="4" COMMENT="" />
    <EXPORT ORDINAL="1759" NAME="??4QStyleOptionDockWidget@@QAEAAV0@ABV0@@Z" PURGE="4" COMMENT="" />
    <EXPORT ORDINAL="1760" NAME="??4QStyleOptionDockWidgetV2@@QAEAAV0@ABV0@@Z" PURGE="4" COMMENT="" />
    <EXPORT ORDINAL="1761" NAME="??4QStyleOptionDockWidgetV2@@QAEAAV0@ABVQStyleOptionDockWidget@@@Z" PURGE="4" COMMENT="" />
    <EXPORT ORDINAL="1762" NAME="??4QStyleOptionFocusRect@@QAEAAV0@ABV0@@Z" PURGE="4" COMMENT="" />
    <EXPORT ORDINAL="1763" NAME="??4QStyleOptionFrame@@QAEAAV0@ABV0@@Z" PURGE="4" COMMENT="" />
    <EXPORT ORDINAL="1764" NAME="??4QStyleOptionFrameV2@@QAEAAV0@ABV0@@Z" PURGE="4" COMMENT="" />
    <EXPORT ORDINAL="1765" NAME="??4QStyleOptionFrameV2@@QAEAAV0@ABVQStyleOptionFrame@@@Z" PURGE="4" COMMENT="" />
    <EXPORT ORDINAL="1766" NAME="??4QStyleOptionFrameV3@@QAEAAV0@ABV0@@Z" PURGE="4" COMMENT="" />
    <EXPORT ORDINAL="1767" NAME="??4QStyleOptionFrameV3@@QAEAAV0@ABVQStyleOptionFrame@@@Z" PURGE="4" COMMENT="" />
    <EXPORT ORDINAL="1768" NAME="??4QStyleOptionGraphicsItem@@QAEAAV0@ABV0@@Z" PURGE="4" COMMENT="" />
    <EXPORT ORDINAL="1769" NAME="??4QStyleOptionGroupBox@@QAEAAV0@ABV0@@Z" PURGE="4" COMMENT="" />
    <EXPORT ORDINAL="1770" NAME="??4QStyleOptionHeader@@QAEAAV0@ABV0@@Z" PURGE="4" COMMENT="" />
    <EXPORT ORDINAL="1771" NAME="??4QStyleOptionMenuItem@@QAEAAV0@ABV0@@Z" PURGE="4" COMMENT="" />
    <EXPORT ORDINAL="1772" NAME="??4QStyleOptionProgressBar@@QAEAAV0@ABV0@@Z" PURGE="4" COMMENT="" />
    <EXPORT ORDINAL="1773" NAME="??4QStyleOptionProgressBarV2@@QAEAAV0@ABV0@@Z" PURGE="4" COMMENT="" />
    <EXPORT ORDINAL="1774" NAME="??4QStyleOptionProgressBarV2@@QAEAAV0@ABVQStyleOptionProgressBar@@@Z" PURGE="4" COMMENT="" />
    <EXPORT ORDINAL="1775" NAME="??4QStyleOptionQ3DockWindow@@QAEAAV0@ABV0@@Z" PURGE="4" COMMENT="" />
    <EXPORT ORDINAL="1776" NAME="??4QStyleOptionQ3ListView@@QAEAAV0@ABV0@@Z" PURGE="4" COMMENT="" />
    <EXPORT ORDINAL="1777" NAME="??4QStyleOptionQ3ListViewItem@@QAEAAV0@ABV0@@Z" PURGE="4" COMMENT="" />
    <EXPORT ORDINAL="1778" NAME="??4QStyleOptionRubberBand@@QAEAAV0@ABV0@@Z" PURGE="4" COMMENT="" />
    <EXPORT ORDINAL="1779" NAME="??4QStyleOptionSizeGrip@@QAEAAV0@ABV0@@Z" PURGE="4" COMMENT="" />
    <EXPORT ORDINAL="1780" NAME="??4QStyleOptionSlider@@QAEAAV0@ABV0@@Z" PURGE="4" COMMENT="" />
    <EXPORT ORDINAL="1781" NAME="??4QStyleOptionSpinBox@@QAEAAV0@ABV0@@Z" PURGE="4" COMMENT="" />
    <EXPORT ORDINAL="1782" NAME="??4QStyleOptionTab@@QAEAAV0@ABV0@@Z" PURGE="4" COMMENT="" />
    <EXPORT ORDINAL="1783" NAME="??4QStyleOptionTabBarBase@@QAEAAV0@ABV0@@Z" PURGE="4" COMMENT="" />
    <EXPORT ORDINAL="1784" NAME="??4QStyleOptionTabBarBaseV2@@QAEAAV0@ABV0@@Z" PURGE="4" COMMENT="" />
    <EXPORT ORDINAL="1785" NAME="??4QStyleOptionTabBarBaseV2@@QAEAAV0@ABVQStyleOptionTabBarBase@@@Z" PURGE="4" COMMENT="" />
    <EXPORT ORDINAL="1786" NAME="??4QStyleOptionTabV2@@QAEAAV0@ABV0@@Z" PURGE="4" COMMENT="" />
    <EXPORT ORDINAL="1787" NAME="??4QStyleOptionTabV2@@QAEAAV0@ABVQStyleOptionTab@@@Z" PURGE="4" COMMENT="" />
    <EXPORT ORDINAL="1788" NAME="??4QStyleOptionTabV3@@QAEAAV0@ABV0@@Z" PURGE="4" COMMENT="" />
    <EXPORT ORDINAL="1789" NAME="??4QStyleOptionTabV3@@QAEAAV0@ABVQStyleOptionTab@@@Z" PURGE="4" COMMENT="" />
    <EXPORT ORDINAL="1790" NAME="??4QStyleOptionTabWidgetFrame@@QAEAAV0@ABV0@@Z" PURGE="4" COMMENT="" />
    <EXPORT ORDINAL="1791" NAME="??4QStyleOptionTabWidgetFrameV2@@QAEAAV0@ABV0@@Z" PURGE="4" COMMENT="" />
    <EXPORT ORDINAL="1792" NAME="??4QStyleOptionTabWidgetFrameV2@@QAEAAV0@ABVQStyleOptionTabWidgetFrame@@@Z" PURGE="4" COMMENT="" />
    <EXPORT ORDINAL="1793" NAME="??4QStyleOptionTitleBar@@QAEAAV0@ABV0@@Z" PURGE="4" COMMENT="" />
    <EXPORT ORDINAL="1794" NAME="??4QStyleOptionToolBar@@QAEAAV0@ABV0@@Z" PURGE="4" COMMENT="" />
    <EXPORT ORDINAL="1795" NAME="??4QStyleOptionToolBox@@QAEAAV0@ABV0@@Z" PURGE="4" COMMENT="" />
    <EXPORT ORDINAL="1796" NAME="??4QStyleOptionToolBoxV2@@QAEAAV0@ABV0@@Z" PURGE="4" COMMENT="" />
    <EXPORT ORDINAL="1797" NAME="??4QStyleOptionToolBoxV2@@QAEAAV0@ABVQStyleOptionToolBox@@@Z" PURGE="4" COMMENT="" />
    <EXPORT ORDINAL="1798" NAME="??4QStyleOptionToolButton@@QAEAAV0@ABV0@@Z" PURGE="4" COMMENT="" />
    <EXPORT ORDINAL="1799" NAME="??4QStyleOptionViewItem@@QAEAAV0@ABV0@@Z" PURGE="4" COMMENT="" />
    <EXPORT ORDINAL="1800" NAME="??4QStyleOptionViewItemV2@@QAEAAV0@ABV0@@Z" PURGE="4" COMMENT="" />
    <EXPORT ORDINAL="1801" NAME="??4QStyleOptionViewItemV2@@QAEAAV0@ABVQStyleOptionViewItem@@@Z" PURGE="4" COMMENT="" />
    <EXPORT ORDINAL="1802" NAME="??4QStyleOptionViewItemV3@@QAEAAV0@ABV0@@Z" PURGE="4" COMMENT="" />
    <EXPORT ORDINAL="1803" NAME="??4QStyleOptionViewItemV3@@QAEAAV0@ABVQStyleOptionViewItem@@@Z" PURGE="4" COMMENT="" />
    <EXPORT ORDINAL="1804" NAME="??4QStyleOptionViewItemV4@@QAEAAV0@ABV0@@Z" PURGE="4" COMMENT="" />
    <EXPORT ORDINAL="1805" NAME="??4QStyleOptionViewItemV4@@QAEAAV0@ABVQStyleOptionViewItem@@@Z" PURGE="4" COMMENT="" />
    <EXPORT ORDINAL="1806" NAME="??4QTableWidgetItem@@QAEAAV0@ABV0@@Z" PURGE="4" COMMENT="" />
    <EXPORT ORDINAL="1807" NAME="??4QTableWidgetSelectionRange@@QAEAAV0@ABV0@@Z" PURGE="4" COMMENT="" />
    <EXPORT ORDINAL="1808" NAME="??4QTabletEvent@@QAEAAV0@ABV0@@Z" PURGE="4" COMMENT="" />
    <EXPORT ORDINAL="1809" NAME="??4QTessellator@@QAEAAV0@ABV0@@Z" PURGE="4" COMMENT="" />
    <EXPORT ORDINAL="1810" NAME="??4QTextBlock@@QAEAAV0@ABV0@@Z" PURGE="4" COMMENT="" />
    <EXPORT ORDINAL="1811" NAME="??4QTextBlockFormat@@QAEAAV0@ABV0@@Z" PURGE="4" COMMENT="" />
    <EXPORT ORDINAL="1812" NAME="??4QTextBlockUserData@@QAEAAV0@ABV0@@Z" PURGE="4" COMMENT="" />
    <EXPORT ORDINAL="1813" NAME="??4QTextCharFormat@@QAEAAV0@ABV0@@Z" PURGE="4" COMMENT="" />
    <EXPORT ORDINAL="1814" NAME="??4QTextCursor@@QAEAAV0@ABV0@@Z" PURGE="4" COMMENT="" />
    <EXPORT ORDINAL="1815" NAME="??4QTextDocumentFragment@@QAEAAV0@ABV0@@Z" PURGE="4" COMMENT="" />
    <EXPORT ORDINAL="1816" NAME="??4QTextEngine@@QAEAAV0@ABV0@@Z" PURGE="4" COMMENT="" />
    <EXPORT ORDINAL="1817" NAME="??4QTextFormat@@QAEAAV0@ABV0@@Z" PURGE="4" COMMENT="" />
    <EXPORT ORDINAL="1818" NAME="??4QTextFormatCollection@@QAEAAV0@ABV0@@Z" PURGE="4" COMMENT="" />
    <EXPORT ORDINAL="1819" NAME="??4QTextFragment@@QAEAAV0@ABV0@@Z" PURGE="4" COMMENT="" />
    <EXPORT ORDINAL="1820" NAME="??4QTextFrameFormat@@QAEAAV0@ABV0@@Z" PURGE="4" COMMENT="" />
    <EXPORT ORDINAL="1821" NAME="??4QTextFrameLayoutData@@QAEAAV0@ABV0@@Z" PURGE="4" COMMENT="" />
    <EXPORT ORDINAL="1822" NAME="??4QTextImageFormat@@QAEAAV0@ABV0@@Z" PURGE="4" COMMENT="" />
    <EXPORT ORDINAL="1823" NAME="??4QTextInlineObject@@QAEAAV0@ABV0@@Z" PURGE="4" COMMENT="" />
    <EXPORT ORDINAL="1824" NAME="??4QTextItem@@QAEAAV0@ABV0@@Z" PURGE="4" COMMENT="" />
    <EXPORT ORDINAL="1825" NAME="??4QTextLength@@QAEAAV0@ABV0@@Z" PURGE="4" COMMENT="" />
    <EXPORT ORDINAL="1826" NAME="??4QTextLine@@QAEAAV0@ABV0@@Z" PURGE="4" COMMENT="" />
    <EXPORT ORDINAL="1827" NAME="??4QTextListFormat@@QAEAAV0@ABV0@@Z" PURGE="4" COMMENT="" />
    <EXPORT ORDINAL="1828" NAME="??4QTextObjectInterface@@QAEAAV0@ABV0@@Z" PURGE="4" COMMENT="" />
    <EXPORT ORDINAL="1829" NAME="??4QTextOption@@QAEAAV0@ABV0@@Z" PURGE="4" COMMENT="" />
    <EXPORT ORDINAL="1830" NAME="??4QTextTableCell@@QAEAAV0@ABV0@@Z" PURGE="4" COMMENT="" />
    <EXPORT ORDINAL="1831" NAME="??4QTextTableCellFormat@@QAEAAV0@ABV0@@Z" PURGE="4" COMMENT="" />
    <EXPORT ORDINAL="1832" NAME="??4QTextTableFormat@@QAEAAV0@ABV0@@Z" PURGE="4" COMMENT="" />
    <EXPORT ORDINAL="1833" NAME="??4QToolBarChangeEvent@@QAEAAV0@ABV0@@Z" PURGE="4" COMMENT="" />
    <EXPORT ORDINAL="1834" NAME="??4QToolTip@@QAEAAV0@ABV0@@Z" PURGE="4" COMMENT="" />
    <EXPORT ORDINAL="1835" NAME="??4QTouchEvent@@QAEAAV0@ABV0@@Z" PURGE="4" COMMENT="" />
    <EXPORT ORDINAL="1836" NAME="??4QTransform@@QAEAAV0@ABV0@@Z" PURGE="4" COMMENT="" />
    <EXPORT ORDINAL="1837" NAME="??4QTreeWidgetItem@@QAEAAV0@ABV0@@Z" PURGE="4" COMMENT="" />
    <EXPORT ORDINAL="1838" NAME="??4QTreeWidgetItemIterator@@QAEAAV0@ABV0@@Z" PURGE="4" COMMENT="" />
    <EXPORT ORDINAL="1839" NAME="??4QVector2D@@QAEAAV0@ABV0@@Z" PURGE="4" COMMENT="" />
    <EXPORT ORDINAL="1840" NAME="??4QVector3D@@QAEAAV0@ABV0@@Z" PURGE="4" COMMENT="" />
    <EXPORT ORDINAL="1841" NAME="??4QVector4D@@QAEAAV0@ABV0@@Z" PURGE="4" COMMENT="" />
    <EXPORT ORDINAL="1842" NAME="??4QVolatileImage@@QAEAAV0@ABV0@@Z" PURGE="4" COMMENT="" />
    <EXPORT ORDINAL="1843" NAME="??4QWhatsThis@@QAEAAV0@ABV0@@Z" PURGE="4" COMMENT="" />
    <EXPORT ORDINAL="1844" NAME="??4QWhatsThisClickedEvent@@QAEAAV0@ABV0@@Z" PURGE="4" COMMENT="" />
    <EXPORT ORDINAL="1845" NAME="??4QWheelEvent@@QAEAAV0@ABV0@@Z" PURGE="4" COMMENT="" />
    <EXPORT ORDINAL="1846" NAME="??4QWidgetPrivate@@QAEAAV0@ABV0@@Z" PURGE="4" COMMENT="" />
    <EXPORT ORDINAL="1847" NAME="??4QWindowStateChangeEvent@@QAEAAV0@ABV0@@Z" PURGE="4" COMMENT="" />
    <EXPORT ORDINAL="1848" NAME="??4QWindowSurface@@QAEAAV0@ABV0@@Z" PURGE="4" COMMENT="" />
    <EXPORT ORDINAL="1849" NAME="??4QWindowsMime@@QAEAAV0@ABV0@@Z" PURGE="4" COMMENT="" />
    <EXPORT ORDINAL="1850" NAME="??4StyleSelector@QCss@@QAEAAV01@ABV01@@Z" PURGE="4" COMMENT="" />
    <EXPORT ORDINAL="1851" NAME="??4Symbol@QCss@@QAEAAU01@ABU01@@Z" PURGE="4" COMMENT="" />
    <EXPORT ORDINAL="1852" NAME="??4Tab@QTextOption@@QAEAAU01@ABU01@@Z" PURGE="4" COMMENT="" />
    <EXPORT ORDINAL="1853" NAME="??4TouchPoint@QTouchEvent@@QAEAAV01@ABV01@@Z" PURGE="4" COMMENT="" />
    <EXPORT ORDINAL="1854" NAME="??4Value@QCss@@QAEAAU01@ABU01@@Z" PURGE="4" COMMENT="" />
    <EXPORT ORDINAL="1855" NAME="??4iterator@QTextBlock@@QAEAAV01@ABV01@@Z" PURGE="4" COMMENT="" />
    <EXPORT ORDINAL="1856" NAME="??4iterator@QTextFrame@@QAEAAV01@ABV01@@Z" PURGE="4" COMMENT="" />
    <EXPORT ORDINAL="1857" NAME="??5@YAAAVQDataStream@@AAV0@AAVQBrush@@@Z" PURGE="0" COMMENT="" />
    <EXPORT ORDINAL="1858" NAME="??5@YAAAVQDataStream@@AAV0@AAVQColor@@@Z" PURGE="0" COMMENT="" />
    <EXPORT ORDINAL="1859" NAME="??5@YAAAVQDataStream@@AAV0@AAVQColorGroup@@@Z" PURGE="0" COMMENT="" />
    <EXPORT ORDINAL="1860" NAME="??5@YAAAVQDataStream@@AAV0@AAVQCursor@@@Z" PURGE="0" COMMENT="" />
    <EXPORT ORDINAL="1861" NAME="??5@YAAAVQDataStream@@AAV0@AAVQFont@@@Z" PURGE="0" COMMENT="" />
    <EXPORT ORDINAL="1862" NAME="??5@YAAAVQDataStream@@AAV0@AAVQIcon@@@Z" PURGE="0" COMMENT="" />
    <EXPORT ORDINAL="1863" NAME="??5@YAAAVQDataStream@@AAV0@AAVQImage@@@Z" PURGE="0" COMMENT="" />
    <EXPORT ORDINAL="1864" NAME="??5@YAAAVQDataStream@@AAV0@AAVQKeySequence@@@Z" PURGE="0" COMMENT="" />
    <EXPORT ORDINAL="1865" NAME="??5@YAAAVQDataStream@@AAV0@AAVQListWidgetItem@@@Z" PURGE="0" COMMENT="" />
    <EXPORT ORDINAL="1866" NAME="??5@YAAAVQDataStream@@AAV0@AAVQMatrix4x4@@@Z" PURGE="0" COMMENT="" />
    <EXPORT ORDINAL="1867" NAME="??5@YAAAVQDataStream@@AAV0@AAVQMatrix@@@Z" PURGE="0" COMMENT="" />
    <EXPORT ORDINAL="1868" NAME="??5@YAAAVQDataStream@@AAV0@AAVQPaintBuffer@@@Z" PURGE="0" COMMENT="" />
    <EXPORT ORDINAL="1869" NAME="??5@YAAAVQDataStream@@AAV0@AAVQPainterPath@@@Z" PURGE="0" COMMENT="" />
    <EXPORT ORDINAL="1870" NAME="??5@YAAAVQDataStream@@AAV0@AAVQPalette@@@Z" PURGE="0" COMMENT="" />
    <EXPORT ORDINAL="1871" NAME="??5@YAAAVQDataStream@@AAV0@AAVQPen@@@Z" PURGE="0" COMMENT="" />
    <EXPORT ORDINAL="1872" NAME="??5@YAAAVQDataStream@@AAV0@AAVQPicture@@@Z" PURGE="0" COMMENT="" />
    <EXPORT ORDINAL="1873" NAME="??5@YAAAVQDataStream@@AAV0@AAVQPixmap@@@Z" PURGE="0" COMMENT="" />
    <EXPORT ORDINAL="1874" NAME="??5@YAAAVQDataStream@@AAV0@AAVQPolygon@@@Z" PURGE="0" COMMENT="" />
    <EXPORT ORDINAL="1875" NAME="??5@YAAAVQDataStream@@AAV0@AAVQPolygonF@@@Z" PURGE="0" COMMENT="" />
    <EXPORT ORDINAL="1876" NAME="??5@YAAAVQDataStream@@AAV0@AAVQQuaternion@@@Z" PURGE="0" COMMENT="" />
    <EXPORT ORDINAL="1877" NAME="??5@YAAAVQDataStream@@AAV0@AAVQRegion@@@Z" PURGE="0" COMMENT="" />
    <EXPORT ORDINAL="1878" NAME="??5@YAAAVQDataStream@@AAV0@AAVQSizePolicy@@@Z" PURGE="0" COMMENT="" />
    <EXPORT ORDINAL="1879" NAME="??5@YAAAVQDataStream@@AAV0@AAVQStandardItem@@@Z" PURGE="0" COMMENT="" />
    <EXPORT ORDINAL="1880" NAME="??5@YAAAVQDataStream@@AAV0@AAVQTableWidgetItem@@@Z" PURGE="0" COMMENT="" />
    <EXPORT ORDINAL="1881" NAME="??5@YAAAVQDataStream@@AAV0@AAVQTextFormat@@@Z" PURGE="0" COMMENT="" />
    <EXPORT ORDINAL="1882" NAME="??5@YAAAVQDataStream@@AAV0@AAVQTextLength@@@Z" PURGE="0" COMMENT="" />
    <EXPORT ORDINAL="1883" NAME="??5@YAAAVQDataStream@@AAV0@AAVQTransform@@@Z" PURGE="0" COMMENT="" />
    <EXPORT ORDINAL="1884" NAME="??5@YAAAVQDataStream@@AAV0@AAVQTreeWidgetItem@@@Z" PURGE="0" COMMENT="" />
    <EXPORT ORDINAL="1885" NAME="??5@YAAAVQDataStream@@AAV0@AAVQVector2D@@@Z" PURGE="0" COMMENT="" />
    <EXPORT ORDINAL="1886" NAME="??5@YAAAVQDataStream@@AAV0@AAVQVector3D@@@Z" PURGE="0" COMMENT="" />
    <EXPORT ORDINAL="1887" NAME="??5@YAAAVQDataStream@@AAV0@AAVQVector4D@@@Z" PURGE="0" COMMENT="" />
    <EXPORT ORDINAL="1888" NAME="??5@YAAAVQTextStream@@AAV0@AAVQSplitter@@@Z" PURGE="0" COMMENT="" />
    <EXPORT ORDINAL="1889" NAME="??6?$QList@VQItemSelectionRange@@@@QAEAAV0@ABV0@@Z" PURGE="4" COMMENT="" />
    <EXPORT ORDINAL="1890" NAME="??6?$QList@VQItemSelectionRange@@@@QAEAAV0@ABVQItemSelectionRange@@@Z" PURGE="4" COMMENT="" />
    <EXPORT ORDINAL="1891" NAME="??6@YA?AVQDebug@@V0@ABVQBrush@@@Z" PURGE="0" COMMENT="" />
    <EXPORT ORDINAL="1892" NAME="??6@YA?AVQDebug@@V0@ABVQColor@@@Z" PURGE="0" COMMENT="" />
    <EXPORT ORDINAL="1893" NAME="??6@YA?AVQDebug@@V0@ABVQFont@@@Z" PURGE="0" COMMENT="" />
    <EXPORT ORDINAL="1894" NAME="??6@YA?AVQDebug@@V0@ABVQItemSelectionRange@@@Z" PURGE="0" COMMENT="" />
    <EXPORT ORDINAL="1895" NAME="??6@YA?AVQDebug@@V0@ABVQKeySequence@@@Z" PURGE="0" COMMENT="" />
    <EXPORT ORDINAL="1896" NAME="??6@YA?AVQDebug@@V0@ABVQMatrix4x4@@@Z" PURGE="0" COMMENT="" />
    <EXPORT ORDINAL="1897" NAME="??6@YA?AVQDebug@@V0@ABVQMatrix@@@Z" PURGE="0" COMMENT="" />
    <EXPORT ORDINAL="1898" NAME="??6@YA?AVQDebug@@V0@ABVQPainterPath@@@Z" PURGE="0" COMMENT="" />
    <EXPORT ORDINAL="1899" NAME="??6@YA?AVQDebug@@V0@ABVQPen@@@Z" PURGE="0" COMMENT="" />
    <EXPORT ORDINAL="1900" NAME="??6@YA?AVQDebug@@V0@ABVQPolygon@@@Z" PURGE="0" COMMENT="" />
    <EXPORT ORDINAL="1901" NAME="??6@YA?AVQDebug@@V0@ABVQPolygonF@@@Z" PURGE="0" COMMENT="" />
    <EXPORT ORDINAL="1902" NAME="??6@YA?AVQDebug@@V0@ABVQQuaternion@@@Z" PURGE="0" COMMENT="" />
    <EXPORT ORDINAL="1903" NAME="??6@YA?AVQDebug@@V0@ABVQRegion@@@Z" PURGE="0" COMMENT="" />
    <EXPORT ORDINAL="1904" NAME="??6@YA?AVQDebug@@V0@ABVQStyleOption@@@Z" PURGE="0" COMMENT="" />
    <EXPORT ORDINAL="1905" NAME="??6@YA?AVQDebug@@V0@ABVQTransform@@@Z" PURGE="0" COMMENT="" />
    <EXPORT ORDINAL="1906" NAME="??6@YA?AVQDebug@@V0@ABVQVector2D@@@Z" PURGE="0" COMMENT="" />
    <EXPORT ORDINAL="1907" NAME="??6@YA?AVQDebug@@V0@ABVQVector3D@@@Z" PURGE="0" COMMENT="" />
    <EXPORT ORDINAL="1908" NAME="??6@YA?AVQDebug@@V0@ABVQVector4D@@@Z" PURGE="0" COMMENT="" />
    <EXPORT ORDINAL="1909" NAME="??6@YA?AVQDebug@@V0@ABW4OptionType@QStyleOption@@@Z" PURGE="0" COMMENT="" />
    <EXPORT ORDINAL="1910" NAME="??6@YA?AVQDebug@@V0@PAVQGraphicsItem@@@Z" PURGE="0" COMMENT="" />
    <EXPORT ORDINAL="1911" NAME="??6@YA?AVQDebug@@V0@PAVQGraphicsObject@@@Z" PURGE="0" COMMENT="" />
    <EXPORT ORDINAL="1912" NAME="??6@YA?AVQDebug@@V0@PBVQEvent@@@Z" PURGE="0" COMMENT="" />
    <EXPORT ORDINAL="1913" NAME="??6@YA?AVQDebug@@V0@V?$QFlags@W4GraphicsItemFlag@QGraphicsItem@@@@@Z" PURGE="0" COMMENT="" />
    <EXPORT ORDINAL="1914" NAME="??6@YA?AVQDebug@@V0@V?$QFlags@W4StateFlag@QStyle@@@@@Z" PURGE="0" COMMENT="" />
    <EXPORT ORDINAL="1915" NAME="??6@YA?AVQDebug@@V0@W4GraphicsItemChange@QGraphicsItem@@@Z" PURGE="0" COMMENT="" />
    <EXPORT ORDINAL="1916" NAME="??6@YA?AVQDebug@@V0@W4GraphicsItemFlag@QGraphicsItem@@@Z" PURGE="0" COMMENT="" />
    <EXPORT ORDINAL="1917" NAME="??6@YAAAVQDataStream@@AAV0@ABVQBrush@@@Z" PURGE="0" COMMENT="" />
    <EXPORT ORDINAL="1918" NAME="??6@YAAAVQDataStream@@AAV0@ABVQColor@@@Z" PURGE="0" COMMENT="" />
    <EXPORT ORDINAL="1919" NAME="??6@YAAAVQDataStream@@AAV0@ABVQColorGroup@@@Z" PURGE="0" COMMENT="" />
    <EXPORT ORDINAL="1920" NAME="??6@YAAAVQDataStream@@AAV0@ABVQCursor@@@Z" PURGE="0" COMMENT="" />
    <EXPORT ORDINAL="1921" NAME="??6@YAAAVQDataStream@@AAV0@ABVQFont@@@Z" PURGE="0" COMMENT="" />
    <EXPORT ORDINAL="1922" NAME="??6@YAAAVQDataStream@@AAV0@ABVQIcon@@@Z" PURGE="0" COMMENT="" />
    <EXPORT ORDINAL="1923" NAME="??6@YAAAVQDataStream@@AAV0@ABVQImage@@@Z" PURGE="0" COMMENT="" />
    <EXPORT ORDINAL="1924" NAME="??6@YAAAVQDataStream@@AAV0@ABVQKeySequence@@@Z" PURGE="0" COMMENT="" />
    <EXPORT ORDINAL="1925" NAME="??6@YAAAVQDataStream@@AAV0@ABVQListWidgetItem@@@Z" PURGE="0" COMMENT="" />
    <EXPORT ORDINAL="1926" NAME="??6@YAAAVQDataStream@@AAV0@ABVQMatrix4x4@@@Z" PURGE="0" COMMENT="" />
    <EXPORT ORDINAL="1927" NAME="??6@YAAAVQDataStream@@AAV0@ABVQMatrix@@@Z" PURGE="0" COMMENT="" />
    <EXPORT ORDINAL="1928" NAME="??6@YAAAVQDataStream@@AAV0@ABVQPaintBuffer@@@Z" PURGE="0" COMMENT="" />
    <EXPORT ORDINAL="1929" NAME="??6@YAAAVQDataStream@@AAV0@ABVQPainterPath@@@Z" PURGE="0" COMMENT="" />
    <EXPORT ORDINAL="1930" NAME="??6@YAAAVQDataStream@@AAV0@ABVQPalette@@@Z" PURGE="0" COMMENT="" />
    <EXPORT ORDINAL="1931" NAME="??6@YAAAVQDataStream@@AAV0@ABVQPen@@@Z" PURGE="0" COMMENT="" />
    <EXPORT ORDINAL="1932" NAME="??6@YAAAVQDataStream@@AAV0@ABVQPicture@@@Z" PURGE="0" COMMENT="" />
    <EXPORT ORDINAL="1933" NAME="??6@YAAAVQDataStream@@AAV0@ABVQPixmap@@@Z" PURGE="0" COMMENT="" />
    <EXPORT ORDINAL="1934" NAME="??6@YAAAVQDataStream@@AAV0@ABVQPolygon@@@Z" PURGE="0" COMMENT="" />
    <EXPORT ORDINAL="1935" NAME="??6@YAAAVQDataStream@@AAV0@ABVQPolygonF@@@Z" PURGE="0" COMMENT="" />
    <EXPORT ORDINAL="1936" NAME="??6@YAAAVQDataStream@@AAV0@ABVQQuaternion@@@Z" PURGE="0" COMMENT="" />
    <EXPORT ORDINAL="1937" NAME="??6@YAAAVQDataStream@@AAV0@ABVQRegion@@@Z" PURGE="0" COMMENT="" />
    <EXPORT ORDINAL="1938" NAME="??6@YAAAVQDataStream@@AAV0@ABVQSizePolicy@@@Z" PURGE="0" COMMENT="" />
    <EXPORT ORDINAL="1939" NAME="??6@YAAAVQDataStream@@AAV0@ABVQStandardItem@@@Z" PURGE="0" COMMENT="" />
    <EXPORT ORDINAL="1940" NAME="??6@YAAAVQDataStream@@AAV0@ABVQTableWidgetItem@@@Z" PURGE="0" COMMENT="" />
    <EXPORT ORDINAL="1941" NAME="??6@YAAAVQDataStream@@AAV0@ABVQTextFormat@@@Z" PURGE="0" COMMENT="" />
    <EXPORT ORDINAL="1942" NAME="??6@YAAAVQDataStream@@AAV0@ABVQTextLength@@@Z" PURGE="0" COMMENT="" />
    <EXPORT ORDINAL="1943" NAME="??6@YAAAVQDataStream@@AAV0@ABVQTransform@@@Z" PURGE="0" COMMENT="" />
    <EXPORT ORDINAL="1944" NAME="??6@YAAAVQDataStream@@AAV0@ABVQTreeWidgetItem@@@Z" PURGE="0" COMMENT="" />
    <EXPORT ORDINAL="1945" NAME="??6@YAAAVQDataStream@@AAV0@ABVQVector2D@@@Z" PURGE="0" COMMENT="" />
    <EXPORT ORDINAL="1946" NAME="??6@YAAAVQDataStream@@AAV0@ABVQVector3D@@@Z" PURGE="0" COMMENT="" />
    <EXPORT ORDINAL="1947" NAME="??6@YAAAVQDataStream@@AAV0@ABVQVector4D@@@Z" PURGE="0" COMMENT="" />
    <EXPORT ORDINAL="1948" NAME="??6@YAAAVQDebug@@AAV0@ABVQVectorPath@@@Z" PURGE="0" COMMENT="" />
    <EXPORT ORDINAL="1949" NAME="??6@YAAAVQTextStream@@AAV0@ABVQSplitter@@@Z" PURGE="0" COMMENT="" />
    <EXPORT ORDINAL="1950" NAME="??7QPixmap@@QBE_NXZ" PURGE="0" COMMENT="" />
    <EXPORT ORDINAL="1951" NAME="??8?$QList@VQItemSelectionRange@@@@QBE_NABV0@@Z" PURGE="4" COMMENT="" />
    <EXPORT ORDINAL="1952" NAME="??8Key@QPixmapCache@@QBE_NABV01@@Z" PURGE="4" COMMENT="" />
    <EXPORT ORDINAL="1953" NAME="??8QBrush@@QBE_NABV0@@Z" PURGE="4" COMMENT="" />
    <EXPORT ORDINAL="1954" NAME="??8QColor@@QBE_NABV0@@Z" PURGE="4" COMMENT="" />
    <EXPORT ORDINAL="1955" NAME="??8QColorGroup@@QBE_NABV0@@Z" PURGE="4" COMMENT="" />
    <EXPORT ORDINAL="1956" NAME="??8QFont@@QBE_NABV0@@Z" PURGE="4" COMMENT="" />
    <EXPORT ORDINAL="1957" NAME="??8QFontMetrics@@QAE_NABV0@@Z" PURGE="4" COMMENT="" />
    <EXPORT ORDINAL="1958" NAME="??8QFontMetrics@@QBE_NABV0@@Z" PURGE="4" COMMENT="" />
    <EXPORT ORDINAL="1959" NAME="??8QFontMetricsF@@QAE_NABV0@@Z" PURGE="4" COMMENT="" />
    <EXPORT ORDINAL="1960" NAME="??8QFontMetricsF@@QBE_NABV0@@Z" PURGE="4" COMMENT="" />
    <EXPORT ORDINAL="1961" NAME="??8QGlyphRun@@QBE_NABV0@@Z" PURGE="4" COMMENT="" />
    <EXPORT ORDINAL="1962" NAME="??8QGradient@@QAE_NABV0@@Z" PURGE="4" COMMENT="" />
    <EXPORT ORDINAL="1963" NAME="??8QGradient@@QBE_NABV0@@Z" PURGE="4" COMMENT="" />
    <EXPORT ORDINAL="1964" NAME="??8QImage@@QBE_NABV0@@Z" PURGE="4" COMMENT="" />
    <EXPORT ORDINAL="1965" NAME="??8QImageTextKeyLang@@QBE_NABV0@@Z" PURGE="4" COMMENT="" />
    <EXPORT ORDINAL="1966" NAME="??8QItemSelectionRange@@QBE_NABV0@@Z" PURGE="4" COMMENT="" />
    <EXPORT ORDINAL="1967" NAME="??8QKeySequence@@QBE_NABV0@@Z" PURGE="4" COMMENT="" />
    <EXPORT ORDINAL="1968" NAME="??8QMatrix4x4@@QBE_NABV0@@Z" PURGE="4" COMMENT="" />
    <EXPORT ORDINAL="1969" NAME="??8QMatrix@@QBE_NABV0@@Z" PURGE="4" COMMENT="" />
    <EXPORT ORDINAL="1970" NAME="??8QPainterPath@@QBE_NABV0@@Z" PURGE="4" COMMENT="" />
    <EXPORT ORDINAL="1971" NAME="??8QPalette@@QBE_NABV0@@Z" PURGE="4" COMMENT="" />
    <EXPORT ORDINAL="1972" NAME="??8QPen@@QBE_NABV0@@Z" PURGE="4" COMMENT="" />
    <EXPORT ORDINAL="1973" NAME="??8QRawFont@@QBE_NABV0@@Z" PURGE="4" COMMENT="" />
    <EXPORT ORDINAL="1974" NAME="??8QRegion@@QBE_NABV0@@Z" PURGE="4" COMMENT="" />
    <EXPORT ORDINAL="1975" NAME="??8QSizePolicy@@QBE_NABV0@@Z" PURGE="4" COMMENT="" />
    <EXPORT ORDINAL="1976" NAME="??8QStaticText@@QBE_NABV0@@Z" PURGE="4" COMMENT="" />
    <EXPORT ORDINAL="1977" NAME="??8QTextBlock@@QBE_NABV0@@Z" PURGE="4" COMMENT="" />
    <EXPORT ORDINAL="1978" NAME="??8QTextCursor@@QBE_NABV0@@Z" PURGE="4" COMMENT="" />
    <EXPORT ORDINAL="1979" NAME="??8QTextFormat@@QBE_NABV0@@Z" PURGE="4" COMMENT="" />
    <EXPORT ORDINAL="1980" NAME="??8QTextFragment@@QBE_NABV0@@Z" PURGE="4" COMMENT="" />
    <EXPORT ORDINAL="1981" NAME="??8QTextLength@@QBE_NABV0@@Z" PURGE="4" COMMENT="" />
    <EXPORT ORDINAL="1982" NAME="??8QTextTableCell@@QBE_NABV0@@Z" PURGE="4" COMMENT="" />
    <EXPORT ORDINAL="1983" NAME="??8QTransform@@QBE_NABV0@@Z" PURGE="4" COMMENT="" />
    <EXPORT ORDINAL="1984" NAME="??8Tab@QTextOption@@QBE_NABU01@@Z" PURGE="4" COMMENT="" />
    <EXPORT ORDINAL="1985" NAME="??8iterator@QTextBlock@@QBE_NABV01@@Z" PURGE="4" COMMENT="" />
    <EXPORT ORDINAL="1986" NAME="??8iterator@QTextFrame@@QBE_NABV01@@Z" PURGE="4" COMMENT="" />
    <EXPORT ORDINAL="1987" NAME="??9?$QList@VQItemSelectionRange@@@@QBE_NABV0@@Z" PURGE="4" COMMENT="" />
    <EXPORT ORDINAL="1988" NAME="??9Key@QPixmapCache@@QBE_NABV01@@Z" PURGE="4" COMMENT="" />
    <EXPORT ORDINAL="1989" NAME="??9QBrush@@QBE_NABV0@@Z" PURGE="4" COMMENT="" />
    <EXPORT ORDINAL="1990" NAME="??9QColor@@QBE_NABV0@@Z" PURGE="4" COMMENT="" />
    <EXPORT ORDINAL="1991" NAME="??9QColorGroup@@QBE_NABV0@@Z" PURGE="4" COMMENT="" />
    <EXPORT ORDINAL="1992" NAME="??9QFont@@QBE_NABV0@@Z" PURGE="4" COMMENT="" />
    <EXPORT ORDINAL="1993" NAME="??9QFontMetrics@@QAE_NABV0@@Z" PURGE="4" COMMENT="" />
    <EXPORT ORDINAL="1994" NAME="??9QFontMetrics@@QBE_NABV0@@Z" PURGE="4" COMMENT="" />
    <EXPORT ORDINAL="1995" NAME="??9QFontMetricsF@@QAE_NABV0@@Z" PURGE="4" COMMENT="" />
    <EXPORT ORDINAL="1996" NAME="??9QFontMetricsF@@QBE_NABV0@@Z" PURGE="4" COMMENT="" />
    <EXPORT ORDINAL="1997" NAME="??9QGlyphRun@@QBE_NABV0@@Z" PURGE="4" COMMENT="" />
    <EXPORT ORDINAL="1998" NAME="??9QGradient@@QBE_NABV0@@Z" PURGE="4" COMMENT="" />
    <EXPORT ORDINAL="1999" NAME="??9QImage@@QBE_NABV0@@Z" PURGE="4" COMMENT="" />
    <EXPORT ORDINAL="2000" NAME="??9QImageTextKeyLang@@QBE_NABV0@@Z" PURGE="4" COMMENT="" />
    <EXPORT ORDINAL="2001" NAME="??9QItemSelectionRange@@QBE_NABV0@@Z" PURGE="4" COMMENT="" />
    <EXPORT ORDINAL="2002" NAME="??9QKeySequence@@QBE_NABV0@@Z" PURGE="4" COMMENT="" />
    <EXPORT ORDINAL="2003" NAME="??9QMatrix4x4@@QBE_NABV0@@Z" PURGE="4" COMMENT="" />
    <EXPORT ORDINAL="2004" NAME="??9QMatrix@@QBE_NABV0@@Z" PURGE="4" COMMENT="" />
    <EXPORT ORDINAL="2005" NAME="??9QPainterPath@@QBE_NABV0@@Z" PURGE="4" COMMENT="" />
    <EXPORT ORDINAL="2006" NAME="??9QPalette@@QBE_NABV0@@Z" PURGE="4" COMMENT="" />
    <EXPORT ORDINAL="2007" NAME="??9QPen@@QBE_NABV0@@Z" PURGE="4" COMMENT="" />
    <EXPORT ORDINAL="2008" NAME="??9QRawFont@@QBE_NABV0@@Z" PURGE="4" COMMENT="" />
    <EXPORT ORDINAL="2009" NAME="??9QRegion@@QBE_NABV0@@Z" PURGE="4" COMMENT="" />
    <EXPORT ORDINAL="2010" NAME="??9QSizePolicy@@QBE_NABV0@@Z" PURGE="4" COMMENT="" />
    <EXPORT ORDINAL="2011" NAME="??9QStaticText@@QBE_NABV0@@Z" PURGE="4" COMMENT="" />
    <EXPORT ORDINAL="2012" NAME="??9QTextBlock@@QBE_NABV0@@Z" PURGE="4" COMMENT="" />
    <EXPORT ORDINAL="2013" NAME="??9QTextCursor@@QBE_NABV0@@Z" PURGE="4" COMMENT="" />
    <EXPORT ORDINAL="2014" NAME="??9QTextFormat@@QBE_NABV0@@Z" PURGE="4" COMMENT="" />
    <EXPORT ORDINAL="2015" NAME="??9QTextFragment@@QBE_NABV0@@Z" PURGE="4" COMMENT="" />
    <EXPORT ORDINAL="2016" NAME="??9QTextLength@@QBE_NABV0@@Z" PURGE="4" COMMENT="" />
    <EXPORT ORDINAL="2017" NAME="??9QTextTableCell@@QBE_NABV0@@Z" PURGE="4" COMMENT="" />
    <EXPORT ORDINAL="2018" NAME="??9QTransform@@QBE_NABV0@@Z" PURGE="4" COMMENT="" />
    <EXPORT ORDINAL="2019" NAME="??9Tab@QTextOption@@QBE_NABU01@@Z" PURGE="4" COMMENT="" />
    <EXPORT ORDINAL="2020" NAME="??9iterator@QTextBlock@@QBE_NABV01@@Z" PURGE="4" COMMENT="" />
    <EXPORT ORDINAL="2021" NAME="??9iterator@QTextFrame@@QBE_NABV01@@Z" PURGE="4" COMMENT="" />
    <EXPORT ORDINAL="2022" NAME="??A?$QList@VQItemSelectionRange@@@@QAEAAVQItemSelectionRange@@H@Z" PURGE="4" COMMENT="" />
    <EXPORT ORDINAL="2023" NAME="??A?$QList@VQItemSelectionRange@@@@QBEABVQItemSelectionRange@@H@Z" PURGE="4" COMMENT="" />
    <EXPORT ORDINAL="2024" NAME="??AQKeySequence@@QBEHI@Z" PURGE="4" COMMENT="" />
    <EXPORT ORDINAL="2025" NAME="??BQBitmap@@QBE?AVQVariant@@XZ" PURGE="4" COMMENT="" />
    <EXPORT ORDINAL="2026" NAME="??BQBrush@@QBE?AVQVariant@@XZ" PURGE="4" COMMENT="" />
    <EXPORT ORDINAL="2027" NAME="??BQBrush@@QBEABVQColor@@XZ" PURGE="0" COMMENT="" />
    <EXPORT ORDINAL="2028" NAME="??BQColor@@QBE?AVQVariant@@XZ" PURGE="4" COMMENT="" />
    <EXPORT ORDINAL="2029" NAME="??BQColorGroup@@QBE?AVQVariant@@XZ" PURGE="4" COMMENT="" />
    <EXPORT ORDINAL="2030" NAME="??BQCursor@@QBE?AVQVariant@@XZ" PURGE="4" COMMENT="" />
    <EXPORT ORDINAL="2031" NAME="??BQFont@@QBE?AVQVariant@@XZ" PURGE="4" COMMENT="" />
    <EXPORT ORDINAL="2032" NAME="??BQIcon@@QBE?AVQVariant@@XZ" PURGE="4" COMMENT="" />
    <EXPORT ORDINAL="2033" NAME="??BQImage@@QBE?AVQVariant@@XZ" PURGE="4" COMMENT="" />
    <EXPORT ORDINAL="2034" NAME="??BQKeySequence@@QBE?AVQString@@XZ" PURGE="4" COMMENT="" />
    <EXPORT ORDINAL="2035" NAME="??BQKeySequence@@QBE?AVQVariant@@XZ" PURGE="4" COMMENT="" />
    <EXPORT ORDINAL="2036" NAME="??BQKeySequence@@QBEHXZ" PURGE="0" COMMENT="" />
    <EXPORT ORDINAL="2037" NAME="??BQMatrix4x4@@QBE?AVQVariant@@XZ" PURGE="4" COMMENT="" />
    <EXPORT ORDINAL="2038" NAME="??BQMatrix@@QBE?AVQVariant@@XZ" PURGE="4" COMMENT="" />
    <EXPORT ORDINAL="2039" NAME="??BQPalette@@QBE?AVQVariant@@XZ" PURGE="4" COMMENT="" />
    <EXPORT ORDINAL="2040" NAME="??BQPen@@QBE?AVQVariant@@XZ" PURGE="4" COMMENT="" />
    <EXPORT ORDINAL="2041" NAME="??BQPixmap@@QBE?AVQImage@@XZ" PURGE="4" COMMENT="" />
    <EXPORT ORDINAL="2042" NAME="??BQPixmap@@QBE?AVQVariant@@XZ" PURGE="4" COMMENT="" />
    <EXPORT ORDINAL="2043" NAME="??BQPolygon@@QBE?AVQVariant@@XZ" PURGE="4" COMMENT="" />
    <EXPORT ORDINAL="2044" NAME="??BQQuaternion@@QBE?AVQVariant@@XZ" PURGE="4" COMMENT="" />
    <EXPORT ORDINAL="2045" NAME="??BQRegion@@QBE?AVQVariant@@XZ" PURGE="4" COMMENT="" />
    <EXPORT ORDINAL="2046" NAME="??BQSizePolicy@@QBE?AVQVariant@@XZ" PURGE="4" COMMENT="" />
    <EXPORT ORDINAL="2047" NAME="??BQTextFormat@@QBE?AVQVariant@@XZ" PURGE="4" COMMENT="" />
    <EXPORT ORDINAL="2048" NAME="??BQTextLength@@QBE?AVQVariant@@XZ" PURGE="4" COMMENT="" />
    <EXPORT ORDINAL="2049" NAME="??BQTransform@@QBE?AVQVariant@@XZ" PURGE="4" COMMENT="" />
    <EXPORT ORDINAL="2050" NAME="??BQVector2D@@QBE?AVQVariant@@XZ" PURGE="4" COMMENT="" />
    <EXPORT ORDINAL="2051" NAME="??BQVector3D@@QBE?AVQVariant@@XZ" PURGE="4" COMMENT="" />
    <EXPORT ORDINAL="2052" NAME="??BQVector4D@@QBE?AVQVariant@@XZ" PURGE="4" COMMENT="" />
    <EXPORT ORDINAL="2053" NAME="??D@YA?AVQLine@@ABV0@ABVQMatrix@@@Z" PURGE="0" COMMENT="" />
    <EXPORT ORDINAL="2054" NAME="??D@YA?AVQLine@@ABV0@ABVQTransform@@@Z" PURGE="0" COMMENT="" />
    <EXPORT ORDINAL="2055" NAME="??D@YA?AVQLineF@@ABV0@ABVQMatrix@@@Z" PURGE="0" COMMENT="" />
    <EXPORT ORDINAL="2056" NAME="??D@YA?AVQLineF@@ABV0@ABVQTransform@@@Z" PURGE="0" COMMENT="" />
    <EXPORT ORDINAL="2057" NAME="??D@YA?AVQPainterPath@@ABV0@ABVQMatrix@@@Z" PURGE="0" COMMENT="" />
    <EXPORT ORDINAL="2058" NAME="??D@YA?AVQPainterPath@@ABV0@ABVQTransform@@@Z" PURGE="0" COMMENT="" />
    <EXPORT ORDINAL="2059" NAME="??D@YA?AVQPoint@@ABV0@ABVQMatrix@@@Z" PURGE="0" COMMENT="" />
    <EXPORT ORDINAL="2060" NAME="??D@YA?AVQPoint@@ABV0@ABVQTransform@@@Z" PURGE="0" COMMENT="" />
    <EXPORT ORDINAL="2061" NAME="??D@YA?AVQPointF@@ABV0@ABVQMatrix@@@Z" PURGE="0" COMMENT="" />
    <EXPORT ORDINAL="2062" NAME="??D@YA?AVQPointF@@ABV0@ABVQTransform@@@Z" PURGE="0" COMMENT="" />
    <EXPORT ORDINAL="2063" NAME="??D@YA?AVQPolygon@@ABV0@ABVQMatrix@@@Z" PURGE="0" COMMENT="" />
    <EXPORT ORDINAL="2064" NAME="??D@YA?AVQPolygon@@ABV0@ABVQTransform@@@Z" PURGE="0" COMMENT="" />
    <EXPORT ORDINAL="2065" NAME="??D@YA?AVQPolygonF@@ABV0@ABVQMatrix@@@Z" PURGE="0" COMMENT="" />
    <EXPORT ORDINAL="2066" NAME="??D@YA?AVQPolygonF@@ABV0@ABVQTransform@@@Z" PURGE="0" COMMENT="" />
    <EXPORT ORDINAL="2067" NAME="??D@YA?AVQRegion@@ABV0@ABVQMatrix@@@Z" PURGE="0" COMMENT="" />
    <EXPORT ORDINAL="2068" NAME="??D@YA?AVQRegion@@ABV0@ABVQTransform@@@Z" PURGE="0" COMMENT="" />
    <EXPORT ORDINAL="2069" NAME="??D@YA?AVQTransform@@ABV0@N@Z" PURGE="0" COMMENT="" />
    <EXPORT ORDINAL="2070" NAME="??DQMatrix@@QBE?AV0@ABV0@@Z" PURGE="8" COMMENT="" />
    <EXPORT ORDINAL="2071" NAME="??DQTransform@@QBE?AV0@ABV0@@Z" PURGE="8" COMMENT="" />
    <EXPORT ORDINAL="2072" NAME="??DQTreeWidgetItemIterator@@QBEPAVQTreeWidgetItem@@XZ" PURGE="0" COMMENT="" />
    <EXPORT ORDINAL="2073" NAME="??EQLayoutIterator@@QAEPAVQLayoutItem@@XZ" PURGE="0" COMMENT="" />
    <EXPORT ORDINAL="2074" NAME="??EQTreeWidgetItemIterator@@QAE?BV0@H@Z" PURGE="8" COMMENT="" />
    <EXPORT ORDINAL="2075" NAME="??EQTreeWidgetItemIterator@@QAEAAV0@XZ" PURGE="0" COMMENT="" />
    <EXPORT ORDINAL="2076" NAME="??Eiterator@QTextBlock@@QAE?AV01@H@Z" PURGE="8" COMMENT="" />
    <EXPORT ORDINAL="2077" NAME="??Eiterator@QTextBlock@@QAEAAV01@XZ" PURGE="0" COMMENT="" />
    <EXPORT ORDINAL="2078" NAME="??Eiterator@QTextFrame@@QAE?AV01@H@Z" PURGE="8" COMMENT="" />
    <EXPORT ORDINAL="2079" NAME="??Eiterator@QTextFrame@@QAEAAV01@XZ" PURGE="0" COMMENT="" />
    <EXPORT ORDINAL="2080" NAME="??FQTreeWidgetItemIterator@@QAE?BV0@H@Z" PURGE="8" COMMENT="" />
    <EXPORT ORDINAL="2081" NAME="??FQTreeWidgetItemIterator@@QAEAAV0@XZ" PURGE="0" COMMENT="" />
    <EXPORT ORDINAL="2082" NAME="??Fiterator@QTextBlock@@QAE?AV01@H@Z" PURGE="8" COMMENT="" />
    <EXPORT ORDINAL="2083" NAME="??Fiterator@QTextBlock@@QAEAAV01@XZ" PURGE="0" COMMENT="" />
    <EXPORT ORDINAL="2084" NAME="??Fiterator@QTextFrame@@QAE?AV01@H@Z" PURGE="8" COMMENT="" />
    <EXPORT ORDINAL="2085" NAME="??Fiterator@QTextFrame@@QAEAAV01@XZ" PURGE="0" COMMENT="" />
    <EXPORT ORDINAL="2086" NAME="??G@YA?AVQTransform@@ABV0@N@Z" PURGE="0" COMMENT="" />
    <EXPORT ORDINAL="2087" NAME="??GQPainterPath@@QBE?AV0@ABV0@@Z" PURGE="8" COMMENT="" />
    <EXPORT ORDINAL="2088" NAME="??GQRegion@@QBE?BV0@ABV0@@Z" PURGE="8" COMMENT="" />
    <EXPORT ORDINAL="2089" NAME="??H?$QList@VQItemSelectionRange@@@@QBE?AV0@ABV0@@Z" PURGE="8" COMMENT="" />
    <EXPORT ORDINAL="2090" NAME="??H@YA?AVQTransform@@ABV0@N@Z" PURGE="0" COMMENT="" />
    <EXPORT ORDINAL="2091" NAME="??HQPainterPath@@QBE?AV0@ABV0@@Z" PURGE="8" COMMENT="" />
    <EXPORT ORDINAL="2092" NAME="??HQRegion@@QBE?BV0@ABV0@@Z" PURGE="8" COMMENT="" />
    <EXPORT ORDINAL="2093" NAME="??HQRegion@@QBE?BV0@ABVQRect@@@Z" PURGE="8" COMMENT="" />
    <EXPORT ORDINAL="2094" NAME="??IQPainterPath@@QBE?AV0@ABV0@@Z" PURGE="8" COMMENT="" />
    <EXPORT ORDINAL="2095" NAME="??IQRegion@@QBE?BV0@ABV0@@Z" PURGE="8" COMMENT="" />
    <EXPORT ORDINAL="2096" NAME="??IQRegion@@QBE?BV0@ABVQRect@@@Z" PURGE="8" COMMENT="" />
    <EXPORT ORDINAL="2097" NAME="??K@YA?AVQMatrix4x4@@ABV0@N@Z" PURGE="0" COMMENT="" />
    <EXPORT ORDINAL="2098" NAME="??K@YA?AVQTransform@@ABV0@N@Z" PURGE="0" COMMENT="" />
    <EXPORT ORDINAL="2099" NAME="??MQFont@@QBE_NABV0@@Z" PURGE="4" COMMENT="" />
    <EXPORT ORDINAL="2100" NAME="??MQImageTextKeyLang@@QBE_NABV0@@Z" PURGE="4" COMMENT="" />
    <EXPORT ORDINAL="2101" NAME="??MQItemSelectionRange@@QBE_NABV0@@Z" PURGE="4" COMMENT="" />
    <EXPORT ORDINAL="2102" NAME="??MQKeySequence@@QBE_NABV0@@Z" PURGE="4" COMMENT="" />
    <EXPORT ORDINAL="2103" NAME="??MQListWidgetItem@@UBE_NABV0@@Z" PURGE="4" COMMENT="" />
    <EXPORT ORDINAL="2104" NAME="??MQStandardItem@@UBE_NABV0@@Z" PURGE="4" COMMENT="" />
    <EXPORT ORDINAL="2105" NAME="??MQTableWidgetItem@@UBE_NABV0@@Z" PURGE="4" COMMENT="" />
    <EXPORT ORDINAL="2106" NAME="??MQTextBlock@@QBE_NABV0@@Z" PURGE="4" COMMENT="" />
    <EXPORT ORDINAL="2107" NAME="??MQTextCursor@@QBE_NABV0@@Z" PURGE="4" COMMENT="" />
    <EXPORT ORDINAL="2108" NAME="??MQTextFragment@@QBE_NABV0@@Z" PURGE="4" COMMENT="" />
    <EXPORT ORDINAL="2109" NAME="??MQTreeWidgetItem@@UBE_NABV0@@Z" PURGE="4" COMMENT="" />
    <EXPORT ORDINAL="2110" NAME="??NQKeySequence@@QBE_NABV0@@Z" PURGE="4" COMMENT="" />
    <EXPORT ORDINAL="2111" NAME="??NQTextCursor@@QBE_NABV0@@Z" PURGE="4" COMMENT="" />
    <EXPORT ORDINAL="2112" NAME="??OQKeySequence@@QBE_NABV0@@Z" PURGE="4" COMMENT="" />
    <EXPORT ORDINAL="2113" NAME="??OQTextCursor@@QBE_NABV0@@Z" PURGE="4" COMMENT="" />
    <EXPORT ORDINAL="2114" NAME="??PQKeySequence@@QBE_NABV0@@Z" PURGE="4" COMMENT="" />
    <EXPORT ORDINAL="2115" NAME="??PQTextCursor@@QBE_NABV0@@Z" PURGE="4" COMMENT="" />
    <EXPORT ORDINAL="2116" NAME="??RQMatrix4x4@@QAEAANHH@Z" PURGE="8" COMMENT="" />
    <EXPORT ORDINAL="2117" NAME="??RQMatrix4x4@@QBEABNHH@Z" PURGE="8" COMMENT="" />
    <EXPORT ORDINAL="2118" NAME="??TQRegion@@QBE?BV0@ABV0@@Z" PURGE="8" COMMENT="" />
    <EXPORT ORDINAL="2119" NAME="??UQPainterPath@@QBE?AV0@ABV0@@Z" PURGE="8" COMMENT="" />
    <EXPORT ORDINAL="2120" NAME="??UQRegion@@QBE?BV0@ABV0@@Z" PURGE="8" COMMENT="" />
    <EXPORT ORDINAL="2121" NAME="??XQMatrix4x4@@QAEAAV0@ABV0@@Z" PURGE="4" COMMENT="" />
    <EXPORT ORDINAL="2122" NAME="??XQMatrix4x4@@QAEAAV0@N@Z" PURGE="8" COMMENT="" />
    <EXPORT ORDINAL="2123" NAME="??XQMatrix@@QAEAAV0@ABV0@@Z" PURGE="4" COMMENT="" />
    <EXPORT ORDINAL="2124" NAME="??XQQuaternion@@QAEAAV0@ABV0@@Z" PURGE="4" COMMENT="" />
    <EXPORT ORDINAL="2125" NAME="??XQQuaternion@@QAEAAV0@N@Z" PURGE="8" COMMENT="" />
    <EXPORT ORDINAL="2126" NAME="??XQTransform@@QAEAAV0@ABV0@@Z" PURGE="4" COMMENT="" />
    <EXPORT ORDINAL="2127" NAME="??XQTransform@@QAEAAV0@N@Z" PURGE="8" COMMENT="" />
    <EXPORT ORDINAL="2128" NAME="??XQVector2D@@QAEAAV0@ABV0@@Z" PURGE="4" COMMENT="" />
    <EXPORT ORDINAL="2129" NAME="??XQVector2D@@QAEAAV0@N@Z" PURGE="8" COMMENT="" />
    <EXPORT ORDINAL="2130" NAME="??XQVector3D@@QAEAAV0@ABV0@@Z" PURGE="4" COMMENT="" />
    <EXPORT ORDINAL="2131" NAME="??XQVector3D@@QAEAAV0@N@Z" PURGE="8" COMMENT="" />
    <EXPORT ORDINAL="2132" NAME="??XQVector4D@@QAEAAV0@ABV0@@Z" PURGE="4" COMMENT="" />
    <EXPORT ORDINAL="2133" NAME="??XQVector4D@@QAEAAV0@N@Z" PURGE="8" COMMENT="" />
    <EXPORT ORDINAL="2134" NAME="??Y?$QList@VQItemSelectionRange@@@@QAEAAV0@ABV0@@Z" PURGE="4" COMMENT="" />
    <EXPORT ORDINAL="2135" NAME="??Y?$QList@VQItemSelectionRange@@@@QAEAAV0@ABVQItemSelectionRange@@@Z" PURGE="4" COMMENT="" />
    <EXPORT ORDINAL="2136" NAME="??YQMatrix4x4@@QAEAAV0@ABV0@@Z" PURGE="4" COMMENT="" />
    <EXPORT ORDINAL="2137" NAME="??YQPainterPath@@QAEAAV0@ABV0@@Z" PURGE="4" COMMENT="" />
    <EXPORT ORDINAL="2138" NAME="??YQQuaternion@@QAEAAV0@ABV0@@Z" PURGE="4" COMMENT="" />
    <EXPORT ORDINAL="2139" NAME="??YQRegion@@QAEAAV0@ABV0@@Z" PURGE="4" COMMENT="" />
    <EXPORT ORDINAL="2140" NAME="??YQRegion@@QAEAAV0@ABVQRect@@@Z" PURGE="4" COMMENT="" />
    <EXPORT ORDINAL="2141" NAME="??YQTransform@@QAEAAV0@N@Z" PURGE="8" COMMENT="" />
    <EXPORT ORDINAL="2142" NAME="??YQTreeWidgetItemIterator@@QAEAAV0@H@Z" PURGE="4" COMMENT="" />
    <EXPORT ORDINAL="2143" NAME="??YQVector2D@@QAEAAV0@ABV0@@Z" PURGE="4" COMMENT="" />
    <EXPORT ORDINAL="2144" NAME="??YQVector3D@@QAEAAV0@ABV0@@Z" PURGE="4" COMMENT="" />
    <EXPORT ORDINAL="2145" NAME="??YQVector4D@@QAEAAV0@ABV0@@Z" PURGE="4" COMMENT="" />
    <EXPORT ORDINAL="2146" NAME="??ZQMatrix4x4@@QAEAAV0@ABV0@@Z" PURGE="4" COMMENT="" />
    <EXPORT ORDINAL="2147" NAME="??ZQPainterPath@@QAEAAV0@ABV0@@Z" PURGE="4" COMMENT="" />
    <EXPORT ORDINAL="2148" NAME="??ZQQuaternion@@QAEAAV0@ABV0@@Z" PURGE="4" COMMENT="" />
    <EXPORT ORDINAL="2149" NAME="??ZQRegion@@QAEAAV0@ABV0@@Z" PURGE="4" COMMENT="" />
    <EXPORT ORDINAL="2150" NAME="??ZQTransform@@QAEAAV0@N@Z" PURGE="8" COMMENT="" />
    <EXPORT ORDINAL="2151" NAME="??ZQTreeWidgetItemIterator@@QAEAAV0@H@Z" PURGE="4" COMMENT="" />
    <EXPORT ORDINAL="2152" NAME="??ZQVector2D@@QAEAAV0@ABV0@@Z" PURGE="4" COMMENT="" />
    <EXPORT ORDINAL="2153" NAME="??ZQVector3D@@QAEAAV0@ABV0@@Z" PURGE="4" COMMENT="" />
    <EXPORT ORDINAL="2154" NAME="??ZQVector4D@@QAEAAV0@ABV0@@Z" PURGE="4" COMMENT="" />
    <EXPORT ORDINAL="2155" NAME="??_0QMatrix4x4@@QAEAAV0@N@Z" PURGE="8" COMMENT="" />
    <EXPORT ORDINAL="2156" NAME="??_0QQuaternion@@QAEAAV0@N@Z" PURGE="8" COMMENT="" />
    <EXPORT ORDINAL="2157" NAME="??_0QTransform@@QAEAAV0@N@Z" PURGE="8" COMMENT="" />
    <EXPORT ORDINAL="2158" NAME="??_0QVector2D@@QAEAAV0@N@Z" PURGE="8" COMMENT="" />
    <EXPORT ORDINAL="2159" NAME="??_0QVector3D@@QAEAAV0@N@Z" PURGE="8" COMMENT="" />
    <EXPORT ORDINAL="2160" NAME="??_0QVector4D@@QAEAAV0@N@Z" PURGE="8" COMMENT="" />
    <EXPORT ORDINAL="2161" NAME="??_4QPainterPath@@QAEAAV0@ABV0@@Z" PURGE="4" COMMENT="" />
    <EXPORT ORDINAL="2162" NAME="??_4QRegion@@QAEAAV0@ABV0@@Z" PURGE="4" COMMENT="" />
    <EXPORT ORDINAL="2163" NAME="??_4QRegion@@QAEAAV0@ABVQRect@@@Z" PURGE="4" COMMENT="" />
    <EXPORT ORDINAL="2164" NAME="??_5QPainterPath@@QAEAAV0@ABV0@@Z" PURGE="4" COMMENT="" />
    <EXPORT ORDINAL="2165" NAME="??_5QRegion@@QAEAAV0@ABV0@@Z" PURGE="4" COMMENT="" />
    <EXPORT ORDINAL="2166" NAME="??_6QRegion@@QAEAAV0@ABV0@@Z" PURGE="4" COMMENT="" />
    <EXPORT ORDINAL="2167" NAME="??_7QAbstractButton@@6BQObject@@@" PURGE="-1" COMMENT="" />
    <EXPORT ORDINAL="2168" NAME="??_7QAbstractButton@@6BQPaintDevice@@@" PURGE="-1" COMMENT="" />
    <EXPORT ORDINAL="2169" NAME="??_7QAbstractGraphicsShapeItem@@6B@" PURGE="-1" COMMENT="" />
    <EXPORT ORDINAL="2170" NAME="??_7QAbstractItemDelegate@@6B@" PURGE="-1" COMMENT="" />
    <EXPORT ORDINAL="2171" NAME="??_7QAbstractItemView@@6BQObject@@@" PURGE="-1" COMMENT="" />
    <EXPORT ORDINAL="2172" NAME="??_7QAbstractItemView@@6BQPaintDevice@@@" PURGE="-1" COMMENT="" />
    <EXPORT ORDINAL="2173" NAME="??_7QAbstractPageSetupDialog@@6BQObject@@@" PURGE="-1" COMMENT="" />
    <EXPORT ORDINAL="2174" NAME="??_7QAbstractPageSetupDialog@@6BQPaintDevice@@@" PURGE="-1" COMMENT="" />
    <EXPORT ORDINAL="2175" NAME="??_7QAbstractPrintDialog@@6BQObject@@@" PURGE="-1" COMMENT="" />
    <EXPORT ORDINAL="2176" NAME="??_7QAbstractPrintDialog@@6BQPaintDevice@@@" PURGE="-1" COMMENT="" />
    <EXPORT ORDINAL="2177" NAME="??_7QAbstractProxyModel@@6B@" PURGE="-1" COMMENT="" />
    <EXPORT ORDINAL="2178" NAME="??_7QAbstractScrollArea@@6BQObject@@@" PURGE="-1" COMMENT="" />
    <EXPORT ORDINAL="2179" NAME="??_7QAbstractScrollArea@@6BQPaintDevice@@@" PURGE="-1" COMMENT="" />
    <EXPORT ORDINAL="2180" NAME="??_7QAbstractScrollAreaPrivate@@6B@" PURGE="-1" COMMENT="" />
    <EXPORT ORDINAL="2181" NAME="??_7QAbstractSlider@@6BQObject@@@" PURGE="-1" COMMENT="" />
    <EXPORT ORDINAL="2182" NAME="??_7QAbstractSlider@@6BQPaintDevice@@@" PURGE="-1" COMMENT="" />
    <EXPORT ORDINAL="2183" NAME="??_7QAbstractSpinBox@@6BQObject@@@" PURGE="-1" COMMENT="" />
    <EXPORT ORDINAL="2184" NAME="??_7QAbstractSpinBox@@6BQPaintDevice@@@" PURGE="-1" COMMENT="" />
    <EXPORT ORDINAL="2185" NAME="??_7QAbstractTextDocumentLayout@@6B@" PURGE="-1" COMMENT="" />
    <EXPORT ORDINAL="2186" NAME="??_7QAbstractUndoItem@@6B@" PURGE="-1" COMMENT="" />
    <EXPORT ORDINAL="2187" NAME="??_7QAccessible2Interface@@6B@" PURGE="-1" COMMENT="" />
    <EXPORT ORDINAL="2188" NAME="??_7QAccessibleActionInterface@@6B@" PURGE="-1" COMMENT="" />
    <EXPORT ORDINAL="2189" NAME="??_7QAccessibleApplication@@6B@" PURGE="-1" COMMENT="" />
    <EXPORT ORDINAL="2190" NAME="??_7QAccessibleEditableTextInterface@@6B@" PURGE="-1" COMMENT="" />
    <EXPORT ORDINAL="2191" NAME="??_7QAccessibleEvent@@6B@" PURGE="-1" COMMENT="" />
    <EXPORT ORDINAL="2192" NAME="??_7QAccessibleFactoryInterface@@6B@" PURGE="-1" COMMENT="" />
    <EXPORT ORDINAL="2193" NAME="??_7QAccessibleImageInterface@@6B@" PURGE="-1" COMMENT="" />
    <EXPORT ORDINAL="2194" NAME="??_7QAccessibleInterface@@6B@" PURGE="-1" COMMENT="" />
    <EXPORT ORDINAL="2195" NAME="??_7QAccessibleInterfaceEx@@6B@" PURGE="-1" COMMENT="" />
    <EXPORT ORDINAL="2196" NAME="??_7QAccessibleObject@@6B@" PURGE="-1" COMMENT="" />
    <EXPORT ORDINAL="2197" NAME="??_7QAccessibleObjectEx@@6B@" PURGE="-1" COMMENT="" />
    <EXPORT ORDINAL="2198" NAME="??_7QAccessiblePlugin@@6BQAccessibleFactoryInterface@@@" PURGE="-1" COMMENT="" />
    <EXPORT ORDINAL="2199" NAME="??_7QAccessiblePlugin@@6BQObject@@@" PURGE="-1" COMMENT="" />
    <EXPORT ORDINAL="2200" NAME="??_7QAccessibleSimpleEditableTextInterface@@6B@" PURGE="-1" COMMENT="" />
    <EXPORT ORDINAL="2201" NAME="??_7QAccessibleTable2CellInterface@@6B@" PURGE="-1" COMMENT="" />
    <EXPORT ORDINAL="2202" NAME="??_7QAccessibleTable2Interface@@6B@" PURGE="-1" COMMENT="" />
    <EXPORT ORDINAL="2203" NAME="??_7QAccessibleTableInterface@@6B@" PURGE="-1" COMMENT="" />
    <EXPORT ORDINAL="2204" NAME="??_7QAccessibleTextInterface@@6B@" PURGE="-1" COMMENT="" />
    <EXPORT ORDINAL="2205" NAME="??_7QAccessibleValueInterface@@6B@" PURGE="-1" COMMENT="" />
    <EXPORT ORDINAL="2206" NAME="??_7QAccessibleWidget@@6B@" PURGE="-1" COMMENT="" />
    <EXPORT ORDINAL="2207" NAME="??_7QAccessibleWidgetEx@@6B@" PURGE="-1" COMMENT="" />
    <EXPORT ORDINAL="2208" NAME="??_7QAction@@6B@" PURGE="-1" COMMENT="" />
    <EXPORT ORDINAL="2209" NAME="??_7QActionEvent@@6B@" PURGE="-1" COMMENT="" />
    <EXPORT ORDINAL="2210" NAME="??_7QActionGroup@@6B@" PURGE="-1" COMMENT="" />
    <EXPORT ORDINAL="2211" NAME="??_7QApplication@@6B@" PURGE="-1" COMMENT="" />
    <EXPORT ORDINAL="2212" NAME="??_7QApplicationPrivate@@6B@" PURGE="-1" COMMENT="" />
    <EXPORT ORDINAL="2213" NAME="??_7QBitmap@@6B@" PURGE="-1" COMMENT="" />
    <EXPORT ORDINAL="2214" NAME="??_7QBlittable@@6B@" PURGE="-1" COMMENT="" />
    <EXPORT ORDINAL="2215" NAME="??_7QBlittablePixmapData@@6B@" PURGE="-1" COMMENT="" />
    <EXPORT ORDINAL="2216" NAME="??_7QBlitterPaintEngine@@6B@" PURGE="-1" COMMENT="" />
    <EXPORT ORDINAL="2217" NAME="??_7QBoxLayout@@6BQLayoutItem@@@" PURGE="-1" COMMENT="" />
    <EXPORT ORDINAL="2218" NAME="??_7QBoxLayout@@6BQObject@@@" PURGE="-1" COMMENT="" />
    <EXPORT ORDINAL="2219" NAME="??_7QButtonGroup@@6B@" PURGE="-1" COMMENT="" />
    <EXPORT ORDINAL="2220" NAME="??_7QCDEStyle@@6B@" PURGE="-1" COMMENT="" />
    <EXPORT ORDINAL="2221" NAME="??_7QCalendarWidget@@6BQObject@@@" PURGE="-1" COMMENT="" />
    <EXPORT ORDINAL="2222" NAME="??_7QCalendarWidget@@6BQPaintDevice@@@" PURGE="-1" COMMENT="" />
    <EXPORT ORDINAL="2223" NAME="??_7QCheckBox@@6BQObject@@@" PURGE="-1" COMMENT="" />
    <EXPORT ORDINAL="2224" NAME="??_7QCheckBox@@6BQPaintDevice@@@" PURGE="-1" COMMENT="" />
    <EXPORT ORDINAL="2225" NAME="??_7QCleanlooksStyle@@6B@" PURGE="-1" COMMENT="" />
    <EXPORT ORDINAL="2226" NAME="??_7QClipboard@@6B@" PURGE="-1" COMMENT="" />
    <EXPORT ORDINAL="2227" NAME="??_7QClipboardEvent@@6B@" PURGE="-1" COMMENT="" />
    <EXPORT ORDINAL="2228" NAME="??_7QCloseEvent@@6B@" PURGE="-1" COMMENT="" />
    <EXPORT ORDINAL="2229" NAME="??_7QColorDialog@@6BQObject@@@" PURGE="-1" COMMENT="" />
    <EXPORT ORDINAL="2230" NAME="??_7QColorDialog@@6BQPaintDevice@@@" PURGE="-1" COMMENT="" />
    <EXPORT ORDINAL="2231" NAME="??_7QColumnView@@6BQObject@@@" PURGE="-1" COMMENT="" />
    <EXPORT ORDINAL="2232" NAME="??_7QColumnView@@6BQPaintDevice@@@" PURGE="-1" COMMENT="" />
    <EXPORT ORDINAL="2233" NAME="??_7QComboBox@@6BQObject@@@" PURGE="-1" COMMENT="" />
    <EXPORT ORDINAL="2234" NAME="??_7QComboBox@@6BQPaintDevice@@@" PURGE="-1" COMMENT="" />
    <EXPORT ORDINAL="2235" NAME="??_7QCommandLinkButton@@6BQObject@@@" PURGE="-1" COMMENT="" />
    <EXPORT ORDINAL="2236" NAME="??_7QCommandLinkButton@@6BQPaintDevice@@@" PURGE="-1" COMMENT="" />
    <EXPORT ORDINAL="2237" NAME="??_7QCommonStyle@@6B@" PURGE="-1" COMMENT="" />
    <EXPORT ORDINAL="2238" NAME="??_7QCompleter@@6B@" PURGE="-1" COMMENT="" />
    <EXPORT ORDINAL="2239" NAME="??_7QContextMenuEvent@@6B@" PURGE="-1" COMMENT="" />
    <EXPORT ORDINAL="2240" NAME="??_7QDashStroker@@6B@" PURGE="-1" COMMENT="" />
    <EXPORT ORDINAL="2241" NAME="??_7QDataWidgetMapper@@6B@" PURGE="-1" COMMENT="" />
    <EXPORT ORDINAL="2242" NAME="??_7QDateEdit@@6BQObject@@@" PURGE="-1" COMMENT="" />
    <EXPORT ORDINAL="2243" NAME="??_7QDateEdit@@6BQPaintDevice@@@" PURGE="-1" COMMENT="" />
    <EXPORT ORDINAL="2244" NAME="??_7QDateTimeEdit@@6BQObject@@@" PURGE="-1" COMMENT="" />
    <EXPORT ORDINAL="2245" NAME="??_7QDateTimeEdit@@6BQPaintDevice@@@" PURGE="-1" COMMENT="" />
    <EXPORT ORDINAL="2246" NAME="??_7QDesktopWidget@@6BQObject@@@" PURGE="-1" COMMENT="" />
    <EXPORT ORDINAL="2247" NAME="??_7QDesktopWidget@@6BQPaintDevice@@@" PURGE="-1" COMMENT="" />
    <EXPORT ORDINAL="2248" NAME="??_7QDial@@6BQObject@@@" PURGE="-1" COMMENT="" />
    <EXPORT ORDINAL="2249" NAME="??_7QDial@@6BQPaintDevice@@@" PURGE="-1" COMMENT="" />
    <EXPORT ORDINAL="2250" NAME="??_7QDialog@@6BQObject@@@" PURGE="-1" COMMENT="" />
    <EXPORT ORDINAL="2251" NAME="??_7QDialog@@6BQPaintDevice@@@" PURGE="-1" COMMENT="" />
    <EXPORT ORDINAL="2252" NAME="??_7QDialogButtonBox@@6BQObject@@@" PURGE="-1" COMMENT="" />
    <EXPORT ORDINAL="2253" NAME="??_7QDialogButtonBox@@6BQPaintDevice@@@" PURGE="-1" COMMENT="" />
    <EXPORT ORDINAL="2254" NAME="??_7QDirModel@@6B@" PURGE="-1" COMMENT="" />
    <EXPORT ORDINAL="2255" NAME="??_7QDockWidget@@6BQObject@@@" PURGE="-1" COMMENT="" />
    <EXPORT ORDINAL="2256" NAME="??_7QDockWidget@@6BQPaintDevice@@@" PURGE="-1" COMMENT="" />
    <EXPORT ORDINAL="2257" NAME="??_7QDockWidgetLayout@@6BQLayoutItem@@@" PURGE="-1" COMMENT="" />
    <EXPORT ORDINAL="2258" NAME="??_7QDockWidgetLayout@@6BQObject@@@" PURGE="-1" COMMENT="" />
    <EXPORT ORDINAL="2259" NAME="??_7QDoubleSpinBox@@6BQObject@@@" PURGE="-1" COMMENT="" />
    <EXPORT ORDINAL="2260" NAME="??_7QDoubleSpinBox@@6BQPaintDevice@@@" PURGE="-1" COMMENT="" />
    <EXPORT ORDINAL="2261" NAME="??_7QDoubleValidator@@6B@" PURGE="-1" COMMENT="" />
    <EXPORT ORDINAL="2262" NAME="??_7QDrag@@6B@" PURGE="-1" COMMENT="" />
    <EXPORT ORDINAL="2263" NAME="??_7QDragEnterEvent@@6BQEvent@@@" PURGE="-1" COMMENT="" />
    <EXPORT ORDINAL="2264" NAME="??_7QDragEnterEvent@@6BQMimeSource@@@" PURGE="-1" COMMENT="" />
    <EXPORT ORDINAL="2265" NAME="??_7QDragLeaveEvent@@6B@" PURGE="-1" COMMENT="" />
    <EXPORT ORDINAL="2266" NAME="??_7QDragMoveEvent@@6BQEvent@@@" PURGE="-1" COMMENT="" />
    <EXPORT ORDINAL="2267" NAME="??_7QDragMoveEvent@@6BQMimeSource@@@" PURGE="-1" COMMENT="" />
    <EXPORT ORDINAL="2268" NAME="??_7QDragResponseEvent@@6B@" PURGE="-1" COMMENT="" />
    <EXPORT ORDINAL="2269" NAME="??_7QDropEvent@@6BQEvent@@@" PURGE="-1" COMMENT="" />
    <EXPORT ORDINAL="2270" NAME="??_7QDropEvent@@6BQMimeSource@@@" PURGE="-1" COMMENT="" />
    <EXPORT ORDINAL="2271" NAME="??_7QErrorMessage@@6BQObject@@@" PURGE="-1" COMMENT="" />
    <EXPORT ORDINAL="2272" NAME="??_7QErrorMessage@@6BQPaintDevice@@@" PURGE="-1" COMMENT="" />
    <EXPORT ORDINAL="2273" NAME="??_7QFileDialog@@6BQObject@@@" PURGE="-1" COMMENT="" />
    <EXPORT ORDINAL="2274" NAME="??_7QFileDialog@@6BQPaintDevice@@@" PURGE="-1" COMMENT="" />
    <EXPORT ORDINAL="2275" NAME="??_7QFileIconProvider@@6B@" PURGE="-1" COMMENT="" />
    <EXPORT ORDINAL="2276" NAME="??_7QFileOpenEvent@@6B@" PURGE="-1" COMMENT="" />
    <EXPORT ORDINAL="2277" NAME="??_7QFileSystemModel@@6B@" PURGE="-1" COMMENT="" />
    <EXPORT ORDINAL="2278" NAME="??_7QFocusEvent@@6B@" PURGE="-1" COMMENT="" />
    <EXPORT ORDINAL="2279" NAME="??_7QFocusFrame@@6BQObject@@@" PURGE="-1" COMMENT="" />
    <EXPORT ORDINAL="2280" NAME="??_7QFocusFrame@@6BQPaintDevice@@@" PURGE="-1" COMMENT="" />
    <EXPORT ORDINAL="2281" NAME="??_7QFontComboBox@@6BQObject@@@" PURGE="-1" COMMENT="" />
    <EXPORT ORDINAL="2282" NAME="??_7QFontComboBox@@6BQPaintDevice@@@" PURGE="-1" COMMENT="" />
    <EXPORT ORDINAL="2283" NAME="??_7QFontDialog@@6BQObject@@@" PURGE="-1" COMMENT="" />
    <EXPORT ORDINAL="2284" NAME="??_7QFontDialog@@6BQPaintDevice@@@" PURGE="-1" COMMENT="" />
    <EXPORT ORDINAL="2285" NAME="??_7QFontEngine@@6B@" PURGE="-1" COMMENT="" />
    <EXPORT ORDINAL="2286" NAME="??_7QFormLayout@@6BQLayoutItem@@@" PURGE="-1" COMMENT="" />
    <EXPORT ORDINAL="2287" NAME="??_7QFormLayout@@6BQObject@@@" PURGE="-1" COMMENT="" />
    <EXPORT ORDINAL="2288" NAME="??_7QFrame@@6BQObject@@@" PURGE="-1" COMMENT="" />
    <EXPORT ORDINAL="2289" NAME="??_7QFrame@@6BQPaintDevice@@@" PURGE="-1" COMMENT="" />
    <EXPORT ORDINAL="2290" NAME="??_7QGesture@@6B@" PURGE="-1" COMMENT="" />
    <EXPORT ORDINAL="2291" NAME="??_7QGestureEvent@@6B@" PURGE="-1" COMMENT="" />
    <EXPORT ORDINAL="2292" NAME="??_7QGestureRecognizer@@6B@" PURGE="-1" COMMENT="" />
    <EXPORT ORDINAL="2293" NAME="??_7QGraphicsAnchor@@6B@" PURGE="-1" COMMENT="" />
    <EXPORT ORDINAL="2294" NAME="??_7QGraphicsAnchorLayout@@6B@" PURGE="-1" COMMENT="" />
    <EXPORT ORDINAL="2295" NAME="??_7QGraphicsBlurEffect@@6B@" PURGE="-1" COMMENT="" />
    <EXPORT ORDINAL="2296" NAME="??_7QGraphicsColorizeEffect@@6B@" PURGE="-1" COMMENT="" />
    <EXPORT ORDINAL="2297" NAME="??_7QGraphicsDropShadowEffect@@6B@" PURGE="-1" COMMENT="" />
    <EXPORT ORDINAL="2298" NAME="??_7QGraphicsEffect@@6B@" PURGE="-1" COMMENT="" />
    <EXPORT ORDINAL="2299" NAME="??_7QGraphicsEffectPrivate@@6B@" PURGE="-1" COMMENT="" />
    <EXPORT ORDINAL="2300" NAME="??_7QGraphicsEffectSource@@6B@" PURGE="-1" COMMENT="" />
    <EXPORT ORDINAL="2301" NAME="??_7QGraphicsEllipseItem@@6B@" PURGE="-1" COMMENT="" />
    <EXPORT ORDINAL="2302" NAME="??_7QGraphicsGridLayout@@6B@" PURGE="-1" COMMENT="" />
    <EXPORT ORDINAL="2303" NAME="??_7QGraphicsItem@@6B@" PURGE="-1" COMMENT="" />
    <EXPORT ORDINAL="2304" NAME="??_7QGraphicsItemAnimation@@6B@" PURGE="-1" COMMENT="" />
    <EXPORT ORDINAL="2305" NAME="??_7QGraphicsItemGroup@@6B@" PURGE="-1" COMMENT="" />
    <EXPORT ORDINAL="2306" NAME="??_7QGraphicsItemPrivate@@6B@" PURGE="-1" COMMENT="" />
    <EXPORT ORDINAL="2307" NAME="??_7QGraphicsLayout@@6B@" PURGE="-1" COMMENT="" />
    <EXPORT ORDINAL="2308" NAME="??_7QGraphicsLayoutItem@@6B@" PURGE="-1" COMMENT="" />
    <EXPORT ORDINAL="2309" NAME="??_7QGraphicsLineItem@@6B@" PURGE="-1" COMMENT="" />
    <EXPORT ORDINAL="2310" NAME="??_7QGraphicsLinearLayout@@6B@" PURGE="-1" COMMENT="" />
    <EXPORT ORDINAL="2311" NAME="??_7QGraphicsObject@@6BQGraphicsItem@@@" PURGE="-1" COMMENT="" />
    <EXPORT ORDINAL="2312" NAME="??_7QGraphicsObject@@6BQObject@@@" PURGE="-1" COMMENT="" />
    <EXPORT ORDINAL="2313" NAME="??_7QGraphicsOpacityEffect@@6B@" PURGE="-1" COMMENT="" />
    <EXPORT ORDINAL="2314" NAME="??_7QGraphicsPathItem@@6B@" PURGE="-1" COMMENT="" />
    <EXPORT ORDINAL="2315" NAME="??_7QGraphicsPixmapItem@@6B@" PURGE="-1" COMMENT="" />
    <EXPORT ORDINAL="2316" NAME="??_7QGraphicsPolygonItem@@6B@" PURGE="-1" COMMENT="" />
    <EXPORT ORDINAL="2317" NAME="??_7QGraphicsProxyWidget@@6B@" PURGE="-1" COMMENT="" />
    <EXPORT ORDINAL="2318" NAME="??_7QGraphicsProxyWidget@@6BQGraphicsItem@@@" PURGE="-1" COMMENT="" />
    <EXPORT ORDINAL="2319" NAME="??_7QGraphicsProxyWidget@@6BQObject@@@" PURGE="-1" COMMENT="" />
    <EXPORT ORDINAL="2320" NAME="??_7QGraphicsRectItem@@6B@" PURGE="-1" COMMENT="" />
    <EXPORT ORDINAL="2321" NAME="??_7QGraphicsRotation@@6B@" PURGE="-1" COMMENT="" />
    <EXPORT ORDINAL="2322" NAME="??_7QGraphicsScale@@6B@" PURGE="-1" COMMENT="" />
    <EXPORT ORDINAL="2323" NAME="??_7QGraphicsScene@@6B@" PURGE="-1" COMMENT="" />
    <EXPORT ORDINAL="2324" NAME="??_7QGraphicsSceneContextMenuEvent@@6B@" PURGE="-1" COMMENT="" />
    <EXPORT ORDINAL="2325" NAME="??_7QGraphicsSceneDragDropEvent@@6B@" PURGE="-1" COMMENT="" />
    <EXPORT ORDINAL="2326" NAME="??_7QGraphicsSceneEvent@@6B@" PURGE="-1" COMMENT="" />
    <EXPORT ORDINAL="2327" NAME="??_7QGraphicsSceneHelpEvent@@6B@" PURGE="-1" COMMENT="" />
    <EXPORT ORDINAL="2328" NAME="??_7QGraphicsSceneHoverEvent@@6B@" PURGE="-1" COMMENT="" />
    <EXPORT ORDINAL="2329" NAME="??_7QGraphicsSceneMouseEvent@@6B@" PURGE="-1" COMMENT="" />
    <EXPORT ORDINAL="2330" NAME="??_7QGraphicsSceneMoveEvent@@6B@" PURGE="-1" COMMENT="" />
    <EXPORT ORDINAL="2331" NAME="??_7QGraphicsSceneResizeEvent@@6B@" PURGE="-1" COMMENT="" />
    <EXPORT ORDINAL="2332" NAME="??_7QGraphicsSceneWheelEvent@@6B@" PURGE="-1" COMMENT="" />
    <EXPORT ORDINAL="2333" NAME="??_7QGraphicsSimpleTextItem@@6B@" PURGE="-1" COMMENT="" />
    <EXPORT ORDINAL="2334" NAME="??_7QGraphicsSystem@@6B@" PURGE="-1" COMMENT="" />
    <EXPORT ORDINAL="2335" NAME="??_7QGraphicsSystemPlugin@@6BQGraphicsSystemFactoryInterface@@@" PURGE="-1" COMMENT="" />
    <EXPORT ORDINAL="2336" NAME="??_7QGraphicsSystemPlugin@@6BQObject@@@" PURGE="-1" COMMENT="" />
    <EXPORT ORDINAL="2337" NAME="??_7QGraphicsTextItem@@6BQGraphicsItem@@@" PURGE="-1" COMMENT="" />
    <EXPORT ORDINAL="2338" NAME="??_7QGraphicsTextItem@@6BQObject@@@" PURGE="-1" COMMENT="" />
    <EXPORT ORDINAL="2339" NAME="??_7QGraphicsTransform@@6B@" PURGE="-1" COMMENT="" />
    <EXPORT ORDINAL="2340" NAME="??_7QGraphicsView@@6BQObject@@@" PURGE="-1" COMMENT="" />
    <EXPORT ORDINAL="2341" NAME="??_7QGraphicsView@@6BQPaintDevice@@@" PURGE="-1" COMMENT="" />
    <EXPORT ORDINAL="2342" NAME="??_7QGraphicsViewPrivate@@6B@" PURGE="-1" COMMENT="" />
    <EXPORT ORDINAL="2343" NAME="??_7QGraphicsWidget@@6B@" PURGE="-1" COMMENT="" />
    <EXPORT ORDINAL="2344" NAME="??_7QGraphicsWidget@@6BQGraphicsItem@@@" PURGE="-1" COMMENT="" />
    <EXPORT ORDINAL="2345" NAME="??_7QGraphicsWidget@@6BQObject@@@" PURGE="-1" COMMENT="" />
    <EXPORT ORDINAL="2346" NAME="??_7QGridLayout@@6BQLayoutItem@@@" PURGE="-1" COMMENT="" />
    <EXPORT ORDINAL="2347" NAME="??_7QGridLayout@@6BQObject@@@" PURGE="-1" COMMENT="" />
    <EXPORT ORDINAL="2348" NAME="??_7QGroupBox@@6BQObject@@@" PURGE="-1" COMMENT="" />
    <EXPORT ORDINAL="2349" NAME="??_7QGroupBox@@6BQPaintDevice@@@" PURGE="-1" COMMENT="" />
    <EXPORT ORDINAL="2350" NAME="??_7QGuiPlatformPlugin@@6BQGuiPlatformPluginInterface@@@" PURGE="-1" COMMENT="" />
    <EXPORT ORDINAL="2351" NAME="??_7QGuiPlatformPlugin@@6BQObject@@@" PURGE="-1" COMMENT="" />
    <EXPORT ORDINAL="2352" NAME="??_7QGuiPlatformPluginInterface@@6B@" PURGE="-1" COMMENT="" />
    <EXPORT ORDINAL="2353" NAME="??_7QHBoxLayout@@6BQLayoutItem@@@" PURGE="-1" COMMENT="" />
    <EXPORT ORDINAL="2354" NAME="??_7QHBoxLayout@@6BQObject@@@" PURGE="-1" COMMENT="" />
    <EXPORT ORDINAL="2355" NAME="??_7QHeaderView@@6BQObject@@@" PURGE="-1" COMMENT="" />
    <EXPORT ORDINAL="2356" NAME="??_7QHeaderView@@6BQPaintDevice@@@" PURGE="-1" COMMENT="" />
    <EXPORT ORDINAL="2357" NAME="??_7QHelpEvent@@6B@" PURGE="-1" COMMENT="" />
    <EXPORT ORDINAL="2358" NAME="??_7QHideEvent@@6B@" PURGE="-1" COMMENT="" />
    <EXPORT ORDINAL="2359" NAME="??_7QHoverEvent@@6B@" PURGE="-1" COMMENT="" />
    <EXPORT ORDINAL="2360" NAME="??_7QIconDragEvent@@6B@" PURGE="-1" COMMENT="" />
    <EXPORT ORDINAL="2361" NAME="??_7QIconEngine@@6B@" PURGE="-1" COMMENT="" />
    <EXPORT ORDINAL="2362" NAME="??_7QIconEngineFactoryInterface@@6B@" PURGE="-1" COMMENT="" />
    <EXPORT ORDINAL="2363" NAME="??_7QIconEngineFactoryInterfaceV2@@6B@" PURGE="-1" COMMENT="" />
    <EXPORT ORDINAL="2364" NAME="??_7QIconEnginePlugin@@6BQIconEngineFactoryInterface@@@" PURGE="-1" COMMENT="" />
    <EXPORT ORDINAL="2365" NAME="??_7QIconEnginePlugin@@6BQObject@@@" PURGE="-1" COMMENT="" />
    <EXPORT ORDINAL="2366" NAME="??_7QIconEnginePluginV2@@6BQIconEngineFactoryInterfaceV2@@@" PURGE="-1" COMMENT="" />
    <EXPORT ORDINAL="2367" NAME="??_7QIconEnginePluginV2@@6BQObject@@@" PURGE="-1" COMMENT="" />
    <EXPORT ORDINAL="2368" NAME="??_7QIconEngineV2@@6B@" PURGE="-1" COMMENT="" />
    <EXPORT ORDINAL="2369" NAME="??_7QIdentityProxyModel@@6B@" PURGE="-1" COMMENT="" />
    <EXPORT ORDINAL="2370" NAME="??_7QImage@@6B@" PURGE="-1" COMMENT="" />
    <EXPORT ORDINAL="2371" NAME="??_7QImageIOHandler@@6B@" PURGE="-1" COMMENT="" />
    <EXPORT ORDINAL="2372" NAME="??_7QImageIOHandlerFactoryInterface@@6B@" PURGE="-1" COMMENT="" />
    <EXPORT ORDINAL="2373" NAME="??_7QImageIOPlugin@@6BQImageIOHandlerFactoryInterface@@@" PURGE="-1" COMMENT="" />
    <EXPORT ORDINAL="2374" NAME="??_7QImageIOPlugin@@6BQObject@@@" PURGE="-1" COMMENT="" />
    <EXPORT ORDINAL="2375" NAME="??_7QImageTextureGlyphCache@@6B@" PURGE="-1" COMMENT="" />
    <EXPORT ORDINAL="2376" NAME="??_7QInputContext@@6B@" PURGE="-1" COMMENT="" />
    <EXPORT ORDINAL="2377" NAME="??_7QInputContextFactoryInterface@@6B@" PURGE="-1" COMMENT="" />
    <EXPORT ORDINAL="2378" NAME="??_7QInputContextPlugin@@6BQInputContextFactoryInterface@@@" PURGE="-1" COMMENT="" />
    <EXPORT ORDINAL="2379" NAME="??_7QInputContextPlugin@@6BQObject@@@" PURGE="-1" COMMENT="" />
    <EXPORT ORDINAL="2380" NAME="??_7QInputDialog@@6BQObject@@@" PURGE="-1" COMMENT="" />
    <EXPORT ORDINAL="2381" NAME="??_7QInputDialog@@6BQPaintDevice@@@" PURGE="-1" COMMENT="" />
    <EXPORT ORDINAL="2382" NAME="??_7QInputEvent@@6B@" PURGE="-1" COMMENT="" />
    <EXPORT ORDINAL="2383" NAME="??_7QInputMethodEvent@@6B@" PURGE="-1" COMMENT="" />
    <EXPORT ORDINAL="2384" NAME="??_7QIntValidator@@6B@" PURGE="-1" COMMENT="" />
    <EXPORT ORDINAL="2385" NAME="??_7QInternalMimeData@@6B@" PURGE="-1" COMMENT="" />
    <EXPORT ORDINAL="2386" NAME="??_7QItemDelegate@@6B@" PURGE="-1" COMMENT="" />
    <EXPORT ORDINAL="2387" NAME="??_7QItemEditorCreatorBase@@6B@" PURGE="-1" COMMENT="" />
    <EXPORT ORDINAL="2388" NAME="??_7QItemEditorFactory@@6B@" PURGE="-1" COMMENT="" />
    <EXPORT ORDINAL="2389" NAME="??_7QItemSelectionModel@@6B@" PURGE="-1" COMMENT="" />
    <EXPORT ORDINAL="2390" NAME="??_7QKeyEvent@@6B@" PURGE="-1" COMMENT="" />
    <EXPORT ORDINAL="2391" NAME="??_7QKeyEventTransition@@6B@" PURGE="-1" COMMENT="" />
    <EXPORT ORDINAL="2392" NAME="??_7QLCDNumber@@6BQObject@@@" PURGE="-1" COMMENT="" />
    <EXPORT ORDINAL="2393" NAME="??_7QLCDNumber@@6BQPaintDevice@@@" PURGE="-1" COMMENT="" />
    <EXPORT ORDINAL="2394" NAME="??_7QLabel@@6BQObject@@@" PURGE="-1" COMMENT="" />
    <EXPORT ORDINAL="2395" NAME="??_7QLabel@@6BQPaintDevice@@@" PURGE="-1" COMMENT="" />
    <EXPORT ORDINAL="2396" NAME="??_7QLayout@@6BQLayoutItem@@@" PURGE="-1" COMMENT="" />
    <EXPORT ORDINAL="2397" NAME="??_7QLayout@@6BQObject@@@" PURGE="-1" COMMENT="" />
    <EXPORT ORDINAL="2398" NAME="??_7QLayoutItem@@6B@" PURGE="-1" COMMENT="" />
    <EXPORT ORDINAL="2399" NAME="??_7QLayoutPrivate@@6B@" PURGE="-1" COMMENT="" />
    <EXPORT ORDINAL="2400" NAME="??_7QLineControl@@6B@" PURGE="-1" COMMENT="" />
    <EXPORT ORDINAL="2401" NAME="??_7QLineEdit@@6BQObject@@@" PURGE="-1" COMMENT="" />
    <EXPORT ORDINAL="2402" NAME="??_7QLineEdit@@6BQPaintDevice@@@" PURGE="-1" COMMENT="" />
    <EXPORT ORDINAL="2403" NAME="??_7QListView@@6BQObject@@@" PURGE="-1" COMMENT="" />
    <EXPORT ORDINAL="2404" NAME="??_7QListView@@6BQPaintDevice@@@" PURGE="-1" COMMENT="" />
    <EXPORT ORDINAL="2405" NAME="??_7QListWidget@@6BQObject@@@" PURGE="-1" COMMENT="" />
    <EXPORT ORDINAL="2406" NAME="??_7QListWidget@@6BQPaintDevice@@@" PURGE="-1" COMMENT="" />
    <EXPORT ORDINAL="2407" NAME="??_7QListWidgetItem@@6B@" PURGE="-1" COMMENT="" />
    <EXPORT ORDINAL="2408" NAME="??_7QMainWindow@@6BQObject@@@" PURGE="-1" COMMENT="" />
    <EXPORT ORDINAL="2409" NAME="??_7QMainWindow@@6BQPaintDevice@@@" PURGE="-1" COMMENT="" />
    <EXPORT ORDINAL="2410" NAME="??_7QMdiArea@@6BQObject@@@" PURGE="-1" COMMENT="" />
    <EXPORT ORDINAL="2411" NAME="??_7QMdiArea@@6BQPaintDevice@@@" PURGE="-1" COMMENT="" />
    <EXPORT ORDINAL="2412" NAME="??_7QMdiSubWindow@@6BQObject@@@" PURGE="-1" COMMENT="" />
    <EXPORT ORDINAL="2413" NAME="??_7QMdiSubWindow@@6BQPaintDevice@@@" PURGE="-1" COMMENT="" />
    <EXPORT ORDINAL="2414" NAME="??_7QMenu@@6BQObject@@@" PURGE="-1" COMMENT="" />
    <EXPORT ORDINAL="2415" NAME="??_7QMenu@@6BQPaintDevice@@@" PURGE="-1" COMMENT="" />
    <EXPORT ORDINAL="2416" NAME="??_7QMenuBar@@6BQObject@@@" PURGE="-1" COMMENT="" />
    <EXPORT ORDINAL="2417" NAME="??_7QMenuBar@@6BQPaintDevice@@@" PURGE="-1" COMMENT="" />
    <EXPORT ORDINAL="2418" NAME="??_7QMenuItem@@6B@" PURGE="-1" COMMENT="" />
    <EXPORT ORDINAL="2419" NAME="??_7QMenubarUpdatedEvent@@6B@" PURGE="-1" COMMENT="" />
    <EXPORT ORDINAL="2420" NAME="??_7QMessageBox@@6BQObject@@@" PURGE="-1" COMMENT="" />
    <EXPORT ORDINAL="2421" NAME="??_7QMessageBox@@6BQPaintDevice@@@" PURGE="-1" COMMENT="" />
    <EXPORT ORDINAL="2422" NAME="??_7QMimeSource@@6B@" PURGE="-1" COMMENT="" />
    <EXPORT ORDINAL="2423" NAME="??_7QMotifStyle@@6B@" PURGE="-1" COMMENT="" />
    <EXPORT ORDINAL="2424" NAME="??_7QMouseEvent@@6B@" PURGE="-1" COMMENT="" />
    <EXPORT ORDINAL="2425" NAME="??_7QMouseEventTransition@@6B@" PURGE="-1" COMMENT="" />
    <EXPORT ORDINAL="2426" NAME="??_7QMoveEvent@@6B@" PURGE="-1" COMMENT="" />
    <EXPORT ORDINAL="2427" NAME="??_7QMovie@@6B@" PURGE="-1" COMMENT="" />
    <EXPORT ORDINAL="2428" NAME="??_7QPageSetupDialog@@6BQObject@@@" PURGE="-1" COMMENT="" />
    <EXPORT ORDINAL="2429" NAME="??_7QPageSetupDialog@@6BQPaintDevice@@@" PURGE="-1" COMMENT="" />
    <EXPORT ORDINAL="2430" NAME="??_7QPaintBuffer@@6B@" PURGE="-1" COMMENT="" />
    <EXPORT ORDINAL="2431" NAME="??_7QPaintBufferResource@@6B@" PURGE="-1" COMMENT="" />
    <EXPORT ORDINAL="2432" NAME="??_7QPaintBufferSignalProxy@@6B@" PURGE="-1" COMMENT="" />
    <EXPORT ORDINAL="2433" NAME="??_7QPaintDevice@@6B@" PURGE="-1" COMMENT="" />
    <EXPORT ORDINAL="2434" NAME="??_7QPaintEngine@@6B@" PURGE="-1" COMMENT="" />
    <EXPORT ORDINAL="2435" NAME="??_7QPaintEngineEx@@6B@" PURGE="-1" COMMENT="" />
    <EXPORT ORDINAL="2436" NAME="??_7QPaintEngineExPrivate@@6B@" PURGE="-1" COMMENT="" />
    <EXPORT ORDINAL="2437" NAME="??_7QPaintEngineExReplayer@@6B@" PURGE="-1" COMMENT="" />
    <EXPORT ORDINAL="2438" NAME="??_7QPaintEvent@@6B@" PURGE="-1" COMMENT="" />
    <EXPORT ORDINAL="2439" NAME="??_7QPainterReplayer@@6B@" PURGE="-1" COMMENT="" />
    <EXPORT ORDINAL="2440" NAME="??_7QPainterState@@6B@" PURGE="-1" COMMENT="" />
    <EXPORT ORDINAL="2441" NAME="??_7QPanGesture@@6B@" PURGE="-1" COMMENT="" />
    <EXPORT ORDINAL="2442" NAME="??_7QPicture@@6B@" PURGE="-1" COMMENT="" />
    <EXPORT ORDINAL="2443" NAME="??_7QPictureFormatInterface@@6B@" PURGE="-1" COMMENT="" />
    <EXPORT ORDINAL="2444" NAME="??_7QPictureFormatPlugin@@6BQObject@@@" PURGE="-1" COMMENT="" />
    <EXPORT ORDINAL="2445" NAME="??_7QPictureFormatPlugin@@6BQPictureFormatInterface@@@" PURGE="-1" COMMENT="" />
    <EXPORT ORDINAL="2446" NAME="??_7QPinchGesture@@6B@" PURGE="-1" COMMENT="" />
    <EXPORT ORDINAL="2447" NAME="??_7QPixmap@@6B@" PURGE="-1" COMMENT="" />
    <EXPORT ORDINAL="2448" NAME="??_7QPixmapBlurFilter@@6B@" PURGE="-1" COMMENT="" />
    <EXPORT ORDINAL="2449" NAME="??_7QPixmapColorizeFilter@@6B@" PURGE="-1" COMMENT="" />
    <EXPORT ORDINAL="2450" NAME="??_7QPixmapConvolutionFilter@@6B@" PURGE="-1" COMMENT="" />
    <EXPORT ORDINAL="2451" NAME="??_7QPixmapData@@6B@" PURGE="-1" COMMENT="" />
    <EXPORT ORDINAL="2452" NAME="??_7QPixmapDropShadowFilter@@6B@" PURGE="-1" COMMENT="" />
    <EXPORT ORDINAL="2453" NAME="??_7QPixmapFilter@@6B@" PURGE="-1" COMMENT="" />
    <EXPORT ORDINAL="2454" NAME="??_7QPlainTextDocumentLayout@@6B@" PURGE="-1" COMMENT="" />
    <EXPORT ORDINAL="2455" NAME="??_7QPlainTextEdit@@6BQObject@@@" PURGE="-1" COMMENT="" />
    <EXPORT ORDINAL="2456" NAME="??_7QPlainTextEdit@@6BQPaintDevice@@@" PURGE="-1" COMMENT="" />
    <EXPORT ORDINAL="2457" NAME="??_7QPlastiqueStyle@@6B@" PURGE="-1" COMMENT="" />
    <EXPORT ORDINAL="2458" NAME="??_7QPrintDialog@@6BQObject@@@" PURGE="-1" COMMENT="" />
    <EXPORT ORDINAL="2459" NAME="??_7QPrintDialog@@6BQPaintDevice@@@" PURGE="-1" COMMENT="" />
    <EXPORT ORDINAL="2460" NAME="??_7QPrintEngine@@6B@" PURGE="-1" COMMENT="" />
    <EXPORT ORDINAL="2461" NAME="??_7QPrintPreviewDialog@@6BQObject@@@" PURGE="-1" COMMENT="" />
    <EXPORT ORDINAL="2462" NAME="??_7QPrintPreviewDialog@@6BQPaintDevice@@@" PURGE="-1" COMMENT="" />
    <EXPORT ORDINAL="2463" NAME="??_7QPrintPreviewWidget@@6BQObject@@@" PURGE="-1" COMMENT="" />
    <EXPORT ORDINAL="2464" NAME="??_7QPrintPreviewWidget@@6BQPaintDevice@@@" PURGE="-1" COMMENT="" />
    <EXPORT ORDINAL="2465" NAME="??_7QPrinter@@6B@" PURGE="-1" COMMENT="" />
    <EXPORT ORDINAL="2466" NAME="??_7QProgressBar@@6BQObject@@@" PURGE="-1" COMMENT="" />
    <EXPORT ORDINAL="2467" NAME="??_7QProgressBar@@6BQPaintDevice@@@" PURGE="-1" COMMENT="" />
    <EXPORT ORDINAL="2468" NAME="??_7QProgressDialog@@6BQObject@@@" PURGE="-1" COMMENT="" />
    <EXPORT ORDINAL="2469" NAME="??_7QProgressDialog@@6BQPaintDevice@@@" PURGE="-1" COMMENT="" />
    <EXPORT ORDINAL="2470" NAME="??_7QProxyModel@@6B@" PURGE="-1" COMMENT="" />
    <EXPORT ORDINAL="2471" NAME="??_7QProxyStyle@@6B@" PURGE="-1" COMMENT="" />
    <EXPORT ORDINAL="2472" NAME="??_7QPushButton@@6BQObject@@@" PURGE="-1" COMMENT="" />
    <EXPORT ORDINAL="2473" NAME="??_7QPushButton@@6BQPaintDevice@@@" PURGE="-1" COMMENT="" />
    <EXPORT ORDINAL="2474" NAME="??_7QRadioButton@@6BQObject@@@" PURGE="-1" COMMENT="" />
    <EXPORT ORDINAL="2475" NAME="??_7QRadioButton@@6BQPaintDevice@@@" PURGE="-1" COMMENT="" />
    <EXPORT ORDINAL="2476" NAME="??_7QRasterPixmapData@@6B@" PURGE="-1" COMMENT="" />
    <EXPORT ORDINAL="2477" NAME="??_7QRasterWindowSurface@@6B@" PURGE="-1" COMMENT="" />
    <EXPORT ORDINAL="2478" NAME="??_7QRegExpValidator@@6B@" PURGE="-1" COMMENT="" />
    <EXPORT ORDINAL="2479" NAME="??_7QResizeEvent@@6B@" PURGE="-1" COMMENT="" />
    <EXPORT ORDINAL="2480" NAME="??_7QRubberBand@@6BQObject@@@" PURGE="-1" COMMENT="" />
    <EXPORT ORDINAL="2481" NAME="??_7QRubberBand@@6BQPaintDevice@@@" PURGE="-1" COMMENT="" />
    <EXPORT ORDINAL="2482" NAME="??_7QRuntimePixmapData@@6B@" PURGE="-1" COMMENT="" />
    <EXPORT ORDINAL="2483" NAME="??_7QScrollArea@@6BQObject@@@" PURGE="-1" COMMENT="" />
    <EXPORT ORDINAL="2484" NAME="??_7QScrollArea@@6BQPaintDevice@@@" PURGE="-1" COMMENT="" />
    <EXPORT ORDINAL="2485" NAME="??_7QScrollBar@@6BQObject@@@" PURGE="-1" COMMENT="" />
    <EXPORT ORDINAL="2486" NAME="??_7QScrollBar@@6BQPaintDevice@@@" PURGE="-1" COMMENT="" />
    <EXPORT ORDINAL="2487" NAME="??_7QSessionManager@@6B@" PURGE="-1" COMMENT="" />
    <EXPORT ORDINAL="2488" NAME="??_7QShortcut@@6B@" PURGE="-1" COMMENT="" />
    <EXPORT ORDINAL="2489" NAME="??_7QShortcutEvent@@6B@" PURGE="-1" COMMENT="" />
    <EXPORT ORDINAL="2490" NAME="??_7QShowEvent@@6B@" PURGE="-1" COMMENT="" />
    <EXPORT ORDINAL="2491" NAME="??_7QSizeGrip@@6BQObject@@@" PURGE="-1" COMMENT="" />
    <EXPORT ORDINAL="2492" NAME="??_7QSizeGrip@@6BQPaintDevice@@@" PURGE="-1" COMMENT="" />
    <EXPORT ORDINAL="2493" NAME="??_7QSlider@@6BQObject@@@" PURGE="-1" COMMENT="" />
    <EXPORT ORDINAL="2494" NAME="??_7QSlider@@6BQPaintDevice@@@" PURGE="-1" COMMENT="" />
    <EXPORT ORDINAL="2495" NAME="??_7QSortFilterProxyModel@@6B@" PURGE="-1" COMMENT="" />
    <EXPORT ORDINAL="2496" NAME="??_7QSound@@6B@" PURGE="-1" COMMENT="" />
    <EXPORT ORDINAL="2497" NAME="??_7QSpacerItem@@6B@" PURGE="-1" COMMENT="" />
    <EXPORT ORDINAL="2498" NAME="??_7QSpinBox@@6BQObject@@@" PURGE="-1" COMMENT="" />
    <EXPORT ORDINAL="2499" NAME="??_7QSpinBox@@6BQPaintDevice@@@" PURGE="-1" COMMENT="" />
    <EXPORT ORDINAL="2500" NAME="??_7QSplashScreen@@6BQObject@@@" PURGE="-1" COMMENT="" />
    <EXPORT ORDINAL="2501" NAME="??_7QSplashScreen@@6BQPaintDevice@@@" PURGE="-1" COMMENT="" />
    <EXPORT ORDINAL="2502" NAME="??_7QSplitter@@6BQObject@@@" PURGE="-1" COMMENT="" />
    <EXPORT ORDINAL="2503" NAME="??_7QSplitter@@6BQPaintDevice@@@" PURGE="-1" COMMENT="" />
    <EXPORT ORDINAL="2504" NAME="??_7QSplitterHandle@@6BQObject@@@" PURGE="-1" COMMENT="" />
    <EXPORT ORDINAL="2505" NAME="??_7QSplitterHandle@@6BQPaintDevice@@@" PURGE="-1" COMMENT="" />
    <EXPORT ORDINAL="2506" NAME="??_7QStackedLayout@@6BQLayoutItem@@@" PURGE="-1" COMMENT="" />
    <EXPORT ORDINAL="2507" NAME="??_7QStackedLayout@@6BQObject@@@" PURGE="-1" COMMENT="" />
    <EXPORT ORDINAL="2508" NAME="??_7QStackedWidget@@6BQObject@@@" PURGE="-1" COMMENT="" />
    <EXPORT ORDINAL="2509" NAME="??_7QStackedWidget@@6BQPaintDevice@@@" PURGE="-1" COMMENT="" />
    <EXPORT ORDINAL="2510" NAME="??_7QStandardItem@@6B@" PURGE="-1" COMMENT="" />
    <EXPORT ORDINAL="2511" NAME="??_7QStandardItemModel@@6B@" PURGE="-1" COMMENT="" />
    <EXPORT ORDINAL="2512" NAME="??_7QStatusBar@@6BQObject@@@" PURGE="-1" COMMENT="" />
    <EXPORT ORDINAL="2513" NAME="??_7QStatusBar@@6BQPaintDevice@@@" PURGE="-1" COMMENT="" />
    <EXPORT ORDINAL="2514" NAME="??_7QStatusTipEvent@@6B@" PURGE="-1" COMMENT="" />
    <EXPORT ORDINAL="2515" NAME="??_7QStringListModel@@6B@" PURGE="-1" COMMENT="" />
    <EXPORT ORDINAL="2516" NAME="??_7QStroker@@6B@" PURGE="-1" COMMENT="" />
    <EXPORT ORDINAL="2517" NAME="??_7QStrokerOps@@6B@" PURGE="-1" COMMENT="" />
    <EXPORT ORDINAL="2518" NAME="??_7QStyle@@6B@" PURGE="-1" COMMENT="" />
    <EXPORT ORDINAL="2519" NAME="??_7QStyleFactoryInterface@@6B@" PURGE="-1" COMMENT="" />
    <EXPORT ORDINAL="2520" NAME="??_7QStylePlugin@@6BQObject@@@" PURGE="-1" COMMENT="" />
    <EXPORT ORDINAL="2521" NAME="??_7QStylePlugin@@6BQStyleFactoryInterface@@@" PURGE="-1" COMMENT="" />
    <EXPORT ORDINAL="2522" NAME="??_7QStyledItemDelegate@@6B@" PURGE="-1" COMMENT="" />
    <EXPORT ORDINAL="2523" NAME="??_7QSwipeGesture@@6B@" PURGE="-1" COMMENT="" />
    <EXPORT ORDINAL="2524" NAME="??_7QSyntaxHighlighter@@6B@" PURGE="-1" COMMENT="" />
    <EXPORT ORDINAL="2525" NAME="??_7QSystemTrayIcon@@6B@" PURGE="-1" COMMENT="" />
    <EXPORT ORDINAL="2526" NAME="??_7QTabBar@@6BQObject@@@" PURGE="-1" COMMENT="" />
    <EXPORT ORDINAL="2527" NAME="??_7QTabBar@@6BQPaintDevice@@@" PURGE="-1" COMMENT="" />
    <EXPORT ORDINAL="2528" NAME="??_7QTabWidget@@6BQObject@@@" PURGE="-1" COMMENT="" />
    <EXPORT ORDINAL="2529" NAME="??_7QTabWidget@@6BQPaintDevice@@@" PURGE="-1" COMMENT="" />
    <EXPORT ORDINAL="2530" NAME="??_7QTableView@@6BQObject@@@" PURGE="-1" COMMENT="" />
    <EXPORT ORDINAL="2531" NAME="??_7QTableView@@6BQPaintDevice@@@" PURGE="-1" COMMENT="" />
    <EXPORT ORDINAL="2532" NAME="??_7QTableWidget@@6BQObject@@@" PURGE="-1" COMMENT="" />
    <EXPORT ORDINAL="2533" NAME="??_7QTableWidget@@6BQPaintDevice@@@" PURGE="-1" COMMENT="" />
    <EXPORT ORDINAL="2534" NAME="??_7QTableWidgetItem@@6B@" PURGE="-1" COMMENT="" />
    <EXPORT ORDINAL="2535" NAME="??_7QTabletEvent@@6B@" PURGE="-1" COMMENT="" />
    <EXPORT ORDINAL="2536" NAME="??_7QTapAndHoldGesture@@6B@" PURGE="-1" COMMENT="" />
    <EXPORT ORDINAL="2537" NAME="??_7QTapGesture@@6B@" PURGE="-1" COMMENT="" />
    <EXPORT ORDINAL="2538" NAME="??_7QTessellator@@6B@" PURGE="-1" COMMENT="" />
    <EXPORT ORDINAL="2539" NAME="??_7QTextBlockGroup@@6B@" PURGE="-1" COMMENT="" />
    <EXPORT ORDINAL="2540" NAME="??_7QTextBlockUserData@@6B@" PURGE="-1" COMMENT="" />
    <EXPORT ORDINAL="2541" NAME="??_7QTextBrowser@@6BQObject@@@" PURGE="-1" COMMENT="" />
    <EXPORT ORDINAL="2542" NAME="??_7QTextBrowser@@6BQPaintDevice@@@" PURGE="-1" COMMENT="" />
    <EXPORT ORDINAL="2543" NAME="??_7QTextControl@@6B@" PURGE="-1" COMMENT="" />
    <EXPORT ORDINAL="2544" NAME="??_7QTextDocument@@6B@" PURGE="-1" COMMENT="" />
    <EXPORT ORDINAL="2545" NAME="??_7QTextEdit@@6BQObject@@@" PURGE="-1" COMMENT="" />
    <EXPORT ORDINAL="2546" NAME="??_7QTextEdit@@6BQPaintDevice@@@" PURGE="-1" COMMENT="" />
    <EXPORT ORDINAL="2547" NAME="??_7QTextFrame@@6B@" PURGE="-1" COMMENT="" />
    <EXPORT ORDINAL="2548" NAME="??_7QTextFrameLayoutData@@6B@" PURGE="-1" COMMENT="" />
    <EXPORT ORDINAL="2549" NAME="??_7QTextList@@6B@" PURGE="-1" COMMENT="" />
    <EXPORT ORDINAL="2550" NAME="??_7QTextObject@@6B@" PURGE="-1" COMMENT="" />
    <EXPORT ORDINAL="2551" NAME="??_7QTextObjectInterface@@6B@" PURGE="-1" COMMENT="" />
    <EXPORT ORDINAL="2552" NAME="??_7QTextTable@@6B@" PURGE="-1" COMMENT="" />
    <EXPORT ORDINAL="2553" NAME="??_7QTextureGlyphCache@@6B@" PURGE="-1" COMMENT="" />
    <EXPORT ORDINAL="2554" NAME="??_7QTimeEdit@@6BQObject@@@" PURGE="-1" COMMENT="" />
    <EXPORT ORDINAL="2555" NAME="??_7QTimeEdit@@6BQPaintDevice@@@" PURGE="-1" COMMENT="" />
    <EXPORT ORDINAL="2556" NAME="??_7QToolBar@@6BQObject@@@" PURGE="-1" COMMENT="" />
    <EXPORT ORDINAL="2557" NAME="??_7QToolBar@@6BQPaintDevice@@@" PURGE="-1" COMMENT="" />
    <EXPORT ORDINAL="2558" NAME="??_7QToolBarChangeEvent@@6B@" PURGE="-1" COMMENT="" />
    <EXPORT ORDINAL="2559" NAME="??_7QToolBox@@6BQObject@@@" PURGE="-1" COMMENT="" />
    <EXPORT ORDINAL="2560" NAME="??_7QToolBox@@6BQPaintDevice@@@" PURGE="-1" COMMENT="" />
    <EXPORT ORDINAL="2561" NAME="??_7QToolButton@@6BQObject@@@" PURGE="-1" COMMENT="" />
    <EXPORT ORDINAL="2562" NAME="??_7QToolButton@@6BQPaintDevice@@@" PURGE="-1" COMMENT="" />
    <EXPORT ORDINAL="2563" NAME="??_7QTouchEvent@@6B@" PURGE="-1" COMMENT="" />
    <EXPORT ORDINAL="2564" NAME="??_7QTreeView@@6BQObject@@@" PURGE="-1" COMMENT="" />
    <EXPORT ORDINAL="2565" NAME="??_7QTreeView@@6BQPaintDevice@@@" PURGE="-1" COMMENT="" />
    <EXPORT ORDINAL="2566" NAME="??_7QTreeViewPrivate@@6B@" PURGE="-1" COMMENT="" />
    <EXPORT ORDINAL="2567" NAME="??_7QTreeWidget@@6BQObject@@@" PURGE="-1" COMMENT="" />
    <EXPORT ORDINAL="2568" NAME="??_7QTreeWidget@@6BQPaintDevice@@@" PURGE="-1" COMMENT="" />
    <EXPORT ORDINAL="2569" NAME="??_7QTreeWidgetItem@@6B@" PURGE="-1" COMMENT="" />
    <EXPORT ORDINAL="2570" NAME="??_7QUndoCommand@@6B@" PURGE="-1" COMMENT="" />
    <EXPORT ORDINAL="2571" NAME="??_7QUndoGroup@@6B@" PURGE="-1" COMMENT="" />
    <EXPORT ORDINAL="2572" NAME="??_7QUndoStack@@6B@" PURGE="-1" COMMENT="" />
    <EXPORT ORDINAL="2573" NAME="??_7QUndoView@@6BQObject@@@" PURGE="-1" COMMENT="" />
    <EXPORT ORDINAL="2574" NAME="??_7QUndoView@@6BQPaintDevice@@@" PURGE="-1" COMMENT="" />
    <EXPORT ORDINAL="2575" NAME="??_7QVBoxLayout@@6BQLayoutItem@@@" PURGE="-1" COMMENT="" />
    <EXPORT ORDINAL="2576" NAME="??_7QVBoxLayout@@6BQObject@@@" PURGE="-1" COMMENT="" />
    <EXPORT ORDINAL="2577" NAME="??_7QValidator@@6B@" PURGE="-1" COMMENT="" />
    <EXPORT ORDINAL="2578" NAME="??_7QWhatsThisClickedEvent@@6B@" PURGE="-1" COMMENT="" />
    <EXPORT ORDINAL="2579" NAME="??_7QWheelEvent@@6B@" PURGE="-1" COMMENT="" />
    <EXPORT ORDINAL="2580" NAME="??_7QWidget@@6BQObject@@@" PURGE="-1" COMMENT="" />
    <EXPORT ORDINAL="2581" NAME="??_7QWidget@@6BQPaintDevice@@@" PURGE="-1" COMMENT="" />
    <EXPORT ORDINAL="2582" NAME="??_7QWidgetAction@@6B@" PURGE="-1" COMMENT="" />
    <EXPORT ORDINAL="2583" NAME="??_7QWidgetItem@@6B@" PURGE="-1" COMMENT="" />
    <EXPORT ORDINAL="2584" NAME="??_7QWidgetItemV2@@6B@" PURGE="-1" COMMENT="" />
    <EXPORT ORDINAL="2585" NAME="??_7QWidgetPrivate@@6B@" PURGE="-1" COMMENT="" />
    <EXPORT ORDINAL="2586" NAME="??_7QWidgetResizeHandler@@6B@" PURGE="-1" COMMENT="" />
    <EXPORT ORDINAL="2587" NAME="??_7QWindowStateChangeEvent@@6B@" PURGE="-1" COMMENT="" />
    <EXPORT ORDINAL="2588" NAME="??_7QWindowSurface@@6B@" PURGE="-1" COMMENT="" />
    <EXPORT ORDINAL="2589" NAME="??_7QWindowsMime@@6B@" PURGE="-1" COMMENT="" />
    <EXPORT ORDINAL="2590" NAME="??_7QWindowsStyle@@6B@" PURGE="-1" COMMENT="" />
    <EXPORT ORDINAL="2591" NAME="??_7QWindowsVistaStyle@@6B@" PURGE="-1" COMMENT="" />
    <EXPORT ORDINAL="2592" NAME="??_7QWindowsXPStyle@@6B@" PURGE="-1" COMMENT="" />
    <EXPORT ORDINAL="2593" NAME="??_7QWizard@@6BQObject@@@" PURGE="-1" COMMENT="" />
    <EXPORT ORDINAL="2594" NAME="??_7QWizard@@6BQPaintDevice@@@" PURGE="-1" COMMENT="" />
    <EXPORT ORDINAL="2595" NAME="??_7QWizardPage@@6BQObject@@@" PURGE="-1" COMMENT="" />
    <EXPORT ORDINAL="2596" NAME="??_7QWizardPage@@6BQPaintDevice@@@" PURGE="-1" COMMENT="" />
    <EXPORT ORDINAL="2597" NAME="??_7QWorkspace@@6BQObject@@@" PURGE="-1" COMMENT="" />
    <EXPORT ORDINAL="2598" NAME="??_7QWorkspace@@6BQPaintDevice@@@" PURGE="-1" COMMENT="" />
    <EXPORT ORDINAL="2599" NAME="??_7StyleSelector@QCss@@6B@" PURGE="-1" COMMENT="" />
    <EXPORT ORDINAL="2600" NAME="??_FQAbstractButton@@QAEXXZ" PURGE="0" COMMENT="" />
    <EXPORT ORDINAL="2601" NAME="??_FQAbstractGraphicsShapeItem@@QAEXXZ" PURGE="0" COMMENT="" />
    <EXPORT ORDINAL="2602" NAME="??_FQAbstractItemDelegate@@QAEXXZ" PURGE="0" COMMENT="" />
    <EXPORT ORDINAL="2603" NAME="??_FQAbstractItemView@@QAEXXZ" PURGE="0" COMMENT="" />
    <EXPORT ORDINAL="2604" NAME="??_FQAbstractProxyModel@@QAEXXZ" PURGE="0" COMMENT="" />
    <EXPORT ORDINAL="2605" NAME="??_FQAbstractScrollArea@@QAEXXZ" PURGE="0" COMMENT="" />
    <EXPORT ORDINAL="2606" NAME="??_FQAbstractSlider@@QAEXXZ" PURGE="0" COMMENT="" />
    <EXPORT ORDINAL="2607" NAME="??_FQAbstractSpinBox@@QAEXXZ" PURGE="0" COMMENT="" />
    <EXPORT ORDINAL="2608" NAME="??_FQAccessiblePlugin@@QAEXXZ" PURGE="0" COMMENT="" />
    <EXPORT ORDINAL="2609" NAME="??_FQButtonGroup@@QAEXXZ" PURGE="0" COMMENT="" />
    <EXPORT ORDINAL="2610" NAME="??_FQCDEStyle@@QAEXXZ" PURGE="0" COMMENT="" />
    <EXPORT ORDINAL="2611" NAME="??_FQCalendarWidget@@QAEXXZ" PURGE="0" COMMENT="" />
    <EXPORT ORDINAL="2612" NAME="??_FQCheckBox@@QAEXXZ" PURGE="0" COMMENT="" />
    <EXPORT ORDINAL="2613" NAME="??_FQColorDialog@@QAEXXZ" PURGE="0" COMMENT="" />
    <EXPORT ORDINAL="2614" NAME="??_FQColumnView@@QAEXXZ" PURGE="0" COMMENT="" />
    <EXPORT ORDINAL="2615" NAME="??_FQComboBox@@QAEXXZ" PURGE="0" COMMENT="" />
    <EXPORT ORDINAL="2616" NAME="??_FQCommandLinkButton@@QAEXXZ" PURGE="0" COMMENT="" />
    <EXPORT ORDINAL="2617" NAME="??_FQCompleter@@QAEXXZ" PURGE="0" COMMENT="" />
    <EXPORT ORDINAL="2618" NAME="??_FQDataWidgetMapper@@QAEXXZ" PURGE="0" COMMENT="" />
    <EXPORT ORDINAL="2619" NAME="??_FQDateEdit@@QAEXXZ" PURGE="0" COMMENT="" />
    <EXPORT ORDINAL="2620" NAME="??_FQDateTimeEdit@@QAEXXZ" PURGE="0" COMMENT="" />
    <EXPORT ORDINAL="2621" NAME="??_FQDial@@QAEXXZ" PURGE="0" COMMENT="" />
    <EXPORT ORDINAL="2622" NAME="??_FQDialog@@QAEXXZ" PURGE="0" COMMENT="" />
    <EXPORT ORDINAL="2623" NAME="??_FQDialogButtonBox@@QAEXXZ" PURGE="0" COMMENT="" />
    <EXPORT ORDINAL="2624" NAME="??_FQDirModel@@QAEXXZ" PURGE="0" COMMENT="" />
    <EXPORT ORDINAL="2625" NAME="??_FQDockWidget@@QAEXXZ" PURGE="0" COMMENT="" />
    <EXPORT ORDINAL="2626" NAME="??_FQDockWidgetLayout@@QAEXXZ" PURGE="0" COMMENT="" />
    <EXPORT ORDINAL="2627" NAME="??_FQDoubleSpinBox@@QAEXXZ" PURGE="0" COMMENT="" />
    <EXPORT ORDINAL="2628" NAME="??_FQDoubleValidator@@QAEXXZ" PURGE="0" COMMENT="" />
    <EXPORT ORDINAL="2629" NAME="??_FQErrorMessage@@QAEXXZ" PURGE="0" COMMENT="" />
    <EXPORT ORDINAL="2630" NAME="??_FQFileDialog@@QAEXXZ" PURGE="0" COMMENT="" />
    <EXPORT ORDINAL="2631" NAME="??_FQFileSystemModel@@QAEXXZ" PURGE="0" COMMENT="" />
    <EXPORT ORDINAL="2632" NAME="??_FQFocusFrame@@QAEXXZ" PURGE="0" COMMENT="" />
    <EXPORT ORDINAL="2633" NAME="??_FQFontComboBox@@QAEXXZ" PURGE="0" COMMENT="" />
    <EXPORT ORDINAL="2634" NAME="??_FQFontDialog@@QAEXXZ" PURGE="0" COMMENT="" />
    <EXPORT ORDINAL="2635" NAME="??_FQFormLayout@@QAEXXZ" PURGE="0" COMMENT="" />
    <EXPORT ORDINAL="2636" NAME="??_FQFrame@@QAEXXZ" PURGE="0" COMMENT="" />
    <EXPORT ORDINAL="2637" NAME="??_FQGesture@@QAEXXZ" PURGE="0" COMMENT="" />
    <EXPORT ORDINAL="2638" NAME="??_FQGraphicsAnchorLayout@@QAEXXZ" PURGE="0" COMMENT="" />
    <EXPORT ORDINAL="2639" NAME="??_FQGraphicsBlurEffect@@QAEXXZ" PURGE="0" COMMENT="" />
    <EXPORT ORDINAL="2640" NAME="??_FQGraphicsColorizeEffect@@QAEXXZ" PURGE="0" COMMENT="" />
    <EXPORT ORDINAL="2641" NAME="??_FQGraphicsDropShadowEffect@@QAEXXZ" PURGE="0" COMMENT="" />
    <EXPORT ORDINAL="2642" NAME="??_FQGraphicsEffect@@QAEXXZ" PURGE="0" COMMENT="" />
    <EXPORT ORDINAL="2643" NAME="??_FQGraphicsEllipseItem@@QAEXXZ" PURGE="0" COMMENT="" />
    <EXPORT ORDINAL="2644" NAME="??_FQGraphicsGridLayout@@QAEXXZ" PURGE="0" COMMENT="" />
    <EXPORT ORDINAL="2645" NAME="??_FQGraphicsItem@@QAEXXZ" PURGE="0" COMMENT="" />
    <EXPORT ORDINAL="2646" NAME="??_FQGraphicsItemAnimation@@QAEXXZ" PURGE="0" COMMENT="" />
    <EXPORT ORDINAL="2647" NAME="??_FQGraphicsItemGroup@@QAEXXZ" PURGE="0" COMMENT="" />
    <EXPORT ORDINAL="2648" NAME="??_FQGraphicsLayout@@QAEXXZ" PURGE="0" COMMENT="" />
    <EXPORT ORDINAL="2649" NAME="??_FQGraphicsLayoutItem@@QAEXXZ" PURGE="0" COMMENT="" />
    <EXPORT ORDINAL="2650" NAME="??_FQGraphicsLineItem@@QAEXXZ" PURGE="0" COMMENT="" />
    <EXPORT ORDINAL="2651" NAME="??_FQGraphicsLinearLayout@@QAEXXZ" PURGE="0" COMMENT="" />
    <EXPORT ORDINAL="2652" NAME="??_FQGraphicsObject@@QAEXXZ" PURGE="0" COMMENT="" />
    <EXPORT ORDINAL="2653" NAME="??_FQGraphicsOpacityEffect@@QAEXXZ" PURGE="0" COMMENT="" />
    <EXPORT ORDINAL="2654" NAME="??_FQGraphicsPathItem@@QAEXXZ" PURGE="0" COMMENT="" />
    <EXPORT ORDINAL="2655" NAME="??_FQGraphicsPixmapItem@@QAEXXZ" PURGE="0" COMMENT="" />
    <EXPORT ORDINAL="2656" NAME="??_FQGraphicsPolygonItem@@QAEXXZ" PURGE="0" COMMENT="" />
    <EXPORT ORDINAL="2657" NAME="??_FQGraphicsProxyWidget@@QAEXXZ" PURGE="0" COMMENT="" />
    <EXPORT ORDINAL="2658" NAME="??_FQGraphicsRectItem@@QAEXXZ" PURGE="0" COMMENT="" />
    <EXPORT ORDINAL="2659" NAME="??_FQGraphicsRotation@@QAEXXZ" PURGE="0" COMMENT="" />
    <EXPORT ORDINAL="2660" NAME="??_FQGraphicsScale@@QAEXXZ" PURGE="0" COMMENT="" />
    <EXPORT ORDINAL="2661" NAME="??_FQGraphicsScene@@QAEXXZ" PURGE="0" COMMENT="" />
    <EXPORT ORDINAL="2662" NAME="??_FQGraphicsSceneContextMenuEvent@@QAEXXZ" PURGE="0" COMMENT="" />
    <EXPORT ORDINAL="2663" NAME="??_FQGraphicsSceneDragDropEvent@@QAEXXZ" PURGE="0" COMMENT="" />
    <EXPORT ORDINAL="2664" NAME="??_FQGraphicsSceneHelpEvent@@QAEXXZ" PURGE="0" COMMENT="" />
    <EXPORT ORDINAL="2665" NAME="??_FQGraphicsSceneHoverEvent@@QAEXXZ" PURGE="0" COMMENT="" />
    <EXPORT ORDINAL="2666" NAME="??_FQGraphicsSceneMouseEvent@@QAEXXZ" PURGE="0" COMMENT="" />
    <EXPORT ORDINAL="2667" NAME="??_FQGraphicsSceneWheelEvent@@QAEXXZ" PURGE="0" COMMENT="" />
    <EXPORT ORDINAL="2668" NAME="??_FQGraphicsSimpleTextItem@@QAEXXZ" PURGE="0" COMMENT="" />
    <EXPORT ORDINAL="2669" NAME="??_FQGraphicsSystemPlugin@@QAEXXZ" PURGE="0" COMMENT="" />
    <EXPORT ORDINAL="2670" NAME="??_FQGraphicsTextItem@@QAEXXZ" PURGE="0" COMMENT="" />
    <EXPORT ORDINAL="2671" NAME="??_FQGraphicsTransform@@QAEXXZ" PURGE="0" COMMENT="" />
    <EXPORT ORDINAL="2672" NAME="??_FQGraphicsView@@QAEXXZ" PURGE="0" COMMENT="" />
    <EXPORT ORDINAL="2673" NAME="??_FQGraphicsWidget@@QAEXXZ" PURGE="0" COMMENT="" />
    <EXPORT ORDINAL="2674" NAME="??_FQGroupBox@@QAEXXZ" PURGE="0" COMMENT="" />
    <EXPORT ORDINAL="2675" NAME="??_FQGuiPlatformPlugin@@QAEXXZ" PURGE="0" COMMENT="" />
    <EXPORT ORDINAL="2676" NAME="??_FQIconEnginePlugin@@QAEXXZ" PURGE="0" COMMENT="" />
    <EXPORT ORDINAL="2677" NAME="??_FQIconEnginePluginV2@@QAEXXZ" PURGE="0" COMMENT="" />
    <EXPORT ORDINAL="2678" NAME="??_FQIdentityProxyModel@@QAEXXZ" PURGE="0" COMMENT="" />
    <EXPORT ORDINAL="2679" NAME="??_FQImageIOPlugin@@QAEXXZ" PURGE="0" COMMENT="" />
    <EXPORT ORDINAL="2680" NAME="??_FQInputContext@@QAEXXZ" PURGE="0" COMMENT="" />
    <EXPORT ORDINAL="2681" NAME="??_FQInputContextPlugin@@QAEXXZ" PURGE="0" COMMENT="" />
    <EXPORT ORDINAL="2682" NAME="??_FQInputDialog@@QAEXXZ" PURGE="0" COMMENT="" />
    <EXPORT ORDINAL="2683" NAME="??_FQIntValidator@@QAEXXZ" PURGE="0" COMMENT="" />
    <EXPORT ORDINAL="2684" NAME="??_FQItemDelegate@@QAEXXZ" PURGE="0" COMMENT="" />
    <EXPORT ORDINAL="2685" NAME="??_FQKeyEventTransition@@QAEXXZ" PURGE="0" COMMENT="" />
    <EXPORT ORDINAL="2686" NAME="??_FQLCDNumber@@QAEXXZ" PURGE="0" COMMENT="" />
    <EXPORT ORDINAL="2687" NAME="??_FQLabel@@QAEXXZ" PURGE="0" COMMENT="" />
    <EXPORT ORDINAL="2688" NAME="??_FQLayoutItem@@QAEXXZ" PURGE="0" COMMENT="" />
    <EXPORT ORDINAL="2689" NAME="??_FQLineControl@@QAEXXZ" PURGE="0" COMMENT="" />
    <EXPORT ORDINAL="2690" NAME="??_FQLineEdit@@QAEXXZ" PURGE="0" COMMENT="" />
    <EXPORT ORDINAL="2691" NAME="??_FQListView@@QAEXXZ" PURGE="0" COMMENT="" />
    <EXPORT ORDINAL="2692" NAME="??_FQListWidget@@QAEXXZ" PURGE="0" COMMENT="" />
    <EXPORT ORDINAL="2693" NAME="??_FQListWidgetItem@@QAEXXZ" PURGE="0" COMMENT="" />
    <EXPORT ORDINAL="2694" NAME="??_FQMainWindow@@QAEXXZ" PURGE="0" COMMENT="" />
    <EXPORT ORDINAL="2695" NAME="??_FQMdiArea@@QAEXXZ" PURGE="0" COMMENT="" />
    <EXPORT ORDINAL="2696" NAME="??_FQMdiSubWindow@@QAEXXZ" PURGE="0" COMMENT="" />
    <EXPORT ORDINAL="2697" NAME="??_FQMenu@@QAEXXZ" PURGE="0" COMMENT="" />
    <EXPORT ORDINAL="2698" NAME="??_FQMenuBar@@QAEXXZ" PURGE="0" COMMENT="" />
    <EXPORT ORDINAL="2699" NAME="??_FQMessageBox@@QAEXXZ" PURGE="0" COMMENT="" />
    <EXPORT ORDINAL="2700" NAME="??_FQMotifStyle@@QAEXXZ" PURGE="0" COMMENT="" />
    <EXPORT ORDINAL="2701" NAME="??_FQMouseEventTransition@@QAEXXZ" PURGE="0" COMMENT="" />
    <EXPORT ORDINAL="2702" NAME="??_FQMovie@@QAEXXZ" PURGE="0" COMMENT="" />
    <EXPORT ORDINAL="2703" NAME="??_FQPageSetupDialog@@QAEXXZ" PURGE="0" COMMENT="" />
    <EXPORT ORDINAL="2704" NAME="??_FQPaintEngine@@QAEXXZ" PURGE="0" COMMENT="" />
    <EXPORT ORDINAL="2705" NAME="??_FQPanGesture@@QAEXXZ" PURGE="0" COMMENT="" />
    <EXPORT ORDINAL="2706" NAME="??_FQPicture@@QAEXXZ" PURGE="0" COMMENT="" />
    <EXPORT ORDINAL="2707" NAME="??_FQPictureFormatPlugin@@QAEXXZ" PURGE="0" COMMENT="" />
    <EXPORT ORDINAL="2708" NAME="??_FQPinchGesture@@QAEXXZ" PURGE="0" COMMENT="" />
    <EXPORT ORDINAL="2709" NAME="??_FQPixmapBlurFilter@@QAEXXZ" PURGE="0" COMMENT="" />
    <EXPORT ORDINAL="2710" NAME="??_FQPixmapColorizeFilter@@QAEXXZ" PURGE="0" COMMENT="" />
    <EXPORT ORDINAL="2711" NAME="??_FQPixmapConvolutionFilter@@QAEXXZ" PURGE="0" COMMENT="" />
    <EXPORT ORDINAL="2712" NAME="??_FQPixmapDropShadowFilter@@QAEXXZ" PURGE="0" COMMENT="" />
    <EXPORT ORDINAL="2713" NAME="??_FQPlainTextEdit@@QAEXXZ" PURGE="0" COMMENT="" />
    <EXPORT ORDINAL="2714" NAME="??_FQPrintDialog@@QAEXXZ" PURGE="0" COMMENT="" />
    <EXPORT ORDINAL="2715" NAME="??_FQPrintPreviewDialog@@QAEXXZ" PURGE="0" COMMENT="" />
    <EXPORT ORDINAL="2716" NAME="??_FQPrintPreviewWidget@@QAEXXZ" PURGE="0" COMMENT="" />
    <EXPORT ORDINAL="2717" NAME="??_FQPrinter@@QAEXXZ" PURGE="0" COMMENT="" />
    <EXPORT ORDINAL="2718" NAME="??_FQProgressBar@@QAEXXZ" PURGE="0" COMMENT="" />
    <EXPORT ORDINAL="2719" NAME="??_FQProgressDialog@@QAEXXZ" PURGE="0" COMMENT="" />
    <EXPORT ORDINAL="2720" NAME="??_FQProxyModel@@QAEXXZ" PURGE="0" COMMENT="" />
    <EXPORT ORDINAL="2721" NAME="??_FQProxyStyle@@QAEXXZ" PURGE="0" COMMENT="" />
    <EXPORT ORDINAL="2722" NAME="??_FQPushButton@@QAEXXZ" PURGE="0" COMMENT="" />
    <EXPORT ORDINAL="2723" NAME="??_FQRadioButton@@QAEXXZ" PURGE="0" COMMENT="" />
    <EXPORT ORDINAL="2724" NAME="??_FQRegExpValidator@@QAEXXZ" PURGE="0" COMMENT="" />
    <EXPORT ORDINAL="2725" NAME="??_FQScrollArea@@QAEXXZ" PURGE="0" COMMENT="" />
    <EXPORT ORDINAL="2726" NAME="??_FQScrollBar@@QAEXXZ" PURGE="0" COMMENT="" />
    <EXPORT ORDINAL="2727" NAME="??_FQSlider@@QAEXXZ" PURGE="0" COMMENT="" />
    <EXPORT ORDINAL="2728" NAME="??_FQSortFilterProxyModel@@QAEXXZ" PURGE="0" COMMENT="" />
    <EXPORT ORDINAL="2729" NAME="??_FQSpinBox@@QAEXXZ" PURGE="0" COMMENT="" />
    <EXPORT ORDINAL="2730" NAME="??_FQSplashScreen@@QAEXXZ" PURGE="0" COMMENT="" />
    <EXPORT ORDINAL="2731" NAME="??_FQSplitter@@QAEXXZ" PURGE="0" COMMENT="" />
    <EXPORT ORDINAL="2732" NAME="??_FQStackedWidget@@QAEXXZ" PURGE="0" COMMENT="" />
    <EXPORT ORDINAL="2733" NAME="??_FQStandardItemModel@@QAEXXZ" PURGE="0" COMMENT="" />
    <EXPORT ORDINAL="2734" NAME="??_FQStatusBar@@QAEXXZ" PURGE="0" COMMENT="" />
    <EXPORT ORDINAL="2735" NAME="??_FQStringListModel@@QAEXXZ" PURGE="0" COMMENT="" />
    <EXPORT ORDINAL="2736" NAME="??_FQStyleHintReturn@@QAEXXZ" PURGE="0" COMMENT="" />
    <EXPORT ORDINAL="2737" NAME="??_FQStyleOption@@QAEXXZ" PURGE="0" COMMENT="" />
    <EXPORT ORDINAL="2738" NAME="??_FQStyleOptionComplex@@QAEXXZ" PURGE="0" COMMENT="" />
    <EXPORT ORDINAL="2739" NAME="??_FQStylePlugin@@QAEXXZ" PURGE="0" COMMENT="" />
    <EXPORT ORDINAL="2740" NAME="??_FQStyledItemDelegate@@QAEXXZ" PURGE="0" COMMENT="" />
    <EXPORT ORDINAL="2741" NAME="??_FQSwipeGesture@@QAEXXZ" PURGE="0" COMMENT="" />
    <EXPORT ORDINAL="2742" NAME="??_FQSystemTrayIcon@@QAEXXZ" PURGE="0" COMMENT="" />
    <EXPORT ORDINAL="2743" NAME="??_FQTabBar@@QAEXXZ" PURGE="0" COMMENT="" />
    <EXPORT ORDINAL="2744" NAME="??_FQTabWidget@@QAEXXZ" PURGE="0" COMMENT="" />
    <EXPORT ORDINAL="2745" NAME="??_FQTableView@@QAEXXZ" PURGE="0" COMMENT="" />
    <EXPORT ORDINAL="2746" NAME="??_FQTableWidget@@QAEXXZ" PURGE="0" COMMENT="" />
    <EXPORT ORDINAL="2747" NAME="??_FQTableWidgetItem@@QAEXXZ" PURGE="0" COMMENT="" />
    <EXPORT ORDINAL="2748" NAME="??_FQTapAndHoldGesture@@QAEXXZ" PURGE="0" COMMENT="" />
    <EXPORT ORDINAL="2749" NAME="??_FQTapGesture@@QAEXXZ" PURGE="0" COMMENT="" />
    <EXPORT ORDINAL="2750" NAME="??_FQTextBrowser@@QAEXXZ" PURGE="0" COMMENT="" />
    <EXPORT ORDINAL="2751" NAME="??_FQTextControl@@QAEXXZ" PURGE="0" COMMENT="" />
    <EXPORT ORDINAL="2752" NAME="??_FQTextDocument@@QAEXXZ" PURGE="0" COMMENT="" />
    <EXPORT ORDINAL="2753" NAME="??_FQTextEdit@@QAEXXZ" PURGE="0" COMMENT="" />
    <EXPORT ORDINAL="2754" NAME="??_FQTimeEdit@@QAEXXZ" PURGE="0" COMMENT="" />
    <EXPORT ORDINAL="2755" NAME="??_FQToolBar@@QAEXXZ" PURGE="0" COMMENT="" />
    <EXPORT ORDINAL="2756" NAME="??_FQToolBox@@QAEXXZ" PURGE="0" COMMENT="" />
    <EXPORT ORDINAL="2757" NAME="??_FQToolButton@@QAEXXZ" PURGE="0" COMMENT="" />
    <EXPORT ORDINAL="2758" NAME="??_FQTreeView@@QAEXXZ" PURGE="0" COMMENT="" />
    <EXPORT ORDINAL="2759" NAME="??_FQTreeWidget@@QAEXXZ" PURGE="0" COMMENT="" />
    <EXPORT ORDINAL="2760" NAME="??_FQTreeWidgetItem@@QAEXXZ" PURGE="0" COMMENT="" />
    <EXPORT ORDINAL="2761" NAME="??_FQUndoCommand@@QAEXXZ" PURGE="0" COMMENT="" />
    <EXPORT ORDINAL="2762" NAME="??_FQUndoGroup@@QAEXXZ" PURGE="0" COMMENT="" />
    <EXPORT ORDINAL="2763" NAME="??_FQUndoStack@@QAEXXZ" PURGE="0" COMMENT="" />
    <EXPORT ORDINAL="2764" NAME="??_FQUndoView@@QAEXXZ" PURGE="0" COMMENT="" />
    <EXPORT ORDINAL="2765" NAME="??_FQValidator@@QAEXXZ" PURGE="0" COMMENT="" />
    <EXPORT ORDINAL="2766" NAME="??_FQWidget@@QAEXXZ" PURGE="0" COMMENT="" />
    <EXPORT ORDINAL="2767" NAME="??_FQWidgetPrivate@@QAEXXZ" PURGE="0" COMMENT="" />
    <EXPORT ORDINAL="2768" NAME="??_FQWizard@@QAEXXZ" PURGE="0" COMMENT="" />
    <EXPORT ORDINAL="2769" NAME="??_FQWizardPage@@QAEXXZ" PURGE="0" COMMENT="" />
    <EXPORT ORDINAL="2770" NAME="??_FQWorkspace@@QAEXXZ" PURGE="0" COMMENT="" />
    <EXPORT ORDINAL="2771" NAME="??_FTouchPoint@QTouchEvent@@QAEXXZ" PURGE="0" COMMENT="" />
    <EXPORT ORDINAL="2772" NAME="?CloseTouchInputHandle@QApplicationPrivate@@2P6GHPAX@ZA" PURGE="-1" COMMENT="" />
    <EXPORT ORDINAL="2773" NAME="?GetTouchInputInfo@QApplicationPrivate@@2P6GHPAXI0H@ZA" PURGE="-1" COMMENT="" />
    <EXPORT ORDINAL="2774" NAME="?HasTouchSupport@QApplicationPrivate@@2_NA" PURGE="-1" COMMENT="" />
    <EXPORT ORDINAL="2775" NAME="?RegisterTouchWindow@QApplicationPrivate@@2P6GHPAUHWND__@@K@ZA" PURGE="-1" COMMENT="" />
    <EXPORT ORDINAL="2776" NAME="?_q_clipboardChanged@QLineControl@@AAEXXZ" PURGE="0" COMMENT="" />
    <EXPORT ORDINAL="2777" NAME="?_q_columnsAboutToBeRemoved@QTreeViewPrivate@@UAEXABVQModelIndex@@HH@Z" PURGE="12" COMMENT="" />
    <EXPORT ORDINAL="2778" NAME="?_q_columnsRemoved@QTreeViewPrivate@@UAEXABVQModelIndex@@HH@Z" PURGE="12" COMMENT="" />
    <EXPORT ORDINAL="2779" NAME="?_q_deleteSelected@QLineControl@@AAEXXZ" PURGE="0" COMMENT="" />
    <EXPORT ORDINAL="2780" NAME="?_q_endAnimatedOperation@QTreeViewPrivate@@QAEXXZ" PURGE="0" COMMENT="" />
    <EXPORT ORDINAL="2781" NAME="?_q_hslide@QAbstractScrollAreaPrivate@@QAEXH@Z" PURGE="4" COMMENT="" />
    <EXPORT ORDINAL="2782" NAME="?_q_modelAboutToBeReset@QTreeViewPrivate@@QAEXXZ" PURGE="0" COMMENT="" />
    <EXPORT ORDINAL="2783" NAME="?_q_modelDestroyed@QTreeViewPrivate@@UAEXXZ" PURGE="0" COMMENT="" />
    <EXPORT ORDINAL="2784" NAME="?_q_setViewportCursor@QGraphicsViewPrivate@@QAEXABVQCursor@@@Z" PURGE="4" COMMENT="" />
    <EXPORT ORDINAL="2785" NAME="?_q_showIfNotHidden@QWidgetPrivate@@QAEXXZ" PURGE="0" COMMENT="" />
    <EXPORT ORDINAL="2786" NAME="?_q_showOrHideScrollBars@QAbstractScrollAreaPrivate@@QAEXXZ" PURGE="0" COMMENT="" />
    <EXPORT ORDINAL="2787" NAME="?_q_sortIndicatorChanged@QTreeViewPrivate@@QAEXHW4SortOrder@Qt@@@Z" PURGE="-1" COMMENT="" />
    <EXPORT ORDINAL="2788" NAME="?_q_unsetViewportCursor@QGraphicsViewPrivate@@QAEXXZ" PURGE="0" COMMENT="" />
    <EXPORT ORDINAL="2789" NAME="?_q_vslide@QAbstractScrollAreaPrivate@@QAEXH@Z" PURGE="4" COMMENT="" />
    <EXPORT ORDINAL="2790" NAME="?abort@QPrinter@@QAE_NXZ" PURGE="-1" COMMENT="" />
    <EXPORT ORDINAL="2791" NAME="?aborted@QPrinter@@QAE_NXZ" PURGE="0" COMMENT="" />
    <EXPORT ORDINAL="2792" NAME="?about@QMessageBox@@SAXPAVQWidget@@ABVQString@@1@Z" PURGE="0" COMMENT="" />
    <EXPORT ORDINAL="2793" NAME="?aboutQt@QApplication@@SAXXZ" PURGE="0" COMMENT="" />
    <EXPORT ORDINAL="2794" NAME="?aboutQt@QMessageBox@@SAXPAVQWidget@@ABVQString@@@Z" PURGE="0" COMMENT="" />
    <EXPORT ORDINAL="2795" NAME="?aboutToActivate@QMdiSubWindow@@IAEXXZ" PURGE="0" COMMENT="" />
    <EXPORT ORDINAL="2796" NAME="?aboutToDestroy@QPaintBufferSignalProxy@@IAEXPBVQPaintBufferPrivate@@@Z" PURGE="4" COMMENT="" />
    <EXPORT ORDINAL="2797" NAME="?aboutToDestroy@QWidgetPrivate@@UAEXXZ" PURGE="0" COMMENT="" />
    <EXPORT ORDINAL="2798" NAME="?aboutToHide@QMenu@@IAEXXZ" PURGE="0" COMMENT="" />
    <EXPORT ORDINAL="2799" NAME="?aboutToShow@QMenu@@IAEXXZ" PURGE="0" COMMENT="" />
    <EXPORT ORDINAL="2800" NAME="?above@QTreeViewPrivate@@QBEHH@Z" PURGE="4" COMMENT="" />
    <EXPORT ORDINAL="2801" NAME="?accel@QAbstractButton@@QBE?AVQKeySequence@@XZ" PURGE="4" COMMENT="" />
    <EXPORT ORDINAL="2802" NAME="?accel@QAction@@QBE?AVQKeySequence@@XZ" PURGE="4" COMMENT="" />
    <EXPORT ORDINAL="2803" NAME="?accel@QMenu@@QBE?AVQKeySequence@@H@Z" PURGE="8" COMMENT="" />
    <EXPORT ORDINAL="2804" NAME="?accel@QMenuBar@@QBE?AVQKeySequence@@H@Z" PURGE="8" COMMENT="" />
    <EXPORT ORDINAL="2805" NAME="?acceleration@QPanGesture@@QBENXZ" PURGE="0" COMMENT="" />
    <EXPORT ORDINAL="2806" NAME="?accept@QDialog@@UAEXXZ" PURGE="0" COMMENT="" />
    <EXPORT ORDINAL="2807" NAME="?accept@QDragMoveEvent@@QAEXABVQRect@@@Z" PURGE="4" COMMENT="" />
    <EXPORT ORDINAL="2808" NAME="?accept@QDragMoveEvent@@QAEXXZ" PURGE="-1" COMMENT="" />
    <EXPORT ORDINAL="2809" NAME="?accept@QDragMoveEvent@@QAEX_N@Z" PURGE="-1" COMMENT="" />
    <EXPORT ORDINAL="2810" NAME="?accept@QDropEvent@@QAEXXZ" PURGE="-1" COMMENT="" />
    <EXPORT ORDINAL="2811" NAME="?accept@QDropEvent@@QAEX_N@Z" PURGE="-1" COMMENT="" />
    <EXPORT ORDINAL="2812" NAME="?accept@QFileDialog@@MAEXXZ" PURGE="0" COMMENT="" />
    <EXPORT ORDINAL="2813" NAME="?accept@QGestureEvent@@QAEXPAVQGesture@@@Z" PURGE="4" COMMENT="" />
    <EXPORT ORDINAL="2814" NAME="?accept@QGestureEvent@@QAEXW4GestureType@Qt@@@Z" PURGE="4" COMMENT="" />
    <EXPORT ORDINAL="2815" NAME="?acceptAction@QDropEvent@@QAEX_N@Z" PURGE="4" COMMENT="" />
    <EXPORT ORDINAL="2816" NAME="?acceptDrops@QGraphicsItem@@QBE_NXZ" PURGE="0" COMMENT="" />
    <EXPORT ORDINAL="2817" NAME="?acceptDrops@QWidget@@QBE_NXZ" PURGE="0" COMMENT="" />
    <EXPORT ORDINAL="2818" NAME="?acceptHoverEvents@QGraphicsItem@@QBE_NXZ" PURGE="0" COMMENT="" />
    <EXPORT ORDINAL="2819" NAME="?acceptMode@QFileDialog@@QBE?AW4AcceptMode@1@XZ" PURGE="0" COMMENT="" />
    <EXPORT ORDINAL="2820" NAME="?acceptProposedAction@QDropEvent@@QAEXXZ" PURGE="-1" COMMENT="" />
    <EXPORT ORDINAL="2821" NAME="?acceptProposedAction@QGraphicsSceneDragDropEvent@@QAEXXZ" PURGE="0" COMMENT="" />
    <EXPORT ORDINAL="2822" NAME="?acceptRichText@QTextControl@@QBE_NXZ" PURGE="0" COMMENT="" />
    <EXPORT ORDINAL="2823" NAME="?acceptRichText@QTextEdit@@QBE_NXZ" PURGE="0" COMMENT="" />
    <EXPORT ORDINAL="2824" NAME="?acceptTouchEvents@QGraphicsItem@@QBE_NXZ" PURGE="0" COMMENT="" />
    <EXPORT ORDINAL="2825" NAME="?accepted@QDialog@@IAEXXZ" PURGE="0" COMMENT="" />
    <EXPORT ORDINAL="2826" NAME="?accepted@QDialogButtonBox@@IAEXXZ" PURGE="0" COMMENT="" />
    <EXPORT ORDINAL="2827" NAME="?accepted@QLineControl@@IAEXXZ" PURGE="0" COMMENT="" />
    <EXPORT ORDINAL="2828" NAME="?accepted@QPrintDialog@@IAEXPAVQPrinter@@@Z" PURGE="4" COMMENT="" />
    <EXPORT ORDINAL="2829" NAME="?acceptedMouseButtons@QGraphicsItem@@QBE?AV?$QFlags@W4MouseButton@Qt@@@@XZ" PURGE="4" COMMENT="" />
    <EXPORT ORDINAL="2830" NAME="?acceptsHoverEvents@QGraphicsItem@@QBE_NXZ" PURGE="0" COMMENT="" />
    <EXPORT ORDINAL="2831" NAME="?accessibleDescription@QStandardItem@@QBE?AVQString@@XZ" PURGE="4" COMMENT="" />
    <EXPORT ORDINAL="2832" NAME="?accessibleDescription@QWidget@@QBE?AVQString@@XZ" PURGE="4" COMMENT="" />
    <EXPORT ORDINAL="2833" NAME="?accessibleName@QWidget@@QBE?AVQString@@XZ" PURGE="4" COMMENT="" />
    <EXPORT ORDINAL="2834" NAME="?accessibleTable2Index@QTreeViewPrivate@@QBEHABVQModelIndex@@@Z" PURGE="4" COMMENT="" />
    <EXPORT ORDINAL="2835" NAME="?accessibleText@QStandardItem@@QBE?AVQString@@XZ" PURGE="4" COMMENT="" />
    <EXPORT ORDINAL="2836" NAME="?action@QActionEvent@@QBEPAVQAction@@XZ" PURGE="0" COMMENT="" />
    <EXPORT ORDINAL="2837" NAME="?action@QDropEvent@@QBE?AW4Action@1@XZ" PURGE="0" COMMENT="" />
    <EXPORT ORDINAL="2838" NAME="?actionAt@QMenu@@QBEPAVQAction@@ABVQPoint@@@Z" PURGE="4" COMMENT="" />
    <EXPORT ORDINAL="2839" NAME="?actionAt@QMenuBar@@QBEPAVQAction@@ABVQPoint@@@Z" PURGE="4" COMMENT="" />
    <EXPORT ORDINAL="2840" NAME="?actionAt@QToolBar@@QBEPAVQAction@@ABVQPoint@@@Z" PURGE="4" COMMENT="" />
    <EXPORT ORDINAL="2841" NAME="?actionAt@QToolBar@@QBEPAVQAction@@HH@Z" PURGE="8" COMMENT="" />
    <EXPORT ORDINAL="2842" NAME="?actionChanged@QDrag@@IAEXW4DropAction@Qt@@@Z" PURGE="4" COMMENT="" />
    <EXPORT ORDINAL="2843" NAME="?actionEvent@QMenu@@MAEXPAVQActionEvent@@@Z" PURGE="4" COMMENT="" />
    <EXPORT ORDINAL="2844" NAME="?actionEvent@QMenuBar@@MAEXPAVQActionEvent@@@Z" PURGE="4" COMMENT="" />
    <EXPORT ORDINAL="2845" NAME="?actionEvent@QToolBar@@MAEXPAVQActionEvent@@@Z" PURGE="4" COMMENT="" />
    <EXPORT ORDINAL="2846" NAME="?actionEvent@QToolButton@@MAEXPAVQActionEvent@@@Z" PURGE="4" COMMENT="" />
    <EXPORT ORDINAL="2847" NAME="?actionEvent@QWidget@@MAEXPAVQActionEvent@@@Z" PURGE="4" COMMENT="" />
    <EXPORT ORDINAL="2848" NAME="?actionGeometry@QMenu@@QBE?AVQRect@@PAVQAction@@@Z" PURGE="8" COMMENT="" />
    <EXPORT ORDINAL="2849" NAME="?actionGeometry@QMenuBar@@QBE?AVQRect@@PAVQAction@@@Z" PURGE="8" COMMENT="" />
    <EXPORT ORDINAL="2850" NAME="?actionGeometry@QToolBar@@QBE?AVQRect@@PAVQAction@@@Z" PURGE="8" COMMENT="" />
    <EXPORT ORDINAL="2851" NAME="?actionGroup@QAction@@QBEPAVQActionGroup@@XZ" PURGE="0" COMMENT="" />
    <EXPORT ORDINAL="2852" NAME="?actionInterface@QAccessibleInterface@@QAEPAVQAccessibleActionInterface@@XZ" PURGE="0" COMMENT="" />
    <EXPORT ORDINAL="2853" NAME="?actionText@QAccessibleApplication@@UBE?AVQString@@HW4Text@QAccessible@@H@Z" PURGE="16" COMMENT="" />
    <EXPORT ORDINAL="2854" NAME="?actionText@QAccessibleObject@@UBE?AVQString@@HW4Text@QAccessible@@H@Z" PURGE="16" COMMENT="" />
    <EXPORT ORDINAL="2855" NAME="?actionText@QAccessibleObjectEx@@UBE?AVQString@@HW4Text@QAccessible@@H@Z" PURGE="16" COMMENT="" />
    <EXPORT ORDINAL="2856" NAME="?actionText@QAccessibleWidget@@UBE?AVQString@@HW4Text@QAccessible@@H@Z" PURGE="16" COMMENT="" />
    <EXPORT ORDINAL="2857" NAME="?actionText@QAccessibleWidgetEx@@UBE?AVQString@@HW4Text@QAccessible@@H@Z" PURGE="16" COMMENT="" />
    <EXPORT ORDINAL="2858" NAME="?actionText@QUndoCommand@@QBE?AVQString@@XZ" PURGE="4" COMMENT="" />
    <EXPORT ORDINAL="2859" NAME="?actionTriggered@QAbstractSlider@@IAEXH@Z" PURGE="4" COMMENT="" />
    <EXPORT ORDINAL="2860" NAME="?actionTriggered@QToolBar@@IAEXPAVQAction@@@Z" PURGE="4" COMMENT="" />
    <EXPORT ORDINAL="2861" NAME="?actions@QActionGroup@@QBE?AV?$QList@PAVQAction@@@@XZ" PURGE="4" COMMENT="" />
    <EXPORT ORDINAL="2862" NAME="?actions@QGraphicsWidget@@QBE?AV?$QList@PAVQAction@@@@XZ" PURGE="4" COMMENT="" />
    <EXPORT ORDINAL="2863" NAME="?actions@QInputContext@@UAE?AV?$QList@PAVQAction@@@@XZ" PURGE="4" COMMENT="" />
    <EXPORT ORDINAL="2864" NAME="?actions@QWidget@@QBE?AV?$QList@PAVQAction@@@@XZ" PURGE="4" COMMENT="" />
    <EXPORT ORDINAL="2865" NAME="?activate@QAction@@QAEXW4ActionEvent@1@@Z" PURGE="4" COMMENT="" />
    <EXPORT ORDINAL="2866" NAME="?activate@QGraphicsLayout@@QAEXXZ" PURGE="0" COMMENT="" />
    <EXPORT ORDINAL="2867" NAME="?activate@QLayout@@QAE_NXZ" PURGE="0" COMMENT="" />
    <EXPORT ORDINAL="2868" NAME="?activate@QWidgetResizeHandler@@IAEXXZ" PURGE="0" COMMENT="" />
    <EXPORT ORDINAL="2869" NAME="?activateChildLayoutsRecursively@QWidgetPrivate@@QAEXXZ" PURGE="0" COMMENT="" />
    <EXPORT ORDINAL="2870" NAME="?activateItemAt@QMenu@@QAEXH@Z" PURGE="4" COMMENT="" />
    <EXPORT ORDINAL="2871" NAME="?activateItemAt@QMenuBar@@QAEXH@Z" PURGE="4" COMMENT="" />
    <EXPORT ORDINAL="2872" NAME="?activateNextSubWindow@QMdiArea@@QAEXXZ" PURGE="0" COMMENT="" />
    <EXPORT ORDINAL="2873" NAME="?activateNextWindow@QWorkspace@@QAEXXZ" PURGE="0" COMMENT="" />
    <EXPORT ORDINAL="2874" NAME="?activatePreviousSubWindow@QMdiArea@@QAEXXZ" PURGE="0" COMMENT="" />
    <EXPORT ORDINAL="2875" NAME="?activatePreviousWindow@QWorkspace@@QAEXXZ" PURGE="0" COMMENT="" />
    <EXPORT ORDINAL="2876" NAME="?activateRecursiveHelper@QLayout@@CAXPAVQLayoutItem@@@Z" PURGE="0" COMMENT="" />
    <EXPORT ORDINAL="2877" NAME="?activateWindow@QWidget@@QAEXXZ" PURGE="0" COMMENT="" />
    <EXPORT ORDINAL="2878" NAME="?activated@QAbstractItemView@@IAEXABVQModelIndex@@@Z" PURGE="4" COMMENT="" />
    <EXPORT ORDINAL="2879" NAME="?activated@QAction@@IAEXH@Z" PURGE="4" COMMENT="" />
    <EXPORT ORDINAL="2880" NAME="?activated@QCalendarWidget@@IAEXABVQDate@@@Z" PURGE="4" COMMENT="" />
    <EXPORT ORDINAL="2881" NAME="?activated@QComboBox@@IAEXABVQString@@@Z" PURGE="4" COMMENT="" />
    <EXPORT ORDINAL="2882" NAME="?activated@QComboBox@@IAEXH@Z" PURGE="4" COMMENT="" />
    <EXPORT ORDINAL="2883" NAME="?activated@QCompleter@@IAEXABVQModelIndex@@@Z" PURGE="4" COMMENT="" />
    <EXPORT ORDINAL="2884" NAME="?activated@QCompleter@@IAEXABVQString@@@Z" PURGE="4" COMMENT="" />
    <EXPORT ORDINAL="2885" NAME="?activated@QMenu@@IAEXH@Z" PURGE="4" COMMENT="" />
    <EXPORT ORDINAL="2886" NAME="?activated@QMenuBar@@IAEXH@Z" PURGE="4" COMMENT="" />
    <EXPORT ORDINAL="2887" NAME="?activated@QShortcut@@IAEXXZ" PURGE="0" COMMENT="" />
    <EXPORT ORDINAL="2888" NAME="?activated@QSystemTrayIcon@@IAEXW4ActivationReason@1@@Z" PURGE="4" COMMENT="" />
    <EXPORT ORDINAL="2889" NAME="?activatedAmbiguously@QShortcut@@IAEXXZ" PURGE="0" COMMENT="" />
    <EXPORT ORDINAL="2890" NAME="?activationOrder@QMdiArea@@QBE?AW4WindowOrder@1@XZ" PURGE="0" COMMENT="" />
    <EXPORT ORDINAL="2891" NAME="?active@QPalette@@QBE?AVQColorGroup@@XZ" PURGE="4" COMMENT="" />
    <EXPORT ORDINAL="2892" NAME="?activeAction@QMenu@@QBEPAVQAction@@XZ" PURGE="0" COMMENT="" />
    <EXPORT ORDINAL="2893" NAME="?activeAction@QMenuBar@@QBEPAVQAction@@XZ" PURGE="0" COMMENT="" />
    <EXPORT ORDINAL="2894" NAME="?activeGestures@QGestureEvent@@QBE?AV?$QList@PAVQGesture@@@@XZ" PURGE="4" COMMENT="" />
    <EXPORT ORDINAL="2895" NAME="?activeModalWidget@QApplication@@SAPAVQWidget@@XZ" PURGE="0" COMMENT="" />
    <EXPORT ORDINAL="2896" NAME="?activePanel@QGraphicsScene@@QBEPAVQGraphicsItem@@XZ" PURGE="0" COMMENT="" />
    <EXPORT ORDINAL="2897" NAME="?activePopupWidget@QApplication@@SAPAVQWidget@@XZ" PURGE="0" COMMENT="" />
    <EXPORT ORDINAL="2898" NAME="?activeStack@QUndoGroup@@QBEPAVQUndoStack@@XZ" PURGE="0" COMMENT="" />
    <EXPORT ORDINAL="2899" NAME="?activeStackChanged@QUndoGroup@@IAEXPAVQUndoStack@@@Z" PURGE="4" COMMENT="" />
    <EXPORT ORDINAL="2900" NAME="?activeSubWindow@QMdiArea@@QBEPAVQMdiSubWindow@@XZ" PURGE="0" COMMENT="" />
    <EXPORT ORDINAL="2901" NAME="?activeWindow@QApplication@@SAPAVQWidget@@XZ" PURGE="0" COMMENT="" />
    <EXPORT ORDINAL="2902" NAME="?activeWindow@QGraphicsScene@@QBEPAVQGraphicsWidget@@XZ" PURGE="0" COMMENT="" />
    <EXPORT ORDINAL="2903" NAME="?activeWindow@QWorkspace@@QBEPAVQWidget@@XZ" PURGE="0" COMMENT="" />
    <EXPORT ORDINAL="2904" NAME="?active_window@QApplicationPrivate@@2PAVQWidget@@A" PURGE="-1" COMMENT="" />
    <EXPORT ORDINAL="2905" NAME="?actualNumCopies@QPrinter@@QBEHXZ" PURGE="0" COMMENT="" />
    <EXPORT ORDINAL="2906" NAME="?actualSize@QIcon@@QBE?AVQSize@@ABV2@W4Mode@1@W4State@1@@Z" PURGE="16" COMMENT="" />
    <EXPORT ORDINAL="2907" NAME="?actualSize@QIconEngine@@UAE?AVQSize@@ABV2@W4Mode@QIcon@@W4State@4@@Z" PURGE="16" COMMENT="" />
    <EXPORT ORDINAL="2908" NAME="?add@QActionGroup@@QAEXPAVQAction@@@Z" PURGE="4" COMMENT="" />
    <EXPORT ORDINAL="2909" NAME="?add@QLayout@@QAEXPAVQWidget@@@Z" PURGE="4" COMMENT="" />
    <EXPORT ORDINAL="2910" NAME="?add@QTextList@@QAEXABVQTextBlock@@@Z" PURGE="4" COMMENT="" />
    <EXPORT ORDINAL="2911" NAME="?add@QToolTip@@SAXPAVQWidget@@ABVQRect@@ABVQString@@@Z" PURGE="0" COMMENT="" />
    <EXPORT ORDINAL="2912" NAME="?add@QToolTip@@SAXPAVQWidget@@ABVQString@@@Z" PURGE="0" COMMENT="" />
    <EXPORT ORDINAL="2913" NAME="?add@QWhatsThis@@SAXPAVQWidget@@ABVQString@@@Z" PURGE="0" COMMENT="" />
    <EXPORT ORDINAL="2914" NAME="?addAction@QActionGroup@@QAEPAVQAction@@ABVQIcon@@ABVQString@@@Z" PURGE="8" COMMENT="" />
    <EXPORT ORDINAL="2915" NAME="?addAction@QActionGroup@@QAEPAVQAction@@ABVQString@@@Z" PURGE="4" COMMENT="" />
    <EXPORT ORDINAL="2916" NAME="?addAction@QActionGroup@@QAEPAVQAction@@PAV2@@Z" PURGE="4" COMMENT="" />
    <EXPORT ORDINAL="2917" NAME="?addAction@QGraphicsWidget@@QAEXPAVQAction@@@Z" PURGE="4" COMMENT="" />
    <EXPORT ORDINAL="2918" NAME="?addAction@QMenu@@QAEPAVQAction@@ABVQIcon@@ABVQString@@@Z" PURGE="8" COMMENT="" />
    <EXPORT ORDINAL="2919" NAME="?addAction@QMenu@@QAEPAVQAction@@ABVQIcon@@ABVQString@@PBVQObject@@PBDABVQKeySequence@@@Z" PURGE="20" COMMENT="" />
    <EXPORT ORDINAL="2920" NAME="?addAction@QMenu@@QAEPAVQAction@@ABVQString@@@Z" PURGE="4" COMMENT="" />
    <EXPORT ORDINAL="2921" NAME="?addAction@QMenu@@QAEPAVQAction@@ABVQString@@PBVQObject@@PBDABVQKeySequence@@@Z" PURGE="16" COMMENT="" />
    <EXPORT ORDINAL="2922" NAME="?addAction@QMenuBar@@QAEPAVQAction@@ABVQString@@@Z" PURGE="4" COMMENT="" />
    <EXPORT ORDINAL="2923" NAME="?addAction@QMenuBar@@QAEPAVQAction@@ABVQString@@PBVQObject@@PBD@Z" PURGE="12" COMMENT="" />
    <EXPORT ORDINAL="2924" NAME="?addAction@QToolBar@@QAEPAVQAction@@ABVQIcon@@ABVQString@@@Z" PURGE="8" COMMENT="" />
    <EXPORT ORDINAL="2925" NAME="?addAction@QToolBar@@QAEPAVQAction@@ABVQIcon@@ABVQString@@PBVQObject@@PBD@Z" PURGE="16" COMMENT="" />
    <EXPORT ORDINAL="2926" NAME="?addAction@QToolBar@@QAEPAVQAction@@ABVQString@@@Z" PURGE="4" COMMENT="" />
    <EXPORT ORDINAL="2927" NAME="?addAction@QToolBar@@QAEPAVQAction@@ABVQString@@PBVQObject@@PBD@Z" PURGE="12" COMMENT="" />
    <EXPORT ORDINAL="2928" NAME="?addAction@QWidget@@QAEXPAVQAction@@@Z" PURGE="4" COMMENT="" />
    <EXPORT ORDINAL="2929" NAME="?addActions@QGraphicsWidget@@QAEXV?$QList@PAVQAction@@@@@Z" PURGE="4" COMMENT="" />
    <EXPORT ORDINAL="2930" NAME="?addActions@QWidget@@QAEXV?$QList@PAVQAction@@@@@Z" PURGE="4" COMMENT="" />
    <EXPORT ORDINAL="2931" NAME="?addAnchor@QGraphicsAnchorLayout@@QAEPAVQGraphicsAnchor@@PAVQGraphicsLayoutItem@@W4AnchorPoint@Qt@@01@Z" PURGE="16" COMMENT="" />
    <EXPORT ORDINAL="2932" NAME="?addAnchors@QGraphicsAnchorLayout@@QAEXPAVQGraphicsLayoutItem@@0V?$QFlags@W4Orientation@Qt@@@@@Z" PURGE="12" COMMENT="" />
    <EXPORT ORDINAL="2933" NAME="?addApplicationFont@QFontDatabase@@SAHABVQString@@@Z" PURGE="0" COMMENT="" />
    <EXPORT ORDINAL="2934" NAME="?addApplicationFontFromData@QFontDatabase@@SAHABVQByteArray@@@Z" PURGE="0" COMMENT="" />
    <EXPORT ORDINAL="2935" NAME="?addBitmapFontToPath@QFontEngine@@QAEXNNABUQGlyphLayout@@PAVQPainterPath@@V?$QFlags@W4RenderFlag@QTextItem@@@@@Z" PURGE="28" COMMENT="" />
    <EXPORT ORDINAL="2936" NAME="?addButton@QButtonGroup@@QAEXPAVQAbstractButton@@@Z" PURGE="4" COMMENT="" />
    <EXPORT ORDINAL="2937" NAME="?addButton@QButtonGroup@@QAEXPAVQAbstractButton@@H@Z" PURGE="8" COMMENT="" />
    <EXPORT ORDINAL="2938" NAME="?addButton@QDialogButtonBox@@QAEPAVQPushButton@@ABVQString@@W4ButtonRole@1@@Z" PURGE="8" COMMENT="" />
    <EXPORT ORDINAL="2939" NAME="?addButton@QDialogButtonBox@@QAEPAVQPushButton@@W4StandardButton@1@@Z" PURGE="4" COMMENT="" />
    <EXPORT ORDINAL="2940" NAME="?addButton@QDialogButtonBox@@QAEXPAVQAbstractButton@@W4ButtonRole@1@@Z" PURGE="8" COMMENT="" />
    <EXPORT ORDINAL="2941" NAME="?addButton@QMessageBox@@QAEPAVQPushButton@@ABVQString@@W4ButtonRole@1@@Z" PURGE="8" COMMENT="" />
    <EXPORT ORDINAL="2942" NAME="?addButton@QMessageBox@@QAEPAVQPushButton@@W4StandardButton@1@@Z" PURGE="4" COMMENT="" />
    <EXPORT ORDINAL="2943" NAME="?addButton@QMessageBox@@QAEXPAVQAbstractButton@@W4ButtonRole@1@@Z" PURGE="8" COMMENT="" />
    <EXPORT ORDINAL="2944" NAME="?addCacheData@QVectorPath@@QBEPAUCacheEntry@1@PAVQPaintEngineEx@@PAXP6AX01@Z@Z" PURGE="12" COMMENT="" />
    <EXPORT ORDINAL="2945" NAME="?addChild@QGraphicsItemPrivate@@QAEXPAVQGraphicsItem@@@Z" PURGE="4" COMMENT="" />
    <EXPORT ORDINAL="2946" NAME="?addChild@QTreeWidgetItem@@QAEXPAV1@@Z" PURGE="4" COMMENT="" />
    <EXPORT ORDINAL="2947" NAME="?addChildLayout@QLayout@@IAEXPAV1@@Z" PURGE="4" COMMENT="" />
    <EXPORT ORDINAL="2948" NAME="?addChildLayoutItem@QGraphicsLayout@@IAEXPAVQGraphicsLayoutItem@@@Z" PURGE="4" COMMENT="" />
    <EXPORT ORDINAL="2949" NAME="?addChildWidget@QLayout@@IAEXPAVQWidget@@@Z" PURGE="4" COMMENT="" />
    <EXPORT ORDINAL="2950" NAME="?addChildren@QTreeWidgetItem@@QAEXABV?$QList@PAVQTreeWidgetItem@@@@@Z" PURGE="4" COMMENT="" />
    <EXPORT ORDINAL="2951" NAME="?addColSpacing@QGridLayout@@QAEXHH@Z" PURGE="8" COMMENT="" />
    <EXPORT ORDINAL="2952" NAME="?addCommand@QLineControl@@AAEXABUCommand@1@@Z" PURGE="4" COMMENT="" />
    <EXPORT ORDINAL="2953" NAME="?addControllingSignal@QAccessibleWidget@@IAEXABVQString@@@Z" PURGE="4" COMMENT="" />
    <EXPORT ORDINAL="2954" NAME="?addControllingSignal@QAccessibleWidgetEx@@IAEXABVQString@@@Z" PURGE="4" COMMENT="" />
    <EXPORT ORDINAL="2955" NAME="?addCornerAnchors@QGraphicsAnchorLayout@@QAEXPAVQGraphicsLayoutItem@@W4Corner@Qt@@01@Z" PURGE="16" COMMENT="" />
    <EXPORT ORDINAL="2956" NAME="?addDirectory@QZipWriter@@QAEXABVQString@@@Z" PURGE="4" COMMENT="" />
    <EXPORT ORDINAL="2957" NAME="?addDockWidget@QMainWindow@@QAEXW4DockWidgetArea@Qt@@PAVQDockWidget@@@Z" PURGE="8" COMMENT="" />
    <EXPORT ORDINAL="2958" NAME="?addDockWidget@QMainWindow@@QAEXW4DockWidgetArea@Qt@@PAVQDockWidget@@W4Orientation@3@@Z" PURGE="12" COMMENT="" />
    <EXPORT ORDINAL="2959" NAME="?addEllipse@QGraphicsScene@@QAEPAVQGraphicsEllipseItem@@ABVQRectF@@ABVQPen@@ABVQBrush@@@Z" PURGE="12" COMMENT="" />
    <EXPORT ORDINAL="2960" NAME="?addEllipse@QGraphicsScene@@QAEPAVQGraphicsEllipseItem@@NNNNABVQPen@@ABVQBrush@@@Z" PURGE="40" COMMENT="" />
    <EXPORT ORDINAL="2961" NAME="?addEllipse@QPainterPath@@QAEXABVQPointF@@NN@Z" PURGE="20" COMMENT="" />
    <EXPORT ORDINAL="2962" NAME="?addEllipse@QPainterPath@@QAEXABVQRectF@@@Z" PURGE="4" COMMENT="" />
    <EXPORT ORDINAL="2963" NAME="?addEllipse@QPainterPath@@QAEXNNNN@Z" PURGE="32" COMMENT="" />
    <EXPORT ORDINAL="2964" NAME="?addEnabledOption@QAbstractPrintDialog@@QAEXW4PrintDialogOption@1@@Z" PURGE="4" COMMENT="" />
    <EXPORT ORDINAL="2965" NAME="?addEnabledOption@QPageSetupDialog@@QAEXW4PageSetupDialogOption@1@@Z" PURGE="4" COMMENT="" />
    <EXPORT ORDINAL="2966" NAME="?addFile@QIcon@@QAEXABVQString@@ABVQSize@@W4Mode@1@W4State@1@@Z" PURGE="16" COMMENT="" />
    <EXPORT ORDINAL="2967" NAME="?addFile@QIconEngine@@UAEXABVQString@@ABVQSize@@W4Mode@QIcon@@W4State@5@@Z" PURGE="16" COMMENT="" />
    <EXPORT ORDINAL="2968" NAME="?addFile@QZipWriter@@QAEXABVQString@@ABVQByteArray@@@Z" PURGE="8" COMMENT="" />
    <EXPORT ORDINAL="2969" NAME="?addFile@QZipWriter@@QAEXABVQString@@PAVQIODevice@@@Z" PURGE="8" COMMENT="" />
    <EXPORT ORDINAL="2970" NAME="?addGlyphsToPath@QFontEngine@@UAEXPAIPAUQFixedPoint@@HPAVQPainterPath@@V?$QFlags@W4RenderFlag@QTextItem@@@@@Z" PURGE="20" COMMENT="" />
    <EXPORT ORDINAL="2971" NAME="?addIfClose@QBezier@@QBEXPANN@Z" PURGE="12" COMMENT="" />
    <EXPORT ORDINAL="2972" NAME="?addImageHook@QImagePixmapCleanupHooks@@QAEXP6AX_J@Z@Z" PURGE="4" COMMENT="" />
    <EXPORT ORDINAL="2973" NAME="?addItem@QBoxLayout@@UAEXPAVQLayoutItem@@@Z" PURGE="4" COMMENT="" />
    <EXPORT ORDINAL="2974" NAME="?addItem@QComboBox@@QAEXABVQIcon@@ABVQString@@ABVQVariant@@@Z" PURGE="12" COMMENT="" />
    <EXPORT ORDINAL="2975" NAME="?addItem@QComboBox@@QAEXABVQString@@ABVQVariant@@@Z" PURGE="8" COMMENT="" />
    <EXPORT ORDINAL="2976" NAME="?addItem@QDockWidgetLayout@@UAEXPAVQLayoutItem@@@Z" PURGE="4" COMMENT="" />
    <EXPORT ORDINAL="2977" NAME="?addItem@QFormLayout@@UAEXPAVQLayoutItem@@@Z" PURGE="4" COMMENT="" />
    <EXPORT ORDINAL="2978" NAME="?addItem@QGraphicsGridLayout@@QAEXPAVQGraphicsLayoutItem@@HHHHV?$QFlags@W4AlignmentFlag@Qt@@@@@Z" PURGE="24" COMMENT="" />
    <EXPORT ORDINAL="2979" NAME="?addItem@QGraphicsGridLayout@@QAEXPAVQGraphicsLayoutItem@@HHV?$QFlags@W4AlignmentFlag@Qt@@@@@Z" PURGE="16" COMMENT="" />
    <EXPORT ORDINAL="2980" NAME="?addItem@QGraphicsLinearLayout@@QAEXPAVQGraphicsLayoutItem@@@Z" PURGE="4" COMMENT="" />
    <EXPORT ORDINAL="2981" NAME="?addItem@QGraphicsScene@@QAEXPAVQGraphicsItem@@@Z" PURGE="4" COMMENT="" />
    <EXPORT ORDINAL="2982" NAME="?addItem@QGridLayout@@MAEXPAVQLayoutItem@@@Z" PURGE="4" COMMENT="" />
    <EXPORT ORDINAL="2983" NAME="?addItem@QGridLayout@@QAEXPAVQLayoutItem@@HHHHV?$QFlags@W4AlignmentFlag@Qt@@@@@Z" PURGE="24" COMMENT="" />
    <EXPORT ORDINAL="2984" NAME="?addItem@QListWidget@@QAEXABVQString@@@Z" PURGE="4" COMMENT="" />
    <EXPORT ORDINAL="2985" NAME="?addItem@QListWidget@@QAEXPAVQListWidgetItem@@@Z" PURGE="4" COMMENT="" />
    <EXPORT ORDINAL="2986" NAME="?addItem@QStackedLayout@@UAEXPAVQLayoutItem@@@Z" PURGE="4" COMMENT="" />
    <EXPORT ORDINAL="2987" NAME="?addItem@QToolBox@@QAEHPAVQWidget@@ABVQIcon@@ABVQString@@@Z" PURGE="12" COMMENT="" />
    <EXPORT ORDINAL="2988" NAME="?addItem@QToolBox@@QAEHPAVQWidget@@ABVQString@@@Z" PURGE="8" COMMENT="" />
    <EXPORT ORDINAL="2989" NAME="?addItems@QComboBox@@QAEXABVQStringList@@@Z" PURGE="4" COMMENT="" />
    <EXPORT ORDINAL="2990" NAME="?addItems@QListWidget@@QAEXABVQStringList@@@Z" PURGE="4" COMMENT="" />
    <EXPORT ORDINAL="2991" NAME="?addLayout@QBoxLayout@@QAEXPAVQLayout@@H@Z" PURGE="8" COMMENT="" />
    <EXPORT ORDINAL="2992" NAME="?addLayout@QGridLayout@@QAEXPAVQLayout@@HHHHV?$QFlags@W4AlignmentFlag@Qt@@@@@Z" PURGE="24" COMMENT="" />
    <EXPORT ORDINAL="2993" NAME="?addLayout@QGridLayout@@QAEXPAVQLayout@@HHV?$QFlags@W4AlignmentFlag@Qt@@@@@Z" PURGE="16" COMMENT="" />
    <EXPORT ORDINAL="2994" NAME="?addLine@QAbstractSlider@@QAEXXZ" PURGE="0" COMMENT="" />
    <EXPORT ORDINAL="2995" NAME="?addLine@QGraphicsScene@@QAEPAVQGraphicsLineItem@@ABVQLineF@@ABVQPen@@@Z" PURGE="8" COMMENT="" />
    <EXPORT ORDINAL="2996" NAME="?addLine@QGraphicsScene@@QAEPAVQGraphicsLineItem@@NNNNABVQPen@@@Z" PURGE="36" COMMENT="" />
    <EXPORT ORDINAL="2997" NAME="?addMapping@QDataWidgetMapper@@QAEXPAVQWidget@@H@Z" PURGE="8" COMMENT="" />
    <EXPORT ORDINAL="2998" NAME="?addMapping@QDataWidgetMapper@@QAEXPAVQWidget@@HABVQByteArray@@@Z" PURGE="12" COMMENT="" />
    <EXPORT ORDINAL="2999" NAME="?addMenu@QMenu@@QAEPAV1@ABVQIcon@@ABVQString@@@Z" PURGE="8" COMMENT="" />
    <EXPORT ORDINAL="3000" NAME="?addMenu@QMenu@@QAEPAV1@ABVQString@@@Z" PURGE="4" COMMENT="" />
    <EXPORT ORDINAL="3001" NAME="?addMenu@QMenu@@QAEPAVQAction@@PAV1@@Z" PURGE="4" COMMENT="" />
    <EXPORT ORDINAL="3002" NAME="?addMenu@QMenuBar@@QAEPAVQAction@@PAVQMenu@@@Z" PURGE="4" COMMENT="" />
    <EXPORT ORDINAL="3003" NAME="?addMenu@QMenuBar@@QAEPAVQMenu@@ABVQIcon@@ABVQString@@@Z" PURGE="8" COMMENT="" />
    <EXPORT ORDINAL="3004" NAME="?addMenu@QMenuBar@@QAEPAVQMenu@@ABVQString@@@Z" PURGE="4" COMMENT="" />
    <EXPORT ORDINAL="3005" NAME="?addMultiCell@QGridLayout@@QAEXPAVQLayoutItem@@HHHHV?$QFlags@W4AlignmentFlag@Qt@@@@@Z" PURGE="24" COMMENT="" />
    <EXPORT ORDINAL="3006" NAME="?addMultiCellLayout@QGridLayout@@QAEXPAVQLayout@@HHHHV?$QFlags@W4AlignmentFlag@Qt@@@@@Z" PURGE="24" COMMENT="" />
    <EXPORT ORDINAL="3007" NAME="?addMultiCellWidget@QGridLayout@@QAEXPAVQWidget@@HHHHV?$QFlags@W4AlignmentFlag@Qt@@@@@Z" PURGE="24" COMMENT="" />
    <EXPORT ORDINAL="3008" NAME="?addOutlineToPath@QFontEngine@@UAEXNNABUQGlyphLayout@@PAVQPainterPath@@V?$QFlags@W4RenderFlag@QTextItem@@@@@Z" PURGE="28" COMMENT="" />
    <EXPORT ORDINAL="3009" NAME="?addPage@QAbstractSlider@@QAEXXZ" PURGE="0" COMMENT="" />
    <EXPORT ORDINAL="3010" NAME="?addPage@QWizard@@QAEHPAVQWizardPage@@@Z" PURGE="4" COMMENT="" />
    <EXPORT ORDINAL="3011" NAME="?addPath@QGraphicsScene@@QAEPAVQGraphicsPathItem@@ABVQPainterPath@@ABVQPen@@ABVQBrush@@@Z" PURGE="12" COMMENT="" />
    <EXPORT ORDINAL="3012" NAME="?addPath@QPainterPath@@QAEXABV1@@Z" PURGE="4" COMMENT="" />
    <EXPORT ORDINAL="3013" NAME="?addPermanentWidget@QStatusBar@@QAEXPAVQWidget@@H@Z" PURGE="8" COMMENT="" />
    <EXPORT ORDINAL="3014" NAME="?addPixmap@QGraphicsScene@@QAEPAVQGraphicsPixmapItem@@ABVQPixmap@@@Z" PURGE="4" COMMENT="" />
    <EXPORT ORDINAL="3015" NAME="?addPixmap@QIcon@@QAEXABVQPixmap@@W4Mode@1@W4State@1@@Z" PURGE="12" COMMENT="" />
    <EXPORT ORDINAL="3016" NAME="?addPixmap@QIconEngine@@UAEXABVQPixmap@@W4Mode@QIcon@@W4State@4@@Z" PURGE="12" COMMENT="" />
    <EXPORT ORDINAL="3017" NAME="?addPixmapDataDestructionHook@QImagePixmapCleanupHooks@@QAEXP6AXPAVQPixmapData@@@Z@Z" PURGE="4" COMMENT="" />
    <EXPORT ORDINAL="3018" NAME="?addPixmapDataModificationHook@QImagePixmapCleanupHooks@@QAEXP6AXPAVQPixmapData@@@Z@Z" PURGE="4" COMMENT="" />
    <EXPORT ORDINAL="3019" NAME="?addPolygon@QGraphicsScene@@QAEPAVQGraphicsPolygonItem@@ABVQPolygonF@@ABVQPen@@ABVQBrush@@@Z" PURGE="12" COMMENT="" />
    <EXPORT ORDINAL="3020" NAME="?addPolygon@QPainterPath@@QAEXABVQPolygonF@@@Z" PURGE="4" COMMENT="" />
    <EXPORT ORDINAL="3021" NAME="?addRect@QGraphicsScene@@QAEPAVQGraphicsRectItem@@ABVQRectF@@ABVQPen@@ABVQBrush@@@Z" PURGE="12" COMMENT="" />
    <EXPORT ORDINAL="3022" NAME="?addRect@QGraphicsScene@@QAEPAVQGraphicsRectItem@@NNNNABVQPen@@ABVQBrush@@@Z" PURGE="40" COMMENT="" />
    <EXPORT ORDINAL="3023" NAME="?addRect@QPainterPath@@QAEXABVQRectF@@@Z" PURGE="4" COMMENT="" />
    <EXPORT ORDINAL="3024" NAME="?addRect@QPainterPath@@QAEXNNNN@Z" PURGE="32" COMMENT="" />
    <EXPORT ORDINAL="3025" NAME="?addRegion@QPainterPath@@QAEXABVQRegion@@@Z" PURGE="4" COMMENT="" />
    <EXPORT ORDINAL="3026" NAME="?addRequiredBoundaries@QTextEngine@@ABEXXZ" PURGE="0" COMMENT="" />
    <EXPORT ORDINAL="3027" NAME="?addResource@QTextDocument@@QAEXHABVQUrl@@ABVQVariant@@@Z" PURGE="12" COMMENT="" />
    <EXPORT ORDINAL="3028" NAME="?addRoundRect@QPainterPath@@QAEXABVQRectF@@H@Z" PURGE="8" COMMENT="" />
    <EXPORT ORDINAL="3029" NAME="?addRoundRect@QPainterPath@@QAEXABVQRectF@@HH@Z" PURGE="12" COMMENT="" />
    <EXPORT ORDINAL="3030" NAME="?addRoundRect@QPainterPath@@QAEXNNNNH@Z" PURGE="36" COMMENT="" />
    <EXPORT ORDINAL="3031" NAME="?addRoundRect@QPainterPath@@QAEXNNNNHH@Z" PURGE="40" COMMENT="" />
    <EXPORT ORDINAL="3032" NAME="?addRoundedRect@QPainterPath@@QAEXABVQRectF@@NNW4SizeMode@Qt@@@Z" PURGE="24" COMMENT="" />
    <EXPORT ORDINAL="3033" NAME="?addRoundedRect@QPainterPath@@QAEXNNNNNNW4SizeMode@Qt@@@Z" PURGE="52" COMMENT="" />
    <EXPORT ORDINAL="3034" NAME="?addRow@QFormLayout@@QAEXABVQString@@PAVQLayout@@@Z" PURGE="8" COMMENT="" />
    <EXPORT ORDINAL="3035" NAME="?addRow@QFormLayout@@QAEXABVQString@@PAVQWidget@@@Z" PURGE="8" COMMENT="" />
    <EXPORT ORDINAL="3036" NAME="?addRow@QFormLayout@@QAEXPAVQLayout@@@Z" PURGE="4" COMMENT="" />
    <EXPORT ORDINAL="3037" NAME="?addRow@QFormLayout@@QAEXPAVQWidget@@0@Z" PURGE="8" COMMENT="" />
    <EXPORT ORDINAL="3038" NAME="?addRow@QFormLayout@@QAEXPAVQWidget@@@Z" PURGE="4" COMMENT="" />
    <EXPORT ORDINAL="3039" NAME="?addRow@QFormLayout@@QAEXPAVQWidget@@PAVQLayout@@@Z" PURGE="8" COMMENT="" />
    <EXPORT ORDINAL="3040" NAME="?addRowSpacing@QGridLayout@@QAEXHH@Z" PURGE="8" COMMENT="" />
    <EXPORT ORDINAL="3041" NAME="?addScrollBarWidget@QAbstractScrollArea@@QAEXPAVQWidget@@V?$QFlags@W4AlignmentFlag@Qt@@@@@Z" PURGE="8" COMMENT="" />
    <EXPORT ORDINAL="3042" NAME="?addSeparator@QActionGroup@@QAEXXZ" PURGE="0" COMMENT="" />
    <EXPORT ORDINAL="3043" NAME="?addSeparator@QMenu@@QAEPAVQAction@@XZ" PURGE="0" COMMENT="" />
    <EXPORT ORDINAL="3044" NAME="?addSeparator@QMenuBar@@QAEPAVQAction@@XZ" PURGE="0" COMMENT="" />
    <EXPORT ORDINAL="3045" NAME="?addSeparator@QToolBar@@QAEPAVQAction@@XZ" PURGE="0" COMMENT="" />
    <EXPORT ORDINAL="3046" NAME="?addSimpleText@QGraphicsScene@@QAEPAVQGraphicsSimpleTextItem@@ABVQString@@ABVQFont@@@Z" PURGE="8" COMMENT="" />
    <EXPORT ORDINAL="3047" NAME="?addSpacerItem@QBoxLayout@@QAEXPAVQSpacerItem@@@Z" PURGE="4" COMMENT="" />
    <EXPORT ORDINAL="3048" NAME="?addSpacing@QBoxLayout@@QAEXH@Z" PURGE="4" COMMENT="" />
    <EXPORT ORDINAL="3049" NAME="?addStack@QUndoGroup@@QAEXPAVQUndoStack@@@Z" PURGE="4" COMMENT="" />
    <EXPORT ORDINAL="3050" NAME="?addStep@QSlider@@QAEXXZ" PURGE="0" COMMENT="" />
    <EXPORT ORDINAL="3051" NAME="?addStretch@QBoxLayout@@QAEXH@Z" PURGE="4" COMMENT="" />
    <EXPORT ORDINAL="3052" NAME="?addStretch@QGraphicsLinearLayout@@QAEXH@Z" PURGE="4" COMMENT="" />
    <EXPORT ORDINAL="3053" NAME="?addStrut@QBoxLayout@@QAEXH@Z" PURGE="4" COMMENT="" />
    <EXPORT ORDINAL="3054" NAME="?addSubWindow@QMdiArea@@QAEPAVQMdiSubWindow@@PAVQWidget@@V?$QFlags@W4WindowType@Qt@@@@@Z" PURGE="8" COMMENT="" />
    <EXPORT ORDINAL="3055" NAME="?addSymLink@QZipWriter@@QAEXABVQString@@0@Z" PURGE="8" COMMENT="" />
    <EXPORT ORDINAL="3056" NAME="?addTab@QTabBar@@QAEHABVQIcon@@ABVQString@@@Z" PURGE="8" COMMENT="" />
    <EXPORT ORDINAL="3057" NAME="?addTab@QTabBar@@QAEHABVQString@@@Z" PURGE="4" COMMENT="" />
    <EXPORT ORDINAL="3058" NAME="?addTab@QTabWidget@@QAEHPAVQWidget@@ABVQIcon@@ABVQString@@@Z" PURGE="12" COMMENT="" />
    <EXPORT ORDINAL="3059" NAME="?addTab@QTabWidget@@QAEHPAVQWidget@@ABVQString@@@Z" PURGE="8" COMMENT="" />
    <EXPORT ORDINAL="3060" NAME="?addText@QGraphicsScene@@QAEPAVQGraphicsTextItem@@ABVQString@@ABVQFont@@@Z" PURGE="8" COMMENT="" />
    <EXPORT ORDINAL="3061" NAME="?addText@QPainterPath@@QAEXABVQPointF@@ABVQFont@@ABVQString@@@Z" PURGE="12" COMMENT="" />
    <EXPORT ORDINAL="3062" NAME="?addText@QPainterPath@@QAEXNNABVQFont@@ABVQString@@@Z" PURGE="24" COMMENT="" />
    <EXPORT ORDINAL="3063" NAME="?addTo@QAction@@QAE_NPAVQWidget@@@Z" PURGE="4" COMMENT="" />
    <EXPORT ORDINAL="3064" NAME="?addTo@QActionGroup@@QAE_NPAVQWidget@@@Z" PURGE="4" COMMENT="" />
    <EXPORT ORDINAL="3065" NAME="?addToGroup@QGraphicsItemGroup@@QAEXPAVQGraphicsItem@@@Z" PURGE="4" COMMENT="" />
    <EXPORT ORDINAL="3066" NAME="?addToIndex@QGraphicsItem@@IAEXXZ" PURGE="0" COMMENT="" />
    <EXPORT ORDINAL="3067" NAME="?addToPolygon@QBezier@@QBEXPAVQPolygonF@@N@Z" PURGE="12" COMMENT="" />
    <EXPORT ORDINAL="3068" NAME="?addToolBar@QMainWindow@@QAEPAVQToolBar@@ABVQString@@@Z" PURGE="4" COMMENT="" />
    <EXPORT ORDINAL="3069" NAME="?addToolBar@QMainWindow@@QAEXPAVQToolBar@@@Z" PURGE="4" COMMENT="" />
    <EXPORT ORDINAL="3070" NAME="?addToolBar@QMainWindow@@QAEXW4ToolBarArea@Qt@@PAVQToolBar@@@Z" PURGE="8" COMMENT="" />
    <EXPORT ORDINAL="3071" NAME="?addToolBarBreak@QMainWindow@@QAEXW4ToolBarArea@Qt@@@Z" PURGE="4" COMMENT="" />
    <EXPORT ORDINAL="3072" NAME="?addTopLevelItem@QTreeWidget@@QAEXPAVQTreeWidgetItem@@@Z" PURGE="4" COMMENT="" />
    <EXPORT ORDINAL="3073" NAME="?addTopLevelItems@QTreeWidget@@QAEXABV?$QList@PAVQTreeWidgetItem@@@@@Z" PURGE="4" COMMENT="" />
    <EXPORT ORDINAL="3074" NAME="?addWidget@QBoxLayout@@QAEXPAVQWidget@@HV?$QFlags@W4AlignmentFlag@Qt@@@@@Z" PURGE="12" COMMENT="" />
    <EXPORT ORDINAL="3075" NAME="?addWidget@QGraphicsScene@@QAEPAVQGraphicsProxyWidget@@PAVQWidget@@V?$QFlags@W4WindowType@Qt@@@@@Z" PURGE="8" COMMENT="" />
    <EXPORT ORDINAL="3076" NAME="?addWidget@QGridLayout@@QAEXPAVQWidget@@@Z" PURGE="4" COMMENT="" />
    <EXPORT ORDINAL="3077" NAME="?addWidget@QGridLayout@@QAEXPAVQWidget@@HHHHV?$QFlags@W4AlignmentFlag@Qt@@@@@Z" PURGE="24" COMMENT="" />
    <EXPORT ORDINAL="3078" NAME="?addWidget@QGridLayout@@QAEXPAVQWidget@@HHV?$QFlags@W4AlignmentFlag@Qt@@@@@Z" PURGE="16" COMMENT="" />
    <EXPORT ORDINAL="3079" NAME="?addWidget@QLayout@@QAEXPAVQWidget@@@Z" PURGE="4" COMMENT="" />
    <EXPORT ORDINAL="3080" NAME="?addWidget@QSplitter@@QAEXPAVQWidget@@@Z" PURGE="4" COMMENT="" />
    <EXPORT ORDINAL="3081" NAME="?addWidget@QStackedLayout@@QAEHPAVQWidget@@@Z" PURGE="4" COMMENT="" />
    <EXPORT ORDINAL="3082" NAME="?addWidget@QStackedWidget@@QAEHPAVQWidget@@@Z" PURGE="4" COMMENT="" />
    <EXPORT ORDINAL="3083" NAME="?addWidget@QStatusBar@@QAEXPAVQWidget@@H@Z" PURGE="8" COMMENT="" />
    <EXPORT ORDINAL="3084" NAME="?addWidget@QStatusBar@@QAEXPAVQWidget@@H_N@Z" PURGE="12" COMMENT="" />
    <EXPORT ORDINAL="3085" NAME="?addWidget@QToolBar@@QAEPAVQAction@@PAVQWidget@@@Z" PURGE="4" COMMENT="" />
    <EXPORT ORDINAL="3086" NAME="?addWindow@QWorkspace@@QAEPAVQWidget@@PAV2@V?$QFlags@W4WindowType@Qt@@@@@Z" PURGE="8" COMMENT="" />
    <EXPORT ORDINAL="3087" NAME="?additionalFormats@QTextLayout@@QBE?AV?$QList@UFormatRange@QTextLayout@@@@XZ" PURGE="4" COMMENT="" />
    <EXPORT ORDINAL="3088" NAME="?adjoint@QTransform@@QBE?AV1@XZ" PURGE="4" COMMENT="" />
    <EXPORT ORDINAL="3089" NAME="?adjustFlags@QWidgetPrivate@@SAXAAV?$QFlags@W4WindowType@Qt@@@@PAVQWidget@@@Z" PURGE="0" COMMENT="" />
    <EXPORT ORDINAL="3090" NAME="?adjustPosition@QDialog@@IAEXPAVQWidget@@@Z" PURGE="4" COMMENT="" />
    <EXPORT ORDINAL="3091" NAME="?adjustQuitOnCloseAttribute@QWidgetPrivate@@QAEXXZ" PURGE="0" COMMENT="" />
    <EXPORT ORDINAL="3092" NAME="?adjustSize@QGraphicsTextItem@@QAEXXZ" PURGE="0" COMMENT="" />
    <EXPORT ORDINAL="3093" NAME="?adjustSize@QGraphicsWidget@@QAEXXZ" PURGE="0" COMMENT="" />
    <EXPORT ORDINAL="3094" NAME="?adjustSize@QTextControl@@QAEXXZ" PURGE="0" COMMENT="" />
    <EXPORT ORDINAL="3095" NAME="?adjustSize@QTextDocument@@QAEXXZ" PURGE="0" COMMENT="" />
    <EXPORT ORDINAL="3096" NAME="?adjustSize@QWidget@@QAEXXZ" PURGE="0" COMMENT="" />
    <EXPORT ORDINAL="3097" NAME="?adjustViewOptionsForIndex@QTreeViewPrivate@@UBEXPAVQStyleOptionViewItemV4@@ABVQModelIndex@@@Z" PURGE="8" COMMENT="" />
    <EXPORT ORDINAL="3098" NAME="?adjustedSize@QWidgetPrivate@@QBE?AVQSize@@XZ" PURGE="4" COMMENT="" />
    <EXPORT ORDINAL="3099" NAME="?advance@QGraphicsItem@@UAEXH@Z" PURGE="4" COMMENT="" />
    <EXPORT ORDINAL="3100" NAME="?advance@QGraphicsScene@@QAEXXZ" PURGE="0" COMMENT="" />
    <EXPORT ORDINAL="3101" NAME="?advanceToEnabledItem@QLineControl@@AAE_NH@Z" PURGE="4" COMMENT="" />
    <EXPORT ORDINAL="3102" NAME="?advancesForGlyphIndexes@QRawFont@@QBE?AV?$QVector@VQPointF@@@@ABV?$QVector@I@@@Z" PURGE="8" COMMENT="" />
    <EXPORT ORDINAL="3103" NAME="?advancesForGlyphIndexes@QRawFont@@QBE_NPBIPAVQPointF@@H@Z" PURGE="12" COMMENT="" />
    <EXPORT ORDINAL="3104" NAME="?afterAnimationStep@QGraphicsItemAnimation@@MAEXN@Z" PURGE="8" COMMENT="" />
    <EXPORT ORDINAL="3105" NAME="?alert@QApplication@@SAXPAVQWidget@@H@Z" PURGE="0" COMMENT="" />
    <EXPORT ORDINAL="3106" NAME="?alignLine@QTextEngine@@QAE?AUQFixed@@ABUQScriptLine@@@Z" PURGE="8" COMMENT="" />
    <EXPORT ORDINAL="3107" NAME="?alignedRect@QStyle@@SA?AVQRect@@W4LayoutDirection@Qt@@V?$QFlags@W4AlignmentFlag@Qt@@@@ABVQSize@@ABV2@@Z" PURGE="0" COMMENT="" />
    <EXPORT ORDINAL="3108" NAME="?alignment@QAbstractSpinBox@@QBE?AV?$QFlags@W4AlignmentFlag@Qt@@@@XZ" PURGE="4" COMMENT="" />
    <EXPORT ORDINAL="3109" NAME="?alignment@QGraphicsGridLayout@@QBE?AV?$QFlags@W4AlignmentFlag@Qt@@@@PAVQGraphicsLayoutItem@@@Z" PURGE="8" COMMENT="" />
    <EXPORT ORDINAL="3110" NAME="?alignment@QGraphicsLinearLayout@@QBE?AV?$QFlags@W4AlignmentFlag@Qt@@@@PAVQGraphicsLayoutItem@@@Z" PURGE="8" COMMENT="" />
    <EXPORT ORDINAL="3111" NAME="?alignment@QGraphicsView@@QBE?AV?$QFlags@W4AlignmentFlag@Qt@@@@XZ" PURGE="4" COMMENT="" />
    <EXPORT ORDINAL="3112" NAME="?alignment@QGroupBox@@QBE?AV?$QFlags@W4AlignmentFlag@Qt@@@@XZ" PURGE="4" COMMENT="" />
    <EXPORT ORDINAL="3113" NAME="?alignment@QLabel@@QBE?AV?$QFlags@W4AlignmentFlag@Qt@@@@XZ" PURGE="4" COMMENT="" />
    <EXPORT ORDINAL="3114" NAME="?alignment@QLayoutItem@@QBE?AV?$QFlags@W4AlignmentFlag@Qt@@@@XZ" PURGE="4" COMMENT="" />
    <EXPORT ORDINAL="3115" NAME="?alignment@QLineEdit@@QBE?AV?$QFlags@W4AlignmentFlag@Qt@@@@XZ" PURGE="4" COMMENT="" />
    <EXPORT ORDINAL="3116" NAME="?alignment@QProgressBar@@QBE?AV?$QFlags@W4AlignmentFlag@Qt@@@@XZ" PURGE="4" COMMENT="" />
    <EXPORT ORDINAL="3117" NAME="?alignment@QScrollArea@@QBE?AV?$QFlags@W4AlignmentFlag@Qt@@@@XZ" PURGE="4" COMMENT="" />
    <EXPORT ORDINAL="3118" NAME="?alignment@QTextBlockFormat@@QBE?AV?$QFlags@W4AlignmentFlag@Qt@@@@XZ" PURGE="4" COMMENT="" />
    <EXPORT ORDINAL="3119" NAME="?alignment@QTextEdit@@QBE?AV?$QFlags@W4AlignmentFlag@Qt@@@@XZ" PURGE="4" COMMENT="" />
    <EXPORT ORDINAL="3120" NAME="?alignment@QTextOption@@QBE?AV?$QFlags@W4AlignmentFlag@Qt@@@@XZ" PURGE="4" COMMENT="" />
    <EXPORT ORDINAL="3121" NAME="?alignment@QTextTableFormat@@QBE?AV?$QFlags@W4AlignmentFlag@Qt@@@@XZ" PURGE="4" COMMENT="" />
    <EXPORT ORDINAL="3122" NAME="?alignmentRect@QLayout@@IBE?AVQRect@@ABV2@@Z" PURGE="8" COMMENT="" />
    <EXPORT ORDINAL="3123" NAME="?allColumnsShowFocus@QTreeView@@QBE_NXZ" PURGE="0" COMMENT="" />
    <EXPORT ORDINAL="3124" NAME="?allFormats@QTextDocument@@QBE?AV?$QVector@VQTextFormat@@@@XZ" PURGE="4" COMMENT="" />
    <EXPORT ORDINAL="3125" NAME="?allFormatsForMime@QWindowsMime@@CA?AV?$QVector@UtagFORMATETC@@@@PBVQMimeData@@@Z" PURGE="0" COMMENT="" />
    <EXPORT ORDINAL="3126" NAME="?allGray@QImage@@QBE_NXZ" PURGE="0" COMMENT="" />
    <EXPORT ORDINAL="3127" NAME="?allMimesForFormats@QWindowsMime@@CA?AVQStringList@@PAUIDataObject@@@Z" PURGE="0" COMMENT="" />
    <EXPORT ORDINAL="3128" NAME="?allPixmaps@QPixmapCache@@SA?AV?$QList@U?$QPair@VQString@@VQPixmap@@@@@@XZ" PURGE="0" COMMENT="" />
    <EXPORT ORDINAL="3129" NAME="?allSelected@QLineControl@@QBE_NXZ" PURGE="0" COMMENT="" />
    <EXPORT ORDINAL="3130" NAME="?allWidgets@QApplication@@SA?AV?$QList@PAVQWidget@@@@XZ" PURGE="0" COMMENT="" />
    <EXPORT ORDINAL="3131" NAME="?allWidgets@QWidgetPrivate@@2PAV?$QSet@PAVQWidget@@@@A" PURGE="-1" COMMENT="" />
    <EXPORT ORDINAL="3132" NAME="?allocStyleOptionsArray@QGraphicsViewPrivate@@QAEPAVQStyleOptionGraphicsItem@@H@Z" PURGE="4" COMMENT="" />
    <EXPORT ORDINAL="3133" NAME="?allowedAreas@QDockWidget@@QBE?AV?$QFlags@W4DockWidgetArea@Qt@@@@XZ" PURGE="4" COMMENT="" />
    <EXPORT ORDINAL="3134" NAME="?allowedAreas@QToolBar@@QBE?AV?$QFlags@W4ToolBarArea@Qt@@@@XZ" PURGE="4" COMMENT="" />
    <EXPORT ORDINAL="3135" NAME="?allowedAreasChanged@QDockWidget@@IAEXV?$QFlags@W4DockWidgetArea@Qt@@@@@Z" PURGE="4" COMMENT="" />
    <EXPORT ORDINAL="3136" NAME="?allowedAreasChanged@QToolBar@@IAEXV?$QFlags@W4ToolBarArea@Qt@@@@@Z" PURGE="4" COMMENT="" />
    <EXPORT ORDINAL="3137" NAME="?allowsErrorInteraction@QSessionManager@@QAE_NXZ" PURGE="0" COMMENT="" />
    <EXPORT ORDINAL="3138" NAME="?allowsInteraction@QSessionManager@@QAE_NXZ" PURGE="0" COMMENT="" />
    <EXPORT ORDINAL="3139" NAME="?alpha@QColor@@QBEHXZ" PURGE="0" COMMENT="" />
    <EXPORT ORDINAL="3140" NAME="?alphaChannel@QImage@@QBE?AV1@XZ" PURGE="4" COMMENT="" />
    <EXPORT ORDINAL="3141" NAME="?alphaChannel@QPixmap@@QBE?AV1@XZ" PURGE="4" COMMENT="" />
    <EXPORT ORDINAL="3142" NAME="?alphaChannel@QPixmapData@@UBE?AVQPixmap@@XZ" PURGE="4" COMMENT="" />
    <EXPORT ORDINAL="3143" NAME="?alphaChannel@QRuntimePixmapData@@UBE?AVQPixmap@@XZ" PURGE="4" COMMENT="" />
    <EXPORT ORDINAL="3144" NAME="?alphaF@QColor@@QBENXZ" PURGE="0" COMMENT="" />
    <EXPORT ORDINAL="3145" NAME="?alphaMapBoundingBox@QFontEngine@@UAE?AUglyph_metrics_t@@IUQFixed@@ABVQTransform@@W4GlyphFormat@1@@Z" PURGE="20" COMMENT="" />
    <EXPORT ORDINAL="3146" NAME="?alphaMapForGlyph@QFontEngine@@UAE?AVQImage@@I@Z" PURGE="8" COMMENT="" />
    <EXPORT ORDINAL="3147" NAME="?alphaMapForGlyph@QFontEngine@@UAE?AVQImage@@IABVQTransform@@@Z" PURGE="12" COMMENT="" />
    <EXPORT ORDINAL="3148" NAME="?alphaMapForGlyph@QFontEngine@@UAE?AVQImage@@IUQFixed@@@Z" PURGE="12" COMMENT="" />
    <EXPORT ORDINAL="3149" NAME="?alphaMapForGlyph@QFontEngine@@UAE?AVQImage@@IUQFixed@@ABVQTransform@@@Z" PURGE="16" COMMENT="" />
    <EXPORT ORDINAL="3150" NAME="?alphaMapForGlyph@QRawFont@@QBE?AVQImage@@IW4AntialiasingType@1@ABVQTransform@@@Z" PURGE="16" COMMENT="" />
    <EXPORT ORDINAL="3151" NAME="?alphaRGBMapForGlyph@QFontEngine@@UAE?AVQImage@@IUQFixed@@HABVQTransform@@@Z" PURGE="20" COMMENT="" />
    <EXPORT ORDINAL="3152" NAME="?alterCharForCapitalization@QFontPrivate@@QBEXAAVQChar@@@Z" PURGE="4" COMMENT="" />
    <EXPORT ORDINAL="3153" NAME="?alternateBase@QPalette@@QBEABVQBrush@@XZ" PURGE="0" COMMENT="" />
    <EXPORT ORDINAL="3154" NAME="?alternatingRowColors@QAbstractItemView@@QBE_NXZ" PURGE="0" COMMENT="" />
    <EXPORT ORDINAL="3155" NAME="?anchor@QGraphicsAnchorLayout@@QAEPAVQGraphicsAnchor@@PAVQGraphicsLayoutItem@@W4AnchorPoint@Qt@@01@Z" PURGE="16" COMMENT="" />
    <EXPORT ORDINAL="3156" NAME="?anchor@QTextCursor@@QBEHXZ" PURGE="0" COMMENT="" />
    <EXPORT ORDINAL="3157" NAME="?anchorAt@QAbstractTextDocumentLayout@@QBE?AVQString@@ABVQPointF@@@Z" PURGE="8" COMMENT="" />
    <EXPORT ORDINAL="3158" NAME="?anchorAt@QPlainTextEdit@@QBE?AVQString@@ABVQPoint@@@Z" PURGE="8" COMMENT="" />
    <EXPORT ORDINAL="3159" NAME="?anchorAt@QTextControl@@QBE?AVQString@@ABVQPointF@@@Z" PURGE="8" COMMENT="" />
    <EXPORT ORDINAL="3160" NAME="?anchorAt@QTextEdit@@QBE?AVQString@@ABVQPoint@@@Z" PURGE="8" COMMENT="" />
    <EXPORT ORDINAL="3161" NAME="?anchorAtCursor@QTextControl@@QBE?AVQString@@XZ" PURGE="4" COMMENT="" />
    <EXPORT ORDINAL="3162" NAME="?anchorClicked@QTextBrowser@@IAEXABVQUrl@@@Z" PURGE="4" COMMENT="" />
    <EXPORT ORDINAL="3163" NAME="?anchorHref@QTextCharFormat@@QBE?AVQString@@XZ" PURGE="4" COMMENT="" />
    <EXPORT ORDINAL="3164" NAME="?anchorName@QTextCharFormat@@QBE?AVQString@@XZ" PURGE="4" COMMENT="" />
    <EXPORT ORDINAL="3165" NAME="?anchorNames@QTextCharFormat@@QBE?AVQStringList@@XZ" PURGE="4" COMMENT="" />
    <EXPORT ORDINAL="3166" NAME="?anchorPosition@QTextControl@@QBE?AVQPointF@@ABVQString@@@Z" PURGE="8" COMMENT="" />
    <EXPORT ORDINAL="3167" NAME="?angle@QConicalGradient@@QBENXZ" PURGE="0" COMMENT="" />
    <EXPORT ORDINAL="3168" NAME="?angle@QGraphicsRotation@@QBENXZ" PURGE="0" COMMENT="" />
    <EXPORT ORDINAL="3169" NAME="?angleAtPercent@QPainterPath@@QBENN@Z" PURGE="8" COMMENT="" />
    <EXPORT ORDINAL="3170" NAME="?angleChanged@QGraphicsRotation@@IAEXXZ" PURGE="0" COMMENT="" />
    <EXPORT ORDINAL="3171" NAME="?animateClick@QAbstractButton@@QAEXH@Z" PURGE="4" COMMENT="" />
    <EXPORT ORDINAL="3172" NAME="?animate_combo@QApplicationPrivate@@2_NA" PURGE="-1" COMMENT="" />
    <EXPORT ORDINAL="3173" NAME="?animate_menu@QApplicationPrivate@@2_NA" PURGE="-1" COMMENT="" />
    <EXPORT ORDINAL="3174" NAME="?animate_toolbox@QApplicationPrivate@@2_NA" PURGE="-1" COMMENT="" />
    <EXPORT ORDINAL="3175" NAME="?animate_tooltip@QApplicationPrivate@@2_NA" PURGE="-1" COMMENT="" />
    <EXPORT ORDINAL="3176" NAME="?animate_ui@QApplicationPrivate@@2_NA" PURGE="-1" COMMENT="" />
    <EXPORT ORDINAL="3177" NAME="?answerRect@QDragMoveEvent@@QBE?AVQRect@@XZ" PURGE="4" COMMENT="" />
    <EXPORT ORDINAL="3178" NAME="?appName@QApplicationPrivate@@UBE?AVQString@@XZ" PURGE="4" COMMENT="" />
    <EXPORT ORDINAL="3179" NAME="?app_cspec@QApplicationPrivate@@2HA" PURGE="-1" COMMENT="" />
    <EXPORT ORDINAL="3180" NAME="?app_font@QApplicationPrivate@@0PAVQFont@@A" PURGE="-1" COMMENT="" />
    <EXPORT ORDINAL="3181" NAME="?app_icon@QApplicationPrivate@@2PAVQIcon@@A" PURGE="-1" COMMENT="" />
    <EXPORT ORDINAL="3182" NAME="?app_pal@QApplicationPrivate@@2PAVQPalette@@A" PURGE="-1" COMMENT="" />
    <EXPORT ORDINAL="3183" NAME="?app_strut@QApplicationPrivate@@2VQSize@@A" PURGE="-1" COMMENT="" />
    <EXPORT ORDINAL="3184" NAME="?app_style@QApplicationPrivate@@2PAVQStyle@@A" PURGE="-1" COMMENT="" />
    <EXPORT ORDINAL="3185" NAME="?append@?$QList@VQItemSelectionRange@@@@QAEXABV1@@Z" PURGE="4" COMMENT="" />
    <EXPORT ORDINAL="3186" NAME="?append@?$QList@VQItemSelectionRange@@@@QAEXABVQItemSelectionRange@@@Z" PURGE="4" COMMENT="" />
    <EXPORT ORDINAL="3187" NAME="?append@QTextControl@@QAEXABVQString@@@Z" PURGE="4" COMMENT="" />
    <EXPORT ORDINAL="3188" NAME="?append@QTextEdit@@QAEXABVQString@@@Z" PURGE="4" COMMENT="" />
    <EXPORT ORDINAL="3189" NAME="?appendColumn@QStandardItem@@QAEXABV?$QList@PAVQStandardItem@@@@@Z" PURGE="4" COMMENT="" />
    <EXPORT ORDINAL="3190" NAME="?appendColumn@QStandardItemModel@@QAEXABV?$QList@PAVQStandardItem@@@@@Z" PURGE="4" COMMENT="" />
    <EXPORT ORDINAL="3191" NAME="?appendColumns@QTextTable@@QAEXH@Z" PURGE="4" COMMENT="" />
    <EXPORT ORDINAL="3192" NAME="?appendGraphicsTransform@QGraphicsItemPrivate@@QAEXPAVQGraphicsTransform@@@Z" PURGE="4" COMMENT="" />
    <EXPORT ORDINAL="3193" NAME="?appendHtml@QPlainTextEdit@@QAEXABVQString@@@Z" PURGE="4" COMMENT="" />
    <EXPORT ORDINAL="3194" NAME="?appendHtml@QTextControl@@QAEXABVQString@@@Z" PURGE="4" COMMENT="" />
    <EXPORT ORDINAL="3195" NAME="?appendPlainText@QPlainTextEdit@@QAEXABVQString@@@Z" PURGE="4" COMMENT="" />
    <EXPORT ORDINAL="3196" NAME="?appendPlainText@QTextControl@@QAEXABVQString@@@Z" PURGE="4" COMMENT="" />
    <EXPORT ORDINAL="3197" NAME="?appendRow@QStandardItem@@QAEXABV?$QList@PAVQStandardItem@@@@@Z" PURGE="4" COMMENT="" />
    <EXPORT ORDINAL="3198" NAME="?appendRow@QStandardItem@@QAEXPAV1@@Z" PURGE="4" COMMENT="" />
    <EXPORT ORDINAL="3199" NAME="?appendRow@QStandardItemModel@@QAEXABV?$QList@PAVQStandardItem@@@@@Z" PURGE="4" COMMENT="" />
    <EXPORT ORDINAL="3200" NAME="?appendRow@QStandardItemModel@@QAEXPAVQStandardItem@@@Z" PURGE="4" COMMENT="" />
    <EXPORT ORDINAL="3201" NAME="?appendRows@QStandardItem@@QAEXABV?$QList@PAVQStandardItem@@@@@Z" PURGE="4" COMMENT="" />
    <EXPORT ORDINAL="3202" NAME="?appendRows@QTextTable@@QAEXH@Z" PURGE="4" COMMENT="" />
    <EXPORT ORDINAL="3203" NAME="?appendUndoItem@QTextDocument@@QAEXPAVQAbstractUndoItem@@@Z" PURGE="4" COMMENT="" />
    <EXPORT ORDINAL="3204" NAME="?applicationFontFamilies@QFontDatabase@@SA?AVQStringList@@H@Z" PURGE="0" COMMENT="" />
    <EXPORT ORDINAL="3205" NAME="?applyTo@QGraphicsRotation@@UBEXPAVQMatrix4x4@@@Z" PURGE="4" COMMENT="" />
    <EXPORT ORDINAL="3206" NAME="?applyTo@QGraphicsScale@@UBEXPAVQMatrix4x4@@@Z" PURGE="4" COMMENT="" />
    <EXPORT ORDINAL="3207" NAME="?arcMoveTo@QPainterPath@@QAEXABVQRectF@@N@Z" PURGE="12" COMMENT="" />
    <EXPORT ORDINAL="3208" NAME="?arcMoveTo@QPainterPath@@QAEXNNNNN@Z" PURGE="40" COMMENT="" />
    <EXPORT ORDINAL="3209" NAME="?arcTo@QPainterPath@@QAEXABVQRectF@@NN@Z" PURGE="20" COMMENT="" />
    <EXPORT ORDINAL="3210" NAME="?arcTo@QPainterPath@@QAEXNNNNNN@Z" PURGE="48" COMMENT="" />
    <EXPORT ORDINAL="3211" NAME="?arrangeIcons@QWorkspace@@QAEXXZ" PURGE="0" COMMENT="" />
    <EXPORT ORDINAL="3212" NAME="?arrowType@QToolButton@@QBE?AW4ArrowType@Qt@@XZ" PURGE="0" COMMENT="" />
    <EXPORT ORDINAL="3213" NAME="?ascent@QFontMetrics@@QBEHXZ" PURGE="0" COMMENT="" />
    <EXPORT ORDINAL="3214" NAME="?ascent@QFontMetricsF@@QBENXZ" PURGE="0" COMMENT="" />
    <EXPORT ORDINAL="3215" NAME="?ascent@QLineControl@@QBEHXZ" PURGE="0" COMMENT="" />
    <EXPORT ORDINAL="3216" NAME="?ascent@QRawFont@@QBENXZ" PURGE="0" COMMENT="" />
    <EXPORT ORDINAL="3217" NAME="?ascent@QTextInlineObject@@QBENXZ" PURGE="0" COMMENT="" />
    <EXPORT ORDINAL="3218" NAME="?ascent@QTextItem@@QBENXZ" PURGE="0" COMMENT="" />
    <EXPORT ORDINAL="3219" NAME="?ascent@QTextLine@@QBENXZ" PURGE="0" COMMENT="" />
    <EXPORT ORDINAL="3220" NAME="?ascii@QKeyEvent@@QBEHXZ" PURGE="0" COMMENT="" />
    <EXPORT ORDINAL="3221" NAME="?assign@QKeySequence@@AAEHABVQString@@@Z" PURGE="4" COMMENT="" />
    <EXPORT ORDINAL="3222" NAME="?assign@QKeySequence@@AAEHABVQString@@W4SequenceFormat@1@@Z" PURGE="8" COMMENT="" />
    <EXPORT ORDINAL="3223" NAME="?assignedInputContext@QWidgetPrivate@@QBEPAVQInputContext@@XZ" PURGE="0" COMMENT="" />
    <EXPORT ORDINAL="3224" NAME="?associatedGraphicsWidgets@QAction@@QBE?AV?$QList@PAVQGraphicsWidget@@@@XZ" PURGE="4" COMMENT="" />
    <EXPORT ORDINAL="3225" NAME="?associatedWidgets@QAction@@QBE?AV?$QList@PAVQWidget@@@@XZ" PURGE="4" COMMENT="" />
    <EXPORT ORDINAL="3226" NAME="?at@?$QList@VQItemSelectionRange@@@@QBEABVQItemSelectionRange@@H@Z" PURGE="4" COMMENT="" />
    <EXPORT ORDINAL="3227" NAME="?atBlockEnd@QTextCursor@@QBE_NXZ" PURGE="0" COMMENT="" />
    <EXPORT ORDINAL="3228" NAME="?atBlockStart@QTextCursor@@QBE_NXZ" PURGE="0" COMMENT="" />
    <EXPORT ORDINAL="3229" NAME="?atEnd@QTextCursor@@QBE_NXZ" PURGE="0" COMMENT="" />
    <EXPORT ORDINAL="3230" NAME="?atEnd@iterator@QTextBlock@@QBE_NXZ" PURGE="0" COMMENT="" />
    <EXPORT ORDINAL="3231" NAME="?atEnd@iterator@QTextFrame@@QBE_NXZ" PURGE="0" COMMENT="" />
    <EXPORT ORDINAL="3232" NAME="?atSpace@QTextEngine@@QBE_NH@Z" PURGE="4" COMMENT="" />
    <EXPORT ORDINAL="3233" NAME="?atStart@QTextCursor@@QBE_NXZ" PURGE="0" COMMENT="" />
    <EXPORT ORDINAL="3234" NAME="?atWordSeparator@QTextEngine@@QBE_NH@Z" PURGE="4" COMMENT="" />
    <EXPORT ORDINAL="3235" NAME="?attributes@QInputMethodEvent@@QBEABV?$QList@VAttribute@QInputMethodEvent@@@@XZ" PURGE="0" COMMENT="" />
    <EXPORT ORDINAL="3236" NAME="?attributes@QTextEngine@@QBEPBUHB_CharAttributes@@XZ" PURGE="0" COMMENT="" />
    <EXPORT ORDINAL="3237" NAME="?autoAdd@QLayout@@QBE_NXZ" PURGE="0" COMMENT="" />
    <EXPORT ORDINAL="3238" NAME="?autoClose@QProgressDialog@@QBE_NXZ" PURGE="0" COMMENT="" />
    <EXPORT ORDINAL="3239" NAME="?autoCompletion@QComboBox@@QBE_NXZ" PURGE="0" COMMENT="" />
    <EXPORT ORDINAL="3240" NAME="?autoCompletionCaseSensitivity@QComboBox@@QBE?AW4CaseSensitivity@Qt@@XZ" PURGE="0" COMMENT="" />
    <EXPORT ORDINAL="3241" NAME="?autoDefault@QPushButton@@QBE_NXZ" PURGE="0" COMMENT="" />
    <EXPORT ORDINAL="3242" NAME="?autoDestruct@QPaintEngine@@ABE_NXZ" PURGE="0" COMMENT="" />
    <EXPORT ORDINAL="3243" NAME="?autoDetectImageFormat@QImageReader@@QBE_NXZ" PURGE="0" COMMENT="" />
    <EXPORT ORDINAL="3244" NAME="?autoExclusive@QAbstractButton@@QBE_NXZ" PURGE="0" COMMENT="" />
    <EXPORT ORDINAL="3245" NAME="?autoExpandDelay@QTreeView@@QBEHXZ" PURGE="0" COMMENT="" />
    <EXPORT ORDINAL="3246" NAME="?autoFillBackground@QGraphicsWidget@@QBE_NXZ" PURGE="0" COMMENT="" />
    <EXPORT ORDINAL="3247" NAME="?autoFillBackground@QWidget@@QBE_NXZ" PURGE="0" COMMENT="" />
    <EXPORT ORDINAL="3248" NAME="?autoFormatting@QTextEdit@@QBE?AV?$QFlags@W4AutoFormattingFlag@QTextEdit@@@@XZ" PURGE="4" COMMENT="" />
    <EXPORT ORDINAL="3249" NAME="?autoGeometry@QMenuBar@@QBE_NXZ" PURGE="0" COMMENT="" />
    <EXPORT ORDINAL="3250" NAME="?autoRaise@QToolButton@@QBE_NXZ" PURGE="0" COMMENT="" />
    <EXPORT ORDINAL="3251" NAME="?autoRepeat@QAbstractButton@@QBE_NXZ" PURGE="0" COMMENT="" />
    <EXPORT ORDINAL="3252" NAME="?autoRepeat@QAction@@QBE_NXZ" PURGE="0" COMMENT="" />
    <EXPORT ORDINAL="3253" NAME="?autoRepeat@QShortcut@@QBE_NXZ" PURGE="0" COMMENT="" />
    <EXPORT ORDINAL="3254" NAME="?autoRepeatDelay@QAbstractButton@@QBEHXZ" PURGE="0" COMMENT="" />
    <EXPORT ORDINAL="3255" NAME="?autoRepeatInterval@QAbstractButton@@QBEHXZ" PURGE="0" COMMENT="" />
    <EXPORT ORDINAL="3256" NAME="?autoReset@QProgressDialog@@QBE_NXZ" PURGE="0" COMMENT="" />
    <EXPORT ORDINAL="3257" NAME="?autoScrollMargin@QAbstractItemView@@QBEHXZ" PURGE="0" COMMENT="" />
    <EXPORT ORDINAL="3258" NAME="?autoSipEnabled@QApplication@@QBE_NXZ" PURGE="0" COMMENT="" />
    <EXPORT ORDINAL="3259" NAME="?autoSipEnabled@QApplicationPrivate@@2_NA" PURGE="-1" COMMENT="" />
    <EXPORT ORDINAL="3260" NAME="?available@QSound@@SA_NXZ" PURGE="-1" COMMENT="" />
    <EXPORT ORDINAL="3261" NAME="?availableGeometry@QDesktopWidget@@QBE?BVQRect@@ABVQPoint@@@Z" PURGE="8" COMMENT="" />
    <EXPORT ORDINAL="3262" NAME="?availableGeometry@QDesktopWidget@@QBE?BVQRect@@H@Z" PURGE="8" COMMENT="" />
    <EXPORT ORDINAL="3263" NAME="?availableGeometry@QDesktopWidget@@QBE?BVQRect@@PBVQWidget@@@Z" PURGE="8" COMMENT="" />
    <EXPORT ORDINAL="3264" NAME="?availableGlyphs@QTextEngine@@QBE?AUQGlyphLayout@@PBUQScriptItem@@@Z" PURGE="8" COMMENT="" />
    <EXPORT ORDINAL="3265" NAME="?availablePrinters@QPrinterInfo@@SA?AV?$QList@VQPrinterInfo@@@@XZ" PURGE="0" COMMENT="" />
    <EXPORT ORDINAL="3266" NAME="?availableRedoSteps@QTextDocument@@QBEHXZ" PURGE="0" COMMENT="" />
    <EXPORT ORDINAL="3267" NAME="?availableSizes@QIcon@@QBE?AV?$QList@VQSize@@@@W4Mode@1@W4State@1@@Z" PURGE="12" COMMENT="" />
    <EXPORT ORDINAL="3268" NAME="?availableSizes@QIconEngineV2@@QAE?AV?$QList@VQSize@@@@W4Mode@QIcon@@W4State@4@@Z" PURGE="12" COMMENT="" />
    <EXPORT ORDINAL="3269" NAME="?availableUndoSteps@QTextDocument@@QBEHXZ" PURGE="0" COMMENT="" />
    <EXPORT ORDINAL="3270" NAME="?averageCharWidth@QFontEngine@@UBE?AUQFixed@@XZ" PURGE="4" COMMENT="" />
    <EXPORT ORDINAL="3271" NAME="?averageCharWidth@QFontMetrics@@QBEHXZ" PURGE="0" COMMENT="" />
    <EXPORT ORDINAL="3272" NAME="?averageCharWidth@QFontMetricsF@@QBENXZ" PURGE="0" COMMENT="" />
    <EXPORT ORDINAL="3273" NAME="?averageCharWidth@QRawFont@@QBENXZ" PURGE="0" COMMENT="" />
    <EXPORT ORDINAL="3274" NAME="?axis@QGraphicsRotation@@QBE?AVQVector3D@@XZ" PURGE="4" COMMENT="" />
    <EXPORT ORDINAL="3275" NAME="?axisChanged@QGraphicsRotation@@IAEXXZ" PURGE="0" COMMENT="" />
    <EXPORT ORDINAL="3276" NAME="?back@?$QList@VQItemSelectionRange@@@@QAEAAVQItemSelectionRange@@XZ" PURGE="0" COMMENT="" />
    <EXPORT ORDINAL="3277" NAME="?back@?$QList@VQItemSelectionRange@@@@QBEABVQItemSelectionRange@@XZ" PURGE="0" COMMENT="" />
    <EXPORT ORDINAL="3278" NAME="?back@QWizard@@QAEXXZ" PURGE="0" COMMENT="" />
    <EXPORT ORDINAL="3279" NAME="?background@QColorGroup@@QBEABVQColor@@XZ" PURGE="0" COMMENT="" />
    <EXPORT ORDINAL="3280" NAME="?background@QListWidgetItem@@QBE?AVQBrush@@XZ" PURGE="4" COMMENT="" />
    <EXPORT ORDINAL="3281" NAME="?background@QMdiArea@@QBE?AVQBrush@@XZ" PURGE="4" COMMENT="" />
    <EXPORT ORDINAL="3282" NAME="?background@QPainter@@QBEABVQBrush@@XZ" PURGE="0" COMMENT="" />
    <EXPORT ORDINAL="3283" NAME="?background@QPalette@@QBEABVQBrush@@XZ" PURGE="0" COMMENT="" />
    <EXPORT ORDINAL="3284" NAME="?background@QStandardItem@@QBE?AVQBrush@@XZ" PURGE="4" COMMENT="" />
    <EXPORT ORDINAL="3285" NAME="?background@QTableWidgetItem@@QBE?AVQBrush@@XZ" PURGE="4" COMMENT="" />
    <EXPORT ORDINAL="3286" NAME="?background@QTextFormat@@QBE?AVQBrush@@XZ" PURGE="4" COMMENT="" />
    <EXPORT ORDINAL="3287" NAME="?background@QTreeWidgetItem@@QBE?AVQBrush@@H@Z" PURGE="8" COMMENT="" />
    <EXPORT ORDINAL="3288" NAME="?background@QWorkspace@@QBE?AVQBrush@@XZ" PURGE="4" COMMENT="" />
    <EXPORT ORDINAL="3289" NAME="?backgroundBrush@QGraphicsScene@@QBE?AVQBrush@@XZ" PURGE="4" COMMENT="" />
    <EXPORT ORDINAL="3290" NAME="?backgroundBrush@QGraphicsView@@QBE?AVQBrush@@XZ" PURGE="4" COMMENT="" />
    <EXPORT ORDINAL="3291" NAME="?backgroundBrush@QPaintEngineState@@QBE?AVQBrush@@XZ" PURGE="4" COMMENT="" />
    <EXPORT ORDINAL="3292" NAME="?backgroundBrush@QWidget@@QBEABVQBrush@@XZ" PURGE="0" COMMENT="" />
    <EXPORT ORDINAL="3293" NAME="?backgroundColor@QAccessibleInterface@@QAE?AVQColor@@XZ" PURGE="4" COMMENT="" />
    <EXPORT ORDINAL="3294" NAME="?backgroundColor@QImageReader@@QBE?AVQColor@@XZ" PURGE="4" COMMENT="" />
    <EXPORT ORDINAL="3295" NAME="?backgroundColor@QListWidgetItem@@QBE?AVQColor@@XZ" PURGE="4" COMMENT="" />
    <EXPORT ORDINAL="3296" NAME="?backgroundColor@QMovie@@QBE?AVQColor@@XZ" PURGE="4" COMMENT="" />
    <EXPORT ORDINAL="3297" NAME="?backgroundColor@QPainter@@QBEABVQColor@@XZ" PURGE="0" COMMENT="" />
    <EXPORT ORDINAL="3298" NAME="?backgroundColor@QTableWidgetItem@@QBE?AVQColor@@XZ" PURGE="4" COMMENT="" />
    <EXPORT ORDINAL="3299" NAME="?backgroundColor@QTreeWidgetItem@@QBE?AVQColor@@H@Z" PURGE="8" COMMENT="" />
    <EXPORT ORDINAL="3300" NAME="?backgroundColor@QWidget@@QBEABVQColor@@XZ" PURGE="0" COMMENT="" />
    <EXPORT ORDINAL="3301" NAME="?backgroundMode@QPaintEngineState@@QBE?AW4BGMode@Qt@@XZ" PURGE="0" COMMENT="" />
    <EXPORT ORDINAL="3302" NAME="?backgroundMode@QPainter@@QBE?AW4BGMode@Qt@@XZ" PURGE="0" COMMENT="" />
    <EXPORT ORDINAL="3303" NAME="?backgroundMode@QWidget@@QBE?AW4BackgroundMode@Qt@@XZ" PURGE="0" COMMENT="" />
    <EXPORT ORDINAL="3304" NAME="?backgroundOffset@QWidget@@QBE?AVQPoint@@XZ" PURGE="4" COMMENT="" />
    <EXPORT ORDINAL="3305" NAME="?backgroundOrigin@QWidget@@QBE?AW4BackgroundOrigin@1@XZ" PURGE="0" COMMENT="" />
    <EXPORT ORDINAL="3306" NAME="?backgroundPixmap@QWidget@@QBEPBVQPixmap@@XZ" PURGE="0" COMMENT="" />
    <EXPORT ORDINAL="3307" NAME="?backgroundRole@QWidget@@QBE?AW4ColorRole@QPalette@@XZ" PURGE="0" COMMENT="" />
    <EXPORT ORDINAL="3308" NAME="?backgroundVisible@QPlainTextEdit@@QBE_NXZ" PURGE="0" COMMENT="" />
    <EXPORT ORDINAL="3309" NAME="?backspace@QLineControl@@QAEXXZ" PURGE="0" COMMENT="" />
    <EXPORT ORDINAL="3310" NAME="?backspace@QLineEdit@@QAEXXZ" PURGE="0" COMMENT="" />
    <EXPORT ORDINAL="3311" NAME="?backward@QTextBrowser@@UAEXXZ" PURGE="0" COMMENT="" />
    <EXPORT ORDINAL="3312" NAME="?backwardAvailable@QTextBrowser@@IAEX_N@Z" PURGE="4" COMMENT="" />
    <EXPORT ORDINAL="3313" NAME="?backwardHistoryCount@QTextBrowser@@QBEHXZ" PURGE="0" COMMENT="" />
    <EXPORT ORDINAL="3314" NAME="?base@QColorGroup@@QBEABVQColor@@XZ" PURGE="0" COMMENT="" />
    <EXPORT ORDINAL="3315" NAME="?base@QPalette@@QBEABVQBrush@@XZ" PURGE="0" COMMENT="" />
    <EXPORT ORDINAL="3316" NAME="?baseSize@QWidget@@QBE?AVQSize@@XZ" PURGE="4" COMMENT="" />
    <EXPORT ORDINAL="3317" NAME="?baseStyle@QProxyStyle@@QBEPAVQStyle@@XZ" PURGE="0" COMMENT="" />
    <EXPORT ORDINAL="3318" NAME="?basicSelectorMatches@StyleSelector@QCss@@AAE_NABUBasicSelector@2@TNodePtr@12@@Z" PURGE="8" COMMENT="" />
    <EXPORT ORDINAL="3319" NAME="?batchSize@QListView@@QBEHXZ" PURGE="0" COMMENT="" />
    <EXPORT ORDINAL="3320" NAME="?beep@QApplication@@SAXXZ" PURGE="0" COMMENT="" />
    <EXPORT ORDINAL="3321" NAME="?before@QActionEvent@@QBEPAVQAction@@XZ" PURGE="0" COMMENT="" />
    <EXPORT ORDINAL="3322" NAME="?beforeAnimationStep@QGraphicsItemAnimation@@MAEXN@Z" PURGE="8" COMMENT="" />
    <EXPORT ORDINAL="3323" NAME="?begin@?$QList@VQItemSelectionRange@@@@QAE?AViterator@1@XZ" PURGE="4" COMMENT="" />
    <EXPORT ORDINAL="3324" NAME="?begin@?$QList@VQItemSelectionRange@@@@QBE?AVconst_iterator@1@XZ" PURGE="4" COMMENT="" />
    <EXPORT ORDINAL="3325" NAME="?begin@QBlitterPaintEngine@@UAE_NPAVQPaintDevice@@@Z" PURGE="4" COMMENT="" />
    <EXPORT ORDINAL="3326" NAME="?begin@QDashStroker@@UAEXPAX@Z" PURGE="4" COMMENT="" />
    <EXPORT ORDINAL="3327" NAME="?begin@QPainter@@QAE_NPAVQPaintDevice@@@Z" PURGE="4" COMMENT="" />
    <EXPORT ORDINAL="3328" NAME="?begin@QPainter@@QAE_NPAVQPaintDevice@@PBVQWidget@@@Z" PURGE="8" COMMENT="" />
    <EXPORT ORDINAL="3329" NAME="?begin@QStrokerOps@@UAEXPAX@Z" PURGE="4" COMMENT="" />
    <EXPORT ORDINAL="3330" NAME="?begin@QTextBlock@@QBE?AViterator@1@XZ" PURGE="4" COMMENT="" />
    <EXPORT ORDINAL="3331" NAME="?begin@QTextDocument@@QBE?AVQTextBlock@@XZ" PURGE="4" COMMENT="" />
    <EXPORT ORDINAL="3332" NAME="?begin@QTextFrame@@QBE?AViterator@1@XZ" PURGE="4" COMMENT="" />
    <EXPORT ORDINAL="3333" NAME="?begin@QTextTableCell@@QBE?AViterator@QTextFrame@@XZ" PURGE="4" COMMENT="" />
    <EXPORT ORDINAL="3334" NAME="?beginAnimatedOperation@QTreeViewPrivate@@QAEXXZ" PURGE="0" COMMENT="" />
    <EXPORT ORDINAL="3335" NAME="?beginDataAccess@QVolatileImage@@QBEXXZ" PURGE="0" COMMENT="" />
    <EXPORT ORDINAL="3336" NAME="?beginEditBlock@QTextCursor@@QAEXXZ" PURGE="0" COMMENT="" />
    <EXPORT ORDINAL="3337" NAME="?beginLayout@QTextLayout@@QAEXXZ" PURGE="0" COMMENT="" />
    <EXPORT ORDINAL="3338" NAME="?beginMacro@QUndoStack@@QAEXABVQString@@@Z" PURGE="4" COMMENT="" />
    <EXPORT ORDINAL="3339" NAME="?beginNativePainting@QPaintEngineEx@@UAEXXZ" PURGE="0" COMMENT="" />
    <EXPORT ORDINAL="3340" NAME="?beginNativePainting@QPainter@@QAEXXZ" PURGE="0" COMMENT="" />
    <EXPORT ORDINAL="3341" NAME="?beginNewFrame@QPaintBuffer@@QAEXXZ" PURGE="0" COMMENT="" />
    <EXPORT ORDINAL="3342" NAME="?beginPaint@QRasterWindowSurface@@UAEXABVQRegion@@@Z" PURGE="4" COMMENT="" />
    <EXPORT ORDINAL="3343" NAME="?beginPaint@QWindowSurface@@UAEXABVQRegion@@@Z" PURGE="4" COMMENT="" />
    <EXPORT ORDINAL="3344" NAME="?beginningOfLine@QTextEngine@@AAEHH@Z" PURGE="4" COMMENT="" />
    <EXPORT ORDINAL="3345" NAME="?below@QTreeViewPrivate@@QBEHH@Z" PURGE="4" COMMENT="" />
    <EXPORT ORDINAL="3346" NAME="?bezierOnInterval@QBezier@@QBE?AV1@NN@Z" PURGE="20" COMMENT="" />
    <EXPORT ORDINAL="3347" NAME="?bidiReorder@QTextEngine@@SAXHPBEPAH@Z" PURGE="0" COMMENT="" />
    <EXPORT ORDINAL="3348" NAME="?bitBlt@@YAXPAVQImage@@HHPBV1@HHHHV?$QFlags@W4ImageConversionFlag@Qt@@@@@Z" PURGE="0" COMMENT="" />
    <EXPORT ORDINAL="3349" NAME="?bitBlt@@YAXPAVQPaintDevice@@ABVQPoint@@PBV1@ABVQRect@@_N@Z" PURGE="0" COMMENT="" />
    <EXPORT ORDINAL="3350" NAME="?bitBlt@@YAXPAVQPaintDevice@@HHPBV1@HHHH_N@Z" PURGE="0" COMMENT="" />
    <EXPORT ORDINAL="3351" NAME="?bitBlt@@YAXPAVQPaintDevice@@HHPBVQImage@@HHHHH@Z" PURGE="0" COMMENT="" />
    <EXPORT ORDINAL="3352" NAME="?bitOrder@QImage@@QBE?AW4Endian@1@XZ" PURGE="0" COMMENT="" />
    <EXPORT ORDINAL="3353" NAME="?bitPlaneCount@QImage@@QBEHXZ" PURGE="0" COMMENT="" />
    <EXPORT ORDINAL="3354" NAME="?bitmap@QCursor@@QBEPBVQBitmap@@XZ" PURGE="0" COMMENT="" />
    <EXPORT ORDINAL="3355" NAME="?bits@QImage@@QAEPAEXZ" PURGE="0" COMMENT="" />
    <EXPORT ORDINAL="3356" NAME="?bits@QImage@@QBEPBEXZ" PURGE="0" COMMENT="" />
    <EXPORT ORDINAL="3357" NAME="?bits@QVolatileImage@@QAEPAEXZ" PURGE="0" COMMENT="" />
    <EXPORT ORDINAL="3358" NAME="?black@QColor@@QBEHXZ" PURGE="0" COMMENT="" />
    <EXPORT ORDINAL="3359" NAME="?blackF@QColor@@QBENXZ" PURGE="0" COMMENT="" />
    <EXPORT ORDINAL="3360" NAME="?blittable@QBlittablePixmapData@@QBEPAVQBlittable@@XZ" PURGE="0" COMMENT="" />
    <EXPORT ORDINAL="3361" NAME="?block@QTextCursor@@QBE?AVQTextBlock@@XZ" PURGE="4" COMMENT="" />
    <EXPORT ORDINAL="3362" NAME="?blockBoundingGeometry@QPlainTextEdit@@IBE?AVQRectF@@ABVQTextBlock@@@Z" PURGE="8" COMMENT="" />
    <EXPORT ORDINAL="3363" NAME="?blockBoundingRect@QPlainTextDocumentLayout@@UBE?AVQRectF@@ABVQTextBlock@@@Z" PURGE="8" COMMENT="" />
    <EXPORT ORDINAL="3364" NAME="?blockBoundingRect@QPlainTextEdit@@IBE?AVQRectF@@ABVQTextBlock@@@Z" PURGE="8" COMMENT="" />
    <EXPORT ORDINAL="3365" NAME="?blockBoundingRect@QTextControl@@UBE?AVQRectF@@ABVQTextBlock@@@Z" PURGE="8" COMMENT="" />
    <EXPORT ORDINAL="3366" NAME="?blockCharFormat@QTextCursor@@QBE?AVQTextCharFormat@@XZ" PURGE="4" COMMENT="" />
    <EXPORT ORDINAL="3367" NAME="?blockCount@QPlainTextEdit@@QBEHXZ" PURGE="0" COMMENT="" />
    <EXPORT ORDINAL="3368" NAME="?blockCount@QTextDocument@@QBEHXZ" PURGE="0" COMMENT="" />
    <EXPORT ORDINAL="3369" NAME="?blockCountChanged@QPlainTextEdit@@IAEXH@Z" PURGE="4" COMMENT="" />
    <EXPORT ORDINAL="3370" NAME="?blockCountChanged@QTextControl@@IAEXH@Z" PURGE="4" COMMENT="" />
    <EXPORT ORDINAL="3371" NAME="?blockCountChanged@QTextDocument@@IAEXH@Z" PURGE="4" COMMENT="" />
    <EXPORT ORDINAL="3372" NAME="?blockFormat@QTextBlock@@QBE?AVQTextBlockFormat@@XZ" PURGE="4" COMMENT="" />
    <EXPORT ORDINAL="3373" NAME="?blockFormat@QTextCursor@@QBE?AVQTextBlockFormat@@XZ" PURGE="4" COMMENT="" />
    <EXPORT ORDINAL="3374" NAME="?blockFormat@QTextFormatCollection@@QBE?AVQTextBlockFormat@@H@Z" PURGE="8" COMMENT="" />
    <EXPORT ORDINAL="3375" NAME="?blockFormatChanged@QTextBlockGroup@@MAEXABVQTextBlock@@@Z" PURGE="4" COMMENT="" />
    <EXPORT ORDINAL="3376" NAME="?blockFormatIndex@QTextBlock@@QBEHXZ" PURGE="0" COMMENT="" />
    <EXPORT ORDINAL="3377" NAME="?blockInserted@QTextBlockGroup@@MAEXABVQTextBlock@@@Z" PURGE="4" COMMENT="" />
    <EXPORT ORDINAL="3378" NAME="?blockList@QTextBlockGroup@@IBE?AV?$QList@VQTextBlock@@@@XZ" PURGE="4" COMMENT="" />
    <EXPORT ORDINAL="3379" NAME="?blockNumber@QTextBlock@@QBEHXZ" PURGE="0" COMMENT="" />
    <EXPORT ORDINAL="3380" NAME="?blockNumber@QTextCursor@@QBEHXZ" PURGE="0" COMMENT="" />
    <EXPORT ORDINAL="3381" NAME="?blockRemoved@QTextBlockGroup@@MAEXABVQTextBlock@@@Z" PURGE="4" COMMENT="" />
    <EXPORT ORDINAL="3382" NAME="?blockWidth@QPlainTextDocumentLayout@@AAENABVQTextBlock@@@Z" PURGE="4" COMMENT="" />
    <EXPORT ORDINAL="3383" NAME="?blue@QColor@@QBEHXZ" PURGE="0" COMMENT="" />
    <EXPORT ORDINAL="3384" NAME="?blueF@QColor@@QBENXZ" PURGE="0" COMMENT="" />
    <EXPORT ORDINAL="3385" NAME="?blurHints@QGraphicsBlurEffect@@QBE?AV?$QFlags@W4BlurHint@QGraphicsBlurEffect@@@@XZ" PURGE="4" COMMENT="" />
    <EXPORT ORDINAL="3386" NAME="?blurHints@QPixmapBlurFilter@@QBE?AV?$QFlags@W4BlurHint@QGraphicsBlurEffect@@@@XZ" PURGE="4" COMMENT="" />
    <EXPORT ORDINAL="3387" NAME="?blurHintsChanged@QGraphicsBlurEffect@@IAEXV?$QFlags@W4BlurHint@QGraphicsBlurEffect@@@@@Z" PURGE="4" COMMENT="" />
    <EXPORT ORDINAL="3388" NAME="?blurRadius@QGraphicsBlurEffect@@QBENXZ" PURGE="0" COMMENT="" />
    <EXPORT ORDINAL="3389" NAME="?blurRadius@QGraphicsDropShadowEffect@@QBENXZ" PURGE="0" COMMENT="" />
    <EXPORT ORDINAL="3390" NAME="?blurRadius@QPixmapDropShadowFilter@@QBENXZ" PURGE="0" COMMENT="" />
    <EXPORT ORDINAL="3391" NAME="?blurRadiusChanged@QGraphicsBlurEffect@@IAEXN@Z" PURGE="8" COMMENT="" />
    <EXPORT ORDINAL="3392" NAME="?blurRadiusChanged@QGraphicsDropShadowEffect@@IAEXN@Z" PURGE="8" COMMENT="" />
    <EXPORT ORDINAL="3393" NAME="?bold@QFont@@QBE_NXZ" PURGE="0" COMMENT="" />
    <EXPORT ORDINAL="3394" NAME="?bold@QFontDatabase@@QBE_NABVQString@@0@Z" PURGE="8" COMMENT="" />
    <EXPORT ORDINAL="3395" NAME="?bold@QFontInfo@@QBE_NXZ" PURGE="0" COMMENT="" />
    <EXPORT ORDINAL="3396" NAME="?bold@QTextEdit@@QBE_NXZ" PURGE="0" COMMENT="" />
    <EXPORT ORDINAL="3397" NAME="?boolProperty@QTextFormat@@QBE_NH@Z" PURGE="4" COMMENT="" />
    <EXPORT ORDINAL="3398" NAME="?border@QTextFrameFormat@@QBENXZ" PURGE="0" COMMENT="" />
    <EXPORT ORDINAL="3399" NAME="?borderBrush@QTextFrameFormat@@QBE?AVQBrush@@XZ" PURGE="4" COMMENT="" />
    <EXPORT ORDINAL="3400" NAME="?borderStyle@QTextFrameFormat@@QBE?AW4BorderStyle@1@XZ" PURGE="0" COMMENT="" />
    <EXPORT ORDINAL="3401" NAME="?bottom@QDoubleValidator@@QBENXZ" PURGE="0" COMMENT="" />
    <EXPORT ORDINAL="3402" NAME="?bottom@QIntValidator@@QBEHXZ" PURGE="0" COMMENT="" />
    <EXPORT ORDINAL="3403" NAME="?bottom@QItemSelectionRange@@QBEHXZ" PURGE="-1" COMMENT="" />
    <EXPORT ORDINAL="3404" NAME="?bottomMargin@QTextBlockFormat@@QBENXZ" PURGE="0" COMMENT="" />
    <EXPORT ORDINAL="3405" NAME="?bottomMargin@QTextFrameFormat@@QBENXZ" PURGE="0" COMMENT="" />
    <EXPORT ORDINAL="3406" NAME="?bottomPadding@QTextTableCellFormat@@QBENXZ" PURGE="0" COMMENT="" />
    <EXPORT ORDINAL="3407" NAME="?bottomRight@QItemSelectionRange@@QBE?AVQModelIndex@@XZ" PURGE="4" COMMENT="" />
    <EXPORT ORDINAL="3408" NAME="?bottomRow@QTableWidgetSelectionRange@@QBEHXZ" PURGE="0" COMMENT="" />
    <EXPORT ORDINAL="3409" NAME="?boundingBox@QFontEngine@@UAE?AUglyph_metrics_t@@IABVQTransform@@@Z" PURGE="12" COMMENT="" />
    <EXPORT ORDINAL="3410" NAME="?boundingBox@QTextEngine@@QBE?AUglyph_metrics_t@@HH@Z" PURGE="12" COMMENT="" />
    <EXPORT ORDINAL="3411" NAME="?boundingRect@QFontMetrics@@QBE?AVQRect@@ABV2@HABVQString@@HPAH@Z" PURGE="24" COMMENT="" />
    <EXPORT ORDINAL="3412" NAME="?boundingRect@QFontMetrics@@QBE?AVQRect@@ABVQString@@@Z" PURGE="8" COMMENT="" />
    <EXPORT ORDINAL="3413" NAME="?boundingRect@QFontMetrics@@QBE?AVQRect@@ABVQString@@H@Z" PURGE="12" COMMENT="" />
    <EXPORT ORDINAL="3414" NAME="?boundingRect@QFontMetrics@@QBE?AVQRect@@HHHHHABVQString@@HHPAH@Z" PURGE="40" COMMENT="" />
    <EXPORT ORDINAL="3415" NAME="?boundingRect@QFontMetrics@@QBE?AVQRect@@HHHHHABVQString@@HPAH@Z" PURGE="36" COMMENT="" />
    <EXPORT ORDINAL="3416" NAME="?boundingRect@QFontMetrics@@QBE?AVQRect@@VQChar@@@Z" PURGE="8" COMMENT="" />
    <EXPORT ORDINAL="3417" NAME="?boundingRect@QFontMetricsF@@QBE?AVQRectF@@ABV2@HABVQString@@HPAH@Z" PURGE="24" COMMENT="" />
    <EXPORT ORDINAL="3418" NAME="?boundingRect@QFontMetricsF@@QBE?AVQRectF@@ABVQString@@@Z" PURGE="8" COMMENT="" />
    <EXPORT ORDINAL="3419" NAME="?boundingRect@QFontMetricsF@@QBE?AVQRectF@@VQChar@@@Z" PURGE="8" COMMENT="" />
    <EXPORT ORDINAL="3420" NAME="?boundingRect@QGraphicsEffect@@QBE?AVQRectF@@XZ" PURGE="4" COMMENT="" />
    <EXPORT ORDINAL="3421" NAME="?boundingRect@QGraphicsEffectSource@@QBE?AVQRectF@@W4CoordinateSystem@Qt@@@Z" PURGE="8" COMMENT="" />
    <EXPORT ORDINAL="3422" NAME="?boundingRect@QGraphicsEllipseItem@@UBE?AVQRectF@@XZ" PURGE="4" COMMENT="" />
    <EXPORT ORDINAL="3423" NAME="?boundingRect@QGraphicsItemGroup@@UBE?AVQRectF@@XZ" PURGE="4" COMMENT="" />
    <EXPORT ORDINAL="3424" NAME="?boundingRect@QGraphicsLineItem@@UBE?AVQRectF@@XZ" PURGE="4" COMMENT="" />
    <EXPORT ORDINAL="3425" NAME="?boundingRect@QGraphicsPathItem@@UBE?AVQRectF@@XZ" PURGE="4" COMMENT="" />
    <EXPORT ORDINAL="3426" NAME="?boundingRect@QGraphicsPixmapItem@@UBE?AVQRectF@@XZ" PURGE="4" COMMENT="" />
    <EXPORT ORDINAL="3427" NAME="?boundingRect@QGraphicsPolygonItem@@UBE?AVQRectF@@XZ" PURGE="4" COMMENT="" />
    <EXPORT ORDINAL="3428" NAME="?boundingRect@QGraphicsRectItem@@UBE?AVQRectF@@XZ" PURGE="4" COMMENT="" />
    <EXPORT ORDINAL="3429" NAME="?boundingRect@QGraphicsSimpleTextItem@@UBE?AVQRectF@@XZ" PURGE="4" COMMENT="" />
    <EXPORT ORDINAL="3430" NAME="?boundingRect@QGraphicsTextItem@@UBE?AVQRectF@@XZ" PURGE="4" COMMENT="" />
    <EXPORT ORDINAL="3431" NAME="?boundingRect@QGraphicsWidget@@UBE?AVQRectF@@XZ" PURGE="4" COMMENT="" />
    <EXPORT ORDINAL="3432" NAME="?boundingRect@QPaintBuffer@@QBE?AVQRectF@@XZ" PURGE="4" COMMENT="" />
    <EXPORT ORDINAL="3433" NAME="?boundingRect@QPainter@@QAE?AVQRect@@ABV2@HABVQString@@@Z" PURGE="16" COMMENT="" />
    <EXPORT ORDINAL="3434" NAME="?boundingRect@QPainter@@QAE?AVQRect@@ABV2@HABVQString@@H@Z" PURGE="20" COMMENT="" />
    <EXPORT ORDINAL="3435" NAME="?boundingRect@QPainter@@QAE?AVQRect@@HHHHHABVQString@@@Z" PURGE="28" COMMENT="" />
    <EXPORT ORDINAL="3436" NAME="?boundingRect@QPainter@@QAE?AVQRect@@HHHHHABVQString@@H@Z" PURGE="32" COMMENT="" />
    <EXPORT ORDINAL="3437" NAME="?boundingRect@QPainter@@QAE?AVQRectF@@ABV2@ABVQString@@ABVQTextOption@@@Z" PURGE="16" COMMENT="" />
    <EXPORT ORDINAL="3438" NAME="?boundingRect@QPainter@@QAE?AVQRectF@@ABV2@HABVQString@@@Z" PURGE="16" COMMENT="" />
    <EXPORT ORDINAL="3439" NAME="?boundingRect@QPainterPath@@QBE?AVQRectF@@XZ" PURGE="4" COMMENT="" />
    <EXPORT ORDINAL="3440" NAME="?boundingRect@QPicture@@QBE?AVQRect@@XZ" PURGE="4" COMMENT="" />
    <EXPORT ORDINAL="3441" NAME="?boundingRect@QPolygon@@QBE?AVQRect@@XZ" PURGE="4" COMMENT="" />
    <EXPORT ORDINAL="3442" NAME="?boundingRect@QPolygonF@@QBE?AVQRectF@@XZ" PURGE="4" COMMENT="" />
    <EXPORT ORDINAL="3443" NAME="?boundingRect@QRegion@@QBE?AVQRect@@XZ" PURGE="4" COMMENT="" />
    <EXPORT ORDINAL="3444" NAME="?boundingRect@QTextLayout@@QBE?AVQRectF@@XZ" PURGE="4" COMMENT="" />
    <EXPORT ORDINAL="3445" NAME="?boundingRectFor@QGraphicsBlurEffect@@UBE?AVQRectF@@ABV2@@Z" PURGE="8" COMMENT="" />
    <EXPORT ORDINAL="3446" NAME="?boundingRectFor@QGraphicsDropShadowEffect@@UBE?AVQRectF@@ABV2@@Z" PURGE="8" COMMENT="" />
    <EXPORT ORDINAL="3447" NAME="?boundingRectFor@QGraphicsEffect@@UBE?AVQRectF@@ABV2@@Z" PURGE="8" COMMENT="" />
    <EXPORT ORDINAL="3448" NAME="?boundingRectFor@QPixmapBlurFilter@@UBE?AVQRectF@@ABV2@@Z" PURGE="8" COMMENT="" />
    <EXPORT ORDINAL="3449" NAME="?boundingRectFor@QPixmapConvolutionFilter@@UBE?AVQRectF@@ABV2@@Z" PURGE="8" COMMENT="" />
    <EXPORT ORDINAL="3450" NAME="?boundingRectFor@QPixmapDropShadowFilter@@UBE?AVQRectF@@ABV2@@Z" PURGE="8" COMMENT="" />
    <EXPORT ORDINAL="3451" NAME="?boundingRectFor@QPixmapFilter@@UBE?AVQRectF@@ABV2@@Z" PURGE="8" COMMENT="" />
    <EXPORT ORDINAL="3452" NAME="?boundingRegion@QGraphicsItem@@QBE?AVQRegion@@ABVQTransform@@@Z" PURGE="8" COMMENT="" />
    <EXPORT ORDINAL="3453" NAME="?boundingRegionGranularity@QGraphicsItem@@QBENXZ" PURGE="0" COMMENT="" />
    <EXPORT ORDINAL="3454" NAME="?bounds@QBezier@@QBE?AVQRectF@@XZ" PURGE="4" COMMENT="" />
    <EXPORT ORDINAL="3455" NAME="?brightText@QColorGroup@@QBEABVQColor@@XZ" PURGE="0" COMMENT="" />
    <EXPORT ORDINAL="3456" NAME="?brightText@QPalette@@QBEABVQBrush@@XZ" PURGE="0" COMMENT="" />
    <EXPORT ORDINAL="3457" NAME="?brush@QAbstractGraphicsShapeItem@@QBE?AVQBrush@@XZ" PURGE="4" COMMENT="" />
    <EXPORT ORDINAL="3458" NAME="?brush@QPaintEngineState@@QBE?AVQBrush@@XZ" PURGE="4" COMMENT="" />
    <EXPORT ORDINAL="3459" NAME="?brush@QPainter@@QBEABVQBrush@@XZ" PURGE="0" COMMENT="" />
    <EXPORT ORDINAL="3460" NAME="?brush@QPalette@@QBEABVQBrush@@W4ColorGroup@1@W4ColorRole@1@@Z" PURGE="8" COMMENT="" />
    <EXPORT ORDINAL="3461" NAME="?brush@QPalette@@QBEABVQBrush@@W4ColorRole@1@@Z" PURGE="4" COMMENT="" />
    <EXPORT ORDINAL="3462" NAME="?brush@QPen@@QBE?AVQBrush@@XZ" PURGE="4" COMMENT="" />
    <EXPORT ORDINAL="3463" NAME="?brushChanged@QBlitterPaintEngine@@UAEXXZ" PURGE="0" COMMENT="" />
    <EXPORT ORDINAL="3464" NAME="?brushNeedsResolving@QPaintEngineState@@QBE_NXZ" PURGE="0" COMMENT="" />
    <EXPORT ORDINAL="3465" NAME="?brushOrigin@QPaintEngineState@@QBE?AVQPointF@@XZ" PURGE="4" COMMENT="" />
    <EXPORT ORDINAL="3466" NAME="?brushOrigin@QPainter@@QBE?AVQPoint@@XZ" PURGE="4" COMMENT="" />
    <EXPORT ORDINAL="3467" NAME="?brushProperty@QTextFormat@@QBE?AVQBrush@@H@Z" PURGE="8" COMMENT="" />
    <EXPORT ORDINAL="3468" NAME="?bspTreeDepth@QGraphicsScene@@QBEHXZ" PURGE="0" COMMENT="" />
    <EXPORT ORDINAL="3469" NAME="?buddy@QAbstractProxyModel@@UBE?AVQModelIndex@@ABV2@@Z" PURGE="8" COMMENT="" />
    <EXPORT ORDINAL="3470" NAME="?buddy@QLabel@@QBEPAVQWidget@@XZ" PURGE="0" COMMENT="" />
    <EXPORT ORDINAL="3471" NAME="?buddy@QSortFilterProxyModel@@UBE?AVQModelIndex@@ABV2@@Z" PURGE="8" COMMENT="" />
    <EXPORT ORDINAL="3472" NAME="?buffer@QBlittablePixmapData@@UAEPAVQImage@@XZ" PURGE="0" COMMENT="" />
    <EXPORT ORDINAL="3473" NAME="?buffer@QPixmapData@@UAEPAVQImage@@XZ" PURGE="0" COMMENT="" />
    <EXPORT ORDINAL="3474" NAME="?buffer@QRasterPixmapData@@UAEPAVQImage@@XZ" PURGE="0" COMMENT="" />
    <EXPORT ORDINAL="3475" NAME="?buffer@QRuntimePixmapData@@UAEPAVQImage@@XZ" PURGE="-1" COMMENT="" />
    <EXPORT ORDINAL="3476" NAME="?buffer@QWindowSurface@@UAEPAVQImage@@PBVQWidget@@@Z" PURGE="4" COMMENT="" />
    <EXPORT ORDINAL="3477" NAME="?button@QButtonGroup@@QBEPAVQAbstractButton@@H@Z" PURGE="4" COMMENT="" />
    <EXPORT ORDINAL="3478" NAME="?button@QColorGroup@@QBEABVQColor@@XZ" PURGE="0" COMMENT="" />
    <EXPORT ORDINAL="3479" NAME="?button@QDialogButtonBox@@QBEPAVQPushButton@@W4StandardButton@1@@Z" PURGE="4" COMMENT="" />
    <EXPORT ORDINAL="3480" NAME="?button@QGraphicsSceneMouseEvent@@QBE?AW4MouseButton@Qt@@XZ" PURGE="0" COMMENT="" />
    <EXPORT ORDINAL="3481" NAME="?button@QMessageBox@@QBEPAVQAbstractButton@@W4StandardButton@1@@Z" PURGE="4" COMMENT="" />
    <EXPORT ORDINAL="3482" NAME="?button@QMouseEvent@@QBE?AW4MouseButton@Qt@@XZ" PURGE="0" COMMENT="" />
    <EXPORT ORDINAL="3483" NAME="?button@QMouseEventTransition@@QBE?AW4MouseButton@Qt@@XZ" PURGE="0" COMMENT="" />
    <EXPORT ORDINAL="3484" NAME="?button@QPalette@@QBEABVQBrush@@XZ" PURGE="0" COMMENT="" />
    <EXPORT ORDINAL="3485" NAME="?button@QWizard@@QBEPAVQAbstractButton@@W4WizardButton@1@@Z" PURGE="4" COMMENT="" />
    <EXPORT ORDINAL="3486" NAME="?buttonClicked@QButtonGroup@@IAEXH@Z" PURGE="4" COMMENT="" />
    <EXPORT ORDINAL="3487" NAME="?buttonClicked@QButtonGroup@@IAEXPAVQAbstractButton@@@Z" PURGE="4" COMMENT="" />
    <EXPORT ORDINAL="3488" NAME="?buttonClicked@QMessageBox@@IAEXPAVQAbstractButton@@@Z" PURGE="4" COMMENT="" />
    <EXPORT ORDINAL="3489" NAME="?buttonDownPos@QGraphicsSceneMouseEvent@@QBE?AVQPointF@@W4MouseButton@Qt@@@Z" PURGE="8" COMMENT="" />
    <EXPORT ORDINAL="3490" NAME="?buttonDownScenePos@QGraphicsSceneMouseEvent@@QBE?AVQPointF@@W4MouseButton@Qt@@@Z" PURGE="8" COMMENT="" />
    <EXPORT ORDINAL="3491" NAME="?buttonDownScreenPos@QGraphicsSceneMouseEvent@@QBE?AVQPoint@@W4MouseButton@Qt@@@Z" PURGE="8" COMMENT="" />
    <EXPORT ORDINAL="3492" NAME="?buttonPressed@QButtonGroup@@IAEXH@Z" PURGE="4" COMMENT="" />
    <EXPORT ORDINAL="3493" NAME="?buttonPressed@QButtonGroup@@IAEXPAVQAbstractButton@@@Z" PURGE="4" COMMENT="" />
    <EXPORT ORDINAL="3494" NAME="?buttonReleased@QButtonGroup@@IAEXH@Z" PURGE="4" COMMENT="" />
    <EXPORT ORDINAL="3495" NAME="?buttonReleased@QButtonGroup@@IAEXPAVQAbstractButton@@@Z" PURGE="4" COMMENT="" />
    <EXPORT ORDINAL="3496" NAME="?buttonRole@QDialogButtonBox@@QBE?AW4ButtonRole@1@PAVQAbstractButton@@@Z" PURGE="4" COMMENT="" />
    <EXPORT ORDINAL="3497" NAME="?buttonRole@QMessageBox@@QBE?AW4ButtonRole@1@PAVQAbstractButton@@@Z" PURGE="4" COMMENT="" />
    <EXPORT ORDINAL="3498" NAME="?buttonSymbols@QAbstractSpinBox@@QBE?AW4ButtonSymbols@1@XZ" PURGE="0" COMMENT="" />
    <EXPORT ORDINAL="3499" NAME="?buttonText@QColorGroup@@QBEABVQColor@@XZ" PURGE="0" COMMENT="" />
    <EXPORT ORDINAL="3500" NAME="?buttonText@QMessageBox@@QBE?AVQString@@H@Z" PURGE="8" COMMENT="" />
    <EXPORT ORDINAL="3501" NAME="?buttonText@QPalette@@QBEABVQBrush@@XZ" PURGE="0" COMMENT="" />
    <EXPORT ORDINAL="3502" NAME="?buttonText@QWizard@@QBE?AVQString@@W4WizardButton@1@@Z" PURGE="8" COMMENT="" />
    <EXPORT ORDINAL="3503" NAME="?buttonText@QWizardPage@@QBE?AVQString@@W4WizardButton@QWizard@@@Z" PURGE="8" COMMENT="" />
    <EXPORT ORDINAL="3504" NAME="?buttons@QButtonGroup@@QBE?AV?$QList@PAVQAbstractButton@@@@XZ" PURGE="4" COMMENT="" />
    <EXPORT ORDINAL="3505" NAME="?buttons@QDialogButtonBox@@QBE?AV?$QList@PAVQAbstractButton@@@@XZ" PURGE="4" COMMENT="" />
    <EXPORT ORDINAL="3506" NAME="?buttons@QGraphicsSceneDragDropEvent@@QBE?AV?$QFlags@W4MouseButton@Qt@@@@XZ" PURGE="4" COMMENT="" />
    <EXPORT ORDINAL="3507" NAME="?buttons@QGraphicsSceneMouseEvent@@QBE?AV?$QFlags@W4MouseButton@Qt@@@@XZ" PURGE="4" COMMENT="" />
    <EXPORT ORDINAL="3508" NAME="?buttons@QGraphicsSceneWheelEvent@@QBE?AV?$QFlags@W4MouseButton@Qt@@@@XZ" PURGE="4" COMMENT="" />
    <EXPORT ORDINAL="3509" NAME="?buttons@QMessageBox@@QBE?AV?$QList@PAVQAbstractButton@@@@XZ" PURGE="4" COMMENT="" />
    <EXPORT ORDINAL="3510" NAME="?buttons@QMouseEvent@@QBE?AV?$QFlags@W4MouseButton@Qt@@@@XZ" PURGE="4" COMMENT="" />
    <EXPORT ORDINAL="3511" NAME="?buttons@QWheelEvent@@QBE?AV?$QFlags@W4MouseButton@Qt@@@@XZ" PURGE="4" COMMENT="" />
    <EXPORT ORDINAL="3512" NAME="?byteCount@QImage@@QBEHXZ" PURGE="0" COMMENT="" />
    <EXPORT ORDINAL="3513" NAME="?byteCount@QVolatileImage@@QBEHXZ" PURGE="0" COMMENT="" />
    <EXPORT ORDINAL="3514" NAME="?bytesPerLine@QImage@@QBEHXZ" PURGE="0" COMMENT="" />
    <EXPORT ORDINAL="3515" NAME="?bytesPerLine@QVolatileImage@@QBEHXZ" PURGE="0" COMMENT="" />
    <EXPORT ORDINAL="3516" NAME="?cacheEnabled@QTextLayout@@QBE_NXZ" PURGE="0" COMMENT="" />
    <EXPORT ORDINAL="3517" NAME="?cacheKey@QIcon@@QBE_JXZ" PURGE="0" COMMENT="" />
    <EXPORT ORDINAL="3518" NAME="?cacheKey@QImage@@QBE_JXZ" PURGE="0" COMMENT="" />
    <EXPORT ORDINAL="3519" NAME="?cacheKey@QPalette@@QBE_JXZ" PURGE="0" COMMENT="" />
    <EXPORT ORDINAL="3520" NAME="?cacheKey@QPixmap@@QBE_JXZ" PURGE="0" COMMENT="" />
    <EXPORT ORDINAL="3521" NAME="?cacheKey@QPixmapData@@QBE_JXZ" PURGE="0" COMMENT="" />
    <EXPORT ORDINAL="3522" NAME="?cacheLimit@QPixmapCache@@SAHXZ" PURGE="0" COMMENT="" />
    <EXPORT ORDINAL="3523" NAME="?cacheMode@QGraphicsItem@@QBE?AW4CacheMode@1@XZ" PURGE="0" COMMENT="" />
    <EXPORT ORDINAL="3524" NAME="?cacheMode@QGraphicsView@@QBE?AV?$QFlags@W4CacheModeFlag@QGraphicsView@@@@XZ" PURGE="4" COMMENT="" />
    <EXPORT ORDINAL="3525" NAME="?cacheMode@QMovie@@QAE?AW4CacheMode@1@XZ" PURGE="0" COMMENT="" />
    <EXPORT ORDINAL="3526" NAME="?cacheMode@QMovie@@QBE?AW4CacheMode@1@XZ" PURGE="0" COMMENT="" />
    <EXPORT ORDINAL="3527" NAME="?cacheStatistics@QFont@@SAXXZ" PURGE="0" COMMENT="" />
    <EXPORT ORDINAL="3528" NAME="?calcEffectiveOpacity@QGraphicsItemPrivate@@QBENXZ" PURGE="0" COMMENT="" />
    <EXPORT ORDINAL="3529" NAME="?calcLogicalIndices@QTreeViewPrivate@@QBEXPAV?$QVector@H@@PAV?$QVector@W4ViewItemPosition@QStyleOptionViewItemV4@@@@HH@Z" PURGE="16" COMMENT="" />
    <EXPORT ORDINAL="3530" NAME="?calculateSubPixelPositionCount@QTextureGlyphCache@@IBEHI@Z" PURGE="4" COMMENT="" />
    <EXPORT ORDINAL="3531" NAME="?calculateTabWidth@QTextEngine@@QBE?AUQFixed@@HU2@@Z" PURGE="12" COMMENT="" />
    <EXPORT ORDINAL="3532" NAME="?calendarPopup@QDateTimeEdit@@QBE_NXZ" PURGE="0" COMMENT="" />
    <EXPORT ORDINAL="3533" NAME="?calendarWidget@QDateTimeEdit@@QBEPAVQCalendarWidget@@XZ" PURGE="0" COMMENT="" />
    <EXPORT ORDINAL="3534" NAME="?canFetchMore@QAbstractProxyModel@@UBE_NABVQModelIndex@@@Z" PURGE="4" COMMENT="" />
    <EXPORT ORDINAL="3535" NAME="?canFetchMore@QFileSystemModel@@UBE_NABVQModelIndex@@@Z" PURGE="4" COMMENT="" />
    <EXPORT ORDINAL="3536" NAME="?canFetchMore@QSortFilterProxyModel@@UBE_NABVQModelIndex@@@Z" PURGE="4" COMMENT="" />
    <EXPORT ORDINAL="3537" NAME="?canInsertFromMimeData@QPlainTextEdit@@MBE_NPBVQMimeData@@@Z" PURGE="4" COMMENT="" />
    <EXPORT ORDINAL="3538" NAME="?canInsertFromMimeData@QTextControl@@UBE_NPBVQMimeData@@@Z" PURGE="4" COMMENT="" />
    <EXPORT ORDINAL="3539" NAME="?canInsertFromMimeData@QTextEdit@@MBE_NPBVQMimeData@@@Z" PURGE="4" COMMENT="" />
    <EXPORT ORDINAL="3540" NAME="?canPaste@QPlainTextEdit@@QBE_NXZ" PURGE="0" COMMENT="" />
    <EXPORT ORDINAL="3541" NAME="?canPaste@QTextControl@@QBE_NXZ" PURGE="0" COMMENT="" />
    <EXPORT ORDINAL="3542" NAME="?canPaste@QTextEdit@@QBE_NXZ" PURGE="0" COMMENT="" />
    <EXPORT ORDINAL="3543" NAME="?canRead@QImageReader@@QBE_NXZ" PURGE="0" COMMENT="" />
    <EXPORT ORDINAL="3544" NAME="?canReadData@QInternalMimeData@@SA_NABVQString@@@Z" PURGE="0" COMMENT="" />
    <EXPORT ORDINAL="3545" NAME="?canRedo@QUndoGroup@@QBE_NXZ" PURGE="0" COMMENT="" />
    <EXPORT ORDINAL="3546" NAME="?canRedo@QUndoStack@@QBE_NXZ" PURGE="0" COMMENT="" />
    <EXPORT ORDINAL="3547" NAME="?canRedoChanged@QUndoGroup@@IAEX_N@Z" PURGE="4" COMMENT="" />
    <EXPORT ORDINAL="3548" NAME="?canRedoChanged@QUndoStack@@IAEX_N@Z" PURGE="4" COMMENT="" />
    <EXPORT ORDINAL="3549" NAME="?canUndo@QUndoGroup@@QBE_NXZ" PURGE="0" COMMENT="" />
    <EXPORT ORDINAL="3550" NAME="?canUndo@QUndoStack@@QBE_NXZ" PURGE="0" COMMENT="" />
    <EXPORT ORDINAL="3551" NAME="?canUndoChanged@QUndoGroup@@IAEX_N@Z" PURGE="4" COMMENT="" />
    <EXPORT ORDINAL="3552" NAME="?canUndoChanged@QUndoStack@@IAEX_N@Z" PURGE="4" COMMENT="" />
    <EXPORT ORDINAL="3553" NAME="?canWrite@QImageWriter@@QBE_NXZ" PURGE="0" COMMENT="" />
    <EXPORT ORDINAL="3554" NAME="?cancel@QProgressDialog@@QAEXXZ" PURGE="0" COMMENT="" />
    <EXPORT ORDINAL="3555" NAME="?cancel@QSessionManager@@QAEXXZ" PURGE="0" COMMENT="" />
    <EXPORT ORDINAL="3556" NAME="?cancelButtonText@QInputDialog@@QBE?AVQString@@XZ" PURGE="4" COMMENT="" />
    <EXPORT ORDINAL="3557" NAME="?cancelPasswordEchoTimer@QLineControl@@AAEXXZ" PURGE="0" COMMENT="" />
    <EXPORT ORDINAL="3558" NAME="?cancelText@QLineControl@@QBE?AVQString@@XZ" PURGE="4" COMMENT="" />
    <EXPORT ORDINAL="3559" NAME="?canceled@QProgressDialog@@IAEXXZ" PURGE="0" COMMENT="" />
    <EXPORT ORDINAL="3560" NAME="?canceledGestures@QGestureEvent@@QBE?AV?$QList@PAVQGesture@@@@XZ" PURGE="4" COMMENT="" />
    <EXPORT ORDINAL="3561" NAME="?capForJoinMode@QStroker@@KA?AW4PenCapStyle@Qt@@W4LineJoinMode@1@@Z" PURGE="0" COMMENT="" />
    <EXPORT ORDINAL="3562" NAME="?capStyle@QPainterPathStroker@@QBE?AW4PenCapStyle@Qt@@XZ" PURGE="0" COMMENT="" />
    <EXPORT ORDINAL="3563" NAME="?capStyle@QPen@@QBE?AW4PenCapStyle@Qt@@XZ" PURGE="0" COMMENT="" />
    <EXPORT ORDINAL="3564" NAME="?capStyle@QStroker@@QBE?AW4PenCapStyle@Qt@@XZ" PURGE="0" COMMENT="" />
    <EXPORT ORDINAL="3565" NAME="?capStyleMode@QStroker@@QBE?AW4LineJoinMode@1@XZ" PURGE="0" COMMENT="" />
    <EXPORT ORDINAL="3566" NAME="?capabilities@QBlittable@@QBE?AV?$QFlags@W4Capability@QBlittable@@@@XZ" PURGE="4" COMMENT="" />
    <EXPORT ORDINAL="3567" NAME="?capitalization@QFont@@QBE?AW4Capitalization@1@XZ" PURGE="0" COMMENT="" />
    <EXPORT ORDINAL="3568" NAME="?caption@QWidget@@QBE?AVQString@@XZ" PURGE="4" COMMENT="" />
    <EXPORT ORDINAL="3569" NAME="?cascade@QWorkspace@@QAEXXZ" PURGE="0" COMMENT="" />
    <EXPORT ORDINAL="3570" NAME="?cascadeSubWindows@QMdiArea@@QAEXXZ" PURGE="0" COMMENT="" />
    <EXPORT ORDINAL="3571" NAME="?cascadingSectionResizes@QHeaderView@@QBE_NXZ" PURGE="0" COMMENT="" />
    <EXPORT ORDINAL="3572" NAME="?caseSensitivity@QCompleter@@QBE?AW4CaseSensitivity@Qt@@XZ" PURGE="0" COMMENT="" />
    <EXPORT ORDINAL="3573" NAME="?cast_helper@QAccessibleInterface@@AAEPAVQAccessible2Interface@@W4InterfaceType@QAccessible2@@@Z" PURGE="4" COMMENT="" />
    <EXPORT ORDINAL="3574" NAME="?cellActivated@QTableWidget@@IAEXHH@Z" PURGE="8" COMMENT="" />
    <EXPORT ORDINAL="3575" NAME="?cellAt@QTextTable@@QBE?AVQTextTableCell@@ABVQTextCursor@@@Z" PURGE="8" COMMENT="" />
    <EXPORT ORDINAL="3576" NAME="?cellAt@QTextTable@@QBE?AVQTextTableCell@@H@Z" PURGE="8" COMMENT="" />
    <EXPORT ORDINAL="3577" NAME="?cellAt@QTextTable@@QBE?AVQTextTableCell@@HH@Z" PURGE="12" COMMENT="" />
    <EXPORT ORDINAL="3578" NAME="?cellChanged@QTableWidget@@IAEXHH@Z" PURGE="8" COMMENT="" />
    <EXPORT ORDINAL="3579" NAME="?cellClicked@QTableWidget@@IAEXHH@Z" PURGE="8" COMMENT="" />
    <EXPORT ORDINAL="3580" NAME="?cellDoubleClicked@QTableWidget@@IAEXHH@Z" PURGE="8" COMMENT="" />
    <EXPORT ORDINAL="3581" NAME="?cellEntered@QTableWidget@@IAEXHH@Z" PURGE="8" COMMENT="" />
    <EXPORT ORDINAL="3582" NAME="?cellGeometry@QGridLayout@@QBE?AVQRect@@HH@Z" PURGE="12" COMMENT="" />
    <EXPORT ORDINAL="3583" NAME="?cellPadding@QTextTableFormat@@QBENXZ" PURGE="0" COMMENT="" />
    <EXPORT ORDINAL="3584" NAME="?cellPressed@QTableWidget@@IAEXHH@Z" PURGE="8" COMMENT="" />
    <EXPORT ORDINAL="3585" NAME="?cellRect@QGridLayout@@QBE?AVQRect@@HH@Z" PURGE="12" COMMENT="" />
    <EXPORT ORDINAL="3586" NAME="?cellSpacing@QTextTableFormat@@QBENXZ" PURGE="0" COMMENT="" />
    <EXPORT ORDINAL="3587" NAME="?cellWidget@QTableWidget@@QBEPAVQWidget@@HH@Z" PURGE="8" COMMENT="" />
    <EXPORT ORDINAL="3588" NAME="?center@QConicalGradient@@QBE?AVQPointF@@XZ" PURGE="4" COMMENT="" />
    <EXPORT ORDINAL="3589" NAME="?center@QRadialGradient@@QBE?AVQPointF@@XZ" PURGE="4" COMMENT="" />
    <EXPORT ORDINAL="3590" NAME="?centerButtons@QDialogButtonBox@@QBE_NXZ" PURGE="0" COMMENT="" />
    <EXPORT ORDINAL="3591" NAME="?centerCursor@QPlainTextEdit@@QAEXXZ" PURGE="0" COMMENT="" />
    <EXPORT ORDINAL="3592" NAME="?centerOn@QGraphicsView@@QAEXABVQPointF@@@Z" PURGE="4" COMMENT="" />
    <EXPORT ORDINAL="3593" NAME="?centerOn@QGraphicsView@@QAEXNN@Z" PURGE="16" COMMENT="" />
    <EXPORT ORDINAL="3594" NAME="?centerOn@QGraphicsView@@QAEXPBVQGraphicsItem@@@Z" PURGE="4" COMMENT="" />
    <EXPORT ORDINAL="3595" NAME="?centerOnScroll@QPlainTextEdit@@QBE_NXZ" PURGE="0" COMMENT="" />
    <EXPORT ORDINAL="3596" NAME="?centerPoint@QPinchGesture@@QBE?AVQPointF@@XZ" PURGE="4" COMMENT="" />
    <EXPORT ORDINAL="3597" NAME="?centerRadius@QRadialGradient@@QBENXZ" PURGE="0" COMMENT="" />
    <EXPORT ORDINAL="3598" NAME="?centerView@QGraphicsViewPrivate@@QAEXW4ViewportAnchor@QGraphicsView@@@Z" PURGE="4" COMMENT="" />
    <EXPORT ORDINAL="3599" NAME="?centralWidget@QMainWindow@@QBEPAVQWidget@@XZ" PURGE="0" COMMENT="" />
    <EXPORT ORDINAL="3600" NAME="?changeEvent@QAbstractButton@@MAEXPAVQEvent@@@Z" PURGE="4" COMMENT="" />
    <EXPORT ORDINAL="3601" NAME="?changeEvent@QAbstractSlider@@MAEXPAVQEvent@@@Z" PURGE="4" COMMENT="" />
    <EXPORT ORDINAL="3602" NAME="?changeEvent@QAbstractSpinBox@@MAEXPAVQEvent@@@Z" PURGE="4" COMMENT="" />
    <EXPORT ORDINAL="3603" NAME="?changeEvent@QColorDialog@@MAEXPAVQEvent@@@Z" PURGE="4" COMMENT="" />
    <EXPORT ORDINAL="3604" NAME="?changeEvent@QComboBox@@MAEXPAVQEvent@@@Z" PURGE="4" COMMENT="" />
    <EXPORT ORDINAL="3605" NAME="?changeEvent@QDialogButtonBox@@MAEXPAVQEvent@@@Z" PURGE="4" COMMENT="" />
    <EXPORT ORDINAL="3606" NAME="?changeEvent@QDockWidget@@MAEXPAVQEvent@@@Z" PURGE="4" COMMENT="" />
    <EXPORT ORDINAL="3607" NAME="?changeEvent@QErrorMessage@@MAEXPAVQEvent@@@Z" PURGE="4" COMMENT="" />
    <EXPORT ORDINAL="3608" NAME="?changeEvent@QFileDialog@@MAEXPAVQEvent@@@Z" PURGE="4" COMMENT="" />
    <EXPORT ORDINAL="3609" NAME="?changeEvent@QFontDialog@@MAEXPAVQEvent@@@Z" PURGE="4" COMMENT="" />
    <EXPORT ORDINAL="3610" NAME="?changeEvent@QFrame@@MAEXPAVQEvent@@@Z" PURGE="4" COMMENT="" />
    <EXPORT ORDINAL="3611" NAME="?changeEvent@QGraphicsWidget@@MAEXPAVQEvent@@@Z" PURGE="4" COMMENT="" />
    <EXPORT ORDINAL="3612" NAME="?changeEvent@QGroupBox@@MAEXPAVQEvent@@@Z" PURGE="4" COMMENT="" />
    <EXPORT ORDINAL="3613" NAME="?changeEvent@QLabel@@MAEXPAVQEvent@@@Z" PURGE="4" COMMENT="" />
    <EXPORT ORDINAL="3614" NAME="?changeEvent@QLineEdit@@MAEXPAVQEvent@@@Z" PURGE="4" COMMENT="" />
    <EXPORT ORDINAL="3615" NAME="?changeEvent@QMdiSubWindow@@MAEXPAVQEvent@@@Z" PURGE="4" COMMENT="" />
    <EXPORT ORDINAL="3616" NAME="?changeEvent@QMenu@@MAEXPAVQEvent@@@Z" PURGE="4" COMMENT="" />
    <EXPORT ORDINAL="3617" NAME="?changeEvent@QMenuBar@@MAEXPAVQEvent@@@Z" PURGE="4" COMMENT="" />
    <EXPORT ORDINAL="3618" NAME="?changeEvent@QMessageBox@@MAEXPAVQEvent@@@Z" PURGE="4" COMMENT="" />
    <EXPORT ORDINAL="3619" NAME="?changeEvent@QPlainTextEdit@@MAEXPAVQEvent@@@Z" PURGE="4" COMMENT="" />
    <EXPORT ORDINAL="3620" NAME="?changeEvent@QProgressDialog@@MAEXPAVQEvent@@@Z" PURGE="4" COMMENT="" />
    <EXPORT ORDINAL="3621" NAME="?changeEvent@QRubberBand@@MAEXPAVQEvent@@@Z" PURGE="4" COMMENT="" />
    <EXPORT ORDINAL="3622" NAME="?changeEvent@QSplitter@@MAEXPAVQEvent@@@Z" PURGE="4" COMMENT="" />
    <EXPORT ORDINAL="3623" NAME="?changeEvent@QTabBar@@MAEXPAVQEvent@@@Z" PURGE="4" COMMENT="" />
    <EXPORT ORDINAL="3624" NAME="?changeEvent@QTabWidget@@MAEXPAVQEvent@@@Z" PURGE="4" COMMENT="" />
    <EXPORT ORDINAL="3625" NAME="?changeEvent@QTextEdit@@MAEXPAVQEvent@@@Z" PURGE="4" COMMENT="" />
    <EXPORT ORDINAL="3626" NAME="?changeEvent@QToolBar@@MAEXPAVQEvent@@@Z" PURGE="4" COMMENT="" />
    <EXPORT ORDINAL="3627" NAME="?changeEvent@QToolBox@@MAEXPAVQEvent@@@Z" PURGE="4" COMMENT="" />
    <EXPORT ORDINAL="3628" NAME="?changeEvent@QToolButton@@MAEXPAVQEvent@@@Z" PURGE="4" COMMENT="" />
    <EXPORT ORDINAL="3629" NAME="?changeEvent@QWidget@@MAEXPAVQEvent@@@Z" PURGE="4" COMMENT="" />
    <EXPORT ORDINAL="3630" NAME="?changeEvent@QWorkspace@@MAEXPAVQEvent@@@Z" PURGE="4" COMMENT="" />
    <EXPORT ORDINAL="3631" NAME="?changeFlags@QPinchGesture@@QBE?AV?$QFlags@W4ChangeFlag@QPinchGesture@@@@XZ" PURGE="4" COMMENT="" />
    <EXPORT ORDINAL="3632" NAME="?changeItem@QComboBox@@QAEXABVQPixmap@@ABVQString@@H@Z" PURGE="12" COMMENT="" />
    <EXPORT ORDINAL="3633" NAME="?changeItem@QComboBox@@QAEXABVQPixmap@@H@Z" PURGE="8" COMMENT="" />
    <EXPORT ORDINAL="3634" NAME="?changeItem@QComboBox@@QAEXABVQString@@H@Z" PURGE="8" COMMENT="" />
    <EXPORT ORDINAL="3635" NAME="?changeItem@QMenu@@QAEXHABVQIcon@@ABVQString@@@Z" PURGE="12" COMMENT="" />
    <EXPORT ORDINAL="3636" NAME="?changeItem@QMenu@@QAEXHABVQPixmap@@@Z" PURGE="8" COMMENT="" />
    <EXPORT ORDINAL="3637" NAME="?changeItem@QMenu@@QAEXHABVQString@@@Z" PURGE="8" COMMENT="" />
    <EXPORT ORDINAL="3638" NAME="?changeItem@QMenuBar@@QAEXHABVQIcon@@ABVQString@@@Z" PURGE="12" COMMENT="" />
    <EXPORT ORDINAL="3639" NAME="?changeItem@QMenuBar@@QAEXHABVQPixmap@@@Z" PURGE="8" COMMENT="" />
    <EXPORT ORDINAL="3640" NAME="?changeItem@QMenuBar@@QAEXHABVQString@@@Z" PURGE="8" COMMENT="" />
    <EXPORT ORDINAL="3641" NAME="?changeOverrideCursor@QApplication@@SAXABVQCursor@@@Z" PURGE="0" COMMENT="" />
    <EXPORT ORDINAL="3642" NAME="?changeSize@QSpacerItem@@QAEXHHW4Policy@QSizePolicy@@0@Z" PURGE="16" COMMENT="" />
    <EXPORT ORDINAL="3643" NAME="?changeTab@QTabWidget@@QAEXPAVQWidget@@ABVQIcon@@ABVQString@@@Z" PURGE="12" COMMENT="" />
    <EXPORT ORDINAL="3644" NAME="?changeTab@QTabWidget@@QAEXPAVQWidget@@ABVQString@@@Z" PURGE="8" COMMENT="" />
    <EXPORT ORDINAL="3645" NAME="?changed@QAction@@IAEXXZ" PURGE="0" COMMENT="" />
    <EXPORT ORDINAL="3646" NAME="?changed@QClipboard@@IAEXW4Mode@1@@Z" PURGE="4" COMMENT="" />
    <EXPORT ORDINAL="3647" NAME="?changed@QGraphicsScene@@IAEXABV?$QList@VQRectF@@@@@Z" PURGE="4" COMMENT="" />
    <EXPORT ORDINAL="3648" NAME="?charFormat@QTextBlock@@QBE?AVQTextCharFormat@@XZ" PURGE="4" COMMENT="" />
    <EXPORT ORDINAL="3649" NAME="?charFormat@QTextCursor@@QBE?AVQTextCharFormat@@XZ" PURGE="4" COMMENT="" />
    <EXPORT ORDINAL="3650" NAME="?charFormat@QTextFormatCollection@@QBE?AVQTextCharFormat@@H@Z" PURGE="8" COMMENT="" />
    <EXPORT ORDINAL="3651" NAME="?charFormat@QTextFragment@@QBE?AVQTextCharFormat@@XZ" PURGE="4" COMMENT="" />
    <EXPORT ORDINAL="3652" NAME="?charFormatIndex@QTextBlock@@QBEHXZ" PURGE="0" COMMENT="" />
    <EXPORT ORDINAL="3653" NAME="?charFormatIndex@QTextFragment@@QBEHXZ" PURGE="0" COMMENT="" />
    <EXPORT ORDINAL="3654" NAME="?charWidth@QFontMetrics@@QBEHABVQString@@H@Z" PURGE="8" COMMENT="" />
    <EXPORT ORDINAL="3655" NAME="?characterAt@QLineEdit@@QBEHHPAVQChar@@@Z" PURGE="8" COMMENT="" />
    <EXPORT ORDINAL="3656" NAME="?characterAt@QTextDocument@@QBE?AVQChar@@H@Z" PURGE="8" COMMENT="" />
    <EXPORT ORDINAL="3657" NAME="?characterCount@QTextDocument@@QBEHXZ" PURGE="0" COMMENT="" />
    <EXPORT ORDINAL="3658" NAME="?check@QItemDelegate@@IBE?AVQRect@@ABVQStyleOptionViewItem@@ABV2@ABVQVariant@@@Z" PURGE="16" COMMENT="" />
    <EXPORT ORDINAL="3659" NAME="?checkForAlphaPixels@QImageData@@QBE_NXZ" PURGE="0" COMMENT="" />
    <EXPORT ORDINAL="3660" NAME="?checkOverflow@QLCDNumber@@QBE_NH@Z" PURGE="4" COMMENT="" />
    <EXPORT ORDINAL="3661" NAME="?checkOverflow@QLCDNumber@@QBE_NN@Z" PURGE="8" COMMENT="" />
    <EXPORT ORDINAL="3662" NAME="?checkState@QCheckBox@@QBE?AW4CheckState@Qt@@XZ" PURGE="0" COMMENT="" />
    <EXPORT ORDINAL="3663" NAME="?checkState@QListWidgetItem@@QBE?AW4CheckState@Qt@@XZ" PURGE="0" COMMENT="" />
    <EXPORT ORDINAL="3664" NAME="?checkState@QStandardItem@@QBE?AW4CheckState@Qt@@XZ" PURGE="0" COMMENT="" />
    <EXPORT ORDINAL="3665" NAME="?checkState@QTableWidgetItem@@QBE?AW4CheckState@Qt@@XZ" PURGE="0" COMMENT="" />
    <EXPORT ORDINAL="3666" NAME="?checkState@QTreeWidgetItem@@QBE?AW4CheckState@Qt@@H@Z" PURGE="4" COMMENT="" />
    <EXPORT ORDINAL="3667" NAME="?checkStateSet@QAbstractButton@@MAEXXZ" PURGE="0" COMMENT="" />
    <EXPORT ORDINAL="3668" NAME="?checkStateSet@QCheckBox@@MAEXXZ" PURGE="0" COMMENT="" />
    <EXPORT ORDINAL="3669" NAME="?checkedAction@QActionGroup@@QBEPAVQAction@@XZ" PURGE="0" COMMENT="" />
    <EXPORT ORDINAL="3670" NAME="?checkedButton@QButtonGroup@@QBEPAVQAbstractButton@@XZ" PURGE="0" COMMENT="" />
    <EXPORT ORDINAL="3671" NAME="?checkedId@QButtonGroup@@QBEHXZ" PURGE="0" COMMENT="" />
    <EXPORT ORDINAL="3672" NAME="?child@QAccessibleEvent@@QBEHXZ" PURGE="0" COMMENT="" />
    <EXPORT ORDINAL="3673" NAME="?child@QStandardItem@@QBEPAV1@HH@Z" PURGE="8" COMMENT="" />
    <EXPORT ORDINAL="3674" NAME="?child@QTreeWidgetItem@@QBEPAV1@H@Z" PURGE="4" COMMENT="" />
    <EXPORT ORDINAL="3675" NAME="?child@QUndoCommand@@QBEPBV1@H@Z" PURGE="4" COMMENT="" />
    <EXPORT ORDINAL="3676" NAME="?childAt@QAccessibleApplication@@UBEHHH@Z" PURGE="8" COMMENT="" />
    <EXPORT ORDINAL="3677" NAME="?childAt@QAccessibleWidget@@UBEHHH@Z" PURGE="8" COMMENT="" />
    <EXPORT ORDINAL="3678" NAME="?childAt@QAccessibleWidgetEx@@UBEHHH@Z" PURGE="8" COMMENT="" />
    <EXPORT ORDINAL="3679" NAME="?childAt@QWidget@@QBEPAV1@ABVQPoint@@@Z" PURGE="4" COMMENT="" />
    <EXPORT ORDINAL="3680" NAME="?childAt@QWidget@@QBEPAV1@ABVQPoint@@_N@Z" PURGE="8" COMMENT="" />
    <EXPORT ORDINAL="3681" NAME="?childAt@QWidget@@QBEPAV1@HH@Z" PURGE="8" COMMENT="" />
    <EXPORT ORDINAL="3682" NAME="?childAt@QWidget@@QBEPAV1@HH_N@Z" PURGE="12" COMMENT="" />
    <EXPORT ORDINAL="3683" NAME="?childAtRecursiveHelper@QWidgetPrivate@@QBEPAVQWidget@@ABVQPoint@@_N1@Z" PURGE="12" COMMENT="" />
    <EXPORT ORDINAL="3684" NAME="?childAt_helper@QWidgetPrivate@@QBEPAVQWidget@@ABVQPoint@@_N@Z" PURGE="8" COMMENT="" />
    <EXPORT ORDINAL="3685" NAME="?childCount@QAccessibleApplication@@UBEHXZ" PURGE="0" COMMENT="" />
    <EXPORT ORDINAL="3686" NAME="?childCount@QAccessibleWidget@@UBEHXZ" PURGE="0" COMMENT="" />
    <EXPORT ORDINAL="3687" NAME="?childCount@QAccessibleWidgetEx@@UBEHXZ" PURGE="0" COMMENT="" />
    <EXPORT ORDINAL="3688" NAME="?childCount@QTreeWidgetItem@@QBEHXZ" PURGE="-1" COMMENT="" />
    <EXPORT ORDINAL="3689" NAME="?childCount@QUndoCommand@@QBEHXZ" PURGE="-1" COMMENT="" />
    <EXPORT ORDINAL="3690" NAME="?childEvent@QGroupBox@@MAEXPAVQChildEvent@@@Z" PURGE="4" COMMENT="" />
    <EXPORT ORDINAL="3691" NAME="?childEvent@QLayout@@MAEXPAVQChildEvent@@@Z" PURGE="4" COMMENT="" />
    <EXPORT ORDINAL="3692" NAME="?childEvent@QMdiArea@@MAEXPAVQChildEvent@@@Z" PURGE="4" COMMENT="" />
    <EXPORT ORDINAL="3693" NAME="?childEvent@QMdiSubWindow@@MAEXPAVQChildEvent@@@Z" PURGE="4" COMMENT="" />
    <EXPORT ORDINAL="3694" NAME="?childEvent@QSplitter@@MAEXPAVQChildEvent@@@Z" PURGE="4" COMMENT="" />
    <EXPORT ORDINAL="3695" NAME="?childEvent@QToolBar@@MAEXPAVQChildEvent@@@Z" PURGE="-1" COMMENT="" />
    <EXPORT ORDINAL="3696" NAME="?childEvent@QWorkspace@@MAEXPAVQChildEvent@@@Z" PURGE="4" COMMENT="" />
    <EXPORT ORDINAL="3697" NAME="?childFrames@QTextFrame@@QBE?AV?$QList@PAVQTextFrame@@@@XZ" PURGE="4" COMMENT="" />
    <EXPORT ORDINAL="3698" NAME="?childIndicatorPolicy@QTreeWidgetItem@@QBE?AW4ChildIndicatorPolicy@1@XZ" PURGE="0" COMMENT="" />
    <EXPORT ORDINAL="3699" NAME="?childItems@QGraphicsItem@@QBE?AV?$QList@PAVQGraphicsItem@@@@XZ" PURGE="4" COMMENT="" />
    <EXPORT ORDINAL="3700" NAME="?children@QGraphicsItem@@QBE?AV?$QList@PAVQGraphicsItem@@@@XZ" PURGE="4" COMMENT="" />
    <EXPORT ORDINAL="3701" NAME="?childrenBoundingRect@QGraphicsItem@@QBE?AVQRectF@@XZ" PURGE="4" COMMENT="" />
    <EXPORT ORDINAL="3702" NAME="?childrenBoundingRectHelper@QGraphicsItemPrivate@@QAEXPAVQTransform@@PAVQRectF@@PAVQGraphicsItem@@@Z" PURGE="12" COMMENT="" />
    <EXPORT ORDINAL="3703" NAME="?childrenChanged@QGraphicsObject@@IAEXXZ" PURGE="0" COMMENT="" />
    <EXPORT ORDINAL="3704" NAME="?childrenCheckState@QTreeWidgetItem@@ABE?AVQVariant@@H@Z" PURGE="8" COMMENT="" />
    <EXPORT ORDINAL="3705" NAME="?childrenClippedToShape@QGraphicsItemPrivate@@QBE_NXZ" PURGE="0" COMMENT="" />
    <EXPORT ORDINAL="3706" NAME="?childrenCollapsible@QSplitter@@QBE_NXZ" PURGE="0" COMMENT="" />
    <EXPORT ORDINAL="3707" NAME="?childrenCombineOpacity@QGraphicsItemPrivate@@QBE_NXZ" PURGE="0" COMMENT="" />
    <EXPORT ORDINAL="3708" NAME="?childrenList@QGraphicsItemPrivate@@QAE?AV?$QDeclarativeListProperty@VQGraphicsObject@@@@XZ" PURGE="4" COMMENT="" />
    <EXPORT ORDINAL="3709" NAME="?childrenRect@QWidget@@QBE?AVQRect@@XZ" PURGE="4" COMMENT="" />
    <EXPORT ORDINAL="3710" NAME="?childrenRegion@QWidget@@QBE?AVQRegion@@XZ" PURGE="4" COMMENT="" />
    <EXPORT ORDINAL="3711" NAME="?children_append@QGraphicsItemPrivate@@SAXPAV?$QDeclarativeListProperty@VQGraphicsObject@@@@PAVQGraphicsObject@@@Z" PURGE="0" COMMENT="" />
    <EXPORT ORDINAL="3712" NAME="?children_at@QGraphicsItemPrivate@@SAPAVQGraphicsObject@@PAV?$QDeclarativeListProperty@VQGraphicsObject@@@@H@Z" PURGE="0" COMMENT="" />
    <EXPORT ORDINAL="3713" NAME="?children_clear@QGraphicsItemPrivate@@SAXPAV?$QDeclarativeListProperty@VQGraphicsObject@@@@@Z" PURGE="0" COMMENT="" />
    <EXPORT ORDINAL="3714" NAME="?children_count@QGraphicsItemPrivate@@SAHPAV?$QDeclarativeListProperty@VQGraphicsObject@@@@@Z" PURGE="-1" COMMENT="" />
    <EXPORT ORDINAL="3715" NAME="?classId@QPixmapData@@QBE?AW4ClassId@1@XZ" PURGE="0" COMMENT="" />
    <EXPORT ORDINAL="3716" NAME="?cleanChanged@QUndoGroup@@IAEX_N@Z" PURGE="4" COMMENT="" />
    <EXPORT ORDINAL="3717" NAME="?cleanChanged@QUndoStack@@IAEX_N@Z" PURGE="4" COMMENT="" />
    <EXPORT ORDINAL="3718" NAME="?cleanIcon@QUndoView@@QBE?AVQIcon@@XZ" PURGE="4" COMMENT="" />
    <EXPORT ORDINAL="3719" NAME="?cleanIndex@QUndoStack@@QBEHXZ" PURGE="0" COMMENT="" />
    <EXPORT ORDINAL="3720" NAME="?cleanText@QDoubleSpinBox@@QBE?AVQString@@XZ" PURGE="4" COMMENT="" />
    <EXPORT ORDINAL="3721" NAME="?cleanText@QSpinBox@@QBE?AVQString@@XZ" PURGE="4" COMMENT="" />
    <EXPORT ORDINAL="3722" NAME="?cleanUp@QBrush@@AAEXPAUQBrushData@@@Z" PURGE="4" COMMENT="" />
    <EXPORT ORDINAL="3723" NAME="?cleanUp@QRegion@@CAXPAUQRegionData@1@@Z" PURGE="0" COMMENT="" />
    <EXPORT ORDINAL="3724" NAME="?cleanup@QAccessible@@SAXXZ" PURGE="0" COMMENT="" />
    <EXPORT ORDINAL="3725" NAME="?cleanup@QColormap@@SAXXZ" PURGE="0" COMMENT="" />
    <EXPORT ORDINAL="3726" NAME="?cleanup@QFont@@SAXXZ" PURGE="0" COMMENT="" />
    <EXPORT ORDINAL="3727" NAME="?cleanupMultitouch@QApplicationPrivate@@QAEXXZ" PURGE="0" COMMENT="" />
    <EXPORT ORDINAL="3728" NAME="?cleanupMultitouch_sys@QApplicationPrivate@@QAEXXZ" PURGE="0" COMMENT="" />
    <EXPORT ORDINAL="3729" NAME="?cleanupPage@QWizard@@MAEXH@Z" PURGE="4" COMMENT="" />
    <EXPORT ORDINAL="3730" NAME="?cleanupPage@QWizardPage@@UAEXXZ" PURGE="0" COMMENT="" />
    <EXPORT ORDINAL="3731" NAME="?clear@?$QList@VQItemSelectionRange@@@@QAEXXZ" PURGE="0" COMMENT="" />
    <EXPORT ORDINAL="3732" NAME="?clear@QAbstractSpinBox@@UAEXXZ" PURGE="0" COMMENT="" />
    <EXPORT ORDINAL="3733" NAME="?clear@QBitmap@@QAEXXZ" PURGE="0" COMMENT="" />
    <EXPORT ORDINAL="3734" NAME="?clear@QClipboard@@QAEXW4Mode@1@@Z" PURGE="4" COMMENT="" />
    <EXPORT ORDINAL="3735" NAME="?clear@QComboBox@@QAEXXZ" PURGE="0" COMMENT="" />
    <EXPORT ORDINAL="3736" NAME="?clear@QDateTimeEdit@@UAEXXZ" PURGE="0" COMMENT="" />
    <EXPORT ORDINAL="3737" NAME="?clear@QDialogButtonBox@@QAEXXZ" PURGE="0" COMMENT="" />
    <EXPORT ORDINAL="3738" NAME="?clear@QGlyphRun@@QAEXXZ" PURGE="0" COMMENT="" />
    <EXPORT ORDINAL="3739" NAME="?clear@QGraphicsItemAnimation@@QAEXXZ" PURGE="0" COMMENT="" />
    <EXPORT ORDINAL="3740" NAME="?clear@QGraphicsScene@@QAEXXZ" PURGE="0" COMMENT="" />
    <EXPORT ORDINAL="3741" NAME="?clear@QItemSelectionModel@@UAEXXZ" PURGE="0" COMMENT="" />
    <EXPORT ORDINAL="3742" NAME="?clear@QLabel@@QAEXXZ" PURGE="0" COMMENT="" />
    <EXPORT ORDINAL="3743" NAME="?clear@QLineControl@@QAEXXZ" PURGE="0" COMMENT="" />
    <EXPORT ORDINAL="3744" NAME="?clear@QLineEdit@@QAEXXZ" PURGE="0" COMMENT="" />
    <EXPORT ORDINAL="3745" NAME="?clear@QListWidget@@QAEXXZ" PURGE="-1" COMMENT="" />
    <EXPORT ORDINAL="3746" NAME="?clear@QMenu@@QAEXXZ" PURGE="0" COMMENT="" />
    <EXPORT ORDINAL="3747" NAME="?clear@QMenuBar@@QAEXXZ" PURGE="0" COMMENT="" />
    <EXPORT ORDINAL="3748" NAME="?clear@QPixmapCache@@SAXXZ" PURGE="0" COMMENT="" />
    <EXPORT ORDINAL="3749" NAME="?clear@QPlainTextEdit@@QAEXXZ" PURGE="0" COMMENT="" />
    <EXPORT ORDINAL="3750" NAME="?clear@QSortFilterProxyModel@@QAEXXZ" PURGE="-1" COMMENT="" />
    <EXPORT ORDINAL="3751" NAME="?clear@QSplashScreen@@QAEXXZ" PURGE="-1" COMMENT="" />
    <EXPORT ORDINAL="3752" NAME="?clear@QStandardItemModel@@QAEXXZ" PURGE="0" COMMENT="" />
    <EXPORT ORDINAL="3753" NAME="?clear@QStatusBar@@QAEXXZ" PURGE="0" COMMENT="" />
    <EXPORT ORDINAL="3754" NAME="?clear@QTabWidget@@QAEXXZ" PURGE="0" COMMENT="" />
    <EXPORT ORDINAL="3755" NAME="?clear@QTableWidget@@QAEXXZ" PURGE="-1" COMMENT="" />
    <EXPORT ORDINAL="3756" NAME="?clear@QTextControl@@QAEXXZ" PURGE="0" COMMENT="" />
    <EXPORT ORDINAL="3757" NAME="?clear@QTextDocument@@UAEXXZ" PURGE="0" COMMENT="" />
    <EXPORT ORDINAL="3758" NAME="?clear@QTextEdit@@QAEXXZ" PURGE="0" COMMENT="" />
    <EXPORT ORDINAL="3759" NAME="?clear@QToolBar@@QAEXXZ" PURGE="0" COMMENT="" />
    <EXPORT ORDINAL="3760" NAME="?clear@QTreeWidget@@QAEXXZ" PURGE="0" COMMENT="" />
    <EXPORT ORDINAL="3761" NAME="?clear@QUndoStack@@QAEXXZ" PURGE="0" COMMENT="" />
    <EXPORT ORDINAL="3762" NAME="?clearAdditionalFormats@QTextLayout@@QAEXXZ" PURGE="0" COMMENT="" />
    <EXPORT ORDINAL="3763" NAME="?clearBackground@QTextFormat@@QAEXXZ" PURGE="0" COMMENT="" />
    <EXPORT ORDINAL="3764" NAME="?clearColumnWidthConstraints@QTextTableFormat@@QAEXXZ" PURGE="0" COMMENT="" />
    <EXPORT ORDINAL="3765" NAME="?clearContents@QTableWidget@@QAEXXZ" PURGE="-1" COMMENT="" />
    <EXPORT ORDINAL="3766" NAME="?clearDirty@QPaintEngine@@QAEXV?$QFlags@W4DirtyFlag@QPaintEngine@@@@@Z" PURGE="4" COMMENT="" />
    <EXPORT ORDINAL="3767" NAME="?clearEdit@QComboBox@@QAEXXZ" PURGE="0" COMMENT="" />
    <EXPORT ORDINAL="3768" NAME="?clearEditText@QComboBox@@QAEXXZ" PURGE="0" COMMENT="" />
    <EXPORT ORDINAL="3769" NAME="?clearFocus@QGraphicsItem@@QAEXXZ" PURGE="0" COMMENT="" />
    <EXPORT ORDINAL="3770" NAME="?clearFocus@QGraphicsScene@@QAEXXZ" PURGE="0" COMMENT="" />
    <EXPORT ORDINAL="3771" NAME="?clearFocus@QWidget@@QAEXXZ" PURGE="0" COMMENT="" />
    <EXPORT ORDINAL="3772" NAME="?clearFocusHelper@QGraphicsItemPrivate@@QAEX_N@Z" PURGE="4" COMMENT="" />
    <EXPORT ORDINAL="3773" NAME="?clearForeground@QTextFormat@@QAEXXZ" PURGE="0" COMMENT="" />
    <EXPORT ORDINAL="3774" NAME="?clearHistory@QTextBrowser@@QAEXXZ" PURGE="0" COMMENT="" />
    <EXPORT ORDINAL="3775" NAME="?clearLayout@QTextBlock@@QAEXXZ" PURGE="0" COMMENT="" />
    <EXPORT ORDINAL="3776" NAME="?clearLayout@QTextLayout@@QAEXXZ" PURGE="0" COMMENT="" />
    <EXPORT ORDINAL="3777" NAME="?clearLineData@QTextEngine@@QAEXXZ" PURGE="0" COMMENT="" />
    <EXPORT ORDINAL="3778" NAME="?clearMapping@QDataWidgetMapper@@QAEXXZ" PURGE="0" COMMENT="" />
    <EXPORT ORDINAL="3779" NAME="?clearMask@QWidget@@QAEXXZ" PURGE="0" COMMENT="" />
    <EXPORT ORDINAL="3780" NAME="?clearMaximumDate@QDateTimeEdit@@QAEXXZ" PURGE="0" COMMENT="" />
    <EXPORT ORDINAL="3781" NAME="?clearMaximumDateTime@QDateTimeEdit@@QAEXXZ" PURGE="0" COMMENT="" />
    <EXPORT ORDINAL="3782" NAME="?clearMaximumTime@QDateTimeEdit@@QAEXXZ" PURGE="0" COMMENT="" />
    <EXPORT ORDINAL="3783" NAME="?clearMessage@QSplashScreen@@QAEXXZ" PURGE="-1" COMMENT="" />
    <EXPORT ORDINAL="3784" NAME="?clearMessage@QStatusBar@@QAEXXZ" PURGE="0" COMMENT="" />
    <EXPORT ORDINAL="3785" NAME="?clearMinimumDate@QDateTimeEdit@@QAEXXZ" PURGE="0" COMMENT="" />
    <EXPORT ORDINAL="3786" NAME="?clearMinimumDateTime@QDateTimeEdit@@QAEXXZ" PURGE="0" COMMENT="" />
    <EXPORT ORDINAL="3787" NAME="?clearMinimumTime@QDateTimeEdit@@QAEXXZ" PURGE="0" COMMENT="" />
    <EXPORT ORDINAL="3788" NAME="?clearModified@QLineEdit@@QAEXXZ" PURGE="0" COMMENT="" />
    <EXPORT ORDINAL="3789" NAME="?clearProperty@QTextFormat@@QAEXH@Z" PURGE="4" COMMENT="" />
    <EXPORT ORDINAL="3790" NAME="?clearPropertyFlags@QListView@@QAEXXZ" PURGE="0" COMMENT="" />
    <EXPORT ORDINAL="3791" NAME="?clearSelection@QAbstractItemView@@QAEXXZ" PURGE="0" COMMENT="" />
    <EXPORT ORDINAL="3792" NAME="?clearSelection@QGraphicsScene@@QAEXXZ" PURGE="0" COMMENT="" />
    <EXPORT ORDINAL="3793" NAME="?clearSelection@QItemSelectionModel@@QAEXXZ" PURGE="0" COMMENT="" />
    <EXPORT ORDINAL="3794" NAME="?clearSelection@QTextCursor@@QAEXXZ" PURGE="0" COMMENT="" />
    <EXPORT ORDINAL="3795" NAME="?clearSpans@QTableView@@QAEXXZ" PURGE="0" COMMENT="" />
    <EXPORT ORDINAL="3796" NAME="?clearString@QLineControl@@ABE?AVQString@@II@Z" PURGE="12" COMMENT="" />
    <EXPORT ORDINAL="3797" NAME="?clearSubFocus@QGraphicsItemPrivate@@QAEXPAVQGraphicsItem@@0@Z" PURGE="8" COMMENT="" />
    <EXPORT ORDINAL="3798" NAME="?clearUndo@QLineControl@@QAEXXZ" PURGE="0" COMMENT="" />
    <EXPORT ORDINAL="3799" NAME="?clearUndoRedoStacks@QTextDocument@@QAEXW4Stacks@1@@Z" PURGE="4" COMMENT="" />
    <EXPORT ORDINAL="3800" NAME="?clearValidator@QComboBox@@QAEXXZ" PURGE="0" COMMENT="" />
    <EXPORT ORDINAL="3801" NAME="?clearValidator@QLineEdit@@QAEXXZ" PURGE="0" COMMENT="" />
    <EXPORT ORDINAL="3802" NAME="?click@QAbstractButton@@QAEXXZ" PURGE="0" COMMENT="" />
    <EXPORT ORDINAL="3803" NAME="?clicked@QAbstractButton@@IAEX_N@Z" PURGE="4" COMMENT="" />
    <EXPORT ORDINAL="3804" NAME="?clicked@QAbstractItemView@@IAEXABVQModelIndex@@@Z" PURGE="4" COMMENT="" />
    <EXPORT ORDINAL="3805" NAME="?clicked@QCalendarWidget@@IAEXABVQDate@@@Z" PURGE="4" COMMENT="" />
    <EXPORT ORDINAL="3806" NAME="?clicked@QDialogButtonBox@@IAEXPAVQAbstractButton@@@Z" PURGE="4" COMMENT="" />
    <EXPORT ORDINAL="3807" NAME="?clicked@QGroupBox@@IAEX_N@Z" PURGE="4" COMMENT="" />
    <EXPORT ORDINAL="3808" NAME="?clickedButton@QMessageBox@@QBEPAVQAbstractButton@@XZ" PURGE="0" COMMENT="" />
    <EXPORT ORDINAL="3809" NAME="?clip@QPaintEngineEx@@UAEXABVQPainterPath@@W4ClipOperation@Qt@@@Z" PURGE="8" COMMENT="" />
    <EXPORT ORDINAL="3810" NAME="?clip@QPaintEngineEx@@UAEXABVQRect@@W4ClipOperation@Qt@@@Z" PURGE="8" COMMENT="" />
    <EXPORT ORDINAL="3811" NAME="?clip@QPaintEngineEx@@UAEXABVQRegion@@W4ClipOperation@Qt@@@Z" PURGE="8" COMMENT="" />
    <EXPORT ORDINAL="3812" NAME="?clipBoundingRect@QPainter@@QBE?AVQRectF@@XZ" PURGE="4" COMMENT="" />
    <EXPORT ORDINAL="3813" NAME="?clipEnabledChanged@QBlitterPaintEngine@@UAEXXZ" PURGE="0" COMMENT="" />
    <EXPORT ORDINAL="3814" NAME="?clipOperation@QPaintEngineState@@QBE?AW4ClipOperation@Qt@@XZ" PURGE="0" COMMENT="" />
    <EXPORT ORDINAL="3815" NAME="?clipPath@QGraphicsItem@@QBE?AVQPainterPath@@XZ" PURGE="4" COMMENT="" />
    <EXPORT ORDINAL="3816" NAME="?clipPath@QPaintEngineState@@QBE?AVQPainterPath@@XZ" PURGE="4" COMMENT="" />
    <EXPORT ORDINAL="3817" NAME="?clipPath@QPainter@@QBE?AVQPainterPath@@XZ" PURGE="4" COMMENT="" />
    <EXPORT ORDINAL="3818" NAME="?clipRect@QImageReader@@QBE?AVQRect@@XZ" PURGE="4" COMMENT="" />
    <EXPORT ORDINAL="3819" NAME="?clipRect@QStrokerOps@@QBE?AVQRectF@@XZ" PURGE="4" COMMENT="" />
    <EXPORT ORDINAL="3820" NAME="?clipRect@QWidgetPrivate@@QBE?AVQRect@@XZ" PURGE="4" COMMENT="" />
    <EXPORT ORDINAL="3821" NAME="?clipRegion@QPaintEngineState@@QBE?AVQRegion@@XZ" PURGE="4" COMMENT="" />
    <EXPORT ORDINAL="3822" NAME="?clipRegion@QPainter@@QBE?AVQRegion@@XZ" PURGE="4" COMMENT="" />
    <EXPORT ORDINAL="3823" NAME="?clipRegion@QWidgetPrivate@@QBE?AVQRegion@@XZ" PURGE="4" COMMENT="" />
    <EXPORT ORDINAL="3824" NAME="?clipToEffectiveMask@QWidgetPrivate@@QBEXAAVQRegion@@@Z" PURGE="4" COMMENT="" />
    <EXPORT ORDINAL="3825" NAME="?clipboard@QApplication@@SAPAVQClipboard@@XZ" PURGE="0" COMMENT="" />
    <EXPORT ORDINAL="3826" NAME="?clone@QIconEngineV2@@UBEPAV1@XZ" PURGE="0" COMMENT="" />
    <EXPORT ORDINAL="3827" NAME="?clone@QListWidgetItem@@UBEPAV1@XZ" PURGE="0" COMMENT="" />
    <EXPORT ORDINAL="3828" NAME="?clone@QStandardItem@@UBEPAV1@XZ" PURGE="0" COMMENT="" />
    <EXPORT ORDINAL="3829" NAME="?clone@QTableWidgetItem@@UBEPAV1@XZ" PURGE="0" COMMENT="" />
    <EXPORT ORDINAL="3830" NAME="?clone@QTextDocument@@QBEPAV1@PAVQObject@@@Z" PURGE="4" COMMENT="" />
    <EXPORT ORDINAL="3831" NAME="?clone@QTreeWidgetItem@@UBEPAV1@XZ" PURGE="0" COMMENT="" />
    <EXPORT ORDINAL="3832" NAME="?cloneWithSize@QFontEngine@@UBEPAV1@N@Z" PURGE="8" COMMENT="" />
    <EXPORT ORDINAL="3833" NAME="?close@QGraphicsWidget@@QAE_NXZ" PURGE="0" COMMENT="" />
    <EXPORT ORDINAL="3834" NAME="?close@QWidget@@QAE_NXZ" PURGE="0" COMMENT="" />
    <EXPORT ORDINAL="3835" NAME="?close@QWidget@@QAE_N_N@Z" PURGE="4" COMMENT="" />
    <EXPORT ORDINAL="3836" NAME="?close@QZipReader@@QAEXXZ" PURGE="-1" COMMENT="" />
    <EXPORT ORDINAL="3837" NAME="?close@QZipWriter@@QAEXXZ" PURGE="0" COMMENT="" />
    <EXPORT ORDINAL="3838" NAME="?closeActiveSubWindow@QMdiArea@@QAEXXZ" PURGE="0" COMMENT="" />
    <EXPORT ORDINAL="3839" NAME="?closeActiveWindow@QWorkspace@@QAEXXZ" PURGE="0" COMMENT="" />
    <EXPORT ORDINAL="3840" NAME="?closeAllSubWindows@QMdiArea@@QAEXXZ" PURGE="0" COMMENT="" />
    <EXPORT ORDINAL="3841" NAME="?closeAllWindows@QApplication@@SAXXZ" PURGE="0" COMMENT="" />
    <EXPORT ORDINAL="3842" NAME="?closeAllWindows@QWorkspace@@QAEXXZ" PURGE="0" COMMENT="" />
    <EXPORT ORDINAL="3843" NAME="?closeEditor@QAbstractItemDelegate@@IAEXPAVQWidget@@W4EndEditHint@1@@Z" PURGE="8" COMMENT="" />
    <EXPORT ORDINAL="3844" NAME="?closeEditor@QAbstractItemView@@MAEXPAVQWidget@@W4EndEditHint@QAbstractItemDelegate@@@Z" PURGE="8" COMMENT="" />
    <EXPORT ORDINAL="3845" NAME="?closeEvent@QAbstractSpinBox@@MAEXPAVQCloseEvent@@@Z" PURGE="4" COMMENT="" />
    <EXPORT ORDINAL="3846" NAME="?closeEvent@QDialog@@MAEXPAVQCloseEvent@@@Z" PURGE="4" COMMENT="" />
    <EXPORT ORDINAL="3847" NAME="?closeEvent@QDockWidget@@MAEXPAVQCloseEvent@@@Z" PURGE="4" COMMENT="" />
    <EXPORT ORDINAL="3848" NAME="?closeEvent@QGraphicsWidget@@MAEXPAVQCloseEvent@@@Z" PURGE="4" COMMENT="" />
    <EXPORT ORDINAL="3849" NAME="?closeEvent@QMdiSubWindow@@MAEXPAVQCloseEvent@@@Z" PURGE="4" COMMENT="" />
    <EXPORT ORDINAL="3850" NAME="?closeEvent@QMessageBox@@MAEXPAVQCloseEvent@@@Z" PURGE="4" COMMENT="" />
    <EXPORT ORDINAL="3851" NAME="?closeEvent@QProgressDialog@@MAEXPAVQCloseEvent@@@Z" PURGE="4" COMMENT="" />
    <EXPORT ORDINAL="3852" NAME="?closeEvent@QWidget@@MAEXPAVQCloseEvent@@@Z" PURGE="4" COMMENT="" />
    <EXPORT ORDINAL="3853" NAME="?closePersistentEditor@QAbstractItemView@@QAEXABVQModelIndex@@@Z" PURGE="4" COMMENT="" />
    <EXPORT ORDINAL="3854" NAME="?closePersistentEditor@QListWidget@@QAEXPAVQListWidgetItem@@@Z" PURGE="4" COMMENT="" />
    <EXPORT ORDINAL="3855" NAME="?closePersistentEditor@QTableWidget@@QAEXPAVQTableWidgetItem@@@Z" PURGE="4" COMMENT="" />
    <EXPORT ORDINAL="3856" NAME="?closePersistentEditor@QTreeWidget@@QAEXPAVQTreeWidgetItem@@H@Z" PURGE="8" COMMENT="" />
    <EXPORT ORDINAL="3857" NAME="?closePopup@QApplicationPrivate@@QAEXPAVQWidget@@@Z" PURGE="4" COMMENT="" />
    <EXPORT ORDINAL="3858" NAME="?closeSubpath@QPainterPath@@QAEXXZ" PURGE="0" COMMENT="" />
    <EXPORT ORDINAL="3859" NAME="?close_helper@QWidgetPrivate@@QAE_NW4CloseMode@1@@Z" PURGE="4" COMMENT="" />
    <EXPORT ORDINAL="3860" NAME="?closestAcceptableSize@QLayout@@SA?AVQSize@@PBVQWidget@@ABV2@@Z" PURGE="0" COMMENT="" />
    <EXPORT ORDINAL="3861" NAME="?closestLegalPosition@QSplitter@@IAEHHH@Z" PURGE="8" COMMENT="" />
    <EXPORT ORDINAL="3862" NAME="?closestLegalPosition@QSplitterHandle@@IAEHH@Z" PURGE="4" COMMENT="" />
    <EXPORT ORDINAL="3863" NAME="?codec@QTextDocumentWriter@@QBEPAVQTextCodec@@XZ" PURGE="0" COMMENT="" />
    <EXPORT ORDINAL="3864" NAME="?codecForHtml@Qt@@YAPAVQTextCodec@@ABVQByteArray@@@Z" PURGE="-1" COMMENT="" />
    <EXPORT ORDINAL="3865" NAME="?coefficients@QBezier@@SAXNAAN000@Z" PURGE="0" COMMENT="" />
    <EXPORT ORDINAL="3866" NAME="?colSpacing@QGridLayout@@QBEHH@Z" PURGE="4" COMMENT="" />
    <EXPORT ORDINAL="3867" NAME="?colStretch@QGridLayout@@QBEHH@Z" PURGE="4" COMMENT="" />
    <EXPORT ORDINAL="3868" NAME="?collapse@QTreeView@@QAEXABVQModelIndex@@@Z" PURGE="4" COMMENT="" />
    <EXPORT ORDINAL="3869" NAME="?collapse@QTreeViewPrivate@@QAEXH_N@Z" PURGE="8" COMMENT="" />
    <EXPORT ORDINAL="3870" NAME="?collapseAll@QTreeView@@QAEXXZ" PURGE="-1" COMMENT="" />
    <EXPORT ORDINAL="3871" NAME="?collapseItem@QTreeWidget@@QAEXPBVQTreeWidgetItem@@@Z" PURGE="4" COMMENT="" />
    <EXPORT ORDINAL="3872" NAME="?collapsed@QTreeView@@IAEXABVQModelIndex@@@Z" PURGE="4" COMMENT="" />
    <EXPORT ORDINAL="3873" NAME="?collateCopies@QPrinter@@QBE_NXZ" PURGE="0" COMMENT="" />
    <EXPORT ORDINAL="3874" NAME="?collateCopiesEnabled@QPrinter@@QBE_NXZ" PURGE="0" COMMENT="" />
    <EXPORT ORDINAL="3875" NAME="?collidesWithItem@QGraphicsItem@@UBE_NPBV1@W4ItemSelectionMode@Qt@@@Z" PURGE="8" COMMENT="" />
    <EXPORT ORDINAL="3876" NAME="?collidesWithPath@QGraphicsItem@@UBE_NABVQPainterPath@@W4ItemSelectionMode@Qt@@@Z" PURGE="8" COMMENT="" />
    <EXPORT ORDINAL="3877" NAME="?collidingItems@QGraphicsItem@@QBE?AV?$QList@PAVQGraphicsItem@@@@W4ItemSelectionMode@Qt@@@Z" PURGE="8" COMMENT="" />
    <EXPORT ORDINAL="3878" NAME="?collidingItems@QGraphicsScene@@QBE?AV?$QList@PAVQGraphicsItem@@@@PBVQGraphicsItem@@W4ItemSelectionMode@Qt@@@Z" PURGE="12" COMMENT="" />
    <EXPORT ORDINAL="3879" NAME="?color@QBrush@@QBEABVQColor@@XZ" PURGE="0" COMMENT="" />
    <EXPORT ORDINAL="3880" NAME="?color@QColorDialog@@ABE?AVQColor@@XZ" PURGE="4" COMMENT="" />
    <EXPORT ORDINAL="3881" NAME="?color@QGraphicsColorizeEffect@@QBE?AVQColor@@XZ" PURGE="4" COMMENT="" />
    <EXPORT ORDINAL="3882" NAME="?color@QGraphicsDropShadowEffect@@QBE?AVQColor@@XZ" PURGE="4" COMMENT="" />
    <EXPORT ORDINAL="3883" NAME="?color@QImage@@QBEIH@Z" PURGE="4" COMMENT="" />
    <EXPORT ORDINAL="3884" NAME="?color@QPalette@@QBEABVQColor@@W4ColorGroup@1@W4ColorRole@1@@Z" PURGE="8" COMMENT="" />
    <EXPORT ORDINAL="3885" NAME="?color@QPalette@@QBEABVQColor@@W4ColorRole@1@@Z" PURGE="4" COMMENT="" />
    <EXPORT ORDINAL="3886" NAME="?color@QPen@@QBE?AVQColor@@XZ" PURGE="4" COMMENT="" />
    <EXPORT ORDINAL="3887" NAME="?color@QPixmapColorizeFilter@@QBE?AVQColor@@XZ" PURGE="4" COMMENT="" />
    <EXPORT ORDINAL="3888" NAME="?color@QPixmapDropShadowFilter@@QBE?AVQColor@@XZ" PURGE="4" COMMENT="" />
    <EXPORT ORDINAL="3889" NAME="?color@QTextEdit@@QBE?AVQColor@@XZ" PURGE="4" COMMENT="" />
    <EXPORT ORDINAL="3890" NAME="?colorAt@QColormap@@QBE?BVQColor@@I@Z" PURGE="8" COMMENT="" />
    <EXPORT ORDINAL="3891" NAME="?colorChanged@QGraphicsColorizeEffect@@IAEXABVQColor@@@Z" PURGE="4" COMMENT="" />
    <EXPORT ORDINAL="3892" NAME="?colorChanged@QGraphicsDropShadowEffect@@IAEXABVQColor@@@Z" PURGE="4" COMMENT="" />
    <EXPORT ORDINAL="3893" NAME="?colorCount@QImage@@QBEHXZ" PURGE="0" COMMENT="" />
    <EXPORT ORDINAL="3894" NAME="?colorCount@QPaintDevice@@QBEHXZ" PURGE="0" COMMENT="" />
    <EXPORT ORDINAL="3895" NAME="?colorCount@QPixmapData@@QBEHXZ" PURGE="0" COMMENT="" />
    <EXPORT ORDINAL="3896" NAME="?colorDialogDelete@QGuiPlatformPlugin@@UAEXPAVQColorDialog@@@Z" PURGE="4" COMMENT="" />
    <EXPORT ORDINAL="3897" NAME="?colorDialogSetCurrentColor@QGuiPlatformPlugin@@UAEXPAVQColorDialog@@ABVQColor@@@Z" PURGE="8" COMMENT="" />
    <EXPORT ORDINAL="3898" NAME="?colorDialogSetVisible@QGuiPlatformPlugin@@UAE_NPAVQColorDialog@@_N@Z" PURGE="8" COMMENT="" />
    <EXPORT ORDINAL="3899" NAME="?colorGroup@QWidget@@QBE?AVQColorGroup@@XZ" PURGE="4" COMMENT="" />
    <EXPORT ORDINAL="3900" NAME="?colorMode@QApplication@@SAHXZ" PURGE="0" COMMENT="" />
    <EXPORT ORDINAL="3901" NAME="?colorMode@QPrinter@@QBE?AW4ColorMode@1@XZ" PURGE="0" COMMENT="" />
    <EXPORT ORDINAL="3902" NAME="?colorNames@QColor@@SA?AVQStringList@@XZ" PURGE="0" COMMENT="" />
    <EXPORT ORDINAL="3903" NAME="?colorProperty@QTextFormat@@QBE?AVQColor@@H@Z" PURGE="8" COMMENT="" />
    <EXPORT ORDINAL="3904" NAME="?colorSelected@QColorDialog@@IAEXABVQColor@@@Z" PURGE="4" COMMENT="" />
    <EXPORT ORDINAL="3905" NAME="?colorSpec@QApplication@@SAHXZ" PURGE="0" COMMENT="" />
    <EXPORT ORDINAL="3906" NAME="?colorTable@QImage@@QBE?AV?$QVector@I@@XZ" PURGE="4" COMMENT="" />
    <EXPORT ORDINAL="3907" NAME="?colormap@QColormap@@QBE?BV?$QVector@VQColor@@@@XZ" PURGE="4" COMMENT="" />
    <EXPORT ORDINAL="3908" NAME="?column@QMatrix4x4@@QBE?AVQVector4D@@H@Z" PURGE="8" COMMENT="" />
    <EXPORT ORDINAL="3909" NAME="?column@QStandardItem@@QBEHXZ" PURGE="0" COMMENT="" />
    <EXPORT ORDINAL="3910" NAME="?column@QTableWidget@@QBEHPBVQTableWidgetItem@@@Z" PURGE="4" COMMENT="" />
    <EXPORT ORDINAL="3911" NAME="?column@QTableWidgetItem@@QBEHXZ" PURGE="0" COMMENT="" />
    <EXPORT ORDINAL="3912" NAME="?column@QTextTableCell@@QBEHXZ" PURGE="0" COMMENT="" />
    <EXPORT ORDINAL="3913" NAME="?columnAlignment@QGraphicsGridLayout@@QBE?AV?$QFlags@W4AlignmentFlag@Qt@@@@H@Z" PURGE="8" COMMENT="" />
    <EXPORT ORDINAL="3914" NAME="?columnAt@QTableView@@QBEHH@Z" PURGE="4" COMMENT="" />
    <EXPORT ORDINAL="3915" NAME="?columnAt@QTreeView@@QBEHH@Z" PURGE="4" COMMENT="" />
    <EXPORT ORDINAL="3916" NAME="?columnAt@QTreeViewPrivate@@QBEHH@Z" PURGE="4" COMMENT="" />
    <EXPORT ORDINAL="3917" NAME="?columnCount@QDirModel@@UBEHABVQModelIndex@@@Z" PURGE="4" COMMENT="" />
    <EXPORT ORDINAL="3918" NAME="?columnCount@QFileSystemModel@@UBEHABVQModelIndex@@@Z" PURGE="4" COMMENT="" />
    <EXPORT ORDINAL="3919" NAME="?columnCount@QGraphicsGridLayout@@QBEHXZ" PURGE="0" COMMENT="" />
    <EXPORT ORDINAL="3920" NAME="?columnCount@QGridLayout@@QBEHXZ" PURGE="0" COMMENT="" />
    <EXPORT ORDINAL="3921" NAME="?columnCount@QIdentityProxyModel@@UBEHABVQModelIndex@@@Z" PURGE="4" COMMENT="" />
    <EXPORT ORDINAL="3922" NAME="?columnCount@QMenu@@IBEHXZ" PURGE="0" COMMENT="" />
    <EXPORT ORDINAL="3923" NAME="?columnCount@QProxyModel@@UBEHABVQModelIndex@@@Z" PURGE="4" COMMENT="" />
    <EXPORT ORDINAL="3924" NAME="?columnCount@QSortFilterProxyModel@@UBEHABVQModelIndex@@@Z" PURGE="4" COMMENT="" />
    <EXPORT ORDINAL="3925" NAME="?columnCount@QStandardItem@@QBEHXZ" PURGE="0" COMMENT="" />
    <EXPORT ORDINAL="3926" NAME="?columnCount@QStandardItemModel@@UBEHABVQModelIndex@@@Z" PURGE="4" COMMENT="" />
    <EXPORT ORDINAL="3927" NAME="?columnCount@QTableWidget@@QBEHXZ" PURGE="0" COMMENT="" />
    <EXPORT ORDINAL="3928" NAME="?columnCount@QTableWidgetSelectionRange@@QBEHXZ" PURGE="0" COMMENT="" />
    <EXPORT ORDINAL="3929" NAME="?columnCount@QTreeWidget@@QBEHXZ" PURGE="0" COMMENT="" />
    <EXPORT ORDINAL="3930" NAME="?columnCount@QTreeWidgetItem@@QBEHXZ" PURGE="0" COMMENT="" />
    <EXPORT ORDINAL="3931" NAME="?columnCountChanged@QTableView@@IAEXHH@Z" PURGE="8" COMMENT="" />
    <EXPORT ORDINAL="3932" NAME="?columnCountChanged@QTreeView@@IAEXHH@Z" PURGE="8" COMMENT="" />
    <EXPORT ORDINAL="3933" NAME="?columnIntersectsSelection@QItemSelectionModel@@QBE_NHABVQModelIndex@@@Z" PURGE="8" COMMENT="" />
    <EXPORT ORDINAL="3934" NAME="?columnMaximumWidth@QGraphicsGridLayout@@QBENH@Z" PURGE="4" COMMENT="" />
    <EXPORT ORDINAL="3935" NAME="?columnMinimumWidth@QGraphicsGridLayout@@QBENH@Z" PURGE="4" COMMENT="" />
    <EXPORT ORDINAL="3936" NAME="?columnMinimumWidth@QGridLayout@@QBEHH@Z" PURGE="4" COMMENT="" />
    <EXPORT ORDINAL="3937" NAME="?columnMoved@QTableView@@IAEXHHH@Z" PURGE="12" COMMENT="" />
    <EXPORT ORDINAL="3938" NAME="?columnMoved@QTreeView@@IAEXXZ" PURGE="0" COMMENT="" />
    <EXPORT ORDINAL="3939" NAME="?columnNumber@QTextCursor@@QBEHXZ" PURGE="0" COMMENT="" />
    <EXPORT ORDINAL="3940" NAME="?columnPreferredWidth@QGraphicsGridLayout@@QBENH@Z" PURGE="4" COMMENT="" />
    <EXPORT ORDINAL="3941" NAME="?columnRanges@QTreeViewPrivate@@QBE?AV?$QList@U?$QPair@HH@@@@ABVQModelIndex@@0@Z" PURGE="12" COMMENT="" />
    <EXPORT ORDINAL="3942" NAME="?columnResized@QTableView@@IAEXHHH@Z" PURGE="12" COMMENT="" />
    <EXPORT ORDINAL="3943" NAME="?columnResized@QTreeView@@IAEXHHH@Z" PURGE="12" COMMENT="" />
    <EXPORT ORDINAL="3944" NAME="?columnSpacing@QGraphicsGridLayout@@QBENH@Z" PURGE="4" COMMENT="" />
    <EXPORT ORDINAL="3945" NAME="?columnSpan@QTableView@@QBEHHH@Z" PURGE="8" COMMENT="" />
    <EXPORT ORDINAL="3946" NAME="?columnSpan@QTextTableCell@@QBEHXZ" PURGE="0" COMMENT="" />
    <EXPORT ORDINAL="3947" NAME="?columnStretch@QGridLayout@@QBEHH@Z" PURGE="4" COMMENT="" />
    <EXPORT ORDINAL="3948" NAME="?columnStretchFactor@QGraphicsGridLayout@@QBEHH@Z" PURGE="4" COMMENT="" />
    <EXPORT ORDINAL="3949" NAME="?columnViewportPosition@QTableView@@QBEHH@Z" PURGE="4" COMMENT="" />
    <EXPORT ORDINAL="3950" NAME="?columnViewportPosition@QTreeView@@QBEHH@Z" PURGE="4" COMMENT="" />
    <EXPORT ORDINAL="3951" NAME="?columnWidth@QTableView@@QBEHH@Z" PURGE="4" COMMENT="" />
    <EXPORT ORDINAL="3952" NAME="?columnWidth@QTreeView@@QBEHH@Z" PURGE="4" COMMENT="" />
    <EXPORT ORDINAL="3953" NAME="?columnWidthConstraints@QTextTableFormat@@QBE?AV?$QVector@VQTextLength@@@@XZ" PURGE="4" COMMENT="" />
    <EXPORT ORDINAL="3954" NAME="?columnWidths@QColumnView@@QBE?AV?$QList@H@@XZ" PURGE="4" COMMENT="" />
    <EXPORT ORDINAL="3955" NAME="?columns@QMenu@@IBEHXZ" PURGE="0" COMMENT="" />
    <EXPORT ORDINAL="3956" NAME="?columns@QPixmapConvolutionFilter@@ABEHXZ" PURGE="0" COMMENT="" />
    <EXPORT ORDINAL="3957" NAME="?columns@QTextTable@@QBEHXZ" PURGE="0" COMMENT="" />
    <EXPORT ORDINAL="3958" NAME="?columns@QTextTableFormat@@QBEHXZ" PURGE="0" COMMENT="" />
    <EXPORT ORDINAL="3959" NAME="?combineOpacityFromParent@QGraphicsItemPrivate@@QBENN@Z" PURGE="8" COMMENT="" />
    <EXPORT ORDINAL="3960" NAME="?combineTransformFromParent@QGraphicsItemPrivate@@QBEXPAVQTransform@@PBV2@@Z" PURGE="8" COMMENT="" />
    <EXPORT ORDINAL="3961" NAME="?combineTransformToParent@QGraphicsItemPrivate@@QBEXPAVQTransform@@PBV2@@Z" PURGE="8" COMMENT="" />
    <EXPORT ORDINAL="3962" NAME="?combinedLayoutSpacing@QStyle@@QBEHV?$QFlags@W4ControlType@QSizePolicy@@@@0W4Orientation@Qt@@PAVQStyleOption@@PAVQWidget@@@Z" PURGE="20" COMMENT="" />
    <EXPORT ORDINAL="3963" NAME="?combinedMatrix@QPainter@@QBE?AVQMatrix@@XZ" PURGE="4" COMMENT="" />
    <EXPORT ORDINAL="3964" NAME="?combinedTransform@QPainter@@QBE?AVQTransform@@XZ" PURGE="4" COMMENT="" />
    <EXPORT ORDINAL="3965" NAME="?comboBoxItems@QInputDialog@@QBE?AVQStringList@@XZ" PURGE="4" COMMENT="" />
    <EXPORT ORDINAL="3966" NAME="?command@QUndoStack@@QBEPBVQUndoCommand@@H@Z" PURGE="4" COMMENT="" />
    <EXPORT ORDINAL="3967" NAME="?commandDescription@QPaintBuffer@@QBE?AVQString@@H@Z" PURGE="8" COMMENT="" />
    <EXPORT ORDINAL="3968" NAME="?commitData@QAbstractItemDelegate@@IAEXPAVQWidget@@@Z" PURGE="4" COMMENT="" />
    <EXPORT ORDINAL="3969" NAME="?commitData@QAbstractItemView@@MAEXPAVQWidget@@@Z" PURGE="4" COMMENT="" />
    <EXPORT ORDINAL="3970" NAME="?commitData@QApplication@@UAEXAAVQSessionManager@@@Z" PURGE="4" COMMENT="" />
    <EXPORT ORDINAL="3971" NAME="?commitDataRequest@QApplication@@IAEXAAVQSessionManager@@@Z" PURGE="4" COMMENT="" />
    <EXPORT ORDINAL="3972" NAME="?commitString@QInputMethodEvent@@QBEABVQString@@XZ" PURGE="0" COMMENT="" />
    <EXPORT ORDINAL="3973" NAME="?commonAncestorItem@QGraphicsItem@@QBEPAV1@PBV1@@Z" PURGE="4" COMMENT="" />
    <EXPORT ORDINAL="3974" NAME="?complete@QCompleter@@QAEXABVQRect@@@Z" PURGE="4" COMMENT="" />
    <EXPORT ORDINAL="3975" NAME="?complete@QLineControl@@QAEXH@Z" PURGE="4" COMMENT="" />
    <EXPORT ORDINAL="3976" NAME="?completeChanged@QWizardPage@@IAEXXZ" PURGE="0" COMMENT="" />
    <EXPORT ORDINAL="3977" NAME="?completer@QComboBox@@QBEPAVQCompleter@@XZ" PURGE="0" COMMENT="" />
    <EXPORT ORDINAL="3978" NAME="?completer@QLineControl@@QBEPAVQCompleter@@XZ" PURGE="0" COMMENT="" />
    <EXPORT ORDINAL="3979" NAME="?completer@QLineEdit@@QBEPAVQCompleter@@XZ" PURGE="0" COMMENT="" />
    <EXPORT ORDINAL="3980" NAME="?completionColumn@QCompleter@@QBEHXZ" PURGE="0" COMMENT="" />
    <EXPORT ORDINAL="3981" NAME="?completionCount@QCompleter@@QBEHXZ" PURGE="0" COMMENT="" />
    <EXPORT ORDINAL="3982" NAME="?completionMode@QCompleter@@QBE?AW4CompletionMode@1@XZ" PURGE="0" COMMENT="" />
    <EXPORT ORDINAL="3983" NAME="?completionModel@QCompleter@@QBEPAVQAbstractItemModel@@XZ" PURGE="0" COMMENT="" />
    <EXPORT ORDINAL="3984" NAME="?completionPrefix@QCompleter@@QBE?AVQString@@XZ" PURGE="4" COMMENT="" />
    <EXPORT ORDINAL="3985" NAME="?completionRole@QCompleter@@QBEHXZ" PURGE="0" COMMENT="" />
    <EXPORT ORDINAL="3986" NAME="?composeMode@QLineControl@@QBE_NXZ" PURGE="0" COMMENT="" />
    <EXPORT ORDINAL="3987" NAME="?compositionMode@QPaintEngineState@@QBE?AW4CompositionMode@QPainter@@XZ" PURGE="0" COMMENT="" />
    <EXPORT ORDINAL="3988" NAME="?compositionMode@QPainter@@QBE?AW4CompositionMode@1@XZ" PURGE="0" COMMENT="" />
    <EXPORT ORDINAL="3989" NAME="?compositionModeChanged@QBlitterPaintEngine@@UAEXXZ" PURGE="0" COMMENT="" />
    <EXPORT ORDINAL="3990" NAME="?compressEvent@QApplication@@MAE_NPAVQEvent@@PAVQObject@@PAVQPostEventList@@@Z" PURGE="12" COMMENT="" />
    <EXPORT ORDINAL="3991" NAME="?compression@QImageWriter@@QBEHXZ" PURGE="0" COMMENT="" />
    <EXPORT ORDINAL="3992" NAME="?compressionPolicy@QZipWriter@@QBE?AW4CompressionPolicy@1@XZ" PURGE="0" COMMENT="" />
    <EXPORT ORDINAL="3993" NAME="?computeBoundingRect@QPainterPath@@ABEXXZ" PURGE="0" COMMENT="" />
    <EXPORT ORDINAL="3994" NAME="?computeControlPointRect@QPainterPath@@ABEXXZ" PURGE="0" COMMENT="" />
    <EXPORT ORDINAL="3995" NAME="?confirmOverwrite@QFileDialog@@QBE_NXZ" PURGE="0" COMMENT="" />
    <EXPORT ORDINAL="3996" NAME="?conjugate@QQuaternion@@QBE?AV1@XZ" PURGE="4" COMMENT="" />
    <EXPORT ORDINAL="3997" NAME="?connectItem@QMenu@@QAE_NHPBVQObject@@PBD@Z" PURGE="12" COMMENT="" />
    <EXPORT ORDINAL="3998" NAME="?connectItem@QMenuBar@@QAE_NHPBVQObject@@PBD@Z" PURGE="12" COMMENT="" />
    <EXPORT ORDINAL="3999" NAME="?connectNotify@QClipboard@@MAEXPBD@Z" PURGE="4" COMMENT="" />
    <EXPORT ORDINAL="4000" NAME="?connectPath@QPainterPath@@QAEXABV1@@Z" PURGE="4" COMMENT="" />
    <EXPORT ORDINAL="4001" NAME="?connectToModel@QProxyModel@@IBEXPBVQAbstractItemModel@@@Z" PURGE="4" COMMENT="" />
    <EXPORT ORDINAL="4002" NAME="?constBegin@?$QList@VQItemSelectionRange@@@@QBE?AVconst_iterator@1@XZ" PURGE="4" COMMENT="" />
    <EXPORT ORDINAL="4003" NAME="?constBits@QImage@@QBEPBEXZ" PURGE="0" COMMENT="" />
    <EXPORT ORDINAL="4004" NAME="?constBits@QVolatileImage@@QBEPBEXZ" PURGE="0" COMMENT="" />
    <EXPORT ORDINAL="4005" NAME="?constData@QMatrix4x4@@QBEPBNXZ" PURGE="0" COMMENT="" />
    <EXPORT ORDINAL="4006" NAME="?constEnd@?$QList@VQItemSelectionRange@@@@QBE?AVconst_iterator@1@XZ" PURGE="4" COMMENT="" />
    <EXPORT ORDINAL="4007" NAME="?constImageRef@QVolatileImage@@QBEABVQImage@@XZ" PURGE="0" COMMENT="" />
    <EXPORT ORDINAL="4008" NAME="?constPolish@QWidget@@QBEXXZ" PURGE="0" COMMENT="" />
    <EXPORT ORDINAL="4009" NAME="?constScanLine@QImage@@QBEPBEH@Z" PURGE="4" COMMENT="" />
    <EXPORT ORDINAL="4010" NAME="?construct@QApplicationPrivate@@QAEXXZ" PURGE="0" COMMENT="" />
    <EXPORT ORDINAL="4011" NAME="?contains@?$QList@VQItemSelectionRange@@@@QBE?AVQBool@@ABVQItemSelectionRange@@@Z" PURGE="8" COMMENT="" />
    <EXPORT ORDINAL="4012" NAME="?contains@QGraphicsEllipseItem@@UBE_NABVQPointF@@@Z" PURGE="4" COMMENT="" />
    <EXPORT ORDINAL="4013" NAME="?contains@QGraphicsItem@@UBE_NABVQPointF@@@Z" PURGE="4" COMMENT="" />
    <EXPORT ORDINAL="4014" NAME="?contains@QGraphicsLineItem@@UBE_NABVQPointF@@@Z" PURGE="4" COMMENT="" />
    <EXPORT ORDINAL="4015" NAME="?contains@QGraphicsPathItem@@UBE_NABVQPointF@@@Z" PURGE="4" COMMENT="" />
    <EXPORT ORDINAL="4016" NAME="?contains@QGraphicsPixmapItem@@UBE_NABVQPointF@@@Z" PURGE="4" COMMENT="" />
    <EXPORT ORDINAL="4017" NAME="?contains@QGraphicsPolygonItem@@UBE_NABVQPointF@@@Z" PURGE="4" COMMENT="" />
    <EXPORT ORDINAL="4018" NAME="?contains@QGraphicsRectItem@@UBE_NABVQPointF@@@Z" PURGE="4" COMMENT="" />
    <EXPORT ORDINAL="4019" NAME="?contains@QGraphicsSimpleTextItem@@UBE_NABVQPointF@@@Z" PURGE="-1" COMMENT="" />
    <EXPORT ORDINAL="4020" NAME="?contains@QGraphicsTextItem@@UBE_NABVQPointF@@@Z" PURGE="-1" COMMENT="" />
    <EXPORT ORDINAL="4021" NAME="?contains@QItemSelection@@QBE_NABVQModelIndex@@@Z" PURGE="4" COMMENT="" />
    <EXPORT ORDINAL="4022" NAME="?contains@QItemSelectionRange@@QBE_NABVQModelIndex@@@Z" PURGE="4" COMMENT="" />
    <EXPORT ORDINAL="4023" NAME="?contains@QItemSelectionRange@@QBE_NHHABVQModelIndex@@@Z" PURGE="12" COMMENT="" />
    <EXPORT ORDINAL="4024" NAME="?contains@QPainterPath@@QBE_NABV1@@Z" PURGE="4" COMMENT="" />
    <EXPORT ORDINAL="4025" NAME="?contains@QPainterPath@@QBE_NABVQPointF@@@Z" PURGE="4" COMMENT="" />
    <EXPORT ORDINAL="4026" NAME="?contains@QPainterPath@@QBE_NABVQRectF@@@Z" PURGE="4" COMMENT="" />
    <EXPORT ORDINAL="4027" NAME="?contains@QRegion@@QBE_NABVQPoint@@@Z" PURGE="4" COMMENT="" />
    <EXPORT ORDINAL="4028" NAME="?contains@QRegion@@QBE_NABVQRect@@@Z" PURGE="4" COMMENT="" />
    <EXPORT ORDINAL="4029" NAME="?contains@QTextBlock@@QBE_NH@Z" PURGE="4" COMMENT="" />
    <EXPORT ORDINAL="4030" NAME="?contains@QTextFragment@@QBE_NH@Z" PURGE="4" COMMENT="" />
    <EXPORT ORDINAL="4031" NAME="?containsPoint@QPolygon@@QBE_NABVQPoint@@W4FillRule@Qt@@@Z" PURGE="8" COMMENT="" />
    <EXPORT ORDINAL="4032" NAME="?containsPoint@QPolygonF@@QBE_NABVQPointF@@W4FillRule@Qt@@@Z" PURGE="8" COMMENT="" />
    <EXPORT ORDINAL="4033" NAME="?contentOffset@QPlainTextEdit@@IBE?AVQPointF@@XZ" PURGE="4" COMMENT="" />
    <EXPORT ORDINAL="4034" NAME="?contentsChange@QTextDocument@@IAEXHHH@Z" PURGE="12" COMMENT="" />
    <EXPORT ORDINAL="4035" NAME="?contentsChanged@QTextDocument@@IAEXXZ" PURGE="0" COMMENT="" />
    <EXPORT ORDINAL="4036" NAME="?contentsMargins@QLayout@@QBE?AVQMargins@@XZ" PURGE="4" COMMENT="" />
    <EXPORT ORDINAL="4037" NAME="?contentsMargins@QWidget@@QBE?AVQMargins@@XZ" PURGE="4" COMMENT="" />
    <EXPORT ORDINAL="4038" NAME="?contentsOffset@QAbstractScrollAreaPrivate@@UBE?AVQPoint@@XZ" PURGE="4" COMMENT="" />
    <EXPORT ORDINAL="4039" NAME="?contentsRect@QGraphicsLayoutItem@@QBE?AVQRectF@@XZ" PURGE="4" COMMENT="" />
    <EXPORT ORDINAL="4040" NAME="?contentsRect@QLayout@@QBE?AVQRect@@XZ" PURGE="4" COMMENT="" />
    <EXPORT ORDINAL="4041" NAME="?contentsRect@QWidget@@QBE?AVQRect@@XZ" PURGE="4" COMMENT="" />
    <EXPORT ORDINAL="4042" NAME="?contentsSize@QListView@@IBE?AVQSize@@XZ" PURGE="4" COMMENT="" />
    <EXPORT ORDINAL="4043" NAME="?context@QShortcut@@QAE?AW4ShortcutContext@Qt@@XZ" PURGE="0" COMMENT="" />
    <EXPORT ORDINAL="4044" NAME="?contextMenu@QSystemTrayIcon@@QBEPAVQMenu@@XZ" PURGE="0" COMMENT="" />
    <EXPORT ORDINAL="4045" NAME="?contextMenuEvent@QAbstractScrollArea@@MAEXPAVQContextMenuEvent@@@Z" PURGE="4" COMMENT="" />
    <EXPORT ORDINAL="4046" NAME="?contextMenuEvent@QAbstractSpinBox@@MAEXPAVQContextMenuEvent@@@Z" PURGE="4" COMMENT="" />
    <EXPORT ORDINAL="4047" NAME="?contextMenuEvent@QComboBox@@MAEXPAVQContextMenuEvent@@@Z" PURGE="4" COMMENT="" />
    <EXPORT ORDINAL="4048" NAME="?contextMenuEvent@QDialog@@MAEXPAVQContextMenuEvent@@@Z" PURGE="4" COMMENT="" />
    <EXPORT ORDINAL="4049" NAME="?contextMenuEvent@QGraphicsItem@@MAEXPAVQGraphicsSceneContextMenuEvent@@@Z" PURGE="4" COMMENT="" />
    <EXPORT ORDINAL="4050" NAME="?contextMenuEvent@QGraphicsProxyWidget@@MAEXPAVQGraphicsSceneContextMenuEvent@@@Z" PURGE="4" COMMENT="" />
    <EXPORT ORDINAL="4051" NAME="?contextMenuEvent@QGraphicsScene@@MAEXPAVQGraphicsSceneContextMenuEvent@@@Z" PURGE="4" COMMENT="" />
    <EXPORT ORDINAL="4052" NAME="?contextMenuEvent@QGraphicsTextItem@@MAEXPAVQGraphicsSceneContextMenuEvent@@@Z" PURGE="4" COMMENT="" />
    <EXPORT ORDINAL="4053" NAME="?contextMenuEvent@QGraphicsView@@MAEXPAVQContextMenuEvent@@@Z" PURGE="4" COMMENT="" />
    <EXPORT ORDINAL="4054" NAME="?contextMenuEvent@QLabel@@MAEXPAVQContextMenuEvent@@@Z" PURGE="4" COMMENT="" />
    <EXPORT ORDINAL="4055" NAME="?contextMenuEvent@QLineEdit@@MAEXPAVQContextMenuEvent@@@Z" PURGE="4" COMMENT="" />
    <EXPORT ORDINAL="4056" NAME="?contextMenuEvent@QMainWindow@@MAEXPAVQContextMenuEvent@@@Z" PURGE="4" COMMENT="" />
    <EXPORT ORDINAL="4057" NAME="?contextMenuEvent@QMdiSubWindow@@MAEXPAVQContextMenuEvent@@@Z" PURGE="4" COMMENT="" />
    <EXPORT ORDINAL="4058" NAME="?contextMenuEvent@QPlainTextEdit@@MAEXPAVQContextMenuEvent@@@Z" PURGE="4" COMMENT="" />
    <EXPORT ORDINAL="4059" NAME="?contextMenuEvent@QScrollBar@@MAEXPAVQContextMenuEvent@@@Z" PURGE="4" COMMENT="" />
    <EXPORT ORDINAL="4060" NAME="?contextMenuEvent@QTextEdit@@MAEXPAVQContextMenuEvent@@@Z" PURGE="4" COMMENT="" />
    <EXPORT ORDINAL="4061" NAME="?contextMenuEvent@QWidget@@MAEXPAVQContextMenuEvent@@@Z" PURGE="4" COMMENT="" />
    <EXPORT ORDINAL="4062" NAME="?contextMenuPolicy@QWidget@@QBE?AW4ContextMenuPolicy@Qt@@XZ" PURGE="0" COMMENT="" />
    <EXPORT ORDINAL="4063" NAME="?controlPointRect@QPainterPath@@QBE?AVQRectF@@XZ" PURGE="4" COMMENT="" />
    <EXPORT ORDINAL="4064" NAME="?controlPointRect@QVectorPath@@QBE?AVQRectF@@XZ" PURGE="4" COMMENT="" />
    <EXPORT ORDINAL="4065" NAME="?controlType@QSizePolicy@@QBE?AW4ControlType@1@XZ" PURGE="0" COMMENT="" />
    <EXPORT ORDINAL="4066" NAME="?controlTypes@QLayoutItem@@QBE?AV?$QFlags@W4ControlType@QSizePolicy@@@@XZ" PURGE="4" COMMENT="" />
    <EXPORT ORDINAL="4067" NAME="?convertBitOrder@QImage@@QBE?AV1@W4Endian@1@@Z" PURGE="8" COMMENT="" />
    <EXPORT ORDINAL="4068" NAME="?convertDepth@QImage@@QBE?AV1@HV?$QFlags@W4ImageConversionFlag@Qt@@@@@Z" PURGE="12" COMMENT="" />
    <EXPORT ORDINAL="4069" NAME="?convertDepthWithPalette@QImage@@QBE?AV1@HPAIHV?$QFlags@W4ImageConversionFlag@Qt@@@@@Z" PURGE="20" COMMENT="" />
    <EXPORT ORDINAL="4070" NAME="?convertFromImage@QPixmap@@QAE_NABVQImage@@V?$QFlags@W4ImageConversionFlag@Qt@@@@@Z" PURGE="8" COMMENT="" />
    <EXPORT ORDINAL="4071" NAME="?convertFromImage@QPixmap@@QAE_NABVQImage@@W4ColorMode@1@@Z" PURGE="8" COMMENT="" />
    <EXPORT ORDINAL="4072" NAME="?convertFromPlainText@Qt@@YA?AVQString@@ABV2@W4WhiteSpaceMode@1@@Z" PURGE="0" COMMENT="" />
    <EXPORT ORDINAL="4073" NAME="?convertInPlace@QImageData@@QAE_NW4Format@QImage@@V?$QFlags@W4ImageConversionFlag@Qt@@@@@Z" PURGE="8" COMMENT="" />
    <EXPORT ORDINAL="4074" NAME="?convertTo@QColor@@QBE?AV1@W4Spec@1@@Z" PURGE="8" COMMENT="" />
    <EXPORT ORDINAL="4075" NAME="?convertToFormat@QImage@@QBE?AV1@W4Format@1@ABV?$QVector@I@@V?$QFlags@W4ImageConversionFlag@Qt@@@@@Z" PURGE="16" COMMENT="" />
    <EXPORT ORDINAL="4076" NAME="?convertToFormat@QImage@@QBE?AV1@W4Format@1@V?$QFlags@W4ImageConversionFlag@Qt@@@@@Z" PURGE="12" COMMENT="" />
    <EXPORT ORDINAL="4077" NAME="?convertToImage@QPixmap@@QBE?AVQImage@@XZ" PURGE="4" COMMENT="" />
    <EXPORT ORDINAL="4078" NAME="?convertToPainterPath@QVectorPath@@QBE?BVQPainterPath@@XZ" PURGE="4" COMMENT="" />
    <EXPORT ORDINAL="4079" NAME="?convertToPostscriptFontFamilyName@QFontEngine@@SA?AVQByteArray@@ABV2@@Z" PURGE="0" COMMENT="" />
    <EXPORT ORDINAL="4080" NAME="?converterFromMime@QWindowsMime@@CAPAV1@ABUtagFORMATETC@@PBVQMimeData@@@Z" PURGE="0" COMMENT="" />
    <EXPORT ORDINAL="4081" NAME="?converterToMime@QWindowsMime@@CAPAV1@ABVQString@@PAUIDataObject@@@Z" PURGE="0" COMMENT="" />
    <EXPORT ORDINAL="4082" NAME="?convolutionKernel@QPixmapConvolutionFilter@@ABEPBNXZ" PURGE="0" COMMENT="" />
    <EXPORT ORDINAL="4083" NAME="?coordinateForItem@QTreeViewPrivate@@QBEHH@Z" PURGE="4" COMMENT="" />
    <EXPORT ORDINAL="4084" NAME="?coordinateMode@QGradient@@QBE?AW4CoordinateMode@1@XZ" PURGE="0" COMMENT="" />
    <EXPORT ORDINAL="4085" NAME="?coordinateOffset@QPaintEngine@@UBE?AVQPoint@@XZ" PURGE="4" COMMENT="" />
    <EXPORT ORDINAL="4086" NAME="?copy@QImage@@QBE?AV1@ABVQRect@@@Z" PURGE="8" COMMENT="" />
    <EXPORT ORDINAL="4087" NAME="?copy@QImage@@QBE?AV1@ABVQRect@@V?$QFlags@W4ImageConversionFlag@Qt@@@@@Z" PURGE="12" COMMENT="" />
    <EXPORT ORDINAL="4088" NAME="?copy@QImage@@QBE?AV1@HHHH@Z" PURGE="20" COMMENT="" />
    <EXPORT ORDINAL="4089" NAME="?copy@QImage@@QBE?AV1@HHHHV?$QFlags@W4ImageConversionFlag@Qt@@@@@Z" PURGE="24" COMMENT="" />
    <EXPORT ORDINAL="4090" NAME="?copy@QLineControl@@QBEXW4Mode@QClipboard@@@Z" PURGE="4" COMMENT="" />
    <EXPORT ORDINAL="4091" NAME="?copy@QLineEdit@@QBEXXZ" PURGE="0" COMMENT="" />
    <EXPORT ORDINAL="4092" NAME="?copy@QPalette@@QBE?AV1@XZ" PURGE="4" COMMENT="" />
    <EXPORT ORDINAL="4093" NAME="?copy@QPicture@@IBE?AV1@XZ" PURGE="4" COMMENT="" />
    <EXPORT ORDINAL="4094" NAME="?copy@QPixmap@@QBE?AV1@ABVQRect@@@Z" PURGE="8" COMMENT="" />
    <EXPORT ORDINAL="4095" NAME="?copy@QPixmap@@QBE?AV1@HHHH@Z" PURGE="20" COMMENT="" />
    <EXPORT ORDINAL="4096" NAME="?copy@QPixmapData@@UAEXPBV1@ABVQRect@@@Z" PURGE="8" COMMENT="" />
    <EXPORT ORDINAL="4097" NAME="?copy@QPlainTextEdit@@QAEXXZ" PURGE="0" COMMENT="" />
    <EXPORT ORDINAL="4098" NAME="?copy@QRasterPixmapData@@UAEXPBVQPixmapData@@ABVQRect@@@Z" PURGE="8" COMMENT="" />
    <EXPORT ORDINAL="4099" NAME="?copy@QRegion@@ABE?AV1@XZ" PURGE="4" COMMENT="" />
    <EXPORT ORDINAL="4100" NAME="?copy@QRuntimePixmapData@@UAEXPBVQPixmapData@@ABVQRect@@@Z" PURGE="8" COMMENT="" />
    <EXPORT ORDINAL="4101" NAME="?copy@QTextControl@@QAEXXZ" PURGE="0" COMMENT="" />
    <EXPORT ORDINAL="4102" NAME="?copy@QTextEdit@@QAEXXZ" PURGE="0" COMMENT="" />
    <EXPORT ORDINAL="4103" NAME="?copyAvailable@QPlainTextEdit@@IAEX_N@Z" PURGE="4" COMMENT="" />
    <EXPORT ORDINAL="4104" NAME="?copyAvailable@QTextControl@@IAEX_N@Z" PURGE="4" COMMENT="" />
    <EXPORT ORDINAL="4105" NAME="?copyAvailable@QTextEdit@@IAEX_N@Z" PURGE="4" COMMENT="" />
    <EXPORT ORDINAL="4106" NAME="?copyBlt@@YAXPAVQPixmap@@HHPBV1@HHHH@Z" PURGE="0" COMMENT="" />
    <EXPORT ORDINAL="4107" NAME="?copyCount@QPrinter@@QBEHXZ" PURGE="0" COMMENT="" />
    <EXPORT ORDINAL="4108" NAME="?copyDataTo@QMatrix4x4@@QBEXPAN@Z" PURGE="4" COMMENT="" />
    <EXPORT ORDINAL="4109" NAME="?copyFrom@QVolatileImage@@QAEXPAV1@ABVQRect@@@Z" PURGE="8" COMMENT="" />
    <EXPORT ORDINAL="4110" NAME="?copyText@QAccessibleSimpleEditableTextInterface@@UAEXHH@Z" PURGE="8" COMMENT="" />
    <EXPORT ORDINAL="4111" NAME="?corner@QMainWindow@@QBE?AW4DockWidgetArea@Qt@@W4Corner@3@@Z" PURGE="4" COMMENT="" />
    <EXPORT ORDINAL="4112" NAME="?cornerWidget@QAbstractScrollArea@@QBEPAVQWidget@@XZ" PURGE="0" COMMENT="" />
    <EXPORT ORDINAL="4113" NAME="?cornerWidget@QMenuBar@@QBEPAVQWidget@@W4Corner@Qt@@@Z" PURGE="4" COMMENT="" />
    <EXPORT ORDINAL="4114" NAME="?cornerWidget@QTabWidget@@QBEPAVQWidget@@W4Corner@Qt@@@Z" PURGE="4" COMMENT="" />
    <EXPORT ORDINAL="4115" NAME="?correctionMode@QAbstractSpinBox@@QBE?AW4CorrectionMode@1@XZ" PURGE="0" COMMENT="" />
    <EXPORT ORDINAL="4116" NAME="?count@?$QList@VQItemSelectionRange@@@@QBEHABVQItemSelectionRange@@@Z" PURGE="4" COMMENT="" />
    <EXPORT ORDINAL="4117" NAME="?count@?$QList@VQItemSelectionRange@@@@QBEHXZ" PURGE="-1" COMMENT="" />
    <EXPORT ORDINAL="4118" NAME="?count@QBoxLayout@@UBEHXZ" PURGE="-1" COMMENT="" />
    <EXPORT ORDINAL="4119" NAME="?count@QComboBox@@QBEHXZ" PURGE="0" COMMENT="" />
    <EXPORT ORDINAL="4120" NAME="?count@QDockWidgetLayout@@UBEHXZ" PURGE="0" COMMENT="" />
    <EXPORT ORDINAL="4121" NAME="?count@QFormLayout@@UBEHXZ" PURGE="-1" COMMENT="" />
    <EXPORT ORDINAL="4122" NAME="?count@QGraphicsAnchorLayout@@UBEHXZ" PURGE="0" COMMENT="" />
    <EXPORT ORDINAL="4123" NAME="?count@QGraphicsGridLayout@@UBEHXZ" PURGE="-1" COMMENT="" />
    <EXPORT ORDINAL="4124" NAME="?count@QGraphicsLinearLayout@@UBEHXZ" PURGE="-1" COMMENT="" />
    <EXPORT ORDINAL="4125" NAME="?count@QGridLayout@@UBEHXZ" PURGE="-1" COMMENT="" />
    <EXPORT ORDINAL="4126" NAME="?count@QHeaderView@@QBEHXZ" PURGE="0" COMMENT="" />
    <EXPORT ORDINAL="4127" NAME="?count@QKeyEvent@@QBEHXZ" PURGE="0" COMMENT="" />
    <EXPORT ORDINAL="4128" NAME="?count@QKeySequence@@QBEIXZ" PURGE="0" COMMENT="" />
    <EXPORT ORDINAL="4129" NAME="?count@QListWidget@@QBEHXZ" PURGE="0" COMMENT="" />
    <EXPORT ORDINAL="4130" NAME="?count@QMenu@@QBEIXZ" PURGE="0" COMMENT="" />
    <EXPORT ORDINAL="4131" NAME="?count@QMenuBar@@QBEIXZ" PURGE="0" COMMENT="" />
    <EXPORT ORDINAL="4132" NAME="?count@QSplitter@@QBEHXZ" PURGE="-1" COMMENT="" />
    <EXPORT ORDINAL="4133" NAME="?count@QStackedLayout@@UBEHXZ" PURGE="-1" COMMENT="" />
    <EXPORT ORDINAL="4134" NAME="?count@QStackedWidget@@QBEHXZ" PURGE="-1" COMMENT="" />
    <EXPORT ORDINAL="4135" NAME="?count@QTabBar@@QBEHXZ" PURGE="-1" COMMENT="" />
    <EXPORT ORDINAL="4136" NAME="?count@QTabWidget@@QBEHXZ" PURGE="-1" COMMENT="" />
    <EXPORT ORDINAL="4137" NAME="?count@QTextList@@QBEHXZ" PURGE="-1" COMMENT="" />
    <EXPORT ORDINAL="4138" NAME="?count@QToolBox@@QBEHXZ" PURGE="-1" COMMENT="" />
    <EXPORT ORDINAL="4139" NAME="?count@QUndoStack@@QBEHXZ" PURGE="-1" COMMENT="" />
    <EXPORT ORDINAL="4140" NAME="?count@QZipReader@@QBEHXZ" PURGE="-1" COMMENT="" />
    <EXPORT ORDINAL="4141" NAME="?create@PixmapFragment@QPainter@@SA?AV12@ABVQPointF@@ABVQRectF@@NNNN@Z" PURGE="0" COMMENT="" />
    <EXPORT ORDINAL="4142" NAME="?create@QGestureRecognizer@@UAEPAVQGesture@@PAVQObject@@@Z" PURGE="4" COMMENT="" />
    <EXPORT ORDINAL="4143" NAME="?create@QImage@@QAE_NABVQSize@@HHW4Endian@1@@Z" PURGE="16" COMMENT="" />
    <EXPORT ORDINAL="4144" NAME="?create@QImage@@QAE_NHHHHW4Endian@1@@Z" PURGE="20" COMMENT="" />
    <EXPORT ORDINAL="4145" NAME="?create@QImageData@@SAPAU1@ABVQSize@@W4Format@QImage@@H@Z" PURGE="0" COMMENT="" />
    <EXPORT ORDINAL="4146" NAME="?create@QImageData@@SAPAU1@PAEHHHW4Format@QImage@@_N@Z" PURGE="0" COMMENT="" />
    <EXPORT ORDINAL="4147" NAME="?create@QInputContextFactory@@SAPAVQInputContext@@ABVQString@@PAVQObject@@@Z" PURGE="0" COMMENT="" />
    <EXPORT ORDINAL="4148" NAME="?create@QPixmapData@@SAPAV1@HHW4PixelType@1@@Z" PURGE="0" COMMENT="" />
    <EXPORT ORDINAL="4149" NAME="?create@QStyleFactory@@SAPAVQStyle@@ABVQString@@@Z" PURGE="0" COMMENT="" />
    <EXPORT ORDINAL="4150" NAME="?create@QWidget@@IAEXPAUHWND__@@_N1@Z" PURGE="12" COMMENT="" />
    <EXPORT ORDINAL="4151" NAME="?createAction@QWhatsThis@@SAPAVQAction@@PAVQObject@@@Z" PURGE="0" COMMENT="" />
    <EXPORT ORDINAL="4152" NAME="?createAlphaMask@QImage@@QBE?AV1@V?$QFlags@W4ImageConversionFlag@Qt@@@@@Z" PURGE="8" COMMENT="" />
    <EXPORT ORDINAL="4153" NAME="?createCache@QTextureGlyphCache@@QAEXHH@Z" PURGE="8" COMMENT="" />
    <EXPORT ORDINAL="4154" NAME="?createColorGroup@QPalette@@ABE?AVQColorGroup@@W4ColorGroup@1@@Z" PURGE="8" COMMENT="" />
    <EXPORT ORDINAL="4155" NAME="?createColumn@QColumnView@@MAEPAVQAbstractItemView@@ABVQModelIndex@@@Z" PURGE="4" COMMENT="" />
    <EXPORT ORDINAL="4156" NAME="?createCompatiblePixmapData@QPixmapData@@UBEPAV1@XZ" PURGE="0" COMMENT="" />
    <EXPORT ORDINAL="4157" NAME="?createCompatiblePixmapData@QRasterPixmapData@@UBEPAVQPixmapData@@XZ" PURGE="0" COMMENT="" />
    <EXPORT ORDINAL="4158" NAME="?createCompatiblePixmapData@QRuntimePixmapData@@UBEPAVQPixmapData@@XZ" PURGE="0" COMMENT="" />
    <EXPORT ORDINAL="4159" NAME="?createDatabase@QFontDatabase@@CAXXZ" PURGE="0" COMMENT="" />
    <EXPORT ORDINAL="4160" NAME="?createDefaultPixmapData@QGraphicsSystem@@SAPAVQPixmapData@@W4PixelType@2@@Z" PURGE="0" COMMENT="" />
    <EXPORT ORDINAL="4161" NAME="?createDefaultWindowSurface@QWidgetPrivate@@QAEPAVQWindowSurface@@XZ" PURGE="0" COMMENT="" />
    <EXPORT ORDINAL="4162" NAME="?createDefaultWindowSurface_sys@QWidgetPrivate@@QAEPAVQWindowSurface@@XZ" PURGE="0" COMMENT="" />
    <EXPORT ORDINAL="4163" NAME="?createEditor@QAbstractItemDelegate@@UBEPAVQWidget@@PAV2@ABVQStyleOptionViewItem@@ABVQModelIndex@@@Z" PURGE="12" COMMENT="" />
    <EXPORT ORDINAL="4164" NAME="?createEditor@QItemDelegate@@UBEPAVQWidget@@PAV2@ABVQStyleOptionViewItem@@ABVQModelIndex@@@Z" PURGE="12" COMMENT="" />
    <EXPORT ORDINAL="4165" NAME="?createEditor@QItemEditorFactory@@UBEPAVQWidget@@W4Type@QVariant@@PAV2@@Z" PURGE="8" COMMENT="" />
    <EXPORT ORDINAL="4166" NAME="?createEditor@QStyledItemDelegate@@UBEPAVQWidget@@PAV2@ABVQStyleOptionViewItem@@ABVQModelIndex@@@Z" PURGE="12" COMMENT="" />
    <EXPORT ORDINAL="4167" NAME="?createEventDispatcher@QApplicationPrivate@@UAEXXZ" PURGE="0" COMMENT="" />
    <EXPORT ORDINAL="4168" NAME="?createExtendedKeyEvent@QKeyEvent@@SAPAV1@W4Type@QEvent@@HV?$QFlags@W4KeyboardModifier@Qt@@@@IIIABVQString@@_NG@Z" PURGE="0" COMMENT="" />
    <EXPORT ORDINAL="4169" NAME="?createExtendedMouseEvent@QMouseEvent@@SAPAV1@W4Type@QEvent@@ABVQPointF@@ABVQPoint@@W4MouseButton@Qt@@V?$QFlags@W4MouseButton@Qt@@@@V?$QFlags@W4KeyboardModifier@Qt@@@@@Z" PURGE="0" COMMENT="" />
    <EXPORT ORDINAL="4170" NAME="?createExtra@QWidgetPrivate@@QAEXXZ" PURGE="0" COMMENT="" />
    <EXPORT ORDINAL="4171" NAME="?createHandle@QSplitter@@MAEPAVQSplitterHandle@@XZ" PURGE="0" COMMENT="" />
    <EXPORT ORDINAL="4172" NAME="?createHeuristicMask@QImage@@QBE?AV1@_N@Z" PURGE="8" COMMENT="" />
    <EXPORT ORDINAL="4173" NAME="?createHeuristicMask@QPixmap@@QBE?AVQBitmap@@_N@Z" PURGE="8" COMMENT="" />
    <EXPORT ORDINAL="4174" NAME="?createItemGroup@QGraphicsScene@@QAEPAVQGraphicsItemGroup@@ABV?$QList@PAVQGraphicsItem@@@@@Z" PURGE="4" COMMENT="" />
    <EXPORT ORDINAL="4175" NAME="?createLine@QTextLayout@@QAE?AVQTextLine@@XZ" PURGE="4" COMMENT="" />
    <EXPORT ORDINAL="4176" NAME="?createList@QTextCursor@@QAEPAVQTextList@@ABVQTextListFormat@@@Z" PURGE="4" COMMENT="" />
    <EXPORT ORDINAL="4177" NAME="?createList@QTextCursor@@QAEPAVQTextList@@W4Style@QTextListFormat@@@Z" PURGE="4" COMMENT="" />
    <EXPORT ORDINAL="4178" NAME="?createMaskFromColor@QImage@@QBE?AV1@IW4MaskMode@Qt@@@Z" PURGE="12" COMMENT="" />
    <EXPORT ORDINAL="4179" NAME="?createMaskFromColor@QPixmap@@QBE?AVQBitmap@@ABVQColor@@@Z" PURGE="8" COMMENT="" />
    <EXPORT ORDINAL="4180" NAME="?createMaskFromColor@QPixmap@@QBE?AVQBitmap@@ABVQColor@@W4MaskMode@Qt@@@Z" PURGE="12" COMMENT="" />
    <EXPORT ORDINAL="4181" NAME="?createMimeDataFromSelection@QPlainTextEdit@@MBEPAVQMimeData@@XZ" PURGE="0" COMMENT="" />
    <EXPORT ORDINAL="4182" NAME="?createMimeDataFromSelection@QTextControl@@UBEPAVQMimeData@@XZ" PURGE="0" COMMENT="" />
    <EXPORT ORDINAL="4183" NAME="?createMimeDataFromSelection@QTextEdit@@MBEPAVQMimeData@@XZ" PURGE="0" COMMENT="" />
    <EXPORT ORDINAL="4184" NAME="?createObject@QTextDocument@@MAEPAVQTextObject@@ABVQTextFormat@@@Z" PURGE="4" COMMENT="" />
    <EXPORT ORDINAL="4185" NAME="?createObjectIndex@QTextFormatCollection@@QAEHABVQTextFormat@@@Z" PURGE="4" COMMENT="" />
    <EXPORT ORDINAL="4186" NAME="?createPixmapData@QGraphicsSystem@@UAEPAVQPixmapData@@PAV2@@Z" PURGE="-1" COMMENT="" />
    <EXPORT ORDINAL="4187" NAME="?createPixmapForImage@QRasterPixmapData@@IAEXAAVQImage@@V?$QFlags@W4ImageConversionFlag@Qt@@@@_N@Z" PURGE="12" COMMENT="" />
    <EXPORT ORDINAL="4188" NAME="?createPopupMenu@QMainWindow@@UAEPAVQMenu@@XZ" PURGE="0" COMMENT="" />
    <EXPORT ORDINAL="4189" NAME="?createProxyForChildWidget@QGraphicsProxyWidget@@QAEPAV1@PAVQWidget@@@Z" PURGE="4" COMMENT="" />
    <EXPORT ORDINAL="4190" NAME="?createRecursively@QWidgetPrivate@@QAEXXZ" PURGE="0" COMMENT="" />
    <EXPORT ORDINAL="4191" NAME="?createRedoAction@QUndoGroup@@QBEPAVQAction@@PAVQObject@@ABVQString@@@Z" PURGE="8" COMMENT="" />
    <EXPORT ORDINAL="4192" NAME="?createRedoAction@QUndoStack@@QBEPAVQAction@@PAVQObject@@ABVQString@@@Z" PURGE="8" COMMENT="" />
    <EXPORT ORDINAL="4193" NAME="?createSpacerItem@QLayoutPrivate@@SAPAVQSpacerItem@@PBVQLayout@@HHW4Policy@QSizePolicy@@1@Z" PURGE="0" COMMENT="" />
    <EXPORT ORDINAL="4194" NAME="?createStandardContextMenu@QLineEdit@@QAEPAVQMenu@@XZ" PURGE="0" COMMENT="" />
    <EXPORT ORDINAL="4195" NAME="?createStandardContextMenu@QPlainTextEdit@@QAEPAVQMenu@@XZ" PURGE="0" COMMENT="" />
    <EXPORT ORDINAL="4196" NAME="?createStandardContextMenu@QTextControl@@QAEPAVQMenu@@ABVQPointF@@PAVQWidget@@@Z" PURGE="8" COMMENT="" />
    <EXPORT ORDINAL="4197" NAME="?createStandardContextMenu@QTextEdit@@QAEPAVQMenu@@ABVQPoint@@@Z" PURGE="4" COMMENT="" />
    <EXPORT ORDINAL="4198" NAME="?createStandardContextMenu@QTextEdit@@QAEPAVQMenu@@XZ" PURGE="0" COMMENT="" />
    <EXPORT ORDINAL="4199" NAME="?createState@QPaintEngineEx@@UBEPAVQPainterState@@PAV2@@Z" PURGE="4" COMMENT="" />
    <EXPORT ORDINAL="4200" NAME="?createStroke@QPainterPathStroker@@QBE?AVQPainterPath@@ABV2@@Z" PURGE="8" COMMENT="" />
    <EXPORT ORDINAL="4201" NAME="?createSysExtra@QWidgetPrivate@@QAEXXZ" PURGE="0" COMMENT="" />
    <EXPORT ORDINAL="4202" NAME="?createTLExtra@QWidgetPrivate@@QAEXXZ" PURGE="0" COMMENT="" />
    <EXPORT ORDINAL="4203" NAME="?createTLSysExtra@QWidgetPrivate@@QAEXXZ" PURGE="0" COMMENT="" />
    <EXPORT ORDINAL="4204" NAME="?createTextureData@QImageTextureGlyphCache@@UAEXHH@Z" PURGE="8" COMMENT="" />
    <EXPORT ORDINAL="4205" NAME="?createUndoAction@QUndoGroup@@QBEPAVQAction@@PAVQObject@@ABVQString@@@Z" PURGE="8" COMMENT="" />
    <EXPORT ORDINAL="4206" NAME="?createUndoAction@QUndoStack@@QBEPAVQAction@@PAVQObject@@ABVQString@@@Z" PURGE="8" COMMENT="" />
    <EXPORT ORDINAL="4207" NAME="?createWidget@QWidgetAction@@MAEPAVQWidget@@PAV2@@Z" PURGE="4" COMMENT="" />
    <EXPORT ORDINAL="4208" NAME="?createWidgetItem@QLayoutPrivate@@SAPAVQWidgetItem@@PBVQLayout@@PAVQWidget@@@Z" PURGE="0" COMMENT="" />
    <EXPORT ORDINAL="4209" NAME="?createWinId@QWidget@@QAEXXZ" PURGE="0" COMMENT="" />
    <EXPORT ORDINAL="4210" NAME="?createWinId@QWidgetPrivate@@QAEXPAUHWND__@@@Z" PURGE="4" COMMENT="" />
    <EXPORT ORDINAL="4211" NAME="?create_sys@QWidgetPrivate@@QAEXPAUHWND__@@_N1@Z" PURGE="12" COMMENT="" />
    <EXPORT ORDINAL="4212" NAME="?createdWidgets@QWidgetAction@@IBE?AV?$QList@PAVQWidget@@@@XZ" PURGE="4" COMMENT="" />
    <EXPORT ORDINAL="4213" NAME="?creationPermissions@QZipWriter@@QBE?AV?$QFlags@W4Permission@QFile@@@@XZ" PURGE="4" COMMENT="" />
    <EXPORT ORDINAL="4214" NAME="?creator@QPrinter@@QBE?AVQString@@XZ" PURGE="4" COMMENT="" />
    <EXPORT ORDINAL="4215" NAME="?critical@QMessageBox@@SA?AW4StandardButton@1@PAVQWidget@@ABVQString@@1V?$QFlags@W4StandardButton@QMessageBox@@@@W421@@Z" PURGE="0" COMMENT="" />
    <EXPORT ORDINAL="4216" NAME="?critical@QMessageBox@@SAHPAVQWidget@@ABVQString@@1111HH@Z" PURGE="0" COMMENT="" />
    <EXPORT ORDINAL="4217" NAME="?critical@QMessageBox@@SAHPAVQWidget@@ABVQString@@1HHH@Z" PURGE="0" COMMENT="" />
    <EXPORT ORDINAL="4218" NAME="?critical@QMessageBox@@SAHPAVQWidget@@ABVQString@@1W4StandardButton@1@2@Z" PURGE="0" COMMENT="" />
    <EXPORT ORDINAL="4219" NAME="?crossProduct@QVector3D@@SA?AV1@ABV1@0@Z" PURGE="0" COMMENT="" />
    <EXPORT ORDINAL="4220" NAME="?cubicTo@QPainterPath@@QAEXABVQPointF@@00@Z" PURGE="12" COMMENT="" />
    <EXPORT ORDINAL="4221" NAME="?cubicTo@QPainterPath@@QAEXNNNNNN@Z" PURGE="48" COMMENT="" />
    <EXPORT ORDINAL="4222" NAME="?cubicTo@QStrokerOps@@QAEXNNNNNN@Z" PURGE="48" COMMENT="" />
    <EXPORT ORDINAL="4223" NAME="?current@QLayoutIterator@@QAEPAVQLayoutItem@@XZ" PURGE="0" COMMENT="" />
    <EXPORT ORDINAL="4224" NAME="?currentBlock@QSyntaxHighlighter@@IBE?AVQTextBlock@@XZ" PURGE="4" COMMENT="" />
    <EXPORT ORDINAL="4225" NAME="?currentBlock@iterator@QTextFrame@@QBE?AVQTextBlock@@XZ" PURGE="4" COMMENT="" />
    <EXPORT ORDINAL="4226" NAME="?currentBlockState@QSyntaxHighlighter@@IBEHXZ" PURGE="0" COMMENT="" />
    <EXPORT ORDINAL="4227" NAME="?currentBlockUserData@QSyntaxHighlighter@@IBEPAVQTextBlockUserData@@XZ" PURGE="0" COMMENT="" />
    <EXPORT ORDINAL="4228" NAME="?currentCellChanged@QTableWidget@@IAEXHHHH@Z" PURGE="16" COMMENT="" />
    <EXPORT ORDINAL="4229" NAME="?currentChanged@QAbstractItemView@@MAEXABVQModelIndex@@0@Z" PURGE="8" COMMENT="" />
    <EXPORT ORDINAL="4230" NAME="?currentChanged@QColumnView@@MAEXABVQModelIndex@@0@Z" PURGE="8" COMMENT="" />
    <EXPORT ORDINAL="4231" NAME="?currentChanged@QFileDialog@@IAEXABVQString@@@Z" PURGE="4" COMMENT="" />
    <EXPORT ORDINAL="4232" NAME="?currentChanged@QHeaderView@@MAEXABVQModelIndex@@0@Z" PURGE="8" COMMENT="" />
    <EXPORT ORDINAL="4233" NAME="?currentChanged@QItemSelectionModel@@IAEXABVQModelIndex@@0@Z" PURGE="8" COMMENT="" />
    <EXPORT ORDINAL="4234" NAME="?currentChanged@QListView@@MAEXABVQModelIndex@@0@Z" PURGE="8" COMMENT="" />
    <EXPORT ORDINAL="4235" NAME="?currentChanged@QStackedLayout@@IAEXH@Z" PURGE="4" COMMENT="" />
    <EXPORT ORDINAL="4236" NAME="?currentChanged@QStackedWidget@@IAEXH@Z" PURGE="4" COMMENT="" />
    <EXPORT ORDINAL="4237" NAME="?currentChanged@QTabBar@@IAEXH@Z" PURGE="4" COMMENT="" />
    <EXPORT ORDINAL="4238" NAME="?currentChanged@QTabWidget@@IAEXH@Z" PURGE="4" COMMENT="" />
    <EXPORT ORDINAL="4239" NAME="?currentChanged@QTabWidget@@IAEXPAVQWidget@@@Z" PURGE="4" COMMENT="" />
    <EXPORT ORDINAL="4240" NAME="?currentChanged@QTableView@@MAEXABVQModelIndex@@0@Z" PURGE="8" COMMENT="" />
    <EXPORT ORDINAL="4241" NAME="?currentChanged@QToolBox@@IAEXH@Z" PURGE="4" COMMENT="" />
    <EXPORT ORDINAL="4242" NAME="?currentChanged@QTreeView@@MAEXABVQModelIndex@@0@Z" PURGE="8" COMMENT="" />
    <EXPORT ORDINAL="4243" NAME="?currentCharFormat@QPlainTextEdit@@QBE?AVQTextCharFormat@@XZ" PURGE="4" COMMENT="" />
    <EXPORT ORDINAL="4244" NAME="?currentCharFormat@QTextControl@@QBE?AVQTextCharFormat@@XZ" PURGE="4" COMMENT="" />
    <EXPORT ORDINAL="4245" NAME="?currentCharFormat@QTextEdit@@QBE?AVQTextCharFormat@@XZ" PURGE="4" COMMENT="" />
    <EXPORT ORDINAL="4246" NAME="?currentCharFormatChanged@QTextControl@@IAEXABVQTextCharFormat@@@Z" PURGE="4" COMMENT="" />
    <EXPORT ORDINAL="4247" NAME="?currentCharFormatChanged@QTextEdit@@IAEXABVQTextCharFormat@@@Z" PURGE="4" COMMENT="" />
    <EXPORT ORDINAL="4248" NAME="?currentColor@QColorDialog@@QBE?AVQColor@@XZ" PURGE="4" COMMENT="" />
    <EXPORT ORDINAL="4249" NAME="?currentColorChanged@QColorDialog@@IAEXABVQColor@@@Z" PURGE="4" COMMENT="" />
    <EXPORT ORDINAL="4250" NAME="?currentColorChanged@QTextEdit@@IAEXABVQColor@@@Z" PURGE="4" COMMENT="" />
    <EXPORT ORDINAL="4251" NAME="?currentColorGroup@QPalette@@QBE?AW4ColorGroup@1@XZ" PURGE="0" COMMENT="" />
    <EXPORT ORDINAL="4252" NAME="?currentColumn@QTableWidget@@QBEHXZ" PURGE="0" COMMENT="" />
    <EXPORT ORDINAL="4253" NAME="?currentColumn@QTreeWidget@@QBEHXZ" PURGE="0" COMMENT="" />
    <EXPORT ORDINAL="4254" NAME="?currentColumnChanged@QItemSelectionModel@@IAEXABVQModelIndex@@0@Z" PURGE="8" COMMENT="" />
    <EXPORT ORDINAL="4255" NAME="?currentCompletion@QCompleter@@QBE?AVQString@@XZ" PURGE="4" COMMENT="" />
    <EXPORT ORDINAL="4256" NAME="?currentFont@QFontComboBox@@QBE?AVQFont@@XZ" PURGE="4" COMMENT="" />
    <EXPORT ORDINAL="4257" NAME="?currentFont@QFontDialog@@QBE?AVQFont@@XZ" PURGE="4" COMMENT="" />
    <EXPORT ORDINAL="4258" NAME="?currentFont@QTextEdit@@QBE?AVQFont@@XZ" PURGE="4" COMMENT="" />
    <EXPORT ORDINAL="4259" NAME="?currentFontChanged@QFontComboBox@@IAEXABVQFont@@@Z" PURGE="4" COMMENT="" />
    <EXPORT ORDINAL="4260" NAME="?currentFontChanged@QFontDialog@@IAEXABVQFont@@@Z" PURGE="4" COMMENT="" />
    <EXPORT ORDINAL="4261" NAME="?currentFontChanged@QTextEdit@@IAEXABVQFont@@@Z" PURGE="4" COMMENT="" />
    <EXPORT ORDINAL="4262" NAME="?currentFrame@QTextCursor@@QBEPAVQTextFrame@@XZ" PURGE="0" COMMENT="" />
    <EXPORT ORDINAL="4263" NAME="?currentFrame@iterator@QTextFrame@@QBEPAV2@XZ" PURGE="0" COMMENT="" />
    <EXPORT ORDINAL="4264" NAME="?currentFrameNumber@QMovie@@QBEHXZ" PURGE="0" COMMENT="" />
    <EXPORT ORDINAL="4265" NAME="?currentId@QWizard@@QBEHXZ" PURGE="0" COMMENT="" />
    <EXPORT ORDINAL="4266" NAME="?currentIdChanged@QWizard@@IAEXH@Z" PURGE="4" COMMENT="" />
    <EXPORT ORDINAL="4267" NAME="?currentImage@QMovie@@QBE?AVQImage@@XZ" PURGE="4" COMMENT="" />
    <EXPORT ORDINAL="4268" NAME="?currentImageNumber@QImageIOHandler@@UBEHXZ" PURGE="0" COMMENT="" />
    <EXPORT ORDINAL="4269" NAME="?currentImageNumber@QImageReader@@QBEHXZ" PURGE="0" COMMENT="" />
    <EXPORT ORDINAL="4270" NAME="?currentImageRect@QImageIOHandler@@UBE?AVQRect@@XZ" PURGE="4" COMMENT="" />
    <EXPORT ORDINAL="4271" NAME="?currentImageRect@QImageReader@@QBE?AVQRect@@XZ" PURGE="4" COMMENT="" />
    <EXPORT ORDINAL="4272" NAME="?currentIndex@QAbstractItemView@@QBE?AVQModelIndex@@XZ" PURGE="4" COMMENT="" />
    <EXPORT ORDINAL="4273" NAME="?currentIndex@QComboBox@@QBEHXZ" PURGE="-1" COMMENT="" />
    <EXPORT ORDINAL="4274" NAME="?currentIndex@QCompleter@@QBE?AVQModelIndex@@XZ" PURGE="4" COMMENT="" />
    <EXPORT ORDINAL="4275" NAME="?currentIndex@QDataWidgetMapper@@QBEHXZ" PURGE="-1" COMMENT="" />
    <EXPORT ORDINAL="4276" NAME="?currentIndex@QItemSelectionModel@@QBE?AVQModelIndex@@XZ" PURGE="4" COMMENT="" />
    <EXPORT ORDINAL="4277" NAME="?currentIndex@QStackedLayout@@QBEHXZ" PURGE="0" COMMENT="" />
    <EXPORT ORDINAL="4278" NAME="?currentIndex@QStackedWidget@@QBEHXZ" PURGE="0" COMMENT="" />
    <EXPORT ORDINAL="4279" NAME="?currentIndex@QTabBar@@QBEHXZ" PURGE="0" COMMENT="" />
    <EXPORT ORDINAL="4280" NAME="?currentIndex@QTabWidget@@QBEHXZ" PURGE="0" COMMENT="" />
    <EXPORT ORDINAL="4281" NAME="?currentIndex@QToolBox@@QBEHXZ" PURGE="0" COMMENT="" />
    <EXPORT ORDINAL="4282" NAME="?currentIndexChanged@QComboBox@@IAEXABVQString@@@Z" PURGE="4" COMMENT="" />
    <EXPORT ORDINAL="4283" NAME="?currentIndexChanged@QComboBox@@IAEXH@Z" PURGE="4" COMMENT="" />
    <EXPORT ORDINAL="4284" NAME="?currentIndexChanged@QDataWidgetMapper@@IAEXH@Z" PURGE="4" COMMENT="" />
    <EXPORT ORDINAL="4285" NAME="?currentItem@QComboBox@@QBEHXZ" PURGE="-1" COMMENT="" />
    <EXPORT ORDINAL="4286" NAME="?currentItem@QListWidget@@QBEPAVQListWidgetItem@@XZ" PURGE="0" COMMENT="" />
    <EXPORT ORDINAL="4287" NAME="?currentItem@QTableWidget@@QBEPAVQTableWidgetItem@@XZ" PURGE="0" COMMENT="" />
    <EXPORT ORDINAL="4288" NAME="?currentItem@QToolBox@@QBEPAVQWidget@@XZ" PURGE="0" COMMENT="" />
    <EXPORT ORDINAL="4289" NAME="?currentItem@QTreeWidget@@QBEPAVQTreeWidgetItem@@XZ" PURGE="0" COMMENT="" />
    <EXPORT ORDINAL="4290" NAME="?currentItemChanged@QListWidget@@IAEXPAVQListWidgetItem@@0@Z" PURGE="8" COMMENT="" />
    <EXPORT ORDINAL="4291" NAME="?currentItemChanged@QTableWidget@@IAEXPAVQTableWidgetItem@@0@Z" PURGE="8" COMMENT="" />
    <EXPORT ORDINAL="4292" NAME="?currentItemChanged@QTreeWidget@@IAEXPAVQTreeWidgetItem@@0@Z" PURGE="8" COMMENT="" />
    <EXPORT ORDINAL="4293" NAME="?currentList@QTextCursor@@QBEPAVQTextList@@XZ" PURGE="0" COMMENT="" />
    <EXPORT ORDINAL="4294" NAME="?currentMessage@QStatusBar@@QBE?AVQString@@XZ" PURGE="4" COMMENT="" />
    <EXPORT ORDINAL="4295" NAME="?currentPage@QPrintPreviewWidget@@QBEHXZ" PURGE="0" COMMENT="" />
    <EXPORT ORDINAL="4296" NAME="?currentPage@QTabWidget@@QBEPAVQWidget@@XZ" PURGE="0" COMMENT="" />
    <EXPORT ORDINAL="4297" NAME="?currentPage@QWizard@@QBEPAVQWizardPage@@XZ" PURGE="0" COMMENT="" />
    <EXPORT ORDINAL="4298" NAME="?currentPageChanged@QCalendarWidget@@IAEXHH@Z" PURGE="8" COMMENT="" />
    <EXPORT ORDINAL="4299" NAME="?currentPageIndex@QTabWidget@@QBEHXZ" PURGE="0" COMMENT="" />
    <EXPORT ORDINAL="4300" NAME="?currentPixmap@QMovie@@QBE?AVQPixmap@@XZ" PURGE="4" COMMENT="" />
    <EXPORT ORDINAL="4301" NAME="?currentPlatform@QApplicationPrivate@@SAIXZ" PURGE="0" COMMENT="" />
    <EXPORT ORDINAL="4302" NAME="?currentPosition@QPainterPath@@QBE?AVQPointF@@XZ" PURGE="4" COMMENT="" />
    <EXPORT ORDINAL="4303" NAME="?currentRow@QCompleter@@QBEHXZ" PURGE="0" COMMENT="" />
    <EXPORT ORDINAL="4304" NAME="?currentRow@QListWidget@@QBEHXZ" PURGE="0" COMMENT="" />
    <EXPORT ORDINAL="4305" NAME="?currentRow@QTableWidget@@QBEHXZ" PURGE="0" COMMENT="" />
    <EXPORT ORDINAL="4306" NAME="?currentRowChanged@QItemSelectionModel@@IAEXABVQModelIndex@@0@Z" PURGE="8" COMMENT="" />
    <EXPORT ORDINAL="4307" NAME="?currentRowChanged@QListWidget@@IAEXH@Z" PURGE="4" COMMENT="" />
    <EXPORT ORDINAL="4308" NAME="?currentSection@QDateTimeEdit@@QBE?AW4Section@1@XZ" PURGE="0" COMMENT="" />
    <EXPORT ORDINAL="4309" NAME="?currentSectionIndex@QDateTimeEdit@@QBEHXZ" PURGE="0" COMMENT="" />
    <EXPORT ORDINAL="4310" NAME="?currentSubWindow@QMdiArea@@QBEPAVQMdiSubWindow@@XZ" PURGE="0" COMMENT="" />
    <EXPORT ORDINAL="4311" NAME="?currentTable@QTextCursor@@QBEPAVQTextTable@@XZ" PURGE="0" COMMENT="" />
    <EXPORT ORDINAL="4312" NAME="?currentText@QComboBox@@QBE?AVQString@@XZ" PURGE="4" COMMENT="" />
    <EXPORT ORDINAL="4313" NAME="?currentTextChanged@QListWidget@@IAEXABVQString@@@Z" PURGE="4" COMMENT="" />
    <EXPORT ORDINAL="4314" NAME="?currentWidget@QStackedLayout@@QBEPAVQWidget@@XZ" PURGE="0" COMMENT="" />
    <EXPORT ORDINAL="4315" NAME="?currentWidget@QStackedWidget@@QBEPAVQWidget@@XZ" PURGE="0" COMMENT="" />
    <EXPORT ORDINAL="4316" NAME="?currentWidget@QTabWidget@@QBEPAVQWidget@@XZ" PURGE="0" COMMENT="" />
    <EXPORT ORDINAL="4317" NAME="?currentWidget@QToolBox@@QBEPAVQWidget@@XZ" PURGE="0" COMMENT="" />
    <EXPORT ORDINAL="4318" NAME="?cursor@QGraphicsItem@@QBE?AVQCursor@@XZ" PURGE="4" COMMENT="" />
    <EXPORT ORDINAL="4319" NAME="?cursor@QLineControl@@QBEHXZ" PURGE="0" COMMENT="" />
    <EXPORT ORDINAL="4320" NAME="?cursor@QWidget@@QBE?AVQCursor@@XZ" PURGE="4" COMMENT="" />
    <EXPORT ORDINAL="4321" NAME="?cursorBackward@QLineEdit@@QAEX_NH@Z" PURGE="8" COMMENT="" />
    <EXPORT ORDINAL="4322" NAME="?cursorBlinkPeriod@QLineControl@@QBEHXZ" PURGE="0" COMMENT="" />
    <EXPORT ORDINAL="4323" NAME="?cursorFlashTime@QApplication@@SAHXZ" PURGE="0" COMMENT="" />
    <EXPORT ORDINAL="4324" NAME="?cursorForPosition@QPlainTextEdit@@QBE?AVQTextCursor@@ABVQPoint@@@Z" PURGE="8" COMMENT="" />
    <EXPORT ORDINAL="4325" NAME="?cursorForPosition@QTextControl@@QBE?AVQTextCursor@@ABVQPointF@@@Z" PURGE="8" COMMENT="" />
    <EXPORT ORDINAL="4326" NAME="?cursorForPosition@QTextEdit@@QBE?AVQTextCursor@@ABVQPoint@@@Z" PURGE="8" COMMENT="" />
    <EXPORT ORDINAL="4327" NAME="?cursorForward@QLineControl@@QAEX_NH@Z" PURGE="8" COMMENT="" />
    <EXPORT ORDINAL="4328" NAME="?cursorForward@QLineEdit@@QAEX_NH@Z" PURGE="8" COMMENT="" />
    <EXPORT ORDINAL="4329" NAME="?cursorIsFocusIndicator@QTextControl@@QBE_NXZ" PURGE="0" COMMENT="" />
    <EXPORT ORDINAL="4330" NAME="?cursorLeft@QLineEdit@@QAEX_NH@Z" PURGE="8" COMMENT="" />
    <EXPORT ORDINAL="4331" NAME="?cursorMoveStyle@QLineControl@@QBE?AW4CursorMoveStyle@Qt@@XZ" PURGE="0" COMMENT="" />
    <EXPORT ORDINAL="4332" NAME="?cursorMoveStyle@QLineEdit@@QBE?AW4CursorMoveStyle@Qt@@XZ" PURGE="0" COMMENT="" />
    <EXPORT ORDINAL="4333" NAME="?cursorMoveStyle@QTextLayout@@QBE?AW4CursorMoveStyle@Qt@@XZ" PURGE="0" COMMENT="" />
    <EXPORT ORDINAL="4334" NAME="?cursorPosition@QLineControl@@QBEHXZ" PURGE="0" COMMENT="" />
    <EXPORT ORDINAL="4335" NAME="?cursorPosition@QLineEdit@@QBEHXZ" PURGE="0" COMMENT="" />
    <EXPORT ORDINAL="4336" NAME="?cursorPositionAt@QLineEdit@@QAEHABVQPoint@@@Z" PURGE="4" COMMENT="" />
    <EXPORT ORDINAL="4337" NAME="?cursorPositionChanged@QLineControl@@IAEXHH@Z" PURGE="8" COMMENT="" />
    <EXPORT ORDINAL="4338" NAME="?cursorPositionChanged@QLineEdit@@IAEXHH@Z" PURGE="8" COMMENT="" />
    <EXPORT ORDINAL="4339" NAME="?cursorPositionChanged@QPlainTextEdit@@IAEXXZ" PURGE="0" COMMENT="" />
    <EXPORT ORDINAL="4340" NAME="?cursorPositionChanged@QTextControl@@IAEXXZ" PURGE="0" COMMENT="" />
    <EXPORT ORDINAL="4341" NAME="?cursorPositionChanged@QTextDocument@@IAEXABVQTextCursor@@@Z" PURGE="4" COMMENT="" />
    <EXPORT ORDINAL="4342" NAME="?cursorPositionChanged@QTextEdit@@IAEXXZ" PURGE="0" COMMENT="" />
    <EXPORT ORDINAL="4343" NAME="?cursorRect@QLineControl@@QBE?AVQRect@@XZ" PURGE="4" COMMENT="" />
    <EXPORT ORDINAL="4344" NAME="?cursorRect@QLineEdit@@IBE?AVQRect@@XZ" PURGE="4" COMMENT="" />
    <EXPORT ORDINAL="4345" NAME="?cursorRect@QPlainTextEdit@@QBE?AVQRect@@ABVQTextCursor@@@Z" PURGE="8" COMMENT="" />
    <EXPORT ORDINAL="4346" NAME="?cursorRect@QPlainTextEdit@@QBE?AVQRect@@XZ" PURGE="4" COMMENT="" />
    <EXPORT ORDINAL="4347" NAME="?cursorRect@QTextControl@@QBE?AVQRectF@@ABVQTextCursor@@@Z" PURGE="8" COMMENT="" />
    <EXPORT ORDINAL="4348" NAME="?cursorRect@QTextControl@@QBE?AVQRectF@@XZ" PURGE="4" COMMENT="" />
    <EXPORT ORDINAL="4349" NAME="?cursorRect@QTextEdit@@QBE?AVQRect@@ABVQTextCursor@@@Z" PURGE="8" COMMENT="" />
    <EXPORT ORDINAL="4350" NAME="?cursorRect@QTextEdit@@QBE?AVQRect@@XZ" PURGE="4" COMMENT="" />
    <EXPORT ORDINAL="4351" NAME="?cursorRight@QLineEdit@@QAEX_NH@Z" PURGE="8" COMMENT="" />
    <EXPORT ORDINAL="4352" NAME="?cursorToX@QLineControl@@QBENH@Z" PURGE="4" COMMENT="" />
    <EXPORT ORDINAL="4353" NAME="?cursorToX@QLineControl@@QBENXZ" PURGE="0" COMMENT="" />
    <EXPORT ORDINAL="4354" NAME="?cursorToX@QTextLine@@QBENHW4Edge@1@@Z" PURGE="8" COMMENT="" />
    <EXPORT ORDINAL="4355" NAME="?cursorToX@QTextLine@@QBENPAHW4Edge@1@@Z" PURGE="8" COMMENT="" />
    <EXPORT ORDINAL="4356" NAME="?cursorWidth@QLineControl@@QBEHXZ" PURGE="0" COMMENT="" />
    <EXPORT ORDINAL="4357" NAME="?cursorWidth@QPlainTextDocumentLayout@@QBEHXZ" PURGE="0" COMMENT="" />
    <EXPORT ORDINAL="4358" NAME="?cursorWidth@QPlainTextEdit@@QBEHXZ" PURGE="0" COMMENT="" />
    <EXPORT ORDINAL="4359" NAME="?cursorWidth@QTextControl@@QBEHXZ" PURGE="0" COMMENT="" />
    <EXPORT ORDINAL="4360" NAME="?cursorWidth@QTextEdit@@QBEHXZ" PURGE="0" COMMENT="" />
    <EXPORT ORDINAL="4361" NAME="?cursorWordBackward@QLineControl@@QAEX_N@Z" PURGE="4" COMMENT="" />
    <EXPORT ORDINAL="4362" NAME="?cursorWordBackward@QLineEdit@@QAEX_N@Z" PURGE="4" COMMENT="" />
    <EXPORT ORDINAL="4363" NAME="?cursorWordForward@QLineControl@@QAEX_N@Z" PURGE="4" COMMENT="" />
    <EXPORT ORDINAL="4364" NAME="?cursorWordForward@QLineEdit@@QAEX_N@Z" PURGE="4" COMMENT="" />
    <EXPORT ORDINAL="4365" NAME="?cursor_flash_time@QApplicationPrivate@@2HA" PURGE="-1" COMMENT="" />
    <EXPORT ORDINAL="4366" NAME="?curveThreshold@QPainterPathStroker@@QBENXZ" PURGE="0" COMMENT="" />
    <EXPORT ORDINAL="4367" NAME="?curveThreshold@QStrokerOps@@QBENXZ" PURGE="0" COMMENT="" />
    <EXPORT ORDINAL="4368" NAME="?customButtonClicked@QWizard@@IAEXH@Z" PURGE="4" COMMENT="" />
    <EXPORT ORDINAL="4369" NAME="?customColor@QColorDialog@@SAIH@Z" PURGE="0" COMMENT="" />
    <EXPORT ORDINAL="4370" NAME="?customContextMenuRequested@QWidget@@IAEXABVQPoint@@@Z" PURGE="4" COMMENT="" />
    <EXPORT ORDINAL="4371" NAME="?customCount@QColorDialog@@SAHXZ" PURGE="0" COMMENT="" />
    <EXPORT ORDINAL="4372" NAME="?cut@QLineEdit@@QAEXXZ" PURGE="0" COMMENT="" />
    <EXPORT ORDINAL="4373" NAME="?cut@QPlainTextEdit@@QAEXXZ" PURGE="0" COMMENT="" />
    <EXPORT ORDINAL="4374" NAME="?cut@QTextControl@@QAEXXZ" PURGE="0" COMMENT="" />
    <EXPORT ORDINAL="4375" NAME="?cut@QTextEdit@@QAEXXZ" PURGE="0" COMMENT="" />
    <EXPORT ORDINAL="4376" NAME="?cutText@QAccessibleSimpleEditableTextInterface@@UAEXHH@Z" PURGE="8" COMMENT="" />
    <EXPORT ORDINAL="4377" NAME="?cyan@QColor@@QBEHXZ" PURGE="0" COMMENT="" />
    <EXPORT ORDINAL="4378" NAME="?cyanF@QColor@@QBENXZ" PURGE="0" COMMENT="" />
    <EXPORT ORDINAL="4379" NAME="?d_func@QAbstractButton@@AAEPAVQAbstractButtonPrivate@@XZ" PURGE="0" COMMENT="" />
    <EXPORT ORDINAL="4380" NAME="?d_func@QAbstractButton@@ABEPBVQAbstractButtonPrivate@@XZ" PURGE="0" COMMENT="" />
    <EXPORT ORDINAL="4381" NAME="?d_func@QAbstractGraphicsShapeItem@@AAEPAVQAbstractGraphicsShapeItemPrivate@@XZ" PURGE="0" COMMENT="" />
    <EXPORT ORDINAL="4382" NAME="?d_func@QAbstractGraphicsShapeItem@@ABEPBVQAbstractGraphicsShapeItemPrivate@@XZ" PURGE="0" COMMENT="" />
    <EXPORT ORDINAL="4383" NAME="?d_func@QAbstractItemView@@AAEPAVQAbstractItemViewPrivate@@XZ" PURGE="0" COMMENT="" />
    <EXPORT ORDINAL="4384" NAME="?d_func@QAbstractItemView@@ABEPBVQAbstractItemViewPrivate@@XZ" PURGE="0" COMMENT="" />
    <EXPORT ORDINAL="4385" NAME="?d_func@QAbstractPageSetupDialog@@AAEPAVQAbstractPageSetupDialogPrivate@@XZ" PURGE="0" COMMENT="" />
    <EXPORT ORDINAL="4386" NAME="?d_func@QAbstractPageSetupDialog@@ABEPBVQAbstractPageSetupDialogPrivate@@XZ" PURGE="0" COMMENT="" />
    <EXPORT ORDINAL="4387" NAME="?d_func@QAbstractPrintDialog@@AAEPAVQAbstractPrintDialogPrivate@@XZ" PURGE="0" COMMENT="" />
    <EXPORT ORDINAL="4388" NAME="?d_func@QAbstractPrintDialog@@ABEPBVQAbstractPrintDialogPrivate@@XZ" PURGE="0" COMMENT="" />
    <EXPORT ORDINAL="4389" NAME="?d_func@QAbstractProxyModel@@AAEPAVQAbstractProxyModelPrivate@@XZ" PURGE="0" COMMENT="" />
    <EXPORT ORDINAL="4390" NAME="?d_func@QAbstractProxyModel@@ABEPBVQAbstractProxyModelPrivate@@XZ" PURGE="0" COMMENT="" />
    <EXPORT ORDINAL="4391" NAME="?d_func@QAbstractScrollArea@@AAEPAVQAbstractScrollAreaPrivate@@XZ" PURGE="0" COMMENT="" />
    <EXPORT ORDINAL="4392" NAME="?d_func@QAbstractScrollArea@@ABEPBVQAbstractScrollAreaPrivate@@XZ" PURGE="0" COMMENT="" />
    <EXPORT ORDINAL="4393" NAME="?d_func@QAbstractSlider@@AAEPAVQAbstractSliderPrivate@@XZ" PURGE="0" COMMENT="" />
    <EXPORT ORDINAL="4394" NAME="?d_func@QAbstractSlider@@ABEPBVQAbstractSliderPrivate@@XZ" PURGE="0" COMMENT="" />
    <EXPORT ORDINAL="4395" NAME="?d_func@QAbstractSpinBox@@AAEPAVQAbstractSpinBoxPrivate@@XZ" PURGE="0" COMMENT="" />
    <EXPORT ORDINAL="4396" NAME="?d_func@QAbstractSpinBox@@ABEPBVQAbstractSpinBoxPrivate@@XZ" PURGE="0" COMMENT="" />
    <EXPORT ORDINAL="4397" NAME="?d_func@QAbstractTextDocumentLayout@@AAEPAVQAbstractTextDocumentLayoutPrivate@@XZ" PURGE="0" COMMENT="" />
    <EXPORT ORDINAL="4398" NAME="?d_func@QAbstractTextDocumentLayout@@ABEPBVQAbstractTextDocumentLayoutPrivate@@XZ" PURGE="0" COMMENT="" />
    <EXPORT ORDINAL="4399" NAME="?d_func@QAction@@AAEPAVQActionPrivate@@XZ" PURGE="0" COMMENT="" />
    <EXPORT ORDINAL="4400" NAME="?d_func@QAction@@ABEPBVQActionPrivate@@XZ" PURGE="0" COMMENT="" />
    <EXPORT ORDINAL="4401" NAME="?d_func@QActionGroup@@AAEPAVQActionGroupPrivate@@XZ" PURGE="0" COMMENT="" />
    <EXPORT ORDINAL="4402" NAME="?d_func@QActionGroup@@ABEPBVQActionGroupPrivate@@XZ" PURGE="0" COMMENT="" />
    <EXPORT ORDINAL="4403" NAME="?d_func@QApplication@@AAEPAVQApplicationPrivate@@XZ" PURGE="0" COMMENT="" />
    <EXPORT ORDINAL="4404" NAME="?d_func@QApplication@@ABEPBVQApplicationPrivate@@XZ" PURGE="0" COMMENT="" />
    <EXPORT ORDINAL="4405" NAME="?d_func@QBlittable@@AAEPAVQBlittablePrivate@@XZ" PURGE="0" COMMENT="" />
    <EXPORT ORDINAL="4406" NAME="?d_func@QBlittable@@ABEPBVQBlittablePrivate@@XZ" PURGE="0" COMMENT="" />
    <EXPORT ORDINAL="4407" NAME="?d_func@QBlitterPaintEngine@@AAEPAVQBlitterPaintEnginePrivate@@XZ" PURGE="0" COMMENT="" />
    <EXPORT ORDINAL="4408" NAME="?d_func@QBlitterPaintEngine@@ABEPBVQBlitterPaintEnginePrivate@@XZ" PURGE="0" COMMENT="" />
    <EXPORT ORDINAL="4409" NAME="?d_func@QBoxLayout@@AAEPAVQBoxLayoutPrivate@@XZ" PURGE="0" COMMENT="" />
    <EXPORT ORDINAL="4410" NAME="?d_func@QBoxLayout@@ABEPBVQBoxLayoutPrivate@@XZ" PURGE="0" COMMENT="" />
    <EXPORT ORDINAL="4411" NAME="?d_func@QButtonGroup@@AAEPAVQButtonGroupPrivate@@XZ" PURGE="0" COMMENT="" />
    <EXPORT ORDINAL="4412" NAME="?d_func@QButtonGroup@@ABEPBVQButtonGroupPrivate@@XZ" PURGE="0" COMMENT="" />
    <EXPORT ORDINAL="4413" NAME="?d_func@QCalendarWidget@@AAEPAVQCalendarWidgetPrivate@@XZ" PURGE="0" COMMENT="" />
    <EXPORT ORDINAL="4414" NAME="?d_func@QCalendarWidget@@ABEPBVQCalendarWidgetPrivate@@XZ" PURGE="0" COMMENT="" />
    <EXPORT ORDINAL="4415" NAME="?d_func@QCheckBox@@AAEPAVQCheckBoxPrivate@@XZ" PURGE="0" COMMENT="" />
    <EXPORT ORDINAL="4416" NAME="?d_func@QCheckBox@@ABEPBVQCheckBoxPrivate@@XZ" PURGE="0" COMMENT="" />
    <EXPORT ORDINAL="4417" NAME="?d_func@QCleanlooksStyle@@AAEPAVQCleanlooksStylePrivate@@XZ" PURGE="0" COMMENT="" />
    <EXPORT ORDINAL="4418" NAME="?d_func@QCleanlooksStyle@@ABEPBVQCleanlooksStylePrivate@@XZ" PURGE="0" COMMENT="" />
    <EXPORT ORDINAL="4419" NAME="?d_func@QClipboard@@AAEPAVQClipboardPrivate@@XZ" PURGE="0" COMMENT="" />
    <EXPORT ORDINAL="4420" NAME="?d_func@QClipboard@@ABEPBVQClipboardPrivate@@XZ" PURGE="0" COMMENT="" />
    <EXPORT ORDINAL="4421" NAME="?d_func@QColorDialog@@AAEPAVQColorDialogPrivate@@XZ" PURGE="0" COMMENT="" />
    <EXPORT ORDINAL="4422" NAME="?d_func@QColorDialog@@ABEPBVQColorDialogPrivate@@XZ" PURGE="0" COMMENT="" />
    <EXPORT ORDINAL="4423" NAME="?d_func@QColumnView@@AAEPAVQColumnViewPrivate@@XZ" PURGE="0" COMMENT="" />
    <EXPORT ORDINAL="4424" NAME="?d_func@QColumnView@@ABEPBVQColumnViewPrivate@@XZ" PURGE="0" COMMENT="" />
    <EXPORT ORDINAL="4425" NAME="?d_func@QComboBox@@AAEPAVQComboBoxPrivate@@XZ" PURGE="0" COMMENT="" />
    <EXPORT ORDINAL="4426" NAME="?d_func@QComboBox@@ABEPBVQComboBoxPrivate@@XZ" PURGE="0" COMMENT="" />
    <EXPORT ORDINAL="4427" NAME="?d_func@QCommandLinkButton@@AAEPAVQCommandLinkButtonPrivate@@XZ" PURGE="0" COMMENT="" />
    <EXPORT ORDINAL="4428" NAME="?d_func@QCommandLinkButton@@ABEPBVQCommandLinkButtonPrivate@@XZ" PURGE="0" COMMENT="" />
    <EXPORT ORDINAL="4429" NAME="?d_func@QCommonStyle@@AAEPAVQCommonStylePrivate@@XZ" PURGE="0" COMMENT="" />
    <EXPORT ORDINAL="4430" NAME="?d_func@QCommonStyle@@ABEPBVQCommonStylePrivate@@XZ" PURGE="0" COMMENT="" />
    <EXPORT ORDINAL="4431" NAME="?d_func@QCompleter@@AAEPAVQCompleterPrivate@@XZ" PURGE="0" COMMENT="" />
    <EXPORT ORDINAL="4432" NAME="?d_func@QCompleter@@ABEPBVQCompleterPrivate@@XZ" PURGE="0" COMMENT="" />
    <EXPORT ORDINAL="4433" NAME="?d_func@QDataWidgetMapper@@AAEPAVQDataWidgetMapperPrivate@@XZ" PURGE="0" COMMENT="" />
    <EXPORT ORDINAL="4434" NAME="?d_func@QDataWidgetMapper@@ABEPBVQDataWidgetMapperPrivate@@XZ" PURGE="0" COMMENT="" />
    <EXPORT ORDINAL="4435" NAME="?d_func@QDateTimeEdit@@AAEPAVQDateTimeEditPrivate@@XZ" PURGE="0" COMMENT="" />
    <EXPORT ORDINAL="4436" NAME="?d_func@QDateTimeEdit@@ABEPBVQDateTimeEditPrivate@@XZ" PURGE="0" COMMENT="" />
    <EXPORT ORDINAL="4437" NAME="?d_func@QDesktopWidget@@AAEPAVQDesktopWidgetPrivate@@XZ" PURGE="0" COMMENT="" />
    <EXPORT ORDINAL="4438" NAME="?d_func@QDesktopWidget@@ABEPBVQDesktopWidgetPrivate@@XZ" PURGE="0" COMMENT="" />
    <EXPORT ORDINAL="4439" NAME="?d_func@QDial@@AAEPAVQDialPrivate@@XZ" PURGE="0" COMMENT="" />
    <EXPORT ORDINAL="4440" NAME="?d_func@QDial@@ABEPBVQDialPrivate@@XZ" PURGE="0" COMMENT="" />
    <EXPORT ORDINAL="4441" NAME="?d_func@QDialog@@AAEPAVQDialogPrivate@@XZ" PURGE="0" COMMENT="" />
    <EXPORT ORDINAL="4442" NAME="?d_func@QDialog@@ABEPBVQDialogPrivate@@XZ" PURGE="0" COMMENT="" />
    <EXPORT ORDINAL="4443" NAME="?d_func@QDialogButtonBox@@AAEPAVQDialogButtonBoxPrivate@@XZ" PURGE="0" COMMENT="" />
    <EXPORT ORDINAL="4444" NAME="?d_func@QDialogButtonBox@@ABEPBVQDialogButtonBoxPrivate@@XZ" PURGE="0" COMMENT="" />
    <EXPORT ORDINAL="4445" NAME="?d_func@QDirModel@@AAEPAVQDirModelPrivate@@XZ" PURGE="0" COMMENT="" />
    <EXPORT ORDINAL="4446" NAME="?d_func@QDirModel@@ABEPBVQDirModelPrivate@@XZ" PURGE="0" COMMENT="" />
    <EXPORT ORDINAL="4447" NAME="?d_func@QDockWidget@@AAEPAVQDockWidgetPrivate@@XZ" PURGE="0" COMMENT="" />
    <EXPORT ORDINAL="4448" NAME="?d_func@QDockWidget@@ABEPBVQDockWidgetPrivate@@XZ" PURGE="0" COMMENT="" />
    <EXPORT ORDINAL="4449" NAME="?d_func@QDoubleSpinBox@@AAEPAVQDoubleSpinBoxPrivate@@XZ" PURGE="0" COMMENT="" />
    <EXPORT ORDINAL="4450" NAME="?d_func@QDoubleSpinBox@@ABEPBVQDoubleSpinBoxPrivate@@XZ" PURGE="0" COMMENT="" />
    <EXPORT ORDINAL="4451" NAME="?d_func@QDoubleValidator@@AAEPAVQDoubleValidatorPrivate@@XZ" PURGE="0" COMMENT="" />
    <EXPORT ORDINAL="4452" NAME="?d_func@QDoubleValidator@@ABEPBVQDoubleValidatorPrivate@@XZ" PURGE="0" COMMENT="" />
    <EXPORT ORDINAL="4453" NAME="?d_func@QDrag@@AAEPAVQDragPrivate@@XZ" PURGE="0" COMMENT="" />
    <EXPORT ORDINAL="4454" NAME="?d_func@QDrag@@ABEPBVQDragPrivate@@XZ" PURGE="0" COMMENT="" />
    <EXPORT ORDINAL="4455" NAME="?d_func@QErrorMessage@@AAEPAVQErrorMessagePrivate@@XZ" PURGE="0" COMMENT="" />
    <EXPORT ORDINAL="4456" NAME="?d_func@QErrorMessage@@ABEPBVQErrorMessagePrivate@@XZ" PURGE="0" COMMENT="" />
    <EXPORT ORDINAL="4457" NAME="?d_func@QFileDialog@@AAEPAVQFileDialogPrivate@@XZ" PURGE="0" COMMENT="" />
    <EXPORT ORDINAL="4458" NAME="?d_func@QFileDialog@@ABEPBVQFileDialogPrivate@@XZ" PURGE="0" COMMENT="" />
    <EXPORT ORDINAL="4459" NAME="?d_func@QFileIconProvider@@AAEPAVQFileIconProviderPrivate@@XZ" PURGE="0" COMMENT="" />
    <EXPORT ORDINAL="4460" NAME="?d_func@QFileIconProvider@@ABEPBVQFileIconProviderPrivate@@XZ" PURGE="0" COMMENT="" />
    <EXPORT ORDINAL="4461" NAME="?d_func@QFileSystemModel@@AAEPAVQFileSystemModelPrivate@@XZ" PURGE="0" COMMENT="" />
    <EXPORT ORDINAL="4462" NAME="?d_func@QFileSystemModel@@ABEPBVQFileSystemModelPrivate@@XZ" PURGE="0" COMMENT="" />
    <EXPORT ORDINAL="4463" NAME="?d_func@QFocusFrame@@AAEPAVQFocusFramePrivate@@XZ" PURGE="0" COMMENT="" />
    <EXPORT ORDINAL="4464" NAME="?d_func@QFocusFrame@@ABEPBVQFocusFramePrivate@@XZ" PURGE="0" COMMENT="" />
    <EXPORT ORDINAL="4465" NAME="?d_func@QFontComboBox@@AAEPAVQFontComboBoxPrivate@@XZ" PURGE="0" COMMENT="" />
    <EXPORT ORDINAL="4466" NAME="?d_func@QFontComboBox@@ABEPBVQFontComboBoxPrivate@@XZ" PURGE="0" COMMENT="" />
    <EXPORT ORDINAL="4467" NAME="?d_func@QFontDialog@@AAEPAVQFontDialogPrivate@@XZ" PURGE="0" COMMENT="" />
    <EXPORT ORDINAL="4468" NAME="?d_func@QFontDialog@@ABEPBVQFontDialogPrivate@@XZ" PURGE="0" COMMENT="" />
    <EXPORT ORDINAL="4469" NAME="?d_func@QFormLayout@@AAEPAVQFormLayoutPrivate@@XZ" PURGE="0" COMMENT="" />
    <EXPORT ORDINAL="4470" NAME="?d_func@QFormLayout@@ABEPBVQFormLayoutPrivate@@XZ" PURGE="0" COMMENT="" />
    <EXPORT ORDINAL="4471" NAME="?d_func@QFrame@@AAEPAVQFramePrivate@@XZ" PURGE="0" COMMENT="" />
    <EXPORT ORDINAL="4472" NAME="?d_func@QFrame@@ABEPBVQFramePrivate@@XZ" PURGE="0" COMMENT="" />
    <EXPORT ORDINAL="4473" NAME="?d_func@QGesture@@AAEPAVQGesturePrivate@@XZ" PURGE="0" COMMENT="" />
    <EXPORT ORDINAL="4474" NAME="?d_func@QGesture@@ABEPBVQGesturePrivate@@XZ" PURGE="0" COMMENT="" />
    <EXPORT ORDINAL="4475" NAME="?d_func@QGestureEvent@@AAEPAVQGestureEventPrivate@@XZ" PURGE="0" COMMENT="" />
    <EXPORT ORDINAL="4476" NAME="?d_func@QGestureEvent@@ABEPBVQGestureEventPrivate@@XZ" PURGE="0" COMMENT="" />
    <EXPORT ORDINAL="4477" NAME="?d_func@QGraphicsAnchor@@AAEPAVQGraphicsAnchorPrivate@@XZ" PURGE="0" COMMENT="" />
    <EXPORT ORDINAL="4478" NAME="?d_func@QGraphicsAnchor@@ABEPBVQGraphicsAnchorPrivate@@XZ" PURGE="0" COMMENT="" />
    <EXPORT ORDINAL="4479" NAME="?d_func@QGraphicsAnchorLayout@@AAEPAVQGraphicsAnchorLayoutPrivate@@XZ" PURGE="0" COMMENT="" />
    <EXPORT ORDINAL="4480" NAME="?d_func@QGraphicsAnchorLayout@@ABEPBVQGraphicsAnchorLayoutPrivate@@XZ" PURGE="0" COMMENT="" />
    <EXPORT ORDINAL="4481" NAME="?d_func@QGraphicsBlurEffect@@AAEPAVQGraphicsBlurEffectPrivate@@XZ" PURGE="0" COMMENT="" />
    <EXPORT ORDINAL="4482" NAME="?d_func@QGraphicsBlurEffect@@ABEPBVQGraphicsBlurEffectPrivate@@XZ" PURGE="0" COMMENT="" />
    <EXPORT ORDINAL="4483" NAME="?d_func@QGraphicsColorizeEffect@@AAEPAVQGraphicsColorizeEffectPrivate@@XZ" PURGE="0" COMMENT="" />
    <EXPORT ORDINAL="4484" NAME="?d_func@QGraphicsColorizeEffect@@ABEPBVQGraphicsColorizeEffectPrivate@@XZ" PURGE="0" COMMENT="" />
    <EXPORT ORDINAL="4485" NAME="?d_func@QGraphicsDropShadowEffect@@AAEPAVQGraphicsDropShadowEffectPrivate@@XZ" PURGE="0" COMMENT="" />
    <EXPORT ORDINAL="4486" NAME="?d_func@QGraphicsDropShadowEffect@@ABEPBVQGraphicsDropShadowEffectPrivate@@XZ" PURGE="0" COMMENT="" />
    <EXPORT ORDINAL="4487" NAME="?d_func@QGraphicsEffect@@AAEPAVQGraphicsEffectPrivate@@XZ" PURGE="0" COMMENT="" />
    <EXPORT ORDINAL="4488" NAME="?d_func@QGraphicsEffect@@ABEPBVQGraphicsEffectPrivate@@XZ" PURGE="0" COMMENT="" />
    <EXPORT ORDINAL="4489" NAME="?d_func@QGraphicsEffectSource@@AAEPAVQGraphicsEffectSourcePrivate@@XZ" PURGE="0" COMMENT="" />
    <EXPORT ORDINAL="4490" NAME="?d_func@QGraphicsEffectSource@@ABEPBVQGraphicsEffectSourcePrivate@@XZ" PURGE="0" COMMENT="" />
    <EXPORT ORDINAL="4491" NAME="?d_func@QGraphicsEllipseItem@@AAEPAVQGraphicsEllipseItemPrivate@@XZ" PURGE="0" COMMENT="" />
    <EXPORT ORDINAL="4492" NAME="?d_func@QGraphicsEllipseItem@@ABEPBVQGraphicsEllipseItemPrivate@@XZ" PURGE="0" COMMENT="" />
    <EXPORT ORDINAL="4493" NAME="?d_func@QGraphicsGridLayout@@AAEPAVQGraphicsGridLayoutPrivate@@XZ" PURGE="0" COMMENT="" />
    <EXPORT ORDINAL="4494" NAME="?d_func@QGraphicsGridLayout@@ABEPBVQGraphicsGridLayoutPrivate@@XZ" PURGE="0" COMMENT="" />
    <EXPORT ORDINAL="4495" NAME="?d_func@QGraphicsItem@@AAEPAVQGraphicsItemPrivate@@XZ" PURGE="0" COMMENT="" />
    <EXPORT ORDINAL="4496" NAME="?d_func@QGraphicsItem@@ABEPBVQGraphicsItemPrivate@@XZ" PURGE="0" COMMENT="" />
    <EXPORT ORDINAL="4497" NAME="?d_func@QGraphicsItemGroup@@AAEPAVQGraphicsItemGroupPrivate@@XZ" PURGE="0" COMMENT="" />
    <EXPORT ORDINAL="4498" NAME="?d_func@QGraphicsItemGroup@@ABEPBVQGraphicsItemGroupPrivate@@XZ" PURGE="0" COMMENT="" />
    <EXPORT ORDINAL="4499" NAME="?d_func@QGraphicsLayout@@AAEPAVQGraphicsLayoutPrivate@@XZ" PURGE="0" COMMENT="" />
    <EXPORT ORDINAL="4500" NAME="?d_func@QGraphicsLayout@@ABEPBVQGraphicsLayoutPrivate@@XZ" PURGE="0" COMMENT="" />
    <EXPORT ORDINAL="4501" NAME="?d_func@QGraphicsLayoutItem@@AAEPAVQGraphicsLayoutItemPrivate@@XZ" PURGE="0" COMMENT="" />
    <EXPORT ORDINAL="4502" NAME="?d_func@QGraphicsLayoutItem@@ABEPBVQGraphicsLayoutItemPrivate@@XZ" PURGE="0" COMMENT="" />
    <EXPORT ORDINAL="4503" NAME="?d_func@QGraphicsLineItem@@AAEPAVQGraphicsLineItemPrivate@@XZ" PURGE="0" COMMENT="" />
    <EXPORT ORDINAL="4504" NAME="?d_func@QGraphicsLineItem@@ABEPBVQGraphicsLineItemPrivate@@XZ" PURGE="0" COMMENT="" />
    <EXPORT ORDINAL="4505" NAME="?d_func@QGraphicsLinearLayout@@AAEPAVQGraphicsLinearLayoutPrivate@@XZ" PURGE="0" COMMENT="" />
    <EXPORT ORDINAL="4506" NAME="?d_func@QGraphicsLinearLayout@@ABEPBVQGraphicsLinearLayoutPrivate@@XZ" PURGE="0" COMMENT="" />
    <EXPORT ORDINAL="4507" NAME="?d_func@QGraphicsOpacityEffect@@AAEPAVQGraphicsOpacityEffectPrivate@@XZ" PURGE="0" COMMENT="" />
    <EXPORT ORDINAL="4508" NAME="?d_func@QGraphicsOpacityEffect@@ABEPBVQGraphicsOpacityEffectPrivate@@XZ" PURGE="0" COMMENT="" />
    <EXPORT ORDINAL="4509" NAME="?d_func@QGraphicsPathItem@@AAEPAVQGraphicsPathItemPrivate@@XZ" PURGE="0" COMMENT="" />
    <EXPORT ORDINAL="4510" NAME="?d_func@QGraphicsPathItem@@ABEPBVQGraphicsPathItemPrivate@@XZ" PURGE="0" COMMENT="" />
    <EXPORT ORDINAL="4511" NAME="?d_func@QGraphicsPixmapItem@@AAEPAVQGraphicsPixmapItemPrivate@@XZ" PURGE="0" COMMENT="" />
    <EXPORT ORDINAL="4512" NAME="?d_func@QGraphicsPixmapItem@@ABEPBVQGraphicsPixmapItemPrivate@@XZ" PURGE="0" COMMENT="" />
    <EXPORT ORDINAL="4513" NAME="?d_func@QGraphicsPolygonItem@@AAEPAVQGraphicsPolygonItemPrivate@@XZ" PURGE="0" COMMENT="" />
    <EXPORT ORDINAL="4514" NAME="?d_func@QGraphicsPolygonItem@@ABEPBVQGraphicsPolygonItemPrivate@@XZ" PURGE="0" COMMENT="" />
    <EXPORT ORDINAL="4515" NAME="?d_func@QGraphicsProxyWidget@@AAEPAVQGraphicsProxyWidgetPrivate@@XZ" PURGE="0" COMMENT="" />
    <EXPORT ORDINAL="4516" NAME="?d_func@QGraphicsProxyWidget@@ABEPBVQGraphicsProxyWidgetPrivate@@XZ" PURGE="0" COMMENT="" />
    <EXPORT ORDINAL="4517" NAME="?d_func@QGraphicsRectItem@@AAEPAVQGraphicsRectItemPrivate@@XZ" PURGE="0" COMMENT="" />
    <EXPORT ORDINAL="4518" NAME="?d_func@QGraphicsRectItem@@ABEPBVQGraphicsRectItemPrivate@@XZ" PURGE="0" COMMENT="" />
    <EXPORT ORDINAL="4519" NAME="?d_func@QGraphicsRotation@@AAEPAVQGraphicsRotationPrivate@@XZ" PURGE="0" COMMENT="" />
    <EXPORT ORDINAL="4520" NAME="?d_func@QGraphicsRotation@@ABEPBVQGraphicsRotationPrivate@@XZ" PURGE="0" COMMENT="" />
    <EXPORT ORDINAL="4521" NAME="?d_func@QGraphicsScale@@AAEPAVQGraphicsScalePrivate@@XZ" PURGE="0" COMMENT="" />
    <EXPORT ORDINAL="4522" NAME="?d_func@QGraphicsScale@@ABEPBVQGraphicsScalePrivate@@XZ" PURGE="0" COMMENT="" />
    <EXPORT ORDINAL="4523" NAME="?d_func@QGraphicsScene@@AAEPAVQGraphicsScenePrivate@@XZ" PURGE="0" COMMENT="" />
    <EXPORT ORDINAL="4524" NAME="?d_func@QGraphicsScene@@ABEPBVQGraphicsScenePrivate@@XZ" PURGE="0" COMMENT="" />
    <EXPORT ORDINAL="4525" NAME="?d_func@QGraphicsSceneContextMenuEvent@@AAEPAVQGraphicsSceneContextMenuEventPrivate@@XZ" PURGE="0" COMMENT="" />
    <EXPORT ORDINAL="4526" NAME="?d_func@QGraphicsSceneContextMenuEvent@@ABEPBVQGraphicsSceneContextMenuEventPrivate@@XZ" PURGE="0" COMMENT="" />
    <EXPORT ORDINAL="4527" NAME="?d_func@QGraphicsSceneDragDropEvent@@AAEPAVQGraphicsSceneDragDropEventPrivate@@XZ" PURGE="0" COMMENT="" />
    <EXPORT ORDINAL="4528" NAME="?d_func@QGraphicsSceneDragDropEvent@@ABEPBVQGraphicsSceneDragDropEventPrivate@@XZ" PURGE="0" COMMENT="" />
    <EXPORT ORDINAL="4529" NAME="?d_func@QGraphicsSceneEvent@@IAEPAVQGraphicsSceneEventPrivate@@XZ" PURGE="0" COMMENT="" />
    <EXPORT ORDINAL="4530" NAME="?d_func@QGraphicsSceneEvent@@IBEPBVQGraphicsSceneEventPrivate@@XZ" PURGE="0" COMMENT="" />
    <EXPORT ORDINAL="4531" NAME="?d_func@QGraphicsSceneHelpEvent@@AAEPAVQGraphicsSceneHelpEventPrivate@@XZ" PURGE="0" COMMENT="" />
    <EXPORT ORDINAL="4532" NAME="?d_func@QGraphicsSceneHelpEvent@@ABEPBVQGraphicsSceneHelpEventPrivate@@XZ" PURGE="0" COMMENT="" />
    <EXPORT ORDINAL="4533" NAME="?d_func@QGraphicsSceneHoverEvent@@AAEPAVQGraphicsSceneHoverEventPrivate@@XZ" PURGE="0" COMMENT="" />
    <EXPORT ORDINAL="4534" NAME="?d_func@QGraphicsSceneHoverEvent@@ABEPBVQGraphicsSceneHoverEventPrivate@@XZ" PURGE="0" COMMENT="" />
    <EXPORT ORDINAL="4535" NAME="?d_func@QGraphicsSceneMouseEvent@@AAEPAVQGraphicsSceneMouseEventPrivate@@XZ" PURGE="0" COMMENT="" />
    <EXPORT ORDINAL="4536" NAME="?d_func@QGraphicsSceneMouseEvent@@ABEPBVQGraphicsSceneMouseEventPrivate@@XZ" PURGE="0" COMMENT="" />
    <EXPORT ORDINAL="4537" NAME="?d_func@QGraphicsSceneMoveEvent@@AAEPAVQGraphicsSceneMoveEventPrivate@@XZ" PURGE="0" COMMENT="" />
    <EXPORT ORDINAL="4538" NAME="?d_func@QGraphicsSceneMoveEvent@@ABEPBVQGraphicsSceneMoveEventPrivate@@XZ" PURGE="0" COMMENT="" />
    <EXPORT ORDINAL="4539" NAME="?d_func@QGraphicsSceneResizeEvent@@AAEPAVQGraphicsSceneResizeEventPrivate@@XZ" PURGE="0" COMMENT="" />
    <EXPORT ORDINAL="4540" NAME="?d_func@QGraphicsSceneResizeEvent@@ABEPBVQGraphicsSceneResizeEventPrivate@@XZ" PURGE="0" COMMENT="" />
    <EXPORT ORDINAL="4541" NAME="?d_func@QGraphicsSceneWheelEvent@@AAEPAVQGraphicsSceneWheelEventPrivate@@XZ" PURGE="0" COMMENT="" />
    <EXPORT ORDINAL="4542" NAME="?d_func@QGraphicsSceneWheelEvent@@ABEPBVQGraphicsSceneWheelEventPrivate@@XZ" PURGE="0" COMMENT="" />
    <EXPORT ORDINAL="4543" NAME="?d_func@QGraphicsSimpleTextItem@@AAEPAVQGraphicsSimpleTextItemPrivate@@XZ" PURGE="0" COMMENT="" />
    <EXPORT ORDINAL="4544" NAME="?d_func@QGraphicsSimpleTextItem@@ABEPBVQGraphicsSimpleTextItemPrivate@@XZ" PURGE="0" COMMENT="" />
    <EXPORT ORDINAL="4545" NAME="?d_func@QGraphicsTransform@@AAEPAVQGraphicsTransformPrivate@@XZ" PURGE="0" COMMENT="" />
    <EXPORT ORDINAL="4546" NAME="?d_func@QGraphicsTransform@@ABEPBVQGraphicsTransformPrivate@@XZ" PURGE="0" COMMENT="" />
    <EXPORT ORDINAL="4547" NAME="?d_func@QGraphicsView@@AAEPAVQGraphicsViewPrivate@@XZ" PURGE="0" COMMENT="" />
    <EXPORT ORDINAL="4548" NAME="?d_func@QGraphicsView@@ABEPBVQGraphicsViewPrivate@@XZ" PURGE="0" COMMENT="" />
    <EXPORT ORDINAL="4549" NAME="?d_func@QGraphicsWidget@@AAEPAVQGraphicsWidgetPrivate@@XZ" PURGE="0" COMMENT="" />
    <EXPORT ORDINAL="4550" NAME="?d_func@QGraphicsWidget@@ABEPBVQGraphicsWidgetPrivate@@XZ" PURGE="0" COMMENT="" />
    <EXPORT ORDINAL="4551" NAME="?d_func@QGridLayout@@AAEPAVQGridLayoutPrivate@@XZ" PURGE="0" COMMENT="" />
    <EXPORT ORDINAL="4552" NAME="?d_func@QGridLayout@@ABEPBVQGridLayoutPrivate@@XZ" PURGE="0" COMMENT="" />
    <EXPORT ORDINAL="4553" NAME="?d_func@QGroupBox@@AAEPAVQGroupBoxPrivate@@XZ" PURGE="0" COMMENT="" />
    <EXPORT ORDINAL="4554" NAME="?d_func@QGroupBox@@ABEPBVQGroupBoxPrivate@@XZ" PURGE="0" COMMENT="" />
    <EXPORT ORDINAL="4555" NAME="?d_func@QHeaderView@@AAEPAVQHeaderViewPrivate@@XZ" PURGE="0" COMMENT="" />
    <EXPORT ORDINAL="4556" NAME="?d_func@QHeaderView@@ABEPBVQHeaderViewPrivate@@XZ" PURGE="0" COMMENT="" />
    <EXPORT ORDINAL="4557" NAME="?d_func@QIdentityProxyModel@@AAEPAVQIdentityProxyModelPrivate@@XZ" PURGE="0" COMMENT="" />
    <EXPORT ORDINAL="4558" NAME="?d_func@QIdentityProxyModel@@ABEPBVQIdentityProxyModelPrivate@@XZ" PURGE="0" COMMENT="" />
    <EXPORT ORDINAL="4559" NAME="?d_func@QImageIOHandler@@AAEPAVQImageIOHandlerPrivate@@XZ" PURGE="0" COMMENT="" />
    <EXPORT ORDINAL="4560" NAME="?d_func@QImageIOHandler@@ABEPBVQImageIOHandlerPrivate@@XZ" PURGE="0" COMMENT="" />
    <EXPORT ORDINAL="4561" NAME="?d_func@QInputContext@@AAEPAVQInputContextPrivate@@XZ" PURGE="0" COMMENT="" />
    <EXPORT ORDINAL="4562" NAME="?d_func@QInputContext@@ABEPBVQInputContextPrivate@@XZ" PURGE="0" COMMENT="" />
    <EXPORT ORDINAL="4563" NAME="?d_func@QInputDialog@@AAEPAVQInputDialogPrivate@@XZ" PURGE="0" COMMENT="" />
    <EXPORT ORDINAL="4564" NAME="?d_func@QInputDialog@@ABEPBVQInputDialogPrivate@@XZ" PURGE="0" COMMENT="" />
    <EXPORT ORDINAL="4565" NAME="?d_func@QItemDelegate@@AAEPAVQItemDelegatePrivate@@XZ" PURGE="0" COMMENT="" />
    <EXPORT ORDINAL="4566" NAME="?d_func@QItemDelegate@@ABEPBVQItemDelegatePrivate@@XZ" PURGE="0" COMMENT="" />
    <EXPORT ORDINAL="4567" NAME="?d_func@QItemSelectionModel@@AAEPAVQItemSelectionModelPrivate@@XZ" PURGE="0" COMMENT="" />
    <EXPORT ORDINAL="4568" NAME="?d_func@QItemSelectionModel@@ABEPBVQItemSelectionModelPrivate@@XZ" PURGE="0" COMMENT="" />
    <EXPORT ORDINAL="4569" NAME="?d_func@QKeyEventTransition@@AAEPAVQKeyEventTransitionPrivate@@XZ" PURGE="0" COMMENT="" />
    <EXPORT ORDINAL="4570" NAME="?d_func@QKeyEventTransition@@ABEPBVQKeyEventTransitionPrivate@@XZ" PURGE="0" COMMENT="" />
    <EXPORT ORDINAL="4571" NAME="?d_func@QLCDNumber@@AAEPAVQLCDNumberPrivate@@XZ" PURGE="0" COMMENT="" />
    <EXPORT ORDINAL="4572" NAME="?d_func@QLCDNumber@@ABEPBVQLCDNumberPrivate@@XZ" PURGE="0" COMMENT="" />
    <EXPORT ORDINAL="4573" NAME="?d_func@QLabel@@AAEPAVQLabelPrivate@@XZ" PURGE="0" COMMENT="" />
    <EXPORT ORDINAL="4574" NAME="?d_func@QLabel@@ABEPBVQLabelPrivate@@XZ" PURGE="0" COMMENT="" />
    <EXPORT ORDINAL="4575" NAME="?d_func@QLayout@@AAEPAVQLayoutPrivate@@XZ" PURGE="0" COMMENT="" />
    <EXPORT ORDINAL="4576" NAME="?d_func@QLayout@@ABEPBVQLayoutPrivate@@XZ" PURGE="0" COMMENT="" />
    <EXPORT ORDINAL="4577" NAME="?d_func@QLineEdit@@AAEPAVQLineEditPrivate@@XZ" PURGE="0" COMMENT="" />
    <EXPORT ORDINAL="4578" NAME="?d_func@QLineEdit@@ABEPBVQLineEditPrivate@@XZ" PURGE="0" COMMENT="" />
    <EXPORT ORDINAL="4579" NAME="?d_func@QListView@@AAEPAVQListViewPrivate@@XZ" PURGE="0" COMMENT="" />
    <EXPORT ORDINAL="4580" NAME="?d_func@QListView@@ABEPBVQListViewPrivate@@XZ" PURGE="0" COMMENT="" />
    <EXPORT ORDINAL="4581" NAME="?d_func@QListWidget@@AAEPAVQListWidgetPrivate@@XZ" PURGE="0" COMMENT="" />
    <EXPORT ORDINAL="4582" NAME="?d_func@QListWidget@@ABEPBVQListWidgetPrivate@@XZ" PURGE="0" COMMENT="" />
    <EXPORT ORDINAL="4583" NAME="?d_func@QMainWindow@@AAEPAVQMainWindowPrivate@@XZ" PURGE="0" COMMENT="" />
    <EXPORT ORDINAL="4584" NAME="?d_func@QMainWindow@@ABEPBVQMainWindowPrivate@@XZ" PURGE="0" COMMENT="" />
    <EXPORT ORDINAL="4585" NAME="?d_func@QMdiArea@@AAEPAVQMdiAreaPrivate@@XZ" PURGE="0" COMMENT="" />
    <EXPORT ORDINAL="4586" NAME="?d_func@QMdiArea@@ABEPBVQMdiAreaPrivate@@XZ" PURGE="0" COMMENT="" />
    <EXPORT ORDINAL="4587" NAME="?d_func@QMdiSubWindow@@AAEPAVQMdiSubWindowPrivate@@XZ" PURGE="0" COMMENT="" />
    <EXPORT ORDINAL="4588" NAME="?d_func@QMdiSubWindow@@ABEPBVQMdiSubWindowPrivate@@XZ" PURGE="0" COMMENT="" />
    <EXPORT ORDINAL="4589" NAME="?d_func@QMenu@@AAEPAVQMenuPrivate@@XZ" PURGE="0" COMMENT="" />
    <EXPORT ORDINAL="4590" NAME="?d_func@QMenu@@ABEPBVQMenuPrivate@@XZ" PURGE="0" COMMENT="" />
    <EXPORT ORDINAL="4591" NAME="?d_func@QMenuBar@@AAEPAVQMenuBarPrivate@@XZ" PURGE="0" COMMENT="" />
    <EXPORT ORDINAL="4592" NAME="?d_func@QMenuBar@@ABEPBVQMenuBarPrivate@@XZ" PURGE="0" COMMENT="" />
    <EXPORT ORDINAL="4593" NAME="?d_func@QMessageBox@@AAEPAVQMessageBoxPrivate@@XZ" PURGE="0" COMMENT="" />
    <EXPORT ORDINAL="4594" NAME="?d_func@QMessageBox@@ABEPBVQMessageBoxPrivate@@XZ" PURGE="0" COMMENT="" />
    <EXPORT ORDINAL="4595" NAME="?d_func@QMotifStyle@@AAEPAVQMotifStylePrivate@@XZ" PURGE="0" COMMENT="" />
    <EXPORT ORDINAL="4596" NAME="?d_func@QMotifStyle@@ABEPBVQMotifStylePrivate@@XZ" PURGE="0" COMMENT="" />
    <EXPORT ORDINAL="4597" NAME="?d_func@QMouseEventTransition@@AAEPAVQMouseEventTransitionPrivate@@XZ" PURGE="0" COMMENT="" />
    <EXPORT ORDINAL="4598" NAME="?d_func@QMouseEventTransition@@ABEPBVQMouseEventTransitionPrivate@@XZ" PURGE="0" COMMENT="" />
    <EXPORT ORDINAL="4599" NAME="?d_func@QMovie@@AAEPAVQMoviePrivate@@XZ" PURGE="0" COMMENT="" />
    <EXPORT ORDINAL="4600" NAME="?d_func@QMovie@@ABEPBVQMoviePrivate@@XZ" PURGE="0" COMMENT="" />
    <EXPORT ORDINAL="4601" NAME="?d_func@QPageSetupDialog@@AAEPAVQPageSetupDialogPrivate@@XZ" PURGE="0" COMMENT="" />
    <EXPORT ORDINAL="4602" NAME="?d_func@QPageSetupDialog@@ABEPBVQPageSetupDialogPrivate@@XZ" PURGE="0" COMMENT="" />
    <EXPORT ORDINAL="4603" NAME="?d_func@QPaintBuffer@@AAEPAVQPaintBufferPrivate@@XZ" PURGE="0" COMMENT="" />
    <EXPORT ORDINAL="4604" NAME="?d_func@QPaintBuffer@@ABEPBVQPaintBufferPrivate@@XZ" PURGE="0" COMMENT="" />
    <EXPORT ORDINAL="4605" NAME="?d_func@QPaintEngine@@AAEPAVQPaintEnginePrivate@@XZ" PURGE="0" COMMENT="" />
    <EXPORT ORDINAL="4606" NAME="?d_func@QPaintEngine@@ABEPBVQPaintEnginePrivate@@XZ" PURGE="0" COMMENT="" />
    <EXPORT ORDINAL="4607" NAME="?d_func@QPaintEngineEx@@AAEPAVQPaintEngineExPrivate@@XZ" PURGE="0" COMMENT="" />
    <EXPORT ORDINAL="4608" NAME="?d_func@QPaintEngineEx@@ABEPBVQPaintEngineExPrivate@@XZ" PURGE="0" COMMENT="" />
    <EXPORT ORDINAL="4609" NAME="?d_func@QPainter@@AAEPAVQPainterPrivate@@XZ" PURGE="0" COMMENT="" />
    <EXPORT ORDINAL="4610" NAME="?d_func@QPainter@@ABEPBVQPainterPrivate@@XZ" PURGE="0" COMMENT="" />
    <EXPORT ORDINAL="4611" NAME="?d_func@QPainterPath@@ABEPAVQPainterPathData@@XZ" PURGE="0" COMMENT="" />
    <EXPORT ORDINAL="4612" NAME="?d_func@QPainterPathStroker@@AAEPAVQPainterPathStrokerPrivate@@XZ" PURGE="0" COMMENT="" />
    <EXPORT ORDINAL="4613" NAME="?d_func@QPainterPathStroker@@ABEPBVQPainterPathStrokerPrivate@@XZ" PURGE="0" COMMENT="" />
    <EXPORT ORDINAL="4614" NAME="?d_func@QPanGesture@@AAEPAVQPanGesturePrivate@@XZ" PURGE="0" COMMENT="" />
    <EXPORT ORDINAL="4615" NAME="?d_func@QPanGesture@@ABEPBVQPanGesturePrivate@@XZ" PURGE="0" COMMENT="" />
    <EXPORT ORDINAL="4616" NAME="?d_func@QPicture@@AAEPAVQPicturePrivate@@XZ" PURGE="0" COMMENT="" />
    <EXPORT ORDINAL="4617" NAME="?d_func@QPicture@@ABEPBVQPicturePrivate@@XZ" PURGE="0" COMMENT="" />
    <EXPORT ORDINAL="4618" NAME="?d_func@QPinchGesture@@AAEPAVQPinchGesturePrivate@@XZ" PURGE="0" COMMENT="" />
    <EXPORT ORDINAL="4619" NAME="?d_func@QPinchGesture@@ABEPBVQPinchGesturePrivate@@XZ" PURGE="0" COMMENT="" />
    <EXPORT ORDINAL="4620" NAME="?d_func@QPixmapBlurFilter@@AAEPAVQPixmapBlurFilterPrivate@@XZ" PURGE="0" COMMENT="" />
    <EXPORT ORDINAL="4621" NAME="?d_func@QPixmapBlurFilter@@ABEPBVQPixmapBlurFilterPrivate@@XZ" PURGE="0" COMMENT="" />
    <EXPORT ORDINAL="4622" NAME="?d_func@QPixmapColorizeFilter@@AAEPAVQPixmapColorizeFilterPrivate@@XZ" PURGE="0" COMMENT="" />
    <EXPORT ORDINAL="4623" NAME="?d_func@QPixmapColorizeFilter@@ABEPBVQPixmapColorizeFilterPrivate@@XZ" PURGE="0" COMMENT="" />
    <EXPORT ORDINAL="4624" NAME="?d_func@QPixmapConvolutionFilter@@AAEPAVQPixmapConvolutionFilterPrivate@@XZ" PURGE="0" COMMENT="" />
    <EXPORT ORDINAL="4625" NAME="?d_func@QPixmapConvolutionFilter@@ABEPBVQPixmapConvolutionFilterPrivate@@XZ" PURGE="0" COMMENT="" />
    <EXPORT ORDINAL="4626" NAME="?d_func@QPixmapDropShadowFilter@@AAEPAVQPixmapDropShadowFilterPrivate@@XZ" PURGE="0" COMMENT="" />
    <EXPORT ORDINAL="4627" NAME="?d_func@QPixmapDropShadowFilter@@ABEPBVQPixmapDropShadowFilterPrivate@@XZ" PURGE="0" COMMENT="" />
    <EXPORT ORDINAL="4628" NAME="?d_func@QPixmapFilter@@AAEPAVQPixmapFilterPrivate@@XZ" PURGE="0" COMMENT="" />
    <EXPORT ORDINAL="4629" NAME="?d_func@QPixmapFilter@@ABEPBVQPixmapFilterPrivate@@XZ" PURGE="0" COMMENT="" />
    <EXPORT ORDINAL="4630" NAME="?d_func@QPlainTextDocumentLayout@@AAEPAVQPlainTextDocumentLayoutPrivate@@XZ" PURGE="0" COMMENT="" />
    <EXPORT ORDINAL="4631" NAME="?d_func@QPlainTextDocumentLayout@@ABEPBVQPlainTextDocumentLayoutPrivate@@XZ" PURGE="0" COMMENT="" />
    <EXPORT ORDINAL="4632" NAME="?d_func@QPlainTextEdit@@AAEPAVQPlainTextEditPrivate@@XZ" PURGE="0" COMMENT="" />
    <EXPORT ORDINAL="4633" NAME="?d_func@QPlainTextEdit@@ABEPBVQPlainTextEditPrivate@@XZ" PURGE="0" COMMENT="" />
    <EXPORT ORDINAL="4634" NAME="?d_func@QPlastiqueStyle@@AAEPAVQPlastiqueStylePrivate@@XZ" PURGE="0" COMMENT="" />
    <EXPORT ORDINAL="4635" NAME="?d_func@QPlastiqueStyle@@ABEPBVQPlastiqueStylePrivate@@XZ" PURGE="0" COMMENT="" />
    <EXPORT ORDINAL="4636" NAME="?d_func@QPrintDialog@@AAEPAVQPrintDialogPrivate@@XZ" PURGE="0" COMMENT="" />
    <EXPORT ORDINAL="4637" NAME="?d_func@QPrintDialog@@ABEPBVQPrintDialogPrivate@@XZ" PURGE="0" COMMENT="" />
    <EXPORT ORDINAL="4638" NAME="?d_func@QPrintPreviewDialog@@AAEPAVQPrintPreviewDialogPrivate@@XZ" PURGE="0" COMMENT="" />
    <EXPORT ORDINAL="4639" NAME="?d_func@QPrintPreviewDialog@@ABEPBVQPrintPreviewDialogPrivate@@XZ" PURGE="0" COMMENT="" />
    <EXPORT ORDINAL="4640" NAME="?d_func@QPrintPreviewWidget@@AAEPAVQPrintPreviewWidgetPrivate@@XZ" PURGE="0" COMMENT="" />
    <EXPORT ORDINAL="4641" NAME="?d_func@QPrintPreviewWidget@@ABEPBVQPrintPreviewWidgetPrivate@@XZ" PURGE="0" COMMENT="" />
    <EXPORT ORDINAL="4642" NAME="?d_func@QPrinter@@AAEPAVQPrinterPrivate@@XZ" PURGE="0" COMMENT="" />
    <EXPORT ORDINAL="4643" NAME="?d_func@QPrinter@@ABEPBVQPrinterPrivate@@XZ" PURGE="0" COMMENT="" />
    <EXPORT ORDINAL="4644" NAME="?d_func@QPrinterInfo@@AAEPAVQPrinterInfoPrivate@@XZ" PURGE="0" COMMENT="" />
    <EXPORT ORDINAL="4645" NAME="?d_func@QPrinterInfo@@ABEPBVQPrinterInfoPrivate@@XZ" PURGE="0" COMMENT="" />
    <EXPORT ORDINAL="4646" NAME="?d_func@QProgressBar@@AAEPAVQProgressBarPrivate@@XZ" PURGE="0" COMMENT="" />
    <EXPORT ORDINAL="4647" NAME="?d_func@QProgressBar@@ABEPBVQProgressBarPrivate@@XZ" PURGE="0" COMMENT="" />
    <EXPORT ORDINAL="4648" NAME="?d_func@QProgressDialog@@AAEPAVQProgressDialogPrivate@@XZ" PURGE="0" COMMENT="" />
    <EXPORT ORDINAL="4649" NAME="?d_func@QProgressDialog@@ABEPBVQProgressDialogPrivate@@XZ" PURGE="0" COMMENT="" />
    <EXPORT ORDINAL="4650" NAME="?d_func@QProxyModel@@AAEPAVQProxyModelPrivate@@XZ" PURGE="0" COMMENT="" />
    <EXPORT ORDINAL="4651" NAME="?d_func@QProxyModel@@ABEPBVQProxyModelPrivate@@XZ" PURGE="0" COMMENT="" />
    <EXPORT ORDINAL="4652" NAME="?d_func@QProxyStyle@@AAEPAVQProxyStylePrivate@@XZ" PURGE="0" COMMENT="" />
    <EXPORT ORDINAL="4653" NAME="?d_func@QProxyStyle@@ABEPBVQProxyStylePrivate@@XZ" PURGE="0" COMMENT="" />
    <EXPORT ORDINAL="4654" NAME="?d_func@QPushButton@@AAEPAVQPushButtonPrivate@@XZ" PURGE="0" COMMENT="" />
    <EXPORT ORDINAL="4655" NAME="?d_func@QPushButton@@ABEPBVQPushButtonPrivate@@XZ" PURGE="0" COMMENT="" />
    <EXPORT ORDINAL="4656" NAME="?d_func@QRadioButton@@AAEPAVQRadioButtonPrivate@@XZ" PURGE="0" COMMENT="" />
    <EXPORT ORDINAL="4657" NAME="?d_func@QRadioButton@@ABEPBVQRadioButtonPrivate@@XZ" PURGE="0" COMMENT="" />
    <EXPORT ORDINAL="4658" NAME="?d_func@QRasterWindowSurface@@AAEPAVQRasterWindowSurfacePrivate@@XZ" PURGE="0" COMMENT="" />
    <EXPORT ORDINAL="4659" NAME="?d_func@QRasterWindowSurface@@ABEPBVQRasterWindowSurfacePrivate@@XZ" PURGE="0" COMMENT="" />
    <EXPORT ORDINAL="4660" NAME="?d_func@QRubberBand@@AAEPAVQRubberBandPrivate@@XZ" PURGE="0" COMMENT="" />
    <EXPORT ORDINAL="4661" NAME="?d_func@QRubberBand@@ABEPBVQRubberBandPrivate@@XZ" PURGE="0" COMMENT="" />
    <EXPORT ORDINAL="4662" NAME="?d_func@QScrollArea@@AAEPAVQScrollAreaPrivate@@XZ" PURGE="0" COMMENT="" />
    <EXPORT ORDINAL="4663" NAME="?d_func@QScrollArea@@ABEPBVQScrollAreaPrivate@@XZ" PURGE="0" COMMENT="" />
    <EXPORT ORDINAL="4664" NAME="?d_func@QScrollBar@@AAEPAVQScrollBarPrivate@@XZ" PURGE="0" COMMENT="" />
    <EXPORT ORDINAL="4665" NAME="?d_func@QScrollBar@@ABEPBVQScrollBarPrivate@@XZ" PURGE="0" COMMENT="" />
    <EXPORT ORDINAL="4666" NAME="?d_func@QSessionManager@@AAEPAVQSessionManagerPrivate@@XZ" PURGE="0" COMMENT="" />
    <EXPORT ORDINAL="4667" NAME="?d_func@QSessionManager@@ABEPBVQSessionManagerPrivate@@XZ" PURGE="0" COMMENT="" />
    <EXPORT ORDINAL="4668" NAME="?d_func@QShortcut@@AAEPAVQShortcutPrivate@@XZ" PURGE="0" COMMENT="" />
    <EXPORT ORDINAL="4669" NAME="?d_func@QShortcut@@ABEPBVQShortcutPrivate@@XZ" PURGE="0" COMMENT="" />
    <EXPORT ORDINAL="4670" NAME="?d_func@QSizeGrip@@AAEPAVQSizeGripPrivate@@XZ" PURGE="0" COMMENT="" />
    <EXPORT ORDINAL="4671" NAME="?d_func@QSizeGrip@@ABEPBVQSizeGripPrivate@@XZ" PURGE="0" COMMENT="" />
    <EXPORT ORDINAL="4672" NAME="?d_func@QSlider@@AAEPAVQSliderPrivate@@XZ" PURGE="0" COMMENT="" />
    <EXPORT ORDINAL="4673" NAME="?d_func@QSlider@@ABEPBVQSliderPrivate@@XZ" PURGE="0" COMMENT="" />
    <EXPORT ORDINAL="4674" NAME="?d_func@QSortFilterProxyModel@@AAEPAVQSortFilterProxyModelPrivate@@XZ" PURGE="0" COMMENT="" />
    <EXPORT ORDINAL="4675" NAME="?d_func@QSortFilterProxyModel@@ABEPBVQSortFilterProxyModelPrivate@@XZ" PURGE="0" COMMENT="" />
    <EXPORT ORDINAL="4676" NAME="?d_func@QSound@@AAEPAVQSoundPrivate@@XZ" PURGE="0" COMMENT="" />
    <EXPORT ORDINAL="4677" NAME="?d_func@QSound@@ABEPBVQSoundPrivate@@XZ" PURGE="0" COMMENT="" />
    <EXPORT ORDINAL="4678" NAME="?d_func@QSpinBox@@AAEPAVQSpinBoxPrivate@@XZ" PURGE="0" COMMENT="" />
    <EXPORT ORDINAL="4679" NAME="?d_func@QSpinBox@@ABEPBVQSpinBoxPrivate@@XZ" PURGE="0" COMMENT="" />
    <EXPORT ORDINAL="4680" NAME="?d_func@QSplashScreen@@AAEPAVQSplashScreenPrivate@@XZ" PURGE="0" COMMENT="" />
    <EXPORT ORDINAL="4681" NAME="?d_func@QSplashScreen@@ABEPBVQSplashScreenPrivate@@XZ" PURGE="0" COMMENT="" />
    <EXPORT ORDINAL="4682" NAME="?d_func@QSplitter@@AAEPAVQSplitterPrivate@@XZ" PURGE="0" COMMENT="" />
    <EXPORT ORDINAL="4683" NAME="?d_func@QSplitter@@ABEPBVQSplitterPrivate@@XZ" PURGE="0" COMMENT="" />
    <EXPORT ORDINAL="4684" NAME="?d_func@QSplitterHandle@@AAEPAVQSplitterHandlePrivate@@XZ" PURGE="0" COMMENT="" />
    <EXPORT ORDINAL="4685" NAME="?d_func@QSplitterHandle@@ABEPBVQSplitterHandlePrivate@@XZ" PURGE="0" COMMENT="" />
    <EXPORT ORDINAL="4686" NAME="?d_func@QStackedLayout@@AAEPAVQStackedLayoutPrivate@@XZ" PURGE="0" COMMENT="" />
    <EXPORT ORDINAL="4687" NAME="?d_func@QStackedLayout@@ABEPBVQStackedLayoutPrivate@@XZ" PURGE="0" COMMENT="" />
    <EXPORT ORDINAL="4688" NAME="?d_func@QStackedWidget@@AAEPAVQStackedWidgetPrivate@@XZ" PURGE="0" COMMENT="" />
    <EXPORT ORDINAL="4689" NAME="?d_func@QStackedWidget@@ABEPBVQStackedWidgetPrivate@@XZ" PURGE="0" COMMENT="" />
    <EXPORT ORDINAL="4690" NAME="?d_func@QStandardItem@@AAEPAVQStandardItemPrivate@@XZ" PURGE="0" COMMENT="" />
    <EXPORT ORDINAL="4691" NAME="?d_func@QStandardItem@@ABEPBVQStandardItemPrivate@@XZ" PURGE="0" COMMENT="" />
    <EXPORT ORDINAL="4692" NAME="?d_func@QStandardItemModel@@AAEPAVQStandardItemModelPrivate@@XZ" PURGE="0" COMMENT="" />
    <EXPORT ORDINAL="4693" NAME="?d_func@QStandardItemModel@@ABEPBVQStandardItemModelPrivate@@XZ" PURGE="0" COMMENT="" />
    <EXPORT ORDINAL="4694" NAME="?d_func@QStatusBar@@AAEPAVQStatusBarPrivate@@XZ" PURGE="0" COMMENT="" />
    <EXPORT ORDINAL="4695" NAME="?d_func@QStatusBar@@ABEPBVQStatusBarPrivate@@XZ" PURGE="0" COMMENT="" />
    <EXPORT ORDINAL="4696" NAME="?d_func@QStyle@@AAEPAVQStylePrivate@@XZ" PURGE="0" COMMENT="" />
    <EXPORT ORDINAL="4697" NAME="?d_func@QStyle@@ABEPBVQStylePrivate@@XZ" PURGE="0" COMMENT="" />
    <EXPORT ORDINAL="4698" NAME="?d_func@QStyledItemDelegate@@AAEPAVQStyledItemDelegatePrivate@@XZ" PURGE="0" COMMENT="" />
    <EXPORT ORDINAL="4699" NAME="?d_func@QStyledItemDelegate@@ABEPBVQStyledItemDelegatePrivate@@XZ" PURGE="0" COMMENT="" />
    <EXPORT ORDINAL="4700" NAME="?d_func@QSwipeGesture@@AAEPAVQSwipeGesturePrivate@@XZ" PURGE="0" COMMENT="" />
    <EXPORT ORDINAL="4701" NAME="?d_func@QSwipeGesture@@ABEPBVQSwipeGesturePrivate@@XZ" PURGE="0" COMMENT="" />
    <EXPORT ORDINAL="4702" NAME="?d_func@QSyntaxHighlighter@@AAEPAVQSyntaxHighlighterPrivate@@XZ" PURGE="0" COMMENT="" />
    <EXPORT ORDINAL="4703" NAME="?d_func@QSyntaxHighlighter@@ABEPBVQSyntaxHighlighterPrivate@@XZ" PURGE="0" COMMENT="" />
    <EXPORT ORDINAL="4704" NAME="?d_func@QSystemTrayIcon@@AAEPAVQSystemTrayIconPrivate@@XZ" PURGE="0" COMMENT="" />
    <EXPORT ORDINAL="4705" NAME="?d_func@QSystemTrayIcon@@ABEPBVQSystemTrayIconPrivate@@XZ" PURGE="0" COMMENT="" />
    <EXPORT ORDINAL="4706" NAME="?d_func@QTabBar@@AAEPAVQTabBarPrivate@@XZ" PURGE="0" COMMENT="" />
    <EXPORT ORDINAL="4707" NAME="?d_func@QTabBar@@ABEPBVQTabBarPrivate@@XZ" PURGE="0" COMMENT="" />
    <EXPORT ORDINAL="4708" NAME="?d_func@QTabWidget@@AAEPAVQTabWidgetPrivate@@XZ" PURGE="0" COMMENT="" />
    <EXPORT ORDINAL="4709" NAME="?d_func@QTabWidget@@ABEPBVQTabWidgetPrivate@@XZ" PURGE="0" COMMENT="" />
    <EXPORT ORDINAL="4710" NAME="?d_func@QTableView@@AAEPAVQTableViewPrivate@@XZ" PURGE="0" COMMENT="" />
    <EXPORT ORDINAL="4711" NAME="?d_func@QTableView@@ABEPBVQTableViewPrivate@@XZ" PURGE="0" COMMENT="" />
    <EXPORT ORDINAL="4712" NAME="?d_func@QTableWidget@@AAEPAVQTableWidgetPrivate@@XZ" PURGE="0" COMMENT="" />
    <EXPORT ORDINAL="4713" NAME="?d_func@QTableWidget@@ABEPBVQTableWidgetPrivate@@XZ" PURGE="0" COMMENT="" />
    <EXPORT ORDINAL="4714" NAME="?d_func@QTapAndHoldGesture@@AAEPAVQTapAndHoldGesturePrivate@@XZ" PURGE="0" COMMENT="" />
    <EXPORT ORDINAL="4715" NAME="?d_func@QTapAndHoldGesture@@ABEPBVQTapAndHoldGesturePrivate@@XZ" PURGE="0" COMMENT="" />
    <EXPORT ORDINAL="4716" NAME="?d_func@QTapGesture@@AAEPAVQTapGesturePrivate@@XZ" PURGE="0" COMMENT="" />
    <EXPORT ORDINAL="4717" NAME="?d_func@QTapGesture@@ABEPBVQTapGesturePrivate@@XZ" PURGE="0" COMMENT="" />
    <EXPORT ORDINAL="4718" NAME="?d_func@QTextBlockGroup@@AAEPAVQTextBlockGroupPrivate@@XZ" PURGE="0" COMMENT="" />
    <EXPORT ORDINAL="4719" NAME="?d_func@QTextBlockGroup@@ABEPBVQTextBlockGroupPrivate@@XZ" PURGE="0" COMMENT="" />
    <EXPORT ORDINAL="4720" NAME="?d_func@QTextBrowser@@AAEPAVQTextBrowserPrivate@@XZ" PURGE="0" COMMENT="" />
    <EXPORT ORDINAL="4721" NAME="?d_func@QTextBrowser@@ABEPBVQTextBrowserPrivate@@XZ" PURGE="0" COMMENT="" />
    <EXPORT ORDINAL="4722" NAME="?d_func@QTextControl@@AAEPAVQTextControlPrivate@@XZ" PURGE="0" COMMENT="" />
    <EXPORT ORDINAL="4723" NAME="?d_func@QTextControl@@ABEPBVQTextControlPrivate@@XZ" PURGE="0" COMMENT="" />
    <EXPORT ORDINAL="4724" NAME="?d_func@QTextDocument@@AAEPAVQTextDocumentPrivate@@XZ" PURGE="0" COMMENT="" />
    <EXPORT ORDINAL="4725" NAME="?d_func@QTextDocument@@ABEPBVQTextDocumentPrivate@@XZ" PURGE="0" COMMENT="" />
    <EXPORT ORDINAL="4726" NAME="?d_func@QTextEdit@@AAEPAVQTextEditPrivate@@XZ" PURGE="0" COMMENT="" />
    <EXPORT ORDINAL="4727" NAME="?d_func@QTextEdit@@ABEPBVQTextEditPrivate@@XZ" PURGE="0" COMMENT="" />
    <EXPORT ORDINAL="4728" NAME="?d_func@QTextFrame@@AAEPAVQTextFramePrivate@@XZ" PURGE="0" COMMENT="" />
    <EXPORT ORDINAL="4729" NAME="?d_func@QTextFrame@@ABEPBVQTextFramePrivate@@XZ" PURGE="0" COMMENT="" />
    <EXPORT ORDINAL="4730" NAME="?d_func@QTextList@@AAEPAVQTextListPrivate@@XZ" PURGE="0" COMMENT="" />
    <EXPORT ORDINAL="4731" NAME="?d_func@QTextList@@ABEPBVQTextListPrivate@@XZ" PURGE="0" COMMENT="" />
    <EXPORT ORDINAL="4732" NAME="?d_func@QTextObject@@AAEPAVQTextObjectPrivate@@XZ" PURGE="0" COMMENT="" />
    <EXPORT ORDINAL="4733" NAME="?d_func@QTextObject@@ABEPBVQTextObjectPrivate@@XZ" PURGE="0" COMMENT="" />
    <EXPORT ORDINAL="4734" NAME="?d_func@QTextTable@@AAEPAVQTextTablePrivate@@XZ" PURGE="0" COMMENT="" />
    <EXPORT ORDINAL="4735" NAME="?d_func@QTextTable@@ABEPBVQTextTablePrivate@@XZ" PURGE="0" COMMENT="" />
    <EXPORT ORDINAL="4736" NAME="?d_func@QToolBar@@AAEPAVQToolBarPrivate@@XZ" PURGE="0" COMMENT="" />
    <EXPORT ORDINAL="4737" NAME="?d_func@QToolBar@@ABEPBVQToolBarPrivate@@XZ" PURGE="0" COMMENT="" />
    <EXPORT ORDINAL="4738" NAME="?d_func@QToolBox@@AAEPAVQToolBoxPrivate@@XZ" PURGE="0" COMMENT="" />
    <EXPORT ORDINAL="4739" NAME="?d_func@QToolBox@@ABEPBVQToolBoxPrivate@@XZ" PURGE="0" COMMENT="" />
    <EXPORT ORDINAL="4740" NAME="?d_func@QToolButton@@AAEPAVQToolButtonPrivate@@XZ" PURGE="0" COMMENT="" />
    <EXPORT ORDINAL="4741" NAME="?d_func@QToolButton@@ABEPBVQToolButtonPrivate@@XZ" PURGE="0" COMMENT="" />
    <EXPORT ORDINAL="4742" NAME="?d_func@QTreeView@@AAEPAVQTreeViewPrivate@@XZ" PURGE="0" COMMENT="" />
    <EXPORT ORDINAL="4743" NAME="?d_func@QTreeView@@ABEPBVQTreeViewPrivate@@XZ" PURGE="0" COMMENT="" />
    <EXPORT ORDINAL="4744" NAME="?d_func@QTreeWidget@@AAEPAVQTreeWidgetPrivate@@XZ" PURGE="0" COMMENT="" />
    <EXPORT ORDINAL="4745" NAME="?d_func@QTreeWidget@@ABEPBVQTreeWidgetPrivate@@XZ" PURGE="0" COMMENT="" />
    <EXPORT ORDINAL="4746" NAME="?d_func@QTreeWidgetItemIterator@@AAEPAVQTreeWidgetItemIteratorPrivate@@XZ" PURGE="0" COMMENT="" />
    <EXPORT ORDINAL="4747" NAME="?d_func@QTreeWidgetItemIterator@@ABEPBVQTreeWidgetItemIteratorPrivate@@XZ" PURGE="0" COMMENT="" />
    <EXPORT ORDINAL="4748" NAME="?d_func@QUndoGroup@@AAEPAVQUndoGroupPrivate@@XZ" PURGE="0" COMMENT="" />
    <EXPORT ORDINAL="4749" NAME="?d_func@QUndoGroup@@ABEPBVQUndoGroupPrivate@@XZ" PURGE="0" COMMENT="" />
    <EXPORT ORDINAL="4750" NAME="?d_func@QUndoStack@@AAEPAVQUndoStackPrivate@@XZ" PURGE="0" COMMENT="" />
    <EXPORT ORDINAL="4751" NAME="?d_func@QUndoStack@@ABEPBVQUndoStackPrivate@@XZ" PURGE="0" COMMENT="" />
    <EXPORT ORDINAL="4752" NAME="?d_func@QUndoView@@AAEPAVQUndoViewPrivate@@XZ" PURGE="0" COMMENT="" />
    <EXPORT ORDINAL="4753" NAME="?d_func@QUndoView@@ABEPBVQUndoViewPrivate@@XZ" PURGE="0" COMMENT="" />
    <EXPORT ORDINAL="4754" NAME="?d_func@QValidator@@AAEPAVQValidatorPrivate@@XZ" PURGE="0" COMMENT="" />
    <EXPORT ORDINAL="4755" NAME="?d_func@QValidator@@ABEPBVQValidatorPrivate@@XZ" PURGE="0" COMMENT="" />
    <EXPORT ORDINAL="4756" NAME="?d_func@QWidget@@AAEPAVQWidgetPrivate@@XZ" PURGE="0" COMMENT="" />
    <EXPORT ORDINAL="4757" NAME="?d_func@QWidget@@ABEPBVQWidgetPrivate@@XZ" PURGE="0" COMMENT="" />
    <EXPORT ORDINAL="4758" NAME="?d_func@QWidgetAction@@AAEPAVQWidgetActionPrivate@@XZ" PURGE="0" COMMENT="" />
    <EXPORT ORDINAL="4759" NAME="?d_func@QWidgetAction@@ABEPBVQWidgetActionPrivate@@XZ" PURGE="0" COMMENT="" />
    <EXPORT ORDINAL="4760" NAME="?d_func@QWindowsStyle@@AAEPAVQWindowsStylePrivate@@XZ" PURGE="0" COMMENT="" />
    <EXPORT ORDINAL="4761" NAME="?d_func@QWindowsStyle@@ABEPBVQWindowsStylePrivate@@XZ" PURGE="0" COMMENT="" />
    <EXPORT ORDINAL="4762" NAME="?d_func@QWindowsVistaStyle@@AAEPAVQWindowsVistaStylePrivate@@XZ" PURGE="0" COMMENT="" />
    <EXPORT ORDINAL="4763" NAME="?d_func@QWindowsVistaStyle@@ABEPBVQWindowsVistaStylePrivate@@XZ" PURGE="0" COMMENT="" />
    <EXPORT ORDINAL="4764" NAME="?d_func@QWindowsXPStyle@@AAEPAVQWindowsXPStylePrivate@@XZ" PURGE="0" COMMENT="" />
    <EXPORT ORDINAL="4765" NAME="?d_func@QWindowsXPStyle@@ABEPBVQWindowsXPStylePrivate@@XZ" PURGE="0" COMMENT="" />
    <EXPORT ORDINAL="4766" NAME="?d_func@QWizard@@AAEPAVQWizardPrivate@@XZ" PURGE="0" COMMENT="" />
    <EXPORT ORDINAL="4767" NAME="?d_func@QWizard@@ABEPBVQWizardPrivate@@XZ" PURGE="0" COMMENT="" />
    <EXPORT ORDINAL="4768" NAME="?d_func@QWizardPage@@AAEPAVQWizardPagePrivate@@XZ" PURGE="0" COMMENT="" />
    <EXPORT ORDINAL="4769" NAME="?d_func@QWizardPage@@ABEPBVQWizardPagePrivate@@XZ" PURGE="0" COMMENT="" />
    <EXPORT ORDINAL="4770" NAME="?d_func@QWorkspace@@AAEPAVQWorkspacePrivate@@XZ" PURGE="0" COMMENT="" />
    <EXPORT ORDINAL="4771" NAME="?d_func@QWorkspace@@ABEPBVQWorkspacePrivate@@XZ" PURGE="0" COMMENT="" />
    <EXPORT ORDINAL="4772" NAME="?dark@QColor@@QBE?AV1@H@Z" PURGE="8" COMMENT="" />
    <EXPORT ORDINAL="4773" NAME="?dark@QColorGroup@@QBEABVQColor@@XZ" PURGE="0" COMMENT="" />
    <EXPORT ORDINAL="4774" NAME="?dark@QPalette@@QBEABVQBrush@@XZ" PURGE="0" COMMENT="" />
    <EXPORT ORDINAL="4775" NAME="?darker@QColor@@QBE?AV1@H@Z" PURGE="8" COMMENT="" />
    <EXPORT ORDINAL="4776" NAME="?dashOffset@QDashStroker@@QBENXZ" PURGE="0" COMMENT="" />
    <EXPORT ORDINAL="4777" NAME="?dashOffset@QPainterPathStroker@@QBENXZ" PURGE="0" COMMENT="" />
    <EXPORT ORDINAL="4778" NAME="?dashOffset@QPen@@QBENXZ" PURGE="0" COMMENT="" />
    <EXPORT ORDINAL="4779" NAME="?dashPattern@QDashStroker@@QBE?AV?$QVector@N@@XZ" PURGE="4" COMMENT="" />
    <EXPORT ORDINAL="4780" NAME="?dashPattern@QPainterPathStroker@@QBE?AV?$QVector@N@@XZ" PURGE="4" COMMENT="" />
    <EXPORT ORDINAL="4781" NAME="?dashPattern@QPen@@QBE?AV?$QVector@N@@XZ" PURGE="4" COMMENT="" />
    <EXPORT ORDINAL="4782" NAME="?data@QAbstractProxyModel@@UBE?AVQVariant@@ABVQModelIndex@@H@Z" PURGE="12" COMMENT="" />
    <EXPORT ORDINAL="4783" NAME="?data@QAction@@QBE?AVQVariant@@XZ" PURGE="4" COMMENT="" />
    <EXPORT ORDINAL="4784" NAME="?data@QClipboard@@QBEPAVQMimeSource@@W4Mode@1@@Z" PURGE="4" COMMENT="" />
    <EXPORT ORDINAL="4785" NAME="?data@QClipboardEvent@@QAEPAVQEventPrivate@@XZ" PURGE="0" COMMENT="" />
    <EXPORT ORDINAL="4786" NAME="?data@QDirModel@@UBE?AVQVariant@@ABVQModelIndex@@H@Z" PURGE="12" COMMENT="" />
    <EXPORT ORDINAL="4787" NAME="?data@QDropEvent@@QBE?AVQByteArray@@PBD@Z" PURGE="8" COMMENT="" />
    <EXPORT ORDINAL="4788" NAME="?data@QFileSystemModel@@UBE?AVQVariant@@ABVQModelIndex@@H@Z" PURGE="12" COMMENT="" />
    <EXPORT ORDINAL="4789" NAME="?data@QGraphicsItem@@QBE?AVQVariant@@H@Z" PURGE="8" COMMENT="" />
    <EXPORT ORDINAL="4790" NAME="?data@QListWidgetItem@@UBE?AVQVariant@@H@Z" PURGE="8" COMMENT="" />
    <EXPORT ORDINAL="4791" NAME="?data@QMatrix4x4@@QAEPANXZ" PURGE="0" COMMENT="" />
    <EXPORT ORDINAL="4792" NAME="?data@QMatrix4x4@@QBEPBNXZ" PURGE="0" COMMENT="" />
    <EXPORT ORDINAL="4793" NAME="?data@QPicture@@QBEPBDXZ" PURGE="-1" COMMENT="" />
    <EXPORT ORDINAL="4794" NAME="?data@QProxyModel@@UBE?AVQVariant@@ABVQModelIndex@@H@Z" PURGE="12" COMMENT="" />
    <EXPORT ORDINAL="4795" NAME="?data@QSortFilterProxyModel@@UBE?AVQVariant@@ABVQModelIndex@@H@Z" PURGE="12" COMMENT="" />
    <EXPORT ORDINAL="4796" NAME="?data@QStandardItem@@UBE?AVQVariant@@H@Z" PURGE="8" COMMENT="" />
    <EXPORT ORDINAL="4797" NAME="?data@QStandardItemModel@@UBE?AVQVariant@@ABVQModelIndex@@H@Z" PURGE="12" COMMENT="" />
    <EXPORT ORDINAL="4798" NAME="?data@QStringListModel@@UBE?AVQVariant@@ABVQModelIndex@@H@Z" PURGE="12" COMMENT="" />
    <EXPORT ORDINAL="4799" NAME="?data@QTableWidgetItem@@UBE?AVQVariant@@H@Z" PURGE="8" COMMENT="" />
    <EXPORT ORDINAL="4800" NAME="?data@QTreeWidgetItem@@UBE?AVQVariant@@HH@Z" PURGE="12" COMMENT="" />
    <EXPORT ORDINAL="4801" NAME="?dataChanged@QAbstractItemView@@MAEXABVQModelIndex@@0@Z" PURGE="8" COMMENT="" />
    <EXPORT ORDINAL="4802" NAME="?dataChanged@QClipboard@@IAEXXZ" PURGE="0" COMMENT="" />
    <EXPORT ORDINAL="4803" NAME="?dataChanged@QHeaderView@@MAEXABVQModelIndex@@0@Z" PURGE="8" COMMENT="" />
    <EXPORT ORDINAL="4804" NAME="?dataChanged@QListView@@MAEXABVQModelIndex@@0@Z" PURGE="8" COMMENT="" />
    <EXPORT ORDINAL="4805" NAME="?dataChanged@QTreeView@@UAEXABVQModelIndex@@0@Z" PURGE="8" COMMENT="" />
    <EXPORT ORDINAL="4806" NAME="?data_ptr@QBrush@@QAEAAV?$QScopedPointer@UQBrushData@@UQBrushDataPointerDeleter@@@@XZ" PURGE="0" COMMENT="" />
    <EXPORT ORDINAL="4807" NAME="?data_ptr@QIcon@@QAEAAPAVQIconPrivate@@XZ" PURGE="0" COMMENT="" />
    <EXPORT ORDINAL="4808" NAME="?data_ptr@QImage@@QAEAAPAUQImageData@@XZ" PURGE="0" COMMENT="" />
    <EXPORT ORDINAL="4809" NAME="?data_ptr@QKeySequence@@QAEAAPAVQKeySequencePrivate@@XZ" PURGE="0" COMMENT="" />
    <EXPORT ORDINAL="4810" NAME="?data_ptr@QPen@@QAEAAPAVQPenPrivate@@XZ" PURGE="0" COMMENT="" />
    <EXPORT ORDINAL="4811" NAME="?data_ptr@QPicture@@QAEAAV?$QExplicitlySharedDataPointer@VQPicturePrivate@@@@XZ" PURGE="0" COMMENT="" />
    <EXPORT ORDINAL="4812" NAME="?data_ptr@QPixmap@@QAEAAV?$QExplicitlySharedDataPointer@VQPixmapData@@@@XZ" PURGE="0" COMMENT="" />
    <EXPORT ORDINAL="4813" NAME="?date@QDateTimeEdit@@QBE?AVQDate@@XZ" PURGE="4" COMMENT="" />
    <EXPORT ORDINAL="4814" NAME="?dateChanged@QDateTimeEdit@@IAEXABVQDate@@@Z" PURGE="4" COMMENT="" />
    <EXPORT ORDINAL="4815" NAME="?dateEditAcceptDelay@QCalendarWidget@@QBEHXZ" PURGE="0" COMMENT="" />
    <EXPORT ORDINAL="4816" NAME="?dateTextFormat@QCalendarWidget@@QBE?AV?$QMap@VQDate@@VQTextCharFormat@@@@XZ" PURGE="4" COMMENT="" />
    <EXPORT ORDINAL="4817" NAME="?dateTextFormat@QCalendarWidget@@QBE?AVQTextCharFormat@@ABVQDate@@@Z" PURGE="8" COMMENT="" />
    <EXPORT ORDINAL="4818" NAME="?dateTime@QDateTimeEdit@@QBE?AVQDateTime@@XZ" PURGE="4" COMMENT="" />
    <EXPORT ORDINAL="4819" NAME="?dateTimeChanged@QDateTimeEdit@@IAEXABVQDateTime@@@Z" PURGE="4" COMMENT="" />
    <EXPORT ORDINAL="4820" NAME="?dateTimeFromText@QDateTimeEdit@@MBE?AVQDateTime@@ABVQString@@@Z" PURGE="8" COMMENT="" />
    <EXPORT ORDINAL="4821" NAME="?deactivateWidgetCleanup@QWidgetPrivate@@QAEXXZ" PURGE="0" COMMENT="" />
    <EXPORT ORDINAL="4822" NAME="?decideFormatFromContent@QImageReader@@QBE_NXZ" PURGE="0" COMMENT="" />
    <EXPORT ORDINAL="4823" NAME="?decimals@QDoubleSpinBox@@QBEHXZ" PURGE="0" COMMENT="" />
    <EXPORT ORDINAL="4824" NAME="?decimals@QDoubleValidator@@QBEHXZ" PURGE="0" COMMENT="" />
    <EXPORT ORDINAL="4825" NAME="?declarationsForNode@StyleSelector@QCss@@QAE?AV?$QVector@UDeclaration@QCss@@@@TNodePtr@12@PBD@Z" PURGE="12" COMMENT="" />
    <EXPORT ORDINAL="4826" NAME="?decodeString@QKeySequence@@CAHABVQString@@@Z" PURGE="0" COMMENT="" />
    <EXPORT ORDINAL="4827" NAME="?decoration@QItemDelegate@@IBE?AVQPixmap@@ABVQStyleOptionViewItem@@ABVQVariant@@@Z" PURGE="12" COMMENT="" />
    <EXPORT ORDINAL="4828" NAME="?defaultAction@QMenu@@QBEPAVQAction@@XZ" PURGE="0" COMMENT="" />
    <EXPORT ORDINAL="4829" NAME="?defaultAction@QToolButton@@QBEPAVQAction@@XZ" PURGE="0" COMMENT="" />
    <EXPORT ORDINAL="4830" NAME="?defaultAlignment@QHeaderView@@QBE?AV?$QFlags@W4AlignmentFlag@Qt@@@@XZ" PURGE="4" COMMENT="" />
    <EXPORT ORDINAL="4831" NAME="?defaultBorder@QLayout@@QBEHXZ" PURGE="0" COMMENT="" />
    <EXPORT ORDINAL="4832" NAME="?defaultButton@QMessageBox@@QBEPAVQPushButton@@XZ" PURGE="0" COMMENT="" />
    <EXPORT ORDINAL="4833" NAME="?defaultCursorMoveStyle@QTextDocument@@QBE?AW4CursorMoveStyle@Qt@@XZ" PURGE="0" COMMENT="" />
    <EXPORT ORDINAL="4834" NAME="?defaultDepth@QPixmap@@SAHXZ" PURGE="0" COMMENT="" />
    <EXPORT ORDINAL="4835" NAME="?defaultDropAction@QAbstractItemView@@QBE?AW4DropAction@Qt@@XZ" PURGE="0" COMMENT="" />
    <EXPORT ORDINAL="4836" NAME="?defaultFactory@QItemEditorFactory@@SAPBV1@XZ" PURGE="0" COMMENT="" />
    <EXPORT ORDINAL="4837" NAME="?defaultFamily@QFont@@QBE?AVQString@@XZ" PURGE="4" COMMENT="" />
    <EXPORT ORDINAL="4838" NAME="?defaultFont@QFont@@SA?AV1@XZ" PURGE="0" COMMENT="" />
    <EXPORT ORDINAL="4839" NAME="?defaultFont@QTextDocument@@QBE?AVQFont@@XZ" PURGE="4" COMMENT="" />
    <EXPORT ORDINAL="4840" NAME="?defaultFont@QTextFormatCollection@@QBE?AVQFont@@XZ" PURGE="4" COMMENT="" />
    <EXPORT ORDINAL="4841" NAME="?defaultPrinter@QPrinterInfo@@SA?AV1@XZ" PURGE="0" COMMENT="" />
    <EXPORT ORDINAL="4842" NAME="?defaultSectionSize@QHeaderView@@QBEHXZ" PURGE="0" COMMENT="" />
    <EXPORT ORDINAL="4843" NAME="?defaultStyleSheet@QTextDocument@@QBE?AVQString@@XZ" PURGE="4" COMMENT="" />
    <EXPORT ORDINAL="4844" NAME="?defaultSuffix@QFileDialog@@QBE?AVQString@@XZ" PURGE="4" COMMENT="" />
    <EXPORT ORDINAL="4845" NAME="?defaultTextColor@QGraphicsTextItem@@QBE?AVQColor@@XZ" PURGE="4" COMMENT="" />
    <EXPORT ORDINAL="4846" NAME="?defaultTextOption@QTextDocument@@QBE?AVQTextOption@@XZ" PURGE="4" COMMENT="" />
    <EXPORT ORDINAL="4847" NAME="?defaultWidget@QWidgetAction@@QBEPAVQWidget@@XZ" PURGE="0" COMMENT="" />
    <EXPORT ORDINAL="4848" NAME="?defineIOHandler@QPictureIO@@SAXPBD00P6AXPAV1@@Z2@Z" PURGE="0" COMMENT="" />
    <EXPORT ORDINAL="4849" NAME="?del@QLineControl@@QAEXXZ" PURGE="0" COMMENT="" />
    <EXPORT ORDINAL="4850" NAME="?del@QLineEdit@@QAEXXZ" PURGE="0" COMMENT="" />
    <EXPORT ORDINAL="4851" NAME="?deleteAllItems@QLayout@@IAEXXZ" PURGE="0" COMMENT="" />
    <EXPORT ORDINAL="4852" NAME="?deleteChar@QTextCursor@@QAEXXZ" PURGE="0" COMMENT="" />
    <EXPORT ORDINAL="4853" NAME="?deleteCurrent@QLayoutIterator@@QAEXXZ" PURGE="0" COMMENT="" />
    <EXPORT ORDINAL="4854" NAME="?deleteExtra@QWidgetPrivate@@QAEXXZ" PURGE="0" COMMENT="" />
    <EXPORT ORDINAL="4855" NAME="?deletePreviousChar@QTextCursor@@QAEXXZ" PURGE="0" COMMENT="" />
    <EXPORT ORDINAL="4856" NAME="?deleteSysExtra@QWidgetPrivate@@QAEXXZ" PURGE="0" COMMENT="" />
    <EXPORT ORDINAL="4857" NAME="?deleteTLSysExtra@QWidgetPrivate@@QAEXXZ" PURGE="0" COMMENT="" />
    <EXPORT ORDINAL="4858" NAME="?deleteText@QAccessibleSimpleEditableTextInterface@@UAEXHH@Z" PURGE="8" COMMENT="" />
    <EXPORT ORDINAL="4859" NAME="?deleteWidget@QWidgetAction@@MAEXPAVQWidget@@@Z" PURGE="4" COMMENT="" />
    <EXPORT ORDINAL="4860" NAME="?delta@QGraphicsSceneWheelEvent@@QBEHXZ" PURGE="0" COMMENT="" />
    <EXPORT ORDINAL="4861" NAME="?delta@QPanGesture@@QBE?AVQPointF@@XZ" PURGE="4" COMMENT="" />
    <EXPORT ORDINAL="4862" NAME="?delta@QWheelEvent@@QBEHXZ" PURGE="0" COMMENT="" />
    <EXPORT ORDINAL="4863" NAME="?depth@QColormap@@QBEHXZ" PURGE="0" COMMENT="" />
    <EXPORT ORDINAL="4864" NAME="?depth@QGraphicsItemPrivate@@QBEHXZ" PURGE="0" COMMENT="" />
    <EXPORT ORDINAL="4865" NAME="?depth@QImage@@QBEHXZ" PURGE="0" COMMENT="" />
    <EXPORT ORDINAL="4866" NAME="?depth@QPaintDevice@@QBEHXZ" PURGE="0" COMMENT="" />
    <EXPORT ORDINAL="4867" NAME="?depth@QPixmap@@QBEHXZ" PURGE="0" COMMENT="" />
    <EXPORT ORDINAL="4868" NAME="?depth@QPixmapData@@QBEHXZ" PURGE="0" COMMENT="" />
    <EXPORT ORDINAL="4869" NAME="?depth@QVolatileImage@@QBEHXZ" PURGE="0" COMMENT="" />
    <EXPORT ORDINAL="4870" NAME="?deref@QPixmap@@AAEXXZ" PURGE="0" COMMENT="" />
    <EXPORT ORDINAL="4871" NAME="?derivedAt@QBezier@@QBE?AVQPointF@@N@Z" PURGE="12" COMMENT="" />
    <EXPORT ORDINAL="4872" NAME="?descent@QFontMetrics@@QBEHXZ" PURGE="0" COMMENT="" />
    <EXPORT ORDINAL="4873" NAME="?descent@QFontMetricsF@@QBENXZ" PURGE="0" COMMENT="" />
    <EXPORT ORDINAL="4874" NAME="?descent@QRawFont@@QBENXZ" PURGE="0" COMMENT="" />
    <EXPORT ORDINAL="4875" NAME="?descent@QTextInlineObject@@QBENXZ" PURGE="0" COMMENT="" />
    <EXPORT ORDINAL="4876" NAME="?descent@QTextItem@@QBENXZ" PURGE="0" COMMENT="" />
    <EXPORT ORDINAL="4877" NAME="?descent@QTextLine@@QBENXZ" PURGE="0" COMMENT="" />
    <EXPORT ORDINAL="4878" NAME="?description@QCommandLinkButton@@QBE?AVQString@@XZ" PURGE="4" COMMENT="" />
    <EXPORT ORDINAL="4879" NAME="?description@QImageWriter@@QBE?AVQString@@XZ" PURGE="4" COMMENT="" />
    <EXPORT ORDINAL="4880" NAME="?description@QInputContextFactory@@SA?AVQString@@ABV2@@Z" PURGE="0" COMMENT="" />
    <EXPORT ORDINAL="4881" NAME="?description@QPictureIO@@QBE?AVQString@@XZ" PURGE="4" COMMENT="" />
    <EXPORT ORDINAL="4882" NAME="?deselect@QLineControl@@QAEXXZ" PURGE="0" COMMENT="" />
    <EXPORT ORDINAL="4883" NAME="?deselect@QLineEdit@@QAEXXZ" PURGE="0" COMMENT="" />
    <EXPORT ORDINAL="4884" NAME="?desktop@QApplication@@SAPAVQDesktopWidget@@XZ" PURGE="0" COMMENT="" />
    <EXPORT ORDINAL="4885" NAME="?desktopSettingsAware@QApplication@@SA_NXZ" PURGE="0" COMMENT="" />
    <EXPORT ORDINAL="4886" NAME="?desktopStyleKey@QApplicationPrivate@@SA?AVQString@@XZ" PURGE="0" COMMENT="" />
    <EXPORT ORDINAL="4887" NAME="?destroy@QWidget@@IAEX_N0@Z" PURGE="8" COMMENT="" />
    <EXPORT ORDINAL="4888" NAME="?destroyItemGroup@QGraphicsScene@@QAEXPAVQGraphicsItemGroup@@@Z" PURGE="4" COMMENT="" />
    <EXPORT ORDINAL="4889" NAME="?det@QMatrix@@QBENXZ" PURGE="0" COMMENT="" />
    <EXPORT ORDINAL="4890" NAME="?det@QTransform@@QBENXZ" PURGE="0" COMMENT="" />
    <EXPORT ORDINAL="4891" NAME="?detach@?$QList@VQItemSelectionRange@@@@QAEXXZ" PURGE="0" COMMENT="" />
    <EXPORT ORDINAL="4892" NAME="?detach@QBrush@@AAEXW4BrushStyle@Qt@@@Z" PURGE="4" COMMENT="" />
    <EXPORT ORDINAL="4893" NAME="?detach@QFont@@AAEXXZ" PURGE="0" COMMENT="" />
    <EXPORT ORDINAL="4894" NAME="?detach@QGlyphRun@@AAEXXZ" PURGE="0" COMMENT="" />
    <EXPORT ORDINAL="4895" NAME="?detach@QIcon@@QAEXXZ" PURGE="0" COMMENT="" />
    <EXPORT ORDINAL="4896" NAME="?detach@QImage@@QAEXXZ" PURGE="0" COMMENT="" />
    <EXPORT ORDINAL="4897" NAME="?detach@QPainterPath@@AAEXXZ" PURGE="0" COMMENT="" />
    <EXPORT ORDINAL="4898" NAME="?detach@QPalette@@AAEXXZ" PURGE="0" COMMENT="" />
    <EXPORT ORDINAL="4899" NAME="?detach@QPen@@AAEXXZ" PURGE="0" COMMENT="" />
    <EXPORT ORDINAL="4900" NAME="?detach@QPicture@@QAEXXZ" PURGE="0" COMMENT="" />
    <EXPORT ORDINAL="4901" NAME="?detach@QPixmap@@QAEXXZ" PURGE="0" COMMENT="" />
    <EXPORT ORDINAL="4902" NAME="?detach@QRegion@@AAEXXZ" PURGE="0" COMMENT="" />
    <EXPORT ORDINAL="4903" NAME="?detach@QStaticText@@AAEXXZ" PURGE="0" COMMENT="" />
    <EXPORT ORDINAL="4904" NAME="?detachShared@?$QList@VQItemSelectionRange@@@@QAEXXZ" PURGE="0" COMMENT="" />
    <EXPORT ORDINAL="4905" NAME="?detach_helper@?$QList@VQItemSelectionRange@@@@AAEXH@Z" PURGE="4" COMMENT="" />
    <EXPORT ORDINAL="4906" NAME="?detach_helper@?$QList@VQItemSelectionRange@@@@AAEXXZ" PURGE="0" COMMENT="" />
    <EXPORT ORDINAL="4907" NAME="?detach_helper@QPainterPath@@AAEXXZ" PURGE="0" COMMENT="" />
    <EXPORT ORDINAL="4908" NAME="?detach_helper@QPicture@@AAEXXZ" PURGE="0" COMMENT="" />
    <EXPORT ORDINAL="4909" NAME="?detach_helper_grow@?$QList@VQItemSelectionRange@@@@AAEPAUNode@1@HH@Z" PURGE="8" COMMENT="" />
    <EXPORT ORDINAL="4910" NAME="?detailedText@QMessageBox@@QBE?AVQString@@XZ" PURGE="4" COMMENT="" />
    <EXPORT ORDINAL="4911" NAME="?determinant@QMatrix4x4@@QBENXZ" PURGE="0" COMMENT="" />
    <EXPORT ORDINAL="4912" NAME="?determinant@QMatrix@@QBENXZ" PURGE="0" COMMENT="" />
    <EXPORT ORDINAL="4913" NAME="?determinant@QTransform@@QBENXZ" PURGE="0" COMMENT="" />
    <EXPORT ORDINAL="4914" NAME="?devType@QImage@@UBEHXZ" PURGE="0" COMMENT="" />
    <EXPORT ORDINAL="4915" NAME="?devType@QPaintBuffer@@UBEHXZ" PURGE="0" COMMENT="" />
    <EXPORT ORDINAL="4916" NAME="?devType@QPaintDevice@@UBEHXZ" PURGE="0" COMMENT="" />
    <EXPORT ORDINAL="4917" NAME="?devType@QPicture@@UBEHXZ" PURGE="0" COMMENT="" />
    <EXPORT ORDINAL="4918" NAME="?devType@QPixmap@@UBEHXZ" PURGE="0" COMMENT="" />
    <EXPORT ORDINAL="4919" NAME="?devType@QPrinter@@UBEHXZ" PURGE="0" COMMENT="" />
    <EXPORT ORDINAL="4920" NAME="?devType@QWidget@@UBEHXZ" PURGE="0" COMMENT="" />
    <EXPORT ORDINAL="4921" NAME="?device@QImageIOHandler@@QBEPAVQIODevice@@XZ" PURGE="0" COMMENT="" />
    <EXPORT ORDINAL="4922" NAME="?device@QImageReader@@QBEPAVQIODevice@@XZ" PURGE="0" COMMENT="" />
    <EXPORT ORDINAL="4923" NAME="?device@QImageWriter@@QBEPAVQIODevice@@XZ" PURGE="0" COMMENT="" />
    <EXPORT ORDINAL="4924" NAME="?device@QMovie@@QBEPAVQIODevice@@XZ" PURGE="0" COMMENT="" />
    <EXPORT ORDINAL="4925" NAME="?device@QPainter@@QBEPAVQPaintDevice@@XZ" PURGE="0" COMMENT="" />
    <EXPORT ORDINAL="4926" NAME="?device@QTabletEvent@@QBE?AW4TabletDevice@1@XZ" PURGE="0" COMMENT="" />
    <EXPORT ORDINAL="4927" NAME="?device@QTextDocumentWriter@@QBEPAVQIODevice@@XZ" PURGE="0" COMMENT="" />
    <EXPORT ORDINAL="4928" NAME="?device@QZipReader@@QBEPAVQIODevice@@XZ" PURGE="0" COMMENT="" />
    <EXPORT ORDINAL="4929" NAME="?device@QZipWriter@@QBEPAVQIODevice@@XZ" PURGE="0" COMMENT="" />
    <EXPORT ORDINAL="4930" NAME="?deviceMatrix@QPainter@@QBEABVQMatrix@@XZ" PURGE="0" COMMENT="" />
    <EXPORT ORDINAL="4931" NAME="?deviceTransform@QGraphicsItem@@QBE?AVQTransform@@ABV2@@Z" PURGE="8" COMMENT="" />
    <EXPORT ORDINAL="4932" NAME="?deviceTransform@QPainter@@QBEABVQTransform@@XZ" PURGE="0" COMMENT="" />
    <EXPORT ORDINAL="4933" NAME="?deviceType@QTouchEvent@@QBE?AW4DeviceType@1@XZ" PURGE="0" COMMENT="" />
    <EXPORT ORDINAL="4934" NAME="?dialMoved@QDial@@IAEXH@Z" PURGE="4" COMMENT="" />
    <EXPORT ORDINAL="4935" NAME="?dialPressed@QDial@@IAEXXZ" PURGE="0" COMMENT="" />
    <EXPORT ORDINAL="4936" NAME="?dialReleased@QDial@@IAEXXZ" PURGE="0" COMMENT="" />
    <EXPORT ORDINAL="4937" NAME="?digitCount@QLCDNumber@@QBEHXZ" PURGE="0" COMMENT="" />
    <EXPORT ORDINAL="4938" NAME="?direction@QBoxLayout@@QBE?AW4Direction@1@XZ" PURGE="0" COMMENT="" />
    <EXPORT ORDINAL="4939" NAME="?directory@QFileDialog@@QBE?AVQDir@@XZ" PURGE="4" COMMENT="" />
    <EXPORT ORDINAL="4940" NAME="?directoryEntered@QFileDialog@@IAEXABVQString@@@Z" PURGE="4" COMMENT="" />
    <EXPORT ORDINAL="4941" NAME="?directoryLoaded@QFileSystemModel@@IAEXABVQString@@@Z" PURGE="4" COMMENT="" />
    <EXPORT ORDINAL="4942" NAME="?dirtyRegionOffset@QAbstractItemView@@IBE?AVQPoint@@XZ" PURGE="4" COMMENT="" />
    <EXPORT ORDINAL="4943" NAME="?disabled@QPalette@@QBE?AVQColorGroup@@XZ" PURGE="4" COMMENT="" />
    <EXPORT ORDINAL="4944" NAME="?discardCommand@QSessionManager@@QBE?AVQStringList@@XZ" PURGE="4" COMMENT="" />
    <EXPORT ORDINAL="4945" NAME="?discardUpdateRequest@QGraphicsItemPrivate@@QBE_N_N00@Z" PURGE="12" COMMENT="" />
    <EXPORT ORDINAL="4946" NAME="?disconnectFromModel@QProxyModel@@IBEXPBVQAbstractItemModel@@@Z" PURGE="4" COMMENT="" />
    <EXPORT ORDINAL="4947" NAME="?disconnectItem@QMenu@@QAE_NHPBVQObject@@PBD@Z" PURGE="12" COMMENT="" />
    <EXPORT ORDINAL="4948" NAME="?disconnectItem@QMenuBar@@QAE_NHPBVQObject@@PBD@Z" PURGE="12" COMMENT="" />
    <EXPORT ORDINAL="4949" NAME="?dispatchEnterLeave@QApplicationPrivate@@SAXPAVQWidget@@0@Z" PURGE="0" COMMENT="" />
    <EXPORT ORDINAL="4950" NAME="?dispatchPendingUpdateRequests@QGraphicsViewPrivate@@QAEXXZ" PURGE="0" COMMENT="" />
    <EXPORT ORDINAL="4951" NAME="?display@QLCDNumber@@QAEXABVQString@@@Z" PURGE="4" COMMENT="" />
    <EXPORT ORDINAL="4952" NAME="?display@QLCDNumber@@QAEXH@Z" PURGE="4" COMMENT="" />
    <EXPORT ORDINAL="4953" NAME="?display@QLCDNumber@@QAEXN@Z" PURGE="8" COMMENT="" />
    <EXPORT ORDINAL="4954" NAME="?displayFormat@QDateTimeEdit@@QBE?AVQString@@XZ" PURGE="4" COMMENT="" />
    <EXPORT ORDINAL="4955" NAME="?displayName@QDesktopServices@@SA?AVQString@@W4StandardLocation@1@@Z" PURGE="0" COMMENT="" />
    <EXPORT ORDINAL="4956" NAME="?displayName@QInputContextFactory@@SA?AVQString@@ABV2@@Z" PURGE="0" COMMENT="" />
    <EXPORT ORDINAL="4957" NAME="?displayText@QLineControl@@QBE?AVQString@@XZ" PURGE="4" COMMENT="" />
    <EXPORT ORDINAL="4958" NAME="?displayText@QLineEdit@@QBE?AVQString@@XZ" PURGE="4" COMMENT="" />
    <EXPORT ORDINAL="4959" NAME="?displayText@QStyledItemDelegate@@UBE?AVQString@@ABVQVariant@@ABVQLocale@@@Z" PURGE="12" COMMENT="" />
    <EXPORT ORDINAL="4960" NAME="?displayTextChanged@QLineControl@@IAEXABVQString@@@Z" PURGE="4" COMMENT="" />
