<?xml version="1.0" encoding="UTF-8"?>
<LIBRARY NAME="qtxmlpatterns4.dll" PATH="/DLLArchive/etc/qtxmlpatterns4.dll" DATE="Fri Jul 03 13:10:15 PDT 2020" VERSION="4.7.1.0">
    <EXPORT ORDINAL="1" NAME="??0QAbstractMessageHandler@@QAE@PAVQObject@@@Z" PURGE="4" COMMENT="" />
    <EXPORT ORDINAL="2" NAME="??0QAbstractUriResolver@@QAE@PAVQObject@@@Z" PURGE="4" COMMENT="" />
    <EXPORT ORDINAL="3" NAME="??0QAbstractXmlNodeModel@@IAE@PAVQAbstractXmlNodeModelPrivate@@@Z" PURGE="4" COMMENT="" />
    <EXPORT ORDINAL="4" NAME="??0QAbstractXmlNodeModel@@QAE@XZ" PURGE="0" COMMENT="" />
    <EXPORT ORDINAL="5" NAME="??0QAbstractXmlReceiver@@IAE@PAVQAbstractXmlReceiverPrivate@@@Z" PURGE="4" COMMENT="" />
    <EXPORT ORDINAL="6" NAME="??0QAbstractXmlReceiver@@QAE@XZ" PURGE="0" COMMENT="" />
    <EXPORT ORDINAL="7" NAME="??0QSimpleXmlNodeModel@@QAE@ABVQXmlNamePool@@@Z" PURGE="4" COMMENT="" />
    <EXPORT ORDINAL="8" NAME="??0QSourceLocation@@QAE@ABV0@@Z" PURGE="4" COMMENT="" />
    <EXPORT ORDINAL="9" NAME="??0QSourceLocation@@QAE@ABVQUrl@@HH@Z" PURGE="12" COMMENT="" />
    <EXPORT ORDINAL="10" NAME="??0QSourceLocation@@QAE@XZ" PURGE="0" COMMENT="" />
    <EXPORT ORDINAL="11" NAME="??0QXmlFormatter@@QAE@ABVQXmlQuery@@PAVQIODevice@@@Z" PURGE="8" COMMENT="" />
    <EXPORT ORDINAL="12" NAME="??0QXmlItem@@AAE@ABVItem@QPatternist@@@Z" PURGE="4" COMMENT="" />
    <EXPORT ORDINAL="13" NAME="??0QXmlItem@@QAE@ABV0@@Z" PURGE="4" COMMENT="" />
    <EXPORT ORDINAL="14" NAME="??0QXmlItem@@QAE@ABVQVariant@@@Z" PURGE="4" COMMENT="" />
    <EXPORT ORDINAL="15" NAME="??0QXmlItem@@QAE@ABVQXmlNodeModelIndex@@@Z" PURGE="4" COMMENT="" />
    <EXPORT ORDINAL="16" NAME="??0QXmlItem@@QAE@XZ" PURGE="0" COMMENT="" />
    <EXPORT ORDINAL="17" NAME="??0QXmlName@@AAE@H@Z" PURGE="4" COMMENT="" />
    <EXPORT ORDINAL="18" NAME="??0QXmlName@@QAE@AAVQXmlNamePool@@ABVQString@@11@Z" PURGE="16" COMMENT="" />
    <EXPORT ORDINAL="19" NAME="??0QXmlName@@QAE@FFF@Z" PURGE="12" COMMENT="" />
    <EXPORT ORDINAL="20" NAME="??0QXmlName@@QAE@XZ" PURGE="0" COMMENT="" />
    <EXPORT ORDINAL="21" NAME="??0QXmlNamePool@@AAE@PAVNamePool@QPatternist@@@Z" PURGE="4" COMMENT="" />
    <EXPORT ORDINAL="22" NAME="??0QXmlNamePool@@QAE@ABV0@@Z" PURGE="4" COMMENT="" />
    <EXPORT ORDINAL="23" NAME="??0QXmlNamePool@@QAE@XZ" PURGE="0" COMMENT="" />
    <EXPORT ORDINAL="24" NAME="??0QXmlNodeModelIndex@@AAE@ABVNodeIndexStorage@QPatternist@@@Z" PURGE="4" COMMENT="" />
    <EXPORT ORDINAL="25" NAME="??0QXmlNodeModelIndex@@QAE@ABV0@@Z" PURGE="4" COMMENT="" />
    <EXPORT ORDINAL="26" NAME="??0QXmlNodeModelIndex@@QAE@XZ" PURGE="0" COMMENT="" />
    <EXPORT ORDINAL="27" NAME="??0QXmlQuery@@QAE@ABV0@@Z" PURGE="4" COMMENT="" />
    <EXPORT ORDINAL="28" NAME="??0QXmlQuery@@QAE@ABVQXmlNamePool@@@Z" PURGE="4" COMMENT="" />
    <EXPORT ORDINAL="29" NAME="??0QXmlQuery@@QAE@W4QueryLanguage@0@ABVQXmlNamePool@@@Z" PURGE="8" COMMENT="" />
    <EXPORT ORDINAL="30" NAME="??0QXmlQuery@@QAE@XZ" PURGE="0" COMMENT="" />
    <EXPORT ORDINAL="31" NAME="??0QXmlResultItems@@QAE@XZ" PURGE="0" COMMENT="" />
    <EXPORT ORDINAL="32" NAME="??0QXmlSchema@@QAE@ABV0@@Z" PURGE="4" COMMENT="" />
    <EXPORT ORDINAL="33" NAME="??0QXmlSchema@@QAE@XZ" PURGE="0" COMMENT="" />
    <EXPORT ORDINAL="34" NAME="??0QXmlSchemaValidator@@QAE@ABVQXmlSchema@@@Z" PURGE="4" COMMENT="" />
    <EXPORT ORDINAL="35" NAME="??0QXmlSchemaValidator@@QAE@XZ" PURGE="0" COMMENT="" />
    <EXPORT ORDINAL="36" NAME="??0QXmlSerializer@@IAE@PAVQAbstractXmlReceiverPrivate@@@Z" PURGE="4" COMMENT="" />
    <EXPORT ORDINAL="37" NAME="??0QXmlSerializer@@QAE@ABVQXmlQuery@@PAVQIODevice@@@Z" PURGE="8" COMMENT="" />
    <EXPORT ORDINAL="38" NAME="??1QAbstractMessageHandler@@UAE@XZ" PURGE="-1" COMMENT="" />
    <EXPORT ORDINAL="39" NAME="??1QAbstractUriResolver@@UAE@XZ" PURGE="-1" COMMENT="" />
    <EXPORT ORDINAL="40" NAME="??1QAbstractXmlNodeModel@@UAE@XZ" PURGE="0" COMMENT="" />
    <EXPORT ORDINAL="41" NAME="??1QAbstractXmlReceiver@@UAE@XZ" PURGE="0" COMMENT="" />
    <EXPORT ORDINAL="42" NAME="??1QSimpleXmlNodeModel@@UAE@XZ" PURGE="0" COMMENT="" />
    <EXPORT ORDINAL="43" NAME="??1QSourceLocation@@QAE@XZ" PURGE="-1" COMMENT="" />
    <EXPORT ORDINAL="44" NAME="??1QXmlFormatter@@UAE@XZ" PURGE="0" COMMENT="" />
    <EXPORT ORDINAL="45" NAME="??1QXmlItem@@QAE@XZ" PURGE="0" COMMENT="" />
    <EXPORT ORDINAL="46" NAME="??1QXmlNamePool@@QAE@XZ" PURGE="0" COMMENT="" />
    <EXPORT ORDINAL="47" NAME="??1QXmlQuery@@QAE@XZ" PURGE="0" COMMENT="" />
    <EXPORT ORDINAL="48" NAME="??1QXmlResultItems@@UAE@XZ" PURGE="0" COMMENT="" />
    <EXPORT ORDINAL="49" NAME="??1QXmlSchema@@QAE@XZ" PURGE="0" COMMENT="" />
    <EXPORT ORDINAL="50" NAME="??1QXmlSchemaValidator@@QAE@XZ" PURGE="0" COMMENT="" />
    <EXPORT ORDINAL="51" NAME="??1QXmlSerializer@@UAE@XZ" PURGE="0" COMMENT="" />
    <EXPORT ORDINAL="52" NAME="??4QSourceLocation@@QAEAAV0@ABV0@@Z" PURGE="4" COMMENT="" />
    <EXPORT ORDINAL="53" NAME="??4QXmlItem@@QAEAAV0@ABV0@@Z" PURGE="4" COMMENT="" />
    <EXPORT ORDINAL="54" NAME="??4QXmlName@@QAEAAV0@ABV0@@Z" PURGE="4" COMMENT="" />
    <EXPORT ORDINAL="55" NAME="??4QXmlNamePool@@QAEAAV0@ABV0@@Z" PURGE="4" COMMENT="" />
    <EXPORT ORDINAL="56" NAME="??4QXmlNodeModelIndex@@QAEAAV0@ABV0@@Z" PURGE="4" COMMENT="" />
    <EXPORT ORDINAL="57" NAME="??4QXmlQuery@@QAEAAV0@ABV0@@Z" PURGE="4" COMMENT="" />
    <EXPORT ORDINAL="58" NAME="??4QXmlSchema@@QAEAAV0@ABV0@@Z" PURGE="4" COMMENT="" />
    <EXPORT ORDINAL="59" NAME="??6@YA?AVQDebug@@V0@ABVQSourceLocation@@@Z" PURGE="0" COMMENT="" />
    <EXPORT ORDINAL="60" NAME="??8QSourceLocation@@QBE_NABV0@@Z" PURGE="4" COMMENT="" />
    <EXPORT ORDINAL="61" NAME="??8QXmlName@@QBE_NABV0@@Z" PURGE="4" COMMENT="" />
    <EXPORT ORDINAL="62" NAME="??8QXmlNodeModelIndex@@QBE_NABV0@@Z" PURGE="4" COMMENT="" />
    <EXPORT ORDINAL="63" NAME="??9QSourceLocation@@QBE_NABV0@@Z" PURGE="4" COMMENT="" />
    <EXPORT ORDINAL="64" NAME="??9QXmlName@@QBE_NABV0@@Z" PURGE="4" COMMENT="" />
    <EXPORT ORDINAL="65" NAME="??9QXmlNodeModelIndex@@QBE_NABV0@@Z" PURGE="4" COMMENT="" />
    <EXPORT ORDINAL="66" NAME="??_7QAbstractMessageHandler@@6B@" PURGE="-1" COMMENT="" />
    <EXPORT ORDINAL="67" NAME="??_7QAbstractUriResolver@@6B@" PURGE="-1" COMMENT="" />
    <EXPORT ORDINAL="68" NAME="??_7QAbstractXmlNodeModel@@6B@" PURGE="-1" COMMENT="" />
    <EXPORT ORDINAL="69" NAME="??_7QAbstractXmlReceiver@@6B@" PURGE="-1" COMMENT="" />
    <EXPORT ORDINAL="70" NAME="??_7QSimpleXmlNodeModel@@6B@" PURGE="-1" COMMENT="" />
    <EXPORT ORDINAL="71" NAME="??_7QXmlFormatter@@6B@" PURGE="-1" COMMENT="" />
    <EXPORT ORDINAL="72" NAME="??_7QXmlResultItems@@6B@" PURGE="-1" COMMENT="" />
    <EXPORT ORDINAL="73" NAME="??_7QXmlSerializer@@6B@" PURGE="-1" COMMENT="" />
    <EXPORT ORDINAL="74" NAME="??_FQAbstractMessageHandler@@QAEXXZ" PURGE="0" COMMENT="" />
    <EXPORT ORDINAL="75" NAME="??_FQAbstractUriResolver@@QAEXXZ" PURGE="0" COMMENT="" />
    <EXPORT ORDINAL="76" NAME="?additionalData@QXmlNodeModelIndex@@QBE_JXZ" PURGE="0" COMMENT="" />
    <EXPORT ORDINAL="77" NAME="?atDocumentRoot@QXmlSerializer@@ABE_NXZ" PURGE="0" COMMENT="" />
    <EXPORT ORDINAL="78" NAME="?atomicValue@QXmlFormatter@@UAEXABVQVariant@@@Z" PURGE="4" COMMENT="" />
    <EXPORT ORDINAL="79" NAME="?atomicValue@QXmlSerializer@@UAEXABVQVariant@@@Z" PURGE="4" COMMENT="" />
    <EXPORT ORDINAL="80" NAME="?attribute@QXmlFormatter@@UAEXABVQXmlName@@ABVQStringRef@@@Z" PURGE="8" COMMENT="" />
    <EXPORT ORDINAL="81" NAME="?attribute@QXmlSerializer@@UAEXABVQXmlName@@ABVQStringRef@@@Z" PURGE="8" COMMENT="" />
    <EXPORT ORDINAL="82" NAME="?baseUri@QSimpleXmlNodeModel@@UBE?AVQUrl@@ABVQXmlNodeModelIndex@@@Z" PURGE="8" COMMENT="" />
    <EXPORT ORDINAL="83" NAME="?baseUri@QXmlNodeModelIndex@@QBE?AVQUrl@@XZ" PURGE="4" COMMENT="" />
    <EXPORT ORDINAL="84" NAME="?bindVariable@QXmlQuery@@QAEXABVQString@@ABV1@@Z" PURGE="8" COMMENT="" />
    <EXPORT ORDINAL="85" NAME="?bindVariable@QXmlQuery@@QAEXABVQString@@ABVQXmlItem@@@Z" PURGE="8" COMMENT="" />
    <EXPORT ORDINAL="86" NAME="?bindVariable@QXmlQuery@@QAEXABVQString@@PAVQIODevice@@@Z" PURGE="8" COMMENT="" />
    <EXPORT ORDINAL="87" NAME="?bindVariable@QXmlQuery@@QAEXABVQXmlName@@ABV1@@Z" PURGE="8" COMMENT="" />
    <EXPORT ORDINAL="88" NAME="?bindVariable@QXmlQuery@@QAEXABVQXmlName@@ABVQXmlItem@@@Z" PURGE="8" COMMENT="" />
    <EXPORT ORDINAL="89" NAME="?bindVariable@QXmlQuery@@QAEXABVQXmlName@@PAVQIODevice@@@Z" PURGE="8" COMMENT="" />
    <EXPORT ORDINAL="90" NAME="?characters@QXmlFormatter@@UAEXABVQStringRef@@@Z" PURGE="4" COMMENT="" />
    <EXPORT ORDINAL="91" NAME="?characters@QXmlSerializer@@UAEXABVQStringRef@@@Z" PURGE="4" COMMENT="" />
    <EXPORT ORDINAL="92" NAME="?code@QXmlName@@QBE_JXZ" PURGE="0" COMMENT="" />
    <EXPORT ORDINAL="93" NAME="?codec@QXmlSerializer@@QBEPBVQTextCodec@@XZ" PURGE="0" COMMENT="" />
    <EXPORT ORDINAL="94" NAME="?column@QSourceLocation@@QBE_JXZ" PURGE="0" COMMENT="" />
    <EXPORT ORDINAL="95" NAME="?comment@QXmlFormatter@@UAEXABVQString@@@Z" PURGE="4" COMMENT="" />
    <EXPORT ORDINAL="96" NAME="?comment@QXmlSerializer@@UAEXABVQString@@@Z" PURGE="4" COMMENT="" />
    <EXPORT ORDINAL="97" NAME="?compareOrder@QXmlNodeModelIndex@@QBE?AW4DocumentOrder@1@ABV1@@Z" PURGE="4" COMMENT="" />
    <EXPORT ORDINAL="98" NAME="?copyNodeTo@QAbstractXmlNodeModel@@UBEXABVQXmlNodeModelIndex@@QAVQAbstractXmlReceiver@@ABV?$QFlags@W4NodeCopySetting@QAbstractXmlNodeModel@@@@@Z" PURGE="12" COMMENT="" />
    <EXPORT ORDINAL="99" NAME="?create@QXmlNodeModelIndex@@CA?AV1@_JQBVQAbstractXmlNodeModel@@0@Z" PURGE="0" COMMENT="" />
    <EXPORT ORDINAL="100" NAME="?create@QXmlNodeModelIndex@@CA?AV1@_JQBVQAbstractXmlNodeModel@@@Z" PURGE="0" COMMENT="" />
    <EXPORT ORDINAL="101" NAME="?createIndex@QAbstractXmlNodeModel@@IBE?AVQXmlNodeModelIndex@@PAX_J@Z" PURGE="16" COMMENT="" />
    <EXPORT ORDINAL="102" NAME="?createIndex@QAbstractXmlNodeModel@@IBE?AVQXmlNodeModelIndex@@_J0@Z" PURGE="20" COMMENT="" />
    <EXPORT ORDINAL="103" NAME="?createIndex@QAbstractXmlNodeModel@@IBE?AVQXmlNodeModelIndex@@_J@Z" PURGE="12" COMMENT="" />
    <EXPORT ORDINAL="104" NAME="?current@QXmlResultItems@@QBE?AVQXmlItem@@XZ" PURGE="4" COMMENT="" />
    <EXPORT ORDINAL="105" NAME="?d_func@QAbstractMessageHandler@@AAEPAVQAbstractMessageHandlerPrivate@@XZ" PURGE="0" COMMENT="" />
    <EXPORT ORDINAL="106" NAME="?d_func@QAbstractMessageHandler@@ABEPBVQAbstractMessageHandlerPrivate@@XZ" PURGE="0" COMMENT="" />
    <EXPORT ORDINAL="107" NAME="?d_func@QAbstractUriResolver@@AAEPAVQAbstractUriResolverPrivate@@XZ" PURGE="0" COMMENT="" />
    <EXPORT ORDINAL="108" NAME="?d_func@QAbstractUriResolver@@ABEPBVQAbstractUriResolverPrivate@@XZ" PURGE="0" COMMENT="" />
    <EXPORT ORDINAL="109" NAME="?d_func@QSimpleXmlNodeModel@@AAEPAVQSimpleXmlNodeModelPrivate@@XZ" PURGE="0" COMMENT="" />
    <EXPORT ORDINAL="110" NAME="?d_func@QSimpleXmlNodeModel@@ABEPBVQSimpleXmlNodeModelPrivate@@XZ" PURGE="0" COMMENT="" />
    <EXPORT ORDINAL="111" NAME="?d_func@QXmlFormatter@@AAEPAVQXmlFormatterPrivate@@XZ" PURGE="0" COMMENT="" />
    <EXPORT ORDINAL="112" NAME="?d_func@QXmlFormatter@@ABEPBVQXmlFormatterPrivate@@XZ" PURGE="0" COMMENT="" />
    <EXPORT ORDINAL="113" NAME="?d_func@QXmlResultItems@@AAEPAVQXmlResultItemsPrivate@@XZ" PURGE="0" COMMENT="" />
    <EXPORT ORDINAL="114" NAME="?d_func@QXmlResultItems@@ABEPBVQXmlResultItemsPrivate@@XZ" PURGE="0" COMMENT="" />
    <EXPORT ORDINAL="115" NAME="?d_func@QXmlSerializer@@AAEPAVQXmlSerializerPrivate@@XZ" PURGE="0" COMMENT="" />
    <EXPORT ORDINAL="116" NAME="?d_func@QXmlSerializer@@ABEPBVQXmlSerializerPrivate@@XZ" PURGE="0" COMMENT="" />
    <EXPORT ORDINAL="117" NAME="?data@QXmlNodeModelIndex@@QBE_JXZ" PURGE="0" COMMENT="" />
    <EXPORT ORDINAL="118" NAME="?documentUri@QXmlNodeModelIndex@@QBE?AVQUrl@@XZ" PURGE="4" COMMENT="" />
    <EXPORT ORDINAL="119" NAME="?documentUri@QXmlSchema@@QBE?AVQUrl@@XZ" PURGE="4" COMMENT="" />
    <EXPORT ORDINAL="120" NAME="?elementById@QSimpleXmlNodeModel@@UBE?AVQXmlNodeModelIndex@@ABVQXmlName@@@Z" PURGE="8" COMMENT="" />
    <EXPORT ORDINAL="121" NAME="?endDocument@QXmlFormatter@@UAEXXZ" PURGE="0" COMMENT="" />
    <EXPORT ORDINAL="122" NAME="?endDocument@QXmlSerializer@@UAEXXZ" PURGE="0" COMMENT="" />
    <EXPORT ORDINAL="123" NAME="?endElement@QXmlFormatter@@UAEXXZ" PURGE="0" COMMENT="" />
    <EXPORT ORDINAL="124" NAME="?endElement@QXmlSerializer@@UAEXXZ" PURGE="0" COMMENT="" />
    <EXPORT ORDINAL="125" NAME="?endOfSequence@QXmlFormatter@@UAEXXZ" PURGE="0" COMMENT="" />
    <EXPORT ORDINAL="126" NAME="?endOfSequence@QXmlSerializer@@UAEXXZ" PURGE="0" COMMENT="" />
    <EXPORT ORDINAL="127" NAME="?evaluateTo@QXmlQuery@@QBEXPAVQXmlResultItems@@@Z" PURGE="4" COMMENT="" />
    <EXPORT ORDINAL="128" NAME="?evaluateTo@QXmlQuery@@QBE_NPAVQAbstractXmlReceiver@@@Z" PURGE="4" COMMENT="" />
    <EXPORT ORDINAL="129" NAME="?evaluateTo@QXmlQuery@@QBE_NPAVQIODevice@@@Z" PURGE="4" COMMENT="" />
    <EXPORT ORDINAL="130" NAME="?evaluateTo@QXmlQuery@@QBE_NPAVQString@@@Z" PURGE="4" COMMENT="" />
    <EXPORT ORDINAL="131" NAME="?evaluateTo@QXmlQuery@@QBE_NPAVQStringList@@@Z" PURGE="4" COMMENT="" />
    <EXPORT ORDINAL="132" NAME="?fromClarkName@QXmlName@@SA?AV1@ABVQString@@ABVQXmlNamePool@@@Z" PURGE="0" COMMENT="" />
    <EXPORT ORDINAL="133" NAME="?hasError@QXmlResultItems@@QBE_NXZ" PURGE="0" COMMENT="" />
    <EXPORT ORDINAL="134" NAME="?hasNamespace@QXmlName@@QBE_NXZ" PURGE="0" COMMENT="" />
    <EXPORT ORDINAL="135" NAME="?hasPrefix@QXmlName@@QBE_NXZ" PURGE="0" COMMENT="" />
    <EXPORT ORDINAL="136" NAME="?indentationDepth@QXmlFormatter@@QBEHXZ" PURGE="0" COMMENT="" />
    <EXPORT ORDINAL="137" NAME="?initialTemplateName@QXmlQuery@@QBE?AVQXmlName@@XZ" PURGE="4" COMMENT="" />
    <EXPORT ORDINAL="138" NAME="?internalIsAtomicValue@QXmlItem@@ABE_NXZ" PURGE="0" COMMENT="" />
    <EXPORT ORDINAL="139" NAME="?internalPointer@QXmlNodeModelIndex@@QBEPAXXZ" PURGE="0" COMMENT="" />
    <EXPORT ORDINAL="140" NAME="?is@QXmlNodeModelIndex@@QBE_NABV1@@Z" PURGE="4" COMMENT="" />
    <EXPORT ORDINAL="141" NAME="?isAtomicValue@QXmlItem@@QBE_NXZ" PURGE="0" COMMENT="" />
    <EXPORT ORDINAL="142" NAME="?isBindingInScope@QXmlSerializer@@ABE_NVQXmlName@@@Z" PURGE="8" COMMENT="" />
    <EXPORT ORDINAL="143" NAME="?isDeepEqual@QAbstractXmlNodeModel@@UBE_NABVQXmlNodeModelIndex@@0@Z" PURGE="8" COMMENT="" />
    <EXPORT ORDINAL="144" NAME="?isDeepEqual@QXmlNodeModelIndex@@QBE_NABV1@@Z" PURGE="4" COMMENT="" />
    <EXPORT ORDINAL="145" NAME="?isIgnorableInDeepEqual@QAbstractXmlNodeModel@@CA_NABVQXmlNodeModelIndex@@@Z" PURGE="0" COMMENT="" />
    <EXPORT ORDINAL="146" NAME="?isLexicallyEqual@QXmlName@@QBE_NABV1@@Z" PURGE="4" COMMENT="" />
    <EXPORT ORDINAL="147" NAME="?isNCName@QXmlName@@SA_NABVQString@@@Z" PURGE="-1" COMMENT="" />
    <EXPORT ORDINAL="148" NAME="?isNode@QXmlItem@@QBE_NXZ" PURGE="0" COMMENT="" />
    <EXPORT ORDINAL="149" NAME="?isNull@QSourceLocation@@QBE_NXZ" PURGE="0" COMMENT="" />
    <EXPORT ORDINAL="150" NAME="?isNull@QXmlItem@@QBE_NXZ" PURGE="0" COMMENT="" />
    <EXPORT ORDINAL="151" NAME="?isNull@QXmlName@@QBE_NXZ" PURGE="0" COMMENT="" />
    <EXPORT ORDINAL="152" NAME="?isNull@QXmlNodeModelIndex@@QBE_NXZ" PURGE="0" COMMENT="" />
    <EXPORT ORDINAL="153" NAME="?isValid@QXmlQuery@@QBE_NXZ" PURGE="0" COMMENT="" />
    <EXPORT ORDINAL="154" NAME="?isValid@QXmlSchema@@QBE_NXZ" PURGE="0" COMMENT="" />
    <EXPORT ORDINAL="155" NAME="?item@QAbstractXmlReceiver@@UAEXABVItem@QPatternist@@@Z" PURGE="4" COMMENT="" />
    <EXPORT ORDINAL="156" NAME="?item@QXmlFormatter@@UAEXABVItem@QPatternist@@@Z" PURGE="4" COMMENT="" />
    <EXPORT ORDINAL="157" NAME="?item@QXmlSerializer@@UAEXABVItem@QPatternist@@@Z" PURGE="4" COMMENT="" />
    <EXPORT ORDINAL="158" NAME="?iterate@QAbstractXmlNodeModel@@UBE?AV?$QExplicitlySharedDataPointer@V?$QAbstractXmlForwardIterator@VQXmlNodeModelIndex@@@@@@ABVQXmlNodeModelIndex@@W4Axis@3@@Z" PURGE="12" COMMENT="" />
    <EXPORT ORDINAL="159" NAME="?iterate@QXmlNodeModelIndex@@QBE?AV?$QExplicitlySharedDataPointer@V?$QAbstractXmlForwardIterator@VQXmlNodeModelIndex@@@@@@W4Axis@1@@Z" PURGE="8" COMMENT="" />
    <EXPORT ORDINAL="160" NAME="?kind@QXmlNodeModelIndex@@QBE?AW4NodeKind@1@XZ" PURGE="0" COMMENT="" />
    <EXPORT ORDINAL="161" NAME="?line@QSourceLocation@@QBE_JXZ" PURGE="0" COMMENT="" />
    <EXPORT ORDINAL="162" NAME="?load@QXmlSchema@@QAE_NABVQByteArray@@ABVQUrl@@@Z" PURGE="8" COMMENT="" />
    <EXPORT ORDINAL="163" NAME="?load@QXmlSchema@@QAE_NABVQUrl@@@Z" PURGE="4" COMMENT="" />
    <EXPORT ORDINAL="164" NAME="?load@QXmlSchema@@QAE_NPAVQIODevice@@ABVQUrl@@@Z" PURGE="8" COMMENT="" />
    <EXPORT ORDINAL="165" NAME="?localName@QXmlName@@QBE?AVQString@@ABVQXmlNamePool@@@Z" PURGE="8" COMMENT="" />
    <EXPORT ORDINAL="166" NAME="?localName@QXmlName@@QBEFXZ" PURGE="0" COMMENT="" />
    <EXPORT ORDINAL="167" NAME="?mapToSequence@QAbstractXmlNodeModel@@ABE?AV?$QExplicitlySharedDataPointer@V?$QAbstractXmlForwardIterator@VQXmlNodeModelIndex@@@@@@ABVQXmlNodeModelIndex@@ABV?$QExplicitlySharedDataPointer@VDynamicContext@QPatternist@@@@@Z" PURGE="12" COMMENT="" />
    <EXPORT ORDINAL="168" NAME="?message@QAbstractMessageHandler@@QAEXW4QtMsgType@@ABVQString@@ABVQUrl@@ABVQSourceLocation@@@Z" PURGE="16" COMMENT="" />
    <EXPORT ORDINAL="169" NAME="?messageHandler@QXmlQuery@@QBEPAVQAbstractMessageHandler@@XZ" PURGE="0" COMMENT="" />
    <EXPORT ORDINAL="170" NAME="?messageHandler@QXmlSchema@@QBEPAVQAbstractMessageHandler@@XZ" PURGE="0" COMMENT="" />
    <EXPORT ORDINAL="171" NAME="?messageHandler@QXmlSchemaValidator@@QBEPAVQAbstractMessageHandler@@XZ" PURGE="0" COMMENT="" />
    <EXPORT ORDINAL="172" NAME="?metaObject@QAbstractMessageHandler@@UBEPBUQMetaObject@@XZ" PURGE="0" COMMENT="" />
    <EXPORT ORDINAL="173" NAME="?metaObject@QAbstractUriResolver@@UBEPBUQMetaObject@@XZ" PURGE="0" COMMENT="" />
    <EXPORT ORDINAL="174" NAME="?model@QXmlNodeModelIndex@@QBEPBVQAbstractXmlNodeModel@@XZ" PURGE="0" COMMENT="" />
    <EXPORT ORDINAL="175" NAME="?name@QXmlNodeModelIndex@@QBE?AVQXmlName@@XZ" PURGE="4" COMMENT="" />
    <EXPORT ORDINAL="176" NAME="?namePool@QSimpleXmlNodeModel@@QBEAAVQXmlNamePool@@XZ" PURGE="0" COMMENT="" />
    <EXPORT ORDINAL="177" NAME="?namePool@QXmlQuery@@QBE?AVQXmlNamePool@@XZ" PURGE="4" COMMENT="" />
    <EXPORT ORDINAL="178" NAME="?namePool@QXmlSchema@@QBE?AVQXmlNamePool@@XZ" PURGE="4" COMMENT="" />
    <EXPORT ORDINAL="179" NAME="?namePool@QXmlSchemaValidator@@QBE?AVQXmlNamePool@@XZ" PURGE="4" COMMENT="" />
    <EXPORT ORDINAL="180" NAME="?namespaceBinding@QXmlSerializer@@UAEXABVQXmlName@@@Z" PURGE="4" COMMENT="" />
    <EXPORT ORDINAL="181" NAME="?namespaceBindings@QSimpleXmlNodeModel@@UBE?AV?$QVector@VQXmlName@@@@ABVQXmlNodeModelIndex@@@Z" PURGE="8" COMMENT="" />
    <EXPORT ORDINAL="182" NAME="?namespaceBindings@QXmlNodeModelIndex@@QBE?AV?$QVector@VQXmlName@@@@XZ" PURGE="4" COMMENT="" />
    <EXPORT ORDINAL="183" NAME="?namespaceForPrefix@QAbstractXmlNodeModel@@UBEFABVQXmlNodeModelIndex@@F@Z" PURGE="8" COMMENT="" />
    <EXPORT ORDINAL="184" NAME="?namespaceForPrefix@QXmlNodeModelIndex@@QBEFF@Z" PURGE="4" COMMENT="" />
    <EXPORT ORDINAL="185" NAME="?namespaceURI@QXmlName@@QBEFXZ" PURGE="0" COMMENT="" />
    <EXPORT ORDINAL="186" NAME="?namespaceUri@QXmlName@@QBE?AVQString@@ABVQXmlNamePool@@@Z" PURGE="8" COMMENT="" />
    <EXPORT ORDINAL="187" NAME="?networkAccessManager@QXmlQuery@@QBEPAVQNetworkAccessManager@@XZ" PURGE="0" COMMENT="" />
    <EXPORT ORDINAL="188" NAME="?networkAccessManager@QXmlSchema@@QBEPAVQNetworkAccessManager@@XZ" PURGE="0" COMMENT="" />
    <EXPORT ORDINAL="189" NAME="?networkAccessManager@QXmlSchemaValidator@@QBEPAVQNetworkAccessManager@@XZ" PURGE="0" COMMENT="" />
    <EXPORT ORDINAL="190" NAME="?next@QXmlResultItems@@QAE?AVQXmlItem@@XZ" PURGE="4" COMMENT="" />
    <EXPORT ORDINAL="191" NAME="?nodesByIdref@QSimpleXmlNodeModel@@UBE?AV?$QVector@VQXmlNodeModelIndex@@@@ABVQXmlName@@@Z" PURGE="8" COMMENT="" />
    <EXPORT ORDINAL="192" NAME="?outputDevice@QXmlSerializer@@QBEPAVQIODevice@@XZ" PURGE="0" COMMENT="" />
    <EXPORT ORDINAL="193" NAME="?prefix@QXmlName@@QBE?AVQString@@ABVQXmlNamePool@@@Z" PURGE="8" COMMENT="" />
    <EXPORT ORDINAL="194" NAME="?prefix@QXmlName@@QBEFXZ" PURGE="0" COMMENT="" />
    <EXPORT ORDINAL="195" NAME="?processingInstruction@QXmlFormatter@@UAEXABVQXmlName@@ABVQString@@@Z" PURGE="8" COMMENT="" />
    <EXPORT ORDINAL="196" NAME="?processingInstruction@QXmlSerializer@@UAEXABVQXmlName@@ABVQString@@@Z" PURGE="8" COMMENT="" />
    <EXPORT ORDINAL="197" NAME="?qHash@@YAIABVQSourceLocation@@@Z" PURGE="0" COMMENT="" />
    <EXPORT ORDINAL="198" NAME="?qHash@@YAIABVQXmlName@@@Z" PURGE="0" COMMENT="" />
    <EXPORT ORDINAL="199" NAME="?qHash@@YAIABVQXmlNodeModelIndex@@@Z" PURGE="0" COMMENT="" />
    <EXPORT ORDINAL="200" NAME="?qt_metacall@QAbstractMessageHandler@@UAEHW4Call@QMetaObject@@HPAPAX@Z" PURGE="-1" COMMENT="" />
    <EXPORT ORDINAL="201" NAME="?qt_metacall@QAbstractUriResolver@@UAEHW4Call@QMetaObject@@HPAPAX@Z" PURGE="-1" COMMENT="" />
    <EXPORT ORDINAL="202" NAME="?qt_metacast@QAbstractMessageHandler@@UAEPAXPBD@Z" PURGE="4" COMMENT="" />
    <EXPORT ORDINAL="203" NAME="?qt_metacast@QAbstractUriResolver@@UAEPAXPBD@Z" PURGE="4" COMMENT="" />
    <EXPORT ORDINAL="204" NAME="?queryLanguage@QXmlQuery@@QBE?AW4QueryLanguage@1@XZ" PURGE="0" COMMENT="" />
    <EXPORT ORDINAL="205" NAME="?reset@QXmlNodeModelIndex@@QAEXXZ" PURGE="0" COMMENT="" />
    <EXPORT ORDINAL="206" NAME="?root@QXmlNodeModelIndex@@QBE?AV1@XZ" PURGE="4" COMMENT="" />
    <EXPORT ORDINAL="207" NAME="?schema@QXmlSchemaValidator@@QBE?AVQXmlSchema@@XZ" PURGE="4" COMMENT="" />
    <EXPORT ORDINAL="208" NAME="?sendAsNode@QAbstractXmlReceiver@@IAEXABVItem@QPatternist@@@Z" PURGE="4" COMMENT="" />
    <EXPORT ORDINAL="209" NAME="?sendNamespaces@QAbstractXmlNodeModel@@UBEXABVQXmlNodeModelIndex@@QAVQAbstractXmlReceiver@@@Z" PURGE="8" COMMENT="" />
    <EXPORT ORDINAL="210" NAME="?sendNamespaces@QXmlNodeModelIndex@@QBEXQAVQAbstractXmlReceiver@@@Z" PURGE="4" COMMENT="" />
    <EXPORT ORDINAL="211" NAME="?sequencedTypedValue@QAbstractXmlNodeModel@@UBE?AV?$QExplicitlySharedDataPointer@V?$QAbstractXmlForwardIterator@VItem@QPatternist@@@@@@ABVQXmlNodeModelIndex@@@Z" PURGE="8" COMMENT="" />
    <EXPORT ORDINAL="212" NAME="?sequencedTypedValue@QXmlNodeModelIndex@@QBE?AV?$QExplicitlySharedDataPointer@V?$QAbstractXmlForwardIterator@VItem@QPatternist@@@@@@XZ" PURGE="4" COMMENT="" />
    <EXPORT ORDINAL="213" NAME="?setCodec@QXmlSerializer@@QAEXPBVQTextCodec@@@Z" PURGE="4" COMMENT="" />
    <EXPORT ORDINAL="214" NAME="?setColumn@QSourceLocation@@QAEX_J@Z" PURGE="8" COMMENT="" />
    <EXPORT ORDINAL="215" NAME="?setFocus@QXmlQuery@@QAEXABVQXmlItem@@@Z" PURGE="4" COMMENT="" />
    <EXPORT ORDINAL="216" NAME="?setFocus@QXmlQuery@@QAE_NABVQString@@@Z" PURGE="4" COMMENT="" />
    <EXPORT ORDINAL="217" NAME="?setFocus@QXmlQuery@@QAE_NABVQUrl@@@Z" PURGE="4" COMMENT="" />
    <EXPORT ORDINAL="218" NAME="?setFocus@QXmlQuery@@QAE_NPAVQIODevice@@@Z" PURGE="4" COMMENT="" />
    <EXPORT ORDINAL="219" NAME="?setIndentationDepth@QXmlFormatter@@QAEXH@Z" PURGE="4" COMMENT="" />
    <EXPORT ORDINAL="220" NAME="?setInitialTemplateName@QXmlQuery@@QAEXABVQString@@@Z" PURGE="4" COMMENT="" />
    <EXPORT ORDINAL="221" NAME="?setInitialTemplateName@QXmlQuery@@QAEXABVQXmlName@@@Z" PURGE="4" COMMENT="" />
    <EXPORT ORDINAL="222" NAME="?setLine@QSourceLocation@@QAEX_J@Z" PURGE="8" COMMENT="" />
    <EXPORT ORDINAL="223" NAME="?setLocalName@QXmlName@@QAEXF@Z" PURGE="4" COMMENT="" />
    <EXPORT ORDINAL="224" NAME="?setMessageHandler@QXmlQuery@@QAEXPAVQAbstractMessageHandler@@@Z" PURGE="4" COMMENT="" />
    <EXPORT ORDINAL="225" NAME="?setMessageHandler@QXmlSchema@@QAEXPAVQAbstractMessageHandler@@@Z" PURGE="4" COMMENT="" />
    <EXPORT ORDINAL="226" NAME="?setMessageHandler@QXmlSchemaValidator@@QAEXPAVQAbstractMessageHandler@@@Z" PURGE="4" COMMENT="" />
    <EXPORT ORDINAL="227" NAME="?setNamespaceURI@QXmlName@@QAEXF@Z" PURGE="4" COMMENT="" />
    <EXPORT ORDINAL="228" NAME="?setNetworkAccessManager@QXmlQuery@@QAEXPAVQNetworkAccessManager@@@Z" PURGE="4" COMMENT="" />
    <EXPORT ORDINAL="229" NAME="?setNetworkAccessManager@QXmlSchema@@QAEXPAVQNetworkAccessManager@@@Z" PURGE="4" COMMENT="" />
    <EXPORT ORDINAL="230" NAME="?setNetworkAccessManager@QXmlSchemaValidator@@QAEXPAVQNetworkAccessManager@@@Z" PURGE="4" COMMENT="" />
    <EXPORT ORDINAL="231" NAME="?setPrefix@QXmlName@@QAEXF@Z" PURGE="4" COMMENT="" />
    <EXPORT ORDINAL="232" NAME="?setQuery@QXmlQuery@@QAEXABVQString@@ABVQUrl@@@Z" PURGE="8" COMMENT="" />
    <EXPORT ORDINAL="233" NAME="?setQuery@QXmlQuery@@QAEXABVQUrl@@0@Z" PURGE="8" COMMENT="" />
    <EXPORT ORDINAL="234" NAME="?setQuery@QXmlQuery@@QAEXPAVQIODevice@@ABVQUrl@@@Z" PURGE="8" COMMENT="" />
    <EXPORT ORDINAL="235" NAME="?setSchema@QXmlSchemaValidator@@QAEXABVQXmlSchema@@@Z" PURGE="4" COMMENT="" />
    <EXPORT ORDINAL="236" NAME="?setUri@QSourceLocation@@QAEXABVQUrl@@@Z" PURGE="-1" COMMENT="" />
    <EXPORT ORDINAL="237" NAME="?setUriResolver@QXmlQuery@@QAEXPBVQAbstractUriResolver@@@Z" PURGE="4" COMMENT="" />
    <EXPORT ORDINAL="238" NAME="?setUriResolver@QXmlSchema@@QAEXPBVQAbstractUriResolver@@@Z" PURGE="4" COMMENT="" />
    <EXPORT ORDINAL="239" NAME="?setUriResolver@QXmlSchemaValidator@@QAEXPBVQAbstractUriResolver@@@Z" PURGE="4" COMMENT="" />
    <EXPORT ORDINAL="240" NAME="?sourceLocation@QAbstractXmlNodeModel@@QBE?AVQSourceLocation@@ABVQXmlNodeModelIndex@@@Z" PURGE="8" COMMENT="" />
    <EXPORT ORDINAL="241" NAME="?startContent@QXmlSerializer@@AAEXXZ" PURGE="0" COMMENT="" />
    <EXPORT ORDINAL="242" NAME="?startDocument@QXmlFormatter@@UAEXXZ" PURGE="0" COMMENT="" />
    <EXPORT ORDINAL="243" NAME="?startDocument@QXmlSerializer@@UAEXXZ" PURGE="0" COMMENT="" />
    <EXPORT ORDINAL="244" NAME="?startElement@QXmlFormatter@@UAEXABVQXmlName@@@Z" PURGE="4" COMMENT="" />
    <EXPORT ORDINAL="245" NAME="?startElement@QXmlSerializer@@UAEXABVQXmlName@@@Z" PURGE="4" COMMENT="" />
    <EXPORT ORDINAL="246" NAME="?startFormattingContent@QXmlFormatter@@AAEXXZ" PURGE="0" COMMENT="" />
    <EXPORT ORDINAL="247" NAME="?startOfSequence@QXmlFormatter@@UAEXXZ" PURGE="0" COMMENT="" />
    <EXPORT ORDINAL="248" NAME="?startOfSequence@QXmlSerializer@@UAEXXZ" PURGE="0" COMMENT="" />
    <EXPORT ORDINAL="249" NAME="?staticMetaObject@QAbstractMessageHandler@@2UQMetaObject@@B" PURGE="-1" COMMENT="" />
    <EXPORT ORDINAL="250" NAME="?staticMetaObject@QAbstractUriResolver@@2UQMetaObject@@B" PURGE="-1" COMMENT="" />
    <EXPORT ORDINAL="251" NAME="?stringValue@QSimpleXmlNodeModel@@UBE?AVQString@@ABVQXmlNodeModelIndex@@@Z" PURGE="8" COMMENT="" />
    <EXPORT ORDINAL="252" NAME="?stringValue@QXmlNodeModelIndex@@QBE?AVQString@@XZ" PURGE="4" COMMENT="" />
    <EXPORT ORDINAL="253" NAME="?toAtomicValue@QXmlItem@@QBE?AVQVariant@@XZ" PURGE="4" COMMENT="" />
    <EXPORT ORDINAL="254" NAME="?toClarkName@QXmlName@@QBE?AVQString@@ABVQXmlNamePool@@@Z" PURGE="8" COMMENT="" />
    <EXPORT ORDINAL="255" NAME="?toNodeModelIndex@QXmlItem@@QBE?AVQXmlNodeModelIndex@@XZ" PURGE="4" COMMENT="" />
    <EXPORT ORDINAL="256" NAME="?tr@QAbstractMessageHandler@@SA?AVQString@@PBD0@Z" PURGE="0" COMMENT="" />
    <EXPORT ORDINAL="257" NAME="?tr@QAbstractMessageHandler@@SA?AVQString@@PBD0H@Z" PURGE="0" COMMENT="" />
    <EXPORT ORDINAL="258" NAME="?tr@QAbstractUriResolver@@SA?AVQString@@PBD0@Z" PURGE="0" COMMENT="" />
    <EXPORT ORDINAL="259" NAME="?tr@QAbstractUriResolver@@SA?AVQString@@PBD0H@Z" PURGE="0" COMMENT="" />
    <EXPORT ORDINAL="260" NAME="?trUtf8@QAbstractMessageHandler@@SA?AVQString@@PBD0@Z" PURGE="0" COMMENT="" />
    <EXPORT ORDINAL="261" NAME="?trUtf8@QAbstractMessageHandler@@SA?AVQString@@PBD0H@Z" PURGE="0" COMMENT="" />
    <EXPORT ORDINAL="262" NAME="?trUtf8@QAbstractUriResolver@@SA?AVQString@@PBD0@Z" PURGE="0" COMMENT="" />
    <EXPORT ORDINAL="263" NAME="?trUtf8@QAbstractUriResolver@@SA?AVQString@@PBD0H@Z" PURGE="0" COMMENT="" />
    <EXPORT ORDINAL="264" NAME="?type@QAbstractXmlNodeModel@@UBE?AV?$QExplicitlySharedDataPointer@VItemType@QPatternist@@@@ABVQXmlNodeModelIndex@@@Z" PURGE="8" COMMENT="" />
    <EXPORT ORDINAL="265" NAME="?type@QXmlNodeModelIndex@@QBE?AV?$QExplicitlySharedDataPointer@VItemType@QPatternist@@@@XZ" PURGE="4" COMMENT="" />
    <EXPORT ORDINAL="266" NAME="?uri@QSourceLocation@@QBE?AVQUrl@@XZ" PURGE="4" COMMENT="" />
    <EXPORT ORDINAL="267" NAME="?uriResolver@QXmlQuery@@QBEPBVQAbstractUriResolver@@XZ" PURGE="0" COMMENT="" />
    <EXPORT ORDINAL="268" NAME="?uriResolver@QXmlSchema@@QBEPBVQAbstractUriResolver@@XZ" PURGE="0" COMMENT="" />
    <EXPORT ORDINAL="269" NAME="?uriResolver@QXmlSchemaValidator@@QBEPBVQAbstractUriResolver@@XZ" PURGE="0" COMMENT="" />
    <EXPORT ORDINAL="270" NAME="?validate@QXmlSchemaValidator@@QBE_NABVQByteArray@@ABVQUrl@@@Z" PURGE="8" COMMENT="" />
    <EXPORT ORDINAL="271" NAME="?validate@QXmlSchemaValidator@@QBE_NABVQUrl@@@Z" PURGE="4" COMMENT="" />
    <EXPORT ORDINAL="272" NAME="?validate@QXmlSchemaValidator@@QBE_NPAVQIODevice@@ABVQUrl@@@Z" PURGE="8" COMMENT="" />
    <EXPORT ORDINAL="273" NAME="?whitespaceOnly@QAbstractXmlReceiver@@UAEXABVQStringRef@@@Z" PURGE="4" COMMENT="" />
    <EXPORT ORDINAL="274" NAME="?write@QXmlSerializer@@AAEXABVQString@@@Z" PURGE="4" COMMENT="" />
    <EXPORT ORDINAL="275" NAME="?write@QXmlSerializer@@AAEXABVQXmlName@@@Z" PURGE="4" COMMENT="" />
    <EXPORT ORDINAL="276" NAME="?write@QXmlSerializer@@AAEXQBD@Z" PURGE="-1" COMMENT="" />
    <EXPORT ORDINAL="277" NAME="?writeEscaped@QXmlSerializer@@AAEXABVQString@@@Z" PURGE="4" COMMENT="" />
    <EXPORT ORDINAL="278" NAME="?writeEscapedAttribute@QXmlSerializer@@AAEXABVQString@@@Z" PURGE="4" COMMENT="" />
</LIBRARY>

