<?xml version="1.0" encoding="UTF-8"?>
<LIBRARY NAME="rescdl.dll" PATH="/DLLArchive/etc/RESCDL.DLL" DATE="Fri Jul 03 22:11:38 CEST 2020" VERSION="16&quot;.&quot;00&quot;.0.&quot;12&quot;">
    <EXPORT ORDINAL="1" NAME="??0CDLListBox@@QAE@XZ" PURGE="0" COMMENT="" />
    <EXPORT ORDINAL="2" NAME="??0CHdrButton@@QAE@XZ" PURGE="0" COMMENT="" />
    <EXPORT ORDINAL="3" NAME="??0CInfoButton@@QAE@XZ" PURGE="0" COMMENT="" />
    <EXPORT ORDINAL="4" NAME="??0CNortonListClass@@QAE@XZ" PURGE="0" COMMENT="" />
    <EXPORT ORDINAL="5" NAME="??0CRescueDriveList@@QAE@XZ" PURGE="0" COMMENT="" />
    <EXPORT ORDINAL="6" NAME="??0CRescueDriveListExp@@QAE@XZ" PURGE="0" COMMENT="" />
    <EXPORT ORDINAL="7" NAME="??1CDLListBox@@UAE@XZ" PURGE="0" COMMENT="" />
    <EXPORT ORDINAL="8" NAME="??1CHdrButton@@UAE@XZ" PURGE="0" COMMENT="" />
    <EXPORT ORDINAL="9" NAME="??1CInfoButton@@UAE@XZ" PURGE="0" COMMENT="" />
    <EXPORT ORDINAL="10" NAME="??1CNortonListClass@@UAE@XZ" PURGE="0" COMMENT="" />
    <EXPORT ORDINAL="11" NAME="??1CRescueDriveList@@UAE@XZ" PURGE="0" COMMENT="" />
    <EXPORT ORDINAL="12" NAME="??1CRescueDriveListExp@@UAE@XZ" PURGE="0" COMMENT="" />
    <EXPORT ORDINAL="13" NAME="??_7CDLListBox@@6B@" PURGE="-1" COMMENT="" />
    <EXPORT ORDINAL="14" NAME="??_7CHdrButton@@6B@" PURGE="-1" COMMENT="" />
    <EXPORT ORDINAL="15" NAME="??_7CInfoButton@@6B@" PURGE="-1" COMMENT="" />
    <EXPORT ORDINAL="16" NAME="??_7CNortonListClass@@6B@" PURGE="-1" COMMENT="" />
    <EXPORT ORDINAL="17" NAME="??_7CRescueDriveList@@6B@" PURGE="-1" COMMENT="" />
    <EXPORT ORDINAL="18" NAME="??_7CRescueDriveListExp@@6B@" PURGE="-1" COMMENT="" />
    <EXPORT ORDINAL="19" NAME="?AddDriveToList@CRescueDriveList@@IAEHDPAUNDLVOLINFO@@@Z" PURGE="8" COMMENT="" />
    <EXPORT ORDINAL="20" NAME="?AddDrives@CRescueDriveList@@QAEHPBD@Z" PURGE="4" COMMENT="" />
    <EXPORT ORDINAL="21" NAME="?AddItemBitmap@CNortonListClass@@QAEHPAUHBITMAP__@@0@Z" PURGE="8" COMMENT="" />
    <EXPORT ORDINAL="22" NAME="?AddItemBitmap@CNortonListClass@@QAEHPAVCBitmap@@0@Z" PURGE="8" COMMENT="" />
    <EXPORT ORDINAL="23" NAME="?AddListItem@CNortonListClass@@UAEHPADH@Z" PURGE="8" COMMENT="" />
    <EXPORT ORDINAL="24" NAME="?AddNewItem@CDLListBox@@QAEHPBD@Z" PURGE="4" COMMENT="" />
    <EXPORT ORDINAL="25" NAME="?AdjustSize@CNortonListClass@@MAEHXZ" PURGE="0" COMMENT="" />
    <EXPORT ORDINAL="26" NAME="?AdjustSize@CRescueDriveList@@MAEHXZ" PURGE="0" COMMENT="" />
    <EXPORT ORDINAL="27" NAME="?AutoFillDriveList@CRescueDriveList@@UAEHK@Z" PURGE="4" COMMENT="" />
    <EXPORT ORDINAL="28" NAME="?CalcSizes@CNortonListClass@@MAEHPAUtagCREATESTRUCTA@@@Z" PURGE="4" COMMENT="" />
    <EXPORT ORDINAL="29" NAME="?CalcSizes@CRescueDriveList@@MAEHPAUtagCREATESTRUCTA@@@Z" PURGE="4" COMMENT="" />
    <EXPORT ORDINAL="30" NAME="?CopyState@CDLListBox@@QAEHPAV1@@Z" PURGE="4" COMMENT="" />
    <EXPORT ORDINAL="31" NAME="?Create@CDLListBox@@UAEHKABUtagRECT@@PAVCWnd@@I@Z" PURGE="16" COMMENT="" />
    <EXPORT ORDINAL="32" NAME="?Create@CHdrButton@@UAEHPBDKABUtagRECT@@PAVCWnd@@I@Z" PURGE="20" COMMENT="" />
    <EXPORT ORDINAL="33" NAME="?Create@CInfoButton@@UAEHPBDKABUtagRECT@@PAVCWnd@@I@Z" PURGE="20" COMMENT="" />
    <EXPORT ORDINAL="34" NAME="?CreateInfoButton@CDLListBox@@IAEHHPBD@Z" PURGE="8" COMMENT="" />
    <EXPORT ORDINAL="35" NAME="?DeleteItem@CRescueDriveList@@UAEHH@Z" PURGE="4" COMMENT="" />
    <EXPORT ORDINAL="36" NAME="?DrawCheckBox@CNortonListClass@@IAEHPAVCDC@@PAUtagRECT@@I@Z" PURGE="12" COMMENT="" />
    <EXPORT ORDINAL="37" NAME="?DrawItem@CHdrButton@@UAEXPAUtagDRAWITEMSTRUCT@@@Z" PURGE="4" COMMENT="" />
    <EXPORT ORDINAL="38" NAME="?DrawItem@CInfoButton@@UAEXPAUtagDRAWITEMSTRUCT@@@Z" PURGE="4" COMMENT="" />
    <EXPORT ORDINAL="39" NAME="?DrawRadioButton@CNortonListClass@@IAEHPAVCDC@@PAUtagRECT@@I@Z" PURGE="12" COMMENT="" />
    <EXPORT ORDINAL="40" NAME="?DriveLetterToIndex@CRescueDriveList@@UAEHD@Z" PURGE="4" COMMENT="" />
    <EXPORT ORDINAL="41" NAME="?GetAllDrives@CRescueDriveList@@QAEHPADI@Z" PURGE="8" COMMENT="" />
    <EXPORT ORDINAL="42" NAME="?GetCaretIndex@CRescueDriveList@@QAEHXZ" PURGE="0" COMMENT="" />
    <EXPORT ORDINAL="43" NAME="?GetCount@CRescueDriveList@@QAEHXZ" PURGE="0" COMMENT="" />
    <EXPORT ORDINAL="44" NAME="?GetCurSel@CRescueDriveList@@QAEHXZ" PURGE="0" COMMENT="" />
    <EXPORT ORDINAL="45" NAME="?GetDriveSizeString@CNortonListClass@@IAEHPAUNDLVOLINFO@@AAVCString@@@Z" PURGE="8" COMMENT="" />
    <EXPORT ORDINAL="46" NAME="?GetItemData@CRescueDriveList@@QAEKH@Z" PURGE="4" COMMENT="" />
    <EXPORT ORDINAL="47" NAME="?GetListBox@CRescueDriveList@@QBEQAVCDLListBox@@XZ" PURGE="0" COMMENT="" />
    <EXPORT ORDINAL="48" NAME="?GetMessageMap@CDLListBox@@MBEPBUAFX_MSGMAP@@XZ" PURGE="0" COMMENT="" />
    <EXPORT ORDINAL="49" NAME="?GetMessageMap@CHdrButton@@MBEPBUAFX_MSGMAP@@XZ" PURGE="0" COMMENT="" />
    <EXPORT ORDINAL="50" NAME="?GetMessageMap@CInfoButton@@MBEPBUAFX_MSGMAP@@XZ" PURGE="0" COMMENT="" />
    <EXPORT ORDINAL="51" NAME="?GetMessageMap@CNortonListClass@@MBEPBUAFX_MSGMAP@@XZ" PURGE="0" COMMENT="" />
    <EXPORT ORDINAL="52" NAME="?GetMessageMap@CRescueDriveList@@MBEPBUAFX_MSGMAP@@XZ" PURGE="0" COMMENT="" />
    <EXPORT ORDINAL="53" NAME="?GetMessageMap@CRescueDriveListExp@@MBEPBUAFX_MSGMAP@@XZ" PURGE="0" COMMENT="" />
    <EXPORT ORDINAL="54" NAME="?GetRuntimeClass@CDLListBox@@UBEPAUCRuntimeClass@@XZ" PURGE="0" COMMENT="" />
    <EXPORT ORDINAL="55" NAME="?GetRuntimeClass@CHdrButton@@UBEPAUCRuntimeClass@@XZ" PURGE="0" COMMENT="" />
    <EXPORT ORDINAL="56" NAME="?GetRuntimeClass@CInfoButton@@UBEPAUCRuntimeClass@@XZ" PURGE="0" COMMENT="" />
    <EXPORT ORDINAL="57" NAME="?GetRuntimeClass@CNortonListClass@@UBEPAUCRuntimeClass@@XZ" PURGE="0" COMMENT="" />
    <EXPORT ORDINAL="58" NAME="?GetRuntimeClass@CRescueDriveList@@UBEPAUCRuntimeClass@@XZ" PURGE="0" COMMENT="" />
    <EXPORT ORDINAL="59" NAME="?GetRuntimeClass@CRescueDriveListExp@@UBEPAUCRuntimeClass@@XZ" PURGE="0" COMMENT="" />
    <EXPORT ORDINAL="60" NAME="?GetSelectedDrive@CRescueDriveList@@UAEDXZ" PURGE="0" COMMENT="" />
    <EXPORT ORDINAL="61" NAME="?GetTopIndex@CRescueDriveList@@QBEHXZ" PURGE="0" COMMENT="" />
    <EXPORT ORDINAL="62" NAME="?HeaderExists@CNortonListClass@@IAEHXZ" PURGE="0" COMMENT="" />
    <EXPORT ORDINAL="63" NAME="?IndexToDriveLetter@CRescueDriveList@@QAEDH@Z" PURGE="4" COMMENT="" />
    <EXPORT ORDINAL="64" NAME="?IndexToIndex@CRescueDriveList@@QAEHH@Z" PURGE="4" COMMENT="" />
    <EXPORT ORDINAL="65" NAME="?IndexToNumber@CRescueDriveList@@QAEHH@Z" PURGE="4" COMMENT="" />
    <EXPORT ORDINAL="66" NAME="?InfoButtonsExist@CNortonListClass@@IAEHXZ" PURGE="0" COMMENT="" />
    <EXPORT ORDINAL="67" NAME="?InitNortonListLib@@YGHPAUHINSTANCE__@@@Z" PURGE="4" COMMENT="" />
    <EXPORT ORDINAL="68" NAME="?InsertNewItem@CDLListBox@@QAEHHPBD@Z" PURGE="8" COMMENT="" />
    <EXPORT ORDINAL="69" NAME="?ItemImageListChanged@CNortonListClass@@MAEXXZ" PURGE="0" COMMENT="" />
    <EXPORT ORDINAL="70" NAME="?ItemImageListChanged@CRescueDriveList@@MAEXXZ" PURGE="0" COMMENT="" />
    <EXPORT ORDINAL="71" NAME="?LoadDriveBitmaps@CNortonListClass@@IAEHXZ" PURGE="0" COMMENT="" />
    <EXPORT ORDINAL="72" NAME="?NDLDiskIsFloppy@CNortonListClass@@IAEHE@Z" PURGE="4" COMMENT="" />
    <EXPORT ORDINAL="73" NAME="?NDLGetDriveType@CNortonListClass@@IAEKDPAUNDLVOLINFO@@@Z" PURGE="8" COMMENT="" />
    <EXPORT ORDINAL="74" NAME="?NDL_DBCSInstalled@CNortonListClass@@QAEHXZ" PURGE="0" COMMENT="" />
    <EXPORT ORDINAL="75" NAME="?NumberToIndex@CRescueDriveList@@QAEHH@Z" PURGE="4" COMMENT="" />
    <EXPORT ORDINAL="76" NAME="?OnCommand@CDLListBox@@MAEHIJ@Z" PURGE="8" COMMENT="" />
    <EXPORT ORDINAL="77" NAME="?OnCommand@CRescueDriveList@@MAEHIJ@Z" PURGE="8" COMMENT="" />
    <EXPORT ORDINAL="78" NAME="?OnCreate@CNortonListClass@@IAEHPAUtagCREATESTRUCTA@@@Z" PURGE="4" COMMENT="" />
    <EXPORT ORDINAL="79" NAME="?OnCreate@CRescueDriveList@@IAEHPAUtagCREATESTRUCTA@@@Z" PURGE="4" COMMENT="" />
    <EXPORT ORDINAL="80" NAME="?OnDeleteItem@CRescueDriveList@@IAEXHPAUtagDELETEITEMSTRUCT@@@Z" PURGE="8" COMMENT="" />
    <EXPORT ORDINAL="81" NAME="?OnDrawItem@CNortonListClass@@IAEXHPAUtagDRAWITEMSTRUCT@@@Z" PURGE="8" COMMENT="" />
    <EXPORT ORDINAL="82" NAME="?OnDrawItem@CRescueDriveList@@IAEXHPAUtagDRAWITEMSTRUCT@@@Z" PURGE="8" COMMENT="" />
    <EXPORT ORDINAL="83" NAME="?OnEnable@CRescueDriveList@@IAEXH@Z" PURGE="4" COMMENT="" />
    <EXPORT ORDINAL="84" NAME="?OnMeasureItem@CNortonListClass@@IAEXHPAUtagMEASUREITEMSTRUCT@@@Z" PURGE="8" COMMENT="" />
    <EXPORT ORDINAL="85" NAME="?OnMeasureItem@CRescueDriveList@@IAEXHPAUtagMEASUREITEMSTRUCT@@@Z" PURGE="8" COMMENT="" />
    <EXPORT ORDINAL="86" NAME="?OnMove@CInfoButton@@IAEXHH@Z" PURGE="8" COMMENT="" />
    <EXPORT ORDINAL="87" NAME="?OnNcCreate@CRescueDriveList@@IAEHPAUtagCREATESTRUCTA@@@Z" PURGE="4" COMMENT="" />
    <EXPORT ORDINAL="88" NAME="?OnNcCreate@CRescueDriveListExp@@IAEHPAUtagCREATESTRUCTA@@@Z" PURGE="4" COMMENT="" />
    <EXPORT ORDINAL="89" NAME="?OnPaint@CNortonListClass@@IAEXXZ" PURGE="0" COMMENT="" />
    <EXPORT ORDINAL="90" NAME="?OnPaint@CRescueDriveList@@IAEXXZ" PURGE="0" COMMENT="" />
    <EXPORT ORDINAL="91" NAME="?OnSetFocus@CRescueDriveList@@IAEXPAVCWnd@@@Z" PURGE="4" COMMENT="" />
    <EXPORT ORDINAL="92" NAME="?OnSize@CDLListBox@@IAEXIHH@Z" PURGE="12" COMMENT="" />
    <EXPORT ORDINAL="93" NAME="?OnSize@CRescueDriveList@@IAEXIHH@Z" PURGE="12" COMMENT="" />
    <EXPORT ORDINAL="94" NAME="?OnVScroll@CDLListBox@@IAEXIIPAVCScrollBar@@@Z" PURGE="12" COMMENT="" />
    <EXPORT ORDINAL="95" NAME="?OnWndMsg@CRescueDriveList@@MAEHIIJPAJ@Z" PURGE="16" COMMENT="" />
    <EXPORT ORDINAL="96" NAME="?PostNcDestroy@CNortonListClass@@MAEXXZ" PURGE="0" COMMENT="" />
    <EXPORT ORDINAL="97" NAME="?PostNcDestroy@CRescueDriveListExp@@MAEXXZ" PURGE="0" COMMENT="" />
    <EXPORT ORDINAL="98" NAME="?PrepareDriveInfo@CNortonListClass@@IAEHDPAUNDLVOLINFO@@PAUDLITEMDATA@@@Z" PURGE="12" COMMENT="" />
    <EXPORT ORDINAL="99" NAME="?RegisterRescueListClass@CRescueDriveListExp@@SGHPAUHINSTANCE__@@@Z" PURGE="4" COMMENT="" />
    <EXPORT ORDINAL="100" NAME="?ReplaceItemBitmap@CNortonListClass@@QAEHHPAUHBITMAP__@@0@Z" PURGE="12" COMMENT="" />
    <EXPORT ORDINAL="101" NAME="?ReplaceItemBitmap@CNortonListClass@@QAEHHPAVCBitmap@@0@Z" PURGE="12" COMMENT="" />
    <EXPORT ORDINAL="102" NAME="?RescueListWndProcHook@CRescueDriveListExp@@SGJPAUHWND__@@IIJ@Z" PURGE="16" COMMENT="" />
    <EXPORT ORDINAL="103" NAME="?ResetContent@CRescueDriveList@@QAEXXZ" PURGE="0" COMMENT="" />
    <EXPORT ORDINAL="104" NAME="?ResetInfoButtons@CDLListBox@@IAEXHH@Z" PURGE="8" COMMENT="" />
    <EXPORT ORDINAL="105" NAME="?SelectDrive@CRescueDriveList@@UAEHD@Z" PURGE="4" COMMENT="" />
    <EXPORT ORDINAL="106" NAME="?SetBoldFont@CNortonListClass@@QAEHXZ" PURGE="0" COMMENT="" />
    <EXPORT ORDINAL="107" NAME="?SetBtnText@CHdrButton@@QAEXPBD@Z" PURGE="4" COMMENT="" />
    <EXPORT ORDINAL="108" NAME="?SetCaretIndex@CDLListBox@@QAEHHH@Z" PURGE="8" COMMENT="" />
    <EXPORT ORDINAL="109" NAME="?SetCaretIndex@CRescueDriveList@@QAEHHH@Z" PURGE="8" COMMENT="" />
    <EXPORT ORDINAL="110" NAME="?SetCurSel@CRescueDriveList@@QAEHH@Z" PURGE="4" COMMENT="" />
    <EXPORT ORDINAL="111" NAME="?SetFont@CHdrButton@@QAEXPAVCFont@@@Z" PURGE="4" COMMENT="" />
    <EXPORT ORDINAL="112" NAME="?SetGlobalImageList@CInfoButton@@SGHPAVCImageList@@@Z" PURGE="4" COMMENT="" />
    <EXPORT ORDINAL="113" NAME="?SetHeaderText@CRescueDriveList@@QAEHHPBD@Z" PURGE="8" COMMENT="" />
    <EXPORT ORDINAL="114" NAME="?SetImageList@CHdrButton@@QAEHPAVCImageList@@@Z" PURGE="4" COMMENT="" />
    <EXPORT ORDINAL="115" NAME="?SetImageList@CInfoButton@@QAEHPAVCImageList@@@Z" PURGE="4" COMMENT="" />
    <EXPORT ORDINAL="116" NAME="?SetInfoBtnBitmap@CNortonListClass@@QAEHPAUHBITMAP__@@0@Z" PURGE="8" COMMENT="" />
    <EXPORT ORDINAL="117" NAME="?SetInfoBtnBitmap@CNortonListClass@@QAEHPAVCBitmap@@0@Z" PURGE="8" COMMENT="" />
    <EXPORT ORDINAL="118" NAME="?SetInfoBtnBmp@CDLListBox@@QAEXPAVCImageList@@@Z" PURGE="4" COMMENT="" />
    <EXPORT ORDINAL="119" NAME="?SetItemData@CRescueDriveList@@QAEHHK@Z" PURGE="8" COMMENT="" />
    <EXPORT ORDINAL="120" NAME="?SetItemImageList@CNortonListClass@@UAEHPAU_IMAGELIST@@@Z" PURGE="4" COMMENT="" />
    <EXPORT ORDINAL="121" NAME="?SetItemImageList@CNortonListClass@@UAEHPAVCImageList@@@Z" PURGE="4" COMMENT="" />
    <EXPORT ORDINAL="122" NAME="?SetNormalFont@CNortonListClass@@QAEHXZ" PURGE="0" COMMENT="" />
    <EXPORT ORDINAL="123" NAME="?SetSmallFont@CNortonListClass@@QAEHXZ" PURGE="0" COMMENT="" />
    <EXPORT ORDINAL="124" NAME="?SetStatusText@CRescueDriveList@@QAEHDPBD0@Z" PURGE="12" COMMENT="" />
    <EXPORT ORDINAL="125" NAME="?SetStatusText@CRescueDriveList@@QAEHHPBD0@Z" PURGE="12" COMMENT="" />
    <EXPORT ORDINAL="126" NAME="?SetTopIndex@CRescueDriveList@@QAEHH@Z" PURGE="4" COMMENT="" />
    <EXPORT ORDINAL="127" NAME="?_GetBaseClass@CDLListBox@@KGPAUCRuntimeClass@@XZ" PURGE="0" COMMENT="" />
    <EXPORT ORDINAL="128" NAME="?_GetBaseClass@CHdrButton@@KGPAUCRuntimeClass@@XZ" PURGE="0" COMMENT="" />
    <EXPORT ORDINAL="129" NAME="?_GetBaseClass@CInfoButton@@KGPAUCRuntimeClass@@XZ" PURGE="0" COMMENT="" />
    <EXPORT ORDINAL="130" NAME="?_GetBaseClass@CNortonListClass@@KGPAUCRuntimeClass@@XZ" PURGE="0" COMMENT="" />
    <EXPORT ORDINAL="131" NAME="?_GetBaseClass@CRescueDriveList@@KGPAUCRuntimeClass@@XZ" PURGE="0" COMMENT="" />
    <EXPORT ORDINAL="132" NAME="?_GetBaseClass@CRescueDriveListExp@@KGPAUCRuntimeClass@@XZ" PURGE="0" COMMENT="" />
    <EXPORT ORDINAL="133" NAME="?_GetBaseMessageMap@CDLListBox@@KGPBUAFX_MSGMAP@@XZ" PURGE="0" COMMENT="" />
    <EXPORT ORDINAL="134" NAME="?_GetBaseMessageMap@CHdrButton@@KGPBUAFX_MSGMAP@@XZ" PURGE="0" COMMENT="" />
    <EXPORT ORDINAL="135" NAME="?_GetBaseMessageMap@CInfoButton@@KGPBUAFX_MSGMAP@@XZ" PURGE="0" COMMENT="" />
    <EXPORT ORDINAL="136" NAME="?_GetBaseMessageMap@CNortonListClass@@KGPBUAFX_MSGMAP@@XZ" PURGE="0" COMMENT="" />
    <EXPORT ORDINAL="137" NAME="?_GetBaseMessageMap@CRescueDriveList@@KGPBUAFX_MSGMAP@@XZ" PURGE="0" COMMENT="" />
    <EXPORT ORDINAL="138" NAME="?_GetBaseMessageMap@CRescueDriveListExp@@KGPBUAFX_MSGMAP@@XZ" PURGE="0" COMMENT="" />
    <EXPORT ORDINAL="139" NAME="?_messageEntries@CDLListBox@@0QBUAFX_MSGMAP_ENTRY@@B" PURGE="-1" COMMENT="" />
    <EXPORT ORDINAL="140" NAME="?_messageEntries@CHdrButton@@0QBUAFX_MSGMAP_ENTRY@@B" PURGE="-1" COMMENT="" />
    <EXPORT ORDINAL="141" NAME="?_messageEntries@CInfoButton@@0QBUAFX_MSGMAP_ENTRY@@B" PURGE="-1" COMMENT="" />
    <EXPORT ORDINAL="142" NAME="?_messageEntries@CNortonListClass@@0QBUAFX_MSGMAP_ENTRY@@B" PURGE="-1" COMMENT="" />
    <EXPORT ORDINAL="143" NAME="?_messageEntries@CRescueDriveList@@0QBUAFX_MSGMAP_ENTRY@@B" PURGE="-1" COMMENT="" />
    <EXPORT ORDINAL="144" NAME="?_messageEntries@CRescueDriveListExp@@0QBUAFX_MSGMAP_ENTRY@@B" PURGE="-1" COMMENT="" />
    <EXPORT ORDINAL="145" NAME="?classCDLListBox@CDLListBox@@2UCRuntimeClass@@B" PURGE="-1" COMMENT="" />
    <EXPORT ORDINAL="146" NAME="?classCHdrButton@CHdrButton@@2UCRuntimeClass@@B" PURGE="-1" COMMENT="" />
    <EXPORT ORDINAL="147" NAME="?classCInfoButton@CInfoButton@@2UCRuntimeClass@@B" PURGE="-1" COMMENT="" />
    <EXPORT ORDINAL="148" NAME="?classCNortonListClass@CNortonListClass@@2UCRuntimeClass@@B" PURGE="-1" COMMENT="" />
    <EXPORT ORDINAL="149" NAME="?classCRescueDriveList@CRescueDriveList@@2UCRuntimeClass@@B" PURGE="-1" COMMENT="" />
    <EXPORT ORDINAL="150" NAME="?classCRescueDriveListExp@CRescueDriveListExp@@2UCRuntimeClass@@B" PURGE="-1" COMMENT="" />
    <EXPORT ORDINAL="151" NAME="?m_imlGlobalImages@CInfoButton@@1PAVCImageList@@A" PURGE="-1" COMMENT="" />
    <EXPORT ORDINAL="152" NAME="?messageMap@CDLListBox@@1UAFX_MSGMAP@@B" PURGE="-1" COMMENT="" />
    <EXPORT ORDINAL="153" NAME="?messageMap@CHdrButton@@1UAFX_MSGMAP@@B" PURGE="-1" COMMENT="" />
    <EXPORT ORDINAL="154" NAME="?messageMap@CInfoButton@@1UAFX_MSGMAP@@B" PURGE="-1" COMMENT="" />
    <EXPORT ORDINAL="155" NAME="?messageMap@CNortonListClass@@1UAFX_MSGMAP@@B" PURGE="-1" COMMENT="" />
    <EXPORT ORDINAL="156" NAME="?messageMap@CRescueDriveList@@1UAFX_MSGMAP@@B" PURGE="-1" COMMENT="" />
    <EXPORT ORDINAL="157" NAME="?messageMap@CRescueDriveListExp@@1UAFX_MSGMAP@@B" PURGE="-1" COMMENT="" />
    <EXPORT ORDINAL="158" NAME="_InitNortonListLibC@4" PURGE="4" COMMENT="" />
</LIBRARY>

