<?xml version="1.0" encoding="UTF-8"?>
<LIBRARY NAME="rockalldll.dll" PATH="/DLLArchive/etc/rockalldll.dll" DATE="Fri Jul 03 13:12:27 PDT 2020" VERSION="3.02.8.0">
    <EXPORT ORDINAL="1" NAME="??0BLENDED_HEAP@@QAE@H_N00@Z" PURGE="16" COMMENT="" />
    <EXPORT ORDINAL="2" NAME="??0DEBUG_HEAP@@QAE@H_N0000@Z" PURGE="24" COMMENT="" />
    <EXPORT ORDINAL="3" NAME="??0DYNAMIC_DEBUG_HEAP@@QAE@H_N000HH0@Z" PURGE="32" COMMENT="" />
    <EXPORT ORDINAL="4" NAME="??0FAST_HEAP@@QAE@H_N00@Z" PURGE="16" COMMENT="" />
    <EXPORT ORDINAL="5" NAME="??0PAGE_HEAP@@QAE@H_N0000@Z" PURGE="24" COMMENT="" />
    <EXPORT ORDINAL="6" NAME="??0ROCKALL_BACK_END@@QAE@XZ" PURGE="0" COMMENT="" />
    <EXPORT ORDINAL="7" NAME="??0ROCKALL_DEBUG_FRONT_END@@QAE@PAUCACHE_DETAILS@ROCKALL_FRONT_END@@0HPAVROCKALL_BACK_END@@_N2HH2@Z" PURGE="36" COMMENT="" />
    <EXPORT ORDINAL="8" NAME="??0ROCKALL_FRONT_END@@QAE@PAUCACHE_DETAILS@0@0HHHHPAHPAVROCKALL_BACK_END@@_N3HH3@Z" PURGE="52" COMMENT="" />
    <EXPORT ORDINAL="9" NAME="??0SMALL_HEAP@@QAE@H_N00@Z" PURGE="16" COMMENT="" />
    <EXPORT ORDINAL="10" NAME="??0SMP_HEAP@@QAE@H_N000@Z" PURGE="20" COMMENT="" />
    <EXPORT ORDINAL="11" NAME="??0ZONE_HEAP@@QAE@H_N00@Z" PURGE="16" COMMENT="" />
    <EXPORT ORDINAL="12" NAME="??1BLENDED_HEAP@@UAE@XZ" PURGE="0" COMMENT="" />
    <EXPORT ORDINAL="13" NAME="??1DEBUG_HEAP@@UAE@XZ" PURGE="0" COMMENT="" />
    <EXPORT ORDINAL="14" NAME="??1DYNAMIC_DEBUG_HEAP@@UAE@XZ" PURGE="0" COMMENT="" />
    <EXPORT ORDINAL="15" NAME="??1FAST_HEAP@@UAE@XZ" PURGE="0" COMMENT="" />
    <EXPORT ORDINAL="16" NAME="??1PAGE_HEAP@@UAE@XZ" PURGE="0" COMMENT="" />
    <EXPORT ORDINAL="17" NAME="??1ROCKALL_BACK_END@@UAE@XZ" PURGE="0" COMMENT="" />
    <EXPORT ORDINAL="18" NAME="??1ROCKALL_DEBUG_FRONT_END@@UAE@XZ" PURGE="0" COMMENT="" />
    <EXPORT ORDINAL="19" NAME="??1ROCKALL_FRONT_END@@UAE@XZ" PURGE="0" COMMENT="" />
    <EXPORT ORDINAL="20" NAME="??1SMALL_HEAP@@UAE@XZ" PURGE="0" COMMENT="" />
    <EXPORT ORDINAL="21" NAME="??1SMP_HEAP@@UAE@XZ" PURGE="0" COMMENT="" />
    <EXPORT ORDINAL="22" NAME="??1ZONE_HEAP@@UAE@XZ" PURGE="0" COMMENT="" />
    <EXPORT ORDINAL="23" NAME="??_7BLENDED_HEAP@@6B@" PURGE="-1" COMMENT="" />
    <EXPORT ORDINAL="24" NAME="??_7DEBUG_HEAP@@6B@" PURGE="-1" COMMENT="" />
    <EXPORT ORDINAL="25" NAME="??_7DYNAMIC_DEBUG_HEAP@@6B@" PURGE="-1" COMMENT="" />
    <EXPORT ORDINAL="26" NAME="??_7FAST_HEAP@@6B@" PURGE="-1" COMMENT="" />
    <EXPORT ORDINAL="27" NAME="??_7PAGE_HEAP@@6B@" PURGE="-1" COMMENT="" />
    <EXPORT ORDINAL="28" NAME="??_7ROCKALL_BACK_END@@6B@" PURGE="-1" COMMENT="" />
    <EXPORT ORDINAL="29" NAME="??_7ROCKALL_DEBUG_FRONT_END@@6B@" PURGE="-1" COMMENT="" />
    <EXPORT ORDINAL="30" NAME="??_7ROCKALL_FRONT_END@@6B@" PURGE="-1" COMMENT="" />
    <EXPORT ORDINAL="31" NAME="??_7SMALL_HEAP@@6B@" PURGE="-1" COMMENT="" />
    <EXPORT ORDINAL="32" NAME="??_7SMP_HEAP@@6B@" PURGE="-1" COMMENT="" />
    <EXPORT ORDINAL="33" NAME="??_7ZONE_HEAP@@6B@" PURGE="-1" COMMENT="" />
    <EXPORT ORDINAL="34" NAME="??_FBLENDED_HEAP@@QAEXXZ" PURGE="0" COMMENT="" />
    <EXPORT ORDINAL="35" NAME="??_FDEBUG_HEAP@@QAEXXZ" PURGE="0" COMMENT="" />
    <EXPORT ORDINAL="36" NAME="??_FDYNAMIC_DEBUG_HEAP@@QAEXXZ" PURGE="0" COMMENT="" />
    <EXPORT ORDINAL="37" NAME="??_FFAST_HEAP@@QAEXXZ" PURGE="0" COMMENT="" />
    <EXPORT ORDINAL="38" NAME="??_FPAGE_HEAP@@QAEXXZ" PURGE="0" COMMENT="" />
    <EXPORT ORDINAL="39" NAME="??_FSMALL_HEAP@@QAEXXZ" PURGE="0" COMMENT="" />
    <EXPORT ORDINAL="40" NAME="??_FSMP_HEAP@@QAEXXZ" PURGE="0" COMMENT="" />
    <EXPORT ORDINAL="41" NAME="??_FZONE_HEAP@@QAEXXZ" PURGE="0" COMMENT="" />
    <EXPORT ORDINAL="42" NAME="?Available@ROCKALL_FRONT_END@@QAE_NXZ" PURGE="0" COMMENT="" />
    <EXPORT ORDINAL="43" NAME="?ComputeGuardSpace@PAGE_HEAP@@AAEHH@Z" PURGE="4" COMMENT="" />
    <EXPORT ORDINAL="44" NAME="?ComputeHeapAddress@DEBUG_HEAP@@AAEPAXPAX@Z" PURGE="4" COMMENT="" />
    <EXPORT ORDINAL="45" NAME="?ComputeHeapAddress@PAGE_HEAP@@AAEPAXPAX@Z" PURGE="4" COMMENT="" />
    <EXPORT ORDINAL="46" NAME="?ComputeHeapSpace@PAGE_HEAP@@AAEHH@Z" PURGE="4" COMMENT="" />
    <EXPORT ORDINAL="47" NAME="?ComputeSize@ROCKALL_FRONT_END@@IAEHPADH@Z" PURGE="8" COMMENT="" />
    <EXPORT ORDINAL="48" NAME="?ComputeUserAddress@DEBUG_HEAP@@AAEPAXPAX@Z" PURGE="4" COMMENT="" />
    <EXPORT ORDINAL="49" NAME="?ComputeUserAddress@PAGE_HEAP@@AAEPAXPAXH@Z" PURGE="8" COMMENT="" />
    <EXPORT ORDINAL="50" NAME="?ComputeUserSpace@DEBUG_HEAP@@AAEHH@Z" PURGE="4" COMMENT="" />
    <EXPORT ORDINAL="51" NAME="?Corrupt@ROCKALL_FRONT_END@@QAE_NXZ" PURGE="0" COMMENT="" />
    <EXPORT ORDINAL="52" NAME="?DefaultBaseClass@ROCKALL_BACK_END@@0V1@A" PURGE="-1" COMMENT="" />
    <EXPORT ORDINAL="53" NAME="?DefaultHeap@@3VFAST_HEAP@@A" PURGE="-1" COMMENT="" />
    <EXPORT ORDINAL="54" NAME="?Delete@DYNAMIC_DEBUG_HEAP@@UAE_NPAXH@Z" PURGE="8" COMMENT="" />
    <EXPORT ORDINAL="55" NAME="?Delete@ROCKALL_DEBUG_FRONT_END@@UAE_NPAXH@Z" PURGE="8" COMMENT="" />
    <EXPORT ORDINAL="56" NAME="?Delete@ROCKALL_FRONT_END@@UAE_NPAXH@Z" PURGE="8" COMMENT="" />
    <EXPORT ORDINAL="57" NAME="?Delete@SMP_HEAP@@UAE_NPAXH@Z" PURGE="8" COMMENT="" />
    <EXPORT ORDINAL="58" NAME="?Delete@ZONE_HEAP@@UAE_NPAXH@Z" PURGE="8" COMMENT="" />
    <EXPORT ORDINAL="59" NAME="?DeleteAll@DYNAMIC_DEBUG_HEAP@@UAEX_N@Z" PURGE="4" COMMENT="" />
    <EXPORT ORDINAL="60" NAME="?DeleteAll@ROCKALL_DEBUG_FRONT_END@@UAEX_N@Z" PURGE="4" COMMENT="" />
    <EXPORT ORDINAL="61" NAME="?DeleteAll@ROCKALL_FRONT_END@@UAEX_N@Z" PURGE="4" COMMENT="" />
    <EXPORT ORDINAL="62" NAME="?DeleteAll@SMP_HEAP@@UAEX_N@Z" PURGE="4" COMMENT="" />
    <EXPORT ORDINAL="63" NAME="?DeleteAll@ZONE_HEAP@@UAEX_N@Z" PURGE="4" COMMENT="" />
    <EXPORT ORDINAL="64" NAME="?DeleteArea@ROCKALL_BACK_END@@UAEXPAXH_N@Z" PURGE="12" COMMENT="" />
    <EXPORT ORDINAL="65" NAME="?DeleteGuard@DEBUG_HEAP@@MAEXPAX@Z" PURGE="4" COMMENT="" />
    <EXPORT ORDINAL="66" NAME="?DeleteGuard@PAGE_HEAP@@MAEXPAX@Z" PURGE="4" COMMENT="" />
    <EXPORT ORDINAL="67" NAME="?Details@DYNAMIC_DEBUG_HEAP@@UAE_NPAXPAH@Z" PURGE="8" COMMENT="" />
    <EXPORT ORDINAL="68" NAME="?Details@ROCKALL_DEBUG_FRONT_END@@UAE_NPAXPAH@Z" PURGE="8" COMMENT="" />
    <EXPORT ORDINAL="69" NAME="?Details@ROCKALL_FRONT_END@@UAE_NPAXPAH@Z" PURGE="8" COMMENT="" />
    <EXPORT ORDINAL="70" NAME="?Details@SMP_HEAP@@UAE_NPAXPAH@Z" PURGE="8" COMMENT="" />
    <EXPORT ORDINAL="71" NAME="?Details@ZONE_HEAP@@UAE_NPAXPAH@Z" PURGE="8" COMMENT="" />
    <EXPORT ORDINAL="72" NAME="?Exception@ROCKALL_DEBUG_FRONT_END@@EAEXPAD@Z" PURGE="4" COMMENT="" />
    <EXPORT ORDINAL="73" NAME="?Exception@ROCKALL_FRONT_END@@MAEXPAD@Z" PURGE="4" COMMENT="" />
    <EXPORT ORDINAL="74" NAME="?GetPrivateHeap@SMP_HEAP@@AAEPAUPRIVATE_HEAP@@XZ" PURGE="0" COMMENT="" />
    <EXPORT ORDINAL="75" NAME="?HeapLeaks@DEBUG_HEAP@@UAEXXZ" PURGE="0" COMMENT="" />
    <EXPORT ORDINAL="76" NAME="?HeapLeaks@DYNAMIC_DEBUG_HEAP@@UAEXXZ" PURGE="0" COMMENT="" />
    <EXPORT ORDINAL="77" NAME="?HeapLeaks@PAGE_HEAP@@UAEXXZ" PURGE="0" COMMENT="" />
    <EXPORT ORDINAL="78" NAME="?KnownArea@DYNAMIC_DEBUG_HEAP@@UAE_NPAX@Z" PURGE="4" COMMENT="" />
    <EXPORT ORDINAL="79" NAME="?KnownArea@ROCKALL_FRONT_END@@UAE_NPAX@Z" PURGE="4" COMMENT="" />
    <EXPORT ORDINAL="80" NAME="?KnownArea@SMP_HEAP@@UAE_NPAX@Z" PURGE="4" COMMENT="" />
    <EXPORT ORDINAL="81" NAME="?LockAll@DYNAMIC_DEBUG_HEAP@@UAEXXZ" PURGE="0" COMMENT="" />
    <EXPORT ORDINAL="82" NAME="?LockAll@ROCKALL_FRONT_END@@UAEXXZ" PURGE="0" COMMENT="" />
    <EXPORT ORDINAL="83" NAME="?LockAll@SMP_HEAP@@UAEXXZ" PURGE="0" COMMENT="" />
    <EXPORT ORDINAL="84" NAME="?MultipleDelete@DYNAMIC_DEBUG_HEAP@@UAE_NHQAPAXH@Z" PURGE="12" COMMENT="" />
    <EXPORT ORDINAL="85" NAME="?MultipleDelete@ROCKALL_DEBUG_FRONT_END@@UAE_NHQAPAXH@Z" PURGE="12" COMMENT="" />
    <EXPORT ORDINAL="86" NAME="?MultipleDelete@ROCKALL_FRONT_END@@UAE_NHQAPAXH@Z" PURGE="12" COMMENT="" />
    <EXPORT ORDINAL="87" NAME="?MultipleDelete@SMP_HEAP@@UAE_NHQAPAXH@Z" PURGE="12" COMMENT="" />
    <EXPORT ORDINAL="88" NAME="?MultipleDelete@ZONE_HEAP@@UAE_NHQAPAXH@Z" PURGE="12" COMMENT="" />
    <EXPORT ORDINAL="89" NAME="?MultipleNew@DYNAMIC_DEBUG_HEAP@@UAE_NPAHQAPAXHH0_N@Z" PURGE="24" COMMENT="" />
    <EXPORT ORDINAL="90" NAME="?MultipleNew@ROCKALL_DEBUG_FRONT_END@@UAE_NPAHQAPAXHH0_N@Z" PURGE="24" COMMENT="" />
    <EXPORT ORDINAL="91" NAME="?MultipleNew@ROCKALL_FRONT_END@@UAE_NPAHQAPAXHH0_N@Z" PURGE="24" COMMENT="" />
    <EXPORT ORDINAL="92" NAME="?MultipleNew@SMP_HEAP@@UAE_NPAHQAPAXHH0_N@Z" PURGE="24" COMMENT="" />
    <EXPORT ORDINAL="93" NAME="?MultipleNew@ZONE_HEAP@@UAE_NPAHQAPAXHH0_N@Z" PURGE="24" COMMENT="" />
    <EXPORT ORDINAL="94" NAME="?NaturalSize@ROCKALL_BACK_END@@UAEHXZ" PURGE="0" COMMENT="" />
    <EXPORT ORDINAL="95" NAME="?New@DYNAMIC_DEBUG_HEAP@@UAEPAXHPAH_N@Z" PURGE="12" COMMENT="" />
    <EXPORT ORDINAL="96" NAME="?New@ROCKALL_DEBUG_FRONT_END@@UAEPAXHPAH_N@Z" PURGE="12" COMMENT="" />
    <EXPORT ORDINAL="97" NAME="?New@ROCKALL_FRONT_END@@UAEPAXHPAH_N@Z" PURGE="12" COMMENT="" />
    <EXPORT ORDINAL="98" NAME="?New@SMP_HEAP@@UAEPAXHPAH_N@Z" PURGE="12" COMMENT="" />
    <EXPORT ORDINAL="99" NAME="?New@ZONE_HEAP@@UAEPAXHPAH_N@Z" PURGE="12" COMMENT="" />
    <EXPORT ORDINAL="100" NAME="?NewArea@ROCKALL_BACK_END@@UAEPAXHH_N@Z" PURGE="12" COMMENT="" />
    <EXPORT ORDINAL="101" NAME="?NewGuard@DEBUG_HEAP@@MAE_NPAPAXHPAH@Z" PURGE="12" COMMENT="" />
    <EXPORT ORDINAL="102" NAME="?NewGuard@PAGE_HEAP@@MAE_NPAPAXHPAH@Z" PURGE="12" COMMENT="" />
    <EXPORT ORDINAL="103" NAME="?RandomNumber@DYNAMIC_DEBUG_HEAP@@AAEHXZ" PURGE="0" COMMENT="" />
    <EXPORT ORDINAL="104" NAME="?Resize@DYNAMIC_DEBUG_HEAP@@UAEPAXPAXHHPAH_N2@Z" PURGE="24" COMMENT="" />
    <EXPORT ORDINAL="105" NAME="?Resize@ROCKALL_DEBUG_FRONT_END@@UAEPAXPAXHHPAH_N2@Z" PURGE="24" COMMENT="" />
    <EXPORT ORDINAL="106" NAME="?Resize@ROCKALL_FRONT_END@@UAEPAXPAXHHPAH_N2@Z" PURGE="24" COMMENT="" />
    <EXPORT ORDINAL="107" NAME="?Resize@SMP_HEAP@@UAEPAXPAXHHPAH_N2@Z" PURGE="24" COMMENT="" />
    <EXPORT ORDINAL="108" NAME="?Resize@ZONE_HEAP@@UAEPAXPAXHHPAH_N2@Z" PURGE="24" COMMENT="" />
    <EXPORT ORDINAL="109" NAME="?RockallBackEnd@ROCKALL_BACK_END@@SAPAV1@XZ" PURGE="0" COMMENT="" />
    <EXPORT ORDINAL="110" NAME="?SpecialNew@DYNAMIC_DEBUG_HEAP@@MAEPAXH@Z" PURGE="4" COMMENT="" />
    <EXPORT ORDINAL="111" NAME="?SpecialNew@ROCKALL_FRONT_END@@MAEPAXH@Z" PURGE="4" COMMENT="" />
    <EXPORT ORDINAL="112" NAME="?SpecialNew@SMP_HEAP@@MAEPAXH@Z" PURGE="4" COMMENT="" />
    <EXPORT ORDINAL="113" NAME="?ThreadDetach@SMP_HEAP@@CAXPAXH@Z" PURGE="0" COMMENT="" />
    <EXPORT ORDINAL="114" NAME="?Truncate@DYNAMIC_DEBUG_HEAP@@UAE_NH@Z" PURGE="4" COMMENT="" />
    <EXPORT ORDINAL="115" NAME="?Truncate@ROCKALL_FRONT_END@@UAE_NH@Z" PURGE="4" COMMENT="" />
    <EXPORT ORDINAL="116" NAME="?Truncate@SMP_HEAP@@UAE_NH@Z" PURGE="4" COMMENT="" />
    <EXPORT ORDINAL="117" NAME="?UnlockAll@DYNAMIC_DEBUG_HEAP@@UAEXXZ" PURGE="0" COMMENT="" />
    <EXPORT ORDINAL="118" NAME="?UnlockAll@ROCKALL_FRONT_END@@UAEXXZ" PURGE="0" COMMENT="" />
    <EXPORT ORDINAL="119" NAME="?UnlockAll@SMP_HEAP@@UAEXXZ" PURGE="0" COMMENT="" />
    <EXPORT ORDINAL="120" NAME="?UpdateZone@ZONE_HEAP@@AAE_NPAUZONE@1@0@Z" PURGE="8" COMMENT="" />
    <EXPORT ORDINAL="121" NAME="?UserError@DEBUG_HEAP@@MAEXPAX0PAD@Z" PURGE="12" COMMENT="" />
    <EXPORT ORDINAL="122" NAME="?UserError@PAGE_HEAP@@MAEXPAX0PAD@Z" PURGE="12" COMMENT="" />
    <EXPORT ORDINAL="123" NAME="?Verify@DYNAMIC_DEBUG_HEAP@@UAE_NPAXPAH@Z" PURGE="8" COMMENT="" />
    <EXPORT ORDINAL="124" NAME="?Verify@ROCKALL_DEBUG_FRONT_END@@UAE_NPAXPAH@Z" PURGE="8" COMMENT="" />
    <EXPORT ORDINAL="125" NAME="?Verify@ROCKALL_FRONT_END@@UAE_NPAXPAH@Z" PURGE="8" COMMENT="" />
    <EXPORT ORDINAL="126" NAME="?Verify@SMP_HEAP@@UAE_NPAXPAH@Z" PURGE="8" COMMENT="" />
    <EXPORT ORDINAL="127" NAME="?Verify@ZONE_HEAP@@UAE_NPAXPAH@Z" PURGE="8" COMMENT="" />
    <EXPORT ORDINAL="128" NAME="?VerifyAddress@DEBUG_HEAP@@AAE_NPAXPAPAUHEADER@1@PAH_N@Z" PURGE="16" COMMENT="" />
    <EXPORT ORDINAL="129" NAME="?VerifyAddress@PAGE_HEAP@@AAE_NPAXPAPAUHEADER@1@PAH_N@Z" PURGE="16" COMMENT="" />
    <EXPORT ORDINAL="130" NAME="?VerifyGuard@DEBUG_HEAP@@MAE_NPAXPAH1@Z" PURGE="12" COMMENT="" />
    <EXPORT ORDINAL="131" NAME="?VerifyGuard@PAGE_HEAP@@MAE_NPAXPAH1@Z" PURGE="12" COMMENT="" />
    <EXPORT ORDINAL="132" NAME="?VerifyGuardWords@DEBUG_HEAP@@AAE_NPAXH@Z" PURGE="8" COMMENT="" />
    <EXPORT ORDINAL="133" NAME="?VerifyGuardWords@PAGE_HEAP@@AAE_NPAXH@Z" PURGE="8" COMMENT="" />
    <EXPORT ORDINAL="134" NAME="?VerifyHeader@DEBUG_HEAP@@AAE_NPAXPAPAUHEADER@1@PAH_N@Z" PURGE="16" COMMENT="" />
    <EXPORT ORDINAL="135" NAME="?VerifyHeader@PAGE_HEAP@@AAE_NPAXPAPAUHEADER@1@PAH_N@Z" PURGE="16" COMMENT="" />
    <EXPORT ORDINAL="136" NAME="?VerifyHeaderAndTrailer@DEBUG_HEAP@@AAE_NPAXPAPAUHEADER@1@PAHPAPAUTRAILER@1@_N@Z" PURGE="20" COMMENT="" />
    <EXPORT ORDINAL="137" NAME="?VerifyHeaderAndTrailer@PAGE_HEAP@@AAE_NPAXPAPAUHEADER@1@PAHPAPAUTRAILER@1@_N@Z" PURGE="20" COMMENT="" />
    <EXPORT ORDINAL="138" NAME="?VerifyTrailer@DEBUG_HEAP@@AAE_NPAUHEADER@1@HPAPAUTRAILER@1@@Z" PURGE="12" COMMENT="" />
    <EXPORT ORDINAL="139" NAME="?VerifyTrailer@PAGE_HEAP@@AAE_NPAUHEADER@1@HPAPAUTRAILER@1@@Z" PURGE="12" COMMENT="" />
    <EXPORT ORDINAL="140" NAME="?Walk@DYNAMIC_DEBUG_HEAP@@UAE_NPA_NPAPAXPAH@Z" PURGE="12" COMMENT="" />
    <EXPORT ORDINAL="141" NAME="?Walk@ROCKALL_DEBUG_FRONT_END@@UAE_NPA_NPAPAXPAH@Z" PURGE="12" COMMENT="" />
    <EXPORT ORDINAL="142" NAME="?Walk@ROCKALL_FRONT_END@@UAE_NPA_NPAPAXPAH@Z" PURGE="12" COMMENT="" />
    <EXPORT ORDINAL="143" NAME="?Walk@SMP_HEAP@@UAE_NPA_NPAPAXPAH@Z" PURGE="12" COMMENT="" />
    <EXPORT ORDINAL="144" NAME="?Walk@ZONE_HEAP@@UAE_NPA_NPAPAXPAH@Z" PURGE="12" COMMENT="" />
    <EXPORT ORDINAL="145" NAME="?WalkGuard@DEBUG_HEAP@@MAE_NPA_NPAPAXPAH@Z" PURGE="12" COMMENT="" />
    <EXPORT ORDINAL="146" NAME="?WalkGuard@PAGE_HEAP@@MAE_NPA_NPAPAXPAH@Z" PURGE="12" COMMENT="" />
    <EXPORT ORDINAL="147" NAME="?WriteGuardWords@DEBUG_HEAP@@AAEXPAXH@Z" PURGE="8" COMMENT="" />
    <EXPORT ORDINAL="148" NAME="?WriteGuardWords@PAGE_HEAP@@AAEXPAXH@Z" PURGE="8" COMMENT="" />
    <EXPORT ORDINAL="149" NAME="?WriteZone@ZONE_HEAP@@AAEXPAUZONE@1@@Z" PURGE="4" COMMENT="" />
    <EXPORT ORDINAL="150" NAME="WindowsHeapAlloc" PURGE="0" COMMENT="" />
    <EXPORT ORDINAL="151" NAME="WindowsHeapCompact" PURGE="0" COMMENT="" />
    <EXPORT ORDINAL="152" NAME="WindowsHeapCreate" PURGE="0" COMMENT="" />
    <EXPORT ORDINAL="153" NAME="WindowsHeapDestroy" PURGE="0" COMMENT="" />
    <EXPORT ORDINAL="154" NAME="WindowsHeapFree" PURGE="0" COMMENT="" />
    <EXPORT ORDINAL="155" NAME="WindowsHeapLock" PURGE="0" COMMENT="" />
    <EXPORT ORDINAL="156" NAME="WindowsHeapReAlloc" PURGE="0" COMMENT="" />
    <EXPORT ORDINAL="157" NAME="WindowsHeapReset" PURGE="0" COMMENT="" />
    <EXPORT ORDINAL="158" NAME="WindowsHeapSize" PURGE="0" COMMENT="" />
    <EXPORT ORDINAL="159" NAME="WindowsHeapUnlock" PURGE="0" COMMENT="" />
    <EXPORT ORDINAL="160" NAME="WindowsHeapValidate" PURGE="0" COMMENT="" />
    <EXPORT ORDINAL="161" NAME="WindowsHeapWalk" PURGE="0" COMMENT="" />
</LIBRARY>

