<?xml version="1.0" encoding="UTF-8"?>
<LIBRARY NAME="semwiz.dll" PATH="/DLLArchive/etc/SEMWIZ.DLL" DATE="Fri Jul 03 13:15:11 PDT 2020" VERSION="1998.11.13">
    <EXPORT ORDINAL="1" NAME="??0CDlgAlertWizSheet@@QAE@PAVSWnd@@PAUSQLSERVER@@@Z" PURGE="8" COMMENT="" />
    <EXPORT ORDINAL="2" NAME="??0CDlgBkupWizSheet@@QAE@PAVSWnd@@PAUSQLSERVER@@PAUSTARCONTEXT@@@Z" PURGE="12" COMMENT="" />
    <EXPORT ORDINAL="3" NAME="??0CDlgDBMaintSheet@@QAE@PAVSWnd@@PAUSQLSERVER@@PAUSTARCONTEXT@@@Z" PURGE="12" COMMENT="" />
    <EXPORT ORDINAL="4" NAME="??0CDlgIndexWizSheet@@QAE@PAVSWnd@@PAUSQLSERVER@@PAUSTARCONTEXT@@@Z" PURGE="12" COMMENT="" />
    <EXPORT ORDINAL="5" NAME="??0CDlgJobWizSheet@@QAE@PAVSWnd@@PAUSQLSERVER@@PAUSTARCONTEXT@@@Z" PURGE="12" COMMENT="" />
    <EXPORT ORDINAL="6" NAME="??0CDlgSPWizSheet@@QAE@PAVSWnd@@PAUSQLSERVER@@PAUSTARCONTEXT@@@Z" PURGE="12" COMMENT="" />
    <EXPORT ORDINAL="7" NAME="??0CDlgSecurityWizSheet@@QAE@PAVSWnd@@PAUSQLSERVER@@PAUSTARCONTEXT@@@Z" PURGE="12" COMMENT="" />
    <EXPORT ORDINAL="8" NAME="??0CDlgViewWizSheet@@QAE@PAVSWnd@@PAUSQLSERVER@@PAUSTARCONTEXT@@@Z" PURGE="12" COMMENT="" />
    <EXPORT ORDINAL="9" NAME="??0CRDBWizardSheet@@QAE@PAVSWnd@@PAUSQLSERVER@@@Z" PURGE="8" COMMENT="" />
    <EXPORT ORDINAL="10" NAME="?DoModal@CDlgAlertWizSheet@@UAEHXZ" PURGE="0" COMMENT="" />
    <EXPORT ORDINAL="11" NAME="?DoModal@CDlgBkupWizSheet@@UAEHXZ" PURGE="0" COMMENT="" />
    <EXPORT ORDINAL="12" NAME="?DoModal@CDlgDBMaintSheet@@UAEHXZ" PURGE="0" COMMENT="" />
    <EXPORT ORDINAL="13" NAME="?DoModal@CDlgIndexWizSheet@@UAEHXZ" PURGE="0" COMMENT="" />
    <EXPORT ORDINAL="14" NAME="?DoModal@CDlgJobWizSheet@@UAEHXZ" PURGE="0" COMMENT="" />
    <EXPORT ORDINAL="15" NAME="?DoModal@CDlgSPWizSheet@@UAEHXZ" PURGE="0" COMMENT="" />
    <EXPORT ORDINAL="16" NAME="?DoModal@CDlgSecurityWizSheet@@UAEHXZ" PURGE="0" COMMENT="" />
    <EXPORT ORDINAL="17" NAME="?DoModal@CDlgViewWizSheet@@UAEHXZ" PURGE="0" COMMENT="" />
    <EXPORT ORDINAL="18" NAME="?DoModal@CRDBWizardSheet@@UAEHXZ" PURGE="0" COMMENT="" />
    <EXPORT ORDINAL="19" NAME="?Proc@CDlgAlertWiz2@@MAEJIIJ@Z" PURGE="12" COMMENT="" />
    <EXPORT ORDINAL="20" NAME="?Proc@CDlgAlertWiz4@@MAEJIIJ@Z" PURGE="12" COMMENT="" />
    <EXPORT ORDINAL="21" NAME="?Proc@CDlgAlertWiz6@@MAEJIIJ@Z" PURGE="12" COMMENT="" />
    <EXPORT ORDINAL="22" NAME="?Proc@CDlgAlertWizPage@@MAEJIIJ@Z" PURGE="12" COMMENT="" />
    <EXPORT ORDINAL="23" NAME="?Proc@CDlgBkupWizPage2@@MAEJIIJ@Z" PURGE="12" COMMENT="" />
    <EXPORT ORDINAL="24" NAME="?Proc@CDlgBkupWizPage4@@MAEJIIJ@Z" PURGE="12" COMMENT="" />
    <EXPORT ORDINAL="25" NAME="?Proc@CDlgBkupWizPage5@@UAEJIIJ@Z" PURGE="12" COMMENT="" />
    <EXPORT ORDINAL="26" NAME="?Proc@CDlgBkupWizPage6@@UAEJIIJ@Z" PURGE="12" COMMENT="" />
    <EXPORT ORDINAL="27" NAME="?Proc@CDlgBkupWizPage@@MAEJIIJ@Z" PURGE="12" COMMENT="" />
    <EXPORT ORDINAL="28" NAME="?Proc@CDlgDBMaint1@@MAEJIIJ@Z" PURGE="12" COMMENT="" />
    <EXPORT ORDINAL="29" NAME="?Proc@CDlgDBMaint3@@EAEJIIJ@Z" PURGE="12" COMMENT="" />
    <EXPORT ORDINAL="30" NAME="?Proc@CDlgDBMaint4@@EAEJIIJ@Z" PURGE="12" COMMENT="" />
    <EXPORT ORDINAL="31" NAME="?Proc@CDlgDBMaint5@@EAEJIIJ@Z" PURGE="12" COMMENT="" />
    <EXPORT ORDINAL="32" NAME="?Proc@CDlgDBMaint6@@EAEJIIJ@Z" PURGE="12" COMMENT="" />
    <EXPORT ORDINAL="33" NAME="?Proc@CDlgDBMaint7@@EAEJIIJ@Z" PURGE="12" COMMENT="" />
    <EXPORT ORDINAL="34" NAME="?Proc@CDlgDBMaint8@@EAEJIIJ@Z" PURGE="12" COMMENT="" />
    <EXPORT ORDINAL="35" NAME="?Proc@CDlgDBMaintComplete@@MAEJIIJ@Z" PURGE="12" COMMENT="" />
    <EXPORT ORDINAL="36" NAME="?Proc@CDlgDBMaintPage@@MAEJIIJ@Z" PURGE="12" COMMENT="" />
    <EXPORT ORDINAL="37" NAME="?Proc@CDlgDBMaintWizPage@@MAEJIIJ@Z" PURGE="12" COMMENT="" />
    <EXPORT ORDINAL="38" NAME="?Proc@CDlgDBMaintWizPageB@@MAEJIIJ@Z" PURGE="12" COMMENT="" />
    <EXPORT ORDINAL="39" NAME="?Proc@CDlgDBMaintWizPageDB@@MAEJIIJ@Z" PURGE="12" COMMENT="" />
    <EXPORT ORDINAL="40" NAME="?Proc@CDlgDBMaintWizPageDisk@@MAEJIIJ@Z" PURGE="12" COMMENT="" />
    <EXPORT ORDINAL="41" NAME="?Proc@CDlgDBMaintWizPageHis@@MAEJIIJ@Z" PURGE="12" COMMENT="" />
    <EXPORT ORDINAL="42" NAME="?Proc@CDlgDBMaintWizPageInt@@MAEJIIJ@Z" PURGE="12" COMMENT="" />
    <EXPORT ORDINAL="43" NAME="?Proc@CDlgDBMaintWizPageOpt@@MAEJIIJ@Z" PURGE="12" COMMENT="" />
    <EXPORT ORDINAL="44" NAME="?Proc@CDlgDBMaintWizPageRpt@@MAEJIIJ@Z" PURGE="12" COMMENT="" />
    <EXPORT ORDINAL="45" NAME="?Proc@CDlgDBMaintWizPageTS@@MAEJIIJ@Z" PURGE="12" COMMENT="" />
    <EXPORT ORDINAL="46" NAME="?Proc@CDlgIndexWiz1@@MAEJIIJ@Z" PURGE="12" COMMENT="" />
    <EXPORT ORDINAL="47" NAME="?Proc@CDlgIndexWiz3@@MAEJIIJ@Z" PURGE="12" COMMENT="" />
    <EXPORT ORDINAL="48" NAME="?Proc@CDlgIndexWiz4@@MAEJIIJ@Z" PURGE="12" COMMENT="" />
    <EXPORT ORDINAL="49" NAME="?Proc@CDlgIndexWiz5@@MAEJIIJ@Z" PURGE="12" COMMENT="" />
    <EXPORT ORDINAL="50" NAME="?Proc@CDlgIndexWizPage@@MAEJIIJ@Z" PURGE="12" COMMENT="" />
    <EXPORT ORDINAL="51" NAME="?Proc@CDlgJobWizPage3@@MAEJIIJ@Z" PURGE="12" COMMENT="" />
    <EXPORT ORDINAL="52" NAME="?Proc@CDlgJobWizPage4@@MAEJIIJ@Z" PURGE="12" COMMENT="" />
    <EXPORT ORDINAL="53" NAME="?Proc@CDlgJobWizPage5@@MAEJIIJ@Z" PURGE="12" COMMENT="" />
    <EXPORT ORDINAL="54" NAME="?Proc@CDlgJobWizPage7@@MAEJIIJ@Z" PURGE="12" COMMENT="" />
    <EXPORT ORDINAL="55" NAME="?Proc@CDlgJobWizPage@@MAEJIIJ@Z" PURGE="12" COMMENT="" />
    <EXPORT ORDINAL="56" NAME="?Proc@CDlgMSXWizPage2@@MAEJIIJ@Z" PURGE="12" COMMENT="" />
    <EXPORT ORDINAL="57" NAME="?Proc@CDlgMSXWizPage3@@MAEJIIJ@Z" PURGE="12" COMMENT="" />
    <EXPORT ORDINAL="58" NAME="?Proc@CDlgMSXWizPage4@@MAEJIIJ@Z" PURGE="12" COMMENT="" />
    <EXPORT ORDINAL="59" NAME="?Proc@CDlgMSXWizPage5@@MAEJIIJ@Z" PURGE="12" COMMENT="" />
    <EXPORT ORDINAL="60" NAME="?Proc@CDlgMSXWizPage6@@MAEJIIJ@Z" PURGE="12" COMMENT="" />
    <EXPORT ORDINAL="61" NAME="?Proc@CDlgMSXWizPage@@MAEJIIJ@Z" PURGE="12" COMMENT="" />
    <EXPORT ORDINAL="62" NAME="?Proc@CDlgMSXWizPageF@@MAEJIIJ@Z" PURGE="12" COMMENT="" />
    <EXPORT ORDINAL="63" NAME="?Proc@CDlgSPWizPage3@@MAEJIIJ@Z" PURGE="12" COMMENT="" />
    <EXPORT ORDINAL="64" NAME="?Proc@CDlgSPWizPage5@@MAEJIIJ@Z" PURGE="12" COMMENT="" />
    <EXPORT ORDINAL="65" NAME="?Proc@CDlgSPWizPage@@MAEJIIJ@Z" PURGE="12" COMMENT="" />
    <EXPORT ORDINAL="66" NAME="?Proc@CDlgSecurityWiz3@@MAEJIIJ@Z" PURGE="12" COMMENT="" />
    <EXPORT ORDINAL="67" NAME="?Proc@CDlgSecurityWiz4@@MAEJIIJ@Z" PURGE="12" COMMENT="" />
    <EXPORT ORDINAL="68" NAME="?Proc@CDlgSecurityWiz5@@MAEJIIJ@Z" PURGE="12" COMMENT="" />
    <EXPORT ORDINAL="69" NAME="?Proc@CDlgSecurityWiz6@@MAEJIIJ@Z" PURGE="12" COMMENT="" />
    <EXPORT ORDINAL="70" NAME="?Proc@CDlgSecurityWizPage@@MAEJIIJ@Z" PURGE="12" COMMENT="" />
    <EXPORT ORDINAL="71" NAME="?Proc@CDlgShowTSNotSelectable@@MAEJIIJ@Z" PURGE="12" COMMENT="" />
    <EXPORT ORDINAL="72" NAME="?Proc@CDlgTSXWizPage2@@MAEJIIJ@Z" PURGE="12" COMMENT="" />
    <EXPORT ORDINAL="73" NAME="?Proc@CDlgTSXWizPage4@@MAEJIIJ@Z" PURGE="12" COMMENT="" />
    <EXPORT ORDINAL="74" NAME="?Proc@CDlgTSXWizPage5@@MAEJIIJ@Z" PURGE="12" COMMENT="" />
    <EXPORT ORDINAL="75" NAME="?Proc@CDlgTSXWizPage@@MAEJIIJ@Z" PURGE="12" COMMENT="" />
    <EXPORT ORDINAL="76" NAME="?Proc@CDlgViewWiz2@@MAEJIIJ@Z" PURGE="12" COMMENT="" />
    <EXPORT ORDINAL="77" NAME="?Proc@CDlgViewWiz3@@MAEJIIJ@Z" PURGE="12" COMMENT="" />
    <EXPORT ORDINAL="78" NAME="?Proc@CDlgViewWiz5@@MAEJIIJ@Z" PURGE="12" COMMENT="" />
    <EXPORT ORDINAL="79" NAME="?Proc@CDlgViewWiz6@@MAEJIIJ@Z" PURGE="12" COMMENT="" />
    <EXPORT ORDINAL="80" NAME="?Proc@CDlgViewWizPage@@MAEJIIJ@Z" PURGE="12" COMMENT="" />
    <EXPORT ORDINAL="81" NAME="?Proc@CRDBDBFileGrowthInfoPage@@MAEJIIJ@Z" PURGE="12" COMMENT="" />
    <EXPORT ORDINAL="82" NAME="?Proc@CRDBDBFileGrowthPage@@MAEJIIJ@Z" PURGE="12" COMMENT="" />
    <EXPORT ORDINAL="83" NAME="?Proc@CRDBDBFilesNamesPage@@MAEJIIJ@Z" PURGE="12" COMMENT="" />
    <EXPORT ORDINAL="84" NAME="?Proc@CRDBDBNamePage@@MAEJIIJ@Z" PURGE="12" COMMENT="" />
    <EXPORT ORDINAL="85" NAME="?Proc@CRDBFinishPage@@MAEJIIJ@Z" PURGE="12" COMMENT="" />
    <EXPORT ORDINAL="86" NAME="?Proc@CRDBLogFileGrowthInfoPage@@MAEJIIJ@Z" PURGE="12" COMMENT="" />
    <EXPORT ORDINAL="87" NAME="?Proc@CRDBLogFileGrowthPage@@MAEJIIJ@Z" PURGE="12" COMMENT="" />
    <EXPORT ORDINAL="88" NAME="?Proc@CRDBLogFilesNamesPage@@MAEJIIJ@Z" PURGE="12" COMMENT="" />
    <EXPORT ORDINAL="89" NAME="?Proc@CRDBWizardPage@@MAEJIIJ@Z" PURGE="12" COMMENT="" />
    <EXPORT ORDINAL="90" NAME="?Proc@CSPWizEditSP@@MAEJIIJ@Z" PURGE="12" COMMENT="" />
    <EXPORT ORDINAL="91" NAME="?Proc@CSPWizEditSPSQL@@MAEJIIJ@Z" PURGE="12" COMMENT="" />
    <EXPORT ORDINAL="92" NAME="AlertWizard" PURGE="0" COMMENT="" />
    <EXPORT ORDINAL="93" NAME="BackupWizard" PURGE="0" COMMENT="" />
    <EXPORT ORDINAL="94" NAME="DBMaintWizard" PURGE="0" COMMENT="" />
    <EXPORT ORDINAL="95" NAME="DBMaintWizardFromContextMenu" PURGE="0" COMMENT="" />
    <EXPORT ORDINAL="96" NAME="DatabaseWizard" PURGE="0" COMMENT="" />
    <EXPORT ORDINAL="97" NAME="IndexWizard" PURGE="0" COMMENT="" />
    <EXPORT ORDINAL="98" NAME="InitSQLWiz" PURGE="0" COMMENT="" />
    <EXPORT ORDINAL="99" NAME="JobWizard" PURGE="0" COMMENT="" />
    <EXPORT ORDINAL="100" NAME="MaintainanceWizard" PURGE="0" COMMENT="" />
    <EXPORT ORDINAL="101" NAME="MakeMSXWizard" PURGE="0" COMMENT="" />
    <EXPORT ORDINAL="102" NAME="MakeTSXWizard" PURGE="0" COMMENT="" />
    <EXPORT ORDINAL="103" NAME="SecurityWizard" PURGE="0" COMMENT="" />
    <EXPORT ORDINAL="104" NAME="StoredProceduresWizard" PURGE="0" COMMENT="" />
    <EXPORT ORDINAL="105" NAME="TermSQLWiz" PURGE="0" COMMENT="" />
    <EXPORT ORDINAL="106" NAME="ViewWizard" PURGE="0" COMMENT="" />
</LIBRARY>

