<?xml version="1.0" encoding="UTF-8"?>
<LIBRARY NAME="semwebwz.dll" PATH="/DLLArchive/etc/SEMWEBWZ.DLL" DATE="Fri Jul 03 13:15:10 PDT 2020" VERSION="1998.11.13">
    <EXPORT ORDINAL="1" NAME="??0CDlgWebWizSheet@@QAE@PAVSWnd@@PAUSQLSERVER@@H@Z" PURGE="12" COMMENT="" />
    <EXPORT ORDINAL="2" NAME="??0SBitmapListBox@@QAE@XZ" PURGE="0" COMMENT="" />
    <EXPORT ORDINAL="3" NAME="??0WebAssistantProperties@@QAE@PAVSWnd@@PAUSQLSERVER@@PAG@Z" PURGE="12" COMMENT="" />
    <EXPORT ORDINAL="4" NAME="?DeleteTriggerBasedWebTask@@YAXPAUSQLSERVER@@PAGHH@Z" PURGE="0" COMMENT="" />
    <EXPORT ORDINAL="5" NAME="?DoModal@CDlgWebWizSheet@@UAEHXZ" PURGE="0" COMMENT="" />
    <EXPORT ORDINAL="6" NAME="?DoModal@WebAssistantProperties@@UAEHXZ" PURGE="0" COMMENT="" />
    <EXPORT ORDINAL="7" NAME="?GetText@SBitmapListBox@@QBEXHAAVSString@@@Z" PURGE="8" COMMENT="" />
    <EXPORT ORDINAL="8" NAME="?Proc@CDlgWebWiz10@@MAEJIIJ@Z" PURGE="12" COMMENT="" />
    <EXPORT ORDINAL="9" NAME="?Proc@CDlgWebWiz11@@MAEJIIJ@Z" PURGE="12" COMMENT="" />
    <EXPORT ORDINAL="10" NAME="?Proc@CDlgWebWiz12@@MAEJIIJ@Z" PURGE="12" COMMENT="" />
    <EXPORT ORDINAL="11" NAME="?Proc@CDlgWebWiz13@@MAEJIIJ@Z" PURGE="12" COMMENT="" />
    <EXPORT ORDINAL="12" NAME="?Proc@CDlgWebWiz14@@MAEJIIJ@Z" PURGE="12" COMMENT="" />
    <EXPORT ORDINAL="13" NAME="?Proc@CDlgWebWiz15@@MAEJIIJ@Z" PURGE="12" COMMENT="" />
    <EXPORT ORDINAL="14" NAME="?Proc@CDlgWebWiz16@@MAEJIIJ@Z" PURGE="12" COMMENT="" />
    <EXPORT ORDINAL="15" NAME="?Proc@CDlgWebWiz17@@EAEJIIJ@Z" PURGE="12" COMMENT="" />
    <EXPORT ORDINAL="16" NAME="?Proc@CDlgWebWiz18@@MAEJIIJ@Z" PURGE="12" COMMENT="" />
    <EXPORT ORDINAL="17" NAME="?Proc@CDlgWebWiz19@@MAEJIIJ@Z" PURGE="12" COMMENT="" />
    <EXPORT ORDINAL="18" NAME="?Proc@CDlgWebWiz1@@MAEJIIJ@Z" PURGE="12" COMMENT="" />
    <EXPORT ORDINAL="19" NAME="?Proc@CDlgWebWiz20@@MAEJIIJ@Z" PURGE="12" COMMENT="" />
    <EXPORT ORDINAL="20" NAME="?Proc@CDlgWebWiz21@@MAEJIIJ@Z" PURGE="12" COMMENT="" />
    <EXPORT ORDINAL="21" NAME="?Proc@CDlgWebWiz22@@MAEJIIJ@Z" PURGE="12" COMMENT="" />
    <EXPORT ORDINAL="22" NAME="?Proc@CDlgWebWiz2@@MAEJIIJ@Z" PURGE="12" COMMENT="" />
    <EXPORT ORDINAL="23" NAME="?Proc@CDlgWebWiz3@@MAEJIIJ@Z" PURGE="12" COMMENT="" />
    <EXPORT ORDINAL="24" NAME="?Proc@CDlgWebWiz4@@MAEJIIJ@Z" PURGE="12" COMMENT="" />
    <EXPORT ORDINAL="25" NAME="?Proc@CDlgWebWiz5@@MAEJIIJ@Z" PURGE="12" COMMENT="" />
    <EXPORT ORDINAL="26" NAME="?Proc@CDlgWebWiz6@@MAEJIIJ@Z" PURGE="12" COMMENT="" />
    <EXPORT ORDINAL="27" NAME="?Proc@CDlgWebWiz7@@MAEJIIJ@Z" PURGE="12" COMMENT="" />
    <EXPORT ORDINAL="28" NAME="?Proc@CDlgWebWiz8@@MAEJIIJ@Z" PURGE="12" COMMENT="" />
    <EXPORT ORDINAL="29" NAME="?Proc@CDlgWebWiz9@@MAEJIIJ@Z" PURGE="12" COMMENT="" />
    <EXPORT ORDINAL="30" NAME="?Proc@CDlgWebWizE1@@MAEJIIJ@Z" PURGE="12" COMMENT="" />
    <EXPORT ORDINAL="31" NAME="?Proc@CDlgWebWizE2@@MAEJIIJ@Z" PURGE="12" COMMENT="" />
    <EXPORT ORDINAL="32" NAME="?Proc@CDlgWebWizNYI@@MAEJIIJ@Z" PURGE="12" COMMENT="" />
    <EXPORT ORDINAL="33" NAME="?Proc@CDlgWebWizPage@@MAEJIIJ@Z" PURGE="12" COMMENT="" />
    <EXPORT ORDINAL="34" NAME="?Proc@WebAssistantGeneral@@MAEJIIJ@Z" PURGE="12" COMMENT="" />
    <EXPORT ORDINAL="35" NAME="?RefreshStoredProcs@@YAXPAUSQLSERVER@@PAG@Z" PURGE="0" COMMENT="" />
    <EXPORT ORDINAL="36" NAME="?RunWebTask@@YAXPAVSWnd@@PAUSQLSERVER@@PAG@Z" PURGE="0" COMMENT="" />
    <EXPORT ORDINAL="37" NAME="InitSQLWebWiz" PURGE="0" COMMENT="" />
    <EXPORT ORDINAL="38" NAME="TermSQLWebWiz" PURGE="0" COMMENT="" />
    <EXPORT ORDINAL="39" NAME="WebWizardEntry" PURGE="0" COMMENT="" />
    <EXPORT ORDINAL="40" NAME="WebWizardFromExeStub" PURGE="0" COMMENT="" />
</LIBRARY>

