<?xml version="1.0" encoding="UTF-8"?>
<LIBRARY NAME="sinfcmn.dll" PATH="/DLLArchive/etc/sinfcmn.dll" DATE="Fri Jul 03 13:16:34 PDT 2020" VERSION="10.0.20.1.US.1       ">
    <EXPORT ORDINAL="1" NAME="??0CAolSysInfoPage@@QAE@II@Z" PURGE="8" COMMENT="" />
    <EXPORT ORDINAL="2" NAME="??0CAolSysInfoPage@@QAE@XZ" PURGE="0" COMMENT="" />
    <EXPORT ORDINAL="3" NAME="??0CMultiOS@@QAE@ABV0@@Z" PURGE="4" COMMENT="" />
    <EXPORT ORDINAL="4" NAME="??0CMultiOS@@QAE@XZ" PURGE="0" COMMENT="" />
    <EXPORT ORDINAL="5" NAME="??1CAolSysInfoPage@@UAE@XZ" PURGE="0" COMMENT="" />
    <EXPORT ORDINAL="6" NAME="??4CGeckoUtil@@QAEAAV0@ABV0@@Z" PURGE="4" COMMENT="" />
    <EXPORT ORDINAL="7" NAME="??4CMultiOS@@QAEAAV0@ABV0@@Z" PURGE="4" COMMENT="" />
    <EXPORT ORDINAL="8" NAME="??_7CAolSysInfoPage@@6B@" PURGE="-1" COMMENT="" />
    <EXPORT ORDINAL="9" NAME="??_7CMultiOS@@6B@" PURGE="-1" COMMENT="" />
    <EXPORT ORDINAL="10" NAME="?AOLGetWindowDirEx@CAolSysInfoPage@@QAEHHPADH@Z" PURGE="12" COMMENT="" />
    <EXPORT ORDINAL="11" NAME="?AddLinkListItem@CAolSysInfoPage@@QAEXGPAEG@Z" PURGE="12" COMMENT="" />
    <EXPORT ORDINAL="12" NAME="?ClearAllCaches@CGeckoUtil@@SAHXZ" PURGE="0" COMMENT="" />
    <EXPORT ORDINAL="13" NAME="?ClearLinkList@CAolSysInfoPage@@QAEXXZ" PURGE="-1" COMMENT="" />
    <EXPORT ORDINAL="14" NAME="?CreateObject@CAolSysInfoPage@@SGPAVCObject@@XZ" PURGE="0" COMMENT="" />
    <EXPORT ORDINAL="15" NAME="?DeleteLinkListItem@CAolSysInfoPage@@QAEHG@Z" PURGE="4" COMMENT="" />
    <EXPORT ORDINAL="16" NAME="?DoDataExchange@CAolSysInfoPage@@MAEXPAVCDataExchange@@@Z" PURGE="4" COMMENT="" />
    <EXPORT ORDINAL="17" NAME="?FindAolShareDir@CAolSysInfoPage@@QAEHABV?$CStringT@DV?$StrTraitMFC_DLL@DV?$ChTraitsCRT@D@ATL@@@@@ATL@@@Z" PURGE="4" COMMENT="" />
    <EXPORT ORDINAL="18" NAME="?FindClientType@CAolSysInfoPage@@QAEXXZ" PURGE="0" COMMENT="" />
    <EXPORT ORDINAL="19" NAME="?FindCsShareDir@CAolSysInfoPage@@QAEHABV?$CStringT@DV?$StrTraitMFC_DLL@DV?$ChTraitsCRT@D@ATL@@@@@ATL@@@Z" PURGE="4" COMMENT="" />
    <EXPORT ORDINAL="20" NAME="?FindIniFilePath@CAolSysInfoPage@@QAEXABV?$CStringT@DV?$StrTraitMFC_DLL@DV?$ChTraitsCRT@D@ATL@@@@@ATL@@0@Z" PURGE="8" COMMENT="" />
    <EXPORT ORDINAL="21" NAME="?FindLinkListItem@CAolSysInfoPage@@QAEPAEG@Z" PURGE="4" COMMENT="" />
    <EXPORT ORDINAL="22" NAME="?GetAolPath@CAolSysInfoPage@@QAEABV?$CStringT@DV?$StrTraitMFC_DLL@DV?$ChTraitsCRT@D@ATL@@@@@ATL@@XZ" PURGE="0" COMMENT="" />
    <EXPORT ORDINAL="23" NAME="?GetBrowserBrand@CGeckoUtil@@SA?AV?$CStringT@DV?$StrTraitMFC_DLL@DV?$ChTraitsCRT@D@ATL@@@@@ATL@@XZ" PURGE="0" COMMENT="" />
    <EXPORT ORDINAL="24" NAME="?GetCacheSizes@CGeckoUtil@@SAHAAK0@Z" PURGE="0" COMMENT="" />
    <EXPORT ORDINAL="25" NAME="?GetClientType@CAolSysInfoPage@@QAEHXZ" PURGE="0" COMMENT="" />
    <EXPORT ORDINAL="26" NAME="?GetCmdLine@CAolSysInfoPage@@QAEXAAV?$CStringT@DV?$StrTraitMFC_DLL@DV?$ChTraitsCRT@D@ATL@@@@@ATL@@@Z" PURGE="4" COMMENT="" />
    <EXPORT ORDINAL="27" NAME="?GetDllPath@CAolSysInfoPage@@QAEABV?$CStringT@DV?$StrTraitMFC_DLL@DV?$ChTraitsCRT@D@ATL@@@@@ATL@@XZ" PURGE="0" COMMENT="" />
    <EXPORT ORDINAL="28" NAME="?GetMessageMap@CAolSysInfoPage@@MBEPBUAFX_MSGMAP@@XZ" PURGE="0" COMMENT="" />
    <EXPORT ORDINAL="29" NAME="?GetProfileData@CAolSysInfoPage@@UAEPBDPADPAH@Z" PURGE="8" COMMENT="" />
    <EXPORT ORDINAL="30" NAME="?GetRuntimeClass@CAolSysInfoPage@@UBEPAUCRuntimeClass@@XZ" PURGE="0" COMMENT="" />
    <EXPORT ORDINAL="31" NAME="?GetSharedIniPath@CAolSysInfoPage@@QAEABV?$CStringT@DV?$StrTraitMFC_DLL@DV?$ChTraitsCRT@D@ATL@@@@@ATL@@XZ" PURGE="0" COMMENT="" />
    <EXPORT ORDINAL="32" NAME="?GetSharedPath@CAolSysInfoPage@@QAEABV?$CStringT@DV?$StrTraitMFC_DLL@DV?$ChTraitsCRT@D@ATL@@@@@ATL@@XZ" PURGE="0" COMMENT="" />
    <EXPORT ORDINAL="33" NAME="?GetSheet@CAolSysInfoPage@@QAEPAVCPropertySheet@@XZ" PURGE="0" COMMENT="" />
    <EXPORT ORDINAL="34" NAME="?GetSysinfoIniPath@CAolSysInfoPage@@QAEABV?$CStringT@DV?$StrTraitMFC_DLL@DV?$ChTraitsCRT@D@ATL@@@@@ATL@@XZ" PURGE="0" COMMENT="" />
    <EXPORT ORDINAL="35" NAME="?GetTabPosition@CAolSysInfoPage@@UAEIXZ" PURGE="0" COMMENT="" />
    <EXPORT ORDINAL="36" NAME="?GetThisClass@CAolSysInfoPage@@SGPAUCRuntimeClass@@XZ" PURGE="0" COMMENT="" />
    <EXPORT ORDINAL="37" NAME="?GetThisMessageMap@CAolSysInfoPage@@KGPBUAFX_MSGMAP@@XZ" PURGE="0" COMMENT="" />
    <EXPORT ORDINAL="38" NAME="?Init@CGeckoUtil@@SAXPBD@Z" PURGE="0" COMMENT="" />
    <EXPORT ORDINAL="39" NAME="?IsGeckoBrowser@CGeckoUtil@@SAHXZ" PURGE="0" COMMENT="" />
    <EXPORT ORDINAL="40" NAME="?IsValidDir@CAolSysInfoPage@@QAEHABV?$CStringT@DV?$StrTraitMFC_DLL@DV?$ChTraitsCRT@D@ATL@@@@@ATL@@@Z" PURGE="4" COMMENT="" />
    <EXPORT ORDINAL="41" NAME="?ParseCmdLine@CAolSysInfoPage@@QBEHABV?$CStringT@DV?$StrTraitMFC_DLL@DV?$ChTraitsCRT@D@ATL@@@@@ATL@@@Z" PURGE="4" COMMENT="" />
    <EXPORT ORDINAL="42" NAME="?ReadFileVersion@CAolSysInfoPage@@QAEHPAD0@Z" PURGE="8" COMMENT="" />
    <EXPORT ORDINAL="43" NAME="?RunSilent@CAolSysInfoPage@@UAEXXZ" PURGE="0" COMMENT="" />
    <EXPORT ORDINAL="44" NAME="?SetClientType@CAolSysInfoPage@@QAEXH@Z" PURGE="4" COMMENT="" />
    <EXPORT ORDINAL="45" NAME="?SetCmdLine@CAolSysInfoPage@@QAEXABV?$CStringT@DV?$StrTraitMFC_DLL@DV?$ChTraitsCRT@D@ATL@@@@@ATL@@@Z" PURGE="-1" COMMENT="" />
    <EXPORT ORDINAL="46" NAME="?SetRunFromCDFlag@CAolSysInfoPage@@QAEXH@Z" PURGE="4" COMMENT="" />
    <EXPORT ORDINAL="47" NAME="?SetSheet@CAolSysInfoPage@@QAEXPAVCPropertySheet@@@Z" PURGE="4" COMMENT="" />
    <EXPORT ORDINAL="48" NAME="?SetSilentModeFlag@CAolSysInfoPage@@QAEXH@Z" PURGE="4" COMMENT="" />
    <EXPORT ORDINAL="49" NAME="?_messageEntries@CAolSysInfoPage@@0QBUAFX_MSGMAP_ENTRY@@B" PURGE="-1" COMMENT="" />
    <EXPORT ORDINAL="50" NAME="?classCAolSysInfoPage@CAolSysInfoPage@@2UCRuntimeClass@@B" PURGE="-1" COMMENT="" />
    <EXPORT ORDINAL="51" NAME="?getLastErrorMsg@CMultiOS@@IAEXXZ" PURGE="0" COMMENT="" />
    <EXPORT ORDINAL="52" NAME="?getOSClassPointer@@YAPAVCMultiOS@@XZ" PURGE="0" COMMENT="" />
    <EXPORT ORDINAL="53" NAME="?messageMap@CAolSysInfoPage@@1UAFX_MSGMAP@@B" PURGE="-1" COMMENT="" />
    <EXPORT ORDINAL="54" NAME="checkRegistryForInstalledModem" PURGE="0" COMMENT="" />
    <EXPORT ORDINAL="55" NAME="deleteOSObject" PURGE="0" COMMENT="" />
    <EXPORT ORDINAL="56" NAME="detectNIC" PURGE="-1" COMMENT="" />
    <EXPORT ORDINAL="57" NAME="detectUSB" PURGE="-1" COMMENT="" />
    <EXPORT ORDINAL="58" NAME="getAdapters" PURGE="0" COMMENT="" />
    <EXPORT ORDINAL="59" NAME="getPortIRQAddress" PURGE="0" COMMENT="" />
    <EXPORT ORDINAL="60" NAME="instantiateOSObject" PURGE="0" COMMENT="" />
    <EXPORT ORDINAL="61" NAME="showDeviceConflicts" PURGE="0" COMMENT="" />
    <EXPORT ORDINAL="62" NAME="showNetworkPanel" PURGE="-1" COMMENT="" />
    <EXPORT ORDINAL="63" NAME="uninstallAOLAdapter" PURGE="0" COMMENT="" />
</LIBRARY>

