<?xml version="1.0" encoding="UTF-8"?>
<LIBRARY NAME="sisapcom.dll" PATH="/DLLArchive/etc/SiSApCom.dll" DATE="Fri Jul 03 22:16:36 CEST 2020" VERSION="6.14.10.2210">
    <EXPORT ORDINAL="1" NAME="GetHWKeyCount" PURGE="0" COMMENT="" />
    <EXPORT ORDINAL="2" NAME="GetHardwareKey" PURGE="0" COMMENT="" />
    <EXPORT ORDINAL="3" NAME="GetSoftwareKey" PURGE="0" COMMENT="" />
    <EXPORT ORDINAL="4" NAME="UpdateTempINF" PURGE="0" COMMENT="" />
    <EXPORT ORDINAL="5" NAME="WriteKeyStringExp" PURGE="0" COMMENT="" />
    <EXPORT ORDINAL="6" NAME="WriteKeyDWORDExp" PURGE="0" COMMENT="" />
    <EXPORT ORDINAL="7" NAME="WriteKeyByteExp" PURGE="0" COMMENT="" />
    <EXPORT ORDINAL="8" NAME="GetCurrentOSExp" PURGE="0" COMMENT="" />
    <EXPORT ORDINAL="9" NAME="??0CDDMM@@QAE@ABV0@@Z" PURGE="4" COMMENT="" />
    <EXPORT ORDINAL="10" NAME="??0CDDMM@@QAE@XZ" PURGE="0" COMMENT="" />
    <EXPORT ORDINAL="11" NAME="??0CSiSEsc@@QAE@ABV0@@Z" PURGE="4" COMMENT="" />
    <EXPORT ORDINAL="12" NAME="??0CSiSEsc@@QAE@XZ" PURGE="0" COMMENT="" />
    <EXPORT ORDINAL="13" NAME="??0CSiSEscExt@@QAE@XZ" PURGE="0" COMMENT="" />
    <EXPORT ORDINAL="14" NAME="??0CSiSTool@@QAE@ABV0@@Z" PURGE="4" COMMENT="" />
    <EXPORT ORDINAL="15" NAME="??0CSiSTool@@QAE@XZ" PURGE="0" COMMENT="" />
    <EXPORT ORDINAL="16" NAME="??1CDDMM@@UAE@XZ" PURGE="0" COMMENT="" />
    <EXPORT ORDINAL="17" NAME="??1CSiSEsc@@UAE@XZ" PURGE="-1" COMMENT="" />
    <EXPORT ORDINAL="18" NAME="??1CSiSEscExt@@UAE@XZ" PURGE="0" COMMENT="" />
    <EXPORT ORDINAL="19" NAME="??1CSiSTool@@UAE@XZ" PURGE="0" COMMENT="" />
    <EXPORT ORDINAL="20" NAME="??4CDDMM@@QAEAAV0@ABV0@@Z" PURGE="4" COMMENT="" />
    <EXPORT ORDINAL="21" NAME="??4CSiSEsc@@QAEAAV0@ABV0@@Z" PURGE="4" COMMENT="" />
    <EXPORT ORDINAL="22" NAME="??4CSiSTool@@QAEAAV0@ABV0@@Z" PURGE="4" COMMENT="" />
    <EXPORT ORDINAL="23" NAME="??_7CDDMM@@6B@" PURGE="-1" COMMENT="" />
    <EXPORT ORDINAL="24" NAME="??_7CSiSEsc@@6B@" PURGE="-1" COMMENT="" />
    <EXPORT ORDINAL="25" NAME="??_7CSiSEscExt@@6B@" PURGE="-1" COMMENT="" />
    <EXPORT ORDINAL="26" NAME="??_7CSiSTool@@6B@" PURGE="-1" COMMENT="" />
    <EXPORT ORDINAL="27" NAME="?BPPToIndex@CSiSEscExt@@SAHH@Z" PURGE="0" COMMENT="" />
    <EXPORT ORDINAL="28" NAME="?CanZoomInOut@CSiSEsc@@QAEHPBDK@Z" PURGE="8" COMMENT="" />
    <EXPORT ORDINAL="29" NAME="?DDrawSupport@CSiSEsc@@QAEHKPAK@Z" PURGE="8" COMMENT="" />
    <EXPORT ORDINAL="30" NAME="?DDrawSupportGetDriverName@CSiSEsc@@QAEHPADH@Z" PURGE="8" COMMENT="" />
    <EXPORT ORDINAL="31" NAME="?DeviceCall@CSiSEsc@@QAEHHPADH0H@Z" PURGE="20" COMMENT="" />
    <EXPORT ORDINAL="32" NAME="?DirectDrawCreateFromDevice@CDDMM@@SAPAUIDirectDraw@@PAD@Z" PURGE="0" COMMENT="" />
    <EXPORT ORDINAL="33" NAME="?DirectDrawCreateFromWindow@CDDMM@@SAPAUIDirectDraw@@PAUHWND__@@@Z" PURGE="0" COMMENT="" />
    <EXPORT ORDINAL="34" NAME="?DirectDrawDeviceFromWindow@CDDMM@@SAHPAUHWND__@@PADPAUtagRECT@@@Z" PURGE="0" COMMENT="" />
    <EXPORT ORDINAL="35" NAME="?DisableZoomInOut@CSiSEsc@@QAEHK@Z" PURGE="4" COMMENT="" />
    <EXPORT ORDINAL="36" NAME="?Display2IsPrimary@CSiSEscExt@@QAEHXZ" PURGE="0" COMMENT="" />
    <EXPORT ORDINAL="37" NAME="?EnableZoomVirtual@CSiSEsc@@QAEHHK@Z" PURGE="8" COMMENT="" />
    <EXPORT ORDINAL="38" NAME="?ExtractDeviceVenderID@CSiSEscExt@@QAE?AVCString@@PBD@Z" PURGE="8" COMMENT="" />
    <EXPORT ORDINAL="39" NAME="?ExtractSWKey@CSiSEscExt@@QAE?AVCString@@PBD@Z" PURGE="8" COMMENT="" />
    <EXPORT ORDINAL="40" NAME="?Get128xCos@CSiSEsc@@QAEHH@Z" PURGE="4" COMMENT="" />
    <EXPORT ORDINAL="41" NAME="?Get128xSin@CSiSEsc@@QAEHH@Z" PURGE="4" COMMENT="" />
    <EXPORT ORDINAL="42" NAME="?GetAngle@CSiSEsc@@QAEHHH@Z" PURGE="8" COMMENT="" />
    <EXPORT ORDINAL="43" NAME="?GetChipInfo_OC_0x6310@CSiSEsc@@QAEHPAUSISESC_OC_GETCHIPINFO_OUT@@@Z" PURGE="4" COMMENT="" />
    <EXPORT ORDINAL="44" NAME="?GetCurRefreshRate@CSiSEsc@@QAEHPAK@Z" PURGE="4" COMMENT="" />
    <EXPORT ORDINAL="45" NAME="?GetCurrentOS@CSiSTool@@SAKXZ" PURGE="0" COMMENT="" />
    <EXPORT ORDINAL="46" NAME="?GetDDCProtect@CSiSEsc@@QAEHPAK@Z" PURGE="4" COMMENT="" />
    <EXPORT ORDINAL="47" NAME="?GetDisplayDeviceNameFromWnd@CSiSTool@@SAHPAUHWND__@@PAD@Z" PURGE="0" COMMENT="" />
    <EXPORT ORDINAL="48" NAME="?GetDriverMode0x09@CSiSEsc@@QAEHPAK@Z" PURGE="4" COMMENT="" />
    <EXPORT ORDINAL="49" NAME="?GetDriverMode0x0c@CSiSEsc@@QAEHPAK@Z" PURGE="4" COMMENT="" />
    <EXPORT ORDINAL="50" NAME="?GetDriverMode0x0e@CSiSEsc@@QAEHPAK00PAG1QAU__unnamed@@QAY13BA@G3@Z" PURGE="32" COMMENT="" />
    <EXPORT ORDINAL="51" NAME="?GetDriverMode@CSiSEscExt@@QAE?AW4_DRIVERMODE@@XZ" PURGE="0" COMMENT="" />
    <EXPORT ORDINAL="52" NAME="?GetEscFunctionID@CSiSEsc@@QAEKK@Z" PURGE="4" COMMENT="" />
    <EXPORT ORDINAL="53" NAME="?GetEscVersion@CSiSEsc@@QAEKXZ" PURGE="0" COMMENT="" />
    <EXPORT ORDINAL="54" NAME="?GetGammaColorEnhancement@CSiSEsc@@QAEHKKPAH@Z" PURGE="12" COMMENT="" />
    <EXPORT ORDINAL="55" NAME="?GetGammaRamp@CSiSEsc@@QAEHKPAE00@Z" PURGE="16" COMMENT="" />
    <EXPORT ORDINAL="56" NAME="?GetHWKey@CSiSEscExt@@QAEHPADPBD@Z" PURGE="8" COMMENT="" />
    <EXPORT ORDINAL="57" NAME="?GetHWKeyList@CSiSEscExt@@QAEHPBDAAVCStringList@@@Z" PURGE="8" COMMENT="" />
    <EXPORT ORDINAL="58" NAME="?GetHotkeyEvent@CSiSEsc@@QAEHPAK@Z" PURGE="4" COMMENT="" />
    <EXPORT ORDINAL="59" NAME="?GetInfData@CSiSEscExt@@QAE?AVCString@@PBD00@Z" PURGE="16" COMMENT="" />
    <EXPORT ORDINAL="60" NAME="?GetInfo4Win9X@CSiSEsc@@QAEHPAUSISESC_GETINFO_OUT_9X@@@Z" PURGE="4" COMMENT="" />
    <EXPORT ORDINAL="61" NAME="?GetInfo4WinNT@CSiSEsc@@QAEHPAUSISESC_GETINFO_OUT_NT@@@Z" PURGE="4" COMMENT="" />
    <EXPORT ORDINAL="62" NAME="?GetLogicalOutputDevice@CSiSEscExt@@QAEHPAK0@Z" PURGE="8" COMMENT="" />
    <EXPORT ORDINAL="63" NAME="?GetMode@CSiSEsc@@QAEHPAK@Z" PURGE="4" COMMENT="" />
    <EXPORT ORDINAL="64" NAME="?GetMonitorRectFromDeviceName@CSiSTool@@SA?AUtagRECT@@PAD@Z" PURGE="0" COMMENT="" />
    <EXPORT ORDINAL="65" NAME="?GetPhysicalOutputDevice@CSiSEscExt@@QAEHPAK0@Z" PURGE="8" COMMENT="" />
    <EXPORT ORDINAL="66" NAME="?GetPosition@CSiSEsc@@QAEHPAK0@Z" PURGE="8" COMMENT="" />
    <EXPORT ORDINAL="67" NAME="?GetPosition@CSiSEsc@@QAEHPAK0K@Z" PURGE="12" COMMENT="" />
    <EXPORT ORDINAL="68" NAME="?GetPrimaryDisplayDeviceName@CSiSTool@@SAHAAVCString@@@Z" PURGE="0" COMMENT="" />
    <EXPORT ORDINAL="69" NAME="?GetRefreshLmt@CSiSEsc@@QAEHPAUtagRefreshPack@@PAFH@Z" PURGE="12" COMMENT="" />
    <EXPORT ORDINAL="70" NAME="?GetRegVal@CSiSEsc@@QAEHPADPAEPAK@Z" PURGE="12" COMMENT="" />
    <EXPORT ORDINAL="71" NAME="?GetSWKeyList@CSiSEscExt@@QAEHPAVCStringList@@@Z" PURGE="4" COMMENT="" />
    <EXPORT ORDINAL="72" NAME="?GetSWKeyWithoutDriver@CSiSEscExt@@QAEHPADPBD1H@Z" PURGE="16" COMMENT="" />
    <EXPORT ORDINAL="73" NAME="?GetSiSHWKeyFromList@CSiSEscExt@@QAEHHPAD@Z" PURGE="8" COMMENT="" />
    <EXPORT ORDINAL="74" NAME="?GetSiSHWKeyList@CSiSEscExt@@QAEHPBD@Z" PURGE="4" COMMENT="" />
    <EXPORT ORDINAL="75" NAME="?GetTVAntiFlicker@CSiSEscExt@@QAEHHHPAH@Z" PURGE="12" COMMENT="" />
    <EXPORT ORDINAL="76" NAME="?GetTVChrominance@CSiSEscExt@@QAEHHHPAH@Z" PURGE="12" COMMENT="" />
    <EXPORT ORDINAL="77" NAME="?GetTVColor@CSiSEsc@@QAEHHHHUTVCOLOR_ITEM@@PAU2@@Z" PURGE="32" COMMENT="" />
    <EXPORT ORDINAL="78" NAME="?GetTVColorCoarseTune@CSiSEscExt@@QAEHHHPAH@Z" PURGE="12" COMMENT="" />
    <EXPORT ORDINAL="79" NAME="?GetTVColorFineTune@CSiSEscExt@@QAEHHHPAH@Z" PURGE="12" COMMENT="" />
    <EXPORT ORDINAL="80" NAME="?GetTVEdgeEnhancement@CSiSEscExt@@QAEHHHPAH@Z" PURGE="12" COMMENT="" />
    <EXPORT ORDINAL="81" NAME="?GetTVFilter@CSiSEsc@@QAEHHHKPAK@Z" PURGE="16" COMMENT="" />
    <EXPORT ORDINAL="82" NAME="?GetTVMode@CSiSEscExt@@QAE?AW4_TVMODE@@HPAH@Z" PURGE="8" COMMENT="" />
    <EXPORT ORDINAL="83" NAME="?GetTVModeData@CSiSEsc@@QAEHHPAG0@Z" PURGE="12" COMMENT="" />
    <EXPORT ORDINAL="84" NAME="?GetTVPluggerType@CSiSEscExt@@QAE?AW4_TVPLUGGER@@HPAH@Z" PURGE="8" COMMENT="" />
    <EXPORT ORDINAL="85" NAME="?GetTVScanMode@CSiSEsc@@QAEHHHPAH0@Z" PURGE="16" COMMENT="" />
    <EXPORT ORDINAL="86" NAME="?GetTVType@CSiSEscExt@@QAEKH@Z" PURGE="4" COMMENT="" />
    <EXPORT ORDINAL="87" NAME="?GetTVYFilter@CSiSEscExt@@QAEHHHPAH@Z" PURGE="12" COMMENT="" />
    <EXPORT ORDINAL="88" NAME="?GetUtilityState@CSiSEsc@@QAEHPAUSISESC_GETUTILITYSTATE_OUT@@@Z" PURGE="4" COMMENT="" />
    <EXPORT ORDINAL="89" NAME="?GetVideoData@CSiSEsc@@QAEHHHHPAUSISESC_VIDEO_OUT@@@Z" PURGE="16" COMMENT="" />
    <EXPORT ORDINAL="90" NAME="?GetVideoGammaRamp@CSiSEsc@@QAEHKPAUSISESC_VIDEOGAMMARAMP_OUT@@@Z" PURGE="8" COMMENT="" />
    <EXPORT ORDINAL="91" NAME="?GetZoomInOutSizePos@CSiSEsc@@QAEHAAG000K@Z" PURGE="20" COMMENT="" />
    <EXPORT ORDINAL="92" NAME="?HotPlug@CSiSEsc@@QAEHPAK0@Z" PURGE="8" COMMENT="" />
    <EXPORT ORDINAL="93" NAME="?Init@CSiSEscExt@@QAEHPAD@Z" PURGE="4" COMMENT="" />
    <EXPORT ORDINAL="94" NAME="?Init@CSiSEscExt@@QAEHPAVCWnd@@@Z" PURGE="4" COMMENT="" />
    <EXPORT ORDINAL="95" NAME="?InitialDriver@CSiSEsc@@QAEHXZ" PURGE="0" COMMENT="" />
    <EXPORT ORDINAL="96" NAME="?IsExistFile@CSiSTool@@SAHPBD0@Z" PURGE="0" COMMENT="" />
    <EXPORT ORDINAL="97" NAME="?IsOverLayOn@CSiSEsc@@QAEHPAH@Z" PURGE="4" COMMENT="" />
    <EXPORT ORDINAL="98" NAME="?IsPrimaryMonitor@CSiSTool@@SAHPBD@Z" PURGE="0" COMMENT="" />
    <EXPORT ORDINAL="99" NAME="?IsStereoEnable@CSiSEscExt@@QAEHXZ" PURGE="0" COMMENT="" />
    <EXPORT ORDINAL="100" NAME="?IsStereoPageEnable@CSiSEscExt@@QAEHXZ" PURGE="0" COMMENT="" />
    <EXPORT ORDINAL="101" NAME="?IsSupportMultiMonitorOS@CSiSTool@@SAHXZ" PURGE="0" COMMENT="" />
    <EXPORT ORDINAL="102" NAME="?IsSupportQuickResolutionSettings@CSiSTool@@SAHXZ" PURGE="0" COMMENT="" />
    <EXPORT ORDINAL="103" NAME="?IsSupportUtility@CSiSEscExt@@QAEHK@Z" PURGE="4" COMMENT="" />
    <EXPORT ORDINAL="104" NAME="?MacroVision@CSiSEsc@@QAEHPAK@Z" PURGE="4" COMMENT="" />
    <EXPORT ORDINAL="105" NAME="?MoveZoomInOut@CSiSEsc@@QAEHGGK@Z" PURGE="12" COMMENT="" />
    <EXPORT ORDINAL="106" NAME="?OSDEvent@CSiSEsc@@QAEHKPAK@Z" PURGE="8" COMMENT="" />
    <EXPORT ORDINAL="107" NAME="?ParsingKeyName@CSiSEscExt@@QAEHPAD0DD@Z" PURGE="16" COMMENT="" />
    <EXPORT ORDINAL="108" NAME="?QueryMode@CSiSEsc@@QAEHPAK@Z" PURGE="4" COMMENT="" />
    <EXPORT ORDINAL="109" NAME="?QuerySupportTVMode@CSiSEsc@@QAEHHPAK@Z" PURGE="8" COMMENT="" />
    <EXPORT ORDINAL="110" NAME="?ReadKeyByte4Win9X@CSiSEscExt@@QAEHPADPAEPAK0PAUHKEY__@@K@Z" PURGE="24" COMMENT="" />
    <EXPORT ORDINAL="111" NAME="?ReadKeyByte4WinNT@CSiSEscExt@@QAEHPADPAEPAK0PAUHKEY__@@K@Z" PURGE="24" COMMENT="" />
    <EXPORT ORDINAL="112" NAME="?ReadKeyByte@CSiSEscExt@@QAEHPADPAEPAK00PAUHKEY__@@K@Z" PURGE="28" COMMENT="" />
    <EXPORT ORDINAL="113" NAME="?ReadKeyDWORD4Win9X@CSiSEscExt@@QAEHPADPAK0PAUHKEY__@@K@Z" PURGE="20" COMMENT="" />
    <EXPORT ORDINAL="114" NAME="?ReadKeyDWORD4WinNT@CSiSEscExt@@QAEHPADPAK0PAUHKEY__@@K@Z" PURGE="20" COMMENT="" />
    <EXPORT ORDINAL="115" NAME="?ReadKeyDWORD@CSiSEscExt@@QAEHPADPAK00PAUHKEY__@@K@Z" PURGE="24" COMMENT="" />
    <EXPORT ORDINAL="116" NAME="?ReadKeyString4Win9X@CSiSEscExt@@QAEHPAD0H0PAUHKEY__@@K@Z" PURGE="24" COMMENT="" />
    <EXPORT ORDINAL="117" NAME="?ReadKeyString4WinNT@CSiSEscExt@@QAEHPAD0H0PAUHKEY__@@K@Z" PURGE="24" COMMENT="" />
    <EXPORT ORDINAL="118" NAME="?ReadKeyString@CSiSEscExt@@QAEHPAD0H00PAUHKEY__@@K@Z" PURGE="28" COMMENT="" />
    <EXPORT ORDINAL="119" NAME="?RegGetFrameRate@CSiSEscExt@@QAEHHHHPBD0@Z" PURGE="20" COMMENT="" />
    <EXPORT ORDINAL="120" NAME="?RegSetFrameRate@CSiSEscExt@@QAEHHHHHPBD00@Z" PURGE="28" COMMENT="" />
    <EXPORT ORDINAL="121" NAME="?RegSetResBPP@CSiSEscExt@@QAEHHHHPBD0@Z" PURGE="20" COMMENT="" />
    <EXPORT ORDINAL="122" NAME="?ResetHotkeyEvent@CSiSEsc@@QAEHKH@Z" PURGE="8" COMMENT="" />
    <EXPORT ORDINAL="123" NAME="?ResetPosition@CSiSEsc@@QAEHK@Z" PURGE="4" COMMENT="" />
    <EXPORT ORDINAL="124" NAME="?ResetPosition@CSiSEsc@@QAEHXZ" PURGE="0" COMMENT="" />
    <EXPORT ORDINAL="125" NAME="?SetClock_OC_0x6310@CSiSEsc@@QAEHKKKPAUSISESC_OC_SETCLOCK_OUT@@@Z" PURGE="16" COMMENT="" />
    <EXPORT ORDINAL="126" NAME="?SetCurWnd@CSiSEsc@@QAEXPAVCWnd@@@Z" PURGE="4" COMMENT="" />
    <EXPORT ORDINAL="127" NAME="?SetDDCProtect@CSiSEsc@@QAEHK@Z" PURGE="4" COMMENT="" />
    <EXPORT ORDINAL="128" NAME="?SetDeviceName@CSiSEsc@@QAEXPAD@Z" PURGE="4" COMMENT="" />
    <EXPORT ORDINAL="129" NAME="?SetDriverMode0x0e@CSiSEsc@@QAEHQAKKHPAG1QAU__unnamed@@QAY13BA@G3@Z" PURGE="32" COMMENT="" />
    <EXPORT ORDINAL="130" NAME="?SetEscVersion@CSiSEsc@@QAEXK@Z" PURGE="4" COMMENT="" />
    <EXPORT ORDINAL="131" NAME="?SetGammaColorEnhancement@CSiSEsc@@QAEHKH@Z" PURGE="8" COMMENT="" />
    <EXPORT ORDINAL="132" NAME="?SetGammaRamp@CSiSEsc@@QAEHKPAE00@Z" PURGE="16" COMMENT="" />
    <EXPORT ORDINAL="133" NAME="?SetPosition@CSiSEsc@@QAEHHH@Z" PURGE="8" COMMENT="" />
    <EXPORT ORDINAL="134" NAME="?SetPosition@CSiSEsc@@QAEHHHK@Z" PURGE="12" COMMENT="" />
    <EXPORT ORDINAL="135" NAME="?SetRefreshLmt@CSiSEsc@@QAEHPAUtagRefreshPack@@FH@Z" PURGE="12" COMMENT="" />
    <EXPORT ORDINAL="136" NAME="?SetTVAntiFlicker@CSiSEscExt@@QAEHHHH@Z" PURGE="12" COMMENT="" />
    <EXPORT ORDINAL="137" NAME="?SetTVChrominance@CSiSEscExt@@QAEHHHH@Z" PURGE="12" COMMENT="" />
    <EXPORT ORDINAL="138" NAME="?SetTVColor@CSiSEsc@@QAEHHHHUTVCOLOR_ITEM@@@Z" PURGE="28" COMMENT="" />
    <EXPORT ORDINAL="139" NAME="?SetTVColorCalibrationTune@CSiSEscExt@@QAEHHHHH@Z" PURGE="16" COMMENT="" />
    <EXPORT ORDINAL="140" NAME="?SetTVEdgeEnhancement@CSiSEscExt@@QAEHHHH@Z" PURGE="12" COMMENT="" />
    <EXPORT ORDINAL="141" NAME="?SetTVFilter@CSiSEsc@@QAEHHHKK@Z" PURGE="16" COMMENT="" />
    <EXPORT ORDINAL="142" NAME="?SetTVModeData@CSiSEsc@@QAEHHGG@Z" PURGE="12" COMMENT="" />
    <EXPORT ORDINAL="143" NAME="?SetTVScanMode@CSiSEsc@@QAEHHHHH@Z" PURGE="16" COMMENT="" />
    <EXPORT ORDINAL="144" NAME="?SetTVYFilter@CSiSEscExt@@QAEHHHH@Z" PURGE="12" COMMENT="" />
    <EXPORT ORDINAL="145" NAME="?SetVideoBrightness@CSiSEscExt@@QAEHHH@Z" PURGE="8" COMMENT="" />
    <EXPORT ORDINAL="146" NAME="?SetVideoColorEnhance@CSiSEscExt@@QAEHHH@Z" PURGE="8" COMMENT="" />
    <EXPORT ORDINAL="147" NAME="?SetVideoContrast@CSiSEscExt@@QAEHHH@Z" PURGE="8" COMMENT="" />
    <EXPORT ORDINAL="148" NAME="?SetVideoData@CSiSEsc@@QAEHHHUVIDEO_ITEM@@@Z" PURGE="28" COMMENT="" />
    <EXPORT ORDINAL="149" NAME="?SetVideoGammaRamp@CSiSEsc@@QAEHKPAE00@Z" PURGE="16" COMMENT="" />
    <EXPORT ORDINAL="150" NAME="?SetVideoHue@CSiSEscExt@@QAEHHH@Z" PURGE="8" COMMENT="" />
    <EXPORT ORDINAL="151" NAME="?SetVideoSaturation@CSiSEscExt@@QAEHHH@Z" PURGE="8" COMMENT="" />
    <EXPORT ORDINAL="152" NAME="?SetZoomInOutSizePos@CSiSEsc@@QAEHGGGGGK@Z" PURGE="24" COMMENT="" />
    <EXPORT ORDINAL="153" NAME="?Support3DSetting@CSiSEscExt@@QAEHXZ" PURGE="0" COMMENT="" />
    <EXPORT ORDINAL="154" NAME="?SupportCenterScreen@CSiSEscExt@@QAEHXZ" PURGE="0" COMMENT="" />
    <EXPORT ORDINAL="155" NAME="?SupportDriverMode4Win9X@CSiSEscExt@@QAEHXZ" PURGE="0" COMMENT="" />
    <EXPORT ORDINAL="156" NAME="?SupportDriverMode4WinNT@CSiSEscExt@@QAEHXZ" PURGE="0" COMMENT="" />
    <EXPORT ORDINAL="157" NAME="?SupportGammaCorrection@CSiSEscExt@@QAEHXZ" PURGE="0" COMMENT="" />
    <EXPORT ORDINAL="158" NAME="?SupportHotKey4Win9X@CSiSEscExt@@QAEHKVCString@@K@Z" PURGE="12" COMMENT="" />
    <EXPORT ORDINAL="159" NAME="?SupportHotKey4WinNT@CSiSEscExt@@QAEHKVCString@@K@Z" PURGE="12" COMMENT="" />
    <EXPORT ORDINAL="160" NAME="?SupportOSD@CSiSEscExt@@QAEHVCString@@0@Z" PURGE="8" COMMENT="" />
    <EXPORT ORDINAL="161" NAME="?SupportSettingManager4Win9X@CSiSEscExt@@QAEHXZ" PURGE="0" COMMENT="" />
    <EXPORT ORDINAL="162" NAME="?SupportTVSetting@CSiSEscExt@@QAEHXZ" PURGE="0" COMMENT="" />
    <EXPORT ORDINAL="163" NAME="?SupportTVZoom4Win9X@CSiSEscExt@@QAEHXZ" PURGE="0" COMMENT="" />
    <EXPORT ORDINAL="164" NAME="?SupportUtility@CSiSEscExt@@QAEKXZ" PURGE="0" COMMENT="" />
    <EXPORT ORDINAL="165" NAME="?SupportVideoSetting@CSiSEscExt@@QAEHXZ" PURGE="0" COMMENT="" />
    <EXPORT ORDINAL="166" NAME="?SwitchMode@CSiSEsc@@QAEHKPAH@Z" PURGE="8" COMMENT="" />
    <EXPORT ORDINAL="167" NAME="?TVColorBright@CSiSEscExt@@QAEHHHH@Z" PURGE="12" COMMENT="" />
    <EXPORT ORDINAL="168" NAME="?TVColorContrast@CSiSEscExt@@QAEHHHH@Z" PURGE="12" COMMENT="" />
    <EXPORT ORDINAL="169" NAME="?TVColorHue@CSiSEscExt@@QAEHHHH@Z" PURGE="12" COMMENT="" />
    <EXPORT ORDINAL="170" NAME="?TVColorSaturation@CSiSEscExt@@QAEHHHH@Z" PURGE="12" COMMENT="" />
    <EXPORT ORDINAL="171" NAME="?UpdateTempINFforWin9X@CSiSEscExt@@QAEHPBD000@Z" PURGE="16" COMMENT="" />
    <EXPORT ORDINAL="172" NAME="?WriteKeyByte4Win9X@CSiSEscExt@@QAEHPADPAEH0PAUHKEY__@@K@Z" PURGE="24" COMMENT="" />
    <EXPORT ORDINAL="173" NAME="?WriteKeyByte4WinNT@CSiSEscExt@@QAEHPADPAEH0PAUHKEY__@@K@Z" PURGE="24" COMMENT="" />
    <EXPORT ORDINAL="174" NAME="?WriteKeyByte@CSiSEscExt@@QAEHPADPAEH00PAUHKEY__@@K@Z" PURGE="28" COMMENT="" />
    <EXPORT ORDINAL="175" NAME="?WriteKeyDWORD4Win9X@CSiSEscExt@@QAEHPADK0PAUHKEY__@@K@Z" PURGE="20" COMMENT="" />
    <EXPORT ORDINAL="176" NAME="?WriteKeyDWORD4WinNT@CSiSEscExt@@QAEHPADK0PAUHKEY__@@K@Z" PURGE="20" COMMENT="" />
    <EXPORT ORDINAL="177" NAME="?WriteKeyDWORD@CSiSEscExt@@QAEHPADK00PAUHKEY__@@K@Z" PURGE="24" COMMENT="" />
    <EXPORT ORDINAL="178" NAME="?WriteKeyString4Win9X@CSiSEscExt@@QAEHPADPBD0PAUHKEY__@@K@Z" PURGE="20" COMMENT="" />
    <EXPORT ORDINAL="179" NAME="?WriteKeyString4WinNT@CSiSEscExt@@QAEHPADPBD0PAUHKEY__@@K@Z" PURGE="20" COMMENT="" />
    <EXPORT ORDINAL="180" NAME="?WriteKeyString@CSiSEscExt@@QAEHPADPBD00PAUHKEY__@@K@Z" PURGE="24" COMMENT="" />
    <EXPORT ORDINAL="181" NAME="?WriteRegVal@CSiSEsc@@QAEHPADPAEK@Z" PURGE="12" COMMENT="" />
    <EXPORT ORDINAL="182" NAME="?XTRACE@CSiSTool@@SAXHPBD0ZZ" PURGE="0" COMMENT="" />
    <EXPORT ORDINAL="183" NAME="?_GetHWKeyListFor9x@CSiSEscExt@@QAEHAAVCStringList@@@Z" PURGE="4" COMMENT="" />
    <EXPORT ORDINAL="184" NAME="?_GetHWKeyListForNT@CSiSEscExt@@QAEHAAVCStringList@@@Z" PURGE="4" COMMENT="" />
    <EXPORT ORDINAL="185" NAME="?_GetSWKeyListforWin2K@CSiSEscExt@@QAEHPAVCStringList@@@Z" PURGE="4" COMMENT="" />
    <EXPORT ORDINAL="186" NAME="?_GetSWKeyListforWin9X@CSiSEscExt@@QAEHPAVCStringList@@@Z" PURGE="4" COMMENT="" />
    <EXPORT ORDINAL="187" NAME="?_GetSWKeyListforWinXP@CSiSEscExt@@QAEHPAVCStringList@@@Z" PURGE="4" COMMENT="" />
    <EXPORT ORDINAL="188" NAME="?_GetSWKeyWithoutDriver@CSiSEscExt@@QAEHPADPAVCStringList@@@Z" PURGE="8" COMMENT="" />
    <EXPORT ORDINAL="189" NAME="?m_dwMapBPPIndexToBPP@CSiSEscExt@@2PAKA" PURGE="-1" COMMENT="" />
</LIBRARY>

