<?xml version="1.0" encoding="UTF-8"?>
<LIBRARY NAME="sisbase.dll" PATH="/DLLArchive/etc/SiSBase.dll" DATE="Fri Jul 03 13:16:37 PDT 2020" VERSION="6.14.10.3630">
    <EXPORT ORDINAL="1" NAME="GetHWKeyCount" PURGE="0" COMMENT="" />
    <EXPORT ORDINAL="2" NAME="GetHardwareKey" PURGE="0" COMMENT="" />
    <EXPORT ORDINAL="3" NAME="GetSoftwareKey" PURGE="0" COMMENT="" />
    <EXPORT ORDINAL="4" NAME="UpdateTempINF" PURGE="0" COMMENT="" />
    <EXPORT ORDINAL="5" NAME="WriteKeyStringExp" PURGE="0" COMMENT="" />
    <EXPORT ORDINAL="6" NAME="WriteKeyDWORDExp" PURGE="0" COMMENT="" />
    <EXPORT ORDINAL="7" NAME="WriteKeyByteExp" PURGE="0" COMMENT="" />
    <EXPORT ORDINAL="8" NAME="GetCurrentOSExp" PURGE="0" COMMENT="" />
    <EXPORT ORDINAL="9" NAME="ExtractHWKey" PURGE="0" COMMENT="" />
    <EXPORT ORDINAL="10" NAME="IsTabletPC" PURGE="0" COMMENT="" />
    <EXPORT ORDINAL="11" NAME="??0CSiSBaseTool@@QAE@ABV0@@Z" PURGE="4" COMMENT="" />
    <EXPORT ORDINAL="12" NAME="??0CSiSBaseTool@@QAE@XZ" PURGE="0" COMMENT="" />
    <EXPORT ORDINAL="13" NAME="??0CSiSDevice@@QAE@XZ" PURGE="0" COMMENT="" />
    <EXPORT ORDINAL="14" NAME="??0CSiSReg@@QAE@ABV0@@Z" PURGE="4" COMMENT="" />
    <EXPORT ORDINAL="15" NAME="??0CSiSReg@@QAE@XZ" PURGE="0" COMMENT="" />
    <EXPORT ORDINAL="16" NAME="??1CSiSBaseTool@@UAE@XZ" PURGE="0" COMMENT="" />
    <EXPORT ORDINAL="17" NAME="??1CSiSDevice@@UAE@XZ" PURGE="0" COMMENT="" />
    <EXPORT ORDINAL="18" NAME="??1CSiSReg@@UAE@XZ" PURGE="0" COMMENT="" />
    <EXPORT ORDINAL="19" NAME="??4CSiSBaseTool@@QAEAAV0@ABV0@@Z" PURGE="4" COMMENT="" />
    <EXPORT ORDINAL="20" NAME="??4CSiSReg@@QAEAAV0@ABV0@@Z" PURGE="4" COMMENT="" />
    <EXPORT ORDINAL="21" NAME="??_7CSiSBaseTool@@6B@" PURGE="-1" COMMENT="" />
    <EXPORT ORDINAL="22" NAME="??_7CSiSDevice@@6B@" PURGE="-1" COMMENT="" />
    <EXPORT ORDINAL="23" NAME="??_7CSiSReg@@6B@" PURGE="-1" COMMENT="" />
    <EXPORT ORDINAL="24" NAME="?DelRedundantSWKey@CSiSDevice@@QAEXPAD@Z" PURGE="4" COMMENT="" />
    <EXPORT ORDINAL="25" NAME="?DeleteKeyValue@CSiSReg@@SAHPAD0PAUHKEY__@@@Z" PURGE="0" COMMENT="" />
    <EXPORT ORDINAL="26" NAME="?ExtractDeviceVenderID@CSiSDevice@@QAE?AVCString@@PBD@Z" PURGE="8" COMMENT="" />
    <EXPORT ORDINAL="27" NAME="?ExtractSWKey@CSiSDevice@@QAE?AVCString@@PBD@Z" PURGE="8" COMMENT="" />
    <EXPORT ORDINAL="28" NAME="?GetCurrentOS@CSiSBaseTool@@SAKXZ" PURGE="0" COMMENT="" />
    <EXPORT ORDINAL="29" NAME="?GetHWKeyList@CSiSDevice@@QAEHPBDAAVCStringList@@@Z" PURGE="8" COMMENT="" />
    <EXPORT ORDINAL="30" NAME="?GetInfData@CSiSDevice@@QAE?AVCString@@PBD00@Z" PURGE="16" COMMENT="" />
    <EXPORT ORDINAL="31" NAME="?GetLngString@CSiSBaseTool@@SAHPBDPADI@Z" PURGE="0" COMMENT="" />
    <EXPORT ORDINAL="32" NAME="?GetOSVersionNumFromReg@CSiSBaseTool@@SAHPAH00@Z" PURGE="0" COMMENT="" />
    <EXPORT ORDINAL="33" NAME="?GetSWKeyList@CSiSDevice@@QAEHPAVCStringList@@@Z" PURGE="4" COMMENT="" />
    <EXPORT ORDINAL="34" NAME="?GetSWKeyWithoutDriver@CSiSDevice@@QAEHPADPBD1H@Z" PURGE="16" COMMENT="" />
    <EXPORT ORDINAL="35" NAME="?GetSiSHWKeyFromList@CSiSDevice@@QAEHHPAD@Z" PURGE="8" COMMENT="" />
    <EXPORT ORDINAL="36" NAME="?GetSiSHWKeyList@CSiSDevice@@QAEHPBD0@Z" PURGE="8" COMMENT="" />
    <EXPORT ORDINAL="37" NAME="?IsExistFile@CSiSBaseTool@@SAHPBD0@Z" PURGE="0" COMMENT="" />
    <EXPORT ORDINAL="38" NAME="?IsSupportMultiMonitorOS@CSiSBaseTool@@SAHXZ" PURGE="0" COMMENT="" />
    <EXPORT ORDINAL="39" NAME="?JudgeTabletPC@CSiSDevice@@QAEHH@Z" PURGE="4" COMMENT="" />
    <EXPORT ORDINAL="40" NAME="?ReadKeyByte@CSiSReg@@SAHPADPAEPAK0PAUHKEY__@@K@Z" PURGE="0" COMMENT="" />
    <EXPORT ORDINAL="41" NAME="?ReadKeyDWORD@CSiSReg@@SAHPADPAK0PAUHKEY__@@K@Z" PURGE="0" COMMENT="" />
    <EXPORT ORDINAL="42" NAME="?ReadKeyString@CSiSReg@@SAHPAD0H0PAUHKEY__@@0@Z" PURGE="0" COMMENT="" />
    <EXPORT ORDINAL="43" NAME="?SiSHookProc@CSiSBaseTool@@SGJHIJ@Z" PURGE="12" COMMENT="" />
    <EXPORT ORDINAL="44" NAME="?SiSMsgBox@CSiSBaseTool@@SAHPAUHWND__@@PBD1I@Z" PURGE="0" COMMENT="" />
    <EXPORT ORDINAL="45" NAME="?SiSMsgBoxEx@CSiSBaseTool@@SAHPAUHWND__@@PBD1I1@Z" PURGE="0" COMMENT="" />
    <EXPORT ORDINAL="46" NAME="?UpdateTempINFforWin9X@CSiSDevice@@QAEHPBD000@Z" PURGE="16" COMMENT="" />
    <EXPORT ORDINAL="47" NAME="?WriteKeyByte@CSiSReg@@SAHPADPAEH0PAUHKEY__@@K@Z" PURGE="0" COMMENT="" />
    <EXPORT ORDINAL="48" NAME="?WriteKeyDWORD@CSiSReg@@SAHPADK0PAUHKEY__@@K@Z" PURGE="0" COMMENT="" />
    <EXPORT ORDINAL="49" NAME="?WriteKeyString@CSiSReg@@SAHPADPBD0PAUHKEY__@@K@Z" PURGE="0" COMMENT="" />
    <EXPORT ORDINAL="50" NAME="?_GetHWKeyListFor9x@CSiSDevice@@QAEHAAVCStringList@@@Z" PURGE="4" COMMENT="" />
    <EXPORT ORDINAL="51" NAME="?_GetHWKeyListForNT@CSiSDevice@@QAEHAAVCStringList@@PBD@Z" PURGE="8" COMMENT="" />
    <EXPORT ORDINAL="52" NAME="?_GetSWKeyListforWin2K@CSiSDevice@@QAEHPAVCStringList@@@Z" PURGE="4" COMMENT="" />
    <EXPORT ORDINAL="53" NAME="?_GetSWKeyListforWin9X@CSiSDevice@@QAEHPAVCStringList@@@Z" PURGE="4" COMMENT="" />
    <EXPORT ORDINAL="54" NAME="?_GetSWKeyListforWinXP@CSiSDevice@@QAEHPAVCStringList@@@Z" PURGE="4" COMMENT="" />
    <EXPORT ORDINAL="55" NAME="?_GetSWKeyWithoutDriver@CSiSDevice@@QAEHPADPAVCStringList@@@Z" PURGE="8" COMMENT="" />
</LIBRARY>

