<?xml version="1.0" encoding="UTF-8"?>
<LIBRARY NAME="sixense_utils.dll" PATH="/DLLArchive/etc/sixense_utils.dll" DATE="Fri Jul 03 13:16:41 PDT 2020" VERSION="4.0.0.3">
    <EXPORT ORDINAL="1" NAME="??0ButtonStates@sixenseUtils@@QAE@XZ" PURGE="0" COMMENT="" />
    <EXPORT ORDINAL="2" NAME="??0Derivatives@sixenseUtils@@QAE@ABV01@@Z" PURGE="4" COMMENT="" />
    <EXPORT ORDINAL="3" NAME="??0Derivatives@sixenseUtils@@QAE@VVector3@sixenseMath@@@Z" PURGE="12" COMMENT="" />
    <EXPORT ORDINAL="4" NAME="??0FPSEvents@sixenseUtils@@QAE@ABV01@@Z" PURGE="4" COMMENT="" />
    <EXPORT ORDINAL="5" NAME="??0FPSEvents@sixenseUtils@@QAE@XZ" PURGE="0" COMMENT="" />
    <EXPORT ORDINAL="6" NAME="??0FPSMeleeWeapon@sixenseUtils@@QAE@ABV01@@Z" PURGE="4" COMMENT="" />
    <EXPORT ORDINAL="7" NAME="??0FPSMeleeWeapon@sixenseUtils@@QAE@XZ" PURGE="0" COMMENT="" />
    <EXPORT ORDINAL="8" NAME="??0FPSPlayerMovement@sixenseUtils@@QAE@ABV01@@Z" PURGE="4" COMMENT="" />
    <EXPORT ORDINAL="9" NAME="??0FPSPlayerMovement@sixenseUtils@@QAE@XZ" PURGE="0" COMMENT="" />
    <EXPORT ORDINAL="10" NAME="??0FPSViewAngles@sixenseUtils@@QAE@ABV01@@Z" PURGE="4" COMMENT="" />
    <EXPORT ORDINAL="11" NAME="??0FPSViewAngles@sixenseUtils@@QAE@XZ" PURGE="0" COMMENT="" />
    <EXPORT ORDINAL="12" NAME="??0LaserPointer@sixenseUtils@@QAE@ABV01@@Z" PURGE="4" COMMENT="" />
    <EXPORT ORDINAL="13" NAME="??0LaserPointer@sixenseUtils@@QAE@XZ" PURGE="0" COMMENT="" />
    <EXPORT ORDINAL="14" NAME="??0LaserPointerCalib@sixenseUtils@@QAE@ABV01@@Z" PURGE="4" COMMENT="" />
    <EXPORT ORDINAL="15" NAME="??0LaserPointerCalib@sixenseUtils@@QAE@XZ" PURGE="0" COMMENT="" />
    <EXPORT ORDINAL="16" NAME="??0MousePointer@sixenseUtils@@QAE@XZ" PURGE="0" COMMENT="" />
    <EXPORT ORDINAL="17" NAME="??0controller_manager@sixenseUtils@@IAE@XZ" PURGE="0" COMMENT="" />
    <EXPORT ORDINAL="18" NAME="??0controller_manager@sixenseUtils@@QAE@ABV01@@Z" PURGE="4" COMMENT="" />
    <EXPORT ORDINAL="19" NAME="??1Derivatives@sixenseUtils@@QAE@XZ" PURGE="0" COMMENT="" />
    <EXPORT ORDINAL="20" NAME="??1FPSEvents@sixenseUtils@@QAE@XZ" PURGE="0" COMMENT="" />
    <EXPORT ORDINAL="21" NAME="??1FPSMeleeWeapon@sixenseUtils@@QAE@XZ" PURGE="0" COMMENT="" />
    <EXPORT ORDINAL="22" NAME="??1FPSPlayerMovement@sixenseUtils@@QAE@XZ" PURGE="0" COMMENT="" />
    <EXPORT ORDINAL="23" NAME="??1FPSViewAngles@sixenseUtils@@QAE@XZ" PURGE="0" COMMENT="" />
    <EXPORT ORDINAL="24" NAME="??1controller_manager@sixenseUtils@@QAE@XZ" PURGE="0" COMMENT="" />
    <EXPORT ORDINAL="25" NAME="??4ButtonStates@sixenseUtils@@QAEAAV01@ABV01@@Z" PURGE="4" COMMENT="" />
    <EXPORT ORDINAL="26" NAME="??4Derivatives@sixenseUtils@@QAEAAV01@ABV01@@Z" PURGE="4" COMMENT="" />
    <EXPORT ORDINAL="27" NAME="??4FPSEvents@sixenseUtils@@QAEAAV01@ABV01@@Z" PURGE="4" COMMENT="" />
    <EXPORT ORDINAL="28" NAME="??4FPSMeleeWeapon@sixenseUtils@@QAEAAV01@ABV01@@Z" PURGE="4" COMMENT="" />
    <EXPORT ORDINAL="29" NAME="??4FPSPlayerMovement@sixenseUtils@@QAEAAV01@ABV01@@Z" PURGE="4" COMMENT="" />
    <EXPORT ORDINAL="30" NAME="??4FPSViewAngles@sixenseUtils@@QAEAAV01@ABV01@@Z" PURGE="4" COMMENT="" />
    <EXPORT ORDINAL="31" NAME="??4LaserPointer@sixenseUtils@@QAEAAV01@ABV01@@Z" PURGE="4" COMMENT="" />
    <EXPORT ORDINAL="32" NAME="??4LaserPointerCalib@sixenseUtils@@QAEAAV01@ABV01@@Z" PURGE="4" COMMENT="" />
    <EXPORT ORDINAL="33" NAME="??4MousePointer@sixenseUtils@@QAEAAV01@ABV01@@Z" PURGE="4" COMMENT="" />
    <EXPORT ORDINAL="34" NAME="??4Time@sixenseUtils@@QAEAAV01@ABV01@@Z" PURGE="4" COMMENT="" />
    <EXPORT ORDINAL="35" NAME="??4controller_manager@sixenseUtils@@QAEAAV01@ABV01@@Z" PURGE="4" COMMENT="" />
    <EXPORT ORDINAL="36" NAME="??4mouseAndKeyboardWin32@sixenseUtils@@QAEAAV01@ABV01@@Z" PURGE="4" COMMENT="" />
    <EXPORT ORDINAL="37" NAME="??_FDerivatives@sixenseUtils@@QAEXXZ" PURGE="0" COMMENT="" />
    <EXPORT ORDINAL="38" NAME="?OneToOneModeStarted@FPSMeleeWeapon@sixenseUtils@@QAE_NXZ" PURGE="0" COMMENT="" />
    <EXPORT ORDINAL="39" NAME="?OneToOneModeStopped@FPSMeleeWeapon@sixenseUtils@@QAE_NXZ" PURGE="0" COMMENT="" />
    <EXPORT ORDINAL="40" NAME="?_last_absolute_mouse_pos_x@mouseAndKeyboardWin32@sixenseUtils@@0MA" PURGE="-1" COMMENT="" />
    <EXPORT ORDINAL="41" NAME="?_last_absolute_mouse_pos_x_when_clicked@mouseAndKeyboardWin32@sixenseUtils@@0MA" PURGE="-1" COMMENT="" />
    <EXPORT ORDINAL="42" NAME="?_last_absolute_mouse_pos_y@mouseAndKeyboardWin32@sixenseUtils@@0MA" PURGE="-1" COMMENT="" />
    <EXPORT ORDINAL="43" NAME="?_last_absolute_mouse_pos_y_when_clicked@mouseAndKeyboardWin32@sixenseUtils@@0MA" PURGE="-1" COMMENT="" />
    <EXPORT ORDINAL="44" NAME="?_last_click_time@mouseAndKeyboardWin32@sixenseUtils@@0NA" PURGE="-1" COMMENT="" />
    <EXPORT ORDINAL="45" NAME="?clampViewAngles@FPSViewAngles@sixenseUtils@@IAE?AVVector3@sixenseMath@@V34@0@Z" PURGE="28" COMMENT="" />
    <EXPORT ORDINAL="46" NAME="?computeAimOffset1to1@FPSViewAngles@sixenseUtils@@IAEXPAU_sixenseControllerData@@0M@Z" PURGE="12" COMMENT="" />
    <EXPORT ORDINAL="47" NAME="?computeAimOffsetPointer@FPSViewAngles@sixenseUtils@@IAEXPAU_sixenseControllerData@@0M@Z" PURGE="12" COMMENT="" />
    <EXPORT ORDINAL="48" NAME="?computeFeetAnglesOffsetMetroid@FPSViewAngles@sixenseUtils@@IAEXPAU_sixenseControllerData@@0M@Z" PURGE="12" COMMENT="" />
    <EXPORT ORDINAL="49" NAME="?computeFeetAnglesOffsetRatchet@FPSViewAngles@sixenseUtils@@IAEXPAU_sixenseControllerData@@0M@Z" PURGE="12" COMMENT="" />
    <EXPORT ORDINAL="50" NAME="?computeFeetAnglesOffsetStickSpin@FPSViewAngles@sixenseUtils@@IAEXPAU_sixenseControllerData@@0M@Z" PURGE="12" COMMENT="" />
    <EXPORT ORDINAL="51" NAME="?computeSpringViewOffset@FPSViewAngles@sixenseUtils@@IAEXXZ" PURGE="0" COMMENT="" />
    <EXPORT ORDINAL="52" NAME="?controllerDescFromString@controller_manager@sixenseUtils@@SA?AW4controller_desc@12@V?$basic_string@DU?$char_traits@D@std@@V?$sixense_utils_allocator@D@@@std@@@Z" PURGE="0" COMMENT="" />
    <EXPORT ORDINAL="53" NAME="?eventActive@FPSEvents@sixenseUtils@@QAE_NW4fps_event@12@@Z" PURGE="4" COMMENT="" />
    <EXPORT ORDINAL="54" NAME="?eventStarted@FPSEvents@sixenseUtils@@QAE_NW4fps_event@12@@Z" PURGE="4" COMMENT="" />
    <EXPORT ORDINAL="55" NAME="?eventStopped@FPSEvents@sixenseUtils@@QAE_NW4fps_event@12@@Z" PURGE="4" COMMENT="" />
    <EXPORT ORDINAL="56" NAME="?forceMetroidBlend@FPSViewAngles@sixenseUtils@@QAEXM@Z" PURGE="4" COMMENT="" />
    <EXPORT ORDINAL="57" NAME="?forceOneToOneMode@FPSMeleeWeapon@sixenseUtils@@QAEX_N@Z" PURGE="4" COMMENT="" />
    <EXPORT ORDINAL="58" NAME="?forceViewAngles@FPSViewAngles@sixenseUtils@@QAEXW4fps_mode@12@VVector3@sixenseMath@@@Z" PURGE="16" COMMENT="" />
    <EXPORT ORDINAL="59" NAME="?getAcceleration@Derivatives@sixenseUtils@@QAE?AVVector3@sixenseMath@@XZ" PURGE="4" COMMENT="" />
    <EXPORT ORDINAL="60" NAME="?getCurrentStep@controller_manager@sixenseUtils@@QAE?AW4setup_step@12@XZ" PURGE="0" COMMENT="" />
    <EXPORT ORDINAL="61" NAME="?getElapsedMilliseconds@Time@sixenseUtils@@SANH@Z" PURGE="0" COMMENT="" />
    <EXPORT ORDINAL="62" NAME="?getFeetAnglesMetroid@FPSViewAngles@sixenseUtils@@QAE?AVVector3@sixenseMath@@XZ" PURGE="4" COMMENT="" />
    <EXPORT ORDINAL="63" NAME="?getFov@FPSViewAngles@sixenseUtils@@QAEXPAM0@Z" PURGE="8" COMMENT="" />
    <EXPORT ORDINAL="64" NAME="?getGameType@controller_manager@sixenseUtils@@QAE?AW4game_type@12@XZ" PURGE="0" COMMENT="" />
    <EXPORT ORDINAL="65" NAME="?getGrenadeThrowVelocity@FPSEvents@sixenseUtils@@QAE?AVVector3@sixenseMath@@XZ" PURGE="4" COMMENT="" />
    <EXPORT ORDINAL="66" NAME="?getIndex@controller_manager@sixenseUtils@@QAEHW4controller_desc@12@@Z" PURGE="4" COMMENT="" />
    <EXPORT ORDINAL="67" NAME="?getIntersection@LaserPointer@sixenseUtils@@QAE?AVVector2@sixenseMath@@VVector3@4@VMatrix3@4@@Z" PURGE="52" COMMENT="" />
    <EXPORT ORDINAL="68" NAME="?getMeleeWeaponBladePos@FPSMeleeWeapon@sixenseUtils@@QAE?AVVector3@sixenseMath@@XZ" PURGE="4" COMMENT="" />
    <EXPORT ORDINAL="69" NAME="?getMeleeWeaponMatrix@FPSMeleeWeapon@sixenseUtils@@QAE?AVMatrix3@sixenseMath@@XZ" PURGE="4" COMMENT="" />
    <EXPORT ORDINAL="70" NAME="?getMeleeWeaponPos@FPSMeleeWeapon@sixenseUtils@@QAE?AVVector3@sixenseMath@@XZ" PURGE="4" COMMENT="" />
    <EXPORT ORDINAL="71" NAME="?getMode@FPSViewAngles@sixenseUtils@@QAE?AW4fps_mode@12@XZ" PURGE="0" COMMENT="" />
    <EXPORT ORDINAL="72" NAME="?getMousePos@mouseAndKeyboardWin32@sixenseUtils@@SAXPAH0@Z" PURGE="0" COMMENT="" />
    <EXPORT ORDINAL="73" NAME="?getOffset@Derivatives@sixenseUtils@@QAE?AVVector3@sixenseMath@@XZ" PURGE="4" COMMENT="" />
    <EXPORT ORDINAL="74" NAME="?getParameter@FPSEvents@sixenseUtils@@QAEMW4fps_params@12@@Z" PURGE="4" COMMENT="" />
    <EXPORT ORDINAL="75" NAME="?getParameter@FPSMeleeWeapon@sixenseUtils@@QAEMW4melee_params@12@@Z" PURGE="4" COMMENT="" />
    <EXPORT ORDINAL="76" NAME="?getParameter@FPSPlayerMovement@sixenseUtils@@QAEMW4fps_movement_params@12@@Z" PURGE="4" COMMENT="" />
    <EXPORT ORDINAL="77" NAME="?getParameter@FPSViewAngles@sixenseUtils@@QAEMW4fps_params@12@@Z" PURGE="4" COMMENT="" />
    <EXPORT ORDINAL="78" NAME="?getPosition@Derivatives@sixenseUtils@@QAE?AVVector3@sixenseMath@@XZ" PURGE="4" COMMENT="" />
    <EXPORT ORDINAL="79" NAME="?getPrimaryScreenResolution@mouseAndKeyboardWin32@sixenseUtils@@SAXPAH0@Z" PURGE="0" COMMENT="" />
    <EXPORT ORDINAL="80" NAME="?getRSquared@Derivatives@sixenseUtils@@QAE?AVVector3@sixenseMath@@XZ" PURGE="4" COMMENT="" />
    <EXPORT ORDINAL="81" NAME="?getRollAngle@MousePointer@sixenseUtils@@QAEMXZ" PURGE="0" COMMENT="" />
    <EXPORT ORDINAL="82" NAME="?getScreenCenterOffsetFromBase@LaserPointer@sixenseUtils@@QAE?AVVector3@sixenseMath@@XZ" PURGE="4" COMMENT="" />
    <EXPORT ORDINAL="83" NAME="?getScreenSize@LaserPointer@sixenseUtils@@QAE?AVVector2@sixenseMath@@XZ" PURGE="4" COMMENT="" />
    <EXPORT ORDINAL="84" NAME="?getSpinSpeed@FPSViewAngles@sixenseUtils@@QAE?AVVector3@sixenseMath@@XZ" PURGE="4" COMMENT="" />
    <EXPORT ORDINAL="85" NAME="?getStepString@controller_manager@sixenseUtils@@QAEPBDXZ" PURGE="0" COMMENT="" />
    <EXPORT ORDINAL="86" NAME="?getSwingAttackDir@FPSMeleeWeapon@sixenseUtils@@QAE?AVVector3@sixenseMath@@XZ" PURGE="4" COMMENT="" />
    <EXPORT ORDINAL="87" NAME="?getSwingAttackStartPos@FPSMeleeWeapon@sixenseUtils@@QAE?AVVector3@sixenseMath@@XZ" PURGE="4" COMMENT="" />
    <EXPORT ORDINAL="88" NAME="?getTestVal@FPSViewAngles@sixenseUtils@@QAEMXZ" PURGE="0" COMMENT="" />
    <EXPORT ORDINAL="89" NAME="?getTextureFileName@controller_manager@sixenseUtils@@QAEPBDXZ" PURGE="0" COMMENT="" />
    <EXPORT ORDINAL="90" NAME="?getTheControllerManager@controller_manager@sixenseUtils@@SAPAV12@XZ" PURGE="0" COMMENT="" />
    <EXPORT ORDINAL="91" NAME="?getTheControllerManager@sixenseUtils@@YAPAVcontroller_manager@1@XZ" PURGE="0" COMMENT="" />
    <EXPORT ORDINAL="92" NAME="?getTimeInMilliseconds@Time@sixenseUtils@@SANXZ" PURGE="0" COMMENT="" />
    <EXPORT ORDINAL="93" NAME="?getVelocity@Derivatives@sixenseUtils@@QAE?AVVector3@sixenseMath@@XZ" PURGE="4" COMMENT="" />
    <EXPORT ORDINAL="94" NAME="?getViewAngleOffset@FPSViewAngles@sixenseUtils@@QAE?AVVector3@sixenseMath@@XZ" PURGE="4" COMMENT="" />
    <EXPORT ORDINAL="95" NAME="?getViewAngles@FPSViewAngles@sixenseUtils@@QAE?AVVector3@sixenseMath@@XZ" PURGE="4" COMMENT="" />
    <EXPORT ORDINAL="96" NAME="?getWalkDir@FPSPlayerMovement@sixenseUtils@@QAE?AVVector2@sixenseMath@@XZ" PURGE="4" COMMENT="" />
    <EXPORT ORDINAL="97" NAME="?hasComputed@LaserPointerCalib@sixenseUtils@@QAE_NXZ" PURGE="0" COMMENT="" />
    <EXPORT ORDINAL="98" NAME="?isAttacking@FPSMeleeWeapon@sixenseUtils@@QAE_NXZ" PURGE="0" COMMENT="" />
    <EXPORT ORDINAL="99" NAME="?isInOneToOneMode@FPSMeleeWeapon@sixenseUtils@@QAE_NXZ" PURGE="0" COMMENT="" />
    <EXPORT ORDINAL="100" NAME="?isMenuVisible@controller_manager@sixenseUtils@@QAE_NXZ" PURGE="-1" COMMENT="" />
    <EXPORT ORDINAL="101" NAME="?isRatcheting@FPSViewAngles@sixenseUtils@@QAE_NXZ" PURGE="0" COMMENT="" />
    <EXPORT ORDINAL="102" NAME="?justPressed@ButtonStates@sixenseUtils@@QAE_NG@Z" PURGE="4" COMMENT="" />
    <EXPORT ORDINAL="103" NAME="?justReleased@ButtonStates@sixenseUtils@@QAE_NG@Z" PURGE="4" COMMENT="" />
    <EXPORT ORDINAL="104" NAME="?processQueue@mouseAndKeyboardWin32@sixenseUtils@@SAXXZ" PURGE="0" COMMENT="" />
    <EXPORT ORDINAL="105" NAME="?rebind@controller_manager@sixenseUtils@@QAEXXZ" PURGE="0" COMMENT="" />
    <EXPORT ORDINAL="106" NAME="?registerSetupCallback@controller_manager@sixenseUtils@@QAEXP6AXW4setup_step@12@@Z@Z" PURGE="4" COMMENT="" />
    <EXPORT ORDINAL="107" NAME="?releaseKey@mouseAndKeyboardWin32@sixenseUtils@@SAXD@Z" PURGE="0" COMMENT="" />
    <EXPORT ORDINAL="108" NAME="?releaseMouseButton@mouseAndKeyboardWin32@sixenseUtils@@SAXH@Z" PURGE="0" COMMENT="" />
    <EXPORT ORDINAL="109" NAME="?reset@FPSViewAngles@sixenseUtils@@QAEXXZ" PURGE="0" COMMENT="" />
    <EXPORT ORDINAL="110" NAME="?sendAbsoluteMouseMove@mouseAndKeyboardWin32@sixenseUtils@@SAXMM@Z" PURGE="0" COMMENT="" />
    <EXPORT ORDINAL="111" NAME="?sendAbsoluteMouseMoveInPixels@mouseAndKeyboardWin32@sixenseUtils@@SAXHH@Z" PURGE="0" COMMENT="" />
    <EXPORT ORDINAL="112" NAME="?sendKeyState@mouseAndKeyboardWin32@sixenseUtils@@SAXDHH@Z" PURGE="0" COMMENT="" />
    <EXPORT ORDINAL="113" NAME="?sendKeyState@mouseAndKeyboardWin32@sixenseUtils@@SAXDHHH@Z" PURGE="0" COMMENT="" />
    <EXPORT ORDINAL="114" NAME="?sendMouseClick@mouseAndKeyboardWin32@sixenseUtils@@SAXHH@Z" PURGE="0" COMMENT="" />
    <EXPORT ORDINAL="115" NAME="?sendMouseClick@mouseAndKeyboardWin32@sixenseUtils@@SAXHHH@Z" PURGE="0" COMMENT="" />
    <EXPORT ORDINAL="116" NAME="?sendMouseClick@mouseAndKeyboardWin32@sixenseUtils@@SAXMMHH@Z" PURGE="0" COMMENT="" />
    <EXPORT ORDINAL="117" NAME="?sendMouseWheelMove@mouseAndKeyboardWin32@sixenseUtils@@SAXH@Z" PURGE="0" COMMENT="" />
    <EXPORT ORDINAL="118" NAME="?sendRelativeMouseMove@mouseAndKeyboardWin32@sixenseUtils@@SAXMM@Z" PURGE="0" COMMENT="" />
    <EXPORT ORDINAL="119" NAME="?setAcceleration@MousePointer@sixenseUtils@@QAEXM@Z" PURGE="4" COMMENT="" />
    <EXPORT ORDINAL="120" NAME="?setAspectRatio@MousePointer@sixenseUtils@@QAEXM@Z" PURGE="4" COMMENT="" />
    <EXPORT ORDINAL="121" NAME="?setCenter@MousePointer@sixenseUtils@@QAEXXZ" PURGE="0" COMMENT="" />
    <EXPORT ORDINAL="122" NAME="?setFeetAnglesMetroid@FPSViewAngles@sixenseUtils@@QAEXVVector3@sixenseMath@@@Z" PURGE="12" COMMENT="" />
    <EXPORT ORDINAL="123" NAME="?setFov@FPSViewAngles@sixenseUtils@@QAEXMM@Z" PURGE="8" COMMENT="" />
    <EXPORT ORDINAL="124" NAME="?setGame@FPSEvents@sixenseUtils@@QAEXPBD@Z" PURGE="4" COMMENT="" />
    <EXPORT ORDINAL="125" NAME="?setGame@FPSPlayerMovement@sixenseUtils@@QAEXPBD@Z" PURGE="4" COMMENT="" />
    <EXPORT ORDINAL="126" NAME="?setGame@FPSViewAngles@sixenseUtils@@QAEXPBD@Z" PURGE="4" COMMENT="" />
    <EXPORT ORDINAL="127" NAME="?setGameType@controller_manager@sixenseUtils@@QAEXW4game_type@12@@Z" PURGE="4" COMMENT="" />
    <EXPORT ORDINAL="128" NAME="?setHoldingTurnSpeed@FPSViewAngles@sixenseUtils@@QAEXMM@Z" PURGE="8" COMMENT="" />
    <EXPORT ORDINAL="129" NAME="?setMode@FPSViewAngles@sixenseUtils@@QAEXW4fps_mode@12@@Z" PURGE="4" COMMENT="" />
    <EXPORT ORDINAL="130" NAME="?setOffset@Derivatives@sixenseUtils@@QAEXVVector3@sixenseMath@@@Z" PURGE="12" COMMENT="" />
    <EXPORT ORDINAL="131" NAME="?setParameter@FPSEvents@sixenseUtils@@QAEXW4fps_params@12@M@Z" PURGE="8" COMMENT="" />
    <EXPORT ORDINAL="132" NAME="?setParameter@FPSMeleeWeapon@sixenseUtils@@QAEXW4melee_params@12@M@Z" PURGE="8" COMMENT="" />
    <EXPORT ORDINAL="133" NAME="?setParameter@FPSPlayerMovement@sixenseUtils@@QAEXW4fps_movement_params@12@M@Z" PURGE="8" COMMENT="" />
    <EXPORT ORDINAL="134" NAME="?setParameter@FPSViewAngles@sixenseUtils@@QAEXW4fps_params@12@M@Z" PURGE="8" COMMENT="" />
    <EXPORT ORDINAL="135" NAME="?setRatcheting@FPSViewAngles@sixenseUtils@@QAEX_N@Z" PURGE="4" COMMENT="" />
    <EXPORT ORDINAL="136" NAME="?setScreenCenterOffsetFromBase@LaserPointer@sixenseUtils@@QAEXVVector3@sixenseMath@@@Z" PURGE="12" COMMENT="" />
    <EXPORT ORDINAL="137" NAME="?setScreenSize@LaserPointer@sixenseUtils@@QAEXVVector2@sixenseMath@@@Z" PURGE="8" COMMENT="" />
    <EXPORT ORDINAL="138" NAME="?setSensitivity@MousePointer@sixenseUtils@@QAEXM@Z" PURGE="4" COMMENT="" />
    <EXPORT ORDINAL="139" NAME="?setSlideEnabled@MousePointer@sixenseUtils@@QAEX_N@Z" PURGE="4" COMMENT="" />
    <EXPORT ORDINAL="140" NAME="?setToggleMode@FPSMeleeWeapon@sixenseUtils@@QAEX_N@Z" PURGE="4" COMMENT="" />
    <EXPORT ORDINAL="141" NAME="?setTriggerThreshold@ButtonStates@sixenseUtils@@QAEXE@Z" PURGE="4" COMMENT="" />
    <EXPORT ORDINAL="142" NAME="?shouldPlaySound@controller_manager@sixenseUtils@@QAE?AW4sound_type@12@XZ" PURGE="-1" COMMENT="" />
    <EXPORT ORDINAL="143" NAME="?sixense_utils_alloc@@YAPAXI@Z" PURGE="-1" COMMENT="" />
    <EXPORT ORDINAL="144" NAME="?sixense_utils_free@@YAXPAX@Z" PURGE="-1" COMMENT="" />
    <EXPORT ORDINAL="145" NAME="?swingAttackStarted@FPSMeleeWeapon@sixenseUtils@@QAE_NXZ" PURGE="0" COMMENT="" />
    <EXPORT ORDINAL="146" NAME="?triggerJustPressed@ButtonStates@sixenseUtils@@QAE_NXZ" PURGE="0" COMMENT="" />
    <EXPORT ORDINAL="147" NAME="?triggerJustReleased@ButtonStates@sixenseUtils@@QAE_NXZ" PURGE="0" COMMENT="" />
    <EXPORT ORDINAL="148" NAME="?update@ButtonStates@sixenseUtils@@QAEXPAU_sixenseControllerData@@@Z" PURGE="4" COMMENT="" />
    <EXPORT ORDINAL="149" NAME="?update@Derivatives@sixenseUtils@@QAEXPAU_sixenseControllerData@@@Z" PURGE="4" COMMENT="" />
    <EXPORT ORDINAL="150" NAME="?update@FPSEvents@sixenseUtils@@QAEHPAU_sixenseControllerData@@0M@Z" PURGE="12" COMMENT="" />
    <EXPORT ORDINAL="151" NAME="?update@FPSMeleeWeapon@sixenseUtils@@QAEHPAU_sixenseControllerData@@0M@Z" PURGE="12" COMMENT="" />
    <EXPORT ORDINAL="152" NAME="?update@FPSPlayerMovement@sixenseUtils@@QAEHPAU_sixenseControllerData@@0M@Z" PURGE="12" COMMENT="" />
    <EXPORT ORDINAL="153" NAME="?update@FPSViewAngles@sixenseUtils@@QAEHPAU_sixenseControllerData@@0M@Z" PURGE="12" COMMENT="" />
    <EXPORT ORDINAL="154" NAME="?update@MousePointer@sixenseUtils@@QAE?AVVector2@sixenseMath@@PAU_sixenseControllerData@@@Z" PURGE="8" COMMENT="" />
    <EXPORT ORDINAL="155" NAME="?update@controller_manager@sixenseUtils@@QAEXPAU_sixenseAllControllerData@@@Z" PURGE="4" COMMENT="" />
</LIBRARY>

