<?xml version="1.0" encoding="UTF-8"?>
<LIBRARY NAME="stlport_vc7145.dll" PATH="/DLLArchive/etc/stlport_vc7145.dll" DATE="Fri Jul 03 13:20:46 PDT 2020" VERSION="4.5.2003.0120">
    <EXPORT ORDINAL="1" NAME="??$_M_put_num@DV?$char_traits@D@_STL@@J@_STL@@YAAAV?$basic_ostream@DV?$char_traits@D@_STL@@@0@AAV10@J@Z" PURGE="0" COMMENT="" />
    <EXPORT ORDINAL="2" NAME="??$_M_put_num@DV?$char_traits@D@_STL@@K@_STL@@YAAAV?$basic_ostream@DV?$char_traits@D@_STL@@@0@AAV10@K@Z" PURGE="0" COMMENT="" />
    <EXPORT ORDINAL="3" NAME="??$_M_put_num@DV?$char_traits@D@_STL@@_J@_STL@@YAAAV?$basic_ostream@DV?$char_traits@D@_STL@@@0@AAV10@_J@Z" PURGE="0" COMMENT="" />
    <EXPORT ORDINAL="4" NAME="??$_M_put_num@DV?$char_traits@D@_STL@@_K@_STL@@YAAAV?$basic_ostream@DV?$char_traits@D@_STL@@@0@AAV10@_K@Z" PURGE="0" COMMENT="" />
    <EXPORT ORDINAL="5" NAME="??$abs@M@_STL@@YAMABU?$complex@M@0@@Z" PURGE="0" COMMENT="" />
    <EXPORT ORDINAL="6" NAME="??$abs@N@_STL@@YANABU?$complex@N@0@@Z" PURGE="0" COMMENT="" />
    <EXPORT ORDINAL="7" NAME="??$abs@O@_STL@@YAOABU?$complex@O@0@@Z" PURGE="0" COMMENT="" />
    <EXPORT ORDINAL="8" NAME="??$arg@M@_STL@@YAMABU?$complex@M@0@@Z" PURGE="0" COMMENT="" />
    <EXPORT ORDINAL="9" NAME="??$arg@N@_STL@@YANABU?$complex@N@0@@Z" PURGE="-1" COMMENT="" />
    <EXPORT ORDINAL="10" NAME="??$arg@O@_STL@@YAOABU?$complex@O@0@@Z" PURGE="-1" COMMENT="" />
    <EXPORT ORDINAL="11" NAME="??$polar@M@_STL@@YA?AU?$complex@M@0@ABM0@Z" PURGE="0" COMMENT="" />
    <EXPORT ORDINAL="12" NAME="??$polar@N@_STL@@YA?AU?$complex@N@0@ABN0@Z" PURGE="0" COMMENT="" />
    <EXPORT ORDINAL="13" NAME="??$polar@O@_STL@@YA?AU?$complex@O@0@ABO0@Z" PURGE="0" COMMENT="" />
    <EXPORT ORDINAL="14" NAME="??0?$_Isentry@DV?$char_traits@D@_STL@@@_STL@@AAE@ABV01@@Z" PURGE="4" COMMENT="" />
    <EXPORT ORDINAL="15" NAME="??0?$_Isentry@DV?$char_traits@D@_STL@@@_STL@@QAE@AAV?$basic_istream@DV?$char_traits@D@_STL@@@1@U_No_Skip_WS@1@@Z" PURGE="8" COMMENT="" />
    <EXPORT ORDINAL="16" NAME="??0?$_Isentry@DV?$char_traits@D@_STL@@@_STL@@QAE@AAV?$basic_istream@DV?$char_traits@D@_STL@@@1@_N@Z" PURGE="8" COMMENT="" />
    <EXPORT ORDINAL="17" NAME="??0?$_Isentry@GV?$char_traits@G@_STL@@@_STL@@AAE@ABV01@@Z" PURGE="4" COMMENT="" />
    <EXPORT ORDINAL="18" NAME="??0?$_Isentry@GV?$char_traits@G@_STL@@@_STL@@QAE@AAV?$basic_istream@GV?$char_traits@G@_STL@@@1@U_No_Skip_WS@1@@Z" PURGE="8" COMMENT="" />
    <EXPORT ORDINAL="19" NAME="??0?$_Isentry@GV?$char_traits@G@_STL@@@_STL@@QAE@AAV?$basic_istream@GV?$char_traits@G@_STL@@@1@_N@Z" PURGE="8" COMMENT="" />
    <EXPORT ORDINAL="20" NAME="??0?$_Osentry@DV?$char_traits@D@_STL@@@_STL@@AAE@ABV01@@Z" PURGE="4" COMMENT="" />
    <EXPORT ORDINAL="21" NAME="??0?$_Osentry@DV?$char_traits@D@_STL@@@_STL@@QAE@AAV?$basic_ostream@DV?$char_traits@D@_STL@@@1@@Z" PURGE="4" COMMENT="" />
    <EXPORT ORDINAL="22" NAME="??0?$_Osentry@GV?$char_traits@G@_STL@@@_STL@@AAE@ABV01@@Z" PURGE="4" COMMENT="" />
    <EXPORT ORDINAL="23" NAME="??0?$_Osentry@GV?$char_traits@G@_STL@@@_STL@@QAE@AAV?$basic_ostream@GV?$char_traits@G@_STL@@@1@@Z" PURGE="4" COMMENT="" />
    <EXPORT ORDINAL="24" NAME="??0?$_STLP_alloc_proxy@PADDV?$allocator@D@_STL@@@_STL@@QAE@ABV01@@Z" PURGE="4" COMMENT="" />
    <EXPORT ORDINAL="25" NAME="??0?$_STLP_alloc_proxy@PADDV?$allocator@D@_STL@@@_STL@@QAE@ABV?$allocator@D@1@PAD@Z" PURGE="8" COMMENT="" />
    <EXPORT ORDINAL="26" NAME="??0?$_STLP_alloc_proxy@PAGGV?$allocator@G@_STL@@@_STL@@QAE@ABV01@@Z" PURGE="4" COMMENT="" />
    <EXPORT ORDINAL="27" NAME="??0?$_STLP_alloc_proxy@PAGGV?$allocator@G@_STL@@@_STL@@QAE@ABV?$allocator@G@1@PAG@Z" PURGE="8" COMMENT="" />
    <EXPORT ORDINAL="28" NAME="??0?$_STLP_alloc_proxy@PAPAXPAXV?$allocator@PAX@_STL@@@_STL@@QAE@ABV01@@Z" PURGE="4" COMMENT="" />
    <EXPORT ORDINAL="29" NAME="??0?$_STLP_alloc_proxy@PAPAXPAXV?$allocator@PAX@_STL@@@_STL@@QAE@ABV?$allocator@PAX@1@PAPAX@Z" PURGE="8" COMMENT="" />
    <EXPORT ORDINAL="30" NAME="??0?$_String_base@DV?$allocator@D@_STL@@@_STL@@QAE@ABV01@@Z" PURGE="4" COMMENT="" />
    <EXPORT ORDINAL="31" NAME="??0?$_String_base@DV?$allocator@D@_STL@@@_STL@@QAE@ABV?$allocator@D@1@@Z" PURGE="4" COMMENT="" />
    <EXPORT ORDINAL="32" NAME="??0?$_String_base@DV?$allocator@D@_STL@@@_STL@@QAE@ABV?$allocator@D@1@I@Z" PURGE="8" COMMENT="" />
    <EXPORT ORDINAL="33" NAME="??0?$_String_base@GV?$allocator@G@_STL@@@_STL@@QAE@ABV01@@Z" PURGE="4" COMMENT="" />
    <EXPORT ORDINAL="34" NAME="??0?$_String_base@GV?$allocator@G@_STL@@@_STL@@QAE@ABV?$allocator@G@1@@Z" PURGE="4" COMMENT="" />
    <EXPORT ORDINAL="35" NAME="??0?$_String_base@GV?$allocator@G@_STL@@@_STL@@QAE@ABV?$allocator@G@1@I@Z" PURGE="8" COMMENT="" />
    <EXPORT ORDINAL="36" NAME="??0?$_Vector_base@PAXV?$allocator@PAX@_STL@@@_STL@@QAE@ABV01@@Z" PURGE="4" COMMENT="" />
    <EXPORT ORDINAL="37" NAME="??0?$_Vector_base@PAXV?$allocator@PAX@_STL@@@_STL@@QAE@ABV?$allocator@PAX@1@@Z" PURGE="4" COMMENT="" />
    <EXPORT ORDINAL="38" NAME="??0?$_Vector_base@PAXV?$allocator@PAX@_STL@@@_STL@@QAE@IABV?$allocator@PAX@1@@Z" PURGE="8" COMMENT="" />
    <EXPORT ORDINAL="39" NAME="??0?$__debug_alloc@V?$__malloc_alloc@$0A@@_STL@@@_STL@@QAE@XZ" PURGE="0" COMMENT="" />
    <EXPORT ORDINAL="40" NAME="??0?$__debug_alloc@V?$__node_alloc@$00$0A@@_STL@@@_STL@@QAE@XZ" PURGE="0" COMMENT="" />
    <EXPORT ORDINAL="41" NAME="??0?$__debug_alloc@V__new_alloc@_STL@@@_STL@@QAE@XZ" PURGE="0" COMMENT="" />
    <EXPORT ORDINAL="42" NAME="??0?$allocator@D@_STL@@QAE@ABV01@@Z" PURGE="4" COMMENT="" />
    <EXPORT ORDINAL="43" NAME="??0?$allocator@D@_STL@@QAE@XZ" PURGE="0" COMMENT="" />
    <EXPORT ORDINAL="44" NAME="??0?$allocator@G@_STL@@QAE@ABV01@@Z" PURGE="4" COMMENT="" />
    <EXPORT ORDINAL="45" NAME="??0?$allocator@G@_STL@@QAE@XZ" PURGE="0" COMMENT="" />
    <EXPORT ORDINAL="46" NAME="??0?$allocator@PAX@_STL@@QAE@ABV01@@Z" PURGE="4" COMMENT="" />
    <EXPORT ORDINAL="47" NAME="??0?$allocator@PAX@_STL@@QAE@XZ" PURGE="0" COMMENT="" />
    <EXPORT ORDINAL="48" NAME="??0?$basic_filebuf@DV?$char_traits@D@_STL@@@_STL@@QAE@XZ" PURGE="0" COMMENT="" />
    <EXPORT ORDINAL="49" NAME="??0?$basic_filebuf@GV?$char_traits@G@_STL@@@_STL@@QAE@XZ" PURGE="0" COMMENT="" />
    <EXPORT ORDINAL="50" NAME="??0?$basic_fstream@DV?$char_traits@D@_STL@@@_STL@@QAE@HH@Z" PURGE="12" COMMENT="" />
    <EXPORT ORDINAL="51" NAME="??0?$basic_fstream@DV?$char_traits@D@_STL@@@_STL@@QAE@PBDH@Z" PURGE="12" COMMENT="" />
    <EXPORT ORDINAL="52" NAME="??0?$basic_fstream@DV?$char_traits@D@_STL@@@_STL@@QAE@PBDHJ@Z" PURGE="16" COMMENT="" />
    <EXPORT ORDINAL="53" NAME="??0?$basic_fstream@DV?$char_traits@D@_STL@@@_STL@@QAE@XZ" PURGE="4" COMMENT="" />
    <EXPORT ORDINAL="54" NAME="??0?$basic_fstream@GV?$char_traits@G@_STL@@@_STL@@QAE@HH@Z" PURGE="12" COMMENT="" />
    <EXPORT ORDINAL="55" NAME="??0?$basic_fstream@GV?$char_traits@G@_STL@@@_STL@@QAE@PBDH@Z" PURGE="12" COMMENT="" />
    <EXPORT ORDINAL="56" NAME="??0?$basic_fstream@GV?$char_traits@G@_STL@@@_STL@@QAE@PBDHJ@Z" PURGE="16" COMMENT="" />
    <EXPORT ORDINAL="57" NAME="??0?$basic_fstream@GV?$char_traits@G@_STL@@@_STL@@QAE@XZ" PURGE="4" COMMENT="" />
    <EXPORT ORDINAL="58" NAME="??0?$basic_ifstream@DV?$char_traits@D@_STL@@@_STL@@QAE@HH@Z" PURGE="12" COMMENT="" />
    <EXPORT ORDINAL="59" NAME="??0?$basic_ifstream@DV?$char_traits@D@_STL@@@_STL@@QAE@PBDH@Z" PURGE="12" COMMENT="" />
    <EXPORT ORDINAL="60" NAME="??0?$basic_ifstream@DV?$char_traits@D@_STL@@@_STL@@QAE@PBDHJ@Z" PURGE="16" COMMENT="" />
    <EXPORT ORDINAL="61" NAME="??0?$basic_ifstream@DV?$char_traits@D@_STL@@@_STL@@QAE@XZ" PURGE="4" COMMENT="" />
    <EXPORT ORDINAL="62" NAME="??0?$basic_ifstream@GV?$char_traits@G@_STL@@@_STL@@QAE@HH@Z" PURGE="12" COMMENT="" />
    <EXPORT ORDINAL="63" NAME="??0?$basic_ifstream@GV?$char_traits@G@_STL@@@_STL@@QAE@PBDH@Z" PURGE="12" COMMENT="" />
    <EXPORT ORDINAL="64" NAME="??0?$basic_ifstream@GV?$char_traits@G@_STL@@@_STL@@QAE@PBDHJ@Z" PURGE="16" COMMENT="" />
    <EXPORT ORDINAL="65" NAME="??0?$basic_ifstream@GV?$char_traits@G@_STL@@@_STL@@QAE@XZ" PURGE="4" COMMENT="" />
    <EXPORT ORDINAL="66" NAME="??0?$basic_ios@DV?$char_traits@D@_STL@@@_STL@@IAE@XZ" PURGE="0" COMMENT="" />
    <EXPORT ORDINAL="67" NAME="??0?$basic_ios@DV?$char_traits@D@_STL@@@_STL@@QAE@PAV?$basic_streambuf@DV?$char_traits@D@_STL@@@1@@Z" PURGE="4" COMMENT="" />
    <EXPORT ORDINAL="68" NAME="??0?$basic_ios@GV?$char_traits@G@_STL@@@_STL@@IAE@XZ" PURGE="0" COMMENT="" />
    <EXPORT ORDINAL="69" NAME="??0?$basic_ios@GV?$char_traits@G@_STL@@@_STL@@QAE@PAV?$basic_streambuf@GV?$char_traits@G@_STL@@@1@@Z" PURGE="4" COMMENT="" />
    <EXPORT ORDINAL="70" NAME="??0?$basic_iostream@DV?$char_traits@D@_STL@@@_STL@@QAE@PAV?$basic_streambuf@DV?$char_traits@D@_STL@@@1@@Z" PURGE="8" COMMENT="" />
    <EXPORT ORDINAL="71" NAME="??0?$basic_iostream@GV?$char_traits@G@_STL@@@_STL@@QAE@PAV?$basic_streambuf@GV?$char_traits@G@_STL@@@1@@Z" PURGE="8" COMMENT="" />
    <EXPORT ORDINAL="72" NAME="??0?$basic_istream@DV?$char_traits@D@_STL@@@_STL@@QAE@PAV?$basic_streambuf@DV?$char_traits@D@_STL@@@1@@Z" PURGE="8" COMMENT="" />
    <EXPORT ORDINAL="73" NAME="??0?$basic_istream@GV?$char_traits@G@_STL@@@_STL@@QAE@PAV?$basic_streambuf@GV?$char_traits@G@_STL@@@1@@Z" PURGE="8" COMMENT="" />
    <EXPORT ORDINAL="74" NAME="??0?$basic_istringstream@DV?$char_traits@D@_STL@@V?$allocator@D@2@@_STL@@QAE@ABV?$basic_string@DV?$char_traits@D@_STL@@V?$allocator@D@2@@1@H@Z" PURGE="12" COMMENT="" />
    <EXPORT ORDINAL="75" NAME="??0?$basic_istringstream@DV?$char_traits@D@_STL@@V?$allocator@D@2@@_STL@@QAE@H@Z" PURGE="8" COMMENT="" />
    <EXPORT ORDINAL="76" NAME="??0?$basic_istringstream@GV?$char_traits@G@_STL@@V?$allocator@G@2@@_STL@@QAE@ABV?$basic_string@GV?$char_traits@G@_STL@@V?$allocator@G@2@@1@H@Z" PURGE="12" COMMENT="" />
    <EXPORT ORDINAL="77" NAME="??0?$basic_istringstream@GV?$char_traits@G@_STL@@V?$allocator@G@2@@_STL@@QAE@H@Z" PURGE="8" COMMENT="" />
    <EXPORT ORDINAL="78" NAME="??0?$basic_ofstream@DV?$char_traits@D@_STL@@@_STL@@QAE@HH@Z" PURGE="12" COMMENT="" />
    <EXPORT ORDINAL="79" NAME="??0?$basic_ofstream@DV?$char_traits@D@_STL@@@_STL@@QAE@PBDH@Z" PURGE="12" COMMENT="" />
    <EXPORT ORDINAL="80" NAME="??0?$basic_ofstream@DV?$char_traits@D@_STL@@@_STL@@QAE@PBDHJ@Z" PURGE="16" COMMENT="" />
    <EXPORT ORDINAL="81" NAME="??0?$basic_ofstream@DV?$char_traits@D@_STL@@@_STL@@QAE@XZ" PURGE="4" COMMENT="" />
    <EXPORT ORDINAL="82" NAME="??0?$basic_ofstream@GV?$char_traits@G@_STL@@@_STL@@QAE@HH@Z" PURGE="12" COMMENT="" />
    <EXPORT ORDINAL="83" NAME="??0?$basic_ofstream@GV?$char_traits@G@_STL@@@_STL@@QAE@PBDH@Z" PURGE="12" COMMENT="" />
    <EXPORT ORDINAL="84" NAME="??0?$basic_ofstream@GV?$char_traits@G@_STL@@@_STL@@QAE@PBDHJ@Z" PURGE="16" COMMENT="" />
    <EXPORT ORDINAL="85" NAME="??0?$basic_ofstream@GV?$char_traits@G@_STL@@@_STL@@QAE@XZ" PURGE="4" COMMENT="" />
    <EXPORT ORDINAL="86" NAME="??0?$basic_ostream@DV?$char_traits@D@_STL@@@_STL@@QAE@PAV?$basic_streambuf@DV?$char_traits@D@_STL@@@1@@Z" PURGE="8" COMMENT="" />
    <EXPORT ORDINAL="87" NAME="??0?$basic_ostream@GV?$char_traits@G@_STL@@@_STL@@QAE@PAV?$basic_streambuf@GV?$char_traits@G@_STL@@@1@@Z" PURGE="8" COMMENT="" />
    <EXPORT ORDINAL="88" NAME="??0?$basic_ostringstream@DV?$char_traits@D@_STL@@V?$allocator@D@2@@_STL@@QAE@ABV?$basic_string@DV?$char_traits@D@_STL@@V?$allocator@D@2@@1@H@Z" PURGE="12" COMMENT="" />
    <EXPORT ORDINAL="89" NAME="??0?$basic_ostringstream@DV?$char_traits@D@_STL@@V?$allocator@D@2@@_STL@@QAE@H@Z" PURGE="8" COMMENT="" />
    <EXPORT ORDINAL="90" NAME="??0?$basic_ostringstream@GV?$char_traits@G@_STL@@V?$allocator@G@2@@_STL@@QAE@ABV?$basic_string@GV?$char_traits@G@_STL@@V?$allocator@G@2@@1@H@Z" PURGE="12" COMMENT="" />
    <EXPORT ORDINAL="91" NAME="??0?$basic_ostringstream@GV?$char_traits@G@_STL@@V?$allocator@G@2@@_STL@@QAE@H@Z" PURGE="8" COMMENT="" />
    <EXPORT ORDINAL="92" NAME="??0?$basic_streambuf@DV?$char_traits@D@_STL@@@_STL@@IAE@PAU_iobuf@@0@Z" PURGE="8" COMMENT="" />
    <EXPORT ORDINAL="93" NAME="??0?$basic_streambuf@DV?$char_traits@D@_STL@@@_STL@@IAE@XZ" PURGE="0" COMMENT="" />
    <EXPORT ORDINAL="94" NAME="??0?$basic_streambuf@GV?$char_traits@G@_STL@@@_STL@@IAE@XZ" PURGE="0" COMMENT="" />
    <EXPORT ORDINAL="95" NAME="??0?$basic_string@DV?$char_traits@D@_STL@@V?$allocator@D@2@@_STL@@QAE@ABV01@@Z" PURGE="4" COMMENT="" />
    <EXPORT ORDINAL="96" NAME="??0?$basic_string@DV?$char_traits@D@_STL@@V?$allocator@D@2@@_STL@@QAE@ABV01@IIABV?$allocator@D@1@@Z" PURGE="16" COMMENT="" />
    <EXPORT ORDINAL="97" NAME="??0?$basic_string@DV?$char_traits@D@_STL@@V?$allocator@D@2@@_STL@@QAE@ABV?$allocator@D@1@@Z" PURGE="4" COMMENT="" />
    <EXPORT ORDINAL="98" NAME="??0?$basic_string@DV?$char_traits@D@_STL@@V?$allocator@D@2@@_STL@@QAE@IDABV?$allocator@D@1@@Z" PURGE="12" COMMENT="" />
    <EXPORT ORDINAL="99" NAME="??0?$basic_string@DV?$char_traits@D@_STL@@V?$allocator@D@2@@_STL@@QAE@PBDABV?$allocator@D@1@@Z" PURGE="8" COMMENT="" />
    <EXPORT ORDINAL="100" NAME="??0?$basic_string@DV?$char_traits@D@_STL@@V?$allocator@D@2@@_STL@@QAE@PBDIABV?$allocator@D@1@@Z" PURGE="12" COMMENT="" />
    <EXPORT ORDINAL="101" NAME="??0?$basic_string@DV?$char_traits@D@_STL@@V?$allocator@D@2@@_STL@@QAE@U_String_reserve_t@1@IABV?$allocator@D@1@@Z" PURGE="12" COMMENT="" />
    <EXPORT ORDINAL="102" NAME="??0?$basic_string@DV?$char_traits@D@_STL@@V?$allocator@D@2@@_STL@@QAE@XZ" PURGE="0" COMMENT="" />
    <EXPORT ORDINAL="103" NAME="??0?$basic_string@GV?$char_traits@G@_STL@@V?$allocator@G@2@@_STL@@QAE@ABV01@@Z" PURGE="4" COMMENT="" />
    <EXPORT ORDINAL="104" NAME="??0?$basic_string@GV?$char_traits@G@_STL@@V?$allocator@G@2@@_STL@@QAE@ABV01@IIABV?$allocator@G@1@@Z" PURGE="16" COMMENT="" />
    <EXPORT ORDINAL="105" NAME="??0?$basic_string@GV?$char_traits@G@_STL@@V?$allocator@G@2@@_STL@@QAE@ABV?$allocator@G@1@@Z" PURGE="4" COMMENT="" />
    <EXPORT ORDINAL="106" NAME="??0?$basic_string@GV?$char_traits@G@_STL@@V?$allocator@G@2@@_STL@@QAE@IGABV?$allocator@G@1@@Z" PURGE="12" COMMENT="" />
    <EXPORT ORDINAL="107" NAME="??0?$basic_string@GV?$char_traits@G@_STL@@V?$allocator@G@2@@_STL@@QAE@PBGABV?$allocator@G@1@@Z" PURGE="8" COMMENT="" />
    <EXPORT ORDINAL="108" NAME="??0?$basic_string@GV?$char_traits@G@_STL@@V?$allocator@G@2@@_STL@@QAE@PBGIABV?$allocator@G@1@@Z" PURGE="12" COMMENT="" />
    <EXPORT ORDINAL="109" NAME="??0?$basic_string@GV?$char_traits@G@_STL@@V?$allocator@G@2@@_STL@@QAE@U_String_reserve_t@1@IABV?$allocator@G@1@@Z" PURGE="12" COMMENT="" />
    <EXPORT ORDINAL="110" NAME="??0?$basic_string@GV?$char_traits@G@_STL@@V?$allocator@G@2@@_STL@@QAE@XZ" PURGE="0" COMMENT="" />
    <EXPORT ORDINAL="111" NAME="??0?$basic_stringbuf@DV?$char_traits@D@_STL@@V?$allocator@D@2@@_STL@@QAE@ABV?$basic_string@DV?$char_traits@D@_STL@@V?$allocator@D@2@@1@H@Z" PURGE="8" COMMENT="" />
    <EXPORT ORDINAL="112" NAME="??0?$basic_stringbuf@DV?$char_traits@D@_STL@@V?$allocator@D@2@@_STL@@QAE@H@Z" PURGE="4" COMMENT="" />
    <EXPORT ORDINAL="113" NAME="??0?$basic_stringbuf@GV?$char_traits@G@_STL@@V?$allocator@G@2@@_STL@@QAE@ABV?$basic_string@GV?$char_traits@G@_STL@@V?$allocator@G@2@@1@H@Z" PURGE="8" COMMENT="" />
    <EXPORT ORDINAL="114" NAME="??0?$basic_stringbuf@GV?$char_traits@G@_STL@@V?$allocator@G@2@@_STL@@QAE@H@Z" PURGE="4" COMMENT="" />
    <EXPORT ORDINAL="115" NAME="??0?$basic_stringstream@DV?$char_traits@D@_STL@@V?$allocator@D@2@@_STL@@QAE@ABV?$basic_string@DV?$char_traits@D@_STL@@V?$allocator@D@2@@1@H@Z" PURGE="12" COMMENT="" />
    <EXPORT ORDINAL="116" NAME="??0?$basic_stringstream@DV?$char_traits@D@_STL@@V?$allocator@D@2@@_STL@@QAE@H@Z" PURGE="8" COMMENT="" />
    <EXPORT ORDINAL="117" NAME="??0?$basic_stringstream@GV?$char_traits@G@_STL@@V?$allocator@G@2@@_STL@@QAE@ABV?$basic_string@GV?$char_traits@G@_STL@@V?$allocator@G@2@@1@H@Z" PURGE="12" COMMENT="" />
    <EXPORT ORDINAL="118" NAME="??0?$basic_stringstream@GV?$char_traits@G@_STL@@V?$allocator@G@2@@_STL@@QAE@H@Z" PURGE="8" COMMENT="" />
    <EXPORT ORDINAL="119" NAME="??0?$codecvt@DDH@_STL@@QAE@I@Z" PURGE="4" COMMENT="" />
    <EXPORT ORDINAL="120" NAME="??0?$codecvt@GDH@_STL@@QAE@I@Z" PURGE="4" COMMENT="" />
    <EXPORT ORDINAL="121" NAME="??0?$codecvt_byname@DDH@_STL@@QAE@PBDI@Z" PURGE="8" COMMENT="" />
    <EXPORT ORDINAL="122" NAME="??0?$collate@D@_STL@@QAE@I@Z" PURGE="4" COMMENT="" />
    <EXPORT ORDINAL="123" NAME="??0?$collate@G@_STL@@QAE@I@Z" PURGE="4" COMMENT="" />
    <EXPORT ORDINAL="124" NAME="??0?$collate_byname@D@_STL@@QAE@PBDI@Z" PURGE="8" COMMENT="" />
    <EXPORT ORDINAL="125" NAME="??0?$collate_byname@G@_STL@@QAE@PBDI@Z" PURGE="8" COMMENT="" />
    <EXPORT ORDINAL="126" NAME="??0?$complex@M@_STL@@QAE@ABU01@@Z" PURGE="4" COMMENT="" />
    <EXPORT ORDINAL="127" NAME="??0?$complex@M@_STL@@QAE@ABU?$complex@N@1@@Z" PURGE="4" COMMENT="" />
    <EXPORT ORDINAL="128" NAME="??0?$complex@M@_STL@@QAE@ABU?$complex@O@1@@Z" PURGE="4" COMMENT="" />
    <EXPORT ORDINAL="129" NAME="??0?$complex@M@_STL@@QAE@MM@Z" PURGE="8" COMMENT="" />
    <EXPORT ORDINAL="130" NAME="??0?$complex@N@_STL@@QAE@ABU01@@Z" PURGE="4" COMMENT="" />
    <EXPORT ORDINAL="131" NAME="??0?$complex@N@_STL@@QAE@ABU?$complex@M@1@@Z" PURGE="4" COMMENT="" />
    <EXPORT ORDINAL="132" NAME="??0?$complex@N@_STL@@QAE@ABU?$complex@O@1@@Z" PURGE="4" COMMENT="" />
    <EXPORT ORDINAL="133" NAME="??0?$complex@N@_STL@@QAE@NN@Z" PURGE="16" COMMENT="" />
    <EXPORT ORDINAL="134" NAME="??0?$complex@O@_STL@@QAE@ABU01@@Z" PURGE="4" COMMENT="" />
    <EXPORT ORDINAL="135" NAME="??0?$complex@O@_STL@@QAE@ABU?$complex@M@1@@Z" PURGE="4" COMMENT="" />
    <EXPORT ORDINAL="136" NAME="??0?$complex@O@_STL@@QAE@ABU?$complex@N@1@@Z" PURGE="4" COMMENT="" />
    <EXPORT ORDINAL="137" NAME="??0?$complex@O@_STL@@QAE@OO@Z" PURGE="16" COMMENT="" />
    <EXPORT ORDINAL="138" NAME="??0?$ctype@D@_STL@@QAE@PBW4mask@ctype_base@1@_NI@Z" PURGE="12" COMMENT="" />
    <EXPORT ORDINAL="139" NAME="??0?$ctype@G@_STL@@QAE@I@Z" PURGE="4" COMMENT="" />
    <EXPORT ORDINAL="140" NAME="??0?$ctype_byname@D@_STL@@QAE@PBDI@Z" PURGE="8" COMMENT="" />
    <EXPORT ORDINAL="141" NAME="??0?$ctype_byname@G@_STL@@QAE@PBDI@Z" PURGE="8" COMMENT="" />
    <EXPORT ORDINAL="142" NAME="??0?$istreambuf_iterator@DV?$char_traits@D@_STL@@@_STL@@QAE@AAV?$basic_istream@DV?$char_traits@D@_STL@@@1@@Z" PURGE="4" COMMENT="" />
    <EXPORT ORDINAL="143" NAME="??0?$istreambuf_iterator@DV?$char_traits@D@_STL@@@_STL@@QAE@PAV?$basic_streambuf@DV?$char_traits@D@_STL@@@1@@Z" PURGE="4" COMMENT="" />
    <EXPORT ORDINAL="144" NAME="??0?$messages@D@_STL@@IAE@IPAU_Locale_messages@@@Z" PURGE="8" COMMENT="" />
    <EXPORT ORDINAL="145" NAME="??0?$messages@D@_STL@@QAE@I@Z" PURGE="4" COMMENT="" />
    <EXPORT ORDINAL="146" NAME="??0?$messages@D@_STL@@QAE@PAV_Messages@1@@Z" PURGE="4" COMMENT="" />
    <EXPORT ORDINAL="147" NAME="??0?$messages@G@_STL@@IAE@IPAU_Locale_messages@@@Z" PURGE="8" COMMENT="" />
    <EXPORT ORDINAL="148" NAME="??0?$messages@G@_STL@@QAE@I@Z" PURGE="4" COMMENT="" />
    <EXPORT ORDINAL="149" NAME="??0?$messages@G@_STL@@QAE@PAV_Messages@1@@Z" PURGE="4" COMMENT="" />
    <EXPORT ORDINAL="150" NAME="??0?$messages_byname@D@_STL@@QAE@PBDI@Z" PURGE="8" COMMENT="" />
    <EXPORT ORDINAL="151" NAME="??0?$messages_byname@G@_STL@@QAE@PBDI@Z" PURGE="8" COMMENT="" />
    <EXPORT ORDINAL="152" NAME="??0?$money_get@DV?$istreambuf_iterator@DV?$char_traits@D@_STL@@@_STL@@@_STL@@QAE@I@Z" PURGE="4" COMMENT="" />
    <EXPORT ORDINAL="153" NAME="??0?$money_get@GV?$istreambuf_iterator@GV?$char_traits@G@_STL@@@_STL@@@_STL@@QAE@I@Z" PURGE="4" COMMENT="" />
    <EXPORT ORDINAL="154" NAME="??0?$money_put@DV?$ostreambuf_iterator@DV?$char_traits@D@_STL@@@_STL@@@_STL@@QAE@I@Z" PURGE="4" COMMENT="" />
    <EXPORT ORDINAL="155" NAME="??0?$money_put@GV?$ostreambuf_iterator@GV?$char_traits@G@_STL@@@_STL@@@_STL@@QAE@I@Z" PURGE="4" COMMENT="" />
    <EXPORT ORDINAL="156" NAME="??0?$moneypunct@D$00@_STL@@QAE@I@Z" PURGE="4" COMMENT="" />
    <EXPORT ORDINAL="157" NAME="??0?$moneypunct@D$0A@@_STL@@QAE@I@Z" PURGE="4" COMMENT="" />
    <EXPORT ORDINAL="158" NAME="??0?$moneypunct@G$00@_STL@@QAE@I@Z" PURGE="4" COMMENT="" />
    <EXPORT ORDINAL="159" NAME="??0?$moneypunct@G$0A@@_STL@@QAE@I@Z" PURGE="4" COMMENT="" />
    <EXPORT ORDINAL="160" NAME="??0?$moneypunct_byname@D$00@_STL@@QAE@PBDI@Z" PURGE="8" COMMENT="" />
    <EXPORT ORDINAL="161" NAME="??0?$moneypunct_byname@D$0A@@_STL@@QAE@PBDI@Z" PURGE="8" COMMENT="" />
    <EXPORT ORDINAL="162" NAME="??0?$moneypunct_byname@G$00@_STL@@QAE@PBDI@Z" PURGE="8" COMMENT="" />
    <EXPORT ORDINAL="163" NAME="??0?$moneypunct_byname@G$0A@@_STL@@QAE@PBDI@Z" PURGE="8" COMMENT="" />
    <EXPORT ORDINAL="164" NAME="??0?$num_get@DV?$istreambuf_iterator@DV?$char_traits@D@_STL@@@_STL@@@_STL@@QAE@I@Z" PURGE="4" COMMENT="" />
    <EXPORT ORDINAL="165" NAME="??0?$num_get@GV?$istreambuf_iterator@GV?$char_traits@G@_STL@@@_STL@@@_STL@@QAE@I@Z" PURGE="4" COMMENT="" />
    <EXPORT ORDINAL="166" NAME="??0?$num_put@DV?$ostreambuf_iterator@DV?$char_traits@D@_STL@@@_STL@@@_STL@@QAE@I@Z" PURGE="4" COMMENT="" />
    <EXPORT ORDINAL="167" NAME="??0?$num_put@GV?$ostreambuf_iterator@GV?$char_traits@G@_STL@@@_STL@@@_STL@@QAE@I@Z" PURGE="4" COMMENT="" />
    <EXPORT ORDINAL="168" NAME="??0?$numpunct@D@_STL@@QAE@I@Z" PURGE="4" COMMENT="" />
    <EXPORT ORDINAL="169" NAME="??0?$numpunct@G@_STL@@QAE@I@Z" PURGE="4" COMMENT="" />
    <EXPORT ORDINAL="170" NAME="??0?$numpunct_byname@D@_STL@@QAE@PBDI@Z" PURGE="8" COMMENT="" />
    <EXPORT ORDINAL="171" NAME="??0?$numpunct_byname@G@_STL@@QAE@PBDI@Z" PURGE="8" COMMENT="" />
    <EXPORT ORDINAL="172" NAME="??0?$ostreambuf_iterator@DV?$char_traits@D@_STL@@@_STL@@QAE@AAV?$basic_ostream@DV?$char_traits@D@_STL@@@1@@Z" PURGE="4" COMMENT="" />
    <EXPORT ORDINAL="173" NAME="??0?$ostreambuf_iterator@DV?$char_traits@D@_STL@@@_STL@@QAE@PAV?$basic_streambuf@DV?$char_traits@D@_STL@@@1@@Z" PURGE="4" COMMENT="" />
    <EXPORT ORDINAL="174" NAME="??0?$time_get@DV?$istreambuf_iterator@DV?$char_traits@D@_STL@@@_STL@@@_STL@@IAE@PAU_Locale_time@@I@Z" PURGE="8" COMMENT="" />
    <EXPORT ORDINAL="175" NAME="??0?$time_get@DV?$istreambuf_iterator@DV?$char_traits@D@_STL@@@_STL@@@_STL@@QAE@I@Z" PURGE="4" COMMENT="" />
    <EXPORT ORDINAL="176" NAME="??0?$time_get@GV?$istreambuf_iterator@GV?$char_traits@G@_STL@@@_STL@@@_STL@@IAE@PAU_Locale_time@@I@Z" PURGE="8" COMMENT="" />
    <EXPORT ORDINAL="177" NAME="??0?$time_get@GV?$istreambuf_iterator@GV?$char_traits@G@_STL@@@_STL@@@_STL@@QAE@I@Z" PURGE="4" COMMENT="" />
    <EXPORT ORDINAL="178" NAME="??0?$time_put@DV?$ostreambuf_iterator@DV?$char_traits@D@_STL@@@_STL@@@_STL@@IAE@PAU_Locale_time@@I@Z" PURGE="8" COMMENT="" />
    <EXPORT ORDINAL="179" NAME="??0?$time_put@DV?$ostreambuf_iterator@DV?$char_traits@D@_STL@@@_STL@@@_STL@@QAE@I@Z" PURGE="4" COMMENT="" />
    <EXPORT ORDINAL="180" NAME="??0?$time_put@GV?$ostreambuf_iterator@GV?$char_traits@G@_STL@@@_STL@@@_STL@@IAE@PAU_Locale_time@@I@Z" PURGE="8" COMMENT="" />
    <EXPORT ORDINAL="181" NAME="??0?$time_put@GV?$ostreambuf_iterator@GV?$char_traits@G@_STL@@@_STL@@@_STL@@QAE@I@Z" PURGE="4" COMMENT="" />
    <EXPORT ORDINAL="182" NAME="??0?$vector@PAXV?$allocator@PAX@_STL@@@_STL@@QAE@ABV01@@Z" PURGE="4" COMMENT="" />
    <EXPORT ORDINAL="183" NAME="??0?$vector@PAXV?$allocator@PAX@_STL@@@_STL@@QAE@ABV?$allocator@PAX@1@@Z" PURGE="4" COMMENT="" />
    <EXPORT ORDINAL="184" NAME="??0?$vector@PAXV?$allocator@PAX@_STL@@@_STL@@QAE@I@Z" PURGE="4" COMMENT="" />
    <EXPORT ORDINAL="185" NAME="??0?$vector@PAXV?$allocator@PAX@_STL@@@_STL@@QAE@IABQAXABV?$allocator@PAX@1@@Z" PURGE="12" COMMENT="" />
    <EXPORT ORDINAL="186" NAME="??0Init@ios_base@_STL@@QAE@XZ" PURGE="0" COMMENT="" />
    <EXPORT ORDINAL="187" NAME="??0_Filebuf_base@_STL@@QAE@XZ" PURGE="0" COMMENT="" />
    <EXPORT ORDINAL="188" NAME="??0_Loc_init@ios_base@_STL@@QAE@XZ" PURGE="0" COMMENT="" />
    <EXPORT ORDINAL="189" NAME="??0_Locale@_STL@@QAE@ABV01@@Z" PURGE="4" COMMENT="" />
    <EXPORT ORDINAL="190" NAME="??0_Locale@_STL@@QAE@ABV_Locale_impl@1@@Z" PURGE="4" COMMENT="" />
    <EXPORT ORDINAL="191" NAME="??0_Locale@_STL@@QAE@IPBD@Z" PURGE="8" COMMENT="" />
    <EXPORT ORDINAL="192" NAME="??0_Locale_impl@_STL@@QAE@ABV01@@Z" PURGE="4" COMMENT="" />
    <EXPORT ORDINAL="193" NAME="??0_Locale_impl@_STL@@QAE@PBD@Z" PURGE="4" COMMENT="" />
    <EXPORT ORDINAL="194" NAME="??0_Refcount_Base@_STL@@QAE@J@Z" PURGE="4" COMMENT="" />
    <EXPORT ORDINAL="195" NAME="??0_STLP_auto_lock@_STL@@QAE@AAU_STLP_mutex_base@1@@Z" PURGE="4" COMMENT="" />
    <EXPORT ORDINAL="196" NAME="??0_STLP_mutex@_STL@@QAE@XZ" PURGE="0" COMMENT="" />
    <EXPORT ORDINAL="197" NAME="??0_STLP_mutex_lock@_STL@@QAE@AAU_STLP_mutex_indirect@1@@Z" PURGE="4" COMMENT="" />
    <EXPORT ORDINAL="198" NAME="??0_Time_Info@_STL@@QAE@ABV01@@Z" PURGE="4" COMMENT="" />
    <EXPORT ORDINAL="199" NAME="??0_Time_Info@_STL@@QAE@XZ" PURGE="0" COMMENT="" />
    <EXPORT ORDINAL="200" NAME="??0__Named_exception@_STL@@QAE@ABV01@@Z" PURGE="4" COMMENT="" />
    <EXPORT ORDINAL="201" NAME="??0__Named_exception@_STL@@QAE@ABV?$basic_string@DV?$char_traits@D@_STL@@V?$allocator@D@2@@1@@Z" PURGE="4" COMMENT="" />
    <EXPORT ORDINAL="202" NAME="??0domain_error@_STL@@QAE@ABV01@@Z" PURGE="4" COMMENT="" />
    <EXPORT ORDINAL="203" NAME="??0domain_error@_STL@@QAE@ABV?$basic_string@DV?$char_traits@D@_STL@@V?$allocator@D@2@@1@@Z" PURGE="4" COMMENT="" />
    <EXPORT ORDINAL="204" NAME="??0facet@locale@_STL@@AAE@ABV012@@Z" PURGE="4" COMMENT="" />
    <EXPORT ORDINAL="205" NAME="??0facet@locale@_STL@@IAE@I@Z" PURGE="4" COMMENT="" />
    <EXPORT ORDINAL="206" NAME="??0failure@ios_base@_STL@@QAE@ABV012@@Z" PURGE="4" COMMENT="" />
    <EXPORT ORDINAL="207" NAME="??0failure@ios_base@_STL@@QAE@ABV?$basic_string@DV?$char_traits@D@_STL@@V?$allocator@D@2@@2@@Z" PURGE="4" COMMENT="" />
    <EXPORT ORDINAL="208" NAME="??0invalid_argument@_STL@@QAE@ABV01@@Z" PURGE="4" COMMENT="" />
    <EXPORT ORDINAL="209" NAME="??0invalid_argument@_STL@@QAE@ABV?$basic_string@DV?$char_traits@D@_STL@@V?$allocator@D@2@@1@@Z" PURGE="4" COMMENT="" />
    <EXPORT ORDINAL="210" NAME="??0ios_base@_STL@@IAE@XZ" PURGE="0" COMMENT="" />
    <EXPORT ORDINAL="211" NAME="??0istrstream@_STL@@QAE@PAD@Z" PURGE="8" COMMENT="" />
    <EXPORT ORDINAL="212" NAME="??0istrstream@_STL@@QAE@PADH@Z" PURGE="12" COMMENT="" />
    <EXPORT ORDINAL="213" NAME="??0istrstream@_STL@@QAE@PBD@Z" PURGE="8" COMMENT="" />
    <EXPORT ORDINAL="214" NAME="??0istrstream@_STL@@QAE@PBDH@Z" PURGE="12" COMMENT="" />
    <EXPORT ORDINAL="215" NAME="??0length_error@_STL@@QAE@ABV01@@Z" PURGE="4" COMMENT="" />
    <EXPORT ORDINAL="216" NAME="??0length_error@_STL@@QAE@ABV?$basic_string@DV?$char_traits@D@_STL@@V?$allocator@D@2@@1@@Z" PURGE="4" COMMENT="" />
    <EXPORT ORDINAL="217" NAME="??0locale@_STL@@QAE@ABV01@0H@Z" PURGE="12" COMMENT="" />
    <EXPORT ORDINAL="218" NAME="??0locale@_STL@@QAE@ABV01@@Z" PURGE="4" COMMENT="" />
    <EXPORT ORDINAL="219" NAME="??0locale@_STL@@QAE@ABV01@PBDH@Z" PURGE="12" COMMENT="" />
    <EXPORT ORDINAL="220" NAME="??0locale@_STL@@QAE@PAV_Locale_impl@1@@Z" PURGE="4" COMMENT="" />
    <EXPORT ORDINAL="221" NAME="??0locale@_STL@@QAE@PAV_Locale_impl@1@_N@Z" PURGE="8" COMMENT="" />
    <EXPORT ORDINAL="222" NAME="??0locale@_STL@@QAE@PBD@Z" PURGE="4" COMMENT="" />
    <EXPORT ORDINAL="223" NAME="??0locale@_STL@@QAE@XZ" PURGE="0" COMMENT="" />
    <EXPORT ORDINAL="224" NAME="??0logic_error@_STL@@QAE@ABV01@@Z" PURGE="4" COMMENT="" />
    <EXPORT ORDINAL="225" NAME="??0logic_error@_STL@@QAE@ABV?$basic_string@DV?$char_traits@D@_STL@@V?$allocator@D@2@@1@@Z" PURGE="4" COMMENT="" />
    <EXPORT ORDINAL="226" NAME="??0ostrstream@_STL@@QAE@PADHH@Z" PURGE="16" COMMENT="" />
    <EXPORT ORDINAL="227" NAME="??0ostrstream@_STL@@QAE@XZ" PURGE="4" COMMENT="" />
    <EXPORT ORDINAL="228" NAME="??0out_of_range@_STL@@QAE@ABV01@@Z" PURGE="4" COMMENT="" />
    <EXPORT ORDINAL="229" NAME="??0out_of_range@_STL@@QAE@ABV?$basic_string@DV?$char_traits@D@_STL@@V?$allocator@D@2@@1@@Z" PURGE="4" COMMENT="" />
    <EXPORT ORDINAL="230" NAME="??0overflow_error@_STL@@QAE@ABV01@@Z" PURGE="4" COMMENT="" />
    <EXPORT ORDINAL="231" NAME="??0overflow_error@_STL@@QAE@ABV?$basic_string@DV?$char_traits@D@_STL@@V?$allocator@D@2@@1@@Z" PURGE="4" COMMENT="" />
    <EXPORT ORDINAL="232" NAME="??0range_error@_STL@@QAE@ABV01@@Z" PURGE="4" COMMENT="" />
    <EXPORT ORDINAL="233" NAME="??0range_error@_STL@@QAE@ABV?$basic_string@DV?$char_traits@D@_STL@@V?$allocator@D@2@@1@@Z" PURGE="4" COMMENT="" />
    <EXPORT ORDINAL="234" NAME="??0runtime_error@_STL@@QAE@ABV01@@Z" PURGE="4" COMMENT="" />
    <EXPORT ORDINAL="235" NAME="??0runtime_error@_STL@@QAE@ABV?$basic_string@DV?$char_traits@D@_STL@@V?$allocator@D@2@@1@@Z" PURGE="4" COMMENT="" />
    <EXPORT ORDINAL="236" NAME="??0strstream@_STL@@QAE@PADHH@Z" PURGE="16" COMMENT="" />
    <EXPORT ORDINAL="237" NAME="??0strstream@_STL@@QAE@XZ" PURGE="4" COMMENT="" />
    <EXPORT ORDINAL="238" NAME="??0strstreambuf@_STL@@QAE@H@Z" PURGE="4" COMMENT="" />
    <EXPORT ORDINAL="239" NAME="??0strstreambuf@_STL@@QAE@P6APAXI@ZP6AXPAX@Z@Z" PURGE="8" COMMENT="" />
    <EXPORT ORDINAL="240" NAME="??0strstreambuf@_STL@@QAE@PACH0@Z" PURGE="12" COMMENT="" />
    <EXPORT ORDINAL="241" NAME="??0strstreambuf@_STL@@QAE@PADH0@Z" PURGE="12" COMMENT="" />
    <EXPORT ORDINAL="242" NAME="??0strstreambuf@_STL@@QAE@PAEH0@Z" PURGE="12" COMMENT="" />
    <EXPORT ORDINAL="243" NAME="??0strstreambuf@_STL@@QAE@PBCH@Z" PURGE="8" COMMENT="" />
    <EXPORT ORDINAL="244" NAME="??0strstreambuf@_STL@@QAE@PBDH@Z" PURGE="8" COMMENT="" />
    <EXPORT ORDINAL="245" NAME="??0strstreambuf@_STL@@QAE@PBEH@Z" PURGE="8" COMMENT="" />
    <EXPORT ORDINAL="246" NAME="??0underflow_error@_STL@@QAE@ABV01@@Z" PURGE="4" COMMENT="" />
    <EXPORT ORDINAL="247" NAME="??0underflow_error@_STL@@QAE@ABV?$basic_string@DV?$char_traits@D@_STL@@V?$allocator@D@2@@1@@Z" PURGE="4" COMMENT="" />
    <EXPORT ORDINAL="248" NAME="??1?$_Isentry@DV?$char_traits@D@_STL@@@_STL@@QAE@XZ" PURGE="0" COMMENT="" />
    <EXPORT ORDINAL="249" NAME="??1?$_Isentry@GV?$char_traits@G@_STL@@@_STL@@QAE@XZ" PURGE="0" COMMENT="" />
    <EXPORT ORDINAL="250" NAME="??1?$_Osentry@DV?$char_traits@D@_STL@@@_STL@@QAE@XZ" PURGE="0" COMMENT="" />
    <EXPORT ORDINAL="251" NAME="??1?$_Osentry@GV?$char_traits@G@_STL@@@_STL@@QAE@XZ" PURGE="0" COMMENT="" />
    <EXPORT ORDINAL="252" NAME="??1?$_STLP_alloc_proxy@PADDV?$allocator@D@_STL@@@_STL@@QAE@XZ" PURGE="0" COMMENT="" />
    <EXPORT ORDINAL="253" NAME="??1?$_STLP_alloc_proxy@PAGGV?$allocator@G@_STL@@@_STL@@QAE@XZ" PURGE="0" COMMENT="" />
    <EXPORT ORDINAL="254" NAME="??1?$_STLP_alloc_proxy@PAPAXPAXV?$allocator@PAX@_STL@@@_STL@@QAE@XZ" PURGE="0" COMMENT="" />
    <EXPORT ORDINAL="255" NAME="??1?$_String_base@DV?$allocator@D@_STL@@@_STL@@QAE@XZ" PURGE="0" COMMENT="" />
    <EXPORT ORDINAL="256" NAME="??1?$_String_base@GV?$allocator@G@_STL@@@_STL@@QAE@XZ" PURGE="0" COMMENT="" />
    <EXPORT ORDINAL="257" NAME="??1?$_Vector_base@PAXV?$allocator@PAX@_STL@@@_STL@@QAE@XZ" PURGE="0" COMMENT="" />
    <EXPORT ORDINAL="258" NAME="??1?$__debug_alloc@V?$__malloc_alloc@$0A@@_STL@@@_STL@@QAE@XZ" PURGE="0" COMMENT="" />
    <EXPORT ORDINAL="259" NAME="??1?$__debug_alloc@V?$__node_alloc@$00$0A@@_STL@@@_STL@@QAE@XZ" PURGE="0" COMMENT="" />
    <EXPORT ORDINAL="260" NAME="??1?$__debug_alloc@V__new_alloc@_STL@@@_STL@@QAE@XZ" PURGE="0" COMMENT="" />
    <EXPORT ORDINAL="261" NAME="??1?$allocator@D@_STL@@QAE@XZ" PURGE="0" COMMENT="" />
    <EXPORT ORDINAL="262" NAME="??1?$allocator@G@_STL@@QAE@XZ" PURGE="0" COMMENT="" />
    <EXPORT ORDINAL="263" NAME="??1?$allocator@PAX@_STL@@QAE@XZ" PURGE="0" COMMENT="" />
    <EXPORT ORDINAL="264" NAME="??1?$basic_filebuf@DV?$char_traits@D@_STL@@@_STL@@UAE@XZ" PURGE="0" COMMENT="" />
    <EXPORT ORDINAL="265" NAME="??1?$basic_filebuf@GV?$char_traits@G@_STL@@@_STL@@UAE@XZ" PURGE="0" COMMENT="" />
    <EXPORT ORDINAL="266" NAME="??1?$basic_fstream@DV?$char_traits@D@_STL@@@_STL@@UAE@XZ" PURGE="0" COMMENT="" />
    <EXPORT ORDINAL="267" NAME="??1?$basic_fstream@GV?$char_traits@G@_STL@@@_STL@@UAE@XZ" PURGE="0" COMMENT="" />
    <EXPORT ORDINAL="268" NAME="??1?$basic_ifstream@DV?$char_traits@D@_STL@@@_STL@@UAE@XZ" PURGE="0" COMMENT="" />
    <EXPORT ORDINAL="269" NAME="??1?$basic_ifstream@GV?$char_traits@G@_STL@@@_STL@@UAE@XZ" PURGE="0" COMMENT="" />
    <EXPORT ORDINAL="270" NAME="??1?$basic_ios@DV?$char_traits@D@_STL@@@_STL@@UAE@XZ" PURGE="0" COMMENT="" />
    <EXPORT ORDINAL="271" NAME="??1?$basic_ios@GV?$char_traits@G@_STL@@@_STL@@UAE@XZ" PURGE="0" COMMENT="" />
    <EXPORT ORDINAL="272" NAME="??1?$basic_iostream@DV?$char_traits@D@_STL@@@_STL@@UAE@XZ" PURGE="0" COMMENT="" />
    <EXPORT ORDINAL="273" NAME="??1?$basic_iostream@GV?$char_traits@G@_STL@@@_STL@@UAE@XZ" PURGE="0" COMMENT="" />
    <EXPORT ORDINAL="274" NAME="??1?$basic_istream@DV?$char_traits@D@_STL@@@_STL@@UAE@XZ" PURGE="0" COMMENT="" />
    <EXPORT ORDINAL="275" NAME="??1?$basic_istream@GV?$char_traits@G@_STL@@@_STL@@UAE@XZ" PURGE="0" COMMENT="" />
    <EXPORT ORDINAL="276" NAME="??1?$basic_istringstream@DV?$char_traits@D@_STL@@V?$allocator@D@2@@_STL@@UAE@XZ" PURGE="0" COMMENT="" />
    <EXPORT ORDINAL="277" NAME="??1?$basic_istringstream@GV?$char_traits@G@_STL@@V?$allocator@G@2@@_STL@@UAE@XZ" PURGE="0" COMMENT="" />
    <EXPORT ORDINAL="278" NAME="??1?$basic_ofstream@DV?$char_traits@D@_STL@@@_STL@@UAE@XZ" PURGE="0" COMMENT="" />
    <EXPORT ORDINAL="279" NAME="??1?$basic_ofstream@GV?$char_traits@G@_STL@@@_STL@@UAE@XZ" PURGE="0" COMMENT="" />
    <EXPORT ORDINAL="280" NAME="??1?$basic_ostream@DV?$char_traits@D@_STL@@@_STL@@UAE@XZ" PURGE="0" COMMENT="" />
    <EXPORT ORDINAL="281" NAME="??1?$basic_ostream@GV?$char_traits@G@_STL@@@_STL@@UAE@XZ" PURGE="0" COMMENT="" />
    <EXPORT ORDINAL="282" NAME="??1?$basic_ostringstream@DV?$char_traits@D@_STL@@V?$allocator@D@2@@_STL@@UAE@XZ" PURGE="0" COMMENT="" />
    <EXPORT ORDINAL="283" NAME="??1?$basic_ostringstream@GV?$char_traits@G@_STL@@V?$allocator@G@2@@_STL@@UAE@XZ" PURGE="0" COMMENT="" />
    <EXPORT ORDINAL="284" NAME="??1?$basic_streambuf@DV?$char_traits@D@_STL@@@_STL@@UAE@XZ" PURGE="0" COMMENT="" />
    <EXPORT ORDINAL="285" NAME="??1?$basic_streambuf@GV?$char_traits@G@_STL@@@_STL@@UAE@XZ" PURGE="0" COMMENT="" />
    <EXPORT ORDINAL="286" NAME="??1?$basic_string@DV?$char_traits@D@_STL@@V?$allocator@D@2@@_STL@@QAE@XZ" PURGE="0" COMMENT="" />
    <EXPORT ORDINAL="287" NAME="??1?$basic_string@GV?$char_traits@G@_STL@@V?$allocator@G@2@@_STL@@QAE@XZ" PURGE="0" COMMENT="" />
    <EXPORT ORDINAL="288" NAME="??1?$basic_stringbuf@DV?$char_traits@D@_STL@@V?$allocator@D@2@@_STL@@UAE@XZ" PURGE="0" COMMENT="" />
    <EXPORT ORDINAL="289" NAME="??1?$basic_stringbuf@GV?$char_traits@G@_STL@@V?$allocator@G@2@@_STL@@UAE@XZ" PURGE="0" COMMENT="" />
    <EXPORT ORDINAL="290" NAME="??1?$basic_stringstream@DV?$char_traits@D@_STL@@V?$allocator@D@2@@_STL@@UAE@XZ" PURGE="0" COMMENT="" />
    <EXPORT ORDINAL="291" NAME="??1?$basic_stringstream@GV?$char_traits@G@_STL@@V?$allocator@G@2@@_STL@@UAE@XZ" PURGE="0" COMMENT="" />
    <EXPORT ORDINAL="292" NAME="??1?$codecvt@DDH@_STL@@MAE@XZ" PURGE="0" COMMENT="" />
    <EXPORT ORDINAL="293" NAME="??1?$codecvt@GDH@_STL@@MAE@XZ" PURGE="0" COMMENT="" />
    <EXPORT ORDINAL="294" NAME="??1?$codecvt_byname@DDH@_STL@@UAE@XZ" PURGE="0" COMMENT="" />
    <EXPORT ORDINAL="295" NAME="??1?$collate@D@_STL@@MAE@XZ" PURGE="0" COMMENT="" />
    <EXPORT ORDINAL="296" NAME="??1?$collate@G@_STL@@MAE@XZ" PURGE="0" COMMENT="" />
    <EXPORT ORDINAL="297" NAME="??1?$collate_byname@D@_STL@@MAE@XZ" PURGE="0" COMMENT="" />
    <EXPORT ORDINAL="298" NAME="??1?$collate_byname@G@_STL@@MAE@XZ" PURGE="0" COMMENT="" />
    <EXPORT ORDINAL="299" NAME="??1?$ctype@D@_STL@@MAE@XZ" PURGE="0" COMMENT="" />
    <EXPORT ORDINAL="300" NAME="??1?$ctype@G@_STL@@MAE@XZ" PURGE="0" COMMENT="" />
    <EXPORT ORDINAL="301" NAME="??1?$ctype_byname@D@_STL@@UAE@XZ" PURGE="0" COMMENT="" />
    <EXPORT ORDINAL="302" NAME="??1?$ctype_byname@G@_STL@@MAE@XZ" PURGE="0" COMMENT="" />
    <EXPORT ORDINAL="303" NAME="??1?$messages@D@_STL@@MAE@XZ" PURGE="0" COMMENT="" />
    <EXPORT ORDINAL="304" NAME="??1?$messages@G@_STL@@MAE@XZ" PURGE="0" COMMENT="" />
    <EXPORT ORDINAL="305" NAME="??1?$messages_byname@D@_STL@@MAE@XZ" PURGE="0" COMMENT="" />
    <EXPORT ORDINAL="306" NAME="??1?$messages_byname@G@_STL@@MAE@XZ" PURGE="0" COMMENT="" />
    <EXPORT ORDINAL="307" NAME="??1?$money_get@DV?$istreambuf_iterator@DV?$char_traits@D@_STL@@@_STL@@@_STL@@MAE@XZ" PURGE="0" COMMENT="" />
    <EXPORT ORDINAL="308" NAME="??1?$money_get@GV?$istreambuf_iterator@GV?$char_traits@G@_STL@@@_STL@@@_STL@@MAE@XZ" PURGE="0" COMMENT="" />
    <EXPORT ORDINAL="309" NAME="??1?$money_put@DV?$ostreambuf_iterator@DV?$char_traits@D@_STL@@@_STL@@@_STL@@MAE@XZ" PURGE="0" COMMENT="" />
    <EXPORT ORDINAL="310" NAME="??1?$money_put@GV?$ostreambuf_iterator@GV?$char_traits@G@_STL@@@_STL@@@_STL@@MAE@XZ" PURGE="0" COMMENT="" />
    <EXPORT ORDINAL="311" NAME="??1?$moneypunct@D$00@_STL@@MAE@XZ" PURGE="0" COMMENT="" />
    <EXPORT ORDINAL="312" NAME="??1?$moneypunct@D$0A@@_STL@@MAE@XZ" PURGE="0" COMMENT="" />
    <EXPORT ORDINAL="313" NAME="??1?$moneypunct@G$00@_STL@@MAE@XZ" PURGE="0" COMMENT="" />
    <EXPORT ORDINAL="314" NAME="??1?$moneypunct@G$0A@@_STL@@MAE@XZ" PURGE="0" COMMENT="" />
    <EXPORT ORDINAL="315" NAME="??1?$moneypunct_byname@D$00@_STL@@MAE@XZ" PURGE="0" COMMENT="" />
    <EXPORT ORDINAL="316" NAME="??1?$moneypunct_byname@D$0A@@_STL@@MAE@XZ" PURGE="0" COMMENT="" />
    <EXPORT ORDINAL="317" NAME="??1?$moneypunct_byname@G$00@_STL@@MAE@XZ" PURGE="0" COMMENT="" />
    <EXPORT ORDINAL="318" NAME="??1?$moneypunct_byname@G$0A@@_STL@@MAE@XZ" PURGE="0" COMMENT="" />
    <EXPORT ORDINAL="319" NAME="??1?$num_get@DV?$istreambuf_iterator@DV?$char_traits@D@_STL@@@_STL@@@_STL@@MAE@XZ" PURGE="0" COMMENT="" />
    <EXPORT ORDINAL="320" NAME="??1?$num_get@GV?$istreambuf_iterator@GV?$char_traits@G@_STL@@@_STL@@@_STL@@MAE@XZ" PURGE="0" COMMENT="" />
    <EXPORT ORDINAL="321" NAME="??1?$num_put@DV?$ostreambuf_iterator@DV?$char_traits@D@_STL@@@_STL@@@_STL@@MAE@XZ" PURGE="0" COMMENT="" />
    <EXPORT ORDINAL="322" NAME="??1?$num_put@GV?$ostreambuf_iterator@GV?$char_traits@G@_STL@@@_STL@@@_STL@@MAE@XZ" PURGE="0" COMMENT="" />
    <EXPORT ORDINAL="323" NAME="??1?$numpunct@D@_STL@@MAE@XZ" PURGE="0" COMMENT="" />
    <EXPORT ORDINAL="324" NAME="??1?$numpunct@G@_STL@@MAE@XZ" PURGE="0" COMMENT="" />
    <EXPORT ORDINAL="325" NAME="??1?$numpunct_byname@D@_STL@@MAE@XZ" PURGE="0" COMMENT="" />
    <EXPORT ORDINAL="326" NAME="??1?$numpunct_byname@G@_STL@@MAE@XZ" PURGE="0" COMMENT="" />
    <EXPORT ORDINAL="327" NAME="??1?$time_get@DV?$istreambuf_iterator@DV?$char_traits@D@_STL@@@_STL@@@_STL@@MAE@XZ" PURGE="0" COMMENT="" />
    <EXPORT ORDINAL="328" NAME="??1?$time_get@GV?$istreambuf_iterator@GV?$char_traits@G@_STL@@@_STL@@@_STL@@MAE@XZ" PURGE="0" COMMENT="" />
    <EXPORT ORDINAL="329" NAME="??1?$time_put@DV?$ostreambuf_iterator@DV?$char_traits@D@_STL@@@_STL@@@_STL@@MAE@XZ" PURGE="0" COMMENT="" />
    <EXPORT ORDINAL="330" NAME="??1?$time_put@GV?$ostreambuf_iterator@GV?$char_traits@G@_STL@@@_STL@@@_STL@@MAE@XZ" PURGE="0" COMMENT="" />
    <EXPORT ORDINAL="331" NAME="??1?$vector@PAXV?$allocator@PAX@_STL@@@_STL@@QAE@XZ" PURGE="0" COMMENT="" />
    <EXPORT ORDINAL="332" NAME="??1Init@ios_base@_STL@@QAE@XZ" PURGE="0" COMMENT="" />
    <EXPORT ORDINAL="333" NAME="??1_Loc_init@ios_base@_STL@@QAE@XZ" PURGE="0" COMMENT="" />
    <EXPORT ORDINAL="334" NAME="??1_Locale@_STL@@UAE@XZ" PURGE="0" COMMENT="" />
    <EXPORT ORDINAL="335" NAME="??1_Locale_impl@_STL@@UAE@XZ" PURGE="0" COMMENT="" />
    <EXPORT ORDINAL="336" NAME="??1_STLP_auto_lock@_STL@@QAE@XZ" PURGE="0" COMMENT="" />
    <EXPORT ORDINAL="337" NAME="??1_STLP_mutex@_STL@@QAE@XZ" PURGE="0" COMMENT="" />
    <EXPORT ORDINAL="338" NAME="??1_STLP_mutex_lock@_STL@@QAE@XZ" PURGE="0" COMMENT="" />
    <EXPORT ORDINAL="339" NAME="??1_Time_Info@_STL@@QAE@XZ" PURGE="0" COMMENT="" />
    <EXPORT ORDINAL="340" NAME="??1__Named_exception@_STL@@UAE@XZ" PURGE="0" COMMENT="" />
    <EXPORT ORDINAL="341" NAME="??1domain_error@_STL@@UAE@XZ" PURGE="0" COMMENT="" />
    <EXPORT ORDINAL="342" NAME="??1facet@locale@_STL@@MAE@XZ" PURGE="0" COMMENT="" />
    <EXPORT ORDINAL="343" NAME="??1failure@ios_base@_STL@@UAE@XZ" PURGE="0" COMMENT="" />
    <EXPORT ORDINAL="344" NAME="??1invalid_argument@_STL@@UAE@XZ" PURGE="0" COMMENT="" />
    <EXPORT ORDINAL="345" NAME="??1ios_base@_STL@@UAE@XZ" PURGE="0" COMMENT="" />
    <EXPORT ORDINAL="346" NAME="??1istrstream@_STL@@UAE@XZ" PURGE="0" COMMENT="" />
    <EXPORT ORDINAL="347" NAME="??1length_error@_STL@@UAE@XZ" PURGE="0" COMMENT="" />
    <EXPORT ORDINAL="348" NAME="??1locale@_STL@@QAE@XZ" PURGE="-1" COMMENT="" />
    <EXPORT ORDINAL="349" NAME="??1logic_error@_STL@@UAE@XZ" PURGE="0" COMMENT="" />
    <EXPORT ORDINAL="350" NAME="??1ostrstream@_STL@@UAE@XZ" PURGE="0" COMMENT="" />
    <EXPORT ORDINAL="351" NAME="??1out_of_range@_STL@@UAE@XZ" PURGE="0" COMMENT="" />
    <EXPORT ORDINAL="352" NAME="??1overflow_error@_STL@@UAE@XZ" PURGE="0" COMMENT="" />
    <EXPORT ORDINAL="353" NAME="??1range_error@_STL@@UAE@XZ" PURGE="0" COMMENT="" />
    <EXPORT ORDINAL="354" NAME="??1runtime_error@_STL@@UAE@XZ" PURGE="0" COMMENT="" />
    <EXPORT ORDINAL="355" NAME="??1strstream@_STL@@UAE@XZ" PURGE="0" COMMENT="" />
    <EXPORT ORDINAL="356" NAME="??1strstreambuf@_STL@@UAE@XZ" PURGE="0" COMMENT="" />
    <EXPORT ORDINAL="357" NAME="??1underflow_error@_STL@@UAE@XZ" PURGE="0" COMMENT="" />
    <EXPORT ORDINAL="358" NAME="??4?$_Isentry@DV?$char_traits@D@_STL@@@_STL@@AAEXABV01@@Z" PURGE="4" COMMENT="" />
    <EXPORT ORDINAL="359" NAME="??4?$_Isentry@GV?$char_traits@G@_STL@@@_STL@@AAEXABV01@@Z" PURGE="4" COMMENT="" />
    <EXPORT ORDINAL="360" NAME="??4?$_LimG@_N@_STL@@QAEAAV01@ABV01@@Z" PURGE="4" COMMENT="" />
    <EXPORT ORDINAL="361" NAME="??4?$_List_global@_N@_STL@@QAEAAV01@ABV01@@Z" PURGE="4" COMMENT="" />
    <EXPORT ORDINAL="362" NAME="??4?$_Noconv_output@V?$char_traits@D@_STL@@@_STL@@QAEAAV01@ABV01@@Z" PURGE="4" COMMENT="" />
    <EXPORT ORDINAL="363" NAME="??4?$_Osentry@DV?$char_traits@D@_STL@@@_STL@@AAEXABV01@@Z" PURGE="4" COMMENT="" />
    <EXPORT ORDINAL="364" NAME="??4?$_Osentry@GV?$char_traits@G@_STL@@@_STL@@AAEXABV01@@Z" PURGE="4" COMMENT="" />
    <EXPORT ORDINAL="365" NAME="??4?$_Rb_global@_N@_STL@@QAEAAV01@ABV01@@Z" PURGE="4" COMMENT="" />
    <EXPORT ORDINAL="366" NAME="??4?$_STLP_alloc_proxy@PADDV?$allocator@D@_STL@@@_STL@@QAEAAV01@ABV01@@Z" PURGE="4" COMMENT="" />
    <EXPORT ORDINAL="367" NAME="??4?$_STLP_alloc_proxy@PAGGV?$allocator@G@_STL@@@_STL@@QAEAAV01@ABV01@@Z" PURGE="4" COMMENT="" />
    <EXPORT ORDINAL="368" NAME="??4?$_STLP_alloc_proxy@PAPAXPAXV?$allocator@PAX@_STL@@@_STL@@QAEAAV01@ABV01@@Z" PURGE="4" COMMENT="" />
    <EXPORT ORDINAL="369" NAME="??4?$_Sl_global@_N@_STL@@QAEAAV01@ABV01@@Z" PURGE="4" COMMENT="" />
    <EXPORT ORDINAL="370" NAME="??4?$_String_base@DV?$allocator@D@_STL@@@_STL@@QAEAAV01@ABV01@@Z" PURGE="4" COMMENT="" />
    <EXPORT ORDINAL="371" NAME="??4?$_String_base@GV?$allocator@G@_STL@@@_STL@@QAEAAV01@ABV01@@Z" PURGE="4" COMMENT="" />
    <EXPORT ORDINAL="372" NAME="??4?$_Underflow@DV?$char_traits@D@_STL@@@_STL@@QAEAAV01@ABV01@@Z" PURGE="4" COMMENT="" />
    <EXPORT ORDINAL="373" NAME="??4?$_Underflow@GV?$char_traits@G@_STL@@@_STL@@QAEAAV01@ABV01@@Z" PURGE="4" COMMENT="" />
    <EXPORT ORDINAL="374" NAME="??4?$_Vector_base@PAXV?$allocator@PAX@_STL@@@_STL@@QAEAAV01@ABV01@@Z" PURGE="4" COMMENT="" />
    <EXPORT ORDINAL="375" NAME="??4?$__char_traits_base@DH@_STL@@QAEAAV01@ABV01@@Z" PURGE="4" COMMENT="" />
    <EXPORT ORDINAL="376" NAME="??4?$__char_traits_base@GG@_STL@@QAEAAV01@ABV01@@Z" PURGE="4" COMMENT="" />
    <EXPORT ORDINAL="377" NAME="??4?$__debug_alloc@V?$__malloc_alloc@$0A@@_STL@@@_STL@@QAEAAV01@ABV01@@Z" PURGE="4" COMMENT="" />
    <EXPORT ORDINAL="378" NAME="??4?$__debug_alloc@V?$__node_alloc@$00$0A@@_STL@@@_STL@@QAEAAV01@ABV01@@Z" PURGE="4" COMMENT="" />
    <EXPORT ORDINAL="379" NAME="??4?$__debug_alloc@V__new_alloc@_STL@@@_STL@@QAEAAV01@ABV01@@Z" PURGE="4" COMMENT="" />
    <EXPORT ORDINAL="380" NAME="??4?$__malloc_alloc@$0A@@_STL@@QAEAAV01@ABV01@@Z" PURGE="4" COMMENT="" />
    <EXPORT ORDINAL="381" NAME="??4?$__node_alloc@$00$0A@@_STL@@QAEAAV01@ABV01@@Z" PURGE="4" COMMENT="" />
    <EXPORT ORDINAL="382" NAME="??4?$__stl_debug_engine@_N@_STL@@QAEAAU01@ABU01@@Z" PURGE="4" COMMENT="" />
    <EXPORT ORDINAL="383" NAME="??4?$allocator@D@_STL@@QAEAAV01@ABV01@@Z" PURGE="4" COMMENT="" />
    <EXPORT ORDINAL="384" NAME="??4?$allocator@G@_STL@@QAEAAV01@ABV01@@Z" PURGE="4" COMMENT="" />
    <EXPORT ORDINAL="385" NAME="??4?$allocator@PAX@_STL@@QAEAAV01@ABV01@@Z" PURGE="4" COMMENT="" />
    <EXPORT ORDINAL="386" NAME="??4?$allocator@X@_STL@@QAEAAV01@ABV01@@Z" PURGE="4" COMMENT="" />
    <EXPORT ORDINAL="387" NAME="??4?$basic_string@DV?$char_traits@D@_STL@@V?$allocator@D@2@@_STL@@QAEAAV01@ABV01@@Z" PURGE="4" COMMENT="" />
    <EXPORT ORDINAL="388" NAME="??4?$basic_string@DV?$char_traits@D@_STL@@V?$allocator@D@2@@_STL@@QAEAAV01@D@Z" PURGE="4" COMMENT="" />
    <EXPORT ORDINAL="389" NAME="??4?$basic_string@DV?$char_traits@D@_STL@@V?$allocator@D@2@@_STL@@QAEAAV01@PBD@Z" PURGE="4" COMMENT="" />
    <EXPORT ORDINAL="390" NAME="??4?$basic_string@GV?$char_traits@G@_STL@@V?$allocator@G@2@@_STL@@QAEAAV01@ABV01@@Z" PURGE="4" COMMENT="" />
    <EXPORT ORDINAL="391" NAME="??4?$basic_string@GV?$char_traits@G@_STL@@V?$allocator@G@2@@_STL@@QAEAAV01@G@Z" PURGE="4" COMMENT="" />
    <EXPORT ORDINAL="392" NAME="??4?$basic_string@GV?$char_traits@G@_STL@@V?$allocator@G@2@@_STL@@QAEAAV01@PBG@Z" PURGE="4" COMMENT="" />
    <EXPORT ORDINAL="393" NAME="??4?$char_traits@D@_STL@@QAEAAV01@ABV01@@Z" PURGE="4" COMMENT="" />
    <EXPORT ORDINAL="394" NAME="??4?$char_traits@G@_STL@@QAEAAV01@ABV01@@Z" PURGE="4" COMMENT="" />
    <EXPORT ORDINAL="395" NAME="??4?$complex@M@_STL@@QAEAAU01@ABU01@@Z" PURGE="4" COMMENT="" />
    <EXPORT ORDINAL="396" NAME="??4?$complex@M@_STL@@QAEAAU01@M@Z" PURGE="4" COMMENT="" />
    <EXPORT ORDINAL="397" NAME="??4?$complex@N@_STL@@QAEAAU01@ABU01@@Z" PURGE="4" COMMENT="" />
    <EXPORT ORDINAL="398" NAME="??4?$complex@N@_STL@@QAEAAU01@N@Z" PURGE="8" COMMENT="" />
    <EXPORT ORDINAL="399" NAME="??4?$complex@O@_STL@@QAEAAU01@ABU01@@Z" PURGE="4" COMMENT="" />
    <EXPORT ORDINAL="400" NAME="??4?$complex@O@_STL@@QAEAAU01@O@Z" PURGE="8" COMMENT="" />
    <EXPORT ORDINAL="401" NAME="??4?$istreambuf_iterator@DV?$char_traits@D@_STL@@@_STL@@QAEAAV01@ABV01@@Z" PURGE="4" COMMENT="" />
    <EXPORT ORDINAL="402" NAME="??4?$ostreambuf_iterator@DV?$char_traits@D@_STL@@@_STL@@QAEAAV01@ABV01@@Z" PURGE="4" COMMENT="" />
    <EXPORT ORDINAL="403" NAME="??4?$ostreambuf_iterator@DV?$char_traits@D@_STL@@@_STL@@QAEAAV01@D@Z" PURGE="4" COMMENT="" />
    <EXPORT ORDINAL="404" NAME="??4?$vector@PAXV?$allocator@PAX@_STL@@@_STL@@QAEAAV01@ABV01@@Z" PURGE="4" COMMENT="" />
    <EXPORT ORDINAL="405" NAME="??4Init@ios_base@_STL@@QAEAAV012@ABV012@@Z" PURGE="4" COMMENT="" />
    <EXPORT ORDINAL="406" NAME="??4_Filebuf_base@_STL@@QAEAAV01@ABV01@@Z" PURGE="4" COMMENT="" />
    <EXPORT ORDINAL="407" NAME="??4_Loc_init@ios_base@_STL@@QAEAAV012@ABV012@@Z" PURGE="4" COMMENT="" />
    <EXPORT ORDINAL="408" NAME="??4_Node_alloc_obj@_STL@@QAEAAV01@ABV01@@Z" PURGE="4" COMMENT="" />
    <EXPORT ORDINAL="409" NAME="??4_Refcount_Base@_STL@@QAEAAU01@ABU01@@Z" PURGE="4" COMMENT="" />
    <EXPORT ORDINAL="410" NAME="??4_STLP_mutex_base@_STL@@QAEAAU01@ABU01@@Z" PURGE="4" COMMENT="" />
    <EXPORT ORDINAL="411" NAME="??4_STLP_mutex_indirect@_STL@@QAEAAU01@ABU01@@Z" PURGE="4" COMMENT="" />
    <EXPORT ORDINAL="412" NAME="??4_Time_Info@_STL@@QAEAAV01@ABV01@@Z" PURGE="4" COMMENT="" />
    <EXPORT ORDINAL="413" NAME="??4__Named_exception@_STL@@QAEAAV01@ABV01@@Z" PURGE="4" COMMENT="" />
    <EXPORT ORDINAL="414" NAME="??4__new_alloc@_STL@@QAEAAV01@ABV01@@Z" PURGE="4" COMMENT="" />
    <EXPORT ORDINAL="415" NAME="??4codecvt_base@_STL@@QAEAAV01@ABV01@@Z" PURGE="4" COMMENT="" />
    <EXPORT ORDINAL="416" NAME="??4ctype_base@_STL@@QAEAAV01@ABV01@@Z" PURGE="4" COMMENT="" />
    <EXPORT ORDINAL="417" NAME="??4domain_error@_STL@@QAEAAV01@ABV01@@Z" PURGE="4" COMMENT="" />
    <EXPORT ORDINAL="418" NAME="??4failure@ios_base@_STL@@QAEAAV012@ABV012@@Z" PURGE="4" COMMENT="" />
    <EXPORT ORDINAL="419" NAME="??4id@locale@_STL@@QAEAAV012@ABV012@@Z" PURGE="4" COMMENT="" />
    <EXPORT ORDINAL="420" NAME="??4invalid_argument@_STL@@QAEAAV01@ABV01@@Z" PURGE="4" COMMENT="" />
    <EXPORT ORDINAL="421" NAME="??4length_error@_STL@@QAEAAV01@ABV01@@Z" PURGE="4" COMMENT="" />
    <EXPORT ORDINAL="422" NAME="??4locale@_STL@@QAEABV01@ABV01@@Z" PURGE="4" COMMENT="" />
    <EXPORT ORDINAL="423" NAME="??4logic_error@_STL@@QAEAAV01@ABV01@@Z" PURGE="4" COMMENT="" />
    <EXPORT ORDINAL="424" NAME="??4out_of_range@_STL@@QAEAAV01@ABV01@@Z" PURGE="4" COMMENT="" />
    <EXPORT ORDINAL="425" NAME="??4overflow_error@_STL@@QAEAAV01@ABV01@@Z" PURGE="4" COMMENT="" />
    <EXPORT ORDINAL="426" NAME="??4range_error@_STL@@QAEAAV01@ABV01@@Z" PURGE="4" COMMENT="" />
    <EXPORT ORDINAL="427" NAME="??4runtime_error@_STL@@QAEAAV01@ABV01@@Z" PURGE="4" COMMENT="" />
    <EXPORT ORDINAL="428" NAME="??4time_base@_STL@@QAEAAV01@ABV01@@Z" PURGE="4" COMMENT="" />
    <EXPORT ORDINAL="429" NAME="??4underflow_error@_STL@@QAEAAV01@ABV01@@Z" PURGE="4" COMMENT="" />
    <EXPORT ORDINAL="430" NAME="??5?$basic_istream@DV?$char_traits@D@_STL@@@_STL@@QAEAAV01@AAF@Z" PURGE="4" COMMENT="" />
    <EXPORT ORDINAL="431" NAME="??5?$basic_istream@DV?$char_traits@D@_STL@@@_STL@@QAEAAV01@AAG@Z" PURGE="4" COMMENT="" />
    <EXPORT ORDINAL="432" NAME="??5?$basic_istream@DV?$char_traits@D@_STL@@@_STL@@QAEAAV01@AAH@Z" PURGE="4" COMMENT="" />
    <EXPORT ORDINAL="433" NAME="??5?$basic_istream@DV?$char_traits@D@_STL@@@_STL@@QAEAAV01@AAI@Z" PURGE="4" COMMENT="" />
    <EXPORT ORDINAL="434" NAME="??5?$basic_istream@DV?$char_traits@D@_STL@@@_STL@@QAEAAV01@AAJ@Z" PURGE="4" COMMENT="" />
    <EXPORT ORDINAL="435" NAME="??5?$basic_istream@DV?$char_traits@D@_STL@@@_STL@@QAEAAV01@AAK@Z" PURGE="4" COMMENT="" />
    <EXPORT ORDINAL="436" NAME="??5?$basic_istream@DV?$char_traits@D@_STL@@@_STL@@QAEAAV01@AAM@Z" PURGE="4" COMMENT="" />
    <EXPORT ORDINAL="437" NAME="??5?$basic_istream@DV?$char_traits@D@_STL@@@_STL@@QAEAAV01@AAN@Z" PURGE="4" COMMENT="" />
    <EXPORT ORDINAL="438" NAME="??5?$basic_istream@DV?$char_traits@D@_STL@@@_STL@@QAEAAV01@AAO@Z" PURGE="4" COMMENT="" />
    <EXPORT ORDINAL="439" NAME="??5?$basic_istream@DV?$char_traits@D@_STL@@@_STL@@QAEAAV01@AAPAX@Z" PURGE="4" COMMENT="" />
    <EXPORT ORDINAL="440" NAME="??5?$basic_istream@DV?$char_traits@D@_STL@@@_STL@@QAEAAV01@AA_J@Z" PURGE="4" COMMENT="" />
    <EXPORT ORDINAL="441" NAME="??5?$basic_istream@DV?$char_traits@D@_STL@@@_STL@@QAEAAV01@AA_K@Z" PURGE="4" COMMENT="" />
    <EXPORT ORDINAL="442" NAME="??5?$basic_istream@DV?$char_traits@D@_STL@@@_STL@@QAEAAV01@AA_N@Z" PURGE="4" COMMENT="" />
    <EXPORT ORDINAL="443" NAME="??5?$basic_istream@DV?$char_traits@D@_STL@@@_STL@@QAEAAV01@P6AAAV01@AAV01@@Z@Z" PURGE="4" COMMENT="" />
    <EXPORT ORDINAL="444" NAME="??5?$basic_istream@DV?$char_traits@D@_STL@@@_STL@@QAEAAV01@P6AAAV?$basic_ios@DV?$char_traits@D@_STL@@@1@AAV21@@Z@Z" PURGE="4" COMMENT="" />
    <EXPORT ORDINAL="445" NAME="??5?$basic_istream@DV?$char_traits@D@_STL@@@_STL@@QAEAAV01@P6AAAVios_base@1@AAV21@@Z@Z" PURGE="4" COMMENT="" />
    <EXPORT ORDINAL="446" NAME="??5?$basic_istream@DV?$char_traits@D@_STL@@@_STL@@QAEAAV01@PAV?$basic_streambuf@DV?$char_traits@D@_STL@@@1@@Z" PURGE="4" COMMENT="" />
    <EXPORT ORDINAL="447" NAME="??5?$basic_istream@GV?$char_traits@G@_STL@@@_STL@@QAEAAV01@AAF@Z" PURGE="4" COMMENT="" />
    <EXPORT ORDINAL="448" NAME="??5?$basic_istream@GV?$char_traits@G@_STL@@@_STL@@QAEAAV01@AAG@Z" PURGE="4" COMMENT="" />
    <EXPORT ORDINAL="449" NAME="??5?$basic_istream@GV?$char_traits@G@_STL@@@_STL@@QAEAAV01@AAH@Z" PURGE="4" COMMENT="" />
    <EXPORT ORDINAL="450" NAME="??5?$basic_istream@GV?$char_traits@G@_STL@@@_STL@@QAEAAV01@AAI@Z" PURGE="4" COMMENT="" />
    <EXPORT ORDINAL="451" NAME="??5?$basic_istream@GV?$char_traits@G@_STL@@@_STL@@QAEAAV01@AAJ@Z" PURGE="4" COMMENT="" />
    <EXPORT ORDINAL="452" NAME="??5?$basic_istream@GV?$char_traits@G@_STL@@@_STL@@QAEAAV01@AAK@Z" PURGE="4" COMMENT="" />
    <EXPORT ORDINAL="453" NAME="??5?$basic_istream@GV?$char_traits@G@_STL@@@_STL@@QAEAAV01@AAM@Z" PURGE="4" COMMENT="" />
    <EXPORT ORDINAL="454" NAME="??5?$basic_istream@GV?$char_traits@G@_STL@@@_STL@@QAEAAV01@AAN@Z" PURGE="4" COMMENT="" />
    <EXPORT ORDINAL="455" NAME="??5?$basic_istream@GV?$char_traits@G@_STL@@@_STL@@QAEAAV01@AAO@Z" PURGE="4" COMMENT="" />
    <EXPORT ORDINAL="456" NAME="??5?$basic_istream@GV?$char_traits@G@_STL@@@_STL@@QAEAAV01@AAPAX@Z" PURGE="4" COMMENT="" />
    <EXPORT ORDINAL="457" NAME="??5?$basic_istream@GV?$char_traits@G@_STL@@@_STL@@QAEAAV01@AA_J@Z" PURGE="4" COMMENT="" />
    <EXPORT ORDINAL="458" NAME="??5?$basic_istream@GV?$char_traits@G@_STL@@@_STL@@QAEAAV01@AA_K@Z" PURGE="4" COMMENT="" />
    <EXPORT ORDINAL="459" NAME="??5?$basic_istream@GV?$char_traits@G@_STL@@@_STL@@QAEAAV01@AA_N@Z" PURGE="4" COMMENT="" />
    <EXPORT ORDINAL="460" NAME="??5?$basic_istream@GV?$char_traits@G@_STL@@@_STL@@QAEAAV01@P6AAAV01@AAV01@@Z@Z" PURGE="4" COMMENT="" />
    <EXPORT ORDINAL="461" NAME="??5?$basic_istream@GV?$char_traits@G@_STL@@@_STL@@QAEAAV01@P6AAAV?$basic_ios@GV?$char_traits@G@_STL@@@1@AAV21@@Z@Z" PURGE="4" COMMENT="" />
    <EXPORT ORDINAL="462" NAME="??5?$basic_istream@GV?$char_traits@G@_STL@@@_STL@@QAEAAV01@P6AAAVios_base@1@AAV21@@Z@Z" PURGE="4" COMMENT="" />
    <EXPORT ORDINAL="463" NAME="??5?$basic_istream@GV?$char_traits@G@_STL@@@_STL@@QAEAAV01@PAV?$basic_streambuf@GV?$char_traits@G@_STL@@@1@@Z" PURGE="4" COMMENT="" />
    <EXPORT ORDINAL="464" NAME="??5_STL@@YAAAV?$basic_istream@DV?$char_traits@D@_STL@@@0@AAV10@AAU?$complex@M@0@@Z" PURGE="0" COMMENT="" />
    <EXPORT ORDINAL="465" NAME="??5_STL@@YAAAV?$basic_istream@DV?$char_traits@D@_STL@@@0@AAV10@AAU?$complex@N@0@@Z" PURGE="0" COMMENT="" />
    <EXPORT ORDINAL="466" NAME="??5_STL@@YAAAV?$basic_istream@DV?$char_traits@D@_STL@@@0@AAV10@AAU?$complex@O@0@@Z" PURGE="0" COMMENT="" />
    <EXPORT ORDINAL="467" NAME="??6?$basic_ostream@DV?$char_traits@D@_STL@@@_STL@@QAEAAV01@E@Z" PURGE="4" COMMENT="" />
    <EXPORT ORDINAL="468" NAME="??6?$basic_ostream@DV?$char_traits@D@_STL@@@_STL@@QAEAAV01@F@Z" PURGE="4" COMMENT="" />
    <EXPORT ORDINAL="469" NAME="??6?$basic_ostream@DV?$char_traits@D@_STL@@@_STL@@QAEAAV01@G@Z" PURGE="4" COMMENT="" />
    <EXPORT ORDINAL="470" NAME="??6?$basic_ostream@DV?$char_traits@D@_STL@@@_STL@@QAEAAV01@H@Z" PURGE="4" COMMENT="" />
    <EXPORT ORDINAL="471" NAME="??6?$basic_ostream@DV?$char_traits@D@_STL@@@_STL@@QAEAAV01@I@Z" PURGE="4" COMMENT="" />
    <EXPORT ORDINAL="472" NAME="??6?$basic_ostream@DV?$char_traits@D@_STL@@@_STL@@QAEAAV01@J@Z" PURGE="4" COMMENT="" />
    <EXPORT ORDINAL="473" NAME="??6?$basic_ostream@DV?$char_traits@D@_STL@@@_STL@@QAEAAV01@K@Z" PURGE="4" COMMENT="" />
    <EXPORT ORDINAL="474" NAME="??6?$basic_ostream@DV?$char_traits@D@_STL@@@_STL@@QAEAAV01@M@Z" PURGE="4" COMMENT="" />
    <EXPORT ORDINAL="475" NAME="??6?$basic_ostream@DV?$char_traits@D@_STL@@@_STL@@QAEAAV01@N@Z" PURGE="8" COMMENT="" />
    <EXPORT ORDINAL="476" NAME="??6?$basic_ostream@DV?$char_traits@D@_STL@@@_STL@@QAEAAV01@O@Z" PURGE="8" COMMENT="" />
    <EXPORT ORDINAL="477" NAME="??6?$basic_ostream@DV?$char_traits@D@_STL@@@_STL@@QAEAAV01@P6AAAV01@AAV01@@Z@Z" PURGE="4" COMMENT="" />
    <EXPORT ORDINAL="478" NAME="??6?$basic_ostream@DV?$char_traits@D@_STL@@@_STL@@QAEAAV01@P6AAAV?$basic_ios@DV?$char_traits@D@_STL@@@1@AAV21@@Z@Z" PURGE="4" COMMENT="" />
    <EXPORT ORDINAL="479" NAME="??6?$basic_ostream@DV?$char_traits@D@_STL@@@_STL@@QAEAAV01@P6AAAVios_base@1@AAV21@@Z@Z" PURGE="4" COMMENT="" />
    <EXPORT ORDINAL="480" NAME="??6?$basic_ostream@DV?$char_traits@D@_STL@@@_STL@@QAEAAV01@PAV?$basic_streambuf@DV?$char_traits@D@_STL@@@1@@Z" PURGE="4" COMMENT="" />
    <EXPORT ORDINAL="481" NAME="??6?$basic_ostream@DV?$char_traits@D@_STL@@@_STL@@QAEAAV01@PBX@Z" PURGE="4" COMMENT="" />
    <EXPORT ORDINAL="482" NAME="??6?$basic_ostream@DV?$char_traits@D@_STL@@@_STL@@QAEAAV01@_J@Z" PURGE="8" COMMENT="" />
    <EXPORT ORDINAL="483" NAME="??6?$basic_ostream@DV?$char_traits@D@_STL@@@_STL@@QAEAAV01@_K@Z" PURGE="8" COMMENT="" />
    <EXPORT ORDINAL="484" NAME="??6?$basic_ostream@DV?$char_traits@D@_STL@@@_STL@@QAEAAV01@_N@Z" PURGE="4" COMMENT="" />
    <EXPORT ORDINAL="485" NAME="??6?$basic_ostream@GV?$char_traits@G@_STL@@@_STL@@QAEAAV01@E@Z" PURGE="4" COMMENT="" />
    <EXPORT ORDINAL="486" NAME="??6?$basic_ostream@GV?$char_traits@G@_STL@@@_STL@@QAEAAV01@F@Z" PURGE="4" COMMENT="" />
    <EXPORT ORDINAL="487" NAME="??6?$basic_ostream@GV?$char_traits@G@_STL@@@_STL@@QAEAAV01@G@Z" PURGE="4" COMMENT="" />
    <EXPORT ORDINAL="488" NAME="??6?$basic_ostream@GV?$char_traits@G@_STL@@@_STL@@QAEAAV01@H@Z" PURGE="4" COMMENT="" />
    <EXPORT ORDINAL="489" NAME="??6?$basic_ostream@GV?$char_traits@G@_STL@@@_STL@@QAEAAV01@I@Z" PURGE="4" COMMENT="" />
    <EXPORT ORDINAL="490" NAME="??6?$basic_ostream@GV?$char_traits@G@_STL@@@_STL@@QAEAAV01@J@Z" PURGE="4" COMMENT="" />
    <EXPORT ORDINAL="491" NAME="??6?$basic_ostream@GV?$char_traits@G@_STL@@@_STL@@QAEAAV01@K@Z" PURGE="4" COMMENT="" />
    <EXPORT ORDINAL="492" NAME="??6?$basic_ostream@GV?$char_traits@G@_STL@@@_STL@@QAEAAV01@M@Z" PURGE="4" COMMENT="" />
    <EXPORT ORDINAL="493" NAME="??6?$basic_ostream@GV?$char_traits@G@_STL@@@_STL@@QAEAAV01@N@Z" PURGE="8" COMMENT="" />
    <EXPORT ORDINAL="494" NAME="??6?$basic_ostream@GV?$char_traits@G@_STL@@@_STL@@QAEAAV01@O@Z" PURGE="8" COMMENT="" />
    <EXPORT ORDINAL="495" NAME="??6?$basic_ostream@GV?$char_traits@G@_STL@@@_STL@@QAEAAV01@P6AAAV01@AAV01@@Z@Z" PURGE="4" COMMENT="" />
    <EXPORT ORDINAL="496" NAME="??6?$basic_ostream@GV?$char_traits@G@_STL@@@_STL@@QAEAAV01@P6AAAV?$basic_ios@GV?$char_traits@G@_STL@@@1@AAV21@@Z@Z" PURGE="4" COMMENT="" />
    <EXPORT ORDINAL="497" NAME="??6?$basic_ostream@GV?$char_traits@G@_STL@@@_STL@@QAEAAV01@P6AAAVios_base@1@AAV21@@Z@Z" PURGE="4" COMMENT="" />
    <EXPORT ORDINAL="498" NAME="??6?$basic_ostream@GV?$char_traits@G@_STL@@@_STL@@QAEAAV01@PAV?$basic_streambuf@GV?$char_traits@G@_STL@@@1@@Z" PURGE="4" COMMENT="" />
    <EXPORT ORDINAL="499" NAME="??6?$basic_ostream@GV?$char_traits@G@_STL@@@_STL@@QAEAAV01@PBX@Z" PURGE="4" COMMENT="" />
    <EXPORT ORDINAL="500" NAME="??6?$basic_ostream@GV?$char_traits@G@_STL@@@_STL@@QAEAAV01@_J@Z" PURGE="8" COMMENT="" />
    <EXPORT ORDINAL="501" NAME="??6?$basic_ostream@GV?$char_traits@G@_STL@@@_STL@@QAEAAV01@_K@Z" PURGE="8" COMMENT="" />
    <EXPORT ORDINAL="502" NAME="??6?$basic_ostream@GV?$char_traits@G@_STL@@@_STL@@QAEAAV01@_N@Z" PURGE="4" COMMENT="" />
    <EXPORT ORDINAL="503" NAME="??6_STL@@YAAAV?$basic_ostream@DV?$char_traits@D@_STL@@@0@AAV10@ABU?$complex@M@0@@Z" PURGE="0" COMMENT="" />
    <EXPORT ORDINAL="504" NAME="??6_STL@@YAAAV?$basic_ostream@DV?$char_traits@D@_STL@@@0@AAV10@ABU?$complex@N@0@@Z" PURGE="0" COMMENT="" />
    <EXPORT ORDINAL="505" NAME="??6_STL@@YAAAV?$basic_ostream@DV?$char_traits@D@_STL@@@0@AAV10@ABU?$complex@O@0@@Z" PURGE="0" COMMENT="" />
    <EXPORT ORDINAL="506" NAME="??7ios_base@_STL@@QBE_NXZ" PURGE="0" COMMENT="" />
    <EXPORT ORDINAL="507" NAME="??8locale@_STL@@QBE_NABV01@@Z" PURGE="4" COMMENT="" />
    <EXPORT ORDINAL="508" NAME="??9locale@_STL@@QBE_NABV01@@Z" PURGE="4" COMMENT="" />
    <EXPORT ORDINAL="509" NAME="??A?$basic_string@DV?$char_traits@D@_STL@@V?$allocator@D@2@@_STL@@QAEAADI@Z" PURGE="4" COMMENT="" />
    <EXPORT ORDINAL="510" NAME="??A?$basic_string@DV?$char_traits@D@_STL@@V?$allocator@D@2@@_STL@@QBEABDI@Z" PURGE="4" COMMENT="" />
    <EXPORT ORDINAL="511" NAME="??A?$basic_string@GV?$char_traits@G@_STL@@V?$allocator@G@2@@_STL@@QAEAAGI@Z" PURGE="4" COMMENT="" />
    <EXPORT ORDINAL="512" NAME="??A?$basic_string@GV?$char_traits@G@_STL@@V?$allocator@G@2@@_STL@@QBEABGI@Z" PURGE="4" COMMENT="" />
    <EXPORT ORDINAL="513" NAME="??A?$vector@PAXV?$allocator@PAX@_STL@@@_STL@@QAEAAPAXI@Z" PURGE="4" COMMENT="" />
    <EXPORT ORDINAL="514" NAME="??A?$vector@PAXV?$allocator@PAX@_STL@@@_STL@@QBEABQAXI@Z" PURGE="4" COMMENT="" />
    <EXPORT ORDINAL="515" NAME="??B?$_Isentry@DV?$char_traits@D@_STL@@@_STL@@QBE_NXZ" PURGE="0" COMMENT="" />
    <EXPORT ORDINAL="516" NAME="??B?$_Isentry@GV?$char_traits@G@_STL@@@_STL@@QBE_NXZ" PURGE="0" COMMENT="" />
    <EXPORT ORDINAL="517" NAME="??B?$_Osentry@DV?$char_traits@D@_STL@@@_STL@@QBE_NXZ" PURGE="0" COMMENT="" />
    <EXPORT ORDINAL="518" NAME="??B?$_Osentry@GV?$char_traits@G@_STL@@@_STL@@QBE_NXZ" PURGE="0" COMMENT="" />
    <EXPORT ORDINAL="519" NAME="??Bios_base@_STL@@QBEPAXXZ" PURGE="0" COMMENT="" />
    <EXPORT ORDINAL="520" NAME="??D?$istreambuf_iterator@DV?$char_traits@D@_STL@@@_STL@@QBEDXZ" PURGE="0" COMMENT="" />
    <EXPORT ORDINAL="521" NAME="??D?$ostreambuf_iterator@DV?$char_traits@D@_STL@@@_STL@@QAEAAV01@XZ" PURGE="0" COMMENT="" />
    <EXPORT ORDINAL="522" NAME="??E?$istreambuf_iterator@DV?$char_traits@D@_STL@@@_STL@@QAE?AV01@H@Z" PURGE="8" COMMENT="" />
    <EXPORT ORDINAL="523" NAME="??E?$istreambuf_iterator@DV?$char_traits@D@_STL@@@_STL@@QAEAAV01@XZ" PURGE="0" COMMENT="" />
    <EXPORT ORDINAL="524" NAME="??E?$ostreambuf_iterator@DV?$char_traits@D@_STL@@@_STL@@QAEAAV01@H@Z" PURGE="4" COMMENT="" />
    <EXPORT ORDINAL="525" NAME="??E?$ostreambuf_iterator@DV?$char_traits@D@_STL@@@_STL@@QAEAAV01@XZ" PURGE="0" COMMENT="" />
    <EXPORT ORDINAL="526" NAME="??X?$complex@M@_STL@@QAEAAU01@ABU01@@Z" PURGE="4" COMMENT="" />
    <EXPORT ORDINAL="527" NAME="??X?$complex@M@_STL@@QAEAAU01@M@Z" PURGE="4" COMMENT="" />
    <EXPORT ORDINAL="528" NAME="??X?$complex@N@_STL@@QAEAAU01@ABU01@@Z" PURGE="4" COMMENT="" />
    <EXPORT ORDINAL="529" NAME="??X?$complex@N@_STL@@QAEAAU01@N@Z" PURGE="8" COMMENT="" />
    <EXPORT ORDINAL="530" NAME="??X?$complex@O@_STL@@QAEAAU01@ABU01@@Z" PURGE="4" COMMENT="" />
    <EXPORT ORDINAL="531" NAME="??X?$complex@O@_STL@@QAEAAU01@O@Z" PURGE="8" COMMENT="" />
    <EXPORT ORDINAL="532" NAME="??Y?$basic_string@DV?$char_traits@D@_STL@@V?$allocator@D@2@@_STL@@QAEAAV01@ABV01@@Z" PURGE="4" COMMENT="" />
    <EXPORT ORDINAL="533" NAME="??Y?$basic_string@DV?$char_traits@D@_STL@@V?$allocator@D@2@@_STL@@QAEAAV01@D@Z" PURGE="4" COMMENT="" />
    <EXPORT ORDINAL="534" NAME="??Y?$basic_string@DV?$char_traits@D@_STL@@V?$allocator@D@2@@_STL@@QAEAAV01@PBD@Z" PURGE="4" COMMENT="" />
    <EXPORT ORDINAL="535" NAME="??Y?$basic_string@GV?$char_traits@G@_STL@@V?$allocator@G@2@@_STL@@QAEAAV01@ABV01@@Z" PURGE="4" COMMENT="" />
    <EXPORT ORDINAL="536" NAME="??Y?$basic_string@GV?$char_traits@G@_STL@@V?$allocator@G@2@@_STL@@QAEAAV01@G@Z" PURGE="4" COMMENT="" />
    <EXPORT ORDINAL="537" NAME="??Y?$basic_string@GV?$char_traits@G@_STL@@V?$allocator@G@2@@_STL@@QAEAAV01@PBG@Z" PURGE="4" COMMENT="" />
    <EXPORT ORDINAL="538" NAME="??Y?$complex@M@_STL@@QAEAAU01@ABU01@@Z" PURGE="4" COMMENT="" />
    <EXPORT ORDINAL="539" NAME="??Y?$complex@M@_STL@@QAEAAU01@M@Z" PURGE="4" COMMENT="" />
    <EXPORT ORDINAL="540" NAME="??Y?$complex@N@_STL@@QAEAAU01@ABU01@@Z" PURGE="4" COMMENT="" />
    <EXPORT ORDINAL="541" NAME="??Y?$complex@N@_STL@@QAEAAU01@N@Z" PURGE="8" COMMENT="" />
    <EXPORT ORDINAL="542" NAME="??Y?$complex@O@_STL@@QAEAAU01@ABU01@@Z" PURGE="4" COMMENT="" />
    <EXPORT ORDINAL="543" NAME="??Y?$complex@O@_STL@@QAEAAU01@O@Z" PURGE="8" COMMENT="" />
    <EXPORT ORDINAL="544" NAME="??Z?$complex@M@_STL@@QAEAAU01@ABU01@@Z" PURGE="4" COMMENT="" />
    <EXPORT ORDINAL="545" NAME="??Z?$complex@M@_STL@@QAEAAU01@M@Z" PURGE="4" COMMENT="" />
    <EXPORT ORDINAL="546" NAME="??Z?$complex@N@_STL@@QAEAAU01@ABU01@@Z" PURGE="4" COMMENT="" />
    <EXPORT ORDINAL="547" NAME="??Z?$complex@N@_STL@@QAEAAU01@N@Z" PURGE="8" COMMENT="" />
    <EXPORT ORDINAL="548" NAME="??Z?$complex@O@_STL@@QAEAAU01@ABU01@@Z" PURGE="4" COMMENT="" />
    <EXPORT ORDINAL="549" NAME="??Z?$complex@O@_STL@@QAEAAU01@O@Z" PURGE="8" COMMENT="" />
    <EXPORT ORDINAL="550" NAME="??_0?$complex@M@_STL@@QAEAAU01@ABU01@@Z" PURGE="4" COMMENT="" />
    <EXPORT ORDINAL="551" NAME="??_0?$complex@M@_STL@@QAEAAU01@M@Z" PURGE="4" COMMENT="" />
    <EXPORT ORDINAL="552" NAME="??_0?$complex@N@_STL@@QAEAAU01@ABU01@@Z" PURGE="4" COMMENT="" />
    <EXPORT ORDINAL="553" NAME="??_0?$complex@N@_STL@@QAEAAU01@N@Z" PURGE="8" COMMENT="" />
    <EXPORT ORDINAL="554" NAME="??_0?$complex@O@_STL@@QAEAAU01@ABU01@@Z" PURGE="4" COMMENT="" />
    <EXPORT ORDINAL="555" NAME="??_0?$complex@O@_STL@@QAEAAU01@O@Z" PURGE="8" COMMENT="" />
    <EXPORT ORDINAL="556" NAME="??_7?$basic_filebuf@DV?$char_traits@D@_STL@@@_STL@@6B@" PURGE="-1" COMMENT="" />
    <EXPORT ORDINAL="557" NAME="??_7?$basic_filebuf@GV?$char_traits@G@_STL@@@_STL@@6B@" PURGE="-1" COMMENT="" />
    <EXPORT ORDINAL="558" NAME="??_7?$basic_fstream@DV?$char_traits@D@_STL@@@_STL@@6B@" PURGE="-1" COMMENT="" />
    <EXPORT ORDINAL="559" NAME="??_7?$basic_fstream@GV?$char_traits@G@_STL@@@_STL@@6B@" PURGE="-1" COMMENT="" />
    <EXPORT ORDINAL="560" NAME="??_7?$basic_ifstream@DV?$char_traits@D@_STL@@@_STL@@6B@" PURGE="-1" COMMENT="" />
    <EXPORT ORDINAL="561" NAME="??_7?$basic_ifstream@GV?$char_traits@G@_STL@@@_STL@@6B@" PURGE="-1" COMMENT="" />
    <EXPORT ORDINAL="562" NAME="??_7?$basic_ios@DV?$char_traits@D@_STL@@@_STL@@6B@" PURGE="-1" COMMENT="" />
    <EXPORT ORDINAL="563" NAME="??_7?$basic_ios@GV?$char_traits@G@_STL@@@_STL@@6B@" PURGE="-1" COMMENT="" />
    <EXPORT ORDINAL="564" NAME="??_7?$basic_iostream@DV?$char_traits@D@_STL@@@_STL@@6B@" PURGE="-1" COMMENT="" />
    <EXPORT ORDINAL="565" NAME="??_7?$basic_iostream@GV?$char_traits@G@_STL@@@_STL@@6B@" PURGE="-1" COMMENT="" />
    <EXPORT ORDINAL="566" NAME="??_7?$basic_istream@DV?$char_traits@D@_STL@@@_STL@@6B@" PURGE="-1" COMMENT="" />
    <EXPORT ORDINAL="567" NAME="??_7?$basic_istream@GV?$char_traits@G@_STL@@@_STL@@6B@" PURGE="-1" COMMENT="" />
    <EXPORT ORDINAL="568" NAME="??_7?$basic_istringstream@DV?$char_traits@D@_STL@@V?$allocator@D@2@@_STL@@6B@" PURGE="-1" COMMENT="" />
    <EXPORT ORDINAL="569" NAME="??_7?$basic_istringstream@GV?$char_traits@G@_STL@@V?$allocator@G@2@@_STL@@6B@" PURGE="-1" COMMENT="" />
    <EXPORT ORDINAL="570" NAME="??_7?$basic_ofstream@DV?$char_traits@D@_STL@@@_STL@@6B@" PURGE="-1" COMMENT="" />
    <EXPORT ORDINAL="571" NAME="??_7?$basic_ofstream@GV?$char_traits@G@_STL@@@_STL@@6B@" PURGE="-1" COMMENT="" />
    <EXPORT ORDINAL="572" NAME="??_7?$basic_ostream@DV?$char_traits@D@_STL@@@_STL@@6B@" PURGE="-1" COMMENT="" />
    <EXPORT ORDINAL="573" NAME="??_7?$basic_ostream@GV?$char_traits@G@_STL@@@_STL@@6B@" PURGE="-1" COMMENT="" />
    <EXPORT ORDINAL="574" NAME="??_7?$basic_ostringstream@DV?$char_traits@D@_STL@@V?$allocator@D@2@@_STL@@6B@" PURGE="-1" COMMENT="" />
    <EXPORT ORDINAL="575" NAME="??_7?$basic_ostringstream@GV?$char_traits@G@_STL@@V?$allocator@G@2@@_STL@@6B@" PURGE="-1" COMMENT="" />
    <EXPORT ORDINAL="576" NAME="??_7?$basic_streambuf@DV?$char_traits@D@_STL@@@_STL@@6B@" PURGE="-1" COMMENT="" />
    <EXPORT ORDINAL="577" NAME="??_7?$basic_streambuf@GV?$char_traits@G@_STL@@@_STL@@6B@" PURGE="-1" COMMENT="" />
    <EXPORT ORDINAL="578" NAME="??_7?$basic_stringbuf@DV?$char_traits@D@_STL@@V?$allocator@D@2@@_STL@@6B@" PURGE="-1" COMMENT="" />
    <EXPORT ORDINAL="579" NAME="??_7?$basic_stringbuf@GV?$char_traits@G@_STL@@V?$allocator@G@2@@_STL@@6B@" PURGE="-1" COMMENT="" />
    <EXPORT ORDINAL="580" NAME="??_7?$basic_stringstream@DV?$char_traits@D@_STL@@V?$allocator@D@2@@_STL@@6B@" PURGE="-1" COMMENT="" />
    <EXPORT ORDINAL="581" NAME="??_7?$basic_stringstream@GV?$char_traits@G@_STL@@V?$allocator@G@2@@_STL@@6B@" PURGE="-1" COMMENT="" />
    <EXPORT ORDINAL="582" NAME="??_7?$codecvt@DDH@_STL@@6B@" PURGE="-1" COMMENT="" />
    <EXPORT ORDINAL="583" NAME="??_7?$codecvt@GDH@_STL@@6B@" PURGE="-1" COMMENT="" />
    <EXPORT ORDINAL="584" NAME="??_7?$codecvt_byname@DDH@_STL@@6B@" PURGE="-1" COMMENT="" />
    <EXPORT ORDINAL="585" NAME="??_7?$collate@D@_STL@@6B@" PURGE="-1" COMMENT="" />
    <EXPORT ORDINAL="586" NAME="??_7?$collate@G@_STL@@6B@" PURGE="-1" COMMENT="" />
    <EXPORT ORDINAL="587" NAME="??_7?$collate_byname@D@_STL@@6B@" PURGE="-1" COMMENT="" />
    <EXPORT ORDINAL="588" NAME="??_7?$collate_byname@G@_STL@@6B@" PURGE="-1" COMMENT="" />
    <EXPORT ORDINAL="589" NAME="??_7?$ctype@D@_STL@@6B@" PURGE="-1" COMMENT="" />
    <EXPORT ORDINAL="590" NAME="??_7?$ctype@G@_STL@@6B@" PURGE="-1" COMMENT="" />
    <EXPORT ORDINAL="591" NAME="??_7?$ctype_byname@D@_STL@@6B@" PURGE="-1" COMMENT="" />
    <EXPORT ORDINAL="592" NAME="??_7?$ctype_byname@G@_STL@@6B@" PURGE="-1" COMMENT="" />
    <EXPORT ORDINAL="593" NAME="??_7?$messages@D@_STL@@6B@" PURGE="-1" COMMENT="" />
    <EXPORT ORDINAL="594" NAME="??_7?$messages@G@_STL@@6B@" PURGE="-1" COMMENT="" />
    <EXPORT ORDINAL="595" NAME="??_7?$messages_byname@D@_STL@@6B@" PURGE="-1" COMMENT="" />
    <EXPORT ORDINAL="596" NAME="??_7?$messages_byname@G@_STL@@6B@" PURGE="-1" COMMENT="" />
    <EXPORT ORDINAL="597" NAME="??_7?$money_get@DV?$istreambuf_iterator@DV?$char_traits@D@_STL@@@_STL@@@_STL@@6B@" PURGE="-1" COMMENT="" />
    <EXPORT ORDINAL="598" NAME="??_7?$money_get@GV?$istreambuf_iterator@GV?$char_traits@G@_STL@@@_STL@@@_STL@@6B@" PURGE="-1" COMMENT="" />
    <EXPORT ORDINAL="599" NAME="??_7?$money_put@DV?$ostreambuf_iterator@DV?$char_traits@D@_STL@@@_STL@@@_STL@@6B@" PURGE="-1" COMMENT="" />
    <EXPORT ORDINAL="600" NAME="??_7?$money_put@GV?$ostreambuf_iterator@GV?$char_traits@G@_STL@@@_STL@@@_STL@@6B@" PURGE="-1" COMMENT="" />
    <EXPORT ORDINAL="601" NAME="??_7?$moneypunct@D$00@_STL@@6B@" PURGE="-1" COMMENT="" />
    <EXPORT ORDINAL="602" NAME="??_7?$moneypunct@D$0A@@_STL@@6B@" PURGE="-1" COMMENT="" />
    <EXPORT ORDINAL="603" NAME="??_7?$moneypunct@G$00@_STL@@6B@" PURGE="-1" COMMENT="" />
    <EXPORT ORDINAL="604" NAME="??_7?$moneypunct@G$0A@@_STL@@6B@" PURGE="-1" COMMENT="" />
    <EXPORT ORDINAL="605" NAME="??_7?$moneypunct_byname@D$00@_STL@@6B@" PURGE="-1" COMMENT="" />
    <EXPORT ORDINAL="606" NAME="??_7?$moneypunct_byname@D$0A@@_STL@@6B@" PURGE="-1" COMMENT="" />
    <EXPORT ORDINAL="607" NAME="??_7?$moneypunct_byname@G$00@_STL@@6B@" PURGE="-1" COMMENT="" />
    <EXPORT ORDINAL="608" NAME="??_7?$moneypunct_byname@G$0A@@_STL@@6B@" PURGE="-1" COMMENT="" />
    <EXPORT ORDINAL="609" NAME="??_7?$num_get@DV?$istreambuf_iterator@DV?$char_traits@D@_STL@@@_STL@@@_STL@@6B@" PURGE="-1" COMMENT="" />
    <EXPORT ORDINAL="610" NAME="??_7?$num_get@GV?$istreambuf_iterator@GV?$char_traits@G@_STL@@@_STL@@@_STL@@6B@" PURGE="-1" COMMENT="" />
    <EXPORT ORDINAL="611" NAME="??_7?$num_put@DV?$ostreambuf_iterator@DV?$char_traits@D@_STL@@@_STL@@@_STL@@6B@" PURGE="-1" COMMENT="" />
    <EXPORT ORDINAL="612" NAME="??_7?$num_put@GV?$ostreambuf_iterator@GV?$char_traits@G@_STL@@@_STL@@@_STL@@6B@" PURGE="-1" COMMENT="" />
    <EXPORT ORDINAL="613" NAME="??_7?$numpunct@D@_STL@@6B@" PURGE="-1" COMMENT="" />
    <EXPORT ORDINAL="614" NAME="??_7?$numpunct@G@_STL@@6B@" PURGE="-1" COMMENT="" />
    <EXPORT ORDINAL="615" NAME="??_7?$numpunct_byname@D@_STL@@6B@" PURGE="-1" COMMENT="" />
    <EXPORT ORDINAL="616" NAME="??_7?$numpunct_byname@G@_STL@@6B@" PURGE="-1" COMMENT="" />
    <EXPORT ORDINAL="617" NAME="??_7?$time_get@DV?$istreambuf_iterator@DV?$char_traits@D@_STL@@@_STL@@@_STL@@6B@" PURGE="-1" COMMENT="" />
    <EXPORT ORDINAL="618" NAME="??_7?$time_get@GV?$istreambuf_iterator@GV?$char_traits@G@_STL@@@_STL@@@_STL@@6B@" PURGE="-1" COMMENT="" />
    <EXPORT ORDINAL="619" NAME="??_7?$time_put@DV?$ostreambuf_iterator@DV?$char_traits@D@_STL@@@_STL@@@_STL@@6B@" PURGE="-1" COMMENT="" />
    <EXPORT ORDINAL="620" NAME="??_7?$time_put@GV?$ostreambuf_iterator@GV?$char_traits@G@_STL@@@_STL@@@_STL@@6B@" PURGE="-1" COMMENT="" />
    <EXPORT ORDINAL="621" NAME="??_7_Locale@_STL@@6B@" PURGE="-1" COMMENT="" />
    <EXPORT ORDINAL="622" NAME="??_7_Locale_impl@_STL@@6B@" PURGE="-1" COMMENT="" />
    <EXPORT ORDINAL="623" NAME="??_7__Named_exception@_STL@@6B@" PURGE="-1" COMMENT="" />
    <EXPORT ORDINAL="624" NAME="??_7domain_error@_STL@@6B@" PURGE="-1" COMMENT="" />
    <EXPORT ORDINAL="625" NAME="??_7facet@locale@_STL@@6B@" PURGE="-1" COMMENT="" />
    <EXPORT ORDINAL="626" NAME="??_7failure@ios_base@_STL@@6B@" PURGE="-1" COMMENT="" />
    <EXPORT ORDINAL="627" NAME="??_7invalid_argument@_STL@@6B@" PURGE="-1" COMMENT="" />
    <EXPORT ORDINAL="628" NAME="??_7ios_base@_STL@@6B@" PURGE="-1" COMMENT="" />
    <EXPORT ORDINAL="629" NAME="??_7istrstream@_STL@@6B@" PURGE="-1" COMMENT="" />
    <EXPORT ORDINAL="630" NAME="??_7length_error@_STL@@6B@" PURGE="-1" COMMENT="" />
    <EXPORT ORDINAL="631" NAME="??_7logic_error@_STL@@6B@" PURGE="-1" COMMENT="" />
    <EXPORT ORDINAL="632" NAME="??_7ostrstream@_STL@@6B@" PURGE="-1" COMMENT="" />
    <EXPORT ORDINAL="633" NAME="??_7out_of_range@_STL@@6B@" PURGE="-1" COMMENT="" />
    <EXPORT ORDINAL="634" NAME="??_7overflow_error@_STL@@6B@" PURGE="-1" COMMENT="" />
    <EXPORT ORDINAL="635" NAME="??_7range_error@_STL@@6B@" PURGE="-1" COMMENT="" />
    <EXPORT ORDINAL="636" NAME="??_7runtime_error@_STL@@6B@" PURGE="-1" COMMENT="" />
    <EXPORT ORDINAL="637" NAME="??_7strstream@_STL@@6B@" PURGE="-1" COMMENT="" />
    <EXPORT ORDINAL="638" NAME="??_7strstreambuf@_STL@@6B@" PURGE="-1" COMMENT="" />
    <EXPORT ORDINAL="639" NAME="??_7underflow_error@_STL@@6B@" PURGE="-1" COMMENT="" />
    <EXPORT ORDINAL="640" NAME="??_8?$basic_fstream@DV?$char_traits@D@_STL@@@_STL@@7B?$basic_istream@DV?$char_traits@D@_STL@@@1@@" PURGE="-1" COMMENT="" />
    <EXPORT ORDINAL="641" NAME="??_8?$basic_fstream@DV?$char_traits@D@_STL@@@_STL@@7B?$basic_ostream@DV?$char_traits@D@_STL@@@1@@" PURGE="-1" COMMENT="" />
    <EXPORT ORDINAL="642" NAME="??_8?$basic_fstream@GV?$char_traits@G@_STL@@@_STL@@7B?$basic_istream@GV?$char_traits@G@_STL@@@1@@" PURGE="-1" COMMENT="" />
    <EXPORT ORDINAL="643" NAME="??_8?$basic_fstream@GV?$char_traits@G@_STL@@@_STL@@7B?$basic_ostream@GV?$char_traits@G@_STL@@@1@@" PURGE="-1" COMMENT="" />
    <EXPORT ORDINAL="644" NAME="??_8?$basic_ifstream@DV?$char_traits@D@_STL@@@_STL@@7B@" PURGE="-1" COMMENT="" />
    <EXPORT ORDINAL="645" NAME="??_8?$basic_ifstream@GV?$char_traits@G@_STL@@@_STL@@7B@" PURGE="-1" COMMENT="" />
    <EXPORT ORDINAL="646" NAME="??_8?$basic_iostream@DV?$char_traits@D@_STL@@@_STL@@7B?$basic_istream@DV?$char_traits@D@_STL@@@1@@" PURGE="-1" COMMENT="" />
    <EXPORT ORDINAL="647" NAME="??_8?$basic_iostream@DV?$char_traits@D@_STL@@@_STL@@7B?$basic_ostream@DV?$char_traits@D@_STL@@@1@@" PURGE="-1" COMMENT="" />
    <EXPORT ORDINAL="648" NAME="??_8?$basic_iostream@GV?$char_traits@G@_STL@@@_STL@@7B?$basic_istream@GV?$char_traits@G@_STL@@@1@@" PURGE="-1" COMMENT="" />
    <EXPORT ORDINAL="649" NAME="??_8?$basic_iostream@GV?$char_traits@G@_STL@@@_STL@@7B?$basic_ostream@GV?$char_traits@G@_STL@@@1@@" PURGE="-1" COMMENT="" />
    <EXPORT ORDINAL="650" NAME="??_8?$basic_istream@DV?$char_traits@D@_STL@@@_STL@@7B@" PURGE="-1" COMMENT="" />
    <EXPORT ORDINAL="651" NAME="??_8?$basic_istream@GV?$char_traits@G@_STL@@@_STL@@7B@" PURGE="-1" COMMENT="" />
    <EXPORT ORDINAL="652" NAME="??_8?$basic_istringstream@DV?$char_traits@D@_STL@@V?$allocator@D@2@@_STL@@7B@" PURGE="-1" COMMENT="" />
    <EXPORT ORDINAL="653" NAME="??_8?$basic_istringstream@GV?$char_traits@G@_STL@@V?$allocator@G@2@@_STL@@7B@" PURGE="-1" COMMENT="" />
    <EXPORT ORDINAL="654" NAME="??_8?$basic_ofstream@DV?$char_traits@D@_STL@@@_STL@@7B@" PURGE="-1" COMMENT="" />
    <EXPORT ORDINAL="655" NAME="??_8?$basic_ofstream@GV?$char_traits@G@_STL@@@_STL@@7B@" PURGE="-1" COMMENT="" />
    <EXPORT ORDINAL="656" NAME="??_8?$basic_ostream@DV?$char_traits@D@_STL@@@_STL@@7B@" PURGE="-1" COMMENT="" />
    <EXPORT ORDINAL="657" NAME="??_8?$basic_ostream@GV?$char_traits@G@_STL@@@_STL@@7B@" PURGE="-1" COMMENT="" />
    <EXPORT ORDINAL="658" NAME="??_8?$basic_ostringstream@DV?$char_traits@D@_STL@@V?$allocator@D@2@@_STL@@7B@" PURGE="-1" COMMENT="" />
    <EXPORT ORDINAL="659" NAME="??_8?$basic_ostringstream@GV?$char_traits@G@_STL@@V?$allocator@G@2@@_STL@@7B@" PURGE="-1" COMMENT="" />
    <EXPORT ORDINAL="660" NAME="??_8?$basic_stringstream@DV?$char_traits@D@_STL@@V?$allocator@D@2@@_STL@@7B?$basic_istream@DV?$char_traits@D@_STL@@@1@@" PURGE="-1" COMMENT="" />
    <EXPORT ORDINAL="661" NAME="??_8?$basic_stringstream@DV?$char_traits@D@_STL@@V?$allocator@D@2@@_STL@@7B?$basic_ostream@DV?$char_traits@D@_STL@@@1@@" PURGE="-1" COMMENT="" />
    <EXPORT ORDINAL="662" NAME="??_8?$basic_stringstream@GV?$char_traits@G@_STL@@V?$allocator@G@2@@_STL@@7B?$basic_istream@GV?$char_traits@G@_STL@@@1@@" PURGE="-1" COMMENT="" />
    <EXPORT ORDINAL="663" NAME="??_8?$basic_stringstream@GV?$char_traits@G@_STL@@V?$allocator@G@2@@_STL@@7B?$basic_ostream@GV?$char_traits@G@_STL@@@1@@" PURGE="-1" COMMENT="" />
    <EXPORT ORDINAL="664" NAME="??_8istrstream@_STL@@7B@" PURGE="-1" COMMENT="" />
    <EXPORT ORDINAL="665" NAME="??_8ostrstream@_STL@@7B@" PURGE="-1" COMMENT="" />
    <EXPORT ORDINAL="666" NAME="??_8strstream@_STL@@7B?$basic_istream@DV?$char_traits@D@_STL@@@1@@" PURGE="-1" COMMENT="" />
    <EXPORT ORDINAL="667" NAME="??_8strstream@_STL@@7B?$basic_ostream@DV?$char_traits@D@_STL@@@1@@" PURGE="-1" COMMENT="" />
    <EXPORT ORDINAL="668" NAME="??_D?$basic_fstream@DV?$char_traits@D@_STL@@@_STL@@QAEXXZ" PURGE="0" COMMENT="" />
    <EXPORT ORDINAL="669" NAME="??_D?$basic_fstream@GV?$char_traits@G@_STL@@@_STL@@QAEXXZ" PURGE="0" COMMENT="" />
    <EXPORT ORDINAL="670" NAME="??_D?$basic_ifstream@DV?$char_traits@D@_STL@@@_STL@@QAEXXZ" PURGE="0" COMMENT="" />
    <EXPORT ORDINAL="671" NAME="??_D?$basic_ifstream@GV?$char_traits@G@_STL@@@_STL@@QAEXXZ" PURGE="0" COMMENT="" />
    <EXPORT ORDINAL="672" NAME="??_D?$basic_iostream@DV?$char_traits@D@_STL@@@_STL@@QAEXXZ" PURGE="0" COMMENT="" />
    <EXPORT ORDINAL="673" NAME="??_D?$basic_iostream@GV?$char_traits@G@_STL@@@_STL@@QAEXXZ" PURGE="0" COMMENT="" />
    <EXPORT ORDINAL="674" NAME="??_D?$basic_istream@DV?$char_traits@D@_STL@@@_STL@@QAEXXZ" PURGE="0" COMMENT="" />
    <EXPORT ORDINAL="675" NAME="??_D?$basic_istream@GV?$char_traits@G@_STL@@@_STL@@QAEXXZ" PURGE="0" COMMENT="" />
    <EXPORT ORDINAL="676" NAME="??_D?$basic_istringstream@DV?$char_traits@D@_STL@@V?$allocator@D@2@@_STL@@QAEXXZ" PURGE="0" COMMENT="" />
    <EXPORT ORDINAL="677" NAME="??_D?$basic_istringstream@GV?$char_traits@G@_STL@@V?$allocator@G@2@@_STL@@QAEXXZ" PURGE="0" COMMENT="" />
    <EXPORT ORDINAL="678" NAME="??_D?$basic_ofstream@DV?$char_traits@D@_STL@@@_STL@@QAEXXZ" PURGE="0" COMMENT="" />
    <EXPORT ORDINAL="679" NAME="??_D?$basic_ofstream@GV?$char_traits@G@_STL@@@_STL@@QAEXXZ" PURGE="0" COMMENT="" />
    <EXPORT ORDINAL="680" NAME="??_D?$basic_ostream@DV?$char_traits@D@_STL@@@_STL@@QAEXXZ" PURGE="0" COMMENT="" />
    <EXPORT ORDINAL="681" NAME="??_D?$basic_ostream@GV?$char_traits@G@_STL@@@_STL@@QAEXXZ" PURGE="0" COMMENT="" />
    <EXPORT ORDINAL="682" NAME="??_D?$basic_ostringstream@DV?$char_traits@D@_STL@@V?$allocator@D@2@@_STL@@QAEXXZ" PURGE="0" COMMENT="" />
    <EXPORT ORDINAL="683" NAME="??_D?$basic_ostringstream@GV?$char_traits@G@_STL@@V?$allocator@G@2@@_STL@@QAEXXZ" PURGE="0" COMMENT="" />
    <EXPORT ORDINAL="684" NAME="??_D?$basic_stringstream@DV?$char_traits@D@_STL@@V?$allocator@D@2@@_STL@@QAEXXZ" PURGE="0" COMMENT="" />
    <EXPORT ORDINAL="685" NAME="??_D?$basic_stringstream@GV?$char_traits@G@_STL@@V?$allocator@G@2@@_STL@@QAEXXZ" PURGE="0" COMMENT="" />
    <EXPORT ORDINAL="686" NAME="??_Distrstream@_STL@@QAEXXZ" PURGE="0" COMMENT="" />
    <EXPORT ORDINAL="687" NAME="??_Dostrstream@_STL@@QAEXXZ" PURGE="0" COMMENT="" />
    <EXPORT ORDINAL="688" NAME="??_Dstrstream@_STL@@QAEXXZ" PURGE="0" COMMENT="" />
    <EXPORT ORDINAL="689" NAME="??_F?$basic_istringstream@DV?$char_traits@D@_STL@@V?$allocator@D@2@@_STL@@QAEXXZ" PURGE="0" COMMENT="" />
    <EXPORT ORDINAL="690" NAME="??_F?$basic_istringstream@GV?$char_traits@G@_STL@@V?$allocator@G@2@@_STL@@QAEXXZ" PURGE="0" COMMENT="" />
    <EXPORT ORDINAL="691" NAME="??_F?$basic_ostringstream@DV?$char_traits@D@_STL@@V?$allocator@D@2@@_STL@@QAEXXZ" PURGE="0" COMMENT="" />
    <EXPORT ORDINAL="692" NAME="??_F?$basic_ostringstream@GV?$char_traits@G@_STL@@V?$allocator@G@2@@_STL@@QAEXXZ" PURGE="0" COMMENT="" />
    <EXPORT ORDINAL="693" NAME="??_F?$basic_stringbuf@DV?$char_traits@D@_STL@@V?$allocator@D@2@@_STL@@QAEXXZ" PURGE="0" COMMENT="" />
    <EXPORT ORDINAL="694" NAME="??_F?$basic_stringbuf@GV?$char_traits@G@_STL@@V?$allocator@G@2@@_STL@@QAEXXZ" PURGE="0" COMMENT="" />
    <EXPORT ORDINAL="695" NAME="??_F?$basic_stringstream@DV?$char_traits@D@_STL@@V?$allocator@D@2@@_STL@@QAEXXZ" PURGE="0" COMMENT="" />
    <EXPORT ORDINAL="696" NAME="??_F?$basic_stringstream@GV?$char_traits@G@_STL@@V?$allocator@G@2@@_STL@@QAEXXZ" PURGE="0" COMMENT="" />
    <EXPORT ORDINAL="697" NAME="??_F?$codecvt@DDH@_STL@@QAEXXZ" PURGE="0" COMMENT="" />
    <EXPORT ORDINAL="698" NAME="??_F?$codecvt@GDH@_STL@@QAEXXZ" PURGE="0" COMMENT="" />
    <EXPORT ORDINAL="699" NAME="??_F?$collate@D@_STL@@QAEXXZ" PURGE="0" COMMENT="" />
    <EXPORT ORDINAL="700" NAME="??_F?$collate@G@_STL@@QAEXXZ" PURGE="0" COMMENT="" />
    <EXPORT ORDINAL="701" NAME="??_F?$complex@M@_STL@@QAEXXZ" PURGE="0" COMMENT="" />
    <EXPORT ORDINAL="702" NAME="??_F?$complex@N@_STL@@QAEXXZ" PURGE="0" COMMENT="" />
    <EXPORT ORDINAL="703" NAME="??_F?$complex@O@_STL@@QAEXXZ" PURGE="0" COMMENT="" />
    <EXPORT ORDINAL="704" NAME="??_F?$ctype@D@_STL@@QAEXXZ" PURGE="0" COMMENT="" />
    <EXPORT ORDINAL="705" NAME="??_F?$ctype@G@_STL@@QAEXXZ" PURGE="0" COMMENT="" />
    <EXPORT ORDINAL="706" NAME="??_F?$istreambuf_iterator@DV?$char_traits@D@_STL@@@_STL@@QAEXXZ" PURGE="0" COMMENT="" />
    <EXPORT ORDINAL="707" NAME="??_F?$messages@D@_STL@@QAEXXZ" PURGE="0" COMMENT="" />
    <EXPORT ORDINAL="708" NAME="??_F?$messages@G@_STL@@QAEXXZ" PURGE="0" COMMENT="" />
    <EXPORT ORDINAL="709" NAME="??_F?$money_get@DV?$istreambuf_iterator@DV?$char_traits@D@_STL@@@_STL@@@_STL@@QAEXXZ" PURGE="0" COMMENT="" />
    <EXPORT ORDINAL="710" NAME="??_F?$money_get@GV?$istreambuf_iterator@GV?$char_traits@G@_STL@@@_STL@@@_STL@@QAEXXZ" PURGE="0" COMMENT="" />
    <EXPORT ORDINAL="711" NAME="??_F?$money_put@DV?$ostreambuf_iterator@DV?$char_traits@D@_STL@@@_STL@@@_STL@@QAEXXZ" PURGE="0" COMMENT="" />
    <EXPORT ORDINAL="712" NAME="??_F?$money_put@GV?$ostreambuf_iterator@GV?$char_traits@G@_STL@@@_STL@@@_STL@@QAEXXZ" PURGE="0" COMMENT="" />
    <EXPORT ORDINAL="713" NAME="??_F?$moneypunct@D$00@_STL@@QAEXXZ" PURGE="0" COMMENT="" />
    <EXPORT ORDINAL="714" NAME="??_F?$moneypunct@D$0A@@_STL@@QAEXXZ" PURGE="0" COMMENT="" />
    <EXPORT ORDINAL="715" NAME="??_F?$moneypunct@G$00@_STL@@QAEXXZ" PURGE="0" COMMENT="" />
    <EXPORT ORDINAL="716" NAME="??_F?$moneypunct@G$0A@@_STL@@QAEXXZ" PURGE="0" COMMENT="" />
    <EXPORT ORDINAL="717" NAME="??_F?$num_get@DV?$istreambuf_iterator@DV?$char_traits@D@_STL@@@_STL@@@_STL@@QAEXXZ" PURGE="0" COMMENT="" />
    <EXPORT ORDINAL="718" NAME="??_F?$num_get@GV?$istreambuf_iterator@GV?$char_traits@G@_STL@@@_STL@@@_STL@@QAEXXZ" PURGE="0" COMMENT="" />
    <EXPORT ORDINAL="719" NAME="??_F?$num_put@DV?$ostreambuf_iterator@DV?$char_traits@D@_STL@@@_STL@@@_STL@@QAEXXZ" PURGE="0" COMMENT="" />
    <EXPORT ORDINAL="720" NAME="??_F?$num_put@GV?$ostreambuf_iterator@GV?$char_traits@G@_STL@@@_STL@@@_STL@@QAEXXZ" PURGE="0" COMMENT="" />
    <EXPORT ORDINAL="721" NAME="??_F?$numpunct@D@_STL@@QAEXXZ" PURGE="0" COMMENT="" />
    <EXPORT ORDINAL="722" NAME="??_F?$numpunct@G@_STL@@QAEXXZ" PURGE="0" COMMENT="" />
    <EXPORT ORDINAL="723" NAME="??_F?$time_get@DV?$istreambuf_iterator@DV?$char_traits@D@_STL@@@_STL@@@_STL@@QAEXXZ" PURGE="0" COMMENT="" />
    <EXPORT ORDINAL="724" NAME="??_F?$time_get@GV?$istreambuf_iterator@GV?$char_traits@G@_STL@@@_STL@@@_STL@@QAEXXZ" PURGE="0" COMMENT="" />
    <EXPORT ORDINAL="725" NAME="??_F?$time_put@DV?$ostreambuf_iterator@DV?$char_traits@D@_STL@@@_STL@@@_STL@@QAEXXZ" PURGE="0" COMMENT="" />
    <EXPORT ORDINAL="726" NAME="??_F?$time_put@GV?$ostreambuf_iterator@GV?$char_traits@G@_STL@@@_STL@@@_STL@@QAEXXZ" PURGE="0" COMMENT="" />
    <EXPORT ORDINAL="727" NAME="??_F?$vector@PAXV?$allocator@PAX@_STL@@@_STL@@QAEXXZ" PURGE="0" COMMENT="" />
    <EXPORT ORDINAL="728" NAME="??_Ffacet@locale@_STL@@QAEXXZ" PURGE="0" COMMENT="" />
    <EXPORT ORDINAL="729" NAME="??_Fstrstreambuf@_STL@@QAEXXZ" PURGE="0" COMMENT="" />
    <EXPORT ORDINAL="730" NAME="?_Assert@?$__stl_debug_engine@_N@_STL@@SAXPBD0H@Z" PURGE="0" COMMENT="" />
    <EXPORT ORDINAL="731" NAME="?_D_inf@?$_LimG@_N@_STL@@2T_D_rep@2@B" PURGE="-1" COMMENT="" />
    <EXPORT ORDINAL="732" NAME="?_D_qNaN@?$_LimG@_N@_STL@@2T_D_rep@2@B" PURGE="-1" COMMENT="" />
    <EXPORT ORDINAL="733" NAME="?_D_sNaN@?$_LimG@_N@_STL@@2T_D_rep@2@B" PURGE="-1" COMMENT="" />
    <EXPORT ORDINAL="734" NAME="?_F_inf@?$_LimG@_N@_STL@@2T_F_rep@2@B" PURGE="-1" COMMENT="" />
    <EXPORT ORDINAL="735" NAME="?_F_qNaN@?$_LimG@_N@_STL@@2T_F_rep@2@B" PURGE="-1" COMMENT="" />
    <EXPORT ORDINAL="736" NAME="?_F_sNaN@?$_LimG@_N@_STL@@2T_F_rep@2@B" PURGE="-1" COMMENT="" />
    <EXPORT ORDINAL="737" NAME="?_IndexedError@?$__stl_debug_engine@_N@_STL@@SAXHPBDH@Z" PURGE="0" COMMENT="" />
    <EXPORT ORDINAL="738" NAME="?_L_inf@?$_LimG@_N@_STL@@2T_L_rep@2@B" PURGE="-1" COMMENT="" />
    <EXPORT ORDINAL="739" NAME="?_L_qNaN@?$_LimG@_N@_STL@@2T_L_rep@2@B" PURGE="-1" COMMENT="" />
    <EXPORT ORDINAL="740" NAME="?_L_sNaN@?$_LimG@_N@_STL@@2T_L_rep@2@B" PURGE="-1" COMMENT="" />
    <EXPORT ORDINAL="741" NAME="?_M_acquire_lock@_STLP_mutex_base@_STL@@QAEXXZ" PURGE="0" COMMENT="" />
    <EXPORT ORDINAL="742" NAME="?_M_alloc@strstreambuf@_STL@@AAEPADI@Z" PURGE="4" COMMENT="" />
    <EXPORT ORDINAL="743" NAME="?_M_allocate@?$__node_alloc@$00$0A@@_STL@@CAPAXI@Z" PURGE="0" COMMENT="" />
    <EXPORT ORDINAL="744" NAME="?_M_allocate_block@?$_String_base@DV?$allocator@D@_STL@@@_STL@@QAEXI@Z" PURGE="4" COMMENT="" />
    <EXPORT ORDINAL="745" NAME="?_M_allocate_block@?$_String_base@GV?$allocator@G@_STL@@@_STL@@QAEXI@Z" PURGE="4" COMMENT="" />
    <EXPORT ORDINAL="746" NAME="?_M_allocate_buffers@?$basic_filebuf@DV?$char_traits@D@_STL@@@_STL@@AAE_NPADH@Z" PURGE="8" COMMENT="" />
    <EXPORT ORDINAL="747" NAME="?_M_allocate_buffers@?$basic_filebuf@DV?$char_traits@D@_STL@@@_STL@@AAE_NXZ" PURGE="0" COMMENT="" />
    <EXPORT ORDINAL="748" NAME="?_M_allocate_buffers@?$basic_filebuf@GV?$char_traits@G@_STL@@@_STL@@AAE_NPAGH@Z" PURGE="8" COMMENT="" />
    <EXPORT ORDINAL="749" NAME="?_M_allocate_buffers@?$basic_filebuf@GV?$char_traits@G@_STL@@@_STL@@AAE_NXZ" PURGE="0" COMMENT="" />
    <EXPORT ORDINAL="750" NAME="?_M_append_buffer@?$basic_stringbuf@DV?$char_traits@D@_STL@@V?$allocator@D@2@@_STL@@ABEXXZ" PURGE="0" COMMENT="" />
    <EXPORT ORDINAL="751" NAME="?_M_append_buffer@?$basic_stringbuf@GV?$char_traits@G@_STL@@V?$allocator@G@2@@_STL@@ABEXXZ" PURGE="0" COMMENT="" />
    <EXPORT ORDINAL="752" NAME="?_M_bumpc@?$istreambuf_iterator@DV?$char_traits@D@_STL@@@_STL@@AAEXXZ" PURGE="0" COMMENT="" />
    <EXPORT ORDINAL="753" NAME="?_M_check_exception_mask@ios_base@_STL@@IAEXXZ" PURGE="0" COMMENT="" />
    <EXPORT ORDINAL="754" NAME="?_M_clear@?$vector@PAXV?$allocator@PAX@_STL@@@_STL@@IAEXXZ" PURGE="0" COMMENT="" />
    <EXPORT ORDINAL="755" NAME="?_M_clear_nothrow@ios_base@_STL@@IAEXH@Z" PURGE="4" COMMENT="" />
    <EXPORT ORDINAL="756" NAME="?_M_close@_Filebuf_base@_STL@@QAE_NXZ" PURGE="0" COMMENT="" />
    <EXPORT ORDINAL="757" NAME="?_M_compare@?$basic_string@DV?$char_traits@D@_STL@@V?$allocator@D@2@@_STL@@SAHPBD000@Z" PURGE="0" COMMENT="" />
    <EXPORT ORDINAL="758" NAME="?_M_compare@?$basic_string@GV?$char_traits@G@_STL@@V?$allocator@G@2@@_STL@@SAHPBG000@Z" PURGE="0" COMMENT="" />
    <EXPORT ORDINAL="759" NAME="?_M_construct_null@?$basic_string@DV?$char_traits@D@_STL@@V?$allocator@D@2@@_STL@@AAEXPAD@Z" PURGE="4" COMMENT="" />
    <EXPORT ORDINAL="760" NAME="?_M_construct_null@?$basic_string@GV?$char_traits@G@_STL@@V?$allocator@G@2@@_STL@@AAEXPAG@Z" PURGE="4" COMMENT="" />
    <EXPORT ORDINAL="761" NAME="?_M_construct_null_aux@?$basic_string@DV?$char_traits@D@_STL@@V?$allocator@D@2@@_STL@@AAEXPADABU__false_type@2@@Z" PURGE="8" COMMENT="" />
    <EXPORT ORDINAL="762" NAME="?_M_construct_null_aux@?$basic_string@DV?$char_traits@D@_STL@@V?$allocator@D@2@@_STL@@AAEXPADABU__true_type@2@@Z" PURGE="8" COMMENT="" />
    <EXPORT ORDINAL="763" NAME="?_M_construct_null_aux@?$basic_string@GV?$char_traits@G@_STL@@V?$allocator@G@2@@_STL@@AAEXPAGABU__false_type@2@@Z" PURGE="8" COMMENT="" />
    <EXPORT ORDINAL="764" NAME="?_M_construct_null_aux@?$basic_string@GV?$char_traits@G@_STL@@V?$allocator@G@2@@_STL@@AAEXPAGABU__true_type@2@@Z" PURGE="8" COMMENT="" />
    <EXPORT ORDINAL="765" NAME="?_M_copy@?$basic_string@DV?$char_traits@D@_STL@@V?$allocator@D@2@@_STL@@AAEXPBD0PAD@Z" PURGE="12" COMMENT="" />
    <EXPORT ORDINAL="766" NAME="?_M_copy@?$basic_string@GV?$char_traits@G@_STL@@V?$allocator@G@2@@_STL@@AAEXPBG0PAG@Z" PURGE="12" COMMENT="" />
    <EXPORT ORDINAL="767" NAME="?_M_copy_buffered@?$basic_ostream@DV?$char_traits@D@_STL@@@_STL@@AAE_NPAV?$basic_streambuf@DV?$char_traits@D@_STL@@@2@0@Z" PURGE="8" COMMENT="" />
    <EXPORT ORDINAL="768" NAME="?_M_copy_buffered@?$basic_ostream@GV?$char_traits@G@_STL@@@_STL@@AAE_NPAV?$basic_streambuf@GV?$char_traits@G@_STL@@@2@0@Z" PURGE="8" COMMENT="" />
    <EXPORT ORDINAL="769" NAME="?_M_copy_state@ios_base@_STL@@IAEXABV12@@Z" PURGE="4" COMMENT="" />
    <EXPORT ORDINAL="770" NAME="?_M_copy_unbuffered@?$basic_ostream@DV?$char_traits@D@_STL@@@_STL@@AAE_NPAV?$basic_streambuf@DV?$char_traits@D@_STL@@@2@0@Z" PURGE="8" COMMENT="" />
    <EXPORT ORDINAL="771" NAME="?_M_copy_unbuffered@?$basic_ostream@GV?$char_traits@G@_STL@@@_STL@@AAE_NPAV?$basic_streambuf@GV?$char_traits@G@_STL@@@2@0@Z" PURGE="8" COMMENT="" />
    <EXPORT ORDINAL="772" NAME="?_M_ctype_facet@ios_base@_STL@@QBEPBVfacet@locale@2@XZ" PURGE="0" COMMENT="" />
    <EXPORT ORDINAL="773" NAME="?_M_deallocate@?$__node_alloc@$00$0A@@_STL@@CAXPAXI@Z" PURGE="0" COMMENT="" />
    <EXPORT ORDINAL="774" NAME="?_M_deallocate_block@?$_String_base@DV?$allocator@D@_STL@@@_STL@@QAEXXZ" PURGE="0" COMMENT="" />
    <EXPORT ORDINAL="775" NAME="?_M_deallocate_block@?$_String_base@GV?$allocator@G@_STL@@@_STL@@QAEXXZ" PURGE="0" COMMENT="" />
    <EXPORT ORDINAL="776" NAME="?_M_deallocate_buffers@?$basic_filebuf@DV?$char_traits@D@_STL@@@_STL@@AAEXXZ" PURGE="0" COMMENT="" />
    <EXPORT ORDINAL="777" NAME="?_M_deallocate_buffers@?$basic_filebuf@GV?$char_traits@G@_STL@@@_STL@@AAEXXZ" PURGE="0" COMMENT="" />
    <EXPORT ORDINAL="778" NAME="?_M_decr@_Refcount_Base@_STL@@QAEXXZ" PURGE="0" COMMENT="" />
    <EXPORT ORDINAL="779" NAME="?_M_decrement@?$_Rb_global@_N@_STL@@SAPAU_Rb_tree_node_base@2@PAU32@@Z" PURGE="0" COMMENT="" />
    <EXPORT ORDINAL="780" NAME="?_M_destroy@_STLP_mutex_base@_STL@@QAEXXZ" PURGE="0" COMMENT="" />
    <EXPORT ORDINAL="781" NAME="?_M_do_noconv_input@?$basic_filebuf@DV?$char_traits@D@_STL@@@_STL@@QAEHXZ" PURGE="0" COMMENT="" />
    <EXPORT ORDINAL="782" NAME="?_M_do_noconv_input@?$basic_filebuf@GV?$char_traits@G@_STL@@@_STL@@QAEGXZ" PURGE="0" COMMENT="" />
    <EXPORT ORDINAL="783" NAME="?_M_doit@?$_Noconv_output@V?$char_traits@D@_STL@@@_STL@@SA_NPAV?$basic_filebuf@DV?$char_traits@D@_STL@@@2@PAD1@Z" PURGE="0" COMMENT="" />
    <EXPORT ORDINAL="784" NAME="?_M_doit@?$_Underflow@DV?$char_traits@D@_STL@@@_STL@@SAHPAV?$basic_filebuf@DV?$char_traits@D@_STL@@@2@@Z" PURGE="0" COMMENT="" />
    <EXPORT ORDINAL="785" NAME="?_M_doit@?$_Underflow@GV?$char_traits@G@_STL@@@_STL@@SAGPAV?$basic_filebuf@GV?$char_traits@G@_STL@@@2@@Z" PURGE="0" COMMENT="" />
    <EXPORT ORDINAL="786" NAME="?_M_eback@?$basic_streambuf@DV?$char_traits@D@_STL@@@_STL@@QBEPADXZ" PURGE="0" COMMENT="" />
    <EXPORT ORDINAL="787" NAME="?_M_eback@?$basic_streambuf@GV?$char_traits@G@_STL@@@_STL@@QBEPAGXZ" PURGE="0" COMMENT="" />
    <EXPORT ORDINAL="788" NAME="?_M_egptr@?$basic_streambuf@DV?$char_traits@D@_STL@@@_STL@@QBEPADXZ" PURGE="0" COMMENT="" />
    <EXPORT ORDINAL="789" NAME="?_M_egptr@?$basic_streambuf@GV?$char_traits@G@_STL@@@_STL@@QBEPAGXZ" PURGE="0" COMMENT="" />
    <EXPORT ORDINAL="790" NAME="?_M_exit_input_mode@?$basic_filebuf@DV?$char_traits@D@_STL@@@_STL@@AAEXXZ" PURGE="0" COMMENT="" />
    <EXPORT ORDINAL="791" NAME="?_M_exit_input_mode@?$basic_filebuf@GV?$char_traits@G@_STL@@@_STL@@AAEXXZ" PURGE="0" COMMENT="" />
    <EXPORT ORDINAL="792" NAME="?_M_exit_putback_mode@?$basic_filebuf@DV?$char_traits@D@_STL@@@_STL@@AAEXXZ" PURGE="0" COMMENT="" />
    <EXPORT ORDINAL="793" NAME="?_M_exit_putback_mode@?$basic_filebuf@GV?$char_traits@G@_STL@@@_STL@@AAEXXZ" PURGE="0" COMMENT="" />
    <EXPORT ORDINAL="794" NAME="?_M_falsename@?$numpunct@D@_STL@@1V?$basic_string@DV?$char_traits@D@_STL@@V?$allocator@D@2@@2@A" PURGE="-1" COMMENT="" />
    <EXPORT ORDINAL="795" NAME="?_M_falsename@?$numpunct@G@_STL@@1V?$basic_string@GV?$char_traits@G@_STL@@V?$allocator@G@2@@2@A" PURGE="-1" COMMENT="" />
    <EXPORT ORDINAL="796" NAME="?_M_file_size@_Filebuf_base@_STL@@QAEJXZ" PURGE="0" COMMENT="" />
    <EXPORT ORDINAL="797" NAME="?_M_fill_assign@?$vector@PAXV?$allocator@PAX@_STL@@@_STL@@QAEXIABQAX@Z" PURGE="8" COMMENT="" />
    <EXPORT ORDINAL="798" NAME="?_M_fill_insert@?$vector@PAXV?$allocator@PAX@_STL@@@_STL@@QAEXPAPAXIABQAX@Z" PURGE="12" COMMENT="" />
    <EXPORT ORDINAL="799" NAME="?_M_formatted_get@?$basic_istream@DV?$char_traits@D@_STL@@@_STL@@QAEXAAD@Z" PURGE="4" COMMENT="" />
    <EXPORT ORDINAL="800" NAME="?_M_formatted_get@?$basic_istream@DV?$char_traits@D@_STL@@@_STL@@QAEXPAD@Z" PURGE="4" COMMENT="" />
    <EXPORT ORDINAL="801" NAME="?_M_formatted_get@?$basic_istream@GV?$char_traits@G@_STL@@@_STL@@QAEXAAG@Z" PURGE="4" COMMENT="" />
    <EXPORT ORDINAL="802" NAME="?_M_formatted_get@?$basic_istream@GV?$char_traits@G@_STL@@@_STL@@QAEXPAG@Z" PURGE="4" COMMENT="" />
    <EXPORT ORDINAL="803" NAME="?_M_free@strstreambuf@_STL@@AAEXPAD@Z" PURGE="4" COMMENT="" />
    <EXPORT ORDINAL="804" NAME="?_M_gbump@?$basic_streambuf@DV?$char_traits@D@_STL@@@_STL@@QAEXH@Z" PURGE="4" COMMENT="" />
    <EXPORT ORDINAL="805" NAME="?_M_gbump@?$basic_streambuf@GV?$char_traits@G@_STL@@@_STL@@QAEXH@Z" PURGE="4" COMMENT="" />
    <EXPORT ORDINAL="806" NAME="?_M_get_exception_mask@ios_base@_STL@@IBEHXZ" PURGE="0" COMMENT="" />
    <EXPORT ORDINAL="807" NAME="?_M_get_facet@locale@_STL@@QBEPAVfacet@12@ABVid@12@@Z" PURGE="4" COMMENT="" />
    <EXPORT ORDINAL="808" NAME="?_M_get_offset@_Filebuf_base@_STL@@QAEJPAD0@Z" PURGE="8" COMMENT="" />
    <EXPORT ORDINAL="809" NAME="?_M_getc@?$istreambuf_iterator@DV?$char_traits@D@_STL@@@_STL@@ABEXXZ" PURGE="0" COMMENT="" />
    <EXPORT ORDINAL="810" NAME="?_M_gptr@?$basic_streambuf@DV?$char_traits@D@_STL@@@_STL@@QBEPADXZ" PURGE="0" COMMENT="" />
    <EXPORT ORDINAL="811" NAME="?_M_gptr@?$basic_streambuf@GV?$char_traits@G@_STL@@@_STL@@QBEPAGXZ" PURGE="0" COMMENT="" />
    <EXPORT ORDINAL="812" NAME="?_M_grouping@?$numpunct@D@_STL@@1V?$basic_string@DV?$char_traits@D@_STL@@V?$allocator@D@2@@2@A" PURGE="-1" COMMENT="" />
    <EXPORT ORDINAL="813" NAME="?_M_grouping@?$numpunct@G@_STL@@1V?$basic_string@DV?$char_traits@D@_STL@@V?$allocator@D@2@@2@A" PURGE="-1" COMMENT="" />
    <EXPORT ORDINAL="814" NAME="?_M_grouping@ios_base@_STL@@QBEABV?$basic_string@DV?$char_traits@D@_STL@@V?$allocator@D@2@@2@XZ" PURGE="0" COMMENT="" />
    <EXPORT ORDINAL="815" NAME="?_M_handle_exception@?$basic_ios@DV?$char_traits@D@_STL@@@_STL@@QAEXH@Z" PURGE="4" COMMENT="" />
    <EXPORT ORDINAL="816" NAME="?_M_handle_exception@?$basic_ios@GV?$char_traits@G@_STL@@@_STL@@QAEXH@Z" PURGE="4" COMMENT="" />
    <EXPORT ORDINAL="817" NAME="?_M_in_binary_mode@_Filebuf_base@_STL@@QBE_NXZ" PURGE="0" COMMENT="" />
    <EXPORT ORDINAL="818" NAME="?_M_incr@_Refcount_Base@_STL@@QAEXXZ" PURGE="0" COMMENT="" />
    <EXPORT ORDINAL="819" NAME="?_M_increment@?$_Rb_global@_N@_STL@@SAPAU_Rb_tree_node_base@2@PAU32@@Z" PURGE="0" COMMENT="" />
    <EXPORT ORDINAL="820" NAME="?_M_init@?$istreambuf_iterator@DV?$char_traits@D@_STL@@@_STL@@AAEXPAV?$basic_streambuf@DV?$char_traits@D@_STL@@@2@@Z" PURGE="4" COMMENT="" />
    <EXPORT ORDINAL="821" NAME="?_M_initialize@_STLP_mutex_base@_STL@@QAEXXZ" PURGE="0" COMMENT="" />
    <EXPORT ORDINAL="822" NAME="?_M_input_error@?$basic_filebuf@DV?$char_traits@D@_STL@@@_STL@@AAEHXZ" PURGE="0" COMMENT="" />
    <EXPORT ORDINAL="823" NAME="?_M_input_error@?$basic_filebuf@GV?$char_traits@G@_STL@@@_STL@@AAEGXZ" PURGE="0" COMMENT="" />
    <EXPORT ORDINAL="824" NAME="?_M_insert@locale@_STL@@AAEXPAVfacet@12@AAVid@12@@Z" PURGE="8" COMMENT="" />
    <EXPORT ORDINAL="825" NAME="?_M_insert_aux@?$basic_string@DV?$char_traits@D@_STL@@V?$allocator@D@2@@_STL@@AAEPADPADD@Z" PURGE="8" COMMENT="" />
    <EXPORT ORDINAL="826" NAME="?_M_insert_aux@?$basic_string@GV?$char_traits@G@_STL@@V?$allocator@G@2@@_STL@@AAEPAGPAGG@Z" PURGE="8" COMMENT="" />
    <EXPORT ORDINAL="827" NAME="?_M_insert_overflow@?$vector@PAXV?$allocator@PAX@_STL@@@_STL@@IAEXPAPAXABQAXABU__false_type@2@I_N@Z" PURGE="20" COMMENT="" />
    <EXPORT ORDINAL="828" NAME="?_M_insert_overflow@?$vector@PAXV?$allocator@PAX@_STL@@@_STL@@IAEXPAPAXABQAXABU__true_type@2@I_N@Z" PURGE="20" COMMENT="" />
    <EXPORT ORDINAL="829" NAME="?_M_invoke_callbacks@ios_base@_STL@@IAEXW4event@12@@Z" PURGE="4" COMMENT="" />
    <EXPORT ORDINAL="830" NAME="?_M_mmap@_Filebuf_base@_STL@@QAEPAXJJ@Z" PURGE="8" COMMENT="" />
    <EXPORT ORDINAL="831" NAME="?_M_null@?$basic_string@DV?$char_traits@D@_STL@@V?$allocator@D@2@@_STL@@SADXZ" PURGE="0" COMMENT="" />
    <EXPORT ORDINAL="832" NAME="?_M_null@?$basic_string@GV?$char_traits@G@_STL@@V?$allocator@G@2@@_STL@@SAGXZ" PURGE="0" COMMENT="" />
    <EXPORT ORDINAL="833" NAME="?_M_numpunct_facet@ios_base@_STL@@QBEPBVfacet@locale@2@XZ" PURGE="0" COMMENT="" />
    <EXPORT ORDINAL="834" NAME="?_M_open@?$basic_filebuf@DV?$char_traits@D@_STL@@@_STL@@QAEPAV12@HH@Z" PURGE="8" COMMENT="" />
    <EXPORT ORDINAL="835" NAME="?_M_open@?$basic_filebuf@GV?$char_traits@G@_STL@@@_STL@@QAEPAV12@HH@Z" PURGE="8" COMMENT="" />
    <EXPORT ORDINAL="836" NAME="?_M_open@_Filebuf_base@_STL@@QAE_NHH@Z" PURGE="8" COMMENT="" />
    <EXPORT ORDINAL="837" NAME="?_M_open@_Filebuf_base@_STL@@QAE_NPBDH@Z" PURGE="8" COMMENT="" />
    <EXPORT ORDINAL="838" NAME="?_M_open@_Filebuf_base@_STL@@QAE_NPBDHJ@Z" PURGE="12" COMMENT="" />
    <EXPORT ORDINAL="839" NAME="?_M_output_error@?$basic_filebuf@DV?$char_traits@D@_STL@@@_STL@@AAEHXZ" PURGE="0" COMMENT="" />
    <EXPORT ORDINAL="840" NAME="?_M_output_error@?$basic_filebuf@GV?$char_traits@G@_STL@@@_STL@@AAEGXZ" PURGE="0" COMMENT="" />
    <EXPORT ORDINAL="841" NAME="?_M_page_size@_Filebuf_base@_STL@@1IA" PURGE="-1" COMMENT="" />
    <EXPORT ORDINAL="842" NAME="?_M_put_char@?$basic_ostream@DV?$char_traits@D@_STL@@@_STL@@QAEXD@Z" PURGE="4" COMMENT="" />
    <EXPORT ORDINAL="843" NAME="?_M_put_char@?$basic_ostream@GV?$char_traits@G@_STL@@@_STL@@QAEXG@Z" PURGE="4" COMMENT="" />
    <EXPORT ORDINAL="844" NAME="?_M_put_nowiden@?$basic_ostream@DV?$char_traits@D@_STL@@@_STL@@QAEXPBD@Z" PURGE="4" COMMENT="" />
    <EXPORT ORDINAL="845" NAME="?_M_put_nowiden@?$basic_ostream@GV?$char_traits@G@_STL@@@_STL@@QAEXPBG@Z" PURGE="4" COMMENT="" />
    <EXPORT ORDINAL="846" NAME="?_M_put_widen@?$basic_ostream@DV?$char_traits@D@_STL@@@_STL@@QAEXPBD@Z" PURGE="4" COMMENT="" />
    <EXPORT ORDINAL="847" NAME="?_M_put_widen@?$basic_ostream@GV?$char_traits@G@_STL@@@_STL@@QAEXPBD@Z" PURGE="4" COMMENT="" />
    <EXPORT ORDINAL="848" NAME="?_M_put_widen_aux@?$basic_ostream@DV?$char_traits@D@_STL@@@_STL@@QAE_NPBDH@Z" PURGE="8" COMMENT="" />
    <EXPORT ORDINAL="849" NAME="?_M_put_widen_aux@?$basic_ostream@GV?$char_traits@G@_STL@@@_STL@@QAE_NPBDH@Z" PURGE="8" COMMENT="" />
    <EXPORT ORDINAL="850" NAME="?_M_range_check@?$vector@PAXV?$allocator@PAX@_STL@@@_STL@@IBEXI@Z" PURGE="4" COMMENT="" />
    <EXPORT ORDINAL="851" NAME="?_M_read@_Filebuf_base@_STL@@QAEHPADH@Z" PURGE="8" COMMENT="" />
    <EXPORT ORDINAL="852" NAME="?_M_release_lock@_STLP_mutex_base@_STL@@QAEXXZ" PURGE="0" COMMENT="" />
    <EXPORT ORDINAL="853" NAME="?_M_seek@_Filebuf_base@_STL@@QAEJJH@Z" PURGE="8" COMMENT="" />
    <EXPORT ORDINAL="854" NAME="?_M_seek_init@?$basic_filebuf@DV?$char_traits@D@_STL@@@_STL@@AAE_N_N@Z" PURGE="4" COMMENT="" />
    <EXPORT ORDINAL="855" NAME="?_M_seek_init@?$basic_filebuf@GV?$char_traits@G@_STL@@@_STL@@AAE_N_N@Z" PURGE="4" COMMENT="" />
    <EXPORT ORDINAL="856" NAME="?_M_seek_return@?$basic_filebuf@DV?$char_traits@D@_STL@@@_STL@@AAE?AV?$fpos@H@2@JH@Z" PURGE="12" COMMENT="" />
    <EXPORT ORDINAL="857" NAME="?_M_seek_return@?$basic_filebuf@GV?$char_traits@G@_STL@@@_STL@@AAE?AV?$fpos@H@2@JH@Z" PURGE="12" COMMENT="" />
    <EXPORT ORDINAL="858" NAME="?_M_set@?$vector@PAXV?$allocator@PAX@_STL@@@_STL@@IAEXPAPAX00@Z" PURGE="12" COMMENT="" />
    <EXPORT ORDINAL="859" NAME="?_M_set_exception_mask@ios_base@_STL@@IAEXH@Z" PURGE="4" COMMENT="" />
    <EXPORT ORDINAL="860" NAME="?_M_set_ptrs@?$basic_stringbuf@DV?$char_traits@D@_STL@@V?$allocator@D@2@@_STL@@AAEXXZ" PURGE="0" COMMENT="" />
    <EXPORT ORDINAL="861" NAME="?_M_set_ptrs@?$basic_stringbuf@GV?$char_traits@G@_STL@@V?$allocator@G@2@@_STL@@AAEXXZ" PURGE="0" COMMENT="" />
    <EXPORT ORDINAL="862" NAME="?_M_setg@?$basic_streambuf@DV?$char_traits@D@_STL@@@_STL@@QAEXPAD00@Z" PURGE="12" COMMENT="" />
    <EXPORT ORDINAL="863" NAME="?_M_setg@?$basic_streambuf@GV?$char_traits@G@_STL@@@_STL@@QAEXPAG00@Z" PURGE="12" COMMENT="" />
    <EXPORT ORDINAL="864" NAME="?_M_setstate_nothrow@ios_base@_STL@@IAEXH@Z" PURGE="4" COMMENT="" />
    <EXPORT ORDINAL="865" NAME="?_M_setup@strstreambuf@_STL@@AAEXPAD0H@Z" PURGE="12" COMMENT="" />
    <EXPORT ORDINAL="866" NAME="?_M_setup_codecvt@?$basic_filebuf@DV?$char_traits@D@_STL@@@_STL@@AAEXABVlocale@2@@Z" PURGE="4" COMMENT="" />
    <EXPORT ORDINAL="867" NAME="?_M_setup_codecvt@?$basic_filebuf@GV?$char_traits@G@_STL@@@_STL@@AAEXABVlocale@2@@Z" PURGE="4" COMMENT="" />
    <EXPORT ORDINAL="868" NAME="?_M_skip_whitespace@?$basic_istream@DV?$char_traits@D@_STL@@@_STL@@QAEX_N@Z" PURGE="4" COMMENT="" />
    <EXPORT ORDINAL="869" NAME="?_M_skip_whitespace@?$basic_istream@GV?$char_traits@G@_STL@@@_STL@@QAEX_N@Z" PURGE="4" COMMENT="" />
    <EXPORT ORDINAL="870" NAME="?_M_snextc_aux@?$basic_streambuf@DV?$char_traits@D@_STL@@@_STL@@AAEHXZ" PURGE="0" COMMENT="" />
    <EXPORT ORDINAL="871" NAME="?_M_snextc_aux@?$basic_streambuf@GV?$char_traits@G@_STL@@@_STL@@AAEGXZ" PURGE="0" COMMENT="" />
    <EXPORT ORDINAL="872" NAME="?_M_sputnc@?$basic_streambuf@DV?$char_traits@D@_STL@@@_STL@@QAEHDH@Z" PURGE="-1" COMMENT="" />
    <EXPORT ORDINAL="873" NAME="?_M_sputnc@?$basic_streambuf@GV?$char_traits@G@_STL@@@_STL@@QAEHGH@Z" PURGE="8" COMMENT="" />
    <EXPORT ORDINAL="874" NAME="?_M_switch_to_input_mode@?$basic_filebuf@DV?$char_traits@D@_STL@@@_STL@@AAE_NXZ" PURGE="0" COMMENT="" />
    <EXPORT ORDINAL="875" NAME="?_M_switch_to_input_mode@?$basic_filebuf@GV?$char_traits@G@_STL@@@_STL@@AAE_NXZ" PURGE="0" COMMENT="" />
    <EXPORT ORDINAL="876" NAME="?_M_switch_to_output_mode@?$basic_filebuf@DV?$char_traits@D@_STL@@@_STL@@AAE_NXZ" PURGE="0" COMMENT="" />
    <EXPORT ORDINAL="877" NAME="?_M_switch_to_output_mode@?$basic_filebuf@GV?$char_traits@G@_STL@@@_STL@@AAE_NXZ" PURGE="0" COMMENT="" />
    <EXPORT ORDINAL="878" NAME="?_M_terminate_string@?$basic_string@DV?$char_traits@D@_STL@@V?$allocator@D@2@@_STL@@AAEXXZ" PURGE="0" COMMENT="" />
    <EXPORT ORDINAL="879" NAME="?_M_terminate_string@?$basic_string@GV?$char_traits@G@_STL@@V?$allocator@G@2@@_STL@@AAEXXZ" PURGE="0" COMMENT="" />
    <EXPORT ORDINAL="880" NAME="?_M_terminate_string_aux@?$basic_string@DV?$char_traits@D@_STL@@V?$allocator@D@2@@_STL@@AAEXABU__false_type@2@@Z" PURGE="4" COMMENT="" />
    <EXPORT ORDINAL="881" NAME="?_M_terminate_string_aux@?$basic_string@DV?$char_traits@D@_STL@@V?$allocator@D@2@@_STL@@AAEXABU__true_type@2@@Z" PURGE="4" COMMENT="" />
    <EXPORT ORDINAL="882" NAME="?_M_terminate_string_aux@?$basic_string@GV?$char_traits@G@_STL@@V?$allocator@G@2@@_STL@@AAEXABU__false_type@2@@Z" PURGE="4" COMMENT="" />
    <EXPORT ORDINAL="883" NAME="?_M_terminate_string_aux@?$basic_string@GV?$char_traits@G@_STL@@V?$allocator@G@2@@_STL@@AAEXABU__true_type@2@@Z" PURGE="4" COMMENT="" />
    <EXPORT ORDINAL="884" NAME="?_M_throw_bad_cast@_Locale_impl@_STL@@SAXXZ" PURGE="-1" COMMENT="" />
    <EXPORT ORDINAL="885" NAME="?_M_throw_failure@ios_base@_STL@@IAEXXZ" PURGE="-1" COMMENT="" />
    <EXPORT ORDINAL="886" NAME="?_M_throw_length_error@?$_String_base@DV?$allocator@D@_STL@@@_STL@@QBEXXZ" PURGE="0" COMMENT="" />
    <EXPORT ORDINAL="887" NAME="?_M_throw_length_error@?$_String_base@GV?$allocator@G@_STL@@@_STL@@QBEXXZ" PURGE="0" COMMENT="" />
    <EXPORT ORDINAL="888" NAME="?_M_throw_out_of_range@?$_String_base@DV?$allocator@D@_STL@@@_STL@@QBEXXZ" PURGE="0" COMMENT="" />
    <EXPORT ORDINAL="889" NAME="?_M_throw_out_of_range@?$_String_base@GV?$allocator@G@_STL@@@_STL@@QBEXXZ" PURGE="0" COMMENT="" />
    <EXPORT ORDINAL="890" NAME="?_M_throw_runtime_error@locale@_STL@@SAXPBD@Z" PURGE="-1" COMMENT="" />
    <EXPORT ORDINAL="891" NAME="?_M_truename@?$numpunct@D@_STL@@1V?$basic_string@DV?$char_traits@D@_STL@@V?$allocator@D@2@@2@A" PURGE="-1" COMMENT="" />
    <EXPORT ORDINAL="892" NAME="?_M_truename@?$numpunct@G@_STL@@1V?$basic_string@GV?$char_traits@G@_STL@@V?$allocator@G@2@@2@A" PURGE="-1" COMMENT="" />
    <EXPORT ORDINAL="893" NAME="?_M_underflow_aux@?$basic_filebuf@DV?$char_traits@D@_STL@@@_STL@@AAEHXZ" PURGE="0" COMMENT="" />
    <EXPORT ORDINAL="894" NAME="?_M_underflow_aux@?$basic_filebuf@GV?$char_traits@G@_STL@@@_STL@@AAEGXZ" PURGE="0" COMMENT="" />
    <EXPORT ORDINAL="895" NAME="?_M_unmap@_Filebuf_base@_STL@@QAEXPAXJ@Z" PURGE="8" COMMENT="" />
    <EXPORT ORDINAL="896" NAME="?_M_unshift@?$basic_filebuf@DV?$char_traits@D@_STL@@@_STL@@AAE_NXZ" PURGE="0" COMMENT="" />
    <EXPORT ORDINAL="897" NAME="?_M_unshift@?$basic_filebuf@GV?$char_traits@G@_STL@@@_STL@@AAE_NXZ" PURGE="0" COMMENT="" />
    <EXPORT ORDINAL="898" NAME="?_M_use_facet@locale@_STL@@QBEPAVfacet@12@ABVid@12@@Z" PURGE="4" COMMENT="" />
    <EXPORT ORDINAL="899" NAME="?_M_write@?$basic_filebuf@DV?$char_traits@D@_STL@@@_STL@@QAE_NPADH@Z" PURGE="8" COMMENT="" />
    <EXPORT ORDINAL="900" NAME="?_M_write@?$basic_filebuf@GV?$char_traits@G@_STL@@@_STL@@QAE_NPADH@Z" PURGE="8" COMMENT="" />
    <EXPORT ORDINAL="901" NAME="?_M_write@_Filebuf_base@_STL@@QAE_NPADH@Z" PURGE="8" COMMENT="" />
    <EXPORT ORDINAL="902" NAME="?_M_xsputnc@?$basic_streambuf@DV?$char_traits@D@_STL@@@_STL@@MAEHDH@Z" PURGE="8" COMMENT="" />
    <EXPORT ORDINAL="903" NAME="?_M_xsputnc@?$basic_streambuf@GV?$char_traits@G@_STL@@@_STL@@MAEHGH@Z" PURGE="8" COMMENT="" />
    <EXPORT ORDINAL="904" NAME="?_M_xsputnc@?$basic_stringbuf@DV?$char_traits@D@_STL@@V?$allocator@D@2@@_STL@@MAEHDH@Z" PURGE="8" COMMENT="" />
    <EXPORT ORDINAL="905" NAME="?_M_xsputnc@?$basic_stringbuf@GV?$char_traits@G@_STL@@V?$allocator@G@2@@_STL@@MAEHGH@Z" PURGE="8" COMMENT="" />
    <EXPORT ORDINAL="906" NAME="?_Message@?$__stl_debug_engine@_N@_STL@@SAXPBDZZ" PURGE="0" COMMENT="" />
    <EXPORT ORDINAL="907" NAME="?_Message_table@?$__stl_debug_engine@_N@_STL@@2PAPBDA" PURGE="-1" COMMENT="" />
    <EXPORT ORDINAL="908" NAME="?_Rebalance@?$_Rb_global@_N@_STL@@SAXPAU_Rb_tree_node_base@2@AAPAU32@@Z" PURGE="0" COMMENT="" />
    <EXPORT ORDINAL="909" NAME="?_Rebalance_for_erase@?$_Rb_global@_N@_STL@@SAPAU_Rb_tree_node_base@2@PAU32@AAPAU32@11@Z" PURGE="0" COMMENT="" />
    <EXPORT ORDINAL="910" NAME="?_Rotate_left@?$_Rb_global@_N@_STL@@SAXPAU_Rb_tree_node_base@2@AAPAU32@@Z" PURGE="0" COMMENT="" />
    <EXPORT ORDINAL="911" NAME="?_Rotate_right@?$_Rb_global@_N@_STL@@SAXPAU_Rb_tree_node_base@2@AAPAU32@@Z" PURGE="0" COMMENT="" />
    <EXPORT ORDINAL="912" NAME="?_S_chunk_alloc@?$__node_alloc@$00$0A@@_STL@@CAPADIAAH@Z" PURGE="0" COMMENT="" />
    <EXPORT ORDINAL="913" NAME="?_S_classic_table@?$ctype@D@_STL@@0QBW4mask@ctype_base@2@B" PURGE="-1" COMMENT="" />
    <EXPORT ORDINAL="914" NAME="?_S_count@Init@ios_base@_STL@@0JA" PURGE="-1" COMMENT="" />
    <EXPORT ORDINAL="915" NAME="?_S_count@_Loc_init@ios_base@_STL@@0JA" PURGE="-1" COMMENT="" />
    <EXPORT ORDINAL="916" NAME="?_S_end_free@?$__node_alloc@$00$0A@@_STL@@0PADA" PURGE="-1" COMMENT="" />
    <EXPORT ORDINAL="917" NAME="?_S_eof@?$basic_ios@DV?$char_traits@D@_STL@@@_STL@@SA_NH@Z" PURGE="0" COMMENT="" />
    <EXPORT ORDINAL="918" NAME="?_S_eof@?$basic_ios@GV?$char_traits@G@_STL@@@_STL@@SA_NG@Z" PURGE="0" COMMENT="" />
    <EXPORT ORDINAL="919" NAME="?_S_free_list@?$__node_alloc@$00$0A@@_STL@@0RCRAV_Node_alloc_obj@2@C" PURGE="-1" COMMENT="" />
    <EXPORT ORDINAL="920" NAME="?_S_heap_size@?$__node_alloc@$00$0A@@_STL@@0IA" PURGE="-1" COMMENT="" />
    <EXPORT ORDINAL="921" NAME="?_S_index@ios_base@_STL@@0HA" PURGE="-1" COMMENT="" />
    <EXPORT ORDINAL="922" NAME="?_S_initialize@ios_base@_STL@@KAXXZ" PURGE="0" COMMENT="" />
    <EXPORT ORDINAL="923" NAME="?_S_initialize@locale@_STL@@SAXXZ" PURGE="0" COMMENT="" />
    <EXPORT ORDINAL="924" NAME="?_S_lower@?$ctype@D@_STL@@0QBEB" PURGE="-1" COMMENT="" />
    <EXPORT ORDINAL="925" NAME="?_S_max@id@locale@_STL@@2IA" PURGE="-1" COMMENT="" />
    <EXPORT ORDINAL="926" NAME="?_S_oom_malloc@?$__malloc_alloc@$0A@@_STL@@CAPAXI@Z" PURGE="0" COMMENT="" />
    <EXPORT ORDINAL="927" NAME="?_S_refill@?$__node_alloc@$00$0A@@_STL@@CAPAXI@Z" PURGE="0" COMMENT="" />
    <EXPORT ORDINAL="928" NAME="?_S_round_up@?$__node_alloc@$00$0A@@_STL@@SAII@Z" PURGE="0" COMMENT="" />
    <EXPORT ORDINAL="929" NAME="?_S_start_free@?$__node_alloc@$00$0A@@_STL@@0PADA" PURGE="-1" COMMENT="" />
    <EXPORT ORDINAL="930" NAME="?_S_uninitialize@ios_base@_STL@@KAXXZ" PURGE="0" COMMENT="" />
    <EXPORT ORDINAL="931" NAME="?_S_uninitialize@locale@_STL@@SAXXZ" PURGE="-1" COMMENT="" />
    <EXPORT ORDINAL="932" NAME="?_S_upper@?$ctype@D@_STL@@0QBEB" PURGE="-1" COMMENT="" />
    <EXPORT ORDINAL="933" NAME="?_S_was_synced@ios_base@_STL@@1_NA" PURGE="-1" COMMENT="" />
    <EXPORT ORDINAL="934" NAME="?_Terminate@?$__stl_debug_engine@_N@_STL@@SAXXZ" PURGE="0" COMMENT="" />
    <EXPORT ORDINAL="935" NAME="?_Transfer@?$_List_global@_N@_STL@@SAXPAU_List_node_base@2@00@Z" PURGE="0" COMMENT="" />
    <EXPORT ORDINAL="936" NAME="?_VerboseAssert@?$__stl_debug_engine@_N@_STL@@SAXPBDH0H@Z" PURGE="0" COMMENT="" />
    <EXPORT ORDINAL="937" NAME="?__extra_after_chunk@?$__debug_alloc@V?$__malloc_alloc@$0A@@_STL@@@_STL@@CAIXZ" PURGE="0" COMMENT="" />
    <EXPORT ORDINAL="938" NAME="?__extra_after_chunk@?$__debug_alloc@V?$__node_alloc@$00$0A@@_STL@@@_STL@@CAIXZ" PURGE="0" COMMENT="" />
    <EXPORT ORDINAL="939" NAME="?__extra_after_chunk@?$__debug_alloc@V__new_alloc@_STL@@@_STL@@CAIXZ" PURGE="0" COMMENT="" />
    <EXPORT ORDINAL="940" NAME="?__extra_before_chunk@?$__debug_alloc@V?$__malloc_alloc@$0A@@_STL@@@_STL@@CAIXZ" PURGE="0" COMMENT="" />
    <EXPORT ORDINAL="941" NAME="?__extra_before_chunk@?$__debug_alloc@V?$__node_alloc@$00$0A@@_STL@@@_STL@@CAIXZ" PURGE="0" COMMENT="" />
    <EXPORT ORDINAL="942" NAME="?__extra_before_chunk@?$__debug_alloc@V__new_alloc@_STL@@@_STL@@CAIXZ" PURGE="0" COMMENT="" />
    <EXPORT ORDINAL="943" NAME="?__get_c_string@_STL@@YAPBDABV?$basic_string@DV?$char_traits@D@_STL@@V?$allocator@D@2@@1@@Z" PURGE="0" COMMENT="" />
    <EXPORT ORDINAL="944" NAME="?__get_fd@_Filebuf_base@_STL@@QBEPAXXZ" PURGE="0" COMMENT="" />
    <EXPORT ORDINAL="945" NAME="?__is_open@_Filebuf_base@_STL@@QBE_NXZ" PURGE="0" COMMENT="" />
    <EXPORT ORDINAL="946" NAME="?__o_mode@_Filebuf_base@_STL@@QBEHXZ" PURGE="0" COMMENT="" />
    <EXPORT ORDINAL="947" NAME="?__oom_handler@?$__malloc_alloc@$0A@@_STL@@0P6AXXZA" PURGE="-1" COMMENT="" />
    <EXPORT ORDINAL="948" NAME="?__page_size@_Filebuf_base@_STL@@SAIXZ" PURGE="0" COMMENT="" />
    <EXPORT ORDINAL="949" NAME="?__previous@?$_Sl_global@_N@_STL@@SAPAU_Slist_node_base@2@PAU32@PBU32@@Z" PURGE="0" COMMENT="" />
    <EXPORT ORDINAL="950" NAME="?__previous@?$_Sl_global@_N@_STL@@SAPBU_Slist_node_base@2@PBU32@0@Z" PURGE="0" COMMENT="" />
    <EXPORT ORDINAL="951" NAME="?__regular_file@_Filebuf_base@_STL@@QBE_NXZ" PURGE="0" COMMENT="" />
    <EXPORT ORDINAL="952" NAME="?__reverse@?$_Sl_global@_N@_STL@@SAPAU_Slist_node_base@2@PAU32@@Z" PURGE="0" COMMENT="" />
    <EXPORT ORDINAL="953" NAME="?__should_close@_Filebuf_base@_STL@@QBE_NXZ" PURGE="0" COMMENT="" />
    <EXPORT ORDINAL="954" NAME="?__splice_after@?$_Sl_global@_N@_STL@@SAXPAU_Slist_node_base@2@00@Z" PURGE="0" COMMENT="" />
    <EXPORT ORDINAL="955" NAME="?__splice_after@?$_Sl_global@_N@_STL@@SAXPAU_Slist_node_base@2@0@Z" PURGE="0" COMMENT="" />
    <EXPORT ORDINAL="956" NAME="?__stl_throw_invalid_argument@_STL@@YAXPBD@Z" PURGE="0" COMMENT="" />
    <EXPORT ORDINAL="957" NAME="?__stl_throw_length_error@_STL@@YAXPBD@Z" PURGE="0" COMMENT="" />
    <EXPORT ORDINAL="958" NAME="?__stl_throw_out_of_range@_STL@@YAXPBD@Z" PURGE="0" COMMENT="" />
    <EXPORT ORDINAL="959" NAME="?__stl_throw_overflow_error@_STL@@YAXPBD@Z" PURGE="0" COMMENT="" />
    <EXPORT ORDINAL="960" NAME="?__stl_throw_range_error@_STL@@YAXPBD@Z" PURGE="0" COMMENT="" />
    <EXPORT ORDINAL="961" NAME="?_div@?$complex@M@_STL@@SAXABM000AAM1@Z" PURGE="0" COMMENT="" />
    <EXPORT ORDINAL="962" NAME="?_div@?$complex@M@_STL@@SAXABM00AAM1@Z" PURGE="0" COMMENT="" />
    <EXPORT ORDINAL="963" NAME="?_div@?$complex@N@_STL@@SAXABN000AAN1@Z" PURGE="0" COMMENT="" />
    <EXPORT ORDINAL="964" NAME="?_div@?$complex@N@_STL@@SAXABN00AAN1@Z" PURGE="0" COMMENT="" />
    <EXPORT ORDINAL="965" NAME="?_div@?$complex@O@_STL@@SAXABO000AAO1@Z" PURGE="0" COMMENT="" />
    <EXPORT ORDINAL="966" NAME="?_div@?$complex@O@_STL@@SAXABO00AAO1@Z" PURGE="0" COMMENT="" />
    <EXPORT ORDINAL="967" NAME="?address@?$allocator@D@_STL@@QAEPADAAD@Z" PURGE="4" COMMENT="" />
    <EXPORT ORDINAL="968" NAME="?address@?$allocator@D@_STL@@QBEPBDABD@Z" PURGE="4" COMMENT="" />
    <EXPORT ORDINAL="969" NAME="?address@?$allocator@G@_STL@@QAEPAGAAG@Z" PURGE="4" COMMENT="" />
    <EXPORT ORDINAL="970" NAME="?address@?$allocator@G@_STL@@QBEPBGABG@Z" PURGE="4" COMMENT="" />
    <EXPORT ORDINAL="971" NAME="?address@?$allocator@PAX@_STL@@QAEPAPAXAAPAX@Z" PURGE="4" COMMENT="" />
    <EXPORT ORDINAL="972" NAME="?address@?$allocator@PAX@_STL@@QBEPBQAXABQAX@Z" PURGE="4" COMMENT="" />
    <EXPORT ORDINAL="973" NAME="?allocate@?$__debug_alloc@V?$__malloc_alloc@$0A@@_STL@@@_STL@@SAPAXI@Z" PURGE="0" COMMENT="" />
    <EXPORT ORDINAL="974" NAME="?allocate@?$__debug_alloc@V?$__node_alloc@$00$0A@@_STL@@@_STL@@SAPAXI@Z" PURGE="0" COMMENT="" />
    <EXPORT ORDINAL="975" NAME="?allocate@?$__debug_alloc@V__new_alloc@_STL@@@_STL@@SAPAXI@Z" PURGE="0" COMMENT="" />
    <EXPORT ORDINAL="976" NAME="?allocate@?$__malloc_alloc@$0A@@_STL@@SAPAXI@Z" PURGE="0" COMMENT="" />
    <EXPORT ORDINAL="977" NAME="?allocate@?$__node_alloc@$00$0A@@_STL@@SAPAXI@Z" PURGE="0" COMMENT="" />
    <EXPORT ORDINAL="978" NAME="?allocate@?$allocator@D@_STL@@QBEPADIPBX@Z" PURGE="8" COMMENT="" />
    <EXPORT ORDINAL="979" NAME="?allocate@?$allocator@G@_STL@@QBEPAGIPBX@Z" PURGE="8" COMMENT="" />
    <EXPORT ORDINAL="980" NAME="?allocate@?$allocator@PAX@_STL@@QBEPAPAXIPBX@Z" PURGE="8" COMMENT="" />
    <EXPORT ORDINAL="981" NAME="?allocate@__new_alloc@_STL@@SAPAXI@Z" PURGE="-1" COMMENT="" />
    <EXPORT ORDINAL="982" NAME="?always_noconv@?$codecvt@DDH@_STL@@QBE_NXZ" PURGE="-1" COMMENT="" />
    <EXPORT ORDINAL="983" NAME="?always_noconv@?$codecvt@GDH@_STL@@QBE_NXZ" PURGE="-1" COMMENT="" />
    <EXPORT ORDINAL="984" NAME="?append@?$basic_string@DV?$char_traits@D@_STL@@V?$allocator@D@2@@_STL@@QAEAAV12@ABV12@@Z" PURGE="4" COMMENT="" />
    <EXPORT ORDINAL="985" NAME="?append@?$basic_string@DV?$char_traits@D@_STL@@V?$allocator@D@2@@_STL@@QAEAAV12@ABV12@II@Z" PURGE="12" COMMENT="" />
    <EXPORT ORDINAL="986" NAME="?append@?$basic_string@DV?$char_traits@D@_STL@@V?$allocator@D@2@@_STL@@QAEAAV12@ID@Z" PURGE="8" COMMENT="" />
    <EXPORT ORDINAL="987" NAME="?append@?$basic_string@DV?$char_traits@D@_STL@@V?$allocator@D@2@@_STL@@QAEAAV12@PBD@Z" PURGE="4" COMMENT="" />
    <EXPORT ORDINAL="988" NAME="?append@?$basic_string@DV?$char_traits@D@_STL@@V?$allocator@D@2@@_STL@@QAEAAV12@PBDI@Z" PURGE="8" COMMENT="" />
    <EXPORT ORDINAL="989" NAME="?append@?$basic_string@GV?$char_traits@G@_STL@@V?$allocator@G@2@@_STL@@QAEAAV12@ABV12@@Z" PURGE="4" COMMENT="" />
    <EXPORT ORDINAL="990" NAME="?append@?$basic_string@GV?$char_traits@G@_STL@@V?$allocator@G@2@@_STL@@QAEAAV12@ABV12@II@Z" PURGE="12" COMMENT="" />
    <EXPORT ORDINAL="991" NAME="?append@?$basic_string@GV?$char_traits@G@_STL@@V?$allocator@G@2@@_STL@@QAEAAV12@IG@Z" PURGE="8" COMMENT="" />
    <EXPORT ORDINAL="992" NAME="?append@?$basic_string@GV?$char_traits@G@_STL@@V?$allocator@G@2@@_STL@@QAEAAV12@PBG@Z" PURGE="4" COMMENT="" />
    <EXPORT ORDINAL="993" NAME="?append@?$basic_string@GV?$char_traits@G@_STL@@V?$allocator@G@2@@_STL@@QAEAAV12@PBGI@Z" PURGE="8" COMMENT="" />
    <EXPORT ORDINAL="994" NAME="?assign@?$__char_traits_base@DH@_STL@@SAPADPADID@Z" PURGE="0" COMMENT="" />
    <EXPORT ORDINAL="995" NAME="?assign@?$__char_traits_base@DH@_STL@@SAXAADABD@Z" PURGE="0" COMMENT="" />
    <EXPORT ORDINAL="996" NAME="?assign@?$__char_traits_base@GG@_STL@@SAPAGPAGIG@Z" PURGE="0" COMMENT="" />
    <EXPORT ORDINAL="997" NAME="?assign@?$__char_traits_base@GG@_STL@@SAXAAGABG@Z" PURGE="0" COMMENT="" />
    <EXPORT ORDINAL="998" NAME="?assign@?$basic_string@DV?$char_traits@D@_STL@@V?$allocator@D@2@@_STL@@QAEAAV12@ABV12@@Z" PURGE="4" COMMENT="" />
    <EXPORT ORDINAL="999" NAME="?assign@?$basic_string@DV?$char_traits@D@_STL@@V?$allocator@D@2@@_STL@@QAEAAV12@ABV12@II@Z" PURGE="12" COMMENT="" />
    <EXPORT ORDINAL="1000" NAME="?assign@?$basic_string@DV?$char_traits@D@_STL@@V?$allocator@D@2@@_STL@@QAEAAV12@ID@Z" PURGE="8" COMMENT="" />
    <EXPORT ORDINAL="1001" NAME="?assign@?$basic_string@DV?$char_traits@D@_STL@@V?$allocator@D@2@@_STL@@QAEAAV12@PBD0@Z" PURGE="8" COMMENT="" />
    <EXPORT ORDINAL="1002" NAME="?assign@?$basic_string@DV?$char_traits@D@_STL@@V?$allocator@D@2@@_STL@@QAEAAV12@PBD@Z" PURGE="4" COMMENT="" />
    <EXPORT ORDINAL="1003" NAME="?assign@?$basic_string@DV?$char_traits@D@_STL@@V?$allocator@D@2@@_STL@@QAEAAV12@PBDI@Z" PURGE="8" COMMENT="" />
    <EXPORT ORDINAL="1004" NAME="?assign@?$basic_string@GV?$char_traits@G@_STL@@V?$allocator@G@2@@_STL@@QAEAAV12@ABV12@@Z" PURGE="4" COMMENT="" />
    <EXPORT ORDINAL="1005" NAME="?assign@?$basic_string@GV?$char_traits@G@_STL@@V?$allocator@G@2@@_STL@@QAEAAV12@ABV12@II@Z" PURGE="12" COMMENT="" />
    <EXPORT ORDINAL="1006" NAME="?assign@?$basic_string@GV?$char_traits@G@_STL@@V?$allocator@G@2@@_STL@@QAEAAV12@IG@Z" PURGE="8" COMMENT="" />
    <EXPORT ORDINAL="1007" NAME="?assign@?$basic_string@GV?$char_traits@G@_STL@@V?$allocator@G@2@@_STL@@QAEAAV12@PBG0@Z" PURGE="8" COMMENT="" />
    <EXPORT ORDINAL="1008" NAME="?assign@?$basic_string@GV?$char_traits@G@_STL@@V?$allocator@G@2@@_STL@@QAEAAV12@PBG@Z" PURGE="4" COMMENT="" />
    <EXPORT ORDINAL="1009" NAME="?assign@?$basic_string@GV?$char_traits@G@_STL@@V?$allocator@G@2@@_STL@@QAEAAV12@PBGI@Z" PURGE="8" COMMENT="" />
    <EXPORT ORDINAL="1010" NAME="?assign@?$char_traits@D@_STL@@SAPADPADID@Z" PURGE="0" COMMENT="" />
    <EXPORT ORDINAL="1011" NAME="?assign@?$char_traits@D@_STL@@SAXAADABD@Z" PURGE="0" COMMENT="" />
    <EXPORT ORDINAL="1012" NAME="?assign@?$vector@PAXV?$allocator@PAX@_STL@@@_STL@@QAEXIABQAX@Z" PURGE="8" COMMENT="" />
    <EXPORT ORDINAL="1013" NAME="?at@?$basic_string@DV?$char_traits@D@_STL@@V?$allocator@D@2@@_STL@@QAEAADI@Z" PURGE="4" COMMENT="" />
    <EXPORT ORDINAL="1014" NAME="?at@?$basic_string@DV?$char_traits@D@_STL@@V?$allocator@D@2@@_STL@@QBEABDI@Z" PURGE="4" COMMENT="" />
    <EXPORT ORDINAL="1015" NAME="?at@?$basic_string@GV?$char_traits@G@_STL@@V?$allocator@G@2@@_STL@@QAEAAGI@Z" PURGE="4" COMMENT="" />
    <EXPORT ORDINAL="1016" NAME="?at@?$basic_string@GV?$char_traits@G@_STL@@V?$allocator@G@2@@_STL@@QBEABGI@Z" PURGE="4" COMMENT="" />
    <EXPORT ORDINAL="1017" NAME="?at@?$vector@PAXV?$allocator@PAX@_STL@@@_STL@@QAEAAPAXI@Z" PURGE="4" COMMENT="" />
    <EXPORT ORDINAL="1018" NAME="?at@?$vector@PAXV?$allocator@PAX@_STL@@@_STL@@QBEABQAXI@Z" PURGE="4" COMMENT="" />
    <EXPORT ORDINAL="1019" NAME="?back@?$vector@PAXV?$allocator@PAX@_STL@@@_STL@@QAEAAPAXXZ" PURGE="0" COMMENT="" />
    <EXPORT ORDINAL="1020" NAME="?back@?$vector@PAXV?$allocator@PAX@_STL@@@_STL@@QBEABQAXXZ" PURGE="0" COMMENT="" />
    <EXPORT ORDINAL="1021" NAME="?bad@ios_base@_STL@@QBE_NXZ" PURGE="0" COMMENT="" />
    <EXPORT ORDINAL="1022" NAME="?begin@?$basic_string@DV?$char_traits@D@_STL@@V?$allocator@D@2@@_STL@@QAEPADXZ" PURGE="0" COMMENT="" />
    <EXPORT ORDINAL="1023" NAME="?begin@?$basic_string@DV?$char_traits@D@_STL@@V?$allocator@D@2@@_STL@@QBEPBDXZ" PURGE="0" COMMENT="" />
    <EXPORT ORDINAL="1024" NAME="?begin@?$basic_string@GV?$char_traits@G@_STL@@V?$allocator@G@2@@_STL@@QAEPAGXZ" PURGE="0" COMMENT="" />
    <EXPORT ORDINAL="1025" NAME="?begin@?$basic_string@GV?$char_traits@G@_STL@@V?$allocator@G@2@@_STL@@QBEPBGXZ" PURGE="0" COMMENT="" />
    <EXPORT ORDINAL="1026" NAME="?begin@?$vector@PAXV?$allocator@PAX@_STL@@@_STL@@QAEPAPAXXZ" PURGE="0" COMMENT="" />
    <EXPORT ORDINAL="1027" NAME="?begin@?$vector@PAXV?$allocator@PAX@_STL@@@_STL@@QBEPBQAXXZ" PURGE="0" COMMENT="" />
    <EXPORT ORDINAL="1028" NAME="?c_str@?$basic_string@DV?$char_traits@D@_STL@@V?$allocator@D@2@@_STL@@QBEPBDXZ" PURGE="0" COMMENT="" />
    <EXPORT ORDINAL="1029" NAME="?c_str@?$basic_string@GV?$char_traits@G@_STL@@V?$allocator@G@2@@_STL@@QBEPBGXZ" PURGE="0" COMMENT="" />
    <EXPORT ORDINAL="1030" NAME="?capacity@?$basic_string@DV?$char_traits@D@_STL@@V?$allocator@D@2@@_STL@@QBEIXZ" PURGE="0" COMMENT="" />
    <EXPORT ORDINAL="1031" NAME="?capacity@?$basic_string@GV?$char_traits@G@_STL@@V?$allocator@G@2@@_STL@@QBEIXZ" PURGE="0" COMMENT="" />
    <EXPORT ORDINAL="1032" NAME="?capacity@?$vector@PAXV?$allocator@PAX@_STL@@@_STL@@QBEIXZ" PURGE="0" COMMENT="" />
    <EXPORT ORDINAL="1033" NAME="?cerr@_STL@@3V?$basic_ostream@DV?$char_traits@D@_STL@@@1@A" PURGE="-1" COMMENT="" />
    <EXPORT ORDINAL="1034" NAME="?cin@_STL@@3V?$basic_istream@DV?$char_traits@D@_STL@@@1@A" PURGE="-1" COMMENT="" />
    <EXPORT ORDINAL="1035" NAME="?classic@locale@_STL@@SAABV12@XZ" PURGE="0" COMMENT="" />
    <EXPORT ORDINAL="1036" NAME="?classic_table@?$ctype@D@_STL@@KAPBW4mask@ctype_base@2@XZ" PURGE="0" COMMENT="" />
    <EXPORT ORDINAL="1037" NAME="?clear@?$basic_ios@DV?$char_traits@D@_STL@@@_STL@@QAEXH@Z" PURGE="4" COMMENT="" />
    <EXPORT ORDINAL="1038" NAME="?clear@?$basic_ios@GV?$char_traits@G@_STL@@@_STL@@QAEXH@Z" PURGE="4" COMMENT="" />
    <EXPORT ORDINAL="1039" NAME="?clear@?$basic_string@DV?$char_traits@D@_STL@@V?$allocator@D@2@@_STL@@QAEXXZ" PURGE="0" COMMENT="" />
    <EXPORT ORDINAL="1040" NAME="?clear@?$basic_string@GV?$char_traits@G@_STL@@V?$allocator@G@2@@_STL@@QAEXXZ" PURGE="0" COMMENT="" />
    <EXPORT ORDINAL="1041" NAME="?clear@?$vector@PAXV?$allocator@PAX@_STL@@@_STL@@QAEXXZ" PURGE="0" COMMENT="" />
    <EXPORT ORDINAL="1042" NAME="?clog@_STL@@3V?$basic_ostream@DV?$char_traits@D@_STL@@@1@A" PURGE="-1" COMMENT="" />
    <EXPORT ORDINAL="1043" NAME="?close@?$basic_filebuf@DV?$char_traits@D@_STL@@@_STL@@QAEPAV12@XZ" PURGE="0" COMMENT="" />
    <EXPORT ORDINAL="1044" NAME="?close@?$basic_filebuf@GV?$char_traits@G@_STL@@@_STL@@QAEPAV12@XZ" PURGE="0" COMMENT="" />
    <EXPORT ORDINAL="1045" NAME="?close@?$basic_fstream@DV?$char_traits@D@_STL@@@_STL@@QAEXXZ" PURGE="0" COMMENT="" />
    <EXPORT ORDINAL="1046" NAME="?close@?$basic_fstream@GV?$char_traits@G@_STL@@@_STL@@QAEXXZ" PURGE="0" COMMENT="" />
    <EXPORT ORDINAL="1047" NAME="?close@?$basic_ifstream@DV?$char_traits@D@_STL@@@_STL@@QAEXXZ" PURGE="0" COMMENT="" />
    <EXPORT ORDINAL="1048" NAME="?close@?$basic_ifstream@GV?$char_traits@G@_STL@@@_STL@@QAEXXZ" PURGE="0" COMMENT="" />
    <EXPORT ORDINAL="1049" NAME="?close@?$basic_ofstream@DV?$char_traits@D@_STL@@@_STL@@QAEXXZ" PURGE="0" COMMENT="" />
    <EXPORT ORDINAL="1050" NAME="?close@?$basic_ofstream@GV?$char_traits@G@_STL@@@_STL@@QAEXXZ" PURGE="0" COMMENT="" />
    <EXPORT ORDINAL="1051" NAME="?close@?$messages@D@_STL@@QBEXH@Z" PURGE="-1" COMMENT="" />
    <EXPORT ORDINAL="1052" NAME="?close@?$messages@G@_STL@@QBEXH@Z" PURGE="-1" COMMENT="" />
    <EXPORT ORDINAL="1053" NAME="?compare@?$__char_traits_base@DH@_STL@@SAHPBD0I@Z" PURGE="0" COMMENT="" />
    <EXPORT ORDINAL="1054" NAME="?compare@?$__char_traits_base@GG@_STL@@SAHPBG0I@Z" PURGE="0" COMMENT="" />
    <EXPORT ORDINAL="1055" NAME="?compare@?$basic_string@DV?$char_traits@D@_STL@@V?$allocator@D@2@@_STL@@QBEHABV12@@Z" PURGE="4" COMMENT="" />
    <EXPORT ORDINAL="1056" NAME="?compare@?$basic_string@DV?$char_traits@D@_STL@@V?$allocator@D@2@@_STL@@QBEHIIABV12@@Z" PURGE="12" COMMENT="" />
    <EXPORT ORDINAL="1057" NAME="?compare@?$basic_string@DV?$char_traits@D@_STL@@V?$allocator@D@2@@_STL@@QBEHIIABV12@II@Z" PURGE="20" COMMENT="" />
    <EXPORT ORDINAL="1058" NAME="?compare@?$basic_string@DV?$char_traits@D@_STL@@V?$allocator@D@2@@_STL@@QBEHIIPBD@Z" PURGE="12" COMMENT="" />
    <EXPORT ORDINAL="1059" NAME="?compare@?$basic_string@DV?$char_traits@D@_STL@@V?$allocator@D@2@@_STL@@QBEHIIPBDI@Z" PURGE="16" COMMENT="" />
    <EXPORT ORDINAL="1060" NAME="?compare@?$basic_string@DV?$char_traits@D@_STL@@V?$allocator@D@2@@_STL@@QBEHPBD@Z" PURGE="4" COMMENT="" />
    <EXPORT ORDINAL="1061" NAME="?compare@?$basic_string@GV?$char_traits@G@_STL@@V?$allocator@G@2@@_STL@@QBEHABV12@@Z" PURGE="4" COMMENT="" />
    <EXPORT ORDINAL="1062" NAME="?compare@?$basic_string@GV?$char_traits@G@_STL@@V?$allocator@G@2@@_STL@@QBEHIIABV12@@Z" PURGE="12" COMMENT="" />
    <EXPORT ORDINAL="1063" NAME="?compare@?$basic_string@GV?$char_traits@G@_STL@@V?$allocator@G@2@@_STL@@QBEHIIABV12@II@Z" PURGE="20" COMMENT="" />
    <EXPORT ORDINAL="1064" NAME="?compare@?$basic_string@GV?$char_traits@G@_STL@@V?$allocator@G@2@@_STL@@QBEHIIPBG@Z" PURGE="12" COMMENT="" />
    <EXPORT ORDINAL="1065" NAME="?compare@?$basic_string@GV?$char_traits@G@_STL@@V?$allocator@G@2@@_STL@@QBEHIIPBGI@Z" PURGE="16" COMMENT="" />
    <EXPORT ORDINAL="1066" NAME="?compare@?$basic_string@GV?$char_traits@G@_STL@@V?$allocator@G@2@@_STL@@QBEHPBG@Z" PURGE="4" COMMENT="" />
    <EXPORT ORDINAL="1067" NAME="?compare@?$char_traits@D@_STL@@SAHPBD0I@Z" PURGE="0" COMMENT="" />
    <EXPORT ORDINAL="1068" NAME="?compare@?$collate@D@_STL@@QBEHPBD000@Z" PURGE="-1" COMMENT="" />
    <EXPORT ORDINAL="1069" NAME="?compare@?$collate@G@_STL@@QBEHPBG000@Z" PURGE="-1" COMMENT="" />
    <EXPORT ORDINAL="1070" NAME="?construct@?$allocator@D@_STL@@QBEXPADABD@Z" PURGE="8" COMMENT="" />
    <EXPORT ORDINAL="1071" NAME="?construct@?$allocator@G@_STL@@QBEXPAGABG@Z" PURGE="8" COMMENT="" />
    <EXPORT ORDINAL="1072" NAME="?construct@?$allocator@PAX@_STL@@QBEXPAPAXABQAX@Z" PURGE="8" COMMENT="" />
    <EXPORT ORDINAL="1073" NAME="?copy@?$__char_traits_base@DH@_STL@@SAPADPADPBDI@Z" PURGE="0" COMMENT="" />
    <EXPORT ORDINAL="1074" NAME="?copy@?$__char_traits_base@GG@_STL@@SAPAGPAGPBGI@Z" PURGE="0" COMMENT="" />
    <EXPORT ORDINAL="1075" NAME="?copy@?$basic_string@DV?$char_traits@D@_STL@@V?$allocator@D@2@@_STL@@QBEIPADII@Z" PURGE="12" COMMENT="" />
    <EXPORT ORDINAL="1076" NAME="?copy@?$basic_string@GV?$char_traits@G@_STL@@V?$allocator@G@2@@_STL@@QBEIPAGII@Z" PURGE="12" COMMENT="" />
    <EXPORT ORDINAL="1077" NAME="?copyfmt@?$basic_ios@DV?$char_traits@D@_STL@@@_STL@@QAEAAV12@ABV12@@Z" PURGE="4" COMMENT="" />
    <EXPORT ORDINAL="1078" NAME="?copyfmt@?$basic_ios@GV?$char_traits@G@_STL@@@_STL@@QAEAAV12@ABV12@@Z" PURGE="4" COMMENT="" />
    <EXPORT ORDINAL="1079" NAME="?cos@_STL@@YA?AU?$complex@M@1@ABU21@@Z" PURGE="0" COMMENT="" />
    <EXPORT ORDINAL="1080" NAME="?cos@_STL@@YA?AU?$complex@N@1@ABU21@@Z" PURGE="0" COMMENT="" />
    <EXPORT ORDINAL="1081" NAME="?cos@_STL@@YA?AU?$complex@O@1@ABU21@@Z" PURGE="0" COMMENT="" />
    <EXPORT ORDINAL="1082" NAME="?cosh@_STL@@YA?AU?$complex@M@1@ABU21@@Z" PURGE="0" COMMENT="" />
    <EXPORT ORDINAL="1083" NAME="?cosh@_STL@@YA?AU?$complex@N@1@ABU21@@Z" PURGE="0" COMMENT="" />
    <EXPORT ORDINAL="1084" NAME="?cosh@_STL@@YA?AU?$complex@O@1@ABU21@@Z" PURGE="0" COMMENT="" />
    <EXPORT ORDINAL="1085" NAME="?cout@_STL@@3V?$basic_ostream@DV?$char_traits@D@_STL@@@1@A" PURGE="-1" COMMENT="" />
    <EXPORT ORDINAL="1086" NAME="?curr_symbol@?$moneypunct@D$00@_STL@@QBE?AV?$basic_string@DV?$char_traits@D@_STL@@V?$allocator@D@2@@2@XZ" PURGE="4" COMMENT="" />
    <EXPORT ORDINAL="1087" NAME="?curr_symbol@?$moneypunct@D$0A@@_STL@@QBE?AV?$basic_string@DV?$char_traits@D@_STL@@V?$allocator@D@2@@2@XZ" PURGE="4" COMMENT="" />
    <EXPORT ORDINAL="1088" NAME="?curr_symbol@?$moneypunct@G$00@_STL@@QBE?AV?$basic_string@GV?$char_traits@G@_STL@@V?$allocator@G@2@@2@XZ" PURGE="4" COMMENT="" />
    <EXPORT ORDINAL="1089" NAME="?curr_symbol@?$moneypunct@G$0A@@_STL@@QBE?AV?$basic_string@GV?$char_traits@G@_STL@@V?$allocator@G@2@@2@XZ" PURGE="4" COMMENT="" />
    <EXPORT ORDINAL="1090" NAME="?data@?$basic_string@DV?$char_traits@D@_STL@@V?$allocator@D@2@@_STL@@QBEPBDXZ" PURGE="0" COMMENT="" />
    <EXPORT ORDINAL="1091" NAME="?data@?$basic_string@GV?$char_traits@G@_STL@@V?$allocator@G@2@@_STL@@QBEPBGXZ" PURGE="0" COMMENT="" />
    <EXPORT ORDINAL="1092" NAME="?date_order@?$time_get@DV?$istreambuf_iterator@DV?$char_traits@D@_STL@@@_STL@@@_STL@@QBE?AW4dateorder@time_base@2@XZ" PURGE="-1" COMMENT="" />
    <EXPORT ORDINAL="1093" NAME="?date_order@?$time_get@GV?$istreambuf_iterator@GV?$char_traits@G@_STL@@@_STL@@@_STL@@QBE?AW4dateorder@time_base@2@XZ" PURGE="-1" COMMENT="" />
    <EXPORT ORDINAL="1094" NAME="?deallocate@?$__debug_alloc@V?$__malloc_alloc@$0A@@_STL@@@_STL@@SAXPAXI@Z" PURGE="0" COMMENT="" />
    <EXPORT ORDINAL="1095" NAME="?deallocate@?$__debug_alloc@V?$__node_alloc@$00$0A@@_STL@@@_STL@@SAXPAXI@Z" PURGE="0" COMMENT="" />
    <EXPORT ORDINAL="1096" NAME="?deallocate@?$__debug_alloc@V__new_alloc@_STL@@@_STL@@SAXPAXI@Z" PURGE="0" COMMENT="" />
    <EXPORT ORDINAL="1097" NAME="?deallocate@?$__malloc_alloc@$0A@@_STL@@SAXPAXI@Z" PURGE="0" COMMENT="" />
    <EXPORT ORDINAL="1098" NAME="?deallocate@?$__node_alloc@$00$0A@@_STL@@SAXPAXI@Z" PURGE="0" COMMENT="" />
    <EXPORT ORDINAL="1099" NAME="?deallocate@?$allocator@D@_STL@@QBEXPAD@Z" PURGE="4" COMMENT="" />
    <EXPORT ORDINAL="1100" NAME="?deallocate@?$allocator@D@_STL@@QBEXPADI@Z" PURGE="8" COMMENT="" />
    <EXPORT ORDINAL="1101" NAME="?deallocate@?$allocator@G@_STL@@QBEXPAG@Z" PURGE="4" COMMENT="" />
    <EXPORT ORDINAL="1102" NAME="?deallocate@?$allocator@G@_STL@@QBEXPAGI@Z" PURGE="8" COMMENT="" />
    <EXPORT ORDINAL="1103" NAME="?deallocate@?$allocator@PAX@_STL@@QBEXPAPAX@Z" PURGE="4" COMMENT="" />
    <EXPORT ORDINAL="1104" NAME="?deallocate@?$allocator@PAX@_STL@@QBEXPAPAXI@Z" PURGE="8" COMMENT="" />
    <EXPORT ORDINAL="1105" NAME="?deallocate@__new_alloc@_STL@@SAXPAXI@Z" PURGE="0" COMMENT="" />
    <EXPORT ORDINAL="1106" NAME="?decimal_point@?$moneypunct@D$00@_STL@@QBEDXZ" PURGE="-1" COMMENT="" />
    <EXPORT ORDINAL="1107" NAME="?decimal_point@?$moneypunct@D$0A@@_STL@@QBEDXZ" PURGE="-1" COMMENT="" />
    <EXPORT ORDINAL="1108" NAME="?decimal_point@?$moneypunct@G$00@_STL@@QBEGXZ" PURGE="-1" COMMENT="" />
    <EXPORT ORDINAL="1109" NAME="?decimal_point@?$moneypunct@G$0A@@_STL@@QBEGXZ" PURGE="-1" COMMENT="" />
    <EXPORT ORDINAL="1110" NAME="?decimal_point@?$numpunct@D@_STL@@QBEDXZ" PURGE="-1" COMMENT="" />
    <EXPORT ORDINAL="1111" NAME="?decimal_point@?$numpunct@G@_STL@@QBEGXZ" PURGE="-1" COMMENT="" />
    <EXPORT ORDINAL="1112" NAME="?decr@_Locale@_STL@@UAEXXZ" PURGE="0" COMMENT="" />
    <EXPORT ORDINAL="1113" NAME="?decr@_Locale_impl@_STL@@UAEXXZ" PURGE="0" COMMENT="" />
    <EXPORT ORDINAL="1114" NAME="?destroy@?$allocator@D@_STL@@QBEXPAD@Z" PURGE="4" COMMENT="" />
    <EXPORT ORDINAL="1115" NAME="?destroy@?$allocator@G@_STL@@QBEXPAG@Z" PURGE="4" COMMENT="" />
    <EXPORT ORDINAL="1116" NAME="?destroy@?$allocator@PAX@_STL@@QBEXPAPAX@Z" PURGE="4" COMMENT="" />
    <EXPORT ORDINAL="1117" NAME="?do_always_noconv@?$codecvt@DDH@_STL@@MBE_NXZ" PURGE="0" COMMENT="" />
    <EXPORT ORDINAL="1118" NAME="?do_always_noconv@?$codecvt@GDH@_STL@@MBE_NXZ" PURGE="0" COMMENT="" />
    <EXPORT ORDINAL="1119" NAME="?do_close@?$messages@D@_STL@@MBEXH@Z" PURGE="-1" COMMENT="" />
    <EXPORT ORDINAL="1120" NAME="?do_close@?$messages@G@_STL@@MBEXH@Z" PURGE="-1" COMMENT="" />
    <EXPORT ORDINAL="1121" NAME="?do_compare@?$collate@D@_STL@@MBEHPBD000@Z" PURGE="16" COMMENT="" />
    <EXPORT ORDINAL="1122" NAME="?do_compare@?$collate@G@_STL@@MBEHPBG000@Z" PURGE="16" COMMENT="" />
    <EXPORT ORDINAL="1123" NAME="?do_compare@?$collate_byname@D@_STL@@MBEHPBD000@Z" PURGE="16" COMMENT="" />
    <EXPORT ORDINAL="1124" NAME="?do_compare@?$collate_byname@G@_STL@@MBEHPBG000@Z" PURGE="16" COMMENT="" />
    <EXPORT ORDINAL="1125" NAME="?do_curr_symbol@?$moneypunct@D$00@_STL@@MBE?AV?$basic_string@DV?$char_traits@D@_STL@@V?$allocator@D@2@@2@XZ" PURGE="4" COMMENT="" />
    <EXPORT ORDINAL="1126" NAME="?do_curr_symbol@?$moneypunct@D$0A@@_STL@@MBE?AV?$basic_string@DV?$char_traits@D@_STL@@V?$allocator@D@2@@2@XZ" PURGE="4" COMMENT="" />
    <EXPORT ORDINAL="1127" NAME="?do_curr_symbol@?$moneypunct@G$00@_STL@@MBE?AV?$basic_string@GV?$char_traits@G@_STL@@V?$allocator@G@2@@2@XZ" PURGE="4" COMMENT="" />
    <EXPORT ORDINAL="1128" NAME="?do_curr_symbol@?$moneypunct@G$0A@@_STL@@MBE?AV?$basic_string@GV?$char_traits@G@_STL@@V?$allocator@G@2@@2@XZ" PURGE="4" COMMENT="" />
    <EXPORT ORDINAL="1129" NAME="?do_curr_symbol@?$moneypunct_byname@D$00@_STL@@MBE?AV?$basic_string@DV?$char_traits@D@_STL@@V?$allocator@D@2@@2@XZ" PURGE="4" COMMENT="" />
    <EXPORT ORDINAL="1130" NAME="?do_curr_symbol@?$moneypunct_byname@D$0A@@_STL@@MBE?AV?$basic_string@DV?$char_traits@D@_STL@@V?$allocator@D@2@@2@XZ" PURGE="4" COMMENT="" />
    <EXPORT ORDINAL="1131" NAME="?do_curr_symbol@?$moneypunct_byname@G$00@_STL@@MBE?AV?$basic_string@GV?$char_traits@G@_STL@@V?$allocator@G@2@@2@XZ" PURGE="4" COMMENT="" />
    <EXPORT ORDINAL="1132" NAME="?do_curr_symbol@?$moneypunct_byname@G$0A@@_STL@@MBE?AV?$basic_string@GV?$char_traits@G@_STL@@V?$allocator@G@2@@2@XZ" PURGE="4" COMMENT="" />
    <EXPORT ORDINAL="1133" NAME="?do_date_order@?$time_get@DV?$istreambuf_iterator@DV?$char_traits@D@_STL@@@_STL@@@_STL@@MBE?AW4dateorder@time_base@2@XZ" PURGE="0" COMMENT="" />
    <EXPORT ORDINAL="1134" NAME="?do_date_order@?$time_get@GV?$istreambuf_iterator@GV?$char_traits@G@_STL@@@_STL@@@_STL@@MBE?AW4dateorder@time_base@2@XZ" PURGE="0" COMMENT="" />
    <EXPORT ORDINAL="1135" NAME="?do_decimal_point@?$moneypunct@D$00@_STL@@MBEDXZ" PURGE="0" COMMENT="" />
    <EXPORT ORDINAL="1136" NAME="?do_decimal_point@?$moneypunct@D$0A@@_STL@@MBEDXZ" PURGE="0" COMMENT="" />
    <EXPORT ORDINAL="1137" NAME="?do_decimal_point@?$moneypunct@G$00@_STL@@MBEGXZ" PURGE="0" COMMENT="" />
    <EXPORT ORDINAL="1138" NAME="?do_decimal_point@?$moneypunct@G$0A@@_STL@@MBEGXZ" PURGE="0" COMMENT="" />
    <EXPORT ORDINAL="1139" NAME="?do_decimal_point@?$moneypunct_byname@D$00@_STL@@MBEDXZ" PURGE="0" COMMENT="" />
    <EXPORT ORDINAL="1140" NAME="?do_decimal_point@?$moneypunct_byname@D$0A@@_STL@@MBEDXZ" PURGE="0" COMMENT="" />
    <EXPORT ORDINAL="1141" NAME="?do_decimal_point@?$moneypunct_byname@G$00@_STL@@MBEGXZ" PURGE="0" COMMENT="" />
    <EXPORT ORDINAL="1142" NAME="?do_decimal_point@?$moneypunct_byname@G$0A@@_STL@@MBEGXZ" PURGE="0" COMMENT="" />
    <EXPORT ORDINAL="1143" NAME="?do_decimal_point@?$numpunct@D@_STL@@MBEDXZ" PURGE="0" COMMENT="" />
    <EXPORT ORDINAL="1144" NAME="?do_decimal_point@?$numpunct@G@_STL@@MBEGXZ" PURGE="0" COMMENT="" />
    <EXPORT ORDINAL="1145" NAME="?do_decimal_point@?$numpunct_byname@D@_STL@@MBEDXZ" PURGE="0" COMMENT="" />
    <EXPORT ORDINAL="1146" NAME="?do_decimal_point@?$numpunct_byname@G@_STL@@MBEGXZ" PURGE="0" COMMENT="" />
    <EXPORT ORDINAL="1147" NAME="?do_encoding@?$codecvt@DDH@_STL@@MBEHXZ" PURGE="0" COMMENT="" />
    <EXPORT ORDINAL="1148" NAME="?do_encoding@?$codecvt@GDH@_STL@@MBEHXZ" PURGE="0" COMMENT="" />
    <EXPORT ORDINAL="1149" NAME="?do_falsename@?$numpunct@D@_STL@@MBE?AV?$basic_string@DV?$char_traits@D@_STL@@V?$allocator@D@2@@2@XZ" PURGE="4" COMMENT="" />
    <EXPORT ORDINAL="1150" NAME="?do_falsename@?$numpunct@G@_STL@@MBE?AV?$basic_string@GV?$char_traits@G@_STL@@V?$allocator@G@2@@2@XZ" PURGE="4" COMMENT="" />
    <EXPORT ORDINAL="1151" NAME="?do_frac_digits@?$moneypunct@D$00@_STL@@MBEHXZ" PURGE="0" COMMENT="" />
    <EXPORT ORDINAL="1152" NAME="?do_frac_digits@?$moneypunct@D$0A@@_STL@@MBEHXZ" PURGE="0" COMMENT="" />
    <EXPORT ORDINAL="1153" NAME="?do_frac_digits@?$moneypunct@G$00@_STL@@MBEHXZ" PURGE="0" COMMENT="" />
    <EXPORT ORDINAL="1154" NAME="?do_frac_digits@?$moneypunct@G$0A@@_STL@@MBEHXZ" PURGE="0" COMMENT="" />
    <EXPORT ORDINAL="1155" NAME="?do_frac_digits@?$moneypunct_byname@D$00@_STL@@MBEHXZ" PURGE="0" COMMENT="" />
    <EXPORT ORDINAL="1156" NAME="?do_frac_digits@?$moneypunct_byname@D$0A@@_STL@@MBEHXZ" PURGE="0" COMMENT="" />
    <EXPORT ORDINAL="1157" NAME="?do_frac_digits@?$moneypunct_byname@G$00@_STL@@MBEHXZ" PURGE="0" COMMENT="" />
    <EXPORT ORDINAL="1158" NAME="?do_frac_digits@?$moneypunct_byname@G$0A@@_STL@@MBEHXZ" PURGE="0" COMMENT="" />
    <EXPORT ORDINAL="1159" NAME="?do_get@?$messages@D@_STL@@MBE?AV?$basic_string@DV?$char_traits@D@_STL@@V?$allocator@D@2@@2@HHHABV32@@Z" PURGE="20" COMMENT="" />
    <EXPORT ORDINAL="1160" NAME="?do_get@?$messages@G@_STL@@MBE?AV?$basic_string@GV?$char_traits@G@_STL@@V?$allocator@G@2@@2@HHHABV32@@Z" PURGE="20" COMMENT="" />
    <EXPORT ORDINAL="1161" NAME="?do_get@?$money_get@DV?$istreambuf_iterator@DV?$char_traits@D@_STL@@@_STL@@@_STL@@MBE?AV?$istreambuf_iterator@DV?$char_traits@D@_STL@@@2@V32@0_NAAVios_base@2@AAHAAO@Z" PURGE="36" COMMENT="" />
    <EXPORT ORDINAL="1162" NAME="?do_get@?$money_get@DV?$istreambuf_iterator@DV?$char_traits@D@_STL@@@_STL@@@_STL@@MBE?AV?$istreambuf_iterator@DV?$char_traits@D@_STL@@@2@V32@0_NAAVios_base@2@AAHAAV?$basic_string@DV?$char_traits@D@_STL@@V?$allocator@D@2@@2@@Z" PURGE="36" COMMENT="" />
    <EXPORT ORDINAL="1163" NAME="?do_get@?$money_get@GV?$istreambuf_iterator@GV?$char_traits@G@_STL@@@_STL@@@_STL@@MBE?AV?$istreambuf_iterator@GV?$char_traits@G@_STL@@@2@V32@0_NAAVios_base@2@AAHAAO@Z" PURGE="36" COMMENT="" />
    <EXPORT ORDINAL="1164" NAME="?do_get@?$money_get@GV?$istreambuf_iterator@GV?$char_traits@G@_STL@@@_STL@@@_STL@@MBE?AV?$istreambuf_iterator@GV?$char_traits@G@_STL@@@2@V32@0_NAAVios_base@2@AAHAAV?$basic_string@GV?$char_traits@G@_STL@@V?$allocator@G@2@@2@@Z" PURGE="36" COMMENT="" />
    <EXPORT ORDINAL="1165" NAME="?do_get@?$num_get@DV?$istreambuf_iterator@DV?$char_traits@D@_STL@@@_STL@@@_STL@@MBE?AV?$istreambuf_iterator@DV?$char_traits@D@_STL@@@2@V32@0AAVios_base@2@AAHAAG@Z" PURGE="32" COMMENT="" />
    <EXPORT ORDINAL="1166" NAME="?do_get@?$num_get@DV?$istreambuf_iterator@DV?$char_traits@D@_STL@@@_STL@@@_STL@@MBE?AV?$istreambuf_iterator@DV?$char_traits@D@_STL@@@2@V32@0AAVios_base@2@AAHAAI@Z" PURGE="32" COMMENT="" />
    <EXPORT ORDINAL="1167" NAME="?do_get@?$num_get@DV?$istreambuf_iterator@DV?$char_traits@D@_STL@@@_STL@@@_STL@@MBE?AV?$istreambuf_iterator@DV?$char_traits@D@_STL@@@2@V32@0AAVios_base@2@AAHAAJ@Z" PURGE="32" COMMENT="" />
    <EXPORT ORDINAL="1168" NAME="?do_get@?$num_get@DV?$istreambuf_iterator@DV?$char_traits@D@_STL@@@_STL@@@_STL@@MBE?AV?$istreambuf_iterator@DV?$char_traits@D@_STL@@@2@V32@0AAVios_base@2@AAHAAK@Z" PURGE="32" COMMENT="" />
    <EXPORT ORDINAL="1169" NAME="?do_get@?$num_get@DV?$istreambuf_iterator@DV?$char_traits@D@_STL@@@_STL@@@_STL@@MBE?AV?$istreambuf_iterator@DV?$char_traits@D@_STL@@@2@V32@0AAVios_base@2@AAHAAM@Z" PURGE="32" COMMENT="" />
    <EXPORT ORDINAL="1170" NAME="?do_get@?$num_get@DV?$istreambuf_iterator@DV?$char_traits@D@_STL@@@_STL@@@_STL@@MBE?AV?$istreambuf_iterator@DV?$char_traits@D@_STL@@@2@V32@0AAVios_base@2@AAHAAN@Z" PURGE="32" COMMENT="" />
    <EXPORT ORDINAL="1171" NAME="?do_get@?$num_get@DV?$istreambuf_iterator@DV?$char_traits@D@_STL@@@_STL@@@_STL@@MBE?AV?$istreambuf_iterator@DV?$char_traits@D@_STL@@@2@V32@0AAVios_base@2@AAHAAO@Z" PURGE="32" COMMENT="" />
    <EXPORT ORDINAL="1172" NAME="?do_get@?$num_get@DV?$istreambuf_iterator@DV?$char_traits@D@_STL@@@_STL@@@_STL@@MBE?AV?$istreambuf_iterator@DV?$char_traits@D@_STL@@@2@V32@0AAVios_base@2@AAHAAPAX@Z" PURGE="32" COMMENT="" />
    <EXPORT ORDINAL="1173" NAME="?do_get@?$num_get@DV?$istreambuf_iterator@DV?$char_traits@D@_STL@@@_STL@@@_STL@@MBE?AV?$istreambuf_iterator@DV?$char_traits@D@_STL@@@2@V32@0AAVios_base@2@AAHAA_J@Z" PURGE="32" COMMENT="" />
    <EXPORT ORDINAL="1174" NAME="?do_get@?$num_get@DV?$istreambuf_iterator@DV?$char_traits@D@_STL@@@_STL@@@_STL@@MBE?AV?$istreambuf_iterator@DV?$char_traits@D@_STL@@@2@V32@0AAVios_base@2@AAHAA_K@Z" PURGE="32" COMMENT="" />
    <EXPORT ORDINAL="1175" NAME="?do_get@?$num_get@DV?$istreambuf_iterator@DV?$char_traits@D@_STL@@@_STL@@@_STL@@MBE?AV?$istreambuf_iterator@DV?$char_traits@D@_STL@@@2@V32@0AAVios_base@2@AAHAA_N@Z" PURGE="32" COMMENT="" />
    <EXPORT ORDINAL="1176" NAME="?do_get@?$num_get@GV?$istreambuf_iterator@GV?$char_traits@G@_STL@@@_STL@@@_STL@@MBE?AV?$istreambuf_iterator@GV?$char_traits@G@_STL@@@2@V32@0AAVios_base@2@AAHAAG@Z" PURGE="32" COMMENT="" />
    <EXPORT ORDINAL="1177" NAME="?do_get@?$num_get@GV?$istreambuf_iterator@GV?$char_traits@G@_STL@@@_STL@@@_STL@@MBE?AV?$istreambuf_iterator@GV?$char_traits@G@_STL@@@2@V32@0AAVios_base@2@AAHAAI@Z" PURGE="32" COMMENT="" />
    <EXPORT ORDINAL="1178" NAME="?do_get@?$num_get@GV?$istreambuf_iterator@GV?$char_traits@G@_STL@@@_STL@@@_STL@@MBE?AV?$istreambuf_iterator@GV?$char_traits@G@_STL@@@2@V32@0AAVios_base@2@AAHAAJ@Z" PURGE="32" COMMENT="" />
    <EXPORT ORDINAL="1179" NAME="?do_get@?$num_get@GV?$istreambuf_iterator@GV?$char_traits@G@_STL@@@_STL@@@_STL@@MBE?AV?$istreambuf_iterator@GV?$char_traits@G@_STL@@@2@V32@0AAVios_base@2@AAHAAK@Z" PURGE="32" COMMENT="" />
    <EXPORT ORDINAL="1180" NAME="?do_get@?$num_get@GV?$istreambuf_iterator@GV?$char_traits@G@_STL@@@_STL@@@_STL@@MBE?AV?$istreambuf_iterator@GV?$char_traits@G@_STL@@@2@V32@0AAVios_base@2@AAHAAM@Z" PURGE="32" COMMENT="" />
    <EXPORT ORDINAL="1181" NAME="?do_get@?$num_get@GV?$istreambuf_iterator@GV?$char_traits@G@_STL@@@_STL@@@_STL@@MBE?AV?$istreambuf_iterator@GV?$char_traits@G@_STL@@@2@V32@0AAVios_base@2@AAHAAN@Z" PURGE="32" COMMENT="" />
    <EXPORT ORDINAL="1182" NAME="?do_get@?$num_get@GV?$istreambuf_iterator@GV?$char_traits@G@_STL@@@_STL@@@_STL@@MBE?AV?$istreambuf_iterator@GV?$char_traits@G@_STL@@@2@V32@0AAVios_base@2@AAHAAO@Z" PURGE="32" COMMENT="" />
    <EXPORT ORDINAL="1183" NAME="?do_get@?$num_get@GV?$istreambuf_iterator@GV?$char_traits@G@_STL@@@_STL@@@_STL@@MBE?AV?$istreambuf_iterator@GV?$char_traits@G@_STL@@@2@V32@0AAVios_base@2@AAHAAPAX@Z" PURGE="32" COMMENT="" />
    <EXPORT ORDINAL="1184" NAME="?do_get@?$num_get@GV?$istreambuf_iterator@GV?$char_traits@G@_STL@@@_STL@@@_STL@@MBE?AV?$istreambuf_iterator@GV?$char_traits@G@_STL@@@2@V32@0AAVios_base@2@AAHAA_J@Z" PURGE="32" COMMENT="" />
    <EXPORT ORDINAL="1185" NAME="?do_get@?$num_get@GV?$istreambuf_iterator@GV?$char_traits@G@_STL@@@_STL@@@_STL@@MBE?AV?$istreambuf_iterator@GV?$char_traits@G@_STL@@@2@V32@0AAVios_base@2@AAHAA_K@Z" PURGE="32" COMMENT="" />
    <EXPORT ORDINAL="1186" NAME="?do_get@?$num_get@GV?$istreambuf_iterator@GV?$char_traits@G@_STL@@@_STL@@@_STL@@MBE?AV?$istreambuf_iterator@GV?$char_traits@G@_STL@@@2@V32@0AAVios_base@2@AAHAA_N@Z" PURGE="32" COMMENT="" />
    <EXPORT ORDINAL="1187" NAME="?do_get_date@?$time_get@DV?$istreambuf_iterator@DV?$char_traits@D@_STL@@@_STL@@@_STL@@MBE?AV?$istreambuf_iterator@DV?$char_traits@D@_STL@@@2@V32@0AAVios_base@2@AAHPAUtm@@@Z" PURGE="32" COMMENT="" />
    <EXPORT ORDINAL="1188" NAME="?do_get_date@?$time_get@GV?$istreambuf_iterator@GV?$char_traits@G@_STL@@@_STL@@@_STL@@MBE?AV?$istreambuf_iterator@GV?$char_traits@G@_STL@@@2@V32@0AAVios_base@2@AAHPAUtm@@@Z" PURGE="32" COMMENT="" />
    <EXPORT ORDINAL="1189" NAME="?do_get_monthname@?$time_get@DV?$istreambuf_iterator@DV?$char_traits@D@_STL@@@_STL@@@_STL@@MBE?AV?$istreambuf_iterator@DV?$char_traits@D@_STL@@@2@V32@0AAVios_base@2@AAHPAUtm@@@Z" PURGE="32" COMMENT="" />
    <EXPORT ORDINAL="1190" NAME="?do_get_monthname@?$time_get@GV?$istreambuf_iterator@GV?$char_traits@G@_STL@@@_STL@@@_STL@@MBE?AV?$istreambuf_iterator@GV?$char_traits@G@_STL@@@2@V32@0AAVios_base@2@AAHPAUtm@@@Z" PURGE="32" COMMENT="" />
    <EXPORT ORDINAL="1191" NAME="?do_get_time@?$time_get@DV?$istreambuf_iterator@DV?$char_traits@D@_STL@@@_STL@@@_STL@@MBE?AV?$istreambuf_iterator@DV?$char_traits@D@_STL@@@2@V32@0AAVios_base@2@AAHPAUtm@@@Z" PURGE="32" COMMENT="" />
    <EXPORT ORDINAL="1192" NAME="?do_get_time@?$time_get@GV?$istreambuf_iterator@GV?$char_traits@G@_STL@@@_STL@@@_STL@@MBE?AV?$istreambuf_iterator@GV?$char_traits@G@_STL@@@2@V32@0AAVios_base@2@AAHPAUtm@@@Z" PURGE="32" COMMENT="" />
    <EXPORT ORDINAL="1193" NAME="?do_get_weekday@?$time_get@DV?$istreambuf_iterator@DV?$char_traits@D@_STL@@@_STL@@@_STL@@MBE?AV?$istreambuf_iterator@DV?$char_traits@D@_STL@@@2@V32@0AAVios_base@2@AAHPAUtm@@@Z" PURGE="32" COMMENT="" />
    <EXPORT ORDINAL="1194" NAME="?do_get_weekday@?$time_get@GV?$istreambuf_iterator@GV?$char_traits@G@_STL@@@_STL@@@_STL@@MBE?AV?$istreambuf_iterator@GV?$char_traits@G@_STL@@@2@V32@0AAVios_base@2@AAHPAUtm@@@Z" PURGE="32" COMMENT="" />
    <EXPORT ORDINAL="1195" NAME="?do_get_year@?$time_get@DV?$istreambuf_iterator@DV?$char_traits@D@_STL@@@_STL@@@_STL@@MBE?AV?$istreambuf_iterator@DV?$char_traits@D@_STL@@@2@V32@0AAVios_base@2@AAHPAUtm@@@Z" PURGE="32" COMMENT="" />
    <EXPORT ORDINAL="1196" NAME="?do_get_year@?$time_get@GV?$istreambuf_iterator@GV?$char_traits@G@_STL@@@_STL@@@_STL@@MBE?AV?$istreambuf_iterator@GV?$char_traits@G@_STL@@@2@V32@0AAVios_base@2@AAHPAUtm@@@Z" PURGE="32" COMMENT="" />
    <EXPORT ORDINAL="1197" NAME="?do_grouping@?$moneypunct@D$00@_STL@@MBE?AV?$basic_string@DV?$char_traits@D@_STL@@V?$allocator@D@2@@2@XZ" PURGE="4" COMMENT="" />
    <EXPORT ORDINAL="1198" NAME="?do_grouping@?$moneypunct@D$0A@@_STL@@MBE?AV?$basic_string@DV?$char_traits@D@_STL@@V?$allocator@D@2@@2@XZ" PURGE="4" COMMENT="" />
    <EXPORT ORDINAL="1199" NAME="?do_grouping@?$moneypunct@G$00@_STL@@MBE?AV?$basic_string@DV?$char_traits@D@_STL@@V?$allocator@D@2@@2@XZ" PURGE="4" COMMENT="" />
    <EXPORT ORDINAL="1200" NAME="?do_grouping@?$moneypunct@G$0A@@_STL@@MBE?AV?$basic_string@DV?$char_traits@D@_STL@@V?$allocator@D@2@@2@XZ" PURGE="4" COMMENT="" />
    <EXPORT ORDINAL="1201" NAME="?do_grouping@?$moneypunct_byname@D$00@_STL@@MBE?AV?$basic_string@DV?$char_traits@D@_STL@@V?$allocator@D@2@@2@XZ" PURGE="4" COMMENT="" />
    <EXPORT ORDINAL="1202" NAME="?do_grouping@?$moneypunct_byname@D$0A@@_STL@@MBE?AV?$basic_string@DV?$char_traits@D@_STL@@V?$allocator@D@2@@2@XZ" PURGE="4" COMMENT="" />
    <EXPORT ORDINAL="1203" NAME="?do_grouping@?$moneypunct_byname@G$00@_STL@@MBE?AV?$basic_string@DV?$char_traits@D@_STL@@V?$allocator@D@2@@2@XZ" PURGE="4" COMMENT="" />
    <EXPORT ORDINAL="1204" NAME="?do_grouping@?$moneypunct_byname@G$0A@@_STL@@MBE?AV?$basic_string@DV?$char_traits@D@_STL@@V?$allocator@D@2@@2@XZ" PURGE="4" COMMENT="" />
    <EXPORT ORDINAL="1205" NAME="?do_grouping@?$numpunct@D@_STL@@MBE?AV?$basic_string@DV?$char_traits@D@_STL@@V?$allocator@D@2@@2@XZ" PURGE="4" COMMENT="" />
    <EXPORT ORDINAL="1206" NAME="?do_grouping@?$numpunct@G@_STL@@MBE?AV?$basic_string@DV?$char_traits@D@_STL@@V?$allocator@D@2@@2@XZ" PURGE="4" COMMENT="" />
    <EXPORT ORDINAL="1207" NAME="?do_grouping@?$numpunct_byname@D@_STL@@MBE?AV?$basic_string@DV?$char_traits@D@_STL@@V?$allocator@D@2@@2@XZ" PURGE="4" COMMENT="" />
    <EXPORT ORDINAL="1208" NAME="?do_grouping@?$numpunct_byname@G@_STL@@MBE?AV?$basic_string@DV?$char_traits@D@_STL@@V?$allocator@D@2@@2@XZ" PURGE="4" COMMENT="" />
    <EXPORT ORDINAL="1209" NAME="?do_hash@?$collate@D@_STL@@MBEJPBD0@Z" PURGE="8" COMMENT="" />
    <EXPORT ORDINAL="1210" NAME="?do_hash@?$collate@G@_STL@@MBEJPBG0@Z" PURGE="8" COMMENT="" />
    <EXPORT ORDINAL="1211" NAME="?do_in@?$codecvt@DDH@_STL@@MBE?AW4result@codecvt_base@2@AAHPBD1AAPBDPAD3AAPAD@Z" PURGE="28" COMMENT="" />
    <EXPORT ORDINAL="1212" NAME="?do_in@?$codecvt@GDH@_STL@@MBE?AW4result@codecvt_base@2@AAHPBD1AAPBDPAG3AAPAG@Z" PURGE="28" COMMENT="" />
    <EXPORT ORDINAL="1213" NAME="?do_is@?$ctype@G@_STL@@MBEPBGPBG0PAW4mask@ctype_base@2@@Z" PURGE="12" COMMENT="" />
    <EXPORT ORDINAL="1214" NAME="?do_is@?$ctype@G@_STL@@MBE_NW4mask@ctype_base@2@G@Z" PURGE="8" COMMENT="" />
    <EXPORT ORDINAL="1215" NAME="?do_is@?$ctype_byname@G@_STL@@MBEPBGPBG0PAW4mask@ctype_base@2@@Z" PURGE="12" COMMENT="" />
    <EXPORT ORDINAL="1216" NAME="?do_is@?$ctype_byname@G@_STL@@MBE_NW4mask@ctype_base@2@G@Z" PURGE="8" COMMENT="" />
    <EXPORT ORDINAL="1217" NAME="?do_length@?$codecvt@DDH@_STL@@MBEHABHPBD1I@Z" PURGE="16" COMMENT="" />
    <EXPORT ORDINAL="1218" NAME="?do_length@?$codecvt@GDH@_STL@@MBEHABHPBD1I@Z" PURGE="16" COMMENT="" />
    <EXPORT ORDINAL="1219" NAME="?do_max_length@?$codecvt@DDH@_STL@@MBEHXZ" PURGE="0" COMMENT="" />
    <EXPORT ORDINAL="1220" NAME="?do_max_length@?$codecvt@GDH@_STL@@MBEHXZ" PURGE="0" COMMENT="" />
    <EXPORT ORDINAL="1221" NAME="?do_narrow@?$ctype@D@_STL@@MBEDDD@Z" PURGE="8" COMMENT="" />
    <EXPORT ORDINAL="1222" NAME="?do_narrow@?$ctype@D@_STL@@MBEPBDPBD0DPAD@Z" PURGE="16" COMMENT="" />
    <EXPORT ORDINAL="1223" NAME="?do_narrow@?$ctype@G@_STL@@MBEDGD@Z" PURGE="8" COMMENT="" />
    <EXPORT ORDINAL="1224" NAME="?do_narrow@?$ctype@G@_STL@@MBEPBGPBG0DPAD@Z" PURGE="16" COMMENT="" />
    <EXPORT ORDINAL="1225" NAME="?do_neg_format@?$moneypunct@D$00@_STL@@MBE?AUpattern@money_base@2@XZ" PURGE="4" COMMENT="" />
    <EXPORT ORDINAL="1226" NAME="?do_neg_format@?$moneypunct@D$0A@@_STL@@MBE?AUpattern@money_base@2@XZ" PURGE="4" COMMENT="" />
    <EXPORT ORDINAL="1227" NAME="?do_neg_format@?$moneypunct@G$00@_STL@@MBE?AUpattern@money_base@2@XZ" PURGE="4" COMMENT="" />
    <EXPORT ORDINAL="1228" NAME="?do_neg_format@?$moneypunct@G$0A@@_STL@@MBE?AUpattern@money_base@2@XZ" PURGE="4" COMMENT="" />
    <EXPORT ORDINAL="1229" NAME="?do_negative_sign@?$moneypunct@D$00@_STL@@MBE?AV?$basic_string@DV?$char_traits@D@_STL@@V?$allocator@D@2@@2@XZ" PURGE="4" COMMENT="" />
    <EXPORT ORDINAL="1230" NAME="?do_negative_sign@?$moneypunct@D$0A@@_STL@@MBE?AV?$basic_string@DV?$char_traits@D@_STL@@V?$allocator@D@2@@2@XZ" PURGE="4" COMMENT="" />
    <EXPORT ORDINAL="1231" NAME="?do_negative_sign@?$moneypunct@G$00@_STL@@MBE?AV?$basic_string@GV?$char_traits@G@_STL@@V?$allocator@G@2@@2@XZ" PURGE="4" COMMENT="" />
    <EXPORT ORDINAL="1232" NAME="?do_negative_sign@?$moneypunct@G$0A@@_STL@@MBE?AV?$basic_string@GV?$char_traits@G@_STL@@V?$allocator@G@2@@2@XZ" PURGE="4" COMMENT="" />
    <EXPORT ORDINAL="1233" NAME="?do_negative_sign@?$moneypunct_byname@D$00@_STL@@MBE?AV?$basic_string@DV?$char_traits@D@_STL@@V?$allocator@D@2@@2@XZ" PURGE="4" COMMENT="" />
    <EXPORT ORDINAL="1234" NAME="?do_negative_sign@?$moneypunct_byname@D$0A@@_STL@@MBE?AV?$basic_string@DV?$char_traits@D@_STL@@V?$allocator@D@2@@2@XZ" PURGE="4" COMMENT="" />
    <EXPORT ORDINAL="1235" NAME="?do_negative_sign@?$moneypunct_byname@G$00@_STL@@MBE?AV?$basic_string@GV?$char_traits@G@_STL@@V?$allocator@G@2@@2@XZ" PURGE="4" COMMENT="" />
    <EXPORT ORDINAL="1236" NAME="?do_negative_sign@?$moneypunct_byname@G$0A@@_STL@@MBE?AV?$basic_string@GV?$char_traits@G@_STL@@V?$allocator@G@2@@2@XZ" PURGE="4" COMMENT="" />
    <EXPORT ORDINAL="1237" NAME="?do_open@?$messages@D@_STL@@MBEHABV?$basic_string@DV?$char_traits@D@_STL@@V?$allocator@D@2@@2@ABVlocale@2@@Z" PURGE="-1" COMMENT="" />
    <EXPORT ORDINAL="1238" NAME="?do_open@?$messages@G@_STL@@MBEHABV?$basic_string@DV?$char_traits@D@_STL@@V?$allocator@D@2@@2@ABVlocale@2@@Z" PURGE="-1" COMMENT="" />
    <EXPORT ORDINAL="1239" NAME="?do_out@?$codecvt@DDH@_STL@@MBE?AW4result@codecvt_base@2@AAHPBD1AAPBDPAD3AAPAD@Z" PURGE="28" COMMENT="" />
    <EXPORT ORDINAL="1240" NAME="?do_out@?$codecvt@GDH@_STL@@MBE?AW4result@codecvt_base@2@AAHPBG1AAPBGPAD3AAPAD@Z" PURGE="28" COMMENT="" />
    <EXPORT ORDINAL="1241" NAME="?do_pos_format@?$moneypunct@D$00@_STL@@MBE?AUpattern@money_base@2@XZ" PURGE="4" COMMENT="" />
    <EXPORT ORDINAL="1242" NAME="?do_pos_format@?$moneypunct@D$0A@@_STL@@MBE?AUpattern@money_base@2@XZ" PURGE="4" COMMENT="" />
    <EXPORT ORDINAL="1243" NAME="?do_pos_format@?$moneypunct@G$00@_STL@@MBE?AUpattern@money_base@2@XZ" PURGE="4" COMMENT="" />
    <EXPORT ORDINAL="1244" NAME="?do_pos_format@?$moneypunct@G$0A@@_STL@@MBE?AUpattern@money_base@2@XZ" PURGE="4" COMMENT="" />
    <EXPORT ORDINAL="1245" NAME="?do_positive_sign@?$moneypunct@D$00@_STL@@MBE?AV?$basic_string@DV?$char_traits@D@_STL@@V?$allocator@D@2@@2@XZ" PURGE="4" COMMENT="" />
    <EXPORT ORDINAL="1246" NAME="?do_positive_sign@?$moneypunct@D$0A@@_STL@@MBE?AV?$basic_string@DV?$char_traits@D@_STL@@V?$allocator@D@2@@2@XZ" PURGE="4" COMMENT="" />
    <EXPORT ORDINAL="1247" NAME="?do_positive_sign@?$moneypunct@G$00@_STL@@MBE?AV?$basic_string@GV?$char_traits@G@_STL@@V?$allocator@G@2@@2@XZ" PURGE="4" COMMENT="" />
    <EXPORT ORDINAL="1248" NAME="?do_positive_sign@?$moneypunct@G$0A@@_STL@@MBE?AV?$basic_string@GV?$char_traits@G@_STL@@V?$allocator@G@2@@2@XZ" PURGE="4" COMMENT="" />
    <EXPORT ORDINAL="1249" NAME="?do_positive_sign@?$moneypunct_byname@D$00@_STL@@MBE?AV?$basic_string@DV?$char_traits@D@_STL@@V?$allocator@D@2@@2@XZ" PURGE="4" COMMENT="" />
    <EXPORT ORDINAL="1250" NAME="?do_positive_sign@?$moneypunct_byname@D$0A@@_STL@@MBE?AV?$basic_string@DV?$char_traits@D@_STL@@V?$allocator@D@2@@2@XZ" PURGE="4" COMMENT="" />
    <EXPORT ORDINAL="1251" NAME="?do_positive_sign@?$moneypunct_byname@G$00@_STL@@MBE?AV?$basic_string@GV?$char_traits@G@_STL@@V?$allocator@G@2@@2@XZ" PURGE="4" COMMENT="" />
    <EXPORT ORDINAL="1252" NAME="?do_positive_sign@?$moneypunct_byname@G$0A@@_STL@@MBE?AV?$basic_string@GV?$char_traits@G@_STL@@V?$allocator@G@2@@2@XZ" PURGE="4" COMMENT="" />
    <EXPORT ORDINAL="1253" NAME="?do_put@?$money_put@DV?$ostreambuf_iterator@DV?$char_traits@D@_STL@@@_STL@@@_STL@@MBE?AV?$ostreambuf_iterator@DV?$char_traits@D@_STL@@@2@V32@_NAAVios_base@2@DABV?$basic_string@DV?$char_traits@D@_STL@@V?$allocator@D@2@@2@@Z" PURGE="28" COMMENT="" />
    <EXPORT ORDINAL="1254" NAME="?do_put@?$money_put@DV?$ostreambuf_iterator@DV?$char_traits@D@_STL@@@_STL@@@_STL@@MBE?AV?$ostreambuf_iterator@DV?$char_traits@D@_STL@@@2@V32@_NAAVios_base@2@DO@Z" PURGE="32" COMMENT="" />
    <EXPORT ORDINAL="1255" NAME="?do_put@?$money_put@GV?$ostreambuf_iterator@GV?$char_traits@G@_STL@@@_STL@@@_STL@@MBE?AV?$ostreambuf_iterator@GV?$char_traits@G@_STL@@@2@V32@_NAAVios_base@2@GABV?$basic_string@GV?$char_traits@G@_STL@@V?$allocator@G@2@@2@@Z" PURGE="28" COMMENT="" />
    <EXPORT ORDINAL="1256" NAME="?do_put@?$money_put@GV?$ostreambuf_iterator@GV?$char_traits@G@_STL@@@_STL@@@_STL@@MBE?AV?$ostreambuf_iterator@GV?$char_traits@G@_STL@@@2@V32@_NAAVios_base@2@GO@Z" PURGE="32" COMMENT="" />
    <EXPORT ORDINAL="1257" NAME="?do_put@?$num_put@DV?$ostreambuf_iterator@DV?$char_traits@D@_STL@@@_STL@@@_STL@@MBE?AV?$ostreambuf_iterator@DV?$char_traits@D@_STL@@@2@V32@AAVios_base@2@DJ@Z" PURGE="24" COMMENT="" />
    <EXPORT ORDINAL="1258" NAME="?do_put@?$num_put@DV?$ostreambuf_iterator@DV?$char_traits@D@_STL@@@_STL@@@_STL@@MBE?AV?$ostreambuf_iterator@DV?$char_traits@D@_STL@@@2@V32@AAVios_base@2@DK@Z" PURGE="24" COMMENT="" />
    <EXPORT ORDINAL="1259" NAME="?do_put@?$num_put@DV?$ostreambuf_iterator@DV?$char_traits@D@_STL@@@_STL@@@_STL@@MBE?AV?$ostreambuf_iterator@DV?$char_traits@D@_STL@@@2@V32@AAVios_base@2@DN@Z" PURGE="28" COMMENT="" />
    <EXPORT ORDINAL="1260" NAME="?do_put@?$num_put@DV?$ostreambuf_iterator@DV?$char_traits@D@_STL@@@_STL@@@_STL@@MBE?AV?$ostreambuf_iterator@DV?$char_traits@D@_STL@@@2@V32@AAVios_base@2@DO@Z" PURGE="28" COMMENT="" />
    <EXPORT ORDINAL="1261" NAME="?do_put@?$num_put@DV?$ostreambuf_iterator@DV?$char_traits@D@_STL@@@_STL@@@_STL@@MBE?AV?$ostreambuf_iterator@DV?$char_traits@D@_STL@@@2@V32@AAVios_base@2@DPBX@Z" PURGE="24" COMMENT="" />
    <EXPORT ORDINAL="1262" NAME="?do_put@?$num_put@DV?$ostreambuf_iterator@DV?$char_traits@D@_STL@@@_STL@@@_STL@@MBE?AV?$ostreambuf_iterator@DV?$char_traits@D@_STL@@@2@V32@AAVios_base@2@D_J@Z" PURGE="28" COMMENT="" />
    <EXPORT ORDINAL="1263" NAME="?do_put@?$num_put@DV?$ostreambuf_iterator@DV?$char_traits@D@_STL@@@_STL@@@_STL@@MBE?AV?$ostreambuf_iterator@DV?$char_traits@D@_STL@@@2@V32@AAVios_base@2@D_K@Z" PURGE="28" COMMENT="" />
    <EXPORT ORDINAL="1264" NAME="?do_put@?$num_put@DV?$ostreambuf_iterator@DV?$char_traits@D@_STL@@@_STL@@@_STL@@MBE?AV?$ostreambuf_iterator@DV?$char_traits@D@_STL@@@2@V32@AAVios_base@2@D_N@Z" PURGE="24" COMMENT="" />
    <EXPORT ORDINAL="1265" NAME="?do_put@?$num_put@GV?$ostreambuf_iterator@GV?$char_traits@G@_STL@@@_STL@@@_STL@@MBE?AV?$ostreambuf_iterator@GV?$char_traits@G@_STL@@@2@V32@AAVios_base@2@GJ@Z" PURGE="24" COMMENT="" />
    <EXPORT ORDINAL="1266" NAME="?do_put@?$num_put@GV?$ostreambuf_iterator@GV?$char_traits@G@_STL@@@_STL@@@_STL@@MBE?AV?$ostreambuf_iterator@GV?$char_traits@G@_STL@@@2@V32@AAVios_base@2@GK@Z" PURGE="24" COMMENT="" />
    <EXPORT ORDINAL="1267" NAME="?do_put@?$num_put@GV?$ostreambuf_iterator@GV?$char_traits@G@_STL@@@_STL@@@_STL@@MBE?AV?$ostreambuf_iterator@GV?$char_traits@G@_STL@@@2@V32@AAVios_base@2@GN@Z" PURGE="28" COMMENT="" />
    <EXPORT ORDINAL="1268" NAME="?do_put@?$num_put@GV?$ostreambuf_iterator@GV?$char_traits@G@_STL@@@_STL@@@_STL@@MBE?AV?$ostreambuf_iterator@GV?$char_traits@G@_STL@@@2@V32@AAVios_base@2@GO@Z" PURGE="28" COMMENT="" />
    <EXPORT ORDINAL="1269" NAME="?do_put@?$num_put@GV?$ostreambuf_iterator@GV?$char_traits@G@_STL@@@_STL@@@_STL@@MBE?AV?$ostreambuf_iterator@GV?$char_traits@G@_STL@@@2@V32@AAVios_base@2@GPBX@Z" PURGE="24" COMMENT="" />
    <EXPORT ORDINAL="1270" NAME="?do_put@?$num_put@GV?$ostreambuf_iterator@GV?$char_traits@G@_STL@@@_STL@@@_STL@@MBE?AV?$ostreambuf_iterator@GV?$char_traits@G@_STL@@@2@V32@AAVios_base@2@G_J@Z" PURGE="28" COMMENT="" />
    <EXPORT ORDINAL="1271" NAME="?do_put@?$num_put@GV?$ostreambuf_iterator@GV?$char_traits@G@_STL@@@_STL@@@_STL@@MBE?AV?$ostreambuf_iterator@GV?$char_traits@G@_STL@@@2@V32@AAVios_base@2@G_K@Z" PURGE="28" COMMENT="" />
    <EXPORT ORDINAL="1272" NAME="?do_put@?$num_put@GV?$ostreambuf_iterator@GV?$char_traits@G@_STL@@@_STL@@@_STL@@MBE?AV?$ostreambuf_iterator@GV?$char_traits@G@_STL@@@2@V32@AAVios_base@2@G_N@Z" PURGE="24" COMMENT="" />
    <EXPORT ORDINAL="1273" NAME="?do_put@?$time_put@DV?$ostreambuf_iterator@DV?$char_traits@D@_STL@@@_STL@@@_STL@@MBE?AV?$ostreambuf_iterator@DV?$char_traits@D@_STL@@@2@V32@AAVios_base@2@DPBUtm@@DD@Z" PURGE="32" COMMENT="" />
    <EXPORT ORDINAL="1274" NAME="?do_put@?$time_put@GV?$ostreambuf_iterator@GV?$char_traits@G@_STL@@@_STL@@@_STL@@MBE?AV?$ostreambuf_iterator@GV?$char_traits@G@_STL@@@2@V32@AAVios_base@2@GPBUtm@@DD@Z" PURGE="32" COMMENT="" />
    <EXPORT ORDINAL="1275" NAME="?do_scan_is@?$ctype@G@_STL@@MBEPBGW4mask@ctype_base@2@PBG1@Z" PURGE="12" COMMENT="" />
    <EXPORT ORDINAL="1276" NAME="?do_scan_is@?$ctype_byname@G@_STL@@MBEPBGW4mask@ctype_base@2@PBG1@Z" PURGE="12" COMMENT="" />
    <EXPORT ORDINAL="1277" NAME="?do_scan_not@?$ctype@G@_STL@@MBEPBGW4mask@ctype_base@2@PBG1@Z" PURGE="12" COMMENT="" />
    <EXPORT ORDINAL="1278" NAME="?do_scan_not@?$ctype_byname@G@_STL@@MBEPBGW4mask@ctype_base@2@PBG1@Z" PURGE="12" COMMENT="" />
    <EXPORT ORDINAL="1279" NAME="?do_thousands_sep@?$moneypunct@D$00@_STL@@MBEDXZ" PURGE="0" COMMENT="" />
    <EXPORT ORDINAL="1280" NAME="?do_thousands_sep@?$moneypunct@D$0A@@_STL@@MBEDXZ" PURGE="0" COMMENT="" />
    <EXPORT ORDINAL="1281" NAME="?do_thousands_sep@?$moneypunct@G$00@_STL@@MBEGXZ" PURGE="0" COMMENT="" />
    <EXPORT ORDINAL="1282" NAME="?do_thousands_sep@?$moneypunct@G$0A@@_STL@@MBEGXZ" PURGE="0" COMMENT="" />
    <EXPORT ORDINAL="1283" NAME="?do_thousands_sep@?$moneypunct_byname@D$00@_STL@@MBEDXZ" PURGE="0" COMMENT="" />
    <EXPORT ORDINAL="1284" NAME="?do_thousands_sep@?$moneypunct_byname@D$0A@@_STL@@MBEDXZ" PURGE="0" COMMENT="" />
    <EXPORT ORDINAL="1285" NAME="?do_thousands_sep@?$moneypunct_byname@G$00@_STL@@MBEGXZ" PURGE="0" COMMENT="" />
    <EXPORT ORDINAL="1286" NAME="?do_thousands_sep@?$moneypunct_byname@G$0A@@_STL@@MBEGXZ" PURGE="0" COMMENT="" />
    <EXPORT ORDINAL="1287" NAME="?do_thousands_sep@?$numpunct@D@_STL@@MBEDXZ" PURGE="0" COMMENT="" />
    <EXPORT ORDINAL="1288" NAME="?do_thousands_sep@?$numpunct@G@_STL@@MBEGXZ" PURGE="0" COMMENT="" />
    <EXPORT ORDINAL="1289" NAME="?do_thousands_sep@?$numpunct_byname@D@_STL@@MBEDXZ" PURGE="0" COMMENT="" />
    <EXPORT ORDINAL="1290" NAME="?do_thousands_sep@?$numpunct_byname@G@_STL@@MBEGXZ" PURGE="0" COMMENT="" />
    <EXPORT ORDINAL="1291" NAME="?do_tolower@?$ctype@D@_STL@@MBEDD@Z" PURGE="4" COMMENT="" />
    <EXPORT ORDINAL="1292" NAME="?do_tolower@?$ctype@D@_STL@@MBEPBDPADPBD@Z" PURGE="8" COMMENT="" />
    <EXPORT ORDINAL="1293" NAME="?do_tolower@?$ctype@G@_STL@@MBEGG@Z" PURGE="4" COMMENT="" />
    <EXPORT ORDINAL="1294" NAME="?do_tolower@?$ctype@G@_STL@@MBEPBGPAGPBG@Z" PURGE="8" COMMENT="" />
    <EXPORT ORDINAL="1295" NAME="?do_tolower@?$ctype_byname@D@_STL@@UBEDD@Z" PURGE="4" COMMENT="" />
    <EXPORT ORDINAL="1296" NAME="?do_tolower@?$ctype_byname@D@_STL@@UBEPBDPADPBD@Z" PURGE="8" COMMENT="" />
    <EXPORT ORDINAL="1297" NAME="?do_tolower@?$ctype_byname@G@_STL@@MBEGG@Z" PURGE="4" COMMENT="" />
    <EXPORT ORDINAL="1298" NAME="?do_tolower@?$ctype_byname@G@_STL@@MBEPBGPAGPBG@Z" PURGE="8" COMMENT="" />
    <EXPORT ORDINAL="1299" NAME="?do_toupper@?$ctype@D@_STL@@MBEDD@Z" PURGE="4" COMMENT="" />
    <EXPORT ORDINAL="1300" NAME="?do_toupper@?$ctype@D@_STL@@MBEPBDPADPBD@Z" PURGE="8" COMMENT="" />
    <EXPORT ORDINAL="1301" NAME="?do_toupper@?$ctype@G@_STL@@MBEGG@Z" PURGE="4" COMMENT="" />
    <EXPORT ORDINAL="1302" NAME="?do_toupper@?$ctype@G@_STL@@MBEPBGPAGPBG@Z" PURGE="8" COMMENT="" />
    <EXPORT ORDINAL="1303" NAME="?do_toupper@?$ctype_byname@D@_STL@@UBEDD@Z" PURGE="4" COMMENT="" />
    <EXPORT ORDINAL="1304" NAME="?do_toupper@?$ctype_byname@D@_STL@@UBEPBDPADPBD@Z" PURGE="8" COMMENT="" />
    <EXPORT ORDINAL="1305" NAME="?do_toupper@?$ctype_byname@G@_STL@@MBEGG@Z" PURGE="4" COMMENT="" />
    <EXPORT ORDINAL="1306" NAME="?do_toupper@?$ctype_byname@G@_STL@@MBEPBGPAGPBG@Z" PURGE="8" COMMENT="" />
    <EXPORT ORDINAL="1307" NAME="?do_transform@?$collate@D@_STL@@MBE?AV?$basic_string@DV?$char_traits@D@_STL@@V?$allocator@D@2@@2@PBD0@Z" PURGE="12" COMMENT="" />
    <EXPORT ORDINAL="1308" NAME="?do_transform@?$collate@G@_STL@@MBE?AV?$basic_string@GV?$char_traits@G@_STL@@V?$allocator@G@2@@2@PBG0@Z" PURGE="12" COMMENT="" />
    <EXPORT ORDINAL="1309" NAME="?do_transform@?$collate_byname@D@_STL@@MBE?AV?$basic_string@DV?$char_traits@D@_STL@@V?$allocator@D@2@@2@PBD0@Z" PURGE="12" COMMENT="" />
    <EXPORT ORDINAL="1310" NAME="?do_transform@?$collate_byname@G@_STL@@MBE?AV?$basic_string@GV?$char_traits@G@_STL@@V?$allocator@G@2@@2@PBG0@Z" PURGE="12" COMMENT="" />
    <EXPORT ORDINAL="1311" NAME="?do_truename@?$numpunct@D@_STL@@MBE?AV?$basic_string@DV?$char_traits@D@_STL@@V?$allocator@D@2@@2@XZ" PURGE="4" COMMENT="" />
    <EXPORT ORDINAL="1312" NAME="?do_truename@?$numpunct@G@_STL@@MBE?AV?$basic_string@GV?$char_traits@G@_STL@@V?$allocator@G@2@@2@XZ" PURGE="4" COMMENT="" />
    <EXPORT ORDINAL="1313" NAME="?do_unshift@?$codecvt@DDH@_STL@@MBE?AW4result@codecvt_base@2@AAHPAD1AAPAD@Z" PURGE="16" COMMENT="" />
    <EXPORT ORDINAL="1314" NAME="?do_unshift@?$codecvt@GDH@_STL@@MBE?AW4result@codecvt_base@2@AAHPAD1AAPAD@Z" PURGE="16" COMMENT="" />
    <EXPORT ORDINAL="1315" NAME="?do_widen@?$ctype@D@_STL@@MBEDD@Z" PURGE="4" COMMENT="" />
    <EXPORT ORDINAL="1316" NAME="?do_widen@?$ctype@D@_STL@@MBEPBDPBD0PAD@Z" PURGE="12" COMMENT="" />
    <EXPORT ORDINAL="1317" NAME="?do_widen@?$ctype@G@_STL@@MBEGD@Z" PURGE="4" COMMENT="" />
    <EXPORT ORDINAL="1318" NAME="?do_widen@?$ctype@G@_STL@@MBEPBDPBD0PAG@Z" PURGE="12" COMMENT="" />
    <EXPORT ORDINAL="1319" NAME="?eback@?$basic_streambuf@DV?$char_traits@D@_STL@@@_STL@@IBEPADXZ" PURGE="0" COMMENT="" />
    <EXPORT ORDINAL="1320" NAME="?eback@?$basic_streambuf@GV?$char_traits@G@_STL@@@_STL@@IBEPAGXZ" PURGE="0" COMMENT="" />
    <EXPORT ORDINAL="1321" NAME="?egptr@?$basic_streambuf@DV?$char_traits@D@_STL@@@_STL@@IBEPADXZ" PURGE="0" COMMENT="" />
    <EXPORT ORDINAL="1322" NAME="?egptr@?$basic_streambuf@GV?$char_traits@G@_STL@@@_STL@@IBEPAGXZ" PURGE="0" COMMENT="" />
    <EXPORT ORDINAL="1323" NAME="?empty@?$basic_string@DV?$char_traits@D@_STL@@V?$allocator@D@2@@_STL@@QBE_NXZ" PURGE="0" COMMENT="" />
    <EXPORT ORDINAL="1324" NAME="?empty@?$basic_string@GV?$char_traits@G@_STL@@V?$allocator@G@2@@_STL@@QBE_NXZ" PURGE="0" COMMENT="" />
    <EXPORT ORDINAL="1325" NAME="?empty@?$vector@PAXV?$allocator@PAX@_STL@@@_STL@@QBE_NXZ" PURGE="0" COMMENT="" />
    <EXPORT ORDINAL="1326" NAME="?encoding@?$codecvt@DDH@_STL@@QBEHXZ" PURGE="-1" COMMENT="" />
    <EXPORT ORDINAL="1327" NAME="?encoding@?$codecvt@GDH@_STL@@QBEHXZ" PURGE="-1" COMMENT="" />
    <EXPORT ORDINAL="1328" NAME="?end@?$basic_string@DV?$char_traits@D@_STL@@V?$allocator@D@2@@_STL@@QAEPADXZ" PURGE="0" COMMENT="" />
    <EXPORT ORDINAL="1329" NAME="?end@?$basic_string@DV?$char_traits@D@_STL@@V?$allocator@D@2@@_STL@@QBEPBDXZ" PURGE="0" COMMENT="" />
    <EXPORT ORDINAL="1330" NAME="?end@?$basic_string@GV?$char_traits@G@_STL@@V?$allocator@G@2@@_STL@@QAEPAGXZ" PURGE="0" COMMENT="" />
    <EXPORT ORDINAL="1331" NAME="?end@?$basic_string@GV?$char_traits@G@_STL@@V?$allocator@G@2@@_STL@@QBEPBGXZ" PURGE="0" COMMENT="" />
    <EXPORT ORDINAL="1332" NAME="?end@?$vector@PAXV?$allocator@PAX@_STL@@@_STL@@QAEPAPAXXZ" PURGE="0" COMMENT="" />
    <EXPORT ORDINAL="1333" NAME="?end@?$vector@PAXV?$allocator@PAX@_STL@@@_STL@@QBEPBQAXXZ" PURGE="0" COMMENT="" />
    <EXPORT ORDINAL="1334" NAME="?eof@?$__char_traits_base@DH@_STL@@SAHXZ" PURGE="0" COMMENT="" />
    <EXPORT ORDINAL="1335" NAME="?eof@?$__char_traits_base@GG@_STL@@SAGXZ" PURGE="0" COMMENT="" />
    <EXPORT ORDINAL="1336" NAME="?eof@ios_base@_STL@@QBE_NXZ" PURGE="0" COMMENT="" />
    <EXPORT ORDINAL="1337" NAME="?epptr@?$basic_streambuf@DV?$char_traits@D@_STL@@@_STL@@IBEPADXZ" PURGE="0" COMMENT="" />
    <EXPORT ORDINAL="1338" NAME="?epptr@?$basic_streambuf@GV?$char_traits@G@_STL@@@_STL@@IBEPAGXZ" PURGE="0" COMMENT="" />
    <EXPORT ORDINAL="1339" NAME="?eq@?$__char_traits_base@DH@_STL@@SA_NABD0@Z" PURGE="0" COMMENT="" />
    <EXPORT ORDINAL="1340" NAME="?eq@?$__char_traits_base@GG@_STL@@SA_NABG0@Z" PURGE="0" COMMENT="" />
    <EXPORT ORDINAL="1341" NAME="?eq_int_type@?$__char_traits_base@DH@_STL@@SA_NABH0@Z" PURGE="0" COMMENT="" />
    <EXPORT ORDINAL="1342" NAME="?eq_int_type@?$__char_traits_base@GG@_STL@@SA_NABG0@Z" PURGE="0" COMMENT="" />
    <EXPORT ORDINAL="1343" NAME="?equal@?$istreambuf_iterator@DV?$char_traits@D@_STL@@@_STL@@QBE_NABV12@@Z" PURGE="4" COMMENT="" />
    <EXPORT ORDINAL="1344" NAME="?erase@?$basic_string@DV?$char_traits@D@_STL@@V?$allocator@D@2@@_STL@@QAEAAV12@II@Z" PURGE="8" COMMENT="" />
    <EXPORT ORDINAL="1345" NAME="?erase@?$basic_string@DV?$char_traits@D@_STL@@V?$allocator@D@2@@_STL@@QAEPADPAD0@Z" PURGE="8" COMMENT="" />
    <EXPORT ORDINAL="1346" NAME="?erase@?$basic_string@DV?$char_traits@D@_STL@@V?$allocator@D@2@@_STL@@QAEPADPAD@Z" PURGE="4" COMMENT="" />
    <EXPORT ORDINAL="1347" NAME="?erase@?$basic_string@GV?$char_traits@G@_STL@@V?$allocator@G@2@@_STL@@QAEAAV12@II@Z" PURGE="8" COMMENT="" />
    <EXPORT ORDINAL="1348" NAME="?erase@?$basic_string@GV?$char_traits@G@_STL@@V?$allocator@G@2@@_STL@@QAEPAGPAG0@Z" PURGE="8" COMMENT="" />
    <EXPORT ORDINAL="1349" NAME="?erase@?$basic_string@GV?$char_traits@G@_STL@@V?$allocator@G@2@@_STL@@QAEPAGPAG@Z" PURGE="4" COMMENT="" />
    <EXPORT ORDINAL="1350" NAME="?erase@?$vector@PAXV?$allocator@PAX@_STL@@@_STL@@QAEPAPAXPAPAX0@Z" PURGE="8" COMMENT="" />
    <EXPORT ORDINAL="1351" NAME="?erase@?$vector@PAXV?$allocator@PAX@_STL@@@_STL@@QAEPAPAXPAPAX@Z" PURGE="4" COMMENT="" />
    <EXPORT ORDINAL="1352" NAME="?exceptions@?$basic_ios@DV?$char_traits@D@_STL@@@_STL@@QAEXH@Z" PURGE="4" COMMENT="" />
    <EXPORT ORDINAL="1353" NAME="?exceptions@?$basic_ios@DV?$char_traits@D@_STL@@@_STL@@QBEHXZ" PURGE="0" COMMENT="" />
    <EXPORT ORDINAL="1354" NAME="?exceptions@?$basic_ios@GV?$char_traits@G@_STL@@@_STL@@QAEXH@Z" PURGE="4" COMMENT="" />
    <EXPORT ORDINAL="1355" NAME="?exceptions@?$basic_ios@GV?$char_traits@G@_STL@@@_STL@@QBEHXZ" PURGE="0" COMMENT="" />
    <EXPORT ORDINAL="1356" NAME="?exp@_STL@@YA?AU?$complex@M@1@ABU21@@Z" PURGE="0" COMMENT="" />
    <EXPORT ORDINAL="1357" NAME="?exp@_STL@@YA?AU?$complex@N@1@ABU21@@Z" PURGE="0" COMMENT="" />
    <EXPORT ORDINAL="1358" NAME="?exp@_STL@@YA?AU?$complex@O@1@ABU21@@Z" PURGE="0" COMMENT="" />
    <EXPORT ORDINAL="1359" NAME="?fail@ios_base@_STL@@QBE_NXZ" PURGE="0" COMMENT="" />
    <EXPORT ORDINAL="1360" NAME="?failed@?$ostreambuf_iterator@DV?$char_traits@D@_STL@@@_STL@@QBE_NXZ" PURGE="0" COMMENT="" />
    <EXPORT ORDINAL="1361" NAME="?falsename@?$numpunct@D@_STL@@QBE?AV?$basic_string@DV?$char_traits@D@_STL@@V?$allocator@D@2@@2@XZ" PURGE="4" COMMENT="" />
    <EXPORT ORDINAL="1362" NAME="?falsename@?$numpunct@G@_STL@@QBE?AV?$basic_string@GV?$char_traits@G@_STL@@V?$allocator@G@2@@2@XZ" PURGE="4" COMMENT="" />
    <EXPORT ORDINAL="1363" NAME="?fd@?$basic_filebuf@DV?$char_traits@D@_STL@@@_STL@@QBEPAXXZ" PURGE="0" COMMENT="" />
    <EXPORT ORDINAL="1364" NAME="?fd@?$basic_filebuf@GV?$char_traits@G@_STL@@@_STL@@QBEPAXXZ" PURGE="0" COMMENT="" />
    <EXPORT ORDINAL="1365" NAME="?fill@?$basic_ios@DV?$char_traits@D@_STL@@@_STL@@QAEDD@Z" PURGE="4" COMMENT="" />
    <EXPORT ORDINAL="1366" NAME="?fill@?$basic_ios@DV?$char_traits@D@_STL@@@_STL@@QBEDXZ" PURGE="0" COMMENT="" />
    <EXPORT ORDINAL="1367" NAME="?fill@?$basic_ios@GV?$char_traits@G@_STL@@@_STL@@QAEGG@Z" PURGE="4" COMMENT="" />
    <EXPORT ORDINAL="1368" NAME="?fill@?$basic_ios@GV?$char_traits@G@_STL@@@_STL@@QBEGXZ" PURGE="0" COMMENT="" />
    <EXPORT ORDINAL="1369" NAME="?find@?$__char_traits_base@DH@_STL@@SAPBDPBDIABD@Z" PURGE="0" COMMENT="" />
    <EXPORT ORDINAL="1370" NAME="?find@?$__char_traits_base@GG@_STL@@SAPBGPBGIABG@Z" PURGE="0" COMMENT="" />
    <EXPORT ORDINAL="1371" NAME="?find@?$basic_string@DV?$char_traits@D@_STL@@V?$allocator@D@2@@_STL@@QBEIABV12@I@Z" PURGE="8" COMMENT="" />
    <EXPORT ORDINAL="1372" NAME="?find@?$basic_string@DV?$char_traits@D@_STL@@V?$allocator@D@2@@_STL@@QBEIDI@Z" PURGE="8" COMMENT="" />
    <EXPORT ORDINAL="1373" NAME="?find@?$basic_string@DV?$char_traits@D@_STL@@V?$allocator@D@2@@_STL@@QBEIPBDI@Z" PURGE="8" COMMENT="" />
    <EXPORT ORDINAL="1374" NAME="?find@?$basic_string@DV?$char_traits@D@_STL@@V?$allocator@D@2@@_STL@@QBEIPBDII@Z" PURGE="12" COMMENT="" />
    <EXPORT ORDINAL="1375" NAME="?find@?$basic_string@GV?$char_traits@G@_STL@@V?$allocator@G@2@@_STL@@QBEIABV12@I@Z" PURGE="8" COMMENT="" />
    <EXPORT ORDINAL="1376" NAME="?find@?$basic_string@GV?$char_traits@G@_STL@@V?$allocator@G@2@@_STL@@QBEIGI@Z" PURGE="8" COMMENT="" />
    <EXPORT ORDINAL="1377" NAME="?find@?$basic_string@GV?$char_traits@G@_STL@@V?$allocator@G@2@@_STL@@QBEIPBGI@Z" PURGE="8" COMMENT="" />
    <EXPORT ORDINAL="1378" NAME="?find@?$basic_string@GV?$char_traits@G@_STL@@V?$allocator@G@2@@_STL@@QBEIPBGII@Z" PURGE="12" COMMENT="" />
    <EXPORT ORDINAL="1379" NAME="?find_first_not_of@?$basic_string@DV?$char_traits@D@_STL@@V?$allocator@D@2@@_STL@@QBEIABV12@I@Z" PURGE="8" COMMENT="" />
    <EXPORT ORDINAL="1380" NAME="?find_first_not_of@?$basic_string@DV?$char_traits@D@_STL@@V?$allocator@D@2@@_STL@@QBEIDI@Z" PURGE="8" COMMENT="" />
    <EXPORT ORDINAL="1381" NAME="?find_first_not_of@?$basic_string@DV?$char_traits@D@_STL@@V?$allocator@D@2@@_STL@@QBEIPBDI@Z" PURGE="8" COMMENT="" />
    <EXPORT ORDINAL="1382" NAME="?find_first_not_of@?$basic_string@DV?$char_traits@D@_STL@@V?$allocator@D@2@@_STL@@QBEIPBDII@Z" PURGE="12" COMMENT="" />
    <EXPORT ORDINAL="1383" NAME="?find_first_not_of@?$basic_string@GV?$char_traits@G@_STL@@V?$allocator@G@2@@_STL@@QBEIABV12@I@Z" PURGE="8" COMMENT="" />
    <EXPORT ORDINAL="1384" NAME="?find_first_not_of@?$basic_string@GV?$char_traits@G@_STL@@V?$allocator@G@2@@_STL@@QBEIGI@Z" PURGE="8" COMMENT="" />
    <EXPORT ORDINAL="1385" NAME="?find_first_not_of@?$basic_string@GV?$char_traits@G@_STL@@V?$allocator@G@2@@_STL@@QBEIPBGI@Z" PURGE="8" COMMENT="" />
    <EXPORT ORDINAL="1386" NAME="?find_first_not_of@?$basic_string@GV?$char_traits@G@_STL@@V?$allocator@G@2@@_STL@@QBEIPBGII@Z" PURGE="12" COMMENT="" />
    <EXPORT ORDINAL="1387" NAME="?find_first_of@?$basic_string@DV?$char_traits@D@_STL@@V?$allocator@D@2@@_STL@@QBEIABV12@I@Z" PURGE="8" COMMENT="" />
    <EXPORT ORDINAL="1388" NAME="?find_first_of@?$basic_string@DV?$char_traits@D@_STL@@V?$allocator@D@2@@_STL@@QBEIDI@Z" PURGE="8" COMMENT="" />
    <EXPORT ORDINAL="1389" NAME="?find_first_of@?$basic_string@DV?$char_traits@D@_STL@@V?$allocator@D@2@@_STL@@QBEIPBDI@Z" PURGE="8" COMMENT="" />
    <EXPORT ORDINAL="1390" NAME="?find_first_of@?$basic_string@DV?$char_traits@D@_STL@@V?$allocator@D@2@@_STL@@QBEIPBDII@Z" PURGE="12" COMMENT="" />
    <EXPORT ORDINAL="1391" NAME="?find_first_of@?$basic_string@GV?$char_traits@G@_STL@@V?$allocator@G@2@@_STL@@QBEIABV12@I@Z" PURGE="8" COMMENT="" />
    <EXPORT ORDINAL="1392" NAME="?find_first_of@?$basic_string@GV?$char_traits@G@_STL@@V?$allocator@G@2@@_STL@@QBEIGI@Z" PURGE="8" COMMENT="" />
    <EXPORT ORDINAL="1393" NAME="?find_first_of@?$basic_string@GV?$char_traits@G@_STL@@V?$allocator@G@2@@_STL@@QBEIPBGI@Z" PURGE="8" COMMENT="" />
    <EXPORT ORDINAL="1394" NAME="?find_first_of@?$basic_string@GV?$char_traits@G@_STL@@V?$allocator@G@2@@_STL@@QBEIPBGII@Z" PURGE="12" COMMENT="" />
    <EXPORT ORDINAL="1395" NAME="?find_last_not_of@?$basic_string@DV?$char_traits@D@_STL@@V?$allocator@D@2@@_STL@@QBEIABV12@I@Z" PURGE="8" COMMENT="" />
    <EXPORT ORDINAL="1396" NAME="?find_last_not_of@?$basic_string@DV?$char_traits@D@_STL@@V?$allocator@D@2@@_STL@@QBEIDI@Z" PURGE="8" COMMENT="" />
    <EXPORT ORDINAL="1397" NAME="?find_last_not_of@?$basic_string@DV?$char_traits@D@_STL@@V?$allocator@D@2@@_STL@@QBEIPBDI@Z" PURGE="8" COMMENT="" />
    <EXPORT ORDINAL="1398" NAME="?find_last_not_of@?$basic_string@DV?$char_traits@D@_STL@@V?$allocator@D@2@@_STL@@QBEIPBDII@Z" PURGE="12" COMMENT="" />
    <EXPORT ORDINAL="1399" NAME="?find_last_not_of@?$basic_string@GV?$char_traits@G@_STL@@V?$allocator@G@2@@_STL@@QBEIABV12@I@Z" PURGE="8" COMMENT="" />
    <EXPORT ORDINAL="1400" NAME="?find_last_not_of@?$basic_string@GV?$char_traits@G@_STL@@V?$allocator@G@2@@_STL@@QBEIGI@Z" PURGE="8" COMMENT="" />
    <EXPORT ORDINAL="1401" NAME="?find_last_not_of@?$basic_string@GV?$char_traits@G@_STL@@V?$allocator@G@2@@_STL@@QBEIPBGI@Z" PURGE="8" COMMENT="" />
    <EXPORT ORDINAL="1402" NAME="?find_last_not_of@?$basic_string@GV?$char_traits@G@_STL@@V?$allocator@G@2@@_STL@@QBEIPBGII@Z" PURGE="12" COMMENT="" />
    <EXPORT ORDINAL="1403" NAME="?find_last_of@?$basic_string@DV?$char_traits@D@_STL@@V?$allocator@D@2@@_STL@@QBEIABV12@I@Z" PURGE="8" COMMENT="" />
    <EXPORT ORDINAL="1404" NAME="?find_last_of@?$basic_string@DV?$char_traits@D@_STL@@V?$allocator@D@2@@_STL@@QBEIDI@Z" PURGE="8" COMMENT="" />
    <EXPORT ORDINAL="1405" NAME="?find_last_of@?$basic_string@DV?$char_traits@D@_STL@@V?$allocator@D@2@@_STL@@QBEIPBDI@Z" PURGE="8" COMMENT="" />
    <EXPORT ORDINAL="1406" NAME="?find_last_of@?$basic_string@DV?$char_traits@D@_STL@@V?$allocator@D@2@@_STL@@QBEIPBDII@Z" PURGE="12" COMMENT="" />
    <EXPORT ORDINAL="1407" NAME="?find_last_of@?$basic_string@GV?$char_traits@G@_STL@@V?$allocator@G@2@@_STL@@QBEIABV12@I@Z" PURGE="8" COMMENT="" />
    <EXPORT ORDINAL="1408" NAME="?find_last_of@?$basic_string@GV?$char_traits@G@_STL@@V?$allocator@G@2@@_STL@@QBEIGI@Z" PURGE="8" COMMENT="" />
    <EXPORT ORDINAL="1409" NAME="?find_last_of@?$basic_string@GV?$char_traits@G@_STL@@V?$allocator@G@2@@_STL@@QBEIPBGI@Z" PURGE="8" COMMENT="" />
    <EXPORT ORDINAL="1410" NAME="?find_last_of@?$basic_string@GV?$char_traits@G@_STL@@V?$allocator@G@2@@_STL@@QBEIPBGII@Z" PURGE="12" COMMENT="" />
    <EXPORT ORDINAL="1411" NAME="?flags@ios_base@_STL@@QAEHH@Z" PURGE="4" COMMENT="" />
    <EXPORT ORDINAL="1412" NAME="?flags@ios_base@_STL@@QBEHXZ" PURGE="0" COMMENT="" />
    <EXPORT ORDINAL="1413" NAME="?flush@?$basic_ostream@DV?$char_traits@D@_STL@@@_STL@@QAEAAV12@XZ" PURGE="0" COMMENT="" />
    <EXPORT ORDINAL="1414" NAME="?flush@?$basic_ostream@GV?$char_traits@G@_STL@@@_STL@@QAEAAV12@XZ" PURGE="0" COMMENT="" />
    <EXPORT ORDINAL="1415" NAME="?frac_digits@?$moneypunct@D$00@_STL@@QBEHXZ" PURGE="-1" COMMENT="" />
    <EXPORT ORDINAL="1416" NAME="?frac_digits@?$moneypunct@D$0A@@_STL@@QBEHXZ" PURGE="-1" COMMENT="" />
    <EXPORT ORDINAL="1417" NAME="?frac_digits@?$moneypunct@G$00@_STL@@QBEHXZ" PURGE="-1" COMMENT="" />
    <EXPORT ORDINAL="1418" NAME="?frac_digits@?$moneypunct@G$0A@@_STL@@QBEHXZ" PURGE="-1" COMMENT="" />
    <EXPORT ORDINAL="1419" NAME="?freeze@ostrstream@_STL@@QAEX_N@Z" PURGE="4" COMMENT="" />
    <EXPORT ORDINAL="1420" NAME="?freeze@strstream@_STL@@QAEX_N@Z" PURGE="4" COMMENT="" />
    <EXPORT ORDINAL="1421" NAME="?freeze@strstreambuf@_STL@@QAEX_N@Z" PURGE="4" COMMENT="" />
    <EXPORT ORDINAL="1422" NAME="?front@?$vector@PAXV?$allocator@PAX@_STL@@@_STL@@QAEAAPAXXZ" PURGE="0" COMMENT="" />
    <EXPORT ORDINAL="1423" NAME="?front@?$vector@PAXV?$allocator@PAX@_STL@@@_STL@@QBEABQAXXZ" PURGE="0" COMMENT="" />
    <EXPORT ORDINAL="1424" NAME="?gbump@?$basic_streambuf@DV?$char_traits@D@_STL@@@_STL@@IAEXH@Z" PURGE="4" COMMENT="" />
    <EXPORT ORDINAL="1425" NAME="?gbump@?$basic_streambuf@GV?$char_traits@G@_STL@@@_STL@@IAEXH@Z" PURGE="4" COMMENT="" />
    <EXPORT ORDINAL="1426" NAME="?gcount@?$basic_istream@DV?$char_traits@D@_STL@@@_STL@@QBEHXZ" PURGE="0" COMMENT="" />
    <EXPORT ORDINAL="1427" NAME="?gcount@?$basic_istream@GV?$char_traits@G@_STL@@@_STL@@QBEHXZ" PURGE="0" COMMENT="" />
    <EXPORT ORDINAL="1428" NAME="?get@?$basic_istream@DV?$char_traits@D@_STL@@@_STL@@QAEAAV12@AAD@Z" PURGE="4" COMMENT="" />
    <EXPORT ORDINAL="1429" NAME="?get@?$basic_istream@DV?$char_traits@D@_STL@@@_STL@@QAEAAV12@AAV?$basic_streambuf@DV?$char_traits@D@_STL@@@2@@Z" PURGE="4" COMMENT="" />
    <EXPORT ORDINAL="1430" NAME="?get@?$basic_istream@DV?$char_traits@D@_STL@@@_STL@@QAEAAV12@AAV?$basic_streambuf@DV?$char_traits@D@_STL@@@2@D@Z" PURGE="8" COMMENT="" />
    <EXPORT ORDINAL="1431" NAME="?get@?$basic_istream@DV?$char_traits@D@_STL@@@_STL@@QAEAAV12@PADH@Z" PURGE="8" COMMENT="" />
    <EXPORT ORDINAL="1432" NAME="?get@?$basic_istream@DV?$char_traits@D@_STL@@@_STL@@QAEAAV12@PADHD@Z" PURGE="12" COMMENT="" />
    <EXPORT ORDINAL="1433" NAME="?get@?$basic_istream@DV?$char_traits@D@_STL@@@_STL@@QAEHXZ" PURGE="0" COMMENT="" />
    <EXPORT ORDINAL="1434" NAME="?get@?$basic_istream@GV?$char_traits@G@_STL@@@_STL@@QAEAAV12@AAG@Z" PURGE="4" COMMENT="" />
    <EXPORT ORDINAL="1435" NAME="?get@?$basic_istream@GV?$char_traits@G@_STL@@@_STL@@QAEAAV12@AAV?$basic_streambuf@GV?$char_traits@G@_STL@@@2@@Z" PURGE="4" COMMENT="" />
    <EXPORT ORDINAL="1436" NAME="?get@?$basic_istream@GV?$char_traits@G@_STL@@@_STL@@QAEAAV12@AAV?$basic_streambuf@GV?$char_traits@G@_STL@@@2@G@Z" PURGE="8" COMMENT="" />
    <EXPORT ORDINAL="1437" NAME="?get@?$basic_istream@GV?$char_traits@G@_STL@@@_STL@@QAEAAV12@PAGH@Z" PURGE="8" COMMENT="" />
    <EXPORT ORDINAL="1438" NAME="?get@?$basic_istream@GV?$char_traits@G@_STL@@@_STL@@QAEAAV12@PAGHG@Z" PURGE="12" COMMENT="" />
    <EXPORT ORDINAL="1439" NAME="?get@?$basic_istream@GV?$char_traits@G@_STL@@@_STL@@QAEGXZ" PURGE="0" COMMENT="" />
    <EXPORT ORDINAL="1440" NAME="?get@?$messages@D@_STL@@QBE?AV?$basic_string@DV?$char_traits@D@_STL@@V?$allocator@D@2@@2@HHHABV32@@Z" PURGE="20" COMMENT="" />
    <EXPORT ORDINAL="1441" NAME="?get@?$messages@G@_STL@@QBE?AV?$basic_string@GV?$char_traits@G@_STL@@V?$allocator@G@2@@2@HHHABV32@@Z" PURGE="20" COMMENT="" />
    <EXPORT ORDINAL="1442" NAME="?get@?$money_get@DV?$istreambuf_iterator@DV?$char_traits@D@_STL@@@_STL@@@_STL@@QBE?AV?$istreambuf_iterator@DV?$char_traits@D@_STL@@@2@V32@0_NAAVios_base@2@AAHAAO@Z" PURGE="36" COMMENT="" />
    <EXPORT ORDINAL="1443" NAME="?get@?$money_get@DV?$istreambuf_iterator@DV?$char_traits@D@_STL@@@_STL@@@_STL@@QBE?AV?$istreambuf_iterator@DV?$char_traits@D@_STL@@@2@V32@0_NAAVios_base@2@AAHAAV?$basic_string@DV?$char_traits@D@_STL@@V?$allocator@D@2@@2@@Z" PURGE="36" COMMENT="" />
    <EXPORT ORDINAL="1444" NAME="?get@?$money_get@GV?$istreambuf_iterator@GV?$char_traits@G@_STL@@@_STL@@@_STL@@QBE?AV?$istreambuf_iterator@GV?$char_traits@G@_STL@@@2@V32@0_NAAVios_base@2@AAHAAO@Z" PURGE="36" COMMENT="" />
    <EXPORT ORDINAL="1445" NAME="?get@?$money_get@GV?$istreambuf_iterator@GV?$char_traits@G@_STL@@@_STL@@@_STL@@QBE?AV?$istreambuf_iterator@GV?$char_traits@G@_STL@@@2@V32@0_NAAVios_base@2@AAHAAV?$basic_string@GV?$char_traits@G@_STL@@V?$allocator@G@2@@2@@Z" PURGE="36" COMMENT="" />
    <EXPORT ORDINAL="1446" NAME="?get@?$num_get@DV?$istreambuf_iterator@DV?$char_traits@D@_STL@@@_STL@@@_STL@@QBE?AV?$istreambuf_iterator@DV?$char_traits@D@_STL@@@2@V32@0AAVios_base@2@AAHAAG@Z" PURGE="32" COMMENT="" />
    <EXPORT ORDINAL="1447" NAME="?get@?$num_get@DV?$istreambuf_iterator@DV?$char_traits@D@_STL@@@_STL@@@_STL@@QBE?AV?$istreambuf_iterator@DV?$char_traits@D@_STL@@@2@V32@0AAVios_base@2@AAHAAI@Z" PURGE="32" COMMENT="" />
    <EXPORT ORDINAL="1448" NAME="?get@?$num_get@DV?$istreambuf_iterator@DV?$char_traits@D@_STL@@@_STL@@@_STL@@QBE?AV?$istreambuf_iterator@DV?$char_traits@D@_STL@@@2@V32@0AAVios_base@2@AAHAAJ@Z" PURGE="32" COMMENT="" />
    <EXPORT ORDINAL="1449" NAME="?get@?$num_get@DV?$istreambuf_iterator@DV?$char_traits@D@_STL@@@_STL@@@_STL@@QBE?AV?$istreambuf_iterator@DV?$char_traits@D@_STL@@@2@V32@0AAVios_base@2@AAHAAK@Z" PURGE="32" COMMENT="" />
    <EXPORT ORDINAL="1450" NAME="?get@?$num_get@DV?$istreambuf_iterator@DV?$char_traits@D@_STL@@@_STL@@@_STL@@QBE?AV?$istreambuf_iterator@DV?$char_traits@D@_STL@@@2@V32@0AAVios_base@2@AAHAAM@Z" PURGE="32" COMMENT="" />
    <EXPORT ORDINAL="1451" NAME="?get@?$num_get@DV?$istreambuf_iterator@DV?$char_traits@D@_STL@@@_STL@@@_STL@@QBE?AV?$istreambuf_iterator@DV?$char_traits@D@_STL@@@2@V32@0AAVios_base@2@AAHAAN@Z" PURGE="32" COMMENT="" />
    <EXPORT ORDINAL="1452" NAME="?get@?$num_get@DV?$istreambuf_iterator@DV?$char_traits@D@_STL@@@_STL@@@_STL@@QBE?AV?$istreambuf_iterator@DV?$char_traits@D@_STL@@@2@V32@0AAVios_base@2@AAHAAO@Z" PURGE="32" COMMENT="" />
    <EXPORT ORDINAL="1453" NAME="?get@?$num_get@DV?$istreambuf_iterator@DV?$char_traits@D@_STL@@@_STL@@@_STL@@QBE?AV?$istreambuf_iterator@DV?$char_traits@D@_STL@@@2@V32@0AAVios_base@2@AAHAAPAX@Z" PURGE="32" COMMENT="" />
    <EXPORT ORDINAL="1454" NAME="?get@?$num_get@DV?$istreambuf_iterator@DV?$char_traits@D@_STL@@@_STL@@@_STL@@QBE?AV?$istreambuf_iterator@DV?$char_traits@D@_STL@@@2@V32@0AAVios_base@2@AAHAA_J@Z" PURGE="32" COMMENT="" />
    <EXPORT ORDINAL="1455" NAME="?get@?$num_get@DV?$istreambuf_iterator@DV?$char_traits@D@_STL@@@_STL@@@_STL@@QBE?AV?$istreambuf_iterator@DV?$char_traits@D@_STL@@@2@V32@0AAVios_base@2@AAHAA_K@Z" PURGE="32" COMMENT="" />
    <EXPORT ORDINAL="1456" NAME="?get@?$num_get@DV?$istreambuf_iterator@DV?$char_traits@D@_STL@@@_STL@@@_STL@@QBE?AV?$istreambuf_iterator@DV?$char_traits@D@_STL@@@2@V32@0AAVios_base@2@AAHAA_N@Z" PURGE="32" COMMENT="" />
    <EXPORT ORDINAL="1457" NAME="?get@?$num_get@GV?$istreambuf_iterator@GV?$char_traits@G@_STL@@@_STL@@@_STL@@QBE?AV?$istreambuf_iterator@GV?$char_traits@G@_STL@@@2@V32@0AAVios_base@2@AAHAAG@Z" PURGE="32" COMMENT="" />
    <EXPORT ORDINAL="1458" NAME="?get@?$num_get@GV?$istreambuf_iterator@GV?$char_traits@G@_STL@@@_STL@@@_STL@@QBE?AV?$istreambuf_iterator@GV?$char_traits@G@_STL@@@2@V32@0AAVios_base@2@AAHAAI@Z" PURGE="32" COMMENT="" />
    <EXPORT ORDINAL="1459" NAME="?get@?$num_get@GV?$istreambuf_iterator@GV?$char_traits@G@_STL@@@_STL@@@_STL@@QBE?AV?$istreambuf_iterator@GV?$char_traits@G@_STL@@@2@V32@0AAVios_base@2@AAHAAJ@Z" PURGE="32" COMMENT="" />
    <EXPORT ORDINAL="1460" NAME="?get@?$num_get@GV?$istreambuf_iterator@GV?$char_traits@G@_STL@@@_STL@@@_STL@@QBE?AV?$istreambuf_iterator@GV?$char_traits@G@_STL@@@2@V32@0AAVios_base@2@AAHAAK@Z" PURGE="32" COMMENT="" />
    <EXPORT ORDINAL="1461" NAME="?get@?$num_get@GV?$istreambuf_iterator@GV?$char_traits@G@_STL@@@_STL@@@_STL@@QBE?AV?$istreambuf_iterator@GV?$char_traits@G@_STL@@@2@V32@0AAVios_base@2@AAHAAM@Z" PURGE="32" COMMENT="" />
    <EXPORT ORDINAL="1462" NAME="?get@?$num_get@GV?$istreambuf_iterator@GV?$char_traits@G@_STL@@@_STL@@@_STL@@QBE?AV?$istreambuf_iterator@GV?$char_traits@G@_STL@@@2@V32@0AAVios_base@2@AAHAAN@Z" PURGE="32" COMMENT="" />
    <EXPORT ORDINAL="1463" NAME="?get@?$num_get@GV?$istreambuf_iterator@GV?$char_traits@G@_STL@@@_STL@@@_STL@@QBE?AV?$istreambuf_iterator@GV?$char_traits@G@_STL@@@2@V32@0AAVios_base@2@AAHAAO@Z" PURGE="32" COMMENT="" />
    <EXPORT ORDINAL="1464" NAME="?get@?$num_get@GV?$istreambuf_iterator@GV?$char_traits@G@_STL@@@_STL@@@_STL@@QBE?AV?$istreambuf_iterator@GV?$char_traits@G@_STL@@@2@V32@0AAVios_base@2@AAHAAPAX@Z" PURGE="32" COMMENT="" />
    <EXPORT ORDINAL="1465" NAME="?get@?$num_get@GV?$istreambuf_iterator@GV?$char_traits@G@_STL@@@_STL@@@_STL@@QBE?AV?$istreambuf_iterator@GV?$char_traits@G@_STL@@@2@V32@0AAVios_base@2@AAHAA_J@Z" PURGE="32" COMMENT="" />
    <EXPORT ORDINAL="1466" NAME="?get@?$num_get@GV?$istreambuf_iterator@GV?$char_traits@G@_STL@@@_STL@@@_STL@@QBE?AV?$istreambuf_iterator@GV?$char_traits@G@_STL@@@2@V32@0AAVios_base@2@AAHAA_K@Z" PURGE="32" COMMENT="" />
    <EXPORT ORDINAL="1467" NAME="?get@?$num_get@GV?$istreambuf_iterator@GV?$char_traits@G@_STL@@@_STL@@@_STL@@QBE?AV?$istreambuf_iterator@GV?$char_traits@G@_STL@@@2@V32@0AAVios_base@2@AAHAA_N@Z" PURGE="32" COMMENT="" />
    <EXPORT ORDINAL="1468" NAME="?get_allocator@?$basic_string@DV?$char_traits@D@_STL@@V?$allocator@D@2@@_STL@@QBE?AV?$allocator@D@2@XZ" PURGE="4" COMMENT="" />
    <EXPORT ORDINAL="1469" NAME="?get_allocator@?$basic_string@GV?$char_traits@G@_STL@@V?$allocator@G@2@@_STL@@QBE?AV?$allocator@G@2@XZ" PURGE="4" COMMENT="" />
    <EXPORT ORDINAL="1470" NAME="?get_allocator@?$vector@PAXV?$allocator@PAX@_STL@@@_STL@@QBE?AV?$allocator@PAX@2@XZ" PURGE="4" COMMENT="" />
    <EXPORT ORDINAL="1471" NAME="?get_date@?$time_get@DV?$istreambuf_iterator@DV?$char_traits@D@_STL@@@_STL@@@_STL@@QBE?AV?$istreambuf_iterator@DV?$char_traits@D@_STL@@@2@V32@0AAVios_base@2@AAHPAUtm@@@Z" PURGE="32" COMMENT="" />
    <EXPORT ORDINAL="1472" NAME="?get_date@?$time_get@GV?$istreambuf_iterator@GV?$char_traits@G@_STL@@@_STL@@@_STL@@QBE?AV?$istreambuf_iterator@GV?$char_traits@G@_STL@@@2@V32@0AAVios_base@2@AAHPAUtm@@@Z" PURGE="32" COMMENT="" />
    <EXPORT ORDINAL="1473" NAME="?get_monthname@?$time_get@DV?$istreambuf_iterator@DV?$char_traits@D@_STL@@@_STL@@@_STL@@QBE?AV?$istreambuf_iterator@DV?$char_traits@D@_STL@@@2@V32@0AAVios_base@2@AAHPAUtm@@@Z" PURGE="32" COMMENT="" />
    <EXPORT ORDINAL="1474" NAME="?get_monthname@?$time_get@GV?$istreambuf_iterator@GV?$char_traits@G@_STL@@@_STL@@@_STL@@QBE?AV?$istreambuf_iterator@GV?$char_traits@G@_STL@@@2@V32@0AAVios_base@2@AAHPAUtm@@@Z" PURGE="32" COMMENT="" />
    <EXPORT ORDINAL="1475" NAME="?get_time@?$time_get@DV?$istreambuf_iterator@DV?$char_traits@D@_STL@@@_STL@@@_STL@@QBE?AV?$istreambuf_iterator@DV?$char_traits@D@_STL@@@2@V32@0AAVios_base@2@AAHPAUtm@@@Z" PURGE="32" COMMENT="" />
    <EXPORT ORDINAL="1476" NAME="?get_time@?$time_get@GV?$istreambuf_iterator@GV?$char_traits@G@_STL@@@_STL@@@_STL@@QBE?AV?$istreambuf_iterator@GV?$char_traits@G@_STL@@@2@V32@0AAVios_base@2@AAHPAUtm@@@Z" PURGE="32" COMMENT="" />
    <EXPORT ORDINAL="1477" NAME="?get_weekday@?$time_get@DV?$istreambuf_iterator@DV?$char_traits@D@_STL@@@_STL@@@_STL@@QBE?AV?$istreambuf_iterator@DV?$char_traits@D@_STL@@@2@V32@0AAVios_base@2@AAHPAUtm@@@Z" PURGE="32" COMMENT="" />
    <EXPORT ORDINAL="1478" NAME="?get_weekday@?$time_get@GV?$istreambuf_iterator@GV?$char_traits@G@_STL@@@_STL@@@_STL@@QBE?AV?$istreambuf_iterator@GV?$char_traits@G@_STL@@@2@V32@0AAVios_base@2@AAHPAUtm@@@Z" PURGE="32" COMMENT="" />
    <EXPORT ORDINAL="1479" NAME="?get_year@?$time_get@DV?$istreambuf_iterator@DV?$char_traits@D@_STL@@@_STL@@@_STL@@QBE?AV?$istreambuf_iterator@DV?$char_traits@D@_STL@@@2@V32@0AAVios_base@2@AAHPAUtm@@@Z" PURGE="32" COMMENT="" />
    <EXPORT ORDINAL="1480" NAME="?get_year@?$time_get@GV?$istreambuf_iterator@GV?$char_traits@G@_STL@@@_STL@@@_STL@@QBE?AV?$istreambuf_iterator@GV?$char_traits@G@_STL@@@2@V32@0AAVios_base@2@AAHPAUtm@@@Z" PURGE="32" COMMENT="" />
    <EXPORT ORDINAL="1481" NAME="?getline@?$basic_istream@DV?$char_traits@D@_STL@@@_STL@@QAEAAV12@PADH@Z" PURGE="8" COMMENT="" />
    <EXPORT ORDINAL="1482" NAME="?getline@?$basic_istream@DV?$char_traits@D@_STL@@@_STL@@QAEAAV12@PADHD@Z" PURGE="12" COMMENT="" />
    <EXPORT ORDINAL="1483" NAME="?getline@?$basic_istream@GV?$char_traits@G@_STL@@@_STL@@QAEAAV12@PAGH@Z" PURGE="8" COMMENT="" />
    <EXPORT ORDINAL="1484" NAME="?getline@?$basic_istream@GV?$char_traits@G@_STL@@@_STL@@QAEAAV12@PAGHG@Z" PURGE="12" COMMENT="" />
    <EXPORT ORDINAL="1485" NAME="?getloc@?$basic_streambuf@DV?$char_traits@D@_STL@@@_STL@@QBE?AVlocale@2@XZ" PURGE="4" COMMENT="" />
    <EXPORT ORDINAL="1486" NAME="?getloc@?$basic_streambuf@GV?$char_traits@G@_STL@@@_STL@@QBE?AVlocale@2@XZ" PURGE="4" COMMENT="" />
    <EXPORT ORDINAL="1487" NAME="?getloc@ios_base@_STL@@QBE?AVlocale@2@XZ" PURGE="4" COMMENT="" />
    <EXPORT ORDINAL="1488" NAME="?global@locale@_STL@@SA?AV12@ABV12@@Z" PURGE="0" COMMENT="" />
    <EXPORT ORDINAL="1489" NAME="?good@ios_base@_STL@@QBE_NXZ" PURGE="0" COMMENT="" />
    <EXPORT ORDINAL="1490" NAME="?gptr@?$basic_streambuf@DV?$char_traits@D@_STL@@@_STL@@IBEPADXZ" PURGE="0" COMMENT="" />
    <EXPORT ORDINAL="1491" NAME="?gptr@?$basic_streambuf@GV?$char_traits@G@_STL@@@_STL@@IBEPAGXZ" PURGE="0" COMMENT="" />
    <EXPORT ORDINAL="1492" NAME="?grouping@?$moneypunct@D$00@_STL@@QBE?AV?$basic_string@DV?$char_traits@D@_STL@@V?$allocator@D@2@@2@XZ" PURGE="4" COMMENT="" />
    <EXPORT ORDINAL="1493" NAME="?grouping@?$moneypunct@D$0A@@_STL@@QBE?AV?$basic_string@DV?$char_traits@D@_STL@@V?$allocator@D@2@@2@XZ" PURGE="4" COMMENT="" />
    <EXPORT ORDINAL="1494" NAME="?grouping@?$moneypunct@G$00@_STL@@QBE?AV?$basic_string@DV?$char_traits@D@_STL@@V?$allocator@D@2@@2@XZ" PURGE="4" COMMENT="" />
    <EXPORT ORDINAL="1495" NAME="?grouping@?$moneypunct@G$0A@@_STL@@QBE?AV?$basic_string@DV?$char_traits@D@_STL@@V?$allocator@D@2@@2@XZ" PURGE="4" COMMENT="" />
    <EXPORT ORDINAL="1496" NAME="?grouping@?$numpunct@D@_STL@@QBE?AV?$basic_string@DV?$char_traits@D@_STL@@V?$allocator@D@2@@2@XZ" PURGE="4" COMMENT="" />
    <EXPORT ORDINAL="1497" NAME="?grouping@?$numpunct@G@_STL@@QBE?AV?$basic_string@DV?$char_traits@D@_STL@@V?$allocator@D@2@@2@XZ" PURGE="4" COMMENT="" />
    <EXPORT ORDINAL="1498" NAME="?hash@?$collate@D@_STL@@QBEJPBD0@Z" PURGE="-1" COMMENT="" />
    <EXPORT ORDINAL="1499" NAME="?hash@?$collate@G@_STL@@QBEJPBG0@Z" PURGE="-1" COMMENT="" />
    <EXPORT ORDINAL="1500" NAME="?id@?$codecvt@DDH@_STL@@2V0locale@2@A" PURGE="-1" COMMENT="" />
    <EXPORT ORDINAL="1501" NAME="?id@?$codecvt@GDH@_STL@@2V0locale@2@A" PURGE="-1" COMMENT="" />
    <EXPORT ORDINAL="1502" NAME="?id@?$collate@D@_STL@@2V0locale@2@A" PURGE="-1" COMMENT="" />
    <EXPORT ORDINAL="1503" NAME="?id@?$collate@G@_STL@@2V0locale@2@A" PURGE="-1" COMMENT="" />
    <EXPORT ORDINAL="1504" NAME="?id@?$ctype@D@_STL@@2V0locale@2@A" PURGE="-1" COMMENT="" />
    <EXPORT ORDINAL="1505" NAME="?id@?$ctype@G@_STL@@2V0locale@2@A" PURGE="-1" COMMENT="" />
    <EXPORT ORDINAL="1506" NAME="?id@?$messages@D@_STL@@2V0locale@2@A" PURGE="-1" COMMENT="" />
    <EXPORT ORDINAL="1507" NAME="?id@?$messages@G@_STL@@2V0locale@2@A" PURGE="-1" COMMENT="" />
    <EXPORT ORDINAL="1508" NAME="?id@?$money_get@DV?$istreambuf_iterator@DV?$char_traits@D@_STL@@@_STL@@@_STL@@2V0locale@2@A" PURGE="-1" COMMENT="" />
    <EXPORT ORDINAL="1509" NAME="?id@?$money_get@GV?$istreambuf_iterator@GV?$char_traits@G@_STL@@@_STL@@@_STL@@2V0locale@2@A" PURGE="-1" COMMENT="" />
    <EXPORT ORDINAL="1510" NAME="?id@?$money_put@DV?$ostreambuf_iterator@DV?$char_traits@D@_STL@@@_STL@@@_STL@@2V0locale@2@A" PURGE="-1" COMMENT="" />
    <EXPORT ORDINAL="1511" NAME="?id@?$money_put@GV?$ostreambuf_iterator@GV?$char_traits@G@_STL@@@_STL@@@_STL@@2V0locale@2@A" PURGE="-1" COMMENT="" />
    <EXPORT ORDINAL="1512" NAME="?id@?$moneypunct@D$00@_STL@@2V0locale@2@A" PURGE="-1" COMMENT="" />
    <EXPORT ORDINAL="1513" NAME="?id@?$moneypunct@D$0A@@_STL@@2V0locale@2@A" PURGE="-1" COMMENT="" />
    <EXPORT ORDINAL="1514" NAME="?id@?$moneypunct@G$00@_STL@@2V0locale@2@A" PURGE="-1" COMMENT="" />
    <EXPORT ORDINAL="1515" NAME="?id@?$moneypunct@G$0A@@_STL@@2V0locale@2@A" PURGE="-1" COMMENT="" />
    <EXPORT ORDINAL="1516" NAME="?id@?$num_get@DV?$istreambuf_iterator@DV?$char_traits@D@_STL@@@_STL@@@_STL@@2V0locale@2@A" PURGE="-1" COMMENT="" />
    <EXPORT ORDINAL="1517" NAME="?id@?$num_get@GV?$istreambuf_iterator@GV?$char_traits@G@_STL@@@_STL@@@_STL@@2V0locale@2@A" PURGE="-1" COMMENT="" />
    <EXPORT ORDINAL="1518" NAME="?id@?$num_put@DV?$ostreambuf_iterator@DV?$char_traits@D@_STL@@@_STL@@@_STL@@2V0locale@2@A" PURGE="-1" COMMENT="" />
    <EXPORT ORDINAL="1519" NAME="?id@?$num_put@GV?$ostreambuf_iterator@GV?$char_traits@G@_STL@@@_STL@@@_STL@@2V0locale@2@A" PURGE="-1" COMMENT="" />
    <EXPORT ORDINAL="1520" NAME="?id@?$numpunct@D@_STL@@2V0locale@2@A" PURGE="-1" COMMENT="" />
    <EXPORT ORDINAL="1521" NAME="?id@?$numpunct@G@_STL@@2V0locale@2@A" PURGE="-1" COMMENT="" />
    <EXPORT ORDINAL="1522" NAME="?id@?$time_get@DV?$istreambuf_iterator@DV?$char_traits@D@_STL@@@_STL@@@_STL@@2V0locale@2@A" PURGE="-1" COMMENT="" />
    <EXPORT ORDINAL="1523" NAME="?id@?$time_get@GV?$istreambuf_iterator@GV?$char_traits@G@_STL@@@_STL@@@_STL@@2V0locale@2@A" PURGE="-1" COMMENT="" />
    <EXPORT ORDINAL="1524" NAME="?id@?$time_put@DV?$ostreambuf_iterator@DV?$char_traits@D@_STL@@@_STL@@@_STL@@2V0locale@2@A" PURGE="-1" COMMENT="" />
    <EXPORT ORDINAL="1525" NAME="?id@?$time_put@GV?$ostreambuf_iterator@GV?$char_traits@G@_STL@@@_STL@@@_STL@@2V0locale@2@A" PURGE="-1" COMMENT="" />
    <EXPORT ORDINAL="1526" NAME="?ignore@?$basic_istream@DV?$char_traits@D@_STL@@@_STL@@QAEAAV12@H@Z" PURGE="4" COMMENT="" />
    <EXPORT ORDINAL="1527" NAME="?ignore@?$basic_istream@DV?$char_traits@D@_STL@@@_STL@@QAEAAV12@HH@Z" PURGE="8" COMMENT="" />
    <EXPORT ORDINAL="1528" NAME="?ignore@?$basic_istream@DV?$char_traits@D@_STL@@@_STL@@QAEAAV12@XZ" PURGE="0" COMMENT="" />
    <EXPORT ORDINAL="1529" NAME="?ignore@?$basic_istream@GV?$char_traits@G@_STL@@@_STL@@QAEAAV12@H@Z" PURGE="4" COMMENT="" />
    <EXPORT ORDINAL="1530" NAME="?ignore@?$basic_istream@GV?$char_traits@G@_STL@@@_STL@@QAEAAV12@HG@Z" PURGE="8" COMMENT="" />
    <EXPORT ORDINAL="1531" NAME="?ignore@?$basic_istream@GV?$char_traits@G@_STL@@@_STL@@QAEAAV12@XZ" PURGE="0" COMMENT="" />
    <EXPORT ORDINAL="1532" NAME="?imag@?$complex@M@_STL@@QBEMXZ" PURGE="0" COMMENT="" />
    <EXPORT ORDINAL="1533" NAME="?imag@?$complex@N@_STL@@QBENXZ" PURGE="0" COMMENT="" />
    <EXPORT ORDINAL="1534" NAME="?imag@?$complex@O@_STL@@QBEOXZ" PURGE="0" COMMENT="" />
    <EXPORT ORDINAL="1535" NAME="?imbue@?$basic_filebuf@DV?$char_traits@D@_STL@@@_STL@@MAEXABVlocale@2@@Z" PURGE="4" COMMENT="" />
    <EXPORT ORDINAL="1536" NAME="?imbue@?$basic_filebuf@GV?$char_traits@G@_STL@@@_STL@@MAEXABVlocale@2@@Z" PURGE="4" COMMENT="" />
    <EXPORT ORDINAL="1537" NAME="?imbue@?$basic_ios@DV?$char_traits@D@_STL@@@_STL@@QAE?AVlocale@2@ABV32@@Z" PURGE="8" COMMENT="" />
    <EXPORT ORDINAL="1538" NAME="?imbue@?$basic_ios@GV?$char_traits@G@_STL@@@_STL@@QAE?AVlocale@2@ABV32@@Z" PURGE="8" COMMENT="" />
    <EXPORT ORDINAL="1539" NAME="?imbue@?$basic_streambuf@DV?$char_traits@D@_STL@@@_STL@@MAEXABVlocale@2@@Z" PURGE="4" COMMENT="" />
    <EXPORT ORDINAL="1540" NAME="?imbue@?$basic_streambuf@GV?$char_traits@G@_STL@@@_STL@@MAEXABVlocale@2@@Z" PURGE="4" COMMENT="" />
    <EXPORT ORDINAL="1541" NAME="?imbue@ios_base@_STL@@QAE?AVlocale@2@ABV32@@Z" PURGE="8" COMMENT="" />
    <EXPORT ORDINAL="1542" NAME="?in@?$codecvt@DDH@_STL@@QBE?AW4result@codecvt_base@2@AAHPBD1AAPBDPAD3AAPAD@Z" PURGE="-1" COMMENT="" />
    <EXPORT ORDINAL="1543" NAME="?in@?$codecvt@GDH@_STL@@QBE?AW4result@codecvt_base@2@HPBD0AAPBDPAG2AAPAG@Z" PURGE="28" COMMENT="" />
    <EXPORT ORDINAL="1544" NAME="?in_avail@?$basic_streambuf@DV?$char_traits@D@_STL@@@_STL@@QAEHXZ" PURGE="0" COMMENT="" />
    <EXPORT ORDINAL="1545" NAME="?in_avail@?$basic_streambuf@GV?$char_traits@G@_STL@@@_STL@@QAEHXZ" PURGE="0" COMMENT="" />
    <EXPORT ORDINAL="1546" NAME="?incr@_Locale@_STL@@UAEXXZ" PURGE="0" COMMENT="" />
    <EXPORT ORDINAL="1547" NAME="?incr@_Locale_impl@_STL@@UAEXXZ" PURGE="0" COMMENT="" />
    <EXPORT ORDINAL="1548" NAME="?init@?$basic_ios@DV?$char_traits@D@_STL@@@_STL@@IAEXPAV?$basic_streambuf@DV?$char_traits@D@_STL@@@2@@Z" PURGE="4" COMMENT="" />
    <EXPORT ORDINAL="1549" NAME="?init@?$basic_ios@GV?$char_traits@G@_STL@@@_STL@@IAEXPAV?$basic_streambuf@GV?$char_traits@G@_STL@@@2@@Z" PURGE="4" COMMENT="" />
    <EXPORT ORDINAL="1550" NAME="?insert@?$basic_string@DV?$char_traits@D@_STL@@V?$allocator@D@2@@_STL@@QAEAAV12@IABV12@@Z" PURGE="8" COMMENT="" />
    <EXPORT ORDINAL="1551" NAME="?insert@?$basic_string@DV?$char_traits@D@_STL@@V?$allocator@D@2@@_STL@@QAEAAV12@IABV12@II@Z" PURGE="16" COMMENT="" />
    <EXPORT ORDINAL="1552" NAME="?insert@?$basic_string@DV?$char_traits@D@_STL@@V?$allocator@D@2@@_STL@@QAEAAV12@IID@Z" PURGE="12" COMMENT="" />
    <EXPORT ORDINAL="1553" NAME="?insert@?$basic_string@DV?$char_traits@D@_STL@@V?$allocator@D@2@@_STL@@QAEAAV12@IPBD@Z" PURGE="8" COMMENT="" />
    <EXPORT ORDINAL="1554" NAME="?insert@?$basic_string@DV?$char_traits@D@_STL@@V?$allocator@D@2@@_STL@@QAEAAV12@IPBDI@Z" PURGE="12" COMMENT="" />
    <EXPORT ORDINAL="1555" NAME="?insert@?$basic_string@DV?$char_traits@D@_STL@@V?$allocator@D@2@@_STL@@QAEPADPADD@Z" PURGE="8" COMMENT="" />
    <EXPORT ORDINAL="1556" NAME="?insert@?$basic_string@DV?$char_traits@D@_STL@@V?$allocator@D@2@@_STL@@QAEXPADID@Z" PURGE="12" COMMENT="" />
    <EXPORT ORDINAL="1557" NAME="?insert@?$basic_string@GV?$char_traits@G@_STL@@V?$allocator@G@2@@_STL@@QAEAAV12@IABV12@@Z" PURGE="8" COMMENT="" />
    <EXPORT ORDINAL="1558" NAME="?insert@?$basic_string@GV?$char_traits@G@_STL@@V?$allocator@G@2@@_STL@@QAEAAV12@IABV12@II@Z" PURGE="16" COMMENT="" />
    <EXPORT ORDINAL="1559" NAME="?insert@?$basic_string@GV?$char_traits@G@_STL@@V?$allocator@G@2@@_STL@@QAEAAV12@IIG@Z" PURGE="12" COMMENT="" />
    <EXPORT ORDINAL="1560" NAME="?insert@?$basic_string@GV?$char_traits@G@_STL@@V?$allocator@G@2@@_STL@@QAEAAV12@IPBG@Z" PURGE="8" COMMENT="" />
    <EXPORT ORDINAL="1561" NAME="?insert@?$basic_string@GV?$char_traits@G@_STL@@V?$allocator@G@2@@_STL@@QAEAAV12@IPBGI@Z" PURGE="12" COMMENT="" />
    <EXPORT ORDINAL="1562" NAME="?insert@?$basic_string@GV?$char_traits@G@_STL@@V?$allocator@G@2@@_STL@@QAEPAGPAGG@Z" PURGE="8" COMMENT="" />
    <EXPORT ORDINAL="1563" NAME="?insert@?$basic_string@GV?$char_traits@G@_STL@@V?$allocator@G@2@@_STL@@QAEXPAGIG@Z" PURGE="12" COMMENT="" />
    <EXPORT ORDINAL="1564" NAME="?insert@?$vector@PAXV?$allocator@PAX@_STL@@@_STL@@QAEPAPAXPAPAX@Z" PURGE="4" COMMENT="" />
    <EXPORT ORDINAL="1565" NAME="?insert@?$vector@PAXV?$allocator@PAX@_STL@@@_STL@@QAEPAPAXPAPAXABQAX@Z" PURGE="8" COMMENT="" />
    <EXPORT ORDINAL="1566" NAME="?insert@?$vector@PAXV?$allocator@PAX@_STL@@@_STL@@QAEXPAPAXIABQAX@Z" PURGE="12" COMMENT="" />
    <EXPORT ORDINAL="1567" NAME="?insert@_Locale@_STL@@QAEPAVfacet@locale@2@PAV342@I_N@Z" PURGE="12" COMMENT="" />
    <EXPORT ORDINAL="1568" NAME="?insert@_Locale@_STL@@QAEXPAV_Locale_impl@2@ABVid@locale@2@@Z" PURGE="8" COMMENT="" />
    <EXPORT ORDINAL="1569" NAME="?insert_collate_facets@_Locale@_STL@@QAEXPBD@Z" PURGE="4" COMMENT="" />
    <EXPORT ORDINAL="1570" NAME="?insert_ctype_facets@_Locale@_STL@@QAEXPBD@Z" PURGE="4" COMMENT="" />
    <EXPORT ORDINAL="1571" NAME="?insert_messages_facets@_Locale@_STL@@QAEXPBD@Z" PURGE="4" COMMENT="" />
    <EXPORT ORDINAL="1572" NAME="?insert_monetary_facets@_Locale@_STL@@QAEXPBD@Z" PURGE="4" COMMENT="" />
    <EXPORT ORDINAL="1573" NAME="?insert_numeric_facets@_Locale@_STL@@QAEXPBD@Z" PURGE="4" COMMENT="" />
    <EXPORT ORDINAL="1574" NAME="?insert_time_facets@_Locale@_STL@@QAEXPBD@Z" PURGE="4" COMMENT="" />
    <EXPORT ORDINAL="1575" NAME="?is@?$ctype@D@_STL@@QBEPBDPBD0PAW4mask@ctype_base@2@@Z" PURGE="12" COMMENT="" />
    <EXPORT ORDINAL="1576" NAME="?is@?$ctype@D@_STL@@QBE_NW4mask@ctype_base@2@D@Z" PURGE="8" COMMENT="" />
    <EXPORT ORDINAL="1577" NAME="?is@?$ctype@G@_STL@@QBEPBGPBG0PAW4mask@ctype_base@2@@Z" PURGE="-1" COMMENT="" />
    <EXPORT ORDINAL="1578" NAME="?is@?$ctype@G@_STL@@QBE_NW4mask@ctype_base@2@G@Z" PURGE="-1" COMMENT="" />
    <EXPORT ORDINAL="1579" NAME="?is_open@?$basic_filebuf@DV?$char_traits@D@_STL@@@_STL@@QBE_NXZ" PURGE="0" COMMENT="" />
    <EXPORT ORDINAL="1580" NAME="?is_open@?$basic_filebuf@GV?$char_traits@G@_STL@@@_STL@@QBE_NXZ" PURGE="0" COMMENT="" />
    <EXPORT ORDINAL="1581" NAME="?is_open@?$basic_fstream@DV?$char_traits@D@_STL@@@_STL@@QAE_NXZ" PURGE="0" COMMENT="" />
    <EXPORT ORDINAL="1582" NAME="?is_open@?$basic_fstream@GV?$char_traits@G@_STL@@@_STL@@QAE_NXZ" PURGE="0" COMMENT="" />
    <EXPORT ORDINAL="1583" NAME="?is_open@?$basic_ifstream@DV?$char_traits@D@_STL@@@_STL@@QAE_NXZ" PURGE="0" COMMENT="" />
    <EXPORT ORDINAL="1584" NAME="?is_open@?$basic_ifstream@GV?$char_traits@G@_STL@@@_STL@@QAE_NXZ" PURGE="0" COMMENT="" />
    <EXPORT ORDINAL="1585" NAME="?is_open@?$basic_ofstream@DV?$char_traits@D@_STL@@@_STL@@QAE_NXZ" PURGE="0" COMMENT="" />
    <EXPORT ORDINAL="1586" NAME="?is_open@?$basic_ofstream@GV?$char_traits@G@_STL@@@_STL@@QAE_NXZ" PURGE="0" COMMENT="" />
    <EXPORT ORDINAL="1587" NAME="?iword@ios_base@_STL@@QAEAAJH@Z" PURGE="4" COMMENT="" />
    <EXPORT ORDINAL="1588" NAME="?length@?$__char_traits_base@DH@_STL@@SAIPBD@Z" PURGE="0" COMMENT="" />
    <EXPORT ORDINAL="1589" NAME="?length@?$__char_traits_base@GG@_STL@@SAIPBG@Z" PURGE="0" COMMENT="" />
    <EXPORT ORDINAL="1590" NAME="?length@?$basic_string@DV?$char_traits@D@_STL@@V?$allocator@D@2@@_STL@@QBEIXZ" PURGE="0" COMMENT="" />
    <EXPORT ORDINAL="1591" NAME="?length@?$basic_string@GV?$char_traits@G@_STL@@V?$allocator@G@2@@_STL@@QBEIXZ" PURGE="0" COMMENT="" />
    <EXPORT ORDINAL="1592" NAME="?length@?$char_traits@D@_STL@@SAIPBD@Z" PURGE="0" COMMENT="" />
    <EXPORT ORDINAL="1593" NAME="?length@?$codecvt@DDH@_STL@@QBEHABHPBD1I@Z" PURGE="-1" COMMENT="" />
    <EXPORT ORDINAL="1594" NAME="?length@?$codecvt@GDH@_STL@@QBEHABHPBD1I@Z" PURGE="-1" COMMENT="" />
    <EXPORT ORDINAL="1595" NAME="?log10@_STL@@YA?AU?$complex@M@1@ABU21@@Z" PURGE="0" COMMENT="" />
    <EXPORT ORDINAL="1596" NAME="?log10@_STL@@YA?AU?$complex@N@1@ABU21@@Z" PURGE="0" COMMENT="" />
    <EXPORT ORDINAL="1597" NAME="?log10@_STL@@YA?AU?$complex@O@1@ABU21@@Z" PURGE="0" COMMENT="" />
    <EXPORT ORDINAL="1598" NAME="?log@_STL@@YA?AU?$complex@M@1@ABU21@@Z" PURGE="0" COMMENT="" />
    <EXPORT ORDINAL="1599" NAME="?log@_STL@@YA?AU?$complex@N@1@ABU21@@Z" PURGE="0" COMMENT="" />
    <EXPORT ORDINAL="1600" NAME="?log@_STL@@YA?AU?$complex@O@1@ABU21@@Z" PURGE="0" COMMENT="" />
    <EXPORT ORDINAL="1601" NAME="?lt@?$__char_traits_base@DH@_STL@@SA_NABD0@Z" PURGE="0" COMMENT="" />
    <EXPORT ORDINAL="1602" NAME="?lt@?$__char_traits_base@GG@_STL@@SA_NABG0@Z" PURGE="0" COMMENT="" />
    <EXPORT ORDINAL="1603" NAME="?make_classic_locale@_Locale_impl@_STL@@SAPAV12@XZ" PURGE="0" COMMENT="" />
    <EXPORT ORDINAL="1604" NAME="?max_length@?$codecvt@DDH@_STL@@QBEHXZ" PURGE="-1" COMMENT="" />
    <EXPORT ORDINAL="1605" NAME="?max_length@?$codecvt@GDH@_STL@@QBEHXZ" PURGE="-1" COMMENT="" />
    <EXPORT ORDINAL="1606" NAME="?max_size@?$_String_base@DV?$allocator@D@_STL@@@_STL@@QBEIXZ" PURGE="0" COMMENT="" />
    <EXPORT ORDINAL="1607" NAME="?max_size@?$_String_base@GV?$allocator@G@_STL@@@_STL@@QBEIXZ" PURGE="0" COMMENT="" />
    <EXPORT ORDINAL="1608" NAME="?max_size@?$allocator@D@_STL@@QBEIXZ" PURGE="0" COMMENT="" />
    <EXPORT ORDINAL="1609" NAME="?max_size@?$allocator@G@_STL@@QBEIXZ" PURGE="0" COMMENT="" />
    <EXPORT ORDINAL="1610" NAME="?max_size@?$allocator@PAX@_STL@@QBEIXZ" PURGE="0" COMMENT="" />
    <EXPORT ORDINAL="1611" NAME="?max_size@?$basic_string@DV?$char_traits@D@_STL@@V?$allocator@D@2@@_STL@@QBEIXZ" PURGE="0" COMMENT="" />
    <EXPORT ORDINAL="1612" NAME="?max_size@?$basic_string@GV?$char_traits@G@_STL@@V?$allocator@G@2@@_STL@@QBEIXZ" PURGE="0" COMMENT="" />
    <EXPORT ORDINAL="1613" NAME="?max_size@?$vector@PAXV?$allocator@PAX@_STL@@@_STL@@QBEIXZ" PURGE="0" COMMENT="" />
    <EXPORT ORDINAL="1614" NAME="?move@?$__char_traits_base@DH@_STL@@SAPADPADPBDI@Z" PURGE="0" COMMENT="" />
    <EXPORT ORDINAL="1615" NAME="?move@?$__char_traits_base@GG@_STL@@SAPAGPAGPBGI@Z" PURGE="0" COMMENT="" />
    <EXPORT ORDINAL="1616" NAME="?name@locale@_STL@@QBE?AV?$basic_string@DV?$char_traits@D@_STL@@V?$allocator@D@2@@2@XZ" PURGE="4" COMMENT="" />
    <EXPORT ORDINAL="1617" NAME="?narrow@?$basic_ios@DV?$char_traits@D@_STL@@@_STL@@QBEDDD@Z" PURGE="8" COMMENT="" />
    <EXPORT ORDINAL="1618" NAME="?narrow@?$basic_ios@GV?$char_traits@G@_STL@@@_STL@@QBEDGD@Z" PURGE="8" COMMENT="" />
    <EXPORT ORDINAL="1619" NAME="?narrow@?$ctype@D@_STL@@QBEDDD@Z" PURGE="-1" COMMENT="" />
    <EXPORT ORDINAL="1620" NAME="?narrow@?$ctype@D@_STL@@QBEPBDPBD0DPAD@Z" PURGE="-1" COMMENT="" />
    <EXPORT ORDINAL="1621" NAME="?narrow@?$ctype@G@_STL@@QBEDGD@Z" PURGE="-1" COMMENT="" />
    <EXPORT ORDINAL="1622" NAME="?narrow@?$ctype@G@_STL@@QBEPBGPBG0DPAD@Z" PURGE="-1" COMMENT="" />
    <EXPORT ORDINAL="1623" NAME="?neg_format@?$moneypunct@D$00@_STL@@QBE?AUpattern@money_base@2@XZ" PURGE="4" COMMENT="" />
    <EXPORT ORDINAL="1624" NAME="?neg_format@?$moneypunct@D$0A@@_STL@@QBE?AUpattern@money_base@2@XZ" PURGE="4" COMMENT="" />
    <EXPORT ORDINAL="1625" NAME="?neg_format@?$moneypunct@G$00@_STL@@QBE?AUpattern@money_base@2@XZ" PURGE="4" COMMENT="" />
    <EXPORT ORDINAL="1626" NAME="?neg_format@?$moneypunct@G$0A@@_STL@@QBE?AUpattern@money_base@2@XZ" PURGE="4" COMMENT="" />
    <EXPORT ORDINAL="1627" NAME="?negative_sign@?$moneypunct@D$00@_STL@@QBE?AV?$basic_string@DV?$char_traits@D@_STL@@V?$allocator@D@2@@2@XZ" PURGE="4" COMMENT="" />
    <EXPORT ORDINAL="1628" NAME="?negative_sign@?$moneypunct@D$0A@@_STL@@QBE?AV?$basic_string@DV?$char_traits@D@_STL@@V?$allocator@D@2@@2@XZ" PURGE="4" COMMENT="" />
    <EXPORT ORDINAL="1629" NAME="?negative_sign@?$moneypunct@G$00@_STL@@QBE?AV?$basic_string@GV?$char_traits@G@_STL@@V?$allocator@G@2@@2@XZ" PURGE="4" COMMENT="" />
    <EXPORT ORDINAL="1630" NAME="?negative_sign@?$moneypunct@G$0A@@_STL@@QBE?AV?$basic_string@GV?$char_traits@G@_STL@@V?$allocator@G@2@@2@XZ" PURGE="4" COMMENT="" />
    <EXPORT ORDINAL="1631" NAME="?not_eof@?$__char_traits_base@DH@_STL@@SAHABH@Z" PURGE="0" COMMENT="" />
    <EXPORT ORDINAL="1632" NAME="?not_eof@?$__char_traits_base@GG@_STL@@SAGABG@Z" PURGE="0" COMMENT="" />
    <EXPORT ORDINAL="1633" NAME="?open@?$basic_filebuf@DV?$char_traits@D@_STL@@@_STL@@QAEPAV12@HH@Z" PURGE="8" COMMENT="" />
    <EXPORT ORDINAL="1634" NAME="?open@?$basic_filebuf@DV?$char_traits@D@_STL@@@_STL@@QAEPAV12@PBDH@Z" PURGE="8" COMMENT="" />
    <EXPORT ORDINAL="1635" NAME="?open@?$basic_filebuf@DV?$char_traits@D@_STL@@@_STL@@QAEPAV12@PBDHJ@Z" PURGE="12" COMMENT="" />
    <EXPORT ORDINAL="1636" NAME="?open@?$basic_filebuf@GV?$char_traits@G@_STL@@@_STL@@QAEPAV12@HH@Z" PURGE="8" COMMENT="" />
    <EXPORT ORDINAL="1637" NAME="?open@?$basic_filebuf@GV?$char_traits@G@_STL@@@_STL@@QAEPAV12@PBDH@Z" PURGE="8" COMMENT="" />
    <EXPORT ORDINAL="1638" NAME="?open@?$basic_filebuf@GV?$char_traits@G@_STL@@@_STL@@QAEPAV12@PBDHJ@Z" PURGE="12" COMMENT="" />
    <EXPORT ORDINAL="1639" NAME="?open@?$basic_fstream@DV?$char_traits@D@_STL@@@_STL@@QAEXPBDH@Z" PURGE="8" COMMENT="" />
    <EXPORT ORDINAL="1640" NAME="?open@?$basic_fstream@GV?$char_traits@G@_STL@@@_STL@@QAEXPBDH@Z" PURGE="8" COMMENT="" />
    <EXPORT ORDINAL="1641" NAME="?open@?$basic_ifstream@DV?$char_traits@D@_STL@@@_STL@@QAEXPBDH@Z" PURGE="8" COMMENT="" />
    <EXPORT ORDINAL="1642" NAME="?open@?$basic_ifstream@GV?$char_traits@G@_STL@@@_STL@@QAEXPBDH@Z" PURGE="8" COMMENT="" />
    <EXPORT ORDINAL="1643" NAME="?open@?$basic_ofstream@DV?$char_traits@D@_STL@@@_STL@@QAEXPBDH@Z" PURGE="8" COMMENT="" />
    <EXPORT ORDINAL="1644" NAME="?open@?$basic_ofstream@GV?$char_traits@G@_STL@@@_STL@@QAEXPBDH@Z" PURGE="8" COMMENT="" />
    <EXPORT ORDINAL="1645" NAME="?open@?$messages@D@_STL@@QBEHABV?$basic_string@DV?$char_traits@D@_STL@@V?$allocator@D@2@@2@ABVlocale@2@@Z" PURGE="-1" COMMENT="" />
    <EXPORT ORDINAL="1646" NAME="?open@?$messages@G@_STL@@QBEHABV?$basic_string@DV?$char_traits@D@_STL@@V?$allocator@D@2@@2@ABVlocale@2@@Z" PURGE="-1" COMMENT="" />
    <EXPORT ORDINAL="1647" NAME="?out@?$codecvt@DDH@_STL@@QBE?AW4result@codecvt_base@2@HPBD0AAPBDPAD2AAPAD@Z" PURGE="28" COMMENT="" />
    <EXPORT ORDINAL="1648" NAME="?out@?$codecvt@GDH@_STL@@QBE?AW4result@codecvt_base@2@HPBG0AAPBGPAD2AAPAD@Z" PURGE="28" COMMENT="" />
    <EXPORT ORDINAL="1649" NAME="?overflow@?$basic_filebuf@DV?$char_traits@D@_STL@@@_STL@@MAEHH@Z" PURGE="4" COMMENT="" />
    <EXPORT ORDINAL="1650" NAME="?overflow@?$basic_filebuf@GV?$char_traits@G@_STL@@@_STL@@MAEGG@Z" PURGE="4" COMMENT="" />
    <EXPORT ORDINAL="1651" NAME="?overflow@?$basic_streambuf@DV?$char_traits@D@_STL@@@_STL@@MAEHH@Z" PURGE="4" COMMENT="" />
    <EXPORT ORDINAL="1652" NAME="?overflow@?$basic_streambuf@GV?$char_traits@G@_STL@@@_STL@@MAEGG@Z" PURGE="4" COMMENT="" />
    <EXPORT ORDINAL="1653" NAME="?overflow@?$basic_stringbuf@DV?$char_traits@D@_STL@@V?$allocator@D@2@@_STL@@IAEHXZ" PURGE="0" COMMENT="" />
    <EXPORT ORDINAL="1654" NAME="?overflow@?$basic_stringbuf@DV?$char_traits@D@_STL@@V?$allocator@D@2@@_STL@@MAEHH@Z" PURGE="4" COMMENT="" />
    <EXPORT ORDINAL="1655" NAME="?overflow@?$basic_stringbuf@GV?$char_traits@G@_STL@@V?$allocator@G@2@@_STL@@IAEGXZ" PURGE="0" COMMENT="" />
    <EXPORT ORDINAL="1656" NAME="?overflow@?$basic_stringbuf@GV?$char_traits@G@_STL@@V?$allocator@G@2@@_STL@@MAEGG@Z" PURGE="4" COMMENT="" />
    <EXPORT ORDINAL="1657" NAME="?overflow@strstreambuf@_STL@@MAEHH@Z" PURGE="4" COMMENT="" />
    <EXPORT ORDINAL="1658" NAME="?pbackfail@?$basic_filebuf@DV?$char_traits@D@_STL@@@_STL@@MAEHH@Z" PURGE="4" COMMENT="" />
    <EXPORT ORDINAL="1659" NAME="?pbackfail@?$basic_filebuf@GV?$char_traits@G@_STL@@@_STL@@MAEGG@Z" PURGE="4" COMMENT="" />
    <EXPORT ORDINAL="1660" NAME="?pbackfail@?$basic_streambuf@DV?$char_traits@D@_STL@@@_STL@@MAEHH@Z" PURGE="4" COMMENT="" />
    <EXPORT ORDINAL="1661" NAME="?pbackfail@?$basic_streambuf@GV?$char_traits@G@_STL@@@_STL@@MAEGG@Z" PURGE="4" COMMENT="" />
    <EXPORT ORDINAL="1662" NAME="?pbackfail@?$basic_stringbuf@DV?$char_traits@D@_STL@@V?$allocator@D@2@@_STL@@IAEHXZ" PURGE="0" COMMENT="" />
    <EXPORT ORDINAL="1663" NAME="?pbackfail@?$basic_stringbuf@DV?$char_traits@D@_STL@@V?$allocator@D@2@@_STL@@MAEHH@Z" PURGE="4" COMMENT="" />
    <EXPORT ORDINAL="1664" NAME="?pbackfail@?$basic_stringbuf@GV?$char_traits@G@_STL@@V?$allocator@G@2@@_STL@@IAEGXZ" PURGE="0" COMMENT="" />
    <EXPORT ORDINAL="1665" NAME="?pbackfail@?$basic_stringbuf@GV?$char_traits@G@_STL@@V?$allocator@G@2@@_STL@@MAEGG@Z" PURGE="4" COMMENT="" />
    <EXPORT ORDINAL="1666" NAME="?pbackfail@strstreambuf@_STL@@MAEHH@Z" PURGE="4" COMMENT="" />
    <EXPORT ORDINAL="1667" NAME="?pbase@?$basic_streambuf@DV?$char_traits@D@_STL@@@_STL@@IBEPADXZ" PURGE="0" COMMENT="" />
    <EXPORT ORDINAL="1668" NAME="?pbase@?$basic_streambuf@GV?$char_traits@G@_STL@@@_STL@@IBEPAGXZ" PURGE="0" COMMENT="" />
    <EXPORT ORDINAL="1669" NAME="?pbump@?$basic_streambuf@DV?$char_traits@D@_STL@@@_STL@@IAEXH@Z" PURGE="4" COMMENT="" />
    <EXPORT ORDINAL="1670" NAME="?pbump@?$basic_streambuf@GV?$char_traits@G@_STL@@@_STL@@IAEXH@Z" PURGE="4" COMMENT="" />
    <EXPORT ORDINAL="1671" NAME="?pcount@ostrstream@_STL@@QBEHXZ" PURGE="0" COMMENT="" />
    <EXPORT ORDINAL="1672" NAME="?pcount@strstream@_STL@@QBEHXZ" PURGE="0" COMMENT="" />
    <EXPORT ORDINAL="1673" NAME="?pcount@strstreambuf@_STL@@QBEHXZ" PURGE="0" COMMENT="" />
    <EXPORT ORDINAL="1674" NAME="?peek@?$basic_istream@DV?$char_traits@D@_STL@@@_STL@@QAEHXZ" PURGE="0" COMMENT="" />
    <EXPORT ORDINAL="1675" NAME="?peek@?$basic_istream@GV?$char_traits@G@_STL@@@_STL@@QAEGXZ" PURGE="0" COMMENT="" />
    <EXPORT ORDINAL="1676" NAME="?pop_back@?$basic_string@DV?$char_traits@D@_STL@@V?$allocator@D@2@@_STL@@QAEXXZ" PURGE="0" COMMENT="" />
    <EXPORT ORDINAL="1677" NAME="?pop_back@?$basic_string@GV?$char_traits@G@_STL@@V?$allocator@G@2@@_STL@@QAEXXZ" PURGE="0" COMMENT="" />
    <EXPORT ORDINAL="1678" NAME="?pop_back@?$vector@PAXV?$allocator@PAX@_STL@@@_STL@@QAEXXZ" PURGE="0" COMMENT="" />
    <EXPORT ORDINAL="1679" NAME="?pos_format@?$moneypunct@D$00@_STL@@QBE?AUpattern@money_base@2@XZ" PURGE="4" COMMENT="" />
    <EXPORT ORDINAL="1680" NAME="?pos_format@?$moneypunct@D$0A@@_STL@@QBE?AUpattern@money_base@2@XZ" PURGE="4" COMMENT="" />
    <EXPORT ORDINAL="1681" NAME="?pos_format@?$moneypunct@G$00@_STL@@QBE?AUpattern@money_base@2@XZ" PURGE="4" COMMENT="" />
    <EXPORT ORDINAL="1682" NAME="?pos_format@?$moneypunct@G$0A@@_STL@@QBE?AUpattern@money_base@2@XZ" PURGE="4" COMMENT="" />
    <EXPORT ORDINAL="1683" NAME="?positive_sign@?$moneypunct@D$00@_STL@@QBE?AV?$basic_string@DV?$char_traits@D@_STL@@V?$allocator@D@2@@2@XZ" PURGE="4" COMMENT="" />
    <EXPORT ORDINAL="1684" NAME="?positive_sign@?$moneypunct@D$0A@@_STL@@QBE?AV?$basic_string@DV?$char_traits@D@_STL@@V?$allocator@D@2@@2@XZ" PURGE="4" COMMENT="" />
    <EXPORT ORDINAL="1685" NAME="?positive_sign@?$moneypunct@G$00@_STL@@QBE?AV?$basic_string@GV?$char_traits@G@_STL@@V?$allocator@G@2@@2@XZ" PURGE="4" COMMENT="" />
    <EXPORT ORDINAL="1686" NAME="?positive_sign@?$moneypunct@G$0A@@_STL@@QBE?AV?$basic_string@GV?$char_traits@G@_STL@@V?$allocator@G@2@@2@XZ" PURGE="4" COMMENT="" />
    <EXPORT ORDINAL="1687" NAME="?pow@_STL@@YA?AU?$complex@M@1@ABMABU21@@Z" PURGE="0" COMMENT="" />
    <EXPORT ORDINAL="1688" NAME="?pow@_STL@@YA?AU?$complex@M@1@ABU21@0@Z" PURGE="0" COMMENT="" />
    <EXPORT ORDINAL="1689" NAME="?pow@_STL@@YA?AU?$complex@M@1@ABU21@ABM@Z" PURGE="0" COMMENT="" />
    <EXPORT ORDINAL="1690" NAME="?pow@_STL@@YA?AU?$complex@M@1@ABU21@H@Z" PURGE="0" COMMENT="" />
    <EXPORT ORDINAL="1691" NAME="?pow@_STL@@YA?AU?$complex@N@1@ABNABU21@@Z" PURGE="0" COMMENT="" />
    <EXPORT ORDINAL="1692" NAME="?pow@_STL@@YA?AU?$complex@N@1@ABU21@0@Z" PURGE="0" COMMENT="" />
    <EXPORT ORDINAL="1693" NAME="?pow@_STL@@YA?AU?$complex@N@1@ABU21@ABN@Z" PURGE="0" COMMENT="" />
    <EXPORT ORDINAL="1694" NAME="?pow@_STL@@YA?AU?$complex@N@1@ABU21@H@Z" PURGE="0" COMMENT="" />
    <EXPORT ORDINAL="1695" NAME="?pow@_STL@@YA?AU?$complex@O@1@ABOABU21@@Z" PURGE="0" COMMENT="" />
    <EXPORT ORDINAL="1696" NAME="?pow@_STL@@YA?AU?$complex@O@1@ABU21@0@Z" PURGE="0" COMMENT="" />
    <EXPORT ORDINAL="1697" NAME="?pow@_STL@@YA?AU?$complex@O@1@ABU21@ABO@Z" PURGE="0" COMMENT="" />
    <EXPORT ORDINAL="1698" NAME="?pow@_STL@@YA?AU?$complex@O@1@ABU21@H@Z" PURGE="0" COMMENT="" />
    <EXPORT ORDINAL="1699" NAME="?pptr@?$basic_streambuf@DV?$char_traits@D@_STL@@@_STL@@IBEPADXZ" PURGE="0" COMMENT="" />
    <EXPORT ORDINAL="1700" NAME="?pptr@?$basic_streambuf@GV?$char_traits@G@_STL@@@_STL@@IBEPAGXZ" PURGE="0" COMMENT="" />
    <EXPORT ORDINAL="1701" NAME="?precision@ios_base@_STL@@QAEHH@Z" PURGE="4" COMMENT="" />
    <EXPORT ORDINAL="1702" NAME="?precision@ios_base@_STL@@QBEHXZ" PURGE="0" COMMENT="" />
    <EXPORT ORDINAL="1703" NAME="?pubimbue@?$basic_streambuf@DV?$char_traits@D@_STL@@@_STL@@QAE?AVlocale@2@ABV32@@Z" PURGE="8" COMMENT="" />
    <EXPORT ORDINAL="1704" NAME="?pubimbue@?$basic_streambuf@GV?$char_traits@G@_STL@@@_STL@@QAE?AVlocale@2@ABV32@@Z" PURGE="8" COMMENT="" />
    <EXPORT ORDINAL="1705" NAME="?pubseekoff@?$basic_streambuf@DV?$char_traits@D@_STL@@@_STL@@QAE?AV?$fpos@H@2@JHH@Z" PURGE="16" COMMENT="" />
    <EXPORT ORDINAL="1706" NAME="?pubseekoff@?$basic_streambuf@GV?$char_traits@G@_STL@@@_STL@@QAE?AV?$fpos@H@2@JHH@Z" PURGE="16" COMMENT="" />
    <EXPORT ORDINAL="1707" NAME="?pubseekpos@?$basic_streambuf@DV?$char_traits@D@_STL@@@_STL@@QAE?AV?$fpos@H@2@V32@H@Z" PURGE="16" COMMENT="" />
    <EXPORT ORDINAL="1708" NAME="?pubseekpos@?$basic_streambuf@GV?$char_traits@G@_STL@@@_STL@@QAE?AV?$fpos@H@2@V32@H@Z" PURGE="16" COMMENT="" />
    <EXPORT ORDINAL="1709" NAME="?pubsetbuf@?$basic_streambuf@DV?$char_traits@D@_STL@@@_STL@@QAEPAV12@PADH@Z" PURGE="-1" COMMENT="" />
    <EXPORT ORDINAL="1710" NAME="?pubsetbuf@?$basic_streambuf@GV?$char_traits@G@_STL@@@_STL@@QAEPAV12@PAGH@Z" PURGE="8" COMMENT="" />
    <EXPORT ORDINAL="1711" NAME="?pubsync@?$basic_streambuf@DV?$char_traits@D@_STL@@@_STL@@QAEHXZ" PURGE="-1" COMMENT="" />
    <EXPORT ORDINAL="1712" NAME="?pubsync@?$basic_streambuf@GV?$char_traits@G@_STL@@@_STL@@QAEHXZ" PURGE="0" COMMENT="" />
    <EXPORT ORDINAL="1713" NAME="?push_back@?$basic_string@DV?$char_traits@D@_STL@@V?$allocator@D@2@@_STL@@QAEXD@Z" PURGE="4" COMMENT="" />
    <EXPORT ORDINAL="1714" NAME="?push_back@?$basic_string@GV?$char_traits@G@_STL@@V?$allocator@G@2@@_STL@@QAEXG@Z" PURGE="4" COMMENT="" />
    <EXPORT ORDINAL="1715" NAME="?push_back@?$vector@PAXV?$allocator@PAX@_STL@@@_STL@@QAEXABQAX@Z" PURGE="4" COMMENT="" />
    <EXPORT ORDINAL="1716" NAME="?push_back@?$vector@PAXV?$allocator@PAX@_STL@@@_STL@@QAEXXZ" PURGE="0" COMMENT="" />
    <EXPORT ORDINAL="1717" NAME="?put@?$basic_ostream@DV?$char_traits@D@_STL@@@_STL@@QAEAAV12@D@Z" PURGE="4" COMMENT="" />
    <EXPORT ORDINAL="1718" NAME="?put@?$basic_ostream@GV?$char_traits@G@_STL@@@_STL@@QAEAAV12@G@Z" PURGE="4" COMMENT="" />
    <EXPORT ORDINAL="1719" NAME="?put@?$money_put@DV?$ostreambuf_iterator@DV?$char_traits@D@_STL@@@_STL@@@_STL@@QBE?AV?$ostreambuf_iterator@DV?$char_traits@D@_STL@@@2@V32@_NAAVios_base@2@DABV?$basic_string@DV?$char_traits@D@_STL@@V?$allocator@D@2@@2@@Z" PURGE="28" COMMENT="" />
    <EXPORT ORDINAL="1720" NAME="?put@?$money_put@DV?$ostreambuf_iterator@DV?$char_traits@D@_STL@@@_STL@@@_STL@@QBE?AV?$ostreambuf_iterator@DV?$char_traits@D@_STL@@@2@V32@_NAAVios_base@2@DO@Z" PURGE="32" COMMENT="" />
    <EXPORT ORDINAL="1721" NAME="?put@?$money_put@GV?$ostreambuf_iterator@GV?$char_traits@G@_STL@@@_STL@@@_STL@@QBE?AV?$ostreambuf_iterator@GV?$char_traits@G@_STL@@@2@V32@_NAAVios_base@2@GABV?$basic_string@GV?$char_traits@G@_STL@@V?$allocator@G@2@@2@@Z" PURGE="28" COMMENT="" />
    <EXPORT ORDINAL="1722" NAME="?put@?$money_put@GV?$ostreambuf_iterator@GV?$char_traits@G@_STL@@@_STL@@@_STL@@QBE?AV?$ostreambuf_iterator@GV?$char_traits@G@_STL@@@2@V32@_NAAVios_base@2@GO@Z" PURGE="32" COMMENT="" />
    <EXPORT ORDINAL="1723" NAME="?put@?$num_put@DV?$ostreambuf_iterator@DV?$char_traits@D@_STL@@@_STL@@@_STL@@QBE?AV?$ostreambuf_iterator@DV?$char_traits@D@_STL@@@2@V32@AAVios_base@2@DJ@Z" PURGE="24" COMMENT="" />
    <EXPORT ORDINAL="1724" NAME="?put@?$num_put@DV?$ostreambuf_iterator@DV?$char_traits@D@_STL@@@_STL@@@_STL@@QBE?AV?$ostreambuf_iterator@DV?$char_traits@D@_STL@@@2@V32@AAVios_base@2@DK@Z" PURGE="24" COMMENT="" />
    <EXPORT ORDINAL="1725" NAME="?put@?$num_put@DV?$ostreambuf_iterator@DV?$char_traits@D@_STL@@@_STL@@@_STL@@QBE?AV?$ostreambuf_iterator@DV?$char_traits@D@_STL@@@2@V32@AAVios_base@2@DN@Z" PURGE="28" COMMENT="" />
    <EXPORT ORDINAL="1726" NAME="?put@?$num_put@DV?$ostreambuf_iterator@DV?$char_traits@D@_STL@@@_STL@@@_STL@@QBE?AV?$ostreambuf_iterator@DV?$char_traits@D@_STL@@@2@V32@AAVios_base@2@DO@Z" PURGE="28" COMMENT="" />
    <EXPORT ORDINAL="1727" NAME="?put@?$num_put@DV?$ostreambuf_iterator@DV?$char_traits@D@_STL@@@_STL@@@_STL@@QBE?AV?$ostreambuf_iterator@DV?$char_traits@D@_STL@@@2@V32@AAVios_base@2@DPBX@Z" PURGE="24" COMMENT="" />
    <EXPORT ORDINAL="1728" NAME="?put@?$num_put@DV?$ostreambuf_iterator@DV?$char_traits@D@_STL@@@_STL@@@_STL@@QBE?AV?$ostreambuf_iterator@DV?$char_traits@D@_STL@@@2@V32@AAVios_base@2@D_J@Z" PURGE="28" COMMENT="" />
    <EXPORT ORDINAL="1729" NAME="?put@?$num_put@DV?$ostreambuf_iterator@DV?$char_traits@D@_STL@@@_STL@@@_STL@@QBE?AV?$ostreambuf_iterator@DV?$char_traits@D@_STL@@@2@V32@AAVios_base@2@D_K@Z" PURGE="28" COMMENT="" />
    <EXPORT ORDINAL="1730" NAME="?put@?$num_put@DV?$ostreambuf_iterator@DV?$char_traits@D@_STL@@@_STL@@@_STL@@QBE?AV?$ostreambuf_iterator@DV?$char_traits@D@_STL@@@2@V32@AAVios_base@2@D_N@Z" PURGE="24" COMMENT="" />
    <EXPORT ORDINAL="1731" NAME="?put@?$num_put@GV?$ostreambuf_iterator@GV?$char_traits@G@_STL@@@_STL@@@_STL@@QBE?AV?$ostreambuf_iterator@GV?$char_traits@G@_STL@@@2@V32@AAVios_base@2@GJ@Z" PURGE="24" COMMENT="" />
    <EXPORT ORDINAL="1732" NAME="?put@?$num_put@GV?$ostreambuf_iterator@GV?$char_traits@G@_STL@@@_STL@@@_STL@@QBE?AV?$ostreambuf_iterator@GV?$char_traits@G@_STL@@@2@V32@AAVios_base@2@GK@Z" PURGE="24" COMMENT="" />
    <EXPORT ORDINAL="1733" NAME="?put@?$num_put@GV?$ostreambuf_iterator@GV?$char_traits@G@_STL@@@_STL@@@_STL@@QBE?AV?$ostreambuf_iterator@GV?$char_traits@G@_STL@@@2@V32@AAVios_base@2@GN@Z" PURGE="28" COMMENT="" />
    <EXPORT ORDINAL="1734" NAME="?put@?$num_put@GV?$ostreambuf_iterator@GV?$char_traits@G@_STL@@@_STL@@@_STL@@QBE?AV?$ostreambuf_iterator@GV?$char_traits@G@_STL@@@2@V32@AAVios_base@2@GO@Z" PURGE="28" COMMENT="" />
    <EXPORT ORDINAL="1735" NAME="?put@?$num_put@GV?$ostreambuf_iterator@GV?$char_traits@G@_STL@@@_STL@@@_STL@@QBE?AV?$ostreambuf_iterator@GV?$char_traits@G@_STL@@@2@V32@AAVios_base@2@GPBX@Z" PURGE="24" COMMENT="" />
    <EXPORT ORDINAL="1736" NAME="?put@?$num_put@GV?$ostreambuf_iterator@GV?$char_traits@G@_STL@@@_STL@@@_STL@@QBE?AV?$ostreambuf_iterator@GV?$char_traits@G@_STL@@@2@V32@AAVios_base@2@G_J@Z" PURGE="28" COMMENT="" />
    <EXPORT ORDINAL="1737" NAME="?put@?$num_put@GV?$ostreambuf_iterator@GV?$char_traits@G@_STL@@@_STL@@@_STL@@QBE?AV?$ostreambuf_iterator@GV?$char_traits@G@_STL@@@2@V32@AAVios_base@2@G_K@Z" PURGE="28" COMMENT="" />
    <EXPORT ORDINAL="1738" NAME="?put@?$num_put@GV?$ostreambuf_iterator@GV?$char_traits@G@_STL@@@_STL@@@_STL@@QBE?AV?$ostreambuf_iterator@GV?$char_traits@G@_STL@@@2@V32@AAVios_base@2@G_N@Z" PURGE="24" COMMENT="" />
    <EXPORT ORDINAL="1739" NAME="?put@?$time_put@DV?$ostreambuf_iterator@DV?$char_traits@D@_STL@@@_STL@@@_STL@@QBE?AV?$ostreambuf_iterator@DV?$char_traits@D@_STL@@@2@V32@AAVios_base@2@DPBUtm@@DD@Z" PURGE="32" COMMENT="" />
    <EXPORT ORDINAL="1740" NAME="?put@?$time_put@DV?$ostreambuf_iterator@DV?$char_traits@D@_STL@@@_STL@@@_STL@@QBE?AV?$ostreambuf_iterator@DV?$char_traits@D@_STL@@@2@V32@AAVios_base@2@DPBUtm@@PBD3@Z" PURGE="32" COMMENT="" />
    <EXPORT ORDINAL="1741" NAME="?put@?$time_put@GV?$ostreambuf_iterator@GV?$char_traits@G@_STL@@@_STL@@@_STL@@QBE?AV?$ostreambuf_iterator@GV?$char_traits@G@_STL@@@2@V32@AAVios_base@2@GPBUtm@@DD@Z" PURGE="32" COMMENT="" />
    <EXPORT ORDINAL="1742" NAME="?put@?$time_put@GV?$ostreambuf_iterator@GV?$char_traits@G@_STL@@@_STL@@@_STL@@QBE?AV?$ostreambuf_iterator@GV?$char_traits@G@_STL@@@2@V32@AAVios_base@2@GPBUtm@@PBG3@Z" PURGE="32" COMMENT="" />
    <EXPORT ORDINAL="1743" NAME="?putback@?$basic_istream@DV?$char_traits@D@_STL@@@_STL@@QAEAAV12@D@Z" PURGE="4" COMMENT="" />
    <EXPORT ORDINAL="1744" NAME="?putback@?$basic_istream@GV?$char_traits@G@_STL@@@_STL@@QAEAAV12@G@Z" PURGE="4" COMMENT="" />
    <EXPORT ORDINAL="1745" NAME="?pword@ios_base@_STL@@QAEAAPAXH@Z" PURGE="4" COMMENT="" />
    <EXPORT ORDINAL="1746" NAME="?rbegin@?$basic_string@DV?$char_traits@D@_STL@@V?$allocator@D@2@@_STL@@QAE?AV?$reverse_iterator@PAD@2@XZ" PURGE="4" COMMENT="" />
    <EXPORT ORDINAL="1747" NAME="?rbegin@?$basic_string@DV?$char_traits@D@_STL@@V?$allocator@D@2@@_STL@@QBE?AV?$reverse_iterator@PBD@2@XZ" PURGE="4" COMMENT="" />
    <EXPORT ORDINAL="1748" NAME="?rbegin@?$basic_string@GV?$char_traits@G@_STL@@V?$allocator@G@2@@_STL@@QAE?AV?$reverse_iterator@PAG@2@XZ" PURGE="4" COMMENT="" />
    <EXPORT ORDINAL="1749" NAME="?rbegin@?$basic_string@GV?$char_traits@G@_STL@@V?$allocator@G@2@@_STL@@QBE?AV?$reverse_iterator@PBG@2@XZ" PURGE="4" COMMENT="" />
    <EXPORT ORDINAL="1750" NAME="?rbegin@?$vector@PAXV?$allocator@PAX@_STL@@@_STL@@QAE?AV?$reverse_iterator@PAPAX@2@XZ" PURGE="4" COMMENT="" />
    <EXPORT ORDINAL="1751" NAME="?rbegin@?$vector@PAXV?$allocator@PAX@_STL@@@_STL@@QBE?AV?$reverse_iterator@PBQAX@2@XZ" PURGE="4" COMMENT="" />
    <EXPORT ORDINAL="1752" NAME="?rdbuf@?$basic_fstream@DV?$char_traits@D@_STL@@@_STL@@QBEPAV?$basic_filebuf@DV?$char_traits@D@_STL@@@2@XZ" PURGE="0" COMMENT="" />
    <EXPORT ORDINAL="1753" NAME="?rdbuf@?$basic_fstream@GV?$char_traits@G@_STL@@@_STL@@QBEPAV?$basic_filebuf@GV?$char_traits@G@_STL@@@2@XZ" PURGE="0" COMMENT="" />
    <EXPORT ORDINAL="1754" NAME="?rdbuf@?$basic_ifstream@DV?$char_traits@D@_STL@@@_STL@@QBEPAV?$basic_filebuf@DV?$char_traits@D@_STL@@@2@XZ" PURGE="0" COMMENT="" />
    <EXPORT ORDINAL="1755" NAME="?rdbuf@?$basic_ifstream@GV?$char_traits@G@_STL@@@_STL@@QBEPAV?$basic_filebuf@GV?$char_traits@G@_STL@@@2@XZ" PURGE="0" COMMENT="" />
    <EXPORT ORDINAL="1756" NAME="?rdbuf@?$basic_ios@DV?$char_traits@D@_STL@@@_STL@@QAEPAV?$basic_streambuf@DV?$char_traits@D@_STL@@@2@PAV32@@Z" PURGE="4" COMMENT="" />
    <EXPORT ORDINAL="1757" NAME="?rdbuf@?$basic_ios@DV?$char_traits@D@_STL@@@_STL@@QBEPAV?$basic_streambuf@DV?$char_traits@D@_STL@@@2@XZ" PURGE="0" COMMENT="" />
    <EXPORT ORDINAL="1758" NAME="?rdbuf@?$basic_ios@GV?$char_traits@G@_STL@@@_STL@@QAEPAV?$basic_streambuf@GV?$char_traits@G@_STL@@@2@PAV32@@Z" PURGE="4" COMMENT="" />
    <EXPORT ORDINAL="1759" NAME="?rdbuf@?$basic_ios@GV?$char_traits@G@_STL@@@_STL@@QBEPAV?$basic_streambuf@GV?$char_traits@G@_STL@@@2@XZ" PURGE="0" COMMENT="" />
    <EXPORT ORDINAL="1760" NAME="?rdbuf@?$basic_istringstream@DV?$char_traits@D@_STL@@V?$allocator@D@2@@_STL@@QBEPAV?$basic_stringbuf@DV?$char_traits@D@_STL@@V?$allocator@D@2@@2@XZ" PURGE="0" COMMENT="" />
    <EXPORT ORDINAL="1761" NAME="?rdbuf@?$basic_istringstream@GV?$char_traits@G@_STL@@V?$allocator@G@2@@_STL@@QBEPAV?$basic_stringbuf@GV?$char_traits@G@_STL@@V?$allocator@G@2@@2@XZ" PURGE="0" COMMENT="" />
    <EXPORT ORDINAL="1762" NAME="?rdbuf@?$basic_ofstream@DV?$char_traits@D@_STL@@@_STL@@QBEPAV?$basic_filebuf@DV?$char_traits@D@_STL@@@2@XZ" PURGE="0" COMMENT="" />
    <EXPORT ORDINAL="1763" NAME="?rdbuf@?$basic_ofstream@GV?$char_traits@G@_STL@@@_STL@@QBEPAV?$basic_filebuf@GV?$char_traits@G@_STL@@@2@XZ" PURGE="0" COMMENT="" />
    <EXPORT ORDINAL="1764" NAME="?rdbuf@?$basic_ostringstream@DV?$char_traits@D@_STL@@V?$allocator@D@2@@_STL@@QBEPAV?$basic_stringbuf@DV?$char_traits@D@_STL@@V?$allocator@D@2@@2@XZ" PURGE="0" COMMENT="" />
    <EXPORT ORDINAL="1765" NAME="?rdbuf@?$basic_ostringstream@GV?$char_traits@G@_STL@@V?$allocator@G@2@@_STL@@QBEPAV?$basic_stringbuf@GV?$char_traits@G@_STL@@V?$allocator@G@2@@2@XZ" PURGE="0" COMMENT="" />
    <EXPORT ORDINAL="1766" NAME="?rdbuf@?$basic_stringstream@DV?$char_traits@D@_STL@@V?$allocator@D@2@@_STL@@QBEPAV?$basic_stringbuf@DV?$char_traits@D@_STL@@V?$allocator@D@2@@2@XZ" PURGE="0" COMMENT="" />
    <EXPORT ORDINAL="1767" NAME="?rdbuf@?$basic_stringstream@GV?$char_traits@G@_STL@@V?$allocator@G@2@@_STL@@QBEPAV?$basic_stringbuf@GV?$char_traits@G@_STL@@V?$allocator@G@2@@2@XZ" PURGE="0" COMMENT="" />
    <EXPORT ORDINAL="1768" NAME="?rdbuf@istrstream@_STL@@QBEPAVstrstreambuf@2@XZ" PURGE="0" COMMENT="" />
    <EXPORT ORDINAL="1769" NAME="?rdbuf@ostrstream@_STL@@QBEPAVstrstreambuf@2@XZ" PURGE="0" COMMENT="" />
    <EXPORT ORDINAL="1770" NAME="?rdbuf@strstream@_STL@@QBEPAVstrstreambuf@2@XZ" PURGE="0" COMMENT="" />
    <EXPORT ORDINAL="1771" NAME="?rdstate@ios_base@_STL@@QBEHXZ" PURGE="0" COMMENT="" />
    <EXPORT ORDINAL="1772" NAME="?read@?$basic_istream@DV?$char_traits@D@_STL@@@_STL@@QAEAAV12@PADH@Z" PURGE="8" COMMENT="" />
    <EXPORT ORDINAL="1773" NAME="?read@?$basic_istream@GV?$char_traits@G@_STL@@@_STL@@QAEAAV12@PAGH@Z" PURGE="8" COMMENT="" />
    <EXPORT ORDINAL="1774" NAME="?readsome@?$basic_istream@DV?$char_traits@D@_STL@@@_STL@@QAEHPADH@Z" PURGE="8" COMMENT="" />
    <EXPORT ORDINAL="1775" NAME="?readsome@?$basic_istream@GV?$char_traits@G@_STL@@@_STL@@QAEHPAGH@Z" PURGE="8" COMMENT="" />
    <EXPORT ORDINAL="1776" NAME="?real@?$complex@M@_STL@@QBEMXZ" PURGE="0" COMMENT="" />
    <EXPORT ORDINAL="1777" NAME="?real@?$complex@N@_STL@@QBENXZ" PURGE="0" COMMENT="" />
    <EXPORT ORDINAL="1778" NAME="?real@?$complex@O@_STL@@QBEOXZ" PURGE="0" COMMENT="" />
    <EXPORT ORDINAL="1779" NAME="?register_callback@ios_base@_STL@@QAEXP6AXW4event@12@AAV12@H@ZH@Z" PURGE="8" COMMENT="" />
    <EXPORT ORDINAL="1780" NAME="?remove@_Locale@_STL@@QAEXI@Z" PURGE="4" COMMENT="" />
    <EXPORT ORDINAL="1781" NAME="?rend@?$basic_string@DV?$char_traits@D@_STL@@V?$allocator@D@2@@_STL@@QAE?AV?$reverse_iterator@PAD@2@XZ" PURGE="4" COMMENT="" />
    <EXPORT ORDINAL="1782" NAME="?rend@?$basic_string@DV?$char_traits@D@_STL@@V?$allocator@D@2@@_STL@@QBE?AV?$reverse_iterator@PBD@2@XZ" PURGE="4" COMMENT="" />
    <EXPORT ORDINAL="1783" NAME="?rend@?$basic_string@GV?$char_traits@G@_STL@@V?$allocator@G@2@@_STL@@QAE?AV?$reverse_iterator@PAG@2@XZ" PURGE="4" COMMENT="" />
    <EXPORT ORDINAL="1784" NAME="?rend@?$basic_string@GV?$char_traits@G@_STL@@V?$allocator@G@2@@_STL@@QBE?AV?$reverse_iterator@PBG@2@XZ" PURGE="4" COMMENT="" />
    <EXPORT ORDINAL="1785" NAME="?rend@?$vector@PAXV?$allocator@PAX@_STL@@@_STL@@QAE?AV?$reverse_iterator@PAPAX@2@XZ" PURGE="4" COMMENT="" />
    <EXPORT ORDINAL="1786" NAME="?rend@?$vector@PAXV?$allocator@PAX@_STL@@@_STL@@QBE?AV?$reverse_iterator@PBQAX@2@XZ" PURGE="4" COMMENT="" />
    <EXPORT ORDINAL="1787" NAME="?replace@?$basic_string@DV?$char_traits@D@_STL@@V?$allocator@D@2@@_STL@@QAEAAV12@IIABV12@@Z" PURGE="12" COMMENT="" />
    <EXPORT ORDINAL="1788" NAME="?replace@?$basic_string@DV?$char_traits@D@_STL@@V?$allocator@D@2@@_STL@@QAEAAV12@IIABV12@II@Z" PURGE="20" COMMENT="" />
    <EXPORT ORDINAL="1789" NAME="?replace@?$basic_string@DV?$char_traits@D@_STL@@V?$allocator@D@2@@_STL@@QAEAAV12@IIID@Z" PURGE="16" COMMENT="" />
    <EXPORT ORDINAL="1790" NAME="?replace@?$basic_string@DV?$char_traits@D@_STL@@V?$allocator@D@2@@_STL@@QAEAAV12@IIPBD@Z" PURGE="12" COMMENT="" />
    <EXPORT ORDINAL="1791" NAME="?replace@?$basic_string@DV?$char_traits@D@_STL@@V?$allocator@D@2@@_STL@@QAEAAV12@IIPBDI@Z" PURGE="16" COMMENT="" />
    <EXPORT ORDINAL="1792" NAME="?replace@?$basic_string@DV?$char_traits@D@_STL@@V?$allocator@D@2@@_STL@@QAEAAV12@PAD0ABV12@@Z" PURGE="12" COMMENT="" />
    <EXPORT ORDINAL="1793" NAME="?replace@?$basic_string@DV?$char_traits@D@_STL@@V?$allocator@D@2@@_STL@@QAEAAV12@PAD0ID@Z" PURGE="16" COMMENT="" />
    <EXPORT ORDINAL="1794" NAME="?replace@?$basic_string@DV?$char_traits@D@_STL@@V?$allocator@D@2@@_STL@@QAEAAV12@PAD0PBD@Z" PURGE="12" COMMENT="" />
    <EXPORT ORDINAL="1795" NAME="?replace@?$basic_string@DV?$char_traits@D@_STL@@V?$allocator@D@2@@_STL@@QAEAAV12@PAD0PBDI@Z" PURGE="16" COMMENT="" />
    <EXPORT ORDINAL="1796" NAME="?replace@?$basic_string@GV?$char_traits@G@_STL@@V?$allocator@G@2@@_STL@@QAEAAV12@IIABV12@@Z" PURGE="12" COMMENT="" />
    <EXPORT ORDINAL="1797" NAME="?replace@?$basic_string@GV?$char_traits@G@_STL@@V?$allocator@G@2@@_STL@@QAEAAV12@IIABV12@II@Z" PURGE="20" COMMENT="" />
    <EXPORT ORDINAL="1798" NAME="?replace@?$basic_string@GV?$char_traits@G@_STL@@V?$allocator@G@2@@_STL@@QAEAAV12@IIIG@Z" PURGE="16" COMMENT="" />
    <EXPORT ORDINAL="1799" NAME="?replace@?$basic_string@GV?$char_traits@G@_STL@@V?$allocator@G@2@@_STL@@QAEAAV12@IIPBG@Z" PURGE="12" COMMENT="" />
    <EXPORT ORDINAL="1800" NAME="?replace@?$basic_string@GV?$char_traits@G@_STL@@V?$allocator@G@2@@_STL@@QAEAAV12@IIPBGI@Z" PURGE="16" COMMENT="" />
    <EXPORT ORDINAL="1801" NAME="?replace@?$basic_string@GV?$char_traits@G@_STL@@V?$allocator@G@2@@_STL@@QAEAAV12@PAG0ABV12@@Z" PURGE="12" COMMENT="" />
    <EXPORT ORDINAL="1802" NAME="?replace@?$basic_string@GV?$char_traits@G@_STL@@V?$allocator@G@2@@_STL@@QAEAAV12@PAG0IG@Z" PURGE="16" COMMENT="" />
    <EXPORT ORDINAL="1803" NAME="?replace@?$basic_string@GV?$char_traits@G@_STL@@V?$allocator@G@2@@_STL@@QAEAAV12@PAG0PBG@Z" PURGE="12" COMMENT="" />
    <EXPORT ORDINAL="1804" NAME="?replace@?$basic_string@GV?$char_traits@G@_STL@@V?$allocator@G@2@@_STL@@QAEAAV12@PAG0PBGI@Z" PURGE="16" COMMENT="" />
    <EXPORT ORDINAL="1805" NAME="?reserve@?$basic_string@DV?$char_traits@D@_STL@@V?$allocator@D@2@@_STL@@QAEXI@Z" PURGE="4" COMMENT="" />
    <EXPORT ORDINAL="1806" NAME="?reserve@?$basic_string@GV?$char_traits@G@_STL@@V?$allocator@G@2@@_STL@@QAEXI@Z" PURGE="4" COMMENT="" />
    <EXPORT ORDINAL="1807" NAME="?reserve@?$vector@PAXV?$allocator@PAX@_STL@@@_STL@@QAEXI@Z" PURGE="4" COMMENT="" />
    <EXPORT ORDINAL="1808" NAME="?resize@?$basic_string@DV?$char_traits@D@_STL@@V?$allocator@D@2@@_STL@@QAEXI@Z" PURGE="4" COMMENT="" />
    <EXPORT ORDINAL="1809" NAME="?resize@?$basic_string@DV?$char_traits@D@_STL@@V?$allocator@D@2@@_STL@@QAEXID@Z" PURGE="8" COMMENT="" />
    <EXPORT ORDINAL="1810" NAME="?resize@?$basic_string@GV?$char_traits@G@_STL@@V?$allocator@G@2@@_STL@@QAEXI@Z" PURGE="4" COMMENT="" />
    <EXPORT ORDINAL="1811" NAME="?resize@?$basic_string@GV?$char_traits@G@_STL@@V?$allocator@G@2@@_STL@@QAEXIG@Z" PURGE="8" COMMENT="" />
    <EXPORT ORDINAL="1812" NAME="?resize@?$vector@PAXV?$allocator@PAX@_STL@@@_STL@@QAEXI@Z" PURGE="4" COMMENT="" />
    <EXPORT ORDINAL="1813" NAME="?resize@?$vector@PAXV?$allocator@PAX@_STL@@@_STL@@QAEXIABQAX@Z" PURGE="8" COMMENT="" />
    <EXPORT ORDINAL="1814" NAME="?rfind@?$basic_string@DV?$char_traits@D@_STL@@V?$allocator@D@2@@_STL@@QBEIABV12@I@Z" PURGE="8" COMMENT="" />
    <EXPORT ORDINAL="1815" NAME="?rfind@?$basic_string@DV?$char_traits@D@_STL@@V?$allocator@D@2@@_STL@@QBEIDI@Z" PURGE="8" COMMENT="" />
    <EXPORT ORDINAL="1816" NAME="?rfind@?$basic_string@DV?$char_traits@D@_STL@@V?$allocator@D@2@@_STL@@QBEIPBDI@Z" PURGE="8" COMMENT="" />
    <EXPORT ORDINAL="1817" NAME="?rfind@?$basic_string@DV?$char_traits@D@_STL@@V?$allocator@D@2@@_STL@@QBEIPBDII@Z" PURGE="12" COMMENT="" />
    <EXPORT ORDINAL="1818" NAME="?rfind@?$basic_string@GV?$char_traits@G@_STL@@V?$allocator@G@2@@_STL@@QBEIABV12@I@Z" PURGE="8" COMMENT="" />
    <EXPORT ORDINAL="1819" NAME="?rfind@?$basic_string@GV?$char_traits@G@_STL@@V?$allocator@G@2@@_STL@@QBEIGI@Z" PURGE="8" COMMENT="" />
    <EXPORT ORDINAL="1820" NAME="?rfind@?$basic_string@GV?$char_traits@G@_STL@@V?$allocator@G@2@@_STL@@QBEIPBGI@Z" PURGE="8" COMMENT="" />
    <EXPORT ORDINAL="1821" NAME="?rfind@?$basic_string@GV?$char_traits@G@_STL@@V?$allocator@G@2@@_STL@@QBEIPBGII@Z" PURGE="12" COMMENT="" />
    <EXPORT ORDINAL="1822" NAME="?sbumpc@?$basic_streambuf@DV?$char_traits@D@_STL@@@_STL@@QAEHXZ" PURGE="0" COMMENT="" />
    <EXPORT ORDINAL="1823" NAME="?sbumpc@?$basic_streambuf@GV?$char_traits@G@_STL@@@_STL@@QAEGXZ" PURGE="0" COMMENT="" />
    <EXPORT ORDINAL="1824" NAME="?scan_is@?$ctype@D@_STL@@QBEPBDW4mask@ctype_base@2@PBD1@Z" PURGE="12" COMMENT="" />
    <EXPORT ORDINAL="1825" NAME="?scan_is@?$ctype@G@_STL@@QBEPBGW4mask@ctype_base@2@PBG1@Z" PURGE="-1" COMMENT="" />
    <EXPORT ORDINAL="1826" NAME="?scan_not@?$ctype@D@_STL@@QBEPBDW4mask@ctype_base@2@PBD1@Z" PURGE="12" COMMENT="" />
    <EXPORT ORDINAL="1827" NAME="?scan_not@?$ctype@G@_STL@@QBEPBGW4mask@ctype_base@2@PBG1@Z" PURGE="-1" COMMENT="" />
    <EXPORT ORDINAL="1828" NAME="?seekg@?$basic_istream@DV?$char_traits@D@_STL@@@_STL@@QAEAAV12@JH@Z" PURGE="8" COMMENT="" />
    <EXPORT ORDINAL="1829" NAME="?seekg@?$basic_istream@DV?$char_traits@D@_STL@@@_STL@@QAEAAV12@V?$fpos@H@2@@Z" PURGE="8" COMMENT="" />
    <EXPORT ORDINAL="1830" NAME="?seekg@?$basic_istream@GV?$char_traits@G@_STL@@@_STL@@QAEAAV12@JH@Z" PURGE="8" COMMENT="" />
    <EXPORT ORDINAL="1831" NAME="?seekg@?$basic_istream@GV?$char_traits@G@_STL@@@_STL@@QAEAAV12@V?$fpos@H@2@@Z" PURGE="8" COMMENT="" />
    <EXPORT ORDINAL="1832" NAME="?seekoff@?$basic_filebuf@DV?$char_traits@D@_STL@@@_STL@@MAE?AV?$fpos@H@2@JHH@Z" PURGE="16" COMMENT="" />
    <EXPORT ORDINAL="1833" NAME="?seekoff@?$basic_filebuf@GV?$char_traits@G@_STL@@@_STL@@MAE?AV?$fpos@H@2@JHH@Z" PURGE="16" COMMENT="" />
    <EXPORT ORDINAL="1834" NAME="?seekoff@?$basic_streambuf@DV?$char_traits@D@_STL@@@_STL@@MAE?AV?$fpos@H@2@JHH@Z" PURGE="16" COMMENT="" />
    <EXPORT ORDINAL="1835" NAME="?seekoff@?$basic_streambuf@GV?$char_traits@G@_STL@@@_STL@@MAE?AV?$fpos@H@2@JHH@Z" PURGE="16" COMMENT="" />
    <EXPORT ORDINAL="1836" NAME="?seekoff@?$basic_stringbuf@DV?$char_traits@D@_STL@@V?$allocator@D@2@@_STL@@MAE?AV?$fpos@H@2@JHH@Z" PURGE="16" COMMENT="" />
    <EXPORT ORDINAL="1837" NAME="?seekoff@?$basic_stringbuf@GV?$char_traits@G@_STL@@V?$allocator@G@2@@_STL@@MAE?AV?$fpos@H@2@JHH@Z" PURGE="16" COMMENT="" />
    <EXPORT ORDINAL="1838" NAME="?seekoff@strstreambuf@_STL@@MAE?AV?$fpos@H@2@JHH@Z" PURGE="16" COMMENT="" />
    <EXPORT ORDINAL="1839" NAME="?seekp@?$basic_ostream@DV?$char_traits@D@_STL@@@_STL@@QAEAAV12@JH@Z" PURGE="8" COMMENT="" />
    <EXPORT ORDINAL="1840" NAME="?seekp@?$basic_ostream@DV?$char_traits@D@_STL@@@_STL@@QAEAAV12@V?$fpos@H@2@@Z" PURGE="8" COMMENT="" />
    <EXPORT ORDINAL="1841" NAME="?seekp@?$basic_ostream@GV?$char_traits@G@_STL@@@_STL@@QAEAAV12@JH@Z" PURGE="8" COMMENT="" />
    <EXPORT ORDINAL="1842" NAME="?seekp@?$basic_ostream@GV?$char_traits@G@_STL@@@_STL@@QAEAAV12@V?$fpos@H@2@@Z" PURGE="8" COMMENT="" />
    <EXPORT ORDINAL="1843" NAME="?seekpos@?$basic_filebuf@DV?$char_traits@D@_STL@@@_STL@@MAE?AV?$fpos@H@2@V32@H@Z" PURGE="16" COMMENT="" />
    <EXPORT ORDINAL="1844" NAME="?seekpos@?$basic_filebuf@GV?$char_traits@G@_STL@@@_STL@@MAE?AV?$fpos@H@2@V32@H@Z" PURGE="16" COMMENT="" />
    <EXPORT ORDINAL="1845" NAME="?seekpos@?$basic_streambuf@DV?$char_traits@D@_STL@@@_STL@@MAE?AV?$fpos@H@2@V32@H@Z" PURGE="16" COMMENT="" />
    <EXPORT ORDINAL="1846" NAME="?seekpos@?$basic_streambuf@GV?$char_traits@G@_STL@@@_STL@@MAE?AV?$fpos@H@2@V32@H@Z" PURGE="16" COMMENT="" />
    <EXPORT ORDINAL="1847" NAME="?seekpos@?$basic_stringbuf@DV?$char_traits@D@_STL@@V?$allocator@D@2@@_STL@@MAE?AV?$fpos@H@2@V32@H@Z" PURGE="16" COMMENT="" />
    <EXPORT ORDINAL="1848" NAME="?seekpos@?$basic_stringbuf@GV?$char_traits@G@_STL@@V?$allocator@G@2@@_STL@@MAE?AV?$fpos@H@2@V32@H@Z" PURGE="16" COMMENT="" />
    <EXPORT ORDINAL="1849" NAME="?seekpos@strstreambuf@_STL@@MAE?AV?$fpos@H@2@V32@H@Z" PURGE="16" COMMENT="" />
    <EXPORT ORDINAL="1850" NAME="?set_malloc_handler@?$__malloc_alloc@$0A@@_STL@@SAP6AXXZP6AXXZ@Z" PURGE="0" COMMENT="" />
    <EXPORT ORDINAL="1851" NAME="?setbuf@?$basic_filebuf@DV?$char_traits@D@_STL@@@_STL@@MAEPAV?$basic_streambuf@DV?$char_traits@D@_STL@@@2@PADH@Z" PURGE="8" COMMENT="" />
    <EXPORT ORDINAL="1852" NAME="?setbuf@?$basic_filebuf@GV?$char_traits@G@_STL@@@_STL@@MAEPAV?$basic_streambuf@GV?$char_traits@G@_STL@@@2@PAGH@Z" PURGE="8" COMMENT="" />
    <EXPORT ORDINAL="1853" NAME="?setbuf@?$basic_streambuf@DV?$char_traits@D@_STL@@@_STL@@MAEPAV12@PADH@Z" PURGE="8" COMMENT="" />
    <EXPORT ORDINAL="1854" NAME="?setbuf@?$basic_streambuf@GV?$char_traits@G@_STL@@@_STL@@MAEPAV12@PAGH@Z" PURGE="8" COMMENT="" />
    <EXPORT ORDINAL="1855" NAME="?setbuf@?$basic_stringbuf@DV?$char_traits@D@_STL@@V?$allocator@D@2@@_STL@@MAEPAV?$basic_streambuf@DV?$char_traits@D@_STL@@@2@PADH@Z" PURGE="8" COMMENT="" />
    <EXPORT ORDINAL="1856" NAME="?setbuf@?$basic_stringbuf@GV?$char_traits@G@_STL@@V?$allocator@G@2@@_STL@@MAEPAV?$basic_streambuf@GV?$char_traits@G@_STL@@@2@PAGH@Z" PURGE="8" COMMENT="" />
    <EXPORT ORDINAL="1857" NAME="?setbuf@strstreambuf@_STL@@MAEPAV?$basic_streambuf@DV?$char_traits@D@_STL@@@2@PADH@Z" PURGE="8" COMMENT="" />
    <EXPORT ORDINAL="1858" NAME="?setf@ios_base@_STL@@QAEHH@Z" PURGE="4" COMMENT="" />
    <EXPORT ORDINAL="1859" NAME="?setf@ios_base@_STL@@QAEHHH@Z" PURGE="8" COMMENT="" />
    <EXPORT ORDINAL="1860" NAME="?setg@?$basic_streambuf@DV?$char_traits@D@_STL@@@_STL@@IAEXPAD00@Z" PURGE="12" COMMENT="" />
    <EXPORT ORDINAL="1861" NAME="?setg@?$basic_streambuf@GV?$char_traits@G@_STL@@@_STL@@IAEXPAG00@Z" PURGE="12" COMMENT="" />
    <EXPORT ORDINAL="1862" NAME="?setp@?$basic_streambuf@DV?$char_traits@D@_STL@@@_STL@@IAEXPAD0@Z" PURGE="8" COMMENT="" />
    <EXPORT ORDINAL="1863" NAME="?setp@?$basic_streambuf@GV?$char_traits@G@_STL@@@_STL@@IAEXPAG0@Z" PURGE="8" COMMENT="" />
    <EXPORT ORDINAL="1864" NAME="?setstate@?$basic_ios@DV?$char_traits@D@_STL@@@_STL@@QAEXH@Z" PURGE="4" COMMENT="" />
    <EXPORT ORDINAL="1865" NAME="?setstate@?$basic_ios@GV?$char_traits@G@_STL@@@_STL@@QAEXH@Z" PURGE="4" COMMENT="" />
    <EXPORT ORDINAL="1866" NAME="?sgetc@?$basic_streambuf@DV?$char_traits@D@_STL@@@_STL@@QAEHXZ" PURGE="0" COMMENT="" />
    <EXPORT ORDINAL="1867" NAME="?sgetc@?$basic_streambuf@GV?$char_traits@G@_STL@@@_STL@@QAEGXZ" PURGE="0" COMMENT="" />
    <EXPORT ORDINAL="1868" NAME="?sgetn@?$basic_streambuf@DV?$char_traits@D@_STL@@@_STL@@QAEHPADH@Z" PURGE="-1" COMMENT="" />
    <EXPORT ORDINAL="1869" NAME="?sgetn@?$basic_streambuf@GV?$char_traits@G@_STL@@@_STL@@QAEHPAGH@Z" PURGE="8" COMMENT="" />
    <EXPORT ORDINAL="1870" NAME="?showmanyc@?$basic_filebuf@DV?$char_traits@D@_STL@@@_STL@@MAEHXZ" PURGE="0" COMMENT="" />
    <EXPORT ORDINAL="1871" NAME="?showmanyc@?$basic_filebuf@GV?$char_traits@G@_STL@@@_STL@@MAEHXZ" PURGE="0" COMMENT="" />
    <EXPORT ORDINAL="1872" NAME="?showmanyc@?$basic_streambuf@DV?$char_traits@D@_STL@@@_STL@@MAEHXZ" PURGE="0" COMMENT="" />
    <EXPORT ORDINAL="1873" NAME="?showmanyc@?$basic_streambuf@GV?$char_traits@G@_STL@@@_STL@@MAEHXZ" PURGE="0" COMMENT="" />
    <EXPORT ORDINAL="1874" NAME="?sin@_STL@@YA?AU?$complex@M@1@ABU21@@Z" PURGE="0" COMMENT="" />
    <EXPORT ORDINAL="1875" NAME="?sin@_STL@@YA?AU?$complex@N@1@ABU21@@Z" PURGE="0" COMMENT="" />
    <EXPORT ORDINAL="1876" NAME="?sin@_STL@@YA?AU?$complex@O@1@ABU21@@Z" PURGE="0" COMMENT="" />
    <EXPORT ORDINAL="1877" NAME="?sinh@_STL@@YA?AU?$complex@M@1@ABU21@@Z" PURGE="0" COMMENT="" />
    <EXPORT ORDINAL="1878" NAME="?sinh@_STL@@YA?AU?$complex@N@1@ABU21@@Z" PURGE="0" COMMENT="" />
    <EXPORT ORDINAL="1879" NAME="?sinh@_STL@@YA?AU?$complex@O@1@ABU21@@Z" PURGE="0" COMMENT="" />
    <EXPORT ORDINAL="1880" NAME="?size@?$_Sl_global@_N@_STL@@SAIPAU_Slist_node_base@2@@Z" PURGE="0" COMMENT="" />
    <EXPORT ORDINAL="1881" NAME="?size@?$basic_string@DV?$char_traits@D@_STL@@V?$allocator@D@2@@_STL@@QBEIXZ" PURGE="0" COMMENT="" />
    <EXPORT ORDINAL="1882" NAME="?size@?$basic_string@GV?$char_traits@G@_STL@@V?$allocator@G@2@@_STL@@QBEIXZ" PURGE="0" COMMENT="" />
    <EXPORT ORDINAL="1883" NAME="?size@?$vector@PAXV?$allocator@PAX@_STL@@@_STL@@QBEIXZ" PURGE="0" COMMENT="" />
    <EXPORT ORDINAL="1884" NAME="?size@_Locale_impl@_STL@@QBEIXZ" PURGE="0" COMMENT="" />
    <EXPORT ORDINAL="1885" NAME="?snextc@?$basic_streambuf@DV?$char_traits@D@_STL@@@_STL@@QAEHXZ" PURGE="0" COMMENT="" />
    <EXPORT ORDINAL="1886" NAME="?snextc@?$basic_streambuf@GV?$char_traits@G@_STL@@@_STL@@QAEGXZ" PURGE="0" COMMENT="" />
    <EXPORT ORDINAL="1887" NAME="?sputbackc@?$basic_streambuf@DV?$char_traits@D@_STL@@@_STL@@QAEHD@Z" PURGE="4" COMMENT="" />
    <EXPORT ORDINAL="1888" NAME="?sputbackc@?$basic_streambuf@GV?$char_traits@G@_STL@@@_STL@@QAEGG@Z" PURGE="4" COMMENT="" />
    <EXPORT ORDINAL="1889" NAME="?sputc@?$basic_streambuf@DV?$char_traits@D@_STL@@@_STL@@QAEHD@Z" PURGE="4" COMMENT="" />
    <EXPORT ORDINAL="1890" NAME="?sputc@?$basic_streambuf@GV?$char_traits@G@_STL@@@_STL@@QAEGG@Z" PURGE="4" COMMENT="" />
    <EXPORT ORDINAL="1891" NAME="?sputn@?$basic_streambuf@DV?$char_traits@D@_STL@@@_STL@@QAEHPBDH@Z" PURGE="-1" COMMENT="" />
    <EXPORT ORDINAL="1892" NAME="?sputn@?$basic_streambuf@GV?$char_traits@G@_STL@@@_STL@@QAEHPBGH@Z" PURGE="8" COMMENT="" />
    <EXPORT ORDINAL="1893" NAME="?sqrt@_STL@@YA?AU?$complex@M@1@ABU21@@Z" PURGE="0" COMMENT="" />
    <EXPORT ORDINAL="1894" NAME="?sqrt@_STL@@YA?AU?$complex@N@1@ABU21@@Z" PURGE="0" COMMENT="" />
    <EXPORT ORDINAL="1895" NAME="?sqrt@_STL@@YA?AU?$complex@O@1@ABU21@@Z" PURGE="0" COMMENT="" />
    <EXPORT ORDINAL="1896" NAME="?stossc@?$basic_streambuf@DV?$char_traits@D@_STL@@@_STL@@QAEXXZ" PURGE="0" COMMENT="" />
    <EXPORT ORDINAL="1897" NAME="?stossc@?$basic_streambuf@GV?$char_traits@G@_STL@@@_STL@@QAEXXZ" PURGE="0" COMMENT="" />
    <EXPORT ORDINAL="1898" NAME="?str@?$basic_istringstream@DV?$char_traits@D@_STL@@V?$allocator@D@2@@_STL@@QAEXABV?$basic_string@DV?$char_traits@D@_STL@@V?$allocator@D@2@@2@@Z" PURGE="4" COMMENT="" />
    <EXPORT ORDINAL="1899" NAME="?str@?$basic_istringstream@DV?$char_traits@D@_STL@@V?$allocator@D@2@@_STL@@QBE?AV?$basic_string@DV?$char_traits@D@_STL@@V?$allocator@D@2@@2@XZ" PURGE="4" COMMENT="" />
    <EXPORT ORDINAL="1900" NAME="?str@?$basic_istringstream@GV?$char_traits@G@_STL@@V?$allocator@G@2@@_STL@@QAEXABV?$basic_string@GV?$char_traits@G@_STL@@V?$allocator@G@2@@2@@Z" PURGE="4" COMMENT="" />
    <EXPORT ORDINAL="1901" NAME="?str@?$basic_istringstream@GV?$char_traits@G@_STL@@V?$allocator@G@2@@_STL@@QBE?AV?$basic_string@GV?$char_traits@G@_STL@@V?$allocator@G@2@@2@XZ" PURGE="4" COMMENT="" />
    <EXPORT ORDINAL="1902" NAME="?str@?$basic_ostringstream@DV?$char_traits@D@_STL@@V?$allocator@D@2@@_STL@@QAEXABV?$basic_string@DV?$char_traits@D@_STL@@V?$allocator@D@2@@2@@Z" PURGE="4" COMMENT="" />
    <EXPORT ORDINAL="1903" NAME="?str@?$basic_ostringstream@DV?$char_traits@D@_STL@@V?$allocator@D@2@@_STL@@QBE?AV?$basic_string@DV?$char_traits@D@_STL@@V?$allocator@D@2@@2@XZ" PURGE="4" COMMENT="" />
    <EXPORT ORDINAL="1904" NAME="?str@?$basic_ostringstream@GV?$char_traits@G@_STL@@V?$allocator@G@2@@_STL@@QAEXABV?$basic_string@GV?$char_traits@G@_STL@@V?$allocator@G@2@@2@@Z" PURGE="4" COMMENT="" />
    <EXPORT ORDINAL="1905" NAME="?str@?$basic_ostringstream@GV?$char_traits@G@_STL@@V?$allocator@G@2@@_STL@@QBE?AV?$basic_string@GV?$char_traits@G@_STL@@V?$allocator@G@2@@2@XZ" PURGE="4" COMMENT="" />
    <EXPORT ORDINAL="1906" NAME="?str@?$basic_stringbuf@DV?$char_traits@D@_STL@@V?$allocator@D@2@@_STL@@QAEXABV?$basic_string@DV?$char_traits@D@_STL@@V?$allocator@D@2@@2@@Z" PURGE="4" COMMENT="" />
    <EXPORT ORDINAL="1907" NAME="?str@?$basic_stringbuf@DV?$char_traits@D@_STL@@V?$allocator@D@2@@_STL@@QBE?AV?$basic_string@DV?$char_traits@D@_STL@@V?$allocator@D@2@@2@XZ" PURGE="4" COMMENT="" />
    <EXPORT ORDINAL="1908" NAME="?str@?$basic_stringbuf@GV?$char_traits@G@_STL@@V?$allocator@G@2@@_STL@@QAEXABV?$basic_string@GV?$char_traits@G@_STL@@V?$allocator@G@2@@2@@Z" PURGE="4" COMMENT="" />
    <EXPORT ORDINAL="1909" NAME="?str@?$basic_stringbuf@GV?$char_traits@G@_STL@@V?$allocator@G@2@@_STL@@QBE?AV?$basic_string@GV?$char_traits@G@_STL@@V?$allocator@G@2@@2@XZ" PURGE="4" COMMENT="" />
    <EXPORT ORDINAL="1910" NAME="?str@?$basic_stringstream@DV?$char_traits@D@_STL@@V?$allocator@D@2@@_STL@@QAEXABV?$basic_string@DV?$char_traits@D@_STL@@V?$allocator@D@2@@2@@Z" PURGE="4" COMMENT="" />
    <EXPORT ORDINAL="1911" NAME="?str@?$basic_stringstream@DV?$char_traits@D@_STL@@V?$allocator@D@2@@_STL@@QBE?AV?$basic_string@DV?$char_traits@D@_STL@@V?$allocator@D@2@@2@XZ" PURGE="4" COMMENT="" />
    <EXPORT ORDINAL="1912" NAME="?str@?$basic_stringstream@GV?$char_traits@G@_STL@@V?$allocator@G@2@@_STL@@QAEXABV?$basic_string@GV?$char_traits@G@_STL@@V?$allocator@G@2@@2@@Z" PURGE="4" COMMENT="" />
    <EXPORT ORDINAL="1913" NAME="?str@?$basic_stringstream@GV?$char_traits@G@_STL@@V?$allocator@G@2@@_STL@@QBE?AV?$basic_string@GV?$char_traits@G@_STL@@V?$allocator@G@2@@2@XZ" PURGE="4" COMMENT="" />
    <EXPORT ORDINAL="1914" NAME="?str@istrstream@_STL@@QAEPADXZ" PURGE="0" COMMENT="" />
    <EXPORT ORDINAL="1915" NAME="?str@ostrstream@_STL@@QAEPADXZ" PURGE="0" COMMENT="" />
    <EXPORT ORDINAL="1916" NAME="?str@strstream@_STL@@QAEPADXZ" PURGE="0" COMMENT="" />
    <EXPORT ORDINAL="1917" NAME="?str@strstreambuf@_STL@@QAEPADXZ" PURGE="0" COMMENT="" />
    <EXPORT ORDINAL="1918" NAME="?substr@?$basic_string@DV?$char_traits@D@_STL@@V?$allocator@D@2@@_STL@@QBE?AV12@II@Z" PURGE="12" COMMENT="" />
    <EXPORT ORDINAL="1919" NAME="?substr@?$basic_string@GV?$char_traits@G@_STL@@V?$allocator@G@2@@_STL@@QBE?AV12@II@Z" PURGE="12" COMMENT="" />
    <EXPORT ORDINAL="1920" NAME="?sungetc@?$basic_streambuf@DV?$char_traits@D@_STL@@@_STL@@QAEHXZ" PURGE="0" COMMENT="" />
    <EXPORT ORDINAL="1921" NAME="?sungetc@?$basic_streambuf@GV?$char_traits@G@_STL@@@_STL@@QAEGXZ" PURGE="0" COMMENT="" />
    <EXPORT ORDINAL="1922" NAME="?swap@?$basic_string@DV?$char_traits@D@_STL@@V?$allocator@D@2@@_STL@@QAEXAAV12@@Z" PURGE="4" COMMENT="" />
    <EXPORT ORDINAL="1923" NAME="?swap@?$basic_string@GV?$char_traits@G@_STL@@V?$allocator@G@2@@_STL@@QAEXAAV12@@Z" PURGE="4" COMMENT="" />
    <EXPORT ORDINAL="1924" NAME="?swap@?$vector@PAXV?$allocator@PAX@_STL@@@_STL@@QAEXAAV12@@Z" PURGE="4" COMMENT="" />
    <EXPORT ORDINAL="1925" NAME="?sync@?$basic_filebuf@DV?$char_traits@D@_STL@@@_STL@@MAEHXZ" PURGE="0" COMMENT="" />
    <EXPORT ORDINAL="1926" NAME="?sync@?$basic_filebuf@GV?$char_traits@G@_STL@@@_STL@@MAEHXZ" PURGE="0" COMMENT="" />
    <EXPORT ORDINAL="1927" NAME="?sync@?$basic_istream@DV?$char_traits@D@_STL@@@_STL@@QAEHXZ" PURGE="0" COMMENT="" />
    <EXPORT ORDINAL="1928" NAME="?sync@?$basic_istream@GV?$char_traits@G@_STL@@@_STL@@QAEHXZ" PURGE="0" COMMENT="" />
    <EXPORT ORDINAL="1929" NAME="?sync@?$basic_streambuf@DV?$char_traits@D@_STL@@@_STL@@MAEHXZ" PURGE="0" COMMENT="" />
    <EXPORT ORDINAL="1930" NAME="?sync@?$basic_streambuf@GV?$char_traits@G@_STL@@@_STL@@MAEHXZ" PURGE="0" COMMENT="" />
    <EXPORT ORDINAL="1931" NAME="?sync_with_stdio@ios_base@_STL@@SA_N_N@Z" PURGE="0" COMMENT="" />
    <EXPORT ORDINAL="1932" NAME="?table@?$ctype@D@_STL@@IBEPBW4mask@ctype_base@2@XZ" PURGE="0" COMMENT="" />
    <EXPORT ORDINAL="1933" NAME="?tan@_STL@@YA?AU?$complex@M@1@ABU21@@Z" PURGE="0" COMMENT="" />
    <EXPORT ORDINAL="1934" NAME="?tan@_STL@@YA?AU?$complex@N@1@ABU21@@Z" PURGE="0" COMMENT="" />
    <EXPORT ORDINAL="1935" NAME="?tan@_STL@@YA?AU?$complex@O@1@ABU21@@Z" PURGE="0" COMMENT="" />
    <EXPORT ORDINAL="1936" NAME="?tanh@_STL@@YA?AU?$complex@M@1@ABU21@@Z" PURGE="0" COMMENT="" />
    <EXPORT ORDINAL="1937" NAME="?tanh@_STL@@YA?AU?$complex@N@1@ABU21@@Z" PURGE="0" COMMENT="" />
    <EXPORT ORDINAL="1938" NAME="?tanh@_STL@@YA?AU?$complex@O@1@ABU21@@Z" PURGE="0" COMMENT="" />
    <EXPORT ORDINAL="1939" NAME="?tellg@?$basic_istream@DV?$char_traits@D@_STL@@@_STL@@QAE?AV?$fpos@H@2@XZ" PURGE="4" COMMENT="" />
    <EXPORT ORDINAL="1940" NAME="?tellg@?$basic_istream@GV?$char_traits@G@_STL@@@_STL@@QAE?AV?$fpos@H@2@XZ" PURGE="4" COMMENT="" />
    <EXPORT ORDINAL="1941" NAME="?tellp@?$basic_ostream@DV?$char_traits@D@_STL@@@_STL@@QAE?AV?$fpos@H@2@XZ" PURGE="4" COMMENT="" />
    <EXPORT ORDINAL="1942" NAME="?tellp@?$basic_ostream@GV?$char_traits@G@_STL@@@_STL@@QAE?AV?$fpos@H@2@XZ" PURGE="4" COMMENT="" />
    <EXPORT ORDINAL="1943" NAME="?thousands_sep@?$moneypunct@D$00@_STL@@QBEDXZ" PURGE="-1" COMMENT="" />
    <EXPORT ORDINAL="1944" NAME="?thousands_sep@?$moneypunct@D$0A@@_STL@@QBEDXZ" PURGE="-1" COMMENT="" />
    <EXPORT ORDINAL="1945" NAME="?thousands_sep@?$moneypunct@G$00@_STL@@QBEGXZ" PURGE="-1" COMMENT="" />
    <EXPORT ORDINAL="1946" NAME="?thousands_sep@?$moneypunct@G$0A@@_STL@@QBEGXZ" PURGE="-1" COMMENT="" />
    <EXPORT ORDINAL="1947" NAME="?thousands_sep@?$numpunct@D@_STL@@QBEDXZ" PURGE="-1" COMMENT="" />
    <EXPORT ORDINAL="1948" NAME="?thousands_sep@?$numpunct@G@_STL@@QBEGXZ" PURGE="-1" COMMENT="" />
    <EXPORT ORDINAL="1949" NAME="?tie@?$basic_ios@DV?$char_traits@D@_STL@@@_STL@@QAEPAV?$basic_ostream@DV?$char_traits@D@_STL@@@2@PAV32@@Z" PURGE="4" COMMENT="" />
    <EXPORT ORDINAL="1950" NAME="?tie@?$basic_ios@DV?$char_traits@D@_STL@@@_STL@@QBEPAV?$basic_ostream@DV?$char_traits@D@_STL@@@2@XZ" PURGE="0" COMMENT="" />
    <EXPORT ORDINAL="1951" NAME="?tie@?$basic_ios@GV?$char_traits@G@_STL@@@_STL@@QAEPAV?$basic_ostream@GV?$char_traits@G@_STL@@@2@PAV32@@Z" PURGE="4" COMMENT="" />
    <EXPORT ORDINAL="1952" NAME="?tie@?$basic_ios@GV?$char_traits@G@_STL@@@_STL@@QBEPAV?$basic_ostream@GV?$char_traits@G@_STL@@@2@XZ" PURGE="0" COMMENT="" />
    <EXPORT ORDINAL="1953" NAME="?to_char_type@?$__char_traits_base@DH@_STL@@SADABH@Z" PURGE="0" COMMENT="" />
    <EXPORT ORDINAL="1954" NAME="?to_char_type@?$__char_traits_base@GG@_STL@@SAGABG@Z" PURGE="0" COMMENT="" />
    <EXPORT ORDINAL="1955" NAME="?to_char_type@?$char_traits@D@_STL@@SADABH@Z" PURGE="0" COMMENT="" />
    <EXPORT ORDINAL="1956" NAME="?to_int_type@?$__char_traits_base@DH@_STL@@SAHABD@Z" PURGE="0" COMMENT="" />
    <EXPORT ORDINAL="1957" NAME="?to_int_type@?$__char_traits_base@GG@_STL@@SAGABG@Z" PURGE="0" COMMENT="" />
    <EXPORT ORDINAL="1958" NAME="?to_int_type@?$char_traits@D@_STL@@SAHABD@Z" PURGE="0" COMMENT="" />
    <EXPORT ORDINAL="1959" NAME="?tolower@?$ctype@D@_STL@@QBEDD@Z" PURGE="-1" COMMENT="" />
    <EXPORT ORDINAL="1960" NAME="?tolower@?$ctype@D@_STL@@QBEPBDPADPBD@Z" PURGE="-1" COMMENT="" />
    <EXPORT ORDINAL="1961" NAME="?tolower@?$ctype@G@_STL@@QBEGG@Z" PURGE="-1" COMMENT="" />
    <EXPORT ORDINAL="1962" NAME="?tolower@?$ctype@G@_STL@@QBEPBGPAG0@Z" PURGE="-1" COMMENT="" />
    <EXPORT ORDINAL="1963" NAME="?toupper@?$ctype@D@_STL@@QBEDD@Z" PURGE="-1" COMMENT="" />
    <EXPORT ORDINAL="1964" NAME="?toupper@?$ctype@D@_STL@@QBEPBDPADPBD@Z" PURGE="-1" COMMENT="" />
    <EXPORT ORDINAL="1965" NAME="?toupper@?$ctype@G@_STL@@QBEGG@Z" PURGE="-1" COMMENT="" />
    <EXPORT ORDINAL="1966" NAME="?toupper@?$ctype@G@_STL@@QBEPBGPAG0@Z" PURGE="-1" COMMENT="" />
    <EXPORT ORDINAL="1967" NAME="?transform@?$collate@D@_STL@@QBE?AV?$basic_string@DV?$char_traits@D@_STL@@V?$allocator@D@2@@2@PBD0@Z" PURGE="12" COMMENT="" />
    <EXPORT ORDINAL="1968" NAME="?transform@?$collate@G@_STL@@QBE?AV?$basic_string@GV?$char_traits@G@_STL@@V?$allocator@G@2@@2@PBG0@Z" PURGE="12" COMMENT="" />
    <EXPORT ORDINAL="1969" NAME="?truename@?$numpunct@D@_STL@@QBE?AV?$basic_string@DV?$char_traits@D@_STL@@V?$allocator@D@2@@2@XZ" PURGE="4" COMMENT="" />
    <EXPORT ORDINAL="1970" NAME="?truename@?$numpunct@G@_STL@@QBE?AV?$basic_string@GV?$char_traits@G@_STL@@V?$allocator@G@2@@2@XZ" PURGE="4" COMMENT="" />
    <EXPORT ORDINAL="1971" NAME="?uflow@?$basic_streambuf@DV?$char_traits@D@_STL@@@_STL@@MAEHXZ" PURGE="0" COMMENT="" />
    <EXPORT ORDINAL="1972" NAME="?uflow@?$basic_streambuf@GV?$char_traits@G@_STL@@@_STL@@MAEGXZ" PURGE="0" COMMENT="" />
    <EXPORT ORDINAL="1973" NAME="?uflow@?$basic_stringbuf@DV?$char_traits@D@_STL@@V?$allocator@D@2@@_STL@@MAEHXZ" PURGE="0" COMMENT="" />
    <EXPORT ORDINAL="1974" NAME="?uflow@?$basic_stringbuf@GV?$char_traits@G@_STL@@V?$allocator@G@2@@_STL@@MAEGXZ" PURGE="0" COMMENT="" />
    <EXPORT ORDINAL="1975" NAME="?underflow@?$basic_filebuf@DV?$char_traits@D@_STL@@@_STL@@MAEHXZ" PURGE="0" COMMENT="" />
    <EXPORT ORDINAL="1976" NAME="?underflow@?$basic_filebuf@GV?$char_traits@G@_STL@@@_STL@@MAEGXZ" PURGE="0" COMMENT="" />
    <EXPORT ORDINAL="1977" NAME="?underflow@?$basic_streambuf@DV?$char_traits@D@_STL@@@_STL@@MAEHXZ" PURGE="0" COMMENT="" />
    <EXPORT ORDINAL="1978" NAME="?underflow@?$basic_streambuf@GV?$char_traits@G@_STL@@@_STL@@MAEGXZ" PURGE="0" COMMENT="" />
    <EXPORT ORDINAL="1979" NAME="?underflow@?$basic_stringbuf@DV?$char_traits@D@_STL@@V?$allocator@D@2@@_STL@@MAEHXZ" PURGE="0" COMMENT="" />
    <EXPORT ORDINAL="1980" NAME="?underflow@?$basic_stringbuf@GV?$char_traits@G@_STL@@V?$allocator@G@2@@_STL@@MAEGXZ" PURGE="0" COMMENT="" />
    <EXPORT ORDINAL="1981" NAME="?underflow@strstreambuf@_STL@@MAEHXZ" PURGE="0" COMMENT="" />
    <EXPORT ORDINAL="1982" NAME="?unget@?$basic_istream@DV?$char_traits@D@_STL@@@_STL@@QAEAAV12@XZ" PURGE="0" COMMENT="" />
    <EXPORT ORDINAL="1983" NAME="?unget@?$basic_istream@GV?$char_traits@G@_STL@@@_STL@@QAEAAV12@XZ" PURGE="0" COMMENT="" />
    <EXPORT ORDINAL="1984" NAME="?unsetf@ios_base@_STL@@QAEXH@Z" PURGE="4" COMMENT="" />
    <EXPORT ORDINAL="1985" NAME="?unshift@?$codecvt@DDH@_STL@@QBE?AW4result@codecvt_base@2@AAHPAD1AAPAD@Z" PURGE="-1" COMMENT="" />
    <EXPORT ORDINAL="1986" NAME="?unshift@?$codecvt@GDH@_STL@@QBE?AW4result@codecvt_base@2@AAHPAD1AAPAD@Z" PURGE="-1" COMMENT="" />
    <EXPORT ORDINAL="1987" NAME="?wcerr@_STL@@3V?$basic_ostream@GV?$char_traits@G@_STL@@@1@A" PURGE="-1" COMMENT="" />
    <EXPORT ORDINAL="1988" NAME="?wcin@_STL@@3V?$basic_istream@GV?$char_traits@G@_STL@@@1@A" PURGE="-1" COMMENT="" />
    <EXPORT ORDINAL="1989" NAME="?wclog@_STL@@3V?$basic_ostream@GV?$char_traits@G@_STL@@@1@A" PURGE="-1" COMMENT="" />
    <EXPORT ORDINAL="1990" NAME="?wcout@_STL@@3V?$basic_ostream@GV?$char_traits@G@_STL@@@1@A" PURGE="-1" COMMENT="" />
    <EXPORT ORDINAL="1991" NAME="?what@__Named_exception@_STL@@UBEPBDXZ" PURGE="0" COMMENT="" />
    <EXPORT ORDINAL="1992" NAME="?widen@?$basic_ios@DV?$char_traits@D@_STL@@@_STL@@QBEDD@Z" PURGE="4" COMMENT="" />
    <EXPORT ORDINAL="1993" NAME="?widen@?$basic_ios@GV?$char_traits@G@_STL@@@_STL@@QBEGD@Z" PURGE="4" COMMENT="" />
    <EXPORT ORDINAL="1994" NAME="?widen@?$ctype@D@_STL@@QBEDD@Z" PURGE="-1" COMMENT="" />
    <EXPORT ORDINAL="1995" NAME="?widen@?$ctype@D@_STL@@QBEPBDPBD0PAD@Z" PURGE="-1" COMMENT="" />
    <EXPORT ORDINAL="1996" NAME="?widen@?$ctype@G@_STL@@QBEGD@Z" PURGE="-1" COMMENT="" />
    <EXPORT ORDINAL="1997" NAME="?widen@?$ctype@G@_STL@@QBEPBDPBD0PAG@Z" PURGE="-1" COMMENT="" />
    <EXPORT ORDINAL="1998" NAME="?width@ios_base@_STL@@QAEHH@Z" PURGE="4" COMMENT="" />
    <EXPORT ORDINAL="1999" NAME="?width@ios_base@_STL@@QBEHXZ" PURGE="0" COMMENT="" />
    <EXPORT ORDINAL="2000" NAME="?write@?$basic_ostream@DV?$char_traits@D@_STL@@@_STL@@QAEAAV12@PBDH@Z" PURGE="8" COMMENT="" />
    <EXPORT ORDINAL="2001" NAME="?write@?$basic_ostream@GV?$char_traits@G@_STL@@@_STL@@QAEAAV12@PBGH@Z" PURGE="8" COMMENT="" />
    <EXPORT ORDINAL="2002" NAME="?xalloc@ios_base@_STL@@SAHXZ" PURGE="0" COMMENT="" />
    <EXPORT ORDINAL="2003" NAME="?xsgetn@?$basic_streambuf@DV?$char_traits@D@_STL@@@_STL@@MAEHPADH@Z" PURGE="8" COMMENT="" />
    <EXPORT ORDINAL="2004" NAME="?xsgetn@?$basic_streambuf@GV?$char_traits@G@_STL@@@_STL@@MAEHPAGH@Z" PURGE="8" COMMENT="" />
    <EXPORT ORDINAL="2005" NAME="?xsputn@?$basic_streambuf@DV?$char_traits@D@_STL@@@_STL@@MAEHPBDH@Z" PURGE="8" COMMENT="" />
    <EXPORT ORDINAL="2006" NAME="?xsputn@?$basic_streambuf@GV?$char_traits@G@_STL@@@_STL@@MAEHPBGH@Z" PURGE="8" COMMENT="" />
    <EXPORT ORDINAL="2007" NAME="?xsputn@?$basic_stringbuf@DV?$char_traits@D@_STL@@V?$allocator@D@2@@_STL@@MAEHPBDH@Z" PURGE="8" COMMENT="" />
    <EXPORT ORDINAL="2008" NAME="?xsputn@?$basic_stringbuf@GV?$char_traits@G@_STL@@V?$allocator@G@2@@_STL@@MAEHPBGH@Z" PURGE="8" COMMENT="" />
</LIBRARY>

