<?xml version="1.0" encoding="UTF-8"?>
<LIBRARY NAME="tosbdapi.dll" PATH="/DLLArchive/etc/TosBdAPI.dll" DATE="Fri Jul 03 22:23:16 CEST 2020" VERSION="6, 0, 1203, 0">
    <EXPORT ORDINAL="1" NAME="??0CTosBdAPI@@QAE@XZ" PURGE="0" COMMENT="" />
    <EXPORT ORDINAL="2" NAME="??1CTosBdAPI@@QAE@XZ" PURGE="0" COMMENT="" />
    <EXPORT ORDINAL="3" NAME="??4CTosBdAPI@@QAEAAV0@ABV0@@Z" PURGE="4" COMMENT="" />
    <EXPORT ORDINAL="4" NAME="?BdAccept2@@YAHPAXGPAU_BT_CONFIG@@PAG1@Z" PURGE="0" COMMENT="" />
    <EXPORT ORDINAL="5" NAME="?BdAccept@@YAHPAXGPAU_BT_CONFIG@@@Z" PURGE="0" COMMENT="" />
    <EXPORT ORDINAL="6" NAME="?BdAcceptEx@@YAHPAXGPAU_BT_CONFIG@@PAG1PAHPAUHWND__@@II@Z" PURGE="0" COMMENT="" />
    <EXPORT ORDINAL="7" NAME="?BdAuthentication@@YAHPAXG@Z" PURGE="0" COMMENT="" />
    <EXPORT ORDINAL="8" NAME="?BdAuthenticationEx@@YAHPAXGPAHPAUHWND__@@II@Z" PURGE="0" COMMENT="" />
    <EXPORT ORDINAL="9" NAME="?BdBtNotifyEx2@@YAHPAXIQAXQAHPAUHWND__@@II@Z" PURGE="0" COMMENT="" />
    <EXPORT ORDINAL="10" NAME="?BdBtNotifyEx@@YAHPAXQAU_BT_NOTIFY_INFO@@QAHPAUHWND__@@II@Z" PURGE="0" COMMENT="" />
    <EXPORT ORDINAL="11" NAME="?BdClose@@YAHPAX@Z" PURGE="0" COMMENT="" />
    <EXPORT ORDINAL="12" NAME="?BdCloseNotifyEx@@YAHPAXQAHPAUHWND__@@II@Z" PURGE="0" COMMENT="" />
    <EXPORT ORDINAL="13" NAME="?BdConfigRequest@@YAHPAXGPAU_BT_CONFIG@@PAG@Z" PURGE="0" COMMENT="" />
    <EXPORT ORDINAL="14" NAME="?BdConfigResponse2@@YAHPAXGPAU_BT_CONFIG@@G@Z" PURGE="0" COMMENT="" />
    <EXPORT ORDINAL="15" NAME="?BdConfigResponse@@YAHPAXGPAU_BT_CONFIG@@G@Z" PURGE="0" COMMENT="" />
    <EXPORT ORDINAL="16" NAME="?BdConnect2@@YAHPAXGPAEPAU_BT_CONFIG@@2GPAG@Z" PURGE="0" COMMENT="" />
    <EXPORT ORDINAL="17" NAME="?BdConnect@@YAHPAXGPAEPAU_BT_CONFIG@@2GPAG@Z" PURGE="0" COMMENT="" />
    <EXPORT ORDINAL="18" NAME="?BdConnectEx2@@YAHPAXGPAEPAU_BT_CONFIG@@2GPAGPAHP6AXI@ZI@Z" PURGE="0" COMMENT="" />
    <EXPORT ORDINAL="19" NAME="?BdConnectEx2_Msg@@YAHPAXGPAEPAU_BT_CONFIG@@2GPAGPAHPAUHWND__@@II@Z" PURGE="0" COMMENT="" />
    <EXPORT ORDINAL="20" NAME="?BdConnectEx@@YAHPAXGPAEPAU_BT_CONFIG@@2GPAGPAHPAUHWND__@@II@Z" PURGE="0" COMMENT="" />
    <EXPORT ORDINAL="21" NAME="?BdDisableFunction@@YAHPAXK@Z" PURGE="0" COMMENT="" />
    <EXPORT ORDINAL="22" NAME="?BdDisconnect2@@YAHPAXG@Z" PURGE="0" COMMENT="" />
    <EXPORT ORDINAL="23" NAME="?BdDisconnect@@YAHPAXG@Z" PURGE="0" COMMENT="" />
    <EXPORT ORDINAL="24" NAME="?BdEnableFunction@@YAHPAXK@Z" PURGE="0" COMMENT="" />
    <EXPORT ORDINAL="25" NAME="?BdEnableMasterMode@@YAHPAXH@Z" PURGE="0" COMMENT="" />
    <EXPORT ORDINAL="26" NAME="?BdEnableRoleSetting@@YAHPAXGH@Z" PURGE="0" COMMENT="" />
    <EXPORT ORDINAL="27" NAME="?BdEncryption@@YAHPAXGH@Z" PURGE="0" COMMENT="" />
    <EXPORT ORDINAL="28" NAME="?BdEncryptionEx@@YAHPAXGHPAHPAUHWND__@@II@Z" PURGE="0" COMMENT="" />
    <EXPORT ORDINAL="29" NAME="?BdGetBdAddrList@@YAHPAXPAU_BT_BDADDR_LIST_INFO@@K@Z" PURGE="0" COMMENT="" />
    <EXPORT ORDINAL="30" NAME="?BdGetCidList@@YAHPAXGPAU_BT_CID_LIST_INFO@@K@Z" PURGE="0" COMMENT="" />
    <EXPORT ORDINAL="31" NAME="?BdGetInfo@@YAHPAXPAE0K@Z" PURGE="0" COMMENT="" />
    <EXPORT ORDINAL="32" NAME="?BdGetLinkInfoList@@YAHPAXPAU_BT_LINK_INFO_LIST@@K@Z" PURGE="0" COMMENT="" />
    <EXPORT ORDINAL="33" NAME="?BdGetLinkKeyList2@@YAHPAXPAU_BT_LINKKEY_LIST_INFO_2@@K@Z" PURGE="0" COMMENT="" />
    <EXPORT ORDINAL="34" NAME="?BdGetLinkKeyList@@YAHPAXPAU_BT_LINKKEY_LIST_INFO@@K@Z" PURGE="0" COMMENT="" />
    <EXPORT ORDINAL="35" NAME="?BdGetLinkQuality@@YAHPAXGPAEPAG@Z" PURGE="0" COMMENT="" />
    <EXPORT ORDINAL="36" NAME="?BdGetLocalInfo2@@YAHPAXPAUBT_LOCALINFO2@@@Z" PURGE="0" COMMENT="" />
    <EXPORT ORDINAL="37" NAME="?BdGetLocalInfo@@YAHPAXPAU_BT_LOCALINFO@@@Z" PURGE="0" COMMENT="" />
    <EXPORT ORDINAL="38" NAME="?BdGetRoleSetting@@YAHPAXGPAU_BT_ROLE_SETTING@@@Z" PURGE="0" COMMENT="" />
    <EXPORT ORDINAL="39" NAME="?BdIOCapabilityResponse@@YAHPAXPAEEEEEE11@Z" PURGE="0" COMMENT="" />
    <EXPORT ORDINAL="40" NAME="?BdInquiry@@YAHPAXKGGPAU_BT_INQUIRY_DATA@@PAH@Z" PURGE="0" COMMENT="" />
    <EXPORT ORDINAL="41" NAME="?BdInquiryCancel@@YAHPAX@Z" PURGE="0" COMMENT="" />
    <EXPORT ORDINAL="42" NAME="?BdInquiryEx@@YAHPAXKGGPAU_BT_INQUIRY_DATA@@PAH2PAUHWND__@@II@Z" PURGE="0" COMMENT="" />
    <EXPORT ORDINAL="43" NAME="?BdInquiryWithEIREx@@YAHPAXKGGPAU_BT_INQUIRY_WITH_EIR_DATA@@PAH2PAUHWND__@@II@Z" PURGE="0" COMMENT="" />
    <EXPORT ORDINAL="44" NAME="?BdInquiryWithRssiEx@@YAHPAXKGGPAU_BT_INQUIRY_WITH_RSSI_DATA@@PAH2PAUHWND__@@II@Z" PURGE="0" COMMENT="" />
    <EXPORT ORDINAL="45" NAME="?BdLinkKeyReply@@YAHPAXQAEG1@Z" PURGE="0" COMMENT="" />
    <EXPORT ORDINAL="46" NAME="?BdListen@@YAHPAXGPAEPAG@Z" PURGE="0" COMMENT="" />
    <EXPORT ORDINAL="47" NAME="?BdListenEx2@@YAHPAXGPAEPAGPAHP6AXI@ZI@Z" PURGE="0" COMMENT="" />
    <EXPORT ORDINAL="48" NAME="?BdListenEx2_Msg@@YAHPAXGPAEPAGPAHPAUHWND__@@II@Z" PURGE="0" COMMENT="" />
    <EXPORT ORDINAL="49" NAME="?BdListenEx@@YAHPAXGPAEPAGPAHPAUHWND__@@II@Z" PURGE="0" COMMENT="" />
    <EXPORT ORDINAL="50" NAME="?BdNotify@@YAHPAXGPAU_NOTIFY_INFO@@@Z" PURGE="0" COMMENT="" />
    <EXPORT ORDINAL="51" NAME="?BdNotifyEx2@@YAHPAXGPAU_NOTIFY_INFO@@PAHP6AXI@ZI@Z" PURGE="0" COMMENT="" />
    <EXPORT ORDINAL="52" NAME="?BdNotifyEx2_Msg@@YAHPAXGPAU_NOTIFY_INFO@@PAHPAUHWND__@@II@Z" PURGE="0" COMMENT="" />
    <EXPORT ORDINAL="53" NAME="?BdNotifyEx@@YAHPAXGPAU_NOTIFY_INFO@@PAHPAUHWND__@@II@Z" PURGE="0" COMMENT="" />
    <EXPORT ORDINAL="54" NAME="?BdNotifyExEx@@YAHPAXPAEK0KPAHPAUHWND__@@II@Z" PURGE="0" COMMENT="" />
    <EXPORT ORDINAL="55" NAME="?BdOpen@@YAPAXXZ" PURGE="0" COMMENT="" />
    <EXPORT ORDINAL="56" NAME="?BdPinCodeReply@@YAHPAXQAEG1G@Z" PURGE="0" COMMENT="" />
    <EXPORT ORDINAL="57" NAME="?BdPing@@YAHPAXPAE0K0K@Z" PURGE="0" COMMENT="" />
    <EXPORT ORDINAL="58" NAME="?BdPingEx@@YAHPAXPAE0K0KPAUHWND__@@II@Z" PURGE="0" COMMENT="" />
    <EXPORT ORDINAL="59" NAME="?BdPluginProtocol@@YAHPAXPAU_RFBD_PLUGIN_PROTOCOL@@@Z" PURGE="0" COMMENT="" />
    <EXPORT ORDINAL="60" NAME="?BdQosSetupEx@@YAHPAXGGGPAU_BT_FLOWSPEC@@PAEPAHPAUHWND__@@II@Z" PURGE="0" COMMENT="" />
    <EXPORT ORDINAL="61" NAME="?BdReadData@@YAHPAXG0KPAH@Z" PURGE="0" COMMENT="" />
    <EXPORT ORDINAL="62" NAME="?BdReadDataEx@@YAHPAXG0KPAH1PAUHWND__@@II@Z" PURGE="0" COMMENT="" />
    <EXPORT ORDINAL="63" NAME="?BdReadEIR@@YAHPAXPAE11@Z" PURGE="0" COMMENT="" />
    <EXPORT ORDINAL="64" NAME="?BdReadLinkSupervisionTimeout@@YAHPAXGPAG@Z" PURGE="0" COMMENT="" />
    <EXPORT ORDINAL="65" NAME="?BdReadLocalOOBData@@YAHPAXPAE11@Z" PURGE="0" COMMENT="" />
    <EXPORT ORDINAL="66" NAME="?BdReadRSSI@@YAHPAXGPADPAG@Z" PURGE="0" COMMENT="" />
    <EXPORT ORDINAL="67" NAME="?BdReadRemoteName@@YAHPAX0PADK@Z" PURGE="0" COMMENT="" />
    <EXPORT ORDINAL="68" NAME="?BdReadRemoteNameEx@@YAHPAXPAEPADFPAFPAHPAUHWND__@@II@Z" PURGE="0" COMMENT="" />
    <EXPORT ORDINAL="69" NAME="?BdReadSetup@@YAHPAXGPAU_BT_SETUP_INFO@@@Z" PURGE="0" COMMENT="" />
    <EXPORT ORDINAL="70" NAME="?BdReadSimplePairingMode@@YAHPAXPAE1@Z" PURGE="0" COMMENT="" />
    <EXPORT ORDINAL="71" NAME="?BdReject@@YAHPAXGG@Z" PURGE="0" COMMENT="" />
    <EXPORT ORDINAL="72" NAME="?BdRemoteOOBDataRequestReply@@YAHPAXPAEE1111@Z" PURGE="0" COMMENT="" />
    <EXPORT ORDINAL="73" NAME="?BdRoleDiscovery@@YAHPAXGPAD@Z" PURGE="0" COMMENT="" />
    <EXPORT ORDINAL="74" NAME="?BdScoAccept@@YAHPAXPAEPAG2@Z" PURGE="0" COMMENT="" />
    <EXPORT ORDINAL="75" NAME="?BdScoListen@@YAHPAXPAE@Z" PURGE="0" COMMENT="" />
    <EXPORT ORDINAL="76" NAME="?BdScoListenEx@@YAHPAXPAEPAHPAUHWND__@@II@Z" PURGE="0" COMMENT="" />
    <EXPORT ORDINAL="77" NAME="?BdScoNotifyEx@@YAHPAXGPAU_BT_SCO_NOTIFY_INFO@@PAHPAUHWND__@@II@Z" PURGE="0" COMMENT="" />
    <EXPORT ORDINAL="78" NAME="?BdScoReject@@YAHPAXPAEG@Z" PURGE="0" COMMENT="" />
    <EXPORT ORDINAL="79" NAME="?BdSendKeypressNotification@@YAHPAXPAEE11@Z" PURGE="0" COMMENT="" />
    <EXPORT ORDINAL="80" NAME="?BdSetConnectSecurity@@YAHPAXPAEGK@Z" PURGE="0" COMMENT="" />
    <EXPORT ORDINAL="81" NAME="?BdSetLinkKey2@@YAHPAXKPAE1E@Z" PURGE="0" COMMENT="" />
    <EXPORT ORDINAL="82" NAME="?BdSetLinkKey@@YAHPAXKPAE1@Z" PURGE="0" COMMENT="" />
    <EXPORT ORDINAL="83" NAME="?BdSetListenSecurity@@YAHPAXGK@Z" PURGE="0" COMMENT="" />
    <EXPORT ORDINAL="84" NAME="?BdStartDriver@@YAHPAXK@Z" PURGE="0" COMMENT="" />
    <EXPORT ORDINAL="85" NAME="?BdSwitchRole@@YAHPAXPAEPADG@Z" PURGE="0" COMMENT="" />
    <EXPORT ORDINAL="86" NAME="?BdSwitchRoleEx@@YAHPAXPAEPADGPAHPAUHWND__@@II@Z" PURGE="0" COMMENT="" />
    <EXPORT ORDINAL="87" NAME="?BdUnplugProtocol@@YAHPAXPAU_RFBD_UNPLUG_PROTOCOL@@@Z" PURGE="0" COMMENT="" />
    <EXPORT ORDINAL="88" NAME="?BdUserConfirmationRequestReply@@YAHPAXPAEE11@Z" PURGE="0" COMMENT="" />
    <EXPORT ORDINAL="89" NAME="?BdUserPasskeyRequestReply@@YAHPAXPAEEK11@Z" PURGE="0" COMMENT="" />
    <EXPORT ORDINAL="90" NAME="?BdWriteData2@@YAHPAXG0KPAK@Z" PURGE="0" COMMENT="" />
    <EXPORT ORDINAL="91" NAME="?BdWriteData@@YAHPAXG0J@Z" PURGE="0" COMMENT="" />
    <EXPORT ORDINAL="92" NAME="?BdWriteEIR@@YAHPAXEPAE1@Z" PURGE="0" COMMENT="" />
    <EXPORT ORDINAL="93" NAME="?BdWriteLinkSupervisionTimeout@@YAHPAXGG@Z" PURGE="0" COMMENT="" />
    <EXPORT ORDINAL="94" NAME="?BdWriteSetup@@YAHPAXGPAU_BT_SETUP_INFO@@@Z" PURGE="0" COMMENT="" />
    <EXPORT ORDINAL="95" NAME="?BdWriteSimplePairingMode@@YAHPAXEPAE@Z" PURGE="0" COMMENT="" />
    <EXPORT ORDINAL="96" NAME="?_BdLinkSupervisionTimeout@@YAHPAXGGPAG@Z" PURGE="0" COMMENT="" />
</LIBRARY>

