<?xml version="1.0" encoding="UTF-8"?>
<LIBRARY NAME="ttlcdacc.dll" PATH="/DLLArchive/etc/ttlcdacc.dll" DATE="Fri Jul 03 13:23:43 PDT 2020" VERSION="1.6.6.0">
    <EXPORT ORDINAL="1" NAME="??0CDVBBoardControl@@QAE@ABV0@@Z" PURGE="4" COMMENT="" />
    <EXPORT ORDINAL="2" NAME="??0CDVBBoardControl@@QAE@XZ" PURGE="0" COMMENT="" />
    <EXPORT ORDINAL="3" NAME="??0CDVBComnIF@@QAE@XZ" PURGE="0" COMMENT="" />
    <EXPORT ORDINAL="4" NAME="??0CDVBFilterToFile@@QAE@XZ" PURGE="0" COMMENT="" />
    <EXPORT ORDINAL="5" NAME="??0CDVBFrontend@@QAE@XZ" PURGE="0" COMMENT="" />
    <EXPORT ORDINAL="6" NAME="??0CDVBNIM@@QAE@ABV0@@Z" PURGE="4" COMMENT="" />
    <EXPORT ORDINAL="7" NAME="??0CDVBNIM@@QAE@XZ" PURGE="0" COMMENT="" />
    <EXPORT ORDINAL="8" NAME="??0CDVBRemoteControl@@QAE@XZ" PURGE="0" COMMENT="" />
    <EXPORT ORDINAL="9" NAME="??0CDVBTSFilter@@QAE@K@Z" PURGE="4" COMMENT="" />
    <EXPORT ORDINAL="10" NAME="??0CDVBTSFilter@@QAE@XZ" PURGE="0" COMMENT="" />
    <EXPORT ORDINAL="11" NAME="??0CDVBTeletext@@QAE@XZ" PURGE="0" COMMENT="" />
    <EXPORT ORDINAL="12" NAME="??0CUSBRemoteControl@@QAE@XZ" PURGE="0" COMMENT="" />
    <EXPORT ORDINAL="13" NAME="??1CDVBBoardControl@@UAE@XZ" PURGE="0" COMMENT="" />
    <EXPORT ORDINAL="14" NAME="??1CDVBComnIF@@UAE@XZ" PURGE="0" COMMENT="" />
    <EXPORT ORDINAL="15" NAME="??1CDVBFilterToFile@@UAE@XZ" PURGE="0" COMMENT="" />
    <EXPORT ORDINAL="16" NAME="??1CDVBFrontend@@UAE@XZ" PURGE="0" COMMENT="" />
    <EXPORT ORDINAL="17" NAME="??1CDVBNIM@@UAE@XZ" PURGE="0" COMMENT="" />
    <EXPORT ORDINAL="18" NAME="??1CDVBRemoteControl@@UAE@XZ" PURGE="0" COMMENT="" />
    <EXPORT ORDINAL="19" NAME="??1CDVBTSFilter@@UAE@XZ" PURGE="0" COMMENT="" />
    <EXPORT ORDINAL="20" NAME="??1CDVBTeletext@@UAE@XZ" PURGE="0" COMMENT="" />
    <EXPORT ORDINAL="21" NAME="??1CUSBRemoteControl@@UAE@XZ" PURGE="0" COMMENT="" />
    <EXPORT ORDINAL="22" NAME="??4CDVBBoardControl@@QAEAAV0@ABV0@@Z" PURGE="4" COMMENT="" />
    <EXPORT ORDINAL="23" NAME="??4CDVBCommon@@QAEAAV0@ABV0@@Z" PURGE="4" COMMENT="" />
    <EXPORT ORDINAL="24" NAME="??4CDVBNIM@@QAEAAV0@ABV0@@Z" PURGE="4" COMMENT="" />
    <EXPORT ORDINAL="25" NAME="??_7CDVBBoardControl@@6B@" PURGE="-1" COMMENT="" />
    <EXPORT ORDINAL="26" NAME="??_7CDVBComnIF@@6B@" PURGE="-1" COMMENT="" />
    <EXPORT ORDINAL="27" NAME="??_7CDVBFilterToFile@@6B@" PURGE="-1" COMMENT="" />
    <EXPORT ORDINAL="28" NAME="??_7CDVBFrontend@@6B@" PURGE="-1" COMMENT="" />
    <EXPORT ORDINAL="29" NAME="??_7CDVBNIM@@6B@" PURGE="-1" COMMENT="" />
    <EXPORT ORDINAL="30" NAME="??_7CDVBRemoteControl@@6B@" PURGE="-1" COMMENT="" />
    <EXPORT ORDINAL="31" NAME="??_7CDVBTSFilter@@6B@" PURGE="-1" COMMENT="" />
    <EXPORT ORDINAL="32" NAME="??_7CDVBTeletext@@6B@" PURGE="-1" COMMENT="" />
    <EXPORT ORDINAL="33" NAME="??_7CUSBRemoteControl@@6B@" PURGE="-1" COMMENT="" />
    <EXPORT ORDINAL="34" NAME="?AddFilter@CDVBTSFilter@@AAE?AW4DVB_ERROR@@AAEW4FILTERTYPE@1@GPAE2E@Z" PURGE="24" COMMENT="" />
    <EXPORT ORDINAL="35" NAME="?AddMultiMultiPIDMACFilter@CDVBTSFilter@@AAE?AW4DVB_ERROR@@AAGPAGG@Z" PURGE="12" COMMENT="" />
    <EXPORT ORDINAL="36" NAME="?AddMultiPIDFilter@CDVBTSFilter@@AAE?AW4DVB_ERROR@@AAEPAGG@Z" PURGE="12" COMMENT="" />
    <EXPORT ORDINAL="37" NAME="?Answer@CDVBComnIF@@QAE?AW4DVB_ERROR@@EPADE@Z" PURGE="12" COMMENT="" />
    <EXPORT ORDINAL="38" NAME="?CI_MessageHandler@CDVBComnIF@@AAEFEW4typ_CiMsgHandlerTag@@PADG@Z" PURGE="16" COMMENT="" />
    <EXPORT ORDINAL="39" NAME="?CheckRegistration@CDVBBoardControl@@QAE?AW4DVB_ERROR@@PBD@Z" PURGE="4" COMMENT="" />
    <EXPORT ORDINAL="40" NAME="?Close@CDVBComnIF@@QAE?AW4DVB_ERROR@@XZ" PURGE="0" COMMENT="" />
    <EXPORT ORDINAL="41" NAME="?CloseCurrentApp@CDVBCommon@@SAHGK@Z" PURGE="0" COMMENT="" />
    <EXPORT ORDINAL="42" NAME="?CloseDevice@CDVBCommon@@SAXXZ" PURGE="0" COMMENT="" />
    <EXPORT ORDINAL="43" NAME="?CloseMMI@CDVBComnIF@@QAE?AW4DVB_ERROR@@E@Z" PURGE="4" COMMENT="" />
    <EXPORT ORDINAL="44" NAME="?ClrBit_1820@CDVBFrontend@@AAEXXZ" PURGE="0" COMMENT="" />
    <EXPORT ORDINAL="45" NAME="?ClrBit_1877_93@CDVBFrontend@@AAEXXZ" PURGE="0" COMMENT="" />
    <EXPORT ORDINAL="46" NAME="?ClrBit_8083@CDVBFrontend@@AAEXXZ" PURGE="0" COMMENT="" />
    <EXPORT ORDINAL="47" NAME="?CommsReply@CDVBComnIF@@QAE?AW4DVB_ERROR@@EEE@Z" PURGE="12" COMMENT="" />
    <EXPORT ORDINAL="48" NAME="?ConvertCharBuf@CDVBComnIF@@QAEHAAVCString@@H@Z" PURGE="8" COMMENT="" />
    <EXPORT ORDINAL="49" NAME="?DRV_Close@CDVBComnIF@@AAEHH@Z" PURGE="4" COMMENT="" />
    <EXPORT ORDINAL="50" NAME="?DRV_Ioctl@CDVBComnIF@@AAEHHHPAX@Z" PURGE="12" COMMENT="" />
    <EXPORT ORDINAL="51" NAME="?DRV_Open@CDVBComnIF@@AAEHH@Z" PURGE="4" COMMENT="" />
    <EXPORT ORDINAL="52" NAME="?DRV_Read@CDVBComnIF@@AAEHHHPAE@Z" PURGE="12" COMMENT="" />
    <EXPORT ORDINAL="53" NAME="?DRV_Write@CDVBComnIF@@AAEHHGPAE@Z" PURGE="12" COMMENT="" />
    <EXPORT ORDINAL="54" NAME="?DecodeConnectionDesc@CDVBComnIF@@AAEXPADPAU_typ_ConnectionDesc@1@@Z" PURGE="8" COMMENT="" />
    <EXPORT ORDINAL="55" NAME="?DecodeLengthField@CDVBComnIF@@AAEFPAEPAG@Z" PURGE="8" COMMENT="" />
    <EXPORT ORDINAL="56" NAME="?DelFilter@CDVBTSFilter@@AAE?AW4DVB_ERROR@@E@Z" PURGE="4" COMMENT="" />
    <EXPORT ORDINAL="57" NAME="?DelMultiMultiPIDMACFilter@CDVBTSFilter@@AAE?AW4DVB_ERROR@@G@Z" PURGE="4" COMMENT="" />
    <EXPORT ORDINAL="58" NAME="?DoReceive@CDVBTSFilter@@AAEXXZ" PURGE="0" COMMENT="" />
    <EXPORT ORDINAL="59" NAME="?EnableDataDMA@CDVBBoardControl@@QAE?AW4DVB_ERROR@@H@Z" PURGE="4" COMMENT="" />
    <EXPORT ORDINAL="60" NAME="?EnterModuleMenu@CDVBComnIF@@QAE?AW4DVB_ERROR@@E@Z" PURGE="4" COMMENT="" />
    <EXPORT ORDINAL="61" NAME="?GetAFC@CDVBFrontend@@AAEHXZ" PURGE="0" COMMENT="" />
    <EXPORT ORDINAL="62" NAME="?GetAGC@CDVBFrontend@@AAEEXZ" PURGE="0" COMMENT="" />
    <EXPORT ORDINAL="63" NAME="?GetActDeviceHandle@CDVBCommon@@SAPAXXZ" PURGE="0" COMMENT="" />
    <EXPORT ORDINAL="64" NAME="?GetActDeviceIdx@CDVBCommon@@SAGXZ" PURGE="0" COMMENT="" />
    <EXPORT ORDINAL="65" NAME="?GetAntennaPower@CDVBFrontend@@QAE?AW4DVB_ERROR@@AAK@Z" PURGE="4" COMMENT="" />
    <EXPORT ORDINAL="66" NAME="?GetAppCloseMessage@CDVBCommon@@SAPBDXZ" PURGE="0" COMMENT="" />
    <EXPORT ORDINAL="67" NAME="?GetBER@CDVBFrontend@@AAENXZ" PURGE="0" COMMENT="" />
    <EXPORT ORDINAL="68" NAME="?GetBandwidthAndGap@CDVBFrontend@@QAEXAAK00@Z" PURGE="12" COMMENT="" />
    <EXPORT ORDINAL="69" NAME="?GetBandwidthRange@CDVBFrontend@@QAEXAAW4_BANDWITH_TYPE@1@0@Z" PURGE="8" COMMENT="" />
    <EXPORT ORDINAL="70" NAME="?GetBoardRevision@CDVBFrontend@@AAEGXZ" PURGE="0" COMMENT="" />
    <EXPORT ORDINAL="71" NAME="?GetByteCount@CDVBTSFilter@@QAEKXZ" PURGE="0" COMMENT="" />
    <EXPORT ORDINAL="72" NAME="?GetCIVersion@CDVBComnIF@@QAE?AW4DVB_ERROR@@AAVCString@@0@Z" PURGE="8" COMMENT="" />
    <EXPORT ORDINAL="73" NAME="?GetCapabilities@CDVBFrontend@@QAEKXZ" PURGE="0" COMMENT="" />
    <EXPORT ORDINAL="74" NAME="?GetChannel@CDVBFrontend@@QAE?AW4DVB_ERROR@@AAU_CHANNEL_TYPE@1@@Z" PURGE="4" COMMENT="" />
    <EXPORT ORDINAL="75" NAME="?GetCurrentDevApp@CDVBCommon@@SAHGAAPBD0@Z" PURGE="0" COMMENT="" />
    <EXPORT ORDINAL="76" NAME="?GetDeviceInfo@CDVBCommon@@SAHGAAVCString@@00@Z" PURGE="0" COMMENT="" />
    <EXPORT ORDINAL="77" NAME="?GetDeviceInfoEx@CDVBCommon@@CAHGAAVCString@@0000AAGAAH@Z" PURGE="0" COMMENT="" />
    <EXPORT ORDINAL="78" NAME="?GetDeviceInfoNT@CDVBCommon@@CAHGAAVCString@@000AAGAAH@Z" PURGE="0" COMMENT="" />
    <EXPORT ORDINAL="79" NAME="?GetDeviceNameNT@CDVBCommon@@CA?AVCString@@G@Z" PURGE="0" COMMENT="" />
    <EXPORT ORDINAL="80" NAME="?GetDeviceRegistryPath@CDVBCommon@@SAHHAAVCString@@@Z" PURGE="0" COMMENT="" />
    <EXPORT ORDINAL="81" NAME="?GetDriverStatus@CDVBBoardControl@@QAEHPAKE@Z" PURGE="8" COMMENT="" />
    <EXPORT ORDINAL="82" NAME="?GetExePath@CDVBCommon@@KA?AVCString@@XZ" PURGE="0" COMMENT="" />
    <EXPORT ORDINAL="83" NAME="?GetFileLen@CDVBFilterToFile@@QAEKXZ" PURGE="0" COMMENT="" />
    <EXPORT ORDINAL="84" NAME="?GetFilterID@CDVBTSFilter@@QAEEXZ" PURGE="0" COMMENT="" />
    <EXPORT ORDINAL="85" NAME="?GetFilterStatus@CDVBTSFilter@@AAEHEAAK0@Z" PURGE="12" COMMENT="" />
    <EXPORT ORDINAL="86" NAME="?GetFiltersByteCount@CDVBTSFilter@@SA?AW4DVB_ERROR@@PAKE@Z" PURGE="0" COMMENT="" />
    <EXPORT ORDINAL="87" NAME="?GetFrequencyRange@CDVBFrontend@@QAEXAAK0@Z" PURGE="8" COMMENT="" />
    <EXPORT ORDINAL="88" NAME="?GetIP_SM_From_MAC@CDVBCommon@@CAHVCString@@AAV2@1AAH@Z" PURGE="0" COMMENT="" />
    <EXPORT ORDINAL="89" NAME="?GetIPandPort@CDVBTSFilter@@AAE?AW4DVB_ERROR@@AAVCString@@AAG@Z" PURGE="8" COMMENT="" />
    <EXPORT ORDINAL="90" NAME="?GetIR_Type@CDVBRemoteControl@@QAE?AW4IR_TYPE@1@XZ" PURGE="0" COMMENT="" />
    <EXPORT ORDINAL="91" NAME="?GetIR_Type@CUSBRemoteControl@@QAE?AW4IR_TYPE@1@XZ" PURGE="0" COMMENT="" />
    <EXPORT ORDINAL="92" NAME="?GetInversion@CDVBFrontend@@AAEHXZ" PURGE="0" COMMENT="" />
    <EXPORT ORDINAL="93" NAME="?GetLockState@CDVBFrontend@@AAEHPAU_LOCK_STATE@1@@Z" PURGE="4" COMMENT="" />
    <EXPORT ORDINAL="94" NAME="?GetMACAddress@CDVBBoardControl@@QAE?AW4DVB_ERROR@@AAK0@Z" PURGE="8" COMMENT="" />
    <EXPORT ORDINAL="95" NAME="?GetMulticastList@CDVBBoardControl@@QAE?AW4DVB_ERROR@@AAU_MULTICAST_LIST@1@@Z" PURGE="4" COMMENT="" />
    <EXPORT ORDINAL="96" NAME="?GetNetInfo2000@CDVBCommon@@CAHVCString@@AAV2@11AAGAAH@Z" PURGE="0" COMMENT="" />
    <EXPORT ORDINAL="97" NAME="?GetNetInfo98@CDVBCommon@@CAHVCString@@AAV2@11AAGAAH@Z" PURGE="0" COMMENT="" />
    <EXPORT ORDINAL="98" NAME="?GetNetInfo@CDVBCommon@@CAHVCString@@AAV2@11AAGAAH@Z" PURGE="0" COMMENT="" />
    <EXPORT ORDINAL="99" NAME="?GetNumberOfDevices@CDVBCommon@@SAGXZ" PURGE="0" COMMENT="" />
    <EXPORT ORDINAL="100" NAME="?GetNumberOfDevicesNT@CDVBCommon@@CAGXZ" PURGE="0" COMMENT="" />
    <EXPORT ORDINAL="101" NAME="?GetPIDCount@CDVBTSFilter@@QAEXAAK0@Z" PURGE="8" COMMENT="" />
    <EXPORT ORDINAL="102" NAME="?GetPWM@CDVBFrontend@@AAEEXZ" PURGE="0" COMMENT="" />
    <EXPORT ORDINAL="103" NAME="?GetSNR_SQE@CDVBFrontend@@AAEGXZ" PURGE="0" COMMENT="" />
    <EXPORT ORDINAL="104" NAME="?GetScrambleFlags@CDVBTSFilter@@QAEKXZ" PURGE="0" COMMENT="" />
    <EXPORT ORDINAL="105" NAME="?GetSearchState@CDVBFrontend@@QAEKXZ" PURGE="0" COMMENT="" />
    <EXPORT ORDINAL="106" NAME="?GetSlotStatus@CDVBComnIF@@QAE?AW4DVB_ERROR@@E@Z" PURGE="4" COMMENT="" />
    <EXPORT ORDINAL="107" NAME="?GetState@CDVBFrontend@@QAE?AW4DVB_ERROR@@AAHPAU_SIGNAL_TYPE@1@PAU_LOCK_STATE@1@@Z" PURGE="12" COMMENT="" />
    <EXPORT ORDINAL="108" NAME="?GetSubDeviceIDs@CDVBBoardControl@@QAE?AW4DVB_ERROR@@AAG0@Z" PURGE="8" COMMENT="" />
    <EXPORT ORDINAL="109" NAME="?GetSymbolRateRange@CDVBFrontend@@QAEXAAK0@Z" PURGE="8" COMMENT="" />
    <EXPORT ORDINAL="110" NAME="?GetTPS@CDVBFrontend@@QAEHPAU_TYPE_TPS@1@@Z" PURGE="4" COMMENT="" />
    <EXPORT ORDINAL="111" NAME="?GetTPSMode@CDVBFrontend@@AAEHU_TYPE_TPS@1@@Z" PURGE="40" COMMENT="" />
    <EXPORT ORDINAL="112" NAME="?GetType@CDVBFrontend@@QAE?AW4_FRONTEND_TYPE@1@XZ" PURGE="0" COMMENT="" />
    <EXPORT ORDINAL="113" NAME="?GetVersions@CDVBBoardControl@@QAE?AW4DVB_ERROR@@AAK0@Z" PURGE="8" COMMENT="" />
    <EXPORT ORDINAL="114" NAME="?GetWinSysVer@CDVBCommon@@CAHXZ" PURGE="0" COMMENT="" />
    <EXPORT ORDINAL="115" NAME="?Get_IP_SM_BP@CDVBBoardControl@@QAE?AW4DVB_ERROR@@AAK0AAG@Z" PURGE="12" COMMENT="" />
    <EXPORT ORDINAL="116" NAME="?Init@CDVBFrontend@@QAE?AW4DVB_ERROR@@XZ" PURGE="0" COMMENT="" />
    <EXPORT ORDINAL="117" NAME="?InitDvbApiDll@@YAXXZ" PURGE="0" COMMENT="" />
    <EXPORT ORDINAL="118" NAME="?InitFE@CDVBFrontend@@AAEGXZ" PURGE="0" COMMENT="" />
    <EXPORT ORDINAL="119" NAME="?InitIntern@CDVBFrontend@@AAEGXZ" PURGE="0" COMMENT="" />
    <EXPORT ORDINAL="120" NAME="?IsAnalogLocked@CDVBFrontend@@AAEHXZ" PURGE="0" COMMENT="" />
    <EXPORT ORDINAL="121" NAME="?IsOpen@CDVBCommon@@SAHXZ" PURGE="0" COMMENT="" />
    <EXPORT ORDINAL="122" NAME="?IsRunning@CDVBComnIF@@AAEHXZ" PURGE="0" COMMENT="" />
    <EXPORT ORDINAL="123" NAME="?IsRunning@CDVBFrontend@@AAEHXZ" PURGE="0" COMMENT="" />
    <EXPORT ORDINAL="124" NAME="?IsRunning@CDVBRemoteControl@@AAEHXZ" PURGE="0" COMMENT="" />
    <EXPORT ORDINAL="125" NAME="?IsRunning@CDVBTSFilter@@AAEHXZ" PURGE="0" COMMENT="" />
    <EXPORT ORDINAL="126" NAME="?IsRunning@CUSBRemoteControl@@AAEHXZ" PURGE="0" COMMENT="" />
    <EXPORT ORDINAL="127" NAME="?Log2Const@CDVBFrontend@@0PANA" PURGE="-1" COMMENT="" />
    <EXPORT ORDINAL="128" NAME="?MenuAnswer@CDVBComnIF@@QAE?AW4DVB_ERROR@@EE@Z" PURGE="8" COMMENT="" />
    <EXPORT ORDINAL="129" NAME="?OnCAStatus@CDVBComnIF@@MAEXEEG@Z" PURGE="12" COMMENT="" />
    <EXPORT ORDINAL="130" NAME="?OnClearReplace@CDVBComnIF@@MAEXEE@Z" PURGE="8" COMMENT="" />
    <EXPORT ORDINAL="131" NAME="?OnDataArrival@CDVBFilterToFile@@MAEXPAEH@Z" PURGE="-1" COMMENT="" />
    <EXPORT ORDINAL="132" NAME="?OnDataArrival@CDVBTSFilter@@MAEXPAEH@Z" PURGE="8" COMMENT="" />
    <EXPORT ORDINAL="133" NAME="?OnDataArrival@CDVBTeletext@@EAEXPAEH@Z" PURGE="8" COMMENT="" />
    <EXPORT ORDINAL="134" NAME="?OnDisplayList@CDVBComnIF@@MAEXEGPADG@Z" PURGE="16" COMMENT="" />
    <EXPORT ORDINAL="135" NAME="?OnDisplayMenu@CDVBComnIF@@MAEXEGPADG@Z" PURGE="16" COMMENT="" />
    <EXPORT ORDINAL="136" NAME="?OnDisplayString@CDVBComnIF@@MAEXEPADG@Z" PURGE="12" COMMENT="" />
    <EXPORT ORDINAL="137" NAME="?OnInputRequest@CDVBComnIF@@MAEXEHEK@Z" PURGE="16" COMMENT="" />
    <EXPORT ORDINAL="138" NAME="?OnLscConnect@CDVBComnIF@@MAEXE@Z" PURGE="4" COMMENT="" />
    <EXPORT ORDINAL="139" NAME="?OnLscDisconnect@CDVBComnIF@@MAEXE@Z" PURGE="4" COMMENT="" />
    <EXPORT ORDINAL="140" NAME="?OnLscEnquireStatus@CDVBComnIF@@MAEXE@Z" PURGE="4" COMMENT="" />
    <EXPORT ORDINAL="141" NAME="?OnLscGetNextBuffer@CDVBComnIF@@MAEXEE@Z" PURGE="8" COMMENT="" />
    <EXPORT ORDINAL="142" NAME="?OnLscSetDescriptor@CDVBComnIF@@MAEXEPAU_typ_ConnectionDesc@1@@Z" PURGE="8" COMMENT="" />
    <EXPORT ORDINAL="143" NAME="?OnLscSetParams@CDVBComnIF@@MAEXEEE@Z" PURGE="12" COMMENT="" />
    <EXPORT ORDINAL="144" NAME="?OnLscTransmitBuffer@CDVBComnIF@@MAEXEEPAEG@Z" PURGE="16" COMMENT="" />
    <EXPORT ORDINAL="145" NAME="?OnRC5Code@CUSBRemoteControl@@MAEXG@Z" PURGE="4" COMMENT="" />
    <EXPORT ORDINAL="146" NAME="?OnRemoteControlCode@CDVBRemoteControl@@MAEXPAEH@Z" PURGE="8" COMMENT="" />
    <EXPORT ORDINAL="147" NAME="?OnRemoteControlCode@CUSBRemoteControl@@MAEXPAEH@Z" PURGE="8" COMMENT="" />
    <EXPORT ORDINAL="148" NAME="?OnReplace@CDVBComnIF@@MAEXEEGG@Z" PURGE="16" COMMENT="" />
    <EXPORT ORDINAL="149" NAME="?OnSlotStatus@CDVBComnIF@@MAEXEEPAU_typ_SlotInfo@1@@Z" PURGE="12" COMMENT="" />
    <EXPORT ORDINAL="150" NAME="?OnSwitchOsdOff@CDVBComnIF@@MAEXE@Z" PURGE="4" COMMENT="" />
    <EXPORT ORDINAL="151" NAME="?OnTTXPage@CDVBTeletext@@UAEXPAEH@Z" PURGE="8" COMMENT="" />
    <EXPORT ORDINAL="152" NAME="?OnTune@CDVBComnIF@@MAEXEGGGG@Z" PURGE="20" COMMENT="" />
    <EXPORT ORDINAL="153" NAME="?Open@CDVBComnIF@@QAE?AW4DVB_ERROR@@XZ" PURGE="0" COMMENT="" />
    <EXPORT ORDINAL="154" NAME="?OpenDevice@CDVBCommon@@SAHGPBDH@Z" PURGE="0" COMMENT="" />
    <EXPORT ORDINAL="155" NAME="?OpenDriver@CDVBCommon@@CAHPBD@Z" PURGE="0" COMMENT="" />
    <EXPORT ORDINAL="156" NAME="?Read87J205@CDVBFrontend@@AAEHGGPAE@Z" PURGE="12" COMMENT="" />
    <EXPORT ORDINAL="157" NAME="?ReadI2CMultiReg@CDVBFrontend@@AAEHEEEPAE@Z" PURGE="16" COMMENT="" />
    <EXPORT ORDINAL="158" NAME="?ReadI2CReg0297@CDVBFrontend@@AAEHEEAAE@Z" PURGE="12" COMMENT="" />
    <EXPORT ORDINAL="159" NAME="?ReadI2CReg1010@CDVBFrontend@@AAEHEEAAE@Z" PURGE="12" COMMENT="" />
    <EXPORT ORDINAL="160" NAME="?ReadI2CReg@CDVBFrontend@@AAEHEEAAE@Z" PURGE="12" COMMENT="" />
    <EXPORT ORDINAL="161" NAME="?ReadPSIFast@CDVBComnIF@@QAE?AW4DVB_ERROR@@G@Z" PURGE="4" COMMENT="" />
    <EXPORT ORDINAL="162" NAME="?ReadVES18xx@CDVBFrontend@@AAEHEEAAE@Z" PURGE="12" COMMENT="" />
    <EXPORT ORDINAL="163" NAME="?ReceiveDatagram@CDVBTSFilter@@AAEHPADHPAUsockaddr@@H@Z" PURGE="16" COMMENT="" />
    <EXPORT ORDINAL="164" NAME="?ResetAllSlaveFilters@CDVBBoardControl@@QAEXXZ" PURGE="0" COMMENT="" />
    <EXPORT ORDINAL="165" NAME="?ResetFilter@CDVBTSFilter@@QAE?AW4DVB_ERROR@@XZ" PURGE="0" COMMENT="" />
    <EXPORT ORDINAL="166" NAME="?ResetInit@CDVBBoardControl@@QAE?AW4DVB_ERROR@@XZ" PURGE="0" COMMENT="" />
    <EXPORT ORDINAL="167" NAME="?ResetMultiMultiFilter@CDVBTSFilter@@QAE?AW4DVB_ERROR@@XZ" PURGE="0" COMMENT="" />
    <EXPORT ORDINAL="168" NAME="?RetrieveTPS@CDVBFrontend@@AAEXPBDAAU_TYPE_TPS@1@@Z" PURGE="8" COMMENT="" />
    <EXPORT ORDINAL="169" NAME="?Run@CDVBComnIF@@AAEHXZ" PURGE="0" COMMENT="" />
    <EXPORT ORDINAL="170" NAME="?Run@CDVBFrontend@@AAEHXZ" PURGE="0" COMMENT="" />
    <EXPORT ORDINAL="171" NAME="?Run@CDVBRemoteControl@@AAEHXZ" PURGE="0" COMMENT="" />
    <EXPORT ORDINAL="172" NAME="?Run@CDVBTSFilter@@AAEHXZ" PURGE="0" COMMENT="" />
    <EXPORT ORDINAL="173" NAME="?Run@CUSBRemoteControl@@AAEHXZ" PURGE="0" COMMENT="" />
    <EXPORT ORDINAL="174" NAME="?SClose@CDVBTSFilter@@QAEXXZ" PURGE="0" COMMENT="" />
    <EXPORT ORDINAL="175" NAME="?SOpen@CDVBTSFilter@@QAEHEPAH@Z" PURGE="8" COMMENT="" />
    <EXPORT ORDINAL="176" NAME="?SearchNextChannel@CDVBFrontend@@QAEKKH@Z" PURGE="8" COMMENT="" />
    <EXPORT ORDINAL="177" NAME="?SendDiSEqCMsg@CDVBFrontend@@QAE?AW4DVB_ERROR@@EHHHHE@Z" PURGE="24" COMMENT="" />
    <EXPORT ORDINAL="178" NAME="?SendDiSEqCMsg@CDVBFrontend@@QAE?AW4DVB_ERROR@@PAEEE@Z" PURGE="12" COMMENT="" />
    <EXPORT ORDINAL="179" NAME="?SetAntennaPower@CDVBFrontend@@QAE?AW4DVB_ERROR@@H@Z" PURGE="4" COMMENT="" />
    <EXPORT ORDINAL="180" NAME="?SetBER_Exp@CDVBFrontend@@AAEXK@Z" PURGE="4" COMMENT="" />
    <EXPORT ORDINAL="181" NAME="?SetChannel@CDVBFrontend@@QAE?AW4DVB_ERROR@@U_CHANNEL_TYPE@1@H@Z" PURGE="32" COMMENT="" />
    <EXPORT ORDINAL="182" NAME="?SetFileParams@CDVBFilterToFile@@QAEXABVCString@@I@Z" PURGE="8" COMMENT="" />
    <EXPORT ORDINAL="183" NAME="?SetFilter@CDVBTSFilter@@QAE?AW4DVB_ERROR@@W4FILTERTYPE@1@GPAE1E@Z" PURGE="20" COMMENT="" />
    <EXPORT ORDINAL="184" NAME="?SetFinePWM@CDVBFrontend@@AAEXG@Z" PURGE="4" COMMENT="" />
    <EXPORT ORDINAL="185" NAME="?SetFreq@CDVBFrontend@@AAEKKKKW4_BANDWITH_TYPE@1@H@Z" PURGE="20" COMMENT="" />
    <EXPORT ORDINAL="186" NAME="?SetFreq_64781@CDVBFrontend@@AAEKKKH@Z" PURGE="12" COMMENT="" />
    <EXPORT ORDINAL="187" NAME="?SetFreq_64781_6MHz@CDVBFrontend@@AAEKKKH@Z" PURGE="12" COMMENT="" />
    <EXPORT ORDINAL="188" NAME="?SetFreq_64781_neu@CDVBFrontend@@AAEKKKH@Z" PURGE="12" COMMENT="" />
    <EXPORT ORDINAL="189" NAME="?SetIPAddress@CDVBCommon@@CA?AW4DVB_ERROR@@VCString@@0@Z" PURGE="0" COMMENT="" />
    <EXPORT ORDINAL="190" NAME="?SetInversion@CDVBFrontend@@AAEHH@Z" PURGE="4" COMMENT="" />
    <EXPORT ORDINAL="191" NAME="?SetMultiMultiFilter@CDVBTSFilter@@QAE?AW4DVB_ERROR@@PAGG@Z" PURGE="8" COMMENT="" />
    <EXPORT ORDINAL="192" NAME="?SetMultiPIDFilter@CDVBTSFilter@@QAE?AW4DVB_ERROR@@PAGG@Z" PURGE="8" COMMENT="" />
    <EXPORT ORDINAL="193" NAME="?SetOFDMParams@CDVBFrontend@@AAEHPAU_TYPE_TPS@1@@Z" PURGE="4" COMMENT="" />
    <EXPORT ORDINAL="194" NAME="?SetPWM@CDVBFrontend@@AAEXE@Z" PURGE="4" COMMENT="" />
    <EXPORT ORDINAL="195" NAME="?SetQAM@CDVBFrontend@@AAEXW4_QAM_TYPE@1@@Z" PURGE="4" COMMENT="" />
    <EXPORT ORDINAL="196" NAME="?SetRemoteControl@CDVBRemoteControl@@QAE?AW4DVB_ERROR@@W4IR_TYPE@1@G@Z" PURGE="8" COMMENT="" />
    <EXPORT ORDINAL="197" NAME="?SetRemoteControl@CUSBRemoteControl@@QAE?AW4DVB_ERROR@@W4IR_TYPE@1@G@Z" PURGE="8" COMMENT="" />
    <EXPORT ORDINAL="198" NAME="?SetSTV0299Search@CDVBFrontend@@AAEX_N@Z" PURGE="4" COMMENT="" />
    <EXPORT ORDINAL="199" NAME="?SetSymRate@CDVBFrontend@@AAEKK@Z" PURGE="4" COMMENT="" />
    <EXPORT ORDINAL="200" NAME="?SetViterbi@CDVBFrontend@@AAEXW4_VITERBI_TYPE@1@@Z" PURGE="4" COMMENT="" />
    <EXPORT ORDINAL="201" NAME="?SetWinSockFilter@CDVBTSFilter@@QAE?AW4DVB_ERROR@@W4FILTERTYPE@1@GPAE1E@Z" PURGE="20" COMMENT="" />
    <EXPORT ORDINAL="202" NAME="?SetupCiEvent@CDVBComnIF@@AAEHH@Z" PURGE="4" COMMENT="" />
    <EXPORT ORDINAL="203" NAME="?SetupIREvent@CDVBRemoteControl@@AAEHH@Z" PURGE="4" COMMENT="" />
    <EXPORT ORDINAL="204" NAME="?SocketClose@CDVBTSFilter@@AAEHXZ" PURGE="0" COMMENT="" />
    <EXPORT ORDINAL="205" NAME="?SocketOpen@CDVBTSFilter@@AAEHE@Z" PURGE="4" COMMENT="" />
    <EXPORT ORDINAL="206" NAME="?StartDemod@CDVBFrontend@@AAEHXZ" PURGE="0" COMMENT="" />
    <EXPORT ORDINAL="207" NAME="?StartFilter@CDVBFilterToFile@@QAE?AW4DVB_ERROR@@W4FILTERTYPE@CDVBTSFilter@@GPAE1E@Z" PURGE="20" COMMENT="" />
    <EXPORT ORDINAL="208" NAME="?StartMultiPIDFilter@CDVBFilterToFile@@QAE?AW4DVB_ERROR@@PAGG@Z" PURGE="8" COMMENT="" />
    <EXPORT ORDINAL="209" NAME="?StartThread@CDVBComnIF@@AAEHH@Z" PURGE="4" COMMENT="" />
    <EXPORT ORDINAL="210" NAME="?StartThread@CDVBFrontend@@AAEHH@Z" PURGE="4" COMMENT="" />
    <EXPORT ORDINAL="211" NAME="?StartThread@CDVBRemoteControl@@AAEHH@Z" PURGE="4" COMMENT="" />
    <EXPORT ORDINAL="212" NAME="?StartThread@CDVBTSFilter@@AAEHH@Z" PURGE="4" COMMENT="" />
    <EXPORT ORDINAL="213" NAME="?StartThread@CUSBRemoteControl@@AAEHH@Z" PURGE="4" COMMENT="" />
    <EXPORT ORDINAL="214" NAME="?StopFilter@CDVBFilterToFile@@QAE?AW4DVB_ERROR@@XZ" PURGE="0" COMMENT="" />
    <EXPORT ORDINAL="215" NAME="?StopSearch@CDVBFrontend@@QAEXXZ" PURGE="0" COMMENT="" />
    <EXPORT ORDINAL="216" NAME="?StopThread@CDVBComnIF@@AAEHK@Z" PURGE="4" COMMENT="" />
    <EXPORT ORDINAL="217" NAME="?StopThread@CDVBFrontend@@AAEHK@Z" PURGE="4" COMMENT="" />
    <EXPORT ORDINAL="218" NAME="?StopThread@CDVBRemoteControl@@AAEHK@Z" PURGE="4" COMMENT="" />
    <EXPORT ORDINAL="219" NAME="?StopThread@CDVBTSFilter@@AAEHK@Z" PURGE="4" COMMENT="" />
    <EXPORT ORDINAL="220" NAME="?StopThread@CUSBRemoteControl@@AAEHK@Z" PURGE="4" COMMENT="" />
    <EXPORT ORDINAL="221" NAME="?StoreTPS@CDVBFrontend@@AAEXPBDU_TYPE_TPS@1@@Z" PURGE="44" COMMENT="" />
    <EXPORT ORDINAL="222" NAME="?SwitchVideoPort@CDVBComnIF@@AAE?AW4DVB_ERROR@@H@Z" PURGE="4" COMMENT="" />
    <EXPORT ORDINAL="223" NAME="?TSRecordOnOff@CDVBBoardControl@@QAEHH@Z" PURGE="4" COMMENT="" />
    <EXPORT ORDINAL="224" NAME="?TSRecordRead@CDVBBoardControl@@QAEHPAEH@Z" PURGE="8" COMMENT="" />
    <EXPORT ORDINAL="225" NAME="?TTXGetP29_P830@CDVBTeletext@@QAEHH@Z" PURGE="4" COMMENT="" />
    <EXPORT ORDINAL="226" NAME="?TTXModifySearchTable@CDVBTeletext@@QAEHGGGW4TTX_REQUEST@1@@Z" PURGE="16" COMMENT="" />
    <EXPORT ORDINAL="227" NAME="?TTXOff@CDVBTeletext@@QAE?AW4DVB_ERROR@@XZ" PURGE="0" COMMENT="" />
    <EXPORT ORDINAL="228" NAME="?TTXOn@CDVBTeletext@@QAE?AW4DVB_ERROR@@G@Z" PURGE="4" COMMENT="" />
    <EXPORT ORDINAL="229" NAME="?TunerI2CEnable@CDVBFrontend@@AAEXXZ" PURGE="0" COMMENT="" />
    <EXPORT ORDINAL="230" NAME="?VerfifyCabTerFreq@CDVBFrontend@@AAEKK@Z" PURGE="4" COMMENT="" />
    <EXPORT ORDINAL="231" NAME="?VerfifyCabTerFreq_US@CDVBFrontend@@AAEKK@Z" PURGE="4" COMMENT="" />
    <EXPORT ORDINAL="232" NAME="?WorkerThread@CDVBComnIF@@CAIPAX@Z" PURGE="0" COMMENT="" />
    <EXPORT ORDINAL="233" NAME="?WorkerThread@CDVBFrontend@@CAIPAX@Z" PURGE="0" COMMENT="" />
    <EXPORT ORDINAL="234" NAME="?WorkerThread@CDVBRemoteControl@@CAIPAX@Z" PURGE="0" COMMENT="" />
    <EXPORT ORDINAL="235" NAME="?WorkerThread@CDVBTSFilter@@CAIPAX@Z" PURGE="0" COMMENT="" />
    <EXPORT ORDINAL="236" NAME="?WorkerThread@CUSBRemoteControl@@CAIPAX@Z" PURGE="0" COMMENT="" />
    <EXPORT ORDINAL="237" NAME="?Write2VES18xx@CDVBFrontend@@AAEHEEEE@Z" PURGE="16" COMMENT="" />
    <EXPORT ORDINAL="238" NAME="?Write87J205@CDVBFrontend@@AAEHGGPAE@Z" PURGE="12" COMMENT="" />
    <EXPORT ORDINAL="239" NAME="?WriteBlockVES18xx@CDVBFrontend@@AAEHEEEPAE@Z" PURGE="16" COMMENT="" />
    <EXPORT ORDINAL="240" NAME="?WriteI2CArray@CDVBFrontend@@AAEEEPAEH@Z" PURGE="12" COMMENT="" />
    <EXPORT ORDINAL="241" NAME="?WriteI2CArrayMC@CDVBFrontend@@AAEEEPAEH@Z" PURGE="12" COMMENT="" />
    <EXPORT ORDINAL="242" NAME="?WriteI2CByte@CDVBFrontend@@AAEHEE@Z" PURGE="8" COMMENT="" />
    <EXPORT ORDINAL="243" NAME="?WriteI2CMultiReg@CDVBFrontend@@AAEHEEEPAE@Z" PURGE="16" COMMENT="" />
    <EXPORT ORDINAL="244" NAME="?WriteI2CReg@CDVBFrontend@@AAEHEEE@Z" PURGE="12" COMMENT="" />
    <EXPORT ORDINAL="245" NAME="?WriteVES18xx@CDVBFrontend@@AAEHEEE@Z" PURGE="12" COMMENT="" />
    <EXPORT ORDINAL="246" NAME="?ciClearInterrupt@CDVBComnIF@@AAEHE@Z" PURGE="4" COMMENT="" />
    <EXPORT ORDINAL="247" NAME="?ciDisableInterrupt@CDVBComnIF@@AAEHE@Z" PURGE="4" COMMENT="" />
    <EXPORT ORDINAL="248" NAME="?ciEnableInterrupt@CDVBComnIF@@AAEHE@Z" PURGE="4" COMMENT="" />
    <EXPORT ORDINAL="249" NAME="?ciInit@CDVBComnIF@@AAEHXZ" PURGE="0" COMMENT="" />
    <EXPORT ORDINAL="250" NAME="?ciModuleEnableTS@CDVBComnIF@@AAEH_N@Z" PURGE="4" COMMENT="" />
    <EXPORT ORDINAL="251" NAME="?ciModuleReset@CDVBComnIF@@AAEH_N@Z" PURGE="4" COMMENT="" />
    <EXPORT ORDINAL="252" NAME="?ciRead@CDVBComnIF@@AAEHGAAE@Z" PURGE="8" COMMENT="" />
    <EXPORT ORDINAL="253" NAME="?ciReadBlock@CDVBComnIF@@AAEHGPAEG@Z" PURGE="12" COMMENT="" />
    <EXPORT ORDINAL="254" NAME="?ciReadSeq@CDVBComnIF@@AAEHGPAEG@Z" PURGE="12" COMMENT="" />
    <EXPORT ORDINAL="255" NAME="?ciReadState@CDVBComnIF@@AAEHAAE@Z" PURGE="4" COMMENT="" />
    <EXPORT ORDINAL="256" NAME="?ciReadVersion@CDVBComnIF@@AAEHAAE@Z" PURGE="4" COMMENT="" />
    <EXPORT ORDINAL="257" NAME="?ciSelectModule@CDVBComnIF@@AAEHW4CI_MODULE_INDEX@1@@Z" PURGE="4" COMMENT="" />
    <EXPORT ORDINAL="258" NAME="?ciSetAccessTime@CDVBComnIF@@AAEHW4CI_ACCESS_TIME@1@@Z" PURGE="4" COMMENT="" />
    <EXPORT ORDINAL="259" NAME="?ciSetAccessType@CDVBComnIF@@AAEHW4CI_ACCESS_TYPE@1@@Z" PURGE="4" COMMENT="" />
    <EXPORT ORDINAL="260" NAME="?ciWrite@CDVBComnIF@@AAEHGE@Z" PURGE="8" COMMENT="" />
    <EXPORT ORDINAL="261" NAME="?ciWriteBlock@CDVBComnIF@@AAEHGPAEG@Z" PURGE="12" COMMENT="" />
    <EXPORT ORDINAL="262" NAME="?ciWriteCtrl@CDVBComnIF@@AAEHE@Z" PURGE="4" COMMENT="" />
    <EXPORT ORDINAL="263" NAME="?ciWriteSeq@CDVBComnIF@@AAEHGPAEG@Z" PURGE="12" COMMENT="" />
    <EXPORT ORDINAL="264" NAME="?dCR@CDVBFrontend@@0PANA" PURGE="-1" COMMENT="" />
    <EXPORT ORDINAL="265" NAME="?dGuard@CDVBFrontend@@0PANA" PURGE="-1" COMMENT="" />
    <EXPORT ORDINAL="266" NAME="?dMode@CDVBFrontend@@0PANA" PURGE="-1" COMMENT="" />
    <EXPORT ORDINAL="267" NAME="?i2cRead@CDVBFrontend@@AAEHEPAHH@Z" PURGE="12" COMMENT="" />
    <EXPORT ORDINAL="268" NAME="?i2cWrite@CDVBFrontend@@AAEHEPAHH@Z" PURGE="12" COMMENT="" />
    <EXPORT ORDINAL="269" NAME="?i2cWriteRead@CDVBFrontend@@AAEHEPAHH0H@Z" PURGE="20" COMMENT="" />
    <EXPORT ORDINAL="270" NAME="?m_hDevice@CDVBCommon@@1PAXA" PURGE="-1" COMMENT="" />
    <EXPORT ORDINAL="271" NAME="?m_sDeviceRegistryPath@CDVBCommon@@0VCString@@A" PURGE="-1" COMMENT="" />
    <EXPORT ORDINAL="272" NAME="?m_wDevIdx@CDVBCommon@@1GA" PURGE="-1" COMMENT="" />
    <EXPORT ORDINAL="273" NAME="?o7k_ChannelChange@CDVBFrontend@@AAEKKH@Z" PURGE="8" COMMENT="" />
    <EXPORT ORDINAL="274" NAME="?o7k_ConnectTunerI2C@CDVBFrontend@@AAEXH@Z" PURGE="4" COMMENT="" />
    <EXPORT ORDINAL="275" NAME="?o7k_EnableTunerI2C@CDVBFrontend@@AAEXH@Z" PURGE="4" COMMENT="" />
    <EXPORT ORDINAL="276" NAME="?o7k_GetOTI7K_ID@CDVBFrontend@@AAEEXZ" PURGE="0" COMMENT="" />
    <EXPORT ORDINAL="277" NAME="?o7k_GetStatus@CDVBFrontend@@AAEHEAAHPAUOTI7K_Status@1@@Z" PURGE="12" COMMENT="" />
    <EXPORT ORDINAL="278" NAME="?o7k_GetTPS@CDVBFrontend@@AAEHPAU_TYPE_TPS@1@@Z" PURGE="4" COMMENT="" />
    <EXPORT ORDINAL="279" NAME="?o7k_InitOTI7K@CDVBFrontend@@AAEXH@Z" PURGE="4" COMMENT="" />
    <EXPORT ORDINAL="280" NAME="?o7k_ReadOTI7K@CDVBFrontend@@AAEHEEAAE@Z" PURGE="12" COMMENT="" />
    <EXPORT ORDINAL="281" NAME="?o7k_SetInversion@CDVBFrontend@@AAEHH@Z" PURGE="4" COMMENT="" />
    <EXPORT ORDINAL="282" NAME="?o7k_SetTunerFreq@CDVBFrontend@@AAEKKH@Z" PURGE="8" COMMENT="" />
    <EXPORT ORDINAL="283" NAME="?o7k_WriteOTI7K@CDVBFrontend@@AAEHEEE@Z" PURGE="12" COMMENT="" />
</LIBRARY>

