<?xml version="1.0" encoding="UTF-8"?>
<LIBRARY NAME="u3dapi10.dll" PATH="/DLLArchive/etc/u3dapi10.dll" DATE="Mon Mar 24 00:44:46 PDT 2008" VERSION="1, 0, 12, 0">
    <EXPORT ORDINAL="1" NAME="dapiCreateSession" PURGE="0" COMMENT="" />
    <EXPORT ORDINAL="2" NAME="dapiDestroySession" PURGE="0" COMMENT="" />
    <EXPORT ORDINAL="3" NAME="dapiRegisterCallback" PURGE="0" COMMENT="" />
    <EXPORT ORDINAL="4" NAME="dapiUnregisterCallback" PURGE="0" COMMENT="" />
    <EXPORT ORDINAL="5" NAME="dapiGetVersion" PURGE="0" COMMENT="" />
    <EXPORT ORDINAL="6" NAME="??0CCD@dok@@QAE@ABV01@@Z" PURGE="4" COMMENT="" />
    <EXPORT ORDINAL="7" NAME="??0CCD@dok@@QAE@PAVCUFDImpl@musk@@@Z" PURGE="4" COMMENT="" />
    <EXPORT ORDINAL="8" NAME="??0CCD@dok@@QAE@XZ" PURGE="0" COMMENT="" />
    <EXPORT ORDINAL="9" NAME="??0CCD@u3@@QAE@ABV01@@Z" PURGE="4" COMMENT="" />
    <EXPORT ORDINAL="10" NAME="??0CCD@u3@@QAE@PAVCUFDImpl@musk@@@Z" PURGE="4" COMMENT="" />
    <EXPORT ORDINAL="11" NAME="??0CConfig@dok@@QAE@ABV01@@Z" PURGE="4" COMMENT="" />
    <EXPORT ORDINAL="12" NAME="??0CConfig@dok@@QAE@PAVCUFDImpl@musk@@@Z" PURGE="4" COMMENT="" />
    <EXPORT ORDINAL="13" NAME="??0CConfig@dok@@QAE@XZ" PURGE="0" COMMENT="" />
    <EXPORT ORDINAL="14" NAME="??0CConfigService@u3@@QAE@ABV01@@Z" PURGE="4" COMMENT="" />
    <EXPORT ORDINAL="15" NAME="??0CConfigService@u3@@QAE@PAVCUFDImpl@musk@@@Z" PURGE="4" COMMENT="" />
    <EXPORT ORDINAL="16" NAME="??0CCookie@dok@@QAE@ABV01@@Z" PURGE="4" COMMENT="" />
    <EXPORT ORDINAL="17" NAME="??0CCookie@dok@@QAE@PAVCUFDImpl@musk@@@Z" PURGE="4" COMMENT="" />
    <EXPORT ORDINAL="18" NAME="??0CCookie@dok@@QAE@XZ" PURGE="0" COMMENT="" />
    <EXPORT ORDINAL="19" NAME="??0CCookie@u3@@QAE@ABV01@@Z" PURGE="4" COMMENT="" />
    <EXPORT ORDINAL="20" NAME="??0CCookie@u3@@QAE@PAVCUFDImpl@musk@@@Z" PURGE="4" COMMENT="" />
    <EXPORT ORDINAL="21" NAME="??0CCookie@u3@@QAE@XZ" PURGE="0" COMMENT="" />
    <EXPORT ORDINAL="22" NAME="??0CCrypto@dok@@QAE@ABV01@@Z" PURGE="4" COMMENT="" />
    <EXPORT ORDINAL="23" NAME="??0CCrypto@dok@@QAE@PAVCUFDImpl@musk@@@Z" PURGE="4" COMMENT="" />
    <EXPORT ORDINAL="24" NAME="??0CCrypto@dok@@QAE@XZ" PURGE="0" COMMENT="" />
    <EXPORT ORDINAL="25" NAME="??0CCrypto@u3@@QAE@ABV01@@Z" PURGE="4" COMMENT="" />
    <EXPORT ORDINAL="26" NAME="??0CCrypto@u3@@QAE@PAVCUFDImpl@musk@@@Z" PURGE="4" COMMENT="" />
    <EXPORT ORDINAL="27" NAME="??0CCrypto@u3@@QAE@XZ" PURGE="0" COMMENT="" />
    <EXPORT ORDINAL="28" NAME="??0CDeposit@dok@@QAE@ABV01@@Z" PURGE="4" COMMENT="" />
    <EXPORT ORDINAL="29" NAME="??0CDeposit@dok@@QAE@PAVCUFDImpl@musk@@@Z" PURGE="4" COMMENT="" />
    <EXPORT ORDINAL="30" NAME="??0CDeposit@dok@@QAE@XZ" PURGE="0" COMMENT="" />
    <EXPORT ORDINAL="31" NAME="??0CDepositConfig@musk@@IAE@PB_W@Z" PURGE="4" COMMENT="" />
    <EXPORT ORDINAL="32" NAME="??0CDepositConfig@musk@@QAE@ABV01@@Z" PURGE="4" COMMENT="" />
    <EXPORT ORDINAL="33" NAME="??0CDepositConfigRemovable@musk@@QAE@ABV01@@Z" PURGE="4" COMMENT="" />
    <EXPORT ORDINAL="34" NAME="??0CDepositConfigRemovable@musk@@QAE@XZ" PURGE="0" COMMENT="" />
    <EXPORT ORDINAL="35" NAME="??0CDeviceListener@musk@@QAE@ABV01@@Z" PURGE="4" COMMENT="" />
    <EXPORT ORDINAL="36" NAME="??0CDeviceListener@musk@@QAE@PAVCFilterDeviceParams@1@@Z" PURGE="4" COMMENT="" />
    <EXPORT ORDINAL="37" NAME="??0CDirectCommunication@dok@@QAE@ABV01@@Z" PURGE="4" COMMENT="" />
    <EXPORT ORDINAL="38" NAME="??0CDirectCommunication@dok@@QAE@PAVCUFDImpl@musk@@@Z" PURGE="4" COMMENT="" />
    <EXPORT ORDINAL="39" NAME="??0CDirectCommunication@dok@@QAE@XZ" PURGE="0" COMMENT="" />
    <EXPORT ORDINAL="40" NAME="??0CDirectCommunication@u3@@QAE@ABV01@@Z" PURGE="4" COMMENT="" />
    <EXPORT ORDINAL="41" NAME="??0CDirectCommunication@u3@@QAE@PAVCUFDImpl@musk@@@Z" PURGE="4" COMMENT="" />
    <EXPORT ORDINAL="42" NAME="??0CDomainAddress@musk@@QAE@ABV01@@Z" PURGE="4" COMMENT="" />
    <EXPORT ORDINAL="43" NAME="??0CDomainAddress@musk@@QAE@ABVCDomainConfiguration@1@@Z" PURGE="4" COMMENT="" />
    <EXPORT ORDINAL="44" NAME="??0CDomainAddress@musk@@QAE@PB_W@Z" PURGE="4" COMMENT="" />
    <EXPORT ORDINAL="45" NAME="??0CDomainConfiguration@musk@@QAE@ABV01@@Z" PURGE="4" COMMENT="" />
    <EXPORT ORDINAL="46" NAME="??0CDomainConfiguration@musk@@QAE@W4domain_t@1@_KG@Z" PURGE="16" COMMENT="" />
    <EXPORT ORDINAL="47" NAME="??0CDomainsContainer@musk@@QAE@ABV01@@Z" PURGE="4" COMMENT="" />
    <EXPORT ORDINAL="48" NAME="??0CDomainsContainer@musk@@QAE@XZ" PURGE="0" COMMENT="" />
    <EXPORT ORDINAL="49" NAME="??0CFilterDeviceParams@musk@@QAE@ABV01@@Z" PURGE="4" COMMENT="" />
    <EXPORT ORDINAL="50" NAME="??0CFilterDeviceParams@musk@@QAE@XZ" PURGE="0" COMMENT="" />
    <EXPORT ORDINAL="51" NAME="??0CFips@u3@@IAE@GPAVCUFDImpl@musk@@@Z" PURGE="8" COMMENT="" />
    <EXPORT ORDINAL="52" NAME="??0CFips@u3@@QAE@ABV01@@Z" PURGE="4" COMMENT="" />
    <EXPORT ORDINAL="53" NAME="??0CFips@u3@@QAE@PAVCUFDImpl@musk@@@Z" PURGE="4" COMMENT="" />
    <EXPORT ORDINAL="54" NAME="??0CFips@u3@@QAE@XZ" PURGE="0" COMMENT="" />
    <EXPORT ORDINAL="55" NAME="??0CFlashAttributes@musk@@QAE@ABV01@@Z" PURGE="4" COMMENT="" />
    <EXPORT ORDINAL="56" NAME="??0CFlashAttributes@musk@@QAE@XZ" PURGE="0" COMMENT="" />
    <EXPORT ORDINAL="57" NAME="??0CFormatConfig@musk@@QAE@W4fs_t@01@@Z" PURGE="4" COMMENT="" />
    <EXPORT ORDINAL="58" NAME="??0CFormatConfigFat@musk@@QAE@W4fs_t@CFormatConfig@1@@Z" PURGE="4" COMMENT="" />
    <EXPORT ORDINAL="59" NAME="??0CMBCSCookie@dok@@QAE@ABV01@@Z" PURGE="4" COMMENT="" />
    <EXPORT ORDINAL="60" NAME="??0CMBCSCookie@dok@@QAE@H@Z" PURGE="4" COMMENT="" />
    <EXPORT ORDINAL="61" NAME="??0CMBCSCookie@dok@@QAE@PAVCUFDImpl@musk@@@Z" PURGE="4" COMMENT="" />
    <EXPORT ORDINAL="62" NAME="??0CPathInfoVector@musk@@QAE@AAV01@@Z" PURGE="4" COMMENT="" />
    <EXPORT ORDINAL="63" NAME="??0CPathInfoVector@musk@@QAE@XZ" PURGE="0" COMMENT="" />
    <EXPORT ORDINAL="64" NAME="??0CPrivateArea@u3@@IAE@GPAVCUFDImpl@musk@@@Z" PURGE="8" COMMENT="" />
    <EXPORT ORDINAL="65" NAME="??0CPrivateArea@u3@@QAE@ABV01@@Z" PURGE="4" COMMENT="" />
    <EXPORT ORDINAL="66" NAME="??0CPrivateArea@u3@@QAE@PAVCUFDImpl@musk@@@Z" PURGE="4" COMMENT="" />
    <EXPORT ORDINAL="67" NAME="??0CPrivateArea@u3@@QAE@XZ" PURGE="0" COMMENT="" />
    <EXPORT ORDINAL="68" NAME="??0CPrivateAreaConfig@musk@@QAE@XZ" PURGE="0" COMMENT="" />
    <EXPORT ORDINAL="69" NAME="??0CProgressCallback@musk@@QAE@ABV01@@Z" PURGE="4" COMMENT="" />
    <EXPORT ORDINAL="70" NAME="??0CProgressCallback@musk@@QAE@XZ" PURGE="0" COMMENT="" />
    <EXPORT ORDINAL="71" NAME="??0CSecureSession@u3@@QAE@ABV01@@Z" PURGE="4" COMMENT="" />
    <EXPORT ORDINAL="72" NAME="??0CSecureSession@u3@@QAE@PAVCUFDImpl@musk@@@Z" PURGE="4" COMMENT="" />
    <EXPORT ORDINAL="73" NAME="??0CService@musk@@QAE@ABV01@@Z" PURGE="4" COMMENT="" />
    <EXPORT ORDINAL="74" NAME="??0CService@musk@@QAE@G@Z" PURGE="4" COMMENT="" />
    <EXPORT ORDINAL="75" NAME="??0CService@musk@@QAE@GPAVCUFDImpl@1@@Z" PURGE="8" COMMENT="" />
    <EXPORT ORDINAL="76" NAME="??0CServiceDiscovery@u3@@QAE@ABV01@@Z" PURGE="4" COMMENT="" />
    <EXPORT ORDINAL="77" NAME="??0CServiceDiscovery@u3@@QAE@PAVCUFDImpl@musk@@@Z" PURGE="4" COMMENT="" />
    <EXPORT ORDINAL="78" NAME="??0CServiceDiscovery@u3@@QAE@XZ" PURGE="0" COMMENT="" />
    <EXPORT ORDINAL="79" NAME="??0CStatusCallback@musk@@QAE@ABV01@@Z" PURGE="4" COMMENT="" />
    <EXPORT ORDINAL="80" NAME="??0CStatusCallback@musk@@QAE@XZ" PURGE="0" COMMENT="" />
    <EXPORT ORDINAL="81" NAME="??0CTrusted@u3@@QAE@ABV01@@Z" PURGE="4" COMMENT="" />
    <EXPORT ORDINAL="82" NAME="??0CTrusted@u3@@QAE@PAVCUFDImpl@musk@@@Z" PURGE="4" COMMENT="" />
    <EXPORT ORDINAL="83" NAME="??0CTrusted@u3@@QAE@XZ" PURGE="0" COMMENT="" />
    <EXPORT ORDINAL="84" NAME="??0CTwin@dok@@QAE@ABV01@@Z" PURGE="4" COMMENT="" />
    <EXPORT ORDINAL="85" NAME="??0CTwin@dok@@QAE@PAVCUFDImpl@musk@@@Z" PURGE="4" COMMENT="" />
    <EXPORT ORDINAL="86" NAME="??0CTwin@dok@@QAE@XZ" PURGE="0" COMMENT="" />
    <EXPORT ORDINAL="87" NAME="??0CUFD@musk@@QAE@ABV01@@Z" PURGE="4" COMMENT="" />
    <EXPORT ORDINAL="88" NAME="??0CUFD@musk@@QAE@XZ" PURGE="0" COMMENT="" />
    <EXPORT ORDINAL="89" NAME="??0CUtils@dok@@QAE@ABV01@@Z" PURGE="4" COMMENT="" />
    <EXPORT ORDINAL="90" NAME="??0CUtils@dok@@QAE@PAVCUFDImpl@musk@@@Z" PURGE="4" COMMENT="" />
    <EXPORT ORDINAL="91" NAME="??0CUtils@dok@@QAE@XZ" PURGE="0" COMMENT="" />
    <EXPORT ORDINAL="92" NAME="??0CUtils@u3@@QAE@ABV01@@Z" PURGE="4" COMMENT="" />
    <EXPORT ORDINAL="93" NAME="??0CUtils@u3@@QAE@PAVCUFDImpl@musk@@@Z" PURGE="4" COMMENT="" />
    <EXPORT ORDINAL="94" NAME="??0CUtils@u3@@QAE@XZ" PURGE="0" COMMENT="" />
    <EXPORT ORDINAL="95" NAME="??1CCD@dok@@QAE@XZ" PURGE="0" COMMENT="" />
    <EXPORT ORDINAL="96" NAME="??1CCD@u3@@UAE@XZ" PURGE="0" COMMENT="" />
    <EXPORT ORDINAL="97" NAME="??1CConfig@dok@@QAE@XZ" PURGE="0" COMMENT="" />
    <EXPORT ORDINAL="98" NAME="??1CConfigService@u3@@UAE@XZ" PURGE="0" COMMENT="" />
    <EXPORT ORDINAL="99" NAME="??1CCookie@dok@@QAE@XZ" PURGE="0" COMMENT="" />
    <EXPORT ORDINAL="100" NAME="dapiQueryDeviceInformation" PURGE="0" COMMENT="" />
    <EXPORT ORDINAL="101" NAME="dapiQueryDeviceCapability" PURGE="0" COMMENT="" />
    <EXPORT ORDINAL="102" NAME="dapiEjectDevice" PURGE="0" COMMENT="" />
    <EXPORT ORDINAL="103" NAME="dapiQueryDomainInformation" PURGE="0" COMMENT="" />
    <EXPORT ORDINAL="104" NAME="??1CCookie@u3@@UAE@XZ" PURGE="0" COMMENT="" />
    <EXPORT ORDINAL="105" NAME="??1CCrypto@dok@@QAE@XZ" PURGE="0" COMMENT="" />
    <EXPORT ORDINAL="106" NAME="??1CCrypto@u3@@UAE@XZ" PURGE="0" COMMENT="" />
    <EXPORT ORDINAL="107" NAME="??1CDeposit@dok@@QAE@XZ" PURGE="0" COMMENT="" />
    <EXPORT ORDINAL="108" NAME="??1CDepositConfig@musk@@MAE@XZ" PURGE="0" COMMENT="" />
    <EXPORT ORDINAL="109" NAME="??1CDepositConfigRemovable@musk@@UAE@XZ" PURGE="0" COMMENT="" />
    <EXPORT ORDINAL="110" NAME="??1CDeviceListener@musk@@UAE@XZ" PURGE="0" COMMENT="" />
    <EXPORT ORDINAL="111" NAME="??1CDirectCommunication@dok@@QAE@XZ" PURGE="0" COMMENT="" />
    <EXPORT ORDINAL="112" NAME="??1CDirectCommunication@u3@@UAE@XZ" PURGE="0" COMMENT="" />
    <EXPORT ORDINAL="113" NAME="??1CDomainAddress@musk@@QAE@XZ" PURGE="0" COMMENT="" />
    <EXPORT ORDINAL="114" NAME="??1CDomainConfiguration@musk@@QAE@XZ" PURGE="0" COMMENT="" />
    <EXPORT ORDINAL="115" NAME="??1CDomainsContainer@musk@@QAE@XZ" PURGE="0" COMMENT="" />
    <EXPORT ORDINAL="116" NAME="??1CFilterDeviceParams@musk@@UAE@XZ" PURGE="0" COMMENT="" />
    <EXPORT ORDINAL="117" NAME="??1CFips@u3@@UAE@XZ" PURGE="0" COMMENT="" />
    <EXPORT ORDINAL="118" NAME="??1CFlashAttributes@musk@@UAE@XZ" PURGE="0" COMMENT="" />
    <EXPORT ORDINAL="119" NAME="??1CFormatConfig@musk@@UAE@XZ" PURGE="0" COMMENT="" />
    <EXPORT ORDINAL="120" NAME="??1CFormatConfigFat@musk@@UAE@XZ" PURGE="0" COMMENT="" />
    <EXPORT ORDINAL="121" NAME="??1CMBCSCookie@dok@@QAE@XZ" PURGE="0" COMMENT="" />
    <EXPORT ORDINAL="122" NAME="??1CPathInfoVector@musk@@UAE@XZ" PURGE="0" COMMENT="" />
    <EXPORT ORDINAL="123" NAME="??1CPrivateArea@u3@@UAE@XZ" PURGE="0" COMMENT="" />
    <EXPORT ORDINAL="124" NAME="??1CPrivateAreaConfig@musk@@QAE@XZ" PURGE="0" COMMENT="" />
    <EXPORT ORDINAL="125" NAME="??1CProgressCallback@musk@@UAE@XZ" PURGE="0" COMMENT="" />
    <EXPORT ORDINAL="126" NAME="??1CSecureSession@u3@@UAE@XZ" PURGE="0" COMMENT="" />
    <EXPORT ORDINAL="127" NAME="??1CService@musk@@UAE@XZ" PURGE="0" COMMENT="" />
    <EXPORT ORDINAL="128" NAME="??1CServiceDiscovery@u3@@UAE@XZ" PURGE="0" COMMENT="" />
    <EXPORT ORDINAL="129" NAME="??1CStatusCallback@musk@@UAE@XZ" PURGE="0" COMMENT="" />
    <EXPORT ORDINAL="130" NAME="??1CTrusted@u3@@UAE@XZ" PURGE="0" COMMENT="" />
    <EXPORT ORDINAL="131" NAME="??1CTwin@dok@@QAE@XZ" PURGE="0" COMMENT="" />
    <EXPORT ORDINAL="132" NAME="??1CUFD@musk@@QAE@XZ" PURGE="0" COMMENT="" />
    <EXPORT ORDINAL="133" NAME="??1CUtils@dok@@QAE@XZ" PURGE="0" COMMENT="" />
    <EXPORT ORDINAL="134" NAME="??1CUtils@u3@@UAE@XZ" PURGE="0" COMMENT="" />
    <EXPORT ORDINAL="135" NAME="??4CCD@dok@@QAEAAV01@ABV01@@Z" PURGE="4" COMMENT="" />
    <EXPORT ORDINAL="136" NAME="??4CCD@u3@@QAEAAV01@ABV01@@Z" PURGE="4" COMMENT="" />
    <EXPORT ORDINAL="137" NAME="??4CConfig@dok@@QAEAAV01@ABV01@@Z" PURGE="4" COMMENT="" />
    <EXPORT ORDINAL="138" NAME="??4CConfigService@u3@@QAEAAV01@ABV01@@Z" PURGE="4" COMMENT="" />
    <EXPORT ORDINAL="139" NAME="??4CCookie@dok@@QAEAAV01@ABV01@@Z" PURGE="4" COMMENT="" />
    <EXPORT ORDINAL="140" NAME="??4CCookie@u3@@QAEAAV01@ABV01@@Z" PURGE="4" COMMENT="" />
    <EXPORT ORDINAL="141" NAME="??4CCrypto@dok@@QAEAAV01@ABV01@@Z" PURGE="4" COMMENT="" />
    <EXPORT ORDINAL="142" NAME="??4CCrypto@u3@@QAEAAV01@ABV01@@Z" PURGE="4" COMMENT="" />
    <EXPORT ORDINAL="143" NAME="??4CDeposit@dok@@QAEAAV01@ABV01@@Z" PURGE="4" COMMENT="" />
    <EXPORT ORDINAL="144" NAME="??4CDepositConfig@musk@@QAEAAV01@ABV01@@Z" PURGE="4" COMMENT="" />
    <EXPORT ORDINAL="145" NAME="??4CDepositConfigRemovable@musk@@QAEAAV01@ABV01@@Z" PURGE="4" COMMENT="" />
    <EXPORT ORDINAL="146" NAME="??4CDeviceListener@musk@@QAEAAV01@ABV01@@Z" PURGE="4" COMMENT="" />
    <EXPORT ORDINAL="147" NAME="??4CDirectCommunication@dok@@QAEAAV01@ABV01@@Z" PURGE="4" COMMENT="" />
    <EXPORT ORDINAL="148" NAME="??4CDirectCommunication@u3@@QAEAAV01@ABV01@@Z" PURGE="4" COMMENT="" />
    <EXPORT ORDINAL="149" NAME="??4CDomainAddress@musk@@QAEAAV01@ABV01@@Z" PURGE="4" COMMENT="" />
    <EXPORT ORDINAL="150" NAME="dapiGetPrivateAreaInfo" PURGE="0" COMMENT="" />
    <EXPORT ORDINAL="151" NAME="dapiLoginPrivateArea" PURGE="0" COMMENT="" />
    <EXPORT ORDINAL="152" NAME="dapiLogoutPrivateArea" PURGE="0" COMMENT="" />
    <EXPORT ORDINAL="153" NAME="dapiSetPrivateAreaPassword" PURGE="0" COMMENT="" />
    <EXPORT ORDINAL="154" NAME="??4CDomainConfiguration@musk@@QAEAAV01@ABV01@@Z" PURGE="4" COMMENT="" />
    <EXPORT ORDINAL="155" NAME="??4CDomainsContainer@musk@@QAEAAV01@ABV01@@Z" PURGE="4" COMMENT="" />
    <EXPORT ORDINAL="156" NAME="??4CFilterDeviceParams@musk@@QAEAAV01@ABV01@@Z" PURGE="4" COMMENT="" />
    <EXPORT ORDINAL="157" NAME="??4CFips@u3@@QAEAAV01@ABV01@@Z" PURGE="4" COMMENT="" />
    <EXPORT ORDINAL="158" NAME="??4CFlashAttributes@musk@@QAEAAV01@ABV01@@Z" PURGE="4" COMMENT="" />
    <EXPORT ORDINAL="159" NAME="??4CMBCSCookie@dok@@QAEAAV01@ABV01@@Z" PURGE="4" COMMENT="" />
    <EXPORT ORDINAL="160" NAME="??4CPathInfoVector@musk@@QAEAAV01@ABV01@@Z" PURGE="4" COMMENT="" />
    <EXPORT ORDINAL="161" NAME="??4CPowerConsumptionMode@musk@@QAEAAV01@ABV01@@Z" PURGE="4" COMMENT="" />
    <EXPORT ORDINAL="162" NAME="??4CPrivateArea@u3@@QAEAAV01@ABV01@@Z" PURGE="4" COMMENT="" />
    <EXPORT ORDINAL="163" NAME="??4CPrivateAreaConfig@musk@@QAEAAV01@ABV01@@Z" PURGE="4" COMMENT="" />
    <EXPORT ORDINAL="164" NAME="??4CProgressCallback@musk@@QAEAAV01@ABV01@@Z" PURGE="4" COMMENT="" />
    <EXPORT ORDINAL="165" NAME="??4CSecureSession@u3@@QAEAAV01@ABV01@@Z" PURGE="4" COMMENT="" />
    <EXPORT ORDINAL="166" NAME="??4CService@musk@@QAEAAV01@ABV01@@Z" PURGE="4" COMMENT="" />
    <EXPORT ORDINAL="167" NAME="??4CServiceDiscovery@u3@@QAEAAV01@ABV01@@Z" PURGE="4" COMMENT="" />
    <EXPORT ORDINAL="168" NAME="??4CStatusCallback@musk@@QAEAAV01@ABV01@@Z" PURGE="4" COMMENT="" />
    <EXPORT ORDINAL="169" NAME="??4CTrusted@u3@@QAEAAV01@ABV01@@Z" PURGE="4" COMMENT="" />
    <EXPORT ORDINAL="170" NAME="??4CTwin@dok@@QAEAAV01@ABV01@@Z" PURGE="4" COMMENT="" />
    <EXPORT ORDINAL="171" NAME="??4CUFD@musk@@QAEAAV01@ABV01@@Z" PURGE="4" COMMENT="" />
    <EXPORT ORDINAL="172" NAME="??4CUtils@dok@@QAEAAV01@ABV01@@Z" PURGE="4" COMMENT="" />
    <EXPORT ORDINAL="173" NAME="??4CUtils@u3@@QAEAAV01@ABV01@@Z" PURGE="4" COMMENT="" />
    <EXPORT ORDINAL="174" NAME="??4SDK@musk@@QAEAAV01@ABV01@@Z" PURGE="4" COMMENT="" />
    <EXPORT ORDINAL="175" NAME="??4WMListening@musk@@QAEAAV01@ABV01@@Z" PURGE="4" COMMENT="" />
    <EXPORT ORDINAL="176" NAME="??8musk@@YA_NABVCUFD@0@0@Z" PURGE="0" COMMENT="" />
    <EXPORT ORDINAL="177" NAME="??9musk@@YA_NABVCUFD@0@0@Z" PURGE="0" COMMENT="" />
    <EXPORT ORDINAL="178" NAME="??ACDomainsContainer@musk@@QAEAAVCDomainConfiguration@1@I@Z" PURGE="4" COMMENT="" />
    <EXPORT ORDINAL="179" NAME="??ACPathInfoVector@musk@@QAEAAUpath_info_t@01@I@Z" PURGE="4" COMMENT="" />
    <EXPORT ORDINAL="180" NAME="??ACPathInfoVector@musk@@QBEABUpath_info_t@01@I@Z" PURGE="4" COMMENT="" />
    <EXPORT ORDINAL="181" NAME="??RCDirectCommunication@dok@@QBE?AW4STATUS@musk@@AAVCPrivateCommand@3@@Z" PURGE="4" COMMENT="" />
    <EXPORT ORDINAL="182" NAME="??RCDirectCommunication@dok@@QBE?AW4STATUS@musk@@AAVCPrivateCommand@3@AAVCSecureSessionHandle@3@@Z" PURGE="8" COMMENT="" />
    <EXPORT ORDINAL="183" NAME="??RCDirectCommunication@dok@@QBE?AW4STATUS@musk@@AAVCSCSICommand@3@@Z" PURGE="4" COMMENT="" />
    <EXPORT ORDINAL="184" NAME="??RCDirectCommunication@u3@@QBE?AW4STATUS@musk@@AAVCSCSICommand@3@@Z" PURGE="4" COMMENT="" />
    <EXPORT ORDINAL="185" NAME="??RCDirectCommunication@u3@@QBE?AW4STATUS@musk@@AAVCU3PrivateCommand@3@@Z" PURGE="4" COMMENT="" />
    <EXPORT ORDINAL="186" NAME="??_7CCD@u3@@6B@" PURGE="-1" COMMENT="" />
    <EXPORT ORDINAL="187" NAME="??_7CConfigService@u3@@6B@" PURGE="-1" COMMENT="" />
    <EXPORT ORDINAL="188" NAME="??_7CCookie@u3@@6B@" PURGE="-1" COMMENT="" />
    <EXPORT ORDINAL="189" NAME="??_7CCrypto@u3@@6B@" PURGE="-1" COMMENT="" />
    <EXPORT ORDINAL="190" NAME="??_7CDepositConfig@musk@@6B@" PURGE="-1" COMMENT="" />
    <EXPORT ORDINAL="191" NAME="??_7CDepositConfigRemovable@musk@@6B@" PURGE="-1" COMMENT="" />
    <EXPORT ORDINAL="192" NAME="??_7CDeviceListener@musk@@6B@" PURGE="-1" COMMENT="" />
    <EXPORT ORDINAL="193" NAME="??_7CDirectCommunication@u3@@6B@" PURGE="-1" COMMENT="" />
    <EXPORT ORDINAL="194" NAME="??_7CFilterDeviceParams@musk@@6B@" PURGE="-1" COMMENT="" />
    <EXPORT ORDINAL="195" NAME="??_7CFips@u3@@6B@" PURGE="-1" COMMENT="" />
    <EXPORT ORDINAL="196" NAME="??_7CFlashAttributes@musk@@6B@" PURGE="-1" COMMENT="" />
    <EXPORT ORDINAL="197" NAME="??_7CFormatConfig@musk@@6B@" PURGE="-1" COMMENT="" />
    <EXPORT ORDINAL="198" NAME="??_7CFormatConfigFat@musk@@6B@" PURGE="-1" COMMENT="" />
    <EXPORT ORDINAL="199" NAME="??_7CPathInfoVector@musk@@6B@" PURGE="-1" COMMENT="" />
    <EXPORT ORDINAL="200" NAME="dapiWriteTextCookie" PURGE="0" COMMENT="" />
    <EXPORT ORDINAL="201" NAME="dapiWriteBinaryCookie" PURGE="0" COMMENT="" />
    <EXPORT ORDINAL="202" NAME="dapiReadTextCookie" PURGE="0" COMMENT="" />
    <EXPORT ORDINAL="203" NAME="dapiReadBinaryCookie" PURGE="0" COMMENT="" />
    <EXPORT ORDINAL="204" NAME="dapiDeleteCookie" PURGE="0" COMMENT="" />
    <EXPORT ORDINAL="205" NAME="dapiCreateProtectedCookie" PURGE="0" COMMENT="" />
    <EXPORT ORDINAL="206" NAME="dapiWriteProtectedCookie" PURGE="0" COMMENT="" />
    <EXPORT ORDINAL="207" NAME="dapiReadProtectedCookie" PURGE="0" COMMENT="" />
    <EXPORT ORDINAL="208" NAME="dapiDeleteProtectedCookie" PURGE="0" COMMENT="" />
    <EXPORT ORDINAL="209" NAME="??_7CPrivateArea@u3@@6B@" PURGE="-1" COMMENT="" />
    <EXPORT ORDINAL="210" NAME="??_7CProgressCallback@musk@@6B@" PURGE="-1" COMMENT="" />
    <EXPORT ORDINAL="211" NAME="??_7CSecureSession@u3@@6B@" PURGE="-1" COMMENT="" />
    <EXPORT ORDINAL="212" NAME="??_7CService@musk@@6B@" PURGE="-1" COMMENT="" />
    <EXPORT ORDINAL="213" NAME="??_7CServiceDiscovery@u3@@6B@" PURGE="-1" COMMENT="" />
    <EXPORT ORDINAL="214" NAME="??_7CStatusCallback@musk@@6B@" PURGE="-1" COMMENT="" />
    <EXPORT ORDINAL="215" NAME="??_7CTrusted@u3@@6B@" PURGE="-1" COMMENT="" />
    <EXPORT ORDINAL="216" NAME="??_7CUtils@u3@@6B@" PURGE="-1" COMMENT="" />
    <EXPORT ORDINAL="217" NAME="??_FCCD@u3@@QAEXXZ" PURGE="0" COMMENT="" />
    <EXPORT ORDINAL="218" NAME="??_FCConfigService@u3@@QAEXXZ" PURGE="0" COMMENT="" />
    <EXPORT ORDINAL="219" NAME="??_FCDeviceListener@musk@@QAEXXZ" PURGE="0" COMMENT="" />
    <EXPORT ORDINAL="220" NAME="??_FCDirectCommunication@u3@@QAEXXZ" PURGE="0" COMMENT="" />
    <EXPORT ORDINAL="221" NAME="??_FCFormatConfig@musk@@QAEXXZ" PURGE="0" COMMENT="" />
    <EXPORT ORDINAL="222" NAME="??_FCFormatConfigFat@musk@@QAEXXZ" PURGE="0" COMMENT="" />
    <EXPORT ORDINAL="223" NAME="??_FCMBCSCookie@dok@@QAEXXZ" PURGE="0" COMMENT="" />
    <EXPORT ORDINAL="224" NAME="??_FCSecureSession@u3@@QAEXXZ" PURGE="0" COMMENT="" />
    <EXPORT ORDINAL="225" NAME="?GetCellType@CFlashAttributes@musk@@QBE?AW4cell_t@12@XZ" PURGE="0" COMMENT="" />
    <EXPORT ORDINAL="226" NAME="?GetCodePage@CMBCSCookie@dok@@QAEHXZ" PURGE="0" COMMENT="" />
    <EXPORT ORDINAL="227" NAME="?GetFlashBusType@CFlashAttributes@musk@@QBE?AW4flash_bus_t@12@XZ" PURGE="0" COMMENT="" />
    <EXPORT ORDINAL="228" NAME="?GetFlashPageSize@CFlashAttributes@musk@@QBE?AW4flash_page_size@12@XZ" PURGE="0" COMMENT="" />
    <EXPORT ORDINAL="229" NAME="?GetPasswordType@CDeposit@dok@@SA?AW4ePasswordType@12@XZ" PURGE="0" COMMENT="" />
    <EXPORT ORDINAL="230" NAME="?RemapAllVolumes@SDK@musk@@SA?AW4STATUS@2@AA_N@Z" PURGE="0" COMMENT="" />
    <EXPORT ORDINAL="231" NAME="?SetCodePage@CMBCSCookie@dok@@QAEXH@Z" PURGE="4" COMMENT="" />
    <EXPORT ORDINAL="232" NAME="?SetPasswordType@CDeposit@dok@@SAXW4ePasswordType@12@@Z" PURGE="0" COMMENT="" />
    <EXPORT ORDINAL="233" NAME="?active@CFormatConfig@musk@@QAEX_N@Z" PURGE="4" COMMENT="" />
    <EXPORT ORDINAL="234" NAME="?active@CFormatConfig@musk@@QBE_NXZ" PURGE="0" COMMENT="" />
    <EXPORT ORDINAL="235" NAME="?addDomain@CConfigService@u3@@QAE?AW4STATUS@musk@@AAVCDomainConfiguration@4@KPAVCProgressCallback@4@@Z" PURGE="12" COMMENT="" />
    <EXPORT ORDINAL="236" NAME="?addDomain@CDomainsContainer@musk@@QAEXABVCDomainConfiguration@2@@Z" PURGE="4" COMMENT="" />
    <EXPORT ORDINAL="237" NAME="?addListener@WMListening@musk@@SAXPAUHWND__@@PAVCFilterDeviceParams@2@@Z" PURGE="0" COMMENT="" />
    <EXPORT ORDINAL="238" NAME="?addReff@SDK@musk@@CAHXZ" PURGE="0" COMMENT="" />
    <EXPORT ORDINAL="239" NAME="?assign@CPathInfoVector@musk@@QAEXIABUpath_info_t@12@@Z" PURGE="8" COMMENT="" />
    <EXPORT ORDINAL="240" NAME="?assign@CPathInfoVector@musk@@QAEXVconst_iterator@?$vector@Upath_info_t@CPathInfoVector@musk@@V?$allocator@Upath_info_t@CPathInfoVector@musk@@@std@@@std@@0@Z" PURGE="8" COMMENT="" />
    <EXPORT ORDINAL="241" NAME="?assign@CUFD@musk@@AAEXPAVCUFDImpl@2@@Z" PURGE="4" COMMENT="" />
    <EXPORT ORDINAL="242" NAME="?assignSecureSessionHandle@CDirectCommunication@dok@@QAE?AW4STATUS@musk@@AAVCSecureSessionHandle@4@@Z" PURGE="4" COMMENT="" />
    <EXPORT ORDINAL="243" NAME="?at@CPathInfoVector@musk@@QAEABUpath_info_t@12@I@Z" PURGE="4" COMMENT="" />
    <EXPORT ORDINAL="244" NAME="?back@CPathInfoVector@musk@@QAEAAUpath_info_t@12@XZ" PURGE="0" COMMENT="" />
    <EXPORT ORDINAL="245" NAME="?back@CPathInfoVector@musk@@QBEABUpath_info_t@12@XZ" PURGE="0" COMMENT="" />
    <EXPORT ORDINAL="246" NAME="?begin@CPathInfoVector@musk@@QAE?AViterator@?$vector@Upath_info_t@CPathInfoVector@musk@@V?$allocator@Upath_info_t@CPathInfoVector@musk@@@std@@@std@@XZ" PURGE="4" COMMENT="" />
    <EXPORT ORDINAL="247" NAME="?begin@CPathInfoVector@musk@@QBE?AVconst_iterator@?$vector@Upath_info_t@CPathInfoVector@musk@@V?$allocator@Upath_info_t@CPathInfoVector@musk@@@std@@@std@@XZ" PURGE="4" COMMENT="" />
    <EXPORT ORDINAL="248" NAME="?burnImage@CCD@dok@@QBE?AW4STATUS@musk@@AAV?$basic_istream@DU?$char_traits@D@std@@@std@@PBE1@Z" PURGE="12" COMMENT="" />
    <EXPORT ORDINAL="249" NAME="?burnImage@CCD@dok@@QBE?AW4STATUS@musk@@PBEI00@Z" PURGE="16" COMMENT="" />
    <EXPORT ORDINAL="250" NAME="?burnImage@CCD@dok@@QBE?AW4STATUS@musk@@PB_WPBE1@Z" PURGE="12" COMMENT="" />
    <EXPORT ORDINAL="251" NAME="?burnImage@CCD@u3@@QAE?AW4STATUS@musk@@ABVCDomainAddress@4@AAV?$basic_istream@DU?$char_traits@D@std@@@std@@PAVCProgressCallback@4@@Z" PURGE="12" COMMENT="" />
    <EXPORT ORDINAL="252" NAME="?burnImage@CCD@u3@@QAE?AW4STATUS@musk@@ABVCDomainAddress@4@PBEIPAVCProgressCallback@4@@Z" PURGE="16" COMMENT="" />
    <EXPORT ORDINAL="253" NAME="?burnImage@CCD@u3@@QAE?AW4STATUS@musk@@ABVCDomainAddress@4@PB_WPAVCProgressCallback@4@@Z" PURGE="12" COMMENT="" />
    <EXPORT ORDINAL="254" NAME="?burnLeadInArea@CCD@dok@@QBE?AW4STATUS@musk@@AAV?$basic_istream@DU?$char_traits@D@std@@@std@@@Z" PURGE="4" COMMENT="" />
    <EXPORT ORDINAL="255" NAME="?burnLeadInArea@CCD@dok@@QBE?AW4STATUS@musk@@PBE@Z" PURGE="4" COMMENT="" />
    <EXPORT ORDINAL="256" NAME="?burnLeadInArea@CCD@dok@@QBE?AW4STATUS@musk@@PB_W@Z" PURGE="4" COMMENT="" />
    <EXPORT ORDINAL="257" NAME="?canAccessUFD@CUtils@dok@@QBE_NXZ" PURGE="0" COMMENT="" />
    <EXPORT ORDINAL="258" NAME="?canAccessUFD@CUtils@u3@@QBE_NXZ" PURGE="0" COMMENT="" />
    <EXPORT ORDINAL="259" NAME="?capacity@CPathInfoVector@musk@@QBEIXZ" PURGE="0" COMMENT="" />
    <EXPORT ORDINAL="260" NAME="?changeBeforeWrite@CFormatConfigFat@musk@@UBEXPAE0@Z" PURGE="8" COMMENT="" />
    <EXPORT ORDINAL="261" NAME="?changePassword@CDeposit@dok@@QAE?AW4STATUS@musk@@PB_W00@Z" PURGE="12" COMMENT="" />
    <EXPORT ORDINAL="262" NAME="?changePassword@CPrivateArea@u3@@QAE?AW4STATUS@musk@@ABVCDomainAddress@4@PB_W11@Z" PURGE="16" COMMENT="" />
    <EXPORT ORDINAL="263" NAME="?check@CFilterDeviceParams@musk@@IAE_NW4filter_t@12@PB_WABVCUFD@2@@Z" PURGE="12" COMMENT="" />
    <EXPORT ORDINAL="264" NAME="?clear@CDomainsContainer@musk@@QAEXXZ" PURGE="0" COMMENT="" />
    <EXPORT ORDINAL="265" NAME="?clear@CPathInfoVector@musk@@QAEXXZ" PURGE="0" COMMENT="" />
    <EXPORT ORDINAL="266" NAME="?clearContentKey@CCD@u3@@QAE?AW4STATUS@musk@@ABVCDomainAddress@4@@Z" PURGE="4" COMMENT="" />
    <EXPORT ORDINAL="267" NAME="?clearDomainFlags@CDomainConfiguration@musk@@QAEXG@Z" PURGE="4" COMMENT="" />
    <EXPORT ORDINAL="268" NAME="?clearHiddenArea@CCookie@dok@@QAE?AW4STATUS@musk@@XZ" PURGE="0" COMMENT="" />
    <EXPORT ORDINAL="269" NAME="?clearHiddenArea@CCookie@u3@@QAE?AW4STATUS@musk@@XZ" PURGE="0" COMMENT="" />
    <EXPORT ORDINAL="270" NAME="?clearHiddenArea@CMBCSCookie@dok@@QAE?AW4STATUS@musk@@XZ" PURGE="0" COMMENT="" />
    <EXPORT ORDINAL="271" NAME="?clearVendorPublicKey@CCD@dok@@QBE?AW4STATUS@musk@@PBE0@Z" PURGE="8" COMMENT="" />
    <EXPORT ORDINAL="272" NAME="?clone@CFilterDeviceParams@musk@@UBEPAV12@XZ" PURGE="0" COMMENT="" />
    <EXPORT ORDINAL="273" NAME="?close@CDirectCommunication@dok@@QBE?AW4STATUS@musk@@XZ" PURGE="0" COMMENT="" />
    <EXPORT ORDINAL="274" NAME="?close@CDirectCommunication@u3@@QBE?AW4STATUS@musk@@XZ" PURGE="0" COMMENT="" />
    <EXPORT ORDINAL="275" NAME="?configure@CCD@dok@@QBE?AW4STATUS@musk@@_K_NPBE2@Z" PURGE="20" COMMENT="" />
    <EXPORT ORDINAL="276" NAME="?configure@CDeposit@dok@@QAE?AW4STATUS@musk@@AAVCDepositConfig@4@PAVCProgressCallback@4@_N@Z" PURGE="12" COMMENT="" />
    <EXPORT ORDINAL="277" NAME="?configure@CPrivateArea@u3@@QAE?AW4STATUS@musk@@ABVCDomainAddress@4@AAVCPrivateAreaConfig@4@PAVCProgressCallback@4@K@Z" PURGE="16" COMMENT="" />
    <EXPORT ORDINAL="278" NAME="?configureASync@CCD@dok@@QBE?AW4STATUS@musk@@_K_NPBE2PAVCStatusCallback@4@@Z" PURGE="24" COMMENT="" />
    <EXPORT ORDINAL="279" NAME="?configureASync@CDeposit@dok@@QAE?AW4STATUS@musk@@AAVCDepositConfig@4@PAVCProgressCallback@4@PAVCStatusCallback@4@_N@Z" PURGE="16" COMMENT="" />
    <EXPORT ORDINAL="280" NAME="?configureSecure@CTwin@dok@@QBE?AW4STATUS@musk@@_N0@Z" PURGE="8" COMMENT="" />
    <EXPORT ORDINAL="281" NAME="?configureSecureASync@CTwin@dok@@QBE?AW4STATUS@musk@@_N0PAVCStatusCallback@4@@Z" PURGE="12" COMMENT="" />
    <EXPORT ORDINAL="282" NAME="?configureSecured@CCD@dok@@QBE?AW4STATUS@musk@@_KPBE1PB_W2@Z" PURGE="24" COMMENT="" />
    <EXPORT ORDINAL="283" NAME="?configureSecuredASync@CCD@dok@@QBE?AW4STATUS@musk@@_KPBE1PB_W2PAVCStatusCallback@4@@Z" PURGE="28" COMMENT="" />
    <EXPORT ORDINAL="284" NAME="?configureWriteProtection@CUtils@dok@@QAE?AW4STATUS@musk@@_N0@Z" PURGE="8" COMMENT="" />
    <EXPORT ORDINAL="285" NAME="?configureWriteProtection@CUtils@u3@@QAE?AW4STATUS@musk@@ABVCDomainAddress@4@_NK@Z" PURGE="12" COMMENT="" />
    <EXPORT ORDINAL="286" NAME="?configureWriteProtectionASync@CUtils@dok@@QAE?AW4STATUS@musk@@_NPAVCStatusCallback@4@0@Z" PURGE="12" COMMENT="" />
    <EXPORT ORDINAL="287" NAME="?createDeviceId@CTrusted@u3@@QBE?AW4STATUS@musk@@ABVCDomainAddress@4@PB_WPBEPAE@Z" PURGE="16" COMMENT="" />
    <EXPORT ORDINAL="288" NAME="?createDeviceId@CTwin@dok@@QBE?AW4STATUS@musk@@PB_WPBEPAE@Z" PURGE="12" COMMENT="" />
    <EXPORT ORDINAL="289" NAME="?createProtectedData@CCookie@u3@@QAE?AW4STATUS@musk@@PB_W000@Z" PURGE="16" COMMENT="" />
    <EXPORT ORDINAL="290" NAME="?decrypt@CCrypto@dok@@QBE?AW4STATUS@musk@@PBE0PAEH@Z" PURGE="16" COMMENT="" />
    <EXPORT ORDINAL="291" NAME="?decrypt@CCrypto@u3@@QAE?AW4STATUS@musk@@PBE0PAEIW4symmetricAlgorithm_t@crypto@2@@Z" PURGE="20" COMMENT="" />
    <EXPORT ORDINAL="292" NAME="?delHiddenEntry@CCookie@dok@@QAE?AW4STATUS@musk@@PB_W0@Z" PURGE="8" COMMENT="" />
    <EXPORT ORDINAL="293" NAME="?delHiddenEntry@CCookie@u3@@QAE?AW4STATUS@musk@@PB_W0@Z" PURGE="8" COMMENT="" />
    <EXPORT ORDINAL="294" NAME="?delHiddenEntry@CMBCSCookie@dok@@QAE?AW4STATUS@musk@@PB_W0@Z" PURGE="8" COMMENT="" />
    <EXPORT ORDINAL="295" NAME="?delHiddenSection@CCookie@dok@@QAE?AW4STATUS@musk@@PB_W@Z" PURGE="4" COMMENT="" />
    <EXPORT ORDINAL="296" NAME="?delHiddenSection@CCookie@u3@@QAE?AW4STATUS@musk@@PB_W@Z" PURGE="4" COMMENT="" />
    <EXPORT ORDINAL="297" NAME="?delHiddenSection@CMBCSCookie@dok@@QAE?AW4STATUS@musk@@PB_W@Z" PURGE="4" COMMENT="" />
    <EXPORT ORDINAL="298" NAME="?deviceAllLunsConnected@CDeviceListener@musk@@UAEXABVCUFD@2@@Z" PURGE="4" COMMENT="" />
    <EXPORT ORDINAL="299" NAME="?doPost@CFips@u3@@QBE?AW4STATUS@musk@@W4Mode@12@K@Z" PURGE="8" COMMENT="" />
    <EXPORT ORDINAL="300" NAME="?dumpHiddenArea@CCookie@dok@@QBE?AW4STATUS@musk@@AAV?$basic_ostream@_WU?$char_traits@_W@std@@@std@@_N@Z" PURGE="8" COMMENT="" />
    <EXPORT ORDINAL="301" NAME="?dumpHiddenArea@CCookie@dok@@QBE?AW4STATUS@musk@@PB_W_N@Z" PURGE="8" COMMENT="" />
    <EXPORT ORDINAL="302" NAME="?dumpHiddenArea@CCookie@u3@@QBE?AW4STATUS@musk@@AAV?$basic_ostream@_WU?$char_traits@_W@std@@@std@@_N@Z" PURGE="8" COMMENT="" />
    <EXPORT ORDINAL="303" NAME="?dumpHiddenArea@CCookie@u3@@QBE?AW4STATUS@musk@@PB_W_N@Z" PURGE="8" COMMENT="" />
    <EXPORT ORDINAL="304" NAME="?dumpHiddenArea@CMBCSCookie@dok@@QBE?AW4STATUS@musk@@AAV?$basic_ostream@_WU?$char_traits@_W@std@@@std@@_N@Z" PURGE="8" COMMENT="" />
    <EXPORT ORDINAL="305" NAME="?dumpHiddenArea@CMBCSCookie@dok@@QBE?AW4STATUS@musk@@PB_W_N@Z" PURGE="8" COMMENT="" />
    <EXPORT ORDINAL="306" NAME="?dumpHiddenAreaIniStyle@CCookie@dok@@QBE?AW4STATUS@musk@@PB_W_N@Z" PURGE="8" COMMENT="" />
    <EXPORT ORDINAL="307" NAME="?dumpHiddenAreaIniStyle@CCookie@u3@@QBE?AW4STATUS@musk@@PB_W_N@Z" PURGE="8" COMMENT="" />
    <EXPORT ORDINAL="308" NAME="?dumpHiddenAreaIniStyle@CMBCSCookie@dok@@QBE?AW4STATUS@musk@@PB_W_NH@Z" PURGE="12" COMMENT="" />
    <EXPORT ORDINAL="309" NAME="?eject@CUFD@musk@@QAE?AW4STATUS@2@AA_N@Z" PURGE="4" COMMENT="" />
    <EXPORT ORDINAL="310" NAME="?empty@CPathInfoVector@musk@@QBE_NXZ" PURGE="0" COMMENT="" />
    <EXPORT ORDINAL="311" NAME="?enablePrivateCommands@CTwin@dok@@QBE?AW4STATUS@musk@@XZ" PURGE="0" COMMENT="" />
    <EXPORT ORDINAL="312" NAME="?enablePrivateCommands@CUtils@u3@@QAE?AW4STATUS@musk@@XZ" PURGE="0" COMMENT="" />
    <EXPORT ORDINAL="313" NAME="?enablePrivateCommandsASync@CTwin@dok@@QBE?AW4STATUS@musk@@PAVCStatusCallback@4@@Z" PURGE="4" COMMENT="" />
    <EXPORT ORDINAL="314" NAME="?enableStorage@CTwin@dok@@QBE?AW4STATUS@musk@@XZ" PURGE="0" COMMENT="" />
    <EXPORT ORDINAL="315" NAME="?enableStorageASync@CTwin@dok@@QBE?AW4STATUS@musk@@PAVCStatusCallback@4@@Z" PURGE="4" COMMENT="" />
    <EXPORT ORDINAL="316" NAME="?encrypt@CCrypto@dok@@QBE?AW4STATUS@musk@@PBE0PAEH@Z" PURGE="16" COMMENT="" />
    <EXPORT ORDINAL="317" NAME="?encrypt@CCrypto@u3@@QAE?AW4STATUS@musk@@PBE0PAEIW4symmetricAlgorithm_t@crypto@2@@Z" PURGE="20" COMMENT="" />
    <EXPORT ORDINAL="318" NAME="?end@CPathInfoVector@musk@@QAE?AViterator@?$vector@Upath_info_t@CPathInfoVector@musk@@V?$allocator@Upath_info_t@CPathInfoVector@musk@@@std@@@std@@XZ" PURGE="4" COMMENT="" />
    <EXPORT ORDINAL="319" NAME="?end@CPathInfoVector@musk@@QBE?AVconst_iterator@?$vector@Upath_info_t@CPathInfoVector@musk@@V?$allocator@Upath_info_t@CPathInfoVector@musk@@@std@@@std@@XZ" PURGE="4" COMMENT="" />
    <EXPORT ORDINAL="320" NAME="?enterSafePartition@CDeposit@dok@@QAE?AW4STATUS@musk@@PB_W_N@Z" PURGE="8" COMMENT="" />
    <EXPORT ORDINAL="321" NAME="?erase@CPathInfoVector@musk@@QAE?AViterator@?$vector@Upath_info_t@CPathInfoVector@musk@@V?$allocator@Upath_info_t@CPathInfoVector@musk@@@std@@@std@@V345@0@Z" PURGE="12" COMMENT="" />
    <EXPORT ORDINAL="322" NAME="?erase@CPathInfoVector@musk@@QAE?AViterator@?$vector@Upath_info_t@CPathInfoVector@musk@@V?$allocator@Upath_info_t@CPathInfoVector@musk@@@std@@@std@@V345@@Z" PURGE="8" COMMENT="" />
    <EXPORT ORDINAL="323" NAME="?executePrivate@CDirectCommunication@dok@@QBE?AW4STATUS@musk@@AAVCPrivateCommand@4@@Z" PURGE="4" COMMENT="" />
    <EXPORT ORDINAL="324" NAME="?executePrivate@CDirectCommunication@dok@@QBE?AW4STATUS@musk@@AAVCPrivateCommand@4@AAVCSecureSessionHandle@4@@Z" PURGE="8" COMMENT="" />
    <EXPORT ORDINAL="325" NAME="?executePrivate@CDirectCommunication@u3@@QBE?AW4STATUS@musk@@AAVCU3PrivateCommand@4@@Z" PURGE="4" COMMENT="" />
    <EXPORT ORDINAL="326" NAME="?executeSCSI@CDirectCommunication@dok@@QBE?AW4STATUS@musk@@AAVCSCSICommand@4@@Z" PURGE="4" COMMENT="" />
    <EXPORT ORDINAL="327" NAME="?executeSCSI@CDirectCommunication@u3@@QBE?AW4STATUS@musk@@AAVCSCSICommand@4@@Z" PURGE="4" COMMENT="" />
    <EXPORT ORDINAL="328" NAME="?exitSafePartition@CDeposit@dok@@QAE?AW4STATUS@musk@@_N@Z" PURGE="4" COMMENT="" />
    <EXPORT ORDINAL="329" NAME="?filter@CDeviceListener@musk@@QAE_NABVCUFD@2@@Z" PURGE="4" COMMENT="" />
    <EXPORT ORDINAL="330" NAME="?filter@CFilterDeviceParams@musk@@UAE_NABVCUFD@2@@Z" PURGE="4" COMMENT="" />
    <EXPORT ORDINAL="331" NAME="?findNearestPrivateAreaSize@CPrivateArea@u3@@QBE?AW4STATUS@musk@@ABVCDomainAddress@4@_KAA_K@Z" PURGE="16" COMMENT="" />
    <EXPORT ORDINAL="332" NAME="?findNearestValidCDSize@CCD@dok@@QBE?AW4STATUS@musk@@_KAA_K@Z" PURGE="12" COMMENT="" />
    <EXPORT ORDINAL="333" NAME="?findNearestValidDepositSize@CDeposit@dok@@QBE?AW4STATUS@musk@@_KAA_K@Z" PURGE="12" COMMENT="" />
    <EXPORT ORDINAL="334" NAME="?fini@SDK@musk@@SAXXZ" PURGE="0" COMMENT="" />
    <EXPORT ORDINAL="335" NAME="?floppyEmulation@CFormatConfigFat@musk@@QAEX_N@Z" PURGE="4" COMMENT="" />
    <EXPORT ORDINAL="336" NAME="?floppyEmulation@CFormatConfigFat@musk@@QBE_NXZ" PURGE="0" COMMENT="" />
    <EXPORT ORDINAL="337" NAME="?format@CUtils@dok@@QAE?AW4STATUS@musk@@ABVCFormatConfig@4@PAVCProgressCallback@4@_N@Z" PURGE="12" COMMENT="" />
    <EXPORT ORDINAL="338" NAME="?format@CUtils@u3@@QAE?AW4STATUS@musk@@ABVCDomainAddress@4@ABVCFormatConfig@4@PAVCProgressCallback@4@K@Z" PURGE="16" COMMENT="" />
    <EXPORT ORDINAL="339" NAME="?front@CPathInfoVector@musk@@QAEAAUpath_info_t@12@XZ" PURGE="0" COMMENT="" />
    <EXPORT ORDINAL="340" NAME="?front@CPathInfoVector@musk@@QBEABUpath_info_t@12@XZ" PURGE="0" COMMENT="" />
    <EXPORT ORDINAL="341" NAME="?generateRSAKeys@CCrypto@dok@@QBE?AW4STATUS@musk@@PAE0@Z" PURGE="8" COMMENT="" />
    <EXPORT ORDINAL="342" NAME="?generateRSAKeys@CSecureSession@u3@@SA?AW4STATUS@musk@@PAE0PBEH@Z" PURGE="0" COMMENT="" />
    <EXPORT ORDINAL="343" NAME="?generateRandomChallenge@CCrypto@dok@@QBE?AW4STATUS@musk@@PBEPAE@Z" PURGE="8" COMMENT="" />
    <EXPORT ORDINAL="344" NAME="?generateRandomChallenge@CCrypto@u3@@QBE?AW4STATUS@musk@@PBEPAE@Z" PURGE="8" COMMENT="" />
    <EXPORT ORDINAL="345" NAME="?generateRandomNumber@CCrypto@dok@@QBE?AW4STATUS@musk@@PAEH@Z" PURGE="8" COMMENT="" />
    <EXPORT ORDINAL="346" NAME="?generateRandomNumber@CCrypto@u3@@QBE?AW4STATUS@musk@@PAEI@Z" PURGE="8" COMMENT="" />
    <EXPORT ORDINAL="347" NAME="?getAreaSizes@CPrivateArea@u3@@QBE?AW4STATUS@musk@@ABVCDomainAddress@4@AA_K1@Z" PURGE="12" COMMENT="" />
    <EXPORT ORDINAL="348" NAME="?getAvailableHiddenSpace@CCookie@dok@@QBE?AW4STATUS@musk@@AA_K@Z" PURGE="4" COMMENT="" />
    <EXPORT ORDINAL="349" NAME="?getAvailableHiddenSpace@CCookie@u3@@QBE?AW4STATUS@musk@@AA_K@Z" PURGE="4" COMMENT="" />
    <EXPORT ORDINAL="350" NAME="?getAvailableHiddenSpace@CMBCSCookie@dok@@QBE?AW4STATUS@musk@@AA_K@Z" PURGE="4" COMMENT="" />
    <EXPORT ORDINAL="351" NAME="?getCDEmulationInfo@CCD@u3@@QBE?AW4STATUS@musk@@AAUCDServiceDescriptor@cd@2@@Z" PURGE="4" COMMENT="" />
    <EXPORT ORDINAL="352" NAME="?getCUFD@WMListening@musk@@SAPBVCUFD@2@I@Z" PURGE="0" COMMENT="" />
    <EXPORT ORDINAL="353" NAME="?getCapacity@CUFD@musk@@QBE?AW4STATUS@2@AA_K@Z" PURGE="4" COMMENT="" />
    <EXPORT ORDINAL="354" NAME="?getConfigurationMask@CConfig@dok@@QBE?AW4STATUS@musk@@AAH@Z" PURGE="4" COMMENT="" />
    <EXPORT ORDINAL="355" NAME="?getConfiguredDomainsNum@CConfigService@u3@@QBE?AW4STATUS@musk@@AAI@Z" PURGE="4" COMMENT="" />
    <EXPORT ORDINAL="356" NAME="?getCurrentNOA@CPrivateArea@u3@@QBE?AW4STATUS@musk@@ABVCDomainAddress@4@AAK@Z" PURGE="8" COMMENT="" />
    <EXPORT ORDINAL="357" NAME="?getDomain@CConfigService@u3@@QBE?AW4STATUS@musk@@PB_WAAVCDomainConfiguration@4@@Z" PURGE="8" COMMENT="" />
    <EXPORT ORDINAL="358" NAME="?getDomainFlags@CDomainConfiguration@musk@@QBEGXZ" PURGE="0" COMMENT="" />
    <EXPORT ORDINAL="359" NAME="?getDomainSize@CDomainConfiguration@musk@@QBE_KXZ" PURGE="0" COMMENT="" />
    <EXPORT ORDINAL="360" NAME="?getDomainType@CDomainConfiguration@musk@@QBE?AW4domain_t@2@XZ" PURGE="0" COMMENT="" />
    <EXPORT ORDINAL="361" NAME="?getDomains@CCD@u3@@QBE?AW4STATUS@musk@@AAVCDomainsContainer@4@@Z" PURGE="4" COMMENT="" />
    <EXPORT ORDINAL="362" NAME="?getDomains@CConfigService@u3@@QBE?AW4STATUS@musk@@AAVCDomainsContainer@4@@Z" PURGE="4" COMMENT="" />
    <EXPORT ORDINAL="363" NAME="?getDomains@CPrivateArea@u3@@QBE?AW4STATUS@musk@@AAVCDomainsContainer@4@_N@Z" PURGE="8" COMMENT="" />
    <EXPORT ORDINAL="364" NAME="?getDomainsNum@CDomainsContainer@musk@@QBEIXZ" PURGE="0" COMMENT="" />
    <EXPORT ORDINAL="365" NAME="?getDomainsOfType@CConfigService@u3@@QBE?AW4STATUS@musk@@W4domain_t@4@AAVCDomainsContainer@4@@Z" PURGE="8" COMMENT="" />
    <EXPORT ORDINAL="366" NAME="?getEncryptionAlgorithm@CCrypto@dok@@QBE?AW4STATUS@musk@@AAW4algorithm_t@12@@Z" PURGE="4" COMMENT="" />
    <EXPORT ORDINAL="367" NAME="?getErrorStatus@CDomainConfiguration@musk@@QBE?AW4STATUS@2@XZ" PURGE="0" COMMENT="" />
    <EXPORT ORDINAL="368" NAME="?getFSType@CUtils@u3@@QAE?AW4STATUS@musk@@ABVCDomainAddress@4@AAW4fs_t@CFormatConfig@4@@Z" PURGE="8" COMMENT="" />
    <EXPORT ORDINAL="369" NAME="?getFlags@SDK@musk@@SAABHXZ" PURGE="0" COMMENT="" />
    <EXPORT ORDINAL="370" NAME="?getFreeCapacity@CConfigService@u3@@QBE?AW4STATUS@musk@@AA_K@Z" PURGE="4" COMMENT="" />
    <EXPORT ORDINAL="371" NAME="?getHint@CDeposit@dok@@QBE?AW4STATUS@musk@@PA_W@Z" PURGE="4" COMMENT="" />
    <EXPORT ORDINAL="372" NAME="?getHint@CDepositConfig@musk@@QBEPB_WXZ" PURGE="0" COMMENT="" />
    <EXPORT ORDINAL="373" NAME="?getHint@CPrivateArea@u3@@QBE?AW4STATUS@musk@@ABVCDomainAddress@4@PA_W@Z" PURGE="8" COMMENT="" />
    <EXPORT ORDINAL="374" NAME="?getHint@CPrivateAreaConfig@musk@@QBEPB_WXZ" PURGE="0" COMMENT="" />
    <EXPORT ORDINAL="375" NAME="?getIndex@CDomainAddress@musk@@QBEEAAVCUFDImpl@2@@Z" PURGE="4" COMMENT="" />
    <EXPORT ORDINAL="376" NAME="?getIndex@CDomainConfiguration@musk@@QBEEXZ" PURGE="0" COMMENT="" />
    <EXPORT ORDINAL="377" NAME="?getLastError@CUtils@u3@@QAE?AW4STATUS@musk@@AAKAAIPAE@Z" PURGE="12" COMMENT="" />
    <EXPORT ORDINAL="378" NAME="?getLastError@CUtils@u3@@QAE?AW4STATUS@musk@@PA_WAAI@Z" PURGE="8" COMMENT="" />
    <EXPORT ORDINAL="379" NAME="?getLogFileFromRegistry@SDK@musk@@CA_NPA_WK@Z" PURGE="0" COMMENT="" />
    <EXPORT ORDINAL="380" NAME="?getLun@CDomainConfiguration@musk@@QBEEXZ" PURGE="0" COMMENT="" />
    <EXPORT ORDINAL="381" NAME="?getMaxDomainsNum@CConfigService@u3@@QBE?AW4STATUS@musk@@AAI@Z" PURGE="4" COMMENT="" />
    <EXPORT ORDINAL="382" NAME="?getMaxNOA@CPrivateArea@u3@@QBE?AW4STATUS@musk@@AAK@Z" PURGE="4" COMMENT="" />
    <EXPORT ORDINAL="383" NAME="?getMaxPartitionSize@CDeposit@dok@@QBE?AW4STATUS@musk@@AA_K@Z" PURGE="4" COMMENT="" />
    <EXPORT ORDINAL="384" NAME="?getMaxSize@CCD@dok@@QBE?AW4STATUS@musk@@AA_K@Z" PURGE="4" COMMENT="" />
    <EXPORT ORDINAL="385" NAME="?getMediaConfiguration@CUtils@dok@@QBE?AW4STATUS@musk@@AAVCFlashAttributes@4@@Z" PURGE="4" COMMENT="" />
    <EXPORT ORDINAL="386" NAME="?getMinAreaSize@CPrivateArea@u3@@QBE?AW4STATUS@musk@@AA_K@Z" PURGE="4" COMMENT="" />
    <EXPORT ORDINAL="387" NAME="?getMinPartitionSize@CDeposit@dok@@QBE?AW4STATUS@musk@@AA_K@Z" PURGE="4" COMMENT="" />
    <EXPORT ORDINAL="388" NAME="?getMinSize@CCD@dok@@QBE?AW4STATUS@musk@@AA_K@Z" PURGE="4" COMMENT="" />
    <EXPORT ORDINAL="389" NAME="?getMountPoint@CDomainAddress@musk@@QBEPB_WXZ" PURGE="0" COMMENT="" />
    <EXPORT ORDINAL="390" NAME="?getMountPoint@CDomainConfiguration@musk@@QBEPB_WXZ" PURGE="0" COMMENT="" />
    <EXPORT ORDINAL="391" NAME="?getNOA@CDeposit@dok@@QBE?AW4STATUS@musk@@AAK0@Z" PURGE="8" COMMENT="" />
    <EXPORT ORDINAL="392" NAME="?getNOA@CTwin@dok@@QBE?AW4STATUS@musk@@AAK0@Z" PURGE="8" COMMENT="" />
    <EXPORT ORDINAL="393" NAME="?getNearestValidDomainSize@CConfigService@u3@@QBE?AW4STATUS@musk@@W4domain_t@4@_KAA_KW4RoundDirection@12@@Z" PURGE="20" COMMENT="" />
    <EXPORT ORDINAL="394" NAME="?getNextNOADelayDuration@CDeposit@dok@@QBE?AW4STATUS@musk@@AAK@Z" PURGE="4" COMMENT="" />
    <EXPORT ORDINAL="395" NAME="?getPartitionsSize@CDeposit@dok@@QBE?AW4STATUS@musk@@AA_K0@Z" PURGE="8" COMMENT="" />
    <EXPORT ORDINAL="396" NAME="?getPassword@CDepositConfig@musk@@QBEPB_WXZ" PURGE="0" COMMENT="" />
    <EXPORT ORDINAL="397" NAME="?getPassword@CPrivateAreaConfig@musk@@QBEPB_WXZ" PURGE="0" COMMENT="" />
    <EXPORT ORDINAL="398" NAME="?getPath@CCD@dok@@QBE?AW4STATUS@musk@@PA_WAAI@Z" PURGE="8" COMMENT="" />
    <EXPORT ORDINAL="399" NAME="?getPathInfoVector@CUFD@musk@@QBE?AW4STATUS@2@AAVCPathInfoVector@2@@Z" PURGE="4" COMMENT="" />
    <EXPORT ORDINAL="400" NAME="?getPathStrings@CUFD@musk@@QBE?AW4STATUS@2@PA_WAAH@Z" PURGE="8" COMMENT="" />
    <EXPORT ORDINAL="401" NAME="?getPathsInfo@CUFD@musk@@QBE?AW4STATUS@2@PAUpath_info_t@CPathInfoVector@2@AAI@Z" PURGE="8" COMMENT="" />
    <EXPORT ORDINAL="402" NAME="?getPowerMode@CUtils@dok@@QBE?AW4STATUS@musk@@AAW4power_mode_t@CPowerConsumptionMode@4@@Z" PURGE="4" COMMENT="" />
    <EXPORT ORDINAL="403" NAME="?getPrivateAreaConfiguration@CPrivateArea@u3@@QBE?AW4STATUS@musk@@ABVCDomainAddress@4@AAURemovableInfo@private_area@4@@Z" PURGE="8" COMMENT="" />
    <EXPORT ORDINAL="404" NAME="?getProduct@CUFD@musk@@QBE?AW4STATUS@2@PA_WAAI@Z" PURGE="8" COMMENT="" />
    <EXPORT ORDINAL="405" NAME="?getProductID@CUFD@musk@@QBE?AW4STATUS@2@AAK@Z" PURGE="4" COMMENT="" />
    <EXPORT ORDINAL="406" NAME="?getPublicKey@CCrypto@dok@@QBE?AW4STATUS@musk@@PAE@Z" PURGE="4" COMMENT="" />
    <EXPORT ORDINAL="407" NAME="?getPublicKey@CCrypto@u3@@QBE?AW4STATUS@musk@@PAE@Z" PURGE="4" COMMENT="" />
    <EXPORT ORDINAL="408" NAME="?getPublicPartitionLabel@CDepositConfig@musk@@QBEPBDXZ" PURGE="0" COMMENT="" />
    <EXPORT ORDINAL="409" NAME="?getPublicPartitionLabel@CPrivateAreaConfig@musk@@QBEPBDXZ" PURGE="0" COMMENT="" />
    <EXPORT ORDINAL="410" NAME="?getSafePartitionByteSize@CDepositConfig@musk@@QBE_KXZ" PURGE="0" COMMENT="" />
    <EXPORT ORDINAL="411" NAME="?getSafePartitionByteSize@CPrivateAreaConfig@musk@@QBE_KXZ" PURGE="0" COMMENT="" />
    <EXPORT ORDINAL="412" NAME="?getSafePartitionLabel@CDepositConfig@musk@@QBEPBDXZ" PURGE="0" COMMENT="" />
    <EXPORT ORDINAL="413" NAME="?getSafePartitionLabel@CPrivateAreaConfig@musk@@QBEPBDXZ" PURGE="0" COMMENT="" />
    <EXPORT ORDINAL="414" NAME="?getSecureSessionType@CSecureSession@u3@@QBE?AW4STATUS@musk@@AAW4SecureSessionType@12@@Z" PURGE="4" COMMENT="" />
    <EXPORT ORDINAL="415" NAME="?getSerialNumber@CUFD@musk@@QBE?AW4STATUS@2@PA_WAAI@Z" PURGE="8" COMMENT="" />
    <EXPORT ORDINAL="416" NAME="?getServiceDescriptor@CService@musk@@QBE?AW4STATUS@2@PAEIAAIW4queryServiceDescriptor_t@12@@Z" PURGE="16" COMMENT="" />
    <EXPORT ORDINAL="417" NAME="?getServiceDescriptor@CServiceDiscovery@u3@@QBE?AW4STATUS@musk@@GPAEIAAIW4queryServiceDescriptor_t@CService@4@@Z" PURGE="20" COMMENT="" />
    <EXPORT ORDINAL="418" NAME="?getServiceDiscoverySpecificFields@CServiceDiscovery@u3@@QAE?AW4STATUS@musk@@AAUserviceDiscoverySpecificFields@serviceDiscovery@2@@Z" PURGE="4" COMMENT="" />
    <EXPORT ORDINAL="419" NAME="?getServiceID@CService@musk@@QBE?AW4STATUS@2@AAG@Z" PURGE="4" COMMENT="" />
    <EXPORT ORDINAL="420" NAME="?getServiceRootSpecificFields@CService@musk@@QBE?AW4STATUS@2@PAEIAAI@Z" PURGE="12" COMMENT="" />
    <EXPORT ORDINAL="421" NAME="?getServiceRootSpecificFields@CServiceDiscovery@u3@@QBE?AW4STATUS@musk@@GPAEIAAI@Z" PURGE="16" COMMENT="" />
    <EXPORT ORDINAL="422" NAME="?getServiceVersion@CService@musk@@QBE?AW4STATUS@2@AAG@Z" PURGE="4" COMMENT="" />
    <EXPORT ORDINAL="423" NAME="?getSize@CCD@dok@@QBE?AW4STATUS@musk@@AA_K@Z" PURGE="4" COMMENT="" />
    <EXPORT ORDINAL="424" NAME="?getSize@CCD@u3@@QBE?AW4STATUS@musk@@ABVCDomainAddress@4@AA_K@Z" PURGE="8" COMMENT="" />
    <EXPORT ORDINAL="425" NAME="?getStatus@CFips@u3@@QBE?AW4STATUS@musk@@PAW4Status@12@@Z" PURGE="4" COMMENT="" />
    <EXPORT ORDINAL="426" NAME="?getStatusString@musk@@YAPB_WW4STATUS@1@@Z" PURGE="0" COMMENT="" />
    <EXPORT ORDINAL="427" NAME="?getSupportedAsymmetricAlgBitmap@CCrypto@u3@@QBE?AW4STATUS@musk@@AAG@Z" PURGE="4" COMMENT="" />
    <EXPORT ORDINAL="428" NAME="?getSupportedDomainTypes@CConfigService@u3@@QBE?AW4STATUS@musk@@PAW4domain_t@4@IAAI@Z" PURGE="12" COMMENT="" />
    <EXPORT ORDINAL="429" NAME="?getSupportedServicesInfo@CServiceDiscovery@u3@@QAE?AW4STATUS@musk@@AAVconst_iterator@?$vector@UserviceInfo_t@serviceDiscovery@u3@@V?$allocator@UserviceInfo_t@serviceDiscovery@u3@@@std@@@std@@0@Z" PURGE="8" COMMENT="" />
    <EXPORT ORDINAL="430" NAME="?getSupportedSymmetricAlgBitmap@CCrypto@u3@@QBE?AW4STATUS@musk@@AAG@Z" PURGE="4" COMMENT="" />
    <EXPORT ORDINAL="431" NAME="?getType@CDepositConfig@musk@@ABEPB_WXZ" PURGE="0" COMMENT="" />
    <EXPORT ORDINAL="432" NAME="?getType@CFormatConfig@musk@@QBE?AW4fs_t@12@XZ" PURGE="0" COMMENT="" />
    <EXPORT ORDINAL="433" NAME="?getUSBSpeed@CUFD@musk@@QBE?AW4STATUS@2@AAW4usb_speed_t@12@@Z" PURGE="4" COMMENT="" />
    <EXPORT ORDINAL="434" NAME="?getVendor@CUFD@musk@@QBE?AW4STATUS@2@PA_WAAI@Z" PURGE="8" COMMENT="" />
    <EXPORT ORDINAL="435" NAME="?getVendorID@CUFD@musk@@QBE?AW4STATUS@2@AAK@Z" PURGE="4" COMMENT="" />
    <EXPORT ORDINAL="436" NAME="?getVendorTypeString@CUFD@musk@@QBEPB_WXZ" PURGE="0" COMMENT="" />
    <EXPORT ORDINAL="437" NAME="?getVersion@CUFD@musk@@QBE?AW4STATUS@2@PA_WAAI@Z" PURGE="8" COMMENT="" />
    <EXPORT ORDINAL="438" NAME="?getVersion@SDK@musk@@SAQB_WXZ" PURGE="0" COMMENT="" />
    <EXPORT ORDINAL="439" NAME="?get_geometry@CFormatConfig@musk@@QAEXAAEAAG@Z" PURGE="8" COMMENT="" />
    <EXPORT ORDINAL="440" NAME="?hasGeometry@CFormatConfig@musk@@QBE_NXZ" PURGE="0" COMMENT="" />
    <EXPORT ORDINAL="441" NAME="?hasMbrImage@CFormatConfig@musk@@QBE_NXZ" PURGE="0" COMMENT="" />
    <EXPORT ORDINAL="442" NAME="?hasPBSImage@CFormatConfig@musk@@QBE_NXZ" PURGE="0" COMMENT="" />
    <EXPORT ORDINAL="443" NAME="?init@SDK@musk@@SA?AW4STATUS@2@ABHK@Z" PURGE="0" COMMENT="" />
    <EXPORT ORDINAL="444" NAME="?init@SDK@musk@@SA?AW4STATUS@2@ABHKPAV?$basic_ostream@_WU?$char_traits@_W@std@@@std@@@Z" PURGE="0" COMMENT="" />
    <EXPORT ORDINAL="445" NAME="?initSecureSession@CDirectCommunication@u3@@QAE?AW4STATUS@musk@@AAVCU3PrivateCommand@4@W4SecureSessionType@CSecureSession@2@@Z" PURGE="8" COMMENT="" />
    <EXPORT ORDINAL="446" NAME="?insertDomainAt@CDomainsContainer@musk@@QAE_NABVCDomainConfiguration@2@I@Z" PURGE="8" COMMENT="" />
    <EXPORT ORDINAL="447" NAME="?installToken@CCookie@dok@@QAE?AW4STATUS@musk@@PBEK@Z" PURGE="8" COMMENT="" />
    <EXPORT ORDINAL="448" NAME="?installToken@CMBCSCookie@dok@@QAE?AW4STATUS@musk@@PBEK@Z" PURGE="8" COMMENT="" />
    <EXPORT ORDINAL="449" NAME="?isAsymmetricAlgSupported@CCrypto@u3@@QBE?AW4STATUS@musk@@W4asymmetricAlgorithm_t@crypto@2@AA_N@Z" PURGE="8" COMMENT="" />
    <EXPORT ORDINAL="450" NAME="?isConfigured@CCD@dok@@QBE?AW4STATUS@musk@@AA_N@Z" PURGE="4" COMMENT="" />
    <EXPORT ORDINAL="451" NAME="?isConfigured@CDeposit@dok@@QBE?AW4STATUS@musk@@AA_N@Z" PURGE="4" COMMENT="" />
    <EXPORT ORDINAL="452" NAME="?isConfigured@CPrivateArea@u3@@QBE?AW4STATUS@musk@@ABVCDomainAddress@4@AA_N@Z" PURGE="8" COMMENT="" />
    <EXPORT ORDINAL="453" NAME="?isDebugLogger@SDK@musk@@CA_NXZ" PURGE="0" COMMENT="" />
    <EXPORT ORDINAL="454" NAME="?isFipsSupported@CFips@u3@@QBE?AW4STATUS@musk@@PA_N@Z" PURGE="4" COMMENT="" />
    <EXPORT ORDINAL="455" NAME="?isFipsSupported@CFipsImpl@u3@@SA?AW4STATUS@musk@@PAVCUFDImpl@4@PA_N@Z" PURGE="0" COMMENT="" />
    <EXPORT ORDINAL="456" NAME="?isInSafePartition@CDeposit@dok@@QBE?AW4STATUS@musk@@AA_N@Z" PURGE="4" COMMENT="" />
    <EXPORT ORDINAL="457" NAME="?isLocked@CCD@u3@@QBE?AW4STATUS@musk@@ABVCDomainAddress@4@AA_N@Z" PURGE="8" COMMENT="" />
    <EXPORT ORDINAL="458" NAME="?isLoggedIn@CPrivateArea@u3@@QBE?AW4STATUS@musk@@ABVCDomainAddress@4@AA_N@Z" PURGE="8" COMMENT="" />
    <EXPORT ORDINAL="459" NAME="?isSupported@CService@musk@@QBE_NXZ" PURGE="0" COMMENT="" />
    <EXPORT ORDINAL="460" NAME="?isSymmetricAlgSupported@CCrypto@u3@@QBE?AW4STATUS@musk@@W4symmetricAlgorithm_t@crypto@2@AA_N@Z" PURGE="8" COMMENT="" />
    <EXPORT ORDINAL="461" NAME="?isWriteProtected@CUtils@dok@@QBE?AW4STATUS@musk@@AA_N@Z" PURGE="4" COMMENT="" />
    <EXPORT ORDINAL="462" NAME="?isWriteProtected@CUtils@u3@@QBE?AW4STATUS@musk@@ABVCDomainAddress@4@AA_N@Z" PURGE="8" COMMENT="" />
    <EXPORT ORDINAL="463" NAME="?label@CFormatConfigFat@musk@@QAEXPBD@Z" PURGE="4" COMMENT="" />
    <EXPORT ORDINAL="464" NAME="?label@CFormatConfigFat@musk@@QBEPBDXZ" PURGE="0" COMMENT="" />
    <EXPORT ORDINAL="465" NAME="?login@CPrivateArea@u3@@QAE?AW4STATUS@musk@@ABVCDomainAddress@4@PB_WK@Z" PURGE="12" COMMENT="" />
    <EXPORT ORDINAL="466" NAME="?login@CTrusted@u3@@QBE?AW4STATUS@musk@@ABVCDomainAddress@4@PBE1K@Z" PURGE="16" COMMENT="" />
    <EXPORT ORDINAL="467" NAME="?login@CTwin@dok@@QBE?AW4STATUS@musk@@PBE0@Z" PURGE="8" COMMENT="" />
    <EXPORT ORDINAL="468" NAME="?logout@CPrivateArea@u3@@QAE?AW4STATUS@musk@@ABVCDomainAddress@4@K@Z" PURGE="8" COMMENT="" />
    <EXPORT ORDINAL="469" NAME="?logout@CTwin@dok@@QBE?AW4STATUS@musk@@XZ" PURGE="0" COMMENT="" />
    <EXPORT ORDINAL="470" NAME="?m_flags@SDK@musk@@0HA" PURGE="-1" COMMENT="" />
    <EXPORT ORDINAL="471" NAME="?m_szVersion@SDK@musk@@0QB_WB" PURGE="-1" COMMENT="" />
    <EXPORT ORDINAL="472" NAME="?mbr@CFormatConfig@musk@@QAEXPBE@Z" PURGE="4" COMMENT="" />
    <EXPORT ORDINAL="473" NAME="?mbr@CFormatConfig@musk@@QBEPAEXZ" PURGE="0" COMMENT="" />
    <EXPORT ORDINAL="474" NAME="?open@CDirectCommunication@dok@@QBE?AW4STATUS@musk@@W4lun_t@12@@Z" PURGE="4" COMMENT="" />
    <EXPORT ORDINAL="475" NAME="?open@CDirectCommunication@u3@@QBE?AW4STATUS@musk@@W4lun_t@12@@Z" PURGE="4" COMMENT="" />
    <EXPORT ORDINAL="476" NAME="?open@CSecureSession@u3@@QAE?AW4STATUS@musk@@PBE00@Z" PURGE="12" COMMENT="" />
    <EXPORT ORDINAL="477" NAME="?open@CSecureSession@u3@@QAE?AW4STATUS@musk@@W4SecureSessionType@12@ABVCDomainAddress@4@@Z" PURGE="8" COMMENT="" />
    <EXPORT ORDINAL="478" NAME="?open@CSecureSession@u3@@QAE?AW4STATUS@musk@@W4SecureSessionType@12@ABVCDomainAddress@4@PBE22@Z" PURGE="20" COMMENT="" />
    <EXPORT ORDINAL="479" NAME="?open@CSecureSession@u3@@QAE?AW4STATUS@musk@@XZ" PURGE="0" COMMENT="" />
    <EXPORT ORDINAL="480" NAME="?pbs@CFormatConfig@musk@@QAEXPBE@Z" PURGE="4" COMMENT="" />
    <EXPORT ORDINAL="481" NAME="?pbs@CFormatConfig@musk@@QBEPAEXZ" PURGE="0" COMMENT="" />
    <EXPORT ORDINAL="482" NAME="?pop_back@CPathInfoVector@musk@@QAEXXZ" PURGE="0" COMMENT="" />
    <EXPORT ORDINAL="483" NAME="?pulse@CUtils@dok@@QBE_NXZ" PURGE="0" COMMENT="" />
    <EXPORT ORDINAL="484" NAME="?pulse@CUtils@u3@@QBE?AW4STATUS@musk@@ABVCDomainAddress@4@@Z" PURGE="4" COMMENT="" />
    <EXPORT ORDINAL="485" NAME="?push_back@CPathInfoVector@musk@@QAEXABUpath_info_t@12@@Z" PURGE="4" COMMENT="" />
    <EXPORT ORDINAL="486" NAME="?readHiddenBinary@CCookie@dok@@QBE?AW4STATUS@musk@@PB_W0PAEAAH@Z" PURGE="16" COMMENT="" />
    <EXPORT ORDINAL="487" NAME="?readHiddenBinary@CCookie@u3@@QBE?AW4STATUS@musk@@PB_W0PAEAAH@Z" PURGE="16" COMMENT="" />
    <EXPORT ORDINAL="488" NAME="?readHiddenBinary@CMBCSCookie@dok@@QBE?AW4STATUS@musk@@PB_W0PAEAAH@Z" PURGE="16" COMMENT="" />
    <EXPORT ORDINAL="489" NAME="?readHiddenInt@CCookie@dok@@QBE?AW4STATUS@musk@@PB_W0AAH@Z" PURGE="12" COMMENT="" />
    <EXPORT ORDINAL="490" NAME="?readHiddenInt@CCookie@u3@@QBE?AW4STATUS@musk@@PB_W0AAH@Z" PURGE="12" COMMENT="" />
    <EXPORT ORDINAL="491" NAME="?readHiddenInt@CMBCSCookie@dok@@QBE?AW4STATUS@musk@@PB_W0AAH@Z" PURGE="12" COMMENT="" />
    <EXPORT ORDINAL="492" NAME="?readHiddenString@CCookie@dok@@QBE?AW4STATUS@musk@@PB_W0PA_WAAH@Z" PURGE="16" COMMENT="" />
    <EXPORT ORDINAL="493" NAME="?readHiddenString@CCookie@u3@@QBE?AW4STATUS@musk@@PB_W0PA_WAAH@Z" PURGE="16" COMMENT="" />
    <EXPORT ORDINAL="494" NAME="?readHiddenString@CMBCSCookie@dok@@QBE?AW4STATUS@musk@@PB_W0PA_WAAH@Z" PURGE="16" COMMENT="" />
    <EXPORT ORDINAL="495" NAME="?readProtectedData@CCookie@u3@@QAE?AW4STATUS@musk@@PB_W0PAEAAH0@Z" PURGE="20" COMMENT="" />
    <EXPORT ORDINAL="496" NAME="?reconnect@CUtils@dok@@QAE_N_N@Z" PURGE="4" COMMENT="" />
    <EXPORT ORDINAL="497" NAME="?reconnect@CUtils@u3@@QAE?AW4STATUS@musk@@XZ" PURGE="0" COMMENT="" />
    <EXPORT ORDINAL="498" NAME="?reconnectASync@CUtils@dok@@QAE_N_NPAVCStatusCallback@musk@@@Z" PURGE="8" COMMENT="" />
    <EXPORT ORDINAL="499" NAME="?reff@SDK@musk@@CAHH@Z" PURGE="0" COMMENT="" />
    <EXPORT ORDINAL="500" NAME="?release@CUFD@musk@@QAEXXZ" PURGE="0" COMMENT="" />
    <EXPORT ORDINAL="501" NAME="?remove@CCD@dok@@QBE?AW4STATUS@musk@@PBE0@Z" PURGE="8" COMMENT="" />
    <EXPORT ORDINAL="502" NAME="?remove@CDeposit@dok@@QAE?AW4STATUS@musk@@PAVCProgressCallback@4@_N@Z" PURGE="8" COMMENT="" />
    <EXPORT ORDINAL="503" NAME="?remove@CPrivateArea@u3@@QAE?AW4STATUS@musk@@ABVCDomainAddress@4@PAVCProgressCallback@4@K@Z" PURGE="12" COMMENT="" />
    <EXPORT ORDINAL="504" NAME="?removeASync@CCD@dok@@QBE?AW4STATUS@musk@@PBE0PAVCStatusCallback@4@@Z" PURGE="12" COMMENT="" />
    <EXPORT ORDINAL="505" NAME="?removeASync@CDeposit@dok@@QAE?AW4STATUS@musk@@PAVCProgressCallback@4@PAVCStatusCallback@4@_N@Z" PURGE="12" COMMENT="" />
    <EXPORT ORDINAL="506" NAME="?removeAll@CConfigService@u3@@QAE?AW4STATUS@musk@@KPAVCProgressCallback@4@PAVCDomainsContainer@4@@Z" PURGE="12" COMMENT="" />
    <EXPORT ORDINAL="507" NAME="?removeDomainAt@CDomainsContainer@musk@@QAE_NI@Z" PURGE="4" COMMENT="" />
    <EXPORT ORDINAL="508" NAME="?removeLastDomain@CConfigService@u3@@QAE?AW4STATUS@musk@@K@Z" PURGE="4" COMMENT="" />
    <EXPORT ORDINAL="509" NAME="?removeListener@WMListening@musk@@SAXPAUHWND__@@@Z" PURGE="0" COMMENT="" />
    <EXPORT ORDINAL="510" NAME="?removeProtectedData@CCookie@u3@@QAE?AW4STATUS@musk@@PB_W000@Z" PURGE="16" COMMENT="" />
    <EXPORT ORDINAL="511" NAME="?removeReff@SDK@musk@@CAHXZ" PURGE="0" COMMENT="" />
    <EXPORT ORDINAL="512" NAME="?removeSecurity@CPrivateArea@u3@@QAE?AW4STATUS@musk@@ABVCDomainAddress@4@PB_WK@Z" PURGE="12" COMMENT="" />
    <EXPORT ORDINAL="513" NAME="?reset@CDepositConfig@musk@@AAEXXZ" PURGE="0" COMMENT="" />
    <EXPORT ORDINAL="514" NAME="?restoreSettings@CFormatConfig@musk@@QAEX_N@Z" PURGE="4" COMMENT="" />
    <EXPORT ORDINAL="515" NAME="?restoreSettings@CFormatConfig@musk@@QBE_NXZ" PURGE="0" COMMENT="" />
    <EXPORT ORDINAL="516" NAME="?setContentKey@CCD@u3@@QAE?AW4STATUS@musk@@ABVCDomainAddress@4@PBE1@Z" PURGE="12" COMMENT="" />
    <EXPORT ORDINAL="517" NAME="?setDomainFlags@CDomainConfiguration@musk@@QAEXG@Z" PURGE="4" COMMENT="" />
    <EXPORT ORDINAL="518" NAME="?setDomainSize@CDomainConfiguration@musk@@QAEX_K@Z" PURGE="8" COMMENT="" />
    <EXPORT ORDINAL="519" NAME="?setDomainType@CDomainConfiguration@musk@@QAEXW4domain_t@2@@Z" PURGE="4" COMMENT="" />
    <EXPORT ORDINAL="520" NAME="?setDomains@CConfigService@u3@@QAE?AW4STATUS@musk@@AAVCDomainsContainer@4@KPAVCProgressCallback@4@PAV54@@Z" PURGE="16" COMMENT="" />
    <EXPORT ORDINAL="521" NAME="?setFilter@CDeviceListener@musk@@QAEXPAVCFilterDeviceParams@2@@Z" PURGE="4" COMMENT="" />
    <EXPORT ORDINAL="522" NAME="?setFlags@SDK@musk@@SAXABH@Z" PURGE="0" COMMENT="" />
    <EXPORT ORDINAL="523" NAME="?setHint@CDeposit@dok@@QAE?AW4STATUS@musk@@PB_W@Z" PURGE="4" COMMENT="" />
    <EXPORT ORDINAL="524" NAME="?setHint@CDepositConfig@musk@@QAEXPB_W@Z" PURGE="4" COMMENT="" />
    <EXPORT ORDINAL="525" NAME="?setHint@CPrivateArea@u3@@QAE?AW4STATUS@musk@@ABVCDomainAddress@4@PB_W@Z" PURGE="8" COMMENT="" />
    <EXPORT ORDINAL="526" NAME="?setHint@CPrivateAreaConfig@musk@@QAEXPB_W@Z" PURGE="4" COMMENT="" />
    <EXPORT ORDINAL="527" NAME="?setPassword@CDepositConfig@musk@@QAEXPB_W@Z" PURGE="4" COMMENT="" />
    <EXPORT ORDINAL="528" NAME="?setPassword@CPrivateAreaConfig@musk@@QAEXPB_W@Z" PURGE="4" COMMENT="" />
    <EXPORT ORDINAL="529" NAME="?setPublicPartitionLabel@CDepositConfig@musk@@QAEXPBD@Z" PURGE="4" COMMENT="" />
    <EXPORT ORDINAL="530" NAME="?setPublicPartitionLabel@CPrivateAreaConfig@musk@@QAEXPBD@Z" PURGE="4" COMMENT="" />
    <EXPORT ORDINAL="531" NAME="?setSafePartitionByteSize@CDepositConfig@musk@@QAEX_K@Z" PURGE="8" COMMENT="" />
    <EXPORT ORDINAL="532" NAME="?setSafePartitionByteSize@CPrivateAreaConfig@musk@@QAEX_K@Z" PURGE="8" COMMENT="" />
    <EXPORT ORDINAL="533" NAME="?setSafePartitionLabel@CDepositConfig@musk@@QAEXPBD@Z" PURGE="4" COMMENT="" />
    <EXPORT ORDINAL="534" NAME="?setSafePartitionLabel@CPrivateAreaConfig@musk@@QAEXPBD@Z" PURGE="4" COMMENT="" />
    <EXPORT ORDINAL="535" NAME="?setType@CFormatConfig@musk@@IAEXW4fs_t@12@@Z" PURGE="4" COMMENT="" />
    <EXPORT ORDINAL="536" NAME="?setVendorPublicKey@CCD@dok@@QBE?AW4STATUS@musk@@PBE@Z" PURGE="4" COMMENT="" />
    <EXPORT ORDINAL="537" NAME="?setWriteBufferCount@CCD@u3@@QAE?AW4STATUS@musk@@K@Z" PURGE="4" COMMENT="" />
    <EXPORT ORDINAL="538" NAME="?set_geometry@CFormatConfig@musk@@QAEXEG@Z" PURGE="8" COMMENT="" />
    <EXPORT ORDINAL="539" NAME="?set_root_label@CFormatConfigFat@musk@@QAEX_N@Z" PURGE="4" COMMENT="" />
    <EXPORT ORDINAL="540" NAME="?set_root_label@CFormatConfigFat@musk@@QBE_NXZ" PURGE="0" COMMENT="" />
    <EXPORT ORDINAL="541" NAME="?size@CPathInfoVector@musk@@QBEIXZ" PURGE="0" COMMENT="" />
    <EXPORT ORDINAL="542" NAME="?start@CDeviceListener@musk@@QAEXXZ" PURGE="0" COMMENT="" />
    <EXPORT ORDINAL="543" NAME="?status@CUFD@musk@@QBE?AW4STATUS@2@XZ" PURGE="0" COMMENT="" />
    <EXPORT ORDINAL="544" NAME="?stop@CDeviceListener@musk@@QAEXXZ" PURGE="0" COMMENT="" />
    <EXPORT ORDINAL="545" NAME="?supportChangePassword@CDeposit@dok@@QBE?AW4STATUS@musk@@AA_N@Z" PURGE="4" COMMENT="" />
    <EXPORT ORDINAL="546" NAME="?supportDeposit@CDeposit@dok@@QBE?AW4STATUS@musk@@AA_N@Z" PURGE="4" COMMENT="" />
    <EXPORT ORDINAL="547" NAME="?terminate@CSecureSession@u3@@QAE?AW4STATUS@musk@@XZ" PURGE="0" COMMENT="" />
    <EXPORT ORDINAL="548" NAME="?updateDomain@CConfigService@u3@@QAE?AW4STATUS@musk@@ABVCDomainConfiguration@4@KPAVCProgressCallback@4@@Z" PURGE="12" COMMENT="" />
    <EXPORT ORDINAL="549" NAME="?verifyRSARandomChallenge@CCrypto@dok@@QBE?AW4STATUS@musk@@PBE00@Z" PURGE="12" COMMENT="" />
    <EXPORT ORDINAL="550" NAME="?verifyRSARandomChallenge@CCrypto@u3@@QBE?AW4STATUS@musk@@PBE00@Z" PURGE="12" COMMENT="" />
    <EXPORT ORDINAL="551" NAME="?verifyToken@CCookie@dok@@QBE?AW4STATUS@musk@@PBEK@Z" PURGE="8" COMMENT="" />
    <EXPORT ORDINAL="552" NAME="?verifyToken@CMBCSCookie@dok@@QBE?AW4STATUS@musk@@PBEK@Z" PURGE="8" COMMENT="" />
    <EXPORT ORDINAL="553" NAME="?writeHiddenBinary@CCookie@dok@@QAE?AW4STATUS@musk@@PB_W0PBEH@Z" PURGE="16" COMMENT="" />
    <EXPORT ORDINAL="554" NAME="?writeHiddenBinary@CCookie@u3@@QAE?AW4STATUS@musk@@PB_W0PBEH@Z" PURGE="16" COMMENT="" />
    <EXPORT ORDINAL="555" NAME="?writeHiddenBinary@CMBCSCookie@dok@@QAE?AW4STATUS@musk@@PB_W0PBEH@Z" PURGE="16" COMMENT="" />
    <EXPORT ORDINAL="556" NAME="?writeHiddenInt@CCookie@dok@@QAE?AW4STATUS@musk@@PB_W0H@Z" PURGE="12" COMMENT="" />
    <EXPORT ORDINAL="557" NAME="?writeHiddenInt@CCookie@u3@@QAE?AW4STATUS@musk@@PB_W0H@Z" PURGE="12" COMMENT="" />
    <EXPORT ORDINAL="558" NAME="?writeHiddenInt@CMBCSCookie@dok@@QAE?AW4STATUS@musk@@PB_W0H@Z" PURGE="12" COMMENT="" />
    <EXPORT ORDINAL="559" NAME="?writeHiddenString@CCookie@dok@@QAE?AW4STATUS@musk@@PB_W00@Z" PURGE="12" COMMENT="" />
    <EXPORT ORDINAL="560" NAME="?writeHiddenString@CCookie@u3@@QAE?AW4STATUS@musk@@PB_W00@Z" PURGE="12" COMMENT="" />
    <EXPORT ORDINAL="561" NAME="?writeHiddenString@CMBCSCookie@dok@@QAE?AW4STATUS@musk@@PB_W00@Z" PURGE="12" COMMENT="" />
    <EXPORT ORDINAL="562" NAME="?writeProtectedData@CCookie@u3@@QAE?AW4STATUS@musk@@PB_W0PBEH0@Z" PURGE="20" COMMENT="" />
</LIBRARY>

