<?xml version="1.0" encoding="UTF-8"?>
<LIBRARY NAME="udfimporter.dll" PATH="/DLLArchive/etc/udfimporter.dll" DATE="Fri Jul 03 22:24:28 CEST 2020" VERSION="6, 3, 0, 2">
    <EXPORT ORDINAL="1" NAME="??0CNeroFileSystemString@@QAE@ABV0@@Z" PURGE="4" COMMENT="" />
    <EXPORT ORDINAL="2" NAME="??0CNeroFileSystemString@@QAE@PBD@Z" PURGE="4" COMMENT="" />
    <EXPORT ORDINAL="3" NAME="??0CNeroFileSystemString@@QAE@PBG@Z" PURGE="4" COMMENT="" />
    <EXPORT ORDINAL="4" NAME="??0CNeroFileSystemString@@QAE@XZ" PURGE="0" COMMENT="" />
    <EXPORT ORDINAL="5" NAME="??0CStateSubject@@IAE@XZ" PURGE="0" COMMENT="" />
    <EXPORT ORDINAL="6" NAME="??0CStateSubject@@QAE@ABV0@@Z" PURGE="4" COMMENT="" />
    <EXPORT ORDINAL="7" NAME="??0CUDFFileSystemDriver@@QAE@ABV0@@Z" PURGE="4" COMMENT="" />
    <EXPORT ORDINAL="8" NAME="??0CUDFFileSystemDriver@@QAE@PAVINeroFileSystemBlockAccess@@H@Z" PURGE="8" COMMENT="" />
    <EXPORT ORDINAL="9" NAME="??0MountRainierBlockReadWriter@@QAE@ABV0@@Z" PURGE="4" COMMENT="" />
    <EXPORT ORDINAL="10" NAME="??0MountRainierBlockReadWriter@@QAE@PAVINeroFileSystemBlockAccess@@H@Z" PURGE="8" COMMENT="" />
    <EXPORT ORDINAL="11" NAME="??0MountRainierBlockReadWriter@@QAE@PAVINeroFileSystemBlockReader@@H@Z" PURGE="8" COMMENT="" />
    <EXPORT ORDINAL="12" NAME="??0StateContainer@@QAE@ABV0@@Z" PURGE="4" COMMENT="" />
    <EXPORT ORDINAL="13" NAME="??0StateContainer@@QAE@XZ" PURGE="0" COMMENT="" />
    <EXPORT ORDINAL="14" NAME="??0UDFDiskMap@@QAE@ABV0@@Z" PURGE="4" COMMENT="" />
    <EXPORT ORDINAL="15" NAME="??0UDFDiskMap@@QAE@PAVINeroFileSystemBlockAccess@@PAVIProcessProgress@@@Z" PURGE="8" COMMENT="" />
    <EXPORT ORDINAL="16" NAME="??0UDFState@@QAE@ABV0@@Z" PURGE="4" COMMENT="" />
    <EXPORT ORDINAL="17" NAME="??0UDFState@@QAE@XZ" PURGE="0" COMMENT="" />
    <EXPORT ORDINAL="18" NAME="??0UDFStateHandler@@IAE@XZ" PURGE="0" COMMENT="" />
    <EXPORT ORDINAL="19" NAME="??0UDFStateHandler@@QAE@ABV0@@Z" PURGE="4" COMMENT="" />
    <EXPORT ORDINAL="20" NAME="??0UDF_FSReader@@IAE@PAVINeroFileSystemBlockAccess@@HPAVUDF_VolumeDescriptorSequence@@@Z" PURGE="12" COMMENT="" />
    <EXPORT ORDINAL="21" NAME="??0UDF_FSReader@@QAE@ABV0@@Z" PURGE="4" COMMENT="" />
    <EXPORT ORDINAL="22" NAME="??1CNeroFileSystemString@@UAE@XZ" PURGE="0" COMMENT="" />
    <EXPORT ORDINAL="23" NAME="??1CStateSubject@@UAE@XZ" PURGE="0" COMMENT="" />
    <EXPORT ORDINAL="24" NAME="??1CUDFFileSystemDriver@@UAE@XZ" PURGE="0" COMMENT="" />
    <EXPORT ORDINAL="25" NAME="??1MountRainierBlockReadWriter@@UAE@XZ" PURGE="0" COMMENT="" />
    <EXPORT ORDINAL="26" NAME="??1StateContainer@@UAE@XZ" PURGE="0" COMMENT="" />
    <EXPORT ORDINAL="27" NAME="??1UDFDiskMap@@UAE@XZ" PURGE="0" COMMENT="" />
    <EXPORT ORDINAL="28" NAME="??1UDFState@@UAE@XZ" PURGE="0" COMMENT="" />
    <EXPORT ORDINAL="29" NAME="??1UDFStateHandler@@IAE@XZ" PURGE="0" COMMENT="" />
    <EXPORT ORDINAL="30" NAME="??1UDF_FSReader@@IAE@XZ" PURGE="0" COMMENT="" />
    <EXPORT ORDINAL="31" NAME="??4CNeroFileSystemString@@QAEAAV0@ABV0@@Z" PURGE="4" COMMENT="" />
    <EXPORT ORDINAL="32" NAME="??4CStateSubject@@QAEAAV0@ABV0@@Z" PURGE="4" COMMENT="" />
    <EXPORT ORDINAL="33" NAME="??4CUDFFileSystemDriver@@QAEAAV0@ABV0@@Z" PURGE="4" COMMENT="" />
    <EXPORT ORDINAL="34" NAME="??4MountRainierBlockReadWriter@@QAEAAV0@ABV0@@Z" PURGE="4" COMMENT="" />
    <EXPORT ORDINAL="35" NAME="??4StateContainer@@QAEAAV0@ABV0@@Z" PURGE="4" COMMENT="" />
    <EXPORT ORDINAL="36" NAME="??4UDFDiskMap@@QAEAAV0@ABV0@@Z" PURGE="4" COMMENT="" />
    <EXPORT ORDINAL="37" NAME="??4UDFState@@QAEAAV0@ABV0@@Z" PURGE="4" COMMENT="" />
    <EXPORT ORDINAL="38" NAME="??4UDFStateHandler@@QAEAAV0@ABV0@@Z" PURGE="4" COMMENT="" />
    <EXPORT ORDINAL="39" NAME="??4UDF_FSReader@@QAEAAV0@ABV0@@Z" PURGE="4" COMMENT="" />
    <EXPORT ORDINAL="40" NAME="??_7CNeroFileSystemString@@6B@" PURGE="-1" COMMENT="" />
    <EXPORT ORDINAL="41" NAME="??_7CStateSubject@@6B@" PURGE="-1" COMMENT="" />
    <EXPORT ORDINAL="42" NAME="??_7CUDFFileSystemDriver@@6B?$CExtensionCollector@VINeroMediumDriver@@VINeroFileSystemMediumExtension@@W4NeroFSExtensionsType@@@@@" PURGE="-1" COMMENT="" />
    <EXPORT ORDINAL="43" NAME="??_7CUDFFileSystemDriver@@6BISwitchSessionNotificationSink@@@" PURGE="-1" COMMENT="" />
    <EXPORT ORDINAL="44" NAME="??_7MountRainierBlockReadWriter@@6B@" PURGE="-1" COMMENT="" />
    <EXPORT ORDINAL="45" NAME="??_7StateContainer@@6B@" PURGE="-1" COMMENT="" />
    <EXPORT ORDINAL="46" NAME="??_7UDFDiskMap@@6B@" PURGE="-1" COMMENT="" />
    <EXPORT ORDINAL="47" NAME="??_7UDFState@@6B@" PURGE="-1" COMMENT="" />
    <EXPORT ORDINAL="48" NAME="?AddBool@StateContainer@@UAEXPBDH@Z" PURGE="8" COMMENT="" />
    <EXPORT ORDINAL="49" NAME="?AddByte@StateContainer@@UAEXPBDE@Z" PURGE="8" COMMENT="" />
    <EXPORT ORDINAL="50" NAME="?AddData@StateContainer@@UAEXPBDIPAXI@Z" PURGE="16" COMMENT="" />
    <EXPORT ORDINAL="51" NAME="?AddDirectory@UDF_FSReader@@IAEXAAV?$vector@UUDF_SectorWriteBuffer@@V?$allocator@UUDF_SectorWriteBuffer@@@std@@@std@@@Z" PURGE="4" COMMENT="" />
    <EXPORT ORDINAL="52" NAME="?AddEntry@UDFDiskMap@@UAEX_JPAVCUDF_DescriptorTag@UDFImporterLowlevelStructures@@@Z" PURGE="12" COMMENT="" />
    <EXPORT ORDINAL="53" NAME="?AddInt64@StateContainer@@UAEXPBD_J@Z" PURGE="12" COMMENT="" />
    <EXPORT ORDINAL="54" NAME="?AddPointer@StateContainer@@UAEXPBDPAX@Z" PURGE="8" COMMENT="" />
    <EXPORT ORDINAL="55" NAME="?AddString@StateContainer@@UAEXPBDABVINeroFileSystemString@@@Z" PURGE="8" COMMENT="" />
    <EXPORT ORDINAL="56" NAME="?AddUint16@StateContainer@@UAEXPBDG@Z" PURGE="8" COMMENT="" />
    <EXPORT ORDINAL="57" NAME="?AddUint32@StateContainer@@UAEXPBDI@Z" PURGE="8" COMMENT="" />
    <EXPORT ORDINAL="58" NAME="?Attach@CStateSubject@@UAEXPAVIStateObserver@@@Z" PURGE="4" COMMENT="" />
    <EXPORT ORDINAL="59" NAME="?BuildSectorList@UDF_FSReader@@AAE?AW4NeroFSError@@IIGAAV?$vector@_JV?$allocator@_J@std@@@std@@@Z" PURGE="16" COMMENT="" />
    <EXPORT ORDINAL="60" NAME="?ByteSwap2352@@YAXPAE@Z" PURGE="0" COMMENT="" />
    <EXPORT ORDINAL="61" NAME="?CalcLogicalBlock@UDF_FSReader@@QAE?AW4NeroFSError@@_JAAIAAG@Z" PURGE="16" COMMENT="" />
    <EXPORT ORDINAL="62" NAME="?CalcRelativeSector@UDF_FSReader@@IAEIIG@Z" PURGE="8" COMMENT="" />
    <EXPORT ORDINAL="63" NAME="?CalcRelativeSector@UDF_FSReader@@IAEIV?$vector@UUDF_LONG_ALLOCATION_DESCRIPTOR@UDFImporterLowlevelStructures@@V?$allocator@UUDF_LONG_ALLOCATION_DESCRIPTOR@UDFImporterLowlevelStructures@@@std@@@std@@@Z" PURGE="16" COMMENT="" />
    <EXPORT ORDINAL="64" NAME="?CalcSubChannelCRC@@YAGPBEK@Z" PURGE="0" COMMENT="" />
    <EXPORT ORDINAL="65" NAME="?ChangeAllocationMethod@UDF_FSReader@@IAE?AW4NeroFSError@@PAVUDF_FileEntry@@PAVUDF_Allocator@@@Z" PURGE="8" COMMENT="" />
    <EXPORT ORDINAL="66" NAME="?CheckDirAllocation@UDF_FSReader@@IAE?AW4NeroFSError@@_J00PAVUDF_Allocator@@AAV?$vector@UUDF_SectorWriteBuffer@@V?$allocator@UUDF_SectorWriteBuffer@@@std@@@std@@@Z" PURGE="32" COMMENT="" />
    <EXPORT ORDINAL="67" NAME="?CheckECCAndEDC_Mode1@@YAHQAEH@Z" PURGE="0" COMMENT="" />
    <EXPORT ORDINAL="68" NAME="?CheckECCAndEDC_Mode2Form1@@YAHQAEH@Z" PURGE="0" COMMENT="" />
    <EXPORT ORDINAL="69" NAME="?CheckECCAndEDC_Mode2Form1_2336@@YAHQAEH@Z" PURGE="0" COMMENT="" />
    <EXPORT ORDINAL="70" NAME="?CheckECCAndEDC_Mode2Form2@@YAHQAEH@Z" PURGE="0" COMMENT="" />
    <EXPORT ORDINAL="71" NAME="?CheckECCAndEDC_Mode2Form2_2336@@YAHQAEH@Z" PURGE="0" COMMENT="" />
    <EXPORT ORDINAL="72" NAME="?CheckVATFileEntry@UDF_FSReader@@AAEHPAVCUDF_BasicFileEntry@UDFImporterLowlevelStructures@@@Z" PURGE="4" COMMENT="" />
    <EXPORT ORDINAL="73" NAME="?CleanUpBuffers@UDF_FSReader@@IAEXAAV?$vector@UUDF_SectorWriteBuffer@@V?$allocator@UUDF_SectorWriteBuffer@@@std@@@std@@@Z" PURGE="4" COMMENT="" />
    <EXPORT ORDINAL="74" NAME="?ClearDiskMap@UDFDiskMap@@UAEXXZ" PURGE="0" COMMENT="" />
    <EXPORT ORDINAL="75" NAME="?ClearPercent@UDFStateHandler@@QAEXXZ" PURGE="0" COMMENT="" />
    <EXPORT ORDINAL="76" NAME="?Convert2kToMode2Form1@@YAHQBEQAEIPBE@Z" PURGE="0" COMMENT="" />
    <EXPORT ORDINAL="77" NAME="?Convert2kToMode2Form1With2332@@YAHQBEQAEPBE@Z" PURGE="0" COMMENT="" />
    <EXPORT ORDINAL="78" NAME="?Convert2kToMode2Form1With2336@@YAHQBEQAEPBE@Z" PURGE="0" COMMENT="" />
    <EXPORT ORDINAL="79" NAME="?ConvertMode2_2336_to_2352@@YAHQAEPBUSectHeaderMSF@@0@Z" PURGE="0" COMMENT="" />
    <EXPORT ORDINAL="80" NAME="?ConvertPackedToRawSubChannel@@YAXPAE00H@Z" PURGE="0" COMMENT="" />
    <EXPORT ORDINAL="81" NAME="?CreateDirectoryA@UDF_FSReader@@QAE?AW4NeroFSError@@PAVUDF_FileEntry@@PBGAAPAVCUDF_BasicFileEntry@UDFImporterLowlevelStructures@@AAPAVCUDF_FileIdentifierDescriptor@5@@Z" PURGE="16" COMMENT="" />
    <EXPORT ORDINAL="82" NAME="?CreateDirectoryFID@UDF_FSReader@@IAEPAVCUDF_FileIdentifierDescriptor@UDFImporterLowlevelStructures@@PBG@Z" PURGE="4" COMMENT="" />
    <EXPORT ORDINAL="83" NAME="?CreateFileEntry@UDF_FSReader@@IAE?AW4NeroFSError@@_JEAAPAVCUDF_StandardFileEntry@UDFImporterLowlevelStructures@@AA_JAAV?$vector@UUDF_LONG_ALLOCATION_DESCRIPTOR@UDFImporterLowlevelStructures@@V?$allocator@UUDF_LONG_ALLOCATION_DESCRIPTOR@UDFImporterLowlevelStructures@@@std@@@std@@@Z" PURGE="24" COMMENT="" />
    <EXPORT ORDINAL="84" NAME="?CreateStatusMap@UDFDiskMap@@IAEX_J0@Z" PURGE="16" COMMENT="" />
    <EXPORT ORDINAL="85" NAME="?DeInitialize@CUDFFileSystemDriver@@IAEXXZ" PURGE="0" COMMENT="" />
    <EXPORT ORDINAL="86" NAME="?DestroyInstance@UDF_FSReader@@SAXPAV1@@Z" PURGE="0" COMMENT="" />
    <EXPORT ORDINAL="87" NAME="?Detach@CStateSubject@@UAEXPAVIStateObserver@@@Z" PURGE="4" COMMENT="" />
    <EXPORT ORDINAL="88" NAME="?DetachINode@UDF_FSReader@@QAEXPAVINode@@@Z" PURGE="4" COMMENT="" />
    <EXPORT ORDINAL="89" NAME="?DisableUpdate@UDFStateHandler@@QAEXXZ" PURGE="0" COMMENT="" />
    <EXPORT ORDINAL="90" NAME="?DumpDescriptor@UDF_FSReader@@QAEHAAUUDF_SectorWriteBuffer@@PAVCUDF_DescriptorTag@UDFImporterLowlevelStructures@@@Z" PURGE="8" COMMENT="" />
    <EXPORT ORDINAL="91" NAME="?DumpDirData@UDF_FSReader@@IAEHAAV?$vector@UUDF_SectorWriteBuffer@@V?$allocator@UUDF_SectorWriteBuffer@@@std@@@std@@PAVUDF_FileEntry@@PAVCUDF_FileIdentifierDescriptor@UDFImporterLowlevelStructures@@PAVUDF_Allocator@@@Z" PURGE="16" COMMENT="" />
    <EXPORT ORDINAL="92" NAME="?EnableUpdate@UDFStateHandler@@QAEXXZ" PURGE="0" COMMENT="" />
    <EXPORT ORDINAL="93" NAME="?ExtractPQDataFromRaw@@YAHPAUQDATAtag@@PAE@Z" PURGE="0" COMMENT="" />
    <EXPORT ORDINAL="94" NAME="?FindData@StateContainer@@IAEHPBDAAViterator@?$list@Ustatedata@@V?$allocator@Ustatedata@@@std@@@std@@@Z" PURGE="8" COMMENT="" />
    <EXPORT ORDINAL="95" NAME="?FindVATFileEntry@UDF_FSReader@@AAEPAVCUDF_BasicFileEntry@UDFImporterLowlevelStructures@@_J@Z" PURGE="8" COMMENT="" />
    <EXPORT ORDINAL="96" NAME="?FlushSectorCache@MountRainierBlockReadWriter@@UAEXXZ" PURGE="0" COMMENT="" />
    <EXPORT ORDINAL="97" NAME="?GenECCAndEDC_Mode1@@YAHQBEPBUSectHeaderMSF@@QAEW4SECT_TYPE@@@Z" PURGE="0" COMMENT="" />
    <EXPORT ORDINAL="98" NAME="?GenECCAndEDC_Mode2Form1@@YAHQBEPBUSectHeaderMSF@@0QAEW4SECT_TYPE@@@Z" PURGE="0" COMMENT="" />
    <EXPORT ORDINAL="99" NAME="?GenECCAndEDC_Mode2Form2@@YAHQBEPBUSectHeaderMSF@@0QAEW4SECT_TYPE@@@Z" PURGE="0" COMMENT="" />
    <EXPORT ORDINAL="100" NAME="?GenEDC@@YAHPAEKPAV?$LittleEndian@K@@@Z" PURGE="0" COMMENT="" />
    <EXPORT ORDINAL="101" NAME="?GenEmptyAudio96Sector@@YAXPAEHEKH@Z" PURGE="0" COMMENT="" />
    <EXPORT ORDINAL="102" NAME="?GenRawEmptySector@@YAHQAEW4TRACKMODE@@KH@Z" PURGE="0" COMMENT="" />
    <EXPORT ORDINAL="103" NAME="?GetAVDP@CUDFFileSystemDriver@@IAEHXZ" PURGE="0" COMMENT="" />
    <EXPORT ORDINAL="104" NAME="?GetAt@UDFDiskMap@@UAEPAVCUDF_DescriptorTag@UDFImporterLowlevelStructures@@_J@Z" PURGE="8" COMMENT="" />
    <EXPORT ORDINAL="105" NAME="?GetBlockWriterType@MountRainierBlockReadWriter@@UAE?AW4InterfaceType@@XZ" PURGE="0" COMMENT="" />
    <EXPORT ORDINAL="106" NAME="?GetBool@StateContainer@@UAEHPBDAAH@Z" PURGE="8" COMMENT="" />
    <EXPORT ORDINAL="107" NAME="?GetBufferMode@UDF_FSReader@@QAEHXZ" PURGE="0" COMMENT="" />
    <EXPORT ORDINAL="108" NAME="?GetByte@StateContainer@@UAEHPBDAAE@Z" PURGE="8" COMMENT="" />
    <EXPORT ORDINAL="109" NAME="?GetCD_CRCTable@@YAPBKXZ" PURGE="0" COMMENT="" />
    <EXPORT ORDINAL="110" NAME="?GetData@StateContainer@@UAEHPBDIAAPAXAAI@Z" PURGE="16" COMMENT="" />
    <EXPORT ORDINAL="111" NAME="?GetDescriptorCount@UDFDiskMap@@UAEIXZ" PURGE="0" COMMENT="" />
    <EXPORT ORDINAL="112" NAME="?GetExtendedAllocDescTranslation@UDF_FSReader@@QAE_JABUUDF_EXTENDED_ALLOCATION_DESCRIPTOR@UDFImporterLowlevelStructures@@IAA_J@Z" PURGE="12" COMMENT="" />
    <EXPORT ORDINAL="113" NAME="?GetExtendedAllocDescTranslationCount@UDF_FSReader@@QAEIABUUDF_EXTENDED_ALLOCATION_DESCRIPTOR@UDFImporterLowlevelStructures@@@Z" PURGE="4" COMMENT="" />
    <EXPORT ORDINAL="114" NAME="?GetFileEntryCount@UDFDiskMap@@UAEIXZ" PURGE="0" COMMENT="" />
    <EXPORT ORDINAL="115" NAME="?GetFileExtension@MountRainierBlockReadWriter@@UAEPAVINeroFileSystemBlockAccessExtension@@W4NeroFSBlockAccessExtensionsType@@@Z" PURGE="4" COMMENT="" />
    <EXPORT ORDINAL="116" NAME="?GetFileExtensionByNumber@MountRainierBlockReadWriter@@UAEPAVINeroFileSystemBlockAccessExtension@@H@Z" PURGE="4" COMMENT="" />
    <EXPORT ORDINAL="117" NAME="?GetFirstDescriptor@UDFDiskMap@@UAEPAVCUDF_DescriptorTag@UDFImporterLowlevelStructures@@AA_J@Z" PURGE="4" COMMENT="" />
    <EXPORT ORDINAL="118" NAME="?GetFirstDescriptorByType@UDFDiskMap@@UAEPAVCUDF_DescriptorTag@UDFImporterLowlevelStructures@@GAA_J@Z" PURGE="8" COMMENT="" />
    <EXPORT ORDINAL="119" NAME="?GetFirstFileEntry@UDFDiskMap@@UAEPAVCUDF_BasicFileEntry@UDFImporterLowlevelStructures@@AA_J@Z" PURGE="4" COMMENT="" />
    <EXPORT ORDINAL="120" NAME="?GetINode@UDF_FSReader@@QAEPAVINode@@PAVCUDF_BasicFileEntry@UDFImporterLowlevelStructures@@@Z" PURGE="4" COMMENT="" />
    <EXPORT ORDINAL="121" NAME="?GetINodeMap@UDF_FSReader@@QAEPAVINodeMap@@XZ" PURGE="0" COMMENT="" />
    <EXPORT ORDINAL="122" NAME="?GetInt64@StateContainer@@UAEHPBDAA_J@Z" PURGE="8" COMMENT="" />
    <EXPORT ORDINAL="123" NAME="?GetLogicalBlockSize@UDF_FSReader@@QAE_JXZ" PURGE="0" COMMENT="" />
    <EXPORT ORDINAL="124" NAME="?GetLongAllocDescTranslation@UDF_FSReader@@QAE_JABUUDF_LONG_ALLOCATION_DESCRIPTOR@UDFImporterLowlevelStructures@@IAA_J@Z" PURGE="12" COMMENT="" />
    <EXPORT ORDINAL="125" NAME="?GetLongAllocDescTranslationCount@UDF_FSReader@@QAEIABUUDF_LONG_ALLOCATION_DESCRIPTOR@UDFImporterLowlevelStructures@@@Z" PURGE="4" COMMENT="" />
    <EXPORT ORDINAL="126" NAME="?GetNextDescriptor@UDFDiskMap@@UAEPAVCUDF_DescriptorTag@UDFImporterLowlevelStructures@@AA_J@Z" PURGE="4" COMMENT="" />
    <EXPORT ORDINAL="127" NAME="?GetNextDescriptorByType@UDFDiskMap@@UAEPAVCUDF_DescriptorTag@UDFImporterLowlevelStructures@@GAA_J@Z" PURGE="8" COMMENT="" />
    <EXPORT ORDINAL="128" NAME="?GetNextFileEntry@UDFDiskMap@@UAEPAVCUDF_BasicFileEntry@UDFImporterLowlevelStructures@@AA_J@Z" PURGE="4" COMMENT="" />
    <EXPORT ORDINAL="129" NAME="?GetNumPartitions@MountRainierBlockReadWriter@@UAEHXZ" PURGE="-1" COMMENT="" />
    <EXPORT ORDINAL="130" NAME="?GetNumSparingTables@UDF_FSReader@@QAEIXZ" PURGE="0" COMMENT="" />
    <EXPORT ORDINAL="131" NAME="?GetNumSupportedExtensions@MountRainierBlockReadWriter@@UAEKXZ" PURGE="0" COMMENT="" />
    <EXPORT ORDINAL="132" NAME="?GetNumberOfVolumes@CUDFFileSystemDriver@@UAEHXZ" PURGE="0" COMMENT="" />
    <EXPORT ORDINAL="133" NAME="?GetOccupationMap@UDFDiskMap@@UAEPAEAA_J0@Z" PURGE="8" COMMENT="" />
    <EXPORT ORDINAL="134" NAME="?GetPartitionForSector@MountRainierBlockReadWriter@@UAEABUNeroFSPartitionInfo@@_J@Z" PURGE="8" COMMENT="" />
    <EXPORT ORDINAL="135" NAME="?GetPartitionInfo@MountRainierBlockReadWriter@@UAEABUNeroFSPartitionInfo@@H@Z" PURGE="4" COMMENT="" />
    <EXPORT ORDINAL="136" NAME="?GetPartitionLastSec@UDF_FSReader@@QAE_JXZ" PURGE="0" COMMENT="" />
    <EXPORT ORDINAL="137" NAME="?GetPartitionStartSec@UDF_FSReader@@QAE_JXZ" PURGE="0" COMMENT="" />
    <EXPORT ORDINAL="138" NAME="?GetPartitionType@UDF_FSReader@@QAE?AW4UDF_PARTITION_TYPE@UDFImporterLowlevelStructures@@G@Z" PURGE="4" COMMENT="" />
    <EXPORT ORDINAL="139" NAME="?GetPhysicalPartitionDescriptor@UDF_FSReader@@QAEPAVCUDF_PartitionDescriptor@UDFImporterLowlevelStructures@@XZ" PURGE="0" COMMENT="" />
    <EXPORT ORDINAL="140" NAME="?GetPhysicalPartitionDescriptorIndex@UDF_FSReader@@QAEHXZ" PURGE="0" COMMENT="" />
    <EXPORT ORDINAL="141" NAME="?GetPointer@StateContainer@@UAEHPBDAAPAX@Z" PURGE="8" COMMENT="" />
    <EXPORT ORDINAL="142" NAME="?GetPreferredPartition@UDF_FSReader@@QAEGXZ" PURGE="0" COMMENT="" />
    <EXPORT ORDINAL="143" NAME="?GetPreviousDescriptor@UDFDiskMap@@UAEPAVCUDF_DescriptorTag@UDFImporterLowlevelStructures@@AA_J@Z" PURGE="4" COMMENT="" />
    <EXPORT ORDINAL="144" NAME="?GetPreviousDescriptorByType@UDFDiskMap@@UAEPAVCUDF_DescriptorTag@UDFImporterLowlevelStructures@@GAA_J@Z" PURGE="8" COMMENT="" />
    <EXPORT ORDINAL="145" NAME="?GetSectorAllocator@UDF_FSReader@@QAEPAVSectorAllocator@@XZ" PURGE="0" COMMENT="" />
    <EXPORT ORDINAL="146" NAME="?GetShortAllocDescTranslation@UDF_FSReader@@QAE_JABUUDF_SHORT_ALLOCATION_DESCRIPTOR@UDFImporterLowlevelStructures@@IAA_J@Z" PURGE="12" COMMENT="" />
    <EXPORT ORDINAL="147" NAME="?GetShortAllocDescTranslationCount@UDF_FSReader@@QAEIABUUDF_SHORT_ALLOCATION_DESCRIPTOR@UDFImporterLowlevelStructures@@@Z" PURGE="4" COMMENT="" />
    <EXPORT ORDINAL="148" NAME="?GetSparingTableDetails@UDF_FSReader@@QAE?AW4NeroFSError@@IAA_J00@Z" PURGE="16" COMMENT="" />
    <EXPORT ORDINAL="149" NAME="?GetState@UDFState@@UAEXAAPAVIStateContainer@@@Z" PURGE="4" COMMENT="" />
    <EXPORT ORDINAL="150" NAME="?GetStateHandler@UDFStateHandler@@QAEPAVIStateHandler@@XZ" PURGE="0" COMMENT="" />
    <EXPORT ORDINAL="151" NAME="?GetStatusMap@UDFDiskMap@@UAEPAEAA_J0@Z" PURGE="8" COMMENT="" />
    <EXPORT ORDINAL="152" NAME="?GetString@StateContainer@@UAEHPBDAAVINeroFileSystemString@@@Z" PURGE="8" COMMENT="" />
    <EXPORT ORDINAL="153" NAME="?GetStringContent@CNeroFileSystemString@@UBEPBDXZ" PURGE="0" COMMENT="" />
    <EXPORT ORDINAL="154" NAME="?GetUint16@StateContainer@@UAEHPBDAAG@Z" PURGE="8" COMMENT="" />
    <EXPORT ORDINAL="155" NAME="?GetUint32@StateContainer@@UAEHPBDAAI@Z" PURGE="8" COMMENT="" />
    <EXPORT ORDINAL="156" NAME="?GetUniqueID@UDF_FSReader@@IAE_KXZ" PURGE="0" COMMENT="" />
    <EXPORT ORDINAL="157" NAME="?GetVATFileEntry@UDF_FSReader@@QAEHAAPAVCUDF_BasicFileEntry@UDFImporterLowlevelStructures@@@Z" PURGE="4" COMMENT="" />
    <EXPORT ORDINAL="158" NAME="?GetVATFileEntryLocation@UDF_FSReader@@QAE_JXZ" PURGE="0" COMMENT="" />
    <EXPORT ORDINAL="159" NAME="?GetValidLVID@UDF_FSReader@@IAE?AW4NeroFSError@@AAPAVCUDF_LogicalVolumeIntegrityDescriptor@UDFImporterLowlevelStructures@@@Z" PURGE="4" COMMENT="" />
    <EXPORT ORDINAL="160" NAME="?GetValidSparingTable@UDF_FSReader@@QAEPAVCUDF_SparingTableLayout@UDFImporterLowlevelStructures@@XZ" PURGE="0" COMMENT="" />
    <EXPORT ORDINAL="161" NAME="?GetVolume@CUDFFileSystemDriver@@UAEPAVINeroFileSystemVolume@@H@Z" PURGE="4" COMMENT="" />
    <EXPORT ORDINAL="162" NAME="?GetVolumeDescriptorSequencePtr@UDF_FSReader@@QAEPAVUDF_VolumeDescriptorSequence@@XZ" PURGE="0" COMMENT="" />
    <EXPORT ORDINAL="163" NAME="?GetWideStringContent@CNeroFileSystemString@@UBEPBGXZ" PURGE="0" COMMENT="" />
    <EXPORT ORDINAL="164" NAME="?IdentifyTrack@@YA?AW4TrackModeType@@QBE@Z" PURGE="0" COMMENT="" />
    <EXPORT ORDINAL="165" NAME="?IdentifyTrackFor2336@@YA?AW4TrackModeType@@QBE@Z" PURGE="0" COMMENT="" />
    <EXPORT ORDINAL="166" NAME="?InitWriteSupport@UDF_FSReader@@IAE?AW4NeroFSError@@XZ" PURGE="0" COMMENT="" />
    <EXPORT ORDINAL="167" NAME="?Initialize@CUDFFileSystemDriver@@IAEXXZ" PURGE="0" COMMENT="" />
    <EXPORT ORDINAL="168" NAME="?Initialize@MountRainierBlockReadWriter@@IAEHPAVINeroFileSystemBlockReader@@H@Z" PURGE="8" COMMENT="" />
    <EXPORT ORDINAL="169" NAME="?Instance@UDFStateHandler@@SAPAV1@XZ" PURGE="0" COMMENT="" />
    <EXPORT ORDINAL="170" NAME="?Instance@UDF_FSReader@@SAPAV1@PAVINeroFileSystemBlockAccess@@HPAVUDF_VolumeDescriptorSequence@@@Z" PURGE="0" COMMENT="" />
    <EXPORT ORDINAL="171" NAME="?IsWriteable@UDF_FSReader@@QAEHXZ" PURGE="0" COMMENT="" />
    <EXPORT ORDINAL="172" NAME="?LogicalBlock2Sector@UDF_FSReader@@QAE?AW4NeroFSError@@IG_JAA_J@Z" PURGE="20" COMMENT="" />
    <EXPORT ORDINAL="173" NAME="?MRWCheck@CUDFFileSystemDriver@@IAEHXZ" PURGE="0" COMMENT="" />
    <EXPORT ORDINAL="174" NAME="?MarkBadSector@UDFDiskMap@@IAEX_J@Z" PURGE="8" COMMENT="" />
    <EXPORT ORDINAL="175" NAME="?MarkOccupationSector@UDFDiskMap@@UAEX_J@Z" PURGE="8" COMMENT="" />
    <EXPORT ORDINAL="176" NAME="?MergePQ16WithRWRaw@@YAXPAE0PBE@Z" PURGE="0" COMMENT="" />
    <EXPORT ORDINAL="177" NAME="?NormalizeRawSector@@YAHPAEK@Z" PURGE="0" COMMENT="" />
    <EXPORT ORDINAL="178" NAME="?Notify@CStateSubject@@UAEXXZ" PURGE="0" COMMENT="" />
    <EXPORT ORDINAL="179" NAME="?PrintToStream@StateContainer@@QAEXAAV?$basic_ostream@DU?$char_traits@D@std@@@std@@@Z" PURGE="4" COMMENT="" />
    <EXPORT ORDINAL="180" NAME="?ReLoadStructures@CUDFFileSystemDriver@@UAEXXZ" PURGE="0" COMMENT="" />
    <EXPORT ORDINAL="181" NAME="?ReadExtendedAllocDesc@UDF_FSReader@@QAE?AW4NeroFSError@@ABUUDF_EXTENDED_ALLOCATION_DESCRIPTOR@UDFImporterLowlevelStructures@@AAPAEAA_J@Z" PURGE="12" COMMENT="" />
    <EXPORT ORDINAL="182" NAME="?ReadLongAllocDesc@UDF_FSReader@@QAE?AW4NeroFSError@@ABUUDF_LONG_ALLOCATION_DESCRIPTOR@UDFImporterLowlevelStructures@@AAPAEAA_J@Z" PURGE="12" COMMENT="" />
    <EXPORT ORDINAL="183" NAME="?ReadSectors@UDF_FSReader@@QAE?AW4NeroFSError@@AAV?$vector@_JV?$allocator@_J@std@@@std@@AAPAEAA_J@Z" PURGE="12" COMMENT="" />
    <EXPORT ORDINAL="184" NAME="?ReadSectorsBuffered@MountRainierBlockReadWriter@@UAE?AW4NeroFSError@@PAX_J1AA_J@Z" PURGE="24" COMMENT="" />
    <EXPORT ORDINAL="185" NAME="?ReadSectorsUnBuffered@MountRainierBlockReadWriter@@UAE?AW4NeroFSError@@PAX_J1AA_J@Z" PURGE="24" COMMENT="" />
    <EXPORT ORDINAL="186" NAME="?ReadShortAllocDesc@UDF_FSReader@@QAE?AW4NeroFSError@@ABUUDF_SHORT_ALLOCATION_DESCRIPTOR@UDFImporterLowlevelStructures@@AAPAEAA_J@Z" PURGE="12" COMMENT="" />
    <EXPORT ORDINAL="187" NAME="?ReadSparablePartitionTables@UDF_FSReader@@QAEHXZ" PURGE="0" COMMENT="" />
    <EXPORT ORDINAL="188" NAME="?ReadVAT@UDF_FSReader@@QAEHXZ" PURGE="0" COMMENT="" />
    <EXPORT ORDINAL="189" NAME="?RemoveEntry@StateContainer@@UAEHPBD@Z" PURGE="4" COMMENT="" />
    <EXPORT ORDINAL="190" NAME="?ReplaceBool@StateContainer@@UAEHPBDH@Z" PURGE="8" COMMENT="" />
    <EXPORT ORDINAL="191" NAME="?ReplaceByte@StateContainer@@UAEHPBDE@Z" PURGE="8" COMMENT="" />
    <EXPORT ORDINAL="192" NAME="?ReplaceData@StateContainer@@UAEHPBDIPAXI@Z" PURGE="16" COMMENT="" />
    <EXPORT ORDINAL="193" NAME="?ReplaceInt64@StateContainer@@UAEHPBD_J@Z" PURGE="12" COMMENT="" />
    <EXPORT ORDINAL="194" NAME="?ReplacePointer@StateContainer@@UAEHPBDPAX@Z" PURGE="8" COMMENT="" />
    <EXPORT ORDINAL="195" NAME="?ReplaceString@StateContainer@@UAEHPBDABVINeroFileSystemString@@@Z" PURGE="8" COMMENT="" />
    <EXPORT ORDINAL="196" NAME="?ReplaceUint16@StateContainer@@UAEHPBDG@Z" PURGE="8" COMMENT="" />
    <EXPORT ORDINAL="197" NAME="?ReplaceUint32@StateContainer@@UAEHPBDI@Z" PURGE="8" COMMENT="" />
    <EXPORT ORDINAL="198" NAME="?ScanMedium@UDFDiskMap@@UAEH_J0@Z" PURGE="16" COMMENT="" />
    <EXPORT ORDINAL="199" NAME="?ScrambleSector@@YAXQAE@Z" PURGE="0" COMMENT="" />
    <EXPORT ORDINAL="200" NAME="?SectorIsReadable@UDFDiskMap@@UAEH_J@Z" PURGE="8" COMMENT="" />
    <EXPORT ORDINAL="201" NAME="?SectorsPerLogicalBlock@UDF_FSReader@@QAE_JXZ" PURGE="0" COMMENT="" />
    <EXPORT ORDINAL="202" NAME="?SetAction@UDFStateHandler@@QAEXIV?$basic_string@DU?$char_traits@D@std@@V?$allocator@D@2@@std@@@Z" PURGE="20" COMMENT="" />
    <EXPORT ORDINAL="203" NAME="?SetBufferMode@UDF_FSReader@@QAEHH@Z" PURGE="4" COMMENT="" />
    <EXPORT ORDINAL="204" NAME="?SetCurrentSector@UDFStateHandler@@QAEX_J@Z" PURGE="8" COMMENT="" />
    <EXPORT ORDINAL="205" NAME="?SetCurrentSectorCount@UDFStateHandler@@QAEX_J@Z" PURGE="8" COMMENT="" />
    <EXPORT ORDINAL="206" NAME="?SetError@UDFStateHandler@@QAEXIV?$basic_string@DU?$char_traits@D@std@@V?$allocator@D@2@@std@@@Z" PURGE="20" COMMENT="" />
    <EXPORT ORDINAL="207" NAME="?SetInformation@UDFStateHandler@@QAEXV?$basic_string@DU?$char_traits@D@std@@V?$allocator@D@2@@std@@@Z" PURGE="16" COMMENT="" />
    <EXPORT ORDINAL="208" NAME="?SetParentLocation@UDF_FSReader@@IAE?AW4NeroFSError@@PAVCUDF_FileIdentifierDescriptor@UDFImporterLowlevelStructures@@PAVCUDF_BasicFileEntry@4@@Z" PURGE="8" COMMENT="" />
    <EXPORT ORDINAL="209" NAME="?SetPercentCompleted@UDFStateHandler@@QAEXI@Z" PURGE="4" COMMENT="" />
    <EXPORT ORDINAL="210" NAME="?SetPercentLimits@UDFStateHandler@@QAEXII@Z" PURGE="8" COMMENT="" />
    <EXPORT ORDINAL="211" NAME="?SetPercentValue@UDFStateHandler@@QAEXI@Z" PURGE="4" COMMENT="" />
    <EXPORT ORDINAL="212" NAME="?SetProgressObject@UDFDiskMap@@UAEXPAVIProcessProgress@@@Z" PURGE="4" COMMENT="" />
    <EXPORT ORDINAL="213" NAME="?SetSectorLimits@UDFStateHandler@@QAEX_J0@Z" PURGE="16" COMMENT="" />
    <EXPORT ORDINAL="214" NAME="?SetState@UDFState@@UAEXPAVIStateContainer@@@Z" PURGE="4" COMMENT="" />
    <EXPORT ORDINAL="215" NAME="?SetStringContent@CNeroFileSystemString@@UAEXPBD@Z" PURGE="4" COMMENT="" />
    <EXPORT ORDINAL="216" NAME="?SetStringContent@CNeroFileSystemString@@UAEXPBG@Z" PURGE="4" COMMENT="" />
    <EXPORT ORDINAL="217" NAME="?TranslateExtendedAllocDesc@UDF_FSReader@@QAEXABUUDF_EXTENDED_ALLOCATION_DESCRIPTOR@UDFImporterLowlevelStructures@@AAV?$vector@_JV?$allocator@_J@std@@@std@@AA_J@Z" PURGE="12" COMMENT="" />
    <EXPORT ORDINAL="218" NAME="?TranslateLongAllocDesc@UDF_FSReader@@QAEXABUUDF_LONG_ALLOCATION_DESCRIPTOR@UDFImporterLowlevelStructures@@AAV?$vector@_JV?$allocator@_J@std@@@std@@AA_J@Z" PURGE="12" COMMENT="" />
    <EXPORT ORDINAL="219" NAME="?TranslateSector@UDF_FSReader@@QAE_J_JV?$LittleEndian@G@@@Z" PURGE="12" COMMENT="" />
    <EXPORT ORDINAL="220" NAME="?TranslateShortAllocDesc@UDF_FSReader@@QAEXABUUDF_SHORT_ALLOCATION_DESCRIPTOR@UDFImporterLowlevelStructures@@AAV?$vector@_JV?$allocator@_J@std@@@std@@AA_J@Z" PURGE="12" COMMENT="" />
    <EXPORT ORDINAL="221" NAME="?UpdateIfNecessary@UDFStateHandler@@QAEXXZ" PURGE="0" COMMENT="" />
    <EXPORT ORDINAL="222" NAME="?WordSwap2352@@YAXPAE@Z" PURGE="0" COMMENT="" />
    <EXPORT ORDINAL="223" NAME="?WriteBuffersToDisk@UDF_FSReader@@QAE?AW4NeroFSError@@AAV?$vector@UUDF_SectorWriteBuffer@@V?$allocator@UUDF_SectorWriteBuffer@@@std@@@std@@@Z" PURGE="4" COMMENT="" />
    <EXPORT ORDINAL="224" NAME="?WriteSectorsBuffered@MountRainierBlockReadWriter@@UAE?AW4NeroFSError@@PBX_J1AA_J@Z" PURGE="24" COMMENT="" />
    <EXPORT ORDINAL="225" NAME="?WriteSectorsUnBuffered@MountRainierBlockReadWriter@@UAE?AW4NeroFSError@@PBX_J1AA_J@Z" PURGE="24" COMMENT="" />
    <EXPORT ORDINAL="226" NAME="?getReader@MountRainierBlockReadWriter@@IAEPAVINeroFileSystemBlockReader@@XZ" PURGE="0" COMMENT="" />
    <EXPORT ORDINAL="227" NAME="?m_StateHandler@UDFStateHandler@@0PAV1@A" PURGE="-1" COMMENT="" />
    <EXPORT ORDINAL="228" NAME="?m_pInstanceMap@UDF_FSReader@@0V?$CDynArray@PAVUDF_FSReader@@@@A" PURGE="-1" COMMENT="" />
    <EXPORT ORDINAL="229" NAME="?readSectorsRaw@MountRainierBlockReadWriter@@IAE?AW4NeroFSError@@PAX_J1AA_J_N@Z" PURGE="28" COMMENT="" />
    <EXPORT ORDINAL="230" NAME="?repairSIP@MountRainierBlockReadWriter@@IAEHXZ" PURGE="0" COMMENT="" />
    <EXPORT ORDINAL="231" NAME="CompressUnicode" PURGE="0" COMMENT="" />
    <EXPORT ORDINAL="232" NAME="NERO_PLUGIN_GetInterfaceVersion" PURGE="0" COMMENT="" />
    <EXPORT ORDINAL="233" NAME="NERO_PLUGIN_GetPluginName" PURGE="0" COMMENT="" />
    <EXPORT ORDINAL="234" NAME="NERO_PLUGIN_GetPluginType" PURGE="0" COMMENT="" />
    <EXPORT ORDINAL="235" NAME="NERO_PLUGIN_GetVersion" PURGE="0" COMMENT="" />
    <EXPORT ORDINAL="236" NAME="NERO_PLUGIN_SetInterfaceVersion" PURGE="0" COMMENT="" />
    <EXPORT ORDINAL="237" NAME="NERO_PLUGIN_SetVendorInformations" PURGE="0" COMMENT="" />
    <EXPORT ORDINAL="238" NAME="NeroFileSystemDriver_Create" PURGE="0" COMMENT="" />
    <EXPORT ORDINAL="239" NAME="UDFDateTime2Nero" PURGE="0" COMMENT="" />
    <EXPORT ORDINAL="240" NAME="UDFTransName" PURGE="0" COMMENT="" />
    <EXPORT ORDINAL="241" NAME="UncompressUnicode" PURGE="0" COMMENT="" />
</LIBRARY>

