<?xml version="1.0" encoding="UTF-8"?>
<LIBRARY NAME="ufcore.dll" PATH="/DLLArchive/etc/UFCore.dll" DATE="Fri Jul 03 13:24:31 PDT 2020" VERSION="1.2.0.15090">
    <EXPORT ORDINAL="1" NAME="??0CUFAnimation@@QAE@PAVCUFElement@@I@Z" PURGE="8" COMMENT="" />
    <EXPORT ORDINAL="2" NAME="??0CUFAnimationManager@@QAE@XZ" PURGE="0" COMMENT="" />
    <EXPORT ORDINAL="3" NAME="??0CUFApplication@@QAE@ABV0@@Z" PURGE="4" COMMENT="" />
    <EXPORT ORDINAL="4" NAME="??0CUFApplication@@QAE@XZ" PURGE="0" COMMENT="" />
    <EXPORT ORDINAL="5" NAME="??0CUFBackImage@@QAE@ABV0@@Z" PURGE="4" COMMENT="" />
    <EXPORT ORDINAL="6" NAME="??0CUFBackImage@@QAE@XZ" PURGE="0" COMMENT="" />
    <EXPORT ORDINAL="7" NAME="??0CUFBrush@@QAE@XZ" PURGE="0" COMMENT="" />
    <EXPORT ORDINAL="8" NAME="??0CUFButton@@QAE@XZ" PURGE="0" COMMENT="" />
    <EXPORT ORDINAL="9" NAME="??0CUFButtonBase@@QAE@XZ" PURGE="0" COMMENT="" />
    <EXPORT ORDINAL="10" NAME="??0CUFButtonDecoration@@QAE@XZ" PURGE="0" COMMENT="" />
    <EXPORT ORDINAL="11" NAME="??0CUFCanvas@@QAE@XZ" PURGE="0" COMMENT="" />
    <EXPORT ORDINAL="12" NAME="??0CUFCheckBox@@QAE@XZ" PURGE="0" COMMENT="" />
    <EXPORT ORDINAL="13" NAME="??0CUFChildWnd@@QAE@XZ" PURGE="0" COMMENT="" />
    <EXPORT ORDINAL="14" NAME="??0CUFComboBox@@QAE@_N@Z" PURGE="4" COMMENT="" />
    <EXPORT ORDINAL="15" NAME="??0CUFComboBoxDropDown@@QAE@PAVCUFElement@@_N1@Z" PURGE="12" COMMENT="" />
    <EXPORT ORDINAL="16" NAME="??0CUFComboBoxItem@@QAE@XZ" PURGE="0" COMMENT="" />
    <EXPORT ORDINAL="17" NAME="??0CUFContentControl@@QAE@XZ" PURGE="0" COMMENT="" />
    <EXPORT ORDINAL="18" NAME="??0CUFControl@@QAE@XZ" PURGE="0" COMMENT="" />
    <EXPORT ORDINAL="19" NAME="??0CUFD2D3DEffect@@QAE@XZ" PURGE="0" COMMENT="" />
    <EXPORT ORDINAL="20" NAME="??0CUFD2D3DEffectResource@@AAE@XZ" PURGE="0" COMMENT="" />
    <EXPORT ORDINAL="21" NAME="??0CUFD2D3DEffectResource@@QAE@ABV0@@Z" PURGE="4" COMMENT="" />
    <EXPORT ORDINAL="22" NAME="??0CUFD2DDcRenderAdapter@@AAE@XZ" PURGE="0" COMMENT="" />
    <EXPORT ORDINAL="23" NAME="??0CUFD2DDcRenderAdapter@@QAE@ABV0@@Z" PURGE="4" COMMENT="" />
    <EXPORT ORDINAL="24" NAME="??0CUFD2DDevice@@QAE@ABV0@@Z" PURGE="4" COMMENT="" />
    <EXPORT ORDINAL="25" NAME="??0CUFD2DDevice@@QAE@J@Z" PURGE="4" COMMENT="" />
    <EXPORT ORDINAL="26" NAME="??0CUFD2DDeviceDc@@QAE@ABV0@@Z" PURGE="4" COMMENT="" />
    <EXPORT ORDINAL="27" NAME="??0CUFD2DDeviceDc@@QAE@J@Z" PURGE="4" COMMENT="" />
    <EXPORT ORDINAL="28" NAME="??0CUFD2DDeviceDxgi@@QAE@J@Z" PURGE="4" COMMENT="" />
    <EXPORT ORDINAL="29" NAME="??0CUFD2DDeviceHwnd@@QAE@ABV0@@Z" PURGE="4" COMMENT="" />
    <EXPORT ORDINAL="30" NAME="??0CUFD2DDeviceHwnd@@QAE@J@Z" PURGE="4" COMMENT="" />
    <EXPORT ORDINAL="31" NAME="??0CUFD2DDxgiRenderAdapter@@AAE@XZ" PURGE="0" COMMENT="" />
    <EXPORT ORDINAL="32" NAME="??0CUFD2DDxgiRenderAdapter@@QAE@ABV0@@Z" PURGE="4" COMMENT="" />
    <EXPORT ORDINAL="33" NAME="??0CUFD2DHwndRenderAdapter@@AAE@XZ" PURGE="0" COMMENT="" />
    <EXPORT ORDINAL="34" NAME="??0CUFD2DHwndRenderAdapter@@QAE@ABV0@@Z" PURGE="4" COMMENT="" />
    <EXPORT ORDINAL="35" NAME="??0CUFD2DMetaProperty@@QAE@ABV0@@Z" PURGE="4" COMMENT="" />
    <EXPORT ORDINAL="36" NAME="??0CUFD2DMetaProperty@@QAE@XZ" PURGE="0" COMMENT="" />
    <EXPORT ORDINAL="37" NAME="??0CUFD2DTextureManager@@QAE@ABV0@@Z" PURGE="4" COMMENT="" />
    <EXPORT ORDINAL="38" NAME="??0CUFD2DTextureManager@@QAE@XZ" PURGE="0" COMMENT="" />
    <EXPORT ORDINAL="39" NAME="??0CUFD2DThreadTextureManager@@QAE@ABV0@@Z" PURGE="4" COMMENT="" />
    <EXPORT ORDINAL="40" NAME="??0CUFD2DThreadTextureManager@@QAE@XZ" PURGE="0" COMMENT="" />
    <EXPORT ORDINAL="41" NAME="??0CUFDLSliderBar@@QAE@_N@Z" PURGE="4" COMMENT="" />
    <EXPORT ORDINAL="42" NAME="??0CUFDWriteFont@@AAE@PBUtagUFFONTPARAMETER_t@@@Z" PURGE="4" COMMENT="" />
    <EXPORT ORDINAL="43" NAME="??0CUFDWriteText@@QAE@PAVCUFText@@@Z" PURGE="4" COMMENT="" />
    <EXPORT ORDINAL="44" NAME="??0CUFDecorateButton@@QAE@XZ" PURGE="0" COMMENT="" />
    <EXPORT ORDINAL="45" NAME="??0CUFDx10Device@@QAE@J@Z" PURGE="4" COMMENT="" />
    <EXPORT ORDINAL="46" NAME="??0CUFDx10MetaProperty@@QAE@ABV0@@Z" PURGE="4" COMMENT="" />
    <EXPORT ORDINAL="47" NAME="??0CUFDx10MetaProperty@@QAE@XZ" PURGE="0" COMMENT="" />
    <EXPORT ORDINAL="48" NAME="??0CUFDx10TexRVManager@@QAE@XZ" PURGE="0" COMMENT="" />
    <EXPORT ORDINAL="49" NAME="??0CUFDx9Text@@QAE@PAVCUFText@@@Z" PURGE="4" COMMENT="" />
    <EXPORT ORDINAL="50" NAME="??0CUFDxDevice@@QAE@J@Z" PURGE="4" COMMENT="" />
    <EXPORT ORDINAL="51" NAME="??0CUFDxFont@@AAE@PBUtagUFFONTPARAMETER_t@@@Z" PURGE="4" COMMENT="" />
    <EXPORT ORDINAL="52" NAME="??0CUFDxMetaProperty@@QAE@XZ" PURGE="0" COMMENT="" />
    <EXPORT ORDINAL="53" NAME="??0CUFDxSound@@QAE@PAVCUFSound@@@Z" PURGE="4" COMMENT="" />
    <EXPORT ORDINAL="54" NAME="??0CUFDxTextureManager@@QAE@ABV0@@Z" PURGE="4" COMMENT="" />
    <EXPORT ORDINAL="55" NAME="??0CUFDxTextureManager@@QAE@XZ" PURGE="0" COMMENT="" />
    <EXPORT ORDINAL="56" NAME="??0CUFEditText@@QAE@XZ" PURGE="0" COMMENT="" />
    <EXPORT ORDINAL="57" NAME="??0CUFElement@@QAE@XZ" PURGE="0" COMMENT="" />
    <EXPORT ORDINAL="58" NAME="??0CUFEllipse@@QAE@XZ" PURGE="0" COMMENT="" />
    <EXPORT ORDINAL="59" NAME="??0CUFEllipseMeta@@QAE@ABUtagUFRECTF_t@@K@Z" PURGE="8" COMMENT="" />
    <EXPORT ORDINAL="60" NAME="??0CUFEllipseMeta@@QAE@XZ" PURGE="0" COMMENT="" />
    <EXPORT ORDINAL="61" NAME="??0CUFEmptyDeviceWnd@@QAE@W4enumUFCHILDWNDTYPE@@@Z" PURGE="4" COMMENT="" />
    <EXPORT ORDINAL="62" NAME="??0CUFEventManager@@IAE@XZ" PURGE="0" COMMENT="" />
    <EXPORT ORDINAL="63" NAME="??0CUFEventTarget@@QAE@ABV0@@Z" PURGE="4" COMMENT="" />
    <EXPORT ORDINAL="64" NAME="??0CUFEventTarget@@QAE@XZ" PURGE="0" COMMENT="" />
    <EXPORT ORDINAL="65" NAME="??0CUFFontStyle@@QAE@XZ" PURGE="0" COMMENT="" />
    <EXPORT ORDINAL="66" NAME="??0CUFGroupButton@@QAE@ABV0@@Z" PURGE="4" COMMENT="" />
    <EXPORT ORDINAL="67" NAME="??0CUFGroupButton@@QAE@XZ" PURGE="0" COMMENT="" />
    <EXPORT ORDINAL="68" NAME="??0CUFHFPicContainer@@QAE@XZ" PURGE="0" COMMENT="" />
    <EXPORT ORDINAL="69" NAME="??0CUFImage@@QAE@XZ" PURGE="0" COMMENT="" />
    <EXPORT ORDINAL="70" NAME="??0CUFImageMeta@@QAE@UtagUFRECTF_t@@V?$basic_string@_WU?$char_traits@_W@std@@V?$allocator@_W@2@@std@@@Z" PURGE="44" COMMENT="" />
    <EXPORT ORDINAL="71" NAME="??0CUFImageMeta@@QAE@XZ" PURGE="0" COMMENT="" />
    <EXPORT ORDINAL="72" NAME="??0CUFItemControl@@QAE@XZ" PURGE="0" COMMENT="" />
    <EXPORT ORDINAL="73" NAME="??0CUFItemsControl@@QAE@XZ" PURGE="0" COMMENT="" />
    <EXPORT ORDINAL="74" NAME="??0CUFKeyFrame@@QAE@ABV0@@Z" PURGE="4" COMMENT="" />
    <EXPORT ORDINAL="75" NAME="??0CUFKeyFrame@@QAE@MJ@Z" PURGE="8" COMMENT="" />
    <EXPORT ORDINAL="76" NAME="??0CUFKeyFrame@@QAE@XZ" PURGE="0" COMMENT="" />
    <EXPORT ORDINAL="77" NAME="??0CUFLabel@@QAE@XZ" PURGE="0" COMMENT="" />
    <EXPORT ORDINAL="78" NAME="??0CUFLayer@@QAE@MM@Z" PURGE="8" COMMENT="" />
    <EXPORT ORDINAL="79" NAME="??0CUFLayerManager@@QAE@XZ" PURGE="0" COMMENT="" />
    <EXPORT ORDINAL="80" NAME="??0CUFLine@@QAE@XZ" PURGE="0" COMMENT="" />
    <EXPORT ORDINAL="81" NAME="??0CUFLineMeta@@QAE@ABUtagUFCUSTOMVERTEX_t@@0@Z" PURGE="8" COMMENT="" />
    <EXPORT ORDINAL="82" NAME="??0CUFLineMeta@@QAE@XZ" PURGE="0" COMMENT="" />
    <EXPORT ORDINAL="83" NAME="??0CUFListBox@@QAE@_N@Z" PURGE="4" COMMENT="" />
    <EXPORT ORDINAL="84" NAME="??0CUFListBoxItem@@QAE@XZ" PURGE="0" COMMENT="" />
    <EXPORT ORDINAL="85" NAME="??0CUFLog@@AAE@XZ" PURGE="0" COMMENT="" />
    <EXPORT ORDINAL="86" NAME="??0CUFMenu@@QAE@XZ" PURGE="0" COMMENT="" />
    <EXPORT ORDINAL="87" NAME="??0CUFMenuItem@@QAE@PAUtagMENUITEMINFO_t@@@Z" PURGE="4" COMMENT="" />
    <EXPORT ORDINAL="88" NAME="??0CUFMenuPanel@@QAE@XZ" PURGE="0" COMMENT="" />
    <EXPORT ORDINAL="89" NAME="??0CUFMetaBase@@QAE@XZ" PURGE="0" COMMENT="" />
    <EXPORT ORDINAL="90" NAME="??0CUFOverlayButton@@QAE@XZ" PURGE="0" COMMENT="" />
    <EXPORT ORDINAL="91" NAME="??0CUFOverlayContainer@@QAE@XZ" PURGE="0" COMMENT="" />
    <EXPORT ORDINAL="92" NAME="??0CUFPanel@@QAE@XZ" PURGE="0" COMMENT="" />
    <EXPORT ORDINAL="93" NAME="??0CUFPen@@QAE@ABV0@@Z" PURGE="4" COMMENT="" />
    <EXPORT ORDINAL="94" NAME="??0CUFPen@@QAE@PAVIUFDevice@@@Z" PURGE="4" COMMENT="" />
    <EXPORT ORDINAL="95" NAME="??0CUFPopUPWCP@@QAE@XZ" PURGE="0" COMMENT="" />
    <EXPORT ORDINAL="96" NAME="??0CUFPopUp@@QAE@XZ" PURGE="0" COMMENT="" />
    <EXPORT ORDINAL="97" NAME="??0CUFProgressBar@@QAE@_N@Z" PURGE="4" COMMENT="" />
    <EXPORT ORDINAL="98" NAME="??0CUFRadioButton@@QAE@XZ" PURGE="0" COMMENT="" />
    <EXPORT ORDINAL="99" NAME="??0CUFRangeBase@@QAE@_N@Z" PURGE="4" COMMENT="" />
    <EXPORT ORDINAL="100" NAME="??0CUFRangeBaseStyle@@QAE@ABV0@@Z" PURGE="4" COMMENT="" />
    <EXPORT ORDINAL="101" NAME="??0CUFRangeBaseStyle@@QAE@XZ" PURGE="0" COMMENT="" />
    <EXPORT ORDINAL="102" NAME="??0CUFRectMeta@@QAE@XZ" PURGE="0" COMMENT="" />
    <EXPORT ORDINAL="103" NAME="??0CUFRectangle@@QAE@XZ" PURGE="0" COMMENT="" />
    <EXPORT ORDINAL="104" NAME="??0CUFRenderAdapter10@@AAE@XZ" PURGE="0" COMMENT="" />
    <EXPORT ORDINAL="105" NAME="??0CUFRenderAdapter10@@QAE@ABV0@@Z" PURGE="4" COMMENT="" />
    <EXPORT ORDINAL="106" NAME="??0CUFRenderAdapter9@@AAE@XZ" PURGE="0" COMMENT="" />
    <EXPORT ORDINAL="107" NAME="??0CUFRenderAdapter9@@QAE@ABV0@@Z" PURGE="4" COMMENT="" />
    <EXPORT ORDINAL="108" NAME="??0CUFRepeatButton@@QAE@XZ" PURGE="0" COMMENT="" />
    <EXPORT ORDINAL="109" NAME="??0CUFRgnRectMeta@@QAE@XZ" PURGE="0" COMMENT="" />
    <EXPORT ORDINAL="110" NAME="??0CUFScrollBar@@QAE@_N@Z" PURGE="4" COMMENT="" />
    <EXPORT ORDINAL="111" NAME="??0CUFScrollBarStyle@@QAE@ABV0@@Z" PURGE="4" COMMENT="" />
    <EXPORT ORDINAL="112" NAME="??0CUFScrollBarStyle@@QAE@XZ" PURGE="0" COMMENT="" />
    <EXPORT ORDINAL="113" NAME="??0CUFScrollViewer@@QAE@_N0@Z" PURGE="8" COMMENT="" />
    <EXPORT ORDINAL="114" NAME="??0CUFShape@@QAE@XZ" PURGE="0" COMMENT="" />
    <EXPORT ORDINAL="115" NAME="??0CUFSliderBar@@QAE@_N@Z" PURGE="4" COMMENT="" />
    <EXPORT ORDINAL="116" NAME="??0CUFSliderBarStyle@@QAE@ABV0@@Z" PURGE="4" COMMENT="" />
    <EXPORT ORDINAL="117" NAME="??0CUFSliderBarStyle@@QAE@XZ" PURGE="0" COMMENT="" />
    <EXPORT ORDINAL="118" NAME="??0CUFSound@@IAE@PAV0@@Z" PURGE="4" COMMENT="" />
    <EXPORT ORDINAL="119" NAME="??0CUFSound@@QAE@XZ" PURGE="0" COMMENT="" />
    <EXPORT ORDINAL="120" NAME="??0CUFStackPanel@@QAE@XZ" PURGE="0" COMMENT="" />
    <EXPORT ORDINAL="121" NAME="??0CUFStateButton@@QAE@XZ" PURGE="0" COMMENT="" />
    <EXPORT ORDINAL="122" NAME="??0CUFText@@IAE@PAV0@@Z" PURGE="4" COMMENT="" />
    <EXPORT ORDINAL="123" NAME="??0CUFText@@QAE@XZ" PURGE="0" COMMENT="" />
    <EXPORT ORDINAL="124" NAME="??0CUFTextMeta@@QAE@XZ" PURGE="0" COMMENT="" />
    <EXPORT ORDINAL="125" NAME="??0CUFThreadDX10TexManager@@QAE@ABV0@@Z" PURGE="4" COMMENT="" />
    <EXPORT ORDINAL="126" NAME="??0CUFThreadDX10TexManager@@QAE@XZ" PURGE="0" COMMENT="" />
    <EXPORT ORDINAL="127" NAME="??0CUFThreadDX9TexManager@@QAE@ABV0@@Z" PURGE="4" COMMENT="" />
    <EXPORT ORDINAL="128" NAME="??0CUFThreadDX9TexManager@@QAE@XZ" PURGE="0" COMMENT="" />
    <EXPORT ORDINAL="129" NAME="??0CUFThreadTextureManager@@QAE@ABV0@@Z" PURGE="4" COMMENT="" />
    <EXPORT ORDINAL="130" NAME="??0CUFThreadTextureManager@@QAE@XZ" PURGE="0" COMMENT="" />
    <EXPORT ORDINAL="131" NAME="??0CUFThumb@@QAE@XZ" PURGE="0" COMMENT="" />
    <EXPORT ORDINAL="132" NAME="??0CUFTimer@@QAE@ABV0@@Z" PURGE="4" COMMENT="" />
    <EXPORT ORDINAL="133" NAME="??0CUFTimer@@QAE@K@Z" PURGE="4" COMMENT="" />
    <EXPORT ORDINAL="134" NAME="??0CUFTimerManager@@IAE@XZ" PURGE="0" COMMENT="" />
    <EXPORT ORDINAL="135" NAME="??0CUFTimerManager@@QAE@ABV0@@Z" PURGE="4" COMMENT="" />
    <EXPORT ORDINAL="136" NAME="??0CUFToggleButton@@QAE@XZ" PURGE="0" COMMENT="" />
    <EXPORT ORDINAL="137" NAME="??0CUFToolTip@@QAE@XZ" PURGE="0" COMMENT="" />
    <EXPORT ORDINAL="138" NAME="??0CUFTriangle@@QAE@ABUtagUFCUSTOMVERTEX_t@@00@Z" PURGE="12" COMMENT="" />
    <EXPORT ORDINAL="139" NAME="??0CUFTriangleMeta@@QAE@ABUtagUFCUSTOMVERTEX_t@@00@Z" PURGE="12" COMMENT="" />
    <EXPORT ORDINAL="140" NAME="??0CUFWCPMenu@@QAE@_N@Z" PURGE="4" COMMENT="" />
    <EXPORT ORDINAL="141" NAME="??0CUFWin32AccelManager@@IAE@XZ" PURGE="0" COMMENT="" />
    <EXPORT ORDINAL="142" NAME="??0CUFWin32EventProcessor@@QAE@ABV0@@Z" PURGE="4" COMMENT="" />
    <EXPORT ORDINAL="143" NAME="??0CUFWin32EventProcessor@@QAE@XZ" PURGE="0" COMMENT="" />
    <EXPORT ORDINAL="144" NAME="??0CUFWin32Window@@QAE@HH@Z" PURGE="8" COMMENT="" />
    <EXPORT ORDINAL="145" NAME="??0CUFWinChildPanel@@QAE@XZ" PURGE="0" COMMENT="" />
    <EXPORT ORDINAL="146" NAME="??0CUFWinPopupPanel@@QAE@_N@Z" PURGE="4" COMMENT="" />
    <EXPORT ORDINAL="147" NAME="??0CUFWndPanel@@QAE@XZ" PURGE="0" COMMENT="" />
    <EXPORT ORDINAL="148" NAME="??0CUFWrapPanel@@QAE@XZ" PURGE="0" COMMENT="" />
    <EXPORT ORDINAL="149" NAME="??0IUFD2DRenderAdapter@@IAE@XZ" PURGE="0" COMMENT="" />
    <EXPORT ORDINAL="150" NAME="??0IUFD2DRenderAdapter@@QAE@ABV0@@Z" PURGE="4" COMMENT="" />
    <EXPORT ORDINAL="151" NAME="??0IUFDevice@@QAE@ABV0@@Z" PURGE="4" COMMENT="" />
    <EXPORT ORDINAL="152" NAME="??0IUFDevice@@QAE@XZ" PURGE="0" COMMENT="" />
    <EXPORT ORDINAL="153" NAME="??0IUFEventProcessor@@QAE@ABV0@@Z" PURGE="4" COMMENT="" />
    <EXPORT ORDINAL="154" NAME="??0IUFEventProcessor@@QAE@XZ" PURGE="0" COMMENT="" />
    <EXPORT ORDINAL="155" NAME="??0IUFFont@@QAE@ABV0@@Z" PURGE="4" COMMENT="" />
    <EXPORT ORDINAL="156" NAME="??0IUFFont@@QAE@XZ" PURGE="0" COMMENT="" />
    <EXPORT ORDINAL="157" NAME="??0IUFMetaProperty@@QAE@ABV0@@Z" PURGE="4" COMMENT="" />
    <EXPORT ORDINAL="158" NAME="??0IUFMetaProperty@@QAE@XZ" PURGE="0" COMMENT="" />
    <EXPORT ORDINAL="159" NAME="??0IUFRenderAdapter@@QAE@ABV0@@Z" PURGE="4" COMMENT="" />
    <EXPORT ORDINAL="160" NAME="??0IUFRenderAdapter@@QAE@XZ" PURGE="0" COMMENT="" />
    <EXPORT ORDINAL="161" NAME="??0IUFTextureManager@@QAE@ABV0@@Z" PURGE="4" COMMENT="" />
    <EXPORT ORDINAL="162" NAME="??0IUFTextureManager@@QAE@XZ" PURGE="0" COMMENT="" />
    <EXPORT ORDINAL="163" NAME="??0IUFWindow@@QAE@XZ" PURGE="0" COMMENT="" />
    <EXPORT ORDINAL="164" NAME="??0TOGGLEIMAGES@@QAE@XZ" PURGE="0" COMMENT="" />
    <EXPORT ORDINAL="165" NAME="??1CUFAnimation@@UAE@XZ" PURGE="0" COMMENT="" />
    <EXPORT ORDINAL="166" NAME="??1CUFAnimationManager@@UAE@XZ" PURGE="0" COMMENT="" />
    <EXPORT ORDINAL="167" NAME="??1CUFApplication@@UAE@XZ" PURGE="0" COMMENT="" />
    <EXPORT ORDINAL="168" NAME="??1CUFBackImage@@QAE@XZ" PURGE="0" COMMENT="" />
    <EXPORT ORDINAL="169" NAME="??1CUFBrush@@QAE@XZ" PURGE="0" COMMENT="" />
    <EXPORT ORDINAL="170" NAME="??1CUFButton@@UAE@XZ" PURGE="0" COMMENT="" />
    <EXPORT ORDINAL="171" NAME="??1CUFButtonBase@@UAE@XZ" PURGE="0" COMMENT="" />
    <EXPORT ORDINAL="172" NAME="??1CUFButtonDecoration@@UAE@XZ" PURGE="0" COMMENT="" />
    <EXPORT ORDINAL="173" NAME="??1CUFCanvas@@UAE@XZ" PURGE="0" COMMENT="" />
    <EXPORT ORDINAL="174" NAME="??1CUFCheckBox@@UAE@XZ" PURGE="0" COMMENT="" />
    <EXPORT ORDINAL="175" NAME="??1CUFChildWnd@@UAE@XZ" PURGE="0" COMMENT="" />
    <EXPORT ORDINAL="176" NAME="??1CUFComboBox@@UAE@XZ" PURGE="0" COMMENT="" />
    <EXPORT ORDINAL="177" NAME="??1CUFComboBoxDropDown@@UAE@XZ" PURGE="0" COMMENT="" />
    <EXPORT ORDINAL="178" NAME="??1CUFComboBoxItem@@UAE@XZ" PURGE="0" COMMENT="" />
    <EXPORT ORDINAL="179" NAME="??1CUFContentControl@@UAE@XZ" PURGE="0" COMMENT="" />
    <EXPORT ORDINAL="180" NAME="??1CUFControl@@UAE@XZ" PURGE="0" COMMENT="" />
    <EXPORT ORDINAL="181" NAME="??1CUFD2D3DEffect@@UAE@XZ" PURGE="0" COMMENT="" />
    <EXPORT ORDINAL="182" NAME="??1CUFD2D3DEffectResource@@UAE@XZ" PURGE="0" COMMENT="" />
    <EXPORT ORDINAL="183" NAME="??1CUFD2DDcRenderAdapter@@UAE@XZ" PURGE="0" COMMENT="" />
    <EXPORT ORDINAL="184" NAME="??1CUFD2DDevice@@UAE@XZ" PURGE="0" COMMENT="" />
    <EXPORT ORDINAL="185" NAME="??1CUFD2DDeviceDc@@UAE@XZ" PURGE="0" COMMENT="" />
    <EXPORT ORDINAL="186" NAME="??1CUFD2DDeviceDxgi@@UAE@XZ" PURGE="0" COMMENT="" />
    <EXPORT ORDINAL="187" NAME="??1CUFD2DDeviceHwnd@@UAE@XZ" PURGE="0" COMMENT="" />
    <EXPORT ORDINAL="188" NAME="??1CUFD2DDxgiRenderAdapter@@UAE@XZ" PURGE="0" COMMENT="" />
    <EXPORT ORDINAL="189" NAME="??1CUFD2DHwndRenderAdapter@@UAE@XZ" PURGE="0" COMMENT="" />
    <EXPORT ORDINAL="190" NAME="??1CUFD2DMetaProperty@@UAE@XZ" PURGE="0" COMMENT="" />
    <EXPORT ORDINAL="191" NAME="??1CUFD2DTextureManager@@UAE@XZ" PURGE="0" COMMENT="" />
    <EXPORT ORDINAL="192" NAME="??1CUFD2DThreadTextureManager@@UAE@XZ" PURGE="0" COMMENT="" />
    <EXPORT ORDINAL="193" NAME="??1CUFDLSliderBar@@UAE@XZ" PURGE="0" COMMENT="" />
    <EXPORT ORDINAL="194" NAME="??1CUFDWriteFont@@EAE@XZ" PURGE="0" COMMENT="" />
    <EXPORT ORDINAL="195" NAME="??1CUFDWriteText@@UAE@XZ" PURGE="0" COMMENT="" />
    <EXPORT ORDINAL="196" NAME="??1CUFDecorateButton@@UAE@XZ" PURGE="0" COMMENT="" />
    <EXPORT ORDINAL="197" NAME="??1CUFDx10Device@@UAE@XZ" PURGE="0" COMMENT="" />
    <EXPORT ORDINAL="198" NAME="??1CUFDx10MetaProperty@@UAE@XZ" PURGE="0" COMMENT="" />
    <EXPORT ORDINAL="199" NAME="??1CUFDx10TexRVManager@@UAE@XZ" PURGE="0" COMMENT="" />
    <EXPORT ORDINAL="200" NAME="??1CUFDx9Text@@UAE@XZ" PURGE="0" COMMENT="" />
    <EXPORT ORDINAL="201" NAME="??1CUFDxDevice@@UAE@XZ" PURGE="0" COMMENT="" />
    <EXPORT ORDINAL="202" NAME="??1CUFDxFont@@EAE@XZ" PURGE="0" COMMENT="" />
    <EXPORT ORDINAL="203" NAME="??1CUFDxMetaProperty@@UAE@XZ" PURGE="0" COMMENT="" />
    <EXPORT ORDINAL="204" NAME="??1CUFDxSound@@UAE@XZ" PURGE="0" COMMENT="" />
    <EXPORT ORDINAL="205" NAME="??1CUFDxTextureManager@@UAE@XZ" PURGE="0" COMMENT="" />
    <EXPORT ORDINAL="206" NAME="??1CUFEditText@@UAE@XZ" PURGE="0" COMMENT="" />
    <EXPORT ORDINAL="207" NAME="??1CUFElement@@UAE@XZ" PURGE="0" COMMENT="" />
    <EXPORT ORDINAL="208" NAME="??1CUFEllipse@@UAE@XZ" PURGE="0" COMMENT="" />
    <EXPORT ORDINAL="209" NAME="??1CUFEllipseMeta@@UAE@XZ" PURGE="0" COMMENT="" />
    <EXPORT ORDINAL="210" NAME="??1CUFEmptyDeviceWnd@@UAE@XZ" PURGE="0" COMMENT="" />
    <EXPORT ORDINAL="211" NAME="??1CUFEventManager@@IAE@XZ" PURGE="0" COMMENT="" />
    <EXPORT ORDINAL="212" NAME="??1CUFEventTarget@@UAE@XZ" PURGE="0" COMMENT="" />
    <EXPORT ORDINAL="213" NAME="??1CUFFontStyle@@QAE@XZ" PURGE="0" COMMENT="" />
    <EXPORT ORDINAL="214" NAME="??1CUFGroupButton@@QAE@XZ" PURGE="0" COMMENT="" />
    <EXPORT ORDINAL="215" NAME="??1CUFHFPicContainer@@UAE@XZ" PURGE="0" COMMENT="" />
    <EXPORT ORDINAL="216" NAME="??1CUFImage@@UAE@XZ" PURGE="0" COMMENT="" />
    <EXPORT ORDINAL="217" NAME="??1CUFImageMeta@@UAE@XZ" PURGE="0" COMMENT="" />
    <EXPORT ORDINAL="218" NAME="??1CUFItemControl@@UAE@XZ" PURGE="0" COMMENT="" />
    <EXPORT ORDINAL="219" NAME="??1CUFItemsControl@@UAE@XZ" PURGE="0" COMMENT="" />
    <EXPORT ORDINAL="220" NAME="??1CUFKeyFrame@@UAE@XZ" PURGE="0" COMMENT="" />
    <EXPORT ORDINAL="221" NAME="??1CUFLabel@@UAE@XZ" PURGE="0" COMMENT="" />
    <EXPORT ORDINAL="222" NAME="??1CUFLayer@@UAE@XZ" PURGE="0" COMMENT="" />
    <EXPORT ORDINAL="223" NAME="??1CUFLayerManager@@UAE@XZ" PURGE="0" COMMENT="" />
    <EXPORT ORDINAL="224" NAME="??1CUFLine@@UAE@XZ" PURGE="0" COMMENT="" />
    <EXPORT ORDINAL="225" NAME="??1CUFLineMeta@@UAE@XZ" PURGE="0" COMMENT="" />
    <EXPORT ORDINAL="226" NAME="??1CUFListBox@@UAE@XZ" PURGE="0" COMMENT="" />
    <EXPORT ORDINAL="227" NAME="??1CUFListBoxItem@@UAE@XZ" PURGE="0" COMMENT="" />
    <EXPORT ORDINAL="228" NAME="??1CUFLog@@AAE@XZ" PURGE="0" COMMENT="" />
    <EXPORT ORDINAL="229" NAME="??1CUFMenu@@UAE@XZ" PURGE="0" COMMENT="" />
    <EXPORT ORDINAL="230" NAME="??1CUFMenuItem@@UAE@XZ" PURGE="0" COMMENT="" />
    <EXPORT ORDINAL="231" NAME="??1CUFMenuPanel@@UAE@XZ" PURGE="0" COMMENT="" />
    <EXPORT ORDINAL="232" NAME="??1CUFMetaBase@@UAE@XZ" PURGE="0" COMMENT="" />
    <EXPORT ORDINAL="233" NAME="??1CUFOverlayButton@@UAE@XZ" PURGE="0" COMMENT="" />
    <EXPORT ORDINAL="234" NAME="??1CUFOverlayContainer@@UAE@XZ" PURGE="0" COMMENT="" />
    <EXPORT ORDINAL="235" NAME="??1CUFPanel@@UAE@XZ" PURGE="0" COMMENT="" />
    <EXPORT ORDINAL="236" NAME="??1CUFPen@@UAE@XZ" PURGE="0" COMMENT="" />
    <EXPORT ORDINAL="237" NAME="??1CUFPopUPWCP@@UAE@XZ" PURGE="0" COMMENT="" />
    <EXPORT ORDINAL="238" NAME="??1CUFPopUp@@UAE@XZ" PURGE="0" COMMENT="" />
    <EXPORT ORDINAL="239" NAME="??1CUFProgressBar@@UAE@XZ" PURGE="0" COMMENT="" />
    <EXPORT ORDINAL="240" NAME="??1CUFRadioButton@@UAE@XZ" PURGE="0" COMMENT="" />
    <EXPORT ORDINAL="241" NAME="??1CUFRangeBase@@UAE@XZ" PURGE="0" COMMENT="" />
    <EXPORT ORDINAL="242" NAME="??1CUFRangeBaseStyle@@UAE@XZ" PURGE="0" COMMENT="" />
    <EXPORT ORDINAL="243" NAME="??1CUFRectMeta@@UAE@XZ" PURGE="0" COMMENT="" />
    <EXPORT ORDINAL="244" NAME="??1CUFRectangle@@UAE@XZ" PURGE="0" COMMENT="" />
    <EXPORT ORDINAL="245" NAME="??1CUFRenderAdapter10@@UAE@XZ" PURGE="0" COMMENT="" />
    <EXPORT ORDINAL="246" NAME="??1CUFRenderAdapter9@@EAE@XZ" PURGE="0" COMMENT="" />
    <EXPORT ORDINAL="247" NAME="??1CUFRepeatButton@@UAE@XZ" PURGE="0" COMMENT="" />
    <EXPORT ORDINAL="248" NAME="??1CUFRgnRectMeta@@UAE@XZ" PURGE="0" COMMENT="" />
    <EXPORT ORDINAL="249" NAME="??1CUFScrollBar@@UAE@XZ" PURGE="0" COMMENT="" />
    <EXPORT ORDINAL="250" NAME="??1CUFScrollBarStyle@@UAE@XZ" PURGE="0" COMMENT="" />
    <EXPORT ORDINAL="251" NAME="??1CUFScrollViewer@@UAE@XZ" PURGE="0" COMMENT="" />
    <EXPORT ORDINAL="252" NAME="??1CUFShape@@UAE@XZ" PURGE="0" COMMENT="" />
    <EXPORT ORDINAL="253" NAME="??1CUFSliderBar@@UAE@XZ" PURGE="0" COMMENT="" />
    <EXPORT ORDINAL="254" NAME="??1CUFSliderBarStyle@@UAE@XZ" PURGE="0" COMMENT="" />
    <EXPORT ORDINAL="255" NAME="??1CUFSound@@UAE@XZ" PURGE="0" COMMENT="" />
    <EXPORT ORDINAL="256" NAME="??1CUFStackPanel@@UAE@XZ" PURGE="0" COMMENT="" />
    <EXPORT ORDINAL="257" NAME="??1CUFStateButton@@UAE@XZ" PURGE="0" COMMENT="" />
    <EXPORT ORDINAL="258" NAME="??1CUFText@@UAE@XZ" PURGE="0" COMMENT="" />
    <EXPORT ORDINAL="259" NAME="??1CUFTextMeta@@UAE@XZ" PURGE="0" COMMENT="" />
    <EXPORT ORDINAL="260" NAME="??1CUFThreadDX10TexManager@@UAE@XZ" PURGE="0" COMMENT="" />
    <EXPORT ORDINAL="261" NAME="??1CUFThreadDX9TexManager@@UAE@XZ" PURGE="0" COMMENT="" />
    <EXPORT ORDINAL="262" NAME="??1CUFThreadTextureManager@@UAE@XZ" PURGE="0" COMMENT="" />
    <EXPORT ORDINAL="263" NAME="??1CUFThumb@@UAE@XZ" PURGE="0" COMMENT="" />
    <EXPORT ORDINAL="264" NAME="??1CUFTimer@@UAE@XZ" PURGE="0" COMMENT="" />
    <EXPORT ORDINAL="265" NAME="??1CUFTimerManager@@IAE@XZ" PURGE="0" COMMENT="" />
    <EXPORT ORDINAL="266" NAME="??1CUFToggleButton@@UAE@XZ" PURGE="0" COMMENT="" />
    <EXPORT ORDINAL="267" NAME="??1CUFToolTip@@UAE@XZ" PURGE="0" COMMENT="" />
    <EXPORT ORDINAL="268" NAME="??1CUFTriangle@@UAE@XZ" PURGE="0" COMMENT="" />
    <EXPORT ORDINAL="269" NAME="??1CUFTriangleMeta@@UAE@XZ" PURGE="0" COMMENT="" />
    <EXPORT ORDINAL="270" NAME="??1CUFWCPMenu@@UAE@XZ" PURGE="0" COMMENT="" />
    <EXPORT ORDINAL="271" NAME="??1CUFWin32AccelManager@@MAE@XZ" PURGE="0" COMMENT="" />
    <EXPORT ORDINAL="272" NAME="??1CUFWin32EventProcessor@@UAE@XZ" PURGE="0" COMMENT="" />
    <EXPORT ORDINAL="273" NAME="??1CUFWin32Window@@UAE@XZ" PURGE="0" COMMENT="" />
    <EXPORT ORDINAL="274" NAME="??1CUFWinChildPanel@@UAE@XZ" PURGE="0" COMMENT="" />
    <EXPORT ORDINAL="275" NAME="??1CUFWinPopupPanel@@UAE@XZ" PURGE="0" COMMENT="" />
    <EXPORT ORDINAL="276" NAME="??1CUFWndPanel@@UAE@XZ" PURGE="0" COMMENT="" />
    <EXPORT ORDINAL="277" NAME="??1CUFWrapPanel@@UAE@XZ" PURGE="0" COMMENT="" />
    <EXPORT ORDINAL="278" NAME="??1IUFD2DRenderAdapter@@UAE@XZ" PURGE="0" COMMENT="" />
    <EXPORT ORDINAL="279" NAME="??1IUFDevice@@UAE@XZ" PURGE="0" COMMENT="" />
    <EXPORT ORDINAL="280" NAME="??1IUFEventProcessor@@UAE@XZ" PURGE="0" COMMENT="" />
    <EXPORT ORDINAL="281" NAME="??1IUFFont@@UAE@XZ" PURGE="0" COMMENT="" />
    <EXPORT ORDINAL="282" NAME="??1IUFMetaProperty@@UAE@XZ" PURGE="0" COMMENT="" />
    <EXPORT ORDINAL="283" NAME="??1IUFRenderAdapter@@UAE@XZ" PURGE="0" COMMENT="" />
    <EXPORT ORDINAL="284" NAME="??1IUFTextureManager@@UAE@XZ" PURGE="0" COMMENT="" />
    <EXPORT ORDINAL="285" NAME="??1IUFWindow@@UAE@XZ" PURGE="0" COMMENT="" />
    <EXPORT ORDINAL="286" NAME="??1TOGGLEIMAGES@@QAE@XZ" PURGE="0" COMMENT="" />
    <EXPORT ORDINAL="287" NAME="??4CDeviceCreator@@QAEAAV0@ABV0@@Z" PURGE="4" COMMENT="" />
    <EXPORT ORDINAL="288" NAME="??4CUFApplication@@QAEAAV0@ABV0@@Z" PURGE="4" COMMENT="" />
    <EXPORT ORDINAL="289" NAME="??4CUFBackImage@@QAEAAV0@ABV0@@Z" PURGE="4" COMMENT="" />
    <EXPORT ORDINAL="290" NAME="??4CUFBrush@@QAEAAV0@ABV0@@Z" PURGE="4" COMMENT="" />
    <EXPORT ORDINAL="291" NAME="??4CUFD2D3DEffectResource@@QAEAAV0@ABV0@@Z" PURGE="4" COMMENT="" />
    <EXPORT ORDINAL="292" NAME="??4CUFD2DDcRenderAdapter@@QAEAAV0@ABV0@@Z" PURGE="4" COMMENT="" />
    <EXPORT ORDINAL="293" NAME="??4CUFD2DDevice@@QAEAAV0@ABV0@@Z" PURGE="4" COMMENT="" />
    <EXPORT ORDINAL="294" NAME="??4CUFD2DDeviceDc@@QAEAAV0@ABV0@@Z" PURGE="4" COMMENT="" />
    <EXPORT ORDINAL="295" NAME="??4CUFD2DDeviceHwnd@@QAEAAV0@ABV0@@Z" PURGE="4" COMMENT="" />
    <EXPORT ORDINAL="296" NAME="??4CUFD2DDxgiRenderAdapter@@QAEAAV0@ABV0@@Z" PURGE="4" COMMENT="" />
    <EXPORT ORDINAL="297" NAME="??4CUFD2DHwndRenderAdapter@@QAEAAV0@ABV0@@Z" PURGE="4" COMMENT="" />
    <EXPORT ORDINAL="298" NAME="??4CUFD2DMetaProperty@@QAEAAV0@ABV0@@Z" PURGE="4" COMMENT="" />
    <EXPORT ORDINAL="299" NAME="??4CUFD2DTextureManager@@QAEAAV0@ABV0@@Z" PURGE="4" COMMENT="" />
    <EXPORT ORDINAL="300" NAME="??4CUFD2DThreadTextureManager@@QAEAAV0@ABV0@@Z" PURGE="4" COMMENT="" />
    <EXPORT ORDINAL="301" NAME="??4CUFDx10MetaProperty@@QAEAAV0@ABV0@@Z" PURGE="4" COMMENT="" />
    <EXPORT ORDINAL="302" NAME="??4CUFDxTextureManager@@QAEAAV0@ABV0@@Z" PURGE="4" COMMENT="" />
    <EXPORT ORDINAL="303" NAME="??4CUFEventDispatcher@@QAEAAV0@ABV0@@Z" PURGE="4" COMMENT="" />
    <EXPORT ORDINAL="304" NAME="??4CUFEventManager@@QAEAAV0@ABV0@@Z" PURGE="4" COMMENT="" />
    <EXPORT ORDINAL="305" NAME="??4CUFEventTarget@@QAEAAV0@ABV0@@Z" PURGE="4" COMMENT="" />
    <EXPORT ORDINAL="306" NAME="??4CUFGroupButton@@QAEAAV0@ABV0@@Z" PURGE="4" COMMENT="" />
    <EXPORT ORDINAL="307" NAME="??4CUFKeyFrame@@QAEAAV0@ABV0@@Z" PURGE="4" COMMENT="" />
    <EXPORT ORDINAL="308" NAME="??4CUFPen@@QAEAAV0@ABV0@@Z" PURGE="4" COMMENT="" />
    <EXPORT ORDINAL="309" NAME="??4CUFPlatformHelper@@QAEAAV0@ABV0@@Z" PURGE="4" COMMENT="" />
    <EXPORT ORDINAL="310" NAME="??4CUFRangeBaseStyle@@QAEAAV0@ABV0@@Z" PURGE="4" COMMENT="" />
    <EXPORT ORDINAL="311" NAME="??4CUFRenderAdapter10@@QAEAAV0@ABV0@@Z" PURGE="4" COMMENT="" />
    <EXPORT ORDINAL="312" NAME="??4CUFRenderAdapter9@@QAEAAV0@ABV0@@Z" PURGE="4" COMMENT="" />
    <EXPORT ORDINAL="313" NAME="??4CUFScrollBarStyle@@QAEAAV0@ABV0@@Z" PURGE="4" COMMENT="" />
    <EXPORT ORDINAL="314" NAME="??4CUFSliderBarStyle@@QAEAAV0@ABV0@@Z" PURGE="4" COMMENT="" />
    <EXPORT ORDINAL="315" NAME="??4CUFThreadDX10TexManager@@QAEAAV0@ABV0@@Z" PURGE="4" COMMENT="" />
    <EXPORT ORDINAL="316" NAME="??4CUFThreadDX9TexManager@@QAEAAV0@ABV0@@Z" PURGE="4" COMMENT="" />
    <EXPORT ORDINAL="317" NAME="??4CUFThreadTextureManager@@QAEAAV0@ABV0@@Z" PURGE="4" COMMENT="" />
    <EXPORT ORDINAL="318" NAME="??4CUFTimer@@QAEAAV0@ABV0@@Z" PURGE="4" COMMENT="" />
    <EXPORT ORDINAL="319" NAME="??4CUFTimerManager@@QAEAAV0@ABV0@@Z" PURGE="4" COMMENT="" />
    <EXPORT ORDINAL="320" NAME="??4CUFWin32EventProcessor@@QAEAAV0@ABV0@@Z" PURGE="4" COMMENT="" />
    <EXPORT ORDINAL="321" NAME="??4IUFD2DRenderAdapter@@QAEAAV0@ABV0@@Z" PURGE="4" COMMENT="" />
    <EXPORT ORDINAL="322" NAME="??4IUFDevice@@QAEAAV0@ABV0@@Z" PURGE="4" COMMENT="" />
    <EXPORT ORDINAL="323" NAME="??4IUFEventProcessor@@QAEAAV0@ABV0@@Z" PURGE="4" COMMENT="" />
    <EXPORT ORDINAL="324" NAME="??4IUFFont@@QAEAAV0@ABV0@@Z" PURGE="4" COMMENT="" />
    <EXPORT ORDINAL="325" NAME="??4IUFMetaProperty@@QAEAAV0@ABV0@@Z" PURGE="4" COMMENT="" />
    <EXPORT ORDINAL="326" NAME="??4IUFRenderAdapter@@QAEAAV0@ABV0@@Z" PURGE="4" COMMENT="" />
    <EXPORT ORDINAL="327" NAME="??4IUFTextureManager@@QAEAAV0@ABV0@@Z" PURGE="4" COMMENT="" />
    <EXPORT ORDINAL="328" NAME="??4TOGGLEIMAGES@@QAEAAV0@ABV0@@Z" PURGE="4" COMMENT="" />
    <EXPORT ORDINAL="329" NAME="??4_Init_locks@std@@QAEAAV01@ABV01@@Z" PURGE="4" COMMENT="" />
    <EXPORT ORDINAL="330" NAME="??_7CUFAnimation@@6B@" PURGE="-1" COMMENT="" />
    <EXPORT ORDINAL="331" NAME="??_7CUFAnimationManager@@6B@" PURGE="-1" COMMENT="" />
    <EXPORT ORDINAL="332" NAME="??_7CUFApplication@@6B@" PURGE="-1" COMMENT="" />
    <EXPORT ORDINAL="333" NAME="??_7CUFButton@@6B@" PURGE="-1" COMMENT="" />
    <EXPORT ORDINAL="334" NAME="??_7CUFButtonBase@@6B@" PURGE="-1" COMMENT="" />
    <EXPORT ORDINAL="335" NAME="??_7CUFButtonDecoration@@6B@" PURGE="-1" COMMENT="" />
    <EXPORT ORDINAL="336" NAME="??_7CUFCanvas@@6B@" PURGE="-1" COMMENT="" />
    <EXPORT ORDINAL="337" NAME="??_7CUFCheckBox@@6B@" PURGE="-1" COMMENT="" />
    <EXPORT ORDINAL="338" NAME="??_7CUFChildWnd@@6B@" PURGE="-1" COMMENT="" />
    <EXPORT ORDINAL="339" NAME="??_7CUFComboBox@@6B@" PURGE="-1" COMMENT="" />
    <EXPORT ORDINAL="340" NAME="??_7CUFComboBoxDropDown@@6B@" PURGE="-1" COMMENT="" />
    <EXPORT ORDINAL="341" NAME="??_7CUFComboBoxItem@@6B@" PURGE="-1" COMMENT="" />
    <EXPORT ORDINAL="342" NAME="??_7CUFContentControl@@6B@" PURGE="-1" COMMENT="" />
    <EXPORT ORDINAL="343" NAME="??_7CUFControl@@6B@" PURGE="-1" COMMENT="" />
    <EXPORT ORDINAL="344" NAME="??_7CUFD2D3DEffect@@6B@" PURGE="-1" COMMENT="" />
    <EXPORT ORDINAL="345" NAME="??_7CUFD2D3DEffectResource@@6B@" PURGE="-1" COMMENT="" />
    <EXPORT ORDINAL="346" NAME="??_7CUFD2DDcRenderAdapter@@6B@" PURGE="-1" COMMENT="" />
    <EXPORT ORDINAL="347" NAME="??_7CUFD2DDevice@@6B@" PURGE="-1" COMMENT="" />
    <EXPORT ORDINAL="348" NAME="??_7CUFD2DDeviceDc@@6B@" PURGE="-1" COMMENT="" />
    <EXPORT ORDINAL="349" NAME="??_7CUFD2DDeviceDxgi@@6B@" PURGE="-1" COMMENT="" />
    <EXPORT ORDINAL="350" NAME="??_7CUFD2DDeviceHwnd@@6B@" PURGE="-1" COMMENT="" />
    <EXPORT ORDINAL="351" NAME="??_7CUFD2DDxgiRenderAdapter@@6B@" PURGE="-1" COMMENT="" />
    <EXPORT ORDINAL="352" NAME="??_7CUFD2DHwndRenderAdapter@@6B@" PURGE="-1" COMMENT="" />
    <EXPORT ORDINAL="353" NAME="??_7CUFD2DMetaProperty@@6B@" PURGE="-1" COMMENT="" />
    <EXPORT ORDINAL="354" NAME="??_7CUFD2DTextureManager@@6B@" PURGE="-1" COMMENT="" />
    <EXPORT ORDINAL="355" NAME="??_7CUFD2DThreadTextureManager@@6B@" PURGE="-1" COMMENT="" />
    <EXPORT ORDINAL="356" NAME="??_7CUFDLSliderBar@@6B@" PURGE="-1" COMMENT="" />
    <EXPORT ORDINAL="357" NAME="??_7CUFDWriteFont@@6B@" PURGE="-1" COMMENT="" />
    <EXPORT ORDINAL="358" NAME="??_7CUFDWriteText@@6B@" PURGE="-1" COMMENT="" />
    <EXPORT ORDINAL="359" NAME="??_7CUFDecorateButton@@6B@" PURGE="-1" COMMENT="" />
    <EXPORT ORDINAL="360" NAME="??_7CUFDx10Device@@6B@" PURGE="-1" COMMENT="" />
    <EXPORT ORDINAL="361" NAME="??_7CUFDx10MetaProperty@@6B@" PURGE="-1" COMMENT="" />
    <EXPORT ORDINAL="362" NAME="??_7CUFDx10TexRVManager@@6B@" PURGE="-1" COMMENT="" />
    <EXPORT ORDINAL="363" NAME="??_7CUFDx9Text@@6B@" PURGE="-1" COMMENT="" />
    <EXPORT ORDINAL="364" NAME="??_7CUFDxDevice@@6B@" PURGE="-1" COMMENT="" />
    <EXPORT ORDINAL="365" NAME="??_7CUFDxFont@@6B@" PURGE="-1" COMMENT="" />
    <EXPORT ORDINAL="366" NAME="??_7CUFDxMetaProperty@@6B@" PURGE="-1" COMMENT="" />
    <EXPORT ORDINAL="367" NAME="??_7CUFDxSound@@6B@" PURGE="-1" COMMENT="" />
    <EXPORT ORDINAL="368" NAME="??_7CUFDxTextureManager@@6B@" PURGE="-1" COMMENT="" />
    <EXPORT ORDINAL="369" NAME="??_7CUFEditText@@6B@" PURGE="-1" COMMENT="" />
    <EXPORT ORDINAL="370" NAME="??_7CUFElement@@6B@" PURGE="-1" COMMENT="" />
    <EXPORT ORDINAL="371" NAME="??_7CUFEllipse@@6B@" PURGE="-1" COMMENT="" />
    <EXPORT ORDINAL="372" NAME="??_7CUFEllipseMeta@@6B@" PURGE="-1" COMMENT="" />
    <EXPORT ORDINAL="373" NAME="??_7CUFEmptyDeviceWnd@@6B@" PURGE="-1" COMMENT="" />
    <EXPORT ORDINAL="374" NAME="??_7CUFEventTarget@@6B@" PURGE="-1" COMMENT="" />
    <EXPORT ORDINAL="375" NAME="??_7CUFHFPicContainer@@6B@" PURGE="-1" COMMENT="" />
    <EXPORT ORDINAL="376" NAME="??_7CUFImage@@6B@" PURGE="-1" COMMENT="" />
    <EXPORT ORDINAL="377" NAME="??_7CUFImageMeta@@6B@" PURGE="-1" COMMENT="" />
    <EXPORT ORDINAL="378" NAME="??_7CUFItemControl@@6B@" PURGE="-1" COMMENT="" />
    <EXPORT ORDINAL="379" NAME="??_7CUFItemsControl@@6B@" PURGE="-1" COMMENT="" />
    <EXPORT ORDINAL="380" NAME="??_7CUFKeyFrame@@6B@" PURGE="-1" COMMENT="" />
    <EXPORT ORDINAL="381" NAME="??_7CUFLabel@@6B@" PURGE="-1" COMMENT="" />
    <EXPORT ORDINAL="382" NAME="??_7CUFLayer@@6B@" PURGE="-1" COMMENT="" />
    <EXPORT ORDINAL="383" NAME="??_7CUFLayerManager@@6B@" PURGE="-1" COMMENT="" />
    <EXPORT ORDINAL="384" NAME="??_7CUFLine@@6B@" PURGE="-1" COMMENT="" />
    <EXPORT ORDINAL="385" NAME="??_7CUFLineMeta@@6B@" PURGE="-1" COMMENT="" />
    <EXPORT ORDINAL="386" NAME="??_7CUFListBox@@6B@" PURGE="-1" COMMENT="" />
    <EXPORT ORDINAL="387" NAME="??_7CUFListBoxItem@@6B@" PURGE="-1" COMMENT="" />
    <EXPORT ORDINAL="388" NAME="??_7CUFMenu@@6B@" PURGE="-1" COMMENT="" />
    <EXPORT ORDINAL="389" NAME="??_7CUFMenuItem@@6B@" PURGE="-1" COMMENT="" />
    <EXPORT ORDINAL="390" NAME="??_7CUFMenuPanel@@6B@" PURGE="-1" COMMENT="" />
    <EXPORT ORDINAL="391" NAME="??_7CUFMetaBase@@6B@" PURGE="-1" COMMENT="" />
    <EXPORT ORDINAL="392" NAME="??_7CUFOverlayButton@@6B@" PURGE="-1" COMMENT="" />
    <EXPORT ORDINAL="393" NAME="??_7CUFOverlayContainer@@6B@" PURGE="-1" COMMENT="" />
    <EXPORT ORDINAL="394" NAME="??_7CUFPanel@@6B@" PURGE="-1" COMMENT="" />
    <EXPORT ORDINAL="395" NAME="??_7CUFPen@@6B@" PURGE="-1" COMMENT="" />
    <EXPORT ORDINAL="396" NAME="??_7CUFPopUPWCP@@6B@" PURGE="-1" COMMENT="" />
    <EXPORT ORDINAL="397" NAME="??_7CUFPopUp@@6B@" PURGE="-1" COMMENT="" />
    <EXPORT ORDINAL="398" NAME="??_7CUFProgressBar@@6B@" PURGE="-1" COMMENT="" />
    <EXPORT ORDINAL="399" NAME="??_7CUFRadioButton@@6B@" PURGE="-1" COMMENT="" />
    <EXPORT ORDINAL="400" NAME="??_7CUFRangeBase@@6B@" PURGE="-1" COMMENT="" />
    <EXPORT ORDINAL="401" NAME="??_7CUFRangeBaseStyle@@6B@" PURGE="-1" COMMENT="" />
    <EXPORT ORDINAL="402" NAME="??_7CUFRectMeta@@6B@" PURGE="-1" COMMENT="" />
    <EXPORT ORDINAL="403" NAME="??_7CUFRectangle@@6B@" PURGE="-1" COMMENT="" />
    <EXPORT ORDINAL="404" NAME="??_7CUFRenderAdapter10@@6B@" PURGE="-1" COMMENT="" />
    <EXPORT ORDINAL="405" NAME="??_7CUFRenderAdapter9@@6B@" PURGE="-1" COMMENT="" />
    <EXPORT ORDINAL="406" NAME="??_7CUFRepeatButton@@6B@" PURGE="-1" COMMENT="" />
    <EXPORT ORDINAL="407" NAME="??_7CUFRgnRectMeta@@6B@" PURGE="-1" COMMENT="" />
    <EXPORT ORDINAL="408" NAME="??_7CUFScrollBar@@6B@" PURGE="-1" COMMENT="" />
    <EXPORT ORDINAL="409" NAME="??_7CUFScrollBarStyle@@6B@" PURGE="-1" COMMENT="" />
    <EXPORT ORDINAL="410" NAME="??_7CUFScrollViewer@@6B@" PURGE="-1" COMMENT="" />
    <EXPORT ORDINAL="411" NAME="??_7CUFShape@@6B@" PURGE="-1" COMMENT="" />
    <EXPORT ORDINAL="412" NAME="??_7CUFSliderBar@@6B@" PURGE="-1" COMMENT="" />
    <EXPORT ORDINAL="413" NAME="??_7CUFSliderBarStyle@@6B@" PURGE="-1" COMMENT="" />
    <EXPORT ORDINAL="414" NAME="??_7CUFSound@@6B@" PURGE="-1" COMMENT="" />
    <EXPORT ORDINAL="415" NAME="??_7CUFStackPanel@@6B@" PURGE="-1" COMMENT="" />
    <EXPORT ORDINAL="416" NAME="??_7CUFStateButton@@6B@" PURGE="-1" COMMENT="" />
    <EXPORT ORDINAL="417" NAME="??_7CUFText@@6B@" PURGE="-1" COMMENT="" />
    <EXPORT ORDINAL="418" NAME="??_7CUFTextMeta@@6B@" PURGE="-1" COMMENT="" />
    <EXPORT ORDINAL="419" NAME="??_7CUFThreadDX10TexManager@@6B@" PURGE="-1" COMMENT="" />
    <EXPORT ORDINAL="420" NAME="??_7CUFThreadDX9TexManager@@6B@" PURGE="-1" COMMENT="" />
    <EXPORT ORDINAL="421" NAME="??_7CUFThreadTextureManager@@6B@" PURGE="-1" COMMENT="" />
    <EXPORT ORDINAL="422" NAME="??_7CUFThumb@@6B@" PURGE="-1" COMMENT="" />
    <EXPORT ORDINAL="423" NAME="??_7CUFTimer@@6B@" PURGE="-1" COMMENT="" />
    <EXPORT ORDINAL="424" NAME="??_7CUFToggleButton@@6B@" PURGE="-1" COMMENT="" />
    <EXPORT ORDINAL="425" NAME="??_7CUFToolTip@@6B@" PURGE="-1" COMMENT="" />
    <EXPORT ORDINAL="426" NAME="??_7CUFTriangle@@6B@" PURGE="-1" COMMENT="" />
    <EXPORT ORDINAL="427" NAME="??_7CUFTriangleMeta@@6B@" PURGE="-1" COMMENT="" />
    <EXPORT ORDINAL="428" NAME="??_7CUFWCPMenu@@6B@" PURGE="-1" COMMENT="" />
    <EXPORT ORDINAL="429" NAME="??_7CUFWin32AccelManager@@6B@" PURGE="-1" COMMENT="" />
    <EXPORT ORDINAL="430" NAME="??_7CUFWin32EventProcessor@@6B@" PURGE="-1" COMMENT="" />
    <EXPORT ORDINAL="431" NAME="??_7CUFWin32Window@@6B@" PURGE="-1" COMMENT="" />
    <EXPORT ORDINAL="432" NAME="??_7CUFWinChildPanel@@6B@" PURGE="-1" COMMENT="" />
    <EXPORT ORDINAL="433" NAME="??_7CUFWinPopupPanel@@6B@" PURGE="-1" COMMENT="" />
    <EXPORT ORDINAL="434" NAME="??_7CUFWndPanel@@6B@" PURGE="-1" COMMENT="" />
    <EXPORT ORDINAL="435" NAME="??_7CUFWrapPanel@@6B@" PURGE="-1" COMMENT="" />
    <EXPORT ORDINAL="436" NAME="??_7IUFD2DRenderAdapter@@6B@" PURGE="-1" COMMENT="" />
    <EXPORT ORDINAL="437" NAME="??_7IUFDevice@@6B@" PURGE="-1" COMMENT="" />
    <EXPORT ORDINAL="438" NAME="??_7IUFEventProcessor@@6B@" PURGE="-1" COMMENT="" />
    <EXPORT ORDINAL="439" NAME="??_7IUFFont@@6B@" PURGE="-1" COMMENT="" />
    <EXPORT ORDINAL="440" NAME="??_7IUFMetaProperty@@6B@" PURGE="-1" COMMENT="" />
    <EXPORT ORDINAL="441" NAME="??_7IUFRenderAdapter@@6B@" PURGE="-1" COMMENT="" />
    <EXPORT ORDINAL="442" NAME="??_7IUFTextureManager@@6B@" PURGE="-1" COMMENT="" />
    <EXPORT ORDINAL="443" NAME="??_7IUFWindow@@6B@" PURGE="-1" COMMENT="" />
    <EXPORT ORDINAL="444" NAME="??_FCUFComboBox@@QAEXXZ" PURGE="0" COMMENT="" />
    <EXPORT ORDINAL="445" NAME="??_FCUFDLSliderBar@@QAEXXZ" PURGE="0" COMMENT="" />
    <EXPORT ORDINAL="446" NAME="??_FCUFDWriteFont@@QAEXXZ" PURGE="0" COMMENT="" />
    <EXPORT ORDINAL="447" NAME="??_FCUFDxFont@@QAEXXZ" PURGE="0" COMMENT="" />
    <EXPORT ORDINAL="448" NAME="??_FCUFEmptyDeviceWnd@@QAEXXZ" PURGE="0" COMMENT="" />
    <EXPORT ORDINAL="449" NAME="??_FCUFListBox@@QAEXXZ" PURGE="0" COMMENT="" />
    <EXPORT ORDINAL="450" NAME="??_FCUFProgressBar@@QAEXXZ" PURGE="0" COMMENT="" />
    <EXPORT ORDINAL="451" NAME="??_FCUFRangeBase@@QAEXXZ" PURGE="0" COMMENT="" />
    <EXPORT ORDINAL="452" NAME="??_FCUFScrollBar@@QAEXXZ" PURGE="0" COMMENT="" />
    <EXPORT ORDINAL="453" NAME="??_FCUFScrollViewer@@QAEXXZ" PURGE="0" COMMENT="" />
    <EXPORT ORDINAL="454" NAME="??_FCUFSliderBar@@QAEXXZ" PURGE="0" COMMENT="" />
    <EXPORT ORDINAL="455" NAME="??_FCUFTimer@@QAEXXZ" PURGE="0" COMMENT="" />
    <EXPORT ORDINAL="456" NAME="??_FCUFWCPMenu@@QAEXXZ" PURGE="0" COMMENT="" />
    <EXPORT ORDINAL="457" NAME="??_FCUFWinPopupPanel@@QAEXXZ" PURGE="0" COMMENT="" />
    <EXPORT ORDINAL="458" NAME="?AccelFilterFunc@CUFWin32AccelManager@@SAXPAX0PA_N@Z" PURGE="0" COMMENT="" />
    <EXPORT ORDINAL="459" NAME="?AcquireTexID@CUFDx10TexRVManager@@AAEIXZ" PURGE="0" COMMENT="" />
    <EXPORT ORDINAL="460" NAME="?AcquireTexID@CUFDxTextureManager@@AAEIXZ" PURGE="0" COMMENT="" />
    <EXPORT ORDINAL="461" NAME="?Activate@CUFLayer@@QAEXXZ" PURGE="0" COMMENT="" />
    <EXPORT ORDINAL="462" NAME="?ActivateKeyboardLayoutHandle@CUFPlatformHelper@@SAPAUHKL__@@PAU2@I@Z" PURGE="0" COMMENT="" />
    <EXPORT ORDINAL="463" NAME="?ActivateMenuItem@CUFMenuItem@@UAEX_N0@Z" PURGE="8" COMMENT="" />
    <EXPORT ORDINAL="464" NAME="?AddButton@CUFGroupButton@@QAEXPAVCUFRadioButton@@@Z" PURGE="4" COMMENT="" />
    <EXPORT ORDINAL="465" NAME="?AddChild@CUFControl@@IAE_NPAVCUFElement@@@Z" PURGE="4" COMMENT="" />
    <EXPORT ORDINAL="466" NAME="?AddElement@CUFPanel@@UAE_NPAVCUFElement@@@Z" PURGE="4" COMMENT="" />
    <EXPORT ORDINAL="467" NAME="?AddElement@CUFPopUPWCP@@UAE_NPAVCUFElement@@@Z" PURGE="4" COMMENT="" />
    <EXPORT ORDINAL="468" NAME="?AddEventFilter@CUFEventManager@@QAE_NIPAXP6AX00PA_N@Z@Z" PURGE="12" COMMENT="" />
    <EXPORT ORDINAL="469" NAME="?AddEventFilter@IUFEventProcessor@@QAE_NIPAXP6AX00PA_N@Z@Z" PURGE="12" COMMENT="" />
    <EXPORT ORDINAL="470" NAME="?AddItem@CUFComboBox@@UAE_NPAVCUFItemControl@@@Z" PURGE="4" COMMENT="" />
    <EXPORT ORDINAL="471" NAME="?AddItem@CUFItemsControl@@UAE_NPAVCUFItemControl@@@Z" PURGE="4" COMMENT="" />
    <EXPORT ORDINAL="472" NAME="?AddItem@CUFListBox@@UAE_NPAVCUFItemControl@@@Z" PURGE="4" COMMENT="" />
    <EXPORT ORDINAL="473" NAME="?AddItemControl@CUFComboBoxDropDown@@UAEXPAVCUFComboBoxItem@@@Z" PURGE="4" COMMENT="" />
    <EXPORT ORDINAL="474" NAME="?AddKeyFrame@CUFAnimation@@QAEXMJ@Z" PURGE="8" COMMENT="" />
    <EXPORT ORDINAL="475" NAME="?AddLayer@CUFWin32Window@@UAEXPAVCUFLayer@@@Z" PURGE="4" COMMENT="" />
    <EXPORT ORDINAL="476" NAME="?AddRef@IUFFont@@UAEJXZ" PURGE="0" COMMENT="" />
    <EXPORT ORDINAL="477" NAME="?AddString@CUFComboBox@@QAEXABV?$basic_string@_WU?$char_traits@_W@std@@V?$allocator@_W@2@@std@@@Z" PURGE="4" COMMENT="" />
    <EXPORT ORDINAL="478" NAME="?AddTask@CUFThreadTextureManager@@QAEXJPAUtagTEXQUERYITEM_t@@@Z" PURGE="8" COMMENT="" />
    <EXPORT ORDINAL="479" NAME="?AddTexture@CUFD2DTextureManager@@UAEIABV?$basic_string@_WU?$char_traits@_W@std@@V?$allocator@_W@2@@std@@PAX@Z" PURGE="8" COMMENT="" />
    <EXPORT ORDINAL="480" NAME="?AddTexture@CUFDx10TexRVManager@@UAEIABV?$basic_string@_WU?$char_traits@_W@std@@V?$allocator@_W@2@@std@@PAX@Z" PURGE="8" COMMENT="" />
    <EXPORT ORDINAL="481" NAME="?AddTexture@CUFDxTextureManager@@UAEIABV?$basic_string@_WU?$char_traits@_W@std@@V?$allocator@_W@2@@std@@PAX@Z" PURGE="8" COMMENT="" />
    <EXPORT ORDINAL="482" NAME="?AddTimer@CUFTimerManager@@QAEXPAVCUFTimer@@@Z" PURGE="4" COMMENT="" />
    <EXPORT ORDINAL="483" NAME="?AddToGroup@CUFRadioButton@@QAEXPAVCUFGroupButton@@@Z" PURGE="4" COMMENT="" />
    <EXPORT ORDINAL="484" NAME="?AddTopLevelElement@CUFMenuPanel@@QAEXPAVCUFElement@@@Z" PURGE="4" COMMENT="" />
    <EXPORT ORDINAL="485" NAME="?AddWindow@CUFApplication@@MAEXPAVIUFWindow@@@Z" PURGE="4" COMMENT="" />
    <EXPORT ORDINAL="486" NAME="?AdjustContentProperty@CUFOverlayButton@@QAE_NPAVCUFElement@@MM@Z" PURGE="12" COMMENT="" />
    <EXPORT ORDINAL="487" NAME="?AdjustContentProperty@CUFOverlayContainer@@QAE_NPAVCUFElement@@MM@Z" PURGE="12" COMMENT="" />
    <EXPORT ORDINAL="488" NAME="?AdjustSLStr@CUFDx9Text@@AAEHABV?$basic_string@_WU?$char_traits@_W@std@@V?$allocator@_W@2@@std@@H@Z" PURGE="8" COMMENT="" />
    <EXPORT ORDINAL="489" NAME="?AdjustVerticalOffset@CUFComboBox@@AAEXXZ" PURGE="0" COMMENT="" />
    <EXPORT ORDINAL="490" NAME="?AnimationEnd@CUFAnimation@@AAE_NJ@Z" PURGE="4" COMMENT="" />
    <EXPORT ORDINAL="491" NAME="?AnimationKeyFrame@CUFAnimation@@AAEXJPAVCUFKeyFrame@@0@Z" PURGE="12" COMMENT="" />
    <EXPORT ORDINAL="492" NAME="?AnimationNotify@CUFAnimation@@AAEXXZ" PURGE="0" COMMENT="" />
    <EXPORT ORDINAL="493" NAME="?AnimationPause@CUFAnimation@@AAEXAAJ@Z" PURGE="4" COMMENT="" />
    <EXPORT ORDINAL="494" NAME="?AppendAccel@CUFWin32AccelManager@@AAE_NABUtagUFACCEL_t@1@@Z" PURGE="4" COMMENT="" />
    <EXPORT ORDINAL="495" NAME="?AppendMenuItem@CUFMenu@@QAE_NPAVCUFMenuItem@@@Z" PURGE="4" COMMENT="" />
    <EXPORT ORDINAL="496" NAME="?Arrange@CUFButtonDecoration@@UAEXXZ" PURGE="0" COMMENT="" />
    <EXPORT ORDINAL="497" NAME="?Arrange@CUFDLSliderBar@@UAEXXZ" PURGE="0" COMMENT="" />
    <EXPORT ORDINAL="498" NAME="?Arrange@CUFElement@@UAEXXZ" PURGE="0" COMMENT="" />
    <EXPORT ORDINAL="499" NAME="?Arrange@CUFMenu@@UAEXXZ" PURGE="0" COMMENT="" />
    <EXPORT ORDINAL="500" NAME="?Arrange@CUFMenuItem@@UAEXXZ" PURGE="0" COMMENT="" />
    <EXPORT ORDINAL="501" NAME="?Arrange@CUFPanel@@UAEXXZ" PURGE="0" COMMENT="" />
    <EXPORT ORDINAL="502" NAME="?Arrange@CUFProgressBar@@UAEXXZ" PURGE="0" COMMENT="" />
    <EXPORT ORDINAL="503" NAME="?Arrange@CUFRangeBase@@UAEXXZ" PURGE="0" COMMENT="" />
    <EXPORT ORDINAL="504" NAME="?Arrange@CUFScrollBar@@UAEXXZ" PURGE="0" COMMENT="" />
    <EXPORT ORDINAL="505" NAME="?Arrange@CUFSliderBar@@UAEXXZ" PURGE="0" COMMENT="" />
    <EXPORT ORDINAL="506" NAME="?Arrange@CUFStackPanel@@UAEXXZ" PURGE="0" COMMENT="" />
    <EXPORT ORDINAL="507" NAME="?Arrange@CUFWrapPanel@@UAEXXZ" PURGE="0" COMMENT="" />
    <EXPORT ORDINAL="508" NAME="?ArrangeElement@CUFWrapPanel@@KAXPAVCUFElement@@MMMM@Z" PURGE="-1" COMMENT="" />
    <EXPORT ORDINAL="509" NAME="?ArrangeIDImage@CUFHFPicContainer@@IAE_NXZ" PURGE="0" COMMENT="" />
    <EXPORT ORDINAL="510" NAME="?ArrangeItemsContainer@CUFComboBoxDropDown@@QAEXXZ" PURGE="0" COMMENT="" />
    <EXPORT ORDINAL="511" NAME="?ArrangeLineH@CUFWrapPanel@@IAEXAAV?$_Vector_iterator@PAVCUFElement@@V?$allocator@PAVCUFElement@@@std@@@std@@AAM@Z" PURGE="8" COMMENT="" />
    <EXPORT ORDINAL="512" NAME="?ArrangeLineV@CUFWrapPanel@@IAEXAAV?$_Vector_iterator@PAVCUFElement@@V?$allocator@PAVCUFElement@@@std@@@std@@AAM@Z" PURGE="8" COMMENT="" />
    <EXPORT ORDINAL="513" NAME="?ArrangePathImage@CUFHFPicContainer@@IAE_NXZ" PURGE="0" COMMENT="" />
    <EXPORT ORDINAL="514" NAME="?AutoAdjustWidth@CUFMenu@@QAE_N_N@Z" PURGE="4" COMMENT="" />
    <EXPORT ORDINAL="515" NAME="?BSClipIndex@CUFDx9Text@@AAEHABV?$basic_string@_WU?$char_traits@_W@std@@V?$allocator@_W@2@@std@@MHH@Z" PURGE="16" COMMENT="" />
    <EXPORT ORDINAL="516" NAME="?BeginArrange@CUFPanel@@IAE_NXZ" PURGE="0" COMMENT="" />
    <EXPORT ORDINAL="517" NAME="?BeginRender@CUFD2DDevice@@UAE_NK@Z" PURGE="4" COMMENT="" />
    <EXPORT ORDINAL="518" NAME="?BeginRender@CUFD2DDeviceDc@@UAE_NK@Z" PURGE="4" COMMENT="" />
    <EXPORT ORDINAL="519" NAME="?BeginRender@CUFD2DDeviceHwnd@@UAE_NK@Z" PURGE="4" COMMENT="" />
    <EXPORT ORDINAL="520" NAME="?BeginRender@CUFD2DHwndRenderAdapter@@UAE_NK@Z" PURGE="4" COMMENT="" />
    <EXPORT ORDINAL="521" NAME="?BeginRender@CUFDx10Device@@UAE_NK@Z" PURGE="4" COMMENT="" />
    <EXPORT ORDINAL="522" NAME="?BeginRender@CUFDxDevice@@UAE_NK@Z" PURGE="4" COMMENT="" />
    <EXPORT ORDINAL="523" NAME="?BeginRender@CUFRenderAdapter10@@UAE_NK@Z" PURGE="4" COMMENT="" />
    <EXPORT ORDINAL="524" NAME="?BeginRender@CUFRenderAdapter9@@UAE_NK@Z" PURGE="4" COMMENT="" />
    <EXPORT ORDINAL="525" NAME="?BeginRender@IUFD2DRenderAdapter@@UAE_NK@Z" PURGE="4" COMMENT="" />
    <EXPORT ORDINAL="526" NAME="?BroadcastEvent@CUFEventDispatcher@@CA_NPAUtagUFEVENT_t@@@Z" PURGE="0" COMMENT="" />
    <EXPORT ORDINAL="527" NAME="?BroadcastEventFromRoot@CUFEventDispatcher@@CAXPAVCUFEventTarget@@PAUtagUFEVENT_t@@@Z" PURGE="0" COMMENT="" />
    <EXPORT ORDINAL="528" NAME="?CalcMoveSpeed@CUFListBox@@IAEHMM@Z" PURGE="8" COMMENT="" />
    <EXPORT ORDINAL="529" NAME="?CalcStrWidth@CUFEditText@@AAEMABV?$basic_string@_WU?$char_traits@_W@std@@V?$allocator@_W@2@@std@@@Z" PURGE="4" COMMENT="" />
    <EXPORT ORDINAL="530" NAME="?CalcuFontSize@CUFDxFont@@AAEXXZ" PURGE="0" COMMENT="" />
    <EXPORT ORDINAL="531" NAME="?CalcuForDistortion@CUFImage@@AAEXXZ" PURGE="0" COMMENT="" />
    <EXPORT ORDINAL="532" NAME="?CalcuRectClip@CUFD2D3DEffect@@AAEXABUtagUFRECTF_t@@AAU2@@Z" PURGE="8" COMMENT="" />
    <EXPORT ORDINAL="533" NAME="?CalcuWorldMatrix@CUFDx10MetaProperty@@AAEXPBUtagUFPOINTF_t@@PBUtagUFROTATION_t@@@Z" PURGE="8" COMMENT="" />
    <EXPORT ORDINAL="534" NAME="?CalculateScrollBarVisility@CUFScrollViewer@@AAE?AW4enumVISIBILITY@@W4enumSCROLLBARORIENTATION@@@Z" PURGE="4" COMMENT="" />
    <EXPORT ORDINAL="535" NAME="?CanTabStop@CUFElement@@UAE_NXZ" PURGE="0" COMMENT="" />
    <EXPORT ORDINAL="536" NAME="?CancelDrag@CUFRangeBase@@IAEXXZ" PURGE="0" COMMENT="" />
    <EXPORT ORDINAL="537" NAME="?CancelDrag@CUFThumb@@MAEXXZ" PURGE="0" COMMENT="" />
    <EXPORT ORDINAL="538" NAME="?CancelTask@CUFThreadTextureManager@@QAE_NJ@Z" PURGE="4" COMMENT="" />
    <EXPORT ORDINAL="539" NAME="?CaptureThumb@CUFThumb@@UAEXMM@Z" PURGE="8" COMMENT="" />
    <EXPORT ORDINAL="540" NAME="?ChangeIsMouseOver@CUFRepeatButton@@IAEX_NPBUtagUFMOUSEEVENT_t@@@Z" PURGE="8" COMMENT="" />
    <EXPORT ORDINAL="541" NAME="?CheckDevice@CUFD2DDevice@@UAEJXZ" PURGE="0" COMMENT="" />
    <EXPORT ORDINAL="542" NAME="?CheckDevice@CUFDx10Device@@UAEJXZ" PURGE="0" COMMENT="" />
    <EXPORT ORDINAL="543" NAME="?CheckDevice@CUFDxDevice@@UAEJXZ" PURGE="0" COMMENT="" />
    <EXPORT ORDINAL="544" NAME="?CheckMonitor@CUFWin32Window@@AAEXXZ" PURGE="0" COMMENT="" />
    <EXPORT ORDINAL="545" NAME="?CheckMultiSample@CUFDx10Device@@AAEJW4DXGI_FORMAT@@@Z" PURGE="4" COMMENT="" />
    <EXPORT ORDINAL="546" NAME="?CheckPicReged@CUFDx10TexRVManager@@AAE_NABV?$basic_string@_WU?$char_traits@_W@std@@V?$allocator@_W@2@@std@@AAI@Z" PURGE="8" COMMENT="" />
    <EXPORT ORDINAL="547" NAME="?CheckPicReged@CUFDxTextureManager@@AAE_NABV?$basic_string@_WU?$char_traits@_W@std@@V?$allocator@_W@2@@std@@AAI@Z" PURGE="8" COMMENT="" />
    <EXPORT ORDINAL="548" NAME="?CheckResult@CUFDx10Device@@AAEJJ@Z" PURGE="4" COMMENT="" />
    <EXPORT ORDINAL="549" NAME="?CheckResult@CUFDxDevice@@AAEJJ@Z" PURGE="4" COMMENT="" />
    <EXPORT ORDINAL="550" NAME="?CheckSelectRect@CUFListBox@@IAEXABUtagUFRECTF_t@@@Z" PURGE="4" COMMENT="" />
    <EXPORT ORDINAL="551" NAME="?CheckTexureByResID@CUFD2DTextureManager@@UAE_NH@Z" PURGE="4" COMMENT="" />
    <EXPORT ORDINAL="552" NAME="?CheckTexureByResID@CUFDx10TexRVManager@@UAE_NH@Z" PURGE="4" COMMENT="" />
    <EXPORT ORDINAL="553" NAME="?CheckTexureByResID@CUFDxTextureManager@@UAE_NH@Z" PURGE="4" COMMENT="" />
    <EXPORT ORDINAL="554" NAME="?ChooseMultiSample@CUFDx10Device@@AAE_NPAUDXGI_SAMPLE_DESC@@@Z" PURGE="4" COMMENT="" />
    <EXPORT ORDINAL="555" NAME="?Clean@CUFEditText@@QAEXXZ" PURGE="0" COMMENT="" />
    <EXPORT ORDINAL="556" NAME="?ClearAnimation@CUFAnimationManager@@QAEXXZ" PURGE="0" COMMENT="" />
    <EXPORT ORDINAL="557" NAME="?ClearBGScaleAlpha@CUFComboBoxItem@@QAEXXZ" PURGE="-1" COMMENT="" />
    <EXPORT ORDINAL="558" NAME="?ClearBckImg@CUFButton@@AAEXXZ" PURGE="0" COMMENT="" />
    <EXPORT ORDINAL="559" NAME="?ClearItemsIcon@CUFMenu@@QAE_NXZ" PURGE="0" COMMENT="" />
    <EXPORT ORDINAL="560" NAME="?ClearKeyFrame@CUFAnimation@@QAEXXZ" PURGE="0" COMMENT="" />
    <EXPORT ORDINAL="561" NAME="?ClearList@CUFD2DThreadTextureManager@@EAEXXZ" PURGE="0" COMMENT="" />
    <EXPORT ORDINAL="562" NAME="?ClearList@CUFThreadTextureManager@@EAEXXZ" PURGE="0" COMMENT="" />
    <EXPORT ORDINAL="563" NAME="?ClearSelItemsState@CUFListBox@@QAEXXZ" PURGE="0" COMMENT="" />
    <EXPORT ORDINAL="564" NAME="?ClearSelectedContent@CUFEditText@@AAEXXZ" PURGE="0" COMMENT="" />
    <EXPORT ORDINAL="565" NAME="?ClearToggleImgs@CUFStateButton@@IAEXXZ" PURGE="0" COMMENT="" />
    <EXPORT ORDINAL="566" NAME="?Click@CUFMenuItem@@UAEXXZ" PURGE="0" COMMENT="" />
    <EXPORT ORDINAL="567" NAME="?ClipPanelHitTest@CUFControl@@AAEPAVCUFElement@@MM@Z" PURGE="8" COMMENT="" />
    <EXPORT ORDINAL="568" NAME="?ClipRender@CUFDx9Text@@AAEXXZ" PURGE="0" COMMENT="" />
    <EXPORT ORDINAL="569" NAME="?CloneFont@IUFFont@@SAPAV1@PAV1@MABV?$basic_string@_WU?$char_traits@_W@std@@V?$allocator@_W@2@@std@@1@Z" PURGE="0" COMMENT="" />
    <EXPORT ORDINAL="570" NAME="?CloseDropDownList@CUFComboBox@@UAEXXZ" PURGE="0" COMMENT="" />
    <EXPORT ORDINAL="571" NAME="?CloseLogFile@CUFLog@@CAXXZ" PURGE="0" COMMENT="" />
    <EXPORT ORDINAL="572" NAME="?CoerceMiddle@CUFRangeBase@@IAEXAAMMM@Z" PURGE="12" COMMENT="" />
    <EXPORT ORDINAL="573" NAME="?CommonGetLineAreaWork@CUFDWriteText@@AAEXAAUtagUFSIZEF_t@@_N@Z" PURGE="8" COMMENT="" />
    <EXPORT ORDINAL="574" NAME="?ComputeDownImageLength@CUFDLSliderBar@@IAE_NAAM0@Z" PURGE="8" COMMENT="" />
    <EXPORT ORDINAL="575" NAME="?ComputeRangeBarLengths@CUFProgressBar@@MAE_NAAM00@Z" PURGE="12" COMMENT="" />
    <EXPORT ORDINAL="576" NAME="?ComputeRangeBarLengths@CUFRangeBase@@MAE_NAAM00@Z" PURGE="12" COMMENT="" />
    <EXPORT ORDINAL="577" NAME="?ComputeRangeBarLengths@CUFScrollBar@@MAE_NAAM00@Z" PURGE="12" COMMENT="" />
    <EXPORT ORDINAL="578" NAME="?ComputeRangeBarLengths@CUFSliderBar@@MAE_NAAM00@Z" PURGE="12" COMMENT="" />
    <EXPORT ORDINAL="579" NAME="?ComputeValueFromDistance@CUFRangeBase@@IAEMM@Z" PURGE="4" COMMENT="" />
    <EXPORT ORDINAL="580" NAME="?ComputeValueFromPos@CUFRangeBase@@IAEMMM@Z" PURGE="8" COMMENT="" />
    <EXPORT ORDINAL="581" NAME="?Continue@CUFThreadTextureManager@@QAEXXZ" PURGE="0" COMMENT="" />
    <EXPORT ORDINAL="582" NAME="?ConvertLogLevel@CUFLog@@AAEXABV?$basic_string@_WU?$char_traits@_W@std@@V?$allocator@_W@2@@std@@@Z" PURGE="4" COMMENT="" />
    <EXPORT ORDINAL="583" NAME="?CoverWCP@CUFPopUPWCP@@QAE_N_N@Z" PURGE="4" COMMENT="" />
    <EXPORT ORDINAL="584" NAME="?CoverWCP@CUFWCPMenu@@UAE_N_N@Z" PURGE="4" COMMENT="" />
    <EXPORT ORDINAL="585" NAME="?CreatHorizontalScrollBar@CUFScrollViewer@@MAEPAVCUFScrollBar@@XZ" PURGE="0" COMMENT="" />
    <EXPORT ORDINAL="586" NAME="?CreatVerticalScrollBar@CUFScrollViewer@@MAEPAVCUFScrollBar@@XZ" PURGE="0" COMMENT="" />
    <EXPORT ORDINAL="587" NAME="?Create@CUFChildWnd@@UAE_NQAUtagUFPOPWNDPARAMETER@@@Z" PURGE="4" COMMENT="" />
    <EXPORT ORDINAL="588" NAME="?Create@CUFPen@@AAE_NPAVIUFDevice@@@Z" PURGE="4" COMMENT="" />
    <EXPORT ORDINAL="589" NAME="?CreateActiveImg@CUFButton@@AAEXABVCUFBackImage@@@Z" PURGE="4" COMMENT="" />
    <EXPORT ORDINAL="590" NAME="?CreateBuffer@CUFDx10MetaProperty@@AAEJPAXHPAFHW4enumVERTEXTYPE@@@Z" PURGE="20" COMMENT="" />
    <EXPORT ORDINAL="591" NAME="?CreateChildWnd@CUFEmptyDeviceWnd@@AAE_NXZ" PURGE="0" COMMENT="" />
    <EXPORT ORDINAL="592" NAME="?CreateChildWnd@CUFWinPopupPanel@@AAE_NXZ" PURGE="0" COMMENT="" />
    <EXPORT ORDINAL="593" NAME="?CreateClipTitle@CUFDx9Text@@AAEXHH@Z" PURGE="8" COMMENT="" />
    <EXPORT ORDINAL="594" NAME="?CreateCombox@CUFComboBox@@QAEXXZ" PURGE="0" COMMENT="" />
    <EXPORT ORDINAL="595" NAME="?CreateCompatibleDeviceResources@CUFWndPanel@@IAE_NII@Z" PURGE="8" COMMENT="" />
    <EXPORT ORDINAL="596" NAME="?CreateD2D1Bitmap@CUFD2DTextureManager@@SAJPAUIWICImagingFactory@@PAUIWICBitmapDecoder@@PAPAUID2D1Bitmap@@PAUtagTEXTUREINFO_t@@@Z" PURGE="0" COMMENT="" />
    <EXPORT ORDINAL="597" NAME="?CreateD2D1RenderTarget@CUFD2DDevice@@SAPAUID2D1RenderTarget@@PAUIDXGISurface@@@Z" PURGE="0" COMMENT="" />
    <EXPORT ORDINAL="598" NAME="?CreateD2D1RenderTarget@CUFRenderAdapter10@@IAEXXZ" PURGE="0" COMMENT="" />
    <EXPORT ORDINAL="599" NAME="?CreateDXGIResource@CUFD2DDxgiRenderAdapter@@AAEJII@Z" PURGE="8" COMMENT="" />
    <EXPORT ORDINAL="600" NAME="?CreateDXGISizedResource@CUFD2DDxgiRenderAdapter@@AAEJII@Z" PURGE="8" COMMENT="" />
    <EXPORT ORDINAL="601" NAME="?CreateDXGITarget@CUFD2D3DEffectResource@@AAE_NXZ" PURGE="0" COMMENT="" />
    <EXPORT ORDINAL="602" NAME="?CreateDevice@CDeviceCreator@@SAPAVIUFDevice@@W4enumRENDER_PLAT@@J@Z" PURGE="0" COMMENT="" />
    <EXPORT ORDINAL="603" NAME="?CreateDevice@CUFDx10Device@@AAEJII_N@Z" PURGE="12" COMMENT="" />
    <EXPORT ORDINAL="604" NAME="?CreateDevice@CUFDxDevice@@AAEJII_N@Z" PURGE="12" COMMENT="" />
    <EXPORT ORDINAL="605" NAME="?CreateDevice@CUFWin32Window@@AAE_NW4enumRENDER_PLAT@@@Z" PURGE="4" COMMENT="" />
    <EXPORT ORDINAL="606" NAME="?CreateEllipse@CUFD2DMetaProperty@@UAE_NABUtagUFRECTF_t@@KH@Z" PURGE="12" COMMENT="" />
    <EXPORT ORDINAL="607" NAME="?CreateEllipse@CUFDx10MetaProperty@@UAE_NABUtagUFRECTF_t@@KH@Z" PURGE="12" COMMENT="" />
    <EXPORT ORDINAL="608" NAME="?CreateEllipse@CUFDxMetaProperty@@UAE_NABUtagUFRECTF_t@@KH@Z" PURGE="12" COMMENT="" />
    <EXPORT ORDINAL="609" NAME="?CreateEngine@CUFDxSound@@AAEJXZ" PURGE="0" COMMENT="" />
    <EXPORT ORDINAL="610" NAME="?CreateImageRect@CUFD2DMetaProperty@@UAE_NABUtagUFRECTF_t@@K@Z" PURGE="8" COMMENT="" />
    <EXPORT ORDINAL="611" NAME="?CreateImageRect@CUFDx10MetaProperty@@UAE_NABUtagUFRECTF_t@@K@Z" PURGE="8" COMMENT="" />
    <EXPORT ORDINAL="612" NAME="?CreateImageRect@CUFDxMetaProperty@@UAE_NABUtagUFRECTF_t@@K@Z" PURGE="8" COMMENT="" />
    <EXPORT ORDINAL="613" NAME="?CreateImageVertex@CUFDxMetaProperty@@AAE_NPAUtagUFIMAGEVERTEX_t@@H@Z" PURGE="8" COMMENT="" />
    <EXPORT ORDINAL="614" NAME="?CreateItemTexture@CUFThreadTextureManager@@AAE_NPAUtagTEXQUERYITEM_t@@PAPAX@Z" PURGE="8" COMMENT="" />
    <EXPORT ORDINAL="615" NAME="?CreateLine@CUFD2DMetaProperty@@UAE_NABUtagUFCUSTOMVERTEX_t@@0@Z" PURGE="8" COMMENT="" />
    <EXPORT ORDINAL="616" NAME="?CreateLine@CUFDx10MetaProperty@@UAE_NABUtagUFCUSTOMVERTEX_t@@0@Z" PURGE="8" COMMENT="" />
    <EXPORT ORDINAL="617" NAME="?CreateLine@CUFDxMetaProperty@@UAE_NABUtagUFCUSTOMVERTEX_t@@0@Z" PURGE="8" COMMENT="" />
    <EXPORT ORDINAL="618" NAME="?CreatePolygon@CUFD2DMetaProperty@@UAE_NAAV?$vector@PAUtagUFCUSTOMVERTEX_t@@V?$allocator@PAUtagUFCUSTOMVERTEX_t@@@std@@@std@@@Z" PURGE="4" COMMENT="" />
    <EXPORT ORDINAL="619" NAME="?CreatePolygon@CUFDx10MetaProperty@@UAE_NAAV?$vector@PAUtagUFCUSTOMVERTEX_t@@V?$allocator@PAUtagUFCUSTOMVERTEX_t@@@std@@@std@@@Z" PURGE="4" COMMENT="" />
    <EXPORT ORDINAL="620" NAME="?CreatePolygon@CUFDxMetaProperty@@UAE_NAAV?$vector@PAUtagUFCUSTOMVERTEX_t@@V?$allocator@PAUtagUFCUSTOMVERTEX_t@@@std@@@std@@@Z" PURGE="4" COMMENT="" />
    <EXPORT ORDINAL="621" NAME="?CreateProperty@CUFMetaBase@@AAE_NXZ" PURGE="0" COMMENT="" />
    <EXPORT ORDINAL="622" NAME="?CreateRect@CUFD2DMetaProperty@@UAE_NABUtagUFRECTF_t@@PBK@Z" PURGE="8" COMMENT="" />
    <EXPORT ORDINAL="623" NAME="?CreateRect@CUFDx10MetaProperty@@UAE_NABUtagUFRECTF_t@@PBK@Z" PURGE="8" COMMENT="" />
    <EXPORT ORDINAL="624" NAME="?CreateRect@CUFDxMetaProperty@@UAE_NABUtagUFRECTF_t@@PBK@Z" PURGE="8" COMMENT="" />
    <EXPORT ORDINAL="625" NAME="?CreateRenderAdapter@CUFWinChildPanel@@AAE_NXZ" PURGE="0" COMMENT="" />
    <EXPORT ORDINAL="626" NAME="?CreateRenderAdapter@CUFWinPopupPanel@@AAE_NXZ" PURGE="0" COMMENT="" />
    <EXPORT ORDINAL="627" NAME="?CreateRenderAdapter@IUFRenderAdapter@@SAPAV1@W4enumRENDER_PLAT@@PAUIUnknown@@PAUHWND__@@II@Z" PURGE="0" COMMENT="" />
    <EXPORT ORDINAL="628" NAME="?CreateRenderMeta@CUFD2D3DEffect@@AAE_NXZ" PURGE="0" COMMENT="" />
    <EXPORT ORDINAL="629" NAME="?CreateRenderTargetView@CUFRenderAdapter10@@AAE_NXZ" PURGE="0" COMMENT="" />
    <EXPORT ORDINAL="630" NAME="?CreateSound@CUFDxSound@@AAE_NPAX@Z" PURGE="4" COMMENT="" />
    <EXPORT ORDINAL="631" NAME="?CreateSoundBuffer@CUFDxSound@@AAE_NPAUtWAVEFORMATEX@@@Z" PURGE="4" COMMENT="" />
    <EXPORT ORDINAL="632" NAME="?CreateSprite@CUFDxFont@@QAE_NXZ" PURGE="0" COMMENT="" />
    <EXPORT ORDINAL="633" NAME="?CreateStateImg@CUFStateButton@@IAEPAVTOGGLEIMAGES@@ABVCUFBackImage@@@Z" PURGE="4" COMMENT="" />
    <EXPORT ORDINAL="634" NAME="?CreateSubWnd@CUFWinChildPanel@@AAEXXZ" PURGE="0" COMMENT="" />
    <EXPORT ORDINAL="635" NAME="?CreateSwapChain@CUFRenderAdapter9@@AAE_NXZ" PURGE="0" COMMENT="" />
    <EXPORT ORDINAL="636" NAME="?CreateTextLayout@CUFDWriteFont@@QAE_NABV?$basic_string@_WU?$char_traits@_W@std@@V?$allocator@_W@2@@std@@MMKPAPAUIDWriteTextLayout@@@Z" PURGE="20" COMMENT="" />
    <EXPORT ORDINAL="637" NAME="?CreateTexture@CUFD2DTextureManager@@UAEIABV?$basic_string@_WU?$char_traits@_W@std@@V?$allocator@_W@2@@std@@PAUtagTEXTUREINFO_t@@PAPAX_N@Z" PURGE="16" COMMENT="" />
    <EXPORT ORDINAL="638" NAME="?CreateTexture@CUFD2DTextureManager@@UAE_NPAXPAUtagTEXTUREINFO_t@@PAPAX@Z" PURGE="12" COMMENT="" />
    <EXPORT ORDINAL="639" NAME="?CreateTexture@CUFDx10TexRVManager@@UAEIABV?$basic_string@_WU?$char_traits@_W@std@@V?$allocator@_W@2@@std@@PAUtagTEXTUREINFO_t@@PAPAX_N@Z" PURGE="16" COMMENT="" />
    <EXPORT ORDINAL="640" NAME="?CreateTexture@CUFDx10TexRVManager@@UAE_NPAXPAUtagTEXTUREINFO_t@@PAPAX@Z" PURGE="12" COMMENT="" />
    <EXPORT ORDINAL="641" NAME="?CreateTexture@CUFDxTextureManager@@UAEIABV?$basic_string@_WU?$char_traits@_W@std@@V?$allocator@_W@2@@std@@PAUtagTEXTUREINFO_t@@PAPAX_N@Z" PURGE="16" COMMENT="" />
    <EXPORT ORDINAL="642" NAME="?CreateTexture@CUFDxTextureManager@@UAE_NPAXPAUtagTEXTUREINFO_t@@PAPAX@Z" PURGE="12" COMMENT="" />
    <EXPORT ORDINAL="643" NAME="?CreateTextureByFilePath@CUFD2DThreadTextureManager@@EAE_NABV?$basic_string@_WU?$char_traits@_W@std@@V?$allocator@_W@2@@std@@PAPAX@Z" PURGE="8" COMMENT="" />
    <EXPORT ORDINAL="644" NAME="?CreateTextureByFilePath@CUFThreadDX10TexManager@@UAE_NABV?$basic_string@_WU?$char_traits@_W@std@@V?$allocator@_W@2@@std@@PAPAX@Z" PURGE="8" COMMENT="" />
    <EXPORT ORDINAL="645" NAME="?CreateTextureByFilePath@CUFThreadDX9TexManager@@UAE_NABV?$basic_string@_WU?$char_traits@_W@std@@V?$allocator@_W@2@@std@@PAPAX@Z" PURGE="8" COMMENT="" />
    <EXPORT ORDINAL="646" NAME="?CreateTextureByFilePath@CUFThreadTextureManager@@EAE_NABV?$basic_string@_WU?$char_traits@_W@std@@V?$allocator@_W@2@@std@@PAPAX@Z" PURGE="8" COMMENT="" />
    <EXPORT ORDINAL="647" NAME="?CreateTextureByIStream@CUFD2DThreadTextureManager@@EAE_NPAXPAPAX@Z" PURGE="8" COMMENT="" />
    <EXPORT ORDINAL="648" NAME="?CreateTextureByIStream@CUFThreadDX10TexManager@@UAE_NPAXPAPAX@Z" PURGE="8" COMMENT="" />
    <EXPORT ORDINAL="649" NAME="?CreateTextureByIStream@CUFThreadDX9TexManager@@UAE_NPAXPAPAX@Z" PURGE="8" COMMENT="" />
    <EXPORT ORDINAL="650" NAME="?CreateTextureByIStream@CUFThreadTextureManager@@EAE_NPAXPAPAX@Z" PURGE="8" COMMENT="" />
    <EXPORT ORDINAL="651" NAME="?CreateTextureByMemBlock@CUFD2DThreadTextureManager@@EAE_NPAXIPAPAX@Z" PURGE="12" COMMENT="" />
    <EXPORT ORDINAL="652" NAME="?CreateTextureByMemBlock@CUFThreadDX10TexManager@@UAE_NPAXIPAPAX@Z" PURGE="12" COMMENT="" />
    <EXPORT ORDINAL="653" NAME="?CreateTextureByMemBlock@CUFThreadDX9TexManager@@UAE_NPAXIPAPAX@Z" PURGE="12" COMMENT="" />
    <EXPORT ORDINAL="654" NAME="?CreateTextureByMemBlock@CUFThreadTextureManager@@EAE_NPAXIPAPAX@Z" PURGE="12" COMMENT="" />
    <EXPORT ORDINAL="655" NAME="?CreateTextureByResID@CUFD2DTextureManager@@UAEIHPAXPAUtagTEXTUREINFO_t@@@Z" PURGE="12" COMMENT="" />
    <EXPORT ORDINAL="656" NAME="?CreateTextureByResID@CUFDx10TexRVManager@@UAEIHPAXPAUtagTEXTUREINFO_t@@@Z" PURGE="12" COMMENT="" />
    <EXPORT ORDINAL="657" NAME="?CreateTextureByResID@CUFDxTextureManager@@UAEIHPAXPAUtagTEXTUREINFO_t@@@Z" PURGE="12" COMMENT="" />
    <EXPORT ORDINAL="658" NAME="?CreateTriangle@CUFD2DMetaProperty@@UAE_NABUtagUFCUSTOMVERTEX_t@@00@Z" PURGE="12" COMMENT="" />
    <EXPORT ORDINAL="659" NAME="?CreateTriangle@CUFDx10MetaProperty@@UAE_NABUtagUFCUSTOMVERTEX_t@@00@Z" PURGE="12" COMMENT="" />
    <EXPORT ORDINAL="660" NAME="?CreateTriangle@CUFDxMetaProperty@@UAE_NABUtagUFCUSTOMVERTEX_t@@00@Z" PURGE="12" COMMENT="" />
    <EXPORT ORDINAL="661" NAME="?CreateUFFont@CUFDWriteFont@@UAE_NPBUtagUFFONTPARAMETER_t@@@Z" PURGE="4" COMMENT="" />
    <EXPORT ORDINAL="662" NAME="?CreateUFFont@CUFDxFont@@UAE_NPBUtagUFFONTPARAMETER_t@@@Z" PURGE="4" COMMENT="" />
    <EXPORT ORDINAL="663" NAME="?CreateVertex@CUFDxMetaProperty@@AAE_NPAUtagUFCUSTOMVERTEX_t@@H@Z" PURGE="8" COMMENT="" />
    <EXPORT ORDINAL="664" NAME="?CreateVertex@CUFRectMeta@@QAE_NABUtagUFRECTF_t@@PAK@Z" PURGE="8" COMMENT="" />
    <EXPORT ORDINAL="665" NAME="?CreateWnd@CUFWin32Window@@AAE_NXZ" PURGE="0" COMMENT="" />
    <EXPORT ORDINAL="666" NAME="?CtrlCHandle@CUFPlatformHelper@@SA_NABV?$basic_string@_WU?$char_traits@_W@std@@V?$allocator@_W@2@@std@@@Z" PURGE="0" COMMENT="" />
    <EXPORT ORDINAL="667" NAME="?CtrlVHandle@CUFPlatformHelper@@SA_NAAV?$basic_string@_WU?$char_traits@_W@std@@V?$allocator@_W@2@@std@@@Z" PURGE="0" COMMENT="" />
    <EXPORT ORDINAL="668" NAME="?DeactivateMenuItem@CUFMenuItem@@UAEX_N@Z" PURGE="4" COMMENT="" />
    <EXPORT ORDINAL="669" NAME="?DecreaseLine@CUFScrollBar@@QAEXXZ" PURGE="0" COMMENT="" />
    <EXPORT ORDINAL="670" NAME="?DecreasePage@CUFScrollBar@@QAEXXZ" PURGE="0" COMMENT="" />
    <EXPORT ORDINAL="671" NAME="?DefEventProc@CUFWin32EventProcessor@@UAEJPAX@Z" PURGE="4" COMMENT="" />
    <EXPORT ORDINAL="672" NAME="?DefaultArrange@CUFEditText@@MAEXXZ" PURGE="0" COMMENT="" />
    <EXPORT ORDINAL="673" NAME="?DeleteEventProcessor@CUFPlatformHelper@@SAXPAVIUFEventProcessor@@@Z" PURGE="0" COMMENT="" />
    <EXPORT ORDINAL="674" NAME="?DeliverToPredecessors@CUFEventDispatcher@@CA_NPAUtagUFEVENT_t@@PAVCUFEventTarget@@@Z" PURGE="0" COMMENT="" />
    <EXPORT ORDINAL="675" NAME="?DesignChange@IUFWindow@@AAEXXZ" PURGE="0" COMMENT="" />
    <EXPORT ORDINAL="676" NAME="?Destroy@CUFChildWnd@@UAEXXZ" PURGE="0" COMMENT="" />
    <EXPORT ORDINAL="677" NAME="?DestroyAccelTable@CUFWin32AccelManager@@AAEXXZ" PURGE="0" COMMENT="" />
    <EXPORT ORDINAL="678" NAME="?DestroyMainWindow@CUFPlatformHelper@@SAXXZ" PURGE="0" COMMENT="" />
    <EXPORT ORDINAL="679" NAME="?DestroyWnd@CUFWin32Window@@AAEXXZ" PURGE="0" COMMENT="" />
    <EXPORT ORDINAL="680" NAME="?DispatchEvent@CUFEventDispatcher@@SA_NPAUtagUFEVENT_t@@@Z" PURGE="0" COMMENT="" />
    <EXPORT ORDINAL="681" NAME="?DispatchFlickEvent@CUFEventDispatcher@@CA_NPAUtagUFFLICKEVENT_t@@@Z" PURGE="0" COMMENT="" />
    <EXPORT ORDINAL="682" NAME="?DispatchGestureEvent@CUFEventDispatcher@@CA_NPAUtagUFGESTUREEVENT_t@@@Z" PURGE="0" COMMENT="" />
    <EXPORT ORDINAL="683" NAME="?DispatchGestureNotifyEvent@CUFEventDispatcher@@CA_NPAUtagUFGESTURENOTIFYEVENT_t@@@Z" PURGE="0" COMMENT="" />
    <EXPORT ORDINAL="684" NAME="?DispatchGestureQueryEvent@CUFEventDispatcher@@CA_NPAUtagUFGESTUREQUERYSTATUSEVENT_t@@@Z" PURGE="0" COMMENT="" />
    <EXPORT ORDINAL="685" NAME="?DispatchIdleEvent@CUFEventDispatcher@@CA_NPAUtagUFEVENT_t@@@Z" PURGE="0" COMMENT="" />
    <EXPORT ORDINAL="686" NAME="?DispatchKeyEvent@CUFEventDispatcher@@CA_NPAUtagUFKEYEVENT_t@@@Z" PURGE="0" COMMENT="" />
    <EXPORT ORDINAL="687" NAME="?DispatchMouseEvent@CUFEventDispatcher@@CA_NPAUtagUFMOUSEEVENT_t@@@Z" PURGE="0" COMMENT="" />
    <EXPORT ORDINAL="688" NAME="?DispatchMouseOut@CUFEventDispatcher@@CAXPAVCUFEventTarget@@0PAUtagUFMOUSEEVENT_t@@@Z" PURGE="0" COMMENT="" />
    <EXPORT ORDINAL="689" NAME="?DispatchSetCursorEvent@CUFEventDispatcher@@CA_NPAUtagUFSETCURSOREVENT_t@@@Z" PURGE="0" COMMENT="" />
    <EXPORT ORDINAL="690" NAME="?DispatchSingleTouchEvent@CUFEventDispatcher@@CA_NPAUtagUFTOUCHEVENT_t@@@Z" PURGE="0" COMMENT="" />
    <EXPORT ORDINAL="691" NAME="?DispatchTouchEvent@CUFEventDispatcher@@CA_NPAUtagUFTOUCHEVENT_t@@@Z" PURGE="0" COMMENT="" />
    <EXPORT ORDINAL="692" NAME="?DispatchWinMsgEvent@CUFEventDispatcher@@CA_NPAUtagUFWINMSGEVENT_t@@@Z" PURGE="0" COMMENT="" />
    <EXPORT ORDINAL="693" NAME="?DoAnimation@CUFAnimation@@QAE_NXZ" PURGE="0" COMMENT="" />
    <EXPORT ORDINAL="694" NAME="?DoAnimation@CUFAnimationManager@@QAE_NXZ" PURGE="0" COMMENT="" />
    <EXPORT ORDINAL="695" NAME="?DoAnimation@CUFControl@@UAEXXZ" PURGE="0" COMMENT="" />
    <EXPORT ORDINAL="696" NAME="?DoAnimation@CUFElement@@UAEXXZ" PURGE="0" COMMENT="" />
    <EXPORT ORDINAL="697" NAME="?DoAnimation@CUFLayer@@UAEXXZ" PURGE="0" COMMENT="" />
    <EXPORT ORDINAL="698" NAME="?DoAnimation@CUFLayerManager@@QAEXXZ" PURGE="0" COMMENT="" />
    <EXPORT ORDINAL="699" NAME="?DoLButtonUp@CUFButton@@MAEXMM@Z" PURGE="8" COMMENT="" />
    <EXPORT ORDINAL="700" NAME="?DoLButtonUp@CUFDecorateButton@@MAEXMM@Z" PURGE="8" COMMENT="" />
    <EXPORT ORDINAL="701" NAME="?DoLButtonUp@CUFStateButton@@MAEXMM@Z" PURGE="8" COMMENT="" />
    <EXPORT ORDINAL="702" NAME="?DoLastKeyFrame@CUFAnimation@@AAEXXZ" PURGE="0" COMMENT="" />
    <EXPORT ORDINAL="703" NAME="?DoMouseLButtonDown@CUFThumb@@MAEXMM@Z" PURGE="8" COMMENT="" />
    <EXPORT ORDINAL="704" NAME="?DoThreadProc@CUFThreadTextureManager@@AAEXXZ" PURGE="0" COMMENT="" />
    <EXPORT ORDINAL="705" NAME="?Draw@CUFPen@@QAE_NPBUD3DXVECTOR3@@KPBUD3DXMATRIX@@K@Z" PURGE="16" COMMENT="" />
    <EXPORT ORDINAL="706" NAME="?DrawRotateText@CUFDWriteFont@@UAEHABV?$basic_string@_WU?$char_traits@_W@std@@V?$allocator@_W@2@@std@@PAUtagUFRECTF_t@@KKPAUtagUFPOINTF_t@@PAUtagUFROTATION_t@@PAX@Z" PURGE="28" COMMENT="" />
    <EXPORT ORDINAL="707" NAME="?DrawRotateText@CUFDxFont@@UAEHABV?$basic_string@_WU?$char_traits@_W@std@@V?$allocator@_W@2@@std@@PAUtagUFRECTF_t@@KKPAUtagUFPOINTF_t@@PAUtagUFROTATION_t@@PAX@Z" PURGE="28" COMMENT="" />
    <EXPORT ORDINAL="708" NAME="?DrawScaleText@CUFDWriteFont@@UAEHABV?$basic_string@_WU?$char_traits@_W@std@@V?$allocator@_W@2@@std@@HPAUtagUFRECTF_t@@KKPAX@Z" PURGE="24" COMMENT="" />
    <EXPORT ORDINAL="709" NAME="?DrawScaleText@CUFDxFont@@UAEHABV?$basic_string@_WU?$char_traits@_W@std@@V?$allocator@_W@2@@std@@HPAUtagUFRECTF_t@@KKPAX@Z" PURGE="24" COMMENT="" />
    <EXPORT ORDINAL="710" NAME="?DrawTextW@CUFDWriteFont@@UAEHABV?$basic_string@_WU?$char_traits@_W@std@@V?$allocator@_W@2@@std@@HPAUtagUFRECTF_t@@KKPAX@Z" PURGE="24" COMMENT="" />
    <EXPORT ORDINAL="711" NAME="?DrawTextW@CUFDxFont@@UAEHABV?$basic_string@_WU?$char_traits@_W@std@@V?$allocator@_W@2@@std@@HPAUtagUFRECTF_t@@KKPAX@Z" PURGE="24" COMMENT="" />
    <EXPORT ORDINAL="712" NAME="?ElementSizeChangedFunc@CUFPanel@@AAEXPAXUtagUFSIZEF_t@@@Z" PURGE="12" COMMENT="" />
    <EXPORT ORDINAL="713" NAME="?Enable@CUFButton@@UAE_N_N@Z" PURGE="4" COMMENT="" />
    <EXPORT ORDINAL="714" NAME="?Enable@CUFComboBox@@UAE_N_N@Z" PURGE="4" COMMENT="" />
    <EXPORT ORDINAL="715" NAME="?Enable@CUFDecorateButton@@UAE_N_N@Z" PURGE="4" COMMENT="" />
    <EXPORT ORDINAL="716" NAME="?Enable@CUFElement@@UAE_N_N@Z" PURGE="4" COMMENT="" />
    <EXPORT ORDINAL="717" NAME="?Enable@CUFMenuItem@@UAE_N_N@Z" PURGE="4" COMMENT="" />
    <EXPORT ORDINAL="718" NAME="?Enable@CUFOverlayButton@@UAE_N_N@Z" PURGE="4" COMMENT="" />
    <EXPORT ORDINAL="719" NAME="?Enable@CUFOverlayContainer@@UAE_N_N@Z" PURGE="4" COMMENT="" />
    <EXPORT ORDINAL="720" NAME="?Enable@CUFRangeBase@@UAE_N_N@Z" PURGE="4" COMMENT="" />
    <EXPORT ORDINAL="721" NAME="?EnableBorder@CUFControl@@UAEX_N@Z" PURGE="4" COMMENT="" />
    <EXPORT ORDINAL="722" NAME="?EnableCanvasClip@CUFMenuItem@@QAE_N_N@Z" PURGE="4" COMMENT="" />
    <EXPORT ORDINAL="723" NAME="?EnableCenterRtotate@CUFElement@@UAEX_N@Z" PURGE="4" COMMENT="" />
    <EXPORT ORDINAL="724" NAME="?EnableCenterRtotate@CUFText@@UAEX_N@Z" PURGE="4" COMMENT="" />
    <EXPORT ORDINAL="725" NAME="?EnableChildWnd@CUFElement@@QAEX_N@Z" PURGE="4" COMMENT="" />
    <EXPORT ORDINAL="726" NAME="?EnableClip@CUFControl@@UAEX_N@Z" PURGE="4" COMMENT="" />
    <EXPORT ORDINAL="727" NAME="?EnableDelete@CUFAnimation@@QAEX_N@Z" PURGE="4" COMMENT="" />
    <EXPORT ORDINAL="728" NAME="?EnableDraw@CUFElement@@UAEX_N@Z" PURGE="4" COMMENT="" />
    <EXPORT ORDINAL="729" NAME="?EnableDraw@CUFRangeBase@@UAEX_N@Z" PURGE="4" COMMENT="" />
    <EXPORT ORDINAL="730" NAME="?EnableDraw@CUFText@@UAEX_N@Z" PURGE="4" COMMENT="" />
    <EXPORT ORDINAL="731" NAME="?EnableFinishNotify@CUFAnimation@@QAEX_N@Z" PURGE="4" COMMENT="" />
    <EXPORT ORDINAL="732" NAME="?EnableFocus@CUFElement@@UAEX_N@Z" PURGE="4" COMMENT="" />
    <EXPORT ORDINAL="733" NAME="?EnableHittest@CUFElement@@UAEX_N@Z" PURGE="4" COMMENT="" />
    <EXPORT ORDINAL="734" NAME="?EnableItemContainerClip@CUFMenu@@QAE_N_N@Z" PURGE="4" COMMENT="" />
    <EXPORT ORDINAL="735" NAME="?EnableMenuPanelClip@CUFLayer@@QAEX_N@Z" PURGE="4" COMMENT="" />
    <EXPORT ORDINAL="736" NAME="?EnableMoveToPoint@CUFSliderBar@@UAEX_N@Z" PURGE="4" COMMENT="" />
    <EXPORT ORDINAL="737" NAME="?EnableRender@IUFWindow@@UAEX_N@Z" PURGE="4" COMMENT="" />
    <EXPORT ORDINAL="738" NAME="?EnableShadow@CUFDWriteFont@@UAEX_N@Z" PURGE="4" COMMENT="" />
    <EXPORT ORDINAL="739" NAME="?EnableShadow@CUFDWriteText@@UAEX_N@Z" PURGE="4" COMMENT="" />
    <EXPORT ORDINAL="740" NAME="?EnableShadow@CUFDx9Text@@UAEX_N@Z" PURGE="4" COMMENT="" />
    <EXPORT ORDINAL="741" NAME="?EnableShadow@CUFDxFont@@UAEX_N@Z" PURGE="4" COMMENT="" />
    <EXPORT ORDINAL="742" NAME="?EnableShadow@CUFText@@UAEX_N@Z" PURGE="4" COMMENT="" />
    <EXPORT ORDINAL="743" NAME="?EnableShadow@CUFTextMeta@@QAEX_N@Z" PURGE="4" COMMENT="" />
    <EXPORT ORDINAL="744" NAME="?EnableSnapToTick@CUFSliderBar@@QAEX_N@Z" PURGE="4" COMMENT="" />
    <EXPORT ORDINAL="745" NAME="?EnableStepButton@CUFScrollBar@@QAEX_N@Z" PURGE="4" COMMENT="" />
    <EXPORT ORDINAL="746" NAME="?EnableStepButton@CUFScrollBarStyle@@QAEX_N@Z" PURGE="4" COMMENT="" />
    <EXPORT ORDINAL="747" NAME="?EnableTabStop@CUFElement@@UAEX_N@Z" PURGE="4" COMMENT="" />
    <EXPORT ORDINAL="748" NAME="?EnableThumbOutTrack@CUFSliderBar@@QAEX_N@Z" PURGE="4" COMMENT="" />
    <EXPORT ORDINAL="749" NAME="?EnableUnderLine@CUFDWriteText@@UAEX_N@Z" PURGE="4" COMMENT="" />
    <EXPORT ORDINAL="750" NAME="?EnableUnderLine@CUFDx9Text@@UAEX_N@Z" PURGE="4" COMMENT="" />
    <EXPORT ORDINAL="751" NAME="?EnableUnderLine@CUFText@@UAEX_N@Z" PURGE="4" COMMENT="" />
    <EXPORT ORDINAL="752" NAME="?EnableWndRGN@CUFWCPMenu@@QAEX_N@Z" PURGE="4" COMMENT="" />
    <EXPORT ORDINAL="753" NAME="?EnableWndRGN@CUFWinPopupPanel@@QAEX_N@Z" PURGE="4" COMMENT="" />
    <EXPORT ORDINAL="754" NAME="?EndArrange@CUFPanel@@IAEXXZ" PURGE="0" COMMENT="" />
    <EXPORT ORDINAL="755" NAME="?EndMenu@CUFMenu@@UAEXXZ" PURGE="0" COMMENT="" />
    <EXPORT ORDINAL="756" NAME="?EndMenu@CUFWCPMenu@@UAEXXZ" PURGE="0" COMMENT="" />
    <EXPORT ORDINAL="757" NAME="?EndModalEventLoop@CUFEventManager@@QAEXXZ" PURGE="0" COMMENT="" />
    <EXPORT ORDINAL="758" NAME="?EndModalLoop@CUFLayer@@IAEXJ@Z" PURGE="4" COMMENT="" />
    <EXPORT ORDINAL="759" NAME="?EndRender@CUFD2DDevice@@UAE_NXZ" PURGE="0" COMMENT="" />
    <EXPORT ORDINAL="760" NAME="?EndRender@CUFD2DDeviceDxgi@@UAE_NXZ" PURGE="0" COMMENT="" />
    <EXPORT ORDINAL="761" NAME="?EndRender@CUFD2DDxgiRenderAdapter@@UAEXXZ" PURGE="0" COMMENT="" />
    <EXPORT ORDINAL="762" NAME="?EndRender@CUFDx10Device@@UAE_NXZ" PURGE="0" COMMENT="" />
    <EXPORT ORDINAL="763" NAME="?EndRender@CUFDxDevice@@UAE_NXZ" PURGE="0" COMMENT="" />
    <EXPORT ORDINAL="764" NAME="?EndRender@CUFRenderAdapter10@@UAEXXZ" PURGE="0" COMMENT="" />
    <EXPORT ORDINAL="765" NAME="?EndRender@CUFRenderAdapter9@@UAEXXZ" PURGE="0" COMMENT="" />
    <EXPORT ORDINAL="766" NAME="?EndRender@IUFD2DRenderAdapter@@UAEXXZ" PURGE="0" COMMENT="" />
    <EXPORT ORDINAL="767" NAME="?EraseAll@CUFPanel@@UAEXXZ" PURGE="0" COMMENT="" />
    <EXPORT ORDINAL="768" NAME="?EraseChild@CUFControl@@QAE_NPAVCUFElement@@@Z" PURGE="4" COMMENT="" />
    <EXPORT ORDINAL="769" NAME="?EraseElement@CUFPanel@@UAE_NI@Z" PURGE="4" COMMENT="" />
    <EXPORT ORDINAL="770" NAME="?EraseElement@CUFPanel@@UAE_NPAVCUFElement@@@Z" PURGE="4" COMMENT="" />
    <EXPORT ORDINAL="771" NAME="?EraseItem@CUFListBox@@QAE_NH@Z" PURGE="4" COMMENT="" />
    <EXPORT ORDINAL="772" NAME="?EraseItem@CUFListBox@@QAE_NPAVCUFItemControl@@@Z" PURGE="4" COMMENT="" />
    <EXPORT ORDINAL="773" NAME="?EraseItems@CUFListBox@@QAEXAAV?$deque@PAVCUFItemControl@@V?$allocator@PAVCUFItemControl@@@std@@@std@@@Z" PURGE="4" COMMENT="" />
    <EXPORT ORDINAL="774" NAME="?ExtendedSelMoveScrViewer@CUFListBox@@IAEXXZ" PURGE="0" COMMENT="" />
    <EXPORT ORDINAL="775" NAME="?Final@CUFApplication@@AAEXXZ" PURGE="0" COMMENT="" />
    <EXPORT ORDINAL="776" NAME="?FindFirstItemInViewport@CUFListBox@@IAE_NPAPAVCUFItemControl@@_N@Z" PURGE="8" COMMENT="" />
    <EXPORT ORDINAL="777" NAME="?FindItemIndex@CUFComboBox@@ABEHPBVCUFComboBoxItem@@@Z" PURGE="4" COMMENT="" />
    <EXPORT ORDINAL="778" NAME="?FindLastItemInViewport@CUFListBox@@IAE_NPAPAVCUFItemControl@@_N@Z" PURGE="8" COMMENT="" />
    <EXPORT ORDINAL="779" NAME="?FindSelItem@CUFListBox@@IAE_NW4enumSELITEMINDEX@@PAPAVCUFItemControl@@@Z" PURGE="8" COMMENT="" />
    <EXPORT ORDINAL="780" NAME="?FireActiveEvent@CUFLayer@@AAEXXZ" PURGE="0" COMMENT="" />
    <EXPORT ORDINAL="781" NAME="?FireClickEvent@CUFButtonBase@@MAEXXZ" PURGE="0" COMMENT="" />
    <EXPORT ORDINAL="782" NAME="?FireHideEvent@CUFLayer@@AAEXXZ" PURGE="0" COMMENT="" />
    <EXPORT ORDINAL="783" NAME="?FireItemLButtonUp@CUFComboBox@@MAEXXZ" PURGE="0" COMMENT="" />
    <EXPORT ORDINAL="784" NAME="?FireRangeBaseLButtonDown@CUFRangeBase@@AAEXMM@Z" PURGE="8" COMMENT="" />
    <EXPORT ORDINAL="785" NAME="?FireRangeBaseLButtonUp@CUFRangeBase@@AAEXMM@Z" PURGE="8" COMMENT="" />
    <EXPORT ORDINAL="786" NAME="?FireRepeatClickEvent@CUFRepeatButton@@MAEXMM@Z" PURGE="8" COMMENT="" />
    <EXPORT ORDINAL="787" NAME="?FireSelectedItemChangedEvent@CUFComboBox@@AAEXPAVCUFItemControl@@0@Z" PURGE="8" COMMENT="" />
    <EXPORT ORDINAL="788" NAME="?FireSlelctedStateChangedEvent@CUFItemControl@@AAEX_N00@Z" PURGE="12" COMMENT="" />
    <EXPORT ORDINAL="789" NAME="?Focus@CUFElement@@UAE_NXZ" PURGE="0" COMMENT="" />
    <EXPORT ORDINAL="790" NAME="?ForceIdle@CUFWin32Window@@UAEX_N@Z" PURGE="4" COMMENT="" />
    <EXPORT ORDINAL="791" NAME="?ForceRender@CUFWinChildPanel@@AAEXXZ" PURGE="0" COMMENT="" />
    <EXPORT ORDINAL="792" NAME="?FormatLogStr@CUFLog@@AAEXAAV?$basic_string@_WU?$char_traits@_W@std@@V?$allocator@_W@2@@std@@HPAD@Z" PURGE="12" COMMENT="" />
    <EXPORT ORDINAL="793" NAME="?GetAbsoluteAngle@CUFElement@@UAE?AUtagUFROTATION_t@@_N@Z" PURGE="8" COMMENT="" />
    <EXPORT ORDINAL="794" NAME="?GetAbsolutePosX@CUFElement@@UAEM_N@Z" PURGE="4" COMMENT="" />
    <EXPORT ORDINAL="795" NAME="?GetAbsolutePosY@CUFElement@@UAEM_N@Z" PURGE="4" COMMENT="" />
    <EXPORT ORDINAL="796" NAME="?GetAbsoluteRect@CUFElement@@UAE?AUtagUFRECTF_t@@_N@Z" PURGE="8" COMMENT="" />
    <EXPORT ORDINAL="797" NAME="?GetAbsoluteScale@CUFElement@@UAEM_N@Z" PURGE="4" COMMENT="" />
    <EXPORT ORDINAL="798" NAME="?GetAbsoluteViewportRect@CUFListBox@@IAE?AUtagUFRECTF_t@@XZ" PURGE="4" COMMENT="" />
    <EXPORT ORDINAL="799" NAME="?GetActiveImage@CUFButton@@UAEXAAVCUFBackImage@@@Z" PURGE="4" COMMENT="" />
    <EXPORT ORDINAL="800" NAME="?GetActiveMenuItem@CUFMenu@@QAEPAVCUFMenuItem@@XZ" PURGE="0" COMMENT="" />
    <EXPORT ORDINAL="801" NAME="?GetActiveModalLayer@CUFLayerManager@@QAEPAVCUFLayer@@XZ" PURGE="0" COMMENT="" />
    <EXPORT ORDINAL="802" NAME="?GetActiveModalLayer@IUFWindow@@UAEPAVCUFLayer@@XZ" PURGE="0" COMMENT="" />
    <EXPORT ORDINAL="803" NAME="?GetAlignment@CUFElement@@UAE?AW4enumALIGNMENT@@XZ" PURGE="0" COMMENT="" />
    <EXPORT ORDINAL="804" NAME="?GetAllItems@CUFItemsControl@@QBEXAAV?$deque@PAVCUFItemControl@@V?$allocator@PAVCUFItemControl@@@std@@@std@@@Z" PURGE="4" COMMENT="" />
    <EXPORT ORDINAL="805" NAME="?GetAllItemsHeight@CUFComboBox@@IAEMXZ" PURGE="0" COMMENT="" />
    <EXPORT ORDINAL="806" NAME="?GetAlpha@CUFElement@@UAEEXZ" PURGE="0" COMMENT="" />
    <EXPORT ORDINAL="807" NAME="?GetAncestorClipRect@CUFElement@@UAE?AUtagUFRECTF_t@@XZ" PURGE="4" COMMENT="" />
    <EXPORT ORDINAL="808" NAME="?GetAngle@CUFElement@@UAE?AUtagUFROTATION_t@@XZ" PURGE="4" COMMENT="" />
    <EXPORT ORDINAL="809" NAME="?GetAspect@IUFWindow@@UBEMXZ" PURGE="0" COMMENT="" />
    <EXPORT ORDINAL="810" NAME="?GetBGAlpha@CUFControl@@UAEEXZ" PURGE="0" COMMENT="" />
    <EXPORT ORDINAL="811" NAME="?GetBGColor@CUFEditText@@QAEKXZ" PURGE="0" COMMENT="" />
    <EXPORT ORDINAL="812" NAME="?GetBackGround@CUFControl@@UAEKXZ" PURGE="0" COMMENT="" />
    <EXPORT ORDINAL="813" NAME="?GetBackImage@CUFButton@@UAEXAAV?$basic_string@_WU?$char_traits@_W@std@@V?$allocator@_W@2@@std@@@Z" PURGE="4" COMMENT="" />
    <EXPORT ORDINAL="814" NAME="?GetBackImage@CUFButtonBase@@UAEXAAV?$basic_string@_WU?$char_traits@_W@std@@V?$allocator@_W@2@@std@@@Z" PURGE="4" COMMENT="" />
    <EXPORT ORDINAL="815" NAME="?GetBackgroundElement@CUFMenu@@QAEPAVCUFElement@@XZ" PURGE="0" COMMENT="" />
    <EXPORT ORDINAL="816" NAME="?GetBlendColor@CUFImage@@QAEXPAUtagBLENDCOLOR_t@@@Z" PURGE="4" COMMENT="" />
    <EXPORT ORDINAL="817" NAME="?GetBlendColor@CUFImageMeta@@QAEXPAUtagBLENDCOLOR_t@@@Z" PURGE="4" COMMENT="" />
    <EXPORT ORDINAL="818" NAME="?GetButtonCount@CUFGroupButton@@QBEHXZ" PURGE="0" COMMENT="" />
    <EXPORT ORDINAL="819" NAME="?GetButtonDecoration@CUFDecorateButton@@QAEPAVCUFButtonDecoration@@XZ" PURGE="0" COMMENT="" />
    <EXPORT ORDINAL="820" NAME="?GetButtons@CUFGroupButton@@QBEABV?$vector@PAVCUFRadioButton@@V?$allocator@PAVCUFRadioButton@@@std@@@std@@XZ" PURGE="0" COMMENT="" />
    <EXPORT ORDINAL="821" NAME="?GetCaption@CUFButtonBase@@UAEXAAV?$basic_string@_WU?$char_traits@_W@std@@V?$allocator@_W@2@@std@@@Z" PURGE="4" COMMENT="" />
    <EXPORT ORDINAL="822" NAME="?GetCaption@CUFButtonDecoration@@UAEXAAV?$basic_string@_WU?$char_traits@_W@std@@V?$allocator@_W@2@@std@@@Z" PURGE="4" COMMENT="" />
    <EXPORT ORDINAL="823" NAME="?GetCaptionAlignment@CUFButtonBase@@UAE?AW4enumALIGNMENT@@XZ" PURGE="0" COMMENT="" />
    <EXPORT ORDINAL="824" NAME="?GetCaptureThumb@CUFRangeBase@@UBE_NXZ" PURGE="0" COMMENT="" />
    <EXPORT ORDINAL="825" NAME="?GetCatption@CUFButton@@UAEXAAV?$basic_string@_WU?$char_traits@_W@std@@V?$allocator@_W@2@@std@@@Z" PURGE="4" COMMENT="" />
    <EXPORT ORDINAL="826" NAME="?GetCheckMode@CUFRadioButton@@QAE?AW4tagRADIOBUTTONCHECKMODEEnum@@XZ" PURGE="0" COMMENT="" />
    <EXPORT ORDINAL="827" NAME="?GetChecked@CUFStateButton@@QBE_NXZ" PURGE="0" COMMENT="" />
    <EXPORT ORDINAL="828" NAME="?GetClipDrawRect@CUFControl@@IAE?AUtagUFRECTF_t@@ABU2@0@Z" PURGE="12" COMMENT="" />
    <EXPORT ORDINAL="829" NAME="?GetClipDrawRect@CUFDx9Text@@AAE?AUtagUFRECTF_t@@ABU2@0@Z" PURGE="12" COMMENT="" />
    <EXPORT ORDINAL="830" NAME="?GetCmd@CUFWin32AccelManager@@CAGXZ" PURGE="0" COMMENT="" />
    <EXPORT ORDINAL="831" NAME="?GetColor@CUFEllipse@@QBEKXZ" PURGE="0" COMMENT="" />
    <EXPORT ORDINAL="832" NAME="?GetColor@CUFRectangle@@QAEKXZ" PURGE="0" COMMENT="" />
    <EXPORT ORDINAL="833" NAME="?GetContentPtr@CUFContentControl@@UAEPAVCUFElement@@XZ" PURGE="0" COMMENT="" />
    <EXPORT ORDINAL="834" NAME="?GetCornorPicSize@CUFHFPicContainer@@QAEXPAUtagTEXTUREINFO_t@@@Z" PURGE="4" COMMENT="" />
    <EXPORT ORDINAL="835" NAME="?GetCurPos@CUFDxSound@@UAEJPAK@Z" PURGE="4" COMMENT="" />
    <EXPORT ORDINAL="836" NAME="?GetCurPos@CUFSound@@UAEJPAK@Z" PURGE="4" COMMENT="" />
    <EXPORT ORDINAL="837" NAME="?GetCurSelIndex@CUFListBox@@QAEHXZ" PURGE="0" COMMENT="" />
    <EXPORT ORDINAL="838" NAME="?GetCursorPos@CUFPlatformHelper@@SA?AUtagUFPOINTF_t@@XZ" PURGE="0" COMMENT="" />
    <EXPORT ORDINAL="839" NAME="?GetD2D1Factory@CUFD2DDevice@@SAPAUID2D1Factory@@XZ" PURGE="0" COMMENT="" />
    <EXPORT ORDINAL="840" NAME="?GetD2D1RenderTarget@CUFDWriteFont@@CAPAUID2D1RenderTarget@@XZ" PURGE="0" COMMENT="" />
    <EXPORT ORDINAL="841" NAME="?GetD3dDevice@CUFDx10TexRVManager@@AAEPAUID3D10Device@@XZ" PURGE="0" COMMENT="" />
    <EXPORT ORDINAL="842" NAME="?GetD3dDevice@CUFDxTextureManager@@AAEPAUIDirect3DDevice9@@XZ" PURGE="0" COMMENT="" />
    <EXPORT ORDINAL="843" NAME="?GetD3dDevice@CUFThreadDX10TexManager@@AAEPAXXZ" PURGE="0" COMMENT="" />
    <EXPORT ORDINAL="844" NAME="?GetD3dDevice@CUFThreadDX9TexManager@@AAEPAXXZ" PURGE="0" COMMENT="" />
    <EXPORT ORDINAL="845" NAME="?GetDWriteFactory@CUFD2DDevice@@SAPAUIDWriteFactory@@XZ" PURGE="0" COMMENT="" />
    <EXPORT ORDINAL="846" NAME="?GetDXGITarget@CUFD2D3DEffect@@QAEPAUID2D1RenderTarget@@XZ" PURGE="0" COMMENT="" />
    <EXPORT ORDINAL="847" NAME="?GetDXGITarget@CUFD2D3DEffectResource@@QAE_NPAPAUID2D1RenderTarget@@@Z" PURGE="4" COMMENT="" />
    <EXPORT ORDINAL="848" NAME="?GetDecreaseButtonImage@CUFRangeBaseStyle@@QAE?BUtagDECORATIONIMAGE_t@@XZ" PURGE="4" COMMENT="" />
    <EXPORT ORDINAL="849" NAME="?GetDecreaseImageSlice@CUFRangeBaseStyle@@QAEXAAM0@Z" PURGE="8" COMMENT="" />
    <EXPORT ORDINAL="850" NAME="?GetDefaultFocusElement@CUFLayer@@QAEPAVCUFElement@@XZ" PURGE="0" COMMENT="" />
    <EXPORT ORDINAL="851" NAME="?GetDefaultFontName@IUFFont@@SA?AV?$basic_string@_WU?$char_traits@_W@std@@V?$allocator@_W@2@@std@@XZ" PURGE="0" COMMENT="" />
    <EXPORT ORDINAL="852" NAME="?GetDefaultText@CUFEditText@@QAEXAAV?$basic_string@_WU?$char_traits@_W@std@@V?$allocator@_W@2@@std@@@Z" PURGE="4" COMMENT="" />
    <EXPORT ORDINAL="853" NAME="?GetDesignHeight@IUFWindow@@UAEMXZ" PURGE="0" COMMENT="" />
    <EXPORT ORDINAL="854" NAME="?GetDesignInfo@IUFWindow@@UAE?AUtagUFDESIGNINFO_t@@XZ" PURGE="4" COMMENT="" />
    <EXPORT ORDINAL="855" NAME="?GetDesignWidth@IUFWindow@@UAEMXZ" PURGE="0" COMMENT="" />
    <EXPORT ORDINAL="856" NAME="?GetDevPlat@CDeviceCreator@@SA?AW4enumRENDER_PLAT@@XZ" PURGE="0" COMMENT="" />
    <EXPORT ORDINAL="857" NAME="?GetDevice@CUFD2DDevice@@UAE_NPAPAX@Z" PURGE="4" COMMENT="" />
    <EXPORT ORDINAL="858" NAME="?GetDevice@CUFDx10Device@@UAE_NPAPAX@Z" PURGE="4" COMMENT="" />
    <EXPORT ORDINAL="859" NAME="?GetDevice@CUFDxDevice@@UAE_NPAPAX@Z" PURGE="4" COMMENT="" />
    <EXPORT ORDINAL="860" NAME="?GetDevice@CUFDxMetaProperty@@AAEPAUIDirect3DDevice9@@XZ" PURGE="0" COMMENT="" />
    <EXPORT ORDINAL="861" NAME="?GetDevice@CUFWin32Window@@SAPAVIUFDevice@@XZ" PURGE="0" COMMENT="" />
    <EXPORT ORDINAL="862" NAME="?GetDeviceAppSamples@CUFDxDevice@@AAE?AW4_D3DMULTISAMPLE_TYPE@@IW4_D3DDEVTYPE@@W4_D3DFORMAT@@1HPAK@Z" PURGE="24" COMMENT="" />
    <EXPORT ORDINAL="863" NAME="?GetDisableResId@CUFBackImage@@QBEHXZ" PURGE="0" COMMENT="" />
    <EXPORT ORDINAL="864" NAME="?GetDisplayRect@CUFToolTip@@QAE?AUtagUFRECTF_t@@XZ" PURGE="4" COMMENT="" />
    <EXPORT ORDINAL="865" NAME="?GetDownResId@CUFBackImage@@QBEHXZ" PURGE="0" COMMENT="" />
    <EXPORT ORDINAL="866" NAME="?GetDownStartEndValue@CUFDLSliderBar@@UAEXAAM0@Z" PURGE="8" COMMENT="" />
    <EXPORT ORDINAL="867" NAME="?GetDrawFormat@CUFDWriteText@@AAEKXZ" PURGE="0" COMMENT="" />
    <EXPORT ORDINAL="868" NAME="?GetDrawRect@CUFElement@@UAE?AUtagUFRECTF_t@@XZ" PURGE="4" COMMENT="" />
    <EXPORT ORDINAL="869" NAME="?GetDropDownBKCanvas@CUFComboBoxDropDown@@QAEXPAVCUFControl@@@Z" PURGE="4" COMMENT="" />
    <EXPORT ORDINAL="870" NAME="?GetDropDownHeight@CUFComboBox@@QAEMXZ" PURGE="0" COMMENT="" />
    <EXPORT ORDINAL="871" NAME="?GetDropDownList@CUFComboBoxItem@@AAEPAVCUFElement@@XZ" PURGE="0" COMMENT="" />
    <EXPORT ORDINAL="872" NAME="?GetDropDownOffset@CUFComboBox@@QBEMXZ" PURGE="0" COMMENT="" />
    <EXPORT ORDINAL="873" NAME="?GetDropDownSeparator@CUFComboBox@@QBEMXZ" PURGE="0" COMMENT="" />
    <EXPORT ORDINAL="874" NAME="?GetDropDownWidth@CUFComboBox@@QAEMXZ" PURGE="0" COMMENT="" />
    <EXPORT ORDINAL="875" NAME="?GetEditTextContent@CUFComboBox@@QAEXAAV?$basic_string@_WU?$char_traits@_W@std@@V?$allocator@_W@2@@std@@@Z" PURGE="4" COMMENT="" />
    <EXPORT ORDINAL="876" NAME="?GetEditable@CUFComboBox@@QAE_NXZ" PURGE="0" COMMENT="" />
    <EXPORT ORDINAL="877" NAME="?GetEffect@CUFDxDevice@@QAEPAUID3DXEffect@@XZ" PURGE="0" COMMENT="" />
    <EXPORT ORDINAL="878" NAME="?GetElement@CUFPanel@@QAEPAVCUFElement@@I@Z" PURGE="4" COMMENT="" />
    <EXPORT ORDINAL="879" NAME="?GetElementCaptured@CUFEventManager@@QAEPAVCUFElement@@XZ" PURGE="0" COMMENT="" />
    <EXPORT ORDINAL="880" NAME="?GetElementHeight@CUFWrapPanel@@QAEMXZ" PURGE="0" COMMENT="" />
    <EXPORT ORDINAL="881" NAME="?GetElementWidth@CUFWrapPanel@@QAEMXZ" PURGE="0" COMMENT="" />
    <EXPORT ORDINAL="882" NAME="?GetElements@CUFPanel@@QAEXAAV?$vector@PAVCUFElement@@V?$allocator@PAVCUFElement@@@std@@@std@@@Z" PURGE="4" COMMENT="" />
    <EXPORT ORDINAL="883" NAME="?GetEnableStepButton@CUFScrollBarStyle@@QAE_NXZ" PURGE="0" COMMENT="" />
    <EXPORT ORDINAL="884" NAME="?GetEventMap@CUFComboBox@@MBEPBUtagUFEVENTMAP_t@@XZ" PURGE="0" COMMENT="" />
    <EXPORT ORDINAL="885" NAME="?GetEventMap@CUFControl@@MBEPBUtagUFEVENTMAP_t@@XZ" PURGE="0" COMMENT="" />
    <EXPORT ORDINAL="886" NAME="?GetEventMap@CUFEditText@@MBEPBUtagUFEVENTMAP_t@@XZ" PURGE="0" COMMENT="" />
    <EXPORT ORDINAL="887" NAME="?GetEventMap@CUFElement@@MBEPBUtagUFEVENTMAP_t@@XZ" PURGE="0" COMMENT="" />
    <EXPORT ORDINAL="888" NAME="?GetEventMap@CUFEventTarget@@MBEPBUtagUFEVENTMAP_t@@XZ" PURGE="0" COMMENT="" />
    <EXPORT ORDINAL="889" NAME="?GetEventMap@CUFLayer@@MBEPBUtagUFEVENTMAP_t@@XZ" PURGE="0" COMMENT="" />
    <EXPORT ORDINAL="890" NAME="?GetEventMap@CUFPopUPWCP@@MBEPBUtagUFEVENTMAP_t@@XZ" PURGE="0" COMMENT="" />
    <EXPORT ORDINAL="891" NAME="?GetEventMap@CUFWCPMenu@@MBEPBUtagUFEVENTMAP_t@@XZ" PURGE="0" COMMENT="" />
    <EXPORT ORDINAL="892" NAME="?GetEventMap@CUFWin32Window@@MBEPBUtagUFEVENTMAP_t@@XZ" PURGE="0" COMMENT="" />
    <EXPORT ORDINAL="893" NAME="?GetEventMap@CUFWinChildPanel@@MBEPBUtagUFEVENTMAP_t@@XZ" PURGE="0" COMMENT="" />
    <EXPORT ORDINAL="894" NAME="?GetEventMap@CUFWndPanel@@MBEPBUtagUFEVENTMAP_t@@XZ" PURGE="0" COMMENT="" />
    <EXPORT ORDINAL="895" NAME="?GetExecuteModuleHandle@CUFPlatformHelper@@SAPAXXZ" PURGE="0" COMMENT="" />
    <EXPORT ORDINAL="896" NAME="?GetFC@CUFEditText@@QAEKXZ" PURGE="0" COMMENT="" />
    <EXPORT ORDINAL="897" NAME="?GetFPS@IUFWindow@@UAEMXZ" PURGE="0" COMMENT="" />
    <EXPORT ORDINAL="898" NAME="?GetFirstClickIntervalRatio@CUFRepeatButton@@QAEMXZ" PURGE="0" COMMENT="" />
    <EXPORT ORDINAL="899" NAME="?GetFirstItem@CUFItemsControl@@QBE_NPAPAVCUFItemControl@@@Z" PURGE="4" COMMENT="" />
    <EXPORT ORDINAL="900" NAME="?GetFocusElement@CUFControl@@UAEPAVCUFElement@@XZ" PURGE="0" COMMENT="" />
    <EXPORT ORDINAL="901" NAME="?GetFocusElement@CUFLayer@@UAEPAVCUFElement@@XZ" PURGE="0" COMMENT="" />
    <EXPORT ORDINAL="902" NAME="?GetFocusElement@CUFLayerManager@@QAEPAVCUFElement@@XZ" PURGE="0" COMMENT="" />
    <EXPORT ORDINAL="903" NAME="?GetFocusElement@CUFScrollViewer@@UAEPAVCUFElement@@XZ" PURGE="0" COMMENT="" />
    <EXPORT ORDINAL="904" NAME="?GetFocusLayer@CUFLayerManager@@QAEPAVCUFLayer@@XZ" PURGE="0" COMMENT="" />
    <EXPORT ORDINAL="905" NAME="?GetFocusLayer@IUFWindow@@UAEPAVCUFLayer@@XZ" PURGE="0" COMMENT="" />
    <EXPORT ORDINAL="906" NAME="?GetFocusableModalLayer@CUFLayerManager@@AAEPAVCUFLayer@@XZ" PURGE="0" COMMENT="" />
    <EXPORT ORDINAL="907" NAME="?GetFocusedResId@CUFBackImage@@QBEHXZ" PURGE="0" COMMENT="" />
    <EXPORT ORDINAL="908" NAME="?GetFont@CUFControl@@UAEPAVIUFFont@@XZ" PURGE="0" COMMENT="" />
    <EXPORT ORDINAL="909" NAME="?GetFont@CUFElement@@UAEPAVIUFFont@@XZ" PURGE="0" COMMENT="" />
    <EXPORT ORDINAL="910" NAME="?GetFontColor@CUFDWriteText@@UAEKXZ" PURGE="0" COMMENT="" />
    <EXPORT ORDINAL="911" NAME="?GetFontColor@CUFDWriteText@@UAEXAAUtagColor_t@@@Z" PURGE="4" COMMENT="" />
    <EXPORT ORDINAL="912" NAME="?GetFontColor@CUFDx9Text@@UAEKXZ" PURGE="0" COMMENT="" />
    <EXPORT ORDINAL="913" NAME="?GetFontColor@CUFDx9Text@@UAEXAAUtagColor_t@@@Z" PURGE="4" COMMENT="" />
    <EXPORT ORDINAL="914" NAME="?GetFontColor@CUFText@@UAEKXZ" PURGE="0" COMMENT="" />
    <EXPORT ORDINAL="915" NAME="?GetFontColor@CUFText@@UAEXAAUtagColor_t@@@Z" PURGE="4" COMMENT="" />
    <EXPORT ORDINAL="916" NAME="?GetFontDisableColor@CUFFontStyle@@QBE?AUtagColor_t@@XZ" PURGE="4" COMMENT="" />
    <EXPORT ORDINAL="917" NAME="?GetFontDownColor@CUFFontStyle@@QBE?AUtagColor_t@@XZ" PURGE="4" COMMENT="" />
    <EXPORT ORDINAL="918" NAME="?GetFontFocusColor@CUFFontStyle@@QBE?AUtagColor_t@@XZ" PURGE="4" COMMENT="" />
    <EXPORT ORDINAL="919" NAME="?GetFontInfo@IUFFont@@UAE?AUtagUFFONTPARAMETER_t@@XZ" PURGE="4" COMMENT="" />
    <EXPORT ORDINAL="920" NAME="?GetFontName@CUFControl@@UAE?AV?$basic_string@_WU?$char_traits@_W@std@@V?$allocator@_W@2@@std@@XZ" PURGE="4" COMMENT="" />
    <EXPORT ORDINAL="921" NAME="?GetFontName@CUFDWriteText@@UAEXAAV?$basic_string@_WU?$char_traits@_W@std@@V?$allocator@_W@2@@std@@@Z" PURGE="4" COMMENT="" />
    <EXPORT ORDINAL="922" NAME="?GetFontName@CUFDx9Text@@UAEXAAV?$basic_string@_WU?$char_traits@_W@std@@V?$allocator@_W@2@@std@@@Z" PURGE="4" COMMENT="" />
    <EXPORT ORDINAL="923" NAME="?GetFontName@CUFEditText@@QAEXAAV?$basic_string@_WU?$char_traits@_W@std@@V?$allocator@_W@2@@std@@@Z" PURGE="4" COMMENT="" />
    <EXPORT ORDINAL="924" NAME="?GetFontName@CUFText@@UAEXAAV?$basic_string@_WU?$char_traits@_W@std@@V?$allocator@_W@2@@std@@@Z" PURGE="4" COMMENT="" />
    <EXPORT ORDINAL="925" NAME="?GetFontNormalColor@CUFFontStyle@@QBE?AUtagColor_t@@XZ" PURGE="4" COMMENT="" />
    <EXPORT ORDINAL="926" NAME="?GetFontOverColor@CUFFontStyle@@QBE?AUtagColor_t@@XZ" PURGE="4" COMMENT="" />
    <EXPORT ORDINAL="927" NAME="?GetFontSize@CUFControl@@UAEMXZ" PURGE="0" COMMENT="" />
    <EXPORT ORDINAL="928" NAME="?GetFontSize@CUFDWriteText@@UAEMXZ" PURGE="0" COMMENT="" />
    <EXPORT ORDINAL="929" NAME="?GetFontSize@CUFDx9Text@@UAEMXZ" PURGE="0" COMMENT="" />
    <EXPORT ORDINAL="930" NAME="?GetFontSize@CUFEditText@@UAEMXZ" PURGE="0" COMMENT="" />
    <EXPORT ORDINAL="931" NAME="?GetFontSize@CUFText@@UAEMXZ" PURGE="0" COMMENT="" />
    <EXPORT ORDINAL="932" NAME="?GetFontSizePt@CUFControl@@UAEMXZ" PURGE="0" COMMENT="" />
    <EXPORT ORDINAL="933" NAME="?GetFontStyle@CUFButton@@UBEPAVCUFFontStyle@@XZ" PURGE="0" COMMENT="" />
    <EXPORT ORDINAL="934" NAME="?GetForeGround@CUFControl@@UAEKXZ" PURGE="0" COMMENT="" />
    <EXPORT ORDINAL="935" NAME="?GetGestureConfig@CUFPlatformHelper@@SA_NKPAIQAUtagUFGESTURECONFIG_t@@K@Z" PURGE="0" COMMENT="" />
    <EXPORT ORDINAL="936" NAME="?GetGlobalCursorPos@CUFPlatformHelper@@SA?AUtagUFPOINTF_t@@XZ" PURGE="0" COMMENT="" />
    <EXPORT ORDINAL="937" NAME="?GetGlobalKeyState@CUFPlatformHelper@@SAFH@Z" PURGE="0" COMMENT="" />
    <EXPORT ORDINAL="938" NAME="?GetGroup@CUFRadioButton@@QBEPAVCUFGroupButton@@XZ" PURGE="0" COMMENT="" />
    <EXPORT ORDINAL="939" NAME="?GetHScrollBarVisibility@CUFScrollViewer@@QAE?AW4enumSCROLLBARVISIBILITY@@XZ" PURGE="0" COMMENT="" />
    <EXPORT ORDINAL="940" NAME="?GetHandle@CUFChildWnd@@QAEPAXXZ" PURGE="0" COMMENT="" />
    <EXPORT ORDINAL="941" NAME="?GetHandle@CUFWin32Window@@UAEPAXXZ" PURGE="0" COMMENT="" />
    <EXPORT ORDINAL="942" NAME="?GetHandle@CUFWinChildPanel@@QAEPAXXZ" PURGE="0" COMMENT="" />
    <EXPORT ORDINAL="943" NAME="?GetHandle@CUFWndPanel@@UAEPAXXZ" PURGE="0" COMMENT="" />
    <EXPORT ORDINAL="944" NAME="?GetHeight@CUFElement@@UAEMXZ" PURGE="0" COMMENT="" />
    <EXPORT ORDINAL="945" NAME="?GetHeight@CUFRangeBaseStyle@@QAEMXZ" PURGE="0" COMMENT="" />
    <EXPORT ORDINAL="946" NAME="?GetHeight@CUFWin32Window@@UBEHXZ" PURGE="0" COMMENT="" />
    <EXPORT ORDINAL="947" NAME="?GetHeight@IUFWindow@@UBEHXZ" PURGE="0" COMMENT="" />
    <EXPORT ORDINAL="948" NAME="?GetHorizontalChange@CUFThumb@@QAEMXZ" PURGE="0" COMMENT="" />
    <EXPORT ORDINAL="949" NAME="?GetHorizontalOffset@CUFScrollViewer@@QAEMXZ" PURGE="0" COMMENT="" />
    <EXPORT ORDINAL="950" NAME="?GetHorizontalSeparator@CUFWrapPanel@@QAEMXZ" PURGE="0" COMMENT="" />
    <EXPORT ORDINAL="951" NAME="?GetHorizontalShowPos@CUFToolTip@@MAEMM@Z" PURGE="4" COMMENT="" />
    <EXPORT ORDINAL="952" NAME="?GetHostPtr@CUFPopUp@@UAEPAVCUFElement@@XZ" PURGE="0" COMMENT="" />
    <EXPORT ORDINAL="953" NAME="?GetIMEState@CUFWin32Window@@UBE_NXZ" PURGE="0" COMMENT="" />
    <EXPORT ORDINAL="954" NAME="?GetImageInfoFromFile@CUFImage@@SA_NABV?$basic_string@_WU?$char_traits@_W@std@@V?$allocator@_W@2@@std@@PAUtagTEXTUREINFO_t@@@Z" PURGE="0" COMMENT="" />
    <EXPORT ORDINAL="955" NAME="?GetImageInfoFromStream@CUFImage@@SA_NPBXPAUtagTEXTUREINFO_t@@@Z" PURGE="0" COMMENT="" />
    <EXPORT ORDINAL="956" NAME="?GetImageSlice@CUFButtonDecoration@@QAEXAAM0@Z" PURGE="8" COMMENT="" />
    <EXPORT ORDINAL="957" NAME="?GetImgDown@CUFBackImage@@QBE?AV?$basic_string@_WU?$char_traits@_W@std@@V?$allocator@_W@2@@std@@XZ" PURGE="4" COMMENT="" />
    <EXPORT ORDINAL="958" NAME="?GetImgFocused@CUFBackImage@@QBE?AV?$basic_string@_WU?$char_traits@_W@std@@V?$allocator@_W@2@@std@@XZ" PURGE="4" COMMENT="" />
    <EXPORT ORDINAL="959" NAME="?GetImgNormal@CUFBackImage@@QBE?AV?$basic_string@_WU?$char_traits@_W@std@@V?$allocator@_W@2@@std@@XZ" PURGE="4" COMMENT="" />
    <EXPORT ORDINAL="960" NAME="?GetImgOver@CUFBackImage@@QBE?AV?$basic_string@_WU?$char_traits@_W@std@@V?$allocator@_W@2@@std@@XZ" PURGE="4" COMMENT="" />
    <EXPORT ORDINAL="961" NAME="?GetImgUnEnabled@CUFBackImage@@QBE?AV?$basic_string@_WU?$char_traits@_W@std@@V?$allocator@_W@2@@std@@XZ" PURGE="4" COMMENT="" />
    <EXPORT ORDINAL="962" NAME="?GetIncreaseButtonImage@CUFRangeBaseStyle@@QAE?BUtagDECORATIONIMAGE_t@@XZ" PURGE="4" COMMENT="" />
    <EXPORT ORDINAL="963" NAME="?GetIncreaseImageSlice@CUFRangeBaseStyle@@QAEXAAM0@Z" PURGE="8" COMMENT="" />
    <EXPORT ORDINAL="964" NAME="?GetInitViewPort@CUFDxDevice@@QAEXAAU_D3DVIEWPORT9@@@Z" PURGE="4" COMMENT="" />
    <EXPORT ORDINAL="965" NAME="?GetInitViewPort@CUFDxMetaProperty@@AAEXAAU_D3DVIEWPORT9@@@Z" PURGE="4" COMMENT="" />
    <EXPORT ORDINAL="966" NAME="?GetInstance@CUFD2D3DEffectResource@@SAPAV1@XZ" PURGE="0" COMMENT="" />
    <EXPORT ORDINAL="967" NAME="?GetInstance@CUFEventManager@@SAPAV1@XZ" PURGE="0" COMMENT="" />
    <EXPORT ORDINAL="968" NAME="?GetInstance@CUFLog@@SAPAV1@ABV?$basic_string@_WU?$char_traits@_W@std@@V?$allocator@_W@2@@std@@@Z" PURGE="0" COMMENT="" />
    <EXPORT ORDINAL="969" NAME="?GetInstance@CUFThreadTextureManager@@SAPAV1@XZ" PURGE="0" COMMENT="" />
    <EXPORT ORDINAL="970" NAME="?GetInstance@CUFTimerManager@@SAPAV1@XZ" PURGE="0" COMMENT="" />
    <EXPORT ORDINAL="971" NAME="?GetInstance@CUFWin32AccelManager@@SAPAV1@XZ" PURGE="0" COMMENT="" />
    <EXPORT ORDINAL="972" NAME="?GetInstance@IUFTextureManager@@SAPAV1@XZ" PURGE="0" COMMENT="" />
    <EXPORT ORDINAL="973" NAME="?GetInstance@IUFWindow@@SAPAV1@XZ" PURGE="0" COMMENT="" />
    <EXPORT ORDINAL="974" NAME="?GetInterval@CUFRepeatButton@@QAEHXZ" PURGE="0" COMMENT="" />
    <EXPORT ORDINAL="975" NAME="?GetInterval@CUFTimer@@QBEKXZ" PURGE="0" COMMENT="" />
    <EXPORT ORDINAL="976" NAME="?GetIsEnableMoveToPoint@CUFSliderBarStyle@@QAE_NXZ" PURGE="0" COMMENT="" />
    <EXPORT ORDINAL="977" NAME="?GetIsEnableThumbOutTrack@CUFSliderBarStyle@@QAE_NXZ" PURGE="0" COMMENT="" />
    <EXPORT ORDINAL="978" NAME="?GetIsSnapToTick@CUFSliderBarStyle@@QAE_NXZ" PURGE="0" COMMENT="" />
    <EXPORT ORDINAL="979" NAME="?GetIsStaysOpen@CUFToolTip@@QAE_NXZ" PURGE="0" COMMENT="" />
    <EXPORT ORDINAL="980" NAME="?GetItem@CUFItemsControl@@QBE_NHPAPAVCUFItemControl@@@Z" PURGE="8" COMMENT="" />
    <EXPORT ORDINAL="981" NAME="?GetItemBackImage@CUFComboBoxDropDown@@QBE?AVCUFBackImage@@XZ" PURGE="4" COMMENT="" />
    <EXPORT ORDINAL="982" NAME="?GetItemCount@CUFItemsControl@@QBEHXZ" PURGE="0" COMMENT="" />
    <EXPORT ORDINAL="983" NAME="?GetItemHeight@CUFComboBox@@QBEMXZ" PURGE="0" COMMENT="" />
    <EXPORT ORDINAL="984" NAME="?GetItemIndex@CUFItemControl@@QAEHXZ" PURGE="0" COMMENT="" />
    <EXPORT ORDINAL="985" NAME="?GetKeyTime@CUFKeyFrame@@QAEXAAJ@Z" PURGE="4" COMMENT="" />
    <EXPORT ORDINAL="986" NAME="?GetKeyValue@CUFKeyFrame@@QAEXAAM@Z" PURGE="4" COMMENT="" />
    <EXPORT ORDINAL="987" NAME="?GetKeyboardLayout@CUFPlatformHelper@@SAPAXK@Z" PURGE="0" COMMENT="" />
    <EXPORT ORDINAL="988" NAME="?GetLastItem@CUFItemsControl@@QBE_NPAPAVCUFItemControl@@@Z" PURGE="4" COMMENT="" />
    <EXPORT ORDINAL="989" NAME="?GetLastMenu@CUFMenu@@QAEPAV1@XZ" PURGE="0" COMMENT="" />
    <EXPORT ORDINAL="990" NAME="?GetLastValue@CUFRangeBase@@UBEMXZ" PURGE="0" COMMENT="" />
    <EXPORT ORDINAL="991" NAME="?GetLayer@CUFComboBox@@AAEPAVCUFLayer@@XZ" PURGE="0" COMMENT="" />
    <EXPORT ORDINAL="992" NAME="?GetLayer@CUFComboBoxItem@@AAEPAVCUFLayer@@XZ" PURGE="0" COMMENT="" />
    <EXPORT ORDINAL="993" NAME="?GetLayer@CUFPopUp@@IAEPAVCUFLayer@@XZ" PURGE="0" COMMENT="" />
    <EXPORT ORDINAL="994" NAME="?GetLayer@CUFScrollViewer@@AAEPAVCUFLayer@@XZ" PURGE="0" COMMENT="" />
    <EXPORT ORDINAL="995" NAME="?GetLineSpace@CUFDWriteText@@UAEMXZ" PURGE="0" COMMENT="" />
    <EXPORT ORDINAL="996" NAME="?GetLineSpace@CUFDx9Text@@UAEMXZ" PURGE="0" COMMENT="" />
    <EXPORT ORDINAL="997" NAME="?GetLineSpace@CUFText@@UAEMXZ" PURGE="0" COMMENT="" />
    <EXPORT ORDINAL="998" NAME="?GetLogConfigInforFromFile@CUFLog@@QAEXXZ" PURGE="0" COMMENT="" />
    <EXPORT ORDINAL="999" NAME="?GetLogLevel@CUFLog@@QAEKXZ" PURGE="0" COMMENT="" />
    <EXPORT ORDINAL="1000" NAME="?GetLogOutMode@CUFLog@@QAEHXZ" PURGE="0" COMMENT="" />
    <EXPORT ORDINAL="1001" NAME="?GetLogicParent@CUFComboBoxDropDown@@QAEPAVCUFElement@@XZ" PURGE="0" COMMENT="" />
    <EXPORT ORDINAL="1002" NAME="?GetMDMFlag@CUFElement@@QAE_NXZ" PURGE="0" COMMENT="" />
    <EXPORT ORDINAL="1003" NAME="?GetMSList@IUFDevice@@QAEXPAV?$map@HHU?$less@H@std@@V?$allocator@U?$pair@$$CBHH@std@@@2@@std@@@Z" PURGE="4" COMMENT="" />
    <EXPORT ORDINAL="1004" NAME="?GetMainWindow@CUFPlatformHelper@@SAPAVIUFWindow@@XZ" PURGE="0" COMMENT="" />
    <EXPORT ORDINAL="1005" NAME="?GetMainWndScale@CUFWndPanel@@IAEMXZ" PURGE="0" COMMENT="" />
    <EXPORT ORDINAL="1006" NAME="?GetMarginX@CUFToolTip@@QAEMXZ" PURGE="0" COMMENT="" />
    <EXPORT ORDINAL="1007" NAME="?GetMarginY@CUFToolTip@@QAEMXZ" PURGE="0" COMMENT="" />
    <EXPORT ORDINAL="1008" NAME="?GetMatchingDepthStencilFormat@CUFDxDevice@@AAE?AW4_D3DFORMAT@@IW42@0W4_D3DDEVTYPE@@@Z" PURGE="16" COMMENT="" />
    <EXPORT ORDINAL="1009" NAME="?GetMaxNum@CUFRangeBase@@UAEMXZ" PURGE="0" COMMENT="" />
    <EXPORT ORDINAL="1010" NAME="?GetMaxNum@CUFRangeBaseStyle@@QAEMXZ" PURGE="0" COMMENT="" />
    <EXPORT ORDINAL="1011" NAME="?GetMenu@CUFMenuItem@@QAEPAVCUFMenu@@XZ" PURGE="0" COMMENT="" />
    <EXPORT ORDINAL="1012" NAME="?GetMinNum@CUFRangeBase@@UAEMXZ" PURGE="0" COMMENT="" />
    <EXPORT ORDINAL="1013" NAME="?GetMinNum@CUFRangeBaseStyle@@QAEMXZ" PURGE="0" COMMENT="" />
    <EXPORT ORDINAL="1014" NAME="?GetMinThumbLength@CUFScrollBar@@QAEMXZ" PURGE="0" COMMENT="" />
    <EXPORT ORDINAL="1015" NAME="?GetMinThumbLength@CUFScrollBarStyle@@QAEMXZ" PURGE="0" COMMENT="" />
    <EXPORT ORDINAL="1016" NAME="?GetMinValuePos@CUFSliderBar@@MAEMXZ" PURGE="0" COMMENT="" />
    <EXPORT ORDINAL="1017" NAME="?GetMonitor@CUFWin32Window@@AAEPAUHMONITOR__@@XZ" PURGE="0" COMMENT="" />
    <EXPORT ORDINAL="1018" NAME="?GetMouseXOutInfo@CUFEditText@@AAE_NMAA_NAAM@Z" PURGE="12" COMMENT="" />
    <EXPORT ORDINAL="1019" NAME="?GetMultiLinesArea@CUFDWriteText@@UAEXAAUtagUFSIZEF_t@@_N@Z" PURGE="8" COMMENT="" />
    <EXPORT ORDINAL="1020" NAME="?GetMultiLinesArea@CUFDWriteText@@UAEXAAUtagUFSIZEL_t@@_N@Z" PURGE="8" COMMENT="" />
    <EXPORT ORDINAL="1021" NAME="?GetMultiLinesArea@CUFDx9Text@@UAEXAAUtagUFSIZEF_t@@_N@Z" PURGE="8" COMMENT="" />
    <EXPORT ORDINAL="1022" NAME="?GetMultiLinesArea@CUFDx9Text@@UAEXAAUtagUFSIZEL_t@@_N@Z" PURGE="8" COMMENT="" />
    <EXPORT ORDINAL="1023" NAME="?GetMultiLinesArea@CUFText@@UAEXAAUtagUFSIZEF_t@@_N@Z" PURGE="8" COMMENT="" />
    <EXPORT ORDINAL="1024" NAME="?GetMultiLinesArea@CUFText@@UAEXAAUtagUFSIZEL_t@@_N@Z" PURGE="8" COMMENT="" />
    <EXPORT ORDINAL="1025" NAME="?GetMultiplyClipContent@CUFDx9Text@@UAE?AV?$basic_string@_WU?$char_traits@_W@std@@V?$allocator@_W@2@@std@@XZ" PURGE="4" COMMENT="" />
    <EXPORT ORDINAL="1026" NAME="?GetMultiplyClipContent@CUFText@@UAE?AV?$basic_string@_WU?$char_traits@_W@std@@V?$allocator@_W@2@@std@@XZ" PURGE="4" COMMENT="" />
    <EXPORT ORDINAL="1027" NAME="?GetNearestPos@CUFEditText@@AAEIM_N@Z" PURGE="8" COMMENT="" />
    <EXPORT ORDINAL="1028" NAME="?GetNewAnimation@CUFAnimationManager@@QAEPAVCUFAnimation@@PAVCUFElement@@I@Z" PURGE="8" COMMENT="" />
    <EXPORT ORDINAL="1029" NAME="?GetNewAnimation@CUFElement@@UAEPAVCUFAnimation@@H@Z" PURGE="4" COMMENT="" />
    <EXPORT ORDINAL="1030" NAME="?GetNext@CUFControl@@IAEPAVCUFElement@@W4tagUFGNFLAG@@@Z" PURGE="4" COMMENT="" />
    <EXPORT ORDINAL="1031" NAME="?GetNextFocusableLayer@CUFLayerManager@@AAEPAVCUFLayer@@XZ" PURGE="0" COMMENT="" />
    <EXPORT ORDINAL="1032" NAME="?GetNextItem@CUFItemsControl@@QBE_NPAVCUFItemControl@@PAPAV2@@Z" PURGE="8" COMMENT="" />
    <EXPORT ORDINAL="1033" NAME="?GetNextNoneSeparatorMenuItem@CUFMenu@@AAEPAVCUFMenuItem@@PAV2@@Z" PURGE="4" COMMENT="" />
    <EXPORT ORDINAL="1034" NAME="?GetNextTabElement@CUFControl@@UAEPAVCUFElement@@XZ" PURGE="0" COMMENT="" />
    <EXPORT ORDINAL="1035" NAME="?GetNextTabElement@CUFElement@@UAEPAV1@XZ" PURGE="0" COMMENT="" />
    <EXPORT ORDINAL="1036" NAME="?GetNormalResId@CUFBackImage@@QBEHXZ" PURGE="0" COMMENT="" />
    <EXPORT ORDINAL="1037" NAME="?GetOffsetX@CUFToolTip@@QAEMXZ" PURGE="0" COMMENT="" />
    <EXPORT ORDINAL="1038" NAME="?GetOffsetYDown@CUFToolTip@@QAEMXZ" PURGE="0" COMMENT="" />
    <EXPORT ORDINAL="1039" NAME="?GetOffsetYUp@CUFToolTip@@QAEMXZ" PURGE="0" COMMENT="" />
    <EXPORT ORDINAL="1040" NAME="?GetOrientation@CUFButtonDecoration@@QAE?AW4enumOrientation@@XZ" PURGE="0" COMMENT="" />
    <EXPORT ORDINAL="1041" NAME="?GetOrientation@CUFRangeBase@@UAE?AW4enumOrientation@@XZ" PURGE="0" COMMENT="" />
    <EXPORT ORDINAL="1042" NAME="?GetOrientation@CUFRangeBaseStyle@@QAE?AW4enumOrientation@@XZ" PURGE="0" COMMENT="" />
    <EXPORT ORDINAL="1043" NAME="?GetOrientation@CUFStackPanel@@QAE?AW4enumSTACKORIENTATION@@XZ" PURGE="0" COMMENT="" />
    <EXPORT ORDINAL="1044" NAME="?GetOrientation@CUFWrapPanel@@QAE?AW4enumSTACKORIENTATION@@XZ" PURGE="0" COMMENT="" />
    <EXPORT ORDINAL="1045" NAME="?GetOverResId@CUFBackImage@@QBEHXZ" PURGE="0" COMMENT="" />
    <EXPORT ORDINAL="1046" NAME="?GetPageRepeatClickInterval@CUFScrollBarStyle@@QAEHXZ" PURGE="0" COMMENT="" />
    <EXPORT ORDINAL="1047" NAME="?GetPanel@CUFButton@@IAEPAVCUFPanel@@XZ" PURGE="0" COMMENT="" />
    <EXPORT ORDINAL="1048" NAME="?GetPanel@CUFStateButton@@IAEPAVCUFPanel@@XZ" PURGE="0" COMMENT="" />
    <EXPORT ORDINAL="1049" NAME="?GetParent@CUFElement@@UAEPAV1@XZ" PURGE="0" COMMENT="" />
    <EXPORT ORDINAL="1050" NAME="?GetParentFont@CUFControl@@MAEPAVIUFFont@@XZ" PURGE="0" COMMENT="" />
    <EXPORT ORDINAL="1051" NAME="?GetParentFont@CUFElement@@MAEPAVIUFFont@@XZ" PURGE="0" COMMENT="" />
    <EXPORT ORDINAL="1052" NAME="?GetParentHandle@CUFChildWnd@@QAEPAXXZ" PURGE="0" COMMENT="" />
    <EXPORT ORDINAL="1053" NAME="?GetParentMenu@CUFMenu@@QAEPAV1@XZ" PURGE="0" COMMENT="" />
    <EXPORT ORDINAL="1054" NAME="?GetPathMode@CUFBackImage@@QBE_NXZ" PURGE="0" COMMENT="" />
    <EXPORT ORDINAL="1055" NAME="?GetPicScale@CUFHFPicContainer@@QAEMXZ" PURGE="0" COMMENT="" />
    <EXPORT ORDINAL="1056" NAME="?GetPos@CUFMetaBase@@UAEXAAUtagUFPOINTF_t@@@Z" PURGE="4" COMMENT="" />
    <EXPORT ORDINAL="1057" NAME="?GetPosX@CUFElement@@UAEMXZ" PURGE="0" COMMENT="" />
    <EXPORT ORDINAL="1058" NAME="?GetPosY@CUFElement@@UAEMXZ" PURGE="0" COMMENT="" />
    <EXPORT ORDINAL="1059" NAME="?GetPosZ@CUFElement@@UAEMXZ" PURGE="0" COMMENT="" />
    <EXPORT ORDINAL="1060" NAME="?GetPreScaleAbsPosX@CUFElement@@UAEMXZ" PURGE="0" COMMENT="" />
    <EXPORT ORDINAL="1061" NAME="?GetPreScaleAbsPosY@CUFElement@@UAEMXZ" PURGE="0" COMMENT="" />
    <EXPORT ORDINAL="1062" NAME="?GetPredecessor@CUFElement@@UAEPAVCUFEventTarget@@XZ" PURGE="0" COMMENT="" />
    <EXPORT ORDINAL="1063" NAME="?GetPredecessor@CUFEventTarget@@UAEPAV1@XZ" PURGE="0" COMMENT="" />
    <EXPORT ORDINAL="1064" NAME="?GetPredecessor@IUFWindow@@UAEPAVCUFEventTarget@@XZ" PURGE="0" COMMENT="" />
    <EXPORT ORDINAL="1065" NAME="?GetPrevNoneSeparatorMenuItem@CUFMenu@@AAEPAVCUFMenuItem@@PAV2@@Z" PURGE="4" COMMENT="" />
    <EXPORT ORDINAL="1066" NAME="?GetPreviousItem@CUFItemsControl@@QBE_NPAVCUFItemControl@@PAPAV2@@Z" PURGE="8" COMMENT="" />
    <EXPORT ORDINAL="1067" NAME="?GetPreviousTabElement@CUFControl@@UAEPAVCUFElement@@XZ" PURGE="0" COMMENT="" />
    <EXPORT ORDINAL="1068" NAME="?GetPreviousTabElement@CUFElement@@UAEPAV1@XZ" PURGE="0" COMMENT="" />
    <EXPORT ORDINAL="1069" NAME="?GetRTFormat@CUFDWriteText@@UAE?AW4enumRTFORMATFLAG@@XZ" PURGE="0" COMMENT="" />
    <EXPORT ORDINAL="1070" NAME="?GetRTFormat@CUFDx9Text@@UAE?AW4enumRTFORMATFLAG@@XZ" PURGE="0" COMMENT="" />
    <EXPORT ORDINAL="1071" NAME="?GetRTFormat@CUFText@@UAE?AW4enumRTFORMATFLAG@@XZ" PURGE="0" COMMENT="" />
    <EXPORT ORDINAL="1072" NAME="?GetRotatePos@CUFElement@@UAE?AUtagUFPOINTF_t@@XZ" PURGE="4" COMMENT="" />
    <EXPORT ORDINAL="1073" NAME="?GetScale@CUFElement@@UAEMXZ" PURGE="0" COMMENT="" />
    <EXPORT ORDINAL="1074" NAME="?GetScale@CUFWin32Window@@UBEMXZ" PURGE="0" COMMENT="" />
    <EXPORT ORDINAL="1075" NAME="?GetScale@IUFWindow@@UBEMXZ" PURGE="0" COMMENT="" />
    <EXPORT ORDINAL="1076" NAME="?GetScaleAlpha@CUFElement@@UAEM_N@Z" PURGE="4" COMMENT="" />
    <EXPORT ORDINAL="1077" NAME="?GetScaleHeight@CUFElement@@UAEMXZ" PURGE="0" COMMENT="" />
    <EXPORT ORDINAL="1078" NAME="?GetScalePosX@CUFElement@@UAEMXZ" PURGE="0" COMMENT="" />
    <EXPORT ORDINAL="1079" NAME="?GetScalePosY@CUFElement@@UAEMXZ" PURGE="0" COMMENT="" />
    <EXPORT ORDINAL="1080" NAME="?GetScaleSize@CUFElement@@UAE?AUtagUFSIZEF_t@@XZ" PURGE="4" COMMENT="" />
    <EXPORT ORDINAL="1081" NAME="?GetScaleWidth@CUFElement@@UAEMXZ" PURGE="0" COMMENT="" />
    <EXPORT ORDINAL="1082" NAME="?GetScaledRect@CUFDx9Text@@AAEXMAAUtagUFRECTF_t@@@Z" PURGE="8" COMMENT="" />
    <EXPORT ORDINAL="1083" NAME="?GetScaledRect@CUFEditText@@AAEXMAAUtagUFRECTF_t@@@Z" PURGE="8" COMMENT="" />
    <EXPORT ORDINAL="1084" NAME="?GetScreenResolution@CUFPlatformHelper@@SA?AUtagUFSIZEL_t@@XZ" PURGE="0" COMMENT="" />
    <EXPORT ORDINAL="1085" NAME="?GetScrollChild@CUFScrollViewer@@QAEPBVCUFElement@@XZ" PURGE="0" COMMENT="" />
    <EXPORT ORDINAL="1086" NAME="?GetScrollInterval@CUFDWriteText@@UAEKXZ" PURGE="0" COMMENT="" />
    <EXPORT ORDINAL="1087" NAME="?GetScrollInterval@CUFDx9Text@@UAEKXZ" PURGE="0" COMMENT="" />
    <EXPORT ORDINAL="1088" NAME="?GetScrollInterval@CUFText@@UAEKXZ" PURGE="0" COMMENT="" />
    <EXPORT ORDINAL="1089" NAME="?GetScrollStep@CUFScrollBarStyle@@QAEMXZ" PURGE="0" COMMENT="" />
    <EXPORT ORDINAL="1090" NAME="?GetSelItemCount@CUFListBox@@QBEHXZ" PURGE="0" COMMENT="" />
    <EXPORT ORDINAL="1091" NAME="?GetSelItems@CUFListBox@@QAEXAAV?$deque@PAVCUFItemControl@@V?$allocator@PAVCUFItemControl@@@std@@@std@@@Z" PURGE="4" COMMENT="" />
    <EXPORT ORDINAL="1092" NAME="?GetSelectedBG@CUFEditText@@QAEKXZ" PURGE="0" COMMENT="" />
    <EXPORT ORDINAL="1093" NAME="?GetSelectedButton@CUFGroupButton@@QAEPAVCUFRadioButton@@XZ" PURGE="0" COMMENT="" />
    <EXPORT ORDINAL="1094" NAME="?GetSelectedFC@CUFEditText@@QAEKXZ" PURGE="0" COMMENT="" />
    <EXPORT ORDINAL="1095" NAME="?GetSelectedIndex@CUFComboBox@@QBEH_N@Z" PURGE="4" COMMENT="" />
    <EXPORT ORDINAL="1096" NAME="?GetSelectedItem@CUFComboBox@@QAEPAVCUFComboBoxItem@@_N@Z" PURGE="4" COMMENT="" />
    <EXPORT ORDINAL="1097" NAME="?GetSeparator@CUFStackPanel@@QAEMXZ" PURGE="0" COMMENT="" />
    <EXPORT ORDINAL="1098" NAME="?GetSingleLineArea@CUFDWriteText@@UAEXAAUtagUFSIZEF_t@@_N@Z" PURGE="8" COMMENT="" />
    <EXPORT ORDINAL="1099" NAME="?GetSingleLineArea@CUFDWriteText@@UAEXAAUtagUFSIZEL_t@@_N@Z" PURGE="8" COMMENT="" />
    <EXPORT ORDINAL="1100" NAME="?GetSingleLineArea@CUFDx9Text@@UAEXAAUtagUFSIZEF_t@@_N@Z" PURGE="8" COMMENT="" />
    <EXPORT ORDINAL="1101" NAME="?GetSingleLineArea@CUFDx9Text@@UAEXAAUtagUFSIZEL_t@@_N@Z" PURGE="8" COMMENT="" />
    <EXPORT ORDINAL="1102" NAME="?GetSingleLineArea@CUFText@@UAEXAAUtagUFSIZEF_t@@_N@Z" PURGE="8" COMMENT="" />
    <EXPORT ORDINAL="1103" NAME="?GetSingleLineArea@CUFText@@UAEXAAUtagUFSIZEL_t@@_N@Z" PURGE="8" COMMENT="" />
    <EXPORT ORDINAL="1104" NAME="?GetSingleLineInfo@CUFDx9Text@@AAE_NABV?$basic_string@_WU?$char_traits@_W@std@@V?$allocator@_W@2@@std@@AAUtagBreakLineInfo_t@@@Z" PURGE="8" COMMENT="" />
    <EXPORT ORDINAL="1105" NAME="?GetSize@CUFElement@@UAE?AUtagUFSIZEF_t@@XZ" PURGE="4" COMMENT="" />
    <EXPORT ORDINAL="1106" NAME="?GetSize@CUFMetaBase@@UAEXAAUtagUFSIZEF_t@@@Z" PURGE="4" COMMENT="" />
    <EXPORT ORDINAL="1107" NAME="?GetStackPanel@CUFComboBoxDropDown@@QAEXPAPAVCUFStackPanel@@@Z" PURGE="4" COMMENT="" />
    <EXPORT ORDINAL="1108" NAME="?GetStaticIconFlag@CUFMenuItem@@QBE_NXZ" PURGE="0" COMMENT="" />
    <EXPORT ORDINAL="1109" NAME="?GetStatus@CUFDxSound@@UAEXPAK@Z" PURGE="4" COMMENT="" />
    <EXPORT ORDINAL="1110" NAME="?GetStatus@CUFSound@@UAEXPAK@Z" PURGE="4" COMMENT="" />
    <EXPORT ORDINAL="1111" NAME="?GetStaysSpan@CUFToolTip@@QAEHXZ" PURGE="0" COMMENT="" />
    <EXPORT ORDINAL="1112" NAME="?GetStepDecreaseImage@CUFScrollBarStyle@@QAE?BUtagDECORATIONIMAGE_t@@XZ" PURGE="4" COMMENT="" />
    <EXPORT ORDINAL="1113" NAME="?GetStepDecreaseSlice@CUFScrollBarStyle@@QAEXAAM0@Z" PURGE="8" COMMENT="" />
    <EXPORT ORDINAL="1114" NAME="?GetStepIncreaseImage@CUFScrollBarStyle@@QAE?BUtagDECORATIONIMAGE_t@@XZ" PURGE="4" COMMENT="" />
    <EXPORT ORDINAL="1115" NAME="?GetStepIncreaseSlice@CUFScrollBarStyle@@QAEXAAM0@Z" PURGE="8" COMMENT="" />
    <EXPORT ORDINAL="1116" NAME="?GetStepRepeatClickInterval@CUFScrollBarStyle@@QAEHXZ" PURGE="0" COMMENT="" />
    <EXPORT ORDINAL="1117" NAME="?GetStretch@CUFPanel@@QAE?AW4enumPANELSTRETCH@@XZ" PURGE="0" COMMENT="" />
    <EXPORT ORDINAL="1118" NAME="?GetSubMenu@CUFMenuItem@@QAEPAVCUFMenu@@XZ" PURGE="0" COMMENT="" />
    <EXPORT ORDINAL="1119" NAME="?GetSuccessors@CUFControl@@UAE?AV?$vector@PAVCUFEventTarget@@V?$allocator@PAVCUFEventTarget@@@std@@@std@@XZ" PURGE="4" COMMENT="" />
    <EXPORT ORDINAL="1120" NAME="?GetSuccessors@CUFEventTarget@@UAE?AV?$vector@PAVCUFEventTarget@@V?$allocator@PAVCUFEventTarget@@@std@@@std@@XZ" PURGE="4" COMMENT="" />
    <EXPORT ORDINAL="1121" NAME="?GetSuccessors@CUFLayer@@UAE?AV?$vector@PAVCUFEventTarget@@V?$allocator@PAVCUFEventTarget@@@std@@@std@@XZ" PURGE="4" COMMENT="" />
    <EXPORT ORDINAL="1122" NAME="?GetSuccessors@CUFLayerManager@@UAE?AV?$vector@PAVCUFEventTarget@@V?$allocator@PAVCUFEventTarget@@@std@@@std@@XZ" PURGE="4" COMMENT="" />
    <EXPORT ORDINAL="1123" NAME="?GetSuccessors@IUFWindow@@UAE?AV?$vector@PAVCUFEventTarget@@V?$allocator@PAVCUFEventTarget@@@std@@@std@@XZ" PURGE="4" COMMENT="" />
    <EXPORT ORDINAL="1124" NAME="?GetSupposeCursorPosX@CUFEditText@@AAEMH@Z" PURGE="4" COMMENT="" />
    <EXPORT ORDINAL="1125" NAME="?GetSysTime@CUFPlatformHelper@@SAKXZ" PURGE="-1" COMMENT="" />
    <EXPORT ORDINAL="1126" NAME="?GetTabIndex@CUFElement@@UAEHXZ" PURGE="0" COMMENT="" />
    <EXPORT ORDINAL="1127" NAME="?GetTexType@CUFImage@@QAE?AW4enumIMAGE_TYPE@@XZ" PURGE="0" COMMENT="" />
    <EXPORT ORDINAL="1128" NAME="?GetText@CUFComboBox@@QAE?AV?$basic_string@_WU?$char_traits@_W@std@@V?$allocator@_W@2@@std@@_N@Z" PURGE="8" COMMENT="" />
    <EXPORT ORDINAL="1129" NAME="?GetText@CUFDWriteText@@UAEXAAV?$basic_string@_WU?$char_traits@_W@std@@V?$allocator@_W@2@@std@@@Z" PURGE="4" COMMENT="" />
    <EXPORT ORDINAL="1130" NAME="?GetText@CUFDx9Text@@UAEXAAV?$basic_string@_WU?$char_traits@_W@std@@V?$allocator@_W@2@@std@@@Z" PURGE="4" COMMENT="" />
    <EXPORT ORDINAL="1131" NAME="?GetText@CUFEditText@@UAEXAAV?$basic_string@_WU?$char_traits@_W@std@@V?$allocator@_W@2@@std@@@Z" PURGE="4" COMMENT="" />
    <EXPORT ORDINAL="1132" NAME="?GetText@CUFItemControl@@UAE?AV?$basic_string@_WU?$char_traits@_W@std@@V?$allocator@_W@2@@std@@XZ" PURGE="4" COMMENT="" />
    <EXPORT ORDINAL="1133" NAME="?GetText@CUFMenuItem@@UAE?AV?$basic_string@_WU?$char_traits@_W@std@@V?$allocator@_W@2@@std@@XZ" PURGE="4" COMMENT="" />
    <EXPORT ORDINAL="1134" NAME="?GetText@CUFText@@UAEXAAV?$basic_string@_WU?$char_traits@_W@std@@V?$allocator@_W@2@@std@@@Z" PURGE="4" COMMENT="" />
    <EXPORT ORDINAL="1135" NAME="?GetTextRect@CUFDWriteFont@@UAE_NABV?$basic_string@_WU?$char_traits@_W@std@@V?$allocator@_W@2@@std@@AAUtagUFSIZEF_t@@MW4enumTEXT_DRAWTYPE@@K_N@Z" PURGE="24" COMMENT="" />
    <EXPORT ORDINAL="1136" NAME="?GetTextRect@CUFDxFont@@UAE_NABV?$basic_string@_WU?$char_traits@_W@std@@V?$allocator@_W@2@@std@@AAUtagUFSIZEF_t@@MW4enumTEXT_DRAWTYPE@@K_N@Z" PURGE="24" COMMENT="" />
    <EXPORT ORDINAL="1137" NAME="?GetTextRect@CUFTextMeta@@QAE_NABV?$basic_string@_WU?$char_traits@_W@std@@V?$allocator@_W@2@@std@@AAUtagUFSIZEF_t@@KM_N@Z" PURGE="20" COMMENT="" />
    <EXPORT ORDINAL="1138" NAME="?GetTexture@CUFD2D3DEffectResource@@QAEJPAPAUID3D10ShaderResourceView@@@Z" PURGE="4" COMMENT="" />
    <EXPORT ORDINAL="1139" NAME="?GetTexture@CUFD2DTextureManager@@UAEPAXABV?$basic_string@_WU?$char_traits@_W@std@@V?$allocator@_W@2@@std@@@Z" PURGE="4" COMMENT="" />
    <EXPORT ORDINAL="1140" NAME="?GetTexture@CUFD2DTextureManager@@UAEPAXI@Z" PURGE="4" COMMENT="" />
    <EXPORT ORDINAL="1141" NAME="?GetTexture@CUFDx10TexRVManager@@UAEPAXABV?$basic_string@_WU?$char_traits@_W@std@@V?$allocator@_W@2@@std@@@Z" PURGE="4" COMMENT="" />
    <EXPORT ORDINAL="1142" NAME="?GetTexture@CUFDx10TexRVManager@@UAEPAXI@Z" PURGE="4" COMMENT="" />
    <EXPORT ORDINAL="1143" NAME="?GetTexture@CUFDxTextureManager@@UAEPAXABV?$basic_string@_WU?$char_traits@_W@std@@V?$allocator@_W@2@@std@@@Z" PURGE="4" COMMENT="" />
    <EXPORT ORDINAL="1144" NAME="?GetTexture@CUFDxTextureManager@@UAEPAXI@Z" PURGE="4" COMMENT="" />
    <EXPORT ORDINAL="1145" NAME="?GetTextureByResID@CUFD2DTextureManager@@UAEPAXH@Z" PURGE="4" COMMENT="" />
    <EXPORT ORDINAL="1146" NAME="?GetTextureByResID@CUFDx10TexRVManager@@UAEPAXH@Z" PURGE="4" COMMENT="" />
    <EXPORT ORDINAL="1147" NAME="?GetTextureByResID@CUFDxTextureManager@@UAEPAXH@Z" PURGE="4" COMMENT="" />
    <EXPORT ORDINAL="1148" NAME="?GetThisEventMap@CUFComboBox@@KAPBUtagUFEVENTMAP_t@@XZ" PURGE="0" COMMENT="" />
    <EXPORT ORDINAL="1149" NAME="?GetThisEventMap@CUFControl@@KAPBUtagUFEVENTMAP_t@@XZ" PURGE="0" COMMENT="" />
    <EXPORT ORDINAL="1150" NAME="?GetThisEventMap@CUFEditText@@KAPBUtagUFEVENTMAP_t@@XZ" PURGE="0" COMMENT="" />
    <EXPORT ORDINAL="1151" NAME="?GetThisEventMap@CUFElement@@KAPBUtagUFEVENTMAP_t@@XZ" PURGE="0" COMMENT="" />
    <EXPORT ORDINAL="1152" NAME="?GetThisEventMap@CUFEventTarget@@KAPBUtagUFEVENTMAP_t@@XZ" PURGE="0" COMMENT="" />
    <EXPORT ORDINAL="1153" NAME="?GetThisEventMap@CUFLayer@@KAPBUtagUFEVENTMAP_t@@XZ" PURGE="0" COMMENT="" />
    <EXPORT ORDINAL="1154" NAME="?GetThisEventMap@CUFPopUPWCP@@KAPBUtagUFEVENTMAP_t@@XZ" PURGE="0" COMMENT="" />
    <EXPORT ORDINAL="1155" NAME="?GetThisEventMap@CUFWCPMenu@@KAPBUtagUFEVENTMAP_t@@XZ" PURGE="0" COMMENT="" />
    <EXPORT ORDINAL="1156" NAME="?GetThisEventMap@CUFWin32Window@@KAPBUtagUFEVENTMAP_t@@XZ" PURGE="0" COMMENT="" />
    <EXPORT ORDINAL="1157" NAME="?GetThisEventMap@CUFWinChildPanel@@KAPBUtagUFEVENTMAP_t@@XZ" PURGE="0" COMMENT="" />
    <EXPORT ORDINAL="1158" NAME="?GetThisEventMap@CUFWndPanel@@KAPBUtagUFEVENTMAP_t@@XZ" PURGE="0" COMMENT="" />
    <EXPORT ORDINAL="1159" NAME="?GetThumbHeight@CUFSliderBarStyle@@QAEMXZ" PURGE="0" COMMENT="" />
    <EXPORT ORDINAL="1160" NAME="?GetThumbImage@CUFRangeBaseStyle@@QAE?BUtagDECORATIONIMAGE_t@@XZ" PURGE="4" COMMENT="" />
    <EXPORT ORDINAL="1161" NAME="?GetThumbImageSlice@CUFRangeBaseStyle@@QAEXAAM0@Z" PURGE="8" COMMENT="" />
    <EXPORT ORDINAL="1162" NAME="?GetThumbLength@CUFRangeBase@@IAEMXZ" PURGE="0" COMMENT="" />
    <EXPORT ORDINAL="1163" NAME="?GetThumbWidth@CUFSliderBarStyle@@QAEMXZ" PURGE="0" COMMENT="" />
    <EXPORT ORDINAL="1164" NAME="?GetTick@CUFSliderBar@@QBE?AV?$list@MV?$allocator@M@std@@@std@@XZ" PURGE="4" COMMENT="" />
    <EXPORT ORDINAL="1165" NAME="?GetTickFrequency@CUFSliderBarStyle@@QAEMXZ" PURGE="0" COMMENT="" />
    <EXPORT ORDINAL="1166" NAME="?GetToggleImage@CUFStateButton@@QAE_NAAVCUFBackImage@@_N@Z" PURGE="8" COMMENT="" />
    <EXPORT ORDINAL="1167" NAME="?GetToggleRatio@CUFStateButton@@QBEMXZ" PURGE="0" COMMENT="" />
    <EXPORT ORDINAL="1168" NAME="?GetTrackLength@CUFRangeBase@@IAEMXZ" PURGE="0" COMMENT="" />
    <EXPORT ORDINAL="1169" NAME="?GetTrackSize@CUFSliderBarStyle@@QAEMXZ" PURGE="0" COMMENT="" />
    <EXPORT ORDINAL="1170" NAME="?GetUF3D10Device@CUFD2DDeviceDxgi@@QAEXPAPAVCUFDx10Device@@@Z" PURGE="4" COMMENT="" />
    <EXPORT ORDINAL="1171" NAME="?GetUFDevice@CUFD2D3DEffectResource@@QAEPAVCUFDx10Device@@XZ" PURGE="0" COMMENT="" />
    <EXPORT ORDINAL="1172" NAME="?GetVScrollBarVisibility@CUFScrollViewer@@QAE?AW4enumSCROLLBARVISIBILITY@@XZ" PURGE="0" COMMENT="" />
    <EXPORT ORDINAL="1173" NAME="?GetValue@CUFRangeBase@@UAEMXZ" PURGE="0" COMMENT="" />
    <EXPORT ORDINAL="1174" NAME="?GetVertexes@CUFElement@@UAE?AV?$vector@UtagFPOINT_t@@V?$allocator@UtagFPOINT_t@@@std@@@std@@XZ" PURGE="4" COMMENT="" />
    <EXPORT ORDINAL="1175" NAME="?GetVertexes@CUFTriangle@@UAE?AV?$vector@UtagFPOINT_t@@V?$allocator@UtagFPOINT_t@@@std@@@std@@XZ" PURGE="4" COMMENT="" />
    <EXPORT ORDINAL="1176" NAME="?GetVerticalChange@CUFThumb@@QAEMXZ" PURGE="0" COMMENT="" />
    <EXPORT ORDINAL="1177" NAME="?GetVerticalOffset@CUFScrollViewer@@QAEMXZ" PURGE="0" COMMENT="" />
    <EXPORT ORDINAL="1178" NAME="?GetVerticalSeparator@CUFWrapPanel@@QAEMXZ" PURGE="0" COMMENT="" />
    <EXPORT ORDINAL="1179" NAME="?GetVerticalShowPos@CUFToolTip@@MAEMM@Z" PURGE="4" COMMENT="" />
    <EXPORT ORDINAL="1180" NAME="?GetViewPortHeight@CUFScrollViewer@@QAEMXZ" PURGE="-1" COMMENT="" />
    <EXPORT ORDINAL="1181" NAME="?GetViewPortSize@CUFScrollBarStyle@@QAEMXZ" PURGE="0" COMMENT="" />
    <EXPORT ORDINAL="1182" NAME="?GetViewPortWidth@CUFScrollViewer@@QAEMXZ" PURGE="-1" COMMENT="" />
    <EXPORT ORDINAL="1183" NAME="?GetVisibleArea@CUFD2DDevice@@UAE_NAAUtagUFRECTF_t@@@Z" PURGE="4" COMMENT="" />
    <EXPORT ORDINAL="1184" NAME="?GetVisibleArea@CUFDx10Device@@UAE_NAAUtagUFRECTF_t@@@Z" PURGE="4" COMMENT="" />
    <EXPORT ORDINAL="1185" NAME="?GetVisibleArea@CUFDxDevice@@UAE_NAAUtagUFRECTF_t@@@Z" PURGE="4" COMMENT="" />
    <EXPORT ORDINAL="1186" NAME="?GetVolume@CUFDxSound@@UAEJPAJ@Z" PURGE="4" COMMENT="" />
    <EXPORT ORDINAL="1187" NAME="?GetVolume@CUFSound@@UAEJPAJ@Z" PURGE="4" COMMENT="" />
    <EXPORT ORDINAL="1188" NAME="?GetWICFactory@CUFD2DTextureManager@@AAEPAUIWICImagingFactory@@XZ" PURGE="0" COMMENT="" />
    <EXPORT ORDINAL="1189" NAME="?GetWICFactory@CUFD2DThreadTextureManager@@AAEPAUIWICImagingFactory@@XZ" PURGE="0" COMMENT="" />
    <EXPORT ORDINAL="1190" NAME="?GetWaveData@CUFDxSound@@AAE_NPAXAAPAUtWAVEFORMATEX@@AAPAXAAK@Z" PURGE="16" COMMENT="" />
    <EXPORT ORDINAL="1191" NAME="?GetWidth@CUFElement@@UAEMXZ" PURGE="0" COMMENT="" />
    <EXPORT ORDINAL="1192" NAME="?GetWidth@CUFRangeBaseStyle@@QAEMXZ" PURGE="0" COMMENT="" />
    <EXPORT ORDINAL="1193" NAME="?GetWidth@CUFWin32Window@@UBEHXZ" PURGE="0" COMMENT="" />
    <EXPORT ORDINAL="1194" NAME="?GetWidth@IUFWindow@@UBEHXZ" PURGE="0" COMMENT="" />
    <EXPORT ORDINAL="1195" NAME="?GetWindowStyle@IUFWindow@@UAE?AW4enumUFWINDOWSTYLE@@XZ" PURGE="0" COMMENT="" />
    <EXPORT ORDINAL="1196" NAME="?GetWndScale@CUFWinChildPanel@@AAEMXZ" PURGE="0" COMMENT="" />
    <EXPORT ORDINAL="1197" NAME="?GetZIndex@CUFElement@@UAEHXZ" PURGE="0" COMMENT="" />
    <EXPORT ORDINAL="1198" NAME="?GlobalMemcpy@CUFPlatformHelper@@SA_NPAXIPBXI@Z" PURGE="0" COMMENT="" />
    <EXPORT ORDINAL="1199" NAME="?HandleAccels@CUFWin32AccelManager@@QAEXPAUtagUFCOMMANDEVENT_t@@@Z" PURGE="4" COMMENT="" />
    <EXPORT ORDINAL="1200" NAME="?HandleAnimationFinish@CUFElement@@IAE_NPAUtagUFEVENT_t@@@Z" PURGE="4" COMMENT="" />
    <EXPORT ORDINAL="1201" NAME="?HandleCaptureChanged@CUFElement@@IAE_NPAUtagUFEVENT_t@@@Z" PURGE="4" COMMENT="" />
    <EXPORT ORDINAL="1202" NAME="?HandleCommand@CUFElement@@IAE_NPAUtagUFEVENT_t@@@Z" PURGE="4" COMMENT="" />
    <EXPORT ORDINAL="1203" NAME="?HandleDesignChagned@CUFElement@@IAE_NPAUtagUFEVENT_t@@@Z" PURGE="4" COMMENT="" />
    <EXPORT ORDINAL="1204" NAME="?HandleDesignChange@CUFWin32Window@@IAE_NPAUtagUFEVENT_t@@@Z" PURGE="4" COMMENT="" />
    <EXPORT ORDINAL="1205" NAME="?HandleDisplayChange@CUFElement@@IAE_NPAUtagUFEVENT_t@@@Z" PURGE="4" COMMENT="" />
    <EXPORT ORDINAL="1206" NAME="?HandleDisplayChange@CUFWin32Window@@IAE_NPAUtagUFEVENT_t@@@Z" PURGE="4" COMMENT="" />
    <EXPORT ORDINAL="1207" NAME="?HandleEvent@CUFEventTarget@@UAE_NPAUtagUFEVENT_t@@@Z" PURGE="4" COMMENT="" />
    <EXPORT ORDINAL="1208" NAME="?HandleFlick@CUFElement@@IAE_NPAUtagUFEVENT_t@@@Z" PURGE="4" COMMENT="" />
    <EXPORT ORDINAL="1209" NAME="?HandleFocusChange@CUFControl@@IAE_NPAUtagUFEVENT_t@@@Z" PURGE="4" COMMENT="" />
    <EXPORT ORDINAL="1210" NAME="?HandleFocusChange@CUFElement@@IAE_NPAUtagUFEVENT_t@@@Z" PURGE="4" COMMENT="" />
    <EXPORT ORDINAL="1211" NAME="?HandleGesture@CUFElement@@IAE_NPAUtagUFEVENT_t@@@Z" PURGE="4" COMMENT="" />
    <EXPORT ORDINAL="1212" NAME="?HandleHidePopUp@CUFComboBox@@MAE_NPAUtagUFEVENT_t@@@Z" PURGE="4" COMMENT="" />
    <EXPORT ORDINAL="1213" NAME="?HandleItemLostFocus@CUFComboBox@@MAE_NPAUtagUFEVENT_t@@@Z" PURGE="4" COMMENT="" />
    <EXPORT ORDINAL="1214" NAME="?HandleKeyChar@CUFElement@@IAE_NPAUtagUFEVENT_t@@@Z" PURGE="4" COMMENT="" />
    <EXPORT ORDINAL="1215" NAME="?HandleKeyDown@CUFElement@@IAE_NPAUtagUFEVENT_t@@@Z" PURGE="4" COMMENT="" />
    <EXPORT ORDINAL="1216" NAME="?HandleKeyUp@CUFElement@@IAE_NPAUtagUFEVENT_t@@@Z" PURGE="4" COMMENT="" />
    <EXPORT ORDINAL="1217" NAME="?HandleLButtonDblClk@CUFElement@@IAE_NPAUtagUFEVENT_t@@@Z" PURGE="4" COMMENT="" />
    <EXPORT ORDINAL="1218" NAME="?HandleLButtonDown@CUFElement@@IAE_NPAUtagUFEVENT_t@@@Z" PURGE="4" COMMENT="" />
    <EXPORT ORDINAL="1219" NAME="?HandleLButtonDown@CUFWin32Window@@IAE_NPAUtagUFEVENT_t@@@Z" PURGE="4" COMMENT="" />
    <EXPORT ORDINAL="1220" NAME="?HandleLButtonUp@CUFElement@@IAE_NPAUtagUFEVENT_t@@@Z" PURGE="4" COMMENT="" />
    <EXPORT ORDINAL="1221" NAME="?HandleLButtonUp@CUFWin32Window@@IAE_NPAUtagUFEVENT_t@@@Z" PURGE="4" COMMENT="" />
    <EXPORT ORDINAL="1222" NAME="?HandleLostDevice@CUFElement@@IAE_NPAUtagUFEVENT_t@@@Z" PURGE="4" COMMENT="" />
    <EXPORT ORDINAL="1223" NAME="?HandleMButtonDblClk@CUFElement@@IAE_NPAUtagUFEVENT_t@@@Z" PURGE="4" COMMENT="" />
    <EXPORT ORDINAL="1224" NAME="?HandleMButtonDown@CUFElement@@IAE_NPAUtagUFEVENT_t@@@Z" PURGE="4" COMMENT="" />
    <EXPORT ORDINAL="1225" NAME="?HandleMButtonUp@CUFElement@@IAE_NPAUtagUFEVENT_t@@@Z" PURGE="4" COMMENT="" />
    <EXPORT ORDINAL="1226" NAME="?HandleMouseHWheel@CUFElement@@IAE_NPAUtagUFEVENT_t@@@Z" PURGE="4" COMMENT="" />
    <EXPORT ORDINAL="1227" NAME="?HandleMouseMove@CUFElement@@IAE_NPAUtagUFEVENT_t@@@Z" PURGE="4" COMMENT="" />
    <EXPORT ORDINAL="1228" NAME="?HandleMouseMove@CUFWin32Window@@IAE_NPAUtagUFEVENT_t@@@Z" PURGE="-1" COMMENT="" />
    <EXPORT ORDINAL="1229" NAME="?HandleMouseOut@CUFElement@@IAE_NPAUtagUFEVENT_t@@@Z" PURGE="4" COMMENT="" />
    <EXPORT ORDINAL="1230" NAME="?HandleMouseWheel@CUFElement@@IAE_NPAUtagUFEVENT_t@@@Z" PURGE="4" COMMENT="" />
    <EXPORT ORDINAL="1231" NAME="?HandleRButtonDblClk@CUFElement@@IAE_NPAUtagUFEVENT_t@@@Z" PURGE="4" COMMENT="" />
    <EXPORT ORDINAL="1232" NAME="?HandleRButtonDown@CUFElement@@IAE_NPAUtagUFEVENT_t@@@Z" PURGE="4" COMMENT="" />
    <EXPORT ORDINAL="1233" NAME="?HandleRButtonUp@CUFElement@@IAE_NPAUtagUFEVENT_t@@@Z" PURGE="4" COMMENT="" />
    <EXPORT ORDINAL="1234" NAME="?HandleResetDevice@CUFElement@@IAE_NPAUtagUFEVENT_t@@@Z" PURGE="4" COMMENT="" />
    <EXPORT ORDINAL="1235" NAME="?HandleSetCursor@CUFElement@@IAE_NPAUtagUFEVENT_t@@@Z" PURGE="4" COMMENT="" />
    <EXPORT ORDINAL="1236" NAME="?HandleSetCursor@CUFWin32Window@@IAE_NPAUtagUFEVENT_t@@@Z" PURGE="4" COMMENT="" />
    <EXPORT ORDINAL="1237" NAME="?HandleSetDefaultFocus@CUFLayer@@IAE_NPAUtagUFEVENT_t@@@Z" PURGE="4" COMMENT="" />
    <EXPORT ORDINAL="1238" NAME="?HandleTab@CUFEventDispatcher@@CA_NPBUtagUFKEYEVENT_t@@@Z" PURGE="0" COMMENT="" />
    <EXPORT ORDINAL="1239" NAME="?HandleTimers@CUFTimerManager@@QAEXXZ" PURGE="0" COMMENT="" />
    <EXPORT ORDINAL="1240" NAME="?HandleTouch@CUFElement@@IAE_NPAUtagUFEVENT_t@@@Z" PURGE="4" COMMENT="" />
    <EXPORT ORDINAL="1241" NAME="?HandleWinMsg@CUFEditText@@IAE_NPAUtagUFEVENT_t@@@Z" PURGE="4" COMMENT="" />
    <EXPORT ORDINAL="1242" NAME="?HandleWinMsg@CUFElement@@IAE_NPAUtagUFEVENT_t@@@Z" PURGE="4" COMMENT="" />
    <EXPORT ORDINAL="1243" NAME="?HandleWinMsg@CUFWin32Window@@IAE_NPAUtagUFEVENT_t@@@Z" PURGE="4" COMMENT="" />
    <EXPORT ORDINAL="1244" NAME="?HandleWinMsg@CUFWinChildPanel@@AAE_NPAUtagUFEVENT_t@@@Z" PURGE="4" COMMENT="" />
    <EXPORT ORDINAL="1245" NAME="?HandleWinMsg@CUFWndPanel@@MAE_NPAUtagUFEVENT_t@@@Z" PURGE="4" COMMENT="" />
    <EXPORT ORDINAL="1246" NAME="?HandleWndClose@CUFWin32Window@@IAE_NPAUtagUFEVENT_t@@@Z" PURGE="4" COMMENT="" />
    <EXPORT ORDINAL="1247" NAME="?HandleWndSize@CUFElement@@IAE_NPAUtagUFEVENT_t@@@Z" PURGE="4" COMMENT="" />
    <EXPORT ORDINAL="1248" NAME="?HasSubMenu@CUFMenuItem@@QAE_NXZ" PURGE="0" COMMENT="" />
    <EXPORT ORDINAL="1249" NAME="?HasWork@CUFThreadTextureManager@@AAE_NXZ" PURGE="0" COMMENT="" />
    <EXPORT ORDINAL="1250" NAME="?Hidden@CUFPopUp@@UAEXXZ" PURGE="0" COMMENT="" />
    <EXPORT ORDINAL="1251" NAME="?Hidden@CUFToolTip@@UAEXXZ" PURGE="0" COMMENT="" />
    <EXPORT ORDINAL="1252" NAME="?Hide@CUFChildWnd@@UAEXXZ" PURGE="0" COMMENT="" />
    <EXPORT ORDINAL="1253" NAME="?Hide@CUFEmptyDeviceWnd@@UAEXXZ" PURGE="0" COMMENT="" />
    <EXPORT ORDINAL="1254" NAME="?Hide@CUFLayer@@UAEXJ@Z" PURGE="4" COMMENT="" />
    <EXPORT ORDINAL="1255" NAME="?Hide@CUFPopUPWCP@@QAEXXZ" PURGE="0" COMMENT="" />
    <EXPORT ORDINAL="1256" NAME="?Hide@CUFWinChildPanel@@UAEXXZ" PURGE="0" COMMENT="" />
    <EXPORT ORDINAL="1257" NAME="?Hide@CUFWinPopupPanel@@UAEXXZ" PURGE="0" COMMENT="" />
    <EXPORT ORDINAL="1258" NAME="?Hide@CUFWndPanel@@UAEXXZ" PURGE="0" COMMENT="" />
    <EXPORT ORDINAL="1259" NAME="?HideAllSubMenu@CUFMenu@@QAEXXZ" PURGE="0" COMMENT="" />
    <EXPORT ORDINAL="1260" NAME="?HideMenu@CUFMenu@@UAEXXZ" PURGE="0" COMMENT="" />
    <EXPORT ORDINAL="1261" NAME="?HideMenu@CUFWCPMenu@@UAEXXZ" PURGE="0" COMMENT="" />
    <EXPORT ORDINAL="1262" NAME="?HideSubMenu@CUFMenuItem@@QAEXXZ" PURGE="0" COMMENT="" />
    <EXPORT ORDINAL="1263" NAME="?HighLightMenuItem@CUFMenuItem@@UAEX_N@Z" PURGE="4" COMMENT="" />
    <EXPORT ORDINAL="1264" NAME="?HitTest@CUFComboBoxItem@@UAEPAVCUFElement@@MM@Z" PURGE="8" COMMENT="" />
    <EXPORT ORDINAL="1265" NAME="?HitTest@CUFControl@@UAEPAVCUFElement@@MM@Z" PURGE="8" COMMENT="" />
    <EXPORT ORDINAL="1266" NAME="?HitTest@CUFElement@@UAEPAV1@MM@Z" PURGE="8" COMMENT="" />
    <EXPORT ORDINAL="1267" NAME="?HitTest@CUFLayer@@UAEPAVCUFElement@@MM@Z" PURGE="8" COMMENT="" />
    <EXPORT ORDINAL="1268" NAME="?HitTest@CUFLayerManager@@QAEPAVCUFElement@@MM_N@Z" PURGE="12" COMMENT="" />
    <EXPORT ORDINAL="1269" NAME="?HitTest@CUFLine@@MAEPAVCUFElement@@MM@Z" PURGE="8" COMMENT="" />
    <EXPORT ORDINAL="1270" NAME="?HitTestForMouseDown@CUFLayer@@QAEPAVCUFElement@@MM@Z" PURGE="8" COMMENT="" />
    <EXPORT ORDINAL="1271" NAME="?HorizontalDirectionMove@CUFListBox@@MAEXPAVCUFItemControl@@0@Z" PURGE="8" COMMENT="" />
    <EXPORT ORDINAL="1272" NAME="?ImmGetContext@CUFPlatformHelper@@SAPAUHIMC__@@XZ" PURGE="0" COMMENT="" />
    <EXPORT ORDINAL="1273" NAME="?ImmGetOpenStatus@CUFPlatformHelper@@SA_NPAUHIMC__@@@Z" PURGE="0" COMMENT="" />
    <EXPORT ORDINAL="1274" NAME="?ImmReleaseContext@CUFPlatformHelper@@SA_NPAUHIMC__@@@Z" PURGE="0" COMMENT="" />
    <EXPORT ORDINAL="1275" NAME="?ImmSetOpenStatus@CUFPlatformHelper@@SA_NPAUHIMC__@@_N@Z" PURGE="0" COMMENT="" />
    <EXPORT ORDINAL="1276" NAME="?IncreaseLine@CUFScrollBar@@QAEXXZ" PURGE="0" COMMENT="" />
    <EXPORT ORDINAL="1277" NAME="?IncreasePage@CUFScrollBar@@QAEXXZ" PURGE="0" COMMENT="" />
    <EXPORT ORDINAL="1278" NAME="?InitBlendState@CUFDx10Device@@AAEJXZ" PURGE="0" COMMENT="" />
    <EXPORT ORDINAL="1279" NAME="?InitControls@CUFRangeBase@@IAEX_N@Z" PURGE="4" COMMENT="" />
    <EXPORT ORDINAL="1280" NAME="?InitD2DRenderTarget@CUFDx10Device@@AAEJXZ" PURGE="0" COMMENT="" />
    <EXPORT ORDINAL="1281" NAME="?InitDLSliderBar@CUFDLSliderBar@@IAEX_N@Z" PURGE="4" COMMENT="" />
    <EXPORT ORDINAL="1282" NAME="?InitDWrtieFormat@CUFDWriteFont@@AAEXI@Z" PURGE="4" COMMENT="" />
    <EXPORT ORDINAL="1283" NAME="?InitDWrtieLayout@CUFDWriteFont@@AAEXIPAUtagUFRECTF_t@@@Z" PURGE="8" COMMENT="" />
    <EXPORT ORDINAL="1284" NAME="?InitDepthStencilState@CUFDx10Device@@AAEJXZ" PURGE="0" COMMENT="" />
    <EXPORT ORDINAL="1285" NAME="?InitDevice@CUFDx10Device@@AAEJII@Z" PURGE="8" COMMENT="" />
    <EXPORT ORDINAL="1286" NAME="?InitDevice@CUFDxDevice@@AAEXXZ" PURGE="0" COMMENT="" />
    <EXPORT ORDINAL="1287" NAME="?InitEffect@CUFDx10Device@@AAEJXZ" PURGE="0" COMMENT="" />
    <EXPORT ORDINAL="1288" NAME="?InitEffect@CUFDxDevice@@AAEJXZ" PURGE="0" COMMENT="" />
    <EXPORT ORDINAL="1289" NAME="?InitLayOutState@CUFDx10Device@@AAEJXZ" PURGE="0" COMMENT="" />
    <EXPORT ORDINAL="1290" NAME="?InitManagerRes@CUFThreadTextureManager@@AAEXXZ" PURGE="0" COMMENT="" />
    <EXPORT ORDINAL="1291" NAME="?InitMatrixs@CUFDx10Device@@AAEXXZ" PURGE="0" COMMENT="" />
    <EXPORT ORDINAL="1292" NAME="?InitMeta@CUFListBox@@MAEXXZ" PURGE="0" COMMENT="" />
    <EXPORT ORDINAL="1293" NAME="?InitPanel@CUFListBox@@MAEXM@Z" PURGE="4" COMMENT="" />
    <EXPORT ORDINAL="1294" NAME="?InitRenderTargetView@CUFDx10Device@@AAEJXZ" PURGE="0" COMMENT="" />
    <EXPORT ORDINAL="1295" NAME="?InitScrollBarControls@CUFScrollBar@@IAEX_N@Z" PURGE="4" COMMENT="" />
    <EXPORT ORDINAL="1296" NAME="?InitScrollViewer@CUFListBox@@MAEXXZ" PURGE="0" COMMENT="" />
    <EXPORT ORDINAL="1297" NAME="?InitSliderControls@CUFSliderBar@@IAEXXZ" PURGE="0" COMMENT="" />
    <EXPORT ORDINAL="1298" NAME="?InitTextMetaForMeasuringText@CUFDWriteText@@AAEXXZ" PURGE="0" COMMENT="" />
    <EXPORT ORDINAL="1299" NAME="?InitTextMetaForMeasuringText@CUFDx9Text@@AAEXXZ" PURGE="0" COMMENT="" />
    <EXPORT ORDINAL="1300" NAME="?InitTimer@CUFListBox@@MAEXXZ" PURGE="0" COMMENT="" />
    <EXPORT ORDINAL="1301" NAME="?Initialize@CUFApplication@@AAEXXZ" PURGE="0" COMMENT="" />
    <EXPORT ORDINAL="1302" NAME="?Initialize@CUFD2DDcRenderAdapter@@EAE_NPAUIUnknown@@PAUHWND__@@II@Z" PURGE="16" COMMENT="" />
    <EXPORT ORDINAL="1303" NAME="?Initialize@CUFD2DDevice@@UAEJII_N@Z" PURGE="12" COMMENT="" />
    <EXPORT ORDINAL="1304" NAME="?Initialize@CUFD2DDeviceDc@@UAEJII_N@Z" PURGE="12" COMMENT="" />
    <EXPORT ORDINAL="1305" NAME="?Initialize@CUFD2DDeviceDxgi@@UAEJII_N@Z" PURGE="12" COMMENT="" />
    <EXPORT ORDINAL="1306" NAME="?Initialize@CUFD2DDeviceHwnd@@UAEJII_N@Z" PURGE="12" COMMENT="" />
    <EXPORT ORDINAL="1307" NAME="?Initialize@CUFD2DDxgiRenderAdapter@@EAE_NPAUIUnknown@@PAUHWND__@@II@Z" PURGE="16" COMMENT="" />
    <EXPORT ORDINAL="1308" NAME="?Initialize@CUFD2DHwndRenderAdapter@@EAE_NPAUIUnknown@@PAUHWND__@@II@Z" PURGE="16" COMMENT="" />
    <EXPORT ORDINAL="1309" NAME="?Initialize@CUFDx10Device@@UAEJII_N@Z" PURGE="12" COMMENT="" />
    <EXPORT ORDINAL="1310" NAME="?Initialize@CUFDxDevice@@UAEJII_N@Z" PURGE="12" COMMENT="" />
    <EXPORT ORDINAL="1311" NAME="?Initialize@CUFListBox@@QAEXMMMMM@Z" PURGE="20" COMMENT="" />
    <EXPORT ORDINAL="1312" NAME="?Initialize@CUFMenuItem@@IAEXABUtagMENUITEMINFO_t@@@Z" PURGE="4" COMMENT="" />
    <EXPORT ORDINAL="1313" NAME="?Initialize@CUFRenderAdapter10@@MAE_NPAUIUnknown@@PAUHWND__@@II@Z" PURGE="16" COMMENT="" />
    <EXPORT ORDINAL="1314" NAME="?Initialize@CUFRenderAdapter9@@MAE_NPAUIUnknown@@PAUHWND__@@II@Z" PURGE="16" COMMENT="" />
    <EXPORT ORDINAL="1315" NAME="?Initialize@CUFWin32Window@@UAE_NW4enumRENDER_PLAT@@@Z" PURGE="4" COMMENT="" />
    <EXPORT ORDINAL="1316" NAME="?Initialize@CUFWinPopupPanel@@AAEXXZ" PURGE="0" COMMENT="" />
    <EXPORT ORDINAL="1317" NAME="?Initialize@IUFD2DRenderAdapter@@MAE_NPAUIUnknown@@PAUHWND__@@II@Z" PURGE="16" COMMENT="" />
    <EXPORT ORDINAL="1318" NAME="?InitializeAsSeparator@CUFMenuItem@@IAEXABUtagMENUITEMINFO_t@@@Z" PURGE="4" COMMENT="" />
    <EXPORT ORDINAL="1319" NAME="?InsertElement@CUFPanel@@UAE_NPAVCUFElement@@0@Z" PURGE="8" COMMENT="" />
    <EXPORT ORDINAL="1320" NAME="?InsertElement@CUFPanel@@UAE_NPAVCUFElement@@I@Z" PURGE="8" COMMENT="" />
    <EXPORT ORDINAL="1321" NAME="?InsertItem@CUFComboBox@@UAE_NHPAVCUFItemControl@@@Z" PURGE="8" COMMENT="" />
    <EXPORT ORDINAL="1322" NAME="?InsertItem@CUFItemsControl@@UAE_NHPAVCUFItemControl@@@Z" PURGE="8" COMMENT="" />
    <EXPORT ORDINAL="1323" NAME="?InsertItem@CUFListBox@@UAE_NHPAVCUFItemControl@@@Z" PURGE="8" COMMENT="" />
    <EXPORT ORDINAL="1324" NAME="?InsertItemControl@CUFComboBoxDropDown@@UAEXHPAVCUFComboBoxItem@@@Z" PURGE="8" COMMENT="" />
    <EXPORT ORDINAL="1325" NAME="?InsertMenuItemW@CUFMenu@@QAE_NPAVCUFMenuItem@@I@Z" PURGE="8" COMMENT="" />
    <EXPORT ORDINAL="1326" NAME="?InsertVisibleLayer@CUFLayerManager@@AAEXPAVCUFLayer@@@Z" PURGE="4" COMMENT="" />
    <EXPORT ORDINAL="1327" NAME="?InternalArrange@CUFScrollViewer@@AAEXXZ" PURGE="0" COMMENT="" />
    <EXPORT ORDINAL="1328" NAME="?InternalArrange@CUFStackPanel@@IAEXXZ" PURGE="0" COMMENT="" />
    <EXPORT ORDINAL="1329" NAME="?InternalArrange@CUFWrapPanel@@IAEXXZ" PURGE="0" COMMENT="" />
    <EXPORT ORDINAL="1330" NAME="?InternalHitTest@CUFLayer@@AAEPAVCUFElement@@MM_N@Z" PURGE="12" COMMENT="" />
    <EXPORT ORDINAL="1331" NAME="?InternalMeasure@CUFScrollViewer@@AAEXXZ" PURGE="0" COMMENT="" />
    <EXPORT ORDINAL="1332" NAME="?InvalidateTextLayout@CUFDWriteText@@AAEXXZ" PURGE="0" COMMENT="" />
    <EXPORT ORDINAL="1333" NAME="?IsAnimation@CUFElement@@QAE_NXZ" PURGE="0" COMMENT="" />
    <EXPORT ORDINAL="1334" NAME="?IsAnimationFinish@CUFAnimation@@AAE_NXZ" PURGE="0" COMMENT="" />
    <EXPORT ORDINAL="1335" NAME="?IsBGImage@CUFMenuItem@@QAE_N_N@Z" PURGE="4" COMMENT="" />
    <EXPORT ORDINAL="1336" NAME="?IsBreakChar@CUFDx9Text@@AAE_N_W@Z" PURGE="4" COMMENT="" />
    <EXPORT ORDINAL="1337" NAME="?IsCaptionEndEllipsis@CUFButtonDecoration@@UAE_NXZ" PURGE="0" COMMENT="" />
    <EXPORT ORDINAL="1338" NAME="?IsChecked@CUFToggleButton@@QBE_NXZ" PURGE="0" COMMENT="" />
    <EXPORT ORDINAL="1339" NAME="?IsChildWnd@CUFElement@@QAE_NXZ" PURGE="0" COMMENT="" />
    <EXPORT ORDINAL="1340" NAME="?IsClip@CUFControl@@UAE_NXZ" PURGE="0" COMMENT="" />
    <EXPORT ORDINAL="1341" NAME="?IsClipInheritable@CUFElement@@UAE_NXZ" PURGE="0" COMMENT="" />
    <EXPORT ORDINAL="1342" NAME="?IsControlParent@CUFControl@@UAE_NXZ" PURGE="0" COMMENT="" />
    <EXPORT ORDINAL="1343" NAME="?IsDelete@CUFAnimation@@QAE_NXZ" PURGE="0" COMMENT="" />
    <EXPORT ORDINAL="1344" NAME="?IsDownThumb@CUFRangeBase@@QBE_NXZ" PURGE="0" COMMENT="" />
    <EXPORT ORDINAL="1345" NAME="?IsDragging@CUFThumb@@QAE_NXZ" PURGE="0" COMMENT="" />
    <EXPORT ORDINAL="1346" NAME="?IsDraw@CUFElement@@UAE_NXZ" PURGE="0" COMMENT="" />
    <EXPORT ORDINAL="1347" NAME="?IsDropDownOpened@CUFComboBox@@QAE_NXZ" PURGE="0" COMMENT="" />
    <EXPORT ORDINAL="1348" NAME="?IsElementExist@CUFGroupButton@@IAE_NPBVCUFRadioButton@@@Z" PURGE="4" COMMENT="" />
    <EXPORT ORDINAL="1349" NAME="?IsEmpty@CUFItemsControl@@IBE_NXZ" PURGE="0" COMMENT="" />
    <EXPORT ORDINAL="1350" NAME="?IsEnableMoveToPoint@CUFSliderBar@@QAE_NXZ" PURGE="0" COMMENT="" />
    <EXPORT ORDINAL="1351" NAME="?IsEnabled@CUFElement@@QAE_NXZ" PURGE="0" COMMENT="" />
    <EXPORT ORDINAL="1352" NAME="?IsEnabled@CUFTimer@@QBE_NXZ" PURGE="0" COMMENT="" />
    <EXPORT ORDINAL="1353" NAME="?IsEndEllipsis@CUFText@@QAE_NMM@Z" PURGE="8" COMMENT="" />
    <EXPORT ORDINAL="1354" NAME="?IsExist@CUFItemsControl@@IBE_NPAVCUFItemControl@@@Z" PURGE="4" COMMENT="" />
    <EXPORT ORDINAL="1355" NAME="?IsFocusable@CUFElement@@UAE_NXZ" PURGE="0" COMMENT="" />
    <EXPORT ORDINAL="1356" NAME="?IsFocused@CUFElement@@UAE_NXZ" PURGE="0" COMMENT="" />
    <EXPORT ORDINAL="1357" NAME="?IsHScrollBarDraw@CUFScrollViewer@@QAE_NXZ" PURGE="-1" COMMENT="" />
    <EXPORT ORDINAL="1358" NAME="?IsHasChild@CUFControl@@UAE_NXZ" PURGE="0" COMMENT="" />
    <EXPORT ORDINAL="1359" NAME="?IsHide@CUFLayer@@QAE_NXZ" PURGE="0" COMMENT="" />
    <EXPORT ORDINAL="1360" NAME="?IsHittestEnabled@CUFElement@@UAE_NXZ" PURGE="0" COMMENT="" />
    <EXPORT ORDINAL="1361" NAME="?IsIDInTexList@CUFThreadTextureManager@@AAE_NJ@Z" PURGE="4" COMMENT="" />
    <EXPORT ORDINAL="1362" NAME="?IsImagePathAll@CUFHFPicContainer@@AAE_NXZ" PURGE="0" COMMENT="" />
    <EXPORT ORDINAL="1363" NAME="?IsInDisplayRect@CUFToolTip@@AAE_NABUtagUFRECTF_t@@ABM1@Z" PURGE="12" COMMENT="" />
    <EXPORT ORDINAL="1364" NAME="?IsInGroup@CUFGroupButton@@QAE_NPBVCUFRadioButton@@@Z" PURGE="4" COMMENT="" />
    <EXPORT ORDINAL="1365" NAME="?IsInMiddle@CUFRangeBase@@IAE_NMMM@Z" PURGE="12" COMMENT="" />
    <EXPORT ORDINAL="1366" NAME="?IsInRect@CUFComboBoxItem@@AAE_NMM@Z" PURGE="8" COMMENT="" />
    <EXPORT ORDINAL="1367" NAME="?IsInRect@CUFControl@@AAE_NMM@Z" PURGE="8" COMMENT="" />
    <EXPORT ORDINAL="1368" NAME="?IsLButtonPressed@CUFRepeatButton@@IAE_NXZ" PURGE="0" COMMENT="" />
    <EXPORT ORDINAL="1369" NAME="?IsLoading@CUFImageMeta@@QAE_NXZ" PURGE="0" COMMENT="" />
    <EXPORT ORDINAL="1370" NAME="?IsLoading@CUFThreadTextureManager@@QAE_NJ@Z" PURGE="4" COMMENT="" />
    <EXPORT ORDINAL="1371" NAME="?IsMenuShow@CUFWCPMenu@@QBE_NXZ" PURGE="0" COMMENT="" />
    <EXPORT ORDINAL="1372" NAME="?IsModal@CUFLayer@@QAE_NXZ" PURGE="0" COMMENT="" />
    <EXPORT ORDINAL="1373" NAME="?IsMouseCaptureThis@CUFRepeatButton@@IAE_NXZ" PURGE="0" COMMENT="" />
    <EXPORT ORDINAL="1374" NAME="?IsMouseEventFromTouch@CUFPlatformHelper@@SA_NXZ" PURGE="0" COMMENT="" />
    <EXPORT ORDINAL="1375" NAME="?IsMouseOver@CUFButton@@IAE_NMM@Z" PURGE="8" COMMENT="" />
    <EXPORT ORDINAL="1376" NAME="?IsMouseOver@CUFDecorateButton@@IAE_NMM@Z" PURGE="8" COMMENT="" />
    <EXPORT ORDINAL="1377" NAME="?IsMouseOver@CUFOverlayContainer@@IAE_NMM@Z" PURGE="8" COMMENT="" />
    <EXPORT ORDINAL="1378" NAME="?IsMouseOver@CUFRepeatButton@@IAE_NMM@Z" PURGE="8" COMMENT="" />
    <EXPORT ORDINAL="1379" NAME="?IsMouseOver@CUFRepeatButton@@IAE_NPBUtagUFMOUSEEVENT_t@@@Z" PURGE="4" COMMENT="" />
    <EXPORT ORDINAL="1380" NAME="?IsMouseOver@CUFStateButton@@IAE_NMM@Z" PURGE="8" COMMENT="" />
    <EXPORT ORDINAL="1381" NAME="?IsMouseXOut@CUFEditText@@AAE_NM@Z" PURGE="4" COMMENT="" />
    <EXPORT ORDINAL="1382" NAME="?IsPopup@CUFComboBoxDropDown@@QAE_NXZ" PURGE="0" COMMENT="" />
    <EXPORT ORDINAL="1383" NAME="?IsRender@IUFWindow@@UAE_NXZ" PURGE="0" COMMENT="" />
    <EXPORT ORDINAL="1384" NAME="?IsSelect@CUFItemControl@@QAE_NXZ" PURGE="0" COMMENT="" />
    <EXPORT ORDINAL="1385" NAME="?IsSeparator@CUFMenuItem@@QAE_NXZ" PURGE="0" COMMENT="" />
    <EXPORT ORDINAL="1386" NAME="?IsShow@CUFPopUp@@UAE_NXZ" PURGE="0" COMMENT="" />
    <EXPORT ORDINAL="1387" NAME="?IsShowChar@CUFEditText@@AAE_N_W@Z" PURGE="4" COMMENT="" />
    <EXPORT ORDINAL="1388" NAME="?IsSnapToTick@CUFSliderBar@@QAE_NXZ" PURGE="0" COMMENT="" />
    <EXPORT ORDINAL="1389" NAME="?IsTextureIdAll@CUFHFPicContainer@@AAE_NXZ" PURGE="0" COMMENT="" />
    <EXPORT ORDINAL="1390" NAME="?IsThumbOutTrack@CUFSliderBar@@QAE_NXZ" PURGE="0" COMMENT="" />
    <EXPORT ORDINAL="1391" NAME="?IsTopMost@CUFLayer@@QAE_NXZ" PURGE="0" COMMENT="" />
    <EXPORT ORDINAL="1392" NAME="?IsVScrollBarDraw@CUFScrollViewer@@QAE_NXZ" PURGE="-1" COMMENT="" />
    <EXPORT ORDINAL="1393" NAME="?IsWCP@CUFPlatformHelper@@SA_NPAX@Z" PURGE="0" COMMENT="" />
    <EXPORT ORDINAL="1394" NAME="?IsWPP@CUFPlatformHelper@@SA_NPAX@Z" PURGE="0" COMMENT="" />
    <EXPORT ORDINAL="1395" NAME="?IteratorAllElement@CUFEventDispatcher@@CA_NPAVCUFEventTarget@@0@Z" PURGE="0" COMMENT="" />
    <EXPORT ORDINAL="1396" NAME="?JudgeCapture@CUFRangeBase@@AAEXXZ" PURGE="0" COMMENT="" />
    <EXPORT ORDINAL="1397" NAME="?LaunchThread@CUFThreadTextureManager@@AAE_NXZ" PURGE="0" COMMENT="" />
    <EXPORT ORDINAL="1398" NAME="?LoadAccels@CUFWin32AccelManager@@QAE_NPAXPA_W@Z" PURGE="8" COMMENT="" />
    <EXPORT ORDINAL="1399" NAME="?LoadSoundFromFile@CUFDxSound@@UAE_NAAV?$basic_string@_WU?$char_traits@_W@std@@V?$allocator@_W@2@@std@@@Z" PURGE="4" COMMENT="" />
    <EXPORT ORDINAL="1400" NAME="?LoadSoundFromFile@CUFSound@@UAE_NAAV?$basic_string@_WU?$char_traits@_W@std@@V?$allocator@_W@2@@std@@@Z" PURGE="4" COMMENT="" />
    <EXPORT ORDINAL="1401" NAME="?LoadSoundFromMemory@CUFDxSound@@UAE_NPAX_J@Z" PURGE="12" COMMENT="" />
    <EXPORT ORDINAL="1402" NAME="?LoadSoundFromMemory@CUFSound@@UAE_NPAX_J@Z" PURGE="12" COMMENT="" />
    <EXPORT ORDINAL="1403" NAME="?LoadSoundFromResource@CUFDxSound@@UAE_NPAXAAV?$basic_string@_WU?$char_traits@_W@std@@V?$allocator@_W@2@@std@@@Z" PURGE="8" COMMENT="" />
    <EXPORT ORDINAL="1404" NAME="?LoadSoundFromResource@CUFSound@@UAE_NPAXAAV?$basic_string@_WU?$char_traits@_W@std@@V?$allocator@_W@2@@std@@@Z" PURGE="8" COMMENT="" />
    <EXPORT ORDINAL="1405" NAME="?LoadStockCursor@CUFPlatformHelper@@SAPAXW4tagUFSTOCKCURSOR@@@Z" PURGE="0" COMMENT="" />
    <EXPORT ORDINAL="1406" NAME="?MatchTextureToList@CUFThreadTextureManager@@AAEXJPAX@Z" PURGE="8" COMMENT="" />
    <EXPORT ORDINAL="1407" NAME="?Measure@CUFElement@@UAEXXZ" PURGE="0" COMMENT="" />
    <EXPORT ORDINAL="1408" NAME="?Measure@CUFMenu@@UAEXXZ" PURGE="0" COMMENT="" />
    <EXPORT ORDINAL="1409" NAME="?Measure@CUFMenuItem@@UAEXXZ" PURGE="0" COMMENT="" />
    <EXPORT ORDINAL="1410" NAME="?Measure@CUFStackPanel@@UAEXXZ" PURGE="0" COMMENT="" />
    <EXPORT ORDINAL="1411" NAME="?Measure@CUFWCPMenu@@UAEXXZ" PURGE="0" COMMENT="" />
    <EXPORT ORDINAL="1412" NAME="?Measure@CUFWrapPanel@@UAEXXZ" PURGE="0" COMMENT="" />
    <EXPORT ORDINAL="1413" NAME="?MeasureDesired@CUFStackPanel@@IAEXXZ" PURGE="0" COMMENT="" />
    <EXPORT ORDINAL="1414" NAME="?MeasureDesired@CUFWrapPanel@@IAEXXZ" PURGE="0" COMMENT="" />
    <EXPORT ORDINAL="1415" NAME="?MeasureH@CUFWrapPanel@@IAEXW4enumPANELSTRETCH@@@Z" PURGE="4" COMMENT="" />
    <EXPORT ORDINAL="1416" NAME="?MeasureLineH@CUFWrapPanel@@IAEMAAV?$_Vector_iterator@PAVCUFElement@@V?$allocator@PAVCUFElement@@@std@@@std@@@Z" PURGE="4" COMMENT="" />
    <EXPORT ORDINAL="1417" NAME="?MeasureLineV@CUFWrapPanel@@IAEMAAV?$_Vector_iterator@PAVCUFElement@@V?$allocator@PAVCUFElement@@@std@@@std@@@Z" PURGE="4" COMMENT="" />
    <EXPORT ORDINAL="1418" NAME="?MeasureV@CUFWrapPanel@@IAEXW4enumPANELSTRETCH@@@Z" PURGE="4" COMMENT="" />
    <EXPORT ORDINAL="1419" NAME="?Move2BottomItem@CUFComboBoxDropDown@@UAEXXZ" PURGE="0" COMMENT="" />
    <EXPORT ORDINAL="1420" NAME="?Move2TopItem@CUFComboBoxDropDown@@UAEXXZ" PURGE="0" COMMENT="" />
    <EXPORT ORDINAL="1421" NAME="?MoveScrollViewer@CUFListBox@@IAEXMMJ_N@Z" PURGE="16" COMMENT="" />
    <EXPORT ORDINAL="1422" NAME="?MoveToNextTick@CUFSliderBar@@IAEXM@Z" PURGE="4" COMMENT="" />
    <EXPORT ORDINAL="1423" NAME="?MultiLineAndClipRender@CUFDx9Text@@AAEXXZ" PURGE="0" COMMENT="" />
    <EXPORT ORDINAL="1424" NAME="?MultiLineRender@CUFDx9Text@@AAEXXZ" PURGE="0" COMMENT="" />
    <EXPORT ORDINAL="1425" NAME="?NCTest@CUFWin32Window@@IAE?AW4enumALIGNMENT@@JJ@Z" PURGE="8" COMMENT="" />
    <EXPORT ORDINAL="1426" NAME="?NewEventProcessor@CUFPlatformHelper@@SAPAVIUFEventProcessor@@XZ" PURGE="0" COMMENT="" />
    <EXPORT ORDINAL="1427" NAME="?NoClipPanelHitTest@CUFControl@@AAEPAVCUFElement@@MM@Z" PURGE="8" COMMENT="" />
    <EXPORT ORDINAL="1428" NAME="?NormalRender@CUFDx9Text@@AAEXXZ" PURGE="0" COMMENT="" />
    <EXPORT ORDINAL="1429" NAME="?OnAnimatinoFinish@CUFElement@@MAE_NPBUtagUFANIMATIONEVENT_t@@@Z" PURGE="4" COMMENT="" />
    <EXPORT ORDINAL="1430" NAME="?OnBack@CUFEditText@@AAEXXZ" PURGE="0" COMMENT="" />
    <EXPORT ORDINAL="1431" NAME="?OnBackUp@CUFEditText@@AAEXXZ" PURGE="0" COMMENT="" />
    <EXPORT ORDINAL="1432" NAME="?OnCaptureChanged@CUFButton@@MAE_NPBUtagUFEVENT_t@@@Z" PURGE="4" COMMENT="" />
    <EXPORT ORDINAL="1433" NAME="?OnCaptureChanged@CUFDecorateButton@@MAE_NPBUtagUFEVENT_t@@@Z" PURGE="4" COMMENT="" />
    <EXPORT ORDINAL="1434" NAME="?OnCaptureChanged@CUFElement@@MAE_NPBUtagUFEVENT_t@@@Z" PURGE="4" COMMENT="" />
    <EXPORT ORDINAL="1435" NAME="?OnCaptureChanged@CUFOverlayButton@@MAE_NPBUtagUFEVENT_t@@@Z" PURGE="4" COMMENT="" />
    <EXPORT ORDINAL="1436" NAME="?OnCaptureChanged@CUFOverlayContainer@@MAE_NPBUtagUFEVENT_t@@@Z" PURGE="4" COMMENT="" />
    <EXPORT ORDINAL="1437" NAME="?OnCaptureChanged@CUFRepeatButton@@MAE_NPBUtagUFEVENT_t@@@Z" PURGE="4" COMMENT="" />
    <EXPORT ORDINAL="1438" NAME="?OnCaptureChanged@CUFStateButton@@MAE_NPBUtagUFEVENT_t@@@Z" PURGE="4" COMMENT="" />
    <EXPORT ORDINAL="1439" NAME="?OnCaptureChanged@CUFToggleButton@@MAE_NPBUtagUFEVENT_t@@@Z" PURGE="4" COMMENT="" />
    <EXPORT ORDINAL="1440" NAME="?OnCheckRange@CUFItemControl@@UAE_NABUtagUFRECTF_t@@@Z" PURGE="4" COMMENT="" />
    <EXPORT ORDINAL="1441" NAME="?OnCheckRange@CUFListBoxItem@@UAE_NABUtagUFRECTF_t@@@Z" PURGE="4" COMMENT="" />
    <EXPORT ORDINAL="1442" NAME="?OnChildActivated@CUFLayerManager@@AAEXUtagUFLAYERACTIVEEVENT_t@@@Z" PURGE="8" COMMENT="" />
    <EXPORT ORDINAL="1443" NAME="?OnChildHide@CUFLayerManager@@AAEXUtagUFLAYERACTIVEEVENT_t@@@Z" PURGE="8" COMMENT="" />
    <EXPORT ORDINAL="1444" NAME="?OnComboBoxLostFocus@CUFComboBox@@AAEXPAX@Z" PURGE="4" COMMENT="" />
    <EXPORT ORDINAL="1445" NAME="?OnCommand@CUFElement@@MAE_NPBUtagUFCOMMANDEVENT_t@@@Z" PURGE="4" COMMENT="" />
    <EXPORT ORDINAL="1446" NAME="?OnContentCaptureChanged@CUFThumb@@AAEXPAXPAVCUFElement@@@Z" PURGE="8" COMMENT="" />
    <EXPORT ORDINAL="1447" NAME="?OnContentMouseLButtonDown@CUFThumb@@AAEXPAXIHMM@Z" PURGE="20" COMMENT="" />
    <EXPORT ORDINAL="1448" NAME="?OnContentsSizeChanged@CUFScrollViewer@@AAEXPAXUtagUFSIZEF_t@@@Z" PURGE="12" COMMENT="" />
    <EXPORT ORDINAL="1449" NAME="?OnCtrlAEvent@CUFEditText@@AAEXXZ" PURGE="0" COMMENT="" />
    <EXPORT ORDINAL="1450" NAME="?OnCtrlCEvent@CUFEditText@@AAEXXZ" PURGE="0" COMMENT="" />
    <EXPORT ORDINAL="1451" NAME="?OnCtrlVEvent@CUFEditText@@AAEXXZ" PURGE="0" COMMENT="" />
    <EXPORT ORDINAL="1452" NAME="?OnCtrlXEvent@CUFEditText@@AAEXXZ" PURGE="0" COMMENT="" />
    <EXPORT ORDINAL="1453" NAME="?OnCursorFlashTimer@CUFEditText@@IAEXPAXK@Z" PURGE="8" COMMENT="" />
    <EXPORT ORDINAL="1454" NAME="?OnDelete@CUFEditText@@AAEXXZ" PURGE="0" COMMENT="" />
    <EXPORT ORDINAL="1455" NAME="?OnDesignChanged@CUFElement@@MAE_NPBUtagUFDESIGNCHANGEDEVENT_t@@@Z" PURGE="4" COMMENT="" />
    <EXPORT ORDINAL="1456" NAME="?OnDestroy@CUFWin32Window@@IAE_NPAUtagUFEVENT_t@@@Z" PURGE="4" COMMENT="" />
    <EXPORT ORDINAL="1457" NAME="?OnDeviceLost@CUFDWriteFont@@UAEXXZ" PURGE="0" COMMENT="" />
    <EXPORT ORDINAL="1458" NAME="?OnDeviceLost@CUFDxFont@@UAEXXZ" PURGE="0" COMMENT="" />
    <EXPORT ORDINAL="1459" NAME="?OnDeviceLost@CUFEllipseMeta@@UAEXXZ" PURGE="0" COMMENT="" />
    <EXPORT ORDINAL="1460" NAME="?OnDeviceLost@CUFImageMeta@@UAEXXZ" PURGE="0" COMMENT="" />
    <EXPORT ORDINAL="1461" NAME="?OnDeviceLost@CUFLineMeta@@UAEXXZ" PURGE="0" COMMENT="" />
    <EXPORT ORDINAL="1462" NAME="?OnDeviceLost@CUFMetaBase@@UAEXXZ" PURGE="0" COMMENT="" />
    <EXPORT ORDINAL="1463" NAME="?OnDeviceLost@CUFPen@@QAE_NXZ" PURGE="0" COMMENT="" />
    <EXPORT ORDINAL="1464" NAME="?OnDeviceLost@CUFRenderAdapter10@@UAE_NXZ" PURGE="0" COMMENT="" />
    <EXPORT ORDINAL="1465" NAME="?OnDeviceLost@CUFRenderAdapter9@@UAE_NXZ" PURGE="0" COMMENT="" />
    <EXPORT ORDINAL="1466" NAME="?OnDeviceLost@CUFTextMeta@@QAEXXZ" PURGE="0" COMMENT="" />
    <EXPORT ORDINAL="1467" NAME="?OnDeviceLost@IUFD2DRenderAdapter@@UAE_NXZ" PURGE="0" COMMENT="" />
    <EXPORT ORDINAL="1468" NAME="?OnDeviceReset@CUFDWriteFont@@UAEXXZ" PURGE="0" COMMENT="" />
    <EXPORT ORDINAL="1469" NAME="?OnDeviceReset@CUFDxFont@@UAEXXZ" PURGE="0" COMMENT="" />
    <EXPORT ORDINAL="1470" NAME="?OnDeviceReset@CUFEllipseMeta@@UAEXXZ" PURGE="0" COMMENT="" />
    <EXPORT ORDINAL="1471" NAME="?OnDeviceReset@CUFImageMeta@@UAEXXZ" PURGE="0" COMMENT="" />
    <EXPORT ORDINAL="1472" NAME="?OnDeviceReset@CUFLineMeta@@UAEXXZ" PURGE="0" COMMENT="" />
    <EXPORT ORDINAL="1473" NAME="?OnDeviceReset@CUFMetaBase@@UAEXXZ" PURGE="0" COMMENT="" />
    <EXPORT ORDINAL="1474" NAME="?OnDeviceReset@CUFPen@@QAE_NXZ" PURGE="0" COMMENT="" />
    <EXPORT ORDINAL="1475" NAME="?OnDeviceReset@CUFRenderAdapter10@@UAE_NXZ" PURGE="0" COMMENT="" />
    <EXPORT ORDINAL="1476" NAME="?OnDeviceReset@CUFRenderAdapter9@@UAE_NXZ" PURGE="0" COMMENT="" />
    <EXPORT ORDINAL="1477" NAME="?OnDeviceReset@CUFTextMeta@@QAEXXZ" PURGE="0" COMMENT="" />
    <EXPORT ORDINAL="1478" NAME="?OnDeviceReset@IUFD2DRenderAdapter@@UAE_NXZ" PURGE="0" COMMENT="" />
    <EXPORT ORDINAL="1479" NAME="?OnDisplayChange@CUFElement@@MAE_NPBUtagUFDISPCHANGEEVENT_t@@@Z" PURGE="4" COMMENT="" />
    <EXPORT ORDINAL="1480" NAME="?OnDisplayChange@CUFWndPanel@@MAE_NPBUtagUFDISPCHANGEEVENT_t@@@Z" PURGE="4" COMMENT="" />
    <EXPORT ORDINAL="1481" NAME="?OnEditTextContentChange@CUFComboBox@@IAEXPAX@Z" PURGE="4" COMMENT="" />
    <EXPORT ORDINAL="1482" NAME="?OnEditTextKeyDown@CUFComboBox@@IAEXPAXIII@Z" PURGE="16" COMMENT="" />
    <EXPORT ORDINAL="1483" NAME="?OnEditTextOut@CUFComboBox@@AAEXPAXIIMM@Z" PURGE="20" COMMENT="" />
    <EXPORT ORDINAL="1484" NAME="?OnElementSizeChanged@CUFPanel@@MAEXPAXUtagUFSIZEF_t@@@Z" PURGE="12" COMMENT="" />
    <EXPORT ORDINAL="1485" NAME="?OnElementZIndexChange@CUFControl@@AAEXPAX@Z" PURGE="4" COMMENT="" />
    <EXPORT ORDINAL="1486" NAME="?OnEnd@CUFEditText@@AAEXXZ" PURGE="0" COMMENT="" />
    <EXPORT ORDINAL="1487" NAME="?OnFlick@CUFElement@@MAE_NPBUtagUFFLICKEVENT_t@@@Z" PURGE="4" COMMENT="" />
    <EXPORT ORDINAL="1488" NAME="?OnGesture@CUFElement@@MAE_NPBUtagUFGESTUREEVENT_t@@@Z" PURGE="4" COMMENT="" />
    <EXPORT ORDINAL="1489" NAME="?OnGotFocus@CUFButton@@MAEXXZ" PURGE="0" COMMENT="" />
    <EXPORT ORDINAL="1490" NAME="?OnGotFocus@CUFComboBox@@MAEXXZ" PURGE="0" COMMENT="" />
    <EXPORT ORDINAL="1491" NAME="?OnGotFocus@CUFComboBoxItem@@MAEXXZ" PURGE="0" COMMENT="" />
    <EXPORT ORDINAL="1492" NAME="?OnGotFocus@CUFDecorateButton@@MAEXXZ" PURGE="0" COMMENT="" />
    <EXPORT ORDINAL="1493" NAME="?OnGotFocus@CUFEditText@@MAEXXZ" PURGE="0" COMMENT="" />
    <EXPORT ORDINAL="1494" NAME="?OnGotFocus@CUFElement@@MAEXXZ" PURGE="0" COMMENT="" />
    <EXPORT ORDINAL="1495" NAME="?OnGotFocus@CUFOverlayButton@@MAEXXZ" PURGE="0" COMMENT="" />
    <EXPORT ORDINAL="1496" NAME="?OnGotFocus@CUFOverlayContainer@@MAEXXZ" PURGE="0" COMMENT="" />
    <EXPORT ORDINAL="1497" NAME="?OnGotFocus@CUFRangeBase@@MAEXXZ" PURGE="0" COMMENT="" />
    <EXPORT ORDINAL="1498" NAME="?OnGotFocus@CUFStateButton@@MAEXXZ" PURGE="0" COMMENT="" />
    <EXPORT ORDINAL="1499" NAME="?OnHideDropDown@CUFComboBox@@MAEXPAUtagUFEVENT_t@@@Z" PURGE="4" COMMENT="" />
    <EXPORT ORDINAL="1500" NAME="?OnHidePopupWCP@CUFPopUPWCP@@IAE_NPAUtagUFEVENT_t@@@Z" PURGE="4" COMMENT="" />
    <EXPORT ORDINAL="1501" NAME="?OnHideWCPMenu@CUFWCPMenu@@AAE_NPAUtagUFEVENT_t@@@Z" PURGE="4" COMMENT="" />
    <EXPORT ORDINAL="1502" NAME="?OnHome@CUFEditText@@AAEXXZ" PURGE="0" COMMENT="" />
    <EXPORT ORDINAL="1503" NAME="?OnIdle@CUFWin32Window@@IAE_NPAUtagUFEVENT_t@@@Z" PURGE="4" COMMENT="" />
    <EXPORT ORDINAL="1504" NAME="?OnImeComposition@CUFEditText@@IAEXPBUtagUFWINMSGEVENT_t@@@Z" PURGE="4" COMMENT="" />
    <EXPORT ORDINAL="1505" NAME="?OnImeEndComposition@CUFEditText@@IAEXPBUtagUFWINMSGEVENT_t@@@Z" PURGE="4" COMMENT="" />
    <EXPORT ORDINAL="1506" NAME="?OnImeStartComposition@CUFEditText@@IAEXPBUtagUFWINMSGEVENT_t@@@Z" PURGE="4" COMMENT="" />
    <EXPORT ORDINAL="1507" NAME="?OnInputChar@CUFEditText@@AAEX_W@Z" PURGE="4" COMMENT="" />
    <EXPORT ORDINAL="1508" NAME="?OnItemLButtonUp@CUFComboBox@@EAEXPAXHHMM@Z" PURGE="20" COMMENT="" />
    <EXPORT ORDINAL="1509" NAME="?OnItemLButtonUp@CUFComboBoxItem@@EAEXPAXHHMM@Z" PURGE="20" COMMENT="" />
    <EXPORT ORDINAL="1510" NAME="?OnItemLostFocus@CUFComboBox@@MAEXPAUtagUFEVENT_t@@@Z" PURGE="4" COMMENT="" />
    <EXPORT ORDINAL="1511" NAME="?OnItemMouseIn@CUFComboBox@@AAEXPAXIIMM@Z" PURGE="20" COMMENT="" />
    <EXPORT ORDINAL="1512" NAME="?OnItemMouseIn@CUFComboBoxItem@@AAEXPAXIIMM@Z" PURGE="20" COMMENT="" />
    <EXPORT ORDINAL="1513" NAME="?OnItemStateChanged@CUFComboBox@@IAEXPAVCUFItemControl@@_N11@Z" PURGE="16" COMMENT="" />
    <EXPORT ORDINAL="1514" NAME="?OnKeyChar@CUFEditText@@MAE_NPBUtagUFKEYEVENT_t@@@Z" PURGE="4" COMMENT="" />
    <EXPORT ORDINAL="1515" NAME="?OnKeyChar@CUFElement@@MAE_NPBUtagUFKEYEVENT_t@@@Z" PURGE="4" COMMENT="" />
    <EXPORT ORDINAL="1516" NAME="?OnKeyDown@CUFButton@@MAE_NPBUtagUFKEYEVENT_t@@@Z" PURGE="4" COMMENT="" />
    <EXPORT ORDINAL="1517" NAME="?OnKeyDown@CUFButtonBase@@MAE_NPBUtagUFKEYEVENT_t@@@Z" PURGE="4" COMMENT="" />
    <EXPORT ORDINAL="1518" NAME="?OnKeyDown@CUFComboBox@@MAEXPAXIII@Z" PURGE="16" COMMENT="" />
    <EXPORT ORDINAL="1519" NAME="?OnKeyDown@CUFComboBoxItem@@AAEXPAXIII@Z" PURGE="16" COMMENT="" />
    <EXPORT ORDINAL="1520" NAME="?OnKeyDown@CUFDecorateButton@@MAE_NPBUtagUFKEYEVENT_t@@@Z" PURGE="4" COMMENT="" />
    <EXPORT ORDINAL="1521" NAME="?OnKeyDown@CUFEditText@@MAE_NPBUtagUFKEYEVENT_t@@@Z" PURGE="4" COMMENT="" />
    <EXPORT ORDINAL="1522" NAME="?OnKeyDown@CUFElement@@MAE_NPBUtagUFKEYEVENT_t@@@Z" PURGE="4" COMMENT="" />
    <EXPORT ORDINAL="1523" NAME="?OnKeyDown@CUFListBox@@MAE_NPBUtagUFKEYEVENT_t@@@Z" PURGE="4" COMMENT="" />
    <EXPORT ORDINAL="1524" NAME="?OnKeyDown@CUFMenu@@MAE_NPBUtagUFKEYEVENT_t@@@Z" PURGE="4" COMMENT="" />
    <EXPORT ORDINAL="1525" NAME="?OnKeyDown@CUFOverlayButton@@MAE_NPBUtagUFKEYEVENT_t@@@Z" PURGE="4" COMMENT="" />
    <EXPORT ORDINAL="1526" NAME="?OnKeyDown@CUFOverlayContainer@@MAE_NPBUtagUFKEYEVENT_t@@@Z" PURGE="4" COMMENT="" />
    <EXPORT ORDINAL="1527" NAME="?OnKeyDown@CUFStateButton@@MAE_NPBUtagUFKEYEVENT_t@@@Z" PURGE="4" COMMENT="" />
    <EXPORT ORDINAL="1528" NAME="?OnKeyDown@CUFToggleButton@@MAE_NPBUtagUFKEYEVENT_t@@@Z" PURGE="4" COMMENT="" />
    <EXPORT ORDINAL="1529" NAME="?OnKeyUp@CUFButton@@MAE_NPBUtagUFKEYEVENT_t@@@Z" PURGE="4" COMMENT="" />
    <EXPORT ORDINAL="1530" NAME="?OnKeyUp@CUFButtonBase@@MAE_NPBUtagUFKEYEVENT_t@@@Z" PURGE="4" COMMENT="" />
    <EXPORT ORDINAL="1531" NAME="?OnKeyUp@CUFCheckBox@@MAE_NPBUtagUFKEYEVENT_t@@@Z" PURGE="4" COMMENT="" />
    <EXPORT ORDINAL="1532" NAME="?OnKeyUp@CUFDecorateButton@@MAE_NPBUtagUFKEYEVENT_t@@@Z" PURGE="4" COMMENT="" />
    <EXPORT ORDINAL="1533" NAME="?OnKeyUp@CUFEditText@@MAE_NPBUtagUFKEYEVENT_t@@@Z" PURGE="4" COMMENT="" />
    <EXPORT ORDINAL="1534" NAME="?OnKeyUp@CUFElement@@MAE_NPBUtagUFKEYEVENT_t@@@Z" PURGE="4" COMMENT="" />
    <EXPORT ORDINAL="1535" NAME="?OnKeyUp@CUFOverlayButton@@MAE_NPBUtagUFKEYEVENT_t@@@Z" PURGE="4" COMMENT="" />
    <EXPORT ORDINAL="1536" NAME="?OnKeyUp@CUFOverlayContainer@@MAE_NPBUtagUFKEYEVENT_t@@@Z" PURGE="4" COMMENT="" />
    <EXPORT ORDINAL="1537" NAME="?OnKeyUp@CUFRadioButton@@MAE_NPBUtagUFKEYEVENT_t@@@Z" PURGE="4" COMMENT="" />
    <EXPORT ORDINAL="1538" NAME="?OnKeyUp@CUFStateButton@@MAE_NPBUtagUFKEYEVENT_t@@@Z" PURGE="4" COMMENT="" />
    <EXPORT ORDINAL="1539" NAME="?OnKeyUp@CUFToggleButton@@MAE_NPBUtagUFKEYEVENT_t@@@Z" PURGE="4" COMMENT="" />
    <EXPORT ORDINAL="1540" NAME="?OnLButtonDblClk@CUFEditText@@MAE_NPBUtagUFMOUSEEVENT_t@@@Z" PURGE="4" COMMENT="" />
    <EXPORT ORDINAL="1541" NAME="?OnLButtonDblClk@CUFElement@@MAE_NPBUtagUFMOUSEEVENT_t@@@Z" PURGE="4" COMMENT="" />
    <EXPORT ORDINAL="1542" NAME="?OnLButtonDblClk@CUFMenu@@MAE_NPBUtagUFMOUSEEVENT_t@@@Z" PURGE="4" COMMENT="" />
    <EXPORT ORDINAL="1543" NAME="?OnLButtonDblClk@CUFRepeatButton@@MAE_NPBUtagUFMOUSEEVENT_t@@@Z" PURGE="4" COMMENT="" />
    <EXPORT ORDINAL="1544" NAME="?OnLButtonDown@CUFButton@@MAE_NPBUtagUFMOUSEEVENT_t@@@Z" PURGE="4" COMMENT="" />
    <EXPORT ORDINAL="1545" NAME="?OnLButtonDown@CUFButtonBase@@MAE_NPBUtagUFMOUSEEVENT_t@@@Z" PURGE="4" COMMENT="" />
    <EXPORT ORDINAL="1546" NAME="?OnLButtonDown@CUFComboBox@@MAE_NPBUtagUFMOUSEEVENT_t@@@Z" PURGE="4" COMMENT="" />
    <EXPORT ORDINAL="1547" NAME="?OnLButtonDown@CUFDecorateButton@@MAE_NPBUtagUFMOUSEEVENT_t@@@Z" PURGE="4" COMMENT="" />
    <EXPORT ORDINAL="1548" NAME="?OnLButtonDown@CUFEditText@@MAE_NPBUtagUFMOUSEEVENT_t@@@Z" PURGE="4" COMMENT="" />
    <EXPORT ORDINAL="1549" NAME="?OnLButtonDown@CUFElement@@MAE_NPBUtagUFMOUSEEVENT_t@@@Z" PURGE="4" COMMENT="" />
    <EXPORT ORDINAL="1550" NAME="?OnLButtonDown@CUFListBox@@MAE_NPBUtagUFMOUSEEVENT_t@@@Z" PURGE="4" COMMENT="" />
    <EXPORT ORDINAL="1551" NAME="?OnLButtonDown@CUFMenuItem@@MAE_NPBUtagUFMOUSEEVENT_t@@@Z" PURGE="4" COMMENT="" />
    <EXPORT ORDINAL="1552" NAME="?OnLButtonDown@CUFOverlayButton@@MAE_NPBUtagUFMOUSEEVENT_t@@@Z" PURGE="4" COMMENT="" />
    <EXPORT ORDINAL="1553" NAME="?OnLButtonDown@CUFOverlayContainer@@MAE_NPBUtagUFMOUSEEVENT_t@@@Z" PURGE="4" COMMENT="" />
    <EXPORT ORDINAL="1554" NAME="?OnLButtonDown@CUFRadioButton@@MAE_NPBUtagUFMOUSEEVENT_t@@@Z" PURGE="4" COMMENT="" />
    <EXPORT ORDINAL="1555" NAME="?OnLButtonDown@CUFRepeatButton@@MAE_NPBUtagUFMOUSEEVENT_t@@@Z" PURGE="4" COMMENT="" />
    <EXPORT ORDINAL="1556" NAME="?OnLButtonDown@CUFStateButton@@MAE_NPBUtagUFMOUSEEVENT_t@@@Z" PURGE="4" COMMENT="" />
    <EXPORT ORDINAL="1557" NAME="?OnLButtonDown@CUFThumb@@MAE_NPBUtagUFMOUSEEVENT_t@@@Z" PURGE="4" COMMENT="" />
    <EXPORT ORDINAL="1558" NAME="?OnLButtonUp@CUFButton@@MAE_NPBUtagUFMOUSEEVENT_t@@@Z" PURGE="4" COMMENT="" />
    <EXPORT ORDINAL="1559" NAME="?OnLButtonUp@CUFButtonBase@@MAE_NPBUtagUFMOUSEEVENT_t@@@Z" PURGE="4" COMMENT="" />
    <EXPORT ORDINAL="1560" NAME="?OnLButtonUp@CUFCheckBox@@MAE_NPBUtagUFMOUSEEVENT_t@@@Z" PURGE="4" COMMENT="" />
    <EXPORT ORDINAL="1561" NAME="?OnLButtonUp@CUFDecorateButton@@MAE_NPBUtagUFMOUSEEVENT_t@@@Z" PURGE="4" COMMENT="" />
    <EXPORT ORDINAL="1562" NAME="?OnLButtonUp@CUFEditText@@MAE_NPBUtagUFMOUSEEVENT_t@@@Z" PURGE="4" COMMENT="" />
    <EXPORT ORDINAL="1563" NAME="?OnLButtonUp@CUFElement@@MAE_NPBUtagUFMOUSEEVENT_t@@@Z" PURGE="4" COMMENT="" />
    <EXPORT ORDINAL="1564" NAME="?OnLButtonUp@CUFListBox@@MAE_NPBUtagUFMOUSEEVENT_t@@@Z" PURGE="4" COMMENT="" />
    <EXPORT ORDINAL="1565" NAME="?OnLButtonUp@CUFMenuItem@@MAE_NPBUtagUFMOUSEEVENT_t@@@Z" PURGE="4" COMMENT="" />
    <EXPORT ORDINAL="1566" NAME="?OnLButtonUp@CUFOverlayButton@@MAE_NPBUtagUFMOUSEEVENT_t@@@Z" PURGE="4" COMMENT="" />
    <EXPORT ORDINAL="1567" NAME="?OnLButtonUp@CUFOverlayContainer@@MAE_NPBUtagUFMOUSEEVENT_t@@@Z" PURGE="4" COMMENT="" />
    <EXPORT ORDINAL="1568" NAME="?OnLButtonUp@CUFRadioButton@@MAE_NPBUtagUFMOUSEEVENT_t@@@Z" PURGE="4" COMMENT="" />
    <EXPORT ORDINAL="1569" NAME="?OnLButtonUp@CUFRepeatButton@@MAE_NPBUtagUFMOUSEEVENT_t@@@Z" PURGE="4" COMMENT="" />
    <EXPORT ORDINAL="1570" NAME="?OnLButtonUp@CUFStateButton@@MAE_NPBUtagUFMOUSEEVENT_t@@@Z" PURGE="4" COMMENT="" />
    <EXPORT ORDINAL="1571" NAME="?OnLButtonUp@CUFThumb@@MAE_NPBUtagUFMOUSEEVENT_t@@@Z" PURGE="4" COMMENT="" />
    <EXPORT ORDINAL="1572" NAME="?OnLeft@CUFEditText@@AAEXXZ" PURGE="0" COMMENT="" />
    <EXPORT ORDINAL="1573" NAME="?OnListBoxSizeChange@CUFListBox@@MAEXPAXUtagUFSIZEF_t@@@Z" PURGE="12" COMMENT="" />
    <EXPORT ORDINAL="1574" NAME="?OnLostDevice@CUFDWriteText@@MAE_NPBUtagUFEVENT_t@@@Z" PURGE="4" COMMENT="" />
    <EXPORT ORDINAL="1575" NAME="?OnLostDevice@CUFDx9Text@@MAE_NPBUtagUFEVENT_t@@@Z" PURGE="4" COMMENT="" />
    <EXPORT ORDINAL="1576" NAME="?OnLostDevice@CUFEditText@@MAE_NPBUtagUFEVENT_t@@@Z" PURGE="4" COMMENT="" />
    <EXPORT ORDINAL="1577" NAME="?OnLostDevice@CUFElement@@MAE_NPBUtagUFEVENT_t@@@Z" PURGE="4" COMMENT="" />
    <EXPORT ORDINAL="1578" NAME="?OnLostDevice@CUFImage@@UAE_NPBUtagUFEVENT_t@@@Z" PURGE="4" COMMENT="" />
    <EXPORT ORDINAL="1579" NAME="?OnLostDevice@CUFText@@MAE_NPBUtagUFEVENT_t@@@Z" PURGE="4" COMMENT="" />
    <EXPORT ORDINAL="1580" NAME="?OnLostDevice@CUFWinChildPanel@@MAE_NPBUtagUFEVENT_t@@@Z" PURGE="4" COMMENT="" />
    <EXPORT ORDINAL="1581" NAME="?OnLostDevice@CUFWinPopupPanel@@MAE_NPBUtagUFEVENT_t@@@Z" PURGE="4" COMMENT="" />
    <EXPORT ORDINAL="1582" NAME="?OnLostFocus@CUFButton@@MAE_NPBUtagUFEVENT_t@@@Z" PURGE="4" COMMENT="" />
    <EXPORT ORDINAL="1583" NAME="?OnLostFocus@CUFButtonBase@@MAE_NPBUtagUFEVENT_t@@@Z" PURGE="4" COMMENT="" />
    <EXPORT ORDINAL="1584" NAME="?OnLostFocus@CUFComboBox@@MAE_NPBUtagUFEVENT_t@@@Z" PURGE="4" COMMENT="" />
    <EXPORT ORDINAL="1585" NAME="?OnLostFocus@CUFComboBoxItem@@MAE_NPBUtagUFEVENT_t@@@Z" PURGE="4" COMMENT="" />
    <EXPORT ORDINAL="1586" NAME="?OnLostFocus@CUFDecorateButton@@MAE_NPBUtagUFEVENT_t@@@Z" PURGE="4" COMMENT="" />
    <EXPORT ORDINAL="1587" NAME="?OnLostFocus@CUFEditText@@MAE_NPBUtagUFEVENT_t@@@Z" PURGE="4" COMMENT="" />
    <EXPORT ORDINAL="1588" NAME="?OnLostFocus@CUFElement@@MAE_NPBUtagUFEVENT_t@@@Z" PURGE="4" COMMENT="" />
    <EXPORT ORDINAL="1589" NAME="?OnLostFocus@CUFOverlayButton@@MAE_NPBUtagUFEVENT_t@@@Z" PURGE="4" COMMENT="" />
    <EXPORT ORDINAL="1590" NAME="?OnLostFocus@CUFOverlayContainer@@MAE_NPBUtagUFEVENT_t@@@Z" PURGE="4" COMMENT="" />
    <EXPORT ORDINAL="1591" NAME="?OnLostFocus@CUFRangeBase@@MAE_NPBUtagUFEVENT_t@@@Z" PURGE="4" COMMENT="" />
    <EXPORT ORDINAL="1592" NAME="?OnLostFocus@CUFStateButton@@MAE_NPBUtagUFEVENT_t@@@Z" PURGE="4" COMMENT="" />
    <EXPORT ORDINAL="1593" NAME="?OnLostFocus@CUFToggleButton@@MAE_NPBUtagUFEVENT_t@@@Z" PURGE="4" COMMENT="" />
    <EXPORT ORDINAL="1594" NAME="?OnLostFocus@CUFWCPMenu@@EAE_NPBUtagUFEVENT_t@@@Z" PURGE="4" COMMENT="" />
    <EXPORT ORDINAL="1595" NAME="?OnMButtonDblClk@CUFElement@@MAE_NPBUtagUFMOUSEEVENT_t@@@Z" PURGE="4" COMMENT="" />
    <EXPORT ORDINAL="1596" NAME="?OnMButtonDown@CUFElement@@MAE_NPBUtagUFMOUSEEVENT_t@@@Z" PURGE="4" COMMENT="" />
    <EXPORT ORDINAL="1597" NAME="?OnMButtonUp@CUFElement@@MAE_NPBUtagUFMOUSEEVENT_t@@@Z" PURGE="4" COMMENT="" />
    <EXPORT ORDINAL="1598" NAME="?OnMainWndSized@CUFD2DDeviceDc@@UAEXII@Z" PURGE="8" COMMENT="" />
    <EXPORT ORDINAL="1599" NAME="?OnMainWndSized@IUFDevice@@UAEXII@Z" PURGE="8" COMMENT="" />
    <EXPORT ORDINAL="1600" NAME="?OnMenuLayerData@CUFLayer@@MAE_NPAUtagUFEVENT_t@@@Z" PURGE="4" COMMENT="" />
    <EXPORT ORDINAL="1601" NAME="?OnMouseButtonUp@CUFComboBox@@EAEXPAXIIMM@Z" PURGE="20" COMMENT="" />
    <EXPORT ORDINAL="1602" NAME="?OnMouseDown@CUFLayer@@AAEXPAXHHMM@Z" PURGE="20" COMMENT="" />
    <EXPORT ORDINAL="1603" NAME="?OnMouseHWheel@CUFElement@@MAE_NPBUtagUFMOUSEEVENT_t@@@Z" PURGE="4" COMMENT="" />
    <EXPORT ORDINAL="1604" NAME="?OnMouseIn@CUFButton@@MAE_NPBUtagUFMOUSEEVENT_t@@@Z" PURGE="4" COMMENT="" />
    <EXPORT ORDINAL="1605" NAME="?OnMouseIn@CUFButtonBase@@MAE_NPBUtagUFMOUSEEVENT_t@@@Z" PURGE="4" COMMENT="" />
    <EXPORT ORDINAL="1606" NAME="?OnMouseIn@CUFDecorateButton@@MAE_NPBUtagUFMOUSEEVENT_t@@@Z" PURGE="4" COMMENT="" />
    <EXPORT ORDINAL="1607" NAME="?OnMouseIn@CUFEditText@@MAE_NPBUtagUFMOUSEEVENT_t@@@Z" PURGE="4" COMMENT="" />
    <EXPORT ORDINAL="1608" NAME="?OnMouseIn@CUFElement@@MAE_NPBUtagUFMOUSEEVENT_t@@@Z" PURGE="4" COMMENT="" />
    <EXPORT ORDINAL="1609" NAME="?OnMouseIn@CUFMenuItem@@MAE_NPBUtagUFMOUSEEVENT_t@@@Z" PURGE="4" COMMENT="" />
    <EXPORT ORDINAL="1610" NAME="?OnMouseIn@CUFOverlayButton@@MAE_NPBUtagUFMOUSEEVENT_t@@@Z" PURGE="4" COMMENT="" />
    <EXPORT ORDINAL="1611" NAME="?OnMouseIn@CUFOverlayContainer@@MAE_NPBUtagUFMOUSEEVENT_t@@@Z" PURGE="4" COMMENT="" />
    <EXPORT ORDINAL="1612" NAME="?OnMouseIn@CUFRepeatButton@@MAE_NPBUtagUFMOUSEEVENT_t@@@Z" PURGE="4" COMMENT="" />
    <EXPORT ORDINAL="1613" NAME="?OnMouseIn@CUFStateButton@@MAE_NPBUtagUFMOUSEEVENT_t@@@Z" PURGE="4" COMMENT="" />
    <EXPORT ORDINAL="1614" NAME="?OnMouseIn@CUFToggleButton@@MAE_NPBUtagUFMOUSEEVENT_t@@@Z" PURGE="4" COMMENT="" />
    <EXPORT ORDINAL="1615" NAME="?OnMouseMove@CUFButton@@MAE_NPBUtagUFMOUSEEVENT_t@@@Z" PURGE="4" COMMENT="" />
    <EXPORT ORDINAL="1616" NAME="?OnMouseMove@CUFDecorateButton@@MAE_NPBUtagUFMOUSEEVENT_t@@@Z" PURGE="4" COMMENT="" />
    <EXPORT ORDINAL="1617" NAME="?OnMouseMove@CUFEditText@@MAE_NPBUtagUFMOUSEEVENT_t@@@Z" PURGE="4" COMMENT="" />
    <EXPORT ORDINAL="1618" NAME="?OnMouseMove@CUFElement@@MAE_NPBUtagUFMOUSEEVENT_t@@@Z" PURGE="4" COMMENT="" />
    <EXPORT ORDINAL="1619" NAME="?OnMouseMove@CUFListBox@@MAE_NPBUtagUFMOUSEEVENT_t@@@Z" PURGE="4" COMMENT="" />
    <EXPORT ORDINAL="1620" NAME="?OnMouseMove@CUFOverlayButton@@MAE_NPBUtagUFMOUSEEVENT_t@@@Z" PURGE="4" COMMENT="" />
    <EXPORT ORDINAL="1621" NAME="?OnMouseMove@CUFOverlayContainer@@MAE_NPBUtagUFMOUSEEVENT_t@@@Z" PURGE="4" COMMENT="" />
    <EXPORT ORDINAL="1622" NAME="?OnMouseMove@CUFRepeatButton@@MAE_NPBUtagUFMOUSEEVENT_t@@@Z" PURGE="4" COMMENT="" />
    <EXPORT ORDINAL="1623" NAME="?OnMouseMove@CUFStateButton@@MAE_NPBUtagUFMOUSEEVENT_t@@@Z" PURGE="4" COMMENT="" />
    <EXPORT ORDINAL="1624" NAME="?OnMouseMove@CUFThumb@@MAE_NPBUtagUFMOUSEEVENT_t@@@Z" PURGE="4" COMMENT="" />
    <EXPORT ORDINAL="1625" NAME="?OnMouseMove@CUFToggleButton@@MAE_NPBUtagUFMOUSEEVENT_t@@@Z" PURGE="4" COMMENT="" />
    <EXPORT ORDINAL="1626" NAME="?OnMouseMove@CUFWin32Window@@MAE_NPAUtagUFEVENT_t@@@Z" PURGE="4" COMMENT="" />
    <EXPORT ORDINAL="1627" NAME="?OnMouseOut@CUFButton@@MAE_NPBUtagUFMOUSEEVENT_t@@@Z" PURGE="4" COMMENT="" />
    <EXPORT ORDINAL="1628" NAME="?OnMouseOut@CUFButtonBase@@MAE_NPBUtagUFMOUSEEVENT_t@@@Z" PURGE="4" COMMENT="" />
    <EXPORT ORDINAL="1629" NAME="?OnMouseOut@CUFDecorateButton@@MAE_NPBUtagUFMOUSEEVENT_t@@@Z" PURGE="4" COMMENT="" />
    <EXPORT ORDINAL="1630" NAME="?OnMouseOut@CUFEditText@@MAE_NPBUtagUFMOUSEEVENT_t@@@Z" PURGE="4" COMMENT="" />
    <EXPORT ORDINAL="1631" NAME="?OnMouseOut@CUFElement@@MAE_NPBUtagUFMOUSEEVENT_t@@@Z" PURGE="4" COMMENT="" />
    <EXPORT ORDINAL="1632" NAME="?OnMouseOut@CUFMenuItem@@MAE_NPBUtagUFMOUSEEVENT_t@@@Z" PURGE="4" COMMENT="" />
    <EXPORT ORDINAL="1633" NAME="?OnMouseOut@CUFOverlayButton@@MAE_NPBUtagUFMOUSEEVENT_t@@@Z" PURGE="4" COMMENT="" />
    <EXPORT ORDINAL="1634" NAME="?OnMouseOut@CUFOverlayContainer@@MAE_NPBUtagUFMOUSEEVENT_t@@@Z" PURGE="4" COMMENT="" />
    <EXPORT ORDINAL="1635" NAME="?OnMouseOut@CUFRepeatButton@@MAE_NPBUtagUFMOUSEEVENT_t@@@Z" PURGE="4" COMMENT="" />
    <EXPORT ORDINAL="1636" NAME="?OnMouseOut@CUFStateButton@@MAE_NPBUtagUFMOUSEEVENT_t@@@Z" PURGE="4" COMMENT="" />
    <EXPORT ORDINAL="1637" NAME="?OnMouseOut@CUFToggleButton@@MAE_NPBUtagUFMOUSEEVENT_t@@@Z" PURGE="4" COMMENT="" />
    <EXPORT ORDINAL="1638" NAME="?OnMouseWheel@CUFComboBox@@AAEXPAXIHMM@Z" PURGE="20" COMMENT="" />
    <EXPORT ORDINAL="1639" NAME="?OnMouseWheel@CUFElement@@MAE_NPBUtagUFMOUSEEVENT_t@@@Z" PURGE="4" COMMENT="" />
    <EXPORT ORDINAL="1640" NAME="?OnMouseWheel@CUFListBox@@MAE_NPBUtagUFMOUSEEVENT_t@@@Z" PURGE="4" COMMENT="" />
    <EXPORT ORDINAL="1641" NAME="?OnMultipleSelectChanged@CUFItemControl@@UAEX_N@Z" PURGE="4" COMMENT="" />
    <EXPORT ORDINAL="1642" NAME="?OnMultipleSelectChanged@CUFListBoxItem@@UAEX_N@Z" PURGE="-1" COMMENT="" />
    <EXPORT ORDINAL="1643" NAME="?OnPanelSizeChange@CUFListBox@@MAEXPAXUtagUFSIZEF_t@@@Z" PURGE="12" COMMENT="" />
    <EXPORT ORDINAL="1644" NAME="?OnRButtonDblClk@CUFElement@@MAE_NPBUtagUFMOUSEEVENT_t@@@Z" PURGE="4" COMMENT="" />
    <EXPORT ORDINAL="1645" NAME="?OnRButtonDown@CUFElement@@MAE_NPBUtagUFMOUSEEVENT_t@@@Z" PURGE="4" COMMENT="" />
    <EXPORT ORDINAL="1646" NAME="?OnRButtonDown@CUFMenu@@MAE_NPBUtagUFMOUSEEVENT_t@@@Z" PURGE="4" COMMENT="" />
    <EXPORT ORDINAL="1647" NAME="?OnRButtonUp@CUFElement@@MAE_NPBUtagUFMOUSEEVENT_t@@@Z" PURGE="4" COMMENT="" />
    <EXPORT ORDINAL="1648" NAME="?OnRButtonUp@CUFMenu@@MAE_NPBUtagUFMOUSEEVENT_t@@@Z" PURGE="4" COMMENT="" />
    <EXPORT ORDINAL="1649" NAME="?OnRangeRepeatLButtonDown@CUFRangeBase@@MAEXPAXIIMM@Z" PURGE="20" COMMENT="" />
    <EXPORT ORDINAL="1650" NAME="?OnRangeRepeatLButtonDown@CUFSliderBar@@MAEXPAXIIMM@Z" PURGE="20" COMMENT="" />
    <EXPORT ORDINAL="1651" NAME="?OnRender@CUFComboBoxDropDown@@UAEXXZ" PURGE="0" COMMENT="" />
    <EXPORT ORDINAL="1652" NAME="?OnRender@CUFComboBoxItem@@UAEXXZ" PURGE="0" COMMENT="" />
    <EXPORT ORDINAL="1653" NAME="?OnRender@CUFControl@@UAEXXZ" PURGE="0" COMMENT="" />
    <EXPORT ORDINAL="1654" NAME="?OnRender@CUFDWriteText@@UAEXXZ" PURGE="0" COMMENT="" />
    <EXPORT ORDINAL="1655" NAME="?OnRender@CUFDx9Text@@MAEXXZ" PURGE="0" COMMENT="" />
    <EXPORT ORDINAL="1656" NAME="?OnRender@CUFEditText@@UAEXXZ" PURGE="0" COMMENT="" />
    <EXPORT ORDINAL="1657" NAME="?OnRender@CUFElement@@UAEXXZ" PURGE="0" COMMENT="" />
    <EXPORT ORDINAL="1658" NAME="?OnRender@CUFEllipse@@UAEXXZ" PURGE="0" COMMENT="" />
    <EXPORT ORDINAL="1659" NAME="?OnRender@CUFEmptyDeviceWnd@@EAEXXZ" PURGE="0" COMMENT="" />
    <EXPORT ORDINAL="1660" NAME="?OnRender@CUFImage@@UAEXXZ" PURGE="0" COMMENT="" />
    <EXPORT ORDINAL="1661" NAME="?OnRender@CUFLayer@@UAEXXZ" PURGE="0" COMMENT="" />
    <EXPORT ORDINAL="1662" NAME="?OnRender@CUFLine@@UAEXXZ" PURGE="0" COMMENT="" />
    <EXPORT ORDINAL="1663" NAME="?OnRender@CUFListBox@@UAEXXZ" PURGE="0" COMMENT="" />
    <EXPORT ORDINAL="1664" NAME="?OnRender@CUFRectangle@@UAEXXZ" PURGE="0" COMMENT="" />
    <EXPORT ORDINAL="1665" NAME="?OnRender@CUFStateButton@@UAEXXZ" PURGE="0" COMMENT="" />
    <EXPORT ORDINAL="1666" NAME="?OnRender@CUFText@@UAEXXZ" PURGE="0" COMMENT="" />
    <EXPORT ORDINAL="1667" NAME="?OnRender@CUFTriangle@@UAEXXZ" PURGE="0" COMMENT="" />
    <EXPORT ORDINAL="1668" NAME="?OnRender@CUFWinChildPanel@@MAEXXZ" PURGE="0" COMMENT="" />
    <EXPORT ORDINAL="1669" NAME="?OnRender@CUFWinPopupPanel@@MAEXXZ" PURGE="0" COMMENT="" />
    <EXPORT ORDINAL="1670" NAME="?OnRender@CUFWndPanel@@MAEXXZ" PURGE="0" COMMENT="" />
    <EXPORT ORDINAL="1671" NAME="?OnRengeRepeatClick@CUFRangeBase@@MAEXPAXMM@Z" PURGE="12" COMMENT="" />
    <EXPORT ORDINAL="1672" NAME="?OnRengeRepeatClick@CUFScrollBar@@MAEXPAXMM@Z" PURGE="12" COMMENT="" />
    <EXPORT ORDINAL="1673" NAME="?OnRengeRepeatClick@CUFSliderBar@@MAEXPAXMM@Z" PURGE="12" COMMENT="" />
    <EXPORT ORDINAL="1674" NAME="?OnResetDevice@CUFDWriteText@@MAE_NPBUtagUFEVENT_t@@@Z" PURGE="4" COMMENT="" />
    <EXPORT ORDINAL="1675" NAME="?OnResetDevice@CUFDx9Text@@MAE_NPBUtagUFEVENT_t@@@Z" PURGE="4" COMMENT="" />
    <EXPORT ORDINAL="1676" NAME="?OnResetDevice@CUFEditText@@MAE_NPBUtagUFEVENT_t@@@Z" PURGE="4" COMMENT="" />
    <EXPORT ORDINAL="1677" NAME="?OnResetDevice@CUFElement@@MAE_NPBUtagUFEVENT_t@@@Z" PURGE="4" COMMENT="" />
    <EXPORT ORDINAL="1678" NAME="?OnResetDevice@CUFImage@@UAE_NPBUtagUFEVENT_t@@@Z" PURGE="4" COMMENT="" />
    <EXPORT ORDINAL="1679" NAME="?OnResetDevice@CUFText@@MAE_NPBUtagUFEVENT_t@@@Z" PURGE="4" COMMENT="" />
    <EXPORT ORDINAL="1680" NAME="?OnResetDevice@CUFWinChildPanel@@MAE_NPBUtagUFEVENT_t@@@Z" PURGE="4" COMMENT="" />
    <EXPORT ORDINAL="1681" NAME="?OnResetDevice@CUFWinPopupPanel@@MAE_NPBUtagUFEVENT_t@@@Z" PURGE="4" COMMENT="" />
    <EXPORT ORDINAL="1682" NAME="?OnRight@CUFEditText@@AAEXXZ" PURGE="0" COMMENT="" />
    <EXPORT ORDINAL="1683" NAME="?OnScroll@CUFDx9Text@@IAEXPAXK@Z" PURGE="8" COMMENT="" />
    <EXPORT ORDINAL="1684" NAME="?OnScrollBarValueChanged@CUFScrollViewer@@AAEXPAXM@Z" PURGE="8" COMMENT="" />
    <EXPORT ORDINAL="1685" NAME="?OnScrollChanged@CUFListBox@@MAEXPAXMM@Z" PURGE="12" COMMENT="" />
    <EXPORT ORDINAL="1686" NAME="?OnSelectAll@CUFEditText@@AAEXXZ" PURGE="0" COMMENT="" />
    <EXPORT ORDINAL="1687" NAME="?OnSetCursor@CUFElement@@MAE_NPBUtagUFSETCURSOREVENT_t@@@Z" PURGE="4" COMMENT="" />
    <EXPORT ORDINAL="1688" NAME="?OnShiftDown@CUFEditText@@AAEXXZ" PURGE="0" COMMENT="" />
    <EXPORT ORDINAL="1689" NAME="?OnShiftUp@CUFEditText@@AAEXXZ" PURGE="0" COMMENT="" />
    <EXPORT ORDINAL="1690" NAME="?OnSizeChanged@CUFCheckBox@@AAEXPAXUtagUFSIZEF_t@@@Z" PURGE="12" COMMENT="" />
    <EXPORT ORDINAL="1691" NAME="?OnSizeChanged@CUFRadioButton@@AAEXPAXUtagUFSIZEF_t@@@Z" PURGE="12" COMMENT="" />
    <EXPORT ORDINAL="1692" NAME="?OnStepButtonRepeatClicked@CUFScrollBar@@MAEXPAXMM@Z" PURGE="12" COMMENT="" />
    <EXPORT ORDINAL="1693" NAME="?OnTextLBtnDown@CUFComboBox@@EAEXPAXIIMM@Z" PURGE="20" COMMENT="" />
    <EXPORT ORDINAL="1694" NAME="?OnTextMouseIn@CUFComboBox@@EAEXPAXIIMM@Z" PURGE="20" COMMENT="" />
    <EXPORT ORDINAL="1695" NAME="?OnTextMouseOut@CUFComboBox@@EAEXPAXIIMM@Z" PURGE="20" COMMENT="" />
    <EXPORT ORDINAL="1696" NAME="?OnThumbBtnLButtonDown@CUFRangeBase@@MAEXPAXIIMM@Z" PURGE="20" COMMENT="" />
    <EXPORT ORDINAL="1697" NAME="?OnThumbBtnLButtonUp@CUFRangeBase@@MAEXPAXIIMM@Z" PURGE="20" COMMENT="" />
    <EXPORT ORDINAL="1698" NAME="?OnThumbDrag@CUFScrollViewer@@AAEXPAVCUFElement@@@Z" PURGE="4" COMMENT="" />
    <EXPORT ORDINAL="1699" NAME="?OnThumbDragCompleted@CUFRangeBase@@MAEXPAXMM@Z" PURGE="12" COMMENT="" />
    <EXPORT ORDINAL="1700" NAME="?OnThumbDragDelta@CUFRangeBase@@MAEXPAXMM@Z" PURGE="12" COMMENT="" />
    <EXPORT ORDINAL="1701" NAME="?OnThumbDragDelta@CUFScrollBar@@MAEXPAXMM@Z" PURGE="12" COMMENT="" />
    <EXPORT ORDINAL="1702" NAME="?OnThumbDragDelta@CUFSliderBar@@MAEXPAXMM@Z" PURGE="12" COMMENT="" />
    <EXPORT ORDINAL="1703" NAME="?OnThumbDragStart@CUFRangeBase@@MAEXPAXMM@Z" PURGE="12" COMMENT="" />
    <EXPORT ORDINAL="1704" NAME="?OnThumbDragStart@CUFScrollBar@@MAEXPAXMM@Z" PURGE="12" COMMENT="" />
    <EXPORT ORDINAL="1705" NAME="?OnThumbDragStart@CUFSliderBar@@MAEXPAXMM@Z" PURGE="12" COMMENT="" />
    <EXPORT ORDINAL="1706" NAME="?OnTimer@CUFRepeatButton@@IAEXPAXK@Z" PURGE="8" COMMENT="" />
    <EXPORT ORDINAL="1707" NAME="?OnTimerTicked@CUFToolTip@@IAEXPAXK@Z" PURGE="8" COMMENT="" />
    <EXPORT ORDINAL="1708" NAME="?OnTouch@CUFElement@@MAE_NPBUtagUFTOUCHEVENT_t@@@Z" PURGE="4" COMMENT="" />
    <EXPORT ORDINAL="1709" NAME="?OnTriangleBtnIn@CUFComboBox@@EAEXPAXIIMM@Z" PURGE="20" COMMENT="" />
    <EXPORT ORDINAL="1710" NAME="?OnTriangleBtnOut@CUFComboBox@@EAEXPAXIIMM@Z" PURGE="20" COMMENT="" />
    <EXPORT ORDINAL="1711" NAME="?OnTriangleLBtnDown@CUFComboBox@@AAEXPAXIIMM@Z" PURGE="20" COMMENT="" />
    <EXPORT ORDINAL="1712" NAME="?OnUpKeyOrDownKey@CUFComboBox@@MAEXH@Z" PURGE="4" COMMENT="" />
    <EXPORT ORDINAL="1713" NAME="?OnViewPortSizeChange@CUFScrollViewer@@AAEXPAXUtagUFSIZEF_t@@@Z" PURGE="12" COMMENT="" />
    <EXPORT ORDINAL="1714" NAME="?OnVirFocusStateChanged@CUFItemControl@@UAEX_N@Z" PURGE="4" COMMENT="" />
    <EXPORT ORDINAL="1715" NAME="?OnVirFocusStateChanged@CUFListBoxItem@@UAEX_N@Z" PURGE="-1" COMMENT="" />
    <EXPORT ORDINAL="1716" NAME="?OnWinMsg@CUFEditText@@MAE_NPBUtagUFWINMSGEVENT_t@@@Z" PURGE="4" COMMENT="" />
    <EXPORT ORDINAL="1717" NAME="?OnWinMsg@CUFElement@@MAE_NPBUtagUFWINMSGEVENT_t@@@Z" PURGE="4" COMMENT="" />
    <EXPORT ORDINAL="1718" NAME="?OnWndResized@CUFWin32Window@@MAE_NPAUtagUFEVENT_t@@@Z" PURGE="4" COMMENT="" />
    <EXPORT ORDINAL="1719" NAME="?OnWndSize@CUFEditText@@MAE_NPBUtagUFWNDSIZEEVENT_t@@@Z" PURGE="4" COMMENT="" />
    <EXPORT ORDINAL="1720" NAME="?OnWndSize@CUFElement@@MAE_NPBUtagUFWNDSIZEEVENT_t@@@Z" PURGE="4" COMMENT="" />
    <EXPORT ORDINAL="1721" NAME="?OnWndSize@CUFWinChildPanel@@MAE_NPBUtagUFWNDSIZEEVENT_t@@@Z" PURGE="4" COMMENT="" />
    <EXPORT ORDINAL="1722" NAME="?OnWndSize@CUFWinPopupPanel@@MAE_NPBUtagUFWNDSIZEEVENT_t@@@Z" PURGE="4" COMMENT="" />
    <EXPORT ORDINAL="1723" NAME="?OnWndSize@CUFWndPanel@@MAE_NPBUtagUFWNDSIZEEVENT_t@@@Z" PURGE="4" COMMENT="" />
    <EXPORT ORDINAL="1724" NAME="?OpenDropDownList@CUFComboBox@@UAEXXZ" PURGE="0" COMMENT="" />
    <EXPORT ORDINAL="1725" NAME="?Pause@CUFAnimation@@QAEXXZ" PURGE="0" COMMENT="" />
    <EXPORT ORDINAL="1726" NAME="?Pause@CUFDxSound@@UAEJXZ" PURGE="0" COMMENT="" />
    <EXPORT ORDINAL="1727" NAME="?Pause@CUFSound@@UAEJXZ" PURGE="0" COMMENT="" />
    <EXPORT ORDINAL="1728" NAME="?Pause@CUFThreadTextureManager@@QAEXXZ" PURGE="0" COMMENT="" />
    <EXPORT ORDINAL="1729" NAME="?PauseAnimation@CUFAnimationManager@@QAEXXZ" PURGE="0" COMMENT="" />
    <EXPORT ORDINAL="1730" NAME="?PauseAnimation@CUFElement@@UAEXXZ" PURGE="0" COMMENT="" />
    <EXPORT ORDINAL="1731" NAME="?PerformanceMouseDown@CUFButton@@QAEXXZ" PURGE="0" COMMENT="" />
    <EXPORT ORDINAL="1732" NAME="?PerformanceMouseIn@CUFButton@@QAEXXZ" PURGE="0" COMMENT="" />
    <EXPORT ORDINAL="1733" NAME="?PerformanceMouseOut@CUFButton@@QAEXXZ" PURGE="0" COMMENT="" />
    <EXPORT ORDINAL="1734" NAME="?PerformanceMouseUp@CUFButton@@QAEXXZ" PURGE="0" COMMENT="" />
    <EXPORT ORDINAL="1735" NAME="?Play@CUFDxSound@@UAEJK@Z" PURGE="4" COMMENT="" />
    <EXPORT ORDINAL="1736" NAME="?Play@CUFSound@@UAEJK@Z" PURGE="4" COMMENT="" />
    <EXPORT ORDINAL="1737" NAME="?PopFont@IUFFont@@SAXXZ" PURGE="0" COMMENT="" />
    <EXPORT ORDINAL="1738" NAME="?PreInitialize@CUFApplication@@MAEXXZ" PURGE="0" COMMENT="" />
    <EXPORT ORDINAL="1739" NAME="?PreProcessRawEvent@IUFEventProcessor@@UAE_NPAX@Z" PURGE="4" COMMENT="" />
    <EXPORT ORDINAL="1740" NAME="?PrepareForSendKeyEvent@CUFWin32EventProcessor@@AAEXPBUtagUFKEYEVENT_t@@AAPAUHWND__@@AAI2AAJ@Z" PURGE="20" COMMENT="" />
    <EXPORT ORDINAL="1741" NAME="?PrepareForSendMouseEvent@CUFWin32EventProcessor@@AAEXPBUtagUFMOUSEEVENT_t@@AAPAUHWND__@@AAI2AAJ@Z" PURGE="20" COMMENT="" />
    <EXPORT ORDINAL="1742" NAME="?PrepareForSendUserEvent@CUFWin32EventProcessor@@AAEXPAUtagUFEVENT_t@@AAPAUHWND__@@AAI2AAJ_N@Z" PURGE="24" COMMENT="" />
    <EXPORT ORDINAL="1743" NAME="?PrepareForSendWinMsgEvent@CUFWin32EventProcessor@@AAEXPBUtagUFWINMSGEVENT_t@@AAPAUHWND__@@AAI2AAJ@Z" PURGE="20" COMMENT="" />
    <EXPORT ORDINAL="1744" NAME="?PrepareForThread@CUFThreadTextureManager@@AAEXXZ" PURGE="0" COMMENT="" />
    <EXPORT ORDINAL="1745" NAME="?PressCtrlLBtnDown@CUFListBox@@IAEXPAVCUFItemControl@@@Z" PURGE="4" COMMENT="" />
    <EXPORT ORDINAL="1746" NAME="?PressShiftLBtnDown@CUFListBox@@IAEXPAVCUFItemControl@@@Z" PURGE="4" COMMENT="" />
    <EXPORT ORDINAL="1747" NAME="?ProcCtrlAKey@CUFListBox@@IAEXXZ" PURGE="0" COMMENT="" />
    <EXPORT ORDINAL="1748" NAME="?ProcDownKeyPress@CUFListBox@@IAEXPAVCUFItemControl@@@Z" PURGE="4" COMMENT="" />
    <EXPORT ORDINAL="1749" NAME="?ProcExtendedSelection@CUFListBox@@IAEXXZ" PURGE="0" COMMENT="" />
    <EXPORT ORDINAL="1750" NAME="?ProcExtendedTimer@CUFListBox@@IAEXPAXK@Z" PURGE="8" COMMENT="" />
    <EXPORT ORDINAL="1751" NAME="?ProcHScrollViewer@CUFListBox@@IAEXXZ" PURGE="0" COMMENT="" />
    <EXPORT ORDINAL="1752" NAME="?ProcHorizontalMouseWheel@CUFListBox@@IAEXH@Z" PURGE="4" COMMENT="" />
    <EXPORT ORDINAL="1753" NAME="?ProcLBtnUpEvent@CUFListBox@@IAEXPBUtagUFMOUSEEVENT_t@@@Z" PURGE="4" COMMENT="" />
    <EXPORT ORDINAL="1754" NAME="?ProcLeftKeyPress@CUFListBox@@IAEXPAVCUFItemControl@@@Z" PURGE="4" COMMENT="" />
    <EXPORT ORDINAL="1755" NAME="?ProcMultipleSelection@CUFListBox@@IAEXPAVCUFItemControl@@@Z" PURGE="4" COMMENT="" />
    <EXPORT ORDINAL="1756" NAME="?ProcPageDownKeyPress@CUFListBox@@MAEXXZ" PURGE="0" COMMENT="" />
    <EXPORT ORDINAL="1757" NAME="?ProcPageUpKeyPress@CUFListBox@@MAEXXZ" PURGE="0" COMMENT="" />
    <EXPORT ORDINAL="1758" NAME="?ProcRightKeyPress@CUFListBox@@IAEXPAVCUFItemControl@@@Z" PURGE="4" COMMENT="" />
    <EXPORT ORDINAL="1759" NAME="?ProcSingleSelection@CUFListBox@@IAEXPAVCUFItemControl@@@Z" PURGE="4" COMMENT="" />
    <EXPORT ORDINAL="1760" NAME="?ProcUpKeyPress@CUFListBox@@IAEXPAVCUFItemControl@@@Z" PURGE="4" COMMENT="" />
    <EXPORT ORDINAL="1761" NAME="?ProcVScrollViewer@CUFListBox@@IAEXXZ" PURGE="0" COMMENT="" />
    <EXPORT ORDINAL="1762" NAME="?ProcVerticalMouseWheel@CUFListBox@@IAEXH@Z" PURGE="4" COMMENT="" />
    <EXPORT ORDINAL="1763" NAME="?ProcessLayerEvent@CUFLayer@@UAE_NPAUtagUFEVENT_t@@@Z" PURGE="4" COMMENT="" />
    <EXPORT ORDINAL="1764" NAME="?ProcessRawEvent@CUFEventManager@@QAEJPAX@Z" PURGE="4" COMMENT="" />
    <EXPORT ORDINAL="1765" NAME="?PushFont@IUFFont@@SAXPAV1@@Z" PURGE="0" COMMENT="" />
    <EXPORT ORDINAL="1766" NAME="?QueryDeviceResource@CUFD2D3DEffectResource@@AAE_NXZ" PURGE="0" COMMENT="" />
    <EXPORT ORDINAL="1767" NAME="?QueryFont@IUFFont@@SAPAV1@PBUtagUFFONTPARAMETER_t@@@Z" PURGE="0" COMMENT="" />
    <EXPORT ORDINAL="1768" NAME="?ReCreateSizedResource@CUFD2D3DEffectResource@@QAE_NXZ" PURGE="0" COMMENT="" />
    <EXPORT ORDINAL="1769" NAME="?ReDrawWnd@CUFPlatformHelper@@SAXXZ" PURGE="0" COMMENT="" />
    <EXPORT ORDINAL="1770" NAME="?ReFreshWCP@CUFWinChildPanel@@AAEXXZ" PURGE="0" COMMENT="" />
    <EXPORT ORDINAL="1771" NAME="?ReFreshWCP@CUFWinPopupPanel@@AAEXXZ" PURGE="-1" COMMENT="" />
    <EXPORT ORDINAL="1772" NAME="?ReSetTrianglePoint@CUFTriangle@@AAEXXZ" PURGE="0" COMMENT="" />
    <EXPORT ORDINAL="1773" NAME="?RearrayChildren@CUFLayerManager@@AAEXPAVCUFLayer@@@Z" PURGE="4" COMMENT="" />
    <EXPORT ORDINAL="1774" NAME="?ReceiveDragCompleted@CUFRangeBase@@AAEXPAXMM@Z" PURGE="12" COMMENT="" />
    <EXPORT ORDINAL="1775" NAME="?ReceiveDragStart@CUFRangeBase@@AAEXPAXMM@Z" PURGE="12" COMMENT="" />
    <EXPORT ORDINAL="1776" NAME="?ReceiveRepeatClick@CUFRangeBase@@AAEXPAXMM@Z" PURGE="12" COMMENT="" />
    <EXPORT ORDINAL="1777" NAME="?ReceiveRepeatLButtonDown@CUFRangeBase@@AAEXPAXIIMM@Z" PURGE="20" COMMENT="" />
    <EXPORT ORDINAL="1778" NAME="?ReceiveRepeatLButtonUp@CUFRangeBase@@AAEXPAXIIMM@Z" PURGE="20" COMMENT="" />
    <EXPORT ORDINAL="1779" NAME="?ReceiveSizeChangeEvent@CUFRangeBase@@AAEXPAXUtagUFSIZEF_t@@@Z" PURGE="12" COMMENT="" />
    <EXPORT ORDINAL="1780" NAME="?ReceiveThumbDragDelta@CUFRangeBase@@AAEXPAXMM@Z" PURGE="12" COMMENT="" />
    <EXPORT ORDINAL="1781" NAME="?RectNormalize@CUFListBox@@IAEXAAUtagUFRECTF_t@@@Z" PURGE="4" COMMENT="" />
    <EXPORT ORDINAL="1782" NAME="?RefreshDevice@CUFWin32Window@@IAEJIIII@Z" PURGE="16" COMMENT="" />
    <EXPORT ORDINAL="1783" NAME="?RefreshFocusIndex@CUFListBox@@IAEXH@Z" PURGE="4" COMMENT="" />
    <EXPORT ORDINAL="1784" NAME="?RefreshItemIndex@CUFItemsControl@@IAEXXZ" PURGE="0" COMMENT="" />
    <EXPORT ORDINAL="1785" NAME="?RegistLayer@CUFLayerManager@@QAEXPAVCUFLayer@@@Z" PURGE="4" COMMENT="" />
    <EXPORT ORDINAL="1786" NAME="?RegisterItem@CUFThreadTextureManager@@QAEJPAVCUFImageMeta@@@Z" PURGE="4" COMMENT="" />
    <EXPORT ORDINAL="1787" NAME="?RegisterWnd@CUFWin32Window@@AAE_NXZ" PURGE="0" COMMENT="" />
    <EXPORT ORDINAL="1788" NAME="?Release@CUFPen@@AAEXXZ" PURGE="0" COMMENT="" />
    <EXPORT ORDINAL="1789" NAME="?Release@IUFFont@@UAEJXZ" PURGE="0" COMMENT="" />
    <EXPORT ORDINAL="1790" NAME="?ReleaseAllStream@CUFBackImage@@QAEXXZ" PURGE="0" COMMENT="" />
    <EXPORT ORDINAL="1791" NAME="?ReleaseAppResource@CUFApplication@@MAEXXZ" PURGE="0" COMMENT="" />
    <EXPORT ORDINAL="1792" NAME="?ReleaseBuffer@CUFD2DMetaProperty@@UAEXXZ" PURGE="0" COMMENT="" />
    <EXPORT ORDINAL="1793" NAME="?ReleaseBuffer@CUFDx10MetaProperty@@UAEXXZ" PURGE="0" COMMENT="" />
    <EXPORT ORDINAL="1794" NAME="?ReleaseBuffer@CUFDxMetaProperty@@UAEXXZ" PURGE="0" COMMENT="" />
    <EXPORT ORDINAL="1795" NAME="?ReleaseCapture@CUFWin32Window@@UAEXXZ" PURGE="-1" COMMENT="" />
    <EXPORT ORDINAL="1796" NAME="?ReleaseDevice@CDeviceCreator@@SAXXZ" PURGE="0" COMMENT="" />
    <EXPORT ORDINAL="1797" NAME="?ReleaseDisableStream@CUFBackImage@@AAEXXZ" PURGE="0" COMMENT="" />
    <EXPORT ORDINAL="1798" NAME="?ReleaseDownStream@CUFBackImage@@AAEXXZ" PURGE="0" COMMENT="" />
    <EXPORT ORDINAL="1799" NAME="?ReleaseDynamicTex@CUFD2DMetaProperty@@UAEXXZ" PURGE="0" COMMENT="" />
    <EXPORT ORDINAL="1800" NAME="?ReleaseDynamicTex@CUFDx10MetaProperty@@UAEXXZ" PURGE="0" COMMENT="" />
    <EXPORT ORDINAL="1801" NAME="?ReleaseDynamicTex@CUFDxMetaProperty@@UAEXXZ" PURGE="0" COMMENT="" />
    <EXPORT ORDINAL="1802" NAME="?ReleaseDynamicTex@CUFImage@@QAEXXZ" PURGE="0" COMMENT="" />
    <EXPORT ORDINAL="1803" NAME="?ReleaseDynamicTex@CUFImageMeta@@QAEXXZ" PURGE="0" COMMENT="" />
    <EXPORT ORDINAL="1804" NAME="?ReleaseFocusedStream@CUFBackImage@@AAEXXZ" PURGE="0" COMMENT="" />
    <EXPORT ORDINAL="1805" NAME="?ReleaseInstance@CUFD2D3DEffectResource@@SAXXZ" PURGE="0" COMMENT="" />
    <EXPORT ORDINAL="1806" NAME="?ReleaseInstance@CUFEventManager@@SAXXZ" PURGE="0" COMMENT="" />
    <EXPORT ORDINAL="1807" NAME="?ReleaseInstance@CUFLog@@SAXXZ" PURGE="0" COMMENT="" />
    <EXPORT ORDINAL="1808" NAME="?ReleaseInstance@CUFThreadTextureManager@@SAXXZ" PURGE="0" COMMENT="" />
    <EXPORT ORDINAL="1809" NAME="?ReleaseInstance@CUFTimerManager@@SAXXZ" PURGE="0" COMMENT="" />
    <EXPORT ORDINAL="1810" NAME="?ReleaseInstance@CUFWin32AccelManager@@SAXXZ" PURGE="0" COMMENT="" />
    <EXPORT ORDINAL="1811" NAME="?ReleaseInstance@IUFTextureManager@@SAXXZ" PURGE="0" COMMENT="" />
    <EXPORT ORDINAL="1812" NAME="?ReleaseInstance@IUFWindow@@SAXXZ" PURGE="0" COMMENT="" />
    <EXPORT ORDINAL="1813" NAME="?ReleaseNormalStream@CUFBackImage@@AAEXXZ" PURGE="0" COMMENT="" />
    <EXPORT ORDINAL="1814" NAME="?ReleaseOverStream@CUFBackImage@@AAEXXZ" PURGE="0" COMMENT="" />
    <EXPORT ORDINAL="1815" NAME="?ReleasePicPathIcon@CUFMenuItem@@QAEXXZ" PURGE="0" COMMENT="" />
    <EXPORT ORDINAL="1816" NAME="?ReleasePicPathTex@CUFImage@@QAEXXZ" PURGE="0" COMMENT="" />
    <EXPORT ORDINAL="1817" NAME="?ReleasePicPathTex@CUFImageMeta@@QAEXABV?$basic_string@_WU?$char_traits@_W@std@@V?$allocator@_W@2@@std@@_N@Z" PURGE="8" COMMENT="" />
    <EXPORT ORDINAL="1818" NAME="?ReleaseProperty@CUFMetaBase@@AAEXXZ" PURGE="0" COMMENT="" />
    <EXPORT ORDINAL="1819" NAME="?ReleaseRequest@CUFThreadTextureManager@@AAEXPAUtagTEXQUERYITEM_t@@@Z" PURGE="4" COMMENT="" />
    <EXPORT ORDINAL="1820" NAME="?ReleaseResource@CUFListBox@@IAEXXZ" PURGE="0" COMMENT="" />
    <EXPORT ORDINAL="1821" NAME="?ReleaseSprite@CUFDxFont@@QAEXXZ" PURGE="0" COMMENT="" />
    <EXPORT ORDINAL="1822" NAME="?ReleaseStaticIcon@CUFMenuItem@@QAEXXZ" PURGE="0" COMMENT="" />
    <EXPORT ORDINAL="1823" NAME="?ReleaseStaticResource@CUFD2DDevice@@SAXXZ" PURGE="0" COMMENT="" />
    <EXPORT ORDINAL="1824" NAME="?ReleaseStaticTex@CUFD2DMetaProperty@@UAEXXZ" PURGE="0" COMMENT="" />
    <EXPORT ORDINAL="1825" NAME="?ReleaseStaticTex@CUFDx10MetaProperty@@UAEXXZ" PURGE="0" COMMENT="" />
    <EXPORT ORDINAL="1826" NAME="?ReleaseStaticTex@CUFDxMetaProperty@@UAEXXZ" PURGE="0" COMMENT="" />
    <EXPORT ORDINAL="1827" NAME="?ReleaseStaticTex@CUFImage@@QAEXXZ" PURGE="0" COMMENT="" />
    <EXPORT ORDINAL="1828" NAME="?ReleaseStaticTex@CUFImageMeta@@QAEXXZ" PURGE="-1" COMMENT="" />
    <EXPORT ORDINAL="1829" NAME="?ReleaseTexture@CUFD2DTextureManager@@UAEXABV?$basic_string@_WU?$char_traits@_W@std@@V?$allocator@_W@2@@std@@@Z" PURGE="4" COMMENT="" />
    <EXPORT ORDINAL="1830" NAME="?ReleaseTexture@CUFD2DTextureManager@@UAEXI@Z" PURGE="4" COMMENT="" />
    <EXPORT ORDINAL="1831" NAME="?ReleaseTexture@CUFD2DThreadTextureManager@@EAEXPAX@Z" PURGE="4" COMMENT="" />
    <EXPORT ORDINAL="1832" NAME="?ReleaseTexture@CUFDx10TexRVManager@@UAEXABV?$basic_string@_WU?$char_traits@_W@std@@V?$allocator@_W@2@@std@@@Z" PURGE="4" COMMENT="" />
    <EXPORT ORDINAL="1833" NAME="?ReleaseTexture@CUFDx10TexRVManager@@UAEXI@Z" PURGE="4" COMMENT="" />
    <EXPORT ORDINAL="1834" NAME="?ReleaseTexture@CUFDxTextureManager@@UAEXABV?$basic_string@_WU?$char_traits@_W@std@@V?$allocator@_W@2@@std@@@Z" PURGE="4" COMMENT="" />
    <EXPORT ORDINAL="1835" NAME="?ReleaseTexture@CUFDxTextureManager@@UAEXI@Z" PURGE="4" COMMENT="" />
    <EXPORT ORDINAL="1836" NAME="?ReleaseTexture@CUFThreadDX10TexManager@@UAEXPAX@Z" PURGE="4" COMMENT="" />
    <EXPORT ORDINAL="1837" NAME="?ReleaseTexture@CUFThreadDX9TexManager@@UAEXPAX@Z" PURGE="4" COMMENT="" />
    <EXPORT ORDINAL="1838" NAME="?ReleaseTexture@CUFThreadTextureManager@@UAEXPAX@Z" PURGE="4" COMMENT="" />
    <EXPORT ORDINAL="1839" NAME="?ReleaseTextureByResID@CUFD2DTextureManager@@UAEXH@Z" PURGE="4" COMMENT="" />
    <EXPORT ORDINAL="1840" NAME="?ReleaseTextureByResID@CUFDx10TexRVManager@@UAEXH@Z" PURGE="4" COMMENT="" />
    <EXPORT ORDINAL="1841" NAME="?ReleaseTextureByResID@CUFDxTextureManager@@UAEXH@Z" PURGE="4" COMMENT="" />
    <EXPORT ORDINAL="1842" NAME="?ReleaseUFFont@CUFDxFont@@UAEXXZ" PURGE="0" COMMENT="" />
    <EXPORT ORDINAL="1843" NAME="?RemindCursorPos@CUFEditText@@AAEXXZ" PURGE="0" COMMENT="" />
    <EXPORT ORDINAL="1844" NAME="?RemoveAll@CUFPanel@@UAEXXZ" PURGE="0" COMMENT="" />
    <EXPORT ORDINAL="1845" NAME="?RemoveAll@CUFPopUPWCP@@UAEXXZ" PURGE="0" COMMENT="" />
    <EXPORT ORDINAL="1846" NAME="?RemoveAllItems@CUFComboBoxDropDown@@QAEXXZ" PURGE="0" COMMENT="" />
    <EXPORT ORDINAL="1847" NAME="?RemoveAllTopLevelElements@CUFMenuPanel@@QAEXXZ" PURGE="0" COMMENT="" />
    <EXPORT ORDINAL="1848" NAME="?RemoveBackgroundElement@CUFMenu@@QAEXXZ" PURGE="0" COMMENT="" />
    <EXPORT ORDINAL="1849" NAME="?RemoveButton@CUFGroupButton@@QAEXPAVCUFRadioButton@@@Z" PURGE="4" COMMENT="" />
    <EXPORT ORDINAL="1850" NAME="?RemoveButtonDecoration@CUFDecorateButton@@QAEXXZ" PURGE="0" COMMENT="" />
    <EXPORT ORDINAL="1851" NAME="?RemoveChild@CUFControl@@QAE_NPAVCUFElement@@@Z" PURGE="4" COMMENT="" />
    <EXPORT ORDINAL="1852" NAME="?RemoveContentPtr@CUFContentControl@@UAEXXZ" PURGE="0" COMMENT="" />
    <EXPORT ORDINAL="1853" NAME="?RemoveContentPtr@CUFMenuItem@@UAEXXZ" PURGE="0" COMMENT="" />
    <EXPORT ORDINAL="1854" NAME="?RemoveElement@CUFPanel@@UAE_NIPAPAVCUFElement@@@Z" PURGE="8" COMMENT="" />
    <EXPORT ORDINAL="1855" NAME="?RemoveElement@CUFPanel@@UAE_NPAVCUFElement@@@Z" PURGE="4" COMMENT="" />
    <EXPORT ORDINAL="1856" NAME="?RemoveElement@CUFPopUPWCP@@UAE_NPAVCUFElement@@@Z" PURGE="4" COMMENT="" />
    <EXPORT ORDINAL="1857" NAME="?RemoveEventFilter@CUFEventManager@@QAE_NIPAXP6AX00PA_N@Z@Z" PURGE="12" COMMENT="" />
    <EXPORT ORDINAL="1858" NAME="?RemoveEventFilter@IUFEventProcessor@@QAE_NIPAXP6AX00PA_N@Z@Z" PURGE="12" COMMENT="" />
    <EXPORT ORDINAL="1859" NAME="?RemoveFromGroup@CUFRadioButton@@QAEXXZ" PURGE="0" COMMENT="" />
    <EXPORT ORDINAL="1860" NAME="?RemoveItem@CUFComboBox@@UAE_NHPAPAVCUFItemControl@@@Z" PURGE="8" COMMENT="" />
    <EXPORT ORDINAL="1861" NAME="?RemoveItem@CUFComboBox@@UAE_NPAVCUFItemControl@@@Z" PURGE="4" COMMENT="" />
    <EXPORT ORDINAL="1862" NAME="?RemoveItem@CUFItemsControl@@UAE_NHPAPAVCUFItemControl@@@Z" PURGE="8" COMMENT="" />
    <EXPORT ORDINAL="1863" NAME="?RemoveItem@CUFItemsControl@@UAE_NPAVCUFItemControl@@@Z" PURGE="4" COMMENT="" />
    <EXPORT ORDINAL="1864" NAME="?RemoveItem@CUFListBox@@UAE_NHPAPAVCUFItemControl@@@Z" PURGE="8" COMMENT="" />
    <EXPORT ORDINAL="1865" NAME="?RemoveItem@CUFListBox@@UAE_NPAVCUFItemControl@@@Z" PURGE="4" COMMENT="" />
    <EXPORT ORDINAL="1866" NAME="?RemoveItemControl@CUFComboBoxDropDown@@UAEXH@Z" PURGE="4" COMMENT="" />
    <EXPORT ORDINAL="1867" NAME="?RemoveItemControl@CUFComboBoxDropDown@@UAEXPAVCUFComboBoxItem@@@Z" PURGE="4" COMMENT="" />
    <EXPORT ORDINAL="1868" NAME="?RemoveItems@CUFComboBox@@UAEXAAV?$deque@PAVCUFItemControl@@V?$allocator@PAVCUFItemControl@@@std@@@std@@@Z" PURGE="4" COMMENT="" />
    <EXPORT ORDINAL="1869" NAME="?RemoveItems@CUFItemsControl@@UAEXAAV?$deque@PAVCUFItemControl@@V?$allocator@PAVCUFItemControl@@@std@@@std@@@Z" PURGE="4" COMMENT="" />
    <EXPORT ORDINAL="1870" NAME="?RemoveItems@CUFListBox@@UAEXAAV?$deque@PAVCUFItemControl@@V?$allocator@PAVCUFItemControl@@@std@@@std@@@Z" PURGE="4" COMMENT="" />
    <EXPORT ORDINAL="1871" NAME="?RemoveLayer@CUFWin32Window@@UAEXPAVCUFLayer@@@Z" PURGE="4" COMMENT="" />
    <EXPORT ORDINAL="1872" NAME="?RemoveMenuItem@CUFMenu@@QAE_NIPAPAVCUFMenuItem@@@Z" PURGE="8" COMMENT="" />
    <EXPORT ORDINAL="1873" NAME="?RemoveScrollChild@CUFScrollViewer@@QAEXXZ" PURGE="0" COMMENT="" />
    <EXPORT ORDINAL="1874" NAME="?RemoveTimer@CUFTimerManager@@QAEXPAVCUFTimer@@@Z" PURGE="4" COMMENT="" />
    <EXPORT ORDINAL="1875" NAME="?RemoveTopLevelElement@CUFMenuPanel@@QAEXPAVCUFElement@@@Z" PURGE="4" COMMENT="" />
    <EXPORT ORDINAL="1876" NAME="?Render@CUFD2D3DEffect@@QAEXPBUtagUFRECTF_t@@PBUtagUFPOINTF_t@@PBUtagUFROTATION_t@@@Z" PURGE="12" COMMENT="" />
    <EXPORT ORDINAL="1877" NAME="?Render@CUFEllipseMeta@@UAEXXZ" PURGE="0" COMMENT="" />
    <EXPORT ORDINAL="1878" NAME="?Render@CUFImageMeta@@UAEXXZ" PURGE="0" COMMENT="" />
    <EXPORT ORDINAL="1879" NAME="?Render@CUFLayerManager@@QAEXXZ" PURGE="0" COMMENT="" />
    <EXPORT ORDINAL="1880" NAME="?Render@CUFLineMeta@@UAEXXZ" PURGE="0" COMMENT="" />
    <EXPORT ORDINAL="1881" NAME="?Render@CUFMetaBase@@UAEXXZ" PURGE="0" COMMENT="" />
    <EXPORT ORDINAL="1882" NAME="?Render@CUFRectMeta@@UAEXXZ" PURGE="0" COMMENT="" />
    <EXPORT ORDINAL="1883" NAME="?Render@CUFTriangleMeta@@UAEXXZ" PURGE="0" COMMENT="" />
    <EXPORT ORDINAL="1884" NAME="?Render@CUFWin32Window@@QAEXXZ" PURGE="-1" COMMENT="" />
    <EXPORT ORDINAL="1885" NAME="?RenderBG@CUFEditText@@AAEXXZ" PURGE="0" COMMENT="" />
    <EXPORT ORDINAL="1886" NAME="?RenderCursor@CUFEditText@@AAEXXZ" PURGE="0" COMMENT="" />
    <EXPORT ORDINAL="1887" NAME="?RenderEllipse@CUFD2DMetaProperty@@UAE_NABUtagUFRECTF_t@@KW4enumMETA_DRAWTYPE@@HPBUtagUFPOINTF_t@@PBUtagUFROTATION_t@@@Z" PURGE="24" COMMENT="" />
    <EXPORT ORDINAL="1888" NAME="?RenderEllipse@CUFDx10MetaProperty@@UAE_NABUtagUFRECTF_t@@KW4enumMETA_DRAWTYPE@@HPBUtagUFPOINTF_t@@PBUtagUFROTATION_t@@@Z" PURGE="24" COMMENT="" />
    <EXPORT ORDINAL="1889" NAME="?RenderEllipse@CUFDxMetaProperty@@UAE_NABUtagUFRECTF_t@@KW4enumMETA_DRAWTYPE@@HPBUtagUFPOINTF_t@@PBUtagUFROTATION_t@@@Z" PURGE="24" COMMENT="" />
    <EXPORT ORDINAL="1890" NAME="?RenderImage@CUFD2DMetaProperty@@UAE_NABUtagUFRECTF_t@@ABUtagBLENDCOLOR_t@@PBU2@PBUtagUFPOINTF_t@@PBUtagUFROTATION_t@@@Z" PURGE="20" COMMENT="" />
    <EXPORT ORDINAL="1891" NAME="?RenderImage@CUFDx10MetaProperty@@UAE_NABUtagUFRECTF_t@@ABUtagBLENDCOLOR_t@@PBU2@PBUtagUFPOINTF_t@@PBUtagUFROTATION_t@@@Z" PURGE="20" COMMENT="" />
    <EXPORT ORDINAL="1892" NAME="?RenderImage@CUFDxMetaProperty@@UAE_NABUtagUFRECTF_t@@ABUtagBLENDCOLOR_t@@PBU2@PBUtagUFPOINTF_t@@PBUtagUFROTATION_t@@@Z" PURGE="20" COMMENT="" />
    <EXPORT ORDINAL="1893" NAME="?RenderLine@CUFD2DMetaProperty@@UAE_NABUtagUFCUSTOMVERTEX_t@@0PBUtagUFPOINTF_t@@PBUtagUFROTATION_t@@@Z" PURGE="16" COMMENT="" />
    <EXPORT ORDINAL="1894" NAME="?RenderLine@CUFDx10MetaProperty@@UAE_NABUtagUFCUSTOMVERTEX_t@@0PBUtagUFPOINTF_t@@PBUtagUFROTATION_t@@@Z" PURGE="16" COMMENT="" />
    <EXPORT ORDINAL="1895" NAME="?RenderLine@CUFDxMetaProperty@@UAE_NABUtagUFCUSTOMVERTEX_t@@0PBUtagUFPOINTF_t@@PBUtagUFROTATION_t@@@Z" PURGE="16" COMMENT="" />
    <EXPORT ORDINAL="1896" NAME="?RenderObject@CUFDx10MetaProperty@@AAEXW4enumVERTEXTYPE@@HW4D3D10_PRIMITIVE_TOPOLOGY@@@Z" PURGE="12" COMMENT="" />
    <EXPORT ORDINAL="1897" NAME="?RenderPolygon@CUFD2DMetaProperty@@UAE_NAAV?$vector@PAUtagUFCUSTOMVERTEX_t@@V?$allocator@PAUtagUFCUSTOMVERTEX_t@@@std@@@std@@W4enumMETA_DRAWTYPE@@PBUtagUFPOINTF_t@@PBUtagUFROTATION_t@@@Z" PURGE="16" COMMENT="" />
    <EXPORT ORDINAL="1898" NAME="?RenderPolygon@CUFDx10MetaProperty@@UAE_NAAV?$vector@PAUtagUFCUSTOMVERTEX_t@@V?$allocator@PAUtagUFCUSTOMVERTEX_t@@@std@@@std@@W4enumMETA_DRAWTYPE@@PBUtagUFPOINTF_t@@PBUtagUFROTATION_t@@@Z" PURGE="16" COMMENT="" />
    <EXPORT ORDINAL="1899" NAME="?RenderPolygon@CUFDxMetaProperty@@UAE_NAAV?$vector@PAUtagUFCUSTOMVERTEX_t@@V?$allocator@PAUtagUFCUSTOMVERTEX_t@@@std@@@std@@W4enumMETA_DRAWTYPE@@PBUtagUFPOINTF_t@@PBUtagUFROTATION_t@@@Z" PURGE="16" COMMENT="" />
    <EXPORT ORDINAL="1900" NAME="?RenderPrimitive@CUFDxMetaProperty@@AAE_NW4_D3DPRIMITIVETYPE@@IIK@Z" PURGE="16" COMMENT="" />
    <EXPORT ORDINAL="1901" NAME="?RenderRect@CUFD2DMetaProperty@@UAE_NABUtagUFRECTF_t@@PBKW4enumMETA_DRAWTYPE@@PBUtagUFPOINTF_t@@PBUtagUFROTATION_t@@@Z" PURGE="20" COMMENT="" />
    <EXPORT ORDINAL="1902" NAME="?RenderRect@CUFDx10MetaProperty@@UAE_NABUtagUFRECTF_t@@PBKW4enumMETA_DRAWTYPE@@PBUtagUFPOINTF_t@@PBUtagUFROTATION_t@@@Z" PURGE="20" COMMENT="" />
    <EXPORT ORDINAL="1903" NAME="?RenderRect@CUFDxMetaProperty@@UAE_NABUtagUFRECTF_t@@PBKW4enumMETA_DRAWTYPE@@PBUtagUFPOINTF_t@@PBUtagUFROTATION_t@@@Z" PURGE="20" COMMENT="" />
    <EXPORT ORDINAL="1904" NAME="?RenderRotation@CUFDxMetaProperty@@AAEXPBUtagUFPOINTF_t@@PBUtagUFROTATION_t@@@Z" PURGE="8" COMMENT="" />
    <EXPORT ORDINAL="1905" NAME="?RenderSelectRect@CUFListBox@@IAEXXZ" PURGE="0" COMMENT="" />
    <EXPORT ORDINAL="1906" NAME="?RenderSelectRectNormalize@CUFListBox@@IAEXAAUtagUFRECTF_t@@@Z" PURGE="4" COMMENT="" />
    <EXPORT ORDINAL="1907" NAME="?RenderSelectedText@CUFEditText@@AAEXXZ" PURGE="0" COMMENT="" />
    <EXPORT ORDINAL="1908" NAME="?RenderText@CUFDx9Text@@AAEXABV?$basic_string@_WU?$char_traits@_W@std@@V?$allocator@_W@2@@std@@PAUtagUFRECTF_t@@@Z" PURGE="8" COMMENT="" />
    <EXPORT ORDINAL="1909" NAME="?RenderText@CUFEditText@@AAEXABV?$basic_string@_WU?$char_traits@_W@std@@V?$allocator@_W@2@@std@@PAUtagUFRECTF_t@@@Z" PURGE="8" COMMENT="" />
    <EXPORT ORDINAL="1910" NAME="?RenderText@CUFEditText@@AAEXXZ" PURGE="0" COMMENT="" />
    <EXPORT ORDINAL="1911" NAME="?RenderText@CUFTextMeta@@QAEXABV?$basic_string@_WU?$char_traits@_W@std@@V?$allocator@_W@2@@std@@PAUtagUFRECTF_t@@KPAUtagUFPOINTF_t@@PAUtagUFROTATION_t@@PAX@Z" PURGE="24" COMMENT="" />
    <EXPORT ORDINAL="1912" NAME="?RenderTimerProc@CUFWin32Window@@CGXPAUHWND__@@IIK@Z" PURGE="16" COMMENT="" />
    <EXPORT ORDINAL="1913" NAME="?RenderTriangle@CUFD2DMetaProperty@@UAE_NABUtagUFCUSTOMVERTEX_t@@00W4enumMETA_DRAWTYPE@@PBUtagUFPOINTF_t@@PBUtagUFROTATION_t@@@Z" PURGE="24" COMMENT="" />
    <EXPORT ORDINAL="1914" NAME="?RenderTriangle@CUFDx10MetaProperty@@UAE_NABUtagUFCUSTOMVERTEX_t@@00W4enumMETA_DRAWTYPE@@PBUtagUFPOINTF_t@@PBUtagUFROTATION_t@@@Z" PURGE="24" COMMENT="" />
    <EXPORT ORDINAL="1915" NAME="?RenderTriangle@CUFDxMetaProperty@@UAE_NABUtagUFCUSTOMVERTEX_t@@00W4enumMETA_DRAWTYPE@@PBUtagUFPOINTF_t@@PBUtagUFROTATION_t@@@Z" PURGE="24" COMMENT="" />
    <EXPORT ORDINAL="1916" NAME="?RequireTexture@CUFThreadTextureManager@@QAE_NJPAPAX@Z" PURGE="8" COMMENT="" />
    <EXPORT ORDINAL="1917" NAME="?ResetDevice@CUFD2DDevice@@UAEJIIII@Z" PURGE="16" COMMENT="" />
    <EXPORT ORDINAL="1918" NAME="?ResetDevice@CUFD2DDeviceDc@@UAEJIIII@Z" PURGE="16" COMMENT="" />
    <EXPORT ORDINAL="1919" NAME="?ResetDevice@CUFD2DDeviceDxgi@@UAEJIIII@Z" PURGE="16" COMMENT="" />
    <EXPORT ORDINAL="1920" NAME="?ResetDevice@CUFD2DDeviceHwnd@@UAEJIIII@Z" PURGE="16" COMMENT="" />
    <EXPORT ORDINAL="1921" NAME="?ResetDevice@CUFDx10Device@@UAEJIIII@Z" PURGE="16" COMMENT="" />
    <EXPORT ORDINAL="1922" NAME="?ResetDevice@CUFDxDevice@@UAEJIIII@Z" PURGE="16" COMMENT="" />
    <EXPORT ORDINAL="1923" NAME="?ResetDeviceMS@CUFWin32Window@@UAEXII@Z" PURGE="8" COMMENT="" />
    <EXPORT ORDINAL="1924" NAME="?ResetDeviceMS@IUFWindow@@UAEXII@Z" PURGE="8" COMMENT="" />
    <EXPORT ORDINAL="1925" NAME="?ResizeBuffer@CUFWinChildPanel@@AAEXXZ" PURGE="0" COMMENT="" />
    <EXPORT ORDINAL="1926" NAME="?ResizeBuffers@CUFD2DDcRenderAdapter@@UAE_NII@Z" PURGE="8" COMMENT="" />
    <EXPORT ORDINAL="1927" NAME="?ResizeBuffers@CUFD2DDxgiRenderAdapter@@UAE_NII@Z" PURGE="8" COMMENT="" />
    <EXPORT ORDINAL="1928" NAME="?ResizeBuffers@CUFD2DHwndRenderAdapter@@UAE_NII@Z" PURGE="8" COMMENT="" />
    <EXPORT ORDINAL="1929" NAME="?ResizeBuffers@CUFRenderAdapter10@@UAE_NII@Z" PURGE="8" COMMENT="" />
    <EXPORT ORDINAL="1930" NAME="?ResizeBuffers@CUFRenderAdapter9@@UAE_NII@Z" PURGE="8" COMMENT="" />
    <EXPORT ORDINAL="1931" NAME="?ResizeBuffers@IUFD2DRenderAdapter@@UAE_NII@Z" PURGE="8" COMMENT="" />
    <EXPORT ORDINAL="1932" NAME="?ResizeFinal@CUFWin32Window@@AAEXXZ" PURGE="0" COMMENT="" />
    <EXPORT ORDINAL="1933" NAME="?ResumeLayout@CUFPanel@@QAEX_N@Z" PURGE="4" COMMENT="" />
    <EXPORT ORDINAL="1934" NAME="?ReturnFocus@CUFMenu@@QAEXXZ" PURGE="0" COMMENT="" />
    <EXPORT ORDINAL="1935" NAME="?Run@CUFApplication@@QAEXXZ" PURGE="0" COMMENT="" />
    <EXPORT ORDINAL="1936" NAME="?RunEventLoop@CUFEventManager@@QAEX_N@Z" PURGE="4" COMMENT="" />
    <EXPORT ORDINAL="1937" NAME="?RunEventLoop@CUFWin32EventProcessor@@UAEX_N@Z" PURGE="4" COMMENT="" />
    <EXPORT ORDINAL="1938" NAME="?RunModalEventLoop@CUFEventManager@@QAEXQA_N@Z" PURGE="4" COMMENT="" />
    <EXPORT ORDINAL="1939" NAME="?RunModalEventLoop@CUFWin32EventProcessor@@UAE_NQA_N@Z" PURGE="4" COMMENT="" />
    <EXPORT ORDINAL="1940" NAME="?RunModalLoop@CUFLayer@@IAEXXZ" PURGE="0" COMMENT="" />
    <EXPORT ORDINAL="1941" NAME="?Scroll2Bottom@CUFScrollViewer@@QAEXXZ" PURGE="0" COMMENT="" />
    <EXPORT ORDINAL="1942" NAME="?Scroll2Top@CUFScrollViewer@@QAEXXZ" PURGE="0" COMMENT="" />
    <EXPORT ORDINAL="1943" NAME="?ScrollRender@CUFDx9Text@@AAEXXZ" PURGE="0" COMMENT="" />
    <EXPORT ORDINAL="1944" NAME="?ScrollTimerFunc@CUFDWriteText@@AAEXPAXK@Z" PURGE="8" COMMENT="" />
    <EXPORT ORDINAL="1945" NAME="?SendDropDownListMsg@CUFComboBox@@IAEX_N@Z" PURGE="4" COMMENT="" />
    <EXPORT ORDINAL="1946" NAME="?SendEvent@CUFEventManager@@QAE_NPAUtagUFEVENT_t@@_N@Z" PURGE="8" COMMENT="" />
    <EXPORT ORDINAL="1947" NAME="?SendEvent@CUFWin32EventProcessor@@UAE_NPAUtagUFEVENT_t@@_N@Z" PURGE="8" COMMENT="" />
    <EXPORT ORDINAL="1948" NAME="?SendHidePopUpMsg@CUFMenuPanel@@QAEXXZ" PURGE="0" COMMENT="" />
    <EXPORT ORDINAL="1949" NAME="?SendHidePopupMsg@CUFScrollViewer@@AAEXXZ" PURGE="0" COMMENT="" />
    <EXPORT ORDINAL="1950" NAME="?SendIsShowMsg@CUFPopUp@@IAEX_N@Z" PURGE="4" COMMENT="" />
    <EXPORT ORDINAL="1951" NAME="?SendIsShowMsg@CUFWCPMenu@@IAEX_N@Z" PURGE="4" COMMENT="" />
    <EXPORT ORDINAL="1952" NAME="?SendMsg@CUFComboBox@@AAEXAAUtagUFEVENT_t@@@Z" PURGE="4" COMMENT="" />
    <EXPORT ORDINAL="1953" NAME="?SendMsg@CUFPopUp@@IAEXPAUtagUFEVENT_t@@@Z" PURGE="4" COMMENT="" />
    <EXPORT ORDINAL="1954" NAME="?Set9ImageAlpha@CUFHFPicContainer@@QAEXM@Z" PURGE="4" COMMENT="" />
    <EXPORT ORDINAL="1955" NAME="?SetActiveBGImage@CUFMenuItem@@QAEXABV?$basic_string@_WU?$char_traits@_W@std@@V?$allocator@_W@2@@std@@@Z" PURGE="4" COMMENT="" />
    <EXPORT ORDINAL="1956" NAME="?SetActiveBGImage@CUFMenuItem@@QAEXHPAX@Z" PURGE="8" COMMENT="" />
    <EXPORT ORDINAL="1957" NAME="?SetActiveImage@CUFButton@@UAEXABVCUFBackImage@@@Z" PURGE="4" COMMENT="" />
    <EXPORT ORDINAL="1958" NAME="?SetActiveMenuItem@CUFMenu@@QAEXPAVCUFMenuItem@@@Z" PURGE="4" COMMENT="" />
    <EXPORT ORDINAL="1959" NAME="?SetAlignment@CUFElement@@UAEXW4enumALIGNMENT@@@Z" PURGE="4" COMMENT="" />
    <EXPORT ORDINAL="1960" NAME="?SetAlignment@CUFItemControl@@UAEXW4enumALIGNMENT@@@Z" PURGE="4" COMMENT="" />
    <EXPORT ORDINAL="1961" NAME="?SetAlignment@CUFText@@UAEXW4enumALIGNMENT@@@Z" PURGE="4" COMMENT="" />
    <EXPORT ORDINAL="1962" NAME="?SetAllItems@CUFItemsControl@@QAEXAAV?$deque@PAVCUFItemControl@@V?$allocator@PAVCUFItemControl@@@std@@@std@@@Z" PURGE="4" COMMENT="" />
    <EXPORT ORDINAL="1963" NAME="?SetAlpha@CUFElement@@UAEXM@Z" PURGE="4" COMMENT="" />
    <EXPORT ORDINAL="1964" NAME="?SetAlpha@CUFImageMeta@@UAEXE@Z" PURGE="4" COMMENT="" />
    <EXPORT ORDINAL="1965" NAME="?SetAlpha@CUFLineMeta@@UAEXE@Z" PURGE="4" COMMENT="" />
    <EXPORT ORDINAL="1966" NAME="?SetAlpha@CUFMetaBase@@UAEXE@Z" PURGE="4" COMMENT="" />
    <EXPORT ORDINAL="1967" NAME="?SetAlpha@CUFRectMeta@@UAEXE@Z" PURGE="4" COMMENT="" />
    <EXPORT ORDINAL="1968" NAME="?SetAlpha@CUFText@@UAEXM@Z" PURGE="4" COMMENT="" />
    <EXPORT ORDINAL="1969" NAME="?SetAlpha@CUFTextMeta@@UAEXE@Z" PURGE="4" COMMENT="" />
    <EXPORT ORDINAL="1970" NAME="?SetAlpha@CUFTriangleMeta@@UAEXE@Z" PURGE="4" COMMENT="" />
    <EXPORT ORDINAL="1971" NAME="?SetAncestorClipRect@CUFElement@@UAEXABUtagUFRECTF_t@@@Z" PURGE="4" COMMENT="" />
    <EXPORT ORDINAL="1972" NAME="?SetAngle@CUFElement@@UAEXABUtagUFROTATION_t@@@Z" PURGE="4" COMMENT="" />
    <EXPORT ORDINAL="1973" NAME="?SetAngle@CUFText@@UAEXABUtagUFROTATION_t@@@Z" PURGE="4" COMMENT="" />
    <EXPORT ORDINAL="1974" NAME="?SetAngleX@CUFElement@@UAEXM@Z" PURGE="4" COMMENT="" />
    <EXPORT ORDINAL="1975" NAME="?SetAngleX@CUFText@@UAEXM@Z" PURGE="4" COMMENT="" />
    <EXPORT ORDINAL="1976" NAME="?SetAngleY@CUFElement@@UAEXM@Z" PURGE="4" COMMENT="" />
    <EXPORT ORDINAL="1977" NAME="?SetAngleY@CUFText@@UAEXM@Z" PURGE="4" COMMENT="" />
    <EXPORT ORDINAL="1978" NAME="?SetAngleZ@CUFElement@@UAEXM@Z" PURGE="4" COMMENT="" />
    <EXPORT ORDINAL="1979" NAME="?SetAngleZ@CUFText@@UAEXM@Z" PURGE="4" COMMENT="" />
    <EXPORT ORDINAL="1980" NAME="?SetAutoScroll@CUFSliderBar@@QAEX_N@Z" PURGE="4" COMMENT="" />
    <EXPORT ORDINAL="1981" NAME="?SetBGAlpha@CUFControl@@UAEXE@Z" PURGE="4" COMMENT="" />
    <EXPORT ORDINAL="1982" NAME="?SetBGColor@CUFEditText@@QAEXEEEE@Z" PURGE="16" COMMENT="" />
    <EXPORT ORDINAL="1983" NAME="?SetBGColorAlpha@CUFMenuItem@@QAEXEEEE@Z" PURGE="16" COMMENT="" />
    <EXPORT ORDINAL="1984" NAME="?SetBGImage@CUFScrollViewer@@UAEXABVCUFBackImage@@@Z" PURGE="4" COMMENT="" />
    <EXPORT ORDINAL="1985" NAME="?SetBGImagePos@CUFScrollBar@@QAEXMM@Z" PURGE="8" COMMENT="" />
    <EXPORT ORDINAL="1986" NAME="?SetBGImagePos@CUFSliderBar@@QAEXMM@Z" PURGE="8" COMMENT="" />
    <EXPORT ORDINAL="1987" NAME="?SetBGImageSize@CUFScrollBar@@QAEXMM@Z" PURGE="8" COMMENT="" />
    <EXPORT ORDINAL="1988" NAME="?SetBGImageSize@CUFSliderBar@@QAEXMM@Z" PURGE="8" COMMENT="" />
    <EXPORT ORDINAL="1989" NAME="?SetBGResID@CUFStateButton@@QAEXH@Z" PURGE="4" COMMENT="" />
    <EXPORT ORDINAL="1990" NAME="?SetBGScaleAlpha@CUFComboBoxItem@@QAEXXZ" PURGE="-1" COMMENT="" />
    <EXPORT ORDINAL="1991" NAME="?SetBackGround@CUFButton@@UAEXEEE@Z" PURGE="12" COMMENT="" />
    <EXPORT ORDINAL="1992" NAME="?SetBackGround@CUFButtonBase@@UAEXEEE@Z" PURGE="12" COMMENT="" />
    <EXPORT ORDINAL="1993" NAME="?SetBackGround@CUFControl@@UAEXEEE@Z" PURGE="12" COMMENT="" />
    <EXPORT ORDINAL="1994" NAME="?SetBackImage@CUFButton@@UAEXABV?$basic_string@_WU?$char_traits@_W@std@@V?$allocator@_W@2@@std@@@Z" PURGE="4" COMMENT="" />
    <EXPORT ORDINAL="1995" NAME="?SetBackImage@CUFButtonBase@@UAEXABV?$basic_string@_WU?$char_traits@_W@std@@V?$allocator@_W@2@@std@@@Z" PURGE="4" COMMENT="" />
    <EXPORT ORDINAL="1996" NAME="?SetBackImage@CUFComboBoxDropDown@@QAEXAAVCUFBackImage@@@Z" PURGE="4" COMMENT="" />
    <EXPORT ORDINAL="1997" NAME="?SetBackImage@CUFStateButton@@UAEXABV?$basic_string@_WU?$char_traits@_W@std@@V?$allocator@_W@2@@std@@@Z" PURGE="4" COMMENT="" />
    <EXPORT ORDINAL="1998" NAME="?SetBackgroundElement@CUFMenu@@QAEXPAVCUFElement@@@Z" PURGE="4" COMMENT="" />
    <EXPORT ORDINAL="1999" NAME="?SetBackgroundImage@CUFComboBox@@QAEXAAVCUFBackImage@@@Z" PURGE="4" COMMENT="" />
    <EXPORT ORDINAL="2000" NAME="?SetBlendColor@CUFDxDevice@@QAEXPAUD3DXVECTOR4@@@Z" PURGE="4" COMMENT="" />
    <EXPORT ORDINAL="2001" NAME="?SetBlendColor@CUFImage@@QAEXPAUtagBLENDCOLOR_t@@@Z" PURGE="4" COMMENT="" />
    <EXPORT ORDINAL="2002" NAME="?SetBlendColor@CUFImageMeta@@QAEXPAUtagBLENDCOLOR_t@@@Z" PURGE="4" COMMENT="" />
    <EXPORT ORDINAL="2003" NAME="?SetButtonDecoration@CUFDecorateButton@@QAEXPAVCUFButtonDecoration@@@Z" PURGE="4" COMMENT="" />
    <EXPORT ORDINAL="2004" NAME="?SetCaption@CUFButton@@UAEXABV?$basic_string@_WU?$char_traits@_W@std@@V?$allocator@_W@2@@std@@HH@Z" PURGE="12" COMMENT="" />
    <EXPORT ORDINAL="2005" NAME="?SetCaption@CUFButtonBase@@UAEXABV?$basic_string@_WU?$char_traits@_W@std@@V?$allocator@_W@2@@std@@HH@Z" PURGE="12" COMMENT="" />
    <EXPORT ORDINAL="2006" NAME="?SetCaption@CUFButtonDecoration@@UAEXABV?$basic_string@_WU?$char_traits@_W@std@@V?$allocator@_W@2@@std@@HH@Z" PURGE="12" COMMENT="" />
    <EXPORT ORDINAL="2007" NAME="?SetCaption@CUFCheckBox@@UAEXABV?$basic_string@_WU?$char_traits@_W@std@@V?$allocator@_W@2@@std@@@Z" PURGE="4" COMMENT="" />
    <EXPORT ORDINAL="2008" NAME="?SetCaption@CUFOverlayButton@@UAEXABV?$basic_string@_WU?$char_traits@_W@std@@V?$allocator@_W@2@@std@@@Z" PURGE="4" COMMENT="" />
    <EXPORT ORDINAL="2009" NAME="?SetCaption@CUFRadioButton@@UAEXABV?$basic_string@_WU?$char_traits@_W@std@@V?$allocator@_W@2@@std@@@Z" PURGE="4" COMMENT="" />
    <EXPORT ORDINAL="2010" NAME="?SetCaption@CUFStateButton@@UAEXABV?$basic_string@_WU?$char_traits@_W@std@@V?$allocator@_W@2@@std@@@Z" PURGE="4" COMMENT="" />
    <EXPORT ORDINAL="2011" NAME="?SetCaptionAlignment@CUFButtonBase@@UAEXW4enumALIGNMENT@@@Z" PURGE="4" COMMENT="" />
    <EXPORT ORDINAL="2012" NAME="?SetCaptionAlignment@CUFButtonDecoration@@UAEXW4enumALIGNMENT@@@Z" PURGE="4" COMMENT="" />
    <EXPORT ORDINAL="2013" NAME="?SetCaptionOffset@CUFButtonDecoration@@UAEXM@Z" PURGE="4" COMMENT="" />
    <EXPORT ORDINAL="2014" NAME="?SetCaptionRTFormat@CUFButtonDecoration@@UAEXW4enumRTFORMATFLAG@@@Z" PURGE="4" COMMENT="" />
    <EXPORT ORDINAL="2015" NAME="?SetCaptionSize@CUFButtonDecoration@@UAEXM@Z" PURGE="4" COMMENT="" />
    <EXPORT ORDINAL="2016" NAME="?SetCaptionSizePt@CUFButtonDecoration@@UAEXM@Z" PURGE="4" COMMENT="" />
    <EXPORT ORDINAL="2017" NAME="?SetCapture@CUFWin32Window@@UAEXXZ" PURGE="0" COMMENT="" />
    <EXPORT ORDINAL="2018" NAME="?SetCaptureThumb@CUFRangeBase@@UAEX_N@Z" PURGE="4" COMMENT="" />
    <EXPORT ORDINAL="2019" NAME="?SetCaptureToElement@CUFEventManager@@QAEXPAVCUFElement@@@Z" PURGE="4" COMMENT="" />
    <EXPORT ORDINAL="2020" NAME="?SetCenter@CUFImage@@QAEX_N@Z" PURGE="4" COMMENT="" />
    <EXPORT ORDINAL="2021" NAME="?SetCheckIconPath@CUFListBoxItem@@QAEXABV?$basic_string@_WU?$char_traits@_W@std@@V?$allocator@_W@2@@std@@@Z" PURGE="4" COMMENT="" />
    <EXPORT ORDINAL="2022" NAME="?SetCheckIconPos@CUFListBoxItem@@QAEXMM@Z" PURGE="8" COMMENT="" />
    <EXPORT ORDINAL="2023" NAME="?SetCheckIconSize@CUFListBoxItem@@QAEXMM@Z" PURGE="8" COMMENT="" />
    <EXPORT ORDINAL="2024" NAME="?SetCheckMode@CUFRadioButton@@QAEXW4tagRADIOBUTTONCHECKMODEEnum@@@Z" PURGE="4" COMMENT="" />
    <EXPORT ORDINAL="2025" NAME="?SetChecked@CUFRadioButton@@QAEX_N@Z" PURGE="4" COMMENT="" />
    <EXPORT ORDINAL="2026" NAME="?SetChecked@CUFStateButton@@QAEX_N@Z" PURGE="4" COMMENT="" />
    <EXPORT ORDINAL="2027" NAME="?SetChecked@CUFToggleButton@@QAEX_N@Z" PURGE="4" COMMENT="" />
    <EXPORT ORDINAL="2028" NAME="?SetCheckedImage@CUFCheckBox@@UAEXABVCUFBackImage@@@Z" PURGE="4" COMMENT="" />
    <EXPORT ORDINAL="2029" NAME="?SetCheckedImage@CUFRadioButton@@UAEXABVCUFBackImage@@@Z" PURGE="4" COMMENT="" />
    <EXPORT ORDINAL="2030" NAME="?SetCheckedImage@CUFStateButton@@UAEXABVCUFBackImage@@@Z" PURGE="4" COMMENT="" />
    <EXPORT ORDINAL="2031" NAME="?SetClip@CUFLineMeta@@EAEX_N@Z" PURGE="4" COMMENT="" />
    <EXPORT ORDINAL="2032" NAME="?SetClip@CUFMetaBase@@UAEX_N@Z" PURGE="4" COMMENT="" />
    <EXPORT ORDINAL="2033" NAME="?SetClipInheritable@CUFElement@@UAEX_N@Z" PURGE="4" COMMENT="" />
    <EXPORT ORDINAL="2034" NAME="?SetClipRect@CUFDWriteFont@@UAEXPBUD2D_RECT_F@@@Z" PURGE="4" COMMENT="" />
    <EXPORT ORDINAL="2035" NAME="?SetClipRect@CUFImageMeta@@UAEXABUtagUFRECTF_t@@@Z" PURGE="4" COMMENT="" />
    <EXPORT ORDINAL="2036" NAME="?SetClipRect@CUFLineMeta@@EAEXABUtagUFRECTF_t@@_N@Z" PURGE="8" COMMENT="" />
    <EXPORT ORDINAL="2037" NAME="?SetClipRect@CUFMetaBase@@UAEXABUtagUFRECTF_t@@_N@Z" PURGE="8" COMMENT="" />
    <EXPORT ORDINAL="2038" NAME="?SetClipRect@CUFTextMeta@@QAEXPBUtagUFRECTF_t@@@Z" PURGE="4" COMMENT="" />
    <EXPORT ORDINAL="2039" NAME="?SetColor@CUFEllipse@@QAEXEEE@Z" PURGE="12" COMMENT="" />
    <EXPORT ORDINAL="2040" NAME="?SetColor@CUFLineMeta@@EAEXK@Z" PURGE="4" COMMENT="" />
    <EXPORT ORDINAL="2041" NAME="?SetColor@CUFMetaBase@@UAEXK@Z" PURGE="4" COMMENT="" />
    <EXPORT ORDINAL="2042" NAME="?SetColor@CUFRectMeta@@UAEXK@Z" PURGE="4" COMMENT="" />
    <EXPORT ORDINAL="2043" NAME="?SetColor@CUFRectangle@@QAEXEEE@Z" PURGE="12" COMMENT="" />
    <EXPORT ORDINAL="2044" NAME="?SetColor@CUFTextMeta@@UAEXK@Z" PURGE="4" COMMENT="" />
    <EXPORT ORDINAL="2045" NAME="?SetColor@CUFTriangleMeta@@UAEXK@Z" PURGE="4" COMMENT="" />
    <EXPORT ORDINAL="2046" NAME="?SetContentPosX@CUFMenuItem@@QAEXM@Z" PURGE="4" COMMENT="" />
    <EXPORT ORDINAL="2047" NAME="?SetContentPtr@CUFButtonBase@@MAEXPAVCUFElement@@@Z" PURGE="4" COMMENT="" />
    <EXPORT ORDINAL="2048" NAME="?SetContentPtr@CUFContentControl@@UAEXPAVCUFElement@@@Z" PURGE="4" COMMENT="" />
    <EXPORT ORDINAL="2049" NAME="?SetContentPtr@CUFItemControl@@UAEXPAVCUFElement@@@Z" PURGE="4" COMMENT="" />
    <EXPORT ORDINAL="2050" NAME="?SetContentPtr@CUFMenuItem@@UAEXPAVCUFElement@@@Z" PURGE="4" COMMENT="" />
    <EXPORT ORDINAL="2051" NAME="?SetContentPtr@CUFThumb@@UAEXPAVCUFElement@@@Z" PURGE="4" COMMENT="" />
    <EXPORT ORDINAL="2052" NAME="?SetControlParentFlag@CUFControl@@UAEX_N@Z" PURGE="4" COMMENT="" />
    <EXPORT ORDINAL="2053" NAME="?SetCornerImagePath@CUFScrollViewer@@QAEXABV?$basic_string@_WU?$char_traits@_W@std@@V?$allocator@_W@2@@std@@@Z" PURGE="4" COMMENT="" />
    <EXPORT ORDINAL="2054" NAME="?SetCurPos@CUFDxSound@@UAEJK@Z" PURGE="4" COMMENT="" />
    <EXPORT ORDINAL="2055" NAME="?SetCurPos@CUFSound@@UAEJK@Z" PURGE="4" COMMENT="" />
    <EXPORT ORDINAL="2056" NAME="?SetCurSelIndex@CUFListBox@@QAEXH_N@Z" PURGE="8" COMMENT="" />
    <EXPORT ORDINAL="2057" NAME="?SetCursor@CUFPlatformHelper@@SAPAXPAX@Z" PURGE="0" COMMENT="" />
    <EXPORT ORDINAL="2058" NAME="?SetCursorPic@CUFEditText@@QAEXHPAX@Z" PURGE="8" COMMENT="" />
    <EXPORT ORDINAL="2059" NAME="?SetCursorPicPath@CUFEditText@@QAEXABV?$basic_string@_WU?$char_traits@_W@std@@V?$allocator@_W@2@@std@@@Z" PURGE="4" COMMENT="" />
    <EXPORT ORDINAL="2060" NAME="?SetCursorPos@CUFEditText@@AAEXXZ" PURGE="0" COMMENT="" />
    <EXPORT ORDINAL="2061" NAME="?SetD2DRenderTarget@CUFDWriteFont@@SAXPAUID2D1RenderTarget@@@Z" PURGE="0" COMMENT="" />
    <EXPORT ORDINAL="2062" NAME="?SetDecorationImage@CUFButtonDecoration@@QAEXPBUtagDECORATIONIMAGE_t@@@Z" PURGE="4" COMMENT="" />
    <EXPORT ORDINAL="2063" NAME="?SetDecreaseButtonImage@CUFRangeBase@@UAEXABVCUFBackImage@@00@Z" PURGE="12" COMMENT="" />
    <EXPORT ORDINAL="2064" NAME="?SetDecreaseButtonImage@CUFRangeBaseStyle@@QAEXABVCUFBackImage@@00@Z" PURGE="12" COMMENT="" />
    <EXPORT ORDINAL="2065" NAME="?SetDecreaseImageSlice@CUFRangeBase@@QAEXMM@Z" PURGE="8" COMMENT="" />
    <EXPORT ORDINAL="2066" NAME="?SetDecreaseImageSlice@CUFRangeBaseStyle@@QAEXMM@Z" PURGE="8" COMMENT="" />
    <EXPORT ORDINAL="2067" NAME="?SetDefaultBackground@CUFRangeBase@@UAEXXZ" PURGE="0" COMMENT="" />
    <EXPORT ORDINAL="2068" NAME="?SetDefaultFontName@IUFFont@@SAXAAV?$basic_string@_WU?$char_traits@_W@std@@V?$allocator@_W@2@@std@@@Z" PURGE="0" COMMENT="" />
    <EXPORT ORDINAL="2069" NAME="?SetDefaultText@CUFEditText@@QAEXABV?$basic_string@_WU?$char_traits@_W@std@@V?$allocator@_W@2@@std@@@Z" PURGE="4" COMMENT="" />
    <EXPORT ORDINAL="2070" NAME="?SetDefaultTextSelected@CUFEditText@@QAEXXZ" PURGE="0" COMMENT="" />
    <EXPORT ORDINAL="2071" NAME="?SetDelAllAnimation@CUFAnimationManager@@QAEXXZ" PURGE="0" COMMENT="" />
    <EXPORT ORDINAL="2072" NAME="?SetDesignInfo@CUFWin32Window@@UAE_NMM_N@Z" PURGE="12" COMMENT="" />
    <EXPORT ORDINAL="2073" NAME="?SetDesignInfo@IUFWindow@@UAE_NMM_N@Z" PURGE="12" COMMENT="" />
    <EXPORT ORDINAL="2074" NAME="?SetDetentionTime@CUFAnimation@@QAEXJ@Z" PURGE="4" COMMENT="" />
    <EXPORT ORDINAL="2075" NAME="?SetDevice@CUFDx10MetaProperty@@QAEXPAVCUFDx10Device@@@Z" PURGE="4" COMMENT="" />
    <EXPORT ORDINAL="2076" NAME="?SetDisableResId@CUFBackImage@@QAEXH@Z" PURGE="4" COMMENT="" />
    <EXPORT ORDINAL="2077" NAME="?SetDisplayRect@CUFToolTip@@QAEXABUtagUFRECTF_t@@@Z" PURGE="4" COMMENT="" />
    <EXPORT ORDINAL="2078" NAME="?SetDownButtonImage@CUFDLSliderBar@@UAEXAAVCUFBackImage@@@Z" PURGE="-1" COMMENT="" />
    <EXPORT ORDINAL="2079" NAME="?SetDownResId@CUFBackImage@@QAEXH@Z" PURGE="4" COMMENT="" />
    <EXPORT ORDINAL="2080" NAME="?SetDownStartEndValue@CUFDLSliderBar@@UAEXMM@Z" PURGE="8" COMMENT="" />
    <EXPORT ORDINAL="2081" NAME="?SetDrawRect@CUFElement@@UAEXABUtagUFRECTF_t@@@Z" PURGE="4" COMMENT="" />
    <EXPORT ORDINAL="2082" NAME="?SetDrawRect@CUFText@@UAEXABUtagUFRECTF_t@@@Z" PURGE="4" COMMENT="" />
    <EXPORT ORDINAL="2083" NAME="?SetDrawType@CUFDWriteText@@UAEXW4enumTEXT_DRAWTYPE@@@Z" PURGE="4" COMMENT="" />
    <EXPORT ORDINAL="2084" NAME="?SetDrawType@CUFDx9Text@@UAEXW4enumTEXT_DRAWTYPE@@@Z" PURGE="4" COMMENT="" />
    <EXPORT ORDINAL="2085" NAME="?SetDrawType@CUFEllipse@@QAEXW4enumMETA_DRAWTYPE@@@Z" PURGE="4" COMMENT="" />
    <EXPORT ORDINAL="2086" NAME="?SetDrawType@CUFMetaBase@@UAEXW4enumMETA_DRAWTYPE@@@Z" PURGE="4" COMMENT="" />
    <EXPORT ORDINAL="2087" NAME="?SetDrawType@CUFRectangle@@QAEXW4enumMETA_DRAWTYPE@@@Z" PURGE="4" COMMENT="" />
    <EXPORT ORDINAL="2088" NAME="?SetDrawType@CUFText@@UAEXW4enumTEXT_DRAWTYPE@@@Z" PURGE="4" COMMENT="" />
    <EXPORT ORDINAL="2089" NAME="?SetDrawType@CUFTextMeta@@QAEXW4enumTEXT_DRAWTYPE@@@Z" PURGE="4" COMMENT="" />
    <EXPORT ORDINAL="2090" NAME="?SetDrawType@CUFTriangle@@QAEXW4enumMETA_DRAWTYPE@@@Z" PURGE="-1" COMMENT="" />
    <EXPORT ORDINAL="2091" NAME="?SetDropDownBKCanvas@CUFComboBoxDropDown@@QAEXPAVCUFControl@@@Z" PURGE="4" COMMENT="" />
    <EXPORT ORDINAL="2092" NAME="?SetDropDownBKImgOffset@CUFComboBox@@QAEXMM@Z" PURGE="8" COMMENT="" />
    <EXPORT ORDINAL="2093" NAME="?SetDropDownBKImgOffset@CUFComboBoxDropDown@@QAEXMM@Z" PURGE="8" COMMENT="" />
    <EXPORT ORDINAL="2094" NAME="?SetDropDownBKImgSizeAdjust@CUFComboBox@@QAEXMM@Z" PURGE="8" COMMENT="" />
    <EXPORT ORDINAL="2095" NAME="?SetDropDownBKImgSizeAdjust@CUFComboBoxDropDown@@QAEXMM@Z" PURGE="8" COMMENT="" />
    <EXPORT ORDINAL="2096" NAME="?SetDropDownBackImage@CUFComboBox@@QAEXAAVCUFBackImage@@@Z" PURGE="4" COMMENT="" />
    <EXPORT ORDINAL="2097" NAME="?SetDropDownChildOffset@CUFComboBox@@QAEXMM@Z" PURGE="8" COMMENT="" />
    <EXPORT ORDINAL="2098" NAME="?SetDropDownHeight@CUFComboBox@@QAEXM@Z" PURGE="4" COMMENT="" />
    <EXPORT ORDINAL="2099" NAME="?SetDropDownOffset@CUFComboBox@@QAEXM@Z" PURGE="4" COMMENT="" />
    <EXPORT ORDINAL="2100" NAME="?SetDropDownPresenterOffset@CUFComboBox@@QAEXMM@Z" PURGE="8" COMMENT="" />
    <EXPORT ORDINAL="2101" NAME="?SetDropDownSeparator@CUFComboBox@@QAEXM@Z" PURGE="4" COMMENT="" />
    <EXPORT ORDINAL="2102" NAME="?SetDropDownVBarStyle@CUFComboBox@@QAEXAAVCUFScrollBarStyle@@@Z" PURGE="4" COMMENT="" />
    <EXPORT ORDINAL="2103" NAME="?SetDropDownWidth@CUFComboBox@@QAEXM@Z" PURGE="4" COMMENT="" />
    <EXPORT ORDINAL="2104" NAME="?SetDynamicPicture@CUFImage@@QAE_NPAXPAUtagTEXTUREINFO_t@@@Z" PURGE="8" COMMENT="" />
    <EXPORT ORDINAL="2105" NAME="?SetDynamicPicture@CUFImageMeta@@QAE_NPAXPAUtagTEXTUREINFO_t@@@Z" PURGE="8" COMMENT="" />
    <EXPORT ORDINAL="2106" NAME="?SetEditCursorPicPath@CUFComboBox@@QAEXABV?$basic_string@_WU?$char_traits@_W@std@@V?$allocator@_W@2@@std@@@Z" PURGE="4" COMMENT="" />
    <EXPORT ORDINAL="2107" NAME="?SetEditTextAlignment@CUFComboBox@@QAEXW4enumALIGNMENT@@@Z" PURGE="4" COMMENT="" />
    <EXPORT ORDINAL="2108" NAME="?SetEditTextPos@CUFComboBox@@QAEXMM@Z" PURGE="8" COMMENT="" />
    <EXPORT ORDINAL="2109" NAME="?SetEditable@CUFComboBox@@QAEX_N@Z" PURGE="4" COMMENT="" />
    <EXPORT ORDINAL="2110" NAME="?SetElementHeight@CUFWrapPanel@@QAEXM@Z" PURGE="4" COMMENT="" />
    <EXPORT ORDINAL="2111" NAME="?SetElementWidth@CUFWrapPanel@@QAEXM@Z" PURGE="4" COMMENT="" />
    <EXPORT ORDINAL="2112" NAME="?SetFC@CUFEditText@@QAEXEEEE@Z" PURGE="16" COMMENT="" />
    <EXPORT ORDINAL="2113" NAME="?SetFPS@IUFWindow@@UAEXM@Z" PURGE="4" COMMENT="" />
    <EXPORT ORDINAL="2114" NAME="?SetFirstClickIntervalRatio@CUFRepeatButton@@QAEXM@Z" PURGE="4" COMMENT="" />
    <EXPORT ORDINAL="2115" NAME="?SetFocus@CUFPlatformHelper@@SAXXZ" PURGE="0" COMMENT="" />
    <EXPORT ORDINAL="2116" NAME="?SetFocusImage@CUFRangeBase@@UAEXABVCUFBackImage@@@Z" PURGE="4" COMMENT="" />
    <EXPORT ORDINAL="2117" NAME="?SetFocusLayer@CUFLayerManager@@AAEXPAVCUFLayer@@@Z" PURGE="4" COMMENT="" />
    <EXPORT ORDINAL="2118" NAME="?SetFocusedResId@CUFBackImage@@QAEXH@Z" PURGE="4" COMMENT="" />
    <EXPORT ORDINAL="2119" NAME="?SetFont@CUFControl@@UAEXPAVIUFFont@@@Z" PURGE="4" COMMENT="" />
    <EXPORT ORDINAL="2120" NAME="?SetFont@CUFDWriteText@@UAE_NPAVIUFFont@@@Z" PURGE="4" COMMENT="" />
    <EXPORT ORDINAL="2121" NAME="?SetFont@CUFDx9Text@@QAE_NPAVIUFFont@@@Z" PURGE="4" COMMENT="" />
    <EXPORT ORDINAL="2122" NAME="?SetFont@CUFTextMeta@@QAE_NPAVIUFFont@@@Z" PURGE="4" COMMENT="" />
    <EXPORT ORDINAL="2123" NAME="?SetFontColor@CUFButton@@UAEXABUtagColor_t@@@Z" PURGE="4" COMMENT="" />
    <EXPORT ORDINAL="2124" NAME="?SetFontColor@CUFButtonBase@@UAEXABUtagColor_t@@@Z" PURGE="4" COMMENT="" />
    <EXPORT ORDINAL="2125" NAME="?SetFontColor@CUFButtonDecoration@@UAEXABUtagColor_t@@@Z" PURGE="4" COMMENT="" />
    <EXPORT ORDINAL="2126" NAME="?SetFontColor@CUFControl@@MAEXABUtagColor_t@@@Z" PURGE="4" COMMENT="" />
    <EXPORT ORDINAL="2127" NAME="?SetFontColor@CUFControl@@MAEXEEEE@Z" PURGE="16" COMMENT="" />
    <EXPORT ORDINAL="2128" NAME="?SetFontColor@CUFDWriteText@@UAEXABUtagColor_t@@@Z" PURGE="4" COMMENT="" />
    <EXPORT ORDINAL="2129" NAME="?SetFontColor@CUFDWriteText@@UAEXEEE@Z" PURGE="12" COMMENT="" />
    <EXPORT ORDINAL="2130" NAME="?SetFontColor@CUFDWriteText@@UAEXEEEE@Z" PURGE="16" COMMENT="" />
    <EXPORT ORDINAL="2131" NAME="?SetFontColor@CUFDx9Text@@UAEXABUtagColor_t@@@Z" PURGE="4" COMMENT="" />
    <EXPORT ORDINAL="2132" NAME="?SetFontColor@CUFDx9Text@@UAEXEEE@Z" PURGE="12" COMMENT="" />
    <EXPORT ORDINAL="2133" NAME="?SetFontColor@CUFDx9Text@@UAEXEEEE@Z" PURGE="16" COMMENT="" />
    <EXPORT ORDINAL="2134" NAME="?SetFontColor@CUFItemControl@@UAEXEEE@Z" PURGE="12" COMMENT="" />
    <EXPORT ORDINAL="2135" NAME="?SetFontColor@CUFOverlayButton@@UAEXABUtagColor_t@@@Z" PURGE="4" COMMENT="" />
    <EXPORT ORDINAL="2136" NAME="?SetFontColor@CUFText@@UAEXABUtagColor_t@@@Z" PURGE="4" COMMENT="" />
    <EXPORT ORDINAL="2137" NAME="?SetFontColor@CUFText@@UAEXEEE@Z" PURGE="12" COMMENT="" />
    <EXPORT ORDINAL="2138" NAME="?SetFontColor@CUFText@@UAEXEEEE@Z" PURGE="16" COMMENT="" />
    <EXPORT ORDINAL="2139" NAME="?SetFontDisableColor@CUFFontStyle@@QAEXABUtagColor_t@@@Z" PURGE="4" COMMENT="" />
    <EXPORT ORDINAL="2140" NAME="?SetFontDownColor@CUFFontStyle@@QAEXABUtagColor_t@@@Z" PURGE="4" COMMENT="" />
    <EXPORT ORDINAL="2141" NAME="?SetFontFocusColor@CUFFontStyle@@QAEXABUtagColor_t@@@Z" PURGE="4" COMMENT="" />
    <EXPORT ORDINAL="2142" NAME="?SetFontName@CUFControl@@UAEXABV?$basic_string@_WU?$char_traits@_W@std@@V?$allocator@_W@2@@std@@0@Z" PURGE="8" COMMENT="" />
    <EXPORT ORDINAL="2143" NAME="?SetFontName@CUFDWriteText@@UAE_NABV?$basic_string@_WU?$char_traits@_W@std@@V?$allocator@_W@2@@std@@0@Z" PURGE="8" COMMENT="" />
    <EXPORT ORDINAL="2144" NAME="?SetFontName@CUFDx9Text@@UAE_NABV?$basic_string@_WU?$char_traits@_W@std@@V?$allocator@_W@2@@std@@0@Z" PURGE="8" COMMENT="" />
    <EXPORT ORDINAL="2145" NAME="?SetFontName@CUFText@@UAE_NABV?$basic_string@_WU?$char_traits@_W@std@@V?$allocator@_W@2@@std@@0@Z" PURGE="8" COMMENT="" />
    <EXPORT ORDINAL="2146" NAME="?SetFontNormalColor@CUFFontStyle@@QAEXABUtagColor_t@@@Z" PURGE="4" COMMENT="" />
    <EXPORT ORDINAL="2147" NAME="?SetFontOverColor@CUFFontStyle@@QAEXABUtagColor_t@@@Z" PURGE="4" COMMENT="" />
    <EXPORT ORDINAL="2148" NAME="?SetFontScale@CUFDWriteFont@@UAEXM@Z" PURGE="4" COMMENT="" />
    <EXPORT ORDINAL="2149" NAME="?SetFontScale@CUFDxFont@@UAEXM@Z" PURGE="4" COMMENT="" />
    <EXPORT ORDINAL="2150" NAME="?SetFontScale@CUFTextMeta@@QAEXM@Z" PURGE="4" COMMENT="" />
    <EXPORT ORDINAL="2151" NAME="?SetFontSize@CUFControl@@UAEXM@Z" PURGE="4" COMMENT="" />
    <EXPORT ORDINAL="2152" NAME="?SetFontSize@CUFDWriteText@@UAE_NM@Z" PURGE="4" COMMENT="" />
    <EXPORT ORDINAL="2153" NAME="?SetFontSize@CUFDx9Text@@UAE_NM@Z" PURGE="4" COMMENT="" />
    <EXPORT ORDINAL="2154" NAME="?SetFontSize@CUFEditText@@UAEXM@Z" PURGE="4" COMMENT="" />
    <EXPORT ORDINAL="2155" NAME="?SetFontSize@CUFText@@UAE_NM@Z" PURGE="4" COMMENT="" />
    <EXPORT ORDINAL="2156" NAME="?SetFontSizePt@CUFControl@@UAEXM@Z" PURGE="4" COMMENT="" />
    <EXPORT ORDINAL="2157" NAME="?SetFontSizePt@CUFEditText@@UAEXM@Z" PURGE="4" COMMENT="" />
    <EXPORT ORDINAL="2158" NAME="?SetFontSizePt@CUFText@@UAE_NM@Z" PURGE="4" COMMENT="" />
    <EXPORT ORDINAL="2159" NAME="?SetFontStyle@CUFButton@@UAEXPAVCUFFontStyle@@@Z" PURGE="4" COMMENT="" />
    <EXPORT ORDINAL="2160" NAME="?SetFontStyle@CUFButtonDecoration@@UAEXPBVCUFFontStyle@@@Z" PURGE="4" COMMENT="" />
    <EXPORT ORDINAL="2161" NAME="?SetFontStyle@CUFDWriteText@@UAEXW4enumFONTSTYLE@@@Z" PURGE="4" COMMENT="" />
    <EXPORT ORDINAL="2162" NAME="?SetFontStyle@CUFDx9Text@@UAEXW4enumFONTSTYLE@@@Z" PURGE="4" COMMENT="" />
    <EXPORT ORDINAL="2163" NAME="?SetFontStyle@CUFItemControl@@UAEXW4enumFONTSTYLE@@@Z" PURGE="4" COMMENT="" />
    <EXPORT ORDINAL="2164" NAME="?SetFontStyle@CUFOverlayButton@@UAEXABVCUFFontStyle@@@Z" PURGE="4" COMMENT="" />
    <EXPORT ORDINAL="2165" NAME="?SetFontStyle@CUFText@@UAEXW4enumFONTSTYLE@@@Z" PURGE="4" COMMENT="" />
    <EXPORT ORDINAL="2166" NAME="?SetForeGround@CUFButton@@UAEXEEE@Z" PURGE="12" COMMENT="" />
    <EXPORT ORDINAL="2167" NAME="?SetForeGround@CUFButtonBase@@UAEXEEE@Z" PURGE="12" COMMENT="" />
    <EXPORT ORDINAL="2168" NAME="?SetForeGround@CUFControl@@UAEXEEE@Z" PURGE="12" COMMENT="" />
    <EXPORT ORDINAL="2169" NAME="?SetGestureConfig@CUFPlatformHelper@@SA_NIPAUtagUFGESTURECONFIG_t@@K@Z" PURGE="0" COMMENT="" />
    <EXPORT ORDINAL="2170" NAME="?SetGradientEffect@CUFDWriteFont@@QAEXABUtagUFGRADIENTEFFECT_t@@@Z" PURGE="4" COMMENT="" />
    <EXPORT ORDINAL="2171" NAME="?SetGradientEffect@CUFDWriteText@@UAEXAAUtagUFGRADIENTEFFECT_t@@@Z" PURGE="4" COMMENT="" />
    <EXPORT ORDINAL="2172" NAME="?SetGradientEffect@CUFDx9Text@@UAEXAAUtagUFGRADIENTEFFECT_t@@@Z" PURGE="4" COMMENT="" />
    <EXPORT ORDINAL="2173" NAME="?SetGradientEffect@CUFText@@UAEXAAUtagUFGRADIENTEFFECT_t@@@Z" PURGE="4" COMMENT="" />
    <EXPORT ORDINAL="2174" NAME="?SetGradientEffect@CUFTextMeta@@QAEXAAUtagUFGRADIENTEFFECT_t@@@Z" PURGE="4" COMMENT="" />
    <EXPORT ORDINAL="2175" NAME="?SetGradientEffect@IUFFont@@UAEXAAUtagUFGRADIENTEFFECT_t@@@Z" PURGE="4" COMMENT="" />
    <EXPORT ORDINAL="2176" NAME="?SetHF9ImageID@CUFHFPicContainer@@QAE_NABUtagUFTEXTURE_ID_t@@@Z" PURGE="4" COMMENT="" />
    <EXPORT ORDINAL="2177" NAME="?SetHF9ImagePath@CUFHFPicContainer@@QAE_NABUtagUFSTRPIC_PATH_t@@@Z" PURGE="4" COMMENT="" />
    <EXPORT ORDINAL="2178" NAME="?SetHScrollBarVisibility@CUFScrollViewer@@QAEXW4enumSCROLLBARVISIBILITY@@@Z" PURGE="4" COMMENT="" />
    <EXPORT ORDINAL="2179" NAME="?SetHScrollBarVisible@CUFListBox@@QAEXW4enumSCROLLBARVISIBILITY@@@Z" PURGE="4" COMMENT="" />
    <EXPORT ORDINAL="2180" NAME="?SetHScrollbarPos@CUFScrollViewer@@QAEXMM@Z" PURGE="8" COMMENT="" />
    <EXPORT ORDINAL="2181" NAME="?SetHeight@CUFButton@@UAEXM@Z" PURGE="4" COMMENT="" />
    <EXPORT ORDINAL="2182" NAME="?SetHeight@CUFButtonBase@@UAEXM@Z" PURGE="4" COMMENT="" />
    <EXPORT ORDINAL="2183" NAME="?SetHeight@CUFButtonDecoration@@UAEXM@Z" PURGE="4" COMMENT="" />
    <EXPORT ORDINAL="2184" NAME="?SetHeight@CUFComboBox@@MAEXM@Z" PURGE="4" COMMENT="" />
    <EXPORT ORDINAL="2185" NAME="?SetHeight@CUFComboBoxDropDown@@QAEXMM@Z" PURGE="8" COMMENT="" />
    <EXPORT ORDINAL="2186" NAME="?SetHeight@CUFDecorateButton@@UAEXM@Z" PURGE="4" COMMENT="" />
    <EXPORT ORDINAL="2187" NAME="?SetHeight@CUFEditText@@UAEXM@Z" PURGE="4" COMMENT="" />
    <EXPORT ORDINAL="2188" NAME="?SetHeight@CUFElement@@UAEXM@Z" PURGE="4" COMMENT="" />
    <EXPORT ORDINAL="2189" NAME="?SetHeight@CUFLayer@@UAEXM@Z" PURGE="4" COMMENT="" />
    <EXPORT ORDINAL="2190" NAME="?SetHeight@CUFLine@@EAEXM@Z" PURGE="4" COMMENT="" />
    <EXPORT ORDINAL="2191" NAME="?SetHeight@CUFPanel@@UAEXM@Z" PURGE="4" COMMENT="" />
    <EXPORT ORDINAL="2192" NAME="?SetHeight@CUFRangeBaseStyle@@QAEXM@Z" PURGE="4" COMMENT="" />
    <EXPORT ORDINAL="2193" NAME="?SetHeight@CUFScrollViewer@@UAEXM@Z" PURGE="4" COMMENT="" />
    <EXPORT ORDINAL="2194" NAME="?SetHeight@CUFStateButton@@UAEXM@Z" PURGE="4" COMMENT="" />
    <EXPORT ORDINAL="2195" NAME="?SetHeight@CUFText@@UAEXM@Z" PURGE="4" COMMENT="" />
    <EXPORT ORDINAL="2196" NAME="?SetHeight@CUFWinChildPanel@@UAEXM@Z" PURGE="4" COMMENT="" />
    <EXPORT ORDINAL="2197" NAME="?SetHeight@CUFWndPanel@@UAEXM@Z" PURGE="4" COMMENT="" />
    <EXPORT ORDINAL="2198" NAME="?SetHorizontalOffset@CUFScrollViewer@@UAEXM@Z" PURGE="4" COMMENT="" />
    <EXPORT ORDINAL="2199" NAME="?SetHorizontalScrollBarStyle@CUFListBox@@QAEXPAVCUFScrollBarStyle@@@Z" PURGE="4" COMMENT="" />
    <EXPORT ORDINAL="2200" NAME="?SetHorizontalScrollBarStyle@CUFScrollViewer@@QAEXPAVCUFScrollBarStyle@@@Z" PURGE="-1" COMMENT="" />
    <EXPORT ORDINAL="2201" NAME="?SetHorizontalSeparator@CUFWrapPanel@@QAEXM@Z" PURGE="4" COMMENT="" />
    <EXPORT ORDINAL="2202" NAME="?SetHostPtr@CUFPopUp@@UAEXPAVCUFElement@@@Z" PURGE="4" COMMENT="" />
    <EXPORT ORDINAL="2203" NAME="?SetHostPtr@CUFWCPMenu@@QAEXPAVCUFElement@@@Z" PURGE="4" COMMENT="" />
    <EXPORT ORDINAL="2204" NAME="?SetIMEState@CUFWin32Window@@UAEX_N@Z" PURGE="4" COMMENT="" />
    <EXPORT ORDINAL="2205" NAME="?SetIcon@CUFMenuItem@@QAEXABV?$basic_string@_WU?$char_traits@_W@std@@V?$allocator@_W@2@@std@@@Z" PURGE="4" COMMENT="" />
    <EXPORT ORDINAL="2206" NAME="?SetIcon@CUFMenuItem@@QAEXHPAX@Z" PURGE="8" COMMENT="" />
    <EXPORT ORDINAL="2207" NAME="?SetIconPos@CUFMenuItem@@QAEXMM@Z" PURGE="8" COMMENT="" />
    <EXPORT ORDINAL="2208" NAME="?SetIconSize@CUFMenuItem@@QAEXMM@Z" PURGE="8" COMMENT="" />
    <EXPORT ORDINAL="2209" NAME="?SetImageSlice@CUFButtonDecoration@@QAEXMM@Z" PURGE="8" COMMENT="" />
    <EXPORT ORDINAL="2210" NAME="?SetImgDown@CUFBackImage@@QAEXABV?$basic_string@_WU?$char_traits@_W@std@@V?$allocator@_W@2@@std@@@Z" PURGE="-1" COMMENT="" />
    <EXPORT ORDINAL="2211" NAME="?SetImgFocused@CUFBackImage@@QAEXABV?$basic_string@_WU?$char_traits@_W@std@@V?$allocator@_W@2@@std@@@Z" PURGE="-1" COMMENT="" />
    <EXPORT ORDINAL="2212" NAME="?SetImgNormal@CUFBackImage@@QAEXABV?$basic_string@_WU?$char_traits@_W@std@@V?$allocator@_W@2@@std@@@Z" PURGE="-1" COMMENT="" />
    <EXPORT ORDINAL="2213" NAME="?SetImgOver@CUFBackImage@@QAEXABV?$basic_string@_WU?$char_traits@_W@std@@V?$allocator@_W@2@@std@@@Z" PURGE="-1" COMMENT="" />
    <EXPORT ORDINAL="2214" NAME="?SetImgUnEnbaled@CUFBackImage@@QAEXABV?$basic_string@_WU?$char_traits@_W@std@@V?$allocator@_W@2@@std@@@Z" PURGE="-1" COMMENT="" />
    <EXPORT ORDINAL="2215" NAME="?SetIncreaseButtonImage@CUFRangeBase@@UAEXABVCUFBackImage@@00@Z" PURGE="12" COMMENT="" />
    <EXPORT ORDINAL="2216" NAME="?SetIncreaseButtonImage@CUFRangeBaseStyle@@QAEXABVCUFBackImage@@00@Z" PURGE="12" COMMENT="" />
    <EXPORT ORDINAL="2217" NAME="?SetIncreaseImageSlice@CUFRangeBase@@QAEXMM@Z" PURGE="8" COMMENT="" />
    <EXPORT ORDINAL="2218" NAME="?SetIncreaseImageSlice@CUFRangeBaseStyle@@QAEXMM@Z" PURGE="8" COMMENT="" />
    <EXPORT ORDINAL="2219" NAME="?SetInitCursorMargin@CUFEditText@@UAEXM@Z" PURGE="4" COMMENT="" />
    <EXPORT ORDINAL="2220" NAME="?SetInterval@CUFRepeatButton@@QAEXH@Z" PURGE="4" COMMENT="" />
    <EXPORT ORDINAL="2221" NAME="?SetInterval@CUFTimer@@QAEXK@Z" PURGE="4" COMMENT="" />
    <EXPORT ORDINAL="2222" NAME="?SetIsEnableMoveToPoint@CUFSliderBarStyle@@QAEX_N@Z" PURGE="4" COMMENT="" />
    <EXPORT ORDINAL="2223" NAME="?SetIsEnableThumbOutTrack@CUFSliderBarStyle@@QAEX_N@Z" PURGE="4" COMMENT="" />
    <EXPORT ORDINAL="2224" NAME="?SetIsSnapToTick@CUFSliderBarStyle@@QAEX_N@Z" PURGE="4" COMMENT="" />
    <EXPORT ORDINAL="2225" NAME="?SetIsStaysOpen@CUFToolTip@@QAEX_N@Z" PURGE="4" COMMENT="" />
    <EXPORT ORDINAL="2226" NAME="?SetItemAlignment@CUFComboBox@@QAEXW4enumALIGNMENT@@@Z" PURGE="4" COMMENT="" />
    <EXPORT ORDINAL="2227" NAME="?SetItemBKImgHorizontalOffset@CUFComboBoxItem@@QAEXM@Z" PURGE="4" COMMENT="" />
    <EXPORT ORDINAL="2228" NAME="?SetItemBKImgVerticalOffset@CUFComboBoxItem@@QAEXM@Z" PURGE="4" COMMENT="" />
    <EXPORT ORDINAL="2229" NAME="?SetItemBackImage@CUFComboBox@@QAEXAAVCUFBackImage@@@Z" PURGE="4" COMMENT="" />
    <EXPORT ORDINAL="2230" NAME="?SetItemBackImage@CUFComboBoxDropDown@@QAEXAAVCUFBackImage@@@Z" PURGE="4" COMMENT="" />
    <EXPORT ORDINAL="2231" NAME="?SetItemContainerOffset@CUFMenu@@QAEXMM@Z" PURGE="8" COMMENT="" />
    <EXPORT ORDINAL="2232" NAME="?SetItemContainerSeparation@CUFMenu@@QAEXM@Z" PURGE="4" COMMENT="" />
    <EXPORT ORDINAL="2233" NAME="?SetItemFontColor@CUFComboBox@@QAEXEEE@Z" PURGE="12" COMMENT="" />
    <EXPORT ORDINAL="2234" NAME="?SetItemFontName@CUFComboBox@@QAEXABV?$basic_string@_WU?$char_traits@_W@std@@V?$allocator@_W@2@@std@@@Z" PURGE="4" COMMENT="" />
    <EXPORT ORDINAL="2235" NAME="?SetItemFontSize@CUFComboBox@@QAEXM@Z" PURGE="4" COMMENT="" />
    <EXPORT ORDINAL="2236" NAME="?SetItemFontSizePt@CUFComboBox@@QAEXM@Z" PURGE="4" COMMENT="" />
    <EXPORT ORDINAL="2237" NAME="?SetItemFontStyle@CUFComboBox@@QAEXW4enumFONTSTYLE@@@Z" PURGE="4" COMMENT="" />
    <EXPORT ORDINAL="2238" NAME="?SetItemHeight@CUFComboBox@@QAEXM@Z" PURGE="4" COMMENT="" />
    <EXPORT ORDINAL="2239" NAME="?SetItemIndex@CUFItemControl@@QAEXH@Z" PURGE="4" COMMENT="" />
    <EXPORT ORDINAL="2240" NAME="?SetItemSizeOffset@CUFComboBox@@QAEXM@Z" PURGE="4" COMMENT="" />
    <EXPORT ORDINAL="2241" NAME="?SetKeyTime@CUFKeyFrame@@QAEXJ@Z" PURGE="4" COMMENT="" />
    <EXPORT ORDINAL="2242" NAME="?SetKeyValue@CUFKeyFrame@@QAEXM@Z" PURGE="4" COMMENT="" />
    <EXPORT ORDINAL="2243" NAME="?SetLimitText@CUFEditText@@QAEXH_N@Z" PURGE="8" COMMENT="" />
    <EXPORT ORDINAL="2244" NAME="?SetLineSpace@CUFDWriteFont@@QAEXM@Z" PURGE="4" COMMENT="" />
    <EXPORT ORDINAL="2245" NAME="?SetLineSpace@CUFDWriteText@@UAEXM@Z" PURGE="4" COMMENT="" />
    <EXPORT ORDINAL="2246" NAME="?SetLineSpace@CUFDx9Text@@UAEXM@Z" PURGE="4" COMMENT="" />
    <EXPORT ORDINAL="2247" NAME="?SetLineSpace@CUFEditText@@UAEXM@Z" PURGE="4" COMMENT="" />
    <EXPORT ORDINAL="2248" NAME="?SetLineSpace@CUFText@@UAEXM@Z" PURGE="4" COMMENT="" />
    <EXPORT ORDINAL="2249" NAME="?SetLineSpace@CUFTextMeta@@QAEXM@Z" PURGE="4" COMMENT="" />
    <EXPORT ORDINAL="2250" NAME="?SetLogConfigFilePath@CUFLog@@QAEXABV?$basic_string@_WU?$char_traits@_W@std@@V?$allocator@_W@2@@std@@@Z" PURGE="4" COMMENT="" />
    <EXPORT ORDINAL="2251" NAME="?SetLogFileDir@CUFLog@@QAEXABV?$basic_string@_WU?$char_traits@_W@std@@V?$allocator@_W@2@@std@@@Z" PURGE="4" COMMENT="" />
    <EXPORT ORDINAL="2252" NAME="?SetLogLevel@CUFLog@@QAEXK@Z" PURGE="4" COMMENT="" />
    <EXPORT ORDINAL="2253" NAME="?SetLogOutMode@CUFLog@@QAEXI@Z" PURGE="4" COMMENT="" />
    <EXPORT ORDINAL="2254" NAME="?SetMDMFlag@CUFElement@@QAEX_N@Z" PURGE="4" COMMENT="" />
    <EXPORT ORDINAL="2255" NAME="?SetMDMFlag@CUFText@@QAEX_N@Z" PURGE="4" COMMENT="" />
    <EXPORT ORDINAL="2256" NAME="?SetMarginX@CUFToolTip@@QAEXM@Z" PURGE="4" COMMENT="" />
    <EXPORT ORDINAL="2257" NAME="?SetMarginY@CUFToolTip@@QAEXM@Z" PURGE="4" COMMENT="" />
    <EXPORT ORDINAL="2258" NAME="?SetMaxMinNum@CUFRangeBase@@UAEXMM@Z" PURGE="8" COMMENT="" />
    <EXPORT ORDINAL="2259" NAME="?SetMaxNum@CUFRangeBaseStyle@@QAEXM@Z" PURGE="4" COMMENT="" />
    <EXPORT ORDINAL="2260" NAME="?SetMenu@CUFMenuItem@@QAEXPAVCUFMenu@@@Z" PURGE="4" COMMENT="" />
    <EXPORT ORDINAL="2261" NAME="?SetMenuHeight@CUFMenu@@QAEXM@Z" PURGE="4" COMMENT="" />
    <EXPORT ORDINAL="2262" NAME="?SetMenuPadding@CUFMenu@@QAEXMM@Z" PURGE="8" COMMENT="" />
    <EXPORT ORDINAL="2263" NAME="?SetMenuSize@CUFMenu@@QAEXMM@Z" PURGE="8" COMMENT="" />
    <EXPORT ORDINAL="2264" NAME="?SetMenuWidth@CUFMenu@@QAEXM@Z" PURGE="4" COMMENT="" />
    <EXPORT ORDINAL="2265" NAME="?SetMenuitemSize@CUFMenuItem@@QAEXMM@Z" PURGE="8" COMMENT="" />
    <EXPORT ORDINAL="2266" NAME="?SetMinNum@CUFRangeBaseStyle@@QAEXM@Z" PURGE="4" COMMENT="" />
    <EXPORT ORDINAL="2267" NAME="?SetMinSize@IUFWindow@@UAEXHH@Z" PURGE="8" COMMENT="" />
    <EXPORT ORDINAL="2268" NAME="?SetMinThumbLength@CUFScrollBar@@QAEXM@Z" PURGE="4" COMMENT="" />
    <EXPORT ORDINAL="2269" NAME="?SetMinThumbLength@CUFScrollBarStyle@@QAEXM@Z" PURGE="4" COMMENT="" />
    <EXPORT ORDINAL="2270" NAME="?SetMsgFlag@CUFScrollViewer@@IAEX_N@Z" PURGE="4" COMMENT="" />
    <EXPORT ORDINAL="2271" NAME="?SetMultipleSelection@CUFListBox@@QAEX_N@Z" PURGE="4" COMMENT="" />
    <EXPORT ORDINAL="2272" NAME="?SetMultiplyClipContent@CUFText@@UAEXABV?$basic_string@_WU?$char_traits@_W@std@@V?$allocator@_W@2@@std@@@Z" PURGE="4" COMMENT="" />
    <EXPORT ORDINAL="2273" NAME="?SetNormalResId@CUFBackImage@@QAEXH@Z" PURGE="4" COMMENT="" />
    <EXPORT ORDINAL="2274" NAME="?SetOffSetX@CUFToolTip@@QAEXM@Z" PURGE="4" COMMENT="" />
    <EXPORT ORDINAL="2275" NAME="?SetOffsetYDown@CUFToolTip@@QAEXM@Z" PURGE="4" COMMENT="" />
    <EXPORT ORDINAL="2276" NAME="?SetOffsetYUp@CUFToolTip@@QAEXM@Z" PURGE="4" COMMENT="" />
    <EXPORT ORDINAL="2277" NAME="?SetOrientation@CUFButtonDecoration@@QAEXW4enumOrientation@@@Z" PURGE="4" COMMENT="" />
    <EXPORT ORDINAL="2278" NAME="?SetOrientation@CUFRangeBase@@UAEXW4enumOrientation@@@Z" PURGE="4" COMMENT="" />
    <EXPORT ORDINAL="2279" NAME="?SetOrientation@CUFRangeBaseStyle@@QAEXW4enumOrientation@@@Z" PURGE="4" COMMENT="" />
    <EXPORT ORDINAL="2280" NAME="?SetOrientation@CUFStackPanel@@QAEXW4enumSTACKORIENTATION@@@Z" PURGE="4" COMMENT="" />
    <EXPORT ORDINAL="2281" NAME="?SetOrientation@CUFWrapPanel@@QAEXW4enumSTACKORIENTATION@@@Z" PURGE="4" COMMENT="" />
    <EXPORT ORDINAL="2282" NAME="?SetOverResId@CUFBackImage@@QAEXH@Z" PURGE="4" COMMENT="" />
    <EXPORT ORDINAL="2283" NAME="?SetPageClickInterval@CUFScrollBar@@QAEXH@Z" PURGE="4" COMMENT="" />
    <EXPORT ORDINAL="2284" NAME="?SetPageRepeatClickInterval@CUFScrollBarStyle@@QAEXH@Z" PURGE="4" COMMENT="" />
    <EXPORT ORDINAL="2285" NAME="?SetPanelBGImage@CUFProgressBar@@UAEXABVCUFBackImage@@@Z" PURGE="4" COMMENT="" />
    <EXPORT ORDINAL="2286" NAME="?SetPanelBGImage@CUFScrollBar@@QAEXABVCUFBackImage@@@Z" PURGE="4" COMMENT="" />
    <EXPORT ORDINAL="2287" NAME="?SetPanelBGImage@CUFSliderBar@@QAEXABVCUFBackImage@@_N@Z" PURGE="8" COMMENT="" />
    <EXPORT ORDINAL="2288" NAME="?SetParent@CUFElement@@UAEXPAV1@@Z" PURGE="4" COMMENT="" />
    <EXPORT ORDINAL="2289" NAME="?SetParent@CUFText@@UAEXPAVCUFElement@@@Z" PURGE="4" COMMENT="" />
    <EXPORT ORDINAL="2290" NAME="?SetParent@CUFWCPMenu@@UAEXPAVCUFElement@@@Z" PURGE="4" COMMENT="" />
    <EXPORT ORDINAL="2291" NAME="?SetParentMenu@CUFMenu@@QAEXPAV1@@Z" PURGE="4" COMMENT="" />
    <EXPORT ORDINAL="2292" NAME="?SetPathMode@CUFBackImage@@QAEX_N@Z" PURGE="4" COMMENT="" />
    <EXPORT ORDINAL="2293" NAME="?SetPattern@CUFPen@@QAE_NK@Z" PURGE="4" COMMENT="" />
    <EXPORT ORDINAL="2294" NAME="?SetPatternScale@CUFPen@@QAE_NM@Z" PURGE="4" COMMENT="" />
    <EXPORT ORDINAL="2295" NAME="?SetPen@CUFD2DMetaProperty@@UAEXPAVCUFPen@@@Z" PURGE="4" COMMENT="" />
    <EXPORT ORDINAL="2296" NAME="?SetPen@CUFDx10MetaProperty@@UAEXPAVCUFPen@@@Z" PURGE="4" COMMENT="" />
    <EXPORT ORDINAL="2297" NAME="?SetPen@CUFDxMetaProperty@@UAEXPAVCUFPen@@@Z" PURGE="4" COMMENT="" />
    <EXPORT ORDINAL="2298" NAME="?SetPicContainerState@CUFOverlayContainer@@QAEXABUtagUFPICCONTAINERSTATE_t@@@Z" PURGE="-1" COMMENT="" />
    <EXPORT ORDINAL="2299" NAME="?SetPicPath@CUFImage@@UAE_NABV?$basic_string@_WU?$char_traits@_W@std@@V?$allocator@_W@2@@std@@PAUtagTEXTUREINFO_t@@@Z" PURGE="8" COMMENT="" />
    <EXPORT ORDINAL="2300" NAME="?SetPicScale@CUFHFPicContainer@@QAEXM@Z" PURGE="4" COMMENT="" />
    <EXPORT ORDINAL="2301" NAME="?SetPicture@CUFImageMeta@@QAEXABI@Z" PURGE="-1" COMMENT="" />
    <EXPORT ORDINAL="2302" NAME="?SetPicture@CUFImageMeta@@QAEXABV?$basic_string@_WU?$char_traits@_W@std@@V?$allocator@_W@2@@std@@PAUtagTEXTUREINFO_t@@_N@Z" PURGE="12" COMMENT="" />
    <EXPORT ORDINAL="2303" NAME="?SetPoint@CUFLine@@QAEXABUtagUFCUSTOMVERTEX_t@@0@Z" PURGE="8" COMMENT="" />
    <EXPORT ORDINAL="2304" NAME="?SetPoint@CUFLineMeta@@QAEXABUtagUFCUSTOMVERTEX_t@@0@Z" PURGE="8" COMMENT="" />
    <EXPORT ORDINAL="2305" NAME="?SetPoint@CUFTriangle@@QAEXABUtagUFCUSTOMVERTEX_t@@00@Z" PURGE="12" COMMENT="" />
    <EXPORT ORDINAL="2306" NAME="?SetPoint@CUFTriangleMeta@@QAEXABUtagUFCUSTOMVERTEX_t@@00@Z" PURGE="12" COMMENT="" />
    <EXPORT ORDINAL="2307" NAME="?SetPopUpWCPBGAlpha@CUFPopUPWCP@@QAEXE@Z" PURGE="4" COMMENT="" />
    <EXPORT ORDINAL="2308" NAME="?SetPopUpWCPBackGround@CUFPopUPWCP@@QAEXEEE@Z" PURGE="12" COMMENT="" />
    <EXPORT ORDINAL="2309" NAME="?SetPos@CUFElement@@UAEXMM@Z" PURGE="8" COMMENT="" />
    <EXPORT ORDINAL="2310" NAME="?SetPos@CUFItemControl@@UAEXMM@Z" PURGE="8" COMMENT="" />
    <EXPORT ORDINAL="2311" NAME="?SetPos@CUFLine@@EAEXMM@Z" PURGE="8" COMMENT="" />
    <EXPORT ORDINAL="2312" NAME="?SetPos@CUFLineMeta@@EAEXABUtagUFPOINTF_t@@@Z" PURGE="4" COMMENT="" />
    <EXPORT ORDINAL="2313" NAME="?SetPos@CUFMetaBase@@UAEXABUtagUFPOINTF_t@@@Z" PURGE="4" COMMENT="" />
    <EXPORT ORDINAL="2314" NAME="?SetPos@CUFText@@UAEXMM@Z" PURGE="8" COMMENT="" />
    <EXPORT ORDINAL="2315" NAME="?SetPos@CUFTriangleMeta@@EAEXABUtagUFPOINTF_t@@@Z" PURGE="4" COMMENT="" />
    <EXPORT ORDINAL="2316" NAME="?SetPos@CUFWin32Window@@UAEXMM@Z" PURGE="8" COMMENT="" />
    <EXPORT ORDINAL="2317" NAME="?SetPos@CUFWinChildPanel@@UAEXMM@Z" PURGE="8" COMMENT="" />
    <EXPORT ORDINAL="2318" NAME="?SetPos@CUFWndPanel@@UAEXMM@Z" PURGE="8" COMMENT="" />
    <EXPORT ORDINAL="2319" NAME="?SetPosX@CUFElement@@UAEXM@Z" PURGE="4" COMMENT="" />
    <EXPORT ORDINAL="2320" NAME="?SetPosX@CUFLine@@EAEXM@Z" PURGE="4" COMMENT="" />
    <EXPORT ORDINAL="2321" NAME="?SetPosX@CUFText@@UAEXM@Z" PURGE="4" COMMENT="" />
    <EXPORT ORDINAL="2322" NAME="?SetPosX@CUFWinChildPanel@@UAEXM@Z" PURGE="4" COMMENT="" />
    <EXPORT ORDINAL="2323" NAME="?SetPosX@CUFWndPanel@@UAEXM@Z" PURGE="4" COMMENT="" />
    <EXPORT ORDINAL="2324" NAME="?SetPosY@CUFElement@@UAEXM@Z" PURGE="4" COMMENT="" />
    <EXPORT ORDINAL="2325" NAME="?SetPosY@CUFLine@@EAEXM@Z" PURGE="4" COMMENT="" />
    <EXPORT ORDINAL="2326" NAME="?SetPosY@CUFText@@UAEXM@Z" PURGE="4" COMMENT="" />
    <EXPORT ORDINAL="2327" NAME="?SetPosY@CUFWinChildPanel@@UAEXM@Z" PURGE="4" COMMENT="" />
    <EXPORT ORDINAL="2328" NAME="?SetPosY@CUFWndPanel@@UAEXM@Z" PURGE="4" COMMENT="" />
    <EXPORT ORDINAL="2329" NAME="?SetPosZ@CUFElement@@UAEXM@Z" PURGE="4" COMMENT="" />
    <EXPORT ORDINAL="2330" NAME="?SetRGNCorner@CUFWCPMenu@@QAEXHH@Z" PURGE="8" COMMENT="" />
    <EXPORT ORDINAL="2331" NAME="?SetRGNCorner@CUFWinPopupPanel@@QAEXHH@Z" PURGE="8" COMMENT="" />
    <EXPORT ORDINAL="2332" NAME="?SetRTFormat@CUFDWriteText@@UAEXW4enumRTFORMATFLAG@@@Z" PURGE="4" COMMENT="" />
    <EXPORT ORDINAL="2333" NAME="?SetRTFormat@CUFDx9Text@@UAEXW4enumRTFORMATFLAG@@@Z" PURGE="4" COMMENT="" />
    <EXPORT ORDINAL="2334" NAME="?SetRTFormat@CUFItemControl@@UAEXW4enumRTFORMATFLAG@@@Z" PURGE="4" COMMENT="" />
    <EXPORT ORDINAL="2335" NAME="?SetRTFormat@CUFText@@UAEXW4enumRTFORMATFLAG@@@Z" PURGE="4" COMMENT="" />
    <EXPORT ORDINAL="2336" NAME="?SetRect@CUFEllipseMeta@@QAEXABUtagUFRECTF_t@@@Z" PURGE="4" COMMENT="" />
    <EXPORT ORDINAL="2337" NAME="?SetRect@CUFRectMeta@@QAEXABUtagUFRECTF_t@@@Z" PURGE="4" COMMENT="" />
    <EXPORT ORDINAL="2338" NAME="?SetRepeatCount@CUFAnimation@@QAEXH@Z" PURGE="4" COMMENT="" />
    <EXPORT ORDINAL="2339" NAME="?SetRotatePos@CUFElement@@UAEXABUtagUFPOINTF_t@@@Z" PURGE="4" COMMENT="" />
    <EXPORT ORDINAL="2340" NAME="?SetRotatePos@CUFMetaBase@@UAEXUtagUFPOINTF_t@@@Z" PURGE="12" COMMENT="" />
    <EXPORT ORDINAL="2341" NAME="?SetRotatePos@CUFText@@UAEXABUtagUFPOINTF_t@@@Z" PURGE="4" COMMENT="" />
    <EXPORT ORDINAL="2342" NAME="?SetRotatePosX@CUFElement@@UAEXM@Z" PURGE="4" COMMENT="" />
    <EXPORT ORDINAL="2343" NAME="?SetRotatePosX@CUFText@@UAEXM@Z" PURGE="4" COMMENT="" />
    <EXPORT ORDINAL="2344" NAME="?SetRotatePosY@CUFElement@@UAEXM@Z" PURGE="4" COMMENT="" />
    <EXPORT ORDINAL="2345" NAME="?SetRotatePosY@CUFText@@UAEXM@Z" PURGE="4" COMMENT="" />
    <EXPORT ORDINAL="2346" NAME="?SetRotatePosZ@CUFElement@@UAEXM@Z" PURGE="4" COMMENT="" />
    <EXPORT ORDINAL="2347" NAME="?SetRotatePosZ@CUFText@@UAEXM@Z" PURGE="4" COMMENT="" />
    <EXPORT ORDINAL="2348" NAME="?SetRotateX@CUFMetaBase@@UAEXM@Z" PURGE="4" COMMENT="" />
    <EXPORT ORDINAL="2349" NAME="?SetRotateY@CUFMetaBase@@UAEXM@Z" PURGE="4" COMMENT="" />
    <EXPORT ORDINAL="2350" NAME="?SetRotateZ@CUFMetaBase@@UAEXM@Z" PURGE="4" COMMENT="" />
    <EXPORT ORDINAL="2351" NAME="?SetRotation@CUFMetaBase@@UAEXABUtagUFROTATION_t@@@Z" PURGE="4" COMMENT="" />
    <EXPORT ORDINAL="2352" NAME="?SetScale@CUFElement@@UAEXM@Z" PURGE="4" COMMENT="" />
    <EXPORT ORDINAL="2353" NAME="?SetScale@CUFText@@UAEXM@Z" PURGE="4" COMMENT="" />
    <EXPORT ORDINAL="2354" NAME="?SetScaleAlpha@CUFElement@@UAEXM@Z" PURGE="4" COMMENT="" />
    <EXPORT ORDINAL="2355" NAME="?SetScaleAlpha@CUFText@@UAEXM@Z" PURGE="4" COMMENT="" />
    <EXPORT ORDINAL="2356" NAME="?SetScrollBarIsDraw@CUFScrollViewer@@AAEXPAVCUFScrollBar@@_N@Z" PURGE="8" COMMENT="" />
    <EXPORT ORDINAL="2357" NAME="?SetScrollBarStyle@CUFScrollViewer@@QAEXMM@Z" PURGE="8" COMMENT="" />
    <EXPORT ORDINAL="2358" NAME="?SetScrollChild@CUFScrollViewer@@QAEXPAVCUFElement@@@Z" PURGE="4" COMMENT="" />
    <EXPORT ORDINAL="2359" NAME="?SetScrollChildPosOffset@CUFScrollViewer@@UAEXMM@Z" PURGE="8" COMMENT="" />
    <EXPORT ORDINAL="2360" NAME="?SetScrollInterval@CUFDWriteText@@UAEXK@Z" PURGE="4" COMMENT="" />
    <EXPORT ORDINAL="2361" NAME="?SetScrollInterval@CUFDx9Text@@UAEXK@Z" PURGE="4" COMMENT="" />
    <EXPORT ORDINAL="2362" NAME="?SetScrollInterval@CUFText@@UAEXK@Z" PURGE="4" COMMENT="" />
    <EXPORT ORDINAL="2363" NAME="?SetScrollStep@CUFScrollBar@@QAEXM@Z" PURGE="4" COMMENT="" />
    <EXPORT ORDINAL="2364" NAME="?SetScrollStep@CUFScrollBarStyle@@QAEXM@Z" PURGE="4" COMMENT="" />
    <EXPORT ORDINAL="2365" NAME="?SetScrollbarPos@CUFComboBox@@QAEXMM@Z" PURGE="8" COMMENT="" />
    <EXPORT ORDINAL="2366" NAME="?SetScrollbarSize@CUFComboBox@@QAEXMM@Z" PURGE="8" COMMENT="" />
    <EXPORT ORDINAL="2367" NAME="?SetScrollbarSize@CUFScrollViewer@@QAEXMM@Z" PURGE="8" COMMENT="" />
    <EXPORT ORDINAL="2368" NAME="?SetSelItemRange@CUFListBox@@QAEXHH_N@Z" PURGE="12" COMMENT="" />
    <EXPORT ORDINAL="2369" NAME="?SetSelLTranslatePos@CUFEditText@@UAEXXZ" PURGE="0" COMMENT="" />
    <EXPORT ORDINAL="2370" NAME="?SetSelect@CUFComboBoxItem@@UAEX_N0@Z" PURGE="8" COMMENT="" />
    <EXPORT ORDINAL="2371" NAME="?SetSelect@CUFItemControl@@UAEX_N0@Z" PURGE="8" COMMENT="" />
    <EXPORT ORDINAL="2372" NAME="?SetSelectedArea@CUFEditText@@AAEXHH@Z" PURGE="8" COMMENT="" />
    <EXPORT ORDINAL="2373" NAME="?SetSelectedBG@CUFEditText@@QAEXEEEE@Z" PURGE="16" COMMENT="" />
    <EXPORT ORDINAL="2374" NAME="?SetSelectedButton@CUFGroupButton@@QAEXPAVCUFRadioButton@@@Z" PURGE="4" COMMENT="" />
    <EXPORT ORDINAL="2375" NAME="?SetSelectedFC@CUFEditText@@QAEXEEEE@Z" PURGE="16" COMMENT="" />
    <EXPORT ORDINAL="2376" NAME="?SetSelectedIndex@CUFComboBox@@QAEXH_N@Z" PURGE="8" COMMENT="" />
    <EXPORT ORDINAL="2377" NAME="?SetSelectedItem@CUFComboBox@@QAEXPAVCUFComboBoxItem@@_N@Z" PURGE="8" COMMENT="" />
    <EXPORT ORDINAL="2378" NAME="?SetSeparationSize@CUFMenuItem@@QAEXMM@Z" PURGE="8" COMMENT="" />
    <EXPORT ORDINAL="2379" NAME="?SetSeparator@CUFComboBoxDropDown@@QAEXM@Z" PURGE="4" COMMENT="" />
    <EXPORT ORDINAL="2380" NAME="?SetSeparator@CUFStackPanel@@QAEXM@Z" PURGE="4" COMMENT="" />
    <EXPORT ORDINAL="2381" NAME="?SetSeparatorImage@CUFMenuItem@@QAEXABV?$basic_string@_WU?$char_traits@_W@std@@V?$allocator@_W@2@@std@@@Z" PURGE="4" COMMENT="" />
    <EXPORT ORDINAL="2382" NAME="?SetSeparatorImage@CUFMenuItem@@QAEXHPAX@Z" PURGE="8" COMMENT="" />
    <EXPORT ORDINAL="2383" NAME="?SetSeparatorPos@CUFMenuItem@@QAEXMM@Z" PURGE="8" COMMENT="" />
    <EXPORT ORDINAL="2384" NAME="?SetShadow@CUFDWriteFont@@UAEXUtagBLENDCOLOR_t@@UtagUFPOINTF_t@@@Z" PURGE="28" COMMENT="" />
    <EXPORT ORDINAL="2385" NAME="?SetShadow@CUFDWriteText@@UAEXUtagBLENDCOLOR_t@@UtagUFPOINTF_t@@@Z" PURGE="28" COMMENT="" />
    <EXPORT ORDINAL="2386" NAME="?SetShadow@CUFDx9Text@@UAEXUtagBLENDCOLOR_t@@UtagUFPOINTF_t@@@Z" PURGE="28" COMMENT="" />
    <EXPORT ORDINAL="2387" NAME="?SetShadow@CUFDxFont@@UAEXUtagBLENDCOLOR_t@@UtagUFPOINTF_t@@@Z" PURGE="28" COMMENT="" />
    <EXPORT ORDINAL="2388" NAME="?SetShadow@CUFText@@UAEXUtagBLENDCOLOR_t@@UtagUFPOINTF_t@@@Z" PURGE="28" COMMENT="" />
    <EXPORT ORDINAL="2389" NAME="?SetShadow@CUFTextMeta@@QAEXUtagBLENDCOLOR_t@@UtagUFPOINTF_t@@@Z" PURGE="28" COMMENT="" />
    <EXPORT ORDINAL="2390" NAME="?SetSize@CUFButton@@UAEXABUtagUFSIZEF_t@@@Z" PURGE="4" COMMENT="" />
    <EXPORT ORDINAL="2391" NAME="?SetSize@CUFButton@@UAEXMM@Z" PURGE="8" COMMENT="" />
    <EXPORT ORDINAL="2392" NAME="?SetSize@CUFButtonBase@@UAEXABUtagUFSIZEF_t@@@Z" PURGE="4" COMMENT="" />
    <EXPORT ORDINAL="2393" NAME="?SetSize@CUFButtonBase@@UAEXMM@Z" PURGE="8" COMMENT="" />
    <EXPORT ORDINAL="2394" NAME="?SetSize@CUFButtonDecoration@@UAEXABUtagUFSIZEF_t@@@Z" PURGE="4" COMMENT="" />
    <EXPORT ORDINAL="2395" NAME="?SetSize@CUFButtonDecoration@@UAEXMM@Z" PURGE="8" COMMENT="" />
    <EXPORT ORDINAL="2396" NAME="?SetSize@CUFComboBox@@UAEXABUtagUFSIZEF_t@@@Z" PURGE="4" COMMENT="" />
    <EXPORT ORDINAL="2397" NAME="?SetSize@CUFComboBox@@UAEXMM@Z" PURGE="8" COMMENT="" />
    <EXPORT ORDINAL="2398" NAME="?SetSize@CUFDecorateButton@@UAEXABUtagUFSIZEF_t@@@Z" PURGE="4" COMMENT="" />
    <EXPORT ORDINAL="2399" NAME="?SetSize@CUFDecorateButton@@UAEXMM@Z" PURGE="8" COMMENT="" />
    <EXPORT ORDINAL="2400" NAME="?SetSize@CUFEditText@@UAEXMM@Z" PURGE="8" COMMENT="" />
    <EXPORT ORDINAL="2401" NAME="?SetSize@CUFElement@@UAEXABUtagUFSIZEF_t@@@Z" PURGE="4" COMMENT="" />
    <EXPORT ORDINAL="2402" NAME="?SetSize@CUFElement@@UAEXMM@Z" PURGE="8" COMMENT="" />
    <EXPORT ORDINAL="2403" NAME="?SetSize@CUFItemControl@@UAEXMM@Z" PURGE="8" COMMENT="" />
    <EXPORT ORDINAL="2404" NAME="?SetSize@CUFLayer@@UAEXABUtagUFSIZEF_t@@@Z" PURGE="4" COMMENT="" />
    <EXPORT ORDINAL="2405" NAME="?SetSize@CUFLayer@@UAEXMM@Z" PURGE="8" COMMENT="" />
    <EXPORT ORDINAL="2406" NAME="?SetSize@CUFLine@@EAEXABUtagUFSIZEF_t@@@Z" PURGE="4" COMMENT="" />
    <EXPORT ORDINAL="2407" NAME="?SetSize@CUFLine@@EAEXMM@Z" PURGE="8" COMMENT="" />
    <EXPORT ORDINAL="2408" NAME="?SetSize@CUFLineMeta@@EAEXABUtagUFSIZEF_t@@@Z" PURGE="4" COMMENT="" />
    <EXPORT ORDINAL="2409" NAME="?SetSize@CUFMetaBase@@UAEXABUtagUFSIZEF_t@@@Z" PURGE="4" COMMENT="" />
    <EXPORT ORDINAL="2410" NAME="?SetSize@CUFPanel@@UAEXABUtagUFSIZEF_t@@@Z" PURGE="4" COMMENT="" />
    <EXPORT ORDINAL="2411" NAME="?SetSize@CUFPanel@@UAEXMM@Z" PURGE="8" COMMENT="" />
    <EXPORT ORDINAL="2412" NAME="?SetSize@CUFPopUPWCP@@UAEXABUtagUFSIZEF_t@@@Z" PURGE="4" COMMENT="" />
    <EXPORT ORDINAL="2413" NAME="?SetSize@CUFPopUPWCP@@UAEXMM@Z" PURGE="8" COMMENT="" />
    <EXPORT ORDINAL="2414" NAME="?SetSize@CUFScrollViewer@@UAEXABUtagUFSIZEF_t@@@Z" PURGE="4" COMMENT="" />
    <EXPORT ORDINAL="2415" NAME="?SetSize@CUFScrollViewer@@UAEXMM@Z" PURGE="8" COMMENT="" />
    <EXPORT ORDINAL="2416" NAME="?SetSize@CUFStateButton@@UAEXABUtagUFSIZEF_t@@@Z" PURGE="4" COMMENT="" />
    <EXPORT ORDINAL="2417" NAME="?SetSize@CUFStateButton@@UAEXMM@Z" PURGE="8" COMMENT="" />
    <EXPORT ORDINAL="2418" NAME="?SetSize@CUFText@@UAEXABUtagUFSIZEF_t@@@Z" PURGE="4" COMMENT="" />
    <EXPORT ORDINAL="2419" NAME="?SetSize@CUFText@@UAEXMM@Z" PURGE="8" COMMENT="" />
    <EXPORT ORDINAL="2420" NAME="?SetSize@CUFTriangleMeta@@EAEXABUtagUFSIZEF_t@@@Z" PURGE="4" COMMENT="" />
    <EXPORT ORDINAL="2421" NAME="?SetSize@CUFWin32Window@@UAEXMM@Z" PURGE="8" COMMENT="" />
    <EXPORT ORDINAL="2422" NAME="?SetSize@CUFWinChildPanel@@UAEXABUtagUFSIZEF_t@@@Z" PURGE="4" COMMENT="" />
    <EXPORT ORDINAL="2423" NAME="?SetSize@CUFWinChildPanel@@UAEXMM@Z" PURGE="8" COMMENT="" />
    <EXPORT ORDINAL="2424" NAME="?SetSize@CUFWndPanel@@UAEXABUtagUFSIZEF_t@@@Z" PURGE="4" COMMENT="" />
    <EXPORT ORDINAL="2425" NAME="?SetSize@CUFWndPanel@@UAEXMM@Z" PURGE="8" COMMENT="" />
    <EXPORT ORDINAL="2426" NAME="?SetSoundData@CUFDxSound@@AAE_NPAXK@Z" PURGE="8" COMMENT="" />
    <EXPORT ORDINAL="2427" NAME="?SetStartTime@CUFAnimation@@QAEXJ@Z" PURGE="4" COMMENT="" />
    <EXPORT ORDINAL="2428" NAME="?SetStaticPicture@CUFImage@@QAE_NHPAXPAUtagTEXTUREINFO_t@@@Z" PURGE="12" COMMENT="" />
    <EXPORT ORDINAL="2429" NAME="?SetStaticPicture@CUFImageMeta@@QAE_NHPAXPAUtagTEXTUREINFO_t@@@Z" PURGE="12" COMMENT="" />
    <EXPORT ORDINAL="2430" NAME="?SetStaysSpan@CUFToolTip@@QAEXH@Z" PURGE="4" COMMENT="" />
    <EXPORT ORDINAL="2431" NAME="?SetStepClickInterval@CUFScrollBar@@QAEXH@Z" PURGE="4" COMMENT="" />
    <EXPORT ORDINAL="2432" NAME="?SetStepDecreaseImage@CUFScrollBar@@QAEXABVCUFBackImage@@00@Z" PURGE="12" COMMENT="" />
    <EXPORT ORDINAL="2433" NAME="?SetStepDecreaseImage@CUFScrollBarStyle@@QAEXABVCUFBackImage@@00@Z" PURGE="12" COMMENT="" />
    <EXPORT ORDINAL="2434" NAME="?SetStepDecreaseSlice@CUFScrollBar@@QAEXMM@Z" PURGE="8" COMMENT="" />
    <EXPORT ORDINAL="2435" NAME="?SetStepDecreaseSlice@CUFScrollBarStyle@@QAEXMM@Z" PURGE="8" COMMENT="" />
    <EXPORT ORDINAL="2436" NAME="?SetStepIncreaseImage@CUFScrollBar@@QAEXABVCUFBackImage@@00@Z" PURGE="12" COMMENT="" />
    <EXPORT ORDINAL="2437" NAME="?SetStepIncreaseImage@CUFScrollBarStyle@@QAEXABVCUFBackImage@@00@Z" PURGE="12" COMMENT="" />
    <EXPORT ORDINAL="2438" NAME="?SetStepIncreaseSlice@CUFScrollBar@@QAEXMM@Z" PURGE="8" COMMENT="" />
    <EXPORT ORDINAL="2439" NAME="?SetStepIncreaseSlice@CUFScrollBarStyle@@QAEXMM@Z" PURGE="8" COMMENT="" />
    <EXPORT ORDINAL="2440" NAME="?SetStepRepeatClickInterval@CUFScrollBarStyle@@QAEXH@Z" PURGE="4" COMMENT="" />
    <EXPORT ORDINAL="2441" NAME="?SetStretch@CUFPanel@@QAEXW4enumPANELSTRETCH@@@Z" PURGE="4" COMMENT="" />
    <EXPORT ORDINAL="2442" NAME="?SetStyle@CUFRangeBase@@UAEXPAVCUFRangeBaseStyle@@@Z" PURGE="4" COMMENT="" />
    <EXPORT ORDINAL="2443" NAME="?SetStyle@CUFScrollBar@@UAEXPAVCUFRangeBaseStyle@@@Z" PURGE="4" COMMENT="" />
    <EXPORT ORDINAL="2444" NAME="?SetStyle@CUFSliderBar@@UAEXPAVCUFRangeBaseStyle@@@Z" PURGE="4" COMMENT="" />
    <EXPORT ORDINAL="2445" NAME="?SetSubMenu@CUFMenuItem@@QAEXPAVCUFMenu@@_N@Z" PURGE="8" COMMENT="" />
    <EXPORT ORDINAL="2446" NAME="?SetSubMenuIndicatorImage@CUFMenuItem@@QAEXABV?$basic_string@_WU?$char_traits@_W@std@@V?$allocator@_W@2@@std@@@Z" PURGE="4" COMMENT="" />
    <EXPORT ORDINAL="2447" NAME="?SetSubMenuIndicatorImage@CUFMenuItem@@QAEXHPAX@Z" PURGE="8" COMMENT="" />
    <EXPORT ORDINAL="2448" NAME="?SetTabIndex@CUFElement@@UAEXH@Z" PURGE="4" COMMENT="" />
    <EXPORT ORDINAL="2449" NAME="?SetTabStoppedElement@CUFControl@@UAEXPAVCUFElement@@@Z" PURGE="4" COMMENT="" />
    <EXPORT ORDINAL="2450" NAME="?SetText@CUFDWriteText@@UAEXABV?$basic_string@_WU?$char_traits@_W@std@@V?$allocator@_W@2@@std@@HH@Z" PURGE="12" COMMENT="" />
    <EXPORT ORDINAL="2451" NAME="?SetText@CUFDx9Text@@UAEXABV?$basic_string@_WU?$char_traits@_W@std@@V?$allocator@_W@2@@std@@HH@Z" PURGE="12" COMMENT="" />
    <EXPORT ORDINAL="2452" NAME="?SetText@CUFEditText@@UAEXABV?$basic_string@_WU?$char_traits@_W@std@@V?$allocator@_W@2@@std@@@Z" PURGE="4" COMMENT="" />
    <EXPORT ORDINAL="2453" NAME="?SetText@CUFItemControl@@UAEXABV?$basic_string@_WU?$char_traits@_W@std@@V?$allocator@_W@2@@std@@@Z" PURGE="4" COMMENT="" />
    <EXPORT ORDINAL="2454" NAME="?SetText@CUFMenuItem@@UAEXABV?$basic_string@_WU?$char_traits@_W@std@@V?$allocator@_W@2@@std@@HH@Z" PURGE="12" COMMENT="" />
    <EXPORT ORDINAL="2455" NAME="?SetText@CUFText@@UAEXABV?$basic_string@_WU?$char_traits@_W@std@@V?$allocator@_W@2@@std@@HH@Z" PURGE="12" COMMENT="" />
    <EXPORT ORDINAL="2456" NAME="?SetTextAlignment@CUFComboBox@@UAEXW4enumALIGNMENT@@@Z" PURGE="4" COMMENT="" />
    <EXPORT ORDINAL="2457" NAME="?SetTextColor@CUFComboBox@@QAEXEEEE@Z" PURGE="16" COMMENT="" />
    <EXPORT ORDINAL="2458" NAME="?SetTextFeature@CUFDWriteFont@@UAEXUtagUFTEXTFEATURE_t@@@Z" PURGE="36" COMMENT="" />
    <EXPORT ORDINAL="2459" NAME="?SetTextFeature@CUFDWriteText@@UAEXUtagUFTEXTFEATURE_t@@@Z" PURGE="36" COMMENT="" />
    <EXPORT ORDINAL="2460" NAME="?SetTextFeature@CUFDx9Text@@UAEXUtagUFTEXTFEATURE_t@@@Z" PURGE="36" COMMENT="" />
    <EXPORT ORDINAL="2461" NAME="?SetTextFeature@CUFEditText@@QAEXUtagUFTEXTFEATURE_t@@@Z" PURGE="36" COMMENT="" />
    <EXPORT ORDINAL="2462" NAME="?SetTextFeature@CUFText@@UAEXUtagUFTEXTFEATURE_t@@@Z" PURGE="36" COMMENT="" />
    <EXPORT ORDINAL="2463" NAME="?SetTextFeature@CUFTextMeta@@QAEXUtagUFTEXTFEATURE_t@@@Z" PURGE="36" COMMENT="" />
    <EXPORT ORDINAL="2464" NAME="?SetTextFeature@IUFFont@@UAEXUtagUFTEXTFEATURE_t@@@Z" PURGE="36" COMMENT="" />
    <EXPORT ORDINAL="2465" NAME="?SetTextOffset@CUFComboBox@@QAEXM@Z" PURGE="4" COMMENT="" />
    <EXPORT ORDINAL="2466" NAME="?SetTextRTFormat@CUFComboBox@@QAEXW4enumRTFORMATFLAG@@@Z" PURGE="4" COMMENT="" />
    <EXPORT ORDINAL="2467" NAME="?SetTextType@CUFTextMeta@@QAEXW4enumTEXT_DRAWTYPE@@@Z" PURGE="4" COMMENT="" />
    <EXPORT ORDINAL="2468" NAME="?SetTexture@CUFD2DMetaProperty@@UAEXPAX@Z" PURGE="4" COMMENT="" />
    <EXPORT ORDINAL="2469" NAME="?SetTexture@CUFDx10MetaProperty@@UAEXPAX@Z" PURGE="4" COMMENT="" />
    <EXPORT ORDINAL="2470" NAME="?SetTexture@CUFDxMetaProperty@@UAEXPAX@Z" PURGE="4" COMMENT="" />
    <EXPORT ORDINAL="2471" NAME="?SetTexture@CUFImageMeta@@QAEXPAX@Z" PURGE="-1" COMMENT="" />
    <EXPORT ORDINAL="2472" NAME="?SetThumbHeight@CUFSliderBar@@QAEXM@Z" PURGE="4" COMMENT="" />
    <EXPORT ORDINAL="2473" NAME="?SetThumbHeight@CUFSliderBarStyle@@QAEXM@Z" PURGE="4" COMMENT="" />
    <EXPORT ORDINAL="2474" NAME="?SetThumbImage@CUFRangeBase@@UAEXABVCUFBackImage@@00@Z" PURGE="12" COMMENT="" />
    <EXPORT ORDINAL="2475" NAME="?SetThumbImage@CUFRangeBaseStyle@@QAEXABVCUFBackImage@@00@Z" PURGE="12" COMMENT="" />
    <EXPORT ORDINAL="2476" NAME="?SetThumbImageSlice@CUFRangeBase@@QAEXMM@Z" PURGE="8" COMMENT="" />
    <EXPORT ORDINAL="2477" NAME="?SetThumbImageSlice@CUFRangeBaseStyle@@QAEXMM@Z" PURGE="8" COMMENT="" />
    <EXPORT ORDINAL="2478" NAME="?SetThumbOffsetX@CUFSliderBar@@QAEXM@Z" PURGE="4" COMMENT="" />
    <EXPORT ORDINAL="2479" NAME="?SetThumbOffsetY@CUFSliderBar@@QAEXM@Z" PURGE="4" COMMENT="" />
    <EXPORT ORDINAL="2480" NAME="?SetThumbWidth@CUFSliderBar@@QAEXM@Z" PURGE="4" COMMENT="" />
    <EXPORT ORDINAL="2481" NAME="?SetThumbWidth@CUFSliderBarStyle@@QAEXM@Z" PURGE="4" COMMENT="" />
    <EXPORT ORDINAL="2482" NAME="?SetTick@CUFSliderBar@@QAEXABV?$list@MV?$allocator@M@std@@@std@@@Z" PURGE="4" COMMENT="" />
    <EXPORT ORDINAL="2483" NAME="?SetTickFrequency@CUFSliderBar@@UAE_NM@Z" PURGE="4" COMMENT="" />
    <EXPORT ORDINAL="2484" NAME="?SetTickFrequency@CUFSliderBarStyle@@QAEXM@Z" PURGE="4" COMMENT="" />
    <EXPORT ORDINAL="2485" NAME="?SetToggleRatio@CUFStateButton@@QAEXM@Z" PURGE="4" COMMENT="" />
    <EXPORT ORDINAL="2486" NAME="?SetTop@CUFChildWnd@@QAEXXZ" PURGE="0" COMMENT="" />
    <EXPORT ORDINAL="2487" NAME="?SetTop@CUFWinChildPanel@@QAEXXZ" PURGE="0" COMMENT="" />
    <EXPORT ORDINAL="2488" NAME="?SetTopMost@CUFLayer@@QAEX_N@Z" PURGE="4" COMMENT="" />
    <EXPORT ORDINAL="2489" NAME="?SetTotalPoints@CUFEllipseMeta@@QAEXH@Z" PURGE="4" COMMENT="" />
    <EXPORT ORDINAL="2490" NAME="?SetTrackSize@CUFSliderBar@@QAEXM@Z" PURGE="4" COMMENT="" />
    <EXPORT ORDINAL="2491" NAME="?SetTrackSize@CUFSliderBarStyle@@QAEXM@Z" PURGE="4" COMMENT="" />
    <EXPORT ORDINAL="2492" NAME="?SetTriangleBGDown@CUFComboBox@@QAEXABV?$basic_string@_WU?$char_traits@_W@std@@V?$allocator@_W@2@@std@@@Z" PURGE="4" COMMENT="" />
    <EXPORT ORDINAL="2493" NAME="?SetTriangleBGNormal@CUFComboBox@@QAEXABV?$basic_string@_WU?$char_traits@_W@std@@V?$allocator@_W@2@@std@@@Z" PURGE="4" COMMENT="" />
    <EXPORT ORDINAL="2494" NAME="?SetTriangleBGOver@CUFComboBox@@QAEXABV?$basic_string@_WU?$char_traits@_W@std@@V?$allocator@_W@2@@std@@@Z" PURGE="4" COMMENT="" />
    <EXPORT ORDINAL="2495" NAME="?SetTriangleBackImage@CUFComboBox@@QAEXABVCUFBackImage@@@Z" PURGE="4" COMMENT="" />
    <EXPORT ORDINAL="2496" NAME="?SetTriangleButtonWidth@CUFComboBox@@UAEXM@Z" PURGE="4" COMMENT="" />
    <EXPORT ORDINAL="2497" NAME="?SetUnCheckedImage@CUFCheckBox@@UAEXABVCUFBackImage@@@Z" PURGE="4" COMMENT="" />
    <EXPORT ORDINAL="2498" NAME="?SetUnCheckedImage@CUFRadioButton@@UAEXABVCUFBackImage@@@Z" PURGE="4" COMMENT="" />
    <EXPORT ORDINAL="2499" NAME="?SetUnCheckedImage@CUFStateButton@@UAEXABVCUFBackImage@@@Z" PURGE="4" COMMENT="" />
    <EXPORT ORDINAL="2500" NAME="?SetUnderLineParam@CUFDWriteFont@@UAEXII@Z" PURGE="8" COMMENT="" />
    <EXPORT ORDINAL="2501" NAME="?SetUnderLineParam@CUFDWriteText@@UAEXII@Z" PURGE="8" COMMENT="" />
    <EXPORT ORDINAL="2502" NAME="?SetUnderLineParam@CUFDx9Text@@UAEXII@Z" PURGE="8" COMMENT="" />
    <EXPORT ORDINAL="2503" NAME="?SetUnderLineParam@CUFText@@UAEXII@Z" PURGE="8" COMMENT="" />
    <EXPORT ORDINAL="2504" NAME="?SetUnderLineParam@CUFTextMeta@@QAEXII@Z" PURGE="8" COMMENT="" />
    <EXPORT ORDINAL="2505" NAME="?SetUnderLineParam@IUFFont@@UAEXII@Z" PURGE="8" COMMENT="" />
    <EXPORT ORDINAL="2506" NAME="?SetVScrollBarVisibility@CUFScrollViewer@@QAEXW4enumSCROLLBARVISIBILITY@@@Z" PURGE="4" COMMENT="" />
    <EXPORT ORDINAL="2507" NAME="?SetVScrollBarVisible@CUFListBox@@QAEXW4enumSCROLLBARVISIBILITY@@@Z" PURGE="4" COMMENT="" />
    <EXPORT ORDINAL="2508" NAME="?SetVScrollbarPos@CUFScrollViewer@@QAEXMM@Z" PURGE="8" COMMENT="" />
    <EXPORT ORDINAL="2509" NAME="?SetValue@CUFRangeBase@@UAEXM@Z" PURGE="4" COMMENT="" />
    <EXPORT ORDINAL="2510" NAME="?SetVertexColor@CUFRectMeta@@QAEXPAK@Z" PURGE="4" COMMENT="" />
    <EXPORT ORDINAL="2511" NAME="?SetVertexColor@CUFRectangle@@QAEXKKKK@Z" PURGE="16" COMMENT="" />
    <EXPORT ORDINAL="2512" NAME="?SetVerticalOffset@CUFScrollViewer@@UAEXM@Z" PURGE="4" COMMENT="" />
    <EXPORT ORDINAL="2513" NAME="?SetVerticalScrollBarStyle@CUFListBox@@QAEXPAVCUFScrollBarStyle@@@Z" PURGE="4" COMMENT="" />
    <EXPORT ORDINAL="2514" NAME="?SetVerticalScrollBarStyle@CUFScrollViewer@@QAEXPAVCUFScrollBarStyle@@@Z" PURGE="-1" COMMENT="" />
    <EXPORT ORDINAL="2515" NAME="?SetVerticalSeparator@CUFWrapPanel@@QAEXM@Z" PURGE="4" COMMENT="" />
    <EXPORT ORDINAL="2516" NAME="?SetViewPortSize@CUFScrollBar@@QAEXM@Z" PURGE="4" COMMENT="" />
    <EXPORT ORDINAL="2517" NAME="?SetViewPortSize@CUFScrollBarStyle@@QAEXM@Z" PURGE="4" COMMENT="" />
    <EXPORT ORDINAL="2518" NAME="?SetViewType@CUFListBox@@QAEXW4enumVIEWTYPE@@@Z" PURGE="4" COMMENT="" />
    <EXPORT ORDINAL="2519" NAME="?SetVisible@CUFMenuPanel@@QAEX_N@Z" PURGE="4" COMMENT="" />
    <EXPORT ORDINAL="2520" NAME="?SetVisibleArea@CUFD2DDevice@@UAE_NABUtagUFRECTF_t@@@Z" PURGE="4" COMMENT="" />
    <EXPORT ORDINAL="2521" NAME="?SetVisibleArea@CUFDx10Device@@UAE_NABUtagUFRECTF_t@@@Z" PURGE="4" COMMENT="" />
    <EXPORT ORDINAL="2522" NAME="?SetVisibleArea@CUFDxDevice@@UAE_NABUtagUFRECTF_t@@@Z" PURGE="4" COMMENT="" />
    <EXPORT ORDINAL="2523" NAME="?SetVolume@CUFDxSound@@UAEJJ@Z" PURGE="4" COMMENT="" />
    <EXPORT ORDINAL="2524" NAME="?SetVolume@CUFSound@@UAEJJ@Z" PURGE="4" COMMENT="" />
    <EXPORT ORDINAL="2525" NAME="?SetWCPBGAlpha@CUFWCPMenu@@QAEXE@Z" PURGE="4" COMMENT="" />
    <EXPORT ORDINAL="2526" NAME="?SetWCPBackGround@CUFWCPMenu@@QAEXEEE@Z" PURGE="12" COMMENT="" />
    <EXPORT ORDINAL="2527" NAME="?SetWCPMenuTop@CUFWCPMenu@@QAEX_N@Z" PURGE="4" COMMENT="" />
    <EXPORT ORDINAL="2528" NAME="?SetWidth@CUFButton@@UAEXM@Z" PURGE="4" COMMENT="" />
    <EXPORT ORDINAL="2529" NAME="?SetWidth@CUFButtonBase@@UAEXM@Z" PURGE="4" COMMENT="" />
    <EXPORT ORDINAL="2530" NAME="?SetWidth@CUFButtonDecoration@@UAEXM@Z" PURGE="4" COMMENT="" />
    <EXPORT ORDINAL="2531" NAME="?SetWidth@CUFComboBox@@MAEXM@Z" PURGE="4" COMMENT="" />
    <EXPORT ORDINAL="2532" NAME="?SetWidth@CUFComboBoxDropDown@@UAEXM@Z" PURGE="4" COMMENT="" />
    <EXPORT ORDINAL="2533" NAME="?SetWidth@CUFDecorateButton@@UAEXM@Z" PURGE="4" COMMENT="" />
    <EXPORT ORDINAL="2534" NAME="?SetWidth@CUFEditText@@UAEXM@Z" PURGE="4" COMMENT="" />
    <EXPORT ORDINAL="2535" NAME="?SetWidth@CUFElement@@UAEXM@Z" PURGE="4" COMMENT="" />
    <EXPORT ORDINAL="2536" NAME="?SetWidth@CUFLayer@@UAEXM@Z" PURGE="4" COMMENT="" />
    <EXPORT ORDINAL="2537" NAME="?SetWidth@CUFLine@@EAEXM@Z" PURGE="4" COMMENT="" />
    <EXPORT ORDINAL="2538" NAME="?SetWidth@CUFPanel@@UAEXM@Z" PURGE="4" COMMENT="" />
    <EXPORT ORDINAL="2539" NAME="?SetWidth@CUFPen@@QAE_NM@Z" PURGE="4" COMMENT="" />
    <EXPORT ORDINAL="2540" NAME="?SetWidth@CUFRangeBaseStyle@@QAEXM@Z" PURGE="4" COMMENT="" />
    <EXPORT ORDINAL="2541" NAME="?SetWidth@CUFScrollViewer@@UAEXM@Z" PURGE="4" COMMENT="" />
    <EXPORT ORDINAL="2542" NAME="?SetWidth@CUFStateButton@@UAEXM@Z" PURGE="4" COMMENT="" />
    <EXPORT ORDINAL="2543" NAME="?SetWidth@CUFText@@UAEXM_N@Z" PURGE="8" COMMENT="" />
    <EXPORT ORDINAL="2544" NAME="?SetWidth@CUFWinChildPanel@@UAEXM@Z" PURGE="4" COMMENT="" />
    <EXPORT ORDINAL="2545" NAME="?SetWidth@CUFWndPanel@@UAEXM@Z" PURGE="4" COMMENT="" />
    <EXPORT ORDINAL="2546" NAME="?SetWinPos@CUFWinChildPanel@@AAEXXZ" PURGE="0" COMMENT="" />
    <EXPORT ORDINAL="2547" NAME="?SetWinSize@CUFWinChildPanel@@AAEXXZ" PURGE="0" COMMENT="" />
    <EXPORT ORDINAL="2548" NAME="?SetWindowBGColor@CUFWin32Window@@UAEXUtagColor_t@@@Z" PURGE="4" COMMENT="" />
    <EXPORT ORDINAL="2549" NAME="?SetWindowPos@CUFPlatformHelper@@SA_NPAX0HHHHI@Z" PURGE="0" COMMENT="" />
    <EXPORT ORDINAL="2550" NAME="?SetWindowStyle@IUFWindow@@UAEXW4enumUFWINDOWSTYLE@@@Z" PURGE="4" COMMENT="" />
    <EXPORT ORDINAL="2551" NAME="?SetWndPos@CUFChildWnd@@QAE_NMM@Z" PURGE="8" COMMENT="" />
    <EXPORT ORDINAL="2552" NAME="?SetWndPos@CUFEmptyDeviceWnd@@MAEXXZ" PURGE="0" COMMENT="" />
    <EXPORT ORDINAL="2553" NAME="?SetWndPos@CUFWinPopupPanel@@MAEXXZ" PURGE="0" COMMENT="" />
    <EXPORT ORDINAL="2554" NAME="?SetWndPos@CUFWndPanel@@MAEXXZ" PURGE="0" COMMENT="" />
    <EXPORT ORDINAL="2555" NAME="?SetWndSize@CUFChildWnd@@QAE_NMM@Z" PURGE="8" COMMENT="" />
    <EXPORT ORDINAL="2556" NAME="?SetWndSize@CUFWinPopupPanel@@MAEXXZ" PURGE="0" COMMENT="" />
    <EXPORT ORDINAL="2557" NAME="?SetWndSize@CUFWndPanel@@MAEXXZ" PURGE="0" COMMENT="" />
    <EXPORT ORDINAL="2558" NAME="?SetZIndex@CUFElement@@UAEXH@Z" PURGE="4" COMMENT="" />
    <EXPORT ORDINAL="2559" NAME="?SetZPosition@IUFMetaProperty@@UAEXM@Z" PURGE="4" COMMENT="" />
    <EXPORT ORDINAL="2560" NAME="?Show@CUFChildWnd@@UAEXXZ" PURGE="0" COMMENT="" />
    <EXPORT ORDINAL="2561" NAME="?Show@CUFEmptyDeviceWnd@@UAEXXZ" PURGE="0" COMMENT="" />
    <EXPORT ORDINAL="2562" NAME="?Show@CUFLayer@@UAEJ_N@Z" PURGE="4" COMMENT="" />
    <EXPORT ORDINAL="2563" NAME="?Show@CUFPopUPWCP@@UAEXXZ" PURGE="0" COMMENT="" />
    <EXPORT ORDINAL="2564" NAME="?Show@CUFPopUp@@UAEXXZ" PURGE="0" COMMENT="" />
    <EXPORT ORDINAL="2565" NAME="?Show@CUFToolTip@@UAEXMM@Z" PURGE="8" COMMENT="" />
    <EXPORT ORDINAL="2566" NAME="?Show@CUFWin32Window@@UAE_NW4enumUFSHOWWINDOWFLAG@@@Z" PURGE="4" COMMENT="" />
    <EXPORT ORDINAL="2567" NAME="?Show@CUFWinChildPanel@@UAEXXZ" PURGE="0" COMMENT="" />
    <EXPORT ORDINAL="2568" NAME="?Show@CUFWinPopupPanel@@UAEXXZ" PURGE="0" COMMENT="" />
    <EXPORT ORDINAL="2569" NAME="?Show@CUFWndPanel@@UAEXXZ" PURGE="0" COMMENT="" />
    <EXPORT ORDINAL="2570" NAME="?ShowCursor@CUFPlatformHelper@@SAH_N@Z" PURGE="0" COMMENT="" />
    <EXPORT ORDINAL="2571" NAME="?ShowMenu@CUFMenu@@UAEXMM@Z" PURGE="8" COMMENT="" />
    <EXPORT ORDINAL="2572" NAME="?ShowMenu@CUFWCPMenu@@UAEXMM@Z" PURGE="8" COMMENT="" />
    <EXPORT ORDINAL="2573" NAME="?ShowSubMenu@CUFMenuItem@@QAEXXZ" PURGE="0" COMMENT="" />
    <EXPORT ORDINAL="2574" NAME="?ShowWnd@CUFWin32Window@@AAEX_N@Z" PURGE="4" COMMENT="" />
    <EXPORT ORDINAL="2575" NAME="?SnapToTick@CUFSliderBar@@IAEMM@Z" PURGE="4" COMMENT="" />
    <EXPORT ORDINAL="2576" NAME="?SortItems@CUFComboBox@@UAEXP6A_NPAVCUFItemControl@@0@Z@Z" PURGE="4" COMMENT="" />
    <EXPORT ORDINAL="2577" NAME="?SortItems@CUFItemsControl@@UAEXP6A_NPAVCUFItemControl@@0@Z@Z" PURGE="4" COMMENT="" />
    <EXPORT ORDINAL="2578" NAME="?SortItems@CUFListBox@@UAEXP6A_NPAVCUFItemControl@@0@Z@Z" PURGE="4" COMMENT="" />
    <EXPORT ORDINAL="2579" NAME="?Start@CUFTimer@@QAEXXZ" PURGE="0" COMMENT="" />
    <EXPORT ORDINAL="2580" NAME="?StartAnimation@CUFAnimationManager@@QAEXXZ" PURGE="0" COMMENT="" />
    <EXPORT ORDINAL="2581" NAME="?StartAnimation@CUFElement@@UAE_NXZ" PURGE="0" COMMENT="" />
    <EXPORT ORDINAL="2582" NAME="?StartTimer@CUFRepeatButton@@IAEXXZ" PURGE="0" COMMENT="" />
    <EXPORT ORDINAL="2583" NAME="?StingToWs@CUFLog@@AAE?AV?$basic_string@_WU?$char_traits@_W@std@@V?$allocator@_W@2@@std@@ABV?$basic_string@DU?$char_traits@D@std@@V?$allocator@D@2@@3@@Z" PURGE="8" COMMENT="" />
    <EXPORT ORDINAL="2584" NAME="?Stop@CUFAnimation@@QAEXXZ" PURGE="0" COMMENT="" />
    <EXPORT ORDINAL="2585" NAME="?Stop@CUFDxSound@@UAEJXZ" PURGE="0" COMMENT="" />
    <EXPORT ORDINAL="2586" NAME="?Stop@CUFSound@@UAEJXZ" PURGE="0" COMMENT="" />
    <EXPORT ORDINAL="2587" NAME="?Stop@CUFTimer@@QAEXXZ" PURGE="0" COMMENT="" />
    <EXPORT ORDINAL="2588" NAME="?StopAnimation@CUFAnimationManager@@QAEXXZ" PURGE="0" COMMENT="" />
    <EXPORT ORDINAL="2589" NAME="?StopAnimation@CUFElement@@UAEXXZ" PURGE="0" COMMENT="" />
    <EXPORT ORDINAL="2590" NAME="?StopTimer@CUFRepeatButton@@IAEXXZ" PURGE="0" COMMENT="" />
    <EXPORT ORDINAL="2591" NAME="?SuspendLayout@CUFPanel@@QAEXXZ" PURGE="0" COMMENT="" />
    <EXPORT ORDINAL="2592" NAME="?SynchronizationItems@CUFComboBox@@AAEXXZ" PURGE="0" COMMENT="" />
    <EXPORT ORDINAL="2593" NAME="?SysCMDFilter@CUFComboBox@@KAXPAX0PA_N@Z" PURGE="0" COMMENT="" />
    <EXPORT ORDINAL="2594" NAME="?SysCMDFilter@CUFMenu@@KAXPAX0PA_N@Z" PURGE="0" COMMENT="" />
    <EXPORT ORDINAL="2595" NAME="?TerminateAnimation@CUFAnimationManager@@QAEXXZ" PURGE="0" COMMENT="" />
    <EXPORT ORDINAL="2596" NAME="?TerminateAnimation@CUFElement@@UAEXXZ" PURGE="0" COMMENT="" />
    <EXPORT ORDINAL="2597" NAME="?TexThreadProc@CUFThreadTextureManager@@CGIPAX@Z" PURGE="4" COMMENT="" />
    <EXPORT ORDINAL="2598" NAME="?TopFont@IUFFont@@SAPAV1@XZ" PURGE="0" COMMENT="" />
    <EXPORT ORDINAL="2599" NAME="?TrackMouse@CUFEventDispatcher@@CA_NXZ" PURGE="0" COMMENT="" />
    <EXPORT ORDINAL="2600" NAME="?TranslateAccel@CUFWin32AccelManager@@QAE_NPAUHWND__@@PAUtagMSG@@@Z" PURGE="8" COMMENT="" />
    <EXPORT ORDINAL="2601" NAME="?TranslateCommmandEvent@CUFWin32EventProcessor@@AAEPAUtagUFCOMMANDEVENT_t@@PAUtagWIN32RAWEVENTPARAMS@@@Z" PURGE="4" COMMENT="" />
    <EXPORT ORDINAL="2602" NAME="?TranslateDispChangeEvent@CUFWin32EventProcessor@@AAEPAUtagUFDISPCHANGEEVENT_t@@PAUtagWIN32RAWEVENTPARAMS@@@Z" PURGE="4" COMMENT="" />
    <EXPORT ORDINAL="2603" NAME="?TranslateEvent@CUFWin32EventProcessor@@UAEPAUtagUFEVENT_t@@PAXPA_N@Z" PURGE="8" COMMENT="" />
    <EXPORT ORDINAL="2604" NAME="?TranslateFlickEvent@CUFWin32EventProcessor@@AAEPAUtagUFFLICKEVENT_t@@PAUtagWIN32RAWEVENTPARAMS@@@Z" PURGE="4" COMMENT="" />
    <EXPORT ORDINAL="2605" NAME="?TranslateGestureEvent@CUFWin32EventProcessor@@AAEPAUtagUFGESTUREEVENT_t@@PAUtagWIN32RAWEVENTPARAMS@@@Z" PURGE="4" COMMENT="" />
    <EXPORT ORDINAL="2606" NAME="?TranslateGestureNotifyEvent@CUFWin32EventProcessor@@AAEPAUtagUFGESTURENOTIFYEVENT_t@@PAUtagWIN32RAWEVENTPARAMS@@@Z" PURGE="4" COMMENT="" />
    <EXPORT ORDINAL="2607" NAME="?TranslateGestureQueryEvent@CUFWin32EventProcessor@@AAEPAUtagUFGESTUREQUERYSTATUSEVENT_t@@PAUtagWIN32RAWEVENTPARAMS@@@Z" PURGE="4" COMMENT="" />
    <EXPORT ORDINAL="2608" NAME="?TranslateKeyEvent@CUFWin32EventProcessor@@AAEPAUtagUFKEYEVENT_t@@PAUtagWIN32RAWEVENTPARAMS@@@Z" PURGE="4" COMMENT="" />
    <EXPORT ORDINAL="2609" NAME="?TranslateMouseEvent@CUFWin32EventProcessor@@AAEPAUtagUFMOUSEEVENT_t@@PAUtagWIN32RAWEVENTPARAMS@@@Z" PURGE="4" COMMENT="" />
    <EXPORT ORDINAL="2610" NAME="?TranslateQuitEvent@CUFWin32EventProcessor@@AAEPAUtagUFQUITEVENT_t@@PAUtagWIN32RAWEVENTPARAMS@@@Z" PURGE="4" COMMENT="" />
    <EXPORT ORDINAL="2611" NAME="?TranslateSetCursorEvent@CUFWin32EventProcessor@@AAEPAUtagUFSETCURSOREVENT_t@@PAUtagWIN32RAWEVENTPARAMS@@@Z" PURGE="4" COMMENT="" />
    <EXPORT ORDINAL="2612" NAME="?TranslateSimpleEvent@CUFWin32EventProcessor@@AAEPAUtagUFEVENT_t@@IPAUtagWIN32RAWEVENTPARAMS@@@Z" PURGE="8" COMMENT="" />
    <EXPORT ORDINAL="2613" NAME="?TranslateWinDestroyEvent@CUFWin32EventProcessor@@AAEPAUtagUFWNDDESTROYEVENT_t@@PAUtagWIN32RAWEVENTPARAMS@@@Z" PURGE="4" COMMENT="" />
    <EXPORT ORDINAL="2614" NAME="?TranslateWinMsgEvent@CUFWin32EventProcessor@@AAEPAUtagUFWINMSGEVENT_t@@PAUtagWIN32RAWEVENTPARAMS@@@Z" PURGE="4" COMMENT="" />
    <EXPORT ORDINAL="2615" NAME="?TranslateWndMoveEvent@CUFWin32EventProcessor@@AAEPAUtagUFWNDMOVEEVENT_t@@PAUtagWIN32RAWEVENTPARAMS@@@Z" PURGE="4" COMMENT="" />
    <EXPORT ORDINAL="2616" NAME="?TranslateWndSizeEvent@CUFWin32EventProcessor@@AAEPAUtagUFWNDSIZEEVENT_t@@PAUtagWIN32RAWEVENTPARAMS@@@Z" PURGE="4" COMMENT="" />
    <EXPORT ORDINAL="2617" NAME="?UFGetImageInfoFromFile@IUFTextureManager@@SA_NABV?$basic_string@_WU?$char_traits@_W@std@@V?$allocator@_W@2@@std@@PAUtagTEXTUREINFO_t@@@Z" PURGE="0" COMMENT="" />
    <EXPORT ORDINAL="2618" NAME="?UFGetImageInfoFromStream@IUFTextureManager@@SA_NPBXPAUtagTEXTUREINFO_t@@@Z" PURGE="0" COMMENT="" />
    <EXPORT ORDINAL="2619" NAME="?UFPerspective@CUFD2DDevice@@UAE_NMMMM@Z" PURGE="16" COMMENT="" />
    <EXPORT ORDINAL="2620" NAME="?UFPerspective@CUFD2DDeviceDxgi@@UAE_NMMMM@Z" PURGE="16" COMMENT="" />
    <EXPORT ORDINAL="2621" NAME="?UFPerspective@CUFDx10Device@@UAE_NMMMM@Z" PURGE="16" COMMENT="" />
    <EXPORT ORDINAL="2622" NAME="?UFPerspective@CUFDxDevice@@UAE_NMMMM@Z" PURGE="16" COMMENT="" />
    <EXPORT ORDINAL="2623" NAME="?UnRegisterItem@CUFThreadTextureManager@@UAEXJ@Z" PURGE="4" COMMENT="" />
    <EXPORT ORDINAL="2624" NAME="?UninitManagerRes@CUFThreadTextureManager@@AAEXXZ" PURGE="0" COMMENT="" />
    <EXPORT ORDINAL="2625" NAME="?UnregistLayer@CUFLayerManager@@QAEXPAVCUFLayer@@@Z" PURGE="4" COMMENT="" />
    <EXPORT ORDINAL="2626" NAME="?UpdateBackImage@CUFButton@@MAEXPAVCUFImage@@@Z" PURGE="4" COMMENT="" />
    <EXPORT ORDINAL="2627" NAME="?UpdateButtonState@CUFButtonDecoration@@UAEXH@Z" PURGE="4" COMMENT="" />
    <EXPORT ORDINAL="2628" NAME="?UpdateButtonState@CUFDecorateButton@@UAEXW4tagBUTTONSTATEnum@@@Z" PURGE="4" COMMENT="" />
    <EXPORT ORDINAL="2629" NAME="?UpdateButtonState@CUFOverlayButton@@IAEXPAVCUFHFPicContainer@@W4enumBUTTONFONTTYPE@@@Z" PURGE="8" COMMENT="" />
    <EXPORT ORDINAL="2630" NAME="?UpdateCheckState@CUFRadioButton@@IAEX_N@Z" PURGE="4" COMMENT="" />
    <EXPORT ORDINAL="2631" NAME="?UpdateFocusImage@CUFRangeBase@@MAEXPBVCUFImage@@@Z" PURGE="4" COMMENT="" />
    <EXPORT ORDINAL="2632" NAME="?UpdateFontColor@CUFButton@@AAEXUtagColor_t@@@Z" PURGE="4" COMMENT="" />
    <EXPORT ORDINAL="2633" NAME="?UpdateFontColor@CUFOverlayButton@@AAEXUtagColor_t@@@Z" PURGE="4" COMMENT="" />
    <EXPORT ORDINAL="2634" NAME="?UpdateFontState@CUFButton@@IAEXW4enumBUTTONFONTTYPE@@@Z" PURGE="4" COMMENT="" />
    <EXPORT ORDINAL="2635" NAME="?UpdateFontState@CUFButtonDecoration@@UAEXW4enumBUTTONFONTTYPE@@@Z" PURGE="4" COMMENT="" />
    <EXPORT ORDINAL="2636" NAME="?UpdateSelectedRect@CUFListBox@@IAEXAAUtagUFRECTF_t@@@Z" PURGE="4" COMMENT="" />
    <EXPORT ORDINAL="2637" NAME="?UpdateSize@CUFHFPicContainer@@QAE_NMM@Z" PURGE="8" COMMENT="" />
    <EXPORT ORDINAL="2638" NAME="?UpdateSize@CUFOverlayContainer@@QAE_NMM@Z" PURGE="8" COMMENT="" />
    <EXPORT ORDINAL="2639" NAME="?UpdateState@CUFOverlayContainer@@IAEXPAVCUFHFPicContainer@@@Z" PURGE="4" COMMENT="" />
    <EXPORT ORDINAL="2640" NAME="?UpdateThumbButtonState@CUFSliderBar@@QAEXW4tagBUTTONSTATEnum@@@Z" PURGE="4" COMMENT="" />
    <EXPORT ORDINAL="2641" NAME="?UpdateToggleImage@CUFCheckBox@@MAEXW4enumFOCUSTYPE@CUFStateButton@@@Z" PURGE="4" COMMENT="" />
    <EXPORT ORDINAL="2642" NAME="?UpdateToggleImage@CUFRadioButton@@MAEXW4enumFOCUSTYPE@CUFStateButton@@@Z" PURGE="4" COMMENT="" />
    <EXPORT ORDINAL="2643" NAME="?UpdateToggleImage@CUFStateButton@@MAEXW4enumFOCUSTYPE@1@@Z" PURGE="4" COMMENT="" />
    <EXPORT ORDINAL="2644" NAME="?UpdateValue@CUFRangeBase@@MAEXM@Z" PURGE="4" COMMENT="" />
    <EXPORT ORDINAL="2645" NAME="?UpdateValue@CUFSliderBar@@MAEXM@Z" PURGE="4" COMMENT="" />
    <EXPORT ORDINAL="2646" NAME="?ValidateElement@CUFEventDispatcher@@CA_NPAVCUFEventTarget@@@Z" PURGE="0" COMMENT="" />
    <EXPORT ORDINAL="2647" NAME="?VerticalDirectionMove@CUFListBox@@MAEXPAVCUFItemControl@@0@Z" PURGE="8" COMMENT="" />
    <EXPORT ORDINAL="2648" NAME="?WindowProc@CUFWin32Window@@SGJPAUHWND__@@IIJ@Z" PURGE="16" COMMENT="" />
    <EXPORT ORDINAL="2649" NAME="?WorkProc@CUFThreadTextureManager@@AAEXXZ" PURGE="0" COMMENT="" />
    <EXPORT ORDINAL="2650" NAME="?WriteLog@CUFLog@@QAA_NKABV?$basic_string@DU?$char_traits@D@std@@V?$allocator@D@2@@std@@0IV?$basic_string@_WU?$char_traits@_W@std@@V?$allocator@_W@2@@3@HZZ" PURGE="0" COMMENT="" />
    <EXPORT ORDINAL="2651" NAME="?WsToSting@CUFLog@@AAE?AV?$basic_string@DU?$char_traits@D@std@@V?$allocator@D@2@@std@@ABV?$basic_string@_WU?$char_traits@_W@std@@V?$allocator@_W@2@@3@@Z" PURGE="8" COMMENT="" />
    <EXPORT ORDINAL="2652" NAME="?m_defFontName@IUFFont@@1V?$basic_string@_WU?$char_traits@_W@std@@V?$allocator@_W@2@@std@@A" PURGE="-1" COMMENT="" />
    <EXPORT ORDINAL="2653" NAME="?m_dwInstance@CUFDxFont@@0KA" PURGE="-1" COMMENT="" />
    <EXPORT ORDINAL="2654" NAME="?m_dwInstances@CUFDxSound@@0KA" PURGE="-1" COMMENT="" />
    <EXPORT ORDINAL="2655" NAME="?m_enumPlat@CDeviceCreator@@0W4enumRENDER_PLAT@@A" PURGE="-1" COMMENT="" />
    <EXPORT ORDINAL="2656" NAME="?m_mapModle@CUFLog@@0V?$map@V?$basic_string@_WU?$char_traits@_W@std@@V?$allocator@_W@2@@std@@PAU_iobuf@@U?$less@V?$basic_string@_WU?$char_traits@_W@std@@V?$allocator@_W@2@@std@@@2@V?$allocator@U?$pair@$$CBV?$basic_string@_WU?$char_traits@_W@std@@V?$allocator@_W@2@@std@@PAU_iobuf@@@std@@@2@@std@@A" PURGE="-1" COMMENT="" />
    <EXPORT ORDINAL="2657" NAME="?m_pBlendColorBrush@CUFD2DMetaProperty@@0PAUID2D1SolidColorBrush@@A" PURGE="-1" COMMENT="" />
    <EXPORT ORDINAL="2658" NAME="?m_pDevice@CDeviceCreator@@0PAVIUFDevice@@A" PURGE="-1" COMMENT="" />
    <EXPORT ORDINAL="2659" NAME="?m_pDevice@CUFWin32Window@@1PAVIUFDevice@@A" PURGE="-1" COMMENT="" />
    <EXPORT ORDINAL="2660" NAME="?m_pDirectSound@CUFDxSound@@0PAUIDirectSound@@A" PURGE="-1" COMMENT="" />
    <EXPORT ORDINAL="2661" NAME="?m_pInstance@CUFD2D3DEffectResource@@0PAV1@A" PURGE="-1" COMMENT="" />
    <EXPORT ORDINAL="2662" NAME="?m_pInstance@CUFLog@@0PAV1@A" PURGE="-1" COMMENT="" />
    <EXPORT ORDINAL="2663" NAME="?m_pInstance@CUFThreadTextureManager@@0PAV1@A" PURGE="-1" COMMENT="" />
    <EXPORT ORDINAL="2664" NAME="?m_pLogFile@CUFLog@@0PAU_iobuf@@A" PURGE="-1" COMMENT="" />
    <EXPORT ORDINAL="2665" NAME="?m_pSprite@CUFDxFont@@0PAUID3DXSprite@@A" PURGE="-1" COMMENT="" />
    <EXPORT ORDINAL="2666" NAME="?m_pTexInstance@IUFTextureManager@@0PAV1@A" PURGE="-1" COMMENT="" />
    <EXPORT ORDINAL="2667" NAME="?m_resourceFontContext@CUFDWriteFont@@0PAVCUFResourceFontContext@@A" PURGE="-1" COMMENT="" />
    <EXPORT ORDINAL="2668" NAME="?m_strLogDir@CUFLog@@0V?$basic_string@_WU?$char_traits@_W@std@@V?$allocator@_W@2@@std@@A" PURGE="-1" COMMENT="" />
    <EXPORT ORDINAL="2669" NAME="?m_strLogPath@CUFLog@@0V?$basic_string@_WU?$char_traits@_W@std@@V?$allocator@_W@2@@std@@A" PURGE="-1" COMMENT="" />
    <EXPORT ORDINAL="2670" NAME="?s_FontStack@IUFFont@@1V?$stack@PAVIUFFont@@V?$deque@PAVIUFFont@@V?$allocator@PAVIUFFont@@@std@@@std@@@std@@A" PURGE="-1" COMMENT="" />
    <EXPORT ORDINAL="2671" NAME="?s_bMouseTracked@CUFEventDispatcher@@0_NA" PURGE="-1" COMMENT="" />
    <EXPORT ORDINAL="2672" NAME="?s_mapFonts@IUFFont@@1V?$map@UtagUFFONTPARAMETER_t@@PAVIUFFont@@U?$less@UtagUFFONTPARAMETER_t@@@std@@V?$allocator@U?$pair@$$CBUtagUFFONTPARAMETER_t@@PAVIUFFont@@@std@@@4@@std@@A" PURGE="-1" COMMENT="" />
    <EXPORT ORDINAL="2673" NAME="?s_pD2D1Factory@CUFD2DDevice@@1PAUID2D1Factory@@A" PURGE="-1" COMMENT="" />
    <EXPORT ORDINAL="2674" NAME="?s_pDWriteFactory@CUFD2DDevice@@1PAUIDWriteFactory@@A" PURGE="-1" COMMENT="" />
    <EXPORT ORDINAL="2675" NAME="?s_pHittestLastHit@CUFEventDispatcher@@0PAVCUFEventTarget@@A" PURGE="-1" COMMENT="" />
    <EXPORT ORDINAL="2676" NAME="?s_pInstance@CUFEventManager@@0PAV1@A" PURGE="-1" COMMENT="" />
    <EXPORT ORDINAL="2677" NAME="?s_pInstance@CUFTimerManager@@0PAV1@A" PURGE="-1" COMMENT="" />
    <EXPORT ORDINAL="2678" NAME="?s_pInstance@CUFWin32AccelManager@@0PAV1@A" PURGE="-1" COMMENT="" />
    <EXPORT ORDINAL="2679" NAME="?s_pMainWnd@IUFWindow@@0PAV1@A" PURGE="-1" COMMENT="" />
    <EXPORT ORDINAL="2680" NAME="?s_pRenderTarget@CUFDWriteFont@@0PAUID2D1RenderTarget@@A" PURGE="-1" COMMENT="" />
    <EXPORT ORDINAL="2681" NAME="?s_pTabStopLastHit@CUFEventDispatcher@@0PAVCUFElement@@A" PURGE="-1" COMMENT="" />
    <EXPORT ORDINAL="2682" NAME="?s_pTrackWnd@CUFEventDispatcher@@0PAXA" PURGE="-1" COMMENT="" />
    <EXPORT ORDINAL="2683" NAME="?s_usCmd@CUFWin32AccelManager@@0GA" PURGE="-1" COMMENT="" />
</LIBRARY>

