<?xml version="1.0" encoding="UTF-8"?>
<LIBRARY NAME="ui.dll" PATH="/DLLArchive/etc/ui.dll" DATE="Fri Jul 03 13:24:33 PDT 2020" VERSION="">
    <EXPORT ORDINAL="1" NAME="?$S10@?1??StaticClass@UTimedTextArea@@SAPAVuiClass@@XZ@4IA" PURGE="-1" COMMENT="" />
    <EXPORT ORDINAL="2" NAME="?$S11@?1??StaticClass@UScrollTextArea@@SAPAVuiClass@@XZ@4IA" PURGE="-1" COMMENT="" />
    <EXPORT ORDINAL="3" NAME="?$S12@?1??StaticClass@UScrollFrame@@SAPAVuiClass@@XZ@4IA" PURGE="-1" COMMENT="" />
    <EXPORT ORDINAL="4" NAME="?$S13@?1??StaticClass@UScrollBar@@SAPAVuiClass@@XZ@4IA" PURGE="-1" COMMENT="" />
    <EXPORT ORDINAL="5" NAME="?$S14@?1??StaticClass@UImageWipe@@SAPAVuiClass@@XZ@4IA" PURGE="-1" COMMENT="" />
    <EXPORT ORDINAL="6" NAME="?$S15@?1??StaticClass@UTileContainer@@SAPAVuiClass@@XZ@4IA" PURGE="-1" COMMENT="" />
    <EXPORT ORDINAL="7" NAME="?$S16@?1??StaticClass@UMultiStateComponent@@SAPAVuiClass@@XZ@4IA" PURGE="-1" COMMENT="" />
    <EXPORT ORDINAL="8" NAME="?$S17@?1??StaticClass@UPlayerID@@SAPAVuiClass@@XZ@4IA" PURGE="-1" COMMENT="" />
    <EXPORT ORDINAL="9" NAME="?$S18@?1??StaticClass@UButton@@SAPAVuiClass@@XZ@4IA" PURGE="-1" COMMENT="" />
    <EXPORT ORDINAL="10" NAME="?$S19@?1??StaticClass@UHoldButton@@SAPAVuiClass@@XZ@4IA" PURGE="-1" COMMENT="" />
    <EXPORT ORDINAL="11" NAME="?$S1@?1??GetInstance@FNameTable@@SAPAV2@XZ@4IA" PURGE="-1" COMMENT="" />
    <EXPORT ORDINAL="12" NAME="?$S20@?1??StaticClass@UFrame@@SAPAVuiClass@@XZ@4IA" PURGE="-1" COMMENT="" />
    <EXPORT ORDINAL="13" NAME="?$S21@?1??StaticClass@URealComponent@@SAPAVuiClass@@XZ@4IA" PURGE="-1" COMMENT="" />
    <EXPORT ORDINAL="14" NAME="?$S22@?1??StaticClass@UTextComponentBase@@SAPAVuiClass@@XZ@4IA" PURGE="-1" COMMENT="" />
    <EXPORT ORDINAL="15" NAME="?$S23@?1??StaticClass@UVarWatcher@@SAPAVuiClass@@XZ@4IA" PURGE="-1" COMMENT="" />
    <EXPORT ORDINAL="16" NAME="?$S24@?1??StaticClass@ULabel@@SAPAVuiClass@@XZ@4IA" PURGE="-1" COMMENT="" />
    <EXPORT ORDINAL="17" NAME="?$S25@?1??StaticClass@ULabelShadow@@SAPAVuiClass@@XZ@4IA" PURGE="-1" COMMENT="" />
    <EXPORT ORDINAL="18" NAME="?$S26@?1??StaticClass@UTimedLabel@@SAPAVuiClass@@XZ@4IA" PURGE="-1" COMMENT="" />
    <EXPORT ORDINAL="19" NAME="?$S27@?1??StaticClass@USelectorList@@SAPAVuiClass@@XZ@4IA" PURGE="-1" COMMENT="" />
    <EXPORT ORDINAL="20" NAME="?$S28@?1??StaticClass@USelectorItem@@SAPAVuiClass@@XZ@4IA" PURGE="-1" COMMENT="" />
    <EXPORT ORDINAL="21" NAME="?$S29@?1??StaticClass@USelector@@SAPAVuiClass@@XZ@4IA" PURGE="-1" COMMENT="" />
    <EXPORT ORDINAL="22" NAME="?$S30@?1??StaticClass@UInputSelector@@SAPAVuiClass@@XZ@4IA" PURGE="-1" COMMENT="" />
    <EXPORT ORDINAL="23" NAME="?$S31@?1??StaticClass@UTextField@@SAPAVuiClass@@XZ@4IA" PURGE="-1" COMMENT="" />
    <EXPORT ORDINAL="24" NAME="?$S32@?1??StaticClass@UNumWatcher@@SAPAVuiClass@@XZ@4IA" PURGE="-1" COMMENT="" />
    <EXPORT ORDINAL="25" NAME="?$S33@?1??StaticClass@USoundComponent@@SAPAVuiClass@@XZ@4IA" PURGE="-1" COMMENT="" />
    <EXPORT ORDINAL="26" NAME="?$S34@?1??StaticClass@UImage@@SAPAVuiClass@@XZ@4IA" PURGE="-1" COMMENT="" />
    <EXPORT ORDINAL="27" NAME="?$S35@?1??StaticClass@UImageComponentBase@@SAPAVuiClass@@XZ@4IA" PURGE="-1" COMMENT="" />
    <EXPORT ORDINAL="28" NAME="?$S36@?1??StaticClass@UImageComponent@@SAPAVuiClass@@XZ@4IA" PURGE="-1" COMMENT="" />
    <EXPORT ORDINAL="29" NAME="?$S37@?1??StaticClass@UTimedImage@@SAPAVuiClass@@XZ@4IA" PURGE="-1" COMMENT="" />
    <EXPORT ORDINAL="30" NAME="?$S38@?1??StaticClass@USlider@@SAPAVuiClass@@XZ@4IA" PURGE="-1" COMMENT="" />
    <EXPORT ORDINAL="31" NAME="?$S39@?1??StaticClass@UMouseCursor@@SAPAVuiClass@@XZ@4IA" PURGE="-1" COMMENT="" />
    <EXPORT ORDINAL="32" NAME="?$S40@?1??StaticClass@UImageWedge@@SAPAVuiClass@@XZ@4IA" PURGE="-1" COMMENT="" />
    <EXPORT ORDINAL="33" NAME="?$S41@?1??StaticClass@UCheckBox@@SAPAVuiClass@@XZ@4IA" PURGE="-1" COMMENT="" />
    <EXPORT ORDINAL="34" NAME="?$S42@?1??StaticClass@UButtonImage@@SAPAVuiClass@@XZ@4IA" PURGE="-1" COMMENT="" />
    <EXPORT ORDINAL="35" NAME="?$S43@?1??StaticClass@UMultiImageComponent@@SAPAVuiClass@@XZ@4IA" PURGE="-1" COMMENT="" />
    <EXPORT ORDINAL="36" NAME="?$S44@?1??StaticClass@UAnimatedImageComponent@@SAPAVuiClass@@XZ@4IA" PURGE="-1" COMMENT="" />
    <EXPORT ORDINAL="37" NAME="?$S45@?1??StaticClass@UScriptComponent@@SAPAVuiClass@@XZ@4IA" PURGE="-1" COMMENT="" />
    <EXPORT ORDINAL="38" NAME="?$S46@?1??StaticClass@UKeyEvent@@SAPAVuiClass@@XZ@4IA" PURGE="-1" COMMENT="" />
    <EXPORT ORDINAL="39" NAME="?$S47@?1??StaticClass@UEditor@@SAPAVuiClass@@XZ@4IA" PURGE="-1" COMMENT="" />
    <EXPORT ORDINAL="40" NAME="?$S48@?1??StaticClass@UComponentHandle@@SAPAVuiClass@@XZ@4IA" PURGE="-1" COMMENT="" />
    <EXPORT ORDINAL="41" NAME="?$S49@?1??StaticClass@UMoveHandle@@SAPAVuiClass@@XZ@4IA" PURGE="-1" COMMENT="" />
    <EXPORT ORDINAL="42" NAME="?$S4@?1??StaticClass@UComponent@@SAPAVuiClass@@XZ@4IA" PURGE="-1" COMMENT="" />
    <EXPORT ORDINAL="43" NAME="?$S50@?1??StaticClass@UResizeHandle@@SAPAVuiClass@@XZ@4IA" PURGE="-1" COMMENT="" />
    <EXPORT ORDINAL="44" NAME="?$S51@?1??StaticClass@UResizeHandleN@@SAPAVuiClass@@XZ@4IA" PURGE="-1" COMMENT="" />
    <EXPORT ORDINAL="45" NAME="?$S52@?1??StaticClass@UResizeHandleS@@SAPAVuiClass@@XZ@4IA" PURGE="-1" COMMENT="" />
    <EXPORT ORDINAL="46" NAME="?$S53@?1??StaticClass@UResizeHandleE@@SAPAVuiClass@@XZ@4IA" PURGE="-1" COMMENT="" />
    <EXPORT ORDINAL="47" NAME="?$S54@?1??StaticClass@UResizeHandleW@@SAPAVuiClass@@XZ@4IA" PURGE="-1" COMMENT="" />
    <EXPORT ORDINAL="48" NAME="?$S55@?1??StaticClass@UResizeHandleNE@@SAPAVuiClass@@XZ@4IA" PURGE="-1" COMMENT="" />
    <EXPORT ORDINAL="49" NAME="?$S56@?1??StaticClass@UResizeHandleNW@@SAPAVuiClass@@XZ@4IA" PURGE="-1" COMMENT="" />
    <EXPORT ORDINAL="50" NAME="?$S57@?1??StaticClass@UResizeHandleSE@@SAPAVuiClass@@XZ@4IA" PURGE="-1" COMMENT="" />
    <EXPORT ORDINAL="51" NAME="?$S58@?1??StaticClass@UResizeHandleSW@@SAPAVuiClass@@XZ@4IA" PURGE="-1" COMMENT="" />
    <EXPORT ORDINAL="52" NAME="?$S59@?1??StaticClass@UCredits@@SAPAVuiClass@@XZ@4IA" PURGE="-1" COMMENT="" />
    <EXPORT ORDINAL="53" NAME="?$S5@?1??StaticClass@UContainer@@SAPAVuiClass@@XZ@4IA" PURGE="-1" COMMENT="" />
    <EXPORT ORDINAL="54" NAME="?$S60@?1??StaticClass@UMaterialContainer@@SAPAVuiClass@@XZ@4IA" PURGE="-1" COMMENT="" />
    <EXPORT ORDINAL="55" NAME="?$S6@?1??StaticClass@UFixedSizeContainer@@SAPAVuiClass@@XZ@4IA" PURGE="-1" COMMENT="" />
    <EXPORT ORDINAL="56" NAME="?$S7@?1??StaticClass@UScaleContainer@@SAPAVuiClass@@XZ@4IA" PURGE="-1" COMMENT="" />
    <EXPORT ORDINAL="57" NAME="?$S8@?1??StaticClass@UWindow@@SAPAVuiClass@@XZ@4IA" PURGE="-1" COMMENT="" />
    <EXPORT ORDINAL="58" NAME="?$S9@?1??StaticClass@UTextArea@@SAPAVuiClass@@XZ@4IA" PURGE="-1" COMMENT="" />
    <EXPORT ORDINAL="59" NAME="??0ActionEvent@@QAE@ABV0@@Z" PURGE="4" COMMENT="" />
    <EXPORT ORDINAL="60" NAME="??0ActionEvent@@QAE@K@Z" PURGE="4" COMMENT="" />
    <EXPORT ORDINAL="61" NAME="??0ActionEvent@@QAE@XZ" PURGE="0" COMMENT="" />
    <EXPORT ORDINAL="62" NAME="??0ComponentNotifyInfo@@QAE@ABV0@@Z" PURGE="4" COMMENT="" />
    <EXPORT ORDINAL="63" NAME="??0ComponentNotifyInfo@@QAE@PAVUComponent@@PAVActionEvent@@@Z" PURGE="8" COMMENT="" />
    <EXPORT ORDINAL="64" NAME="??0ComponentNotifyInfo@@QAE@XZ" PURGE="0" COMMENT="" />
    <EXPORT ORDINAL="65" NAME="??0ConsoleCommandEvent@@QAE@ABV0@@Z" PURGE="4" COMMENT="" />
    <EXPORT ORDINAL="66" NAME="??0ConsoleCommandEvent@@QAE@KVFString@@@Z" PURGE="16" COMMENT="" />
    <EXPORT ORDINAL="67" NAME="??0ConsoleCommandEvent@@QAE@XZ" PURGE="0" COMMENT="" />
    <EXPORT ORDINAL="68" NAME="??0CutsceneTimedEvent@@QAE@ABV0@@Z" PURGE="4" COMMENT="" />
    <EXPORT ORDINAL="69" NAME="??0CutsceneTimedEvent@@QAE@KVFString@@0M@Z" PURGE="32" COMMENT="" />
    <EXPORT ORDINAL="70" NAME="??0CutsceneTimedEvent@@QAE@XZ" PURGE="0" COMMENT="" />
    <EXPORT ORDINAL="71" NAME="??0EventDisabler@@QAE@ABV0@@Z" PURGE="4" COMMENT="" />
    <EXPORT ORDINAL="72" NAME="??0EventDisabler@@QAE@KPAVUComponent@@H@Z" PURGE="12" COMMENT="" />
    <EXPORT ORDINAL="73" NAME="??0EventDisabler@@QAE@XZ" PURGE="0" COMMENT="" />
    <EXPORT ORDINAL="74" NAME="??0EventEnabler@@QAE@ABV0@@Z" PURGE="4" COMMENT="" />
    <EXPORT ORDINAL="75" NAME="??0EventEnabler@@QAE@KPAVUComponent@@H@Z" PURGE="12" COMMENT="" />
    <EXPORT ORDINAL="76" NAME="??0EventEnabler@@QAE@XZ" PURGE="0" COMMENT="" />
    <EXPORT ORDINAL="77" NAME="??0EventSender@@QAE@ABV0@@Z" PURGE="4" COMMENT="" />
    <EXPORT ORDINAL="78" NAME="??0EventSender@@QAE@KPAVUComponent@@H@Z" PURGE="12" COMMENT="" />
    <EXPORT ORDINAL="79" NAME="??0EventSender@@QAE@XZ" PURGE="0" COMMENT="" />
    <EXPORT ORDINAL="80" NAME="??0ExpressionEvent@@QAE@ABV0@@Z" PURGE="4" COMMENT="" />
    <EXPORT ORDINAL="81" NAME="??0ExpressionEvent@@QAE@KVFString@@PAVUComponent@@@Z" PURGE="20" COMMENT="" />
    <EXPORT ORDINAL="82" NAME="??0ExpressionEvent@@QAE@XZ" PURGE="0" COMMENT="" />
    <EXPORT ORDINAL="83" NAME="??0FNameTable@@QAE@ABV0@@Z" PURGE="4" COMMENT="" />
    <EXPORT ORDINAL="84" NAME="??0FNameTable@@QAE@XZ" PURGE="0" COMMENT="" />
    <EXPORT ORDINAL="85" NAME="??0FSTRUCT_Transition@@QAE@ABU0@@Z" PURGE="4" COMMENT="" />
    <EXPORT ORDINAL="86" NAME="??0FSTRUCT_Transition@@QAE@XZ" PURGE="0" COMMENT="" />
    <EXPORT ORDINAL="87" NAME="??0FSTRUCT_TriggerDef@@QAE@MPAVActionEvent@@@Z" PURGE="8" COMMENT="" />
    <EXPORT ORDINAL="88" NAME="??0FSTRUCT_TriggerDef@@QAE@XZ" PURGE="0" COMMENT="" />
    <EXPORT ORDINAL="89" NAME="??0GameFlagEvent@@QAE@ABV0@@Z" PURGE="4" COMMENT="" />
    <EXPORT ORDINAL="90" NAME="??0GameFlagEvent@@QAE@KVFString@@H@Z" PURGE="20" COMMENT="" />
    <EXPORT ORDINAL="91" NAME="??0GameFlagEvent@@QAE@XZ" PURGE="0" COMMENT="" />
    <EXPORT ORDINAL="92" NAME="??0KeyframeEvent@@QAE@ABV0@@Z" PURGE="4" COMMENT="" />
    <EXPORT ORDINAL="93" NAME="??0KeyframeEvent@@QAE@K@Z" PURGE="4" COMMENT="" />
    <EXPORT ORDINAL="94" NAME="??0KeyframeEvent@@QAE@XZ" PURGE="0" COMMENT="" />
    <EXPORT ORDINAL="95" NAME="??0OwnerEvent@@QAE@ABV0@@Z" PURGE="4" COMMENT="" />
    <EXPORT ORDINAL="96" NAME="??0OwnerEvent@@QAE@KPAVUComponent@@VFString@@@Z" PURGE="20" COMMENT="" />
    <EXPORT ORDINAL="97" NAME="??0OwnerEvent@@QAE@XZ" PURGE="0" COMMENT="" />
    <EXPORT ORDINAL="98" NAME="??0PlayerCommandEvent@@QAE@ABV0@@Z" PURGE="4" COMMENT="" />
    <EXPORT ORDINAL="99" NAME="??0PlayerCommandEvent@@QAE@KVFString@@@Z" PURGE="16" COMMENT="" />
    <EXPORT ORDINAL="100" NAME="??0PlayerCommandEvent@@QAE@XZ" PURGE="0" COMMENT="" />
    <EXPORT ORDINAL="101" NAME="??0PlayerEvent@@QAE@ABV0@@Z" PURGE="4" COMMENT="" />
    <EXPORT ORDINAL="102" NAME="??0PlayerEvent@@QAE@KVFString@@@Z" PURGE="16" COMMENT="" />
    <EXPORT ORDINAL="103" NAME="??0PlayerEvent@@QAE@XZ" PURGE="0" COMMENT="" />
    <EXPORT ORDINAL="104" NAME="??0PlayerPawnEvent@@QAE@ABV0@@Z" PURGE="4" COMMENT="" />
    <EXPORT ORDINAL="105" NAME="??0PlayerPawnEvent@@QAE@KVFString@@@Z" PURGE="16" COMMENT="" />
    <EXPORT ORDINAL="106" NAME="??0PlayerPawnEvent@@QAE@XZ" PURGE="0" COMMENT="" />
    <EXPORT ORDINAL="107" NAME="??0ScriptEvent@@QAE@ABV0@@Z" PURGE="4" COMMENT="" />
    <EXPORT ORDINAL="108" NAME="??0ScriptEvent@@QAE@KPAVUObject@@VFString@@@Z" PURGE="20" COMMENT="" />
    <EXPORT ORDINAL="109" NAME="??0ScriptEvent@@QAE@XZ" PURGE="0" COMMENT="" />
    <EXPORT ORDINAL="110" NAME="??0UAnimatedImageComponent@@QAE@ABV0@@Z" PURGE="4" COMMENT="" />
    <EXPORT ORDINAL="111" NAME="??0UAnimatedImageComponent@@QAE@XZ" PURGE="0" COMMENT="" />
    <EXPORT ORDINAL="112" NAME="??0UButton@@QAE@ABV0@@Z" PURGE="4" COMMENT="" />
    <EXPORT ORDINAL="113" NAME="??0UButton@@QAE@XZ" PURGE="0" COMMENT="" />
    <EXPORT ORDINAL="114" NAME="??0UButtonImage@@QAE@ABV0@@Z" PURGE="4" COMMENT="" />
    <EXPORT ORDINAL="115" NAME="??0UButtonImage@@QAE@XZ" PURGE="0" COMMENT="" />
    <EXPORT ORDINAL="116" NAME="??0UCheckBox@@QAE@ABV0@@Z" PURGE="4" COMMENT="" />
    <EXPORT ORDINAL="117" NAME="??0UCheckBox@@QAE@XZ" PURGE="0" COMMENT="" />
    <EXPORT ORDINAL="118" NAME="??0UComponent@@QAE@ABV0@@Z" PURGE="4" COMMENT="" />
    <EXPORT ORDINAL="119" NAME="??0UComponent@@QAE@XZ" PURGE="0" COMMENT="" />
    <EXPORT ORDINAL="120" NAME="??0UComponentHandle@@QAE@ABV0@@Z" PURGE="4" COMMENT="" />
    <EXPORT ORDINAL="121" NAME="??0UComponentHandle@@QAE@XZ" PURGE="0" COMMENT="" />
    <EXPORT ORDINAL="122" NAME="??0UContainer@@QAE@ABV0@@Z" PURGE="4" COMMENT="" />
    <EXPORT ORDINAL="123" NAME="??0UContainer@@QAE@XZ" PURGE="0" COMMENT="" />
    <EXPORT ORDINAL="124" NAME="??0UCredits@@QAE@ABV0@@Z" PURGE="4" COMMENT="" />
    <EXPORT ORDINAL="125" NAME="??0UCredits@@QAE@XZ" PURGE="0" COMMENT="" />
    <EXPORT ORDINAL="126" NAME="??0UEditor@@QAE@ABV0@@Z" PURGE="4" COMMENT="" />
    <EXPORT ORDINAL="127" NAME="??0UEditor@@QAE@XZ" PURGE="0" COMMENT="" />
    <EXPORT ORDINAL="128" NAME="??0UFixedSizeContainer@@QAE@ABV0@@Z" PURGE="4" COMMENT="" />
    <EXPORT ORDINAL="129" NAME="??0UFixedSizeContainer@@QAE@XZ" PURGE="0" COMMENT="" />
    <EXPORT ORDINAL="130" NAME="??0UFrame@@QAE@ABV0@@Z" PURGE="4" COMMENT="" />
    <EXPORT ORDINAL="131" NAME="??0UFrame@@QAE@XZ" PURGE="0" COMMENT="" />
    <EXPORT ORDINAL="132" NAME="??0UHoldButton@@QAE@ABV0@@Z" PURGE="4" COMMENT="" />
    <EXPORT ORDINAL="133" NAME="??0UHoldButton@@QAE@XZ" PURGE="0" COMMENT="" />
    <EXPORT ORDINAL="134" NAME="??0UImage@@QAE@ABV0@@Z" PURGE="4" COMMENT="" />
    <EXPORT ORDINAL="135" NAME="??0UImage@@QAE@XZ" PURGE="0" COMMENT="" />
    <EXPORT ORDINAL="136" NAME="??0UImageComponent@@QAE@ABV0@@Z" PURGE="4" COMMENT="" />
    <EXPORT ORDINAL="137" NAME="??0UImageComponent@@QAE@XZ" PURGE="0" COMMENT="" />
    <EXPORT ORDINAL="138" NAME="??0UImageComponentBase@@QAE@ABV0@@Z" PURGE="4" COMMENT="" />
    <EXPORT ORDINAL="139" NAME="??0UImageComponentBase@@QAE@XZ" PURGE="0" COMMENT="" />
    <EXPORT ORDINAL="140" NAME="??0UImageWedge@@QAE@ABV0@@Z" PURGE="4" COMMENT="" />
    <EXPORT ORDINAL="141" NAME="??0UImageWedge@@QAE@XZ" PURGE="0" COMMENT="" />
    <EXPORT ORDINAL="142" NAME="??0UImageWipe@@QAE@ABV0@@Z" PURGE="4" COMMENT="" />
    <EXPORT ORDINAL="143" NAME="??0UImageWipe@@QAE@XZ" PURGE="0" COMMENT="" />
    <EXPORT ORDINAL="144" NAME="??0UInputSelector@@QAE@ABV0@@Z" PURGE="4" COMMENT="" />
    <EXPORT ORDINAL="145" NAME="??0UInputSelector@@QAE@XZ" PURGE="0" COMMENT="" />
    <EXPORT ORDINAL="146" NAME="??0UKeyEvent@@QAE@ABV0@@Z" PURGE="4" COMMENT="" />
    <EXPORT ORDINAL="147" NAME="??0UKeyEvent@@QAE@XZ" PURGE="0" COMMENT="" />
    <EXPORT ORDINAL="148" NAME="??0ULabel@@QAE@ABV0@@Z" PURGE="4" COMMENT="" />
    <EXPORT ORDINAL="149" NAME="??0ULabel@@QAE@XZ" PURGE="0" COMMENT="" />
    <EXPORT ORDINAL="150" NAME="??0ULabelShadow@@QAE@ABV0@@Z" PURGE="4" COMMENT="" />
    <EXPORT ORDINAL="151" NAME="??0ULabelShadow@@QAE@XZ" PURGE="0" COMMENT="" />
    <EXPORT ORDINAL="152" NAME="??0UMaterialContainer@@QAE@ABV0@@Z" PURGE="4" COMMENT="" />
    <EXPORT ORDINAL="153" NAME="??0UMaterialContainer@@QAE@XZ" PURGE="0" COMMENT="" />
    <EXPORT ORDINAL="154" NAME="??0UMouseCursor@@QAE@ABV0@@Z" PURGE="4" COMMENT="" />
    <EXPORT ORDINAL="155" NAME="??0UMouseCursor@@QAE@XZ" PURGE="0" COMMENT="" />
    <EXPORT ORDINAL="156" NAME="??0UMoveHandle@@QAE@ABV0@@Z" PURGE="4" COMMENT="" />
    <EXPORT ORDINAL="157" NAME="??0UMoveHandle@@QAE@XZ" PURGE="0" COMMENT="" />
    <EXPORT ORDINAL="158" NAME="??0UMultiImageComponent@@QAE@ABV0@@Z" PURGE="4" COMMENT="" />
    <EXPORT ORDINAL="159" NAME="??0UMultiImageComponent@@QAE@XZ" PURGE="0" COMMENT="" />
    <EXPORT ORDINAL="160" NAME="??0UMultiStateComponent@@QAE@ABV0@@Z" PURGE="4" COMMENT="" />
    <EXPORT ORDINAL="161" NAME="??0UMultiStateComponent@@QAE@XZ" PURGE="0" COMMENT="" />
    <EXPORT ORDINAL="162" NAME="??0UNumWatcher@@QAE@ABV0@@Z" PURGE="4" COMMENT="" />
    <EXPORT ORDINAL="163" NAME="??0UNumWatcher@@QAE@XZ" PURGE="0" COMMENT="" />
    <EXPORT ORDINAL="164" NAME="??0UPlayerID@@QAE@ABV0@@Z" PURGE="4" COMMENT="" />
    <EXPORT ORDINAL="165" NAME="??0UPlayerID@@QAE@XZ" PURGE="0" COMMENT="" />
    <EXPORT ORDINAL="166" NAME="??0URealComponent@@QAE@ABV0@@Z" PURGE="4" COMMENT="" />
    <EXPORT ORDINAL="167" NAME="??0URealComponent@@QAE@XZ" PURGE="0" COMMENT="" />
    <EXPORT ORDINAL="168" NAME="??0UResizeHandle@@QAE@ABV0@@Z" PURGE="4" COMMENT="" />
    <EXPORT ORDINAL="169" NAME="??0UResizeHandle@@QAE@XZ" PURGE="0" COMMENT="" />
    <EXPORT ORDINAL="170" NAME="??0UResizeHandleE@@QAE@ABV0@@Z" PURGE="4" COMMENT="" />
    <EXPORT ORDINAL="171" NAME="??0UResizeHandleE@@QAE@XZ" PURGE="0" COMMENT="" />
    <EXPORT ORDINAL="172" NAME="??0UResizeHandleN@@QAE@ABV0@@Z" PURGE="4" COMMENT="" />
    <EXPORT ORDINAL="173" NAME="??0UResizeHandleN@@QAE@XZ" PURGE="0" COMMENT="" />
    <EXPORT ORDINAL="174" NAME="??0UResizeHandleNE@@QAE@ABV0@@Z" PURGE="4" COMMENT="" />
    <EXPORT ORDINAL="175" NAME="??0UResizeHandleNE@@QAE@XZ" PURGE="0" COMMENT="" />
    <EXPORT ORDINAL="176" NAME="??0UResizeHandleNW@@QAE@ABV0@@Z" PURGE="4" COMMENT="" />
    <EXPORT ORDINAL="177" NAME="??0UResizeHandleNW@@QAE@XZ" PURGE="0" COMMENT="" />
    <EXPORT ORDINAL="178" NAME="??0UResizeHandleS@@QAE@ABV0@@Z" PURGE="4" COMMENT="" />
    <EXPORT ORDINAL="179" NAME="??0UResizeHandleS@@QAE@XZ" PURGE="0" COMMENT="" />
    <EXPORT ORDINAL="180" NAME="??0UResizeHandleSE@@QAE@ABV0@@Z" PURGE="4" COMMENT="" />
    <EXPORT ORDINAL="181" NAME="??0UResizeHandleSE@@QAE@XZ" PURGE="0" COMMENT="" />
    <EXPORT ORDINAL="182" NAME="??0UResizeHandleSW@@QAE@ABV0@@Z" PURGE="4" COMMENT="" />
    <EXPORT ORDINAL="183" NAME="??0UResizeHandleSW@@QAE@XZ" PURGE="0" COMMENT="" />
    <EXPORT ORDINAL="184" NAME="??0UResizeHandleW@@QAE@ABV0@@Z" PURGE="4" COMMENT="" />
    <EXPORT ORDINAL="185" NAME="??0UResizeHandleW@@QAE@XZ" PURGE="0" COMMENT="" />
    <EXPORT ORDINAL="186" NAME="??0UScaleContainer@@QAE@ABV0@@Z" PURGE="4" COMMENT="" />
    <EXPORT ORDINAL="187" NAME="??0UScaleContainer@@QAE@XZ" PURGE="0" COMMENT="" />
    <EXPORT ORDINAL="188" NAME="??0UScriptComponent@@QAE@ABV0@@Z" PURGE="4" COMMENT="" />
    <EXPORT ORDINAL="189" NAME="??0UScriptComponent@@QAE@XZ" PURGE="0" COMMENT="" />
    <EXPORT ORDINAL="190" NAME="??0UScrollBar@@QAE@ABV0@@Z" PURGE="4" COMMENT="" />
    <EXPORT ORDINAL="191" NAME="??0UScrollBar@@QAE@XZ" PURGE="0" COMMENT="" />
    <EXPORT ORDINAL="192" NAME="??0UScrollFrame@@QAE@ABV0@@Z" PURGE="4" COMMENT="" />
    <EXPORT ORDINAL="193" NAME="??0UScrollFrame@@QAE@XZ" PURGE="0" COMMENT="" />
    <EXPORT ORDINAL="194" NAME="??0UScrollTextArea@@QAE@ABV0@@Z" PURGE="4" COMMENT="" />
    <EXPORT ORDINAL="195" NAME="??0UScrollTextArea@@QAE@XZ" PURGE="0" COMMENT="" />
    <EXPORT ORDINAL="196" NAME="??0USelector@@QAE@ABV0@@Z" PURGE="4" COMMENT="" />
    <EXPORT ORDINAL="197" NAME="??0USelector@@QAE@XZ" PURGE="0" COMMENT="" />
    <EXPORT ORDINAL="198" NAME="??0USelectorItem@@QAE@ABV0@@Z" PURGE="4" COMMENT="" />
    <EXPORT ORDINAL="199" NAME="??0USelectorItem@@QAE@XZ" PURGE="0" COMMENT="" />
    <EXPORT ORDINAL="200" NAME="??0USelectorList@@QAE@ABV0@@Z" PURGE="4" COMMENT="" />
    <EXPORT ORDINAL="201" NAME="??0USelectorList@@QAE@XZ" PURGE="0" COMMENT="" />
    <EXPORT ORDINAL="202" NAME="??0USlider@@QAE@ABV0@@Z" PURGE="4" COMMENT="" />
    <EXPORT ORDINAL="203" NAME="??0USlider@@QAE@XZ" PURGE="0" COMMENT="" />
    <EXPORT ORDINAL="204" NAME="??0USoundComponent@@QAE@ABV0@@Z" PURGE="4" COMMENT="" />
    <EXPORT ORDINAL="205" NAME="??0USoundComponent@@QAE@XZ" PURGE="0" COMMENT="" />
    <EXPORT ORDINAL="206" NAME="??0UTexUIhook@@QAE@ABV0@@Z" PURGE="4" COMMENT="" />
    <EXPORT ORDINAL="207" NAME="??0UTexUIhook@@QAE@XZ" PURGE="0" COMMENT="" />
    <EXPORT ORDINAL="208" NAME="??0UTextArea@@QAE@ABV0@@Z" PURGE="4" COMMENT="" />
    <EXPORT ORDINAL="209" NAME="??0UTextArea@@QAE@XZ" PURGE="0" COMMENT="" />
    <EXPORT ORDINAL="210" NAME="??0UTextComponentBase@@QAE@ABV0@@Z" PURGE="4" COMMENT="" />
    <EXPORT ORDINAL="211" NAME="??0UTextComponentBase@@QAE@XZ" PURGE="0" COMMENT="" />
    <EXPORT ORDINAL="212" NAME="??0UTextField@@QAE@ABV0@@Z" PURGE="4" COMMENT="" />
    <EXPORT ORDINAL="213" NAME="??0UTextField@@QAE@XZ" PURGE="0" COMMENT="" />
    <EXPORT ORDINAL="214" NAME="??0UTileContainer@@QAE@ABV0@@Z" PURGE="4" COMMENT="" />
    <EXPORT ORDINAL="215" NAME="??0UTileContainer@@QAE@XZ" PURGE="0" COMMENT="" />
    <EXPORT ORDINAL="216" NAME="??0UTimedImage@@QAE@ABV0@@Z" PURGE="4" COMMENT="" />
    <EXPORT ORDINAL="217" NAME="??0UTimedImage@@QAE@XZ" PURGE="0" COMMENT="" />
    <EXPORT ORDINAL="218" NAME="??0UTimedLabel@@QAE@ABV0@@Z" PURGE="4" COMMENT="" />
    <EXPORT ORDINAL="219" NAME="??0UTimedLabel@@QAE@XZ" PURGE="0" COMMENT="" />
    <EXPORT ORDINAL="220" NAME="??0UTimedTextArea@@QAE@ABV0@@Z" PURGE="4" COMMENT="" />
    <EXPORT ORDINAL="221" NAME="??0UTimedTextArea@@QAE@XZ" PURGE="0" COMMENT="" />
    <EXPORT ORDINAL="222" NAME="??0UUIConsole@@QAE@ABV0@@Z" PURGE="4" COMMENT="" />
    <EXPORT ORDINAL="223" NAME="??0UUIConsole@@QAE@XZ" PURGE="0" COMMENT="" />
    <EXPORT ORDINAL="224" NAME="??0UUIHelper@@QAE@ABV0@@Z" PURGE="4" COMMENT="" />
    <EXPORT ORDINAL="225" NAME="??0UUIHelper@@QAE@XZ" PURGE="0" COMMENT="" />
    <EXPORT ORDINAL="226" NAME="??0UVarWatcher@@QAE@ABV0@@Z" PURGE="4" COMMENT="" />
    <EXPORT ORDINAL="227" NAME="??0UVarWatcher@@QAE@XZ" PURGE="0" COMMENT="" />
    <EXPORT ORDINAL="228" NAME="??0UWindow@@QAE@ABV0@@Z" PURGE="4" COMMENT="" />
    <EXPORT ORDINAL="229" NAME="??0UWindow@@QAE@XZ" PURGE="0" COMMENT="" />
    <EXPORT ORDINAL="230" NAME="??0uiClass@@QAE@ABV0@@Z" PURGE="4" COMMENT="" />
    <EXPORT ORDINAL="231" NAME="??0uiClass@@QAE@PAV0@PBG@Z" PURGE="8" COMMENT="" />
    <EXPORT ORDINAL="232" NAME="??0uiName@@QAE@GG@Z" PURGE="8" COMMENT="" />
    <EXPORT ORDINAL="233" NAME="??0uiName@@QAE@K@Z" PURGE="4" COMMENT="" />
    <EXPORT ORDINAL="234" NAME="??0uiName@@QAE@VFString@@@Z" PURGE="12" COMMENT="" />
    <EXPORT ORDINAL="235" NAME="??0uiName@@QAE@XZ" PURGE="0" COMMENT="" />
    <EXPORT ORDINAL="236" NAME="??1ActionEvent@@UAE@XZ" PURGE="0" COMMENT="" />
    <EXPORT ORDINAL="237" NAME="??1ComponentNotifyInfo@@UAE@XZ" PURGE="-1" COMMENT="" />
    <EXPORT ORDINAL="238" NAME="??1ConsoleCommandEvent@@UAE@XZ" PURGE="0" COMMENT="" />
    <EXPORT ORDINAL="239" NAME="??1CutsceneTimedEvent@@UAE@XZ" PURGE="0" COMMENT="" />
    <EXPORT ORDINAL="240" NAME="??1EventDisabler@@UAE@XZ" PURGE="0" COMMENT="" />
    <EXPORT ORDINAL="241" NAME="??1EventEnabler@@UAE@XZ" PURGE="0" COMMENT="" />
    <EXPORT ORDINAL="242" NAME="??1EventSender@@UAE@XZ" PURGE="0" COMMENT="" />
    <EXPORT ORDINAL="243" NAME="??1ExpressionEvent@@UAE@XZ" PURGE="0" COMMENT="" />
    <EXPORT ORDINAL="244" NAME="??1FNameTable@@QAE@XZ" PURGE="0" COMMENT="" />
    <EXPORT ORDINAL="245" NAME="??1FSTRUCT_Transition@@QAE@XZ" PURGE="0" COMMENT="" />
    <EXPORT ORDINAL="246" NAME="??1GameFlagEvent@@UAE@XZ" PURGE="0" COMMENT="" />
    <EXPORT ORDINAL="247" NAME="??1KeyframeEvent@@UAE@XZ" PURGE="0" COMMENT="" />
    <EXPORT ORDINAL="248" NAME="??1OwnerEvent@@UAE@XZ" PURGE="0" COMMENT="" />
    <EXPORT ORDINAL="249" NAME="??1PlayerCommandEvent@@UAE@XZ" PURGE="0" COMMENT="" />
    <EXPORT ORDINAL="250" NAME="??1PlayerEvent@@UAE@XZ" PURGE="0" COMMENT="" />
    <EXPORT ORDINAL="251" NAME="??1PlayerPawnEvent@@UAE@XZ" PURGE="0" COMMENT="" />
    <EXPORT ORDINAL="252" NAME="??1ScriptEvent@@UAE@XZ" PURGE="0" COMMENT="" />
    <EXPORT ORDINAL="253" NAME="??1UAnimatedImageComponent@@UAE@XZ" PURGE="0" COMMENT="" />
    <EXPORT ORDINAL="254" NAME="??1UButton@@UAE@XZ" PURGE="0" COMMENT="" />
    <EXPORT ORDINAL="255" NAME="??1UButtonImage@@UAE@XZ" PURGE="0" COMMENT="" />
    <EXPORT ORDINAL="256" NAME="??1UCheckBox@@UAE@XZ" PURGE="0" COMMENT="" />
    <EXPORT ORDINAL="257" NAME="??1UComponent@@UAE@XZ" PURGE="0" COMMENT="" />
    <EXPORT ORDINAL="258" NAME="??1UComponentHandle@@UAE@XZ" PURGE="0" COMMENT="" />
    <EXPORT ORDINAL="259" NAME="??1UContainer@@UAE@XZ" PURGE="0" COMMENT="" />
    <EXPORT ORDINAL="260" NAME="??1UCredits@@UAE@XZ" PURGE="0" COMMENT="" />
    <EXPORT ORDINAL="261" NAME="??1UEditor@@UAE@XZ" PURGE="0" COMMENT="" />
    <EXPORT ORDINAL="262" NAME="??1UFixedSizeContainer@@UAE@XZ" PURGE="0" COMMENT="" />
    <EXPORT ORDINAL="263" NAME="??1UFrame@@UAE@XZ" PURGE="0" COMMENT="" />
    <EXPORT ORDINAL="264" NAME="??1UHoldButton@@UAE@XZ" PURGE="0" COMMENT="" />
    <EXPORT ORDINAL="265" NAME="??1UImage@@UAE@XZ" PURGE="0" COMMENT="" />
    <EXPORT ORDINAL="266" NAME="??1UImageComponent@@UAE@XZ" PURGE="0" COMMENT="" />
    <EXPORT ORDINAL="267" NAME="??1UImageComponentBase@@UAE@XZ" PURGE="0" COMMENT="" />
    <EXPORT ORDINAL="268" NAME="??1UImageWedge@@UAE@XZ" PURGE="0" COMMENT="" />
    <EXPORT ORDINAL="269" NAME="??1UImageWipe@@UAE@XZ" PURGE="0" COMMENT="" />
    <EXPORT ORDINAL="270" NAME="??1UInputSelector@@UAE@XZ" PURGE="0" COMMENT="" />
    <EXPORT ORDINAL="271" NAME="??1UKeyEvent@@UAE@XZ" PURGE="0" COMMENT="" />
    <EXPORT ORDINAL="272" NAME="??1ULabel@@UAE@XZ" PURGE="0" COMMENT="" />
    <EXPORT ORDINAL="273" NAME="??1ULabelShadow@@UAE@XZ" PURGE="0" COMMENT="" />
    <EXPORT ORDINAL="274" NAME="??1UMaterialContainer@@UAE@XZ" PURGE="0" COMMENT="" />
    <EXPORT ORDINAL="275" NAME="??1UMouseCursor@@UAE@XZ" PURGE="0" COMMENT="" />
    <EXPORT ORDINAL="276" NAME="??1UMoveHandle@@UAE@XZ" PURGE="0" COMMENT="" />
    <EXPORT ORDINAL="277" NAME="??1UMultiImageComponent@@UAE@XZ" PURGE="0" COMMENT="" />
    <EXPORT ORDINAL="278" NAME="??1UMultiStateComponent@@UAE@XZ" PURGE="0" COMMENT="" />
    <EXPORT ORDINAL="279" NAME="??1UNumWatcher@@UAE@XZ" PURGE="0" COMMENT="" />
    <EXPORT ORDINAL="280" NAME="??1UPlayerID@@UAE@XZ" PURGE="0" COMMENT="" />
    <EXPORT ORDINAL="281" NAME="??1URealComponent@@UAE@XZ" PURGE="0" COMMENT="" />
    <EXPORT ORDINAL="282" NAME="??1UResizeHandle@@UAE@XZ" PURGE="0" COMMENT="" />
    <EXPORT ORDINAL="283" NAME="??1UResizeHandleE@@UAE@XZ" PURGE="0" COMMENT="" />
    <EXPORT ORDINAL="284" NAME="??1UResizeHandleN@@UAE@XZ" PURGE="0" COMMENT="" />
    <EXPORT ORDINAL="285" NAME="??1UResizeHandleNE@@UAE@XZ" PURGE="0" COMMENT="" />
    <EXPORT ORDINAL="286" NAME="??1UResizeHandleNW@@UAE@XZ" PURGE="0" COMMENT="" />
    <EXPORT ORDINAL="287" NAME="??1UResizeHandleS@@UAE@XZ" PURGE="0" COMMENT="" />
    <EXPORT ORDINAL="288" NAME="??1UResizeHandleSE@@UAE@XZ" PURGE="0" COMMENT="" />
    <EXPORT ORDINAL="289" NAME="??1UResizeHandleSW@@UAE@XZ" PURGE="0" COMMENT="" />
    <EXPORT ORDINAL="290" NAME="??1UResizeHandleW@@UAE@XZ" PURGE="0" COMMENT="" />
    <EXPORT ORDINAL="291" NAME="??1UScaleContainer@@UAE@XZ" PURGE="0" COMMENT="" />
    <EXPORT ORDINAL="292" NAME="??1UScriptComponent@@UAE@XZ" PURGE="0" COMMENT="" />
    <EXPORT ORDINAL="293" NAME="??1UScrollBar@@UAE@XZ" PURGE="0" COMMENT="" />
    <EXPORT ORDINAL="294" NAME="??1UScrollFrame@@UAE@XZ" PURGE="0" COMMENT="" />
    <EXPORT ORDINAL="295" NAME="??1UScrollTextArea@@UAE@XZ" PURGE="0" COMMENT="" />
    <EXPORT ORDINAL="296" NAME="??1USelector@@UAE@XZ" PURGE="0" COMMENT="" />
    <EXPORT ORDINAL="297" NAME="??1USelectorItem@@UAE@XZ" PURGE="0" COMMENT="" />
    <EXPORT ORDINAL="298" NAME="??1USelectorList@@UAE@XZ" PURGE="0" COMMENT="" />
    <EXPORT ORDINAL="299" NAME="??1USlider@@UAE@XZ" PURGE="0" COMMENT="" />
    <EXPORT ORDINAL="300" NAME="??1USoundComponent@@UAE@XZ" PURGE="0" COMMENT="" />
    <EXPORT ORDINAL="301" NAME="??1UTexUIhook@@UAE@XZ" PURGE="0" COMMENT="" />
    <EXPORT ORDINAL="302" NAME="??1UTextArea@@UAE@XZ" PURGE="0" COMMENT="" />
    <EXPORT ORDINAL="303" NAME="??1UTextComponentBase@@UAE@XZ" PURGE="0" COMMENT="" />
    <EXPORT ORDINAL="304" NAME="??1UTextField@@UAE@XZ" PURGE="0" COMMENT="" />
    <EXPORT ORDINAL="305" NAME="??1UTileContainer@@UAE@XZ" PURGE="0" COMMENT="" />
    <EXPORT ORDINAL="306" NAME="??1UTimedImage@@UAE@XZ" PURGE="0" COMMENT="" />
    <EXPORT ORDINAL="307" NAME="??1UTimedLabel@@UAE@XZ" PURGE="0" COMMENT="" />
    <EXPORT ORDINAL="308" NAME="??1UTimedTextArea@@UAE@XZ" PURGE="0" COMMENT="" />
    <EXPORT ORDINAL="309" NAME="??1UUIConsole@@UAE@XZ" PURGE="0" COMMENT="" />
    <EXPORT ORDINAL="310" NAME="??1UUIHelper@@UAE@XZ" PURGE="0" COMMENT="" />
    <EXPORT ORDINAL="311" NAME="??1UVarWatcher@@UAE@XZ" PURGE="0" COMMENT="" />
    <EXPORT ORDINAL="312" NAME="??1UWindow@@UAE@XZ" PURGE="0" COMMENT="" />
    <EXPORT ORDINAL="313" NAME="??1uiClass@@UAE@XZ" PURGE="-1" COMMENT="" />
    <EXPORT ORDINAL="314" NAME="??2UTexUIhook@@SAPAXIPAVUObject@@VFName@@K@Z" PURGE="0" COMMENT="" />
    <EXPORT ORDINAL="315" NAME="??2UTexUIhook@@SAPAXIPAW4EInternal@@@Z" PURGE="0" COMMENT="" />
    <EXPORT ORDINAL="316" NAME="??2UUIConsole@@SAPAXIPAVUObject@@VFName@@K@Z" PURGE="0" COMMENT="" />
    <EXPORT ORDINAL="317" NAME="??2UUIConsole@@SAPAXIPAW4EInternal@@@Z" PURGE="0" COMMENT="" />
    <EXPORT ORDINAL="318" NAME="??2UUIHelper@@SAPAXIPAVUObject@@VFName@@K@Z" PURGE="0" COMMENT="" />
    <EXPORT ORDINAL="319" NAME="??2UUIHelper@@SAPAXIPAW4EInternal@@@Z" PURGE="0" COMMENT="" />
    <EXPORT ORDINAL="320" NAME="??4ActionEvent@@QAEAAV0@ABV0@@Z" PURGE="4" COMMENT="" />
    <EXPORT ORDINAL="321" NAME="??4ComponentNotifyInfo@@QAE?AV0@H@Z" PURGE="8" COMMENT="" />
    <EXPORT ORDINAL="322" NAME="??4ComponentNotifyInfo@@QAEAAV0@ABV0@@Z" PURGE="4" COMMENT="" />
    <EXPORT ORDINAL="323" NAME="??4ConsoleCommandEvent@@QAEAAV0@ABV0@@Z" PURGE="4" COMMENT="" />
    <EXPORT ORDINAL="324" NAME="??4CutsceneTimedEvent@@QAEAAV0@ABV0@@Z" PURGE="4" COMMENT="" />
    <EXPORT ORDINAL="325" NAME="??4EventDisabler@@QAEAAV0@ABV0@@Z" PURGE="4" COMMENT="" />
    <EXPORT ORDINAL="326" NAME="??4EventEnabler@@QAEAAV0@ABV0@@Z" PURGE="4" COMMENT="" />
    <EXPORT ORDINAL="327" NAME="??4EventSender@@QAEAAV0@ABV0@@Z" PURGE="4" COMMENT="" />
    <EXPORT ORDINAL="328" NAME="??4ExpressionEvent@@QAEAAV0@ABV0@@Z" PURGE="4" COMMENT="" />
    <EXPORT ORDINAL="329" NAME="??4FNameTable@@QAEAAV0@ABV0@@Z" PURGE="4" COMMENT="" />
    <EXPORT ORDINAL="330" NAME="??4FSTRUCT_Transition@@QAEAAU0@ABU0@@Z" PURGE="4" COMMENT="" />
    <EXPORT ORDINAL="331" NAME="??4FSTRUCT_TriggerDef@@QAE?AU0@H@Z" PURGE="8" COMMENT="" />
    <EXPORT ORDINAL="332" NAME="??4FSTRUCT_TriggerDef@@QAEAAU0@ABU0@@Z" PURGE="4" COMMENT="" />
    <EXPORT ORDINAL="333" NAME="??4GameFlagEvent@@QAEAAV0@ABV0@@Z" PURGE="4" COMMENT="" />
    <EXPORT ORDINAL="334" NAME="??4KeyframeEvent@@QAEAAV0@ABV0@@Z" PURGE="4" COMMENT="" />
    <EXPORT ORDINAL="335" NAME="??4OwnerEvent@@QAEAAV0@ABV0@@Z" PURGE="4" COMMENT="" />
    <EXPORT ORDINAL="336" NAME="??4PlayerCommandEvent@@QAEAAV0@ABV0@@Z" PURGE="4" COMMENT="" />
    <EXPORT ORDINAL="337" NAME="??4PlayerEvent@@QAEAAV0@ABV0@@Z" PURGE="4" COMMENT="" />
    <EXPORT ORDINAL="338" NAME="??4PlayerPawnEvent@@QAEAAV0@ABV0@@Z" PURGE="4" COMMENT="" />
    <EXPORT ORDINAL="339" NAME="??4ScriptEvent@@QAEAAV0@ABV0@@Z" PURGE="4" COMMENT="" />
    <EXPORT ORDINAL="340" NAME="??4UAnimatedImageComponent@@QAEAAV0@ABV0@@Z" PURGE="4" COMMENT="" />
    <EXPORT ORDINAL="341" NAME="??4UButton@@QAEAAV0@ABV0@@Z" PURGE="4" COMMENT="" />
    <EXPORT ORDINAL="342" NAME="??4UButtonImage@@QAEAAV0@ABV0@@Z" PURGE="4" COMMENT="" />
    <EXPORT ORDINAL="343" NAME="??4UCheckBox@@QAEAAV0@ABV0@@Z" PURGE="4" COMMENT="" />
    <EXPORT ORDINAL="344" NAME="??4UComponent@@QAEAAV0@ABV0@@Z" PURGE="4" COMMENT="" />
    <EXPORT ORDINAL="345" NAME="??4UComponentHandle@@QAEAAV0@ABV0@@Z" PURGE="4" COMMENT="" />
    <EXPORT ORDINAL="346" NAME="??4UContainer@@QAEAAV0@ABV0@@Z" PURGE="4" COMMENT="" />
    <EXPORT ORDINAL="347" NAME="??4UCredits@@QAEAAV0@ABV0@@Z" PURGE="4" COMMENT="" />
    <EXPORT ORDINAL="348" NAME="??4UEditor@@QAEAAV0@ABV0@@Z" PURGE="4" COMMENT="" />
    <EXPORT ORDINAL="349" NAME="??4UFixedSizeContainer@@QAEAAV0@ABV0@@Z" PURGE="4" COMMENT="" />
    <EXPORT ORDINAL="350" NAME="??4UFrame@@QAEAAV0@ABV0@@Z" PURGE="4" COMMENT="" />
    <EXPORT ORDINAL="351" NAME="??4UHoldButton@@QAEAAV0@ABV0@@Z" PURGE="4" COMMENT="" />
    <EXPORT ORDINAL="352" NAME="??4UImage@@QAEAAV0@ABV0@@Z" PURGE="4" COMMENT="" />
    <EXPORT ORDINAL="353" NAME="??4UImageComponent@@QAEAAV0@ABV0@@Z" PURGE="4" COMMENT="" />
    <EXPORT ORDINAL="354" NAME="??4UImageComponentBase@@QAEAAV0@ABV0@@Z" PURGE="4" COMMENT="" />
    <EXPORT ORDINAL="355" NAME="??4UImageWedge@@QAEAAV0@ABV0@@Z" PURGE="4" COMMENT="" />
    <EXPORT ORDINAL="356" NAME="??4UImageWipe@@QAEAAV0@ABV0@@Z" PURGE="4" COMMENT="" />
    <EXPORT ORDINAL="357" NAME="??4UInputSelector@@QAEAAV0@ABV0@@Z" PURGE="4" COMMENT="" />
    <EXPORT ORDINAL="358" NAME="??4UKeyEvent@@QAEAAV0@ABV0@@Z" PURGE="4" COMMENT="" />
    <EXPORT ORDINAL="359" NAME="??4ULabel@@QAEAAV0@ABV0@@Z" PURGE="4" COMMENT="" />
    <EXPORT ORDINAL="360" NAME="??4ULabelShadow@@QAEAAV0@ABV0@@Z" PURGE="4" COMMENT="" />
    <EXPORT ORDINAL="361" NAME="??4UMaterialContainer@@QAEAAV0@ABV0@@Z" PURGE="4" COMMENT="" />
    <EXPORT ORDINAL="362" NAME="??4UMouseCursor@@QAEAAV0@ABV0@@Z" PURGE="4" COMMENT="" />
    <EXPORT ORDINAL="363" NAME="??4UMoveHandle@@QAEAAV0@ABV0@@Z" PURGE="4" COMMENT="" />
    <EXPORT ORDINAL="364" NAME="??4UMultiImageComponent@@QAEAAV0@ABV0@@Z" PURGE="4" COMMENT="" />
    <EXPORT ORDINAL="365" NAME="??4UMultiStateComponent@@QAEAAV0@ABV0@@Z" PURGE="4" COMMENT="" />
    <EXPORT ORDINAL="366" NAME="??4UNumWatcher@@QAEAAV0@ABV0@@Z" PURGE="4" COMMENT="" />
    <EXPORT ORDINAL="367" NAME="??4UPlayerID@@QAEAAV0@ABV0@@Z" PURGE="4" COMMENT="" />
    <EXPORT ORDINAL="368" NAME="??4URealComponent@@QAEAAV0@ABV0@@Z" PURGE="4" COMMENT="" />
    <EXPORT ORDINAL="369" NAME="??4UResizeHandle@@QAEAAV0@ABV0@@Z" PURGE="4" COMMENT="" />
    <EXPORT ORDINAL="370" NAME="??4UResizeHandleE@@QAEAAV0@ABV0@@Z" PURGE="4" COMMENT="" />
    <EXPORT ORDINAL="371" NAME="??4UResizeHandleN@@QAEAAV0@ABV0@@Z" PURGE="4" COMMENT="" />
    <EXPORT ORDINAL="372" NAME="??4UResizeHandleNE@@QAEAAV0@ABV0@@Z" PURGE="4" COMMENT="" />
    <EXPORT ORDINAL="373" NAME="??4UResizeHandleNW@@QAEAAV0@ABV0@@Z" PURGE="4" COMMENT="" />
    <EXPORT ORDINAL="374" NAME="??4UResizeHandleS@@QAEAAV0@ABV0@@Z" PURGE="4" COMMENT="" />
    <EXPORT ORDINAL="375" NAME="??4UResizeHandleSE@@QAEAAV0@ABV0@@Z" PURGE="4" COMMENT="" />
    <EXPORT ORDINAL="376" NAME="??4UResizeHandleSW@@QAEAAV0@ABV0@@Z" PURGE="4" COMMENT="" />
    <EXPORT ORDINAL="377" NAME="??4UResizeHandleW@@QAEAAV0@ABV0@@Z" PURGE="4" COMMENT="" />
    <EXPORT ORDINAL="378" NAME="??4UScaleContainer@@QAEAAV0@ABV0@@Z" PURGE="4" COMMENT="" />
    <EXPORT ORDINAL="379" NAME="??4UScriptComponent@@QAEAAV0@ABV0@@Z" PURGE="4" COMMENT="" />
    <EXPORT ORDINAL="380" NAME="??4UScrollBar@@QAEAAV0@ABV0@@Z" PURGE="4" COMMENT="" />
    <EXPORT ORDINAL="381" NAME="??4UScrollFrame@@QAEAAV0@ABV0@@Z" PURGE="4" COMMENT="" />
    <EXPORT ORDINAL="382" NAME="??4UScrollTextArea@@QAEAAV0@ABV0@@Z" PURGE="4" COMMENT="" />
    <EXPORT ORDINAL="383" NAME="??4USelector@@QAEAAV0@ABV0@@Z" PURGE="4" COMMENT="" />
    <EXPORT ORDINAL="384" NAME="??4USelectorItem@@QAEAAV0@ABV0@@Z" PURGE="4" COMMENT="" />
    <EXPORT ORDINAL="385" NAME="??4USelectorList@@QAEAAV0@ABV0@@Z" PURGE="4" COMMENT="" />
    <EXPORT ORDINAL="386" NAME="??4USlider@@QAEAAV0@ABV0@@Z" PURGE="4" COMMENT="" />
    <EXPORT ORDINAL="387" NAME="??4USoundComponent@@QAEAAV0@ABV0@@Z" PURGE="4" COMMENT="" />
    <EXPORT ORDINAL="388" NAME="??4UTexUIhook@@QAEAAV0@ABV0@@Z" PURGE="4" COMMENT="" />
    <EXPORT ORDINAL="389" NAME="??4UTextArea@@QAEAAV0@ABV0@@Z" PURGE="4" COMMENT="" />
    <EXPORT ORDINAL="390" NAME="??4UTextComponentBase@@QAEAAV0@ABV0@@Z" PURGE="4" COMMENT="" />
    <EXPORT ORDINAL="391" NAME="??4UTextField@@QAEAAV0@ABV0@@Z" PURGE="4" COMMENT="" />
    <EXPORT ORDINAL="392" NAME="??4UTileContainer@@QAEAAV0@ABV0@@Z" PURGE="4" COMMENT="" />
    <EXPORT ORDINAL="393" NAME="??4UTimedImage@@QAEAAV0@ABV0@@Z" PURGE="4" COMMENT="" />
    <EXPORT ORDINAL="394" NAME="??4UTimedLabel@@QAEAAV0@ABV0@@Z" PURGE="4" COMMENT="" />
    <EXPORT ORDINAL="395" NAME="??4UTimedTextArea@@QAEAAV0@ABV0@@Z" PURGE="4" COMMENT="" />
    <EXPORT ORDINAL="396" NAME="??4UUIConsole@@QAEAAV0@ABV0@@Z" PURGE="4" COMMENT="" />
    <EXPORT ORDINAL="397" NAME="??4UUIHelper@@QAEAAV0@ABV0@@Z" PURGE="4" COMMENT="" />
    <EXPORT ORDINAL="398" NAME="??4UVarWatcher@@QAEAAV0@ABV0@@Z" PURGE="4" COMMENT="" />
    <EXPORT ORDINAL="399" NAME="??4UWindow@@QAEAAV0@ABV0@@Z" PURGE="4" COMMENT="" />
    <EXPORT ORDINAL="400" NAME="??4uiClass@@QAEAAV0@ABV0@@Z" PURGE="4" COMMENT="" />
    <EXPORT ORDINAL="401" NAME="??4uiName@@QAEAAV0@ABV0@@Z" PURGE="4" COMMENT="" />
    <EXPORT ORDINAL="402" NAME="??6@YAAAVFArchive@@AAV0@AAPAV?$TOrderedArray@PAVComponentNotifyInfo@@@@@Z" PURGE="0" COMMENT="" />
    <EXPORT ORDINAL="403" NAME="??6@YAAAVFArchive@@AAV0@AAV?$THashTable@VFString@@H$09@@@Z" PURGE="0" COMMENT="" />
    <EXPORT ORDINAL="404" NAME="??8ActionEvent@@UBEHABV0@@Z" PURGE="4" COMMENT="" />
    <EXPORT ORDINAL="405" NAME="??8ComponentNotifyInfo@@QBEHABV0@@Z" PURGE="4" COMMENT="" />
    <EXPORT ORDINAL="406" NAME="??8ConsoleCommandEvent@@QBEHABV0@@Z" PURGE="-1" COMMENT="" />
    <EXPORT ORDINAL="407" NAME="??8ConsoleCommandEvent@@UBEHABVActionEvent@@@Z" PURGE="4" COMMENT="" />
    <EXPORT ORDINAL="408" NAME="??8CutsceneTimedEvent@@QBEHABV0@@Z" PURGE="4" COMMENT="" />
    <EXPORT ORDINAL="409" NAME="??8CutsceneTimedEvent@@UBEHABVActionEvent@@@Z" PURGE="4" COMMENT="" />
    <EXPORT ORDINAL="410" NAME="??8EventDisabler@@QBEHABV0@@Z" PURGE="4" COMMENT="" />
    <EXPORT ORDINAL="411" NAME="??8EventDisabler@@UBEHABVActionEvent@@@Z" PURGE="4" COMMENT="" />
    <EXPORT ORDINAL="412" NAME="??8EventEnabler@@QBEHABV0@@Z" PURGE="4" COMMENT="" />
    <EXPORT ORDINAL="413" NAME="??8EventEnabler@@UBEHABVActionEvent@@@Z" PURGE="4" COMMENT="" />
    <EXPORT ORDINAL="414" NAME="??8EventSender@@QBEHABV0@@Z" PURGE="4" COMMENT="" />
    <EXPORT ORDINAL="415" NAME="??8EventSender@@UBEHABVActionEvent@@@Z" PURGE="4" COMMENT="" />
    <EXPORT ORDINAL="416" NAME="??8ExpressionEvent@@QBEHABV0@@Z" PURGE="4" COMMENT="" />
    <EXPORT ORDINAL="417" NAME="??8ExpressionEvent@@UBEHABVActionEvent@@@Z" PURGE="4" COMMENT="" />
    <EXPORT ORDINAL="418" NAME="??8GameFlagEvent@@QBEHABV0@@Z" PURGE="4" COMMENT="" />
    <EXPORT ORDINAL="419" NAME="??8GameFlagEvent@@UBEHABVActionEvent@@@Z" PURGE="4" COMMENT="" />
    <EXPORT ORDINAL="420" NAME="??8KeyframeEvent@@QBEHABV0@@Z" PURGE="4" COMMENT="" />
    <EXPORT ORDINAL="421" NAME="??8KeyframeEvent@@UBEHABVActionEvent@@@Z" PURGE="4" COMMENT="" />
    <EXPORT ORDINAL="422" NAME="??8OwnerEvent@@QBEHABV0@@Z" PURGE="4" COMMENT="" />
    <EXPORT ORDINAL="423" NAME="??8OwnerEvent@@UBEHABVActionEvent@@@Z" PURGE="4" COMMENT="" />
    <EXPORT ORDINAL="424" NAME="??8PlayerCommandEvent@@QBEHABV0@@Z" PURGE="-1" COMMENT="" />
    <EXPORT ORDINAL="425" NAME="??8PlayerCommandEvent@@UBEHABVActionEvent@@@Z" PURGE="4" COMMENT="" />
    <EXPORT ORDINAL="426" NAME="??8PlayerEvent@@QBEHABV0@@Z" PURGE="-1" COMMENT="" />
    <EXPORT ORDINAL="427" NAME="??8PlayerEvent@@UBEHABVActionEvent@@@Z" PURGE="4" COMMENT="" />
    <EXPORT ORDINAL="428" NAME="??8ScriptEvent@@QBEHABV0@@Z" PURGE="4" COMMENT="" />
    <EXPORT ORDINAL="429" NAME="??8ScriptEvent@@UBEHABVActionEvent@@@Z" PURGE="4" COMMENT="" />
    <EXPORT ORDINAL="430" NAME="??8uiName@@QAEHABV0@@Z" PURGE="4" COMMENT="" />
    <EXPORT ORDINAL="431" NAME="??BComponentNotifyInfo@@QBEHXZ" PURGE="0" COMMENT="" />
    <EXPORT ORDINAL="432" NAME="??DuiName@@QAE?AVFString@@XZ" PURGE="4" COMMENT="" />
    <EXPORT ORDINAL="433" NAME="??_7ActionEvent@@6B@" PURGE="-1" COMMENT="" />
    <EXPORT ORDINAL="434" NAME="??_7ComponentNotifyInfo@@6B@" PURGE="-1" COMMENT="" />
    <EXPORT ORDINAL="435" NAME="??_7ConsoleCommandEvent@@6B@" PURGE="-1" COMMENT="" />
    <EXPORT ORDINAL="436" NAME="??_7CutsceneTimedEvent@@6B@" PURGE="-1" COMMENT="" />
    <EXPORT ORDINAL="437" NAME="??_7EventDisabler@@6B@" PURGE="-1" COMMENT="" />
    <EXPORT ORDINAL="438" NAME="??_7EventEnabler@@6B@" PURGE="-1" COMMENT="" />
    <EXPORT ORDINAL="439" NAME="??_7EventSender@@6B@" PURGE="-1" COMMENT="" />
    <EXPORT ORDINAL="440" NAME="??_7ExpressionEvent@@6B@" PURGE="-1" COMMENT="" />
    <EXPORT ORDINAL="441" NAME="??_7GameFlagEvent@@6B@" PURGE="-1" COMMENT="" />
    <EXPORT ORDINAL="442" NAME="??_7KeyframeEvent@@6B@" PURGE="-1" COMMENT="" />
    <EXPORT ORDINAL="443" NAME="??_7OwnerEvent@@6B@" PURGE="-1" COMMENT="" />
    <EXPORT ORDINAL="444" NAME="??_7PlayerCommandEvent@@6B@" PURGE="-1" COMMENT="" />
    <EXPORT ORDINAL="445" NAME="??_7PlayerEvent@@6B@" PURGE="-1" COMMENT="" />
    <EXPORT ORDINAL="446" NAME="??_7PlayerPawnEvent@@6B@" PURGE="-1" COMMENT="" />
    <EXPORT ORDINAL="447" NAME="??_7ScriptEvent@@6B@" PURGE="-1" COMMENT="" />
    <EXPORT ORDINAL="448" NAME="??_7UAnimatedImageComponent@@6B@" PURGE="-1" COMMENT="" />
    <EXPORT ORDINAL="449" NAME="??_7UButton@@6B@" PURGE="-1" COMMENT="" />
    <EXPORT ORDINAL="450" NAME="??_7UButtonImage@@6B@" PURGE="-1" COMMENT="" />
    <EXPORT ORDINAL="451" NAME="??_7UCheckBox@@6B@" PURGE="-1" COMMENT="" />
    <EXPORT ORDINAL="452" NAME="??_7UComponent@@6B@" PURGE="-1" COMMENT="" />
    <EXPORT ORDINAL="453" NAME="??_7UComponentHandle@@6B@" PURGE="-1" COMMENT="" />
    <EXPORT ORDINAL="454" NAME="??_7UContainer@@6B@" PURGE="-1" COMMENT="" />
    <EXPORT ORDINAL="455" NAME="??_7UCredits@@6B@" PURGE="-1" COMMENT="" />
    <EXPORT ORDINAL="456" NAME="??_7UEditor@@6B@" PURGE="-1" COMMENT="" />
    <EXPORT ORDINAL="457" NAME="??_7UFixedSizeContainer@@6B@" PURGE="-1" COMMENT="" />
    <EXPORT ORDINAL="458" NAME="??_7UFrame@@6B@" PURGE="-1" COMMENT="" />
    <EXPORT ORDINAL="459" NAME="??_7UHoldButton@@6B@" PURGE="-1" COMMENT="" />
    <EXPORT ORDINAL="460" NAME="??_7UImage@@6B@" PURGE="-1" COMMENT="" />
    <EXPORT ORDINAL="461" NAME="??_7UImageComponent@@6B@" PURGE="-1" COMMENT="" />
    <EXPORT ORDINAL="462" NAME="??_7UImageComponentBase@@6B@" PURGE="-1" COMMENT="" />
    <EXPORT ORDINAL="463" NAME="??_7UImageWedge@@6B@" PURGE="-1" COMMENT="" />
    <EXPORT ORDINAL="464" NAME="??_7UImageWipe@@6B@" PURGE="-1" COMMENT="" />
    <EXPORT ORDINAL="465" NAME="??_7UInputSelector@@6B@" PURGE="-1" COMMENT="" />
    <EXPORT ORDINAL="466" NAME="??_7UKeyEvent@@6B@" PURGE="-1" COMMENT="" />
    <EXPORT ORDINAL="467" NAME="??_7ULabel@@6B@" PURGE="-1" COMMENT="" />
    <EXPORT ORDINAL="468" NAME="??_7ULabelShadow@@6B@" PURGE="-1" COMMENT="" />
    <EXPORT ORDINAL="469" NAME="??_7UMaterialContainer@@6B@" PURGE="-1" COMMENT="" />
    <EXPORT ORDINAL="470" NAME="??_7UMouseCursor@@6B@" PURGE="-1" COMMENT="" />
    <EXPORT ORDINAL="471" NAME="??_7UMoveHandle@@6B@" PURGE="-1" COMMENT="" />
    <EXPORT ORDINAL="472" NAME="??_7UMultiImageComponent@@6B@" PURGE="-1" COMMENT="" />
    <EXPORT ORDINAL="473" NAME="??_7UMultiStateComponent@@6B@" PURGE="-1" COMMENT="" />
    <EXPORT ORDINAL="474" NAME="??_7UNumWatcher@@6B@" PURGE="-1" COMMENT="" />
    <EXPORT ORDINAL="475" NAME="??_7UPlayerID@@6B@" PURGE="-1" COMMENT="" />
    <EXPORT ORDINAL="476" NAME="??_7URealComponent@@6B@" PURGE="-1" COMMENT="" />
    <EXPORT ORDINAL="477" NAME="??_7UResizeHandle@@6B@" PURGE="-1" COMMENT="" />
    <EXPORT ORDINAL="478" NAME="??_7UResizeHandleE@@6B@" PURGE="-1" COMMENT="" />
    <EXPORT ORDINAL="479" NAME="??_7UResizeHandleN@@6B@" PURGE="-1" COMMENT="" />
    <EXPORT ORDINAL="480" NAME="??_7UResizeHandleNE@@6B@" PURGE="-1" COMMENT="" />
    <EXPORT ORDINAL="481" NAME="??_7UResizeHandleNW@@6B@" PURGE="-1" COMMENT="" />
    <EXPORT ORDINAL="482" NAME="??_7UResizeHandleS@@6B@" PURGE="-1" COMMENT="" />
    <EXPORT ORDINAL="483" NAME="??_7UResizeHandleSE@@6B@" PURGE="-1" COMMENT="" />
    <EXPORT ORDINAL="484" NAME="??_7UResizeHandleSW@@6B@" PURGE="-1" COMMENT="" />
    <EXPORT ORDINAL="485" NAME="??_7UResizeHandleW@@6B@" PURGE="-1" COMMENT="" />
    <EXPORT ORDINAL="486" NAME="??_7UScaleContainer@@6B@" PURGE="-1" COMMENT="" />
    <EXPORT ORDINAL="487" NAME="??_7UScriptComponent@@6B@" PURGE="-1" COMMENT="" />
    <EXPORT ORDINAL="488" NAME="??_7UScrollBar@@6B@" PURGE="-1" COMMENT="" />
    <EXPORT ORDINAL="489" NAME="??_7UScrollFrame@@6B@" PURGE="-1" COMMENT="" />
    <EXPORT ORDINAL="490" NAME="??_7UScrollTextArea@@6B@" PURGE="-1" COMMENT="" />
    <EXPORT ORDINAL="491" NAME="??_7USelector@@6B@" PURGE="-1" COMMENT="" />
    <EXPORT ORDINAL="492" NAME="??_7USelectorItem@@6B@" PURGE="-1" COMMENT="" />
    <EXPORT ORDINAL="493" NAME="??_7USelectorList@@6B@" PURGE="-1" COMMENT="" />
    <EXPORT ORDINAL="494" NAME="??_7USlider@@6B@" PURGE="-1" COMMENT="" />
    <EXPORT ORDINAL="495" NAME="??_7USoundComponent@@6B@" PURGE="-1" COMMENT="" />
    <EXPORT ORDINAL="496" NAME="??_7UTexUIhook@@6B@" PURGE="-1" COMMENT="" />
    <EXPORT ORDINAL="497" NAME="??_7UTextArea@@6B@" PURGE="-1" COMMENT="" />
    <EXPORT ORDINAL="498" NAME="??_7UTextComponentBase@@6B@" PURGE="-1" COMMENT="" />
    <EXPORT ORDINAL="499" NAME="??_7UTextField@@6B@" PURGE="-1" COMMENT="" />
    <EXPORT ORDINAL="500" NAME="??_7UTileContainer@@6B@" PURGE="-1" COMMENT="" />
    <EXPORT ORDINAL="501" NAME="??_7UTimedImage@@6B@" PURGE="-1" COMMENT="" />
    <EXPORT ORDINAL="502" NAME="??_7UTimedLabel@@6B@" PURGE="-1" COMMENT="" />
    <EXPORT ORDINAL="503" NAME="??_7UTimedTextArea@@6B@" PURGE="-1" COMMENT="" />
    <EXPORT ORDINAL="504" NAME="??_7UUIConsole@@6BFOutputDevice@@@" PURGE="-1" COMMENT="" />
    <EXPORT ORDINAL="505" NAME="??_7UUIConsole@@6BUObject@@@" PURGE="-1" COMMENT="" />
    <EXPORT ORDINAL="506" NAME="??_7UUIHelper@@6B@" PURGE="-1" COMMENT="" />
    <EXPORT ORDINAL="507" NAME="??_7UVarWatcher@@6B@" PURGE="-1" COMMENT="" />
    <EXPORT ORDINAL="508" NAME="??_7UWindow@@6B@" PURGE="-1" COMMENT="" />
    <EXPORT ORDINAL="509" NAME="??_7uiClass@@6B@" PURGE="-1" COMMENT="" />
    <EXPORT ORDINAL="510" NAME="?AddAccessor@UComponent@@QAEXPAVActionEvent@@@Z" PURGE="4" COMMENT="" />
    <EXPORT ORDINAL="511" NAME="?AddActionTickListener@UUIConsole@@QAEXPAVActionEvent@@@Z" PURGE="4" COMMENT="" />
    <EXPORT ORDINAL="512" NAME="?AddComponent@UContainer@@QAEHPAVUComponent@@H@Z" PURGE="8" COMMENT="" />
    <EXPORT ORDINAL="513" NAME="?AddElement@UCredits@@QAEXPBG@Z" PURGE="4" COMMENT="" />
    <EXPORT ORDINAL="514" NAME="?AddEvent@CutsceneTimedEvent@@QAEXPAVActionEvent@@@Z" PURGE="4" COMMENT="" />
    <EXPORT ORDINAL="515" NAME="?AddEvent@UKeyEvent@@UAEXW4EInputKey@@PAVActionEvent@@@Z" PURGE="8" COMMENT="" />
    <EXPORT ORDINAL="516" NAME="?AddFrame@KeyframeEvent@@QAEXMM@Z" PURGE="8" COMMENT="" />
    <EXPORT ORDINAL="517" NAME="?AddFullImage@UImage@@UAEPAVFImage@@VFString@@H@Z" PURGE="16" COMMENT="" />
    <EXPORT ORDINAL="518" NAME="?AddGlobalEvent@UCredits@@QAEXMPAVActionEvent@@@Z" PURGE="8" COMMENT="" />
    <EXPORT ORDINAL="519" NAME="?AddIgnoredKey@UTextField@@QAEXH@Z" PURGE="4" COMMENT="" />
    <EXPORT ORDINAL="520" NAME="?AddImage@UImage@@UAEPAVFImage@@VFString@@MMMMH@Z" PURGE="32" COMMENT="" />
    <EXPORT ORDINAL="521" NAME="?AddInputActionListener@UUIConsole@@QAEXW4EInputAction@@PAVUComponent@@PAVActionEvent@@@Z" PURGE="12" COMMENT="" />
    <EXPORT ORDINAL="522" NAME="?AddItem@UScrollFrame@@UAEXPAVUComponent@@@Z" PURGE="4" COMMENT="" />
    <EXPORT ORDINAL="523" NAME="?AddItem@USelector@@UAEXVFString@@PAVActionEvent@@@Z" PURGE="16" COMMENT="" />
    <EXPORT ORDINAL="524" NAME="?AddItem@USelectorList@@UAEXVFString@@PAVActionEvent@@@Z" PURGE="16" COMMENT="" />
    <EXPORT ORDINAL="525" NAME="?AddKeyEventListener@UUIConsole@@QAEXPAVActionEvent@@@Z" PURGE="4" COMMENT="" />
    <EXPORT ORDINAL="526" NAME="?AddKeyListener@UUIConsole@@QAEXPAVActionEvent@@@Z" PURGE="4" COMMENT="" />
    <EXPORT ORDINAL="527" NAME="?AddLabel@USelectorList@@IAEXVFString@@PAVUContainer@@M@Z" PURGE="20" COMMENT="" />
    <EXPORT ORDINAL="528" NAME="?AddListener@UComponent@@QAEXPAVUObject@@@Z" PURGE="4" COMMENT="" />
    <EXPORT ORDINAL="529" NAME="?AddLocalEvent@UCredits@@QAEXMH@Z" PURGE="8" COMMENT="" />
    <EXPORT ORDINAL="530" NAME="?AddMouseActionListener@UMouseCursor@@QAEXW4EMouseAction@@PAVUComponent@@PAVActionEvent@@@Z" PURGE="12" COMMENT="" />
    <EXPORT ORDINAL="531" NAME="?AddSelectorItem@USelectorList@@IAEXVFString@@PAVUContainer@@MPAVActionEvent@@@Z" PURGE="24" COMMENT="" />
    <EXPORT ORDINAL="532" NAME="?AddState@UMultiStateComponent@@QAEHPAVUComponent@@@Z" PURGE="4" COMMENT="" />
    <EXPORT ORDINAL="533" NAME="?AddStyle@UCredits@@QAEXPBG0@Z" PURGE="8" COMMENT="" />
    <EXPORT ORDINAL="534" NAME="?AddText@UScrollTextArea@@UAEXVFString@@H@Z" PURGE="16" COMMENT="" />
    <EXPORT ORDINAL="535" NAME="?AddText@UTextArea@@UAEXVFString@@H@Z" PURGE="16" COMMENT="" />
    <EXPORT ORDINAL="536" NAME="?AddText@UTimedTextArea@@UAEXVFString@@H@Z" PURGE="16" COMMENT="" />
    <EXPORT ORDINAL="537" NAME="?AddTickListener@UUIConsole@@QAEXPAVUComponent@@@Z" PURGE="4" COMMENT="" />
    <EXPORT ORDINAL="538" NAME="?AddTransition@UMultiStateComponent@@QAEXHHHMPAVUComponent@@HHHH@Z" PURGE="36" COMMENT="" />
    <EXPORT ORDINAL="539" NAME="?AddTriggerEvent@UMultiStateComponent@@QAEXHPAVActionEvent@@M@Z" PURGE="12" COMMENT="" />
    <EXPORT ORDINAL="540" NAME="?AddWatch@UUIConsole@@QAEXVFName@@0H@Z" PURGE="12" COMMENT="" />
    <EXPORT ORDINAL="541" NAME="?AdjustSizeFromText@UTextComponentBase@@UAEXABVFString@@@Z" PURGE="4" COMMENT="" />
    <EXPORT ORDINAL="542" NAME="?AdjustTweenPct@UComponent@@UAEMMPAVUMultiStateComponent@@@Z" PURGE="8" COMMENT="" />
    <EXPORT ORDINAL="543" NAME="?BaseName@?1??FindName@FNameTable@@QAE?AVuiName@@VFString@@@Z@4PAGA" PURGE="-1" COMMENT="" />
    <EXPORT ORDINAL="544" NAME="?BeginType@UTextField@@QAAXPAX@Z" PURGE="0" COMMENT="" />
    <EXPORT ORDINAL="545" NAME="?BringForward@UComponent@@QAEXH@Z" PURGE="4" COMMENT="" />
    <EXPORT ORDINAL="546" NAME="?BringForwardI@UComponent@@MAEXH@Z" PURGE="4" COMMENT="" />
    <EXPORT ORDINAL="547" NAME="?BringToFront@UComponent@@QAEXXZ" PURGE="0" COMMENT="" />
    <EXPORT ORDINAL="548" NAME="?BringToFrontI@UComponent@@MAEXXZ" PURGE="0" COMMENT="" />
    <EXPORT ORDINAL="549" NAME="?ClassList@?1??GetClassList@uiClass@@SAAAPAV2@XZ@4PAV2@A" PURGE="-1" COMMENT="" />
    <EXPORT ORDINAL="550" NAME="?Click@UButton@@IAAXPAX@Z" PURGE="0" COMMENT="" />
    <EXPORT ORDINAL="551" NAME="?Click@UInputSelector@@AAAXPAX@Z" PURGE="0" COMMENT="" />
    <EXPORT ORDINAL="552" NAME="?Close@USelectorList@@UAEXXZ" PURGE="0" COMMENT="" />
    <EXPORT ORDINAL="553" NAME="?CollectAsset@UUIConsole@@QAEXPAVUObject@@@Z" PURGE="4" COMMENT="" />
    <EXPORT ORDINAL="554" NAME="?ConsoleCommand@UComponent@@QAEXVFString@@@Z" PURGE="12" COMMENT="" />
    <EXPORT ORDINAL="555" NAME="?ConsoleCommand@UUIConsole@@UAEHPBGPAVFString@@@Z" PURGE="8" COMMENT="" />
    <EXPORT ORDINAL="556" NAME="?Constructed@UButton@@UAEXXZ" PURGE="0" COMMENT="" />
    <EXPORT ORDINAL="557" NAME="?Constructed@UComponent@@UAEXXZ" PURGE="0" COMMENT="" />
    <EXPORT ORDINAL="558" NAME="?Constructed@UMouseCursor@@UAEXXZ" PURGE="0" COMMENT="" />
    <EXPORT ORDINAL="559" NAME="?Constructed@USelector@@UAEXXZ" PURGE="0" COMMENT="" />
    <EXPORT ORDINAL="560" NAME="?Constructed@USelectorList@@UAEXXZ" PURGE="0" COMMENT="" />
    <EXPORT ORDINAL="561" NAME="?Constructed@UTextArea@@UAEXXZ" PURGE="0" COMMENT="" />
    <EXPORT ORDINAL="562" NAME="?Constructed@UTextComponentBase@@UAEXXZ" PURGE="0" COMMENT="" />
    <EXPORT ORDINAL="563" NAME="?Constructed@UTextField@@UAEXXZ" PURGE="0" COMMENT="" />
    <EXPORT ORDINAL="564" NAME="?Contains@UComponent@@QAEHABUFPoint@@@Z" PURGE="4" COMMENT="" />
    <EXPORT ORDINAL="565" NAME="?ContainsAbs@UComponent@@QAEHABUFPoint@@@Z" PURGE="4" COMMENT="" />
    <EXPORT ORDINAL="566" NAME="?ContainsAbsI@UComponent@@MAEHABUFPoint@@@Z" PURGE="4" COMMENT="" />
    <EXPORT ORDINAL="567" NAME="?ContainsAbsI@UMouseCursor@@UAEHABUFPoint@@@Z" PURGE="4" COMMENT="" />
    <EXPORT ORDINAL="568" NAME="?ContainsC@UComponent@@QAEHMM@Z" PURGE="8" COMMENT="" />
    <EXPORT ORDINAL="569" NAME="?ContainsI@UComponent@@MAEHABUFPoint@@@Z" PURGE="4" COMMENT="" />
    <EXPORT ORDINAL="570" NAME="?ContainsI@UMouseCursor@@UAEHABUFPoint@@@Z" PURGE="4" COMMENT="" />
    <EXPORT ORDINAL="571" NAME="?CreateLabel@UTextArea@@MAEPAVULabel@@XZ" PURGE="0" COMMENT="" />
    <EXPORT ORDINAL="572" NAME="?CreateLabel@UTimedTextArea@@UAEPAVULabel@@XZ" PURGE="0" COMMENT="" />
    <EXPORT ORDINAL="573" NAME="?CreateName@FNameTable@@QAE?AVuiName@@PBG@Z" PURGE="8" COMMENT="" />
    <EXPORT ORDINAL="574" NAME="?CreateTransientName@FNameTable@@QAE?AVuiName@@PBG@Z" PURGE="8" COMMENT="" />
    <EXPORT ORDINAL="575" NAME="?DeleteUObject@UComponent@@QAEXXZ" PURGE="0" COMMENT="" />
    <EXPORT ORDINAL="576" NAME="?Deselect@UTextField@@UAEXXZ" PURGE="0" COMMENT="" />
    <EXPORT ORDINAL="577" NAME="?Destroy@UComponent@@UAEXXZ" PURGE="0" COMMENT="" />
    <EXPORT ORDINAL="578" NAME="?Destroy@UContainer@@UAEXXZ" PURGE="0" COMMENT="" />
    <EXPORT ORDINAL="579" NAME="?Destroy@UEditor@@UAEXXZ" PURGE="0" COMMENT="" />
    <EXPORT ORDINAL="580" NAME="?Destroy@UMouseCursor@@UAEXXZ" PURGE="0" COMMENT="" />
    <EXPORT ORDINAL="581" NAME="?Destroy@UTextField@@UAEXXZ" PURGE="0" COMMENT="" />
    <EXPORT ORDINAL="582" NAME="?Destroy@UUIConsole@@UAEXXZ" PURGE="0" COMMENT="" />
    <EXPORT ORDINAL="583" NAME="?DisableEvent@UComponent@@QAEXH@Z" PURGE="4" COMMENT="" />
    <EXPORT ORDINAL="584" NAME="?DispatchMousePress@UMouseCursor@@QAEXXZ" PURGE="0" COMMENT="" />
    <EXPORT ORDINAL="585" NAME="?DispatchMouseRelease@UMouseCursor@@QAEXXZ" PURGE="0" COMMENT="" />
    <EXPORT ORDINAL="586" NAME="?Empty@USelector@@UAEXXZ" PURGE="-1" COMMENT="" />
    <EXPORT ORDINAL="587" NAME="?Empty@USelectorList@@UAEXXZ" PURGE="0" COMMENT="" />
    <EXPORT ORDINAL="588" NAME="?Empty@UTextArea@@UAEXXZ" PURGE="0" COMMENT="" />
    <EXPORT ORDINAL="589" NAME="?EnableEvent@UComponent@@QAEXH@Z" PURGE="4" COMMENT="" />
    <EXPORT ORDINAL="590" NAME="?Expand@USelectorList@@UAEXXZ" PURGE="0" COMMENT="" />
    <EXPORT ORDINAL="591" NAME="?FindImage@UImage@@UAEPAVFImage@@VFString@@@Z" PURGE="12" COMMENT="" />
    <EXPORT ORDINAL="592" NAME="?FindLooseComponent@UComponent@@QAEPAV1@VuiName@@@Z" PURGE="4" COMMENT="" />
    <EXPORT ORDINAL="593" NAME="?FindLooseComponentI@UComponent@@MAEPAV1@VuiName@@@Z" PURGE="4" COMMENT="" />
    <EXPORT ORDINAL="594" NAME="?FindLooseComponentI@UContainer@@UAEPAVUComponent@@VuiName@@@Z" PURGE="4" COMMENT="" />
    <EXPORT ORDINAL="595" NAME="?FindLooseComponentI@UMultiStateComponent@@UAEPAVUComponent@@VuiName@@@Z" PURGE="4" COMMENT="" />
    <EXPORT ORDINAL="596" NAME="?FindName@FNameTable@@QAE?AVuiName@@VFString@@@Z" PURGE="16" COMMENT="" />
    <EXPORT ORDINAL="597" NAME="?FindRelevantListeners@UMouseCursor@@QAEXXZ" PURGE="0" COMMENT="" />
    <EXPORT ORDINAL="598" NAME="?GTextureCache@UComponent@@2V?$THashTable@VFString@@PAVUTexture@@$06@@A" PURGE="-1" COMMENT="" />
    <EXPORT ORDINAL="599" NAME="?GetAbsDrawOrder@UComponent@@QAEMXZ" PURGE="0" COMMENT="" />
    <EXPORT ORDINAL="600" NAME="?GetAbsDrawOrderI@UComponent@@MAEMXZ" PURGE="0" COMMENT="" />
    <EXPORT ORDINAL="601" NAME="?GetAccessor@UComponent@@IAEPAVActionEvent@@K@Z" PURGE="4" COMMENT="" />
    <EXPORT ORDINAL="602" NAME="?GetAccessorIndex@UComponent@@IAEHK@Z" PURGE="4" COMMENT="" />
    <EXPORT ORDINAL="603" NAME="?GetActionEvent@ComponentNotifyInfo@@QBEPAVActionEvent@@XZ" PURGE="0" COMMENT="" />
    <EXPORT ORDINAL="604" NAME="?GetAlignedLocation@UComponent@@QAE?AUFPoint@@XZ" PURGE="4" COMMENT="" />
    <EXPORT ORDINAL="605" NAME="?GetAlignedLocationI@UComponent@@MAE?AUFPoint@@XZ" PURGE="4" COMMENT="" />
    <EXPORT ORDINAL="606" NAME="?GetAlignment@UComponent@@QAE?AUFAlignment@@XZ" PURGE="4" COMMENT="" />
    <EXPORT ORDINAL="607" NAME="?GetAlignmentI@UComponent@@MAE?AUFAlignment@@XZ" PURGE="4" COMMENT="" />
    <EXPORT ORDINAL="608" NAME="?GetAlignmentOut@UComponent@@QAE?AUFAlignment@@AAU2@@Z" PURGE="8" COMMENT="" />
    <EXPORT ORDINAL="609" NAME="?GetAlignmentOutC@UComponent@@QAE?AUFAlignment@@AAW4EAlignment@@0@Z" PURGE="12" COMMENT="" />
    <EXPORT ORDINAL="610" NAME="?GetAlignmentX@UComponent@@QAE?AW4EAlignment@@XZ" PURGE="0" COMMENT="" />
    <EXPORT ORDINAL="611" NAME="?GetAlignmentY@UComponent@@QAE?AW4EAlignment@@XZ" PURGE="0" COMMENT="" />
    <EXPORT ORDINAL="612" NAME="?GetAlpha@UComponent@@QAEEXZ" PURGE="0" COMMENT="" />
    <EXPORT ORDINAL="613" NAME="?GetAlphaI@UComponent@@MAEEXZ" PURGE="0" COMMENT="" />
    <EXPORT ORDINAL="614" NAME="?GetAlphaI@UContainer@@UAEEXZ" PURGE="0" COMMENT="" />
    <EXPORT ORDINAL="615" NAME="?GetAlphaI@URealComponent@@UAEEXZ" PURGE="0" COMMENT="" />
    <EXPORT ORDINAL="616" NAME="?GetAngle@UImageWedge@@QAEMXZ" PURGE="0" COMMENT="" />
    <EXPORT ORDINAL="617" NAME="?GetB@UComponent@@QAEEXZ" PURGE="0" COMMENT="" />
    <EXPORT ORDINAL="618" NAME="?GetBounds@UComponent@@QAE?AUFRectangle@@XZ" PURGE="4" COMMENT="" />
    <EXPORT ORDINAL="619" NAME="?GetBoundsI@UComponent@@MAE?AUFRectangle@@XZ" PURGE="4" COMMENT="" />
    <EXPORT ORDINAL="620" NAME="?GetBoundsI@UContainer@@UAE?AUFRectangle@@XZ" PURGE="4" COMMENT="" />
    <EXPORT ORDINAL="621" NAME="?GetBoundsI@UFixedSizeContainer@@UAE?AUFRectangle@@XZ" PURGE="4" COMMENT="" />
    <EXPORT ORDINAL="622" NAME="?GetBoundsI@UFrame@@UAE?AUFRectangle@@XZ" PURGE="4" COMMENT="" />
    <EXPORT ORDINAL="623" NAME="?GetBoundsI@UMultiStateComponent@@UAE?AUFRectangle@@XZ" PURGE="4" COMMENT="" />
    <EXPORT ORDINAL="624" NAME="?GetBoundsI@USelector@@UAE?AUFRectangle@@XZ" PURGE="4" COMMENT="" />
    <EXPORT ORDINAL="625" NAME="?GetBoundsI@UTileContainer@@UAE?AUFRectangle@@XZ" PURGE="4" COMMENT="" />
    <EXPORT ORDINAL="626" NAME="?GetBoundsOut@UComponent@@QAE?AUFRectangle@@AAU2@@Z" PURGE="8" COMMENT="" />
    <EXPORT ORDINAL="627" NAME="?GetBoundsOutC@UComponent@@QAE?AUFRectangle@@AAM000@Z" PURGE="20" COMMENT="" />
    <EXPORT ORDINAL="628" NAME="?GetChecked@UCheckBox@@UAEHXZ" PURGE="0" COMMENT="" />
    <EXPORT ORDINAL="629" NAME="?GetClass@UAnimatedImageComponent@@UAEPAVuiClass@@XZ" PURGE="0" COMMENT="" />
    <EXPORT ORDINAL="630" NAME="?GetClass@UButton@@UAEPAVuiClass@@XZ" PURGE="0" COMMENT="" />
    <EXPORT ORDINAL="631" NAME="?GetClass@UButtonImage@@UAEPAVuiClass@@XZ" PURGE="0" COMMENT="" />
    <EXPORT ORDINAL="632" NAME="?GetClass@UCheckBox@@UAEPAVuiClass@@XZ" PURGE="0" COMMENT="" />
    <EXPORT ORDINAL="633" NAME="?GetClass@UComponent@@UAEPAVuiClass@@XZ" PURGE="0" COMMENT="" />
    <EXPORT ORDINAL="634" NAME="?GetClass@UComponentHandle@@UAEPAVuiClass@@XZ" PURGE="0" COMMENT="" />
    <EXPORT ORDINAL="635" NAME="?GetClass@UContainer@@UAEPAVuiClass@@XZ" PURGE="0" COMMENT="" />
    <EXPORT ORDINAL="636" NAME="?GetClass@UCredits@@UAEPAVuiClass@@XZ" PURGE="0" COMMENT="" />
    <EXPORT ORDINAL="637" NAME="?GetClass@UEditor@@UAEPAVuiClass@@XZ" PURGE="0" COMMENT="" />
    <EXPORT ORDINAL="638" NAME="?GetClass@UFixedSizeContainer@@UAEPAVuiClass@@XZ" PURGE="0" COMMENT="" />
    <EXPORT ORDINAL="639" NAME="?GetClass@UFrame@@UAEPAVuiClass@@XZ" PURGE="0" COMMENT="" />
    <EXPORT ORDINAL="640" NAME="?GetClass@UHoldButton@@UAEPAVuiClass@@XZ" PURGE="0" COMMENT="" />
    <EXPORT ORDINAL="641" NAME="?GetClass@UImage@@UAEPAVuiClass@@XZ" PURGE="0" COMMENT="" />
    <EXPORT ORDINAL="642" NAME="?GetClass@UImageComponent@@UAEPAVuiClass@@XZ" PURGE="0" COMMENT="" />
    <EXPORT ORDINAL="643" NAME="?GetClass@UImageComponentBase@@UAEPAVuiClass@@XZ" PURGE="0" COMMENT="" />
    <EXPORT ORDINAL="644" NAME="?GetClass@UImageWedge@@UAEPAVuiClass@@XZ" PURGE="0" COMMENT="" />
    <EXPORT ORDINAL="645" NAME="?GetClass@UImageWipe@@UAEPAVuiClass@@XZ" PURGE="0" COMMENT="" />
    <EXPORT ORDINAL="646" NAME="?GetClass@UInputSelector@@UAEPAVuiClass@@XZ" PURGE="0" COMMENT="" />
    <EXPORT ORDINAL="647" NAME="?GetClass@UKeyEvent@@UAEPAVuiClass@@XZ" PURGE="0" COMMENT="" />
    <EXPORT ORDINAL="648" NAME="?GetClass@ULabel@@UAEPAVuiClass@@XZ" PURGE="0" COMMENT="" />
    <EXPORT ORDINAL="649" NAME="?GetClass@ULabelShadow@@UAEPAVuiClass@@XZ" PURGE="0" COMMENT="" />
    <EXPORT ORDINAL="650" NAME="?GetClass@UMaterialContainer@@UAEPAVuiClass@@XZ" PURGE="0" COMMENT="" />
    <EXPORT ORDINAL="651" NAME="?GetClass@UMouseCursor@@UAEPAVuiClass@@XZ" PURGE="0" COMMENT="" />
    <EXPORT ORDINAL="652" NAME="?GetClass@UMoveHandle@@UAEPAVuiClass@@XZ" PURGE="0" COMMENT="" />
    <EXPORT ORDINAL="653" NAME="?GetClass@UMultiImageComponent@@UAEPAVuiClass@@XZ" PURGE="0" COMMENT="" />
    <EXPORT ORDINAL="654" NAME="?GetClass@UMultiStateComponent@@UAEPAVuiClass@@XZ" PURGE="0" COMMENT="" />
    <EXPORT ORDINAL="655" NAME="?GetClass@UNumWatcher@@UAEPAVuiClass@@XZ" PURGE="0" COMMENT="" />
    <EXPORT ORDINAL="656" NAME="?GetClass@UPlayerID@@UAEPAVuiClass@@XZ" PURGE="0" COMMENT="" />
    <EXPORT ORDINAL="657" NAME="?GetClass@URealComponent@@UAEPAVuiClass@@XZ" PURGE="0" COMMENT="" />
    <EXPORT ORDINAL="658" NAME="?GetClass@UResizeHandle@@UAEPAVuiClass@@XZ" PURGE="0" COMMENT="" />
    <EXPORT ORDINAL="659" NAME="?GetClass@UResizeHandleE@@UAEPAVuiClass@@XZ" PURGE="0" COMMENT="" />
    <EXPORT ORDINAL="660" NAME="?GetClass@UResizeHandleN@@UAEPAVuiClass@@XZ" PURGE="0" COMMENT="" />
    <EXPORT ORDINAL="661" NAME="?GetClass@UResizeHandleNE@@UAEPAVuiClass@@XZ" PURGE="0" COMMENT="" />
    <EXPORT ORDINAL="662" NAME="?GetClass@UResizeHandleNW@@UAEPAVuiClass@@XZ" PURGE="0" COMMENT="" />
    <EXPORT ORDINAL="663" NAME="?GetClass@UResizeHandleS@@UAEPAVuiClass@@XZ" PURGE="0" COMMENT="" />
    <EXPORT ORDINAL="664" NAME="?GetClass@UResizeHandleSE@@UAEPAVuiClass@@XZ" PURGE="0" COMMENT="" />
    <EXPORT ORDINAL="665" NAME="?GetClass@UResizeHandleSW@@UAEPAVuiClass@@XZ" PURGE="0" COMMENT="" />
    <EXPORT ORDINAL="666" NAME="?GetClass@UResizeHandleW@@UAEPAVuiClass@@XZ" PURGE="0" COMMENT="" />
    <EXPORT ORDINAL="667" NAME="?GetClass@UScaleContainer@@UAEPAVuiClass@@XZ" PURGE="0" COMMENT="" />
    <EXPORT ORDINAL="668" NAME="?GetClass@UScriptComponent@@UAEPAVuiClass@@XZ" PURGE="0" COMMENT="" />
    <EXPORT ORDINAL="669" NAME="?GetClass@UScrollBar@@UAEPAVuiClass@@XZ" PURGE="0" COMMENT="" />
    <EXPORT ORDINAL="670" NAME="?GetClass@UScrollFrame@@UAEPAVuiClass@@XZ" PURGE="0" COMMENT="" />
    <EXPORT ORDINAL="671" NAME="?GetClass@UScrollTextArea@@UAEPAVuiClass@@XZ" PURGE="0" COMMENT="" />
    <EXPORT ORDINAL="672" NAME="?GetClass@USelector@@UAEPAVuiClass@@XZ" PURGE="0" COMMENT="" />
    <EXPORT ORDINAL="673" NAME="?GetClass@USelectorItem@@UAEPAVuiClass@@XZ" PURGE="0" COMMENT="" />
    <EXPORT ORDINAL="674" NAME="?GetClass@USelectorList@@UAEPAVuiClass@@XZ" PURGE="0" COMMENT="" />
    <EXPORT ORDINAL="675" NAME="?GetClass@USlider@@UAEPAVuiClass@@XZ" PURGE="0" COMMENT="" />
    <EXPORT ORDINAL="676" NAME="?GetClass@USoundComponent@@UAEPAVuiClass@@XZ" PURGE="0" COMMENT="" />
    <EXPORT ORDINAL="677" NAME="?GetClass@UTextArea@@UAEPAVuiClass@@XZ" PURGE="0" COMMENT="" />
    <EXPORT ORDINAL="678" NAME="?GetClass@UTextComponentBase@@UAEPAVuiClass@@XZ" PURGE="0" COMMENT="" />
    <EXPORT ORDINAL="679" NAME="?GetClass@UTextField@@UAEPAVuiClass@@XZ" PURGE="0" COMMENT="" />
    <EXPORT ORDINAL="680" NAME="?GetClass@UTileContainer@@UAEPAVuiClass@@XZ" PURGE="0" COMMENT="" />
    <EXPORT ORDINAL="681" NAME="?GetClass@UTimedImage@@UAEPAVuiClass@@XZ" PURGE="0" COMMENT="" />
    <EXPORT ORDINAL="682" NAME="?GetClass@UTimedLabel@@UAEPAVuiClass@@XZ" PURGE="0" COMMENT="" />
    <EXPORT ORDINAL="683" NAME="?GetClass@UTimedTextArea@@UAEPAVuiClass@@XZ" PURGE="0" COMMENT="" />
    <EXPORT ORDINAL="684" NAME="?GetClass@UVarWatcher@@UAEPAVuiClass@@XZ" PURGE="0" COMMENT="" />
    <EXPORT ORDINAL="685" NAME="?GetClass@UWindow@@UAEPAVuiClass@@XZ" PURGE="0" COMMENT="" />
    <EXPORT ORDINAL="686" NAME="?GetClassList@uiClass@@SAAAPAV1@XZ" PURGE="0" COMMENT="" />
    <EXPORT ORDINAL="687" NAME="?GetClient@UComponent@@QAEPAVUClient@@XZ" PURGE="0" COMMENT="" />
    <EXPORT ORDINAL="688" NAME="?GetColor@UComponent@@QAE?AVFColor@@XZ" PURGE="4" COMMENT="" />
    <EXPORT ORDINAL="689" NAME="?GetColorI@UComponent@@MAE?AVFColor@@XZ" PURGE="4" COMMENT="" />
    <EXPORT ORDINAL="690" NAME="?GetColorI@UContainer@@UAE?AVFColor@@XZ" PURGE="4" COMMENT="" />
    <EXPORT ORDINAL="691" NAME="?GetColorI@UInputSelector@@UAE?AVFColor@@XZ" PURGE="4" COMMENT="" />
    <EXPORT ORDINAL="692" NAME="?GetColorI@UMultiStateComponent@@UAE?AVFColor@@XZ" PURGE="4" COMMENT="" />
    <EXPORT ORDINAL="693" NAME="?GetColorI@URealComponent@@UAE?AVFColor@@XZ" PURGE="4" COMMENT="" />
    <EXPORT ORDINAL="694" NAME="?GetColorI@USelectorList@@UAE?AVFColor@@XZ" PURGE="4" COMMENT="" />
    <EXPORT ORDINAL="695" NAME="?GetColorOut@UComponent@@QAE?AVFColor@@AAV2@@Z" PURGE="8" COMMENT="" />
    <EXPORT ORDINAL="696" NAME="?GetColorOutC@UComponent@@QAE?AVFColor@@AAE000@Z" PURGE="20" COMMENT="" />
    <EXPORT ORDINAL="697" NAME="?GetComponent@UComponent@@QAEPAV1@V?$TArray@VuiName@@@@@Z" PURGE="12" COMMENT="" />
    <EXPORT ORDINAL="698" NAME="?GetComponent@UComponent@@QAEPAV1@VuiName@@@Z" PURGE="4" COMMENT="" />
    <EXPORT ORDINAL="699" NAME="?GetComponent@UContainer@@QAEPAVUComponent@@H@Z" PURGE="4" COMMENT="" />
    <EXPORT ORDINAL="700" NAME="?GetComponentAt@UComponent@@QAEPAV1@ABUFPoint@@@Z" PURGE="4" COMMENT="" />
    <EXPORT ORDINAL="701" NAME="?GetComponentAtC@UComponent@@QAEPAV1@MM@Z" PURGE="8" COMMENT="" />
    <EXPORT ORDINAL="702" NAME="?GetComponentAtI@UComponent@@MAEPAV1@ABUFPoint@@@Z" PURGE="4" COMMENT="" />
    <EXPORT ORDINAL="703" NAME="?GetComponentAtI@UContainer@@UAEPAVUComponent@@ABUFPoint@@@Z" PURGE="4" COMMENT="" />
    <EXPORT ORDINAL="704" NAME="?GetComponentAtI@UMouseCursor@@UAEPAVUComponent@@ABUFPoint@@@Z" PURGE="4" COMMENT="" />
    <EXPORT ORDINAL="705" NAME="?GetComponentAtI@UMultiStateComponent@@UAEPAVUComponent@@ABUFPoint@@@Z" PURGE="4" COMMENT="" />
    <EXPORT ORDINAL="706" NAME="?GetComponentI@UComponent@@MAEPAV1@V?$TArray@VuiName@@@@@Z" PURGE="12" COMMENT="" />
    <EXPORT ORDINAL="707" NAME="?GetComponentI@UComponent@@MAEPAV1@VuiName@@@Z" PURGE="4" COMMENT="" />
    <EXPORT ORDINAL="708" NAME="?GetComponentI@UContainer@@UAEPAVUComponent@@V?$TArray@VuiName@@@@@Z" PURGE="12" COMMENT="" />
    <EXPORT ORDINAL="709" NAME="?GetComponentI@UContainer@@UAEPAVUComponent@@VuiName@@@Z" PURGE="4" COMMENT="" />
    <EXPORT ORDINAL="710" NAME="?GetComponentI@UTextField@@UAEPAVUComponent@@V?$TArray@VuiName@@@@@Z" PURGE="12" COMMENT="" />
    <EXPORT ORDINAL="711" NAME="?GetComponentIndex@UContainer@@QAEHPAVUComponent@@@Z" PURGE="4" COMMENT="" />
    <EXPORT ORDINAL="712" NAME="?GetConsole@UComponent@@QAEPAVUConsole@@XZ" PURGE="0" COMMENT="" />
    <EXPORT ORDINAL="713" NAME="?GetCurrentItem@USelector@@UAE?AVFString@@XZ" PURGE="4" COMMENT="" />
    <EXPORT ORDINAL="714" NAME="?GetCurrentItem@USelectorList@@UAE?AVFString@@XZ" PURGE="4" COMMENT="" />
    <EXPORT ORDINAL="715" NAME="?GetCursorPosition@UTextField@@UAEHXZ" PURGE="0" COMMENT="" />
    <EXPORT ORDINAL="716" NAME="?GetDim@UScrollBar@@MAEMPAVUComponent@@@Z" PURGE="4" COMMENT="" />
    <EXPORT ORDINAL="717" NAME="?GetEntryLevel@UUIConsole@@QAEPAVALevelInfo@@XZ" PURGE="-1" COMMENT="" />
    <EXPORT ORDINAL="718" NAME="?GetEvent@@YAHVFString@@@Z" PURGE="0" COMMENT="" />
    <EXPORT ORDINAL="719" NAME="?GetEvent@UComponent@@SAHVFString@@@Z" PURGE="0" COMMENT="" />
    <EXPORT ORDINAL="720" NAME="?GetFont@UButton@@UAEPAVUFont@@PAVUCanvas@@@Z" PURGE="4" COMMENT="" />
    <EXPORT ORDINAL="721" NAME="?GetFont@USelector@@UAEPAVUFont@@PAVUCanvas@@@Z" PURGE="-1" COMMENT="" />
    <EXPORT ORDINAL="722" NAME="?GetFont@USelectorList@@UAEPAVUFont@@PAVUCanvas@@@Z" PURGE="-1" COMMENT="" />
    <EXPORT ORDINAL="723" NAME="?GetFont@UTextArea@@UAEPAVUFont@@PAVUCanvas@@@Z" PURGE="4" COMMENT="" />
    <EXPORT ORDINAL="724" NAME="?GetFont@UTextComponentBase@@UAEPAVUFont@@PAVUCanvas@@@Z" PURGE="4" COMMENT="" />
    <EXPORT ORDINAL="725" NAME="?GetFontHeight@UTextComponentBase@@UAEMPAVUFont@@@Z" PURGE="4" COMMENT="" />
    <EXPORT ORDINAL="726" NAME="?GetFrameHeightPct@UFrame@@QAEMXZ" PURGE="0" COMMENT="" />
    <EXPORT ORDINAL="727" NAME="?GetFrameLocation@UFrame@@UAE?AUFPoint@@XZ" PURGE="4" COMMENT="" />
    <EXPORT ORDINAL="728" NAME="?GetFrameLocation@UScrollFrame@@QAE?AUFPoint@@XZ" PURGE="4" COMMENT="" />
    <EXPORT ORDINAL="729" NAME="?GetFrameSize@UFrame@@UAE?AUFDimension@@XZ" PURGE="4" COMMENT="" />
    <EXPORT ORDINAL="730" NAME="?GetFrameSize@UScrollFrame@@QAE?AUFDimension@@XZ" PURGE="4" COMMENT="" />
    <EXPORT ORDINAL="731" NAME="?GetFrameWidthPct@UFrame@@QAEMXZ" PURGE="0" COMMENT="" />
    <EXPORT ORDINAL="732" NAME="?GetFrameXPct@UFrame@@QAEMXZ" PURGE="0" COMMENT="" />
    <EXPORT ORDINAL="733" NAME="?GetFrameYPct@UFrame@@QAEMXZ" PURGE="0" COMMENT="" />
    <EXPORT ORDINAL="734" NAME="?GetFullName@UComponent@@QAE?AVFString@@XZ" PURGE="4" COMMENT="" />
    <EXPORT ORDINAL="735" NAME="?GetFullPath@UComponent@@QAE?AV?$TArray@VuiName@@@@XZ" PURGE="4" COMMENT="" />
    <EXPORT ORDINAL="736" NAME="?GetFullPathI@UComponent@@MAE?AV?$TArray@VuiName@@@@XZ" PURGE="4" COMMENT="" />
    <EXPORT ORDINAL="737" NAME="?GetG@UComponent@@QAEEXZ" PURGE="0" COMMENT="" />
    <EXPORT ORDINAL="738" NAME="?GetGConsole@@YAAAPAVUUIConsole@@XZ" PURGE="0" COMMENT="" />
    <EXPORT ORDINAL="739" NAME="?GetGTokenSeparator@@YAAAVFString@@XZ" PURGE="0" COMMENT="" />
    <EXPORT ORDINAL="740" NAME="?GetGroup@UComponent@@UAEPAVUContainer@@XZ" PURGE="0" COMMENT="" />
    <EXPORT ORDINAL="741" NAME="?GetGroup@USelector@@UAEPAVUContainer@@XZ" PURGE="0" COMMENT="" />
    <EXPORT ORDINAL="742" NAME="?GetHeight@UComponent@@QAEMXZ" PURGE="0" COMMENT="" />
    <EXPORT ORDINAL="743" NAME="?GetID@ActionEvent@@UBEEXZ" PURGE="0" COMMENT="" />
    <EXPORT ORDINAL="744" NAME="?GetID@ConsoleCommandEvent@@UBEEXZ" PURGE="0" COMMENT="" />
    <EXPORT ORDINAL="745" NAME="?GetID@CutsceneTimedEvent@@UBEEXZ" PURGE="0" COMMENT="" />
    <EXPORT ORDINAL="746" NAME="?GetID@EventDisabler@@UBEEXZ" PURGE="0" COMMENT="" />
    <EXPORT ORDINAL="747" NAME="?GetID@EventEnabler@@UBEEXZ" PURGE="0" COMMENT="" />
    <EXPORT ORDINAL="748" NAME="?GetID@EventSender@@UBEEXZ" PURGE="0" COMMENT="" />
    <EXPORT ORDINAL="749" NAME="?GetID@ExpressionEvent@@UBEEXZ" PURGE="0" COMMENT="" />
    <EXPORT ORDINAL="750" NAME="?GetID@GameFlagEvent@@UBEEXZ" PURGE="0" COMMENT="" />
    <EXPORT ORDINAL="751" NAME="?GetID@KeyframeEvent@@UBEEXZ" PURGE="0" COMMENT="" />
    <EXPORT ORDINAL="752" NAME="?GetID@OwnerEvent@@UBEEXZ" PURGE="0" COMMENT="" />
    <EXPORT ORDINAL="753" NAME="?GetID@PlayerCommandEvent@@UBEEXZ" PURGE="0" COMMENT="" />
    <EXPORT ORDINAL="754" NAME="?GetID@PlayerEvent@@UBEEXZ" PURGE="0" COMMENT="" />
    <EXPORT ORDINAL="755" NAME="?GetID@PlayerPawnEvent@@UBEEXZ" PURGE="0" COMMENT="" />
    <EXPORT ORDINAL="756" NAME="?GetID@ScriptEvent@@UBEEXZ" PURGE="0" COMMENT="" />
    <EXPORT ORDINAL="757" NAME="?GetImage@UAnimatedImageComponent@@UAEPAVFImage@@XZ" PURGE="0" COMMENT="" />
    <EXPORT ORDINAL="758" NAME="?GetImage@UButtonImage@@UAEPAVFImage@@XZ" PURGE="0" COMMENT="" />
    <EXPORT ORDINAL="759" NAME="?GetImage@UImageComponent@@UAEPAVFImage@@XZ" PURGE="0" COMMENT="" />
    <EXPORT ORDINAL="760" NAME="?GetImage@UMultiImageComponent@@UAEPAVFImage@@XZ" PURGE="0" COMMENT="" />
    <EXPORT ORDINAL="761" NAME="?GetIndentString@@YAPBGXZ" PURGE="0" COMMENT="" />
    <EXPORT ORDINAL="762" NAME="?GetIndex@UMultiImageComponent@@QAEHXZ" PURGE="0" COMMENT="" />
    <EXPORT ORDINAL="763" NAME="?GetIndex@uiName@@QAEGXZ" PURGE="0" COMMENT="" />
    <EXPORT ORDINAL="764" NAME="?GetIndexBounds@UTextArea@@IAEXAAH0@Z" PURGE="8" COMMENT="" />
    <EXPORT ORDINAL="765" NAME="?GetInstance@FNameTable@@SAPAV1@XZ" PURGE="0" COMMENT="" />
    <EXPORT ORDINAL="766" NAME="?GetIntValue@UScrollBar@@QAEHXZ" PURGE="0" COMMENT="" />
    <EXPORT ORDINAL="767" NAME="?GetIntValue@USlider@@UAEHXZ" PURGE="0" COMMENT="" />
    <EXPORT ORDINAL="768" NAME="?GetItem@USelector@@UAE?AVFString@@H@Z" PURGE="8" COMMENT="" />
    <EXPORT ORDINAL="769" NAME="?GetItem@USelectorList@@UAE?AVFString@@H@Z" PURGE="8" COMMENT="" />
    <EXPORT ORDINAL="770" NAME="?GetLevel@UUIConsole@@QAEPAVALevelInfo@@XZ" PURGE="-1" COMMENT="" />
    <EXPORT ORDINAL="771" NAME="?GetLocation@UComponent@@QAE?AUFPoint@@XZ" PURGE="4" COMMENT="" />
    <EXPORT ORDINAL="772" NAME="?GetLocationI@UComponent@@MAE?AUFPoint@@XZ" PURGE="4" COMMENT="" />
    <EXPORT ORDINAL="773" NAME="?GetLocationOut@UComponent@@QAE?AUFPoint@@AAU2@@Z" PURGE="8" COMMENT="" />
    <EXPORT ORDINAL="774" NAME="?GetLocationOutC@UComponent@@QAE?AUFPoint@@AAM0@Z" PURGE="12" COMMENT="" />
    <EXPORT ORDINAL="775" NAME="?GetLooseComponents@UComponent@@QAEXVuiName@@AAV?$TArray@PAVUComponent@@@@@Z" PURGE="8" COMMENT="" />
    <EXPORT ORDINAL="776" NAME="?GetLooseComponentsI@UComponent@@MAEXVuiName@@AAV?$TArray@PAVUComponent@@@@@Z" PURGE="8" COMMENT="" />
    <EXPORT ORDINAL="777" NAME="?GetLooseComponentsI@UContainer@@UAEXVuiName@@AAV?$TArray@PAVUComponent@@@@@Z" PURGE="8" COMMENT="" />
    <EXPORT ORDINAL="778" NAME="?GetMatrix@UTexUIhook@@UAEPAVFMatrix@@XZ" PURGE="0" COMMENT="" />
    <EXPORT ORDINAL="779" NAME="?GetMouseIndex@UMouseCursor@@QAEHXZ" PURGE="0" COMMENT="" />
    <EXPORT ORDINAL="780" NAME="?GetName@FNameTable@@QAE?AVFString@@VuiName@@@Z" PURGE="8" COMMENT="" />
    <EXPORT ORDINAL="781" NAME="?GetName@UComponent@@QAE?AVFString@@XZ" PURGE="4" COMMENT="" />
    <EXPORT ORDINAL="782" NAME="?GetName@uiClass@@QAEPBGXZ" PURGE="0" COMMENT="" />
    <EXPORT ORDINAL="783" NAME="?GetOwner@UComponent@@QAEPAVUObject@@XZ" PURGE="0" COMMENT="" />
    <EXPORT ORDINAL="784" NAME="?GetParent@UComponent@@QAEPAVUContainer@@PAVuiClass@@@Z" PURGE="4" COMMENT="" />
    <EXPORT ORDINAL="785" NAME="?GetPathString@@YA?AVFString@@V?$TArray@VuiName@@@@@Z" PURGE="0" COMMENT="" />
    <EXPORT ORDINAL="786" NAME="?GetPlayerOwner@UComponent@@QAEPAVAPlayerController@@XZ" PURGE="0" COMMENT="" />
    <EXPORT ORDINAL="787" NAME="?GetPlayerOwner@UUIConsole@@QAEPAVAPlayerController@@XZ" PURGE="0" COMMENT="" />
    <EXPORT ORDINAL="788" NAME="?GetPolyFlags@UComponent@@IAEKXZ" PURGE="0" COMMENT="" />
    <EXPORT ORDINAL="789" NAME="?GetPos@UScrollBar@@MAEMPAVUComponent@@@Z" PURGE="4" COMMENT="" />
    <EXPORT ORDINAL="790" NAME="?GetR@UComponent@@QAEEXZ" PURGE="0" COMMENT="" />
    <EXPORT ORDINAL="791" NAME="?GetRadius@UImageWedge@@QAEMXZ" PURGE="0" COMMENT="" />
    <EXPORT ORDINAL="792" NAME="?GetRange@UScrollBar@@UAEXAAM0@Z" PURGE="8" COMMENT="" />
    <EXPORT ORDINAL="793" NAME="?GetRoot@UComponent@@QAEPAV1@XZ" PURGE="0" COMMENT="" />
    <EXPORT ORDINAL="794" NAME="?GetScreenBounds@UComponent@@QAE?AUFRectangle@@XZ" PURGE="4" COMMENT="" />
    <EXPORT ORDINAL="795" NAME="?GetScreenBoundsI@UComponent@@MAE?AUFRectangle@@XZ" PURGE="4" COMMENT="" />
    <EXPORT ORDINAL="796" NAME="?GetScreenBoundsI@UContainer@@UAE?AUFRectangle@@XZ" PURGE="4" COMMENT="" />
    <EXPORT ORDINAL="797" NAME="?GetScreenBoundsI@UFixedSizeContainer@@UAE?AUFRectangle@@XZ" PURGE="4" COMMENT="" />
    <EXPORT ORDINAL="798" NAME="?GetScreenBoundsI@UFrame@@UAE?AUFRectangle@@XZ" PURGE="4" COMMENT="" />
    <EXPORT ORDINAL="799" NAME="?GetScreenBoundsI@UMultiStateComponent@@UAE?AUFRectangle@@XZ" PURGE="4" COMMENT="" />
    <EXPORT ORDINAL="800" NAME="?GetScreenBoundsI@USelector@@UAE?AUFRectangle@@XZ" PURGE="4" COMMENT="" />
    <EXPORT ORDINAL="801" NAME="?GetScreenBoundsOut@UComponent@@QAE?AUFRectangle@@AAU2@@Z" PURGE="8" COMMENT="" />
    <EXPORT ORDINAL="802" NAME="?GetScreenBoundsOutC@UComponent@@QAE?AUFRectangle@@AAM000@Z" PURGE="20" COMMENT="" />
    <EXPORT ORDINAL="803" NAME="?GetScreenCoords@UComponent@@QAE?AUFPoint@@XZ" PURGE="4" COMMENT="" />
    <EXPORT ORDINAL="804" NAME="?GetScreenCoordsI@UComponent@@MAE?AUFPoint@@XZ" PURGE="4" COMMENT="" />
    <EXPORT ORDINAL="805" NAME="?GetScreenCoordsI@UMouseCursor@@UAE?AUFPoint@@XZ" PURGE="4" COMMENT="" />
    <EXPORT ORDINAL="806" NAME="?GetSelectionLeft@UTextField@@UAEHXZ" PURGE="0" COMMENT="" />
    <EXPORT ORDINAL="807" NAME="?GetSelectionRight@UTextField@@UAEHXZ" PURGE="0" COMMENT="" />
    <EXPORT ORDINAL="808" NAME="?GetSelectionSize@UTextField@@UAEHXZ" PURGE="0" COMMENT="" />
    <EXPORT ORDINAL="809" NAME="?GetSize@UComponent@@QAE?AUFDimension@@XZ" PURGE="4" COMMENT="" />
    <EXPORT ORDINAL="810" NAME="?GetSizeI@UComponent@@MAE?AUFDimension@@XZ" PURGE="4" COMMENT="" />
    <EXPORT ORDINAL="811" NAME="?GetSizeI@UContainer@@UAE?AUFDimension@@XZ" PURGE="4" COMMENT="" />
    <EXPORT ORDINAL="812" NAME="?GetSizeI@UFixedSizeContainer@@UAE?AUFDimension@@XZ" PURGE="4" COMMENT="" />
    <EXPORT ORDINAL="813" NAME="?GetSizeI@UFrame@@UAE?AUFDimension@@XZ" PURGE="4" COMMENT="" />
    <EXPORT ORDINAL="814" NAME="?GetSizeI@ULabel@@UAE?AUFDimension@@XZ" PURGE="4" COMMENT="" />
    <EXPORT ORDINAL="815" NAME="?GetSizeI@UMultiImageComponent@@UAE?AUFDimension@@XZ" PURGE="4" COMMENT="" />
    <EXPORT ORDINAL="816" NAME="?GetSizeI@UMultiStateComponent@@UAE?AUFDimension@@XZ" PURGE="4" COMMENT="" />
    <EXPORT ORDINAL="817" NAME="?GetSizeI@URealComponent@@UAE?AUFDimension@@XZ" PURGE="4" COMMENT="" />
    <EXPORT ORDINAL="818" NAME="?GetSizeI@USelectorList@@UAE?AUFDimension@@XZ" PURGE="4" COMMENT="" />
    <EXPORT ORDINAL="819" NAME="?GetSizeOut@UComponent@@QAE?AUFDimension@@AAU2@@Z" PURGE="8" COMMENT="" />
    <EXPORT ORDINAL="820" NAME="?GetSizeOutC@UComponent@@QAE?AUFDimension@@AAM0@Z" PURGE="12" COMMENT="" />
    <EXPORT ORDINAL="821" NAME="?GetState@UMultiStateComponent@@QAEPAVUComponent@@XZ" PURGE="0" COMMENT="" />
    <EXPORT ORDINAL="822" NAME="?GetStateIndex@UMultiStateComponent@@QAEHXZ" PURGE="0" COMMENT="" />
    <EXPORT ORDINAL="823" NAME="?GetStringValue@USlider@@UAE?AVFString@@XZ" PURGE="4" COMMENT="" />
    <EXPORT ORDINAL="824" NAME="?GetStyle@UComponent@@QAE?AW4ERenderStyle@@XZ" PURGE="0" COMMENT="" />
    <EXPORT ORDINAL="825" NAME="?GetStyleI@UComponent@@MAE?AW4ERenderStyle@@XZ" PURGE="0" COMMENT="" />
    <EXPORT ORDINAL="826" NAME="?GetStyleI@UContainer@@UAE?AW4ERenderStyle@@XZ" PURGE="0" COMMENT="" />
    <EXPORT ORDINAL="827" NAME="?GetStyleI@UMultiStateComponent@@UAE?AW4ERenderStyle@@XZ" PURGE="0" COMMENT="" />
    <EXPORT ORDINAL="828" NAME="?GetStyleI@URealComponent@@UAE?AW4ERenderStyle@@XZ" PURGE="0" COMMENT="" />
    <EXPORT ORDINAL="829" NAME="?GetStyleI@USelectorList@@UAE?AW4ERenderStyle@@XZ" PURGE="0" COMMENT="" />
    <EXPORT ORDINAL="830" NAME="?GetSuper@uiClass@@QAEPAV1@XZ" PURGE="0" COMMENT="" />
    <EXPORT ORDINAL="831" NAME="?GetTarget@ComponentNotifyInfo@@QBEPAVUComponent@@XZ" PURGE="0" COMMENT="" />
    <EXPORT ORDINAL="832" NAME="?GetTarget@UScriptComponent@@QAEPAVActionEvent@@XZ" PURGE="0" COMMENT="" />
    <EXPORT ORDINAL="833" NAME="?GetTargetValue@USlider@@UAEXXZ" PURGE="0" COMMENT="" />
    <EXPORT ORDINAL="834" NAME="?GetText@UButton@@UAE?AVFString@@XZ" PURGE="4" COMMENT="" />
    <EXPORT ORDINAL="835" NAME="?GetText@ULabel@@QAE?AVFString@@XZ" PURGE="4" COMMENT="" />
    <EXPORT ORDINAL="836" NAME="?GetTimeSeconds@UComponent@@QAENXZ" PURGE="0" COMMENT="" />
    <EXPORT ORDINAL="837" NAME="?GetUIConsole@UComponent@@QAEPAVUUIConsole@@XZ" PURGE="0" COMMENT="" />
    <EXPORT ORDINAL="838" NAME="?GetValue@UScrollBar@@UAEMXZ" PURGE="0" COMMENT="" />
    <EXPORT ORDINAL="839" NAME="?GetValue@USlider@@UAEMXZ" PURGE="0" COMMENT="" />
    <EXPORT ORDINAL="840" NAME="?GetVisibleRange@UScrollBar@@UAEMXZ" PURGE="0" COMMENT="" />
    <EXPORT ORDINAL="841" NAME="?GetWidth@UComponent@@QAEMXZ" PURGE="0" COMMENT="" />
    <EXPORT ORDINAL="842" NAME="?GetX@UComponent@@QAEMXZ" PURGE="0" COMMENT="" />
    <EXPORT ORDINAL="843" NAME="?GetY@UComponent@@QAEMXZ" PURGE="0" COMMENT="" />
    <EXPORT ORDINAL="844" NAME="?GetuiEventTable@@YAAAV?$THashTable@VFString@@H$09@@XZ" PURGE="0" COMMENT="" />
    <EXPORT ORDINAL="845" NAME="?Global_Click@UInputSelector@@IAEXXZ" PURGE="0" COMMENT="" />
    <EXPORT ORDINAL="846" NAME="?Global_GetColor@UInputSelector@@IAE?AVFColor@@XZ" PURGE="4" COMMENT="" />
    <EXPORT ORDINAL="847" NAME="?Global_GetState@UMultiStateComponent@@IAEPAVUComponent@@XZ" PURGE="0" COMMENT="" />
    <EXPORT ORDINAL="848" NAME="?Global_HandleEvent@UMultiStateComponent@@IAEXH@Z" PURGE="4" COMMENT="" />
    <EXPORT ORDINAL="849" NAME="?Global_KeyEvent@UInputSelector@@IAEHW4EInputKey@@W4EInputAction@@M@Z" PURGE="12" COMMENT="" />
    <EXPORT ORDINAL="850" NAME="?Global_ProcessKey@UInputSelector@@IAEXHVFString@@@Z" PURGE="16" COMMENT="" />
    <EXPORT ORDINAL="851" NAME="?Global_StartListening@UInputSelector@@IAEXXZ" PURGE="0" COMMENT="" />
    <EXPORT ORDINAL="852" NAME="?Global_StopListening@UInputSelector@@IAEXXZ" PURGE="0" COMMENT="" />
    <EXPORT ORDINAL="853" NAME="?Global_Update@UMultiStateComponent@@IAEXPAVFSceneNode@@PAVFUIRenderer@@@Z" PURGE="8" COMMENT="" />
    <EXPORT ORDINAL="854" NAME="?GotoState_Listening@UInputSelector@@QAEXXZ" PURGE="0" COMMENT="" />
    <EXPORT ORDINAL="855" NAME="?GotoState_None@UInputSelector@@QAEXXZ" PURGE="0" COMMENT="" />
    <EXPORT ORDINAL="856" NAME="?GotoState_None@UMultiStateComponent@@QAEXXZ" PURGE="0" COMMENT="" />
    <EXPORT ORDINAL="857" NAME="?GotoState_Transitioning@UMultiStateComponent@@QAEXXZ" PURGE="0" COMMENT="" />
    <EXPORT ORDINAL="858" NAME="?HandleEvent@UComponent@@UAEXH@Z" PURGE="4" COMMENT="" />
    <EXPORT ORDINAL="859" NAME="?HandleEvent@UCredits@@UAEXH@Z" PURGE="4" COMMENT="" />
    <EXPORT ORDINAL="860" NAME="?HandleEvent@UInputSelector@@UAEXH@Z" PURGE="4" COMMENT="" />
    <EXPORT ORDINAL="861" NAME="?HandleEvent@UMultiStateComponent@@UAEXH@Z" PURGE="4" COMMENT="" />
    <EXPORT ORDINAL="862" NAME="?HandleEvent@USelector@@UAEXH@Z" PURGE="4" COMMENT="" />
    <EXPORT ORDINAL="863" NAME="?HandleEvent@USoundComponent@@UAEXH@Z" PURGE="4" COMMENT="" />
    <EXPORT ORDINAL="864" NAME="?HasComponent@UContainer@@QAEHPAVUComponent@@@Z" PURGE="4" COMMENT="" />
    <EXPORT ORDINAL="865" NAME="?HasFocus@UComponent@@QAEHXZ" PURGE="0" COMMENT="" />
    <EXPORT ORDINAL="866" NAME="?HasFocusI@UComponent@@MAEHXZ" PURGE="0" COMMENT="" />
    <EXPORT ORDINAL="867" NAME="?HasItem@USelector@@UAEHVFString@@@Z" PURGE="12" COMMENT="" />
    <EXPORT ORDINAL="868" NAME="?HasItem@USelectorList@@UAEHVFString@@@Z" PURGE="12" COMMENT="" />
    <EXPORT ORDINAL="869" NAME="?Import@UAnimatedImageComponent@@UAEXPAV?$TMultiMap@VFString@@V1@@@@Z" PURGE="4" COMMENT="" />
    <EXPORT ORDINAL="870" NAME="?Import@UButton@@UAEXPAV?$TMultiMap@VFString@@V1@@@@Z" PURGE="4" COMMENT="" />
    <EXPORT ORDINAL="871" NAME="?Import@UCheckBox@@UAEXPAV?$TMultiMap@VFString@@V1@@@@Z" PURGE="4" COMMENT="" />
    <EXPORT ORDINAL="872" NAME="?Import@UComponent@@UAEXPAV?$TMultiMap@VFString@@V1@@@@Z" PURGE="4" COMMENT="" />
    <EXPORT ORDINAL="873" NAME="?Import@UContainer@@UAEXPAV?$TMultiMap@VFString@@V1@@@@Z" PURGE="4" COMMENT="" />
    <EXPORT ORDINAL="874" NAME="?Import@UCredits@@UAEXPAV?$TMultiMap@VFString@@V1@@@@Z" PURGE="4" COMMENT="" />
    <EXPORT ORDINAL="875" NAME="?Import@UEditor@@UAEXPAV?$TMultiMap@VFString@@V1@@@@Z" PURGE="4" COMMENT="" />
    <EXPORT ORDINAL="876" NAME="?Import@UFrame@@UAEXPAV?$TMultiMap@VFString@@V1@@@@Z" PURGE="4" COMMENT="" />
    <EXPORT ORDINAL="877" NAME="?Import@UHoldButton@@UAEXPAV?$TMultiMap@VFString@@V1@@@@Z" PURGE="4" COMMENT="" />
    <EXPORT ORDINAL="878" NAME="?Import@UImage@@UAEXPAV?$TMultiMap@VFString@@V1@@@@Z" PURGE="4" COMMENT="" />
    <EXPORT ORDINAL="879" NAME="?Import@UImageComponent@@UAEXPAV?$TMultiMap@VFString@@V1@@@@Z" PURGE="4" COMMENT="" />
    <EXPORT ORDINAL="880" NAME="?Import@UImageComponentBase@@UAEXPAV?$TMultiMap@VFString@@V1@@@@Z" PURGE="4" COMMENT="" />
    <EXPORT ORDINAL="881" NAME="?Import@UImageWedge@@UAEXPAV?$TMultiMap@VFString@@V1@@@@Z" PURGE="4" COMMENT="" />
    <EXPORT ORDINAL="882" NAME="?Import@UImageWipe@@UAEXPAV?$TMultiMap@VFString@@V1@@@@Z" PURGE="4" COMMENT="" />
    <EXPORT ORDINAL="883" NAME="?Import@UInputSelector@@UAEXPAV?$TMultiMap@VFString@@V1@@@@Z" PURGE="4" COMMENT="" />
    <EXPORT ORDINAL="884" NAME="?Import@UKeyEvent@@UAEXPAV?$TMultiMap@VFString@@V1@@@@Z" PURGE="4" COMMENT="" />
    <EXPORT ORDINAL="885" NAME="?Import@ULabel@@UAEXPAV?$TMultiMap@VFString@@V1@@@@Z" PURGE="4" COMMENT="" />
    <EXPORT ORDINAL="886" NAME="?Import@ULabelShadow@@UAEXPAV?$TMultiMap@VFString@@V1@@@@Z" PURGE="4" COMMENT="" />
    <EXPORT ORDINAL="887" NAME="?Import@UMouseCursor@@UAEXPAV?$TMultiMap@VFString@@V1@@@@Z" PURGE="4" COMMENT="" />
    <EXPORT ORDINAL="888" NAME="?Import@UMultiImageComponent@@UAEXPAV?$TMultiMap@VFString@@V1@@@@Z" PURGE="4" COMMENT="" />
    <EXPORT ORDINAL="889" NAME="?Import@UMultiStateComponent@@UAEXPAV?$TMultiMap@VFString@@V1@@@@Z" PURGE="4" COMMENT="" />
    <EXPORT ORDINAL="890" NAME="?Import@UNumWatcher@@UAEXPAV?$TMultiMap@VFString@@V1@@@@Z" PURGE="4" COMMENT="" />
    <EXPORT ORDINAL="891" NAME="?Import@UPlayerID@@UAEXPAV?$TMultiMap@VFString@@V1@@@@Z" PURGE="4" COMMENT="" />
    <EXPORT ORDINAL="892" NAME="?Import@UScaleContainer@@UAEXPAV?$TMultiMap@VFString@@V1@@@@Z" PURGE="4" COMMENT="" />
    <EXPORT ORDINAL="893" NAME="?Import@UScriptComponent@@UAEXPAV?$TMultiMap@VFString@@V1@@@@Z" PURGE="4" COMMENT="" />
    <EXPORT ORDINAL="894" NAME="?Import@UScrollBar@@UAEXPAV?$TMultiMap@VFString@@V1@@@@Z" PURGE="4" COMMENT="" />
    <EXPORT ORDINAL="895" NAME="?Import@UScrollFrame@@UAEXPAV?$TMultiMap@VFString@@V1@@@@Z" PURGE="4" COMMENT="" />
    <EXPORT ORDINAL="896" NAME="?Import@UScrollTextArea@@UAEXPAV?$TMultiMap@VFString@@V1@@@@Z" PURGE="4" COMMENT="" />
    <EXPORT ORDINAL="897" NAME="?Import@USelector@@UAEXPAV?$TMultiMap@VFString@@V1@@@@Z" PURGE="4" COMMENT="" />
    <EXPORT ORDINAL="898" NAME="?Import@USlider@@UAEXPAV?$TMultiMap@VFString@@V1@@@@Z" PURGE="4" COMMENT="" />
    <EXPORT ORDINAL="899" NAME="?Import@USoundComponent@@UAEXPAV?$TMultiMap@VFString@@V1@@@@Z" PURGE="4" COMMENT="" />
    <EXPORT ORDINAL="900" NAME="?Import@UTextArea@@UAEXPAV?$TMultiMap@VFString@@V1@@@@Z" PURGE="4" COMMENT="" />
    <EXPORT ORDINAL="901" NAME="?Import@UTextComponentBase@@UAEXPAV?$TMultiMap@VFString@@V1@@@@Z" PURGE="4" COMMENT="" />
    <EXPORT ORDINAL="902" NAME="?Import@UTextField@@UAEXPAV?$TMultiMap@VFString@@V1@@@@Z" PURGE="4" COMMENT="" />
    <EXPORT ORDINAL="903" NAME="?Import@UTileContainer@@UAEXPAV?$TMultiMap@VFString@@V1@@@@Z" PURGE="4" COMMENT="" />
    <EXPORT ORDINAL="904" NAME="?Import@UTimedImage@@UAEXPAV?$TMultiMap@VFString@@V1@@@@Z" PURGE="4" COMMENT="" />
    <EXPORT ORDINAL="905" NAME="?Import@UTimedLabel@@UAEXPAV?$TMultiMap@VFString@@V1@@@@Z" PURGE="4" COMMENT="" />
    <EXPORT ORDINAL="906" NAME="?Import@UTimedTextArea@@UAEXPAV?$TMultiMap@VFString@@V1@@@@Z" PURGE="4" COMMENT="" />
    <EXPORT ORDINAL="907" NAME="?Import@UVarWatcher@@UAEXPAV?$TMultiMap@VFString@@V1@@@@Z" PURGE="4" COMMENT="" />
    <EXPORT ORDINAL="908" NAME="?Import@UWindow@@UAEXPAV?$TMultiMap@VFString@@V1@@@@Z" PURGE="4" COMMENT="" />
    <EXPORT ORDINAL="909" NAME="?ImportIndentLevel@@3HA" PURGE="-1" COMMENT="" />
    <EXPORT ORDINAL="910" NAME="?Incinerate@UUIConsole@@QAEXPAVUComponent@@@Z" PURGE="4" COMMENT="" />
    <EXPORT ORDINAL="911" NAME="?Init@UButton@@UAEXXZ" PURGE="0" COMMENT="" />
    <EXPORT ORDINAL="912" NAME="?Init@UImageComponentBase@@UAEXXZ" PURGE="0" COMMENT="" />
    <EXPORT ORDINAL="913" NAME="?Init@UScrollBar@@UAEXXZ" PURGE="0" COMMENT="" />
    <EXPORT ORDINAL="914" NAME="?Init@UScrollFrame@@UAEXXZ" PURGE="0" COMMENT="" />
    <EXPORT ORDINAL="915" NAME="?Init@UScrollTextArea@@UAEXXZ" PURGE="0" COMMENT="" />
    <EXPORT ORDINAL="916" NAME="?Init@USelector@@UAEXXZ" PURGE="0" COMMENT="" />
    <EXPORT ORDINAL="917" NAME="?Init@USoundComponent@@UAEXXZ" PURGE="0" COMMENT="" />
    <EXPORT ORDINAL="918" NAME="?InitDefaults@UAnimatedImageComponent@@UAEXXZ" PURGE="0" COMMENT="" />
    <EXPORT ORDINAL="919" NAME="?InitDefaults@UButton@@UAEXXZ" PURGE="0" COMMENT="" />
    <EXPORT ORDINAL="920" NAME="?InitDefaults@UButtonImage@@UAEXXZ" PURGE="0" COMMENT="" />
    <EXPORT ORDINAL="921" NAME="?InitDefaults@UCheckBox@@UAEXXZ" PURGE="0" COMMENT="" />
    <EXPORT ORDINAL="922" NAME="?InitDefaults@UComponent@@UAEXXZ" PURGE="0" COMMENT="" />
    <EXPORT ORDINAL="923" NAME="?InitDefaults@UComponentHandle@@UAEXXZ" PURGE="0" COMMENT="" />
    <EXPORT ORDINAL="924" NAME="?InitDefaults@UContainer@@UAEXXZ" PURGE="0" COMMENT="" />
    <EXPORT ORDINAL="925" NAME="?InitDefaults@UCredits@@UAEXXZ" PURGE="0" COMMENT="" />
    <EXPORT ORDINAL="926" NAME="?InitDefaults@UEditor@@UAEXXZ" PURGE="0" COMMENT="" />
    <EXPORT ORDINAL="927" NAME="?InitDefaults@UFixedSizeContainer@@UAEXXZ" PURGE="0" COMMENT="" />
    <EXPORT ORDINAL="928" NAME="?InitDefaults@UFrame@@UAEXXZ" PURGE="0" COMMENT="" />
    <EXPORT ORDINAL="929" NAME="?InitDefaults@UHoldButton@@UAEXXZ" PURGE="0" COMMENT="" />
    <EXPORT ORDINAL="930" NAME="?InitDefaults@UImageComponent@@UAEXXZ" PURGE="0" COMMENT="" />
    <EXPORT ORDINAL="931" NAME="?InitDefaults@UImageComponentBase@@UAEXXZ" PURGE="0" COMMENT="" />
    <EXPORT ORDINAL="932" NAME="?InitDefaults@UImageWedge@@UAEXXZ" PURGE="0" COMMENT="" />
    <EXPORT ORDINAL="933" NAME="?InitDefaults@UImageWipe@@UAEXXZ" PURGE="0" COMMENT="" />
    <EXPORT ORDINAL="934" NAME="?InitDefaults@UInputSelector@@UAEXXZ" PURGE="0" COMMENT="" />
    <EXPORT ORDINAL="935" NAME="?InitDefaults@UKeyEvent@@UAEXXZ" PURGE="0" COMMENT="" />
    <EXPORT ORDINAL="936" NAME="?InitDefaults@ULabel@@UAEXXZ" PURGE="0" COMMENT="" />
    <EXPORT ORDINAL="937" NAME="?InitDefaults@ULabelShadow@@UAEXXZ" PURGE="0" COMMENT="" />
    <EXPORT ORDINAL="938" NAME="?InitDefaults@UMaterialContainer@@UAEXXZ" PURGE="0" COMMENT="" />
    <EXPORT ORDINAL="939" NAME="?InitDefaults@UMouseCursor@@UAEXXZ" PURGE="0" COMMENT="" />
    <EXPORT ORDINAL="940" NAME="?InitDefaults@UMoveHandle@@UAEXXZ" PURGE="0" COMMENT="" />
    <EXPORT ORDINAL="941" NAME="?InitDefaults@UMultiImageComponent@@UAEXXZ" PURGE="0" COMMENT="" />
    <EXPORT ORDINAL="942" NAME="?InitDefaults@UMultiStateComponent@@UAEXXZ" PURGE="0" COMMENT="" />
    <EXPORT ORDINAL="943" NAME="?InitDefaults@UNumWatcher@@UAEXXZ" PURGE="0" COMMENT="" />
    <EXPORT ORDINAL="944" NAME="?InitDefaults@UPlayerID@@UAEXXZ" PURGE="0" COMMENT="" />
    <EXPORT ORDINAL="945" NAME="?InitDefaults@URealComponent@@UAEXXZ" PURGE="0" COMMENT="" />
    <EXPORT ORDINAL="946" NAME="?InitDefaults@UResizeHandle@@UAEXXZ" PURGE="0" COMMENT="" />
    <EXPORT ORDINAL="947" NAME="?InitDefaults@UResizeHandleE@@UAEXXZ" PURGE="0" COMMENT="" />
    <EXPORT ORDINAL="948" NAME="?InitDefaults@UResizeHandleN@@UAEXXZ" PURGE="0" COMMENT="" />
    <EXPORT ORDINAL="949" NAME="?InitDefaults@UResizeHandleNE@@UAEXXZ" PURGE="0" COMMENT="" />
    <EXPORT ORDINAL="950" NAME="?InitDefaults@UResizeHandleNW@@UAEXXZ" PURGE="0" COMMENT="" />
    <EXPORT ORDINAL="951" NAME="?InitDefaults@UResizeHandleS@@UAEXXZ" PURGE="0" COMMENT="" />
    <EXPORT ORDINAL="952" NAME="?InitDefaults@UResizeHandleSE@@UAEXXZ" PURGE="0" COMMENT="" />
    <EXPORT ORDINAL="953" NAME="?InitDefaults@UResizeHandleSW@@UAEXXZ" PURGE="0" COMMENT="" />
    <EXPORT ORDINAL="954" NAME="?InitDefaults@UResizeHandleW@@UAEXXZ" PURGE="0" COMMENT="" />
    <EXPORT ORDINAL="955" NAME="?InitDefaults@UScaleContainer@@UAEXXZ" PURGE="0" COMMENT="" />
    <EXPORT ORDINAL="956" NAME="?InitDefaults@UScriptComponent@@UAEXXZ" PURGE="0" COMMENT="" />
    <EXPORT ORDINAL="957" NAME="?InitDefaults@UScrollBar@@UAEXXZ" PURGE="0" COMMENT="" />
    <EXPORT ORDINAL="958" NAME="?InitDefaults@UScrollFrame@@UAEXXZ" PURGE="0" COMMENT="" />
    <EXPORT ORDINAL="959" NAME="?InitDefaults@UScrollTextArea@@UAEXXZ" PURGE="0" COMMENT="" />
    <EXPORT ORDINAL="960" NAME="?InitDefaults@USelector@@UAEXXZ" PURGE="0" COMMENT="" />
    <EXPORT ORDINAL="961" NAME="?InitDefaults@USelectorItem@@UAEXXZ" PURGE="0" COMMENT="" />
    <EXPORT ORDINAL="962" NAME="?InitDefaults@USelectorList@@UAEXXZ" PURGE="0" COMMENT="" />
    <EXPORT ORDINAL="963" NAME="?InitDefaults@USlider@@UAEXXZ" PURGE="0" COMMENT="" />
    <EXPORT ORDINAL="964" NAME="?InitDefaults@USoundComponent@@UAEXXZ" PURGE="0" COMMENT="" />
    <EXPORT ORDINAL="965" NAME="?InitDefaults@UTextArea@@UAEXXZ" PURGE="0" COMMENT="" />
    <EXPORT ORDINAL="966" NAME="?InitDefaults@UTextComponentBase@@UAEXXZ" PURGE="0" COMMENT="" />
    <EXPORT ORDINAL="967" NAME="?InitDefaults@UTextField@@UAEXXZ" PURGE="0" COMMENT="" />
    <EXPORT ORDINAL="968" NAME="?InitDefaults@UTileContainer@@UAEXXZ" PURGE="0" COMMENT="" />
    <EXPORT ORDINAL="969" NAME="?InitDefaults@UTimedImage@@UAEXXZ" PURGE="0" COMMENT="" />
    <EXPORT ORDINAL="970" NAME="?InitDefaults@UTimedLabel@@UAEXXZ" PURGE="0" COMMENT="" />
    <EXPORT ORDINAL="971" NAME="?InitDefaults@UTimedTextArea@@UAEXXZ" PURGE="0" COMMENT="" />
    <EXPORT ORDINAL="972" NAME="?InitDefaults@UVarWatcher@@UAEXXZ" PURGE="0" COMMENT="" />
    <EXPORT ORDINAL="973" NAME="?InitDefaults@UWindow@@UAEXXZ" PURGE="0" COMMENT="" />
    <EXPORT ORDINAL="974" NAME="?InternalConstructor@UTexUIhook@@SAXPAX@Z" PURGE="0" COMMENT="" />
    <EXPORT ORDINAL="975" NAME="?InternalConstructor@UUIConsole@@SAXPAX@Z" PURGE="0" COMMENT="" />
    <EXPORT ORDINAL="976" NAME="?InternalConstructor@UUIHelper@@SAXPAX@Z" PURGE="0" COMMENT="" />
    <EXPORT ORDINAL="977" NAME="?Invalidate@UComponent@@QAEXXZ" PURGE="0" COMMENT="" />
    <EXPORT ORDINAL="978" NAME="?InvalidateI@UComponent@@MAEXXZ" PURGE="0" COMMENT="" />
    <EXPORT ORDINAL="979" NAME="?InvalidateI@UContainer@@UAEXXZ" PURGE="0" COMMENT="" />
    <EXPORT ORDINAL="980" NAME="?InvalidateI@UMultiStateComponent@@UAEXXZ" PURGE="0" COMMENT="" />
    <EXPORT ORDINAL="981" NAME="?InvalidateI@URealComponent@@UAEXXZ" PURGE="0" COMMENT="" />
    <EXPORT ORDINAL="982" NAME="?IsA@UComponent@@QAEHPAVuiClass@@@Z" PURGE="4" COMMENT="" />
    <EXPORT ORDINAL="983" NAME="?IsDisplayable@UComponent@@QAEHXZ" PURGE="0" COMMENT="" />
    <EXPORT ORDINAL="984" NAME="?IsDisplayableI@UComponent@@MAEHXZ" PURGE="0" COMMENT="" />
    <EXPORT ORDINAL="985" NAME="?IsDisplayableI@UContainer@@UAEHXZ" PURGE="0" COMMENT="" />
    <EXPORT ORDINAL="986" NAME="?IsDisplayableI@UMultiStateComponent@@UAEHXZ" PURGE="0" COMMENT="" />
    <EXPORT ORDINAL="987" NAME="?IsDisplayableI@URealComponent@@UAEHXZ" PURGE="0" COMMENT="" />
    <EXPORT ORDINAL="988" NAME="?IsEnabled@UComponent@@QAEHXZ" PURGE="0" COMMENT="" />
    <EXPORT ORDINAL="989" NAME="?IsEnabledI@UComponent@@MAEHXZ" PURGE="0" COMMENT="" />
    <EXPORT ORDINAL="990" NAME="?IsEnabledI@UContainer@@UAEHXZ" PURGE="0" COMMENT="" />
    <EXPORT ORDINAL="991" NAME="?IsEnabledI@UCredits@@UAEHXZ" PURGE="0" COMMENT="" />
    <EXPORT ORDINAL="992" NAME="?IsEnabledI@UKeyEvent@@UAEHXZ" PURGE="0" COMMENT="" />
    <EXPORT ORDINAL="993" NAME="?IsEnabledI@UMultiStateComponent@@UAEHXZ" PURGE="0" COMMENT="" />
    <EXPORT ORDINAL="994" NAME="?IsEnabledI@UPlayerID@@UAEHXZ" PURGE="0" COMMENT="" />
    <EXPORT ORDINAL="995" NAME="?IsEnabledI@URealComponent@@UAEHXZ" PURGE="0" COMMENT="" />
    <EXPORT ORDINAL="996" NAME="?IsEventEnabled@UComponent@@QAEHH@Z" PURGE="4" COMMENT="" />
    <EXPORT ORDINAL="997" NAME="?IsKeyIgnored@UTextField@@QAEHH@Z" PURGE="4" COMMENT="" />
    <EXPORT ORDINAL="998" NAME="?IsLessThan@ActionEvent@@QBEHPBV1@@Z" PURGE="4" COMMENT="" />
    <EXPORT ORDINAL="999" NAME="?IsLessThan@ComponentNotifyInfo@@QBEHPBV1@@Z" PURGE="4" COMMENT="" />
    <EXPORT ORDINAL="1000" NAME="?IsLessThan@UComponent@@UBEHPBV1@@Z" PURGE="4" COMMENT="" />
    <EXPORT ORDINAL="1001" NAME="?IsShowing@UComponent@@QAEHXZ" PURGE="0" COMMENT="" />
    <EXPORT ORDINAL="1002" NAME="?IsShowingI@UComponent@@MAEHXZ" PURGE="0" COMMENT="" />
    <EXPORT ORDINAL="1003" NAME="?IsShowingI@UContainer@@UAEHXZ" PURGE="0" COMMENT="" />
    <EXPORT ORDINAL="1004" NAME="?IsShowingI@UMultiStateComponent@@UAEHXZ" PURGE="0" COMMENT="" />
    <EXPORT ORDINAL="1005" NAME="?IsShowingI@URealComponent@@UAEHXZ" PURGE="0" COMMENT="" />
    <EXPORT ORDINAL="1006" NAME="?IsTransient@UComponent@@QAEHXZ" PURGE="0" COMMENT="" />
    <EXPORT ORDINAL="1007" NAME="?IsValid@ComponentNotifyInfo@@QBEHXZ" PURGE="0" COMMENT="" />
    <EXPORT ORDINAL="1008" NAME="?IsValid@UComponent@@QAEHXZ" PURGE="0" COMMENT="" />
    <EXPORT ORDINAL="1009" NAME="?IsValidI@UComponent@@MAEHXZ" PURGE="0" COMMENT="" />
    <EXPORT ORDINAL="1010" NAME="?IsValidI@UContainer@@UAEHXZ" PURGE="0" COMMENT="" />
    <EXPORT ORDINAL="1011" NAME="?IsValidI@UMultiStateComponent@@UAEHXZ" PURGE="0" COMMENT="" />
    <EXPORT ORDINAL="1012" NAME="?IsValidI@URealComponent@@UAEHXZ" PURGE="0" COMMENT="" />
    <EXPORT ORDINAL="1013" NAME="?IsVisible@UComponent@@QAEHXZ" PURGE="0" COMMENT="" />
    <EXPORT ORDINAL="1014" NAME="?IsVisibleI@UComponent@@MAEHXZ" PURGE="0" COMMENT="" />
    <EXPORT ORDINAL="1015" NAME="?IsVisibleI@UContainer@@UAEHXZ" PURGE="0" COMMENT="" />
    <EXPORT ORDINAL="1016" NAME="?IsVisibleI@UMultiStateComponent@@UAEHXZ" PURGE="0" COMMENT="" />
    <EXPORT ORDINAL="1017" NAME="?IsVisibleI@URealComponent@@UAEHXZ" PURGE="0" COMMENT="" />
    <EXPORT ORDINAL="1018" NAME="?KeyEvent@UEditor@@QAAXPAX@Z" PURGE="0" COMMENT="" />
    <EXPORT ORDINAL="1019" NAME="?KeyEvent@UInputSelector@@QAAXPAX@Z" PURGE="0" COMMENT="" />
    <EXPORT ORDINAL="1020" NAME="?KeyEvent@UKeyEvent@@QAAXPAX@Z" PURGE="0" COMMENT="" />
    <EXPORT ORDINAL="1021" NAME="?KeyEvent@UTextField@@QAAXPAX@Z" PURGE="0" COMMENT="" />
    <EXPORT ORDINAL="1022" NAME="?KeyEvent@UUIConsole@@UAEHW4EInputKey@@W4EInputAction@@M@Z" PURGE="12" COMMENT="" />
    <EXPORT ORDINAL="1023" NAME="?KeyType@UTextField@@QAAXPAX@Z" PURGE="0" COMMENT="" />
    <EXPORT ORDINAL="1024" NAME="?KeyType@UUIConsole@@UAEHW4EInputKey@@@Z" PURGE="4" COMMENT="" />
    <EXPORT ORDINAL="1025" NAME="?LevelBegin@UUIConsole@@UAEXXZ" PURGE="0" COMMENT="" />
    <EXPORT ORDINAL="1026" NAME="?Listening_Click@UInputSelector@@IAEXXZ" PURGE="0" COMMENT="" />
    <EXPORT ORDINAL="1027" NAME="?Listening_GetColor@UInputSelector@@IAE?AVFColor@@XZ" PURGE="4" COMMENT="" />
    <EXPORT ORDINAL="1028" NAME="?Listening_KeyEvent@UInputSelector@@IAEHW4EInputKey@@W4EInputAction@@M@Z" PURGE="12" COMMENT="" />
    <EXPORT ORDINAL="1029" NAME="?Listening_ProcessKey@UInputSelector@@IAEXHVFString@@@Z" PURGE="16" COMMENT="" />
    <EXPORT ORDINAL="1030" NAME="?Listening_StartListening@UInputSelector@@IAEXXZ" PURGE="0" COMMENT="" />
    <EXPORT ORDINAL="1031" NAME="?Listening_StopListening@UInputSelector@@IAEXXZ" PURGE="0" COMMENT="" />
    <EXPORT ORDINAL="1032" NAME="?LoadAndSetTexture@UComponent@@QAEXVFString@@AAPAVUTexture@@@Z" PURGE="16" COMMENT="" />
    <EXPORT ORDINAL="1033" NAME="?LoadComponent@UUIConsole@@QAEPAVUComponent@@VFString@@0PAV3@@Z" PURGE="28" COMMENT="" />
    <EXPORT ORDINAL="1034" NAME="?LoadSound@USoundComponent@@UAEXXZ" PURGE="0" COMMENT="" />
    <EXPORT ORDINAL="1035" NAME="?Lock@UComponent@@QAEXK@Z" PURGE="4" COMMENT="" />
    <EXPORT ORDINAL="1036" NAME="?Locked@UComponent@@QAEHK@Z" PURGE="4" COMMENT="" />
    <EXPORT ORDINAL="1037" NAME="?LooseCompare@uiName@@QAEHABV1@@Z" PURGE="4" COMMENT="" />
    <EXPORT ORDINAL="1038" NAME="?MaybeFlushIncinerator@UUIConsole@@QAEXXZ" PURGE="0" COMMENT="" />
    <EXPORT ORDINAL="1039" NAME="?MouseAction@UMouseCursor@@UAEXXZ" PURGE="0" COMMENT="" />
    <EXPORT ORDINAL="1040" NAME="?MouseClick_Enter@UComponent@@QAAXPAX@Z" PURGE="0" COMMENT="" />
    <EXPORT ORDINAL="1041" NAME="?MouseClick_Exit@UComponent@@QAAXPAX@Z" PURGE="0" COMMENT="" />
    <EXPORT ORDINAL="1042" NAME="?MouseClick_Press@UComponent@@QAAXPAX@Z" PURGE="0" COMMENT="" />
    <EXPORT ORDINAL="1043" NAME="?MouseClick_Release@UComponent@@QAAXPAX@Z" PURGE="0" COMMENT="" />
    <EXPORT ORDINAL="1044" NAME="?MouseEnter@USelector@@QAAXPAX@Z" PURGE="0" COMMENT="" />
    <EXPORT ORDINAL="1045" NAME="?MouseEnter@USelectorItem@@QAAXPAX@Z" PURGE="0" COMMENT="" />
    <EXPORT ORDINAL="1046" NAME="?MouseExit@USelectorItem@@QAAXPAX@Z" PURGE="0" COMMENT="" />
    <EXPORT ORDINAL="1047" NAME="?MouseMove_Event@UMouseCursor@@QAAXPAX@Z" PURGE="0" COMMENT="" />
    <EXPORT ORDINAL="1048" NAME="?MousePos@UMouseCursor@@2UFPoint@@A" PURGE="-1" COMMENT="" />
    <EXPORT ORDINAL="1049" NAME="?MousePress@UComponentHandle@@QAAXPAX@Z" PURGE="0" COMMENT="" />
    <EXPORT ORDINAL="1050" NAME="?MousePress@UEditor@@QAAXPAX@Z" PURGE="0" COMMENT="" />
    <EXPORT ORDINAL="1051" NAME="?MousePress@UHoldButton@@QAAXPAX@Z" PURGE="0" COMMENT="" />
    <EXPORT ORDINAL="1052" NAME="?MousePress@UScrollBar@@QAAXPAX@Z" PURGE="0" COMMENT="" />
    <EXPORT ORDINAL="1053" NAME="?MousePress@USelector@@QAAXPAX@Z" PURGE="0" COMMENT="" />
    <EXPORT ORDINAL="1054" NAME="?MousePress@USlider@@QAAXPAX@Z" PURGE="0" COMMENT="" />
    <EXPORT ORDINAL="1055" NAME="?MousePress@UTextField@@QAAXPAX@Z" PURGE="0" COMMENT="" />
    <EXPORT ORDINAL="1056" NAME="?MousePress_Event@UMouseCursor@@QAAXPAX@Z" PURGE="0" COMMENT="" />
    <EXPORT ORDINAL="1057" NAME="?MouseRelease@UComponentHandle@@QAAXPAX@Z" PURGE="0" COMMENT="" />
    <EXPORT ORDINAL="1058" NAME="?MouseRelease@UEditor@@QAAXPAX@Z" PURGE="0" COMMENT="" />
    <EXPORT ORDINAL="1059" NAME="?MouseRelease@UHoldButton@@QAAXPAX@Z" PURGE="0" COMMENT="" />
    <EXPORT ORDINAL="1060" NAME="?MouseRelease@UScrollBar@@QAAXPAX@Z" PURGE="0" COMMENT="" />
    <EXPORT ORDINAL="1061" NAME="?MouseRelease@USelector@@QAAXPAX@Z" PURGE="0" COMMENT="" />
    <EXPORT ORDINAL="1062" NAME="?MouseRelease@USelectorItem@@QAAXPAX@Z" PURGE="0" COMMENT="" />
    <EXPORT ORDINAL="1063" NAME="?MouseRelease@USlider@@QAAXPAX@Z" PURGE="0" COMMENT="" />
    <EXPORT ORDINAL="1064" NAME="?MouseRelease_Event@UMouseCursor@@QAAXPAX@Z" PURGE="0" COMMENT="" />
    <EXPORT ORDINAL="1065" NAME="?MyClass@?1??StaticClass@UAnimatedImageComponent@@SAPAVuiClass@@XZ@4PAV3@A" PURGE="-1" COMMENT="" />
    <EXPORT ORDINAL="1066" NAME="?MyClass@?1??StaticClass@UButton@@SAPAVuiClass@@XZ@4PAV3@A" PURGE="-1" COMMENT="" />
    <EXPORT ORDINAL="1067" NAME="?MyClass@?1??StaticClass@UButtonImage@@SAPAVuiClass@@XZ@4PAV3@A" PURGE="-1" COMMENT="" />
    <EXPORT ORDINAL="1068" NAME="?MyClass@?1??StaticClass@UCheckBox@@SAPAVuiClass@@XZ@4PAV3@A" PURGE="-1" COMMENT="" />
    <EXPORT ORDINAL="1069" NAME="?MyClass@?1??StaticClass@UComponent@@SAPAVuiClass@@XZ@4PAV3@A" PURGE="-1" COMMENT="" />
    <EXPORT ORDINAL="1070" NAME="?MyClass@?1??StaticClass@UComponentHandle@@SAPAVuiClass@@XZ@4PAV3@A" PURGE="-1" COMMENT="" />
    <EXPORT ORDINAL="1071" NAME="?MyClass@?1??StaticClass@UContainer@@SAPAVuiClass@@XZ@4PAV3@A" PURGE="-1" COMMENT="" />
    <EXPORT ORDINAL="1072" NAME="?MyClass@?1??StaticClass@UCredits@@SAPAVuiClass@@XZ@4PAV3@A" PURGE="-1" COMMENT="" />
    <EXPORT ORDINAL="1073" NAME="?MyClass@?1??StaticClass@UEditor@@SAPAVuiClass@@XZ@4PAV3@A" PURGE="-1" COMMENT="" />
    <EXPORT ORDINAL="1074" NAME="?MyClass@?1??StaticClass@UFixedSizeContainer@@SAPAVuiClass@@XZ@4PAV3@A" PURGE="-1" COMMENT="" />
    <EXPORT ORDINAL="1075" NAME="?MyClass@?1??StaticClass@UFrame@@SAPAVuiClass@@XZ@4PAV3@A" PURGE="-1" COMMENT="" />
    <EXPORT ORDINAL="1076" NAME="?MyClass@?1??StaticClass@UHoldButton@@SAPAVuiClass@@XZ@4PAV3@A" PURGE="-1" COMMENT="" />
    <EXPORT ORDINAL="1077" NAME="?MyClass@?1??StaticClass@UImage@@SAPAVuiClass@@XZ@4PAV3@A" PURGE="-1" COMMENT="" />
    <EXPORT ORDINAL="1078" NAME="?MyClass@?1??StaticClass@UImageComponent@@SAPAVuiClass@@XZ@4PAV3@A" PURGE="-1" COMMENT="" />
    <EXPORT ORDINAL="1079" NAME="?MyClass@?1??StaticClass@UImageComponentBase@@SAPAVuiClass@@XZ@4PAV3@A" PURGE="-1" COMMENT="" />
    <EXPORT ORDINAL="1080" NAME="?MyClass@?1??StaticClass@UImageWedge@@SAPAVuiClass@@XZ@4PAV3@A" PURGE="-1" COMMENT="" />
    <EXPORT ORDINAL="1081" NAME="?MyClass@?1??StaticClass@UImageWipe@@SAPAVuiClass@@XZ@4PAV3@A" PURGE="-1" COMMENT="" />
    <EXPORT ORDINAL="1082" NAME="?MyClass@?1??StaticClass@UInputSelector@@SAPAVuiClass@@XZ@4PAV3@A" PURGE="-1" COMMENT="" />
    <EXPORT ORDINAL="1083" NAME="?MyClass@?1??StaticClass@UKeyEvent@@SAPAVuiClass@@XZ@4PAV3@A" PURGE="-1" COMMENT="" />
    <EXPORT ORDINAL="1084" NAME="?MyClass@?1??StaticClass@ULabel@@SAPAVuiClass@@XZ@4PAV3@A" PURGE="-1" COMMENT="" />
    <EXPORT ORDINAL="1085" NAME="?MyClass@?1??StaticClass@ULabelShadow@@SAPAVuiClass@@XZ@4PAV3@A" PURGE="-1" COMMENT="" />
    <EXPORT ORDINAL="1086" NAME="?MyClass@?1??StaticClass@UMaterialContainer@@SAPAVuiClass@@XZ@4PAV3@A" PURGE="-1" COMMENT="" />
    <EXPORT ORDINAL="1087" NAME="?MyClass@?1??StaticClass@UMouseCursor@@SAPAVuiClass@@XZ@4PAV3@A" PURGE="-1" COMMENT="" />
    <EXPORT ORDINAL="1088" NAME="?MyClass@?1??StaticClass@UMoveHandle@@SAPAVuiClass@@XZ@4PAV3@A" PURGE="-1" COMMENT="" />
    <EXPORT ORDINAL="1089" NAME="?MyClass@?1??StaticClass@UMultiImageComponent@@SAPAVuiClass@@XZ@4PAV3@A" PURGE="-1" COMMENT="" />
    <EXPORT ORDINAL="1090" NAME="?MyClass@?1??StaticClass@UMultiStateComponent@@SAPAVuiClass@@XZ@4PAV3@A" PURGE="-1" COMMENT="" />
    <EXPORT ORDINAL="1091" NAME="?MyClass@?1??StaticClass@UNumWatcher@@SAPAVuiClass@@XZ@4PAV3@A" PURGE="-1" COMMENT="" />
    <EXPORT ORDINAL="1092" NAME="?MyClass@?1??StaticClass@UPlayerID@@SAPAVuiClass@@XZ@4PAV3@A" PURGE="-1" COMMENT="" />
    <EXPORT ORDINAL="1093" NAME="?MyClass@?1??StaticClass@URealComponent@@SAPAVuiClass@@XZ@4PAV3@A" PURGE="-1" COMMENT="" />
    <EXPORT ORDINAL="1094" NAME="?MyClass@?1??StaticClass@UResizeHandle@@SAPAVuiClass@@XZ@4PAV3@A" PURGE="-1" COMMENT="" />
    <EXPORT ORDINAL="1095" NAME="?MyClass@?1??StaticClass@UResizeHandleE@@SAPAVuiClass@@XZ@4PAV3@A" PURGE="-1" COMMENT="" />
    <EXPORT ORDINAL="1096" NAME="?MyClass@?1??StaticClass@UResizeHandleN@@SAPAVuiClass@@XZ@4PAV3@A" PURGE="-1" COMMENT="" />
    <EXPORT ORDINAL="1097" NAME="?MyClass@?1??StaticClass@UResizeHandleNE@@SAPAVuiClass@@XZ@4PAV3@A" PURGE="-1" COMMENT="" />
    <EXPORT ORDINAL="1098" NAME="?MyClass@?1??StaticClass@UResizeHandleNW@@SAPAVuiClass@@XZ@4PAV3@A" PURGE="-1" COMMENT="" />
    <EXPORT ORDINAL="1099" NAME="?MyClass@?1??StaticClass@UResizeHandleS@@SAPAVuiClass@@XZ@4PAV3@A" PURGE="-1" COMMENT="" />
    <EXPORT ORDINAL="1100" NAME="?MyClass@?1??StaticClass@UResizeHandleSE@@SAPAVuiClass@@XZ@4PAV3@A" PURGE="-1" COMMENT="" />
    <EXPORT ORDINAL="1101" NAME="?MyClass@?1??StaticClass@UResizeHandleSW@@SAPAVuiClass@@XZ@4PAV3@A" PURGE="-1" COMMENT="" />
    <EXPORT ORDINAL="1102" NAME="?MyClass@?1??StaticClass@UResizeHandleW@@SAPAVuiClass@@XZ@4PAV3@A" PURGE="-1" COMMENT="" />
    <EXPORT ORDINAL="1103" NAME="?MyClass@?1??StaticClass@UScaleContainer@@SAPAVuiClass@@XZ@4PAV3@A" PURGE="-1" COMMENT="" />
    <EXPORT ORDINAL="1104" NAME="?MyClass@?1??StaticClass@UScriptComponent@@SAPAVuiClass@@XZ@4PAV3@A" PURGE="-1" COMMENT="" />
    <EXPORT ORDINAL="1105" NAME="?MyClass@?1??StaticClass@UScrollBar@@SAPAVuiClass@@XZ@4PAV3@A" PURGE="-1" COMMENT="" />
    <EXPORT ORDINAL="1106" NAME="?MyClass@?1??StaticClass@UScrollFrame@@SAPAVuiClass@@XZ@4PAV3@A" PURGE="-1" COMMENT="" />
    <EXPORT ORDINAL="1107" NAME="?MyClass@?1??StaticClass@UScrollTextArea@@SAPAVuiClass@@XZ@4PAV3@A" PURGE="-1" COMMENT="" />
    <EXPORT ORDINAL="1108" NAME="?MyClass@?1??StaticClass@USelector@@SAPAVuiClass@@XZ@4PAV3@A" PURGE="-1" COMMENT="" />
    <EXPORT ORDINAL="1109" NAME="?MyClass@?1??StaticClass@USelectorItem@@SAPAVuiClass@@XZ@4PAV3@A" PURGE="-1" COMMENT="" />
    <EXPORT ORDINAL="1110" NAME="?MyClass@?1??StaticClass@USelectorList@@SAPAVuiClass@@XZ@4PAV3@A" PURGE="-1" COMMENT="" />
    <EXPORT ORDINAL="1111" NAME="?MyClass@?1??StaticClass@USlider@@SAPAVuiClass@@XZ@4PAV3@A" PURGE="-1" COMMENT="" />
    <EXPORT ORDINAL="1112" NAME="?MyClass@?1??StaticClass@USoundComponent@@SAPAVuiClass@@XZ@4PAV3@A" PURGE="-1" COMMENT="" />
    <EXPORT ORDINAL="1113" NAME="?MyClass@?1??StaticClass@UTextArea@@SAPAVuiClass@@XZ@4PAV3@A" PURGE="-1" COMMENT="" />
    <EXPORT ORDINAL="1114" NAME="?MyClass@?1??StaticClass@UTextComponentBase@@SAPAVuiClass@@XZ@4PAV3@A" PURGE="-1" COMMENT="" />
    <EXPORT ORDINAL="1115" NAME="?MyClass@?1??StaticClass@UTextField@@SAPAVuiClass@@XZ@4PAV3@A" PURGE="-1" COMMENT="" />
    <EXPORT ORDINAL="1116" NAME="?MyClass@?1??StaticClass@UTileContainer@@SAPAVuiClass@@XZ@4PAV3@A" PURGE="-1" COMMENT="" />
    <EXPORT ORDINAL="1117" NAME="?MyClass@?1??StaticClass@UTimedImage@@SAPAVuiClass@@XZ@4PAV3@A" PURGE="-1" COMMENT="" />
    <EXPORT ORDINAL="1118" NAME="?MyClass@?1??StaticClass@UTimedLabel@@SAPAVuiClass@@XZ@4PAV3@A" PURGE="-1" COMMENT="" />
    <EXPORT ORDINAL="1119" NAME="?MyClass@?1??StaticClass@UTimedTextArea@@SAPAVuiClass@@XZ@4PAV3@A" PURGE="-1" COMMENT="" />
    <EXPORT ORDINAL="1120" NAME="?MyClass@?1??StaticClass@UVarWatcher@@SAPAVuiClass@@XZ@4PAV3@A" PURGE="-1" COMMENT="" />
    <EXPORT ORDINAL="1121" NAME="?MyClass@?1??StaticClass@UWindow@@SAPAVuiClass@@XZ@4PAV3@A" PURGE="-1" COMMENT="" />
    <EXPORT ORDINAL="1122" NAME="?NeedsUpdate@ActionEvent@@UAEHXZ" PURGE="0" COMMENT="" />
    <EXPORT ORDINAL="1123" NAME="?NeedsUpdate@ExpressionEvent@@UAEHXZ" PURGE="0" COMMENT="" />
    <EXPORT ORDINAL="1124" NAME="?NextClass@uiClass@@QAEPAV1@XZ" PURGE="0" COMMENT="" />
    <EXPORT ORDINAL="1125" NAME="?None@uiName@@SA?AV1@XZ" PURGE="0" COMMENT="" />
    <EXPORT ORDINAL="1126" NAME="?NumComponents@UContainer@@QAEHXZ" PURGE="-1" COMMENT="" />
    <EXPORT ORDINAL="1127" NAME="?NumItems@USelector@@UAEHXZ" PURGE="-1" COMMENT="" />
    <EXPORT ORDINAL="1128" NAME="?NumItems@USelectorList@@UAEHXZ" PURGE="0" COMMENT="" />
    <EXPORT ORDINAL="1129" NAME="?OnDownClick@UScrollBar@@AAAXPAX@Z" PURGE="-1" COMMENT="" />
    <EXPORT ORDINAL="1130" NAME="?OnEvent@ActionEvent@@UAEXPAX@Z" PURGE="4" COMMENT="" />
    <EXPORT ORDINAL="1131" NAME="?OnEvent@ConsoleCommandEvent@@UAEXPAX@Z" PURGE="4" COMMENT="" />
    <EXPORT ORDINAL="1132" NAME="?OnEvent@CutsceneTimedEvent@@UAEXPAX@Z" PURGE="4" COMMENT="" />
    <EXPORT ORDINAL="1133" NAME="?OnEvent@EventDisabler@@UAEXPAX@Z" PURGE="4" COMMENT="" />
    <EXPORT ORDINAL="1134" NAME="?OnEvent@EventEnabler@@UAEXPAX@Z" PURGE="4" COMMENT="" />
    <EXPORT ORDINAL="1135" NAME="?OnEvent@EventSender@@UAEXPAX@Z" PURGE="4" COMMENT="" />
    <EXPORT ORDINAL="1136" NAME="?OnEvent@ExpressionEvent@@UAEXPAX@Z" PURGE="4" COMMENT="" />
    <EXPORT ORDINAL="1137" NAME="?OnEvent@GameFlagEvent@@UAEXPAX@Z" PURGE="4" COMMENT="" />
    <EXPORT ORDINAL="1138" NAME="?OnEvent@KeyframeEvent@@UAEXPAX@Z" PURGE="4" COMMENT="" />
    <EXPORT ORDINAL="1139" NAME="?OnEvent@OwnerEvent@@UAEXPAX@Z" PURGE="4" COMMENT="" />
    <EXPORT ORDINAL="1140" NAME="?OnEvent@PlayerCommandEvent@@UAEXPAX@Z" PURGE="4" COMMENT="" />
    <EXPORT ORDINAL="1141" NAME="?OnEvent@PlayerEvent@@UAEXPAX@Z" PURGE="4" COMMENT="" />
    <EXPORT ORDINAL="1142" NAME="?OnEvent@PlayerPawnEvent@@UAEXPAX@Z" PURGE="4" COMMENT="" />
    <EXPORT ORDINAL="1143" NAME="?OnEvent@ScriptEvent@@UAEXPAX@Z" PURGE="4" COMMENT="" />
    <EXPORT ORDINAL="1144" NAME="?OnGetRange@UScrollTextArea@@AAAXPAX@Z" PURGE="0" COMMENT="" />
    <EXPORT ORDINAL="1145" NAME="?OnGetRangeH@UScrollFrame@@AAAXPAX@Z" PURGE="0" COMMENT="" />
    <EXPORT ORDINAL="1146" NAME="?OnGetRangeV@UScrollFrame@@AAAXPAX@Z" PURGE="0" COMMENT="" />
    <EXPORT ORDINAL="1147" NAME="?OnGetValue@UScrollTextArea@@AAAXPAX@Z" PURGE="0" COMMENT="" />
    <EXPORT ORDINAL="1148" NAME="?OnGetValueH@UScrollFrame@@AAAXPAX@Z" PURGE="0" COMMENT="" />
    <EXPORT ORDINAL="1149" NAME="?OnGetValueV@UScrollFrame@@AAAXPAX@Z" PURGE="0" COMMENT="" />
    <EXPORT ORDINAL="1150" NAME="?OnGetVisibleRange@UScrollTextArea@@AAAXPAX@Z" PURGE="0" COMMENT="" />
    <EXPORT ORDINAL="1151" NAME="?OnGetVisibleRangeH@UScrollFrame@@AAAXPAX@Z" PURGE="0" COMMENT="" />
    <EXPORT ORDINAL="1152" NAME="?OnGetVisibleRangeV@UScrollFrame@@AAAXPAX@Z" PURGE="0" COMMENT="" />
    <EXPORT ORDINAL="1153" NAME="?OnSetValue@UScrollTextArea@@AAAXPAX@Z" PURGE="0" COMMENT="" />
    <EXPORT ORDINAL="1154" NAME="?OnSetValueH@UScrollFrame@@AAAXPAX@Z" PURGE="0" COMMENT="" />
    <EXPORT ORDINAL="1155" NAME="?OnSetValueV@UScrollFrame@@AAAXPAX@Z" PURGE="0" COMMENT="" />
    <EXPORT ORDINAL="1156" NAME="?OnUpClick@UScrollBar@@AAAXPAX@Z" PURGE="-1" COMMENT="" />
    <EXPORT ORDINAL="1157" NAME="?PageDown@UScrollBar@@UAEXXZ" PURGE="0" COMMENT="" />
    <EXPORT ORDINAL="1158" NAME="?PageUp@UScrollBar@@UAEXXZ" PURGE="0" COMMENT="" />
    <EXPORT ORDINAL="1159" NAME="?Parent@uiName@@SA?AV1@XZ" PURGE="0" COMMENT="" />
    <EXPORT ORDINAL="1160" NAME="?PlaySound@USoundComponent@@UAEXXZ" PURGE="0" COMMENT="" />
    <EXPORT ORDINAL="1161" NAME="?PostRender@UUIConsole@@UAEXPAVFSceneNode@@@Z" PURGE="4" COMMENT="" />
    <EXPORT ORDINAL="1162" NAME="?PostSelect@USelector@@UAEXXZ" PURGE="0" COMMENT="" />
    <EXPORT ORDINAL="1163" NAME="?PreSelect@USelector@@UAEXXZ" PURGE="0" COMMENT="" />
    <EXPORT ORDINAL="1164" NAME="?Precache@UComponent@@UAEXPAVFSceneNode@@PAVFUIRenderer@@@Z" PURGE="-1" COMMENT="" />
    <EXPORT ORDINAL="1165" NAME="?Precache@UContainer@@UAEXPAVFSceneNode@@PAVFUIRenderer@@@Z" PURGE="8" COMMENT="" />
    <EXPORT ORDINAL="1166" NAME="?PrivateStaticClass@UTexUIhook@@0VUClass@@A" PURGE="-1" COMMENT="" />
    <EXPORT ORDINAL="1167" NAME="?PrivateStaticClass@UUIConsole@@0VUClass@@A" PURGE="-1" COMMENT="" />
    <EXPORT ORDINAL="1168" NAME="?PrivateStaticClass@UUIHelper@@0VUClass@@A" PURGE="-1" COMMENT="" />
    <EXPORT ORDINAL="1169" NAME="?ProcessKey@UInputSelector@@IAEXHVFString@@@Z" PURGE="16" COMMENT="" />
    <EXPORT ORDINAL="1170" NAME="?Refresh@USelector@@UAEXXZ" PURGE="0" COMMENT="" />
    <EXPORT ORDINAL="1171" NAME="?RegisterEvent@UComponent@@QAEXHPAV1@@Z" PURGE="8" COMMENT="" />
    <EXPORT ORDINAL="1172" NAME="?RegisterRenderListener@UUIConsole@@QAEXPAVUObject@@VFString@@@Z" PURGE="16" COMMENT="" />
    <EXPORT ORDINAL="1173" NAME="?RemoveActionTickListener@UUIConsole@@QAEXPAVActionEvent@@@Z" PURGE="4" COMMENT="" />
    <EXPORT ORDINAL="1174" NAME="?RemoveAllMouseActionListeners@UMouseCursor@@QAEXW4EMouseAction@@PAVUComponent@@@Z" PURGE="8" COMMENT="" />
    <EXPORT ORDINAL="1175" NAME="?RemoveComponent@UContainer@@QAEHPAVUComponent@@@Z" PURGE="4" COMMENT="" />
    <EXPORT ORDINAL="1176" NAME="?RemoveComponentType@UContainer@@QAEHPAVuiClass@@HH@Z" PURGE="12" COMMENT="" />
    <EXPORT ORDINAL="1177" NAME="?RemoveEventListener@UComponent@@QAEXPAV1@@Z" PURGE="4" COMMENT="" />
    <EXPORT ORDINAL="1178" NAME="?RemoveIgnoredKey@UTextField@@QAEXH@Z" PURGE="4" COMMENT="" />
    <EXPORT ORDINAL="1179" NAME="?RemoveInputActionListener@UUIConsole@@QAEXW4EInputAction@@PAVUComponent@@PAVActionEvent@@@Z" PURGE="12" COMMENT="" />
    <EXPORT ORDINAL="1180" NAME="?RemoveItem@USelector@@UAEXVFString@@@Z" PURGE="12" COMMENT="" />
    <EXPORT ORDINAL="1181" NAME="?RemoveItem@USelectorList@@UAEXVFString@@@Z" PURGE="12" COMMENT="" />
    <EXPORT ORDINAL="1182" NAME="?RemoveKeyEventListener@UUIConsole@@QAEXPAVActionEvent@@@Z" PURGE="4" COMMENT="" />
    <EXPORT ORDINAL="1183" NAME="?RemoveKeyListener@UUIConsole@@QAEXPAVActionEvent@@@Z" PURGE="4" COMMENT="" />
    <EXPORT ORDINAL="1184" NAME="?RemoveListener@UComponent@@QAEHPAVUObject@@@Z" PURGE="4" COMMENT="" />
    <EXPORT ORDINAL="1185" NAME="?RemoveListenerType@UComponent@@QAEHVFName@@H@Z" PURGE="8" COMMENT="" />
    <EXPORT ORDINAL="1186" NAME="?RemoveMouseActionListener@UMouseCursor@@QAEXW4EMouseAction@@PAVUComponent@@PAVActionEvent@@@Z" PURGE="12" COMMENT="" />
    <EXPORT ORDINAL="1187" NAME="?RemoveState@UMultiStateComponent@@QAEPAVUComponent@@H@Z" PURGE="4" COMMENT="" />
    <EXPORT ORDINAL="1188" NAME="?RemoveTickListener@UUIConsole@@QAEXPAVUComponent@@@Z" PURGE="4" COMMENT="" />
    <EXPORT ORDINAL="1189" NAME="?RequestFocus@UComponent@@QAEXXZ" PURGE="0" COMMENT="" />
    <EXPORT ORDINAL="1190" NAME="?RequestFocusI@UComponent@@MAEXXZ" PURGE="0" COMMENT="" />
    <EXPORT ORDINAL="1191" NAME="?Reset@ActionEvent@@UAEXXZ" PURGE="0" COMMENT="" />
    <EXPORT ORDINAL="1192" NAME="?Reset@CutsceneTimedEvent@@UAEXXZ" PURGE="0" COMMENT="" />
    <EXPORT ORDINAL="1193" NAME="?Reset@GameFlagEvent@@UAEXXZ" PURGE="0" COMMENT="" />
    <EXPORT ORDINAL="1194" NAME="?Reset@KeyframeEvent@@UAEXXZ" PURGE="0" COMMENT="" />
    <EXPORT ORDINAL="1195" NAME="?Reset@UComponent@@UAEXXZ" PURGE="0" COMMENT="" />
    <EXPORT ORDINAL="1196" NAME="?Reset@UContainer@@UAEXXZ" PURGE="0" COMMENT="" />
    <EXPORT ORDINAL="1197" NAME="?Reset@UTimedImage@@UAEXXZ" PURGE="0" COMMENT="" />
    <EXPORT ORDINAL="1198" NAME="?Reset@UTimedLabel@@UAEXXZ" PURGE="0" COMMENT="" />
    <EXPORT ORDINAL="1199" NAME="?ScrollDown@UScrollBar@@UAEXXZ" PURGE="0" COMMENT="" />
    <EXPORT ORDINAL="1200" NAME="?ScrollUp@UScrollBar@@UAEXXZ" PURGE="0" COMMENT="" />
    <EXPORT ORDINAL="1201" NAME="?Select@UEditor@@QAEXPAVUComponent@@@Z" PURGE="4" COMMENT="" />
    <EXPORT ORDINAL="1202" NAME="?Select@USelector@@UAEXH@Z" PURGE="-1" COMMENT="" />
    <EXPORT ORDINAL="1203" NAME="?Select@USelectorList@@UAEXH@Z" PURGE="4" COMMENT="" />
    <EXPORT ORDINAL="1204" NAME="?SelectItem@USelector@@UAEXVFString@@@Z" PURGE="12" COMMENT="" />
    <EXPORT ORDINAL="1205" NAME="?SelectItem@USelectorList@@UAEXVFString@@@Z" PURGE="12" COMMENT="" />
    <EXPORT ORDINAL="1206" NAME="?SendBack@UComponent@@QAEXH@Z" PURGE="4" COMMENT="" />
    <EXPORT ORDINAL="1207" NAME="?SendBackI@UComponent@@MAEXH@Z" PURGE="4" COMMENT="" />
    <EXPORT ORDINAL="1208" NAME="?SendEvent@UComponent@@QAEXH@Z" PURGE="4" COMMENT="" />
    <EXPORT ORDINAL="1209" NAME="?SendEvent@UUIConsole@@UAEXVFString@@@Z" PURGE="12" COMMENT="" />
    <EXPORT ORDINAL="1210" NAME="?SendGlobalEvents@UCredits@@QAEXMM@Z" PURGE="8" COMMENT="" />
    <EXPORT ORDINAL="1211" NAME="?SendNotification@ComponentNotifyInfo@@QAEXPAX@Z" PURGE="4" COMMENT="" />
    <EXPORT ORDINAL="1212" NAME="?SendNotification@UComponent@@QAEXVFString@@@Z" PURGE="12" COMMENT="" />
    <EXPORT ORDINAL="1213" NAME="?SendScriptEvent@UScriptComponent@@QAEXPAVUCanvas@@@Z" PURGE="4" COMMENT="" />
    <EXPORT ORDINAL="1214" NAME="?SendToBack@UComponent@@QAEXXZ" PURGE="0" COMMENT="" />
    <EXPORT ORDINAL="1215" NAME="?SendToBackI@UComponent@@MAEXXZ" PURGE="0" COMMENT="" />
    <EXPORT ORDINAL="1216" NAME="?SendTriggers@UMultiStateComponent@@MAEHM@Z" PURGE="4" COMMENT="" />
    <EXPORT ORDINAL="1217" NAME="?Serialize@ActionEvent@@UAEXAAVFArchive@@@Z" PURGE="4" COMMENT="" />
    <EXPORT ORDINAL="1218" NAME="?Serialize@ComponentNotifyInfo@@UAEXAAVFArchive@@@Z" PURGE="4" COMMENT="" />
    <EXPORT ORDINAL="1219" NAME="?Serialize@ConsoleCommandEvent@@UAEXAAVFArchive@@@Z" PURGE="4" COMMENT="" />
    <EXPORT ORDINAL="1220" NAME="?Serialize@CutsceneTimedEvent@@UAEXAAVFArchive@@@Z" PURGE="4" COMMENT="" />
    <EXPORT ORDINAL="1221" NAME="?Serialize@EventDisabler@@UAEXAAVFArchive@@@Z" PURGE="4" COMMENT="" />
    <EXPORT ORDINAL="1222" NAME="?Serialize@EventEnabler@@UAEXAAVFArchive@@@Z" PURGE="4" COMMENT="" />
    <EXPORT ORDINAL="1223" NAME="?Serialize@EventSender@@UAEXAAVFArchive@@@Z" PURGE="4" COMMENT="" />
    <EXPORT ORDINAL="1224" NAME="?Serialize@ExpressionEvent@@UAEXAAVFArchive@@@Z" PURGE="4" COMMENT="" />
    <EXPORT ORDINAL="1225" NAME="?Serialize@FNameTable@@QAEXAAVFArchive@@@Z" PURGE="4" COMMENT="" />
    <EXPORT ORDINAL="1226" NAME="?Serialize@GameFlagEvent@@UAEXAAVFArchive@@@Z" PURGE="4" COMMENT="" />
    <EXPORT ORDINAL="1227" NAME="?Serialize@KeyframeEvent@@UAEXAAVFArchive@@@Z" PURGE="4" COMMENT="" />
    <EXPORT ORDINAL="1228" NAME="?Serialize@NativeFunctionCaller@@UAEXAAVFArchive@@@Z" PURGE="4" COMMENT="" />
    <EXPORT ORDINAL="1229" NAME="?Serialize@OwnerEvent@@UAEXAAVFArchive@@@Z" PURGE="4" COMMENT="" />
    <EXPORT ORDINAL="1230" NAME="?Serialize@PlayerCommandEvent@@UAEXAAVFArchive@@@Z" PURGE="4" COMMENT="" />
    <EXPORT ORDINAL="1231" NAME="?Serialize@PlayerEvent@@UAEXAAVFArchive@@@Z" PURGE="4" COMMENT="" />
    <EXPORT ORDINAL="1232" NAME="?Serialize@ScriptEvent@@UAEXAAVFArchive@@@Z" PURGE="4" COMMENT="" />
    <EXPORT ORDINAL="1233" NAME="?Serialize@UAnimatedImageComponent@@UAEXAAVFArchive@@@Z" PURGE="4" COMMENT="" />
    <EXPORT ORDINAL="1234" NAME="?Serialize@UButton@@UAEXAAVFArchive@@@Z" PURGE="4" COMMENT="" />
    <EXPORT ORDINAL="1235" NAME="?Serialize@UButtonImage@@UAEXAAVFArchive@@@Z" PURGE="4" COMMENT="" />
    <EXPORT ORDINAL="1236" NAME="?Serialize@UCheckBox@@UAEXAAVFArchive@@@Z" PURGE="4" COMMENT="" />
    <EXPORT ORDINAL="1237" NAME="?Serialize@UComponent@@UAEXAAVFArchive@@@Z" PURGE="4" COMMENT="" />
    <EXPORT ORDINAL="1238" NAME="?Serialize@UComponentHandle@@UAEXAAVFArchive@@@Z" PURGE="4" COMMENT="" />
    <EXPORT ORDINAL="1239" NAME="?Serialize@UContainer@@UAEXAAVFArchive@@@Z" PURGE="4" COMMENT="" />
    <EXPORT ORDINAL="1240" NAME="?Serialize@UCredits@@UAEXAAVFArchive@@@Z" PURGE="4" COMMENT="" />
    <EXPORT ORDINAL="1241" NAME="?Serialize@UEditor@@UAEXAAVFArchive@@@Z" PURGE="4" COMMENT="" />
    <EXPORT ORDINAL="1242" NAME="?Serialize@UFixedSizeContainer@@UAEXAAVFArchive@@@Z" PURGE="4" COMMENT="" />
    <EXPORT ORDINAL="1243" NAME="?Serialize@UFrame@@UAEXAAVFArchive@@@Z" PURGE="4" COMMENT="" />
    <EXPORT ORDINAL="1244" NAME="?Serialize@UHoldButton@@UAEXAAVFArchive@@@Z" PURGE="4" COMMENT="" />
    <EXPORT ORDINAL="1245" NAME="?Serialize@UImage@@UAEXAAVFArchive@@@Z" PURGE="4" COMMENT="" />
    <EXPORT ORDINAL="1246" NAME="?Serialize@UImageComponent@@UAEXAAVFArchive@@@Z" PURGE="4" COMMENT="" />
    <EXPORT ORDINAL="1247" NAME="?Serialize@UImageComponentBase@@UAEXAAVFArchive@@@Z" PURGE="4" COMMENT="" />
    <EXPORT ORDINAL="1248" NAME="?Serialize@UImageWedge@@UAEXAAVFArchive@@@Z" PURGE="4" COMMENT="" />
    <EXPORT ORDINAL="1249" NAME="?Serialize@UImageWipe@@UAEXAAVFArchive@@@Z" PURGE="4" COMMENT="" />
    <EXPORT ORDINAL="1250" NAME="?Serialize@UInputSelector@@UAEXAAVFArchive@@@Z" PURGE="4" COMMENT="" />
    <EXPORT ORDINAL="1251" NAME="?Serialize@UKeyEvent@@UAEXAAVFArchive@@@Z" PURGE="4" COMMENT="" />
    <EXPORT ORDINAL="1252" NAME="?Serialize@ULabel@@UAEXAAVFArchive@@@Z" PURGE="4" COMMENT="" />
    <EXPORT ORDINAL="1253" NAME="?Serialize@ULabelShadow@@UAEXAAVFArchive@@@Z" PURGE="4" COMMENT="" />
    <EXPORT ORDINAL="1254" NAME="?Serialize@UMouseCursor@@UAEXAAVFArchive@@@Z" PURGE="4" COMMENT="" />
    <EXPORT ORDINAL="1255" NAME="?Serialize@UMultiImageComponent@@UAEXAAVFArchive@@@Z" PURGE="4" COMMENT="" />
    <EXPORT ORDINAL="1256" NAME="?Serialize@UMultiStateComponent@@UAEXAAVFArchive@@@Z" PURGE="4" COMMENT="" />
    <EXPORT ORDINAL="1257" NAME="?Serialize@UNumWatcher@@UAEXAAVFArchive@@@Z" PURGE="4" COMMENT="" />
    <EXPORT ORDINAL="1258" NAME="?Serialize@UPlayerID@@UAEXAAVFArchive@@@Z" PURGE="4" COMMENT="" />
    <EXPORT ORDINAL="1259" NAME="?Serialize@URealComponent@@UAEXAAVFArchive@@@Z" PURGE="4" COMMENT="" />
    <EXPORT ORDINAL="1260" NAME="?Serialize@UScaleContainer@@UAEXAAVFArchive@@@Z" PURGE="4" COMMENT="" />
    <EXPORT ORDINAL="1261" NAME="?Serialize@UScrollBar@@MAEXAAVFArchive@@@Z" PURGE="4" COMMENT="" />
    <EXPORT ORDINAL="1262" NAME="?Serialize@UScrollFrame@@UAEXAAVFArchive@@@Z" PURGE="4" COMMENT="" />
    <EXPORT ORDINAL="1263" NAME="?Serialize@UScrollTextArea@@UAEXAAVFArchive@@@Z" PURGE="4" COMMENT="" />
    <EXPORT ORDINAL="1264" NAME="?Serialize@USelector@@UAEXAAVFArchive@@@Z" PURGE="4" COMMENT="" />
    <EXPORT ORDINAL="1265" NAME="?Serialize@USelectorItem@@UAEXAAVFArchive@@@Z" PURGE="4" COMMENT="" />
    <EXPORT ORDINAL="1266" NAME="?Serialize@USelectorList@@UAEXAAVFArchive@@@Z" PURGE="4" COMMENT="" />
    <EXPORT ORDINAL="1267" NAME="?Serialize@USlider@@UAEXAAVFArchive@@@Z" PURGE="4" COMMENT="" />
    <EXPORT ORDINAL="1268" NAME="?Serialize@USoundComponent@@UAEXAAVFArchive@@@Z" PURGE="4" COMMENT="" />
    <EXPORT ORDINAL="1269" NAME="?Serialize@UTextArea@@MAEXAAVFArchive@@@Z" PURGE="4" COMMENT="" />
    <EXPORT ORDINAL="1270" NAME="?Serialize@UTextComponentBase@@UAEXAAVFArchive@@@Z" PURGE="4" COMMENT="" />
    <EXPORT ORDINAL="1271" NAME="?Serialize@UTextField@@UAEXAAVFArchive@@@Z" PURGE="4" COMMENT="" />
    <EXPORT ORDINAL="1272" NAME="?Serialize@UTileContainer@@UAEXAAVFArchive@@@Z" PURGE="4" COMMENT="" />
    <EXPORT ORDINAL="1273" NAME="?Serialize@UTimedImage@@UAEXAAVFArchive@@@Z" PURGE="4" COMMENT="" />
    <EXPORT ORDINAL="1274" NAME="?Serialize@UTimedLabel@@UAEXAAVFArchive@@@Z" PURGE="4" COMMENT="" />
    <EXPORT ORDINAL="1275" NAME="?Serialize@UTimedTextArea@@UAEXAAVFArchive@@@Z" PURGE="4" COMMENT="" />
    <EXPORT ORDINAL="1276" NAME="?Serialize@UUIConsole@@UAEXAAVFArchive@@@Z" PURGE="4" COMMENT="" />
    <EXPORT ORDINAL="1277" NAME="?Serialize@UVarWatcher@@UAEXAAVFArchive@@@Z" PURGE="4" COMMENT="" />
    <EXPORT ORDINAL="1278" NAME="?SetAlignment@UComponent@@QAEXABUFAlignment@@@Z" PURGE="4" COMMENT="" />
    <EXPORT ORDINAL="1279" NAME="?SetAlignmentC@UComponent@@QAEXW4EAlignment@@0@Z" PURGE="8" COMMENT="" />
    <EXPORT ORDINAL="1280" NAME="?SetAlignmentI@UComponent@@MAEXABUFAlignment@@@Z" PURGE="4" COMMENT="" />
    <EXPORT ORDINAL="1281" NAME="?SetAlignmentX@UComponent@@QAEXW4EAlignment@@@Z" PURGE="4" COMMENT="" />
    <EXPORT ORDINAL="1282" NAME="?SetAlignmentY@UComponent@@QAEXW4EAlignment@@@Z" PURGE="4" COMMENT="" />
    <EXPORT ORDINAL="1283" NAME="?SetAlpha@UComponent@@QAEXE@Z" PURGE="4" COMMENT="" />
    <EXPORT ORDINAL="1284" NAME="?SetAlphaI@UComponent@@MAEXE@Z" PURGE="4" COMMENT="" />
    <EXPORT ORDINAL="1285" NAME="?SetAlphaI@UContainer@@UAEXE@Z" PURGE="4" COMMENT="" />
    <EXPORT ORDINAL="1286" NAME="?SetAlphaI@ULabelShadow@@UAEXE@Z" PURGE="4" COMMENT="" />
    <EXPORT ORDINAL="1287" NAME="?SetAlphaI@URealComponent@@UAEXE@Z" PURGE="4" COMMENT="" />
    <EXPORT ORDINAL="1288" NAME="?SetAlphaPct@UComponent@@QAEXM@Z" PURGE="4" COMMENT="" />
    <EXPORT ORDINAL="1289" NAME="?SetAlphaPctI@UComponent@@MAEXM@Z" PURGE="4" COMMENT="" />
    <EXPORT ORDINAL="1290" NAME="?SetAlphaPctI@UContainer@@UAEXM@Z" PURGE="4" COMMENT="" />
    <EXPORT ORDINAL="1291" NAME="?SetB@UComponent@@QAEXE@Z" PURGE="4" COMMENT="" />
    <EXPORT ORDINAL="1292" NAME="?SetBackground@USelector@@UAEXPAVFImage@@@Z" PURGE="4" COMMENT="" />
    <EXPORT ORDINAL="1293" NAME="?SetBottomImage@UImageWipe@@QAEXPAVFImage@@@Z" PURGE="4" COMMENT="" />
    <EXPORT ORDINAL="1294" NAME="?SetBottomImageComponent@UImageWipe@@QAEXPAVUImageComponent@@@Z" PURGE="4" COMMENT="" />
    <EXPORT ORDINAL="1295" NAME="?SetChecked@UCheckBox@@UAEXH@Z" PURGE="4" COMMENT="" />
    <EXPORT ORDINAL="1296" NAME="?SetColor@UComponent@@QAEXABVFColor@@@Z" PURGE="4" COMMENT="" />
    <EXPORT ORDINAL="1297" NAME="?SetColorC@UComponent@@QAEXEEEE@Z" PURGE="16" COMMENT="" />
    <EXPORT ORDINAL="1298" NAME="?SetColorI@UComponent@@MAEXABVFColor@@@Z" PURGE="4" COMMENT="" />
    <EXPORT ORDINAL="1299" NAME="?SetColorI@UContainer@@UAEXABVFColor@@@Z" PURGE="4" COMMENT="" />
    <EXPORT ORDINAL="1300" NAME="?SetColorI@UMultiStateComponent@@UAEXABVFColor@@@Z" PURGE="4" COMMENT="" />
    <EXPORT ORDINAL="1301" NAME="?SetColorI@URealComponent@@UAEXABVFColor@@@Z" PURGE="4" COMMENT="" />
    <EXPORT ORDINAL="1302" NAME="?SetColorI@USelectorList@@UAEXABVFColor@@@Z" PURGE="4" COMMENT="" />
    <EXPORT ORDINAL="1303" NAME="?SetConsole@UEditor@@UAEXPAVUUIConsole@@@Z" PURGE="4" COMMENT="" />
    <EXPORT ORDINAL="1304" NAME="?SetConsole@UKeyEvent@@UAEXPAVUUIConsole@@@Z" PURGE="4" COMMENT="" />
    <EXPORT ORDINAL="1305" NAME="?SetConsole@UMouseCursor@@UAEXPAVUUIConsole@@@Z" PURGE="4" COMMENT="" />
    <EXPORT ORDINAL="1306" NAME="?SetConsole@UTextField@@UAEXPAVUUIConsole@@@Z" PURGE="4" COMMENT="" />
    <EXPORT ORDINAL="1307" NAME="?SetCursor@UTextField@@UAEXPAVUComponent@@@Z" PURGE="4" COMMENT="" />
    <EXPORT ORDINAL="1308" NAME="?SetCursorPosition@UTextField@@UAEXH@Z" PURGE="4" COMMENT="" />
    <EXPORT ORDINAL="1309" NAME="?SetDim@UScrollBar@@MAEXPAVUComponent@@M@Z" PURGE="8" COMMENT="" />
    <EXPORT ORDINAL="1310" NAME="?SetEnabled@UComponent@@QAEXH@Z" PURGE="4" COMMENT="" />
    <EXPORT ORDINAL="1311" NAME="?SetEnabledI@UComponent@@MAEXH@Z" PURGE="4" COMMENT="" />
    <EXPORT ORDINAL="1312" NAME="?SetEnabledI@UContainer@@UAEXH@Z" PURGE="4" COMMENT="" />
    <EXPORT ORDINAL="1313" NAME="?SetEnabledI@UKeyEvent@@UAEXH@Z" PURGE="4" COMMENT="" />
    <EXPORT ORDINAL="1314" NAME="?SetEnabledI@UMultiStateComponent@@UAEXH@Z" PURGE="4" COMMENT="" />
    <EXPORT ORDINAL="1315" NAME="?SetEnabledI@URealComponent@@UAEXH@Z" PURGE="4" COMMENT="" />
    <EXPORT ORDINAL="1316" NAME="?SetEnabledI@UTextField@@UAEXH@Z" PURGE="4" COMMENT="" />
    <EXPORT ORDINAL="1317" NAME="?SetFont@UButton@@UAEXPAVUFont@@@Z" PURGE="4" COMMENT="" />
    <EXPORT ORDINAL="1318" NAME="?SetFont@USelector@@UAEXPAVUFont@@@Z" PURGE="-1" COMMENT="" />
    <EXPORT ORDINAL="1319" NAME="?SetFont@USelectorList@@UAEXPAVUFont@@@Z" PURGE="-1" COMMENT="" />
    <EXPORT ORDINAL="1320" NAME="?SetFont@UTextArea@@UAEXPAVUFont@@@Z" PURGE="4" COMMENT="" />
    <EXPORT ORDINAL="1321" NAME="?SetFont@UTextComponentBase@@UAEXPAVUFont@@@Z" PURGE="4" COMMENT="" />
    <EXPORT ORDINAL="1322" NAME="?SetFontSize@UButton@@UAEXW4EFontSize@@@Z" PURGE="4" COMMENT="" />
    <EXPORT ORDINAL="1323" NAME="?SetFontSize@USelector@@UAEXW4EFontSize@@@Z" PURGE="-1" COMMENT="" />
    <EXPORT ORDINAL="1324" NAME="?SetFontSize@USelectorList@@UAEXW4EFontSize@@@Z" PURGE="-1" COMMENT="" />
    <EXPORT ORDINAL="1325" NAME="?SetFontSize@UTextComponentBase@@UAEXW4EFontSize@@@Z" PURGE="4" COMMENT="" />
    <EXPORT ORDINAL="1326" NAME="?SetFrameHeightPct@UFrame@@QAEXM@Z" PURGE="4" COMMENT="" />
    <EXPORT ORDINAL="1327" NAME="?SetFrameLocation@UFrame@@UAEXABUFPoint@@@Z" PURGE="4" COMMENT="" />
    <EXPORT ORDINAL="1328" NAME="?SetFrameLocation@UScrollFrame@@QAEXABUFPoint@@@Z" PURGE="4" COMMENT="" />
    <EXPORT ORDINAL="1329" NAME="?SetFrameSize@UFrame@@UAEXABUFDimension@@@Z" PURGE="4" COMMENT="" />
    <EXPORT ORDINAL="1330" NAME="?SetFrameSize@UScrollFrame@@QAEXABUFDimension@@@Z" PURGE="4" COMMENT="" />
    <EXPORT ORDINAL="1331" NAME="?SetFrameWidthPct@UFrame@@QAEXM@Z" PURGE="4" COMMENT="" />
    <EXPORT ORDINAL="1332" NAME="?SetFrameXPct@UFrame@@QAEXM@Z" PURGE="4" COMMENT="" />
    <EXPORT ORDINAL="1333" NAME="?SetFrameYPct@UFrame@@QAEXM@Z" PURGE="4" COMMENT="" />
    <EXPORT ORDINAL="1334" NAME="?SetG@UComponent@@QAEXE@Z" PURGE="4" COMMENT="" />
    <EXPORT ORDINAL="1335" NAME="?SetGroup@USelector@@UAEXPAVUContainer@@@Z" PURGE="4" COMMENT="" />
    <EXPORT ORDINAL="1336" NAME="?SetHeight@UComponent@@QAEXM@Z" PURGE="4" COMMENT="" />
    <EXPORT ORDINAL="1337" NAME="?SetHighlight@USelector@@UAEXABVFColor@@@Z" PURGE="-1" COMMENT="" />
    <EXPORT ORDINAL="1338" NAME="?SetHighlight@USelectorList@@UAEXABVFColor@@@Z" PURGE="4" COMMENT="" />
    <EXPORT ORDINAL="1339" NAME="?SetImage@UAnimatedImageComponent@@QAEXPAVFImage@@@Z" PURGE="4" COMMENT="" />
    <EXPORT ORDINAL="1340" NAME="?SetImage@UButtonImage@@QAEXPAVFImage@@0@Z" PURGE="8" COMMENT="" />
    <EXPORT ORDINAL="1341" NAME="?SetImage@UCheckBox@@QAEXPAVFImage@@0@Z" PURGE="8" COMMENT="" />
    <EXPORT ORDINAL="1342" NAME="?SetImage@UImageComponent@@QAEXPAVFImage@@@Z" PURGE="4" COMMENT="" />
    <EXPORT ORDINAL="1343" NAME="?SetImage@UMultiImageComponent@@QAEXPAVFImage@@@Z" PURGE="4" COMMENT="" />
    <EXPORT ORDINAL="1344" NAME="?SetImage@USlider@@QAEXPAVFImage@@0@Z" PURGE="8" COMMENT="" />
    <EXPORT ORDINAL="1345" NAME="?SetImages@UButton@@UAEXPAVFImage@@0@Z" PURGE="8" COMMENT="" />
    <EXPORT ORDINAL="1346" NAME="?SetImages@UWindow@@UAEXPAVFImage@@00000000@Z" PURGE="36" COMMENT="" />
    <EXPORT ORDINAL="1347" NAME="?SetInputRange@UTextField@@UAEXHH@Z" PURGE="8" COMMENT="" />
    <EXPORT ORDINAL="1348" NAME="?SetLifespan@UTimedImage@@UAEXM@Z" PURGE="4" COMMENT="" />
    <EXPORT ORDINAL="1349" NAME="?SetLifespan@UTimedLabel@@UAEXM@Z" PURGE="4" COMMENT="" />
    <EXPORT ORDINAL="1350" NAME="?SetLocation@UComponent@@QAEXABUFPoint@@@Z" PURGE="4" COMMENT="" />
    <EXPORT ORDINAL="1351" NAME="?SetLocationC@UComponent@@QAEXMM@Z" PURGE="8" COMMENT="" />
    <EXPORT ORDINAL="1352" NAME="?SetLocationI@UComponent@@MAEXABUFPoint@@@Z" PURGE="4" COMMENT="" />
    <EXPORT ORDINAL="1353" NAME="?SetMouse@UButton@@UAEXPAVUMouseCursor@@@Z" PURGE="4" COMMENT="" />
    <EXPORT ORDINAL="1354" NAME="?SetMouse@UButtonImage@@UAEXPAVUMouseCursor@@@Z" PURGE="4" COMMENT="" />
    <EXPORT ORDINAL="1355" NAME="?SetMouse@UCheckBox@@UAEXPAVUMouseCursor@@@Z" PURGE="4" COMMENT="" />
    <EXPORT ORDINAL="1356" NAME="?SetMouse@UComponentHandle@@UAEXPAVUMouseCursor@@@Z" PURGE="4" COMMENT="" />
    <EXPORT ORDINAL="1357" NAME="?SetMouse@UEditor@@UAEXPAVUMouseCursor@@@Z" PURGE="4" COMMENT="" />
    <EXPORT ORDINAL="1358" NAME="?SetMouse@UHoldButton@@UAEXPAVUMouseCursor@@@Z" PURGE="4" COMMENT="" />
    <EXPORT ORDINAL="1359" NAME="?SetMouse@UInputSelector@@UAEXPAVUMouseCursor@@@Z" PURGE="4" COMMENT="" />
    <EXPORT ORDINAL="1360" NAME="?SetMouse@UScrollBar@@UAEXPAVUMouseCursor@@@Z" PURGE="4" COMMENT="" />
    <EXPORT ORDINAL="1361" NAME="?SetMouse@UScrollFrame@@UAEXPAVUMouseCursor@@@Z" PURGE="4" COMMENT="" />
    <EXPORT ORDINAL="1362" NAME="?SetMouse@UScrollTextArea@@UAEXPAVUMouseCursor@@@Z" PURGE="4" COMMENT="" />
    <EXPORT ORDINAL="1363" NAME="?SetMouse@USelector@@UAEXPAVUMouseCursor@@@Z" PURGE="4" COMMENT="" />
    <EXPORT ORDINAL="1364" NAME="?SetMouse@USelectorItem@@UAEXPAVUMouseCursor@@@Z" PURGE="4" COMMENT="" />
    <EXPORT ORDINAL="1365" NAME="?SetMouse@USelectorList@@UAEXPAVUMouseCursor@@@Z" PURGE="4" COMMENT="" />
    <EXPORT ORDINAL="1366" NAME="?SetMouse@USlider@@UAEXPAVUMouseCursor@@@Z" PURGE="4" COMMENT="" />
    <EXPORT ORDINAL="1367" NAME="?SetMouse@UTextField@@UAEXPAVUMouseCursor@@@Z" PURGE="4" COMMENT="" />
    <EXPORT ORDINAL="1368" NAME="?SetMouseClickEvent@UComponent@@QAEXPAVUMouseCursor@@PAVActionEvent@@@Z" PURGE="8" COMMENT="" />
    <EXPORT ORDINAL="1369" NAME="?SetMouseEnterEvent@UComponent@@QAEXPAVUMouseCursor@@PAVActionEvent@@@Z" PURGE="8" COMMENT="" />
    <EXPORT ORDINAL="1370" NAME="?SetMouseExitEvent@UComponent@@QAEXPAVUMouseCursor@@PAVActionEvent@@@Z" PURGE="8" COMMENT="" />
    <EXPORT ORDINAL="1371" NAME="?SetMouseOverEvent@UComponent@@QAEXPAVUMouseCursor@@PAVActionEvent@@1@Z" PURGE="12" COMMENT="" />
    <EXPORT ORDINAL="1372" NAME="?SetMousePressEvent@UComponent@@QAEXPAVUMouseCursor@@PAVActionEvent@@@Z" PURGE="8" COMMENT="" />
    <EXPORT ORDINAL="1373" NAME="?SetMouseReleaseEvent@UComponent@@QAEXPAVUMouseCursor@@PAVActionEvent@@@Z" PURGE="8" COMMENT="" />
    <EXPORT ORDINAL="1374" NAME="?SetOtherDim@UScrollBar@@MAEXPAVUComponent@@M@Z" PURGE="8" COMMENT="" />
    <EXPORT ORDINAL="1375" NAME="?SetParent@UComponent@@QAEXPAVUContainer@@@Z" PURGE="4" COMMENT="" />
    <EXPORT ORDINAL="1376" NAME="?SetParentI@UComponent@@MAEXPAVUContainer@@@Z" PURGE="4" COMMENT="" />
    <EXPORT ORDINAL="1377" NAME="?SetPos@UScrollBar@@MAEXPAVUComponent@@M@Z" PURGE="8" COMMENT="" />
    <EXPORT ORDINAL="1378" NAME="?SetR@UComponent@@QAEXE@Z" PURGE="4" COMMENT="" />
    <EXPORT ORDINAL="1379" NAME="?SetRange@UScrollBar@@UAEXMM@Z" PURGE="8" COMMENT="" />
    <EXPORT ORDINAL="1380" NAME="?SetRange@USlider@@UAEXMM@Z" PURGE="8" COMMENT="" />
    <EXPORT ORDINAL="1381" NAME="?SetSize@UComponent@@QAEXABUFDimension@@@Z" PURGE="4" COMMENT="" />
    <EXPORT ORDINAL="1382" NAME="?SetSizeC@UComponent@@QAEXMM@Z" PURGE="8" COMMENT="" />
    <EXPORT ORDINAL="1383" NAME="?SetSizeI@UButton@@UAEXABUFDimension@@@Z" PURGE="4" COMMENT="" />
    <EXPORT ORDINAL="1384" NAME="?SetSizeI@UComponent@@MAEXABUFDimension@@@Z" PURGE="4" COMMENT="" />
    <EXPORT ORDINAL="1385" NAME="?SetSizeI@UContainer@@UAEXABUFDimension@@@Z" PURGE="4" COMMENT="" />
    <EXPORT ORDINAL="1386" NAME="?SetSizeI@UFixedSizeContainer@@UAEXABUFDimension@@@Z" PURGE="4" COMMENT="" />
    <EXPORT ORDINAL="1387" NAME="?SetSizeI@UMultiStateComponent@@UAEXABUFDimension@@@Z" PURGE="4" COMMENT="" />
    <EXPORT ORDINAL="1388" NAME="?SetSizeI@URealComponent@@UAEXABUFDimension@@@Z" PURGE="4" COMMENT="" />
    <EXPORT ORDINAL="1389" NAME="?SetSizeI@UScrollBar@@UAEXABUFDimension@@@Z" PURGE="4" COMMENT="" />
    <EXPORT ORDINAL="1390" NAME="?SetSizeI@UScrollFrame@@UAEXABUFDimension@@@Z" PURGE="4" COMMENT="" />
    <EXPORT ORDINAL="1391" NAME="?SetSizeI@UScrollTextArea@@UAEXABUFDimension@@@Z" PURGE="4" COMMENT="" />
    <EXPORT ORDINAL="1392" NAME="?SetSizeI@USelectorList@@UAEXABUFDimension@@@Z" PURGE="4" COMMENT="" />
    <EXPORT ORDINAL="1393" NAME="?SetState@UMultiStateComponent@@QAEHH@Z" PURGE="4" COMMENT="" />
    <EXPORT ORDINAL="1394" NAME="?SetStyle@UComponent@@QAEXW4ERenderStyle@@@Z" PURGE="4" COMMENT="" />
    <EXPORT ORDINAL="1395" NAME="?SetStyleI@UComponent@@MAEXW4ERenderStyle@@@Z" PURGE="4" COMMENT="" />
    <EXPORT ORDINAL="1396" NAME="?SetStyleI@UContainer@@UAEXW4ERenderStyle@@@Z" PURGE="4" COMMENT="" />
    <EXPORT ORDINAL="1397" NAME="?SetStyleI@UMultiStateComponent@@UAEXW4ERenderStyle@@@Z" PURGE="4" COMMENT="" />
    <EXPORT ORDINAL="1398" NAME="?SetStyleI@URealComponent@@UAEXW4ERenderStyle@@@Z" PURGE="4" COMMENT="" />
    <EXPORT ORDINAL="1399" NAME="?SetStyleI@USelectorList@@UAEXW4ERenderStyle@@@Z" PURGE="4" COMMENT="" />
    <EXPORT ORDINAL="1400" NAME="?SetTargetValue@USlider@@UAEXXZ" PURGE="0" COMMENT="" />
    <EXPORT ORDINAL="1401" NAME="?SetText@UButton@@UAEXVFString@@H@Z" PURGE="16" COMMENT="" />
    <EXPORT ORDINAL="1402" NAME="?SetText@ULabel@@QAEXABVFString@@H@Z" PURGE="8" COMMENT="" />
    <EXPORT ORDINAL="1403" NAME="?SetTexture@UImage@@UAEXVFString@@@Z" PURGE="12" COMMENT="" />
    <EXPORT ORDINAL="1404" NAME="?SetTopImage@UImageWipe@@QAEXPAVFImage@@@Z" PURGE="4" COMMENT="" />
    <EXPORT ORDINAL="1405" NAME="?SetTopImageComponent@UImageWipe@@QAEXPAVUImageComponent@@@Z" PURGE="4" COMMENT="" />
    <EXPORT ORDINAL="1406" NAME="?SetTween@UAnimatedImageComponent@@UAEXM@Z" PURGE="4" COMMENT="" />
    <EXPORT ORDINAL="1407" NAME="?SetTween@UComponent@@UAEXM@Z" PURGE="4" COMMENT="" />
    <EXPORT ORDINAL="1408" NAME="?SetTween@UContainer@@UAEXM@Z" PURGE="4" COMMENT="" />
    <EXPORT ORDINAL="1409" NAME="?SetTween@UMultiStateComponent@@UAEXM@Z" PURGE="4" COMMENT="" />
    <EXPORT ORDINAL="1410" NAME="?SetUnHighlight@USelector@@UAEXABVFColor@@@Z" PURGE="-1" COMMENT="" />
    <EXPORT ORDINAL="1411" NAME="?SetUnHighlight@USelectorList@@UAEXABVFColor@@@Z" PURGE="4" COMMENT="" />
    <EXPORT ORDINAL="1412" NAME="?SetValue@UScrollBar@@UAEXM@Z" PURGE="4" COMMENT="" />
    <EXPORT ORDINAL="1413" NAME="?SetValue@USlider@@UAEXM@Z" PURGE="4" COMMENT="" />
    <EXPORT ORDINAL="1414" NAME="?SetVisibility@UComponent@@QAEXH@Z" PURGE="4" COMMENT="" />
    <EXPORT ORDINAL="1415" NAME="?SetVisibilityI@UComponent@@MAEXH@Z" PURGE="4" COMMENT="" />
    <EXPORT ORDINAL="1416" NAME="?SetVisibilityI@UContainer@@UAEXH@Z" PURGE="4" COMMENT="" />
    <EXPORT ORDINAL="1417" NAME="?SetVisibilityI@UMultiStateComponent@@UAEXH@Z" PURGE="4" COMMENT="" />
    <EXPORT ORDINAL="1418" NAME="?SetVisibilityI@URealComponent@@UAEXH@Z" PURGE="4" COMMENT="" />
    <EXPORT ORDINAL="1419" NAME="?SetVisibleRange@UScrollBar@@UAEXM@Z" PURGE="4" COMMENT="" />
    <EXPORT ORDINAL="1420" NAME="?SetWatch@UVarWatcher@@UAEXPAVUObject@@VFName@@H@Z" PURGE="12" COMMENT="" />
    <EXPORT ORDINAL="1421" NAME="?SetWidth@UComponent@@QAEXM@Z" PURGE="4" COMMENT="" />
    <EXPORT ORDINAL="1422" NAME="?SetX@UComponent@@QAEXM@Z" PURGE="4" COMMENT="" />
    <EXPORT ORDINAL="1423" NAME="?SetY@UComponent@@QAEXM@Z" PURGE="4" COMMENT="" />
    <EXPORT ORDINAL="1424" NAME="?Start@UCredits@@QAEXXZ" PURGE="0" COMMENT="" />
    <EXPORT ORDINAL="1425" NAME="?StartListening@UInputSelector@@AAEXXZ" PURGE="0" COMMENT="" />
    <EXPORT ORDINAL="1426" NAME="?StaticClass@UAnimatedImageComponent@@SAPAVuiClass@@XZ" PURGE="0" COMMENT="" />
    <EXPORT ORDINAL="1427" NAME="?StaticClass@UButton@@SAPAVuiClass@@XZ" PURGE="0" COMMENT="" />
    <EXPORT ORDINAL="1428" NAME="?StaticClass@UButtonImage@@SAPAVuiClass@@XZ" PURGE="0" COMMENT="" />
    <EXPORT ORDINAL="1429" NAME="?StaticClass@UCheckBox@@SAPAVuiClass@@XZ" PURGE="0" COMMENT="" />
    <EXPORT ORDINAL="1430" NAME="?StaticClass@UComponent@@SAPAVuiClass@@XZ" PURGE="0" COMMENT="" />
    <EXPORT ORDINAL="1431" NAME="?StaticClass@UComponentHandle@@SAPAVuiClass@@XZ" PURGE="0" COMMENT="" />
    <EXPORT ORDINAL="1432" NAME="?StaticClass@UContainer@@SAPAVuiClass@@XZ" PURGE="0" COMMENT="" />
    <EXPORT ORDINAL="1433" NAME="?StaticClass@UCredits@@SAPAVuiClass@@XZ" PURGE="0" COMMENT="" />
    <EXPORT ORDINAL="1434" NAME="?StaticClass@UEditor@@SAPAVuiClass@@XZ" PURGE="0" COMMENT="" />
    <EXPORT ORDINAL="1435" NAME="?StaticClass@UFixedSizeContainer@@SAPAVuiClass@@XZ" PURGE="0" COMMENT="" />
    <EXPORT ORDINAL="1436" NAME="?StaticClass@UFrame@@SAPAVuiClass@@XZ" PURGE="0" COMMENT="" />
    <EXPORT ORDINAL="1437" NAME="?StaticClass@UHoldButton@@SAPAVuiClass@@XZ" PURGE="0" COMMENT="" />
    <EXPORT ORDINAL="1438" NAME="?StaticClass@UImage@@SAPAVuiClass@@XZ" PURGE="0" COMMENT="" />
    <EXPORT ORDINAL="1439" NAME="?StaticClass@UImageComponent@@SAPAVuiClass@@XZ" PURGE="0" COMMENT="" />
    <EXPORT ORDINAL="1440" NAME="?StaticClass@UImageComponentBase@@SAPAVuiClass@@XZ" PURGE="0" COMMENT="" />
    <EXPORT ORDINAL="1441" NAME="?StaticClass@UImageWedge@@SAPAVuiClass@@XZ" PURGE="0" COMMENT="" />
    <EXPORT ORDINAL="1442" NAME="?StaticClass@UImageWipe@@SAPAVuiClass@@XZ" PURGE="0" COMMENT="" />
    <EXPORT ORDINAL="1443" NAME="?StaticClass@UInputSelector@@SAPAVuiClass@@XZ" PURGE="0" COMMENT="" />
    <EXPORT ORDINAL="1444" NAME="?StaticClass@UKeyEvent@@SAPAVuiClass@@XZ" PURGE="0" COMMENT="" />
    <EXPORT ORDINAL="1445" NAME="?StaticClass@ULabel@@SAPAVuiClass@@XZ" PURGE="0" COMMENT="" />
    <EXPORT ORDINAL="1446" NAME="?StaticClass@ULabelShadow@@SAPAVuiClass@@XZ" PURGE="0" COMMENT="" />
    <EXPORT ORDINAL="1447" NAME="?StaticClass@UMaterialContainer@@SAPAVuiClass@@XZ" PURGE="0" COMMENT="" />
    <EXPORT ORDINAL="1448" NAME="?StaticClass@UMouseCursor@@SAPAVuiClass@@XZ" PURGE="0" COMMENT="" />
    <EXPORT ORDINAL="1449" NAME="?StaticClass@UMoveHandle@@SAPAVuiClass@@XZ" PURGE="0" COMMENT="" />
    <EXPORT ORDINAL="1450" NAME="?StaticClass@UMultiImageComponent@@SAPAVuiClass@@XZ" PURGE="0" COMMENT="" />
    <EXPORT ORDINAL="1451" NAME="?StaticClass@UMultiStateComponent@@SAPAVuiClass@@XZ" PURGE="0" COMMENT="" />
    <EXPORT ORDINAL="1452" NAME="?StaticClass@UNumWatcher@@SAPAVuiClass@@XZ" PURGE="0" COMMENT="" />
    <EXPORT ORDINAL="1453" NAME="?StaticClass@UPlayerID@@SAPAVuiClass@@XZ" PURGE="0" COMMENT="" />
    <EXPORT ORDINAL="1454" NAME="?StaticClass@URealComponent@@SAPAVuiClass@@XZ" PURGE="0" COMMENT="" />
    <EXPORT ORDINAL="1455" NAME="?StaticClass@UResizeHandle@@SAPAVuiClass@@XZ" PURGE="0" COMMENT="" />
    <EXPORT ORDINAL="1456" NAME="?StaticClass@UResizeHandleE@@SAPAVuiClass@@XZ" PURGE="0" COMMENT="" />
    <EXPORT ORDINAL="1457" NAME="?StaticClass@UResizeHandleN@@SAPAVuiClass@@XZ" PURGE="0" COMMENT="" />
    <EXPORT ORDINAL="1458" NAME="?StaticClass@UResizeHandleNE@@SAPAVuiClass@@XZ" PURGE="0" COMMENT="" />
    <EXPORT ORDINAL="1459" NAME="?StaticClass@UResizeHandleNW@@SAPAVuiClass@@XZ" PURGE="0" COMMENT="" />
    <EXPORT ORDINAL="1460" NAME="?StaticClass@UResizeHandleS@@SAPAVuiClass@@XZ" PURGE="0" COMMENT="" />
    <EXPORT ORDINAL="1461" NAME="?StaticClass@UResizeHandleSE@@SAPAVuiClass@@XZ" PURGE="0" COMMENT="" />
    <EXPORT ORDINAL="1462" NAME="?StaticClass@UResizeHandleSW@@SAPAVuiClass@@XZ" PURGE="0" COMMENT="" />
    <EXPORT ORDINAL="1463" NAME="?StaticClass@UResizeHandleW@@SAPAVuiClass@@XZ" PURGE="0" COMMENT="" />
    <EXPORT ORDINAL="1464" NAME="?StaticClass@UScaleContainer@@SAPAVuiClass@@XZ" PURGE="0" COMMENT="" />
    <EXPORT ORDINAL="1465" NAME="?StaticClass@UScriptComponent@@SAPAVuiClass@@XZ" PURGE="0" COMMENT="" />
    <EXPORT ORDINAL="1466" NAME="?StaticClass@UScrollBar@@SAPAVuiClass@@XZ" PURGE="0" COMMENT="" />
    <EXPORT ORDINAL="1467" NAME="?StaticClass@UScrollFrame@@SAPAVuiClass@@XZ" PURGE="0" COMMENT="" />
    <EXPORT ORDINAL="1468" NAME="?StaticClass@UScrollTextArea@@SAPAVuiClass@@XZ" PURGE="0" COMMENT="" />
    <EXPORT ORDINAL="1469" NAME="?StaticClass@USelector@@SAPAVuiClass@@XZ" PURGE="0" COMMENT="" />
    <EXPORT ORDINAL="1470" NAME="?StaticClass@USelectorItem@@SAPAVuiClass@@XZ" PURGE="0" COMMENT="" />
    <EXPORT ORDINAL="1471" NAME="?StaticClass@USelectorList@@SAPAVuiClass@@XZ" PURGE="0" COMMENT="" />
    <EXPORT ORDINAL="1472" NAME="?StaticClass@USlider@@SAPAVuiClass@@XZ" PURGE="0" COMMENT="" />
    <EXPORT ORDINAL="1473" NAME="?StaticClass@USoundComponent@@SAPAVuiClass@@XZ" PURGE="0" COMMENT="" />
    <EXPORT ORDINAL="1474" NAME="?StaticClass@UTexUIhook@@SAPAVUClass@@XZ" PURGE="0" COMMENT="" />
    <EXPORT ORDINAL="1475" NAME="?StaticClass@UTextArea@@SAPAVuiClass@@XZ" PURGE="0" COMMENT="" />
    <EXPORT ORDINAL="1476" NAME="?StaticClass@UTextComponentBase@@SAPAVuiClass@@XZ" PURGE="0" COMMENT="" />
    <EXPORT ORDINAL="1477" NAME="?StaticClass@UTextField@@SAPAVuiClass@@XZ" PURGE="0" COMMENT="" />
    <EXPORT ORDINAL="1478" NAME="?StaticClass@UTileContainer@@SAPAVuiClass@@XZ" PURGE="0" COMMENT="" />
    <EXPORT ORDINAL="1479" NAME="?StaticClass@UTimedImage@@SAPAVuiClass@@XZ" PURGE="0" COMMENT="" />
    <EXPORT ORDINAL="1480" NAME="?StaticClass@UTimedLabel@@SAPAVuiClass@@XZ" PURGE="0" COMMENT="" />
    <EXPORT ORDINAL="1481" NAME="?StaticClass@UTimedTextArea@@SAPAVuiClass@@XZ" PURGE="0" COMMENT="" />
    <EXPORT ORDINAL="1482" NAME="?StaticClass@UUIConsole@@SAPAVUClass@@XZ" PURGE="0" COMMENT="" />
    <EXPORT ORDINAL="1483" NAME="?StaticClass@UUIHelper@@SAPAVUClass@@XZ" PURGE="0" COMMENT="" />
    <EXPORT ORDINAL="1484" NAME="?StaticClass@UVarWatcher@@SAPAVuiClass@@XZ" PURGE="0" COMMENT="" />
    <EXPORT ORDINAL="1485" NAME="?StaticClass@UWindow@@SAPAVuiClass@@XZ" PURGE="0" COMMENT="" />
    <EXPORT ORDINAL="1486" NAME="?StaticInitComponent@@YAXPAVUComponent@@PBGH@Z" PURGE="0" COMMENT="" />
    <EXPORT ORDINAL="1487" NAME="?StaticLoadAndSetTexture@UComponent@@SAXPAVUConsole@@VFString@@AAPAVUTexture@@@Z" PURGE="0" COMMENT="" />
    <EXPORT ORDINAL="1488" NAME="?StaticNameTable@?1??GetInstance@FNameTable@@SAPAV2@XZ@4PAV2@A" PURGE="-1" COMMENT="" />
    <EXPORT ORDINAL="1489" NAME="?Stop@UCredits@@QAEXXZ" PURGE="0" COMMENT="" />
    <EXPORT ORDINAL="1490" NAME="?StopListening@UInputSelector@@AAEXXZ" PURGE="0" COMMENT="" />
    <EXPORT ORDINAL="1491" NAME="?Tick@ActionEvent@@UAEXM@Z" PURGE="4" COMMENT="" />
    <EXPORT ORDINAL="1492" NAME="?Tick@CutsceneTimedEvent@@UAEXM@Z" PURGE="4" COMMENT="" />
    <EXPORT ORDINAL="1493" NAME="?Tick@UComponent@@UAEXM@Z" PURGE="4" COMMENT="" />
    <EXPORT ORDINAL="1494" NAME="?Tick@UContainer@@UAEXM@Z" PURGE="4" COMMENT="" />
    <EXPORT ORDINAL="1495" NAME="?Tick@UMouseCursor@@UAEXM@Z" PURGE="4" COMMENT="" />
    <EXPORT ORDINAL="1496" NAME="?Tick@UMultiStateComponent@@UAEXM@Z" PURGE="4" COMMENT="" />
    <EXPORT ORDINAL="1497" NAME="?Tick@UUIConsole@@UAEXM@Z" PURGE="4" COMMENT="" />
    <EXPORT ORDINAL="1498" NAME="?Tick@UUIHelper@@UAEXM@Z" PURGE="4" COMMENT="" />
    <EXPORT ORDINAL="1499" NAME="?Toggle@UCheckBox@@QAAXPAX@Z" PURGE="0" COMMENT="" />
    <EXPORT ORDINAL="1500" NAME="?Transition@UMultiStateComponent@@QAEXH@Z" PURGE="4" COMMENT="" />
    <EXPORT ORDINAL="1501" NAME="?Transitioning_BeginState@UMultiStateComponent@@IAEXXZ" PURGE="0" COMMENT="" />
    <EXPORT ORDINAL="1502" NAME="?Transitioning_EndState@UMultiStateComponent@@IAEXXZ" PURGE="0" COMMENT="" />
    <EXPORT ORDINAL="1503" NAME="?Transitioning_GetState@UMultiStateComponent@@IAEPAVUComponent@@XZ" PURGE="0" COMMENT="" />
    <EXPORT ORDINAL="1504" NAME="?Transitioning_HandleEvent@UMultiStateComponent@@IAEXH@Z" PURGE="4" COMMENT="" />
    <EXPORT ORDINAL="1505" NAME="?Transitioning_Update@UMultiStateComponent@@IAEXPAVFSceneNode@@PAVFUIRenderer@@@Z" PURGE="8" COMMENT="" />
    <EXPORT ORDINAL="1506" NAME="?Tween@UComponent@@UAEXPAVUMultiStateComponent@@PAV1@1M@Z" PURGE="16" COMMENT="" />
    <EXPORT ORDINAL="1507" NAME="?Tween@UContainer@@UAEXPAVUMultiStateComponent@@PAVUComponent@@1M@Z" PURGE="16" COMMENT="" />
    <EXPORT ORDINAL="1508" NAME="?Tween@UFrame@@UAEXPAVUMultiStateComponent@@PAVUComponent@@1M@Z" PURGE="16" COMMENT="" />
    <EXPORT ORDINAL="1509" NAME="?Tween@UImageWedge@@UAEXPAVUMultiStateComponent@@PAVUComponent@@1M@Z" PURGE="16" COMMENT="" />
    <EXPORT ORDINAL="1510" NAME="?Tween@UImageWipe@@UAEXPAVUMultiStateComponent@@PAVUComponent@@1M@Z" PURGE="16" COMMENT="" />
    <EXPORT ORDINAL="1511" NAME="?Tween@UScrollFrame@@UAEXPAVUMultiStateComponent@@PAVUComponent@@1M@Z" PURGE="16" COMMENT="" />
    <EXPORT ORDINAL="1512" NAME="?TweenColor@UMultiStateComponent@@QAEXH@Z" PURGE="4" COMMENT="" />
    <EXPORT ORDINAL="1513" NAME="?TweenLocation@UMultiStateComponent@@QAEXH@Z" PURGE="4" COMMENT="" />
    <EXPORT ORDINAL="1514" NAME="?TweenSize@UMultiStateComponent@@QAEXH@Z" PURGE="4" COMMENT="" />
    <EXPORT ORDINAL="1515" NAME="?UnRegisterRenderListener@UUIConsole@@QAEXPAVUObject@@VFString@@@Z" PURGE="16" COMMENT="" />
    <EXPORT ORDINAL="1516" NAME="?Unlock@UComponent@@QAEXK@Z" PURGE="4" COMMENT="" />
    <EXPORT ORDINAL="1517" NAME="?Update@UCheckBox@@UAEXPAVFSceneNode@@PAVFUIRenderer@@@Z" PURGE="8" COMMENT="" />
    <EXPORT ORDINAL="1518" NAME="?Update@UComponent@@UAEXPAVFSceneNode@@PAVFUIRenderer@@@Z" PURGE="8" COMMENT="" />
    <EXPORT ORDINAL="1519" NAME="?Update@UComponentHandle@@UAEXPAVFSceneNode@@PAVFUIRenderer@@@Z" PURGE="8" COMMENT="" />
    <EXPORT ORDINAL="1520" NAME="?Update@UContainer@@UAEXPAVFSceneNode@@PAVFUIRenderer@@@Z" PURGE="8" COMMENT="" />
    <EXPORT ORDINAL="1521" NAME="?Update@UCredits@@UAEXPAVFSceneNode@@PAVFUIRenderer@@@Z" PURGE="8" COMMENT="" />
    <EXPORT ORDINAL="1522" NAME="?Update@UFrame@@UAEXPAVFSceneNode@@PAVFUIRenderer@@@Z" PURGE="8" COMMENT="" />
    <EXPORT ORDINAL="1523" NAME="?Update@UHoldButton@@UAEXPAVFSceneNode@@PAVFUIRenderer@@@Z" PURGE="8" COMMENT="" />
    <EXPORT ORDINAL="1524" NAME="?Update@UImageComponentBase@@UAEXPAVFSceneNode@@PAVFUIRenderer@@@Z" PURGE="8" COMMENT="" />
    <EXPORT ORDINAL="1525" NAME="?Update@UImageWedge@@UAEXPAVFSceneNode@@PAVFUIRenderer@@@Z" PURGE="8" COMMENT="" />
    <EXPORT ORDINAL="1526" NAME="?Update@UImageWipe@@UAEXPAVFSceneNode@@PAVFUIRenderer@@@Z" PURGE="8" COMMENT="" />
    <EXPORT ORDINAL="1527" NAME="?Update@UInputSelector@@UAEXPAVFSceneNode@@PAVFUIRenderer@@@Z" PURGE="8" COMMENT="" />
    <EXPORT ORDINAL="1528" NAME="?Update@ULabel@@UAEXPAVFSceneNode@@PAVFUIRenderer@@@Z" PURGE="8" COMMENT="" />
    <EXPORT ORDINAL="1529" NAME="?Update@ULabelShadow@@UAEXPAVFSceneNode@@PAVFUIRenderer@@@Z" PURGE="8" COMMENT="" />
    <EXPORT ORDINAL="1530" NAME="?Update@UMaterialContainer@@UAEXPAVFSceneNode@@PAVFUIRenderer@@@Z" PURGE="8" COMMENT="" />
    <EXPORT ORDINAL="1531" NAME="?Update@UMouseCursor@@UAEXPAVFSceneNode@@PAVFUIRenderer@@@Z" PURGE="8" COMMENT="" />
    <EXPORT ORDINAL="1532" NAME="?Update@UMoveHandle@@UAEXPAVFSceneNode@@PAVFUIRenderer@@@Z" PURGE="8" COMMENT="" />
    <EXPORT ORDINAL="1533" NAME="?Update@UMultiStateComponent@@UAEXPAVFSceneNode@@PAVFUIRenderer@@@Z" PURGE="8" COMMENT="" />
    <EXPORT ORDINAL="1534" NAME="?Update@UNumWatcher@@UAEXPAVFSceneNode@@PAVFUIRenderer@@@Z" PURGE="8" COMMENT="" />
    <EXPORT ORDINAL="1535" NAME="?Update@UPlayerID@@UAEXPAVFSceneNode@@PAVFUIRenderer@@@Z" PURGE="8" COMMENT="" />
    <EXPORT ORDINAL="1536" NAME="?Update@UScaleContainer@@UAEXPAVFSceneNode@@PAVFUIRenderer@@@Z" PURGE="8" COMMENT="" />
    <EXPORT ORDINAL="1537" NAME="?Update@UScrollBar@@UAEXPAVFSceneNode@@PAVFUIRenderer@@@Z" PURGE="8" COMMENT="" />
    <EXPORT ORDINAL="1538" NAME="?Update@UScrollTextArea@@UAEXPAVFSceneNode@@PAVFUIRenderer@@@Z" PURGE="8" COMMENT="" />
    <EXPORT ORDINAL="1539" NAME="?Update@USelector@@UAEXPAVFSceneNode@@PAVFUIRenderer@@@Z" PURGE="8" COMMENT="" />
    <EXPORT ORDINAL="1540" NAME="?Update@USlider@@UAEXPAVFSceneNode@@PAVFUIRenderer@@@Z" PURGE="8" COMMENT="" />
    <EXPORT ORDINAL="1541" NAME="?Update@UTextArea@@UAEXPAVFSceneNode@@PAVFUIRenderer@@@Z" PURGE="8" COMMENT="" />
    <EXPORT ORDINAL="1542" NAME="?Update@UTextField@@UAEXPAVFSceneNode@@PAVFUIRenderer@@@Z" PURGE="8" COMMENT="" />
    <EXPORT ORDINAL="1543" NAME="?Update@UTileContainer@@UAEXPAVFSceneNode@@PAVFUIRenderer@@@Z" PURGE="8" COMMENT="" />
    <EXPORT ORDINAL="1544" NAME="?Update@UTimedImage@@UAEXPAVFSceneNode@@PAVFUIRenderer@@@Z" PURGE="8" COMMENT="" />
    <EXPORT ORDINAL="1545" NAME="?Update@UTimedLabel@@UAEXPAVFSceneNode@@PAVFUIRenderer@@@Z" PURGE="8" COMMENT="" />
    <EXPORT ORDINAL="1546" NAME="?Update@UVarWatcher@@UAEXPAVFSceneNode@@PAVFUIRenderer@@@Z" PURGE="8" COMMENT="" />
    <EXPORT ORDINAL="1547" NAME="?UpdateComponent@UCredits@@QAEXPAVUComponent@@M@Z" PURGE="8" COMMENT="" />
    <EXPORT ORDINAL="1548" NAME="?UpdateComponent@UMoveHandle@@UAEXPAVUComponent@@UFDimension@@@Z" PURGE="12" COMMENT="" />
    <EXPORT ORDINAL="1549" NAME="?UpdateComponent@UResizeHandleE@@UAEXPAVUComponent@@UFDimension@@@Z" PURGE="12" COMMENT="" />
    <EXPORT ORDINAL="1550" NAME="?UpdateComponent@UResizeHandleN@@UAEXPAVUComponent@@UFDimension@@@Z" PURGE="12" COMMENT="" />
    <EXPORT ORDINAL="1551" NAME="?UpdateComponent@UResizeHandleNE@@UAEXPAVUComponent@@UFDimension@@@Z" PURGE="12" COMMENT="" />
    <EXPORT ORDINAL="1552" NAME="?UpdateComponent@UResizeHandleNW@@UAEXPAVUComponent@@UFDimension@@@Z" PURGE="12" COMMENT="" />
    <EXPORT ORDINAL="1553" NAME="?UpdateComponent@UResizeHandleS@@UAEXPAVUComponent@@UFDimension@@@Z" PURGE="12" COMMENT="" />
    <EXPORT ORDINAL="1554" NAME="?UpdateComponent@UResizeHandleSE@@UAEXPAVUComponent@@UFDimension@@@Z" PURGE="12" COMMENT="" />
    <EXPORT ORDINAL="1555" NAME="?UpdateComponent@UResizeHandleSW@@UAEXPAVUComponent@@UFDimension@@@Z" PURGE="12" COMMENT="" />
    <EXPORT ORDINAL="1556" NAME="?UpdateComponent@UResizeHandleW@@UAEXPAVUComponent@@UFDimension@@@Z" PURGE="12" COMMENT="" />
    <EXPORT ORDINAL="1557" NAME="?Validate@UComponent@@QAEXXZ" PURGE="0" COMMENT="" />
    <EXPORT ORDINAL="1558" NAME="?ValidateI@UComponent@@MAEXXZ" PURGE="0" COMMENT="" />
    <EXPORT ORDINAL="1559" NAME="?ValidateI@UContainer@@UAEXXZ" PURGE="0" COMMENT="" />
    <EXPORT ORDINAL="1560" NAME="?ValidateI@UMultiStateComponent@@UAEXXZ" PURGE="0" COMMENT="" />
    <EXPORT ORDINAL="1561" NAME="?ValidateI@URealComponent@@UAEXXZ" PURGE="0" COMMENT="" />
    <EXPORT ORDINAL="1562" NAME="?_Init@UUIConsole@@UAEXPAVUViewport@@@Z" PURGE="4" COMMENT="" />
    <EXPORT ORDINAL="1563" NAME="?__FUNC_NAME__@?2???6@YAAAVFArchive@@AAV1@AAV?$THashTable@VFString@@H$09@@@Z@4QBGB" PURGE="-1" COMMENT="" />
    <EXPORT ORDINAL="1564" NAME="?execAddComponent@UUIConsole@@QAEXAAUFFrame@@QAX@Z" PURGE="8" COMMENT="" />
    <EXPORT ORDINAL="1565" NAME="?execAddKeyEventListener@UUIConsole@@QAEXAAUFFrame@@QAX@Z" PURGE="8" COMMENT="" />
    <EXPORT ORDINAL="1566" NAME="?execAddKeyListener@UUIConsole@@QAEXAAUFFrame@@QAX@Z" PURGE="8" COMMENT="" />
    <EXPORT ORDINAL="1567" NAME="?execAddTickListener@UUIConsole@@QAEXAAUFFrame@@QAX@Z" PURGE="8" COMMENT="" />
    <EXPORT ORDINAL="1568" NAME="?execAddWatch@UUIConsole@@QAEXAAUFFrame@@QAX@Z" PURGE="8" COMMENT="" />
    <EXPORT ORDINAL="1569" NAME="?execDestroyComponent@UUIConsole@@QAEXAAUFFrame@@QAX@Z" PURGE="8" COMMENT="" />
    <EXPORT ORDINAL="1570" NAME="?execDispatchMessage@UUIConsole@@QAEXAAUFFrame@@QAX@Z" PURGE="8" COMMENT="" />
    <EXPORT ORDINAL="1571" NAME="?execFindLooseComponent@UUIConsole@@QAEXAAUFFrame@@QAX@Z" PURGE="8" COMMENT="" />
    <EXPORT ORDINAL="1572" NAME="?execGetClient@UUIConsole@@QAEXAAUFFrame@@QAX@Z" PURGE="8" COMMENT="" />
    <EXPORT ORDINAL="1573" NAME="?execGetComponent@UUIConsole@@QAEXAAUFFrame@@QAX@Z" PURGE="8" COMMENT="" />
    <EXPORT ORDINAL="1574" NAME="?execGetComponentSize@UUIConsole@@QAEXAAUFFrame@@QAX@Z" PURGE="8" COMMENT="" />
    <EXPORT ORDINAL="1575" NAME="?execGetConsole@UUIConsole@@QAEXAAUFFrame@@QAX@Z" PURGE="8" COMMENT="" />
    <EXPORT ORDINAL="1576" NAME="?execGetInstance@UUIConsole@@QAEXAAUFFrame@@QAX@Z" PURGE="8" COMMENT="" />
    <EXPORT ORDINAL="1577" NAME="?execGetLooseComponents@UUIConsole@@QAEXAAUFFrame@@QAX@Z" PURGE="8" COMMENT="" />
    <EXPORT ORDINAL="1578" NAME="?execGetPlayerOwner@UUIConsole@@QAEXAAUFFrame@@QAX@Z" PURGE="8" COMMENT="" />
    <EXPORT ORDINAL="1579" NAME="?execGetTimeSeconds@UUIConsole@@QAEXAAUFFrame@@QAX@Z" PURGE="8" COMMENT="" />
    <EXPORT ORDINAL="1580" NAME="?execGetUIConsole@UUIConsole@@QAEXAAUFFrame@@QAX@Z" PURGE="8" COMMENT="" />
    <EXPORT ORDINAL="1581" NAME="?execLoadComponent@UUIConsole@@QAEXAAUFFrame@@QAX@Z" PURGE="8" COMMENT="" />
    <EXPORT ORDINAL="1582" NAME="?execRegisterRenderListener@UUIConsole@@QAEXAAUFFrame@@QAX@Z" PURGE="8" COMMENT="" />
    <EXPORT ORDINAL="1583" NAME="?execRemoveKeyEventListener@UUIConsole@@QAEXAAUFFrame@@QAX@Z" PURGE="8" COMMENT="" />
    <EXPORT ORDINAL="1584" NAME="?execRemoveKeyListener@UUIConsole@@QAEXAAUFFrame@@QAX@Z" PURGE="8" COMMENT="" />
    <EXPORT ORDINAL="1585" NAME="?execRemoveTickListener@UUIConsole@@QAEXAAUFFrame@@QAX@Z" PURGE="8" COMMENT="" />
    <EXPORT ORDINAL="1586" NAME="?execSendEvent@UUIConsole@@QAEXAAUFFrame@@QAX@Z" PURGE="8" COMMENT="" />
    <EXPORT ORDINAL="1587" NAME="?execSetOwner@UUIConsole@@QAEXAAUFFrame@@QAX@Z" PURGE="8" COMMENT="" />
    <EXPORT ORDINAL="1588" NAME="?execTimedMessage@UUIConsole@@QAEXAAUFFrame@@QAX@Z" PURGE="8" COMMENT="" />
    <EXPORT ORDINAL="1589" NAME="?execUnRegisterRenderListener@UUIConsole@@QAEXAAUFFrame@@QAX@Z" PURGE="8" COMMENT="" />
    <EXPORT ORDINAL="1590" NAME="_DllMain@12" PURGE="12" COMMENT="" />
    <EXPORT ORDINAL="1591" NAME="GPackage" PURGE="-1" COMMENT="" />
    <EXPORT ORDINAL="1592" NAME="PackageInit" PURGE="0" COMMENT="" />
    <EXPORT ORDINAL="1593" NAME="autoclassUTexUIhook" PURGE="-1" COMMENT="" />
    <EXPORT ORDINAL="1594" NAME="autoclassUUIConsole" PURGE="-1" COMMENT="" />
    <EXPORT ORDINAL="1595" NAME="autoclassUUIHelper" PURGE="-1" COMMENT="" />
    <EXPORT ORDINAL="1596" NAME="intUUIConsoleexecAddComponent" PURGE="-1" COMMENT="" />
    <EXPORT ORDINAL="1597" NAME="intUUIConsoleexecAddKeyEventListener" PURGE="-1" COMMENT="" />
    <EXPORT ORDINAL="1598" NAME="intUUIConsoleexecAddKeyListener" PURGE="-1" COMMENT="" />
    <EXPORT ORDINAL="1599" NAME="intUUIConsoleexecAddTickListener" PURGE="-1" COMMENT="" />
    <EXPORT ORDINAL="1600" NAME="intUUIConsoleexecAddWatch" PURGE="-1" COMMENT="" />
    <EXPORT ORDINAL="1601" NAME="intUUIConsoleexecDestroyComponent" PURGE="-1" COMMENT="" />
    <EXPORT ORDINAL="1602" NAME="intUUIConsoleexecDispatchMessage" PURGE="-1" COMMENT="" />
    <EXPORT ORDINAL="1603" NAME="intUUIConsoleexecFindLooseComponent" PURGE="-1" COMMENT="" />
    <EXPORT ORDINAL="1604" NAME="intUUIConsoleexecGetClient" PURGE="-1" COMMENT="" />
    <EXPORT ORDINAL="1605" NAME="intUUIConsoleexecGetComponent" PURGE="-1" COMMENT="" />
    <EXPORT ORDINAL="1606" NAME="intUUIConsoleexecGetComponentSize" PURGE="-1" COMMENT="" />
    <EXPORT ORDINAL="1607" NAME="intUUIConsoleexecGetConsole" PURGE="-1" COMMENT="" />
    <EXPORT ORDINAL="1608" NAME="intUUIConsoleexecGetInstance" PURGE="-1" COMMENT="" />
    <EXPORT ORDINAL="1609" NAME="intUUIConsoleexecGetLooseComponents" PURGE="-1" COMMENT="" />
    <EXPORT ORDINAL="1610" NAME="intUUIConsoleexecGetPlayerOwner" PURGE="-1" COMMENT="" />
    <EXPORT ORDINAL="1611" NAME="intUUIConsoleexecGetTimeSeconds" PURGE="-1" COMMENT="" />
    <EXPORT ORDINAL="1612" NAME="intUUIConsoleexecGetUIConsole" PURGE="-1" COMMENT="" />
    <EXPORT ORDINAL="1613" NAME="intUUIConsoleexecLoadComponent" PURGE="-1" COMMENT="" />
    <EXPORT ORDINAL="1614" NAME="intUUIConsoleexecRegisterRenderListener" PURGE="-1" COMMENT="" />
    <EXPORT ORDINAL="1615" NAME="intUUIConsoleexecRemoveKeyEventListener" PURGE="-1" COMMENT="" />
    <EXPORT ORDINAL="1616" NAME="intUUIConsoleexecRemoveKeyListener" PURGE="-1" COMMENT="" />
    <EXPORT ORDINAL="1617" NAME="intUUIConsoleexecRemoveTickListener" PURGE="-1" COMMENT="" />
    <EXPORT ORDINAL="1618" NAME="intUUIConsoleexecSendEvent" PURGE="-1" COMMENT="" />
    <EXPORT ORDINAL="1619" NAME="intUUIConsoleexecSetOwner" PURGE="-1" COMMENT="" />
    <EXPORT ORDINAL="1620" NAME="intUUIConsoleexecTimedMessage" PURGE="-1" COMMENT="" />
    <EXPORT ORDINAL="1621" NAME="intUUIConsoleexecUnRegisterRenderListener" PURGE="-1" COMMENT="" />
</LIBRARY>

