<?xml version="1.0" encoding="UTF-8"?>
<LIBRARY NAME="ums.dll" PATH="/DLLArchive/etc/UMS.DLL" DATE="Fri Jul 03 13:24:43 PDT 2020" VERSION="1998.11.13">
    <EXPORT ORDINAL="1" NAME="??0UmsEvent@@QAE@XZ" PURGE="0" COMMENT="" />
    <EXPORT ORDINAL="2" NAME="??0UmsFiberScheduler@@QAE@KKMHHP6AXPAXH@Z@Z" PURGE="24" COMMENT="" />
    <EXPORT ORDINAL="3" NAME="??0UmsIoQueue@@QAE@XZ" PURGE="0" COMMENT="" />
    <EXPORT ORDINAL="4" NAME="??0UmsScheduler@@QAE@KKMHHP6AXPAXH@Z@Z" PURGE="24" COMMENT="" />
    <EXPORT ORDINAL="5" NAME="??0UmsThreadScheduler@@QAE@KKMHHP6AXPAXH@Z@Z" PURGE="24" COMMENT="" />
    <EXPORT ORDINAL="6" NAME="??0UmsUserContext@@QAE@PAVUmsScheduler@@@Z" PURGE="4" COMMENT="" />
    <EXPORT ORDINAL="7" NAME="??1UmsEvent@@QAE@XZ" PURGE="0" COMMENT="" />
    <EXPORT ORDINAL="8" NAME="??1UmsFiberScheduler@@QAE@XZ" PURGE="0" COMMENT="" />
    <EXPORT ORDINAL="9" NAME="??1UmsNotification@@UAE@XZ" PURGE="0" COMMENT="" />
    <EXPORT ORDINAL="10" NAME="??1UmsScheduler@@QAE@XZ" PURGE="0" COMMENT="" />
    <EXPORT ORDINAL="11" NAME="??1UmsThreadScheduler@@QAE@XZ" PURGE="0" COMMENT="" />
    <EXPORT ORDINAL="12" NAME="??1UmsUserContext@@QAE@XZ" PURGE="0" COMMENT="" />
    <EXPORT ORDINAL="13" NAME="?Active@UmsScheduler@@QAEHXZ" PURGE="0" COMMENT="" />
    <EXPORT ORDINAL="14" NAME="?ActiveUsers@UmsSchedulerQueue@@QAEHXZ" PURGE="0" COMMENT="" />
    <EXPORT ORDINAL="15" NAME="?ActiveWorkers@UmsScheduler@@QAEHXZ" PURGE="0" COMMENT="" />
    <EXPORT ORDINAL="16" NAME="?ActiveWorkers@UmsSchedulerQueue@@QAEHXZ" PURGE="0" COMMENT="" />
    <EXPORT ORDINAL="17" NAME="?Add@UmsIoQueue@@QAEXPAUUmsIoRequest@@@Z" PURGE="4" COMMENT="" />
    <EXPORT ORDINAL="18" NAME="?ChangeFileSize@UmsScheduler@@QAEKPAX_K@Z" PURGE="12" COMMENT="" />
    <EXPORT ORDINAL="19" NAME="?CheckForIoCompletion@UmsScheduler@@QAEHH@Z" PURGE="4" COMMENT="" />
    <EXPORT ORDINAL="20" NAME="?CheckNotificationList@UmsScheduler@@QAEXXZ" PURGE="0" COMMENT="" />
    <EXPORT ORDINAL="21" NAME="?CheckTimerList@UmsScheduler@@QAEHXZ" PURGE="0" COMMENT="" />
    <EXPORT ORDINAL="22" NAME="?Context@UmsFiberScheduler@@UAE_NPAU_CONTEXT@@PAVUmsUserContext@@@Z" PURGE="8" COMMENT="" />
    <EXPORT ORDINAL="23" NAME="?Context@UmsThreadScheduler@@UAE_NPAU_CONTEXT@@PAVUmsUserContext@@@Z" PURGE="8" COMMENT="" />
    <EXPORT ORDINAL="24" NAME="?ConvertThread@UmsFiberScheduler@@UAEHXZ" PURGE="0" COMMENT="" />
    <EXPORT ORDINAL="25" NAME="?ConvertThread@UmsThreadScheduler@@UAEHXZ" PURGE="0" COMMENT="" />
    <EXPORT ORDINAL="26" NAME="?Create@UmsEvent@@QAEXW4EventType@@W4EventState@@PBG@Z" PURGE="12" COMMENT="" />
    <EXPORT ORDINAL="27" NAME="?CreateUser@UmsScheduler@@QAEHP6GKPAX@Z0@Z" PURGE="8" COMMENT="" />
    <EXPORT ORDINAL="28" NAME="?DecrIdleWorkers@UmsSchedulerQueue@@QAEXXZ" PURGE="0" COMMENT="" />
    <EXPORT ORDINAL="29" NAME="?Delete@UmsSchedulerQueue@@QAEXPAVUmsScheduler@@@Z" PURGE="4" COMMENT="" />
    <EXPORT ORDINAL="30" NAME="?EnqueueWork@UmsScheduler@@QAEHPAVUmsUserContext@@P6AXPAX@Z1W4UmsQueueFlags@@@Z" PURGE="16" COMMENT="" />
    <EXPORT ORDINAL="31" NAME="?ExitUser@UmsFiberScheduler@@UAEX_N@Z" PURGE="4" COMMENT="" />
    <EXPORT ORDINAL="32" NAME="?ExitUser@UmsThreadScheduler@@UAEX_N@Z" PURGE="4" COMMENT="" />
    <EXPORT ORDINAL="33" NAME="?FiberEnabled@UmsScheduler@@QAEHXZ" PURGE="0" COMMENT="" />
    <EXPORT ORDINAL="34" NAME="?FindNextAvailable@UmsSchedulerQueue@@QAEPAVUmsScheduler@@W4UmsSchedulerAlgorithms@@@Z" PURGE="4" COMMENT="" />
    <EXPORT ORDINAL="35" NAME="?Free@UmsEvent@@QAEXXZ" PURGE="0" COMMENT="" />
    <EXPORT ORDINAL="36" NAME="?GatherWriteAsync@UmsScheduler@@QAEXAAUUmsIoRequest@@@Z" PURGE="4" COMMENT="" />
    <EXPORT ORDINAL="37" NAME="?Get@UmsIoQueue@@QAEPAUUmsIoRequest@@XZ" PURGE="0" COMMENT="" />
    <EXPORT ORDINAL="38" NAME="?GetContext@UmsUserContext@@QAE_NPAU_CONTEXT@@@Z" PURGE="4" COMMENT="" />
    <EXPORT ORDINAL="39" NAME="?GetId@UmsScheduler@@QBEIXZ" PURGE="0" COMMENT="" />
    <EXPORT ORDINAL="40" NAME="?GetScheduler@UmsUserContext@@QBEPAVUmsScheduler@@XZ" PURGE="0" COMMENT="" />
    <EXPORT ORDINAL="41" NAME="?GetUserLocalData@UmsUserContext@@QBEPAXH@Z" PURGE="4" COMMENT="" />
    <EXPORT ORDINAL="42" NAME="?IdleSchedulers@UmsSchedulerQueue@@QAEHXZ" PURGE="0" COMMENT="" />
    <EXPORT ORDINAL="43" NAME="?IncNumUsers@UmsScheduler@@QAEXXZ" PURGE="0" COMMENT="" />
    <EXPORT ORDINAL="44" NAME="?IncrIdleWorkers@UmsSchedulerQueue@@QAEXXZ" PURGE="0" COMMENT="" />
    <EXPORT ORDINAL="45" NAME="?Insert@UmsSchedulerQueue@@QAEXPAVUmsScheduler@@@Z" PURGE="4" COMMENT="" />
    <EXPORT ORDINAL="46" NAME="?NextTimeOut@UmsScheduler@@QAEKXZ" PURGE="0" COMMENT="" />
    <EXPORT ORDINAL="47" NAME="?Notify@UmsScheduler@@QAEXPAVUmsNotification@@@Z" PURGE="4" COMMENT="" />
    <EXPORT ORDINAL="48" NAME="?NumUsers@UmsScheduler@@QBEKXZ" PURGE="0" COMMENT="" />
    <EXPORT ORDINAL="49" NAME="?PremptSched@@3PAVUmsThreadScheduler@@A" PURGE="-1" COMMENT="" />
    <EXPORT ORDINAL="50" NAME="?ReadAsync@UmsScheduler@@QAEXAAUUmsIoRequest@@@Z" PURGE="4" COMMENT="" />
    <EXPORT ORDINAL="51" NAME="?Reset@UmsEvent@@QAEXXZ" PURGE="0" COMMENT="" />
    <EXPORT ORDINAL="52" NAME="?Resume@UmsScheduler@@QAEXPAVUmsUserContext@@W4UmsQueueMethod@@@Z" PURGE="8" COMMENT="" />
    <EXPORT ORDINAL="53" NAME="?ScatterReadAsync@UmsScheduler@@QAEXAAUUmsIoRequest@@@Z" PURGE="4" COMMENT="" />
    <EXPORT ORDINAL="54" NAME="?SchedulerList@@3VUmsSchedulerQueue@@A" PURGE="-1" COMMENT="" />
    <EXPORT ORDINAL="55" NAME="?SetUserLocalData@UmsUserContext@@QAEXHPAX@Z" PURGE="8" COMMENT="" />
    <EXPORT ORDINAL="56" NAME="?Signal@UmsEvent@@QAEXXZ" PURGE="0" COMMENT="" />
    <EXPORT ORDINAL="57" NAME="?SignalCnt@UmsEvent@@QAEXH@Z" PURGE="4" COMMENT="" />
    <EXPORT ORDINAL="58" NAME="?SpinToAcquire@UmsSpinlock@@QAEXW4UMSSPINLOCK_TYPE@@@Z" PURGE="4" COMMENT="" />
    <EXPORT ORDINAL="59" NAME="?Suspend@UmsScheduler@@QAEKKH@Z" PURGE="8" COMMENT="" />
    <EXPORT ORDINAL="60" NAME="?SwitchNonPremptive@UmsFiberScheduler@@UAEXXZ" PURGE="0" COMMENT="" />
    <EXPORT ORDINAL="61" NAME="?SwitchNonPremptive@UmsThreadScheduler@@UAEXXZ" PURGE="0" COMMENT="" />
    <EXPORT ORDINAL="62" NAME="?SwitchPremptive@UmsFiberScheduler@@UAEXXZ" PURGE="0" COMMENT="" />
    <EXPORT ORDINAL="63" NAME="?SwitchPremptive@UmsThreadScheduler@@UAEXXZ" PURGE="0" COMMENT="" />
    <EXPORT ORDINAL="64" NAME="?UmsAllocEvent@@YAPAVUmsEvent@@XZ" PURGE="0" COMMENT="" />
    <EXPORT ORDINAL="65" NAME="?UmsAllocScheduler@@YAPAVUmsScheduler@@KKMHHP6AXPAXH@Z@Z" PURGE="0" COMMENT="" />
    <EXPORT ORDINAL="66" NAME="?UmsDeleteEvent@@YAXPAVUmsEvent@@@Z" PURGE="0" COMMENT="" />
    <EXPORT ORDINAL="67" NAME="?UmsDeleteScheduler@@YAXPAVUmsScheduler@@@Z" PURGE="0" COMMENT="" />
    <EXPORT ORDINAL="68" NAME="?UmsGetStatistics@@YAPAUUmsStatistic@@XZ" PURGE="0" COMMENT="" />
    <EXPORT ORDINAL="69" NAME="?UmsGetUserId@@YAPAVUmsUserContext@@XZ" PURGE="0" COMMENT="" />
    <EXPORT ORDINAL="70" NAME="?UmsSpinStats@@3VUmsSpinlockStat@@A" PURGE="-1" COMMENT="" />
    <EXPORT ORDINAL="71" NAME="?UmsSpinTitles@@3PAPADA" PURGE="-1" COMMENT="" />
    <EXPORT ORDINAL="72" NAME="?UnNotify@UmsScheduler@@QAEXPAVUmsNotification@@@Z" PURGE="4" COMMENT="" />
    <EXPORT ORDINAL="73" NAME="?UserWeighting@UmsScheduler@@QBEMXZ" PURGE="0" COMMENT="" />
    <EXPORT ORDINAL="74" NAME="?Wait@UmsEvent@@QAEKKHH@Z" PURGE="12" COMMENT="" />
    <EXPORT ORDINAL="75" NAME="?Wait@UmsIoQueue@@QAEPAUUmsIoRequest@@XZ" PURGE="0" COMMENT="" />
    <EXPORT ORDINAL="76" NAME="?WaitMultiple@UmsEvent@@QAEKKHK@Z" PURGE="12" COMMENT="" />
    <EXPORT ORDINAL="77" NAME="?WriteAsync@UmsScheduler@@QAEXAAUUmsIoRequest@@@Z" PURGE="4" COMMENT="" />
</LIBRARY>

