<?xml version="1.0" encoding="UTF-8"?>
<LIBRARY NAME="unicorn.dll" PATH="/DLLArchive/etc/unicorn.dll" DATE="Fri Jul 03 13:24:50 PDT 2020" VERSION="">
    <EXPORT ORDINAL="1" NAME="??0AboutDialog@@QAE@PAVQWidget@@@Z" PURGE="4" COMMENT="" />
    <EXPORT ORDINAL="2" NAME="??0ActionButton@@QAE@PAVQWidget@@@Z" PURGE="4" COMMENT="" />
    <EXPORT ORDINAL="3" NAME="??0AnimatedListLayout@@QAE@HPAVQWidget@@@Z" PURGE="8" COMMENT="" />
    <EXPORT ORDINAL="4" NAME="??0AnimatedStatusBar@@QAE@PAVQWidget@@@Z" PURGE="4" COMMENT="" />
    <EXPORT ORDINAL="5" NAME="??0AppSettings@unicorn@@QAE@VQString@@@Z" PURGE="4" COMMENT="" />
    <EXPORT ORDINAL="6" NAME="??0Application@unicorn@@QAE@ABVQString@@AAHPAPAD@Z" PURGE="12" COMMENT="" />
    <EXPORT ORDINAL="7" NAME="??0ArtistSearch@@QAE@PAVQWidget@@@Z" PURGE="4" COMMENT="" />
    <EXPORT ORDINAL="8" NAME="??0AvatarWidget@@QAE@PAVQWidget@@@Z" PURGE="4" COMMENT="" />
    <EXPORT ORDINAL="9" NAME="??0BannerWidget@@QAE@ABVQString@@PAVQWidget@@@Z" PURGE="8" COMMENT="" />
    <EXPORT ORDINAL="10" NAME="??0CloseAppsDialog@unicorn@@QAE@ABV?$QList@PAVIPluginInfo@unicorn@@@@PAVQWidget@@@Z" PURGE="8" COMMENT="" />
    <EXPORT ORDINAL="11" NAME="??0CloseAppsDialog@unicorn@@QAE@PAVQWidget@@@Z" PURGE="4" COMMENT="" />
    <EXPORT ORDINAL="12" NAME="??0CoreApplication@unicorn@@QAE@ABVQString@@AAHPAPAD@Z" PURGE="12" COMMENT="" />
    <EXPORT ORDINAL="13" NAME="??0DataBox@@QAE@ABVQString@@PAVQWidget@@1@Z" PURGE="12" COMMENT="" />
    <EXPORT ORDINAL="14" NAME="??0DataListWidget@@QAE@PAVQWidget@@@Z" PURGE="4" COMMENT="" />
    <EXPORT ORDINAL="15" NAME="??0DesktopServices@unicorn@@QAE@XZ" PURGE="0" COMMENT="" />
    <EXPORT ORDINAL="16" NAME="??0Dialog@unicorn@@QAE@PAVQWidget@@V?$QFlags@W4WindowType@Qt@@@@@Z" PURGE="8" COMMENT="" />
    <EXPORT ORDINAL="17" NAME="??0FlowLayout@@QAE@HHH@Z" PURGE="12" COMMENT="" />
    <EXPORT ORDINAL="18" NAME="??0FlowLayout@@QAE@PAVQWidget@@HHH@Z" PURGE="16" COMMENT="" />
    <EXPORT ORDINAL="19" NAME="??0FooBar08PluginInfo@unicorn@@QAE@PAVQObject@@@Z" PURGE="4" COMMENT="" />
    <EXPORT ORDINAL="20" NAME="??0FooBar09PluginInfo@unicorn@@QAE@PAVQObject@@@Z" PURGE="4" COMMENT="" />
    <EXPORT ORDINAL="21" NAME="??0FriendsPicker@@QAE@ABVUser@lastfm@@@Z" PURGE="4" COMMENT="" />
    <EXPORT ORDINAL="22" NAME="??0GhostWidget@@QAE@PAVQWidget@@@Z" PURGE="4" COMMENT="" />
    <EXPORT ORDINAL="23" NAME="??0HttpImageWidget@@QAE@PAVQWidget@@@Z" PURGE="4" COMMENT="" />
    <EXPORT ORDINAL="24" NAME="??0IPluginInfo@unicorn@@QAE@PAVQObject@@@Z" PURGE="4" COMMENT="" />
    <EXPORT ORDINAL="25" NAME="??0ITunesPluginInfo@unicorn@@QAE@PAVQObject@@@Z" PURGE="4" COMMENT="" />
    <EXPORT ORDINAL="26" NAME="??0ImageButton@@QAE@ABVQPixmap@@PAVQWidget@@@Z" PURGE="8" COMMENT="" />
    <EXPORT ORDINAL="27" NAME="??0ImageButton@@QAE@ABVQString@@PAVQWidget@@@Z" PURGE="8" COMMENT="" />
    <EXPORT ORDINAL="28" NAME="??0ItemSelectorWidget@@QAE@PAVQWidget@@@Z" PURGE="4" COMMENT="" />
    <EXPORT ORDINAL="29" NAME="??0Label@unicorn@@QAE@ABVQString@@PAVQWidget@@@Z" PURGE="8" COMMENT="" />
    <EXPORT ORDINAL="30" NAME="??0Label@unicorn@@QAE@PAVQWidget@@@Z" PURGE="4" COMMENT="" />
    <EXPORT ORDINAL="31" NAME="??0LfmDelegate@@QAE@PAVQAbstractItemView@@@Z" PURGE="4" COMMENT="" />
    <EXPORT ORDINAL="32" NAME="??0LfmListModel@@QAE@PAVQObject@@@Z" PURGE="4" COMMENT="" />
    <EXPORT ORDINAL="33" NAME="??0LfmListView@@QAE@PAVQWidget@@@Z" PURGE="4" COMMENT="" />
    <EXPORT ORDINAL="34" NAME="??0LoginContinueDialog@@QAE@PAVQWidget@@@Z" PURGE="4" COMMENT="" />
    <EXPORT ORDINAL="35" NAME="??0LoginDialog@@QAE@PAVQWidget@@@Z" PURGE="4" COMMENT="" />
    <EXPORT ORDINAL="36" NAME="??0LoginProcess@unicorn@@QAE@PAVQObject@@@Z" PURGE="4" COMMENT="" />
    <EXPORT ORDINAL="37" NAME="??0MainWindow@unicorn@@QAE@PAVQMenuBar@@PAVQWidget@@@Z" PURGE="8" COMMENT="" />
    <EXPORT ORDINAL="38" NAME="??0MessageBar@@QAE@PAVQWidget@@@Z" PURGE="4" COMMENT="" />
    <EXPORT ORDINAL="39" NAME="??0MessageDialog@unicorn@@QAE@PAVQWidget@@@Z" PURGE="4" COMMENT="" />
    <EXPORT ORDINAL="40" NAME="??0OldeAppSettings@unicorn@@QAE@XZ" PURGE="0" COMMENT="" />
    <EXPORT ORDINAL="41" NAME="??0Plugin@@QAE@ABV0@@Z" PURGE="4" COMMENT="" />
    <EXPORT ORDINAL="42" NAME="??0Plugin@@QAE@ABVXmlQuery@lastfm@@@Z" PURGE="4" COMMENT="" />
    <EXPORT ORDINAL="43" NAME="??0Plugin@@QAE@XZ" PURGE="0" COMMENT="" />
    <EXPORT ORDINAL="44" NAME="??0PluginList@unicorn@@QAE@PAVQObject@@@Z" PURGE="4" COMMENT="" />
    <EXPORT ORDINAL="45" NAME="??0ProxyDialog@unicorn@@QAE@PAVQWidget@@@Z" PURGE="4" COMMENT="" />
    <EXPORT ORDINAL="46" NAME="??0ProxyWidget@unicorn@@QAE@PAVQWidget@@@Z" PURGE="4" COMMENT="" />
    <EXPORT ORDINAL="47" NAME="??0QMessageBoxBuilder@@QAE@PAVQWidget@@@Z" PURGE="4" COMMENT="" />
    <EXPORT ORDINAL="48" NAME="??0QtSingleApplication@@QAE@AAHPAPADW4Type@QApplication@@@Z" PURGE="12" COMMENT="" />
    <EXPORT ORDINAL="49" NAME="??0QtSingleApplication@@QAE@AAHPAPAD_N@Z" PURGE="12" COMMENT="" />
    <EXPORT ORDINAL="50" NAME="??0QtSingleApplication@@QAE@ABVQString@@AAHPAPAD@Z" PURGE="12" COMMENT="" />
    <EXPORT ORDINAL="51" NAME="??0QtSingleCoreApplication@@QAE@AAHPAPAD@Z" PURGE="8" COMMENT="" />
    <EXPORT ORDINAL="52" NAME="??0QtSingleCoreApplication@@QAE@ABVQString@@AAHPAPAD@Z" PURGE="12" COMMENT="" />
    <EXPORT ORDINAL="53" NAME="??0ScrobbleConfirmationDialog@@QAE@ABV?$QList@VTrack@lastfm@@@@PAVQWidget@@@Z" PURGE="8" COMMENT="" />
    <EXPORT ORDINAL="54" NAME="??0ScrobblesModel@@QAE@PAVQObject@@@Z" PURGE="4" COMMENT="" />
    <EXPORT ORDINAL="55" NAME="??0SearchBox@@QAE@PAVQWidget@@@Z" PURGE="4" COMMENT="" />
    <EXPORT ORDINAL="56" NAME="??0Session@unicorn@@QAE@AAVQDataStream@@@Z" PURGE="4" COMMENT="" />
    <EXPORT ORDINAL="57" NAME="??0Session@unicorn@@QAE@ABVQString@@V2@@Z" PURGE="8" COMMENT="" />
    <EXPORT ORDINAL="58" NAME="??0Session@unicorn@@QAE@XZ" PURGE="0" COMMENT="" />
    <EXPORT ORDINAL="59" NAME="??0Settings@unicorn@@QAE@XZ" PURGE="0" COMMENT="" />
    <EXPORT ORDINAL="60" NAME="??0ShareDialog@@QAE@ABVTrack@lastfm@@PAVQWidget@@@Z" PURGE="8" COMMENT="" />
    <EXPORT ORDINAL="61" NAME="??0SideBySideLayout@@QAE@PAVQWidget@@@Z" PURGE="4" COMMENT="" />
    <EXPORT ORDINAL="62" NAME="??0SignalBlocker@@QAE@PAVQObject@@PBDH@Z" PURGE="12" COMMENT="" />
    <EXPORT ORDINAL="63" NAME="??0SlideOverLayout@@QAE@PAVQWidget@@@Z" PURGE="4" COMMENT="" />
    <EXPORT ORDINAL="64" NAME="??0SlidingStackedWidget@unicorn@@QAE@PAVQWidget@@@Z" PURGE="4" COMMENT="" />
    <EXPORT ORDINAL="65" NAME="??0StackedWidget@unicorn@@QAE@PAVQWidget@@@Z" PURGE="4" COMMENT="" />
    <EXPORT ORDINAL="66" NAME="??0StatusLight@@QAE@PAVQWidget@@@Z" PURGE="4" COMMENT="" />
    <EXPORT ORDINAL="67" NAME="??0TagDialog@@QAE@ABVTrack@lastfm@@PAVQWidget@@@Z" PURGE="8" COMMENT="" />
    <EXPORT ORDINAL="68" NAME="??0TagSearch@@QAE@PAVQWidget@@@Z" PURGE="4" COMMENT="" />
    <EXPORT ORDINAL="69" NAME="??0TrackImageFetcher@@QAE@ABVTrack@lastfm@@W4ImageSize@AbstractType@2@@Z" PURGE="8" COMMENT="" />
    <EXPORT ORDINAL="70" NAME="??0TrackWidget@@QAE@ABVTrack@lastfm@@@Z" PURGE="4" COMMENT="" />
    <EXPORT ORDINAL="71" NAME="??0UpdateInfoFetcher@@QAE@PAVQNetworkReply@@PAVQObject@@@Z" PURGE="8" COMMENT="" />
    <EXPORT ORDINAL="72" NAME="??0Updater@unicorn@@QAE@PAVQWidget@@@Z" PURGE="4" COMMENT="" />
    <EXPORT ORDINAL="73" NAME="??0UserComboSelector@@QAE@PAVQWidget@@@Z" PURGE="4" COMMENT="" />
    <EXPORT ORDINAL="74" NAME="??0UserManagerDialog@@QAE@PAVQWidget@@@Z" PURGE="4" COMMENT="" />
    <EXPORT ORDINAL="75" NAME="??0UserManagerWidget@@QAE@PAVQWidget@@@Z" PURGE="4" COMMENT="" />
    <EXPORT ORDINAL="76" NAME="??0UserMenu@@QAE@PAVQWidget@@@Z" PURGE="4" COMMENT="" />
    <EXPORT ORDINAL="77" NAME="??0UserRadioButton@@QAE@ABVUser@lastfm@@@Z" PURGE="4" COMMENT="" />
    <EXPORT ORDINAL="78" NAME="??0UserSearch@@QAE@PAVQWidget@@@Z" PURGE="4" COMMENT="" />
    <EXPORT ORDINAL="79" NAME="??0UserSettings@unicorn@@QAE@VQString@@@Z" PURGE="4" COMMENT="" />
    <EXPORT ORDINAL="80" NAME="??0UserToolButton@@QAE@XZ" PURGE="0" COMMENT="" />
    <EXPORT ORDINAL="81" NAME="??0Version@unicorn@@QAE@IIII@Z" PURGE="16" COMMENT="" />
    <EXPORT ORDINAL="82" NAME="??0Version@unicorn@@QAE@XZ" PURGE="0" COMMENT="" />
    <EXPORT ORDINAL="83" NAME="??0WinampPluginInfo@unicorn@@QAE@PAVQObject@@@Z" PURGE="4" COMMENT="" />
    <EXPORT ORDINAL="84" NAME="??0WmpPluginInfo@unicorn@@QAE@PAVQObject@@@Z" PURGE="4" COMMENT="" />
    <EXPORT ORDINAL="85" NAME="??1AboutDialog@@UAE@XZ" PURGE="-1" COMMENT="" />
    <EXPORT ORDINAL="86" NAME="??1ActionButton@@UAE@XZ" PURGE="-1" COMMENT="" />
    <EXPORT ORDINAL="87" NAME="??1AnimatedListLayout@@UAE@XZ" PURGE="0" COMMENT="" />
    <EXPORT ORDINAL="88" NAME="??1AnimatedStatusBar@@UAE@XZ" PURGE="-1" COMMENT="" />
    <EXPORT ORDINAL="89" NAME="??1AppSettings@unicorn@@UAE@XZ" PURGE="-1" COMMENT="" />
    <EXPORT ORDINAL="90" NAME="??1Application@unicorn@@UAE@XZ" PURGE="0" COMMENT="" />
    <EXPORT ORDINAL="91" NAME="??1ArtistSearch@@UAE@XZ" PURGE="-1" COMMENT="" />
    <EXPORT ORDINAL="92" NAME="??1AvatarWidget@@UAE@XZ" PURGE="0" COMMENT="" />
    <EXPORT ORDINAL="93" NAME="??1BannerWidget@@UAE@XZ" PURGE="0" COMMENT="" />
    <EXPORT ORDINAL="94" NAME="??1CloseAppsDialog@unicorn@@UAE@XZ" PURGE="0" COMMENT="" />
    <EXPORT ORDINAL="95" NAME="??1CoreApplication@unicorn@@UAE@XZ" PURGE="-1" COMMENT="" />
    <EXPORT ORDINAL="96" NAME="??1DataBox@@UAE@XZ" PURGE="-1" COMMENT="" />
    <EXPORT ORDINAL="97" NAME="??1DataListWidget@@UAE@XZ" PURGE="-1" COMMENT="" />
    <EXPORT ORDINAL="98" NAME="??1Dialog@unicorn@@UAE@XZ" PURGE="-1" COMMENT="" />
    <EXPORT ORDINAL="99" NAME="??1FlowLayout@@UAE@XZ" PURGE="0" COMMENT="" />
    <EXPORT ORDINAL="100" NAME="??1FooBar08PluginInfo@unicorn@@UAE@XZ" PURGE="-1" COMMENT="" />
    <EXPORT ORDINAL="101" NAME="??1FooBar09PluginInfo@unicorn@@UAE@XZ" PURGE="-1" COMMENT="" />
    <EXPORT ORDINAL="102" NAME="??1FriendsPicker@@UAE@XZ" PURGE="-1" COMMENT="" />
    <EXPORT ORDINAL="103" NAME="??1GhostWidget@@UAE@XZ" PURGE="-1" COMMENT="" />
    <EXPORT ORDINAL="104" NAME="??1HttpImageWidget@@UAE@XZ" PURGE="0" COMMENT="" />
    <EXPORT ORDINAL="105" NAME="??1IPluginInfo@unicorn@@UAE@XZ" PURGE="-1" COMMENT="" />
    <EXPORT ORDINAL="106" NAME="??1ITunesPluginInfo@unicorn@@UAE@XZ" PURGE="-1" COMMENT="" />
    <EXPORT ORDINAL="107" NAME="??1ImageButton@@UAE@XZ" PURGE="0" COMMENT="" />
    <EXPORT ORDINAL="108" NAME="??1ItemSelectorWidget@@UAE@XZ" PURGE="0" COMMENT="" />
    <EXPORT ORDINAL="109" NAME="??1Label@unicorn@@UAE@XZ" PURGE="0" COMMENT="" />
    <EXPORT ORDINAL="110" NAME="??1LfmDelegate@@UAE@XZ" PURGE="0" COMMENT="" />
    <EXPORT ORDINAL="111" NAME="??1LfmListModel@@UAE@XZ" PURGE="0" COMMENT="" />
    <EXPORT ORDINAL="112" NAME="??1LfmListView@@UAE@XZ" PURGE="-1" COMMENT="" />
    <EXPORT ORDINAL="113" NAME="??1LoginContinueDialog@@UAE@XZ" PURGE="-1" COMMENT="" />
    <EXPORT ORDINAL="114" NAME="??1LoginDialog@@UAE@XZ" PURGE="-1" COMMENT="" />
    <EXPORT ORDINAL="115" NAME="??1LoginProcess@unicorn@@UAE@XZ" PURGE="0" COMMENT="" />
    <EXPORT ORDINAL="116" NAME="??1MainWindow@unicorn@@UAE@XZ" PURGE="0" COMMENT="" />
    <EXPORT ORDINAL="117" NAME="??1MessageBar@@UAE@XZ" PURGE="0" COMMENT="" />
    <EXPORT ORDINAL="118" NAME="??1MessageDialog@unicorn@@UAE@XZ" PURGE="-1" COMMENT="" />
    <EXPORT ORDINAL="119" NAME="??1OldeAppSettings@unicorn@@UAE@XZ" PURGE="-1" COMMENT="" />
    <EXPORT ORDINAL="120" NAME="??1Plugin@@QAE@XZ" PURGE="0" COMMENT="" />
    <EXPORT ORDINAL="121" NAME="??1PluginList@unicorn@@UAE@XZ" PURGE="0" COMMENT="" />
    <EXPORT ORDINAL="122" NAME="??1ProxyDialog@unicorn@@UAE@XZ" PURGE="-1" COMMENT="" />
    <EXPORT ORDINAL="123" NAME="??1ProxyWidget@unicorn@@UAE@XZ" PURGE="-1" COMMENT="" />
    <EXPORT ORDINAL="124" NAME="??1QMessageBoxBuilder@@QAE@XZ" PURGE="-1" COMMENT="" />
    <EXPORT ORDINAL="125" NAME="??1QtSingleApplication@@UAE@XZ" PURGE="-1" COMMENT="" />
    <EXPORT ORDINAL="126" NAME="??1QtSingleCoreApplication@@UAE@XZ" PURGE="-1" COMMENT="" />
    <EXPORT ORDINAL="127" NAME="??1ScrobbleConfirmationDialog@@UAE@XZ" PURGE="0" COMMENT="" />
    <EXPORT ORDINAL="128" NAME="??1ScrobblesModel@@UAE@XZ" PURGE="0" COMMENT="" />
    <EXPORT ORDINAL="129" NAME="??1SearchBox@@UAE@XZ" PURGE="-1" COMMENT="" />
    <EXPORT ORDINAL="130" NAME="??1Session@unicorn@@UAE@XZ" PURGE="0" COMMENT="" />
    <EXPORT ORDINAL="131" NAME="??1Settings@unicorn@@UAE@XZ" PURGE="-1" COMMENT="" />
    <EXPORT ORDINAL="132" NAME="??1ShareDialog@@UAE@XZ" PURGE="0" COMMENT="" />
    <EXPORT ORDINAL="133" NAME="??1SideBySideLayout@@UAE@XZ" PURGE="0" COMMENT="" />
    <EXPORT ORDINAL="134" NAME="??1SignalBlocker@@UAE@XZ" PURGE="0" COMMENT="" />
    <EXPORT ORDINAL="135" NAME="??1SlideOverLayout@@UAE@XZ" PURGE="0" COMMENT="" />
    <EXPORT ORDINAL="136" NAME="??1SlidingStackedWidget@unicorn@@UAE@XZ" PURGE="-1" COMMENT="" />
    <EXPORT ORDINAL="137" NAME="??1StackedWidget@unicorn@@UAE@XZ" PURGE="-1" COMMENT="" />
    <EXPORT ORDINAL="138" NAME="??1StatusLight@@UAE@XZ" PURGE="-1" COMMENT="" />
    <EXPORT ORDINAL="139" NAME="??1TagDialog@@UAE@XZ" PURGE="0" COMMENT="" />
    <EXPORT ORDINAL="140" NAME="??1TagSearch@@UAE@XZ" PURGE="-1" COMMENT="" />
    <EXPORT ORDINAL="141" NAME="??1TrackImageFetcher@@UAE@XZ" PURGE="0" COMMENT="" />
    <EXPORT ORDINAL="142" NAME="??1TrackWidget@@UAE@XZ" PURGE="0" COMMENT="" />
    <EXPORT ORDINAL="143" NAME="??1UpdateInfoFetcher@@UAE@XZ" PURGE="0" COMMENT="" />
    <EXPORT ORDINAL="144" NAME="??1Updater@unicorn@@UAE@XZ" PURGE="0" COMMENT="" />
    <EXPORT ORDINAL="145" NAME="??1UserComboSelector@@UAE@XZ" PURGE="-1" COMMENT="" />
    <EXPORT ORDINAL="146" NAME="??1UserManagerDialog@@UAE@XZ" PURGE="-1" COMMENT="" />
    <EXPORT ORDINAL="147" NAME="??1UserManagerWidget@@UAE@XZ" PURGE="0" COMMENT="" />
    <EXPORT ORDINAL="148" NAME="??1UserMenu@@UAE@XZ" PURGE="0" COMMENT="" />
    <EXPORT ORDINAL="149" NAME="??1UserRadioButton@@UAE@XZ" PURGE="-1" COMMENT="" />
    <EXPORT ORDINAL="150" NAME="??1UserSearch@@UAE@XZ" PURGE="0" COMMENT="" />
    <EXPORT ORDINAL="151" NAME="??1UserSettings@unicorn@@UAE@XZ" PURGE="-1" COMMENT="" />
    <EXPORT ORDINAL="152" NAME="??1UserToolButton@@UAE@XZ" PURGE="-1" COMMENT="" />
    <EXPORT ORDINAL="153" NAME="??1WinampPluginInfo@unicorn@@UAE@XZ" PURGE="-1" COMMENT="" />
    <EXPORT ORDINAL="154" NAME="??1WmpPluginInfo@unicorn@@UAE@XZ" PURGE="-1" COMMENT="" />
    <EXPORT ORDINAL="155" NAME="??4DesktopServices@unicorn@@QAEAAV01@ABV01@@Z" PURGE="4" COMMENT="" />
    <EXPORT ORDINAL="156" NAME="??4Plugin@@QAEAAV0@ABV0@@Z" PURGE="4" COMMENT="" />
    <EXPORT ORDINAL="157" NAME="??4QtWin@@QAEAAV0@ABV0@@Z" PURGE="4" COMMENT="" />
    <EXPORT ORDINAL="158" NAME="??4Version@unicorn@@QAEAAV01@ABV01@@Z" PURGE="4" COMMENT="" />
    <EXPORT ORDINAL="159" NAME="??8Version@unicorn@@QBE_NABV01@@Z" PURGE="4" COMMENT="" />
    <EXPORT ORDINAL="160" NAME="??9Version@unicorn@@QBE_NABV01@@Z" PURGE="4" COMMENT="" />
    <EXPORT ORDINAL="161" NAME="??MVersion@unicorn@@QBE_NABV01@@Z" PURGE="4" COMMENT="" />
    <EXPORT ORDINAL="162" NAME="??OVersion@unicorn@@QBE_NABV01@@Z" PURGE="4" COMMENT="" />
    <EXPORT ORDINAL="163" NAME="??_7AboutDialog@@6BQObject@@@" PURGE="-1" COMMENT="" />
    <EXPORT ORDINAL="164" NAME="??_7AboutDialog@@6BQPaintDevice@@@" PURGE="-1" COMMENT="" />
    <EXPORT ORDINAL="165" NAME="??_7ActionButton@@6BQObject@@@" PURGE="-1" COMMENT="" />
    <EXPORT ORDINAL="166" NAME="??_7ActionButton@@6BQPaintDevice@@@" PURGE="-1" COMMENT="" />
    <EXPORT ORDINAL="167" NAME="??_7AnimatedListLayout@@6BQLayoutItem@@@" PURGE="-1" COMMENT="" />
    <EXPORT ORDINAL="168" NAME="??_7AnimatedListLayout@@6BQObject@@@" PURGE="-1" COMMENT="" />
    <EXPORT ORDINAL="169" NAME="??_7AnimatedStatusBar@@6BQObject@@@" PURGE="-1" COMMENT="" />
    <EXPORT ORDINAL="170" NAME="??_7AnimatedStatusBar@@6BQPaintDevice@@@" PURGE="-1" COMMENT="" />
    <EXPORT ORDINAL="171" NAME="??_7AppSettings@unicorn@@6B@" PURGE="-1" COMMENT="" />
    <EXPORT ORDINAL="172" NAME="??_7Application@unicorn@@6B@" PURGE="-1" COMMENT="" />
    <EXPORT ORDINAL="173" NAME="??_7ArtistSearch@@6BQObject@@@" PURGE="-1" COMMENT="" />
    <EXPORT ORDINAL="174" NAME="??_7ArtistSearch@@6BQPaintDevice@@@" PURGE="-1" COMMENT="" />
    <EXPORT ORDINAL="175" NAME="??_7AvatarWidget@@6BQObject@@@" PURGE="-1" COMMENT="" />
    <EXPORT ORDINAL="176" NAME="??_7AvatarWidget@@6BQPaintDevice@@@" PURGE="-1" COMMENT="" />
    <EXPORT ORDINAL="177" NAME="??_7BannerWidget@@6BQObject@@@" PURGE="-1" COMMENT="" />
    <EXPORT ORDINAL="178" NAME="??_7BannerWidget@@6BQPaintDevice@@@" PURGE="-1" COMMENT="" />
    <EXPORT ORDINAL="179" NAME="??_7CloseAppsDialog@unicorn@@6BQObject@@@" PURGE="-1" COMMENT="" />
    <EXPORT ORDINAL="180" NAME="??_7CloseAppsDialog@unicorn@@6BQPaintDevice@@@" PURGE="-1" COMMENT="" />
    <EXPORT ORDINAL="181" NAME="??_7CoreApplication@unicorn@@6B@" PURGE="-1" COMMENT="" />
    <EXPORT ORDINAL="182" NAME="??_7DataBox@@6BQObject@@@" PURGE="-1" COMMENT="" />
    <EXPORT ORDINAL="183" NAME="??_7DataBox@@6BQPaintDevice@@@" PURGE="-1" COMMENT="" />
    <EXPORT ORDINAL="184" NAME="??_7DataListWidget@@6BQObject@@@" PURGE="-1" COMMENT="" />
    <EXPORT ORDINAL="185" NAME="??_7DataListWidget@@6BQPaintDevice@@@" PURGE="-1" COMMENT="" />
    <EXPORT ORDINAL="186" NAME="??_7Dialog@unicorn@@6BQObject@@@" PURGE="-1" COMMENT="" />
    <EXPORT ORDINAL="187" NAME="??_7Dialog@unicorn@@6BQPaintDevice@@@" PURGE="-1" COMMENT="" />
    <EXPORT ORDINAL="188" NAME="??_7FlowLayout@@6BQLayoutItem@@@" PURGE="-1" COMMENT="" />
    <EXPORT ORDINAL="189" NAME="??_7FlowLayout@@6BQObject@@@" PURGE="-1" COMMENT="" />
    <EXPORT ORDINAL="190" NAME="??_7FooBar08PluginInfo@unicorn@@6B@" PURGE="-1" COMMENT="" />
    <EXPORT ORDINAL="191" NAME="??_7FooBar09PluginInfo@unicorn@@6B@" PURGE="-1" COMMENT="" />
    <EXPORT ORDINAL="192" NAME="??_7FriendsPicker@@6BQObject@@@" PURGE="-1" COMMENT="" />
    <EXPORT ORDINAL="193" NAME="??_7FriendsPicker@@6BQPaintDevice@@@" PURGE="-1" COMMENT="" />
    <EXPORT ORDINAL="194" NAME="??_7GhostWidget@@6BQObject@@@" PURGE="-1" COMMENT="" />
    <EXPORT ORDINAL="195" NAME="??_7GhostWidget@@6BQPaintDevice@@@" PURGE="-1" COMMENT="" />
    <EXPORT ORDINAL="196" NAME="??_7HttpImageWidget@@6BQObject@@@" PURGE="-1" COMMENT="" />
    <EXPORT ORDINAL="197" NAME="??_7HttpImageWidget@@6BQPaintDevice@@@" PURGE="-1" COMMENT="" />
    <EXPORT ORDINAL="198" NAME="??_7IPluginInfo@unicorn@@6B@" PURGE="-1" COMMENT="" />
    <EXPORT ORDINAL="199" NAME="??_7ITunesPluginInfo@unicorn@@6B@" PURGE="-1" COMMENT="" />
    <EXPORT ORDINAL="200" NAME="??_7ImageButton@@6BQObject@@@" PURGE="-1" COMMENT="" />
    <EXPORT ORDINAL="201" NAME="??_7ImageButton@@6BQPaintDevice@@@" PURGE="-1" COMMENT="" />
    <EXPORT ORDINAL="202" NAME="??_7ItemSelectorWidget@@6BQObject@@@" PURGE="-1" COMMENT="" />
    <EXPORT ORDINAL="203" NAME="??_7ItemSelectorWidget@@6BQPaintDevice@@@" PURGE="-1" COMMENT="" />
    <EXPORT ORDINAL="204" NAME="??_7Label@unicorn@@6BQObject@@@" PURGE="-1" COMMENT="" />
    <EXPORT ORDINAL="205" NAME="??_7Label@unicorn@@6BQPaintDevice@@@" PURGE="-1" COMMENT="" />
    <EXPORT ORDINAL="206" NAME="??_7LfmDelegate@@6B@" PURGE="-1" COMMENT="" />
    <EXPORT ORDINAL="207" NAME="??_7LfmListModel@@6B@" PURGE="-1" COMMENT="" />
    <EXPORT ORDINAL="208" NAME="??_7LfmListView@@6BQObject@@@" PURGE="-1" COMMENT="" />
    <EXPORT ORDINAL="209" NAME="??_7LfmListView@@6BQPaintDevice@@@" PURGE="-1" COMMENT="" />
    <EXPORT ORDINAL="210" NAME="??_7LoginContinueDialog@@6BQObject@@@" PURGE="-1" COMMENT="" />
    <EXPORT ORDINAL="211" NAME="??_7LoginContinueDialog@@6BQPaintDevice@@@" PURGE="-1" COMMENT="" />
    <EXPORT ORDINAL="212" NAME="??_7LoginDialog@@6BQObject@@@" PURGE="-1" COMMENT="" />
    <EXPORT ORDINAL="213" NAME="??_7LoginDialog@@6BQPaintDevice@@@" PURGE="-1" COMMENT="" />
    <EXPORT ORDINAL="214" NAME="??_7LoginProcess@unicorn@@6B@" PURGE="-1" COMMENT="" />
    <EXPORT ORDINAL="215" NAME="??_7MainWindow@unicorn@@6BQObject@@@" PURGE="-1" COMMENT="" />
    <EXPORT ORDINAL="216" NAME="??_7MainWindow@unicorn@@6BQPaintDevice@@@" PURGE="-1" COMMENT="" />
    <EXPORT ORDINAL="217" NAME="??_7MessageBar@@6BQObject@@@" PURGE="-1" COMMENT="" />
    <EXPORT ORDINAL="218" NAME="??_7MessageBar@@6BQPaintDevice@@@" PURGE="-1" COMMENT="" />
    <EXPORT ORDINAL="219" NAME="??_7MessageDialog@unicorn@@6BQObject@@@" PURGE="-1" COMMENT="" />
    <EXPORT ORDINAL="220" NAME="??_7MessageDialog@unicorn@@6BQPaintDevice@@@" PURGE="-1" COMMENT="" />
    <EXPORT ORDINAL="221" NAME="??_7OldeAppSettings@unicorn@@6B@" PURGE="-1" COMMENT="" />
    <EXPORT ORDINAL="222" NAME="??_7PluginList@unicorn@@6B@" PURGE="-1" COMMENT="" />
    <EXPORT ORDINAL="223" NAME="??_7ProxyDialog@unicorn@@6BQObject@@@" PURGE="-1" COMMENT="" />
    <EXPORT ORDINAL="224" NAME="??_7ProxyDialog@unicorn@@6BQPaintDevice@@@" PURGE="-1" COMMENT="" />
    <EXPORT ORDINAL="225" NAME="??_7ProxyWidget@unicorn@@6BQObject@@@" PURGE="-1" COMMENT="" />
    <EXPORT ORDINAL="226" NAME="??_7ProxyWidget@unicorn@@6BQPaintDevice@@@" PURGE="-1" COMMENT="" />
    <EXPORT ORDINAL="227" NAME="??_7QtSingleApplication@@6B@" PURGE="-1" COMMENT="" />
    <EXPORT ORDINAL="228" NAME="??_7QtSingleCoreApplication@@6B@" PURGE="-1" COMMENT="" />
    <EXPORT ORDINAL="229" NAME="??_7ScrobbleConfirmationDialog@@6BQObject@@@" PURGE="-1" COMMENT="" />
    <EXPORT ORDINAL="230" NAME="??_7ScrobbleConfirmationDialog@@6BQPaintDevice@@@" PURGE="-1" COMMENT="" />
    <EXPORT ORDINAL="231" NAME="??_7ScrobblesModel@@6B@" PURGE="-1" COMMENT="" />
    <EXPORT ORDINAL="232" NAME="??_7SearchBox@@6BQObject@@@" PURGE="-1" COMMENT="" />
    <EXPORT ORDINAL="233" NAME="??_7SearchBox@@6BQPaintDevice@@@" PURGE="-1" COMMENT="" />
    <EXPORT ORDINAL="234" NAME="??_7Session@unicorn@@6B@" PURGE="-1" COMMENT="" />
    <EXPORT ORDINAL="235" NAME="??_7Settings@unicorn@@6B@" PURGE="-1" COMMENT="" />
    <EXPORT ORDINAL="236" NAME="??_7ShareDialog@@6BQObject@@@" PURGE="-1" COMMENT="" />
    <EXPORT ORDINAL="237" NAME="??_7ShareDialog@@6BQPaintDevice@@@" PURGE="-1" COMMENT="" />
    <EXPORT ORDINAL="238" NAME="??_7SideBySideLayout@@6BQLayoutItem@@@" PURGE="-1" COMMENT="" />
    <EXPORT ORDINAL="239" NAME="??_7SideBySideLayout@@6BQObject@@@" PURGE="-1" COMMENT="" />
    <EXPORT ORDINAL="240" NAME="??_7SignalBlocker@@6B@" PURGE="-1" COMMENT="" />
    <EXPORT ORDINAL="241" NAME="??_7SlideOverLayout@@6BQLayoutItem@@@" PURGE="-1" COMMENT="" />
    <EXPORT ORDINAL="242" NAME="??_7SlideOverLayout@@6BQObject@@@" PURGE="-1" COMMENT="" />
    <EXPORT ORDINAL="243" NAME="??_7SlidingStackedWidget@unicorn@@6BQObject@@@" PURGE="-1" COMMENT="" />
    <EXPORT ORDINAL="244" NAME="??_7SlidingStackedWidget@unicorn@@6BQPaintDevice@@@" PURGE="-1" COMMENT="" />
    <EXPORT ORDINAL="245" NAME="??_7StackedWidget@unicorn@@6BQObject@@@" PURGE="-1" COMMENT="" />
    <EXPORT ORDINAL="246" NAME="??_7StackedWidget@unicorn@@6BQPaintDevice@@@" PURGE="-1" COMMENT="" />
    <EXPORT ORDINAL="247" NAME="??_7StatusLight@@6BQObject@@@" PURGE="-1" COMMENT="" />
    <EXPORT ORDINAL="248" NAME="??_7StatusLight@@6BQPaintDevice@@@" PURGE="-1" COMMENT="" />
    <EXPORT ORDINAL="249" NAME="??_7TagDialog@@6BQObject@@@" PURGE="-1" COMMENT="" />
    <EXPORT ORDINAL="250" NAME="??_7TagDialog@@6BQPaintDevice@@@" PURGE="-1" COMMENT="" />
    <EXPORT ORDINAL="251" NAME="??_7TagSearch@@6BQObject@@@" PURGE="-1" COMMENT="" />
    <EXPORT ORDINAL="252" NAME="??_7TagSearch@@6BQPaintDevice@@@" PURGE="-1" COMMENT="" />
    <EXPORT ORDINAL="253" NAME="??_7TrackImageFetcher@@6B@" PURGE="-1" COMMENT="" />
    <EXPORT ORDINAL="254" NAME="??_7TrackWidget@@6BQObject@@@" PURGE="-1" COMMENT="" />
    <EXPORT ORDINAL="255" NAME="??_7TrackWidget@@6BQPaintDevice@@@" PURGE="-1" COMMENT="" />
    <EXPORT ORDINAL="256" NAME="??_7UpdateInfoFetcher@@6B@" PURGE="-1" COMMENT="" />
    <EXPORT ORDINAL="257" NAME="??_7Updater@unicorn@@6B@" PURGE="-1" COMMENT="" />
    <EXPORT ORDINAL="258" NAME="??_7UserComboSelector@@6BQObject@@@" PURGE="-1" COMMENT="" />
    <EXPORT ORDINAL="259" NAME="??_7UserComboSelector@@6BQPaintDevice@@@" PURGE="-1" COMMENT="" />
    <EXPORT ORDINAL="260" NAME="??_7UserManagerDialog@@6BQObject@@@" PURGE="-1" COMMENT="" />
    <EXPORT ORDINAL="261" NAME="??_7UserManagerDialog@@6BQPaintDevice@@@" PURGE="-1" COMMENT="" />
    <EXPORT ORDINAL="262" NAME="??_7UserManagerWidget@@6BQObject@@@" PURGE="-1" COMMENT="" />
    <EXPORT ORDINAL="263" NAME="??_7UserManagerWidget@@6BQPaintDevice@@@" PURGE="-1" COMMENT="" />
    <EXPORT ORDINAL="264" NAME="??_7UserMenu@@6BQObject@@@" PURGE="-1" COMMENT="" />
    <EXPORT ORDINAL="265" NAME="??_7UserMenu@@6BQPaintDevice@@@" PURGE="-1" COMMENT="" />
    <EXPORT ORDINAL="266" NAME="??_7UserRadioButton@@6BQLayoutItem@@@" PURGE="-1" COMMENT="" />
    <EXPORT ORDINAL="267" NAME="??_7UserRadioButton@@6BQObject@@@" PURGE="-1" COMMENT="" />
    <EXPORT ORDINAL="268" NAME="??_7UserSearch@@6BQObject@@@" PURGE="-1" COMMENT="" />
    <EXPORT ORDINAL="269" NAME="??_7UserSearch@@6BQPaintDevice@@@" PURGE="-1" COMMENT="" />
    <EXPORT ORDINAL="270" NAME="??_7UserSettings@unicorn@@6B@" PURGE="-1" COMMENT="" />
    <EXPORT ORDINAL="271" NAME="??_7UserToolButton@@6BQObject@@@" PURGE="-1" COMMENT="" />
    <EXPORT ORDINAL="272" NAME="??_7UserToolButton@@6BQPaintDevice@@@" PURGE="-1" COMMENT="" />
    <EXPORT ORDINAL="273" NAME="??_7WinampPluginInfo@unicorn@@6B@" PURGE="-1" COMMENT="" />
    <EXPORT ORDINAL="274" NAME="??_7WmpPluginInfo@unicorn@@6B@" PURGE="-1" COMMENT="" />
    <EXPORT ORDINAL="275" NAME="??_FActionButton@@QAEXXZ" PURGE="0" COMMENT="" />
    <EXPORT ORDINAL="276" NAME="??_FAnimatedStatusBar@@QAEXXZ" PURGE="0" COMMENT="" />
    <EXPORT ORDINAL="277" NAME="??_FAppSettings@unicorn@@QAEXXZ" PURGE="0" COMMENT="" />
    <EXPORT ORDINAL="278" NAME="??_FArtistSearch@@QAEXXZ" PURGE="0" COMMENT="" />
    <EXPORT ORDINAL="279" NAME="??_FAvatarWidget@@QAEXXZ" PURGE="0" COMMENT="" />
    <EXPORT ORDINAL="280" NAME="??_FCloseAppsDialog@unicorn@@QAEXXZ" PURGE="0" COMMENT="" />
    <EXPORT ORDINAL="281" NAME="??_FDataListWidget@@QAEXXZ" PURGE="0" COMMENT="" />
    <EXPORT ORDINAL="282" NAME="??_FDialog@unicorn@@QAEXXZ" PURGE="0" COMMENT="" />
    <EXPORT ORDINAL="283" NAME="??_FFlowLayout@@QAEXXZ" PURGE="0" COMMENT="" />
    <EXPORT ORDINAL="284" NAME="??_FFooBar08PluginInfo@unicorn@@QAEXXZ" PURGE="0" COMMENT="" />
    <EXPORT ORDINAL="285" NAME="??_FFooBar09PluginInfo@unicorn@@QAEXXZ" PURGE="0" COMMENT="" />
    <EXPORT ORDINAL="286" NAME="??_FFriendsPicker@@QAEXXZ" PURGE="0" COMMENT="" />
    <EXPORT ORDINAL="287" NAME="??_FGhostWidget@@QAEXXZ" PURGE="0" COMMENT="" />
    <EXPORT ORDINAL="288" NAME="??_FHttpImageWidget@@QAEXXZ" PURGE="0" COMMENT="" />
    <EXPORT ORDINAL="289" NAME="??_FIPluginInfo@unicorn@@QAEXXZ" PURGE="0" COMMENT="" />
    <EXPORT ORDINAL="290" NAME="??_FITunesPluginInfo@unicorn@@QAEXXZ" PURGE="0" COMMENT="" />
    <EXPORT ORDINAL="291" NAME="??_FItemSelectorWidget@@QAEXXZ" PURGE="0" COMMENT="" />
    <EXPORT ORDINAL="292" NAME="??_FLabel@unicorn@@QAEXXZ" PURGE="0" COMMENT="" />
    <EXPORT ORDINAL="293" NAME="??_FLfmListModel@@QAEXXZ" PURGE="0" COMMENT="" />
    <EXPORT ORDINAL="294" NAME="??_FLfmListView@@QAEXXZ" PURGE="0" COMMENT="" />
    <EXPORT ORDINAL="295" NAME="??_FLoginContinueDialog@@QAEXXZ" PURGE="0" COMMENT="" />
    <EXPORT ORDINAL="296" NAME="??_FLoginDialog@@QAEXXZ" PURGE="0" COMMENT="" />
    <EXPORT ORDINAL="297" NAME="??_FLoginProcess@unicorn@@QAEXXZ" PURGE="0" COMMENT="" />
    <EXPORT ORDINAL="298" NAME="??_FPluginList@unicorn@@QAEXXZ" PURGE="0" COMMENT="" />
    <EXPORT ORDINAL="299" NAME="??_FProxyDialog@unicorn@@QAEXXZ" PURGE="0" COMMENT="" />
    <EXPORT ORDINAL="300" NAME="??_FProxyWidget@unicorn@@QAEXXZ" PURGE="0" COMMENT="" />
    <EXPORT ORDINAL="301" NAME="??_FScrobblesModel@@QAEXXZ" PURGE="0" COMMENT="" />
    <EXPORT ORDINAL="302" NAME="??_FSearchBox@@QAEXXZ" PURGE="0" COMMENT="" />
    <EXPORT ORDINAL="303" NAME="??_FSideBySideLayout@@QAEXXZ" PURGE="0" COMMENT="" />
    <EXPORT ORDINAL="304" NAME="??_FSlideOverLayout@@QAEXXZ" PURGE="0" COMMENT="" />
    <EXPORT ORDINAL="305" NAME="??_FStackedWidget@unicorn@@QAEXXZ" PURGE="0" COMMENT="" />
    <EXPORT ORDINAL="306" NAME="??_FStatusLight@@QAEXXZ" PURGE="0" COMMENT="" />
    <EXPORT ORDINAL="307" NAME="??_FTagSearch@@QAEXXZ" PURGE="0" COMMENT="" />
    <EXPORT ORDINAL="308" NAME="??_FUpdater@unicorn@@QAEXXZ" PURGE="0" COMMENT="" />
    <EXPORT ORDINAL="309" NAME="??_FUserComboSelector@@QAEXXZ" PURGE="0" COMMENT="" />
    <EXPORT ORDINAL="310" NAME="??_FUserManagerDialog@@QAEXXZ" PURGE="0" COMMENT="" />
    <EXPORT ORDINAL="311" NAME="??_FUserManagerWidget@@QAEXXZ" PURGE="0" COMMENT="" />
    <EXPORT ORDINAL="312" NAME="??_FUserMenu@@QAEXXZ" PURGE="0" COMMENT="" />
    <EXPORT ORDINAL="313" NAME="??_FUserSearch@@QAEXXZ" PURGE="0" COMMENT="" />
    <EXPORT ORDINAL="314" NAME="??_FUserSettings@unicorn@@QAEXXZ" PURGE="0" COMMENT="" />
    <EXPORT ORDINAL="315" NAME="??_FWinampPluginInfo@unicorn@@QAEXXZ" PURGE="0" COMMENT="" />
    <EXPORT ORDINAL="316" NAME="??_FWmpPluginInfo@unicorn@@QAEXXZ" PURGE="0" COMMENT="" />
    <EXPORT ORDINAL="317" NAME="?accept@ShareDialog@@EAEXXZ" PURGE="0" COMMENT="" />
    <EXPORT ORDINAL="318" NAME="?activateWindow@QtSingleApplication@@QAEXXZ" PURGE="0" COMMENT="" />
    <EXPORT ORDINAL="319" NAME="?activationWindow@QtSingleApplication@@QBEPAVQWidget@@XZ" PURGE="0" COMMENT="" />
    <EXPORT ORDINAL="320" NAME="?add@UserManagerWidget@@IAEXPAVUserRadioButton@@_N@Z" PURGE="8" COMMENT="" />
    <EXPORT ORDINAL="321" NAME="?addArtist@LfmListModel@@QAEXABVArtist@lastfm@@@Z" PURGE="4" COMMENT="" />
    <EXPORT ORDINAL="322" NAME="?addButton@MessageDialog@unicorn@@QAEXPAVQAbstractButton@@W4ButtonRole@QMessageBox@@@Z" PURGE="-1" COMMENT="" />
    <EXPORT ORDINAL="323" NAME="?addButton@QMessageBoxBuilder@@QAEAAV1@PAVQAbstractButton@@W4ButtonRole@QMessageBox@@@Z" PURGE="8" COMMENT="" />
    <EXPORT ORDINAL="324" NAME="?addDragHandleWidget@MainWindow@unicorn@@QAEXPAVQWidget@@@Z" PURGE="4" COMMENT="" />
    <EXPORT ORDINAL="325" NAME="?addFiles@ScrobbleConfirmationDialog@@QAEXABVQStringList@@@Z" PURGE="4" COMMENT="" />
    <EXPORT ORDINAL="326" NAME="?addItem@AnimatedListLayout@@EAEXPAVQLayoutItem@@@Z" PURGE="4" COMMENT="" />
    <EXPORT ORDINAL="327" NAME="?addItem@DataListWidget@@QAEXABVQString@@ABVQUrl@@@Z" PURGE="8" COMMENT="" />
    <EXPORT ORDINAL="328" NAME="?addItem@FlowLayout@@UAEXPAVQLayoutItem@@@Z" PURGE="4" COMMENT="" />
    <EXPORT ORDINAL="329" NAME="?addItem@ItemSelectorWidget@@AAEXABVQString@@@Z" PURGE="4" COMMENT="" />
    <EXPORT ORDINAL="330" NAME="?addItem@SideBySideLayout@@UAEXPAVQLayoutItem@@@Z" PURGE="4" COMMENT="" />
    <EXPORT ORDINAL="331" NAME="?addItem@SlideOverLayout@@UAEXPAVQLayoutItem@@@Z" PURGE="4" COMMENT="" />
    <EXPORT ORDINAL="332" NAME="?addTracks@MessageBar@@QAEXABV?$QList@VTrack@lastfm@@@@@Z" PURGE="4" COMMENT="" />
    <EXPORT ORDINAL="333" NAME="?addTracks@ScrobbleConfirmationDialog@@QAEXABV?$QList@VTrack@lastfm@@@@@Z" PURGE="4" COMMENT="" />
    <EXPORT ORDINAL="334" NAME="?addTracks@ScrobblesModel@@QAEXABV?$QList@VTrack@lastfm@@@@@Z" PURGE="4" COMMENT="" />
    <EXPORT ORDINAL="335" NAME="?addUser@LfmListModel@@QAEXABVUser@lastfm@@@Z" PURGE="4" COMMENT="" />
    <EXPORT ORDINAL="336" NAME="?addWinThumbBarButtons@MainWindow@unicorn@@EAEXAAV?$QList@PAVQAction@@@@@Z" PURGE="4" COMMENT="" />
    <EXPORT ORDINAL="337" NAME="?album@TrackImageFetcher@@ABE?AVAlbum@lastfm@@XZ" PURGE="4" COMMENT="" />
    <EXPORT ORDINAL="338" NAME="?alwaysAsk@AppSettings@unicorn@@QBE_NXZ" PURGE="0" COMMENT="" />
    <EXPORT ORDINAL="339" NAME="?anchor@Label@unicorn@@SA?AVQString@@ABV3@0@Z" PURGE="0" COMMENT="" />
    <EXPORT ORDINAL="340" NAME="?animationDoneSlot@SlidingStackedWidget@unicorn@@IAEXXZ" PURGE="0" COMMENT="" />
    <EXPORT ORDINAL="341" NAME="?animationFinished@SlidingStackedWidget@unicorn@@IAEXXZ" PURGE="0" COMMENT="" />
    <EXPORT ORDINAL="342" NAME="?appMenuBar@MainWindow@unicorn@@QBEPAVQMenuBar@@XZ" PURGE="0" COMMENT="" />
    <EXPORT ORDINAL="343" NAME="?artist@TrackImageFetcher@@ABE?AVArtist@lastfm@@XZ" PURGE="4" COMMENT="" />
    <EXPORT ORDINAL="344" NAME="?artistGetInfo@TrackImageFetcher@@AAEXXZ" PURGE="0" COMMENT="" />
    <EXPORT ORDINAL="345" NAME="?authUrlChanged@LoginProcess@unicorn@@IAEXABVQString@@@Z" PURGE="4" COMMENT="" />
    <EXPORT ORDINAL="346" NAME="?authenticate@LoginProcess@unicorn@@QAEXXZ" PURGE="0" COMMENT="" />
    <EXPORT ORDINAL="347" NAME="?autoScrobble@ScrobbleConfirmationDialog@@QBE_NXZ" PURGE="-1" COMMENT="" />
    <EXPORT ORDINAL="348" NAME="?availableDescription@PluginList@unicorn@@QBE?AVQString@@XZ" PURGE="4" COMMENT="" />
    <EXPORT ORDINAL="349" NAME="?availablePlugins@PluginList@unicorn@@QBE?AV?$QList@PAVIPluginInfo@unicorn@@@@XZ" PURGE="4" COMMENT="" />
    <EXPORT ORDINAL="350" NAME="?bannerVisible@BannerWidget@@QBE_NXZ" PURGE="0" COMMENT="" />
    <EXPORT ORDINAL="351" NAME="?betaUpdates@Settings@unicorn@@QBE_NXZ" PURGE="0" COMMENT="" />
    <EXPORT ORDINAL="352" NAME="?boldLinkStyle@Label@unicorn@@AAE?AVQString@@ABV3@@Z" PURGE="8" COMMENT="" />
    <EXPORT ORDINAL="353" NAME="?boldLinkStyle@Label@unicorn@@SA?AVQString@@ABV3@VQColor@@@Z" PURGE="0" COMMENT="" />
    <EXPORT ORDINAL="354" NAME="?bootstrapType@FooBar08PluginInfo@unicorn@@UBE?AW4BootstrapType@IPluginInfo@2@XZ" PURGE="0" COMMENT="" />
    <EXPORT ORDINAL="355" NAME="?bootstrapType@FooBar09PluginInfo@unicorn@@UBE?AW4BootstrapType@IPluginInfo@2@XZ" PURGE="0" COMMENT="" />
    <EXPORT ORDINAL="356" NAME="?bootstrapType@ITunesPluginInfo@unicorn@@UBE?AW4BootstrapType@IPluginInfo@2@XZ" PURGE="0" COMMENT="" />
    <EXPORT ORDINAL="357" NAME="?bootstrapType@WinampPluginInfo@unicorn@@UBE?AW4BootstrapType@IPluginInfo@2@XZ" PURGE="0" COMMENT="" />
    <EXPORT ORDINAL="358" NAME="?bootstrapType@WmpPluginInfo@unicorn@@UBE?AW4BootstrapType@IPluginInfo@2@XZ" PURGE="0" COMMENT="" />
    <EXPORT ORDINAL="359" NAME="?bootstrappablePlugins@PluginList@unicorn@@QBE?AV?$QList@PAVIPluginInfo@unicorn@@@@XZ" PURGE="4" COMMENT="" />
    <EXPORT ORDINAL="360" NAME="?busLovedStateChanged@Application@unicorn@@IAEX_N@Z" PURGE="4" COMMENT="" />
    <EXPORT ORDINAL="361" NAME="?button@MessageDialog@unicorn@@QAEPAVQAbstractButton@@W4StandardButton@QMessageBox@@@Z" PURGE="-1" COMMENT="" />
    <EXPORT ORDINAL="362" NAME="?cacheSessionInfo@Session@unicorn@@AAEXABV12@@Z" PURGE="4" COMMENT="" />
    <EXPORT ORDINAL="363" NAME="?cacheUserInfo@Session@unicorn@@AAEXABVUser@lastfm@@@Z" PURGE="4" COMMENT="" />
    <EXPORT ORDINAL="364" NAME="?canBootstrap@IPluginInfo@unicorn@@QBE_NXZ" PURGE="0" COMMENT="" />
    <EXPORT ORDINAL="365" NAME="?canBootstrap@Plugin@@QBE_NXZ" PURGE="0" COMMENT="" />
    <EXPORT ORDINAL="366" NAME="?changeSession@Application@unicorn@@AAEXPAVSession@2@_N@Z" PURGE="8" COMMENT="" />
    <EXPORT ORDINAL="367" NAME="?changeSession@Application@unicorn@@QAEXABVQString@@0_N@Z" PURGE="12" COMMENT="" />
    <EXPORT ORDINAL="368" NAME="?changeUser@UserComboSelector@@IAEXABVQString@@@Z" PURGE="4" COMMENT="" />
    <EXPORT ORDINAL="369" NAME="?changed@ItemSelectorWidget@@IAEXXZ" PURGE="0" COMMENT="" />
    <EXPORT ORDINAL="370" NAME="?changed@ProxyWidget@unicorn@@IAEXXZ" PURGE="0" COMMENT="" />
    <EXPORT ORDINAL="371" NAME="?checkApps@CloseAppsDialog@unicorn@@AAEXXZ" PURGE="0" COMMENT="" />
    <EXPORT ORDINAL="372" NAME="?checkForUpdates@Settings@unicorn@@QBE_NXZ" PURGE="0" COMMENT="" />
    <EXPORT ORDINAL="373" NAME="?checkForUpdates@Updater@unicorn@@QAEXXZ" PURGE="0" COMMENT="" />
    <EXPORT ORDINAL="374" NAME="?checkedButton@UserManagerWidget@@QBEPAVUserRadioButton@@XZ" PURGE="0" COMMENT="" />
    <EXPORT ORDINAL="375" NAME="?clear@DataListWidget@@QAEXXZ" PURGE="0" COMMENT="" />
    <EXPORT ORDINAL="376" NAME="?clear@LfmListModel@@QAEXXZ" PURGE="0" COMMENT="" />
    <EXPORT ORDINAL="377" NAME="?cleverlyPosition@Dialog@unicorn@@AAEXXZ" PURGE="0" COMMENT="" />
    <EXPORT ORDINAL="378" NAME="?cleverlyPosition@MainWindow@unicorn@@AAEXXZ" PURGE="0" COMMENT="" />
    <EXPORT ORDINAL="379" NAME="?click@UserRadioButton@@QAEXXZ" PURGE="-1" COMMENT="" />
    <EXPORT ORDINAL="380" NAME="?clicked@HttpImageWidget@@IAEXXZ" PURGE="0" COMMENT="" />
    <EXPORT ORDINAL="381" NAME="?clicked@UserRadioButton@@IAEXXZ" PURGE="0" COMMENT="" />
    <EXPORT ORDINAL="382" NAME="?clickedButton@MessageDialog@unicorn@@QBEHXZ" PURGE="0" COMMENT="" />
    <EXPORT ORDINAL="383" NAME="?colorizatinColor@QtWin@@SA?AVQColor@@XZ" PURGE="0" COMMENT="" />
    <EXPORT ORDINAL="384" NAME="?columnCount@ScrobblesModel@@UBEHABVQModelIndex@@@Z" PURGE="4" COMMENT="" />
    <EXPORT ORDINAL="385" NAME="?commaPressed@SearchBox@@IAEXXZ" PURGE="0" COMMENT="" />
    <EXPORT ORDINAL="386" NAME="?commonSetup@CloseAppsDialog@unicorn@@AAEXXZ" PURGE="0" COMMENT="" />
    <EXPORT ORDINAL="387" NAME="?count@AnimatedListLayout@@UBEHXZ" PURGE="0" COMMENT="" />
    <EXPORT ORDINAL="388" NAME="?count@FlowLayout@@UBEHXZ" PURGE="0" COMMENT="" />
    <EXPORT ORDINAL="389" NAME="?count@SideBySideLayout@@UBEHXZ" PURGE="0" COMMENT="" />
    <EXPORT ORDINAL="390" NAME="?count@SlideOverLayout@@UBEHXZ" PURGE="0" COMMENT="" />
    <EXPORT ORDINAL="391" NAME="?currentSession@Application@unicorn@@QBEAAVSession@2@XZ" PURGE="0" COMMENT="" />
    <EXPORT ORDINAL="392" NAME="?currentWidget@SideBySideLayout@@QAEPAVQWidget@@XZ" PURGE="-1" COMMENT="" />
    <EXPORT ORDINAL="393" NAME="?currentWidget@SlideOverLayout@@QAEPAVQWidget@@XZ" PURGE="-1" COMMENT="" />
    <EXPORT ORDINAL="394" NAME="?data@LfmListModel@@UBE?AVQVariant@@ABVQModelIndex@@H@Z" PURGE="12" COMMENT="" />
    <EXPORT ORDINAL="395" NAME="?data@ScrobblesModel@@UBE?AVQVariant@@ABVQModelIndex@@H@Z" PURGE="12" COMMENT="" />
    <EXPORT ORDINAL="396" NAME="?dateRegistered@UserSettings@unicorn@@QBE?AVQDateTime@@XZ" PURGE="4" COMMENT="" />
    <EXPORT ORDINAL="397" NAME="?defaultImage@LfmDelegate@@QBE?AVQPixmap@@XZ" PURGE="4" COMMENT="" />
    <EXPORT ORDINAL="398" NAME="?deletePressed@SearchBox@@IAEXXZ" PURGE="0" COMMENT="" />
    <EXPORT ORDINAL="399" NAME="?deviceScrobblingEnabled@OldeAppSettings@unicorn@@QBE_NXZ" PURGE="0" COMMENT="" />
    <EXPORT ORDINAL="400" NAME="?displayName@FooBar08PluginInfo@unicorn@@UBE?AVQString@@XZ" PURGE="4" COMMENT="" />
    <EXPORT ORDINAL="401" NAME="?displayName@FooBar09PluginInfo@unicorn@@UBE?AVQString@@XZ" PURGE="4" COMMENT="" />
    <EXPORT ORDINAL="402" NAME="?displayName@ITunesPluginInfo@unicorn@@UBE?AVQString@@XZ" PURGE="4" COMMENT="" />
    <EXPORT ORDINAL="403" NAME="?displayName@WinampPluginInfo@unicorn@@UBE?AVQString@@XZ" PURGE="4" COMMENT="" />
    <EXPORT ORDINAL="404" NAME="?displayName@WmpPluginInfo@unicorn@@UBE?AVQString@@XZ" PURGE="4" COMMENT="" />
    <EXPORT ORDINAL="405" NAME="?doInstall@IPluginInfo@unicorn@@QAE_NXZ" PURGE="0" COMMENT="" />
    <EXPORT ORDINAL="406" NAME="?doLayout@AnimatedListLayout@@AAEXABVQRect@@H@Z" PURGE="8" COMMENT="" />
    <EXPORT ORDINAL="407" NAME="?doLayout@FlowLayout@@ABEHABVQRect@@_N@Z" PURGE="8" COMMENT="" />
    <EXPORT ORDINAL="408" NAME="?doLayout@SideBySideLayout@@AAEXABVQRect@@H@Z" PURGE="8" COMMENT="" />
    <EXPORT ORDINAL="409" NAME="?doLayout@SlideOverLayout@@AAEXABVQRect@@H@Z" PURGE="8" COMMENT="" />
    <EXPORT ORDINAL="410" NAME="?dontAskAgain@QMessageBoxBuilder@@QAEAAV1@XZ" PURGE="0" COMMENT="" />
    <EXPORT ORDINAL="411" NAME="?downloadImage@TrackImageFetcher@@AAE_NPAVQNetworkReply@@ABVQString@@@Z" PURGE="8" COMMENT="" />
    <EXPORT ORDINAL="412" NAME="?easingCurve@SlidingStackedWidget@unicorn@@QBE?AW4Type@QEasingCurve@@XZ" PURGE="0" COMMENT="" />
    <EXPORT ORDINAL="413" NAME="?enableBlurBehindWindow@QtWin@@SA_NPAVQWidget@@_N@Z" PURGE="0" COMMENT="" />
    <EXPORT ORDINAL="414" NAME="?enableDisableOk@ShareDialog@@AAEXXZ" PURGE="0" COMMENT="" />
    <EXPORT ORDINAL="415" NAME="?enableDisableOk@TagDialog@@AAEXXZ" PURGE="0" COMMENT="" />
    <EXPORT ORDINAL="416" NAME="?enforceScrobbleTimeMax@UserSettings@unicorn@@QBE_NXZ" PURGE="0" COMMENT="" />
    <EXPORT ORDINAL="417" NAME="?eventFilter@BannerWidget@@MAE_NPAVQObject@@PAVQEvent@@@Z" PURGE="8" COMMENT="" />
    <EXPORT ORDINAL="418" NAME="?eventFilter@GhostWidget@@MAE_NPAVQObject@@PAVQEvent@@@Z" PURGE="8" COMMENT="" />
    <EXPORT ORDINAL="419" NAME="?eventFilter@LfmDelegate@@UAE_NPAVQObject@@PAVQEvent@@@Z" PURGE="8" COMMENT="" />
    <EXPORT ORDINAL="420" NAME="?eventFilter@MainWindow@unicorn@@EAE_NPAVQObject@@PAVQEvent@@@Z" PURGE="8" COMMENT="" />
    <EXPORT ORDINAL="421" NAME="?exclusionDirs@UserSettings@unicorn@@QBE?AVQStringList@@XZ" PURGE="4" COMMENT="" />
    <EXPORT ORDINAL="422" NAME="?exec@QMessageBoxBuilder@@QAEHPA_N@Z" PURGE="4" COMMENT="" />
    <EXPORT ORDINAL="423" NAME="?expandingDirections@AnimatedListLayout@@UBE?AV?$QFlags@W4Orientation@Qt@@@@XZ" PURGE="4" COMMENT="" />
    <EXPORT ORDINAL="424" NAME="?expandingDirections@FlowLayout@@UBE?AV?$QFlags@W4Orientation@Qt@@@@XZ" PURGE="4" COMMENT="" />
    <EXPORT ORDINAL="425" NAME="?expandingDirections@SideBySideLayout@@UBE?AV?$QFlags@W4Orientation@Qt@@@@XZ" PURGE="4" COMMENT="" />
    <EXPORT ORDINAL="426" NAME="?expandingDirections@SlideOverLayout@@UBE?AV?$QFlags@W4Orientation@Qt@@@@XZ" PURGE="4" COMMENT="" />
    <EXPORT ORDINAL="427" NAME="?extendFrameIntoClientArea@QtWin@@SA_NPAVQWidget@@HHHH@Z" PURGE="0" COMMENT="" />
    <EXPORT ORDINAL="428" NAME="?fail@TrackImageFetcher@@AAEXXZ" PURGE="0" COMMENT="" />
    <EXPORT ORDINAL="429" NAME="?fetchInfo@Session@unicorn@@AAEXXZ" PURGE="0" COMMENT="" />
    <EXPORT ORDINAL="430" NAME="?fetchInfo@UpdateInfoFetcher@@SAPAVQNetworkReply@@XZ" PURGE="0" COMMENT="" />
    <EXPORT ORDINAL="431" NAME="?files@ScrobbleConfirmationDialog@@QBEABVQStringList@@XZ" PURGE="0" COMMENT="" />
    <EXPORT ORDINAL="432" NAME="?findMainWindow@Application@unicorn@@AAEPAVQMainWindow@@XZ" PURGE="0" COMMENT="" />
    <EXPORT ORDINAL="433" NAME="?findMainWindow@Dialog@unicorn@@ABEPAVQWidget@@XZ" PURGE="0" COMMENT="" />
    <EXPORT ORDINAL="434" NAME="?fingerprinting@UserSettings@unicorn@@QBE_NXZ" PURGE="0" COMMENT="" />
    <EXPORT ORDINAL="435" NAME="?finishEdit@UserSearch@@QAEXXZ" PURGE="-1" COMMENT="" />
    <EXPORT ORDINAL="436" NAME="?finishUi@MainWindow@unicorn@@QAEXXZ" PURGE="0" COMMENT="" />
    <EXPORT ORDINAL="437" NAME="?finished@TrackImageFetcher@@IAEXABVQPixmap@@@Z" PURGE="4" COMMENT="" />
    <EXPORT ORDINAL="438" NAME="?firstRunWizardCompleted@Settings@unicorn@@QBE_NXZ" PURGE="0" COMMENT="" />
    <EXPORT ORDINAL="439" NAME="?flags@ScrobblesModel@@UBE?AV?$QFlags@W4ItemFlag@Qt@@@@ABVQModelIndex@@@Z" PURGE="8" COMMENT="" />
    <EXPORT ORDINAL="440" NAME="?fromString@Version@unicorn@@SA?AV12@ABVQString@@@Z" PURGE="0" COMMENT="" />
    <EXPORT ORDINAL="441" NAME="?getSession@LoginProcess@unicorn@@QAEXXZ" PURGE="0" COMMENT="" />
    <EXPORT ORDINAL="442" NAME="?getSession@Session@unicorn@@SAPAVQNetworkReply@@VQString@@@Z" PURGE="0" COMMENT="" />
    <EXPORT ORDINAL="443" NAME="?getToken@Session@unicorn@@SAPAVQNetworkReply@@XZ" PURGE="0" COMMENT="" />
    <EXPORT ORDINAL="444" NAME="?gotUserInfo@Application@unicorn@@IAEXABVUser@lastfm@@@Z" PURGE="4" COMMENT="" />
    <EXPORT ORDINAL="445" NAME="?handleError@LoginProcess@unicorn@@AAEXABVXmlQuery@lastfm@@@Z" PURGE="4" COMMENT="" />
    <EXPORT ORDINAL="446" NAME="?handleSearchResponse@ArtistSearch@@UAE?AVQStringList@@AAVXmlQuery@lastfm@@@Z" PURGE="8" COMMENT="" />
    <EXPORT ORDINAL="447" NAME="?handleSearchResponse@TagSearch@@UAE?AVQStringList@@AAVXmlQuery@lastfm@@@Z" PURGE="8" COMMENT="" />
    <EXPORT ORDINAL="448" NAME="?handleSearchResponse@UserSearch@@UAE?AVQStringList@@AAVXmlQuery@lastfm@@@Z" PURGE="8" COMMENT="" />
    <EXPORT ORDINAL="449" NAME="?hasHeightForWidth@AnimatedListLayout@@UBE_NXZ" PURGE="0" COMMENT="" />
    <EXPORT ORDINAL="450" NAME="?hasHeightForWidth@FlowLayout@@UBE_NXZ" PURGE="0" COMMENT="" />
    <EXPORT ORDINAL="451" NAME="?hasHeightForWidth@SideBySideLayout@@UBE_NXZ" PURGE="0" COMMENT="" />
    <EXPORT ORDINAL="452" NAME="?hasHeightForWidth@SlideOverLayout@@UBE_NXZ" PURGE="0" COMMENT="" />
    <EXPORT ORDINAL="453" NAME="?headerData@ScrobblesModel@@UBE?AVQVariant@@HW4Orientation@Qt@@H@Z" PURGE="16" COMMENT="" />
    <EXPORT ORDINAL="454" NAME="?heightForWidth@FlowLayout@@UBEHH@Z" PURGE="4" COMMENT="" />
    <EXPORT ORDINAL="455" NAME="?hidden@MainWindow@unicorn@@IAEX_N@Z" PURGE="4" COMMENT="" />
    <EXPORT ORDINAL="456" NAME="?hideAnimated@AnimatedStatusBar@@QAEXXZ" PURGE="0" COMMENT="" />
    <EXPORT ORDINAL="457" NAME="?hideEvent@MainWindow@unicorn@@EAEXPAVQHideEvent@@@Z" PURGE="4" COMMENT="" />
    <EXPORT ORDINAL="458" NAME="?horizontalSpacing@FlowLayout@@QBEHXZ" PURGE="0" COMMENT="" />
    <EXPORT ORDINAL="459" NAME="?id@FooBar08PluginInfo@unicorn@@UBE?AVQString@@XZ" PURGE="4" COMMENT="" />
    <EXPORT ORDINAL="460" NAME="?id@FooBar09PluginInfo@unicorn@@UBE?AVQString@@XZ" PURGE="4" COMMENT="" />
    <EXPORT ORDINAL="461" NAME="?id@ITunesPluginInfo@unicorn@@UBE?AVQString@@XZ" PURGE="4" COMMENT="" />
    <EXPORT ORDINAL="462" NAME="?id@QtSingleApplication@@QBE?AVQString@@XZ" PURGE="4" COMMENT="" />
    <EXPORT ORDINAL="463" NAME="?id@QtSingleCoreApplication@@QBE?AVQString@@XZ" PURGE="4" COMMENT="" />
    <EXPORT ORDINAL="464" NAME="?id@WinampPluginInfo@unicorn@@UBE?AVQString@@XZ" PURGE="4" COMMENT="" />
    <EXPORT ORDINAL="465" NAME="?id@WmpPluginInfo@unicorn@@UBE?AVQString@@XZ" PURGE="4" COMMENT="" />
    <EXPORT ORDINAL="466" NAME="?init@Application@unicorn@@UAEXXZ" PURGE="0" COMMENT="" />
    <EXPORT ORDINAL="467" NAME="?init@CoreApplication@unicorn@@CAXXZ" PURGE="0" COMMENT="" />
    <EXPORT ORDINAL="468" NAME="?init@ImageButton@@AAEXABVQPixmap@@@Z" PURGE="4" COMMENT="" />
    <EXPORT ORDINAL="469" NAME="?init@Session@unicorn@@IAEXABVQString@@0@Z" PURGE="8" COMMENT="" />
    <EXPORT ORDINAL="470" NAME="?initialize@QtSingleApplication@@QAEX_N@Z" PURGE="4" COMMENT="" />
    <EXPORT ORDINAL="471" NAME="?initiateLogin@Application@unicorn@@MAEX_N@Z" PURGE="4" COMMENT="" />
    <EXPORT ORDINAL="472" NAME="?insertItem@AnimatedListLayout@@AAEXHPAVQLayoutItem@@@Z" PURGE="8" COMMENT="" />
    <EXPORT ORDINAL="473" NAME="?insertWidget@AnimatedListLayout@@QAEXHPAVQWidget@@@Z" PURGE="8" COMMENT="" />
    <EXPORT ORDINAL="474" NAME="?insertWidget@FlowLayout@@QAEXHPAVQWidget@@@Z" PURGE="8" COMMENT="" />
    <EXPORT ORDINAL="475" NAME="?insertWidget@SideBySideLayout@@QAEXHPAVQWidget@@@Z" PURGE="8" COMMENT="" />
    <EXPORT ORDINAL="476" NAME="?install@IPluginInfo@unicorn@@QAEX_N@Z" PURGE="4" COMMENT="" />
    <EXPORT ORDINAL="477" NAME="?install@IPluginInfo@unicorn@@QBE_NXZ" PURGE="0" COMMENT="" />
    <EXPORT ORDINAL="478" NAME="?installHotKey@Application@unicorn@@QAEPAXV?$QFlags@W4KeyboardModifier@Qt@@@@IPAVQObject@@PBD@Z" PURGE="16" COMMENT="" />
    <EXPORT ORDINAL="479" NAME="?installList@PluginList@unicorn@@QBE?AV?$QList@PAVIPluginInfo@unicorn@@@@XZ" PURGE="4" COMMENT="" />
    <EXPORT ORDINAL="480" NAME="?installedPlugins@PluginList@unicorn@@QBE?AV?$QList@PAVIPluginInfo@unicorn@@@@XZ" PURGE="4" COMMENT="" />
    <EXPORT ORDINAL="481" NAME="?installedVersion@IPluginInfo@unicorn@@QBE?AVVersion@2@XZ" PURGE="4" COMMENT="" />
    <EXPORT ORDINAL="482" NAME="?instance@Application@unicorn@@SAPAV12@XZ" PURGE="0" COMMENT="" />
    <EXPORT ORDINAL="483" NAME="?internetConnectionDown@Application@unicorn@@IAEXXZ" PURGE="0" COMMENT="" />
    <EXPORT ORDINAL="484" NAME="?internetConnectionUp@Application@unicorn@@IAEXXZ" PURGE="0" COMMENT="" />
    <EXPORT ORDINAL="485" NAME="?isAppInstalled@FooBar08PluginInfo@unicorn@@UBE_NXZ" PURGE="0" COMMENT="" />
    <EXPORT ORDINAL="486" NAME="?isAppInstalled@FooBar09PluginInfo@unicorn@@UBE_NXZ" PURGE="0" COMMENT="" />
    <EXPORT ORDINAL="487" NAME="?isAppInstalled@ITunesPluginInfo@unicorn@@UBE_NXZ" PURGE="0" COMMENT="" />
    <EXPORT ORDINAL="488" NAME="?isAppInstalled@WinampPluginInfo@unicorn@@UBE_NXZ" PURGE="0" COMMENT="" />
    <EXPORT ORDINAL="489" NAME="?isAppInstalled@WmpPluginInfo@unicorn@@UBE_NXZ" PURGE="0" COMMENT="" />
    <EXPORT ORDINAL="490" NAME="?isChecked@UserRadioButton@@QBE_NXZ" PURGE="-1" COMMENT="" />
    <EXPORT ORDINAL="491" NAME="?isCompositionEnabled@QtWin@@SA_NXZ" PURGE="0" COMMENT="" />
    <EXPORT ORDINAL="492" NAME="?isDontShowAgainChecked@MessageDialog@unicorn@@QBE_NXZ" PURGE="-1" COMMENT="" />
    <EXPORT ORDINAL="493" NAME="?isITunesRunning@CloseAppsDialog@unicorn@@SA_NXZ" PURGE="0" COMMENT="" />
    <EXPORT ORDINAL="494" NAME="?isInstalled@IPluginInfo@unicorn@@UBE_NXZ" PURGE="0" COMMENT="" />
    <EXPORT ORDINAL="495" NAME="?isInstalled@Plugin@@QBE_NXZ" PURGE="0" COMMENT="" />
    <EXPORT ORDINAL="496" NAME="?isInternetConnectionUp@Application@unicorn@@QBE_NXZ" PURGE="-1" COMMENT="" />
    <EXPORT ORDINAL="497" NAME="?isPluginInstalled@Plugin@@QBE_NXZ" PURGE="0" COMMENT="" />
    <EXPORT ORDINAL="498" NAME="?isRunning@QtSingleApplication@@QAE_NXZ" PURGE="0" COMMENT="" />
    <EXPORT ORDINAL="499" NAME="?isRunning@QtSingleCoreApplication@@QAE_NXZ" PURGE="0" COMMENT="" />
    <EXPORT ORDINAL="500" NAME="?isValid@Plugin@@QBE_NXZ" PURGE="0" COMMENT="" />
    <EXPORT ORDINAL="501" NAME="?isValid@Session@unicorn@@QBE_NXZ" PURGE="0" COMMENT="" />
    <EXPORT ORDINAL="502" NAME="?isWow64@IPluginInfo@unicorn@@SAHXZ" PURGE="0" COMMENT="" />
    <EXPORT ORDINAL="503" NAME="?itemAt@AnimatedListLayout@@UBEPAVQLayoutItem@@H@Z" PURGE="4" COMMENT="" />
    <EXPORT ORDINAL="504" NAME="?itemAt@FlowLayout@@UBEPAVQLayoutItem@@H@Z" PURGE="4" COMMENT="" />
    <EXPORT ORDINAL="505" NAME="?itemAt@SideBySideLayout@@UBEPAVQLayoutItem@@H@Z" PURGE="4" COMMENT="" />
    <EXPORT ORDINAL="506" NAME="?itemAt@SlideOverLayout@@UBEPAVQLayoutItem@@H@Z" PURGE="4" COMMENT="" />
    <EXPORT ORDINAL="507" NAME="?itemUpdated@LfmListModel@@IAEXXZ" PURGE="0" COMMENT="" />
    <EXPORT ORDINAL="508" NAME="?items@ItemSelectorWidget@@QBE?AVQStringList@@XZ" PURGE="4" COMMENT="" />
    <EXPORT ORDINAL="509" NAME="?itemsContain@ItemSelectorWidget@@AAE_NABVQString@@@Z" PURGE="4" COMMENT="" />
    <EXPORT ORDINAL="510" NAME="?keyPressEvent@SearchBox@@MAEXPAVQKeyEvent@@@Z" PURGE="4" COMMENT="" />
    <EXPORT ORDINAL="511" NAME="?lastSessionData@Session@unicorn@@SA?AV?$QMap@VQString@@V1@@@XZ" PURGE="0" COMMENT="" />
    <EXPORT ORDINAL="512" NAME="?launchWithMediaPlayers@OldeAppSettings@unicorn@@QBE_NXZ" PURGE="0" COMMENT="" />
    <EXPORT ORDINAL="513" NAME="?loadStyleSheet@Application@unicorn@@AAEXAAVQFile@@@Z" PURGE="4" COMMENT="" />
    <EXPORT ORDINAL="514" NAME="?loadUrl@HttpImageWidget@@QAEXABVQUrl@@W4ScaleType@1@@Z" PURGE="8" COMMENT="" />
    <EXPORT ORDINAL="515" NAME="?loaded@HttpImageWidget@@IAEXXZ" PURGE="0" COMMENT="" />
    <EXPORT ORDINAL="516" NAME="?loadedStyleSheet@Application@unicorn@@QBEABVQString@@XZ" PURGE="0" COMMENT="" />
    <EXPORT ORDINAL="517" NAME="?log@CoreApplication@unicorn@@SA?AVQFileInfo@@ABVQString@@@Z" PURGE="0" COMMENT="" />
    <EXPORT ORDINAL="518" NAME="?log@CoreApplication@unicorn@@SA?AVQFileInfo@@XZ" PURGE="0" COMMENT="" />
    <EXPORT ORDINAL="519" NAME="?manageUsers@Application@unicorn@@QAEXXZ" PURGE="0" COMMENT="" />
    <EXPORT ORDINAL="520" NAME="?manageUsers@UserMenu@@IAEXXZ" PURGE="0" COMMENT="" />
    <EXPORT ORDINAL="521" NAME="?menuBar@MainWindow@unicorn@@ABEPAVQMenuBar@@XZ" PURGE="0" COMMENT="" />
    <EXPORT ORDINAL="522" NAME="?messageReceived@QtSingleApplication@@IAEXABVQStringList@@@Z" PURGE="4" COMMENT="" />
    <EXPORT ORDINAL="523" NAME="?messageReceived@QtSingleCoreApplication@@IAEXABVQStringList@@@Z" PURGE="4" COMMENT="" />
    <EXPORT ORDINAL="524" NAME="?metaObject@ActionButton@@UBEPBUQMetaObject@@XZ" PURGE="0" COMMENT="" />
    <EXPORT ORDINAL="525" NAME="?metaObject@AnimatedListLayout@@UBEPBUQMetaObject@@XZ" PURGE="0" COMMENT="" />
    <EXPORT ORDINAL="526" NAME="?metaObject@AnimatedStatusBar@@UBEPBUQMetaObject@@XZ" PURGE="0" COMMENT="" />
    <EXPORT ORDINAL="527" NAME="?metaObject@Application@unicorn@@UBEPBUQMetaObject@@XZ" PURGE="0" COMMENT="" />
    <EXPORT ORDINAL="528" NAME="?metaObject@AvatarWidget@@UBEPBUQMetaObject@@XZ" PURGE="0" COMMENT="" />
    <EXPORT ORDINAL="529" NAME="?metaObject@BannerWidget@@UBEPBUQMetaObject@@XZ" PURGE="0" COMMENT="" />
    <EXPORT ORDINAL="530" NAME="?metaObject@CloseAppsDialog@unicorn@@UBEPBUQMetaObject@@XZ" PURGE="0" COMMENT="" />
    <EXPORT ORDINAL="531" NAME="?metaObject@DataBox@@UBEPBUQMetaObject@@XZ" PURGE="0" COMMENT="" />
    <EXPORT ORDINAL="532" NAME="?metaObject@DataListWidget@@UBEPBUQMetaObject@@XZ" PURGE="0" COMMENT="" />
    <EXPORT ORDINAL="533" NAME="?metaObject@Dialog@unicorn@@UBEPBUQMetaObject@@XZ" PURGE="0" COMMENT="" />
    <EXPORT ORDINAL="534" NAME="?metaObject@FooBar08PluginInfo@unicorn@@UBEPBUQMetaObject@@XZ" PURGE="0" COMMENT="" />
    <EXPORT ORDINAL="535" NAME="?metaObject@FooBar09PluginInfo@unicorn@@UBEPBUQMetaObject@@XZ" PURGE="0" COMMENT="" />
    <EXPORT ORDINAL="536" NAME="?metaObject@FriendsPicker@@UBEPBUQMetaObject@@XZ" PURGE="0" COMMENT="" />
    <EXPORT ORDINAL="537" NAME="?metaObject@HttpImageWidget@@UBEPBUQMetaObject@@XZ" PURGE="0" COMMENT="" />
    <EXPORT ORDINAL="538" NAME="?metaObject@IPluginInfo@unicorn@@UBEPBUQMetaObject@@XZ" PURGE="0" COMMENT="" />
    <EXPORT ORDINAL="539" NAME="?metaObject@ITunesPluginInfo@unicorn@@UBEPBUQMetaObject@@XZ" PURGE="0" COMMENT="" />
    <EXPORT ORDINAL="540" NAME="?metaObject@ItemSelectorWidget@@UBEPBUQMetaObject@@XZ" PURGE="0" COMMENT="" />
    <EXPORT ORDINAL="541" NAME="?metaObject@Label@unicorn@@UBEPBUQMetaObject@@XZ" PURGE="0" COMMENT="" />
    <EXPORT ORDINAL="542" NAME="?metaObject@LfmDelegate@@UBEPBUQMetaObject@@XZ" PURGE="0" COMMENT="" />
    <EXPORT ORDINAL="543" NAME="?metaObject@LfmListModel@@UBEPBUQMetaObject@@XZ" PURGE="0" COMMENT="" />
    <EXPORT ORDINAL="544" NAME="?metaObject@LfmListView@@UBEPBUQMetaObject@@XZ" PURGE="0" COMMENT="" />
    <EXPORT ORDINAL="545" NAME="?metaObject@LoginContinueDialog@@UBEPBUQMetaObject@@XZ" PURGE="0" COMMENT="" />
    <EXPORT ORDINAL="546" NAME="?metaObject@LoginDialog@@UBEPBUQMetaObject@@XZ" PURGE="0" COMMENT="" />
    <EXPORT ORDINAL="547" NAME="?metaObject@LoginProcess@unicorn@@UBEPBUQMetaObject@@XZ" PURGE="0" COMMENT="" />
    <EXPORT ORDINAL="548" NAME="?metaObject@MainWindow@unicorn@@UBEPBUQMetaObject@@XZ" PURGE="0" COMMENT="" />
    <EXPORT ORDINAL="549" NAME="?metaObject@MessageBar@@UBEPBUQMetaObject@@XZ" PURGE="0" COMMENT="" />
    <EXPORT ORDINAL="550" NAME="?metaObject@MessageDialog@unicorn@@UBEPBUQMetaObject@@XZ" PURGE="0" COMMENT="" />
    <EXPORT ORDINAL="551" NAME="?metaObject@PluginList@unicorn@@UBEPBUQMetaObject@@XZ" PURGE="0" COMMENT="" />
    <EXPORT ORDINAL="552" NAME="?metaObject@ProxyDialog@unicorn@@UBEPBUQMetaObject@@XZ" PURGE="0" COMMENT="" />
    <EXPORT ORDINAL="553" NAME="?metaObject@ProxyWidget@unicorn@@UBEPBUQMetaObject@@XZ" PURGE="0" COMMENT="" />
    <EXPORT ORDINAL="554" NAME="?metaObject@QtSingleApplication@@UBEPBUQMetaObject@@XZ" PURGE="0" COMMENT="" />
    <EXPORT ORDINAL="555" NAME="?metaObject@QtSingleCoreApplication@@UBEPBUQMetaObject@@XZ" PURGE="0" COMMENT="" />
    <EXPORT ORDINAL="556" NAME="?metaObject@ScrobbleConfirmationDialog@@UBEPBUQMetaObject@@XZ" PURGE="0" COMMENT="" />
    <EXPORT ORDINAL="557" NAME="?metaObject@ScrobblesModel@@UBEPBUQMetaObject@@XZ" PURGE="0" COMMENT="" />
    <EXPORT ORDINAL="558" NAME="?metaObject@SearchBox@@UBEPBUQMetaObject@@XZ" PURGE="0" COMMENT="" />
    <EXPORT ORDINAL="559" NAME="?metaObject@Session@unicorn@@UBEPBUQMetaObject@@XZ" PURGE="0" COMMENT="" />
    <EXPORT ORDINAL="560" NAME="?metaObject@ShareDialog@@UBEPBUQMetaObject@@XZ" PURGE="0" COMMENT="" />
    <EXPORT ORDINAL="561" NAME="?metaObject@SideBySideLayout@@UBEPBUQMetaObject@@XZ" PURGE="0" COMMENT="" />
    <EXPORT ORDINAL="562" NAME="?metaObject@SignalBlocker@@UBEPBUQMetaObject@@XZ" PURGE="0" COMMENT="" />
    <EXPORT ORDINAL="563" NAME="?metaObject@SlideOverLayout@@UBEPBUQMetaObject@@XZ" PURGE="0" COMMENT="" />
    <EXPORT ORDINAL="564" NAME="?metaObject@SlidingStackedWidget@unicorn@@UBEPBUQMetaObject@@XZ" PURGE="0" COMMENT="" />
    <EXPORT ORDINAL="565" NAME="?metaObject@StackedWidget@unicorn@@UBEPBUQMetaObject@@XZ" PURGE="0" COMMENT="" />
    <EXPORT ORDINAL="566" NAME="?metaObject@TagDialog@@UBEPBUQMetaObject@@XZ" PURGE="0" COMMENT="" />
    <EXPORT ORDINAL="567" NAME="?metaObject@TrackImageFetcher@@UBEPBUQMetaObject@@XZ" PURGE="0" COMMENT="" />
    <EXPORT ORDINAL="568" NAME="?metaObject@TrackWidget@@UBEPBUQMetaObject@@XZ" PURGE="0" COMMENT="" />
    <EXPORT ORDINAL="569" NAME="?metaObject@UpdateInfoFetcher@@UBEPBUQMetaObject@@XZ" PURGE="0" COMMENT="" />
    <EXPORT ORDINAL="570" NAME="?metaObject@Updater@unicorn@@UBEPBUQMetaObject@@XZ" PURGE="0" COMMENT="" />
    <EXPORT ORDINAL="571" NAME="?metaObject@UserComboSelector@@UBEPBUQMetaObject@@XZ" PURGE="0" COMMENT="" />
    <EXPORT ORDINAL="572" NAME="?metaObject@UserManagerDialog@@UBEPBUQMetaObject@@XZ" PURGE="0" COMMENT="" />
    <EXPORT ORDINAL="573" NAME="?metaObject@UserManagerWidget@@UBEPBUQMetaObject@@XZ" PURGE="0" COMMENT="" />
    <EXPORT ORDINAL="574" NAME="?metaObject@UserMenu@@UBEPBUQMetaObject@@XZ" PURGE="0" COMMENT="" />
    <EXPORT ORDINAL="575" NAME="?metaObject@UserRadioButton@@UBEPBUQMetaObject@@XZ" PURGE="0" COMMENT="" />
    <EXPORT ORDINAL="576" NAME="?metaObject@UserSearch@@UBEPBUQMetaObject@@XZ" PURGE="0" COMMENT="" />
    <EXPORT ORDINAL="577" NAME="?metaObject@UserToolButton@@UBEPBUQMetaObject@@XZ" PURGE="0" COMMENT="" />
    <EXPORT ORDINAL="578" NAME="?metaObject@WinampPluginInfo@unicorn@@UBEPBUQMetaObject@@XZ" PURGE="0" COMMENT="" />
    <EXPORT ORDINAL="579" NAME="?metaObject@WmpPluginInfo@unicorn@@UBEPBUQMetaObject@@XZ" PURGE="0" COMMENT="" />
    <EXPORT ORDINAL="580" NAME="?minimumSize@AnimatedListLayout@@UBE?AVQSize@@XZ" PURGE="4" COMMENT="" />
    <EXPORT ORDINAL="581" NAME="?minimumSize@FlowLayout@@UBE?AVQSize@@XZ" PURGE="4" COMMENT="" />
    <EXPORT ORDINAL="582" NAME="?minimumSize@SideBySideLayout@@UBE?AVQSize@@XZ" PURGE="4" COMMENT="" />
    <EXPORT ORDINAL="583" NAME="?minimumSize@SlideOverLayout@@UBE?AVQSize@@XZ" PURGE="4" COMMENT="" />
    <EXPORT ORDINAL="584" NAME="?mouseMoveEvent@LfmListView@@MAEXPAVQMouseEvent@@@Z" PURGE="4" COMMENT="" />
    <EXPORT ORDINAL="585" NAME="?mousePressEvent@BannerWidget@@MAEXPAVQMouseEvent@@@Z" PURGE="4" COMMENT="" />
    <EXPORT ORDINAL="586" NAME="?mousePressEvent@HttpImageWidget@@MAEXPAVQMouseEvent@@@Z" PURGE="4" COMMENT="" />
    <EXPORT ORDINAL="587" NAME="?mouseReleaseEvent@HttpImageWidget@@MAEXPAVQMouseEvent@@@Z" PURGE="4" COMMENT="" />
    <EXPORT ORDINAL="588" NAME="?moveBackward@SideBySideLayout@@QAEXXZ" PURGE="0" COMMENT="" />
    <EXPORT ORDINAL="589" NAME="?moveEvent@Dialog@unicorn@@MAEXPAVQMoveEvent@@@Z" PURGE="4" COMMENT="" />
    <EXPORT ORDINAL="590" NAME="?moveEvent@MainWindow@unicorn@@EAEXPAVQMoveEvent@@@Z" PURGE="4" COMMENT="" />
    <EXPORT ORDINAL="591" NAME="?moveFinished@AnimatedListLayout@@IAEXXZ" PURGE="0" COMMENT="" />
    <EXPORT ORDINAL="592" NAME="?moveFinished@SideBySideLayout@@IAEXPAVQLayoutItem@@@Z" PURGE="4" COMMENT="" />
    <EXPORT ORDINAL="593" NAME="?moveFinished@SlideOverLayout@@IAEXPAVQLayoutItem@@@Z" PURGE="4" COMMENT="" />
    <EXPORT ORDINAL="594" NAME="?moveForward@SideBySideLayout@@QAEXXZ" PURGE="0" COMMENT="" />
    <EXPORT ORDINAL="595" NAME="?moveIcon@ImageButton@@QAEXHHW4Mode@QIcon@@@Z" PURGE="12" COMMENT="" />
    <EXPORT ORDINAL="596" NAME="?moveStarted@SideBySideLayout@@IAEXPAVQLayoutItem@@0@Z" PURGE="8" COMMENT="" />
    <EXPORT ORDINAL="597" NAME="?moveStarted@SlideOverLayout@@IAEXPAVQLayoutItem@@0@Z" PURGE="8" COMMENT="" />
    <EXPORT ORDINAL="598" NAME="?moveToWidget@SideBySideLayout@@QAEXPAVQWidget@@@Z" PURGE="4" COMMENT="" />
    <EXPORT ORDINAL="599" NAME="?name@FooBar08PluginInfo@unicorn@@UBE?AVQString@@XZ" PURGE="4" COMMENT="" />
    <EXPORT ORDINAL="600" NAME="?name@FooBar09PluginInfo@unicorn@@UBE?AVQString@@XZ" PURGE="4" COMMENT="" />
    <EXPORT ORDINAL="601" NAME="?name@ITunesPluginInfo@unicorn@@UBE?AVQString@@XZ" PURGE="4" COMMENT="" />
    <EXPORT ORDINAL="602" NAME="?name@Plugin@@QBE?AVQString@@XZ" PURGE="4" COMMENT="" />
    <EXPORT ORDINAL="603" NAME="?name@WinampPluginInfo@unicorn@@UBE?AVQString@@XZ" PURGE="4" COMMENT="" />
    <EXPORT ORDINAL="604" NAME="?name@WmpPluginInfo@unicorn@@UBE?AVQString@@XZ" PURGE="4" COMMENT="" />
    <EXPORT ORDINAL="605" NAME="?nextWidget@SideBySideLayout@@QAEPAVQWidget@@XZ" PURGE="0" COMMENT="" />
    <EXPORT ORDINAL="606" NAME="?nextWidget@SlideOverLayout@@QAEPAVQWidget@@XZ" PURGE="0" COMMENT="" />
    <EXPORT ORDINAL="607" NAME="?notifications@Settings@unicorn@@QBE_NXZ" PURGE="0" COMMENT="" />
    <EXPORT ORDINAL="608" NAME="?ok@LoginContinueDialog@@ABEPAVQPushButton@@XZ" PURGE="0" COMMENT="" />
    <EXPORT ORDINAL="609" NAME="?ok@LoginDialog@@ABEPAVQPushButton@@XZ" PURGE="0" COMMENT="" />
    <EXPORT ORDINAL="610" NAME="?onAccept@UserManagerDialog@@IAEXXZ" PURGE="0" COMMENT="" />
    <EXPORT ORDINAL="611" NAME="?onAccepted@ProxyDialog@unicorn@@AAEXXZ" PURGE="0" COMMENT="" />
    <EXPORT ORDINAL="612" NAME="?onAccepted@TagDialog@@AAEXXZ" PURGE="0" COMMENT="" />
    <EXPORT ORDINAL="613" NAME="?onActionChanged@ActionButton@@AAEXPAVQAction@@@Z" PURGE="4" COMMENT="" />
    <EXPORT ORDINAL="614" NAME="?onActivated@Label@unicorn@@AAEXABVQString@@@Z" PURGE="4" COMMENT="" />
    <EXPORT ORDINAL="615" NAME="?onActivated@UserComboSelector@@IAEXH@Z" PURGE="4" COMMENT="" />
    <EXPORT ORDINAL="616" NAME="?onAddTagFinished@TagDialog@@AAEXXZ" PURGE="0" COMMENT="" />
    <EXPORT ORDINAL="617" NAME="?onAddUserClicked@UserManagerWidget@@IAEXXZ" PURGE="0" COMMENT="" />
    <EXPORT ORDINAL="618" NAME="?onAlbumGotInfo@TrackImageFetcher@@AAEXXZ" PURGE="0" COMMENT="" />
    <EXPORT ORDINAL="619" NAME="?onAlbumImageDownloaded@TrackImageFetcher@@AAEXXZ" PURGE="0" COMMENT="" />
    <EXPORT ORDINAL="620" NAME="?onArtistDownloaded@TrackWidget@@AAEXABVQPixmap@@@Z" PURGE="4" COMMENT="" />
    <EXPORT ORDINAL="621" NAME="?onArtistGotInfo@TrackImageFetcher@@AAEXXZ" PURGE="0" COMMENT="" />
    <EXPORT ORDINAL="622" NAME="?onArtistImageDownloaded@TrackImageFetcher@@AAEXXZ" PURGE="0" COMMENT="" />
    <EXPORT ORDINAL="623" NAME="?onAuthGotSessionInfo@Session@unicorn@@AAEXXZ" PURGE="0" COMMENT="" />
    <EXPORT ORDINAL="624" NAME="?onBusSessionChanged@Application@unicorn@@AAEXABVSession@2@@Z" PURGE="4" COMMENT="" />
    <EXPORT ORDINAL="625" NAME="?onBusSessionQuery@Application@unicorn@@AAEXABVQString@@@Z" PURGE="4" COMMENT="" />
    <EXPORT ORDINAL="626" NAME="?onButtonClicked@MessageDialog@unicorn@@AAEXPAVQAbstractButton@@@Z" PURGE="4" COMMENT="" />
    <EXPORT ORDINAL="627" NAME="?onChanged@ProxyWidget@unicorn@@AAEXXZ" PURGE="0" COMMENT="" />
    <EXPORT ORDINAL="628" NAME="?onClick@BannerWidget@@AAEXXZ" PURGE="0" COMMENT="" />
    <EXPORT ORDINAL="629" NAME="?onClick@HttpImageWidget@@AAEXXZ" PURGE="0" COMMENT="" />
    <EXPORT ORDINAL="630" NAME="?onCloseClicked@MessageBar@@AAEXXZ" PURGE="-1" COMMENT="" />
    <EXPORT ORDINAL="631" NAME="?onCompleterActivated@ItemSelectorWidget@@AAEXABVQString@@@Z" PURGE="4" COMMENT="" />
    <EXPORT ORDINAL="632" NAME="?onCoverDownloaded@TrackWidget@@AAEXABVQPixmap@@@Z" PURGE="4" COMMENT="" />
    <EXPORT ORDINAL="633" NAME="?onCurrentChanged@StackedWidget@unicorn@@AAEXH@Z" PURGE="4" COMMENT="" />
    <EXPORT ORDINAL="634" NAME="?onDeletePressed@ItemSelectorWidget@@AAEXXZ" PURGE="0" COMMENT="" />
    <EXPORT ORDINAL="635" NAME="?onFinished@AnimatedStatusBar@@AAEXXZ" PURGE="0" COMMENT="" />
    <EXPORT ORDINAL="636" NAME="?onFrameChanged@AnimatedListLayout@@AAEXH@Z" PURGE="4" COMMENT="" />
    <EXPORT ORDINAL="637" NAME="?onFrameChanged@AnimatedStatusBar@@AAEXH@Z" PURGE="4" COMMENT="" />
    <EXPORT ORDINAL="638" NAME="?onFrameChanged@SideBySideLayout@@AAEXH@Z" PURGE="4" COMMENT="" />
    <EXPORT ORDINAL="639" NAME="?onFrameChanged@SlideOverLayout@@AAEXH@Z" PURGE="4" COMMENT="" />
    <EXPORT ORDINAL="640" NAME="?onGetFriendsFinished@UserSearch@@AAEXXZ" PURGE="0" COMMENT="" />
    <EXPORT ORDINAL="641" NAME="?onGetFriendsReturn@FriendsPicker@@AAEXXZ" PURGE="0" COMMENT="" />
    <EXPORT ORDINAL="642" NAME="?onGotSession@LoginProcess@unicorn@@AAEXXZ" PURGE="0" COMMENT="" />
    <EXPORT ORDINAL="643" NAME="?onGotToken@LoginProcess@unicorn@@AAEXXZ" PURGE="0" COMMENT="" />
    <EXPORT ORDINAL="644" NAME="?onHotKeyEvent@Application@unicorn@@AAEXI@Z" PURGE="4" COMMENT="" />
    <EXPORT ORDINAL="645" NAME="?onHovered@Label@unicorn@@AAEXABVQString@@@Z" PURGE="4" COMMENT="" />
    <EXPORT ORDINAL="646" NAME="?onImageDownloaded@UserToolButton@@IAEXXZ" PURGE="0" COMMENT="" />
    <EXPORT ORDINAL="647" NAME="?onItemDeleted@ItemSelectorWidget@@AAEXPAVQLabel@@@Z" PURGE="4" COMMENT="" />
    <EXPORT ORDINAL="648" NAME="?onItemLoaded@AnimatedListLayout@@AAEXXZ" PURGE="0" COMMENT="" />
    <EXPORT ORDINAL="649" NAME="?onItemSelected@ItemSelectorWidget@@AAEXXZ" PURGE="0" COMMENT="" />
    <EXPORT ORDINAL="650" NAME="?onLinkActivated@MessageBar@@AAEXABVQString@@@Z" PURGE="4" COMMENT="" />
    <EXPORT ORDINAL="651" NAME="?onLoginComplete@UserManagerWidget@@AAEXABVSession@unicorn@@@Z" PURGE="4" COMMENT="" />
    <EXPORT ORDINAL="652" NAME="?onLoginContinueDialogAccepted@UserManagerWidget@@IAEXXZ" PURGE="0" COMMENT="" />
    <EXPORT ORDINAL="653" NAME="?onLoginDialogAccepted@UserManagerWidget@@IAEXXZ" PURGE="0" COMMENT="" />
    <EXPORT ORDINAL="654" NAME="?onMessageChanged@ShareDialog@@AAEXXZ" PURGE="0" COMMENT="" />
    <EXPORT ORDINAL="655" NAME="?onMoveFinished@SideBySideLayout@@AAEXXZ" PURGE="0" COMMENT="" />
    <EXPORT ORDINAL="656" NAME="?onMoveFinished@SlideOverLayout@@AAEXXZ" PURGE="0" COMMENT="" />
    <EXPORT ORDINAL="657" NAME="?onRadioButtonsClicked@TrackWidget@@AAEX_N@Z" PURGE="4" COMMENT="" />
    <EXPORT ORDINAL="658" NAME="?onRosterUpdated@UserToolButton@@IAEXXZ" PURGE="0" COMMENT="" />
    <EXPORT ORDINAL="659" NAME="?onSearchFinished@SearchBox@@AAEXXZ" PURGE="0" COMMENT="" />
    <EXPORT ORDINAL="660" NAME="?onSessionChanged@UserComboSelector@@IAEXAAVSession@unicorn@@@Z" PURGE="4" COMMENT="" />
    <EXPORT ORDINAL="661" NAME="?onSessionChanged@UserMenu@@IAEXABVSession@unicorn@@@Z" PURGE="4" COMMENT="" />
    <EXPORT ORDINAL="662" NAME="?onSessionChanged@UserRadioButton@@AAEXABVSession@unicorn@@@Z" PURGE="4" COMMENT="" />
    <EXPORT ORDINAL="663" NAME="?onSessionChanged@UserToolButton@@IAEXABVSession@unicorn@@@Z" PURGE="4" COMMENT="" />
    <EXPORT ORDINAL="664" NAME="?onShared@ShareDialog@@AAEXXZ" PURGE="0" COMMENT="" />
    <EXPORT ORDINAL="665" NAME="?onSignaled@SignalBlocker@@AAEXXZ" PURGE="-1" COMMENT="" />
    <EXPORT ORDINAL="666" NAME="?onTextChanged@ItemSelectorWidget@@AAEXABVQString@@@Z" PURGE="4" COMMENT="" />
    <EXPORT ORDINAL="667" NAME="?onTextEdited@SearchBox@@AAEXABVQString@@@Z" PURGE="4" COMMENT="" />
    <EXPORT ORDINAL="668" NAME="?onTimeout@SignalBlocker@@AAEXXZ" PURGE="-1" COMMENT="" />
    <EXPORT ORDINAL="669" NAME="?onTrackGotInfo@TrackImageFetcher@@AAEXABVQByteArray@@@Z" PURGE="4" COMMENT="" />
    <EXPORT ORDINAL="670" NAME="?onTrackImageDownloaded@TrackImageFetcher@@AAEXXZ" PURGE="0" COMMENT="" />
    <EXPORT ORDINAL="671" NAME="?onTriggered@UserMenu@@IAEXPAVQAction@@@Z" PURGE="4" COMMENT="" />
    <EXPORT ORDINAL="672" NAME="?onUrlLoaded@HttpImageWidget@@AAEXXZ" PURGE="0" COMMENT="" />
    <EXPORT ORDINAL="673" NAME="?onUserFetched@UserRadioButton@@AAEXXZ" PURGE="0" COMMENT="" />
    <EXPORT ORDINAL="674" NAME="?onUserGotInfo@Session@unicorn@@AAEXXZ" PURGE="0" COMMENT="" />
    <EXPORT ORDINAL="675" NAME="?onUserGotInfo@UserToolButton@@IAEXABVUser@lastfm@@@Z" PURGE="4" COMMENT="" />
    <EXPORT ORDINAL="676" NAME="?onUserRemoved@UserManagerWidget@@IAEXXZ" PURGE="0" COMMENT="" />
    <EXPORT ORDINAL="677" NAME="?onWizardRunningQuery@Application@unicorn@@AAEXABVQString@@@Z" PURGE="4" COMMENT="" />
    <EXPORT ORDINAL="678" NAME="?openLog@MainWindow@unicorn@@QAEXXZ" PURGE="0" COMMENT="" />
    <EXPORT ORDINAL="679" NAME="?openUrl@DesktopServices@unicorn@@SAXVQUrl@@@Z" PURGE="0" COMMENT="" />
    <EXPORT ORDINAL="680" NAME="?paint@LfmDelegate@@UBEXPAVQPainter@@ABVQStyleOptionViewItem@@ABVQModelIndex@@@Z" PURGE="12" COMMENT="" />
    <EXPORT ORDINAL="681" NAME="?paintEvent@AvatarWidget@@EAEXPAVQPaintEvent@@@Z" PURGE="4" COMMENT="" />
    <EXPORT ORDINAL="682" NAME="?paintEvent@ImageButton@@MAEXPAVQPaintEvent@@@Z" PURGE="4" COMMENT="" />
    <EXPORT ORDINAL="683" NAME="?paintEvent@Label@unicorn@@EAEXPAVQPaintEvent@@@Z" PURGE="4" COMMENT="" />
    <EXPORT ORDINAL="684" NAME="?paintEvent@StatusLight@@MAEXPAVQPaintEvent@@@Z" PURGE="4" COMMENT="" />
    <EXPORT ORDINAL="685" NAME="?pluginById@PluginList@unicorn@@QBEPAVIPluginInfo@2@ABVQString@@@Z" PURGE="4" COMMENT="" />
    <EXPORT ORDINAL="686" NAME="?pluginInstaller@FooBar08PluginInfo@unicorn@@UBE?AVQString@@XZ" PURGE="4" COMMENT="" />
    <EXPORT ORDINAL="687" NAME="?pluginInstaller@FooBar09PluginInfo@unicorn@@UBE?AVQString@@XZ" PURGE="4" COMMENT="" />
    <EXPORT ORDINAL="688" NAME="?pluginInstaller@ITunesPluginInfo@unicorn@@UBE?AVQString@@XZ" PURGE="4" COMMENT="" />
    <EXPORT ORDINAL="689" NAME="?pluginInstaller@WinampPluginInfo@unicorn@@UBE?AVQString@@XZ" PURGE="4" COMMENT="" />
    <EXPORT ORDINAL="690" NAME="?pluginInstaller@WmpPluginInfo@unicorn@@UBE?AVQString@@XZ" PURGE="4" COMMENT="" />
    <EXPORT ORDINAL="691" NAME="?plugins@UpdateInfoFetcher@@QBEABV?$QList@VPlugin@@@@XZ" PURGE="0" COMMENT="" />
    <EXPORT ORDINAL="692" NAME="?podcasts@UserSettings@unicorn@@QBE_NXZ" PURGE="0" COMMENT="" />
    <EXPORT ORDINAL="693" NAME="?prettyTime@Label@unicorn@@SAXAAV12@ABVQDateTime@@PAVQTimer@@@Z" PURGE="0" COMMENT="" />
    <EXPORT ORDINAL="694" NAME="?prevWidget@SideBySideLayout@@QAEPAVQWidget@@XZ" PURGE="0" COMMENT="" />
    <EXPORT ORDINAL="695" NAME="?prevWidget@SlideOverLayout@@QAEPAVQWidget@@XZ" PURGE="0" COMMENT="" />
    <EXPORT ORDINAL="696" NAME="?price@Label@unicorn@@SA?AVQString@@ABV3@0@Z" PURGE="0" COMMENT="" />
    <EXPORT ORDINAL="697" NAME="?processName@FooBar08PluginInfo@unicorn@@UBE?AVQString@@XZ" PURGE="4" COMMENT="" />
    <EXPORT ORDINAL="698" NAME="?processName@FooBar09PluginInfo@unicorn@@UBE?AVQString@@XZ" PURGE="4" COMMENT="" />
    <EXPORT ORDINAL="699" NAME="?processName@ITunesPluginInfo@unicorn@@UBE?AVQString@@XZ" PURGE="4" COMMENT="" />
    <EXPORT ORDINAL="700" NAME="?processName@WinampPluginInfo@unicorn@@UBE?AVQString@@XZ" PURGE="4" COMMENT="" />
    <EXPORT ORDINAL="701" NAME="?processName@WmpPluginInfo@unicorn@@UBE?AVQString@@XZ" PURGE="4" COMMENT="" />
    <EXPORT ORDINAL="702" NAME="?programFiles64@IPluginInfo@unicorn@@IBE?AVQString@@XZ" PURGE="4" COMMENT="" />
    <EXPORT ORDINAL="703" NAME="?programFilesX86@IPluginInfo@unicorn@@IBE?AVQString@@XZ" PURGE="4" COMMENT="" />
    <EXPORT ORDINAL="704" NAME="?qMsgHandler@CoreApplication@unicorn@@CAXW4QtMsgType@@PBD@Z" PURGE="0" COMMENT="" />
    <EXPORT ORDINAL="705" NAME="?qt_metacall@ActionButton@@UAEHW4Call@QMetaObject@@HPAPAX@Z" PURGE="12" COMMENT="" />
    <EXPORT ORDINAL="706" NAME="?qt_metacall@AnimatedListLayout@@UAEHW4Call@QMetaObject@@HPAPAX@Z" PURGE="12" COMMENT="" />
    <EXPORT ORDINAL="707" NAME="?qt_metacall@AnimatedStatusBar@@UAEHW4Call@QMetaObject@@HPAPAX@Z" PURGE="12" COMMENT="" />
    <EXPORT ORDINAL="708" NAME="?qt_metacall@Application@unicorn@@UAEHW4Call@QMetaObject@@HPAPAX@Z" PURGE="12" COMMENT="" />
    <EXPORT ORDINAL="709" NAME="?qt_metacall@AvatarWidget@@UAEHW4Call@QMetaObject@@HPAPAX@Z" PURGE="12" COMMENT="" />
    <EXPORT ORDINAL="710" NAME="?qt_metacall@BannerWidget@@UAEHW4Call@QMetaObject@@HPAPAX@Z" PURGE="12" COMMENT="" />
    <EXPORT ORDINAL="711" NAME="?qt_metacall@CloseAppsDialog@unicorn@@UAEHW4Call@QMetaObject@@HPAPAX@Z" PURGE="12" COMMENT="" />
    <EXPORT ORDINAL="712" NAME="?qt_metacall@DataBox@@UAEHW4Call@QMetaObject@@HPAPAX@Z" PURGE="-1" COMMENT="" />
    <EXPORT ORDINAL="713" NAME="?qt_metacall@DataListWidget@@UAEHW4Call@QMetaObject@@HPAPAX@Z" PURGE="-1" COMMENT="" />
    <EXPORT ORDINAL="714" NAME="?qt_metacall@Dialog@unicorn@@UAEHW4Call@QMetaObject@@HPAPAX@Z" PURGE="12" COMMENT="" />
    <EXPORT ORDINAL="715" NAME="?qt_metacall@FooBar08PluginInfo@unicorn@@UAEHW4Call@QMetaObject@@HPAPAX@Z" PURGE="12" COMMENT="" />
    <EXPORT ORDINAL="716" NAME="?qt_metacall@FooBar09PluginInfo@unicorn@@UAEHW4Call@QMetaObject@@HPAPAX@Z" PURGE="12" COMMENT="" />
    <EXPORT ORDINAL="717" NAME="?qt_metacall@FriendsPicker@@UAEHW4Call@QMetaObject@@HPAPAX@Z" PURGE="12" COMMENT="" />
    <EXPORT ORDINAL="718" NAME="?qt_metacall@HttpImageWidget@@UAEHW4Call@QMetaObject@@HPAPAX@Z" PURGE="12" COMMENT="" />
    <EXPORT ORDINAL="719" NAME="?qt_metacall@IPluginInfo@unicorn@@UAEHW4Call@QMetaObject@@HPAPAX@Z" PURGE="12" COMMENT="" />
    <EXPORT ORDINAL="720" NAME="?qt_metacall@ITunesPluginInfo@unicorn@@UAEHW4Call@QMetaObject@@HPAPAX@Z" PURGE="12" COMMENT="" />
    <EXPORT ORDINAL="721" NAME="?qt_metacall@ItemSelectorWidget@@UAEHW4Call@QMetaObject@@HPAPAX@Z" PURGE="12" COMMENT="" />
    <EXPORT ORDINAL="722" NAME="?qt_metacall@Label@unicorn@@UAEHW4Call@QMetaObject@@HPAPAX@Z" PURGE="12" COMMENT="" />
    <EXPORT ORDINAL="723" NAME="?qt_metacall@LfmDelegate@@UAEHW4Call@QMetaObject@@HPAPAX@Z" PURGE="12" COMMENT="" />
    <EXPORT ORDINAL="724" NAME="?qt_metacall@LfmListModel@@UAEHW4Call@QMetaObject@@HPAPAX@Z" PURGE="12" COMMENT="" />
    <EXPORT ORDINAL="725" NAME="?qt_metacall@LfmListView@@UAEHW4Call@QMetaObject@@HPAPAX@Z" PURGE="-1" COMMENT="" />
    <EXPORT ORDINAL="726" NAME="?qt_metacall@LoginContinueDialog@@UAEHW4Call@QMetaObject@@HPAPAX@Z" PURGE="-1" COMMENT="" />
    <EXPORT ORDINAL="727" NAME="?qt_metacall@LoginDialog@@UAEHW4Call@QMetaObject@@HPAPAX@Z" PURGE="-1" COMMENT="" />
    <EXPORT ORDINAL="728" NAME="?qt_metacall@LoginProcess@unicorn@@UAEHW4Call@QMetaObject@@HPAPAX@Z" PURGE="12" COMMENT="" />
    <EXPORT ORDINAL="729" NAME="?qt_metacall@MainWindow@unicorn@@UAEHW4Call@QMetaObject@@HPAPAX@Z" PURGE="12" COMMENT="" />
    <EXPORT ORDINAL="730" NAME="?qt_metacall@MessageBar@@UAEHW4Call@QMetaObject@@HPAPAX@Z" PURGE="12" COMMENT="" />
    <EXPORT ORDINAL="731" NAME="?qt_metacall@MessageDialog@unicorn@@UAEHW4Call@QMetaObject@@HPAPAX@Z" PURGE="12" COMMENT="" />
    <EXPORT ORDINAL="732" NAME="?qt_metacall@PluginList@unicorn@@UAEHW4Call@QMetaObject@@HPAPAX@Z" PURGE="-1" COMMENT="" />
    <EXPORT ORDINAL="733" NAME="?qt_metacall@ProxyDialog@unicorn@@UAEHW4Call@QMetaObject@@HPAPAX@Z" PURGE="12" COMMENT="" />
    <EXPORT ORDINAL="734" NAME="?qt_metacall@ProxyWidget@unicorn@@UAEHW4Call@QMetaObject@@HPAPAX@Z" PURGE="12" COMMENT="" />
    <EXPORT ORDINAL="735" NAME="?qt_metacall@QtSingleApplication@@UAEHW4Call@QMetaObject@@HPAPAX@Z" PURGE="12" COMMENT="" />
    <EXPORT ORDINAL="736" NAME="?qt_metacall@QtSingleCoreApplication@@UAEHW4Call@QMetaObject@@HPAPAX@Z" PURGE="12" COMMENT="" />
    <EXPORT ORDINAL="737" NAME="?qt_metacall@ScrobbleConfirmationDialog@@UAEHW4Call@QMetaObject@@HPAPAX@Z" PURGE="12" COMMENT="" />
    <EXPORT ORDINAL="738" NAME="?qt_metacall@ScrobblesModel@@UAEHW4Call@QMetaObject@@HPAPAX@Z" PURGE="-1" COMMENT="" />
    <EXPORT ORDINAL="739" NAME="?qt_metacall@SearchBox@@UAEHW4Call@QMetaObject@@HPAPAX@Z" PURGE="12" COMMENT="" />
    <EXPORT ORDINAL="740" NAME="?qt_metacall@Session@unicorn@@UAEHW4Call@QMetaObject@@HPAPAX@Z" PURGE="12" COMMENT="" />
    <EXPORT ORDINAL="741" NAME="?qt_metacall@ShareDialog@@UAEHW4Call@QMetaObject@@HPAPAX@Z" PURGE="12" COMMENT="" />
    <EXPORT ORDINAL="742" NAME="?qt_metacall@SideBySideLayout@@UAEHW4Call@QMetaObject@@HPAPAX@Z" PURGE="12" COMMENT="" />
    <EXPORT ORDINAL="743" NAME="?qt_metacall@SignalBlocker@@UAEHW4Call@QMetaObject@@HPAPAX@Z" PURGE="12" COMMENT="" />
    <EXPORT ORDINAL="744" NAME="?qt_metacall@SlideOverLayout@@UAEHW4Call@QMetaObject@@HPAPAX@Z" PURGE="12" COMMENT="" />
    <EXPORT ORDINAL="745" NAME="?qt_metacall@SlidingStackedWidget@unicorn@@UAEHW4Call@QMetaObject@@HPAPAX@Z" PURGE="12" COMMENT="" />
    <EXPORT ORDINAL="746" NAME="?qt_metacall@StackedWidget@unicorn@@UAEHW4Call@QMetaObject@@HPAPAX@Z" PURGE="12" COMMENT="" />
    <EXPORT ORDINAL="747" NAME="?qt_metacall@TagDialog@@UAEHW4Call@QMetaObject@@HPAPAX@Z" PURGE="12" COMMENT="" />
    <EXPORT ORDINAL="748" NAME="?qt_metacall@TrackImageFetcher@@UAEHW4Call@QMetaObject@@HPAPAX@Z" PURGE="12" COMMENT="" />
    <EXPORT ORDINAL="749" NAME="?qt_metacall@TrackWidget@@UAEHW4Call@QMetaObject@@HPAPAX@Z" PURGE="12" COMMENT="" />
    <EXPORT ORDINAL="750" NAME="?qt_metacall@UpdateInfoFetcher@@UAEHW4Call@QMetaObject@@HPAPAX@Z" PURGE="-1" COMMENT="" />
    <EXPORT ORDINAL="751" NAME="?qt_metacall@Updater@unicorn@@UAEHW4Call@QMetaObject@@HPAPAX@Z" PURGE="12" COMMENT="" />
    <EXPORT ORDINAL="752" NAME="?qt_metacall@UserComboSelector@@UAEHW4Call@QMetaObject@@HPAPAX@Z" PURGE="12" COMMENT="" />
    <EXPORT ORDINAL="753" NAME="?qt_metacall@UserManagerDialog@@UAEHW4Call@QMetaObject@@HPAPAX@Z" PURGE="12" COMMENT="" />
    <EXPORT ORDINAL="754" NAME="?qt_metacall@UserManagerWidget@@UAEHW4Call@QMetaObject@@HPAPAX@Z" PURGE="12" COMMENT="" />
    <EXPORT ORDINAL="755" NAME="?qt_metacall@UserMenu@@UAEHW4Call@QMetaObject@@HPAPAX@Z" PURGE="12" COMMENT="" />
    <EXPORT ORDINAL="756" NAME="?qt_metacall@UserRadioButton@@UAEHW4Call@QMetaObject@@HPAPAX@Z" PURGE="12" COMMENT="" />
    <EXPORT ORDINAL="757" NAME="?qt_metacall@UserSearch@@UAEHW4Call@QMetaObject@@HPAPAX@Z" PURGE="12" COMMENT="" />
    <EXPORT ORDINAL="758" NAME="?qt_metacall@UserToolButton@@UAEHW4Call@QMetaObject@@HPAPAX@Z" PURGE="12" COMMENT="" />
    <EXPORT ORDINAL="759" NAME="?qt_metacall@WinampPluginInfo@unicorn@@UAEHW4Call@QMetaObject@@HPAPAX@Z" PURGE="12" COMMENT="" />
    <EXPORT ORDINAL="760" NAME="?qt_metacall@WmpPluginInfo@unicorn@@UAEHW4Call@QMetaObject@@HPAPAX@Z" PURGE="12" COMMENT="" />
    <EXPORT ORDINAL="761" NAME="?qt_metacast@ActionButton@@UAEPAXPBD@Z" PURGE="4" COMMENT="" />
    <EXPORT ORDINAL="762" NAME="?qt_metacast@AnimatedListLayout@@UAEPAXPBD@Z" PURGE="4" COMMENT="" />
    <EXPORT ORDINAL="763" NAME="?qt_metacast@AnimatedStatusBar@@UAEPAXPBD@Z" PURGE="4" COMMENT="" />
    <EXPORT ORDINAL="764" NAME="?qt_metacast@Application@unicorn@@UAEPAXPBD@Z" PURGE="4" COMMENT="" />
    <EXPORT ORDINAL="765" NAME="?qt_metacast@AvatarWidget@@UAEPAXPBD@Z" PURGE="4" COMMENT="" />
    <EXPORT ORDINAL="766" NAME="?qt_metacast@BannerWidget@@UAEPAXPBD@Z" PURGE="4" COMMENT="" />
    <EXPORT ORDINAL="767" NAME="?qt_metacast@CloseAppsDialog@unicorn@@UAEPAXPBD@Z" PURGE="4" COMMENT="" />
    <EXPORT ORDINAL="768" NAME="?qt_metacast@DataBox@@UAEPAXPBD@Z" PURGE="4" COMMENT="" />
    <EXPORT ORDINAL="769" NAME="?qt_metacast@DataListWidget@@UAEPAXPBD@Z" PURGE="4" COMMENT="" />
    <EXPORT ORDINAL="770" NAME="?qt_metacast@Dialog@unicorn@@UAEPAXPBD@Z" PURGE="4" COMMENT="" />
    <EXPORT ORDINAL="771" NAME="?qt_metacast@FooBar08PluginInfo@unicorn@@UAEPAXPBD@Z" PURGE="4" COMMENT="" />
    <EXPORT ORDINAL="772" NAME="?qt_metacast@FooBar09PluginInfo@unicorn@@UAEPAXPBD@Z" PURGE="4" COMMENT="" />
    <EXPORT ORDINAL="773" NAME="?qt_metacast@FriendsPicker@@UAEPAXPBD@Z" PURGE="4" COMMENT="" />
    <EXPORT ORDINAL="774" NAME="?qt_metacast@HttpImageWidget@@UAEPAXPBD@Z" PURGE="4" COMMENT="" />
    <EXPORT ORDINAL="775" NAME="?qt_metacast@IPluginInfo@unicorn@@UAEPAXPBD@Z" PURGE="4" COMMENT="" />
    <EXPORT ORDINAL="776" NAME="?qt_metacast@ITunesPluginInfo@unicorn@@UAEPAXPBD@Z" PURGE="4" COMMENT="" />
    <EXPORT ORDINAL="777" NAME="?qt_metacast@ItemSelectorWidget@@UAEPAXPBD@Z" PURGE="4" COMMENT="" />
    <EXPORT ORDINAL="778" NAME="?qt_metacast@Label@unicorn@@UAEPAXPBD@Z" PURGE="4" COMMENT="" />
    <EXPORT ORDINAL="779" NAME="?qt_metacast@LfmDelegate@@UAEPAXPBD@Z" PURGE="4" COMMENT="" />
    <EXPORT ORDINAL="780" NAME="?qt_metacast@LfmListModel@@UAEPAXPBD@Z" PURGE="4" COMMENT="" />
    <EXPORT ORDINAL="781" NAME="?qt_metacast@LfmListView@@UAEPAXPBD@Z" PURGE="4" COMMENT="" />
    <EXPORT ORDINAL="782" NAME="?qt_metacast@LoginContinueDialog@@UAEPAXPBD@Z" PURGE="4" COMMENT="" />
    <EXPORT ORDINAL="783" NAME="?qt_metacast@LoginDialog@@UAEPAXPBD@Z" PURGE="4" COMMENT="" />
    <EXPORT ORDINAL="784" NAME="?qt_metacast@LoginProcess@unicorn@@UAEPAXPBD@Z" PURGE="4" COMMENT="" />
    <EXPORT ORDINAL="785" NAME="?qt_metacast@MainWindow@unicorn@@UAEPAXPBD@Z" PURGE="4" COMMENT="" />
    <EXPORT ORDINAL="786" NAME="?qt_metacast@MessageBar@@UAEPAXPBD@Z" PURGE="4" COMMENT="" />
    <EXPORT ORDINAL="787" NAME="?qt_metacast@MessageDialog@unicorn@@UAEPAXPBD@Z" PURGE="4" COMMENT="" />
    <EXPORT ORDINAL="788" NAME="?qt_metacast@PluginList@unicorn@@UAEPAXPBD@Z" PURGE="4" COMMENT="" />
    <EXPORT ORDINAL="789" NAME="?qt_metacast@ProxyDialog@unicorn@@UAEPAXPBD@Z" PURGE="4" COMMENT="" />
    <EXPORT ORDINAL="790" NAME="?qt_metacast@ProxyWidget@unicorn@@UAEPAXPBD@Z" PURGE="4" COMMENT="" />
    <EXPORT ORDINAL="791" NAME="?qt_metacast@QtSingleApplication@@UAEPAXPBD@Z" PURGE="4" COMMENT="" />
    <EXPORT ORDINAL="792" NAME="?qt_metacast@QtSingleCoreApplication@@UAEPAXPBD@Z" PURGE="4" COMMENT="" />
    <EXPORT ORDINAL="793" NAME="?qt_metacast@ScrobbleConfirmationDialog@@UAEPAXPBD@Z" PURGE="4" COMMENT="" />
    <EXPORT ORDINAL="794" NAME="?qt_metacast@ScrobblesModel@@UAEPAXPBD@Z" PURGE="4" COMMENT="" />
    <EXPORT ORDINAL="795" NAME="?qt_metacast@SearchBox@@UAEPAXPBD@Z" PURGE="4" COMMENT="" />
    <EXPORT ORDINAL="796" NAME="?qt_metacast@Session@unicorn@@UAEPAXPBD@Z" PURGE="4" COMMENT="" />
    <EXPORT ORDINAL="797" NAME="?qt_metacast@ShareDialog@@UAEPAXPBD@Z" PURGE="4" COMMENT="" />
    <EXPORT ORDINAL="798" NAME="?qt_metacast@SideBySideLayout@@UAEPAXPBD@Z" PURGE="4" COMMENT="" />
    <EXPORT ORDINAL="799" NAME="?qt_metacast@SignalBlocker@@UAEPAXPBD@Z" PURGE="4" COMMENT="" />
    <EXPORT ORDINAL="800" NAME="?qt_metacast@SlideOverLayout@@UAEPAXPBD@Z" PURGE="4" COMMENT="" />
    <EXPORT ORDINAL="801" NAME="?qt_metacast@SlidingStackedWidget@unicorn@@UAEPAXPBD@Z" PURGE="4" COMMENT="" />
    <EXPORT ORDINAL="802" NAME="?qt_metacast@StackedWidget@unicorn@@UAEPAXPBD@Z" PURGE="4" COMMENT="" />
    <EXPORT ORDINAL="803" NAME="?qt_metacast@TagDialog@@UAEPAXPBD@Z" PURGE="4" COMMENT="" />
    <EXPORT ORDINAL="804" NAME="?qt_metacast@TrackImageFetcher@@UAEPAXPBD@Z" PURGE="4" COMMENT="" />
    <EXPORT ORDINAL="805" NAME="?qt_metacast@TrackWidget@@UAEPAXPBD@Z" PURGE="4" COMMENT="" />
    <EXPORT ORDINAL="806" NAME="?qt_metacast@UpdateInfoFetcher@@UAEPAXPBD@Z" PURGE="4" COMMENT="" />
    <EXPORT ORDINAL="807" NAME="?qt_metacast@Updater@unicorn@@UAEPAXPBD@Z" PURGE="4" COMMENT="" />
    <EXPORT ORDINAL="808" NAME="?qt_metacast@UserComboSelector@@UAEPAXPBD@Z" PURGE="4" COMMENT="" />
    <EXPORT ORDINAL="809" NAME="?qt_metacast@UserManagerDialog@@UAEPAXPBD@Z" PURGE="4" COMMENT="" />
    <EXPORT ORDINAL="810" NAME="?qt_metacast@UserManagerWidget@@UAEPAXPBD@Z" PURGE="4" COMMENT="" />
    <EXPORT ORDINAL="811" NAME="?qt_metacast@UserMenu@@UAEPAXPBD@Z" PURGE="4" COMMENT="" />
    <EXPORT ORDINAL="812" NAME="?qt_metacast@UserRadioButton@@UAEPAXPBD@Z" PURGE="4" COMMENT="" />
    <EXPORT ORDINAL="813" NAME="?qt_metacast@UserSearch@@UAEPAXPBD@Z" PURGE="4" COMMENT="" />
    <EXPORT ORDINAL="814" NAME="?qt_metacast@UserToolButton@@UAEPAXPBD@Z" PURGE="4" COMMENT="" />
    <EXPORT ORDINAL="815" NAME="?qt_metacast@WinampPluginInfo@unicorn@@UAEPAXPBD@Z" PURGE="4" COMMENT="" />
    <EXPORT ORDINAL="816" NAME="?qt_metacast@WmpPluginInfo@unicorn@@UAEPAXPBD@Z" PURGE="4" COMMENT="" />
    <EXPORT ORDINAL="817" NAME="?qt_static_metacall@ActionButton@@CAXPAVQObject@@W4Call@QMetaObject@@HPAPAX@Z" PURGE="0" COMMENT="" />
    <EXPORT ORDINAL="818" NAME="?qt_static_metacall@AnimatedListLayout@@CAXPAVQObject@@W4Call@QMetaObject@@HPAPAX@Z" PURGE="0" COMMENT="" />
    <EXPORT ORDINAL="819" NAME="?qt_static_metacall@AnimatedStatusBar@@CAXPAVQObject@@W4Call@QMetaObject@@HPAPAX@Z" PURGE="0" COMMENT="" />
    <EXPORT ORDINAL="820" NAME="?qt_static_metacall@Application@unicorn@@CAXPAVQObject@@W4Call@QMetaObject@@HPAPAX@Z" PURGE="0" COMMENT="" />
    <EXPORT ORDINAL="821" NAME="?qt_static_metacall@AvatarWidget@@CAXPAVQObject@@W4Call@QMetaObject@@HPAPAX@Z" PURGE="0" COMMENT="" />
    <EXPORT ORDINAL="822" NAME="?qt_static_metacall@BannerWidget@@CAXPAVQObject@@W4Call@QMetaObject@@HPAPAX@Z" PURGE="0" COMMENT="" />
    <EXPORT ORDINAL="823" NAME="?qt_static_metacall@CloseAppsDialog@unicorn@@CAXPAVQObject@@W4Call@QMetaObject@@HPAPAX@Z" PURGE="0" COMMENT="" />
    <EXPORT ORDINAL="824" NAME="?qt_static_metacall@DataBox@@CAXPAVQObject@@W4Call@QMetaObject@@HPAPAX@Z" PURGE="0" COMMENT="" />
    <EXPORT ORDINAL="825" NAME="?qt_static_metacall@DataListWidget@@CAXPAVQObject@@W4Call@QMetaObject@@HPAPAX@Z" PURGE="0" COMMENT="" />
    <EXPORT ORDINAL="826" NAME="?qt_static_metacall@Dialog@unicorn@@CAXPAVQObject@@W4Call@QMetaObject@@HPAPAX@Z" PURGE="0" COMMENT="" />
    <EXPORT ORDINAL="827" NAME="?qt_static_metacall@FooBar08PluginInfo@unicorn@@CAXPAVQObject@@W4Call@QMetaObject@@HPAPAX@Z" PURGE="0" COMMENT="" />
    <EXPORT ORDINAL="828" NAME="?qt_static_metacall@FooBar09PluginInfo@unicorn@@CAXPAVQObject@@W4Call@QMetaObject@@HPAPAX@Z" PURGE="0" COMMENT="" />
    <EXPORT ORDINAL="829" NAME="?qt_static_metacall@FriendsPicker@@CAXPAVQObject@@W4Call@QMetaObject@@HPAPAX@Z" PURGE="0" COMMENT="" />
    <EXPORT ORDINAL="830" NAME="?qt_static_metacall@HttpImageWidget@@CAXPAVQObject@@W4Call@QMetaObject@@HPAPAX@Z" PURGE="0" COMMENT="" />
    <EXPORT ORDINAL="831" NAME="?qt_static_metacall@IPluginInfo@unicorn@@CAXPAVQObject@@W4Call@QMetaObject@@HPAPAX@Z" PURGE="0" COMMENT="" />
    <EXPORT ORDINAL="832" NAME="?qt_static_metacall@ITunesPluginInfo@unicorn@@CAXPAVQObject@@W4Call@QMetaObject@@HPAPAX@Z" PURGE="0" COMMENT="" />
    <EXPORT ORDINAL="833" NAME="?qt_static_metacall@ItemSelectorWidget@@CAXPAVQObject@@W4Call@QMetaObject@@HPAPAX@Z" PURGE="0" COMMENT="" />
    <EXPORT ORDINAL="834" NAME="?qt_static_metacall@Label@unicorn@@CAXPAVQObject@@W4Call@QMetaObject@@HPAPAX@Z" PURGE="0" COMMENT="" />
    <EXPORT ORDINAL="835" NAME="?qt_static_metacall@LfmDelegate@@CAXPAVQObject@@W4Call@QMetaObject@@HPAPAX@Z" PURGE="0" COMMENT="" />
    <EXPORT ORDINAL="836" NAME="?qt_static_metacall@LfmListModel@@CAXPAVQObject@@W4Call@QMetaObject@@HPAPAX@Z" PURGE="0" COMMENT="" />
    <EXPORT ORDINAL="837" NAME="?qt_static_metacall@LfmListView@@CAXPAVQObject@@W4Call@QMetaObject@@HPAPAX@Z" PURGE="0" COMMENT="" />
    <EXPORT ORDINAL="838" NAME="?qt_static_metacall@LoginContinueDialog@@CAXPAVQObject@@W4Call@QMetaObject@@HPAPAX@Z" PURGE="0" COMMENT="" />
    <EXPORT ORDINAL="839" NAME="?qt_static_metacall@LoginDialog@@CAXPAVQObject@@W4Call@QMetaObject@@HPAPAX@Z" PURGE="0" COMMENT="" />
    <EXPORT ORDINAL="840" NAME="?qt_static_metacall@LoginProcess@unicorn@@CAXPAVQObject@@W4Call@QMetaObject@@HPAPAX@Z" PURGE="0" COMMENT="" />
    <EXPORT ORDINAL="841" NAME="?qt_static_metacall@MainWindow@unicorn@@CAXPAVQObject@@W4Call@QMetaObject@@HPAPAX@Z" PURGE="0" COMMENT="" />
    <EXPORT ORDINAL="842" NAME="?qt_static_metacall@MessageBar@@CAXPAVQObject@@W4Call@QMetaObject@@HPAPAX@Z" PURGE="0" COMMENT="" />
    <EXPORT ORDINAL="843" NAME="?qt_static_metacall@MessageDialog@unicorn@@CAXPAVQObject@@W4Call@QMetaObject@@HPAPAX@Z" PURGE="0" COMMENT="" />
    <EXPORT ORDINAL="844" NAME="?qt_static_metacall@PluginList@unicorn@@CAXPAVQObject@@W4Call@QMetaObject@@HPAPAX@Z" PURGE="0" COMMENT="" />
    <EXPORT ORDINAL="845" NAME="?qt_static_metacall@ProxyDialog@unicorn@@CAXPAVQObject@@W4Call@QMetaObject@@HPAPAX@Z" PURGE="0" COMMENT="" />
    <EXPORT ORDINAL="846" NAME="?qt_static_metacall@ProxyWidget@unicorn@@CAXPAVQObject@@W4Call@QMetaObject@@HPAPAX@Z" PURGE="0" COMMENT="" />
    <EXPORT ORDINAL="847" NAME="?qt_static_metacall@QtSingleApplication@@CAXPAVQObject@@W4Call@QMetaObject@@HPAPAX@Z" PURGE="0" COMMENT="" />
    <EXPORT ORDINAL="848" NAME="?qt_static_metacall@QtSingleCoreApplication@@CAXPAVQObject@@W4Call@QMetaObject@@HPAPAX@Z" PURGE="0" COMMENT="" />
    <EXPORT ORDINAL="849" NAME="?qt_static_metacall@ScrobbleConfirmationDialog@@CAXPAVQObject@@W4Call@QMetaObject@@HPAPAX@Z" PURGE="0" COMMENT="" />
    <EXPORT ORDINAL="850" NAME="?qt_static_metacall@ScrobblesModel@@CAXPAVQObject@@W4Call@QMetaObject@@HPAPAX@Z" PURGE="0" COMMENT="" />
    <EXPORT ORDINAL="851" NAME="?qt_static_metacall@SearchBox@@CAXPAVQObject@@W4Call@QMetaObject@@HPAPAX@Z" PURGE="0" COMMENT="" />
    <EXPORT ORDINAL="852" NAME="?qt_static_metacall@Session@unicorn@@CAXPAVQObject@@W4Call@QMetaObject@@HPAPAX@Z" PURGE="0" COMMENT="" />
    <EXPORT ORDINAL="853" NAME="?qt_static_metacall@ShareDialog@@CAXPAVQObject@@W4Call@QMetaObject@@HPAPAX@Z" PURGE="0" COMMENT="" />
    <EXPORT ORDINAL="854" NAME="?qt_static_metacall@SideBySideLayout@@CAXPAVQObject@@W4Call@QMetaObject@@HPAPAX@Z" PURGE="0" COMMENT="" />
    <EXPORT ORDINAL="855" NAME="?qt_static_metacall@SignalBlocker@@CAXPAVQObject@@W4Call@QMetaObject@@HPAPAX@Z" PURGE="0" COMMENT="" />
    <EXPORT ORDINAL="856" NAME="?qt_static_metacall@SlideOverLayout@@CAXPAVQObject@@W4Call@QMetaObject@@HPAPAX@Z" PURGE="0" COMMENT="" />
    <EXPORT ORDINAL="857" NAME="?qt_static_metacall@SlidingStackedWidget@unicorn@@CAXPAVQObject@@W4Call@QMetaObject@@HPAPAX@Z" PURGE="0" COMMENT="" />
    <EXPORT ORDINAL="858" NAME="?qt_static_metacall@StackedWidget@unicorn@@CAXPAVQObject@@W4Call@QMetaObject@@HPAPAX@Z" PURGE="0" COMMENT="" />
    <EXPORT ORDINAL="859" NAME="?qt_static_metacall@TagDialog@@CAXPAVQObject@@W4Call@QMetaObject@@HPAPAX@Z" PURGE="0" COMMENT="" />
    <EXPORT ORDINAL="860" NAME="?qt_static_metacall@TrackImageFetcher@@CAXPAVQObject@@W4Call@QMetaObject@@HPAPAX@Z" PURGE="0" COMMENT="" />
    <EXPORT ORDINAL="861" NAME="?qt_static_metacall@TrackWidget@@CAXPAVQObject@@W4Call@QMetaObject@@HPAPAX@Z" PURGE="0" COMMENT="" />
    <EXPORT ORDINAL="862" NAME="?qt_static_metacall@UpdateInfoFetcher@@CAXPAVQObject@@W4Call@QMetaObject@@HPAPAX@Z" PURGE="0" COMMENT="" />
    <EXPORT ORDINAL="863" NAME="?qt_static_metacall@Updater@unicorn@@CAXPAVQObject@@W4Call@QMetaObject@@HPAPAX@Z" PURGE="0" COMMENT="" />
    <EXPORT ORDINAL="864" NAME="?qt_static_metacall@UserComboSelector@@CAXPAVQObject@@W4Call@QMetaObject@@HPAPAX@Z" PURGE="0" COMMENT="" />
    <EXPORT ORDINAL="865" NAME="?qt_static_metacall@UserManagerDialog@@CAXPAVQObject@@W4Call@QMetaObject@@HPAPAX@Z" PURGE="0" COMMENT="" />
    <EXPORT ORDINAL="866" NAME="?qt_static_metacall@UserManagerWidget@@CAXPAVQObject@@W4Call@QMetaObject@@HPAPAX@Z" PURGE="0" COMMENT="" />
    <EXPORT ORDINAL="867" NAME="?qt_static_metacall@UserMenu@@CAXPAVQObject@@W4Call@QMetaObject@@HPAPAX@Z" PURGE="0" COMMENT="" />
    <EXPORT ORDINAL="868" NAME="?qt_static_metacall@UserRadioButton@@CAXPAVQObject@@W4Call@QMetaObject@@HPAPAX@Z" PURGE="0" COMMENT="" />
    <EXPORT ORDINAL="869" NAME="?qt_static_metacall@UserSearch@@CAXPAVQObject@@W4Call@QMetaObject@@HPAPAX@Z" PURGE="0" COMMENT="" />
    <EXPORT ORDINAL="870" NAME="?qt_static_metacall@UserToolButton@@CAXPAVQObject@@W4Call@QMetaObject@@HPAPAX@Z" PURGE="0" COMMENT="" />
    <EXPORT ORDINAL="871" NAME="?qt_static_metacall@WinampPluginInfo@unicorn@@CAXPAVQObject@@W4Call@QMetaObject@@HPAPAX@Z" PURGE="0" COMMENT="" />
    <EXPORT ORDINAL="872" NAME="?qt_static_metacall@WmpPluginInfo@unicorn@@CAXPAVQObject@@W4Call@QMetaObject@@HPAPAX@Z" PURGE="0" COMMENT="" />
    <EXPORT ORDINAL="873" NAME="?read@Session@unicorn@@QAEAAVQDataStream@@AAV3@@Z" PURGE="4" COMMENT="" />
    <EXPORT ORDINAL="874" NAME="?realName@UserSettings@unicorn@@QBE?AVQString@@XZ" PURGE="4" COMMENT="" />
    <EXPORT ORDINAL="875" NAME="?refresh@UserComboSelector@@IAEXXZ" PURGE="0" COMMENT="" />
    <EXPORT ORDINAL="876" NAME="?refresh@UserMenu@@IAEXXZ" PURGE="0" COMMENT="" />
    <EXPORT ORDINAL="877" NAME="?refreshStyleSheet@Application@unicorn@@QAEXXZ" PURGE="0" COMMENT="" />
    <EXPORT ORDINAL="878" NAME="?refreshStyleSheet@MainWindow@unicorn@@QAEXXZ" PURGE="0" COMMENT="" />
    <EXPORT ORDINAL="879" NAME="?regDisplayName@Plugin@@QBE?AVQString@@XZ" PURGE="4" COMMENT="" />
    <EXPORT ORDINAL="880" NAME="?registeredRadio@Session@unicorn@@QBE_NXZ" PURGE="0" COMMENT="" />
    <EXPORT ORDINAL="881" NAME="?registeredWebRadio@Session@unicorn@@QBE_NXZ" PURGE="0" COMMENT="" />
    <EXPORT ORDINAL="882" NAME="?remove@UserRadioButton@@IAEXXZ" PURGE="0" COMMENT="" />
    <EXPORT ORDINAL="883" NAME="?removeItem@FlowLayout@@QAEXPAVQLayoutItem@@@Z" PURGE="4" COMMENT="" />
    <EXPORT ORDINAL="884" NAME="?resizeEvent@MainWindow@unicorn@@EAEXPAVQResizeEvent@@@Z" PURGE="4" COMMENT="" />
    <EXPORT ORDINAL="885" NAME="?restart@Application@unicorn@@QAEXXZ" PURGE="0" COMMENT="" />
    <EXPORT ORDINAL="886" NAME="?restoreState@Dialog@unicorn@@IBE?AVQVariant@@PBVQObject@@ABVQString@@ABV3@@Z" PURGE="16" COMMENT="" />
    <EXPORT ORDINAL="887" NAME="?revealWidget@SlideOverLayout@@QAEXPAVQWidget@@@Z" PURGE="4" COMMENT="" />
    <EXPORT ORDINAL="888" NAME="?rosterUpdated@Application@unicorn@@IAEXXZ" PURGE="0" COMMENT="" />
    <EXPORT ORDINAL="889" NAME="?rosterUpdated@UserManagerDialog@@IAEXXZ" PURGE="0" COMMENT="" />
    <EXPORT ORDINAL="890" NAME="?rosterUpdated@UserManagerWidget@@IAEXXZ" PURGE="0" COMMENT="" />
    <EXPORT ORDINAL="891" NAME="?rowCount@LfmListModel@@UBEHABVQModelIndex@@@Z" PURGE="4" COMMENT="" />
    <EXPORT ORDINAL="892" NAME="?rowCount@ScrobblesModel@@UBEHABVQModelIndex@@@Z" PURGE="4" COMMENT="" />
    <EXPORT ORDINAL="893" NAME="?runningApps@CloseAppsDialog@unicorn@@AAE?AVQStringList@@XZ" PURGE="4" COMMENT="" />
    <EXPORT ORDINAL="894" NAME="?runningApps@CloseAppsDialog@unicorn@@CA?AVQStringList@@ABV?$QList@PAVIPluginInfo@unicorn@@@@@Z" PURGE="0" COMMENT="" />
    <EXPORT ORDINAL="895" NAME="?save@ProxyWidget@unicorn@@QAEXXZ" PURGE="0" COMMENT="" />
    <EXPORT ORDINAL="896" NAME="?saveState@Dialog@unicorn@@IBEXPBVQObject@@ABVQString@@ABVQVariant@@@Z" PURGE="12" COMMENT="" />
    <EXPORT ORDINAL="897" NAME="?scrobbleCount@UserSettings@unicorn@@QBEIXZ" PURGE="0" COMMENT="" />
    <EXPORT ORDINAL="898" NAME="?scrobblePoint@UserSettings@unicorn@@QBENXZ" PURGE="0" COMMENT="" />
    <EXPORT ORDINAL="899" NAME="?scrobblingOn@UserSettings@unicorn@@QBE_NXZ" PURGE="0" COMMENT="" />
    <EXPORT ORDINAL="900" NAME="?selection@FriendsPicker@@QBE?AV?$QList@VUser@lastfm@@@@XZ" PURGE="4" COMMENT="" />
    <EXPORT ORDINAL="901" NAME="?sendBusLovedStateChanged@Application@unicorn@@QAEX_N@Z" PURGE="4" COMMENT="" />
    <EXPORT ORDINAL="902" NAME="?sendCrashReports@Settings@unicorn@@QBE_NXZ" PURGE="0" COMMENT="" />
    <EXPORT ORDINAL="903" NAME="?sendMessage@QtSingleApplication@@QAE_NABVQStringList@@H@Z" PURGE="8" COMMENT="" />
    <EXPORT ORDINAL="904" NAME="?sendMessage@QtSingleCoreApplication@@QAE_NABVQStringList@@H@Z" PURGE="8" COMMENT="" />
    <EXPORT ORDINAL="905" NAME="?sessionChanged@Application@unicorn@@IAEXABVSession@2@@Z" PURGE="4" COMMENT="" />
    <EXPORT ORDINAL="906" NAME="?sessionChanged@Session@unicorn@@IAEXABV12@@Z" PURGE="4" COMMENT="" />
    <EXPORT ORDINAL="907" NAME="?sessionInfo@UserSettings@unicorn@@QAE?AUInfo@Session@2@XZ" PURGE="4" COMMENT="" />
    <EXPORT ORDINAL="908" NAME="?sessionKey@Session@unicorn@@QBE?AVQString@@XZ" PURGE="4" COMMENT="" />
    <EXPORT ORDINAL="909" NAME="?sessionKey@UserSettings@unicorn@@QBE?AVQString@@XZ" PURGE="4" COMMENT="" />
    <EXPORT ORDINAL="910" NAME="?setAction@ActionButton@@QAEXPAVQAction@@@Z" PURGE="4" COMMENT="" />
    <EXPORT ORDINAL="911" NAME="?setActivationWindow@QtSingleApplication@@QAEXPAVQWidget@@_N@Z" PURGE="8" COMMENT="" />
    <EXPORT ORDINAL="912" NAME="?setAlwaysAsk@AppSettings@unicorn@@QAEX_N@Z" PURGE="4" COMMENT="" />
    <EXPORT ORDINAL="913" NAME="?setAnimated@AnimatedListLayout@@QAEX_N@Z" PURGE="4" COMMENT="" />
    <EXPORT ORDINAL="914" NAME="?setAnimation@SlidingStackedWidget@unicorn@@QAEXW4Type@QEasingCurve@@@Z" PURGE="4" COMMENT="" />
    <EXPORT ORDINAL="915" NAME="?setBannerVisible@BannerWidget@@QAEX_N@Z" PURGE="-1" COMMENT="" />
    <EXPORT ORDINAL="916" NAME="?setBetaUpdates@Settings@unicorn@@QAEX_N@Z" PURGE="4" COMMENT="" />
    <EXPORT ORDINAL="917" NAME="?setBetaUpdates@Updater@unicorn@@QAEX_N@Z" PURGE="4" COMMENT="" />
    <EXPORT ORDINAL="918" NAME="?setButtonText@QMessageBoxBuilder@@QAEAAV1@W4StandardButton@QMessageBox@@ABVQString@@@Z" PURGE="8" COMMENT="" />
    <EXPORT ORDINAL="919" NAME="?setButtons@QMessageBoxBuilder@@QAEAAV1@V?$QFlags@W4StandardButton@QMessageBox@@@@@Z" PURGE="4" COMMENT="" />
    <EXPORT ORDINAL="920" NAME="?setCheckBox@MessageDialog@unicorn@@QAEX_N@Z" PURGE="-1" COMMENT="" />
    <EXPORT ORDINAL="921" NAME="?setCheckForUpdates@Settings@unicorn@@QAEX_N@Z" PURGE="4" COMMENT="" />
    <EXPORT ORDINAL="922" NAME="?setColor@StatusLight@@QAEXABVQColor@@@Z" PURGE="-1" COMMENT="" />
    <EXPORT ORDINAL="923" NAME="?setData@ScrobblesModel@@UAE_NABVQModelIndex@@ABVQVariant@@H@Z" PURGE="12" COMMENT="" />
    <EXPORT ORDINAL="924" NAME="?setDateRegistered@UserSettings@unicorn@@QAEXABVQDateTime@@@Z" PURGE="4" COMMENT="" />
    <EXPORT ORDINAL="925" NAME="?setDefaultImage@LfmDelegate@@QAEXVQPixmap@@@Z" PURGE="12" COMMENT="" />
    <EXPORT ORDINAL="926" NAME="?setDescription@CloseAppsDialog@unicorn@@QAEXABVQString@@@Z" PURGE="4" COMMENT="" />
    <EXPORT ORDINAL="927" NAME="?setDeviceScrobblingEnabled@OldeAppSettings@unicorn@@QAEX_N@Z" PURGE="4" COMMENT="" />
    <EXPORT ORDINAL="928" NAME="?setEasingCurve@AnimatedListLayout@@QAEXW4Type@QEasingCurve@@@Z" PURGE="4" COMMENT="" />
    <EXPORT ORDINAL="929" NAME="?setEasingCurve@SlidingStackedWidget@unicorn@@QAEXW4Type@QEasingCurve@@@Z" PURGE="4" COMMENT="" />
    <EXPORT ORDINAL="930" NAME="?setEnforceScrobbleTimeMax@UserSettings@unicorn@@QAEX_N@Z" PURGE="4" COMMENT="" />
    <EXPORT ORDINAL="931" NAME="?setExclusionDirs@UserSettings@unicorn@@QAEXABVQStringList@@@Z" PURGE="4" COMMENT="" />
    <EXPORT ORDINAL="932" NAME="?setFingerprinting@UserSettings@unicorn@@QAEX_N@Z" PURGE="4" COMMENT="" />
    <EXPORT ORDINAL="933" NAME="?setFirstRunWizardCompleted@Settings@unicorn@@QAEX_N@Z" PURGE="4" COMMENT="" />
    <EXPORT ORDINAL="934" NAME="?setGeometry@AnimatedListLayout@@UAEXABVQRect@@@Z" PURGE="4" COMMENT="" />
    <EXPORT ORDINAL="935" NAME="?setGeometry@FlowLayout@@UAEXABVQRect@@@Z" PURGE="4" COMMENT="" />
    <EXPORT ORDINAL="936" NAME="?setGeometry@SideBySideLayout@@UAEXABVQRect@@@Z" PURGE="4" COMMENT="" />
    <EXPORT ORDINAL="937" NAME="?setGeometry@SlideOverLayout@@UAEXABVQRect@@@Z" PURGE="4" COMMENT="" />
    <EXPORT ORDINAL="938" NAME="?setHref@BannerWidget@@QAEXABVQUrl@@@Z" PURGE="4" COMMENT="" />
    <EXPORT ORDINAL="939" NAME="?setHref@HttpImageWidget@@QAEXABVQUrl@@@Z" PURGE="4" COMMENT="" />
    <EXPORT ORDINAL="940" NAME="?setIcon@MessageDialog@unicorn@@QAEXW4Icon@QMessageBox@@@Z" PURGE="4" COMMENT="" />
    <EXPORT ORDINAL="941" NAME="?setIcon@QMessageBoxBuilder@@QAEAAV1@W4Icon@QMessageBox@@@Z" PURGE="4" COMMENT="" />
    <EXPORT ORDINAL="942" NAME="?setInformativeText@MessageDialog@unicorn@@QAEXABVQString@@@Z" PURGE="-1" COMMENT="" />
    <EXPORT ORDINAL="943" NAME="?setLaunchWithMediaPlayers@OldeAppSettings@unicorn@@QAEX_N@Z" PURGE="4" COMMENT="" />
    <EXPORT ORDINAL="944" NAME="?setLinkColor@Label@unicorn@@QAEXVQColor@@@Z" PURGE="16" COMMENT="" />
    <EXPORT ORDINAL="945" NAME="?setNotifications@Settings@unicorn@@QAEX_N@Z" PURGE="4" COMMENT="" />
    <EXPORT ORDINAL="946" NAME="?setOneLine@FlowLayout@@QAEX_N@Z" PURGE="4" COMMENT="" />
    <EXPORT ORDINAL="947" NAME="?setOrigin@GhostWidget@@QAEXPAVQWidget@@@Z" PURGE="4" COMMENT="" />
    <EXPORT ORDINAL="948" NAME="?setOwnsPlugins@CloseAppsDialog@unicorn@@QAEX_N@Z" PURGE="4" COMMENT="" />
    <EXPORT ORDINAL="949" NAME="?setPixmap@ImageButton@@QAEXABVQPixmap@@W4State@QIcon@@W4Mode@4@@Z" PURGE="12" COMMENT="" />
    <EXPORT ORDINAL="950" NAME="?setPodcasts@UserSettings@unicorn@@QAEX_N@Z" PURGE="4" COMMENT="" />
    <EXPORT ORDINAL="951" NAME="?setReadOnly@ScrobbleConfirmationDialog@@QAEXXZ" PURGE="0" COMMENT="" />
    <EXPORT ORDINAL="952" NAME="?setReadOnly@ScrobblesModel@@QAEXXZ" PURGE="0" COMMENT="" />
    <EXPORT ORDINAL="953" NAME="?setRealName@UserSettings@unicorn@@QAEXABVQString@@@Z" PURGE="4" COMMENT="" />
    <EXPORT ORDINAL="954" NAME="?setScrobbleCount@UserSettings@unicorn@@QAEXI@Z" PURGE="4" COMMENT="" />
    <EXPORT ORDINAL="955" NAME="?setScrobblePoint@UserSettings@unicorn@@QAEXN@Z" PURGE="8" COMMENT="" />
    <EXPORT ORDINAL="956" NAME="?setScrobblingOn@UserSettings@unicorn@@QAEX_N@Z" PURGE="4" COMMENT="" />
    <EXPORT ORDINAL="957" NAME="?setSendCrashReports@Settings@unicorn@@QAEX_N@Z" PURGE="4" COMMENT="" />
    <EXPORT ORDINAL="958" NAME="?setSessionInfo@UserSettings@unicorn@@QAEXABUInfo@Session@2@@Z" PURGE="4" COMMENT="" />
    <EXPORT ORDINAL="959" NAME="?setSessionKey@UserSettings@unicorn@@QAEXABVQString@@@Z" PURGE="4" COMMENT="" />
    <EXPORT ORDINAL="960" NAME="?setShowAS@Settings@unicorn@@QAEX_N@Z" PURGE="4" COMMENT="" />
    <EXPORT ORDINAL="961" NAME="?setShowDock@Settings@unicorn@@QAEX_N@Z" PURGE="4" COMMENT="" />
    <EXPORT ORDINAL="962" NAME="?setSpeed@SlidingStackedWidget@unicorn@@QAEXH@Z" PURGE="4" COMMENT="" />
    <EXPORT ORDINAL="963" NAME="?setStandardButtons@MessageDialog@unicorn@@QAEXV?$QFlags@W4StandardButton@QMessageBox@@@@@Z" PURGE="4" COMMENT="" />
    <EXPORT ORDINAL="964" NAME="?setSubscriber@UserSettings@unicorn@@QAEX_N@Z" PURGE="4" COMMENT="" />
    <EXPORT ORDINAL="965" NAME="?setText@Label@unicorn@@QAEXABVQString@@@Z" PURGE="4" COMMENT="" />
    <EXPORT ORDINAL="966" NAME="?setText@MessageDialog@unicorn@@QAEXABVQString@@@Z" PURGE="-1" COMMENT="" />
    <EXPORT ORDINAL="967" NAME="?setText@QMessageBoxBuilder@@QAEAAV1@ABVQString@@@Z" PURGE="4" COMMENT="" />
    <EXPORT ORDINAL="968" NAME="?setTitle@CloseAppsDialog@unicorn@@QAEXABVQString@@@Z" PURGE="-1" COMMENT="" />
    <EXPORT ORDINAL="969" NAME="?setTitle@QMessageBoxBuilder@@QAEAAV1@ABVQString@@@Z" PURGE="4" COMMENT="" />
    <EXPORT ORDINAL="970" NAME="?setType@ItemSelectorWidget@@QAEXW4Type@1@@Z" PURGE="4" COMMENT="" />
    <EXPORT ORDINAL="971" NAME="?setType@UserSettings@unicorn@@QAEXW4Type@User@lastfm@@@Z" PURGE="4" COMMENT="" />
    <EXPORT ORDINAL="972" NAME="?setUser@AvatarWidget@@QAEXABVUser@lastfm@@@Z" PURGE="4" COMMENT="" />
    <EXPORT ORDINAL="973" NAME="?setUser@UserRadioButton@@AAEXABVUser@lastfm@@@Z" PURGE="4" COMMENT="" />
    <EXPORT ORDINAL="974" NAME="?setVerbose@IPluginInfo@unicorn@@QAEX_N@Z" PURGE="4" COMMENT="" />
    <EXPORT ORDINAL="975" NAME="?setVisible@Dialog@unicorn@@UAEX_N@Z" PURGE="4" COMMENT="" />
    <EXPORT ORDINAL="976" NAME="?setWidget@BannerWidget@@QAEXPAVQWidget@@@Z" PURGE="4" COMMENT="" />
    <EXPORT ORDINAL="977" NAME="?setWizardRunning@Application@unicorn@@IAEX_N@Z" PURGE="4" COMMENT="" />
    <EXPORT ORDINAL="978" NAME="?setupHotKeys@Application@unicorn@@AAEXXZ" PURGE="0" COMMENT="" />
    <EXPORT ORDINAL="979" NAME="?shareFacebook@ShareDialog@@SAXABVTrack@lastfm@@@Z" PURGE="0" COMMENT="" />
    <EXPORT ORDINAL="980" NAME="?shareTwitter@ShareDialog@@SAXABVTrack@lastfm@@@Z" PURGE="0" COMMENT="" />
    <EXPORT ORDINAL="981" NAME="?sheet@QMessageBoxBuilder@@QAEAAV1@XZ" PURGE="0" COMMENT="" />
    <EXPORT ORDINAL="982" NAME="?show@MessageBar@@QAEXABVQString@@0H@Z" PURGE="12" COMMENT="" />
    <EXPORT ORDINAL="983" NAME="?showAS@Settings@unicorn@@QAE_NXZ" PURGE="0" COMMENT="" />
    <EXPORT ORDINAL="984" NAME="?showAnimated@AnimatedStatusBar@@QAEXXZ" PURGE="0" COMMENT="" />
    <EXPORT ORDINAL="985" NAME="?showDock@Settings@unicorn@@QAE_NXZ" PURGE="0" COMMENT="" />
    <EXPORT ORDINAL="986" NAME="?showEvent@CloseAppsDialog@unicorn@@EAEXPAVQShowEvent@@@Z" PURGE="4" COMMENT="" />
    <EXPORT ORDINAL="987" NAME="?showEvent@MainWindow@unicorn@@EAEXPAVQShowEvent@@@Z" PURGE="4" COMMENT="" />
    <EXPORT ORDINAL="988" NAME="?showPluginList@CloseAppsDialog@unicorn@@QAEX_N@Z" PURGE="-1" COMMENT="" />
    <EXPORT ORDINAL="989" NAME="?showWhere@Settings@unicorn@@AAEXXZ" PURGE="0" COMMENT="" />
    <EXPORT ORDINAL="990" NAME="?shown@MainWindow@unicorn@@IAEX_N@Z" PURGE="4" COMMENT="" />
    <EXPORT ORDINAL="991" NAME="?sizeHint@AnimatedListLayout@@UBE?AVQSize@@XZ" PURGE="4" COMMENT="" />
    <EXPORT ORDINAL="992" NAME="?sizeHint@BannerWidget@@UBE?AVQSize@@XZ" PURGE="4" COMMENT="" />
    <EXPORT ORDINAL="993" NAME="?sizeHint@FlowLayout@@UBE?AVQSize@@XZ" PURGE="4" COMMENT="" />
    <EXPORT ORDINAL="994" NAME="?sizeHint@ImageButton@@UBE?AVQSize@@XZ" PURGE="4" COMMENT="" />
    <EXPORT ORDINAL="995" NAME="?sizeHint@Label@unicorn@@EBE?AVQSize@@XZ" PURGE="4" COMMENT="" />
    <EXPORT ORDINAL="996" NAME="?sizeHint@LfmDelegate@@UBE?AVQSize@@ABVQStyleOptionViewItem@@ABVQModelIndex@@@Z" PURGE="12" COMMENT="" />
    <EXPORT ORDINAL="997" NAME="?sizeHint@SideBySideLayout@@UBE?AVQSize@@XZ" PURGE="4" COMMENT="" />
    <EXPORT ORDINAL="998" NAME="?sizeHint@SlideOverLayout@@UBE?AVQSize@@XZ" PURGE="4" COMMENT="" />
    <EXPORT ORDINAL="999" NAME="?sizeHint@StackedWidget@unicorn@@EBE?AVQSize@@XZ" PURGE="4" COMMENT="" />
    <EXPORT ORDINAL="1000" NAME="?slide@SlidingStackedWidget@unicorn@@QAEXH@Z" PURGE="4" COMMENT="" />
    <EXPORT ORDINAL="1001" NAME="?slideWidget@SlidingStackedWidget@unicorn@@IAEXPAVQWidget@@@Z" PURGE="4" COMMENT="" />
    <EXPORT ORDINAL="1002" NAME="?smartSpacing@FlowLayout@@ABEHW4PixelMetric@QStyle@@@Z" PURGE="4" COMMENT="" />
    <EXPORT ORDINAL="1003" NAME="?speed@SlidingStackedWidget@unicorn@@QBEHXZ" PURGE="0" COMMENT="" />
    <EXPORT ORDINAL="1004" NAME="?start@SignalBlocker@@QAE_NXZ" PURGE="0" COMMENT="" />
    <EXPORT ORDINAL="1005" NAME="?startAlbum@TrackImageFetcher@@QAEXXZ" PURGE="0" COMMENT="" />
    <EXPORT ORDINAL="1006" NAME="?startArtist@TrackImageFetcher@@QAEXXZ" PURGE="0" COMMENT="" />
    <EXPORT ORDINAL="1007" NAME="?startSearch@ArtistSearch@@UAEPAVQNetworkReply@@ABVQString@@@Z" PURGE="4" COMMENT="" />
    <EXPORT ORDINAL="1008" NAME="?startSearch@TagSearch@@UAEPAVQNetworkReply@@ABVQString@@@Z" PURGE="4" COMMENT="" />
    <EXPORT ORDINAL="1009" NAME="?startSearch@UserSearch@@UAEPAVQNetworkReply@@ABVQString@@@Z" PURGE="4" COMMENT="" />
    <EXPORT ORDINAL="1010" NAME="?startTrack@TrackImageFetcher@@QAEXXZ" PURGE="0" COMMENT="" />
    <EXPORT ORDINAL="1011" NAME="?staticMetaObject@ActionButton@@2UQMetaObject@@B" PURGE="-1" COMMENT="" />
    <EXPORT ORDINAL="1012" NAME="?staticMetaObject@AnimatedListLayout@@2UQMetaObject@@B" PURGE="-1" COMMENT="" />
    <EXPORT ORDINAL="1013" NAME="?staticMetaObject@AnimatedStatusBar@@2UQMetaObject@@B" PURGE="-1" COMMENT="" />
    <EXPORT ORDINAL="1014" NAME="?staticMetaObject@Application@unicorn@@2UQMetaObject@@B" PURGE="-1" COMMENT="" />
    <EXPORT ORDINAL="1015" NAME="?staticMetaObject@AvatarWidget@@2UQMetaObject@@B" PURGE="-1" COMMENT="" />
    <EXPORT ORDINAL="1016" NAME="?staticMetaObject@BannerWidget@@2UQMetaObject@@B" PURGE="-1" COMMENT="" />
    <EXPORT ORDINAL="1017" NAME="?staticMetaObject@CloseAppsDialog@unicorn@@2UQMetaObject@@B" PURGE="-1" COMMENT="" />
    <EXPORT ORDINAL="1018" NAME="?staticMetaObject@DataBox@@2UQMetaObject@@B" PURGE="-1" COMMENT="" />
    <EXPORT ORDINAL="1019" NAME="?staticMetaObject@DataListWidget@@2UQMetaObject@@B" PURGE="-1" COMMENT="" />
    <EXPORT ORDINAL="1020" NAME="?staticMetaObject@Dialog@unicorn@@2UQMetaObject@@B" PURGE="-1" COMMENT="" />
    <EXPORT ORDINAL="1021" NAME="?staticMetaObject@FooBar08PluginInfo@unicorn@@2UQMetaObject@@B" PURGE="-1" COMMENT="" />
    <EXPORT ORDINAL="1022" NAME="?staticMetaObject@FooBar09PluginInfo@unicorn@@2UQMetaObject@@B" PURGE="-1" COMMENT="" />
    <EXPORT ORDINAL="1023" NAME="?staticMetaObject@FriendsPicker@@2UQMetaObject@@B" PURGE="-1" COMMENT="" />
    <EXPORT ORDINAL="1024" NAME="?staticMetaObject@HttpImageWidget@@2UQMetaObject@@B" PURGE="-1" COMMENT="" />
    <EXPORT ORDINAL="1025" NAME="?staticMetaObject@IPluginInfo@unicorn@@2UQMetaObject@@B" PURGE="-1" COMMENT="" />
    <EXPORT ORDINAL="1026" NAME="?staticMetaObject@ITunesPluginInfo@unicorn@@2UQMetaObject@@B" PURGE="-1" COMMENT="" />
    <EXPORT ORDINAL="1027" NAME="?staticMetaObject@ItemSelectorWidget@@2UQMetaObject@@B" PURGE="-1" COMMENT="" />
    <EXPORT ORDINAL="1028" NAME="?staticMetaObject@Label@unicorn@@2UQMetaObject@@B" PURGE="-1" COMMENT="" />
    <EXPORT ORDINAL="1029" NAME="?staticMetaObject@LfmDelegate@@2UQMetaObject@@B" PURGE="-1" COMMENT="" />
    <EXPORT ORDINAL="1030" NAME="?staticMetaObject@LfmListModel@@2UQMetaObject@@B" PURGE="-1" COMMENT="" />
    <EXPORT ORDINAL="1031" NAME="?staticMetaObject@LfmListView@@2UQMetaObject@@B" PURGE="-1" COMMENT="" />
    <EXPORT ORDINAL="1032" NAME="?staticMetaObject@LoginContinueDialog@@2UQMetaObject@@B" PURGE="-1" COMMENT="" />
    <EXPORT ORDINAL="1033" NAME="?staticMetaObject@LoginDialog@@2UQMetaObject@@B" PURGE="-1" COMMENT="" />
    <EXPORT ORDINAL="1034" NAME="?staticMetaObject@LoginProcess@unicorn@@2UQMetaObject@@B" PURGE="-1" COMMENT="" />
    <EXPORT ORDINAL="1035" NAME="?staticMetaObject@MainWindow@unicorn@@2UQMetaObject@@B" PURGE="-1" COMMENT="" />
    <EXPORT ORDINAL="1036" NAME="?staticMetaObject@MessageBar@@2UQMetaObject@@B" PURGE="-1" COMMENT="" />
    <EXPORT ORDINAL="1037" NAME="?staticMetaObject@MessageDialog@unicorn@@2UQMetaObject@@B" PURGE="-1" COMMENT="" />
    <EXPORT ORDINAL="1038" NAME="?staticMetaObject@PluginList@unicorn@@2UQMetaObject@@B" PURGE="-1" COMMENT="" />
    <EXPORT ORDINAL="1039" NAME="?staticMetaObject@ProxyDialog@unicorn@@2UQMetaObject@@B" PURGE="-1" COMMENT="" />
    <EXPORT ORDINAL="1040" NAME="?staticMetaObject@ProxyWidget@unicorn@@2UQMetaObject@@B" PURGE="-1" COMMENT="" />
    <EXPORT ORDINAL="1041" NAME="?staticMetaObject@QtSingleApplication@@2UQMetaObject@@B" PURGE="-1" COMMENT="" />
    <EXPORT ORDINAL="1042" NAME="?staticMetaObject@QtSingleCoreApplication@@2UQMetaObject@@B" PURGE="-1" COMMENT="" />
    <EXPORT ORDINAL="1043" NAME="?staticMetaObject@ScrobbleConfirmationDialog@@2UQMetaObject@@B" PURGE="-1" COMMENT="" />
    <EXPORT ORDINAL="1044" NAME="?staticMetaObject@ScrobblesModel@@2UQMetaObject@@B" PURGE="-1" COMMENT="" />
    <EXPORT ORDINAL="1045" NAME="?staticMetaObject@SearchBox@@2UQMetaObject@@B" PURGE="-1" COMMENT="" />
    <EXPORT ORDINAL="1046" NAME="?staticMetaObject@Session@unicorn@@2UQMetaObject@@B" PURGE="-1" COMMENT="" />
    <EXPORT ORDINAL="1047" NAME="?staticMetaObject@ShareDialog@@2UQMetaObject@@B" PURGE="-1" COMMENT="" />
    <EXPORT ORDINAL="1048" NAME="?staticMetaObject@SideBySideLayout@@2UQMetaObject@@B" PURGE="-1" COMMENT="" />
    <EXPORT ORDINAL="1049" NAME="?staticMetaObject@SignalBlocker@@2UQMetaObject@@B" PURGE="-1" COMMENT="" />
    <EXPORT ORDINAL="1050" NAME="?staticMetaObject@SlideOverLayout@@2UQMetaObject@@B" PURGE="-1" COMMENT="" />
    <EXPORT ORDINAL="1051" NAME="?staticMetaObject@SlidingStackedWidget@unicorn@@2UQMetaObject@@B" PURGE="-1" COMMENT="" />
    <EXPORT ORDINAL="1052" NAME="?staticMetaObject@StackedWidget@unicorn@@2UQMetaObject@@B" PURGE="-1" COMMENT="" />
    <EXPORT ORDINAL="1053" NAME="?staticMetaObject@TagDialog@@2UQMetaObject@@B" PURGE="-1" COMMENT="" />
    <EXPORT ORDINAL="1054" NAME="?staticMetaObject@TrackImageFetcher@@2UQMetaObject@@B" PURGE="-1" COMMENT="" />
    <EXPORT ORDINAL="1055" NAME="?staticMetaObject@TrackWidget@@2UQMetaObject@@B" PURGE="-1" COMMENT="" />
    <EXPORT ORDINAL="1056" NAME="?staticMetaObject@UpdateInfoFetcher@@2UQMetaObject@@B" PURGE="-1" COMMENT="" />
    <EXPORT ORDINAL="1057" NAME="?staticMetaObject@Updater@unicorn@@2UQMetaObject@@B" PURGE="-1" COMMENT="" />
    <EXPORT ORDINAL="1058" NAME="?staticMetaObject@UserComboSelector@@2UQMetaObject@@B" PURGE="-1" COMMENT="" />
    <EXPORT ORDINAL="1059" NAME="?staticMetaObject@UserManagerDialog@@2UQMetaObject@@B" PURGE="-1" COMMENT="" />
    <EXPORT ORDINAL="1060" NAME="?staticMetaObject@UserManagerWidget@@2UQMetaObject@@B" PURGE="-1" COMMENT="" />
    <EXPORT ORDINAL="1061" NAME="?staticMetaObject@UserMenu@@2UQMetaObject@@B" PURGE="-1" COMMENT="" />
    <EXPORT ORDINAL="1062" NAME="?staticMetaObject@UserRadioButton@@2UQMetaObject@@B" PURGE="-1" COMMENT="" />
    <EXPORT ORDINAL="1063" NAME="?staticMetaObject@UserSearch@@2UQMetaObject@@B" PURGE="-1" COMMENT="" />
    <EXPORT ORDINAL="1064" NAME="?staticMetaObject@UserToolButton@@2UQMetaObject@@B" PURGE="-1" COMMENT="" />
    <EXPORT ORDINAL="1065" NAME="?staticMetaObject@WinampPluginInfo@unicorn@@2UQMetaObject@@B" PURGE="-1" COMMENT="" />
    <EXPORT ORDINAL="1066" NAME="?staticMetaObject@WmpPluginInfo@unicorn@@2UQMetaObject@@B" PURGE="-1" COMMENT="" />
    <EXPORT ORDINAL="1067" NAME="?staticMetaObjectExtraData@ActionButton@@0UQMetaObjectExtraData@@B" PURGE="-1" COMMENT="" />
    <EXPORT ORDINAL="1068" NAME="?staticMetaObjectExtraData@AnimatedListLayout@@0UQMetaObjectExtraData@@B" PURGE="-1" COMMENT="" />
    <EXPORT ORDINAL="1069" NAME="?staticMetaObjectExtraData@AnimatedStatusBar@@0UQMetaObjectExtraData@@B" PURGE="-1" COMMENT="" />
    <EXPORT ORDINAL="1070" NAME="?staticMetaObjectExtraData@Application@unicorn@@0UQMetaObjectExtraData@@B" PURGE="-1" COMMENT="" />
    <EXPORT ORDINAL="1071" NAME="?staticMetaObjectExtraData@AvatarWidget@@0UQMetaObjectExtraData@@B" PURGE="-1" COMMENT="" />
    <EXPORT ORDINAL="1072" NAME="?staticMetaObjectExtraData@BannerWidget@@0UQMetaObjectExtraData@@B" PURGE="-1" COMMENT="" />
    <EXPORT ORDINAL="1073" NAME="?staticMetaObjectExtraData@CloseAppsDialog@unicorn@@0UQMetaObjectExtraData@@B" PURGE="-1" COMMENT="" />
    <EXPORT ORDINAL="1074" NAME="?staticMetaObjectExtraData@DataBox@@0UQMetaObjectExtraData@@B" PURGE="-1" COMMENT="" />
    <EXPORT ORDINAL="1075" NAME="?staticMetaObjectExtraData@DataListWidget@@0UQMetaObjectExtraData@@B" PURGE="-1" COMMENT="" />
    <EXPORT ORDINAL="1076" NAME="?staticMetaObjectExtraData@Dialog@unicorn@@0UQMetaObjectExtraData@@B" PURGE="-1" COMMENT="" />
    <EXPORT ORDINAL="1077" NAME="?staticMetaObjectExtraData@FooBar08PluginInfo@unicorn@@0UQMetaObjectExtraData@@B" PURGE="-1" COMMENT="" />
    <EXPORT ORDINAL="1078" NAME="?staticMetaObjectExtraData@FooBar09PluginInfo@unicorn@@0UQMetaObjectExtraData@@B" PURGE="-1" COMMENT="" />
    <EXPORT ORDINAL="1079" NAME="?staticMetaObjectExtraData@FriendsPicker@@0UQMetaObjectExtraData@@B" PURGE="-1" COMMENT="" />
    <EXPORT ORDINAL="1080" NAME="?staticMetaObjectExtraData@HttpImageWidget@@0UQMetaObjectExtraData@@B" PURGE="-1" COMMENT="" />
    <EXPORT ORDINAL="1081" NAME="?staticMetaObjectExtraData@IPluginInfo@unicorn@@0UQMetaObjectExtraData@@B" PURGE="-1" COMMENT="" />
    <EXPORT ORDINAL="1082" NAME="?staticMetaObjectExtraData@ITunesPluginInfo@unicorn@@0UQMetaObjectExtraData@@B" PURGE="-1" COMMENT="" />
    <EXPORT ORDINAL="1083" NAME="?staticMetaObjectExtraData@ItemSelectorWidget@@0UQMetaObjectExtraData@@B" PURGE="-1" COMMENT="" />
    <EXPORT ORDINAL="1084" NAME="?staticMetaObjectExtraData@Label@unicorn@@0UQMetaObjectExtraData@@B" PURGE="-1" COMMENT="" />
    <EXPORT ORDINAL="1085" NAME="?staticMetaObjectExtraData@LfmDelegate@@0UQMetaObjectExtraData@@B" PURGE="-1" COMMENT="" />
    <EXPORT ORDINAL="1086" NAME="?staticMetaObjectExtraData@LfmListModel@@0UQMetaObjectExtraData@@B" PURGE="-1" COMMENT="" />
    <EXPORT ORDINAL="1087" NAME="?staticMetaObjectExtraData@LfmListView@@0UQMetaObjectExtraData@@B" PURGE="-1" COMMENT="" />
    <EXPORT ORDINAL="1088" NAME="?staticMetaObjectExtraData@LoginContinueDialog@@0UQMetaObjectExtraData@@B" PURGE="-1" COMMENT="" />
    <EXPORT ORDINAL="1089" NAME="?staticMetaObjectExtraData@LoginDialog@@0UQMetaObjectExtraData@@B" PURGE="-1" COMMENT="" />
    <EXPORT ORDINAL="1090" NAME="?staticMetaObjectExtraData@LoginProcess@unicorn@@0UQMetaObjectExtraData@@B" PURGE="-1" COMMENT="" />
    <EXPORT ORDINAL="1091" NAME="?staticMetaObjectExtraData@MainWindow@unicorn@@0UQMetaObjectExtraData@@B" PURGE="-1" COMMENT="" />
    <EXPORT ORDINAL="1092" NAME="?staticMetaObjectExtraData@MessageBar@@0UQMetaObjectExtraData@@B" PURGE="-1" COMMENT="" />
    <EXPORT ORDINAL="1093" NAME="?staticMetaObjectExtraData@MessageDialog@unicorn@@0UQMetaObjectExtraData@@B" PURGE="-1" COMMENT="" />
    <EXPORT ORDINAL="1094" NAME="?staticMetaObjectExtraData@PluginList@unicorn@@0UQMetaObjectExtraData@@B" PURGE="-1" COMMENT="" />
    <EXPORT ORDINAL="1095" NAME="?staticMetaObjectExtraData@ProxyDialog@unicorn@@0UQMetaObjectExtraData@@B" PURGE="-1" COMMENT="" />
    <EXPORT ORDINAL="1096" NAME="?staticMetaObjectExtraData@ProxyWidget@unicorn@@0UQMetaObjectExtraData@@B" PURGE="-1" COMMENT="" />
    <EXPORT ORDINAL="1097" NAME="?staticMetaObjectExtraData@QtSingleApplication@@0UQMetaObjectExtraData@@B" PURGE="-1" COMMENT="" />
    <EXPORT ORDINAL="1098" NAME="?staticMetaObjectExtraData@QtSingleCoreApplication@@0UQMetaObjectExtraData@@B" PURGE="-1" COMMENT="" />
    <EXPORT ORDINAL="1099" NAME="?staticMetaObjectExtraData@ScrobbleConfirmationDialog@@0UQMetaObjectExtraData@@B" PURGE="-1" COMMENT="" />
    <EXPORT ORDINAL="1100" NAME="?staticMetaObjectExtraData@ScrobblesModel@@0UQMetaObjectExtraData@@B" PURGE="-1" COMMENT="" />
    <EXPORT ORDINAL="1101" NAME="?staticMetaObjectExtraData@SearchBox@@0UQMetaObjectExtraData@@B" PURGE="-1" COMMENT="" />
    <EXPORT ORDINAL="1102" NAME="?staticMetaObjectExtraData@Session@unicorn@@0UQMetaObjectExtraData@@B" PURGE="-1" COMMENT="" />
    <EXPORT ORDINAL="1103" NAME="?staticMetaObjectExtraData@ShareDialog@@0UQMetaObjectExtraData@@B" PURGE="-1" COMMENT="" />
    <EXPORT ORDINAL="1104" NAME="?staticMetaObjectExtraData@SideBySideLayout@@0UQMetaObjectExtraData@@B" PURGE="-1" COMMENT="" />
    <EXPORT ORDINAL="1105" NAME="?staticMetaObjectExtraData@SignalBlocker@@0UQMetaObjectExtraData@@B" PURGE="-1" COMMENT="" />
    <EXPORT ORDINAL="1106" NAME="?staticMetaObjectExtraData@SlideOverLayout@@0UQMetaObjectExtraData@@B" PURGE="-1" COMMENT="" />
    <EXPORT ORDINAL="1107" NAME="?staticMetaObjectExtraData@SlidingStackedWidget@unicorn@@0UQMetaObjectExtraData@@B" PURGE="-1" COMMENT="" />
    <EXPORT ORDINAL="1108" NAME="?staticMetaObjectExtraData@StackedWidget@unicorn@@0UQMetaObjectExtraData@@B" PURGE="-1" COMMENT="" />
    <EXPORT ORDINAL="1109" NAME="?staticMetaObjectExtraData@TagDialog@@0UQMetaObjectExtraData@@B" PURGE="-1" COMMENT="" />
    <EXPORT ORDINAL="1110" NAME="?staticMetaObjectExtraData@TrackImageFetcher@@0UQMetaObjectExtraData@@B" PURGE="-1" COMMENT="" />
    <EXPORT ORDINAL="1111" NAME="?staticMetaObjectExtraData@TrackWidget@@0UQMetaObjectExtraData@@B" PURGE="-1" COMMENT="" />
    <EXPORT ORDINAL="1112" NAME="?staticMetaObjectExtraData@UpdateInfoFetcher@@0UQMetaObjectExtraData@@B" PURGE="-1" COMMENT="" />
    <EXPORT ORDINAL="1113" NAME="?staticMetaObjectExtraData@Updater@unicorn@@0UQMetaObjectExtraData@@B" PURGE="-1" COMMENT="" />
    <EXPORT ORDINAL="1114" NAME="?staticMetaObjectExtraData@UserComboSelector@@0UQMetaObjectExtraData@@B" PURGE="-1" COMMENT="" />
    <EXPORT ORDINAL="1115" NAME="?staticMetaObjectExtraData@UserManagerDialog@@0UQMetaObjectExtraData@@B" PURGE="-1" COMMENT="" />
    <EXPORT ORDINAL="1116" NAME="?staticMetaObjectExtraData@UserManagerWidget@@0UQMetaObjectExtraData@@B" PURGE="-1" COMMENT="" />
    <EXPORT ORDINAL="1117" NAME="?staticMetaObjectExtraData@UserMenu@@0UQMetaObjectExtraData@@B" PURGE="-1" COMMENT="" />
    <EXPORT ORDINAL="1118" NAME="?staticMetaObjectExtraData@UserRadioButton@@0UQMetaObjectExtraData@@B" PURGE="-1" COMMENT="" />
    <EXPORT ORDINAL="1119" NAME="?staticMetaObjectExtraData@UserSearch@@0UQMetaObjectExtraData@@B" PURGE="-1" COMMENT="" />
    <EXPORT ORDINAL="1120" NAME="?staticMetaObjectExtraData@UserToolButton@@0UQMetaObjectExtraData@@B" PURGE="-1" COMMENT="" />
    <EXPORT ORDINAL="1121" NAME="?staticMetaObjectExtraData@WinampPluginInfo@unicorn@@0UQMetaObjectExtraData@@B" PURGE="-1" COMMENT="" />
    <EXPORT ORDINAL="1122" NAME="?staticMetaObjectExtraData@WmpPluginInfo@unicorn@@0UQMetaObjectExtraData@@B" PURGE="-1" COMMENT="" />
    <EXPORT ORDINAL="1123" NAME="?storeGeometry@MainWindow@unicorn@@ABEXXZ" PURGE="0" COMMENT="" />
    <EXPORT ORDINAL="1124" NAME="?subscribe@UserMenu@@IAEXXZ" PURGE="0" COMMENT="" />
    <EXPORT ORDINAL="1125" NAME="?subscriber@UserSettings@unicorn@@QBE_NXZ" PURGE="0" COMMENT="" />
    <EXPORT ORDINAL="1126" NAME="?subscriberRadio@Session@unicorn@@QBE_NXZ" PURGE="0" COMMENT="" />
    <EXPORT ORDINAL="1127" NAME="?subscriberWebRadio@Session@unicorn@@QBE_NXZ" PURGE="0" COMMENT="" />
    <EXPORT ORDINAL="1128" NAME="?subscriptionPriceString@Session@unicorn@@QBE?AVQString@@XZ" PURGE="4" COMMENT="" />
    <EXPORT ORDINAL="1129" NAME="?supportedList@PluginList@unicorn@@QBE?AV?$QList@PAVIPluginInfo@unicorn@@@@XZ" PURGE="4" COMMENT="" />
    <EXPORT ORDINAL="1130" NAME="?sysInit@QtSingleApplication@@AAEXABVQString@@@Z" PURGE="4" COMMENT="" />
    <EXPORT ORDINAL="1131" NAME="?takeAt@AnimatedListLayout@@UAEPAVQLayoutItem@@H@Z" PURGE="4" COMMENT="" />
    <EXPORT ORDINAL="1132" NAME="?takeAt@FlowLayout@@UAEPAVQLayoutItem@@H@Z" PURGE="4" COMMENT="" />
    <EXPORT ORDINAL="1133" NAME="?takeAt@SideBySideLayout@@UAEPAVQLayoutItem@@H@Z" PURGE="4" COMMENT="" />
    <EXPORT ORDINAL="1134" NAME="?takeAt@SlideOverLayout@@UAEPAVQLayoutItem@@H@Z" PURGE="4" COMMENT="" />
    <EXPORT ORDINAL="1135" NAME="?text@Label@unicorn@@QBE?AVQString@@XZ" PURGE="4" COMMENT="" />
    <EXPORT ORDINAL="1136" NAME="?toString@Plugin@@QBE?AVQString@@XZ" PURGE="4" COMMENT="" />
    <EXPORT ORDINAL="1137" NAME="?toString@Version@unicorn@@QBE?AVQString@@XZ" PURGE="4" COMMENT="" />
    <EXPORT ORDINAL="1138" NAME="?toggleSelection@ScrobbleConfirmationDialog@@AAEXXZ" PURGE="0" COMMENT="" />
    <EXPORT ORDINAL="1139" NAME="?tr@ActionButton@@SA?AVQString@@PBD0@Z" PURGE="0" COMMENT="" />
    <EXPORT ORDINAL="1140" NAME="?tr@ActionButton@@SA?AVQString@@PBD0H@Z" PURGE="0" COMMENT="" />
    <EXPORT ORDINAL="1141" NAME="?tr@AnimatedListLayout@@SA?AVQString@@PBD0@Z" PURGE="0" COMMENT="" />
    <EXPORT ORDINAL="1142" NAME="?tr@AnimatedListLayout@@SA?AVQString@@PBD0H@Z" PURGE="0" COMMENT="" />
    <EXPORT ORDINAL="1143" NAME="?tr@AnimatedStatusBar@@SA?AVQString@@PBD0@Z" PURGE="0" COMMENT="" />
    <EXPORT ORDINAL="1144" NAME="?tr@AnimatedStatusBar@@SA?AVQString@@PBD0H@Z" PURGE="0" COMMENT="" />
    <EXPORT ORDINAL="1145" NAME="?tr@Application@unicorn@@SA?AVQString@@PBD0@Z" PURGE="0" COMMENT="" />
    <EXPORT ORDINAL="1146" NAME="?tr@Application@unicorn@@SA?AVQString@@PBD0H@Z" PURGE="0" COMMENT="" />
    <EXPORT ORDINAL="1147" NAME="?tr@AvatarWidget@@SA?AVQString@@PBD0@Z" PURGE="0" COMMENT="" />
    <EXPORT ORDINAL="1148" NAME="?tr@AvatarWidget@@SA?AVQString@@PBD0H@Z" PURGE="0" COMMENT="" />
    <EXPORT ORDINAL="1149" NAME="?tr@BannerWidget@@SA?AVQString@@PBD0@Z" PURGE="0" COMMENT="" />
    <EXPORT ORDINAL="1150" NAME="?tr@BannerWidget@@SA?AVQString@@PBD0H@Z" PURGE="0" COMMENT="" />
    <EXPORT ORDINAL="1151" NAME="?tr@CloseAppsDialog@unicorn@@SA?AVQString@@PBD0@Z" PURGE="0" COMMENT="" />
    <EXPORT ORDINAL="1152" NAME="?tr@CloseAppsDialog@unicorn@@SA?AVQString@@PBD0H@Z" PURGE="0" COMMENT="" />
    <EXPORT ORDINAL="1153" NAME="?tr@DataBox@@SA?AVQString@@PBD0@Z" PURGE="0" COMMENT="" />
    <EXPORT ORDINAL="1154" NAME="?tr@DataBox@@SA?AVQString@@PBD0H@Z" PURGE="0" COMMENT="" />
    <EXPORT ORDINAL="1155" NAME="?tr@DataListWidget@@SA?AVQString@@PBD0@Z" PURGE="0" COMMENT="" />
    <EXPORT ORDINAL="1156" NAME="?tr@DataListWidget@@SA?AVQString@@PBD0H@Z" PURGE="0" COMMENT="" />
    <EXPORT ORDINAL="1157" NAME="?tr@Dialog@unicorn@@SA?AVQString@@PBD0@Z" PURGE="0" COMMENT="" />
    <EXPORT ORDINAL="1158" NAME="?tr@Dialog@unicorn@@SA?AVQString@@PBD0H@Z" PURGE="0" COMMENT="" />
    <EXPORT ORDINAL="1159" NAME="?tr@FooBar08PluginInfo@unicorn@@SA?AVQString@@PBD0@Z" PURGE="0" COMMENT="" />
    <EXPORT ORDINAL="1160" NAME="?tr@FooBar08PluginInfo@unicorn@@SA?AVQString@@PBD0H@Z" PURGE="0" COMMENT="" />
    <EXPORT ORDINAL="1161" NAME="?tr@FooBar09PluginInfo@unicorn@@SA?AVQString@@PBD0@Z" PURGE="0" COMMENT="" />
    <EXPORT ORDINAL="1162" NAME="?tr@FooBar09PluginInfo@unicorn@@SA?AVQString@@PBD0H@Z" PURGE="0" COMMENT="" />
    <EXPORT ORDINAL="1163" NAME="?tr@FriendsPicker@@SA?AVQString@@PBD0@Z" PURGE="0" COMMENT="" />
    <EXPORT ORDINAL="1164" NAME="?tr@FriendsPicker@@SA?AVQString@@PBD0H@Z" PURGE="0" COMMENT="" />
    <EXPORT ORDINAL="1165" NAME="?tr@HttpImageWidget@@SA?AVQString@@PBD0@Z" PURGE="0" COMMENT="" />
    <EXPORT ORDINAL="1166" NAME="?tr@HttpImageWidget@@SA?AVQString@@PBD0H@Z" PURGE="0" COMMENT="" />
    <EXPORT ORDINAL="1167" NAME="?tr@IPluginInfo@unicorn@@SA?AVQString@@PBD0@Z" PURGE="0" COMMENT="" />
    <EXPORT ORDINAL="1168" NAME="?tr@IPluginInfo@unicorn@@SA?AVQString@@PBD0H@Z" PURGE="0" COMMENT="" />
    <EXPORT ORDINAL="1169" NAME="?tr@ITunesPluginInfo@unicorn@@SA?AVQString@@PBD0@Z" PURGE="0" COMMENT="" />
    <EXPORT ORDINAL="1170" NAME="?tr@ITunesPluginInfo@unicorn@@SA?AVQString@@PBD0H@Z" PURGE="0" COMMENT="" />
    <EXPORT ORDINAL="1171" NAME="?tr@ItemSelectorWidget@@SA?AVQString@@PBD0@Z" PURGE="0" COMMENT="" />
    <EXPORT ORDINAL="1172" NAME="?tr@ItemSelectorWidget@@SA?AVQString@@PBD0H@Z" PURGE="0" COMMENT="" />
    <EXPORT ORDINAL="1173" NAME="?tr@Label@unicorn@@SA?AVQString@@PBD0@Z" PURGE="0" COMMENT="" />
    <EXPORT ORDINAL="1174" NAME="?tr@Label@unicorn@@SA?AVQString@@PBD0H@Z" PURGE="0" COMMENT="" />
    <EXPORT ORDINAL="1175" NAME="?tr@LfmDelegate@@SA?AVQString@@PBD0@Z" PURGE="0" COMMENT="" />
    <EXPORT ORDINAL="1176" NAME="?tr@LfmDelegate@@SA?AVQString@@PBD0H@Z" PURGE="0" COMMENT="" />
    <EXPORT ORDINAL="1177" NAME="?tr@LfmListModel@@SA?AVQString@@PBD0@Z" PURGE="0" COMMENT="" />
    <EXPORT ORDINAL="1178" NAME="?tr@LfmListModel@@SA?AVQString@@PBD0H@Z" PURGE="0" COMMENT="" />
    <EXPORT ORDINAL="1179" NAME="?tr@LfmListView@@SA?AVQString@@PBD0@Z" PURGE="0" COMMENT="" />
    <EXPORT ORDINAL="1180" NAME="?tr@LfmListView@@SA?AVQString@@PBD0H@Z" PURGE="0" COMMENT="" />
    <EXPORT ORDINAL="1181" NAME="?tr@LoginContinueDialog@@SA?AVQString@@PBD0@Z" PURGE="0" COMMENT="" />
    <EXPORT ORDINAL="1182" NAME="?tr@LoginContinueDialog@@SA?AVQString@@PBD0H@Z" PURGE="0" COMMENT="" />
    <EXPORT ORDINAL="1183" NAME="?tr@LoginDialog@@SA?AVQString@@PBD0@Z" PURGE="0" COMMENT="" />
    <EXPORT ORDINAL="1184" NAME="?tr@LoginDialog@@SA?AVQString@@PBD0H@Z" PURGE="0" COMMENT="" />
    <EXPORT ORDINAL="1185" NAME="?tr@LoginProcess@unicorn@@SA?AVQString@@PBD0@Z" PURGE="0" COMMENT="" />
    <EXPORT ORDINAL="1186" NAME="?tr@LoginProcess@unicorn@@SA?AVQString@@PBD0H@Z" PURGE="0" COMMENT="" />
    <EXPORT ORDINAL="1187" NAME="?tr@MainWindow@unicorn@@SA?AVQString@@PBD0@Z" PURGE="0" COMMENT="" />
    <EXPORT ORDINAL="1188" NAME="?tr@MainWindow@unicorn@@SA?AVQString@@PBD0H@Z" PURGE="0" COMMENT="" />
    <EXPORT ORDINAL="1189" NAME="?tr@MessageBar@@SA?AVQString@@PBD0@Z" PURGE="0" COMMENT="" />
    <EXPORT ORDINAL="1190" NAME="?tr@MessageBar@@SA?AVQString@@PBD0H@Z" PURGE="0" COMMENT="" />
    <EXPORT ORDINAL="1191" NAME="?tr@MessageDialog@unicorn@@SA?AVQString@@PBD0@Z" PURGE="0" COMMENT="" />
    <EXPORT ORDINAL="1192" NAME="?tr@MessageDialog@unicorn@@SA?AVQString@@PBD0H@Z" PURGE="0" COMMENT="" />
    <EXPORT ORDINAL="1193" NAME="?tr@PluginList@unicorn@@SA?AVQString@@PBD0@Z" PURGE="0" COMMENT="" />
    <EXPORT ORDINAL="1194" NAME="?tr@PluginList@unicorn@@SA?AVQString@@PBD0H@Z" PURGE="0" COMMENT="" />
    <EXPORT ORDINAL="1195" NAME="?tr@ProxyDialog@unicorn@@SA?AVQString@@PBD0@Z" PURGE="0" COMMENT="" />
    <EXPORT ORDINAL="1196" NAME="?tr@ProxyDialog@unicorn@@SA?AVQString@@PBD0H@Z" PURGE="0" COMMENT="" />
    <EXPORT ORDINAL="1197" NAME="?tr@ProxyWidget@unicorn@@SA?AVQString@@PBD0@Z" PURGE="0" COMMENT="" />
    <EXPORT ORDINAL="1198" NAME="?tr@ProxyWidget@unicorn@@SA?AVQString@@PBD0H@Z" PURGE="0" COMMENT="" />
    <EXPORT ORDINAL="1199" NAME="?tr@QtSingleApplication@@SA?AVQString@@PBD0@Z" PURGE="0" COMMENT="" />
    <EXPORT ORDINAL="1200" NAME="?tr@QtSingleApplication@@SA?AVQString@@PBD0H@Z" PURGE="0" COMMENT="" />
    <EXPORT ORDINAL="1201" NAME="?tr@QtSingleCoreApplication@@SA?AVQString@@PBD0@Z" PURGE="0" COMMENT="" />
    <EXPORT ORDINAL="1202" NAME="?tr@QtSingleCoreApplication@@SA?AVQString@@PBD0H@Z" PURGE="0" COMMENT="" />
    <EXPORT ORDINAL="1203" NAME="?tr@ScrobbleConfirmationDialog@@SA?AVQString@@PBD0@Z" PURGE="0" COMMENT="" />
    <EXPORT ORDINAL="1204" NAME="?tr@ScrobbleConfirmationDialog@@SA?AVQString@@PBD0H@Z" PURGE="0" COMMENT="" />
    <EXPORT ORDINAL="1205" NAME="?tr@ScrobblesModel@@SA?AVQString@@PBD0@Z" PURGE="0" COMMENT="" />
    <EXPORT ORDINAL="1206" NAME="?tr@ScrobblesModel@@SA?AVQString@@PBD0H@Z" PURGE="0" COMMENT="" />
    <EXPORT ORDINAL="1207" NAME="?tr@SearchBox@@SA?AVQString@@PBD0@Z" PURGE="0" COMMENT="" />
    <EXPORT ORDINAL="1208" NAME="?tr@SearchBox@@SA?AVQString@@PBD0H@Z" PURGE="0" COMMENT="" />
    <EXPORT ORDINAL="1209" NAME="?tr@Session@unicorn@@SA?AVQString@@PBD0@Z" PURGE="0" COMMENT="" />
    <EXPORT ORDINAL="1210" NAME="?tr@Session@unicorn@@SA?AVQString@@PBD0H@Z" PURGE="0" COMMENT="" />
    <EXPORT ORDINAL="1211" NAME="?tr@ShareDialog@@SA?AVQString@@PBD0@Z" PURGE="0" COMMENT="" />
    <EXPORT ORDINAL="1212" NAME="?tr@ShareDialog@@SA?AVQString@@PBD0H@Z" PURGE="0" COMMENT="" />
    <EXPORT ORDINAL="1213" NAME="?tr@SideBySideLayout@@SA?AVQString@@PBD0@Z" PURGE="0" COMMENT="" />
    <EXPORT ORDINAL="1214" NAME="?tr@SideBySideLayout@@SA?AVQString@@PBD0H@Z" PURGE="0" COMMENT="" />
    <EXPORT ORDINAL="1215" NAME="?tr@SignalBlocker@@SA?AVQString@@PBD0@Z" PURGE="0" COMMENT="" />
    <EXPORT ORDINAL="1216" NAME="?tr@SignalBlocker@@SA?AVQString@@PBD0H@Z" PURGE="0" COMMENT="" />
    <EXPORT ORDINAL="1217" NAME="?tr@SlideOverLayout@@SA?AVQString@@PBD0@Z" PURGE="0" COMMENT="" />
    <EXPORT ORDINAL="1218" NAME="?tr@SlideOverLayout@@SA?AVQString@@PBD0H@Z" PURGE="0" COMMENT="" />
    <EXPORT ORDINAL="1219" NAME="?tr@SlidingStackedWidget@unicorn@@SA?AVQString@@PBD0@Z" PURGE="0" COMMENT="" />
    <EXPORT ORDINAL="1220" NAME="?tr@SlidingStackedWidget@unicorn@@SA?AVQString@@PBD0H@Z" PURGE="0" COMMENT="" />
    <EXPORT ORDINAL="1221" NAME="?tr@StackedWidget@unicorn@@SA?AVQString@@PBD0@Z" PURGE="0" COMMENT="" />
    <EXPORT ORDINAL="1222" NAME="?tr@StackedWidget@unicorn@@SA?AVQString@@PBD0H@Z" PURGE="0" COMMENT="" />
    <EXPORT ORDINAL="1223" NAME="?tr@TagDialog@@SA?AVQString@@PBD0@Z" PURGE="0" COMMENT="" />
    <EXPORT ORDINAL="1224" NAME="?tr@TagDialog@@SA?AVQString@@PBD0H@Z" PURGE="0" COMMENT="" />
    <EXPORT ORDINAL="1225" NAME="?tr@TrackImageFetcher@@SA?AVQString@@PBD0@Z" PURGE="0" COMMENT="" />
    <EXPORT ORDINAL="1226" NAME="?tr@TrackImageFetcher@@SA?AVQString@@PBD0H@Z" PURGE="0" COMMENT="" />
    <EXPORT ORDINAL="1227" NAME="?tr@TrackWidget@@SA?AVQString@@PBD0@Z" PURGE="0" COMMENT="" />
    <EXPORT ORDINAL="1228" NAME="?tr@TrackWidget@@SA?AVQString@@PBD0H@Z" PURGE="0" COMMENT="" />
    <EXPORT ORDINAL="1229" NAME="?tr@UpdateInfoFetcher@@SA?AVQString@@PBD0@Z" PURGE="0" COMMENT="" />
    <EXPORT ORDINAL="1230" NAME="?tr@UpdateInfoFetcher@@SA?AVQString@@PBD0H@Z" PURGE="0" COMMENT="" />
    <EXPORT ORDINAL="1231" NAME="?tr@Updater@unicorn@@SA?AVQString@@PBD0@Z" PURGE="0" COMMENT="" />
    <EXPORT ORDINAL="1232" NAME="?tr@Updater@unicorn@@SA?AVQString@@PBD0H@Z" PURGE="0" COMMENT="" />
    <EXPORT ORDINAL="1233" NAME="?tr@UserComboSelector@@SA?AVQString@@PBD0@Z" PURGE="0" COMMENT="" />
    <EXPORT ORDINAL="1234" NAME="?tr@UserComboSelector@@SA?AVQString@@PBD0H@Z" PURGE="0" COMMENT="" />
    <EXPORT ORDINAL="1235" NAME="?tr@UserManagerDialog@@SA?AVQString@@PBD0@Z" PURGE="0" COMMENT="" />
    <EXPORT ORDINAL="1236" NAME="?tr@UserManagerDialog@@SA?AVQString@@PBD0H@Z" PURGE="0" COMMENT="" />
    <EXPORT ORDINAL="1237" NAME="?tr@UserManagerWidget@@SA?AVQString@@PBD0@Z" PURGE="0" COMMENT="" />
    <EXPORT ORDINAL="1238" NAME="?tr@UserManagerWidget@@SA?AVQString@@PBD0H@Z" PURGE="0" COMMENT="" />
    <EXPORT ORDINAL="1239" NAME="?tr@UserMenu@@SA?AVQString@@PBD0@Z" PURGE="0" COMMENT="" />
    <EXPORT ORDINAL="1240" NAME="?tr@UserMenu@@SA?AVQString@@PBD0H@Z" PURGE="0" COMMENT="" />
    <EXPORT ORDINAL="1241" NAME="?tr@UserRadioButton@@SA?AVQString@@PBD0@Z" PURGE="0" COMMENT="" />
    <EXPORT ORDINAL="1242" NAME="?tr@UserRadioButton@@SA?AVQString@@PBD0H@Z" PURGE="0" COMMENT="" />
    <EXPORT ORDINAL="1243" NAME="?tr@UserSearch@@SA?AVQString@@PBD0@Z" PURGE="0" COMMENT="" />
    <EXPORT ORDINAL="1244" NAME="?tr@UserSearch@@SA?AVQString@@PBD0H@Z" PURGE="0" COMMENT="" />
    <EXPORT ORDINAL="1245" NAME="?tr@UserToolButton@@SA?AVQString@@PBD0@Z" PURGE="0" COMMENT="" />
    <EXPORT ORDINAL="1246" NAME="?tr@UserToolButton@@SA?AVQString@@PBD0H@Z" PURGE="0" COMMENT="" />
    <EXPORT ORDINAL="1247" NAME="?tr@WinampPluginInfo@unicorn@@SA?AVQString@@PBD0@Z" PURGE="0" COMMENT="" />
    <EXPORT ORDINAL="1248" NAME="?tr@WinampPluginInfo@unicorn@@SA?AVQString@@PBD0H@Z" PURGE="0" COMMENT="" />
    <EXPORT ORDINAL="1249" NAME="?tr@WmpPluginInfo@unicorn@@SA?AVQString@@PBD0@Z" PURGE="0" COMMENT="" />
    <EXPORT ORDINAL="1250" NAME="?tr@WmpPluginInfo@unicorn@@SA?AVQString@@PBD0H@Z" PURGE="0" COMMENT="" />
    <EXPORT ORDINAL="1251" NAME="?trUtf8@ActionButton@@SA?AVQString@@PBD0@Z" PURGE="0" COMMENT="" />
    <EXPORT ORDINAL="1252" NAME="?trUtf8@ActionButton@@SA?AVQString@@PBD0H@Z" PURGE="0" COMMENT="" />
    <EXPORT ORDINAL="1253" NAME="?trUtf8@AnimatedListLayout@@SA?AVQString@@PBD0@Z" PURGE="0" COMMENT="" />
    <EXPORT ORDINAL="1254" NAME="?trUtf8@AnimatedListLayout@@SA?AVQString@@PBD0H@Z" PURGE="0" COMMENT="" />
    <EXPORT ORDINAL="1255" NAME="?trUtf8@AnimatedStatusBar@@SA?AVQString@@PBD0@Z" PURGE="0" COMMENT="" />
    <EXPORT ORDINAL="1256" NAME="?trUtf8@AnimatedStatusBar@@SA?AVQString@@PBD0H@Z" PURGE="0" COMMENT="" />
    <EXPORT ORDINAL="1257" NAME="?trUtf8@Application@unicorn@@SA?AVQString@@PBD0@Z" PURGE="0" COMMENT="" />
    <EXPORT ORDINAL="1258" NAME="?trUtf8@Application@unicorn@@SA?AVQString@@PBD0H@Z" PURGE="0" COMMENT="" />
    <EXPORT ORDINAL="1259" NAME="?trUtf8@AvatarWidget@@SA?AVQString@@PBD0@Z" PURGE="0" COMMENT="" />
    <EXPORT ORDINAL="1260" NAME="?trUtf8@AvatarWidget@@SA?AVQString@@PBD0H@Z" PURGE="0" COMMENT="" />
    <EXPORT ORDINAL="1261" NAME="?trUtf8@BannerWidget@@SA?AVQString@@PBD0@Z" PURGE="0" COMMENT="" />
    <EXPORT ORDINAL="1262" NAME="?trUtf8@BannerWidget@@SA?AVQString@@PBD0H@Z" PURGE="0" COMMENT="" />
    <EXPORT ORDINAL="1263" NAME="?trUtf8@CloseAppsDialog@unicorn@@SA?AVQString@@PBD0@Z" PURGE="0" COMMENT="" />
    <EXPORT ORDINAL="1264" NAME="?trUtf8@CloseAppsDialog@unicorn@@SA?AVQString@@PBD0H@Z" PURGE="0" COMMENT="" />
    <EXPORT ORDINAL="1265" NAME="?trUtf8@DataBox@@SA?AVQString@@PBD0@Z" PURGE="0" COMMENT="" />
    <EXPORT ORDINAL="1266" NAME="?trUtf8@DataBox@@SA?AVQString@@PBD0H@Z" PURGE="0" COMMENT="" />
    <EXPORT ORDINAL="1267" NAME="?trUtf8@DataListWidget@@SA?AVQString@@PBD0@Z" PURGE="0" COMMENT="" />
    <EXPORT ORDINAL="1268" NAME="?trUtf8@DataListWidget@@SA?AVQString@@PBD0H@Z" PURGE="0" COMMENT="" />
    <EXPORT ORDINAL="1269" NAME="?trUtf8@Dialog@unicorn@@SA?AVQString@@PBD0@Z" PURGE="0" COMMENT="" />
    <EXPORT ORDINAL="1270" NAME="?trUtf8@Dialog@unicorn@@SA?AVQString@@PBD0H@Z" PURGE="0" COMMENT="" />
    <EXPORT ORDINAL="1271" NAME="?trUtf8@FooBar08PluginInfo@unicorn@@SA?AVQString@@PBD0@Z" PURGE="0" COMMENT="" />
    <EXPORT ORDINAL="1272" NAME="?trUtf8@FooBar08PluginInfo@unicorn@@SA?AVQString@@PBD0H@Z" PURGE="0" COMMENT="" />
    <EXPORT ORDINAL="1273" NAME="?trUtf8@FooBar09PluginInfo@unicorn@@SA?AVQString@@PBD0@Z" PURGE="0" COMMENT="" />
    <EXPORT ORDINAL="1274" NAME="?trUtf8@FooBar09PluginInfo@unicorn@@SA?AVQString@@PBD0H@Z" PURGE="0" COMMENT="" />
    <EXPORT ORDINAL="1275" NAME="?trUtf8@FriendsPicker@@SA?AVQString@@PBD0@Z" PURGE="0" COMMENT="" />
    <EXPORT ORDINAL="1276" NAME="?trUtf8@FriendsPicker@@SA?AVQString@@PBD0H@Z" PURGE="0" COMMENT="" />
    <EXPORT ORDINAL="1277" NAME="?trUtf8@HttpImageWidget@@SA?AVQString@@PBD0@Z" PURGE="0" COMMENT="" />
    <EXPORT ORDINAL="1278" NAME="?trUtf8@HttpImageWidget@@SA?AVQString@@PBD0H@Z" PURGE="0" COMMENT="" />
    <EXPORT ORDINAL="1279" NAME="?trUtf8@IPluginInfo@unicorn@@SA?AVQString@@PBD0@Z" PURGE="0" COMMENT="" />
    <EXPORT ORDINAL="1280" NAME="?trUtf8@IPluginInfo@unicorn@@SA?AVQString@@PBD0H@Z" PURGE="0" COMMENT="" />
    <EXPORT ORDINAL="1281" NAME="?trUtf8@ITunesPluginInfo@unicorn@@SA?AVQString@@PBD0@Z" PURGE="0" COMMENT="" />
    <EXPORT ORDINAL="1282" NAME="?trUtf8@ITunesPluginInfo@unicorn@@SA?AVQString@@PBD0H@Z" PURGE="0" COMMENT="" />
    <EXPORT ORDINAL="1283" NAME="?trUtf8@ItemSelectorWidget@@SA?AVQString@@PBD0@Z" PURGE="0" COMMENT="" />
    <EXPORT ORDINAL="1284" NAME="?trUtf8@ItemSelectorWidget@@SA?AVQString@@PBD0H@Z" PURGE="0" COMMENT="" />
    <EXPORT ORDINAL="1285" NAME="?trUtf8@Label@unicorn@@SA?AVQString@@PBD0@Z" PURGE="0" COMMENT="" />
    <EXPORT ORDINAL="1286" NAME="?trUtf8@Label@unicorn@@SA?AVQString@@PBD0H@Z" PURGE="0" COMMENT="" />
    <EXPORT ORDINAL="1287" NAME="?trUtf8@LfmDelegate@@SA?AVQString@@PBD0@Z" PURGE="0" COMMENT="" />
    <EXPORT ORDINAL="1288" NAME="?trUtf8@LfmDelegate@@SA?AVQString@@PBD0H@Z" PURGE="0" COMMENT="" />
    <EXPORT ORDINAL="1289" NAME="?trUtf8@LfmListModel@@SA?AVQString@@PBD0@Z" PURGE="0" COMMENT="" />
    <EXPORT ORDINAL="1290" NAME="?trUtf8@LfmListModel@@SA?AVQString@@PBD0H@Z" PURGE="0" COMMENT="" />
    <EXPORT ORDINAL="1291" NAME="?trUtf8@LfmListView@@SA?AVQString@@PBD0@Z" PURGE="0" COMMENT="" />
    <EXPORT ORDINAL="1292" NAME="?trUtf8@LfmListView@@SA?AVQString@@PBD0H@Z" PURGE="0" COMMENT="" />
    <EXPORT ORDINAL="1293" NAME="?trUtf8@LoginContinueDialog@@SA?AVQString@@PBD0@Z" PURGE="0" COMMENT="" />
    <EXPORT ORDINAL="1294" NAME="?trUtf8@LoginContinueDialog@@SA?AVQString@@PBD0H@Z" PURGE="0" COMMENT="" />
    <EXPORT ORDINAL="1295" NAME="?trUtf8@LoginDialog@@SA?AVQString@@PBD0@Z" PURGE="0" COMMENT="" />
    <EXPORT ORDINAL="1296" NAME="?trUtf8@LoginDialog@@SA?AVQString@@PBD0H@Z" PURGE="0" COMMENT="" />
    <EXPORT ORDINAL="1297" NAME="?trUtf8@LoginProcess@unicorn@@SA?AVQString@@PBD0@Z" PURGE="0" COMMENT="" />
    <EXPORT ORDINAL="1298" NAME="?trUtf8@LoginProcess@unicorn@@SA?AVQString@@PBD0H@Z" PURGE="0" COMMENT="" />
    <EXPORT ORDINAL="1299" NAME="?trUtf8@MainWindow@unicorn@@SA?AVQString@@PBD0@Z" PURGE="0" COMMENT="" />
    <EXPORT ORDINAL="1300" NAME="?trUtf8@MainWindow@unicorn@@SA?AVQString@@PBD0H@Z" PURGE="0" COMMENT="" />
    <EXPORT ORDINAL="1301" NAME="?trUtf8@MessageBar@@SA?AVQString@@PBD0@Z" PURGE="0" COMMENT="" />
    <EXPORT ORDINAL="1302" NAME="?trUtf8@MessageBar@@SA?AVQString@@PBD0H@Z" PURGE="0" COMMENT="" />
    <EXPORT ORDINAL="1303" NAME="?trUtf8@MessageDialog@unicorn@@SA?AVQString@@PBD0@Z" PURGE="0" COMMENT="" />
    <EXPORT ORDINAL="1304" NAME="?trUtf8@MessageDialog@unicorn@@SA?AVQString@@PBD0H@Z" PURGE="0" COMMENT="" />
    <EXPORT ORDINAL="1305" NAME="?trUtf8@PluginList@unicorn@@SA?AVQString@@PBD0@Z" PURGE="0" COMMENT="" />
    <EXPORT ORDINAL="1306" NAME="?trUtf8@PluginList@unicorn@@SA?AVQString@@PBD0H@Z" PURGE="0" COMMENT="" />
    <EXPORT ORDINAL="1307" NAME="?trUtf8@ProxyDialog@unicorn@@SA?AVQString@@PBD0@Z" PURGE="0" COMMENT="" />
    <EXPORT ORDINAL="1308" NAME="?trUtf8@ProxyDialog@unicorn@@SA?AVQString@@PBD0H@Z" PURGE="0" COMMENT="" />
    <EXPORT ORDINAL="1309" NAME="?trUtf8@ProxyWidget@unicorn@@SA?AVQString@@PBD0@Z" PURGE="0" COMMENT="" />
    <EXPORT ORDINAL="1310" NAME="?trUtf8@ProxyWidget@unicorn@@SA?AVQString@@PBD0H@Z" PURGE="0" COMMENT="" />
    <EXPORT ORDINAL="1311" NAME="?trUtf8@QtSingleApplication@@SA?AVQString@@PBD0@Z" PURGE="0" COMMENT="" />
    <EXPORT ORDINAL="1312" NAME="?trUtf8@QtSingleApplication@@SA?AVQString@@PBD0H@Z" PURGE="0" COMMENT="" />
    <EXPORT ORDINAL="1313" NAME="?trUtf8@QtSingleCoreApplication@@SA?AVQString@@PBD0@Z" PURGE="0" COMMENT="" />
    <EXPORT ORDINAL="1314" NAME="?trUtf8@QtSingleCoreApplication@@SA?AVQString@@PBD0H@Z" PURGE="0" COMMENT="" />
    <EXPORT ORDINAL="1315" NAME="?trUtf8@ScrobbleConfirmationDialog@@SA?AVQString@@PBD0@Z" PURGE="0" COMMENT="" />
    <EXPORT ORDINAL="1316" NAME="?trUtf8@ScrobbleConfirmationDialog@@SA?AVQString@@PBD0H@Z" PURGE="0" COMMENT="" />
    <EXPORT ORDINAL="1317" NAME="?trUtf8@ScrobblesModel@@SA?AVQString@@PBD0@Z" PURGE="0" COMMENT="" />
    <EXPORT ORDINAL="1318" NAME="?trUtf8@ScrobblesModel@@SA?AVQString@@PBD0H@Z" PURGE="0" COMMENT="" />
    <EXPORT ORDINAL="1319" NAME="?trUtf8@SearchBox@@SA?AVQString@@PBD0@Z" PURGE="0" COMMENT="" />
    <EXPORT ORDINAL="1320" NAME="?trUtf8@SearchBox@@SA?AVQString@@PBD0H@Z" PURGE="0" COMMENT="" />
    <EXPORT ORDINAL="1321" NAME="?trUtf8@Session@unicorn@@SA?AVQString@@PBD0@Z" PURGE="0" COMMENT="" />
    <EXPORT ORDINAL="1322" NAME="?trUtf8@Session@unicorn@@SA?AVQString@@PBD0H@Z" PURGE="0" COMMENT="" />
    <EXPORT ORDINAL="1323" NAME="?trUtf8@ShareDialog@@SA?AVQString@@PBD0@Z" PURGE="0" COMMENT="" />
    <EXPORT ORDINAL="1324" NAME="?trUtf8@ShareDialog@@SA?AVQString@@PBD0H@Z" PURGE="0" COMMENT="" />
    <EXPORT ORDINAL="1325" NAME="?trUtf8@SideBySideLayout@@SA?AVQString@@PBD0@Z" PURGE="0" COMMENT="" />
    <EXPORT ORDINAL="1326" NAME="?trUtf8@SideBySideLayout@@SA?AVQString@@PBD0H@Z" PURGE="0" COMMENT="" />
    <EXPORT ORDINAL="1327" NAME="?trUtf8@SignalBlocker@@SA?AVQString@@PBD0@Z" PURGE="0" COMMENT="" />
    <EXPORT ORDINAL="1328" NAME="?trUtf8@SignalBlocker@@SA?AVQString@@PBD0H@Z" PURGE="0" COMMENT="" />
    <EXPORT ORDINAL="1329" NAME="?trUtf8@SlideOverLayout@@SA?AVQString@@PBD0@Z" PURGE="0" COMMENT="" />
    <EXPORT ORDINAL="1330" NAME="?trUtf8@SlideOverLayout@@SA?AVQString@@PBD0H@Z" PURGE="0" COMMENT="" />
    <EXPORT ORDINAL="1331" NAME="?trUtf8@SlidingStackedWidget@unicorn@@SA?AVQString@@PBD0@Z" PURGE="0" COMMENT="" />
    <EXPORT ORDINAL="1332" NAME="?trUtf8@SlidingStackedWidget@unicorn@@SA?AVQString@@PBD0H@Z" PURGE="0" COMMENT="" />
    <EXPORT ORDINAL="1333" NAME="?trUtf8@StackedWidget@unicorn@@SA?AVQString@@PBD0@Z" PURGE="0" COMMENT="" />
    <EXPORT ORDINAL="1334" NAME="?trUtf8@StackedWidget@unicorn@@SA?AVQString@@PBD0H@Z" PURGE="0" COMMENT="" />
    <EXPORT ORDINAL="1335" NAME="?trUtf8@TagDialog@@SA?AVQString@@PBD0@Z" PURGE="0" COMMENT="" />
    <EXPORT ORDINAL="1336" NAME="?trUtf8@TagDialog@@SA?AVQString@@PBD0H@Z" PURGE="0" COMMENT="" />
    <EXPORT ORDINAL="1337" NAME="?trUtf8@TrackImageFetcher@@SA?AVQString@@PBD0@Z" PURGE="0" COMMENT="" />
    <EXPORT ORDINAL="1338" NAME="?trUtf8@TrackImageFetcher@@SA?AVQString@@PBD0H@Z" PURGE="0" COMMENT="" />
    <EXPORT ORDINAL="1339" NAME="?trUtf8@TrackWidget@@SA?AVQString@@PBD0@Z" PURGE="0" COMMENT="" />
    <EXPORT ORDINAL="1340" NAME="?trUtf8@TrackWidget@@SA?AVQString@@PBD0H@Z" PURGE="0" COMMENT="" />
    <EXPORT ORDINAL="1341" NAME="?trUtf8@UpdateInfoFetcher@@SA?AVQString@@PBD0@Z" PURGE="0" COMMENT="" />
    <EXPORT ORDINAL="1342" NAME="?trUtf8@UpdateInfoFetcher@@SA?AVQString@@PBD0H@Z" PURGE="0" COMMENT="" />
    <EXPORT ORDINAL="1343" NAME="?trUtf8@Updater@unicorn@@SA?AVQString@@PBD0@Z" PURGE="0" COMMENT="" />
    <EXPORT ORDINAL="1344" NAME="?trUtf8@Updater@unicorn@@SA?AVQString@@PBD0H@Z" PURGE="0" COMMENT="" />
    <EXPORT ORDINAL="1345" NAME="?trUtf8@UserComboSelector@@SA?AVQString@@PBD0@Z" PURGE="0" COMMENT="" />
    <EXPORT ORDINAL="1346" NAME="?trUtf8@UserComboSelector@@SA?AVQString@@PBD0H@Z" PURGE="0" COMMENT="" />
    <EXPORT ORDINAL="1347" NAME="?trUtf8@UserManagerDialog@@SA?AVQString@@PBD0@Z" PURGE="0" COMMENT="" />
    <EXPORT ORDINAL="1348" NAME="?trUtf8@UserManagerDialog@@SA?AVQString@@PBD0H@Z" PURGE="0" COMMENT="" />
    <EXPORT ORDINAL="1349" NAME="?trUtf8@UserManagerWidget@@SA?AVQString@@PBD0@Z" PURGE="0" COMMENT="" />
    <EXPORT ORDINAL="1350" NAME="?trUtf8@UserManagerWidget@@SA?AVQString@@PBD0H@Z" PURGE="0" COMMENT="" />
    <EXPORT ORDINAL="1351" NAME="?trUtf8@UserMenu@@SA?AVQString@@PBD0@Z" PURGE="0" COMMENT="" />
    <EXPORT ORDINAL="1352" NAME="?trUtf8@UserMenu@@SA?AVQString@@PBD0H@Z" PURGE="0" COMMENT="" />
    <EXPORT ORDINAL="1353" NAME="?trUtf8@UserRadioButton@@SA?AVQString@@PBD0@Z" PURGE="0" COMMENT="" />
    <EXPORT ORDINAL="1354" NAME="?trUtf8@UserRadioButton@@SA?AVQString@@PBD0H@Z" PURGE="0" COMMENT="" />
    <EXPORT ORDINAL="1355" NAME="?trUtf8@UserSearch@@SA?AVQString@@PBD0@Z" PURGE="0" COMMENT="" />
    <EXPORT ORDINAL="1356" NAME="?trUtf8@UserSearch@@SA?AVQString@@PBD0H@Z" PURGE="0" COMMENT="" />
    <EXPORT ORDINAL="1357" NAME="?trUtf8@UserToolButton@@SA?AVQString@@PBD0@Z" PURGE="0" COMMENT="" />
    <EXPORT ORDINAL="1358" NAME="?trUtf8@UserToolButton@@SA?AVQString@@PBD0H@Z" PURGE="0" COMMENT="" />
    <EXPORT ORDINAL="1359" NAME="?trUtf8@WinampPluginInfo@unicorn@@SA?AVQString@@PBD0@Z" PURGE="0" COMMENT="" />
    <EXPORT ORDINAL="1360" NAME="?trUtf8@WinampPluginInfo@unicorn@@SA?AVQString@@PBD0H@Z" PURGE="0" COMMENT="" />
    <EXPORT ORDINAL="1361" NAME="?trUtf8@WmpPluginInfo@unicorn@@SA?AVQString@@PBD0@Z" PURGE="0" COMMENT="" />
    <EXPORT ORDINAL="1362" NAME="?trUtf8@WmpPluginInfo@unicorn@@SA?AVQString@@PBD0H@Z" PURGE="0" COMMENT="" />
    <EXPORT ORDINAL="1363" NAME="?track@ShareDialog@@QBE?AVTrack@lastfm@@XZ" PURGE="4" COMMENT="" />
    <EXPORT ORDINAL="1364" NAME="?track@TagDialog@@QBE?AVTrack@lastfm@@XZ" PURGE="4" COMMENT="" />
    <EXPORT ORDINAL="1365" NAME="?track@TrackImageFetcher@@QBE?AVTrack@lastfm@@XZ" PURGE="4" COMMENT="" />
    <EXPORT ORDINAL="1366" NAME="?trackGetInfo@TrackImageFetcher@@AAEXXZ" PURGE="0" COMMENT="" />
    <EXPORT ORDINAL="1367" NAME="?tracks@MessageBar@@QBEABV?$QList@VTrack@lastfm@@@@XZ" PURGE="0" COMMENT="" />
    <EXPORT ORDINAL="1368" NAME="?tracksToScrobble@ScrobbleConfirmationDialog@@QBE?AV?$QList@VTrack@lastfm@@@@XZ" PURGE="4" COMMENT="" />
    <EXPORT ORDINAL="1369" NAME="?tracksToScrobble@ScrobblesModel@@QBE?AV?$QList@VTrack@lastfm@@@@XZ" PURGE="4" COMMENT="" />
    <EXPORT ORDINAL="1370" NAME="?translate@Application@unicorn@@QAEXXZ" PURGE="0" COMMENT="" />
    <EXPORT ORDINAL="1371" NAME="?type@TrackWidget@@QBE?AW4Type@1@XZ" PURGE="0" COMMENT="" />
    <EXPORT ORDINAL="1372" NAME="?type@UserSettings@unicorn@@QBE?AW4Type@User@lastfm@@XZ" PURGE="0" COMMENT="" />
    <EXPORT ORDINAL="1373" NAME="?unInstallHotKey@Application@unicorn@@QAEXPAX@Z" PURGE="4" COMMENT="" />
    <EXPORT ORDINAL="1374" NAME="?updateCharacterLimit@ShareDialog@@AAEXXZ" PURGE="0" COMMENT="" />
    <EXPORT ORDINAL="1375" NAME="?updateThumbButtons@MainWindow@unicorn@@AAEXXZ" PURGE="0" COMMENT="" />
    <EXPORT ORDINAL="1376" NAME="?updatedList@PluginList@unicorn@@QBE?AV?$QList@PAVIPluginInfo@unicorn@@@@XZ" PURGE="4" COMMENT="" />
    <EXPORT ORDINAL="1377" NAME="?url@TrackImageFetcher@@AAE?AVQUrl@@ABVQString@@@Z" PURGE="8" COMMENT="" />
    <EXPORT ORDINAL="1378" NAME="?user@Session@unicorn@@QBE?AVUser@lastfm@@XZ" PURGE="4" COMMENT="" />
    <EXPORT ORDINAL="1379" NAME="?user@UserRadioButton@@QBE?BVQString@@XZ" PURGE="4" COMMENT="" />
    <EXPORT ORDINAL="1380" NAME="?userChanged@UserManagerWidget@@IAEXXZ" PURGE="0" COMMENT="" />
    <EXPORT ORDINAL="1381" NAME="?userInfoUpdated@Session@unicorn@@IAEXABVUser@lastfm@@@Z" PURGE="4" COMMENT="" />
    <EXPORT ORDINAL="1382" NAME="?userRoster@Settings@unicorn@@QBE?AV?$QList@VUser@lastfm@@@@XZ" PURGE="4" COMMENT="" />
    <EXPORT ORDINAL="1383" NAME="?version@FooBar08PluginInfo@unicorn@@UBE?AVVersion@2@XZ" PURGE="4" COMMENT="" />
    <EXPORT ORDINAL="1384" NAME="?version@FooBar09PluginInfo@unicorn@@UBE?AVVersion@2@XZ" PURGE="4" COMMENT="" />
    <EXPORT ORDINAL="1385" NAME="?version@ITunesPluginInfo@unicorn@@UBE?AVVersion@2@XZ" PURGE="4" COMMENT="" />
    <EXPORT ORDINAL="1386" NAME="?version@WinampPluginInfo@unicorn@@UBE?AVVersion@2@XZ" PURGE="4" COMMENT="" />
    <EXPORT ORDINAL="1387" NAME="?version@WmpPluginInfo@unicorn@@UBE?AVVersion@2@XZ" PURGE="4" COMMENT="" />
    <EXPORT ORDINAL="1388" NAME="?verticalSpacing@FlowLayout@@QBEHXZ" PURGE="0" COMMENT="" />
    <EXPORT ORDINAL="1389" NAME="?winEvent@MainWindow@unicorn@@EAE_NPAUtagMSG@@PAJ@Z" PURGE="8" COMMENT="" />
    <EXPORT ORDINAL="1390" NAME="?winEventFilter@Application@unicorn@@CA_NPAX@Z" PURGE="0" COMMENT="" />
    <EXPORT ORDINAL="1391" NAME="?windowNotifier@QtWin@@CAPAVWindowNotifier@@XZ" PURGE="0" COMMENT="" />
    <EXPORT ORDINAL="1392" NAME="?write@Session@unicorn@@QBEAAVQDataStream@@AAV3@@Z" PURGE="4" COMMENT="" />
    <EXPORT ORDINAL="1393" NAME="?youRadio@Session@unicorn@@QBE_NXZ" PURGE="0" COMMENT="" />
    <EXPORT ORDINAL="1394" NAME="?youWebRadio@Session@unicorn@@QBE_NXZ" PURGE="0" COMMENT="" />
</LIBRARY>

