<?xml version="1.0" encoding="UTF-8"?>
<LIBRARY NAME="uxcontacts.dll" PATH="/DLLArchive/etc/uxcontacts.dll" DATE="Fri Jul 03 13:25:46 PDT 2020" VERSION="14.0.8117.0416">
    <EXPORT ORDINAL="10" NAME="Ordinal_10" PURGE="-1" COMMENT="" />
    <EXPORT ORDINAL="11" NAME="??0ABDialogPeoplePickerCommon@@QAE@XZ" PURGE="0" COMMENT="" />
    <EXPORT ORDINAL="12" NAME="??0CABDataObject@@QAE@XZ" PURGE="0" COMMENT="" />
    <EXPORT ORDINAL="13" NAME="??0CABDialog@@QAE@XZ" PURGE="0" COMMENT="" />
    <EXPORT ORDINAL="14" NAME="??0CABPopupMenu@@IAE@XZ" PURGE="0" COMMENT="" />
    <EXPORT ORDINAL="15" NAME="??0CAbListItem@@QAE@PAUIStoreObject@@KPB_W@Z" PURGE="12" COMMENT="" />
    <EXPORT ORDINAL="16" NAME="??0CAddressWellElement@@QAE@XZ" PURGE="0" COMMENT="" />
    <EXPORT ORDINAL="17" NAME="??0CBaseCircleDialog@@QAE@XZ" PURGE="0" COMMENT="" />
    <EXPORT ORDINAL="18" NAME="??0CBuddyIdentifierFilter@@QAE@XZ" PURGE="0" COMMENT="" />
    <EXPORT ORDINAL="19" NAME="??0CBuddyListCache@@QAE@PAVVirtualListView@@@Z" PURGE="4" COMMENT="" />
    <EXPORT ORDINAL="20" NAME="??0CBuddyListElement@@QAE@XZ" PURGE="0" COMMENT="" />
    <EXPORT ORDINAL="21" NAME="??0CBuddyListElementBase@@QAE@XZ" PURGE="0" COMMENT="" />
    <EXPORT ORDINAL="22" NAME="??0CBuddyListHostHolder@@QAE@XZ" PURGE="0" COMMENT="" />
    <EXPORT ORDINAL="23" NAME="??0CCircleElement@@QAE@XZ" PURGE="0" COMMENT="" />
    <EXPORT ORDINAL="24" NAME="??0CCircleFilter@@QAE@P6G_NPAUICircle@@@Z@Z" PURGE="4" COMMENT="" />
    <EXPORT ORDINAL="25" NAME="??0CContactDialog@@QAE@XZ" PURGE="0" COMMENT="" />
    <EXPORT ORDINAL="26" NAME="??0CContactElemBase@@QAE@XZ" PURGE="0" COMMENT="" />
    <EXPORT ORDINAL="27" NAME="??0CContactElement@@QAE@XZ" PURGE="0" COMMENT="" />
    <EXPORT ORDINAL="28" NAME="??0CContactPickerDialog@@QAE@XZ" PURGE="0" COMMENT="" />
    <EXPORT ORDINAL="29" NAME="??0CContactRegionElement@@QAE@XZ" PURGE="0" COMMENT="" />
    <EXPORT ORDINAL="30" NAME="??0CEmailFilter@@QAE@XZ" PURGE="0" COMMENT="" />
    <EXPORT ORDINAL="31" NAME="??0CFavoritesTransaction@Contacts@@QAE@PAPAUIStoreTransaction@@W4CommitType@01@@Z" PURGE="8" COMMENT="" />
    <EXPORT ORDINAL="32" NAME="??0CGroupElement@@QAE@XZ" PURGE="0" COMMENT="" />
    <EXPORT ORDINAL="33" NAME="??0CGroupFilter@@QAE@P6G_NPAUCONTACTGROUP@@@Z@Z" PURGE="4" COMMENT="" />
    <EXPORT ORDINAL="34" NAME="??0CGroupViewFilter@@QAE@PAUIGroup@@@Z" PURGE="4" COMMENT="" />
    <EXPORT ORDINAL="35" NAME="??0CListItemElement@@QAE@XZ" PURGE="0" COMMENT="" />
    <EXPORT ORDINAL="36" NAME="??0CMobileAddressSelector@@QAE@XZ" PURGE="0" COMMENT="" />
    <EXPORT ORDINAL="37" NAME="??0CMobileSelector@@QAE@XZ" PURGE="0" COMMENT="" />
    <EXPORT ORDINAL="38" NAME="??0CPassportFilter@@QAE@XZ" PURGE="0" COMMENT="" />
    <EXPORT ORDINAL="39" NAME="??0CPeoplePickerElem@@QAE@XZ" PURGE="0" COMMENT="" />
    <EXPORT ORDINAL="40" NAME="??0CPeoplePickerViewFilter@@QAE@XZ" PURGE="0" COMMENT="" />
    <EXPORT ORDINAL="41" NAME="??0CWordWheelElement@@QAE@XZ" PURGE="0" COMMENT="" />
    <EXPORT ORDINAL="42" NAME="??0CWordWheelGrouping@@QAE@I@Z" PURGE="4" COMMENT="" />
    <EXPORT ORDINAL="43" NAME="??0CWordWheelGrouping@@QAE@IW4Filter@0@PB_W1@Z" PURGE="16" COMMENT="" />
    <EXPORT ORDINAL="44" NAME="??1?$ISignoutCallbackImpl@UISignoutCallback@Contacts@@@Contacts@@UAE@XZ" PURGE="0" COMMENT="" />
    <EXPORT ORDINAL="45" NAME="??1ABDialogPeoplePickerCommon@@UAE@XZ" PURGE="0" COMMENT="" />
    <EXPORT ORDINAL="46" NAME="??1CABDataObject@@UAE@XZ" PURGE="0" COMMENT="" />
    <EXPORT ORDINAL="47" NAME="??1CABDataSource@@UAE@XZ" PURGE="0" COMMENT="" />
    <EXPORT ORDINAL="48" NAME="??1CABDialog@@UAE@XZ" PURGE="-1" COMMENT="" />
    <EXPORT ORDINAL="49" NAME="??1CABPopupMenu@@MAE@XZ" PURGE="0" COMMENT="" />
    <EXPORT ORDINAL="50" NAME="??1CAddContactDialog@@UAE@XZ" PURGE="-1" COMMENT="" />
    <EXPORT ORDINAL="51" NAME="??1CAddressWellElement@@UAE@XZ" PURGE="-1" COMMENT="" />
    <EXPORT ORDINAL="52" NAME="??1CBaseCircleDialog@@UAE@XZ" PURGE="-1" COMMENT="" />
    <EXPORT ORDINAL="53" NAME="??1CBaseGrouping@@UAE@XZ" PURGE="0" COMMENT="" />
    <EXPORT ORDINAL="54" NAME="??1CBuddyListCache@@UAE@XZ" PURGE="-1" COMMENT="" />
    <EXPORT ORDINAL="55" NAME="??1CBuddyListElement@@UAE@XZ" PURGE="-1" COMMENT="" />
    <EXPORT ORDINAL="56" NAME="??1CBuddyListElementBase@@UAE@XZ" PURGE="-1" COMMENT="" />
    <EXPORT ORDINAL="57" NAME="??1CBuddyListHostHolder@@QAE@XZ" PURGE="0" COMMENT="" />
    <EXPORT ORDINAL="58" NAME="??1CCircleElement@@UAE@XZ" PURGE="-1" COMMENT="" />
    <EXPORT ORDINAL="59" NAME="??1CContactDialog@@UAE@XZ" PURGE="-1" COMMENT="" />
    <EXPORT ORDINAL="60" NAME="??1CContactElemBase@@UAE@XZ" PURGE="-1" COMMENT="" />
    <EXPORT ORDINAL="61" NAME="??1CContactElement@@UAE@XZ" PURGE="-1" COMMENT="" />
    <EXPORT ORDINAL="62" NAME="??1CContactPickerDialog@@UAE@XZ" PURGE="0" COMMENT="" />
    <EXPORT ORDINAL="63" NAME="??1CContactRegionElement@@UAE@XZ" PURGE="-1" COMMENT="" />
    <EXPORT ORDINAL="64" NAME="??1CFavoritesTransaction@Contacts@@UAE@XZ" PURGE="0" COMMENT="" />
    <EXPORT ORDINAL="65" NAME="??1CGroupElement@@UAE@XZ" PURGE="-1" COMMENT="" />
    <EXPORT ORDINAL="66" NAME="??1CListItemElement@@UAE@XZ" PURGE="-1" COMMENT="" />
    <EXPORT ORDINAL="67" NAME="??1CMobileAddressSelector@@UAE@XZ" PURGE="-1" COMMENT="" />
    <EXPORT ORDINAL="68" NAME="??1CMobileSelector@@UAE@XZ" PURGE="-1" COMMENT="" />
    <EXPORT ORDINAL="69" NAME="??1CPPListElement@@UAE@XZ" PURGE="-1" COMMENT="" />
    <EXPORT ORDINAL="70" NAME="??1CPeoplePickerElem@@UAE@XZ" PURGE="-1" COMMENT="" />
    <EXPORT ORDINAL="71" NAME="??1CPeoplePickerViewFilter@@UAE@XZ" PURGE="0" COMMENT="" />
    <EXPORT ORDINAL="72" NAME="??1CViewFilter@@UAE@XZ" PURGE="0" COMMENT="" />
    <EXPORT ORDINAL="73" NAME="??1CWordWheelElement@@UAE@XZ" PURGE="-1" COMMENT="" />
    <EXPORT ORDINAL="74" NAME="??1CtryCode@@UAE@XZ" PURGE="0" COMMENT="" />
    <EXPORT ORDINAL="75" NAME="??BCFavoritesTransaction@Contacts@@QAEPAPAUIStoreTransaction@@XZ" PURGE="0" COMMENT="" />
    <EXPORT ORDINAL="76" NAME="?ABCMDToPhoneType@@YG?AW4SoftphoneContactPhoneType@@K@Z" PURGE="4" COMMENT="" />
    <EXPORT ORDINAL="77" NAME="?AcceptDataDrop@CAbListItem@@UAEJPAUQueryDropEvent@@PAUHWND__@@@Z" PURGE="8" COMMENT="" />
    <EXPORT ORDINAL="78" NAME="?AddCircleContacts@CWordWheelGrouping@@IAEJAAV?$CSimpleArray@V?$CComPtr@UISimpleContact@@@ATL@@V?$CSimpleArrayEqualHelper@V?$CComPtr@UISimpleContact@@@ATL@@@2@@ATL@@ABV23@@Z" PURGE="8" COMMENT="" />
    <EXPORT ORDINAL="79" NAME="?AddContactToMyProfile@Contacts@@YGJPAUHWND__@@PB_W@Z" PURGE="8" COMMENT="" />
    <EXPORT ORDINAL="80" NAME="?AddParticipantToWell@CAddressWellElement@@QAEJPAUIWellParticipant@@PAUIRichEditOle@@H@Z" PURGE="12" COMMENT="" />
    <EXPORT ORDINAL="81" NAME="?AddToFavorites@Contacts@@YGJPAUIUnknown@@PAPAUIStoreTransaction@@@Z" PURGE="8" COMMENT="" />
    <EXPORT ORDINAL="82" NAME="?AddToFavorites@Contacts@@YGJPAV?$CInterfaceList@UIWellParticipant@@$1?_GUID_56060bf9_196a_4a7f_8373_3482bba0f0d1@@3U__s_GUID@@B@ATL@@PAPAUIStoreTransaction@@@Z" PURGE="8" COMMENT="" />
    <EXPORT ORDINAL="83" NAME="?AddToFavoritesBelowContact@Contacts@@YGJPAUISimpleContact@@PAUIStoreObject@@PAPAUIStoreTransaction@@@Z" PURGE="12" COMMENT="" />
    <EXPORT ORDINAL="84" NAME="?AddToList@CBaseGrouping@@MAEJKPAUIABDataSource@@AAVCABListItemArray@@@Z" PURGE="12" COMMENT="" />
    <EXPORT ORDINAL="85" NAME="?AddToList@CPostWordWheelGrouping@@UAEJKPAUIABDataSource@@AAVCABListItemArray@@@Z" PURGE="12" COMMENT="" />
    <EXPORT ORDINAL="86" NAME="?AddToList@CWordWheelGrouping@@UAEJKPAUIABDataSource@@AAVCABListItemArray@@@Z" PURGE="12" COMMENT="" />
    <EXPORT ORDINAL="87" NAME="?AffectParticipant@CAddressWellElement@@UAEJABUPARTICIPANT@@W4ParticipantModificationOperation@@@Z" PURGE="8" COMMENT="" />
    <EXPORT ORDINAL="88" NAME="?AffectParticipant@CAddressWellElement@@UAEJPAUIParticipant@@W4ParticipantModificationOperation@@@Z" PURGE="8" COMMENT="" />
    <EXPORT ORDINAL="89" NAME="?AffectParticipant@CBuddyListElementBase@@UAEJABUPARTICIPANT@@W4ParticipantModificationOperation@@@Z" PURGE="8" COMMENT="" />
    <EXPORT ORDINAL="90" NAME="?AffectParticipant@CBuddyListElementBase@@UAEJPAUIParticipant@@W4ParticipantModificationOperation@@@Z" PURGE="8" COMMENT="" />
    <EXPORT ORDINAL="91" NAME="?AffectParticipant@CContactElemBase@@UAEJABUPARTICIPANT@@W4ParticipantModificationOperation@@@Z" PURGE="8" COMMENT="" />
    <EXPORT ORDINAL="92" NAME="?AffectParticipant@CContactElemBase@@UAEJPAUIParticipant@@W4ParticipantModificationOperation@@@Z" PURGE="8" COMMENT="" />
    <EXPORT ORDINAL="93" NAME="?BlockUnblock@Contacts@@YGJPAUICircle@@_N@Z" PURGE="8" COMMENT="" />
    <EXPORT ORDINAL="94" NAME="?BuddyListRefresh@CBuddyListCache@@MAEXXZ" PURGE="-1" COMMENT="" />
    <EXPORT ORDINAL="95" NAME="?BuddyListSetData@CBuddyListCache@@MAEXXZ" PURGE="0" COMMENT="" />
    <EXPORT ORDINAL="96" NAME="?CLSID_WELLOLEOBJECT@@3U_GUID@@B" PURGE="-1" COMMENT="" />
    <EXPORT ORDINAL="97" NAME="?CanAddAsProfileContact@@YG_NPAUISimpleContact@@@Z" PURGE="4" COMMENT="" />
    <EXPORT ORDINAL="98" NAME="?CanInstantMessage@Contacts@@YG_NPAUIUnknown@@@Z" PURGE="4" COMMENT="" />
    <EXPORT ORDINAL="99" NAME="?CanMobileMessage@@YG_NPAUISimpleContact@@@Z" PURGE="4" COMMENT="" />
    <EXPORT ORDINAL="100" NAME="?CanMobileMessage@Contacts@@YG_NPAUIUnknown@@@Z" PURGE="4" COMMENT="" />
    <EXPORT ORDINAL="101" NAME="?CanMoveFavorite@Contacts@@YGJPAUISimpleContact@@W4FavoriteMove@1@PA_N@Z" PURGE="12" COMMENT="" />
    <EXPORT ORDINAL="102" NAME="?CancelResolve@CAddressWellElement@@QAEJXZ" PURGE="0" COMMENT="" />
    <EXPORT ORDINAL="103" NAME="?CannotMobileMessage@@YG_NPAUISimpleContact@@@Z" PURGE="4" COMMENT="" />
    <EXPORT ORDINAL="104" NAME="?ChangeEmailMenuItemText@CABPopupMenu@@IAEJPAU_tagOLECMDTEXT@@K@Z" PURGE="8" COMMENT="" />
    <EXPORT ORDINAL="105" NAME="?ChangeGroupMembership@Contacts@@YGJPAUISimpleContact@@KKPAPAUIStoreTransaction@@@Z" PURGE="16" COMMENT="" />
    <EXPORT ORDINAL="106" NAME="?ChangeInlineEditState@CListItemElement@@IAEX_N@Z" PURGE="4" COMMENT="" />
    <EXPORT ORDINAL="107" NAME="?ChangePSTNMenuItemText@CABPopupMenu@@KGJPAUISimpleContact@@KAAU_tagOLECMD@@PAU_tagOLECMDTEXT@@@Z" PURGE="16" COMMENT="" />
    <EXPORT ORDINAL="108" NAME="?CheckCapabilityOnContact@CPeoplePickerViewFilter@@SG_NPAUIBuddyListHost@@PAUISimpleContact@@HW4CAPABILITY@@@Z" PURGE="16" COMMENT="" />
    <EXPORT ORDINAL="109" NAME="?CheckForZeroListItems@CContactElemBase@@MAEXXZ" PURGE="0" COMMENT="" />
    <EXPORT ORDINAL="110" NAME="?CheckNames@CAddressWellElement@@UAEJW4ECheckNamesFlags@Contacts@@@Z" PURGE="4" COMMENT="" />
    <EXPORT ORDINAL="111" NAME="?CheckPolicy@Contacts@@YGJW4PolicyCheckType@@PB_W11PAKPAW4PolicyCheckResult@@@Z" PURGE="-1" COMMENT="" />
    <EXPORT ORDINAL="112" NAME="?Class@CAddressWellElement@@2PAUIClassInfo@DirectUI@@A" PURGE="-1" COMMENT="" />
    <EXPORT ORDINAL="113" NAME="?Class@CBuddyListElement@@2PAUIClassInfo@DirectUI@@A" PURGE="-1" COMMENT="" />
    <EXPORT ORDINAL="114" NAME="?Class@CBuddyListElementBase@@2PAUIClassInfo@DirectUI@@A" PURGE="-1" COMMENT="" />
    <EXPORT ORDINAL="115" NAME="?Class@CBuddyVirtualList@@2PAUIClassInfo@DirectUI@@A" PURGE="-1" COMMENT="" />
    <EXPORT ORDINAL="116" NAME="?Class@CCircleElement@@2PAUIClassInfo@DirectUI@@A" PURGE="-1" COMMENT="" />
    <EXPORT ORDINAL="117" NAME="?Class@CContactElemBase@@2PAUIClassInfo@DirectUI@@A" PURGE="-1" COMMENT="" />
    <EXPORT ORDINAL="118" NAME="?Class@CContactElement@@2PAUIClassInfo@DirectUI@@A" PURGE="-1" COMMENT="" />
    <EXPORT ORDINAL="119" NAME="?Class@CContactRegionElement@@2PAUIClassInfo@DirectUI@@A" PURGE="-1" COMMENT="" />
    <EXPORT ORDINAL="120" NAME="?Class@CGroupElement@@2PAUIClassInfo@DirectUI@@A" PURGE="-1" COMMENT="" />
    <EXPORT ORDINAL="121" NAME="?Class@CListItemElement@@2PAUIClassInfo@DirectUI@@A" PURGE="-1" COMMENT="" />
    <EXPORT ORDINAL="122" NAME="?Class@CMobileAddressSelector@@2PAUIClassInfo@DirectUI@@A" PURGE="-1" COMMENT="" />
    <EXPORT ORDINAL="123" NAME="?Class@CMobileSelector@@2PAUIClassInfo@DirectUI@@A" PURGE="-1" COMMENT="" />
    <EXPORT ORDINAL="124" NAME="?Class@CPPListElement@@2PAUIClassInfo@DirectUI@@A" PURGE="-1" COMMENT="" />
    <EXPORT ORDINAL="125" NAME="?Class@CPeoplePickerElem@@2PAUIClassInfo@DirectUI@@A" PURGE="-1" COMMENT="" />
    <EXPORT ORDINAL="126" NAME="?Class@CWordWheelElement@@2PAUIClassInfo@DirectUI@@A" PURGE="-1" COMMENT="" />
    <EXPORT ORDINAL="127" NAME="?Cleanup@CContactElemBase@@IAEXXZ" PURGE="0" COMMENT="" />
    <EXPORT ORDINAL="128" NAME="?CleanupCounters@Contacts@@YGJXZ" PURGE="-1" COMMENT="" />
    <EXPORT ORDINAL="129" NAME="?ClearSelection@CBuddyListElementBase@@UAEXXZ" PURGE="-1" COMMENT="" />
    <EXPORT ORDINAL="130" NAME="?ClearWell@CAddressWellElement@@QAEJXZ" PURGE="0" COMMENT="" />
    <EXPORT ORDINAL="131" NAME="?ClearWordWheel@CWordWheelElement@@QAEJXZ" PURGE="0" COMMENT="" />
    <EXPORT ORDINAL="132" NAME="?CloseDialog@CAddContactDialog@@UAGJXZ" PURGE="4" COMMENT="" />
    <EXPORT ORDINAL="133" NAME="?CloseDialog@CBaseCircleDialog@@UAGJXZ" PURGE="4" COMMENT="" />
    <EXPORT ORDINAL="134" NAME="?CloseDialog@CContactDialog@@UAGJXZ" PURGE="4" COMMENT="" />
    <EXPORT ORDINAL="135" NAME="?CloseDialog@CContactPickerDialog@@UAGJXZ" PURGE="4" COMMENT="" />
    <EXPORT ORDINAL="136" NAME="?Commit@CViewFilter@@UAEJPAUIABDataSource@@@Z" PURGE="4" COMMENT="" />
    <EXPORT ORDINAL="137" NAME="?CommitChanges@CContactDialog@@MAEJXZ" PURGE="0" COMMENT="" />
    <EXPORT ORDINAL="138" NAME="?CommitContactProperty@Contacts@@YGJABVCUpdateProperties@@@Z" PURGE="4" COMMENT="" />
    <EXPORT ORDINAL="139" NAME="?Compare@CAbListItem@@UBEHPAUIListItem@@@Z" PURGE="4" COMMENT="" />
    <EXPORT ORDINAL="140" NAME="?CompareContactListItems@@YAHPBX0@Z" PURGE="0" COMMENT="" />
    <EXPORT ORDINAL="141" NAME="?CompareFavoriteListItems@@YAHPBX0@Z" PURGE="0" COMMENT="" />
    <EXPORT ORDINAL="142" NAME="?CompareGroupAndCircleListItems@@YAHPBX0@Z" PURGE="0" COMMENT="" />
    <EXPORT ORDINAL="143" NAME="?CompareStoreObjectNames@@YGHPAUIUnknown@@0@Z" PURGE="8" COMMENT="" />
    <EXPORT ORDINAL="144" NAME="?ContactHasEmail@@YG_NPAUISimpleContact@@@Z" PURGE="4" COMMENT="" />
    <EXPORT ORDINAL="145" NAME="?ContactHasPhone@@YG_NPAUISimpleContact@@@Z" PURGE="4" COMMENT="" />
    <EXPORT ORDINAL="146" NAME="?ConvertCodeToDword@CtryCode@@SGKPB_W@Z" PURGE="4" COMMENT="" />
    <EXPORT ORDINAL="147" NAME="?ConvertCodesToMap@CtryCode@@SGXPB_WAAV?$CRBMap@KEV?$CElementTraits@K@ATL@@V?$CElementTraits@E@2@@ATL@@@Z" PURGE="8" COMMENT="" />
    <EXPORT ORDINAL="148" NAME="?ConvertDwordToCode@CtryCode@@SGXKPA_WI@Z" PURGE="12" COMMENT="" />
    <EXPORT ORDINAL="149" NAME="?ConvertStringToI64@Contacts@@YGJPB_WKPA_J@Z" PURGE="12" COMMENT="" />
    <EXPORT ORDINAL="150" NAME="?CopyContactToGroup@CABPopupMenu@@IAEJPAUISimpleContact@@K@Z" PURGE="8" COMMENT="" />
    <EXPORT ORDINAL="151" NAME="?Create@CABDataSource@@SGJKPAPAUIABDataSource@@W4ESORTBYCOLUMN@@@Z" PURGE="12" COMMENT="" />
    <EXPORT ORDINAL="152" NAME="?Create@CABPopupMenu@@SGJPAPAUIABPopupMenu@@@Z" PURGE="4" COMMENT="" />
    <EXPORT ORDINAL="153" NAME="?Create@CAddContactDialog@@SGJPAUISimpleContact@@PAPAV1@PAUHWND__@@_N@Z" PURGE="16" COMMENT="" />
    <EXPORT ORDINAL="154" NAME="?Create@CAddressWellElement@@SGJPAPAVElement@DirectUI@@@Z" PURGE="4" COMMENT="" />
    <EXPORT ORDINAL="155" NAME="?Create@CBaseCircleDialog@@KGJPAUIUnknown@@GPB_WPAUHWND__@@PAUtagPOINT@@1IIPAUIParticipantList@@PAPAV1@@Z" PURGE="40" COMMENT="" />
    <EXPORT ORDINAL="156" NAME="?Create@CBuddyListElement@@SGJPAPAVElement@DirectUI@@@Z" PURGE="4" COMMENT="" />
    <EXPORT ORDINAL="157" NAME="?Create@CBuddyListElementBase@@SGJPAPAVElement@DirectUI@@@Z" PURGE="4" COMMENT="" />
    <EXPORT ORDINAL="158" NAME="?Create@CBuddyVirtualList@@SGJPAPAVElement@DirectUI@@@Z" PURGE="4" COMMENT="" />
    <EXPORT ORDINAL="159" NAME="?Create@CCircleElement@@SGJPAPAVElement@DirectUI@@@Z" PURGE="4" COMMENT="" />
    <EXPORT ORDINAL="160" NAME="?Create@CContactDialog@@SGJPAUISimpleContact@@PAPAV1@_NPAUHWND__@@KPAUIContactProperties@@PAUIStoreObjectEditor@@PAUIUnknown@@@Z" PURGE="32" COMMENT="" />
    <EXPORT ORDINAL="161" NAME="?Create@CContactElemBase@@SGJPAPAVElement@DirectUI@@@Z" PURGE="4" COMMENT="" />
    <EXPORT ORDINAL="162" NAME="?Create@CContactElement@@SGJPAPAVElement@DirectUI@@@Z" PURGE="4" COMMENT="" />
    <EXPORT ORDINAL="163" NAME="?Create@CContactPickerDialog@@SGJPAPAV1@PAUHWND__@@@Z" PURGE="8" COMMENT="" />
    <EXPORT ORDINAL="164" NAME="?Create@CContactRegionElement@@SGJPAPAVElement@DirectUI@@@Z" PURGE="4" COMMENT="" />
    <EXPORT ORDINAL="165" NAME="?Create@CGroupElement@@SGJPAPAVElement@DirectUI@@@Z" PURGE="4" COMMENT="" />
    <EXPORT ORDINAL="166" NAME="?Create@CListItemElement@@SGJPAPAVElement@DirectUI@@@Z" PURGE="4" COMMENT="" />
    <EXPORT ORDINAL="167" NAME="?Create@CMobileAddressSelector@@SGJPAPAVElement@DirectUI@@@Z" PURGE="4" COMMENT="" />
    <EXPORT ORDINAL="168" NAME="?Create@CMobileSelector@@SGJPAPAVElement@DirectUI@@@Z" PURGE="4" COMMENT="" />
    <EXPORT ORDINAL="169" NAME="?Create@CPPListElement@@SGJPAPAVElement@DirectUI@@@Z" PURGE="4" COMMENT="" />
    <EXPORT ORDINAL="170" NAME="?Create@CPeoplePickerElem@@SGJPAPAVElement@DirectUI@@@Z" PURGE="4" COMMENT="" />
    <EXPORT ORDINAL="171" NAME="?Create@CWordWheelElement@@SGJPAPAVElement@DirectUI@@@Z" PURGE="4" COMMENT="" />
    <EXPORT ORDINAL="172" NAME="?CreateAddContactDialog@Contacts@@YGJPAPAUIContactAddDialog@@PAUHWND__@@PB_W2@Z" PURGE="16" COMMENT="" />
    <EXPORT ORDINAL="173" NAME="?CreateAddContactDialog@Contacts@@YGJPAUISimpleContact@@PAPAUIContactAddDialog@@PAUHWND__@@_N@Z" PURGE="16" COMMENT="" />
    <EXPORT ORDINAL="174" NAME="?CreateBuddyCache@CBuddyListElementBase@@MAEJPAVCBuddyVirtualList@@PAPAVCBuddyListCache@@@Z" PURGE="8" COMMENT="" />
    <EXPORT ORDINAL="175" NAME="?CreateContextMenu@CABPopupMenu@@IAEJPB_WPAUHWND__@@HH_NPAUIUnknown@@@Z" PURGE="24" COMMENT="" />
    <EXPORT ORDINAL="176" NAME="?CreateDefaultGroup@Contacts@@YGJIPAPAUIStoreTransaction@@K@Z" PURGE="12" COMMENT="" />
    <EXPORT ORDINAL="177" NAME="?CreateDefaultGroup@Contacts@@YGJIPAPAUIStoreTransaction@@KK@Z" PURGE="16" COMMENT="" />
    <EXPORT ORDINAL="178" NAME="?CreateElement@CAbListItem@@UAEJAAVCRMDUIParser@@AAVElementRecycler@@PAPAVElement@DirectUI@@@Z" PURGE="12" COMMENT="" />
    <EXPORT ORDINAL="179" NAME="?CreateElement@CAddressWellElement@@UAEJPAPAVElement@DirectUI@@@Z" PURGE="4" COMMENT="" />
    <EXPORT ORDINAL="180" NAME="?CreateElement@CBuddyListCache@@UAEJJPAPAVElement@DirectUI@@@Z" PURGE="8" COMMENT="" />
    <EXPORT ORDINAL="181" NAME="?CreateGroupDialog@Contacts@@YGJPAUIGroup@@PAPAUIGroupDialog@@PAUHWND__@@@Z" PURGE="12" COMMENT="" />
    <EXPORT ORDINAL="182" NAME="?CreateInstance@CBaseCircleDialog@@KGJPAPAV1@@Z" PURGE="4" COMMENT="" />
    <EXPORT ORDINAL="183" NAME="?CreateItemList@CBuddyListElementBase@@MAEJXZ" PURGE="0" COMMENT="" />
    <EXPORT ORDINAL="184" NAME="?CreateItemList@CPPListElement@@MAEJXZ" PURGE="0" COMMENT="" />
    <EXPORT ORDINAL="185" NAME="?CreateUIContact@CBaseGrouping@@IAEJIKPAPAUISimpleContact@@@Z" PURGE="12" COMMENT="" />
    <EXPORT ORDINAL="186" NAME="?CreateUIContact@CBaseGrouping@@SGJKIKPAPAUISimpleContact@@@Z" PURGE="16" COMMENT="" />
    <EXPORT ORDINAL="187" NAME="?CreateUIGroup@CBaseGrouping@@IAEJIHPAPAUIGroup@@@Z" PURGE="12" COMMENT="" />
    <EXPORT ORDINAL="188" NAME="?CreateUIGroup@CBaseGrouping@@IAEJIKHPAPAUIGroup@@@Z" PURGE="16" COMMENT="" />
    <EXPORT ORDINAL="189" NAME="?CreateViewFilter@CContactElemBase@@MAEJXZ" PURGE="0" COMMENT="" />
    <EXPORT ORDINAL="190" NAME="?CreateViewFilter@CPeoplePickerElem@@UAEJXZ" PURGE="0" COMMENT="" />
    <EXPORT ORDINAL="191" NAME="?CustomizeForSMSAdd@CContactDialog@@UAGJ_N@Z" PURGE="8" COMMENT="" />
    <EXPORT ORDINAL="192" NAME="?DAdvise@CABDataObject@@UAGJPAUtagFORMATETC@@KPAUIAdviseSink@@PAK@Z" PURGE="20" COMMENT="" />
    <EXPORT ORDINAL="193" NAME="?DUnadvise@CABDataObject@@UAGJK@Z" PURGE="8" COMMENT="" />
    <EXPORT ORDINAL="194" NAME="?DataSourceProp@CAddressWellElement@@2PAUPropertyInfo@DirectUI@@A" PURGE="-1" COMMENT="" />
    <EXPORT ORDINAL="195" NAME="?DefaultAction@CListItemElement@@UAEJXZ" PURGE="0" COMMENT="" />
    <EXPORT ORDINAL="196" NAME="?DefaultActionOnCircle@Contacts@@YGJPAUICircle@@PAUHWND__@@@Z" PURGE="8" COMMENT="" />
    <EXPORT ORDINAL="197" NAME="?DefaultActionOnContact@Contacts@@YGJPAUISimpleContact@@PAUHWND__@@@Z" PURGE="8" COMMENT="" />
    <EXPORT ORDINAL="198" NAME="?DelayedExec@CABPopupMenu@@UAEJKU_GUID@@@Z" PURGE="20" COMMENT="" />
    <EXPORT ORDINAL="199" NAME="?DeleteContact@CABPopupMenu@@IAEJXZ" PURGE="0" COMMENT="" />
    <EXPORT ORDINAL="200" NAME="?DeleteContact@CContactElement@@IAEJXZ" PURGE="0" COMMENT="" />
    <EXPORT ORDINAL="201" NAME="?DeleteItemFromSeal@Contacts@@YGJK@Z" PURGE="4" COMMENT="" />
    <EXPORT ORDINAL="202" NAME="?Destroy@CBuddyListCache@@UAEXXZ" PURGE="0" COMMENT="" />
    <EXPORT ORDINAL="203" NAME="?DestroyAndReleaseElements@CContactElemBase@@MAEJXZ" PURGE="0" COMMENT="" />
    <EXPORT ORDINAL="204" NAME="?DetermineZeroContactsState@CContactElemBase@@MAE?AW4EZeroContactsElement@@_N@Z" PURGE="4" COMMENT="" />
    <EXPORT ORDINAL="205" NAME="?DisplayError@CABDialog@@MAEXJ@Z" PURGE="4" COMMENT="" />
    <EXPORT ORDINAL="206" NAME="?DoExpandCollapse@CListItemElement@@IAEJXZ" PURGE="0" COMMENT="" />
    <EXPORT ORDINAL="207" NAME="?End@CFavoritesTransaction@Contacts@@QAEJJ@Z" PURGE="4" COMMENT="" />
    <EXPORT ORDINAL="208" NAME="?EnsureDefaultUiGroups@Contacts@@YGJPAUIStoreTransactionCallback@@PAPAUIUnknown@@@Z" PURGE="8" COMMENT="" />
    <EXPORT ORDINAL="209" NAME="?EnsureFavorites@Contacts@@YGJPAPAUIStoreTransaction@@K@Z" PURGE="8" COMMENT="" />
    <EXPORT ORDINAL="210" NAME="?EnsureFavorites@Contacts@@YGJXZ" PURGE="0" COMMENT="" />
    <EXPORT ORDINAL="211" NAME="?EnsureGrouping@CContactElemBase@@MAEJ_N@Z" PURGE="4" COMMENT="" />
    <EXPORT ORDINAL="212" NAME="?EnsureGrouping@CPeoplePickerElem@@UAEJ_N@Z" PURGE="4" COMMENT="" />
    <EXPORT ORDINAL="213" NAME="?EnsurePopupMenuObject@CListItemElement@@MAEJXZ" PURGE="0" COMMENT="" />
    <EXPORT ORDINAL="214" NAME="?EnsureView@CContactElemBase@@MAEJK_N@Z" PURGE="8" COMMENT="" />
    <EXPORT ORDINAL="215" NAME="?EnsureView@CWordWheelElement@@UAEJW4eWordWheelView@@@Z" PURGE="4" COMMENT="" />
    <EXPORT ORDINAL="216" NAME="?EnumCtryCode@CtryCode@@QAEJPA_WI0IPAK@Z" PURGE="20" COMMENT="" />
    <EXPORT ORDINAL="217" NAME="?EnumDAdvise@CABDataObject@@UAGJPAPAUIEnumSTATDATA@@@Z" PURGE="8" COMMENT="" />
    <EXPORT ORDINAL="218" NAME="?EnumFormatEtc@CABDataObject@@UAGJKPAPAUIEnumFORMATETC@@@Z" PURGE="12" COMMENT="" />
    <EXPORT ORDINAL="219" NAME="?Exec@CABPopupMenu@@UAGJPBU_GUID@@KKPAUtagVARIANT@@1@Z" PURGE="24" COMMENT="" />
    <EXPORT ORDINAL="220" NAME="?Exec@CContactElemBase@@UAGJPBU_GUID@@KKPAUtagVARIANT@@1@Z" PURGE="24" COMMENT="" />
    <EXPORT ORDINAL="221" NAME="?Exec@CListItemElement@@UAGJPBU_GUID@@KKPAUtagVARIANT@@1@Z" PURGE="24" COMMENT="" />
    <EXPORT ORDINAL="222" NAME="?ExecCommit@CBuddyListElementBase@@MAEJXZ" PURGE="0" COMMENT="" />
    <EXPORT ORDINAL="223" NAME="?ExecTask@CABPopupMenu@@UAGJKK@Z" PURGE="12" COMMENT="" />
    <EXPORT ORDINAL="224" NAME="?ExecTask@CContactElemBase@@UAGJKK@Z" PURGE="12" COMMENT="" />
    <EXPORT ORDINAL="225" NAME="?ExecuteDefaultAction@CListItemElement@@UAE_NXZ" PURGE="-1" COMMENT="" />
    <EXPORT ORDINAL="226" NAME="?ExitDialog@CABDialog@@MAEXH@Z" PURGE="4" COMMENT="" />
    <EXPORT ORDINAL="227" NAME="?ExitDialog@CContactDialog@@MAEXH@Z" PURGE="4" COMMENT="" />
    <EXPORT ORDINAL="228" NAME="?ExitDialog@CContactPickerDialog@@UAEXH@Z" PURGE="4" COMMENT="" />
    <EXPORT ORDINAL="229" NAME="?ExpandCollapse@ListItemEvent@@2PAEA" PURGE="-1" COMMENT="" />
    <EXPORT ORDINAL="230" NAME="?ExpandCollapseItem@CBuddyListElementBase@@MAEJPAUIListItem@@_N@Z" PURGE="8" COMMENT="" />
    <EXPORT ORDINAL="231" NAME="?ExpandOnProp@CPPListElement@@2PAUPropertyInfo@DirectUI@@A" PURGE="-1" COMMENT="" />
    <EXPORT ORDINAL="232" NAME="?ExpandOnProp@CPeoplePickerElem@@2PAUPropertyInfo@DirectUI@@A" PURGE="-1" COMMENT="" />
    <EXPORT ORDINAL="233" NAME="?ExpandOrCollapseGroup@Contacts@@YGJPAUIStoreObjectExpandable@@_N@Z" PURGE="8" COMMENT="" />
    <EXPORT ORDINAL="234" NAME="?FilterMessage@CABDialog@@MAEHPAUtagMSG@@@Z" PURGE="4" COMMENT="" />
    <EXPORT ORDINAL="235" NAME="?FilterMessage@CContactDialog@@UAEHPAUtagMSG@@@Z" PURGE="4" COMMENT="" />
    <EXPORT ORDINAL="236" NAME="?FilterMessage@CContactPickerDialog@@UAEHPAUtagMSG@@@Z" PURGE="4" COMMENT="" />
    <EXPORT ORDINAL="237" NAME="?FilterProp@CPeoplePickerElem@@2PAUPropertyInfo@DirectUI@@A" PURGE="-1" COMMENT="" />
    <EXPORT ORDINAL="238" NAME="?FindCodeFromName@CtryCode@@SGJPA_WIPB_W@Z" PURGE="12" COMMENT="" />
    <EXPORT ORDINAL="239" NAME="?FindElements@CContactElemBase@@MAEJXZ" PURGE="0" COMMENT="" />
    <EXPORT ORDINAL="240" NAME="?FindElements@CPeoplePickerElem@@UAEJXZ" PURGE="0" COMMENT="" />
    <EXPORT ORDINAL="241" NAME="?FinishWellParticipantResolve@CAddressWellElement@@QAEJPAURESOLVEDPARTICIPANTDATA@@@Z" PURGE="4" COMMENT="" />
    <EXPORT ORDINAL="242" NAME="?FireCanBeginBackgroundTasks@Contacts@@YGXK@Z" PURGE="-1" COMMENT="" />
    <EXPORT ORDINAL="243" NAME="?FireWordWheelTextFocusedEvent@CWordWheelElement@@MAEXXZ" PURGE="0" COMMENT="" />
    <EXPORT ORDINAL="244" NAME="?FocusElement@CContactDialog@@IAEXPAVElement@DirectUI@@H@Z" PURGE="8" COMMENT="" />
    <EXPORT ORDINAL="245" NAME="?FocusElement@CContactDialog@@UAGJPB_WH@Z" PURGE="12" COMMENT="" />
    <EXPORT ORDINAL="246" NAME="?FocusElement@CContactRegionElement@@QAEXPAVElement@DirectUI@@HPAVCABDialog@@@Z" PURGE="12" COMMENT="" />
    <EXPORT ORDINAL="247" NAME="?FocusProperty@CContactDialog@@MAEXXZ" PURGE="0" COMMENT="" />
    <EXPORT ORDINAL="248" NAME="?FocusProperty@CContactRegionElement@@QAEXPAVCABDialog@@PAVElement@DirectUI@@@Z" PURGE="8" COMMENT="" />
    <EXPORT ORDINAL="249" NAME="?GenerateDataSource@CContactElemBase@@MAEJXZ" PURGE="0" COMMENT="" />
    <EXPORT ORDINAL="250" NAME="?GenerateDataSource@CPeoplePickerElem@@UAEJXZ" PURGE="0" COMMENT="" />
    <EXPORT ORDINAL="251" NAME="?GenerateGroupMenus@CABPopupMenu@@IAEJPAUHMENU__@@PAUIUnknown@@@Z" PURGE="8" COMMENT="" />
    <EXPORT ORDINAL="252" NAME="?GetAbObject@CAbListItem@@UBEJPAPAUIAbObject@@@Z" PURGE="4" COMMENT="" />
    <EXPORT ORDINAL="253" NAME="?GetAtomForErrorField@CContactRegionElement@@UAEGPAUISimpleContact@@PB_W@Z" PURGE="8" COMMENT="" />
    <EXPORT ORDINAL="254" NAME="?GetBackgroundTemplate@CWordWheelElement@@MBEPB_WXZ" PURGE="0" COMMENT="" />
    <EXPORT ORDINAL="255" NAME="?GetBuddyIdentifier@Contacts@@YGJPAUIUnknown@@AAV?$CStringT@_WV?$StrTraitATL@_WV?$ChTraitsCRT@_W@ATL@@@ATL@@@ATL@@K_N@Z" PURGE="16" COMMENT="" />
    <EXPORT ORDINAL="256" NAME="?GetBuddyListElement@CABPopupMenu@@IAEJXZ" PURGE="0" COMMENT="" />
    <EXPORT ORDINAL="257" NAME="?GetCIDFromContact@Contacts@@YGJPAUIUnknown@@PAUtagVARIANT@@@Z" PURGE="8" COMMENT="" />
    <EXPORT ORDINAL="258" NAME="?GetCStringFromBag@@YGJPAUIPropertyBag@@PB_WAAV?$CStringT@_WV?$StrTraitATL@_WV?$ChTraitsCRT@_W@ATL@@@ATL@@@ATL@@@Z" PURGE="12" COMMENT="" />
    <EXPORT ORDINAL="259" NAME="?GetCStringFromUnknown@@YGJPAUIUnknown@@PB_WAAV?$CStringT@_WV?$StrTraitATL@_WV?$ChTraitsCRT@_W@ATL@@@ATL@@@ATL@@@Z" PURGE="12" COMMENT="" />
    <EXPORT ORDINAL="260" NAME="?GetCallbackFilters@CABPopupMenu@@UAGJPAW4Flags@DuiBehaviorFilters@@@Z" PURGE="8" COMMENT="" />
    <EXPORT ORDINAL="261" NAME="?GetCanonicalFormatEtc@CABDataObject@@UAGJPAUtagFORMATETC@@0@Z" PURGE="12" COMMENT="" />
    <EXPORT ORDINAL="262" NAME="?GetCapability@CPeoplePickerElem@@QBEJAAW4CAPABILITY@@@Z" PURGE="4" COMMENT="" />
    <EXPORT ORDINAL="263" NAME="?GetCharityFromName@CDonationManager@@SGJPB_W@Z" PURGE="4" COMMENT="" />
    <EXPORT ORDINAL="264" NAME="?GetCidFromContact@Contacts@@YGJPAUISimpleContact@@PA_J@Z" PURGE="8" COMMENT="" />
    <EXPORT ORDINAL="265" NAME="?GetCidFromMeContact@Contacts@@YGJPA_J@Z" PURGE="4" COMMENT="" />
    <EXPORT ORDINAL="266" NAME="?GetCircleContactRelationshipStatus@Contacts@@YGKPAUICircle@@PAUIStoreObject@@@Z" PURGE="8" COMMENT="" />
    <EXPORT ORDINAL="267" NAME="?GetCircleCount@Contacts@@YGKPAPAUIObjectPoolView@@@Z" PURGE="-1" COMMENT="" />
    <EXPORT ORDINAL="268" NAME="?GetCircleIdentifier@Contacts@@YGJPAUIUnknown@@AAV?$CStringT@_WV?$StrTraitATL@_WV?$ChTraitsCRT@_W@ATL@@@ATL@@@ATL@@@Z" PURGE="8" COMMENT="" />
    <EXPORT ORDINAL="269" NAME="?GetClassInfoW@CAddressWellElement@@UAEPAUIClassInfo@DirectUI@@XZ" PURGE="0" COMMENT="" />
    <EXPORT ORDINAL="270" NAME="?GetClassInfoW@CBuddyListElement@@UAEPAUIClassInfo@DirectUI@@XZ" PURGE="0" COMMENT="" />
    <EXPORT ORDINAL="271" NAME="?GetClassInfoW@CBuddyListElementBase@@UAEPAUIClassInfo@DirectUI@@XZ" PURGE="0" COMMENT="" />
    <EXPORT ORDINAL="272" NAME="?GetClassInfoW@CContactRegionElement@@UAEPAUIClassInfo@DirectUI@@XZ" PURGE="0" COMMENT="" />
    <EXPORT ORDINAL="273" NAME="?GetClassInfoW@CMobileAddressSelector@@UAEPAUIClassInfo@DirectUI@@XZ" PURGE="0" COMMENT="" />
    <EXPORT ORDINAL="274" NAME="?GetClassInfoW@CMobileSelector@@UAEPAUIClassInfo@DirectUI@@XZ" PURGE="0" COMMENT="" />
    <EXPORT ORDINAL="275" NAME="?GetCmdTarget@CContactElemBase@@UAEJPAPAUIOleCommandTarget@@@Z" PURGE="4" COMMENT="" />
    <EXPORT ORDINAL="276" NAME="?GetContactCount@Contacts@@YGKPAPAUIObjectPoolView@@@Z" PURGE="-1" COMMENT="" />
    <EXPORT ORDINAL="277" NAME="?GetContactElemBase@CABPopupMenu@@IAEJXZ" PURGE="0" COMMENT="" />
    <EXPORT ORDINAL="278" NAME="?GetContactFlags@@YGKPBUISimpleContact@@@Z" PURGE="4" COMMENT="" />
    <EXPORT ORDINAL="279" NAME="?GetContactFromParticipantUnknown@@YGJPAUIUnknown@@PAPAUISimpleContact@@@Z" PURGE="8" COMMENT="" />
    <EXPORT ORDINAL="280" NAME="?GetContactFromSMTPDisplayandEmail@Contacts@@YGJPB_W0PAPAUISimpleContact@@PAPAUIStoreObjectEditor@@@Z" PURGE="16" COMMENT="" />
    <EXPORT ORDINAL="281" NAME="?GetContactState@@YGKPAUISimpleContact@@@Z" PURGE="4" COMMENT="" />
    <EXPORT ORDINAL="282" NAME="?GetContactType@@YGKPAUISimpleContact@@@Z" PURGE="4" COMMENT="" />
    <EXPORT ORDINAL="283" NAME="?GetDUIElement@CABDialog@@QAEXPB_WPAPAVElement@DirectUI@@@Z" PURGE="8" COMMENT="" />
    <EXPORT ORDINAL="284" NAME="?GetDWORDFromBag@@YGJPAUIPropertyBag@@PB_WPAK@Z" PURGE="12" COMMENT="" />
    <EXPORT ORDINAL="285" NAME="?GetDWORDFromUnknown@@YGJPAUIUnknown@@PB_WPAK@Z" PURGE="12" COMMENT="" />
    <EXPORT ORDINAL="286" NAME="?GetData@CABDataObject@@UAGJPAUtagFORMATETC@@PAUtagSTGMEDIUM@@@Z" PURGE="12" COMMENT="" />
    <EXPORT ORDINAL="287" NAME="?GetDataContextAs@CABPopupMenu@@IAEJABU_GUID@@PAPAX@Z" PURGE="8" COMMENT="" />
    <EXPORT ORDINAL="288" NAME="?GetDataContextAs@CListItemElement@@IAEJABU_GUID@@PAPAX@Z" PURGE="8" COMMENT="" />
    <EXPORT ORDINAL="289" NAME="?GetDataHere@CABDataObject@@UAGJPAUtagFORMATETC@@PAUtagSTGMEDIUM@@@Z" PURGE="12" COMMENT="" />
    <EXPORT ORDINAL="290" NAME="?GetDataObject@CBuddyListCache@@UAEJJPAJIPAKPAPAUIDataObject@@@Z" PURGE="20" COMMENT="" />
    <EXPORT ORDINAL="291" NAME="?GetDataSource@CAddressWellElement@@UAEJPAPAUIUnknown@@@Z" PURGE="4" COMMENT="" />
    <EXPORT ORDINAL="292" NAME="?GetDataSource@CBuddyListElementBase@@UAEJPAPAUIUnknown@@@Z" PURGE="4" COMMENT="" />
    <EXPORT ORDINAL="293" NAME="?GetDataSource@CPeoplePickerElem@@QBEHXZ" PURGE="0" COMMENT="" />
    <EXPORT ORDINAL="294" NAME="?GetDataSource@CPeoplePickerElem@@UAEJPAPAUIUnknown@@@Z" PURGE="4" COMMENT="" />
    <EXPORT ORDINAL="295" NAME="GetDataStore" PURGE="16" COMMENT="" />
    <EXPORT ORDINAL="296" NAME="?GetDefaultTransform@Contacts@@YGJPAPAUIValueTransform@DirectUI@@@Z" PURGE="4" COMMENT="" />
    <EXPORT ORDINAL="297" NAME="?GetDlgHelpID@CBaseCircleDialog@@MAEIXZ" PURGE="0" COMMENT="" />
    <EXPORT ORDINAL="298" NAME="?GetDragSources@CAbListItem@@IAEJPAUQueryDropEvent@@PAPAUIObjectCollectionEditable@@PAPAUIStoreObject@@@Z" PURGE="12" COMMENT="" />
    <EXPORT ORDINAL="299" NAME="?GetDropFocusParent@CBuddyListElementBase@@IAEJPAUQueryDropEvent@@PAH@Z" PURGE="8" COMMENT="" />
    <EXPORT ORDINAL="300" NAME="?GetEditableObject@CABDialog@@IAEJPAPAUIStoreObjectEditable@@@Z" PURGE="4" COMMENT="" />
    <EXPORT ORDINAL="301" NAME="?GetEditor@CContactDialog@@MBE?AV?$CComPtr@UIStoreObjectEditor@@@ATL@@XZ" PURGE="4" COMMENT="" />
    <EXPORT ORDINAL="302" NAME="?GetElementSealId@CListItemElement@@IAEKXZ" PURGE="0" COMMENT="" />
    <EXPORT ORDINAL="303" NAME="?GetEmailAddress@Contacts@@YGJPAUIUnknown@@AAV?$CStringT@_WV?$StrTraitATL@_WV?$ChTraitsCRT@_W@ATL@@@ATL@@@ATL@@K@Z" PURGE="12" COMMENT="" />
    <EXPORT ORDINAL="304" NAME="?GetEmailAddressCount@Contacts@@YGJPAUISimpleContact@@PAK@Z" PURGE="8" COMMENT="" />
    <EXPORT ORDINAL="305" NAME="?GetFavoritesGroup@Contacts@@YGJPAPAUIGroup@@@Z" PURGE="4" COMMENT="" />
    <EXPORT ORDINAL="306" NAME="?GetFileNameFromStoreObject@Contacts@@YGJPAUIStoreObject@@PA_WK@Z" PURGE="12" COMMENT="" />
    <EXPORT ORDINAL="307" NAME="?GetFilter@CContactPickerDialog@@UAGJPAPAUIObjectFilterer@@@Z" PURGE="8" COMMENT="" />
    <EXPORT ORDINAL="308" NAME="?GetFilter@CPeoplePickerElem@@QAEJPAPAUIObjectFilterer@@@Z" PURGE="4" COMMENT="" />
    <EXPORT ORDINAL="309" NAME="?GetFilterFromSettings@CContactElemBase@@KGHXZ" PURGE="0" COMMENT="" />
    <EXPORT ORDINAL="310" NAME="?GetFilterType@CGroupViewFilter@@UAEJAAW4FILTERTYPE@@@Z" PURGE="4" COMMENT="" />
    <EXPORT ORDINAL="311" NAME="?GetFilterType@CViewFilter@@UAEJAAW4FILTERTYPE@@@Z" PURGE="4" COMMENT="" />
    <EXPORT ORDINAL="312" NAME="?GetGlobalSettings@Internal@Contacts@@YGPAUIGlobalSettings@12@XZ" PURGE="0" COMMENT="" />
    <EXPORT ORDINAL="313" NAME="?GetGroupContacts@Contacts@@YGJKPAPAUIObjectPoolView@@@Z" PURGE="8" COMMENT="" />
    <EXPORT ORDINAL="314" NAME="?GetGroupCount@Contacts@@YGKPAPAUIObjectPoolView@@@Z" PURGE="-1" COMMENT="" />
    <EXPORT ORDINAL="315" NAME="?GetGroupFlags@@YGKPBUIGroup@@@Z" PURGE="4" COMMENT="" />
    <EXPORT ORDINAL="316" NAME="?GetGroupServerId@CABPopupMenu@@KG?AVCStr@@K@Z" PURGE="8" COMMENT="" />
    <EXPORT ORDINAL="317" NAME="?GetHandleInputValue@CBuddyListElementBase@@MAE?AW4EHandleInput@@XZ" PURGE="0" COMMENT="" />
    <EXPORT ORDINAL="318" NAME="?GetHost@CBuddyListHostHolder@@QAEJPAPAUIBuddyListHost@@@Z" PURGE="4" COMMENT="" />
    <EXPORT ORDINAL="319" NAME="?GetHost@Contacts@@YGJPAPAUIBuddyListHost@@@Z" PURGE="4" COMMENT="" />
    <EXPORT ORDINAL="320" NAME="?GetIContactFromEmail@Contacts@@YGJPBDPAPAUISimpleContact@@@Z" PURGE="8" COMMENT="" />
    <EXPORT ORDINAL="321" NAME="?GetIContactFromEmail@Contacts@@YGJPB_WPAPAUISimpleContact@@@Z" PURGE="8" COMMENT="" />
    <EXPORT ORDINAL="322" NAME="?GetIContactFromNames@Contacts@@YGJPB_W0PAPAUISimpleContact@@_N@Z" PURGE="16" COMMENT="" />
    <EXPORT ORDINAL="323" NAME="?GetIContactFromPassport@Contacts@@YGJPB_WPAPAUISimpleContact@@@Z" PURGE="8" COMMENT="" />
    <EXPORT ORDINAL="324" NAME="?GetIContactFromPassport@Contacts@@YGJPB_WPAPAUISimpleContact@@_N@Z" PURGE="12" COMMENT="" />
    <EXPORT ORDINAL="325" NAME="?GetIContactFromPhoneNumber@Contacts@@YGJPB_WPAPAUISimpleContact@@@Z" PURGE="8" COMMENT="" />
    <EXPORT ORDINAL="326" NAME="?GetIContactFromPhoneNumber@Contacts@@YGJPB_WPAPAUISimpleContact@@_N@Z" PURGE="12" COMMENT="" />
    <EXPORT ORDINAL="327" NAME="?GetIGroupFromGroupName@Contacts@@YGJPB_WPAPAUIGroup@@K@Z" PURGE="12" COMMENT="" />
    <EXPORT ORDINAL="328" NAME="?GetIStoreObjectFromCid@Contacts@@YGJW4STOREOBJECTTYPE@@_JPAPAUIStoreObject@@@Z" PURGE="16" COMMENT="" />
    <EXPORT ORDINAL="329" NAME="?GetIdOf@CBuddyListCache@@UAEJJAAK@Z" PURGE="8" COMMENT="" />
    <EXPORT ORDINAL="330" NAME="?GetIdentifierFromPicker@Contacts@@YGJPAUHWND__@@W4ContactPickerStyle@@AAVCComBSTR@ATL@@@Z" PURGE="12" COMMENT="" />
    <EXPORT ORDINAL="331" NAME="?GetItemCount@CBuddyListCache@@UAEJXZ" PURGE="0" COMMENT="" />
    <EXPORT ORDINAL="332" NAME="?GetItemList@CBuddyListCache@@UAEPAUIListItem@@H@Z" PURGE="4" COMMENT="" />
    <EXPORT ORDINAL="333" NAME="?GetListItemAtIndex@CBuddyListElementBase@@QAEJHPAPAUIStoreObject@@@Z" PURGE="8" COMMENT="" />
    <EXPORT ORDINAL="334" NAME="?GetListItemAtPoint@CBuddyListElementBase@@QAEJUtagPOINT@@PAJPAPAVElement@DirectUI@@@Z" PURGE="16" COMMENT="" />
    <EXPORT ORDINAL="335" NAME="?GetManager@Contacts@@YGJPAPAUIContactsManager@@@Z" PURGE="4" COMMENT="" />
    <EXPORT ORDINAL="336" NAME="?GetMeContact@Contacts@@YGJPAPAUISimpleContact@@@Z" PURGE="4" COMMENT="" />
    <EXPORT ORDINAL="337" NAME="?GetMeContactWithUpdates@Contacts@@YGJPAPAUISimpleContact@@@Z" PURGE="4" COMMENT="" />
    <EXPORT ORDINAL="338" NAME="?GetMenuDui@CContactElemBase@@QBEHXZ" PURGE="0" COMMENT="" />
    <EXPORT ORDINAL="339" NAME="?GetMobileAddressString@CMobileAddressSelector@@QBEPB_WPAPAVValue@DirectUI@@@Z" PURGE="4" COMMENT="" />
    <EXPORT ORDINAL="340" NAME="?GetMobileNumberCountryCodeString@CMobileSelector@@QBEPB_WPAPAVValue@DirectUI@@@Z" PURGE="4" COMMENT="" />
    <EXPORT ORDINAL="341" NAME="?GetMobileNumberString@CMobileSelector@@QBEPB_WPAPAVValue@DirectUI@@@Z" PURGE="4" COMMENT="" />
    <EXPORT ORDINAL="342" NAME="?GetName@Contacts@@YGJPAUIUnknown@@AAV?$CStringT@_WV?$StrTraitATL@_WV?$ChTraitsCRT@_W@ATL@@@ATL@@@ATL@@K@Z" PURGE="12" COMMENT="" />
    <EXPORT ORDINAL="343" NAME="?GetNameFormat@Contacts@@YGJPAW4NameDisplayFormat@1@@Z" PURGE="4" COMMENT="" />
    <EXPORT ORDINAL="344" NAME="?GetNextFavoriteOrder@Contacts@@YGJPAK@Z" PURGE="4" COMMENT="" />
    <EXPORT ORDINAL="345" NAME="?GetNumPendingRequests@Contacts@@YGKXZ" PURGE="-1" COMMENT="" />
    <EXPORT ORDINAL="346" NAME="?GetObjectCount@CAddressWellElement@@QAEJAAJ@Z" PURGE="4" COMMENT="" />
    <EXPORT ORDINAL="347" NAME="GetOrCreateDataStoreObject" PURGE="8" COMMENT="" />
    <EXPORT ORDINAL="348" NAME="?GetParentGroup@CABPopupMenu@@MAEJPAPAUIGroup@@@Z" PURGE="4" COMMENT="" />
    <EXPORT ORDINAL="349" NAME="?GetParentGroup@CBuddyListElementBase@@QAEJPBVElement@DirectUI@@PAPAUIGroup@@@Z" PURGE="8" COMMENT="" />
    <EXPORT ORDINAL="350" NAME="?GetParentGroupID@CABPopupMenu@@IAEKXZ" PURGE="0" COMMENT="" />
    <EXPORT ORDINAL="351" NAME="?GetParticipantAt@CAddressWellElement@@QAEJJAAV?$CComPtr@UIParticipant@@@ATL@@@Z" PURGE="8" COMMENT="" />
    <EXPORT ORDINAL="352" NAME="?GetPeoplePicker@CContactPickerDialog@@UAEJPAPAVCPeoplePickerElem@@@Z" PURGE="4" COMMENT="" />
    <EXPORT ORDINAL="353" NAME="?GetPeoplePickerSelection@ABDialogPeoplePickerCommon@@QAEJPB_WPAVElement@DirectUI@@HPAPAUIParticipantList@@@Z" PURGE="16" COMMENT="" />
    <EXPORT ORDINAL="354" NAME="?GetPersonalAddressBookContactFromIContact@Contacts@@YGJPAUIUnknown@@PAPAUISimpleContact@@@Z" PURGE="8" COMMENT="" />
    <EXPORT ORDINAL="355" NAME="?GetPhoneNumber@Contacts@@YGJPAUIUnknown@@AAV?$CStringT@_WV?$StrTraitATL@_WV?$ChTraitsCRT@_W@ATL@@@ATL@@@ATL@@@Z" PURGE="8" COMMENT="" />
    <EXPORT ORDINAL="356" NAME="?GetPreviousGroup@CABDataObject@@UAGJPAPAUIStoreObject@@@Z" PURGE="8" COMMENT="" />
    <EXPORT ORDINAL="357" NAME="?GetResolvedParticipants@CAddressWellElement@@QAEJPAPAUIParticipantList@@@Z" PURGE="4" COMMENT="" />
    <EXPORT ORDINAL="358" NAME="?GetResource@CABPopupMenu@@MAEIXZ" PURGE="0" COMMENT="" />
    <EXPORT ORDINAL="359" NAME="?GetResourceInt@@YGJIPAH@Z" PURGE="8" COMMENT="" />
    <EXPORT ORDINAL="360" NAME="?GetResourceString@@YGJIPAPA_W@Z" PURGE="8" COMMENT="" />
    <EXPORT ORDINAL="361" NAME="?GetRichEditOle@CAddressWellElement@@QAEJPAPAUIRichEditOle@@@Z" PURGE="4" COMMENT="" />
    <EXPORT ORDINAL="362" NAME="?GetSelectFirstItem@CBuddyListElementBase@@QBE_NXZ" PURGE="0" COMMENT="" />
    <EXPORT ORDINAL="363" NAME="?GetSelectFirstListItem@CWordWheelElement@@QBE_NXZ" PURGE="0" COMMENT="" />
    <EXPORT ORDINAL="364" NAME="?GetSelectedListItem@CBuddyListElementBase@@QAEJPAPAUIUnknown@@@Z" PURGE="4" COMMENT="" />
    <EXPORT ORDINAL="365" NAME="?GetSelectedListItem@CBuddyListElementBase@@QAEJPAPAVElement@DirectUI@@@Z" PURGE="4" COMMENT="" />
    <EXPORT ORDINAL="366" NAME="?GetSelection@CAddressWellElement@@UAEJPAPAUIUnknown@@@Z" PURGE="4" COMMENT="" />
    <EXPORT ORDINAL="367" NAME="?GetSelection@CBuddyListElementBase@@UAEJPAPAUIUnknown@@@Z" PURGE="4" COMMENT="" />
    <EXPORT ORDINAL="368" NAME="?GetSelection@CBuddyListElementBase@@UAEJPAPAUIUnknown@@_N@Z" PURGE="8" COMMENT="" />
    <EXPORT ORDINAL="369" NAME="?GetSelection@CContactElemBase@@UAEJPAPAUIUnknown@@@Z" PURGE="4" COMMENT="" />
    <EXPORT ORDINAL="370" NAME="?GetSelection@CContactElemBase@@UAEJPAPAUIUnknown@@_N@Z" PURGE="8" COMMENT="" />
    <EXPORT ORDINAL="371" NAME="?GetSelection@CPeoplePickerElem@@UAEJPAPAUIUnknown@@@Z" PURGE="4" COMMENT="" />
    <EXPORT ORDINAL="372" NAME="?GetSelectionAsParticipantList@CPeoplePickerElem@@QAEJPAPAUIParticipantList@@@Z" PURGE="4" COMMENT="" />
    <EXPORT ORDINAL="373" NAME="?GetSelectionByMask@CAddressWellElement@@UAEJW4WELLPARTICIPANTFLAGS@@PAPAUIUnknown@@@Z" PURGE="8" COMMENT="" />
    <EXPORT ORDINAL="374" NAME="?GetSelectionByMaskInRange@CAddressWellElement@@UAEJW4WELLPARTICIPANTFLAGS@@HHPAPAUIUnknown@@@Z" PURGE="16" COMMENT="" />
    <EXPORT ORDINAL="375" NAME="?GetSelectionChangeCallback@CAddressWellElement@@UAEJPAPAUIParticipantSelectionControl@@@Z" PURGE="4" COMMENT="" />
    <EXPORT ORDINAL="376" NAME="?GetSelectionChangeCallback@CBuddyListElementBase@@UAEJPAPAUIParticipantSelectionControl@@@Z" PURGE="4" COMMENT="" />
    <EXPORT ORDINAL="377" NAME="?GetSelectionChangeCallback@CContactElemBase@@UAEJPAPAUIParticipantSelectionControl@@@Z" PURGE="4" COMMENT="" />
    <EXPORT ORDINAL="378" NAME="?GetSelectionFromElement@CPeoplePickerElem@@QAEJPAVElement@DirectUI@@PAPAUIParticipantList@@@Z" PURGE="8" COMMENT="" />
    <EXPORT ORDINAL="379" NAME="?GetSelectionMode@CBuddyListElementBase@@UAE?AW4VirtualListSelectionMode@@XZ" PURGE="0" COMMENT="" />
    <EXPORT ORDINAL="380" NAME="?GetSigninCookie@Contacts@@YGKXZ" PURGE="-1" COMMENT="" />
    <EXPORT ORDINAL="381" NAME="?GetSigninUserName@Contacts@@YGXAAV?$CStringT@_WV?$StrTraitATL@_WV?$ChTraitsCRT@_W@ATL@@@ATL@@@ATL@@@Z" PURGE="4" COMMENT="" />
    <EXPORT ORDINAL="382" NAME="?GetState@@YGKPAUIUnknown@@@Z" PURGE="4" COMMENT="" />
    <EXPORT ORDINAL="383" NAME="?GetStoreHandle@CBaseGrouping@@IBEKXZ" PURGE="0" COMMENT="" />
    <EXPORT ORDINAL="384" NAME="?GetStoreInfoFromDataObject@@YGJPAUIDataObject@@ABU_GUID@@PAPAXPAPAUIStoreObject@@@Z" PURGE="16" COMMENT="" />
    <EXPORT ORDINAL="385" NAME="?GetStoreObject@CABDataObject@@UAGJPAPAUIStoreObject@@@Z" PURGE="8" COMMENT="" />
    <EXPORT ORDINAL="386" NAME="?GetStoreObject@CAbListItem@@UBEPAUIStoreObject@@XZ" PURGE="0" COMMENT="" />
    <EXPORT ORDINAL="387" NAME="?GetStoreObjects@CABDataObject@@UAGJPAPAUIObjectCollectionEditable@@@Z" PURGE="8" COMMENT="" />
    <EXPORT ORDINAL="388" NAME="?GetStyle@CPeoplePickerElem@@QBEJAAW4ContactPickerStyle@@@Z" PURGE="4" COMMENT="" />
    <EXPORT ORDINAL="389" NAME="?GetSubCollection@Contacts@@YGJW4STOREOBJECTTYPE@@PAUIObjectFilterer@@PAPAUIObjectPoolView@@_N@Z" PURGE="16" COMMENT="" />
    <EXPORT ORDINAL="390" NAME="?GetText@CAddressWellElement@@QAEJAAV?$CStringT@_WV?$StrTraitATL@_WV?$ChTraitsCRT@_W@ATL@@@ATL@@@ATL@@@Z" PURGE="4" COMMENT="" />
    <EXPORT ORDINAL="391" NAME="?GetTimerHwndElement@CBuddyListElementBase@@UAEPAVHWNDElement@DirectUI@@XZ" PURGE="0" COMMENT="" />
    <EXPORT ORDINAL="392" NAME="?GetTimerHwndElement@CContactElemBase@@UAEPAVHWNDElement@DirectUI@@XZ" PURGE="0" COMMENT="" />
    <EXPORT ORDINAL="393" NAME="?GetUnknownFromBag@@YGJPAUIPropertyBag@@PB_WPAPAUIUnknown@@@Z" PURGE="12" COMMENT="" />
    <EXPORT ORDINAL="394" NAME="?GetUnknownFromUnknown@@YGJPAUIUnknown@@PB_WPAPAU1@@Z" PURGE="12" COMMENT="" />
    <EXPORT ORDINAL="395" NAME="?GetVARIANTFromBag@@YGJPAUIPropertyBag@@PB_WPAUtagVARIANT@@@Z" PURGE="12" COMMENT="" />
    <EXPORT ORDINAL="396" NAME="?GetVARIANTFromUnknown@@YGJPAUIUnknown@@PB_WPAUtagVARIANT@@@Z" PURGE="12" COMMENT="" />
    <EXPORT ORDINAL="397" NAME="?GetView@CBuddyListElementBase@@QAEXAAVItemRange@@@Z" PURGE="-1" COMMENT="" />
    <EXPORT ORDINAL="398" NAME="?GetView@CContactElemBase@@UAEKXZ" PURGE="0" COMMENT="" />
    <EXPORT ORDINAL="399" NAME="?GetViewFromSettings@CContactElemBase@@KGHXZ" PURGE="0" COMMENT="" />
    <EXPORT ORDINAL="400" NAME="?GetViews@CContactElemBase@@QBEPAV?$DynamicArray@PAVValue@DirectUI@@@DirectUI@@PAPAVValue@3@@Z" PURGE="4" COMMENT="" />
    <EXPORT ORDINAL="401" NAME="?GetWellParticipantFromPicker@Contacts@@YGJPAUHWND__@@W4ContactPickerStyle@@AAV?$CComPtr@UIWellParticipant@@@ATL@@@Z" PURGE="12" COMMENT="" />
    <EXPORT ORDINAL="402" NAME="?GetWordWheelText@CContactElemBase@@QBEABV?$CStringT@_WV?$StrTraitATL@_WV?$ChTraitsCRT@_W@ATL@@@ATL@@@ATL@@XZ" PURGE="0" COMMENT="" />
    <EXPORT ORDINAL="403" NAME="?GlobalizeField@CContactDialog@@MAEJPA_WHPBUFieldDesc@@@Z" PURGE="12" COMMENT="" />
    <EXPORT ORDINAL="404" NAME="?GlobalizeFields@CContactDialog@@MAEJXZ" PURGE="0" COMMENT="" />
    <EXPORT ORDINAL="405" NAME="?HandleDeleteKey@CCircleElement@@MAEJXZ" PURGE="0" COMMENT="" />
    <EXPORT ORDINAL="406" NAME="?HandleDeleteKey@CContactElement@@MAEJXZ" PURGE="0" COMMENT="" />
    <EXPORT ORDINAL="407" NAME="?HandleInputProp@CPPListElement@@2PAUPropertyInfo@DirectUI@@A" PURGE="-1" COMMENT="" />
    <EXPORT ORDINAL="408" NAME="?HandleInputProp@CPeoplePickerElem@@2PAUPropertyInfo@DirectUI@@A" PURGE="-1" COMMENT="" />
    <EXPORT ORDINAL="409" NAME="?HasOnReadyEventFired@Contacts@@YG_NXZ" PURGE="0" COMMENT="" />
    <EXPORT ORDINAL="410" NAME="?HasProfile@@YG_NPAUISimpleContact@@@Z" PURGE="4" COMMENT="" />
    <EXPORT ORDINAL="411" NAME="?InListProp@CAddressWellElement@@2PAUPropertyInfo@DirectUI@@A" PURGE="-1" COMMENT="" />
    <EXPORT ORDINAL="412" NAME="?IncrementSqmDataPoint@@YGXW4ESqmContactDatapoint@@@Z" PURGE="4" COMMENT="" />
    <EXPORT ORDINAL="413" NAME="?IncrementSqmDataPoint@@YGXW4ESqmContactDatapoint@@PAKK@Z" PURGE="12" COMMENT="" />
    <EXPORT ORDINAL="414" NAME="?IndentLevel@CAbListItem@@UBEKXZ" PURGE="0" COMMENT="" />
    <EXPORT ORDINAL="415" NAME="?Init@CBuddyIdentifierFilter@@UAEJPB_WK@Z" PURGE="8" COMMENT="" />
    <EXPORT ORDINAL="416" NAME="?Init@CEmailFilter@@UAEJPB_WK@Z" PURGE="8" COMMENT="" />
    <EXPORT ORDINAL="417" NAME="?Init@CPassportFilter@@UAEJPB_WK@Z" PURGE="8" COMMENT="" />
    <EXPORT ORDINAL="418" NAME="?InitComboBox@CtryCode@@SGJPAUHWND__@@HK@Z" PURGE="12" COMMENT="" />
    <EXPORT ORDINAL="419" NAME="?InitDialog@CContactDialog@@MAEJPAUISimpleContact@@PAUIContactProperties@@@Z" PURGE="8" COMMENT="" />
    <EXPORT ORDINAL="420" NAME="?InitDialogUI@CBaseCircleDialog@@MAEJXZ" PURGE="0" COMMENT="" />
    <EXPORT ORDINAL="421" NAME="?InitEnum@CtryCode@@QAEXXZ" PURGE="0" COMMENT="" />
    <EXPORT ORDINAL="422" NAME="?Initialize@CAddressWellElement@@QAEJI@Z" PURGE="4" COMMENT="" />
    <EXPORT ORDINAL="423" NAME="?Initialize@CBuddyListElementBase@@UAEJXZ" PURGE="0" COMMENT="" />
    <EXPORT ORDINAL="424" NAME="?Initialize@CContactElemBase@@QAEJXZ" PURGE="0" COMMENT="" />
    <EXPORT ORDINAL="425" NAME="?Initialize@CMobileAddressSelector@@QAEJI@Z" PURGE="4" COMMENT="" />
    <EXPORT ORDINAL="426" NAME="?Initialize@CMobileSelector@@QAEJI@Z" PURGE="4" COMMENT="" />
    <EXPORT ORDINAL="427" NAME="?Initialize@CWordWheelElement@@QAEJXZ" PURGE="0" COMMENT="" />
    <EXPORT ORDINAL="428" NAME="?InitializeABView@CWordWheelElement@@MAEXXZ" PURGE="0" COMMENT="" />
    <EXPORT ORDINAL="429" NAME="?InitializeCounters@Contacts@@YGJXZ" PURGE="0" COMMENT="" />
    <EXPORT ORDINAL="430" NAME="?InitializeDialog@CBaseCircleDialog@@QAEJPAUIUnknown@@GPB_WPAUHWND__@@PAUtagPOINT@@1IIPAUIParticipantList@@@Z" PURGE="36" COMMENT="" />
    <EXPORT ORDINAL="431" NAME="?InitializeElements@CWordWheelElement@@QAEXXZ" PURGE="0" COMMENT="" />
    <EXPORT ORDINAL="432" NAME="InitializeUXContacts" PURGE="4" COMMENT="" />
    <EXPORT ORDINAL="433" NAME="?Insert@CABListItemArray@@QAEHPAUIStoreObject@@K@Z" PURGE="8" COMMENT="" />
    <EXPORT ORDINAL="434" NAME="?Insert@CABListItemArray@@UAEHPAUIStoreObject@@KPB_W@Z" PURGE="12" COMMENT="" />
    <EXPORT ORDINAL="435" NAME="?InverseTransformValue@CUXTransformsBase@@UAGJPAUIUnknown@@PB_WHPAVValue@DirectUI@@PAUtagVARIANT@@@Z" PURGE="24" COMMENT="" />
    <EXPORT ORDINAL="436" NAME="?IsAbchAnyKindOfFailure@Contacts@@YG_NJ@Z" PURGE="4" COMMENT="" />
    <EXPORT ORDINAL="437" NAME="?IsAbchFatalError@Contacts@@YG_NJ@Z" PURGE="4" COMMENT="" />
    <EXPORT ORDINAL="438" NAME="?IsAbchPushDisabled@Contacts@@YG_NJ@Z" PURGE="4" COMMENT="" />
    <EXPORT ORDINAL="439" NAME="?IsAcceptedCircleMember@Contacts@@YG_NPAUICircle@@PAUIStoreObject@@@Z" PURGE="8" COMMENT="" />
    <EXPORT ORDINAL="440" NAME="?IsBstrVariantEmpty@@YG_NPAUtagVARIANT@@@Z" PURGE="4" COMMENT="" />
    <EXPORT ORDINAL="441" NAME="?IsBuddy@Contacts@@YGKPAUIUnknown@@K@Z" PURGE="8" COMMENT="" />
    <EXPORT ORDINAL="442" NAME="?IsBuddyOnContactList@@YG_NPAUIUnknown@@PAPAUISimpleContact@@@Z" PURGE="8" COMMENT="" />
    <EXPORT ORDINAL="443" NAME="?IsCapableOf@@YG_NPAUISimpleContact@@W4CAPABILITY@@@Z" PURGE="8" COMMENT="" />
    <EXPORT ORDINAL="444" NAME="?IsCircleMember@Contacts@@YG_NPAUICircle@@PAUIStoreObject@@_N@Z" PURGE="12" COMMENT="" />
    <EXPORT ORDINAL="445" NAME="?IsCommandSupportedByExec@CABPopupMenu@@MAE_NKU_GUID@@@Z" PURGE="20" COMMENT="" />
    <EXPORT ORDINAL="446" NAME="?IsContactBuddy@@YG_NPAUISimpleContact@@@Z" PURGE="4" COMMENT="" />
    <EXPORT ORDINAL="447" NAME="?IsContactCapable@Contacts@@YG_NPAUIUnknown@@_K@Z" PURGE="12" COMMENT="" />
    <EXPORT ORDINAL="448" NAME="?IsContactFederatedBuddy@@YG_NPAUISimpleContact@@@Z" PURGE="4" COMMENT="" />
    <EXPORT ORDINAL="449" NAME="?IsContactJaguire@@YG_NPAUISimpleContact@@@Z" PURGE="4" COMMENT="" />
    <EXPORT ORDINAL="450" NAME="?IsContactMe@@YG_NPAUISimpleContact@@@Z" PURGE="4" COMMENT="" />
    <EXPORT ORDINAL="451" NAME="?IsContactMe@@YG_NPBUCONTACT@@@Z" PURGE="4" COMMENT="" />
    <EXPORT ORDINAL="452" NAME="?IsContactMe@@YG_NPBUIContact@@@Z" PURGE="4" COMMENT="" />
    <EXPORT ORDINAL="453" NAME="?IsContactMe@@YG_NPB_W@Z" PURGE="4" COMMENT="" />
    <EXPORT ORDINAL="454" NAME="?IsContactNotSomeBuddy@@YG_NPAUISimpleContact@@@Z" PURGE="4" COMMENT="" />
    <EXPORT ORDINAL="455" NAME="?IsContactProfileSet@@YGHPBUISimpleContact@@@Z" PURGE="4" COMMENT="" />
    <EXPORT ORDINAL="456" NAME="?IsContactSomeKindOfBuddy@@YG_NPAUISimpleContact@@@Z" PURGE="4" COMMENT="" />
    <EXPORT ORDINAL="457" NAME="?IsContactSomeKindOfKnownBuddy@@YG_NPAUISimpleContact@@@Z" PURGE="4" COMMENT="" />
    <EXPORT ORDINAL="458" NAME="?IsContactUIOnly@@YG_NPAUISimpleContact@@@Z" PURGE="4" COMMENT="" />
    <EXPORT ORDINAL="459" NAME="?IsContactWvidBuddy@@YG_NPAUISimpleContact@@@Z" PURGE="4" COMMENT="" />
    <EXPORT ORDINAL="460" NAME="?IsContactYahooBuddy@@YG_NPAUISimpleContact@@@Z" PURGE="4" COMMENT="" />
    <EXPORT ORDINAL="461" NAME="?IsDirty@CContactDialog@@MAE_NXZ" PURGE="0" COMMENT="" />
    <EXPORT ORDINAL="462" NAME="?IsEditInlineCmd@CCircleElement@@MAE_NK@Z" PURGE="4" COMMENT="" />
    <EXPORT ORDINAL="463" NAME="?IsEditInlineCmd@CContactElement@@MAE_NK@Z" PURGE="4" COMMENT="" />
    <EXPORT ORDINAL="464" NAME="?IsEditInlineCmd@CGroupElement@@MAE_NK@Z" PURGE="4" COMMENT="" />
    <EXPORT ORDINAL="465" NAME="?IsEditMode@CContactDialog@@UAE_NXZ" PURGE="0" COMMENT="" />
    <EXPORT ORDINAL="466" NAME="?IsFavoritesGroup@CGroupElement@@QAE_NXZ" PURGE="0" COMMENT="" />
    <EXPORT ORDINAL="467" NAME="?IsInOtherGroup@@YG_NPAUISimpleContact@@@Z" PURGE="4" COMMENT="" />
    <EXPORT ORDINAL="468" NAME="?IsOutlookImportNeeded@Contacts@@YG_NXZ" PURGE="0" COMMENT="" />
    <EXPORT ORDINAL="469" NAME="?IsProfileSet@@YGHPBUISimpleContact@@@Z" PURGE="4" COMMENT="" />
    <EXPORT ORDINAL="470" NAME="?IsReadOnlyGroup@CGroupElement@@QAE_NXZ" PURGE="0" COMMENT="" />
    <EXPORT ORDINAL="471" NAME="?IsReadOnlyGrouping@CABPopupMenu@@MAEJPA_N_N@Z" PURGE="8" COMMENT="" />
    <EXPORT ORDINAL="472" NAME="?IsRolePending@@YGJPAUIMember@@HAA_N@Z" PURGE="12" COMMENT="" />
    <EXPORT ORDINAL="473" NAME="?IsSignedIn@Contacts@@YG_NXZ" PURGE="-1" COMMENT="" />
    <EXPORT ORDINAL="474" NAME="?IsSortByGroups@CContactElemBase@@SG_NXZ" PURGE="0" COMMENT="" />
    <EXPORT ORDINAL="475" NAME="?IsSpaceSet@@YGHPAUISimpleContact@@@Z" PURGE="4" COMMENT="" />
    <EXPORT ORDINAL="476" NAME="?IsSubscribeLiveBuddiesNeeded@Contacts@@YG_NXZ" PURGE="0" COMMENT="" />
    <EXPORT ORDINAL="477" NAME="?IsValidCountry@CtryCode@@SGHK@Z" PURGE="4" COMMENT="" />
    <EXPORT ORDINAL="478" NAME="?IsWABImportNeeded@Contacts@@YG_NXZ" PURGE="0" COMMENT="" />
    <EXPORT ORDINAL="479" NAME="?IsWordWheelClear@CWordWheelElement@@QAE_NXZ" PURGE="0" COMMENT="" />
    <EXPORT ORDINAL="480" NAME="?IsWordWheelFilteringEnabled@CBuddyListElement@@UAE_NXZ" PURGE="0" COMMENT="" />
    <EXPORT ORDINAL="481" NAME="?IsWordWheelFilteringEnabled@CBuddyListElementBase@@UAE_NXZ" PURGE="0" COMMENT="" />
    <EXPORT ORDINAL="482" NAME="?IsWordWheelFocusableChar@@YGH_WI@Z" PURGE="8" COMMENT="" />
    <EXPORT ORDINAL="483" NAME="?IsWordWheelFocused@CWordWheelElement@@QAE_NXZ" PURGE="0" COMMENT="" />
    <EXPORT ORDINAL="484" NAME="?IsWordWheelInUse@CContactElemBase@@QBE_NXZ" PURGE="0" COMMENT="" />
    <EXPORT ORDINAL="485" NAME="?IsWordWheelMatch@@YGHPB_WI0IH@Z" PURGE="20" COMMENT="" />
    <EXPORT ORDINAL="486" NAME="?IsWordWheelMatch@@YGHPB_WIPAUISimpleContact@@@Z" PURGE="12" COMMENT="" />
    <EXPORT ORDINAL="487" NAME="?IsWordWheelUpdateEnabled@CBuddyListElementBase@@UAE_NXZ" PURGE="0" COMMENT="" />
    <EXPORT ORDINAL="488" NAME="?LaunchCircleDialog@Contacts@@YGJPAUIUnknown@@GPB_WPAUHWND__@@PAUtagPOINT@@1IIPAUIParticipantList@@@Z" PURGE="36" COMMENT="" />
    <EXPORT ORDINAL="489" NAME="?LaunchCircleDialogModeless@Contacts@@YGJPAUIUnknown@@GPB_WPAUHWND__@@PAUtagPOINT@@1II@Z" PURGE="32" COMMENT="" />
    <EXPORT ORDINAL="490" NAME="?LaunchCirclePage@Contacts@@YGJPAUICircle@@PAUHWND__@@@Z" PURGE="8" COMMENT="" />
    <EXPORT ORDINAL="491" NAME="?LaunchContactDeleteDialog@Contacts@@YGJPAUIUnknown@@PAUHWND__@@@Z" PURGE="8" COMMENT="" />
    <EXPORT ORDINAL="492" NAME="?LaunchContactEditDialog@Contacts@@YGJKPAUHWND__@@K@Z" PURGE="12" COMMENT="" />
    <EXPORT ORDINAL="493" NAME="?LaunchContactEditDialog@Contacts@@YGJPAPAUIContactEditDialog@@PAUHWND__@@PAUISimpleContact@@@Z" PURGE="12" COMMENT="" />
    <EXPORT ORDINAL="494" NAME="?LaunchContactEditDialog@Contacts@@YGJPAUISimpleContact@@PAUIContactProperties@@PAUIStoreObjectEditor@@_NPAUHWND__@@PAPAUIContactEditDialog@@KPAUIUnknown@@@Z" PURGE="32" COMMENT="" />
    <EXPORT ORDINAL="495" NAME="?LaunchContactEditDialog@Contacts@@YGJPB_WW4EEditDialogFillField@1@PAUHWND__@@_N@Z" PURGE="16" COMMENT="" />
    <EXPORT ORDINAL="496" NAME="?LaunchContactPicker@Contacts@@YGJW4ContactPickerStyle@@PAUHWND__@@PAPAUIContactPickerDialog@@@Z" PURGE="12" COMMENT="" />
    <EXPORT ORDINAL="497" NAME="?LaunchContactPicker@Contacts@@YGJW4ContactPickerStyle@@PAUHWND__@@PAUIParticipantList@@PAPAUIContactPickerDialog@@@Z" PURGE="16" COMMENT="" />
    <EXPORT ORDINAL="498" NAME="?LaunchGroupDeleteDialog@Contacts@@YGJKPAUHWND__@@@Z" PURGE="8" COMMENT="" />
    <EXPORT ORDINAL="499" NAME="?LaunchGroupEditDialog@Contacts@@YGJKPAUHWND__@@@Z" PURGE="8" COMMENT="" />
    <EXPORT ORDINAL="500" NAME="?LaunchGroupEditDialog@Contacts@@YGJPAUIGroup@@PAUHWND__@@@Z" PURGE="8" COMMENT="" />
    <EXPORT ORDINAL="501" NAME="?LaunchModal@CBaseCircleDialog@@SGJPAUIUnknown@@GPB_WPAUHWND__@@PAUtagPOINT@@1IIPAUIParticipantList@@@Z" PURGE="36" COMMENT="" />
    <EXPORT ORDINAL="502" NAME="?LaunchModeless@CBaseCircleDialog@@SGJPAUIUnknown@@GPB_WPAUHWND__@@PAUtagPOINT@@1II@Z" PURGE="32" COMMENT="" />
    <EXPORT ORDINAL="503" NAME="?ListItemCount@CContactElemBase@@QAEHXZ" PURGE="0" COMMENT="" />
    <EXPORT ORDINAL="504" NAME="?LoadCountryFromRegistry@CPhoneRegUtil@@SGKPAUHWND__@@KPBD1@Z" PURGE="16" COMMENT="" />
    <EXPORT ORDINAL="505" NAME="?MAX_CHARS@CtryCode@@2IB" PURGE="20848" COMMENT="" />
    <EXPORT ORDINAL="506" NAME="?MakeModal@CContactPickerDialog@@QAEJXZ" PURGE="0" COMMENT="" />
    <EXPORT ORDINAL="507" NAME="?MatchesEmail@Contacts@@YG_NPAUIUnknown@@PB_WI@Z" PURGE="12" COMMENT="" />
    <EXPORT ORDINAL="508" NAME="?MatchesMobilePhoneNumber@Contacts@@YG_NPAUIUnknown@@PB_W@Z" PURGE="8" COMMENT="" />
    <EXPORT ORDINAL="509" NAME="?MatchesPhoneNumber@Contacts@@YG_NPAUIUnknown@@PB_W@Z" PURGE="8" COMMENT="" />
    <EXPORT ORDINAL="510" NAME="?MenuDuiProp@CContactElemBase@@2PAUPropertyInfo@DirectUI@@A" PURGE="-1" COMMENT="" />
    <EXPORT ORDINAL="511" NAME="?MoveContactToGroup@CABPopupMenu@@IAEJPAUISimpleContact@@K@Z" PURGE="8" COMMENT="" />
    <EXPORT ORDINAL="512" NAME="?MoveFavoriteUpOrDown@Contacts@@YGJPAUISimpleContact@@W4FavoriteMove@1@PAPAUIStoreTransaction@@@Z" PURGE="12" COMMENT="" />
    <EXPORT ORDINAL="513" NAME="?OnBegin@CBuddyListElementBase@@UAEXXZ" PURGE="0" COMMENT="" />
    <EXPORT ORDINAL="514" NAME="?OnCanDrop@CBuddyListElement@@MAEXPAUQueryDropEvent@@@Z" PURGE="4" COMMENT="" />
    <EXPORT ORDINAL="515" NAME="?OnCanDrop@CBuddyListElementBase@@MAEXPAUQueryDropEvent@@@Z" PURGE="4" COMMENT="" />
    <EXPORT ORDINAL="516" NAME="?OnChange@CBuddyListElementBase@@UAEXPAUIStoreObject@@PAUIObjectChangeDescription@@@Z" PURGE="8" COMMENT="" />
    <EXPORT ORDINAL="517" NAME="?OnClick@CCircleElement@@MAE_NXZ" PURGE="0" COMMENT="" />
    <EXPORT ORDINAL="518" NAME="?OnClick@CContactElement@@MAE_NXZ" PURGE="0" COMMENT="" />
    <EXPORT ORDINAL="519" NAME="?OnClick@CGroupElement@@MAE_NXZ" PURGE="0" COMMENT="" />
    <EXPORT ORDINAL="520" NAME="?OnCommand@CBaseCircleDialog@@MAE_NIJAAJ@Z" PURGE="12" COMMENT="" />
    <EXPORT ORDINAL="521" NAME="?OnComplete@CContactDialog@@UAEXPAUIStoreTransaction@@@Z" PURGE="4" COMMENT="" />
    <EXPORT ORDINAL="522" NAME="?OnDelete@CBuddyListElementBase@@UAEXPAUIStoreObject@@@Z" PURGE="4" COMMENT="" />
    <EXPORT ORDINAL="523" NAME="?OnDestroy@CAddressWellElement@@UAEXXZ" PURGE="-1" COMMENT="" />
    <EXPORT ORDINAL="524" NAME="?OnDestroy@CBuddyListElementBase@@UAEXXZ" PURGE="-1" COMMENT="" />
    <EXPORT ORDINAL="525" NAME="?OnDestroy@CContactElemBase@@UAEXXZ" PURGE="-1" COMMENT="" />
    <EXPORT ORDINAL="526" NAME="?OnDestroy@CPeoplePickerElem@@UAEXXZ" PURGE="-1" COMMENT="" />
    <EXPORT ORDINAL="527" NAME="?OnDoubleClick@CCircleElement@@MAE_NXZ" PURGE="0" COMMENT="" />
    <EXPORT ORDINAL="528" NAME="?OnDoubleClick@CContactElement@@MAE_NXZ" PURGE="0" COMMENT="" />
    <EXPORT ORDINAL="529" NAME="?OnDoubleClick@CGroupElement@@MAE_NXZ" PURGE="0" COMMENT="" />
    <EXPORT ORDINAL="530" NAME="?OnDrop@CBuddyListElement@@MAE_NPAUQueryDropEvent@@@Z" PURGE="4" COMMENT="" />
    <EXPORT ORDINAL="531" NAME="?OnDrop@CBuddyListElementBase@@MAE_NPAUQueryDropEvent@@@Z" PURGE="4" COMMENT="" />
    <EXPORT ORDINAL="532" NAME="?OnEditError@CListItemElement@@MAEXJ@Z" PURGE="4" COMMENT="" />
    <EXPORT ORDINAL="533" NAME="?OnEnd@CBuddyListElementBase@@UAEXXZ" PURGE="0" COMMENT="" />
    <EXPORT ORDINAL="534" NAME="?OnEvent@CBuddyListElementBase@@UAEXPAUEvent@DirectUI@@@Z" PURGE="4" COMMENT="" />
    <EXPORT ORDINAL="535" NAME="?OnEvent@CContactElemBase@@UAEXPAUEvent@DirectUI@@@Z" PURGE="4" COMMENT="" />
    <EXPORT ORDINAL="536" NAME="?OnEvent@CContactElement@@UAEXPAUEvent@DirectUI@@@Z" PURGE="4" COMMENT="" />
    <EXPORT ORDINAL="537" NAME="?OnEvent@CGroupElement@@UAEXPAUEvent@DirectUI@@@Z" PURGE="4" COMMENT="" />
    <EXPORT ORDINAL="538" NAME="?OnEvent@CListItemElement@@UAEXPAUEvent@DirectUI@@@Z" PURGE="4" COMMENT="" />
    <EXPORT ORDINAL="539" NAME="?OnEvent@CMobileAddressSelector@@UAEXPAUEvent@DirectUI@@@Z" PURGE="4" COMMENT="" />
    <EXPORT ORDINAL="540" NAME="?OnEvent@CMobileSelector@@UAEXPAUEvent@DirectUI@@@Z" PURGE="4" COMMENT="" />
    <EXPORT ORDINAL="541" NAME="?OnEvent@CPeoplePickerElem@@UAEXPAUEvent@DirectUI@@@Z" PURGE="4" COMMENT="" />
    <EXPORT ORDINAL="542" NAME="?OnHosted@CAddressWellElement@@UAEXPAVElement@DirectUI@@@Z" PURGE="4" COMMENT="" />
    <EXPORT ORDINAL="543" NAME="?OnHosted@CBuddyListElementBase@@UAEXPAVElement@DirectUI@@@Z" PURGE="4" COMMENT="" />
    <EXPORT ORDINAL="544" NAME="?OnHosted@CContactRegionElement@@UAEXPAVElement@DirectUI@@@Z" PURGE="-1" COMMENT="" />
    <EXPORT ORDINAL="545" NAME="?OnHosted@CListItemElement@@UAEXPAVElement@DirectUI@@@Z" PURGE="4" COMMENT="" />
    <EXPORT ORDINAL="546" NAME="?OnHosted@CMobileAddressSelector@@UAEXPAVElement@DirectUI@@@Z" PURGE="4" COMMENT="" />
    <EXPORT ORDINAL="547" NAME="?OnHosted@CMobileSelector@@UAEXPAVElement@DirectUI@@@Z" PURGE="4" COMMENT="" />
    <EXPORT ORDINAL="548" NAME="?OnInitDialog@CBaseCircleDialog@@MAE_NIJAAJ@Z" PURGE="12" COMMENT="" />
    <EXPORT ORDINAL="549" NAME="?OnInput@CBuddyListElementBase@@UAEXPAUInputEvent@DirectUI@@@Z" PURGE="4" COMMENT="" />
    <EXPORT ORDINAL="550" NAME="?OnInput@CCircleElement@@UAEXPAUInputEvent@DirectUI@@@Z" PURGE="4" COMMENT="" />
    <EXPORT ORDINAL="551" NAME="?OnInput@CContactElement@@UAEXPAUInputEvent@DirectUI@@@Z" PURGE="4" COMMENT="" />
    <EXPORT ORDINAL="552" NAME="?OnInput@CGroupElement@@UAEXPAUInputEvent@DirectUI@@@Z" PURGE="4" COMMENT="" />
    <EXPORT ORDINAL="553" NAME="?OnInput@CListItemElement@@UAEXPAUInputEvent@DirectUI@@@Z" PURGE="4" COMMENT="" />
    <EXPORT ORDINAL="554" NAME="?OnInput@CWordWheelElement@@UAEXPAUInputEvent@DirectUI@@@Z" PURGE="4" COMMENT="" />
    <EXPORT ORDINAL="555" NAME="?OnInsert@CBuddyListElementBase@@UAEXPAUIStoreObject@@@Z" PURGE="4" COMMENT="" />
    <EXPORT ORDINAL="556" NAME="?OnKeyFocusMoved@CWordWheelElement@@UAEXPAVElement@DirectUI@@0@Z" PURGE="8" COMMENT="" />
    <EXPORT ORDINAL="557" NAME="?OnListenedEvent@CABDialog@@MAEXPAVElement@DirectUI@@PAUEvent@3@@Z" PURGE="8" COMMENT="" />
    <EXPORT ORDINAL="558" NAME="?OnListenedEvent@CContactDialog@@UAEXPAVElement@DirectUI@@PAUEvent@3@@Z" PURGE="8" COMMENT="" />
    <EXPORT ORDINAL="559" NAME="?OnListenedEvent@CContactPickerDialog@@UAEXPAVElement@DirectUI@@PAUEvent@3@@Z" PURGE="8" COMMENT="" />
    <EXPORT ORDINAL="560" NAME="?OnListenedPropertyChanged@CContactDialog@@UAEXPAVElement@DirectUI@@PBUPropertyInfo@3@HPAVValue@3@2@Z" PURGE="20" COMMENT="" />
    <EXPORT ORDINAL="561" NAME="?OnListenedPropertyChanged@CContactElemBase@@UAEXPAVElement@DirectUI@@PBUPropertyInfo@3@HPAVValue@3@2@Z" PURGE="20" COMMENT="" />
    <EXPORT ORDINAL="562" NAME="?OnListenedPropertyChanged@CMobileAddressSelector@@UAEXPAVElement@DirectUI@@PBUPropertyInfo@3@HPAVValue@3@2@Z" PURGE="20" COMMENT="" />
    <EXPORT ORDINAL="563" NAME="?OnListenedPropertyChanged@CMobileSelector@@UAEXPAVElement@DirectUI@@PBUPropertyInfo@3@HPAVValue@3@2@Z" PURGE="20" COMMENT="" />
    <EXPORT ORDINAL="564" NAME="?OnListenedPropertyChanged@CWordWheelElement@@UAEXPAVElement@DirectUI@@PBUPropertyInfo@3@HPAVValue@3@2@Z" PURGE="20" COMMENT="" />
    <EXPORT ORDINAL="565" NAME="?OnListenerDetach@CContactElemBase@@UAEXPAVElement@DirectUI@@@Z" PURGE="4" COMMENT="" />
    <EXPORT ORDINAL="566" NAME="?OnMessage@CABDialog@@UAEJIIJAAJ@Z" PURGE="16" COMMENT="" />
    <EXPORT ORDINAL="567" NAME="?OnMessage@CAddressWellElement@@UAEJIIJAAJ@Z" PURGE="16" COMMENT="" />
    <EXPORT ORDINAL="568" NAME="?OnMessage@CContactDialog@@UAEJIIJAAJ@Z" PURGE="16" COMMENT="" />
    <EXPORT ORDINAL="569" NAME="?OnNCDestroy@CABDialog@@MAE_NIJAAJ@Z" PURGE="12" COMMENT="" />
    <EXPORT ORDINAL="570" NAME="?OnParticipantChanged@CAddressWellElement@@UAEJABUWELLPARTICIPANT@@W4ParticipantModificationOperation@@@Z" PURGE="8" COMMENT="" />
    <EXPORT ORDINAL="571" NAME="?OnPoolViewEvent@CAddressWellElement@@UAEXW4EEvent@IObjectPoolViewCallback@@PAUIObjectPoolView@@@Z" PURGE="8" COMMENT="" />
    <EXPORT ORDINAL="572" NAME="?OnPoolViewEvent@CBuddyListElementBase@@UAEXW4EEvent@IObjectPoolViewCallback@@PAUIObjectPoolView@@@Z" PURGE="8" COMMENT="" />
    <EXPORT ORDINAL="573" NAME="?OnPostCreateDialog@CABDialog@@MAEXPAVElement@DirectUI@@@Z" PURGE="4" COMMENT="" />
    <EXPORT ORDINAL="574" NAME="?OnPostCreateDialog@CContactDialog@@UAEXPAVElement@DirectUI@@@Z" PURGE="4" COMMENT="" />
    <EXPORT ORDINAL="575" NAME="?OnPropertyChanged@CAddressWellElement@@UAEXPBUPropertyInfo@DirectUI@@HPAVValue@3@1@Z" PURGE="16" COMMENT="" />
    <EXPORT ORDINAL="576" NAME="?OnPropertyChanged@CBuddyVirtualList@@UAEXPBUPropertyInfo@DirectUI@@HPAVValue@3@1@Z" PURGE="16" COMMENT="" />
    <EXPORT ORDINAL="577" NAME="?OnPropertyChanged@CContactElemBase@@UAEXPBUPropertyInfo@DirectUI@@HPAVValue@3@1@Z" PURGE="16" COMMENT="" />
    <EXPORT ORDINAL="578" NAME="?OnPropertyChanged@CContactRegionElement@@UAEXPBUPropertyInfo@DirectUI@@HPAVValue@3@1@Z" PURGE="-1" COMMENT="" />
    <EXPORT ORDINAL="579" NAME="?OnPropertyChanged@CListItemElement@@UAEXPBUPropertyInfo@DirectUI@@HPAVValue@3@1@Z" PURGE="16" COMMENT="" />
    <EXPORT ORDINAL="580" NAME="?OnPropertyChanged@CMobileSelector@@UAEXPBUPropertyInfo@DirectUI@@HPAVValue@3@1@Z" PURGE="16" COMMENT="" />
    <EXPORT ORDINAL="581" NAME="?OnPropertyChanged@CPeoplePickerElem@@UAEXPBUPropertyInfo@DirectUI@@HPAVValue@3@1@Z" PURGE="16" COMMENT="" />
    <EXPORT ORDINAL="582" NAME="?OnPropertyChanged@CWordWheelElement@@UAEXPBUPropertyInfo@DirectUI@@HPAVValue@3@1@Z" PURGE="16" COMMENT="" />
    <EXPORT ORDINAL="583" NAME="?OnQueryDropEffect@CBuddyListElement@@MAEXPAUQueryDropEvent@@@Z" PURGE="4" COMMENT="" />
    <EXPORT ORDINAL="584" NAME="?OnQueryDropEffect@CBuddyListElementBase@@MAEXPAUQueryDropEvent@@@Z" PURGE="4" COMMENT="" />
    <EXPORT ORDINAL="585" NAME="?OnSave@CContactDialog@@MAEJXZ" PURGE="0" COMMENT="" />
    <EXPORT ORDINAL="586" NAME="?OnScrollBarsChanged@CBuddyListElement@@MAEXPAVElement@DirectUI@@@Z" PURGE="4" COMMENT="" />
    <EXPORT ORDINAL="587" NAME="?OnScrollBarsChanged@CBuddyListElementBase@@MAEXPAVElement@DirectUI@@@Z" PURGE="4" COMMENT="" />
    <EXPORT ORDINAL="588" NAME="?OnShowDialer@CABPopupMenu@@KGJXZ" PURGE="0" COMMENT="" />
    <EXPORT ORDINAL="589" NAME="?OnSignin@?$ISignoutCallbackImpl@UISignoutCallback@Contacts@@@Contacts@@UAEXXZ" PURGE="0" COMMENT="" />
    <EXPORT ORDINAL="590" NAME="?OnSignout@CABDialog@@MAEXXZ" PURGE="0" COMMENT="" />
    <EXPORT ORDINAL="591" NAME="?OnTimer@CABPopupMenu@@MAEXXZ" PURGE="0" COMMENT="" />
    <EXPORT ORDINAL="592" NAME="?OnTimer@CBuddyListElementBase@@UAEXIKK@Z" PURGE="12" COMMENT="" />
    <EXPORT ORDINAL="593" NAME="?OnTimer@CContactElemBase@@UAEXIKK@Z" PURGE="12" COMMENT="" />
    <EXPORT ORDINAL="594" NAME="?OnUnHosted@CABPopupMenu@@UAGJPAVElement@DirectUI@@0@Z" PURGE="12" COMMENT="" />
    <EXPORT ORDINAL="595" NAME="?OnUnHosted@CBuddyListCache@@UAEXPAVElement@DirectUI@@@Z" PURGE="4" COMMENT="" />
    <EXPORT ORDINAL="596" NAME="?OnUnHosted@CBuddyListElementBase@@UAEXPAVElement@DirectUI@@@Z" PURGE="4" COMMENT="" />
    <EXPORT ORDINAL="597" NAME="?OnUnHosted@CContactElemBase@@UAEXPAVElement@DirectUI@@@Z" PURGE="4" COMMENT="" />
    <EXPORT ORDINAL="598" NAME="?OnUnHosted@CListItemElement@@UAEXPAVElement@DirectUI@@@Z" PURGE="4" COMMENT="" />
    <EXPORT ORDINAL="599" NAME="?OnUnHosted@CMobileAddressSelector@@UAEXPAVElement@DirectUI@@@Z" PURGE="4" COMMENT="" />
    <EXPORT ORDINAL="600" NAME="?OnUnHosted@CMobileSelector@@UAEXPAVElement@DirectUI@@@Z" PURGE="4" COMMENT="" />
    <EXPORT ORDINAL="601" NAME="?OnUnHosted@CWordWheelElement@@UAEXPAVElement@DirectUI@@@Z" PURGE="4" COMMENT="" />
    <EXPORT ORDINAL="602" NAME="?OnVirtualListCreated@CBuddyListElementBase@@MAEJPAVCBuddyVirtualList@@@Z" PURGE="4" COMMENT="" />
    <EXPORT ORDINAL="603" NAME="?ParseSMTPDisplayName@Contacts@@YGJPB_W_NAAV?$CStringT@_WV?$StrTraitATL@_WV?$ChTraitsCRT@_W@ATL@@@ATL@@@ATL@@2@Z" PURGE="16" COMMENT="" />
    <EXPORT ORDINAL="604" NAME="?PartTypeProp@CAddressWellElement@@2PAUPropertyInfo@DirectUI@@A" PURGE="-1" COMMENT="" />
    <EXPORT ORDINAL="605" NAME="?PerformVCardVerification@CContactDialog@@MAEJPAUISimpleContact@@@Z" PURGE="4" COMMENT="" />
    <EXPORT ORDINAL="606" NAME="?PickerProp@CAddressWellElement@@2PAUPropertyInfo@DirectUI@@A" PURGE="-1" COMMENT="" />
    <EXPORT ORDINAL="607" NAME="?PopulateGroupMenu@CABPopupMenu@@MAEJPAUHMENU__@@KKPAUIObjectPoolView@@PAUISimpleContact@@_N@Z" PURGE="24" COMMENT="" />
    <EXPORT ORDINAL="608" NAME="?PopulateGroupMenuHelper@CABPopupMenu@@IAEJPAUHMENU__@@KKPAUIObjectPoolView@@PAUISimpleContact@@_N3@Z" PURGE="28" COMMENT="" />
    <EXPORT ORDINAL="609" NAME="?ProcessNotification@Contacts@@YGJABV?$CStringT@_WV?$StrTraitATL@_WV?$ChTraitsCRT@_W@ATL@@@ATL@@@ATL@@_NPA_N@Z" PURGE="12" COMMENT="" />
    <EXPORT ORDINAL="610" NAME="?PutData@CBuddyListCache@@UAEJPAVCABListItemArray@@@Z" PURGE="4" COMMENT="" />
    <EXPORT ORDINAL="611" NAME="?QueryContactCapability@@YGJPAUIBuddyListHost@@PAUISimpleContact@@W4CAPABILITY@@AA_N@Z" PURGE="16" COMMENT="" />
    <EXPORT ORDINAL="612" NAME="?QueryContactCommand@@YGJPAUIBuddyListHost@@PAUISimpleContact@@HAA_N2@Z" PURGE="20" COMMENT="" />
    <EXPORT ORDINAL="613" NAME="?QueryDataEffect@CAbListItem@@UAE_NPAUQueryDropEvent@@@Z" PURGE="4" COMMENT="" />
    <EXPORT ORDINAL="614" NAME="?QueryGetData@CABDataObject@@UAGJPAUtagFORMATETC@@@Z" PURGE="8" COMMENT="" />
    <EXPORT ORDINAL="615" NAME="?QueryInterface@CUXTransformsBase@@UAGJABU_GUID@@PAPAX@Z" PURGE="12" COMMENT="" />
    <EXPORT ORDINAL="616" NAME="?QueryModeProp@CPeoplePickerElem@@2PAUPropertyInfo@DirectUI@@A" PURGE="-1" COMMENT="" />
    <EXPORT ORDINAL="617" NAME="?QuerySpecProp@CPeoplePickerElem@@2PAUPropertyInfo@DirectUI@@A" PURGE="-1" COMMENT="" />
    <EXPORT ORDINAL="618" NAME="?QueryStatus@CABPopupMenu@@UAGJPBU_GUID@@KPAU_tagOLECMD@@PAU_tagOLECMDTEXT@@@Z" PURGE="20" COMMENT="" />
    <EXPORT ORDINAL="619" NAME="?QueryStatus@CContactElemBase@@UAGJPBU_GUID@@KPAU_tagOLECMD@@PAU_tagOLECMDTEXT@@@Z" PURGE="20" COMMENT="" />
    <EXPORT ORDINAL="620" NAME="?QueryStatus@CListItemElement@@UAGJPBU_GUID@@KPAU_tagOLECMD@@PAU_tagOLECMDTEXT@@@Z" PURGE="20" COMMENT="" />
    <EXPORT ORDINAL="621" NAME="?RTLTemplateProp@CAddressWellElement@@2PAUPropertyInfo@DirectUI@@A" PURGE="-1" COMMENT="" />
    <EXPORT ORDINAL="622" NAME="?ReadyHelperObjects@Contacts@@YGXXZ" PURGE="0" COMMENT="" />
    <EXPORT ORDINAL="623" NAME="?Register@CAddressWellElement@@SGJXZ" PURGE="0" COMMENT="" />
    <EXPORT ORDINAL="624" NAME="?Register@CBuddyListElement@@SGJXZ" PURGE="0" COMMENT="" />
    <EXPORT ORDINAL="625" NAME="?Register@CBuddyListElementBase@@SGJXZ" PURGE="0" COMMENT="" />
    <EXPORT ORDINAL="626" NAME="?Register@CBuddyVirtualList@@SGJXZ" PURGE="0" COMMENT="" />
    <EXPORT ORDINAL="627" NAME="?Register@CCircleElement@@SGJXZ" PURGE="0" COMMENT="" />
    <EXPORT ORDINAL="628" NAME="?Register@CContactElemBase@@SGJXZ" PURGE="0" COMMENT="" />
    <EXPORT ORDINAL="629" NAME="?Register@CContactElement@@SGJXZ" PURGE="0" COMMENT="" />
    <EXPORT ORDINAL="630" NAME="?Register@CContactRegionElement@@SGJXZ" PURGE="0" COMMENT="" />
    <EXPORT ORDINAL="631" NAME="?Register@CGroupElement@@SGJXZ" PURGE="0" COMMENT="" />
    <EXPORT ORDINAL="632" NAME="?Register@CListItemElement@@SGJXZ" PURGE="0" COMMENT="" />
    <EXPORT ORDINAL="633" NAME="?Register@CMobileAddressSelector@@SGJXZ" PURGE="0" COMMENT="" />
    <EXPORT ORDINAL="634" NAME="?Register@CMobileSelector@@SGJXZ" PURGE="0" COMMENT="" />
    <EXPORT ORDINAL="635" NAME="?Register@CPPListElement@@SGJXZ" PURGE="0" COMMENT="" />
    <EXPORT ORDINAL="636" NAME="?Register@CPeoplePickerElem@@SGJXZ" PURGE="0" COMMENT="" />
    <EXPORT ORDINAL="637" NAME="?Register@CWordWheelElement@@SGJXZ" PURGE="0" COMMENT="" />
    <EXPORT ORDINAL="638" NAME="?RegisterSignoutCallback@Contacts@@YGJPAUISignoutCallback@1@PAPAUIUnknown@@@Z" PURGE="-1" COMMENT="" />
    <EXPORT ORDINAL="639" NAME="?ReleaseElement@CBuddyListCache@@UAEXPAVElement@DirectUI@@@Z" PURGE="4" COMMENT="" />
    <EXPORT ORDINAL="640" NAME="?RemoveContactFromGroup@CABPopupMenu@@IAEJXZ" PURGE="0" COMMENT="" />
    <EXPORT ORDINAL="641" NAME="?RemoveDefaultCtryOpt@CtryCode@@SGHPAUHWND__@@@Z" PURGE="4" COMMENT="" />
    <EXPORT ORDINAL="642" NAME="?RemoveFromFavorites@Contacts@@YGJPAUISimpleContact@@PAPAUIStoreTransaction@@@Z" PURGE="8" COMMENT="" />
    <EXPORT ORDINAL="643" NAME="?RemoveScrollbarProp@CPPListElement@@2PAUPropertyInfo@DirectUI@@A" PURGE="-1" COMMENT="" />
    <EXPORT ORDINAL="644" NAME="?ResetElement@CContactRegionElement@@QAEXG@Z" PURGE="4" COMMENT="" />
    <EXPORT ORDINAL="645" NAME="?ResolveOneWaitingWellParticipant@CAddressWellElement@@QAEJPAURESOLVEDPARTICIPANTDATA@@PAH@Z" PURGE="8" COMMENT="" />
    <EXPORT ORDINAL="646" NAME="?SaveCountryToRegistry@CPhoneRegUtil@@SGXKPBD0@Z" PURGE="12" COMMENT="" />
    <EXPORT ORDINAL="647" NAME="?SelectAll@CBuddyListElementBase@@UAEXXZ" PURGE="0" COMMENT="" />
    <EXPORT ORDINAL="648" NAME="?SelectCurrentCountryInComboBox@CtryCode@@SGKPAUHWND__@@K@Z" PURGE="8" COMMENT="" />
    <EXPORT ORDINAL="649" NAME="?SelectFirstItemProp@CBuddyListElementBase@@2PAUPropertyInfo@DirectUI@@A" PURGE="-1" COMMENT="" />
    <EXPORT ORDINAL="650" NAME="?SelectInsertPosition@CAddressWellElement@@QAEKXZ" PURGE="0" COMMENT="" />
    <EXPORT ORDINAL="651" NAME="?SelectItem@CContactElemBase@@QAEJJ@Z" PURGE="4" COMMENT="" />
    <EXPORT ORDINAL="652" NAME="?SelectionChange@ListNotificationEvent@@2PAEA" PURGE="-1" COMMENT="" />
    <EXPORT ORDINAL="653" NAME="?SelectionChange@ParticipantEvent@@2PAEA" PURGE="-1" COMMENT="" />
    <EXPORT ORDINAL="654" NAME="?SelectionLimitProp@CPPListElement@@2PAUPropertyInfo@DirectUI@@A" PURGE="-1" COMMENT="" />
    <EXPORT ORDINAL="655" NAME="?SelectionLimitProp@CPeoplePickerElem@@2PAUPropertyInfo@DirectUI@@A" PURGE="-1" COMMENT="" />
    <EXPORT ORDINAL="656" NAME="?SendCircleIM@Contacts@@YGJPAUICircle@@PAUHWND__@@@Z" PURGE="8" COMMENT="" />
    <EXPORT ORDINAL="657" NAME="?SendMailTo@@YGJHKPAUISimpleContact@@@Z" PURGE="12" COMMENT="" />
    <EXPORT ORDINAL="658" NAME="?SeparatorProp@CAddressWellElement@@2PAUPropertyInfo@DirectUI@@A" PURGE="-1" COMMENT="" />
    <EXPORT ORDINAL="659" NAME="?SetCapability@CContactPickerDialog@@UAGJW4CAPABILITY@@@Z" PURGE="8" COMMENT="" />
    <EXPORT ORDINAL="660" NAME="?SetCapability@CPeoplePickerElem@@QAEJW4CAPABILITY@@@Z" PURGE="4" COMMENT="" />
    <EXPORT ORDINAL="661" NAME="?SetContactCapabilities@Contacts@@YGJPAUIUnknown@@_K@Z" PURGE="12" COMMENT="" />
    <EXPORT ORDINAL="662" NAME="?SetContactFlags@Contacts@@YGJPAUIUnknown@@K_N@Z" PURGE="12" COMMENT="" />
    <EXPORT ORDINAL="663" NAME="?SetContactPickerListener@CContactPickerDialog@@QAEJPAUIContactPickerListener@@@Z" PURGE="4" COMMENT="" />
    <EXPORT ORDINAL="664" NAME="?SetContentChar@CWordWheelElement@@QAE_N_W@Z" PURGE="4" COMMENT="" />
    <EXPORT ORDINAL="665" NAME="?SetCountingOfSocialNetworkRequests@Contacts@@YGJH@Z" PURGE="-1" COMMENT="" />
    <EXPORT ORDINAL="666" NAME="?SetDWORDProperty@@YGJPAUIPropertyBag@@PB_WK_N@Z" PURGE="16" COMMENT="" />
    <EXPORT ORDINAL="667" NAME="?SetDWORDProperty@@YGJPAUIUnknown@@PB_WK_N@Z" PURGE="16" COMMENT="" />
    <EXPORT ORDINAL="668" NAME="?SetData@CABDataObject@@UAGJPAUtagFORMATETC@@PAUtagSTGMEDIUM@@H@Z" PURGE="16" COMMENT="" />
    <EXPORT ORDINAL="669" NAME="?SetDataSource@CAddressWellElement@@UAEJPAUIABDataSource@@@Z" PURGE="-1" COMMENT="" />
    <EXPORT ORDINAL="670" NAME="?SetDataSource@CAddressWellElement@@UAEJPAUIUnknown@@@Z" PURGE="4" COMMENT="" />
    <EXPORT ORDINAL="671" NAME="?SetDataSource@CBuddyListElementBase@@UAEJPAUIUnknown@@@Z" PURGE="4" COMMENT="" />
    <EXPORT ORDINAL="672" NAME="?SetDataSource@CContactPickerDialog@@UAGJPAUIABDataSource@@K@Z" PURGE="12" COMMENT="" />
    <EXPORT ORDINAL="673" NAME="?SetDataSource@CPeoplePickerElem@@UAEJPAUIUnknown@@@Z" PURGE="4" COMMENT="" />
    <EXPORT ORDINAL="674" NAME="?SetDataSourceFilter@CContactElemBase@@MAEJXZ" PURGE="0" COMMENT="" />
    <EXPORT ORDINAL="675" NAME="?SetDataStore@CAddContactDialog@@UAGJPAUIAbDataStore@@@Z" PURGE="8" COMMENT="" />
    <EXPORT ORDINAL="676" NAME="?SetDataStore@CContactDialog@@UAGJPAUIAbDataStore@@@Z" PURGE="8" COMMENT="" />
    <EXPORT ORDINAL="677" NAME="?SetDataStoreHandle@CAddressWellElement@@UAEJK@Z" PURGE="4" COMMENT="" />
    <EXPORT ORDINAL="678" NAME="?SetDataStoreHandle@CPeoplePickerElem@@QAEJK@Z" PURGE="4" COMMENT="" />
    <EXPORT ORDINAL="679" NAME="?SetDefaultTransform@Contacts@@YGJPAVElement@DirectUI@@@Z" PURGE="4" COMMENT="" />
    <EXPORT ORDINAL="680" NAME="?SetDialogLabel@CContactPickerDialog@@UAGJPB_W@Z" PURGE="8" COMMENT="" />
    <EXPORT ORDINAL="681" NAME="?SetDialogLabelByID@CContactPickerDialog@@UAGJI@Z" PURGE="8" COMMENT="" />
    <EXPORT ORDINAL="682" NAME="?SetDialogWindowTitleByID@CContactPickerDialog@@UAGJI@Z" PURGE="8" COMMENT="" />
    <EXPORT ORDINAL="683" NAME="?SetDuiElement@CABPopupMenu@@UAEJPAVElement@DirectUI@@@Z" PURGE="4" COMMENT="" />
    <EXPORT ORDINAL="684" NAME="?SetEnsureSelectionOnFocus@CBuddyVirtualList@@QAEX_N@Z" PURGE="4" COMMENT="" />
    <EXPORT ORDINAL="685" NAME="?SetExpandOn@CAddressWellElement@@UAEJK@Z" PURGE="4" COMMENT="" />
    <EXPORT ORDINAL="686" NAME="?SetExpansion@CContactPickerDialog@@UAGJK_N@Z" PURGE="12" COMMENT="" />
    <EXPORT ORDINAL="687" NAME="?SetFilter@CContactPickerDialog@@UAGJK@Z" PURGE="8" COMMENT="" />
    <EXPORT ORDINAL="688" NAME="?SetFilter@CPPListElement@@QAEJPAUIABViewFilter@@@Z" PURGE="4" COMMENT="" />
    <EXPORT ORDINAL="689" NAME="?SetFilterSelection@CViewFilter@@UAEJH@Z" PURGE="4" COMMENT="" />
    <EXPORT ORDINAL="690" NAME="?SetFocusOnElement@CABDialog@@IAEXPB_W@Z" PURGE="4" COMMENT="" />
    <EXPORT ORDINAL="691" NAME="?SetFocusOnItem@CBuddyListElementBase@@UAEJJ@Z" PURGE="4" COMMENT="" />
    <EXPORT ORDINAL="692" NAME="?SetFocusOnItem@CContactElemBase@@UAEJJ@Z" PURGE="4" COMMENT="" />
    <EXPORT ORDINAL="693" NAME="?SetHasContentMode@CWordWheelElement@@QAEJ_N@Z" PURGE="4" COMMENT="" />
    <EXPORT ORDINAL="694" NAME="?SetHost@CBuddyListHostHolder@@QAEJPAUIBuddyListHost@@@Z" PURGE="4" COMMENT="" />
    <EXPORT ORDINAL="695" NAME="?SetHost@Contacts@@YGJPAUIBuddyListHost@@@Z" PURGE="4" COMMENT="" />
    <EXPORT ORDINAL="696" NAME="?SetISimpleContact@CAddContactDialog@@UAGJPAUISimpleContact@@@Z" PURGE="8" COMMENT="" />
    <EXPORT ORDINAL="697" NAME="?SetISimpleContact@CContactDialog@@UAGJPAUISimpleContact@@@Z" PURGE="8" COMMENT="" />
    <EXPORT ORDINAL="698" NAME="?SetISimpleStringProperty@CAddContactDialog@@UAGJPB_W0@Z" PURGE="12" COMMENT="" />
    <EXPORT ORDINAL="699" NAME="?SetISimpleStringProperty@CContactDialog@@UAGJPB_W0@Z" PURGE="12" COMMENT="" />
    <EXPORT ORDINAL="700" NAME="?SetLONGProperty@@YGJPAUIPropertyBag@@PB_WJ@Z" PURGE="12" COMMENT="" />
    <EXPORT ORDINAL="701" NAME="?SetMarket@Contacts@@YGJPB_W@Z" PURGE="4" COMMENT="" />
    <EXPORT ORDINAL="702" NAME="?SetMenuDui@CContactElemBase@@QAEJH@Z" PURGE="4" COMMENT="" />
    <EXPORT ORDINAL="703" NAME="?SetMessengerEnabled@Contacts@@YGXPAUIUnknown@@K_N@Z" PURGE="12" COMMENT="" />
    <EXPORT ORDINAL="704" NAME="?SetMobileAddressString@CMobileAddressSelector@@QAEJPB_W@Z" PURGE="4" COMMENT="" />
    <EXPORT ORDINAL="705" NAME="?SetMobileNumberCountryCodeString@CMobileSelector@@QAEJPB_W@Z" PURGE="4" COMMENT="" />
    <EXPORT ORDINAL="706" NAME="?SetMobileNumberString@CMobileSelector@@QAEJPB_W@Z" PURGE="4" COMMENT="" />
    <EXPORT ORDINAL="707" NAME="?SetNameFormat@Contacts@@YGJW4NameDisplayFormat@1@@Z" PURGE="4" COMMENT="" />
    <EXPORT ORDINAL="708" NAME="?SetNameFormatByUserLocale@Contacts@@YGJXZ" PURGE="0" COMMENT="" />
    <EXPORT ORDINAL="709" NAME="?SetNeedSubscribeLiveBuddies@Contacts@@YGJ_N@Z" PURGE="4" COMMENT="" />
    <EXPORT ORDINAL="710" NAME="?SetNeedToImportOutlookContacts@Contacts@@YGJ_N@Z" PURGE="4" COMMENT="" />
    <EXPORT ORDINAL="711" NAME="?SetNeedToImportWABContacts@Contacts@@YGJ_N@Z" PURGE="4" COMMENT="" />
    <EXPORT ORDINAL="712" NAME="?SetParentHWND@CAddContactDialog@@UAGJPAUHWND__@@@Z" PURGE="8" COMMENT="" />
    <EXPORT ORDINAL="713" NAME="?SetParentHWND@CBaseCircleDialog@@UAGJPAUHWND__@@@Z" PURGE="8" COMMENT="" />
    <EXPORT ORDINAL="714" NAME="?SetParentHWND@CContactDialog@@UAGJPAUHWND__@@@Z" PURGE="8" COMMENT="" />
    <EXPORT ORDINAL="715" NAME="?SetPeoplePickerSelection@ABDialogPeoplePickerCommon@@QAEJPB_WPAVElement@DirectUI@@PAUIParticipantList@@@Z" PURGE="12" COMMENT="" />
    <EXPORT ORDINAL="716" NAME="?SetPolicyFlags@Contacts@@YGXW4EPolicyFlags@1@@Z" PURGE="-1" COMMENT="" />
    <EXPORT ORDINAL="717" NAME="?SetPopulate@CContactPickerDialog@@UAEJ_N@Z" PURGE="4" COMMENT="" />
    <EXPORT ORDINAL="718" NAME="?SetPreviousGroup@CABDataObject@@UAGJPAUIStoreObject@@@Z" PURGE="8" COMMENT="" />
    <EXPORT ORDINAL="719" NAME="?SetProviderId@Contacts@@YGJPAUIAbDataStore@@PAUISimpleContact@@@Z" PURGE="8" COMMENT="" />
    <EXPORT ORDINAL="720" NAME="?SetReferencedEmail@CABPopupMenu@@UAEJPB_W@Z" PURGE="4" COMMENT="" />
    <EXPORT ORDINAL="721" NAME="?SetReferencedObject@CABPopupMenu@@UAEJPAUIStoreObject@@@Z" PURGE="4" COMMENT="" />
    <EXPORT ORDINAL="722" NAME="?SetReferencedParticipantList@CABPopupMenu@@UAEJPAUIParticipantList@@@Z" PURGE="4" COMMENT="" />
    <EXPORT ORDINAL="723" NAME="?SetRestrictedUsers@CContactPickerDialog@@UAGJPAUIABDataSource@@PAUIObjectFilterer@@@Z" PURGE="12" COMMENT="" />
    <EXPORT ORDINAL="724" NAME="?SetRestrictedUsers@CPeoplePickerElem@@QAEJPAUIABDataSource@@PAUIObjectFilterer@@@Z" PURGE="8" COMMENT="" />
    <EXPORT ORDINAL="725" NAME="?SetSearchString@CWordWheelElement@@QAE_NPB_W@Z" PURGE="4" COMMENT="" />
    <EXPORT ORDINAL="726" NAME="?SetSelectFirstItem@CBuddyListElementBase@@QAEJ_N@Z" PURGE="4" COMMENT="" />
    <EXPORT ORDINAL="727" NAME="?SetSelectFirstListItem@CWordWheelElement@@QAEJ_N@Z" PURGE="4" COMMENT="" />
    <EXPORT ORDINAL="728" NAME="?SetSelectedListItem@CBuddyListElementBase@@QAEJH@Z" PURGE="4" COMMENT="" />
    <EXPORT ORDINAL="729" NAME="?SetSelection@CAddressWellElement@@UAEJPAUIUnknown@@@Z" PURGE="4" COMMENT="" />
    <EXPORT ORDINAL="730" NAME="?SetSelection@CBuddyListElementBase@@UAEJPAUIUnknown@@@Z" PURGE="4" COMMENT="" />
    <EXPORT ORDINAL="731" NAME="?SetSelection@CContactElemBase@@UAEJPAUIUnknown@@@Z" PURGE="4" COMMENT="" />
    <EXPORT ORDINAL="732" NAME="?SetSelectionChangeCallback@CAddressWellElement@@UAEJPAUIParticipantSelectionControl@@@Z" PURGE="4" COMMENT="" />
    <EXPORT ORDINAL="733" NAME="?SetSelectionChangeCallback@CBuddyListElementBase@@UAEJPAUIParticipantSelectionControl@@@Z" PURGE="4" COMMENT="" />
    <EXPORT ORDINAL="734" NAME="?SetSelectionChangeCallback@CContactElemBase@@UAEJPAUIParticipantSelectionControl@@@Z" PURGE="4" COMMENT="" />
    <EXPORT ORDINAL="735" NAME="?SetSelectionLimit@CContactPickerDialog@@UAGJK@Z" PURGE="8" COMMENT="" />
    <EXPORT ORDINAL="736" NAME="?SetSelectionOnChildren@CContactElemBase@@MAEJPAUIUnknown@@@Z" PURGE="4" COMMENT="" />
    <EXPORT ORDINAL="737" NAME="?SetSelectionOnChildren@CPeoplePickerElem@@UAEJPAUIUnknown@@@Z" PURGE="4" COMMENT="" />
    <EXPORT ORDINAL="738" NAME="?SetStoreHandle@CBaseGrouping@@QAEXK@Z" PURGE="4" COMMENT="" />
    <EXPORT ORDINAL="739" NAME="?SetStoreObjects@CABDataObject@@UAGJPAUIObjectCollectionEditable@@@Z" PURGE="8" COMMENT="" />
    <EXPORT ORDINAL="740" NAME="?SetStringProperty@@YGJPAUIPropertyBag@@PB_W1@Z" PURGE="12" COMMENT="" />
    <EXPORT ORDINAL="741" NAME="?SetStringProperty@@YGJPAUIUnknown@@PB_W1@Z" PURGE="12" COMMENT="" />
    <EXPORT ORDINAL="742" NAME="?SetStyle@CContactPickerDialog@@UAGJW4ContactPickerStyle@@@Z" PURGE="8" COMMENT="" />
    <EXPORT ORDINAL="743" NAME="?SetStyle@CPeoplePickerElem@@QAEJW4ContactPickerStyle@@@Z" PURGE="4" COMMENT="" />
    <EXPORT ORDINAL="744" NAME="?SetTemplate@CAbListItem@@QAEXPB_W@Z" PURGE="4" COMMENT="" />
    <EXPORT ORDINAL="745" NAME="?SetText@CAddressWellElement@@QAEJPB_W@Z" PURGE="4" COMMENT="" />
    <EXPORT ORDINAL="746" NAME="?SetUIVisibleElements@CPeoplePickerElem@@UAEJH@Z" PURGE="4" COMMENT="" />
    <EXPORT ORDINAL="747" NAME="?SetView@CBuddyListCache@@QAEJG@Z" PURGE="4" COMMENT="" />
    <EXPORT ORDINAL="748" NAME="?SetViewToSettings@CContactElemBase@@KGXK@Z" PURGE="4" COMMENT="" />
    <EXPORT ORDINAL="749" NAME="?SetViews@CContactElemBase@@QAEJPAV?$DynamicArray@PAVValue@DirectUI@@@DirectUI@@@Z" PURGE="4" COMMENT="" />
    <EXPORT ORDINAL="750" NAME="?SetVisibleElements@CContactPickerDialog@@UAGJK@Z" PURGE="8" COMMENT="" />
    <EXPORT ORDINAL="751" NAME="?SetWordWheelUpdateEnabled@CContactElemBase@@UAEX_N@Z" PURGE="4" COMMENT="" />
    <EXPORT ORDINAL="752" NAME="?SetWordWheelValue@CViewFilter@@UAEJPB_W@Z" PURGE="4" COMMENT="" />
    <EXPORT ORDINAL="753" NAME="?Setup@CContactElemBase@@MAEJXZ" PURGE="0" COMMENT="" />
    <EXPORT ORDINAL="754" NAME="?ShouldClearOnReturn@CWordWheelElement@@MAE_NXZ" PURGE="0" COMMENT="" />
    <EXPORT ORDINAL="755" NAME="?ShouldForwardEvent@CListItemElement@@KG_NPBUEvent@DirectUI@@@Z" PURGE="4" COMMENT="" />
    <EXPORT ORDINAL="756" NAME="?ShouldInclude@CGroupViewFilter@@UAE_NPAUIStoreObject@@@Z" PURGE="4" COMMENT="" />
    <EXPORT ORDINAL="757" NAME="?ShouldInclude@CViewFilter@@UAE_NPAUIStoreObject@@@Z" PURGE="4" COMMENT="" />
    <EXPORT ORDINAL="758" NAME="?ShouldSelectFirstItemInWordWheel@CContactElemBase@@UAE_NXZ" PURGE="0" COMMENT="" />
    <EXPORT ORDINAL="759" NAME="?ShouldShowContextMenu@CCircleElement@@MAE_NXZ" PURGE="0" COMMENT="" />
    <EXPORT ORDINAL="760" NAME="?ShouldShowContextMenu@CContactElement@@MAE_NXZ" PURGE="0" COMMENT="" />
    <EXPORT ORDINAL="761" NAME="?ShouldShowContextMenu@CGroupElement@@MAE_NXZ" PURGE="0" COMMENT="" />
    <EXPORT ORDINAL="762" NAME="?ShowModal@CAddContactDialog@@UAGJPAH@Z" PURGE="8" COMMENT="" />
    <EXPORT ORDINAL="763" NAME="?ShowModal@CBaseCircleDialog@@UAGJPAH@Z" PURGE="8" COMMENT="" />
    <EXPORT ORDINAL="764" NAME="?ShowModal@CContactDialog@@UAGJPAH@Z" PURGE="8" COMMENT="" />
    <EXPORT ORDINAL="765" NAME="?ShowModal@CContactPickerDialog@@UAGJPAPAUIParticipantList@@@Z" PURGE="8" COMMENT="" />
    <EXPORT ORDINAL="766" NAME="?ShowModeless@CAddContactDialog@@UAGJXZ" PURGE="4" COMMENT="" />
    <EXPORT ORDINAL="767" NAME="?ShowModeless@CBaseCircleDialog@@UAGJXZ" PURGE="4" COMMENT="" />
    <EXPORT ORDINAL="768" NAME="?ShowModeless@CContactDialog@@UAGJXZ" PURGE="4" COMMENT="" />
    <EXPORT ORDINAL="769" NAME="?ShowModeless@CContactPickerDialog@@UAGJPAUIContactPickerListener@@@Z" PURGE="8" COMMENT="" />
    <EXPORT ORDINAL="770" NAME="?ShowMyProfile@Contacts@@YGJPAUHWND__@@@Z" PURGE="4" COMMENT="" />
    <EXPORT ORDINAL="771" NAME="?ShowOrHideMobilePhoneHelpString@CContactDialog@@MAEJW4EMarketType@@@Z" PURGE="4" COMMENT="" />
    <EXPORT ORDINAL="772" NAME="?ShowPopup@CABPopupMenu@@UAEJPAUtagPOINT@@PAVElement@DirectUI@@@Z" PURGE="8" COMMENT="" />
    <EXPORT ORDINAL="773" NAME="?ShowProfile@Contacts@@YGJPAUHWND__@@PAUISimpleContact@@@Z" PURGE="8" COMMENT="" />
    <EXPORT ORDINAL="774" NAME="?ShowProfile@Contacts@@YGJPAUHWND__@@_J@Z" PURGE="12" COMMENT="" />
    <EXPORT ORDINAL="775" NAME="?ShowZeroItemsUI@CPeoplePickerElem@@UAEJW4EZeroContactsElement@@@Z" PURGE="4" COMMENT="" />
    <EXPORT ORDINAL="776" NAME="?SubscribeToLiveContactProfile@Contacts@@YGJPAUISimpleContact@@@Z" PURGE="4" COMMENT="" />
    <EXPORT ORDINAL="777" NAME="?Synchronize@Contacts@@YGJW4ESyncTrigger@1@PAUIResultCallback@@@Z" PURGE="8" COMMENT="" />
    <EXPORT ORDINAL="778" NAME="?TemplateProp@CAddressWellElement@@2PAUPropertyInfo@DirectUI@@A" PURGE="-1" COMMENT="" />
    <EXPORT ORDINAL="779" NAME="TerminateUXContacts" PURGE="-1" COMMENT="" />
    <EXPORT ORDINAL="780" NAME="?TestFlags@CAbListItem@@UBE_NK@Z" PURGE="4" COMMENT="" />
    <EXPORT ORDINAL="781" NAME="?TransformValue@CUXTransformsBase@@UAGJPAUIUnknown@@HPAUtagVARIANT@@PAPAVValue@DirectUI@@@Z" PURGE="20" COMMENT="" />
    <EXPORT ORDINAL="782" NAME="UXContactsCreateObject" PURGE="12" COMMENT="" />
    <EXPORT ORDINAL="783" NAME="UXContactsInitProcess" PURGE="4" COMMENT="" />
    <EXPORT ORDINAL="784" NAME="UXContactsUnInitProcess" PURGE="0" COMMENT="" />
    <EXPORT ORDINAL="785" NAME="?UnSubscribeToLiveContactProfile@Contacts@@YGJPAUISimpleContact@@@Z" PURGE="4" COMMENT="" />
    <EXPORT ORDINAL="786" NAME="?UpdateContactWithGroupChange@CABPopupMenu@@KGJPAUISimpleContact@@@Z" PURGE="4" COMMENT="" />
    <EXPORT ORDINAL="787" NAME="?UpdateFilter@CPeoplePickerElem@@UAEJXZ" PURGE="0" COMMENT="" />
    <EXPORT ORDINAL="788" NAME="?UpdateList@CContactElemBase@@MAEJ_N@Z" PURGE="4" COMMENT="" />
    <EXPORT ORDINAL="789" NAME="?UpdateList@CContactElemBase@@UAEJPAUIABViewFilter@@_N@Z" PURGE="8" COMMENT="" />
    <EXPORT ORDINAL="790" NAME="?UpdateList@CPeoplePickerElem@@UAEJ_N@Z" PURGE="4" COMMENT="" />
    <EXPORT ORDINAL="791" NAME="?UpdatePolicy@Contacts@@YGJPB_W@Z" PURGE="-1" COMMENT="" />
    <EXPORT ORDINAL="792" NAME="?UpdateWordWheelText@CPeoplePickerElem@@UAEJW4ContactPickerFilter@@@Z" PURGE="4" COMMENT="" />
    <EXPORT ORDINAL="793" NAME="?ViewMap@Contacts@@YGJPAUISimpleContact@@W4EAddressType@@@Z" PURGE="8" COMMENT="" />
    <EXPORT ORDINAL="794" NAME="?ViewsProp@CContactElemBase@@2PAUPropertyInfo@DirectUI@@A" PURGE="-1" COMMENT="" />
    <EXPORT ORDINAL="795" NAME="?VisibleElementsProp@CPeoplePickerElem@@2PAUPropertyInfo@DirectUI@@A" PURGE="-1" COMMENT="" />
    <EXPORT ORDINAL="796" NAME="?WaitForPendingChanges@Contacts@@YGJPAUIResultCallback@@@Z" PURGE="-1" COMMENT="" />
    <EXPORT ORDINAL="797" NAME="?findCountryfromNumeric@CtryCode@@SGJKPA_WIPAK@Z" PURGE="16" COMMENT="" />
    <EXPORT ORDINAL="798" NAME="?findCtry@CtryCode@@SGJKPA_WIPAI@Z" PURGE="16" COMMENT="" />
    <EXPORT ORDINAL="799" NAME="?findCtry@CtryCode@@SGJPB_WPA_WIPAI@Z" PURGE="16" COMMENT="" />
    <EXPORT ORDINAL="800" NAME="?g_crgCharityDescMap@CDonationManager@@2QBUCHARITYDESC@1@B" PURGE="-1" COMMENT="" />
    <EXPORT ORDINAL="801" NAME="?g_nDefaultCharityId@CDonationManager@@2HB" PURGE="-1" COMMENT="" />
    <EXPORT ORDINAL="802" NAME="?g_wzDream10@CDonationManager@@2PA_WA" PURGE="-1" COMMENT="" />
    <EXPORT ORDINAL="803" NAME="?g_wzDream11@CDonationManager@@2PA_WA" PURGE="-1" COMMENT="" />
    <EXPORT ORDINAL="804" NAME="?g_wzDream12@CDonationManager@@2PA_WA" PURGE="-1" COMMENT="" />
    <EXPORT ORDINAL="805" NAME="?g_wzDream13@CDonationManager@@2PA_WA" PURGE="-1" COMMENT="" />
    <EXPORT ORDINAL="806" NAME="?g_wzDream14@CDonationManager@@2PA_WA" PURGE="-1" COMMENT="" />
    <EXPORT ORDINAL="807" NAME="?g_wzDream15@CDonationManager@@2PA_WA" PURGE="-1" COMMENT="" />
    <EXPORT ORDINAL="808" NAME="?g_wzDream16@CDonationManager@@2PA_WA" PURGE="-1" COMMENT="" />
    <EXPORT ORDINAL="809" NAME="?g_wzDream17@CDonationManager@@2PA_WA" PURGE="-1" COMMENT="" />
    <EXPORT ORDINAL="810" NAME="?g_wzDream1@CDonationManager@@2PA_WA" PURGE="-1" COMMENT="" />
    <EXPORT ORDINAL="811" NAME="?g_wzDream2@CDonationManager@@2PA_WA" PURGE="-1" COMMENT="" />
    <EXPORT ORDINAL="812" NAME="?g_wzDream3@CDonationManager@@2PA_WA" PURGE="-1" COMMENT="" />
    <EXPORT ORDINAL="813" NAME="?g_wzDream4@CDonationManager@@2PA_WA" PURGE="-1" COMMENT="" />
    <EXPORT ORDINAL="814" NAME="?g_wzDream5@CDonationManager@@2PA_WA" PURGE="-1" COMMENT="" />
    <EXPORT ORDINAL="815" NAME="?g_wzDream6@CDonationManager@@2PA_WA" PURGE="-1" COMMENT="" />
    <EXPORT ORDINAL="816" NAME="?g_wzDream7@CDonationManager@@2PA_WA" PURGE="-1" COMMENT="" />
    <EXPORT ORDINAL="817" NAME="?g_wzDream8@CDonationManager@@2PA_WA" PURGE="-1" COMMENT="" />
    <EXPORT ORDINAL="818" NAME="?g_wzDream9@CDonationManager@@2PA_WA" PURGE="-1" COMMENT="" />
    <EXPORT ORDINAL="819" NAME="?sm_strCountryCode@CPhoneRegUtil@@1V?$CStringT@_WV?$StrTraitATL@_WV?$ChTraitsCRT@_W@ATL@@@ATL@@@ATL@@A" PURGE="-1" COMMENT="" />
    <EXPORT ORDINAL="820" NAME="DllCanUnloadNow" PURGE="0" COMMENT="" />
    <EXPORT ORDINAL="821" NAME="DllGetClassObject" PURGE="12" COMMENT="" />
    <EXPORT ORDINAL="822" NAME="DllMain" PURGE="12" COMMENT="" />
    <EXPORT ORDINAL="823" NAME="DllRegisterServer" PURGE="0" COMMENT="" />
    <EXPORT ORDINAL="824" NAME="DllUnregisterServer" PURGE="0" COMMENT="" />
</LIBRARY>

