<?xml version="1.0" encoding="UTF-8"?>
<LIBRARY NAME="vbase100.dll" PATH="/DLLArchive/etc/vBase100.dll" DATE="Fri Jul 03 13:26:23 PDT 2020" VERSION="8, 1, 8, 0">
    <EXPORT ORDINAL="1" NAME="??0IVConstantBuffer@@QAE@XZ" PURGE="0" COMMENT="" />
    <EXPORT ORDINAL="2" NAME="??0IVInputDevice@@QAE@XZ" PURGE="0" COMMENT="" />
    <EXPORT ORDINAL="3" NAME="??0IVisionWindow@@QAE@ABVVWindowConfig@@@Z" PURGE="4" COMMENT="" />
    <EXPORT ORDINAL="4" NAME="??0ImageMap_cl@@QAE@ABV0@@Z" PURGE="4" COMMENT="" />
    <EXPORT ORDINAL="5" NAME="??0ImageMap_cl@@QAE@JJJPBE@Z" PURGE="16" COMMENT="" />
    <EXPORT ORDINAL="6" NAME="??0ImageMap_cl@@QAE@JJW4ColorDepth_e@@PBE@Z" PURGE="16" COMMENT="" />
    <EXPORT ORDINAL="7" NAME="??0ImageMap_cl@@QAE@XZ" PURGE="0" COMMENT="" />
    <EXPORT ORDINAL="8" NAME="??0Image_cl@@QAE@ABV0@@Z" PURGE="4" COMMENT="" />
    <EXPORT ORDINAL="9" NAME="??0Image_cl@@QAE@H@Z" PURGE="4" COMMENT="" />
    <EXPORT ORDINAL="10" NAME="??0Image_cl@@QAE@JJH@Z" PURGE="12" COMMENT="" />
    <EXPORT ORDINAL="11" NAME="??0RGBAStream@@QAE@XZ" PURGE="0" COMMENT="" />
    <EXPORT ORDINAL="12" NAME="??0TextureAnimInfo_t@@QAE@XZ" PURGE="0" COMMENT="" />
    <EXPORT ORDINAL="13" NAME="??0TiXmlAttribute@@QAE@PBD0@Z" PURGE="8" COMMENT="" />
    <EXPORT ORDINAL="14" NAME="??0TiXmlAttribute@@QAE@XZ" PURGE="0" COMMENT="" />
    <EXPORT ORDINAL="15" NAME="??0TiXmlAttributeSet@@QAE@XZ" PURGE="0" COMMENT="" />
    <EXPORT ORDINAL="16" NAME="??0TiXmlBase@@QAE@XZ" PURGE="0" COMMENT="" />
    <EXPORT ORDINAL="17" NAME="??0TiXmlComment@@QAE@ABV0@@Z" PURGE="4" COMMENT="" />
    <EXPORT ORDINAL="18" NAME="??0TiXmlComment@@QAE@PBD@Z" PURGE="4" COMMENT="" />
    <EXPORT ORDINAL="19" NAME="??0TiXmlComment@@QAE@XZ" PURGE="0" COMMENT="" />
    <EXPORT ORDINAL="20" NAME="??0TiXmlCursor@@QAE@XZ" PURGE="0" COMMENT="" />
    <EXPORT ORDINAL="21" NAME="??0TiXmlDeclaration@@QAE@ABV0@@Z" PURGE="4" COMMENT="" />
    <EXPORT ORDINAL="22" NAME="??0TiXmlDeclaration@@QAE@PBD00@Z" PURGE="12" COMMENT="" />
    <EXPORT ORDINAL="23" NAME="??0TiXmlDeclaration@@QAE@XZ" PURGE="0" COMMENT="" />
    <EXPORT ORDINAL="24" NAME="??0TiXmlDocument@@QAE@ABV0@@Z" PURGE="4" COMMENT="" />
    <EXPORT ORDINAL="25" NAME="??0TiXmlDocument@@QAE@PBD@Z" PURGE="4" COMMENT="" />
    <EXPORT ORDINAL="26" NAME="??0TiXmlDocument@@QAE@XZ" PURGE="0" COMMENT="" />
    <EXPORT ORDINAL="27" NAME="??0TiXmlElement@@QAE@ABV0@@Z" PURGE="4" COMMENT="" />
    <EXPORT ORDINAL="28" NAME="??0TiXmlElement@@QAE@PBD@Z" PURGE="4" COMMENT="" />
    <EXPORT ORDINAL="29" NAME="??0TiXmlHandle@@QAE@ABV0@@Z" PURGE="4" COMMENT="" />
    <EXPORT ORDINAL="30" NAME="??0TiXmlHandle@@QAE@PAVTiXmlNode@@@Z" PURGE="4" COMMENT="" />
    <EXPORT ORDINAL="31" NAME="??0TiXmlNode@@IAE@W4NodeType@0@@Z" PURGE="4" COMMENT="" />
    <EXPORT ORDINAL="32" NAME="??0TiXmlPrinter@@QAE@ABV0@@Z" PURGE="4" COMMENT="" />
    <EXPORT ORDINAL="33" NAME="??0TiXmlPrinter@@QAE@XZ" PURGE="0" COMMENT="" />
    <EXPORT ORDINAL="34" NAME="??0TiXmlString@@QAE@ABV0@@Z" PURGE="4" COMMENT="" />
    <EXPORT ORDINAL="35" NAME="??0TiXmlString@@QAE@PBD@Z" PURGE="4" COMMENT="" />
    <EXPORT ORDINAL="36" NAME="??0TiXmlString@@QAE@PBDI@Z" PURGE="8" COMMENT="" />
    <EXPORT ORDINAL="37" NAME="??0TiXmlString@@QAE@XZ" PURGE="0" COMMENT="" />
    <EXPORT ORDINAL="38" NAME="??0TiXmlText@@QAE@ABV0@@Z" PURGE="4" COMMENT="" />
    <EXPORT ORDINAL="39" NAME="??0TiXmlText@@QAE@PBD@Z" PURGE="4" COMMENT="" />
    <EXPORT ORDINAL="40" NAME="??0TiXmlUnknown@@QAE@ABV0@@Z" PURGE="4" COMMENT="" />
    <EXPORT ORDINAL="41" NAME="??0TiXmlUnknown@@QAE@XZ" PURGE="0" COMMENT="" />
    <EXPORT ORDINAL="42" NAME="??0TiXmlVisitor@@QAE@ABV0@@Z" PURGE="4" COMMENT="" />
    <EXPORT ORDINAL="43" NAME="??0TiXmlVisitor@@QAE@XZ" PURGE="0" COMMENT="" />
    <EXPORT ORDINAL="44" NAME="??0VARIABLE_LIST@@QAE@PBDH0@Z" PURGE="12" COMMENT="" />
    <EXPORT ORDINAL="45" NAME="??0VAction@@QAE@XZ" PURGE="0" COMMENT="" />
    <EXPORT ORDINAL="46" NAME="??0VActionManager@@QAE@XZ" PURGE="0" COMMENT="" />
    <EXPORT ORDINAL="47" NAME="??0VArchive@@QAE@PBDPAVIVFileInStream@@PAVIVFileOutStream@@PAVVTypeManager@@H@Z" PURGE="20" COMMENT="" />
    <EXPORT ORDINAL="48" NAME="??0VArchive@@QAE@PBDPAVIVFileInStream@@PAVVTypeManager@@H@Z" PURGE="16" COMMENT="" />
    <EXPORT ORDINAL="49" NAME="??0VArchive@@QAE@PBDPAVIVFileOutStream@@PAVVTypeManager@@H@Z" PURGE="16" COMMENT="" />
    <EXPORT ORDINAL="50" NAME="??0VArgList@@QAE@XZ" PURGE="0" COMMENT="" />
    <EXPORT ORDINAL="51" NAME="??0VBBox@@QAE@ABV0@@Z" PURGE="4" COMMENT="" />
    <EXPORT ORDINAL="52" NAME="??0VBBox@@QAE@ABVVVertex3d@@0@Z" PURGE="8" COMMENT="" />
    <EXPORT ORDINAL="53" NAME="??0VBBox@@QAE@NNNNNN@Z" PURGE="48" COMMENT="" />
    <EXPORT ORDINAL="54" NAME="??0VBBox@@QAE@XZ" PURGE="0" COMMENT="" />
    <EXPORT ORDINAL="55" NAME="??0VBBox@@QAE@_N@Z" PURGE="4" COMMENT="" />
    <EXPORT ORDINAL="56" NAME="??0VBBoxOctree@@QAE@XZ" PURGE="0" COMMENT="" />
    <EXPORT ORDINAL="57" NAME="??0VBBoxOctreeNode@@QAE@AAVVBBoxf@@@Z" PURGE="4" COMMENT="" />
    <EXPORT ORDINAL="58" NAME="??0VBackgroundThread@@QAE@W4VThreadPriority@@PBDI@Z" PURGE="12" COMMENT="" />
    <EXPORT ORDINAL="59" NAME="??0VCallback@@QAE@HPAVIVisCallbackDataObject_cl@@@Z" PURGE="8" COMMENT="" />
    <EXPORT ORDINAL="60" NAME="??0VCallbackSenderQueue@@QAE@_N@Z" PURGE="4" COMMENT="" />
    <EXPORT ORDINAL="61" NAME="??0VChunkFile@@QAE@XZ" PURGE="0" COMMENT="" />
    <EXPORT ORDINAL="62" NAME="??0VClipboard@@QAE@PBD@Z" PURGE="4" COMMENT="" />
    <EXPORT ORDINAL="63" NAME="??0VCollisionData@@QAE@XZ" PURGE="0" COMMENT="" />
    <EXPORT ORDINAL="64" NAME="??0VCollisionNode@@QAE@XZ" PURGE="0" COMMENT="" />
    <EXPORT ORDINAL="65" NAME="??0VCollisionSurface@@QAE@PBD@Z" PURGE="4" COMMENT="" />
    <EXPORT ORDINAL="66" NAME="??0VCollisionSurface@@QAE@XZ" PURGE="0" COMMENT="" />
    <EXPORT ORDINAL="67" NAME="??0VCommandManager@@QAE@XZ" PURGE="0" COMMENT="" />
    <EXPORT ORDINAL="68" NAME="??0VCommandType@@QAE@P6AHXZ0PBD111PAUVModule@@@Z" PURGE="28" COMMENT="" />
    <EXPORT ORDINAL="69" NAME="??0VCompiledEffect@@QAE@PAVVShaderEffectResource@@PBDH@Z" PURGE="12" COMMENT="" />
    <EXPORT ORDINAL="70" NAME="??0VCompiledShaderManager@@QAE@AAVIVTextureLoader@@AAVVTypeManager@@@Z" PURGE="8" COMMENT="" />
    <EXPORT ORDINAL="71" NAME="??0VCompiledShaderPass@@QAE@XZ" PURGE="0" COMMENT="" />
    <EXPORT ORDINAL="72" NAME="??0VCompositeParam@@QAE@XZ" PURGE="0" COMMENT="" />
    <EXPORT ORDINAL="73" NAME="??0VDiskFileStreamManager@@QAE@XZ" PURGE="0" COMMENT="" />
    <EXPORT ORDINAL="74" NAME="??0VEnsureRenderingAllowedInScope@@QAE@XZ" PURGE="0" COMMENT="" />
    <EXPORT ORDINAL="75" NAME="??0VFileData@@QAE@ABV0@@Z" PURGE="4" COMMENT="" />
    <EXPORT ORDINAL="76" NAME="??0VFileData@@QAE@XZ" PURGE="0" COMMENT="" />
    <EXPORT ORDINAL="77" NAME="??0VFileTime@@QAE@ABU0@@Z" PURGE="4" COMMENT="" />
    <EXPORT ORDINAL="78" NAME="??0VFileTime@@QAE@HHHHHH@Z" PURGE="24" COMMENT="" />
    <EXPORT ORDINAL="79" NAME="??0VFileTime@@QAE@XZ" PURGE="0" COMMENT="" />
    <EXPORT ORDINAL="80" NAME="??0VFileTime@@QAE@_J@Z" PURGE="8" COMMENT="" />
    <EXPORT ORDINAL="81" NAME="??0VGUID@@QAE@IGGEEEEEEEE@Z" PURGE="44" COMMENT="" />
    <EXPORT ORDINAL="82" NAME="??0VGUID@@QAE@XZ" PURGE="0" COMMENT="" />
    <EXPORT ORDINAL="83" NAME="??0VGamepadPC@@QAE@H@Z" PURGE="4" COMMENT="" />
    <EXPORT ORDINAL="84" NAME="??0VGamepadXI@@QAE@H@Z" PURGE="4" COMMENT="" />
    <EXPORT ORDINAL="85" NAME="??0VHashString@@QAE@ABVVString@@@Z" PURGE="4" COMMENT="" />
    <EXPORT ORDINAL="86" NAME="??0VHashString@@QAE@PBD@Z" PURGE="4" COMMENT="" />
    <EXPORT ORDINAL="87" NAME="??0VHashString@@QAE@XZ" PURGE="0" COMMENT="" />
    <EXPORT ORDINAL="88" NAME="??0VImageComparison@@QAE@ABV0@@Z" PURGE="4" COMMENT="" />
    <EXPORT ORDINAL="89" NAME="??0VImageComparison@@QAE@XZ" PURGE="0" COMMENT="" />
    <EXPORT ORDINAL="90" NAME="??0VInputMap@@QAE@HH@Z" PURGE="8" COMMENT="" />
    <EXPORT ORDINAL="91" NAME="??0VKeyboardPC@@QAE@XZ" PURGE="0" COMMENT="" />
    <EXPORT ORDINAL="92" NAME="??0VLightGridDetailBoxCollection_cl@@QAE@XZ" PURGE="0" COMMENT="" />
    <EXPORT ORDINAL="93" NAME="??0VLightGridLoader_cl@@QAE@PAVVLightGrid_cl@@@Z" PURGE="4" COMMENT="" />
    <EXPORT ORDINAL="94" NAME="??0VLightGrid_cl@@QAE@PAVVResourceManager@@@Z" PURGE="4" COMMENT="" />
    <EXPORT ORDINAL="95" NAME="??0VLightmapPrimitive@@QAE@XZ" PURGE="0" COMMENT="" />
    <EXPORT ORDINAL="96" NAME="??0VLightmapSceneInfo@@QAE@XZ" PURGE="0" COMMENT="" />
    <EXPORT ORDINAL="97" NAME="??0VLine@@QAE@ABV0@@Z" PURGE="4" COMMENT="" />
    <EXPORT ORDINAL="98" NAME="??0VLine@@QAE@ABVVVertex3d@@0@Z" PURGE="8" COMMENT="" />
    <EXPORT ORDINAL="99" NAME="??0VLine@@QAE@XZ" PURGE="0" COMMENT="" />
    <EXPORT ORDINAL="100" NAME="??0VLoadingTask@@QAE@PAVVMemoryStreamManager@@PBDPAVIVFileStreamManager@@@Z" PURGE="12" COMMENT="" />
    <EXPORT ORDINAL="101" NAME="??0VManagedResource@@QAE@PAVVResourceManager@@@Z" PURGE="4" COMMENT="" />
    <EXPORT ORDINAL="102" NAME="??0VMapCPtrToCPtr@@QAE@ABV0@@Z" PURGE="4" COMMENT="" />
    <EXPORT ORDINAL="103" NAME="??0VMapCPtrToCPtr@@QAE@H@Z" PURGE="4" COMMENT="" />
    <EXPORT ORDINAL="104" NAME="??0VMapCPtrToInt@@QAE@ABV0@@Z" PURGE="4" COMMENT="" />
    <EXPORT ORDINAL="105" NAME="??0VMapCPtrToInt@@QAE@H@Z" PURGE="4" COMMENT="" />
    <EXPORT ORDINAL="106" NAME="??0VMapCPtrToPtr@@QAE@ABV0@@Z" PURGE="4" COMMENT="" />
    <EXPORT ORDINAL="107" NAME="??0VMapCPtrToPtr@@QAE@H@Z" PURGE="4" COMMENT="" />
    <EXPORT ORDINAL="108" NAME="??0VMapIntToInt@@QAE@ABV0@@Z" PURGE="4" COMMENT="" />
    <EXPORT ORDINAL="109" NAME="??0VMapIntToInt@@QAE@H@Z" PURGE="4" COMMENT="" />
    <EXPORT ORDINAL="110" NAME="??0VMapIntToPtr@@QAE@ABV0@@Z" PURGE="4" COMMENT="" />
    <EXPORT ORDINAL="111" NAME="??0VMapIntToPtr@@QAE@H@Z" PURGE="4" COMMENT="" />
    <EXPORT ORDINAL="112" NAME="??0VMapPtrToInt@@QAE@ABV0@@Z" PURGE="4" COMMENT="" />
    <EXPORT ORDINAL="113" NAME="??0VMapPtrToInt@@QAE@H@Z" PURGE="4" COMMENT="" />
    <EXPORT ORDINAL="114" NAME="??0VMapPtrToPtr@@QAE@ABV0@@Z" PURGE="4" COMMENT="" />
    <EXPORT ORDINAL="115" NAME="??0VMapPtrToPtr@@QAE@H@Z" PURGE="4" COMMENT="" />
    <EXPORT ORDINAL="116" NAME="??0VMapPtrToUInt@@QAE@ABV0@@Z" PURGE="4" COMMENT="" />
    <EXPORT ORDINAL="117" NAME="??0VMapPtrToUInt@@QAE@H@Z" PURGE="4" COMMENT="" />
    <EXPORT ORDINAL="118" NAME="??0VMapStrToPtr@@QAE@H@Z" PURGE="4" COMMENT="" />
    <EXPORT ORDINAL="119" NAME="??0VMappedAxis@@QAE@AAVIVInputDevice@@II@Z" PURGE="12" COMMENT="" />
    <EXPORT ORDINAL="120" NAME="??0VMappedConstant@@QAE@M@Z" PURGE="4" COMMENT="" />
    <EXPORT ORDINAL="121" NAME="??0VMappedInput@@QAE@XZ" PURGE="0" COMMENT="" />
    <EXPORT ORDINAL="122" NAME="??0VMappedValue@@QAE@AAVIVInputDevice@@I@Z" PURGE="8" COMMENT="" />
    <EXPORT ORDINAL="123" NAME="??0VMappedValueSingleHit@@QAE@AAVIVInputDevice@@IW4VSingleHitType@@@Z" PURGE="12" COMMENT="" />
    <EXPORT ORDINAL="124" NAME="??0VMappedValueSingleHitPerFrame@@QAE@AAVIVInputDevice@@IW4VSingleHitType@@@Z" PURGE="12" COMMENT="" />
    <EXPORT ORDINAL="125" NAME="??0VMatrix4d@@QAE@ABV0@@Z" PURGE="4" COMMENT="" />
    <EXPORT ORDINAL="126" NAME="??0VMatrix4d@@QAE@ABVVQuat@@@Z" PURGE="4" COMMENT="" />
    <EXPORT ORDINAL="127" NAME="??0VMatrix4d@@QAE@QAY02N@Z" PURGE="4" COMMENT="" />
    <EXPORT ORDINAL="128" NAME="??0VMatrix4d@@QAE@XZ" PURGE="0" COMMENT="" />
    <EXPORT ORDINAL="129" NAME="??0VMatrix4d@@QAE@_N@Z" PURGE="4" COMMENT="" />
    <EXPORT ORDINAL="130" NAME="??0VMatrix4f@@QAE@ABV0@@Z" PURGE="4" COMMENT="" />
    <EXPORT ORDINAL="131" NAME="??0VMatrix4f@@QAE@ABVVQuat@@@Z" PURGE="4" COMMENT="" />
    <EXPORT ORDINAL="132" NAME="??0VMatrix4f@@QAE@QAY02M@Z" PURGE="4" COMMENT="" />
    <EXPORT ORDINAL="133" NAME="??0VMatrix4f@@QAE@XZ" PURGE="0" COMMENT="" />
    <EXPORT ORDINAL="134" NAME="??0VMatrix4f@@QAE@_N@Z" PURGE="4" COMMENT="" />
    <EXPORT ORDINAL="135" NAME="??0VMemBlockWrapperStream@@QAE@PBXH@Z" PURGE="8" COMMENT="" />
    <EXPORT ORDINAL="136" NAME="??0VMemoryInStream@@QAE@PAVIVFileStreamManager@@PAVVMemoryStream@@@Z" PURGE="8" COMMENT="" />
    <EXPORT ORDINAL="137" NAME="??0VMemoryOutStream@@QAE@PAVIVFileStreamManager@@PAVVMemoryStream@@@Z" PURGE="8" COMMENT="" />
    <EXPORT ORDINAL="138" NAME="??0VMemoryStream@@QAE@PBDH@Z" PURGE="8" COMMENT="" />
    <EXPORT ORDINAL="139" NAME="??0VMemoryStreamManager@@QAE@PBDHH@Z" PURGE="12" COMMENT="" />
    <EXPORT ORDINAL="140" NAME="??0VMessage@@QAE@H@Z" PURGE="4" COMMENT="" />
    <EXPORT ORDINAL="141" NAME="??0VMessage@@QAE@HH@Z" PURGE="8" COMMENT="" />
    <EXPORT ORDINAL="142" NAME="??0VMessage@@QAE@XZ" PURGE="0" COMMENT="" />
    <EXPORT ORDINAL="143" NAME="??0VModuleCleanup@@AAE@XZ" PURGE="0" COMMENT="" />
    <EXPORT ORDINAL="144" NAME="??0VModuleCleanup@@QAE@PAUVModule@@@Z" PURGE="4" COMMENT="" />
    <EXPORT ORDINAL="145" NAME="??0VModuleInfo@@QAE@PBD00@Z" PURGE="12" COMMENT="" />
    <EXPORT ORDINAL="146" NAME="??0VModuleInfoList@@QAE@XZ" PURGE="0" COMMENT="" />
    <EXPORT ORDINAL="147" NAME="??0VMousePC@@QAE@XZ" PURGE="0" COMMENT="" />
    <EXPORT ORDINAL="148" NAME="??0VPList@@QAE@ABV0@@Z" PURGE="4" COMMENT="" />
    <EXPORT ORDINAL="149" NAME="??0VPList@@QAE@H@Z" PURGE="4" COMMENT="" />
    <EXPORT ORDINAL="150" NAME="??0VPList@@QAE@XZ" PURGE="0" COMMENT="" />
    <EXPORT ORDINAL="151" NAME="??0VParam@@QAE@ABV0@@Z" PURGE="4" COMMENT="" />
    <EXPORT ORDINAL="152" NAME="??0VParam@@QAE@XZ" PURGE="0" COMMENT="" />
    <EXPORT ORDINAL="153" NAME="??0VParamArray@@QAE@XZ" PURGE="0" COMMENT="" />
    <EXPORT ORDINAL="154" NAME="??0VParamBlock@@QAE@XZ" PURGE="0" COMMENT="" />
    <EXPORT ORDINAL="155" NAME="??0VParamContainer@@IAE@XZ" PURGE="0" COMMENT="" />
    <EXPORT ORDINAL="156" NAME="??0VParamContainerBase@@IAE@XZ" PURGE="0" COMMENT="" />
    <EXPORT ORDINAL="157" NAME="??0VParamDesc@@QAA@HZZ" PURGE="0" COMMENT="" />
    <EXPORT ORDINAL="158" NAME="??0VParamDesc@@QAE@XZ" PURGE="0" COMMENT="" />
    <EXPORT ORDINAL="159" NAME="??0VParamExpression@@QAE@PBD@Z" PURGE="4" COMMENT="" />
    <EXPORT ORDINAL="160" NAME="??0VPlane4d@@QAE@ABVVVertex3d@@00@Z" PURGE="12" COMMENT="" />
    <EXPORT ORDINAL="161" NAME="??0VPlane4d@@QAE@ABVVVertex3d@@0@Z" PURGE="8" COMMENT="" />
    <EXPORT ORDINAL="162" NAME="??0VPlane4d@@QAE@NNNN@Z" PURGE="32" COMMENT="" />
    <EXPORT ORDINAL="163" NAME="??0VPlane4d@@QAE@XZ" PURGE="0" COMMENT="" />
    <EXPORT ORDINAL="164" NAME="??0VPolygon@@QAE@HPBVVVertex3d@@@Z" PURGE="8" COMMENT="" />
    <EXPORT ORDINAL="165" NAME="??0VPolygon@@QAE@NNNNNNNNN@Z" PURGE="72" COMMENT="" />
    <EXPORT ORDINAL="166" NAME="??0VPolygon@@QAE@NNNNNNNNNNNN@Z" PURGE="96" COMMENT="" />
    <EXPORT ORDINAL="167" NAME="??0VPolygon@@QAE@XZ" PURGE="0" COMMENT="" />
    <EXPORT ORDINAL="168" NAME="??0VProfilingNode@@QAE@PAV0@PBDHH@Z" PURGE="16" COMMENT="" />
    <EXPORT ORDINAL="169" NAME="??0VProgressStatus@@QAE@XZ" PURGE="0" COMMENT="" />
    <EXPORT ORDINAL="170" NAME="??0VReceiver@@QAE@P6AXPAV0@@ZPAX@Z" PURGE="8" COMMENT="" />
    <EXPORT ORDINAL="171" NAME="??0VReceiver@@QAE@XZ" PURGE="0" COMMENT="" />
    <EXPORT ORDINAL="172" NAME="??0VRefTarget@@IAE@XZ" PURGE="0" COMMENT="" />
    <EXPORT ORDINAL="173" NAME="??0VReport@@QAE@XZ" PURGE="0" COMMENT="" />
    <EXPORT ORDINAL="174" NAME="??0VResourceManager@@QAE@PBDHH@Z" PURGE="12" COMMENT="" />
    <EXPORT ORDINAL="175" NAME="??0VResourceSnapshot@@QAE@W4VUsageType_e@0@@Z" PURGE="4" COMMENT="" />
    <EXPORT ORDINAL="176" NAME="??0VResourceSnapshotQueue@@QAE@XZ" PURGE="0" COMMENT="" />
    <EXPORT ORDINAL="177" NAME="??0VShaderEffectLib@@QAE@PAVVResourceManager@@PBD@Z" PURGE="8" COMMENT="" />
    <EXPORT ORDINAL="178" NAME="??0VShaderEnum@@QAE@XZ" PURGE="0" COMMENT="" />
    <EXPORT ORDINAL="179" NAME="??0VShaderIncludeManager@@QAE@PBDHH@Z" PURGE="12" COMMENT="" />
    <EXPORT ORDINAL="180" NAME="??0VShaderParamCollection@@QAE@XZ" PURGE="0" COMMENT="" />
    <EXPORT ORDINAL="181" NAME="??0VShaderPassResource@@QAE@PAVVShaderEffectLib@@@Z" PURGE="4" COMMENT="" />
    <EXPORT ORDINAL="182" NAME="??0VShaderProgramResource@@QAE@XZ" PURGE="0" COMMENT="" />
    <EXPORT ORDINAL="183" NAME="??0VSimpleCollisionMesh32@@QAE@HH@Z" PURGE="8" COMMENT="" />
    <EXPORT ORDINAL="184" NAME="??0VSimpleCollisionMesh@@QAE@HH@Z" PURGE="8" COMMENT="" />
    <EXPORT ORDINAL="185" NAME="??0VSimpleCollisionMeshBase@@QAE@HH@Z" PURGE="8" COMMENT="" />
    <EXPORT ORDINAL="186" NAME="??0VSmallBlockMemoryManager@@QAE@_N@Z" PURGE="4" COMMENT="" />
    <EXPORT ORDINAL="187" NAME="??0VStrRef@@QAE@ABV0@@Z" PURGE="4" COMMENT="" />
    <EXPORT ORDINAL="188" NAME="??0VStrRef@@QAE@PBD_N@Z" PURGE="8" COMMENT="" />
    <EXPORT ORDINAL="189" NAME="??0VStrRef@@QAE@XZ" PURGE="0" COMMENT="" />
    <EXPORT ORDINAL="190" NAME="??0VStreamProcessingTask@@QAE@XZ" PURGE="0" COMMENT="" />
    <EXPORT ORDINAL="191" NAME="??0VString@@QAE@ABV0@@Z" PURGE="4" COMMENT="" />
    <EXPORT ORDINAL="192" NAME="??0VString@@QAE@D@Z" PURGE="4" COMMENT="" />
    <EXPORT ORDINAL="193" NAME="??0VString@@QAE@PBD@Z" PURGE="4" COMMENT="" />
    <EXPORT ORDINAL="194" NAME="??0VStringTokenizer@@QAE@PBD0@Z" PURGE="8" COMMENT="" />
    <EXPORT ORDINAL="195" NAME="??0VStringTokenizerInPlace@@QAE@PADD_N@Z" PURGE="12" COMMENT="" />
    <EXPORT ORDINAL="196" NAME="??0VSurfaceFXConfig@@QAE@XZ" PURGE="0" COMMENT="" />
    <EXPORT ORDINAL="197" NAME="??0VTestClass@@QAE@XZ" PURGE="0" COMMENT="" />
    <EXPORT ORDINAL="198" NAME="??0VTestUnit@@QAE@PBD0@Z" PURGE="8" COMMENT="" />
    <EXPORT ORDINAL="199" NAME="??0VTexAnimInfo@@QAE@XZ" PURGE="0" COMMENT="" />
    <EXPORT ORDINAL="200" NAME="??0VTexture3DObject@@QAE@PAVVResourceManager@@@Z" PURGE="4" COMMENT="" />
    <EXPORT ORDINAL="201" NAME="??0VTextureCubeObject@@QAE@PAVVResourceManager@@@Z" PURGE="4" COMMENT="" />
    <EXPORT ORDINAL="202" NAME="??0VTextureLoader@@QAE@XZ" PURGE="0" COMMENT="" />
    <EXPORT ORDINAL="203" NAME="??0VTextureManager@@QAE@PBD@Z" PURGE="4" COMMENT="" />
    <EXPORT ORDINAL="204" NAME="??0VTextureObject@@QAE@PAVVResourceManager@@@Z" PURGE="4" COMMENT="" />
    <EXPORT ORDINAL="205" NAME="??0VThreadManager@@QAE@XZ" PURGE="0" COMMENT="" />
    <EXPORT ORDINAL="206" NAME="??0VThreadedTask@@QAE@XZ" PURGE="0" COMMENT="" />
    <EXPORT ORDINAL="207" NAME="??0VTypeManager@@QAE@XZ" PURGE="0" COMMENT="" />
    <EXPORT ORDINAL="208" NAME="??0VTypedObject@@IAE@XZ" PURGE="0" COMMENT="" />
    <EXPORT ORDINAL="209" NAME="??0VTypedObjectReference@@QAE@PAVVTypedObject@@@Z" PURGE="4" COMMENT="" />
    <EXPORT ORDINAL="210" NAME="??0VTypedObjectReference@@QAE@PAVVTypedObject@@PAUVType@@@Z" PURGE="8" COMMENT="" />
    <EXPORT ORDINAL="211" NAME="??0VTypedObjectReference@@QAE@XZ" PURGE="0" COMMENT="" />
    <EXPORT ORDINAL="212" NAME="??0VUndoRedoStack@@QAE@H@Z" PURGE="4" COMMENT="" />
    <EXPORT ORDINAL="213" NAME="??0VUniString@@QAE@ABV0@@Z" PURGE="4" COMMENT="" />
    <EXPORT ORDINAL="214" NAME="??0VUniString@@QAE@PB_W@Z" PURGE="4" COMMENT="" />
    <EXPORT ORDINAL="215" NAME="??0VUniString@@QAE@_W@Z" PURGE="4" COMMENT="" />
    <EXPORT ORDINAL="216" NAME="??0VVertex3d@@QAE@ABV0@@Z" PURGE="4" COMMENT="" />
    <EXPORT ORDINAL="217" NAME="??0VVertex3d@@QAE@ABVVVertex3f@@@Z" PURGE="4" COMMENT="" />
    <EXPORT ORDINAL="218" NAME="??0VVertex3d@@QAE@HHH@Z" PURGE="12" COMMENT="" />
    <EXPORT ORDINAL="219" NAME="??0VVertex3d@@QAE@MMM@Z" PURGE="12" COMMENT="" />
    <EXPORT ORDINAL="220" NAME="??0VVertex3d@@QAE@NNN@Z" PURGE="24" COMMENT="" />
    <EXPORT ORDINAL="221" NAME="??0VVertex3d@@QAE@XZ" PURGE="0" COMMENT="" />
    <EXPORT ORDINAL="222" NAME="??0VVertex3d@@QAE@_N@Z" PURGE="4" COMMENT="" />
    <EXPORT ORDINAL="223" NAME="??0VVideoConfig@@QAE@ABUVVideoMode@@@Z" PURGE="4" COMMENT="" />
    <EXPORT ORDINAL="224" NAME="??0VVideoConfig@@QAE@HH@Z" PURGE="8" COMMENT="" />
    <EXPORT ORDINAL="225" NAME="??0VWindowConfig@@QAE@XZ" PURGE="0" COMMENT="" />
    <EXPORT ORDINAL="226" NAME="??0VZipFileStreamManager@@QAE@XZ" PURGE="0" COMMENT="" />
    <EXPORT ORDINAL="227" NAME="??0V_REGISTER_CLASS@@QAE@PAUVType@@@Z" PURGE="4" COMMENT="" />
    <EXPORT ORDINAL="228" NAME="??0VisTextureLoadingDataObject_cl@@QAE@PAVVTextureManager@@PAVVCallback@@PBDH@Z" PURGE="16" COMMENT="" />
    <EXPORT ORDINAL="229" NAME="??0VisVariable_cl@@QAE@XZ" PURGE="0" COMMENT="" />
    <EXPORT ORDINAL="230" NAME="??0VisionWindowA@@QAE@ABVVWindowConfig@@@Z" PURGE="4" COMMENT="" />
    <EXPORT ORDINAL="231" NAME="??0VisionWindowW@@QAE@ABVVWindowConfig@@@Z" PURGE="4" COMMENT="" />
    <EXPORT ORDINAL="232" NAME="??0vPlatformStubBase@@QAE@ABV0@@Z" PURGE="4" COMMENT="" />
    <EXPORT ORDINAL="233" NAME="??0vPlatformStubBase@@QAE@XZ" PURGE="0" COMMENT="" />
    <EXPORT ORDINAL="234" NAME="??0vPlatformStubDX11@@QAE@ABV0@@Z" PURGE="4" COMMENT="" />
    <EXPORT ORDINAL="235" NAME="??0vPlatformStubDX11@@QAE@XZ" PURGE="0" COMMENT="" />
    <EXPORT ORDINAL="236" NAME="??0vPlatformStubDX9@@QAE@ABV0@@Z" PURGE="4" COMMENT="" />
    <EXPORT ORDINAL="237" NAME="??0vPlatformStubDX9@@QAE@XZ" PURGE="0" COMMENT="" />
    <EXPORT ORDINAL="238" NAME="??0vPlatformStubGLES2@@QAE@ABV0@@Z" PURGE="4" COMMENT="" />
    <EXPORT ORDINAL="239" NAME="??0vPlatformStubGLES2@@QAE@XZ" PURGE="0" COMMENT="" />
    <EXPORT ORDINAL="240" NAME="??0vPlatformStubLinux@@QAE@ABV0@@Z" PURGE="4" COMMENT="" />
    <EXPORT ORDINAL="241" NAME="??0vPlatformStubLinux@@QAE@XZ" PURGE="0" COMMENT="" />
    <EXPORT ORDINAL="242" NAME="??0vPlatformStubPS3@@QAE@ABV0@@Z" PURGE="4" COMMENT="" />
    <EXPORT ORDINAL="243" NAME="??0vPlatformStubPS3@@QAE@XZ" PURGE="0" COMMENT="" />
    <EXPORT ORDINAL="244" NAME="??0vPlatformStubPSP2@@QAE@ABV0@@Z" PURGE="4" COMMENT="" />
    <EXPORT ORDINAL="245" NAME="??0vPlatformStubPSP2@@QAE@XZ" PURGE="0" COMMENT="" />
    <EXPORT ORDINAL="246" NAME="??0vPlatformStubWii@@QAE@ABV0@@Z" PURGE="4" COMMENT="" />
    <EXPORT ORDINAL="247" NAME="??0vPlatformStubWii@@QAE@XZ" PURGE="0" COMMENT="" />
    <EXPORT ORDINAL="248" NAME="??0vPlatformStubXbox360@@QAE@ABV0@@Z" PURGE="4" COMMENT="" />
    <EXPORT ORDINAL="249" NAME="??0vPlatformStubXbox360@@QAE@XZ" PURGE="0" COMMENT="" />
    <EXPORT ORDINAL="250" NAME="??1IVFilePathResolver@@UAE@XZ" PURGE="0" COMMENT="" />
    <EXPORT ORDINAL="251" NAME="??1IVFileStreamManager@@UAE@XZ" PURGE="0" COMMENT="" />
    <EXPORT ORDINAL="252" NAME="??1IVInputDevice@@UAE@XZ" PURGE="0" COMMENT="" />
    <EXPORT ORDINAL="253" NAME="??1IVObjectInstanceFactory@@UAE@XZ" PURGE="0" COMMENT="" />
    <EXPORT ORDINAL="254" NAME="??1IVSerializationBinder@@UAE@XZ" PURGE="0" COMMENT="" />
    <EXPORT ORDINAL="255" NAME="??1IVSerializationProxyCreator@@UAE@XZ" PURGE="0" COMMENT="" />
    <EXPORT ORDINAL="256" NAME="??1ImageMap_cl@@QAE@XZ" PURGE="0" COMMENT="" />
    <EXPORT ORDINAL="257" NAME="??1Image_cl@@UAE@XZ" PURGE="0" COMMENT="" />
    <EXPORT ORDINAL="258" NAME="??1TiXmlAttribute@@UAE@XZ" PURGE="0" COMMENT="" />
    <EXPORT ORDINAL="259" NAME="??1TiXmlAttributeSet@@QAE@XZ" PURGE="0" COMMENT="" />
    <EXPORT ORDINAL="260" NAME="??1TiXmlBase@@UAE@XZ" PURGE="0" COMMENT="" />
    <EXPORT ORDINAL="261" NAME="??1TiXmlComment@@UAE@XZ" PURGE="0" COMMENT="" />
    <EXPORT ORDINAL="262" NAME="??1TiXmlDeclaration@@UAE@XZ" PURGE="0" COMMENT="" />
    <EXPORT ORDINAL="263" NAME="??1TiXmlDocument@@UAE@XZ" PURGE="0" COMMENT="" />
    <EXPORT ORDINAL="264" NAME="??1TiXmlElement@@UAE@XZ" PURGE="0" COMMENT="" />
    <EXPORT ORDINAL="265" NAME="??1TiXmlNode@@UAE@XZ" PURGE="0" COMMENT="" />
    <EXPORT ORDINAL="266" NAME="??1TiXmlPrinter@@UAE@XZ" PURGE="0" COMMENT="" />
    <EXPORT ORDINAL="267" NAME="??1TiXmlString@@QAE@XZ" PURGE="0" COMMENT="" />
    <EXPORT ORDINAL="268" NAME="??1TiXmlText@@UAE@XZ" PURGE="0" COMMENT="" />
    <EXPORT ORDINAL="269" NAME="??1TiXmlUnknown@@UAE@XZ" PURGE="0" COMMENT="" />
    <EXPORT ORDINAL="270" NAME="??1TiXmlVisitor@@UAE@XZ" PURGE="0" COMMENT="" />
    <EXPORT ORDINAL="271" NAME="??1VARIABLE_LIST@@QAE@XZ" PURGE="0" COMMENT="" />
    <EXPORT ORDINAL="272" NAME="??1VAction@@UAE@XZ" PURGE="0" COMMENT="" />
    <EXPORT ORDINAL="273" NAME="??1VActionManager@@QAE@XZ" PURGE="0" COMMENT="" />
    <EXPORT ORDINAL="274" NAME="??1VArchive@@UAE@XZ" PURGE="0" COMMENT="" />
    <EXPORT ORDINAL="275" NAME="??1VArchiveException@@UAE@XZ" PURGE="0" COMMENT="" />
    <EXPORT ORDINAL="276" NAME="??1VArgList@@QAE@XZ" PURGE="0" COMMENT="" />
    <EXPORT ORDINAL="277" NAME="??1VBBoxOctree@@QAE@XZ" PURGE="0" COMMENT="" />
    <EXPORT ORDINAL="278" NAME="??1VBBoxOctreeNode@@QAE@XZ" PURGE="0" COMMENT="" />
    <EXPORT ORDINAL="279" NAME="??1VBackgroundThread@@UAE@XZ" PURGE="0" COMMENT="" />
    <EXPORT ORDINAL="280" NAME="??1VCallbackSenderQueue@@QAE@XZ" PURGE="0" COMMENT="" />
    <EXPORT ORDINAL="281" NAME="??1VChunkFile@@UAE@XZ" PURGE="0" COMMENT="" />
    <EXPORT ORDINAL="282" NAME="??1VCollisionData@@UAE@XZ" PURGE="0" COMMENT="" />
    <EXPORT ORDINAL="283" NAME="??1VCollisionNode@@QAE@XZ" PURGE="0" COMMENT="" />
    <EXPORT ORDINAL="284" NAME="??1VCollisionSurface@@QAE@XZ" PURGE="0" COMMENT="" />
    <EXPORT ORDINAL="285" NAME="??1VCompiledEffect@@UAE@XZ" PURGE="0" COMMENT="" />
    <EXPORT ORDINAL="286" NAME="??1VCompiledShaderManager@@UAE@XZ" PURGE="0" COMMENT="" />
    <EXPORT ORDINAL="287" NAME="??1VCompiledShaderPass@@UAE@XZ" PURGE="0" COMMENT="" />
    <EXPORT ORDINAL="288" NAME="??1VCompiledTechnique@@UAE@XZ" PURGE="0" COMMENT="" />
    <EXPORT ORDINAL="289" NAME="??1VCompositeParam@@UAE@XZ" PURGE="0" COMMENT="" />
    <EXPORT ORDINAL="290" NAME="??1VDiskFileStreamManager@@UAE@XZ" PURGE="0" COMMENT="" />
    <EXPORT ORDINAL="291" NAME="??1VEnsureRenderingAllowedInScope@@QAE@XZ" PURGE="0" COMMENT="" />
    <EXPORT ORDINAL="292" NAME="??1VFileCopyList@@UAE@XZ" PURGE="0" COMMENT="" />
    <EXPORT ORDINAL="293" NAME="??1VFileData@@UAE@XZ" PURGE="0" COMMENT="" />
    <EXPORT ORDINAL="294" NAME="??1VGamepadPC@@UAE@XZ" PURGE="0" COMMENT="" />
    <EXPORT ORDINAL="295" NAME="??1VGamepadXI@@UAE@XZ" PURGE="0" COMMENT="" />
    <EXPORT ORDINAL="296" NAME="??1VImageComparison@@UAE@XZ" PURGE="0" COMMENT="" />
    <EXPORT ORDINAL="297" NAME="??1VInputMap@@UAE@XZ" PURGE="0" COMMENT="" />
    <EXPORT ORDINAL="298" NAME="??1VKeyboardPC@@UAE@XZ" PURGE="0" COMMENT="" />
    <EXPORT ORDINAL="299" NAME="??1VLightGrid_cl@@UAE@XZ" PURGE="0" COMMENT="" />
    <EXPORT ORDINAL="300" NAME="??1VLightmapPrimitive@@UAE@XZ" PURGE="0" COMMENT="" />
    <EXPORT ORDINAL="301" NAME="??1VLightmapSceneInfo@@UAE@XZ" PURGE="0" COMMENT="" />
    <EXPORT ORDINAL="302" NAME="??1VLoadingTask@@UAE@XZ" PURGE="0" COMMENT="" />
    <EXPORT ORDINAL="303" NAME="??1VManagedResource@@UAE@XZ" PURGE="0" COMMENT="" />
    <EXPORT ORDINAL="304" NAME="??1VMapCPtrToCPtr@@QAE@XZ" PURGE="0" COMMENT="" />
    <EXPORT ORDINAL="305" NAME="??1VMapCPtrToInt@@QAE@XZ" PURGE="0" COMMENT="" />
    <EXPORT ORDINAL="306" NAME="??1VMapCPtrToPtr@@QAE@XZ" PURGE="0" COMMENT="" />
    <EXPORT ORDINAL="307" NAME="??1VMapIntToInt@@QAE@XZ" PURGE="0" COMMENT="" />
    <EXPORT ORDINAL="308" NAME="??1VMapIntToPtr@@QAE@XZ" PURGE="0" COMMENT="" />
    <EXPORT ORDINAL="309" NAME="??1VMapPtrToInt@@QAE@XZ" PURGE="0" COMMENT="" />
    <EXPORT ORDINAL="310" NAME="??1VMapPtrToPtr@@QAE@XZ" PURGE="0" COMMENT="" />
    <EXPORT ORDINAL="311" NAME="??1VMapPtrToUInt@@QAE@XZ" PURGE="0" COMMENT="" />
    <EXPORT ORDINAL="312" NAME="??1VMapStrToPtr@@QAE@XZ" PURGE="0" COMMENT="" />
    <EXPORT ORDINAL="313" NAME="??1VMappedAxis@@UAE@XZ" PURGE="0" COMMENT="" />
    <EXPORT ORDINAL="314" NAME="??1VMappedInput@@UAE@XZ" PURGE="0" COMMENT="" />
    <EXPORT ORDINAL="315" NAME="??1VMappedValue@@UAE@XZ" PURGE="0" COMMENT="" />
    <EXPORT ORDINAL="316" NAME="??1VMappedValueSingleHit@@UAE@XZ" PURGE="0" COMMENT="" />
    <EXPORT ORDINAL="317" NAME="??1VMappedValueSingleHitPerFrame@@UAE@XZ" PURGE="0" COMMENT="" />
    <EXPORT ORDINAL="318" NAME="??1VMemoryStream@@UAE@XZ" PURGE="0" COMMENT="" />
    <EXPORT ORDINAL="319" NAME="??1VMemoryStreamManager@@UAE@XZ" PURGE="0" COMMENT="" />
    <EXPORT ORDINAL="320" NAME="??1VMessage@@QAE@XZ" PURGE="0" COMMENT="" />
    <EXPORT ORDINAL="321" NAME="??1VModuleCleanup@@QAE@XZ" PURGE="0" COMMENT="" />
    <EXPORT ORDINAL="322" NAME="??1VModuleInfo@@QAE@XZ" PURGE="0" COMMENT="" />
    <EXPORT ORDINAL="323" NAME="??1VModuleInfoList@@QAE@XZ" PURGE="0" COMMENT="" />
    <EXPORT ORDINAL="324" NAME="??1VMousePC@@UAE@XZ" PURGE="0" COMMENT="" />
    <EXPORT ORDINAL="325" NAME="??1VPList@@UAE@XZ" PURGE="0" COMMENT="" />
    <EXPORT ORDINAL="326" NAME="??1VParam@@UAE@XZ" PURGE="0" COMMENT="" />
    <EXPORT ORDINAL="327" NAME="??1VParamArray@@UAE@XZ" PURGE="0" COMMENT="" />
    <EXPORT ORDINAL="328" NAME="??1VParamBlock@@QAE@XZ" PURGE="0" COMMENT="" />
    <EXPORT ORDINAL="329" NAME="??1VParamContainer@@UAE@XZ" PURGE="0" COMMENT="" />
    <EXPORT ORDINAL="330" NAME="??1VParamDesc@@UAE@XZ" PURGE="0" COMMENT="" />
    <EXPORT ORDINAL="331" NAME="??1VParamExpression@@QAE@XZ" PURGE="0" COMMENT="" />
    <EXPORT ORDINAL="332" NAME="??1VPolygon@@UAE@XZ" PURGE="0" COMMENT="" />
    <EXPORT ORDINAL="333" NAME="??1VProfilingNode@@UAE@XZ" PURGE="0" COMMENT="" />
    <EXPORT ORDINAL="334" NAME="??1VProgressStatus@@UAE@XZ" PURGE="0" COMMENT="" />
    <EXPORT ORDINAL="335" NAME="??1VRefTarget@@UAE@XZ" PURGE="0" COMMENT="" />
    <EXPORT ORDINAL="336" NAME="??1VReport@@UAE@XZ" PURGE="0" COMMENT="" />
    <EXPORT ORDINAL="337" NAME="??1VReportMessage@@UAE@XZ" PURGE="0" COMMENT="" />
    <EXPORT ORDINAL="338" NAME="??1VResourceManager@@UAE@XZ" PURGE="0" COMMENT="" />
    <EXPORT ORDINAL="339" NAME="??1VResourceSnapshot@@UAE@XZ" PURGE="0" COMMENT="" />
    <EXPORT ORDINAL="340" NAME="??1VResourceSnapshotQueue@@UAE@XZ" PURGE="0" COMMENT="" />
    <EXPORT ORDINAL="341" NAME="??1VShaderEffectResource@@UAE@XZ" PURGE="0" COMMENT="" />
    <EXPORT ORDINAL="342" NAME="??1VShaderPassResource@@UAE@XZ" PURGE="0" COMMENT="" />
    <EXPORT ORDINAL="343" NAME="??1VShaderProgramResource@@UAE@XZ" PURGE="0" COMMENT="" />
    <EXPORT ORDINAL="344" NAME="??1VSimpleCollisionMesh32@@UAE@XZ" PURGE="0" COMMENT="" />
    <EXPORT ORDINAL="345" NAME="??1VSimpleCollisionMesh@@UAE@XZ" PURGE="0" COMMENT="" />
    <EXPORT ORDINAL="346" NAME="??1VSimpleCollisionMeshBase@@UAE@XZ" PURGE="0" COMMENT="" />
    <EXPORT ORDINAL="347" NAME="??1VSmallBlockMemoryManager@@UAE@XZ" PURGE="0" COMMENT="" />
    <EXPORT ORDINAL="348" NAME="??1VStrRef@@QAE@XZ" PURGE="0" COMMENT="" />
    <EXPORT ORDINAL="349" NAME="??1VString@@QAE@XZ" PURGE="0" COMMENT="" />
    <EXPORT ORDINAL="350" NAME="??1VStringTokenizer@@UAE@XZ" PURGE="0" COMMENT="" />
    <EXPORT ORDINAL="351" NAME="??1VStringTokenizerInPlace@@QAE@XZ" PURGE="0" COMMENT="" />
    <EXPORT ORDINAL="352" NAME="??1VSurfaceFXConfig@@UAE@XZ" PURGE="0" COMMENT="" />
    <EXPORT ORDINAL="353" NAME="??1VTestClass@@UAE@XZ" PURGE="0" COMMENT="" />
    <EXPORT ORDINAL="354" NAME="??1VTestUnit@@UAE@XZ" PURGE="0" COMMENT="" />
    <EXPORT ORDINAL="355" NAME="??1VTexAnimInfo@@QAE@XZ" PURGE="0" COMMENT="" />
    <EXPORT ORDINAL="356" NAME="??1VTextureLoader@@UAE@XZ" PURGE="0" COMMENT="" />
    <EXPORT ORDINAL="357" NAME="??1VTextureObject@@UAE@XZ" PURGE="0" COMMENT="" />
    <EXPORT ORDINAL="358" NAME="??1VThreadManager@@QAE@XZ" PURGE="0" COMMENT="" />
    <EXPORT ORDINAL="359" NAME="??1VThreadedTask@@UAE@XZ" PURGE="0" COMMENT="" />
    <EXPORT ORDINAL="360" NAME="??1VType@@QAE@XZ" PURGE="0" COMMENT="" />
    <EXPORT ORDINAL="361" NAME="??1VTypedObject@@MAE@XZ" PURGE="0" COMMENT="" />
    <EXPORT ORDINAL="362" NAME="??1VUndoRedoStack@@QAE@XZ" PURGE="0" COMMENT="" />
    <EXPORT ORDINAL="363" NAME="??1VUniString@@QAE@XZ" PURGE="0" COMMENT="" />
    <EXPORT ORDINAL="364" NAME="??1VZipFileStreamManager@@UAE@XZ" PURGE="0" COMMENT="" />
    <EXPORT ORDINAL="365" NAME="??1vPlatformStubBase@@UAE@XZ" PURGE="0" COMMENT="" />
    <EXPORT ORDINAL="366" NAME="??1vPlatformStubDX11@@UAE@XZ" PURGE="0" COMMENT="" />
    <EXPORT ORDINAL="367" NAME="??1vPlatformStubDX9@@UAE@XZ" PURGE="0" COMMENT="" />
    <EXPORT ORDINAL="368" NAME="??1vPlatformStubGLES2@@UAE@XZ" PURGE="0" COMMENT="" />
    <EXPORT ORDINAL="369" NAME="??1vPlatformStubLinux@@UAE@XZ" PURGE="0" COMMENT="" />
    <EXPORT ORDINAL="370" NAME="??1vPlatformStubPS3@@UAE@XZ" PURGE="0" COMMENT="" />
    <EXPORT ORDINAL="371" NAME="??1vPlatformStubPSP2@@UAE@XZ" PURGE="0" COMMENT="" />
    <EXPORT ORDINAL="372" NAME="??1vPlatformStubWii@@UAE@XZ" PURGE="0" COMMENT="" />
    <EXPORT ORDINAL="373" NAME="??1vPlatformStubXbox360@@UAE@XZ" PURGE="0" COMMENT="" />
    <EXPORT ORDINAL="374" NAME="??4ImageMap_cl@@QAEAAV0@ABV0@@Z" PURGE="4" COMMENT="" />
    <EXPORT ORDINAL="375" NAME="??4Image_cl@@QAEAAV0@ABV0@@Z" PURGE="4" COMMENT="" />
    <EXPORT ORDINAL="376" NAME="??4TiXmlComment@@QAEXABV0@@Z" PURGE="4" COMMENT="" />
    <EXPORT ORDINAL="377" NAME="??4TiXmlCursor@@QAEAAU0@ABU0@@Z" PURGE="4" COMMENT="" />
    <EXPORT ORDINAL="378" NAME="??4TiXmlDeclaration@@QAEXABV0@@Z" PURGE="4" COMMENT="" />
    <EXPORT ORDINAL="379" NAME="??4TiXmlDocument@@QAEXABV0@@Z" PURGE="4" COMMENT="" />
    <EXPORT ORDINAL="380" NAME="??4TiXmlElement@@QAEXABV0@@Z" PURGE="4" COMMENT="" />
    <EXPORT ORDINAL="381" NAME="??4TiXmlHandle@@QAE?AV0@ABV0@@Z" PURGE="8" COMMENT="" />
    <EXPORT ORDINAL="382" NAME="??4TiXmlPrinter@@QAEAAV0@ABV0@@Z" PURGE="4" COMMENT="" />
    <EXPORT ORDINAL="383" NAME="??4TiXmlString@@QAEAAV0@ABV0@@Z" PURGE="4" COMMENT="" />
    <EXPORT ORDINAL="384" NAME="??4TiXmlString@@QAEAAV0@PBD@Z" PURGE="4" COMMENT="" />
    <EXPORT ORDINAL="385" NAME="??4TiXmlText@@QAEXABV0@@Z" PURGE="4" COMMENT="" />
    <EXPORT ORDINAL="386" NAME="??4TiXmlUnknown@@QAEXABV0@@Z" PURGE="4" COMMENT="" />
    <EXPORT ORDINAL="387" NAME="??4TiXmlVisitor@@QAEAAV0@ABV0@@Z" PURGE="4" COMMENT="" />
    <EXPORT ORDINAL="388" NAME="??4VActionList@@QAEAAV0@ABV0@@Z" PURGE="4" COMMENT="" />
    <EXPORT ORDINAL="389" NAME="??4VArgList@@QAEAAV0@ABV0@@Z" PURGE="4" COMMENT="" />
    <EXPORT ORDINAL="390" NAME="??4VBBox@@QAEAAV0@ABV0@@Z" PURGE="4" COMMENT="" />
    <EXPORT ORDINAL="391" NAME="??4VBaseAppHelpers@@QAEAAV0@ABV0@@Z" PURGE="4" COMMENT="" />
    <EXPORT ORDINAL="392" NAME="??4VClipBoardHelper@@QAEAAV0@ABV0@@Z" PURGE="4" COMMENT="" />
    <EXPORT ORDINAL="393" NAME="??4VCommandType@@QAEAAU0@ABU0@@Z" PURGE="4" COMMENT="" />
    <EXPORT ORDINAL="394" NAME="??4VCompiledShaderPass@@QAEAAV0@ABV0@@Z" PURGE="4" COMMENT="" />
    <EXPORT ORDINAL="395" NAME="??4VFileData@@QAEAAV0@ABV0@@Z" PURGE="4" COMMENT="" />
    <EXPORT ORDINAL="396" NAME="??4VFileTime@@QAEAAU0@ABU0@@Z" PURGE="4" COMMENT="" />
    <EXPORT ORDINAL="397" NAME="??4VFileTime@@QAEAAU0@_J@Z" PURGE="8" COMMENT="" />
    <EXPORT ORDINAL="398" NAME="??4VGUID@@QAEAAV0@ABV0@@Z" PURGE="4" COMMENT="" />
    <EXPORT ORDINAL="399" NAME="??4VHashString@@QAEAAV0@ABVVString@@@Z" PURGE="4" COMMENT="" />
    <EXPORT ORDINAL="400" NAME="??4VHashString@@QAEAAV0@PBD@Z" PURGE="4" COMMENT="" />
    <EXPORT ORDINAL="401" NAME="??4VImageComparison@@QAEAAV0@ABV0@@Z" PURGE="4" COMMENT="" />
    <EXPORT ORDINAL="402" NAME="??4VLine@@QAEAAV0@ABV0@@Z" PURGE="4" COMMENT="" />
    <EXPORT ORDINAL="403" NAME="??4VMapCPtrToCPtr@@QAEAAV0@ABV0@@Z" PURGE="4" COMMENT="" />
    <EXPORT ORDINAL="404" NAME="??4VMapCPtrToInt@@QAEAAV0@ABV0@@Z" PURGE="4" COMMENT="" />
    <EXPORT ORDINAL="405" NAME="??4VMapCPtrToPtr@@QAEAAV0@ABV0@@Z" PURGE="4" COMMENT="" />
    <EXPORT ORDINAL="406" NAME="??4VMapIntToInt@@QAEAAV0@ABV0@@Z" PURGE="4" COMMENT="" />
    <EXPORT ORDINAL="407" NAME="??4VMapIntToPtr@@QAEAAV0@ABV0@@Z" PURGE="4" COMMENT="" />
    <EXPORT ORDINAL="408" NAME="??4VMapPtrToInt@@QAEAAV0@ABV0@@Z" PURGE="4" COMMENT="" />
    <EXPORT ORDINAL="409" NAME="??4VMapPtrToPtr@@QAEAAV0@ABV0@@Z" PURGE="4" COMMENT="" />
    <EXPORT ORDINAL="410" NAME="??4VMapPtrToUInt@@QAEAAV0@ABV0@@Z" PURGE="4" COMMENT="" />
    <EXPORT ORDINAL="411" NAME="??4VMapStrToPtr@@QAEAAV0@ABV0@@Z" PURGE="4" COMMENT="" />
    <EXPORT ORDINAL="412" NAME="??4VMatrix4d@@QAEAAV0@ABV0@@Z" PURGE="4" COMMENT="" />
    <EXPORT ORDINAL="413" NAME="??4VMatrix4f@@QAEAAV0@ABV0@@Z" PURGE="4" COMMENT="" />
    <EXPORT ORDINAL="414" NAME="??4VModule@@QAEAAU0@ABU0@@Z" PURGE="4" COMMENT="" />
    <EXPORT ORDINAL="415" NAME="??4VModuleCleanup@@QAEAAV0@ABV0@@Z" PURGE="4" COMMENT="" />
    <EXPORT ORDINAL="416" NAME="??4VModuleInfo@@QAEAAV0@ABV0@@Z" PURGE="4" COMMENT="" />
    <EXPORT ORDINAL="417" NAME="??4VModuleInfoList@@QAEAAV0@ABV0@@Z" PURGE="4" COMMENT="" />
    <EXPORT ORDINAL="418" NAME="??4VModuleList@@QAEAAV0@ABV0@@Z" PURGE="4" COMMENT="" />
    <EXPORT ORDINAL="419" NAME="??4VPList@@QAEAAV0@ABV0@@Z" PURGE="4" COMMENT="" />
    <EXPORT ORDINAL="420" NAME="??4VParamBlock@@QAEAAV0@ABV0@@Z" PURGE="4" COMMENT="" />
    <EXPORT ORDINAL="421" NAME="??4VParamContainerList@@QAEAAV0@ABV0@@Z" PURGE="4" COMMENT="" />
    <EXPORT ORDINAL="422" NAME="??4VParamList@@QAEAAV0@ABV0@@Z" PURGE="4" COMMENT="" />
    <EXPORT ORDINAL="423" NAME="??4VPlane4d@@QAEAAV0@ABV0@@Z" PURGE="4" COMMENT="" />
    <EXPORT ORDINAL="424" NAME="??4VPolygon@@QAEAAV0@ABV0@@Z" PURGE="4" COMMENT="" />
    <EXPORT ORDINAL="425" NAME="??4VPolygonList@@IAEXAAV0@@Z" PURGE="4" COMMENT="" />
    <EXPORT ORDINAL="426" NAME="??4VResourceList@@QAEAAV0@ABV0@@Z" PURGE="4" COMMENT="" />
    <EXPORT ORDINAL="427" NAME="??4VSenderReceiverList@@QAEAAV0@ABV0@@Z" PURGE="4" COMMENT="" />
    <EXPORT ORDINAL="428" NAME="??4VShaderEnum@@QAEAAV0@ABV0@@Z" PURGE="4" COMMENT="" />
    <EXPORT ORDINAL="429" NAME="??4VStrRef@@QAEAAV0@ABV0@@Z" PURGE="4" COMMENT="" />
    <EXPORT ORDINAL="430" NAME="??4VString@@QAEAAV0@ABV0@@Z" PURGE="4" COMMENT="" />
    <EXPORT ORDINAL="431" NAME="??4VString@@QAEAAV0@PBD@Z" PURGE="4" COMMENT="" />
    <EXPORT ORDINAL="432" NAME="??4VStringList@@QAEAAV0@ABV0@@Z" PURGE="4" COMMENT="" />
    <EXPORT ORDINAL="433" NAME="??4VSurfaceAssignmentList@@QAEAAV0@ABV0@@Z" PURGE="4" COMMENT="" />
    <EXPORT ORDINAL="434" NAME="??4VUniString@@QAEAAV0@ABV0@@Z" PURGE="4" COMMENT="" />
    <EXPORT ORDINAL="435" NAME="??4VUniString@@QAEAAV0@PB_W@Z" PURGE="4" COMMENT="" />
    <EXPORT ORDINAL="436" NAME="??4VVertex3d@@QAEAAV0@ABV0@@Z" PURGE="4" COMMENT="" />
    <EXPORT ORDINAL="437" NAME="??4vPlatformStubBase@@QAEAAV0@ABV0@@Z" PURGE="4" COMMENT="" />
    <EXPORT ORDINAL="438" NAME="??4vPlatformStubDX11@@QAEAAV0@ABV0@@Z" PURGE="4" COMMENT="" />
    <EXPORT ORDINAL="439" NAME="??4vPlatformStubDX9@@QAEAAV0@ABV0@@Z" PURGE="4" COMMENT="" />
    <EXPORT ORDINAL="440" NAME="??4vPlatformStubGLES2@@QAEAAV0@ABV0@@Z" PURGE="4" COMMENT="" />
    <EXPORT ORDINAL="441" NAME="??4vPlatformStubLinux@@QAEAAV0@ABV0@@Z" PURGE="4" COMMENT="" />
    <EXPORT ORDINAL="442" NAME="??4vPlatformStubPS3@@QAEAAV0@ABV0@@Z" PURGE="4" COMMENT="" />
    <EXPORT ORDINAL="443" NAME="??4vPlatformStubPSP2@@QAEAAV0@ABV0@@Z" PURGE="4" COMMENT="" />
    <EXPORT ORDINAL="444" NAME="??4vPlatformStubWii@@QAEAAV0@ABV0@@Z" PURGE="4" COMMENT="" />
    <EXPORT ORDINAL="445" NAME="??4vPlatformStubXbox360@@QAEAAV0@ABV0@@Z" PURGE="4" COMMENT="" />
    <EXPORT ORDINAL="446" NAME="??5@YAAAVVArchive@@AAV0@AAPAVVCompositeParam@@@Z" PURGE="0" COMMENT="" />
    <EXPORT ORDINAL="447" NAME="??5@YAAAVVArchive@@AAV0@AAPAVVPList@@@Z" PURGE="0" COMMENT="" />
    <EXPORT ORDINAL="448" NAME="??5@YAAAVVArchive@@AAV0@AAPAVVParamArray@@@Z" PURGE="0" COMMENT="" />
    <EXPORT ORDINAL="449" NAME="??5@YAAAVVArchive@@AAV0@AAPAVVParamContainer@@@Z" PURGE="0" COMMENT="" />
    <EXPORT ORDINAL="450" NAME="??5@YAAAVVArchive@@AAV0@AAPAVVParamDesc@@@Z" PURGE="0" COMMENT="" />
    <EXPORT ORDINAL="451" NAME="??5@YAAAVVArchive@@AAV0@AAPAVVParamList@@@Z" PURGE="0" COMMENT="" />
    <EXPORT ORDINAL="452" NAME="??5@YAAAVVArchive@@AAV0@AAPAVVRefTarget@@@Z" PURGE="0" COMMENT="" />
    <EXPORT ORDINAL="453" NAME="??5@YAAAVVArchive@@AAV0@AAPAVVSenderReceiver@@@Z" PURGE="0" COMMENT="" />
    <EXPORT ORDINAL="454" NAME="??5@YAAAVVArchive@@AAV0@AAPAVVTextureSerializationProxy@@@Z" PURGE="0" COMMENT="" />
    <EXPORT ORDINAL="455" NAME="??5@YAAAVVArchive@@AAV0@AAPAVVTypedObject@@@Z" PURGE="0" COMMENT="" />
    <EXPORT ORDINAL="456" NAME="??5@YAAAVVArchive@@AAV0@AAPBVVTypedObject@@@Z" PURGE="0" COMMENT="" />
    <EXPORT ORDINAL="457" NAME="??5@YAAAVVArchive@@AAV0@AAUVColorRef@@@Z" PURGE="0" COMMENT="" />
    <EXPORT ORDINAL="458" NAME="??5@YAAAVVArchive@@AAV0@AAUVisMBVertexDescriptor_t@@@Z" PURGE="0" COMMENT="" />
    <EXPORT ORDINAL="459" NAME="??5@YAAAVVArchive@@AAV0@AAVVBBox@@@Z" PURGE="0" COMMENT="" />
    <EXPORT ORDINAL="460" NAME="??5@YAAAVVArchive@@AAV0@AAVVBBoxf@@@Z" PURGE="0" COMMENT="" />
    <EXPORT ORDINAL="461" NAME="??5@YAAAVVArchive@@AAV0@AAVVHashString@@@Z" PURGE="0" COMMENT="" />
    <EXPORT ORDINAL="462" NAME="??5@YAAAVVArchive@@AAV0@AAVVMappingVertex@@@Z" PURGE="0" COMMENT="" />
    <EXPORT ORDINAL="463" NAME="??5@YAAAVVArchive@@AAV0@AAVVParam@@@Z" PURGE="0" COMMENT="" />
    <EXPORT ORDINAL="464" NAME="??5@YAAAVVArchive@@AAV0@AAVVParamBlock@@@Z" PURGE="0" COMMENT="" />
    <EXPORT ORDINAL="465" NAME="??5@YAAAVVArchive@@AAV0@AAVVPlane4d@@@Z" PURGE="0" COMMENT="" />
    <EXPORT ORDINAL="466" NAME="??5@YAAAVVArchive@@AAV0@AAVVPlane4f@@@Z" PURGE="0" COMMENT="" />
    <EXPORT ORDINAL="467" NAME="??5@YAAAVVArchive@@AAV0@AAVVRectanglef@@@Z" PURGE="0" COMMENT="" />
    <EXPORT ORDINAL="468" NAME="??5@YAAAVVArchive@@AAV0@AAVVStrDictionary@@@Z" PURGE="0" COMMENT="" />
    <EXPORT ORDINAL="469" NAME="??5@YAAAVVArchive@@AAV0@AAVVStrList@@@Z" PURGE="0" COMMENT="" />
    <EXPORT ORDINAL="470" NAME="??5@YAAAVVArchive@@AAV0@AAVVString@@@Z" PURGE="0" COMMENT="" />
    <EXPORT ORDINAL="471" NAME="??5@YAAAVVArchive@@AAV0@AAVVTypedObjectReference@@@Z" PURGE="0" COMMENT="" />
    <EXPORT ORDINAL="472" NAME="??5@YAAAVVArchive@@AAV0@AAVVUniString@@@Z" PURGE="0" COMMENT="" />
    <EXPORT ORDINAL="473" NAME="??5@YAAAVVArchive@@AAV0@AAVVVertex2f@@@Z" PURGE="0" COMMENT="" />
    <EXPORT ORDINAL="474" NAME="??5@YAAAVVArchive@@AAV0@AAVVVertex3d@@@Z" PURGE="0" COMMENT="" />
    <EXPORT ORDINAL="475" NAME="??5@YAAAVVArchive@@AAV0@AAVVVertex3f@@@Z" PURGE="0" COMMENT="" />
    <EXPORT ORDINAL="476" NAME="??5@YAAAVVArchive@@AAV0@PAUVColorRef@@@Z" PURGE="0" COMMENT="" />
    <EXPORT ORDINAL="477" NAME="??5@YAAAVVArchive@@AAV0@PAUVisMBVertexDescriptor_t@@@Z" PURGE="0" COMMENT="" />
    <EXPORT ORDINAL="478" NAME="??5@YAAAVVArchive@@AAV0@PAVVBBox@@@Z" PURGE="0" COMMENT="" />
    <EXPORT ORDINAL="479" NAME="??5@YAAAVVArchive@@AAV0@PAVVBBoxf@@@Z" PURGE="0" COMMENT="" />
    <EXPORT ORDINAL="480" NAME="??5@YAAAVVArchive@@AAV0@PAVVHashString@@@Z" PURGE="0" COMMENT="" />
    <EXPORT ORDINAL="481" NAME="??5@YAAAVVArchive@@AAV0@PAVVMappingVertex@@@Z" PURGE="0" COMMENT="" />
    <EXPORT ORDINAL="482" NAME="??5@YAAAVVArchive@@AAV0@PAVVParam@@@Z" PURGE="0" COMMENT="" />
    <EXPORT ORDINAL="483" NAME="??5@YAAAVVArchive@@AAV0@PAVVParamBlock@@@Z" PURGE="0" COMMENT="" />
    <EXPORT ORDINAL="484" NAME="??5@YAAAVVArchive@@AAV0@PAVVPlane4d@@@Z" PURGE="0" COMMENT="" />
    <EXPORT ORDINAL="485" NAME="??5@YAAAVVArchive@@AAV0@PAVVPlane4f@@@Z" PURGE="0" COMMENT="" />
    <EXPORT ORDINAL="486" NAME="??5@YAAAVVArchive@@AAV0@PAVVRectanglef@@@Z" PURGE="0" COMMENT="" />
    <EXPORT ORDINAL="487" NAME="??5@YAAAVVArchive@@AAV0@PAVVStrDictionary@@@Z" PURGE="0" COMMENT="" />
    <EXPORT ORDINAL="488" NAME="??5@YAAAVVArchive@@AAV0@PAVVStrList@@@Z" PURGE="0" COMMENT="" />
    <EXPORT ORDINAL="489" NAME="??5@YAAAVVArchive@@AAV0@PAVVString@@@Z" PURGE="0" COMMENT="" />
    <EXPORT ORDINAL="490" NAME="??5@YAAAVVArchive@@AAV0@PAVVUniString@@@Z" PURGE="0" COMMENT="" />
    <EXPORT ORDINAL="491" NAME="??5@YAAAVVArchive@@AAV0@PAVVVertex2f@@@Z" PURGE="0" COMMENT="" />
    <EXPORT ORDINAL="492" NAME="??5@YAAAVVArchive@@AAV0@PAVVVertex3d@@@Z" PURGE="0" COMMENT="" />
    <EXPORT ORDINAL="493" NAME="??5@YAAAVVArchive@@AAV0@PAVVVertex3f@@@Z" PURGE="0" COMMENT="" />
    <EXPORT ORDINAL="494" NAME="??5VArchive@@QAEAAV0@AAC@Z" PURGE="4" COMMENT="" />
    <EXPORT ORDINAL="495" NAME="??5VArchive@@QAEAAV0@AAD@Z" PURGE="4" COMMENT="" />
    <EXPORT ORDINAL="496" NAME="??5VArchive@@QAEAAV0@AAE@Z" PURGE="4" COMMENT="" />
    <EXPORT ORDINAL="497" NAME="??5VArchive@@QAEAAV0@AAF@Z" PURGE="4" COMMENT="" />
    <EXPORT ORDINAL="498" NAME="??5VArchive@@QAEAAV0@AAG@Z" PURGE="4" COMMENT="" />
    <EXPORT ORDINAL="499" NAME="??5VArchive@@QAEAAV0@AAH@Z" PURGE="4" COMMENT="" />
    <EXPORT ORDINAL="500" NAME="??5VArchive@@QAEAAV0@AAI@Z" PURGE="4" COMMENT="" />
    <EXPORT ORDINAL="501" NAME="??5VArchive@@QAEAAV0@AAJ@Z" PURGE="4" COMMENT="" />
    <EXPORT ORDINAL="502" NAME="??5VArchive@@QAEAAV0@AAK@Z" PURGE="4" COMMENT="" />
    <EXPORT ORDINAL="503" NAME="??5VArchive@@QAEAAV0@AAM@Z" PURGE="4" COMMENT="" />
    <EXPORT ORDINAL="504" NAME="??5VArchive@@QAEAAV0@AAN@Z" PURGE="4" COMMENT="" />
    <EXPORT ORDINAL="505" NAME="??5VArchive@@QAEAAV0@AAPAD@Z" PURGE="4" COMMENT="" />
    <EXPORT ORDINAL="506" NAME="??5VArchive@@QAEAAV0@AAPA_W@Z" PURGE="4" COMMENT="" />
    <EXPORT ORDINAL="507" NAME="??5VArchive@@QAEAAV0@AAPBD@Z" PURGE="4" COMMENT="" />
    <EXPORT ORDINAL="508" NAME="??5VArchive@@QAEAAV0@AA_J@Z" PURGE="4" COMMENT="" />
    <EXPORT ORDINAL="509" NAME="??5VArchive@@QAEAAV0@AA_N@Z" PURGE="4" COMMENT="" />
    <EXPORT ORDINAL="510" NAME="??6@YAAAVVArchive@@AAV0@AAUVColorRef@@@Z" PURGE="0" COMMENT="" />
    <EXPORT ORDINAL="511" NAME="??6@YAAAVVArchive@@AAV0@AAUVisMBVertexDescriptor_t@@@Z" PURGE="0" COMMENT="" />
    <EXPORT ORDINAL="512" NAME="??6@YAAAVVArchive@@AAV0@AAVVBBox@@@Z" PURGE="0" COMMENT="" />
    <EXPORT ORDINAL="513" NAME="??6@YAAAVVArchive@@AAV0@AAVVBBoxf@@@Z" PURGE="0" COMMENT="" />
    <EXPORT ORDINAL="514" NAME="??6@YAAAVVArchive@@AAV0@AAVVHashString@@@Z" PURGE="0" COMMENT="" />
    <EXPORT ORDINAL="515" NAME="??6@YAAAVVArchive@@AAV0@AAVVMappingVertex@@@Z" PURGE="0" COMMENT="" />
    <EXPORT ORDINAL="516" NAME="??6@YAAAVVArchive@@AAV0@AAVVParam@@@Z" PURGE="0" COMMENT="" />
    <EXPORT ORDINAL="517" NAME="??6@YAAAVVArchive@@AAV0@AAVVParamBlock@@@Z" PURGE="0" COMMENT="" />
    <EXPORT ORDINAL="518" NAME="??6@YAAAVVArchive@@AAV0@AAVVPlane4d@@@Z" PURGE="0" COMMENT="" />
    <EXPORT ORDINAL="519" NAME="??6@YAAAVVArchive@@AAV0@AAVVPlane4f@@@Z" PURGE="0" COMMENT="" />
    <EXPORT ORDINAL="520" NAME="??6@YAAAVVArchive@@AAV0@AAVVRectanglef@@@Z" PURGE="0" COMMENT="" />
    <EXPORT ORDINAL="521" NAME="??6@YAAAVVArchive@@AAV0@AAVVStrDictionary@@@Z" PURGE="0" COMMENT="" />
    <EXPORT ORDINAL="522" NAME="??6@YAAAVVArchive@@AAV0@AAVVStrList@@@Z" PURGE="0" COMMENT="" />
    <EXPORT ORDINAL="523" NAME="??6@YAAAVVArchive@@AAV0@AAVVString@@@Z" PURGE="0" COMMENT="" />
    <EXPORT ORDINAL="524" NAME="??6@YAAAVVArchive@@AAV0@AAVVUniString@@@Z" PURGE="0" COMMENT="" />
    <EXPORT ORDINAL="525" NAME="??6@YAAAVVArchive@@AAV0@AAVVVertex2f@@@Z" PURGE="0" COMMENT="" />
    <EXPORT ORDINAL="526" NAME="??6@YAAAVVArchive@@AAV0@AAVVVertex3d@@@Z" PURGE="0" COMMENT="" />
    <EXPORT ORDINAL="527" NAME="??6@YAAAVVArchive@@AAV0@AAVVVertex3f@@@Z" PURGE="0" COMMENT="" />
    <EXPORT ORDINAL="528" NAME="??6@YAAAVVArchive@@AAV0@ABVVTypedObjectReference@@@Z" PURGE="0" COMMENT="" />
    <EXPORT ORDINAL="529" NAME="??6@YAAAVVArchive@@AAV0@PAUVColorRef@@@Z" PURGE="0" COMMENT="" />
    <EXPORT ORDINAL="530" NAME="??6@YAAAVVArchive@@AAV0@PAUVisMBVertexDescriptor_t@@@Z" PURGE="0" COMMENT="" />
    <EXPORT ORDINAL="531" NAME="??6@YAAAVVArchive@@AAV0@PAVVBBox@@@Z" PURGE="0" COMMENT="" />
    <EXPORT ORDINAL="532" NAME="??6@YAAAVVArchive@@AAV0@PAVVBBoxf@@@Z" PURGE="0" COMMENT="" />
    <EXPORT ORDINAL="533" NAME="??6@YAAAVVArchive@@AAV0@PAVVHashString@@@Z" PURGE="0" COMMENT="" />
    <EXPORT ORDINAL="534" NAME="??6@YAAAVVArchive@@AAV0@PAVVMappingVertex@@@Z" PURGE="0" COMMENT="" />
    <EXPORT ORDINAL="535" NAME="??6@YAAAVVArchive@@AAV0@PAVVParam@@@Z" PURGE="0" COMMENT="" />
    <EXPORT ORDINAL="536" NAME="??6@YAAAVVArchive@@AAV0@PAVVParamBlock@@@Z" PURGE="0" COMMENT="" />
    <EXPORT ORDINAL="537" NAME="??6@YAAAVVArchive@@AAV0@PAVVPlane4d@@@Z" PURGE="0" COMMENT="" />
    <EXPORT ORDINAL="538" NAME="??6@YAAAVVArchive@@AAV0@PAVVPlane4f@@@Z" PURGE="0" COMMENT="" />
    <EXPORT ORDINAL="539" NAME="??6@YAAAVVArchive@@AAV0@PAVVRectanglef@@@Z" PURGE="0" COMMENT="" />
    <EXPORT ORDINAL="540" NAME="??6@YAAAVVArchive@@AAV0@PAVVStrDictionary@@@Z" PURGE="0" COMMENT="" />
    <EXPORT ORDINAL="541" NAME="??6@YAAAVVArchive@@AAV0@PAVVStrList@@@Z" PURGE="0" COMMENT="" />
    <EXPORT ORDINAL="542" NAME="??6@YAAAVVArchive@@AAV0@PAVVString@@@Z" PURGE="0" COMMENT="" />
    <EXPORT ORDINAL="543" NAME="??6@YAAAVVArchive@@AAV0@PAVVUniString@@@Z" PURGE="0" COMMENT="" />
    <EXPORT ORDINAL="544" NAME="??6@YAAAVVArchive@@AAV0@PAVVVertex2f@@@Z" PURGE="0" COMMENT="" />
    <EXPORT ORDINAL="545" NAME="??6@YAAAVVArchive@@AAV0@PAVVVertex3d@@@Z" PURGE="0" COMMENT="" />
    <EXPORT ORDINAL="546" NAME="??6@YAAAVVArchive@@AAV0@PAVVVertex3f@@@Z" PURGE="0" COMMENT="" />
    <EXPORT ORDINAL="547" NAME="??6@YAAAVVArchive@@AAV0@PBVVTypedObject@@@Z" PURGE="0" COMMENT="" />
    <EXPORT ORDINAL="548" NAME="??6VArchive@@QAEAAV0@C@Z" PURGE="4" COMMENT="" />
    <EXPORT ORDINAL="549" NAME="??6VArchive@@QAEAAV0@D@Z" PURGE="4" COMMENT="" />
    <EXPORT ORDINAL="550" NAME="??6VArchive@@QAEAAV0@E@Z" PURGE="4" COMMENT="" />
    <EXPORT ORDINAL="551" NAME="??6VArchive@@QAEAAV0@F@Z" PURGE="4" COMMENT="" />
    <EXPORT ORDINAL="552" NAME="??6VArchive@@QAEAAV0@G@Z" PURGE="4" COMMENT="" />
    <EXPORT ORDINAL="553" NAME="??6VArchive@@QAEAAV0@H@Z" PURGE="4" COMMENT="" />
    <EXPORT ORDINAL="554" NAME="??6VArchive@@QAEAAV0@I@Z" PURGE="4" COMMENT="" />
    <EXPORT ORDINAL="555" NAME="??6VArchive@@QAEAAV0@J@Z" PURGE="4" COMMENT="" />
    <EXPORT ORDINAL="556" NAME="??6VArchive@@QAEAAV0@K@Z" PURGE="4" COMMENT="" />
    <EXPORT ORDINAL="557" NAME="??6VArchive@@QAEAAV0@M@Z" PURGE="4" COMMENT="" />
    <EXPORT ORDINAL="558" NAME="??6VArchive@@QAEAAV0@N@Z" PURGE="8" COMMENT="" />
    <EXPORT ORDINAL="559" NAME="??6VArchive@@QAEAAV0@PBD@Z" PURGE="4" COMMENT="" />
    <EXPORT ORDINAL="560" NAME="??6VArchive@@QAEAAV0@PB_W@Z" PURGE="4" COMMENT="" />
    <EXPORT ORDINAL="561" NAME="??6VArchive@@QAEAAV0@_J@Z" PURGE="8" COMMENT="" />
    <EXPORT ORDINAL="562" NAME="??6VArchive@@QAEAAV0@_N@Z" PURGE="4" COMMENT="" />
    <EXPORT ORDINAL="563" NAME="??8TiXmlAttribute@@QBE_NABV0@@Z" PURGE="4" COMMENT="" />
    <EXPORT ORDINAL="564" NAME="??8VCompiledShaderPass@@QBE_NABV0@@Z" PURGE="4" COMMENT="" />
    <EXPORT ORDINAL="565" NAME="??8VFileTime@@QBE_NABU0@@Z" PURGE="4" COMMENT="" />
    <EXPORT ORDINAL="566" NAME="??8VHashString@@QBE_NABV0@@Z" PURGE="4" COMMENT="" />
    <EXPORT ORDINAL="567" NAME="??8VHashString@@QBE_NABVVString@@@Z" PURGE="4" COMMENT="" />
    <EXPORT ORDINAL="568" NAME="??8VHashString@@QBE_NPBD@Z" PURGE="4" COMMENT="" />
    <EXPORT ORDINAL="569" NAME="??8VMatrix4d@@QBEHABV0@@Z" PURGE="4" COMMENT="" />
    <EXPORT ORDINAL="570" NAME="??8VMatrix4f@@QBEHABV0@@Z" PURGE="4" COMMENT="" />
    <EXPORT ORDINAL="571" NAME="??8VPList@@QBE_NABV0@@Z" PURGE="4" COMMENT="" />
    <EXPORT ORDINAL="572" NAME="??8VString@@QBE_NABV0@@Z" PURGE="4" COMMENT="" />
    <EXPORT ORDINAL="573" NAME="??8VString@@QBE_NPAD@Z" PURGE="4" COMMENT="" />
    <EXPORT ORDINAL="574" NAME="??8VString@@QBE_NPBD@Z" PURGE="4" COMMENT="" />
    <EXPORT ORDINAL="575" NAME="??8VUniString@@QBE_NABV0@@Z" PURGE="4" COMMENT="" />
    <EXPORT ORDINAL="576" NAME="??8VUniString@@QBE_NPA_W@Z" PURGE="4" COMMENT="" />
    <EXPORT ORDINAL="577" NAME="??8VUniString@@QBE_NPB_W@Z" PURGE="4" COMMENT="" />
    <EXPORT ORDINAL="578" NAME="??8VVertex3d@@QBEHABV0@@Z" PURGE="4" COMMENT="" />
    <EXPORT ORDINAL="579" NAME="??9VFileTime@@QBE_NABU0@@Z" PURGE="4" COMMENT="" />
    <EXPORT ORDINAL="580" NAME="??9VMatrix4d@@QBEHABV0@@Z" PURGE="4" COMMENT="" />
    <EXPORT ORDINAL="581" NAME="??9VMatrix4f@@QBEHABV0@@Z" PURGE="4" COMMENT="" />
    <EXPORT ORDINAL="582" NAME="??ATiXmlString@@QBEAADI@Z" PURGE="4" COMMENT="" />
    <EXPORT ORDINAL="583" NAME="??AVActionList@@QBEPAVVAction@@H@Z" PURGE="4" COMMENT="" />
    <EXPORT ORDINAL="584" NAME="??AVBBox@@QAEAAVVVertex3d@@H@Z" PURGE="4" COMMENT="" />
    <EXPORT ORDINAL="585" NAME="??AVMapCPtrToCPtr@@QAEAAPBXPBX@Z" PURGE="4" COMMENT="" />
    <EXPORT ORDINAL="586" NAME="??AVMapCPtrToInt@@QAEAAHPBX@Z" PURGE="4" COMMENT="" />
    <EXPORT ORDINAL="587" NAME="??AVMapCPtrToPtr@@QAEAAPAXPBX@Z" PURGE="4" COMMENT="" />
    <EXPORT ORDINAL="588" NAME="??AVMapIntToInt@@QAEAAHH@Z" PURGE="4" COMMENT="" />
    <EXPORT ORDINAL="589" NAME="??AVMapIntToPtr@@QAEAAPAXH@Z" PURGE="4" COMMENT="" />
    <EXPORT ORDINAL="590" NAME="??AVMapPtrToInt@@QAEAAHPAX@Z" PURGE="4" COMMENT="" />
    <EXPORT ORDINAL="591" NAME="??AVMapPtrToPtr@@QAEAAPAXPAX@Z" PURGE="4" COMMENT="" />
    <EXPORT ORDINAL="592" NAME="??AVMapPtrToUInt@@QAEAAIPAX@Z" PURGE="4" COMMENT="" />
    <EXPORT ORDINAL="593" NAME="??AVMapStrToPtr@@QAEAAPAXPBD@Z" PURGE="4" COMMENT="" />
    <EXPORT ORDINAL="594" NAME="??AVMatrix4d@@QAEPANH@Z" PURGE="4" COMMENT="" />
    <EXPORT ORDINAL="595" NAME="??AVMatrix4f@@QAEPAMH@Z" PURGE="4" COMMENT="" />
    <EXPORT ORDINAL="596" NAME="??AVModuleList@@QBEPAUVModule@@H@Z" PURGE="4" COMMENT="" />
    <EXPORT ORDINAL="597" NAME="??AVParamContainerList@@QBEPAVVParamContainer@@H@Z" PURGE="4" COMMENT="" />
    <EXPORT ORDINAL="598" NAME="??AVParamList@@QBEPAVVParam@@H@Z" PURGE="4" COMMENT="" />
    <EXPORT ORDINAL="599" NAME="??AVResourceList@@QBEPAVVManagedResource@@H@Z" PURGE="4" COMMENT="" />
    <EXPORT ORDINAL="600" NAME="??AVSenderReceiverList@@QBEPAVVSenderReceiver@@H@Z" PURGE="4" COMMENT="" />
    <EXPORT ORDINAL="601" NAME="??AVStringList@@QBEPAVVString@@H@Z" PURGE="4" COMMENT="" />
    <EXPORT ORDINAL="602" NAME="??AVSurfaceAssignmentList@@QBEPAUSurfaceFXAssignment_t@@H@Z" PURGE="4" COMMENT="" />
    <EXPORT ORDINAL="603" NAME="??AVVertex3d@@QAEAANH@Z" PURGE="4" COMMENT="" />
    <EXPORT ORDINAL="604" NAME="??AVVertex3d@@QBENH@Z" PURGE="4" COMMENT="" />
    <EXPORT ORDINAL="605" NAME="??BVMatrix4d@@QAEPANXZ" PURGE="0" COMMENT="" />
    <EXPORT ORDINAL="606" NAME="??BVMatrix4f@@QAEPAMXZ" PURGE="0" COMMENT="" />
    <EXPORT ORDINAL="607" NAME="??BVStrRef@@QAEPBDXZ" PURGE="0" COMMENT="" />
    <EXPORT ORDINAL="608" NAME="??BVVertex3d@@QAEPANXZ" PURGE="0" COMMENT="" />
    <EXPORT ORDINAL="609" NAME="??D@YA?AVVVertex3d@@NV0@@Z" PURGE="0" COMMENT="" />
    <EXPORT ORDINAL="610" NAME="??DVMappingVertex@@QBE?AV0@M@Z" PURGE="8" COMMENT="" />
    <EXPORT ORDINAL="611" NAME="??DVMatrix4d@@QBE?AV0@ABV0@@Z" PURGE="8" COMMENT="" />
    <EXPORT ORDINAL="612" NAME="??DVMatrix4f@@QBE?AV0@ABV0@@Z" PURGE="8" COMMENT="" />
    <EXPORT ORDINAL="613" NAME="??DVVertex3d@@QBE?AV0@N@Z" PURGE="12" COMMENT="" />
    <EXPORT ORDINAL="614" NAME="??DVVertex3d@@QBENABV0@@Z" PURGE="4" COMMENT="" />
    <EXPORT ORDINAL="615" NAME="??GVMappingVertex@@QBE?AV0@ABV0@@Z" PURGE="8" COMMENT="" />
    <EXPORT ORDINAL="616" NAME="??GVMappingVertex@@QBE?AV0@XZ" PURGE="4" COMMENT="" />
    <EXPORT ORDINAL="617" NAME="??GVVertex3d@@QBE?AV0@ABV0@@Z" PURGE="8" COMMENT="" />
    <EXPORT ORDINAL="618" NAME="??GVVertex3d@@QBE?AV0@XZ" PURGE="4" COMMENT="" />
    <EXPORT ORDINAL="619" NAME="??HVMappingVertex@@QBE?AV0@ABV0@@Z" PURGE="8" COMMENT="" />
    <EXPORT ORDINAL="620" NAME="??HVVertex3d@@QBE?AV0@ABV0@@Z" PURGE="8" COMMENT="" />
    <EXPORT ORDINAL="621" NAME="??KVMappingVertex@@QBE?AV0@M@Z" PURGE="8" COMMENT="" />
    <EXPORT ORDINAL="622" NAME="??KVVertex3d@@QBE?AV0@N@Z" PURGE="12" COMMENT="" />
    <EXPORT ORDINAL="623" NAME="??MTiXmlAttribute@@QBE_NABV0@@Z" PURGE="4" COMMENT="" />
    <EXPORT ORDINAL="624" NAME="??MVFileTime@@QBE_NABU0@@Z" PURGE="4" COMMENT="" />
    <EXPORT ORDINAL="625" NAME="??MVString@@QBE_NABV0@@Z" PURGE="4" COMMENT="" />
    <EXPORT ORDINAL="626" NAME="??NVFileTime@@QBE_NABU0@@Z" PURGE="4" COMMENT="" />
    <EXPORT ORDINAL="627" NAME="??OTiXmlAttribute@@QBE_NABV0@@Z" PURGE="4" COMMENT="" />
    <EXPORT ORDINAL="628" NAME="??OVFileTime@@QBE_NABU0@@Z" PURGE="4" COMMENT="" />
    <EXPORT ORDINAL="629" NAME="??PVFileTime@@QBE_NABU0@@Z" PURGE="4" COMMENT="" />
    <EXPORT ORDINAL="630" NAME="??XVMatrix4d@@QAEAAV0@ABV0@@Z" PURGE="4" COMMENT="" />
    <EXPORT ORDINAL="631" NAME="??XVMatrix4f@@QAEAAV0@ABV0@@Z" PURGE="4" COMMENT="" />
    <EXPORT ORDINAL="632" NAME="??XVVertex3d@@QAEAAV0@N@Z" PURGE="8" COMMENT="" />
    <EXPORT ORDINAL="633" NAME="??YTiXmlString@@QAEAAV0@ABV0@@Z" PURGE="4" COMMENT="" />
    <EXPORT ORDINAL="634" NAME="??YTiXmlString@@QAEAAV0@D@Z" PURGE="4" COMMENT="" />
    <EXPORT ORDINAL="635" NAME="??YTiXmlString@@QAEAAV0@PBD@Z" PURGE="4" COMMENT="" />
    <EXPORT ORDINAL="636" NAME="??YVMappingVertex@@QAEXABV0@@Z" PURGE="4" COMMENT="" />
    <EXPORT ORDINAL="637" NAME="??YVMatrix4d@@QAEAAV0@ABV0@@Z" PURGE="4" COMMENT="" />
    <EXPORT ORDINAL="638" NAME="??YVMatrix4f@@QAEAAV0@ABV0@@Z" PURGE="4" COMMENT="" />
    <EXPORT ORDINAL="639" NAME="??YVString@@QAEAAV0@ABV0@@Z" PURGE="4" COMMENT="" />
    <EXPORT ORDINAL="640" NAME="??YVUniString@@QAEAAV0@ABV0@@Z" PURGE="4" COMMENT="" />
    <EXPORT ORDINAL="641" NAME="??YVVertex3d@@QAEXABV0@@Z" PURGE="4" COMMENT="" />
    <EXPORT ORDINAL="642" NAME="??ZVMappingVertex@@QAEXABV0@@Z" PURGE="4" COMMENT="" />
    <EXPORT ORDINAL="643" NAME="??ZVMatrix4d@@QAEAAV0@ABV0@@Z" PURGE="4" COMMENT="" />
    <EXPORT ORDINAL="644" NAME="??ZVMatrix4f@@QAEAAV0@ABV0@@Z" PURGE="4" COMMENT="" />
    <EXPORT ORDINAL="645" NAME="??ZVVertex3d@@QAEXABV0@@Z" PURGE="4" COMMENT="" />
    <EXPORT ORDINAL="646" NAME="??_0VVertex3d@@QAEAAV0@N@Z" PURGE="8" COMMENT="" />
    <EXPORT ORDINAL="647" NAME="??_7TiXmlAttribute@@6B@" PURGE="-1" COMMENT="" />
    <EXPORT ORDINAL="648" NAME="??_7TiXmlBase@@6B@" PURGE="-1" COMMENT="" />
    <EXPORT ORDINAL="649" NAME="??_7TiXmlComment@@6B@" PURGE="-1" COMMENT="" />
    <EXPORT ORDINAL="650" NAME="??_7TiXmlDeclaration@@6B@" PURGE="-1" COMMENT="" />
    <EXPORT ORDINAL="651" NAME="??_7TiXmlDocument@@6B@" PURGE="-1" COMMENT="" />
    <EXPORT ORDINAL="652" NAME="??_7TiXmlElement@@6B@" PURGE="-1" COMMENT="" />
    <EXPORT ORDINAL="653" NAME="??_7TiXmlNode@@6B@" PURGE="-1" COMMENT="" />
    <EXPORT ORDINAL="654" NAME="??_7TiXmlPrinter@@6B@" PURGE="-1" COMMENT="" />
    <EXPORT ORDINAL="655" NAME="??_7TiXmlText@@6B@" PURGE="-1" COMMENT="" />
    <EXPORT ORDINAL="656" NAME="??_7TiXmlUnknown@@6B@" PURGE="-1" COMMENT="" />
    <EXPORT ORDINAL="657" NAME="??_7TiXmlVisitor@@6B@" PURGE="-1" COMMENT="" />
    <EXPORT ORDINAL="658" NAME="??_7VFileData@@6B@" PURGE="-1" COMMENT="" />
    <EXPORT ORDINAL="659" NAME="??_7VImageComparison@@6B@" PURGE="-1" COMMENT="" />
    <EXPORT ORDINAL="660" NAME="??_7vPlatformStubBase@@6B@" PURGE="-1" COMMENT="" />
    <EXPORT ORDINAL="661" NAME="??_7vPlatformStubDX11@@6B@" PURGE="-1" COMMENT="" />
    <EXPORT ORDINAL="662" NAME="??_7vPlatformStubDX9@@6B@" PURGE="-1" COMMENT="" />
    <EXPORT ORDINAL="663" NAME="??_7vPlatformStubGLES2@@6B@" PURGE="-1" COMMENT="" />
    <EXPORT ORDINAL="664" NAME="??_7vPlatformStubLinux@@6B@" PURGE="-1" COMMENT="" />
    <EXPORT ORDINAL="665" NAME="??_7vPlatformStubPS3@@6B@" PURGE="-1" COMMENT="" />
    <EXPORT ORDINAL="666" NAME="??_7vPlatformStubPSP2@@6B@" PURGE="-1" COMMENT="" />
    <EXPORT ORDINAL="667" NAME="??_7vPlatformStubWii@@6B@" PURGE="-1" COMMENT="" />
    <EXPORT ORDINAL="668" NAME="??_7vPlatformStubXbox360@@6B@" PURGE="-1" COMMENT="" />
    <EXPORT ORDINAL="669" NAME="??_FImage_cl@@QAEXXZ" PURGE="0" COMMENT="" />
    <EXPORT ORDINAL="670" NAME="??_FVCallback@@QAEXXZ" PURGE="0" COMMENT="" />
    <EXPORT ORDINAL="671" NAME="??_FVCallbackSenderQueue@@QAEXXZ" PURGE="0" COMMENT="" />
    <EXPORT ORDINAL="672" NAME="??_FVMapCPtrToCPtr@@QAEXXZ" PURGE="0" COMMENT="" />
    <EXPORT ORDINAL="673" NAME="??_FVMapCPtrToInt@@QAEXXZ" PURGE="0" COMMENT="" />
    <EXPORT ORDINAL="674" NAME="??_FVMapCPtrToPtr@@QAEXXZ" PURGE="0" COMMENT="" />
    <EXPORT ORDINAL="675" NAME="??_FVMapIntToInt@@QAEXXZ" PURGE="0" COMMENT="" />
    <EXPORT ORDINAL="676" NAME="??_FVMapIntToPtr@@QAEXXZ" PURGE="0" COMMENT="" />
    <EXPORT ORDINAL="677" NAME="??_FVMapPtrToInt@@QAEXXZ" PURGE="0" COMMENT="" />
    <EXPORT ORDINAL="678" NAME="??_FVMapPtrToPtr@@QAEXXZ" PURGE="0" COMMENT="" />
    <EXPORT ORDINAL="679" NAME="??_FVMapPtrToUInt@@QAEXXZ" PURGE="0" COMMENT="" />
    <EXPORT ORDINAL="680" NAME="??_FVMapStrToPtr@@QAEXXZ" PURGE="0" COMMENT="" />
    <EXPORT ORDINAL="681" NAME="??_FVMappedConstant@@QAEXXZ" PURGE="0" COMMENT="" />
    <EXPORT ORDINAL="682" NAME="??_FVResourceSnapshot@@QAEXXZ" PURGE="0" COMMENT="" />
    <EXPORT ORDINAL="683" NAME="??_FVSimpleCollisionMesh32@@QAEXXZ" PURGE="0" COMMENT="" />
    <EXPORT ORDINAL="684" NAME="??_FVSimpleCollisionMesh@@QAEXXZ" PURGE="0" COMMENT="" />
    <EXPORT ORDINAL="685" NAME="??_FVSimpleCollisionMeshBase@@QAEXXZ" PURGE="0" COMMENT="" />
    <EXPORT ORDINAL="686" NAME="??_FVSmallBlockMemoryManager@@QAEXXZ" PURGE="0" COMMENT="" />
    <EXPORT ORDINAL="687" NAME="??_FVTextureManager@@QAEXXZ" PURGE="0" COMMENT="" />
    <EXPORT ORDINAL="688" NAME="??_FVVideoConfig@@QAEXXZ" PURGE="0" COMMENT="" />
    <EXPORT ORDINAL="689" NAME="?Abort@VArchive@@QAEXXZ" PURGE="0" COMMENT="" />
    <EXPORT ORDINAL="690" NAME="?Accept@TiXmlComment@@UBE_NPAVTiXmlVisitor@@@Z" PURGE="-1" COMMENT="" />
    <EXPORT ORDINAL="691" NAME="?Accept@TiXmlDeclaration@@UBE_NPAVTiXmlVisitor@@@Z" PURGE="-1" COMMENT="" />
    <EXPORT ORDINAL="692" NAME="?Accept@TiXmlDocument@@UBE_NPAVTiXmlVisitor@@@Z" PURGE="4" COMMENT="" />
    <EXPORT ORDINAL="693" NAME="?Accept@TiXmlElement@@UBE_NPAVTiXmlVisitor@@@Z" PURGE="4" COMMENT="" />
    <EXPORT ORDINAL="694" NAME="?Accept@TiXmlText@@UBE_NPAVTiXmlVisitor@@@Z" PURGE="-1" COMMENT="" />
    <EXPORT ORDINAL="695" NAME="?Accept@TiXmlUnknown@@UBE_NPAVTiXmlVisitor@@@Z" PURGE="-1" COMMENT="" />
    <EXPORT ORDINAL="696" NAME="?AccumulateMemoryFootprint@VManagedResource@@UAEXAAI000@Z" PURGE="16" COMMENT="" />
    <EXPORT ORDINAL="697" NAME="?AccumulateMemoryFootprint@VShaderEffectLib@@MAEXAAI000@Z" PURGE="16" COMMENT="" />
    <EXPORT ORDINAL="698" NAME="?AccumulateMemoryFootprint@VTextureObject@@MAEXAAI000@Z" PURGE="16" COMMENT="" />
    <EXPORT ORDINAL="699" NAME="?ActionNameCompare@VActionManager@@KAHPBX0@Z" PURGE="-1" COMMENT="" />
    <EXPORT ORDINAL="700" NAME="?Add@TiXmlAttributeSet@@QAEXPAVTiXmlAttribute@@@Z" PURGE="4" COMMENT="" />
    <EXPORT ORDINAL="701" NAME="?Add@VBBox@@QAEXABV1@@Z" PURGE="4" COMMENT="" />
    <EXPORT ORDINAL="702" NAME="?Add@VBBox@@QAEXABV1@ABVVMatrix4d@@@Z" PURGE="8" COMMENT="" />
    <EXPORT ORDINAL="703" NAME="?Add@VBBox@@QAEXABV1@ABVVMatrix4f@@@Z" PURGE="8" COMMENT="" />
    <EXPORT ORDINAL="704" NAME="?Add@VBBox@@QAEXABVVPolygon@@@Z" PURGE="4" COMMENT="" />
    <EXPORT ORDINAL="705" NAME="?Add@VBBox@@QAEXABVVVertex3d@@@Z" PURGE="4" COMMENT="" />
    <EXPORT ORDINAL="706" NAME="?Add@VBBox@@QAEXN@Z" PURGE="8" COMMENT="" />
    <EXPORT ORDINAL="707" NAME="?Add@VBBox@@QAEXNNN@Z" PURGE="24" COMMENT="" />
    <EXPORT ORDINAL="708" NAME="?Add@VBBox@@QAEXPBVVVertex3d@@H@Z" PURGE="8" COMMENT="" />
    <EXPORT ORDINAL="709" NAME="?Add@VFileCopyList@@QAEPAVVFileCopyInfo@@PBD@Z" PURGE="4" COMMENT="" />
    <EXPORT ORDINAL="710" NAME="?AddArgumentString@VArgList@@QAEHPBD@Z" PURGE="4" COMMENT="" />
    <EXPORT ORDINAL="711" NAME="?AddChild@VCollisionNode@@QAEXPAV1@@Z" PURGE="4" COMMENT="" />
    <EXPORT ORDINAL="712" NAME="?AddChild@VProfilingNode@@QAEHPAV1@@Z" PURGE="4" COMMENT="" />
    <EXPORT ORDINAL="713" NAME="?AddChild@VProfilingNode@@QAEPAV1@PBDAAHH@Z" PURGE="12" COMMENT="" />
    <EXPORT ORDINAL="714" NAME="?AddColorMap@Image_cl@@QAEJAAVImageMap_cl@@@Z" PURGE="4" COMMENT="" />
    <EXPORT ORDINAL="715" NAME="?AddColorMap@Image_cl@@QAEJJJW4ColorDepth_e@@PAE@Z" PURGE="16" COMMENT="" />
    <EXPORT ORDINAL="716" NAME="?AddCommentsIfNecessary@VActionManager@@KAXAAVVString@@@Z" PURGE="0" COMMENT="" />
    <EXPORT ORDINAL="717" NAME="?AddDataBlock@VRawDataBlock@@QAEHPBXH@Z" PURGE="8" COMMENT="" />
    <EXPORT ORDINAL="718" NAME="?AddDependency@VResourceSnapshot@@QAEXPAVVManagedResource@@0_N@Z" PURGE="12" COMMENT="" />
    <EXPORT ORDINAL="719" NAME="?AddEntriesToVReport@VReportMessage@@QAEXW4VReportType@@@Z" PURGE="4" COMMENT="" />
    <EXPORT ORDINAL="720" NAME="?AddEntry@VReportMessage@@QAEXHPBD@Z" PURGE="8" COMMENT="" />
    <EXPORT ORDINAL="721" NAME="?AddEnum@VParam@@QAEPAUdictpair_t@@PBDH@Z" PURGE="8" COMMENT="" />
    <EXPORT ORDINAL="722" NAME="?AddExtension@VPathHelper@@SAXPADPBD1@Z" PURGE="0" COMMENT="" />
    <EXPORT ORDINAL="723" NAME="?AddFileDependency@VResourceSnapshot@@QAEXPAVVManagedResource@@PBDH@Z" PURGE="12" COMMENT="" />
    <EXPORT ORDINAL="724" NAME="?AddFileEntry@VResourceSnapshot@@IAEPAVVResourceSnapshotEntry@@PBDHM@Z" PURGE="12" COMMENT="" />
    <EXPORT ORDINAL="725" NAME="?AddHeightMap@Image_cl@@QAEJAAVImageMap_cl@@@Z" PURGE="4" COMMENT="" />
    <EXPORT ORDINAL="726" NAME="?AddHeightMap@Image_cl@@QAEJJJW4ColorDepth_e@@PAE@Z" PURGE="16" COMMENT="" />
    <EXPORT ORDINAL="727" NAME="?AddInStream@VStreamProcessingTask@@QAEXAAVVDataStream@@@Z" PURGE="4" COMMENT="" />
    <EXPORT ORDINAL="728" NAME="?AddLibFilename@VSurfaceFXConfig@@QAEXPBD@Z" PURGE="4" COMMENT="" />
    <EXPORT ORDINAL="729" NAME="?AddLibFilenameUnique@VSurfaceFXConfig@@QAEXPBD@Z" PURGE="4" COMMENT="" />
    <EXPORT ORDINAL="730" NAME="?AddMesh@VCollisionData@@QAEXPAVVSimpleCollisionMesh32@@@Z" PURGE="4" COMMENT="" />
    <EXPORT ORDINAL="731" NAME="?AddModelFileEffect@VSurfaceFXConfig@@QAEXPBD000@Z" PURGE="16" COMMENT="" />
    <EXPORT ORDINAL="732" NAME="?AddModule@VModuleInfoList@@AAEXPAVModuleInstance@@@Z" PURGE="4" COMMENT="" />
    <EXPORT ORDINAL="733" NAME="?AddNode@VCollisionData@@QAEXPAVVCollisionNode@@@Z" PURGE="4" COMMENT="" />
    <EXPORT ORDINAL="734" NAME="?AddOpacityMap@Image_cl@@QAEJAAVImageMap_cl@@@Z" PURGE="4" COMMENT="" />
    <EXPORT ORDINAL="735" NAME="?AddOpacityMap@Image_cl@@QAEJJJW4ColorDepth_e@@PAE@Z" PURGE="16" COMMENT="" />
    <EXPORT ORDINAL="736" NAME="?AddOutStream@VStreamProcessingTask@@QAEXAAVVDataStream@@@Z" PURGE="4" COMMENT="" />
    <EXPORT ORDINAL="737" NAME="?AddReceiver@VBroadcaster@@EAEXPAVVSenderReceiver@@@Z" PURGE="4" COMMENT="" />
    <EXPORT ORDINAL="738" NAME="?AddRef@VRefTarget@@QAEXXZ" PURGE="0" COMMENT="" />
    <EXPORT ORDINAL="739" NAME="?AddResource@VResourceManager@@QAEHPAVVManagedResource@@@Z" PURGE="4" COMMENT="" />
    <EXPORT ORDINAL="740" NAME="?AddResourceEntry@VResourceSnapshot@@IAEPAVVResourceSnapshotEntry@@PAVVManagedResource@@M@Z" PURGE="8" COMMENT="" />
    <EXPORT ORDINAL="741" NAME="?AddSnapshot@VResourceSnapshotQueue@@QAEXPAVVResourceSnapshot@@@Z" PURGE="4" COMMENT="" />
    <EXPORT ORDINAL="742" NAME="?AddString@VStrList@@QAEHPBD@Z" PURGE="4" COMMENT="" />
    <EXPORT ORDINAL="743" NAME="?AddSubTest@VTestClass@@QAEXPBD@Z" PURGE="4" COMMENT="" />
    <EXPORT ORDINAL="744" NAME="?AddSurface@VCollisionData@@QAEXPAVVCollisionSurface@@@Z" PURGE="4" COMMENT="" />
    <EXPORT ORDINAL="745" NAME="?AddSurfaceEffect@VSurfaceFXConfig@@QAEXHPBD00@Z" PURGE="16" COMMENT="" />
    <EXPORT ORDINAL="746" NAME="?AddSurfaceEffect@VSurfaceFXConfig@@QAEXPBD000@Z" PURGE="16" COMMENT="" />
    <EXPORT ORDINAL="747" NAME="?AddSurfaceEffect@VSurfaceFXConfig@@QAEXPBDPAVVCompiledEffect@@0@Z" PURGE="12" COMMENT="" />
    <EXPORT ORDINAL="748" NAME="?AddSync@VStreamProcessingWorkflow@@QAEXXZ" PURGE="0" COMMENT="" />
    <EXPORT ORDINAL="749" NAME="?AddTask@VStreamProcessingWorkflow@@QAEHXZ" PURGE="0" COMMENT="" />
    <EXPORT ORDINAL="750" NAME="?AddToActionStringHistory@VActionManager@@QAEXPBD@Z" PURGE="4" COMMENT="" />
    <EXPORT ORDINAL="751" NAME="?AddUniqueSorted@VPList@@QAEHPAX@Z" PURGE="4" COMMENT="" />
    <EXPORT ORDINAL="752" NAME="?AddUniqueString@VStrList@@QAEHPBD@Z" PURGE="4" COMMENT="" />
    <EXPORT ORDINAL="753" NAME="?AdjustUpperLimit@VPList@@QAEXXZ" PURGE="0" COMMENT="" />
    <EXPORT ORDINAL="754" NAME="?AdjustUpperLimit@VResourceManager@@IAEXXZ" PURGE="0" COMMENT="" />
    <EXPORT ORDINAL="755" NAME="?Alloc@VSmallBlockMemoryManager@@UAEPAXIHPBDH@Z" PURGE="16" COMMENT="" />
    <EXPORT ORDINAL="756" NAME="?AllocFrames@TextureAnimInfo_t@@QAEXH@Z" PURGE="4" COMMENT="" />
    <EXPORT ORDINAL="757" NAME="?AllocateBuffer@IVConstantBuffer@@QAEXHHPAX@Z" PURGE="12" COMMENT="" />
    <EXPORT ORDINAL="758" NAME="?AllocateBuffer@IVConstantBuffer@@QAEXPAX@Z" PURGE="4" COMMENT="" />
    <EXPORT ORDINAL="759" NAME="?AllocateEntries@VShaderConstantTable@@QAEXH@Z" PURGE="4" COMMENT="" />
    <EXPORT ORDINAL="760" NAME="?AllocateIndices32@MeshMaterial_t@VLightmapPrimitive@@QAEXH@Z" PURGE="4" COMMENT="" />
    <EXPORT ORDINAL="761" NAME="?AllocateIndices@MeshMaterial_t@VLightmapPrimitive@@QAEXH@Z" PURGE="4" COMMENT="" />
    <EXPORT ORDINAL="762" NAME="?AllocateIndices@VSimpleCollisionMesh32@@UAEXH@Z" PURGE="4" COMMENT="" />
    <EXPORT ORDINAL="763" NAME="?AllocateIndices@VSimpleCollisionMesh@@UAEXH@Z" PURGE="4" COMMENT="" />
    <EXPORT ORDINAL="764" NAME="?AllocateLightmaps@VLightmapSceneInfo@@QAEXHH_N@Z" PURGE="12" COMMENT="" />
    <EXPORT ORDINAL="765" NAME="?AllocateMaterials@VLightmapPrimitive@@QAEXH@Z" PURGE="4" COMMENT="" />
    <EXPORT ORDINAL="766" NAME="?AllocateShadowMapEntries@VLightmapSceneInfo@@QAEXH@Z" PURGE="4" COMMENT="" />
    <EXPORT ORDINAL="767" NAME="?AllocateUV@VLightmapPrimitive@@QAEXH@Z" PURGE="4" COMMENT="" />
    <EXPORT ORDINAL="768" NAME="?AllocateVertices@VLightmapPrimitive@@QAEXH@Z" PURGE="4" COMMENT="" />
    <EXPORT ORDINAL="769" NAME="?AllocateVertices@VSimpleCollisionMeshBase@@QAEXH@Z" PURGE="4" COMMENT="" />
    <EXPORT ORDINAL="770" NAME="?AnimStartStatus@Image_cl@@QAEAAHXZ" PURGE="0" COMMENT="" />
    <EXPORT ORDINAL="771" NAME="?AnimTiming@Image_cl@@QAEAAJXZ" PURGE="0" COMMENT="" />
    <EXPORT ORDINAL="772" NAME="?AnimType@Image_cl@@QAEAAW4AnimType_e@@XZ" PURGE="0" COMMENT="" />
    <EXPORT ORDINAL="773" NAME="?Append@VActionList@@QAEXPAVVAction@@@Z" PURGE="4" COMMENT="" />
    <EXPORT ORDINAL="774" NAME="?Append@VModuleList@@QAEXPAUVModule@@@Z" PURGE="4" COMMENT="" />
    <EXPORT ORDINAL="775" NAME="?Append@VPList@@QAEXAAV1@@Z" PURGE="4" COMMENT="" />
    <EXPORT ORDINAL="776" NAME="?Append@VPList@@QAEXPAX@Z" PURGE="4" COMMENT="" />
    <EXPORT ORDINAL="777" NAME="?Append@VParamContainerList@@QAEXPAVVParamContainer@@@Z" PURGE="4" COMMENT="" />
    <EXPORT ORDINAL="778" NAME="?Append@VParamDesc@@QAEXPAVVParam@@PAVVParamBlock@@H@Z" PURGE="12" COMMENT="" />
    <EXPORT ORDINAL="779" NAME="?Append@VParamList@@QAEXPAVVParam@@@Z" PURGE="4" COMMENT="" />
    <EXPORT ORDINAL="780" NAME="?Append@VResourceList@@QAEXPAVVManagedResource@@@Z" PURGE="4" COMMENT="" />
    <EXPORT ORDINAL="781" NAME="?Append@VSenderReceiverList@@QAEXPAVVSenderReceiver@@@Z" PURGE="4" COMMENT="" />
    <EXPORT ORDINAL="782" NAME="?Append@VStringList@@QAEXPAVVString@@@Z" PURGE="4" COMMENT="" />
    <EXPORT ORDINAL="783" NAME="?Append@VSurfaceAssignmentList@@QAEXPAUSurfaceFXAssignment_t@@@Z" PURGE="4" COMMENT="" />
    <EXPORT ORDINAL="784" NAME="?AppendEntry@VResourceSnapshot@@QAEAAVVResourceSnapshotEntry@@XZ" PURGE="0" COMMENT="" />
    <EXPORT ORDINAL="785" NAME="?AppendRelativePath@@YAXAAVVString@@PBD@Z" PURGE="0" COMMENT="" />
    <EXPORT ORDINAL="786" NAME="?AsBool@VArgList@@QBEHH@Z" PURGE="4" COMMENT="" />
    <EXPORT ORDINAL="787" NAME="?AsDouble@VArgList@@QBENH@Z" PURGE="4" COMMENT="" />
    <EXPORT ORDINAL="788" NAME="?AsFloat@VArgList@@QBEMH@Z" PURGE="4" COMMENT="" />
    <EXPORT ORDINAL="789" NAME="?AsInt@VArgList@@QBEHH@Z" PURGE="4" COMMENT="" />
    <EXPORT ORDINAL="790" NAME="?AsMatrix4d@VArgList@@QBE?AVVMatrix4d@@H@Z" PURGE="8" COMMENT="" />
    <EXPORT ORDINAL="791" NAME="?AsQuotedString@VArgList@@QBE?AVVString@@H@Z" PURGE="8" COMMENT="" />
    <EXPORT ORDINAL="792" NAME="?AsRawString@VArgList@@QBE?AVVString@@H@Z" PURGE="8" COMMENT="" />
    <EXPORT ORDINAL="793" NAME="?AsString@VArgList@@QBEPBDH@Z" PURGE="4" COMMENT="" />
    <EXPORT ORDINAL="794" NAME="?AsString@VModuleInfoList@@QBEPBDXZ" PURGE="0" COMMENT="" />
    <EXPORT ORDINAL="795" NAME="?AsVertex3d@VArgList@@QBE?AVVVertex3d@@H@Z" PURGE="8" COMMENT="" />
    <EXPORT ORDINAL="796" NAME="?AsVertex3f@VArgList@@QBE?AVVVertex3f@@H@Z" PURGE="8" COMMENT="" />
    <EXPORT ORDINAL="797" NAME="?AssertImage@VTestClass@@QAEHAAVVImageComparison@@PBDHH1H@Z" PURGE="24" COMMENT="" />
    <EXPORT ORDINAL="798" NAME="?AssertTest@VTestClass@@QAEHHPBDH0@Z" PURGE="16" COMMENT="" />
    <EXPORT ORDINAL="799" NAME="?AssertValid@VParamArray@@UAEXXZ" PURGE="0" COMMENT="" />
    <EXPORT ORDINAL="800" NAME="?AssertValid@VParamBlock@@QAEXXZ" PURGE="0" COMMENT="" />
    <EXPORT ORDINAL="801" NAME="?AssertValid@VParamContainer@@UAEXXZ" PURGE="0" COMMENT="" />
    <EXPORT ORDINAL="802" NAME="?AssertValid@VString@@QAEXXZ" PURGE="0" COMMENT="" />
    <EXPORT ORDINAL="803" NAME="?AssertValid@VTypedObject@@UAEXXZ" PURGE="0" COMMENT="" />
    <EXPORT ORDINAL="804" NAME="?AssertValid@VUniString@@QAEXXZ" PURGE="0" COMMENT="" />
    <EXPORT ORDINAL="805" NAME="?AssignArrayParam@VParamBlock@@QAEXHPAVVParamArray@@@Z" PURGE="8" COMMENT="" />
    <EXPORT ORDINAL="806" NAME="?AssignComposite@VParamBlock@@QAEXHPAVVCompositeParam@@@Z" PURGE="8" COMMENT="" />
    <EXPORT ORDINAL="807" NAME="?AssignMatrix@@YAXAAVVMatrix4d@@ABV1@@Z" PURGE="0" COMMENT="" />
    <EXPORT ORDINAL="808" NAME="?AssignMatrix@@YAXAAVVMatrix4d@@ABVVMatrix4f@@@Z" PURGE="0" COMMENT="" />
    <EXPORT ORDINAL="809" NAME="?AssignMatrix@@YAXAAVVMatrix4f@@ABV1@@Z" PURGE="0" COMMENT="" />
    <EXPORT ORDINAL="810" NAME="?AssignMatrix@@YAXAAVVMatrix4f@@ABVVMatrix4d@@@Z" PURGE="0" COMMENT="" />
    <EXPORT ORDINAL="811" NAME="?AssignThreadToProcessor@VThreadManager@@QAEXHH@Z" PURGE="8" COMMENT="" />
    <EXPORT ORDINAL="812" NAME="?Attach@VPList@@QAEXAAV1@@Z" PURGE="4" COMMENT="" />
    <EXPORT ORDINAL="813" NAME="?Attribute@TiXmlElement@@QBEPBDPBD@Z" PURGE="4" COMMENT="" />
    <EXPORT ORDINAL="814" NAME="?Attribute@TiXmlElement@@QBEPBDPBDPAH@Z" PURGE="8" COMMENT="" />
    <EXPORT ORDINAL="815" NAME="?Attribute@TiXmlElement@@QBEPBDPBDPAN@Z" PURGE="8" COMMENT="" />
    <EXPORT ORDINAL="816" NAME="?BackToFrontSlash@VPathHelper@@SAXPAD@Z" PURGE="0" COMMENT="" />
    <EXPORT ORDINAL="817" NAME="?BaseExecuteOneAction@VActionManager@@IAEHVVString@@HH@Z" PURGE="12" COMMENT="" />
    <EXPORT ORDINAL="818" NAME="?BeginDryRun@VChunkFile@@QAEXXZ" PURGE="0" COMMENT="" />
    <EXPORT ORDINAL="819" NAME="?Blank@TiXmlText@@IBE_NXZ" PURGE="0" COMMENT="" />
    <EXPORT ORDINAL="820" NAME="?Build@VBBoxOctree@@QAEHPAUVBBoxOctreeNodeElemDesc@@HH@Z" PURGE="12" COMMENT="" />
    <EXPORT ORDINAL="821" NAME="?Build@VBBoxOctreeNode@@QAEXAAV?$VArray@PAUVBBoxOctreeNodeElemDesc@@PAU1@@@HH@Z" PURGE="12" COMMENT="" />
    <EXPORT ORDINAL="822" NAME="?BuildFrom@VParamBlock@@SAPAV1@PAVVParamDesc@@@Z" PURGE="0" COMMENT="" />
    <EXPORT ORDINAL="823" NAME="?BuildTestFilePath@VTestClass@@QBEPBD_NPBD@Z" PURGE="8" COMMENT="" />
    <EXPORT ORDINAL="824" NAME="?BuildTestFilePath@VTestUnit@@QBEPBD_NPBD@Z" PURGE="8" COMMENT="" />
    <EXPORT ORDINAL="825" NAME="?CDATA@TiXmlText@@QBE_NXZ" PURGE="0" COMMENT="" />
    <EXPORT ORDINAL="826" NAME="?CStr@TiXmlPrinter@@QAEPBDXZ" PURGE="0" COMMENT="" />
    <EXPORT ORDINAL="827" NAME="?CalcBestFit@VPlane4d@@QAE_NHPAVVVertex3d@@@Z" PURGE="8" COMMENT="" />
    <EXPORT ORDINAL="828" NAME="?CalcBestFitLeastSquare@VPlane4d@@QAE_NHPAVVVertex3d@@@Z" PURGE="8" COMMENT="" />
    <EXPORT ORDINAL="829" NAME="?CalcBestFitOrthogonalRegression@VPlane4d@@QAE_NHPAVVVertex3d@@@Z" PURGE="8" COMMENT="" />
    <EXPORT ORDINAL="830" NAME="?CalcPlane@VPolygon@@QAEXXZ" PURGE="0" COMMENT="" />
    <EXPORT ORDINAL="831" NAME="?CanAssign@VTypedObjectReference@@QAE_NPAUVType@@@Z" PURGE="4" COMMENT="" />
    <EXPORT ORDINAL="832" NAME="?CanAssign@VTypedObjectReference@@QAE_NPAVVTypedObject@@@Z" PURGE="4" COMMENT="" />
    <EXPORT ORDINAL="833" NAME="?CanBeRemoved@VModule@@QAE_NXZ" PURGE="0" COMMENT="" />
    <EXPORT ORDINAL="834" NAME="?CanIssueCommands@vPlatformStubDX11@@UAEHXZ" PURGE="0" COMMENT="" />
    <EXPORT ORDINAL="835" NAME="?CanIssueCommands@vPlatformStubDX9@@UAEHXZ" PURGE="0" COMMENT="" />
    <EXPORT ORDINAL="836" NAME="?CanIssueCommands@vPlatformStubGLES2@@UAEHXZ" PURGE="0" COMMENT="" />
    <EXPORT ORDINAL="837" NAME="?CanIssueCommands@vPlatformStubLinux@@UAEHXZ" PURGE="0" COMMENT="" />
    <EXPORT ORDINAL="838" NAME="?CanIssueCommands@vPlatformStubPS3@@UAEHXZ" PURGE="0" COMMENT="" />
    <EXPORT ORDINAL="839" NAME="?CanIssueCommands@vPlatformStubPSP2@@UAEHXZ" PURGE="0" COMMENT="" />
    <EXPORT ORDINAL="840" NAME="?CanIssueCommands@vPlatformStubWii@@UAEHXZ" PURGE="0" COMMENT="" />
    <EXPORT ORDINAL="841" NAME="?CanIssueCommands@vPlatformStubXbox360@@UAEHXZ" PURGE="0" COMMENT="" />
    <EXPORT ORDINAL="842" NAME="?ChDir@VFileHelper@@SA_NPBD@Z" PURGE="0" COMMENT="" />
    <EXPORT ORDINAL="843" NAME="?ChangeFirstAndLastInnerQuotes@VArgList@@AAEXAAVVString@@@Z" PURGE="4" COMMENT="" />
    <EXPORT ORDINAL="844" NAME="?ChangeScreenSettings@VVideo@@SA_NAAVVVideoConfig@@@Z" PURGE="0" COMMENT="" />
    <EXPORT ORDINAL="845" NAME="?ChangeSecondaryScreenSettings@VVideo@@SA_NAAVVVideoConfig@@@Z" PURGE="0" COMMENT="" />
    <EXPORT ORDINAL="846" NAME="?ChangeTaskPriority@VThreadManager@@QAEXPAVVThreadedTask@@H@Z" PURGE="8" COMMENT="" />
    <EXPORT ORDINAL="847" NAME="?ChangeWindowCreationFlagsByType@VWindowConfig@@QAEXPAHH@Z" PURGE="8" COMMENT="" />
    <EXPORT ORDINAL="848" NAME="?CheckFileModified@VManagedResource@@QAEHPAVIVFileStreamManager@@HH@Z" PURGE="12" COMMENT="" />
    <EXPORT ORDINAL="849" NAME="?CheckHardwareProcessingSupport@VVideo@@SA_NAAVVVideoConfig@@@Z" PURGE="0" COMMENT="" />
    <EXPORT ORDINAL="850" NAME="?CheckValid@VLightmapPrimitive@@QBE_NPAVIVLog@@@Z" PURGE="4" COMMENT="" />
    <EXPORT ORDINAL="851" NAME="?CheckValid@VLightmapSceneInfo@@QBE_NPAVIVLog@@@Z" PURGE="4" COMMENT="" />
    <EXPORT ORDINAL="852" NAME="?CheckValidVertex@VLightmapPrimitive@@QBE_NPAUMeshVertex_t@1@PAVIVLog@@AA_NH@Z" PURGE="16" COMMENT="" />
    <EXPORT ORDINAL="853" NAME="?Child@TiXmlHandle@@QBE?AV1@H@Z" PURGE="8" COMMENT="" />
    <EXPORT ORDINAL="854" NAME="?Child@TiXmlHandle@@QBE?AV1@PBDH@Z" PURGE="12" COMMENT="" />
    <EXPORT ORDINAL="855" NAME="?ChildElement@TiXmlHandle@@QBE?AV1@H@Z" PURGE="8" COMMENT="" />
    <EXPORT ORDINAL="856" NAME="?ChildElement@TiXmlHandle@@QBE?AV1@PBDH@Z" PURGE="12" COMMENT="" />
    <EXPORT ORDINAL="857" NAME="?ChunkFileExchange@VResourceSnapshotEntryRetail@@QAEXAAVVResourceSnapshot@@AAVVChunkFile@@@Z" PURGE="8" COMMENT="" />
    <EXPORT ORDINAL="858" NAME="?ChunkFileExchange@VShaderConstantTable@@QAEXAAVVChunkFile@@@Z" PURGE="4" COMMENT="" />
    <EXPORT ORDINAL="859" NAME="?ChunkFileExchange@VShaderEffectLib@@QAEXAAVVChunkFile@@W4VTargetPlatform@@@Z" PURGE="8" COMMENT="" />
    <EXPORT ORDINAL="860" NAME="?ChunkFileExchange@VShaderEffectResource@@QAEXAAVVChunkFile@@W4VTargetPlatform@@@Z" PURGE="8" COMMENT="" />
    <EXPORT ORDINAL="861" NAME="?ChunkFileExchange@VShaderParam@@QAEXAAVVChunkFile@@@Z" PURGE="4" COMMENT="" />
    <EXPORT ORDINAL="862" NAME="?ChunkFileExchange@VShaderPassResource@@QAEXAAVVChunkFile@@W4VTargetPlatform@@@Z" PURGE="8" COMMENT="" />
    <EXPORT ORDINAL="863" NAME="?ChunkFileExchange@VShaderProgramResource@@QAEXAAVVChunkFile@@PAVVShaderPassResource@@W4VTargetPlatform@@@Z" PURGE="12" COMMENT="" />
    <EXPORT ORDINAL="864" NAME="?ChunkFileExchange@VStateGroupBlend@@QAEXAAVVChunkFile@@@Z" PURGE="4" COMMENT="" />
    <EXPORT ORDINAL="865" NAME="?ChunkFileExchange@VStateGroupDepthStencil@@QAEXAAVVChunkFile@@@Z" PURGE="4" COMMENT="" />
    <EXPORT ORDINAL="866" NAME="?ChunkFileExchange@VStateGroupRasterizer@@QAEXAAVVChunkFile@@@Z" PURGE="4" COMMENT="" />
    <EXPORT ORDINAL="867" NAME="?ChunkFileExchange@VStateGroupSampler@@QAEXAAVVChunkFile@@@Z" PURGE="4" COMMENT="" />
    <EXPORT ORDINAL="868" NAME="?ChunkFileExchange@VStateGroupTesselation@@QAEXAAVVChunkFile@@@Z" PURGE="4" COMMENT="" />
    <EXPORT ORDINAL="869" NAME="?ChunkFileExchange@VStateGroupTexture@@QAEXAAVVChunkFile@@@Z" PURGE="4" COMMENT="" />
    <EXPORT ORDINAL="870" NAME="?ChunkFileExchange@VTechniqueConfig@@QAEXAAVVChunkFile@@@Z" PURGE="4" COMMENT="" />
    <EXPORT ORDINAL="871" NAME="?Clamp@VBBox@@QBEXAAVVVertex3d@@@Z" PURGE="4" COMMENT="" />
    <EXPORT ORDINAL="872" NAME="?ClampConstantBufferRanges@VCompiledShaderPass@@QAEXXZ" PURGE="0" COMMENT="" />
    <EXPORT ORDINAL="873" NAME="?ClampRange@IVConstantBuffer@@QAEXHH@Z" PURGE="8" COMMENT="" />
    <EXPORT ORDINAL="874" NAME="?ClampValuesToValidRange@VStateGroupSampler@@QAEXXZ" PURGE="0" COMMENT="" />
    <EXPORT ORDINAL="875" NAME="?Classify@VPlane4d@@QBEHAAVVVertex3d@@@Z" PURGE="4" COMMENT="" />
    <EXPORT ORDINAL="876" NAME="?Classify@VPlane4d@@QBEHAAVVVertex3f@@@Z" PURGE="4" COMMENT="" />
    <EXPORT ORDINAL="877" NAME="?Classify@VPlane4d@@QBEHPAVVPolygon@@@Z" PURGE="4" COMMENT="" />
    <EXPORT ORDINAL="878" NAME="?CleanupAfterSerialize@VParamContainer@@KAXAAVVArchive@@@Z" PURGE="0" COMMENT="" />
    <EXPORT ORDINAL="879" NAME="?Clear@TiXmlCursor@@QAEXXZ" PURGE="0" COMMENT="" />
    <EXPORT ORDINAL="880" NAME="?Clear@TiXmlNode@@QAEXXZ" PURGE="0" COMMENT="" />
    <EXPORT ORDINAL="881" NAME="?Clear@VCompiledShaderManager@@QAEXXZ" PURGE="0" COMMENT="" />
    <EXPORT ORDINAL="882" NAME="?ClearArgs@VArgList@@QAEXXZ" PURGE="0" COMMENT="" />
    <EXPORT ORDINAL="883" NAME="?ClearError@TiXmlDocument@@QAEXXZ" PURGE="0" COMMENT="" />
    <EXPORT ORDINAL="884" NAME="?ClearImage@Image_cl@@QAEXXZ" PURGE="0" COMMENT="" />
    <EXPORT ORDINAL="885" NAME="?ClearNameList@VShaderParam@@SAXXZ" PURGE="0" COMMENT="" />
    <EXPORT ORDINAL="886" NAME="?ClearTagList@VTechniqueConfig@@SAXXZ" PURGE="0" COMMENT="" />
    <EXPORT ORDINAL="887" NAME="?ClearThis@TiXmlElement@@IAEXXZ" PURGE="0" COMMENT="" />
    <EXPORT ORDINAL="888" NAME="?Clone@TiXmlComment@@UBEPAVTiXmlNode@@XZ" PURGE="0" COMMENT="" />
    <EXPORT ORDINAL="889" NAME="?Clone@TiXmlDeclaration@@UBEPAVTiXmlNode@@XZ" PURGE="0" COMMENT="" />
    <EXPORT ORDINAL="890" NAME="?Clone@TiXmlDocument@@MBEPAVTiXmlNode@@XZ" PURGE="0" COMMENT="" />
    <EXPORT ORDINAL="891" NAME="?Clone@TiXmlElement@@UBEPAVTiXmlNode@@XZ" PURGE="0" COMMENT="" />
    <EXPORT ORDINAL="892" NAME="?Clone@TiXmlText@@MBEPAVTiXmlNode@@XZ" PURGE="0" COMMENT="" />
    <EXPORT ORDINAL="893" NAME="?Clone@TiXmlUnknown@@UBEPAVTiXmlNode@@XZ" PURGE="0" COMMENT="" />
    <EXPORT ORDINAL="894" NAME="?Clone@VCompiledShaderPass@@UBEPAV1@XZ" PURGE="0" COMMENT="" />
    <EXPORT ORDINAL="895" NAME="?Clone@VCompositeParam@@QAEPAV1@XZ" PURGE="0" COMMENT="" />
    <EXPORT ORDINAL="896" NAME="?Clone@VLightGrid_cl@@QBEPAV1@XZ" PURGE="0" COMMENT="" />
    <EXPORT ORDINAL="897" NAME="?Clone@VParam@@QAEPAV1@XZ" PURGE="0" COMMENT="" />
    <EXPORT ORDINAL="898" NAME="?Clone@VParamArray@@QAEPAV1@XZ" PURGE="0" COMMENT="" />
    <EXPORT ORDINAL="899" NAME="?Clone@VParamBlock@@QAEPAV1@XZ" PURGE="0" COMMENT="" />
    <EXPORT ORDINAL="900" NAME="?Clone@VParamContainer@@QAEPAV1@XZ" PURGE="0" COMMENT="" />
    <EXPORT ORDINAL="901" NAME="?Clone@VParamDesc@@QAEPAV1@XZ" PURGE="0" COMMENT="" />
    <EXPORT ORDINAL="902" NAME="?Clone@VPolygon@@UAEPAV1@HPBVVVertex3d@@@Z" PURGE="8" COMMENT="" />
    <EXPORT ORDINAL="903" NAME="?Clone@VPolygon@@UAEPAV1@XZ" PURGE="0" COMMENT="" />
    <EXPORT ORDINAL="904" NAME="?Close@RGBAStream@@UAEXXZ" PURGE="0" COMMENT="" />
    <EXPORT ORDINAL="905" NAME="?Close@VArchive@@QAEXXZ" PURGE="0" COMMENT="" />
    <EXPORT ORDINAL="906" NAME="?Close@VChunkFile@@QAEHXZ" PURGE="0" COMMENT="" />
    <EXPORT ORDINAL="907" NAME="?Close@VChunkFileDebugOut_cl@@QAEHXZ" PURGE="0" COMMENT="" />
    <EXPORT ORDINAL="908" NAME="?Close@VDiskFileInStream@@UAEXXZ" PURGE="0" COMMENT="" />
    <EXPORT ORDINAL="909" NAME="?Close@VDiskFileOutStream@@UAEXXZ" PURGE="0" COMMENT="" />
    <EXPORT ORDINAL="910" NAME="?Close@VFileAccess@@SAXPAUVFileHandle@@@Z" PURGE="-1" COMMENT="" />
    <EXPORT ORDINAL="911" NAME="?Close@VMemBlockWrapperStream@@UAEXXZ" PURGE="0" COMMENT="" />
    <EXPORT ORDINAL="912" NAME="?Close@VMemoryInStream@@UAEXXZ" PURGE="0" COMMENT="" />
    <EXPORT ORDINAL="913" NAME="?Close@VMemoryOutStream@@UAEXXZ" PURGE="0" COMMENT="" />
    <EXPORT ORDINAL="914" NAME="?Close@VShaderIncludeManager@@MAGJPBX@Z" PURGE="8" COMMENT="" />
    <EXPORT ORDINAL="915" NAME="?Close@VTextureLoader@@QAEXXZ" PURGE="0" COMMENT="" />
    <EXPORT ORDINAL="916" NAME="?CollidesWithSphere@VSimpleCollisionMesh@@QAE_NABVVVertex3f@@MPAUVTraceHitInfo@@@Z" PURGE="12" COMMENT="" />
    <EXPORT ORDINAL="917" NAME="?ColorMapAnimated@Image_cl@@QAEAAHXZ" PURGE="0" COMMENT="" />
    <EXPORT ORDINAL="918" NAME="?ColorToString@XMLHelper@@YAPBDUVColorRef@@HPAD@Z" PURGE="0" COMMENT="" />
    <EXPORT ORDINAL="919" NAME="?Column@TiXmlBase@@QBEHXZ" PURGE="0" COMMENT="" />
    <EXPORT ORDINAL="920" NAME="?CombineColorAndOpacityMap@Image_cl@@SAJPAPAEPAE1J@Z" PURGE="0" COMMENT="" />
    <EXPORT ORDINAL="921" NAME="?CombineDirAndFile@VPathHelper@@SAXPADPBD1_N@Z" PURGE="0" COMMENT="" />
    <EXPORT ORDINAL="922" NAME="?CommandTypeCompare@VCommandManager@@KAHPBX0@Z" PURGE="0" COMMENT="" />
    <EXPORT ORDINAL="923" NAME="?CompareBitmaps@VImageComparison@@QAEHAAH0HH@Z" PURGE="16" COMMENT="" />
    <EXPORT ORDINAL="924" NAME="?CompareBitmapsAndSave@VImageComparison@@QAEHPBDAAH1HH@Z" PURGE="20" COMMENT="" />
    <EXPORT ORDINAL="925" NAME="?CompareFileName@VManagedResource@@QBEHPBDI@Z" PURGE="8" COMMENT="" />
    <EXPORT ORDINAL="926" NAME="?CompareFileToSpec@@YAHPBD0@Z" PURGE="0" COMMENT="" />
    <EXPORT ORDINAL="927" NAME="?CompareFiles@VTestClass@@QAEHPBD0PAVIVFileStreamManager@@@Z" PURGE="12" COMMENT="" />
    <EXPORT ORDINAL="928" NAME="?CompareNoCase@VHashString@@QBE_NABV1@@Z" PURGE="4" COMMENT="" />
    <EXPORT ORDINAL="929" NAME="?CompareNoCase@VHashString@@QBE_NPBD@Z" PURGE="4" COMMENT="" />
    <EXPORT ORDINAL="930" NAME="?CompareNoCase@VHashString@@QBE_NPBDH@Z" PURGE="8" COMMENT="" />
    <EXPORT ORDINAL="931" NAME="?CompareNoCase@VString@@QBE_NPBD@Z" PURGE="4" COMMENT="" />
    <EXPORT ORDINAL="932" NAME="?CompareNoCase@VUniString@@QBE_NPB_W@Z" PURGE="4" COMMENT="" />
    <EXPORT ORDINAL="933" NAME="?CompareNoSlashes@VPathHelper@@SA_NPBD0@Z" PURGE="0" COMMENT="" />
    <EXPORT ORDINAL="934" NAME="?CompileAll@VShaderPassResource@@QAE_NPAVIVLog@@W4VsfLoadSaveFlags_e@@PAVVProgressStatus@@H@Z" PURGE="16" COMMENT="" />
    <EXPORT ORDINAL="935" NAME="?CompileAllShaders@VShaderEffectLib@@QAE_NPAVIVLog@@W4VsfLoadSaveFlags_e@@PAVVProgressStatus@@H@Z" PURGE="16" COMMENT="" />
    <EXPORT ORDINAL="936" NAME="?CompileComputeShader@VShaderProgramResource@@QAE_NPBDHW4ShaderModel@1@W4VTargetPlatform@@PAHPAVIVLog@@H@Z" PURGE="28" COMMENT="" />
    <EXPORT ORDINAL="937" NAME="?CompileComputeShader@VShaderProgramResource@@SA_NPBDH0W4ShaderModel@1@W4VTargetPlatform@@PAPAHPAHPAVVShaderConstantTable@@444PAVIVLog@@H@Z" PURGE="0" COMMENT="" />
    <EXPORT ORDINAL="938" NAME="?CompileDomainShader@VShaderProgramResource@@QAE_NPBDHW4ShaderModel@1@W4VTargetPlatform@@PAHPAVIVLog@@H@Z" PURGE="28" COMMENT="" />
    <EXPORT ORDINAL="939" NAME="?CompileDomainShader@VShaderProgramResource@@SA_NPBDH0W4ShaderModel@1@W4VTargetPlatform@@PAPAHPAHPAVVShaderConstantTable@@444PAVIVLog@@H@Z" PURGE="0" COMMENT="" />
    <EXPORT ORDINAL="940" NAME="?CompileEffect@VShaderEffectResource@@QAEPAVVCompiledEffect@@PBDAAVVCompiledShaderManager@@HPAVIVLog@@@Z" PURGE="16" COMMENT="" />
    <EXPORT ORDINAL="941" NAME="?CompileGeometryShader@VShaderProgramResource@@QAE_NPBDHW4ShaderModel@1@W4VTargetPlatform@@PAHPAVIVLog@@H@Z" PURGE="28" COMMENT="" />
    <EXPORT ORDINAL="942" NAME="?CompileGeometryShader@VShaderProgramResource@@SA_NPBDH0W4ShaderModel@1@W4VTargetPlatform@@PAPAHPAHPAVVShaderConstantTable@@444PAVIVLog@@H@Z" PURGE="0" COMMENT="" />
    <EXPORT ORDINAL="943" NAME="?CompileHullShader@VShaderProgramResource@@QAE_NPBDHW4ShaderModel@1@W4VTargetPlatform@@PAH3PAVIVLog@@H@Z" PURGE="32" COMMENT="" />
    <EXPORT ORDINAL="944" NAME="?CompileHullShader@VShaderProgramResource@@SA_NPBDH0W4ShaderModel@1@W4VTargetPlatform@@PAPAHPAHPAVVShaderConstantTable@@4444PAVIVLog@@H@Z" PURGE="0" COMMENT="" />
    <EXPORT ORDINAL="945" NAME="?CompilePixelShader@VShaderProgramResource@@QAE_NPBDHW4ShaderModel@1@W4VTargetPlatform@@PAHPAVIVLog@@H@Z" PURGE="28" COMMENT="" />
    <EXPORT ORDINAL="946" NAME="?CompilePixelShader@VShaderProgramResource@@SA_NPBDH0W4ShaderModel@1@W4VTargetPlatform@@PAPAHPAHPAVVShaderConstantTable@@444PAVIVLog@@H@Z" PURGE="0" COMMENT="" />
    <EXPORT ORDINAL="947" NAME="?CompileShader@vPlatformStubDX11@@UAEHAAUVShaderSourceInfo_t@@@Z" PURGE="4" COMMENT="" />
    <EXPORT ORDINAL="948" NAME="?CompileShader@vPlatformStubDX9@@UAEHAAUVShaderSourceInfo_t@@@Z" PURGE="4" COMMENT="" />
    <EXPORT ORDINAL="949" NAME="?CompileShader@vPlatformStubGLES2@@UAEHAAUVShaderSourceInfo_t@@@Z" PURGE="4" COMMENT="" />
    <EXPORT ORDINAL="950" NAME="?CompileShader@vPlatformStubLinux@@UAEHAAUVShaderSourceInfo_t@@@Z" PURGE="4" COMMENT="" />
    <EXPORT ORDINAL="951" NAME="?CompileShader@vPlatformStubPS3@@UAEHAAUVShaderSourceInfo_t@@@Z" PURGE="4" COMMENT="" />
    <EXPORT ORDINAL="952" NAME="?CompileShader@vPlatformStubPSP2@@UAEHAAUVShaderSourceInfo_t@@@Z" PURGE="4" COMMENT="" />
    <EXPORT ORDINAL="953" NAME="?CompileShader@vPlatformStubWii@@UAEHAAUVShaderSourceInfo_t@@@Z" PURGE="4" COMMENT="" />
    <EXPORT ORDINAL="954" NAME="?CompileShader@vPlatformStubXbox360@@UAEHAAUVShaderSourceInfo_t@@@Z" PURGE="4" COMMENT="" />
    <EXPORT ORDINAL="955" NAME="?CompileVertexShader@VShaderProgramResource@@QAE_NPBDHW4ShaderModel@1@W4VTargetPlatform@@PAHPAVIVLog@@H_N@Z" PURGE="32" COMMENT="" />
    <EXPORT ORDINAL="956" NAME="?CompileVertexShader@VShaderProgramResource@@SA_NPBDH0W4ShaderModel@1@W4VTargetPlatform@@PAPAHPAHPAVVShaderConstantTable@@444PAVIVLog@@H_N@Z" PURGE="0" COMMENT="" />
    <EXPORT ORDINAL="957" NAME="?ComputeBoundingBox@VSimpleCollisionMeshBase@@QAEXXZ" PURGE="0" COMMENT="" />
    <EXPORT ORDINAL="958" NAME="?ComputeDownScaleFactor@VTextureObject@@IAEHXZ" PURGE="0" COMMENT="" />
    <EXPORT ORDINAL="959" NAME="?ComputeHash@@YAIPBXI@Z" PURGE="0" COMMENT="" />
    <EXPORT ORDINAL="960" NAME="?ComputeHash@VisMBVertexDescriptor_t@@QAEXXZ" PURGE="0" COMMENT="" />
    <EXPORT ORDINAL="961" NAME="?ComputeStateHashes@VCompiledShaderPass@@QAEXXZ" PURGE="0" COMMENT="" />
    <EXPORT ORDINAL="962" NAME="?ComputeTrianglePlanes@VSimpleCollisionMesh@@QAEXXZ" PURGE="0" COMMENT="" />
    <EXPORT ORDINAL="963" NAME="?Connect@vPlatformStubDX11@@UAEHPBD@Z" PURGE="4" COMMENT="" />
    <EXPORT ORDINAL="964" NAME="?Connect@vPlatformStubDX9@@UAEHPBD@Z" PURGE="4" COMMENT="" />
    <EXPORT ORDINAL="965" NAME="?Connect@vPlatformStubGLES2@@UAEHPBD@Z" PURGE="4" COMMENT="" />
    <EXPORT ORDINAL="966" NAME="?Connect@vPlatformStubLinux@@UAEHPBD@Z" PURGE="4" COMMENT="" />
    <EXPORT ORDINAL="967" NAME="?Connect@vPlatformStubPS3@@UAEHPBD@Z" PURGE="4" COMMENT="" />
    <EXPORT ORDINAL="968" NAME="?Connect@vPlatformStubPSP2@@UAEHPBD@Z" PURGE="4" COMMENT="" />
    <EXPORT ORDINAL="969" NAME="?Connect@vPlatformStubWii@@UAEHPBD@Z" PURGE="4" COMMENT="" />
    <EXPORT ORDINAL="970" NAME="?Connect@vPlatformStubXbox360@@UAEHPBD@Z" PURGE="4" COMMENT="" />
    <EXPORT ORDINAL="971" NAME="?ContainSupportedOpperation@VParamExpression@@QAEHXZ" PURGE="0" COMMENT="" />
    <EXPORT ORDINAL="972" NAME="?Contains@@YAPBDPBD0@Z" PURGE="0" COMMENT="" />
    <EXPORT ORDINAL="973" NAME="?Contains@VBBox@@QBEHABV1@@Z" PURGE="4" COMMENT="" />
    <EXPORT ORDINAL="974" NAME="?ContainsI@@YAPBDPBD0@Z" PURGE="0" COMMENT="" />
    <EXPORT ORDINAL="975" NAME="?ConvertFilename@VPathHelper@@SA_NPADPBD1@Z" PURGE="0" COMMENT="" />
    <EXPORT ORDINAL="976" NAME="?ConvertFromLocale@VString@@QAEXXZ" PURGE="0" COMMENT="" />
    <EXPORT ORDINAL="977" NAME="?ConvertFromLocale@VUniString@@QAEXXZ" PURGE="0" COMMENT="" />
    <EXPORT ORDINAL="978" NAME="?ConvertQuotesToInnerQuotes@VArgList@@SAXAAVVString@@@Z" PURGE="0" COMMENT="" />
    <EXPORT ORDINAL="979" NAME="?ConvertTextureFilename@VTextureObject@@SA_NPADPBD@Z" PURGE="0" COMMENT="" />
    <EXPORT ORDINAL="980" NAME="?ConvertToLocale@VString@@QAEXXZ" PURGE="0" COMMENT="" />
    <EXPORT ORDINAL="981" NAME="?ConvertToLocale@VUniString@@QAEXXZ" PURGE="0" COMMENT="" />
    <EXPORT ORDINAL="982" NAME="?ConvertUTF32ToUTF8@TiXmlBase@@KAXKPADPAH@Z" PURGE="0" COMMENT="" />
    <EXPORT ORDINAL="983" NAME="?Copy@VActionList@@QAEXABV1@@Z" PURGE="4" COMMENT="" />
    <EXPORT ORDINAL="984" NAME="?Copy@VFileHelper@@SA_NPBD0_N@Z" PURGE="0" COMMENT="" />
    <EXPORT ORDINAL="985" NAME="?Copy@VModuleList@@QAEXABV1@@Z" PURGE="4" COMMENT="" />
    <EXPORT ORDINAL="986" NAME="?Copy@VPList@@QAEXABV1@@Z" PURGE="4" COMMENT="" />
    <EXPORT ORDINAL="987" NAME="?Copy@VParamContainerList@@QAEXABV1@@Z" PURGE="4" COMMENT="" />
    <EXPORT ORDINAL="988" NAME="?Copy@VParamList@@QAEXABV1@@Z" PURGE="4" COMMENT="" />
    <EXPORT ORDINAL="989" NAME="?Copy@VResourceList@@QAEXABV1@@Z" PURGE="4" COMMENT="" />
    <EXPORT ORDINAL="990" NAME="?Copy@VSenderReceiverList@@QAEXABV1@@Z" PURGE="4" COMMENT="" />
    <EXPORT ORDINAL="991" NAME="?Copy@VStringList@@QAEXABV1@@Z" PURGE="4" COMMENT="" />
    <EXPORT ORDINAL="992" NAME="?Copy@VSurfaceAssignmentList@@QAEXABV1@@Z" PURGE="4" COMMENT="" />
    <EXPORT ORDINAL="993" NAME="?CopyAll@@YAJPBD0JP6AXPAD@Z@Z" PURGE="0" COMMENT="" />
    <EXPORT ORDINAL="994" NAME="?CopyByteCode@VShaderProgramResource@@QAEXW4VTargetPlatform@@W4ShaderModel@1@PBHH@Z" PURGE="16" COMMENT="" />
    <EXPORT ORDINAL="995" NAME="?CopyByteCode@VShaderProgramResource@@SAXPBHHPAPAH@Z" PURGE="0" COMMENT="" />
    <EXPORT ORDINAL="996" NAME="?CopyColorsFromBuffer@VLightGrid_cl@@QAEXPBVVVertex3f@@@Z" PURGE="4" COMMENT="" />
    <EXPORT ORDINAL="997" NAME="?CopyColorsToBuffer@VLightGrid_cl@@QBEHPAVVVertex3f@@@Z" PURGE="4" COMMENT="" />
    <EXPORT ORDINAL="998" NAME="?CopyFiles@VFileCopyList@@QAE_N_N0@Z" PURGE="8" COMMENT="" />
    <EXPORT ORDINAL="999" NAME="?CopyFromStream@VMemoryStream@@QAEHPAVIVFileInStream@@HPCM@Z" PURGE="12" COMMENT="" />
    <EXPORT ORDINAL="1000" NAME="?CopyPropertiesFromResource@VCompiledShaderPass@@QAEXAAVVShaderPassResource@@PAF11111@Z" PURGE="28" COMMENT="" />
    <EXPORT ORDINAL="1001" NAME="?CopyTo@TiXmlComment@@IBEXPAV1@@Z" PURGE="4" COMMENT="" />
    <EXPORT ORDINAL="1002" NAME="?CopyTo@TiXmlDeclaration@@IBEXPAV1@@Z" PURGE="4" COMMENT="" />
    <EXPORT ORDINAL="1003" NAME="?CopyTo@TiXmlDocument@@ABEXPAV1@@Z" PURGE="4" COMMENT="" />
    <EXPORT ORDINAL="1004" NAME="?CopyTo@TiXmlElement@@IBEXPAV1@@Z" PURGE="4" COMMENT="" />
    <EXPORT ORDINAL="1005" NAME="?CopyTo@TiXmlNode@@IBEXPAV1@@Z" PURGE="4" COMMENT="" />
    <EXPORT ORDINAL="1006" NAME="?CopyTo@TiXmlText@@IBEXPAV1@@Z" PURGE="4" COMMENT="" />
    <EXPORT ORDINAL="1007" NAME="?CopyTo@TiXmlUnknown@@IBEXPAV1@@Z" PURGE="4" COMMENT="" />
    <EXPORT ORDINAL="1008" NAME="?CopyToStream@VMemoryStream@@QBEHPAVIVFileOutStream@@H@Z" PURGE="8" COMMENT="" />
    <EXPORT ORDINAL="1009" NAME="?CopyValues@VParamBlock@@QAEXPAV1@@Z" PURGE="4" COMMENT="" />
    <EXPORT ORDINAL="1010" NAME="?CopyVertices@VisMBVertexDescriptor_t@@SAXPAXABU1@PBX1H@Z" PURGE="0" COMMENT="" />
    <EXPORT ORDINAL="1011" NAME="?CountMipLevels@VTextureObject@@SAHHH@Z" PURGE="0" COMMENT="" />
    <EXPORT ORDINAL="1012" NAME="?Create@VActionManager@@QAEPAVVAction@@PBD@Z" PURGE="4" COMMENT="" />
    <EXPORT ORDINAL="1013" NAME="?Create@VChunkFile@@QAEHAAVVArchive@@H@Z" PURGE="8" COMMENT="" />
    <EXPORT ORDINAL="1014" NAME="?Create@VChunkFile@@QAEHPAVIVFileOutStream@@H@Z" PURGE="8" COMMENT="" />
    <EXPORT ORDINAL="1015" NAME="?Create@VChunkFile@@QAEHPBDPAVIVFileStreamManager@@@Z" PURGE="8" COMMENT="" />
    <EXPORT ORDINAL="1016" NAME="?Create@VClipboard@@UAEPAVIVFileOutStream@@PBDH@Z" PURGE="8" COMMENT="" />
    <EXPORT ORDINAL="1017" NAME="?Create@VDiskFileStreamManager@@UAEPAVIVFileOutStream@@PBDH@Z" PURGE="8" COMMENT="" />
    <EXPORT ORDINAL="1018" NAME="?Create@VZipFileStreamManager@@UAEPAVIVFileOutStream@@PBDH@Z" PURGE="8" COMMENT="" />
    <EXPORT ORDINAL="1019" NAME="?CreateAlphaMap@Image_cl@@QAE_NAAV1@@Z" PURGE="4" COMMENT="" />
    <EXPORT ORDINAL="1020" NAME="?CreateCompiledShaderInstance@VCompiledShaderManager@@QBEPAVVCompiledShaderPass@@PBD_NPAVIVLog@@@Z" PURGE="12" COMMENT="" />
    <EXPORT ORDINAL="1021" NAME="?CreateDefaultWindow@VisionWindowManager@@SAHABVVWindowConfig@@@Z" PURGE="0" COMMENT="" />
    <EXPORT ORDINAL="1022" NAME="?CreateDeviceHandle@VTextureObject@@QAEHW4VTextureFormat_e@VTextureLoader@@_N1@Z" PURGE="12" COMMENT="" />
    <EXPORT ORDINAL="1023" NAME="?CreateDirectoryA@vPlatformStubDX11@@UAEHPBD@Z" PURGE="4" COMMENT="" />
    <EXPORT ORDINAL="1024" NAME="?CreateDirectoryA@vPlatformStubDX9@@UAEHPBD@Z" PURGE="4" COMMENT="" />
    <EXPORT ORDINAL="1025" NAME="?CreateDirectoryA@vPlatformStubGLES2@@UAEHPBD@Z" PURGE="4" COMMENT="" />
    <EXPORT ORDINAL="1026" NAME="?CreateDirectoryA@vPlatformStubLinux@@UAEHPBD@Z" PURGE="4" COMMENT="" />
    <EXPORT ORDINAL="1027" NAME="?CreateDirectoryA@vPlatformStubPS3@@UAEHPBD@Z" PURGE="4" COMMENT="" />
    <EXPORT ORDINAL="1028" NAME="?CreateDirectoryA@vPlatformStubPSP2@@UAEHPBD@Z" PURGE="4" COMMENT="" />
    <EXPORT ORDINAL="1029" NAME="?CreateDirectoryA@vPlatformStubWii@@UAEHPBD@Z" PURGE="4" COMMENT="" />
    <EXPORT ORDINAL="1030" NAME="?CreateDirectoryA@vPlatformStubXbox360@@UAEHPBD@Z" PURGE="4" COMMENT="" />
    <EXPORT ORDINAL="1031" NAME="?CreateEntries@VLightGrid_cl@@AAEHH@Z" PURGE="4" COMMENT="" />
    <EXPORT ORDINAL="1032" NAME="?CreateFileA@VFileHelper@@SA_NPBD@Z" PURGE="0" COMMENT="" />
    <EXPORT ORDINAL="1033" NAME="?CreateFileInStream@VResourceManager@@UAEPAVIVFileInStream@@PBDPAVVManagedResource@@@Z" PURGE="8" COMMENT="" />
    <EXPORT ORDINAL="1034" NAME="?CreateFileOutStream@VResourceManager@@UAEPAVIVFileOutStream@@PBDPAVVManagedResource@@@Z" PURGE="8" COMMENT="" />
    <EXPORT ORDINAL="1035" NAME="?CreateFullbrightLightGrid@VLightGrid_cl@@SAPAV1@ABVVBBoxf@@UVColorRef@@@Z" PURGE="0" COMMENT="" />
    <EXPORT ORDINAL="1036" NAME="?CreateInstance@VType@@QAEPAVVTypedObject@@XZ" PURGE="0" COMMENT="" />
    <EXPORT ORDINAL="1037" NAME="?CreateLink@@YAJPBD00@Z" PURGE="0" COMMENT="" />
    <EXPORT ORDINAL="1038" NAME="?CreateMaterial@VModelInfoXMLDocument@@QAEPAVTiXmlElement@@PAV2@PBD@Z" PURGE="8" COMMENT="" />
    <EXPORT ORDINAL="1039" NAME="?CreateMipmaps@VTextureObject@@QAEXXZ" PURGE="0" COMMENT="" />
    <EXPORT ORDINAL="1040" NAME="?CreateNewEntry@VReportEntry@@SAPAV1@W4VReportType@@@Z" PURGE="0" COMMENT="" />
    <EXPORT ORDINAL="1041" NAME="?CreateNewPrimitive@VLightmapSceneInfo@@QAEPAVVLightmapPrimitive@@XZ" PURGE="0" COMMENT="" />
    <EXPORT ORDINAL="1042" NAME="?CreateNewTechnique@VShaderEffectResource@@QAEPAVVShaderEffectTechnique@@XZ" PURGE="0" COMMENT="" />
    <EXPORT ORDINAL="1043" NAME="?CreateNormalMap@Image_cl@@QAE_NMH@Z" PURGE="8" COMMENT="" />
    <EXPORT ORDINAL="1044" NAME="?CreateObject@VCompiledShaderPass@@SAPAVVTypedObject@@XZ" PURGE="0" COMMENT="" />
    <EXPORT ORDINAL="1045" NAME="?CreateObject@VCompositeParam@@SAPAVVTypedObject@@XZ" PURGE="0" COMMENT="" />
    <EXPORT ORDINAL="1046" NAME="?CreateObject@VLoadingTask@@SAPAVVTypedObject@@XZ" PURGE="0" COMMENT="" />
    <EXPORT ORDINAL="1047" NAME="?CreateObject@VParamArray@@SAPAVVTypedObject@@XZ" PURGE="0" COMMENT="" />
    <EXPORT ORDINAL="1048" NAME="?CreateObject@VParamContainer@@SAPAVVTypedObject@@XZ" PURGE="0" COMMENT="" />
    <EXPORT ORDINAL="1049" NAME="?CreateObject@VParamDesc@@SAPAVVTypedObject@@XZ" PURGE="0" COMMENT="" />
    <EXPORT ORDINAL="1050" NAME="?CreateObject@VParamList@@SAPAVVTypedObject@@XZ" PURGE="0" COMMENT="" />
    <EXPORT ORDINAL="1051" NAME="?CreateObject@VRefTarget@@SAPAVVTypedObject@@XZ" PURGE="0" COMMENT="" />
    <EXPORT ORDINAL="1052" NAME="?CreateObject@VSenderReceiver@@SAPAVVTypedObject@@XZ" PURGE="0" COMMENT="" />
    <EXPORT ORDINAL="1053" NAME="?CreateObject@VTextureSerializationProxy@@SAPAVVTypedObject@@XZ" PURGE="0" COMMENT="" />
    <EXPORT ORDINAL="1054" NAME="?CreatePixelShader@VShaderProgramResource@@QAE_NAAV?$VSmartPtr@UIDirect3DPixelShader9@@@@PAVIVLog@@@Z" PURGE="8" COMMENT="" />
    <EXPORT ORDINAL="1055" NAME="?CreatePlainColorTexture@VTextureLoader@@QAEXABUVColorRef@@W4VTextureType_e@1@@Z" PURGE="8" COMMENT="" />
    <EXPORT ORDINAL="1056" NAME="?CreatePlainWhiteTexture@VTextureLoader@@QAEXW4VTextureType_e@1@@Z" PURGE="4" COMMENT="" />
    <EXPORT ORDINAL="1057" NAME="?CreateProxy@VManagedResource@@MAEPAVIVSerializationProxy@@XZ" PURGE="0" COMMENT="" />
    <EXPORT ORDINAL="1058" NAME="?CreateProxy@VTextureObject@@UAEPAVIVSerializationProxy@@XZ" PURGE="0" COMMENT="" />
    <EXPORT ORDINAL="1059" NAME="?CreateQuadVertices@IVRender2DInterface@@SAHMMMMMMMMUVColorRef@@PAUOverlay2DVertex_t@@@Z" PURGE="0" COMMENT="" />
    <EXPORT ORDINAL="1060" NAME="?CreateReplacementBlock@VManagedResource@@UAEXAAVVResourceSnapshot@@AAVVResourceSnapshotEntry@@PBD@Z" PURGE="12" COMMENT="" />
    <EXPORT ORDINAL="1061" NAME="?CreateReplacementBlock@VTextureObject@@MAEXAAVVResourceSnapshot@@AAVVResourceSnapshotEntry@@PBD@Z" PURGE="12" COMMENT="" />
    <EXPORT ORDINAL="1062" NAME="?CreateResource@VResourceManager@@UAEPAVVManagedResource@@PBDPAVVResourceSnapshotEntry@@@Z" PURGE="8" COMMENT="" />
    <EXPORT ORDINAL="1063" NAME="?CreateResource@VTextureManager@@UAEPAVVManagedResource@@PBDPAVVResourceSnapshotEntry@@@Z" PURGE="8" COMMENT="" />
    <EXPORT ORDINAL="1064" NAME="?CreateResourcePreview@VManagedResource@@UAEPAVIVResourcePreview@@XZ" PURGE="0" COMMENT="" />
    <EXPORT ORDINAL="1065" NAME="?CreateTheParameter@VParamArray@@IAEXW4VParamType@@@Z" PURGE="4" COMMENT="" />
    <EXPORT ORDINAL="1066" NAME="?CreateUpdaterTask@VManagedResource@@UAEPAVVThreadedTask@@XZ" PURGE="0" COMMENT="" />
    <EXPORT ORDINAL="1067" NAME="?CreateVWindow@VisionWindowA@@UAEPAUHWND__@@PBDIHHHHPAU2@@Z" PURGE="28" COMMENT="" />
    <EXPORT ORDINAL="1068" NAME="?CreateVWindow@VisionWindowW@@UAEPAUHWND__@@PBDIHHHHPAU2@@Z" PURGE="28" COMMENT="" />
    <EXPORT ORDINAL="1069" NAME="?CreateVertexShader@VShaderProgramResource@@QAE_NAAV?$VSmartPtr@UIDirect3DVertexShader9@@@@PAVIVLog@@@Z" PURGE="8" COMMENT="" />
    <EXPORT ORDINAL="1070" NAME="?CreateWorkflow@VStreamProcessor@@SAPAVVStreamProcessingWorkflow@@HH@Z" PURGE="0" COMMENT="" />
    <EXPORT ORDINAL="1071" NAME="?Cross@@YA?AVVVertex3d@@ABV1@0@Z" PURGE="0" COMMENT="" />
    <EXPORT ORDINAL="1072" NAME="?Cross@VVertex3d@@QAEXABV1@@Z" PURGE="4" COMMENT="" />
    <EXPORT ORDINAL="1073" NAME="?DeInit@VGamepadPC@@UAEXXZ" PURGE="0" COMMENT="" />
    <EXPORT ORDINAL="1074" NAME="?DeInit@VGamepadXI@@QAEXXZ" PURGE="0" COMMENT="" />
    <EXPORT ORDINAL="1075" NAME="?DeInit@VInputDeviceManagerPC@@SAXXZ" PURGE="0" COMMENT="" />
    <EXPORT ORDINAL="1076" NAME="?DeInit@VKeyboardPC@@QAEXXZ" PURGE="0" COMMENT="" />
    <EXPORT ORDINAL="1077" NAME="?DeInit@VMousePC@@QAEXXZ" PURGE="0" COMMENT="" />
    <EXPORT ORDINAL="1078" NAME="?DeInit@VTargetThread@@SAXXZ" PURGE="0" COMMENT="" />
    <EXPORT ORDINAL="1079" NAME="?DeInitProfiling@VProfilingNode@@SAXXZ" PURGE="0" COMMENT="" />
    <EXPORT ORDINAL="1080" NAME="?DeInitialize@VStreamProcessor@@SAXXZ" PURGE="0" COMMENT="" />
    <EXPORT ORDINAL="1081" NAME="?DeInitialize@VThreadManager@@QAEXXZ" PURGE="0" COMMENT="" />
    <EXPORT ORDINAL="1082" NAME="?DeInitializeD3D@VVideo@@SAXXZ" PURGE="0" COMMENT="" />
    <EXPORT ORDINAL="1083" NAME="?DeInitializeScreen@VVideo@@SA_NAAVVVideoConfig@@@Z" PURGE="0" COMMENT="" />
    <EXPORT ORDINAL="1084" NAME="?DeInitializeSecondaryScreen@VVideo@@SA_NAAVVVideoConfig@@@Z" PURGE="0" COMMENT="" />
    <EXPORT ORDINAL="1085" NAME="?DebugOutput@VResourceManager@@UAEXPAVVActionManager@@@Z" PURGE="4" COMMENT="" />
    <EXPORT ORDINAL="1086" NAME="?DecodeDXT1A@VCompressionHelper@@YAXPAUVColorRef@@PBEHH@Z" PURGE="0" COMMENT="" />
    <EXPORT ORDINAL="1087" NAME="?DecodeDXT3@VCompressionHelper@@YAXPAUVColorRef@@PBEHH@Z" PURGE="0" COMMENT="" />
    <EXPORT ORDINAL="1088" NAME="?DecodeDXT5@VCompressionHelper@@YAXPAUVColorRef@@PBEHH@Z" PURGE="0" COMMENT="" />
    <EXPORT ORDINAL="1089" NAME="?DecodeRGB555@VCompressionHelper@@YAXPAUVColorRef@@PBGHH@Z" PURGE="0" COMMENT="" />
    <EXPORT ORDINAL="1090" NAME="?DecodeRGB565@VCompressionHelper@@YAXPAUVColorRef@@PBGHH@Z" PURGE="0" COMMENT="" />
    <EXPORT ORDINAL="1091" NAME="?DecodeRGBA1555@VCompressionHelper@@YAXPAUVColorRef@@PBGHH@Z" PURGE="0" COMMENT="" />
    <EXPORT ORDINAL="1092" NAME="?DecodeRGBA4444@VCompressionHelper@@YAXPAUVColorRef@@PBGHH@Z" PURGE="0" COMMENT="" />
    <EXPORT ORDINAL="1093" NAME="?DecodeRLE@VCompressionHelper@@YAXPAEPAVIVFileInStream@@HH@Z" PURGE="0" COMMENT="" />
    <EXPORT ORDINAL="1094" NAME="?DecodeRLE@VCompressionHelper@@YAXPAEPBEHH@Z" PURGE="0" COMMENT="" />
    <EXPORT ORDINAL="1095" NAME="?DecompressImage@VTextureLoader@@IAE_NXZ" PURGE="0" COMMENT="" />
    <EXPORT ORDINAL="1096" NAME="?Delete@VFileHelper@@SA_NPBD_N@Z" PURGE="0" COMMENT="" />
    <EXPORT ORDINAL="1097" NAME="?Delete@VParamDesc@@QAEXPAVVParam@@PAVVParamBlock@@@Z" PURGE="8" COMMENT="" />
    <EXPORT ORDINAL="1098" NAME="?DeleteAllResources@VResourceManager@@QAEIXZ" PURGE="0" COMMENT="" />
    <EXPORT ORDINAL="1099" NAME="?DeleteColorMaps@Image_cl@@QAEXXZ" PURGE="0" COMMENT="" />
    <EXPORT ORDINAL="1100" NAME="?DeleteFiles@vPlatformStubDX11@@UAEHPBDH@Z" PURGE="8" COMMENT="" />
    <EXPORT ORDINAL="1101" NAME="?DeleteFiles@vPlatformStubDX9@@UAEHPBDH@Z" PURGE="8" COMMENT="" />
    <EXPORT ORDINAL="1102" NAME="?DeleteFiles@vPlatformStubGLES2@@UAEHPBDH@Z" PURGE="8" COMMENT="" />
    <EXPORT ORDINAL="1103" NAME="?DeleteFiles@vPlatformStubLinux@@UAEHPBDH@Z" PURGE="8" COMMENT="" />
    <EXPORT ORDINAL="1104" NAME="?DeleteFiles@vPlatformStubPS3@@UAEHPBDH@Z" PURGE="8" COMMENT="" />
    <EXPORT ORDINAL="1105" NAME="?DeleteFiles@vPlatformStubPSP2@@UAEHPBDH@Z" PURGE="8" COMMENT="" />
    <EXPORT ORDINAL="1106" NAME="?DeleteFiles@vPlatformStubWii@@UAEHPBDH@Z" PURGE="8" COMMENT="" />
    <EXPORT ORDINAL="1107" NAME="?DeleteFiles@vPlatformStubXbox360@@UAEHPBDH@Z" PURGE="8" COMMENT="" />
    <EXPORT ORDINAL="1108" NAME="?DeleteHeightMaps@Image_cl@@QAEXXZ" PURGE="0" COMMENT="" />
    <EXPORT ORDINAL="1109" NAME="?DeleteOldestUndoAction@VUndoRedoStack@@IAEXXZ" PURGE="0" COMMENT="" />
    <EXPORT ORDINAL="1110" NAME="?DeleteOpacityMaps@Image_cl@@QAEXXZ" PURGE="0" COMMENT="" />
    <EXPORT ORDINAL="1111" NAME="?DeleteVariable@VisVariable_cl@@SAXPAV1@@Z" PURGE="0" COMMENT="" />
    <EXPORT ORDINAL="1112" NAME="?DeregisterCallback@VCallback@@QAEHPAVIVisCallbackHandler_cl@@@Z" PURGE="4" COMMENT="" />
    <EXPORT ORDINAL="1113" NAME="?DestroyDefaultWindow@VisionWindowManager@@SAXXZ" PURGE="0" COMMENT="" />
    <EXPORT ORDINAL="1114" NAME="?DestroyWindowFromVideoConfig@VVideo@@KA_NAAVVVideoConfig@@@Z" PURGE="0" COMMENT="" />
    <EXPORT ORDINAL="1115" NAME="?DestroyWorkflow@VStreamProcessor@@SAXPAVVStreamProcessingWorkflow@@@Z" PURGE="0" COMMENT="" />
    <EXPORT ORDINAL="1116" NAME="?DetermineFileType@Image_cl@@SA?AW4ImageFileType_e@@PBD@Z" PURGE="0" COMMENT="" />
    <EXPORT ORDINAL="1117" NAME="?DisableAll@VTestUnit@@QAEXH@Z" PURGE="4" COMMENT="" />
    <EXPORT ORDINAL="1118" NAME="?DisableAllSubtests@VTestClass@@QAEXXZ" PURGE="0" COMMENT="" />
    <EXPORT ORDINAL="1119" NAME="?Disconnect@vPlatformStubDX11@@UAEHXZ" PURGE="0" COMMENT="" />
    <EXPORT ORDINAL="1120" NAME="?Disconnect@vPlatformStubDX9@@UAEHXZ" PURGE="0" COMMENT="" />
    <EXPORT ORDINAL="1121" NAME="?Disconnect@vPlatformStubGLES2@@UAEHXZ" PURGE="0" COMMENT="" />
    <EXPORT ORDINAL="1122" NAME="?Disconnect@vPlatformStubLinux@@UAEHXZ" PURGE="0" COMMENT="" />
    <EXPORT ORDINAL="1123" NAME="?Disconnect@vPlatformStubPS3@@UAEHXZ" PURGE="0" COMMENT="" />
    <EXPORT ORDINAL="1124" NAME="?Disconnect@vPlatformStubPSP2@@UAEHXZ" PURGE="0" COMMENT="" />
    <EXPORT ORDINAL="1125" NAME="?Disconnect@vPlatformStubWii@@UAEHXZ" PURGE="0" COMMENT="" />
    <EXPORT ORDINAL="1126" NAME="?Disconnect@vPlatformStubXbox360@@UAEHXZ" PURGE="0" COMMENT="" />
    <EXPORT ORDINAL="1127" NAME="?DisposeObject@VTypedObject@@UAEXXZ" PURGE="0" COMMENT="" />
    <EXPORT ORDINAL="1128" NAME="?Dist@VVertex3d@@QBENABV1@@Z" PURGE="4" COMMENT="" />
    <EXPORT ORDINAL="1129" NAME="?DistSqr@VVertex3d@@QBENABV1@@Z" PURGE="4" COMMENT="" />
    <EXPORT ORDINAL="1130" NAME="?Do@VAction@@UAEHABVVArgList@@@Z" PURGE="4" COMMENT="" />
    <EXPORT ORDINAL="1131" NAME="?DoArchiveExchange@VTextureObject@@SAPAV1@AAVVArchive@@PAV1@@Z" PURGE="0" COMMENT="" />
    <EXPORT ORDINAL="1132" NAME="?DoIndent@TiXmlPrinter@@AAEXXZ" PURGE="0" COMMENT="" />
    <EXPORT ORDINAL="1133" NAME="?DoLineBreak@TiXmlPrinter@@AAEXXZ" PURGE="0" COMMENT="" />
    <EXPORT ORDINAL="1134" NAME="?DoOutputStatistics@VTestUnit@@MAEXXZ" PURGE="0" COMMENT="" />
    <EXPORT ORDINAL="1135" NAME="?DoReload@VManagedResource@@MAEXXZ" PURGE="0" COMMENT="" />
    <EXPORT ORDINAL="1136" NAME="?DoSubTestDeInit@VTestUnit@@MAEHPAVVTestClass@@H@Z" PURGE="8" COMMENT="" />
    <EXPORT ORDINAL="1137" NAME="?DoSubTestInit@VTestUnit@@MAEHPAVVTestClass@@H@Z" PURGE="8" COMMENT="" />
    <EXPORT ORDINAL="1138" NAME="?DoSubTestRun@VTestUnit@@MAEHPAVVTestClass@@H@Z" PURGE="8" COMMENT="" />
    <EXPORT ORDINAL="1139" NAME="?DoTestDeInit@VTestUnit@@MAEHPAVVTestClass@@@Z" PURGE="4" COMMENT="" />
    <EXPORT ORDINAL="1140" NAME="?DoTestInit@VTestUnit@@MAEHPAVVTestClass@@@Z" PURGE="4" COMMENT="" />
    <EXPORT ORDINAL="1141" NAME="?DoTestRun@VTestUnit@@MAEHPAVVTestClass@@@Z" PURGE="4" COMMENT="" />
    <EXPORT ORDINAL="1142" NAME="?DoUnload@VManagedResource@@MAEXXZ" PURGE="0" COMMENT="" />
    <EXPORT ORDINAL="1143" NAME="?Dot@@YANABVVVertex3d@@0@Z" PURGE="0" COMMENT="" />
    <EXPORT ORDINAL="1144" NAME="?Dot@VPlane4d@@QBENABVVVertex3d@@@Z" PURGE="4" COMMENT="" />
    <EXPORT ORDINAL="1145" NAME="?Dot@VVertex3d@@QBENABV1@@Z" PURGE="4" COMMENT="" />
    <EXPORT ORDINAL="1146" NAME="?Dot@VVertex3d@@QBENABVVVertex3f@@@Z" PURGE="4" COMMENT="" />
    <EXPORT ORDINAL="1147" NAME="?DoubleValue@TiXmlAttribute@@QBENXZ" PURGE="0" COMMENT="" />
    <EXPORT ORDINAL="1148" NAME="?DrawLineBox@IVRenderInterface@@QAEXABVVBBoxf@@UVColorRef@@M@Z" PURGE="12" COMMENT="" />
    <EXPORT ORDINAL="1149" NAME="?DrawSolidQuad@IVRender2DInterface@@QAEXABVVVertex2f@@0UVColorRef@@ABUVSimpleRenderState_t@@@Z" PURGE="16" COMMENT="" />
    <EXPORT ORDINAL="1150" NAME="?DrawTexturedQuad@IVRender2DInterface@@QAEXABVVVertex2f@@0PAVVTextureObject@@00UVColorRef@@ABUVSimpleRenderState_t@@@Z" PURGE="28" COMMENT="" />
    <EXPORT ORDINAL="1151" NAME="?DrawTexturedQuadWithShader@IVRender2DInterface@@QAEXABVVVertex2f@@0PAVVTextureObject@@00UVColorRef@@AAVVCompiledShaderPass@@@Z" PURGE="28" COMMENT="" />
    <EXPORT ORDINAL="1152" NAME="?DumpFile@VTestUnit@@QAEXPBD@Z" PURGE="4" COMMENT="" />
    <EXPORT ORDINAL="1153" NAME="?DumpFpuInfo@VMathHelpers@@SAXPAD@Z" PURGE="0" COMMENT="" />
    <EXPORT ORDINAL="1154" NAME="?DumpLeaks@VSmallBlockMemoryManager@@UAEXXZ" PURGE="0" COMMENT="" />
    <EXPORT ORDINAL="1155" NAME="?DumpMemoryLeaks@VResourceManager@@UAEHH@Z" PURGE="4" COMMENT="" />
    <EXPORT ORDINAL="1156" NAME="?DumpOctreeToString@VBBoxOctree@@QBE?AVVString@@XZ" PURGE="4" COMMENT="" />
    <EXPORT ORDINAL="1157" NAME="?DumpOctreeToStringRecursive@VBBoxOctreeNode@@QBEXAAVVString@@H@Z" PURGE="8" COMMENT="" />
    <EXPORT ORDINAL="1158" NAME="?DumpPlugin@VModule@@QBEXXZ" PURGE="0" COMMENT="" />
    <EXPORT ORDINAL="1159" NAME="?DumpRedoStack@VUndoRedoStack@@QAEXXZ" PURGE="0" COMMENT="" />
    <EXPORT ORDINAL="1160" NAME="?DumpToFile@VStateGroupBlend@@QBEXPAVIVFileOutStream@@@Z" PURGE="4" COMMENT="" />
    <EXPORT ORDINAL="1161" NAME="?DumpToFile@VStateGroupDepthStencil@@QBEXPAVIVFileOutStream@@@Z" PURGE="4" COMMENT="" />
    <EXPORT ORDINAL="1162" NAME="?DumpToFile@VStateGroupRasterizer@@QBEXPAVIVFileOutStream@@@Z" PURGE="4" COMMENT="" />
    <EXPORT ORDINAL="1163" NAME="?DumpToFile@VStateGroupSampler@@QBEXPAVIVFileOutStream@@@Z" PURGE="4" COMMENT="" />
    <EXPORT ORDINAL="1164" NAME="?DumpToFile@VStateGroupTesselation@@QBEXPAVIVFileOutStream@@@Z" PURGE="4" COMMENT="" />
    <EXPORT ORDINAL="1165" NAME="?DumpToFile@VStateGroupTexture@@QBEXPAVIVFileOutStream@@@Z" PURGE="4" COMMENT="" />
    <EXPORT ORDINAL="1166" NAME="?DumpUndoStack@VUndoRedoStack@@QAEXXZ" PURGE="0" COMMENT="" />
    <EXPORT ORDINAL="1167" NAME="?EditorToEngine@VMatrix4d@@QBEXAAV1@@Z" PURGE="4" COMMENT="" />
    <EXPORT ORDINAL="1168" NAME="?EditorToEngine@VMatrix4f@@QBEXAAV1@@Z" PURGE="4" COMMENT="" />
    <EXPORT ORDINAL="1169" NAME="?EditorToEngine@VVertex3d@@QAEXXZ" PURGE="0" COMMENT="" />
    <EXPORT ORDINAL="1170" NAME="?EditorToMax@VVertex3d@@QAEXXZ" PURGE="0" COMMENT="" />
    <EXPORT ORDINAL="1171" NAME="?Element@TiXmlHandle@@QBEPAVTiXmlElement@@XZ" PURGE="0" COMMENT="" />
    <EXPORT ORDINAL="1172" NAME="?EmptyRedoList@VUndoRedoStack@@IAEXXZ" PURGE="0" COMMENT="" />
    <EXPORT ORDINAL="1173" NAME="?EnableAll@VTestUnit@@QAEXH@Z" PURGE="4" COMMENT="" />
    <EXPORT ORDINAL="1174" NAME="?EnableAllSubtests@VTestClass@@QAEXXZ" PURGE="0" COMMENT="" />
    <EXPORT ORDINAL="1175" NAME="?EncodeString@TiXmlBase@@SAXABVTiXmlString@@PAV2@@Z" PURGE="0" COMMENT="" />
    <EXPORT ORDINAL="1176" NAME="?Encoding@TiXmlDeclaration@@QBEPBDXZ" PURGE="0" COMMENT="" />
    <EXPORT ORDINAL="1177" NAME="?EndChunk@VChunkFile@@QAEHXZ" PURGE="0" COMMENT="" />
    <EXPORT ORDINAL="1178" NAME="?EndDryRun@VChunkFile@@QAEHXZ" PURGE="0" COMMENT="" />
    <EXPORT ORDINAL="1179" NAME="?EndianSwitchDWords@@YAPAXPAKH@Z" PURGE="0" COMMENT="" />
    <EXPORT ORDINAL="1180" NAME="?EndianSwitchQWords@@YAPAXPA_KH@Z" PURGE="0" COMMENT="" />
    <EXPORT ORDINAL="1181" NAME="?EndianSwitchWords@@YAPAXPAGH@Z" PURGE="0" COMMENT="" />
    <EXPORT ORDINAL="1182" NAME="?EndianSwitchWorker@@YAPAXPAX0PBDHPAPBD@Z" PURGE="0" COMMENT="" />
    <EXPORT ORDINAL="1183" NAME="?EndsWith@@YA_NPBD0@Z" PURGE="0" COMMENT="" />
    <EXPORT ORDINAL="1184" NAME="?EndsWith@@YA_NPBDD@Z" PURGE="0" COMMENT="" />
    <EXPORT ORDINAL="1185" NAME="?EndsWith@@YA_NPB_W0@Z" PURGE="0" COMMENT="" />
    <EXPORT ORDINAL="1186" NAME="?EndsWith@@YA_NPB_W_W@Z" PURGE="0" COMMENT="" />
    <EXPORT ORDINAL="1187" NAME="?EndsWithI@@YA_NPBD0@Z" PURGE="0" COMMENT="" />
    <EXPORT ORDINAL="1188" NAME="?EndsWithI@@YA_NPB_W0@Z" PURGE="0" COMMENT="" />
    <EXPORT ORDINAL="1189" NAME="?EngineToEditor@VVertex3d@@QAEXXZ" PURGE="0" COMMENT="" />
    <EXPORT ORDINAL="1190" NAME="?EngineToMax@VVertex3d@@QAEXXZ" PURGE="0" COMMENT="" />
    <EXPORT ORDINAL="1191" NAME="?EnsureCapacity@VPList@@QAEXH@Z" PURGE="4" COMMENT="" />
    <EXPORT ORDINAL="1192" NAME="?EnsureConsoleSelected@vPlatformStubXbox360@@AAEHXZ" PURGE="0" COMMENT="" />
    <EXPORT ORDINAL="1193" NAME="?EnsureHeapSize@VManagedThread@@QAEXII@Z" PURGE="8" COMMENT="" />
    <EXPORT ORDINAL="1194" NAME="?EnsurePadsInitializedAndActive@VInputDeviceManagerPC@@SAHXZ" PURGE="0" COMMENT="" />
    <EXPORT ORDINAL="1195" NAME="?EnumAdapterModes@VVideo@@SAHHHPAUVVideoMode@@@Z" PURGE="0" COMMENT="" />
    <EXPORT ORDINAL="1196" NAME="?EnumFiles@VFileHelper@@SA_NPBD0P6AX00PAVVFileData@@PAX@Z2@Z" PURGE="0" COMMENT="" />
    <EXPORT ORDINAL="1197" NAME="?EnumFilesRecursive@VFileHelper@@SA_NPBD0P6AX00PAVVFileData@@PAX@Z2@Z" PURGE="0" COMMENT="" />
    <EXPORT ORDINAL="1198" NAME="?EnumResources@VResourceManager@@IAEXXZ" PURGE="0" COMMENT="" />
    <EXPORT ORDINAL="1199" NAME="?Equals@VGUID@@QAEHABV1@@Z" PURGE="4" COMMENT="" />
    <EXPORT ORDINAL="1200" NAME="?Equals@VisMBVertexDescriptor_t@@QBE_NABU1@@Z" PURGE="4" COMMENT="" />
    <EXPORT ORDINAL="1201" NAME="?Error@TiXmlDocument@@QBE_NXZ" PURGE="0" COMMENT="" />
    <EXPORT ORDINAL="1202" NAME="?Error@VLogNull@@UAEXPBD@Z" PURGE="4" COMMENT="" />
    <EXPORT ORDINAL="1203" NAME="?Error@VLogWindow@@UAEXPBD@Z" PURGE="4" COMMENT="" />
    <EXPORT ORDINAL="1204" NAME="?ErrorCol@TiXmlDocument@@QBEHXZ" PURGE="0" COMMENT="" />
    <EXPORT ORDINAL="1205" NAME="?ErrorDesc@TiXmlDocument@@QBEPBDXZ" PURGE="0" COMMENT="" />
    <EXPORT ORDINAL="1206" NAME="?ErrorId@TiXmlDocument@@QBEHXZ" PURGE="0" COMMENT="" />
    <EXPORT ORDINAL="1207" NAME="?ErrorRow@TiXmlDocument@@QBEHXZ" PURGE="0" COMMENT="" />
    <EXPORT ORDINAL="1208" NAME="?EvalBool@VParam@@SAHPBDPAH@Z" PURGE="0" COMMENT="" />
    <EXPORT ORDINAL="1209" NAME="?Evaluate@VParamExpression@@QAEHAAHHH@Z" PURGE="12" COMMENT="" />
    <EXPORT ORDINAL="1210" NAME="?Evaluate@VParamExpression@@QAEHAAMMM@Z" PURGE="12" COMMENT="" />
    <EXPORT ORDINAL="1211" NAME="?EvaluateCallCount@VProfilingNode@@IBEIXZ" PURGE="0" COMMENT="" />
    <EXPORT ORDINAL="1212" NAME="?EvaluateColorArrayAtPosition@VLightGrid_cl@@QAEXABVVVertex3f@@HPBV2@HPAUVColorRef@@H@Z" PURGE="24" COMMENT="" />
    <EXPORT ORDINAL="1213" NAME="?EvaluateColorAtPosition@VLightGrid_cl@@QAEXABVVVertex3f@@0AAV2@H@Z" PURGE="16" COMMENT="" />
    <EXPORT ORDINAL="1214" NAME="?EvaluatePassTypeFromPasses@VCompiledTechnique@@QAEXXZ" PURGE="0" COMMENT="" />
    <EXPORT ORDINAL="1215" NAME="?EvaluateTimeInCycles@VProfilingNode@@IBEIXZ" PURGE="0" COMMENT="" />
    <EXPORT ORDINAL="1216" NAME="?Exchange_BBox@XMLHelper@@YAXPAVTiXmlElement@@PBDQAM2_N@Z" PURGE="0" COMMENT="" />
    <EXPORT ORDINAL="1217" NAME="?Exchange_Bitmask@XMLHelper@@YA_NPAVTiXmlElement@@PBDAAHHQAPBDQBH_N@Z" PURGE="0" COMMENT="" />
    <EXPORT ORDINAL="1218" NAME="?Exchange_Bool@XMLHelper@@YAXPAVTiXmlElement@@PBDAA_N_N@Z" PURGE="0" COMMENT="" />
    <EXPORT ORDINAL="1219" NAME="?Exchange_Color@XMLHelper@@YAXPAVTiXmlElement@@PBDAAUVColorRef@@_N@Z" PURGE="0" COMMENT="" />
    <EXPORT ORDINAL="1220" NAME="?Exchange_Enum@XMLHelper@@YA_NPAVTiXmlElement@@PBDAAHHQAPBDQBH_N@Z" PURGE="0" COMMENT="" />
    <EXPORT ORDINAL="1221" NAME="?Exchange_Float@XMLHelper@@YAXPAVTiXmlElement@@PBDAAM_N@Z" PURGE="0" COMMENT="" />
    <EXPORT ORDINAL="1222" NAME="?Exchange_Floats@XMLHelper@@YAHPAVTiXmlElement@@PBDPAMH_N@Z" PURGE="0" COMMENT="" />
    <EXPORT ORDINAL="1223" NAME="?Exchange_Int@XMLHelper@@YAXPAVTiXmlElement@@PBDAAH_N@Z" PURGE="0" COMMENT="" />
    <EXPORT ORDINAL="1224" NAME="?Exchange_Ints@XMLHelper@@YAHPAVTiXmlElement@@PBDPAHH_N@Z" PURGE="0" COMMENT="" />
    <EXPORT ORDINAL="1225" NAME="?Exchange_LightingMethod@XMLHelper@@YA_NPAVTiXmlElement@@PBDAAW4VisLightingMethod_e@@_N@Z" PURGE="0" COMMENT="" />
    <EXPORT ORDINAL="1226" NAME="?Exchange_String@XMLHelper@@YAPBDPAVTiXmlElement@@PBD1_N@Z" PURGE="0" COMMENT="" />
    <EXPORT ORDINAL="1227" NAME="?Exchange_Transparency@XMLHelper@@YA_NPAVTiXmlElement@@PBDAAW4VIS_TransparencyType@@_N@Z" PURGE="0" COMMENT="" />
    <EXPORT ORDINAL="1228" NAME="?Exchange_UInt@XMLHelper@@YAXPAVTiXmlElement@@PBDAAI_N@Z" PURGE="0" COMMENT="" />
    <EXPORT ORDINAL="1229" NAME="?Exchange_UInts@XMLHelper@@YAHPAVTiXmlElement@@PBDPAIH_N@Z" PURGE="0" COMMENT="" />
    <EXPORT ORDINAL="1230" NAME="?Exchange_VString@XMLHelper@@YAPBDPAVTiXmlElement@@PBDAAVVString@@_N@Z" PURGE="0" COMMENT="" />
    <EXPORT ORDINAL="1231" NAME="?Execute@VActionManager@@QAEHVVString@@HH@Z" PURGE="12" COMMENT="" />
    <EXPORT ORDINAL="1232" NAME="?ExecuteScriptFile@VActionManager@@QAEHPBDHH@Z" PURGE="12" COMMENT="" />
    <EXPORT ORDINAL="1233" NAME="?Exists@VClipboard@@UAEHPBD@Z" PURGE="4" COMMENT="" />
    <EXPORT ORDINAL="1234" NAME="?Exists@VDiskFileStreamManager@@UAEHPBD@Z" PURGE="4" COMMENT="" />
    <EXPORT ORDINAL="1235" NAME="?Exists@VFileHelper@@SA_NPBD@Z" PURGE="0" COMMENT="" />
    <EXPORT ORDINAL="1236" NAME="?Exists@VZipFileStreamManager@@UAEHPBD@Z" PURGE="4" COMMENT="" />
    <EXPORT ORDINAL="1237" NAME="?ExistsDir@@YAJPBD@Z" PURGE="0" COMMENT="" />
    <EXPORT ORDINAL="1238" NAME="?ExistsDir@VFileHelper@@SA_NPBD@Z" PURGE="0" COMMENT="" />
    <EXPORT ORDINAL="1239" NAME="?Exit@VTargetThread@@QAEXXZ" PURGE="0" COMMENT="" />
    <EXPORT ORDINAL="1240" NAME="?Expand@VBBox@@QAEXM@Z" PURGE="4" COMMENT="" />
    <EXPORT ORDINAL="1241" NAME="?Expand@VPList@@IAEXH@Z" PURGE="4" COMMENT="" />
    <EXPORT ORDINAL="1242" NAME="?ExpandInnerQuotes@VArgList@@SAHAAVVString@@@Z" PURGE="0" COMMENT="" />
    <EXPORT ORDINAL="1243" NAME="?ExtractCompilerOptions@VShaderProgramResource@@SAXAAVVString@@PBDW4VShaderType@@W4VTargetPlatform@@@Z" PURGE="0" COMMENT="" />
    <EXPORT ORDINAL="1244" NAME="?ExtractDir@@YAPADPBD@Z" PURGE="0" COMMENT="" />
    <EXPORT ORDINAL="1245" NAME="?ExtractDir@@YAXPAD@Z" PURGE="0" COMMENT="" />
    <EXPORT ORDINAL="1246" NAME="?ExtractExt@@YAPADPBD@Z" PURGE="0" COMMENT="" />
    <EXPORT ORDINAL="1247" NAME="?ExtractExt@@YAXPAD@Z" PURGE="0" COMMENT="" />
    <EXPORT ORDINAL="1248" NAME="?ExtractFile@@YAPADPBD@Z" PURGE="0" COMMENT="" />
    <EXPORT ORDINAL="1249" NAME="?ExtractFile@@YAXPAD@Z" PURGE="0" COMMENT="" />
    <EXPORT ORDINAL="1250" NAME="?ExtractFileExt@@YAPADPBD@Z" PURGE="0" COMMENT="" />
    <EXPORT ORDINAL="1251" NAME="?ExtractFileExt@@YAXPAD@Z" PURGE="0" COMMENT="" />
    <EXPORT ORDINAL="1252" NAME="?ExtractLastDir@@YAPBDPBD@Z" PURGE="0" COMMENT="" />
    <EXPORT ORDINAL="1253" NAME="?ExtractLastDir@@YAXPAD@Z" PURGE="0" COMMENT="" />
    <EXPORT ORDINAL="1254" NAME="?ExtractParentDir@@YAPBDPBD@Z" PURGE="0" COMMENT="" />
    <EXPORT ORDINAL="1255" NAME="?ExtractParentDir@@YAXPAD@Z" PURGE="0" COMMENT="" />
    <EXPORT ORDINAL="1256" NAME="?FileCopy@@YAJPAD0@Z" PURGE="0" COMMENT="" />
    <EXPORT ORDINAL="1257" NAME="?Fill@VModuleInfoList@@QAEXXZ" PURGE="0" COMMENT="" />
    <EXPORT ORDINAL="1258" NAME="?FillBuffer@VArchive@@QAEXI@Z" PURGE="4" COMMENT="" />
    <EXPORT ORDINAL="1259" NAME="?FillIn@VCompositeParam@@QAEXAAV1@@Z" PURGE="4" COMMENT="" />
    <EXPORT ORDINAL="1260" NAME="?FillIn@VParamArray@@QAEXAAV1@@Z" PURGE="4" COMMENT="" />
    <EXPORT ORDINAL="1261" NAME="?FillIn@VParamBlock@@QAEXAAV1@@Z" PURGE="4" COMMENT="" />
    <EXPORT ORDINAL="1262" NAME="?FillIn@VParamContainer@@QAEXAAV1@@Z" PURGE="4" COMMENT="" />
    <EXPORT ORDINAL="1263" NAME="?FillIn@VParamDesc@@QAEXABV1@@Z" PURGE="4" COMMENT="" />
    <EXPORT ORDINAL="1264" NAME="?FillIn@VPolygon@@QAEXPAV1@H@Z" PURGE="8" COMMENT="" />
    <EXPORT ORDINAL="1265" NAME="?FillInReportMessage@VReportMessage@@UAEXHAAVVString@@000AAW4VReportType@@@Z" PURGE="24" COMMENT="" />
    <EXPORT ORDINAL="1266" NAME="?Finalize@VLightGrid_cl@@QAEHXZ" PURGE="0" COMMENT="" />
    <EXPORT ORDINAL="1267" NAME="?Find@TiXmlAttributeSet@@QBEPAVTiXmlAttribute@@PBD@Z" PURGE="4" COMMENT="" />
    <EXPORT ORDINAL="1268" NAME="?Find@VPList@@QBEHPBX@Z" PURGE="4" COMMENT="" />
    <EXPORT ORDINAL="1269" NAME="?FindByID@VProfilingNode@@QAEPAV1@H@Z" PURGE="4" COMMENT="" />
    <EXPORT ORDINAL="1270" NAME="?FindByName@VProfilingNode@@QAEPAV1@PBD@Z" PURGE="4" COMMENT="" />
    <EXPORT ORDINAL="1271" NAME="?FindByName@VShaderConstantTable@@QBEPAUVShaderConstantTableEntry@@PBD@Z" PURGE="4" COMMENT="" />
    <EXPORT ORDINAL="1272" NAME="?FindByStartRegister@VShaderConstantTable@@QBEPAUVShaderConstantTableEntry@@H@Z" PURGE="4" COMMENT="" />
    <EXPORT ORDINAL="1273" NAME="?FindCallbackByID@VCallbackSenderQueue@@QAEPAVVCallback@@H@Z" PURGE="4" COMMENT="" />
    <EXPORT ORDINAL="1274" NAME="?FindCompatibleTechnique@VCompiledEffect@@QBEPAVVCompiledTechnique@@PAVVTechniqueConfig@@0@Z" PURGE="8" COMMENT="" />
    <EXPORT ORDINAL="1275" NAME="?FindCompiledVersion@VShaderEffectResource@@QBEPAVVCompiledEffect@@PBD@Z" PURGE="4" COMMENT="" />
    <EXPORT ORDINAL="1276" NAME="?FindDataBlock@VRawDataBlock@@QBEHPBXH@Z" PURGE="8" COMMENT="" />
    <EXPORT ORDINAL="1277" NAME="?FindEffect@VShaderEffectLib@@QAEPAVVShaderEffectResource@@PBD@Z" PURGE="4" COMMENT="" />
    <EXPORT ORDINAL="1278" NAME="?FindEntry@VResourceSnapshot@@QBEPAVVResourceSnapshotEntry@@ABV2@@Z" PURGE="4" COMMENT="" />
    <EXPORT ORDINAL="1279" NAME="?FindEnumField@VisVariable_cl@@QAEHPBD@Z" PURGE="4" COMMENT="" />
    <EXPORT ORDINAL="1280" NAME="?FindFile@VFileHelper@@SA_NPBD0PAVVString@@@Z" PURGE="0" COMMENT="" />
    <EXPORT ORDINAL="1281" NAME="?FindFileEntry@VResourceSnapshot@@QBEPAVVResourceSnapshotEntry@@PBD@Z" PURGE="4" COMMENT="" />
    <EXPORT ORDINAL="1282" NAME="?FindLibFilename@VSurfaceFXConfig@@QBEHPBD@Z" PURGE="4" COMMENT="" />
    <EXPORT ORDINAL="1283" NAME="?FindOrCreate@TiXmlAttributeSet@@QAEPAVTiXmlAttribute@@PBD@Z" PURGE="4" COMMENT="" />
    <EXPORT ORDINAL="1284" NAME="?FindParam@VParamBlock@@QAEHPBD@Z" PURGE="4" COMMENT="" />
    <EXPORT ORDINAL="1285" NAME="?FindParam@VParamDesc@@QAEHPBD@Z" PURGE="4" COMMENT="" />
    <EXPORT ORDINAL="1286" NAME="?FindParamByName@VShaderParamCollection@@QBEPAVVShaderParam@@PBD@Z" PURGE="4" COMMENT="" />
    <EXPORT ORDINAL="1287" NAME="?FindParamName@VShaderParam@@SAHPBD@Z" PURGE="0" COMMENT="" />
    <EXPORT ORDINAL="1288" NAME="?FindParamsByFlags@VParamBlock@@QAEHHAAVVPList@@@Z" PURGE="8" COMMENT="" />
    <EXPORT ORDINAL="1289" NAME="?FindPointer@VPointerArrayHelpers@@SAHPAPAXHPBX@Z" PURGE="0" COMMENT="" />
    <EXPORT ORDINAL="1290" NAME="?FindPrecachedFile@VMemoryStreamManager@@QBEPAVVLoadingTask@@PBD@Z" PURGE="4" COMMENT="" />
    <EXPORT ORDINAL="1291" NAME="?FindPrecachedFileByUserData@VMemoryStreamManager@@QBEPAVVLoadingTask@@PBX@Z" PURGE="4" COMMENT="" />
    <EXPORT ORDINAL="1292" NAME="?FindProjectDir@VFileHelper@@SA_NPBDPAD@Z" PURGE="0" COMMENT="" />
    <EXPORT ORDINAL="1293" NAME="?FindResourceEntry@VResourceSnapshot@@QBEPAVVResourceSnapshotEntry@@PAVVManagedResource@@@Z" PURGE="4" COMMENT="" />
    <EXPORT ORDINAL="1294" NAME="?FindSamplerWithIndex@VShaderConstantTable@@QBEPAUVShaderConstantTableEntry@@H@Z" PURGE="4" COMMENT="" />
    <EXPORT ORDINAL="1295" NAME="?FindShader@VCompiledShaderManager@@QAEPAVVCompiledShaderPass@@PAV2@@Z" PURGE="4" COMMENT="" />
    <EXPORT ORDINAL="1296" NAME="?FindShader@VShaderEffectLib@@QAEPAVVShaderPassResource@@PBD@Z" PURGE="4" COMMENT="" />
    <EXPORT ORDINAL="1297" NAME="?FindSorted@VPList@@QAEHPAX@Z" PURGE="4" COMMENT="" />
    <EXPORT ORDINAL="1298" NAME="?FindString@VParam@@QAEHPBDAAH@Z" PURGE="8" COMMENT="" />
    <EXPORT ORDINAL="1299" NAME="?FindString@VStrList@@QBEHPBD@Z" PURGE="4" COMMENT="" />
    <EXPORT ORDINAL="1300" NAME="?FindTestByName@VTestUnit@@QAEHPBD@Z" PURGE="4" COMMENT="" />
    <EXPORT ORDINAL="1301" NAME="?FindVertexIDIndex@VLightmapPrimitive@@QBEHPBUMeshVertex_t@1@@Z" PURGE="4" COMMENT="" />
    <EXPORT ORDINAL="1302" NAME="?FinishOutputDocuments@VTestUnit@@QAEXXZ" PURGE="0" COMMENT="" />
    <EXPORT ORDINAL="1303" NAME="?First@TiXmlAttributeSet@@QAEPAVTiXmlAttribute@@XZ" PURGE="0" COMMENT="" />
    <EXPORT ORDINAL="1304" NAME="?First@TiXmlAttributeSet@@QBEPBVTiXmlAttribute@@XZ" PURGE="0" COMMENT="" />
    <EXPORT ORDINAL="1305" NAME="?FirstAttribute@TiXmlElement@@QAEPAVTiXmlAttribute@@XZ" PURGE="0" COMMENT="" />
    <EXPORT ORDINAL="1306" NAME="?FirstAttribute@TiXmlElement@@QBEPBVTiXmlAttribute@@XZ" PURGE="0" COMMENT="" />
    <EXPORT ORDINAL="1307" NAME="?FirstChild@TiXmlHandle@@QBE?AV1@PBD@Z" PURGE="8" COMMENT="" />
    <EXPORT ORDINAL="1308" NAME="?FirstChild@TiXmlHandle@@QBE?AV1@XZ" PURGE="4" COMMENT="" />
    <EXPORT ORDINAL="1309" NAME="?FirstChild@TiXmlNode@@QAEPAV1@PBD@Z" PURGE="4" COMMENT="" />
    <EXPORT ORDINAL="1310" NAME="?FirstChild@TiXmlNode@@QAEPAV1@XZ" PURGE="0" COMMENT="" />
    <EXPORT ORDINAL="1311" NAME="?FirstChild@TiXmlNode@@QBEPBV1@PBD@Z" PURGE="4" COMMENT="" />
    <EXPORT ORDINAL="1312" NAME="?FirstChild@TiXmlNode@@QBEPBV1@XZ" PURGE="0" COMMENT="" />
    <EXPORT ORDINAL="1313" NAME="?FirstChildElement@TiXmlHandle@@QBE?AV1@PBD@Z" PURGE="8" COMMENT="" />
    <EXPORT ORDINAL="1314" NAME="?FirstChildElement@TiXmlHandle@@QBE?AV1@XZ" PURGE="4" COMMENT="" />
    <EXPORT ORDINAL="1315" NAME="?FirstChildElement@TiXmlNode@@QAEPAVTiXmlElement@@PBD@Z" PURGE="4" COMMENT="" />
    <EXPORT ORDINAL="1316" NAME="?FirstChildElement@TiXmlNode@@QAEPAVTiXmlElement@@XZ" PURGE="0" COMMENT="" />
    <EXPORT ORDINAL="1317" NAME="?FirstChildElement@TiXmlNode@@QBEPBVTiXmlElement@@PBD@Z" PURGE="4" COMMENT="" />
    <EXPORT ORDINAL="1318" NAME="?FirstChildElement@TiXmlNode@@QBEPBVTiXmlElement@@XZ" PURGE="0" COMMENT="" />
    <EXPORT ORDINAL="1319" NAME="?FixMatrixParity@VMatrix4d@@QAEXXZ" PURGE="0" COMMENT="" />
    <EXPORT ORDINAL="1320" NAME="?FixMatrixParity@VMatrix4f@@QAEXXZ" PURGE="0" COMMENT="" />
    <EXPORT ORDINAL="1321" NAME="?FlagAsMissing@VManagedResource@@QAEXXZ" PURGE="0" COMMENT="" />
    <EXPORT ORDINAL="1322" NAME="?Flip@VPlane4d@@QAEXXZ" PURGE="0" COMMENT="" />
    <EXPORT ORDINAL="1323" NAME="?Flip@VPolygon@@QAEXXZ" PURGE="0" COMMENT="" />
    <EXPORT ORDINAL="1324" NAME="?FlipBufferHorizontal@VTextureLoader@@IAEXXZ" PURGE="0" COMMENT="" />
    <EXPORT ORDINAL="1325" NAME="?FlipBufferVertical@VTextureLoader@@IAEXXZ" PURGE="0" COMMENT="" />
    <EXPORT ORDINAL="1326" NAME="?Float_To_RGB@VColorExpRef@@SA?AUVColorRef@@ABVVVertex3f@@@Z" PURGE="0" COMMENT="" />
    <EXPORT ORDINAL="1327" NAME="?Float_To_RGBE@VColorExpRef@@SA?AU1@ABVVVertex3f@@@Z" PURGE="0" COMMENT="" />
    <EXPORT ORDINAL="1328" NAME="?FloatsToString@XMLHelper@@YAPBDPBMHPAD@Z" PURGE="0" COMMENT="" />
    <EXPORT ORDINAL="1329" NAME="?Flush@IVConstantBuffer@@QAEXH@Z" PURGE="4" COMMENT="" />
    <EXPORT ORDINAL="1330" NAME="?Flush@VArchive@@QAEXXZ" PURGE="0" COMMENT="" />
    <EXPORT ORDINAL="1331" NAME="?Flush@VDiskFileOutStream@@UAEXXZ" PURGE="0" COMMENT="" />
    <EXPORT ORDINAL="1332" NAME="?Flush@VFileAccess@@SAXPAUVFileHandle@@@Z" PURGE="-1" COMMENT="" />
    <EXPORT ORDINAL="1333" NAME="?Flush@VMemoryOutStream@@UAEXXZ" PURGE="0" COMMENT="" />
    <EXPORT ORDINAL="1334" NAME="?ForceCleanup@VTarget@@QAEXXZ" PURGE="0" COMMENT="" />
    <EXPORT ORDINAL="1335" NAME="?Format@VString@@QAAHPBDZZ" PURGE="0" COMMENT="" />
    <EXPORT ORDINAL="1336" NAME="?Format@VUniString@@QAAHPB_WZZ" PURGE="0" COMMENT="" />
    <EXPORT ORDINAL="1337" NAME="?FormatEx@VString@@QAAHPBDZZ" PURGE="0" COMMENT="" />
    <EXPORT ORDINAL="1338" NAME="?FormatEx@VUniString@@QAAHPB_WZZ" PURGE="0" COMMENT="" />
    <EXPORT ORDINAL="1339" NAME="?Free@VSmallBlockMemoryManager@@UAEXPAXH@Z" PURGE="8" COMMENT="" />
    <EXPORT ORDINAL="1340" NAME="?FreeActionStringHistory@VActionManager@@QAEXXZ" PURGE="0" COMMENT="" />
    <EXPORT ORDINAL="1341" NAME="?FreeBuffer@IVConstantBuffer@@QAEXXZ" PURGE="0" COMMENT="" />
    <EXPORT ORDINAL="1342" NAME="?FreeByteCode@VShaderProgramResource@@SAXPAH@Z" PURGE="0" COMMENT="" />
    <EXPORT ORDINAL="1343" NAME="?FreeCache@VShaderPassResource@@QAEXXZ" PURGE="0" COMMENT="" />
    <EXPORT ORDINAL="1344" NAME="?FreeCompiledEffects@VShaderEffectLib@@QAEXXZ" PURGE="0" COMMENT="" />
    <EXPORT ORDINAL="1345" NAME="?FreeCompiledEffects@VShaderEffectResource@@QAEXXZ" PURGE="0" COMMENT="" />
    <EXPORT ORDINAL="1346" NAME="?FreeHeap@VManagedThread@@QAEXI@Z" PURGE="4" COMMENT="" />
    <EXPORT ORDINAL="1347" NAME="?FreeHeaps@VManagedThread@@QAEXXZ" PURGE="0" COMMENT="" />
    <EXPORT ORDINAL="1348" NAME="?FreeIndices@VSimpleCollisionMesh32@@UAEXXZ" PURGE="0" COMMENT="" />
    <EXPORT ORDINAL="1349" NAME="?FreeIndices@VSimpleCollisionMesh@@UAEXXZ" PURGE="0" COMMENT="" />
    <EXPORT ORDINAL="1350" NAME="?FreeOwnedData@VTypedObject@@QAEXXZ" PURGE="0" COMMENT="" />
    <EXPORT ORDINAL="1351" NAME="?FreePair@VMapCPtrToCPtr@@IAEXPAUVPair@1@@Z" PURGE="4" COMMENT="" />
    <EXPORT ORDINAL="1352" NAME="?FreePair@VMapCPtrToInt@@IAEXPAUVPair@1@@Z" PURGE="4" COMMENT="" />
    <EXPORT ORDINAL="1353" NAME="?FreePair@VMapCPtrToPtr@@IAEXPAUVPair@1@@Z" PURGE="4" COMMENT="" />
    <EXPORT ORDINAL="1354" NAME="?FreePair@VMapIntToInt@@IAEXPAUVPair@1@@Z" PURGE="4" COMMENT="" />
    <EXPORT ORDINAL="1355" NAME="?FreePair@VMapIntToPtr@@IAEXPAUVPair@1@@Z" PURGE="4" COMMENT="" />
    <EXPORT ORDINAL="1356" NAME="?FreePair@VMapPtrToInt@@IAEXPAUVPair@1@@Z" PURGE="4" COMMENT="" />
    <EXPORT ORDINAL="1357" NAME="?FreePair@VMapPtrToPtr@@IAEXPAUVPair@1@@Z" PURGE="4" COMMENT="" />
    <EXPORT ORDINAL="1358" NAME="?FreePair@VMapPtrToUInt@@IAEXPAUVPair@1@@Z" PURGE="4" COMMENT="" />
    <EXPORT ORDINAL="1359" NAME="?FreePair@VMapStrToPtr@@IAEXPAUVPair@1@@Z" PURGE="4" COMMENT="" />
    <EXPORT ORDINAL="1360" NAME="?FreeProfilingID@VProfilingNode@@SAXH@Z" PURGE="0" COMMENT="" />
    <EXPORT ORDINAL="1361" NAME="?FreeString@VStrRef@@AAEXXZ" PURGE="0" COMMENT="" />
    <EXPORT ORDINAL="1362" NAME="?FreeUnusedEntries@VDiskFileStreamCacheManager@@SAXXZ" PURGE="0" COMMENT="" />
    <EXPORT ORDINAL="1363" NAME="?FreeVertices@VSimpleCollisionMeshBase@@QAEXXZ" PURGE="0" COMMENT="" />
    <EXPORT ORDINAL="1364" NAME="?From@VMessage@@QAEXPAV1@@Z" PURGE="4" COMMENT="" />
    <EXPORT ORDINAL="1365" NAME="?FromName@VActionManager@@IAEPAUVActionType@@PBD@Z" PURGE="4" COMMENT="" />
    <EXPORT ORDINAL="1366" NAME="?FromName@VCommandManager@@QAEPAUVCommandType@@PBD@Z" PURGE="4" COMMENT="" />
    <EXPORT ORDINAL="1367" NAME="?FrontToBackSlash@VPathHelper@@SAXPAD@Z" PURGE="0" COMMENT="" />
    <EXPORT ORDINAL="1368" NAME="?GatherTimeStamp@VManagedResource@@UAEHPAVIVFileStreamManager@@AAUVFileTime@@@Z" PURGE="8" COMMENT="" />
    <EXPORT ORDINAL="1369" NAME="?GatherTimeStamp@VShaderEffectLib@@MAEHPAVIVFileStreamManager@@AAUVFileTime@@@Z" PURGE="8" COMMENT="" />
    <EXPORT ORDINAL="1370" NAME="?GenMipMaps@Image_cl@@QAEAAHXZ" PURGE="0" COMMENT="" />
    <EXPORT ORDINAL="1371" NAME="?Get@VActionList@@QBEAAPAVVAction@@H@Z" PURGE="4" COMMENT="" />
    <EXPORT ORDINAL="1372" NAME="?Get@VModuleList@@QBEAAPAUVModule@@H@Z" PURGE="4" COMMENT="" />
    <EXPORT ORDINAL="1373" NAME="?Get@VParamContainerList@@QBEAAPAVVParamContainer@@H@Z" PURGE="4" COMMENT="" />
    <EXPORT ORDINAL="1374" NAME="?Get@VParamList@@QBEAAPAVVParam@@H@Z" PURGE="4" COMMENT="" />
    <EXPORT ORDINAL="1375" NAME="?Get@VResourceList@@QBEAAPAVVManagedResource@@H@Z" PURGE="4" COMMENT="" />
    <EXPORT ORDINAL="1376" NAME="?Get@VSenderReceiverList@@QBEAAPAVVSenderReceiver@@H@Z" PURGE="4" COMMENT="" />
    <EXPORT ORDINAL="1377" NAME="?Get@VStringList@@QBEAAPAVVString@@H@Z" PURGE="4" COMMENT="" />
    <EXPORT ORDINAL="1378" NAME="?Get@VSurfaceAssignmentList@@QBEAAPAUSurfaceFXAssignment_t@@H@Z" PURGE="4" COMMENT="" />
    <EXPORT ORDINAL="1379" NAME="?GetActionNameList@VActionManager@@QAEXPBDAAVVPList@@@Z" PURGE="8" COMMENT="" />
    <EXPORT ORDINAL="1380" NAME="?GetActionType@VActionManager@@QAEPAUVActionType@@I@Z" PURGE="4" COMMENT="" />
    <EXPORT ORDINAL="1381" NAME="?GetActionType@VActionManager@@QAEPAUVActionType@@PBDH@Z" PURGE="8" COMMENT="" />
    <EXPORT ORDINAL="1382" NAME="?GetActionTypeCount@VActionManager@@QAEHXZ" PURGE="0" COMMENT="" />
    <EXPORT ORDINAL="1383" NAME="?GetActionTypeList@VModule@@QBEPAUVActionType@@XZ" PURGE="0" COMMENT="" />
    <EXPORT ORDINAL="1384" NAME="?GetActiveRCS@VFileAccessManager@@SAPAVIVRevisionControlSystem@@XZ" PURGE="0" COMMENT="" />
    <EXPORT ORDINAL="1385" NAME="?GetActiveWindow@VisionWindowManager@@SAPAVIVisionWindow@@XZ" PURGE="0" COMMENT="" />
    <EXPORT ORDINAL="1386" NAME="?GetAdapterCount@VVideo@@SAHXZ" PURGE="0" COMMENT="" />
    <EXPORT ORDINAL="1387" NAME="?GetAdapterDesc@VVideo@@SA?AVVString@@H@Z" PURGE="0" COMMENT="" />
    <EXPORT ORDINAL="1388" NAME="?GetAdapterMode@VVideo@@SA?AU_devicemodeA@@H@Z" PURGE="0" COMMENT="" />
    <EXPORT ORDINAL="1389" NAME="?GetAdapterModeCount@VVideo@@SAHHH@Z" PURGE="0" COMMENT="" />
    <EXPORT ORDINAL="1390" NAME="?GetAdditionalOutputString@VManagedResource@@UAEHPADH@Z" PURGE="8" COMMENT="" />
    <EXPORT ORDINAL="1391" NAME="?GetAlignedElementCount@VPointerArrayHelpers@@SAHHH@Z" PURGE="0" COMMENT="" />
    <EXPORT ORDINAL="1392" NAME="?GetAngles@VMatrix4d@@QBEXQANW4eEULERTYPES@@@Z" PURGE="8" COMMENT="" />
    <EXPORT ORDINAL="1393" NAME="?GetAngles@VMatrix4f@@QBEXQANW4eEULERTYPES@@@Z" PURGE="8" COMMENT="" />
    <EXPORT ORDINAL="1394" NAME="?GetAnimTiming@Image_cl@@QBEJXZ" PURGE="0" COMMENT="" />
    <EXPORT ORDINAL="1395" NAME="?GetAnimType@Image_cl@@QBE?AW4AnimType_e@@XZ" PURGE="0" COMMENT="" />
    <EXPORT ORDINAL="1396" NAME="?GetApplicationDir@VBaseAppHelpers@@SA_NPAD@Z" PURGE="0" COMMENT="" />
    <EXPORT ORDINAL="1397" NAME="?GetArgCount@VArgList@@QBEHXZ" PURGE="0" COMMENT="" />
    <EXPORT ORDINAL="1398" NAME="?GetArgumentString@VArgList@@QBEHAAVVString@@@Z" PURGE="4" COMMENT="" />
    <EXPORT ORDINAL="1399" NAME="?GetArrayParam@VParamBlock@@QAEPAVVParamArray@@H@Z" PURGE="4" COMMENT="" />
    <EXPORT ORDINAL="1400" NAME="?GetAsFloatArray@VisMBVertexDescriptor_t@@SAHPBXHPAM@Z" PURGE="0" COMMENT="" />
    <EXPORT ORDINAL="1401" NAME="?GetAuxiliaryTextures@VModelInfoXMLDocument@@SAHPAVTiXmlElement@@PAPBD@Z" PURGE="0" COMMENT="" />
    <EXPORT ORDINAL="1402" NAME="?GetAverageColorAtPosition@VLightGrid_cl@@QAEXABVVVertex3f@@AAV2@H@Z" PURGE="12" COMMENT="" />
    <EXPORT ORDINAL="1403" NAME="?GetAverageColorAtPositionI@VLightGrid_cl@@QAEXABVVVertex3f@@AAV2@H@Z" PURGE="12" COMMENT="" />
    <EXPORT ORDINAL="1404" NAME="?GetBinaryBlock@VResourceSnapshotEntry@@QBEPBXAAH@Z" PURGE="4" COMMENT="" />
    <EXPORT ORDINAL="1405" NAME="?GetBitsPerPixel@VTextureObject@@SAIW4VTextureFormat_e@VTextureLoader@@@Z" PURGE="0" COMMENT="" />
    <EXPORT ORDINAL="1406" NAME="?GetBlindData@VCollisionNode@@QBEABVVStrDictionary@@XZ" PURGE="0" COMMENT="" />
    <EXPORT ORDINAL="1407" NAME="?GetBlindDataKey@VCollisionNode@@QBEPBDH@Z" PURGE="4" COMMENT="" />
    <EXPORT ORDINAL="1408" NAME="?GetBlindDataLength@VCollisionNode@@QBEHXZ" PURGE="0" COMMENT="" />
    <EXPORT ORDINAL="1409" NAME="?GetBlindDataValue@VCollisionNode@@QBE?AVVString@@H@Z" PURGE="8" COMMENT="" />
    <EXPORT ORDINAL="1410" NAME="?GetBool@VParamArray@@QAEHH@Z" PURGE="4" COMMENT="" />
    <EXPORT ORDINAL="1411" NAME="?GetBool@VParamBlock@@QAEHH@Z" PURGE="4" COMMENT="" />
    <EXPORT ORDINAL="1412" NAME="?GetBounds@VBBox@@QBEXAAN00000@Z" PURGE="24" COMMENT="" />
    <EXPORT ORDINAL="1413" NAME="?GetBounds@VBBox@@QBEXAAVVVertex3d@@0@Z" PURGE="8" COMMENT="" />
    <EXPORT ORDINAL="1414" NAME="?GetBracketString@@YAPADPBDDD@Z" PURGE="0" COMMENT="" />
    <EXPORT ORDINAL="1415" NAME="?GetByName@VCallbackList@@QBEPAXPBD@Z" PURGE="4" COMMENT="" />
    <EXPORT ORDINAL="1416" NAME="?GetCSProfileFromName@VShaderProgramResource@@SA?AW4ShaderModel@1@PBD@Z" PURGE="0" COMMENT="" />
    <EXPORT ORDINAL="1417" NAME="?GetCSProfileName@VShaderProgramResource@@SAPBDW4ShaderModel@1@@Z" PURGE="0" COMMENT="" />
    <EXPORT ORDINAL="1418" NAME="?GetCachedPixelShader@VShaderPassResource@@QAEPAUIDirect3DPixelShader9@@AAW4ShaderModel@VShaderProgramResource@@PAVIVLog@@@Z" PURGE="8" COMMENT="" />
    <EXPORT ORDINAL="1419" NAME="?GetCachedSkinningVertexShader@VShaderPassResource@@QAEPAUIDirect3DVertexShader9@@AAW4ShaderModel@VShaderProgramResource@@PAVIVLog@@@Z" PURGE="8" COMMENT="" />
    <EXPORT ORDINAL="1420" NAME="?GetCachedVertexShader@VShaderPassResource@@QAEPAUIDirect3DVertexShader9@@AAW4ShaderModel@VShaderProgramResource@@PAVIVLog@@@Z" PURGE="8" COMMENT="" />
    <EXPORT ORDINAL="1421" NAME="?GetCenter@VBBox@@QBE?AVVVertex3d@@XZ" PURGE="4" COMMENT="" />
    <EXPORT ORDINAL="1422" NAME="?GetChar@TiXmlBase@@KAPBDPBDPADPAHW4TiXmlEncoding@@@Z" PURGE="0" COMMENT="" />
    <EXPORT ORDINAL="1423" NAME="?GetCharEnumFromName@VShaderEnum@@QBEHPBDAAD@Z" PURGE="8" COMMENT="" />
    <EXPORT ORDINAL="1424" NAME="?GetCharsetFromLang@VLocale@@SAHG@Z" PURGE="0" COMMENT="" />
    <EXPORT ORDINAL="1425" NAME="?GetChild@VCollisionNode@@QBEPAV1@H@Z" PURGE="4" COMMENT="" />
    <EXPORT ORDINAL="1426" NAME="?GetChildCount@VCollisionNode@@QBEHXZ" PURGE="0" COMMENT="" />
    <EXPORT ORDINAL="1427" NAME="?GetChunkInStream@VChunkFile@@QAEPAVIVFileInStream@@XZ" PURGE="0" COMMENT="" />
    <EXPORT ORDINAL="1428" NAME="?GetChunkOutStream@VChunkFile@@QAEPAVIVFileOutStream@@XZ" PURGE="0" COMMENT="" />
    <EXPORT ORDINAL="1429" NAME="?GetClassFullParamDesc@VParamContainer@@SAPAVVParamDesc@@XZ" PURGE="0" COMMENT="" />
    <EXPORT ORDINAL="1430" NAME="?GetClassParamDesc@VParamContainer@@SAPAVVParamDesc@@XZ" PURGE="0" COMMENT="" />
    <EXPORT ORDINAL="1431" NAME="?GetClassTypeId@VAction@@SAPAUVType@@XZ" PURGE="0" COMMENT="" />
    <EXPORT ORDINAL="1432" NAME="?GetClassTypeId@VCompiledShaderPass@@SAPAUVType@@XZ" PURGE="0" COMMENT="" />
    <EXPORT ORDINAL="1433" NAME="?GetClassTypeId@VCompositeParam@@SAPAUVType@@XZ" PURGE="0" COMMENT="" />
    <EXPORT ORDINAL="1434" NAME="?GetClassTypeId@VLoadingTask@@SAPAUVType@@XZ" PURGE="0" COMMENT="" />
    <EXPORT ORDINAL="1435" NAME="?GetClassTypeId@VPList@@SAPAUVType@@XZ" PURGE="0" COMMENT="" />
    <EXPORT ORDINAL="1436" NAME="?GetClassTypeId@VParamArray@@SAPAUVType@@XZ" PURGE="0" COMMENT="" />
    <EXPORT ORDINAL="1437" NAME="?GetClassTypeId@VParamContainer@@SAPAUVType@@XZ" PURGE="0" COMMENT="" />
    <EXPORT ORDINAL="1438" NAME="?GetClassTypeId@VParamDesc@@SAPAUVType@@XZ" PURGE="0" COMMENT="" />
    <EXPORT ORDINAL="1439" NAME="?GetClassTypeId@VParamList@@SAPAUVType@@XZ" PURGE="0" COMMENT="" />
    <EXPORT ORDINAL="1440" NAME="?GetClassTypeId@VRefTarget@@SAPAUVType@@XZ" PURGE="0" COMMENT="" />
    <EXPORT ORDINAL="1441" NAME="?GetClassTypeId@VSenderReceiver@@SAPAUVType@@XZ" PURGE="0" COMMENT="" />
    <EXPORT ORDINAL="1442" NAME="?GetClassTypeId@VTestClass@@SAPAUVType@@XZ" PURGE="0" COMMENT="" />
    <EXPORT ORDINAL="1443" NAME="?GetClassTypeId@VTextureSerializationProxy@@SAPAUVType@@XZ" PURGE="0" COMMENT="" />
    <EXPORT ORDINAL="1444" NAME="?GetClassTypeId@VThreadedTask@@SAPAUVType@@XZ" PURGE="0" COMMENT="" />
    <EXPORT ORDINAL="1445" NAME="?GetClassTypeId@VTypedObject@@SAPAUVType@@XZ" PURGE="0" COMMENT="" />
    <EXPORT ORDINAL="1446" NAME="?GetClosestPoints@VLine@@QBEHABV1@AAVVVertex3d@@1@Z" PURGE="12" COMMENT="" />
    <EXPORT ORDINAL="1447" NAME="?GetCodePageFromCharset@VLocale@@SAHH@Z" PURGE="0" COMMENT="" />
    <EXPORT ORDINAL="1448" NAME="?GetCodePageFromLang@VLocale@@SAHG@Z" PURGE="0" COMMENT="" />
    <EXPORT ORDINAL="1449" NAME="?GetColor@VParamArray@@QAEHH@Z" PURGE="4" COMMENT="" />
    <EXPORT ORDINAL="1450" NAME="?GetColor@VParamBlock@@QAEHH@Z" PURGE="4" COMMENT="" />
    <EXPORT ORDINAL="1451" NAME="?GetColorDepthFromTextureFormat@VTextureObject@@SAHW4VTextureFormat_e@VTextureLoader@@@Z" PURGE="0" COMMENT="" />
    <EXPORT ORDINAL="1452" NAME="?GetColorMap@Image_cl@@QAE?AVImageMap_cl@@J@Z" PURGE="8" COMMENT="" />
    <EXPORT ORDINAL="1453" NAME="?GetColorsAtPosition@VLightGrid_cl@@QAEXABVVVertex3f@@PAV2@H@Z" PURGE="12" COMMENT="" />
    <EXPORT ORDINAL="1454" NAME="?GetColorsAtPositionI@VLightGrid_cl@@QAEXABVVVertex3f@@PAV2@H@Z" PURGE="12" COMMENT="" />
    <EXPORT ORDINAL="1455" NAME="?GetCommandType@VCommandManager@@QAEPAUVCommandType@@I@Z" PURGE="4" COMMENT="" />
    <EXPORT ORDINAL="1456" NAME="?GetCommandTypeCount@VCommandManager@@QAEHXZ" PURGE="0" COMMENT="" />
    <EXPORT ORDINAL="1457" NAME="?GetCommandTypeList@VModule@@QBEPAUVCommandType@@XZ" PURGE="0" COMMENT="" />
    <EXPORT ORDINAL="1458" NAME="?GetCompilerOptionDefine@VShaderProgramResource@@SAXPADW4VShaderType@@W4VTargetPlatform@@@Z" PURGE="0" COMMENT="" />
    <EXPORT ORDINAL="1459" NAME="?GetComponentCountForFormat@VisMBVertexDescriptor_t@@SAHH@Z" PURGE="0" COMMENT="" />
    <EXPORT ORDINAL="1460" NAME="?GetComponentSizeForFormat@VisMBVertexDescriptor_t@@SAHH@Z" PURGE="0" COMMENT="" />
    <EXPORT ORDINAL="1461" NAME="?GetCompositeParam@VParamBlock@@QAEPAVVCompositeParam@@H@Z" PURGE="4" COMMENT="" />
    <EXPORT ORDINAL="1462" NAME="?GetConfig@IVisionWindow@@QAEAAVVWindowConfig@@XZ" PURGE="0" COMMENT="" />
    <EXPORT ORDINAL="1463" NAME="?GetConnectionByIdentifier@VTarget@@QAEPAVVConnection@@PBD@Z" PURGE="4" COMMENT="" />
    <EXPORT ORDINAL="1464" NAME="?GetContentSize@VMessage@@QAEHXZ" PURGE="0" COMMENT="" />
    <EXPORT ORDINAL="1465" NAME="?GetControlName@IVInputDevice@@UAEPBDI@Z" PURGE="4" COMMENT="" />
    <EXPORT ORDINAL="1466" NAME="?GetControlName@VGamepadPC@@UAEPBDI@Z" PURGE="4" COMMENT="" />
    <EXPORT ORDINAL="1467" NAME="?GetControlName@VGamepadXI@@UAEPBDI@Z" PURGE="4" COMMENT="" />
    <EXPORT ORDINAL="1468" NAME="?GetControlName@VKeyboardPC@@UAEPBDI@Z" PURGE="4" COMMENT="" />
    <EXPORT ORDINAL="1469" NAME="?GetControlName@VMousePC@@UAEPBDI@Z" PURGE="4" COMMENT="" />
    <EXPORT ORDINAL="1470" NAME="?GetControlValue@IVInputDevice@@UAEMIM_N@Z" PURGE="12" COMMENT="" />
    <EXPORT ORDINAL="1471" NAME="?GetControlValue@VGamepadPC@@UAEMIM_N@Z" PURGE="12" COMMENT="" />
    <EXPORT ORDINAL="1472" NAME="?GetControlValue@VGamepadXI@@UAEMIM_N@Z" PURGE="12" COMMENT="" />
    <EXPORT ORDINAL="1473" NAME="?GetControlValue@VKeyboardPC@@UAEMIM_N@Z" PURGE="12" COMMENT="" />
    <EXPORT ORDINAL="1474" NAME="?GetControlValue@VMousePC@@UAEMIM_N@Z" PURGE="12" COMMENT="" />
    <EXPORT ORDINAL="1475" NAME="?GetCorners@VBBox@@QBEXQAVVVertex3d@@@Z" PURGE="4" COMMENT="" />
    <EXPORT ORDINAL="1476" NAME="?GetCount@VMapCPtrToCPtr@@QBEHXZ" PURGE="0" COMMENT="" />
    <EXPORT ORDINAL="1477" NAME="?GetCount@VMapCPtrToInt@@QBEHXZ" PURGE="0" COMMENT="" />
    <EXPORT ORDINAL="1478" NAME="?GetCount@VMapCPtrToPtr@@QBEHXZ" PURGE="0" COMMENT="" />
    <EXPORT ORDINAL="1479" NAME="?GetCount@VMapIntToInt@@QBEHXZ" PURGE="0" COMMENT="" />
    <EXPORT ORDINAL="1480" NAME="?GetCount@VMapIntToPtr@@QBEHXZ" PURGE="0" COMMENT="" />
    <EXPORT ORDINAL="1481" NAME="?GetCount@VMapPtrToInt@@QBEHXZ" PURGE="0" COMMENT="" />
    <EXPORT ORDINAL="1482" NAME="?GetCount@VMapPtrToPtr@@QBEHXZ" PURGE="0" COMMENT="" />
    <EXPORT ORDINAL="1483" NAME="?GetCount@VMapPtrToUInt@@QBEHXZ" PURGE="0" COMMENT="" />
    <EXPORT ORDINAL="1484" NAME="?GetCount@VMapStrToPtr@@QBEHXZ" PURGE="0" COMMENT="" />
    <EXPORT ORDINAL="1485" NAME="?GetCurrentAdapterMode@VVideo@@SA_NHAAUVVideoMode@@@Z" PURGE="0" COMMENT="" />
    <EXPORT ORDINAL="1486" NAME="?GetCurrentMemoryUsageForMemLimit@VResourceManager@@UBEHXZ" PURGE="0" COMMENT="" />
    <EXPORT ORDINAL="1487" NAME="?GetCurrentPercentageMemoryUsage@VResourceManager@@QBEMXZ" PURGE="0" COMMENT="" />
    <EXPORT ORDINAL="1488" NAME="?GetCurrentProcessor@VThreadManager@@SAHXZ" PURGE="0" COMMENT="" />
    <EXPORT ORDINAL="1489" NAME="?GetCustomIntValue@VResourceSnapshotEntryRetail@@UBEHHH@Z" PURGE="8" COMMENT="" />
    <EXPORT ORDINAL="1490" NAME="?GetCustomIntValue@VResourceSnapshotEntryXML@@UBEHHH@Z" PURGE="8" COMMENT="" />
    <EXPORT ORDINAL="1491" NAME="?GetCustomIntValueCount@VResourceSnapshotEntryRetail@@UBEHXZ" PURGE="0" COMMENT="" />
    <EXPORT ORDINAL="1492" NAME="?GetCustomIntValueCount@VResourceSnapshotEntryXML@@UBEHXZ" PURGE="0" COMMENT="" />
    <EXPORT ORDINAL="1493" NAME="?GetCustomShapeTransformation@VArchive@@UAEHAAVVisVector_cl@@AAVVisMatrix3x3_cl@@0@Z" PURGE="12" COMMENT="" />
    <EXPORT ORDINAL="1494" NAME="?GetD3D9LockFlags@VTextureObject@@QAEKH@Z" PURGE="4" COMMENT="" />
    <EXPORT ORDINAL="1495" NAME="?GetD3DDevice@VVideo@@SAPAUIDirect3DDevice9@@XZ" PURGE="0" COMMENT="" />
    <EXPORT ORDINAL="1496" NAME="?GetD3DInstance@VVideo@@SAPAUIDirect3D9@@XZ" PURGE="0" COMMENT="" />
    <EXPORT ORDINAL="1497" NAME="?GetD3DPPFromVideoConfig@VVideo@@SAXAAVVVideoConfig@@AAU_D3DPRESENT_PARAMETERS_@@@Z" PURGE="0" COMMENT="" />
    <EXPORT ORDINAL="1498" NAME="?GetDInputDevice@VKeyboardPC@@QAEPAUIDirectInputDevice8A@@XZ" PURGE="0" COMMENT="" />
    <EXPORT ORDINAL="1499" NAME="?GetDInputDevice@VMousePC@@QAEPAUIDirectInputDevice8A@@XZ" PURGE="0" COMMENT="" />
    <EXPORT ORDINAL="1500" NAME="?GetDSProfileFromName@VShaderProgramResource@@SA?AW4ShaderModel@1@PBD@Z" PURGE="0" COMMENT="" />
    <EXPORT ORDINAL="1501" NAME="?GetDSProfileName@VShaderProgramResource@@SAPBDW4ShaderModel@1@@Z" PURGE="0" COMMENT="" />
    <EXPORT ORDINAL="1502" NAME="?GetData@ImageMap_cl@@QBEQAEXZ" PURGE="0" COMMENT="" />
    <EXPORT ORDINAL="1503" NAME="?GetDataDirectory@VClipboard@@UAEPBDH@Z" PURGE="4" COMMENT="" />
    <EXPORT ORDINAL="1504" NAME="?GetDataDirectory@VDiskFileStreamManager@@UAEPBDH@Z" PURGE="4" COMMENT="" />
    <EXPORT ORDINAL="1505" NAME="?GetDataDirectory@VZipFileStreamManager@@UAEPBDH@Z" PURGE="4" COMMENT="" />
    <EXPORT ORDINAL="1506" NAME="?GetDebugOutputString@VManagedResource@@UBEXPADH@Z" PURGE="8" COMMENT="" />
    <EXPORT ORDINAL="1507" NAME="?GetDefaultBPP@VVideo@@SAHXZ" PURGE="0" COMMENT="" />
    <EXPORT ORDINAL="1508" NAME="?GetDependencies@VCompiledShaderPass@@QAEXAAVVResourceSnapshot@@PAVVManagedResource@@@Z" PURGE="8" COMMENT="" />
    <EXPORT ORDINAL="1509" NAME="?GetDependencies@VCompiledTechnique@@QAEXAAVVResourceSnapshot@@PAVVManagedResource@@@Z" PURGE="8" COMMENT="" />
    <EXPORT ORDINAL="1510" NAME="?GetDependencies@VManagedResource@@UAEXAAVVResourceSnapshot@@@Z" PURGE="4" COMMENT="" />
    <EXPORT ORDINAL="1511" NAME="?GetDependencies@VTextureObject@@UAEXAAVVResourceSnapshot@@@Z" PURGE="4" COMMENT="" />
    <EXPORT ORDINAL="1512" NAME="?GetDependencies@VTypedObject@@UAEXAAVVResourceSnapshot@@@Z" PURGE="4" COMMENT="" />
    <EXPORT ORDINAL="1513" NAME="?GetDepth@ImageMap_cl@@QBE?AW4ColorDepth_e@@XZ" PURGE="0" COMMENT="" />
    <EXPORT ORDINAL="1514" NAME="?GetDescriptor@MeshVertex_t@VLightmapPrimitive@@SAXAAUVisMBVertexDescriptor_t@@@Z" PURGE="0" COMMENT="" />
    <EXPORT ORDINAL="1515" NAME="?GetDirection@VPlane4d@@QAE?AW4VDIRECTION@@XZ" PURGE="0" COMMENT="" />
    <EXPORT ORDINAL="1516" NAME="?GetDirection@VVertex3d@@QAE?AW4VDIRECTION@@XZ" PURGE="0" COMMENT="" />
    <EXPORT ORDINAL="1517" NAME="?GetDirectionalLightColors@VLightGrid_cl@@SAXQAVVVertex3f@@ABV2@11@Z" PURGE="0" COMMENT="" />
    <EXPORT ORDINAL="1518" NAME="?GetDiskFileStreamManager@VTestUnit@@QBEPAVIVFileStreamManager@@XZ" PURGE="0" COMMENT="" />
    <EXPORT ORDINAL="1519" NAME="?GetDistance@VLine@@QBENABVVVertex3d@@PAV2@@Z" PURGE="8" COMMENT="" />
    <EXPORT ORDINAL="1520" NAME="?GetDistance@VPlane4d@@QBEMABVVVertex3f@@@Z" PURGE="4" COMMENT="" />
    <EXPORT ORDINAL="1521" NAME="?GetDistance@VPlane4d@@QBENABVVVertex3d@@@Z" PURGE="4" COMMENT="" />
    <EXPORT ORDINAL="1522" NAME="?GetDocument@TiXmlNode@@QAEPAVTiXmlDocument@@XZ" PURGE="0" COMMENT="" />
    <EXPORT ORDINAL="1523" NAME="?GetDocument@TiXmlNode@@QBEPBVTiXmlDocument@@XZ" PURGE="0" COMMENT="" />
    <EXPORT ORDINAL="1524" NAME="?GetEngineMatrix@VMatrix4d@@QBEXAAVVMatrixEngine3@@@Z" PURGE="4" COMMENT="" />
    <EXPORT ORDINAL="1525" NAME="?GetEngineMatrix@VMatrix4f@@QBEXAAVVMatrixEngine3@@@Z" PURGE="4" COMMENT="" />
    <EXPORT ORDINAL="1526" NAME="?GetEntity@TiXmlBase@@KAPBDPBDPADPAHW4TiXmlEncoding@@@Z" PURGE="0" COMMENT="" />
    <EXPORT ORDINAL="1527" NAME="?GetEntryList@VShaderEnum@@QBEPAPADXZ" PURGE="0" COMMENT="" />
    <EXPORT ORDINAL="1528" NAME="?GetEnum@VParamArray@@QAEHH@Z" PURGE="4" COMMENT="" />
    <EXPORT ORDINAL="1529" NAME="?GetEnum@VParamBlock@@QAEHH@Z" PURGE="4" COMMENT="" />
    <EXPORT ORDINAL="1530" NAME="?GetEnumCount@VisVariable_cl@@QAEHXZ" PURGE="0" COMMENT="" />
    <EXPORT ORDINAL="1531" NAME="?GetEnumField@VisVariable_cl@@QAEXHPAD@Z" PURGE="8" COMMENT="" />
    <EXPORT ORDINAL="1532" NAME="?GetEnumFromIndex@VShaderEnum@@QBEIH@Z" PURGE="4" COMMENT="" />
    <EXPORT ORDINAL="1533" NAME="?GetEnumFromName@VShaderEnum@@QBEHPBDAAI@Z" PURGE="8" COMMENT="" />
    <EXPORT ORDINAL="1534" NAME="?GetEnumFromName@VShaderEnum@@QBEIPBD@Z" PURGE="4" COMMENT="" />
    <EXPORT ORDINAL="1535" NAME="?GetErrorHandlerCallback@VFileAccess@@SAP6A_NW4FileErrorState@1@@ZXZ" PURGE="0" COMMENT="" />
    <EXPORT ORDINAL="1536" NAME="?GetErrorMessage@VArchiveException@@UAEHPADIPAI@Z" PURGE="12" COMMENT="" />
    <EXPORT ORDINAL="1537" NAME="?GetEulerAngles@VMatrix4d@@QBEXAAVVVertex3d@@@Z" PURGE="4" COMMENT="" />
    <EXPORT ORDINAL="1538" NAME="?GetEulerAngles@VMatrix4d@@QBEXAAVVVertex3f@@@Z" PURGE="4" COMMENT="" />
    <EXPORT ORDINAL="1539" NAME="?GetEulerAngles@VMatrix4f@@QBEXAAVVVertex3d@@@Z" PURGE="4" COMMENT="" />
    <EXPORT ORDINAL="1540" NAME="?GetEulerAngles@VMatrix4f@@QBEXAAVVVertex3f@@@Z" PURGE="4" COMMENT="" />
    <EXPORT ORDINAL="1541" NAME="?GetExecutingThread@VThreadManager@@QAEPAVVManagedThread@@XZ" PURGE="0" COMMENT="" />
    <EXPORT ORDINAL="1542" NAME="?GetExtension@VPathHelper@@SAPBDPBD@Z" PURGE="0" COMMENT="" />
    <EXPORT ORDINAL="1543" NAME="?GetExtension@VPathHelper@@SA_NPADPBD@Z" PURGE="0" COMMENT="" />
    <EXPORT ORDINAL="1544" NAME="?GetExtensionPos@VPathHelper@@SAHPBD@Z" PURGE="0" COMMENT="" />
    <EXPORT ORDINAL="1545" NAME="?GetFaceNormal@VLightGrid_cl@@SAABVVVertex3f@@H@Z" PURGE="0" COMMENT="" />
    <EXPORT ORDINAL="1546" NAME="?GetFileDir@VPathHelper@@SAXPBDPAD@Z" PURGE="0" COMMENT="" />
    <EXPORT ORDINAL="1547" NAME="?GetFileDirEx@VPathHelper@@SAXPBDPAD@Z" PURGE="0" COMMENT="" />
    <EXPORT ORDINAL="1548" NAME="?GetFileLock@VFileAccessManager@@SAPAVVFileLock@@PBDPAVIVFileStreamManager@@@Z" PURGE="0" COMMENT="" />
    <EXPORT ORDINAL="1549" NAME="?GetFileManager@VResourceManager@@UAEPAVIVFileStreamManager@@XZ" PURGE="0" COMMENT="" />
    <EXPORT ORDINAL="1550" NAME="?GetFileName@RGBAStream@@UAEPBDXZ" PURGE="-1" COMMENT="" />
    <EXPORT ORDINAL="1551" NAME="?GetFileName@VDiskFileInStream@@UAEPBDXZ" PURGE="0" COMMENT="" />
    <EXPORT ORDINAL="1552" NAME="?GetFileName@VDiskFileOutStream@@UAEPBDXZ" PURGE="0" COMMENT="" />
    <EXPORT ORDINAL="1553" NAME="?GetFileName@VMemBlockWrapperStream@@UAEPBDXZ" PURGE="0" COMMENT="" />
    <EXPORT ORDINAL="1554" NAME="?GetFileName@VMemoryInStream@@UAEPBDXZ" PURGE="0" COMMENT="" />
    <EXPORT ORDINAL="1555" NAME="?GetFileName@VMemoryOutStream@@UAEPBDXZ" PURGE="0" COMMENT="" />
    <EXPORT ORDINAL="1556" NAME="?GetFileName@VResourceSnapshotEntryRetail@@UBEPBDXZ" PURGE="0" COMMENT="" />
    <EXPORT ORDINAL="1557" NAME="?GetFileName@VResourceSnapshotEntryXML@@UBEPBDXZ" PURGE="0" COMMENT="" />
    <EXPORT ORDINAL="1558" NAME="?GetFilePathResolver@VResourceManager@@SAAAVIVFilePathResolver@@XZ" PURGE="0" COMMENT="" />
    <EXPORT ORDINAL="1559" NAME="?GetFilename@VArchive@@QBEPBDXZ" PURGE="0" COMMENT="" />
    <EXPORT ORDINAL="1560" NAME="?GetFilename@VChunkFile@@QBEPBDXZ" PURGE="0" COMMENT="" />
    <EXPORT ORDINAL="1561" NAME="?GetFilename@VPathHelper@@SAPBDPBD@Z" PURGE="0" COMMENT="" />
    <EXPORT ORDINAL="1562" NAME="?GetFilenameNoExt@VPathHelper@@SA_NPADPBD@Z" PURGE="0" COMMENT="" />
    <EXPORT ORDINAL="1563" NAME="?GetFinalManagerName@VResourceSnapshotEntry@@QBEPBDXZ" PURGE="0" COMMENT="" />
    <EXPORT ORDINAL="1564" NAME="?GetFlag@VParamArray@@QAEHH@Z" PURGE="4" COMMENT="" />
    <EXPORT ORDINAL="1565" NAME="?GetFlag@VParamArray@@QAEHHH@Z" PURGE="8" COMMENT="" />
    <EXPORT ORDINAL="1566" NAME="?GetFlag@VParamArray@@QAEHHPBD@Z" PURGE="8" COMMENT="" />
    <EXPORT ORDINAL="1567" NAME="?GetFlag@VParamBlock@@QAEHH@Z" PURGE="4" COMMENT="" />
    <EXPORT ORDINAL="1568" NAME="?GetFlag@VParamBlock@@QAEHHH@Z" PURGE="8" COMMENT="" />
    <EXPORT ORDINAL="1569" NAME="?GetFlag@VParamBlock@@QAEHHPBD@Z" PURGE="8" COMMENT="" />
    <EXPORT ORDINAL="1570" NAME="?GetFlagIndex@VArgList@@QBEHPBD0@Z" PURGE="8" COMMENT="" />
    <EXPORT ORDINAL="1571" NAME="?GetFlags@VThreadManager@@QAEHXZ" PURGE="0" COMMENT="" />
    <EXPORT ORDINAL="1572" NAME="?GetFloat@VParamArray@@QAEMH@Z" PURGE="4" COMMENT="" />
    <EXPORT ORDINAL="1573" NAME="?GetFloat@VParamBlock@@QAEMH@Z" PURGE="4" COMMENT="" />
    <EXPORT ORDINAL="1574" NAME="?GetFloatDefaultValue@VParam@@QAEMPBD@Z" PURGE="4" COMMENT="" />
    <EXPORT ORDINAL="1575" NAME="?GetFloatSpinnerValue@VParam@@QAEMXZ" PURGE="0" COMMENT="" />
    <EXPORT ORDINAL="1576" NAME="?GetFloatVec2@VParamArray@@QAEXHPAM@Z" PURGE="8" COMMENT="" />
    <EXPORT ORDINAL="1577" NAME="?GetFloatVec2@VParamBlock@@QAEXHPAM@Z" PURGE="8" COMMENT="" />
    <EXPORT ORDINAL="1578" NAME="?GetFloatVec4@VParamArray@@QAEXHPAM@Z" PURGE="8" COMMENT="" />
    <EXPORT ORDINAL="1579" NAME="?GetFloatVec4@VParamBlock@@QAEXHPAM@Z" PURGE="8" COMMENT="" />
    <EXPORT ORDINAL="1580" NAME="?GetFloatVector@VParamArray@@QAEMHPBD@Z" PURGE="8" COMMENT="" />
    <EXPORT ORDINAL="1581" NAME="?GetFloatVector@VParamArray@@QAEXHAAVVVertex3f@@@Z" PURGE="8" COMMENT="" />
    <EXPORT ORDINAL="1582" NAME="?GetFloatVector@VParamBlock@@QAEMHPBD@Z" PURGE="8" COMMENT="" />
    <EXPORT ORDINAL="1583" NAME="?GetFloatVector@VParamBlock@@QAEXHAAVVVertex3f@@@Z" PURGE="8" COMMENT="" />
    <EXPORT ORDINAL="1584" NAME="?GetFpuPrecision@VMathHelpers@@SAHXZ" PURGE="0" COMMENT="" />
    <EXPORT ORDINAL="1585" NAME="?GetFrame@VTexAnimInfo@@QBEXAAUVTexAnimFrame_t@@H@Z" PURGE="8" COMMENT="" />
    <EXPORT ORDINAL="1586" NAME="?GetFrameCount@VTexAnimInfo@@QBEHXZ" PURGE="0" COMMENT="" />
    <EXPORT ORDINAL="1587" NAME="?GetFullParamDesc@VParamContainer@@UAEPAVVParamDesc@@XZ" PURGE="0" COMMENT="" />
    <EXPORT ORDINAL="1588" NAME="?GetFullPath@VCollisionNode@@QBEXAAVVString@@@Z" PURGE="4" COMMENT="" />
    <EXPORT ORDINAL="1589" NAME="?GetGSProfileFromName@VShaderProgramResource@@SA?AW4ShaderModel@1@PBD@Z" PURGE="0" COMMENT="" />
    <EXPORT ORDINAL="1590" NAME="?GetGSProfileName@VShaderProgramResource@@SAPBDW4ShaderModel@1@@Z" PURGE="0" COMMENT="" />
    <EXPORT ORDINAL="1591" NAME="?GetGammaRamp@VVideo@@SA_NIPAM00@Z" PURGE="0" COMMENT="" />
    <EXPORT ORDINAL="1592" NAME="?GetGlobalManager@VActionManager@@SAPAV1@XZ" PURGE="0" COMMENT="" />
    <EXPORT ORDINAL="1593" NAME="?GetGlobalScratchBuffer@VTextureManager@@QAEPAXH@Z" PURGE="4" COMMENT="" />
    <EXPORT ORDINAL="1594" NAME="?GetGonnectionBySocket@VTarget@@QAEPAVVConnection@@H@Z" PURGE="4" COMMENT="" />
    <EXPORT ORDINAL="1595" NAME="?GetHSProfileFromName@VShaderProgramResource@@SA?AW4ShaderModel@1@PBD@Z" PURGE="0" COMMENT="" />
    <EXPORT ORDINAL="1596" NAME="?GetHSProfileName@VShaderProgramResource@@SAPBDW4ShaderModel@1@@Z" PURGE="0" COMMENT="" />
    <EXPORT ORDINAL="1597" NAME="?GetHandle@VManagedThread@@QBEPAXXZ" PURGE="0" COMMENT="" />
    <EXPORT ORDINAL="1598" NAME="?GetHardwareId@IVJoypad@@UAEHXZ" PURGE="0" COMMENT="" />
    <EXPORT ORDINAL="1599" NAME="?GetHardwareId@VGamepadPC@@UAEHXZ" PURGE="0" COMMENT="" />
    <EXPORT ORDINAL="1600" NAME="?GetHardwareId@VGamepadXI@@UAEHXZ" PURGE="0" COMMENT="" />
    <EXPORT ORDINAL="1601" NAME="?GetHash@VHashString@@SAHPBD@Z" PURGE="0" COMMENT="" />
    <EXPORT ORDINAL="1602" NAME="?GetHash@VPathHelper@@SAHPBD@Z" PURGE="0" COMMENT="" />
    <EXPORT ORDINAL="1603" NAME="?GetHashTableSize@VMapStrToPtr@@QBEIXZ" PURGE="0" COMMENT="" />
    <EXPORT ORDINAL="1604" NAME="?GetHeapPointer@VManagedThread@@QAEPAXI@Z" PURGE="4" COMMENT="" />
    <EXPORT ORDINAL="1605" NAME="?GetHeight@ImageMap_cl@@QBEJXZ" PURGE="0" COMMENT="" />
    <EXPORT ORDINAL="1606" NAME="?GetHeight@Image_cl@@QBEJXZ" PURGE="0" COMMENT="" />
    <EXPORT ORDINAL="1607" NAME="?GetHeightMap@Image_cl@@QBE?AVImageMap_cl@@J@Z" PURGE="8" COMMENT="" />
    <EXPORT ORDINAL="1608" NAME="?GetHeightMapDepth@Image_cl@@QAE?AW4ColorDepth_e@@XZ" PURGE="0" COMMENT="" />
    <EXPORT ORDINAL="1609" NAME="?GetIdentifier@VConnection@@QAEPBDXZ" PURGE="0" COMMENT="" />
    <EXPORT ORDINAL="1610" NAME="?GetImageDataPtr@VTextureLoader@@QAEPAXHHPAUImageInfo_t@1@@Z" PURGE="12" COMMENT="" />
    <EXPORT ORDINAL="1611" NAME="?GetIncludeByTextPtr@VShaderIncludeManager@@QAEPAVVShaderIncludeEntry@@PBD@Z" PURGE="4" COMMENT="" />
    <EXPORT ORDINAL="1612" NAME="?GetIncludeManager@VShaderProgramResource@@SAPAVVShaderIncludeManager@@XZ" PURGE="0" COMMENT="" />
    <EXPORT ORDINAL="1613" NAME="?GetIndex@VParamArray@@QAEHXZ" PURGE="0" COMMENT="" />
    <EXPORT ORDINAL="1614" NAME="?GetIndexFromEnum@VShaderEnum@@QBEHI@Z" PURGE="4" COMMENT="" />
    <EXPORT ORDINAL="1615" NAME="?GetIndexFromName@VShaderEnum@@QBEHPBD@Z" PURGE="4" COMMENT="" />
    <EXPORT ORDINAL="1616" NAME="?GetInitializationFlags@VMousePC@@QAEXAAHAA_N1@Z" PURGE="12" COMMENT="" />
    <EXPORT ORDINAL="1617" NAME="?GetInputDevice@VInputDeviceManagerPC@@SAAAVIVInputDevice@@W4VInputDeviceType@@@Z" PURGE="0" COMMENT="" />
    <EXPORT ORDINAL="1618" NAME="?GetInputMethodKeyboard@VInputDeviceManagerPC@@SAJXZ" PURGE="0" COMMENT="" />
    <EXPORT ORDINAL="1619" NAME="?GetInputMethodMouse@VInputDeviceManagerPC@@SAJXZ" PURGE="0" COMMENT="" />
    <EXPORT ORDINAL="1620" NAME="?GetInstance@VTextureSerializationProxy@@UAEPAVIVSerializationProxyCreator@@XZ" PURGE="0" COMMENT="" />
    <EXPORT ORDINAL="1621" NAME="?GetInstance@VVideo@@SAPAUHINSTANCE__@@XZ" PURGE="0" COMMENT="" />
    <EXPORT ORDINAL="1622" NAME="?GetInt@VParamArray@@QAEHH@Z" PURGE="4" COMMENT="" />
    <EXPORT ORDINAL="1623" NAME="?GetInt@VParamBlock@@QAEHH@Z" PURGE="4" COMMENT="" />
    <EXPORT ORDINAL="1624" NAME="?GetIntersection@VPlane4d@@QAEHAAVVVertex3d@@00AAN@Z" PURGE="16" COMMENT="" />
    <EXPORT ORDINAL="1625" NAME="?GetIntersection@VPlane4d@@QAEHAAVVVertex3f@@00AAN@Z" PURGE="16" COMMENT="" />
    <EXPORT ORDINAL="1626" NAME="?GetIntersection@VPlane4f@@QAEHAAVVVertex3f@@00AAM@Z" PURGE="16" COMMENT="" />
    <EXPORT ORDINAL="1627" NAME="?GetKeyboard@VInputDeviceManagerPC@@SAAAVVKeyboardPC@@XZ" PURGE="0" COMMENT="" />
    <EXPORT ORDINAL="1628" NAME="?GetLastAnswer@vPlatformStubDX11@@UBEPBDXZ" PURGE="0" COMMENT="" />
    <EXPORT ORDINAL="1629" NAME="?GetLastAnswer@vPlatformStubDX9@@UBEPBDXZ" PURGE="0" COMMENT="" />
    <EXPORT ORDINAL="1630" NAME="?GetLastAnswer@vPlatformStubGLES2@@UBEPBDXZ" PURGE="-1" COMMENT="" />
    <EXPORT ORDINAL="1631" NAME="?GetLastAnswer@vPlatformStubLinux@@UBEPBDXZ" PURGE="-1" COMMENT="" />
    <EXPORT ORDINAL="1632" NAME="?GetLastAnswer@vPlatformStubPS3@@UBEPBDXZ" PURGE="-1" COMMENT="" />
    <EXPORT ORDINAL="1633" NAME="?GetLastAnswer@vPlatformStubPSP2@@UBEPBDXZ" PURGE="-1" COMMENT="" />
    <EXPORT ORDINAL="1634" NAME="?GetLastAnswer@vPlatformStubWii@@UBEPBDXZ" PURGE="-1" COMMENT="" />
    <EXPORT ORDINAL="1635" NAME="?GetLastAnswer@vPlatformStubXbox360@@UBEPBDXZ" PURGE="-1" COMMENT="" />
    <EXPORT ORDINAL="1636" NAME="?GetLastError@VChunkFile@@SAPBDPAI0@Z" PURGE="0" COMMENT="" />
    <EXPORT ORDINAL="1637" NAME="?GetLastError@VFileAccess@@SA?AW4FileErrorState@1@PAUVFileHandle@@@Z" PURGE="0" COMMENT="" />
    <EXPORT ORDINAL="1638" NAME="?GetLastError@VVideo@@SA?AVVString@@XZ" PURGE="0" COMMENT="" />
    <EXPORT ORDINAL="1639" NAME="?GetLastError@vPlatformStubDX11@@UBEPBDXZ" PURGE="0" COMMENT="" />
    <EXPORT ORDINAL="1640" NAME="?GetLastError@vPlatformStubDX9@@UBEPBDXZ" PURGE="0" COMMENT="" />
    <EXPORT ORDINAL="1641" NAME="?GetLastError@vPlatformStubGLES2@@UBEPBDXZ" PURGE="-1" COMMENT="" />
    <EXPORT ORDINAL="1642" NAME="?GetLastError@vPlatformStubLinux@@UBEPBDXZ" PURGE="-1" COMMENT="" />
    <EXPORT ORDINAL="1643" NAME="?GetLastError@vPlatformStubPS3@@UBEPBDXZ" PURGE="-1" COMMENT="" />
    <EXPORT ORDINAL="1644" NAME="?GetLastError@vPlatformStubPSP2@@UBEPBDXZ" PURGE="-1" COMMENT="" />
    <EXPORT ORDINAL="1645" NAME="?GetLastError@vPlatformStubWii@@UBEPBDXZ" PURGE="-1" COMMENT="" />
    <EXPORT ORDINAL="1646" NAME="?GetLastError@vPlatformStubXbox360@@UBEPBDXZ" PURGE="-1" COMMENT="" />
    <EXPORT ORDINAL="1647" NAME="?GetLength@VModuleInfoList@@QBEHXZ" PURGE="0" COMMENT="" />
    <EXPORT ORDINAL="1648" NAME="?GetLength@VVertex3d@@QBENXZ" PURGE="0" COMMENT="" />
    <EXPORT ORDINAL="1649" NAME="?GetLightmapTexture@VLightmapSceneInfo@@QAEPAVVTextureObject@@HH@Z" PURGE="8" COMMENT="" />
    <EXPORT ORDINAL="1650" NAME="?GetLoadedResourceCount@VResourceManager@@QBEHXZ" PURGE="0" COMMENT="" />
    <EXPORT ORDINAL="1651" NAME="?GetLoadingLog@VTextureManager@@UAEPAVIVLog@@PAVVTextureObject@@@Z" PURGE="4" COMMENT="" />
    <EXPORT ORDINAL="1652" NAME="?GetLocalPath@VShaderIncludeManager@@QAEPBDXZ" PURGE="0" COMMENT="" />
    <EXPORT ORDINAL="1653" NAME="?GetLock@VParamArray@@QAEHXZ" PURGE="0" COMMENT="" />
    <EXPORT ORDINAL="1654" NAME="?GetLock@VParamBlock@@QAEHH@Z" PURGE="4" COMMENT="" />
    <EXPORT ORDINAL="1655" NAME="?GetLogBroadcaster@VModule@@QAEPAVVBroadcaster@@XZ" PURGE="0" COMMENT="" />
    <EXPORT ORDINAL="1656" NAME="?GetMainThreadTaskTypes@VThreadManager@@QAEHAAV?$DynArray_cl@PAUVType@@@@AAV?$DynArray_cl@H@@@Z" PURGE="8" COMMENT="" />
    <EXPORT ORDINAL="1657" NAME="?GetMainThreadWorkload@VThreadManager@@QAEMXZ" PURGE="0" COMMENT="" />
    <EXPORT ORDINAL="1658" NAME="?GetManager@VThreadManager@@SAPAV1@XZ" PURGE="0" COMMENT="" />
    <EXPORT ORDINAL="1659" NAME="?GetManagerName@VResourceManager@@QBEPBDXZ" PURGE="0" COMMENT="" />
    <EXPORT ORDINAL="1660" NAME="?GetManagerName@VResourceSnapshotEntryRetail@@UBEPBDXZ" PURGE="0" COMMENT="" />
    <EXPORT ORDINAL="1661" NAME="?GetManagerName@VResourceSnapshotEntryXML@@UBEPBDXZ" PURGE="0" COMMENT="" />
    <EXPORT ORDINAL="1662" NAME="?GetMapping@VInputMap@@QAEPAVVMappedInput@@HH@Z" PURGE="8" COMMENT="" />
    <EXPORT ORDINAL="1663" NAME="?GetMappingCoords@VTriangle@@QBE_NABVVVertex3f@@AAVVMappingVertex@@ABV3@22@Z" PURGE="20" COMMENT="" />
    <EXPORT ORDINAL="1664" NAME="?GetMaterial@VModelInfoXMLDocument@@QAEPAVTiXmlElement@@PAV2@PBD@Z" PURGE="8" COMMENT="" />
    <EXPORT ORDINAL="1665" NAME="?GetMaterialAttributeString@VModelInfoXMLDocument@@SAPBDPAVTiXmlElement@@PBD1@Z" PURGE="0" COMMENT="" />
    <EXPORT ORDINAL="1666" NAME="?GetMaterialsNode@VModelInfoXMLDocument@@QAEPAVTiXmlElement@@_N@Z" PURGE="4" COMMENT="" />
    <EXPORT ORDINAL="1667" NAME="?GetMatrix@VCollisionNode@@QBEABVVMatrix4d@@XZ" PURGE="0" COMMENT="" />
    <EXPORT ORDINAL="1668" NAME="?GetMaxFrameCount@Image_cl@@QAEJXZ" PURGE="0" COMMENT="" />
    <EXPORT ORDINAL="1669" NAME="?GetMaxMatrix@VMatrix4d@@QBEXAAVVMatrixMax4@@@Z" PURGE="4" COMMENT="" />
    <EXPORT ORDINAL="1670" NAME="?GetMaxMatrix@VMatrix4f@@QBEXAAVVMatrixMax4@@@Z" PURGE="4" COMMENT="" />
    <EXPORT ORDINAL="1671" NAME="?GetMaxSamplerIndex@VShaderConstantTable@@QBEHXZ" PURGE="0" COMMENT="" />
    <EXPORT ORDINAL="1672" NAME="?GetMaximumColorAtPosition@VLightGrid_cl@@QAEXABVVVertex3f@@AAV2@H@Z" PURGE="12" COMMENT="" />
    <EXPORT ORDINAL="1673" NAME="?GetMaximumColorAtPositionI@VLightGrid_cl@@QAEXABVVVertex3f@@AAV2@H@Z" PURGE="12" COMMENT="" />
    <EXPORT ORDINAL="1674" NAME="?GetMaximumNumberOfTouchPoints@IVMultiTouchInput@@UAEHXZ" PURGE="0" COMMENT="" />
    <EXPORT ORDINAL="1675" NAME="?GetMemoryConsumption@VBBoxOctree@@QBEHXZ" PURGE="0" COMMENT="" />
    <EXPORT ORDINAL="1676" NAME="?GetMemoryConsumption@VBBoxOctreeNode@@QBEHXZ" PURGE="0" COMMENT="" />
    <EXPORT ORDINAL="1677" NAME="?GetMesh@VCollisionData@@QBEPAVVSimpleCollisionMesh32@@H@Z" PURGE="4" COMMENT="" />
    <EXPORT ORDINAL="1678" NAME="?GetMesh@VCollisionNode@@QBEPAVVSimpleCollisionMesh32@@XZ" PURGE="0" COMMENT="" />
    <EXPORT ORDINAL="1679" NAME="?GetMeshCount@VCollisionData@@QBEHXZ" PURGE="0" COMMENT="" />
    <EXPORT ORDINAL="1680" NAME="?GetMeshIndex@VCollisionData@@QBEHPBVVSimpleCollisionMesh32@@@Z" PURGE="4" COMMENT="" />
    <EXPORT ORDINAL="1681" NAME="?GetMessageType@VMessage@@QAEHXZ" PURGE="0" COMMENT="" />
    <EXPORT ORDINAL="1682" NAME="?GetMipLevelOffset@VTextureObject@@UAEHH@Z" PURGE="4" COMMENT="" />
    <EXPORT ORDINAL="1683" NAME="?GetMipLevelSize@VTexture3DObject@@UAEHH@Z" PURGE="4" COMMENT="" />
    <EXPORT ORDINAL="1684" NAME="?GetMipLevelSize@VTextureObject@@UAEHH@Z" PURGE="4" COMMENT="" />
    <EXPORT ORDINAL="1685" NAME="?GetModel@IVInputDevice@@UAE?AW4VInputDeviceModel@@XZ" PURGE="0" COMMENT="" />
    <EXPORT ORDINAL="1686" NAME="?GetModel@VGamepadPC@@UAE?AW4VInputDeviceModel@@XZ" PURGE="0" COMMENT="" />
    <EXPORT ORDINAL="1687" NAME="?GetModel@VGamepadXI@@UAE?AW4VInputDeviceModel@@XZ" PURGE="0" COMMENT="" />
    <EXPORT ORDINAL="1688" NAME="?GetModel@VKeyboardPC@@UAE?AW4VInputDeviceModel@@XZ" PURGE="0" COMMENT="" />
    <EXPORT ORDINAL="1689" NAME="?GetModel@VMousePC@@UAE?AW4VInputDeviceModel@@XZ" PURGE="0" COMMENT="" />
    <EXPORT ORDINAL="1690" NAME="?GetModifyTime@VFileHelper@@SA_NPBDAAUVFileTime@@@Z" PURGE="0" COMMENT="" />
    <EXPORT ORDINAL="1691" NAME="?GetModule@VModuleInfoList@@QBEPBVVModuleInfo@@H@Z" PURGE="4" COMMENT="" />
    <EXPORT ORDINAL="1692" NAME="?GetModuleList@VTypeManager@@QAEPAVVModuleList@@PBVIVisPlugin_cl@@@Z" PURGE="4" COMMENT="" />
    <EXPORT ORDINAL="1693" NAME="?GetMouse@VInputDeviceManagerPC@@SAAAVVMousePC@@XZ" PURGE="0" COMMENT="" />
    <EXPORT ORDINAL="1694" NAME="?GetMultithreading@VStreamProcessor@@SA_NXZ" PURGE="0" COMMENT="" />
    <EXPORT ORDINAL="1695" NAME="?GetName@IVInputDevice@@UAEPBDXZ" PURGE="0" COMMENT="" />
    <EXPORT ORDINAL="1696" NAME="?GetName@VClipboard@@UAEPBDXZ" PURGE="0" COMMENT="" />
    <EXPORT ORDINAL="1697" NAME="?GetName@VCollisionNode@@QBEPBDXZ" PURGE="0" COMMENT="" />
    <EXPORT ORDINAL="1698" NAME="?GetName@VDiskFileStreamManager@@UAEPBDXZ" PURGE="0" COMMENT="" />
    <EXPORT ORDINAL="1699" NAME="?GetName@VGamepadPC@@UAEPBDXZ" PURGE="0" COMMENT="" />
    <EXPORT ORDINAL="1700" NAME="?GetName@VGamepadXI@@UAEPBDXZ" PURGE="0" COMMENT="" />
    <EXPORT ORDINAL="1701" NAME="?GetName@VKeyboardPC@@UAEPBDXZ" PURGE="0" COMMENT="" />
    <EXPORT ORDINAL="1702" NAME="?GetName@VModule@@QAEPBDXZ" PURGE="0" COMMENT="" />
    <EXPORT ORDINAL="1703" NAME="?GetName@VMousePC@@UAEPBDXZ" PURGE="0" COMMENT="" />
    <EXPORT ORDINAL="1704" NAME="?GetName@VZipFileStreamManager@@UAEPBDXZ" PURGE="0" COMMENT="" />
    <EXPORT ORDINAL="1705" NAME="?GetNameFromEnum@VShaderEnum@@QBEPBDI@Z" PURGE="4" COMMENT="" />
    <EXPORT ORDINAL="1706" NAME="?GetNameFromIndex@VShaderEnum@@QBEPBDH@Z" PURGE="4" COMMENT="" />
    <EXPORT ORDINAL="1707" NAME="?GetNearestPowerOf2@Image_cl@@SAJJ@Z" PURGE="0" COMMENT="" />
    <EXPORT ORDINAL="1708" NAME="?GetNestedContainer@VParamBlock@@QAEPAVVParamContainer@@PBD@Z" PURGE="4" COMMENT="" />
    <EXPORT ORDINAL="1709" NAME="?GetNestedParam@VParamBlock@@QAEPAVVParam@@PBD@Z" PURGE="4" COMMENT="" />
    <EXPORT ORDINAL="1710" NAME="?GetNewParamBlock@VParamDesc@@QAEPAVVParamBlock@@XZ" PURGE="0" COMMENT="" />
    <EXPORT ORDINAL="1711" NAME="?GetNewProfilingID@VProfilingNode@@SAHXZ" PURGE="0" COMMENT="" />
    <EXPORT ORDINAL="1712" NAME="?GetNextASyncMessageToSend@VConnection@@QAEPAVVMessage@@XZ" PURGE="0" COMMENT="" />
    <EXPORT ORDINAL="1713" NAME="?GetNextASyncReceivedMessage@VConnection@@QAEPAVVMessage@@XZ" PURGE="0" COMMENT="" />
    <EXPORT ORDINAL="1714" NAME="?GetNextPair@VMapCPtrToCPtr@@QBEXAAPAU_VPOSITION@@AAPBX1@Z" PURGE="12" COMMENT="" />
    <EXPORT ORDINAL="1715" NAME="?GetNextPair@VMapCPtrToInt@@QBEXAAPAU_VPOSITION@@AAPBXAAH@Z" PURGE="12" COMMENT="" />
    <EXPORT ORDINAL="1716" NAME="?GetNextPair@VMapCPtrToPtr@@QBEXAAPAU_VPOSITION@@AAPBXAAPAX@Z" PURGE="12" COMMENT="" />
    <EXPORT ORDINAL="1717" NAME="?GetNextPair@VMapIntToInt@@QBEXAAPAU_VPOSITION@@AAH1@Z" PURGE="12" COMMENT="" />
    <EXPORT ORDINAL="1718" NAME="?GetNextPair@VMapIntToPtr@@QBEXAAPAU_VPOSITION@@AAHAAPAX@Z" PURGE="12" COMMENT="" />
    <EXPORT ORDINAL="1719" NAME="?GetNextPair@VMapPtrToInt@@QBEXAAPAU_VPOSITION@@AAPAXAAH@Z" PURGE="12" COMMENT="" />
    <EXPORT ORDINAL="1720" NAME="?GetNextPair@VMapPtrToPtr@@QBEXAAPAU_VPOSITION@@AAPAX1@Z" PURGE="12" COMMENT="" />
    <EXPORT ORDINAL="1721" NAME="?GetNextPair@VMapPtrToUInt@@QBEXAAPAU_VPOSITION@@AAPAXAAI@Z" PURGE="12" COMMENT="" />
    <EXPORT ORDINAL="1722" NAME="?GetNextPair@VMapStrToPtr@@QBEXAAPAU_VPOSITION@@AAVVString@@AAPAX@Z" PURGE="12" COMMENT="" />
    <EXPORT ORDINAL="1723" NAME="?GetNextType@VTypeManager@@QAEPAUVType@@AAPAU_VPOSITION@@@Z" PURGE="4" COMMENT="" />
    <EXPORT ORDINAL="1724" NAME="?GetNode@VCollisionData@@QBEPAVVCollisionNode@@H@Z" PURGE="4" COMMENT="" />
    <EXPORT ORDINAL="1725" NAME="?GetNodeCount@VCollisionData@@QBEHXZ" PURGE="0" COMMENT="" />
    <EXPORT ORDINAL="1726" NAME="?GetNodeIndex@VCollisionData@@QBEHPBVVCollisionNode@@@Z" PURGE="4" COMMENT="" />
    <EXPORT ORDINAL="1727" NAME="?GetNormal@VPlane4d@@QBEXAAVVVertex3d@@@Z" PURGE="4" COMMENT="" />
    <EXPORT ORDINAL="1728" NAME="?GetNumChildren@VBBoxOctreeNode@@QBEHXZ" PURGE="0" COMMENT="" />
    <EXPORT ORDINAL="1729" NAME="?GetNumChildrenRecursive@VBBoxOctreeNode@@QBEHXZ" PURGE="0" COMMENT="" />
    <EXPORT ORDINAL="1730" NAME="?GetNumDataDirectories@VClipboard@@UAEHXZ" PURGE="0" COMMENT="" />
    <EXPORT ORDINAL="1731" NAME="?GetNumDataDirectories@VDiskFileStreamManager@@UAEHXZ" PURGE="0" COMMENT="" />
    <EXPORT ORDINAL="1732" NAME="?GetNumDataDirectories@VZipFileStreamManager@@UAEHXZ" PURGE="0" COMMENT="" />
    <EXPORT ORDINAL="1733" NAME="?GetNumEntries@VShaderEnum@@QBEHXZ" PURGE="0" COMMENT="" />
    <EXPORT ORDINAL="1734" NAME="?GetNumLevels@VBBoxOctree@@QBEHXZ" PURGE="0" COMMENT="" />
    <EXPORT ORDINAL="1735" NAME="?GetNumLevelsRecursive@VBBoxOctreeNode@@QBEHXZ" PURGE="0" COMMENT="" />
    <EXPORT ORDINAL="1736" NAME="?GetNumNodes@VBBoxOctree@@QBEHXZ" PURGE="0" COMMENT="" />
    <EXPORT ORDINAL="1737" NAME="?GetNumParam@VParamBlock@@QAEHXZ" PURGE="0" COMMENT="" />
    <EXPORT ORDINAL="1738" NAME="?GetNumVariables@VTypedObject@@QBEHXZ" PURGE="0" COMMENT="" />
    <EXPORT ORDINAL="1739" NAME="?GetNumberOfPriorities@VThreadManager@@QBEHXZ" PURGE="0" COMMENT="" />
    <EXPORT ORDINAL="1740" NAME="?GetNumberOfProcessors@VThreadManager@@SAHXZ" PURGE="0" COMMENT="" />
    <EXPORT ORDINAL="1741" NAME="?GetObjectVersion@VArchive@@QAEIXZ" PURGE="0" COMMENT="" />
    <EXPORT ORDINAL="1742" NAME="?GetOpacityMap@Image_cl@@QAE?AVImageMap_cl@@J@Z" PURGE="8" COMMENT="" />
    <EXPORT ORDINAL="1743" NAME="?GetOpperationType@VParamExpression@@AAE?AW4eOpperationType@1@XZ" PURGE="0" COMMENT="" />
    <EXPORT ORDINAL="1744" NAME="?GetOrderArrayIndex@VTestUnit@@QAEHPAVVTestClass@@@Z" PURGE="4" COMMENT="" />
    <EXPORT ORDINAL="1745" NAME="?GetOutputMode@VTestUnit@@QAEHXZ" PURGE="0" COMMENT="" />
    <EXPORT ORDINAL="1746" NAME="?GetOverallVertexCount@VLightmapSceneInfo@@QBEHXZ" PURGE="0" COMMENT="" />
    <EXPORT ORDINAL="1747" NAME="?GetOverviewOutputString@VResourceManager@@UBEXPAD@Z" PURGE="4" COMMENT="" />
    <EXPORT ORDINAL="1748" NAME="?GetOwner@VParamBlock@@QAEPAVVParamContainerBase@@XZ" PURGE="0" COMMENT="" />
    <EXPORT ORDINAL="1749" NAME="?GetOwnerEffectLib@VCompiledTechnique@@QBEPAVVShaderEffectLib@@XZ" PURGE="0" COMMENT="" />
    <EXPORT ORDINAL="1750" NAME="?GetOwnerEffectLib@VShaderProgramResource@@QBEPAVVShaderEffectLib@@XZ" PURGE="0" COMMENT="" />
    <EXPORT ORDINAL="1751" NAME="?GetPCObject@VParamArray@@QAEPAVVParamContainer@@H@Z" PURGE="4" COMMENT="" />
    <EXPORT ORDINAL="1752" NAME="?GetPCObject@VParamBlock@@QAEPAVVParamContainer@@H@Z" PURGE="4" COMMENT="" />
    <EXPORT ORDINAL="1753" NAME="?GetPSProfileFromName@VShaderProgramResource@@SA?AW4ShaderModel@1@PBD@Z" PURGE="0" COMMENT="" />
    <EXPORT ORDINAL="1754" NAME="?GetPSProfileName@VShaderProgramResource@@SAPBDW4ShaderModel@1@@Z" PURGE="0" COMMENT="" />
    <EXPORT ORDINAL="1755" NAME="?GetPSUserConstantRange@VShaderProgramResource@@SAXW4ShaderModel@1@AAH1@Z" PURGE="0" COMMENT="" />
    <EXPORT ORDINAL="1756" NAME="?GetPad@VInputDeviceManagerPC@@SAAAVIVJoypad@@H@Z" PURGE="0" COMMENT="" />
    <EXPORT ORDINAL="1757" NAME="?GetPairAt@VMapCPtrToCPtr@@IBEPAUVPair@1@PBXAAI@Z" PURGE="8" COMMENT="" />
    <EXPORT ORDINAL="1758" NAME="?GetPairAt@VMapCPtrToInt@@IBEPAUVPair@1@PBXAAI@Z" PURGE="8" COMMENT="" />
    <EXPORT ORDINAL="1759" NAME="?GetPairAt@VMapCPtrToPtr@@IBEPAUVPair@1@PBXAAI@Z" PURGE="8" COMMENT="" />
    <EXPORT ORDINAL="1760" NAME="?GetPairAt@VMapIntToInt@@IBEPAUVPair@1@HAAI@Z" PURGE="8" COMMENT="" />
    <EXPORT ORDINAL="1761" NAME="?GetPairAt@VMapIntToPtr@@IBEPAUVPair@1@HAAI@Z" PURGE="8" COMMENT="" />
    <EXPORT ORDINAL="1762" NAME="?GetPairAt@VMapPtrToInt@@IBEPAUVPair@1@PAXAAI@Z" PURGE="8" COMMENT="" />
    <EXPORT ORDINAL="1763" NAME="?GetPairAt@VMapPtrToPtr@@IBEPAUVPair@1@PAXAAI@Z" PURGE="8" COMMENT="" />
    <EXPORT ORDINAL="1764" NAME="?GetPairAt@VMapPtrToUInt@@IBEPAUVPair@1@PAXAAI@Z" PURGE="8" COMMENT="" />
    <EXPORT ORDINAL="1765" NAME="?GetPairAt@VMapStrToPtr@@IBEPAUVPair@1@PBDAAI@Z" PURGE="8" COMMENT="" />
    <EXPORT ORDINAL="1766" NAME="?GetPaletteSize@VTextureObject@@KAHW4VTextureFormat_e@VTextureLoader@@@Z" PURGE="0" COMMENT="" />
    <EXPORT ORDINAL="1767" NAME="?GetParam@VParamBlock@@QAEPAVVParam@@H@Z" PURGE="4" COMMENT="" />
    <EXPORT ORDINAL="1768" NAME="?GetParamBlock@VParamContainer@@QAEPAVVParamBlock@@XZ" PURGE="0" COMMENT="" />
    <EXPORT ORDINAL="1769" NAME="?GetParamBroadcaster@VModule@@QAEPAVVBroadcaster@@XZ" PURGE="0" COMMENT="" />
    <EXPORT ORDINAL="1770" NAME="?GetParamDesc@VParamContainer@@UAEPAVVParamDesc@@XZ" PURGE="0" COMMENT="" />
    <EXPORT ORDINAL="1771" NAME="?GetParamFlags@VParamBlock@@QAEHH@Z" PURGE="4" COMMENT="" />
    <EXPORT ORDINAL="1772" NAME="?GetParamNameString@VShaderParam@@SAPBDH@Z" PURGE="0" COMMENT="" />
    <EXPORT ORDINAL="1773" NAME="?GetParamPtr@VParamBlock@@QAEPAXPAVVParam@@@Z" PURGE="4" COMMENT="" />
    <EXPORT ORDINAL="1774" NAME="?GetParamPtr@VParamBlock@@QAEPAXPAVVParamContainerBase@@PAVVParam@@@Z" PURGE="8" COMMENT="" />
    <EXPORT ORDINAL="1775" NAME="?GetParamUpdateFlags@VParamContainer@@UAEHXZ" PURGE="0" COMMENT="" />
    <EXPORT ORDINAL="1776" NAME="?GetParamUpdateFlags@VParamContainerBase@@UAEHXZ" PURGE="0" COMMENT="" />
    <EXPORT ORDINAL="1777" NAME="?GetParameter@VTriangle@@QBE_NABVVVertex3f@@AAVVMappingVertex@@@Z" PURGE="8" COMMENT="" />
    <EXPORT ORDINAL="1778" NAME="?GetParameterString@VCompiledTechnique@@QBEPBDXZ" PURGE="0" COMMENT="" />
    <EXPORT ORDINAL="1779" NAME="?GetParent@VCollisionNode@@QBEPAV1@XZ" PURGE="0" COMMENT="" />
    <EXPORT ORDINAL="1780" NAME="?GetParent@VType@@QBEPAU1@XZ" PURGE="0" COMMENT="" />
    <EXPORT ORDINAL="1781" NAME="?GetParentDir@VPathHelper@@SAXPAD@Z" PURGE="0" COMMENT="" />
    <EXPORT ORDINAL="1782" NAME="?GetParentDir@VPathHelper@@SAXPBDPAD@Z" PURGE="0" COMMENT="" />
    <EXPORT ORDINAL="1783" NAME="?GetParity@VMatrix4d@@QAE_NXZ" PURGE="0" COMMENT="" />
    <EXPORT ORDINAL="1784" NAME="?GetParity@VMatrix4f@@QAE_NXZ" PURGE="0" COMMENT="" />
    <EXPORT ORDINAL="1785" NAME="?GetPeekMessageWndHandle@VWindowConfig@@QAEPAUHWND__@@XZ" PURGE="0" COMMENT="" />
    <EXPORT ORDINAL="1786" NAME="?GetPlatformBinaryFilename@VShaderEffectLib@@SAXPBDPADW4VTargetPlatform@@@Z" PURGE="0" COMMENT="" />
    <EXPORT ORDINAL="1787" NAME="?GetPlatformHandler@vPlatformManager@@SAPAVvPlatformStubBase@@W4VTargetPlatform@@@Z" PURGE="0" COMMENT="" />
    <EXPORT ORDINAL="1788" NAME="?GetPointRayDistance@@YANABVVVertex3d@@00PAV1@@Z" PURGE="0" COMMENT="" />
    <EXPORT ORDINAL="1789" NAME="?GetPointSegmentDistance@@YANABVVVertex3d@@00PAV1@@Z" PURGE="0" COMMENT="" />
    <EXPORT ORDINAL="1790" NAME="?GetPoints@VPlane4d@@QAEXAAVVVertex3d@@00@Z" PURGE="12" COMMENT="" />
    <EXPORT ORDINAL="1791" NAME="?GetPoints@VPlane4f@@QAEXAAVVVertex3f@@00@Z" PURGE="12" COMMENT="" />
    <EXPORT ORDINAL="1792" NAME="?GetPos@RGBAStream@@UAEJXZ" PURGE="0" COMMENT="" />
    <EXPORT ORDINAL="1793" NAME="?GetPos@VDiskFileInStream@@UAEJXZ" PURGE="0" COMMENT="" />
    <EXPORT ORDINAL="1794" NAME="?GetPos@VFileAccess@@SAJPAUVFileHandle@@@Z" PURGE="0" COMMENT="" />
    <EXPORT ORDINAL="1795" NAME="?GetPos@VMemBlockWrapperStream@@UAEJXZ" PURGE="0" COMMENT="" />
    <EXPORT ORDINAL="1796" NAME="?GetPos@VMemoryInStream@@UAEJXZ" PURGE="0" COMMENT="" />
    <EXPORT ORDINAL="1797" NAME="?GetPrimitiveByID@VLightmapSceneInfo@@QAEPAVVLightmapPrimitive@@W4OwnerType_e@2@_J@Z" PURGE="12" COMMENT="" />
    <EXPORT ORDINAL="1798" NAME="?GetProcAddresses@vPlatformStubDX11@@CAXXZ" PURGE="0" COMMENT="" />
    <EXPORT ORDINAL="1799" NAME="?GetProcAddresses@vPlatformStubDX9@@CAXXZ" PURGE="0" COMMENT="" />
    <EXPORT ORDINAL="1800" NAME="?GetProcAddresses@vPlatformStubGLES2@@CAXXZ" PURGE="0" COMMENT="" />
    <EXPORT ORDINAL="1801" NAME="?GetProcAddresses@vPlatformStubLinux@@CAXXZ" PURGE="0" COMMENT="" />
    <EXPORT ORDINAL="1802" NAME="?GetProcAddresses@vPlatformStubPS3@@CAXXZ" PURGE="0" COMMENT="" />
    <EXPORT ORDINAL="1803" NAME="?GetProcAddresses@vPlatformStubPSP2@@CAXXZ" PURGE="0" COMMENT="" />
    <EXPORT ORDINAL="1804" NAME="?GetProcAddresses@vPlatformStubWii@@CAXXZ" PURGE="0" COMMENT="" />
    <EXPORT ORDINAL="1805" NAME="?GetProcAddresses@vPlatformStubXbox360@@CAXXZ" PURGE="0" COMMENT="" />
    <EXPORT ORDINAL="1806" NAME="?GetProductName@IVJoypad@@UAEPBDXZ" PURGE="0" COMMENT="" />
    <EXPORT ORDINAL="1807" NAME="?GetProductName@VGamepadPC@@UAEPBDXZ" PURGE="0" COMMENT="" />
    <EXPORT ORDINAL="1808" NAME="?GetProductName@VGamepadXI@@UAEPBDXZ" PURGE="0" COMMENT="" />
    <EXPORT ORDINAL="1809" NAME="?GetProjectPath@VShaderIncludeManager@@QAEPBDXZ" PURGE="0" COMMENT="" />
    <EXPORT ORDINAL="1810" NAME="?GetProviderForExtension@VTextureManager@@QAEPAVIVTextureFormatProvider@@PBD@Z" PURGE="4" COMMENT="" />
    <EXPORT ORDINAL="1811" NAME="?GetQuaternion@VMatrix4d@@QBEXAAVVQuat@@@Z" PURGE="4" COMMENT="" />
    <EXPORT ORDINAL="1812" NAME="?GetQuaternion@VMatrix4f@@QBEXAAVVQuat@@@Z" PURGE="4" COMMENT="" />
    <EXPORT ORDINAL="1813" NAME="?GetQueue@VResourceSnapshotQueue@@QAEPAPAVVResourceSnapshot@@AAH@Z" PURGE="4" COMMENT="" />
    <EXPORT ORDINAL="1814" NAME="?GetRCS@VFileAccessManager@@SAPAVIVRevisionControlSystem@@XZ" PURGE="0" COMMENT="" />
    <EXPORT ORDINAL="1815" NAME="?GetRadius@VBBox@@QBENXZ" PURGE="0" COMMENT="" />
    <EXPORT ORDINAL="1816" NAME="?GetRawArgumentString@VArgList@@QBEHAAVVString@@@Z" PURGE="4" COMMENT="" />
    <EXPORT ORDINAL="1817" NAME="?GetRawControlValue@IVInputDevice@@UAEHI@Z" PURGE="4" COMMENT="" />
    <EXPORT ORDINAL="1818" NAME="?GetRawControlValue@VGamepadPC@@UAEHI@Z" PURGE="4" COMMENT="" />
    <EXPORT ORDINAL="1819" NAME="?GetRawControlValue@VGamepadXI@@UAEHI@Z" PURGE="4" COMMENT="" />
    <EXPORT ORDINAL="1820" NAME="?GetRawControlValue@VKeyboardPC@@UAEHI@Z" PURGE="4" COMMENT="" />
    <EXPORT ORDINAL="1821" NAME="?GetRawControlValue@VMousePC@@UAEHI@Z" PURGE="4" COMMENT="" />
    <EXPORT ORDINAL="1822" NAME="?GetRawMapData@Image_cl@@QBEPBXHHAAH00@Z" PURGE="20" COMMENT="" />
    <EXPORT ORDINAL="1823" NAME="?GetRawMapsFormat@Image_cl@@QBE?AW4RawExternalFormal_e@@XZ" PURGE="0" COMMENT="" />
    <EXPORT ORDINAL="1824" NAME="?GetRawMapsType@Image_cl@@QBE?AW4ImageRawMapType_e@@XZ" PURGE="0" COMMENT="" />
    <EXPORT ORDINAL="1825" NAME="?GetRawMapsUploadHint@Image_cl@@QBE?AW4ImageRawMapHint_e@@XZ" PURGE="0" COMMENT="" />
    <EXPORT ORDINAL="1826" NAME="?GetRawNumMipMaps@Image_cl@@QBEJXZ" PURGE="0" COMMENT="" />
    <EXPORT ORDINAL="1827" NAME="?GetRawScanCode@VKeyboardPC@@QAEHJ@Z" PURGE="4" COMMENT="" />
    <EXPORT ORDINAL="1828" NAME="?GetReadCacheSize@VDiskFileStreamCacheManager@@SAHXZ" PURGE="0" COMMENT="" />
    <EXPORT ORDINAL="1829" NAME="?GetRealTextureDimensions@VTextureObject@@QBEXAAH00@Z" PURGE="12" COMMENT="" />
    <EXPORT ORDINAL="1830" NAME="?GetRecursionDepthAtPoint@VLightGrid_cl@@QAEHABVVVertex3f@@@Z" PURGE="4" COMMENT="" />
    <EXPORT ORDINAL="1831" NAME="?GetRedoCount@VUndoRedoStack@@QBEHXZ" PURGE="0" COMMENT="" />
    <EXPORT ORDINAL="1832" NAME="?GetRegisterCountFromValueType@@YAHW4VValueType_e@@@Z" PURGE="0" COMMENT="" />
    <EXPORT ORDINAL="1833" NAME="?GetRegisterRange@VShaderConstantTable@@QBEXAAH0@Z" PURGE="8" COMMENT="" />
    <EXPORT ORDINAL="1834" NAME="?GetRelativePath@@YAPADPBD0@Z" PURGE="0" COMMENT="" />
    <EXPORT ORDINAL="1835" NAME="?GetRelevantCommandList@VCommandManager@@QAEXAAVVPList@@@Z" PURGE="4" COMMENT="" />
    <EXPORT ORDINAL="1836" NAME="?GetRelevantElements@VBBoxOctree@@QAEHAAVVBBoxf@@AAVVPList@@@Z" PURGE="8" COMMENT="" />
    <EXPORT ORDINAL="1837" NAME="?GetRelevantElements@VBBoxOctreeNode@@QAEXAAVVBBoxf@@AAVVPList@@@Z" PURGE="8" COMMENT="" />
    <EXPORT ORDINAL="1838" NAME="?GetRemainingChunkByteCount@VChunkFile@@QBEIH@Z" PURGE="4" COMMENT="" />
    <EXPORT ORDINAL="1839" NAME="?GetRemoteSystem@vPlatformStubDX11@@UBEPBDXZ" PURGE="0" COMMENT="" />
    <EXPORT ORDINAL="1840" NAME="?GetRemoteSystem@vPlatformStubDX9@@UBEPBDXZ" PURGE="0" COMMENT="" />
    <EXPORT ORDINAL="1841" NAME="?GetRemoteSystem@vPlatformStubGLES2@@UBEPBDXZ" PURGE="0" COMMENT="" />
    <EXPORT ORDINAL="1842" NAME="?GetRemoteSystem@vPlatformStubLinux@@UBEPBDXZ" PURGE="0" COMMENT="" />
    <EXPORT ORDINAL="1843" NAME="?GetRemoteSystem@vPlatformStubPS3@@UBEPBDXZ" PURGE="0" COMMENT="" />
    <EXPORT ORDINAL="1844" NAME="?GetRemoteSystem@vPlatformStubPSP2@@UBEPBDXZ" PURGE="0" COMMENT="" />
    <EXPORT ORDINAL="1845" NAME="?GetRemoteSystem@vPlatformStubWii@@UBEPBDXZ" PURGE="0" COMMENT="" />
    <EXPORT ORDINAL="1846" NAME="?GetRemoteSystem@vPlatformStubXbox360@@UBEPBDXZ" PURGE="0" COMMENT="" />
    <EXPORT ORDINAL="1847" NAME="?GetRenderableCubemap@VTextureManager@@UAEPAVVTextureObject@@PBD_N@Z" PURGE="8" COMMENT="" />
    <EXPORT ORDINAL="1848" NAME="?GetReplaceTextureRefs@VModelInfoXMLDocument@@QAE_NXZ" PURGE="0" COMMENT="" />
    <EXPORT ORDINAL="1849" NAME="?GetResourceByName@VResourceManager@@QBEPAVVManagedResource@@PBD@Z" PURGE="4" COMMENT="" />
    <EXPORT ORDINAL="1850" NAME="?GetResourceCount@VResourceManager@@QBEHXZ" PURGE="0" COMMENT="" />
    <EXPORT ORDINAL="1851" NAME="?GetResourceIndex@VResourceManager@@QBEHPAVVManagedResource@@@Z" PURGE="4" COMMENT="" />
    <EXPORT ORDINAL="1852" NAME="?GetRootNode@VBBoxOctree@@QAEPAVVBBoxOctreeNode@@XZ" PURGE="0" COMMENT="" />
    <EXPORT ORDINAL="1853" NAME="?GetRootNode@VCollisionData@@QBEPAVVCollisionNode@@XZ" PURGE="0" COMMENT="" />
    <EXPORT ORDINAL="1854" NAME="?GetRootNode@VModelInfoXMLDocument@@QAEPAVTiXmlElement@@_N@Z" PURGE="4" COMMENT="" />
    <EXPORT ORDINAL="1855" NAME="?GetSamplerIndexByName@VCompiledShaderPass@@QBEHPBD@Z" PURGE="4" COMMENT="" />
    <EXPORT ORDINAL="1856" NAME="?GetSamplerIndexByName@VShaderConstantTable@@QBEHPBD@Z" PURGE="4" COMMENT="" />
    <EXPORT ORDINAL="1857" NAME="?GetScale@VMatrix4d@@QBEXAAVVVertex3f@@@Z" PURGE="4" COMMENT="" />
    <EXPORT ORDINAL="1858" NAME="?GetScale@VMatrix4f@@QBEXAAVVVertex3f@@@Z" PURGE="4" COMMENT="" />
    <EXPORT ORDINAL="1859" NAME="?GetScaleRot@VMatrix4d@@QBEXAAVVVertex3f@@@Z" PURGE="4" COMMENT="" />
    <EXPORT ORDINAL="1860" NAME="?GetScaleRot@VMatrix4f@@QBEXAAVVVertex3f@@@Z" PURGE="4" COMMENT="" />
    <EXPORT ORDINAL="1861" NAME="?GetSecondaryScreenBackBuffer@VVideo@@SAPAUIDirect3DSurface9@@AAVVVideoConfig@@H@Z" PURGE="0" COMMENT="" />
    <EXPORT ORDINAL="1862" NAME="?GetSecondaryScreenSwapChain@VVideo@@SAPAUIDirect3DSwapChain9@@AAVVVideoConfig@@@Z" PURGE="0" COMMENT="" />
    <EXPORT ORDINAL="1863" NAME="?GetSegmentRayDistance@@YANABVVVertex3d@@000PAV1@1@Z" PURGE="0" COMMENT="" />
    <EXPORT ORDINAL="1864" NAME="?GetSize@RGBAStream@@UAEJXZ" PURGE="0" COMMENT="" />
    <EXPORT ORDINAL="1865" NAME="?GetSize@VDiskFileInStream@@UAEJXZ" PURGE="0" COMMENT="" />
    <EXPORT ORDINAL="1866" NAME="?GetSize@VFileAccess@@SAJPAUVFileHandle@@@Z" PURGE="0" COMMENT="" />
    <EXPORT ORDINAL="1867" NAME="?GetSize@VMemBlockWrapperStream@@UAEJXZ" PURGE="0" COMMENT="" />
    <EXPORT ORDINAL="1868" NAME="?GetSize@VMemoryInStream@@UAEJXZ" PURGE="0" COMMENT="" />
    <EXPORT ORDINAL="1869" NAME="?GetSizeX@VBBox@@QBENXZ" PURGE="0" COMMENT="" />
    <EXPORT ORDINAL="1870" NAME="?GetSizeY@VBBox@@QBENXZ" PURGE="0" COMMENT="" />
    <EXPORT ORDINAL="1871" NAME="?GetSizeZ@VBBox@@QBENXZ" PURGE="0" COMMENT="" />
    <EXPORT ORDINAL="1872" NAME="?GetSkinningVertexShaderSource@VShaderPassResource@@QBEPBDXZ" PURGE="0" COMMENT="" />
    <EXPORT ORDINAL="1873" NAME="?GetSocket@VConnection@@QAEHXZ" PURGE="0" COMMENT="" />
    <EXPORT ORDINAL="1874" NAME="?GetSourceEffect@VCompiledTechnique@@QBEPAVVShaderEffectResource@@XZ" PURGE="0" COMMENT="" />
    <EXPORT ORDINAL="1875" NAME="?GetSplitCount@IVLightGridTracer_cl@@UAEHABVVLightGridNodeIterator_cl@@ABVVBBoxf@@AAH22@Z" PURGE="20" COMMENT="" />
    <EXPORT ORDINAL="1876" NAME="?GetStackSizePerThread@VThreadManager@@QBEHXZ" PURGE="0" COMMENT="" />
    <EXPORT ORDINAL="1877" NAME="?GetStartPosition@VMapCPtrToCPtr@@QBEPAU_VPOSITION@@XZ" PURGE="0" COMMENT="" />
    <EXPORT ORDINAL="1878" NAME="?GetStartPosition@VMapCPtrToInt@@QBEPAU_VPOSITION@@XZ" PURGE="0" COMMENT="" />
    <EXPORT ORDINAL="1879" NAME="?GetStartPosition@VMapCPtrToPtr@@QBEPAU_VPOSITION@@XZ" PURGE="0" COMMENT="" />
    <EXPORT ORDINAL="1880" NAME="?GetStartPosition@VMapIntToInt@@QBEPAU_VPOSITION@@XZ" PURGE="0" COMMENT="" />
    <EXPORT ORDINAL="1881" NAME="?GetStartPosition@VMapIntToPtr@@QBEPAU_VPOSITION@@XZ" PURGE="0" COMMENT="" />
    <EXPORT ORDINAL="1882" NAME="?GetStartPosition@VMapPtrToInt@@QBEPAU_VPOSITION@@XZ" PURGE="0" COMMENT="" />
    <EXPORT ORDINAL="1883" NAME="?GetStartPosition@VMapPtrToPtr@@QBEPAU_VPOSITION@@XZ" PURGE="0" COMMENT="" />
    <EXPORT ORDINAL="1884" NAME="?GetStartPosition@VMapPtrToUInt@@QBEPAU_VPOSITION@@XZ" PURGE="0" COMMENT="" />
    <EXPORT ORDINAL="1885" NAME="?GetStartPosition@VMapStrToPtr@@QBEPAU_VPOSITION@@XZ" PURGE="0" COMMENT="" />
    <EXPORT ORDINAL="1886" NAME="?GetStartType@VTypeManager@@QAEPAU_VPOSITION@@XZ" PURGE="0" COMMENT="" />
    <EXPORT ORDINAL="1887" NAME="?GetState@VThreadedTask@@QBE?AW4VTaskState@@XZ" PURGE="0" COMMENT="" />
    <EXPORT ORDINAL="1888" NAME="?GetStoredHash@VHashString@@QAEHXZ" PURGE="0" COMMENT="" />
    <EXPORT ORDINAL="1889" NAME="?GetStreamMask@VisMBVertexDescriptor_t@@QBEIXZ" PURGE="0" COMMENT="" />
    <EXPORT ORDINAL="1890" NAME="?GetStreamingReplacementFilename@VResourceManager@@UAEPBDAAVVResourceSnapshotEntry@@PBDPAD@Z" PURGE="12" COMMENT="" />
    <EXPORT ORDINAL="1891" NAME="?GetString@VParamArray@@QAEXHAAVVString@@PBD@Z" PURGE="12" COMMENT="" />
    <EXPORT ORDINAL="1892" NAME="?GetString@VParamBlock@@QAEXHAAVVString@@PBD@Z" PURGE="12" COMMENT="" />
    <EXPORT ORDINAL="1893" NAME="?GetString@VParamBlock@@QAEXPBDAAVVString@@@Z" PURGE="8" COMMENT="" />
    <EXPORT ORDINAL="1894" NAME="?GetString@VStrRef@@QAEPBDXZ" PURGE="0" COMMENT="" />
    <EXPORT ORDINAL="1895" NAME="?GetStringAfter@@YAPBDPBDD@Z" PURGE="0" COMMENT="" />
    <EXPORT ORDINAL="1896" NAME="?GetStringBefore@@YAPADPBDD@Z" PURGE="0" COMMENT="" />
    <EXPORT ORDINAL="1897" NAME="?GetSubNode@VModelInfoXMLDocument@@SAPAVTiXmlElement@@PAV2@PBD_N@Z" PURGE="0" COMMENT="" />
    <EXPORT ORDINAL="1898" NAME="?GetSurface@VCollisionData@@QBEPAVVCollisionSurface@@H@Z" PURGE="4" COMMENT="" />
    <EXPORT ORDINAL="1899" NAME="?GetSurfaceCount@VCollisionData@@QBEHXZ" PURGE="0" COMMENT="" />
    <EXPORT ORDINAL="1900" NAME="?GetSurfaceIndex@VCollisionData@@QBEHPBVVCollisionSurface@@@Z" PURGE="4" COMMENT="" />
    <EXPORT ORDINAL="1901" NAME="?GetTagString@VTechniqueConfig@@SAPBDH@Z" PURGE="0" COMMENT="" />
    <EXPORT ORDINAL="1902" NAME="?GetTarget@VTargetThread@@QAEPAVVTarget@@XZ" PURGE="0" COMMENT="" />
    <EXPORT ORDINAL="1903" NAME="?GetTargetThread@VTargetThread@@SAPAV1@XZ" PURGE="0" COMMENT="" />
    <EXPORT ORDINAL="1904" NAME="?GetTask@VStreamProcessingWorkflow@@QAEPAVVStreamProcessingTask@@H@Z" PURGE="4" COMMENT="" />
    <EXPORT ORDINAL="1905" NAME="?GetTasksExecutedInMainThread@VThreadManager@@QAEIXZ" PURGE="0" COMMENT="" />
    <EXPORT ORDINAL="1906" NAME="?GetTasksExecutedInThread@VThreadManager@@QAEIH@Z" PURGE="4" COMMENT="" />
    <EXPORT ORDINAL="1907" NAME="?GetTest@VTestUnit@@QBEPAVVTestClass@@H@Z" PURGE="4" COMMENT="" />
    <EXPORT ORDINAL="1908" NAME="?GetTestArrayIndex@VTestUnit@@QAEHPAVVTestClass@@@Z" PURGE="4" COMMENT="" />
    <EXPORT ORDINAL="1909" NAME="?GetTestAt@VTestUnit@@QBEPAVVTestClass@@H@Z" PURGE="4" COMMENT="" />
    <EXPORT ORDINAL="1910" NAME="?GetTestCount@VTestUnit@@QBEHXZ" PURGE="0" COMMENT="" />
    <EXPORT ORDINAL="1911" NAME="?GetTestDirectory@VTestClass@@QBEPBD_N@Z" PURGE="4" COMMENT="" />
    <EXPORT ORDINAL="1912" NAME="?GetTestDirectory@VTestUnit@@QBEPBD_N@Z" PURGE="4" COMMENT="" />
    <EXPORT ORDINAL="1913" NAME="?GetTestIndexAt@VTestUnit@@QBEHH@Z" PURGE="4" COMMENT="" />
    <EXPORT ORDINAL="1914" NAME="?GetTestUnit@VTestClass@@QBEPAVVTestUnit@@XZ" PURGE="0" COMMENT="" />
    <EXPORT ORDINAL="1915" NAME="?GetText@TiXmlElement@@QBEPBDXZ" PURGE="0" COMMENT="" />
    <EXPORT ORDINAL="1916" NAME="?GetTextureDimensions@VTextureObject@@QBEXAAH00@Z" PURGE="12" COMMENT="" />
    <EXPORT ORDINAL="1917" NAME="?GetThreadCount@VThreadManager@@QBEHXZ" PURGE="0" COMMENT="" />
    <EXPORT ORDINAL="1918" NAME="?GetThreadHandle@VThreadManager@@QAEPAXH@Z" PURGE="4" COMMENT="" />
    <EXPORT ORDINAL="1919" NAME="?GetThreadMask@VThreadedTask@@QBEIXZ" PURGE="0" COMMENT="" />
    <EXPORT ORDINAL="1920" NAME="?GetThreadPriority@VThreadManager@@QAE?AW4VThreadPriority@@H@Z" PURGE="4" COMMENT="" />
    <EXPORT ORDINAL="1921" NAME="?GetThreadProcessor@VThreadManager@@QAEHH@Z" PURGE="4" COMMENT="" />
    <EXPORT ORDINAL="1922" NAME="?GetThreadTaskMask@VThreadManager@@QAEIH@Z" PURGE="4" COMMENT="" />
    <EXPORT ORDINAL="1923" NAME="?GetThreadTaskTypes@VThreadManager@@QAEHHAAV?$DynArray_cl@PAUVType@@@@AAV?$DynArray_cl@H@@@Z" PURGE="12" COMMENT="" />
    <EXPORT ORDINAL="1924" NAME="?GetThreadValidation@VFileAccess@@SA_NXZ" PURGE="0" COMMENT="" />
    <EXPORT ORDINAL="1925" NAME="?GetThreadWorkload@VThreadManager@@QAEMH@Z" PURGE="4" COMMENT="" />
    <EXPORT ORDINAL="1926" NAME="?GetTime@VFileTime@@QBE_JXZ" PURGE="0" COMMENT="" />
    <EXPORT ORDINAL="1927" NAME="?GetTimeFromVTime@VFileTime@@SA_JAB_J@Z" PURGE="0" COMMENT="" />
    <EXPORT ORDINAL="1928" NAME="?GetTimeStamp@VClipboard@@UAEHPBDAAUVFileTime@@@Z" PURGE="8" COMMENT="" />
    <EXPORT ORDINAL="1929" NAME="?GetTimeStamp@VDiskFileStreamManager@@UAEHPBDAAUVFileTime@@@Z" PURGE="8" COMMENT="" />
    <EXPORT ORDINAL="1930" NAME="?GetTimeStamp@VZipFileStreamManager@@UAEHPBDAAUVFileTime@@@Z" PURGE="8" COMMENT="" />
    <EXPORT ORDINAL="1931" NAME="?GetTokenCount@VStringTokenizerInPlace@@QAEIXZ" PURGE="0" COMMENT="" />
    <EXPORT ORDINAL="1932" NAME="?GetTraceIntersection@VSimpleCollisionMeshBase@@QBEHABVVVertex3f@@0HPAUVTraceHitInfo@@H@Z" PURGE="20" COMMENT="" />
    <EXPORT ORDINAL="1933" NAME="?GetTraceIntersection@VSimpleCollisionMeshBase@@QBE_NABVVVertex3f@@0HPAUVTraceHitInfo@@@Z" PURGE="16" COMMENT="" />
    <EXPORT ORDINAL="1934" NAME="?GetTraceIntersection@VTriangle@@QBE_NABVVVertex3f@@0_NAAM@Z" PURGE="16" COMMENT="" />
    <EXPORT ORDINAL="1935" NAME="?GetTranslation@VMatrix4d@@QBEXAAVVVertex3d@@@Z" PURGE="4" COMMENT="" />
    <EXPORT ORDINAL="1936" NAME="?GetTranslation@VMatrix4d@@QBEXAAVVVertex3f@@@Z" PURGE="4" COMMENT="" />
    <EXPORT ORDINAL="1937" NAME="?GetTranslation@VMatrix4f@@QBEXAAVVVertex3d@@@Z" PURGE="4" COMMENT="" />
    <EXPORT ORDINAL="1938" NAME="?GetTranslation@VMatrix4f@@QBEXAAVVVertex3f@@@Z" PURGE="4" COMMENT="" />
    <EXPORT ORDINAL="1939" NAME="?GetTrianglePlanes@VSimpleCollisionMesh@@QAEPAVVPlane4f@@XZ" PURGE="0" COMMENT="" />
    <EXPORT ORDINAL="1940" NAME="?GetTriggerState@VInputMap@@UAEMH@Z" PURGE="4" COMMENT="" />
    <EXPORT ORDINAL="1941" NAME="?GetType@VCollisionNode@@QBE?AW4eNodeDataType@@XZ" PURGE="0" COMMENT="" />
    <EXPORT ORDINAL="1942" NAME="?GetType@VParam@@SA?AW4VParamType@@PBD@Z" PURGE="0" COMMENT="" />
    <EXPORT ORDINAL="1943" NAME="?GetType@VTypeManager@@QAEPAUVType@@PBD@Z" PURGE="4" COMMENT="" />
    <EXPORT ORDINAL="1944" NAME="?GetTypeCount@VTypeManager@@QAEHXZ" PURGE="0" COMMENT="" />
    <EXPORT ORDINAL="1945" NAME="?GetTypeId@VAction@@UBEPAUVType@@XZ" PURGE="0" COMMENT="" />
    <EXPORT ORDINAL="1946" NAME="?GetTypeId@VCompiledShaderPass@@UBEPAUVType@@XZ" PURGE="0" COMMENT="" />
    <EXPORT ORDINAL="1947" NAME="?GetTypeId@VCompositeParam@@UBEPAUVType@@XZ" PURGE="0" COMMENT="" />
    <EXPORT ORDINAL="1948" NAME="?GetTypeId@VLoadingTask@@UBEPAUVType@@XZ" PURGE="0" COMMENT="" />
    <EXPORT ORDINAL="1949" NAME="?GetTypeId@VPList@@UBEPAUVType@@XZ" PURGE="0" COMMENT="" />
    <EXPORT ORDINAL="1950" NAME="?GetTypeId@VParamArray@@UBEPAUVType@@XZ" PURGE="0" COMMENT="" />
    <EXPORT ORDINAL="1951" NAME="?GetTypeId@VParamContainer@@UBEPAUVType@@XZ" PURGE="0" COMMENT="" />
    <EXPORT ORDINAL="1952" NAME="?GetTypeId@VParamDesc@@UBEPAUVType@@XZ" PURGE="0" COMMENT="" />
    <EXPORT ORDINAL="1953" NAME="?GetTypeId@VParamList@@UBEPAUVType@@XZ" PURGE="0" COMMENT="" />
    <EXPORT ORDINAL="1954" NAME="?GetTypeId@VRefTarget@@UBEPAUVType@@XZ" PURGE="0" COMMENT="" />
    <EXPORT ORDINAL="1955" NAME="?GetTypeId@VSenderReceiver@@UBEPAUVType@@XZ" PURGE="0" COMMENT="" />
    <EXPORT ORDINAL="1956" NAME="?GetTypeId@VTestClass@@UBEPAUVType@@XZ" PURGE="0" COMMENT="" />
    <EXPORT ORDINAL="1957" NAME="?GetTypeId@VTextureSerializationProxy@@UBEPAUVType@@XZ" PURGE="0" COMMENT="" />
    <EXPORT ORDINAL="1958" NAME="?GetTypeId@VThreadedTask@@UBEPAUVType@@XZ" PURGE="0" COMMENT="" />
    <EXPORT ORDINAL="1959" NAME="?GetTypeId@VTypedObject@@UBEPAUVType@@XZ" PURGE="0" COMMENT="" />
    <EXPORT ORDINAL="1960" NAME="?GetTypeList@VModule@@QBEPAUVType@@XZ" PURGE="0" COMMENT="" />
    <EXPORT ORDINAL="1961" NAME="?GetUndoCount@VUndoRedoStack@@QBEHXZ" PURGE="0" COMMENT="" />
    <EXPORT ORDINAL="1962" NAME="?GetUsedResourceCount@VResourceManager@@QBEHXZ" PURGE="0" COMMENT="" />
    <EXPORT ORDINAL="1963" NAME="?GetUserData@TiXmlBase@@QAEPAXXZ" PURGE="0" COMMENT="" />
    <EXPORT ORDINAL="1964" NAME="?GetUserData@TiXmlBase@@QBEPBXXZ" PURGE="0" COMMENT="" />
    <EXPORT ORDINAL="1965" NAME="?GetVMemoryManager@@YAPAVIVMemoryManager@@XZ" PURGE="0" COMMENT="" />
    <EXPORT ORDINAL="1966" NAME="?GetVSProfileFromName@VShaderProgramResource@@SA?AW4ShaderModel@1@PBD@Z" PURGE="0" COMMENT="" />
    <EXPORT ORDINAL="1967" NAME="?GetVSProfileName@VShaderProgramResource@@SAPBDW4ShaderModel@1@@Z" PURGE="0" COMMENT="" />
    <EXPORT ORDINAL="1968" NAME="?GetVSUserConstantRange@VShaderProgramResource@@SAXW4ShaderModel@1@AAH1_N@Z" PURGE="0" COMMENT="" />
    <EXPORT ORDINAL="1969" NAME="?GetVTimeFromTime@VFileTime@@SA_JAB_J@Z" PURGE="0" COMMENT="" />
    <EXPORT ORDINAL="1970" NAME="?GetValue@VMappedAxis@@UAEMM@Z" PURGE="4" COMMENT="" />
    <EXPORT ORDINAL="1971" NAME="?GetValue@VMappedInput@@UAEMM@Z" PURGE="4" COMMENT="" />
    <EXPORT ORDINAL="1972" NAME="?GetValue@VMappedValue@@UAEMM@Z" PURGE="4" COMMENT="" />
    <EXPORT ORDINAL="1973" NAME="?GetValue@VMappedValueSingleHit@@UAEMM@Z" PURGE="4" COMMENT="" />
    <EXPORT ORDINAL="1974" NAME="?GetValue@VMappedValueSingleHitPerFrame@@UAEMM@Z" PURGE="4" COMMENT="" />
    <EXPORT ORDINAL="1975" NAME="?GetValue@VisVariable_cl@@QAEXPAXPAD_N@Z" PURGE="12" COMMENT="" />
    <EXPORT ORDINAL="1976" NAME="?GetValueDirect@VisVariable_cl@@QAEXPAX0_N@Z" PURGE="12" COMMENT="" />
    <EXPORT ORDINAL="1977" NAME="?GetValueFromExpression@VParamBlock@@QAEHPAVVParam@@HPBD1AAVVString@@@Z" PURGE="20" COMMENT="" />
    <EXPORT ORDINAL="1978" NAME="?GetVariable@VTypedObject@@QAEPAVVisVariable_cl@@PBD@Z" PURGE="4" COMMENT="" />
    <EXPORT ORDINAL="1979" NAME="?GetVariableAttributes@VTypedObject@@UAEXPAVVisVariable_cl@@AAUVVariableAttributeInfo@@@Z" PURGE="8" COMMENT="" />
    <EXPORT ORDINAL="1980" NAME="?GetVariableList@VTypedObject@@QBEPAVVARIABLE_LIST@@XZ" PURGE="0" COMMENT="" />
    <EXPORT ORDINAL="1981" NAME="?GetVariableName@VTypedObject@@QBEPBDH@Z" PURGE="4" COMMENT="" />
    <EXPORT ORDINAL="1982" NAME="?GetVariableValue@VTypedObject@@QBE_NPBDPAD@Z" PURGE="8" COMMENT="" />
    <EXPORT ORDINAL="1983" NAME="?GetVersion@VModuleInfoList@@AAEXPAVModuleInstance@@PAD@Z" PURGE="8" COMMENT="" />
    <EXPORT ORDINAL="1984" NAME="?GetVideoCaps@VVideoCaps_t@@SA_NAAU1@@Z" PURGE="0" COMMENT="" />
    <EXPORT ORDINAL="1985" NAME="?GetWidth@ImageMap_cl@@QBEJXZ" PURGE="0" COMMENT="" />
    <EXPORT ORDINAL="1986" NAME="?GetWidth@Image_cl@@QBEJXZ" PURGE="0" COMMENT="" />
    <EXPORT ORDINAL="1987" NAME="?GlobalManager@VTextureManager@@SAAAV1@XZ" PURGE="0" COMMENT="" />
    <EXPORT ORDINAL="1988" NAME="?Grow@VParamBlock@@QAEXHH@Z" PURGE="8" COMMENT="" />
    <EXPORT ORDINAL="1989" NAME="?HandleError@VFileAccess@@SA_NW4FileErrorState@1@@Z" PURGE="0" COMMENT="" />
    <EXPORT ORDINAL="1990" NAME="?HasAlphaChannel@VTextureObject@@QBE_NXZ" PURGE="0" COMMENT="" />
    <EXPORT ORDINAL="1991" NAME="?HasColorMap@Image_cl@@QBEHXZ" PURGE="0" COMMENT="" />
    <EXPORT ORDINAL="1992" NAME="?HasDepthTextureFormat@VTextureObject@@SA_NAAW4VTextureFormat_e@VTextureLoader@@@Z" PURGE="0" COMMENT="" />
    <EXPORT ORDINAL="1993" NAME="?HasDeviceHandle@VTextureObject@@QAE_NXZ" PURGE="0" COMMENT="" />
    <EXPORT ORDINAL="1994" NAME="?HasExtension@VPathHelper@@SA_NPBD0@Z" PURGE="0" COMMENT="" />
    <EXPORT ORDINAL="1995" NAME="?HasHeightMap@Image_cl@@QBEHXZ" PURGE="0" COMMENT="" />
    <EXPORT ORDINAL="1996" NAME="?HasOpacityMap@Image_cl@@QBEHXZ" PURGE="0" COMMENT="" />
    <EXPORT ORDINAL="1997" NAME="?HasRawMap@Image_cl@@QBEHXZ" PURGE="0" COMMENT="" />
    <EXPORT ORDINAL="1998" NAME="?Hash@VStringUtil@@YAHPBD@Z" PURGE="0" COMMENT="" />
    <EXPORT ORDINAL="1999" NAME="?HashKey@VMapCPtrToCPtr@@QBEIPBX@Z" PURGE="4" COMMENT="" />
    <EXPORT ORDINAL="2000" NAME="?HashKey@VMapCPtrToInt@@QBEIPBX@Z" PURGE="4" COMMENT="" />
    <EXPORT ORDINAL="2001" NAME="?HashKey@VMapCPtrToPtr@@QBEIPBX@Z" PURGE="4" COMMENT="" />
    <EXPORT ORDINAL="2002" NAME="?HashKey@VMapIntToInt@@QBEIH@Z" PURGE="4" COMMENT="" />
    <EXPORT ORDINAL="2003" NAME="?HashKey@VMapIntToPtr@@QBEIH@Z" PURGE="4" COMMENT="" />
    <EXPORT ORDINAL="2004" NAME="?HashKey@VMapPtrToInt@@QBEIPAX@Z" PURGE="4" COMMENT="" />
    <EXPORT ORDINAL="2005" NAME="?HashKey@VMapPtrToPtr@@QBEIPAX@Z" PURGE="4" COMMENT="" />
    <EXPORT ORDINAL="2006" NAME="?HashKey@VMapPtrToUInt@@QBEIPAX@Z" PURGE="4" COMMENT="" />
    <EXPORT ORDINAL="2007" NAME="?HashKey@VMapStrToPtr@@QBEIPBD@Z" PURGE="4" COMMENT="" />
    <EXPORT ORDINAL="2008" NAME="?HeightMapAnimated@Image_cl@@QAEAAHXZ" PURGE="0" COMMENT="" />
    <EXPORT ORDINAL="2009" NAME="?Helper_FormatMemSize@VManagedResource@@SAXHPAD@Z" PURGE="0" COMMENT="" />
    <EXPORT ORDINAL="2010" NAME="?Helper_GetSplitString@VShaderEnum@@SAHPADPBD0PAPAD@Z" PURGE="0" COMMENT="" />
    <EXPORT ORDINAL="2011" NAME="?Helper_SplitVal@VShaderEnum@@SAHPADPAPAD_N2@Z" PURGE="0" COMMENT="" />
    <EXPORT ORDINAL="2012" NAME="?Identify@TiXmlNode@@IAEPAV1@PBDW4TiXmlEncoding@@@Z" PURGE="8" COMMENT="" />
    <EXPORT ORDINAL="2013" NAME="?Identity@VMatrix4d@@QAEXXZ" PURGE="0" COMMENT="" />
    <EXPORT ORDINAL="2014" NAME="?Identity@VMatrix4f@@QAEXXZ" PURGE="0" COMMENT="" />
    <EXPORT ORDINAL="2015" NAME="?IgnoreLeadingChar@@YAPBDPBDD@Z" PURGE="0" COMMENT="" />
    <EXPORT ORDINAL="2016" NAME="?IncrementNumbering@@YAXAAVVString@@H@Z" PURGE="0" COMMENT="" />
    <EXPORT ORDINAL="2017" NAME="?Indent@TiXmlPrinter@@QAEPBDXZ" PURGE="0" COMMENT="" />
    <EXPORT ORDINAL="2018" NAME="?Info@VLogNull@@UAEXPBD@Z" PURGE="4" COMMENT="" />
    <EXPORT ORDINAL="2019" NAME="?Info@VLogWindow@@UAEXPBD@Z" PURGE="4" COMMENT="" />
    <EXPORT ORDINAL="2020" NAME="?Init@VConstantBufferRegister@@QAE_NPAVVCompiledShaderPass@@PBD@Z" PURGE="8" COMMENT="" />
    <EXPORT ORDINAL="2021" NAME="?Init@VGamepadPC@@QAEXXZ" PURGE="0" COMMENT="" />
    <EXPORT ORDINAL="2022" NAME="?Init@VGamepadXI@@QAEXXZ" PURGE="0" COMMENT="" />
    <EXPORT ORDINAL="2023" NAME="?Init@VInputDeviceManagerPC@@SAXHH_N00@Z" PURGE="0" COMMENT="" />
    <EXPORT ORDINAL="2024" NAME="?Init@VKeyboardPC@@QAEXJ_N@Z" PURGE="8" COMMENT="" />
    <EXPORT ORDINAL="2025" NAME="?Init@VMousePC@@QAEXH_N0@Z" PURGE="12" COMMENT="" />
    <EXPORT ORDINAL="2026" NAME="?Init@VTargetThread@@SAXG@Z" PURGE="0" COMMENT="" />
    <EXPORT ORDINAL="2027" NAME="?InitArchive@VArchive@@AAEXPBDPAVVTypeManager@@H@Z" PURGE="12" COMMENT="" />
    <EXPORT ORDINAL="2028" NAME="?InitDefaultParams@VParamContainer@@QAEXXZ" PURGE="0" COMMENT="" />
    <EXPORT ORDINAL="2029" NAME="?InitDefaultValues@VTypedObject@@QAEXXZ" PURGE="0" COMMENT="" />
    <EXPORT ORDINAL="2030" NAME="?InitHashTable@VMapCPtrToCPtr@@QAEXIH@Z" PURGE="8" COMMENT="" />
    <EXPORT ORDINAL="2031" NAME="?InitHashTable@VMapCPtrToInt@@QAEXIH@Z" PURGE="8" COMMENT="" />
    <EXPORT ORDINAL="2032" NAME="?InitHashTable@VMapCPtrToPtr@@QAEXIH@Z" PURGE="8" COMMENT="" />
    <EXPORT ORDINAL="2033" NAME="?InitHashTable@VMapIntToInt@@QAEXIH@Z" PURGE="8" COMMENT="" />
    <EXPORT ORDINAL="2034" NAME="?InitHashTable@VMapIntToPtr@@QAEXIH@Z" PURGE="8" COMMENT="" />
    <EXPORT ORDINAL="2035" NAME="?InitHashTable@VMapPtrToInt@@QAEXIH@Z" PURGE="8" COMMENT="" />
    <EXPORT ORDINAL="2036" NAME="?InitHashTable@VMapPtrToPtr@@QAEXIH@Z" PURGE="8" COMMENT="" />
    <EXPORT ORDINAL="2037" NAME="?InitHashTable@VMapPtrToUInt@@QAEXIH@Z" PURGE="8" COMMENT="" />
    <EXPORT ORDINAL="2038" NAME="?InitHashTable@VMapStrToPtr@@QAEXIH@Z" PURGE="8" COMMENT="" />
    <EXPORT ORDINAL="2039" NAME="?InitProfiling@VProfilingNode@@SAXHHPAJ0@Z" PURGE="0" COMMENT="" />
    <EXPORT ORDINAL="2040" NAME="?InitWithDefaultColor@VLightGrid_cl@@QAEXABVVBBoxf@@UVColorRef@@@Z" PURGE="8" COMMENT="" />
    <EXPORT ORDINAL="2041" NAME="?Initialize@VStreamProcessor@@SAXH@Z" PURGE="0" COMMENT="" />
    <EXPORT ORDINAL="2042" NAME="?Initialize@VThreadManager@@QAEXHHHHI@Z" PURGE="20" COMMENT="" />
    <EXPORT ORDINAL="2043" NAME="?Initialize@VTypedObject@@UAEXXZ" PURGE="0" COMMENT="" />
    <EXPORT ORDINAL="2044" NAME="?InitializeD3D@VVideo@@SA_NXZ" PURGE="0" COMMENT="" />
    <EXPORT ORDINAL="2045" NAME="?InitializeScreen@VVideo@@SA_NAAVVVideoConfig@@@Z" PURGE="0" COMMENT="" />
    <EXPORT ORDINAL="2046" NAME="?InitializeSecondaryScreen@VVideo@@SA_NAAVVVideoConfig@@@Z" PURGE="0" COMMENT="" />
    <EXPORT ORDINAL="2047" NAME="?Insert@VActionList@@QAEXPAVVAction@@H@Z" PURGE="8" COMMENT="" />
    <EXPORT ORDINAL="2048" NAME="?Insert@VModuleList@@QAEXPAUVModule@@H@Z" PURGE="8" COMMENT="" />
    <EXPORT ORDINAL="2049" NAME="?Insert@VPList@@QAEXPAXH@Z" PURGE="8" COMMENT="" />
    <EXPORT ORDINAL="2050" NAME="?Insert@VParamContainerList@@QAEXPAVVParamContainer@@H@Z" PURGE="8" COMMENT="" />
    <EXPORT ORDINAL="2051" NAME="?Insert@VParamList@@QAEXPAVVParam@@H@Z" PURGE="8" COMMENT="" />
    <EXPORT ORDINAL="2052" NAME="?Insert@VResourceList@@QAEXPAVVManagedResource@@H@Z" PURGE="8" COMMENT="" />
    <EXPORT ORDINAL="2053" NAME="?Insert@VSenderReceiverList@@QAEXPAVVSenderReceiver@@H@Z" PURGE="8" COMMENT="" />
    <EXPORT ORDINAL="2054" NAME="?Insert@VStringList@@QAEXPAVVString@@H@Z" PURGE="8" COMMENT="" />
    <EXPORT ORDINAL="2055" NAME="?Insert@VSurfaceAssignmentList@@QAEXPAUSurfaceFXAssignment_t@@H@Z" PURGE="8" COMMENT="" />
    <EXPORT ORDINAL="2056" NAME="?InsertAfterChild@TiXmlNode@@QAEPAV1@PAV1@ABV1@@Z" PURGE="8" COMMENT="" />
    <EXPORT ORDINAL="2057" NAME="?InsertAt@VCallback@@AAEXPAVIVisCallbackHandler_cl@@H@Z" PURGE="8" COMMENT="" />
    <EXPORT ORDINAL="2058" NAME="?InsertAt@VString@@QAEXHH@Z" PURGE="8" COMMENT="" />
    <EXPORT ORDINAL="2059" NAME="?InsertAt@VUniString@@QAEXHH@Z" PURGE="8" COMMENT="" />
    <EXPORT ORDINAL="2060" NAME="?InsertBeforeChild@TiXmlNode@@QAEPAV1@PAV1@ABV1@@Z" PURGE="8" COMMENT="" />
    <EXPORT ORDINAL="2061" NAME="?InsertColorMap@Image_cl@@QAEJJJJW4ColorDepth_e@@PAE@Z" PURGE="20" COMMENT="" />
    <EXPORT ORDINAL="2062" NAME="?InsertColorMap@Image_cl@@QAEJJVImageMap_cl@@@Z" PURGE="20" COMMENT="" />
    <EXPORT ORDINAL="2063" NAME="?InsertEndChild@TiXmlNode@@QAEPAV1@ABV1@@Z" PURGE="4" COMMENT="" />
    <EXPORT ORDINAL="2064" NAME="?InsertHeightMap@Image_cl@@QAEJJJJW4ColorDepth_e@@PAE@Z" PURGE="20" COMMENT="" />
    <EXPORT ORDINAL="2065" NAME="?InsertHeightMap@Image_cl@@QAEJJVImageMap_cl@@@Z" PURGE="20" COMMENT="" />
    <EXPORT ORDINAL="2066" NAME="?InsertOpacityMap@Image_cl@@QAEJJJJW4ColorDepth_e@@PAE@Z" PURGE="20" COMMENT="" />
    <EXPORT ORDINAL="2067" NAME="?InsertOpacityMap@Image_cl@@QAEJJVImageMap_cl@@@Z" PURGE="20" COMMENT="" />
    <EXPORT ORDINAL="2068" NAME="?InsertPointer@VPointerArrayHelpers@@SAXPAPAXAAHPAXH@Z" PURGE="0" COMMENT="" />
    <EXPORT ORDINAL="2069" NAME="?IntValue@TiXmlAttribute@@QBEHXZ" PURGE="0" COMMENT="" />
    <EXPORT ORDINAL="2070" NAME="?InternalLog@VActionManager@@QAEXPBD@Z" PURGE="4" COMMENT="" />
    <EXPORT ORDINAL="2071" NAME="?InternalLogClear@VActionManager@@QAEXXZ" PURGE="0" COMMENT="" />
    <EXPORT ORDINAL="2072" NAME="?InternalLogSetFile@VActionManager@@QAEXPBD@Z" PURGE="4" COMMENT="" />
    <EXPORT ORDINAL="2073" NAME="?Intersect@VBBox@@QBEHABVVVertex3d@@0NPANPAV2@@Z" PURGE="24" COMMENT="" />
    <EXPORT ORDINAL="2074" NAME="?Intersect@VBBoxf@@QBEHABVVVertex3f@@0MPAMPAV2@@Z" PURGE="20" COMMENT="" />
    <EXPORT ORDINAL="2075" NAME="?Intersect@VPlane4d@@QAEHABVVVertex3d@@0PANPAV2@@Z" PURGE="16" COMMENT="" />
    <EXPORT ORDINAL="2076" NAME="?Intersect@VPlane4d@@QAE_NAAV1@0AAVVVertex3d@@@Z" PURGE="12" COMMENT="" />
    <EXPORT ORDINAL="2077" NAME="?Intersect@VPlane4f@@QAEHABVVVertex3f@@0PAMPAV2@@Z" PURGE="16" COMMENT="" />
    <EXPORT ORDINAL="2078" NAME="?Intersect@VPlane4f@@QBE_NAAV1@0AAVVVertex3f@@@Z" PURGE="12" COMMENT="" />
    <EXPORT ORDINAL="2079" NAME="?Intersect@VPolygon@@UAEHAAVVVertex3d@@0PANPAV2@1@Z" PURGE="20" COMMENT="" />
    <EXPORT ORDINAL="2080" NAME="?IntersectRayPolygon@@YAHPBVVVertex3d@@HABV1@1PAV1@@Z" PURGE="0" COMMENT="" />
    <EXPORT ORDINAL="2081" NAME="?IntersectSegmentPolygon@@YAHPBVVVertex3d@@HABV1@1PAV1@@Z" PURGE="0" COMMENT="" />
    <EXPORT ORDINAL="2082" NAME="?IntsToString@XMLHelper@@YAPBDPBHHPAD@Z" PURGE="0" COMMENT="" />
    <EXPORT ORDINAL="2083" NAME="?InvalidateStates@@YAXPAXI@Z" PURGE="0" COMMENT="" />
    <EXPORT ORDINAL="2084" NAME="?Invert@VMatrix4d@@QAEHXZ" PURGE="0" COMMENT="" />
    <EXPORT ORDINAL="2085" NAME="?Invert@VMatrix4f@@QAEHXZ" PURGE="0" COMMENT="" />
    <EXPORT ORDINAL="2086" NAME="?InvertChannel@Image_cl@@QAE_NH@Z" PURGE="4" COMMENT="" />
    <EXPORT ORDINAL="2087" NAME="?IsAbsolutePath@VPathHelper@@SA_NPBD@Z" PURGE="0" COMMENT="" />
    <EXPORT ORDINAL="2088" NAME="?IsActive@IVInputDevice@@UAE_NXZ" PURGE="0" COMMENT="" />
    <EXPORT ORDINAL="2089" NAME="?IsActive@VFileAccessManager@@SA_NXZ" PURGE="0" COMMENT="" />
    <EXPORT ORDINAL="2090" NAME="?IsActive@VGamepadPC@@UAE_NXZ" PURGE="0" COMMENT="" />
    <EXPORT ORDINAL="2091" NAME="?IsActive@VGamepadXI@@UAE_NXZ" PURGE="0" COMMENT="" />
    <EXPORT ORDINAL="2092" NAME="?IsActive@VKeyboardPC@@UAE_NXZ" PURGE="0" COMMENT="" />
    <EXPORT ORDINAL="2093" NAME="?IsActive@VMousePC@@UAE_NXZ" PURGE="0" COMMENT="" />
    <EXPORT ORDINAL="2094" NAME="?IsAlpha@TiXmlBase@@KAHEW4TiXmlEncoding@@@Z" PURGE="0" COMMENT="" />
    <EXPORT ORDINAL="2095" NAME="?IsAlphaNum@TiXmlBase@@KAHEW4TiXmlEncoding@@@Z" PURGE="0" COMMENT="" />
    <EXPORT ORDINAL="2096" NAME="?IsBad@VType@@QBEHXZ" PURGE="0" COMMENT="" />
    <EXPORT ORDINAL="2097" NAME="?IsBool@VArgList@@QBEHH@Z" PURGE="4" COMMENT="" />
    <EXPORT ORDINAL="2098" NAME="?IsCharInnerQuote@VArgList@@CAHPBD@Z" PURGE="0" COMMENT="" />
    <EXPORT ORDINAL="2099" NAME="?IsCharQuote@VArgList@@CAHPBD@Z" PURGE="0" COMMENT="" />
    <EXPORT ORDINAL="2100" NAME="?IsComment@VActionManager@@SAHPBD@Z" PURGE="0" COMMENT="" />
    <EXPORT ORDINAL="2101" NAME="?IsConnected@vPlatformStubDX11@@UAEHXZ" PURGE="0" COMMENT="" />
    <EXPORT ORDINAL="2102" NAME="?IsConnected@vPlatformStubDX9@@UAEHXZ" PURGE="0" COMMENT="" />
    <EXPORT ORDINAL="2103" NAME="?IsConnected@vPlatformStubGLES2@@UAEHXZ" PURGE="0" COMMENT="" />
    <EXPORT ORDINAL="2104" NAME="?IsConnected@vPlatformStubLinux@@UAEHXZ" PURGE="0" COMMENT="" />
    <EXPORT ORDINAL="2105" NAME="?IsConnected@vPlatformStubPS3@@UAEHXZ" PURGE="0" COMMENT="" />
    <EXPORT ORDINAL="2106" NAME="?IsConnected@vPlatformStubPSP2@@UAEHXZ" PURGE="0" COMMENT="" />
    <EXPORT ORDINAL="2107" NAME="?IsConnected@vPlatformStubWii@@UAEHXZ" PURGE="0" COMMENT="" />
    <EXPORT ORDINAL="2108" NAME="?IsConnected@vPlatformStubXbox360@@UAEHXZ" PURGE="0" COMMENT="" />
    <EXPORT ORDINAL="2109" NAME="?IsDataOwnByVar@VisVariable_cl@@QAE_NXZ" PURGE="0" COMMENT="" />
    <EXPORT ORDINAL="2110" NAME="?IsDepthStencilFormat@VTextureObject@@SA_NW4VTextureFormat_e@VTextureLoader@@@Z" PURGE="0" COMMENT="" />
    <EXPORT ORDINAL="2111" NAME="?IsDerivedFrom@VType@@QBEHPBU1@@Z" PURGE="4" COMMENT="" />
    <EXPORT ORDINAL="2112" NAME="?IsDouble@VArgList@@QBEHH@Z" PURGE="4" COMMENT="" />
    <EXPORT ORDINAL="2113" NAME="?IsEOF@VArchive@@QAEHXZ" PURGE="0" COMMENT="" />
    <EXPORT ORDINAL="2114" NAME="?IsEOF@VFileAccess@@SA_NPAUVFileHandle@@@Z" PURGE="0" COMMENT="" />
    <EXPORT ORDINAL="2115" NAME="?IsEmpty@VBBox@@QBEHXZ" PURGE="0" COMMENT="" />
    <EXPORT ORDINAL="2116" NAME="?IsEmpty@VMapCPtrToCPtr@@QBEHXZ" PURGE="0" COMMENT="" />
    <EXPORT ORDINAL="2117" NAME="?IsEmpty@VMapCPtrToInt@@QBEHXZ" PURGE="0" COMMENT="" />
    <EXPORT ORDINAL="2118" NAME="?IsEmpty@VMapCPtrToPtr@@QBEHXZ" PURGE="0" COMMENT="" />
    <EXPORT ORDINAL="2119" NAME="?IsEmpty@VMapIntToInt@@QBEHXZ" PURGE="0" COMMENT="" />
    <EXPORT ORDINAL="2120" NAME="?IsEmpty@VMapIntToPtr@@QBEHXZ" PURGE="0" COMMENT="" />
    <EXPORT ORDINAL="2121" NAME="?IsEmpty@VMapPtrToInt@@QBEHXZ" PURGE="0" COMMENT="" />
    <EXPORT ORDINAL="2122" NAME="?IsEmpty@VMapPtrToPtr@@QBEHXZ" PURGE="0" COMMENT="" />
    <EXPORT ORDINAL="2123" NAME="?IsEmpty@VMapPtrToUInt@@QBEHXZ" PURGE="0" COMMENT="" />
    <EXPORT ORDINAL="2124" NAME="?IsEmpty@VMapStrToPtr@@QBEHXZ" PURGE="0" COMMENT="" />
    <EXPORT ORDINAL="2125" NAME="?IsEqual@VCompiledShaderPass@@UBE_NABV1@@Z" PURGE="4" COMMENT="" />
    <EXPORT ORDINAL="2126" NAME="?IsEqual@VMappingVertex@@QAEHABV1@M@Z" PURGE="8" COMMENT="" />
    <EXPORT ORDINAL="2127" NAME="?IsEqual@VMatrix4d@@QBEHABV1@N@Z" PURGE="12" COMMENT="" />
    <EXPORT ORDINAL="2128" NAME="?IsEqual@VMatrix4f@@QBEHABV1@M@Z" PURGE="8" COMMENT="" />
    <EXPORT ORDINAL="2129" NAME="?IsEqual@VVertex3d@@QBE_NABV1@N@Z" PURGE="12" COMMENT="" />
    <EXPORT ORDINAL="2130" NAME="?IsFinished@VStreamProcessingWorkflow@@QAE_NXZ" PURGE="0" COMMENT="" />
    <EXPORT ORDINAL="2131" NAME="?IsFlag@VArgList@@QBEHH@Z" PURGE="4" COMMENT="" />
    <EXPORT ORDINAL="2132" NAME="?IsFloat@VArgList@@QBEHH@Z" PURGE="4" COMMENT="" />
    <EXPORT ORDINAL="2133" NAME="?IsFor@VConnection@@QAE_NPBD@Z" PURGE="4" COMMENT="" />
    <EXPORT ORDINAL="2134" NAME="?IsFormatCompressed@VTextureObject@@SA_NW4VTextureFormat_e@VTextureLoader@@@Z" PURGE="0" COMMENT="" />
    <EXPORT ORDINAL="2135" NAME="?IsInHalfSpace@VPlane4d@@QBEHABVVVertex3d@@@Z" PURGE="4" COMMENT="" />
    <EXPORT ORDINAL="2136" NAME="?IsInRawLoadState@Image_cl@@QBEHXZ" PURGE="0" COMMENT="" />
    <EXPORT ORDINAL="2137" NAME="?IsInitialized@IVInputDevice@@UAE_NXZ" PURGE="0" COMMENT="" />
    <EXPORT ORDINAL="2138" NAME="?IsInitialized@VGamepadPC@@UAE_NXZ" PURGE="0" COMMENT="" />
    <EXPORT ORDINAL="2139" NAME="?IsInitialized@VGamepadXI@@UAE_NXZ" PURGE="0" COMMENT="" />
    <EXPORT ORDINAL="2140" NAME="?IsInitialized@VInputDeviceManagerPC@@SA_NXZ" PURGE="0" COMMENT="" />
    <EXPORT ORDINAL="2141" NAME="?IsInitialized@VStreamProcessor@@SA_NXZ" PURGE="0" COMMENT="" />
    <EXPORT ORDINAL="2142" NAME="?IsInitialized@VThreadManager@@QBE_NXZ" PURGE="0" COMMENT="" />
    <EXPORT ORDINAL="2143" NAME="?IsInitialized@vPlatformStubDX11@@UAEHXZ" PURGE="0" COMMENT="" />
    <EXPORT ORDINAL="2144" NAME="?IsInitialized@vPlatformStubDX9@@UAEHXZ" PURGE="0" COMMENT="" />
    <EXPORT ORDINAL="2145" NAME="?IsInitialized@vPlatformStubGLES2@@UAEHXZ" PURGE="0" COMMENT="" />
    <EXPORT ORDINAL="2146" NAME="?IsInitialized@vPlatformStubLinux@@UAEHXZ" PURGE="0" COMMENT="" />
    <EXPORT ORDINAL="2147" NAME="?IsInitialized@vPlatformStubPS3@@UAEHXZ" PURGE="0" COMMENT="" />
    <EXPORT ORDINAL="2148" NAME="?IsInitialized@vPlatformStubPSP2@@UAEHXZ" PURGE="0" COMMENT="" />
    <EXPORT ORDINAL="2149" NAME="?IsInitialized@vPlatformStubWii@@UAEHXZ" PURGE="0" COMMENT="" />
    <EXPORT ORDINAL="2150" NAME="?IsInitialized@vPlatformStubXbox360@@UAEHXZ" PURGE="0" COMMENT="" />
    <EXPORT ORDINAL="2151" NAME="?IsInt@VArgList@@QBEHH@Z" PURGE="4" COMMENT="" />
    <EXPORT ORDINAL="2152" NAME="?IsLoggable@VAction@@UBEHXZ" PURGE="0" COMMENT="" />
    <EXPORT ORDINAL="2153" NAME="?IsMatrix4d@VArgList@@QBEHH@Z" PURGE="4" COMMENT="" />
    <EXPORT ORDINAL="2154" NAME="?IsMouseCursorHidden@VInputDeviceManagerPC@@SA_NXZ" PURGE="0" COMMENT="" />
    <EXPORT ORDINAL="2155" NAME="?IsOfType@VTypedObject@@QBEHPBUVType@@@Z" PURGE="4" COMMENT="" />
    <EXPORT ORDINAL="2156" NAME="?IsOnPlane@VVertex3d@@QAE_NAAVVPlane4d@@@Z" PURGE="4" COMMENT="" />
    <EXPORT ORDINAL="2157" NAME="?IsOnPlane@VVertex3d@@QAE_NAAVVPlane4f@@@Z" PURGE="4" COMMENT="" />
    <EXPORT ORDINAL="2158" NAME="?IsOutsideHalfSpace@VPlane4d@@QBEHABVVVertex3d@@@Z" PURGE="4" COMMENT="" />
    <EXPORT ORDINAL="2159" NAME="?IsPowerOf2@Image_cl@@SAHJ@Z" PURGE="0" COMMENT="" />
    <EXPORT ORDINAL="2160" NAME="?IsPowerOfTwo@VTextureObject@@SA_NH@Z" PURGE="0" COMMENT="" />
    <EXPORT ORDINAL="2161" NAME="?IsRelevantForSnapshot@VManagedResource@@UBEHAAVVResourceSnapshot@@@Z" PURGE="4" COMMENT="" />
    <EXPORT ORDINAL="2162" NAME="?IsRenderTargetFormatSupported@VVideo@@SA_NW4VTextureFormat_e@VTextureLoader@@ABVVVideoConfig@@@Z" PURGE="0" COMMENT="" />
    <EXPORT ORDINAL="2163" NAME="?IsRenderable@VTextureObject@@UBE_NXZ" PURGE="0" COMMENT="" />
    <EXPORT ORDINAL="2164" NAME="?IsSorted@VPList@@QAE_NXZ" PURGE="0" COMMENT="" />
    <EXPORT ORDINAL="2165" NAME="?IsString@VArgList@@QBEHH@Z" PURGE="4" COMMENT="" />
    <EXPORT ORDINAL="2166" NAME="?IsStringOwner@VStrRef@@QAE_NXZ" PURGE="0" COMMENT="" />
    <EXPORT ORDINAL="2167" NAME="?IsUndoable@VAction@@UBEHXZ" PURGE="0" COMMENT="" />
    <EXPORT ORDINAL="2168" NAME="?IsUnicode@VWindowConfig@@QBEHXZ" PURGE="0" COMMENT="" />
    <EXPORT ORDINAL="2169" NAME="?IsUsedCasterID@VLightmapSceneInfo@@QBE_N_J@Z" PURGE="8" COMMENT="" />
    <EXPORT ORDINAL="2170" NAME="?IsUsedReceiverID@VLightmapSceneInfo@@QBE_N_J@Z" PURGE="8" COMMENT="" />
    <EXPORT ORDINAL="2171" NAME="?IsValid@VBBox@@QBEHXZ" PURGE="0" COMMENT="" />
    <EXPORT ORDINAL="2172" NAME="?IsValid@VConnection@@QAE_NXZ" PURGE="0" COMMENT="" />
    <EXPORT ORDINAL="2173" NAME="?IsValid@VGUID@@QAEHXZ" PURGE="0" COMMENT="" />
    <EXPORT ORDINAL="2174" NAME="?IsValid@VMappingVertex@@QAEHXZ" PURGE="0" COMMENT="" />
    <EXPORT ORDINAL="2175" NAME="?IsValid@VMessage@@QAE_NXZ" PURGE="0" COMMENT="" />
    <EXPORT ORDINAL="2176" NAME="?IsValid@VParam@@QAEHXZ" PURGE="0" COMMENT="" />
    <EXPORT ORDINAL="2177" NAME="?IsValid@VParamDesc@@QAEHPAVVParam@@@Z" PURGE="4" COMMENT="" />
    <EXPORT ORDINAL="2178" NAME="?IsValid@VParamExpression@@AAEHXZ" PURGE="0" COMMENT="" />
    <EXPORT ORDINAL="2179" NAME="?IsValidDescriptor@VisMBVertexDescriptor_t@@QBEHXZ" PURGE="0" COMMENT="" />
    <EXPORT ORDINAL="2180" NAME="?IsValidParamName@VParam@@SA_NPBD@Z" PURGE="0" COMMENT="" />
    <EXPORT ORDINAL="2181" NAME="?IsValidType@VParam@@SAHW4VParamType@@@Z" PURGE="0" COMMENT="" />
    <EXPORT ORDINAL="2182" NAME="?IsValidVariableName@@YAHPBD@Z" PURGE="0" COMMENT="" />
    <EXPORT ORDINAL="2183" NAME="?IsVertex3d@VArgList@@QBEHH@Z" PURGE="4" COMMENT="" />
    <EXPORT ORDINAL="2184" NAME="?IsVertex3f@VArgList@@QBEHH@Z" PURGE="4" COMMENT="" />
    <EXPORT ORDINAL="2185" NAME="?IsWhiteSpace@TiXmlBase@@KA_ND@Z" PURGE="0" COMMENT="" />
    <EXPORT ORDINAL="2186" NAME="?IsWhiteSpace@TiXmlBase@@KA_NH@Z" PURGE="0" COMMENT="" />
    <EXPORT ORDINAL="2187" NAME="?IsWhiteSpaceCondensed@TiXmlBase@@SA_NXZ" PURGE="0" COMMENT="" />
    <EXPORT ORDINAL="2188" NAME="?IsZero@VVertex3d@@QBEHXZ" PURGE="0" COMMENT="" />
    <EXPORT ORDINAL="2189" NAME="?Iterate@VLightGrid_cl@@QAEXPAVIVLightGridTracer_cl@@@Z" PURGE="4" COMMENT="" />
    <EXPORT ORDINAL="2190" NAME="?IterateChildren@TiXmlNode@@QAEPAV1@PBDPBV1@@Z" PURGE="8" COMMENT="" />
    <EXPORT ORDINAL="2191" NAME="?IterateChildren@TiXmlNode@@QAEPAV1@PBV1@@Z" PURGE="4" COMMENT="" />
    <EXPORT ORDINAL="2192" NAME="?IterateChildren@TiXmlNode@@QBEPBV1@PBDPBV1@@Z" PURGE="8" COMMENT="" />
    <EXPORT ORDINAL="2193" NAME="?IterateChildren@TiXmlNode@@QBEPBV1@PBV1@@Z" PURGE="4" COMMENT="" />
    <EXPORT ORDINAL="2194" NAME="?KickWorkflow@VStreamProcessor@@SA_NPAVVStreamProcessingWorkflow@@@Z" PURGE="0" COMMENT="" />
    <EXPORT ORDINAL="2195" NAME="?Last@TiXmlAttributeSet@@QAEPAVTiXmlAttribute@@XZ" PURGE="0" COMMENT="" />
    <EXPORT ORDINAL="2196" NAME="?Last@TiXmlAttributeSet@@QBEPBVTiXmlAttribute@@XZ" PURGE="0" COMMENT="" />
    <EXPORT ORDINAL="2197" NAME="?LastAttribute@TiXmlElement@@QAEPAVTiXmlAttribute@@XZ" PURGE="0" COMMENT="" />
    <EXPORT ORDINAL="2198" NAME="?LastAttribute@TiXmlElement@@QBEPBVTiXmlAttribute@@XZ" PURGE="0" COMMENT="" />
    <EXPORT ORDINAL="2199" NAME="?LastChild@TiXmlNode@@QAEPAV1@PBD@Z" PURGE="4" COMMENT="" />
    <EXPORT ORDINAL="2200" NAME="?LastChild@TiXmlNode@@QAEPAV1@XZ" PURGE="0" COMMENT="" />
    <EXPORT ORDINAL="2201" NAME="?LastChild@TiXmlNode@@QBEPBV1@PBD@Z" PURGE="4" COMMENT="" />
    <EXPORT ORDINAL="2202" NAME="?LastChild@TiXmlNode@@QBEPBV1@XZ" PURGE="0" COMMENT="" />
    <EXPORT ORDINAL="2203" NAME="?Left@VString@@QAEXPBDH@Z" PURGE="8" COMMENT="" />
    <EXPORT ORDINAL="2204" NAME="?Left@VUniString@@QAEXPB_WH@Z" PURGE="8" COMMENT="" />
    <EXPORT ORDINAL="2205" NAME="?Length@VVertex3d@@QBENXZ" PURGE="0" COMMENT="" />
    <EXPORT ORDINAL="2206" NAME="?LengthSqr@VVertex3d@@QBENXZ" PURGE="0" COMMENT="" />
    <EXPORT ORDINAL="2207" NAME="?LineBreak@TiXmlPrinter@@QAEPBDXZ" PURGE="0" COMMENT="" />
    <EXPORT ORDINAL="2208" NAME="?LinkEndChild@TiXmlNode@@QAEPAV1@PAV1@@Z" PURGE="4" COMMENT="" />
    <EXPORT ORDINAL="2209" NAME="?LittleEndianToNativeDWord@@YAXPAK@Z" PURGE="0" COMMENT="" />
    <EXPORT ORDINAL="2210" NAME="?LittleEndianToNativeDWords@@YAXPAKH@Z" PURGE="0" COMMENT="" />
    <EXPORT ORDINAL="2211" NAME="?LittleEndianToNativeWords@@YAXPAGH@Z" PURGE="0" COMMENT="" />
    <EXPORT ORDINAL="2212" NAME="?Load2DTextureFromFile@VTextureManager@@UAEPAVVTextureObject@@PBDH@Z" PURGE="8" COMMENT="" />
    <EXPORT ORDINAL="2213" NAME="?Load3DTextureFromFile@VTextureManager@@UAEPAVVTextureObject@@PBDH@Z" PURGE="8" COMMENT="" />
    <EXPORT ORDINAL="2214" NAME="?Load@Image_cl@@QAEJPAVIVFileInStream@@@Z" PURGE="4" COMMENT="" />
    <EXPORT ORDINAL="2215" NAME="?Load@Image_cl@@QAEJPBDPAVIVFileStreamManager@@@Z" PURGE="8" COMMENT="" />
    <EXPORT ORDINAL="2216" NAME="?Load@Image_cl@@QAEJPBDW4ImageFileType_e@@@Z" PURGE="8" COMMENT="" />
    <EXPORT ORDINAL="2217" NAME="?Load@VArchive@@QAEPAUVType@@PAIPAD@Z" PURGE="8" COMMENT="" />
    <EXPORT ORDINAL="2218" NAME="?Load@VTextureObject@@MAEHPBD@Z" PURGE="4" COMMENT="" />
    <EXPORT ORDINAL="2219" NAME="?LoadAllFrames@VTexAnimInfo@@QAEXAAUTextureAnimInfo_t@@PAVIVTextureLoader@@PBD@Z" PURGE="12" COMMENT="" />
    <EXPORT ORDINAL="2220" NAME="?LoadBinaryVersion@VShaderEffectLib@@QAE_NW4VTargetPlatform@@@Z" PURGE="4" COMMENT="" />
    <EXPORT ORDINAL="2221" NAME="?LoadCubemapTextureFromFile@VTextureManager@@UAEPAVVTextureObject@@PBDH@Z" PURGE="8" COMMENT="" />
    <EXPORT ORDINAL="2222" NAME="?LoadDefaultValue@VisVariable_cl@@QAEXPAX_N@Z" PURGE="8" COMMENT="" />
    <EXPORT ORDINAL="2223" NAME="?LoadDefaultValues@VParamBlock@@QAEXXZ" PURGE="0" COMMENT="" />
    <EXPORT ORDINAL="2224" NAME="?LoadDimensions@Image_cl@@SAJPAJ00PAVIVFileInStream@@@Z" PURGE="0" COMMENT="" />
    <EXPORT ORDINAL="2225" NAME="?LoadDimensions@Image_cl@@SAJPAJ00PBDPAVIVFileStreamManager@@@Z" PURGE="0" COMMENT="" />
    <EXPORT ORDINAL="2226" NAME="?LoadDimensions@Image_cl@@SAJPAJ00PBDW4ImageFileType_e@@@Z" PURGE="0" COMMENT="" />
    <EXPORT ORDINAL="2227" NAME="?LoadFile@TiXmlDocument@@QAE_NPAVIVFileInStream@@W4TiXmlEncoding@@@Z" PURGE="8" COMMENT="" />
    <EXPORT ORDINAL="2228" NAME="?LoadFile@TiXmlDocument@@QAE_NPBDPAVIVFileStreamManager@@W4TiXmlEncoding@@@Z" PURGE="12" COMMENT="" />
    <EXPORT ORDINAL="2229" NAME="?LoadFile@TiXmlDocument@@QAE_NW4TiXmlEncoding@@PAVIVFileStreamManager@@@Z" PURGE="8" COMMENT="" />
    <EXPORT ORDINAL="2230" NAME="?LoadFromBinaryFile@VResourceSnapshot@@QAE_NPAVIVFileInStream@@@Z" PURGE="4" COMMENT="" />
    <EXPORT ORDINAL="2231" NAME="?LoadFromBinaryFile@VResourceSnapshot@@QAE_NPBDPAVIVFileStreamManager@@@Z" PURGE="8" COMMENT="" />
    <EXPORT ORDINAL="2232" NAME="?LoadFromFile@VLightGrid_cl@@QAEHPBDPAVIVFileStreamManager@@@Z" PURGE="8" COMMENT="" />
    <EXPORT ORDINAL="2233" NAME="?LoadFromFile@VLightGrid_cl@@SAPAV1@PBDPAVVResourceManager@@PAVIVFileStreamManager@@@Z" PURGE="0" COMMENT="" />
    <EXPORT ORDINAL="2234" NAME="?LoadFromFile@VResourceSnapshot@@QAE_NPAVIVFileInStream@@@Z" PURGE="4" COMMENT="" />
    <EXPORT ORDINAL="2235" NAME="?LoadFromFile@VResourceSnapshot@@QAE_NPBDPAVIVFileStreamManager@@@Z" PURGE="8" COMMENT="" />
    <EXPORT ORDINAL="2236" NAME="?LoadFromFile@VSurfaceFXConfig@@QAEHPAVIVFileInStream@@@Z" PURGE="4" COMMENT="" />
    <EXPORT ORDINAL="2237" NAME="?LoadFromFile@VSurfaceFXConfig@@QAEHPBDPAVIVFileStreamManager@@@Z" PURGE="8" COMMENT="" />
    <EXPORT ORDINAL="2238" NAME="?LoadFromFile@VTexAnimInfo@@QAEJPAVIVFileInStream@@@Z" PURGE="4" COMMENT="" />
    <EXPORT ORDINAL="2239" NAME="?LoadFromFile@VTexAnimInfo@@QAEJPBDPAVIVFileStreamManager@@@Z" PURGE="8" COMMENT="" />
    <EXPORT ORDINAL="2240" NAME="?LoadMeshFile@VLightmapSceneInfo@@QAE_NPBDPAVIVFileStreamManager@@@Z" PURGE="8" COMMENT="" />
    <EXPORT ORDINAL="2241" NAME="?LoadOutputFile@VLightmapSceneInfo@@QAE_NPBDPAVIVFileStreamManager@@PAVIVTextureLoader@@@Z" PURGE="12" COMMENT="" />
    <EXPORT ORDINAL="2242" NAME="?LoadResource@VResourceManager@@UAEPAVVManagedResource@@PBD@Z" PURGE="4" COMMENT="" />
    <EXPORT ORDINAL="2243" NAME="?LoadSettings@VLightmapSceneInfo@@QAE_NPBDPAVIVFileStreamManager@@@Z" PURGE="8" COMMENT="" />
    <EXPORT ORDINAL="2244" NAME="?LoadSettings@VTestUnit@@QAEHPBD_N@Z" PURGE="8" COMMENT="" />
    <EXPORT ORDINAL="2245" NAME="?LoadSourceBitmapFromFile@VImageComparison@@QAEHPBD@Z" PURGE="4" COMMENT="" />
    <EXPORT ORDINAL="2246" NAME="?LoadSourceBitmapFromMemory@VImageComparison@@QAEHPAXHHH@Z" PURGE="16" COMMENT="" />
    <EXPORT ORDINAL="2247" NAME="?LoadTargetBitmapFromFile@VImageComparison@@QAEHPBD@Z" PURGE="4" COMMENT="" />
    <EXPORT ORDINAL="2248" NAME="?LoadTargetBitmapFromMemory@VImageComparison@@QAEHPAXHHH@Z" PURGE="16" COMMENT="" />
    <EXPORT ORDINAL="2249" NAME="?LoadTests@VTestUnit@@QAEHPBD_N@Z" PURGE="8" COMMENT="" />
    <EXPORT ORDINAL="2250" NAME="?Lookup@VMapCPtrToCPtr@@QBEHPBXAAPBX@Z" PURGE="8" COMMENT="" />
    <EXPORT ORDINAL="2251" NAME="?Lookup@VMapCPtrToInt@@QBEHPBXAAH@Z" PURGE="8" COMMENT="" />
    <EXPORT ORDINAL="2252" NAME="?Lookup@VMapCPtrToPtr@@QBEHPBXAAPAX@Z" PURGE="8" COMMENT="" />
    <EXPORT ORDINAL="2253" NAME="?Lookup@VMapIntToInt@@QBEHHAAH@Z" PURGE="8" COMMENT="" />
    <EXPORT ORDINAL="2254" NAME="?Lookup@VMapIntToPtr@@QBEHHAAPAX@Z" PURGE="8" COMMENT="" />
    <EXPORT ORDINAL="2255" NAME="?Lookup@VMapPtrToInt@@QBEHPAXAAH@Z" PURGE="8" COMMENT="" />
    <EXPORT ORDINAL="2256" NAME="?Lookup@VMapPtrToPtr@@QBEHPAXAAPAX@Z" PURGE="8" COMMENT="" />
    <EXPORT ORDINAL="2257" NAME="?Lookup@VMapPtrToUInt@@QBEHPAXAAI@Z" PURGE="8" COMMENT="" />
    <EXPORT ORDINAL="2258" NAME="?Lookup@VMapStrToPtr@@QBEHPBDAAPAX@Z" PURGE="8" COMMENT="" />
    <EXPORT ORDINAL="2259" NAME="?MakeAbsoluteDir@VPathHelper@@SAPBDPBDPAD@Z" PURGE="0" COMMENT="" />
    <EXPORT ORDINAL="2260" NAME="?MakeCoplanar@VPlane4d@@QAEXAAVVVertex3f@@@Z" PURGE="4" COMMENT="" />
    <EXPORT ORDINAL="2261" NAME="?MakeCubic@VBBox@@QAEXXZ" PURGE="0" COMMENT="" />
    <EXPORT ORDINAL="2262" NAME="?MakeDataDir@VFileHelper@@SA_NPBDPAVVString@@@Z" PURGE="0" COMMENT="" />
    <EXPORT ORDINAL="2263" NAME="?MakeDifferenceImage@VImageComparison@@IAEHAAVImageMap_cl@@@Z" PURGE="4" COMMENT="" />
    <EXPORT ORDINAL="2264" NAME="?MakeOrthogonal@VVertex3d@@QAEXAAVVVertex3f@@@Z" PURGE="4" COMMENT="" />
    <EXPORT ORDINAL="2265" NAME="?MakePathRelative@VPathHelper@@SAXPADPBD1@Z" PURGE="0" COMMENT="" />
    <EXPORT ORDINAL="2266" NAME="?MakeValidVariableName@@YA?AVVString@@PBD@Z" PURGE="0" COMMENT="" />
    <EXPORT ORDINAL="2267" NAME="?MapConvertToControlValue@VInputMap@@QAE_NHH_N@Z" PURGE="12" COMMENT="" />
    <EXPORT ORDINAL="2268" NAME="?MapConvertToControlValueSingleHit@VInputMap@@QAE_NHH@Z" PURGE="8" COMMENT="" />
    <EXPORT ORDINAL="2269" NAME="?MapConvertToControlValueSingleHitPerFrame@VInputMap@@QAE_NHH@Z" PURGE="8" COMMENT="" />
    <EXPORT ORDINAL="2270" NAME="?MapDefaultParameterFromEffect@VCompiledShaderPass@@QAEXPAVVShaderEffectResource@@@Z" PURGE="4" COMMENT="" />
    <EXPORT ORDINAL="2271" NAME="?MapInputDeviceControlAxis@VInputMap@@QAE_NHHAAVIVInputDevice@@IIMPAH_N@Z" PURGE="32" COMMENT="" />
    <EXPORT ORDINAL="2272" NAME="?MapInputDeviceControlValue@VInputMap@@QAE_NHHAAVIVInputDevice@@IMPAH_N@Z" PURGE="28" COMMENT="" />
    <EXPORT ORDINAL="2273" NAME="?MapInputDeviceControlValueSingleHit@VInputMap@@QAE_NHHAAVIVInputDevice@@IW4VSingleHitType@@PAH@Z" PURGE="24" COMMENT="" />
    <EXPORT ORDINAL="2274" NAME="?MapInputDeviceControlValueSingleHitPerFrame@VInputMap@@QAE_NHHAAVIVInputDevice@@IW4VSingleHitType@@PAH@Z" PURGE="24" COMMENT="" />
    <EXPORT ORDINAL="2275" NAME="?MapObject@VArchive@@QAEXPBVVTypedObject@@@Z" PURGE="4" COMMENT="" />
    <EXPORT ORDINAL="2276" NAME="?MapSamplers@VShaderProgramResource@@QBEHABVVShaderConstantTable@@HPAUVStateGroupSampler@@PAUVStateGroupTexture@@PAF@Z" PURGE="20" COMMENT="" />
    <EXPORT ORDINAL="2277" NAME="?Match@VString@@IAE_NPAD0@Z" PURGE="8" COMMENT="" />
    <EXPORT ORDINAL="2278" NAME="?Match@VUniString@@IAE_NPA_W0@Z" PURGE="8" COMMENT="" />
    <EXPORT ORDINAL="2279" NAME="?MaxToEditor@VVertex3d@@QAEXXZ" PURGE="0" COMMENT="" />
    <EXPORT ORDINAL="2280" NAME="?MaxToEngine@VVertex3d@@QAEXXZ" PURGE="0" COMMENT="" />
    <EXPORT ORDINAL="2281" NAME="?MemSize@VSmallBlockMemoryManager@@UAEIPAX@Z" PURGE="4" COMMENT="" />
    <EXPORT ORDINAL="2282" NAME="?Merge@VParamDesc@@QAEXPAV1@0@Z" PURGE="8" COMMENT="" />
    <EXPORT ORDINAL="2283" NAME="?MergeSnapshot@VResourceSnapshot@@QAEXABV1@@Z" PURGE="4" COMMENT="" />
    <EXPORT ORDINAL="2284" NAME="?MinDist@VBBox@@QBEMABV1@@Z" PURGE="4" COMMENT="" />
    <EXPORT ORDINAL="2285" NAME="?MinDist@VBBox@@QBEMABVVVertex3d@@@Z" PURGE="4" COMMENT="" />
    <EXPORT ORDINAL="2286" NAME="?MkDir@VFileHelper@@SA_NPBD@Z" PURGE="0" COMMENT="" />
    <EXPORT ORDINAL="2287" NAME="?MkDirRecursive@VFileHelper@@SA_NPBD@Z" PURGE="0" COMMENT="" />
    <EXPORT ORDINAL="2288" NAME="?MoveTest@VTestUnit@@QAEHHH@Z" PURGE="8" COMMENT="" />
    <EXPORT ORDINAL="2289" NAME="?MultiByteToUTF8@VLocale@@SAHPBDHPADH@Z" PURGE="0" COMMENT="" />
    <EXPORT ORDINAL="2290" NAME="?Multiply@VMatrix4d@@QAEXABV1@@Z" PURGE="4" COMMENT="" />
    <EXPORT ORDINAL="2291" NAME="?Multiply@VMatrix4f@@QAEXABV1@@Z" PURGE="4" COMMENT="" />
    <EXPORT ORDINAL="2292" NAME="?MultiplyWith4x4Matrix@VVertex3d@@QAEXPBM@Z" PURGE="4" COMMENT="" />
    <EXPORT ORDINAL="2293" NAME="?MultiplyWithRotationalPart@VVertex3d@@QAEXPBM@Z" PURGE="4" COMMENT="" />
    <EXPORT ORDINAL="2294" NAME="?Name@TiXmlAttribute@@QBEPBDXZ" PURGE="0" COMMENT="" />
    <EXPORT ORDINAL="2295" NAME="?NameMatches@VParam@@QAE_NPBD@Z" PURGE="4" COMMENT="" />
    <EXPORT ORDINAL="2296" NAME="?NameTStr@TiXmlAttribute@@QBEABVTiXmlString@@XZ" PURGE="0" COMMENT="" />
    <EXPORT ORDINAL="2297" NAME="?NewPair@VMapCPtrToCPtr@@IAEPAUVPair@1@XZ" PURGE="0" COMMENT="" />
    <EXPORT ORDINAL="2298" NAME="?NewPair@VMapCPtrToInt@@IAEPAUVPair@1@XZ" PURGE="0" COMMENT="" />
    <EXPORT ORDINAL="2299" NAME="?NewPair@VMapCPtrToPtr@@IAEPAUVPair@1@XZ" PURGE="0" COMMENT="" />
    <EXPORT ORDINAL="2300" NAME="?NewPair@VMapIntToInt@@IAEPAUVPair@1@XZ" PURGE="0" COMMENT="" />
    <EXPORT ORDINAL="2301" NAME="?NewPair@VMapIntToPtr@@IAEPAUVPair@1@XZ" PURGE="0" COMMENT="" />
    <EXPORT ORDINAL="2302" NAME="?NewPair@VMapPtrToInt@@IAEPAUVPair@1@XZ" PURGE="0" COMMENT="" />
    <EXPORT ORDINAL="2303" NAME="?NewPair@VMapPtrToPtr@@IAEPAUVPair@1@XZ" PURGE="0" COMMENT="" />
    <EXPORT ORDINAL="2304" NAME="?NewPair@VMapPtrToUInt@@IAEPAUVPair@1@XZ" PURGE="0" COMMENT="" />
    <EXPORT ORDINAL="2305" NAME="?NewPair@VMapStrToPtr@@IAEPAUVPair@1@XZ" PURGE="0" COMMENT="" />
    <EXPORT ORDINAL="2306" NAME="?NewVariable@VisVariable_cl@@SAPAV1@PBD0HH0W4VDisplayHintFlags_e@@0I@Z" PURGE="0" COMMENT="" />
    <EXPORT ORDINAL="2307" NAME="?Next@TiXmlAttribute@@QAEPAV1@XZ" PURGE="0" COMMENT="" />
    <EXPORT ORDINAL="2308" NAME="?Next@TiXmlAttribute@@QBEPBV1@XZ" PURGE="0" COMMENT="" />
    <EXPORT ORDINAL="2309" NAME="?Next@VStringTokenizerInPlace@@QAEPADXZ" PURGE="0" COMMENT="" />
    <EXPORT ORDINAL="2310" NAME="?NextRGBAImage@VTextureLoader@@QAEPAVIVFileInStream@@PAUImageInfo_t@1@@Z" PURGE="4" COMMENT="" />
    <EXPORT ORDINAL="2311" NAME="?NextRawImage@VTextureLoader@@QAEPAVIVFileInStream@@PAUImageInfo_t@1@@Z" PURGE="4" COMMENT="" />
    <EXPORT ORDINAL="2312" NAME="?NextSibling@TiXmlNode@@QAEPAV1@PBD@Z" PURGE="4" COMMENT="" />
    <EXPORT ORDINAL="2313" NAME="?NextSibling@TiXmlNode@@QAEPAV1@XZ" PURGE="0" COMMENT="" />
    <EXPORT ORDINAL="2314" NAME="?NextSibling@TiXmlNode@@QBEPBV1@PBD@Z" PURGE="4" COMMENT="" />
    <EXPORT ORDINAL="2315" NAME="?NextSibling@TiXmlNode@@QBEPBV1@XZ" PURGE="0" COMMENT="" />
    <EXPORT ORDINAL="2316" NAME="?NextSiblingElement@TiXmlNode@@QAEPAVTiXmlElement@@PBD@Z" PURGE="4" COMMENT="" />
    <EXPORT ORDINAL="2317" NAME="?NextSiblingElement@TiXmlNode@@QAEPAVTiXmlElement@@XZ" PURGE="0" COMMENT="" />
    <EXPORT ORDINAL="2318" NAME="?NextSiblingElement@TiXmlNode@@QBEPBVTiXmlElement@@PBD@Z" PURGE="4" COMMENT="" />
    <EXPORT ORDINAL="2319" NAME="?NextSiblingElement@TiXmlNode@@QBEPBVTiXmlElement@@XZ" PURGE="0" COMMENT="" />
    <EXPORT ORDINAL="2320" NAME="?NoChildren@TiXmlNode@@QBE_NXZ" PURGE="0" COMMENT="" />
    <EXPORT ORDINAL="2321" NAME="?NoTrans@VMatrix4d@@QAEXXZ" PURGE="0" COMMENT="" />
    <EXPORT ORDINAL="2322" NAME="?NoTrans@VMatrix4f@@QAEXXZ" PURGE="0" COMMENT="" />
    <EXPORT ORDINAL="2323" NAME="?Node@TiXmlHandle@@QBEPAVTiXmlNode@@XZ" PURGE="0" COMMENT="" />
    <EXPORT ORDINAL="2324" NAME="?Normalize@VVertex3d@@QAENXZ" PURGE="0" COMMENT="" />
    <EXPORT ORDINAL="2325" NAME="?NrColorMaps@Image_cl@@QBEJXZ" PURGE="0" COMMENT="" />
    <EXPORT ORDINAL="2326" NAME="?NrHeightMaps@Image_cl@@QBEJXZ" PURGE="0" COMMENT="" />
    <EXPORT ORDINAL="2327" NAME="?NrOpacityMaps@Image_cl@@QBEJXZ" PURGE="0" COMMENT="" />
    <EXPORT ORDINAL="2328" NAME="?NumericParse@VString@@QBE_NPAXD@Z" PURGE="8" COMMENT="" />
    <EXPORT ORDINAL="2329" NAME="?NumericParse@VUniString@@QBE_NPAXD@Z" PURGE="8" COMMENT="" />
    <EXPORT ORDINAL="2330" NAME="?OnActivate@IVResourcePreview@@UAEXXZ" PURGE="0" COMMENT="" />
    <EXPORT ORDINAL="2331" NAME="?OnAddResource@VManagedResource@@UAEXXZ" PURGE="0" COMMENT="" />
    <EXPORT ORDINAL="2332" NAME="?OnByteCodeLoaded@VShaderProgramResource@@QAEXW4VTargetPlatform@@@Z" PURGE="4" COMMENT="" />
    <EXPORT ORDINAL="2333" NAME="?OnCancel@VThreadedTask@@UAEXXZ" PURGE="0" COMMENT="" />
    <EXPORT ORDINAL="2334" NAME="?OnColorTraced@IVLightGridTracer_cl@@UAEXAAVVLightGridNodeIterator_cl@@ABVVVertex3f@@H@Z" PURGE="12" COMMENT="" />
    <EXPORT ORDINAL="2335" NAME="?OnConnection@VTarget@@2VVCallback@@A" PURGE="-1" COMMENT="" />
    <EXPORT ORDINAL="2336" NAME="?OnDeActivate@IVResourcePreview@@UAEXXZ" PURGE="0" COMMENT="" />
    <EXPORT ORDINAL="2337" NAME="?OnDeserializationCallback@VTypedObject@@UAEXAAVVSerializationContext@@@Z" PURGE="4" COMMENT="" />
    <EXPORT ORDINAL="2338" NAME="?OnDisconnection@VTarget@@2VVCallback@@A" PURGE="-1" COMMENT="" />
    <EXPORT ORDINAL="2339" NAME="?OnEndChunk@VChunkFile@@UAEHI@Z" PURGE="4" COMMENT="" />
    <EXPORT ORDINAL="2340" NAME="?OnEndChunk@VChunkFileDebugOut_cl@@UAEHI@Z" PURGE="4" COMMENT="" />
    <EXPORT ORDINAL="2341" NAME="?OnError@VChunkFile@@UAEXPBDIH@Z" PURGE="12" COMMENT="" />
    <EXPORT ORDINAL="2342" NAME="?OnError@VChunkFileDebugOut_cl@@UAEXPBDIH@Z" PURGE="12" COMMENT="" />
    <EXPORT ORDINAL="2343" NAME="?OnError@VLightmapSceneInfo@@EAEXPBDIH@Z" PURGE="12" COMMENT="" />
    <EXPORT ORDINAL="2344" NAME="?OnError@VResourceSnapshot@@UAEXPBD@Z" PURGE="4" COMMENT="" />
    <EXPORT ORDINAL="2345" NAME="?OnFileCached@VResourceSnapshot@@UAEXPBD@Z" PURGE="4" COMMENT="" />
    <EXPORT ORDINAL="2346" NAME="?OnFinish@VProgressStatus@@UAEXXZ" PURGE="0" COMMENT="" />
    <EXPORT ORDINAL="2347" NAME="?OnFinishLoading@VChunkFile@@UAEXXZ" PURGE="0" COMMENT="" />
    <EXPORT ORDINAL="2348" NAME="?OnFinishSaving@VChunkFile@@UAEXXZ" PURGE="0" COMMENT="" />
    <EXPORT ORDINAL="2349" NAME="?OnFinished@VResourceSnapshot@@UAEXXZ" PURGE="0" COMMENT="" />
    <EXPORT ORDINAL="2350" NAME="?OnFinished@VThreadedTask@@UAEXPAVVManagedThread@@@Z" PURGE="4" COMMENT="" />
    <EXPORT ORDINAL="2351" NAME="?OnIterate@IVLightGridTracer_cl@@QAEXAAVVLightGridNodeIterator_cl@@ABVVBBoxf@@@Z" PURGE="8" COMMENT="" />
    <EXPORT ORDINAL="2352" NAME="?OnKeyDown@VInputCallbacks@@2VVCallback@@A" PURGE="-1" COMMENT="" />
    <EXPORT ORDINAL="2353" NAME="?OnKeyUp@VInputCallbacks@@2VVCallback@@A" PURGE="-1" COMMENT="" />
    <EXPORT ORDINAL="2354" NAME="?OnLoading@VCollisionSurface@@QAEXPAVVCollisionData@@@Z" PURGE="4" COMMENT="" />
    <EXPORT ORDINAL="2355" NAME="?OnLostDevice@VManagedResource@@UAEXXZ" PURGE="0" COMMENT="" />
    <EXPORT ORDINAL="2356" NAME="?OnLostDevice@VTextureObject@@MAEXXZ" PURGE="0" COMMENT="" />
    <EXPORT ORDINAL="2357" NAME="?OnMouseButtonDown@VInputCallbacks@@2VVCallback@@A" PURGE="-1" COMMENT="" />
    <EXPORT ORDINAL="2358" NAME="?OnMouseButtonUp@VInputCallbacks@@2VVCallback@@A" PURGE="-1" COMMENT="" />
    <EXPORT ORDINAL="2359" NAME="?OnParamChange@VParamContainer@@UAEXPAVVParam@@@Z" PURGE="4" COMMENT="" />
    <EXPORT ORDINAL="2360" NAME="?OnParamChange@VParamContainerBase@@UAEXPAVVParam@@@Z" PURGE="4" COMMENT="" />
    <EXPORT ORDINAL="2361" NAME="?OnPreParamChange@VParamContainer@@UAEXPAVVParam@@PAX@Z" PURGE="8" COMMENT="" />
    <EXPORT ORDINAL="2362" NAME="?OnPreParamChange@VParamContainerBase@@UAEXPAVVParam@@PAX@Z" PURGE="8" COMMENT="" />
    <EXPORT ORDINAL="2363" NAME="?OnPreTranslateMessage@VInputCallbacks@@2VVCallback@@A" PURGE="-1" COMMENT="" />
    <EXPORT ORDINAL="2364" NAME="?OnProgress@IVLightGridTracer_cl@@UAEXM@Z" PURGE="4" COMMENT="" />
    <EXPORT ORDINAL="2365" NAME="?OnProgress@VResourceSnapshot@@UAEXM@Z" PURGE="4" COMMENT="" />
    <EXPORT ORDINAL="2366" NAME="?OnProgressChanged@VProgressStatus@@UAEXXZ" PURGE="0" COMMENT="" />
    <EXPORT ORDINAL="2367" NAME="?OnReceive@VBroadcaster@@UAEXPAVVSenderReceiver@@HPAX@Z" PURGE="12" COMMENT="" />
    <EXPORT ORDINAL="2368" NAME="?OnReceive@VReceiver@@UAEXPAVVSenderReceiver@@HPAX@Z" PURGE="12" COMMENT="" />
    <EXPORT ORDINAL="2369" NAME="?OnReceive@VSenderReceiver@@UAEXPAV1@HPAX@Z" PURGE="12" COMMENT="" />
    <EXPORT ORDINAL="2370" NAME="?OnRecreateDevice@VManagedResource@@UAEXXZ" PURGE="0" COMMENT="" />
    <EXPORT ORDINAL="2371" NAME="?OnRecreateDevice@VTextureObject@@MAEXXZ" PURGE="0" COMMENT="" />
    <EXPORT ORDINAL="2372" NAME="?OnRemoveResource@VManagedResource@@UAEXXZ" PURGE="0" COMMENT="" />
    <EXPORT ORDINAL="2373" NAME="?OnRender@IVResourcePreview@@UAEXH@Z" PURGE="4" COMMENT="" />
    <EXPORT ORDINAL="2374" NAME="?OnResourceCreated@VResourceSnapshot@@UAEXPAVVManagedResource@@@Z" PURGE="4" COMMENT="" />
    <EXPORT ORDINAL="2375" NAME="?OnSerialized@VTypedObject@@UAEXAAVVArchive@@@Z" PURGE="4" COMMENT="" />
    <EXPORT ORDINAL="2376" NAME="?OnShaderPassDestroyed@VCompiledShaderManager@@UAEXPAVVCompiledShaderPass@@@Z" PURGE="4" COMMENT="" />
    <EXPORT ORDINAL="2377" NAME="?OnStart@VProgressStatus@@UAEXXZ" PURGE="0" COMMENT="" />
    <EXPORT ORDINAL="2378" NAME="?OnStartChunk@VChunkFile@@UAEHIH@Z" PURGE="8" COMMENT="" />
    <EXPORT ORDINAL="2379" NAME="?OnStartChunk@VChunkFileDebugOut_cl@@UAEHIH@Z" PURGE="8" COMMENT="" />
    <EXPORT ORDINAL="2380" NAME="?OnStartLoading@VChunkFile@@UAEXXZ" PURGE="0" COMMENT="" />
    <EXPORT ORDINAL="2381" NAME="?OnStartSaving@VChunkFile@@UAEXXZ" PURGE="0" COMMENT="" />
    <EXPORT ORDINAL="2382" NAME="?OnStartSaving@VCollisionSurface@@QAEXPAVVCollisionData@@@Z" PURGE="4" COMMENT="" />
    <EXPORT ORDINAL="2383" NAME="?OnStatusStringChanged@VProgressStatus@@UAEXXZ" PURGE="0" COMMENT="" />
    <EXPORT ORDINAL="2384" NAME="?OnTickFunction@VMemoryStreamManager@@UAEXM@Z" PURGE="4" COMMENT="" />
    <EXPORT ORDINAL="2385" NAME="?OnTickFunction@VResourceManager@@UAEXM@Z" PURGE="4" COMMENT="" />
    <EXPORT ORDINAL="2386" NAME="?OnUpdate@IVResourcePreview@@UAEHM@Z" PURGE="4" COMMENT="" />
    <EXPORT ORDINAL="2387" NAME="?OnVariableValueChanged@VTypedObject@@UAEXPAVVisVariable_cl@@PBD@Z" PURGE="8" COMMENT="" />
    <EXPORT ORDINAL="2388" NAME="?OnVisitEnd@IVLightGridVisitor@@UAEXXZ" PURGE="0" COMMENT="" />
    <EXPORT ORDINAL="2389" NAME="?OnVisitStart@IVLightGridVisitor@@UAE_NPAVVLightGrid_cl@@@Z" PURGE="4" COMMENT="" />
    <EXPORT ORDINAL="2390" NAME="?OnWarning@VChunkFile@@UAEXPBDIH@Z" PURGE="12" COMMENT="" />
    <EXPORT ORDINAL="2391" NAME="?OnWarning@VChunkFileDebugOut_cl@@UAEXPBDIH@Z" PURGE="12" COMMENT="" />
    <EXPORT ORDINAL="2392" NAME="?OneTimeDeInit@VShaderEnum@@SAXXZ" PURGE="0" COMMENT="" />
    <EXPORT ORDINAL="2393" NAME="?OneTimeDeInit@VisionWindowManager@@SAXXZ" PURGE="0" COMMENT="" />
    <EXPORT ORDINAL="2394" NAME="?OneTimeDeInit@vPlatformManager@@SAXXZ" PURGE="0" COMMENT="" />
    <EXPORT ORDINAL="2395" NAME="?OneTimeInit@VShaderEnum@@SAXXZ" PURGE="0" COMMENT="" />
    <EXPORT ORDINAL="2396" NAME="?OneTimeInit@VisionWindowManager@@SAXABVVWindowConfig@@@Z" PURGE="0" COMMENT="" />
    <EXPORT ORDINAL="2397" NAME="?OneTimeInit@vPlatformManager@@SAXXZ" PURGE="0" COMMENT="" />
    <EXPORT ORDINAL="2398" NAME="?OpacityMapAnimated@Image_cl@@QAEAAHXZ" PURGE="0" COMMENT="" />
    <EXPORT ORDINAL="2399" NAME="?Open@VChunkFile@@QAEHAAVVArchive@@H@Z" PURGE="8" COMMENT="" />
    <EXPORT ORDINAL="2400" NAME="?Open@VChunkFile@@QAEHPAVIVFileInStream@@H@Z" PURGE="8" COMMENT="" />
    <EXPORT ORDINAL="2401" NAME="?Open@VChunkFile@@QAEHPBDPAVIVFileStreamManager@@@Z" PURGE="8" COMMENT="" />
    <EXPORT ORDINAL="2402" NAME="?Open@VChunkFileDebugOut_cl@@QAEHPBD0PAVIVFileStreamManager@@@Z" PURGE="12" COMMENT="" />
    <EXPORT ORDINAL="2403" NAME="?Open@VClipboard@@UAEPAVIVFileInStream@@PBDH@Z" PURGE="8" COMMENT="" />
    <EXPORT ORDINAL="2404" NAME="?Open@VDiskFileStreamManager@@UAEPAVIVFileInStream@@PBDH@Z" PURGE="8" COMMENT="" />
    <EXPORT ORDINAL="2405" NAME="?Open@VFileAccess@@SA_NPAUVFileHandle@@PBDH@Z" PURGE="0" COMMENT="" />
    <EXPORT ORDINAL="2406" NAME="?Open@VMemoryStreamManager@@QAEPAVIVFileInStream@@PBDH@Z" PURGE="8" COMMENT="" />
    <EXPORT ORDINAL="2407" NAME="?Open@VShaderIncludeManager@@MAGJW4_D3DXINCLUDE_TYPE@@PBDPBXPAPBXPAI@Z" PURGE="24" COMMENT="" />
    <EXPORT ORDINAL="2408" NAME="?Open@VTextureLoader@@QAE_NPAVIVFileInStream@@_NHW4VTextureType_e@1@PAVIVLog@@@Z" PURGE="20" COMMENT="" />
    <EXPORT ORDINAL="2409" NAME="?Open@VTextureLoader@@QAE_NPBDPAVIVFileStreamManager@@HW4VTextureType_e@1@PAVIVLog@@@Z" PURGE="20" COMMENT="" />
    <EXPORT ORDINAL="2410" NAME="?Open@VZipFileStreamManager@@UAEPAVIVFileInStream@@PBDH@Z" PURGE="8" COMMENT="" />
    <EXPORT ORDINAL="2411" NAME="?OpenChunk@VChunkFile@@QAEHPAIPAHI@Z" PURGE="12" COMMENT="" />
    <EXPORT ORDINAL="2412" NAME="?OpenFile@Image_cl@@SAPAVIVFileInStream@@PBDPAVIVFileStreamManager@@@Z" PURGE="0" COMMENT="" />
    <EXPORT ORDINAL="2413" NAME="?OpenShared@VFileAccess@@SA_NPAUVFileHandle@@PBDHH@Z" PURGE="0" COMMENT="" />
    <EXPORT ORDINAL="2414" NAME="?OptimizeVertices@VSimpleCollisionMesh32@@QAEXXZ" PURGE="0" COMMENT="" />
    <EXPORT ORDINAL="2415" NAME="?OrderAlphabetical@VTestUnit@@QAEXH@Z" PURGE="4" COMMENT="" />
    <EXPORT ORDINAL="2416" NAME="?OrderRandom@VTestUnit@@QAEXXZ" PURGE="0" COMMENT="" />
    <EXPORT ORDINAL="2417" NAME="?OrderReset@VTestUnit@@QAEXXZ" PURGE="0" COMMENT="" />
    <EXPORT ORDINAL="2418" NAME="?OrderReverse@VTestUnit@@QAEXXZ" PURGE="0" COMMENT="" />
    <EXPORT ORDINAL="2419" NAME="?Orthonormalize@VMatrix4d@@QAEXXZ" PURGE="0" COMMENT="" />
    <EXPORT ORDINAL="2420" NAME="?Orthonormalize@VMatrix4f@@QAEXXZ" PURGE="0" COMMENT="" />
    <EXPORT ORDINAL="2421" NAME="?ParamSerializeCallback@VParamContainer@@MAEXW4SerializeEvent@@AAVVArchive@@PAVVParamBlock@@@Z" PURGE="12" COMMENT="" />
    <EXPORT ORDINAL="2422" NAME="?ParamSize@VParam@@2PAHA" PURGE="-1" COMMENT="" />
    <EXPORT ORDINAL="2423" NAME="?Parent@TiXmlNode@@QAEPAV1@XZ" PURGE="0" COMMENT="" />
    <EXPORT ORDINAL="2424" NAME="?Parent@TiXmlNode@@QBEPBV1@XZ" PURGE="0" COMMENT="" />
    <EXPORT ORDINAL="2425" NAME="?Parse@TiXmlAttribute@@UAEPBDPBDPAVTiXmlParsingData@@W4TiXmlEncoding@@@Z" PURGE="12" COMMENT="" />
    <EXPORT ORDINAL="2426" NAME="?Parse@TiXmlComment@@UAEPBDPBDPAVTiXmlParsingData@@W4TiXmlEncoding@@@Z" PURGE="12" COMMENT="" />
    <EXPORT ORDINAL="2427" NAME="?Parse@TiXmlDeclaration@@UAEPBDPBDPAVTiXmlParsingData@@W4TiXmlEncoding@@@Z" PURGE="12" COMMENT="" />
    <EXPORT ORDINAL="2428" NAME="?Parse@TiXmlDocument@@UAEPBDPBDPAVTiXmlParsingData@@W4TiXmlEncoding@@@Z" PURGE="12" COMMENT="" />
    <EXPORT ORDINAL="2429" NAME="?Parse@TiXmlElement@@UAEPBDPBDPAVTiXmlParsingData@@W4TiXmlEncoding@@@Z" PURGE="12" COMMENT="" />
    <EXPORT ORDINAL="2430" NAME="?Parse@TiXmlText@@UAEPBDPBDPAVTiXmlParsingData@@W4TiXmlEncoding@@@Z" PURGE="12" COMMENT="" />
    <EXPORT ORDINAL="2431" NAME="?Parse@TiXmlUnknown@@UAEPBDPBDPAVTiXmlParsingData@@W4TiXmlEncoding@@@Z" PURGE="12" COMMENT="" />
    <EXPORT ORDINAL="2432" NAME="?Parse@VStringTokenizerInPlace@@QAEXPADD_N@Z" PURGE="12" COMMENT="" />
    <EXPORT ORDINAL="2433" NAME="?ParseFile@VChunkFile@@QAEHXZ" PURGE="0" COMMENT="" />
    <EXPORT ORDINAL="2434" NAME="?ParseMessage@VLogNull@@UAEXPBD@Z" PURGE="4" COMMENT="" />
    <EXPORT ORDINAL="2435" NAME="?ParseMessage@VLogWindow@@UAEXPBD@Z" PURGE="-1" COMMENT="" />
    <EXPORT ORDINAL="2436" NAME="?ParseParameterString@@YAHPBDAAVVString@@@Z" PURGE="0" COMMENT="" />
    <EXPORT ORDINAL="2437" NAME="?ParseParameterString@VCompiledShaderPass@@QAEXPAVVShaderPassResource@@PBD@Z" PURGE="8" COMMENT="" />
    <EXPORT ORDINAL="2438" NAME="?ParseSingleParameter@IVConstantBuffer@@QAE_NPBD0@Z" PURGE="8" COMMENT="" />
    <EXPORT ORDINAL="2439" NAME="?ParseString@VParam@@SAHW4VParamType@@PBDAATParamValUnion@@PAV1@1@Z" PURGE="0" COMMENT="" />
    <EXPORT ORDINAL="2440" NAME="?ParseValArg@VParamDesc@@CAHW4VParamType@@AATParamValUnion@@AAPAD@Z" PURGE="0" COMMENT="" />
    <EXPORT ORDINAL="2441" NAME="?PerformAction@IVRevisionControlSystem@@UAEHPBDH@Z" PURGE="8" COMMENT="" />
    <EXPORT ORDINAL="2442" NAME="?PerformSanityCheck@VShaderPassResource@@QAE_NPAVIVLog@@H@Z" PURGE="8" COMMENT="" />
    <EXPORT ORDINAL="2443" NAME="?PointInBox@VBBox@@QBEHABVVVertex3d@@@Z" PURGE="4" COMMENT="" />
    <EXPORT ORDINAL="2444" NAME="?PointInPolygon@@YAHPBVVVertex3d@@HABV1@@Z" PURGE="0" COMMENT="" />
    <EXPORT ORDINAL="2445" NAME="?PolygonNormal@@YAHPBVVVertex3d@@HAAV1@@Z" PURGE="0" COMMENT="" />
    <EXPORT ORDINAL="2446" NAME="?Pop@VPList@@QAEPAXXZ" PURGE="0" COMMENT="" />
    <EXPORT ORDINAL="2447" NAME="?PopRange@VProgressStatus@@QAEX_N@Z" PURGE="4" COMMENT="" />
    <EXPORT ORDINAL="2448" NAME="?PostCompileFunction@VCompiledShaderPass@@UAEXPAVVShaderEffectResource@@PAVVShaderPassResource@@@Z" PURGE="8" COMMENT="" />
    <EXPORT ORDINAL="2449" NAME="?PreCompileFunction@VCompiledShaderPass@@UAEXPAVVShaderEffectResource@@PAVVShaderPassResource@@@Z" PURGE="8" COMMENT="" />
    <EXPORT ORDINAL="2450" NAME="?PreMultiply@VMatrix4d@@QAEXABV1@@Z" PURGE="4" COMMENT="" />
    <EXPORT ORDINAL="2451" NAME="?PreMultiply@VMatrix4f@@QAEXABV1@@Z" PURGE="4" COMMENT="" />
    <EXPORT ORDINAL="2452" NAME="?PreRotate@VMatrix4d@@QAEXABVVVertex3d@@M@Z" PURGE="8" COMMENT="" />
    <EXPORT ORDINAL="2453" NAME="?PreRotate@VMatrix4f@@QAEXABVVVertex3f@@M@Z" PURGE="8" COMMENT="" />
    <EXPORT ORDINAL="2454" NAME="?PreRotateX@VMatrix4d@@QAEXM@Z" PURGE="4" COMMENT="" />
    <EXPORT ORDINAL="2455" NAME="?PreRotateX@VMatrix4f@@QAEXM@Z" PURGE="4" COMMENT="" />
    <EXPORT ORDINAL="2456" NAME="?PreRotateY@VMatrix4d@@QAEXM@Z" PURGE="4" COMMENT="" />
    <EXPORT ORDINAL="2457" NAME="?PreRotateY@VMatrix4f@@QAEXM@Z" PURGE="4" COMMENT="" />
    <EXPORT ORDINAL="2458" NAME="?PreRotateZ@VMatrix4d@@QAEXM@Z" PURGE="4" COMMENT="" />
    <EXPORT ORDINAL="2459" NAME="?PreRotateZ@VMatrix4f@@QAEXM@Z" PURGE="4" COMMENT="" />
    <EXPORT ORDINAL="2460" NAME="?PreScale@VMatrix4d@@QAEXABVVVertex3d@@_N@Z" PURGE="8" COMMENT="" />
    <EXPORT ORDINAL="2461" NAME="?PreScale@VMatrix4f@@QAEXABVVVertex3f@@_N@Z" PURGE="8" COMMENT="" />
    <EXPORT ORDINAL="2462" NAME="?PreTranslate@VMatrix4d@@QAEXABVVVertex3d@@@Z" PURGE="4" COMMENT="" />
    <EXPORT ORDINAL="2463" NAME="?PreTranslate@VMatrix4f@@QAEXABVVVertex3f@@@Z" PURGE="4" COMMENT="" />
    <EXPORT ORDINAL="2464" NAME="?PrecacheFile@VMemoryStreamManager@@QAEPAVVLoadingTask@@PBDPAVIVFileStreamManager@@@Z" PURGE="8" COMMENT="" />
    <EXPORT ORDINAL="2465" NAME="?Present@VVideo@@SA_NABVVVideoConfig@@@Z" PURGE="0" COMMENT="" />
    <EXPORT ORDINAL="2466" NAME="?Previous@TiXmlAttribute@@QAEPAV1@XZ" PURGE="0" COMMENT="" />
    <EXPORT ORDINAL="2467" NAME="?Previous@TiXmlAttribute@@QBEPBV1@XZ" PURGE="0" COMMENT="" />
    <EXPORT ORDINAL="2468" NAME="?PreviousSibling@TiXmlNode@@QAEPAV1@PBD@Z" PURGE="4" COMMENT="" />
    <EXPORT ORDINAL="2469" NAME="?PreviousSibling@TiXmlNode@@QAEPAV1@XZ" PURGE="0" COMMENT="" />
    <EXPORT ORDINAL="2470" NAME="?PreviousSibling@TiXmlNode@@QBEPBV1@PBD@Z" PURGE="4" COMMENT="" />
    <EXPORT ORDINAL="2471" NAME="?PreviousSibling@TiXmlNode@@QBEPBV1@XZ" PURGE="0" COMMENT="" />
    <EXPORT ORDINAL="2472" NAME="?Primitives@VLightmapSceneInfo@@QAEAAVVLightmapPrimitiveList@1@XZ" PURGE="0" COMMENT="" />
    <EXPORT ORDINAL="2473" NAME="?Print@TiXmlAttribute@@QBEXPAVIVFileOutStream@@HPAVTiXmlString@@@Z" PURGE="12" COMMENT="" />
    <EXPORT ORDINAL="2474" NAME="?Print@TiXmlAttribute@@UBEXPAVIVFileOutStream@@H@Z" PURGE="8" COMMENT="" />
    <EXPORT ORDINAL="2475" NAME="?Print@TiXmlComment@@UBEXPAVIVFileOutStream@@H@Z" PURGE="8" COMMENT="" />
    <EXPORT ORDINAL="2476" NAME="?Print@TiXmlDeclaration@@UBEXPAVIVFileOutStream@@H@Z" PURGE="8" COMMENT="" />
    <EXPORT ORDINAL="2477" NAME="?Print@TiXmlDeclaration@@UBEXPAVIVFileOutStream@@HPAVTiXmlString@@@Z" PURGE="12" COMMENT="" />
    <EXPORT ORDINAL="2478" NAME="?Print@TiXmlDocument@@UBEXPAVIVFileOutStream@@H@Z" PURGE="8" COMMENT="" />
    <EXPORT ORDINAL="2479" NAME="?Print@TiXmlElement@@UBEXPAVIVFileOutStream@@H@Z" PURGE="8" COMMENT="" />
    <EXPORT ORDINAL="2480" NAME="?Print@TiXmlText@@UBEXPAVIVFileOutStream@@H@Z" PURGE="8" COMMENT="" />
    <EXPORT ORDINAL="2481" NAME="?Print@TiXmlUnknown@@UBEXPAVIVFileOutStream@@H@Z" PURGE="8" COMMENT="" />
    <EXPORT ORDINAL="2482" NAME="?Print@VAction@@QAAXPBDZZ" PURGE="0" COMMENT="" />
    <EXPORT ORDINAL="2483" NAME="?Print@VActionManager@@QAAXPBDZZ" PURGE="0" COMMENT="" />
    <EXPORT ORDINAL="2484" NAME="?Print@VModule@@QAAXPBDZZ" PURGE="0" COMMENT="" />
    <EXPORT ORDINAL="2485" NAME="?PrintWarning@VAction@@QAAXPBDZZ" PURGE="0" COMMENT="" />
    <EXPORT ORDINAL="2486" NAME="?PrintWarning@VActionManager@@QAAXPBDZZ" PURGE="0" COMMENT="" />
    <EXPORT ORDINAL="2487" NAME="?PrintWarning@VModule@@QAAXPBDZZ" PURGE="0" COMMENT="" />
    <EXPORT ORDINAL="2488" NAME="?PrintWithoutComments@VActionManager@@IAAXPBDZZ" PURGE="0" COMMENT="" />
    <EXPORT ORDINAL="2489" NAME="?Printf@VTestClass@@QAAXPBDZZ" PURGE="0" COMMENT="" />
    <EXPORT ORDINAL="2490" NAME="?Printf@VTestUnit@@QAAXHW4ePRINTFSTYLE@@PBDZZ" PURGE="0" COMMENT="" />
    <EXPORT ORDINAL="2491" NAME="?Printf@VTestUnit@@QAAXPBDZZ" PURGE="0" COMMENT="" />
    <EXPORT ORDINAL="2492" NAME="?ProcessMessage@VReceiver@@UAEXXZ" PURGE="0" COMMENT="" />
    <EXPORT ORDINAL="2493" NAME="?ProcessQueue@VCallbackSenderQueue@@QAEHXZ" PURGE="0" COMMENT="" />
    <EXPORT ORDINAL="2494" NAME="?ProcessRemainingResources@VResourceSnapshot@@QAEXXZ" PURGE="0" COMMENT="" />
    <EXPORT ORDINAL="2495" NAME="?ProcessSubChunk@VChunkFile@@QAEHI@Z" PURGE="4" COMMENT="" />
    <EXPORT ORDINAL="2496" NAME="?ProjectVertex@VPlane4d@@QAEXAAVVVertex3d@@@Z" PURGE="4" COMMENT="" />
    <EXPORT ORDINAL="2497" NAME="?ProjectVertex@VPlane4d@@QAEXAAVVVertex3f@@@Z" PURGE="4" COMMENT="" />
    <EXPORT ORDINAL="2498" NAME="?Purge@VManagedResource@@QAEHXZ" PURGE="0" COMMENT="" />
    <EXPORT ORDINAL="2499" NAME="?PurgeUnused@VCompiledShaderManager@@QAEHXZ" PURGE="0" COMMENT="" />
    <EXPORT ORDINAL="2500" NAME="?PurgeUnusedResources@VResourceManager@@QAEIM@Z" PURGE="4" COMMENT="" />
    <EXPORT ORDINAL="2501" NAME="?PurgeUnusedResources@VResourceManager@@QAEIPBDM@Z" PURGE="8" COMMENT="" />
    <EXPORT ORDINAL="2502" NAME="?PurgeUnusedResources@VResourceManager@@QAEIXZ" PURGE="0" COMMENT="" />
    <EXPORT ORDINAL="2503" NAME="?Push@VPList@@QAEXPAX@Z" PURGE="4" COMMENT="" />
    <EXPORT ORDINAL="2504" NAME="?PushAction@VUndoRedoStack@@QAEXPAVVAction@@@Z" PURGE="4" COMMENT="" />
    <EXPORT ORDINAL="2505" NAME="?PushRange@VProgressStatus@@QAEXM@Z" PURGE="4" COMMENT="" />
    <EXPORT ORDINAL="2506" NAME="?PushRange@VProgressStatus@@QAEXMM@Z" PURGE="8" COMMENT="" />
    <EXPORT ORDINAL="2507" NAME="?QueryDoubleAttribute@TiXmlElement@@QBEHPBDPAN@Z" PURGE="8" COMMENT="" />
    <EXPORT ORDINAL="2508" NAME="?QueryDoubleValue@TiXmlAttribute@@QBEHPAN@Z" PURGE="4" COMMENT="" />
    <EXPORT ORDINAL="2509" NAME="?QueryFloatAttribute@TiXmlElement@@QBEHPBDPAM@Z" PURGE="8" COMMENT="" />
    <EXPORT ORDINAL="2510" NAME="?QueryIntAttribute@TiXmlElement@@QBEHPBDPAH@Z" PURGE="8" COMMENT="" />
    <EXPORT ORDINAL="2511" NAME="?QueryIntValue@TiXmlAttribute@@QBEHPAH@Z" PURGE="4" COMMENT="" />
    <EXPORT ORDINAL="2512" NAME="?RCSAddFile@VFileAccessManager@@SA_NPBD@Z" PURGE="0" COMMENT="" />
    <EXPORT ORDINAL="2513" NAME="?RCSEditFile@VFileAccessManager@@SA_NPBD@Z" PURGE="0" COMMENT="" />
    <EXPORT ORDINAL="2514" NAME="?RCSPerformAction@VFileAccessManager@@SAHPBDH0@Z" PURGE="0" COMMENT="" />
    <EXPORT ORDINAL="2515" NAME="?RCSUpdateFile@VFileAccessManager@@SA_NPBD@Z" PURGE="0" COMMENT="" />
    <EXPORT ORDINAL="2516" NAME="?RGBE_To_Float@VColorExpRef@@SA?AVVVertex3f@@I@Z" PURGE="0" COMMENT="" />
    <EXPORT ORDINAL="2517" NAME="?RGBE_To_Float@VColorExpRef@@SA?AVVVertex3f@@U1@@Z" PURGE="0" COMMENT="" />
    <EXPORT ORDINAL="2518" NAME="?RGBE_To_Float@VColorExpRef@@SAXIAAVVVertex3f@@@Z" PURGE="0" COMMENT="" />
    <EXPORT ORDINAL="2519" NAME="?RGBE_To_Float@VColorExpRef@@SAXU1@AAVVVertex3f@@@Z" PURGE="0" COMMENT="" />
    <EXPORT ORDINAL="2520" NAME="?RGBE_To_RGB@VColorExpRef@@SA?AUVColorRef@@U1@@Z" PURGE="0" COMMENT="" />
    <EXPORT ORDINAL="2521" NAME="?RandomState@VTestUnit@@QAEXHH@Z" PURGE="8" COMMENT="" />
    <EXPORT ORDINAL="2522" NAME="?RandomSubtestState@VTestClass@@QAEXH@Z" PURGE="4" COMMENT="" />
    <EXPORT ORDINAL="2523" NAME="?ReAllocate@VPointerArrayHelpers@@SAPAPAXPAPAXAAHH@Z" PURGE="0" COMMENT="" />
    <EXPORT ORDINAL="2524" NAME="?Read@IVFileInStream@@QAEIPAXHPBD@Z" PURGE="12" COMMENT="" />
    <EXPORT ORDINAL="2525" NAME="?Read@IVFileInStream@@QAEIPAXHPBDI@Z" PURGE="16" COMMENT="" />
    <EXPORT ORDINAL="2526" NAME="?Read@RGBAStream@@UAEIPAXH@Z" PURGE="8" COMMENT="" />
    <EXPORT ORDINAL="2527" NAME="?Read@VArchive@@QAEIPAXIPBD@Z" PURGE="12" COMMENT="" />
    <EXPORT ORDINAL="2528" NAME="?Read@VArchive@@QAEIPAXIPBDI@Z" PURGE="16" COMMENT="" />
    <EXPORT ORDINAL="2529" NAME="?Read@VArchive@@UAEIPAXI@Z" PURGE="8" COMMENT="" />
    <EXPORT ORDINAL="2530" NAME="?Read@VChunkFile@@QAEIPAXI@Z" PURGE="8" COMMENT="" />
    <EXPORT ORDINAL="2531" NAME="?Read@VChunkFile@@QAEIPAXIPBD@Z" PURGE="12" COMMENT="" />
    <EXPORT ORDINAL="2532" NAME="?Read@VChunkFile@@QAEIPAXIPBDI@Z" PURGE="16" COMMENT="" />
    <EXPORT ORDINAL="2533" NAME="?Read@VDiskFileInStream@@UAEIPAXH@Z" PURGE="8" COMMENT="" />
    <EXPORT ORDINAL="2534" NAME="?Read@VFileAccess@@SAJPAUVFileHandle@@PAXJ@Z" PURGE="0" COMMENT="" />
    <EXPORT ORDINAL="2535" NAME="?Read@VMemBlockWrapperStream@@UAEIPAXH@Z" PURGE="8" COMMENT="" />
    <EXPORT ORDINAL="2536" NAME="?Read@VMemoryInStream@@UAEIPAXH@Z" PURGE="8" COMMENT="" />
    <EXPORT ORDINAL="2537" NAME="?ReadBitfieldFromBinary@VTechniqueConfig@@SAXAAVVChunkFile@@AAVVBitfield@@@Z" PURGE="0" COMMENT="" />
    <EXPORT ORDINAL="2538" NAME="?ReadChunk@VBitfield@@SAPAV1@AAVVChunkFile@@@Z" PURGE="0" COMMENT="" />
    <EXPORT ORDINAL="2539" NAME="?ReadClass@VArchive@@QAEPAUVType@@PBU2@PAIPAK@Z" PURGE="12" COMMENT="" />
    <EXPORT ORDINAL="2540" NAME="?ReadCompressedInt@VArchive@@QAEIXZ" PURGE="0" COMMENT="" />
    <EXPORT ORDINAL="2541" NAME="?ReadDWord@VChunkFile@@QAEIPAX@Z" PURGE="4" COMMENT="" />
    <EXPORT ORDINAL="2542" NAME="?ReadDWords@VChunkFile@@QAEIPAXI@Z" PURGE="8" COMMENT="" />
    <EXPORT ORDINAL="2543" NAME="?ReadFromStream@VRawDataBlock@@QAEXPAVIVFileInStream@@@Z" PURGE="4" COMMENT="" />
    <EXPORT ORDINAL="2544" NAME="?ReadFromStream@VisMBVertexDescriptor_t@@QAEHPAVIVFileInStream@@@Z" PURGE="4" COMMENT="" />
    <EXPORT ORDINAL="2545" NAME="?ReadInt@VMessage@@QAE_NAAH@Z" PURGE="4" COMMENT="" />
    <EXPORT ORDINAL="2546" NAME="?ReadIntoUnpackBuffer@VTextureLoader@@IAE_N_NH@Z" PURGE="8" COMMENT="" />
    <EXPORT ORDINAL="2547" NAME="?ReadName@TiXmlBase@@KAPBDPBDPAVTiXmlString@@W4TiXmlEncoding@@@Z" PURGE="0" COMMENT="" />
    <EXPORT ORDINAL="2548" NAME="?ReadObject@VArchive@@UAEPAVVTypedObject@@PBUVType@@@Z" PURGE="4" COMMENT="" />
    <EXPORT ORDINAL="2549" NAME="?ReadProxyObject@VArchive@@QAEPAVIVSerializationProxyCreator@@PAUVType@@@Z" PURGE="4" COMMENT="" />
    <EXPORT ORDINAL="2550" NAME="?ReadString@VChunkFile@@QAEHAAVVHashString@@@Z" PURGE="4" COMMENT="" />
    <EXPORT ORDINAL="2551" NAME="?ReadString@VChunkFile@@QAEHAAVVString@@@Z" PURGE="4" COMMENT="" />
    <EXPORT ORDINAL="2552" NAME="?ReadString@VChunkFile@@QAEHPADH@Z" PURGE="8" COMMENT="" />
    <EXPORT ORDINAL="2553" NAME="?ReadString@VChunkFile@@QAEHPAPAD@Z" PURGE="4" COMMENT="" />
    <EXPORT ORDINAL="2554" NAME="?ReadString@VMessage@@QAE_NPAPAD@Z" PURGE="4" COMMENT="" />
    <EXPORT ORDINAL="2555" NAME="?ReadStringBinary@VArchive@@QAEHPADH@Z" PURGE="8" COMMENT="" />
    <EXPORT ORDINAL="2556" NAME="?ReadStringBinary@VArchive@@QAEPADPADHAA_N@Z" PURGE="12" COMMENT="" />
    <EXPORT ORDINAL="2557" NAME="?ReadStringBinary@VStreamHelper@@SAHPAVIVFileInStream@@PADH@Z" PURGE="0" COMMENT="" />
    <EXPORT ORDINAL="2558" NAME="?ReadStringBinary@VStreamHelper@@SAPADPAVIVFileInStream@@@Z" PURGE="0" COMMENT="" />
    <EXPORT ORDINAL="2559" NAME="?ReadStringBinary@VStreamHelper@@SAPADPAVIVFileInStream@@PADHAA_N@Z" PURGE="0" COMMENT="" />
    <EXPORT ORDINAL="2560" NAME="?ReadText@TiXmlBase@@KAPBDPBDPAVTiXmlString@@_N02W4TiXmlEncoding@@@Z" PURGE="0" COMMENT="" />
    <EXPORT ORDINAL="2561" NAME="?ReadValue@TiXmlElement@@IAEPBDPBDPAVTiXmlParsingData@@W4TiXmlEncoding@@@Z" PURGE="12" COMMENT="" />
    <EXPORT ORDINAL="2562" NAME="?Realloc@VSmallBlockMemoryManager@@UAEPAXPAXIHPBDH@Z" PURGE="20" COMMENT="" />
    <EXPORT ORDINAL="2563" NAME="?RecursiveMakeDir@@YAJPBD@Z" PURGE="0" COMMENT="" />
    <EXPORT ORDINAL="2564" NAME="?Recv@VConnection@@QAE_NPAVVMessage@@@Z" PURGE="4" COMMENT="" />
    <EXPORT ORDINAL="2565" NAME="?Redo@VAction@@UAEHXZ" PURGE="0" COMMENT="" />
    <EXPORT ORDINAL="2566" NAME="?Redo@VUndoRedoStack@@QAEHXZ" PURGE="0" COMMENT="" />
    <EXPORT ORDINAL="2567" NAME="?ReduceInnerQuotes@VArgList@@SAHAAVVString@@@Z" PURGE="0" COMMENT="" />
    <EXPORT ORDINAL="2568" NAME="?Refresh@VHashString@@QAEXXZ" PURGE="0" COMMENT="" />
    <EXPORT ORDINAL="2569" NAME="?RegisterCallback@VCallback@@QAEHPAVIVisCallbackHandler_cl@@@Z" PURGE="4" COMMENT="" />
    <EXPORT ORDINAL="2570" NAME="?RegisterCloseCallback@VArchive@@QAEXP6AXAAV1@@Z@Z" PURGE="4" COMMENT="" />
    <EXPORT ORDINAL="2571" NAME="?RegisterCommandType@VModule@@QAEXPAUVCommandType@@@Z" PURGE="4" COMMENT="" />
    <EXPORT ORDINAL="2572" NAME="?RegisterEnum@VShaderEnum@@QAEXPBDI@Z" PURGE="8" COMMENT="" />
    <EXPORT ORDINAL="2573" NAME="?RegisterFunction@VCallbackList@@QAE_NPBDPAX@Z" PURGE="8" COMMENT="" />
    <EXPORT ORDINAL="2574" NAME="?RegisterKlass@VModule@@QAEXPAUVType@@@Z" PURGE="4" COMMENT="" />
    <EXPORT ORDINAL="2575" NAME="?RegisterModule@VActionManager@@QAEHPAUVModule@@@Z" PURGE="4" COMMENT="" />
    <EXPORT ORDINAL="2576" NAME="?RegisterModule@VCommandManager@@QAEHPAUVModule@@@Z" PURGE="4" COMMENT="" />
    <EXPORT ORDINAL="2577" NAME="?RegisterModule@VTypeManager@@QAEHPAUVModule@@@Z" PURGE="4" COMMENT="" />
    <EXPORT ORDINAL="2578" NAME="?RegisterParamName@VShaderParam@@SAHPBD@Z" PURGE="0" COMMENT="" />
    <EXPORT ORDINAL="2579" NAME="?RegisterScriptAction@VModule@@QAEXPAUVActionType@@@Z" PURGE="4" COMMENT="" />
    <EXPORT ORDINAL="2580" NAME="?RegisterShader@VCompiledShaderManager@@QAEPAVVCompiledShaderPass@@PAV2@_N1@Z" PURGE="12" COMMENT="" />
    <EXPORT ORDINAL="2581" NAME="?RegisterTag@VTechniqueConfig@@SAHPBD@Z" PURGE="0" COMMENT="" />
    <EXPORT ORDINAL="2582" NAME="?RegisterTest@VTestUnit@@QAEXPAVVTestClass@@@Z" PURGE="4" COMMENT="" />
    <EXPORT ORDINAL="2583" NAME="?RegisterTestsFromModule@VTestUnit@@QAEHAAVVTypeManager@@PAUVType@@@Z" PURGE="8" COMMENT="" />
    <EXPORT ORDINAL="2584" NAME="?RegisterWindowClass@VVideo@@KA_NXZ" PURGE="0" COMMENT="" />
    <EXPORT ORDINAL="2585" NAME="?RegisterWindowClass@VisionWindowA@@UAEHXZ" PURGE="0" COMMENT="" />
    <EXPORT ORDINAL="2586" NAME="?RegisterWindowClass@VisionWindowW@@UAEHXZ" PURGE="0" COMMENT="" />
    <EXPORT ORDINAL="2587" NAME="?Release@VCompiledShaderPass@@QAEXXZ" PURGE="0" COMMENT="" />
    <EXPORT ORDINAL="2588" NAME="?Release@VCompiledTechnique@@QAEXXZ" PURGE="0" COMMENT="" />
    <EXPORT ORDINAL="2589" NAME="?Release@VManagedResource@@QAEXXZ" PURGE="0" COMMENT="" />
    <EXPORT ORDINAL="2590" NAME="?Release@VRefTarget@@QAEXXZ" PURGE="0" COMMENT="" />
    <EXPORT ORDINAL="2591" NAME="?ReleaseAll@VSurfaceFXConfig@@QAEXXZ" PURGE="0" COMMENT="" />
    <EXPORT ORDINAL="2592" NAME="?ReleaseDeviceHandle@VTextureObject@@QAEXXZ" PURGE="0" COMMENT="" />
    <EXPORT ORDINAL="2593" NAME="?ReleaseFrames@TextureAnimInfo_t@@QAEXXZ" PURGE="0" COMMENT="" />
    <EXPORT ORDINAL="2594" NAME="?ReleaseSecondaryScreenBackBuffer@VVideo@@SAXAAVVVideoConfig@@H@Z" PURGE="0" COMMENT="" />
    <EXPORT ORDINAL="2595" NAME="?Reload@VShaderEffectLib@@MAEHXZ" PURGE="0" COMMENT="" />
    <EXPORT ORDINAL="2596" NAME="?Reload@VTexture3DObject@@MAEHXZ" PURGE="0" COMMENT="" />
    <EXPORT ORDINAL="2597" NAME="?Reload@VTextureCubeObject@@MAEHXZ" PURGE="0" COMMENT="" />
    <EXPORT ORDINAL="2598" NAME="?Reload@VTextureObject@@MAEHXZ" PURGE="0" COMMENT="" />
    <EXPORT ORDINAL="2599" NAME="?ReloadModifiedResourceFiles@VResourceManager@@QAEIPAVIVFileStreamManager@@HH@Z" PURGE="12" COMMENT="" />
    <EXPORT ORDINAL="2600" NAME="?ReloadSingleResource@VResourceManager@@MAEHPAVVManagedResource@@@Z" PURGE="4" COMMENT="" />
    <EXPORT ORDINAL="2601" NAME="?Remove@TiXmlAttributeSet@@QAEXPAVTiXmlAttribute@@@Z" PURGE="4" COMMENT="" />
    <EXPORT ORDINAL="2602" NAME="?Remove@VActionList@@QAEXPAVVAction@@@Z" PURGE="4" COMMENT="" />
    <EXPORT ORDINAL="2603" NAME="?Remove@VModuleList@@QAEXPAUVModule@@@Z" PURGE="4" COMMENT="" />
    <EXPORT ORDINAL="2604" NAME="?Remove@VParamContainerList@@QAEXPAVVParamContainer@@@Z" PURGE="4" COMMENT="" />
    <EXPORT ORDINAL="2605" NAME="?Remove@VParamList@@QAEXPAVVParam@@@Z" PURGE="4" COMMENT="" />
    <EXPORT ORDINAL="2606" NAME="?Remove@VProfilingNode@@QAEX_N@Z" PURGE="4" COMMENT="" />
    <EXPORT ORDINAL="2607" NAME="?Remove@VResourceList@@QAEXPAVVManagedResource@@@Z" PURGE="4" COMMENT="" />
    <EXPORT ORDINAL="2608" NAME="?Remove@VSenderReceiverList@@QAEXPAVVSenderReceiver@@@Z" PURGE="4" COMMENT="" />
    <EXPORT ORDINAL="2609" NAME="?Remove@VStrList@@QAEXH@Z" PURGE="4" COMMENT="" />
    <EXPORT ORDINAL="2610" NAME="?Remove@VStringList@@QAEXPAVVString@@@Z" PURGE="4" COMMENT="" />
    <EXPORT ORDINAL="2611" NAME="?Remove@VSurfaceAssignmentList@@QAEXPAUSurfaceFXAssignment_t@@@Z" PURGE="4" COMMENT="" />
    <EXPORT ORDINAL="2612" NAME="?RemoveAll@VMapCPtrToCPtr@@QAEXXZ" PURGE="0" COMMENT="" />
    <EXPORT ORDINAL="2613" NAME="?RemoveAll@VMapCPtrToInt@@QAEXXZ" PURGE="0" COMMENT="" />
    <EXPORT ORDINAL="2614" NAME="?RemoveAll@VMapCPtrToPtr@@QAEXXZ" PURGE="0" COMMENT="" />
    <EXPORT ORDINAL="2615" NAME="?RemoveAll@VMapIntToInt@@QAEXXZ" PURGE="0" COMMENT="" />
    <EXPORT ORDINAL="2616" NAME="?RemoveAll@VMapIntToPtr@@QAEXXZ" PURGE="0" COMMENT="" />
    <EXPORT ORDINAL="2617" NAME="?RemoveAll@VMapPtrToInt@@QAEXXZ" PURGE="0" COMMENT="" />
    <EXPORT ORDINAL="2618" NAME="?RemoveAll@VMapPtrToPtr@@QAEXXZ" PURGE="0" COMMENT="" />
    <EXPORT ORDINAL="2619" NAME="?RemoveAll@VMapPtrToUInt@@QAEXXZ" PURGE="0" COMMENT="" />
    <EXPORT ORDINAL="2620" NAME="?RemoveAll@VMapStrToPtr@@QAEXXZ" PURGE="0" COMMENT="" />
    <EXPORT ORDINAL="2621" NAME="?RemoveAllChildren@VProfilingNode@@QAEXXZ" PURGE="0" COMMENT="" />
    <EXPORT ORDINAL="2622" NAME="?RemoveAllPlatformHandler@vPlatformManager@@SAXXZ" PURGE="0" COMMENT="" />
    <EXPORT ORDINAL="2623" NAME="?RemoveAt@VCallback@@AAEHH@Z" PURGE="4" COMMENT="" />
    <EXPORT ORDINAL="2624" NAME="?RemoveAt@VPList@@QAEXH@Z" PURGE="4" COMMENT="" />
    <EXPORT ORDINAL="2625" NAME="?RemoveAt@VString@@QAEXH@Z" PURGE="4" COMMENT="" />
    <EXPORT ORDINAL="2626" NAME="?RemoveAt@VUniString@@QAEXH@Z" PURGE="4" COMMENT="" />
    <EXPORT ORDINAL="2627" NAME="?RemoveAttribute@TiXmlElement@@QAEXPBD@Z" PURGE="4" COMMENT="" />
    <EXPORT ORDINAL="2628" NAME="?RemoveChild@TiXmlNode@@QAE_NPAV1@@Z" PURGE="4" COMMENT="" />
    <EXPORT ORDINAL="2629" NAME="?RemoveChild@VProfilingNode@@QAEXPAV1@@Z" PURGE="4" COMMENT="" />
    <EXPORT ORDINAL="2630" NAME="?RemoveColorMap@Image_cl@@QAEJJ@Z" PURGE="4" COMMENT="" />
    <EXPORT ORDINAL="2631" NAME="?RemoveEffectResourceReference@VCompiledEffect@@QAEXXZ" PURGE="0" COMMENT="" />
    <EXPORT ORDINAL="2632" NAME="?RemoveFlagged@VPList@@QAEXXZ" PURGE="0" COMMENT="" />
    <EXPORT ORDINAL="2633" NAME="?RemoveHeightMap@Image_cl@@QAEJJ@Z" PURGE="4" COMMENT="" />
    <EXPORT ORDINAL="2634" NAME="?RemoveKey@VMapCPtrToCPtr@@QAEHPBX@Z" PURGE="4" COMMENT="" />
    <EXPORT ORDINAL="2635" NAME="?RemoveKey@VMapCPtrToInt@@QAEHPBX@Z" PURGE="4" COMMENT="" />
    <EXPORT ORDINAL="2636" NAME="?RemoveKey@VMapCPtrToPtr@@QAEHPBX@Z" PURGE="4" COMMENT="" />
    <EXPORT ORDINAL="2637" NAME="?RemoveKey@VMapIntToInt@@QAEHH@Z" PURGE="4" COMMENT="" />
    <EXPORT ORDINAL="2638" NAME="?RemoveKey@VMapIntToPtr@@QAEHH@Z" PURGE="4" COMMENT="" />
    <EXPORT ORDINAL="2639" NAME="?RemoveKey@VMapPtrToInt@@QAEHPAX@Z" PURGE="4" COMMENT="" />
    <EXPORT ORDINAL="2640" NAME="?RemoveKey@VMapPtrToPtr@@QAEHPAX@Z" PURGE="4" COMMENT="" />
    <EXPORT ORDINAL="2641" NAME="?RemoveKey@VMapPtrToUInt@@QAEHPAX@Z" PURGE="4" COMMENT="" />
    <EXPORT ORDINAL="2642" NAME="?RemoveKey@VMapStrToPtr@@QAEHPBD@Z" PURGE="4" COMMENT="" />
    <EXPORT ORDINAL="2643" NAME="?RemoveManagerFlag@VResourceManager@@QAEXH@Z" PURGE="4" COMMENT="" />
    <EXPORT ORDINAL="2644" NAME="?RemoveOpacityMap@Image_cl@@QAEJJ@Z" PURGE="4" COMMENT="" />
    <EXPORT ORDINAL="2645" NAME="?RemovePointerAt@VPointerArrayHelpers@@SAXPAPAXAAHH@Z" PURGE="0" COMMENT="" />
    <EXPORT ORDINAL="2646" NAME="?RemoveReceiver@VBroadcaster@@EAEXPAVVSenderReceiver@@@Z" PURGE="4" COMMENT="" />
    <EXPORT ORDINAL="2647" NAME="?RemoveResource@VResourceManager@@QAEXPAVVManagedResource@@@Z" PURGE="4" COMMENT="" />
    <EXPORT ORDINAL="2648" NAME="?RemoveSnapshot@VResourceSnapshotQueue@@QAEXPAVVResourceSnapshot@@@Z" PURGE="4" COMMENT="" />
    <EXPORT ORDINAL="2649" NAME="?RemoveValue@VMapStrToPtr@@QAEHPAX@Z" PURGE="4" COMMENT="" />
    <EXPORT ORDINAL="2650" NAME="?Render@VLightGridDetailBox_cl@@QAEXPAVIVRenderInterface@@UVColorRef@@ABUVSimpleRenderState_t@@PBVVLightGrid_cl@@H@Z" PURGE="20" COMMENT="" />
    <EXPORT ORDINAL="2651" NAME="?Render@VSimpleCollisionMeshBase@@QBEXPAVIVRenderInterface@@UVColorRef@@@Z" PURGE="8" COMMENT="" />
    <EXPORT ORDINAL="2652" NAME="?Render@VSimpleCollisionMeshBase@@QBEXPAVIVRenderInterface@@UVColorRef@@ABUVSimpleRenderState_t@@HPBVVMatrix4f@@@Z" PURGE="20" COMMENT="" />
    <EXPORT ORDINAL="2653" NAME="?Render@VTriangle@@QBEXPAVIVRenderInterface@@UVColorRef@@ABUVSimpleRenderState_t@@HPBVVMatrix4f@@@Z" PURGE="20" COMMENT="" />
    <EXPORT ORDINAL="2654" NAME="?RenderAABox@IVRenderInterface@@QAEXABVVBBoxf@@UVColorRef@@ABUVSimpleRenderState_t@@H@Z" PURGE="16" COMMENT="" />
    <EXPORT ORDINAL="2655" NAME="?RenderAtPosition@VLightGrid_cl@@QAEXPAVIVRenderInterface@@ABVVVertex3f@@MM@Z" PURGE="16" COMMENT="" />
    <EXPORT ORDINAL="2656" NAME="?RenderBox@IVRenderInterface@@QAEXPBVVVertex3f@@HUVColorRef@@ABUVSimpleRenderState_t@@H@Z" PURGE="20" COMMENT="" />
    <EXPORT ORDINAL="2657" NAME="?RenderCone@IVRenderInterface@@QAEXABVVVertex3f@@0MMUVColorRef@@ABUVSimpleRenderState_t@@HH@Z" PURGE="32" COMMENT="" />
    <EXPORT ORDINAL="2658" NAME="?RenderCylinder@IVRenderInterface@@QAEXABVVVertex3f@@0MUVColorRef@@ABUVSimpleRenderState_t@@HHH@Z" PURGE="32" COMMENT="" />
    <EXPORT ORDINAL="2659" NAME="?RenderFrustum@IVRenderInterface@@QAEXABVVVertex3f@@00MMMMUVColorRef@@ABUVSimpleRenderState_t@@H@Z" PURGE="40" COMMENT="" />
    <EXPORT ORDINAL="2660" NAME="?RenderGrid@VLightGrid_cl@@QAEXPAVIVRenderInterface@@ABVVBBoxf@@H@Z" PURGE="12" COMMENT="" />
    <EXPORT ORDINAL="2661" NAME="?RenderGrid@VLightGrid_cl@@QAEXPAVIVRenderInterface@@H@Z" PURGE="8" COMMENT="" />
    <EXPORT ORDINAL="2662" NAME="?RenderPlane@IVRenderInterface@@QAEXABVVPlane4f@@ABVVVertex3f@@MMUVColorRef@@ABUVSimpleRenderState_t@@HH@Z" PURGE="32" COMMENT="" />
    <EXPORT ORDINAL="2663" NAME="?RenderPlane@IVRenderInterface@@QAEXABVVPlane4f@@ABVVVertex3f@@MUVColorRef@@ABUVSimpleRenderState_t@@HH@Z" PURGE="28" COMMENT="" />
    <EXPORT ORDINAL="2664" NAME="?RenderPlane@IVRenderInterface@@QAEXABVVVertex3f@@00UVColorRef@@ABUVSimpleRenderState_t@@HH@Z" PURGE="28" COMMENT="" />
    <EXPORT ORDINAL="2665" NAME="?RenderSphere@IVRenderInterface@@QAEXABVVVertex3f@@MUVColorRef@@ABUVSimpleRenderState_t@@HHH@Z" PURGE="28" COMMENT="" />
    <EXPORT ORDINAL="2666" NAME="?ReorderDXT1Morton@VCompressionHelper@@YAXPAK0HH@Z" PURGE="0" COMMENT="" />
    <EXPORT ORDINAL="2667" NAME="?ReorderDXT3Morton@VCompressionHelper@@YAXPAK0HH@Z" PURGE="0" COMMENT="" />
    <EXPORT ORDINAL="2668" NAME="?ReorderDXT5Morton@VCompressionHelper@@YAXPAK0HH@Z" PURGE="0" COMMENT="" />
    <EXPORT ORDINAL="2669" NAME="?ReorderRGBAMorton@VCompressionHelper@@YAXPAK0HH@Z" PURGE="0" COMMENT="" />
    <EXPORT ORDINAL="2670" NAME="?Replace@VString@@QAEXPBD0@Z" PURGE="8" COMMENT="" />
    <EXPORT ORDINAL="2671" NAME="?ReplaceAll@VString@@QAEXPBD0@Z" PURGE="8" COMMENT="" />
    <EXPORT ORDINAL="2672" NAME="?ReplaceChild@TiXmlNode@@QAEPAV1@PAV1@ABV1@@Z" PURGE="8" COMMENT="" />
    <EXPORT ORDINAL="2673" NAME="?ReplaceColorMap@Image_cl@@QAEJJJJW4ColorDepth_e@@PAE@Z" PURGE="20" COMMENT="" />
    <EXPORT ORDINAL="2674" NAME="?ReplaceColorMap@Image_cl@@QAEJJVImageMap_cl@@@Z" PURGE="20" COMMENT="" />
    <EXPORT ORDINAL="2675" NAME="?ReplaceExtension@VPathHelper@@SAPADPBD0@Z" PURGE="0" COMMENT="" />
    <EXPORT ORDINAL="2676" NAME="?ReplaceHeightMap@Image_cl@@QAEJJJJW4ColorDepth_e@@PAE@Z" PURGE="20" COMMENT="" />
    <EXPORT ORDINAL="2677" NAME="?ReplaceHeightMap@Image_cl@@QAEJJVImageMap_cl@@@Z" PURGE="20" COMMENT="" />
    <EXPORT ORDINAL="2678" NAME="?ReplaceOpacityMap@Image_cl@@QAEJJJJW4ColorDepth_e@@PAE@Z" PURGE="20" COMMENT="" />
    <EXPORT ORDINAL="2679" NAME="?ReplaceOpacityMap@Image_cl@@QAEJJVImageMap_cl@@@Z" PURGE="20" COMMENT="" />
    <EXPORT ORDINAL="2680" NAME="?ReserveProfilingIDs@VProfilingNode@@SAXHH@Z" PURGE="0" COMMENT="" />
    <EXPORT ORDINAL="2681" NAME="?Reset@IVInputDevice@@UAEXXZ" PURGE="0" COMMENT="" />
    <EXPORT ORDINAL="2682" NAME="?Reset@VBBox@@QAEXXZ" PURGE="0" COMMENT="" />
    <EXPORT ORDINAL="2683" NAME="?Reset@VCompositeParam@@QAEXXZ" PURGE="0" COMMENT="" />
    <EXPORT ORDINAL="2684" NAME="?Reset@VGUID@@QAEXXZ" PURGE="0" COMMENT="" />
    <EXPORT ORDINAL="2685" NAME="?Reset@VGamepadPC@@UAEXXZ" PURGE="0" COMMENT="" />
    <EXPORT ORDINAL="2686" NAME="?Reset@VGamepadXI@@UAEXXZ" PURGE="0" COMMENT="" />
    <EXPORT ORDINAL="2687" NAME="?Reset@VInputDeviceManagerPC@@SAXXZ" PURGE="0" COMMENT="" />
    <EXPORT ORDINAL="2688" NAME="?Reset@VKeyboardPC@@UAEXXZ" PURGE="0" COMMENT="" />
    <EXPORT ORDINAL="2689" NAME="?Reset@VMapCPtrToCPtr@@QAEXXZ" PURGE="0" COMMENT="" />
    <EXPORT ORDINAL="2690" NAME="?Reset@VMapCPtrToInt@@QAEXXZ" PURGE="0" COMMENT="" />
    <EXPORT ORDINAL="2691" NAME="?Reset@VMapCPtrToPtr@@QAEXXZ" PURGE="0" COMMENT="" />
    <EXPORT ORDINAL="2692" NAME="?Reset@VMapIntToInt@@QAEXXZ" PURGE="0" COMMENT="" />
    <EXPORT ORDINAL="2693" NAME="?Reset@VMapIntToPtr@@QAEXXZ" PURGE="0" COMMENT="" />
    <EXPORT ORDINAL="2694" NAME="?Reset@VMapPtrToInt@@QAEXXZ" PURGE="0" COMMENT="" />
    <EXPORT ORDINAL="2695" NAME="?Reset@VMapPtrToPtr@@QAEXXZ" PURGE="0" COMMENT="" />
    <EXPORT ORDINAL="2696" NAME="?Reset@VMapPtrToUInt@@QAEXXZ" PURGE="0" COMMENT="" />
    <EXPORT ORDINAL="2697" NAME="?Reset@VModuleInfoList@@QAEXXZ" PURGE="0" COMMENT="" />
    <EXPORT ORDINAL="2698" NAME="?Reset@VMousePC@@UAEXXZ" PURGE="0" COMMENT="" />
    <EXPORT ORDINAL="2699" NAME="?Reset@VParam@@QAEXXZ" PURGE="0" COMMENT="" />
    <EXPORT ORDINAL="2700" NAME="?Reset@VParamArray@@QAEXXZ" PURGE="0" COMMENT="" />
    <EXPORT ORDINAL="2701" NAME="?Reset@VParamBlock@@QAEXXZ" PURGE="0" COMMENT="" />
    <EXPORT ORDINAL="2702" NAME="?Reset@VParamDesc@@AAEXXZ" PURGE="0" COMMENT="" />
    <EXPORT ORDINAL="2703" NAME="?Reset@VProgressStatus@@QAEXXZ" PURGE="0" COMMENT="" />
    <EXPORT ORDINAL="2704" NAME="?Reset@VReport@@QAEXXZ" PURGE="0" COMMENT="" />
    <EXPORT ORDINAL="2705" NAME="?Reset@VResourceSnapshot@@QAEXXZ" PURGE="0" COMMENT="" />
    <EXPORT ORDINAL="2706" NAME="?Reset@VResourceSnapshotEntry@@UAEXXZ" PURGE="0" COMMENT="" />
    <EXPORT ORDINAL="2707" NAME="?Reset@VResourceSnapshotEntryXML@@UAEXXZ" PURGE="0" COMMENT="" />
    <EXPORT ORDINAL="2708" NAME="?Reset@VShaderEffectLib@@QAEXXZ" PURGE="0" COMMENT="" />
    <EXPORT ORDINAL="2709" NAME="?Reset@VStrList@@QAEXXZ" PURGE="0" COMMENT="" />
    <EXPORT ORDINAL="2710" NAME="?Reset@VString@@QAEXXZ" PURGE="0" COMMENT="" />
    <EXPORT ORDINAL="2711" NAME="?Reset@VStringTokenizerInPlace@@QAEXXZ" PURGE="0" COMMENT="" />
    <EXPORT ORDINAL="2712" NAME="?Reset@VUndoRedoStack@@QAEXXZ" PURGE="0" COMMENT="" />
    <EXPORT ORDINAL="2713" NAME="?Reset@VUniString@@QAEXXZ" PURGE="0" COMMENT="" />
    <EXPORT ORDINAL="2714" NAME="?ResetAll@VReportMessage@@QAEXXZ" PURGE="0" COMMENT="" />
    <EXPORT ORDINAL="2715" NAME="?ResetFilename@VManagedResource@@MAEXXZ" PURGE="0" COMMENT="" />
    <EXPORT ORDINAL="2716" NAME="?ResetGlobalScratchBuffer@VTextureManager@@QAEXXZ" PURGE="0" COMMENT="" />
    <EXPORT ORDINAL="2717" NAME="?ResetMaximum@VProfilingNode@@QAEXXZ" PURGE="0" COMMENT="" />
    <EXPORT ORDINAL="2718" NAME="?ResetParamList@VParamDesc@@AAEXXZ" PURGE="0" COMMENT="" />
    <EXPORT ORDINAL="2719" NAME="?ResetQueue@VCallbackSenderQueue@@QAEXXZ" PURGE="0" COMMENT="" />
    <EXPORT ORDINAL="2720" NAME="?ResetReadPointer@VMessage@@QAEXXZ" PURGE="0" COMMENT="" />
    <EXPORT ORDINAL="2721" NAME="?ResetScreen@VVideo@@SA_NABVVVideoConfig@@@Z" PURGE="0" COMMENT="" />
    <EXPORT ORDINAL="2722" NAME="?ResetStatistics@VTestClass@@QAEXXZ" PURGE="0" COMMENT="" />
    <EXPORT ORDINAL="2723" NAME="?ResetStatistics@VTestUnit@@QAEXXZ" PURGE="0" COMMENT="" />
    <EXPORT ORDINAL="2724" NAME="?ResetStatus@VStreamProcessingTask@@QAEXXZ" PURGE="0" COMMENT="" />
    <EXPORT ORDINAL="2725" NAME="?ResetStatus@VStreamProcessingWorkflow@@QAEXXZ" PURGE="0" COMMENT="" />
    <EXPORT ORDINAL="2726" NAME="?ResetStreams@VStreamProcessingTask@@QAEXXZ" PURGE="0" COMMENT="" />
    <EXPORT ORDINAL="2727" NAME="?ResetTasks@VStreamProcessingWorkflow@@QAEXXZ" PURGE="0" COMMENT="" />
    <EXPORT ORDINAL="2728" NAME="?ResetVReport@VReportMessage@@QAEXXZ" PURGE="0" COMMENT="" />
    <EXPORT ORDINAL="2729" NAME="?ResetVReportMessage@VReportMessage@@QAEXXZ" PURGE="0" COMMENT="" />
    <EXPORT ORDINAL="2730" NAME="?Resize@VSimpleCollisionMesh32@@UAEXHH@Z" PURGE="8" COMMENT="" />
    <EXPORT ORDINAL="2731" NAME="?Resize@VSimpleCollisionMesh@@UAEXHH@Z" PURGE="8" COMMENT="" />
    <EXPORT ORDINAL="2732" NAME="?ResolveFilename@VResourceSnapshot@@UAEPBDPBDPAD@Z" PURGE="8" COMMENT="" />
    <EXPORT ORDINAL="2733" NAME="?ResolvePath@IVFilePathResolver@@UAEPBDPBDPAD@Z" PURGE="8" COMMENT="" />
    <EXPORT ORDINAL="2734" NAME="?ResolvePath@VPathHelper@@SAXPADPBD@Z" PURGE="0" COMMENT="" />
    <EXPORT ORDINAL="2735" NAME="?ResourceMemSizeChangedNotify@VResourceManager@@QAEXPAVVManagedResource@@HHHH@Z" PURGE="20" COMMENT="" />
    <EXPORT ORDINAL="2736" NAME="?ResourcePriorityCompare@VResourceSnapshot@@KAHPBX0@Z" PURGE="0" COMMENT="" />
    <EXPORT ORDINAL="2737" NAME="?RestoreGamma@VVideo@@QAE_NI@Z" PURGE="4" COMMENT="" />
    <EXPORT ORDINAL="2738" NAME="?RestoreScreen@VVideo@@SA_NH@Z" PURGE="0" COMMENT="" />
    <EXPORT ORDINAL="2739" NAME="?Reverse@VPList@@QAEXXZ" PURGE="0" COMMENT="" />
    <EXPORT ORDINAL="2740" NAME="?ReverseState@VTestUnit@@QAEXH@Z" PURGE="4" COMMENT="" />
    <EXPORT ORDINAL="2741" NAME="?ReverseSubtestState@VTestClass@@QAEXXZ" PURGE="0" COMMENT="" />
    <EXPORT ORDINAL="2742" NAME="?RmDir@VFileHelper@@SA_NPBD@Z" PURGE="0" COMMENT="" />
    <EXPORT ORDINAL="2743" NAME="?Root@VProfilingNode@@SAAAV1@XZ" PURGE="0" COMMENT="" />
    <EXPORT ORDINAL="2744" NAME="?RootElement@TiXmlDocument@@QAEPAVTiXmlElement@@XZ" PURGE="0" COMMENT="" />
    <EXPORT ORDINAL="2745" NAME="?RootElement@TiXmlDocument@@QBEPBVTiXmlElement@@XZ" PURGE="0" COMMENT="" />
    <EXPORT ORDINAL="2746" NAME="?RotXMat@VMatrix4d@@SA?AV1@M@Z" PURGE="0" COMMENT="" />
    <EXPORT ORDINAL="2747" NAME="?RotXMat@VMatrix4f@@SA?AV1@M@Z" PURGE="0" COMMENT="" />
    <EXPORT ORDINAL="2748" NAME="?RotYMat@VMatrix4d@@SA?AV1@M@Z" PURGE="0" COMMENT="" />
    <EXPORT ORDINAL="2749" NAME="?RotYMat@VMatrix4f@@SA?AV1@M@Z" PURGE="0" COMMENT="" />
    <EXPORT ORDINAL="2750" NAME="?RotZMat@VMatrix4d@@SA?AV1@M@Z" PURGE="0" COMMENT="" />
    <EXPORT ORDINAL="2751" NAME="?RotZMat@VMatrix4f@@SA?AV1@M@Z" PURGE="0" COMMENT="" />
    <EXPORT ORDINAL="2752" NAME="?Rotate@VMatrix4d@@QAEXABVVVertex3d@@M@Z" PURGE="8" COMMENT="" />
    <EXPORT ORDINAL="2753" NAME="?Rotate@VMatrix4f@@QAEXABVVVertex3f@@M@Z" PURGE="8" COMMENT="" />
    <EXPORT ORDINAL="2754" NAME="?RotateX@VMatrix4d@@QAEXM@Z" PURGE="4" COMMENT="" />
    <EXPORT ORDINAL="2755" NAME="?RotateX@VMatrix4f@@QAEXM@Z" PURGE="4" COMMENT="" />
    <EXPORT ORDINAL="2756" NAME="?RotateY@VMatrix4d@@QAEXM@Z" PURGE="4" COMMENT="" />
    <EXPORT ORDINAL="2757" NAME="?RotateY@VMatrix4f@@QAEXM@Z" PURGE="4" COMMENT="" />
    <EXPORT ORDINAL="2758" NAME="?RotateZ@VMatrix4d@@QAEXM@Z" PURGE="4" COMMENT="" />
    <EXPORT ORDINAL="2759" NAME="?RotateZ@VMatrix4f@@QAEXM@Z" PURGE="4" COMMENT="" />
    <EXPORT ORDINAL="2760" NAME="?Row@TiXmlBase@@QBEHXZ" PURGE="0" COMMENT="" />
    <EXPORT ORDINAL="2761" NAME="?Rumble@IVJoypad@@UAEXGG@Z" PURGE="8" COMMENT="" />
    <EXPORT ORDINAL="2762" NAME="?Rumble@VGamepadPC@@UAEXGG@Z" PURGE="8" COMMENT="" />
    <EXPORT ORDINAL="2763" NAME="?Rumble@VGamepadXI@@UAEXGG@Z" PURGE="8" COMMENT="" />
    <EXPORT ORDINAL="2764" NAME="?RunAll@VTestUnit@@QAEHXZ" PURGE="0" COMMENT="" />
    <EXPORT ORDINAL="2765" NAME="?RunMessagePump@VisionWindowA@@UAEHXZ" PURGE="0" COMMENT="" />
    <EXPORT ORDINAL="2766" NAME="?RunMessagePump@VisionWindowW@@UAEHXZ" PURGE="0" COMMENT="" />
    <EXPORT ORDINAL="2767" NAME="?RunVisitor@VLightGridNodeIterator_cl@@QAE_NAAVIVLightGridVisitor@@ABVVBBoxf@@M@Z" PURGE="12" COMMENT="" />
    <EXPORT ORDINAL="2768" NAME="?RunVisitor@VLightGrid_cl@@QAE_NAAVIVLightGridVisitor@@@Z" PURGE="4" COMMENT="" />
    <EXPORT ORDINAL="2769" NAME="?SVDebugClose@@YAXXZ" PURGE="0" COMMENT="" />
    <EXPORT ORDINAL="2770" NAME="?SVDebugFlush@@YAXXZ" PURGE="0" COMMENT="" />
    <EXPORT ORDINAL="2771" NAME="?SVDebugOpen@@YAXPBDK@Z" PURGE="0" COMMENT="" />
    <EXPORT ORDINAL="2772" NAME="?SVDebugPrint@@YAXPBDZZ" PURGE="0" COMMENT="" />
    <EXPORT ORDINAL="2773" NAME="?SVFree@@YAXPAX@Z" PURGE="0" COMMENT="" />
    <EXPORT ORDINAL="2774" NAME="?SafeCompare@VStringHelper@@SAHPBD0_N@Z" PURGE="0" COMMENT="" />
    <EXPORT ORDINAL="2775" NAME="?Save8BitPalettedDDS@Image_cl@@QAEJPAVIVFileOutStream@@_N@Z" PURGE="8" COMMENT="" />
    <EXPORT ORDINAL="2776" NAME="?Save8BitPalettedTGA@Image_cl@@QAEJPAVIVFileOutStream@@_N@Z" PURGE="8" COMMENT="" />
    <EXPORT ORDINAL="2777" NAME="?SaveAsThumbnail@IVResourcePreview@@UAEHXZ" PURGE="0" COMMENT="" />
    <EXPORT ORDINAL="2778" NAME="?SaveBMP@Image_cl@@QAEJPAVIVFileOutStream@@@Z" PURGE="4" COMMENT="" />
    <EXPORT ORDINAL="2779" NAME="?SaveComparisionBitmap@VImageComparison@@IAEHPBD@Z" PURGE="4" COMMENT="" />
    <EXPORT ORDINAL="2780" NAME="?SaveDEM@Image_cl@@QAEJPBD@Z" PURGE="4" COMMENT="" />
    <EXPORT ORDINAL="2781" NAME="?SaveFile@TiXmlDocument@@QBE_NPAVIVFileOutStream@@@Z" PURGE="4" COMMENT="" />
    <EXPORT ORDINAL="2782" NAME="?SaveFile@TiXmlDocument@@QBE_NPAVIVFileStreamManager@@@Z" PURGE="4" COMMENT="" />
    <EXPORT ORDINAL="2783" NAME="?SaveFile@TiXmlDocument@@QBE_NPBDPAVIVFileStreamManager@@@Z" PURGE="8" COMMENT="" />
    <EXPORT ORDINAL="2784" NAME="?SaveGamma@VVideo@@QAE_NI@Z" PURGE="4" COMMENT="" />
    <EXPORT ORDINAL="2785" NAME="?SaveJPEG@Image_cl@@QAEJPAVIVFileOutStream@@H@Z" PURGE="8" COMMENT="" />
    <EXPORT ORDINAL="2786" NAME="?SaveMeshFile@VLightmapSceneInfo@@QAE_NPBDPAVIVFileStreamManager@@@Z" PURGE="8" COMMENT="" />
    <EXPORT ORDINAL="2787" NAME="?SaveOutputFile@VLightmapSceneInfo@@QAE_NPBDPAVIVFileStreamManager@@@Z" PURGE="8" COMMENT="" />
    <EXPORT ORDINAL="2788" NAME="?SavePlatformBinary@VShaderEffectLib@@QAE_NW4VTargetPlatform@@@Z" PURGE="4" COMMENT="" />
    <EXPORT ORDINAL="2789" NAME="?SaveReport@VReportMessage@@QAEHPBD0HPAVIVFileStreamManager@@@Z" PURGE="16" COMMENT="" />
    <EXPORT ORDINAL="2790" NAME="?SaveSettings@VTestUnit@@QBEHPBD@Z" PURGE="4" COMMENT="" />
    <EXPORT ORDINAL="2791" NAME="?SaveSourceBitmap@VImageComparison@@QAEHPBD@Z" PURGE="4" COMMENT="" />
    <EXPORT ORDINAL="2792" NAME="?SaveSplittedTEX@Image_cl@@QAEJPBDPADHHPAVIVFileStreamManager@@@Z" PURGE="20" COMMENT="" />
    <EXPORT ORDINAL="2793" NAME="?SaveTEX@Image_cl@@QAEJPAVIVFileOutStream@@@Z" PURGE="4" COMMENT="" />
    <EXPORT ORDINAL="2794" NAME="?SaveTEX@Image_cl@@QAEJPAVIVFileOutStream@@HHHH@Z" PURGE="20" COMMENT="" />
    <EXPORT ORDINAL="2795" NAME="?SaveTGA@Image_cl@@QAEJPAVIVFileOutStream@@@Z" PURGE="4" COMMENT="" />
    <EXPORT ORDINAL="2796" NAME="?SaveTargetBitmap@VImageComparison@@QAEHPBD@Z" PURGE="4" COMMENT="" />
    <EXPORT ORDINAL="2797" NAME="?SaveTests@VTestUnit@@QBEHPBD@Z" PURGE="4" COMMENT="" />
    <EXPORT ORDINAL="2798" NAME="?SaveToBinaryFile@VResourceSnapshot@@QAE_NPBDPAVIVFileStreamManager@@PAVIVFilePathResolver@@@Z" PURGE="12" COMMENT="" />
    <EXPORT ORDINAL="2799" NAME="?SaveToFile@VLightGrid_cl@@QAEHPBDPAVIVFileStreamManager@@@Z" PURGE="8" COMMENT="" />
    <EXPORT ORDINAL="2800" NAME="?SaveToFile@VResourceSnapshot@@QAE_NPBDPAVIVFileStreamManager@@PAVIVFilePathResolver@@@Z" PURGE="12" COMMENT="" />
    <EXPORT ORDINAL="2801" NAME="?SaveToFile@VShaderEffectLib@@QAE_NPBDW4VsfLoadSaveFlags_e@@PAVIVLog@@PAVVProgressStatus@@H@Z" PURGE="20" COMMENT="" />
    <EXPORT ORDINAL="2802" NAME="?SaveToFile@VSurfaceFXConfig@@QAEHPAVIVFileOutStream@@@Z" PURGE="4" COMMENT="" />
    <EXPORT ORDINAL="2803" NAME="?SaveToFile@VSurfaceFXConfig@@QAEHPBDPAVIVFileStreamManager@@@Z" PURGE="8" COMMENT="" />
    <EXPORT ORDINAL="2804" NAME="?SaveUncompressedDDS@Image_cl@@QAEJPAVIVFileOutStream@@@Z" PURGE="4" COMMENT="" />
    <EXPORT ORDINAL="2805" NAME="?Scale@Image_cl@@QAEJJJ@Z" PURGE="8" COMMENT="" />
    <EXPORT ORDINAL="2806" NAME="?Scale@VMatrix4d@@QAEXABVVVertex3d@@H@Z" PURGE="8" COMMENT="" />
    <EXPORT ORDINAL="2807" NAME="?Scale@VMatrix4d@@QAEXNNNH@Z" PURGE="28" COMMENT="" />
    <EXPORT ORDINAL="2808" NAME="?Scale@VMatrix4f@@QAEXABVVVertex3f@@H@Z" PURGE="8" COMMENT="" />
    <EXPORT ORDINAL="2809" NAME="?Scale@VMatrix4f@@QAEXMMMH@Z" PURGE="16" COMMENT="" />
    <EXPORT ORDINAL="2810" NAME="?ScaleHeightMapsTo16BPP@Image_cl@@QAEJXZ" PURGE="0" COMMENT="" />
    <EXPORT ORDINAL="2811" NAME="?ScalePower2@Image_cl@@QAEJW4ScalePower2_e@@@Z" PURGE="4" COMMENT="" />
    <EXPORT ORDINAL="2812" NAME="?Scan@VString@@IAE_NAAPAD0@Z" PURGE="8" COMMENT="" />
    <EXPORT ORDINAL="2813" NAME="?Scan@VUniString@@IAE_NAAPA_W0@Z" PURGE="8" COMMENT="" />
    <EXPORT ORDINAL="2814" NAME="?ScheduleLoadingTask@VLoadingTask@@QAEXXZ" PURGE="0" COMMENT="" />
    <EXPORT ORDINAL="2815" NAME="?ScheduleResources@VResourceSnapshot@@QAEXPAVIVResourceCreator@@PAVVMemoryStreamManager@@PAVIVFileStreamManager@@PAVIVLog@@@Z" PURGE="16" COMMENT="" />
    <EXPORT ORDINAL="2816" NAME="?ScheduleTask@VThreadManager@@QAE_NPAVVThreadedTask@@H@Z" PURGE="8" COMMENT="" />
    <EXPORT ORDINAL="2817" NAME="?Send@VBroadcaster@@UAEXHPAX@Z" PURGE="8" COMMENT="" />
    <EXPORT ORDINAL="2818" NAME="?Send@VConnection@@QAE_NPAVVMessage@@@Z" PURGE="4" COMMENT="" />
    <EXPORT ORDINAL="2819" NAME="?Send@VSenderReceiver@@UAEXHPAX@Z" PURGE="8" COMMENT="" />
    <EXPORT ORDINAL="2820" NAME="?Send@VSenderReceiver@@UAEXHPAXPAV1@@Z" PURGE="12" COMMENT="" />
    <EXPORT ORDINAL="2821" NAME="?SendAsync@VConnection@@QAE_NPAVVMessage@@@Z" PURGE="4" COMMENT="" />
    <EXPORT ORDINAL="2822" NAME="?SendClientHandshake@vPlatformStubDX11@@UAEHXZ" PURGE="0" COMMENT="" />
    <EXPORT ORDINAL="2823" NAME="?SendClientHandshake@vPlatformStubDX9@@UAEHXZ" PURGE="0" COMMENT="" />
    <EXPORT ORDINAL="2824" NAME="?SendClientHandshake@vPlatformStubGLES2@@UAEHXZ" PURGE="0" COMMENT="" />
    <EXPORT ORDINAL="2825" NAME="?SendClientHandshake@vPlatformStubLinux@@UAEHXZ" PURGE="0" COMMENT="" />
    <EXPORT ORDINAL="2826" NAME="?SendClientHandshake@vPlatformStubPS3@@UAEHXZ" PURGE="0" COMMENT="" />
    <EXPORT ORDINAL="2827" NAME="?SendClientHandshake@vPlatformStubPSP2@@UAEHXZ" PURGE="0" COMMENT="" />
    <EXPORT ORDINAL="2828" NAME="?SendClientHandshake@vPlatformStubWii@@UAEHXZ" PURGE="0" COMMENT="" />
    <EXPORT ORDINAL="2829" NAME="?SendClientHandshake@vPlatformStubXbox360@@UAEHXZ" PURGE="0" COMMENT="" />
    <EXPORT ORDINAL="2830" NAME="?SendFile@vPlatformStubDX11@@UAEHPBD0@Z" PURGE="8" COMMENT="" />
    <EXPORT ORDINAL="2831" NAME="?SendFile@vPlatformStubDX9@@UAEHPBD0@Z" PURGE="8" COMMENT="" />
    <EXPORT ORDINAL="2832" NAME="?SendFile@vPlatformStubGLES2@@UAEHPBD0@Z" PURGE="8" COMMENT="" />
    <EXPORT ORDINAL="2833" NAME="?SendFile@vPlatformStubLinux@@UAEHPBD0@Z" PURGE="8" COMMENT="" />
    <EXPORT ORDINAL="2834" NAME="?SendFile@vPlatformStubPS3@@UAEHPBD0@Z" PURGE="8" COMMENT="" />
    <EXPORT ORDINAL="2835" NAME="?SendFile@vPlatformStubPSP2@@UAEHPBD0@Z" PURGE="8" COMMENT="" />
    <EXPORT ORDINAL="2836" NAME="?SendFile@vPlatformStubWii@@UAEHPBD0@Z" PURGE="8" COMMENT="" />
    <EXPORT ORDINAL="2837" NAME="?SendFile@vPlatformStubXbox360@@UAEHPBD0@Z" PURGE="8" COMMENT="" />
    <EXPORT ORDINAL="2838" NAME="?SendFiles@vPlatformStubDX11@@UAEHPBD0HH@Z" PURGE="16" COMMENT="" />
    <EXPORT ORDINAL="2839" NAME="?SendFiles@vPlatformStubDX9@@UAEHPBD0HH@Z" PURGE="16" COMMENT="" />
    <EXPORT ORDINAL="2840" NAME="?SendFiles@vPlatformStubGLES2@@UAEHPBD0HH@Z" PURGE="16" COMMENT="" />
    <EXPORT ORDINAL="2841" NAME="?SendFiles@vPlatformStubLinux@@UAEHPBD0HH@Z" PURGE="16" COMMENT="" />
    <EXPORT ORDINAL="2842" NAME="?SendFiles@vPlatformStubPS3@@UAEHPBD0HH@Z" PURGE="16" COMMENT="" />
    <EXPORT ORDINAL="2843" NAME="?SendFiles@vPlatformStubPSP2@@UAEHPBD0HH@Z" PURGE="16" COMMENT="" />
    <EXPORT ORDINAL="2844" NAME="?SendFiles@vPlatformStubWii@@UAEHPBD0HH@Z" PURGE="16" COMMENT="" />
    <EXPORT ORDINAL="2845" NAME="?SendFiles@vPlatformStubXbox360@@UAEHPBD0HH@Z" PURGE="16" COMMENT="" />
    <EXPORT ORDINAL="2846" NAME="?SendString@vPlatformStubDX11@@UAEHPBD@Z" PURGE="4" COMMENT="" />
    <EXPORT ORDINAL="2847" NAME="?SendString@vPlatformStubDX9@@UAEHPBD@Z" PURGE="4" COMMENT="" />
    <EXPORT ORDINAL="2848" NAME="?SendString@vPlatformStubGLES2@@UAEHPBD@Z" PURGE="4" COMMENT="" />
    <EXPORT ORDINAL="2849" NAME="?SendString@vPlatformStubLinux@@UAEHPBD@Z" PURGE="4" COMMENT="" />
    <EXPORT ORDINAL="2850" NAME="?SendString@vPlatformStubPS3@@UAEHPBD@Z" PURGE="4" COMMENT="" />
    <EXPORT ORDINAL="2851" NAME="?SendString@vPlatformStubPSP2@@UAEHPBD@Z" PURGE="4" COMMENT="" />
    <EXPORT ORDINAL="2852" NAME="?SendString@vPlatformStubWii@@UAEHPBD@Z" PURGE="4" COMMENT="" />
    <EXPORT ORDINAL="2853" NAME="?SendString@vPlatformStubXbox360@@UAEHPBD@Z" PURGE="4" COMMENT="" />
    <EXPORT ORDINAL="2854" NAME="?Serialize@IVisCallbackDataObject_cl@@UAEXAAVVArchive@@@Z" PURGE="4" COMMENT="" />
    <EXPORT ORDINAL="2855" NAME="?Serialize@VChunkFile@@QAEHPAXH@Z" PURGE="8" COMMENT="" />
    <EXPORT ORDINAL="2856" NAME="?Serialize@VCompositeParam@@MAEXAAVVArchive@@@Z" PURGE="4" COMMENT="" />
    <EXPORT ORDINAL="2857" NAME="?Serialize@VPList@@UAEXAAVVArchive@@@Z" PURGE="4" COMMENT="" />
    <EXPORT ORDINAL="2858" NAME="?Serialize@VParamArray@@MAEXAAVVArchive@@@Z" PURGE="4" COMMENT="" />
    <EXPORT ORDINAL="2859" NAME="?Serialize@VParamContainer@@MAEXAAVVArchive@@@Z" PURGE="4" COMMENT="" />
    <EXPORT ORDINAL="2860" NAME="?Serialize@VParamDesc@@MAEXAAVVArchive@@@Z" PURGE="4" COMMENT="" />
    <EXPORT ORDINAL="2861" NAME="?Serialize@VParamList@@UAEXAAVVArchive@@@Z" PURGE="4" COMMENT="" />
    <EXPORT ORDINAL="2862" NAME="?Serialize@VRefTarget@@UAEXAAVVArchive@@@Z" PURGE="4" COMMENT="" />
    <EXPORT ORDINAL="2863" NAME="?Serialize@VSenderReceiver@@MAEXAAVVArchive@@@Z" PURGE="4" COMMENT="" />
    <EXPORT ORDINAL="2864" NAME="?Serialize@VTypedObject@@UAEXAAVVArchive@@@Z" PURGE="4" COMMENT="" />
    <EXPORT ORDINAL="2865" NAME="?SerializeClass@VArchive@@QAEXPBUVType@@@Z" PURGE="4" COMMENT="" />
    <EXPORT ORDINAL="2866" NAME="?SerializeHeader@VLightmapSceneInfo@@AAE_NXZ" PURGE="0" COMMENT="" />
    <EXPORT ORDINAL="2867" NAME="?SerializeInformation@VShadowMapEntry_t@VLightmapPrimitive@@QAEXAAVVLightmapSceneInfo@@H@Z" PURGE="8" COMMENT="" />
    <EXPORT ORDINAL="2868" NAME="?SerializeMaterialInformation@MeshMaterial_t@VLightmapPrimitive@@QAEXAAVVChunkFile@@_N1H@Z" PURGE="16" COMMENT="" />
    <EXPORT ORDINAL="2869" NAME="?SerializeMeshInformation@VLightmapPrimitive@@QAEXAAVVChunkFile@@H@Z" PURGE="8" COMMENT="" />
    <EXPORT ORDINAL="2870" NAME="?SerializeOutputInformation@VLightmapPrimitive@@QAEXAAVVChunkFile@@H@Z" PURGE="8" COMMENT="" />
    <EXPORT ORDINAL="2871" NAME="?SerializePages@VLightmapSceneInfo@@AAE_NXZ" PURGE="0" COMMENT="" />
    <EXPORT ORDINAL="2872" NAME="?SerializePrimitives@VLightmapSceneInfo@@AAE_N_N@Z" PURGE="4" COMMENT="" />
    <EXPORT ORDINAL="2873" NAME="?SerializeString@VChunkFile@@QAEHAAVVString@@@Z" PURGE="4" COMMENT="" />
    <EXPORT ORDINAL="2874" NAME="?SerializeX@VBBox@@IAEXAAVVArchive@@@Z" PURGE="4" COMMENT="" />
    <EXPORT ORDINAL="2875" NAME="?SerializeX@VBBoxf@@IAEXAAVVArchive@@@Z" PURGE="4" COMMENT="" />
    <EXPORT ORDINAL="2876" NAME="?SerializeX@VColorRef@@QAEXAAVVArchive@@@Z" PURGE="4" COMMENT="" />
    <EXPORT ORDINAL="2877" NAME="?SerializeX@VHashString@@QAEXAAVVArchive@@@Z" PURGE="4" COMMENT="" />
    <EXPORT ORDINAL="2878" NAME="?SerializeX@VMappingVertex@@IAEXAAVVArchive@@@Z" PURGE="4" COMMENT="" />
    <EXPORT ORDINAL="2879" NAME="?SerializeX@VParam@@IAEXAAVVArchive@@@Z" PURGE="4" COMMENT="" />
    <EXPORT ORDINAL="2880" NAME="?SerializeX@VParamBlock@@IAEXAAVVArchive@@@Z" PURGE="4" COMMENT="" />
    <EXPORT ORDINAL="2881" NAME="?SerializeX@VPlane4d@@IAEXAAVVArchive@@@Z" PURGE="4" COMMENT="" />
    <EXPORT ORDINAL="2882" NAME="?SerializeX@VPlane4f@@QAEXAAVVArchive@@@Z" PURGE="4" COMMENT="" />
    <EXPORT ORDINAL="2883" NAME="?SerializeX@VStrList@@QAEXAAVVArchive@@@Z" PURGE="4" COMMENT="" />
    <EXPORT ORDINAL="2884" NAME="?SerializeX@VString@@IAEXAAVVArchive@@@Z" PURGE="4" COMMENT="" />
    <EXPORT ORDINAL="2885" NAME="?SerializeX@VUniString@@IAEXAAVVArchive@@@Z" PURGE="4" COMMENT="" />
    <EXPORT ORDINAL="2886" NAME="?SerializeX@VVertex3d@@IAEXAAVVArchive@@@Z" PURGE="4" COMMENT="" />
    <EXPORT ORDINAL="2887" NAME="?SerializeX@VVertex3f@@QAEXAAVVArchive@@@Z" PURGE="4" COMMENT="" />
    <EXPORT ORDINAL="2888" NAME="?SerializeX@VisMBVertexDescriptor_t@@QAEXAAVVArchive@@@Z" PURGE="4" COMMENT="" />
    <EXPORT ORDINAL="2889" NAME="?Set@VActionList@@QAEXHPAVVAction@@@Z" PURGE="8" COMMENT="" />
    <EXPORT ORDINAL="2890" NAME="?Set@VBBox@@QAEXABVVVertex3d@@0@Z" PURGE="8" COMMENT="" />
    <EXPORT ORDINAL="2891" NAME="?Set@VBBox@@QAEXNNNNNN@Z" PURGE="48" COMMENT="" />
    <EXPORT ORDINAL="2892" NAME="?Set@VModuleList@@QAEXHPAUVModule@@@Z" PURGE="8" COMMENT="" />
    <EXPORT ORDINAL="2893" NAME="?Set@VParamContainerList@@QAEXHPAVVParamContainer@@@Z" PURGE="8" COMMENT="" />
    <EXPORT ORDINAL="2894" NAME="?Set@VParamList@@QAEXHPAVVParam@@@Z" PURGE="8" COMMENT="" />
    <EXPORT ORDINAL="2895" NAME="?Set@VPlane4d@@QAEXNNNN@Z" PURGE="32" COMMENT="" />
    <EXPORT ORDINAL="2896" NAME="?Set@VResourceList@@QAEXHPAVVManagedResource@@@Z" PURGE="8" COMMENT="" />
    <EXPORT ORDINAL="2897" NAME="?Set@VSenderReceiverList@@QAEXHPAVVSenderReceiver@@@Z" PURGE="8" COMMENT="" />
    <EXPORT ORDINAL="2898" NAME="?Set@VStrDictionary@@QAEHPBD0@Z" PURGE="8" COMMENT="" />
    <EXPORT ORDINAL="2899" NAME="?Set@VStringList@@QAEXHPAVVString@@@Z" PURGE="8" COMMENT="" />
    <EXPORT ORDINAL="2900" NAME="?Set@VSurfaceAssignmentList@@QAEXHPAUSurfaceFXAssignment_t@@@Z" PURGE="8" COMMENT="" />
    <EXPORT ORDINAL="2901" NAME="?Set@VVertex3d@@QAEXAAVVVertex3f@@@Z" PURGE="4" COMMENT="" />
    <EXPORT ORDINAL="2902" NAME="?Set@VVertex3d@@QAEXNNN@Z" PURGE="24" COMMENT="" />
    <EXPORT ORDINAL="2903" NAME="?SetAbort@VProgressStatus@@UAEX_N@Z" PURGE="4" COMMENT="" />
    <EXPORT ORDINAL="2904" NAME="?SetActive@VFileAccessManager@@SAX_N@Z" PURGE="0" COMMENT="" />
    <EXPORT ORDINAL="2905" NAME="?SetActiveSamplerCount@VShaderProgramResource@@QAEXH@Z" PURGE="4" COMMENT="" />
    <EXPORT ORDINAL="2906" NAME="?SetActiveSamplerCount_PS@VCompiledShaderPass@@QAEXH@Z" PURGE="4" COMMENT="" />
    <EXPORT ORDINAL="2907" NAME="?SetActiveSamplerCount_VS@VCompiledShaderPass@@QAEXH@Z" PURGE="4" COMMENT="" />
    <EXPORT ORDINAL="2908" NAME="?SetActiveWindow@VisionWindowManager@@SAXPAVIVisionWindow@@@Z" PURGE="0" COMMENT="" />
    <EXPORT ORDINAL="2909" NAME="?SetAllowSubTestToggle@VTestClass@@QAEXH@Z" PURGE="4" COMMENT="" />
    <EXPORT ORDINAL="2910" NAME="?SetAngles@VMatrix4d@@QAEXQBNW4eEULERTYPES@@@Z" PURGE="8" COMMENT="" />
    <EXPORT ORDINAL="2911" NAME="?SetAngles@VMatrix4f@@QAEXQBNW4eEULERTYPES@@@Z" PURGE="8" COMMENT="" />
    <EXPORT ORDINAL="2912" NAME="?SetAnimTiming@Image_cl@@QAEXJ@Z" PURGE="4" COMMENT="" />
    <EXPORT ORDINAL="2913" NAME="?SetAnimType@Image_cl@@QAEXW4AnimType_e@@@Z" PURGE="4" COMMENT="" />
    <EXPORT ORDINAL="2914" NAME="?SetAnimationInfo@VTextureObject@@QAEXPAUTextureAnimInfo_t@@@Z" PURGE="4" COMMENT="" />
    <EXPORT ORDINAL="2915" NAME="?SetArray@VParamArray@@QAEXHPAXW4VParamType@@@Z" PURGE="12" COMMENT="" />
    <EXPORT ORDINAL="2916" NAME="?SetAsFloatArray@VisMBVertexDescriptor_t@@SAHPAXHPBM@Z" PURGE="0" COMMENT="" />
    <EXPORT ORDINAL="2917" NAME="?SetAsString@VArgList@@QAEHHPBD@Z" PURGE="8" COMMENT="" />
    <EXPORT ORDINAL="2918" NAME="?SetAt@VMapCPtrToCPtr@@QAEXPBX0@Z" PURGE="8" COMMENT="" />
    <EXPORT ORDINAL="2919" NAME="?SetAt@VMapCPtrToInt@@QAEXPBXH@Z" PURGE="8" COMMENT="" />
    <EXPORT ORDINAL="2920" NAME="?SetAt@VMapCPtrToPtr@@QAEXPBXPAX@Z" PURGE="8" COMMENT="" />
    <EXPORT ORDINAL="2921" NAME="?SetAt@VMapIntToInt@@QAEXHH@Z" PURGE="8" COMMENT="" />
    <EXPORT ORDINAL="2922" NAME="?SetAt@VMapIntToPtr@@QAEXHPAX@Z" PURGE="8" COMMENT="" />
    <EXPORT ORDINAL="2923" NAME="?SetAt@VMapPtrToInt@@QAEXPAXH@Z" PURGE="8" COMMENT="" />
    <EXPORT ORDINAL="2924" NAME="?SetAt@VMapPtrToPtr@@QAEXPAX0@Z" PURGE="8" COMMENT="" />
    <EXPORT ORDINAL="2925" NAME="?SetAt@VMapPtrToUInt@@QAEXPAXI@Z" PURGE="8" COMMENT="" />
    <EXPORT ORDINAL="2926" NAME="?SetAt@VMapStrToPtr@@QAEXPBDPAX@Z" PURGE="8" COMMENT="" />
    <EXPORT ORDINAL="2927" NAME="?SetAtFreePos@VPList@@QAEHPAX@Z" PURGE="4" COMMENT="" />
    <EXPORT ORDINAL="2928" NAME="?SetAttribute@TiXmlElement@@QAEXPBD0@Z" PURGE="8" COMMENT="" />
    <EXPORT ORDINAL="2929" NAME="?SetAttribute@TiXmlElement@@QAEXPBDH@Z" PURGE="8" COMMENT="" />
    <EXPORT ORDINAL="2930" NAME="?SetAutoDelete@VMessage@@QAEX_N@Z" PURGE="4" COMMENT="" />
    <EXPORT ORDINAL="2931" NAME="?SetAutoPurgeInterval@VResourceManager@@QAEXMMM@Z" PURGE="12" COMMENT="" />
    <EXPORT ORDINAL="2932" NAME="?SetAutoUnloadInterval@VResourceManager@@QAEXMM_NM@Z" PURGE="16" COMMENT="" />
    <EXPORT ORDINAL="2933" NAME="?SetAuxiliaryTextures@VModelInfoXMLDocument@@SAXPAVTiXmlElement@@HPAPBD@Z" PURGE="0" COMMENT="" />
    <EXPORT ORDINAL="2934" NAME="?SetBinaryBlock@VResourceSnapshotEntry@@QAEXPBXH@Z" PURGE="8" COMMENT="" />
    <EXPORT ORDINAL="2935" NAME="?SetBlindData@VCollisionNode@@QAEXABVVStrDictionary@@@Z" PURGE="4" COMMENT="" />
    <EXPORT ORDINAL="2936" NAME="?SetBool@VParamArray@@QAEXHH@Z" PURGE="8" COMMENT="" />
    <EXPORT ORDINAL="2937" NAME="?SetBool@VParamBlock@@QAEXHH@Z" PURGE="8" COMMENT="" />
    <EXPORT ORDINAL="2938" NAME="?SetBorderlessWindow@VWindowConfig@@QAEXH@Z" PURGE="4" COMMENT="" />
    <EXPORT ORDINAL="2939" NAME="?SetCDATA@TiXmlText@@QAEX_N@Z" PURGE="4" COMMENT="" />
    <EXPORT ORDINAL="2940" NAME="?SetCallback@VReceiver@@QAEXP6AXPAV1@@ZPAX@Z" PURGE="8" COMMENT="" />
    <EXPORT ORDINAL="2941" NAME="?SetCasterFilterIDs@VLightmapSceneInfo@@QAEPA_JHPB_J@Z" PURGE="8" COMMENT="" />
    <EXPORT ORDINAL="2942" NAME="?SetColor@VParamArray@@QAEXHH@Z" PURGE="8" COMMENT="" />
    <EXPORT ORDINAL="2943" NAME="?SetColor@VParamBlock@@QAEXHH@Z" PURGE="8" COMMENT="" />
    <EXPORT ORDINAL="2944" NAME="?SetColors@VLightGridNodeIterator_cl@@QAEXPBUVColorRef@@@Z" PURGE="4" COMMENT="" />
    <EXPORT ORDINAL="2945" NAME="?SetColors@VLightGridNodeIterator_cl@@QAEXPBVVVertex3f@@@Z" PURGE="4" COMMENT="" />
    <EXPORT ORDINAL="2946" NAME="?SetCondenseWhiteSpace@TiXmlBase@@SAX_N@Z" PURGE="0" COMMENT="" />
    <EXPORT ORDINAL="2947" NAME="?SetCurrentCodepage@VLocale@@SAXH@Z" PURGE="0" COMMENT="" />
    <EXPORT ORDINAL="2948" NAME="?SetCustomIntValue@VResourceSnapshotEntryRetail@@UAEXHH@Z" PURGE="8" COMMENT="" />
    <EXPORT ORDINAL="2949" NAME="?SetCustomIntValue@VResourceSnapshotEntryXML@@UAEXHH@Z" PURGE="8" COMMENT="" />
    <EXPORT ORDINAL="2950" NAME="?SetCustomIntValues@VResourceSnapshotEntryRetail@@UAEXPAH@Z" PURGE="4" COMMENT="" />
    <EXPORT ORDINAL="2951" NAME="?SetCustomIntValues@VResourceSnapshotEntryXML@@UAEXPAH@Z" PURGE="4" COMMENT="" />
    <EXPORT ORDINAL="2952" NAME="?SetDataDirectory@VClipboard@@UAE_NHPBD@Z" PURGE="8" COMMENT="" />
    <EXPORT ORDINAL="2953" NAME="?SetDataDirectory@VDiskFileStreamManager@@UAE_NHPBD@Z" PURGE="8" COMMENT="" />
    <EXPORT ORDINAL="2954" NAME="?SetDataDirectory@VZipFileStreamManager@@UAE_NHPBD@Z" PURGE="8" COMMENT="" />
    <EXPORT ORDINAL="2955" NAME="?SetDeadZone@VMappedInput@@QAEXM@Z" PURGE="4" COMMENT="" />
    <EXPORT ORDINAL="2956" NAME="?SetDebugFlags@VTestUnit@@QAEXHH@Z" PURGE="8" COMMENT="" />
    <EXPORT ORDINAL="2957" NAME="?SetDefaultString@VParam@@QAEXPBD@Z" PURGE="4" COMMENT="" />
    <EXPORT ORDINAL="2958" NAME="?SetDefaultValue@VParamBlock@@QAEXH@Z" PURGE="4" COMMENT="" />
    <EXPORT ORDINAL="2959" NAME="?SetDefaults@VWindowConfig@@QAEXXZ" PURGE="0" COMMENT="" />
    <EXPORT ORDINAL="2960" NAME="?SetDocument@TiXmlAttribute@@QAEXPAVTiXmlDocument@@@Z" PURGE="4" COMMENT="" />
    <EXPORT ORDINAL="2961" NAME="?SetDoubleAttribute@TiXmlElement@@QAEXPBDN@Z" PURGE="12" COMMENT="" />
    <EXPORT ORDINAL="2962" NAME="?SetDoubleValue@TiXmlAttribute@@QAEXN@Z" PURGE="8" COMMENT="" />
    <EXPORT ORDINAL="2963" NAME="?SetEdge2Vertex@VPlane4d@@QAEXABVVVertex3d@@00@Z" PURGE="12" COMMENT="" />
    <EXPORT ORDINAL="2964" NAME="?SetEdge2Vertex@VPlane4f@@QAEXABVVVertex3f@@00@Z" PURGE="12" COMMENT="" />
    <EXPORT ORDINAL="2965" NAME="?SetEnabled@VDebugMemoryLeakDump@@YAX_N@Z" PURGE="0" COMMENT="" />
    <EXPORT ORDINAL="2966" NAME="?SetEngineType@VParam@@QAE_NH@Z" PURGE="4" COMMENT="" />
    <EXPORT ORDINAL="2967" NAME="?SetEnum@VParamArray@@QAEXHH@Z" PURGE="8" COMMENT="" />
    <EXPORT ORDINAL="2968" NAME="?SetEnum@VParamBlock@@QAEXHH@Z" PURGE="8" COMMENT="" />
    <EXPORT ORDINAL="2969" NAME="?SetError@TiXmlDocument@@QAEXHPBDPAVTiXmlParsingData@@W4TiXmlEncoding@@@Z" PURGE="16" COMMENT="" />
    <EXPORT ORDINAL="2970" NAME="?SetError@VChunkFile@@QAEXPBD@Z" PURGE="4" COMMENT="" />
    <EXPORT ORDINAL="2971" NAME="?SetErrorHandlerCallback@VFileAccess@@SAP6A_NW4FileErrorState@1@@ZP6A_N0@Z@Z" PURGE="0" COMMENT="" />
    <EXPORT ORDINAL="2972" NAME="?SetEulerAngles@VMatrix4d@@QAEXABVVVertex3d@@@Z" PURGE="4" COMMENT="" />
    <EXPORT ORDINAL="2973" NAME="?SetEulerAngles@VMatrix4d@@QAEXABVVVertex3f@@@Z" PURGE="4" COMMENT="" />
    <EXPORT ORDINAL="2974" NAME="?SetEulerAngles@VMatrix4f@@QAEXABVVVertex3d@@@Z" PURGE="4" COMMENT="" />
    <EXPORT ORDINAL="2975" NAME="?SetEulerAngles@VMatrix4f@@QAEXABVVVertex3f@@@Z" PURGE="4" COMMENT="" />
    <EXPORT ORDINAL="2976" NAME="?SetExclusionTags@VTechniqueConfig@@QAEXPBD@Z" PURGE="4" COMMENT="" />
    <EXPORT ORDINAL="2977" NAME="?SetFileName@VResourceSnapshotEntryRetail@@UAEXPBD@Z" PURGE="4" COMMENT="" />
    <EXPORT ORDINAL="2978" NAME="?SetFileName@VResourceSnapshotEntryXML@@UAEXPBD@Z" PURGE="4" COMMENT="" />
    <EXPORT ORDINAL="2979" NAME="?SetFilePathResolver@VResourceManager@@SAXPAVIVFilePathResolver@@@Z" PURGE="0" COMMENT="" />
    <EXPORT ORDINAL="2980" NAME="?SetFilename@VManagedResource@@QAEXPBD@Z" PURGE="4" COMMENT="" />
    <EXPORT ORDINAL="2981" NAME="?SetFinished@VStreamProcessingTask@@QAEXXZ" PURGE="0" COMMENT="" />
    <EXPORT ORDINAL="2982" NAME="?SetFlag@VParamArray@@QAEXHH@Z" PURGE="8" COMMENT="" />
    <EXPORT ORDINAL="2983" NAME="?SetFlag@VParamArray@@QAEXHHH@Z" PURGE="12" COMMENT="" />
    <EXPORT ORDINAL="2984" NAME="?SetFlag@VParamArray@@QAEXHPBDH@Z" PURGE="12" COMMENT="" />
    <EXPORT ORDINAL="2985" NAME="?SetFlag@VParamBlock@@QAEXHH@Z" PURGE="8" COMMENT="" />
    <EXPORT ORDINAL="2986" NAME="?SetFlag@VParamBlock@@QAEXHHH@Z" PURGE="12" COMMENT="" />
    <EXPORT ORDINAL="2987" NAME="?SetFlag@VParamBlock@@QAEXHPBDH@Z" PURGE="12" COMMENT="" />
    <EXPORT ORDINAL="2988" NAME="?SetFlags@VThreadManager@@QAEXH@Z" PURGE="4" COMMENT="" />
    <EXPORT ORDINAL="2989" NAME="?SetFloat@VParamArray@@QAEXHM@Z" PURGE="8" COMMENT="" />
    <EXPORT ORDINAL="2990" NAME="?SetFloat@VParamBlock@@QAEXHM@Z" PURGE="8" COMMENT="" />
    <EXPORT ORDINAL="2991" NAME="?SetFloatVec2@VParamArray@@QAEXHMM@Z" PURGE="12" COMMENT="" />
    <EXPORT ORDINAL="2992" NAME="?SetFloatVec2@VParamArray@@QAEXHMPBD@Z" PURGE="12" COMMENT="" />
    <EXPORT ORDINAL="2993" NAME="?SetFloatVec2@VParamBlock@@QAEXHMM@Z" PURGE="12" COMMENT="" />
    <EXPORT ORDINAL="2994" NAME="?SetFloatVec2@VParamBlock@@QAEXHMPBD@Z" PURGE="12" COMMENT="" />
    <EXPORT ORDINAL="2995" NAME="?SetFloatVec4@VParamArray@@QAEXHMMMM@Z" PURGE="20" COMMENT="" />
    <EXPORT ORDINAL="2996" NAME="?SetFloatVec4@VParamArray@@QAEXHMPBD@Z" PURGE="12" COMMENT="" />
    <EXPORT ORDINAL="2997" NAME="?SetFloatVec4@VParamBlock@@QAEXHMMMM@Z" PURGE="20" COMMENT="" />
    <EXPORT ORDINAL="2998" NAME="?SetFloatVec4@VParamBlock@@QAEXHMPBD@Z" PURGE="12" COMMENT="" />
    <EXPORT ORDINAL="2999" NAME="?SetFloatVector@VParamArray@@QAEXHAAVVVertex3f@@@Z" PURGE="8" COMMENT="" />
    <EXPORT ORDINAL="3000" NAME="?SetFloatVector@VParamArray@@QAEXHMMM@Z" PURGE="16" COMMENT="" />
    <EXPORT ORDINAL="3001" NAME="?SetFloatVector@VParamArray@@QAEXHMPBD@Z" PURGE="12" COMMENT="" />
    <EXPORT ORDINAL="3002" NAME="?SetFloatVector@VParamArray@@QAEXHQAM@Z" PURGE="8" COMMENT="" />
    <EXPORT ORDINAL="3003" NAME="?SetFloatVector@VParamBlock@@QAEXHAAVVVertex3f@@@Z" PURGE="8" COMMENT="" />
    <EXPORT ORDINAL="3004" NAME="?SetFloatVector@VParamBlock@@QAEXHMMM@Z" PURGE="16" COMMENT="" />
    <EXPORT ORDINAL="3005" NAME="?SetFloatVector@VParamBlock@@QAEXHMPBD@Z" PURGE="12" COMMENT="" />
    <EXPORT ORDINAL="3006" NAME="?SetFloatVector@VParamBlock@@QAEXHQAM@Z" PURGE="8" COMMENT="" />
    <EXPORT ORDINAL="3007" NAME="?SetFormatDefaults@VisMBVertexDescriptor_t@@QAEXXZ" PURGE="0" COMMENT="" />
    <EXPORT ORDINAL="3008" NAME="?SetFpuPrecision@VMathHelpers@@SAXH@Z" PURGE="0" COMMENT="" />
    <EXPORT ORDINAL="3009" NAME="?SetFrameSpeed@TextureAnimInfo_t@@QAEXHM@Z" PURGE="8" COMMENT="" />
    <EXPORT ORDINAL="3010" NAME="?SetGamma@VVideo@@SA_NIMMM@Z" PURGE="0" COMMENT="" />
    <EXPORT ORDINAL="3011" NAME="?SetGammaRamp@VVideo@@SA_NIPBM00@Z" PURGE="0" COMMENT="" />
    <EXPORT ORDINAL="3012" NAME="?SetGatherTaskInfo@VThreadManager@@QAEX_N@Z" PURGE="4" COMMENT="" />
    <EXPORT ORDINAL="3013" NAME="?SetGlobalManager@VActionManager@@SAXPAV1@@Z" PURGE="0" COMMENT="" />
    <EXPORT ORDINAL="3014" NAME="?SetGlobalManager@VTextureManager@@SAXPAV1@@Z" PURGE="0" COMMENT="" />
    <EXPORT ORDINAL="3015" NAME="?SetGridDimension@VLightGrid_cl@@QAEXABVVBBoxf@@HHH@Z" PURGE="16" COMMENT="" />
    <EXPORT ORDINAL="3016" NAME="?SetHeight@Image_cl@@QAEJJ@Z" PURGE="4" COMMENT="" />
    <EXPORT ORDINAL="3017" NAME="?SetHeightMapDepth@Image_cl@@QAEJW4ColorDepth_e@@@Z" PURGE="4" COMMENT="" />
    <EXPORT ORDINAL="3018" NAME="?SetInEditor@VEditor@@YAX_N@Z" PURGE="0" COMMENT="" />
    <EXPORT ORDINAL="3019" NAME="?SetIncludeManager@VShaderProgramResource@@SAXPAVVShaderIncludeManager@@@Z" PURGE="0" COMMENT="" />
    <EXPORT ORDINAL="3020" NAME="?SetInclusionTags@VTechniqueConfig@@QAEXPBD@Z" PURGE="4" COMMENT="" />
    <EXPORT ORDINAL="3021" NAME="?SetIndent@TiXmlPrinter@@QAEXPBD@Z" PURGE="4" COMMENT="" />
    <EXPORT ORDINAL="3022" NAME="?SetIndex@VParamArray@@QAEHH@Z" PURGE="4" COMMENT="" />
    <EXPORT ORDINAL="3023" NAME="?SetInt@VParamArray@@QAEXHH@Z" PURGE="8" COMMENT="" />
    <EXPORT ORDINAL="3024" NAME="?SetInt@VParamBlock@@QAEXHH@Z" PURGE="8" COMMENT="" />
    <EXPORT ORDINAL="3025" NAME="?SetIntValue@TiXmlAttribute@@QAEXH@Z" PURGE="4" COMMENT="" />
    <EXPORT ORDINAL="3026" NAME="?SetKernel@VStreamProcessingTask@@QAEXPAVVStreamProcessingKernel@@@Z" PURGE="4" COMMENT="" />
    <EXPORT ORDINAL="3027" NAME="?SetLastError@vPlatformStubDX11@@AAEXPBD@Z" PURGE="4" COMMENT="" />
    <EXPORT ORDINAL="3028" NAME="?SetLastError@vPlatformStubDX9@@AAEXPBD@Z" PURGE="4" COMMENT="" />
    <EXPORT ORDINAL="3029" NAME="?SetLastError@vPlatformStubGLES2@@AAEXPBD@Z" PURGE="4" COMMENT="" />
    <EXPORT ORDINAL="3030" NAME="?SetLastError@vPlatformStubLinux@@AAEXPBD@Z" PURGE="4" COMMENT="" />
    <EXPORT ORDINAL="3031" NAME="?SetLastError@vPlatformStubPS3@@AAEXPBD@Z" PURGE="4" COMMENT="" />
    <EXPORT ORDINAL="3032" NAME="?SetLastError@vPlatformStubPSP2@@AAEXPBD@Z" PURGE="4" COMMENT="" />
    <EXPORT ORDINAL="3033" NAME="?SetLastError@vPlatformStubWii@@AAEXPBD@Z" PURGE="4" COMMENT="" />
    <EXPORT ORDINAL="3034" NAME="?SetLastError@vPlatformStubXbox360@@AAEXPBD@Z" PURGE="4" COMMENT="" />
    <EXPORT ORDINAL="3035" NAME="?SetLength@VPList@@QAEXH@Z" PURGE="4" COMMENT="" />
    <EXPORT ORDINAL="3036" NAME="?SetLength@VVertex3d@@QAEHN@Z" PURGE="8" COMMENT="" />
    <EXPORT ORDINAL="3037" NAME="?SetLineBreak@TiXmlPrinter@@QAEXPBD@Z" PURGE="4" COMMENT="" />
    <EXPORT ORDINAL="3038" NAME="?SetList@VParamArray@@QAEXPAVVPList@@W4VParamType@@@Z" PURGE="8" COMMENT="" />
    <EXPORT ORDINAL="3039" NAME="?SetLoader@RGBAStream@@QAEXPAVVTextureLoader@@@Z" PURGE="4" COMMENT="" />
    <EXPORT ORDINAL="3040" NAME="?SetLocalIncludePath@VShaderEffectLib@@QAEXXZ" PURGE="0" COMMENT="" />
    <EXPORT ORDINAL="3041" NAME="?SetLocalPath@VShaderIncludeManager@@QAEXPBD@Z" PURGE="4" COMMENT="" />
    <EXPORT ORDINAL="3042" NAME="?SetLock@VParamArray@@QAEHH@Z" PURGE="4" COMMENT="" />
    <EXPORT ORDINAL="3043" NAME="?SetLock@VParamBlock@@QAEHHH@Z" PURGE="8" COMMENT="" />
    <EXPORT ORDINAL="3044" NAME="?SetManagerFlag@VResourceManager@@QAEXH@Z" PURGE="4" COMMENT="" />
    <EXPORT ORDINAL="3045" NAME="?SetManagerName@VResourceSnapshotEntryRetail@@UAEXPBD@Z" PURGE="4" COMMENT="" />
    <EXPORT ORDINAL="3046" NAME="?SetManagerName@VResourceSnapshotEntryXML@@UAEXPBD@Z" PURGE="4" COMMENT="" />
    <EXPORT ORDINAL="3047" NAME="?SetMapping@VInputMap@@QAEHHHPAVVMappedInput@@@Z" PURGE="12" COMMENT="" />
    <EXPORT ORDINAL="3048" NAME="?SetMaterialAttributeString@VModelInfoXMLDocument@@SAXPAVTiXmlElement@@PBD1_N@Z" PURGE="0" COMMENT="" />
    <EXPORT ORDINAL="3049" NAME="?SetMatrix@VCollisionNode@@QAEXABVVMatrix4d@@@Z" PURGE="4" COMMENT="" />
    <EXPORT ORDINAL="3050" NAME="?SetMemoryLimit@VResourceManager@@QAEXHH@Z" PURGE="8" COMMENT="" />
    <EXPORT ORDINAL="3051" NAME="?SetMesh@VCollisionNode@@QAEXPAVVSimpleCollisionMesh32@@@Z" PURGE="4" COMMENT="" />
    <EXPORT ORDINAL="3052" NAME="?SetMultithreading@VStreamProcessor@@SAX_N@Z" PURGE="0" COMMENT="" />
    <EXPORT ORDINAL="3053" NAME="?SetName@TiXmlAttribute@@QAEXPBD@Z" PURGE="4" COMMENT="" />
    <EXPORT ORDINAL="3054" NAME="?SetName@VCollisionNode@@QAEXPBD@Z" PURGE="4" COMMENT="" />
    <EXPORT ORDINAL="3055" NAME="?SetNewDeviceWindow@VVideo@@SA_NAAVVVideoConfig@@PAUHWND__@@1@Z" PURGE="0" COMMENT="" />
    <EXPORT ORDINAL="3056" NAME="?SetNewMemSize@VManagedResource@@UAEXW4VResourceMemoryType_e@@H@Z" PURGE="8" COMMENT="" />
    <EXPORT ORDINAL="3057" NAME="?SetNotificationProcessor@vPlatformStubDX11@@UAEHP6GHPBUVRemoteNotification@@@Z@Z" PURGE="4" COMMENT="" />
    <EXPORT ORDINAL="3058" NAME="?SetNotificationProcessor@vPlatformStubDX9@@UAEHP6GHPBUVRemoteNotification@@@Z@Z" PURGE="4" COMMENT="" />
    <EXPORT ORDINAL="3059" NAME="?SetNotificationProcessor@vPlatformStubGLES2@@UAEHP6GHPBUVRemoteNotification@@@Z@Z" PURGE="4" COMMENT="" />
    <EXPORT ORDINAL="3060" NAME="?SetNotificationProcessor@vPlatformStubLinux@@UAEHP6GHPBUVRemoteNotification@@@Z@Z" PURGE="4" COMMENT="" />
    <EXPORT ORDINAL="3061" NAME="?SetNotificationProcessor@vPlatformStubPS3@@UAEHP6GHPBUVRemoteNotification@@@Z@Z" PURGE="4" COMMENT="" />
    <EXPORT ORDINAL="3062" NAME="?SetNotificationProcessor@vPlatformStubPSP2@@UAEHP6GHPBUVRemoteNotification@@@Z@Z" PURGE="4" COMMENT="" />
    <EXPORT ORDINAL="3063" NAME="?SetNotificationProcessor@vPlatformStubWii@@UAEHP6GHPBUVRemoteNotification@@@Z@Z" PURGE="4" COMMENT="" />
    <EXPORT ORDINAL="3064" NAME="?SetNotificationProcessor@vPlatformStubXbox360@@UAEHP6GHPBUVRemoteNotification@@@Z@Z" PURGE="4" COMMENT="" />
    <EXPORT ORDINAL="3065" NAME="?SetOrientation@VPlane4d@@QAE_NAAVVVertex3d@@@Z" PURGE="4" COMMENT="" />
    <EXPORT ORDINAL="3066" NAME="?SetOutput@VTestUnit@@QAEXHPBD@Z" PURGE="8" COMMENT="" />
    <EXPORT ORDINAL="3067" NAME="?SetOutputBufferSize@VStreamProcessingTask@@QAEXH@Z" PURGE="4" COMMENT="" />
    <EXPORT ORDINAL="3068" NAME="?SetOwner@VParamBlock@@QAEXPAVVParamContainerBase@@@Z" PURGE="4" COMMENT="" />
    <EXPORT ORDINAL="3069" NAME="?SetPCObject@VParamBlock@@QAEXHPAVVParamContainer@@@Z" PURGE="8" COMMENT="" />
    <EXPORT ORDINAL="3070" NAME="?SetParamFlags@VParamBlock@@QAEXHH@Z" PURGE="8" COMMENT="" />
    <EXPORT ORDINAL="3071" NAME="?SetParamUpdateFlags@VParamContainer@@UAEHH@Z" PURGE="4" COMMENT="" />
    <EXPORT ORDINAL="3072" NAME="?SetParamUpdateFlags@VParamContainerBase@@UAEHH@Z" PURGE="4" COMMENT="" />
    <EXPORT ORDINAL="3073" NAME="?SetPathname@VTextureObject@@IAEXPBD_N@Z" PURGE="8" COMMENT="" />
    <EXPORT ORDINAL="3074" NAME="?SetPickAllMessage@VWindowConfig@@QAEXXZ" PURGE="0" COMMENT="" />
    <EXPORT ORDINAL="3075" NAME="?SetPos@RGBAStream@@UAEHJH@Z" PURGE="8" COMMENT="" />
    <EXPORT ORDINAL="3076" NAME="?SetPos@VDiskFileInStream@@UAEHJH@Z" PURGE="8" COMMENT="" />
    <EXPORT ORDINAL="3077" NAME="?SetPos@VFileAccess@@SA_NPAUVFileHandle@@JW4SeekPosition@1@@Z" PURGE="0" COMMENT="" />
    <EXPORT ORDINAL="3078" NAME="?SetPos@VMemBlockWrapperStream@@UAEHJH@Z" PURGE="8" COMMENT="" />
    <EXPORT ORDINAL="3079" NAME="?SetPos@VMemoryInStream@@UAEHJH@Z" PURGE="8" COMMENT="" />
    <EXPORT ORDINAL="3080" NAME="?SetPriority@VResourceSnapshot@@QAEXM@Z" PURGE="4" COMMENT="" />
    <EXPORT ORDINAL="3081" NAME="?SetProfilingParams@VProfilingNode@@SAXHH@Z" PURGE="0" COMMENT="" />
    <EXPORT ORDINAL="3082" NAME="?SetProgress@VProgressStatus@@QAEXM@Z" PURGE="4" COMMENT="" />
    <EXPORT ORDINAL="3083" NAME="?SetProgressStatusString@VProgressStatus@@QAEXPBD_N@Z" PURGE="8" COMMENT="" />
    <EXPORT ORDINAL="3084" NAME="?SetProjectPath@VShaderIncludeManager@@QAEXPBD@Z" PURGE="4" COMMENT="" />
    <EXPORT ORDINAL="3085" NAME="?SetQuaternion@VMatrix4d@@QAEXABVVQuat@@@Z" PURGE="4" COMMENT="" />
    <EXPORT ORDINAL="3086" NAME="?SetQuaternion@VMatrix4f@@QAEXABVVQuat@@@Z" PURGE="4" COMMENT="" />
    <EXPORT ORDINAL="3087" NAME="?SetRCS@VFileAccessManager@@SAXPAVIVRevisionControlSystem@@@Z" PURGE="0" COMMENT="" />
    <EXPORT ORDINAL="3088" NAME="?SetReadCacheSize@VDiskFileStreamCacheManager@@SAXH@Z" PURGE="0" COMMENT="" />
    <EXPORT ORDINAL="3089" NAME="?SetReadonlyFlag@VFileHelper@@SA_NPBD_N@Z" PURGE="0" COMMENT="" />
    <EXPORT ORDINAL="3090" NAME="?SetReceiverFilterIDs@VLightmapSceneInfo@@QAEPA_JHPB_J@Z" PURGE="8" COMMENT="" />
    <EXPORT ORDINAL="3091" NAME="?SetRootNode@VProfilingNode@@SAXPAV1@@Z" PURGE="0" COMMENT="" />
    <EXPORT ORDINAL="3092" NAME="?SetRotAround@VMatrix4d@@QAEXABVVVertex3d@@M@Z" PURGE="8" COMMENT="" />
    <EXPORT ORDINAL="3093" NAME="?SetRotAround@VMatrix4f@@QAEXABVVVertex3f@@M@Z" PURGE="8" COMMENT="" />
    <EXPORT ORDINAL="3094" NAME="?SetScale@VMatrix4d@@QAEXABVVVertex3f@@@Z" PURGE="4" COMMENT="" />
    <EXPORT ORDINAL="3095" NAME="?SetScale@VMatrix4f@@QAEXABVVVertex3f@@@Z" PURGE="4" COMMENT="" />
    <EXPORT ORDINAL="3096" NAME="?SetScaleRot@VMatrix4d@@QAEXABVVVertex3f@@@Z" PURGE="4" COMMENT="" />
    <EXPORT ORDINAL="3097" NAME="?SetScaleRot@VMatrix4f@@QAEXABVVVertex3f@@@Z" PURGE="4" COMMENT="" />
    <EXPORT ORDINAL="3098" NAME="?SetScratchBufferSize@VStreamProcessingTask@@QAEXH@Z" PURGE="4" COMMENT="" />
    <EXPORT ORDINAL="3099" NAME="?SetSensitivity@VMousePC@@QAEXM@Z" PURGE="4" COMMENT="" />
    <EXPORT ORDINAL="3100" NAME="?SetSingleParameterF@IVConstantBuffer@@QAE_NPBDMMMM@Z" PURGE="20" COMMENT="" />
    <EXPORT ORDINAL="3101" NAME="?SetSingleParameterF@IVConstantBuffer@@QAE_NPBDPBMH@Z" PURGE="12" COMMENT="" />
    <EXPORT ORDINAL="3102" NAME="?SetSize@VUndoRedoStack@@QAEXH@Z" PURGE="4" COMMENT="" />
    <EXPORT ORDINAL="3103" NAME="?SetSkipOnFrameFail@VTestUnit@@QAEXH@Z" PURGE="4" COMMENT="" />
    <EXPORT ORDINAL="3104" NAME="?SetStackSize@VStreamProcessingTask@@QAEXH@Z" PURGE="4" COMMENT="" />
    <EXPORT ORDINAL="3105" NAME="?SetStreamPrinting@TiXmlPrinter@@QAEXXZ" PURGE="0" COMMENT="" />
    <EXPORT ORDINAL="3106" NAME="?SetString@VParamArray@@QAEHHPBD0@Z" PURGE="12" COMMENT="" />
    <EXPORT ORDINAL="3107" NAME="?SetString@VParamBlock@@QAEHHPBD0@Z" PURGE="12" COMMENT="" />
    <EXPORT ORDINAL="3108" NAME="?SetString@VParamBlock@@QAEHPBD0@Z" PURGE="8" COMMENT="" />
    <EXPORT ORDINAL="3109" NAME="?SetString@VStrRef@@QAEXPBD_N@Z" PURGE="8" COMMENT="" />
    <EXPORT ORDINAL="3110" NAME="?SetTabSize@TiXmlDocument@@QAEXH@Z" PURGE="4" COMMENT="" />
    <EXPORT ORDINAL="3111" NAME="?SetTestDirectory@VTestUnit@@QAEX_NPBD@Z" PURGE="8" COMMENT="" />
    <EXPORT ORDINAL="3112" NAME="?SetTestName@VTestClass@@QAEXPBD@Z" PURGE="4" COMMENT="" />
    <EXPORT ORDINAL="3113" NAME="?SetText@VClipBoardHelper@@SAHPBD@Z" PURGE="0" COMMENT="" />
    <EXPORT ORDINAL="3114" NAME="?SetThreadCount@VThreadManager@@QAEXH@Z" PURGE="4" COMMENT="" />
    <EXPORT ORDINAL="3115" NAME="?SetThreadMask@VThreadedTask@@QAEXI@Z" PURGE="4" COMMENT="" />
    <EXPORT ORDINAL="3116" NAME="?SetThreadPriority@VThreadManager@@QAE_NHW4VThreadPriority@@@Z" PURGE="8" COMMENT="" />
    <EXPORT ORDINAL="3117" NAME="?SetThreadTaskMask@VThreadManager@@QAEXHI@Z" PURGE="8" COMMENT="" />
    <EXPORT ORDINAL="3118" NAME="?SetThreadValidation@VFileAccess@@SAX_N@Z" PURGE="0" COMMENT="" />
    <EXPORT ORDINAL="3119" NAME="?SetTime@VFileTime@@QAEXABU1@@Z" PURGE="4" COMMENT="" />
    <EXPORT ORDINAL="3120" NAME="?SetTime@VFileTime@@QAEX_J@Z" PURGE="8" COMMENT="" />
    <EXPORT ORDINAL="3121" NAME="?SetTimeStamp@VManagedResource@@QAEHABUVFileTime@@@Z" PURGE="4" COMMENT="" />
    <EXPORT ORDINAL="3122" NAME="?SetTimeStamp@VManagedResource@@QAEHPAVIVFileInStream@@@Z" PURGE="4" COMMENT="" />
    <EXPORT ORDINAL="3123" NAME="?SetTimeStamp@VManagedResource@@QAEHPAVIVFileOutStream@@@Z" PURGE="4" COMMENT="" />
    <EXPORT ORDINAL="3124" NAME="?SetTimeStamp@VManagedResource@@QAEHPAVIVFileStreamManager@@@Z" PURGE="4" COMMENT="" />
    <EXPORT ORDINAL="3125" NAME="?SetTranslation@VMatrix4d@@QAEXABVVVertex3d@@@Z" PURGE="4" COMMENT="" />
    <EXPORT ORDINAL="3126" NAME="?SetTranslation@VMatrix4d@@QAEXABVVVertex3f@@@Z" PURGE="4" COMMENT="" />
    <EXPORT ORDINAL="3127" NAME="?SetTranslation@VMatrix4f@@QAEXABVVVertex3d@@@Z" PURGE="4" COMMENT="" />
    <EXPORT ORDINAL="3128" NAME="?SetTranslation@VMatrix4f@@QAEXABVVVertex3f@@@Z" PURGE="4" COMMENT="" />
    <EXPORT ORDINAL="3129" NAME="?SetType@VCollisionNode@@QAEXW4eNodeDataType@@@Z" PURGE="4" COMMENT="" />
    <EXPORT ORDINAL="3130" NAME="?SetUnicodeWindow@VWindowConfig@@QAEXXZ" PURGE="0" COMMENT="" />
    <EXPORT ORDINAL="3131" NAME="?SetUserData@TiXmlBase@@QAEXPAX@Z" PURGE="4" COMMENT="" />
    <EXPORT ORDINAL="3132" NAME="?SetVMemoryManager@@YAPAVIVMemoryManager@@PAV1@@Z" PURGE="0" COMMENT="" />
    <EXPORT ORDINAL="3133" NAME="?SetValue4x3@VMatrix4d@@QAEXQAY02N@Z" PURGE="4" COMMENT="" />
    <EXPORT ORDINAL="3134" NAME="?SetValue4x3@VMatrix4f@@QAEXQAY02M@Z" PURGE="4" COMMENT="" />
    <EXPORT ORDINAL="3135" NAME="?SetValue4x4@VMatrix4d@@QAEXPBN@Z" PURGE="4" COMMENT="" />
    <EXPORT ORDINAL="3136" NAME="?SetValue4x4@VMatrix4f@@QAEXPBM@Z" PURGE="4" COMMENT="" />
    <EXPORT ORDINAL="3137" NAME="?SetValue@TiXmlAttribute@@QAEXPBD@Z" PURGE="4" COMMENT="" />
    <EXPORT ORDINAL="3138" NAME="?SetValue@TiXmlNode@@QAEXPBD@Z" PURGE="4" COMMENT="" />
    <EXPORT ORDINAL="3139" NAME="?SetValue@VGUID@@QAEXABV1@@Z" PURGE="4" COMMENT="" />
    <EXPORT ORDINAL="3140" NAME="?SetValue@VLine@@QAEXABVVVertex3d@@0@Z" PURGE="8" COMMENT="" />
    <EXPORT ORDINAL="3141" NAME="?SetValue@VMatrix4d@@QAEXNNNNNNNNNNNN@Z" PURGE="96" COMMENT="" />
    <EXPORT ORDINAL="3142" NAME="?SetValue@VMatrix4d@@QAEXQAN@Z" PURGE="4" COMMENT="" />
    <EXPORT ORDINAL="3143" NAME="?SetValue@VMatrix4f@@QAEXMMMMMMMMMMMM@Z" PURGE="48" COMMENT="" />
    <EXPORT ORDINAL="3144" NAME="?SetValue@VMatrix4f@@QAEXQAM@Z" PURGE="4" COMMENT="" />
    <EXPORT ORDINAL="3145" NAME="?SetValue@VVertex3d@@QAEXAAVVVertex3f@@@Z" PURGE="4" COMMENT="" />
    <EXPORT ORDINAL="3146" NAME="?SetValue@VVertex3d@@QAEXABV1@@Z" PURGE="4" COMMENT="" />
    <EXPORT ORDINAL="3147" NAME="?SetValue@VVertex3d@@QAEXNNN@Z" PURGE="24" COMMENT="" />
    <EXPORT ORDINAL="3148" NAME="?SetValue@VisVariable_cl@@QAEXPAXPBD_N@Z" PURGE="12" COMMENT="" />
    <EXPORT ORDINAL="3149" NAME="?SetValueDir@VLine@@QAEXABVVVertex3d@@0@Z" PURGE="8" COMMENT="" />
    <EXPORT ORDINAL="3150" NAME="?SetValueDirect@VisVariable_cl@@QAEXPAX0_N@Z" PURGE="12" COMMENT="" />
    <EXPORT ORDINAL="3151" NAME="?SetVariable@VTypedObject@@UAE_NPBD0@Z" PURGE="8" COMMENT="" />
    <EXPORT ORDINAL="3152" NAME="?SetVertex3@VPlane4d@@QAEXABVVVertex3d@@00@Z" PURGE="12" COMMENT="" />
    <EXPORT ORDINAL="3153" NAME="?SetVertex3@VPlane4f@@QAEXABVVVertex3f@@00@Z" PURGE="12" COMMENT="" />
    <EXPORT ORDINAL="3154" NAME="?SetVertex@VPolygon@@QAEXHAAVVVertex3d@@@Z" PURGE="8" COMMENT="" />
    <EXPORT ORDINAL="3155" NAME="?SetVertexCount@VPolygon@@QAEXH@Z" PURGE="4" COMMENT="" />
    <EXPORT ORDINAL="3156" NAME="?SetVertexNormal@VPlane4d@@QAEXABVVVertex3d@@0@Z" PURGE="8" COMMENT="" />
    <EXPORT ORDINAL="3157" NAME="?SetWidth@Image_cl@@QAEJJ@Z" PURGE="4" COMMENT="" />
    <EXPORT ORDINAL="3158" NAME="?SetWindowProc@VWindowConfig@@QAEXP6GJPAUHWND__@@IIJ@Z@Z" PURGE="4" COMMENT="" />
    <EXPORT ORDINAL="3159" NAME="?SetXMLOutput@VTestUnit@@QAEXHPBD@Z" PURGE="8" COMMENT="" />
    <EXPORT ORDINAL="3160" NAME="?ShouldAutoDelete@VMessage@@QAE_NXZ" PURGE="0" COMMENT="" />
    <EXPORT ORDINAL="3161" NAME="?Show@VProfilingNode@@QAEXPAVIVRenderInterface@@HAAHHUVColorRef@@_N@Z" PURGE="24" COMMENT="" />
    <EXPORT ORDINAL="3162" NAME="?ShowDialog@VReport@@QAEHPBDH@Z" PURGE="8" COMMENT="" />
    <EXPORT ORDINAL="3163" NAME="?ShowHTMLFile@VTestUnit@@QAEXH@Z" PURGE="4" COMMENT="" />
    <EXPORT ORDINAL="3164" NAME="?ShowReport@VReportMessage@@QAEXPBD@Z" PURGE="4" COMMENT="" />
    <EXPORT ORDINAL="3165" NAME="?Shrink@VParamBlock@@QAEXHH@Z" PURGE="8" COMMENT="" />
    <EXPORT ORDINAL="3166" NAME="?Size@TiXmlPrinter@@QAEIXZ" PURGE="0" COMMENT="" />
    <EXPORT ORDINAL="3167" NAME="?SkipBytes@VChunkFile@@QAEHH@Z" PURGE="4" COMMENT="" />
    <EXPORT ORDINAL="3168" NAME="?SkipChunk@VChunkFile@@QAEHH@Z" PURGE="4" COMMENT="" />
    <EXPORT ORDINAL="3169" NAME="?SkipWhiteSpace@TiXmlBase@@KAPBDPBDW4TiXmlEncoding@@@Z" PURGE="0" COMMENT="" />
    <EXPORT ORDINAL="3170" NAME="?Sort@VPList@@QAEXP6AHPBX0@Z@Z" PURGE="4" COMMENT="" />
    <EXPORT ORDINAL="3171" NAME="?Sort@VResourceSnapshot@@IAEXXZ" PURGE="0" COMMENT="" />
    <EXPORT ORDINAL="3172" NAME="?SortEnums@VParam@@QAEXXZ" PURGE="0" COMMENT="" />
    <EXPORT ORDINAL="3173" NAME="?SortUp@VCallback@@QAEXXZ" PURGE="0" COMMENT="" />
    <EXPORT ORDINAL="3174" NAME="?Split@VPolygon@@QAEXAAVVPlane4d@@AAPAV1@1@Z" PURGE="12" COMMENT="" />
    <EXPORT ORDINAL="3175" NAME="?SplitArrayString@@YAHPBDAAVVString@@@Z" PURGE="0" COMMENT="" />
    <EXPORT ORDINAL="3176" NAME="?SplitCells@VLightGrid_cl@@QAEHPAVIVLightGridTracer_cl@@@Z" PURGE="4" COMMENT="" />
    <EXPORT ORDINAL="3177" NAME="?SplitEffectAndParam@VSurfaceFXConfig@@SAXPADPAPAD1@Z" PURGE="0" COMMENT="" />
    <EXPORT ORDINAL="3178" NAME="?SplitParameterString@@YAXPBDAAVVString@@1@Z" PURGE="0" COMMENT="" />
    <EXPORT ORDINAL="3179" NAME="?SplitString@@YAJPBDQAPAD@Z" PURGE="0" COMMENT="" />
    <EXPORT ORDINAL="3180" NAME="?Sprite@Image_cl@@QAEAAHXZ" PURGE="0" COMMENT="" />
    <EXPORT ORDINAL="3181" NAME="?Standalone@TiXmlDeclaration@@QBEPBDXZ" PURGE="0" COMMENT="" />
    <EXPORT ORDINAL="3182" NAME="?StartApplication@vPlatformStubDX11@@UAEHPBDH@Z" PURGE="8" COMMENT="" />
    <EXPORT ORDINAL="3183" NAME="?StartApplication@vPlatformStubDX9@@UAEHPBDH@Z" PURGE="8" COMMENT="" />
    <EXPORT ORDINAL="3184" NAME="?StartApplication@vPlatformStubGLES2@@UAEHPBDH@Z" PURGE="8" COMMENT="" />
    <EXPORT ORDINAL="3185" NAME="?StartApplication@vPlatformStubLinux@@UAEHPBDH@Z" PURGE="8" COMMENT="" />
    <EXPORT ORDINAL="3186" NAME="?StartApplication@vPlatformStubPS3@@UAEHPBDH@Z" PURGE="8" COMMENT="" />
    <EXPORT ORDINAL="3187" NAME="?StartApplication@vPlatformStubPSP2@@UAEHPBDH@Z" PURGE="8" COMMENT="" />
    <EXPORT ORDINAL="3188" NAME="?StartApplication@vPlatformStubWii@@UAEHPBDH@Z" PURGE="8" COMMENT="" />
    <EXPORT ORDINAL="3189" NAME="?StartApplication@vPlatformStubXbox360@@UAEHPBDH@Z" PURGE="8" COMMENT="" />
    <EXPORT ORDINAL="3190" NAME="?StartChunk@VChunkFile@@QAEHIH@Z" PURGE="8" COMMENT="" />
    <EXPORT ORDINAL="3191" NAME="?StartSuspendedRendering@VVideo@@SAX_N@Z" PURGE="0" COMMENT="" />
    <EXPORT ORDINAL="3192" NAME="?StartsWith@VStringHelper@@SA_NPBD0@Z" PURGE="0" COMMENT="" />
    <EXPORT ORDINAL="3193" NAME="?StartsWithI@VStringHelper@@SA_NPBD0@Z" PURGE="0" COMMENT="" />
    <EXPORT ORDINAL="3194" NAME="?StopSuspendedRendering@VVideo@@SAXXZ" PURGE="0" COMMENT="" />
    <EXPORT ORDINAL="3195" NAME="?StoreType@VArchive@@QBEXPAUVType@@@Z" PURGE="4" COMMENT="" />
    <EXPORT ORDINAL="3196" NAME="?StringEqual@TiXmlBase@@KA_NPBD0_NW4TiXmlEncoding@@@Z" PURGE="0" COMMENT="" />
    <EXPORT ORDINAL="3197" NAME="?StringToColor@XMLHelper@@YAHPBDAAUVColorRef@@H@Z" PURGE="0" COMMENT="" />
    <EXPORT ORDINAL="3198" NAME="?StringToFloats@XMLHelper@@YAHPBDPAMH@Z" PURGE="0" COMMENT="" />
    <EXPORT ORDINAL="3199" NAME="?StringToInts@XMLHelper@@YAHPBDPAHH@Z" PURGE="0" COMMENT="" />
    <EXPORT ORDINAL="3200" NAME="?StringToUInts@XMLHelper@@YAHPBDPAIH@Z" PURGE="0" COMMENT="" />
    <EXPORT ORDINAL="3201" NAME="?SubNode@XMLHelper@@YAPAVTiXmlElement@@PAV2@PBD_N@Z" PURGE="0" COMMENT="" />
    <EXPORT ORDINAL="3202" NAME="?SupportSaveAsImageThumbnail@IVResourcePreview@@UAEHPADAAH1@Z" PURGE="12" COMMENT="" />
    <EXPORT ORDINAL="3203" NAME="?SupportsPlatform@VShaderEffectTechnique@@QBE_NW4VTargetPlatform@@@Z" PURGE="4" COMMENT="" />
    <EXPORT ORDINAL="3204" NAME="?SupportsThumbnails@IVResourcePreview@@UAEHXZ" PURGE="0" COMMENT="" />
    <EXPORT ORDINAL="3205" NAME="?SwapImageData@VTextureLoader@@QAEXPAXI@Z" PURGE="8" COMMENT="" />
    <EXPORT ORDINAL="3206" NAME="?Sys_fileCRC@@YAIPBD@Z" PURGE="0" COMMENT="" />
    <EXPORT ORDINAL="3207" NAME="?Sys_makeCRCtable@@YAXXZ" PURGE="0" COMMENT="" />
    <EXPORT ORDINAL="3208" NAME="?TabSize@TiXmlDocument@@QBEHXZ" PURGE="0" COMMENT="" />
    <EXPORT ORDINAL="3209" NAME="?TexMorphing@Image_cl@@QAEAAHXZ" PURGE="0" COMMENT="" />
    <EXPORT ORDINAL="3210" NAME="?Text@TiXmlHandle@@QBEPAVTiXmlText@@XZ" PURGE="0" COMMENT="" />
    <EXPORT ORDINAL="3211" NAME="?TickFunction@VResourceManager@@QAEXM@Z" PURGE="4" COMMENT="" />
    <EXPORT ORDINAL="3212" NAME="?TickFunction@VResourceSnapshot@@UAEXM@Z" PURGE="4" COMMENT="" />
    <EXPORT ORDINAL="3213" NAME="?TickFunction@VResourceSnapshotQueue@@QAEXM@Z" PURGE="4" COMMENT="" />
    <EXPORT ORDINAL="3214" NAME="?ToComment@TiXmlComment@@UAEPAV1@XZ" PURGE="0" COMMENT="" />
    <EXPORT ORDINAL="3215" NAME="?ToComment@TiXmlComment@@UBEPBV1@XZ" PURGE="0" COMMENT="" />
    <EXPORT ORDINAL="3216" NAME="?ToComment@TiXmlNode@@UAEPAVTiXmlComment@@XZ" PURGE="0" COMMENT="" />
    <EXPORT ORDINAL="3217" NAME="?ToComment@TiXmlNode@@UBEPBVTiXmlComment@@XZ" PURGE="0" COMMENT="" />
    <EXPORT ORDINAL="3218" NAME="?ToD3DUploadFormat@VTextureObject@@SA?AW4_D3DFORMAT@@W4VTextureFormat_e@VTextureLoader@@@Z" PURGE="0" COMMENT="" />
    <EXPORT ORDINAL="3219" NAME="?ToDeclaration@TiXmlDeclaration@@UAEPAV1@XZ" PURGE="0" COMMENT="" />
    <EXPORT ORDINAL="3220" NAME="?ToDeclaration@TiXmlDeclaration@@UBEPBV1@XZ" PURGE="0" COMMENT="" />
    <EXPORT ORDINAL="3221" NAME="?ToDeclaration@TiXmlNode@@UAEPAVTiXmlDeclaration@@XZ" PURGE="0" COMMENT="" />
    <EXPORT ORDINAL="3222" NAME="?ToDeclaration@TiXmlNode@@UBEPBVTiXmlDeclaration@@XZ" PURGE="0" COMMENT="" />
    <EXPORT ORDINAL="3223" NAME="?ToDocument@TiXmlDocument@@UAEPAV1@XZ" PURGE="0" COMMENT="" />
    <EXPORT ORDINAL="3224" NAME="?ToDocument@TiXmlDocument@@UBEPBV1@XZ" PURGE="0" COMMENT="" />
    <EXPORT ORDINAL="3225" NAME="?ToDocument@TiXmlNode@@UAEPAVTiXmlDocument@@XZ" PURGE="0" COMMENT="" />
    <EXPORT ORDINAL="3226" NAME="?ToDocument@TiXmlNode@@UBEPBVTiXmlDocument@@XZ" PURGE="0" COMMENT="" />
    <EXPORT ORDINAL="3227" NAME="?ToElement@TiXmlElement@@UAEPAV1@XZ" PURGE="0" COMMENT="" />
    <EXPORT ORDINAL="3228" NAME="?ToElement@TiXmlElement@@UBEPBV1@XZ" PURGE="0" COMMENT="" />
    <EXPORT ORDINAL="3229" NAME="?ToElement@TiXmlHandle@@QBEPAVTiXmlElement@@XZ" PURGE="0" COMMENT="" />
    <EXPORT ORDINAL="3230" NAME="?ToElement@TiXmlNode@@UAEPAVTiXmlElement@@XZ" PURGE="0" COMMENT="" />
    <EXPORT ORDINAL="3231" NAME="?ToElement@TiXmlNode@@UBEPBVTiXmlElement@@XZ" PURGE="0" COMMENT="" />
    <EXPORT ORDINAL="3232" NAME="?ToLower@TiXmlBase@@KAHHW4TiXmlEncoding@@@Z" PURGE="0" COMMENT="" />
    <EXPORT ORDINAL="3233" NAME="?ToLower@VString@@QAEXXZ" PURGE="0" COMMENT="" />
    <EXPORT ORDINAL="3234" NAME="?ToLower@VUniString@@QAEXXZ" PURGE="0" COMMENT="" />
    <EXPORT ORDINAL="3235" NAME="?ToNode@TiXmlHandle@@QBEPAVTiXmlNode@@XZ" PURGE="0" COMMENT="" />
    <EXPORT ORDINAL="3236" NAME="?ToText@TiXmlHandle@@QBEPAVTiXmlText@@XZ" PURGE="0" COMMENT="" />
    <EXPORT ORDINAL="3237" NAME="?ToText@TiXmlNode@@UAEPAVTiXmlText@@XZ" PURGE="0" COMMENT="" />
    <EXPORT ORDINAL="3238" NAME="?ToText@TiXmlNode@@UBEPBVTiXmlText@@XZ" PURGE="0" COMMENT="" />
    <EXPORT ORDINAL="3239" NAME="?ToText@TiXmlText@@UAEPAV1@XZ" PURGE="0" COMMENT="" />
    <EXPORT ORDINAL="3240" NAME="?ToText@TiXmlText@@UBEPBV1@XZ" PURGE="0" COMMENT="" />
    <EXPORT ORDINAL="3241" NAME="?ToUnknown@TiXmlHandle@@QBEPAVTiXmlUnknown@@XZ" PURGE="0" COMMENT="" />
    <EXPORT ORDINAL="3242" NAME="?ToUnknown@TiXmlNode@@UAEPAVTiXmlUnknown@@XZ" PURGE="0" COMMENT="" />
    <EXPORT ORDINAL="3243" NAME="?ToUnknown@TiXmlNode@@UBEPBVTiXmlUnknown@@XZ" PURGE="0" COMMENT="" />
    <EXPORT ORDINAL="3244" NAME="?ToUnknown@TiXmlUnknown@@UAEPAV1@XZ" PURGE="0" COMMENT="" />
    <EXPORT ORDINAL="3245" NAME="?ToUnknown@TiXmlUnknown@@UBEPBV1@XZ" PURGE="0" COMMENT="" />
    <EXPORT ORDINAL="3246" NAME="?ToUpper@VString@@QAEXXZ" PURGE="0" COMMENT="" />
    <EXPORT ORDINAL="3247" NAME="?ToUpper@VUniString@@QAEXXZ" PURGE="0" COMMENT="" />
    <EXPORT ORDINAL="3248" NAME="?Touches@VBBox@@QBEHABV1@@Z" PURGE="4" COMMENT="" />
    <EXPORT ORDINAL="3249" NAME="?TraceColors@VLightGrid_cl@@QAEHPAVIVLightGridTracer_cl@@HH@Z" PURGE="12" COMMENT="" />
    <EXPORT ORDINAL="3250" NAME="?TransMat@VMatrix4d@@SA?AV1@ABVVVertex3d@@@Z" PURGE="0" COMMENT="" />
    <EXPORT ORDINAL="3251" NAME="?TransMat@VMatrix4f@@SA?AV1@ABVVVertex3f@@@Z" PURGE="0" COMMENT="" />
    <EXPORT ORDINAL="3252" NAME="?Transform@VMatrix4d@@QBEXAAVVBBoxf@@@Z" PURGE="4" COMMENT="" />
    <EXPORT ORDINAL="3253" NAME="?Transform@VMatrix4d@@QBEXAAVVVertex3d@@H@Z" PURGE="8" COMMENT="" />
    <EXPORT ORDINAL="3254" NAME="?Transform@VMatrix4d@@QBEXAAVVVertex3f@@H@Z" PURGE="8" COMMENT="" />
    <EXPORT ORDINAL="3255" NAME="?Transform@VMatrix4d@@QBEXABVVVertex3d@@AAV2@H@Z" PURGE="12" COMMENT="" />
    <EXPORT ORDINAL="3256" NAME="?Transform@VMatrix4f@@QBEXAAVVBBoxf@@@Z" PURGE="4" COMMENT="" />
    <EXPORT ORDINAL="3257" NAME="?Transform@VMatrix4f@@QBEXAAVVVertex3d@@H@Z" PURGE="8" COMMENT="" />
    <EXPORT ORDINAL="3258" NAME="?Transform@VMatrix4f@@QBEXAAVVVertex3f@@H@Z" PURGE="8" COMMENT="" />
    <EXPORT ORDINAL="3259" NAME="?Transform@VMatrix4f@@QBEXABVVVertex3f@@AAV2@H@Z" PURGE="12" COMMENT="" />
    <EXPORT ORDINAL="3260" NAME="?Transform@VPlane4d@@QAEXAAVVMatrix4d@@@Z" PURGE="4" COMMENT="" />
    <EXPORT ORDINAL="3261" NAME="?Transform@VPolygon@@QAEXAAVVMatrix4d@@@Z" PURGE="4" COMMENT="" />
    <EXPORT ORDINAL="3262" NAME="?Translate@VMatrix4d@@QAEXABVVVertex3d@@@Z" PURGE="4" COMMENT="" />
    <EXPORT ORDINAL="3263" NAME="?Translate@VMatrix4d@@QAEXMMM@Z" PURGE="12" COMMENT="" />
    <EXPORT ORDINAL="3264" NAME="?Translate@VMatrix4f@@QAEXABVVVertex3f@@@Z" PURGE="4" COMMENT="" />
    <EXPORT ORDINAL="3265" NAME="?Translate@VMatrix4f@@QAEXMMM@Z" PURGE="12" COMMENT="" />
    <EXPORT ORDINAL="3266" NAME="?Transpose3x3@VMatrix4d@@QAEXXZ" PURGE="0" COMMENT="" />
    <EXPORT ORDINAL="3267" NAME="?Transpose3x3@VMatrix4f@@QAEXXZ" PURGE="0" COMMENT="" />
    <EXPORT ORDINAL="3268" NAME="?Trigger@VCallbackSenderQueue@@QAEXAAVIVisCallbackDataObject_cl@@@Z" PURGE="4" COMMENT="" />
    <EXPORT ORDINAL="3269" NAME="?TriggerCallbacks@VCallback@@QAEXPAVIVisCallbackDataObject_cl@@@Z" PURGE="4" COMMENT="" />
    <EXPORT ORDINAL="3270" NAME="?TriggerFileNotFound@VTextureManager@@UAEXPBD@Z" PURGE="4" COMMENT="" />
    <EXPORT ORDINAL="3271" NAME="?TriggerLoadingCallback@VTextureManager@@UAEXPAVVisTextureLoadingDataObject_cl@@@Z" PURGE="4" COMMENT="" />
    <EXPORT ORDINAL="3272" NAME="?TriggerLoadingError@VTextureManager@@UAEXPBD0@Z" PURGE="8" COMMENT="" />
    <EXPORT ORDINAL="3273" NAME="?TriggerOnLostDevice@VResourceManager@@QAEXXZ" PURGE="0" COMMENT="" />
    <EXPORT ORDINAL="3274" NAME="?TriggerOnRecreateDevice@VResourceManager@@QAEXXZ" PURGE="0" COMMENT="" />
    <EXPORT ORDINAL="3275" NAME="?Trim@VPList@@QAEXXZ" PURGE="0" COMMENT="" />
    <EXPORT ORDINAL="3276" NAME="?Truncate@VPList@@QAEXH@Z" PURGE="4" COMMENT="" />
    <EXPORT ORDINAL="3277" NAME="?Type@TiXmlNode@@QBEHXZ" PURGE="0" COMMENT="" />
    <EXPORT ORDINAL="3278" NAME="?UIntsToString@XMLHelper@@YAPBDPBIHPAD@Z" PURGE="0" COMMENT="" />
    <EXPORT ORDINAL="3279" NAME="?UTF16ToUTF8@VLocale@@SAHPB_WHPADH@Z" PURGE="0" COMMENT="" />
    <EXPORT ORDINAL="3280" NAME="?UTF8ToMultiByte@VLocale@@SAHPBDHPADH@Z" PURGE="0" COMMENT="" />
    <EXPORT ORDINAL="3281" NAME="?UTF8ToUTF16@VLocale@@SAHPBDHPA_WH@Z" PURGE="0" COMMENT="" />
    <EXPORT ORDINAL="3282" NAME="?UnSwizzleData16@VCompressionHelper@@YAXPAGPBGHQBDH@Z" PURGE="0" COMMENT="" />
    <EXPORT ORDINAL="3283" NAME="?UnSwizzleData32@VCompressionHelper@@YAXPAIPBIHQBDH@Z" PURGE="0" COMMENT="" />
    <EXPORT ORDINAL="3284" NAME="?UnSwizzleData@VCompressionHelper@@YAXPAUVColorRef@@PBEHQBDH@Z" PURGE="0" COMMENT="" />
    <EXPORT ORDINAL="3285" NAME="?UnSwizzleDataSafe@VCompressionHelper@@YAXPAUVColorRef@@PBEHQBDH@Z" PURGE="0" COMMENT="" />
    <EXPORT ORDINAL="3286" NAME="?UnbindTexture@VTextureManager@@UAEXPAVVTextureObject@@@Z" PURGE="4" COMMENT="" />
    <EXPORT ORDINAL="3287" NAME="?Undo@VAction@@UAEHXZ" PURGE="0" COMMENT="" />
    <EXPORT ORDINAL="3288" NAME="?Undo@VUndoRedoStack@@QAEHXZ" PURGE="0" COMMENT="" />
    <EXPORT ORDINAL="3289" NAME="?Unknown@TiXmlHandle@@QBEPAVTiXmlUnknown@@XZ" PURGE="0" COMMENT="" />
    <EXPORT ORDINAL="3290" NAME="?Unload@VShaderEffectLib@@MAEHXZ" PURGE="0" COMMENT="" />
    <EXPORT ORDINAL="3291" NAME="?Unload@VTextureObject@@MAEHXZ" PURGE="0" COMMENT="" />
    <EXPORT ORDINAL="3292" NAME="?UnloadSingleResource@VResourceManager@@MAEHPAVVManagedResource@@@Z" PURGE="4" COMMENT="" />
    <EXPORT ORDINAL="3293" NAME="?UnloadUnusedResources@VResourceManager@@QAEIM_N@Z" PURGE="8" COMMENT="" />
    <EXPORT ORDINAL="3294" NAME="?UnloadUnusedResources@VResourceManager@@QAEIPBDM_N@Z" PURGE="12" COMMENT="" />
    <EXPORT ORDINAL="3295" NAME="?UnmapInput@VInputMap@@QAE_NH@Z" PURGE="4" COMMENT="" />
    <EXPORT ORDINAL="3296" NAME="?UnmapInput@VInputMap@@QAE_NHH@Z" PURGE="8" COMMENT="" />
    <EXPORT ORDINAL="3297" NAME="?UnpackRawMaps@Image_cl@@QAEJH@Z" PURGE="4" COMMENT="" />
    <EXPORT ORDINAL="3298" NAME="?UnregisterFunction@VCallbackList@@QAE_NPBD@Z" PURGE="4" COMMENT="" />
    <EXPORT ORDINAL="3299" NAME="?UnregisterModule@VActionManager@@QAEHPAUVModule@@@Z" PURGE="4" COMMENT="" />
    <EXPORT ORDINAL="3300" NAME="?UnregisterModule@VCommandManager@@QAEHPAUVModule@@@Z" PURGE="4" COMMENT="" />
    <EXPORT ORDINAL="3301" NAME="?UnregisterModule@VTypeManager@@QAEHPAUVModule@@@Z" PURGE="4" COMMENT="" />
    <EXPORT ORDINAL="3302" NAME="?UnregisterWindowClass@VVideo@@KA_NXZ" PURGE="0" COMMENT="" />
    <EXPORT ORDINAL="3303" NAME="?UnregisterWindowClass@VisionWindowA@@UAEHXZ" PURGE="0" COMMENT="" />
    <EXPORT ORDINAL="3304" NAME="?UnregisterWindowClass@VisionWindowW@@UAEHXZ" PURGE="0" COMMENT="" />
    <EXPORT ORDINAL="3305" NAME="?Update@IVInputDevice@@UAEXM@Z" PURGE="4" COMMENT="" />
    <EXPORT ORDINAL="3306" NAME="?Update@VGamepadPC@@UAEXM@Z" PURGE="4" COMMENT="" />
    <EXPORT ORDINAL="3307" NAME="?Update@VGamepadXI@@UAEXM@Z" PURGE="4" COMMENT="" />
    <EXPORT ORDINAL="3308" NAME="?Update@VInputDeviceManagerPC@@SAXM@Z" PURGE="0" COMMENT="" />
    <EXPORT ORDINAL="3309" NAME="?Update@VKeyboardPC@@UAEXM@Z" PURGE="4" COMMENT="" />
    <EXPORT ORDINAL="3310" NAME="?Update@VMousePC@@UAEXM@Z" PURGE="4" COMMENT="" />
    <EXPORT ORDINAL="3311" NAME="?UpdateBox@VTexture3DObject@@QAE_NHHHHHHHHHPBXH@Z" PURGE="44" COMMENT="" />
    <EXPORT ORDINAL="3312" NAME="?UpdateFrame@VProfilingNode@@QAEX_N@Z" PURGE="4" COMMENT="" />
    <EXPORT ORDINAL="3313" NAME="?UpdateMaterialXML@VSurfaceFXConfig@@QAEXPAVVModelInfoXMLDocument@@@Z" PURGE="4" COMMENT="" />
    <EXPORT ORDINAL="3314" NAME="?UpdateMemoryFootprint@VManagedResource@@QAEXXZ" PURGE="0" COMMENT="" />
    <EXPORT ORDINAL="3315" NAME="?UpdateProfiling@VProfilingNode@@SAXXZ" PURGE="0" COMMENT="" />
    <EXPORT ORDINAL="3316" NAME="?UpdateRect@VTextureObject@@QAE_NHHHHHHPBXHH@Z" PURGE="36" COMMENT="" />
    <EXPORT ORDINAL="3317" NAME="?UpdateShaderParam@VCompiledShaderPass@@UAE_NPBD0@Z" PURGE="8" COMMENT="" />
    <EXPORT ORDINAL="3318" NAME="?UpdateWorkloadTick@VThreadManager@@QAEXM@Z" PURGE="4" COMMENT="" />
    <EXPORT ORDINAL="3319" NAME="?UpdaterTaskTick@VManagedResource@@UAEXXZ" PURGE="0" COMMENT="" />
    <EXPORT ORDINAL="3320" NAME="?VAssert@@YAHPBDH00@Z" PURGE="0" COMMENT="" />
    <EXPORT ORDINAL="3321" NAME="?VAssertDefaultHandler@@YAHPBDH00@Z" PURGE="0" COMMENT="" />
    <EXPORT ORDINAL="3322" NAME="?VAssertSetHandler@@YAP6AHPBDH00@ZP6AH0H00@Z@Z" PURGE="0" COMMENT="" />
    <EXPORT ORDINAL="3323" NAME="?VBaseAlignedAlloc_rel@@YAPAXIH@Z" PURGE="0" COMMENT="" />
    <EXPORT ORDINAL="3324" NAME="?VBaseAlignedDealloc_rel@@YAXPAX@Z" PURGE="0" COMMENT="" />
    <EXPORT ORDINAL="3325" NAME="?VBaseAlloc_rel@@YAPAXI@Z" PURGE="0" COMMENT="" />
    <EXPORT ORDINAL="3326" NAME="?VBaseDeInit@@YAPAUVModule@@XZ" PURGE="0" COMMENT="" />
    <EXPORT ORDINAL="3327" NAME="?VBaseDealloc_rel@@YAXPAX@Z" PURGE="0" COMMENT="" />
    <EXPORT ORDINAL="3328" NAME="?VBaseInit@@YAPAUVModule@@XZ" PURGE="0" COMMENT="" />
    <EXPORT ORDINAL="3329" NAME="?VBaseMem_GetStats@@YAXAAUVMemoryStatistics_t@@@Z" PURGE="0" COMMENT="" />
    <EXPORT ORDINAL="3330" NAME="?VBaseRealloc_rel@@YAPAXPAXI@Z" PURGE="0" COMMENT="" />
    <EXPORT ORDINAL="3331" NAME="?VBase_GetFileStreamManager@@YAPAVIVFileStreamManager@@XZ" PURGE="0" COMMENT="" />
    <EXPORT ORDINAL="3332" NAME="?VBase_SetFileStreamManager@@YAXPAVIVFileStreamManager@@@Z" PURGE="0" COMMENT="" />
    <EXPORT ORDINAL="3333" NAME="?VGLDeInitialize@@YAXXZ" PURGE="0" COMMENT="" />
    <EXPORT ORDINAL="3334" NAME="?VGLDeInitializeKeyboard@@YAJXZ" PURGE="0" COMMENT="" />
    <EXPORT ORDINAL="3335" NAME="?VGLDeInitializeMouse@@YAJXZ" PURGE="0" COMMENT="" />
    <EXPORT ORDINAL="3336" NAME="?VGLDeleteBase@@YAJPBD@Z" PURGE="0" COMMENT="" />
    <EXPORT ORDINAL="3337" NAME="?VGLDeleteValue@@YAJPBD0@Z" PURGE="0" COMMENT="" />
    <EXPORT ORDINAL="3338" NAME="?VGLErrorMessage@@YAXPAD0@Z" PURGE="0" COMMENT="" />
    <EXPORT ORDINAL="3339" NAME="?VGLFindRegisteredApplications@@YAPAPADXZ" PURGE="0" COMMENT="" />
    <EXPORT ORDINAL="3340" NAME="?VGLFree@@YAXPAX@Z" PURGE="0" COMMENT="" />
    <EXPORT ORDINAL="3341" NAME="?VGLGetApplicationName@@YAPADXZ" PURGE="0" COMMENT="" />
    <EXPORT ORDINAL="3342" NAME="?VGLGetBaseName@@YAPADXZ" PURGE="0" COMMENT="" />
    <EXPORT ORDINAL="3343" NAME="?VGLGetCurrentTimeStamp@@YAMXZ" PURGE="0" COMMENT="" />
    <EXPORT ORDINAL="3344" NAME="?VGLGetDouble@@YANPBD0@Z" PURGE="0" COMMENT="" />
    <EXPORT ORDINAL="3345" NAME="?VGLGetFloat@@YAMPBD0@Z" PURGE="0" COMMENT="" />
    <EXPORT ORDINAL="3346" NAME="?VGLGetInt@@YAHPBD0@Z" PURGE="0" COMMENT="" />
    <EXPORT ORDINAL="3347" NAME="?VGLGetKeyBoardLanguage@@YA?AW4VGLLanguage@@XZ" PURGE="0" COMMENT="" />
    <EXPORT ORDINAL="3348" NAME="?VGLGetKeyCharMap@@YAPAUVGLKey_t@@XZ" PURGE="0" COMMENT="" />
    <EXPORT ORDINAL="3349" NAME="?VGLGetKeyTable@@YAPBUVGLKey_t@@XZ" PURGE="0" COMMENT="" />
    <EXPORT ORDINAL="3350" NAME="?VGLGetKeyTableExt_WI@@YAPAHXZ" PURGE="0" COMMENT="" />
    <EXPORT ORDINAL="3351" NAME="?VGLGetKeyTable_DI@@YAPAHXZ" PURGE="0" COMMENT="" />
    <EXPORT ORDINAL="3352" NAME="?VGLGetKeyTable_WI@@YAPAHXZ" PURGE="0" COMMENT="" />
    <EXPORT ORDINAL="3353" NAME="?VGLGetKeyboardMethod@@YAJXZ" PURGE="0" COMMENT="" />
    <EXPORT ORDINAL="3354" NAME="?VGLGetMouse@@YAXPAUVGLMouse_t@@@Z" PURGE="0" COMMENT="" />
    <EXPORT ORDINAL="3355" NAME="?VGLGetMouseMethod@@YAJXZ" PURGE="0" COMMENT="" />
    <EXPORT ORDINAL="3356" NAME="?VGLGetProgramsDir@@YAPADXZ" PURGE="0" COMMENT="" />
    <EXPORT ORDINAL="3357" NAME="?VGLGetQuitBehaviour@@YAHXZ" PURGE="0" COMMENT="" />
    <EXPORT ORDINAL="3358" NAME="?VGLGetRegisteredApplication@@YAPADPBD@Z" PURGE="0" COMMENT="" />
    <EXPORT ORDINAL="3359" NAME="?VGLGetStartDir@@YAPADXZ" PURGE="0" COMMENT="" />
    <EXPORT ORDINAL="3360" NAME="?VGLGetString@@YAPADPBD0@Z" PURGE="0" COMMENT="" />
    <EXPORT ORDINAL="3361" NAME="?VGLGetTimer@@YA_KXZ" PURGE="0" COMMENT="" />
    <EXPORT ORDINAL="3362" NAME="?VGLGetTimerAccuracy@@YAHXZ" PURGE="0" COMMENT="" />
    <EXPORT ORDINAL="3363" NAME="?VGLGetTimerResolution@@YA_KXZ" PURGE="0" COMMENT="" />
    <EXPORT ORDINAL="3364" NAME="?VGLGetValue@@YAPAXPBD0@Z" PURGE="0" COMMENT="" />
    <EXPORT ORDINAL="3365" NAME="?VGLGetVersion@@YAKPBD@Z" PURGE="0" COMMENT="" />
    <EXPORT ORDINAL="3366" NAME="?VGLGetWindow@@YAPAUHWND__@@XZ" PURGE="0" COMMENT="" />
    <EXPORT ORDINAL="3367" NAME="?VGLInitialize@@YAJABVVWindowConfig@@@Z" PURGE="0" COMMENT="" />
    <EXPORT ORDINAL="3368" NAME="?VGLInitialize@@YAJXZ" PURGE="0" COMMENT="" />
    <EXPORT ORDINAL="3369" NAME="?VGLInitializeKeyboard@@YAJJ_N@Z" PURGE="0" COMMENT="" />
    <EXPORT ORDINAL="3370" NAME="?VGLInitializeMouse@@YAJJ_N0@Z" PURGE="0" COMMENT="" />
    <EXPORT ORDINAL="3371" NAME="?VGLIsAnyKeyPressed@@YAJXZ" PURGE="0" COMMENT="" />
    <EXPORT ORDINAL="3372" NAME="?VGLIsAnyKeyPressed_SC@@YAJXZ" PURGE="0" COMMENT="" />
    <EXPORT ORDINAL="3373" NAME="?VGLIsApplicationRegistered@@YAJPBD@Z" PURGE="0" COMMENT="" />
    <EXPORT ORDINAL="3374" NAME="?VGLIsExtensionRegistered@@YAJPBD0@Z" PURGE="0" COMMENT="" />
    <EXPORT ORDINAL="3375" NAME="?VGLIsKeyOnce@@YAJJ@Z" PURGE="0" COMMENT="" />
    <EXPORT ORDINAL="3376" NAME="?VGLIsKeyOnce_SC@@YAJJ@Z" PURGE="0" COMMENT="" />
    <EXPORT ORDINAL="3377" NAME="?VGLIsKeyPressed@@YAJJ@Z" PURGE="0" COMMENT="" />
    <EXPORT ORDINAL="3378" NAME="?VGLIsKeyPressed_SC@@YAJJ@Z" PURGE="0" COMMENT="" />
    <EXPORT ORDINAL="3379" NAME="?VGLIsKeyboardInit@@YAJXZ" PURGE="0" COMMENT="" />
    <EXPORT ORDINAL="3380" NAME="?VGLIsMouseInit@@YAJXZ" PURGE="0" COMMENT="" />
    <EXPORT ORDINAL="3381" NAME="?VGLIsValueSet@@YAJPBD0@Z" PURGE="0" COMMENT="" />
    <EXPORT ORDINAL="3382" NAME="?VGLKeyOnce@@YAJJJ@Z" PURGE="0" COMMENT="" />
    <EXPORT ORDINAL="3383" NAME="?VGLKeyOnce_SC@@YAJJJ@Z" PURGE="0" COMMENT="" />
    <EXPORT ORDINAL="3384" NAME="?VGLLaunchFile@@YAHPBD0@Z" PURGE="0" COMMENT="" />
    <EXPORT ORDINAL="3385" NAME="?VGLLogDeInit@@YAXXZ" PURGE="0" COMMENT="" />
    <EXPORT ORDINAL="3386" NAME="?VGLLogDeleteLine@@YAXXZ" PURGE="0" COMMENT="" />
    <EXPORT ORDINAL="3387" NAME="?VGLLogDisableQuit@@YAX_N@Z" PURGE="0" COMMENT="" />
    <EXPORT ORDINAL="3388" NAME="?VGLLogHide@@YAXXZ" PURGE="0" COMMENT="" />
    <EXPORT ORDINAL="3389" NAME="?VGLLogInit@@YAJXZ" PURGE="0" COMMENT="" />
    <EXPORT ORDINAL="3390" NAME="?VGLLogMessage@@YAXPBD@Z" PURGE="0" COMMENT="" />
    <EXPORT ORDINAL="3391" NAME="?VGLLogOnTop@@YAX_N@Z" PURGE="0" COMMENT="" />
    <EXPORT ORDINAL="3392" NAME="?VGLLogPrint@@YAXPBDZZ" PURGE="0" COMMENT="" />
    <EXPORT ORDINAL="3393" NAME="?VGLLogQuit@@YAXXZ" PURGE="0" COMMENT="" />
    <EXPORT ORDINAL="3394" NAME="?VGLLogReset@@YAXXZ" PURGE="0" COMMENT="" />
    <EXPORT ORDINAL="3395" NAME="?VGLLogShow@@YAXXZ" PURGE="0" COMMENT="" />
    <EXPORT ORDINAL="3396" NAME="?VGLMessageBox@@YAXPAD0@Z" PURGE="0" COMMENT="" />
    <EXPORT ORDINAL="3397" NAME="?VGLProcessMessage@@YAJXZ" PURGE="0" COMMENT="" />
    <EXPORT ORDINAL="3398" NAME="?VGLRand@@YAKXZ" PURGE="-1" COMMENT="" />
    <EXPORT ORDINAL="3399" NAME="?VGLRegisterApplication@@YAJPBD0@Z" PURGE="0" COMMENT="" />
    <EXPORT ORDINAL="3400" NAME="?VGLRegisterExtension@@YAJPBD0@Z" PURGE="0" COMMENT="" />
    <EXPORT ORDINAL="3401" NAME="?VGLRestoreExtension@@YAJPBD0@Z" PURGE="0" COMMENT="" />
    <EXPORT ORDINAL="3402" NAME="?VGLRunMessagePump@@YAHXZ" PURGE="-1" COMMENT="" />
    <EXPORT ORDINAL="3403" NAME="?VGLRunRegisteredApplication@@YAJPBD0K@Z" PURGE="0" COMMENT="" />
    <EXPORT ORDINAL="3404" NAME="?VGLSetApplicationName@@YAJPBD@Z" PURGE="0" COMMENT="" />
    <EXPORT ORDINAL="3405" NAME="?VGLSetBaseName@@YAJPBD@Z" PURGE="0" COMMENT="" />
    <EXPORT ORDINAL="3406" NAME="?VGLSetDouble@@YAXPBDAAN0@Z" PURGE="0" COMMENT="" />
    <EXPORT ORDINAL="3407" NAME="?VGLSetFloat@@YAXPBDM0@Z" PURGE="0" COMMENT="" />
    <EXPORT ORDINAL="3408" NAME="?VGLSetInt@@YAXPBDH0@Z" PURGE="0" COMMENT="" />
    <EXPORT ORDINAL="3409" NAME="?VGLSetLogWindow@@YAXPAUHWND__@@@Z" PURGE="0" COMMENT="" />
    <EXPORT ORDINAL="3410" NAME="?VGLSetMousePosition@@YAXHH@Z" PURGE="0" COMMENT="" />
    <EXPORT ORDINAL="3411" NAME="?VGLSetQuitBehaviour@@YAXH@Z" PURGE="0" COMMENT="" />
    <EXPORT ORDINAL="3412" NAME="?VGLSetString@@YAXPBD00@Z" PURGE="0" COMMENT="" />
    <EXPORT ORDINAL="3413" NAME="?VGLSetTimer@@YAX_K@Z" PURGE="0" COMMENT="" />
    <EXPORT ORDINAL="3414" NAME="?VGLSetTimerAccuracy@@YA_NH@Z" PURGE="0" COMMENT="" />
    <EXPORT ORDINAL="3415" NAME="?VGLSetValue@@YAJPBDPBXJJ0@Z" PURGE="0" COMMENT="" />
    <EXPORT ORDINAL="3416" NAME="?VGLUnregisterApplication@@YAJPBD@Z" PURGE="0" COMMENT="" />
    <EXPORT ORDINAL="3417" NAME="?VGLUpdateResourceViewer@@YAHPAPBVVResourceManager@@HPAVVConnection@@@Z" PURGE="0" COMMENT="" />
    <EXPORT ORDINAL="3418" NAME="?VGLWantClose@@YAHXZ" PURGE="0" COMMENT="" />
    <EXPORT ORDINAL="3419" NAME="?VGLWndProcEmbeddedView@@YAHIIJ@Z" PURGE="0" COMMENT="" />
    <EXPORT ORDINAL="3420" NAME="?VMatrix4d_decomp_affine@@YAXAAVVMatrix4d@@AAUVAffineParts@@@Z" PURGE="0" COMMENT="" />
    <EXPORT ORDINAL="3421" NAME="?VMultiByteToWideChar@VLocale@@SAHPBDHPA_WH@Z" PURGE="0" COMMENT="" />
    <EXPORT ORDINAL="3422" NAME="?VParamContainer_desc@VParamContainer@@2VVParamDesc@@A" PURGE="-1" COMMENT="" />
    <EXPORT ORDINAL="3423" NAME="?VParamContainer_fullDesc@VParamContainer@@2VVParamDesc@@A" PURGE="-1" COMMENT="" />
    <EXPORT ORDINAL="3424" NAME="?VThrowArchiveException@@YAXHPBD0@Z" PURGE="-1" COMMENT="" />
    <EXPORT ORDINAL="3425" NAME="?VThrowMemoryException@@YAXXZ" PURGE="-1" COMMENT="" />
    <EXPORT ORDINAL="3426" NAME="?VThrowNotSupportedException@@YAXXZ" PURGE="-1" COMMENT="" />
    <EXPORT ORDINAL="3427" NAME="?VWideCharToMultiByte@VLocale@@SAHPB_WHPADH@Z" PURGE="0" COMMENT="" />
    <EXPORT ORDINAL="3428" NAME="?ValidateMemorySum@VResourceManager@@QAE_NXZ" PURGE="0" COMMENT="" />
    <EXPORT ORDINAL="3429" NAME="?ValidateShader@VShaderPassResource@@QAE_NPAVIVLog@@W4VsfLoadSaveFlags_e@@@Z" PURGE="8" COMMENT="" />
    <EXPORT ORDINAL="3430" NAME="?Value@TiXmlAttribute@@QBEPBDXZ" PURGE="0" COMMENT="" />
    <EXPORT ORDINAL="3431" NAME="?Value@TiXmlNode@@QBEPBDXZ" PURGE="0" COMMENT="" />
    <EXPORT ORDINAL="3432" NAME="?ValueTStr@TiXmlNode@@QBEABVTiXmlString@@XZ" PURGE="0" COMMENT="" />
    <EXPORT ORDINAL="3433" NAME="?ValueTypeToVulpType@@YA?AW4VulpType_e@@W4VValueType_e@@@Z" PURGE="0" COMMENT="" />
    <EXPORT ORDINAL="3434" NAME="?Version@TiXmlDeclaration@@QBEPBDXZ" PURGE="0" COMMENT="" />
    <EXPORT ORDINAL="3435" NAME="?VisionWndProc@@YGJPAUHWND__@@IIJ@Z" PURGE="16" COMMENT="" />
    <EXPORT ORDINAL="3436" NAME="?Visit@TiXmlPrinter@@UAE_NABVTiXmlComment@@@Z" PURGE="4" COMMENT="" />
    <EXPORT ORDINAL="3437" NAME="?Visit@TiXmlPrinter@@UAE_NABVTiXmlDeclaration@@@Z" PURGE="4" COMMENT="" />
    <EXPORT ORDINAL="3438" NAME="?Visit@TiXmlPrinter@@UAE_NABVTiXmlText@@@Z" PURGE="4" COMMENT="" />
    <EXPORT ORDINAL="3439" NAME="?Visit@TiXmlPrinter@@UAE_NABVTiXmlUnknown@@@Z" PURGE="4" COMMENT="" />
    <EXPORT ORDINAL="3440" NAME="?Visit@TiXmlVisitor@@UAE_NABVTiXmlComment@@@Z" PURGE="4" COMMENT="" />
    <EXPORT ORDINAL="3441" NAME="?Visit@TiXmlVisitor@@UAE_NABVTiXmlDeclaration@@@Z" PURGE="4" COMMENT="" />
    <EXPORT ORDINAL="3442" NAME="?Visit@TiXmlVisitor@@UAE_NABVTiXmlText@@@Z" PURGE="4" COMMENT="" />
    <EXPORT ORDINAL="3443" NAME="?Visit@TiXmlVisitor@@UAE_NABVTiXmlUnknown@@@Z" PURGE="4" COMMENT="" />
    <EXPORT ORDINAL="3444" NAME="?VisitEnter@TiXmlPrinter@@UAE_NABVTiXmlDocument@@@Z" PURGE="4" COMMENT="" />
    <EXPORT ORDINAL="3445" NAME="?VisitEnter@TiXmlPrinter@@UAE_NABVTiXmlElement@@PBVTiXmlAttribute@@@Z" PURGE="8" COMMENT="" />
    <EXPORT ORDINAL="3446" NAME="?VisitEnter@TiXmlVisitor@@UAE_NABVTiXmlDocument@@@Z" PURGE="4" COMMENT="" />
    <EXPORT ORDINAL="3447" NAME="?VisitEnter@TiXmlVisitor@@UAE_NABVTiXmlElement@@PBVTiXmlAttribute@@@Z" PURGE="8" COMMENT="" />
    <EXPORT ORDINAL="3448" NAME="?VisitExit@TiXmlPrinter@@UAE_NABVTiXmlDocument@@@Z" PURGE="4" COMMENT="" />
    <EXPORT ORDINAL="3449" NAME="?VisitExit@TiXmlPrinter@@UAE_NABVTiXmlElement@@@Z" PURGE="4" COMMENT="" />
    <EXPORT ORDINAL="3450" NAME="?VisitExit@TiXmlVisitor@@UAE_NABVTiXmlDocument@@@Z" PURGE="4" COMMENT="" />
    <EXPORT ORDINAL="3451" NAME="?VisitExit@TiXmlVisitor@@UAE_NABVTiXmlElement@@@Z" PURGE="4" COMMENT="" />
    <EXPORT ORDINAL="3452" NAME="?WaitForAllThreads@VThreadManager@@QAEXXZ" PURGE="0" COMMENT="" />
    <EXPORT ORDINAL="3453" NAME="?WaitForConnection@VTargetThread@@SA_NPBDH@Z" PURGE="0" COMMENT="" />
    <EXPORT ORDINAL="3454" NAME="?WaitForTask@VThreadManager@@QAEXPAVVThreadedTask@@_N@Z" PURGE="8" COMMENT="" />
    <EXPORT ORDINAL="3455" NAME="?WaitUntilFinished@VStreamProcessingTask@@QAEXXZ" PURGE="0" COMMENT="" />
    <EXPORT ORDINAL="3456" NAME="?WaitUntilFinished@VStreamProcessingWorkflow@@QAEXXZ" PURGE="0" COMMENT="" />
    <EXPORT ORDINAL="3457" NAME="?WaitUntilLoadingFinished@VMemoryStreamManager@@QAEXXZ" PURGE="0" COMMENT="" />
    <EXPORT ORDINAL="3458" NAME="?WantsAbort@VProgressStatus@@UBE_NXZ" PURGE="0" COMMENT="" />
    <EXPORT ORDINAL="3459" NAME="?WantsDeserializationCallback@VTypedObject@@UAEHAAVVSerializationContext@@@Z" PURGE="4" COMMENT="" />
    <EXPORT ORDINAL="3460" NAME="?Warning@VChunkFile@@QAEXPBD@Z" PURGE="4" COMMENT="" />
    <EXPORT ORDINAL="3461" NAME="?Warning@VLogNull@@UAEXPBD@Z" PURGE="4" COMMENT="" />
    <EXPORT ORDINAL="3462" NAME="?Warning@VLogWindow@@UAEXPBD@Z" PURGE="4" COMMENT="" />
    <EXPORT ORDINAL="3463" NAME="?WasSent@VMessage@@QAE_NXZ" PURGE="0" COMMENT="" />
    <EXPORT ORDINAL="3464" NAME="?Write@IVFileOutStream@@QAEIPBXIPBD@Z" PURGE="12" COMMENT="" />
    <EXPORT ORDINAL="3465" NAME="?Write@IVFileOutStream@@QAEIPBXIPBDI@Z" PURGE="16" COMMENT="" />
    <EXPORT ORDINAL="3466" NAME="?Write@VArchive@@UAEXPBXI@Z" PURGE="8" COMMENT="" />
    <EXPORT ORDINAL="3467" NAME="?Write@VArchive@@UAEXPBXIPBD@Z" PURGE="12" COMMENT="" />
    <EXPORT ORDINAL="3468" NAME="?Write@VArchive@@UAEXPBXIPBDI@Z" PURGE="16" COMMENT="" />
    <EXPORT ORDINAL="3469" NAME="?Write@VChunkFile@@QAEIPBXI@Z" PURGE="8" COMMENT="" />
    <EXPORT ORDINAL="3470" NAME="?Write@VChunkFile@@QAEIPBXIPBD@Z" PURGE="12" COMMENT="" />
    <EXPORT ORDINAL="3471" NAME="?Write@VChunkFile@@QAEIPBXIPBDI@Z" PURGE="16" COMMENT="" />
    <EXPORT ORDINAL="3472" NAME="?Write@VDiskFileOutStream@@UAEIPBXI@Z" PURGE="8" COMMENT="" />
    <EXPORT ORDINAL="3473" NAME="?Write@VFileAccess@@SAJPAUVFileHandle@@PBXJ@Z" PURGE="0" COMMENT="" />
    <EXPORT ORDINAL="3474" NAME="?Write@VMemoryOutStream@@UAEIPBXI@Z" PURGE="8" COMMENT="" />
    <EXPORT ORDINAL="3475" NAME="?Write@VMessage@@QAEXH@Z" PURGE="4" COMMENT="" />
    <EXPORT ORDINAL="3476" NAME="?Write@VMessage@@QAEXPADH@Z" PURGE="8" COMMENT="" />
    <EXPORT ORDINAL="3477" NAME="?Write@VMessage@@QAEXPBD@Z" PURGE="4" COMMENT="" />
    <EXPORT ORDINAL="3478" NAME="?WriteBitfieldToText@VTechniqueConfig@@SAXPAVIVFileOutStream@@ABVVBitfield@@D@Z" PURGE="0" COMMENT="" />
    <EXPORT ORDINAL="3479" NAME="?WriteChunk@VBitfield@@QBEXAAVVChunkFile@@@Z" PURGE="4" COMMENT="" />
    <EXPORT ORDINAL="3480" NAME="?WriteClass@VArchive@@QAEXPBUVType@@@Z" PURGE="4" COMMENT="" />
    <EXPORT ORDINAL="3481" NAME="?WriteCompressedInt@VArchive@@QAEHI@Z" PURGE="4" COMMENT="" />
    <EXPORT ORDINAL="3482" NAME="?WriteObject@VArchive@@UAEXPBVVTypedObject@@PBUVType@@@Z" PURGE="8" COMMENT="" />
    <EXPORT ORDINAL="3483" NAME="?WriteProxyObject@VArchive@@QAEXPAVIVSerializationProxyCreator@@@Z" PURGE="4" COMMENT="" />
    <EXPORT ORDINAL="3484" NAME="?WriteString@VChunkFile@@QAEHPBD@Z" PURGE="4" COMMENT="" />
    <EXPORT ORDINAL="3485" NAME="?WriteStringBinary@VArchive@@QAEXPBD@Z" PURGE="4" COMMENT="" />
    <EXPORT ORDINAL="3486" NAME="?WriteStringBinary@VStreamHelper@@SA_NPAVIVFileOutStream@@PBD@Z" PURGE="0" COMMENT="" />
    <EXPORT ORDINAL="3487" NAME="?WriteToStream@VRawDataBlock@@QAEXPAVIVFileOutStream@@@Z" PURGE="4" COMMENT="" />
    <EXPORT ORDINAL="3488" NAME="?WriteToStream@VisMBVertexDescriptor_t@@QBEHPAVIVFileOutStream@@@Z" PURGE="4" COMMENT="" />
    <EXPORT ORDINAL="3489" NAME="?XMLExchange@VResourceSnapshotEntryXML@@QAEXAAVVResourceSnapshot@@PAVTiXmlElement@@_NPAVIVFilePathResolver@@@Z" PURGE="16" COMMENT="" />
    <EXPORT ORDINAL="3490" NAME="?Zero@VMatrix4d@@QAEXXZ" PURGE="0" COMMENT="" />
    <EXPORT ORDINAL="3491" NAME="?Zero@VMatrix4f@@QAEXXZ" PURGE="0" COMMENT="" />
    <EXPORT ORDINAL="3492" NAME="?Zero@VVertex3d@@QAEXXZ" PURGE="0" COMMENT="" />
    <EXPORT ORDINAL="3493" NAME="?_Format@VString@@AAEHPBDPAD@Z" PURGE="8" COMMENT="" />
    <EXPORT ORDINAL="3494" NAME="?_Format@VUniString@@AAEHPB_WPAD@Z" PURGE="8" COMMENT="" />
    <EXPORT ORDINAL="3495" NAME="?append@TiXmlString@@QAEAAV1@PBDI@Z" PURGE="8" COMMENT="" />
    <EXPORT ORDINAL="3496" NAME="?assign@TiXmlString@@QAEAAV1@PBDI@Z" PURGE="8" COMMENT="" />
    <EXPORT ORDINAL="3497" NAME="?at@TiXmlString@@QBEABDI@Z" PURGE="4" COMMENT="" />
    <EXPORT ORDINAL="3498" NAME="?c_str@TiXmlString@@QBEPBDXZ" PURGE="0" COMMENT="" />
    <EXPORT ORDINAL="3499" NAME="?capacity@TiXmlString@@QBEIXZ" PURGE="0" COMMENT="" />
    <EXPORT ORDINAL="3500" NAME="?classVAction@VAction@@2UVType@@A" PURGE="-1" COMMENT="" />
    <EXPORT ORDINAL="3501" NAME="?classVCompiledShaderPass@VCompiledShaderPass@@2UVType@@A" PURGE="-1" COMMENT="" />
    <EXPORT ORDINAL="3502" NAME="?classVCompositeParam@VCompositeParam@@2UVType@@A" PURGE="-1" COMMENT="" />
    <EXPORT ORDINAL="3503" NAME="?classVLoadingTask@VLoadingTask@@2UVType@@A" PURGE="-1" COMMENT="" />
    <EXPORT ORDINAL="3504" NAME="?classVPList@VPList@@2UVType@@A" PURGE="-1" COMMENT="" />
    <EXPORT ORDINAL="3505" NAME="?classVParamArray@VParamArray@@2UVType@@A" PURGE="-1" COMMENT="" />
    <EXPORT ORDINAL="3506" NAME="?classVParamContainer@VParamContainer@@2UVType@@A" PURGE="-1" COMMENT="" />
    <EXPORT ORDINAL="3507" NAME="?classVParamDesc@VParamDesc@@2UVType@@A" PURGE="-1" COMMENT="" />
    <EXPORT ORDINAL="3508" NAME="?classVParamList@VParamList@@2UVType@@A" PURGE="-1" COMMENT="" />
    <EXPORT ORDINAL="3509" NAME="?classVRefTarget@VRefTarget@@2UVType@@A" PURGE="-1" COMMENT="" />
    <EXPORT ORDINAL="3510" NAME="?classVSenderReceiver@VSenderReceiver@@2UVType@@A" PURGE="-1" COMMENT="" />
    <EXPORT ORDINAL="3511" NAME="?classVTestClass@VTestClass@@2UVType@@A" PURGE="-1" COMMENT="" />
    <EXPORT ORDINAL="3512" NAME="?classVTextureSerializationProxy@VTextureSerializationProxy@@2UVType@@A" PURGE="-1" COMMENT="" />
    <EXPORT ORDINAL="3513" NAME="?classVThreadedTask@VThreadedTask@@2UVType@@A" PURGE="-1" COMMENT="" />
    <EXPORT ORDINAL="3514" NAME="?classVTypedObject@VTypedObject@@2UVType@@A" PURGE="-1" COMMENT="" />
    <EXPORT ORDINAL="3515" NAME="?clear@TiXmlString@@QAEXXZ" PURGE="0" COMMENT="" />
    <EXPORT ORDINAL="3516" NAME="?clone@Image_cl@@UAE?AV1@XZ" PURGE="4" COMMENT="" />
    <EXPORT ORDINAL="3517" NAME="?condenseWhiteSpace@TiXmlBase@@0_NA" PURGE="-1" COMMENT="" />
    <EXPORT ORDINAL="3518" NAME="?data@TiXmlString@@QBEPBDXZ" PURGE="0" COMMENT="" />
    <EXPORT ORDINAL="3519" NAME="?dumpInfo@VMatrix4d@@QAEXXZ" PURGE="0" COMMENT="" />
    <EXPORT ORDINAL="3520" NAME="?dumpInfo@VMatrix4f@@QAEXXZ" PURGE="0" COMMENT="" />
    <EXPORT ORDINAL="3521" NAME="?empty@TiXmlString@@QBE_NXZ" PURGE="0" COMMENT="" />
    <EXPORT ORDINAL="3522" NAME="?entity@TiXmlBase@@0PAUEntity@1@A" PURGE="-1" COMMENT="" />
    <EXPORT ORDINAL="3523" NAME="?errorString@TiXmlBase@@1PAPBDA" PURGE="-1" COMMENT="" />
    <EXPORT ORDINAL="3524" NAME="?find@TiXmlString@@QBEID@Z" PURGE="4" COMMENT="" />
    <EXPORT ORDINAL="3525" NAME="?find@TiXmlString@@QBEIDI@Z" PURGE="8" COMMENT="" />
    <EXPORT ORDINAL="3526" NAME="?finish@TiXmlString@@ABEPADXZ" PURGE="0" COMMENT="" />
    <EXPORT ORDINAL="3527" NAME="?g_EnumEntry@VShaderEnum@@2PAPADA" PURGE="-1" COMMENT="" />
    <EXPORT ORDINAL="3528" NAME="?g_EnumText@VShaderEnum@@2PADA" PURGE="-1" COMMENT="" />
    <EXPORT ORDINAL="3529" NAME="?g_EnumValue@VShaderEnum@@2PAIA" PURGE="-1" COMMENT="" />
    <EXPORT ORDINAL="3530" NAME="?g_NumEntries@VShaderEnum@@2HA" PURGE="-1" COMMENT="" />
    <EXPORT ORDINAL="3531" NAME="?g_TextMemSize@VShaderEnum@@2HA" PURGE="-1" COMMENT="" />
    <EXPORT ORDINAL="3532" NAME="?g_blendOP@VShaderEnum@@2V1@A" PURGE="-1" COMMENT="" />
    <EXPORT ORDINAL="3533" NAME="?g_blendmode@VShaderEnum@@2V1@A" PURGE="-1" COMMENT="" />
    <EXPORT ORDINAL="3534" NAME="?g_bool@VShaderEnum@@2V1@A" PURGE="-1" COMMENT="" />
    <EXPORT ORDINAL="3535" NAME="?g_comparisionfunction@VShaderEnum@@2V1@A" PURGE="-1" COMMENT="" />
    <EXPORT ORDINAL="3536" NAME="?g_cullmode@VShaderEnum@@2V1@A" PURGE="-1" COMMENT="" />
    <EXPORT ORDINAL="3537" NAME="?g_displayhints@VShaderEnum@@2V1@A" PURGE="-1" COMMENT="" />
    <EXPORT ORDINAL="3538" NAME="?g_fGlobalTime@VManagedResource@@0MA" PURGE="-1" COMMENT="" />
    <EXPORT ORDINAL="3539" NAME="?g_fillmode@VShaderEnum@@2V1@A" PURGE="-1" COMMENT="" />
    <EXPORT ORDINAL="3540" NAME="?g_filtermode@VShaderEnum@@2V1@A" PURGE="-1" COMMENT="" />
    <EXPORT ORDINAL="3541" NAME="?g_pGlobalManager@VActionManager@@1PAV1@A" PURGE="-1" COMMENT="" />
    <EXPORT ORDINAL="3542" NAME="?g_pResChangedCallback@VResourceManager@@2PAVVCallback@@A" PURGE="-1" COMMENT="" />
    <EXPORT ORDINAL="3543" NAME="?g_passtype@VShaderEnum@@2V1@A" PURGE="-1" COMMENT="" />
    <EXPORT ORDINAL="3544" NAME="?g_platform@VShaderEnum@@2V1@A" PURGE="-1" COMMENT="" />
    <EXPORT ORDINAL="3545" NAME="?g_sLastError@VShaderEffectLib@@2VVString@@A" PURGE="-1" COMMENT="" />
    <EXPORT ORDINAL="3546" NAME="?g_shadermodel@VShaderEnum@@2V1@A" PURGE="-1" COMMENT="" />
    <EXPORT ORDINAL="3547" NAME="?g_stencilOP@VShaderEnum@@2V1@A" PURGE="-1" COMMENT="" />
    <EXPORT ORDINAL="3548" NAME="?g_szSelectedConsole@vPlatformStubGLES2@@0PADA" PURGE="-1" COMMENT="" />
    <EXPORT ORDINAL="3549" NAME="?g_szSelectedConsole@vPlatformStubLinux@@0PADA" PURGE="-1" COMMENT="" />
    <EXPORT ORDINAL="3550" NAME="?g_szSelectedConsole@vPlatformStubPS3@@0PADA" PURGE="-1" COMMENT="" />
    <EXPORT ORDINAL="3551" NAME="?g_szSelectedConsole@vPlatformStubPSP2@@0PADA" PURGE="-1" COMMENT="" />
    <EXPORT ORDINAL="3552" NAME="?g_szSelectedConsole@vPlatformStubWii@@0PADA" PURGE="-1" COMMENT="" />
    <EXPORT ORDINAL="3553" NAME="?g_szSelectedConsole@vPlatformStubXbox360@@0PADA" PURGE="-1" COMMENT="" />
    <EXPORT ORDINAL="3554" NAME="?g_tesselationmode@VShaderEnum@@2V1@A" PURGE="-1" COMMENT="" />
    <EXPORT ORDINAL="3555" NAME="?g_textureaddressmode@VShaderEnum@@2V1@A" PURGE="-1" COMMENT="" />
    <EXPORT ORDINAL="3556" NAME="?g_texturetype@VShaderEnum@@2V1@A" PURGE="-1" COMMENT="" />
    <EXPORT ORDINAL="3557" NAME="?g_valuetype@VShaderEnum@@2V1@A" PURGE="-1" COMMENT="" />
    <EXPORT ORDINAL="3558" NAME="?init@TiXmlString@@AAEXI@Z" PURGE="4" COMMENT="" />
    <EXPORT ORDINAL="3559" NAME="?init@TiXmlString@@AAEXII@Z" PURGE="8" COMMENT="" />
    <EXPORT ORDINAL="3560" NAME="?length@TiXmlString@@QBEIXZ" PURGE="0" COMMENT="" />
    <EXPORT ORDINAL="3561" NAME="?m_bRenderingIsSuspended@VVideo@@1_NA" PURGE="-1" COMMENT="" />
    <EXPORT ORDINAL="3562" NAME="?m_bScreenNeedsReset@VVideo@@2_NA" PURGE="-1" COMMENT="" />
    <EXPORT ORDINAL="3563" NAME="?m_hHandlerDLL@vPlatformStubDX11@@0PAUHINSTANCE__@@A" PURGE="-1" COMMENT="" />
    <EXPORT ORDINAL="3564" NAME="?m_hHandlerDLL@vPlatformStubDX9@@0PAUHINSTANCE__@@A" PURGE="-1" COMMENT="" />
    <EXPORT ORDINAL="3565" NAME="?m_hHandlerDLL@vPlatformStubGLES2@@0PAUHINSTANCE__@@A" PURGE="-1" COMMENT="" />
    <EXPORT ORDINAL="3566" NAME="?m_hHandlerDLL@vPlatformStubLinux@@0PAUHINSTANCE__@@A" PURGE="-1" COMMENT="" />
    <EXPORT ORDINAL="3567" NAME="?m_hHandlerDLL@vPlatformStubPS3@@0PAUHINSTANCE__@@A" PURGE="-1" COMMENT="" />
    <EXPORT ORDINAL="3568" NAME="?m_hHandlerDLL@vPlatformStubPSP2@@0PAUHINSTANCE__@@A" PURGE="-1" COMMENT="" />
    <EXPORT ORDINAL="3569" NAME="?m_hHandlerDLL@vPlatformStubWii@@0PAUHINSTANCE__@@A" PURGE="-1" COMMENT="" />
    <EXPORT ORDINAL="3570" NAME="?m_hHandlerDLL@vPlatformStubXbox360@@0PAUHINSTANCE__@@A" PURGE="-1" COMMENT="" />
    <EXPORT ORDINAL="3571" NAME="?m_iRefCount@vPlatformStubDX11@@0HA" PURGE="-1" COMMENT="" />
    <EXPORT ORDINAL="3572" NAME="?m_iRefCount@vPlatformStubDX9@@0HA" PURGE="-1" COMMENT="" />
    <EXPORT ORDINAL="3573" NAME="?m_iRefCount@vPlatformStubGLES2@@0HA" PURGE="-1" COMMENT="" />
    <EXPORT ORDINAL="3574" NAME="?m_iRefCount@vPlatformStubLinux@@0HA" PURGE="-1" COMMENT="" />
    <EXPORT ORDINAL="3575" NAME="?m_iRefCount@vPlatformStubPS3@@0HA" PURGE="-1" COMMENT="" />
    <EXPORT ORDINAL="3576" NAME="?m_iRefCount@vPlatformStubPSP2@@0HA" PURGE="-1" COMMENT="" />
    <EXPORT ORDINAL="3577" NAME="?m_iRefCount@vPlatformStubWii@@0HA" PURGE="-1" COMMENT="" />
    <EXPORT ORDINAL="3578" NAME="?m_iRefCount@vPlatformStubXbox360@@0HA" PURGE="-1" COMMENT="" />
    <EXPORT ORDINAL="3579" NAME="?npos@TiXmlString@@2IB" PURGE="-1" COMMENT="" />
    <EXPORT ORDINAL="3580" NAME="?nullrep_@TiXmlString@@0URep@1@A" PURGE="-1" COMMENT="" />
    <EXPORT ORDINAL="3581" NAME="?quit@TiXmlString@@AAEXXZ" PURGE="0" COMMENT="" />
    <EXPORT ORDINAL="3582" NAME="?reserve@TiXmlString@@QAEXI@Z" PURGE="4" COMMENT="" />
    <EXPORT ORDINAL="3583" NAME="?s_szActiveCategory@VisVariable_cl@@2PBDB" PURGE="-1" COMMENT="" />
    <EXPORT ORDINAL="3584" NAME="?set_size@TiXmlString@@AAEXI@Z" PURGE="4" COMMENT="" />
    <EXPORT ORDINAL="3585" NAME="?size@TiXmlString@@QBEIXZ" PURGE="0" COMMENT="" />
    <EXPORT ORDINAL="3586" NAME="?start@TiXmlString@@ABEPADXZ" PURGE="0" COMMENT="" />
    <EXPORT ORDINAL="3587" NAME="?swap@TiXmlString@@QAEXAAV1@@Z" PURGE="4" COMMENT="" />
    <EXPORT ORDINAL="3588" NAME="?utf8ByteTable@TiXmlBase@@2QBHB" PURGE="-1" COMMENT="" />
    <EXPORT ORDINAL="3589" NAME="?vstricmp@@YAHPBD0@Z" PURGE="0" COMMENT="" />
    <EXPORT ORDINAL="3590" NAME="?vstristr@@YAPADPBD0@Z" PURGE="0" COMMENT="" />
    <EXPORT ORDINAL="3591" NAME="?vstrncat@@YAPADPADPBDI@Z" PURGE="0" COMMENT="" />
    <EXPORT ORDINAL="3592" NAME="?vstrncpy@@YAPADPADPBDI@Z" PURGE="0" COMMENT="" />
    <EXPORT ORDINAL="3593" NAME="?vwstristr@@YAPA_WPB_W0@Z" PURGE="0" COMMENT="" />
    <EXPORT ORDINAL="3594" NAME="?vwstrncat@@YAPA_WPA_WPB_WI@Z" PURGE="0" COMMENT="" />
    <EXPORT ORDINAL="3595" NAME="?vwstrncpy@@YAPA_WPA_WPB_WI@Z" PURGE="0" COMMENT="" />
    <EXPORT ORDINAL="3596" NAME="RemoteMessageCallbackInstaller" PURGE="0" COMMENT="" />
</LIBRARY>

