<?xml version="1.0" encoding="UTF-8"?>
<LIBRARY NAME="vsnetutils.dll" PATH="/DLLArchive/etc/vsnetutils.dll" DATE="Fri Jul 03 13:28:39 PDT 2020" VERSION="2.6.362">
    <EXPORT ORDINAL="1" NAME="??0ZL_AutoMutex@@QAE@PAPAX_N@Z" PURGE="8" COMMENT="" />
    <EXPORT ORDINAL="2" NAME="??0ZL_CallbackManager@@QAE@ABV0@@Z" PURGE="4" COMMENT="" />
    <EXPORT ORDINAL="3" NAME="??0ZL_CallbackManager@@QAE@XZ" PURGE="0" COMMENT="" />
    <EXPORT ORDINAL="4" NAME="??0ZL_ClientInterface@@QAE@PAD@Z" PURGE="4" COMMENT="" />
    <EXPORT ORDINAL="5" NAME="??0ZL_ClientInterface@@QAE@XZ" PURGE="0" COMMENT="" />
    <EXPORT ORDINAL="6" NAME="??0ZL_CommProtocolXML@@QAE@ABV0@@Z" PURGE="4" COMMENT="" />
    <EXPORT ORDINAL="7" NAME="??0ZL_CommProtocolXML@@QAE@PAVZL_Endpoint@@@Z" PURGE="4" COMMENT="" />
    <EXPORT ORDINAL="8" NAME="??0ZL_Endpoint@@QAE@ABV0@@Z" PURGE="4" COMMENT="" />
    <EXPORT ORDINAL="9" NAME="??0ZL_Endpoint@@QAE@XZ" PURGE="0" COMMENT="" />
    <EXPORT ORDINAL="10" NAME="??0ZL_EndpointSBC@@QAE@ABV0@@Z" PURGE="4" COMMENT="" />
    <EXPORT ORDINAL="11" NAME="??0ZL_EndpointSBC@@QAE@HW4ZL_EndpointType@@@Z" PURGE="8" COMMENT="" />
    <EXPORT ORDINAL="12" NAME="??0ZL_Log@@QAE@PADW4ZL_LogLevel@@@Z" PURGE="8" COMMENT="" />
    <EXPORT ORDINAL="13" NAME="??0ZL_Message@@QAE@PAUZL_MessageData@@@Z" PURGE="4" COMMENT="" />
    <EXPORT ORDINAL="14" NAME="??0ZL_Message@@QAE@W4ZL_MessageType@@W4ZL_StatusType@@PAE2PADJ@Z" PURGE="24" COMMENT="" />
    <EXPORT ORDINAL="15" NAME="??0ZL_MessagePad@@QAE@PAVZL_EndpointSBC@@@Z" PURGE="4" COMMENT="" />
    <EXPORT ORDINAL="16" NAME="??0ZL_MessagePad@@QAE@XZ" PURGE="0" COMMENT="" />
    <EXPORT ORDINAL="17" NAME="??0ZL_RWLock@@QAE@XZ" PURGE="0" COMMENT="" />
    <EXPORT ORDINAL="18" NAME="??0ZL_SocketFactory@@QAE@HPADG@Z" PURGE="12" COMMENT="" />
    <EXPORT ORDINAL="19" NAME="??1ZL_AutoMutex@@QAE@XZ" PURGE="0" COMMENT="" />
    <EXPORT ORDINAL="20" NAME="??1ZL_CallbackManager@@QAE@XZ" PURGE="0" COMMENT="" />
    <EXPORT ORDINAL="21" NAME="??1ZL_ClientInterface@@QAE@XZ" PURGE="0" COMMENT="" />
    <EXPORT ORDINAL="22" NAME="??1ZL_CommProtocolXML@@QAE@XZ" PURGE="0" COMMENT="" />
    <EXPORT ORDINAL="23" NAME="??4ZL_AutoMutex@@QAEAAV0@ABV0@@Z" PURGE="4" COMMENT="" />
    <EXPORT ORDINAL="24" NAME="??4ZL_CallbackManager@@QAEAAV0@ABV0@@Z" PURGE="4" COMMENT="" />
    <EXPORT ORDINAL="25" NAME="??4ZL_ClientInterface@@QAEAAV0@ABV0@@Z" PURGE="4" COMMENT="" />
    <EXPORT ORDINAL="26" NAME="??4ZL_CommProtocolXML@@QAEAAV0@ABV0@@Z" PURGE="4" COMMENT="" />
    <EXPORT ORDINAL="27" NAME="??4ZL_Endpoint@@QAEAAV0@ABV0@@Z" PURGE="4" COMMENT="" />
    <EXPORT ORDINAL="28" NAME="??4ZL_EndpointSBC@@QAEAAV0@ABV0@@Z" PURGE="4" COMMENT="" />
    <EXPORT ORDINAL="29" NAME="??4ZL_Log@@QAEAAV0@ABV0@@Z" PURGE="4" COMMENT="" />
    <EXPORT ORDINAL="30" NAME="??4ZL_Message@@QAEAAV0@ABV0@@Z" PURGE="4" COMMENT="" />
    <EXPORT ORDINAL="31" NAME="??4ZL_MessagePad@@QAEAAV0@ABV0@@Z" PURGE="4" COMMENT="" />
    <EXPORT ORDINAL="32" NAME="??4ZL_RWLock@@QAEAAV0@ABV0@@Z" PURGE="4" COMMENT="" />
    <EXPORT ORDINAL="33" NAME="??4ZL_SignatureManager@@QAEAAV0@ABV0@@Z" PURGE="4" COMMENT="" />
    <EXPORT ORDINAL="34" NAME="??4ZL_SocketFactory@@QAEAAV0@ABV0@@Z" PURGE="4" COMMENT="" />
    <EXPORT ORDINAL="35" NAME="??_7ZL_Endpoint@@6B@" PURGE="-1" COMMENT="" />
    <EXPORT ORDINAL="36" NAME="??_7ZL_EndpointSBC@@6B@" PURGE="-1" COMMENT="" />
    <EXPORT ORDINAL="37" NAME="??_C@_07OIDI@log?4txt?$AA@" PURGE="-1" COMMENT="" />
    <EXPORT ORDINAL="38" NAME="??_FZL_Log@@QAEXXZ" PURGE="0" COMMENT="" />
    <EXPORT ORDINAL="39" NAME="?DebugLoop@ZL_ClientInterface@@QAEXKGPAD@Z" PURGE="12" COMMENT="" />
    <EXPORT ORDINAL="40" NAME="EncryptBuf" PURGE="24" COMMENT="" />
    <EXPORT ORDINAL="41" NAME="?GetAuthKey@ZL_ClientInterface@@QAEPAEXZ" PURGE="0" COMMENT="" />
    <EXPORT ORDINAL="42" NAME="?GetCxnKey@ZL_ClientInterface@@QAEPAEXZ" PURGE="0" COMMENT="" />
    <EXPORT ORDINAL="43" NAME="?GetSocket@ZL_ClientInterface@@QAEHXZ" PURGE="0" COMMENT="" />
    <EXPORT ORDINAL="44" NAME="?GetUserInfo@ZL_ClientInterface@@QAEPADXZ" PURGE="0" COMMENT="" />
    <EXPORT ORDINAL="45" NAME="?addCallback@ZL_CallbackManager@@QAEXW4ZL_MessageType@@P6A?AW4ZL_CallbackStatus@@PAUZL_MessageData@@PAVZL_Endpoint@@@Z@Z" PURGE="8" COMMENT="" />
    <EXPORT ORDINAL="46" NAME="?calcRuleFileSignature@ZL_ClientInterface@@QAEPADPAD@Z" PURGE="4" COMMENT="" />
    <EXPORT ORDINAL="47" NAME="?closeSocket@ZL_SocketFactory@@QAEXXZ" PURGE="0" COMMENT="" />
    <EXPORT ORDINAL="48" NAME="?compareSignatures@ZL_ClientInterface@@QAE_NPAD@Z" PURGE="4" COMMENT="" />
    <EXPORT ORDINAL="49" NAME="?connectSocket@ZL_SocketFactory@@QAEXXZ" PURGE="0" COMMENT="" />
    <EXPORT ORDINAL="50" NAME="?createSignature@ZL_SignatureManager@@QAEXPAE0@Z" PURGE="8" COMMENT="" />
    <EXPORT ORDINAL="51" NAME="?deleteCallback@ZL_CallbackManager@@QAEXW4ZL_MessageType@@@Z" PURGE="4" COMMENT="" />
    <EXPORT ORDINAL="52" NAME="?endElement@ZL_CommProtocolXML@@CAXPAXPBD@Z" PURGE="0" COMMENT="" />
    <EXPORT ORDINAL="53" NAME="?findCallback@ZL_CallbackManager@@QAEP6A?AW4ZL_CallbackStatus@@PAUZL_MessageData@@PAVZL_Endpoint@@@ZW4ZL_MessageType@@@Z" PURGE="4" COMMENT="" />
    <EXPORT ORDINAL="54" NAME="?getBuffer@ZL_CommProtocolXML@@QAEPAEXZ" PURGE="0" COMMENT="" />
    <EXPORT ORDINAL="55" NAME="?getData@ZL_Message@@QAEPAUZL_MessageData@@XZ" PURGE="0" COMMENT="" />
    <EXPORT ORDINAL="56" NAME="?getMessage@ZL_CommProtocolXML@@QAEPAUZL_MessageData@@XZ" PURGE="0" COMMENT="" />
    <EXPORT ORDINAL="57" NAME="?getMsg@ZL_MessagePad@@SAPADW4ZL_MessageType@@@Z" PURGE="0" COMMENT="" />
    <EXPORT ORDINAL="58" NAME="?getRuleFileName@ZL_ClientInterface@@QAEPADXZ" PURGE="0" COMMENT="" />
    <EXPORT ORDINAL="59" NAME="?getSocket@ZL_EndpointSBC@@QAEHXZ" PURGE="0" COMMENT="" />
    <EXPORT ORDINAL="60" NAME="?getSocket@ZL_SocketFactory@@QAEHXZ" PURGE="0" COMMENT="" />
    <EXPORT ORDINAL="61" NAME="?getStatus@ZL_MessagePad@@SAPADW4ZL_StatusType@@@Z" PURGE="0" COMMENT="" />
    <EXPORT ORDINAL="62" NAME="?heartbeatOn@ZL_ClientInterface@@QAE_NXZ" PURGE="0" COMMENT="" />
    <EXPORT ORDINAL="63" NAME="?loadRulesFile@ZL_ClientInterface@@QAE_NXZ" PURGE="0" COMMENT="" />
    <EXPORT ORDINAL="64" NAME="?lock@ZL_AutoMutex@@QAEXXZ" PURGE="0" COMMENT="" />
    <EXPORT ORDINAL="65" NAME="?login@ZL_ClientInterface@@QAE_NXZ" PURGE="0" COMMENT="" />
    <EXPORT ORDINAL="66" NAME="?logout@ZL_ClientInterface@@QAE_NXZ" PURGE="0" COMMENT="" />
    <EXPORT ORDINAL="67" NAME="?logprintf@ZL_Log@@QAAXPADZZ" PURGE="0" COMMENT="" />
    <EXPORT ORDINAL="68" NAME="?newMsg@ZL_MessagePad@@QAEPAVZL_Message@@W4ZL_MessageType@@W4ZL_StatusType@@PADJ@Z" PURGE="16" COMMENT="" />
    <EXPORT ORDINAL="69" NAME="?newXMLHdr@ZL_Message@@AAEPADH@Z" PURGE="4" COMMENT="" />
    <EXPORT ORDINAL="70" NAME="?newXMLMsg@ZL_Message@@AAEPADW4ZL_MessageType@@W4ZL_StatusType@@PADJ@Z" PURGE="16" COMMENT="" />
    <EXPORT ORDINAL="71" NAME="?printCallbackTable@ZL_CallbackManager@@QAEXPAU_iobuf@@@Z" PURGE="4" COMMENT="" />
    <EXPORT ORDINAL="72" NAME="?printCallbackTable@ZL_CallbackManager@@QAEXXZ" PURGE="0" COMMENT="" />
    <EXPORT ORDINAL="73" NAME="?readLock@ZL_CommProtocolXML@@QAEXXZ" PURGE="0" COMMENT="" />
    <EXPORT ORDINAL="74" NAME="?readLock@ZL_RWLock@@QAEXXZ" PURGE="0" COMMENT="" />
    <EXPORT ORDINAL="75" NAME="?receiveData@ZL_EndpointSBC@@UAEHPADH@Z" PURGE="8" COMMENT="" />
    <EXPORT ORDINAL="76" NAME="?receiveData@ZL_Message@@QAEHPADH@Z" PURGE="8" COMMENT="" />
    <EXPORT ORDINAL="77" NAME="?receiveMsg@ZL_MessagePad@@QAEPAVZL_Message@@XZ" PURGE="0" COMMENT="" />
    <EXPORT ORDINAL="78" NAME="?send@ZL_Message@@QAE_NXZ" PURGE="0" COMMENT="" />
    <EXPORT ORDINAL="79" NAME="?sendData@ZL_EndpointSBC@@UAEHPADH@Z" PURGE="8" COMMENT="" />
    <EXPORT ORDINAL="80" NAME="?sendData@ZL_Message@@QAEHPADH@Z" PURGE="8" COMMENT="" />
    <EXPORT ORDINAL="81" NAME="?sendHeartbeat@ZL_ClientInterface@@QAEXXZ" PURGE="0" COMMENT="" />
    <EXPORT ORDINAL="82" NAME="?setEndpoint@ZL_Message@@QAEXPAVZL_EndpointSBC@@@Z" PURGE="4" COMMENT="" />
    <EXPORT ORDINAL="83" NAME="?setFilter@ZL_Log@@QAEXW4ZL_LogLevel@@@Z" PURGE="4" COMMENT="" />
    <EXPORT ORDINAL="84" NAME="?setLevel@ZL_Log@@QAEXW4ZL_LogLevel@@@Z" PURGE="4" COMMENT="" />
    <EXPORT ORDINAL="85" NAME="?setOutput@ZL_Log@@QAEXPAU_iobuf@@@Z" PURGE="4" COMMENT="" />
    <EXPORT ORDINAL="86" NAME="?setSocket@ZL_EndpointSBC@@QAEXH@Z" PURGE="4" COMMENT="" />
    <EXPORT ORDINAL="87" NAME="?setSocket@ZL_Message@@QAEXH@Z" PURGE="4" COMMENT="" />
    <EXPORT ORDINAL="88" NAME="?setUser@ZL_MessagePad@@QAEXPAD@Z" PURGE="4" COMMENT="" />
    <EXPORT ORDINAL="89" NAME="?setup@ZL_ClientInterface@@QAE_NKGPAD@Z" PURGE="12" COMMENT="" />
    <EXPORT ORDINAL="90" NAME="?startElement@ZL_CommProtocolXML@@CAXPAXPBDPAPBD@Z" PURGE="0" COMMENT="" />
    <EXPORT ORDINAL="91" NAME="?startHeartbeatLoop@ZL_ClientInterface@@QAEXH@Z" PURGE="4" COMMENT="" />
    <EXPORT ORDINAL="92" NAME="?stopHeartbeatLoop@ZL_ClientInterface@@QAEXXZ" PURGE="0" COMMENT="" />
    <EXPORT ORDINAL="93" NAME="?toString@ZL_Log@@SAPADW4ZL_LogLevel@@@Z" PURGE="0" COMMENT="" />
    <EXPORT ORDINAL="94" NAME="?unlock@ZL_AutoMutex@@QAEXXZ" PURGE="0" COMMENT="" />
    <EXPORT ORDINAL="95" NAME="?unlock@ZL_CommProtocolXML@@QAEXXZ" PURGE="0" COMMENT="" />
    <EXPORT ORDINAL="96" NAME="?unlock@ZL_RWLock@@QAEXXZ" PURGE="0" COMMENT="" />
    <EXPORT ORDINAL="97" NAME="?writeLock@ZL_CommProtocolXML@@QAEXXZ" PURGE="0" COMMENT="" />
    <EXPORT ORDINAL="98" NAME="?writeLock@ZL_RWLock@@QAEXXZ" PURGE="0" COMMENT="" />
    <EXPORT ORDINAL="99" NAME="?zlHeartbeatLoop@ZL_ClientInterface@@SAXPAX@Z" PURGE="0" COMMENT="" />
</LIBRARY>

