<?xml version="1.0" encoding="UTF-8"?>
<LIBRARY NAME="vxmath.dll" PATH="/DLLArchive/etc/vxmath.dll" DATE="Fri Jul 03 13:28:59 PDT 2020" VERSION="3.0.0.50">
    <EXPORT ORDINAL="1" NAME="??0CKDirectoryParser@@QAE@PAD0HH@Z" PURGE="16" COMMENT="" />
    <EXPORT ORDINAL="2" NAME="??0CKPathMaker@@QAE@PAD000@Z" PURGE="16" COMMENT="" />
    <EXPORT ORDINAL="3" NAME="??0CKPathSplitter@@QAE@PAD@Z" PURGE="4" COMMENT="" />
    <EXPORT ORDINAL="4" NAME="??0VxCachedFile@@QAE@ABV0@@Z" PURGE="4" COMMENT="" />
    <EXPORT ORDINAL="5" NAME="??0VxCachedFile@@QAE@I@Z" PURGE="4" COMMENT="" />
    <EXPORT ORDINAL="6" NAME="??0VxConfig@@QAE@XZ" PURGE="0" COMMENT="" />
    <EXPORT ORDINAL="7" NAME="??0VxConfiguration@@QAE@G@Z" PURGE="4" COMMENT="" />
    <EXPORT ORDINAL="8" NAME="??0VxFile@@QAE@ABV0@@Z" PURGE="4" COMMENT="" />
    <EXPORT ORDINAL="9" NAME="??0VxFile@@QAE@XZ" PURGE="0" COMMENT="" />
    <EXPORT ORDINAL="10" NAME="??0VxFrustum@@QAE@ABUVxVector@@000MMMM@Z" PURGE="32" COMMENT="" />
    <EXPORT ORDINAL="11" NAME="??0VxFrustum@@QAE@XZ" PURGE="0" COMMENT="" />
    <EXPORT ORDINAL="12" NAME="??0VxLogListener@@IAE@PBD@Z" PURGE="4" COMMENT="" />
    <EXPORT ORDINAL="13" NAME="??0VxMemoryMappedFile@@QAE@PAD@Z" PURGE="4" COMMENT="" />
    <EXPORT ORDINAL="14" NAME="??0VxMutex@@QAE@XZ" PURGE="0" COMMENT="" />
    <EXPORT ORDINAL="15" NAME="??0VxRDTSCProfiler@@QAE@H@Z" PURGE="4" COMMENT="" />
    <EXPORT ORDINAL="16" NAME="??0VxRDTSCProfiler@@QAE@XZ" PURGE="0" COMMENT="" />
    <EXPORT ORDINAL="17" NAME="??0VxSharedLibrary@@QAE@XZ" PURGE="0" COMMENT="" />
    <EXPORT ORDINAL="18" NAME="??0VxStream@@QAE@ABV0@@Z" PURGE="4" COMMENT="" />
    <EXPORT ORDINAL="19" NAME="??0VxStream@@QAE@XZ" PURGE="0" COMMENT="" />
    <EXPORT ORDINAL="20" NAME="??0VxThread@@QAE@XZ" PURGE="0" COMMENT="" />
    <EXPORT ORDINAL="21" NAME="??0VxTimeProfiler@@QAE@H@Z" PURGE="4" COMMENT="" />
    <EXPORT ORDINAL="22" NAME="??0VxTimeProfiler@@QAE@XZ" PURGE="0" COMMENT="" />
    <EXPORT ORDINAL="23" NAME="??0XFixedSizeAllocator@@QAE@HH@Z" PURGE="8" COMMENT="" />
    <EXPORT ORDINAL="24" NAME="??0XString@@QAE@ABV0@@Z" PURGE="4" COMMENT="" />
    <EXPORT ORDINAL="25" NAME="??0XString@@QAE@ABVXBaseString@@@Z" PURGE="4" COMMENT="" />
    <EXPORT ORDINAL="26" NAME="??0XString@@QAE@H@Z" PURGE="4" COMMENT="" />
    <EXPORT ORDINAL="27" NAME="??0XString@@QAE@PBDH@Z" PURGE="8" COMMENT="" />
    <EXPORT ORDINAL="28" NAME="??1CKDirectoryParser@@QAE@XZ" PURGE="0" COMMENT="" />
    <EXPORT ORDINAL="29" NAME="??1CKPathSplitter@@QAE@XZ" PURGE="0" COMMENT="" />
    <EXPORT ORDINAL="30" NAME="??1VxBigFile@@QAE@XZ" PURGE="0" COMMENT="" />
    <EXPORT ORDINAL="31" NAME="??1VxCachedFile@@UAE@XZ" PURGE="0" COMMENT="" />
    <EXPORT ORDINAL="32" NAME="??1VxConfig@@QAE@XZ" PURGE="0" COMMENT="" />
    <EXPORT ORDINAL="33" NAME="??1VxConfiguration@@QAE@XZ" PURGE="0" COMMENT="" />
    <EXPORT ORDINAL="34" NAME="??1VxConfigurationEntry@@QAE@XZ" PURGE="0" COMMENT="" />
    <EXPORT ORDINAL="35" NAME="??1VxConfigurationSection@@QAE@XZ" PURGE="0" COMMENT="" />
    <EXPORT ORDINAL="36" NAME="??1VxConsoleListener@@UAE@XZ" PURGE="0" COMMENT="" />
    <EXPORT ORDINAL="37" NAME="??1VxFile@@UAE@XZ" PURGE="0" COMMENT="" />
    <EXPORT ORDINAL="38" NAME="??1VxFileListener@@UAE@XZ" PURGE="0" COMMENT="" />
    <EXPORT ORDINAL="39" NAME="??1VxLogListener@@UAE@XZ" PURGE="0" COMMENT="" />
    <EXPORT ORDINAL="40" NAME="??1VxMemoryMappedFile@@QAE@XZ" PURGE="0" COMMENT="" />
    <EXPORT ORDINAL="41" NAME="??1VxMutex@@QAE@XZ" PURGE="0" COMMENT="" />
    <EXPORT ORDINAL="42" NAME="??1VxThread@@UAE@XZ" PURGE="0" COMMENT="" />
    <EXPORT ORDINAL="43" NAME="??1XFixedSizeAllocator@@QAE@XZ" PURGE="0" COMMENT="" />
    <EXPORT ORDINAL="44" NAME="??1XString@@QAE@XZ" PURGE="0" COMMENT="" />
    <EXPORT ORDINAL="45" NAME="??4CKPathMaker@@QAEAAV0@ABV0@@Z" PURGE="4" COMMENT="" />
    <EXPORT ORDINAL="46" NAME="??4CKPathSplitter@@QAEAAV0@ABV0@@Z" PURGE="4" COMMENT="" />
    <EXPORT ORDINAL="47" NAME="??4VxCachedFile@@QAEAAV0@ABV0@@Z" PURGE="4" COMMENT="" />
    <EXPORT ORDINAL="48" NAME="??4VxFile@@QAEAAV0@ABV0@@Z" PURGE="4" COMMENT="" />
    <EXPORT ORDINAL="49" NAME="??4VxRDTSCProfiler@@QAEAAV0@ABV0@@Z" PURGE="4" COMMENT="" />
    <EXPORT ORDINAL="50" NAME="??4VxStream@@QAEAAV0@ABV0@@Z" PURGE="4" COMMENT="" />
    <EXPORT ORDINAL="51" NAME="??4VxTimeProfiler@@QAEAAV0@ABV0@@Z" PURGE="4" COMMENT="" />
    <EXPORT ORDINAL="52" NAME="??4VxVector@@QAEAAU0@ABUVxCompressedVector@@@Z" PURGE="4" COMMENT="" />
    <EXPORT ORDINAL="53" NAME="??4XString@@QAEAAV0@ABV0@@Z" PURGE="4" COMMENT="" />
    <EXPORT ORDINAL="54" NAME="??4XString@@QAEAAV0@ABVXBaseString@@@Z" PURGE="4" COMMENT="" />
    <EXPORT ORDINAL="55" NAME="??4XString@@QAEAAV0@PBD@Z" PURGE="4" COMMENT="" />
    <EXPORT ORDINAL="56" NAME="??6XString@@QAEAAV0@ABVXBaseString@@@Z" PURGE="4" COMMENT="" />
    <EXPORT ORDINAL="57" NAME="??6XString@@QAEAAV0@D@Z" PURGE="4" COMMENT="" />
    <EXPORT ORDINAL="58" NAME="??6XString@@QAEAAV0@H@Z" PURGE="4" COMMENT="" />
    <EXPORT ORDINAL="59" NAME="??6XString@@QAEAAV0@I@Z" PURGE="4" COMMENT="" />
    <EXPORT ORDINAL="60" NAME="??6XString@@QAEAAV0@M@Z" PURGE="4" COMMENT="" />
    <EXPORT ORDINAL="61" NAME="??6XString@@QAEAAV0@PBD@Z" PURGE="4" COMMENT="" />
    <EXPORT ORDINAL="62" NAME="??6XString@@QAEAAV0@PBX@Z" PURGE="4" COMMENT="" />
    <EXPORT ORDINAL="63" NAME="??EVxMutex@@QAEHH@Z" PURGE="4" COMMENT="" />
    <EXPORT ORDINAL="64" NAME="??FVxMutex@@QAEHH@Z" PURGE="4" COMMENT="" />
    <EXPORT ORDINAL="65" NAME="??HXString@@QBE?AV0@ABVXBaseString@@@Z" PURGE="8" COMMENT="" />
    <EXPORT ORDINAL="66" NAME="??HXString@@QBE?AV0@D@Z" PURGE="8" COMMENT="" />
    <EXPORT ORDINAL="67" NAME="??HXString@@QBE?AV0@H@Z" PURGE="8" COMMENT="" />
    <EXPORT ORDINAL="68" NAME="??HXString@@QBE?AV0@I@Z" PURGE="8" COMMENT="" />
    <EXPORT ORDINAL="69" NAME="??HXString@@QBE?AV0@M@Z" PURGE="8" COMMENT="" />
    <EXPORT ORDINAL="70" NAME="??HXString@@QBE?AV0@PBD@Z" PURGE="8" COMMENT="" />
    <EXPORT ORDINAL="71" NAME="??_7VxCachedFile@@6B@" PURGE="-1" COMMENT="" />
    <EXPORT ORDINAL="72" NAME="??_7VxFile@@6B@" PURGE="-1" COMMENT="" />
    <EXPORT ORDINAL="73" NAME="??_7VxStream@@6B@" PURGE="-1" COMMENT="" />
    <EXPORT ORDINAL="74" NAME="??_FVxCachedFile@@QAEXXZ" PURGE="0" COMMENT="" />
    <EXPORT ORDINAL="75" NAME="??_FVxConfiguration@@QAEXXZ" PURGE="0" COMMENT="" />
    <EXPORT ORDINAL="76" NAME="?AABBAABB@VxIntersect@@SAHABUVxBbox@@0@Z" PURGE="0" COMMENT="" />
    <EXPORT ORDINAL="77" NAME="?AABBFace@VxIntersect@@SAHABUVxBbox@@ABUVxVector@@111@Z" PURGE="0" COMMENT="" />
    <EXPORT ORDINAL="78" NAME="?AABBOBB@VxIntersect@@SAHABUVxBbox@@ABVVxOBB@@@Z" PURGE="0" COMMENT="" />
    <EXPORT ORDINAL="79" NAME="?AddDefaultEntry@VxConfiguration@@QAEHPAD0H@Z" PURGE="12" COMMENT="" />
    <EXPORT ORDINAL="80" NAME="?AddDefaultEntry@VxConfiguration@@QAEHPAD0I@Z" PURGE="12" COMMENT="" />
    <EXPORT ORDINAL="81" NAME="?AddDefaultEntry@VxConfiguration@@QAEHPAD0M@Z" PURGE="12" COMMENT="" />
    <EXPORT ORDINAL="82" NAME="?AddDefaultEntry@VxConfiguration@@QAEHPAD0PBD@Z" PURGE="12" COMMENT="" />
    <EXPORT ORDINAL="83" NAME="?AddEntry@VxConfiguration@@QAEHPAD0HPAPAVVxConfigurationEntry@@@Z" PURGE="16" COMMENT="" />
    <EXPORT ORDINAL="84" NAME="?AddEntry@VxConfiguration@@QAEHPAD0IPAPAVVxConfigurationEntry@@@Z" PURGE="16" COMMENT="" />
    <EXPORT ORDINAL="85" NAME="?AddEntry@VxConfiguration@@QAEHPAD0MPAPAVVxConfigurationEntry@@@Z" PURGE="16" COMMENT="" />
    <EXPORT ORDINAL="86" NAME="?AddEntry@VxConfiguration@@QAEHPAD0PBDPAPAVVxConfigurationEntry@@@Z" PURGE="16" COMMENT="" />
    <EXPORT ORDINAL="87" NAME="?AddEntry@VxConfigurationSection@@QAEXPADHPAPAVVxConfigurationEntry@@@Z" PURGE="12" COMMENT="" />
    <EXPORT ORDINAL="88" NAME="?AddEntry@VxConfigurationSection@@QAEXPADIPAPAVVxConfigurationEntry@@@Z" PURGE="12" COMMENT="" />
    <EXPORT ORDINAL="89" NAME="?AddEntry@VxConfigurationSection@@QAEXPADMPAPAVVxConfigurationEntry@@@Z" PURGE="12" COMMENT="" />
    <EXPORT ORDINAL="90" NAME="?AddEntry@VxConfigurationSection@@QAEXPADPBDPAPAVVxConfigurationEntry@@@Z" PURGE="12" COMMENT="" />
    <EXPORT ORDINAL="91" NAME="?AddModule@VxLogListener@@QAEXH@Z" PURGE="4" COMMENT="" />
    <EXPORT ORDINAL="92" NAME="?Allocate@VxAllocator@@QAEPAXI@Z" PURGE="4" COMMENT="" />
    <EXPORT ORDINAL="93" NAME="?Allocate@XFixedSizeAllocator@@QAEPAXXZ" PURGE="0" COMMENT="" />
    <EXPORT ORDINAL="94" NAME="?AllocateMemory@VxAllocator@@QAEPAXI@Z" PURGE="4" COMMENT="" />
    <EXPORT ORDINAL="95" NAME="?AllocatePool@VxAllocator@@QAEPAXI@Z" PURGE="4" COMMENT="" />
    <EXPORT ORDINAL="96" NAME="?AllocateScratch@VxAllocator@@QAEPAXI@Z" PURGE="4" COMMENT="" />
    <EXPORT ORDINAL="97" NAME="?AllocateScratchString@VxAllocator@@QAEPAVXString@@XZ" PURGE="0" COMMENT="" />
    <EXPORT ORDINAL="98" NAME="?AllocateString@VxAllocator@@QAEPADI@Z" PURGE="4" COMMENT="" />
    <EXPORT ORDINAL="99" NAME="?AllocateString@VxAllocator@@QAEPADPBD@Z" PURGE="4" COMMENT="" />
    <EXPORT ORDINAL="100" NAME="?Append@VxBigFile@@QAEHPBD0HH@Z" PURGE="16" COMMENT="" />
    <EXPORT ORDINAL="101" NAME="?Append@VxBigFile@@QAEHPBDPBXI@Z" PURGE="12" COMMENT="" />
    <EXPORT ORDINAL="102" NAME="?Attach@VxSharedLibrary@@QAEXPAX@Z" PURGE="4" COMMENT="" />
    <EXPORT ORDINAL="103" NAME="?BeginChildEntry@VxConfigurationSection@@QBE?AVConstIterator@?$XHashTable@PAVVxConfigurationEntry@@VXString@@U?$XHashFun@VXString@@@@U?$XEqual@VXString@@@@@@XZ" PURGE="4" COMMENT="" />
    <EXPORT ORDINAL="104" NAME="?BeginChildSection@VxConfigurationSection@@QBE?AVConstIterator@?$XHashTable@PAVVxConfigurationSection@@VXString@@U?$XHashFun@VXString@@@@U?$XEqual@VXString@@@@@@XZ" PURGE="4" COMMENT="" />
    <EXPORT ORDINAL="105" NAME="?BeginEntries@VxConfiguration@@QBE?AVConstIterator@?$XHashTable@PAVVxConfigurationEntry@@VXString@@U?$XHashFun@VXString@@@@U?$XEqual@VXString@@@@@@XZ" PURGE="4" COMMENT="" />
    <EXPORT ORDINAL="106" NAME="?BeginSections@VxConfiguration@@QBE?AVConstIterator@?$XHashTable@PAVVxConfigurationSection@@VXString@@U?$XHashFun@VXString@@@@U?$XEqual@VXString@@@@@@XZ" PURGE="4" COMMENT="" />
    <EXPORT ORDINAL="107" NAME="?BoxPlane@VxIntersect@@SAHABUVxBbox@@ABVVxMatrix@@ABVVxPlane@@@Z" PURGE="0" COMMENT="" />
    <EXPORT ORDINAL="108" NAME="?BoxPlane@VxIntersect@@SAHABUVxBbox@@ABVVxPlane@@@Z" PURGE="0" COMMENT="" />
    <EXPORT ORDINAL="109" NAME="?BuildFromDataFile@VxConfiguration@@QAEHPBDAAVXString@@@Z" PURGE="8" COMMENT="" />
    <EXPORT ORDINAL="110" NAME="?BuildFromFile@VxConfiguration@@QAEHPBDAAHAAVXString@@@Z" PURGE="12" COMMENT="" />
    <EXPORT ORDINAL="111" NAME="?BuildFromMemory@VxConfiguration@@QAEHPBDAAHAAVXString@@@Z" PURGE="12" COMMENT="" />
    <EXPORT ORDINAL="112" NAME="?Classify@VxBbox@@QBEHABU1@ABUVxVector@@@Z" PURGE="8" COMMENT="" />
    <EXPORT ORDINAL="113" NAME="?ClassifyVertices@VxBbox@@QBEXHPAEKPAK@Z" PURGE="16" COMMENT="" />
    <EXPORT ORDINAL="114" NAME="?ClassifyVerticesOneAxis@VxBbox@@QBEXHPAEKHPAK@Z" PURGE="20" COMMENT="" />
    <EXPORT ORDINAL="115" NAME="?Clear@VxConfiguration@@QAEXXZ" PURGE="0" COMMENT="" />
    <EXPORT ORDINAL="116" NAME="?Clear@VxConfigurationSection@@QAEXXZ" PURGE="0" COMMENT="" />
    <EXPORT ORDINAL="117" NAME="?Clear@XFixedSizeAllocator@@QAEXXZ" PURGE="0" COMMENT="" />
    <EXPORT ORDINAL="118" NAME="?ClearDefault@VxConfiguration@@QAEXXZ" PURGE="0" COMMENT="" />
    <EXPORT ORDINAL="119" NAME="?Close@VxCachedFile@@UAEHXZ" PURGE="0" COMMENT="" />
    <EXPORT ORDINAL="120" NAME="?Close@VxFile@@UAEHXZ" PURGE="0" COMMENT="" />
    <EXPORT ORDINAL="121" NAME="?Close@VxThread@@QAEXXZ" PURGE="0" COMMENT="" />
    <EXPORT ORDINAL="122" NAME="?CloseSection@VxConfig@@QAEXPAD@Z" PURGE="-1" COMMENT="" />
    <EXPORT ORDINAL="123" NAME="?Compare@VxMatrix@@QBEHABV1@@Z" PURGE="4" COMMENT="" />
    <EXPORT ORDINAL="124" NAME="?ComputeVertices@VxFrustum@@QBEXQAUVxVector@@@Z" PURGE="4" COMMENT="" />
    <EXPORT ORDINAL="125" NAME="?Copy@VxStream@@UAEIAAV1@I@Z" PURGE="8" COMMENT="" />
    <EXPORT ORDINAL="126" NAME="?Covariance@VxEigenMatrix@@QAEXPBEKH@Z" PURGE="12" COMMENT="" />
    <EXPORT ORDINAL="127" NAME="?Create@VxPlane@@QAEXABUVxVector@@00@Z" PURGE="12" COMMENT="" />
    <EXPORT ORDINAL="128" NAME="?Create@VxPlane@@QAEXABUVxVector@@0@Z" PURGE="8" COMMENT="" />
    <EXPORT ORDINAL="129" NAME="?Create@XString@@QAEAAV1@PBDH@Z" PURGE="8" COMMENT="" />
    <EXPORT ORDINAL="130" NAME="?CreateDefaultSubSection@VxConfiguration@@QAEPAVVxConfigurationSection@@PAD0@Z" PURGE="8" COMMENT="" />
    <EXPORT ORDINAL="131" NAME="?CreateSubSection@VxConfiguration@@QAEPAVVxConfigurationSection@@PAD0@Z" PURGE="8" COMMENT="" />
    <EXPORT ORDINAL="132" NAME="?CreateSubSection@VxConfigurationSection@@QAEPAV1@PAD@Z" PURGE="4" COMMENT="" />
    <EXPORT ORDINAL="133" NAME="?CreateTail@XString@@QAEAAV1@ABVXBaseString@@H@Z" PURGE="8" COMMENT="" />
    <EXPORT ORDINAL="134" NAME="?CreateThread@VxThread@@QAEHP6AIPAX@Z0@Z" PURGE="8" COMMENT="" />
    <EXPORT ORDINAL="135" NAME="?Crop@XString@@QAEAAV1@GG@Z" PURGE="8" COMMENT="" />
    <EXPORT ORDINAL="136" NAME="?Current@VxRDTSCProfiler@@QAEMXZ" PURGE="0" COMMENT="" />
    <EXPORT ORDINAL="137" NAME="?Current@VxTimeProfiler@@QAEMXZ" PURGE="0" COMMENT="" />
    <EXPORT ORDINAL="138" NAME="?CurrentCycleCount@VxRDTSCProfiler@@QAEHXZ" PURGE="0" COMMENT="" />
    <EXPORT ORDINAL="139" NAME="?Cut@XString@@QAEAAV1@GG@Z" PURGE="8" COMMENT="" />
    <EXPORT ORDINAL="140" NAME="?DeleteEntry@VxConfiguration@@QAEHPAD0@Z" PURGE="8" COMMENT="" />
    <EXPORT ORDINAL="141" NAME="?DeleteEntry@VxConfigurationSection@@QAEHPAD@Z" PURGE="4" COMMENT="" />
    <EXPORT ORDINAL="142" NAME="?DeleteSection@VxConfiguration@@QAEHPAD0@Z" PURGE="8" COMMENT="" />
    <EXPORT ORDINAL="143" NAME="?DeleteSection@VxConfigurationSection@@QAEHPAD@Z" PURGE="4" COMMENT="" />
    <EXPORT ORDINAL="144" NAME="?DumpStats@VxAllocator@@QAEXPBD@Z" PURGE="4" COMMENT="" />
    <EXPORT ORDINAL="145" NAME="?EigenStuff3@VxEigenMatrix@@QAEXXZ" PURGE="0" COMMENT="" />
    <EXPORT ORDINAL="146" NAME="?EndOfFile@VxFile@@UAEHXZ" PURGE="0" COMMENT="" />
    <EXPORT ORDINAL="147" NAME="?EnterMutex@VxMutex@@QAEHXZ" PURGE="0" COMMENT="" />
    <EXPORT ORDINAL="148" NAME="?Exp@@YA?AUVxQuaternion@@ABU1@@Z" PURGE="0" COMMENT="" />
    <EXPORT ORDINAL="149" NAME="?FaceFace@VxIntersect@@SAHABUVxVector@@0000000@Z" PURGE="0" COMMENT="" />
    <EXPORT ORDINAL="150" NAME="?Find@VxBigFile@@QAEHPBDPAVVxSubFile@@@Z" PURGE="8" COMMENT="" />
    <EXPORT ORDINAL="151" NAME="?Find@XString@@QBEGABVXBaseString@@G@Z" PURGE="8" COMMENT="" />
    <EXPORT ORDINAL="152" NAME="?Find@XString@@QBEGDG@Z" PURGE="8" COMMENT="" />
    <EXPORT ORDINAL="153" NAME="?Flush@VxCachedFile@@UAEIXZ" PURGE="0" COMMENT="" />
    <EXPORT ORDINAL="154" NAME="?Flush@VxFile@@UAEIXZ" PURGE="0" COMMENT="" />
    <EXPORT ORDINAL="155" NAME="?Format@XString@@QAAAAV1@PBDZZ" PURGE="0" COMMENT="" />
    <EXPORT ORDINAL="156" NAME="?FormatTime@XString@@QAEAAV1@HPBD@Z" PURGE="8" COMMENT="" />
    <EXPORT ORDINAL="157" NAME="?FormatTime@XString@@QAEAAV1@PBD@Z" PURGE="4" COMMENT="" />
    <EXPORT ORDINAL="158" NAME="?Free@XFixedSizeAllocator@@QAEXPAX@Z" PURGE="4" COMMENT="" />
    <EXPORT ORDINAL="159" NAME="?FromEulerAngles@VxQuaternion@@QAEXMMM@Z" PURGE="12" COMMENT="" />
    <EXPORT ORDINAL="160" NAME="?FromMatrix@VxQuaternion@@QAEXABVVxMatrix@@HH@Z" PURGE="12" COMMENT="" />
    <EXPORT ORDINAL="161" NAME="?FromRotation@VxQuaternion@@QAEXABUVxVector@@M@Z" PURGE="8" COMMENT="" />
    <EXPORT ORDINAL="162" NAME="?FrustumAABB@VxIntersect@@SAHABVVxFrustum@@ABUVxBbox@@@Z" PURGE="0" COMMENT="" />
    <EXPORT ORDINAL="163" NAME="?FrustumBox@VxIntersect@@SAHABVVxFrustum@@ABUVxBbox@@ABVVxMatrix@@@Z" PURGE="0" COMMENT="" />
    <EXPORT ORDINAL="164" NAME="?FrustumFace@VxIntersect@@SAHABVVxFrustum@@ABUVxVector@@11@Z" PURGE="0" COMMENT="" />
    <EXPORT ORDINAL="165" NAME="?FrustumOBB@VxIntersect@@SAHABVVxFrustum@@ABUVxBbox@@ABVVxMatrix@@@Z" PURGE="0" COMMENT="" />
    <EXPORT ORDINAL="166" NAME="?GetAllocatedScratchCount@VxAllocator@@QAEHXZ" PURGE="0" COMMENT="" />
    <EXPORT ORDINAL="167" NAME="?GetAllocatedScratchMemory@VxAllocator@@QAEIXZ" PURGE="0" COMMENT="" />
    <EXPORT ORDINAL="168" NAME="?GetBase@VxMemoryMappedFile@@QAEPAXXZ" PURGE="0" COMMENT="" />
    <EXPORT ORDINAL="169" NAME="?GetBitCount@@YAKK@Z" PURGE="0" COMMENT="" />
    <EXPORT ORDINAL="170" NAME="?GetBitShift@@YAKK@Z" PURGE="0" COMMENT="" />
    <EXPORT ORDINAL="171" NAME="?GetCacheSize@VxCachedFile@@QAEIXZ" PURGE="0" COMMENT="" />
    <EXPORT ORDINAL="172" NAME="?GetChunksOccupation@XFixedSizeAllocator@@QAEHXZ" PURGE="0" COMMENT="" />
    <EXPORT ORDINAL="173" NAME="?GetChunksTotalSize@XFixedSizeAllocator@@QAEHXZ" PURGE="0" COMMENT="" />
    <EXPORT ORDINAL="174" NAME="?GetCurrentVxThread@VxThread@@SAPAV1@XZ" PURGE="0" COMMENT="" />
    <EXPORT ORDINAL="175" NAME="?GetCurrentVxThreadId@VxThread@@SAKXZ" PURGE="-1" COMMENT="" />
    <EXPORT ORDINAL="176" NAME="?GetDateAsString@VxLogListener@@QAEXW4TimeFormat@1@AAVXString@@@Z" PURGE="8" COMMENT="" />
    <EXPORT ORDINAL="177" NAME="?GetDir@CKPathSplitter@@QAEPADXZ" PURGE="0" COMMENT="" />
    <EXPORT ORDINAL="178" NAME="?GetDirectory@VxFileListener@@QBEPBDXZ" PURGE="0" COMMENT="" />
    <EXPORT ORDINAL="179" NAME="?GetDrive@CKPathSplitter@@QAEPADXZ" PURGE="0" COMMENT="" />
    <EXPORT ORDINAL="180" NAME="?GetEntry@VxConfiguration@@QBEPAVVxConfigurationEntry@@PADH@Z" PURGE="8" COMMENT="" />
    <EXPORT ORDINAL="181" NAME="?GetEntry@VxConfigurationSection@@QBEPAVVxConfigurationEntry@@PAD@Z" PURGE="4" COMMENT="" />
    <EXPORT ORDINAL="182" NAME="?GetErrorType@VxMemoryMappedFile@@QAE?AW4VxMMF_Error@@XZ" PURGE="0" COMMENT="" />
    <EXPORT ORDINAL="183" NAME="?GetExitCode@VxThread@@QAEHAAI@Z" PURGE="4" COMMENT="" />
    <EXPORT ORDINAL="184" NAME="?GetExt@VxFileListener@@QBEPBDXZ" PURGE="0" COMMENT="" />
    <EXPORT ORDINAL="185" NAME="?GetExtension@CKPathSplitter@@QAEPADXZ" PURGE="0" COMMENT="" />
    <EXPORT ORDINAL="186" NAME="?GetFileMode@VxFile@@SAIPBD@Z" PURGE="0" COMMENT="" />
    <EXPORT ORDINAL="187" NAME="?GetFileName@CKPathMaker@@QAEPADXZ" PURGE="0" COMMENT="" />
    <EXPORT ORDINAL="188" NAME="?GetFileSize@VxMemoryMappedFile@@QAEKXZ" PURGE="0" COMMENT="" />
    <EXPORT ORDINAL="189" NAME="?GetFlags@VxLogListener@@QBEHXZ" PURGE="0" COMMENT="" />
    <EXPORT ORDINAL="190" NAME="?GetFunctionPtr@VxSharedLibrary@@QAEPAXPAD@Z" PURGE="4" COMMENT="" />
    <EXPORT ORDINAL="191" NAME="?GetGlobalStats@VxAllocator@@QBEABUStats@1@XZ" PURGE="0" COMMENT="" />
    <EXPORT ORDINAL="192" NAME="?GetHandle@VxThread@@QBEQAXXZ" PURGE="0" COMMENT="" />
    <EXPORT ORDINAL="193" NAME="?GetID@VxThread@@QBEKXZ" PURGE="0" COMMENT="" />
    <EXPORT ORDINAL="194" NAME="?GetLevel@VxLogListener@@QBEHXZ" PURGE="0" COMMENT="" />
    <EXPORT ORDINAL="195" NAME="?GetLevelDesc@VxLog@@SAPBDW4Level@1@@Z" PURGE="0" COMMENT="" />
    <EXPORT ORDINAL="196" NAME="?GetListener@VxLog@@QAEPAVVxLogListener@@PBD@Z" PURGE="4" COMMENT="" />
    <EXPORT ORDINAL="197" NAME="?GetListener@VxLog@@QBEPBVVxLogListener@@PBD@Z" PURGE="4" COMMENT="" />
    <EXPORT ORDINAL="198" NAME="?GetLog@VxLog@@SAAAV1@XZ" PURGE="0" COMMENT="" />
    <EXPORT ORDINAL="199" NAME="?GetModule@VxLog@@QBEPBDH@Z" PURGE="4" COMMENT="" />
    <EXPORT ORDINAL="200" NAME="?GetName@CKPathSplitter@@QAEPADXZ" PURGE="0" COMMENT="" />
    <EXPORT ORDINAL="201" NAME="?GetName@VxConfigurationEntry@@QBEPBDXZ" PURGE="0" COMMENT="" />
    <EXPORT ORDINAL="202" NAME="?GetName@VxConfigurationSection@@QBEPBDXZ" PURGE="0" COMMENT="" />
    <EXPORT ORDINAL="203" NAME="?GetName@VxLogListener@@QBEABVXString@@XZ" PURGE="0" COMMENT="" />
    <EXPORT ORDINAL="204" NAME="?GetName@VxThread@@QBEABVXString@@XZ" PURGE="0" COMMENT="" />
    <EXPORT ORDINAL="205" NAME="?GetNextChildEntry@VxConfigurationSection@@QBEPAVVxConfigurationEntry@@AAVConstIterator@?$XHashTable@PAVVxConfigurationEntry@@VXString@@U?$XHashFun@VXString@@@@U?$XEqual@VXString@@@@@@@Z" PURGE="4" COMMENT="" />
    <EXPORT ORDINAL="206" NAME="?GetNextChildSection@VxConfigurationSection@@QBEPAV1@AAVConstIterator@?$XHashTable@PAVVxConfigurationSection@@VXString@@U?$XHashFun@VXString@@@@U?$XEqual@VXString@@@@@@@Z" PURGE="4" COMMENT="" />
    <EXPORT ORDINAL="207" NAME="?GetNextEntry@VxConfiguration@@QBEPAVVxConfigurationEntry@@AAVConstIterator@?$XHashTable@PAVVxConfigurationEntry@@VXString@@U?$XHashFun@VXString@@@@U?$XEqual@VXString@@@@@@@Z" PURGE="4" COMMENT="" />
    <EXPORT ORDINAL="208" NAME="?GetNextFile@CKDirectoryParser@@QAEPADXZ" PURGE="0" COMMENT="" />
    <EXPORT ORDINAL="209" NAME="?GetNextSection@VxConfiguration@@QBEPAVVxConfigurationSection@@AAVConstIterator@?$XHashTable@PAVVxConfigurationSection@@VXString@@U?$XHashFun@VXString@@@@U?$XEqual@VXString@@@@@@@Z" PURGE="4" COMMENT="" />
    <EXPORT ORDINAL="210" NAME="?GetNumberOfEntries@VxConfiguration@@QBEHXZ" PURGE="0" COMMENT="" />
    <EXPORT ORDINAL="211" NAME="?GetNumberOfEntries@VxConfigurationSection@@QBEHXZ" PURGE="0" COMMENT="" />
    <EXPORT ORDINAL="212" NAME="?GetNumberOfEntriesRecursive@VxConfiguration@@QBEHXZ" PURGE="0" COMMENT="" />
    <EXPORT ORDINAL="213" NAME="?GetNumberOfEntriesRecursive@VxConfigurationSection@@QBEHXZ" PURGE="0" COMMENT="" />
    <EXPORT ORDINAL="214" NAME="?GetNumberOfSubSections@VxConfiguration@@QBEHXZ" PURGE="0" COMMENT="" />
    <EXPORT ORDINAL="215" NAME="?GetNumberOfSubSections@VxConfigurationSection@@QBEHXZ" PURGE="0" COMMENT="" />
    <EXPORT ORDINAL="216" NAME="?GetNumberOfSubSectionsRecursive@VxConfiguration@@QBEHXZ" PURGE="0" COMMENT="" />
    <EXPORT ORDINAL="217" NAME="?GetNumberOfSubSectionsRecursive@VxConfigurationSection@@QBEHXZ" PURGE="0" COMMENT="" />
    <EXPORT ORDINAL="218" NAME="?GetParent@VxConfigurationEntry@@QBEPAVVxConfigurationSection@@XZ" PURGE="0" COMMENT="" />
    <EXPORT ORDINAL="219" NAME="?GetParent@VxConfigurationSection@@QBEPAV1@XZ" PURGE="0" COMMENT="" />
    <EXPORT ORDINAL="220" NAME="?GetPointCoefficients@VxIntersect@@SAXABUVxVector@@000ABH1AAM22@Z" PURGE="0" COMMENT="" />
    <EXPORT ORDINAL="221" NAME="?GetPriority@VxThread@@QBEIXZ" PURGE="0" COMMENT="" />
    <EXPORT ORDINAL="222" NAME="?GetProcessorDescription@@YAPADXZ" PURGE="0" COMMENT="" />
    <EXPORT ORDINAL="223" NAME="?GetProcessorFeatures@@YAKXZ" PURGE="0" COMMENT="" />
    <EXPORT ORDINAL="224" NAME="?GetProcessorFrequency@@YAHXZ" PURGE="0" COMMENT="" />
    <EXPORT ORDINAL="225" NAME="?GetProcessorType@@YA?AW4ProcessorsType@@XZ" PURGE="0" COMMENT="" />
    <EXPORT ORDINAL="226" NAME="?GetQuantizationSamplingFactor@@YAHXZ" PURGE="0" COMMENT="" />
    <EXPORT ORDINAL="227" NAME="?GetString@VxCachedFile@@UAEHPADI@Z" PURGE="8" COMMENT="" />
    <EXPORT ORDINAL="228" NAME="?GetString@VxFile@@UAEHPADI@Z" PURGE="8" COMMENT="" />
    <EXPORT ORDINAL="229" NAME="?GetSubSection@VxConfiguration@@QBEPAVVxConfigurationSection@@PADH@Z" PURGE="8" COMMENT="" />
    <EXPORT ORDINAL="230" NAME="?GetSubSection@VxConfigurationSection@@QBEPAV1@PAD@Z" PURGE="4" COMMENT="" />
    <EXPORT ORDINAL="231" NAME="?GetTimeFormatValue@VxLogListener@@QBE?AW4TimeFormat@1@XZ" PURGE="0" COMMENT="" />
    <EXPORT ORDINAL="232" NAME="?GetValue@VxConfigurationEntry@@QBEPBDXZ" PURGE="0" COMMENT="" />
    <EXPORT ORDINAL="233" NAME="?GetValueAsFloat@VxConfigurationEntry@@QBEHAAM@Z" PURGE="4" COMMENT="" />
    <EXPORT ORDINAL="234" NAME="?GetValueAsInteger@VxConfigurationEntry@@QBEHAAH@Z" PURGE="4" COMMENT="" />
    <EXPORT ORDINAL="235" NAME="?GetValueAsUnsignedInteger@VxConfigurationEntry@@QBEHAAI@Z" PURGE="4" COMMENT="" />
    <EXPORT ORDINAL="236" NAME="?ICompare@XString@@QBEHABVXBaseString@@@Z" PURGE="4" COMMENT="" />
    <EXPORT ORDINAL="237" NAME="?IFind@XString@@QBEGABVXBaseString@@G@Z" PURGE="8" COMMENT="" />
    <EXPORT ORDINAL="238" NAME="?Identity@VxMatrix@@SAABV1@XZ" PURGE="0" COMMENT="" />
    <EXPORT ORDINAL="239" NAME="?Instance@VxAllocator@@SAAAV1@XZ" PURGE="0" COMMENT="" />
    <EXPORT ORDINAL="240" NAME="?InterpolateFloatArray@@YAXPAX00MH@Z" PURGE="0" COMMENT="" />
    <EXPORT ORDINAL="241" NAME="?InterpolateVectorArray@@YAXPAX00MHKK@Z" PURGE="0" COMMENT="" />
    <EXPORT ORDINAL="242" NAME="?IsCreated@VxThread@@QBEHXZ" PURGE="0" COMMENT="" />
    <EXPORT ORDINAL="243" NAME="?IsJoinable@VxThread@@QBEHXZ" PURGE="0" COMMENT="" />
    <EXPORT ORDINAL="244" NAME="?IsMainThread@VxThread@@QBEHXZ" PURGE="0" COMMENT="" />
    <EXPORT ORDINAL="245" NAME="?IsModule@VxLog@@QBEHPBD@Z" PURGE="4" COMMENT="" />
    <EXPORT ORDINAL="246" NAME="?IsModule@VxLogListener@@QBEHH@Z" PURGE="4" COMMENT="" />
    <EXPORT ORDINAL="247" NAME="?IsStarted@VxThread@@QBEHXZ" PURGE="0" COMMENT="" />
    <EXPORT ORDINAL="248" NAME="?IsValid@VxFile@@UAEHXZ" PURGE="0" COMMENT="" />
    <EXPORT ORDINAL="249" NAME="?IsValid@VxMemoryMappedFile@@QAEHXZ" PURGE="0" COMMENT="" />
    <EXPORT ORDINAL="250" NAME="?IsValid@VxSubFile@@UAEHXZ" PURGE="0" COMMENT="" />
    <EXPORT ORDINAL="251" NAME="?LeaveMutex@VxMutex@@QAEHXZ" PURGE="0" COMMENT="" />
    <EXPORT ORDINAL="252" NAME="?LineBox@VxIntersect@@SAHABVVxRay@@ABUVxBbox@@@Z" PURGE="0" COMMENT="" />
    <EXPORT ORDINAL="253" NAME="?LineBox@VxIntersect@@SAHABVVxRay@@ABUVxBbox@@AAUVxVector@@PAU4@33@Z" PURGE="0" COMMENT="" />
    <EXPORT ORDINAL="254" NAME="?LineFace@VxIntersect@@SAHABVVxRay@@ABUVxVector@@111AAU3@AAM@Z" PURGE="0" COMMENT="" />
    <EXPORT ORDINAL="255" NAME="?LineFace@VxIntersect@@SAHABVVxRay@@ABUVxVector@@111AAU3@AAMAAH4@Z" PURGE="0" COMMENT="" />
    <EXPORT ORDINAL="256" NAME="?LineLineSquareDistance@VxDistance@@SAMABVVxRay@@0PAM1@Z" PURGE="0" COMMENT="" />
    <EXPORT ORDINAL="257" NAME="?LinePlane@VxIntersect@@SAHABVVxRay@@ABVVxPlane@@AAUVxVector@@AAM@Z" PURGE="0" COMMENT="" />
    <EXPORT ORDINAL="258" NAME="?LineRaySquareDistance@VxDistance@@SAMABVVxRay@@0PAM1@Z" PURGE="0" COMMENT="" />
    <EXPORT ORDINAL="259" NAME="?LineSegmentSquareDistance@VxDistance@@SAMABVVxRay@@0PAM1@Z" PURGE="0" COMMENT="" />
    <EXPORT ORDINAL="260" NAME="?ListenerFactory@VxConsoleListener@@SAPAVVxLogListener@@PBD@Z" PURGE="0" COMMENT="" />
    <EXPORT ORDINAL="261" NAME="?ListenerFactory@VxFileListener@@SAPAVVxLogListener@@PBD@Z" PURGE="0" COMMENT="" />
    <EXPORT ORDINAL="262" NAME="?ListenerFactory@VxOutputDebugListener@@SAPAVVxLogListener@@PBD@Z" PURGE="0" COMMENT="" />
    <EXPORT ORDINAL="263" NAME="?Ln@@YA?AUVxQuaternion@@ABU1@@Z" PURGE="0" COMMENT="" />
    <EXPORT ORDINAL="264" NAME="?LnDif@@YA?AUVxQuaternion@@ABU1@0@Z" PURGE="0" COMMENT="" />
    <EXPORT ORDINAL="265" NAME="?Load@VxSharedLibrary@@QAEPAXPAD@Z" PURGE="4" COMMENT="" />
    <EXPORT ORDINAL="266" NAME="?LoadIndex@VxBigFile@@QAEHPBD@Z" PURGE="4" COMMENT="" />
    <EXPORT ORDINAL="267" NAME="?ModifyProcessorFeatures@@YAXKK@Z" PURGE="0" COMMENT="" />
    <EXPORT ORDINAL="268" NAME="?Multiply@VxQuaternion@@QAEXABU1@@Z" PURGE="4" COMMENT="" />
    <EXPORT ORDINAL="269" NAME="?MultiplyAddVector4Array@@YAXPAX0ABVVxVector4@@1HKK@Z" PURGE="0" COMMENT="" />
    <EXPORT ORDINAL="270" NAME="?MultiplyAddVectorArray@@YAXPAX0ABUVxVector@@1HKK@Z" PURGE="0" COMMENT="" />
    <EXPORT ORDINAL="271" NAME="?MultiplyVector2Array@@YAXPAX0ABUVx2DVector@@HKK@Z" PURGE="0" COMMENT="" />
    <EXPORT ORDINAL="272" NAME="?MultiplyVector4Array@@YAXPAX0ABVVxVector4@@HKK@Z" PURGE="0" COMMENT="" />
    <EXPORT ORDINAL="273" NAME="?MultiplyVectorArray@@YAXPAX0ABUVxVector@@HKK@Z" PURGE="0" COMMENT="" />
    <EXPORT ORDINAL="274" NAME="?NextToken@XStringTokenizer@@QAEPBDPBD@Z" PURGE="4" COMMENT="" />
    <EXPORT ORDINAL="275" NAME="?Normalize@VxQuaternion@@QAEXXZ" PURGE="0" COMMENT="" />
    <EXPORT ORDINAL="276" NAME="?Normalize@VxVector@@QAEXXZ" PURGE="0" COMMENT="" />
    <EXPORT ORDINAL="277" NAME="?OBBOBB@VxIntersect@@SAHABVVxOBB@@0@Z" PURGE="0" COMMENT="" />
    <EXPORT ORDINAL="278" NAME="?Open@VxBigFile@@QAEHPBDH@Z" PURGE="8" COMMENT="" />
    <EXPORT ORDINAL="279" NAME="?Open@VxCachedFile@@UAEHPBDW4OpenMode@VxFile@@@Z" PURGE="8" COMMENT="" />
    <EXPORT ORDINAL="280" NAME="?Open@VxFile@@UAEHPBDW4OpenMode@1@@Z" PURGE="8" COMMENT="" />
    <EXPORT ORDINAL="281" NAME="?OpenSection@VxConfig@@QAEXPADW4Mode@1@@Z" PURGE="8" COMMENT="" />
    <EXPORT ORDINAL="282" NAME="?Planes@VxIntersect@@SAHABVVxPlane@@00AAUVxVector@@@Z" PURGE="0" COMMENT="" />
    <EXPORT ORDINAL="283" NAME="?PointInFace@VxIntersect@@SAHABUVxVector@@0000AAH1@Z" PURGE="0" COMMENT="" />
    <EXPORT ORDINAL="284" NAME="?PointLineSquareDistance@VxDistance@@SAMABUVxVector@@ABVVxRay@@PAM@Z" PURGE="0" COMMENT="" />
    <EXPORT ORDINAL="285" NAME="?PointRaySquareDistance@VxDistance@@SAMABUVxVector@@ABVVxRay@@PAM@Z" PURGE="0" COMMENT="" />
    <EXPORT ORDINAL="286" NAME="?PointSegmentSquareDistance@VxDistance@@SAMABUVxVector@@ABVVxRay@@PAM@Z" PURGE="0" COMMENT="" />
    <EXPORT ORDINAL="287" NAME="?Position@VxCachedFile@@UAEIXZ" PURGE="0" COMMENT="" />
    <EXPORT ORDINAL="288" NAME="?Position@VxFile@@UAEIXZ" PURGE="0" COMMENT="" />
    <EXPORT ORDINAL="289" NAME="?Position@VxSubFile@@UAEIXZ" PURGE="0" COMMENT="" />
    <EXPORT ORDINAL="290" NAME="?Print@VxLog@@QAAXPBDZZ" PURGE="0" COMMENT="" />
    <EXPORT ORDINAL="291" NAME="?PrintMT@VxLog@@QAAXPBDZZ" PURGE="0" COMMENT="" />
    <EXPORT ORDINAL="292" NAME="?Printf@VxFile@@UAAIPBDZZ" PURGE="0" COMMENT="" />
    <EXPORT ORDINAL="293" NAME="?QLAlgorithm@VxEigenMatrix@@QAE_NQAM0@Z" PURGE="8" COMMENT="" />
    <EXPORT ORDINAL="294" NAME="?RFind@XString@@QBEGDG@Z" PURGE="8" COMMENT="" />
    <EXPORT ORDINAL="295" NAME="?RGBAFTOCOLOR@@YAIMMMM@Z" PURGE="0" COMMENT="" />
    <EXPORT ORDINAL="296" NAME="?RGBAFTOCOLOR@@YAIPBUVxColor@@@Z" PURGE="0" COMMENT="" />
    <EXPORT ORDINAL="297" NAME="?RayBox@VxIntersect@@SAHABVVxRay@@ABUVxBbox@@@Z" PURGE="0" COMMENT="" />
    <EXPORT ORDINAL="298" NAME="?RayBox@VxIntersect@@SAHABVVxRay@@ABUVxBbox@@AAUVxVector@@PAU4@33@Z" PURGE="0" COMMENT="" />
    <EXPORT ORDINAL="299" NAME="?RayFace@VxIntersect@@SAHABVVxRay@@ABUVxVector@@111AAU3@AAM@Z" PURGE="0" COMMENT="" />
    <EXPORT ORDINAL="300" NAME="?RayFace@VxIntersect@@SAHABVVxRay@@ABUVxVector@@111AAU3@AAMAAH4@Z" PURGE="0" COMMENT="" />
    <EXPORT ORDINAL="301" NAME="?RayFaceCulled@VxIntersect@@SAHABVVxRay@@ABUVxVector@@111AAU3@AAMAAH4@Z" PURGE="0" COMMENT="" />
    <EXPORT ORDINAL="302" NAME="?RayPlane@VxIntersect@@SAHABVVxRay@@ABVVxPlane@@AAUVxVector@@AAM@Z" PURGE="0" COMMENT="" />
    <EXPORT ORDINAL="303" NAME="?RayPlaneCulled@VxIntersect@@SAHABVVxRay@@ABVVxPlane@@AAUVxVector@@AAM@Z" PURGE="0" COMMENT="" />
    <EXPORT ORDINAL="304" NAME="?RayRaySquareDistance@VxDistance@@SAMABVVxRay@@0PAM1@Z" PURGE="0" COMMENT="" />
    <EXPORT ORDINAL="305" NAME="?RaySegmentSquareDistance@VxDistance@@SAMABVVxRay@@0PAM1@Z" PURGE="0" COMMENT="" />
    <EXPORT ORDINAL="306" NAME="?RaySphere@VxIntersect@@SAHABVVxRay@@ABVVxSphere@@PAUVxVector@@2@Z" PURGE="0" COMMENT="" />
    <EXPORT ORDINAL="307" NAME="?Read@VxCachedFile@@UAEIPAXI@Z" PURGE="8" COMMENT="" />
    <EXPORT ORDINAL="308" NAME="?Read@VxFile@@UAEIPAXI@Z" PURGE="8" COMMENT="" />
    <EXPORT ORDINAL="309" NAME="?Read@VxSubFile@@UAEIPAXI@Z" PURGE="8" COMMENT="" />
    <EXPORT ORDINAL="310" NAME="?ReadItems@VxCachedFile@@UAEIPAXII@Z" PURGE="12" COMMENT="" />
    <EXPORT ORDINAL="311" NAME="?ReadItems@VxFile@@UAEIPAXII@Z" PURGE="12" COMMENT="" />
    <EXPORT ORDINAL="312" NAME="?ReadStringEntry@VxConfig@@QAEHPAD0@Z" PURGE="8" COMMENT="" />
    <EXPORT ORDINAL="313" NAME="?RecomposeMatrix@VxMatrix@@QAEXPBUVxVector@@0PBUVxQuaternion@@@Z" PURGE="12" COMMENT="" />
    <EXPORT ORDINAL="314" NAME="?RecomposeMatrixEx@VxMatrix@@QAEXPBUVxVector@@0PBUVxQuaternion@@1M@Z" PURGE="20" COMMENT="" />
    <EXPORT ORDINAL="315" NAME="?RegisterListener@VxLog@@QAEPAVVxLogListener@@ABVXGUID@@PBDH@Z" PURGE="12" COMMENT="" />
    <EXPORT ORDINAL="316" NAME="?RegisterListenerFactory@VxLog@@QAEHABVXGUID@@P6APAVVxLogListener@@PBD@Z@Z" PURGE="8" COMMENT="" />
    <EXPORT ORDINAL="317" NAME="?RegisterModule@VxLog@@QAEHPBD@Z" PURGE="4" COMMENT="" />
    <EXPORT ORDINAL="318" NAME="?Release@VxAllocator@@QAEXPAX@Z" PURGE="4" COMMENT="" />
    <EXPORT ORDINAL="319" NAME="?ReleaseLibrary@VxSharedLibrary@@QAEXXZ" PURGE="0" COMMENT="" />
    <EXPORT ORDINAL="320" NAME="?ReleaseMemory@VxAllocator@@QAEXPAX@Z" PURGE="4" COMMENT="" />
    <EXPORT ORDINAL="321" NAME="?ReleasePool@VxAllocator@@QAEXIPAX@Z" PURGE="8" COMMENT="" />
    <EXPORT ORDINAL="322" NAME="?ReleaseScratch@VxAllocator@@QAEXPAX@Z" PURGE="4" COMMENT="" />
    <EXPORT ORDINAL="323" NAME="?ReleaseScratchString@VxAllocator@@QAEXPAVXString@@@Z" PURGE="4" COMMENT="" />
    <EXPORT ORDINAL="324" NAME="?ReleaseString@VxAllocator@@QAEXPAD@Z" PURGE="4" COMMENT="" />
    <EXPORT ORDINAL="325" NAME="?ReleaseUnusedScratch@VxAllocator@@QAEXXZ" PURGE="0" COMMENT="" />
    <EXPORT ORDINAL="326" NAME="?Remove@VxBigFile@@QAEHPBD@Z" PURGE="4" COMMENT="" />
    <EXPORT ORDINAL="327" NAME="?RemoveEntry@VxConfiguration@@QAEPAVVxConfigurationEntry@@PAD0@Z" PURGE="8" COMMENT="" />
    <EXPORT ORDINAL="328" NAME="?RemoveEntry@VxConfigurationSection@@QAEPAVVxConfigurationEntry@@PAD@Z" PURGE="4" COMMENT="" />
    <EXPORT ORDINAL="329" NAME="?RemoveSection@VxConfiguration@@QAEPAVVxConfigurationSection@@PAD0@Z" PURGE="8" COMMENT="" />
    <EXPORT ORDINAL="330" NAME="?RemoveSection@VxConfigurationSection@@QAEPAV1@PAD@Z" PURGE="4" COMMENT="" />
    <EXPORT ORDINAL="331" NAME="?Replace@XString@@QAEHABVXBaseString@@0@Z" PURGE="8" COMMENT="" />
    <EXPORT ORDINAL="332" NAME="?Replace@XString@@QAEHDD@Z" PURGE="8" COMMENT="" />
    <EXPORT ORDINAL="333" NAME="?Reserve@XString@@QAEXG@Z" PURGE="4" COMMENT="" />
    <EXPORT ORDINAL="334" NAME="?Reset@CKDirectoryParser@@QAEXPAD0HH@Z" PURGE="16" COMMENT="" />
    <EXPORT ORDINAL="335" NAME="?Reset@VxRDTSCProfiler@@QAEXXZ" PURGE="0" COMMENT="" />
    <EXPORT ORDINAL="336" NAME="?Reset@VxTimeProfiler@@QAEXXZ" PURGE="0" COMMENT="" />
    <EXPORT ORDINAL="337" NAME="?Rotate@@YA?BUVxVector@@ABU1@0M@Z" PURGE="0" COMMENT="" />
    <EXPORT ORDINAL="338" NAME="?Rotate@@YA?BUVxVector@@ABVVxMatrix@@ABU1@@Z" PURGE="0" COMMENT="" />
    <EXPORT ORDINAL="339" NAME="?Rotate@@YA?BUVxVector@@PBU1@0M@Z" PURGE="0" COMMENT="" />
    <EXPORT ORDINAL="340" NAME="?Rotate@VxVector@@QAEXABVVxMatrix@@@Z" PURGE="4" COMMENT="" />
    <EXPORT ORDINAL="341" NAME="?Save@VxBigFile@@QAEHPBDPAVProgressionCallback@1@@Z" PURGE="8" COMMENT="" />
    <EXPORT ORDINAL="342" NAME="?SaveIndex@VxBigFile@@QAEXPBDH@Z" PURGE="8" COMMENT="" />
    <EXPORT ORDINAL="343" NAME="?SaveToDataFile@VxConfiguration@@QAEHPBD@Z" PURGE="4" COMMENT="" />
    <EXPORT ORDINAL="344" NAME="?SaveToFile@VxConfiguration@@QAEHPBD@Z" PURGE="4" COMMENT="" />
    <EXPORT ORDINAL="345" NAME="?Scanf@VxFile@@UAAIPBDZZ" PURGE="0" COMMENT="" />
    <EXPORT ORDINAL="346" NAME="?Seek@VxCachedFile@@UAEHHW4SeekMode@VxStream@@@Z" PURGE="8" COMMENT="" />
    <EXPORT ORDINAL="347" NAME="?Seek@VxFile@@UAEHHW4SeekMode@VxStream@@@Z" PURGE="8" COMMENT="" />
    <EXPORT ORDINAL="348" NAME="?Seek@VxSubFile@@UAEHHW4SeekMode@VxStream@@@Z" PURGE="8" COMMENT="" />
    <EXPORT ORDINAL="349" NAME="?SegmentBox@VxIntersect@@SAHABVVxRay@@ABUVxBbox@@@Z" PURGE="0" COMMENT="" />
    <EXPORT ORDINAL="350" NAME="?SegmentBox@VxIntersect@@SAHABVVxRay@@ABUVxBbox@@AAUVxVector@@PAU4@33@Z" PURGE="0" COMMENT="" />
    <EXPORT ORDINAL="351" NAME="?SegmentFace@VxIntersect@@SAHABVVxRay@@ABUVxVector@@111AAU3@AAM@Z" PURGE="0" COMMENT="" />
    <EXPORT ORDINAL="352" NAME="?SegmentFace@VxIntersect@@SAHABVVxRay@@ABUVxVector@@111AAU3@AAMAAH4@Z" PURGE="0" COMMENT="" />
    <EXPORT ORDINAL="353" NAME="?SegmentFaceCulled@VxIntersect@@SAHABVVxRay@@ABUVxVector@@111AAU3@AAMAAH4@Z" PURGE="0" COMMENT="" />
    <EXPORT ORDINAL="354" NAME="?SegmentPlane@VxIntersect@@SAHABVVxRay@@ABVVxPlane@@AAUVxVector@@AAM@Z" PURGE="0" COMMENT="" />
    <EXPORT ORDINAL="355" NAME="?SegmentPlaneCulled@VxIntersect@@SAHABVVxRay@@ABVVxPlane@@AAUVxVector@@AAM@Z" PURGE="0" COMMENT="" />
    <EXPORT ORDINAL="356" NAME="?SegmentSegmentSquareDistance@VxDistance@@SAMABVVxRay@@0PAM1@Z" PURGE="0" COMMENT="" />
    <EXPORT ORDINAL="357" NAME="?Set@VxSubFile@@QAEXPAVVxFile@@II@Z" PURGE="12" COMMENT="" />
    <EXPORT ORDINAL="358" NAME="?SetCacheSize@VxCachedFile@@QAEXI@Z" PURGE="4" COMMENT="" />
    <EXPORT ORDINAL="359" NAME="?SetDirectory@VxFileListener@@QAEXPBD@Z" PURGE="4" COMMENT="" />
    <EXPORT ORDINAL="360" NAME="?SetExt@VxFileListener@@QAEXPBD@Z" PURGE="4" COMMENT="" />
    <EXPORT ORDINAL="361" NAME="?SetFlags@VxLogListener@@QAEXH@Z" PURGE="4" COMMENT="" />
    <EXPORT ORDINAL="362" NAME="?SetInformation@VxLog@@QAEAAV1@HW4Level@1@HPBD@Z" PURGE="16" COMMENT="" />
    <EXPORT ORDINAL="363" NAME="?SetInformationMT@VxLog@@QAEAAV1@HW4Level@1@HPBD@Z" PURGE="16" COMMENT="" />
    <EXPORT ORDINAL="364" NAME="?SetLevel@VxLogListener@@QAEXH@Z" PURGE="4" COMMENT="" />
    <EXPORT ORDINAL="365" NAME="?SetName@VxThread@@QAEXPBD@Z" PURGE="4" COMMENT="" />
    <EXPORT ORDINAL="366" NAME="?SetPriority@VxThread@@QAEXI@Z" PURGE="4" COMMENT="" />
    <EXPORT ORDINAL="367" NAME="?SetQuantizationSamplingFactor@@YAXH@Z" PURGE="0" COMMENT="" />
    <EXPORT ORDINAL="368" NAME="?SetSize@VxConsoleListener@@QAEHHH@Z" PURGE="8" COMMENT="" />
    <EXPORT ORDINAL="369" NAME="?SetTimeFormat@VxLogListener@@QAEXW4TimeFormat@1@@Z" PURGE="4" COMMENT="" />
    <EXPORT ORDINAL="370" NAME="?SetValue@VxConfigurationEntry@@QAEXH@Z" PURGE="4" COMMENT="" />
    <EXPORT ORDINAL="371" NAME="?SetValue@VxConfigurationEntry@@QAEXI@Z" PURGE="4" COMMENT="" />
    <EXPORT ORDINAL="372" NAME="?SetValue@VxConfigurationEntry@@QAEXM@Z" PURGE="4" COMMENT="" />
    <EXPORT ORDINAL="373" NAME="?SetValue@VxConfigurationEntry@@QAEXPBD@Z" PURGE="4" COMMENT="" />
    <EXPORT ORDINAL="374" NAME="?Size@VxFile@@UAEIXZ" PURGE="0" COMMENT="" />
    <EXPORT ORDINAL="375" NAME="?Size@VxSubFile@@UAEIXZ" PURGE="0" COMMENT="" />
    <EXPORT ORDINAL="376" NAME="?Slerp@@YA?AUVxQuaternion@@MABU1@0@Z" PURGE="0" COMMENT="" />
    <EXPORT ORDINAL="377" NAME="?SphereAABB@VxIntersect@@SAHABVVxSphere@@ABUVxBbox@@@Z" PURGE="0" COMMENT="" />
    <EXPORT ORDINAL="378" NAME="?SphereSphere@VxIntersect@@SAHABVVxSphere@@ABUVxVector@@01PAM2@Z" PURGE="0" COMMENT="" />
    <EXPORT ORDINAL="379" NAME="?Split@VxRDTSCProfiler@@QAEMXZ" PURGE="0" COMMENT="" />
    <EXPORT ORDINAL="380" NAME="?Split@VxTimeProfiler@@QAEMXZ" PURGE="0" COMMENT="" />
    <EXPORT ORDINAL="381" NAME="?Squad@@YA?AUVxQuaternion@@MABU1@000@Z" PURGE="0" COMMENT="" />
    <EXPORT ORDINAL="382" NAME="?Strip@XString@@QAEAAV1@XZ" PURGE="0" COMMENT="" />
    <EXPORT ORDINAL="383" NAME="?Substring@XString@@QBE?AV1@GG@Z" PURGE="12" COMMENT="" />
    <EXPORT ORDINAL="384" NAME="?Tcos@@YAMH@Z" PURGE="0" COMMENT="" />
    <EXPORT ORDINAL="385" NAME="?Terminate@VxThread@@QAEHPAI@Z" PURGE="4" COMMENT="" />
    <EXPORT ORDINAL="386" NAME="?ToEulerAngles@VxQuaternion@@QBEXPAM00@Z" PURGE="12" COMMENT="" />
    <EXPORT ORDINAL="387" NAME="?ToLower@XString@@QAEAAV1@XZ" PURGE="0" COMMENT="" />
    <EXPORT ORDINAL="388" NAME="?ToMatrix@VxQuaternion@@QBEXAAVVxMatrix@@@Z" PURGE="4" COMMENT="" />
    <EXPORT ORDINAL="389" NAME="?ToRotation@VxQuaternion@@QAEXAAUVxVector@@AAM@Z" PURGE="8" COMMENT="" />
    <EXPORT ORDINAL="390" NAME="?ToUpper@XString@@QAEAAV1@XZ" PURGE="0" COMMENT="" />
    <EXPORT ORDINAL="391" NAME="?Transform@VxFrustum@@QAEXABVVxMatrix@@@Z" PURGE="4" COMMENT="" />
    <EXPORT ORDINAL="392" NAME="?Transform@VxRay@@QAEXAAV1@ABVVxMatrix@@@Z" PURGE="8" COMMENT="" />
    <EXPORT ORDINAL="393" NAME="?Transform@VxRect@@QAEXABUVx2DVector@@0@Z" PURGE="8" COMMENT="" />
    <EXPORT ORDINAL="394" NAME="?Transform@VxRect@@QAEXABV1@0@Z" PURGE="8" COMMENT="" />
    <EXPORT ORDINAL="395" NAME="?TransformFrom@VxBbox@@QAEXABU1@ABVVxMatrix@@@Z" PURGE="8" COMMENT="" />
    <EXPORT ORDINAL="396" NAME="?TransformFromHomogeneous@VxRect@@QAEXABV1@@Z" PURGE="4" COMMENT="" />
    <EXPORT ORDINAL="397" NAME="?TransformTo@VxBbox@@QBEXPAUVxVector@@ABVVxMatrix@@@Z" PURGE="8" COMMENT="" />
    <EXPORT ORDINAL="398" NAME="?TransformToHomogeneous@VxRect@@QAEXABV1@@Z" PURGE="4" COMMENT="" />
    <EXPORT ORDINAL="399" NAME="?Tridiagonal@VxEigenMatrix@@QAEXQAM0@Z" PURGE="8" COMMENT="" />
    <EXPORT ORDINAL="400" NAME="?Trim@XString@@QAEAAV1@XZ" PURGE="0" COMMENT="" />
    <EXPORT ORDINAL="401" NAME="?Tsin@@YAMH@Z" PURGE="0" COMMENT="" />
    <EXPORT ORDINAL="402" NAME="?UnregisterListener@VxLog@@QAEHPBD@Z" PURGE="4" COMMENT="" />
    <EXPORT ORDINAL="403" NAME="?Update@VxFrustum@@QAEXXZ" PURGE="0" COMMENT="" />
    <EXPORT ORDINAL="404" NAME="?Vx3DDecomposeMatrix@@YAXABVVxMatrix@@AAUVxQuaternion@@AAUVxVector@@2@Z" PURGE="0" COMMENT="" />
    <EXPORT ORDINAL="405" NAME="?Vx3DDecomposeMatrixTotal@@YAMABVVxMatrix@@AAUVxQuaternion@@AAUVxVector@@21@Z" PURGE="0" COMMENT="" />
    <EXPORT ORDINAL="406" NAME="?Vx3DDecomposeMatrixTotalPtr@@YAMABVVxMatrix@@PAUVxQuaternion@@PAUVxVector@@21@Z" PURGE="0" COMMENT="" />
    <EXPORT ORDINAL="407" NAME="?Vx3DInterpolateMatrix@@YAXMAAVVxMatrix@@ABV1@1@Z" PURGE="0" COMMENT="" />
    <EXPORT ORDINAL="408" NAME="?Vx3DInterpolateMatrixNoScale@@YAXMAAVVxMatrix@@ABV1@1@Z" PURGE="0" COMMENT="" />
    <EXPORT ORDINAL="409" NAME="?Vx3DInverseMatrix@@YAXAAVVxMatrix@@ABV1@@Z" PURGE="0" COMMENT="" />
    <EXPORT ORDINAL="410" NAME="?Vx3DMatrixDeterminant@@YAMABVVxMatrix@@@Z" PURGE="0" COMMENT="" />
    <EXPORT ORDINAL="411" NAME="?Vx3DMatrixFromEulerAngles@@YAXAAVVxMatrix@@MMM@Z" PURGE="0" COMMENT="" />
    <EXPORT ORDINAL="412" NAME="?Vx3DMatrixFromRotation@@YAXAAVVxMatrix@@ABUVxVector@@M@Z" PURGE="0" COMMENT="" />
    <EXPORT ORDINAL="413" NAME="?Vx3DMatrixFromRotationAndOrigin@@YAXAAVVxMatrix@@ABUVxVector@@1M@Z" PURGE="0" COMMENT="" />
    <EXPORT ORDINAL="414" NAME="?Vx3DMatrixIdentity@@YAXAAVVxMatrix@@@Z" PURGE="0" COMMENT="" />
    <EXPORT ORDINAL="415" NAME="?Vx3DMatrixToEulerAngles@@YAXABVVxMatrix@@PAM11@Z" PURGE="0" COMMENT="" />
    <EXPORT ORDINAL="416" NAME="?Vx3DMultiplyMatrix4@@YAXAAVVxMatrix@@ABV1@1@Z" PURGE="0" COMMENT="" />
    <EXPORT ORDINAL="417" NAME="?Vx3DMultiplyMatrix@@YAXAAVVxMatrix@@ABV1@1@Z" PURGE="0" COMMENT="" />
    <EXPORT ORDINAL="418" NAME="?Vx3DMultiplyMatrixVector4@@YAXPAVVxVector4@@ABVVxMatrix@@PBUVxVector@@@Z" PURGE="0" COMMENT="" />
    <EXPORT ORDINAL="419" NAME="?Vx3DMultiplyMatrixVector4@@YAXPAVVxVector4@@ABVVxMatrix@@PBV1@@Z" PURGE="0" COMMENT="" />
    <EXPORT ORDINAL="420" NAME="?Vx3DMultiplyMatrixVector4Strided@@YAXPAUVxStridedData@@0ABVVxMatrix@@H@Z" PURGE="0" COMMENT="" />
    <EXPORT ORDINAL="421" NAME="?Vx3DMultiplyMatrixVector@@YAXPAUVxVector@@ABVVxMatrix@@PBU1@@Z" PURGE="0" COMMENT="" />
    <EXPORT ORDINAL="422" NAME="?Vx3DMultiplyMatrixVectorMany@@YAXPAUVxVector@@ABVVxMatrix@@PBU1@HH@Z" PURGE="0" COMMENT="" />
    <EXPORT ORDINAL="423" NAME="?Vx3DMultiplyMatrixVectorStrided@@YAXPAUVxStridedData@@0ABVVxMatrix@@H@Z" PURGE="0" COMMENT="" />
    <EXPORT ORDINAL="424" NAME="?Vx3DQuaternionConjugate@@YA?AUVxQuaternion@@ABU1@@Z" PURGE="0" COMMENT="" />
    <EXPORT ORDINAL="425" NAME="?Vx3DQuaternionDivide@@YA?AUVxQuaternion@@ABU1@0@Z" PURGE="0" COMMENT="" />
    <EXPORT ORDINAL="426" NAME="?Vx3DQuaternionFromMatrix@@YA?AUVxQuaternion@@ABVVxMatrix@@@Z" PURGE="0" COMMENT="" />
    <EXPORT ORDINAL="427" NAME="?Vx3DQuaternionMultiply@@YA?AUVxQuaternion@@ABU1@0@Z" PURGE="0" COMMENT="" />
    <EXPORT ORDINAL="428" NAME="?Vx3DQuaternionSnuggle@@YA?AUVxQuaternion@@PAU1@PAUVxVector@@@Z" PURGE="0" COMMENT="" />
    <EXPORT ORDINAL="429" NAME="?Vx3DRotateVector@@YAXPAUVxVector@@ABVVxMatrix@@PBU1@@Z" PURGE="0" COMMENT="" />
    <EXPORT ORDINAL="430" NAME="?Vx3DRotateVectorMany@@YAXPAUVxVector@@ABVVxMatrix@@PBU1@HH@Z" PURGE="0" COMMENT="" />
    <EXPORT ORDINAL="431" NAME="?Vx3DRotateVectorStrided@@YAXPAUVxStridedData@@0ABVVxMatrix@@H@Z" PURGE="0" COMMENT="" />
    <EXPORT ORDINAL="432" NAME="?Vx3DTransposeMatrix@@YAXAAVVxMatrix@@ABV1@@Z" PURGE="0" COMMENT="" />
    <EXPORT ORDINAL="433" NAME="?VxAddDirectorySeparator@@YAXAAVXString@@@Z" PURGE="0" COMMENT="" />
    <EXPORT ORDINAL="434" NAME="?VxAddLibrarySearchPath@@YAXPAD@Z" PURGE="0" COMMENT="" />
    <EXPORT ORDINAL="435" NAME="?VxBppToMask@@YAXAAUVxImageDescEx@@@Z" PURGE="0" COMMENT="" />
    <EXPORT ORDINAL="436" NAME="?VxClientToScreen@@YAHPAXPAUCKPOINT@@@Z" PURGE="0" COMMENT="" />
    <EXPORT ORDINAL="437" NAME="?VxComputeBestFitBBox@@YAHPBEKHAAVVxMatrix@@M@Z" PURGE="0" COMMENT="" />
    <EXPORT ORDINAL="438" NAME="?VxConvertBitmap@@YAPAEPAXAAUVxImageDescEx@@@Z" PURGE="0" COMMENT="" />
    <EXPORT ORDINAL="439" NAME="?VxConvertBitmapTo24@@YAPAXPAX@Z" PURGE="0" COMMENT="" />
    <EXPORT ORDINAL="440" NAME="?VxConvertPathToSystemPath@@YAXAAVXString@@@Z" PURGE="0" COMMENT="" />
    <EXPORT ORDINAL="441" NAME="?VxConvertToBumpMap@@YAHABUVxImageDescEx@@@Z" PURGE="0" COMMENT="" />
    <EXPORT ORDINAL="442" NAME="?VxConvertToNormalMap@@YAHABUVxImageDescEx@@K@Z" PURGE="0" COMMENT="" />
    <EXPORT ORDINAL="443" NAME="?VxCopyBitmap@@YAHPAXABUVxImageDescEx@@@Z" PURGE="0" COMMENT="" />
    <EXPORT ORDINAL="444" NAME="?VxCopyStructure@@YAHHABUVxStridedData@@K0@Z" PURGE="0" COMMENT="" />
    <EXPORT ORDINAL="445" NAME="?VxCopyStructure@@YAHHPAXKK0K@Z" PURGE="0" COMMENT="" />
    <EXPORT ORDINAL="446" NAME="?VxCreateBitmap@@YAPAXABUVxImageDescEx@@@Z" PURGE="0" COMMENT="" />
    <EXPORT ORDINAL="447" NAME="?VxCreateFileTree@@YAHPAD@Z" PURGE="0" COMMENT="" />
    <EXPORT ORDINAL="448" NAME="?VxCreateFont@@YAPAXPADHHHH@Z" PURGE="0" COMMENT="" />
    <EXPORT ORDINAL="449" NAME="?VxDeleteAligned@@YAXPAX@Z" PURGE="0" COMMENT="" />
    <EXPORT ORDINAL="450" NAME="?VxDeleteBitmap@@YAXPAX@Z" PURGE="0" COMMENT="" />
    <EXPORT ORDINAL="451" NAME="?VxDeleteDirectory@@YAHPAD@Z" PURGE="0" COMMENT="" />
    <EXPORT ORDINAL="452" NAME="?VxDeleteFile@@YAHPBD@Z" PURGE="0" COMMENT="" />
    <EXPORT ORDINAL="453" NAME="?VxDeleteFont@@YAXPAX@Z" PURGE="0" COMMENT="" />
    <EXPORT ORDINAL="454" NAME="?VxDoAlphaBlit@@YAXABUVxImageDescEx@@E@Z" PURGE="0" COMMENT="" />
    <EXPORT ORDINAL="455" NAME="?VxDoAlphaBlit@@YAXABUVxImageDescEx@@PAE@Z" PURGE="0" COMMENT="" />
    <EXPORT ORDINAL="456" NAME="?VxDoBlit@@YAXABUVxImageDescEx@@0@Z" PURGE="0" COMMENT="" />
    <EXPORT ORDINAL="457" NAME="?VxDoBlitUpsideDown@@YAXABUVxImageDescEx@@0@Z" PURGE="0" COMMENT="" />
    <EXPORT ORDINAL="458" NAME="?VxDrawBitmapText@@YAHPAX0PADPAUCKRECT@@KKK@Z" PURGE="0" COMMENT="" />
    <EXPORT ORDINAL="459" NAME="?VxDrawBitmapTextW@@YAHPAX0PAGPAUCKRECT@@KKK@Z" PURGE="0" COMMENT="" />
    <EXPORT ORDINAL="460" NAME="?VxEscapeURL@@YAKPADAAVXString@@@Z" PURGE="0" COMMENT="" />
    <EXPORT ORDINAL="461" NAME="?VxFileExist@@YAHPBD@Z" PURGE="0" COMMENT="" />
    <EXPORT ORDINAL="462" NAME="?VxFillStructure@@YAHHABUVxStridedData@@KPAX@Z" PURGE="0" COMMENT="" />
    <EXPORT ORDINAL="463" NAME="?VxFillStructure@@YAHHPAXKK0@Z" PURGE="0" COMMENT="" />
    <EXPORT ORDINAL="464" NAME="?VxGenerateMipMap@@YAXABUVxImageDescEx@@PAE@Z" PURGE="0" COMMENT="" />
    <EXPORT ORDINAL="465" NAME="?VxGetBitCounts@@YAXABUVxImageDescEx@@AAK111@Z" PURGE="0" COMMENT="" />
    <EXPORT ORDINAL="466" NAME="?VxGetBitShifts@@YAXABUVxImageDescEx@@AAK111@Z" PURGE="0" COMMENT="" />
    <EXPORT ORDINAL="467" NAME="?VxGetClientRect@@YAHPAXPAUCKRECT@@@Z" PURGE="0" COMMENT="" />
    <EXPORT ORDINAL="468" NAME="?VxGetCurrentDirectory@@YAHPAD@Z" PURGE="0" COMMENT="" />
    <EXPORT ORDINAL="469" NAME="?VxGetEnvironmentVariable@@YAHPADAAVXString@@@Z" PURGE="0" COMMENT="" />
    <EXPORT ORDINAL="470" NAME="?VxGetFPUControlWord@@YAGXZ" PURGE="0" COMMENT="" />
    <EXPORT ORDINAL="471" NAME="?VxGetFontInfo@@YAHPAXAAUVXFONTINFO@@@Z" PURGE="0" COMMENT="" />
    <EXPORT ORDINAL="472" NAME="?VxGetModuleFileName@@YAKPAXPADK@Z" PURGE="0" COMMENT="" />
    <EXPORT ORDINAL="473" NAME="?VxGetModuleHandle@@YAPAXPBD@Z" PURGE="0" COMMENT="" />
    <EXPORT ORDINAL="474" NAME="?VxGetOs@@YA?AW4VX_OSINFO@@XZ" PURGE="0" COMMENT="" />
    <EXPORT ORDINAL="475" NAME="?VxGetParent@@YAPAXPAX@Z" PURGE="0" COMMENT="" />
    <EXPORT ORDINAL="476" NAME="?VxGetPlatform@@YA?AW4VX_PLATFORMINFO@@XZ" PURGE="0" COMMENT="" />
    <EXPORT ORDINAL="477" NAME="?VxGetTempPath@@YA?AVXString@@XZ" PURGE="0" COMMENT="" />
    <EXPORT ORDINAL="478" NAME="?VxGetWindowRect@@YAHPAXPAUCKRECT@@@Z" PURGE="0" COMMENT="" />
    <EXPORT ORDINAL="479" NAME="?VxImageDesc2PixelFormat@@YA?AW4VX_PIXELFORMAT@@ABUVxImageDescEx@@@Z" PURGE="0" COMMENT="" />
    <EXPORT ORDINAL="480" NAME="?VxIndexedCopy@@YAHABUVxStridedData@@0KPAGH@Z" PURGE="0" COMMENT="" />
    <EXPORT ORDINAL="481" NAME="?VxIndexedCopy@@YAHABUVxStridedData@@0KPAHH@Z" PURGE="0" COMMENT="" />
    <EXPORT ORDINAL="482" NAME="?VxInverseProject@@YAXABVVxMatrix@@ABUVx2DVector@@MPAUVxVector@@@Z" PURGE="0" COMMENT="" />
    <EXPORT ORDINAL="483" NAME="?VxIsAllocatedByNewAligned@@YAHPAXH@Z" PURGE="0" COMMENT="" />
    <EXPORT ORDINAL="484" NAME="?VxMakeDirectory@@YAHPAD@Z" PURGE="0" COMMENT="" />
    <EXPORT ORDINAL="485" NAME="?VxMakePath@@YAHPAD00@Z" PURGE="0" COMMENT="" />
    <EXPORT ORDINAL="486" NAME="?VxMessageBox@@YAHPAXPAD1K@Z" PURGE="0" COMMENT="" />
    <EXPORT ORDINAL="487" NAME="?VxMoveWindow@@YAHPAXHHHHH@Z" PURGE="0" COMMENT="" />
    <EXPORT ORDINAL="488" NAME="?VxNewAligned@@YAPAXHH@Z" PURGE="0" COMMENT="" />
    <EXPORT ORDINAL="489" NAME="?VxPixelFormat2ImageDesc@@YAXW4VX_PIXELFORMAT@@AAUVxImageDescEx@@@Z" PURGE="0" COMMENT="" />
    <EXPORT ORDINAL="490" NAME="?VxPixelFormat2String@@YAPBDW4VX_PIXELFORMAT@@@Z" PURGE="0" COMMENT="" />
    <EXPORT ORDINAL="491" NAME="?VxProjectBoxZExtents@@YAXABVVxMatrix@@ABUVxBbox@@AAM2@Z" PURGE="0" COMMENT="" />
    <EXPORT ORDINAL="492" NAME="?VxPtInRect@@YAHPAUCKRECT@@PAUCKPOINT@@@Z" PURGE="0" COMMENT="" />
    <EXPORT ORDINAL="493" NAME="?VxRemoveDirectory@@YAHPAD@Z" PURGE="0" COMMENT="" />
    <EXPORT ORDINAL="494" NAME="?VxRenameFile@@YAHPBD0@Z" PURGE="0" COMMENT="" />
    <EXPORT ORDINAL="495" NAME="?VxResizeImage32@@YAXABUVxImageDescEx@@0@Z" PURGE="0" COMMENT="" />
    <EXPORT ORDINAL="496" NAME="?VxScanCodeToAscii@@YADKQAE@Z" PURGE="0" COMMENT="" />
    <EXPORT ORDINAL="497" NAME="?VxScanCodeToName@@YAHKPAD@Z" PURGE="0" COMMENT="" />
    <EXPORT ORDINAL="498" NAME="?VxScreenToClient@@YAHPAXPAUCKPOINT@@@Z" PURGE="0" COMMENT="" />
    <EXPORT ORDINAL="499" NAME="?VxSetBaseFPUControlWord@@YAXXZ" PURGE="0" COMMENT="" />
    <EXPORT ORDINAL="500" NAME="?VxSetCurrentDirectory@@YAHPAD@Z" PURGE="0" COMMENT="" />
    <EXPORT ORDINAL="501" NAME="?VxSetCursor@@YAHW4VXCURSOR_POINTER@@@Z" PURGE="0" COMMENT="" />
    <EXPORT ORDINAL="502" NAME="?VxSetEnvironmentVariable@@YAHPAD0@Z" PURGE="0" COMMENT="" />
    <EXPORT ORDINAL="503" NAME="?VxSetFPUControlWord@@YAXG@Z" PURGE="0" COMMENT="" />
    <EXPORT ORDINAL="504" NAME="?VxSetParent@@YAPAXPAX0@Z" PURGE="0" COMMENT="" />
    <EXPORT ORDINAL="505" NAME="?VxShowCursor@@YAHH@Z" PURGE="0" COMMENT="" />
    <EXPORT ORDINAL="506" NAME="?VxTestDiskSpace@@YAHPBDK@Z" PURGE="0" COMMENT="" />
    <EXPORT ORDINAL="507" NAME="?VxTransformBox2D@@YAHABVVxMatrix@@ABUVxBbox@@PAVVxRect@@2AAW4VXCLIP_FLAGS@@3@Z" PURGE="0" COMMENT="" />
    <EXPORT ORDINAL="508" NAME="?VxURLDownloadToCacheFile@@YAKPAD0H@Z" PURGE="0" COMMENT="" />
    <EXPORT ORDINAL="509" NAME="?VxUnEscapeUrl@@YAXAAVXString@@@Z" PURGE="0" COMMENT="" />
    <EXPORT ORDINAL="510" NAME="?VxWindowFromPoint@@YAPAXUCKPOINT@@@Z" PURGE="0" COMMENT="" />
    <EXPORT ORDINAL="511" NAME="?Wait@VxThread@@QAEHPAII@Z" PURGE="8" COMMENT="" />
    <EXPORT ORDINAL="512" NAME="?Write@VxCachedFile@@UAEIPBXI@Z" PURGE="8" COMMENT="" />
    <EXPORT ORDINAL="513" NAME="?Write@VxFile@@UAEIPBXI@Z" PURGE="8" COMMENT="" />
    <EXPORT ORDINAL="514" NAME="?Write@VxSubFile@@UAEIPBXI@Z" PURGE="8" COMMENT="" />
    <EXPORT ORDINAL="515" NAME="?WriteStringEntry@VxConfig@@QAEXPBD0@Z" PURGE="8" COMMENT="" />
    <EXPORT ORDINAL="516" NAME="?XAllocateScratch@VxAllocator@@AAEPAVVxMemoryPool@@I@Z" PURGE="4" COMMENT="" />
    <EXPORT ORDINAL="517" NAME="?axis0@VxVector@@SAABU1@XZ" PURGE="0" COMMENT="" />
    <EXPORT ORDINAL="518" NAME="?axis1@VxVector@@SAABU1@XZ" PURGE="0" COMMENT="" />
    <EXPORT ORDINAL="519" NAME="?axisX@VxVector@@SAABU1@XZ" PURGE="0" COMMENT="" />
    <EXPORT ORDINAL="520" NAME="?axisY@VxVector@@SAABU1@XZ" PURGE="0" COMMENT="" />
    <EXPORT ORDINAL="521" NAME="?axisZ@VxVector@@SAABU1@XZ" PURGE="0" COMMENT="" />
    <EXPORT ORDINAL="522" NAME="?m_Guid@VxConsoleListener@@2VXGUID@@B" PURGE="-1" COMMENT="" />
    <EXPORT ORDINAL="523" NAME="?m_Guid@VxFileListener@@2VXGUID@@B" PURGE="-1" COMMENT="" />
    <EXPORT ORDINAL="524" NAME="?m_Guid@VxOutputDebugListener@@2VXGUID@@B" PURGE="-1" COMMENT="" />
    <EXPORT ORDINAL="525" NAME="?radToAngle@@YAHM@Z" PURGE="-1" COMMENT="" />
</LIBRARY>

