<?xml version="1.0" encoding="UTF-8"?>
<LIBRARY NAME="winman.dll" PATH="/DLLArchive/etc/winman.dll" DATE="Fri Jul 03 13:32:31 PDT 2020" VERSION="1, 0, 0, 26">
    <EXPORT ORDINAL="1" NAME="??0CTreeArray@@QAE@XZ" PURGE="0" COMMENT="" />
    <EXPORT ORDINAL="2" NAME="??0CTreeItem@@QAE@ABV0@@Z" PURGE="4" COMMENT="" />
    <EXPORT ORDINAL="3" NAME="??0CTreeItem@@QAE@PAV0@000@Z" PURGE="16" COMMENT="" />
    <EXPORT ORDINAL="4" NAME="??0CTreeItem@@QAE@XZ" PURGE="0" COMMENT="" />
    <EXPORT ORDINAL="5" NAME="??0CWindowDescItem@@QAE@ABV0@@Z" PURGE="4" COMMENT="" />
    <EXPORT ORDINAL="6" NAME="??0CWindowDescItem@@QAE@PAUHWND__@@0@Z" PURGE="8" COMMENT="" />
    <EXPORT ORDINAL="7" NAME="??0CWindowDescItem@@QAE@XZ" PURGE="0" COMMENT="" />
    <EXPORT ORDINAL="8" NAME="??0WindowControlClass@@QAE@XZ" PURGE="0" COMMENT="" />
    <EXPORT ORDINAL="9" NAME="??1CTreeArray@@QAE@XZ" PURGE="0" COMMENT="" />
    <EXPORT ORDINAL="10" NAME="??1CTreeItem@@UAE@XZ" PURGE="0" COMMENT="" />
    <EXPORT ORDINAL="11" NAME="??1CWindowDescItem@@UAE@XZ" PURGE="0" COMMENT="" />
    <EXPORT ORDINAL="12" NAME="??1WindowControlClass@@QAE@XZ" PURGE="0" COMMENT="" />
    <EXPORT ORDINAL="13" NAME="??4CTreeItem@@QAEAAV0@ABV0@@Z" PURGE="4" COMMENT="" />
    <EXPORT ORDINAL="14" NAME="??4CWindowDescItem@@QAEAAV0@ABV0@@Z" PURGE="4" COMMENT="" />
    <EXPORT ORDINAL="15" NAME="??_7CTreeArray@@6B@" PURGE="-1" COMMENT="" />
    <EXPORT ORDINAL="16" NAME="??_7CTreeItem@@6B@" PURGE="-1" COMMENT="" />
    <EXPORT ORDINAL="17" NAME="??_7CWindowDescItem@@6B@" PURGE="-1" COMMENT="" />
    <EXPORT ORDINAL="18" NAME="??_7WindowControlClass@@6B@" PURGE="-1" COMMENT="" />
    <EXPORT ORDINAL="19" NAME="??_ECTreeArray@@QAEPAXI@Z" PURGE="4" COMMENT="" />
    <EXPORT ORDINAL="20" NAME="??_ECTreeItem@@UAEPAXI@Z" PURGE="4" COMMENT="" />
    <EXPORT ORDINAL="21" NAME="??_ECWindowDescItem@@UAEPAXI@Z" PURGE="4" COMMENT="" />
    <EXPORT ORDINAL="22" NAME="??_EWindowControlClass@@QAEPAXI@Z" PURGE="4" COMMENT="" />
    <EXPORT ORDINAL="23" NAME="??_GCTreeArray@@QAEPAXI@Z" PURGE="4" COMMENT="" />
    <EXPORT ORDINAL="24" NAME="??_GCTreeItem@@UAEPAXI@Z" PURGE="4" COMMENT="" />
    <EXPORT ORDINAL="25" NAME="??_GCWindowDescItem@@UAEPAXI@Z" PURGE="4" COMMENT="" />
    <EXPORT ORDINAL="26" NAME="??_GWindowControlClass@@QAEPAXI@Z" PURGE="4" COMMENT="" />
    <EXPORT ORDINAL="27" NAME="?AddItem@CTreeArray@@QAEHPAVCTreeItem@@0@Z" PURGE="8" COMMENT="" />
    <EXPORT ORDINAL="28" NAME="?AddItem@CTreeArray@@QAEPAVCTreeItem@@PAV2@PAXH@Z" PURGE="12" COMMENT="" />
    <EXPORT ORDINAL="29" NAME="?AddWindow@WindowControlClass@@QAEHPAUHWND__@@PAUWINDOW_DESCRIPTION@@@Z" PURGE="8" COMMENT="" />
    <EXPORT ORDINAL="30" NAME="?AddWindowAndJoinFamily@WindowControlClass@@QAEHPAVCTreeItem@@PAUWINDOW_DESCRIPTION@@H@Z" PURGE="12" COMMENT="" />
    <EXPORT ORDINAL="31" NAME="?AppendOptionsArray@CWindowDescItem@@SAXAAVCPtrArray@@ABV2@@Z" PURGE="0" COMMENT="" />
    <EXPORT ORDINAL="32" NAME="?CalcOrderCount@WindowControlClass@@AAEJPAUHWND__@@0VCString@@@Z" PURGE="12" COMMENT="" />
    <EXPORT ORDINAL="33" NAME="?CompareIdenticalWindows@WindowControlClass@@QAEHPAUWINDOW_DESCRIPTION@@0@Z" PURGE="8" COMMENT="" />
    <EXPORT ORDINAL="34" NAME="?CompareWindows@WindowControlClass@@QAEHPAUWINDOW_DESCRIPTION@@0H@Z" PURGE="12" COMMENT="" />
    <EXPORT ORDINAL="35" NAME="?CopyWindowDesc@WindowControlClass@@QAEHPAUWINDOW_DESCRIPTION@@0H@Z" PURGE="12" COMMENT="" />
    <EXPORT ORDINAL="36" NAME="?CreateNewWindow@WindowControlClass@@IAEPAUWINDOW_DESCRIPTION@@XZ" PURGE="0" COMMENT="" />
    <EXPORT ORDINAL="37" NAME="?DeleteAllTree@CTreeArray@@QAEXPAVCTreeItem@@@Z" PURGE="4" COMMENT="" />
    <EXPORT ORDINAL="38" NAME="?DeleteAllTree@CTreeArray@@UAEXXZ" PURGE="0" COMMENT="" />
    <EXPORT ORDINAL="39" NAME="?DeleteAllTree@WindowControlClass@@UAEXXZ" PURGE="0" COMMENT="" />
    <EXPORT ORDINAL="40" NAME="?DeleteData@CTreeArray@@UAEHPAVCTreeItem@@@Z" PURGE="4" COMMENT="" />
    <EXPORT ORDINAL="41" NAME="?DeleteData@WindowControlClass@@MAEHPAVCTreeItem@@@Z" PURGE="4" COMMENT="" />
    <EXPORT ORDINAL="42" NAME="?DeleteItem@CTreeArray@@UAEXPAVCTreeItem@@@Z" PURGE="4" COMMENT="" />
    <EXPORT ORDINAL="43" NAME="?DeleteOptionsArray@CWindowDescItem@@SAXAAVCPtrArray@@@Z" PURGE="0" COMMENT="" />
    <EXPORT ORDINAL="44" NAME="?DuplicateMe@CWindowDescItem@@QAEPAV1@XZ" PURGE="0" COMMENT="" />
    <EXPORT ORDINAL="45" NAME="?DuplicateTree@CTreeArray@@QAEXPAV1@PAVCTreeItem@@1P6APAX1PAX@Z2H@Z" PURGE="24" COMMENT="" />
    <EXPORT ORDINAL="46" NAME="?EnumTree@CTreeArray@@QAEPAVCTreeItem@@PAV2@P6AH0PAX1@Z11@Z" PURGE="16" COMMENT="" />
    <EXPORT ORDINAL="47" NAME="?FindEnumFunction@CTreeArray@@CAHPAVCTreeItem@@PAX1@Z" PURGE="0" COMMENT="" />
    <EXPORT ORDINAL="48" NAME="?FindIdinticalWindow@WindowControlClass@@QAEHPAVCTreeItem@@PAUWINDOW_DESCRIPTION@@AAH@Z" PURGE="12" COMMENT="" />
    <EXPORT ORDINAL="49" NAME="?FindItemByID@CTreeArray@@QAEPAVCTreeItem@@HPAV2@@Z" PURGE="8" COMMENT="" />
    <EXPORT ORDINAL="50" NAME="?FindMyBeforeBrother@CTreeArray@@QAEPAVCTreeItem@@PAV2@@Z" PURGE="4" COMMENT="" />
    <EXPORT ORDINAL="51" NAME="?FindWindowA@WindowControlClass@@QAEHPAVCTreeItem@@PAUHWND__@@AAUWINDOW_DESCRIPTION@@@Z" PURGE="12" COMMENT="" />
    <EXPORT ORDINAL="52" NAME="?FindWindowA@WindowControlClass@@QAEPAVCTreeItem@@PAV2@PAUHWND__@@@Z" PURGE="8" COMMENT="" />
    <EXPORT ORDINAL="53" NAME="?FindWindowByHwndEnumFunction@WindowControlClass@@CAHPAVCTreeItem@@PAX1@Z" PURGE="0" COMMENT="" />
    <EXPORT ORDINAL="54" NAME="?FindWindowByHwndEnumOnlyOpenFunction@WindowControlClass@@CAHPAVCTreeItem@@PAX1@Z" PURGE="0" COMMENT="" />
    <EXPORT ORDINAL="55" NAME="?FindWindowOnlyOpen@WindowControlClass@@QAEPAVCTreeItem@@PAUHWND__@@@Z" PURGE="4" COMMENT="" />
    <EXPORT ORDINAL="56" NAME="?GetBrother@CTreeItem@@QAEPAV1@XZ" PURGE="0" COMMENT="" />
    <EXPORT ORDINAL="57" NAME="?GetDeleteFlag@CTreeItem@@QAEHXZ" PURGE="0" COMMENT="" />
    <EXPORT ORDINAL="58" NAME="?GetFatherOfAll@CTreeArray@@QAEPAVCTreeItem@@XZ" PURGE="0" COMMENT="" />
    <EXPORT ORDINAL="59" NAME="?GetHwnd@CWindowDescItem@@QAEPAUHWND__@@XZ" PURGE="0" COMMENT="" />
    <EXPORT ORDINAL="60" NAME="?GetInfo@CTreeArray@@UAEPAXPAVCTreeItem@@@Z" PURGE="4" COMMENT="" />
    <EXPORT ORDINAL="61" NAME="?GetInfo@CTreeItem@@QAEPAXXZ" PURGE="0" COMMENT="" />
    <EXPORT ORDINAL="62" NAME="?GetItemID@CTreeItem@@QAEJXZ" PURGE="0" COMMENT="" />
    <EXPORT ORDINAL="63" NAME="?GetLastSon@CTreeItem@@QAEPAV1@XZ" PURGE="0" COMMENT="" />
    <EXPORT ORDINAL="64" NAME="?GetLastTimeIn@CTreeItem@@QAEJXZ" PURGE="0" COMMENT="" />
    <EXPORT ORDINAL="65" NAME="?GetNameFromOle@WindowControlClass@@IAEHVCString@@AAV2@@Z" PURGE="8" COMMENT="" />
    <EXPORT ORDINAL="66" NAME="?GetNextBadParentChild@WindowControlClass@@QAEPAUWINDOW_DESCRIPTION@@PAUHWND__@@@Z" PURGE="4" COMMENT="" />
    <EXPORT ORDINAL="67" NAME="?GetParent@CTreeItem@@QAEPAV1@XZ" PURGE="0" COMMENT="" />
    <EXPORT ORDINAL="68" NAME="?GetParent@CWindowDescItem@@QAEPAUHWND__@@XZ" PURGE="0" COMMENT="" />
    <EXPORT ORDINAL="69" NAME="?GetSize@CTreeArray@@QAEHXZ" PURGE="0" COMMENT="" />
    <EXPORT ORDINAL="70" NAME="?GetSon@CTreeItem@@QAEPAV1@XZ" PURGE="0" COMMENT="" />
    <EXPORT ORDINAL="71" NAME="?GetWindowInfo@WindowControlClass@@QAEXPAUHWND__@@PAUWINDOW_DESCRIPTION@@PAUWINDOWCREATE_STURCT_VER1@@@Z" PURGE="12" COMMENT="" />
    <EXPORT ORDINAL="72" NAME="?GetWord@WindowControlClass@@AAE?AVCString@@AAHV2@1H@Z" PURGE="20" COMMENT="" />
    <EXPORT ORDINAL="73" NAME="?HasBrother@CTreeItem@@QAEHXZ" PURGE="0" COMMENT="" />
    <EXPORT ORDINAL="74" NAME="?HasSon@CTreeItem@@QAEHXZ" PURGE="0" COMMENT="" />
    <EXPORT ORDINAL="75" NAME="?IsItemExist@WindowControlClass@@AAEHPAUHWND__@@VCString@@H@Z" PURGE="12" COMMENT="" />
    <EXPORT ORDINAL="76" NAME="?IsNotMfc@WindowControlClass@@AAEHPAD@Z" PURGE="4" COMMENT="" />
    <EXPORT ORDINAL="77" NAME="?IsRebarItemExist@WindowControlClass@@AAEHPAUHWND__@@0VCString@@@Z" PURGE="12" COMMENT="" />
    <EXPORT ORDINAL="78" NAME="?IsToolBarItemExist@WindowControlClass@@AAEHPAUHWND__@@VCString@@@Z" PURGE="8" COMMENT="" />
    <EXPORT ORDINAL="79" NAME="?IsWasNotifyOnPopup@CWindowDescItem@@QAEHH@Z" PURGE="4" COMMENT="" />
    <EXPORT ORDINAL="80" NAME="?IsWindowGlobalVar@WindowControlClass@@QAE?AVCString@@H@Z" PURGE="8" COMMENT="" />
    <EXPORT ORDINAL="81" NAME="?Load@WindowControlClass@@QAEHPAVKodeMaker@@P6APAXPAVCFile@@PAX@ZH2@Z" PURGE="16" COMMENT="" />
    <EXPORT ORDINAL="82" NAME="?Load@WindowControlClass@@QAEHVCString@@@Z" PURGE="4" COMMENT="" />
    <EXPORT ORDINAL="83" NAME="?LoadInfo@WindowControlClass@@QAE?AVCString@@PAUWINDOW_DESCRIPTION@@V2@AAV2@@Z" PURGE="16" COMMENT="" />
    <EXPORT ORDINAL="84" NAME="?LoadTree@CTreeArray@@QAEHPAVCFile@@PAVCTreeItem@@P6APAX0PAX@Z2@Z" PURGE="16" COMMENT="" />
    <EXPORT ORDINAL="85" NAME="?LoadTree@CTreeArray@@QAEHPAVCFile@@PAVCTreeItem@@UTREE_FILE_STRUCT@@P6APAX0PAX@Z3@Z" PURGE="20" COMMENT="" />
    <EXPORT ORDINAL="86" NAME="?MoveItem@CTreeArray@@QAEHPAVCTreeItem@@0@Z" PURGE="8" COMMENT="" />
    <EXPORT ORDINAL="87" NAME="?MyGetWindowText@WindowControlClass@@AAEHPAUHWND__@@AAVCString@@@Z" PURGE="8" COMMENT="" />
    <EXPORT ORDINAL="88" NAME="?ReadPrivateInfo@CTreeArray@@UAEPAXPAVCFile@@@Z" PURGE="4" COMMENT="" />
    <EXPORT ORDINAL="89" NAME="?RefreshTree@CTreeArray@@QAEXPAVCTreeItem@@K@Z" PURGE="8" COMMENT="" />
    <EXPORT ORDINAL="90" NAME="?RemoveWindowFromBadList@WindowControlClass@@AAEXPAUHWND__@@@Z" PURGE="4" COMMENT="" />
    <EXPORT ORDINAL="91" NAME="?ResetItem@CTreeItem@@QAEXXZ" PURGE="0" COMMENT="" />
    <EXPORT ORDINAL="92" NAME="?SaveTree@CTreeArray@@QAEHPAVCFile@@P6AX0PAVCTreeItem@@@Z@Z" PURGE="8" COMMENT="" />
    <EXPORT ORDINAL="93" NAME="?SaveTree@CTreeArray@@QAEHPAVCFile@@PAVCTreeItem@@UTREE_FILE_STRUCT@@P6AX01@Z@Z" PURGE="16" COMMENT="" />
    <EXPORT ORDINAL="94" NAME="?SetBrother@CTreeItem@@QAEPAV1@PAV1@@Z" PURGE="4" COMMENT="" />
    <EXPORT ORDINAL="95" NAME="?SetDeleteFlag@CTreeItem@@QAEXH@Z" PURGE="4" COMMENT="" />
    <EXPORT ORDINAL="96" NAME="?SetInfo@CTreeItem@@QAEXPAX@Z" PURGE="4" COMMENT="" />
    <EXPORT ORDINAL="97" NAME="?SetItemID@CTreeItem@@QAEXH@Z" PURGE="4" COMMENT="" />
    <EXPORT ORDINAL="98" NAME="?SetLastSon@CTreeItem@@QAEPAV1@PAV1@@Z" PURGE="4" COMMENT="" />
    <EXPORT ORDINAL="99" NAME="?SetLastTimeIn@CTreeItem@@QAEXXZ" PURGE="0" COMMENT="" />
    <EXPORT ORDINAL="100" NAME="?SetOnPopupFlag@CWindowDescItem@@QAEXHH@Z" PURGE="8" COMMENT="" />
    <EXPORT ORDINAL="101" NAME="?SetParent@CTreeItem@@QAEPAV1@PAV1@@Z" PURGE="4" COMMENT="" />
    <EXPORT ORDINAL="102" NAME="?SetSon@CTreeItem@@QAEPAV1@PAV1@@Z" PURGE="4" COMMENT="" />
    <EXPORT ORDINAL="103" NAME="?ShowTree@CTreeArray@@QAEXPAVCTreeItem@@H@Z" PURGE="8" COMMENT="" />
    <EXPORT ORDINAL="104" NAME="?ShowTreeEnumFunction@CTreeArray@@CAHPAVCTreeItem@@PAX1@Z" PURGE="0" COMMENT="" />
    <EXPORT ORDINAL="105" NAME="StartWinHunt" PURGE="0" COMMENT="" />
    <EXPORT ORDINAL="106" NAME="StopWinHunt" PURGE="0" COMMENT="" />
    <EXPORT ORDINAL="107" NAME="?WinMan_DuplicateTree@@YAHPAVCTreeArray@@H@Z" PURGE="0" COMMENT="" />
    <EXPORT ORDINAL="108" NAME="?WinMan_GetHwndFromID@@YAPAUHWND__@@HPAXHK@Z" PURGE="0" COMMENT="" />
    <EXPORT ORDINAL="109" NAME="?WinMan_GetWindowDescription@@YAPAUWINDOW_DESCRIPTION@@H@Z" PURGE="0" COMMENT="" />
    <EXPORT ORDINAL="110" NAME="?WinMan_LoadWindowsFile@@YAHPBDH@Z" PURGE="0" COMMENT="" />
    <EXPORT ORDINAL="111" NAME="?WinMan_RefreshTree@@YAXXZ" PURGE="0" COMMENT="" />
    <EXPORT ORDINAL="112" NAME="?WinMan_SetWindowParent@@YAXHH@Z" PURGE="0" COMMENT="" />
    <EXPORT ORDINAL="113" NAME="?WinMan_SetWindowText@@YAXHPAD@Z" PURGE="0" COMMENT="" />
    <EXPORT ORDINAL="114" NAME="?WinMan_UnRecognizeWindow@@YAHHH@Z" PURGE="0" COMMENT="" />
    <EXPORT ORDINAL="115" NAME="?WritePrivateInfo@CTreeArray@@UAEXPAVCFile@@PAVCTreeItem@@@Z" PURGE="8" COMMENT="" />
    <EXPORT ORDINAL="116" NAME="?ZeroBaseCount@CTreeArray@@QAEXXZ" PURGE="0" COMMENT="" />
    <EXPORT ORDINAL="117" NAME="?ZeroNewWindow@@YAXPAUWINDOW_DESCRIPTION@@@Z" PURGE="0" COMMENT="" />
</LIBRARY>

