<?xml version="1.0" encoding="UTF-8"?>
<LIBRARY NAME="wksgen.dll" PATH="/DLLArchive/etc/wksgen.dll" DATE="Fri Jul 03 22:33:29 CEST 2020" VERSION="1,0,1,1921">
    <EXPORT ORDINAL="1" NAME="??0CHSLBox@@QAE@ABV0@@Z" PURGE="4" COMMENT="" />
    <EXPORT ORDINAL="2" NAME="??0CHSLBox@@QAE@XZ" PURGE="0" COMMENT="" />
    <EXPORT ORDINAL="3" NAME="??0CHSRegex@@QAE@XZ" PURGE="0" COMMENT="" />
    <EXPORT ORDINAL="4" NAME="??0CHiddenEdit@@QAE@ABV0@@Z" PURGE="4" COMMENT="" />
    <EXPORT ORDINAL="5" NAME="??0CHiddenEdit@@QAE@XZ" PURGE="0" COMMENT="" />
    <EXPORT ORDINAL="6" NAME="??0CIME@@QAE@ABV0@@Z" PURGE="4" COMMENT="" />
    <EXPORT ORDINAL="7" NAME="??0CIME@@QAE@XZ" PURGE="0" COMMENT="" />
    <EXPORT ORDINAL="8" NAME="??0CIMEComboBox@@QAE@ABV0@@Z" PURGE="4" COMMENT="" />
    <EXPORT ORDINAL="9" NAME="??0CIMEComboBox@@QAE@XZ" PURGE="0" COMMENT="" />
    <EXPORT ORDINAL="10" NAME="??0CIMEEdit@@QAE@ABV0@@Z" PURGE="4" COMMENT="" />
    <EXPORT ORDINAL="11" NAME="??0CIMEEdit@@QAE@XZ" PURGE="0" COMMENT="" />
    <EXPORT ORDINAL="12" NAME="??0CMapBits@@QAE@KK@Z" PURGE="8" COMMENT="" />
    <EXPORT ORDINAL="13" NAME="??0CMapBits@@QAE@XZ" PURGE="0" COMMENT="" />
    <EXPORT ORDINAL="14" NAME="??0CMapMgr@@QAE@XZ" PURGE="0" COMMENT="" />
    <EXPORT ORDINAL="15" NAME="??0CWndHolder@@QAE@XZ" PURGE="0" COMMENT="" />
    <EXPORT ORDINAL="16" NAME="??1CHSLBox@@QAE@XZ" PURGE="0" COMMENT="" />
    <EXPORT ORDINAL="17" NAME="??1CHSRegex@@QAE@XZ" PURGE="0" COMMENT="" />
    <EXPORT ORDINAL="18" NAME="??1CHiddenEdit@@UAE@XZ" PURGE="0" COMMENT="" />
    <EXPORT ORDINAL="19" NAME="??1CIME@@UAE@XZ" PURGE="0" COMMENT="" />
    <EXPORT ORDINAL="20" NAME="??1CIMEComboBox@@UAE@XZ" PURGE="0" COMMENT="" />
    <EXPORT ORDINAL="21" NAME="??1CIMEEdit@@UAE@XZ" PURGE="0" COMMENT="" />
    <EXPORT ORDINAL="22" NAME="??1CMapBits@@QAE@XZ" PURGE="0" COMMENT="" />
    <EXPORT ORDINAL="23" NAME="??1CMapMgr@@QAE@XZ" PURGE="0" COMMENT="" />
    <EXPORT ORDINAL="24" NAME="??2@YAPAXIPAXK@Z" PURGE="0" COMMENT="" />
    <EXPORT ORDINAL="25" NAME="??4CHSLBox@@QAEAAV0@ABV0@@Z" PURGE="4" COMMENT="" />
    <EXPORT ORDINAL="26" NAME="??4CHSRegex@@QAEAAV0@ABV0@@Z" PURGE="4" COMMENT="" />
    <EXPORT ORDINAL="27" NAME="??4CHiddenEdit@@QAEAAV0@ABV0@@Z" PURGE="4" COMMENT="" />
    <EXPORT ORDINAL="28" NAME="??4CIME@@QAEAAV0@ABV0@@Z" PURGE="4" COMMENT="" />
    <EXPORT ORDINAL="29" NAME="??4CIMEComboBox@@QAEAAV0@ABV0@@Z" PURGE="4" COMMENT="" />
    <EXPORT ORDINAL="30" NAME="??4CIMEEdit@@QAEAAV0@ABV0@@Z" PURGE="4" COMMENT="" />
    <EXPORT ORDINAL="31" NAME="??4CMapBits@@QAEAAV0@ABV0@@Z" PURGE="4" COMMENT="" />
    <EXPORT ORDINAL="32" NAME="??4CMapMgr@@QAEAAV0@ABV0@@Z" PURGE="4" COMMENT="" />
    <EXPORT ORDINAL="33" NAME="??4CWndHolder@@QAEAAV0@ABV0@@Z" PURGE="4" COMMENT="" />
    <EXPORT ORDINAL="34" NAME="??_7CHSLBox@@6B@" PURGE="-1" COMMENT="" />
    <EXPORT ORDINAL="35" NAME="??_7CHiddenEdit@@6B@" PURGE="-1" COMMENT="" />
    <EXPORT ORDINAL="36" NAME="??_7CIME@@6B@" PURGE="-1" COMMENT="" />
    <EXPORT ORDINAL="37" NAME="??_7CIMEComboBox@@6B@" PURGE="-1" COMMENT="" />
    <EXPORT ORDINAL="38" NAME="??_7CIMEEdit@@6B@" PURGE="-1" COMMENT="" />
    <EXPORT ORDINAL="39" NAME="?AddItem@CHSLBox@@QAEJPBDJJ@Z" PURGE="12" COMMENT="" />
    <EXPORT ORDINAL="40" NAME="?AddItem@CMapMgr@@QAEHPAUHWND__@@PAX@Z" PURGE="8" COMMENT="" />
    <EXPORT ORDINAL="41" NAME="?AddItemToList@CHSLBox@@AAEJJPBDJJ@Z" PURGE="16" COMMENT="" />
    <EXPORT ORDINAL="42" NAME="?AdjustFormatRect@CIMEEdit@@QAEXXZ" PURGE="0" COMMENT="" />
    <EXPORT ORDINAL="43" NAME="?Attach@CIMEEdit@@QAEHPAUHWND__@@@Z" PURGE="4" COMMENT="" />
    <EXPORT ORDINAL="44" NAME="?BltIcon@CHSLBox@@AAEXPAUHDC__@@HHH@Z" PURGE="16" COMMENT="" />
    <EXPORT ORDINAL="45" NAME="?CLinesRequired@CIMEEdit@@QAEHXZ" PURGE="0" COMMENT="" />
    <EXPORT ORDINAL="46" NAME="?CalcItemWidth@CHSLBox@@AAEJJPADPAULBItemData@@@Z" PURGE="12" COMMENT="" />
    <EXPORT ORDINAL="47" NAME="?CchContextPopUpText@@YAHXZ" PURGE="0" COMMENT="" />
    <EXPORT ORDINAL="48" NAME="?CchFromPchCb@@YAIPADI@Z" PURGE="0" COMMENT="" />
    <EXPORT ORDINAL="49" NAME="?CchFromSzITS@@YAHPAD@Z" PURGE="0" COMMENT="" />
    <EXPORT ORDINAL="50" NAME="?CchGetClauseAttr@CIMEEdit@@IAEHHHPAUtagOURATTR@@PAH@Z" PURGE="16" COMMENT="" />
    <EXPORT ORDINAL="51" NAME="?CchGetString@@YAHIPADH@Z" PURGE="0" COMMENT="" />
    <EXPORT ORDINAL="52" NAME="?CchGetStringFromDLL@@YAHPAUHINSTANCE__@@IPADH@Z" PURGE="0" COMMENT="" />
    <EXPORT ORDINAL="53" NAME="?CchLongToPpch@@YAHJPAPAD@Z" PURGE="0" COMMENT="" />
    <EXPORT ORDINAL="54" NAME="?CchMinPch@@YAHPADHH@Z" PURGE="0" COMMENT="" />
    <EXPORT ORDINAL="55" NAME="?CchMinSz@@YAHPADH@Z" PURGE="0" COMMENT="" />
    <EXPORT ORDINAL="56" NAME="?CchResString@@YAHI@Z" PURGE="0" COMMENT="" />
    <EXPORT ORDINAL="57" NAME="?ChDoubleDbcs@@YAGG@Z" PURGE="0" COMMENT="" />
    <EXPORT ORDINAL="58" NAME="?ChDoubleSpecial@@YAGGG@Z" PURGE="0" COMMENT="" />
    <EXPORT ORDINAL="59" NAME="?ChFromPchDbcs@@YAGPBD@Z" PURGE="0" COMMENT="" />
    <EXPORT ORDINAL="60" NAME="?ChLowerDbcs@@YAGG@Z" PURGE="0" COMMENT="" />
    <EXPORT ORDINAL="61" NAME="?ChPchPostDecDbcs@@YAGAAPADQBD@Z" PURGE="0" COMMENT="" />
    <EXPORT ORDINAL="62" NAME="?ChPchPostIncDbcs@@YAGAAPAD@Z" PURGE="0" COMMENT="" />
    <EXPORT ORDINAL="63" NAME="?ChSingleDbcs@@YAGG@Z" PURGE="0" COMMENT="" />
    <EXPORT ORDINAL="64" NAME="?ChStorePchDbcs@@YAGPADG@Z" PURGE="0" COMMENT="" />
    <EXPORT ORDINAL="65" NAME="?ChStorePostIncPchDbcs@@YAGAAPADG@Z" PURGE="0" COMMENT="" />
    <EXPORT ORDINAL="66" NAME="?ChUpperDbcs@@YAGG@Z" PURGE="0" COMMENT="" />
    <EXPORT ORDINAL="67" NAME="?CheckExtent@CMapBits@@QAEJK@Z" PURGE="4" COMMENT="" />
    <EXPORT ORDINAL="68" NAME="?ClearError@CMapBits@@QAEXXZ" PURGE="0" COMMENT="" />
    <EXPORT ORDINAL="69" NAME="?ClearMap@CMapBits@@QAEJXZ" PURGE="0" COMMENT="" />
    <EXPORT ORDINAL="70" NAME="?CmpCaseDepRgch@@YAHPBDI0I@Z" PURGE="0" COMMENT="" />
    <EXPORT ORDINAL="71" NAME="?CmpCaseDepSz@@YAHPBD0@Z" PURGE="0" COMMENT="" />
    <EXPORT ORDINAL="72" NAME="?CmpPch@@YAHPAD0HH@Z" PURGE="0" COMMENT="" />
    <EXPORT ORDINAL="73" NAME="?CmpRgch@@YAHPBDI0IPAPAD@Z" PURGE="0" COMMENT="" />
    <EXPORT ORDINAL="74" NAME="?CmpSz@@YAHPBD0@Z" PURGE="0" COMMENT="" />
    <EXPORT ORDINAL="75" NAME="?CompAttr@CIMEEdit@@IAEXXZ" PURGE="0" COMMENT="" />
    <EXPORT ORDINAL="76" NAME="?CompClause@CIMEEdit@@IAEXXZ" PURGE="0" COMMENT="" />
    <EXPORT ORDINAL="77" NAME="?CompStr@CIMEEdit@@IAEXXZ" PURGE="0" COMMENT="" />
    <EXPORT ORDINAL="78" NAME="?CompilePattern@CHSRegex@@QAEJPAD@Z" PURGE="4" COMMENT="" />
    <EXPORT ORDINAL="79" NAME="?ConvertToSingle@CIMEEdit@@IAEPADPAD@Z" PURGE="4" COMMENT="" />
    <EXPORT ORDINAL="80" NAME="?Create@CHSLBox@@QAEHKABUtagRECT@@PAUHWND__@@I@Z" PURGE="16" COMMENT="" />
    <EXPORT ORDINAL="81" NAME="?CreateNewStyledWindow@CHSLBox@@AAEJXZ" PURGE="0" COMMENT="" />
    <EXPORT ORDINAL="82" NAME="?CtOfDbcsChar@@YAHPBD0@Z" PURGE="0" COMMENT="" />
    <EXPORT ORDINAL="83" NAME="?CursorPos@CIMEEdit@@IAEXXZ" PURGE="0" COMMENT="" />
    <EXPORT ORDINAL="84" NAME="?DelSelItems@CHSLBox@@QAEJXZ" PURGE="0" COMMENT="" />
    <EXPORT ORDINAL="85" NAME="?DeleteItem@CHSLBox@@AAEJJ@Z" PURGE="4" COMMENT="" />
    <EXPORT ORDINAL="86" NAME="?DeleteItem@CMapMgr@@QAEXPAUHWND__@@@Z" PURGE="4" COMMENT="" />
    <EXPORT ORDINAL="87" NAME="?Detach@CIMEEdit@@QAEPAUHWND__@@XZ" PURGE="0" COMMENT="" />
    <EXPORT ORDINAL="88" NAME="?DisableIME@CIMEEdit@@QAEXXZ" PURGE="0" COMMENT="" />
    <EXPORT ORDINAL="89" NAME="?DoCharList@CHSRegex@@AAEPADPAD0@Z" PURGE="8" COMMENT="" />
    <EXPORT ORDINAL="90" NAME="?DoEscapeSeq@CHSRegex@@AAEDPAPAD@Z" PURGE="4" COMMENT="" />
    <EXPORT ORDINAL="91" NAME="?DrawEditContents@CIMEEdit@@IAEXPAUHDC__@@@Z" PURGE="4" COMMENT="" />
    <EXPORT ORDINAL="92" NAME="?DrawFocusRect@CHSLBox@@AAEXPAUHDC__@@ABUtagRECT@@@Z" PURGE="8" COMMENT="" />
    <EXPORT ORDINAL="93" NAME="?EchoComposition@CIMEEdit@@UAEXH@Z" PURGE="4" COMMENT="" />
    <EXPORT ORDINAL="94" NAME="?EnableSystemIME@CIME@@SAHH@Z" PURGE="0" COMMENT="" />
    <EXPORT ORDINAL="95" NAME="?EndDrawComp@CIMEEdit@@IAEXXZ" PURGE="0" COMMENT="" />
    <EXPORT ORDINAL="96" NAME="?EndIME@@YAXXZ" PURGE="0" COMMENT="" />
    <EXPORT ORDINAL="97" NAME="?FAdjustedFRect@CIMEEdit@@QAEHXZ" PURGE="0" COMMENT="" />
    <EXPORT ORDINAL="98" NAME="?FAlpha@@YAHH@Z" PURGE="0" COMMENT="" />
    <EXPORT ORDINAL="99" NAME="?FCanRegisterWord@CIME@@QAEHXZ" PURGE="0" COMMENT="" />
    <EXPORT ORDINAL="100" NAME="?FCanTrueInLine@CIME@@QAEHXZ" PURGE="0" COMMENT="" />
    <EXPORT ORDINAL="101" NAME="?FChinesePunct@@YAHG@Z" PURGE="0" COMMENT="" />
    <EXPORT ORDINAL="102" NAME="?FDakutenWch@@YAHG@Z" PURGE="0" COMMENT="" />
    <EXPORT ORDINAL="103" NAME="?FDigitChDbcs@@YAHG@Z" PURGE="0" COMMENT="" />
    <EXPORT ORDINAL="104" NAME="?FEnable@CIME@@QAEHH@Z" PURGE="4" COMMENT="" />
    <EXPORT ORDINAL="105" NAME="?FEqCaseDepRgch@@YAHPBDI0I@Z" PURGE="0" COMMENT="" />
    <EXPORT ORDINAL="106" NAME="?FEqCaseDepSz@@YAHPBD0@Z" PURGE="0" COMMENT="" />
    <EXPORT ORDINAL="107" NAME="?FEqRgch@@YAHPBDI0I@Z" PURGE="0" COMMENT="" />
    <EXPORT ORDINAL="108" NAME="?FEqSz@@YAHPBD0@Z" PURGE="0" COMMENT="" />
    <EXPORT ORDINAL="109" NAME="?FFlush@CIME@@QAEHH@Z" PURGE="4" COMMENT="" />
    <EXPORT ORDINAL="110" NAME="?FFlush@CIME@@SAHPAUHWND__@@H@Z" PURGE="0" COMMENT="" />
    <EXPORT ORDINAL="111" NAME="?FGetComposition@CIME@@QAEHHPAPAXPAH@Z" PURGE="12" COMMENT="" />
    <EXPORT ORDINAL="112" NAME="?FGetIsIME@CIME@@QAEHXZ" PURGE="0" COMMENT="" />
    <EXPORT ORDINAL="113" NAME="?FGetOpenStatus@CIME@@QAEHXZ" PURGE="0" COMMENT="" />
    <EXPORT ORDINAL="114" NAME="?FGetPtFromIch@CIMEEdit@@IAEHHPAUtagPOINT@@PAH1@Z" PURGE="16" COMMENT="" />
    <EXPORT ORDINAL="115" NAME="?FGetStatus@CIME@@QAEHPAK0@Z" PURGE="8" COMMENT="" />
    <EXPORT ORDINAL="116" NAME="?FHandakutenWch@@YAHG@Z" PURGE="0" COMMENT="" />
    <EXPORT ORDINAL="117" NAME="?FHangeulWchKor@@YAHG@Z" PURGE="0" COMMENT="" />
    <EXPORT ORDINAL="118" NAME="?FHiraganaWch@@YAHG@Z" PURGE="0" COMMENT="" />
    <EXPORT ORDINAL="119" NAME="?FInit@CIME@@QAEHPAUHWND__@@HHK@Z" PURGE="16" COMMENT="" />
    <EXPORT ORDINAL="120" NAME="?FInitICB@CIMEComboBox@@QAEHHK@Z" PURGE="8" COMMENT="" />
    <EXPORT ORDINAL="121" NAME="?FInitIME@CIMEEdit@@QAEHK@Z" PURGE="4" COMMENT="" />
    <EXPORT ORDINAL="122" NAME="?FInitWksIMEEdit@CIMEEdit@@QAEHHHK@Z" PURGE="12" COMMENT="" />
    <EXPORT ORDINAL="123" NAME="?FKanaWch@@YAHG@Z" PURGE="0" COMMENT="" />
    <EXPORT ORDINAL="124" NAME="?FKanjiWch@@YAHG@Z" PURGE="0" COMMENT="" />
    <EXPORT ORDINAL="125" NAME="?FKatakanaWch@@YAHG@Z" PURGE="0" COMMENT="" />
    <EXPORT ORDINAL="126" NAME="?FLineBreakWch@@YAHGGHH@Z" PURGE="0" COMMENT="" />
    <EXPORT ORDINAL="127" NAME="?FMakeSzWithComp@CIMEEdit@@IAEHPAD0HPAH1@Z" PURGE="20" COMMENT="" />
    <EXPORT ORDINAL="128" NAME="?FMemAlert@@YAHXZ" PURGE="0" COMMENT="" />
    <EXPORT ORDINAL="129" NAME="?FNeRgw@@YAHPAX0H@Z" PURGE="0" COMMENT="" />
    <EXPORT ORDINAL="130" NAME="?FOnIMEChar@CIMEEdit@@MAEJIJ@Z" PURGE="8" COMMENT="" />
    <EXPORT ORDINAL="131" NAME="?FOnIMEComposition@CIMEEdit@@MAEJIJ@Z" PURGE="8" COMMENT="" />
    <EXPORT ORDINAL="132" NAME="?FOnIMECompositionFull@CIMEEdit@@MAEJIJ@Z" PURGE="8" COMMENT="" />
    <EXPORT ORDINAL="133" NAME="?FOnIMEEndComposition@CIMEEdit@@MAEJIJ@Z" PURGE="8" COMMENT="" />
    <EXPORT ORDINAL="134" NAME="?FOnIMEKeyDown@CIMEEdit@@MAEJIJ@Z" PURGE="8" COMMENT="" />
    <EXPORT ORDINAL="135" NAME="?FOnIMEKeyUp@CIMEEdit@@MAEJIJ@Z" PURGE="8" COMMENT="" />
    <EXPORT ORDINAL="136" NAME="?FOnIMENotify@CIMEEdit@@MAEJIJ@Z" PURGE="8" COMMENT="" />
    <EXPORT ORDINAL="137" NAME="?FOnIMESelect@CIMEEdit@@MAEJIJ@Z" PURGE="8" COMMENT="" />
    <EXPORT ORDINAL="138" NAME="?FOnIMESetContext@CIMEEdit@@MAEJIJ@Z" PURGE="8" COMMENT="" />
    <EXPORT ORDINAL="139" NAME="?FOnIMEStartComposition@CIMEEdit@@MAEJIJ@Z" PURGE="8" COMMENT="" />
    <EXPORT ORDINAL="140" NAME="?FPrefixSz@@YAHPADPAPAD@Z" PURGE="0" COMMENT="" />
    <EXPORT ORDINAL="141" NAME="?FPrepareDrawComp@CIMEEdit@@IAEHXZ" PURGE="0" COMMENT="" />
    <EXPORT ORDINAL="142" NAME="?FPrepareIME@@YAHXZ" PURGE="0" COMMENT="" />
    <EXPORT ORDINAL="143" NAME="?FRegisterWordIME@CIME@@QAEHPAD@Z" PURGE="4" COMMENT="" />
    <EXPORT ORDINAL="144" NAME="?FResizeForCompo@CIMEEdit@@UAEHPAH@Z" PURGE="4" COMMENT="" />
    <EXPORT ORDINAL="145" NAME="?FResizingForCompo@CIMEEdit@@QAEHXZ" PURGE="0" COMMENT="" />
    <EXPORT ORDINAL="146" NAME="?FSetCandWindow@CIME@@QAEHPAUtagPOINT@@PAUtagRECT@@@Z" PURGE="8" COMMENT="" />
    <EXPORT ORDINAL="147" NAME="?FSetOpenStatus@CIME@@QAEHH@Z" PURGE="4" COMMENT="" />
    <EXPORT ORDINAL="148" NAME="?FSetStatus@CIME@@QAEHKK@Z" PURGE="8" COMMENT="" />
    <EXPORT ORDINAL="149" NAME="?FSubclassChildEdit@CIMEComboBox@@IAEHPAUHWND__@@@Z" PURGE="4" COMMENT="" />
    <EXPORT ORDINAL="150" NAME="?FSzHasDbcs@@YAHPADH@Z" PURGE="0" COMMENT="" />
    <EXPORT ORDINAL="151" NAME="?FTerm@CIME@@QAEHXZ" PURGE="0" COMMENT="" />
    <EXPORT ORDINAL="152" NAME="?FindString@CHSLBox@@QAEJJPADPAJ@Z" PURGE="12" COMMENT="" />
    <EXPORT ORDINAL="153" NAME="?FindStringExact@CHSLBox@@QAEJJPADPAJ@Z" PURGE="12" COMMENT="" />
    <EXPORT ORDINAL="154" NAME="?FlushCompo@CIMEEdit@@QAEXH@Z" PURGE="4" COMMENT="" />
    <EXPORT ORDINAL="155" NAME="?FreeCompositionInfo@CIMEEdit@@IAEXXZ" PURGE="0" COMMENT="" />
    <EXPORT ORDINAL="156" NAME="?FreePattern@CHSRegex@@AAEXXZ" PURGE="0" COMMENT="" />
    <EXPORT ORDINAL="157" NAME="?GetAnchorIndex@CHSLBox@@QAEJPAH@Z" PURGE="4" COMMENT="" />
    <EXPORT ORDINAL="158" NAME="?GetAttrOfIch@CIMEEdit@@IAEXHPAUtagOURATTR@@@Z" PURGE="8" COMMENT="" />
    <EXPORT ORDINAL="159" NAME="?GetBackColor@CHSLBox@@QAEJPAK@Z" PURGE="4" COMMENT="" />
    <EXPORT ORDINAL="160" NAME="?GetBitsPerEntry@CMapBits@@QAEKXZ" PURGE="0" COMMENT="" />
    <EXPORT ORDINAL="161" NAME="?GetCaretIndex@CHSLBox@@QAEJPAH@Z" PURGE="4" COMMENT="" />
    <EXPORT ORDINAL="162" NAME="?GetCheckBoxes@CHSLBox@@QAEJPAH@Z" PURGE="4" COMMENT="" />
    <EXPORT ORDINAL="163" NAME="?GetConstruction@CHSLBox@@QAEJPAH@Z" PURGE="4" COMMENT="" />
    <EXPORT ORDINAL="164" NAME="?GetContextPopUpText@@YAHPADH@Z" PURGE="0" COMMENT="" />
    <EXPORT ORDINAL="165" NAME="?GetCount@CHSLBox@@QAEJPAJ@Z" PURGE="4" COMMENT="" />
    <EXPORT ORDINAL="166" NAME="?GetCount@CMapMgr@@QAEHXZ" PURGE="0" COMMENT="" />
    <EXPORT ORDINAL="167" NAME="?GetCurSelection@CHSLBox@@QAEJPAJ@Z" PURGE="4" COMMENT="" />
    <EXPORT ORDINAL="168" NAME="?GetDialogAllocated@CIMEEdit@@QAEHXZ" PURGE="0" COMMENT="" />
    <EXPORT ORDINAL="169" NAME="?GetExtendedSel@CHSLBox@@QAEJPAH@Z" PURGE="4" COMMENT="" />
    <EXPORT ORDINAL="170" NAME="?GetExtent@CMapBits@@QAEKXZ" PURGE="0" COMMENT="" />
    <EXPORT ORDINAL="171" NAME="?GetFocusRectColor@CHSLBox@@QAEJPAK@Z" PURGE="4" COMMENT="" />
    <EXPORT ORDINAL="172" NAME="?GetFont@CHSLBox@@QAEJJPAPAUHFONT__@@@Z" PURGE="8" COMMENT="" />
    <EXPORT ORDINAL="173" NAME="?GetGrowthBlockSize@CMapBits@@QAEKXZ" PURGE="0" COMMENT="" />
    <EXPORT ORDINAL="174" NAME="?GetHSInstallDir@@YAXPAD@Z" PURGE="0" COMMENT="" />
    <EXPORT ORDINAL="175" NAME="?GetHorizontalExtent@CHSLBox@@QAEJPAJ@Z" PURGE="4" COMMENT="" />
    <EXPORT ORDINAL="176" NAME="?GetIMEStatus@CIMEEdit@@QAEXPAK0@Z" PURGE="8" COMMENT="" />
    <EXPORT ORDINAL="177" NAME="?GetIconInfo@CHSLBox@@QAEJPAPAUHINSTANCE__@@PAJPAD1@Z" PURGE="16" COMMENT="" />
    <EXPORT ORDINAL="178" NAME="?GetInSituEditing@CHSLBox@@QAEJPAH@Z" PURGE="4" COMMENT="" />
    <EXPORT ORDINAL="179" NAME="?GetIndentSize@CHSLBox@@QAEJPAJ@Z" PURGE="4" COMMENT="" />
    <EXPORT ORDINAL="180" NAME="?GetItem@CMapBits@@QAEJKPAK@Z" PURGE="8" COMMENT="" />
    <EXPORT ORDINAL="181" NAME="?GetItemCount@CMapBits@@QAEKXZ" PURGE="0" COMMENT="" />
    <EXPORT ORDINAL="182" NAME="?GetItemData@CHSLBox@@QAEJJPAJ@Z" PURGE="8" COMMENT="" />
    <EXPORT ORDINAL="183" NAME="?GetItemFromPoint@CHSLBox@@QAEJUtagPOINT@@@Z" PURGE="8" COMMENT="" />
    <EXPORT ORDINAL="184" NAME="?GetItemHeight@CHSLBox@@QAEJJPAJ@Z" PURGE="8" COMMENT="" />
    <EXPORT ORDINAL="185" NAME="?GetItemIcon@CHSLBox@@QAEJKPAKPAH@Z" PURGE="12" COMMENT="" />
    <EXPORT ORDINAL="186" NAME="?GetItemRect@CHSLBox@@QAEJHPAUtagRECT@@@Z" PURGE="8" COMMENT="" />
    <EXPORT ORDINAL="187" NAME="?GetItemStyle@CHSLBox@@QAEJJPAJ@Z" PURGE="8" COMMENT="" />
    <EXPORT ORDINAL="188" NAME="?GetLastError@CMapBits@@QAEKXZ" PURGE="0" COMMENT="" />
    <EXPORT ORDINAL="189" NAME="?GetListSorted@CHSLBox@@QAEJPAH@Z" PURGE="4" COMMENT="" />
    <EXPORT ORDINAL="190" NAME="?GetListStyle@CHSLBox@@QAEJPAJ@Z" PURGE="4" COMMENT="" />
    <EXPORT ORDINAL="191" NAME="?GetListVariable@CHSLBox@@QAEJPAH@Z" PURGE="4" COMMENT="" />
    <EXPORT ORDINAL="192" NAME="?GetLocale@CHSLBox@@QAEJPAK@Z" PURGE="4" COMMENT="" />
    <EXPORT ORDINAL="193" NAME="?GetMultiSelect@CHSLBox@@QAEJPAH@Z" PURGE="4" COMMENT="" />
    <EXPORT ORDINAL="194" NAME="?GetNoBorder@CHSLBox@@QAEJPAH@Z" PURGE="4" COMMENT="" />
    <EXPORT ORDINAL="195" NAME="?GetNumScrollLines@CHSLBox@@AAEHXZ" PURGE="0" COMMENT="" />
    <EXPORT ORDINAL="196" NAME="?GetPaletteBackground@CHSLBox@@QAEJPAH@Z" PURGE="4" COMMENT="" />
    <EXPORT ORDINAL="197" NAME="?GetPanhandle@CHSLBox@@QAEJPAH@Z" PURGE="4" COMMENT="" />
    <EXPORT ORDINAL="198" NAME="?GetProgramDefaultLCID@@YAKXZ" PURGE="0" COMMENT="" />
    <EXPORT ORDINAL="199" NAME="?GetScrollBarRight@CHSLBox@@QAEJPAH@Z" PURGE="4" COMMENT="" />
    <EXPORT ORDINAL="200" NAME="?GetSelColor@CHSLBox@@QAEJPAK@Z" PURGE="4" COMMENT="" />
    <EXPORT ORDINAL="201" NAME="?GetSelCount@CHSLBox@@QAEJPAJ@Z" PURGE="4" COMMENT="" />
    <EXPORT ORDINAL="202" NAME="?GetSelItems@CHSLBox@@QAEJPAHK@Z" PURGE="8" COMMENT="" />
    <EXPORT ORDINAL="203" NAME="?GetSelItems@CHSLBox@@QAEJPAPAUtagSAFEARRAY@@@Z" PURGE="4" COMMENT="" />
    <EXPORT ORDINAL="204" NAME="?GetSelection@CHSLBox@@QAEJJPAH@Z" PURGE="8" COMMENT="" />
    <EXPORT ORDINAL="205" NAME="?GetShadedColor@CHSLBox@@QAEJPAK@Z" PURGE="4" COMMENT="" />
    <EXPORT ORDINAL="206" NAME="?GetText@CHSLBox@@QAEJHPAD@Z" PURGE="8" COMMENT="" />
    <EXPORT ORDINAL="207" NAME="?GetTextGrayedColor@CHSLBox@@QAEJPAK@Z" PURGE="4" COMMENT="" />
    <EXPORT ORDINAL="208" NAME="?GetTextLen@CHSLBox@@QAEJHPAH@Z" PURGE="8" COMMENT="" />
    <EXPORT ORDINAL="209" NAME="?GetTextNormalColor@CHSLBox@@QAEJPAK@Z" PURGE="4" COMMENT="" />
    <EXPORT ORDINAL="210" NAME="?GetTextSelectColor@CHSLBox@@QAEJPAK@Z" PURGE="4" COMMENT="" />
    <EXPORT ORDINAL="211" NAME="?GetTextWithCompo@CIMEEdit@@QAEHPAD@Z" PURGE="4" COMMENT="" />
    <EXPORT ORDINAL="212" NAME="?GetTopIndex@CHSLBox@@QAEJPAJ@Z" PURGE="4" COMMENT="" />
    <EXPORT ORDINAL="213" NAME="?HGetInputContext@CIME@@QAEKXZ" PURGE="0" COMMENT="" />
    <EXPORT ORDINAL="214" NAME="?HSLoadLibrary@@YAPAUHINSTANCE__@@PAD@Z" PURGE="0" COMMENT="" />
    <EXPORT ORDINAL="215" NAME="?HSLoadResourceLibrary@@YAPAUHINSTANCE__@@PADPAH@Z" PURGE="0" COMMENT="" />
    <EXPORT ORDINAL="216" NAME="?HSMessageBox@@YAHIPBD0ZZ" PURGE="0" COMMENT="" />
    <EXPORT ORDINAL="217" NAME="?HSMessageBoxEx@@YAHPAUHWND__@@IPBD1ZZ" PURGE="0" COMMENT="" />
    <EXPORT ORDINAL="218" NAME="?HSMessageBoxExVa@@YAHPAUHWND__@@IPBD1PAD@Z" PURGE="0" COMMENT="" />
    <EXPORT ORDINAL="219" NAME="?HSUnLoadResourceLibrary@@YAHPAUHINSTANCE__@@@Z" PURGE="0" COMMENT="" />
    <EXPORT ORDINAL="220" NAME="?HSWarnIfLowDiskSpace@@YAJXZ" PURGE="0" COMMENT="" />
    <EXPORT ORDINAL="221" NAME="?HSWarningBox@@YAXHPAUHWND__@@@Z" PURGE="0" COMMENT="" />
    <EXPORT ORDINAL="222" NAME="?HSWarningBoxEx@@YAXIHPAUHWND__@@@Z" PURGE="0" COMMENT="" />
    <EXPORT ORDINAL="223" NAME="?HandleDrawingRect@CHSLBox@@AAEXPAUHDC__@@AAUtagRECT@@PAULBItemData@@PAUtagDRAWITEMSTRUCT@@@Z" PURGE="16" COMMENT="" />
    <EXPORT ORDINAL="224" NAME="?HinstLaunchBrowserWithUrl@@YAPAUHINSTANCE__@@PADPAUHWND__@@@Z" PURGE="0" COMMENT="" />
    <EXPORT ORDINAL="225" NAME="?HsGetFont@@YAJPAUHDC__@@PBUtagLOGFONTA@@PAPAVIFontObj@@@Z" PURGE="0" COMMENT="" />
    <EXPORT ORDINAL="226" NAME="?IMESubclassWindow@@YAP6GJPAUHWND__@@IIJ@Z0PAVCWnd@@@Z" PURGE="0" COMMENT="" />
    <EXPORT ORDINAL="227" NAME="?IMEUnSubclassWindow@@YAXPAUHWND__@@PAVCWnd@@@Z" PURGE="0" COMMENT="" />
    <EXPORT ORDINAL="228" NAME="?IchFromPchCh@@YAHPADHH@Z" PURGE="0" COMMENT="" />
    <EXPORT ORDINAL="229" NAME="?InSituConfirm@CHSLBox@@AAEHJPAUInSituData@@@Z" PURGE="8" COMMENT="" />
    <EXPORT ORDINAL="230" NAME="?InitFrom@CMapBits@@QAEJPAV1@@Z" PURGE="4" COMMENT="" />
    <EXPORT ORDINAL="231" NAME="?InitStorage@CHSLBox@@QAEJJ@Z" PURGE="4" COMMENT="" />
    <EXPORT ORDINAL="232" NAME="?InitializeBrush@CHSLBox@@AAEXKK@Z" PURGE="8" COMMENT="" />
    <EXPORT ORDINAL="233" NAME="?InputLangChange@CIME@@QAEXIJ@Z" PURGE="8" COMMENT="" />
    <EXPORT ORDINAL="234" NAME="?InsertItem@CHSLBox@@QAEJJPBDJJ@Z" PURGE="16" COMMENT="" />
    <EXPORT ORDINAL="235" NAME="?ItemDataOffset@CHSLBox@@AAEJXZ" PURGE="0" COMMENT="" />
    <EXPORT ORDINAL="236" NAME="?KeepLeftIconCount@CHSLBox@@AAEXPAULBItemData@@H@Z" PURGE="8" COMMENT="" />
    <EXPORT ORDINAL="237" NAME="?LToSz@@YAHJPAD@Z" PURGE="0" COMMENT="" />
    <EXPORT ORDINAL="238" NAME="?LoadCheckBox@CHSLBox@@QAEJPAUHINSTANCE__@@PBDJ@Z" PURGE="12" COMMENT="" />
    <EXPORT ORDINAL="239" NAME="?LoadIcons@CHSLBox@@QAEJPAUHINSTANCE__@@KPAPBDHJ@Z" PURGE="20" COMMENT="" />
    <EXPORT ORDINAL="240" NAME="?LpFromhWnd@CMapMgr@@QAEPAXPAUHWND__@@@Z" PURGE="4" COMMENT="" />
    <EXPORT ORDINAL="241" NAME="?MagStringDbcs@@YAHPBD0IIPAPAD@Z" PURGE="0" COMMENT="" />
    <EXPORT ORDINAL="242" NAME="?MagStringP@@YAHPAD0II@Z" PURGE="0" COMMENT="" />
    <EXPORT ORDINAL="243" NAME="?MatchOne@CHSRegex@@AAEHPAPADPAKPAD@Z" PURGE="12" COMMENT="" />
    <EXPORT ORDINAL="244" NAME="?MatchString@CHSRegex@@QAEJPADPAPAD1@Z" PURGE="12" COMMENT="" />
    <EXPORT ORDINAL="245" NAME="?MouseIdle@@YAXXZ" PURGE="0" COMMENT="" />
    <EXPORT ORDINAL="246" NAME="?MyCreateSizedStageDC@CHSLBox@@AAEJKK@Z" PURGE="8" COMMENT="" />
    <EXPORT ORDINAL="247" NAME="?OnCancelMode@CHSLBox@@AAEXXZ" PURGE="0" COMMENT="" />
    <EXPORT ORDINAL="248" NAME="?OnCompareItem@CHSLBox@@AAEJIJ@Z" PURGE="8" COMMENT="" />
    <EXPORT ORDINAL="249" NAME="?OnCreate@CIMEComboBox@@IAEHPAUtagCREATESTRUCTA@@@Z" PURGE="4" COMMENT="" />
    <EXPORT ORDINAL="250" NAME="?OnCreate@CIMEEdit@@IAEHPAUtagCREATESTRUCTA@@@Z" PURGE="4" COMMENT="" />
    <EXPORT ORDINAL="251" NAME="?OnCtlColor@CHSLBox@@AAEJPAUHDC__@@PAUHWND__@@K@Z" PURGE="12" COMMENT="" />
    <EXPORT ORDINAL="252" NAME="?OnDestroy@CHSLBox@@EAEXXZ" PURGE="0" COMMENT="" />
    <EXPORT ORDINAL="253" NAME="?OnDestroy@CIMEComboBox@@MAEXXZ" PURGE="0" COMMENT="" />
    <EXPORT ORDINAL="254" NAME="?OnDestroy@CIMEEdit@@MAEXXZ" PURGE="0" COMMENT="" />
    <EXPORT ORDINAL="255" NAME="?OnDrawItem@CHSLBox@@UAEJIPAUtagDRAWITEMSTRUCT@@@Z" PURGE="8" COMMENT="" />
    <EXPORT ORDINAL="256" NAME="?OnEraseBkgnd@CHSLBox@@AAEJPAUHDC__@@@Z" PURGE="4" COMMENT="" />
    <EXPORT ORDINAL="257" NAME="?OnInputLangChange@CIMEEdit@@MAEJIJ@Z" PURGE="8" COMMENT="" />
    <EXPORT ORDINAL="258" NAME="?OnKeyDown@CIMEEdit@@IAEXIII@Z" PURGE="12" COMMENT="" />
    <EXPORT ORDINAL="259" NAME="?OnKillFocus@CIMEEdit@@IAEXPAUHWND__@@@Z" PURGE="4" COMMENT="" />
    <EXPORT ORDINAL="260" NAME="?OnLButtonDown@CIMEEdit@@IAEXIVCPoint@@@Z" PURGE="12" COMMENT="" />
    <EXPORT ORDINAL="261" NAME="?OnLimitText@CIMEEdit@@IAEJIJ@Z" PURGE="8" COMMENT="" />
    <EXPORT ORDINAL="262" NAME="?OnMButtonDown@CIMEEdit@@IAEXIVCPoint@@@Z" PURGE="12" COMMENT="" />
    <EXPORT ORDINAL="263" NAME="?OnMeasureItem@CHSLBox@@AAEJIPAUtagMEASUREITEMSTRUCT@@@Z" PURGE="8" COMMENT="" />
    <EXPORT ORDINAL="264" NAME="?OnNcDestroy@CIMEComboBox@@IAEXXZ" PURGE="0" COMMENT="" />
    <EXPORT ORDINAL="265" NAME="?OnNcDestroy@CIMEEdit@@IAEXXZ" PURGE="0" COMMENT="" />
    <EXPORT ORDINAL="266" NAME="?OnPaint@CIMEEdit@@IAEXXZ" PURGE="0" COMMENT="" />
    <EXPORT ORDINAL="267" NAME="?OnPaletteChanged@CHSLBox@@AAEXPAUHWND__@@@Z" PURGE="4" COMMENT="" />
    <EXPORT ORDINAL="268" NAME="?OnPrintPaint@CHSLBox@@AAEXPAUHDC__@@@Z" PURGE="4" COMMENT="" />
    <EXPORT ORDINAL="269" NAME="?OnQueryNewPalette@CHSLBox@@AAEJXZ" PURGE="0" COMMENT="" />
    <EXPORT ORDINAL="270" NAME="?OnRButtonDown@CIMEEdit@@IAEXIVCPoint@@@Z" PURGE="12" COMMENT="" />
    <EXPORT ORDINAL="271" NAME="?OnRegMessage@CIMEEdit@@MAEJIIJ@Z" PURGE="12" COMMENT="" />
    <EXPORT ORDINAL="272" NAME="?OnSelCancel@CHSLBox@@AAEXXZ" PURGE="0" COMMENT="" />
    <EXPORT ORDINAL="273" NAME="?OnSelChange@CHSLBox@@AAEXXZ" PURGE="0" COMMENT="" />
    <EXPORT ORDINAL="274" NAME="?OnSetFocus@CHSLBox@@AAEXPAUHWND__@@@Z" PURGE="4" COMMENT="" />
    <EXPORT ORDINAL="275" NAME="?OnSetFocus@CIMEEdit@@IAEXPAUHWND__@@@Z" PURGE="4" COMMENT="" />
    <EXPORT ORDINAL="276" NAME="?OnSetFont@CIMEEdit@@IAEJIJ@Z" PURGE="8" COMMENT="" />
    <EXPORT ORDINAL="277" NAME="?OnSettingChange@CHSLBox@@AAEXIPBD@Z" PURGE="8" COMMENT="" />
    <EXPORT ORDINAL="278" NAME="?OnSize@CHSLBox@@AAEXIHH@Z" PURGE="12" COMMENT="" />
    <EXPORT ORDINAL="279" NAME="?OnSize@CIMEEdit@@IAEXIHH@Z" PURGE="12" COMMENT="" />
    <EXPORT ORDINAL="280" NAME="?OnSysColorChange@CHSLBox@@AAEXXZ" PURGE="0" COMMENT="" />
    <EXPORT ORDINAL="281" NAME="?OnSysKeyDown@CIMEEdit@@IAEXIII@Z" PURGE="12" COMMENT="" />
    <EXPORT ORDINAL="282" NAME="?OnVScroll@CHSLBox@@AAEXHIPAUHWND__@@@Z" PURGE="12" COMMENT="" />
    <EXPORT ORDINAL="283" NAME="?OperatorDelete@@YAXPAX@Z" PURGE="0" COMMENT="" />
    <EXPORT ORDINAL="284" NAME="?PGetIMEEdit@CIMEComboBox@@QAEPAVCIMEEdit@@XZ" PURGE="0" COMMENT="" />
    <EXPORT ORDINAL="285" NAME="?PaintWindow@CHSLBox@@AAEXPAUHDC__@@PAVCWnd@@@Z" PURGE="8" COMMENT="" />
    <EXPORT ORDINAL="286" NAME="?PatternCmp@CHSRegex@@AAEPADPADPAK0@Z" PURGE="12" COMMENT="" />
    <EXPORT ORDINAL="287" NAME="?PchFind@@YAPADPBD0@Z" PURGE="0" COMMENT="" />
    <EXPORT ORDINAL="288" NAME="?PchFromPWch_@@YAPADPADPBGH@Z" PURGE="0" COMMENT="" />
    <EXPORT ORDINAL="289" NAME="?PchPostDecDbcs@@YAPADAAPADQBD@Z" PURGE="0" COMMENT="" />
    <EXPORT ORDINAL="290" NAME="?PchPostIncDbcs@@YAPADAAPBD@Z" PURGE="0" COMMENT="" />
    <EXPORT ORDINAL="291" NAME="?PchSkipLeadingPchChar@@YAPADPBDG@Z" PURGE="0" COMMENT="" />
    <EXPORT ORDINAL="292" NAME="?PchSkipWhiteSpace@@YAPADPBD@Z" PURGE="0" COMMENT="" />
    <EXPORT ORDINAL="293" NAME="?PchStripTrailingWhiteSpace@@YAPADPAD@Z" PURGE="0" COMMENT="" />
    <EXPORT ORDINAL="294" NAME="?PchSubPromptTooltipString@@YAPADPADW4IPromptTooltipString@@@Z" PURGE="0" COMMENT="" />
    <EXPORT ORDINAL="295" NAME="?PchTruncateSz@@YAPADPADH@Z" PURGE="0" COMMENT="" />
    <EXPORT ORDINAL="296" NAME="?PchTruncateSzDbcs@@YAPADPADH@Z" PURGE="0" COMMENT="" />
    <EXPORT ORDINAL="297" NAME="?PostNcDestroy@CIMEEdit@@UAEXXZ" PURGE="0" COMMENT="" />
    <EXPORT ORDINAL="298" NAME="?PreSubclassWindow@CIMEComboBox@@UAEXXZ" PURGE="0" COMMENT="" />
    <EXPORT ORDINAL="299" NAME="?Proc@CHSLBox@@UAEJIIJ@Z" PURGE="12" COMMENT="" />
    <EXPORT ORDINAL="300" NAME="?Proc@CHiddenEdit@@MAEJIIJ@Z" PURGE="12" COMMENT="" />
    <EXPORT ORDINAL="301" NAME="?Proc@CIMEComboBox@@MAEJIIJ@Z" PURGE="12" COMMENT="" />
    <EXPORT ORDINAL="302" NAME="?Proc@CIMEEdit@@MAEJIIJ@Z" PURGE="12" COMMENT="" />
    <EXPORT ORDINAL="303" NAME="?PvBaseFromPv@@YAPAXPAX@Z" PURGE="0" COMMENT="" />
    <EXPORT ORDINAL="304" NAME="?PvBaseFromPvFixed@@YAPAXPAX@Z" PURGE="0" COMMENT="" />
    <EXPORT ORDINAL="305" NAME="?PwchFromPch_@@YAPAGPAGPBDH@Z" PURGE="0" COMMENT="" />
    <EXPORT ORDINAL="306" NAME="?RGBFromIS@CIMEEdit@@IAEKPBUIMESTYLE@@H@Z" PURGE="8" COMMENT="" />
    <EXPORT ORDINAL="307" NAME="?ReinitHidden@CIMEEdit@@IAEXPAD@Z" PURGE="4" COMMENT="" />
    <EXPORT ORDINAL="308" NAME="?RemoveAll@CMapMgr@@QAEXXZ" PURGE="0" COMMENT="" />
    <EXPORT ORDINAL="309" NAME="?RemoveItem@CHSLBox@@QAEJJ@Z" PURGE="4" COMMENT="" />
    <EXPORT ORDINAL="310" NAME="?ReplaceByResult@CIMEEdit@@IAEXPAD@Z" PURGE="4" COMMENT="" />
    <EXPORT ORDINAL="311" NAME="?ResetContent@CHSLBox@@QAEJXZ" PURGE="0" COMMENT="" />
    <EXPORT ORDINAL="312" NAME="?ResetDLLCachedOstrRes@@YAXPAUHINSTANCE__@@@Z" PURGE="0" COMMENT="" />
    <EXPORT ORDINAL="313" NAME="?ResultStr@CIMEEdit@@IAEXXZ" PURGE="0" COMMENT="" />
    <EXPORT ORDINAL="314" NAME="?ScrollIntoView@CHSLBox@@QAEJJ@Z" PURGE="4" COMMENT="" />
    <EXPORT ORDINAL="315" NAME="?SelItemRange@CHSLBox@@QAEJHJJ@Z" PURGE="12" COMMENT="" />
    <EXPORT ORDINAL="316" NAME="?SelectItem@CHSLBox@@QAEJHJ@Z" PURGE="8" COMMENT="" />
    <EXPORT ORDINAL="317" NAME="?SelectMyPalette@CHSLBox@@AAEXPAUHDC__@@H@Z" PURGE="8" COMMENT="" />
    <EXPORT ORDINAL="318" NAME="?SelectString@CHSLBox@@QAEJJPBD@Z" PURGE="8" COMMENT="" />
    <EXPORT ORDINAL="319" NAME="?SetAnchorIndex@CHSLBox@@QAEJH@Z" PURGE="4" COMMENT="" />
    <EXPORT ORDINAL="320" NAME="?SetBackColor@CHSLBox@@QAEJK@Z" PURGE="4" COMMENT="" />
    <EXPORT ORDINAL="321" NAME="?SetCaretIndex@CHSLBox@@QAEJHH@Z" PURGE="8" COMMENT="" />
    <EXPORT ORDINAL="322" NAME="?SetCheckBoxes@CHSLBox@@QAEJH@Z" PURGE="4" COMMENT="" />
    <EXPORT ORDINAL="323" NAME="?SetConstruction@CHSLBox@@QAEJH@Z" PURGE="4" COMMENT="" />
    <EXPORT ORDINAL="324" NAME="?SetConvert@CIMEEdit@@QAEXH@Z" PURGE="4" COMMENT="" />
    <EXPORT ORDINAL="325" NAME="?SetCurSelection@CHSLBox@@QAEJJ@Z" PURGE="4" COMMENT="" />
    <EXPORT ORDINAL="326" NAME="?SetDialogAllocated@CIMEEdit@@QAEXXZ" PURGE="0" COMMENT="" />
    <EXPORT ORDINAL="327" NAME="?SetExtendedSel@CHSLBox@@QAEJH@Z" PURGE="4" COMMENT="" />
    <EXPORT ORDINAL="328" NAME="?SetExtent@CMapBits@@QAEJKK@Z" PURGE="8" COMMENT="" />
    <EXPORT ORDINAL="329" NAME="?SetFocusRectColor@CHSLBox@@QAEJK@Z" PURGE="4" COMMENT="" />
    <EXPORT ORDINAL="330" NAME="?SetFont@CHSLBox@@QAEJJPAUHFONT__@@@Z" PURGE="8" COMMENT="" />
    <EXPORT ORDINAL="331" NAME="?SetGrowthBlockSize@CMapBits@@QAEXK@Z" PURGE="4" COMMENT="" />
    <EXPORT ORDINAL="332" NAME="?SetIMEOpenStatus@CIMEEdit@@QAEXH@Z" PURGE="4" COMMENT="" />
    <EXPORT ORDINAL="333" NAME="?SetIMEStatus@CIMEEdit@@QAEXKK@Z" PURGE="8" COMMENT="" />
    <EXPORT ORDINAL="334" NAME="?SetInSituEditing@CHSLBox@@QAEJH@Z" PURGE="4" COMMENT="" />
    <EXPORT ORDINAL="335" NAME="?SetIndentSize@CHSLBox@@QAEJJ@Z" PURGE="4" COMMENT="" />
    <EXPORT ORDINAL="336" NAME="?SetItem@CMapBits@@QAEJKK@Z" PURGE="8" COMMENT="" />
    <EXPORT ORDINAL="337" NAME="?SetItemData@CHSLBox@@QAEJJJ@Z" PURGE="8" COMMENT="" />
    <EXPORT ORDINAL="338" NAME="?SetItemHeight@CHSLBox@@QAEJJJ@Z" PURGE="8" COMMENT="" />
    <EXPORT ORDINAL="339" NAME="?SetItemIcon@CHSLBox@@QAEJKJH@Z" PURGE="12" COMMENT="" />
    <EXPORT ORDINAL="340" NAME="?SetItemStyle@CHSLBox@@QAEJJJ@Z" PURGE="8" COMMENT="" />
    <EXPORT ORDINAL="341" NAME="?SetListSorted@CHSLBox@@QAEJH@Z" PURGE="4" COMMENT="" />
    <EXPORT ORDINAL="342" NAME="?SetListStyle@CHSLBox@@QAEJJ@Z" PURGE="4" COMMENT="" />
    <EXPORT ORDINAL="343" NAME="?SetListVariable@CHSLBox@@QAEJH@Z" PURGE="4" COMMENT="" />
    <EXPORT ORDINAL="344" NAME="?SetLocale@CHSLBox@@QAEJK@Z" PURGE="4" COMMENT="" />
    <EXPORT ORDINAL="345" NAME="?SetMapBit@CHSRegex@@AAEXGPAD@Z" PURGE="8" COMMENT="" />
    <EXPORT ORDINAL="346" NAME="?SetMultiSelect@CHSLBox@@QAEJH@Z" PURGE="4" COMMENT="" />
    <EXPORT ORDINAL="347" NAME="?SetNoBorder@CHSLBox@@QAEJH@Z" PURGE="4" COMMENT="" />
    <EXPORT ORDINAL="348" NAME="?SetOstrmanResourceHandle@@YAPAUHINSTANCE__@@PAU1@@Z" PURGE="0" COMMENT="" />
    <EXPORT ORDINAL="349" NAME="?SetPaletteBackground@CHSLBox@@QAEJH@Z" PURGE="4" COMMENT="" />
    <EXPORT ORDINAL="350" NAME="?SetPanhandle@CHSLBox@@QAEJH@Z" PURGE="4" COMMENT="" />
    <EXPORT ORDINAL="351" NAME="?SetRedraw@CHSLBox@@AAEXHH@Z" PURGE="8" COMMENT="" />
    <EXPORT ORDINAL="352" NAME="?SetScrollBarRight@CHSLBox@@QAEJH@Z" PURGE="4" COMMENT="" />
    <EXPORT ORDINAL="353" NAME="?SetSelColor@CHSLBox@@QAEJK@Z" PURGE="4" COMMENT="" />
    <EXPORT ORDINAL="354" NAME="?SetSelection@CHSLBox@@QAEJJH@Z" PURGE="8" COMMENT="" />
    <EXPORT ORDINAL="355" NAME="?SetShadedColor@CHSLBox@@QAEJK@Z" PURGE="4" COMMENT="" />
    <EXPORT ORDINAL="356" NAME="?SetTextGrayedColor@CHSLBox@@QAEJK@Z" PURGE="4" COMMENT="" />
    <EXPORT ORDINAL="357" NAME="?SetTextNormalColor@CHSLBox@@QAEJK@Z" PURGE="4" COMMENT="" />
    <EXPORT ORDINAL="358" NAME="?SetTextSelectColor@CHSLBox@@QAEJK@Z" PURGE="4" COMMENT="" />
    <EXPORT ORDINAL="359" NAME="?SetTopIndex@CHSLBox@@QAEJH@Z" PURGE="4" COMMENT="" />
    <EXPORT ORDINAL="360" NAME="?SetWindowRects@CHSLBox@@AAEJXZ" PURGE="0" COMMENT="" />
    <EXPORT ORDINAL="361" NAME="?ShowWindow@CHSLBox@@QAEJH@Z" PURGE="4" COMMENT="" />
    <EXPORT ORDINAL="362" NAME="?SubclassEditControl@@YAXPAUHWND__@@@Z" PURGE="0" COMMENT="" />
    <EXPORT ORDINAL="363" NAME="?SzAppend@@YAXPBDPAD@Z" PURGE="0" COMMENT="" />
    <EXPORT ORDINAL="364" NAME="?SzAppendChars@@YAXPADHH@Z" PURGE="0" COMMENT="" />
    <EXPORT ORDINAL="365" NAME="?SzCopy@@YAPADPBDPAD@Z" PURGE="0" COMMENT="" />
    <EXPORT ORDINAL="366" NAME="?SzCopyDouble@@YAPADPAD0HH@Z" PURGE="0" COMMENT="" />
    <EXPORT ORDINAL="367" NAME="?SzCopyLower@@YAPADPBDPAD@Z" PURGE="0" COMMENT="" />
    <EXPORT ORDINAL="368" NAME="?SzCopySingle@@YAPADPAD0H@Z" PURGE="0" COMMENT="" />
    <EXPORT ORDINAL="369" NAME="?SzCopyTrunc@@YAPADPBDPADI@Z" PURGE="0" COMMENT="" />
    <EXPORT ORDINAL="370" NAME="?SzCopyUpper@@YAPADPBDPAD@Z" PURGE="0" COMMENT="" />
    <EXPORT ORDINAL="371" NAME="?TCChangeOpenStatus@CIME@@QAEXXZ" PURGE="0" COMMENT="" />
    <EXPORT ORDINAL="372" NAME="?TCResetLang@CIME@@QAEXXZ" PURGE="0" COMMENT="" />
    <EXPORT ORDINAL="373" NAME="?TCResetOpenStatus@CIME@@QAEXXZ" PURGE="0" COMMENT="" />
    <EXPORT ORDINAL="374" NAME="?TCSetOpenStatus@CIME@@QAEXH@Z" PURGE="4" COMMENT="" />
    <EXPORT ORDINAL="375" NAME="?TestMapBit@CHSRegex@@AAEHGPAD@Z" PURGE="8" COMMENT="" />
    <EXPORT ORDINAL="376" NAME="?UpdateEdit@CIMEEdit@@IAEXH@Z" PURGE="4" COMMENT="" />
    <EXPORT ORDINAL="377" NAME="?WchAcntDakuFromKana@@YAGPAGH@Z" PURGE="0" COMMENT="" />
    <EXPORT ORDINAL="378" NAME="?WchFromChWnMsg@@YAGHHH@Z" PURGE="0" COMMENT="" />
    <EXPORT ORDINAL="379" NAME="?WhFromPv@@YAPAXPAX@Z" PURGE="0" COMMENT="" />
    <EXPORT ORDINAL="380" NAME="?WksHeapValidate@@YAHPAX@Z" PURGE="0" COMMENT="" />
    <EXPORT ORDINAL="381" NAME="?WksHeapValidate@@YAHPAXKPBX@Z" PURGE="0" COMMENT="" />
    <EXPORT ORDINAL="382" NAME="?_Ch8FromCh@@YADDI@Z" PURGE="0" COMMENT="" />
    <EXPORT ORDINAL="383" NAME="?_ChFromCh8@@YADDI@Z" PURGE="0" COMMENT="" />
    <EXPORT ORDINAL="384" NAME="?_FHgReAlloc@@YAHPAXKK@Z" PURGE="0" COMMENT="" />
    <EXPORT ORDINAL="385" NAME="?_FPvReAlloc@@YAHPAXKK@Z" PURGE="0" COMMENT="" />
    <EXPORT ORDINAL="386" NAME="?_FWksHeapReAlloc@@YAHPAXKPAPAXK@Z" PURGE="0" COMMENT="" />
    <EXPORT ORDINAL="387" NAME="?_HgAlloc@@YAPAXKK@Z" PURGE="0" COMMENT="" />
    <EXPORT ORDINAL="388" NAME="?_HgFree@@YAPAXPAX@Z" PURGE="0" COMMENT="" />
    <EXPORT ORDINAL="389" NAME="?_HgSize@@YAKPAX@Z" PURGE="0" COMMENT="" />
    <EXPORT ORDINAL="390" NAME="?_PvAlloc@@YAPAXKKK@Z" PURGE="0" COMMENT="" />
    <EXPORT ORDINAL="391" NAME="?_PvFree@@YAXPAX@Z" PURGE="0" COMMENT="" />
    <EXPORT ORDINAL="392" NAME="?_PvSize@@YAKPAX@Z" PURGE="0" COMMENT="" />
    <EXPORT ORDINAL="393" NAME="?_WksHeapAlloc@@YAPAXPAXKK@Z" PURGE="0" COMMENT="" />
    <EXPORT ORDINAL="394" NAME="?_WksHeapCreate@@YAPAXKKK@Z" PURGE="0" COMMENT="" />
    <EXPORT ORDINAL="395" NAME="?_WksHeapDestroy@@YAPAXPAX@Z" PURGE="0" COMMENT="" />
    <EXPORT ORDINAL="396" NAME="?_WksHeapFree@@YAPAXPAXK0@Z" PURGE="0" COMMENT="" />
    <EXPORT ORDINAL="397" NAME="?_WksHeapSize@@YAKPAXK0@Z" PURGE="0" COMMENT="" />
    <EXPORT ORDINAL="398" NAME="?_WksMemInit@@YAHXZ" PURGE="0" COMMENT="" />
    <EXPORT ORDINAL="399" NAME="?gDestroyContextIME@@YAXK@Z" PURGE="0" COMMENT="" />
    <EXPORT ORDINAL="400" NAME="?gDisableIME@@YAXPAUHWND__@@@Z" PURGE="0" COMMENT="" />
    <EXPORT ORDINAL="401" NAME="?gHCreateContextIME@@YAKXZ" PURGE="0" COMMENT="" />
    <EXPORT ORDINAL="402" NAME="?gSetOpenStatusIMEForHwnd@@YAXPAUHWND__@@H@Z" PURGE="0" COMMENT="" />
    <EXPORT ORDINAL="403" NAME="?gSetOpenStatusIMEGlobal@@YAXPAUHWND__@@H@Z" PURGE="0" COMMENT="" />
    <EXPORT ORDINAL="404" NAME="?gSetStatusIMEForHwnd@@YAXPAUHWND__@@KK@Z" PURGE="0" COMMENT="" />
    <EXPORT ORDINAL="405" NAME="?indexnChDbcs@@YAPADQBDHG@Z" PURGE="0" COMMENT="" />
    <EXPORT ORDINAL="406" NAME="?indexnNotChDbcs@@YAPADQBDHG@Z" PURGE="0" COMMENT="" />
    <EXPORT ORDINAL="407" NAME="?indexnNotb@@YAPAEQBEHE@Z" PURGE="0" COMMENT="" />
    <EXPORT ORDINAL="408" NAME="?indexnb@@YAPAEQBEHE@Z" PURGE="0" COMMENT="" />
    <EXPORT ORDINAL="409" NAME="?s_w2cLookup@CWndHolder@@2VCMapMgr@@A" PURGE="-1" COMMENT="" />
    <EXPORT ORDINAL="410" NAME="?vfImeShareSupport@@3HA" PURGE="-1" COMMENT="" />
    <EXPORT ORDINAL="411" NAME="?vfImeSupport@@3HA" PURGE="-1" COMMENT="" />
    <EXPORT ORDINAL="412" NAME="?vfnsImeShare@@3U_fnsImeShare@@A" PURGE="-1" COMMENT="" />
    <EXPORT ORDINAL="413" NAME="?vpIntlDllCommon@@3PAUINTLDLLCOMMON@@A" PURGE="-1" COMMENT="" />
    <EXPORT ORDINAL="414" NAME="?vszEmpty@@3PADA" PURGE="-1" COMMENT="" />
    <EXPORT ORDINAL="415" NAME="CreateHSBrush" PURGE="0" COMMENT="" />
    <EXPORT ORDINAL="416" NAME="CreateSizedStageDC" PURGE="0" COMMENT="" />
    <EXPORT ORDINAL="417" NAME="DeInitHSPalette" PURGE="0" COMMENT="" />
    <EXPORT ORDINAL="418" NAME="DeleteSizedStageDC" PURGE="0" COMMENT="" />
    <EXPORT ORDINAL="419" NAME="EscapeText" PURGE="0" COMMENT="" />
    <EXPORT ORDINAL="420" NAME="GetHSPalette" PURGE="0" COMMENT="" />
    <EXPORT ORDINAL="421" NAME="GetHSPaletteColorFromIndex" PURGE="0" COMMENT="" />
    <EXPORT ORDINAL="422" NAME="GetHSRGBQuads" PURGE="0" COMMENT="" />
    <EXPORT ORDINAL="423" NAME="HSLoadBitmapResource" PURGE="0" COMMENT="" />
    <EXPORT ORDINAL="424" NAME="HSTransparentDIBBlt" PURGE="0" COMMENT="" />
    <EXPORT ORDINAL="425" NAME="InitHSPalette" PURGE="0" COMMENT="" />
    <EXPORT ORDINAL="426" NAME="InitMenuTips" PURGE="0" COMMENT="" />
    <EXPORT ORDINAL="427" NAME="InitMenuTracking" PURGE="0" COMMENT="" />
    <EXPORT ORDINAL="428" NAME="MenuTipPending" PURGE="0" COMMENT="" />
    <EXPORT ORDINAL="429" NAME="PatBltFillRect" PURGE="0" COMMENT="" />
    <EXPORT ORDINAL="430" NAME="SetHSPalette" PURGE="0" COMMENT="" />
    <EXPORT ORDINAL="431" NAME="SetHSPaletteMagicColors" PURGE="0" COMMENT="" />
    <EXPORT ORDINAL="432" NAME="TermMenuTracking" PURGE="0" COMMENT="" />
</LIBRARY>

