<?xml version="1.0" encoding="UTF-8"?>
<LIBRARY NAME="x32dbg.dll" PATH="/DLLArchive/etc/x32dbg.dll" DATE="Wed Jan 18 02:14:36 PST 2023" VERSION="">
    <EXPORT ORDINAL="1" NAME="?Add@Argument@Script@@YA_NKK_NK@Z" PURGE="0" COMMENT="" />
    <EXPORT ORDINAL="2" NAME="?Add@Argument@Script@@YA_NPBUArgumentInfo@12@@Z" PURGE="0" COMMENT="" />
    <EXPORT ORDINAL="3" NAME="?Add@Function@Script@@YA_NKK_NK@Z" PURGE="0" COMMENT="" />
    <EXPORT ORDINAL="4" NAME="?Add@Function@Script@@YA_NPBUFunctionInfo@12@@Z" PURGE="0" COMMENT="" />
    <EXPORT ORDINAL="5" NAME="?AddQWidgetTab@Gui@Script@@YAXPAX@Z" PURGE="-1" COMMENT="" />
    <EXPORT ORDINAL="6" NAME="?Alloc@Misc@Script@@YAPAXK@Z" PURGE="-1" COMMENT="" />
    <EXPORT ORDINAL="7" NAME="?Assemble@Assembler@Script@@YA_NKPAEPAHPBD@Z" PURGE="0" COMMENT="" />
    <EXPORT ORDINAL="8" NAME="?AssembleEx@Assembler@Script@@YA_NKPAEPAHPBDPAD@Z" PURGE="0" COMMENT="" />
    <EXPORT ORDINAL="9" NAME="?AssembleMem@Assembler@Script@@YA_NKPBD@Z" PURGE="0" COMMENT="" />
    <EXPORT ORDINAL="10" NAME="?AssembleMemEx@Assembler@Script@@YA_NKPBDPAHPAD_N@Z" PURGE="0" COMMENT="" />
    <EXPORT ORDINAL="11" NAME="?BaseFromAddr@Module@Script@@YAKK@Z" PURGE="0" COMMENT="" />
    <EXPORT ORDINAL="12" NAME="?BaseFromName@Module@Script@@YAKPBD@Z" PURGE="0" COMMENT="" />
    <EXPORT ORDINAL="13" NAME="?Clear@Argument@Script@@YAXXZ" PURGE="0" COMMENT="" />
    <EXPORT ORDINAL="14" NAME="?Clear@Bookmark@Script@@YAXXZ" PURGE="0" COMMENT="" />
    <EXPORT ORDINAL="15" NAME="?Clear@Comment@Script@@YAXXZ" PURGE="0" COMMENT="" />
    <EXPORT ORDINAL="16" NAME="?Clear@Function@Script@@YAXXZ" PURGE="0" COMMENT="" />
    <EXPORT ORDINAL="17" NAME="?Clear@Label@Script@@YAXXZ" PURGE="0" COMMENT="" />
    <EXPORT ORDINAL="18" NAME="?CloseQWidgetTab@Gui@Script@@YAXPAX@Z" PURGE="-1" COMMENT="" />
    <EXPORT ORDINAL="19" NAME="?Delete@Argument@Script@@YA_NK@Z" PURGE="0" COMMENT="" />
    <EXPORT ORDINAL="20" NAME="?Delete@Bookmark@Script@@YA_NK@Z" PURGE="0" COMMENT="" />
    <EXPORT ORDINAL="21" NAME="?Delete@Comment@Script@@YA_NK@Z" PURGE="0" COMMENT="" />
    <EXPORT ORDINAL="22" NAME="?Delete@Function@Script@@YA_NK@Z" PURGE="0" COMMENT="" />
    <EXPORT ORDINAL="23" NAME="?Delete@Label@Script@@YA_NK@Z" PURGE="0" COMMENT="" />
    <EXPORT ORDINAL="24" NAME="?DeleteBreakpoint@Debug@Script@@YA_NK@Z" PURGE="0" COMMENT="" />
    <EXPORT ORDINAL="25" NAME="?DeleteHardwareBreakpoint@Debug@Script@@YA_NK@Z" PURGE="0" COMMENT="" />
    <EXPORT ORDINAL="26" NAME="?DeleteRange@Argument@Script@@YAXKK_N@Z" PURGE="0" COMMENT="" />
    <EXPORT ORDINAL="27" NAME="?DeleteRange@Bookmark@Script@@YAXKK@Z" PURGE="0" COMMENT="" />
    <EXPORT ORDINAL="28" NAME="?DeleteRange@Comment@Script@@YAXKK@Z" PURGE="0" COMMENT="" />
    <EXPORT ORDINAL="29" NAME="?DeleteRange@Function@Script@@YAXKK@Z" PURGE="0" COMMENT="" />
    <EXPORT ORDINAL="30" NAME="?DeleteRange@Function@Script@@YAXKK_N@Z" PURGE="0" COMMENT="" />
    <EXPORT ORDINAL="31" NAME="?DeleteRange@Label@Script@@YAXKK@Z" PURGE="0" COMMENT="" />
    <EXPORT ORDINAL="32" NAME="?DisableBreakpoint@Debug@Script@@YA_NK@Z" PURGE="0" COMMENT="" />
    <EXPORT ORDINAL="33" NAME="?EntryFromAddr@Module@Script@@YAKK@Z" PURGE="0" COMMENT="" />
    <EXPORT ORDINAL="34" NAME="?EntryFromName@Module@Script@@YAKPBD@Z" PURGE="0" COMMENT="" />
    <EXPORT ORDINAL="35" NAME="?Find@Pattern@Script@@YAKPAEKPBD@Z" PURGE="0" COMMENT="" />
    <EXPORT ORDINAL="36" NAME="?FindMem@Pattern@Script@@YAKKKPBD@Z" PURGE="0" COMMENT="" />
    <EXPORT ORDINAL="37" NAME="?Free@Misc@Script@@YAXPAX@Z" PURGE="-1" COMMENT="" />
    <EXPORT ORDINAL="38" NAME="?FromString@Label@Script@@YA_NPBDPAK@Z" PURGE="0" COMMENT="" />
    <EXPORT ORDINAL="39" NAME="?Get@Argument@Script@@YA_NKPAK00@Z" PURGE="0" COMMENT="" />
    <EXPORT ORDINAL="40" NAME="?Get@Bookmark@Script@@YA_NK@Z" PURGE="0" COMMENT="" />
    <EXPORT ORDINAL="41" NAME="?Get@Comment@Script@@YA_NKPAD@Z" PURGE="0" COMMENT="" />
    <EXPORT ORDINAL="42" NAME="?Get@Flag@Script@@YA_NW4FlagEnum@12@@Z" PURGE="0" COMMENT="" />
    <EXPORT ORDINAL="43" NAME="?Get@Function@Script@@YA_NKPAK00@Z" PURGE="0" COMMENT="" />
    <EXPORT ORDINAL="44" NAME="?Get@Label@Script@@YA_NKPAD@Z" PURGE="0" COMMENT="" />
    <EXPORT ORDINAL="45" NAME="?Get@Register@Script@@YAKW4RegisterEnum@12@@Z" PURGE="0" COMMENT="" />
    <EXPORT ORDINAL="46" NAME="?GetAF@Flag@Script@@YA_NXZ" PURGE="0" COMMENT="" />
    <EXPORT ORDINAL="47" NAME="?GetAH@Register@Script@@YAEXZ" PURGE="0" COMMENT="" />
    <EXPORT ORDINAL="48" NAME="?GetAL@Register@Script@@YAEXZ" PURGE="0" COMMENT="" />
    <EXPORT ORDINAL="49" NAME="?GetAX@Register@Script@@YAGXZ" PURGE="0" COMMENT="" />
    <EXPORT ORDINAL="50" NAME="?GetBH@Register@Script@@YAEXZ" PURGE="0" COMMENT="" />
    <EXPORT ORDINAL="51" NAME="?GetBL@Register@Script@@YAEXZ" PURGE="0" COMMENT="" />
    <EXPORT ORDINAL="52" NAME="?GetBP@Register@Script@@YAGXZ" PURGE="0" COMMENT="" />
    <EXPORT ORDINAL="53" NAME="?GetBX@Register@Script@@YAGXZ" PURGE="0" COMMENT="" />
    <EXPORT ORDINAL="54" NAME="?GetBase@Memory@Script@@YAKK_N0@Z" PURGE="0" COMMENT="" />
    <EXPORT ORDINAL="55" NAME="?GetCAX@Register@Script@@YAKXZ" PURGE="0" COMMENT="" />
    <EXPORT ORDINAL="56" NAME="?GetCBP@Register@Script@@YAKXZ" PURGE="0" COMMENT="" />
    <EXPORT ORDINAL="57" NAME="?GetCBX@Register@Script@@YAKXZ" PURGE="0" COMMENT="" />
    <EXPORT ORDINAL="58" NAME="?GetCCX@Register@Script@@YAKXZ" PURGE="0" COMMENT="" />
    <EXPORT ORDINAL="59" NAME="?GetCDI@Register@Script@@YAKXZ" PURGE="0" COMMENT="" />
    <EXPORT ORDINAL="60" NAME="?GetCDX@Register@Script@@YAKXZ" PURGE="0" COMMENT="" />
    <EXPORT ORDINAL="61" NAME="?GetCF@Flag@Script@@YA_NXZ" PURGE="0" COMMENT="" />
    <EXPORT ORDINAL="62" NAME="?GetCFLAGS@Register@Script@@YAKXZ" PURGE="0" COMMENT="" />
    <EXPORT ORDINAL="63" NAME="?GetCH@Register@Script@@YAEXZ" PURGE="0" COMMENT="" />
    <EXPORT ORDINAL="64" NAME="?GetCIP@Register@Script@@YAKXZ" PURGE="0" COMMENT="" />
    <EXPORT ORDINAL="65" NAME="?GetCL@Register@Script@@YAEXZ" PURGE="0" COMMENT="" />
    <EXPORT ORDINAL="66" NAME="?GetCSI@Register@Script@@YAKXZ" PURGE="0" COMMENT="" />
    <EXPORT ORDINAL="67" NAME="?GetCSP@Register@Script@@YAKXZ" PURGE="0" COMMENT="" />
    <EXPORT ORDINAL="68" NAME="?GetCX@Register@Script@@YAGXZ" PURGE="0" COMMENT="" />
    <EXPORT ORDINAL="69" NAME="?GetDF@Flag@Script@@YA_NXZ" PURGE="0" COMMENT="" />
    <EXPORT ORDINAL="70" NAME="?GetDH@Register@Script@@YAEXZ" PURGE="0" COMMENT="" />
    <EXPORT ORDINAL="71" NAME="?GetDI@Register@Script@@YAGXZ" PURGE="0" COMMENT="" />
    <EXPORT ORDINAL="72" NAME="?GetDL@Register@Script@@YAEXZ" PURGE="0" COMMENT="" />
    <EXPORT ORDINAL="73" NAME="?GetDR0@Register@Script@@YAKXZ" PURGE="0" COMMENT="" />
    <EXPORT ORDINAL="74" NAME="?GetDR1@Register@Script@@YAKXZ" PURGE="0" COMMENT="" />
    <EXPORT ORDINAL="75" NAME="?GetDR2@Register@Script@@YAKXZ" PURGE="0" COMMENT="" />
    <EXPORT ORDINAL="76" NAME="?GetDR3@Register@Script@@YAKXZ" PURGE="0" COMMENT="" />
    <EXPORT ORDINAL="77" NAME="?GetDR6@Register@Script@@YAKXZ" PURGE="0" COMMENT="" />
    <EXPORT ORDINAL="78" NAME="?GetDR7@Register@Script@@YAKXZ" PURGE="0" COMMENT="" />
    <EXPORT ORDINAL="79" NAME="?GetDX@Register@Script@@YAGXZ" PURGE="0" COMMENT="" />
    <EXPORT ORDINAL="80" NAME="?GetEAX@Register@Script@@YAIXZ" PURGE="0" COMMENT="" />
    <EXPORT ORDINAL="81" NAME="?GetEBP@Register@Script@@YAIXZ" PURGE="0" COMMENT="" />
    <EXPORT ORDINAL="82" NAME="?GetEBX@Register@Script@@YAIXZ" PURGE="0" COMMENT="" />
    <EXPORT ORDINAL="83" NAME="?GetECX@Register@Script@@YAIXZ" PURGE="0" COMMENT="" />
    <EXPORT ORDINAL="84" NAME="?GetEDI@Register@Script@@YAIXZ" PURGE="0" COMMENT="" />
    <EXPORT ORDINAL="85" NAME="?GetEDX@Register@Script@@YAIXZ" PURGE="0" COMMENT="" />
    <EXPORT ORDINAL="86" NAME="?GetEIP@Register@Script@@YAIXZ" PURGE="0" COMMENT="" />
    <EXPORT ORDINAL="87" NAME="?GetESI@Register@Script@@YAIXZ" PURGE="0" COMMENT="" />
    <EXPORT ORDINAL="88" NAME="?GetESP@Register@Script@@YAIXZ" PURGE="0" COMMENT="" />
    <EXPORT ORDINAL="89" NAME="?GetExports@Module@Script@@YA_NPBUModuleInfo@12@PAUListInfo@@@Z" PURGE="0" COMMENT="" />
    <EXPORT ORDINAL="90" NAME="?GetIF@Flag@Script@@YA_NXZ" PURGE="0" COMMENT="" />
    <EXPORT ORDINAL="91" NAME="?GetImports@Module@Script@@YA_NPBUModuleInfo@12@PAUListInfo@@@Z" PURGE="0" COMMENT="" />
    <EXPORT ORDINAL="92" NAME="?GetInfo@Argument@Script@@YA_NKPAUArgumentInfo@12@@Z" PURGE="0" COMMENT="" />
    <EXPORT ORDINAL="93" NAME="?GetInfo@Bookmark@Script@@YA_NKPAUBookmarkInfo@12@@Z" PURGE="0" COMMENT="" />
    <EXPORT ORDINAL="94" NAME="?GetInfo@Comment@Script@@YA_NKPAUCommentInfo@12@@Z" PURGE="0" COMMENT="" />
    <EXPORT ORDINAL="95" NAME="?GetInfo@Function@Script@@YA_NKPAUFunctionInfo@12@@Z" PURGE="0" COMMENT="" />
    <EXPORT ORDINAL="96" NAME="?GetInfo@Label@Script@@YA_NKPAULabelInfo@12@@Z" PURGE="0" COMMENT="" />
    <EXPORT ORDINAL="97" NAME="?GetList@Argument@Script@@YA_NPAUListInfo@@@Z" PURGE="0" COMMENT="" />
    <EXPORT ORDINAL="98" NAME="?GetList@Bookmark@Script@@YA_NPAUListInfo@@@Z" PURGE="0" COMMENT="" />
    <EXPORT ORDINAL="99" NAME="?GetList@Comment@Script@@YA_NPAUListInfo@@@Z" PURGE="0" COMMENT="" />
    <EXPORT ORDINAL="100" NAME="?GetList@Function@Script@@YA_NPAUListInfo@@@Z" PURGE="0" COMMENT="" />
    <EXPORT ORDINAL="101" NAME="?GetList@Label@Script@@YA_NPAUListInfo@@@Z" PURGE="0" COMMENT="" />
    <EXPORT ORDINAL="102" NAME="?GetList@Module@Script@@YA_NPAUListInfo@@@Z" PURGE="0" COMMENT="" />
    <EXPORT ORDINAL="103" NAME="?GetList@Symbol@Script@@YA_NPAUListInfo@@@Z" PURGE="0" COMMENT="" />
    <EXPORT ORDINAL="104" NAME="?GetMainModuleBase@Module@Script@@YAKXZ" PURGE="0" COMMENT="" />
    <EXPORT ORDINAL="105" NAME="?GetMainModuleEntry@Module@Script@@YAKXZ" PURGE="0" COMMENT="" />
    <EXPORT ORDINAL="106" NAME="?GetMainModuleInfo@Module@Script@@YA_NPAUModuleInfo@12@@Z" PURGE="0" COMMENT="" />
    <EXPORT ORDINAL="107" NAME="?GetMainModuleName@Module@Script@@YA_NPAD@Z" PURGE="0" COMMENT="" />
    <EXPORT ORDINAL="108" NAME="?GetMainModulePath@Module@Script@@YA_NPAD@Z" PURGE="0" COMMENT="" />
    <EXPORT ORDINAL="109" NAME="?GetMainModuleSectionCount@Module@Script@@YAHXZ" PURGE="0" COMMENT="" />
    <EXPORT ORDINAL="110" NAME="?GetMainModuleSectionList@Module@Script@@YA_NPAUListInfo@@@Z" PURGE="0" COMMENT="" />
    <EXPORT ORDINAL="111" NAME="?GetMainModuleSize@Module@Script@@YAKXZ" PURGE="0" COMMENT="" />
    <EXPORT ORDINAL="112" NAME="?GetOF@Flag@Script@@YA_NXZ" PURGE="0" COMMENT="" />
    <EXPORT ORDINAL="113" NAME="?GetPF@Flag@Script@@YA_NXZ" PURGE="0" COMMENT="" />
    <EXPORT ORDINAL="114" NAME="?GetProtect@Memory@Script@@YAIK_N0@Z" PURGE="0" COMMENT="" />
    <EXPORT ORDINAL="115" NAME="?GetSF@Flag@Script@@YA_NXZ" PURGE="0" COMMENT="" />
    <EXPORT ORDINAL="116" NAME="?GetSI@Register@Script@@YAGXZ" PURGE="0" COMMENT="" />
    <EXPORT ORDINAL="117" NAME="?GetSP@Register@Script@@YAGXZ" PURGE="0" COMMENT="" />
    <EXPORT ORDINAL="118" NAME="?GetSize@Memory@Script@@YAKK_N0@Z" PURGE="0" COMMENT="" />
    <EXPORT ORDINAL="119" NAME="?GetTF@Flag@Script@@YA_NXZ" PURGE="0" COMMENT="" />
    <EXPORT ORDINAL="120" NAME="?GetZF@Flag@Script@@YA_NXZ" PURGE="0" COMMENT="" />
    <EXPORT ORDINAL="121" NAME="?InfoFromAddr@Module@Script@@YA_NKPAUModuleInfo@12@@Z" PURGE="0" COMMENT="" />
    <EXPORT ORDINAL="122" NAME="?InfoFromName@Module@Script@@YA_NPBDPAUModuleInfo@12@@Z" PURGE="0" COMMENT="" />
    <EXPORT ORDINAL="123" NAME="?InputLine@Gui@Script@@YA_NPBDPAD@Z" PURGE="-1" COMMENT="" />
    <EXPORT ORDINAL="124" NAME="?InputValue@Gui@Script@@YA_NPBDPAK@Z" PURGE="0" COMMENT="" />
    <EXPORT ORDINAL="125" NAME="?IsTemporary@Label@Script@@YA_NK@Z" PURGE="0" COMMENT="" />
    <EXPORT ORDINAL="126" NAME="?IsValidPtr@Memory@Script@@YA_NK@Z" PURGE="0" COMMENT="" />
    <EXPORT ORDINAL="127" NAME="?Message@Gui@Script@@YAXPBD@Z" PURGE="-1" COMMENT="" />
    <EXPORT ORDINAL="128" NAME="?MessageYesNo@Gui@Script@@YA_NPBD@Z" PURGE="0" COMMENT="" />
    <EXPORT ORDINAL="129" NAME="?NameFromAddr@Module@Script@@YA_NKPAD@Z" PURGE="0" COMMENT="" />
    <EXPORT ORDINAL="130" NAME="?Overlaps@Argument@Script@@YA_NKK@Z" PURGE="0" COMMENT="" />
    <EXPORT ORDINAL="131" NAME="?Overlaps@Function@Script@@YA_NKK@Z" PURGE="0" COMMENT="" />
    <EXPORT ORDINAL="132" NAME="?ParseExpression@Misc@Script@@YA_NPBDPAK@Z" PURGE="0" COMMENT="" />
    <EXPORT ORDINAL="133" NAME="?PathFromAddr@Module@Script@@YA_NKPAD@Z" PURGE="0" COMMENT="" />
    <EXPORT ORDINAL="134" NAME="?PathFromName@Module@Script@@YA_NPBDPAD@Z" PURGE="0" COMMENT="" />
    <EXPORT ORDINAL="135" NAME="?Pause@Debug@Script@@YAXXZ" PURGE="0" COMMENT="" />
    <EXPORT ORDINAL="136" NAME="?Peek@Stack@Script@@YAKH@Z" PURGE="0" COMMENT="" />
    <EXPORT ORDINAL="137" NAME="?Pop@Stack@Script@@YAKXZ" PURGE="0" COMMENT="" />
    <EXPORT ORDINAL="138" NAME="?Push@Stack@Script@@YAKK@Z" PURGE="0" COMMENT="" />
    <EXPORT ORDINAL="139" NAME="?Read@Memory@Script@@YA_NKPAXKPAK@Z" PURGE="0" COMMENT="" />
    <EXPORT ORDINAL="140" NAME="?ReadByte@Memory@Script@@YAEK@Z" PURGE="0" COMMENT="" />
    <EXPORT ORDINAL="141" NAME="?ReadDword@Memory@Script@@YAIK@Z" PURGE="0" COMMENT="" />
    <EXPORT ORDINAL="142" NAME="?ReadPtr@Memory@Script@@YAKK@Z" PURGE="0" COMMENT="" />
    <EXPORT ORDINAL="143" NAME="?ReadQword@Memory@Script@@YA_KK@Z" PURGE="0" COMMENT="" />
    <EXPORT ORDINAL="144" NAME="?ReadWord@Memory@Script@@YAGK@Z" PURGE="0" COMMENT="" />
    <EXPORT ORDINAL="145" NAME="?Refresh@Gui@Script@@YAXXZ" PURGE="-1" COMMENT="" />
    <EXPORT ORDINAL="146" NAME="?RemoteAlloc@Memory@Script@@YAKKK@Z" PURGE="0" COMMENT="" />
    <EXPORT ORDINAL="147" NAME="?RemoteFree@Memory@Script@@YA_NK@Z" PURGE="0" COMMENT="" />
    <EXPORT ORDINAL="148" NAME="?RemoteGetProcAddress@Misc@Script@@YAKPBD0@Z" PURGE="0" COMMENT="" />
    <EXPORT ORDINAL="149" NAME="?ResolveLabel@Misc@Script@@YAKPBD@Z" PURGE="0" COMMENT="" />
    <EXPORT ORDINAL="150" NAME="?Run@Debug@Script@@YAXXZ" PURGE="0" COMMENT="" />
    <EXPORT ORDINAL="151" NAME="?SearchAndReplace@Pattern@Script@@YA_NPAEKPBD1@Z" PURGE="0" COMMENT="" />
    <EXPORT ORDINAL="152" NAME="?SearchAndReplaceMem@Pattern@Script@@YA_NKKPBD0@Z" PURGE="0" COMMENT="" />
    <EXPORT ORDINAL="153" NAME="?SectionCountFromAddr@Module@Script@@YAHK@Z" PURGE="0" COMMENT="" />
    <EXPORT ORDINAL="154" NAME="?SectionCountFromName@Module@Script@@YAHPBD@Z" PURGE="0" COMMENT="" />
    <EXPORT ORDINAL="155" NAME="?SectionFromAddr@Module@Script@@YA_NKHPAUModuleSectionInfo@12@@Z" PURGE="0" COMMENT="" />
    <EXPORT ORDINAL="156" NAME="?SectionFromName@Module@Script@@YA_NPBDHPAUModuleSectionInfo@12@@Z" PURGE="0" COMMENT="" />
    <EXPORT ORDINAL="157" NAME="?SectionListFromAddr@Module@Script@@YA_NKPAUListInfo@@@Z" PURGE="0" COMMENT="" />
    <EXPORT ORDINAL="158" NAME="?SectionListFromName@Module@Script@@YA_NPBDPAUListInfo@@@Z" PURGE="0" COMMENT="" />
    <EXPORT ORDINAL="159" NAME="?SelectionGet@Disassembly@Gui@Script@@YA_NPAK0@Z" PURGE="0" COMMENT="" />
    <EXPORT ORDINAL="160" NAME="?SelectionGet@Dump@Gui@Script@@YA_NPAK0@Z" PURGE="0" COMMENT="" />
    <EXPORT ORDINAL="161" NAME="?SelectionGet@Gui@Script@@YA_NW4Window@12@PAK1@Z" PURGE="0" COMMENT="" />
    <EXPORT ORDINAL="162" NAME="?SelectionGet@Stack@Gui@Script@@YA_NPAK0@Z" PURGE="0" COMMENT="" />
    <EXPORT ORDINAL="163" NAME="?SelectionGetEnd@Disassembly@Gui@Script@@YAKXZ" PURGE="0" COMMENT="" />
    <EXPORT ORDINAL="164" NAME="?SelectionGetEnd@Dump@Gui@Script@@YAKXZ" PURGE="0" COMMENT="" />
    <EXPORT ORDINAL="165" NAME="?SelectionGetEnd@Gui@Script@@YAKW4Window@12@@Z" PURGE="0" COMMENT="" />
    <EXPORT ORDINAL="166" NAME="?SelectionGetEnd@Stack@Gui@Script@@YAKXZ" PURGE="0" COMMENT="" />
    <EXPORT ORDINAL="167" NAME="?SelectionGetStart@Disassembly@Gui@Script@@YAKXZ" PURGE="0" COMMENT="" />
    <EXPORT ORDINAL="168" NAME="?SelectionGetStart@Dump@Gui@Script@@YAKXZ" PURGE="0" COMMENT="" />
    <EXPORT ORDINAL="169" NAME="?SelectionGetStart@Graph@Gui@Script@@YAKXZ" PURGE="0" COMMENT="" />
    <EXPORT ORDINAL="170" NAME="?SelectionGetStart@Gui@Script@@YAKW4Window@12@@Z" PURGE="0" COMMENT="" />
    <EXPORT ORDINAL="171" NAME="?SelectionGetStart@MemMap@Gui@Script@@YAKXZ" PURGE="0" COMMENT="" />
    <EXPORT ORDINAL="172" NAME="?SelectionGetStart@Stack@Gui@Script@@YAKXZ" PURGE="0" COMMENT="" />
    <EXPORT ORDINAL="173" NAME="?SelectionGetStart@SymMod@Gui@Script@@YAKXZ" PURGE="0" COMMENT="" />
    <EXPORT ORDINAL="174" NAME="?SelectionSet@Disassembly@Gui@Script@@YA_NKK@Z" PURGE="0" COMMENT="" />
    <EXPORT ORDINAL="175" NAME="?SelectionSet@Dump@Gui@Script@@YA_NKK@Z" PURGE="0" COMMENT="" />
    <EXPORT ORDINAL="176" NAME="?SelectionSet@Gui@Script@@YA_NW4Window@12@KK@Z" PURGE="0" COMMENT="" />
    <EXPORT ORDINAL="177" NAME="?SelectionSet@Stack@Gui@Script@@YA_NKK@Z" PURGE="0" COMMENT="" />
    <EXPORT ORDINAL="178" NAME="?Set@Bookmark@Script@@YA_NK_N@Z" PURGE="0" COMMENT="" />
    <EXPORT ORDINAL="179" NAME="?Set@Bookmark@Script@@YA_NPBUBookmarkInfo@12@@Z" PURGE="0" COMMENT="" />
    <EXPORT ORDINAL="180" NAME="?Set@Comment@Script@@YA_NKPBD_N@Z" PURGE="0" COMMENT="" />
    <EXPORT ORDINAL="181" NAME="?Set@Comment@Script@@YA_NPBUCommentInfo@12@@Z" PURGE="0" COMMENT="" />
    <EXPORT ORDINAL="182" NAME="?Set@Flag@Script@@YA_NW4FlagEnum@12@_N@Z" PURGE="0" COMMENT="" />
    <EXPORT ORDINAL="183" NAME="?Set@Label@Script@@YA_NKPBD_N1@Z" PURGE="0" COMMENT="" />
    <EXPORT ORDINAL="184" NAME="?Set@Label@Script@@YA_NKPBD_N@Z" PURGE="0" COMMENT="" />
    <EXPORT ORDINAL="185" NAME="?Set@Label@Script@@YA_NPBULabelInfo@12@@Z" PURGE="0" COMMENT="" />
    <EXPORT ORDINAL="186" NAME="?Set@Register@Script@@YA_NW4RegisterEnum@12@K@Z" PURGE="0" COMMENT="" />
    <EXPORT ORDINAL="187" NAME="?SetAF@Flag@Script@@YA_N_N@Z" PURGE="0" COMMENT="" />
    <EXPORT ORDINAL="188" NAME="?SetAH@Register@Script@@YA_NE@Z" PURGE="0" COMMENT="" />
    <EXPORT ORDINAL="189" NAME="?SetAL@Register@Script@@YA_NE@Z" PURGE="0" COMMENT="" />
    <EXPORT ORDINAL="190" NAME="?SetAX@Register@Script@@YA_NG@Z" PURGE="0" COMMENT="" />
    <EXPORT ORDINAL="191" NAME="?SetBH@Register@Script@@YA_NE@Z" PURGE="0" COMMENT="" />
    <EXPORT ORDINAL="192" NAME="?SetBL@Register@Script@@YA_NE@Z" PURGE="0" COMMENT="" />
    <EXPORT ORDINAL="193" NAME="?SetBP@Register@Script@@YA_NG@Z" PURGE="0" COMMENT="" />
    <EXPORT ORDINAL="194" NAME="?SetBX@Register@Script@@YA_NG@Z" PURGE="0" COMMENT="" />
    <EXPORT ORDINAL="195" NAME="?SetBreakpoint@Debug@Script@@YA_NK@Z" PURGE="0" COMMENT="" />
    <EXPORT ORDINAL="196" NAME="?SetCAX@Register@Script@@YA_NK@Z" PURGE="0" COMMENT="" />
    <EXPORT ORDINAL="197" NAME="?SetCBP@Register@Script@@YA_NK@Z" PURGE="0" COMMENT="" />
    <EXPORT ORDINAL="198" NAME="?SetCBX@Register@Script@@YA_NK@Z" PURGE="0" COMMENT="" />
    <EXPORT ORDINAL="199" NAME="?SetCCX@Register@Script@@YA_NK@Z" PURGE="0" COMMENT="" />
    <EXPORT ORDINAL="200" NAME="?SetCDI@Register@Script@@YA_NK@Z" PURGE="0" COMMENT="" />
    <EXPORT ORDINAL="201" NAME="?SetCDX@Register@Script@@YA_NK@Z" PURGE="0" COMMENT="" />
    <EXPORT ORDINAL="202" NAME="?SetCF@Flag@Script@@YA_N_N@Z" PURGE="0" COMMENT="" />
    <EXPORT ORDINAL="203" NAME="?SetCFLAGS@Register@Script@@YA_NK@Z" PURGE="0" COMMENT="" />
    <EXPORT ORDINAL="204" NAME="?SetCH@Register@Script@@YA_NE@Z" PURGE="0" COMMENT="" />
    <EXPORT ORDINAL="205" NAME="?SetCIP@Register@Script@@YA_NK@Z" PURGE="0" COMMENT="" />
    <EXPORT ORDINAL="206" NAME="?SetCL@Register@Script@@YA_NE@Z" PURGE="0" COMMENT="" />
    <EXPORT ORDINAL="207" NAME="?SetCSI@Register@Script@@YA_NK@Z" PURGE="0" COMMENT="" />
    <EXPORT ORDINAL="208" NAME="?SetCSP@Register@Script@@YA_NK@Z" PURGE="0" COMMENT="" />
    <EXPORT ORDINAL="209" NAME="?SetCX@Register@Script@@YA_NG@Z" PURGE="0" COMMENT="" />
    <EXPORT ORDINAL="210" NAME="?SetDF@Flag@Script@@YA_N_N@Z" PURGE="0" COMMENT="" />
    <EXPORT ORDINAL="211" NAME="?SetDH@Register@Script@@YA_NE@Z" PURGE="0" COMMENT="" />
    <EXPORT ORDINAL="212" NAME="?SetDI@Register@Script@@YA_NG@Z" PURGE="0" COMMENT="" />
    <EXPORT ORDINAL="213" NAME="?SetDL@Register@Script@@YA_NE@Z" PURGE="0" COMMENT="" />
    <EXPORT ORDINAL="214" NAME="?SetDR0@Register@Script@@YA_NK@Z" PURGE="0" COMMENT="" />
    <EXPORT ORDINAL="215" NAME="?SetDR1@Register@Script@@YA_NK@Z" PURGE="0" COMMENT="" />
    <EXPORT ORDINAL="216" NAME="?SetDR2@Register@Script@@YA_NK@Z" PURGE="0" COMMENT="" />
    <EXPORT ORDINAL="217" NAME="?SetDR3@Register@Script@@YA_NK@Z" PURGE="0" COMMENT="" />
    <EXPORT ORDINAL="218" NAME="?SetDR6@Register@Script@@YA_NK@Z" PURGE="0" COMMENT="" />
    <EXPORT ORDINAL="219" NAME="?SetDR7@Register@Script@@YA_NK@Z" PURGE="0" COMMENT="" />
    <EXPORT ORDINAL="220" NAME="?SetDX@Register@Script@@YA_NG@Z" PURGE="0" COMMENT="" />
    <EXPORT ORDINAL="221" NAME="?SetEAX@Register@Script@@YA_NI@Z" PURGE="0" COMMENT="" />
    <EXPORT ORDINAL="222" NAME="?SetEBP@Register@Script@@YA_NI@Z" PURGE="0" COMMENT="" />
    <EXPORT ORDINAL="223" NAME="?SetEBX@Register@Script@@YA_NI@Z" PURGE="0" COMMENT="" />
    <EXPORT ORDINAL="224" NAME="?SetECX@Register@Script@@YA_NI@Z" PURGE="0" COMMENT="" />
    <EXPORT ORDINAL="225" NAME="?SetEDI@Register@Script@@YA_NI@Z" PURGE="0" COMMENT="" />
    <EXPORT ORDINAL="226" NAME="?SetEDX@Register@Script@@YA_NI@Z" PURGE="0" COMMENT="" />
    <EXPORT ORDINAL="227" NAME="?SetEIP@Register@Script@@YA_NI@Z" PURGE="0" COMMENT="" />
    <EXPORT ORDINAL="228" NAME="?SetESI@Register@Script@@YA_NI@Z" PURGE="0" COMMENT="" />
    <EXPORT ORDINAL="229" NAME="?SetESP@Register@Script@@YA_NI@Z" PURGE="0" COMMENT="" />
    <EXPORT ORDINAL="230" NAME="?SetHardwareBreakpoint@Debug@Script@@YA_NKW4HardwareType@12@@Z" PURGE="0" COMMENT="" />
    <EXPORT ORDINAL="231" NAME="?SetIF@Flag@Script@@YA_N_N@Z" PURGE="0" COMMENT="" />
    <EXPORT ORDINAL="232" NAME="?SetOF@Flag@Script@@YA_N_N@Z" PURGE="0" COMMENT="" />
    <EXPORT ORDINAL="233" NAME="?SetPF@Flag@Script@@YA_N_N@Z" PURGE="0" COMMENT="" />
    <EXPORT ORDINAL="234" NAME="?SetProtect@Memory@Script@@YA_NKIK@Z" PURGE="0" COMMENT="" />
    <EXPORT ORDINAL="235" NAME="?SetSF@Flag@Script@@YA_N_N@Z" PURGE="0" COMMENT="" />
    <EXPORT ORDINAL="236" NAME="?SetSI@Register@Script@@YA_NG@Z" PURGE="0" COMMENT="" />
    <EXPORT ORDINAL="237" NAME="?SetSP@Register@Script@@YA_NG@Z" PURGE="0" COMMENT="" />
    <EXPORT ORDINAL="238" NAME="?SetTF@Flag@Script@@YA_N_N@Z" PURGE="0" COMMENT="" />
    <EXPORT ORDINAL="239" NAME="?SetZF@Flag@Script@@YA_N_N@Z" PURGE="0" COMMENT="" />
    <EXPORT ORDINAL="240" NAME="?ShowQWidgetTab@Gui@Script@@YAXPAX@Z" PURGE="-1" COMMENT="" />
    <EXPORT ORDINAL="241" NAME="?Size@Register@Script@@YAHXZ" PURGE="0" COMMENT="" />
    <EXPORT ORDINAL="242" NAME="?SizeFromAddr@Module@Script@@YAKK@Z" PURGE="0" COMMENT="" />
    <EXPORT ORDINAL="243" NAME="?SizeFromName@Module@Script@@YAKPBD@Z" PURGE="0" COMMENT="" />
    <EXPORT ORDINAL="244" NAME="?StepIn@Debug@Script@@YAXXZ" PURGE="0" COMMENT="" />
    <EXPORT ORDINAL="245" NAME="?StepOut@Debug@Script@@YAXXZ" PURGE="0" COMMENT="" />
    <EXPORT ORDINAL="246" NAME="?StepOver@Debug@Script@@YAXXZ" PURGE="0" COMMENT="" />
    <EXPORT ORDINAL="247" NAME="?Stop@Debug@Script@@YAXXZ" PURGE="0" COMMENT="" />
    <EXPORT ORDINAL="248" NAME="?Wait@Debug@Script@@YAXXZ" PURGE="0" COMMENT="" />
    <EXPORT ORDINAL="249" NAME="?Write@Memory@Script@@YA_NKPBXKPAK@Z" PURGE="0" COMMENT="" />
    <EXPORT ORDINAL="250" NAME="?Write@Pattern@Script@@YAXPAEKPBD@Z" PURGE="0" COMMENT="" />
    <EXPORT ORDINAL="251" NAME="?WriteByte@Memory@Script@@YA_NKE@Z" PURGE="0" COMMENT="" />
    <EXPORT ORDINAL="252" NAME="?WriteDword@Memory@Script@@YA_NKI@Z" PURGE="0" COMMENT="" />
    <EXPORT ORDINAL="253" NAME="?WriteMem@Pattern@Script@@YAXKKPBD@Z" PURGE="0" COMMENT="" />
    <EXPORT ORDINAL="254" NAME="?WritePtr@Memory@Script@@YA_NKK@Z" PURGE="0" COMMENT="" />
    <EXPORT ORDINAL="255" NAME="?WriteQword@Memory@Script@@YA_NK_K@Z" PURGE="0" COMMENT="" />
    <EXPORT ORDINAL="256" NAME="?WriteWord@Memory@Script@@YA_NKG@Z" PURGE="0" COMMENT="" />
    <EXPORT ORDINAL="257" NAME="_DllMain@12" PURGE="12" COMMENT="" />
    <EXPORT ORDINAL="258" NAME="_dbg_addrinfoget" PURGE="0" COMMENT="" />
    <EXPORT ORDINAL="259" NAME="_dbg_addrinfoset" PURGE="0" COMMENT="" />
    <EXPORT ORDINAL="260" NAME="_dbg_bpgettypeat" PURGE="0" COMMENT="" />
    <EXPORT ORDINAL="261" NAME="_dbg_dbgcmddirectexec" PURGE="0" COMMENT="" />
    <EXPORT ORDINAL="262" NAME="_dbg_dbgcmdexec" PURGE="0" COMMENT="" />
    <EXPORT ORDINAL="263" NAME="_dbg_dbgexitsignal" PURGE="0" COMMENT="" />
    <EXPORT ORDINAL="264" NAME="_dbg_dbginit" PURGE="0" COMMENT="" />
    <EXPORT ORDINAL="265" NAME="_dbg_encodetypeset" PURGE="0" COMMENT="" />
    <EXPORT ORDINAL="266" NAME="_dbg_functionoverlaps" PURGE="0" COMMENT="" />
    <EXPORT ORDINAL="267" NAME="_dbg_getProcessInformation" PURGE="0" COMMENT="" />
    <EXPORT ORDINAL="268" NAME="_dbg_getbplist" PURGE="0" COMMENT="" />
    <EXPORT ORDINAL="269" NAME="_dbg_getbranchdestination" PURGE="0" COMMENT="" />
    <EXPORT ORDINAL="270" NAME="_dbg_getregdump" PURGE="0" COMMENT="" />
    <EXPORT ORDINAL="271" NAME="_dbg_isdebugging" PURGE="0" COMMENT="" />
    <EXPORT ORDINAL="272" NAME="_dbg_isjumpgoingtoexecute" PURGE="0" COMMENT="" />
    <EXPORT ORDINAL="273" NAME="_dbg_memfindbaseaddr" PURGE="0" COMMENT="" />
    <EXPORT ORDINAL="274" NAME="_dbg_memisvalidreadptr" PURGE="0" COMMENT="" />
    <EXPORT ORDINAL="275" NAME="_dbg_memmap" PURGE="0" COMMENT="" />
    <EXPORT ORDINAL="276" NAME="_dbg_memread" PURGE="0" COMMENT="" />
    <EXPORT ORDINAL="277" NAME="_dbg_memwrite" PURGE="0" COMMENT="" />
    <EXPORT ORDINAL="278" NAME="_dbg_sendmessage" PURGE="0" COMMENT="" />
    <EXPORT ORDINAL="279" NAME="_dbg_valfromstring" PURGE="0" COMMENT="" />
    <EXPORT ORDINAL="280" NAME="_dbg_valtostring" PURGE="0" COMMENT="" />
    <EXPORT ORDINAL="281" NAME="_plugin_debugpause" PURGE="0" COMMENT="" />
    <EXPORT ORDINAL="282" NAME="_plugin_debugskipexceptions" PURGE="0" COMMENT="" />
    <EXPORT ORDINAL="283" NAME="_plugin_hash" PURGE="0" COMMENT="" />
    <EXPORT ORDINAL="284" NAME="_plugin_load" PURGE="0" COMMENT="" />
    <EXPORT ORDINAL="285" NAME="_plugin_logprint" PURGE="0" COMMENT="" />
    <EXPORT ORDINAL="286" NAME="_plugin_logprintf" PURGE="0" COMMENT="" />
    <EXPORT ORDINAL="287" NAME="_plugin_logputs" PURGE="0" COMMENT="" />
    <EXPORT ORDINAL="288" NAME="_plugin_lograw_html" PURGE="0" COMMENT="" />
    <EXPORT ORDINAL="289" NAME="_plugin_menuadd" PURGE="0" COMMENT="" />
    <EXPORT ORDINAL="290" NAME="_plugin_menuaddentry" PURGE="0" COMMENT="" />
    <EXPORT ORDINAL="291" NAME="_plugin_menuaddseparator" PURGE="0" COMMENT="" />
    <EXPORT ORDINAL="292" NAME="_plugin_menuclear" PURGE="0" COMMENT="" />
    <EXPORT ORDINAL="293" NAME="_plugin_menuentryremove" PURGE="0" COMMENT="" />
    <EXPORT ORDINAL="294" NAME="_plugin_menuentrysetchecked" PURGE="0" COMMENT="" />
    <EXPORT ORDINAL="295" NAME="_plugin_menuentrysethotkey" PURGE="0" COMMENT="" />
    <EXPORT ORDINAL="296" NAME="_plugin_menuentryseticon" PURGE="0" COMMENT="" />
    <EXPORT ORDINAL="297" NAME="_plugin_menuentrysetname" PURGE="0" COMMENT="" />
    <EXPORT ORDINAL="298" NAME="_plugin_menuentrysetvisible" PURGE="0" COMMENT="" />
    <EXPORT ORDINAL="299" NAME="_plugin_menuremove" PURGE="0" COMMENT="" />
    <EXPORT ORDINAL="300" NAME="_plugin_menuseticon" PURGE="0" COMMENT="" />
    <EXPORT ORDINAL="301" NAME="_plugin_menusetname" PURGE="0" COMMENT="" />
    <EXPORT ORDINAL="302" NAME="_plugin_menusetvisible" PURGE="0" COMMENT="" />
    <EXPORT ORDINAL="303" NAME="_plugin_registercallback" PURGE="0" COMMENT="" />
    <EXPORT ORDINAL="304" NAME="_plugin_registercommand" PURGE="0" COMMENT="" />
    <EXPORT ORDINAL="305" NAME="_plugin_registerexprfunction" PURGE="0" COMMENT="" />
    <EXPORT ORDINAL="306" NAME="_plugin_registerexprfunctionex" PURGE="0" COMMENT="" />
    <EXPORT ORDINAL="307" NAME="_plugin_registerformatfunction" PURGE="0" COMMENT="" />
    <EXPORT ORDINAL="308" NAME="_plugin_startscript" PURGE="0" COMMENT="" />
    <EXPORT ORDINAL="309" NAME="_plugin_unload" PURGE="0" COMMENT="" />
    <EXPORT ORDINAL="310" NAME="_plugin_unregistercallback" PURGE="0" COMMENT="" />
    <EXPORT ORDINAL="311" NAME="_plugin_unregistercommand" PURGE="0" COMMENT="" />
    <EXPORT ORDINAL="312" NAME="_plugin_unregisterexprfunction" PURGE="0" COMMENT="" />
    <EXPORT ORDINAL="313" NAME="_plugin_unregisterformatfunction" PURGE="0" COMMENT="" />
    <EXPORT ORDINAL="314" NAME="_plugin_waituntilpaused" PURGE="0" COMMENT="" />
    <EXPORT ORDINAL="315" NAME="isasciistring" PURGE="0" COMMENT="" />
    <EXPORT ORDINAL="316" NAME="isunicodestring" PURGE="0" COMMENT="" />
</LIBRARY>

