<?xml version="1.0" encoding="UTF-8"?>
<LIBRARY NAME="x_levelmfc.dll" PATH="/DLLArchive/etc/x_levelmfc.dll" DATE="Fri Jul 03 13:42:43 PDT 2020" VERSION="">
    <EXPORT ORDINAL="1" NAME="??0X_Level@@QAE@AAVR_MemoryFile@@PBVX_SharedDB@@@Z" PURGE="8" COMMENT="" />
    <EXPORT ORDINAL="2" NAME="??0X_Level@@QAE@XZ" PURGE="0" COMMENT="" />
    <EXPORT ORDINAL="3" NAME="??0X_LevelDynamicMesh@@QAE@AAVR_MemoryFile@@PBVX_LevelFSM@@PAVX_LevelMaterials@@@Z" PURGE="12" COMMENT="" />
    <EXPORT ORDINAL="4" NAME="??0X_LevelDynamicMesh@@QAE@XZ" PURGE="0" COMMENT="" />
    <EXPORT ORDINAL="5" NAME="??0X_LevelDynamicMeshAnimation@@QAE@AAVR_MemoryFile@@@Z" PURGE="4" COMMENT="" />
    <EXPORT ORDINAL="6" NAME="??0X_LevelDynamicMeshAnimation@@QAE@XZ" PURGE="0" COMMENT="" />
    <EXPORT ORDINAL="7" NAME="??0X_LevelEnemy@@QAE@AAVR_MemoryFile@@@Z" PURGE="4" COMMENT="" />
    <EXPORT ORDINAL="8" NAME="??0X_LevelEnemy@@QAE@XZ" PURGE="0" COMMENT="" />
    <EXPORT ORDINAL="9" NAME="??0X_LevelExit@@QAE@AAVR_MemoryFile@@@Z" PURGE="4" COMMENT="" />
    <EXPORT ORDINAL="10" NAME="??0X_LevelExit@@QAE@XZ" PURGE="0" COMMENT="" />
    <EXPORT ORDINAL="11" NAME="??0X_LevelFSM@@QAE@AAVR_MemoryFile@@PBV0@@Z" PURGE="8" COMMENT="" />
    <EXPORT ORDINAL="12" NAME="??0X_LevelFSM@@QAE@XZ" PURGE="0" COMMENT="" />
    <EXPORT ORDINAL="13" NAME="??0X_LevelFlare@@QAE@AAVR_MemoryFile@@@Z" PURGE="4" COMMENT="" />
    <EXPORT ORDINAL="14" NAME="??0X_LevelFlare@@QAE@XZ" PURGE="0" COMMENT="" />
    <EXPORT ORDINAL="15" NAME="??0X_LevelJumppoint@@QAE@AAVR_MemoryFile@@@Z" PURGE="4" COMMENT="" />
    <EXPORT ORDINAL="16" NAME="??0X_LevelJumppoint@@QAE@XZ" PURGE="0" COMMENT="" />
    <EXPORT ORDINAL="17" NAME="??0X_LevelLevelItem@@QAE@AAVR_MemoryFile@@@Z" PURGE="4" COMMENT="" />
    <EXPORT ORDINAL="18" NAME="??0X_LevelLevelItem@@QAE@XZ" PURGE="0" COMMENT="" />
    <EXPORT ORDINAL="19" NAME="??0X_LevelMaterialInfo@@QAE@XZ" PURGE="0" COMMENT="" />
    <EXPORT ORDINAL="20" NAME="??0X_LevelMaterials@@QAE@AAVR_MemoryFile@@@Z" PURGE="4" COMMENT="" />
    <EXPORT ORDINAL="21" NAME="??0X_LevelMaterials@@QAE@XZ" PURGE="0" COMMENT="" />
    <EXPORT ORDINAL="22" NAME="??0X_LevelMesh@@QAE@AAVR_MemoryFile@@PAVX_LevelMaterials@@_NABV?$M_Matrix4x3Template@M@@PBVX_SharedDBPhysicalMaterial@@2PAVP_VirtualObject@@PAVX_RigidBodyDynamicObject@@PBD@Z" PURGE="36" COMMENT="" />
    <EXPORT ORDINAL="23" NAME="??0X_LevelMesh@@QAE@XZ" PURGE="0" COMMENT="" />
    <EXPORT ORDINAL="24" NAME="??0X_LevelMirror@@QAE@AAVR_MemoryFile@@PAVX_LevelMaterials@@@Z" PURGE="8" COMMENT="" />
    <EXPORT ORDINAL="25" NAME="??0X_LevelMirror@@QAE@XZ" PURGE="0" COMMENT="" />
    <EXPORT ORDINAL="26" NAME="??0X_LevelPointLight@@QAE@AAVR_MemoryFile@@@Z" PURGE="4" COMMENT="" />
    <EXPORT ORDINAL="27" NAME="??0X_LevelPointLight@@QAE@XZ" PURGE="0" COMMENT="" />
    <EXPORT ORDINAL="28" NAME="??0X_LevelRoom@@QAE@AAVR_MemoryFile@@PAVX_LevelMaterials@@@Z" PURGE="8" COMMENT="" />
    <EXPORT ORDINAL="29" NAME="??0X_LevelRoom@@QAE@XZ" PURGE="0" COMMENT="" />
    <EXPORT ORDINAL="30" NAME="??0X_LevelTrigger@@QAE@AAVR_MemoryFile@@PBVX_LevelFSM@@@Z" PURGE="8" COMMENT="" />
    <EXPORT ORDINAL="31" NAME="??0X_LevelTrigger@@QAE@XZ" PURGE="0" COMMENT="" />
    <EXPORT ORDINAL="32" NAME="??0X_LevelVolumeLighting@@QAE@AAVR_MemoryFile@@@Z" PURGE="4" COMMENT="" />
    <EXPORT ORDINAL="33" NAME="??0X_LevelVolumeLighting@@QAE@XZ" PURGE="0" COMMENT="" />
    <EXPORT ORDINAL="34" NAME="??0X_LevelWaypoint@@QAE@AAVR_MemoryFile@@@Z" PURGE="4" COMMENT="" />
    <EXPORT ORDINAL="35" NAME="??0X_LevelWaypoint@@QAE@XZ" PURGE="0" COMMENT="" />
    <EXPORT ORDINAL="36" NAME="??1X_Level@@UAE@XZ" PURGE="0" COMMENT="" />
    <EXPORT ORDINAL="37" NAME="??1X_LevelDynamicMesh@@UAE@XZ" PURGE="0" COMMENT="" />
    <EXPORT ORDINAL="38" NAME="??1X_LevelDynamicMeshAnimation@@UAE@XZ" PURGE="0" COMMENT="" />
    <EXPORT ORDINAL="39" NAME="??1X_LevelEnemy@@UAE@XZ" PURGE="0" COMMENT="" />
    <EXPORT ORDINAL="40" NAME="??1X_LevelExit@@UAE@XZ" PURGE="0" COMMENT="" />
    <EXPORT ORDINAL="41" NAME="??1X_LevelFSM@@UAE@XZ" PURGE="0" COMMENT="" />
    <EXPORT ORDINAL="42" NAME="??1X_LevelFlare@@UAE@XZ" PURGE="0" COMMENT="" />
    <EXPORT ORDINAL="43" NAME="??1X_LevelJumppoint@@UAE@XZ" PURGE="0" COMMENT="" />
    <EXPORT ORDINAL="44" NAME="??1X_LevelLevelItem@@UAE@XZ" PURGE="0" COMMENT="" />
    <EXPORT ORDINAL="45" NAME="??1X_LevelMaterials@@UAE@XZ" PURGE="0" COMMENT="" />
    <EXPORT ORDINAL="46" NAME="??1X_LevelMesh@@UAE@XZ" PURGE="0" COMMENT="" />
    <EXPORT ORDINAL="47" NAME="??1X_LevelMirror@@UAE@XZ" PURGE="0" COMMENT="" />
    <EXPORT ORDINAL="48" NAME="??1X_LevelPointLight@@UAE@XZ" PURGE="0" COMMENT="" />
    <EXPORT ORDINAL="49" NAME="??1X_LevelRoom@@UAE@XZ" PURGE="0" COMMENT="" />
    <EXPORT ORDINAL="50" NAME="??1X_LevelTrigger@@UAE@XZ" PURGE="0" COMMENT="" />
    <EXPORT ORDINAL="51" NAME="??1X_LevelVolumeLighting@@UAE@XZ" PURGE="0" COMMENT="" />
    <EXPORT ORDINAL="52" NAME="??1X_LevelWaypoint@@UAE@XZ" PURGE="0" COMMENT="" />
    <EXPORT ORDINAL="53" NAME="??4X_LevelMaterialInfo@@QAEAAV0@ABV0@@Z" PURGE="4" COMMENT="" />
    <EXPORT ORDINAL="54" NAME="??_7X_Level@@6B@" PURGE="-1" COMMENT="" />
    <EXPORT ORDINAL="55" NAME="??_7X_LevelDynamicMesh@@6B@" PURGE="-1" COMMENT="" />
    <EXPORT ORDINAL="56" NAME="??_7X_LevelDynamicMeshAnimation@@6B@" PURGE="-1" COMMENT="" />
    <EXPORT ORDINAL="57" NAME="??_7X_LevelEnemy@@6B@" PURGE="-1" COMMENT="" />
    <EXPORT ORDINAL="58" NAME="??_7X_LevelExit@@6B@" PURGE="-1" COMMENT="" />
    <EXPORT ORDINAL="59" NAME="??_7X_LevelFSM@@6B@" PURGE="-1" COMMENT="" />
    <EXPORT ORDINAL="60" NAME="??_7X_LevelFlare@@6B@" PURGE="-1" COMMENT="" />
    <EXPORT ORDINAL="61" NAME="??_7X_LevelJumppoint@@6B@" PURGE="-1" COMMENT="" />
    <EXPORT ORDINAL="62" NAME="??_7X_LevelLevelItem@@6B@" PURGE="-1" COMMENT="" />
    <EXPORT ORDINAL="63" NAME="??_7X_LevelMaterials@@6B@" PURGE="-1" COMMENT="" />
    <EXPORT ORDINAL="64" NAME="??_7X_LevelMesh@@6B@" PURGE="-1" COMMENT="" />
    <EXPORT ORDINAL="65" NAME="??_7X_LevelMirror@@6B@" PURGE="-1" COMMENT="" />
    <EXPORT ORDINAL="66" NAME="??_7X_LevelPointLight@@6B@" PURGE="-1" COMMENT="" />
    <EXPORT ORDINAL="67" NAME="??_7X_LevelRoom@@6B@" PURGE="-1" COMMENT="" />
    <EXPORT ORDINAL="68" NAME="??_7X_LevelTrigger@@6B@" PURGE="-1" COMMENT="" />
    <EXPORT ORDINAL="69" NAME="??_7X_LevelVolumeLighting@@6B@" PURGE="-1" COMMENT="" />
    <EXPORT ORDINAL="70" NAME="??_7X_LevelWaypoint@@6B@" PURGE="-1" COMMENT="" />
    <EXPORT ORDINAL="71" NAME="?blockExplosions@X_LevelDynamicMesh@@QBE_NXZ" PURGE="0" COMMENT="" />
    <EXPORT ORDINAL="72" NAME="?buildMaterialTemplates@X_LevelMaterials@@AAEXXZ" PURGE="0" COMMENT="" />
    <EXPORT ORDINAL="73" NAME="?bulletCollisions@X_LevelDynamicMesh@@QBE_NXZ" PURGE="0" COMMENT="" />
    <EXPORT ORDINAL="74" NAME="?characterCollisions@X_LevelDynamicMesh@@QBE_NXZ" PURGE="0" COMMENT="" />
    <EXPORT ORDINAL="75" NAME="?construct@X_Level@@QAEXAAVR_MemoryFile@@PBVX_SharedDB@@@Z" PURGE="8" COMMENT="" />
    <EXPORT ORDINAL="76" NAME="?construct@X_LevelDynamicMesh@@QAEXAAVR_MemoryFile@@PBVX_LevelFSM@@PAVX_LevelMaterials@@@Z" PURGE="12" COMMENT="" />
    <EXPORT ORDINAL="77" NAME="?construct@X_LevelDynamicMeshAnimation@@QAEXAAVR_MemoryFile@@@Z" PURGE="4" COMMENT="" />
    <EXPORT ORDINAL="78" NAME="?construct@X_LevelEnemy@@QAEXAAVR_MemoryFile@@@Z" PURGE="4" COMMENT="" />
    <EXPORT ORDINAL="79" NAME="?construct@X_LevelExit@@QAEXAAVR_MemoryFile@@@Z" PURGE="4" COMMENT="" />
    <EXPORT ORDINAL="80" NAME="?construct@X_LevelFSM@@QAEXAAVR_MemoryFile@@PBV1@@Z" PURGE="8" COMMENT="" />
    <EXPORT ORDINAL="81" NAME="?construct@X_LevelFlare@@QAEXAAVR_MemoryFile@@@Z" PURGE="4" COMMENT="" />
    <EXPORT ORDINAL="82" NAME="?construct@X_LevelJumppoint@@QAEXAAVR_MemoryFile@@@Z" PURGE="4" COMMENT="" />
    <EXPORT ORDINAL="83" NAME="?construct@X_LevelLevelItem@@QAEXAAVR_MemoryFile@@@Z" PURGE="4" COMMENT="" />
    <EXPORT ORDINAL="84" NAME="?construct@X_LevelMaterials@@QAEXAAVR_MemoryFile@@@Z" PURGE="4" COMMENT="" />
    <EXPORT ORDINAL="85" NAME="?construct@X_LevelMesh@@QAEXAAVR_MemoryFile@@PAVX_LevelMaterials@@_NABV?$M_Matrix4x3Template@M@@PBVX_SharedDBPhysicalMaterial@@2PAVP_VirtualObject@@PAVX_RigidBodyDynamicObject@@PBD@Z" PURGE="36" COMMENT="" />
    <EXPORT ORDINAL="86" NAME="?construct@X_LevelMirror@@QAEXAAVR_MemoryFile@@PAVX_LevelMaterials@@@Z" PURGE="8" COMMENT="" />
    <EXPORT ORDINAL="87" NAME="?construct@X_LevelPointLight@@QAEXAAVR_MemoryFile@@@Z" PURGE="4" COMMENT="" />
    <EXPORT ORDINAL="88" NAME="?construct@X_LevelRoom@@QAEXAAVR_MemoryFile@@PAVX_LevelMaterials@@@Z" PURGE="8" COMMENT="" />
    <EXPORT ORDINAL="89" NAME="?construct@X_LevelStringPool@@YIXAAVR_MemoryFile@@@Z" PURGE="0" COMMENT="" />
    <EXPORT ORDINAL="90" NAME="?construct@X_LevelTrigger@@QAEXAAVR_MemoryFile@@PBVX_LevelFSM@@@Z" PURGE="8" COMMENT="" />
    <EXPORT ORDINAL="91" NAME="?construct@X_LevelVolumeLighting@@QAEXAAVR_MemoryFile@@@Z" PURGE="4" COMMENT="" />
    <EXPORT ORDINAL="92" NAME="?construct@X_LevelWaypoint@@QAEXAAVR_MemoryFile@@@Z" PURGE="4" COMMENT="" />
    <EXPORT ORDINAL="93" NAME="?continuousUpdate@X_LevelDynamicMesh@@QBE_NXZ" PURGE="0" COMMENT="" />
    <EXPORT ORDINAL="94" NAME="?createShallowCopyOfRigidBody@X_LevelMesh@@AAEXPAVX_RigidBodyDynamicObject@@@Z" PURGE="4" COMMENT="" />
    <EXPORT ORDINAL="95" NAME="?destruct@X_Level@@QAEXXZ" PURGE="0" COMMENT="" />
    <EXPORT ORDINAL="96" NAME="?destruct@X_LevelDynamicMesh@@QAEXXZ" PURGE="0" COMMENT="" />
    <EXPORT ORDINAL="97" NAME="?destruct@X_LevelDynamicMeshAnimation@@QAEXXZ" PURGE="0" COMMENT="" />
    <EXPORT ORDINAL="98" NAME="?destruct@X_LevelEnemy@@QAEXXZ" PURGE="0" COMMENT="" />
    <EXPORT ORDINAL="99" NAME="?destruct@X_LevelExit@@QAEXXZ" PURGE="0" COMMENT="" />
    <EXPORT ORDINAL="100" NAME="?destruct@X_LevelFSM@@QAEXXZ" PURGE="0" COMMENT="" />
    <EXPORT ORDINAL="101" NAME="?destruct@X_LevelFlare@@QAEXXZ" PURGE="0" COMMENT="" />
    <EXPORT ORDINAL="102" NAME="?destruct@X_LevelJumppoint@@QAEXXZ" PURGE="0" COMMENT="" />
    <EXPORT ORDINAL="103" NAME="?destruct@X_LevelLevelItem@@QAEXXZ" PURGE="0" COMMENT="" />
    <EXPORT ORDINAL="104" NAME="?destruct@X_LevelMaterials@@QAEXXZ" PURGE="0" COMMENT="" />
    <EXPORT ORDINAL="105" NAME="?destruct@X_LevelMesh@@QAEXXZ" PURGE="0" COMMENT="" />
    <EXPORT ORDINAL="106" NAME="?destruct@X_LevelMirror@@QAEXXZ" PURGE="0" COMMENT="" />
    <EXPORT ORDINAL="107" NAME="?destruct@X_LevelPointLight@@QAEXXZ" PURGE="0" COMMENT="" />
    <EXPORT ORDINAL="108" NAME="?destruct@X_LevelRoom@@QAEXXZ" PURGE="0" COMMENT="" />
    <EXPORT ORDINAL="109" NAME="?destruct@X_LevelStringPool@@YIXXZ" PURGE="0" COMMENT="" />
    <EXPORT ORDINAL="110" NAME="?destruct@X_LevelTrigger@@QAEXXZ" PURGE="0" COMMENT="" />
    <EXPORT ORDINAL="111" NAME="?destruct@X_LevelVolumeLighting@@QAEXXZ" PURGE="0" COMMENT="" />
    <EXPORT ORDINAL="112" NAME="?destruct@X_LevelWaypoint@@QAEXXZ" PURGE="0" COMMENT="" />
    <EXPORT ORDINAL="113" NAME="?dynamicLightmapped@X_LevelDynamicMesh@@QBE_NXZ" PURGE="0" COMMENT="" />
    <EXPORT ORDINAL="114" NAME="?freeRigidBody@X_LevelMesh@@SIXPAVX_RigidBody@@@Z" PURGE="-1" COMMENT="" />
    <EXPORT ORDINAL="115" NAME="?getAILinkID@X_LevelWaypoint@@QBEHXZ" PURGE="0" COMMENT="" />
    <EXPORT ORDINAL="116" NAME="?getAnimation@X_LevelDynamicMesh@@QBEPBVX_LevelDynamicMeshAnimation@@H@Z" PURGE="4" COMMENT="" />
    <EXPORT ORDINAL="117" NAME="?getAnimationCount@X_LevelDynamicMesh@@QBEHXZ" PURGE="0" COMMENT="" />
    <EXPORT ORDINAL="118" NAME="?getBoundBoxMax@X_LevelMirror@@QBEABV?$M_Vector3Template@M@@XZ" PURGE="0" COMMENT="" />
    <EXPORT ORDINAL="119" NAME="?getBoundBoxMin@X_LevelMirror@@QBEABV?$M_Vector3Template@M@@XZ" PURGE="0" COMMENT="" />
    <EXPORT ORDINAL="120" NAME="?getBoundSphereRadius@X_LevelMirror@@QBEMXZ" PURGE="0" COMMENT="" />
    <EXPORT ORDINAL="121" NAME="?getBoundingBoxMax@X_LevelRoom@@QBEABV?$M_Vector3Template@M@@XZ" PURGE="0" COMMENT="" />
    <EXPORT ORDINAL="122" NAME="?getBoundingBoxMin@X_LevelRoom@@QBEABV?$M_Vector3Template@M@@XZ" PURGE="0" COMMENT="" />
    <EXPORT ORDINAL="123" NAME="?getCharacterGroupIndex@X_LevelEnemy@@QBEHXZ" PURGE="0" COMMENT="" />
    <EXPORT ORDINAL="124" NAME="?getCharacterGroupToIndexMap@X_Level@@QBEABV?$map@V?$basic_string@DUR_CTrI@std@@V?$R_Allocator@D@@@std@@HU?$less@V?$basic_string@DUR_CTrI@std@@V?$R_Allocator@D@@@std@@@2@V?$R_Allocator@H@@@std@@XZ" PURGE="0" COMMENT="" />
    <EXPORT ORDINAL="125" NAME="?getConvexHullVertex@X_LevelExit@@QBEABV?$M_Vector3Template@M@@H@Z" PURGE="4" COMMENT="" />
    <EXPORT ORDINAL="126" NAME="?getConvexHullVertexArray@X_LevelExit@@QBEPBV?$M_Vector3Template@M@@XZ" PURGE="0" COMMENT="" />
    <EXPORT ORDINAL="127" NAME="?getConvexHullVertices@X_LevelExit@@QBEHXZ" PURGE="0" COMMENT="" />
    <EXPORT ORDINAL="128" NAME="?getDefaultState@X_LevelFSM@@QBEPBDXZ" PURGE="0" COMMENT="" />
    <EXPORT ORDINAL="129" NAME="?getDestinationExitIndex@X_LevelExit@@QBEHXZ" PURGE="0" COMMENT="" />
    <EXPORT ORDINAL="130" NAME="?getDestinationRoomIndex@X_LevelExit@@QBEHXZ" PURGE="0" COMMENT="" />
    <EXPORT ORDINAL="131" NAME="?getDynamicMesh@X_Level@@QBEPBVX_LevelDynamicMesh@@H@Z" PURGE="4" COMMENT="" />
    <EXPORT ORDINAL="132" NAME="?getDynamicMeshCount@X_Level@@QBEHXZ" PURGE="0" COMMENT="" />
    <EXPORT ORDINAL="133" NAME="?getEnemy@X_Level@@QBEPBVX_LevelEnemy@@H@Z" PURGE="4" COMMENT="" />
    <EXPORT ORDINAL="134" NAME="?getEnemyCount@X_Level@@QBEHXZ" PURGE="0" COMMENT="" />
    <EXPORT ORDINAL="135" NAME="?getExit@X_Level@@QBEPBVX_LevelExit@@H@Z" PURGE="4" COMMENT="" />
    <EXPORT ORDINAL="136" NAME="?getExitCount@X_Level@@QBEHXZ" PURGE="0" COMMENT="" />
    <EXPORT ORDINAL="137" NAME="?getFSM@X_Level@@QBEPBVX_LevelFSM@@H@Z" PURGE="4" COMMENT="" />
    <EXPORT ORDINAL="138" NAME="?getFSM@X_LevelDynamicMesh@@QBEPBVX_LevelFSM@@XZ" PURGE="0" COMMENT="" />
    <EXPORT ORDINAL="139" NAME="?getFSM@X_LevelTrigger@@QBEPBVX_LevelFSM@@XZ" PURGE="0" COMMENT="" />
    <EXPORT ORDINAL="140" NAME="?getFSMCount@X_Level@@QBEHXZ" PURGE="0" COMMENT="" />
    <EXPORT ORDINAL="141" NAME="?getFlare@X_Level@@QBEPBVX_LevelFlare@@H@Z" PURGE="4" COMMENT="" />
    <EXPORT ORDINAL="142" NAME="?getFlareCount@X_Level@@QBEHXZ" PURGE="0" COMMENT="" />
    <EXPORT ORDINAL="143" NAME="?getFresnel@X_LevelMirror@@QBE_NXZ" PURGE="0" COMMENT="" />
    <EXPORT ORDINAL="144" NAME="?getGeometry@X_LevelMirror@@QBEABV?$vector@UTriangle@X_LevelMirror@@V?$R_Allocator@UTriangle@X_LevelMirror@@@@@std@@XZ" PURGE="0" COMMENT="" />
    <EXPORT ORDINAL="145" NAME="?getJumppoint@X_Level@@QBEPBVX_LevelJumppoint@@H@Z" PURGE="4" COMMENT="" />
    <EXPORT ORDINAL="146" NAME="?getJumppointCount@X_Level@@QBEHXZ" PURGE="0" COMMENT="" />
    <EXPORT ORDINAL="147" NAME="?getLength@X_LevelDynamicMeshAnimation@@QBEMXZ" PURGE="0" COMMENT="" />
    <EXPORT ORDINAL="148" NAME="?getLevelItem@X_Level@@QBEPBVX_LevelLevelItem@@H@Z" PURGE="4" COMMENT="" />
    <EXPORT ORDINAL="149" NAME="?getLevelItemCount@X_Level@@QBEHXZ" PURGE="0" COMMENT="" />
    <EXPORT ORDINAL="150" NAME="?getLevelMesh@X_LevelDynamicMesh@@QBEPAVX_LevelMesh@@XZ" PURGE="0" COMMENT="" />
    <EXPORT ORDINAL="151" NAME="?getLight@X_LevelPointLight@@QBEPAVP_PointLight@@XZ" PURGE="0" COMMENT="" />
    <EXPORT ORDINAL="152" NAME="?getMap@X_LevelMirror@@QBEPAVP_Map@@H@Z" PURGE="4" COMMENT="" />
    <EXPORT ORDINAL="153" NAME="?getMaterial@X_LevelMaterials@@QBEPAVP_Material@@H@Z" PURGE="4" COMMENT="" />
    <EXPORT ORDINAL="154" NAME="?getMatrix@X_LevelEnemy@@QBEABV?$M_Matrix4x3Template@M@@XZ" PURGE="0" COMMENT="" />
    <EXPORT ORDINAL="155" NAME="?getMatrix@X_LevelFSM@@QBEABV?$M_Matrix4x3Template@M@@XZ" PURGE="0" COMMENT="" />
    <EXPORT ORDINAL="156" NAME="?getMatrix@X_LevelFlare@@QBEABV?$M_Matrix4x3Template@M@@XZ" PURGE="0" COMMENT="" />
    <EXPORT ORDINAL="157" NAME="?getMatrix@X_LevelJumppoint@@QBEABV?$M_Matrix4x3Template@M@@XZ" PURGE="0" COMMENT="" />
    <EXPORT ORDINAL="158" NAME="?getMatrix@X_LevelLevelItem@@QBEABV?$M_Matrix4x3Template@M@@XZ" PURGE="0" COMMENT="" />
    <EXPORT ORDINAL="159" NAME="?getMatrix@X_LevelRoom@@QBEABV?$M_Matrix4x3Template@M@@XZ" PURGE="0" COMMENT="" />
    <EXPORT ORDINAL="160" NAME="?getMatrix@X_LevelWaypoint@@QBEABV?$M_Matrix4x3Template@M@@XZ" PURGE="0" COMMENT="" />
    <EXPORT ORDINAL="161" NAME="?getMatrixAt@X_LevelDynamicMeshAnimation@@QBEABV?$M_Matrix4x3Template@M@@M@Z" PURGE="4" COMMENT="" />
    <EXPORT ORDINAL="162" NAME="?getMesh@X_LevelDynamicMesh@@QBEPAVP_VirtualObject@@XZ" PURGE="0" COMMENT="" />
    <EXPORT ORDINAL="163" NAME="?getMesh@X_LevelRoom@@QBEPAVP_VirtualObject@@XZ" PURGE="0" COMMENT="" />
    <EXPORT ORDINAL="164" NAME="?getMeshMidpoint@X_LevelDynamicMesh@@QBEABV?$M_Vector3Template@M@@XZ" PURGE="0" COMMENT="" />
    <EXPORT ORDINAL="165" NAME="?getMessagesToBeSentWhenEnteringFirstFrameID@X_LevelDynamicMeshAnimation@@QBEHXZ" PURGE="0" COMMENT="" />
    <EXPORT ORDINAL="166" NAME="?getMessagesToBeSentWhenEnteringLastFrameID@X_LevelDynamicMeshAnimation@@QBEHXZ" PURGE="0" COMMENT="" />
    <EXPORT ORDINAL="167" NAME="?getMessagesToBeSentWhenLeavingFirstFrameID@X_LevelDynamicMeshAnimation@@QBEHXZ" PURGE="0" COMMENT="" />
    <EXPORT ORDINAL="168" NAME="?getMidpoint@X_LevelMesh@@QBEABV?$M_Vector3Template@M@@XZ" PURGE="0" COMMENT="" />
    <EXPORT ORDINAL="169" NAME="?getMirror@X_Level@@QBEPBVX_LevelMirror@@H@Z" PURGE="4" COMMENT="" />
    <EXPORT ORDINAL="170" NAME="?getMirrorCount@X_Level@@QBEHXZ" PURGE="0" COMMENT="" />
    <EXPORT ORDINAL="171" NAME="?getName@X_LevelDynamicMeshAnimation@@QBEPBDXZ" PURGE="0" COMMENT="" />
    <EXPORT ORDINAL="172" NAME="?getName@X_LevelEnemy@@QBEPBDXZ" PURGE="0" COMMENT="" />
    <EXPORT ORDINAL="173" NAME="?getName@X_LevelExit@@QBEABV?$basic_string@DU?$char_traits@D@std@@V?$R_Allocator@D@@@std@@XZ" PURGE="0" COMMENT="" />
    <EXPORT ORDINAL="174" NAME="?getName@X_LevelFSM@@QBEPBDXZ" PURGE="0" COMMENT="" />
    <EXPORT ORDINAL="175" NAME="?getName@X_LevelJumppoint@@QBEABV?$basic_string@DU?$char_traits@D@std@@V?$R_Allocator@D@@@std@@XZ" PURGE="0" COMMENT="" />
    <EXPORT ORDINAL="176" NAME="?getName@X_LevelLevelItem@@QBEPBDXZ" PURGE="0" COMMENT="" />
    <EXPORT ORDINAL="177" NAME="?getName@X_LevelRoom@@QBEABV?$basic_string@DU?$char_traits@D@std@@V?$R_Allocator@D@@@std@@XZ" PURGE="0" COMMENT="" />
    <EXPORT ORDINAL="178" NAME="?getName@X_LevelWaypoint@@QBEABV?$basic_string@DU?$char_traits@D@std@@V?$R_Allocator@D@@@std@@XZ" PURGE="0" COMMENT="" />
    <EXPORT ORDINAL="179" NAME="?getNormal@X_LevelExit@@QBEABV?$M_Vector3Template@M@@XZ" PURGE="0" COMMENT="" />
    <EXPORT ORDINAL="180" NAME="?getObject@X_LevelMesh@@QBEPAVP_VirtualObject@@XZ" PURGE="0" COMMENT="" />
    <EXPORT ORDINAL="181" NAME="?getObjectToParent@X_LevelFSM@@QBEABV?$M_Matrix4x3Template@M@@XZ" PURGE="0" COMMENT="" />
    <EXPORT ORDINAL="182" NAME="?getOnInitMessagesID@X_LevelFSM@@QBEHXZ" PURGE="0" COMMENT="" />
    <EXPORT ORDINAL="183" NAME="?getOtherMessagesID@X_LevelFSM@@QBEHXZ" PURGE="0" COMMENT="" />
    <EXPORT ORDINAL="184" NAME="?getParentDynamicMeshFSM@X_LevelFSM@@QBEPBV1@XZ" PURGE="0" COMMENT="" />
    <EXPORT ORDINAL="185" NAME="?getPhysicalMaterialIndex@X_LevelDynamicMesh@@QBEHXZ" PURGE="0" COMMENT="" />
    <EXPORT ORDINAL="186" NAME="?getPhysicalWorldSize@X_Level@@QBEMXZ" PURGE="0" COMMENT="" />
    <EXPORT ORDINAL="187" NAME="?getPlane@X_LevelMirror@@QBEABV?$M_Plane3Template@M@@XZ" PURGE="0" COMMENT="" />
    <EXPORT ORDINAL="188" NAME="?getPointLight@X_Level@@QBEPBVX_LevelPointLight@@H@Z" PURGE="4" COMMENT="" />
    <EXPORT ORDINAL="189" NAME="?getPointLightCount@X_Level@@QBEHXZ" PURGE="0" COMMENT="" />
    <EXPORT ORDINAL="190" NAME="?getPrimitiveVisualizationColor@X_LevelMaterials@@ABE?AVG_Color@@XZ" PURGE="4" COMMENT="" />
    <EXPORT ORDINAL="191" NAME="?getRadius@X_LevelTrigger@@QBEMXZ" PURGE="0" COMMENT="" />
    <EXPORT ORDINAL="192" NAME="?getRigidBody@X_LevelDynamicMesh@@QBEPAVX_RigidBody@@XZ" PURGE="0" COMMENT="" />
    <EXPORT ORDINAL="193" NAME="?getRigidBody@X_LevelMesh@@QBEPAVX_RigidBody@@H@Z" PURGE="4" COMMENT="" />
    <EXPORT ORDINAL="194" NAME="?getRigidBody@X_LevelRoom@@QBEPAVX_RigidBody@@H@Z" PURGE="4" COMMENT="" />
    <EXPORT ORDINAL="195" NAME="?getRigidBody@X_LevelTrigger@@QBEPAVX_RigidBody@@XZ" PURGE="0" COMMENT="" />
    <EXPORT ORDINAL="196" NAME="?getRigidBodyCount@X_LevelMesh@@QBEHXZ" PURGE="0" COMMENT="" />
    <EXPORT ORDINAL="197" NAME="?getRigidBodyCount@X_LevelRoom@@QBEHXZ" PURGE="0" COMMENT="" />
    <EXPORT ORDINAL="198" NAME="?getRoom@X_Level@@QBEPBVX_LevelRoom@@H@Z" PURGE="4" COMMENT="" />
    <EXPORT ORDINAL="199" NAME="?getRoomCount@X_Level@@QBEHXZ" PURGE="0" COMMENT="" />
    <EXPORT ORDINAL="200" NAME="?getRoomIndex@X_LevelEnemy@@QBEHXZ" PURGE="0" COMMENT="" />
    <EXPORT ORDINAL="201" NAME="?getRoomIndex@X_LevelFSM@@QBEHXZ" PURGE="0" COMMENT="" />
    <EXPORT ORDINAL="202" NAME="?getRoomIndex@X_LevelFlare@@QBEHXZ" PURGE="0" COMMENT="" />
    <EXPORT ORDINAL="203" NAME="?getRoomIndex@X_LevelJumppoint@@QBEHXZ" PURGE="0" COMMENT="" />
    <EXPORT ORDINAL="204" NAME="?getRoomIndex@X_LevelLevelItem@@QBEHXZ" PURGE="0" COMMENT="" />
    <EXPORT ORDINAL="205" NAME="?getRoomIndex@X_LevelMirror@@QBEHXZ" PURGE="0" COMMENT="" />
    <EXPORT ORDINAL="206" NAME="?getRoomIndex@X_LevelPointLight@@QBEHXZ" PURGE="0" COMMENT="" />
    <EXPORT ORDINAL="207" NAME="?getRoomIndex@X_LevelWaypoint@@QBEHXZ" PURGE="0" COMMENT="" />
    <EXPORT ORDINAL="208" NAME="?getSendMessagesID@X_LevelFSM@@QBEHXZ" PURGE="0" COMMENT="" />
    <EXPORT ORDINAL="209" NAME="?getSharedDBName@X_LevelFlare@@QBEPBDXZ" PURGE="0" COMMENT="" />
    <EXPORT ORDINAL="210" NAME="?getSharedDBName@X_LevelLevelItem@@QBEPBDXZ" PURGE="0" COMMENT="" />
    <EXPORT ORDINAL="211" NAME="?getSkinName@X_LevelEnemy@@QBEPBDXZ" PURGE="0" COMMENT="" />
    <EXPORT ORDINAL="212" NAME="?getSoundEnvironmentName@X_LevelRoom@@QBEPBDXZ" PURGE="0" COMMENT="" />
    <EXPORT ORDINAL="213" NAME="?getStates@X_LevelFSM@@QBEABV?$vector@V?$basic_string@DUR_CTrI@std@@V?$R_Allocator@D@@@std@@V?$R_Allocator@V?$basic_string@DUR_CTrI@std@@V?$R_Allocator@D@@@std@@@@@std@@XZ" PURGE="0" COMMENT="" />
    <EXPORT ORDINAL="214" NAME="?getString@X_LevelStringPool@@YIPBDH@Z" PURGE="0" COMMENT="" />
    <EXPORT ORDINAL="215" NAME="?getSwitchMessagesID@X_LevelFSM@@QBEHXZ" PURGE="0" COMMENT="" />
    <EXPORT ORDINAL="216" NAME="?getTextureAnimationDefaultFrame@X_LevelMaterials@@QBEHH@Z" PURGE="4" COMMENT="" />
    <EXPORT ORDINAL="217" NAME="?getTextureAnimationDefaultFrame@X_LevelMesh@@QBEHXZ" PURGE="0" COMMENT="" />
    <EXPORT ORDINAL="218" NAME="?getTextureAnimationFPS@X_LevelMaterials@@QBEHH@Z" PURGE="4" COMMENT="" />
    <EXPORT ORDINAL="219" NAME="?getTextureAnimationFPS@X_LevelMesh@@QBEHXZ" PURGE="0" COMMENT="" />
    <EXPORT ORDINAL="220" NAME="?getTextureAnimationFrameCount@X_LevelMaterials@@QBEHH@Z" PURGE="4" COMMENT="" />
    <EXPORT ORDINAL="221" NAME="?getTextureAnimationFrameCount@X_LevelMesh@@QBEHXZ" PURGE="0" COMMENT="" />
    <EXPORT ORDINAL="222" NAME="?getTimer@X_LevelFSM@@QBEPAUTimer@1@H@Z" PURGE="4" COMMENT="" />
    <EXPORT ORDINAL="223" NAME="?getTimerCount@X_LevelFSM@@QBEHXZ" PURGE="0" COMMENT="" />
    <EXPORT ORDINAL="224" NAME="?getTrigger@X_Level@@QBEPBVX_LevelTrigger@@H@Z" PURGE="4" COMMENT="" />
    <EXPORT ORDINAL="225" NAME="?getTriggerCount@X_Level@@QBEHXZ" PURGE="0" COMMENT="" />
    <EXPORT ORDINAL="226" NAME="?getUseAnimationName@X_LevelEnemy@@QBEABV?$basic_string@DU?$char_traits@D@std@@V?$R_Allocator@D@@@std@@XZ" PURGE="0" COMMENT="" />
    <EXPORT ORDINAL="227" NAME="?getUseAnimationName@X_LevelTrigger@@QBEABV?$basic_string@DU?$char_traits@D@std@@V?$R_Allocator@D@@@std@@XZ" PURGE="0" COMMENT="" />
    <EXPORT ORDINAL="228" NAME="?getVolumeLighting@X_LevelRoom@@QBEPBVX_LevelVolumeLighting@@XZ" PURGE="0" COMMENT="" />
    <EXPORT ORDINAL="229" NAME="?getWaypoint@X_Level@@QBEPBVX_LevelWaypoint@@H@Z" PURGE="4" COMMENT="" />
    <EXPORT ORDINAL="230" NAME="?getWaypointArray@X_Level@@QBEPBVX_LevelWaypoint@@XZ" PURGE="0" COMMENT="" />
    <EXPORT ORDINAL="231" NAME="?getWaypointCount@X_Level@@QBEHXZ" PURGE="0" COMMENT="" />
    <EXPORT ORDINAL="232" NAME="?hasTextureAnimation@X_LevelMesh@@QBE_NXZ" PURGE="0" COMMENT="" />
    <EXPORT ORDINAL="233" NAME="?initializeIntervals@X_LevelVolumeLighting@@AAEXXZ" PURGE="0" COMMENT="" />
    <EXPORT ORDINAL="234" NAME="?initializeMembers@X_Level@@AAEXXZ" PURGE="0" COMMENT="" />
    <EXPORT ORDINAL="235" NAME="?initializeMembers@X_LevelDynamicMesh@@AAEXXZ" PURGE="0" COMMENT="" />
    <EXPORT ORDINAL="236" NAME="?initializeMembers@X_LevelDynamicMeshAnimation@@AAEXXZ" PURGE="0" COMMENT="" />
    <EXPORT ORDINAL="237" NAME="?initializeMembers@X_LevelEnemy@@AAEXXZ" PURGE="0" COMMENT="" />
    <EXPORT ORDINAL="238" NAME="?initializeMembers@X_LevelExit@@AAEXXZ" PURGE="0" COMMENT="" />
    <EXPORT ORDINAL="239" NAME="?initializeMembers@X_LevelFSM@@AAEXXZ" PURGE="0" COMMENT="" />
    <EXPORT ORDINAL="240" NAME="?initializeMembers@X_LevelFlare@@AAEXXZ" PURGE="0" COMMENT="" />
    <EXPORT ORDINAL="241" NAME="?initializeMembers@X_LevelJumppoint@@AAEXXZ" PURGE="0" COMMENT="" />
    <EXPORT ORDINAL="242" NAME="?initializeMembers@X_LevelLevelItem@@AAEXXZ" PURGE="0" COMMENT="" />
    <EXPORT ORDINAL="243" NAME="?initializeMembers@X_LevelMaterials@@AAEXXZ" PURGE="0" COMMENT="" />
    <EXPORT ORDINAL="244" NAME="?initializeMembers@X_LevelMesh@@AAEXXZ" PURGE="0" COMMENT="" />
    <EXPORT ORDINAL="245" NAME="?initializeMembers@X_LevelMirror@@AAEXXZ" PURGE="0" COMMENT="" />
    <EXPORT ORDINAL="246" NAME="?initializeMembers@X_LevelPointLight@@AAEXXZ" PURGE="0" COMMENT="" />
    <EXPORT ORDINAL="247" NAME="?initializeMembers@X_LevelRoom@@AAEXXZ" PURGE="0" COMMENT="" />
    <EXPORT ORDINAL="248" NAME="?initializeMembers@X_LevelTrigger@@AAEXXZ" PURGE="0" COMMENT="" />
    <EXPORT ORDINAL="249" NAME="?initializeMembers@X_LevelVolumeLighting@@AAEXXZ" PURGE="0" COMMENT="" />
    <EXPORT ORDINAL="250" NAME="?initializeMembers@X_LevelWaypoint@@AAEXXZ" PURGE="0" COMMENT="" />
    <EXPORT ORDINAL="251" NAME="?isBulletTrigger@X_LevelTrigger@@QBE_NXZ" PURGE="0" COMMENT="" />
    <EXPORT ORDINAL="252" NAME="?isConstructed@X_Level@@QBE_NXZ" PURGE="0" COMMENT="" />
    <EXPORT ORDINAL="253" NAME="?isConstructed@X_LevelDynamicMesh@@QBE_NXZ" PURGE="0" COMMENT="" />
    <EXPORT ORDINAL="254" NAME="?isConstructed@X_LevelDynamicMeshAnimation@@QBE_NXZ" PURGE="0" COMMENT="" />
    <EXPORT ORDINAL="255" NAME="?isConstructed@X_LevelEnemy@@QBE_NXZ" PURGE="0" COMMENT="" />
    <EXPORT ORDINAL="256" NAME="?isConstructed@X_LevelExit@@QBE_NXZ" PURGE="0" COMMENT="" />
    <EXPORT ORDINAL="257" NAME="?isConstructed@X_LevelFSM@@QBE_NXZ" PURGE="0" COMMENT="" />
    <EXPORT ORDINAL="258" NAME="?isConstructed@X_LevelFlare@@QBE_NXZ" PURGE="0" COMMENT="" />
    <EXPORT ORDINAL="259" NAME="?isConstructed@X_LevelJumppoint@@QBE_NXZ" PURGE="0" COMMENT="" />
    <EXPORT ORDINAL="260" NAME="?isConstructed@X_LevelLevelItem@@QBE_NXZ" PURGE="0" COMMENT="" />
    <EXPORT ORDINAL="261" NAME="?isConstructed@X_LevelMaterials@@QBE_NXZ" PURGE="0" COMMENT="" />
    <EXPORT ORDINAL="262" NAME="?isConstructed@X_LevelMesh@@QBE_NXZ" PURGE="0" COMMENT="" />
    <EXPORT ORDINAL="263" NAME="?isConstructed@X_LevelMirror@@QBE_NXZ" PURGE="0" COMMENT="" />
    <EXPORT ORDINAL="264" NAME="?isConstructed@X_LevelPointLight@@QBE_NXZ" PURGE="0" COMMENT="" />
    <EXPORT ORDINAL="265" NAME="?isConstructed@X_LevelRoom@@QBE_NXZ" PURGE="0" COMMENT="" />
    <EXPORT ORDINAL="266" NAME="?isConstructed@X_LevelStringPool@@YI_NXZ" PURGE="0" COMMENT="" />
    <EXPORT ORDINAL="267" NAME="?isConstructed@X_LevelTrigger@@QBE_NXZ" PURGE="0" COMMENT="" />
    <EXPORT ORDINAL="268" NAME="?isConstructed@X_LevelWaypoint@@QBE_NXZ" PURGE="0" COMMENT="" />
    <EXPORT ORDINAL="269" NAME="?isElevator@X_LevelDynamicMesh@@QBE_NXZ" PURGE="0" COMMENT="" />
    <EXPORT ORDINAL="270" NAME="?isEnemyTrigger@X_LevelTrigger@@QBE_NXZ" PURGE="0" COMMENT="" />
    <EXPORT ORDINAL="271" NAME="?isLookAtTrigger@X_LevelTrigger@@QBE_NXZ" PURGE="0" COMMENT="" />
    <EXPORT ORDINAL="272" NAME="?isPlayerTrigger@X_LevelTrigger@@QBE_NXZ" PURGE="0" COMMENT="" />
    <EXPORT ORDINAL="273" NAME="?isUseTrigger@X_LevelTrigger@@QBE_NXZ" PURGE="0" COMMENT="" />
    <EXPORT ORDINAL="274" NAME="?isVisibilityTrigger@X_LevelTrigger@@QBE_NXZ" PURGE="0" COMMENT="" />
    <EXPORT ORDINAL="275" NAME="?load@X_LevelMaterialInfo@@QAEXAAVR_MemoryFile@@@Z" PURGE="4" COMMENT="" />
    <EXPORT ORDINAL="276" NAME="?loadDynamicRigidBody@X_LevelMesh@@AAEXAAVR_MemoryFile@@PBVX_SharedDBPhysicalMaterial@@PBD@Z" PURGE="12" COMMENT="" />
    <EXPORT ORDINAL="277" NAME="?loadHavokGeometry@X_LevelMesh@@CIPAVX_HavokGeometry@@AAVR_MemoryFile@@@Z" PURGE="0" COMMENT="" />
    <EXPORT ORDINAL="278" NAME="?loadRoomRigidBodies@X_LevelMesh@@AAEXAAVR_MemoryFile@@ABV?$M_Matrix4x3Template@M@@@Z" PURGE="8" COMMENT="" />
    <EXPORT ORDINAL="279" NAME="?loadSetOfRigidBodyShapes@X_LevelMesh@@KIXAAVR_MemoryFile@@AAV?$vector@PAVX_HavokGeometry@@V?$R_Allocator@PAVX_HavokGeometry@@@@@std@@@Z" PURGE="0" COMMENT="" />
    <EXPORT ORDINAL="280" NAME="?noDecals@X_LevelDynamicMesh@@QBE_NXZ" PURGE="0" COMMENT="" />
    <EXPORT ORDINAL="281" NAME="?pointlightsAffect@X_LevelDynamicMesh@@QBE_NXZ" PURGE="0" COMMENT="" />
    <EXPORT ORDINAL="282" NAME="?readShort@X_LevelStringPool@@YIHXZ" PURGE="0" COMMENT="" />
    <EXPORT ORDINAL="283" NAME="?readString@X_LevelStringPool@@YIPBDXZ" PURGE="0" COMMENT="" />
    <EXPORT ORDINAL="284" NAME="?remapCollisionMask@X_LevelMesh@@CIII@Z" PURGE="0" COMMENT="" />
    <EXPORT ORDINAL="285" NAME="?sample@X_LevelVolumeLighting@@ABEXIABV?$M_Vector3Template@M@@AAV2@11@Z" PURGE="20" COMMENT="" />
    <EXPORT ORDINAL="286" NAME="?sample@X_LevelVolumeLighting@@QBEXABV?$M_Vector3Template@M@@AAV2@11@Z" PURGE="16" COMMENT="" />
    <EXPORT ORDINAL="287" NAME="?sampleFiltered@X_LevelVolumeLighting@@QBEXABV?$M_Vector3Template@M@@MAAV2@11@Z" PURGE="20" COMMENT="" />
    <EXPORT ORDINAL="288" NAME="?save@X_LevelMaterialInfo@@QAEXAAVR_MemoryFile@@@Z" PURGE="4" COMMENT="" />
    <EXPORT ORDINAL="289" NAME="?selectGrid@X_LevelVolumeLighting@@ABEIABV?$M_Vector3Template@M@@@Z" PURGE="4" COMMENT="" />
    <EXPORT ORDINAL="290" NAME="?setCubeMaps@X_LevelMaterials@@SIX_N@Z" PURGE="0" COMMENT="" />
    <EXPORT ORDINAL="291" NAME="?setDetailTextures@X_LevelMaterials@@SIX_N@Z" PURGE="0" COMMENT="" />
    <EXPORT ORDINAL="292" NAME="?setLightmapBitsPerTexel@X_LevelMaterials@@SIXW4BitsPerTexel@P_Map@@@Z" PURGE="0" COMMENT="" />
    <EXPORT ORDINAL="293" NAME="?setMaterialFilterMode@X_LevelMaterials@@SIXW4FILTER_MODE@P_MaterialDefinitions@@@Z" PURGE="0" COMMENT="" />
    <EXPORT ORDINAL="294" NAME="?setPrimitiveVisualization@X_LevelMaterials@@SIX_N@Z" PURGE="0" COMMENT="" />
    <EXPORT ORDINAL="295" NAME="?setReadID@X_LevelStringPool@@YIXH@Z" PURGE="0" COMMENT="" />
    <EXPORT ORDINAL="296" NAME="?setTextureAnimationFrame@X_LevelMaterials@@QAEXHE@Z" PURGE="8" COMMENT="" />
    <EXPORT ORDINAL="297" NAME="?setTextureAnimationFrame@X_LevelMesh@@QAEXE@Z" PURGE="4" COMMENT="" />
    <EXPORT ORDINAL="298" NAME="?setTextureBitsPerTexel@X_LevelMaterials@@SIXW4BitsPerTexel@P_Map@@@Z" PURGE="0" COMMENT="" />
    <EXPORT ORDINAL="299" NAME="?setTextureMipmaps@X_LevelMaterials@@SIXH@Z" PURGE="0" COMMENT="" />
    <EXPORT ORDINAL="300" NAME="?sm_bDetailTextures@X_LevelMaterials@@0_NA" PURGE="-1" COMMENT="" />
    <EXPORT ORDINAL="301" NAME="?sm_bPrimitiveVisualization@X_LevelMaterials@@0_NA" PURGE="-1" COMMENT="" />
    <EXPORT ORDINAL="302" NAME="?sm_bUseCubeMaps@X_LevelMaterials@@0_NA" PURGE="-1" COMMENT="" />
    <EXPORT ORDINAL="303" NAME="?sm_eLightmapBitsPerTexel@X_LevelMaterials@@0W4BitsPerTexel@P_Map@@A" PURGE="-1" COMMENT="" />
    <EXPORT ORDINAL="304" NAME="?sm_eMaterialFilterMode@X_LevelMaterials@@0W4FILTER_MODE@P_MaterialDefinitions@@A" PURGE="-1" COMMENT="" />
    <EXPORT ORDINAL="305" NAME="?sm_eTextureBitsPerTexel@X_LevelMaterials@@0W4BitsPerTexel@P_Map@@A" PURGE="-1" COMMENT="" />
    <EXPORT ORDINAL="306" NAME="?sm_iTextureMipmaps@X_LevelMaterials@@0HA" PURGE="-1" COMMENT="" />
    <EXPORT ORDINAL="307" NAME="?useCubeMaps@X_LevelMaterials@@SI_NXZ" PURGE="0" COMMENT="" />
    <EXPORT ORDINAL="308" NAME="?useDetailTextures@X_LevelMaterials@@SI_NXZ" PURGE="0" COMMENT="" />
    <EXPORT ORDINAL="309" NAME="?usesGlossTexture@X_LevelMaterialInfo@@QBE_NXZ" PURGE="0" COMMENT="" />
    <EXPORT ORDINAL="310" NAME="?usesReflectionTexture@X_LevelMaterialInfo@@QBE_NXZ" PURGE="0" COMMENT="" />
</LIBRARY>

