<?xml version="1.0" encoding="UTF-8"?>
<LIBRARY NAME="xerces-c_2_1_0.dll" PATH="/DLLArchive/etc/xerces-c_2_1_0.dll" DATE="Fri Jul 03 13:40:26 PDT 2020" VERSION="2, 1, 0">
    <EXPORT ORDINAL="1" NAME="??0ASCIIRangeFactory@@QAE@XZ" PURGE="0" COMMENT="" />
    <EXPORT ORDINAL="2" NAME="??0AbstractDOMParser@@IAE@QAVXMLValidator@@@Z" PURGE="4" COMMENT="" />
    <EXPORT ORDINAL="3" NAME="??0AbstractNumericFacetValidator@@IAE@QAVDatatypeValidator@@QAV?$RefHashTableOf@VKVStringPair@@@@HW4ValidatorType@1@@Z" PURGE="16" COMMENT="" />
    <EXPORT ORDINAL="4" NAME="??0AbstractNumericFacetValidator@@QAE@ABV0@@Z" PURGE="4" COMMENT="" />
    <EXPORT ORDINAL="5" NAME="??0AbstractNumericValidator@@IAE@QAVDatatypeValidator@@QAV?$RefHashTableOf@VKVStringPair@@@@HW4ValidatorType@1@@Z" PURGE="16" COMMENT="" />
    <EXPORT ORDINAL="6" NAME="??0AbstractNumericValidator@@QAE@ABV0@@Z" PURGE="4" COMMENT="" />
    <EXPORT ORDINAL="7" NAME="??0AbstractStringValidator@@IAE@QAVDatatypeValidator@@QAV?$RefHashTableOf@VKVStringPair@@@@HW4ValidatorType@1@@Z" PURGE="16" COMMENT="" />
    <EXPORT ORDINAL="8" NAME="??0AbstractStringValidator@@QAE@ABV0@@Z" PURGE="4" COMMENT="" />
    <EXPORT ORDINAL="9" NAME="??0AnySimpleTypeDatatypeValidator@@QAE@ABV0@@Z" PURGE="4" COMMENT="" />
    <EXPORT ORDINAL="10" NAME="??0AnySimpleTypeDatatypeValidator@@QAE@XZ" PURGE="0" COMMENT="" />
    <EXPORT ORDINAL="11" NAME="??0AnyURIDatatypeValidator@@QAE@ABV0@@Z" PURGE="4" COMMENT="" />
    <EXPORT ORDINAL="12" NAME="??0AnyURIDatatypeValidator@@QAE@QAVDatatypeValidator@@QAV?$RefHashTableOf@VKVStringPair@@@@QAV?$RefVectorOf@G@@H@Z" PURGE="16" COMMENT="" />
    <EXPORT ORDINAL="13" NAME="??0AnyURIDatatypeValidator@@QAE@XZ" PURGE="0" COMMENT="" />
    <EXPORT ORDINAL="14" NAME="??0ArrayIndexOutOfBoundsException@@QAE@ABV0@@Z" PURGE="4" COMMENT="" />
    <EXPORT ORDINAL="15" NAME="??0ArrayIndexOutOfBoundsException@@QAE@QBDIW4Codes@XMLExcepts@@0000@Z" PURGE="28" COMMENT="" />
    <EXPORT ORDINAL="16" NAME="??0ArrayIndexOutOfBoundsException@@QAE@QBDIW4Codes@XMLExcepts@@@Z" PURGE="12" COMMENT="" />
    <EXPORT ORDINAL="17" NAME="??0ArrayIndexOutOfBoundsException@@QAE@QBDIW4Codes@XMLExcepts@@QBG222@Z" PURGE="28" COMMENT="" />
    <EXPORT ORDINAL="18" NAME="??0AttrImpl@@QAE@ABV0@_N@Z" PURGE="8" COMMENT="" />
    <EXPORT ORDINAL="19" NAME="??0AttrImpl@@QAE@PAVDocumentImpl@@ABVDOMString@@@Z" PURGE="8" COMMENT="" />
    <EXPORT ORDINAL="20" NAME="??0AttrMapImpl@@QAE@ABV0@@Z" PURGE="4" COMMENT="" />
    <EXPORT ORDINAL="21" NAME="??0AttrMapImpl@@QAE@PAVNodeImpl@@@Z" PURGE="4" COMMENT="" />
    <EXPORT ORDINAL="22" NAME="??0AttrMapImpl@@QAE@PAVNodeImpl@@PAVNamedNodeMapImpl@@@Z" PURGE="8" COMMENT="" />
    <EXPORT ORDINAL="23" NAME="??0AttrNSImpl@@QAE@ABV0@_N@Z" PURGE="8" COMMENT="" />
    <EXPORT ORDINAL="24" NAME="??0AttrNSImpl@@QAE@PAVDocumentImpl@@ABVDOMString@@1@Z" PURGE="12" COMMENT="" />
    <EXPORT ORDINAL="25" NAME="??0AttrNSImpl@@QAE@PAVDocumentImpl@@ABVDOMString@@@Z" PURGE="8" COMMENT="" />
    <EXPORT ORDINAL="26" NAME="??0AttributeList@@QAE@XZ" PURGE="0" COMMENT="" />
    <EXPORT ORDINAL="27" NAME="??0Attributes@@QAE@XZ" PURGE="0" COMMENT="" />
    <EXPORT ORDINAL="28" NAME="??0BMPattern@@QAE@QBGH_N@Z" PURGE="12" COMMENT="" />
    <EXPORT ORDINAL="29" NAME="??0BMPattern@@QAE@QBG_N@Z" PURGE="8" COMMENT="" />
    <EXPORT ORDINAL="30" NAME="??0Base64BinaryDatatypeValidator@@QAE@ABV0@@Z" PURGE="4" COMMENT="" />
    <EXPORT ORDINAL="31" NAME="??0Base64BinaryDatatypeValidator@@QAE@QAVDatatypeValidator@@QAV?$RefHashTableOf@VKVStringPair@@@@QAV?$RefVectorOf@G@@H@Z" PURGE="16" COMMENT="" />
    <EXPORT ORDINAL="32" NAME="??0Base64BinaryDatatypeValidator@@QAE@XZ" PURGE="0" COMMENT="" />
    <EXPORT ORDINAL="33" NAME="??0BinFileInputStream@@QAE@QAX@Z" PURGE="4" COMMENT="" />
    <EXPORT ORDINAL="34" NAME="??0BinFileInputStream@@QAE@QBD@Z" PURGE="4" COMMENT="" />
    <EXPORT ORDINAL="35" NAME="??0BinFileInputStream@@QAE@QBG@Z" PURGE="4" COMMENT="" />
    <EXPORT ORDINAL="36" NAME="??0BinHTTPURLInputStream@@QAE@ABVXMLURL@@@Z" PURGE="4" COMMENT="" />
    <EXPORT ORDINAL="37" NAME="??0BinInputStream@@IAE@XZ" PURGE="0" COMMENT="" />
    <EXPORT ORDINAL="38" NAME="??0BinMemInputStream@@QAE@QBEIW4BufOpts@0@@Z" PURGE="12" COMMENT="" />
    <EXPORT ORDINAL="39" NAME="??0BitSet@@QAE@ABV0@@Z" PURGE="4" COMMENT="" />
    <EXPORT ORDINAL="40" NAME="??0BitSet@@QAE@I@Z" PURGE="4" COMMENT="" />
    <EXPORT ORDINAL="41" NAME="??0BlockRangeFactory@@QAE@XZ" PURGE="0" COMMENT="" />
    <EXPORT ORDINAL="42" NAME="??0BooleanDatatypeValidator@@QAE@ABV0@@Z" PURGE="4" COMMENT="" />
    <EXPORT ORDINAL="43" NAME="??0BooleanDatatypeValidator@@QAE@QAVDatatypeValidator@@QAV?$RefHashTableOf@VKVStringPair@@@@QAV?$RefVectorOf@G@@H@Z" PURGE="16" COMMENT="" />
    <EXPORT ORDINAL="44" NAME="??0BooleanDatatypeValidator@@QAE@XZ" PURGE="0" COMMENT="" />
    <EXPORT ORDINAL="45" NAME="??0CDATASectionImpl@@QAE@ABV0@_N@Z" PURGE="8" COMMENT="" />
    <EXPORT ORDINAL="46" NAME="??0CDATASectionImpl@@QAE@PAVDocumentImpl@@ABVDOMString@@@Z" PURGE="8" COMMENT="" />
    <EXPORT ORDINAL="47" NAME="??0CharOp@@QAE@FH@Z" PURGE="8" COMMENT="" />
    <EXPORT ORDINAL="48" NAME="??0CharToken@@QAE@GH@Z" PURGE="8" COMMENT="" />
    <EXPORT ORDINAL="49" NAME="??0CharacterDataImpl@@QAE@ABV0@_N@Z" PURGE="8" COMMENT="" />
    <EXPORT ORDINAL="50" NAME="??0CharacterDataImpl@@QAE@PAVDocumentImpl@@ABVDOMString@@@Z" PURGE="8" COMMENT="" />
    <EXPORT ORDINAL="51" NAME="??0ChildNode@@QAE@ABV0@@Z" PURGE="4" COMMENT="" />
    <EXPORT ORDINAL="52" NAME="??0ChildNode@@QAE@PAVDocumentImpl@@@Z" PURGE="4" COMMENT="" />
    <EXPORT ORDINAL="53" NAME="??0ChildOp@@QAE@F@Z" PURGE="4" COMMENT="" />
    <EXPORT ORDINAL="54" NAME="??0ClosureToken@@QAE@GQAVToken@@@Z" PURGE="8" COMMENT="" />
    <EXPORT ORDINAL="55" NAME="??0CommentImpl@@QAE@ABV0@@Z" PURGE="4" COMMENT="" />
    <EXPORT ORDINAL="56" NAME="??0CommentImpl@@QAE@ABV0@_N@Z" PURGE="8" COMMENT="" />
    <EXPORT ORDINAL="57" NAME="??0CommentImpl@@QAE@PAVDocumentImpl@@ABVDOMString@@@Z" PURGE="8" COMMENT="" />
    <EXPORT ORDINAL="58" NAME="??0ComplexTypeInfo@@QAE@XZ" PURGE="0" COMMENT="" />
    <EXPORT ORDINAL="59" NAME="??0ConcatToken@@QAE@QAVToken@@0@Z" PURGE="8" COMMENT="" />
    <EXPORT ORDINAL="60" NAME="??0ConditionOp@@QAE@FHQBVOp@@00@Z" PURGE="20" COMMENT="" />
    <EXPORT ORDINAL="61" NAME="??0ConditionToken@@QAE@IQAVToken@@00@Z" PURGE="16" COMMENT="" />
    <EXPORT ORDINAL="62" NAME="??0ContentHandler@@QAE@XZ" PURGE="0" COMMENT="" />
    <EXPORT ORDINAL="63" NAME="??0DOMAttr@@IAE@ABV0@@Z" PURGE="4" COMMENT="" />
    <EXPORT ORDINAL="64" NAME="??0DOMAttr@@IAE@XZ" PURGE="0" COMMENT="" />
    <EXPORT ORDINAL="65" NAME="??0DOMAttrImpl@@QAE@ABV0@_N@Z" PURGE="8" COMMENT="" />
    <EXPORT ORDINAL="66" NAME="??0DOMAttrImpl@@QAE@PAVDOMDocument@@PBG@Z" PURGE="8" COMMENT="" />
    <EXPORT ORDINAL="67" NAME="??0DOMAttrMapImpl@@QAE@ABV0@@Z" PURGE="4" COMMENT="" />
    <EXPORT ORDINAL="68" NAME="??0DOMAttrMapImpl@@QAE@PAVDOMNode@@@Z" PURGE="4" COMMENT="" />
    <EXPORT ORDINAL="69" NAME="??0DOMAttrMapImpl@@QAE@PAVDOMNode@@PBVDOMNamedNodeMapImpl@@@Z" PURGE="8" COMMENT="" />
    <EXPORT ORDINAL="70" NAME="??0DOMAttrNSImpl@@QAE@ABV0@_N@Z" PURGE="8" COMMENT="" />
    <EXPORT ORDINAL="71" NAME="??0DOMAttrNSImpl@@QAE@PAVDOMDocument@@PBG1@Z" PURGE="12" COMMENT="" />
    <EXPORT ORDINAL="72" NAME="??0DOMAttrNSImpl@@QAE@PAVDOMDocument@@PBG@Z" PURGE="8" COMMENT="" />
    <EXPORT ORDINAL="73" NAME="??0DOMBuilder@@IAE@ABV0@@Z" PURGE="4" COMMENT="" />
    <EXPORT ORDINAL="74" NAME="??0DOMBuilder@@IAE@XZ" PURGE="0" COMMENT="" />
    <EXPORT ORDINAL="75" NAME="??0DOMBuilderImpl@@QAE@QAVXMLValidator@@@Z" PURGE="4" COMMENT="" />
    <EXPORT ORDINAL="76" NAME="??0DOMCDATASection@@IAE@ABV0@@Z" PURGE="4" COMMENT="" />
    <EXPORT ORDINAL="77" NAME="??0DOMCDATASection@@IAE@XZ" PURGE="0" COMMENT="" />
    <EXPORT ORDINAL="78" NAME="??0DOMCDATASectionImpl@@QAE@ABV0@_N@Z" PURGE="8" COMMENT="" />
    <EXPORT ORDINAL="79" NAME="??0DOMCDATASectionImpl@@QAE@PAVDOMDocument@@PBG@Z" PURGE="8" COMMENT="" />
    <EXPORT ORDINAL="80" NAME="??0DOMCharacterData@@IAE@ABV0@@Z" PURGE="4" COMMENT="" />
    <EXPORT ORDINAL="81" NAME="??0DOMCharacterData@@IAE@XZ" PURGE="0" COMMENT="" />
    <EXPORT ORDINAL="82" NAME="??0DOMCharacterDataImpl@@QAE@ABV0@@Z" PURGE="4" COMMENT="" />
    <EXPORT ORDINAL="83" NAME="??0DOMCharacterDataImpl@@QAE@PAVDOMDocument@@PBG@Z" PURGE="8" COMMENT="" />
    <EXPORT ORDINAL="84" NAME="??0DOMChildNode@@QAE@ABV0@@Z" PURGE="4" COMMENT="" />
    <EXPORT ORDINAL="85" NAME="??0DOMChildNode@@QAE@XZ" PURGE="0" COMMENT="" />
    <EXPORT ORDINAL="86" NAME="??0DOMComment@@IAE@ABV0@@Z" PURGE="4" COMMENT="" />
    <EXPORT ORDINAL="87" NAME="??0DOMComment@@IAE@XZ" PURGE="0" COMMENT="" />
    <EXPORT ORDINAL="88" NAME="??0DOMCommentImpl@@QAE@ABV0@@Z" PURGE="4" COMMENT="" />
    <EXPORT ORDINAL="89" NAME="??0DOMCommentImpl@@QAE@ABV0@_N@Z" PURGE="8" COMMENT="" />
    <EXPORT ORDINAL="90" NAME="??0DOMCommentImpl@@QAE@PAVDOMDocument@@PBG@Z" PURGE="8" COMMENT="" />
    <EXPORT ORDINAL="91" NAME="??0DOMDeepNodeListImpl@@QAE@ABV0@@Z" PURGE="4" COMMENT="" />
    <EXPORT ORDINAL="92" NAME="??0DOMDeepNodeListImpl@@QAE@PBVDOMNode@@PBG1@Z" PURGE="12" COMMENT="" />
    <EXPORT ORDINAL="93" NAME="??0DOMDeepNodeListImpl@@QAE@PBVDOMNode@@PBG@Z" PURGE="8" COMMENT="" />
    <EXPORT ORDINAL="94" NAME="??0DOMDocument@@IAE@ABV0@@Z" PURGE="4" COMMENT="" />
    <EXPORT ORDINAL="95" NAME="??0DOMDocument@@IAE@XZ" PURGE="0" COMMENT="" />
    <EXPORT ORDINAL="96" NAME="??0DOMDocumentFragment@@IAE@ABV0@@Z" PURGE="4" COMMENT="" />
    <EXPORT ORDINAL="97" NAME="??0DOMDocumentFragment@@IAE@XZ" PURGE="0" COMMENT="" />
    <EXPORT ORDINAL="98" NAME="??0DOMDocumentFragmentImpl@@AAE@ABV0@_N@Z" PURGE="8" COMMENT="" />
    <EXPORT ORDINAL="99" NAME="??0DOMDocumentFragmentImpl@@IAE@PAVDOMDocument@@@Z" PURGE="4" COMMENT="" />
    <EXPORT ORDINAL="100" NAME="??0DOMDocumentFragmentImpl@@QAE@ABV0@@Z" PURGE="4" COMMENT="" />
    <EXPORT ORDINAL="101" NAME="??0DOMDocumentImpl@@QAE@ABV0@@Z" PURGE="4" COMMENT="" />
    <EXPORT ORDINAL="102" NAME="??0DOMDocumentImpl@@QAE@PBG0PAVDOMDocumentType@@@Z" PURGE="12" COMMENT="" />
    <EXPORT ORDINAL="103" NAME="??0DOMDocumentImpl@@QAE@XZ" PURGE="0" COMMENT="" />
    <EXPORT ORDINAL="104" NAME="??0DOMDocumentRange@@IAE@ABV0@@Z" PURGE="4" COMMENT="" />
    <EXPORT ORDINAL="105" NAME="??0DOMDocumentRange@@IAE@XZ" PURGE="0" COMMENT="" />
    <EXPORT ORDINAL="106" NAME="??0DOMDocumentTraversal@@IAE@ABV0@@Z" PURGE="4" COMMENT="" />
    <EXPORT ORDINAL="107" NAME="??0DOMDocumentTraversal@@IAE@XZ" PURGE="0" COMMENT="" />
    <EXPORT ORDINAL="108" NAME="??0DOMDocumentType@@IAE@ABV0@@Z" PURGE="4" COMMENT="" />
    <EXPORT ORDINAL="109" NAME="??0DOMDocumentType@@IAE@XZ" PURGE="0" COMMENT="" />
    <EXPORT ORDINAL="110" NAME="??0DOMDocumentTypeImpl@@QAE@ABV0@@Z" PURGE="4" COMMENT="" />
    <EXPORT ORDINAL="111" NAME="??0DOMDocumentTypeImpl@@QAE@ABV0@_N1@Z" PURGE="12" COMMENT="" />
    <EXPORT ORDINAL="112" NAME="??0DOMDocumentTypeImpl@@QAE@PAVDOMDocument@@PBG11_N@Z" PURGE="20" COMMENT="" />
    <EXPORT ORDINAL="113" NAME="??0DOMDocumentTypeImpl@@QAE@PAVDOMDocument@@PBG_N@Z" PURGE="12" COMMENT="" />
    <EXPORT ORDINAL="114" NAME="??0DOMElement@@IAE@ABV0@@Z" PURGE="4" COMMENT="" />
    <EXPORT ORDINAL="115" NAME="??0DOMElement@@IAE@XZ" PURGE="0" COMMENT="" />
    <EXPORT ORDINAL="116" NAME="??0DOMElementImpl@@QAE@ABV0@_N@Z" PURGE="8" COMMENT="" />
    <EXPORT ORDINAL="117" NAME="??0DOMElementImpl@@QAE@PAVDOMDocument@@PBG@Z" PURGE="8" COMMENT="" />
    <EXPORT ORDINAL="118" NAME="??0DOMElementNSImpl@@QAE@ABV0@_N@Z" PURGE="8" COMMENT="" />
    <EXPORT ORDINAL="119" NAME="??0DOMElementNSImpl@@QAE@PAVDOMDocument@@PBG1@Z" PURGE="12" COMMENT="" />
    <EXPORT ORDINAL="120" NAME="??0DOMElementNSImpl@@QAE@PAVDOMDocument@@PBG@Z" PURGE="8" COMMENT="" />
    <EXPORT ORDINAL="121" NAME="??0DOMEntity@@IAE@ABV0@@Z" PURGE="4" COMMENT="" />
    <EXPORT ORDINAL="122" NAME="??0DOMEntity@@IAE@XZ" PURGE="0" COMMENT="" />
    <EXPORT ORDINAL="123" NAME="??0DOMEntityImpl@@QAE@ABV0@_N@Z" PURGE="8" COMMENT="" />
    <EXPORT ORDINAL="124" NAME="??0DOMEntityImpl@@QAE@PAVDOMDocument@@PBG@Z" PURGE="8" COMMENT="" />
    <EXPORT ORDINAL="125" NAME="??0DOMEntityReference@@IAE@ABV0@@Z" PURGE="4" COMMENT="" />
    <EXPORT ORDINAL="126" NAME="??0DOMEntityReference@@IAE@XZ" PURGE="0" COMMENT="" />
    <EXPORT ORDINAL="127" NAME="??0DOMEntityReferenceImpl@@QAE@ABV0@_N@Z" PURGE="8" COMMENT="" />
    <EXPORT ORDINAL="128" NAME="??0DOMEntityReferenceImpl@@QAE@PAVDOMDocument@@PBG@Z" PURGE="8" COMMENT="" />
    <EXPORT ORDINAL="129" NAME="??0DOMEntityResolver@@IAE@ABV0@@Z" PURGE="4" COMMENT="" />
    <EXPORT ORDINAL="130" NAME="??0DOMEntityResolver@@IAE@XZ" PURGE="0" COMMENT="" />
    <EXPORT ORDINAL="131" NAME="??0DOMError@@IAE@ABV0@@Z" PURGE="4" COMMENT="" />
    <EXPORT ORDINAL="132" NAME="??0DOMError@@IAE@XZ" PURGE="0" COMMENT="" />
    <EXPORT ORDINAL="133" NAME="??0DOMErrorHandler@@IAE@ABV0@@Z" PURGE="4" COMMENT="" />
    <EXPORT ORDINAL="134" NAME="??0DOMErrorHandler@@IAE@XZ" PURGE="0" COMMENT="" />
    <EXPORT ORDINAL="135" NAME="??0DOMErrorImpl@@QAE@F@Z" PURGE="4" COMMENT="" />
    <EXPORT ORDINAL="136" NAME="??0DOMErrorImpl@@QAE@FQBGQAVDOMLocator@@@Z" PURGE="12" COMMENT="" />
    <EXPORT ORDINAL="137" NAME="??0DOMException@@QAE@ABV0@@Z" PURGE="4" COMMENT="" />
    <EXPORT ORDINAL="138" NAME="??0DOMException@@QAE@FPBG@Z" PURGE="8" COMMENT="" />
    <EXPORT ORDINAL="139" NAME="??0DOMException@@QAE@XZ" PURGE="0" COMMENT="" />
    <EXPORT ORDINAL="140" NAME="??0DOMImplementation@@IAE@ABV0@@Z" PURGE="4" COMMENT="" />
    <EXPORT ORDINAL="141" NAME="??0DOMImplementation@@IAE@XZ" PURGE="0" COMMENT="" />
    <EXPORT ORDINAL="142" NAME="??0DOMImplementationLS@@IAE@ABV0@@Z" PURGE="4" COMMENT="" />
    <EXPORT ORDINAL="143" NAME="??0DOMImplementationLS@@IAE@XZ" PURGE="0" COMMENT="" />
    <EXPORT ORDINAL="144" NAME="??0DOMImplementationSource@@IAE@ABV0@@Z" PURGE="4" COMMENT="" />
    <EXPORT ORDINAL="145" NAME="??0DOMImplementationSource@@IAE@XZ" PURGE="0" COMMENT="" />
    <EXPORT ORDINAL="146" NAME="??0DOMInputSource@@IAE@ABV0@@Z" PURGE="4" COMMENT="" />
    <EXPORT ORDINAL="147" NAME="??0DOMInputSource@@IAE@XZ" PURGE="0" COMMENT="" />
    <EXPORT ORDINAL="148" NAME="??0DOMLocator@@IAE@ABV0@@Z" PURGE="4" COMMENT="" />
    <EXPORT ORDINAL="149" NAME="??0DOMLocator@@IAE@XZ" PURGE="0" COMMENT="" />
    <EXPORT ORDINAL="150" NAME="??0DOMLocatorImpl@@QAE@JJQAVDOMNode@@QBGJ@Z" PURGE="20" COMMENT="" />
    <EXPORT ORDINAL="151" NAME="??0DOMLocatorImpl@@QAE@XZ" PURGE="0" COMMENT="" />
    <EXPORT ORDINAL="152" NAME="??0DOMNamedNodeMap@@IAE@ABV0@@Z" PURGE="4" COMMENT="" />
    <EXPORT ORDINAL="153" NAME="??0DOMNamedNodeMap@@IAE@XZ" PURGE="0" COMMENT="" />
    <EXPORT ORDINAL="154" NAME="??0DOMNamedNodeMapImpl@@QAE@ABV0@@Z" PURGE="4" COMMENT="" />
    <EXPORT ORDINAL="155" NAME="??0DOMNamedNodeMapImpl@@QAE@PAVDOMNode@@@Z" PURGE="4" COMMENT="" />
    <EXPORT ORDINAL="156" NAME="??0DOMNode@@IAE@ABV0@@Z" PURGE="4" COMMENT="" />
    <EXPORT ORDINAL="157" NAME="??0DOMNode@@IAE@XZ" PURGE="0" COMMENT="" />
    <EXPORT ORDINAL="158" NAME="??0DOMNodeFilter@@IAE@ABV0@@Z" PURGE="4" COMMENT="" />
    <EXPORT ORDINAL="159" NAME="??0DOMNodeFilter@@IAE@XZ" PURGE="0" COMMENT="" />
    <EXPORT ORDINAL="160" NAME="??0DOMNodeImpl@@QAE@ABV0@@Z" PURGE="4" COMMENT="" />
    <EXPORT ORDINAL="161" NAME="??0DOMNodeImpl@@QAE@PAVDOMNode@@@Z" PURGE="4" COMMENT="" />
    <EXPORT ORDINAL="162" NAME="??0DOMNodeIterator@@IAE@ABV0@@Z" PURGE="4" COMMENT="" />
    <EXPORT ORDINAL="163" NAME="??0DOMNodeIterator@@IAE@XZ" PURGE="0" COMMENT="" />
    <EXPORT ORDINAL="164" NAME="??0DOMNodeIteratorImpl@@IAE@XZ" PURGE="0" COMMENT="" />
    <EXPORT ORDINAL="165" NAME="??0DOMNodeIteratorImpl@@QAE@ABV0@@Z" PURGE="4" COMMENT="" />
    <EXPORT ORDINAL="166" NAME="??0DOMNodeIteratorImpl@@QAE@PAVDOMNode@@KPAVDOMNodeFilter@@_N@Z" PURGE="16" COMMENT="" />
    <EXPORT ORDINAL="167" NAME="??0DOMNodeList@@IAE@ABV0@@Z" PURGE="4" COMMENT="" />
    <EXPORT ORDINAL="168" NAME="??0DOMNodeList@@IAE@XZ" PURGE="0" COMMENT="" />
    <EXPORT ORDINAL="169" NAME="??0DOMNodeListImpl@@QAE@PAVDOMNode@@@Z" PURGE="4" COMMENT="" />
    <EXPORT ORDINAL="170" NAME="??0DOMNotation@@IAE@ABV0@@Z" PURGE="4" COMMENT="" />
    <EXPORT ORDINAL="171" NAME="??0DOMNotation@@IAE@XZ" PURGE="0" COMMENT="" />
    <EXPORT ORDINAL="172" NAME="??0DOMNotationImpl@@QAE@ABV0@_N@Z" PURGE="8" COMMENT="" />
    <EXPORT ORDINAL="173" NAME="??0DOMNotationImpl@@QAE@PAVDOMDocument@@PBG@Z" PURGE="8" COMMENT="" />
    <EXPORT ORDINAL="174" NAME="??0DOMParentNode@@QAE@ABV0@@Z" PURGE="4" COMMENT="" />
    <EXPORT ORDINAL="175" NAME="??0DOMParentNode@@QAE@PAVDOMDocument@@@Z" PURGE="4" COMMENT="" />
    <EXPORT ORDINAL="176" NAME="??0DOMParser@@QAE@QAVXMLValidator@@@Z" PURGE="4" COMMENT="" />
    <EXPORT ORDINAL="177" NAME="??0DOMProcessingInstruction@@IAE@ABV0@@Z" PURGE="4" COMMENT="" />
    <EXPORT ORDINAL="178" NAME="??0DOMProcessingInstruction@@IAE@XZ" PURGE="0" COMMENT="" />
    <EXPORT ORDINAL="179" NAME="??0DOMProcessingInstructionImpl@@QAE@ABV0@_N@Z" PURGE="8" COMMENT="" />
    <EXPORT ORDINAL="180" NAME="??0DOMProcessingInstructionImpl@@QAE@PAVDOMDocument@@PBG1@Z" PURGE="12" COMMENT="" />
    <EXPORT ORDINAL="181" NAME="??0DOMRange@@IAE@ABV0@@Z" PURGE="4" COMMENT="" />
    <EXPORT ORDINAL="182" NAME="??0DOMRange@@IAE@XZ" PURGE="0" COMMENT="" />
    <EXPORT ORDINAL="183" NAME="??0DOMRangeException@@QAE@ABV0@@Z" PURGE="4" COMMENT="" />
    <EXPORT ORDINAL="184" NAME="??0DOMRangeException@@QAE@W4RangeExceptionCode@0@PBG@Z" PURGE="8" COMMENT="" />
    <EXPORT ORDINAL="185" NAME="??0DOMRangeException@@QAE@XZ" PURGE="0" COMMENT="" />
    <EXPORT ORDINAL="186" NAME="??0DOMRangeImpl@@QAE@ABV0@@Z" PURGE="4" COMMENT="" />
    <EXPORT ORDINAL="187" NAME="??0DOMRangeImpl@@QAE@PAVDOMDocument@@@Z" PURGE="4" COMMENT="" />
    <EXPORT ORDINAL="188" NAME="??0DOMString@@QAE@ABV0@@Z" PURGE="4" COMMENT="" />
    <EXPORT ORDINAL="189" NAME="??0DOMString@@QAE@H@Z" PURGE="4" COMMENT="" />
    <EXPORT ORDINAL="190" NAME="??0DOMString@@QAE@PBD@Z" PURGE="4" COMMENT="" />
    <EXPORT ORDINAL="191" NAME="??0DOMString@@QAE@PBG@Z" PURGE="4" COMMENT="" />
    <EXPORT ORDINAL="192" NAME="??0DOMString@@QAE@PBGI@Z" PURGE="8" COMMENT="" />
    <EXPORT ORDINAL="193" NAME="??0DOMString@@QAE@XZ" PURGE="0" COMMENT="" />
    <EXPORT ORDINAL="194" NAME="??0DOMText@@IAE@ABV0@@Z" PURGE="4" COMMENT="" />
    <EXPORT ORDINAL="195" NAME="??0DOMText@@IAE@XZ" PURGE="0" COMMENT="" />
    <EXPORT ORDINAL="196" NAME="??0DOMTextImpl@@QAE@ABV0@_N@Z" PURGE="8" COMMENT="" />
    <EXPORT ORDINAL="197" NAME="??0DOMTextImpl@@QAE@PAVDOMDocument@@PBG@Z" PURGE="8" COMMENT="" />
    <EXPORT ORDINAL="198" NAME="??0DOMTreeWalker@@IAE@ABV0@@Z" PURGE="4" COMMENT="" />
    <EXPORT ORDINAL="199" NAME="??0DOMTreeWalker@@IAE@XZ" PURGE="0" COMMENT="" />
    <EXPORT ORDINAL="200" NAME="??0DOMTreeWalkerImpl@@QAE@ABV0@@Z" PURGE="4" COMMENT="" />
    <EXPORT ORDINAL="201" NAME="??0DOMTreeWalkerImpl@@QAE@PAVDOMNode@@KPAVDOMNodeFilter@@_N@Z" PURGE="16" COMMENT="" />
    <EXPORT ORDINAL="202" NAME="??0DOMUserDataHandler@@IAE@ABV0@@Z" PURGE="4" COMMENT="" />
    <EXPORT ORDINAL="203" NAME="??0DOMUserDataHandler@@IAE@XZ" PURGE="0" COMMENT="" />
    <EXPORT ORDINAL="204" NAME="??0DOMWriter@@IAE@ABV0@@Z" PURGE="4" COMMENT="" />
    <EXPORT ORDINAL="205" NAME="??0DOMWriter@@IAE@XZ" PURGE="0" COMMENT="" />
    <EXPORT ORDINAL="206" NAME="??0DOMWriterFilter@@IAE@ABV0@@Z" PURGE="4" COMMENT="" />
    <EXPORT ORDINAL="207" NAME="??0DOMWriterFilter@@IAE@XZ" PURGE="0" COMMENT="" />
    <EXPORT ORDINAL="208" NAME="??0DOMWriterImpl@@QAE@XZ" PURGE="0" COMMENT="" />
    <EXPORT ORDINAL="209" NAME="??0DOM_Attr@@IAE@PAVAttrImpl@@@Z" PURGE="4" COMMENT="" />
    <EXPORT ORDINAL="210" NAME="??0DOM_Attr@@QAE@ABV0@@Z" PURGE="4" COMMENT="" />
    <EXPORT ORDINAL="211" NAME="??0DOM_Attr@@QAE@XZ" PURGE="0" COMMENT="" />
    <EXPORT ORDINAL="212" NAME="??0DOM_CDATASection@@IAE@PAVCDATASectionImpl@@@Z" PURGE="4" COMMENT="" />
    <EXPORT ORDINAL="213" NAME="??0DOM_CDATASection@@QAE@ABV0@@Z" PURGE="4" COMMENT="" />
    <EXPORT ORDINAL="214" NAME="??0DOM_CDATASection@@QAE@XZ" PURGE="0" COMMENT="" />
    <EXPORT ORDINAL="215" NAME="??0DOM_CharacterData@@IAE@PAVCharacterDataImpl@@@Z" PURGE="4" COMMENT="" />
    <EXPORT ORDINAL="216" NAME="??0DOM_CharacterData@@QAE@ABV0@@Z" PURGE="4" COMMENT="" />
    <EXPORT ORDINAL="217" NAME="??0DOM_CharacterData@@QAE@XZ" PURGE="0" COMMENT="" />
    <EXPORT ORDINAL="218" NAME="??0DOM_Comment@@IAE@PAVCommentImpl@@@Z" PURGE="4" COMMENT="" />
    <EXPORT ORDINAL="219" NAME="??0DOM_Comment@@QAE@ABV0@@Z" PURGE="4" COMMENT="" />
    <EXPORT ORDINAL="220" NAME="??0DOM_Comment@@QAE@XZ" PURGE="0" COMMENT="" />
    <EXPORT ORDINAL="221" NAME="??0DOM_DOMException@@QAE@ABV0@@Z" PURGE="4" COMMENT="" />
    <EXPORT ORDINAL="222" NAME="??0DOM_DOMException@@QAE@FABVDOMString@@@Z" PURGE="8" COMMENT="" />
    <EXPORT ORDINAL="223" NAME="??0DOM_DOMException@@QAE@XZ" PURGE="0" COMMENT="" />
    <EXPORT ORDINAL="224" NAME="??0DOM_DOMImplementation@@AAE@ABV0@@Z" PURGE="4" COMMENT="" />
    <EXPORT ORDINAL="225" NAME="??0DOM_DOMImplementation@@QAE@XZ" PURGE="0" COMMENT="" />
    <EXPORT ORDINAL="226" NAME="??0DOM_Document@@IAE@PAVDocumentImpl@@@Z" PURGE="4" COMMENT="" />
    <EXPORT ORDINAL="227" NAME="??0DOM_Document@@QAE@ABV0@@Z" PURGE="4" COMMENT="" />
    <EXPORT ORDINAL="228" NAME="??0DOM_Document@@QAE@XZ" PURGE="0" COMMENT="" />
    <EXPORT ORDINAL="229" NAME="??0DOM_DocumentFragment@@IAE@PAVDocumentFragmentImpl@@@Z" PURGE="4" COMMENT="" />
    <EXPORT ORDINAL="230" NAME="??0DOM_DocumentFragment@@QAE@ABV0@@Z" PURGE="4" COMMENT="" />
    <EXPORT ORDINAL="231" NAME="??0DOM_DocumentFragment@@QAE@XZ" PURGE="0" COMMENT="" />
    <EXPORT ORDINAL="232" NAME="??0DOM_DocumentType@@IAE@PAVDocumentTypeImpl@@@Z" PURGE="4" COMMENT="" />
    <EXPORT ORDINAL="233" NAME="??0DOM_DocumentType@@QAE@ABV0@@Z" PURGE="4" COMMENT="" />
    <EXPORT ORDINAL="234" NAME="??0DOM_DocumentType@@QAE@H@Z" PURGE="4" COMMENT="" />
    <EXPORT ORDINAL="235" NAME="??0DOM_DocumentType@@QAE@XZ" PURGE="0" COMMENT="" />
    <EXPORT ORDINAL="236" NAME="??0DOM_Element@@IAE@PAVElementImpl@@@Z" PURGE="4" COMMENT="" />
    <EXPORT ORDINAL="237" NAME="??0DOM_Element@@QAE@ABV0@@Z" PURGE="4" COMMENT="" />
    <EXPORT ORDINAL="238" NAME="??0DOM_Element@@QAE@XZ" PURGE="0" COMMENT="" />
    <EXPORT ORDINAL="239" NAME="??0DOM_Entity@@IAE@PAVEntityImpl@@@Z" PURGE="4" COMMENT="" />
    <EXPORT ORDINAL="240" NAME="??0DOM_Entity@@QAE@ABV0@@Z" PURGE="4" COMMENT="" />
    <EXPORT ORDINAL="241" NAME="??0DOM_Entity@@QAE@XZ" PURGE="0" COMMENT="" />
    <EXPORT ORDINAL="242" NAME="??0DOM_EntityReference@@IAE@PAVEntityReferenceImpl@@@Z" PURGE="4" COMMENT="" />
    <EXPORT ORDINAL="243" NAME="??0DOM_EntityReference@@QAE@ABV0@@Z" PURGE="4" COMMENT="" />
    <EXPORT ORDINAL="244" NAME="??0DOM_EntityReference@@QAE@XZ" PURGE="0" COMMENT="" />
    <EXPORT ORDINAL="245" NAME="??0DOM_NamedNodeMap@@IAE@PAVNamedNodeMapImpl@@@Z" PURGE="4" COMMENT="" />
    <EXPORT ORDINAL="246" NAME="??0DOM_NamedNodeMap@@IAE@PAVNodeImpl@@@Z" PURGE="4" COMMENT="" />
    <EXPORT ORDINAL="247" NAME="??0DOM_NamedNodeMap@@QAE@ABV0@@Z" PURGE="4" COMMENT="" />
    <EXPORT ORDINAL="248" NAME="??0DOM_NamedNodeMap@@QAE@XZ" PURGE="0" COMMENT="" />
    <EXPORT ORDINAL="249" NAME="??0DOM_Node@@IAE@PAVNodeImpl@@@Z" PURGE="4" COMMENT="" />
    <EXPORT ORDINAL="250" NAME="??0DOM_Node@@QAE@ABV0@@Z" PURGE="4" COMMENT="" />
    <EXPORT ORDINAL="251" NAME="??0DOM_Node@@QAE@XZ" PURGE="0" COMMENT="" />
    <EXPORT ORDINAL="252" NAME="??0DOM_NodeFilter@@QAE@XZ" PURGE="0" COMMENT="" />
    <EXPORT ORDINAL="253" NAME="??0DOM_NodeIterator@@IAE@PAVNodeIteratorImpl@@@Z" PURGE="4" COMMENT="" />
    <EXPORT ORDINAL="254" NAME="??0DOM_NodeIterator@@QAE@ABV0@@Z" PURGE="4" COMMENT="" />
    <EXPORT ORDINAL="255" NAME="??0DOM_NodeIterator@@QAE@XZ" PURGE="0" COMMENT="" />
    <EXPORT ORDINAL="256" NAME="??0DOM_NodeList@@IAE@PAVNodeListImpl@@@Z" PURGE="4" COMMENT="" />
    <EXPORT ORDINAL="257" NAME="??0DOM_NodeList@@QAE@ABV0@@Z" PURGE="4" COMMENT="" />
    <EXPORT ORDINAL="258" NAME="??0DOM_NodeList@@QAE@XZ" PURGE="0" COMMENT="" />
    <EXPORT ORDINAL="259" NAME="??0DOM_Notation@@IAE@PAVNotationImpl@@@Z" PURGE="4" COMMENT="" />
    <EXPORT ORDINAL="260" NAME="??0DOM_Notation@@QAE@ABV0@@Z" PURGE="4" COMMENT="" />
    <EXPORT ORDINAL="261" NAME="??0DOM_Notation@@QAE@XZ" PURGE="0" COMMENT="" />
    <EXPORT ORDINAL="262" NAME="??0DOM_ProcessingInstruction@@IAE@PAVProcessingInstructionImpl@@@Z" PURGE="4" COMMENT="" />
    <EXPORT ORDINAL="263" NAME="??0DOM_ProcessingInstruction@@QAE@ABV0@@Z" PURGE="4" COMMENT="" />
    <EXPORT ORDINAL="264" NAME="??0DOM_ProcessingInstruction@@QAE@XZ" PURGE="0" COMMENT="" />
    <EXPORT ORDINAL="265" NAME="??0DOM_Range@@IAE@PAVRangeImpl@@@Z" PURGE="4" COMMENT="" />
    <EXPORT ORDINAL="266" NAME="??0DOM_Range@@QAE@ABV0@@Z" PURGE="4" COMMENT="" />
    <EXPORT ORDINAL="267" NAME="??0DOM_Range@@QAE@XZ" PURGE="0" COMMENT="" />
    <EXPORT ORDINAL="268" NAME="??0DOM_RangeException@@QAE@ABV0@@Z" PURGE="4" COMMENT="" />
    <EXPORT ORDINAL="269" NAME="??0DOM_RangeException@@QAE@W4RangeExceptionCode@0@ABVDOMString@@@Z" PURGE="8" COMMENT="" />
    <EXPORT ORDINAL="270" NAME="??0DOM_RangeException@@QAE@XZ" PURGE="0" COMMENT="" />
    <EXPORT ORDINAL="271" NAME="??0DOM_Text@@IAE@PAVTextImpl@@@Z" PURGE="4" COMMENT="" />
    <EXPORT ORDINAL="272" NAME="??0DOM_Text@@QAE@ABV0@@Z" PURGE="4" COMMENT="" />
    <EXPORT ORDINAL="273" NAME="??0DOM_Text@@QAE@XZ" PURGE="0" COMMENT="" />
    <EXPORT ORDINAL="274" NAME="??0DOM_TreeWalker@@IAE@PAVTreeWalkerImpl@@@Z" PURGE="4" COMMENT="" />
    <EXPORT ORDINAL="275" NAME="??0DOM_TreeWalker@@QAE@ABV0@@Z" PURGE="4" COMMENT="" />
    <EXPORT ORDINAL="276" NAME="??0DOM_TreeWalker@@QAE@XZ" PURGE="0" COMMENT="" />
    <EXPORT ORDINAL="277" NAME="??0DOM_XMLDecl@@IAE@PAVXMLDeclImpl@@@Z" PURGE="4" COMMENT="" />
    <EXPORT ORDINAL="278" NAME="??0DOM_XMLDecl@@QAE@ABV0@@Z" PURGE="4" COMMENT="" />
    <EXPORT ORDINAL="279" NAME="??0DOM_XMLDecl@@QAE@XZ" PURGE="0" COMMENT="" />
    <EXPORT ORDINAL="280" NAME="??0DTDAttDef@@QAE@QBG0W4AttTypes@XMLAttDef@@W4DefAttTypes@2@0@Z" PURGE="20" COMMENT="" />
    <EXPORT ORDINAL="281" NAME="??0DTDAttDef@@QAE@QBGW4AttTypes@XMLAttDef@@W4DefAttTypes@2@@Z" PURGE="12" COMMENT="" />
    <EXPORT ORDINAL="282" NAME="??0DTDAttDef@@QAE@XZ" PURGE="0" COMMENT="" />
    <EXPORT ORDINAL="283" NAME="??0DTDElementDecl@@QAE@QAVQName@@W4ModelTypes@0@@Z" PURGE="8" COMMENT="" />
    <EXPORT ORDINAL="284" NAME="??0DTDElementDecl@@QAE@QBGIW4ModelTypes@0@@Z" PURGE="12" COMMENT="" />
    <EXPORT ORDINAL="285" NAME="??0DTDElementDecl@@QAE@XZ" PURGE="0" COMMENT="" />
    <EXPORT ORDINAL="286" NAME="??0DTDEntityDecl@@QAE@QBG0_N@Z" PURGE="12" COMMENT="" />
    <EXPORT ORDINAL="287" NAME="??0DTDEntityDecl@@QAE@QBGG_N1@Z" PURGE="16" COMMENT="" />
    <EXPORT ORDINAL="288" NAME="??0DTDEntityDecl@@QAE@QBG_N@Z" PURGE="8" COMMENT="" />
    <EXPORT ORDINAL="289" NAME="??0DTDEntityDecl@@QAE@XZ" PURGE="0" COMMENT="" />
    <EXPORT ORDINAL="290" NAME="??0DTDGrammar@@QAE@ABV0@@Z" PURGE="4" COMMENT="" />
    <EXPORT ORDINAL="291" NAME="??0DTDGrammar@@QAE@XZ" PURGE="0" COMMENT="" />
    <EXPORT ORDINAL="292" NAME="??0DTDHandler@@QAE@XZ" PURGE="0" COMMENT="" />
    <EXPORT ORDINAL="293" NAME="??0DTDScanner@@QAE@ABV0@@Z" PURGE="4" COMMENT="" />
    <EXPORT ORDINAL="294" NAME="??0DTDScanner@@QAE@PAVDTDGrammar@@QAVDocTypeHandler@@@Z" PURGE="8" COMMENT="" />
    <EXPORT ORDINAL="295" NAME="??0DTDValidator@@QAE@QAVXMLErrorReporter@@@Z" PURGE="4" COMMENT="" />
    <EXPORT ORDINAL="296" NAME="??0DatatypeValidator@@IAE@QAV0@QAV?$RefHashTableOf@VKVStringPair@@@@HW4ValidatorType@0@@Z" PURGE="16" COMMENT="" />
    <EXPORT ORDINAL="297" NAME="??0DatatypeValidator@@QAE@ABV0@@Z" PURGE="4" COMMENT="" />
    <EXPORT ORDINAL="298" NAME="??0DatatypeValidatorFactory@@QAE@XZ" PURGE="0" COMMENT="" />
    <EXPORT ORDINAL="299" NAME="??0DateDatatypeValidator@@QAE@ABV0@@Z" PURGE="4" COMMENT="" />
    <EXPORT ORDINAL="300" NAME="??0DateDatatypeValidator@@QAE@QAVDatatypeValidator@@QAV?$RefHashTableOf@VKVStringPair@@@@QAV?$RefVectorOf@G@@H@Z" PURGE="16" COMMENT="" />
    <EXPORT ORDINAL="301" NAME="??0DateDatatypeValidator@@QAE@XZ" PURGE="0" COMMENT="" />
    <EXPORT ORDINAL="302" NAME="??0DateTimeDatatypeValidator@@QAE@ABV0@@Z" PURGE="4" COMMENT="" />
    <EXPORT ORDINAL="303" NAME="??0DateTimeDatatypeValidator@@QAE@QAVDatatypeValidator@@QAV?$RefHashTableOf@VKVStringPair@@@@QAV?$RefVectorOf@G@@H@Z" PURGE="16" COMMENT="" />
    <EXPORT ORDINAL="304" NAME="??0DateTimeDatatypeValidator@@QAE@XZ" PURGE="0" COMMENT="" />
    <EXPORT ORDINAL="305" NAME="??0DateTimeValidator@@IAE@QAVDatatypeValidator@@QAV?$RefHashTableOf@VKVStringPair@@@@HW4ValidatorType@1@@Z" PURGE="16" COMMENT="" />
    <EXPORT ORDINAL="306" NAME="??0DateTimeValidator@@QAE@ABV0@@Z" PURGE="4" COMMENT="" />
    <EXPORT ORDINAL="307" NAME="??0DayDatatypeValidator@@QAE@ABV0@@Z" PURGE="4" COMMENT="" />
    <EXPORT ORDINAL="308" NAME="??0DayDatatypeValidator@@QAE@QAVDatatypeValidator@@QAV?$RefHashTableOf@VKVStringPair@@@@QAV?$RefVectorOf@G@@H@Z" PURGE="16" COMMENT="" />
    <EXPORT ORDINAL="309" NAME="??0DayDatatypeValidator@@QAE@XZ" PURGE="0" COMMENT="" />
    <EXPORT ORDINAL="310" NAME="??0DecimalDatatypeValidator@@IAE@QAVDatatypeValidator@@QAV?$RefHashTableOf@VKVStringPair@@@@HW4ValidatorType@1@@Z" PURGE="16" COMMENT="" />
    <EXPORT ORDINAL="311" NAME="??0DecimalDatatypeValidator@@QAE@ABV0@@Z" PURGE="4" COMMENT="" />
    <EXPORT ORDINAL="312" NAME="??0DecimalDatatypeValidator@@QAE@QAVDatatypeValidator@@QAV?$RefHashTableOf@VKVStringPair@@@@QAV?$RefVectorOf@G@@H@Z" PURGE="16" COMMENT="" />
    <EXPORT ORDINAL="313" NAME="??0DecimalDatatypeValidator@@QAE@XZ" PURGE="0" COMMENT="" />
    <EXPORT ORDINAL="314" NAME="??0DeclHandler@@QAE@XZ" PURGE="0" COMMENT="" />
    <EXPORT ORDINAL="315" NAME="??0DeepNodeListImpl@@QAE@ABV0@@Z" PURGE="4" COMMENT="" />
    <EXPORT ORDINAL="316" NAME="??0DeepNodeListImpl@@QAE@PAVNodeImpl@@ABVDOMString@@1@Z" PURGE="12" COMMENT="" />
    <EXPORT ORDINAL="317" NAME="??0DeepNodeListImpl@@QAE@PAVNodeImpl@@ABVDOMString@@@Z" PURGE="8" COMMENT="" />
    <EXPORT ORDINAL="318" NAME="??0DefaultHandler@@QAE@XZ" PURGE="0" COMMENT="" />
    <EXPORT ORDINAL="319" NAME="??0DocTypeHandler@@QAE@XZ" PURGE="0" COMMENT="" />
    <EXPORT ORDINAL="320" NAME="??0DocumentFragmentImpl@@AAE@ABV0@_N@Z" PURGE="8" COMMENT="" />
    <EXPORT ORDINAL="321" NAME="??0DocumentFragmentImpl@@IAE@PAVDocumentImpl@@@Z" PURGE="4" COMMENT="" />
    <EXPORT ORDINAL="322" NAME="??0DocumentFragmentImpl@@QAE@ABV0@@Z" PURGE="4" COMMENT="" />
    <EXPORT ORDINAL="323" NAME="??0DocumentHandler@@QAE@XZ" PURGE="0" COMMENT="" />
    <EXPORT ORDINAL="324" NAME="??0DocumentImpl@@QAE@ABV0@@Z" PURGE="4" COMMENT="" />
    <EXPORT ORDINAL="325" NAME="??0DocumentImpl@@QAE@ABVDOMString@@0PAVDocumentTypeImpl@@@Z" PURGE="12" COMMENT="" />
    <EXPORT ORDINAL="326" NAME="??0DocumentImpl@@QAE@XZ" PURGE="0" COMMENT="" />
    <EXPORT ORDINAL="327" NAME="??0DocumentTypeImpl@@QAE@ABV0@_N@Z" PURGE="8" COMMENT="" />
    <EXPORT ORDINAL="328" NAME="??0DocumentTypeImpl@@QAE@PAVDocumentImpl@@ABVDOMString@@11@Z" PURGE="16" COMMENT="" />
    <EXPORT ORDINAL="329" NAME="??0DocumentTypeImpl@@QAE@PAVDocumentImpl@@ABVDOMString@@@Z" PURGE="8" COMMENT="" />
    <EXPORT ORDINAL="330" NAME="??0DomMemDebug@@QAE@XZ" PURGE="0" COMMENT="" />
    <EXPORT ORDINAL="331" NAME="??0DoubleDatatypeValidator@@IAE@QAVDatatypeValidator@@QAV?$RefHashTableOf@VKVStringPair@@@@HW4ValidatorType@1@@Z" PURGE="16" COMMENT="" />
    <EXPORT ORDINAL="332" NAME="??0DoubleDatatypeValidator@@QAE@ABV0@@Z" PURGE="4" COMMENT="" />
    <EXPORT ORDINAL="333" NAME="??0DoubleDatatypeValidator@@QAE@QAVDatatypeValidator@@QAV?$RefHashTableOf@VKVStringPair@@@@QAV?$RefVectorOf@G@@H@Z" PURGE="16" COMMENT="" />
    <EXPORT ORDINAL="334" NAME="??0DoubleDatatypeValidator@@QAE@XZ" PURGE="0" COMMENT="" />
    <EXPORT ORDINAL="335" NAME="??0DurationDatatypeValidator@@QAE@ABV0@@Z" PURGE="4" COMMENT="" />
    <EXPORT ORDINAL="336" NAME="??0DurationDatatypeValidator@@QAE@QAVDatatypeValidator@@QAV?$RefHashTableOf@VKVStringPair@@@@QAV?$RefVectorOf@G@@H@Z" PURGE="16" COMMENT="" />
    <EXPORT ORDINAL="337" NAME="??0DurationDatatypeValidator@@QAE@XZ" PURGE="0" COMMENT="" />
    <EXPORT ORDINAL="338" NAME="??0ENTITYDatatypeValidator@@QAE@ABV0@@Z" PURGE="4" COMMENT="" />
    <EXPORT ORDINAL="339" NAME="??0ENTITYDatatypeValidator@@QAE@QAVDatatypeValidator@@QAV?$RefHashTableOf@VKVStringPair@@@@QAV?$RefVectorOf@G@@H@Z" PURGE="16" COMMENT="" />
    <EXPORT ORDINAL="340" NAME="??0ENTITYDatatypeValidator@@QAE@XZ" PURGE="0" COMMENT="" />
    <EXPORT ORDINAL="341" NAME="??0ElemStack@@QAE@XZ" PURGE="0" COMMENT="" />
    <EXPORT ORDINAL="342" NAME="??0ElementDefinitionImpl@@QAE@ABV0@_N@Z" PURGE="8" COMMENT="" />
    <EXPORT ORDINAL="343" NAME="??0ElementDefinitionImpl@@QAE@PAVDocumentImpl@@ABVDOMString@@@Z" PURGE="8" COMMENT="" />
    <EXPORT ORDINAL="344" NAME="??0ElementImpl@@QAE@ABV0@_N@Z" PURGE="8" COMMENT="" />
    <EXPORT ORDINAL="345" NAME="??0ElementImpl@@QAE@PAVDocumentImpl@@ABVDOMString@@@Z" PURGE="8" COMMENT="" />
    <EXPORT ORDINAL="346" NAME="??0ElementNSImpl@@QAE@ABV0@_N@Z" PURGE="8" COMMENT="" />
    <EXPORT ORDINAL="347" NAME="??0ElementNSImpl@@QAE@PAVDocumentImpl@@ABVDOMString@@1@Z" PURGE="12" COMMENT="" />
    <EXPORT ORDINAL="348" NAME="??0ElementNSImpl@@QAE@PAVDocumentImpl@@ABVDOMString@@@Z" PURGE="8" COMMENT="" />
    <EXPORT ORDINAL="349" NAME="??0EmptyStackException@@QAE@ABV0@@Z" PURGE="4" COMMENT="" />
    <EXPORT ORDINAL="350" NAME="??0EmptyStackException@@QAE@QBDIW4Codes@XMLExcepts@@0000@Z" PURGE="28" COMMENT="" />
    <EXPORT ORDINAL="351" NAME="??0EmptyStackException@@QAE@QBDIW4Codes@XMLExcepts@@@Z" PURGE="12" COMMENT="" />
    <EXPORT ORDINAL="352" NAME="??0EmptyStackException@@QAE@QBDIW4Codes@XMLExcepts@@QBG222@Z" PURGE="28" COMMENT="" />
    <EXPORT ORDINAL="353" NAME="??0EncodingValidator@@AAE@XZ" PURGE="0" COMMENT="" />
    <EXPORT ORDINAL="354" NAME="??0EndOfEntityException@@QAE@ABV0@@Z" PURGE="4" COMMENT="" />
    <EXPORT ORDINAL="355" NAME="??0EndOfEntityException@@QAE@PAVXMLEntityDecl@@I@Z" PURGE="8" COMMENT="" />
    <EXPORT ORDINAL="356" NAME="??0EntityImpl@@QAE@ABV0@_N@Z" PURGE="8" COMMENT="" />
    <EXPORT ORDINAL="357" NAME="??0EntityImpl@@QAE@PAVDocumentImpl@@ABVDOMString@@@Z" PURGE="8" COMMENT="" />
    <EXPORT ORDINAL="358" NAME="??0EntityReferenceImpl@@QAE@ABV0@_N@Z" PURGE="8" COMMENT="" />
    <EXPORT ORDINAL="359" NAME="??0EntityReferenceImpl@@QAE@PAVDocumentImpl@@ABVDOMString@@@Z" PURGE="8" COMMENT="" />
    <EXPORT ORDINAL="360" NAME="??0EntityResolver@@QAE@XZ" PURGE="0" COMMENT="" />
    <EXPORT ORDINAL="361" NAME="??0ErrorHandler@@QAE@XZ" PURGE="0" COMMENT="" />
    <EXPORT ORDINAL="362" NAME="??0FieldActivator@@QAE@ABV0@@Z" PURGE="4" COMMENT="" />
    <EXPORT ORDINAL="363" NAME="??0FieldActivator@@QAE@QAVValueStoreCache@@QAVXPathMatcherStack@@@Z" PURGE="8" COMMENT="" />
    <EXPORT ORDINAL="364" NAME="??0FieldMatcher@@AAE@QAVXercesXPath@@QAVIC_Field@@QAVValueStore@@@Z" PURGE="12" COMMENT="" />
    <EXPORT ORDINAL="365" NAME="??0FieldValueMap@@QAE@ABV0@@Z" PURGE="4" COMMENT="" />
    <EXPORT ORDINAL="366" NAME="??0FieldValueMap@@QAE@XZ" PURGE="0" COMMENT="" />
    <EXPORT ORDINAL="367" NAME="??0FloatDatatypeValidator@@IAE@QAVDatatypeValidator@@QAV?$RefHashTableOf@VKVStringPair@@@@HW4ValidatorType@1@@Z" PURGE="16" COMMENT="" />
    <EXPORT ORDINAL="368" NAME="??0FloatDatatypeValidator@@QAE@ABV0@@Z" PURGE="4" COMMENT="" />
    <EXPORT ORDINAL="369" NAME="??0FloatDatatypeValidator@@QAE@QAVDatatypeValidator@@QAV?$RefHashTableOf@VKVStringPair@@@@QAV?$RefVectorOf@G@@H@Z" PURGE="16" COMMENT="" />
    <EXPORT ORDINAL="370" NAME="??0FloatDatatypeValidator@@QAE@XZ" PURGE="0" COMMENT="" />
    <EXPORT ORDINAL="371" NAME="??0GeneralAttributeCheck@@QAE@XZ" PURGE="0" COMMENT="" />
    <EXPORT ORDINAL="372" NAME="??0Grammar@@IAE@XZ" PURGE="0" COMMENT="" />
    <EXPORT ORDINAL="373" NAME="??0Grammar@@QAE@ABV0@@Z" PURGE="4" COMMENT="" />
    <EXPORT ORDINAL="374" NAME="??0HandlerBase@@QAE@XZ" PURGE="0" COMMENT="" />
    <EXPORT ORDINAL="375" NAME="??0HashBase@@QAE@ABV0@@Z" PURGE="4" COMMENT="" />
    <EXPORT ORDINAL="376" NAME="??0HashBase@@QAE@XZ" PURGE="0" COMMENT="" />
    <EXPORT ORDINAL="377" NAME="??0HashCMStateSet@@QAE@ABV0@@Z" PURGE="4" COMMENT="" />
    <EXPORT ORDINAL="378" NAME="??0HashCMStateSet@@QAE@XZ" PURGE="0" COMMENT="" />
    <EXPORT ORDINAL="379" NAME="??0HashPtr@@QAE@ABV0@@Z" PURGE="4" COMMENT="" />
    <EXPORT ORDINAL="380" NAME="??0HashPtr@@QAE@XZ" PURGE="0" COMMENT="" />
    <EXPORT ORDINAL="381" NAME="??0HashXMLCh@@QAE@ABV0@@Z" PURGE="4" COMMENT="" />
    <EXPORT ORDINAL="382" NAME="??0HashXMLCh@@QAE@XZ" PURGE="0" COMMENT="" />
    <EXPORT ORDINAL="383" NAME="??0HexBinaryDatatypeValidator@@QAE@ABV0@@Z" PURGE="4" COMMENT="" />
    <EXPORT ORDINAL="384" NAME="??0HexBinaryDatatypeValidator@@QAE@QAVDatatypeValidator@@QAV?$RefHashTableOf@VKVStringPair@@@@QAV?$RefVectorOf@G@@H@Z" PURGE="16" COMMENT="" />
    <EXPORT ORDINAL="385" NAME="??0HexBinaryDatatypeValidator@@QAE@XZ" PURGE="0" COMMENT="" />
    <EXPORT ORDINAL="386" NAME="??0IC_Field@@QAE@QAVXercesXPath@@QAVIdentityConstraint@@@Z" PURGE="8" COMMENT="" />
    <EXPORT ORDINAL="387" NAME="??0IC_Key@@QAE@QBG0@Z" PURGE="8" COMMENT="" />
    <EXPORT ORDINAL="388" NAME="??0IC_KeyRef@@QAE@QBG0QAVIdentityConstraint@@@Z" PURGE="12" COMMENT="" />
    <EXPORT ORDINAL="389" NAME="??0IC_Selector@@QAE@QAVXercesXPath@@QAVIdentityConstraint@@@Z" PURGE="8" COMMENT="" />
    <EXPORT ORDINAL="390" NAME="??0IC_Unique@@QAE@QBG0@Z" PURGE="8" COMMENT="" />
    <EXPORT ORDINAL="391" NAME="??0IDDatatypeValidator@@IAE@QAVDatatypeValidator@@QAV?$RefHashTableOf@VKVStringPair@@@@HW4ValidatorType@1@@Z" PURGE="16" COMMENT="" />
    <EXPORT ORDINAL="392" NAME="??0IDDatatypeValidator@@QAE@ABV0@@Z" PURGE="4" COMMENT="" />
    <EXPORT ORDINAL="393" NAME="??0IDDatatypeValidator@@QAE@QAVDatatypeValidator@@QAV?$RefHashTableOf@VKVStringPair@@@@QAV?$RefVectorOf@G@@H@Z" PURGE="16" COMMENT="" />
    <EXPORT ORDINAL="394" NAME="??0IDDatatypeValidator@@QAE@XZ" PURGE="0" COMMENT="" />
    <EXPORT ORDINAL="395" NAME="??0IDREFDatatypeValidator@@IAE@QAVDatatypeValidator@@QAV?$RefHashTableOf@VKVStringPair@@@@HW4ValidatorType@1@@Z" PURGE="16" COMMENT="" />
    <EXPORT ORDINAL="396" NAME="??0IDREFDatatypeValidator@@QAE@ABV0@@Z" PURGE="4" COMMENT="" />
    <EXPORT ORDINAL="397" NAME="??0IDREFDatatypeValidator@@QAE@QAVDatatypeValidator@@QAV?$RefHashTableOf@VKVStringPair@@@@QAV?$RefVectorOf@G@@H@Z" PURGE="16" COMMENT="" />
    <EXPORT ORDINAL="398" NAME="??0IDREFDatatypeValidator@@QAE@XZ" PURGE="0" COMMENT="" />
    <EXPORT ORDINAL="399" NAME="??0IOException@@QAE@ABV0@@Z" PURGE="4" COMMENT="" />
    <EXPORT ORDINAL="400" NAME="??0IOException@@QAE@QBDIW4Codes@XMLExcepts@@0000@Z" PURGE="28" COMMENT="" />
    <EXPORT ORDINAL="401" NAME="??0IOException@@QAE@QBDIW4Codes@XMLExcepts@@@Z" PURGE="12" COMMENT="" />
    <EXPORT ORDINAL="402" NAME="??0IOException@@QAE@QBDIW4Codes@XMLExcepts@@QBG222@Z" PURGE="28" COMMENT="" />
    <EXPORT ORDINAL="403" NAME="??0IdentityConstraint@@IAE@QBG0@Z" PURGE="8" COMMENT="" />
    <EXPORT ORDINAL="404" NAME="??0IllegalArgumentException@@QAE@ABV0@@Z" PURGE="4" COMMENT="" />
    <EXPORT ORDINAL="405" NAME="??0IllegalArgumentException@@QAE@QBDIW4Codes@XMLExcepts@@0000@Z" PURGE="28" COMMENT="" />
    <EXPORT ORDINAL="406" NAME="??0IllegalArgumentException@@QAE@QBDIW4Codes@XMLExcepts@@@Z" PURGE="12" COMMENT="" />
    <EXPORT ORDINAL="407" NAME="??0IllegalArgumentException@@QAE@QBDIW4Codes@XMLExcepts@@QBG222@Z" PURGE="28" COMMENT="" />
    <EXPORT ORDINAL="408" NAME="??0InputSource@@IAE@QBD0@Z" PURGE="8" COMMENT="" />
    <EXPORT ORDINAL="409" NAME="??0InputSource@@IAE@QBD@Z" PURGE="4" COMMENT="" />
    <EXPORT ORDINAL="410" NAME="??0InputSource@@IAE@QBG0@Z" PURGE="8" COMMENT="" />
    <EXPORT ORDINAL="411" NAME="??0InputSource@@IAE@QBG@Z" PURGE="4" COMMENT="" />
    <EXPORT ORDINAL="412" NAME="??0InputSource@@IAE@XZ" PURGE="0" COMMENT="" />
    <EXPORT ORDINAL="413" NAME="??0InvalidCastException@@QAE@ABV0@@Z" PURGE="4" COMMENT="" />
    <EXPORT ORDINAL="414" NAME="??0InvalidCastException@@QAE@QBDIW4Codes@XMLExcepts@@0000@Z" PURGE="28" COMMENT="" />
    <EXPORT ORDINAL="415" NAME="??0InvalidCastException@@QAE@QBDIW4Codes@XMLExcepts@@@Z" PURGE="12" COMMENT="" />
    <EXPORT ORDINAL="416" NAME="??0InvalidCastException@@QAE@QBDIW4Codes@XMLExcepts@@QBG222@Z" PURGE="28" COMMENT="" />
    <EXPORT ORDINAL="417" NAME="??0InvalidDatatypeFacetException@@QAE@ABV0@@Z" PURGE="4" COMMENT="" />
    <EXPORT ORDINAL="418" NAME="??0InvalidDatatypeFacetException@@QAE@QBDIW4Codes@XMLExcepts@@0000@Z" PURGE="28" COMMENT="" />
    <EXPORT ORDINAL="419" NAME="??0InvalidDatatypeFacetException@@QAE@QBDIW4Codes@XMLExcepts@@@Z" PURGE="12" COMMENT="" />
    <EXPORT ORDINAL="420" NAME="??0InvalidDatatypeFacetException@@QAE@QBDIW4Codes@XMLExcepts@@QBG222@Z" PURGE="28" COMMENT="" />
    <EXPORT ORDINAL="421" NAME="??0InvalidDatatypeValueException@@QAE@ABV0@@Z" PURGE="4" COMMENT="" />
    <EXPORT ORDINAL="422" NAME="??0InvalidDatatypeValueException@@QAE@QBDIW4Codes@XMLExcepts@@0000@Z" PURGE="28" COMMENT="" />
    <EXPORT ORDINAL="423" NAME="??0InvalidDatatypeValueException@@QAE@QBDIW4Codes@XMLExcepts@@@Z" PURGE="12" COMMENT="" />
    <EXPORT ORDINAL="424" NAME="??0InvalidDatatypeValueException@@QAE@QBDIW4Codes@XMLExcepts@@QBG222@Z" PURGE="28" COMMENT="" />
    <EXPORT ORDINAL="425" NAME="??0KVStringPair@@QAE@ABV0@@Z" PURGE="4" COMMENT="" />
    <EXPORT ORDINAL="426" NAME="??0KVStringPair@@QAE@QBG0@Z" PURGE="8" COMMENT="" />
    <EXPORT ORDINAL="427" NAME="??0KVStringPair@@QAE@XZ" PURGE="0" COMMENT="" />
    <EXPORT ORDINAL="428" NAME="??0LexicalHandler@@QAE@XZ" PURGE="0" COMMENT="" />
    <EXPORT ORDINAL="429" NAME="??0ListDatatypeValidator@@QAE@ABV0@@Z" PURGE="4" COMMENT="" />
    <EXPORT ORDINAL="430" NAME="??0ListDatatypeValidator@@QAE@QAVDatatypeValidator@@QAV?$RefHashTableOf@VKVStringPair@@@@QAV?$RefVectorOf@G@@H@Z" PURGE="16" COMMENT="" />
    <EXPORT ORDINAL="431" NAME="??0ListDatatypeValidator@@QAE@XZ" PURGE="0" COMMENT="" />
    <EXPORT ORDINAL="432" NAME="??0LocalFileFormatTarget@@QAE@QBD@Z" PURGE="4" COMMENT="" />
    <EXPORT ORDINAL="433" NAME="??0LocalFileFormatTarget@@QAE@QBG@Z" PURGE="4" COMMENT="" />
    <EXPORT ORDINAL="434" NAME="??0LocalFileInputSource@@QAE@QBG0@Z" PURGE="8" COMMENT="" />
    <EXPORT ORDINAL="435" NAME="??0LocalFileInputSource@@QAE@QBG@Z" PURGE="4" COMMENT="" />
    <EXPORT ORDINAL="436" NAME="??0Locator@@QAE@XZ" PURGE="0" COMMENT="" />
    <EXPORT ORDINAL="437" NAME="??0MalformedURLException@@QAE@ABV0@@Z" PURGE="4" COMMENT="" />
    <EXPORT ORDINAL="438" NAME="??0MalformedURLException@@QAE@QBDIW4Codes@XMLExcepts@@0000@Z" PURGE="28" COMMENT="" />
    <EXPORT ORDINAL="439" NAME="??0MalformedURLException@@QAE@QBDIW4Codes@XMLExcepts@@@Z" PURGE="12" COMMENT="" />
    <EXPORT ORDINAL="440" NAME="??0MalformedURLException@@QAE@QBDIW4Codes@XMLExcepts@@QBG222@Z" PURGE="28" COMMENT="" />
    <EXPORT ORDINAL="441" NAME="??0Match@@QAE@XZ" PURGE="0" COMMENT="" />
    <EXPORT ORDINAL="442" NAME="??0MemBufFormatTarget@@QAE@H@Z" PURGE="4" COMMENT="" />
    <EXPORT ORDINAL="443" NAME="??0MemBufInputSource@@QAE@QBEIQBD_N@Z" PURGE="16" COMMENT="" />
    <EXPORT ORDINAL="444" NAME="??0MemBufInputSource@@QAE@QBEIQBG_N@Z" PURGE="16" COMMENT="" />
    <EXPORT ORDINAL="445" NAME="??0ModifierOp@@QAE@FHH@Z" PURGE="12" COMMENT="" />
    <EXPORT ORDINAL="446" NAME="??0ModifierToken@@QAE@QAVToken@@HH@Z" PURGE="12" COMMENT="" />
    <EXPORT ORDINAL="447" NAME="??0MonthDatatypeValidator@@QAE@ABV0@@Z" PURGE="4" COMMENT="" />
    <EXPORT ORDINAL="448" NAME="??0MonthDatatypeValidator@@QAE@QAVDatatypeValidator@@QAV?$RefHashTableOf@VKVStringPair@@@@QAV?$RefVectorOf@G@@H@Z" PURGE="16" COMMENT="" />
    <EXPORT ORDINAL="449" NAME="??0MonthDatatypeValidator@@QAE@XZ" PURGE="0" COMMENT="" />
    <EXPORT ORDINAL="450" NAME="??0MonthDayDatatypeValidator@@QAE@ABV0@@Z" PURGE="4" COMMENT="" />
    <EXPORT ORDINAL="451" NAME="??0MonthDayDatatypeValidator@@QAE@QAVDatatypeValidator@@QAV?$RefHashTableOf@VKVStringPair@@@@QAV?$RefVectorOf@G@@H@Z" PURGE="16" COMMENT="" />
    <EXPORT ORDINAL="452" NAME="??0MonthDayDatatypeValidator@@QAE@XZ" PURGE="0" COMMENT="" />
    <EXPORT ORDINAL="453" NAME="??0NCNameDatatypeValidator@@IAE@QAVDatatypeValidator@@QAV?$RefHashTableOf@VKVStringPair@@@@HW4ValidatorType@1@@Z" PURGE="16" COMMENT="" />
    <EXPORT ORDINAL="454" NAME="??0NCNameDatatypeValidator@@QAE@ABV0@@Z" PURGE="4" COMMENT="" />
    <EXPORT ORDINAL="455" NAME="??0NCNameDatatypeValidator@@QAE@QAVDatatypeValidator@@QAV?$RefHashTableOf@VKVStringPair@@@@QAV?$RefVectorOf@G@@H@Z" PURGE="16" COMMENT="" />
    <EXPORT ORDINAL="456" NAME="??0NCNameDatatypeValidator@@QAE@XZ" PURGE="0" COMMENT="" />
    <EXPORT ORDINAL="457" NAME="??0NOTATIONDatatypeValidator@@QAE@ABV0@@Z" PURGE="4" COMMENT="" />
    <EXPORT ORDINAL="458" NAME="??0NOTATIONDatatypeValidator@@QAE@QAVDatatypeValidator@@QAV?$RefHashTableOf@VKVStringPair@@@@QAV?$RefVectorOf@G@@H@Z" PURGE="16" COMMENT="" />
    <EXPORT ORDINAL="459" NAME="??0NOTATIONDatatypeValidator@@QAE@XZ" PURGE="0" COMMENT="" />
    <EXPORT ORDINAL="460" NAME="??0NameDatatypeValidator@@IAE@QAVDatatypeValidator@@QAV?$RefHashTableOf@VKVStringPair@@@@HW4ValidatorType@1@@Z" PURGE="16" COMMENT="" />
    <EXPORT ORDINAL="461" NAME="??0NameDatatypeValidator@@QAE@ABV0@@Z" PURGE="4" COMMENT="" />
    <EXPORT ORDINAL="462" NAME="??0NameDatatypeValidator@@QAE@QAVDatatypeValidator@@QAV?$RefHashTableOf@VKVStringPair@@@@QAV?$RefVectorOf@G@@H@Z" PURGE="16" COMMENT="" />
    <EXPORT ORDINAL="463" NAME="??0NameDatatypeValidator@@QAE@XZ" PURGE="0" COMMENT="" />
    <EXPORT ORDINAL="464" NAME="??0NamedNodeMapImpl@@QAE@ABV0@@Z" PURGE="4" COMMENT="" />
    <EXPORT ORDINAL="465" NAME="??0NamedNodeMapImpl@@QAE@PAVNodeImpl@@@Z" PURGE="4" COMMENT="" />
    <EXPORT ORDINAL="466" NAME="??0NamespaceScope@@QAE@XZ" PURGE="0" COMMENT="" />
    <EXPORT ORDINAL="467" NAME="??0NetAccessorException@@QAE@ABV0@@Z" PURGE="4" COMMENT="" />
    <EXPORT ORDINAL="468" NAME="??0NetAccessorException@@QAE@QBDIW4Codes@XMLExcepts@@0000@Z" PURGE="28" COMMENT="" />
    <EXPORT ORDINAL="469" NAME="??0NetAccessorException@@QAE@QBDIW4Codes@XMLExcepts@@@Z" PURGE="12" COMMENT="" />
    <EXPORT ORDINAL="470" NAME="??0NetAccessorException@@QAE@QBDIW4Codes@XMLExcepts@@QBG222@Z" PURGE="28" COMMENT="" />
    <EXPORT ORDINAL="471" NAME="??0NoSuchElementException@@QAE@ABV0@@Z" PURGE="4" COMMENT="" />
    <EXPORT ORDINAL="472" NAME="??0NoSuchElementException@@QAE@QBDIW4Codes@XMLExcepts@@0000@Z" PURGE="28" COMMENT="" />
    <EXPORT ORDINAL="473" NAME="??0NoSuchElementException@@QAE@QBDIW4Codes@XMLExcepts@@@Z" PURGE="12" COMMENT="" />
    <EXPORT ORDINAL="474" NAME="??0NoSuchElementException@@QAE@QBDIW4Codes@XMLExcepts@@QBG222@Z" PURGE="28" COMMENT="" />
    <EXPORT ORDINAL="475" NAME="??0NodeImpl@@QAE@ABV0@@Z" PURGE="4" COMMENT="" />
    <EXPORT ORDINAL="476" NAME="??0NodeImpl@@QAE@PAVDocumentImpl@@@Z" PURGE="4" COMMENT="" />
    <EXPORT ORDINAL="477" NAME="??0NodeIteratorImpl@@IAE@XZ" PURGE="0" COMMENT="" />
    <EXPORT ORDINAL="478" NAME="??0NodeIteratorImpl@@QAE@ABV0@@Z" PURGE="4" COMMENT="" />
    <EXPORT ORDINAL="479" NAME="??0NodeIteratorImpl@@QAE@VDOM_Node@@KPAVDOM_NodeFilter@@_N@Z" PURGE="16" COMMENT="" />
    <EXPORT ORDINAL="480" NAME="??0NodeListImpl@@IAE@XZ" PURGE="0" COMMENT="" />
    <EXPORT ORDINAL="481" NAME="??0NodeListImpl@@QAE@ABV0@@Z" PURGE="4" COMMENT="" />
    <EXPORT ORDINAL="482" NAME="??0NotationImpl@@QAE@ABV0@_N@Z" PURGE="8" COMMENT="" />
    <EXPORT ORDINAL="483" NAME="??0NotationImpl@@QAE@PAVDocumentImpl@@ABVDOMString@@@Z" PURGE="8" COMMENT="" />
    <EXPORT ORDINAL="484" NAME="??0NullPointerException@@QAE@ABV0@@Z" PURGE="4" COMMENT="" />
    <EXPORT ORDINAL="485" NAME="??0NullPointerException@@QAE@QBDIW4Codes@XMLExcepts@@0000@Z" PURGE="28" COMMENT="" />
    <EXPORT ORDINAL="486" NAME="??0NullPointerException@@QAE@QBDIW4Codes@XMLExcepts@@@Z" PURGE="12" COMMENT="" />
    <EXPORT ORDINAL="487" NAME="??0NullPointerException@@QAE@QBDIW4Codes@XMLExcepts@@QBG222@Z" PURGE="28" COMMENT="" />
    <EXPORT ORDINAL="488" NAME="??0NumberFormatException@@QAE@ABV0@@Z" PURGE="4" COMMENT="" />
    <EXPORT ORDINAL="489" NAME="??0NumberFormatException@@QAE@QBDIW4Codes@XMLExcepts@@0000@Z" PURGE="28" COMMENT="" />
    <EXPORT ORDINAL="490" NAME="??0NumberFormatException@@QAE@QBDIW4Codes@XMLExcepts@@@Z" PURGE="12" COMMENT="" />
    <EXPORT ORDINAL="491" NAME="??0NumberFormatException@@QAE@QBDIW4Codes@XMLExcepts@@QBG222@Z" PURGE="28" COMMENT="" />
    <EXPORT ORDINAL="492" NAME="??0Op@@AAE@ABV0@@Z" PURGE="4" COMMENT="" />
    <EXPORT ORDINAL="493" NAME="??0Op@@IAE@F@Z" PURGE="4" COMMENT="" />
    <EXPORT ORDINAL="494" NAME="??0OpFactory@@QAE@XZ" PURGE="0" COMMENT="" />
    <EXPORT ORDINAL="495" NAME="??0ParenToken@@QAE@GQAVToken@@H@Z" PURGE="12" COMMENT="" />
    <EXPORT ORDINAL="496" NAME="??0ParentNode@@QAE@ABV0@@Z" PURGE="4" COMMENT="" />
    <EXPORT ORDINAL="497" NAME="??0ParentNode@@QAE@PAVDocumentImpl@@@Z" PURGE="4" COMMENT="" />
    <EXPORT ORDINAL="498" NAME="??0ParseException@@QAE@ABV0@@Z" PURGE="4" COMMENT="" />
    <EXPORT ORDINAL="499" NAME="??0ParseException@@QAE@QBDIW4Codes@XMLExcepts@@0000@Z" PURGE="28" COMMENT="" />
    <EXPORT ORDINAL="500" NAME="??0ParseException@@QAE@QBDIW4Codes@XMLExcepts@@@Z" PURGE="12" COMMENT="" />
    <EXPORT ORDINAL="501" NAME="??0ParseException@@QAE@QBDIW4Codes@XMLExcepts@@QBG222@Z" PURGE="28" COMMENT="" />
    <EXPORT ORDINAL="502" NAME="??0Parser@@QAE@XZ" PURGE="0" COMMENT="" />
    <EXPORT ORDINAL="503" NAME="??0ParserForXMLSchema@@QAE@XZ" PURGE="0" COMMENT="" />
    <EXPORT ORDINAL="504" NAME="??0ProcessingInstructionImpl@@QAE@ABV0@_N@Z" PURGE="8" COMMENT="" />
    <EXPORT ORDINAL="505" NAME="??0ProcessingInstructionImpl@@QAE@PAVDocumentImpl@@ABVDOMString@@1@Z" PURGE="12" COMMENT="" />
    <EXPORT ORDINAL="506" NAME="??0QName@@QAE@QBG0I@Z" PURGE="12" COMMENT="" />
    <EXPORT ORDINAL="507" NAME="??0QName@@QAE@QBGI@Z" PURGE="8" COMMENT="" />
    <EXPORT ORDINAL="508" NAME="??0QName@@QAE@QBV0@@Z" PURGE="4" COMMENT="" />
    <EXPORT ORDINAL="509" NAME="??0QName@@QAE@XZ" PURGE="0" COMMENT="" />
    <EXPORT ORDINAL="510" NAME="??0QNameDatatypeValidator@@QAE@ABV0@@Z" PURGE="4" COMMENT="" />
    <EXPORT ORDINAL="511" NAME="??0QNameDatatypeValidator@@QAE@QAVDatatypeValidator@@QAV?$RefHashTableOf@VKVStringPair@@@@QAV?$RefVectorOf@G@@H@Z" PURGE="16" COMMENT="" />
    <EXPORT ORDINAL="512" NAME="??0QNameDatatypeValidator@@QAE@XZ" PURGE="0" COMMENT="" />
    <EXPORT ORDINAL="513" NAME="??0RangeFactory@@IAE@XZ" PURGE="0" COMMENT="" />
    <EXPORT ORDINAL="514" NAME="??0RangeImpl@@QAE@ABV0@@Z" PURGE="4" COMMENT="" />
    <EXPORT ORDINAL="515" NAME="??0RangeImpl@@QAE@VDOM_Document@@@Z" PURGE="4" COMMENT="" />
    <EXPORT ORDINAL="516" NAME="??0RangeOp@@QAE@FQBVToken@@@Z" PURGE="8" COMMENT="" />
    <EXPORT ORDINAL="517" NAME="??0RangeToken@@QAE@G@Z" PURGE="4" COMMENT="" />
    <EXPORT ORDINAL="518" NAME="??0RangeTokenElemMap@@QAE@I@Z" PURGE="4" COMMENT="" />
    <EXPORT ORDINAL="519" NAME="??0RangeTokenMap@@IAE@XZ" PURGE="0" COMMENT="" />
    <EXPORT ORDINAL="520" NAME="??0ReaderMgr@@QAE@XZ" PURGE="0" COMMENT="" />
    <EXPORT ORDINAL="521" NAME="??0RefCountedImpl@@QAE@ABV0@@Z" PURGE="4" COMMENT="" />
    <EXPORT ORDINAL="522" NAME="??0RefCountedImpl@@QAE@XZ" PURGE="0" COMMENT="" />
    <EXPORT ORDINAL="523" NAME="??0RegularExpression@@QAE@QBD0@Z" PURGE="8" COMMENT="" />
    <EXPORT ORDINAL="524" NAME="??0RegularExpression@@QAE@QBD@Z" PURGE="4" COMMENT="" />
    <EXPORT ORDINAL="525" NAME="??0RegularExpression@@QAE@QBG0@Z" PURGE="8" COMMENT="" />
    <EXPORT ORDINAL="526" NAME="??0RegularExpression@@QAE@QBG@Z" PURGE="4" COMMENT="" />
    <EXPORT ORDINAL="527" NAME="??0RegxParser@@QAE@XZ" PURGE="0" COMMENT="" />
    <EXPORT ORDINAL="528" NAME="??0RuntimeException@@QAE@ABV0@@Z" PURGE="4" COMMENT="" />
    <EXPORT ORDINAL="529" NAME="??0RuntimeException@@QAE@QBDIW4Codes@XMLExcepts@@0000@Z" PURGE="28" COMMENT="" />
    <EXPORT ORDINAL="530" NAME="??0RuntimeException@@QAE@QBDIW4Codes@XMLExcepts@@@Z" PURGE="12" COMMENT="" />
    <EXPORT ORDINAL="531" NAME="??0RuntimeException@@QAE@QBDIW4Codes@XMLExcepts@@QBG222@Z" PURGE="28" COMMENT="" />
    <EXPORT ORDINAL="532" NAME="??0SAX2XMLReader@@QAE@XZ" PURGE="0" COMMENT="" />
    <EXPORT ORDINAL="533" NAME="??0SAX2XMLReaderImpl@@QAE@XZ" PURGE="0" COMMENT="" />
    <EXPORT ORDINAL="534" NAME="??0SAXException@@QAE@ABV0@@Z" PURGE="4" COMMENT="" />
    <EXPORT ORDINAL="535" NAME="??0SAXException@@QAE@QBD@Z" PURGE="4" COMMENT="" />
    <EXPORT ORDINAL="536" NAME="??0SAXException@@QAE@QBG@Z" PURGE="4" COMMENT="" />
    <EXPORT ORDINAL="537" NAME="??0SAXException@@QAE@XZ" PURGE="0" COMMENT="" />
    <EXPORT ORDINAL="538" NAME="??0SAXParseException@@QAE@ABV0@@Z" PURGE="4" COMMENT="" />
    <EXPORT ORDINAL="539" NAME="??0SAXParseException@@QAE@QBG00JJ@Z" PURGE="20" COMMENT="" />
    <EXPORT ORDINAL="540" NAME="??0SAXParseException@@QAE@QBGABVLocator@@@Z" PURGE="8" COMMENT="" />
    <EXPORT ORDINAL="541" NAME="??0SAXParser@@QAE@QAVXMLValidator@@@Z" PURGE="4" COMMENT="" />
    <EXPORT ORDINAL="542" NAME="??0SchemaAttDef@@QAE@PBV0@@Z" PURGE="4" COMMENT="" />
    <EXPORT ORDINAL="543" NAME="??0SchemaAttDef@@QAE@QBG0H0W4AttTypes@XMLAttDef@@W4DefAttTypes@2@0@Z" PURGE="28" COMMENT="" />
    <EXPORT ORDINAL="544" NAME="??0SchemaAttDef@@QAE@QBG0HW4AttTypes@XMLAttDef@@W4DefAttTypes@2@@Z" PURGE="20" COMMENT="" />
    <EXPORT ORDINAL="545" NAME="??0SchemaAttDef@@QAE@XZ" PURGE="0" COMMENT="" />
    <EXPORT ORDINAL="546" NAME="??0SchemaDateTimeException@@QAE@ABV0@@Z" PURGE="4" COMMENT="" />
    <EXPORT ORDINAL="547" NAME="??0SchemaDateTimeException@@QAE@QBDIW4Codes@XMLExcepts@@0000@Z" PURGE="28" COMMENT="" />
    <EXPORT ORDINAL="548" NAME="??0SchemaDateTimeException@@QAE@QBDIW4Codes@XMLExcepts@@@Z" PURGE="12" COMMENT="" />
    <EXPORT ORDINAL="549" NAME="??0SchemaDateTimeException@@QAE@QBDIW4Codes@XMLExcepts@@QBG222@Z" PURGE="28" COMMENT="" />
    <EXPORT ORDINAL="550" NAME="??0SchemaElementDecl@@QAE@QBG0HW4ModelTypes@0@H@Z" PURGE="20" COMMENT="" />
    <EXPORT ORDINAL="551" NAME="??0SchemaElementDecl@@QAE@QBVQName@@W4ModelTypes@0@H@Z" PURGE="12" COMMENT="" />
    <EXPORT ORDINAL="552" NAME="??0SchemaElementDecl@@QAE@XZ" PURGE="0" COMMENT="" />
    <EXPORT ORDINAL="553" NAME="??0SchemaGrammar@@QAE@ABV0@@Z" PURGE="4" COMMENT="" />
    <EXPORT ORDINAL="554" NAME="??0SchemaGrammar@@QAE@XZ" PURGE="0" COMMENT="" />
    <EXPORT ORDINAL="555" NAME="??0SchemaValidator@@QAE@QAVXMLErrorReporter@@@Z" PURGE="4" COMMENT="" />
    <EXPORT ORDINAL="556" NAME="??0SelectorMatcher@@AAE@QAVXercesXPath@@QAVIC_Selector@@QAVFieldActivator@@@Z" PURGE="12" COMMENT="" />
    <EXPORT ORDINAL="557" NAME="??0StdInInputSource@@QAE@XZ" PURGE="0" COMMENT="" />
    <EXPORT ORDINAL="558" NAME="??0StdOutFormatTarget@@QAE@XZ" PURGE="0" COMMENT="" />
    <EXPORT ORDINAL="559" NAME="??0StringDatatypeValidator@@IAE@QAVDatatypeValidator@@QAV?$RefHashTableOf@VKVStringPair@@@@HW4ValidatorType@1@@Z" PURGE="16" COMMENT="" />
    <EXPORT ORDINAL="560" NAME="??0StringDatatypeValidator@@QAE@ABV0@@Z" PURGE="4" COMMENT="" />
    <EXPORT ORDINAL="561" NAME="??0StringDatatypeValidator@@QAE@QAVDatatypeValidator@@QAV?$RefHashTableOf@VKVStringPair@@@@QAV?$RefVectorOf@G@@H@Z" PURGE="16" COMMENT="" />
    <EXPORT ORDINAL="562" NAME="??0StringDatatypeValidator@@QAE@XZ" PURGE="0" COMMENT="" />
    <EXPORT ORDINAL="563" NAME="??0StringOp@@QAE@FQBG@Z" PURGE="8" COMMENT="" />
    <EXPORT ORDINAL="564" NAME="??0StringToken@@QAE@GQBGH@Z" PURGE="12" COMMENT="" />
    <EXPORT ORDINAL="565" NAME="??0SubstitutionGroupComparator@@QAE@QAVGrammarResolver@@QAVXMLStringPool@@@Z" PURGE="8" COMMENT="" />
    <EXPORT ORDINAL="566" NAME="??0TextImpl@@QAE@ABV0@_N@Z" PURGE="8" COMMENT="" />
    <EXPORT ORDINAL="567" NAME="??0TextImpl@@QAE@PAVDocumentImpl@@ABVDOMString@@@Z" PURGE="8" COMMENT="" />
    <EXPORT ORDINAL="568" NAME="??0ThrowEOEJanitor@@QAE@PAVReaderMgr@@_N@Z" PURGE="8" COMMENT="" />
    <EXPORT ORDINAL="569" NAME="??0TimeDatatypeValidator@@QAE@ABV0@@Z" PURGE="4" COMMENT="" />
    <EXPORT ORDINAL="570" NAME="??0TimeDatatypeValidator@@QAE@QAVDatatypeValidator@@QAV?$RefHashTableOf@VKVStringPair@@@@QAV?$RefVectorOf@G@@H@Z" PURGE="16" COMMENT="" />
    <EXPORT ORDINAL="571" NAME="??0TimeDatatypeValidator@@QAE@XZ" PURGE="0" COMMENT="" />
    <EXPORT ORDINAL="572" NAME="??0Token@@QAE@G@Z" PURGE="4" COMMENT="" />
    <EXPORT ORDINAL="573" NAME="??0TokenFactory@@QAE@XZ" PURGE="0" COMMENT="" />
    <EXPORT ORDINAL="574" NAME="??0TranscodingException@@QAE@ABV0@@Z" PURGE="4" COMMENT="" />
    <EXPORT ORDINAL="575" NAME="??0TranscodingException@@QAE@QBDIW4Codes@XMLExcepts@@0000@Z" PURGE="28" COMMENT="" />
    <EXPORT ORDINAL="576" NAME="??0TranscodingException@@QAE@QBDIW4Codes@XMLExcepts@@@Z" PURGE="12" COMMENT="" />
    <EXPORT ORDINAL="577" NAME="??0TranscodingException@@QAE@QBDIW4Codes@XMLExcepts@@QBG222@Z" PURGE="28" COMMENT="" />
    <EXPORT ORDINAL="578" NAME="??0TraverseSchema@@QAE@QAVDOMElement@@QAVXMLStringPool@@QAVSchemaGrammar@@QAVGrammarResolver@@QAVXMLScanner@@QBGQAVXMLEntityHandler@@QAVXMLErrorReporter@@@Z" PURGE="32" COMMENT="" />
    <EXPORT ORDINAL="579" NAME="??0TreeWalkerImpl@@QAE@ABV0@@Z" PURGE="4" COMMENT="" />
    <EXPORT ORDINAL="580" NAME="??0TreeWalkerImpl@@QAE@VDOM_Node@@KPAVDOM_NodeFilter@@_N@Z" PURGE="16" COMMENT="" />
    <EXPORT ORDINAL="581" NAME="??0URLInputSource@@QAE@ABVXMLURL@@@Z" PURGE="4" COMMENT="" />
    <EXPORT ORDINAL="582" NAME="??0URLInputSource@@QAE@QBG00@Z" PURGE="12" COMMENT="" />
    <EXPORT ORDINAL="583" NAME="??0URLInputSource@@QAE@QBG0@Z" PURGE="8" COMMENT="" />
    <EXPORT ORDINAL="584" NAME="??0URLInputSource@@QAE@QBGQBD1@Z" PURGE="12" COMMENT="" />
    <EXPORT ORDINAL="585" NAME="??0URLInputSource@@QAE@QBGQBD@Z" PURGE="8" COMMENT="" />
    <EXPORT ORDINAL="586" NAME="??0UTFDataFormatException@@QAE@ABV0@@Z" PURGE="4" COMMENT="" />
    <EXPORT ORDINAL="587" NAME="??0UTFDataFormatException@@QAE@QBDIW4Codes@XMLExcepts@@0000@Z" PURGE="28" COMMENT="" />
    <EXPORT ORDINAL="588" NAME="??0UTFDataFormatException@@QAE@QBDIW4Codes@XMLExcepts@@@Z" PURGE="12" COMMENT="" />
    <EXPORT ORDINAL="589" NAME="??0UTFDataFormatException@@QAE@QBDIW4Codes@XMLExcepts@@QBG222@Z" PURGE="28" COMMENT="" />
    <EXPORT ORDINAL="590" NAME="??0UnexpectedEOFException@@QAE@ABV0@@Z" PURGE="4" COMMENT="" />
    <EXPORT ORDINAL="591" NAME="??0UnexpectedEOFException@@QAE@QBDIW4Codes@XMLExcepts@@0000@Z" PURGE="28" COMMENT="" />
    <EXPORT ORDINAL="592" NAME="??0UnexpectedEOFException@@QAE@QBDIW4Codes@XMLExcepts@@@Z" PURGE="12" COMMENT="" />
    <EXPORT ORDINAL="593" NAME="??0UnexpectedEOFException@@QAE@QBDIW4Codes@XMLExcepts@@QBG222@Z" PURGE="28" COMMENT="" />
    <EXPORT ORDINAL="594" NAME="??0UnicodeRangeFactory@@QAE@XZ" PURGE="0" COMMENT="" />
    <EXPORT ORDINAL="595" NAME="??0UnionDatatypeValidator@@QAE@ABV0@@Z" PURGE="4" COMMENT="" />
    <EXPORT ORDINAL="596" NAME="??0UnionDatatypeValidator@@QAE@QAV?$RefVectorOf@VDatatypeValidator@@@@H@Z" PURGE="8" COMMENT="" />
    <EXPORT ORDINAL="597" NAME="??0UnionDatatypeValidator@@QAE@QAVDatatypeValidator@@QAV?$RefHashTableOf@VKVStringPair@@@@QAV?$RefVectorOf@G@@H@Z" PURGE="16" COMMENT="" />
    <EXPORT ORDINAL="598" NAME="??0UnionDatatypeValidator@@QAE@XZ" PURGE="0" COMMENT="" />
    <EXPORT ORDINAL="599" NAME="??0UnionOp@@QAE@FH@Z" PURGE="8" COMMENT="" />
    <EXPORT ORDINAL="600" NAME="??0UnionToken@@QAE@G@Z" PURGE="4" COMMENT="" />
    <EXPORT ORDINAL="601" NAME="??0UnsupportedEncodingException@@QAE@ABV0@@Z" PURGE="4" COMMENT="" />
    <EXPORT ORDINAL="602" NAME="??0UnsupportedEncodingException@@QAE@QBDIW4Codes@XMLExcepts@@0000@Z" PURGE="28" COMMENT="" />
    <EXPORT ORDINAL="603" NAME="??0UnsupportedEncodingException@@QAE@QBDIW4Codes@XMLExcepts@@@Z" PURGE="12" COMMENT="" />
    <EXPORT ORDINAL="604" NAME="??0UnsupportedEncodingException@@QAE@QBDIW4Codes@XMLExcepts@@QBG222@Z" PURGE="28" COMMENT="" />
    <EXPORT ORDINAL="605" NAME="??0ValueStore@@QAE@QAVIdentityConstraint@@QAVXMLScanner@@@Z" PURGE="8" COMMENT="" />
    <EXPORT ORDINAL="606" NAME="??0ValueStoreCache@@QAE@XZ" PURGE="0" COMMENT="" />
    <EXPORT ORDINAL="607" NAME="??0VecAttrListImpl@@QAE@XZ" PURGE="0" COMMENT="" />
    <EXPORT ORDINAL="608" NAME="??0VecAttributesImpl@@QAE@XZ" PURGE="0" COMMENT="" />
    <EXPORT ORDINAL="609" NAME="??0Win32LCPTranscoder@@QAE@XZ" PURGE="0" COMMENT="" />
    <EXPORT ORDINAL="610" NAME="??0Win32MsgLoader@@QAE@QBG@Z" PURGE="4" COMMENT="" />
    <EXPORT ORDINAL="611" NAME="??0Win32TransService@@QAE@XZ" PURGE="0" COMMENT="" />
    <EXPORT ORDINAL="612" NAME="??0Win32Transcoder@@QAE@QBGIII@Z" PURGE="16" COMMENT="" />
    <EXPORT ORDINAL="613" NAME="??0WinSockNetAccessor@@QAE@XZ" PURGE="0" COMMENT="" />
    <EXPORT ORDINAL="614" NAME="??0Wrapper4DOMInputSource@@QAE@QAVDOMInputSource@@_N@Z" PURGE="8" COMMENT="" />
    <EXPORT ORDINAL="615" NAME="??0Wrapper4InputSource@@QAE@QAVInputSource@@_N@Z" PURGE="8" COMMENT="" />
    <EXPORT ORDINAL="616" NAME="??0XML256TableTranscoder@@IAE@QBGI0QBUTransRec@XMLTransService@@I@Z" PURGE="20" COMMENT="" />
    <EXPORT ORDINAL="617" NAME="??0XML88591Transcoder@@QAE@QBGI@Z" PURGE="8" COMMENT="" />
    <EXPORT ORDINAL="618" NAME="??0XMLASCIITranscoder@@QAE@QBGI@Z" PURGE="8" COMMENT="" />
    <EXPORT ORDINAL="619" NAME="??0XMLAbstractDoubleFloat@@IAE@XZ" PURGE="0" COMMENT="" />
    <EXPORT ORDINAL="620" NAME="??0XMLAttDef@@IAE@QBGW4AttTypes@0@W4DefAttTypes@0@0@Z" PURGE="16" COMMENT="" />
    <EXPORT ORDINAL="621" NAME="??0XMLAttDef@@IAE@W4AttTypes@0@W4DefAttTypes@0@@Z" PURGE="8" COMMENT="" />
    <EXPORT ORDINAL="622" NAME="??0XMLAttDefList@@IAE@ABV0@@Z" PURGE="4" COMMENT="" />
    <EXPORT ORDINAL="623" NAME="??0XMLAttDefList@@IAE@XZ" PURGE="0" COMMENT="" />
    <EXPORT ORDINAL="624" NAME="??0XMLAttr@@QAE@IQBG00W4AttTypes@XMLAttDef@@_N@Z" PURGE="24" COMMENT="" />
    <EXPORT ORDINAL="625" NAME="??0XMLAttr@@QAE@XZ" PURGE="0" COMMENT="" />
    <EXPORT ORDINAL="626" NAME="??0XMLBigDecimal@@QAE@ABV0@@Z" PURGE="4" COMMENT="" />
    <EXPORT ORDINAL="627" NAME="??0XMLBigDecimal@@QAE@ABV0@H@Z" PURGE="8" COMMENT="" />
    <EXPORT ORDINAL="628" NAME="??0XMLBigDecimal@@QAE@QBG@Z" PURGE="4" COMMENT="" />
    <EXPORT ORDINAL="629" NAME="??0XMLBigInteger@@QAE@ABV0@@Z" PURGE="4" COMMENT="" />
    <EXPORT ORDINAL="630" NAME="??0XMLBigInteger@@QAE@QBG@Z" PURGE="4" COMMENT="" />
    <EXPORT ORDINAL="631" NAME="??0XMLBuffer@@QAE@H@Z" PURGE="4" COMMENT="" />
    <EXPORT ORDINAL="632" NAME="??0XMLBufferMgr@@QAE@XZ" PURGE="0" COMMENT="" />
    <EXPORT ORDINAL="633" NAME="??0XMLChTranscoder@@QAE@QBGI@Z" PURGE="8" COMMENT="" />
    <EXPORT ORDINAL="634" NAME="??0XMLContentModel@@IAE@XZ" PURGE="0" COMMENT="" />
    <EXPORT ORDINAL="635" NAME="??0XMLDateTime@@QAE@ABV0@@Z" PURGE="4" COMMENT="" />
    <EXPORT ORDINAL="636" NAME="??0XMLDateTime@@QAE@QBG@Z" PURGE="4" COMMENT="" />
    <EXPORT ORDINAL="637" NAME="??0XMLDateTime@@QAE@XZ" PURGE="0" COMMENT="" />
    <EXPORT ORDINAL="638" NAME="??0XMLDeclImpl@@QAE@ABV0@_N@Z" PURGE="8" COMMENT="" />
    <EXPORT ORDINAL="639" NAME="??0XMLDeclImpl@@QAE@PAVDocumentImpl@@@Z" PURGE="4" COMMENT="" />
    <EXPORT ORDINAL="640" NAME="??0XMLDeclImpl@@QAE@PAVDocumentImpl@@ABVDOMString@@11@Z" PURGE="16" COMMENT="" />
    <EXPORT ORDINAL="641" NAME="??0XMLDeleter@@IAE@XZ" PURGE="0" COMMENT="" />
    <EXPORT ORDINAL="642" NAME="??0XMLDocumentHandler@@IAE@XZ" PURGE="0" COMMENT="" />
    <EXPORT ORDINAL="643" NAME="??0XMLDouble@@QAE@QBG@Z" PURGE="4" COMMENT="" />
    <EXPORT ORDINAL="644" NAME="??0XMLEBCDICTranscoder@@QAE@QBGI@Z" PURGE="8" COMMENT="" />
    <EXPORT ORDINAL="645" NAME="??0XMLElementDecl@@IAE@XZ" PURGE="0" COMMENT="" />
    <EXPORT ORDINAL="646" NAME="??0XMLEntityDecl@@QAE@QBG0@Z" PURGE="8" COMMENT="" />
    <EXPORT ORDINAL="647" NAME="??0XMLEntityDecl@@QAE@QBG@Z" PURGE="4" COMMENT="" />
    <EXPORT ORDINAL="648" NAME="??0XMLEntityDecl@@QAE@QBGG@Z" PURGE="8" COMMENT="" />
    <EXPORT ORDINAL="649" NAME="??0XMLEntityDecl@@QAE@XZ" PURGE="0" COMMENT="" />
    <EXPORT ORDINAL="650" NAME="??0XMLEntityHandler@@IAE@XZ" PURGE="0" COMMENT="" />
    <EXPORT ORDINAL="651" NAME="??0XMLErrorReporter@@IAE@XZ" PURGE="0" COMMENT="" />
    <EXPORT ORDINAL="652" NAME="??0XMLException@@QAE@ABV0@@Z" PURGE="4" COMMENT="" />
    <EXPORT ORDINAL="653" NAME="??0XMLException@@QAE@QBDI@Z" PURGE="8" COMMENT="" />
    <EXPORT ORDINAL="654" NAME="??0XMLException@@QAE@XZ" PURGE="0" COMMENT="" />
    <EXPORT ORDINAL="655" NAME="??0XMLFloat@@QAE@QBG@Z" PURGE="4" COMMENT="" />
    <EXPORT ORDINAL="656" NAME="??0XMLFormatTarget@@IAE@ABV0@@Z" PURGE="4" COMMENT="" />
    <EXPORT ORDINAL="657" NAME="??0XMLFormatTarget@@IAE@XZ" PURGE="0" COMMENT="" />
    <EXPORT ORDINAL="658" NAME="??0XMLFormatter@@QAE@QBDQAVXMLFormatTarget@@W4EscapeFlags@0@W4UnRepFlags@0@@Z" PURGE="16" COMMENT="" />
    <EXPORT ORDINAL="659" NAME="??0XMLFormatter@@QAE@QBGQAVXMLFormatTarget@@W4EscapeFlags@0@W4UnRepFlags@0@@Z" PURGE="16" COMMENT="" />
    <EXPORT ORDINAL="660" NAME="??0XMLIBM1140Transcoder@@QAE@QBGI@Z" PURGE="8" COMMENT="" />
    <EXPORT ORDINAL="661" NAME="??0XMLInteger@@QAE@H@Z" PURGE="4" COMMENT="" />
    <EXPORT ORDINAL="662" NAME="??0XMLLCPTranscoder@@IAE@XZ" PURGE="0" COMMENT="" />
    <EXPORT ORDINAL="663" NAME="??0XMLMsgLoader@@IAE@XZ" PURGE="0" COMMENT="" />
    <EXPORT ORDINAL="664" NAME="??0XMLMutex@@QAE@XZ" PURGE="0" COMMENT="" />
    <EXPORT ORDINAL="665" NAME="??0XMLMutexLock@@QAE@QAVXMLMutex@@@Z" PURGE="4" COMMENT="" />
    <EXPORT ORDINAL="666" NAME="??0XMLNetAccessor@@IAE@XZ" PURGE="0" COMMENT="" />
    <EXPORT ORDINAL="667" NAME="??0XMLNotationDecl@@QAE@QBG000@Z" PURGE="16" COMMENT="" />
    <EXPORT ORDINAL="668" NAME="??0XMLNotationDecl@@QAE@XZ" PURGE="0" COMMENT="" />
    <EXPORT ORDINAL="669" NAME="??0XMLNumber@@IAE@XZ" PURGE="0" COMMENT="" />
    <EXPORT ORDINAL="670" NAME="??0XMLNumber@@QAE@ABV0@@Z" PURGE="4" COMMENT="" />
    <EXPORT ORDINAL="671" NAME="??0XMLPScanToken@@QAE@ABV0@@Z" PURGE="4" COMMENT="" />
    <EXPORT ORDINAL="672" NAME="??0XMLPScanToken@@QAE@XZ" PURGE="0" COMMENT="" />
    <EXPORT ORDINAL="673" NAME="??0XMLPlatformUtilsException@@QAE@ABV0@@Z" PURGE="4" COMMENT="" />
    <EXPORT ORDINAL="674" NAME="??0XMLPlatformUtilsException@@QAE@QBDIW4Codes@XMLExcepts@@0000@Z" PURGE="28" COMMENT="" />
    <EXPORT ORDINAL="675" NAME="??0XMLPlatformUtilsException@@QAE@QBDIW4Codes@XMLExcepts@@@Z" PURGE="12" COMMENT="" />
    <EXPORT ORDINAL="676" NAME="??0XMLPlatformUtilsException@@QAE@QBDIW4Codes@XMLExcepts@@QBG222@Z" PURGE="28" COMMENT="" />
    <EXPORT ORDINAL="677" NAME="??0XMLRangeFactory@@QAE@XZ" PURGE="0" COMMENT="" />
    <EXPORT ORDINAL="678" NAME="??0XMLReader@@QAE@QBG0QAVBinInputStream@@0W4RefFrom@0@W4Types@0@W4Sources@0@_N@Z" PURGE="32" COMMENT="" />
    <EXPORT ORDINAL="679" NAME="??0XMLReader@@QAE@QBG0QAVBinInputStream@@W4RefFrom@0@W4Types@0@W4Sources@0@_N@Z" PURGE="28" COMMENT="" />
    <EXPORT ORDINAL="680" NAME="??0XMLRefInfo@@QAE@QBG_N1@Z" PURGE="12" COMMENT="" />
    <EXPORT ORDINAL="681" NAME="??0XMLScanner@@QAE@QAVXMLDocumentHandler@@QAVDocTypeHandler@@QAVXMLEntityHandler@@QAVXMLErrorReporter@@QAVXMLValidator@@@Z" PURGE="20" COMMENT="" />
    <EXPORT ORDINAL="682" NAME="??0XMLScanner@@QAE@QAVXMLValidator@@@Z" PURGE="4" COMMENT="" />
    <EXPORT ORDINAL="683" NAME="??0XMLStringPool@@QAE@I@Z" PURGE="4" COMMENT="" />
    <EXPORT ORDINAL="684" NAME="??0XMLStringTokenizer@@QAE@QBG0@Z" PURGE="8" COMMENT="" />
    <EXPORT ORDINAL="685" NAME="??0XMLStringTokenizer@@QAE@QBG@Z" PURGE="4" COMMENT="" />
    <EXPORT ORDINAL="686" NAME="??0XMLTransService@@IAE@XZ" PURGE="0" COMMENT="" />
    <EXPORT ORDINAL="687" NAME="??0XMLTranscoder@@IAE@QBGI@Z" PURGE="8" COMMENT="" />
    <EXPORT ORDINAL="688" NAME="??0XMLUCS4Transcoder@@QAE@QBGI_N@Z" PURGE="12" COMMENT="" />
    <EXPORT ORDINAL="689" NAME="??0XMLURL@@QAE@ABV0@@Z" PURGE="4" COMMENT="" />
    <EXPORT ORDINAL="690" NAME="??0XMLURL@@QAE@ABV0@QBD@Z" PURGE="8" COMMENT="" />
    <EXPORT ORDINAL="691" NAME="??0XMLURL@@QAE@ABV0@QBG@Z" PURGE="8" COMMENT="" />
    <EXPORT ORDINAL="692" NAME="??0XMLURL@@QAE@QBD@Z" PURGE="4" COMMENT="" />
    <EXPORT ORDINAL="693" NAME="??0XMLURL@@QAE@QBG0@Z" PURGE="8" COMMENT="" />
    <EXPORT ORDINAL="694" NAME="??0XMLURL@@QAE@QBG@Z" PURGE="4" COMMENT="" />
    <EXPORT ORDINAL="695" NAME="??0XMLURL@@QAE@QBGQBD@Z" PURGE="8" COMMENT="" />
    <EXPORT ORDINAL="696" NAME="??0XMLURL@@QAE@XZ" PURGE="0" COMMENT="" />
    <EXPORT ORDINAL="697" NAME="??0XMLUTF16Transcoder@@QAE@QBGI_N@Z" PURGE="12" COMMENT="" />
    <EXPORT ORDINAL="698" NAME="??0XMLUTF8Transcoder@@QAE@QBGI@Z" PURGE="8" COMMENT="" />
    <EXPORT ORDINAL="699" NAME="??0XMLUri@@QAE@QBG@Z" PURGE="4" COMMENT="" />
    <EXPORT ORDINAL="700" NAME="??0XMLUri@@QAE@QBV0@QBG@Z" PURGE="8" COMMENT="" />
    <EXPORT ORDINAL="701" NAME="??0XMLValidator@@IAE@QAVXMLErrorReporter@@@Z" PURGE="4" COMMENT="" />
    <EXPORT ORDINAL="702" NAME="??0XMLWin1252Transcoder@@QAE@QBGI@Z" PURGE="8" COMMENT="" />
    <EXPORT ORDINAL="703" NAME="??0XPathException@@QAE@ABV0@@Z" PURGE="4" COMMENT="" />
    <EXPORT ORDINAL="704" NAME="??0XPathException@@QAE@QBDIW4Codes@XMLExcepts@@0000@Z" PURGE="28" COMMENT="" />
    <EXPORT ORDINAL="705" NAME="??0XPathException@@QAE@QBDIW4Codes@XMLExcepts@@@Z" PURGE="12" COMMENT="" />
    <EXPORT ORDINAL="706" NAME="??0XPathException@@QAE@QBDIW4Codes@XMLExcepts@@QBG222@Z" PURGE="28" COMMENT="" />
    <EXPORT ORDINAL="707" NAME="??0XPathMatcher@@QAE@ABV0@@Z" PURGE="4" COMMENT="" />
    <EXPORT ORDINAL="708" NAME="??0XPathMatcher@@QAE@QAVXercesXPath@@@Z" PURGE="4" COMMENT="" />
    <EXPORT ORDINAL="709" NAME="??0XPathMatcher@@QAE@QAVXercesXPath@@_NQAVIdentityConstraint@@@Z" PURGE="12" COMMENT="" />
    <EXPORT ORDINAL="710" NAME="??0XPathMatcherStack@@QAE@XZ" PURGE="0" COMMENT="" />
    <EXPORT ORDINAL="711" NAME="??0XPathScanner@@QAE@QAVXMLStringPool@@@Z" PURGE="4" COMMENT="" />
    <EXPORT ORDINAL="712" NAME="??0XPathScannerForSchema@@QAE@QAVXMLStringPool@@@Z" PURGE="4" COMMENT="" />
    <EXPORT ORDINAL="713" NAME="??0XSDDOMParser@@QAE@QAVXMLValidator@@@Z" PURGE="4" COMMENT="" />
    <EXPORT ORDINAL="714" NAME="??0XSDElementNSImpl@@QAE@ABV0@_N@Z" PURGE="8" COMMENT="" />
    <EXPORT ORDINAL="715" NAME="??0XSDElementNSImpl@@QAE@PAVDOMDocument@@PBG1JJ@Z" PURGE="20" COMMENT="" />
    <EXPORT ORDINAL="716" NAME="??0XSDElementNSImpl@@QAE@PAVDOMDocument@@PBG@Z" PURGE="8" COMMENT="" />
    <EXPORT ORDINAL="717" NAME="??0XSDErrorReporter@@QAE@QAVXMLErrorReporter@@@Z" PURGE="4" COMMENT="" />
    <EXPORT ORDINAL="718" NAME="??0XSDLocator@@QAE@XZ" PURGE="0" COMMENT="" />
    <EXPORT ORDINAL="719" NAME="??0XUtil@@IAE@XZ" PURGE="0" COMMENT="" />
    <EXPORT ORDINAL="720" NAME="??0XercesAttGroupInfo@@QAE@XZ" PURGE="0" COMMENT="" />
    <EXPORT ORDINAL="721" NAME="??0XercesDOMParser@@QAE@QAVXMLValidator@@@Z" PURGE="4" COMMENT="" />
    <EXPORT ORDINAL="722" NAME="??0XercesGroupInfo@@QAE@XZ" PURGE="0" COMMENT="" />
    <EXPORT ORDINAL="723" NAME="??0XercesLocationPath@@QAE@QAV?$RefVectorOf@VXercesStep@@@@@Z" PURGE="4" COMMENT="" />
    <EXPORT ORDINAL="724" NAME="??0XercesLocationPath@@QAE@XZ" PURGE="0" COMMENT="" />
    <EXPORT ORDINAL="725" NAME="??0XercesNodeTest@@QAE@ABV0@@Z" PURGE="4" COMMENT="" />
    <EXPORT ORDINAL="726" NAME="??0XercesNodeTest@@QAE@F@Z" PURGE="4" COMMENT="" />
    <EXPORT ORDINAL="727" NAME="??0XercesNodeTest@@QAE@QBGI@Z" PURGE="8" COMMENT="" />
    <EXPORT ORDINAL="728" NAME="??0XercesNodeTest@@QAE@QBVQName@@@Z" PURGE="4" COMMENT="" />
    <EXPORT ORDINAL="729" NAME="??0XercesStep@@QAE@ABV0@@Z" PURGE="4" COMMENT="" />
    <EXPORT ORDINAL="730" NAME="??0XercesStep@@QAE@GQAVXercesNodeTest@@@Z" PURGE="8" COMMENT="" />
    <EXPORT ORDINAL="731" NAME="??0XercesXPath@@QAE@QBGQAVXMLStringPool@@QAVNamespaceScope@@I_N@Z" PURGE="20" COMMENT="" />
    <EXPORT ORDINAL="732" NAME="??0YearDatatypeValidator@@QAE@ABV0@@Z" PURGE="4" COMMENT="" />
    <EXPORT ORDINAL="733" NAME="??0YearDatatypeValidator@@QAE@QAVDatatypeValidator@@QAV?$RefHashTableOf@VKVStringPair@@@@QAV?$RefVectorOf@G@@H@Z" PURGE="16" COMMENT="" />
    <EXPORT ORDINAL="734" NAME="??0YearDatatypeValidator@@QAE@XZ" PURGE="0" COMMENT="" />
    <EXPORT ORDINAL="735" NAME="??0YearMonthDatatypeValidator@@QAE@ABV0@@Z" PURGE="4" COMMENT="" />
    <EXPORT ORDINAL="736" NAME="??0YearMonthDatatypeValidator@@QAE@QAVDatatypeValidator@@QAV?$RefHashTableOf@VKVStringPair@@@@QAV?$RefVectorOf@G@@H@Z" PURGE="16" COMMENT="" />
    <EXPORT ORDINAL="737" NAME="??0YearMonthDatatypeValidator@@QAE@XZ" PURGE="0" COMMENT="" />
    <EXPORT ORDINAL="738" NAME="??1ASCIIRangeFactory@@UAE@XZ" PURGE="0" COMMENT="" />
    <EXPORT ORDINAL="739" NAME="??1AbstractDOMParser@@UAE@XZ" PURGE="0" COMMENT="" />
    <EXPORT ORDINAL="740" NAME="??1AbstractNumericFacetValidator@@UAE@XZ" PURGE="0" COMMENT="" />
    <EXPORT ORDINAL="741" NAME="??1AbstractNumericValidator@@UAE@XZ" PURGE="0" COMMENT="" />
    <EXPORT ORDINAL="742" NAME="??1AbstractStringValidator@@UAE@XZ" PURGE="0" COMMENT="" />
    <EXPORT ORDINAL="743" NAME="??1AnySimpleTypeDatatypeValidator@@UAE@XZ" PURGE="0" COMMENT="" />
    <EXPORT ORDINAL="744" NAME="??1AnyURIDatatypeValidator@@UAE@XZ" PURGE="0" COMMENT="" />
    <EXPORT ORDINAL="745" NAME="??1ArrayIndexOutOfBoundsException@@UAE@XZ" PURGE="0" COMMENT="" />
    <EXPORT ORDINAL="746" NAME="??1AttrImpl@@UAE@XZ" PURGE="0" COMMENT="" />
    <EXPORT ORDINAL="747" NAME="??1AttrMapImpl@@UAE@XZ" PURGE="0" COMMENT="" />
    <EXPORT ORDINAL="748" NAME="??1AttrNSImpl@@UAE@XZ" PURGE="0" COMMENT="" />
    <EXPORT ORDINAL="749" NAME="??1AttributeList@@UAE@XZ" PURGE="0" COMMENT="" />
    <EXPORT ORDINAL="750" NAME="??1Attributes@@UAE@XZ" PURGE="0" COMMENT="" />
    <EXPORT ORDINAL="751" NAME="??1BMPattern@@QAE@XZ" PURGE="0" COMMENT="" />
    <EXPORT ORDINAL="752" NAME="??1Base64BinaryDatatypeValidator@@UAE@XZ" PURGE="0" COMMENT="" />
    <EXPORT ORDINAL="753" NAME="??1BinFileInputStream@@UAE@XZ" PURGE="0" COMMENT="" />
    <EXPORT ORDINAL="754" NAME="??1BinHTTPURLInputStream@@UAE@XZ" PURGE="0" COMMENT="" />
    <EXPORT ORDINAL="755" NAME="??1BinInputStream@@UAE@XZ" PURGE="0" COMMENT="" />
    <EXPORT ORDINAL="756" NAME="??1BinMemInputStream@@UAE@XZ" PURGE="0" COMMENT="" />
    <EXPORT ORDINAL="757" NAME="??1BitSet@@QAE@XZ" PURGE="0" COMMENT="" />
    <EXPORT ORDINAL="758" NAME="??1BlockRangeFactory@@UAE@XZ" PURGE="0" COMMENT="" />
    <EXPORT ORDINAL="759" NAME="??1BooleanDatatypeValidator@@UAE@XZ" PURGE="0" COMMENT="" />
    <EXPORT ORDINAL="760" NAME="??1CDATASectionImpl@@UAE@XZ" PURGE="0" COMMENT="" />
    <EXPORT ORDINAL="761" NAME="??1CharOp@@UAE@XZ" PURGE="0" COMMENT="" />
    <EXPORT ORDINAL="762" NAME="??1CharToken@@UAE@XZ" PURGE="0" COMMENT="" />
    <EXPORT ORDINAL="763" NAME="??1CharacterDataImpl@@UAE@XZ" PURGE="0" COMMENT="" />
    <EXPORT ORDINAL="764" NAME="??1ChildNode@@UAE@XZ" PURGE="0" COMMENT="" />
    <EXPORT ORDINAL="765" NAME="??1ChildOp@@UAE@XZ" PURGE="0" COMMENT="" />
    <EXPORT ORDINAL="766" NAME="??1ClosureToken@@UAE@XZ" PURGE="0" COMMENT="" />
    <EXPORT ORDINAL="767" NAME="??1CommentImpl@@UAE@XZ" PURGE="0" COMMENT="" />
    <EXPORT ORDINAL="768" NAME="??1ComplexTypeInfo@@QAE@XZ" PURGE="0" COMMENT="" />
    <EXPORT ORDINAL="769" NAME="??1ConcatToken@@UAE@XZ" PURGE="0" COMMENT="" />
    <EXPORT ORDINAL="770" NAME="??1ConditionOp@@UAE@XZ" PURGE="0" COMMENT="" />
    <EXPORT ORDINAL="771" NAME="??1ConditionToken@@UAE@XZ" PURGE="0" COMMENT="" />
    <EXPORT ORDINAL="772" NAME="??1ContentHandler@@UAE@XZ" PURGE="0" COMMENT="" />
    <EXPORT ORDINAL="773" NAME="??1DOMAttr@@UAE@XZ" PURGE="0" COMMENT="" />
    <EXPORT ORDINAL="774" NAME="??1DOMAttrImpl@@UAE@XZ" PURGE="0" COMMENT="" />
    <EXPORT ORDINAL="775" NAME="??1DOMAttrMapImpl@@UAE@XZ" PURGE="0" COMMENT="" />
    <EXPORT ORDINAL="776" NAME="??1DOMAttrNSImpl@@UAE@XZ" PURGE="0" COMMENT="" />
    <EXPORT ORDINAL="777" NAME="??1DOMBuilder@@UAE@XZ" PURGE="0" COMMENT="" />
    <EXPORT ORDINAL="778" NAME="??1DOMBuilderImpl@@UAE@XZ" PURGE="0" COMMENT="" />
    <EXPORT ORDINAL="779" NAME="??1DOMCDATASection@@UAE@XZ" PURGE="0" COMMENT="" />
    <EXPORT ORDINAL="780" NAME="??1DOMCDATASectionImpl@@UAE@XZ" PURGE="0" COMMENT="" />
    <EXPORT ORDINAL="781" NAME="??1DOMCharacterData@@UAE@XZ" PURGE="0" COMMENT="" />
    <EXPORT ORDINAL="782" NAME="??1DOMCharacterDataImpl@@QAE@XZ" PURGE="0" COMMENT="" />
    <EXPORT ORDINAL="783" NAME="??1DOMChildNode@@QAE@XZ" PURGE="0" COMMENT="" />
    <EXPORT ORDINAL="784" NAME="??1DOMComment@@UAE@XZ" PURGE="0" COMMENT="" />
    <EXPORT ORDINAL="785" NAME="??1DOMCommentImpl@@UAE@XZ" PURGE="0" COMMENT="" />
    <EXPORT ORDINAL="786" NAME="??1DOMDeepNodeListImpl@@UAE@XZ" PURGE="0" COMMENT="" />
    <EXPORT ORDINAL="787" NAME="??1DOMDocument@@UAE@XZ" PURGE="0" COMMENT="" />
    <EXPORT ORDINAL="788" NAME="??1DOMDocumentFragment@@UAE@XZ" PURGE="0" COMMENT="" />
    <EXPORT ORDINAL="789" NAME="??1DOMDocumentFragmentImpl@@UAE@XZ" PURGE="0" COMMENT="" />
    <EXPORT ORDINAL="790" NAME="??1DOMDocumentImpl@@UAE@XZ" PURGE="0" COMMENT="" />
    <EXPORT ORDINAL="791" NAME="??1DOMDocumentRange@@UAE@XZ" PURGE="0" COMMENT="" />
    <EXPORT ORDINAL="792" NAME="??1DOMDocumentTraversal@@UAE@XZ" PURGE="0" COMMENT="" />
    <EXPORT ORDINAL="793" NAME="??1DOMDocumentType@@UAE@XZ" PURGE="0" COMMENT="" />
    <EXPORT ORDINAL="794" NAME="??1DOMDocumentTypeImpl@@UAE@XZ" PURGE="0" COMMENT="" />
    <EXPORT ORDINAL="795" NAME="??1DOMElement@@UAE@XZ" PURGE="0" COMMENT="" />
    <EXPORT ORDINAL="796" NAME="??1DOMElementImpl@@UAE@XZ" PURGE="0" COMMENT="" />
    <EXPORT ORDINAL="797" NAME="??1DOMElementNSImpl@@UAE@XZ" PURGE="0" COMMENT="" />
    <EXPORT ORDINAL="798" NAME="??1DOMEntity@@UAE@XZ" PURGE="0" COMMENT="" />
    <EXPORT ORDINAL="799" NAME="??1DOMEntityImpl@@UAE@XZ" PURGE="0" COMMENT="" />
    <EXPORT ORDINAL="800" NAME="??1DOMEntityReference@@UAE@XZ" PURGE="0" COMMENT="" />
    <EXPORT ORDINAL="801" NAME="??1DOMEntityReferenceImpl@@UAE@XZ" PURGE="0" COMMENT="" />
    <EXPORT ORDINAL="802" NAME="??1DOMEntityResolver@@UAE@XZ" PURGE="0" COMMENT="" />
    <EXPORT ORDINAL="803" NAME="??1DOMError@@UAE@XZ" PURGE="0" COMMENT="" />
    <EXPORT ORDINAL="804" NAME="??1DOMErrorHandler@@UAE@XZ" PURGE="0" COMMENT="" />
    <EXPORT ORDINAL="805" NAME="??1DOMErrorImpl@@UAE@XZ" PURGE="0" COMMENT="" />
    <EXPORT ORDINAL="806" NAME="??1DOMException@@UAE@XZ" PURGE="0" COMMENT="" />
    <EXPORT ORDINAL="807" NAME="??1DOMImplementation@@UAE@XZ" PURGE="0" COMMENT="" />
    <EXPORT ORDINAL="808" NAME="??1DOMImplementationLS@@UAE@XZ" PURGE="0" COMMENT="" />
    <EXPORT ORDINAL="809" NAME="??1DOMImplementationSource@@UAE@XZ" PURGE="0" COMMENT="" />
    <EXPORT ORDINAL="810" NAME="??1DOMInputSource@@UAE@XZ" PURGE="0" COMMENT="" />
    <EXPORT ORDINAL="811" NAME="??1DOMLocator@@UAE@XZ" PURGE="0" COMMENT="" />
    <EXPORT ORDINAL="812" NAME="??1DOMLocatorImpl@@UAE@XZ" PURGE="0" COMMENT="" />
    <EXPORT ORDINAL="813" NAME="??1DOMNamedNodeMap@@UAE@XZ" PURGE="0" COMMENT="" />
    <EXPORT ORDINAL="814" NAME="??1DOMNamedNodeMapImpl@@UAE@XZ" PURGE="0" COMMENT="" />
    <EXPORT ORDINAL="815" NAME="??1DOMNode@@UAE@XZ" PURGE="0" COMMENT="" />
    <EXPORT ORDINAL="816" NAME="??1DOMNodeFilter@@UAE@XZ" PURGE="0" COMMENT="" />
    <EXPORT ORDINAL="817" NAME="??1DOMNodeImpl@@QAE@XZ" PURGE="0" COMMENT="" />
    <EXPORT ORDINAL="818" NAME="??1DOMNodeIterator@@UAE@XZ" PURGE="0" COMMENT="" />
    <EXPORT ORDINAL="819" NAME="??1DOMNodeIteratorImpl@@UAE@XZ" PURGE="0" COMMENT="" />
    <EXPORT ORDINAL="820" NAME="??1DOMNodeList@@UAE@XZ" PURGE="0" COMMENT="" />
    <EXPORT ORDINAL="821" NAME="??1DOMNodeListImpl@@UAE@XZ" PURGE="0" COMMENT="" />
    <EXPORT ORDINAL="822" NAME="??1DOMNotation@@UAE@XZ" PURGE="0" COMMENT="" />
    <EXPORT ORDINAL="823" NAME="??1DOMNotationImpl@@UAE@XZ" PURGE="0" COMMENT="" />
    <EXPORT ORDINAL="824" NAME="??1DOMParentNode@@QAE@XZ" PURGE="0" COMMENT="" />
    <EXPORT ORDINAL="825" NAME="??1DOMParser@@UAE@XZ" PURGE="0" COMMENT="" />
    <EXPORT ORDINAL="826" NAME="??1DOMProcessingInstruction@@UAE@XZ" PURGE="0" COMMENT="" />
    <EXPORT ORDINAL="827" NAME="??1DOMProcessingInstructionImpl@@UAE@XZ" PURGE="0" COMMENT="" />
    <EXPORT ORDINAL="828" NAME="??1DOMRange@@UAE@XZ" PURGE="0" COMMENT="" />
    <EXPORT ORDINAL="829" NAME="??1DOMRangeException@@UAE@XZ" PURGE="0" COMMENT="" />
    <EXPORT ORDINAL="830" NAME="??1DOMRangeImpl@@UAE@XZ" PURGE="0" COMMENT="" />
    <EXPORT ORDINAL="831" NAME="??1DOMString@@QAE@XZ" PURGE="0" COMMENT="" />
    <EXPORT ORDINAL="832" NAME="??1DOMText@@UAE@XZ" PURGE="0" COMMENT="" />
    <EXPORT ORDINAL="833" NAME="??1DOMTextImpl@@UAE@XZ" PURGE="0" COMMENT="" />
    <EXPORT ORDINAL="834" NAME="??1DOMTreeWalker@@UAE@XZ" PURGE="0" COMMENT="" />
    <EXPORT ORDINAL="835" NAME="??1DOMTreeWalkerImpl@@UAE@XZ" PURGE="0" COMMENT="" />
    <EXPORT ORDINAL="836" NAME="??1DOMUserDataHandler@@UAE@XZ" PURGE="0" COMMENT="" />
    <EXPORT ORDINAL="837" NAME="??1DOMWriter@@UAE@XZ" PURGE="0" COMMENT="" />
    <EXPORT ORDINAL="838" NAME="??1DOMWriterFilter@@UAE@XZ" PURGE="0" COMMENT="" />
    <EXPORT ORDINAL="839" NAME="??1DOMWriterImpl@@UAE@XZ" PURGE="0" COMMENT="" />
    <EXPORT ORDINAL="840" NAME="??1DOM_Attr@@QAE@XZ" PURGE="0" COMMENT="" />
    <EXPORT ORDINAL="841" NAME="??1DOM_CDATASection@@QAE@XZ" PURGE="0" COMMENT="" />
    <EXPORT ORDINAL="842" NAME="??1DOM_CharacterData@@QAE@XZ" PURGE="0" COMMENT="" />
    <EXPORT ORDINAL="843" NAME="??1DOM_Comment@@QAE@XZ" PURGE="0" COMMENT="" />
    <EXPORT ORDINAL="844" NAME="??1DOM_DOMException@@UAE@XZ" PURGE="0" COMMENT="" />
    <EXPORT ORDINAL="845" NAME="??1DOM_DOMImplementation@@QAE@XZ" PURGE="0" COMMENT="" />
    <EXPORT ORDINAL="846" NAME="??1DOM_Document@@QAE@XZ" PURGE="0" COMMENT="" />
    <EXPORT ORDINAL="847" NAME="??1DOM_DocumentFragment@@QAE@XZ" PURGE="0" COMMENT="" />
    <EXPORT ORDINAL="848" NAME="??1DOM_DocumentType@@QAE@XZ" PURGE="0" COMMENT="" />
    <EXPORT ORDINAL="849" NAME="??1DOM_Element@@QAE@XZ" PURGE="0" COMMENT="" />
    <EXPORT ORDINAL="850" NAME="??1DOM_Entity@@QAE@XZ" PURGE="0" COMMENT="" />
    <EXPORT ORDINAL="851" NAME="??1DOM_EntityReference@@QAE@XZ" PURGE="0" COMMENT="" />
    <EXPORT ORDINAL="852" NAME="??1DOM_NamedNodeMap@@QAE@XZ" PURGE="0" COMMENT="" />
    <EXPORT ORDINAL="853" NAME="??1DOM_Node@@QAE@XZ" PURGE="0" COMMENT="" />
    <EXPORT ORDINAL="854" NAME="??1DOM_NodeFilter@@UAE@XZ" PURGE="0" COMMENT="" />
    <EXPORT ORDINAL="855" NAME="??1DOM_NodeIterator@@QAE@XZ" PURGE="0" COMMENT="" />
    <EXPORT ORDINAL="856" NAME="??1DOM_NodeList@@QAE@XZ" PURGE="0" COMMENT="" />
    <EXPORT ORDINAL="857" NAME="??1DOM_Notation@@QAE@XZ" PURGE="0" COMMENT="" />
    <EXPORT ORDINAL="858" NAME="??1DOM_ProcessingInstruction@@QAE@XZ" PURGE="0" COMMENT="" />
    <EXPORT ORDINAL="859" NAME="??1DOM_Range@@QAE@XZ" PURGE="0" COMMENT="" />
    <EXPORT ORDINAL="860" NAME="??1DOM_RangeException@@UAE@XZ" PURGE="0" COMMENT="" />
    <EXPORT ORDINAL="861" NAME="??1DOM_Text@@QAE@XZ" PURGE="0" COMMENT="" />
    <EXPORT ORDINAL="862" NAME="??1DOM_TreeWalker@@QAE@XZ" PURGE="0" COMMENT="" />
    <EXPORT ORDINAL="863" NAME="??1DOM_XMLDecl@@QAE@XZ" PURGE="0" COMMENT="" />
    <EXPORT ORDINAL="864" NAME="??1DTDAttDef@@UAE@XZ" PURGE="0" COMMENT="" />
    <EXPORT ORDINAL="865" NAME="??1DTDElementDecl@@UAE@XZ" PURGE="0" COMMENT="" />
    <EXPORT ORDINAL="866" NAME="??1DTDEntityDecl@@UAE@XZ" PURGE="0" COMMENT="" />
    <EXPORT ORDINAL="867" NAME="??1DTDGrammar@@UAE@XZ" PURGE="0" COMMENT="" />
    <EXPORT ORDINAL="868" NAME="??1DTDHandler@@UAE@XZ" PURGE="0" COMMENT="" />
    <EXPORT ORDINAL="869" NAME="??1DTDScanner@@UAE@XZ" PURGE="0" COMMENT="" />
    <EXPORT ORDINAL="870" NAME="??1DTDValidator@@UAE@XZ" PURGE="0" COMMENT="" />
    <EXPORT ORDINAL="871" NAME="??1DatatypeValidator@@UAE@XZ" PURGE="0" COMMENT="" />
    <EXPORT ORDINAL="872" NAME="??1DatatypeValidatorFactory@@QAE@XZ" PURGE="0" COMMENT="" />
    <EXPORT ORDINAL="873" NAME="??1DateDatatypeValidator@@UAE@XZ" PURGE="0" COMMENT="" />
    <EXPORT ORDINAL="874" NAME="??1DateTimeDatatypeValidator@@UAE@XZ" PURGE="0" COMMENT="" />
    <EXPORT ORDINAL="875" NAME="??1DateTimeValidator@@UAE@XZ" PURGE="0" COMMENT="" />
    <EXPORT ORDINAL="876" NAME="??1DayDatatypeValidator@@UAE@XZ" PURGE="0" COMMENT="" />
    <EXPORT ORDINAL="877" NAME="??1DecimalDatatypeValidator@@UAE@XZ" PURGE="0" COMMENT="" />
    <EXPORT ORDINAL="878" NAME="??1DeclHandler@@UAE@XZ" PURGE="0" COMMENT="" />
    <EXPORT ORDINAL="879" NAME="??1DeepNodeListImpl@@UAE@XZ" PURGE="0" COMMENT="" />
    <EXPORT ORDINAL="880" NAME="??1DefaultHandler@@UAE@XZ" PURGE="0" COMMENT="" />
    <EXPORT ORDINAL="881" NAME="??1DocTypeHandler@@UAE@XZ" PURGE="0" COMMENT="" />
    <EXPORT ORDINAL="882" NAME="??1DocumentFragmentImpl@@UAE@XZ" PURGE="0" COMMENT="" />
    <EXPORT ORDINAL="883" NAME="??1DocumentHandler@@UAE@XZ" PURGE="0" COMMENT="" />
    <EXPORT ORDINAL="884" NAME="??1DocumentImpl@@UAE@XZ" PURGE="0" COMMENT="" />
    <EXPORT ORDINAL="885" NAME="??1DocumentTypeImpl@@UAE@XZ" PURGE="0" COMMENT="" />
    <EXPORT ORDINAL="886" NAME="??1DomMemDebug@@QAE@XZ" PURGE="0" COMMENT="" />
    <EXPORT ORDINAL="887" NAME="??1DoubleDatatypeValidator@@UAE@XZ" PURGE="0" COMMENT="" />
    <EXPORT ORDINAL="888" NAME="??1DurationDatatypeValidator@@UAE@XZ" PURGE="0" COMMENT="" />
    <EXPORT ORDINAL="889" NAME="??1ENTITYDatatypeValidator@@UAE@XZ" PURGE="0" COMMENT="" />
    <EXPORT ORDINAL="890" NAME="??1ElemStack@@QAE@XZ" PURGE="0" COMMENT="" />
    <EXPORT ORDINAL="891" NAME="??1ElementDefinitionImpl@@UAE@XZ" PURGE="0" COMMENT="" />
    <EXPORT ORDINAL="892" NAME="??1ElementImpl@@UAE@XZ" PURGE="0" COMMENT="" />
    <EXPORT ORDINAL="893" NAME="??1ElementNSImpl@@UAE@XZ" PURGE="0" COMMENT="" />
    <EXPORT ORDINAL="894" NAME="??1EmptyStackException@@UAE@XZ" PURGE="0" COMMENT="" />
    <EXPORT ORDINAL="895" NAME="??1EncodingValidator@@QAE@XZ" PURGE="0" COMMENT="" />
    <EXPORT ORDINAL="896" NAME="??1EndOfEntityException@@QAE@XZ" PURGE="0" COMMENT="" />
    <EXPORT ORDINAL="897" NAME="??1EntityImpl@@UAE@XZ" PURGE="0" COMMENT="" />
    <EXPORT ORDINAL="898" NAME="??1EntityReferenceImpl@@UAE@XZ" PURGE="0" COMMENT="" />
    <EXPORT ORDINAL="899" NAME="??1EntityResolver@@UAE@XZ" PURGE="0" COMMENT="" />
    <EXPORT ORDINAL="900" NAME="??1ErrorHandler@@UAE@XZ" PURGE="0" COMMENT="" />
    <EXPORT ORDINAL="901" NAME="??1FieldActivator@@QAE@XZ" PURGE="0" COMMENT="" />
    <EXPORT ORDINAL="902" NAME="??1FieldMatcher@@UAE@XZ" PURGE="0" COMMENT="" />
    <EXPORT ORDINAL="903" NAME="??1FieldValueMap@@QAE@XZ" PURGE="0" COMMENT="" />
    <EXPORT ORDINAL="904" NAME="??1FloatDatatypeValidator@@UAE@XZ" PURGE="0" COMMENT="" />
    <EXPORT ORDINAL="905" NAME="??1GeneralAttributeCheck@@QAE@XZ" PURGE="0" COMMENT="" />
    <EXPORT ORDINAL="906" NAME="??1Grammar@@UAE@XZ" PURGE="0" COMMENT="" />
    <EXPORT ORDINAL="907" NAME="??1HandlerBase@@UAE@XZ" PURGE="0" COMMENT="" />
    <EXPORT ORDINAL="908" NAME="??1HashCMStateSet@@UAE@XZ" PURGE="0" COMMENT="" />
    <EXPORT ORDINAL="909" NAME="??1HashPtr@@QAE@XZ" PURGE="0" COMMENT="" />
    <EXPORT ORDINAL="910" NAME="??1HashXMLCh@@UAE@XZ" PURGE="0" COMMENT="" />
    <EXPORT ORDINAL="911" NAME="??1HexBinaryDatatypeValidator@@UAE@XZ" PURGE="0" COMMENT="" />
    <EXPORT ORDINAL="912" NAME="??1IC_Field@@QAE@XZ" PURGE="0" COMMENT="" />
    <EXPORT ORDINAL="913" NAME="??1IC_Key@@UAE@XZ" PURGE="0" COMMENT="" />
    <EXPORT ORDINAL="914" NAME="??1IC_KeyRef@@UAE@XZ" PURGE="0" COMMENT="" />
    <EXPORT ORDINAL="915" NAME="??1IC_Selector@@QAE@XZ" PURGE="0" COMMENT="" />
    <EXPORT ORDINAL="916" NAME="??1IC_Unique@@UAE@XZ" PURGE="0" COMMENT="" />
    <EXPORT ORDINAL="917" NAME="??1IDDatatypeValidator@@UAE@XZ" PURGE="0" COMMENT="" />
    <EXPORT ORDINAL="918" NAME="??1IDREFDatatypeValidator@@UAE@XZ" PURGE="0" COMMENT="" />
    <EXPORT ORDINAL="919" NAME="??1IOException@@UAE@XZ" PURGE="0" COMMENT="" />
    <EXPORT ORDINAL="920" NAME="??1IdentityConstraint@@UAE@XZ" PURGE="0" COMMENT="" />
    <EXPORT ORDINAL="921" NAME="??1IllegalArgumentException@@UAE@XZ" PURGE="0" COMMENT="" />
    <EXPORT ORDINAL="922" NAME="??1InputSource@@UAE@XZ" PURGE="0" COMMENT="" />
    <EXPORT ORDINAL="923" NAME="??1InvalidCastException@@UAE@XZ" PURGE="0" COMMENT="" />
    <EXPORT ORDINAL="924" NAME="??1InvalidDatatypeFacetException@@UAE@XZ" PURGE="0" COMMENT="" />
    <EXPORT ORDINAL="925" NAME="??1InvalidDatatypeValueException@@UAE@XZ" PURGE="0" COMMENT="" />
    <EXPORT ORDINAL="926" NAME="??1KVStringPair@@QAE@XZ" PURGE="0" COMMENT="" />
    <EXPORT ORDINAL="927" NAME="??1LexicalHandler@@UAE@XZ" PURGE="0" COMMENT="" />
    <EXPORT ORDINAL="928" NAME="??1ListDatatypeValidator@@UAE@XZ" PURGE="0" COMMENT="" />
    <EXPORT ORDINAL="929" NAME="??1LocalFileFormatTarget@@UAE@XZ" PURGE="0" COMMENT="" />
    <EXPORT ORDINAL="930" NAME="??1LocalFileInputSource@@UAE@XZ" PURGE="0" COMMENT="" />
    <EXPORT ORDINAL="931" NAME="??1Locator@@UAE@XZ" PURGE="0" COMMENT="" />
    <EXPORT ORDINAL="932" NAME="??1MalformedURLException@@UAE@XZ" PURGE="0" COMMENT="" />
    <EXPORT ORDINAL="933" NAME="??1Match@@QAE@XZ" PURGE="0" COMMENT="" />
    <EXPORT ORDINAL="934" NAME="??1MemBufFormatTarget@@UAE@XZ" PURGE="0" COMMENT="" />
    <EXPORT ORDINAL="935" NAME="??1MemBufInputSource@@UAE@XZ" PURGE="0" COMMENT="" />
    <EXPORT ORDINAL="936" NAME="??1ModifierOp@@UAE@XZ" PURGE="0" COMMENT="" />
    <EXPORT ORDINAL="937" NAME="??1ModifierToken@@UAE@XZ" PURGE="0" COMMENT="" />
    <EXPORT ORDINAL="938" NAME="??1MonthDatatypeValidator@@UAE@XZ" PURGE="0" COMMENT="" />
    <EXPORT ORDINAL="939" NAME="??1MonthDayDatatypeValidator@@UAE@XZ" PURGE="0" COMMENT="" />
    <EXPORT ORDINAL="940" NAME="??1NCNameDatatypeValidator@@UAE@XZ" PURGE="0" COMMENT="" />
    <EXPORT ORDINAL="941" NAME="??1NOTATIONDatatypeValidator@@UAE@XZ" PURGE="0" COMMENT="" />
    <EXPORT ORDINAL="942" NAME="??1NameDatatypeValidator@@UAE@XZ" PURGE="0" COMMENT="" />
    <EXPORT ORDINAL="943" NAME="??1NamedNodeMapImpl@@UAE@XZ" PURGE="0" COMMENT="" />
    <EXPORT ORDINAL="944" NAME="??1NamespaceScope@@QAE@XZ" PURGE="0" COMMENT="" />
    <EXPORT ORDINAL="945" NAME="??1NetAccessorException@@UAE@XZ" PURGE="0" COMMENT="" />
    <EXPORT ORDINAL="946" NAME="??1NoSuchElementException@@UAE@XZ" PURGE="0" COMMENT="" />
    <EXPORT ORDINAL="947" NAME="??1NodeImpl@@UAE@XZ" PURGE="0" COMMENT="" />
    <EXPORT ORDINAL="948" NAME="??1NodeIteratorImpl@@UAE@XZ" PURGE="0" COMMENT="" />
    <EXPORT ORDINAL="949" NAME="??1NodeListImpl@@UAE@XZ" PURGE="0" COMMENT="" />
    <EXPORT ORDINAL="950" NAME="??1NotationImpl@@UAE@XZ" PURGE="0" COMMENT="" />
    <EXPORT ORDINAL="951" NAME="??1NullPointerException@@UAE@XZ" PURGE="0" COMMENT="" />
    <EXPORT ORDINAL="952" NAME="??1NumberFormatException@@UAE@XZ" PURGE="0" COMMENT="" />
    <EXPORT ORDINAL="953" NAME="??1Op@@UAE@XZ" PURGE="0" COMMENT="" />
    <EXPORT ORDINAL="954" NAME="??1OpFactory@@QAE@XZ" PURGE="0" COMMENT="" />
    <EXPORT ORDINAL="955" NAME="??1ParenToken@@UAE@XZ" PURGE="0" COMMENT="" />
    <EXPORT ORDINAL="956" NAME="??1ParentNode@@UAE@XZ" PURGE="0" COMMENT="" />
    <EXPORT ORDINAL="957" NAME="??1ParseException@@UAE@XZ" PURGE="0" COMMENT="" />
    <EXPORT ORDINAL="958" NAME="??1Parser@@UAE@XZ" PURGE="0" COMMENT="" />
    <EXPORT ORDINAL="959" NAME="??1ParserForXMLSchema@@UAE@XZ" PURGE="0" COMMENT="" />
    <EXPORT ORDINAL="960" NAME="??1ProcessingInstructionImpl@@UAE@XZ" PURGE="0" COMMENT="" />
    <EXPORT ORDINAL="961" NAME="??1QName@@QAE@XZ" PURGE="0" COMMENT="" />
    <EXPORT ORDINAL="962" NAME="??1QNameDatatypeValidator@@UAE@XZ" PURGE="0" COMMENT="" />
    <EXPORT ORDINAL="963" NAME="??1RangeFactory@@UAE@XZ" PURGE="0" COMMENT="" />
    <EXPORT ORDINAL="964" NAME="??1RangeImpl@@UAE@XZ" PURGE="0" COMMENT="" />
    <EXPORT ORDINAL="965" NAME="??1RangeOp@@UAE@XZ" PURGE="0" COMMENT="" />
    <EXPORT ORDINAL="966" NAME="??1RangeToken@@UAE@XZ" PURGE="0" COMMENT="" />
    <EXPORT ORDINAL="967" NAME="??1RangeTokenElemMap@@QAE@XZ" PURGE="0" COMMENT="" />
    <EXPORT ORDINAL="968" NAME="??1RangeTokenMap@@UAE@XZ" PURGE="0" COMMENT="" />
    <EXPORT ORDINAL="969" NAME="??1ReaderMgr@@UAE@XZ" PURGE="0" COMMENT="" />
    <EXPORT ORDINAL="970" NAME="??1RefCountedImpl@@UAE@XZ" PURGE="0" COMMENT="" />
    <EXPORT ORDINAL="971" NAME="??1RegularExpression@@QAE@XZ" PURGE="0" COMMENT="" />
    <EXPORT ORDINAL="972" NAME="??1RegxParser@@UAE@XZ" PURGE="0" COMMENT="" />
    <EXPORT ORDINAL="973" NAME="??1RegxUtil@@QAE@XZ" PURGE="0" COMMENT="" />
    <EXPORT ORDINAL="974" NAME="??1RuntimeException@@UAE@XZ" PURGE="0" COMMENT="" />
    <EXPORT ORDINAL="975" NAME="??1SAX2XMLReader@@UAE@XZ" PURGE="0" COMMENT="" />
    <EXPORT ORDINAL="976" NAME="??1SAX2XMLReaderImpl@@UAE@XZ" PURGE="0" COMMENT="" />
    <EXPORT ORDINAL="977" NAME="??1SAXException@@UAE@XZ" PURGE="0" COMMENT="" />
    <EXPORT ORDINAL="978" NAME="??1SAXParseException@@UAE@XZ" PURGE="0" COMMENT="" />
    <EXPORT ORDINAL="979" NAME="??1SAXParser@@UAE@XZ" PURGE="0" COMMENT="" />
    <EXPORT ORDINAL="980" NAME="??1SchemaAttDef@@UAE@XZ" PURGE="0" COMMENT="" />
    <EXPORT ORDINAL="981" NAME="??1SchemaDateTimeException@@UAE@XZ" PURGE="0" COMMENT="" />
    <EXPORT ORDINAL="982" NAME="??1SchemaElementDecl@@UAE@XZ" PURGE="0" COMMENT="" />
    <EXPORT ORDINAL="983" NAME="??1SchemaGrammar@@UAE@XZ" PURGE="0" COMMENT="" />
    <EXPORT ORDINAL="984" NAME="??1SchemaValidator@@UAE@XZ" PURGE="0" COMMENT="" />
    <EXPORT ORDINAL="985" NAME="??1SelectorMatcher@@UAE@XZ" PURGE="0" COMMENT="" />
    <EXPORT ORDINAL="986" NAME="??1StdInInputSource@@UAE@XZ" PURGE="0" COMMENT="" />
    <EXPORT ORDINAL="987" NAME="??1StdOutFormatTarget@@UAE@XZ" PURGE="0" COMMENT="" />
    <EXPORT ORDINAL="988" NAME="??1StringDatatypeValidator@@UAE@XZ" PURGE="0" COMMENT="" />
    <EXPORT ORDINAL="989" NAME="??1StringOp@@UAE@XZ" PURGE="0" COMMENT="" />
    <EXPORT ORDINAL="990" NAME="??1StringToken@@UAE@XZ" PURGE="0" COMMENT="" />
    <EXPORT ORDINAL="991" NAME="??1SubstitutionGroupComparator@@QAE@XZ" PURGE="0" COMMENT="" />
    <EXPORT ORDINAL="992" NAME="??1TextImpl@@UAE@XZ" PURGE="0" COMMENT="" />
    <EXPORT ORDINAL="993" NAME="??1ThrowEOEJanitor@@QAE@XZ" PURGE="0" COMMENT="" />
    <EXPORT ORDINAL="994" NAME="??1TimeDatatypeValidator@@UAE@XZ" PURGE="0" COMMENT="" />
    <EXPORT ORDINAL="995" NAME="??1Token@@UAE@XZ" PURGE="0" COMMENT="" />
    <EXPORT ORDINAL="996" NAME="??1TokenFactory@@QAE@XZ" PURGE="0" COMMENT="" />
    <EXPORT ORDINAL="997" NAME="??1TranscodingException@@UAE@XZ" PURGE="0" COMMENT="" />
    <EXPORT ORDINAL="998" NAME="??1TraverseSchema@@QAE@XZ" PURGE="0" COMMENT="" />
    <EXPORT ORDINAL="999" NAME="??1TreeWalkerImpl@@UAE@XZ" PURGE="0" COMMENT="" />
    <EXPORT ORDINAL="1000" NAME="??1URLInputSource@@UAE@XZ" PURGE="0" COMMENT="" />
    <EXPORT ORDINAL="1001" NAME="??1UTFDataFormatException@@UAE@XZ" PURGE="0" COMMENT="" />
    <EXPORT ORDINAL="1002" NAME="??1UnexpectedEOFException@@UAE@XZ" PURGE="0" COMMENT="" />
    <EXPORT ORDINAL="1003" NAME="??1UnicodeRangeFactory@@UAE@XZ" PURGE="0" COMMENT="" />
    <EXPORT ORDINAL="1004" NAME="??1UnionDatatypeValidator@@UAE@XZ" PURGE="0" COMMENT="" />
    <EXPORT ORDINAL="1005" NAME="??1UnionOp@@UAE@XZ" PURGE="0" COMMENT="" />
    <EXPORT ORDINAL="1006" NAME="??1UnionToken@@UAE@XZ" PURGE="0" COMMENT="" />
    <EXPORT ORDINAL="1007" NAME="??1UnsupportedEncodingException@@UAE@XZ" PURGE="0" COMMENT="" />
    <EXPORT ORDINAL="1008" NAME="??1ValueStore@@QAE@XZ" PURGE="0" COMMENT="" />
    <EXPORT ORDINAL="1009" NAME="??1ValueStoreCache@@QAE@XZ" PURGE="0" COMMENT="" />
    <EXPORT ORDINAL="1010" NAME="??1VecAttrListImpl@@UAE@XZ" PURGE="0" COMMENT="" />
    <EXPORT ORDINAL="1011" NAME="??1VecAttributesImpl@@UAE@XZ" PURGE="0" COMMENT="" />
    <EXPORT ORDINAL="1012" NAME="??1Win32LCPTranscoder@@UAE@XZ" PURGE="0" COMMENT="" />
    <EXPORT ORDINAL="1013" NAME="??1Win32MsgLoader@@UAE@XZ" PURGE="0" COMMENT="" />
    <EXPORT ORDINAL="1014" NAME="??1Win32TransService@@UAE@XZ" PURGE="0" COMMENT="" />
    <EXPORT ORDINAL="1015" NAME="??1Win32Transcoder@@UAE@XZ" PURGE="0" COMMENT="" />
    <EXPORT ORDINAL="1016" NAME="??1WinSockNetAccessor@@UAE@XZ" PURGE="0" COMMENT="" />
    <EXPORT ORDINAL="1017" NAME="??1Wrapper4DOMInputSource@@UAE@XZ" PURGE="0" COMMENT="" />
    <EXPORT ORDINAL="1018" NAME="??1Wrapper4InputSource@@UAE@XZ" PURGE="0" COMMENT="" />
    <EXPORT ORDINAL="1019" NAME="??1XML256TableTranscoder@@UAE@XZ" PURGE="0" COMMENT="" />
    <EXPORT ORDINAL="1020" NAME="??1XML88591Transcoder@@UAE@XZ" PURGE="0" COMMENT="" />
    <EXPORT ORDINAL="1021" NAME="??1XMLASCIITranscoder@@UAE@XZ" PURGE="0" COMMENT="" />
    <EXPORT ORDINAL="1022" NAME="??1XMLAbstractDoubleFloat@@UAE@XZ" PURGE="0" COMMENT="" />
    <EXPORT ORDINAL="1023" NAME="??1XMLAttDef@@UAE@XZ" PURGE="0" COMMENT="" />
    <EXPORT ORDINAL="1024" NAME="??1XMLAttDefList@@UAE@XZ" PURGE="0" COMMENT="" />
    <EXPORT ORDINAL="1025" NAME="??1XMLAttr@@QAE@XZ" PURGE="0" COMMENT="" />
    <EXPORT ORDINAL="1026" NAME="??1XMLBigDecimal@@UAE@XZ" PURGE="0" COMMENT="" />
    <EXPORT ORDINAL="1027" NAME="??1XMLBigInteger@@QAE@XZ" PURGE="0" COMMENT="" />
    <EXPORT ORDINAL="1028" NAME="??1XMLBuffer@@QAE@XZ" PURGE="0" COMMENT="" />
    <EXPORT ORDINAL="1029" NAME="??1XMLBufferMgr@@QAE@XZ" PURGE="0" COMMENT="" />
    <EXPORT ORDINAL="1030" NAME="??1XMLChTranscoder@@UAE@XZ" PURGE="0" COMMENT="" />
    <EXPORT ORDINAL="1031" NAME="??1XMLContentModel@@UAE@XZ" PURGE="0" COMMENT="" />
    <EXPORT ORDINAL="1032" NAME="??1XMLDateTime@@UAE@XZ" PURGE="0" COMMENT="" />
    <EXPORT ORDINAL="1033" NAME="??1XMLDeclImpl@@UAE@XZ" PURGE="0" COMMENT="" />
    <EXPORT ORDINAL="1034" NAME="??1XMLDeleter@@UAE@XZ" PURGE="0" COMMENT="" />
    <EXPORT ORDINAL="1035" NAME="??1XMLDocumentHandler@@UAE@XZ" PURGE="0" COMMENT="" />
    <EXPORT ORDINAL="1036" NAME="??1XMLDouble@@UAE@XZ" PURGE="0" COMMENT="" />
    <EXPORT ORDINAL="1037" NAME="??1XMLEBCDICTranscoder@@UAE@XZ" PURGE="0" COMMENT="" />
    <EXPORT ORDINAL="1038" NAME="??1XMLElementDecl@@UAE@XZ" PURGE="0" COMMENT="" />
    <EXPORT ORDINAL="1039" NAME="??1XMLEntityDecl@@UAE@XZ" PURGE="0" COMMENT="" />
    <EXPORT ORDINAL="1040" NAME="??1XMLEntityHandler@@UAE@XZ" PURGE="0" COMMENT="" />
    <EXPORT ORDINAL="1041" NAME="??1XMLErrorReporter@@UAE@XZ" PURGE="0" COMMENT="" />
    <EXPORT ORDINAL="1042" NAME="??1XMLException@@UAE@XZ" PURGE="0" COMMENT="" />
    <EXPORT ORDINAL="1043" NAME="??1XMLFloat@@UAE@XZ" PURGE="0" COMMENT="" />
    <EXPORT ORDINAL="1044" NAME="??1XMLFormatTarget@@UAE@XZ" PURGE="0" COMMENT="" />
    <EXPORT ORDINAL="1045" NAME="??1XMLFormatter@@QAE@XZ" PURGE="0" COMMENT="" />
    <EXPORT ORDINAL="1046" NAME="??1XMLIBM1140Transcoder@@UAE@XZ" PURGE="0" COMMENT="" />
    <EXPORT ORDINAL="1047" NAME="??1XMLInteger@@QAE@XZ" PURGE="0" COMMENT="" />
    <EXPORT ORDINAL="1048" NAME="??1XMLLCPTranscoder@@UAE@XZ" PURGE="0" COMMENT="" />
    <EXPORT ORDINAL="1049" NAME="??1XMLMsgLoader@@UAE@XZ" PURGE="0" COMMENT="" />
    <EXPORT ORDINAL="1050" NAME="??1XMLMutex@@QAE@XZ" PURGE="0" COMMENT="" />
    <EXPORT ORDINAL="1051" NAME="??1XMLMutexLock@@QAE@XZ" PURGE="0" COMMENT="" />
    <EXPORT ORDINAL="1052" NAME="??1XMLNetAccessor@@UAE@XZ" PURGE="0" COMMENT="" />
    <EXPORT ORDINAL="1053" NAME="??1XMLNotationDecl@@QAE@XZ" PURGE="0" COMMENT="" />
    <EXPORT ORDINAL="1054" NAME="??1XMLNumber@@UAE@XZ" PURGE="0" COMMENT="" />
    <EXPORT ORDINAL="1055" NAME="??1XMLPScanToken@@QAE@XZ" PURGE="0" COMMENT="" />
    <EXPORT ORDINAL="1056" NAME="??1XMLPlatformUtilsException@@UAE@XZ" PURGE="0" COMMENT="" />
    <EXPORT ORDINAL="1057" NAME="??1XMLRangeFactory@@UAE@XZ" PURGE="0" COMMENT="" />
    <EXPORT ORDINAL="1058" NAME="??1XMLReader@@QAE@XZ" PURGE="0" COMMENT="" />
    <EXPORT ORDINAL="1059" NAME="??1XMLRefInfo@@QAE@XZ" PURGE="0" COMMENT="" />
    <EXPORT ORDINAL="1060" NAME="??1XMLScanner@@QAE@XZ" PURGE="0" COMMENT="" />
    <EXPORT ORDINAL="1061" NAME="??1XMLStringPool@@QAE@XZ" PURGE="0" COMMENT="" />
    <EXPORT ORDINAL="1062" NAME="??1XMLStringTokenizer@@QAE@XZ" PURGE="0" COMMENT="" />
    <EXPORT ORDINAL="1063" NAME="??1XMLTransService@@UAE@XZ" PURGE="0" COMMENT="" />
    <EXPORT ORDINAL="1064" NAME="??1XMLTranscoder@@UAE@XZ" PURGE="0" COMMENT="" />
    <EXPORT ORDINAL="1065" NAME="??1XMLUCS4Transcoder@@UAE@XZ" PURGE="0" COMMENT="" />
    <EXPORT ORDINAL="1066" NAME="??1XMLURL@@UAE@XZ" PURGE="0" COMMENT="" />
    <EXPORT ORDINAL="1067" NAME="??1XMLUTF16Transcoder@@UAE@XZ" PURGE="0" COMMENT="" />
    <EXPORT ORDINAL="1068" NAME="??1XMLUTF8Transcoder@@UAE@XZ" PURGE="0" COMMENT="" />
    <EXPORT ORDINAL="1069" NAME="??1XMLUniCharacter@@QAE@XZ" PURGE="0" COMMENT="" />
    <EXPORT ORDINAL="1070" NAME="??1XMLUri@@UAE@XZ" PURGE="0" COMMENT="" />
    <EXPORT ORDINAL="1071" NAME="??1XMLValidator@@UAE@XZ" PURGE="0" COMMENT="" />
    <EXPORT ORDINAL="1072" NAME="??1XMLWin1252Transcoder@@UAE@XZ" PURGE="0" COMMENT="" />
    <EXPORT ORDINAL="1073" NAME="??1XPathException@@UAE@XZ" PURGE="0" COMMENT="" />
    <EXPORT ORDINAL="1074" NAME="??1XPathMatcher@@UAE@XZ" PURGE="0" COMMENT="" />
    <EXPORT ORDINAL="1075" NAME="??1XPathMatcherStack@@QAE@XZ" PURGE="0" COMMENT="" />
    <EXPORT ORDINAL="1076" NAME="??1XPathScanner@@UAE@XZ" PURGE="0" COMMENT="" />
    <EXPORT ORDINAL="1077" NAME="??1XPathScannerForSchema@@UAE@XZ" PURGE="0" COMMENT="" />
    <EXPORT ORDINAL="1078" NAME="??1XSDDOMParser@@UAE@XZ" PURGE="0" COMMENT="" />
    <EXPORT ORDINAL="1079" NAME="??1XSDElementNSImpl@@UAE@XZ" PURGE="0" COMMENT="" />
    <EXPORT ORDINAL="1080" NAME="??1XSDErrorReporter@@UAE@XZ" PURGE="0" COMMENT="" />
    <EXPORT ORDINAL="1081" NAME="??1XSDLocator@@UAE@XZ" PURGE="0" COMMENT="" />
    <EXPORT ORDINAL="1082" NAME="??1XUtil@@IAE@XZ" PURGE="0" COMMENT="" />
    <EXPORT ORDINAL="1083" NAME="??1XercesAttGroupInfo@@QAE@XZ" PURGE="0" COMMENT="" />
    <EXPORT ORDINAL="1084" NAME="??1XercesDOMParser@@UAE@XZ" PURGE="0" COMMENT="" />
    <EXPORT ORDINAL="1085" NAME="??1XercesGroupInfo@@QAE@XZ" PURGE="0" COMMENT="" />
    <EXPORT ORDINAL="1086" NAME="??1XercesLocationPath@@QAE@XZ" PURGE="0" COMMENT="" />
    <EXPORT ORDINAL="1087" NAME="??1XercesNodeTest@@QAE@XZ" PURGE="0" COMMENT="" />
    <EXPORT ORDINAL="1088" NAME="??1XercesStep@@QAE@XZ" PURGE="0" COMMENT="" />
    <EXPORT ORDINAL="1089" NAME="??1XercesXPath@@QAE@XZ" PURGE="0" COMMENT="" />
    <EXPORT ORDINAL="1090" NAME="??1YearDatatypeValidator@@UAE@XZ" PURGE="0" COMMENT="" />
    <EXPORT ORDINAL="1091" NAME="??1YearMonthDatatypeValidator@@UAE@XZ" PURGE="0" COMMENT="" />
    <EXPORT ORDINAL="1092" NAME="??4AbstractNumericFacetValidator@@QAEAAV0@ABV0@@Z" PURGE="4" COMMENT="" />
    <EXPORT ORDINAL="1093" NAME="??4AbstractNumericValidator@@QAEAAV0@ABV0@@Z" PURGE="4" COMMENT="" />
    <EXPORT ORDINAL="1094" NAME="??4AbstractStringValidator@@QAEAAV0@ABV0@@Z" PURGE="4" COMMENT="" />
    <EXPORT ORDINAL="1095" NAME="??4AnySimpleTypeDatatypeValidator@@QAEAAV0@ABV0@@Z" PURGE="4" COMMENT="" />
    <EXPORT ORDINAL="1096" NAME="??4AnyURIDatatypeValidator@@QAEAAV0@ABV0@@Z" PURGE="4" COMMENT="" />
    <EXPORT ORDINAL="1097" NAME="??4ArrayIndexOutOfBoundsException@@QAEAAV0@ABV0@@Z" PURGE="4" COMMENT="" />
    <EXPORT ORDINAL="1098" NAME="??4AttrImpl@@QAEAAV0@ABV0@@Z" PURGE="4" COMMENT="" />
    <EXPORT ORDINAL="1099" NAME="??4AttrMapImpl@@QAEAAV0@ABV0@@Z" PURGE="4" COMMENT="" />
    <EXPORT ORDINAL="1100" NAME="??4AttrNSImpl@@QAEAAV0@ABV0@@Z" PURGE="4" COMMENT="" />
    <EXPORT ORDINAL="1101" NAME="??4Base64@@QAEAAV0@ABV0@@Z" PURGE="4" COMMENT="" />
    <EXPORT ORDINAL="1102" NAME="??4Base64BinaryDatatypeValidator@@QAEAAV0@ABV0@@Z" PURGE="4" COMMENT="" />
    <EXPORT ORDINAL="1103" NAME="??4BitSet@@QAEAAV0@ABV0@@Z" PURGE="4" COMMENT="" />
    <EXPORT ORDINAL="1104" NAME="??4BooleanDatatypeValidator@@QAEAAV0@ABV0@@Z" PURGE="4" COMMENT="" />
    <EXPORT ORDINAL="1105" NAME="??4CDATASectionImpl@@QAEAAV0@ABV0@@Z" PURGE="4" COMMENT="" />
    <EXPORT ORDINAL="1106" NAME="??4CharacterDataImpl@@QAEAAV0@ABV0@@Z" PURGE="4" COMMENT="" />
    <EXPORT ORDINAL="1107" NAME="??4ChildNode@@QAEAAV0@ABV0@@Z" PURGE="4" COMMENT="" />
    <EXPORT ORDINAL="1108" NAME="??4CommentImpl@@QAEAAV0@ABV0@@Z" PURGE="4" COMMENT="" />
    <EXPORT ORDINAL="1109" NAME="??4DOMAttr@@IAEAAV0@ABV0@@Z" PURGE="4" COMMENT="" />
    <EXPORT ORDINAL="1110" NAME="??4DOMAttrMapImpl@@QAEAAV0@ABV0@@Z" PURGE="4" COMMENT="" />
    <EXPORT ORDINAL="1111" NAME="??4DOMBuilder@@IAEAAV0@ABV0@@Z" PURGE="4" COMMENT="" />
    <EXPORT ORDINAL="1112" NAME="??4DOMCDATASection@@IAEAAV0@ABV0@@Z" PURGE="4" COMMENT="" />
    <EXPORT ORDINAL="1113" NAME="??4DOMCharacterData@@IAEAAV0@ABV0@@Z" PURGE="4" COMMENT="" />
    <EXPORT ORDINAL="1114" NAME="??4DOMCharacterDataImpl@@QAEAAV0@ABV0@@Z" PURGE="4" COMMENT="" />
    <EXPORT ORDINAL="1115" NAME="??4DOMChildNode@@QAEAAV0@ABV0@@Z" PURGE="4" COMMENT="" />
    <EXPORT ORDINAL="1116" NAME="??4DOMComment@@IAEAAV0@ABV0@@Z" PURGE="4" COMMENT="" />
    <EXPORT ORDINAL="1117" NAME="??4DOMCommentImpl@@QAEAAV0@ABV0@@Z" PURGE="4" COMMENT="" />
    <EXPORT ORDINAL="1118" NAME="??4DOMDeepNodeListImpl@@QAEAAV0@ABV0@@Z" PURGE="4" COMMENT="" />
    <EXPORT ORDINAL="1119" NAME="??4DOMDocument@@IAEAAV0@ABV0@@Z" PURGE="4" COMMENT="" />
    <EXPORT ORDINAL="1120" NAME="??4DOMDocumentFragment@@IAEAAV0@ABV0@@Z" PURGE="4" COMMENT="" />
    <EXPORT ORDINAL="1121" NAME="??4DOMDocumentRange@@IAEAAV0@ABV0@@Z" PURGE="4" COMMENT="" />
    <EXPORT ORDINAL="1122" NAME="??4DOMDocumentTraversal@@IAEAAV0@ABV0@@Z" PURGE="4" COMMENT="" />
    <EXPORT ORDINAL="1123" NAME="??4DOMDocumentType@@IAEAAV0@ABV0@@Z" PURGE="4" COMMENT="" />
    <EXPORT ORDINAL="1124" NAME="??4DOMElement@@IAEAAV0@ABV0@@Z" PURGE="4" COMMENT="" />
    <EXPORT ORDINAL="1125" NAME="??4DOMEntity@@IAEAAV0@ABV0@@Z" PURGE="4" COMMENT="" />
    <EXPORT ORDINAL="1126" NAME="??4DOMEntityReference@@IAEAAV0@ABV0@@Z" PURGE="4" COMMENT="" />
    <EXPORT ORDINAL="1127" NAME="??4DOMEntityResolver@@IAEAAV0@ABV0@@Z" PURGE="4" COMMENT="" />
    <EXPORT ORDINAL="1128" NAME="??4DOMError@@IAEAAV0@ABV0@@Z" PURGE="4" COMMENT="" />
    <EXPORT ORDINAL="1129" NAME="??4DOMErrorHandler@@IAEAAV0@ABV0@@Z" PURGE="4" COMMENT="" />
    <EXPORT ORDINAL="1130" NAME="??4DOMException@@QAEAAV0@ABV0@@Z" PURGE="4" COMMENT="" />
    <EXPORT ORDINAL="1131" NAME="??4DOMImplementation@@IAEAAV0@ABV0@@Z" PURGE="4" COMMENT="" />
    <EXPORT ORDINAL="1132" NAME="??4DOMImplementationLS@@IAEAAV0@ABV0@@Z" PURGE="4" COMMENT="" />
    <EXPORT ORDINAL="1133" NAME="??4DOMImplementationRegistry@@QAEAAV0@ABV0@@Z" PURGE="4" COMMENT="" />
    <EXPORT ORDINAL="1134" NAME="??4DOMImplementationSource@@IAEAAV0@ABV0@@Z" PURGE="4" COMMENT="" />
    <EXPORT ORDINAL="1135" NAME="??4DOMInputSource@@IAEAAV0@ABV0@@Z" PURGE="4" COMMENT="" />
    <EXPORT ORDINAL="1136" NAME="??4DOMLocator@@IAEAAV0@ABV0@@Z" PURGE="4" COMMENT="" />
    <EXPORT ORDINAL="1137" NAME="??4DOMNamedNodeMap@@IAEAAV0@ABV0@@Z" PURGE="4" COMMENT="" />
    <EXPORT ORDINAL="1138" NAME="??4DOMNamedNodeMapImpl@@QAEAAV0@ABV0@@Z" PURGE="4" COMMENT="" />
    <EXPORT ORDINAL="1139" NAME="??4DOMNode@@IAEAAV0@ABV0@@Z" PURGE="4" COMMENT="" />
    <EXPORT ORDINAL="1140" NAME="??4DOMNodeFilter@@IAEAAV0@ABV0@@Z" PURGE="4" COMMENT="" />
    <EXPORT ORDINAL="1141" NAME="??4DOMNodeImpl@@QAEAAV0@ABV0@@Z" PURGE="4" COMMENT="" />
    <EXPORT ORDINAL="1142" NAME="??4DOMNodeIterator@@IAEAAV0@ABV0@@Z" PURGE="4" COMMENT="" />
    <EXPORT ORDINAL="1143" NAME="??4DOMNodeIteratorImpl@@QAEAAV0@ABV0@@Z" PURGE="4" COMMENT="" />
    <EXPORT ORDINAL="1144" NAME="??4DOMNodeList@@IAEAAV0@ABV0@@Z" PURGE="4" COMMENT="" />
    <EXPORT ORDINAL="1145" NAME="??4DOMNotation@@IAEAAV0@ABV0@@Z" PURGE="4" COMMENT="" />
    <EXPORT ORDINAL="1146" NAME="??4DOMNotationImpl@@QAEAAV0@ABV0@@Z" PURGE="4" COMMENT="" />
    <EXPORT ORDINAL="1147" NAME="??4DOMProcessingInstruction@@IAEAAV0@ABV0@@Z" PURGE="4" COMMENT="" />
    <EXPORT ORDINAL="1148" NAME="??4DOMProcessingInstructionImpl@@QAEAAV0@ABV0@@Z" PURGE="4" COMMENT="" />
    <EXPORT ORDINAL="1149" NAME="??4DOMRange@@IAEAAV0@ABV0@@Z" PURGE="4" COMMENT="" />
    <EXPORT ORDINAL="1150" NAME="??4DOMRangeException@@QAEAAV0@ABV0@@Z" PURGE="4" COMMENT="" />
    <EXPORT ORDINAL="1151" NAME="??4DOMRangeImpl@@QAEAAV0@ABV0@@Z" PURGE="4" COMMENT="" />
    <EXPORT ORDINAL="1152" NAME="??4DOMString@@QAEAAV0@ABV0@@Z" PURGE="4" COMMENT="" />
    <EXPORT ORDINAL="1153" NAME="??4DOMString@@QAEAAV0@PAVDOM_NullPtr@@@Z" PURGE="4" COMMENT="" />
    <EXPORT ORDINAL="1154" NAME="??4DOMText@@IAEAAV0@ABV0@@Z" PURGE="4" COMMENT="" />
    <EXPORT ORDINAL="1155" NAME="??4DOMTextImpl@@QAEAAV0@ABV0@@Z" PURGE="4" COMMENT="" />
    <EXPORT ORDINAL="1156" NAME="??4DOMTreeWalker@@IAEAAV0@ABV0@@Z" PURGE="4" COMMENT="" />
    <EXPORT ORDINAL="1157" NAME="??4DOMTreeWalkerImpl@@QAEAAV0@ABV0@@Z" PURGE="4" COMMENT="" />
    <EXPORT ORDINAL="1158" NAME="??4DOMUserDataHandler@@IAEAAV0@ABV0@@Z" PURGE="4" COMMENT="" />
    <EXPORT ORDINAL="1159" NAME="??4DOMWriter@@IAEAAV0@ABV0@@Z" PURGE="4" COMMENT="" />
    <EXPORT ORDINAL="1160" NAME="??4DOMWriterFilter@@IAEAAV0@ABV0@@Z" PURGE="4" COMMENT="" />
    <EXPORT ORDINAL="1161" NAME="??4DOM_Attr@@QAEAAV0@ABV0@@Z" PURGE="4" COMMENT="" />
    <EXPORT ORDINAL="1162" NAME="??4DOM_Attr@@QAEAAV0@PBVDOM_NullPtr@@@Z" PURGE="4" COMMENT="" />
    <EXPORT ORDINAL="1163" NAME="??4DOM_CDATASection@@QAEAAV0@ABV0@@Z" PURGE="4" COMMENT="" />
    <EXPORT ORDINAL="1164" NAME="??4DOM_CDATASection@@QAEAAV0@PBVDOM_NullPtr@@@Z" PURGE="4" COMMENT="" />
    <EXPORT ORDINAL="1165" NAME="??4DOM_CharacterData@@QAEAAV0@ABV0@@Z" PURGE="4" COMMENT="" />
    <EXPORT ORDINAL="1166" NAME="??4DOM_CharacterData@@QAEAAV0@PBVDOM_NullPtr@@@Z" PURGE="4" COMMENT="" />
    <EXPORT ORDINAL="1167" NAME="??4DOM_Comment@@QAEAAV0@ABV0@@Z" PURGE="4" COMMENT="" />
    <EXPORT ORDINAL="1168" NAME="??4DOM_Comment@@QAEAAV0@PBVDOM_NullPtr@@@Z" PURGE="4" COMMENT="" />
    <EXPORT ORDINAL="1169" NAME="??4DOM_DOMException@@QAEAAV0@ABV0@@Z" PURGE="4" COMMENT="" />
    <EXPORT ORDINAL="1170" NAME="??4DOM_DOMImplementation@@QAEAAV0@ABV0@@Z" PURGE="4" COMMENT="" />
    <EXPORT ORDINAL="1171" NAME="??4DOM_Document@@QAEAAV0@ABV0@@Z" PURGE="4" COMMENT="" />
    <EXPORT ORDINAL="1172" NAME="??4DOM_Document@@QAEAAV0@PBVDOM_NullPtr@@@Z" PURGE="4" COMMENT="" />
    <EXPORT ORDINAL="1173" NAME="??4DOM_DocumentFragment@@QAEAAV0@ABV0@@Z" PURGE="4" COMMENT="" />
    <EXPORT ORDINAL="1174" NAME="??4DOM_DocumentFragment@@QAEAAV0@PBVDOM_NullPtr@@@Z" PURGE="4" COMMENT="" />
    <EXPORT ORDINAL="1175" NAME="??4DOM_DocumentType@@QAEAAV0@ABV0@@Z" PURGE="4" COMMENT="" />
    <EXPORT ORDINAL="1176" NAME="??4DOM_DocumentType@@QAEAAV0@PBVDOM_NullPtr@@@Z" PURGE="4" COMMENT="" />
    <EXPORT ORDINAL="1177" NAME="??4DOM_Element@@QAEAAV0@ABV0@@Z" PURGE="4" COMMENT="" />
    <EXPORT ORDINAL="1178" NAME="??4DOM_Element@@QAEAAV0@PBVDOM_NullPtr@@@Z" PURGE="4" COMMENT="" />
    <EXPORT ORDINAL="1179" NAME="??4DOM_Entity@@QAEAAV0@ABV0@@Z" PURGE="4" COMMENT="" />
    <EXPORT ORDINAL="1180" NAME="??4DOM_Entity@@QAEAAV0@PBVDOM_NullPtr@@@Z" PURGE="4" COMMENT="" />
    <EXPORT ORDINAL="1181" NAME="??4DOM_EntityReference@@QAEAAV0@ABV0@@Z" PURGE="4" COMMENT="" />
    <EXPORT ORDINAL="1182" NAME="??4DOM_EntityReference@@QAEAAV0@PBVDOM_NullPtr@@@Z" PURGE="4" COMMENT="" />
    <EXPORT ORDINAL="1183" NAME="??4DOM_NamedNodeMap@@QAEAAV0@ABV0@@Z" PURGE="4" COMMENT="" />
    <EXPORT ORDINAL="1184" NAME="??4DOM_NamedNodeMap@@QAEAAV0@PBVDOM_NullPtr@@@Z" PURGE="4" COMMENT="" />
    <EXPORT ORDINAL="1185" NAME="??4DOM_Node@@QAEAAV0@ABV0@@Z" PURGE="4" COMMENT="" />
    <EXPORT ORDINAL="1186" NAME="??4DOM_Node@@QAEAAV0@PBVDOM_NullPtr@@@Z" PURGE="4" COMMENT="" />
    <EXPORT ORDINAL="1187" NAME="??4DOM_NodeIterator@@QAEAAV0@ABV0@@Z" PURGE="4" COMMENT="" />
    <EXPORT ORDINAL="1188" NAME="??4DOM_NodeIterator@@QAEAAV0@PBVDOM_NullPtr@@@Z" PURGE="4" COMMENT="" />
    <EXPORT ORDINAL="1189" NAME="??4DOM_NodeList@@QAEAAV0@ABV0@@Z" PURGE="4" COMMENT="" />
    <EXPORT ORDINAL="1190" NAME="??4DOM_NodeList@@QAEAAV0@PBVDOM_NullPtr@@@Z" PURGE="4" COMMENT="" />
    <EXPORT ORDINAL="1191" NAME="??4DOM_Notation@@QAEAAV0@ABV0@@Z" PURGE="4" COMMENT="" />
    <EXPORT ORDINAL="1192" NAME="??4DOM_Notation@@QAEAAV0@PBVDOM_NullPtr@@@Z" PURGE="4" COMMENT="" />
    <EXPORT ORDINAL="1193" NAME="??4DOM_ProcessingInstruction@@QAEAAV0@ABV0@@Z" PURGE="4" COMMENT="" />
    <EXPORT ORDINAL="1194" NAME="??4DOM_ProcessingInstruction@@QAEAAV0@PBVDOM_NullPtr@@@Z" PURGE="4" COMMENT="" />
    <EXPORT ORDINAL="1195" NAME="??4DOM_Range@@QAEAAV0@ABV0@@Z" PURGE="4" COMMENT="" />
    <EXPORT ORDINAL="1196" NAME="??4DOM_Range@@QAEAAV0@PBVDOM_NullPtr@@@Z" PURGE="4" COMMENT="" />
    <EXPORT ORDINAL="1197" NAME="??4DOM_RangeException@@QAEAAV0@ABV0@@Z" PURGE="4" COMMENT="" />
    <EXPORT ORDINAL="1198" NAME="??4DOM_Text@@QAEAAV0@ABV0@@Z" PURGE="4" COMMENT="" />
    <EXPORT ORDINAL="1199" NAME="??4DOM_Text@@QAEAAV0@PBVDOM_NullPtr@@@Z" PURGE="4" COMMENT="" />
    <EXPORT ORDINAL="1200" NAME="??4DOM_TreeWalker@@QAEAAV0@ABV0@@Z" PURGE="4" COMMENT="" />
    <EXPORT ORDINAL="1201" NAME="??4DOM_TreeWalker@@QAEAAV0@PBVDOM_NullPtr@@@Z" PURGE="4" COMMENT="" />
    <EXPORT ORDINAL="1202" NAME="??4DOM_XMLDecl@@QAEAAV0@ABV0@@Z" PURGE="4" COMMENT="" />
    <EXPORT ORDINAL="1203" NAME="??4DOM_XMLDecl@@QAEAAV0@PBVDOM_NullPtr@@@Z" PURGE="4" COMMENT="" />
    <EXPORT ORDINAL="1204" NAME="??4DTDGrammar@@QAEAAV0@ABV0@@Z" PURGE="4" COMMENT="" />
    <EXPORT ORDINAL="1205" NAME="??4DTDScanner@@QAEAAV0@ABV0@@Z" PURGE="4" COMMENT="" />
    <EXPORT ORDINAL="1206" NAME="??4DatatypeValidator@@QAEAAV0@ABV0@@Z" PURGE="4" COMMENT="" />
    <EXPORT ORDINAL="1207" NAME="??4DatatypeValidatorFactory@@QAEAAV0@ABV0@@Z" PURGE="4" COMMENT="" />
    <EXPORT ORDINAL="1208" NAME="??4DateDatatypeValidator@@QAEAAV0@ABV0@@Z" PURGE="4" COMMENT="" />
    <EXPORT ORDINAL="1209" NAME="??4DateTimeDatatypeValidator@@QAEAAV0@ABV0@@Z" PURGE="4" COMMENT="" />
    <EXPORT ORDINAL="1210" NAME="??4DateTimeValidator@@QAEAAV0@ABV0@@Z" PURGE="4" COMMENT="" />
    <EXPORT ORDINAL="1211" NAME="??4DayDatatypeValidator@@QAEAAV0@ABV0@@Z" PURGE="4" COMMENT="" />
    <EXPORT ORDINAL="1212" NAME="??4DecimalDatatypeValidator@@QAEAAV0@ABV0@@Z" PURGE="4" COMMENT="" />
    <EXPORT ORDINAL="1213" NAME="??4DeepNodeListImpl@@QAEAAV0@ABV0@@Z" PURGE="4" COMMENT="" />
    <EXPORT ORDINAL="1214" NAME="??4DocumentFragmentImpl@@QAEAAV0@ABV0@@Z" PURGE="4" COMMENT="" />
    <EXPORT ORDINAL="1215" NAME="??4DocumentImpl@@QAEAAV0@ABV0@@Z" PURGE="4" COMMENT="" />
    <EXPORT ORDINAL="1216" NAME="??4DocumentTypeImpl@@QAEAAV0@ABV0@@Z" PURGE="4" COMMENT="" />
    <EXPORT ORDINAL="1217" NAME="??4DomMemDebug@@QAEXABV0@@Z" PURGE="4" COMMENT="" />
    <EXPORT ORDINAL="1218" NAME="??4DoubleDatatypeValidator@@QAEAAV0@ABV0@@Z" PURGE="4" COMMENT="" />
    <EXPORT ORDINAL="1219" NAME="??4DurationDatatypeValidator@@QAEAAV0@ABV0@@Z" PURGE="4" COMMENT="" />
    <EXPORT ORDINAL="1220" NAME="??4ENTITYDatatypeValidator@@QAEAAV0@ABV0@@Z" PURGE="4" COMMENT="" />
    <EXPORT ORDINAL="1221" NAME="??4ElementDefinitionImpl@@QAEAAV0@ABV0@@Z" PURGE="4" COMMENT="" />
    <EXPORT ORDINAL="1222" NAME="??4ElementImpl@@QAEAAV0@ABV0@@Z" PURGE="4" COMMENT="" />
    <EXPORT ORDINAL="1223" NAME="??4ElementNSImpl@@QAEAAV0@ABV0@@Z" PURGE="4" COMMENT="" />
    <EXPORT ORDINAL="1224" NAME="??4EmptyStackException@@QAEAAV0@ABV0@@Z" PURGE="4" COMMENT="" />
    <EXPORT ORDINAL="1225" NAME="??4EncodingValidator@@QAEAAV0@ABV0@@Z" PURGE="4" COMMENT="" />
    <EXPORT ORDINAL="1226" NAME="??4EndOfEntityException@@QAEAAV0@ABV0@@Z" PURGE="4" COMMENT="" />
    <EXPORT ORDINAL="1227" NAME="??4EntityImpl@@QAEAAV0@ABV0@@Z" PURGE="4" COMMENT="" />
    <EXPORT ORDINAL="1228" NAME="??4EntityReferenceImpl@@QAEAAV0@ABV0@@Z" PURGE="4" COMMENT="" />
    <EXPORT ORDINAL="1229" NAME="??4FieldActivator@@QAEAAV0@ABV0@@Z" PURGE="4" COMMENT="" />
    <EXPORT ORDINAL="1230" NAME="??4FloatDatatypeValidator@@QAEAAV0@ABV0@@Z" PURGE="4" COMMENT="" />
    <EXPORT ORDINAL="1231" NAME="??4Grammar@@QAEAAV0@ABV0@@Z" PURGE="4" COMMENT="" />
    <EXPORT ORDINAL="1232" NAME="??4HashBase@@QAEAAV0@ABV0@@Z" PURGE="4" COMMENT="" />
    <EXPORT ORDINAL="1233" NAME="??4HashCMStateSet@@QAEAAV0@ABV0@@Z" PURGE="4" COMMENT="" />
    <EXPORT ORDINAL="1234" NAME="??4HashPtr@@QAEAAV0@ABV0@@Z" PURGE="4" COMMENT="" />
    <EXPORT ORDINAL="1235" NAME="??4HashXMLCh@@QAEAAV0@ABV0@@Z" PURGE="4" COMMENT="" />
    <EXPORT ORDINAL="1236" NAME="??4HexBin@@QAEAAV0@ABV0@@Z" PURGE="4" COMMENT="" />
    <EXPORT ORDINAL="1237" NAME="??4HexBinaryDatatypeValidator@@QAEAAV0@ABV0@@Z" PURGE="4" COMMENT="" />
    <EXPORT ORDINAL="1238" NAME="??4IDDatatypeValidator@@QAEAAV0@ABV0@@Z" PURGE="4" COMMENT="" />
    <EXPORT ORDINAL="1239" NAME="??4IDREFDatatypeValidator@@QAEAAV0@ABV0@@Z" PURGE="4" COMMENT="" />
    <EXPORT ORDINAL="1240" NAME="??4IOException@@QAEAAV0@ABV0@@Z" PURGE="4" COMMENT="" />
    <EXPORT ORDINAL="1241" NAME="??4IllegalArgumentException@@QAEAAV0@ABV0@@Z" PURGE="4" COMMENT="" />
    <EXPORT ORDINAL="1242" NAME="??4InvalidCastException@@QAEAAV0@ABV0@@Z" PURGE="4" COMMENT="" />
    <EXPORT ORDINAL="1243" NAME="??4InvalidDatatypeFacetException@@QAEAAV0@ABV0@@Z" PURGE="4" COMMENT="" />
    <EXPORT ORDINAL="1244" NAME="??4InvalidDatatypeValueException@@QAEAAV0@ABV0@@Z" PURGE="4" COMMENT="" />
    <EXPORT ORDINAL="1245" NAME="??4KVStringPair@@QAEAAV0@ABV0@@Z" PURGE="4" COMMENT="" />
    <EXPORT ORDINAL="1246" NAME="??4ListDatatypeValidator@@QAEAAV0@ABV0@@Z" PURGE="4" COMMENT="" />
    <EXPORT ORDINAL="1247" NAME="??4MalformedURLException@@QAEAAV0@ABV0@@Z" PURGE="4" COMMENT="" />
    <EXPORT ORDINAL="1248" NAME="??4Match@@QAEAAV0@ABV0@@Z" PURGE="4" COMMENT="" />
    <EXPORT ORDINAL="1249" NAME="??4MonthDatatypeValidator@@QAEAAV0@ABV0@@Z" PURGE="4" COMMENT="" />
    <EXPORT ORDINAL="1250" NAME="??4MonthDayDatatypeValidator@@QAEAAV0@ABV0@@Z" PURGE="4" COMMENT="" />
    <EXPORT ORDINAL="1251" NAME="??4NCNameDatatypeValidator@@QAEAAV0@ABV0@@Z" PURGE="4" COMMENT="" />
    <EXPORT ORDINAL="1252" NAME="??4NOTATIONDatatypeValidator@@QAEAAV0@ABV0@@Z" PURGE="4" COMMENT="" />
    <EXPORT ORDINAL="1253" NAME="??4NameDatatypeValidator@@QAEAAV0@ABV0@@Z" PURGE="4" COMMENT="" />
    <EXPORT ORDINAL="1254" NAME="??4NamedNodeMapImpl@@QAEAAV0@ABV0@@Z" PURGE="4" COMMENT="" />
    <EXPORT ORDINAL="1255" NAME="??4NetAccessorException@@QAEAAV0@ABV0@@Z" PURGE="4" COMMENT="" />
    <EXPORT ORDINAL="1256" NAME="??4NoSuchElementException@@QAEAAV0@ABV0@@Z" PURGE="4" COMMENT="" />
    <EXPORT ORDINAL="1257" NAME="??4NodeImpl@@QAEAAV0@ABV0@@Z" PURGE="4" COMMENT="" />
    <EXPORT ORDINAL="1258" NAME="??4NodeIteratorImpl@@QAEAAV0@ABV0@@Z" PURGE="4" COMMENT="" />
    <EXPORT ORDINAL="1259" NAME="??4NodeListImpl@@QAEAAV0@ABV0@@Z" PURGE="4" COMMENT="" />
    <EXPORT ORDINAL="1260" NAME="??4NotationImpl@@QAEAAV0@ABV0@@Z" PURGE="4" COMMENT="" />
    <EXPORT ORDINAL="1261" NAME="??4NullPointerException@@QAEAAV0@ABV0@@Z" PURGE="4" COMMENT="" />
    <EXPORT ORDINAL="1262" NAME="??4NumberFormatException@@QAEAAV0@ABV0@@Z" PURGE="4" COMMENT="" />
    <EXPORT ORDINAL="1263" NAME="??4Op@@AAEXABV0@@Z" PURGE="4" COMMENT="" />
    <EXPORT ORDINAL="1264" NAME="??4ParentNode@@QAEAAV0@ABV0@@Z" PURGE="4" COMMENT="" />
    <EXPORT ORDINAL="1265" NAME="??4ParseException@@QAEAAV0@ABV0@@Z" PURGE="4" COMMENT="" />
    <EXPORT ORDINAL="1266" NAME="??4ProcessingInstructionImpl@@QAEAAV0@ABV0@@Z" PURGE="4" COMMENT="" />
    <EXPORT ORDINAL="1267" NAME="??4QName@@QAEAAV0@ABV0@@Z" PURGE="4" COMMENT="" />
    <EXPORT ORDINAL="1268" NAME="??4QNameDatatypeValidator@@QAEAAV0@ABV0@@Z" PURGE="4" COMMENT="" />
    <EXPORT ORDINAL="1269" NAME="??4RangeImpl@@QAEAAV0@ABV0@@Z" PURGE="4" COMMENT="" />
    <EXPORT ORDINAL="1270" NAME="??4RefCountedImpl@@QAEAAV0@ABV0@@Z" PURGE="4" COMMENT="" />
    <EXPORT ORDINAL="1271" NAME="??4RegxUtil@@QAEAAV0@ABV0@@Z" PURGE="4" COMMENT="" />
    <EXPORT ORDINAL="1272" NAME="??4RuntimeException@@QAEAAV0@ABV0@@Z" PURGE="4" COMMENT="" />
    <EXPORT ORDINAL="1273" NAME="??4SAXException@@QAEAAV0@ABV0@@Z" PURGE="4" COMMENT="" />
    <EXPORT ORDINAL="1274" NAME="??4SAXParseException@@QAEAAV0@ABV0@@Z" PURGE="4" COMMENT="" />
    <EXPORT ORDINAL="1275" NAME="??4SchemaDateTimeException@@QAEAAV0@ABV0@@Z" PURGE="4" COMMENT="" />
    <EXPORT ORDINAL="1276" NAME="??4SchemaGrammar@@QAEAAV0@ABV0@@Z" PURGE="4" COMMENT="" />
    <EXPORT ORDINAL="1277" NAME="??4SchemaSymbols@@QAEAAV0@ABV0@@Z" PURGE="4" COMMENT="" />
    <EXPORT ORDINAL="1278" NAME="??4StringDatatypeValidator@@QAEAAV0@ABV0@@Z" PURGE="4" COMMENT="" />
    <EXPORT ORDINAL="1279" NAME="??4SubstitutionGroupComparator@@QAEAAV0@ABV0@@Z" PURGE="4" COMMENT="" />
    <EXPORT ORDINAL="1280" NAME="??4TextImpl@@QAEAAV0@ABV0@@Z" PURGE="4" COMMENT="" />
    <EXPORT ORDINAL="1281" NAME="??4ThrowEOEJanitor@@QAEAAV0@ABV0@@Z" PURGE="4" COMMENT="" />
    <EXPORT ORDINAL="1282" NAME="??4TimeDatatypeValidator@@QAEAAV0@ABV0@@Z" PURGE="4" COMMENT="" />
    <EXPORT ORDINAL="1283" NAME="??4TranscodingException@@QAEAAV0@ABV0@@Z" PURGE="4" COMMENT="" />
    <EXPORT ORDINAL="1284" NAME="??4TreeWalkerImpl@@QAEAAV0@ABV0@@Z" PURGE="4" COMMENT="" />
    <EXPORT ORDINAL="1285" NAME="??4UTFDataFormatException@@QAEAAV0@ABV0@@Z" PURGE="4" COMMENT="" />
    <EXPORT ORDINAL="1286" NAME="??4UnexpectedEOFException@@QAEAAV0@ABV0@@Z" PURGE="4" COMMENT="" />
    <EXPORT ORDINAL="1287" NAME="??4UnionDatatypeValidator@@QAEAAV0@ABV0@@Z" PURGE="4" COMMENT="" />
    <EXPORT ORDINAL="1288" NAME="??4UnsupportedEncodingException@@QAEAAV0@ABV0@@Z" PURGE="4" COMMENT="" />
    <EXPORT ORDINAL="1289" NAME="??4XMLAttDefList@@IAEAAV0@ABV0@@Z" PURGE="4" COMMENT="" />
    <EXPORT ORDINAL="1290" NAME="??4XMLBigDecimal@@QAEAAV0@ABV0@@Z" PURGE="4" COMMENT="" />
    <EXPORT ORDINAL="1291" NAME="??4XMLBigInteger@@QAEAAV0@ABV0@@Z" PURGE="4" COMMENT="" />
    <EXPORT ORDINAL="1292" NAME="??4XMLBuffer@@QAEAAV0@ABV0@@Z" PURGE="4" COMMENT="" />
    <EXPORT ORDINAL="1293" NAME="??4XMLBufferMgr@@QAEAAV0@ABV0@@Z" PURGE="4" COMMENT="" />
    <EXPORT ORDINAL="1294" NAME="??4XMLDateTime@@QAEAAV0@ABV0@@Z" PURGE="4" COMMENT="" />
    <EXPORT ORDINAL="1295" NAME="??4XMLDeclImpl@@QAEAAV0@ABV0@@Z" PURGE="4" COMMENT="" />
    <EXPORT ORDINAL="1296" NAME="??4XMLException@@QAEXABV0@@Z" PURGE="4" COMMENT="" />
    <EXPORT ORDINAL="1297" NAME="??4XMLFormatTarget@@IAEXABV0@@Z" PURGE="4" COMMENT="" />
    <EXPORT ORDINAL="1298" NAME="??4XMLInteger@@QAEAAV0@ABV0@@Z" PURGE="4" COMMENT="" />
    <EXPORT ORDINAL="1299" NAME="??4XMLNumber@@QAEAAV0@ABV0@@Z" PURGE="4" COMMENT="" />
    <EXPORT ORDINAL="1300" NAME="??4XMLPScanToken@@QAEAAV0@ABV0@@Z" PURGE="4" COMMENT="" />
    <EXPORT ORDINAL="1301" NAME="??4XMLPlatformUtils@@QAEAAV0@ABV0@@Z" PURGE="4" COMMENT="" />
    <EXPORT ORDINAL="1302" NAME="??4XMLPlatformUtilsException@@QAEAAV0@ABV0@@Z" PURGE="4" COMMENT="" />
    <EXPORT ORDINAL="1303" NAME="??4XMLReader@@QAEAAV0@ABV0@@Z" PURGE="4" COMMENT="" />
    <EXPORT ORDINAL="1304" NAME="??4XMLReaderFactory@@QAEAAV0@ABV0@@Z" PURGE="4" COMMENT="" />
    <EXPORT ORDINAL="1305" NAME="??4XMLString@@QAEAAV0@ABV0@@Z" PURGE="4" COMMENT="" />
    <EXPORT ORDINAL="1306" NAME="??4XMLStringTokenizer@@QAEAAV0@ABV0@@Z" PURGE="4" COMMENT="" />
    <EXPORT ORDINAL="1307" NAME="??4XMLURL@@QAEAAV0@ABV0@@Z" PURGE="4" COMMENT="" />
    <EXPORT ORDINAL="1308" NAME="??4XMLUni@@QAEAAV0@ABV0@@Z" PURGE="4" COMMENT="" />
    <EXPORT ORDINAL="1309" NAME="??4XMLUniCharacter@@QAEAAV0@ABV0@@Z" PURGE="4" COMMENT="" />
    <EXPORT ORDINAL="1310" NAME="??4XPathException@@QAEAAV0@ABV0@@Z" PURGE="4" COMMENT="" />
    <EXPORT ORDINAL="1311" NAME="??4XPathMatcher@@QAEAAV0@ABV0@@Z" PURGE="4" COMMENT="" />
    <EXPORT ORDINAL="1312" NAME="??4XPathSymbols@@QAEAAV0@ABV0@@Z" PURGE="4" COMMENT="" />
    <EXPORT ORDINAL="1313" NAME="??4XUtil@@QAEAAV0@ABV0@@Z" PURGE="4" COMMENT="" />
    <EXPORT ORDINAL="1314" NAME="??4XercesElementWildcard@@QAEAAV0@ABV0@@Z" PURGE="4" COMMENT="" />
    <EXPORT ORDINAL="1315" NAME="??4XercesNodeTest@@QAEAAV0@ABV0@@Z" PURGE="4" COMMENT="" />
    <EXPORT ORDINAL="1316" NAME="??4XercesStep@@QAEAAV0@ABV0@@Z" PURGE="4" COMMENT="" />
    <EXPORT ORDINAL="1317" NAME="??4YearDatatypeValidator@@QAEAAV0@ABV0@@Z" PURGE="4" COMMENT="" />
    <EXPORT ORDINAL="1318" NAME="??4YearMonthDatatypeValidator@@QAEAAV0@ABV0@@Z" PURGE="4" COMMENT="" />
    <EXPORT ORDINAL="1319" NAME="??6XMLFormatter@@QAEAAV0@G@Z" PURGE="4" COMMENT="" />
    <EXPORT ORDINAL="1320" NAME="??6XMLFormatter@@QAEAAV0@QBG@Z" PURGE="4" COMMENT="" />
    <EXPORT ORDINAL="1321" NAME="??6XMLFormatter@@QAEAAV0@W4EscapeFlags@0@@Z" PURGE="4" COMMENT="" />
    <EXPORT ORDINAL="1322" NAME="??6XMLFormatter@@QAEAAV0@W4UnRepFlags@0@@Z" PURGE="4" COMMENT="" />
    <EXPORT ORDINAL="1323" NAME="??8DOMString@@QBE_NABV0@@Z" PURGE="4" COMMENT="" />
    <EXPORT ORDINAL="1324" NAME="??8DOMString@@QBE_NPBVDOM_NullPtr@@@Z" PURGE="4" COMMENT="" />
    <EXPORT ORDINAL="1325" NAME="??8DOM_NamedNodeMap@@QBE_NABV0@@Z" PURGE="4" COMMENT="" />
    <EXPORT ORDINAL="1326" NAME="??8DOM_NamedNodeMap@@QBE_NPBVDOM_NullPtr@@@Z" PURGE="4" COMMENT="" />
    <EXPORT ORDINAL="1327" NAME="??8DOM_Node@@QBE_NABV0@@Z" PURGE="4" COMMENT="" />
    <EXPORT ORDINAL="1328" NAME="??8DOM_Node@@QBE_NPBVDOM_NullPtr@@@Z" PURGE="4" COMMENT="" />
    <EXPORT ORDINAL="1329" NAME="??8DOM_NodeIterator@@QBE_NABV0@@Z" PURGE="4" COMMENT="" />
    <EXPORT ORDINAL="1330" NAME="??8DOM_NodeIterator@@QBE_NPBVDOM_NullPtr@@@Z" PURGE="4" COMMENT="" />
    <EXPORT ORDINAL="1331" NAME="??8DOM_NodeList@@QBE_NABV0@@Z" PURGE="4" COMMENT="" />
    <EXPORT ORDINAL="1332" NAME="??8DOM_NodeList@@QBE_NPBVDOM_NullPtr@@@Z" PURGE="4" COMMENT="" />
    <EXPORT ORDINAL="1333" NAME="??8DOM_Range@@QBE_NABV0@@Z" PURGE="4" COMMENT="" />
    <EXPORT ORDINAL="1334" NAME="??8DOM_Range@@QBE_NPBVDOM_NullPtr@@@Z" PURGE="4" COMMENT="" />
    <EXPORT ORDINAL="1335" NAME="??8DOM_TreeWalker@@QBE_NABV0@@Z" PURGE="4" COMMENT="" />
    <EXPORT ORDINAL="1336" NAME="??8DOM_TreeWalker@@QBE_NPBVDOM_NullPtr@@@Z" PURGE="4" COMMENT="" />
    <EXPORT ORDINAL="1337" NAME="??8DomMemDebug@@QAE_NABV0@@Z" PURGE="4" COMMENT="" />
    <EXPORT ORDINAL="1338" NAME="??8IC_Field@@QBE_NABV0@@Z" PURGE="4" COMMENT="" />
    <EXPORT ORDINAL="1339" NAME="??8IC_Selector@@QBE_NABV0@@Z" PURGE="4" COMMENT="" />
    <EXPORT ORDINAL="1340" NAME="??8IdentityConstraint@@QBE_NABV0@@Z" PURGE="4" COMMENT="" />
    <EXPORT ORDINAL="1341" NAME="??8QName@@QAE_NABV0@@Z" PURGE="4" COMMENT="" />
    <EXPORT ORDINAL="1342" NAME="??8XMLBigDecimal@@QBE_NABV0@@Z" PURGE="4" COMMENT="" />
    <EXPORT ORDINAL="1343" NAME="??8XMLBigInteger@@QBE_NABV0@@Z" PURGE="4" COMMENT="" />
    <EXPORT ORDINAL="1344" NAME="??8XMLURL@@QBE_NABV0@@Z" PURGE="4" COMMENT="" />
    <EXPORT ORDINAL="1345" NAME="??8XercesLocationPath@@QBE_NABV0@@Z" PURGE="4" COMMENT="" />
    <EXPORT ORDINAL="1346" NAME="??8XercesNodeTest@@QBE_NABV0@@Z" PURGE="4" COMMENT="" />
    <EXPORT ORDINAL="1347" NAME="??8XercesStep@@QBE_NABV0@@Z" PURGE="4" COMMENT="" />
    <EXPORT ORDINAL="1348" NAME="??8XercesXPath@@QBE_NABV0@@Z" PURGE="4" COMMENT="" />
    <EXPORT ORDINAL="1349" NAME="??9DOMString@@QBE_NABV0@@Z" PURGE="4" COMMENT="" />
    <EXPORT ORDINAL="1350" NAME="??9DOMString@@QBE_NPBVDOM_NullPtr@@@Z" PURGE="4" COMMENT="" />
    <EXPORT ORDINAL="1351" NAME="??9DOM_NamedNodeMap@@QBE_NABV0@@Z" PURGE="4" COMMENT="" />
    <EXPORT ORDINAL="1352" NAME="??9DOM_NamedNodeMap@@QBE_NPBVDOM_NullPtr@@@Z" PURGE="4" COMMENT="" />
    <EXPORT ORDINAL="1353" NAME="??9DOM_Node@@QBE_NABV0@@Z" PURGE="4" COMMENT="" />
    <EXPORT ORDINAL="1354" NAME="??9DOM_Node@@QBE_NPBVDOM_NullPtr@@@Z" PURGE="4" COMMENT="" />
    <EXPORT ORDINAL="1355" NAME="??9DOM_NodeIterator@@QBE_NABV0@@Z" PURGE="4" COMMENT="" />
    <EXPORT ORDINAL="1356" NAME="??9DOM_NodeIterator@@QBE_NPBVDOM_NullPtr@@@Z" PURGE="4" COMMENT="" />
    <EXPORT ORDINAL="1357" NAME="??9DOM_NodeList@@QBE_NABV0@@Z" PURGE="4" COMMENT="" />
    <EXPORT ORDINAL="1358" NAME="??9DOM_NodeList@@QBE_NPBVDOM_NullPtr@@@Z" PURGE="4" COMMENT="" />
    <EXPORT ORDINAL="1359" NAME="??9DOM_Range@@QBE_NABV0@@Z" PURGE="4" COMMENT="" />
    <EXPORT ORDINAL="1360" NAME="??9DOM_Range@@QBE_NPBVDOM_NullPtr@@@Z" PURGE="4" COMMENT="" />
    <EXPORT ORDINAL="1361" NAME="??9DOM_TreeWalker@@QBE_NABV0@@Z" PURGE="4" COMMENT="" />
    <EXPORT ORDINAL="1362" NAME="??9DOM_TreeWalker@@QBE_NPBVDOM_NullPtr@@@Z" PURGE="4" COMMENT="" />
    <EXPORT ORDINAL="1363" NAME="??9DomMemDebug@@QAE_NABV0@@Z" PURGE="4" COMMENT="" />
    <EXPORT ORDINAL="1364" NAME="??9IC_Field@@QBE_NABV0@@Z" PURGE="4" COMMENT="" />
    <EXPORT ORDINAL="1365" NAME="??9IC_Selector@@QBE_NABV0@@Z" PURGE="4" COMMENT="" />
    <EXPORT ORDINAL="1366" NAME="??9IdentityConstraint@@QBE_NABV0@@Z" PURGE="4" COMMENT="" />
    <EXPORT ORDINAL="1367" NAME="??9XMLURL@@QBE_NABV0@@Z" PURGE="4" COMMENT="" />
    <EXPORT ORDINAL="1368" NAME="??9XercesLocationPath@@QBE_NABV0@@Z" PURGE="4" COMMENT="" />
    <EXPORT ORDINAL="1369" NAME="??9XercesNodeTest@@QBE_NABV0@@Z" PURGE="4" COMMENT="" />
    <EXPORT ORDINAL="1370" NAME="??9XercesStep@@QBE_NABV0@@Z" PURGE="4" COMMENT="" />
    <EXPORT ORDINAL="1371" NAME="??9XercesXPath@@QBE_NABV0@@Z" PURGE="4" COMMENT="" />
    <EXPORT ORDINAL="1372" NAME="??H@YA?AVDOMString@@ABV0@0@Z" PURGE="0" COMMENT="" />
    <EXPORT ORDINAL="1373" NAME="??H@YA?AVDOMString@@ABV0@G@Z" PURGE="0" COMMENT="" />
    <EXPORT ORDINAL="1374" NAME="??H@YA?AVDOMString@@ABV0@PBG@Z" PURGE="0" COMMENT="" />
    <EXPORT ORDINAL="1375" NAME="??H@YA?AVDOMString@@GABV0@@Z" PURGE="0" COMMENT="" />
    <EXPORT ORDINAL="1376" NAME="??H@YA?AVDOMString@@PBGABV0@@Z" PURGE="0" COMMENT="" />
    <EXPORT ORDINAL="1377" NAME="??YDOMString@@QAEAAV0@ABV0@@Z" PURGE="4" COMMENT="" />
    <EXPORT ORDINAL="1378" NAME="??YDOMString@@QAEAAV0@G@Z" PURGE="4" COMMENT="" />
    <EXPORT ORDINAL="1379" NAME="??YDOMString@@QAEAAV0@PBG@Z" PURGE="4" COMMENT="" />
    <EXPORT ORDINAL="1380" NAME="??_7ASCIIRangeFactory@@6B@" PURGE="-1" COMMENT="" />
    <EXPORT ORDINAL="1381" NAME="??_7AbstractDOMParser@@6BDocTypeHandler@@@" PURGE="-1" COMMENT="" />
    <EXPORT ORDINAL="1382" NAME="??_7AbstractDOMParser@@6BXMLDocumentHandler@@@" PURGE="-1" COMMENT="" />
    <EXPORT ORDINAL="1383" NAME="??_7AbstractDOMParser@@6BXMLEntityHandler@@@" PURGE="-1" COMMENT="" />
    <EXPORT ORDINAL="1384" NAME="??_7AbstractDOMParser@@6BXMLErrorReporter@@@" PURGE="-1" COMMENT="" />
    <EXPORT ORDINAL="1385" NAME="??_7AbstractNumericFacetValidator@@6B@" PURGE="-1" COMMENT="" />
    <EXPORT ORDINAL="1386" NAME="??_7AbstractNumericValidator@@6B@" PURGE="-1" COMMENT="" />
    <EXPORT ORDINAL="1387" NAME="??_7AbstractStringValidator@@6B@" PURGE="-1" COMMENT="" />
    <EXPORT ORDINAL="1388" NAME="??_7AnySimpleTypeDatatypeValidator@@6B@" PURGE="-1" COMMENT="" />
    <EXPORT ORDINAL="1389" NAME="??_7AnyURIDatatypeValidator@@6B@" PURGE="-1" COMMENT="" />
    <EXPORT ORDINAL="1390" NAME="??_7ArrayIndexOutOfBoundsException@@6B@" PURGE="-1" COMMENT="" />
    <EXPORT ORDINAL="1391" NAME="??_7AttrImpl@@6B@" PURGE="-1" COMMENT="" />
    <EXPORT ORDINAL="1392" NAME="??_7AttrMapImpl@@6B@" PURGE="-1" COMMENT="" />
    <EXPORT ORDINAL="1393" NAME="??_7AttrNSImpl@@6B@" PURGE="-1" COMMENT="" />
    <EXPORT ORDINAL="1394" NAME="??_7AttributeList@@6B@" PURGE="-1" COMMENT="" />
    <EXPORT ORDINAL="1395" NAME="??_7Attributes@@6B@" PURGE="-1" COMMENT="" />
    <EXPORT ORDINAL="1396" NAME="??_7Base64BinaryDatatypeValidator@@6B@" PURGE="-1" COMMENT="" />
    <EXPORT ORDINAL="1397" NAME="??_7BinFileInputStream@@6B@" PURGE="-1" COMMENT="" />
    <EXPORT ORDINAL="1398" NAME="??_7BinHTTPURLInputStream@@6B@" PURGE="-1" COMMENT="" />
    <EXPORT ORDINAL="1399" NAME="??_7BinInputStream@@6B@" PURGE="-1" COMMENT="" />
    <EXPORT ORDINAL="1400" NAME="??_7BinMemInputStream@@6B@" PURGE="-1" COMMENT="" />
    <EXPORT ORDINAL="1401" NAME="??_7BlockRangeFactory@@6B@" PURGE="-1" COMMENT="" />
    <EXPORT ORDINAL="1402" NAME="??_7BooleanDatatypeValidator@@6B@" PURGE="-1" COMMENT="" />
    <EXPORT ORDINAL="1403" NAME="??_7CDATASectionImpl@@6B@" PURGE="-1" COMMENT="" />
    <EXPORT ORDINAL="1404" NAME="??_7CharOp@@6B@" PURGE="-1" COMMENT="" />
    <EXPORT ORDINAL="1405" NAME="??_7CharToken@@6B@" PURGE="-1" COMMENT="" />
    <EXPORT ORDINAL="1406" NAME="??_7CharacterDataImpl@@6B@" PURGE="-1" COMMENT="" />
    <EXPORT ORDINAL="1407" NAME="??_7ChildNode@@6B@" PURGE="-1" COMMENT="" />
    <EXPORT ORDINAL="1408" NAME="??_7ChildOp@@6B@" PURGE="-1" COMMENT="" />
    <EXPORT ORDINAL="1409" NAME="??_7ClosureToken@@6B@" PURGE="-1" COMMENT="" />
    <EXPORT ORDINAL="1410" NAME="??_7CommentImpl@@6B@" PURGE="-1" COMMENT="" />
    <EXPORT ORDINAL="1411" NAME="??_7ConcatToken@@6B@" PURGE="-1" COMMENT="" />
    <EXPORT ORDINAL="1412" NAME="??_7ConditionOp@@6B@" PURGE="-1" COMMENT="" />
    <EXPORT ORDINAL="1413" NAME="??_7ConditionToken@@6B@" PURGE="-1" COMMENT="" />
    <EXPORT ORDINAL="1414" NAME="??_7ContentHandler@@6B@" PURGE="-1" COMMENT="" />
    <EXPORT ORDINAL="1415" NAME="??_7DOMAttr@@6B@" PURGE="-1" COMMENT="" />
    <EXPORT ORDINAL="1416" NAME="??_7DOMAttrImpl@@6B@" PURGE="-1" COMMENT="" />
    <EXPORT ORDINAL="1417" NAME="??_7DOMAttrMapImpl@@6B@" PURGE="-1" COMMENT="" />
    <EXPORT ORDINAL="1418" NAME="??_7DOMAttrNSImpl@@6B@" PURGE="-1" COMMENT="" />
    <EXPORT ORDINAL="1419" NAME="??_7DOMBuilder@@6B@" PURGE="-1" COMMENT="" />
    <EXPORT ORDINAL="1420" NAME="??_7DOMBuilderImpl@@6B@" PURGE="-1" COMMENT="" />
    <EXPORT ORDINAL="1421" NAME="??_7DOMBuilderImpl@@6BDocTypeHandler@@@" PURGE="-1" COMMENT="" />
    <EXPORT ORDINAL="1422" NAME="??_7DOMBuilderImpl@@6BXMLDocumentHandler@@@" PURGE="-1" COMMENT="" />
    <EXPORT ORDINAL="1423" NAME="??_7DOMBuilderImpl@@6BXMLEntityHandler@@@" PURGE="-1" COMMENT="" />
    <EXPORT ORDINAL="1424" NAME="??_7DOMBuilderImpl@@6BXMLErrorReporter@@@" PURGE="-1" COMMENT="" />
    <EXPORT ORDINAL="1425" NAME="??_7DOMCDATASection@@6B@" PURGE="-1" COMMENT="" />
    <EXPORT ORDINAL="1426" NAME="??_7DOMCDATASectionImpl@@6B@" PURGE="-1" COMMENT="" />
    <EXPORT ORDINAL="1427" NAME="??_7DOMCharacterData@@6B@" PURGE="-1" COMMENT="" />
    <EXPORT ORDINAL="1428" NAME="??_7DOMComment@@6B@" PURGE="-1" COMMENT="" />
    <EXPORT ORDINAL="1429" NAME="??_7DOMCommentImpl@@6B@" PURGE="-1" COMMENT="" />
    <EXPORT ORDINAL="1430" NAME="??_7DOMDeepNodeListImpl@@6B@" PURGE="-1" COMMENT="" />
    <EXPORT ORDINAL="1431" NAME="??_7DOMDocument@@6BDOMDocumentRange@@@" PURGE="-1" COMMENT="" />
    <EXPORT ORDINAL="1432" NAME="??_7DOMDocument@@6BDOMDocumentTraversal@@@" PURGE="-1" COMMENT="" />
    <EXPORT ORDINAL="1433" NAME="??_7DOMDocument@@6BDOMNode@@@" PURGE="-1" COMMENT="" />
    <EXPORT ORDINAL="1434" NAME="??_7DOMDocumentFragment@@6B@" PURGE="-1" COMMENT="" />
    <EXPORT ORDINAL="1435" NAME="??_7DOMDocumentFragmentImpl@@6B@" PURGE="-1" COMMENT="" />
    <EXPORT ORDINAL="1436" NAME="??_7DOMDocumentImpl@@6BDOMDocumentRange@@@" PURGE="-1" COMMENT="" />
    <EXPORT ORDINAL="1437" NAME="??_7DOMDocumentImpl@@6BDOMDocumentTraversal@@@" PURGE="-1" COMMENT="" />
    <EXPORT ORDINAL="1438" NAME="??_7DOMDocumentImpl@@6BDOMNode@@@" PURGE="-1" COMMENT="" />
    <EXPORT ORDINAL="1439" NAME="??_7DOMDocumentRange@@6B@" PURGE="-1" COMMENT="" />
    <EXPORT ORDINAL="1440" NAME="??_7DOMDocumentTraversal@@6B@" PURGE="-1" COMMENT="" />
    <EXPORT ORDINAL="1441" NAME="??_7DOMDocumentType@@6B@" PURGE="-1" COMMENT="" />
    <EXPORT ORDINAL="1442" NAME="??_7DOMDocumentTypeImpl@@6B@" PURGE="-1" COMMENT="" />
    <EXPORT ORDINAL="1443" NAME="??_7DOMElement@@6B@" PURGE="-1" COMMENT="" />
    <EXPORT ORDINAL="1444" NAME="??_7DOMElementImpl@@6B@" PURGE="-1" COMMENT="" />
    <EXPORT ORDINAL="1445" NAME="??_7DOMElementNSImpl@@6B@" PURGE="-1" COMMENT="" />
    <EXPORT ORDINAL="1446" NAME="??_7DOMEntity@@6B@" PURGE="-1" COMMENT="" />
    <EXPORT ORDINAL="1447" NAME="??_7DOMEntityImpl@@6B@" PURGE="-1" COMMENT="" />
    <EXPORT ORDINAL="1448" NAME="??_7DOMEntityReference@@6B@" PURGE="-1" COMMENT="" />
    <EXPORT ORDINAL="1449" NAME="??_7DOMEntityReferenceImpl@@6B@" PURGE="-1" COMMENT="" />
    <EXPORT ORDINAL="1450" NAME="??_7DOMEntityResolver@@6B@" PURGE="-1" COMMENT="" />
    <EXPORT ORDINAL="1451" NAME="??_7DOMError@@6B@" PURGE="-1" COMMENT="" />
    <EXPORT ORDINAL="1452" NAME="??_7DOMErrorHandler@@6B@" PURGE="-1" COMMENT="" />
    <EXPORT ORDINAL="1453" NAME="??_7DOMErrorImpl@@6B@" PURGE="-1" COMMENT="" />
    <EXPORT ORDINAL="1454" NAME="??_7DOMException@@6B@" PURGE="-1" COMMENT="" />
    <EXPORT ORDINAL="1455" NAME="??_7DOMImplementation@@6B@" PURGE="-1" COMMENT="" />
    <EXPORT ORDINAL="1456" NAME="??_7DOMImplementationLS@@6B@" PURGE="-1" COMMENT="" />
    <EXPORT ORDINAL="1457" NAME="??_7DOMImplementationSource@@6B@" PURGE="-1" COMMENT="" />
    <EXPORT ORDINAL="1458" NAME="??_7DOMInputSource@@6B@" PURGE="-1" COMMENT="" />
    <EXPORT ORDINAL="1459" NAME="??_7DOMLocator@@6B@" PURGE="-1" COMMENT="" />
    <EXPORT ORDINAL="1460" NAME="??_7DOMLocatorImpl@@6B@" PURGE="-1" COMMENT="" />
    <EXPORT ORDINAL="1461" NAME="??_7DOMNamedNodeMap@@6B@" PURGE="-1" COMMENT="" />
    <EXPORT ORDINAL="1462" NAME="??_7DOMNamedNodeMapImpl@@6B@" PURGE="-1" COMMENT="" />
    <EXPORT ORDINAL="1463" NAME="??_7DOMNode@@6B@" PURGE="-1" COMMENT="" />
    <EXPORT ORDINAL="1464" NAME="??_7DOMNodeFilter@@6B@" PURGE="-1" COMMENT="" />
    <EXPORT ORDINAL="1465" NAME="??_7DOMNodeIterator@@6B@" PURGE="-1" COMMENT="" />
    <EXPORT ORDINAL="1466" NAME="??_7DOMNodeIteratorImpl@@6B@" PURGE="-1" COMMENT="" />
    <EXPORT ORDINAL="1467" NAME="??_7DOMNodeList@@6B@" PURGE="-1" COMMENT="" />
    <EXPORT ORDINAL="1468" NAME="??_7DOMNodeListImpl@@6B@" PURGE="-1" COMMENT="" />
    <EXPORT ORDINAL="1469" NAME="??_7DOMNotation@@6B@" PURGE="-1" COMMENT="" />
    <EXPORT ORDINAL="1470" NAME="??_7DOMNotationImpl@@6B@" PURGE="-1" COMMENT="" />
    <EXPORT ORDINAL="1471" NAME="??_7DOMParser@@6BDocTypeHandler@@@" PURGE="-1" COMMENT="" />
    <EXPORT ORDINAL="1472" NAME="??_7DOMParser@@6BXMLDocumentHandler@@@" PURGE="-1" COMMENT="" />
    <EXPORT ORDINAL="1473" NAME="??_7DOMParser@@6BXMLEntityHandler@@@" PURGE="-1" COMMENT="" />
    <EXPORT ORDINAL="1474" NAME="??_7DOMParser@@6BXMLErrorReporter@@@" PURGE="-1" COMMENT="" />
    <EXPORT ORDINAL="1475" NAME="??_7DOMProcessingInstruction@@6B@" PURGE="-1" COMMENT="" />
    <EXPORT ORDINAL="1476" NAME="??_7DOMProcessingInstructionImpl@@6B@" PURGE="-1" COMMENT="" />
    <EXPORT ORDINAL="1477" NAME="??_7DOMRange@@6B@" PURGE="-1" COMMENT="" />
    <EXPORT ORDINAL="1478" NAME="??_7DOMRangeException@@6B@" PURGE="-1" COMMENT="" />
    <EXPORT ORDINAL="1479" NAME="??_7DOMRangeImpl@@6B@" PURGE="-1" COMMENT="" />
    <EXPORT ORDINAL="1480" NAME="??_7DOMText@@6B@" PURGE="-1" COMMENT="" />
    <EXPORT ORDINAL="1481" NAME="??_7DOMTextImpl@@6B@" PURGE="-1" COMMENT="" />
    <EXPORT ORDINAL="1482" NAME="??_7DOMTreeWalker@@6B@" PURGE="-1" COMMENT="" />
    <EXPORT ORDINAL="1483" NAME="??_7DOMTreeWalkerImpl@@6B@" PURGE="-1" COMMENT="" />
    <EXPORT ORDINAL="1484" NAME="??_7DOMUserDataHandler@@6B@" PURGE="-1" COMMENT="" />
    <EXPORT ORDINAL="1485" NAME="??_7DOMWriter@@6B@" PURGE="-1" COMMENT="" />
    <EXPORT ORDINAL="1486" NAME="??_7DOMWriterFilter@@6B@" PURGE="-1" COMMENT="" />
    <EXPORT ORDINAL="1487" NAME="??_7DOMWriterImpl@@6B@" PURGE="-1" COMMENT="" />
    <EXPORT ORDINAL="1488" NAME="??_7DOM_DOMException@@6B@" PURGE="-1" COMMENT="" />
    <EXPORT ORDINAL="1489" NAME="??_7DOM_NodeFilter@@6B@" PURGE="-1" COMMENT="" />
    <EXPORT ORDINAL="1490" NAME="??_7DOM_RangeException@@6B@" PURGE="-1" COMMENT="" />
    <EXPORT ORDINAL="1491" NAME="??_7DTDAttDef@@6B@" PURGE="-1" COMMENT="" />
    <EXPORT ORDINAL="1492" NAME="??_7DTDElementDecl@@6B@" PURGE="-1" COMMENT="" />
    <EXPORT ORDINAL="1493" NAME="??_7DTDEntityDecl@@6B@" PURGE="-1" COMMENT="" />
    <EXPORT ORDINAL="1494" NAME="??_7DTDGrammar@@6B@" PURGE="-1" COMMENT="" />
    <EXPORT ORDINAL="1495" NAME="??_7DTDHandler@@6B@" PURGE="-1" COMMENT="" />
    <EXPORT ORDINAL="1496" NAME="??_7DTDScanner@@6B@" PURGE="-1" COMMENT="" />
    <EXPORT ORDINAL="1497" NAME="??_7DTDValidator@@6B@" PURGE="-1" COMMENT="" />
    <EXPORT ORDINAL="1498" NAME="??_7DatatypeValidator@@6B@" PURGE="-1" COMMENT="" />
    <EXPORT ORDINAL="1499" NAME="??_7DateDatatypeValidator@@6B@" PURGE="-1" COMMENT="" />
    <EXPORT ORDINAL="1500" NAME="??_7DateTimeDatatypeValidator@@6B@" PURGE="-1" COMMENT="" />
    <EXPORT ORDINAL="1501" NAME="??_7DateTimeValidator@@6B@" PURGE="-1" COMMENT="" />
    <EXPORT ORDINAL="1502" NAME="??_7DayDatatypeValidator@@6B@" PURGE="-1" COMMENT="" />
    <EXPORT ORDINAL="1503" NAME="??_7DecimalDatatypeValidator@@6B@" PURGE="-1" COMMENT="" />
    <EXPORT ORDINAL="1504" NAME="??_7DeclHandler@@6B@" PURGE="-1" COMMENT="" />
    <EXPORT ORDINAL="1505" NAME="??_7DeepNodeListImpl@@6B@" PURGE="-1" COMMENT="" />
    <EXPORT ORDINAL="1506" NAME="??_7DefaultHandler@@6BContentHandler@@@" PURGE="-1" COMMENT="" />
    <EXPORT ORDINAL="1507" NAME="??_7DefaultHandler@@6BDTDHandler@@@" PURGE="-1" COMMENT="" />
    <EXPORT ORDINAL="1508" NAME="??_7DefaultHandler@@6BDeclHandler@@@" PURGE="-1" COMMENT="" />
    <EXPORT ORDINAL="1509" NAME="??_7DefaultHandler@@6BEntityResolver@@@" PURGE="-1" COMMENT="" />
    <EXPORT ORDINAL="1510" NAME="??_7DefaultHandler@@6BErrorHandler@@@" PURGE="-1" COMMENT="" />
    <EXPORT ORDINAL="1511" NAME="??_7DefaultHandler@@6BLexicalHandler@@@" PURGE="-1" COMMENT="" />
    <EXPORT ORDINAL="1512" NAME="??_7DocTypeHandler@@6B@" PURGE="-1" COMMENT="" />
    <EXPORT ORDINAL="1513" NAME="??_7DocumentFragmentImpl@@6B@" PURGE="-1" COMMENT="" />
    <EXPORT ORDINAL="1514" NAME="??_7DocumentHandler@@6B@" PURGE="-1" COMMENT="" />
    <EXPORT ORDINAL="1515" NAME="??_7DocumentImpl@@6B@" PURGE="-1" COMMENT="" />
    <EXPORT ORDINAL="1516" NAME="??_7DocumentTypeImpl@@6B@" PURGE="-1" COMMENT="" />
    <EXPORT ORDINAL="1517" NAME="??_7DoubleDatatypeValidator@@6B@" PURGE="-1" COMMENT="" />
    <EXPORT ORDINAL="1518" NAME="??_7DurationDatatypeValidator@@6B@" PURGE="-1" COMMENT="" />
    <EXPORT ORDINAL="1519" NAME="??_7ENTITYDatatypeValidator@@6B@" PURGE="-1" COMMENT="" />
    <EXPORT ORDINAL="1520" NAME="??_7ElementDefinitionImpl@@6B@" PURGE="-1" COMMENT="" />
    <EXPORT ORDINAL="1521" NAME="??_7ElementImpl@@6B@" PURGE="-1" COMMENT="" />
    <EXPORT ORDINAL="1522" NAME="??_7ElementNSImpl@@6B@" PURGE="-1" COMMENT="" />
    <EXPORT ORDINAL="1523" NAME="??_7EmptyStackException@@6B@" PURGE="-1" COMMENT="" />
    <EXPORT ORDINAL="1524" NAME="??_7EntityImpl@@6B@" PURGE="-1" COMMENT="" />
    <EXPORT ORDINAL="1525" NAME="??_7EntityReferenceImpl@@6B@" PURGE="-1" COMMENT="" />
    <EXPORT ORDINAL="1526" NAME="??_7EntityResolver@@6B@" PURGE="-1" COMMENT="" />
    <EXPORT ORDINAL="1527" NAME="??_7ErrorHandler@@6B@" PURGE="-1" COMMENT="" />
    <EXPORT ORDINAL="1528" NAME="??_7FieldMatcher@@6B@" PURGE="-1" COMMENT="" />
    <EXPORT ORDINAL="1529" NAME="??_7FloatDatatypeValidator@@6B@" PURGE="-1" COMMENT="" />
    <EXPORT ORDINAL="1530" NAME="??_7Grammar@@6B@" PURGE="-1" COMMENT="" />
    <EXPORT ORDINAL="1531" NAME="??_7HandlerBase@@6BDTDHandler@@@" PURGE="-1" COMMENT="" />
    <EXPORT ORDINAL="1532" NAME="??_7HandlerBase@@6BDocumentHandler@@@" PURGE="-1" COMMENT="" />
    <EXPORT ORDINAL="1533" NAME="??_7HandlerBase@@6BEntityResolver@@@" PURGE="-1" COMMENT="" />
    <EXPORT ORDINAL="1534" NAME="??_7HandlerBase@@6BErrorHandler@@@" PURGE="-1" COMMENT="" />
    <EXPORT ORDINAL="1535" NAME="??_7HashBase@@6B@" PURGE="-1" COMMENT="" />
    <EXPORT ORDINAL="1536" NAME="??_7HashCMStateSet@@6B@" PURGE="-1" COMMENT="" />
    <EXPORT ORDINAL="1537" NAME="??_7HashPtr@@6B@" PURGE="-1" COMMENT="" />
    <EXPORT ORDINAL="1538" NAME="??_7HashXMLCh@@6B@" PURGE="-1" COMMENT="" />
    <EXPORT ORDINAL="1539" NAME="??_7HexBinaryDatatypeValidator@@6B@" PURGE="-1" COMMENT="" />
    <EXPORT ORDINAL="1540" NAME="??_7IC_Key@@6B@" PURGE="-1" COMMENT="" />
    <EXPORT ORDINAL="1541" NAME="??_7IC_KeyRef@@6B@" PURGE="-1" COMMENT="" />
    <EXPORT ORDINAL="1542" NAME="??_7IC_Unique@@6B@" PURGE="-1" COMMENT="" />
    <EXPORT ORDINAL="1543" NAME="??_7IDDatatypeValidator@@6B@" PURGE="-1" COMMENT="" />
    <EXPORT ORDINAL="1544" NAME="??_7IDREFDatatypeValidator@@6B@" PURGE="-1" COMMENT="" />
    <EXPORT ORDINAL="1545" NAME="??_7IOException@@6B@" PURGE="-1" COMMENT="" />
    <EXPORT ORDINAL="1546" NAME="??_7IdentityConstraint@@6B@" PURGE="-1" COMMENT="" />
    <EXPORT ORDINAL="1547" NAME="??_7IllegalArgumentException@@6B@" PURGE="-1" COMMENT="" />
    <EXPORT ORDINAL="1548" NAME="??_7InputSource@@6B@" PURGE="-1" COMMENT="" />
    <EXPORT ORDINAL="1549" NAME="??_7InvalidCastException@@6B@" PURGE="-1" COMMENT="" />
    <EXPORT ORDINAL="1550" NAME="??_7InvalidDatatypeFacetException@@6B@" PURGE="-1" COMMENT="" />
    <EXPORT ORDINAL="1551" NAME="??_7InvalidDatatypeValueException@@6B@" PURGE="-1" COMMENT="" />
    <EXPORT ORDINAL="1552" NAME="??_7LexicalHandler@@6B@" PURGE="-1" COMMENT="" />
    <EXPORT ORDINAL="1553" NAME="??_7ListDatatypeValidator@@6B@" PURGE="-1" COMMENT="" />
    <EXPORT ORDINAL="1554" NAME="??_7LocalFileFormatTarget@@6B@" PURGE="-1" COMMENT="" />
    <EXPORT ORDINAL="1555" NAME="??_7LocalFileInputSource@@6B@" PURGE="-1" COMMENT="" />
    <EXPORT ORDINAL="1556" NAME="??_7Locator@@6B@" PURGE="-1" COMMENT="" />
    <EXPORT ORDINAL="1557" NAME="??_7MalformedURLException@@6B@" PURGE="-1" COMMENT="" />
    <EXPORT ORDINAL="1558" NAME="??_7MemBufFormatTarget@@6B@" PURGE="-1" COMMENT="" />
    <EXPORT ORDINAL="1559" NAME="??_7MemBufInputSource@@6B@" PURGE="-1" COMMENT="" />
    <EXPORT ORDINAL="1560" NAME="??_7ModifierOp@@6B@" PURGE="-1" COMMENT="" />
    <EXPORT ORDINAL="1561" NAME="??_7ModifierToken@@6B@" PURGE="-1" COMMENT="" />
    <EXPORT ORDINAL="1562" NAME="??_7MonthDatatypeValidator@@6B@" PURGE="-1" COMMENT="" />
    <EXPORT ORDINAL="1563" NAME="??_7MonthDayDatatypeValidator@@6B@" PURGE="-1" COMMENT="" />
    <EXPORT ORDINAL="1564" NAME="??_7NCNameDatatypeValidator@@6B@" PURGE="-1" COMMENT="" />
    <EXPORT ORDINAL="1565" NAME="??_7NOTATIONDatatypeValidator@@6B@" PURGE="-1" COMMENT="" />
    <EXPORT ORDINAL="1566" NAME="??_7NameDatatypeValidator@@6B@" PURGE="-1" COMMENT="" />
    <EXPORT ORDINAL="1567" NAME="??_7NamedNodeMapImpl@@6B@" PURGE="-1" COMMENT="" />
    <EXPORT ORDINAL="1568" NAME="??_7NetAccessorException@@6B@" PURGE="-1" COMMENT="" />
    <EXPORT ORDINAL="1569" NAME="??_7NoSuchElementException@@6B@" PURGE="-1" COMMENT="" />
    <EXPORT ORDINAL="1570" NAME="??_7NodeImpl@@6B@" PURGE="-1" COMMENT="" />
    <EXPORT ORDINAL="1571" NAME="??_7NodeIteratorImpl@@6B@" PURGE="-1" COMMENT="" />
    <EXPORT ORDINAL="1572" NAME="??_7NodeListImpl@@6B@" PURGE="-1" COMMENT="" />
    <EXPORT ORDINAL="1573" NAME="??_7NotationImpl@@6B@" PURGE="-1" COMMENT="" />
    <EXPORT ORDINAL="1574" NAME="??_7NullPointerException@@6B@" PURGE="-1" COMMENT="" />
    <EXPORT ORDINAL="1575" NAME="??_7NumberFormatException@@6B@" PURGE="-1" COMMENT="" />
    <EXPORT ORDINAL="1576" NAME="??_7Op@@6B@" PURGE="-1" COMMENT="" />
    <EXPORT ORDINAL="1577" NAME="??_7ParenToken@@6B@" PURGE="-1" COMMENT="" />
    <EXPORT ORDINAL="1578" NAME="??_7ParentNode@@6B@" PURGE="-1" COMMENT="" />
    <EXPORT ORDINAL="1579" NAME="??_7ParseException@@6B@" PURGE="-1" COMMENT="" />
    <EXPORT ORDINAL="1580" NAME="??_7Parser@@6B@" PURGE="-1" COMMENT="" />
    <EXPORT ORDINAL="1581" NAME="??_7ParserForXMLSchema@@6B@" PURGE="-1" COMMENT="" />
    <EXPORT ORDINAL="1582" NAME="??_7ProcessingInstructionImpl@@6B@" PURGE="-1" COMMENT="" />
    <EXPORT ORDINAL="1583" NAME="??_7QNameDatatypeValidator@@6B@" PURGE="-1" COMMENT="" />
    <EXPORT ORDINAL="1584" NAME="??_7RangeFactory@@6B@" PURGE="-1" COMMENT="" />
    <EXPORT ORDINAL="1585" NAME="??_7RangeImpl@@6B@" PURGE="-1" COMMENT="" />
    <EXPORT ORDINAL="1586" NAME="??_7RangeOp@@6B@" PURGE="-1" COMMENT="" />
    <EXPORT ORDINAL="1587" NAME="??_7RangeToken@@6B@" PURGE="-1" COMMENT="" />
    <EXPORT ORDINAL="1588" NAME="??_7RangeTokenMap@@6B@" PURGE="-1" COMMENT="" />
    <EXPORT ORDINAL="1589" NAME="??_7ReaderMgr@@6B@" PURGE="-1" COMMENT="" />
    <EXPORT ORDINAL="1590" NAME="??_7RefCountedImpl@@6B@" PURGE="-1" COMMENT="" />
    <EXPORT ORDINAL="1591" NAME="??_7RegxParser@@6B@" PURGE="-1" COMMENT="" />
    <EXPORT ORDINAL="1592" NAME="??_7RuntimeException@@6B@" PURGE="-1" COMMENT="" />
    <EXPORT ORDINAL="1593" NAME="??_7SAX2XMLReader@@6B@" PURGE="-1" COMMENT="" />
    <EXPORT ORDINAL="1594" NAME="??_7SAX2XMLReaderImpl@@6BDocTypeHandler@@@" PURGE="-1" COMMENT="" />
    <EXPORT ORDINAL="1595" NAME="??_7SAX2XMLReaderImpl@@6BSAX2XMLReader@@@" PURGE="-1" COMMENT="" />
    <EXPORT ORDINAL="1596" NAME="??_7SAX2XMLReaderImpl@@6BXMLDocumentHandler@@@" PURGE="-1" COMMENT="" />
    <EXPORT ORDINAL="1597" NAME="??_7SAX2XMLReaderImpl@@6BXMLEntityHandler@@@" PURGE="-1" COMMENT="" />
    <EXPORT ORDINAL="1598" NAME="??_7SAX2XMLReaderImpl@@6BXMLErrorReporter@@@" PURGE="-1" COMMENT="" />
    <EXPORT ORDINAL="1599" NAME="??_7SAXException@@6B@" PURGE="-1" COMMENT="" />
    <EXPORT ORDINAL="1600" NAME="??_7SAXParseException@@6B@" PURGE="-1" COMMENT="" />
    <EXPORT ORDINAL="1601" NAME="??_7SAXParser@@6BDocTypeHandler@@@" PURGE="-1" COMMENT="" />
    <EXPORT ORDINAL="1602" NAME="??_7SAXParser@@6BParser@@@" PURGE="-1" COMMENT="" />
    <EXPORT ORDINAL="1603" NAME="??_7SAXParser@@6BXMLDocumentHandler@@@" PURGE="-1" COMMENT="" />
    <EXPORT ORDINAL="1604" NAME="??_7SAXParser@@6BXMLEntityHandler@@@" PURGE="-1" COMMENT="" />
    <EXPORT ORDINAL="1605" NAME="??_7SAXParser@@6BXMLErrorReporter@@@" PURGE="-1" COMMENT="" />
    <EXPORT ORDINAL="1606" NAME="??_7SchemaAttDef@@6B@" PURGE="-1" COMMENT="" />
    <EXPORT ORDINAL="1607" NAME="??_7SchemaDateTimeException@@6B@" PURGE="-1" COMMENT="" />
    <EXPORT ORDINAL="1608" NAME="??_7SchemaElementDecl@@6B@" PURGE="-1" COMMENT="" />
    <EXPORT ORDINAL="1609" NAME="??_7SchemaGrammar@@6B@" PURGE="-1" COMMENT="" />
    <EXPORT ORDINAL="1610" NAME="??_7SchemaValidator@@6B@" PURGE="-1" COMMENT="" />
    <EXPORT ORDINAL="1611" NAME="??_7SelectorMatcher@@6B@" PURGE="-1" COMMENT="" />
    <EXPORT ORDINAL="1612" NAME="??_7StdInInputSource@@6B@" PURGE="-1" COMMENT="" />
    <EXPORT ORDINAL="1613" NAME="??_7StdOutFormatTarget@@6B@" PURGE="-1" COMMENT="" />
    <EXPORT ORDINAL="1614" NAME="??_7StringDatatypeValidator@@6B@" PURGE="-1" COMMENT="" />
    <EXPORT ORDINAL="1615" NAME="??_7StringOp@@6B@" PURGE="-1" COMMENT="" />
    <EXPORT ORDINAL="1616" NAME="??_7StringToken@@6B@" PURGE="-1" COMMENT="" />
    <EXPORT ORDINAL="1617" NAME="??_7TextImpl@@6B@" PURGE="-1" COMMENT="" />
    <EXPORT ORDINAL="1618" NAME="??_7TimeDatatypeValidator@@6B@" PURGE="-1" COMMENT="" />
    <EXPORT ORDINAL="1619" NAME="??_7Token@@6B@" PURGE="-1" COMMENT="" />
    <EXPORT ORDINAL="1620" NAME="??_7TranscodingException@@6B@" PURGE="-1" COMMENT="" />
    <EXPORT ORDINAL="1621" NAME="??_7TreeWalkerImpl@@6B@" PURGE="-1" COMMENT="" />
    <EXPORT ORDINAL="1622" NAME="??_7URLInputSource@@6B@" PURGE="-1" COMMENT="" />
    <EXPORT ORDINAL="1623" NAME="??_7UTFDataFormatException@@6B@" PURGE="-1" COMMENT="" />
    <EXPORT ORDINAL="1624" NAME="??_7UnexpectedEOFException@@6B@" PURGE="-1" COMMENT="" />
    <EXPORT ORDINAL="1625" NAME="??_7UnicodeRangeFactory@@6B@" PURGE="-1" COMMENT="" />
    <EXPORT ORDINAL="1626" NAME="??_7UnionDatatypeValidator@@6B@" PURGE="-1" COMMENT="" />
    <EXPORT ORDINAL="1627" NAME="??_7UnionOp@@6B@" PURGE="-1" COMMENT="" />
    <EXPORT ORDINAL="1628" NAME="??_7UnionToken@@6B@" PURGE="-1" COMMENT="" />
    <EXPORT ORDINAL="1629" NAME="??_7UnsupportedEncodingException@@6B@" PURGE="-1" COMMENT="" />
    <EXPORT ORDINAL="1630" NAME="??_7VecAttrListImpl@@6B@" PURGE="-1" COMMENT="" />
    <EXPORT ORDINAL="1631" NAME="??_7VecAttributesImpl@@6B@" PURGE="-1" COMMENT="" />
    <EXPORT ORDINAL="1632" NAME="??_7Win32LCPTranscoder@@6B@" PURGE="-1" COMMENT="" />
    <EXPORT ORDINAL="1633" NAME="??_7Win32MsgLoader@@6B@" PURGE="-1" COMMENT="" />
    <EXPORT ORDINAL="1634" NAME="??_7Win32TransService@@6B@" PURGE="-1" COMMENT="" />
    <EXPORT ORDINAL="1635" NAME="??_7Win32Transcoder@@6B@" PURGE="-1" COMMENT="" />
    <EXPORT ORDINAL="1636" NAME="??_7WinSockNetAccessor@@6B@" PURGE="-1" COMMENT="" />
    <EXPORT ORDINAL="1637" NAME="??_7Wrapper4DOMInputSource@@6B@" PURGE="-1" COMMENT="" />
    <EXPORT ORDINAL="1638" NAME="??_7Wrapper4InputSource@@6B@" PURGE="-1" COMMENT="" />
    <EXPORT ORDINAL="1639" NAME="??_7XML256TableTranscoder@@6B@" PURGE="-1" COMMENT="" />
    <EXPORT ORDINAL="1640" NAME="??_7XML88591Transcoder@@6B@" PURGE="-1" COMMENT="" />
    <EXPORT ORDINAL="1641" NAME="??_7XMLASCIITranscoder@@6B@" PURGE="-1" COMMENT="" />
    <EXPORT ORDINAL="1642" NAME="??_7XMLAbstractDoubleFloat@@6B@" PURGE="-1" COMMENT="" />
    <EXPORT ORDINAL="1643" NAME="??_7XMLAttDef@@6B@" PURGE="-1" COMMENT="" />
    <EXPORT ORDINAL="1644" NAME="??_7XMLAttDefList@@6B@" PURGE="-1" COMMENT="" />
    <EXPORT ORDINAL="1645" NAME="??_7XMLBigDecimal@@6B@" PURGE="-1" COMMENT="" />
    <EXPORT ORDINAL="1646" NAME="??_7XMLChTranscoder@@6B@" PURGE="-1" COMMENT="" />
    <EXPORT ORDINAL="1647" NAME="??_7XMLContentModel@@6B@" PURGE="-1" COMMENT="" />
    <EXPORT ORDINAL="1648" NAME="??_7XMLDateTime@@6B@" PURGE="-1" COMMENT="" />
    <EXPORT ORDINAL="1649" NAME="??_7XMLDeclImpl@@6B@" PURGE="-1" COMMENT="" />
    <EXPORT ORDINAL="1650" NAME="??_7XMLDeleter@@6B@" PURGE="-1" COMMENT="" />
    <EXPORT ORDINAL="1651" NAME="??_7XMLDocumentHandler@@6B@" PURGE="-1" COMMENT="" />
    <EXPORT ORDINAL="1652" NAME="??_7XMLDouble@@6B@" PURGE="-1" COMMENT="" />
    <EXPORT ORDINAL="1653" NAME="??_7XMLEBCDICTranscoder@@6B@" PURGE="-1" COMMENT="" />
    <EXPORT ORDINAL="1654" NAME="??_7XMLElementDecl@@6B@" PURGE="-1" COMMENT="" />
    <EXPORT ORDINAL="1655" NAME="??_7XMLEntityDecl@@6B@" PURGE="-1" COMMENT="" />
    <EXPORT ORDINAL="1656" NAME="??_7XMLEntityHandler@@6B@" PURGE="-1" COMMENT="" />
    <EXPORT ORDINAL="1657" NAME="??_7XMLErrorReporter@@6B@" PURGE="-1" COMMENT="" />
    <EXPORT ORDINAL="1658" NAME="??_7XMLException@@6B@" PURGE="-1" COMMENT="" />
    <EXPORT ORDINAL="1659" NAME="??_7XMLFloat@@6B@" PURGE="-1" COMMENT="" />
    <EXPORT ORDINAL="1660" NAME="??_7XMLFormatTarget@@6B@" PURGE="-1" COMMENT="" />
    <EXPORT ORDINAL="1661" NAME="??_7XMLIBM1140Transcoder@@6B@" PURGE="-1" COMMENT="" />
    <EXPORT ORDINAL="1662" NAME="??_7XMLLCPTranscoder@@6B@" PURGE="-1" COMMENT="" />
    <EXPORT ORDINAL="1663" NAME="??_7XMLMsgLoader@@6B@" PURGE="-1" COMMENT="" />
    <EXPORT ORDINAL="1664" NAME="??_7XMLNetAccessor@@6B@" PURGE="-1" COMMENT="" />
    <EXPORT ORDINAL="1665" NAME="??_7XMLNumber@@6B@" PURGE="-1" COMMENT="" />
    <EXPORT ORDINAL="1666" NAME="??_7XMLPlatformUtilsException@@6B@" PURGE="-1" COMMENT="" />
    <EXPORT ORDINAL="1667" NAME="??_7XMLRangeFactory@@6B@" PURGE="-1" COMMENT="" />
    <EXPORT ORDINAL="1668" NAME="??_7XMLTransService@@6B@" PURGE="-1" COMMENT="" />
    <EXPORT ORDINAL="1669" NAME="??_7XMLTranscoder@@6B@" PURGE="-1" COMMENT="" />
    <EXPORT ORDINAL="1670" NAME="??_7XMLUCS4Transcoder@@6B@" PURGE="-1" COMMENT="" />
    <EXPORT ORDINAL="1671" NAME="??_7XMLURL@@6B@" PURGE="-1" COMMENT="" />
    <EXPORT ORDINAL="1672" NAME="??_7XMLUTF16Transcoder@@6B@" PURGE="-1" COMMENT="" />
    <EXPORT ORDINAL="1673" NAME="??_7XMLUTF8Transcoder@@6B@" PURGE="-1" COMMENT="" />
    <EXPORT ORDINAL="1674" NAME="??_7XMLUri@@6B@" PURGE="-1" COMMENT="" />
    <EXPORT ORDINAL="1675" NAME="??_7XMLValidator@@6B@" PURGE="-1" COMMENT="" />
    <EXPORT ORDINAL="1676" NAME="??_7XMLWin1252Transcoder@@6B@" PURGE="-1" COMMENT="" />
    <EXPORT ORDINAL="1677" NAME="??_7XPathException@@6B@" PURGE="-1" COMMENT="" />
    <EXPORT ORDINAL="1678" NAME="??_7XPathMatcher@@6B@" PURGE="-1" COMMENT="" />
    <EXPORT ORDINAL="1679" NAME="??_7XPathScanner@@6B@" PURGE="-1" COMMENT="" />
    <EXPORT ORDINAL="1680" NAME="??_7XPathScannerForSchema@@6B@" PURGE="-1" COMMENT="" />
    <EXPORT ORDINAL="1681" NAME="??_7XSDDOMParser@@6BDocTypeHandler@@@" PURGE="-1" COMMENT="" />
    <EXPORT ORDINAL="1682" NAME="??_7XSDDOMParser@@6BXMLDocumentHandler@@@" PURGE="-1" COMMENT="" />
    <EXPORT ORDINAL="1683" NAME="??_7XSDDOMParser@@6BXMLEntityHandler@@@" PURGE="-1" COMMENT="" />
    <EXPORT ORDINAL="1684" NAME="??_7XSDDOMParser@@6BXMLErrorReporter@@@" PURGE="-1" COMMENT="" />
    <EXPORT ORDINAL="1685" NAME="??_7XSDElementNSImpl@@6B@" PURGE="-1" COMMENT="" />
    <EXPORT ORDINAL="1686" NAME="??_7XSDErrorReporter@@6B@" PURGE="-1" COMMENT="" />
    <EXPORT ORDINAL="1687" NAME="??_7XSDLocator@@6B@" PURGE="-1" COMMENT="" />
    <EXPORT ORDINAL="1688" NAME="??_7XercesDOMParser@@6BDocTypeHandler@@@" PURGE="-1" COMMENT="" />
    <EXPORT ORDINAL="1689" NAME="??_7XercesDOMParser@@6BXMLDocumentHandler@@@" PURGE="-1" COMMENT="" />
    <EXPORT ORDINAL="1690" NAME="??_7XercesDOMParser@@6BXMLEntityHandler@@@" PURGE="-1" COMMENT="" />
    <EXPORT ORDINAL="1691" NAME="??_7XercesDOMParser@@6BXMLErrorReporter@@@" PURGE="-1" COMMENT="" />
    <EXPORT ORDINAL="1692" NAME="??_7YearDatatypeValidator@@6B@" PURGE="-1" COMMENT="" />
    <EXPORT ORDINAL="1693" NAME="??_7YearMonthDatatypeValidator@@6B@" PURGE="-1" COMMENT="" />
    <EXPORT ORDINAL="1694" NAME="??_C@_00A@?$AA@" PURGE="-1" COMMENT="" />
    <EXPORT ORDINAL="1695" NAME="??_C@_05NOKM@stdin?$AA@" PURGE="-1" COMMENT="" />
    <EXPORT ORDINAL="1696" NAME="??_C@_0CM@JAIE@?4?4?2?4?4?2?4?4?2?4?4?2?4?4?2src?2xercesc?1util?1@" PURGE="-1" COMMENT="" />
    <EXPORT ORDINAL="1697" NAME="??_C@_0CP@HPDD@?4?4?2?4?4?2?4?4?2?4?4?2?4?4?2src?2xercesc?1util?1@" PURGE="-1" COMMENT="" />
    <EXPORT ORDINAL="1698" NAME="??_C@_0CP@JDCL@?4?4?2?4?4?2?4?4?2?4?4?2?4?4?2src?2xercesc?1util?1@" PURGE="-1" COMMENT="" />
    <EXPORT ORDINAL="1699" NAME="??_C@_0DA@JBEC@?4?4?2?4?4?2?4?4?2?4?4?2?4?4?2src?2xercesc?1util?1@" PURGE="-1" COMMENT="" />
    <EXPORT ORDINAL="1700" NAME="??_C@_0DI@JHFM@?4?4?2?4?4?2?4?4?2?4?4?2?4?4?2src?2xercesc?1util?1@" PURGE="-1" COMMENT="" />
    <EXPORT ORDINAL="1701" NAME="??_FAbstractDOMParser@@QAEXXZ" PURGE="0" COMMENT="" />
    <EXPORT ORDINAL="1702" NAME="??_FDOMBuilderImpl@@QAEXXZ" PURGE="0" COMMENT="" />
    <EXPORT ORDINAL="1703" NAME="??_FDOMParser@@QAEXXZ" PURGE="0" COMMENT="" />
    <EXPORT ORDINAL="1704" NAME="??_FDTDValidator@@QAEXXZ" PURGE="0" COMMENT="" />
    <EXPORT ORDINAL="1705" NAME="??_FMemBufFormatTarget@@QAEXXZ" PURGE="0" COMMENT="" />
    <EXPORT ORDINAL="1706" NAME="??_FSAXParser@@QAEXXZ" PURGE="0" COMMENT="" />
    <EXPORT ORDINAL="1707" NAME="??_FSchemaValidator@@QAEXXZ" PURGE="0" COMMENT="" />
    <EXPORT ORDINAL="1708" NAME="??_FXMLAttDef@@QAEXXZ" PURGE="0" COMMENT="" />
    <EXPORT ORDINAL="1709" NAME="??_FXMLBuffer@@QAEXXZ" PURGE="0" COMMENT="" />
    <EXPORT ORDINAL="1710" NAME="??_FXMLStringPool@@QAEXXZ" PURGE="0" COMMENT="" />
    <EXPORT ORDINAL="1711" NAME="??_FXMLValidator@@QAEXXZ" PURGE="0" COMMENT="" />
    <EXPORT ORDINAL="1712" NAME="??_FXSDDOMParser@@QAEXXZ" PURGE="0" COMMENT="" />
    <EXPORT ORDINAL="1713" NAME="??_FXSDErrorReporter@@QAEXXZ" PURGE="0" COMMENT="" />
    <EXPORT ORDINAL="1714" NAME="??_FXercesDOMParser@@QAEXXZ" PURGE="0" COMMENT="" />
    <EXPORT ORDINAL="1715" NAME="??_OAttrImpl@@QAEXABV0@@Z" PURGE="4" COMMENT="" />
    <EXPORT ORDINAL="1716" NAME="??_OAttrNSImpl@@QAEXABV0@@Z" PURGE="4" COMMENT="" />
    <EXPORT ORDINAL="1717" NAME="??_OCDATASectionImpl@@QAEXABV0@@Z" PURGE="4" COMMENT="" />
    <EXPORT ORDINAL="1718" NAME="??_OCharacterDataImpl@@QAEXABV0@@Z" PURGE="4" COMMENT="" />
    <EXPORT ORDINAL="1719" NAME="??_ODOMAttrImpl@@QAEXABV0@@Z" PURGE="4" COMMENT="" />
    <EXPORT ORDINAL="1720" NAME="??_ODOMAttrNSImpl@@QAEXABV0@@Z" PURGE="4" COMMENT="" />
    <EXPORT ORDINAL="1721" NAME="??_ODOMCDATASectionImpl@@QAEXABV0@@Z" PURGE="4" COMMENT="" />
    <EXPORT ORDINAL="1722" NAME="??_ODOMElementImpl@@QAEXABV0@@Z" PURGE="4" COMMENT="" />
    <EXPORT ORDINAL="1723" NAME="??_ODOMElementNSImpl@@QAEXABV0@@Z" PURGE="4" COMMENT="" />
    <EXPORT ORDINAL="1724" NAME="??_ODOMEntityImpl@@QAEXABV0@@Z" PURGE="4" COMMENT="" />
    <EXPORT ORDINAL="1725" NAME="??_ODOMEntityReferenceImpl@@QAEXABV0@@Z" PURGE="4" COMMENT="" />
    <EXPORT ORDINAL="1726" NAME="??_ODOMNotationImpl@@QAEXABV0@@Z" PURGE="4" COMMENT="" />
    <EXPORT ORDINAL="1727" NAME="??_ODOMProcessingInstructionImpl@@QAEXABV0@@Z" PURGE="4" COMMENT="" />
    <EXPORT ORDINAL="1728" NAME="??_ODOMTextImpl@@QAEXABV0@@Z" PURGE="4" COMMENT="" />
    <EXPORT ORDINAL="1729" NAME="??_ODocumentTypeImpl@@QAEXABV0@@Z" PURGE="4" COMMENT="" />
    <EXPORT ORDINAL="1730" NAME="??_OElementDefinitionImpl@@QAEXABV0@@Z" PURGE="4" COMMENT="" />
    <EXPORT ORDINAL="1731" NAME="??_OElementImpl@@QAEXABV0@@Z" PURGE="4" COMMENT="" />
    <EXPORT ORDINAL="1732" NAME="??_OElementNSImpl@@QAEXABV0@@Z" PURGE="4" COMMENT="" />
    <EXPORT ORDINAL="1733" NAME="??_OEntityImpl@@QAEXABV0@@Z" PURGE="4" COMMENT="" />
    <EXPORT ORDINAL="1734" NAME="??_OEntityReferenceImpl@@QAEXABV0@@Z" PURGE="4" COMMENT="" />
    <EXPORT ORDINAL="1735" NAME="??_ONotationImpl@@QAEXABV0@@Z" PURGE="4" COMMENT="" />
    <EXPORT ORDINAL="1736" NAME="??_OProcessingInstructionImpl@@QAEXABV0@@Z" PURGE="4" COMMENT="" />
    <EXPORT ORDINAL="1737" NAME="??_OTextImpl@@QAEXABV0@@Z" PURGE="4" COMMENT="" />
    <EXPORT ORDINAL="1738" NAME="??_OXMLDeclImpl@@QAEXABV0@@Z" PURGE="4" COMMENT="" />
    <EXPORT ORDINAL="1739" NAME="??_OXSDElementNSImpl@@QAEXABV0@@Z" PURGE="4" COMMENT="" />
    <EXPORT ORDINAL="1740" NAME="?CHILDNODE@DOMNodeImpl@@2GB" PURGE="-1" COMMENT="" />
    <EXPORT ORDINAL="1741" NAME="?Cleanup@BinHTTPURLInputStream@@SAXXZ" PURGE="0" COMMENT="" />
    <EXPORT ORDINAL="1742" NAME="?EXTENDED_COMMENT@RegularExpression@@2IB" PURGE="-1" COMMENT="" />
    <EXPORT ORDINAL="1743" NAME="?FC_ANY@Token@@2GB" PURGE="-1" COMMENT="" />
    <EXPORT ORDINAL="1744" NAME="?FC_CONTINUE@Token@@2GB" PURGE="-1" COMMENT="" />
    <EXPORT ORDINAL="1745" NAME="?FC_TERMINAL@Token@@2GB" PURGE="-1" COMMENT="" />
    <EXPORT ORDINAL="1746" NAME="?FIRSTCHILD@DOMNodeImpl@@2GB" PURGE="-1" COMMENT="" />
    <EXPORT ORDINAL="1747" NAME="?FIRSTCHILD@NodeImpl@@2GB" PURGE="-1" COMMENT="" />
    <EXPORT ORDINAL="1748" NAME="?HASSTRING@NodeImpl@@2GB" PURGE="-1" COMMENT="" />
    <EXPORT ORDINAL="1749" NAME="?ID_ATTR@DOMNodeImpl@@2GB" PURGE="-1" COMMENT="" />
    <EXPORT ORDINAL="1750" NAME="?ID_ATTR@NodeImpl@@2GB" PURGE="-1" COMMENT="" />
    <EXPORT ORDINAL="1751" NAME="?IGNORABLEWS@DOMNodeImpl@@2GB" PURGE="-1" COMMENT="" />
    <EXPORT ORDINAL="1752" NAME="?IGNORABLEWS@NodeImpl@@2GB" PURGE="-1" COMMENT="" />
    <EXPORT ORDINAL="1753" NAME="?IGNORE_CASE@RegularExpression@@2IB" PURGE="-1" COMMENT="" />
    <EXPORT ORDINAL="1754" NAME="?INDETERMINATE@AbstractNumericFacetValidator@@1HB" PURGE="-1" COMMENT="" />
    <EXPORT ORDINAL="1755" NAME="?INITIALSIZE@RangeToken@@2IB" PURGE="-1" COMMENT="" />
    <EXPORT ORDINAL="1756" NAME="?INITIALSIZE@UnionToken@@0GB" PURGE="-1" COMMENT="" />
    <EXPORT ORDINAL="1757" NAME="?Initialize@BinHTTPURLInputStream@@CAXXZ" PURGE="0" COMMENT="" />
    <EXPORT ORDINAL="1758" NAME="?Initialize@XMLPlatformUtils@@SAXXZ" PURGE="0" COMMENT="" />
    <EXPORT ORDINAL="1759" NAME="?LEAFNODETYPE@DOMNodeImpl@@2GB" PURGE="-1" COMMENT="" />
    <EXPORT ORDINAL="1760" NAME="?MAPSIZE@RangeToken@@2HB" PURGE="-1" COMMENT="" />
    <EXPORT ORDINAL="1761" NAME="?MARK_CHARACTERS@XMLUri@@0QBGB" PURGE="-1" COMMENT="" />
    <EXPORT ORDINAL="1762" NAME="?MARK_PARENS@RegularExpression@@2IB" PURGE="-1" COMMENT="" />
    <EXPORT ORDINAL="1763" NAME="?MULTIPLE_LINE@RegularExpression@@2IB" PURGE="-1" COMMENT="" />
    <EXPORT ORDINAL="1764" NAME="?NNM_ELEMENT@DOM_NamedNodeMap@@0GB" PURGE="-1" COMMENT="" />
    <EXPORT ORDINAL="1765" NAME="?NNM_OTHER@DOM_NamedNodeMap@@0GB" PURGE="-1" COMMENT="" />
    <EXPORT ORDINAL="1766" NAME="?NNM_cloneMap@ElementImpl@@UAEPAVNamedNodeMapImpl@@PAVNodeImpl@@@Z" PURGE="4" COMMENT="" />
    <EXPORT ORDINAL="1767" NAME="?NNM_findNamePoint@ElementImpl@@UAEHABVDOMString@@0@Z" PURGE="8" COMMENT="" />
    <EXPORT ORDINAL="1768" NAME="?NNM_findNamePoint@ElementImpl@@UAEHABVDOMString@@@Z" PURGE="4" COMMENT="" />
    <EXPORT ORDINAL="1769" NAME="?NNM_getLength@ElementImpl@@UAEIXZ" PURGE="0" COMMENT="" />
    <EXPORT ORDINAL="1770" NAME="?NNM_getNamedItem@ElementImpl@@UAEPAVNodeImpl@@ABVDOMString@@@Z" PURGE="4" COMMENT="" />
    <EXPORT ORDINAL="1771" NAME="?NNM_getNamedItemNS@ElementImpl@@UAEPAVNodeImpl@@ABVDOMString@@0@Z" PURGE="8" COMMENT="" />
    <EXPORT ORDINAL="1772" NAME="?NNM_item@ElementImpl@@UAEPAVNodeImpl@@I@Z" PURGE="4" COMMENT="" />
    <EXPORT ORDINAL="1773" NAME="?NNM_removeAll@ElementImpl@@UAEXXZ" PURGE="0" COMMENT="" />
    <EXPORT ORDINAL="1774" NAME="?NNM_removeNamedItem@ElementImpl@@UAEPAVNodeImpl@@ABVDOMString@@@Z" PURGE="4" COMMENT="" />
    <EXPORT ORDINAL="1775" NAME="?NNM_removeNamedItemNS@ElementImpl@@UAEPAVNodeImpl@@ABVDOMString@@0@Z" PURGE="8" COMMENT="" />
    <EXPORT ORDINAL="1776" NAME="?NNM_setNamedItem@ElementImpl@@UAEPAVNodeImpl@@PAV2@@Z" PURGE="4" COMMENT="" />
    <EXPORT ORDINAL="1777" NAME="?NNM_setNamedItemNS@ElementImpl@@UAEPAVNodeImpl@@PAV2@@Z" PURGE="4" COMMENT="" />
    <EXPORT ORDINAL="1778" NAME="?NNM_setOwnerDocument@ElementImpl@@UAEXPAVDocumentImpl@@@Z" PURGE="4" COMMENT="" />
    <EXPORT ORDINAL="1779" NAME="?NNM_setReadOnly@ElementImpl@@UAEX_N0@Z" PURGE="8" COMMENT="" />
    <EXPORT ORDINAL="1780" NAME="?OWNED@DOMNodeImpl@@2GB" PURGE="-1" COMMENT="" />
    <EXPORT ORDINAL="1781" NAME="?OWNED@NodeImpl@@2GB" PURGE="-1" COMMENT="" />
    <EXPORT ORDINAL="1782" NAME="?PROHIBIT_FIXED_STRING_OPTIMIZATION@RegularExpression@@2IB" PURGE="-1" COMMENT="" />
    <EXPORT ORDINAL="1783" NAME="?PROHIBIT_HEAD_CHARACTER_OPTIMIZATION@RegularExpression@@2IB" PURGE="-1" COMMENT="" />
    <EXPORT ORDINAL="1784" NAME="?READONLY@DOMNodeImpl@@2GB" PURGE="-1" COMMENT="" />
    <EXPORT ORDINAL="1785" NAME="?READONLY@NodeImpl@@2GB" PURGE="-1" COMMENT="" />
    <EXPORT ORDINAL="1786" NAME="?RESERVED_CHARACTERS@XMLUri@@0QBGB" PURGE="-1" COMMENT="" />
    <EXPORT ORDINAL="1787" NAME="?SCHEME_CHARACTERS@XMLUri@@0QBGB" PURGE="-1" COMMENT="" />
    <EXPORT ORDINAL="1788" NAME="?SETVALUE@DOMNodeImpl@@2GB" PURGE="-1" COMMENT="" />
    <EXPORT ORDINAL="1789" NAME="?SETVALUE@NodeImpl@@2GB" PURGE="-1" COMMENT="" />
    <EXPORT ORDINAL="1790" NAME="?SINGLE_LINE@RegularExpression@@2IB" PURGE="-1" COMMENT="" />
    <EXPORT ORDINAL="1791" NAME="?SPECIAL_COMMA@RegularExpression@@2IB" PURGE="-1" COMMENT="" />
    <EXPORT ORDINAL="1792" NAME="?SPECIFIED@DOMNodeImpl@@2GB" PURGE="-1" COMMENT="" />
    <EXPORT ORDINAL="1793" NAME="?SPECIFIED@NodeImpl@@2GB" PURGE="-1" COMMENT="" />
    <EXPORT ORDINAL="1794" NAME="?SYNCCHILDREN@DOMNodeImpl@@2GB" PURGE="-1" COMMENT="" />
    <EXPORT ORDINAL="1795" NAME="?SYNCCHILDREN@NodeImpl@@2GB" PURGE="-1" COMMENT="" />
    <EXPORT ORDINAL="1796" NAME="?SYNCDATA@DOMNodeImpl@@2GB" PURGE="-1" COMMENT="" />
    <EXPORT ORDINAL="1797" NAME="?SYNCDATA@NodeImpl@@2GB" PURGE="-1" COMMENT="" />
    <EXPORT ORDINAL="1798" NAME="?S_INBRACKETS@RegxParser@@2GB" PURGE="-1" COMMENT="" />
    <EXPORT ORDINAL="1799" NAME="?S_INXBRACKETS@RegxParser@@2GB" PURGE="-1" COMMENT="" />
    <EXPORT ORDINAL="1800" NAME="?S_NORMAL@RegxParser@@2GB" PURGE="-1" COMMENT="" />
    <EXPORT ORDINAL="1801" NAME="?TOBERELEASED@DOMNodeImpl@@2GB" PURGE="-1" COMMENT="" />
    <EXPORT ORDINAL="1802" NAME="?Terminate@XMLPlatformUtils@@SAXXZ" PURGE="0" COMMENT="" />
    <EXPORT ORDINAL="1803" NAME="?TextDecl@AbstractDOMParser@@UAEXQBG0@Z" PURGE="8" COMMENT="" />
    <EXPORT ORDINAL="1804" NAME="?TextDecl@DOMParser@@UAEXQBG0@Z" PURGE="8" COMMENT="" />
    <EXPORT ORDINAL="1805" NAME="?TextDecl@SAX2XMLReaderImpl@@UAEXQBG0@Z" PURGE="8" COMMENT="" />
    <EXPORT ORDINAL="1806" NAME="?TextDecl@SAXParser@@UAEXQBG0@Z" PURGE="8" COMMENT="" />
    <EXPORT ORDINAL="1807" NAME="?UNICODE_WORD_BOUNDARY@RegularExpression@@2IB" PURGE="-1" COMMENT="" />
    <EXPORT ORDINAL="1808" NAME="?USERDATA@DOMNodeImpl@@2GB" PURGE="-1" COMMENT="" />
    <EXPORT ORDINAL="1809" NAME="?USERDATA@NodeImpl@@2GB" PURGE="-1" COMMENT="" />
    <EXPORT ORDINAL="1810" NAME="?USERINFO_CHARACTERS@XMLUri@@0QBGB" PURGE="-1" COMMENT="" />
    <EXPORT ORDINAL="1811" NAME="?USE_UNICODE_CATEGORY@RegularExpression@@2IB" PURGE="-1" COMMENT="" />
    <EXPORT ORDINAL="1812" NAME="?UTF16_MAX@Token@@2HB" PURGE="-1" COMMENT="" />
    <EXPORT ORDINAL="1813" NAME="?WT_IGNORE@RegularExpression@@2GB" PURGE="-1" COMMENT="" />
    <EXPORT ORDINAL="1814" NAME="?WT_LETTER@RegularExpression@@2GB" PURGE="-1" COMMENT="" />
    <EXPORT ORDINAL="1815" NAME="?WT_OTHER@RegularExpression@@2GB" PURGE="-1" COMMENT="" />
    <EXPORT ORDINAL="1816" NAME="?XMLDecl@AbstractDOMParser@@UAEXQBG000@Z" PURGE="16" COMMENT="" />
    <EXPORT ORDINAL="1817" NAME="?XMLDecl@DOMParser@@UAEXQBG000@Z" PURGE="16" COMMENT="" />
    <EXPORT ORDINAL="1818" NAME="?XMLDecl@SAX2XMLReaderImpl@@UAEXQBG000@Z" PURGE="16" COMMENT="" />
    <EXPORT ORDINAL="1819" NAME="?XMLDecl@SAXParser@@UAEXQBG000@Z" PURGE="16" COMMENT="" />
    <EXPORT ORDINAL="1820" NAME="?XMLSCHEMA_MODE@RegularExpression@@2IB" PURGE="-1" COMMENT="" />
    <EXPORT ORDINAL="1821" NAME="?acceptNode@DOMNodeIteratorImpl@@AAE_NPAVDOMNode@@@Z" PURGE="4" COMMENT="" />
    <EXPORT ORDINAL="1822" NAME="?acceptNode@DOMTreeWalkerImpl@@IAEFPAVDOMNode@@@Z" PURGE="4" COMMENT="" />
    <EXPORT ORDINAL="1823" NAME="?acceptNode@NodeIteratorImpl@@QAE_NVDOM_Node@@@Z" PURGE="4" COMMENT="" />
    <EXPORT ORDINAL="1824" NAME="?acceptNode@TreeWalkerImpl@@IAEFVDOM_Node@@@Z" PURGE="4" COMMENT="" />
    <EXPORT ORDINAL="1825" NAME="?activateField@FieldActivator@@QAEPAVXPathMatcher@@QAVIC_Field@@@Z" PURGE="4" COMMENT="" />
    <EXPORT ORDINAL="1826" NAME="?activateSelectorFor@XMLScanner@@AAEXQAVIdentityConstraint@@@Z" PURGE="4" COMMENT="" />
    <EXPORT ORDINAL="1827" NAME="?addAnyAttDef@XercesAttGroupInfo@@QAEXQAVSchemaAttDef@@_N@Z" PURGE="8" COMMENT="" />
    <EXPORT ORDINAL="1828" NAME="?addAttDef@ComplexTypeInfo@@QAEXQAVSchemaAttDef@@@Z" PURGE="4" COMMENT="" />
    <EXPORT ORDINAL="1829" NAME="?addAttDef@DTDElementDecl@@QAEXQAVDTDAttDef@@@Z" PURGE="4" COMMENT="" />
    <EXPORT ORDINAL="1830" NAME="?addAttDef@XercesAttGroupInfo@@QAEXQAVSchemaAttDef@@_N@Z" PURGE="8" COMMENT="" />
    <EXPORT ORDINAL="1831" NAME="?addCategory@RangeTokenMap@@QAEXQBG@Z" PURGE="4" COMMENT="" />
    <EXPORT ORDINAL="1832" NAME="?addChild@ElemStack@@QAEIQAVQName@@_N@Z" PURGE="8" COMMENT="" />
    <EXPORT ORDINAL="1833" NAME="?addChild@Token@@UAEXQAV1@QAVTokenFactory@@@Z" PURGE="0" COMMENT="" />
    <EXPORT ORDINAL="1834" NAME="?addChild@UnionToken@@UAEXQAVToken@@QAVTokenFactory@@@Z" PURGE="8" COMMENT="" />
    <EXPORT ORDINAL="1835" NAME="?addDuration@XMLDateTime@@CAXPAV1@QBV1@H@Z" PURGE="0" COMMENT="" />
    <EXPORT ORDINAL="1836" NAME="?addElement@ComplexTypeInfo@@QAEXQAVSchemaElementDecl@@@Z" PURGE="4" COMMENT="" />
    <EXPORT ORDINAL="1837" NAME="?addElement@UnionOp@@QAEXQAVOp@@@Z" PURGE="4" COMMENT="" />
    <EXPORT ORDINAL="1838" NAME="?addElement@XercesGroupInfo@@QAEXQAVSchemaElementDecl@@@Z" PURGE="4" COMMENT="" />
    <EXPORT ORDINAL="1839" NAME="?addEncoding@XMLTransService@@SAXQBGQAVENameMap@@@Z" PURGE="0" COMMENT="" />
    <EXPORT ORDINAL="1840" NAME="?addField@IdentityConstraint@@QAEXQAVIC_Field@@@Z" PURGE="4" COMMENT="" />
    <EXPORT ORDINAL="1841" NAME="?addId@IDDatatypeValidator@@AAEXQBG@Z" PURGE="4" COMMENT="" />
    <EXPORT ORDINAL="1842" NAME="?addIdRef@IDREFDatatypeValidator@@AAEXQBG@Z" PURGE="4" COMMENT="" />
    <EXPORT ORDINAL="1843" NAME="?addIdentityConstraint@SchemaElementDecl@@QAEXQAVIdentityConstraint@@@Z" PURGE="4" COMMENT="" />
    <EXPORT ORDINAL="1844" NAME="?addKeywordMap@RangeTokenMap@@QAEXQBG0@Z" PURGE="8" COMMENT="" />
    <EXPORT ORDINAL="1845" NAME="?addLevel@ElemStack@@QAEIQAVXMLElementDecl@@I@Z" PURGE="8" COMMENT="" />
    <EXPORT ORDINAL="1846" NAME="?addLevel@ElemStack@@QAEIXZ" PURGE="0" COMMENT="" />
    <EXPORT ORDINAL="1847" NAME="?addMatcher@XPathMatcherStack@@QAEXQAVXPathMatcher@@@Z" PURGE="4" COMMENT="" />
    <EXPORT ORDINAL="1848" NAME="?addNewEntry@XMLStringPool@@AAEIQBG@Z" PURGE="4" COMMENT="" />
    <EXPORT ORDINAL="1849" NAME="?addOrFind@XMLStringPool@@QAEIQBG@Z" PURGE="4" COMMENT="" />
    <EXPORT ORDINAL="1850" NAME="?addPrefix@ElemStack@@QAEXQBGI@Z" PURGE="8" COMMENT="" />
    <EXPORT ORDINAL="1851" NAME="?addPrefix@NamespaceScope@@QAEXQBGI@Z" PURGE="8" COMMENT="" />
    <EXPORT ORDINAL="1852" NAME="?addRange@RangeToken@@UAEXHH@Z" PURGE="8" COMMENT="" />
    <EXPORT ORDINAL="1853" NAME="?addRange@Token@@UAEXHH@Z" PURGE="0" COMMENT="" />
    <EXPORT ORDINAL="1854" NAME="?addRangeMap@RangeTokenMap@@QAEXQBGQAVRangeFactory@@@Z" PURGE="8" COMMENT="" />
    <EXPORT ORDINAL="1855" NAME="?addRef@NamedNodeMapImpl@@SAXPAV1@@Z" PURGE="0" COMMENT="" />
    <EXPORT ORDINAL="1856" NAME="?addRef@RefCountedImpl@@SAXPAV1@@Z" PURGE="0" COMMENT="" />
    <EXPORT ORDINAL="1857" NAME="?addSource@DOMImplementationRegistry@@SAXPAVDOMImplementationSource@@@Z" PURGE="0" COMMENT="" />
    <EXPORT ORDINAL="1858" NAME="?addStep@XercesLocationPath@@QAEXQAVXercesStep@@@Z" PURGE="4" COMMENT="" />
    <EXPORT ORDINAL="1859" NAME="?addToken@XPathScanner@@MAEXQAV?$ValueVectorOf@H@@H@Z" PURGE="8" COMMENT="" />
    <EXPORT ORDINAL="1860" NAME="?addToken@XPathScannerForSchema@@MAEXQAV?$ValueVectorOf@H@@H@Z" PURGE="8" COMMENT="" />
    <EXPORT ORDINAL="1861" NAME="?addValue@ValueStore@@QAEXQAVIC_Field@@QAVDatatypeValidator@@QBG@Z" PURGE="12" COMMENT="" />
    <EXPORT ORDINAL="1862" NAME="?adoptDocument@AbstractDOMParser@@QAEPAVDOMDocument@@XZ" PURGE="0" COMMENT="" />
    <EXPORT ORDINAL="1863" NAME="?adoptNode@DOMDocumentImpl@@UAEPAVDOMNode@@PAV2@@Z" PURGE="0" COMMENT="" />
    <EXPORT ORDINAL="1864" NAME="?allAreCleared@BitSet@@QBE_NXZ" PURGE="0" COMMENT="" />
    <EXPORT ORDINAL="1865" NAME="?allAreSet@BitSet@@QBE_NXZ" PURGE="0" COMMENT="" />
    <EXPORT ORDINAL="1866" NAME="?allocate@DOMDocumentImpl@@QAEPAXI@Z" PURGE="4" COMMENT="" />
    <EXPORT ORDINAL="1867" NAME="?allocate@DOMDocumentImpl@@QAEPAXIW4NodeObjectType@1@@Z" PURGE="8" COMMENT="" />
    <EXPORT ORDINAL="1868" NAME="?analyzeFirstCharacter@Token@@QAEHQAVRangeToken@@HQAVTokenFactory@@@Z" PURGE="12" COMMENT="" />
    <EXPORT ORDINAL="1869" NAME="?andWith@BitSet@@QAEXABV1@@Z" PURGE="4" COMMENT="" />
    <EXPORT ORDINAL="1870" NAME="?anyAttributeAt@XercesAttGroupInfo@@QAEPAVSchemaAttDef@@I@Z" PURGE="4" COMMENT="" />
    <EXPORT ORDINAL="1871" NAME="?anyAttributeAt@XercesAttGroupInfo@@QBEPBVSchemaAttDef@@I@Z" PURGE="4" COMMENT="" />
    <EXPORT ORDINAL="1872" NAME="?anyAttributeCount@XercesAttGroupInfo@@QBEIXZ" PURGE="0" COMMENT="" />
    <EXPORT ORDINAL="1873" NAME="?anyAttributeValidation@XMLScanner@@AAE_NPAVSchemaAttDef@@IAA_N1@Z" PURGE="16" COMMENT="" />
    <EXPORT ORDINAL="1874" NAME="?append@ValueStore@@QAEXQBV1@@Z" PURGE="4" COMMENT="" />
    <EXPORT ORDINAL="1875" NAME="?append@XMLBuffer@@QAEXG@Z" PURGE="4" COMMENT="" />
    <EXPORT ORDINAL="1876" NAME="?append@XMLBuffer@@QAEXQBGI@Z" PURGE="8" COMMENT="" />
    <EXPORT ORDINAL="1877" NAME="?appendChild@DOMAttrImpl@@UAEPAVDOMNode@@PAV2@@Z" PURGE="4" COMMENT="" />
    <EXPORT ORDINAL="1878" NAME="?appendChild@DOMCDATASectionImpl@@UAEPAVDOMNode@@PAV2@@Z" PURGE="4" COMMENT="" />
    <EXPORT ORDINAL="1879" NAME="?appendChild@DOMCommentImpl@@UAEPAVDOMNode@@PAV2@@Z" PURGE="4" COMMENT="" />
    <EXPORT ORDINAL="1880" NAME="?appendChild@DOMDocumentFragmentImpl@@UAEPAVDOMNode@@PAV2@@Z" PURGE="4" COMMENT="" />
    <EXPORT ORDINAL="1881" NAME="?appendChild@DOMDocumentImpl@@UAEPAVDOMNode@@PAV2@@Z" PURGE="4" COMMENT="" />
    <EXPORT ORDINAL="1882" NAME="?appendChild@DOMDocumentTypeImpl@@UAEPAVDOMNode@@PAV2@@Z" PURGE="4" COMMENT="" />
    <EXPORT ORDINAL="1883" NAME="?appendChild@DOMElementImpl@@UAEPAVDOMNode@@PAV2@@Z" PURGE="4" COMMENT="" />
    <EXPORT ORDINAL="1884" NAME="?appendChild@DOMEntityImpl@@UAEPAVDOMNode@@PAV2@@Z" PURGE="4" COMMENT="" />
    <EXPORT ORDINAL="1885" NAME="?appendChild@DOMEntityReferenceImpl@@UAEPAVDOMNode@@PAV2@@Z" PURGE="4" COMMENT="" />
    <EXPORT ORDINAL="1886" NAME="?appendChild@DOMNodeImpl@@QAEPAVDOMNode@@PAV2@@Z" PURGE="8" COMMENT="" />
    <EXPORT ORDINAL="1887" NAME="?appendChild@DOMNotationImpl@@UAEPAVDOMNode@@PAV2@@Z" PURGE="4" COMMENT="" />
    <EXPORT ORDINAL="1888" NAME="?appendChild@DOMParentNode@@QAEPAVDOMNode@@PAV2@@Z" PURGE="4" COMMENT="" />
    <EXPORT ORDINAL="1889" NAME="?appendChild@DOMProcessingInstructionImpl@@UAEPAVDOMNode@@PAV2@@Z" PURGE="4" COMMENT="" />
    <EXPORT ORDINAL="1890" NAME="?appendChild@DOMTextImpl@@UAEPAVDOMNode@@PAV2@@Z" PURGE="4" COMMENT="" />
    <EXPORT ORDINAL="1891" NAME="?appendChild@DOM_Node@@QAE?AV1@ABV1@@Z" PURGE="8" COMMENT="" />
    <EXPORT ORDINAL="1892" NAME="?appendChild@NodeImpl@@UAEPAV1@PAV1@@Z" PURGE="4" COMMENT="" />
    <EXPORT ORDINAL="1893" NAME="?appendData@CharacterDataImpl@@UAEXABVDOMString@@@Z" PURGE="4" COMMENT="" />
    <EXPORT ORDINAL="1894" NAME="?appendData@DOMCDATASectionImpl@@UAEXPBG@Z" PURGE="4" COMMENT="" />
    <EXPORT ORDINAL="1895" NAME="?appendData@DOMCharacterDataImpl@@QAEXPBVDOMNode@@PBG@Z" PURGE="8" COMMENT="" />
    <EXPORT ORDINAL="1896" NAME="?appendData@DOMCommentImpl@@UAEXPBG@Z" PURGE="4" COMMENT="" />
    <EXPORT ORDINAL="1897" NAME="?appendData@DOMString@@QAEXABV1@@Z" PURGE="4" COMMENT="" />
    <EXPORT ORDINAL="1898" NAME="?appendData@DOMString@@QAEXG@Z" PURGE="4" COMMENT="" />
    <EXPORT ORDINAL="1899" NAME="?appendData@DOMString@@QAEXPBG@Z" PURGE="4" COMMENT="" />
    <EXPORT ORDINAL="1900" NAME="?appendData@DOMTextImpl@@UAEXPBG@Z" PURGE="4" COMMENT="" />
    <EXPORT ORDINAL="1901" NAME="?appendData@DOM_CharacterData@@QAEXABVDOMString@@@Z" PURGE="4" COMMENT="" />
    <EXPORT ORDINAL="1902" NAME="?assertBuffer@XMLDateTime@@ABEXXZ" PURGE="0" COMMENT="" />
    <EXPORT ORDINAL="1903" NAME="?assignAdditionalFacet@AnyURIDatatypeValidator@@MAEXQBG0@Z" PURGE="4" COMMENT="" />
    <EXPORT ORDINAL="1904" NAME="?assignAdditionalFacet@Base64BinaryDatatypeValidator@@MAEXQBG0@Z" PURGE="4" COMMENT="" />
    <EXPORT ORDINAL="1905" NAME="?assignAdditionalFacet@DateTimeValidator@@MAEXQBG0@Z" PURGE="8" COMMENT="" />
    <EXPORT ORDINAL="1906" NAME="?assignAdditionalFacet@DecimalDatatypeValidator@@MAEXQBG0@Z" PURGE="8" COMMENT="" />
    <EXPORT ORDINAL="1907" NAME="?assignAdditionalFacet@DoubleDatatypeValidator@@MAEXQBG0@Z" PURGE="8" COMMENT="" />
    <EXPORT ORDINAL="1908" NAME="?assignAdditionalFacet@FloatDatatypeValidator@@MAEXQBG0@Z" PURGE="4" COMMENT="" />
    <EXPORT ORDINAL="1909" NAME="?assignAdditionalFacet@HexBinaryDatatypeValidator@@MAEXQBG0@Z" PURGE="4" COMMENT="" />
    <EXPORT ORDINAL="1910" NAME="?assignAdditionalFacet@ListDatatypeValidator@@MAEXQBG0@Z" PURGE="0" COMMENT="" />
    <EXPORT ORDINAL="1911" NAME="?assignAdditionalFacet@NOTATIONDatatypeValidator@@MAEXQBG0@Z" PURGE="4" COMMENT="" />
    <EXPORT ORDINAL="1912" NAME="?assignAdditionalFacet@QNameDatatypeValidator@@MAEXQBG0@Z" PURGE="4" COMMENT="" />
    <EXPORT ORDINAL="1913" NAME="?assignAdditionalFacet@StringDatatypeValidator@@MAEXQBG0@Z" PURGE="8" COMMENT="" />
    <EXPORT ORDINAL="1914" NAME="?assignFacet@AbstractNumericFacetValidator@@AAEXXZ" PURGE="0" COMMENT="" />
    <EXPORT ORDINAL="1915" NAME="?assignFacet@AbstractStringValidator@@AAEXXZ" PURGE="0" COMMENT="" />
    <EXPORT ORDINAL="1916" NAME="?atEOF@ReaderMgr@@QBE_NXZ" PURGE="0" COMMENT="" />
    <EXPORT ORDINAL="1917" NAME="?atomicDecrement@XMLPlatformUtils@@SAHAAH@Z" PURGE="0" COMMENT="" />
    <EXPORT ORDINAL="1918" NAME="?atomicIncrement@XMLPlatformUtils@@SAHAAH@Z" PURGE="0" COMMENT="" />
    <EXPORT ORDINAL="1919" NAME="?attDef@AbstractDOMParser@@UAEXABVDTDElementDecl@@ABVDTDAttDef@@_N@Z" PURGE="12" COMMENT="" />
    <EXPORT ORDINAL="1920" NAME="?attDef@DOMParser@@UAEXABVDTDElementDecl@@ABVDTDAttDef@@_N@Z" PURGE="12" COMMENT="" />
    <EXPORT ORDINAL="1921" NAME="?attDef@SAX2XMLReaderImpl@@UAEXABVDTDElementDecl@@ABVDTDAttDef@@_N@Z" PURGE="12" COMMENT="" />
    <EXPORT ORDINAL="1922" NAME="?attDef@SAXParser@@UAEXABVDTDElementDecl@@ABVDTDAttDef@@_N@Z" PURGE="12" COMMENT="" />
    <EXPORT ORDINAL="1923" NAME="?attWildCardIntersection@TraverseSchema@@AAEXQAVSchemaAttDef@@QBV2@@Z" PURGE="8" COMMENT="" />
    <EXPORT ORDINAL="1924" NAME="?attWildCardUnion@TraverseSchema@@AAEXQAVSchemaAttDef@@QBV2@@Z" PURGE="8" COMMENT="" />
    <EXPORT ORDINAL="1925" NAME="?attributeAt@XercesAttGroupInfo@@QAEPAVSchemaAttDef@@I@Z" PURGE="4" COMMENT="" />
    <EXPORT ORDINAL="1926" NAME="?attributeAt@XercesAttGroupInfo@@QBEPBVSchemaAttDef@@I@Z" PURGE="4" COMMENT="" />
    <EXPORT ORDINAL="1927" NAME="?attributeCount@XercesAttGroupInfo@@QBEIXZ" PURGE="0" COMMENT="" />
    <EXPORT ORDINAL="1928" NAME="?attributeDecl@DefaultHandler@@UAEXQBG0000@Z" PURGE="20" COMMENT="" />
    <EXPORT ORDINAL="1929" NAME="?base64Alphabet@Base64@@0QBEB" PURGE="-1" COMMENT="" />
    <EXPORT ORDINAL="1930" NAME="?base64Inverse@Base64@@0PAEA" PURGE="-1" COMMENT="" />
    <EXPORT ORDINAL="1931" NAME="?base64Padding@Base64@@0EB" PURGE="-1" COMMENT="" />
    <EXPORT ORDINAL="1932" NAME="?basicAttrValueScan@XMLScanner@@AAE_NQBGAAVXMLBuffer@@@Z" PURGE="8" COMMENT="" />
    <EXPORT ORDINAL="1933" NAME="?basicEncodingProbe@XMLRecognizer@@SA?AW4Encodings@1@QBEI@Z" PURGE="0" COMMENT="" />
    <EXPORT ORDINAL="1934" NAME="?bidOnBuffer@XMLBufferMgr@@QAEAAVXMLBuffer@@XZ" PURGE="0" COMMENT="" />
    <EXPORT ORDINAL="1935" NAME="?binToText@XMLString@@SAXHQADII@Z" PURGE="0" COMMENT="" />
    <EXPORT ORDINAL="1936" NAME="?binToText@XMLString@@SAXHQAGII@Z" PURGE="0" COMMENT="" />
    <EXPORT ORDINAL="1937" NAME="?binToText@XMLString@@SAXIQADII@Z" PURGE="0" COMMENT="" />
    <EXPORT ORDINAL="1938" NAME="?binToText@XMLString@@SAXIQAGII@Z" PURGE="0" COMMENT="" />
    <EXPORT ORDINAL="1939" NAME="?binToText@XMLString@@SAXJQADII@Z" PURGE="0" COMMENT="" />
    <EXPORT ORDINAL="1940" NAME="?binToText@XMLString@@SAXJQAGII@Z" PURGE="0" COMMENT="" />
    <EXPORT ORDINAL="1941" NAME="?binToText@XMLString@@SAXKQADII@Z" PURGE="0" COMMENT="" />
    <EXPORT ORDINAL="1942" NAME="?binToText@XMLString@@SAXKQAGII@Z" PURGE="0" COMMENT="" />
    <EXPORT ORDINAL="1943" NAME="?boundsCheck@AbstractNumericValidator@@IAEXQBVXMLNumber@@@Z" PURGE="4" COMMENT="" />
    <EXPORT ORDINAL="1944" NAME="?buildAttList@XMLScanner@@AAEIABV?$RefVectorOf@VKVStringPair@@@@IPAVXMLElementDecl@@AAV?$RefVectorOf@VXMLAttr@@@@@Z" PURGE="16" COMMENT="" />
    <EXPORT ORDINAL="1945" NAME="?buildFullText@XMLURL@@AAEXXZ" PURGE="0" COMMENT="" />
    <EXPORT ORDINAL="1946" NAME="?buildRanges@ASCIIRangeFactory@@MAEXXZ" PURGE="0" COMMENT="" />
    <EXPORT ORDINAL="1947" NAME="?buildRanges@BlockRangeFactory@@MAEXXZ" PURGE="0" COMMENT="" />
    <EXPORT ORDINAL="1948" NAME="?buildRanges@UnicodeRangeFactory@@MAEXXZ" PURGE="0" COMMENT="" />
    <EXPORT ORDINAL="1949" NAME="?buildRanges@XMLRangeFactory@@MAEXXZ" PURGE="0" COMMENT="" />
    <EXPORT ORDINAL="1950" NAME="?buildValidSubstitutionListB@TraverseSchema@@AAEXQBVDOMElement@@QAVSchemaElementDecl@@1@Z" PURGE="12" COMMENT="" />
    <EXPORT ORDINAL="1951" NAME="?buildValidSubstitutionListF@TraverseSchema@@AAEXQBVDOMElement@@QAVSchemaElementDecl@@1@Z" PURGE="12" COMMENT="" />
    <EXPORT ORDINAL="1952" NAME="?cacheGrammarFromParse@DOMParser@@QAEX_N@Z" PURGE="4" COMMENT="" />
    <EXPORT ORDINAL="1953" NAME="?cacheGrammarFromParse@SAXParser@@QAEX_N@Z" PURGE="4" COMMENT="" />
    <EXPORT ORDINAL="1954" NAME="?cacheGrammarFromParse@XMLScanner@@QAEX_N@Z" PURGE="4" COMMENT="" />
    <EXPORT ORDINAL="1955" NAME="?cacheGrammarFromParse@XercesDOMParser@@QAEX_N@Z" PURGE="4" COMMENT="" />
    <EXPORT ORDINAL="1956" NAME="?cacheItem@DOMDeepNodeListImpl@@QAEPAVDOMNode@@K@Z" PURGE="4" COMMENT="" />
    <EXPORT ORDINAL="1957" NAME="?calcRequiredSize@Win32LCPTranscoder@@UAEIQBD@Z" PURGE="4" COMMENT="" />
    <EXPORT ORDINAL="1958" NAME="?calcRequiredSize@Win32LCPTranscoder@@UAEIQBG@Z" PURGE="4" COMMENT="" />
    <EXPORT ORDINAL="1959" NAME="?callUserDataHandlers@DOMDocumentImpl@@QBEXPBVDOMNodeImpl@@W4DOMOperationType@DOMUserDataHandler@@PBVDOMNode@@2@Z" PURGE="16" COMMENT="" />
    <EXPORT ORDINAL="1960" NAME="?callUserDataHandlers@DOMNodeImpl@@QBEXW4DOMOperationType@DOMUserDataHandler@@PBVDOMNode@@1@Z" PURGE="12" COMMENT="" />
    <EXPORT ORDINAL="1961" NAME="?canSetFeature@DOMBuilderImpl@@UBE_NQBG_N@Z" PURGE="8" COMMENT="" />
    <EXPORT ORDINAL="1962" NAME="?canSetFeature@DOMWriterImpl@@ABE_NH_N@Z" PURGE="8" COMMENT="" />
    <EXPORT ORDINAL="1963" NAME="?canSetFeature@DOMWriterImpl@@UBE_NQBG_N@Z" PURGE="8" COMMENT="" />
    <EXPORT ORDINAL="1964" NAME="?canSetNormalizationFeature@DOMDocumentImpl@@UBE_NQBG_N@Z" PURGE="8" COMMENT="" />
    <EXPORT ORDINAL="1965" NAME="?canTranscodeTo@Win32Transcoder@@UBE_NI@Z" PURGE="4" COMMENT="" />
    <EXPORT ORDINAL="1966" NAME="?canTranscodeTo@XML256TableTranscoder@@UBE_NI@Z" PURGE="4" COMMENT="" />
    <EXPORT ORDINAL="1967" NAME="?canTranscodeTo@XML88591Transcoder@@UBE_NI@Z" PURGE="4" COMMENT="" />
    <EXPORT ORDINAL="1968" NAME="?canTranscodeTo@XMLASCIITranscoder@@UBE_NI@Z" PURGE="4" COMMENT="" />
    <EXPORT ORDINAL="1969" NAME="?canTranscodeTo@XMLChTranscoder@@UBE_NI@Z" PURGE="4" COMMENT="" />
    <EXPORT ORDINAL="1970" NAME="?canTranscodeTo@XMLUCS4Transcoder@@UBE_NI@Z" PURGE="4" COMMENT="" />
    <EXPORT ORDINAL="1971" NAME="?canTranscodeTo@XMLUTF16Transcoder@@UBE_NI@Z" PURGE="4" COMMENT="" />
    <EXPORT ORDINAL="1972" NAME="?canTranscodeTo@XMLUTF8Transcoder@@UBE_NI@Z" PURGE="4" COMMENT="" />
    <EXPORT ORDINAL="1973" NAME="?catString@XMLString@@SAXQADQBD@Z" PURGE="0" COMMENT="" />
    <EXPORT ORDINAL="1974" NAME="?catString@XMLString@@SAXQAGQBG@Z" PURGE="0" COMMENT="" />
    <EXPORT ORDINAL="1975" NAME="?changeRedefineGroup@TraverseSchema@@AAEHQBVDOMElement@@QBG1H@Z" PURGE="16" COMMENT="" />
    <EXPORT ORDINAL="1976" NAME="?changed@DOMDocumentImpl@@UAEXXZ" PURGE="0" COMMENT="" />
    <EXPORT ORDINAL="1977" NAME="?changed@DOMParentNode@@QAEXXZ" PURGE="-1" COMMENT="" />
    <EXPORT ORDINAL="1978" NAME="?changed@DocumentImpl@@UAEXXZ" PURGE="0" COMMENT="" />
    <EXPORT ORDINAL="1979" NAME="?changed@NodeImpl@@UAEXXZ" PURGE="-1" COMMENT="" />
    <EXPORT ORDINAL="1980" NAME="?changes@DOMDocumentImpl@@UBEHXZ" PURGE="0" COMMENT="" />
    <EXPORT ORDINAL="1981" NAME="?changes@DOMParentNode@@QBEHXZ" PURGE="-1" COMMENT="" />
    <EXPORT ORDINAL="1982" NAME="?changes@DocumentImpl@@UAEHXZ" PURGE="0" COMMENT="" />
    <EXPORT ORDINAL="1983" NAME="?changes@NodeImpl@@UAEHXZ" PURGE="-1" COMMENT="" />
    <EXPORT ORDINAL="1984" NAME="?charAt@DOMString@@QBEGI@Z" PURGE="4" COMMENT="" />
    <EXPORT ORDINAL="1985" NAME="?characters@DefaultHandler@@UAEXQBGI@Z" PURGE="8" COMMENT="" />
    <EXPORT ORDINAL="1986" NAME="?characters@HandlerBase@@UAEXQBGI@Z" PURGE="8" COMMENT="" />
    <EXPORT ORDINAL="1987" NAME="?charsLeftInBuffer@XMLReader@@QBEKXZ" PURGE="0" COMMENT="" />
    <EXPORT ORDINAL="1988" NAME="?checkAdditionalFacet@AnyURIDatatypeValidator@@MBEXQBG@Z" PURGE="4" COMMENT="" />
    <EXPORT ORDINAL="1989" NAME="?checkAdditionalFacet@Base64BinaryDatatypeValidator@@MBEXQBG@Z" PURGE="4" COMMENT="" />
    <EXPORT ORDINAL="1990" NAME="?checkAdditionalFacet@HexBinaryDatatypeValidator@@MBEXQBG@Z" PURGE="4" COMMENT="" />
    <EXPORT ORDINAL="1991" NAME="?checkAdditionalFacet@ListDatatypeValidator@@MBEXQBG@Z" PURGE="4" COMMENT="" />
    <EXPORT ORDINAL="1992" NAME="?checkAdditionalFacet@NOTATIONDatatypeValidator@@MBEXQBG@Z" PURGE="4" COMMENT="" />
    <EXPORT ORDINAL="1993" NAME="?checkAdditionalFacet@QNameDatatypeValidator@@MBEXQBG@Z" PURGE="4" COMMENT="" />
    <EXPORT ORDINAL="1994" NAME="?checkAdditionalFacet@StringDatatypeValidator@@MBEXQBG@Z" PURGE="4" COMMENT="" />
    <EXPORT ORDINAL="1995" NAME="?checkAdditionalFacetConstraints@AnyURIDatatypeValidator@@MBEXXZ" PURGE="0" COMMENT="" />
    <EXPORT ORDINAL="1996" NAME="?checkAdditionalFacetConstraints@Base64BinaryDatatypeValidator@@MBEXXZ" PURGE="0" COMMENT="" />
    <EXPORT ORDINAL="1997" NAME="?checkAdditionalFacetConstraints@DateTimeValidator@@MBEXXZ" PURGE="0" COMMENT="" />
    <EXPORT ORDINAL="1998" NAME="?checkAdditionalFacetConstraints@DecimalDatatypeValidator@@MBEXXZ" PURGE="0" COMMENT="" />
    <EXPORT ORDINAL="1999" NAME="?checkAdditionalFacetConstraints@DoubleDatatypeValidator@@MBEXXZ" PURGE="0" COMMENT="" />
    <EXPORT ORDINAL="2000" NAME="?checkAdditionalFacetConstraints@FloatDatatypeValidator@@MBEXXZ" PURGE="0" COMMENT="" />
    <EXPORT ORDINAL="2001" NAME="?checkAdditionalFacetConstraints@HexBinaryDatatypeValidator@@MBEXXZ" PURGE="0" COMMENT="" />
    <EXPORT ORDINAL="2002" NAME="?checkAdditionalFacetConstraints@ListDatatypeValidator@@MBEXXZ" PURGE="0" COMMENT="" />
    <EXPORT ORDINAL="2003" NAME="?checkAdditionalFacetConstraints@NOTATIONDatatypeValidator@@MBEXXZ" PURGE="0" COMMENT="" />
    <EXPORT ORDINAL="2004" NAME="?checkAdditionalFacetConstraints@QNameDatatypeValidator@@MBEXXZ" PURGE="0" COMMENT="" />
    <EXPORT ORDINAL="2005" NAME="?checkAdditionalFacetConstraints@StringDatatypeValidator@@MBEXXZ" PURGE="0" COMMENT="" />
    <EXPORT ORDINAL="2006" NAME="?checkAdditionalFacetConstraintsBase@DateTimeValidator@@MBEXXZ" PURGE="0" COMMENT="" />
    <EXPORT ORDINAL="2007" NAME="?checkAdditionalFacetConstraintsBase@DecimalDatatypeValidator@@MBEXXZ" PURGE="0" COMMENT="" />
    <EXPORT ORDINAL="2008" NAME="?checkAdditionalFacetConstraintsBase@DoubleDatatypeValidator@@MBEXXZ" PURGE="0" COMMENT="" />
    <EXPORT ORDINAL="2009" NAME="?checkAdditionalFacetConstraintsBase@FloatDatatypeValidator@@MBEXXZ" PURGE="0" COMMENT="" />
    <EXPORT ORDINAL="2010" NAME="?checkAttDerivationOK@TraverseSchema@@AAEXQBVDOMElement@@QBVComplexTypeInfo@@1@Z" PURGE="12" COMMENT="" />
    <EXPORT ORDINAL="2011" NAME="?checkAttDerivationOK@TraverseSchema@@AAEXQBVDOMElement@@QBVXercesAttGroupInfo@@1@Z" PURGE="12" COMMENT="" />
    <EXPORT ORDINAL="2012" NAME="?checkAttributes@GeneralAttributeCheck@@QAEXQBVDOMElement@@GQAVTraverseSchema@@_N@Z" PURGE="16" COMMENT="" />
    <EXPORT ORDINAL="2013" NAME="?checkBlockSize@XMLTranscoder@@IAEXI@Z" PURGE="4" COMMENT="" />
    <EXPORT ORDINAL="2014" NAME="?checkBoundary@XMLDouble@@MAEXQBG@Z" PURGE="4" COMMENT="" />
    <EXPORT ORDINAL="2015" NAME="?checkBoundary@XMLFloat@@MAEXQBG@Z" PURGE="4" COMMENT="" />
    <EXPORT ORDINAL="2016" NAME="?checkContent@AbstractStringValidator@@MAEXQBG_N@Z" PURGE="8" COMMENT="" />
    <EXPORT ORDINAL="2017" NAME="?checkContent@BooleanDatatypeValidator@@AAEXQBG_N@Z" PURGE="8" COMMENT="" />
    <EXPORT ORDINAL="2018" NAME="?checkContent@DTDValidator@@UAEHQAVXMLElementDecl@@QAPAVQName@@I@Z" PURGE="12" COMMENT="" />
    <EXPORT ORDINAL="2019" NAME="?checkContent@DateTimeValidator@@MAEXQBG_N@Z" PURGE="8" COMMENT="" />
    <EXPORT ORDINAL="2020" NAME="?checkContent@DecimalDatatypeValidator@@MAEXQBG_N@Z" PURGE="8" COMMENT="" />
    <EXPORT ORDINAL="2021" NAME="?checkContent@DoubleDatatypeValidator@@MAEXQBG_N@Z" PURGE="8" COMMENT="" />
    <EXPORT ORDINAL="2022" NAME="?checkContent@FloatDatatypeValidator@@MAEXQBG_N@Z" PURGE="8" COMMENT="" />
    <EXPORT ORDINAL="2023" NAME="?checkContent@ListDatatypeValidator@@AAEXPAV?$RefVectorOf@G@@_N@Z" PURGE="8" COMMENT="" />
    <EXPORT ORDINAL="2024" NAME="?checkContent@ListDatatypeValidator@@MAEXQBG_N@Z" PURGE="8" COMMENT="" />
    <EXPORT ORDINAL="2025" NAME="?checkContent@SchemaValidator@@UAEHQAVXMLElementDecl@@QAPAVQName@@I@Z" PURGE="12" COMMENT="" />
    <EXPORT ORDINAL="2026" NAME="?checkContent@TraverseSchema@@AAEPAVDOMElement@@QBV2@QAV2@_N@Z" PURGE="12" COMMENT="" />
    <EXPORT ORDINAL="2027" NAME="?checkContent@UnionDatatypeValidator@@AAEXQBG_N@Z" PURGE="8" COMMENT="" />
    <EXPORT ORDINAL="2028" NAME="?checkEnumerationRequiredNotation@TraverseSchema@@AAEXQBVDOMElement@@QBG1@Z" PURGE="12" COMMENT="" />
    <EXPORT ORDINAL="2029" NAME="?checkFeature@DOMWriterImpl@@ABE_NQBG_NAAH@Z" PURGE="12" COMMENT="" />
    <EXPORT ORDINAL="2030" NAME="?checkFilter@DOMWriterImpl@@ABE?AW4FilterAction@DOMNodeFilter@@QBVDOMNode@@@Z" PURGE="4" COMMENT="" />
    <EXPORT ORDINAL="2031" NAME="?checkFixedFacet@TraverseSchema@@AAEXQBVDOMElement@@QBGQBVDatatypeValidator@@AAI@Z" PURGE="16" COMMENT="" />
    <EXPORT ORDINAL="2032" NAME="?checkForComplexTypeInfo@TraverseSchema@@AAEPAVComplexTypeInfo@@QBVDOMElement@@@Z" PURGE="4" COMMENT="" />
    <EXPORT ORDINAL="2033" NAME="?checkForPERef@DTDScanner@@AAE_N_N000@Z" PURGE="16" COMMENT="" />
    <EXPORT ORDINAL="2034" NAME="?checkForPointlessOccurrences@SchemaValidator@@AAEPAVContentSpecNode@@QAV2@W4NodeTypes@2@QAV?$ValueVectorOf@PAVContentSpecNode@@@@@Z" PURGE="12" COMMENT="" />
    <EXPORT ORDINAL="2035" NAME="?checkForSelectedAttributes@XercesXPath@@AAEXXZ" PURGE="8" COMMENT="" />
    <EXPORT ORDINAL="2036" NAME="?checkForSimpleTypeValidator@TraverseSchema@@AAEPAVDatatypeValidator@@QBVDOMElement@@H@Z" PURGE="8" COMMENT="" />
    <EXPORT ORDINAL="2037" NAME="?checkForSwapped@XMLReader@@AAEXXZ" PURGE="0" COMMENT="" />
    <EXPORT ORDINAL="2038" NAME="?checkICRestriction@SchemaValidator@@AAEXQBVSchemaElementDecl@@0QBG1@Z" PURGE="16" COMMENT="" />
    <EXPORT ORDINAL="2039" NAME="?checkIDRefs@XMLScanner@@AAEXXZ" PURGE="0" COMMENT="" />
    <EXPORT ORDINAL="2040" NAME="?checkIdentityConstraintContent@TraverseSchema@@AAEPBVDOMElement@@QBV2@@Z" PURGE="4" COMMENT="" />
    <EXPORT ORDINAL="2041" NAME="?checkIndex@DOMRangeImpl@@ABEXPBVDOMNode@@K@Z" PURGE="8" COMMENT="" />
    <EXPORT ORDINAL="2042" NAME="?checkIndex@RangeImpl@@ABEXABVDOM_Node@@I@Z" PURGE="8" COMMENT="" />
    <EXPORT ORDINAL="2043" NAME="?checkMapAndSum@SchemaValidator@@AAEXQAVSchemaGrammar@@QBVContentSpecNode@@QAV?$ValueVectorOf@PAVContentSpecNode@@@@HQAV3@2HQBVComplexTypeInfo@@@Z" PURGE="32" COMMENT="" />
    <EXPORT ORDINAL="2044" NAME="?checkMinMax@TraverseSchema@@AAEXQAVContentSpecNode@@QBVDOMElement@@H@Z" PURGE="12" COMMENT="" />
    <EXPORT ORDINAL="2045" NAME="?checkNSCompat@SchemaValidator@@AAEXQBVContentSpecNode@@0@Z" PURGE="8" COMMENT="" />
    <EXPORT ORDINAL="2046" NAME="?checkNSRecurseCheckCardinality@SchemaValidator@@AAEXQAVSchemaGrammar@@QBVContentSpecNode@@QAV?$ValueVectorOf@PAVContentSpecNode@@@@HQAV3@@Z" PURGE="20" COMMENT="" />
    <EXPORT ORDINAL="2047" NAME="?checkNSSubset@SchemaValidator@@AAEXQBVContentSpecNode@@0@Z" PURGE="8" COMMENT="" />
    <EXPORT ORDINAL="2048" NAME="?checkNameAndTypeOK@SchemaValidator@@AAEXQAVSchemaGrammar@@QBVContentSpecNode@@H1HQBVComplexTypeInfo@@@Z" PURGE="24" COMMENT="" />
    <EXPORT ORDINAL="2049" NAME="?checkParticleDerivation@SchemaValidator@@AAEXQAVSchemaGrammar@@QBVComplexTypeInfo@@@Z" PURGE="8" COMMENT="" />
    <EXPORT ORDINAL="2050" NAME="?checkParticleDerivationOk@SchemaValidator@@AAEXQAVSchemaGrammar@@QAVContentSpecNode@@H1HQBVComplexTypeInfo@@@Z" PURGE="24" COMMENT="" />
    <EXPORT ORDINAL="2051" NAME="?checkQuestion@ParserForXMLSchema@@MAE_NH@Z" PURGE="4" COMMENT="" />
    <EXPORT ORDINAL="2052" NAME="?checkQuestion@RegxParser@@MAE_NH@Z" PURGE="4" COMMENT="" />
    <EXPORT ORDINAL="2053" NAME="?checkReadOnly@DOMRangeImpl@@AAEXPAVDOMNode@@0KK@Z" PURGE="16" COMMENT="" />
    <EXPORT ORDINAL="2054" NAME="?checkReadOnly@RangeImpl@@AAEXAAVDOM_Node@@0II@Z" PURGE="16" COMMENT="" />
    <EXPORT ORDINAL="2055" NAME="?checkRecurse@SchemaValidator@@AAEXQAVSchemaGrammar@@QBVContentSpecNode@@HQAV?$ValueVectorOf@PAVContentSpecNode@@@@1H2QBVComplexTypeInfo@@_N@Z" PURGE="36" COMMENT="" />
    <EXPORT ORDINAL="2056" NAME="?checkRecurseAsIfGroup@SchemaValidator@@AAEXQAVSchemaGrammar@@QAVContentSpecNode@@HQBV3@HQAV?$ValueVectorOf@PAVContentSpecNode@@@@QBVComplexTypeInfo@@@Z" PURGE="28" COMMENT="" />
    <EXPORT ORDINAL="2057" NAME="?checkRecurseUnordered@SchemaValidator@@AAEXQAVSchemaGrammar@@QBVContentSpecNode@@QAV?$ValueVectorOf@PAVContentSpecNode@@@@HQAV3@2HQBVComplexTypeInfo@@@Z" PURGE="32" COMMENT="" />
    <EXPORT ORDINAL="2058" NAME="?checkRefElementConsistency@SchemaValidator@@AAEXQAVSchemaGrammar@@QBVComplexTypeInfo@@QBVXercesGroupInfo@@@Z" PURGE="12" COMMENT="" />
    <EXPORT ORDINAL="2059" NAME="?checkRootElement@XMLValidator@@QAE_NI@Z" PURGE="4" COMMENT="" />
    <EXPORT ORDINAL="2060" NAME="?checkTable@XMLReader@@CA_NQBGG@Z" PURGE="0" COMMENT="" />
    <EXPORT ORDINAL="2061" NAME="?checkTypeFromAnotherSchema@TraverseSchema@@AAEPBGQBVDOMElement@@QBG@Z" PURGE="8" COMMENT="" />
    <EXPORT ORDINAL="2062" NAME="?checkTypesOK@SchemaValidator@@AAEXQBVSchemaElementDecl@@0QBG@Z" PURGE="12" COMMENT="" />
    <EXPORT ORDINAL="2063" NAME="?checkUniqueParticleAttribution@ComplexTypeInfo@@QAEXQAVSchemaGrammar@@QAVGrammarResolver@@QAVXMLStringPool@@QAVXMLValidator@@@Z" PURGE="16" COMMENT="" />
    <EXPORT ORDINAL="2064" NAME="?checkValueSpace@AnyURIDatatypeValidator@@MAEXQBG@Z" PURGE="4" COMMENT="" />
    <EXPORT ORDINAL="2065" NAME="?checkValueSpace@Base64BinaryDatatypeValidator@@MAEXQBG@Z" PURGE="4" COMMENT="" />
    <EXPORT ORDINAL="2066" NAME="?checkValueSpace@ENTITYDatatypeValidator@@MAEXQBG@Z" PURGE="4" COMMENT="" />
    <EXPORT ORDINAL="2067" NAME="?checkValueSpace@HexBinaryDatatypeValidator@@MAEXQBG@Z" PURGE="4" COMMENT="" />
    <EXPORT ORDINAL="2068" NAME="?checkValueSpace@IDDatatypeValidator@@MAEXQBG@Z" PURGE="4" COMMENT="" />
    <EXPORT ORDINAL="2069" NAME="?checkValueSpace@IDREFDatatypeValidator@@MAEXQBG@Z" PURGE="4" COMMENT="" />
    <EXPORT ORDINAL="2070" NAME="?checkValueSpace@ListDatatypeValidator@@MAEXQBG@Z" PURGE="4" COMMENT="" />
    <EXPORT ORDINAL="2071" NAME="?checkValueSpace@NCNameDatatypeValidator@@MAEXQBG@Z" PURGE="4" COMMENT="" />
    <EXPORT ORDINAL="2072" NAME="?checkValueSpace@NOTATIONDatatypeValidator@@MAEXQBG@Z" PURGE="4" COMMENT="" />
    <EXPORT ORDINAL="2073" NAME="?checkValueSpace@NameDatatypeValidator@@MAEXQBG@Z" PURGE="4" COMMENT="" />
    <EXPORT ORDINAL="2074" NAME="?checkValueSpace@QNameDatatypeValidator@@MAEXQBG@Z" PURGE="4" COMMENT="" />
    <EXPORT ORDINAL="2075" NAME="?checkValueSpace@StringDatatypeValidator@@MAEXQBG@Z" PURGE="4" COMMENT="" />
    <EXPORT ORDINAL="2076" NAME="?checkXMLDecl@XMLScanner@@QAE_N_N@Z" PURGE="4" COMMENT="" />
    <EXPORT ORDINAL="2077" NAME="?cleanStackBackTo@ReaderMgr@@QAEXI@Z" PURGE="4" COMMENT="" />
    <EXPORT ORDINAL="2078" NAME="?cleanUp@AnyURIDatatypeValidator@@AAEXXZ" PURGE="0" COMMENT="" />
    <EXPORT ORDINAL="2079" NAME="?cleanUp@BMPattern@@AAEXXZ" PURGE="0" COMMENT="" />
    <EXPORT ORDINAL="2080" NAME="?cleanUp@DatatypeValidator@@AAEXXZ" PURGE="0" COMMENT="" />
    <EXPORT ORDINAL="2081" NAME="?cleanUp@DatatypeValidatorFactory@@AAEXXZ" PURGE="0" COMMENT="" />
    <EXPORT ORDINAL="2082" NAME="?cleanUp@IdentityConstraint@@AAEXXZ" PURGE="0" COMMENT="" />
    <EXPORT ORDINAL="2083" NAME="?cleanUp@Match@@AAEXXZ" PURGE="0" COMMENT="" />
    <EXPORT ORDINAL="2084" NAME="?cleanUp@QName@@QAEXXZ" PURGE="0" COMMENT="" />
    <EXPORT ORDINAL="2085" NAME="?cleanUp@RegularExpression@@AAEXXZ" PURGE="0" COMMENT="" />
    <EXPORT ORDINAL="2086" NAME="?cleanUp@SchemaGrammar@@AAEXXZ" PURGE="0" COMMENT="" />
    <EXPORT ORDINAL="2087" NAME="?cleanUp@TraverseSchema@@AAEXXZ" PURGE="0" COMMENT="" />
    <EXPORT ORDINAL="2088" NAME="?cleanUp@UnionDatatypeValidator@@AAEXXZ" PURGE="0" COMMENT="" />
    <EXPORT ORDINAL="2089" NAME="?cleanUp@ValueStoreCache@@AAEXXZ" PURGE="0" COMMENT="" />
    <EXPORT ORDINAL="2090" NAME="?cleanUp@XMLAttDef@@AAEXXZ" PURGE="0" COMMENT="" />
    <EXPORT ORDINAL="2091" NAME="?cleanUp@XMLAttr@@AAEXXZ" PURGE="0" COMMENT="" />
    <EXPORT ORDINAL="2092" NAME="?cleanUp@XMLEntityDecl@@AAEXXZ" PURGE="0" COMMENT="" />
    <EXPORT ORDINAL="2093" NAME="?cleanUp@XMLNotationDecl@@AAEXXZ" PURGE="0" COMMENT="" />
    <EXPORT ORDINAL="2094" NAME="?cleanUp@XMLStringTokenizer@@AAEXXZ" PURGE="0" COMMENT="" />
    <EXPORT ORDINAL="2095" NAME="?cleanUp@XMLUri@@AAEXXZ" PURGE="0" COMMENT="" />
    <EXPORT ORDINAL="2096" NAME="?cleanUp@XPathMatcher@@AAEXXZ" PURGE="0" COMMENT="" />
    <EXPORT ORDINAL="2097" NAME="?cleanUp@XercesXPath@@AAEXXZ" PURGE="0" COMMENT="" />
    <EXPORT ORDINAL="2098" NAME="?cleanup@XMLURL@@AAEXXZ" PURGE="0" COMMENT="" />
    <EXPORT ORDINAL="2099" NAME="?clear@BitSet@@QAEXI@Z" PURGE="4" COMMENT="" />
    <EXPORT ORDINAL="2100" NAME="?clear@XPathMatcher@@AAEXXZ" PURGE="0" COMMENT="" />
    <EXPORT ORDINAL="2101" NAME="?clear@XPathMatcherStack@@QAEXXZ" PURGE="0" COMMENT="" />
    <EXPORT ORDINAL="2102" NAME="?clearAll@BitSet@@QAEXXZ" PURGE="0" COMMENT="" />
    <EXPORT ORDINAL="2103" NAME="?clone@DOMString@@QBE?AV1@XZ" PURGE="4" COMMENT="" />
    <EXPORT ORDINAL="2104" NAME="?cloneAttrMap@AttrMapImpl@@UAEPAV1@PAVNodeImpl@@@Z" PURGE="4" COMMENT="" />
    <EXPORT ORDINAL="2105" NAME="?cloneAttrMap@DOMAttrMapImpl@@UAEPAV1@PAVDOMNode@@@Z" PURGE="4" COMMENT="" />
    <EXPORT ORDINAL="2106" NAME="?cloneChildren@AttrImpl@@IAEXABVNodeImpl@@@Z" PURGE="4" COMMENT="" />
    <EXPORT ORDINAL="2107" NAME="?cloneChildren@DOMParentNode@@QAEXPBVDOMNode@@@Z" PURGE="4" COMMENT="" />
    <EXPORT ORDINAL="2108" NAME="?cloneChildren@ParentNode@@IAEXABVNodeImpl@@@Z" PURGE="4" COMMENT="" />
    <EXPORT ORDINAL="2109" NAME="?cloneContent@DOMNamedNodeMapImpl@@MAEXPBV1@@Z" PURGE="4" COMMENT="" />
    <EXPORT ORDINAL="2110" NAME="?cloneContent@NamedNodeMapImpl@@MAEXPAV1@@Z" PURGE="4" COMMENT="" />
    <EXPORT ORDINAL="2111" NAME="?cloneContents@DOMRangeImpl@@UBEPAVDOMDocumentFragment@@XZ" PURGE="0" COMMENT="" />
    <EXPORT ORDINAL="2112" NAME="?cloneContents@DOM_Range@@QBE?AVDOM_DocumentFragment@@XZ" PURGE="4" COMMENT="" />
    <EXPORT ORDINAL="2113" NAME="?cloneContents@RangeImpl@@QBE?AVDOM_DocumentFragment@@XZ" PURGE="4" COMMENT="" />
    <EXPORT ORDINAL="2114" NAME="?cloneEntityRefTree@DOMEntityImpl@@ABEXXZ" PURGE="0" COMMENT="" />
    <EXPORT ORDINAL="2115" NAME="?cloneEntityRefTree@EntityImpl@@AAEXXZ" PURGE="0" COMMENT="" />
    <EXPORT ORDINAL="2116" NAME="?cloneMap@DOMNamedNodeMapImpl@@UAEPAV1@PAVDOMNode@@@Z" PURGE="4" COMMENT="" />
    <EXPORT ORDINAL="2117" NAME="?cloneMap@NamedNodeMapImpl@@UAEPAV1@PAVNodeImpl@@@Z" PURGE="4" COMMENT="" />
    <EXPORT ORDINAL="2118" NAME="?cloneNode@AttrImpl@@UAEPAVNodeImpl@@_N@Z" PURGE="4" COMMENT="" />
    <EXPORT ORDINAL="2119" NAME="?cloneNode@AttrNSImpl@@UAEPAVNodeImpl@@_N@Z" PURGE="4" COMMENT="" />
    <EXPORT ORDINAL="2120" NAME="?cloneNode@CDATASectionImpl@@UAEPAVNodeImpl@@_N@Z" PURGE="4" COMMENT="" />
    <EXPORT ORDINAL="2121" NAME="?cloneNode@CommentImpl@@UAEPAVNodeImpl@@_N@Z" PURGE="4" COMMENT="" />
    <EXPORT ORDINAL="2122" NAME="?cloneNode@DOMAttrImpl@@UBEPAVDOMNode@@_N@Z" PURGE="4" COMMENT="" />
    <EXPORT ORDINAL="2123" NAME="?cloneNode@DOMAttrNSImpl@@UBEPAVDOMNode@@_N@Z" PURGE="4" COMMENT="" />
    <EXPORT ORDINAL="2124" NAME="?cloneNode@DOMCDATASectionImpl@@UBEPAVDOMNode@@_N@Z" PURGE="4" COMMENT="" />
    <EXPORT ORDINAL="2125" NAME="?cloneNode@DOMCommentImpl@@UBEPAVDOMNode@@_N@Z" PURGE="4" COMMENT="" />
    <EXPORT ORDINAL="2126" NAME="?cloneNode@DOMDocumentFragmentImpl@@UBEPAVDOMNode@@_N@Z" PURGE="4" COMMENT="" />
    <EXPORT ORDINAL="2127" NAME="?cloneNode@DOMDocumentImpl@@UBEPAVDOMNode@@_N@Z" PURGE="4" COMMENT="" />
    <EXPORT ORDINAL="2128" NAME="?cloneNode@DOMDocumentTypeImpl@@UBEPAVDOMNode@@_N@Z" PURGE="4" COMMENT="" />
    <EXPORT ORDINAL="2129" NAME="?cloneNode@DOMElementImpl@@UBEPAVDOMNode@@_N@Z" PURGE="4" COMMENT="" />
    <EXPORT ORDINAL="2130" NAME="?cloneNode@DOMElementNSImpl@@UBEPAVDOMNode@@_N@Z" PURGE="4" COMMENT="" />
    <EXPORT ORDINAL="2131" NAME="?cloneNode@DOMEntityImpl@@UBEPAVDOMNode@@_N@Z" PURGE="4" COMMENT="" />
    <EXPORT ORDINAL="2132" NAME="?cloneNode@DOMEntityReferenceImpl@@UBEPAVDOMNode@@_N@Z" PURGE="4" COMMENT="" />
    <EXPORT ORDINAL="2133" NAME="?cloneNode@DOMNotationImpl@@UBEPAVDOMNode@@_N@Z" PURGE="4" COMMENT="" />
    <EXPORT ORDINAL="2134" NAME="?cloneNode@DOMProcessingInstructionImpl@@UBEPAVDOMNode@@_N@Z" PURGE="4" COMMENT="" />
    <EXPORT ORDINAL="2135" NAME="?cloneNode@DOMTextImpl@@UBEPAVDOMNode@@_N@Z" PURGE="4" COMMENT="" />
    <EXPORT ORDINAL="2136" NAME="?cloneNode@DOM_Node@@QBE?AV1@_N@Z" PURGE="8" COMMENT="" />
    <EXPORT ORDINAL="2137" NAME="?cloneNode@DocumentFragmentImpl@@UAEPAVNodeImpl@@_N@Z" PURGE="4" COMMENT="" />
    <EXPORT ORDINAL="2138" NAME="?cloneNode@DocumentImpl@@UAEPAVNodeImpl@@_N@Z" PURGE="4" COMMENT="" />
    <EXPORT ORDINAL="2139" NAME="?cloneNode@DocumentTypeImpl@@UAEPAVNodeImpl@@_N@Z" PURGE="4" COMMENT="" />
    <EXPORT ORDINAL="2140" NAME="?cloneNode@ElementDefinitionImpl@@UAEPAVNodeImpl@@_N@Z" PURGE="4" COMMENT="" />
    <EXPORT ORDINAL="2141" NAME="?cloneNode@ElementImpl@@UAEPAVNodeImpl@@_N@Z" PURGE="4" COMMENT="" />
    <EXPORT ORDINAL="2142" NAME="?cloneNode@ElementNSImpl@@UAEPAVNodeImpl@@_N@Z" PURGE="4" COMMENT="" />
    <EXPORT ORDINAL="2143" NAME="?cloneNode@EntityImpl@@UAEPAVNodeImpl@@_N@Z" PURGE="4" COMMENT="" />
    <EXPORT ORDINAL="2144" NAME="?cloneNode@EntityReferenceImpl@@UAEPAVNodeImpl@@_N@Z" PURGE="4" COMMENT="" />
    <EXPORT ORDINAL="2145" NAME="?cloneNode@NotationImpl@@UAEPAVNodeImpl@@_N@Z" PURGE="4" COMMENT="" />
    <EXPORT ORDINAL="2146" NAME="?cloneNode@ProcessingInstructionImpl@@UAEPAVNodeImpl@@_N@Z" PURGE="4" COMMENT="" />
    <EXPORT ORDINAL="2147" NAME="?cloneNode@TextImpl@@UAEPAVNodeImpl@@_N@Z" PURGE="4" COMMENT="" />
    <EXPORT ORDINAL="2148" NAME="?cloneNode@XMLDeclImpl@@UAEPAVNodeImpl@@_N@Z" PURGE="4" COMMENT="" />
    <EXPORT ORDINAL="2149" NAME="?cloneNode@XSDElementNSImpl@@UBEPAVDOMNode@@_N@Z" PURGE="4" COMMENT="" />
    <EXPORT ORDINAL="2150" NAME="?cloneRange@DOMRangeImpl@@UBEPAVDOMRange@@XZ" PURGE="0" COMMENT="" />
    <EXPORT ORDINAL="2151" NAME="?cloneRange@DOM_Range@@QBE?AV1@XZ" PURGE="4" COMMENT="" />
    <EXPORT ORDINAL="2152" NAME="?cloneRange@RangeImpl@@QBEPAV1@XZ" PURGE="0" COMMENT="" />
    <EXPORT ORDINAL="2153" NAME="?cloneString@DOMDocumentImpl@@QAEPAGPBG@Z" PURGE="4" COMMENT="" />
    <EXPORT ORDINAL="2154" NAME="?closeFile@XMLPlatformUtils@@SAXPAX@Z" PURGE="0" COMMENT="" />
    <EXPORT ORDINAL="2155" NAME="?closeMutex@XMLPlatformUtils@@SAXQAX@Z" PURGE="0" COMMENT="" />
    <EXPORT ORDINAL="2156" NAME="?closesocket@BinHTTPURLInputStream@@CAHI@Z" PURGE="0" COMMENT="" />
    <EXPORT ORDINAL="2157" NAME="?collapse@DOMRangeImpl@@UAEX_N@Z" PURGE="4" COMMENT="" />
    <EXPORT ORDINAL="2158" NAME="?collapse@DOM_Range@@QAEX_N@Z" PURGE="4" COMMENT="" />
    <EXPORT ORDINAL="2159" NAME="?collapse@RangeImpl@@QAEX_N@Z" PURGE="4" COMMENT="" />
    <EXPORT ORDINAL="2160" NAME="?collapseWS@XMLString@@SAXQAG@Z" PURGE="0" COMMENT="" />
    <EXPORT ORDINAL="2161" NAME="?comment@DefaultHandler@@UAEXQBGI@Z" PURGE="8" COMMENT="" />
    <EXPORT ORDINAL="2162" NAME="?commonAncestorOf@DOMRangeImpl@@ABEPBVDOMNode@@PBV2@0@Z" PURGE="8" COMMENT="" />
    <EXPORT ORDINAL="2163" NAME="?commonAncestorOf@RangeImpl@@ABE?BVDOM_Node@@ABV2@0@Z" PURGE="12" COMMENT="" />
    <EXPORT ORDINAL="2164" NAME="?commonInit@XMLScanner@@AAEXXZ" PURGE="0" COMMENT="" />
    <EXPORT ORDINAL="2165" NAME="?compactRanges@RangeToken@@UAEXXZ" PURGE="0" COMMENT="" />
    <EXPORT ORDINAL="2166" NAME="?compactRanges@Token@@UAEXXZ" PURGE="0" COMMENT="" />
    <EXPORT ORDINAL="2167" NAME="?compare@AbstractStringValidator@@UAEHQBG0@Z" PURGE="8" COMMENT="" />
    <EXPORT ORDINAL="2168" NAME="?compare@AnySimpleTypeDatatypeValidator@@UAEHQBG0@Z" PURGE="8" COMMENT="" />
    <EXPORT ORDINAL="2169" NAME="?compare@BooleanDatatypeValidator@@UAEHQBG0@Z" PURGE="8" COMMENT="" />
    <EXPORT ORDINAL="2170" NAME="?compare@DatatypeValidator@@UAEHQBG0@Z" PURGE="8" COMMENT="" />
    <EXPORT ORDINAL="2171" NAME="?compare@DateTimeValidator@@UAEHQBG0@Z" PURGE="8" COMMENT="" />
    <EXPORT ORDINAL="2172" NAME="?compare@DecimalDatatypeValidator@@UAEHQBG0@Z" PURGE="8" COMMENT="" />
    <EXPORT ORDINAL="2173" NAME="?compare@DoubleDatatypeValidator@@UAEHQBG0@Z" PURGE="8" COMMENT="" />
    <EXPORT ORDINAL="2174" NAME="?compare@ENTITYDatatypeValidator@@UAEHQBG0@Z" PURGE="8" COMMENT="" />
    <EXPORT ORDINAL="2175" NAME="?compare@FloatDatatypeValidator@@UAEHQBG0@Z" PURGE="8" COMMENT="" />
    <EXPORT ORDINAL="2176" NAME="?compare@ListDatatypeValidator@@UAEHQBG0@Z" PURGE="8" COMMENT="" />
    <EXPORT ORDINAL="2177" NAME="?compare@NCNameDatatypeValidator@@UAEHQBG0@Z" PURGE="8" COMMENT="" />
    <EXPORT ORDINAL="2178" NAME="?compare@NameDatatypeValidator@@UAEHQBG0@Z" PURGE="8" COMMENT="" />
    <EXPORT ORDINAL="2179" NAME="?compare@UnionDatatypeValidator@@UAEHQBG0@Z" PURGE="8" COMMENT="" />
    <EXPORT ORDINAL="2180" NAME="?compare@XMLDateTime@@SAHQBV1@0@Z" PURGE="0" COMMENT="" />
    <EXPORT ORDINAL="2181" NAME="?compare@XMLDateTime@@SAHQBV1@0_N@Z" PURGE="0" COMMENT="" />
    <EXPORT ORDINAL="2182" NAME="?compareAndSwap@XMLPlatformUtils@@SAPAXPAPAXQBX1@Z" PURGE="0" COMMENT="" />
    <EXPORT ORDINAL="2183" NAME="?compareBoundaryPoints@DOMRangeImpl@@UBEFW4CompareHow@DOMRange@@PBV3@@Z" PURGE="8" COMMENT="" />
    <EXPORT ORDINAL="2184" NAME="?compareBoundaryPoints@DOM_Range@@QBEFW4CompareHow@1@ABV1@@Z" PURGE="8" COMMENT="" />
    <EXPORT ORDINAL="2185" NAME="?compareBoundaryPoints@RangeImpl@@QBEFW4CompareHow@DOM_Range@@PAV1@@Z" PURGE="8" COMMENT="" />
    <EXPORT ORDINAL="2186" NAME="?compareDates@DateTimeValidator@@MAEHQBVXMLDateTime@@0_N@Z" PURGE="12" COMMENT="" />
    <EXPORT ORDINAL="2187" NAME="?compareDates@DurationDatatypeValidator@@MAEHQBVXMLDateTime@@0_N@Z" PURGE="12" COMMENT="" />
    <EXPORT ORDINAL="2188" NAME="?compareIString@Win32TransService@@UAEHQBG0@Z" PURGE="8" COMMENT="" />
    <EXPORT ORDINAL="2189" NAME="?compareIString@XMLString@@SAHQBD0@Z" PURGE="0" COMMENT="" />
    <EXPORT ORDINAL="2190" NAME="?compareIString@XMLString@@SAHQBG0@Z" PURGE="0" COMMENT="" />
    <EXPORT ORDINAL="2191" NAME="?compareNIString@Win32TransService@@UAEHQBG0I@Z" PURGE="12" COMMENT="" />
    <EXPORT ORDINAL="2192" NAME="?compareNIString@XMLString@@SAHQBD0I@Z" PURGE="0" COMMENT="" />
    <EXPORT ORDINAL="2193" NAME="?compareNIString@XMLString@@SAHQBG0I@Z" PURGE="0" COMMENT="" />
    <EXPORT ORDINAL="2194" NAME="?compareNString@XMLString@@SAHQBD0I@Z" PURGE="0" COMMENT="" />
    <EXPORT ORDINAL="2195" NAME="?compareNString@XMLString@@SAHQBG0I@Z" PURGE="0" COMMENT="" />
    <EXPORT ORDINAL="2196" NAME="?compareOrder@XMLDateTime@@SAHQBV1@0@Z" PURGE="0" COMMENT="" />
    <EXPORT ORDINAL="2197" NAME="?compareResult@XMLDateTime@@CAHFF_N@Z" PURGE="0" COMMENT="" />
    <EXPORT ORDINAL="2198" NAME="?compareResult@XMLDateTime@@CAHQBV1@0_NH@Z" PURGE="0" COMMENT="" />
    <EXPORT ORDINAL="2199" NAME="?compareSpecial@XMLAbstractDoubleFloat@@CAHQBV1@0@Z" PURGE="4" COMMENT="" />
    <EXPORT ORDINAL="2200" NAME="?compareString@DOMString@@QBEHABV1@@Z" PURGE="4" COMMENT="" />
    <EXPORT ORDINAL="2201" NAME="?compareString@XMLString@@SAHQBD0@Z" PURGE="0" COMMENT="" />
    <EXPORT ORDINAL="2202" NAME="?compareString@XMLString@@SAHQBG0@Z" PURGE="0" COMMENT="" />
    <EXPORT ORDINAL="2203" NAME="?compareTreePosition@DOMAttrImpl@@UAEFPAVDOMNode@@@Z" PURGE="4" COMMENT="" />
    <EXPORT ORDINAL="2204" NAME="?compareTreePosition@DOMCDATASectionImpl@@UAEFPAVDOMNode@@@Z" PURGE="4" COMMENT="" />
    <EXPORT ORDINAL="2205" NAME="?compareTreePosition@DOMCommentImpl@@UAEFPAVDOMNode@@@Z" PURGE="4" COMMENT="" />
    <EXPORT ORDINAL="2206" NAME="?compareTreePosition@DOMDocumentFragmentImpl@@UAEFPAVDOMNode@@@Z" PURGE="4" COMMENT="" />
    <EXPORT ORDINAL="2207" NAME="?compareTreePosition@DOMDocumentImpl@@UAEFPAVDOMNode@@@Z" PURGE="4" COMMENT="" />
    <EXPORT ORDINAL="2208" NAME="?compareTreePosition@DOMDocumentTypeImpl@@UAEFPAVDOMNode@@@Z" PURGE="4" COMMENT="" />
    <EXPORT ORDINAL="2209" NAME="?compareTreePosition@DOMElementImpl@@UAEFPAVDOMNode@@@Z" PURGE="4" COMMENT="" />
    <EXPORT ORDINAL="2210" NAME="?compareTreePosition@DOMEntityImpl@@UAEFPAVDOMNode@@@Z" PURGE="4" COMMENT="" />
    <EXPORT ORDINAL="2211" NAME="?compareTreePosition@DOMEntityReferenceImpl@@UAEFPAVDOMNode@@@Z" PURGE="4" COMMENT="" />
    <EXPORT ORDINAL="2212" NAME="?compareTreePosition@DOMNodeImpl@@QAEFPAVDOMNode@@@Z" PURGE="4" COMMENT="" />
    <EXPORT ORDINAL="2213" NAME="?compareTreePosition@DOMNotationImpl@@UAEFPAVDOMNode@@@Z" PURGE="4" COMMENT="" />
    <EXPORT ORDINAL="2214" NAME="?compareTreePosition@DOMProcessingInstructionImpl@@UAEFPAVDOMNode@@@Z" PURGE="4" COMMENT="" />
    <EXPORT ORDINAL="2215" NAME="?compareTreePosition@DOMTextImpl@@UAEFPAVDOMNode@@@Z" PURGE="4" COMMENT="" />
    <EXPORT ORDINAL="2216" NAME="?compareValues@DateTimeValidator@@MAEHQBVXMLNumber@@0@Z" PURGE="8" COMMENT="" />
    <EXPORT ORDINAL="2217" NAME="?compareValues@DecimalDatatypeValidator@@MAEHQBVXMLNumber@@0@Z" PURGE="8" COMMENT="" />
    <EXPORT ORDINAL="2218" NAME="?compareValues@DoubleDatatypeValidator@@MAEHQBVXMLNumber@@0@Z" PURGE="8" COMMENT="" />
    <EXPORT ORDINAL="2219" NAME="?compareValues@FloatDatatypeValidator@@MAEHQBVXMLNumber@@0@Z" PURGE="8" COMMENT="" />
    <EXPORT ORDINAL="2220" NAME="?compareValues@XMLAbstractDoubleFloat@@KAHQBV1@0@Z" PURGE="4" COMMENT="" />
    <EXPORT ORDINAL="2221" NAME="?compareValues@XMLBigDecimal@@SAHQBV1@0@Z" PURGE="0" COMMENT="" />
    <EXPORT ORDINAL="2222" NAME="?compareValues@XMLBigInteger@@SAHQBV1@0@Z" PURGE="0" COMMENT="" />
    <EXPORT ORDINAL="2223" NAME="?compareValues@XMLDouble@@SAHQBV1@0@Z" PURGE="0" COMMENT="" />
    <EXPORT ORDINAL="2224" NAME="?compareValues@XMLFloat@@SAHQBV1@0@Z" PURGE="0" COMMENT="" />
    <EXPORT ORDINAL="2225" NAME="?compile@RegularExpression@@AAEPAVOp@@QBVToken@@QAV2@_N@Z" PURGE="0" COMMENT="" />
    <EXPORT ORDINAL="2226" NAME="?compile@RegularExpression@@AAEXQBVToken@@@Z" PURGE="4" COMMENT="" />
    <EXPORT ORDINAL="2227" NAME="?compileClosure@RegularExpression@@AAEPAVOp@@QBVToken@@QAV2@_NG@Z" PURGE="16" COMMENT="" />
    <EXPORT ORDINAL="2228" NAME="?compileConcat@RegularExpression@@AAEPAVOp@@QBVToken@@QAV2@_N@Z" PURGE="12" COMMENT="" />
    <EXPORT ORDINAL="2229" NAME="?compileCondition@RegularExpression@@AAEPAVOp@@QBVToken@@QAV2@_N@Z" PURGE="12" COMMENT="" />
    <EXPORT ORDINAL="2230" NAME="?compileLook@RegularExpression@@AAEPAVOp@@QBVToken@@QBV2@_NG@Z" PURGE="16" COMMENT="" />
    <EXPORT ORDINAL="2231" NAME="?compileParenthesis@RegularExpression@@AAEPAVOp@@QBVToken@@QAV2@_N@Z" PURGE="12" COMMENT="" />
    <EXPORT ORDINAL="2232" NAME="?compileSingle@RegularExpression@@AAEPAVOp@@QBVToken@@QAV2@G@Z" PURGE="12" COMMENT="" />
    <EXPORT ORDINAL="2233" NAME="?compileUnion@RegularExpression@@AAEPAVOp@@QBVToken@@QAV2@_N@Z" PURGE="12" COMMENT="" />
    <EXPORT ORDINAL="2234" NAME="?complementRanges@RangeToken@@SAPAVToken@@QAV1@QAVTokenFactory@@@Z" PURGE="0" COMMENT="" />
    <EXPORT ORDINAL="2235" NAME="?composeFromSurrogate@RegxUtil@@SAHGG@Z" PURGE="0" COMMENT="" />
    <EXPORT ORDINAL="2236" NAME="?conflict@XercesElementWildcard@@SA_NQAVSchemaGrammar@@W4NodeTypes@ContentSpecNode@@PAVQName@@12PAVSubstitutionGroupComparator@@@Z" PURGE="0" COMMENT="" />
    <EXPORT ORDINAL="2237" NAME="?conglomerateWithBase@XMLURL@@AAE_NABV1@_N@Z" PURGE="8" COMMENT="" />
    <EXPORT ORDINAL="2238" NAME="?connect@BinHTTPURLInputStream@@CAHGPBUsockaddr@@H@Z" PURGE="0" COMMENT="" />
    <EXPORT ORDINAL="2239" NAME="?contains@ComplexTypeInfo@@QAE_NQBG@Z" PURGE="4" COMMENT="" />
    <EXPORT ORDINAL="2240" NAME="?contains@ValueStore@@QAE_NQBVFieldValueMap@@@Z" PURGE="4" COMMENT="" />
    <EXPORT ORDINAL="2241" NAME="?containsAttWithTypeId@ComplexTypeInfo@@QBE_NXZ" PURGE="0" COMMENT="" />
    <EXPORT ORDINAL="2242" NAME="?containsAttribute@XercesAttGroupInfo@@QAE_NQBGI@Z" PURGE="8" COMMENT="" />
    <EXPORT ORDINAL="2243" NAME="?containsTypeWithId@XercesAttGroupInfo@@QBE_NXZ" PURGE="0" COMMENT="" />
    <EXPORT ORDINAL="2244" NAME="?containsWhiteSpace@XMLReader@@SA_NQBGI@Z" PURGE="0" COMMENT="" />
    <EXPORT ORDINAL="2245" NAME="?convertContentSpecTree@ComplexTypeInfo@@AAEPAVContentSpecNode@@QAV2@_N@Z" PURGE="8" COMMENT="" />
    <EXPORT ORDINAL="2246" NAME="?copy@XMLDateTime@@AAEXABV1@@Z" PURGE="4" COMMENT="" />
    <EXPORT ORDINAL="2247" NAME="?copyAttGroupAttributes@TraverseSchema@@AAEXQBVDOMElement@@QAVXercesAttGroupInfo@@1QAVComplexTypeInfo@@@Z" PURGE="16" COMMENT="" />
    <EXPORT ORDINAL="2248" NAME="?copyGroupElements@TraverseSchema@@AAEXQBVDOMElement@@QAVXercesGroupInfo@@1QAVComplexTypeInfo@@@Z" PURGE="16" COMMENT="" />
    <EXPORT ORDINAL="2249" NAME="?copyNString@XMLString@@SA_NQAGQBGI@Z" PURGE="0" COMMENT="" />
    <EXPORT ORDINAL="2250" NAME="?copyString@XMLString@@SAXQADQBD@Z" PURGE="0" COMMENT="" />
    <EXPORT ORDINAL="2251" NAME="?copyString@XMLString@@SAXQAGQBG@Z" PURGE="0" COMMENT="" />
    <EXPORT ORDINAL="2252" NAME="?copyWildCardData@TraverseSchema@@AAEXQBVSchemaAttDef@@QAV2@@Z" PURGE="8" COMMENT="" />
    <EXPORT ORDINAL="2253" NAME="?countTokens@XMLStringTokenizer@@QAEHXZ" PURGE="0" COMMENT="" />
    <EXPORT ORDINAL="2254" NAME="?createAnchorOp@OpFactory@@QAEPAVCharOp@@H@Z" PURGE="4" COMMENT="" />
    <EXPORT ORDINAL="2255" NAME="?createAttribute@DOMDocumentImpl@@UAEPAVDOMAttr@@PBG@Z" PURGE="4" COMMENT="" />
    <EXPORT ORDINAL="2256" NAME="?createAttribute@DOM_Document@@QAE?AVDOM_Attr@@ABVDOMString@@@Z" PURGE="8" COMMENT="" />
    <EXPORT ORDINAL="2257" NAME="?createAttribute@DocumentImpl@@UAEPAVAttrImpl@@ABVDOMString@@@Z" PURGE="4" COMMENT="" />
    <EXPORT ORDINAL="2258" NAME="?createAttributeNS@DOMDocumentImpl@@UAEPAVDOMAttr@@PBG0@Z" PURGE="8" COMMENT="" />
    <EXPORT ORDINAL="2259" NAME="?createAttributeNS@DOM_Document@@QAE?AVDOM_Attr@@ABVDOMString@@0@Z" PURGE="12" COMMENT="" />
    <EXPORT ORDINAL="2260" NAME="?createAttributeNS@DocumentImpl@@UAEPAVAttrImpl@@ABVDOMString@@0@Z" PURGE="8" COMMENT="" />
    <EXPORT ORDINAL="2261" NAME="?createBackReference@TokenFactory@@QAEPAVStringToken@@H@Z" PURGE="4" COMMENT="" />
    <EXPORT ORDINAL="2262" NAME="?createBackReferenceOp@OpFactory@@QAEPAVCharOp@@H@Z" PURGE="4" COMMENT="" />
    <EXPORT ORDINAL="2263" NAME="?createCDATASection@DOMDocumentImpl@@UAEPAVDOMCDATASection@@PBG@Z" PURGE="4" COMMENT="" />
    <EXPORT ORDINAL="2264" NAME="?createCDATASection@DOM_Document@@QAE?AVDOM_CDATASection@@ABVDOMString@@@Z" PURGE="8" COMMENT="" />
    <EXPORT ORDINAL="2265" NAME="?createCDATASection@DocumentImpl@@UAEPAVCDATASectionImpl@@ABVDOMString@@@Z" PURGE="4" COMMENT="" />
    <EXPORT ORDINAL="2266" NAME="?createCaptureOp@OpFactory@@QAEPAVCharOp@@HQBVOp@@@Z" PURGE="8" COMMENT="" />
    <EXPORT ORDINAL="2267" NAME="?createChar@TokenFactory@@QAEPAVCharToken@@I_N@Z" PURGE="8" COMMENT="" />
    <EXPORT ORDINAL="2268" NAME="?createCharOp@OpFactory@@QAEPAVCharOp@@H@Z" PURGE="4" COMMENT="" />
    <EXPORT ORDINAL="2269" NAME="?createChildModel@ComplexTypeInfo@@AAEPAVXMLContentModel@@PAVContentSpecNode@@_N@Z" PURGE="8" COMMENT="" />
    <EXPORT ORDINAL="2270" NAME="?createChildModel@DTDElementDecl@@AAEPAVXMLContentModel@@XZ" PURGE="0" COMMENT="" />
    <EXPORT ORDINAL="2271" NAME="?createClosure@TokenFactory@@QAEPAVClosureToken@@QAVToken@@_N@Z" PURGE="8" COMMENT="" />
    <EXPORT ORDINAL="2272" NAME="?createClosureOp@OpFactory@@QAEPAVChildOp@@H@Z" PURGE="4" COMMENT="" />
    <EXPORT ORDINAL="2273" NAME="?createComment@DOMDocumentImpl@@UAEPAVDOMComment@@PBG@Z" PURGE="4" COMMENT="" />
    <EXPORT ORDINAL="2274" NAME="?createComment@DOM_Document@@QAE?AVDOM_Comment@@ABVDOMString@@@Z" PURGE="8" COMMENT="" />
    <EXPORT ORDINAL="2275" NAME="?createComment@DocumentImpl@@UAEPAVCommentImpl@@ABVDOMString@@@Z" PURGE="4" COMMENT="" />
    <EXPORT ORDINAL="2276" NAME="?createConcat@TokenFactory@@QAEPAVConcatToken@@QAVToken@@0@Z" PURGE="8" COMMENT="" />
    <EXPORT ORDINAL="2277" NAME="?createCondition@TokenFactory@@QAEPAVConditionToken@@HQAVToken@@00@Z" PURGE="16" COMMENT="" />
    <EXPORT ORDINAL="2278" NAME="?createConditionOp@OpFactory@@QAEPAVConditionOp@@QBVOp@@H000@Z" PURGE="20" COMMENT="" />
    <EXPORT ORDINAL="2279" NAME="?createDatatypeValidator@DatatypeValidatorFactory@@QAEPAVDatatypeValidator@@QBGQAV2@QAV?$RefHashTableOf@VKVStringPair@@@@QAV?$RefVectorOf@G@@_NH4@Z" PURGE="28" COMMENT="" />
    <EXPORT ORDINAL="2280" NAME="?createDatatypeValidator@DatatypeValidatorFactory@@QAEPAVDatatypeValidator@@QBGQAV?$RefVectorOf@VDatatypeValidator@@@@H_N@Z" PURGE="16" COMMENT="" />
    <EXPORT ORDINAL="2281" NAME="?createDocument@DOM_DOMImplementation@@QAE?AVDOM_Document@@ABVDOMString@@0ABVDOM_DocumentType@@@Z" PURGE="16" COMMENT="" />
    <EXPORT ORDINAL="2282" NAME="?createDocument@DOM_Document@@SA?AV1@XZ" PURGE="0" COMMENT="" />
    <EXPORT ORDINAL="2283" NAME="?createDocumentFragment@DOMDocumentImpl@@UAEPAVDOMDocumentFragment@@XZ" PURGE="0" COMMENT="" />
    <EXPORT ORDINAL="2284" NAME="?createDocumentFragment@DOM_Document@@QAE?AVDOM_DocumentFragment@@XZ" PURGE="4" COMMENT="" />
    <EXPORT ORDINAL="2285" NAME="?createDocumentFragment@DocumentImpl@@UAEPAVDocumentFragmentImpl@@XZ" PURGE="0" COMMENT="" />
    <EXPORT ORDINAL="2286" NAME="?createDocumentType@DOMDocumentImpl@@UAEPAVDOMDocumentType@@PBG00@Z" PURGE="12" COMMENT="" />
    <EXPORT ORDINAL="2287" NAME="?createDocumentType@DOMDocumentImpl@@UAEPAVDOMDocumentType@@PBG@Z" PURGE="4" COMMENT="" />
    <EXPORT ORDINAL="2288" NAME="?createDocumentType@DOM_DOMImplementation@@QAE?AVDOM_DocumentType@@ABVDOMString@@00@Z" PURGE="16" COMMENT="" />
    <EXPORT ORDINAL="2289" NAME="?createDocumentType@DOM_Document@@QAE?AVDOM_DocumentType@@ABVDOMString@@@Z" PURGE="8" COMMENT="" />
    <EXPORT ORDINAL="2290" NAME="?createDocumentType@DocumentImpl@@UAEPAVDocumentTypeImpl@@ABVDOMString@@00@Z" PURGE="12" COMMENT="" />
    <EXPORT ORDINAL="2291" NAME="?createDocumentType@DocumentImpl@@UAEPAVDocumentTypeImpl@@ABVDOMString@@@Z" PURGE="4" COMMENT="" />
    <EXPORT ORDINAL="2292" NAME="?createDotOp@OpFactory@@QAEPAVOp@@XZ" PURGE="0" COMMENT="" />
    <EXPORT ORDINAL="2293" NAME="?createElement@DOMDocumentImpl@@UAEPAVDOMElement@@PBG@Z" PURGE="4" COMMENT="" />
    <EXPORT ORDINAL="2294" NAME="?createElement@DOM_Document@@QAE?AVDOM_Element@@ABVDOMString@@@Z" PURGE="8" COMMENT="" />
    <EXPORT ORDINAL="2295" NAME="?createElement@DOM_Document@@QAE?AVDOM_Element@@PBG@Z" PURGE="8" COMMENT="" />
    <EXPORT ORDINAL="2296" NAME="?createElement@DocumentImpl@@UAEPAVElementImpl@@ABVDOMString@@@Z" PURGE="4" COMMENT="" />
    <EXPORT ORDINAL="2297" NAME="?createElement@DocumentImpl@@UAEPAVElementImpl@@PBG@Z" PURGE="4" COMMENT="" />
    <EXPORT ORDINAL="2298" NAME="?createElementNS@DOMDocumentImpl@@UAEPAVDOMElement@@PBG0@Z" PURGE="8" COMMENT="" />
    <EXPORT ORDINAL="2299" NAME="?createElementNS@DOMDocumentImpl@@UAEPAVDOMElement@@PBG0JJ@Z" PURGE="16" COMMENT="" />
    <EXPORT ORDINAL="2300" NAME="?createElementNS@DOM_Document@@QAE?AVDOM_Element@@ABVDOMString@@0@Z" PURGE="12" COMMENT="" />
    <EXPORT ORDINAL="2301" NAME="?createElementNS@DocumentImpl@@UAEPAVElementImpl@@ABVDOMString@@0@Z" PURGE="8" COMMENT="" />
    <EXPORT ORDINAL="2302" NAME="?createElementNSNode@AbstractDOMParser@@MAEPAVDOMElement@@PBG0@Z" PURGE="8" COMMENT="" />
    <EXPORT ORDINAL="2303" NAME="?createElementNSNode@XSDDOMParser@@MAEPAVDOMElement@@PBG0@Z" PURGE="8" COMMENT="" />
    <EXPORT ORDINAL="2304" NAME="?createElementNoCheck@DOMDocumentImpl@@UAEPAVDOMElement@@PBG@Z" PURGE="4" COMMENT="" />
    <EXPORT ORDINAL="2305" NAME="?createEntity@DOMDocumentImpl@@UAEPAVDOMEntity@@PBG@Z" PURGE="4" COMMENT="" />
    <EXPORT ORDINAL="2306" NAME="?createEntity@DOM_Document@@QAE?AVDOM_Entity@@ABVDOMString@@@Z" PURGE="8" COMMENT="" />
    <EXPORT ORDINAL="2307" NAME="?createEntity@DocumentImpl@@UAEPAVEntityImpl@@ABVDOMString@@@Z" PURGE="4" COMMENT="" />
    <EXPORT ORDINAL="2308" NAME="?createEntityReference@DOMDocumentImpl@@UAEPAVDOMEntityReference@@PBG@Z" PURGE="4" COMMENT="" />
    <EXPORT ORDINAL="2309" NAME="?createEntityReference@DOM_Document@@QAE?AVDOM_EntityReference@@ABVDOMString@@@Z" PURGE="8" COMMENT="" />
    <EXPORT ORDINAL="2310" NAME="?createEntityReference@DocumentImpl@@UAEPAVEntityReferenceImpl@@ABVDOMString@@@Z" PURGE="4" COMMENT="" />
    <EXPORT ORDINAL="2311" NAME="?createIndependentOp@OpFactory@@QAEPAVChildOp@@QBVOp@@0@Z" PURGE="8" COMMENT="" />
    <EXPORT ORDINAL="2312" NAME="?createIntEntReader@ReaderMgr@@QAEPAVXMLReader@@QBGW4RefFrom@2@W4Types@2@0I_N@Z" PURGE="24" COMMENT="" />
    <EXPORT ORDINAL="2313" NAME="?createLook@TokenFactory@@QAEPAVParenToken@@GQAVToken@@@Z" PURGE="8" COMMENT="" />
    <EXPORT ORDINAL="2314" NAME="?createLookOp@OpFactory@@QAEPAVChildOp@@FQBVOp@@0@Z" PURGE="12" COMMENT="" />
    <EXPORT ORDINAL="2315" NAME="?createMap@RangeToken@@AAEXXZ" PURGE="0" COMMENT="" />
    <EXPORT ORDINAL="2316" NAME="?createMatcher@IC_Field@@QAEPAVXPathMatcher@@QAVValueStore@@@Z" PURGE="4" COMMENT="" />
    <EXPORT ORDINAL="2317" NAME="?createMatcher@IC_Selector@@QAEPAVXPathMatcher@@QAVFieldActivator@@@Z" PURGE="4" COMMENT="" />
    <EXPORT ORDINAL="2318" NAME="?createModifierGroup@TokenFactory@@QAEPAVModifierToken@@QAVToken@@HH@Z" PURGE="12" COMMENT="" />
    <EXPORT ORDINAL="2319" NAME="?createModifierOp@OpFactory@@QAEPAVModifierOp@@QBVOp@@0HH@Z" PURGE="16" COMMENT="" />
    <EXPORT ORDINAL="2320" NAME="?createNodeIterator@DOMDocumentImpl@@UAEPAVDOMNodeIterator@@PAVDOMNode@@KPAVDOMNodeFilter@@_N@Z" PURGE="16" COMMENT="" />
    <EXPORT ORDINAL="2321" NAME="?createNodeIterator@DOM_Document@@QAE?AVDOM_NodeIterator@@VDOM_Node@@KPAVDOM_NodeFilter@@_N@Z" PURGE="20" COMMENT="" />
    <EXPORT ORDINAL="2322" NAME="?createNodeIterator@DocumentImpl@@SAPAVNodeIteratorImpl@@VDOM_Node@@KPAVDOM_NodeFilter@@_N@Z" PURGE="0" COMMENT="" />
    <EXPORT ORDINAL="2323" NAME="?createNonGreedyClosureOp@OpFactory@@QAEPAVChildOp@@XZ" PURGE="0" COMMENT="" />
    <EXPORT ORDINAL="2324" NAME="?createNotation@DOMDocumentImpl@@UAEPAVDOMNotation@@PBG@Z" PURGE="4" COMMENT="" />
    <EXPORT ORDINAL="2325" NAME="?createNotation@DOM_Document@@QAE?AVDOM_Notation@@ABVDOMString@@@Z" PURGE="8" COMMENT="" />
    <EXPORT ORDINAL="2326" NAME="?createNotation@DocumentImpl@@UAEPAVNotationImpl@@ABVDOMString@@@Z" PURGE="4" COMMENT="" />
    <EXPORT ORDINAL="2327" NAME="?createParenthesis@TokenFactory@@QAEPAVParenToken@@QAVToken@@H@Z" PURGE="8" COMMENT="" />
    <EXPORT ORDINAL="2328" NAME="?createProcessingInstruction@DOMDocumentImpl@@UAEPAVDOMProcessingInstruction@@PBG0@Z" PURGE="8" COMMENT="" />
    <EXPORT ORDINAL="2329" NAME="?createProcessingInstruction@DOM_Document@@QAE?AVDOM_ProcessingInstruction@@ABVDOMString@@0@Z" PURGE="12" COMMENT="" />
    <EXPORT ORDINAL="2330" NAME="?createProcessingInstruction@DocumentImpl@@UAEPAVProcessingInstructionImpl@@ABVDOMString@@0@Z" PURGE="8" COMMENT="" />
    <EXPORT ORDINAL="2331" NAME="?createQuestionOp@OpFactory@@QAEPAVChildOp@@_N@Z" PURGE="4" COMMENT="" />
    <EXPORT ORDINAL="2332" NAME="?createRange@DOMDocumentImpl@@UAEPAVDOMRange@@XZ" PURGE="0" COMMENT="" />
    <EXPORT ORDINAL="2333" NAME="?createRange@DOM_Document@@QAE?AVDOM_Range@@XZ" PURGE="4" COMMENT="" />
    <EXPORT ORDINAL="2334" NAME="?createRange@DocumentImpl@@UAEPAVRangeImpl@@XZ" PURGE="0" COMMENT="" />
    <EXPORT ORDINAL="2335" NAME="?createRange@TokenFactory@@QAEPAVRangeToken@@_N@Z" PURGE="4" COMMENT="" />
    <EXPORT ORDINAL="2336" NAME="?createRangeOp@OpFactory@@QAEPAVRangeOp@@QBVToken@@@Z" PURGE="4" COMMENT="" />
    <EXPORT ORDINAL="2337" NAME="?createReader@ReaderMgr@@QAEPAVXMLReader@@ABVInputSource@@_NW4RefFrom@2@W4Types@2@W4Sources@2@@Z" PURGE="20" COMMENT="" />
    <EXPORT ORDINAL="2338" NAME="?createReader@ReaderMgr@@QAEPAVXMLReader@@QBG00_NW4RefFrom@2@W4Types@2@W4Sources@2@AAPAVInputSource@@@Z" PURGE="32" COMMENT="" />
    <EXPORT ORDINAL="2339" NAME="?createReader@ReaderMgr@@QAEPAVXMLReader@@QBG0_NW4RefFrom@2@W4Types@2@W4Sources@2@AAPAVInputSource@@@Z" PURGE="28" COMMENT="" />
    <EXPORT ORDINAL="2340" NAME="?createSchemaElementDecl@TraverseSchema@@AAEPAVSchemaElementDecl@@QBVDOMElement@@_NGAA_N1@Z" PURGE="20" COMMENT="" />
    <EXPORT ORDINAL="2341" NAME="?createString@TokenFactory@@QAEPAVStringToken@@QBG@Z" PURGE="4" COMMENT="" />
    <EXPORT ORDINAL="2342" NAME="?createStringOp@OpFactory@@QAEPAVStringOp@@QBG@Z" PURGE="4" COMMENT="" />
    <EXPORT ORDINAL="2343" NAME="?createTextNode@DOMDocumentImpl@@UAEPAVDOMText@@PBG@Z" PURGE="4" COMMENT="" />
    <EXPORT ORDINAL="2344" NAME="?createTextNode@DOM_Document@@QAE?AVDOM_Text@@ABVDOMString@@@Z" PURGE="8" COMMENT="" />
    <EXPORT ORDINAL="2345" NAME="?createTextNode@DocumentImpl@@UAEPAVTextImpl@@ABVDOMString@@@Z" PURGE="4" COMMENT="" />
    <EXPORT ORDINAL="2346" NAME="?createToken@TokenFactory@@QAEPAVToken@@G@Z" PURGE="4" COMMENT="" />
    <EXPORT ORDINAL="2347" NAME="?createTreeWalker@DOMDocumentImpl@@UAEPAVDOMTreeWalker@@PAVDOMNode@@KPAVDOMNodeFilter@@_N@Z" PURGE="16" COMMENT="" />
    <EXPORT ORDINAL="2348" NAME="?createTreeWalker@DOM_Document@@QAE?AVDOM_TreeWalker@@VDOM_Node@@KPAVDOM_NodeFilter@@_N@Z" PURGE="20" COMMENT="" />
    <EXPORT ORDINAL="2349" NAME="?createTreeWalker@DocumentImpl@@SAPAVTreeWalkerImpl@@VDOM_Node@@KPAVDOM_NodeFilter@@_N@Z" PURGE="0" COMMENT="" />
    <EXPORT ORDINAL="2350" NAME="?createUnion@TokenFactory@@QAEPAVUnionToken@@_N@Z" PURGE="4" COMMENT="" />
    <EXPORT ORDINAL="2351" NAME="?createUnionOp@OpFactory@@QAEPAVUnionOp@@H@Z" PURGE="4" COMMENT="" />
    <EXPORT ORDINAL="2352" NAME="?createXMLDecl@DOM_Document@@QAE?AVDOM_XMLDecl@@ABVDOMString@@00@Z" PURGE="16" COMMENT="" />
    <EXPORT ORDINAL="2353" NAME="?createXMLDecl@DocumentImpl@@UAEPAVXMLDeclImpl@@ABVDOMString@@00@Z" PURGE="12" COMMENT="" />
    <EXPORT ORDINAL="2354" NAME="?createXMLReader@XMLReaderFactory@@SAPAVSAX2XMLReader@@PBG@Z" PURGE="0" COMMENT="" />
    <EXPORT ORDINAL="2355" NAME="?createXMLReader@XMLReaderFactory@@SAPAVSAX2XMLReader@@XZ" PURGE="0" COMMENT="" />
    <EXPORT ORDINAL="2356" NAME="?curFilePos@XMLPlatformUtils@@SAIPAX@Z" PURGE="0" COMMENT="" />
    <EXPORT ORDINAL="2357" NAME="?curPos@BinFileInputStream@@UBEIXZ" PURGE="0" COMMENT="" />
    <EXPORT ORDINAL="2358" NAME="?curPos@BinHTTPURLInputStream@@UBEIXZ" PURGE="0" COMMENT="" />
    <EXPORT ORDINAL="2359" NAME="?curPos@BinMemInputStream@@UBEIXZ" PURGE="0" COMMENT="" />
    <EXPORT ORDINAL="2360" NAME="?cut@XMLString@@SAXQAGI@Z" PURGE="0" COMMENT="" />
    <EXPORT ORDINAL="2361" NAME="?decode@Base64@@SAPAEQBEPAI@Z" PURGE="0" COMMENT="" />
    <EXPORT ORDINAL="2362" NAME="?decode@Base64@@SAPAGQBGPAI@Z" PURGE="0" COMMENT="" />
    <EXPORT ORDINAL="2363" NAME="?decodeEscaped@ParserForXMLSchema@@MAEHXZ" PURGE="0" COMMENT="" />
    <EXPORT ORDINAL="2364" NAME="?decodeEscaped@RegxParser@@MAEHXZ" PURGE="0" COMMENT="" />
    <EXPORT ORDINAL="2365" NAME="?decomposeToSurrogates@RegxUtil@@SAPAGH@Z" PURGE="0" COMMENT="" />
    <EXPORT ORDINAL="2366" NAME="?decreaseDepth@NamespaceScope@@QAEIXZ" PURGE="0" COMMENT="" />
    <EXPORT ORDINAL="2367" NAME="?defaultComplexTypeInfo@TraverseSchema@@AAEXQAVComplexTypeInfo@@@Z" PURGE="4" COMMENT="" />
    <EXPORT ORDINAL="2368" NAME="?deleteContents@DOMRangeImpl@@UAEXXZ" PURGE="0" COMMENT="" />
    <EXPORT ORDINAL="2369" NAME="?deleteContents@DOM_Range@@QAEXXZ" PURGE="0" COMMENT="" />
    <EXPORT ORDINAL="2370" NAME="?deleteContents@RangeImpl@@QAEXXZ" PURGE="0" COMMENT="" />
    <EXPORT ORDINAL="2371" NAME="?deleteData@CharacterDataImpl@@UAEXII@Z" PURGE="8" COMMENT="" />
    <EXPORT ORDINAL="2372" NAME="?deleteData@DOMCDATASectionImpl@@UAEXKK@Z" PURGE="8" COMMENT="" />
    <EXPORT ORDINAL="2373" NAME="?deleteData@DOMCharacterDataImpl@@QAEXPBVDOMNode@@KK@Z" PURGE="12" COMMENT="" />
    <EXPORT ORDINAL="2374" NAME="?deleteData@DOMCommentImpl@@UAEXKK@Z" PURGE="8" COMMENT="" />
    <EXPORT ORDINAL="2375" NAME="?deleteData@DOMString@@QAEXII@Z" PURGE="8" COMMENT="" />
    <EXPORT ORDINAL="2376" NAME="?deleteData@DOMTextImpl@@UAEXKK@Z" PURGE="8" COMMENT="" />
    <EXPORT ORDINAL="2377" NAME="?deleteData@DOM_CharacterData@@QAEXII@Z" PURGE="8" COMMENT="" />
    <EXPORT ORDINAL="2378" NAME="?deleteHeap@DOMDocumentImpl@@QAEXXZ" PURGE="0" COMMENT="" />
    <EXPORT ORDINAL="2379" NAME="?deleteIf@NodeImpl@@SAXPAV1@@Z" PURGE="0" COMMENT="" />
    <EXPORT ORDINAL="2380" NAME="?detach@DOMNodeIteratorImpl@@UAEXXZ" PURGE="0" COMMENT="" />
    <EXPORT ORDINAL="2381" NAME="?detach@DOMRangeImpl@@UAEXXZ" PURGE="0" COMMENT="" />
    <EXPORT ORDINAL="2382" NAME="?detach@DOM_NodeIterator@@QAEXXZ" PURGE="0" COMMENT="" />
    <EXPORT ORDINAL="2383" NAME="?detach@DOM_Range@@QAEXXZ" PURGE="0" COMMENT="" />
    <EXPORT ORDINAL="2384" NAME="?detach@NodeIteratorImpl@@QAEXXZ" PURGE="0" COMMENT="" />
    <EXPORT ORDINAL="2385" NAME="?detach@RangeImpl@@QAEXXZ" PURGE="0" COMMENT="" />
    <EXPORT ORDINAL="2386" NAME="?divide@XMLBigInteger@@QAEXI@Z" PURGE="4" COMMENT="" />
    <EXPORT ORDINAL="2387" NAME="?doInitDecode@XMLReader@@AAEXXZ" PURGE="-1" COMMENT="" />
    <EXPORT ORDINAL="2388" NAME="?doTraverseSchema@TraverseSchema@@AAEXQBVDOMElement@@@Z" PURGE="4" COMMENT="" />
    <EXPORT ORDINAL="2389" NAME="?docCharacters@AbstractDOMParser@@UAEXQBGI_N@Z" PURGE="12" COMMENT="" />
    <EXPORT ORDINAL="2390" NAME="?docCharacters@DOMParser@@UAEXQBGI_N@Z" PURGE="12" COMMENT="" />
    <EXPORT ORDINAL="2391" NAME="?docCharacters@SAX2XMLReaderImpl@@UAEXQBGI_N@Z" PURGE="12" COMMENT="" />
    <EXPORT ORDINAL="2392" NAME="?docCharacters@SAXParser@@UAEXQBGI_N@Z" PURGE="12" COMMENT="" />
    <EXPORT ORDINAL="2393" NAME="?docCharacters@XPathMatcher@@UAEXQBGI@Z" PURGE="8" COMMENT="" />
    <EXPORT ORDINAL="2394" NAME="?docComment@AbstractDOMParser@@UAEXQBG@Z" PURGE="4" COMMENT="" />
    <EXPORT ORDINAL="2395" NAME="?docComment@DOMParser@@UAEXQBG@Z" PURGE="4" COMMENT="" />
    <EXPORT ORDINAL="2396" NAME="?docComment@SAX2XMLReaderImpl@@UAEXQBG@Z" PURGE="4" COMMENT="" />
    <EXPORT ORDINAL="2397" NAME="?docComment@SAXParser@@UAEXQBG@Z" PURGE="4" COMMENT="" />
    <EXPORT ORDINAL="2398" NAME="?docPI@AbstractDOMParser@@UAEXQBG0@Z" PURGE="8" COMMENT="" />
    <EXPORT ORDINAL="2399" NAME="?docPI@DOMParser@@UAEXQBG0@Z" PURGE="8" COMMENT="" />
    <EXPORT ORDINAL="2400" NAME="?docPI@SAX2XMLReaderImpl@@UAEXQBG0@Z" PURGE="8" COMMENT="" />
    <EXPORT ORDINAL="2401" NAME="?docPI@SAXParser@@UAEXQBG0@Z" PURGE="8" COMMENT="" />
    <EXPORT ORDINAL="2402" NAME="?doctypeComment@AbstractDOMParser@@UAEXQBG@Z" PURGE="4" COMMENT="" />
    <EXPORT ORDINAL="2403" NAME="?doctypeComment@DOMParser@@UAEXQBG@Z" PURGE="4" COMMENT="" />
    <EXPORT ORDINAL="2404" NAME="?doctypeComment@SAX2XMLReaderImpl@@UAEXQBG@Z" PURGE="4" COMMENT="" />
    <EXPORT ORDINAL="2405" NAME="?doctypeComment@SAXParser@@UAEXQBG@Z" PURGE="4" COMMENT="" />
    <EXPORT ORDINAL="2406" NAME="?doctypeDecl@AbstractDOMParser@@UAEXABVDTDElementDecl@@QBG1_N2@Z" PURGE="20" COMMENT="" />
    <EXPORT ORDINAL="2407" NAME="?doctypeDecl@DOMParser@@UAEXABVDTDElementDecl@@QBG1_N2@Z" PURGE="20" COMMENT="" />
    <EXPORT ORDINAL="2408" NAME="?doctypeDecl@SAX2XMLReaderImpl@@UAEXABVDTDElementDecl@@QBG1_N2@Z" PURGE="20" COMMENT="" />
    <EXPORT ORDINAL="2409" NAME="?doctypeDecl@SAXParser@@UAEXABVDTDElementDecl@@QBG1_N2@Z" PURGE="20" COMMENT="" />
    <EXPORT ORDINAL="2410" NAME="?doctypePI@AbstractDOMParser@@UAEXQBG0@Z" PURGE="8" COMMENT="" />
    <EXPORT ORDINAL="2411" NAME="?doctypePI@DOMParser@@UAEXQBG0@Z" PURGE="8" COMMENT="" />
    <EXPORT ORDINAL="2412" NAME="?doctypePI@SAX2XMLReaderImpl@@UAEXQBG0@Z" PURGE="8" COMMENT="" />
    <EXPORT ORDINAL="2413" NAME="?doctypePI@SAXParser@@UAEXQBG0@Z" PURGE="8" COMMENT="" />
    <EXPORT ORDINAL="2414" NAME="?doctypeWhitespace@AbstractDOMParser@@UAEXQBGI@Z" PURGE="8" COMMENT="" />
    <EXPORT ORDINAL="2415" NAME="?doctypeWhitespace@DOMParser@@UAEXQBGI@Z" PURGE="8" COMMENT="" />
    <EXPORT ORDINAL="2416" NAME="?doctypeWhitespace@SAX2XMLReaderImpl@@UAEXQBGI@Z" PURGE="8" COMMENT="" />
    <EXPORT ORDINAL="2417" NAME="?doctypeWhitespace@SAXParser@@UAEXQBGI@Z" PURGE="8" COMMENT="" />
    <EXPORT ORDINAL="2418" NAME="?duplicate@ArrayIndexOutOfBoundsException@@UBEPAVXMLException@@XZ" PURGE="0" COMMENT="" />
    <EXPORT ORDINAL="2419" NAME="?duplicate@EmptyStackException@@UBEPAVXMLException@@XZ" PURGE="0" COMMENT="" />
    <EXPORT ORDINAL="2420" NAME="?duplicate@IOException@@UBEPAVXMLException@@XZ" PURGE="0" COMMENT="" />
    <EXPORT ORDINAL="2421" NAME="?duplicate@IllegalArgumentException@@UBEPAVXMLException@@XZ" PURGE="0" COMMENT="" />
    <EXPORT ORDINAL="2422" NAME="?duplicate@InvalidCastException@@UBEPAVXMLException@@XZ" PURGE="0" COMMENT="" />
    <EXPORT ORDINAL="2423" NAME="?duplicate@InvalidDatatypeFacetException@@UBEPAVXMLException@@XZ" PURGE="0" COMMENT="" />
    <EXPORT ORDINAL="2424" NAME="?duplicate@InvalidDatatypeValueException@@UBEPAVXMLException@@XZ" PURGE="0" COMMENT="" />
    <EXPORT ORDINAL="2425" NAME="?duplicate@MalformedURLException@@UBEPAVXMLException@@XZ" PURGE="0" COMMENT="" />
    <EXPORT ORDINAL="2426" NAME="?duplicate@NetAccessorException@@UBEPAVXMLException@@XZ" PURGE="0" COMMENT="" />
    <EXPORT ORDINAL="2427" NAME="?duplicate@NoSuchElementException@@UBEPAVXMLException@@XZ" PURGE="0" COMMENT="" />
    <EXPORT ORDINAL="2428" NAME="?duplicate@NullPointerException@@UBEPAVXMLException@@XZ" PURGE="0" COMMENT="" />
    <EXPORT ORDINAL="2429" NAME="?duplicate@NumberFormatException@@UBEPAVXMLException@@XZ" PURGE="0" COMMENT="" />
    <EXPORT ORDINAL="2430" NAME="?duplicate@ParseException@@UBEPAVXMLException@@XZ" PURGE="0" COMMENT="" />
    <EXPORT ORDINAL="2431" NAME="?duplicate@RuntimeException@@UBEPAVXMLException@@XZ" PURGE="0" COMMENT="" />
    <EXPORT ORDINAL="2432" NAME="?duplicate@SchemaDateTimeException@@UBEPAVXMLException@@XZ" PURGE="0" COMMENT="" />
    <EXPORT ORDINAL="2433" NAME="?duplicate@TranscodingException@@UBEPAVXMLException@@XZ" PURGE="0" COMMENT="" />
    <EXPORT ORDINAL="2434" NAME="?duplicate@UTFDataFormatException@@UBEPAVXMLException@@XZ" PURGE="0" COMMENT="" />
    <EXPORT ORDINAL="2435" NAME="?duplicate@UnexpectedEOFException@@UBEPAVXMLException@@XZ" PURGE="0" COMMENT="" />
    <EXPORT ORDINAL="2436" NAME="?duplicate@UnsupportedEncodingException@@UBEPAVXMLException@@XZ" PURGE="0" COMMENT="" />
    <EXPORT ORDINAL="2437" NAME="?duplicate@XMLPlatformUtilsException@@UBEPAVXMLException@@XZ" PURGE="0" COMMENT="" />
    <EXPORT ORDINAL="2438" NAME="?duplicate@XPathException@@UBEPAVXMLException@@XZ" PURGE="0" COMMENT="" />
    <EXPORT ORDINAL="2439" NAME="?duplicateValue@ValueStore@@QAEXXZ" PURGE="0" COMMENT="" />
    <EXPORT ORDINAL="2440" NAME="?elementAt@ComplexTypeInfo@@QAEPAVSchemaElementDecl@@I@Z" PURGE="4" COMMENT="" />
    <EXPORT ORDINAL="2441" NAME="?elementAt@ComplexTypeInfo@@QBEPBVSchemaElementDecl@@I@Z" PURGE="4" COMMENT="" />
    <EXPORT ORDINAL="2442" NAME="?elementAt@Op@@UBEPBV1@H@Z" PURGE="8" COMMENT="" />
    <EXPORT ORDINAL="2443" NAME="?elementAt@UnionOp@@UBEPBVOp@@H@Z" PURGE="4" COMMENT="" />
    <EXPORT ORDINAL="2444" NAME="?elementAt@XercesGroupInfo@@QAEPAVSchemaElementDecl@@I@Z" PURGE="4" COMMENT="" />
    <EXPORT ORDINAL="2445" NAME="?elementAt@XercesGroupInfo@@QBEPBVSchemaElementDecl@@I@Z" PURGE="4" COMMENT="" />
    <EXPORT ORDINAL="2446" NAME="?elementCount@ComplexTypeInfo@@QBEIXZ" PURGE="0" COMMENT="" />
    <EXPORT ORDINAL="2447" NAME="?elementCount@XercesGroupInfo@@QBEIXZ" PURGE="0" COMMENT="" />
    <EXPORT ORDINAL="2448" NAME="?elementDecl@AbstractDOMParser@@UAEXABVDTDElementDecl@@_N@Z" PURGE="8" COMMENT="" />
    <EXPORT ORDINAL="2449" NAME="?elementDecl@DOMParser@@UAEXABVDTDElementDecl@@_N@Z" PURGE="8" COMMENT="" />
    <EXPORT ORDINAL="2450" NAME="?elementDecl@DefaultHandler@@UAEXQBG0@Z" PURGE="8" COMMENT="" />
    <EXPORT ORDINAL="2451" NAME="?elementDecl@SAX2XMLReaderImpl@@UAEXABVDTDElementDecl@@_N@Z" PURGE="8" COMMENT="" />
    <EXPORT ORDINAL="2452" NAME="?elementDecl@SAXParser@@UAEXABVDTDElementDecl@@_N@Z" PURGE="8" COMMENT="" />
    <EXPORT ORDINAL="2453" NAME="?emitError@XMLScanner@@QAEXW4Codes@XMLErrs@@@Z" PURGE="4" COMMENT="" />
    <EXPORT ORDINAL="2454" NAME="?emitError@XMLScanner@@QAEXW4Codes@XMLErrs@@QBD111@Z" PURGE="20" COMMENT="" />
    <EXPORT ORDINAL="2455" NAME="?emitError@XMLScanner@@QAEXW4Codes@XMLErrs@@QBG111@Z" PURGE="20" COMMENT="" />
    <EXPORT ORDINAL="2456" NAME="?emitError@XMLValidator@@QAEXW4Codes@XMLValid@@@Z" PURGE="4" COMMENT="" />
    <EXPORT ORDINAL="2457" NAME="?emitError@XMLValidator@@QAEXW4Codes@XMLValid@@QBD111@Z" PURGE="20" COMMENT="" />
    <EXPORT ORDINAL="2458" NAME="?emitError@XMLValidator@@QAEXW4Codes@XMLValid@@QBG111@Z" PURGE="20" COMMENT="" />
    <EXPORT ORDINAL="2459" NAME="?emitError@XSDErrorReporter@@QAEXIQBGQBVLocator@@0000@Z" PURGE="28" COMMENT="" />
    <EXPORT ORDINAL="2460" NAME="?emitError@XSDErrorReporter@@QAEXIQBGQBVLocator@@@Z" PURGE="12" COMMENT="" />
    <EXPORT ORDINAL="2461" NAME="?emptiableParticle@TraverseSchema@@AAE_NQBVContentSpecNode@@@Z" PURGE="4" COMMENT="" />
    <EXPORT ORDINAL="2462" NAME="?enableNELWS@XMLReader@@CAXXZ" PURGE="0" COMMENT="" />
    <EXPORT ORDINAL="2463" NAME="?encode@Base64@@SAPAEQBEIPAI@Z" PURGE="0" COMMENT="" />
    <EXPORT ORDINAL="2464" NAME="?encodingForName@XMLRecognizer@@SA?AW4Encodings@1@QBG@Z" PURGE="0" COMMENT="" />
    <EXPORT ORDINAL="2465" NAME="?endAttList@AbstractDOMParser@@UAEXABVDTDElementDecl@@@Z" PURGE="4" COMMENT="" />
    <EXPORT ORDINAL="2466" NAME="?endAttList@DOMParser@@UAEXABVDTDElementDecl@@@Z" PURGE="4" COMMENT="" />
    <EXPORT ORDINAL="2467" NAME="?endAttList@SAX2XMLReaderImpl@@UAEXABVDTDElementDecl@@@Z" PURGE="4" COMMENT="" />
    <EXPORT ORDINAL="2468" NAME="?endAttList@SAXParser@@UAEXABVDTDElementDecl@@@Z" PURGE="4" COMMENT="" />
    <EXPORT ORDINAL="2469" NAME="?endCDATA@DefaultHandler@@UAEXXZ" PURGE="0" COMMENT="" />
    <EXPORT ORDINAL="2470" NAME="?endDTD@DefaultHandler@@UAEXXZ" PURGE="0" COMMENT="" />
    <EXPORT ORDINAL="2471" NAME="?endDcocumentFragment@ValueStore@@QAEXQAVValueStoreCache@@@Z" PURGE="4" COMMENT="" />
    <EXPORT ORDINAL="2472" NAME="?endDocument@AbstractDOMParser@@UAEXXZ" PURGE="0" COMMENT="" />
    <EXPORT ORDINAL="2473" NAME="?endDocument@DOMParser@@UAEXXZ" PURGE="0" COMMENT="" />
    <EXPORT ORDINAL="2474" NAME="?endDocument@DefaultHandler@@UAEXXZ" PURGE="0" COMMENT="" />
    <EXPORT ORDINAL="2475" NAME="?endDocument@HandlerBase@@UAEXXZ" PURGE="0" COMMENT="" />
    <EXPORT ORDINAL="2476" NAME="?endDocument@SAX2XMLReaderImpl@@UAEXXZ" PURGE="0" COMMENT="" />
    <EXPORT ORDINAL="2477" NAME="?endDocument@SAXParser@@UAEXXZ" PURGE="0" COMMENT="" />
    <EXPORT ORDINAL="2478" NAME="?endDocument@ValueStoreCache@@QAEXXZ" PURGE="0" COMMENT="" />
    <EXPORT ORDINAL="2479" NAME="?endDocumentFragment@XPathMatcher@@UAEXXZ" PURGE="0" COMMENT="" />
    <EXPORT ORDINAL="2480" NAME="?endElement@AbstractDOMParser@@UAEXABVXMLElementDecl@@I_NQBG@Z" PURGE="16" COMMENT="" />
    <EXPORT ORDINAL="2481" NAME="?endElement@DOMParser@@UAEXABVXMLElementDecl@@I_NQBG@Z" PURGE="16" COMMENT="" />
    <EXPORT ORDINAL="2482" NAME="?endElement@DefaultHandler@@UAEXQBG00@Z" PURGE="12" COMMENT="" />
    <EXPORT ORDINAL="2483" NAME="?endElement@HandlerBase@@UAEXQBG@Z" PURGE="4" COMMENT="" />
    <EXPORT ORDINAL="2484" NAME="?endElement@SAX2XMLReaderImpl@@UAEXABVXMLElementDecl@@I_NQBG@Z" PURGE="16" COMMENT="" />
    <EXPORT ORDINAL="2485" NAME="?endElement@SAXParser@@UAEXABVXMLElementDecl@@I_NQBG@Z" PURGE="16" COMMENT="" />
    <EXPORT ORDINAL="2486" NAME="?endElement@SelectorMatcher@@UAEXABVXMLElementDecl@@@Z" PURGE="4" COMMENT="" />
    <EXPORT ORDINAL="2487" NAME="?endElement@ValueStoreCache@@QAEXXZ" PURGE="0" COMMENT="" />
    <EXPORT ORDINAL="2488" NAME="?endElement@XPathMatcher@@UAEXABVXMLElementDecl@@@Z" PURGE="4" COMMENT="" />
    <EXPORT ORDINAL="2489" NAME="?endEntity@DefaultHandler@@UAEXQBG@Z" PURGE="4" COMMENT="" />
    <EXPORT ORDINAL="2490" NAME="?endEntityReference@AbstractDOMParser@@UAEXABVXMLEntityDecl@@@Z" PURGE="4" COMMENT="" />
    <EXPORT ORDINAL="2491" NAME="?endEntityReference@DOMParser@@UAEXABVXMLEntityDecl@@@Z" PURGE="4" COMMENT="" />
    <EXPORT ORDINAL="2492" NAME="?endEntityReference@SAX2XMLReaderImpl@@UAEXABVXMLEntityDecl@@@Z" PURGE="4" COMMENT="" />
    <EXPORT ORDINAL="2493" NAME="?endEntityReference@SAXParser@@UAEXABVXMLEntityDecl@@@Z" PURGE="4" COMMENT="" />
    <EXPORT ORDINAL="2494" NAME="?endExtSubset@AbstractDOMParser@@UAEXXZ" PURGE="0" COMMENT="" />
    <EXPORT ORDINAL="2495" NAME="?endExtSubset@DOMParser@@UAEXXZ" PURGE="0" COMMENT="" />
    <EXPORT ORDINAL="2496" NAME="?endExtSubset@SAX2XMLReaderImpl@@UAEXXZ" PURGE="0" COMMENT="" />
    <EXPORT ORDINAL="2497" NAME="?endExtSubset@SAXParser@@UAEXXZ" PURGE="0" COMMENT="" />
    <EXPORT ORDINAL="2498" NAME="?endInputSource@DOMBuilderImpl@@UAEXABVInputSource@@@Z" PURGE="4" COMMENT="" />
    <EXPORT ORDINAL="2499" NAME="?endInputSource@DOMParser@@UAEXABVInputSource@@@Z" PURGE="4" COMMENT="" />
    <EXPORT ORDINAL="2500" NAME="?endInputSource@SAX2XMLReaderImpl@@UAEXABVInputSource@@@Z" PURGE="4" COMMENT="" />
    <EXPORT ORDINAL="2501" NAME="?endInputSource@SAXParser@@UAEXABVInputSource@@@Z" PURGE="4" COMMENT="" />
    <EXPORT ORDINAL="2502" NAME="?endInputSource@XercesDOMParser@@UAEXABVInputSource@@@Z" PURGE="4" COMMENT="" />
    <EXPORT ORDINAL="2503" NAME="?endIntSubset@AbstractDOMParser@@UAEXXZ" PURGE="0" COMMENT="" />
    <EXPORT ORDINAL="2504" NAME="?endIntSubset@DOMParser@@UAEXXZ" PURGE="0" COMMENT="" />
    <EXPORT ORDINAL="2505" NAME="?endIntSubset@SAX2XMLReaderImpl@@UAEXXZ" PURGE="0" COMMENT="" />
    <EXPORT ORDINAL="2506" NAME="?endIntSubset@SAXParser@@UAEXXZ" PURGE="0" COMMENT="" />
    <EXPORT ORDINAL="2507" NAME="?endPrefixMapping@DefaultHandler@@UAEXQBG@Z" PURGE="4" COMMENT="" />
    <EXPORT ORDINAL="2508" NAME="?endValueScope@ValueStore@@QAEXXZ" PURGE="0" COMMENT="" />
    <EXPORT ORDINAL="2509" NAME="?endValueScopeFor@FieldActivator@@QAEXQBVIdentityConstraint@@@Z" PURGE="4" COMMENT="" />
    <EXPORT ORDINAL="2510" NAME="?endsWith@XMLString@@SA_NQBG0@Z" PURGE="0" COMMENT="" />
    <EXPORT ORDINAL="2511" NAME="?ensureCapacity@BitSet@@AAEXI@Z" PURGE="4" COMMENT="" />
    <EXPORT ORDINAL="2512" NAME="?entityDecl@AbstractDOMParser@@UAEXABVDTDEntityDecl@@_N1@Z" PURGE="12" COMMENT="" />
    <EXPORT ORDINAL="2513" NAME="?entityDecl@DOMParser@@UAEXABVDTDEntityDecl@@_N1@Z" PURGE="12" COMMENT="" />
    <EXPORT ORDINAL="2514" NAME="?entityDecl@SAX2XMLReaderImpl@@UAEXABVDTDEntityDecl@@_N1@Z" PURGE="12" COMMENT="" />
    <EXPORT ORDINAL="2515" NAME="?entityDecl@SAXParser@@UAEXABVDTDEntityDecl@@_N1@Z" PURGE="12" COMMENT="" />
    <EXPORT ORDINAL="2516" NAME="?equals@BitSet@@QBE_NABV1@@Z" PURGE="4" COMMENT="" />
    <EXPORT ORDINAL="2517" NAME="?equals@DOMString@@QBE_NABV1@@Z" PURGE="4" COMMENT="" />
    <EXPORT ORDINAL="2518" NAME="?equals@DOMString@@QBE_NPBG@Z" PURGE="4" COMMENT="" />
    <EXPORT ORDINAL="2519" NAME="?equals@HashCMStateSet@@UAE_NQBX0@Z" PURGE="8" COMMENT="" />
    <EXPORT ORDINAL="2520" NAME="?equals@HashPtr@@UAE_NQBX0@Z" PURGE="8" COMMENT="" />
    <EXPORT ORDINAL="2521" NAME="?equals@HashXMLCh@@UAE_NQBX0@Z" PURGE="8" COMMENT="" />
    <EXPORT ORDINAL="2522" NAME="?error@DOMBuilderImpl@@UAEXIQBGW4ErrTypes@XMLErrorReporter@@000JJ@Z" PURGE="32" COMMENT="" />
    <EXPORT ORDINAL="2523" NAME="?error@DOMParser@@UAEXIQBGW4ErrTypes@XMLErrorReporter@@000JJ@Z" PURGE="32" COMMENT="" />
    <EXPORT ORDINAL="2524" NAME="?error@DefaultHandler@@UAEXABVSAXParseException@@@Z" PURGE="4" COMMENT="" />
    <EXPORT ORDINAL="2525" NAME="?error@HandlerBase@@UAEXABVSAXParseException@@@Z" PURGE="4" COMMENT="" />
    <EXPORT ORDINAL="2526" NAME="?error@SAX2XMLReaderImpl@@UAEXIQBGW4ErrTypes@XMLErrorReporter@@000JJ@Z" PURGE="32" COMMENT="" />
    <EXPORT ORDINAL="2527" NAME="?error@SAXParser@@UAEXIQBGW4ErrTypes@XMLErrorReporter@@000JJ@Z" PURGE="32" COMMENT="" />
    <EXPORT ORDINAL="2528" NAME="?error@XSDDOMParser@@UAEXIQBGW4ErrTypes@XMLErrorReporter@@000JJ@Z" PURGE="32" COMMENT="" />
    <EXPORT ORDINAL="2529" NAME="?error@XercesDOMParser@@UAEXIQBGW4ErrTypes@XMLErrorReporter@@000JJ@Z" PURGE="32" COMMENT="" />
    <EXPORT ORDINAL="2530" NAME="?exists@XMLStringPool@@QBE_NI@Z" PURGE="4" COMMENT="" />
    <EXPORT ORDINAL="2531" NAME="?exists@XMLStringPool@@QBE_NQBG@Z" PURGE="4" COMMENT="" />
    <EXPORT ORDINAL="2532" NAME="?expand@RangeToken@@AAEXI@Z" PURGE="4" COMMENT="" />
    <EXPORT ORDINAL="2533" NAME="?expand@XMLBuffer@@AAEXXZ" PURGE="0" COMMENT="" />
    <EXPORT ORDINAL="2534" NAME="?expandContentModel@ComplexTypeInfo@@AAEPAVContentSpecNode@@QAV2@HH@Z" PURGE="12" COMMENT="" />
    <EXPORT ORDINAL="2535" NAME="?expandMap@ElemStack@@AAEXQAUStackElem@1@@Z" PURGE="4" COMMENT="" />
    <EXPORT ORDINAL="2536" NAME="?expandMap@NamespaceScope@@AAEXQAUStackElem@1@@Z" PURGE="4" COMMENT="" />
    <EXPORT ORDINAL="2537" NAME="?expandPERef@DTDScanner@@AAE_N_N000@Z" PURGE="16" COMMENT="" />
    <EXPORT ORDINAL="2538" NAME="?expandRegistryToFullSchemaSet@DatatypeValidatorFactory@@QAEXXZ" PURGE="0" COMMENT="" />
    <EXPORT ORDINAL="2539" NAME="?expandStack@ElemStack@@AAEXXZ" PURGE="0" COMMENT="" />
    <EXPORT ORDINAL="2540" NAME="?expandStack@NamespaceScope@@AAEXXZ" PURGE="0" COMMENT="" />
    <EXPORT ORDINAL="2541" NAME="?expandSystemId@DOMBuilderImpl@@UAE_NQBGAAVXMLBuffer@@@Z" PURGE="8" COMMENT="" />
    <EXPORT ORDINAL="2542" NAME="?expandSystemId@DOMParser@@UAE_NQBGAAVXMLBuffer@@@Z" PURGE="8" COMMENT="" />
    <EXPORT ORDINAL="2543" NAME="?expandSystemId@SAX2XMLReaderImpl@@UAE_NQBGAAVXMLBuffer@@@Z" PURGE="8" COMMENT="" />
    <EXPORT ORDINAL="2544" NAME="?expandSystemId@SAXParser@@UAE_NQBGAAVXMLBuffer@@@Z" PURGE="8" COMMENT="" />
    <EXPORT ORDINAL="2545" NAME="?expandSystemId@XercesDOMParser@@UAE_NQBGAAVXMLBuffer@@@Z" PURGE="8" COMMENT="" />
    <EXPORT ORDINAL="2546" NAME="?externalEntityDecl@DefaultHandler@@UAEXQBG00@Z" PURGE="12" COMMENT="" />
    <EXPORT ORDINAL="2547" NAME="?extractContents@DOMRangeImpl@@UAEPAVDOMDocumentFragment@@XZ" PURGE="0" COMMENT="" />
    <EXPORT ORDINAL="2548" NAME="?extractContents@DOM_Range@@QAE?AVDOM_DocumentFragment@@XZ" PURGE="4" COMMENT="" />
    <EXPORT ORDINAL="2549" NAME="?extractContents@RangeImpl@@QAE?AVDOM_DocumentFragment@@XZ" PURGE="4" COMMENT="" />
    <EXPORT ORDINAL="2550" NAME="?fASCIICharMap@XPathScanner@@0QBEB" PURGE="-1" COMMENT="" />
    <EXPORT ORDINAL="2551" NAME="?fAnyURIDV@GeneralAttributeCheck@@0PAVDatatypeValidator@@A" PURGE="-1" COMMENT="" />
    <EXPORT ORDINAL="2552" NAME="?fAttMap@GeneralAttributeCheck@@0PAV?$ValueHashTableOf@G@@A" PURGE="-1" COMMENT="" />
    <EXPORT ORDINAL="2553" NAME="?fAttNames@GeneralAttributeCheck@@0PAPBGA" PURGE="-1" COMMENT="" />
    <EXPORT ORDINAL="2554" NAME="?fBooleanDV@GeneralAttributeCheck@@0PAVDatatypeValidator@@A" PURGE="-1" COMMENT="" />
    <EXPORT ORDINAL="2555" NAME="?fBuiltInRegistry@DatatypeValidatorFactory@@0PAV?$RefHashTableOf@VDatatypeValidator@@@@A" PURGE="-1" COMMENT="" />
    <EXPORT ORDINAL="2556" NAME="?fFacetsMap@GeneralAttributeCheck@@0PAV?$ValueHashTableOf@G@@A" PURGE="-1" COMMENT="" />
    <EXPORT ORDINAL="2557" NAME="?fInitMutex@BinHTTPURLInputStream@@0PAVXMLMutex@@A" PURGE="-1" COMMENT="" />
    <EXPORT ORDINAL="2558" NAME="?fInitialized@BinHTTPURLInputStream@@0_NA" PURGE="-1" COMMENT="" />
    <EXPORT ORDINAL="2559" NAME="?fInstance@EncodingValidator@@0PAV1@A" PURGE="-1" COMMENT="" />
    <EXPORT ORDINAL="2560" NAME="?fInstance@RangeTokenMap@@0PAV1@A" PURGE="-1" COMMENT="" />
    <EXPORT ORDINAL="2561" NAME="?fNEL@XMLReader@@0_NA" PURGE="-1" COMMENT="" />
    <EXPORT ORDINAL="2562" NAME="?fNonNegIntDV@GeneralAttributeCheck@@0PAVDatatypeValidator@@A" PURGE="-1" COMMENT="" />
    <EXPORT ORDINAL="2563" NAME="?fWordRange@RegularExpression@@0PAVRangeToken@@A" PURGE="-1" COMMENT="" />
    <EXPORT ORDINAL="2564" NAME="?fatalError@DefaultHandler@@UAEXABVSAXParseException@@@Z" PURGE="20" COMMENT="" />
    <EXPORT ORDINAL="2565" NAME="?fatalError@HandlerBase@@UAEXABVSAXParseException@@@Z" PURGE="20" COMMENT="" />
    <EXPORT ORDINAL="2566" NAME="?faultInAttDefList@ComplexTypeInfo@@ABEXXZ" PURGE="0" COMMENT="" />
    <EXPORT ORDINAL="2567" NAME="?faultInAttDefList@DTDElementDecl@@ABEXXZ" PURGE="0" COMMENT="" />
    <EXPORT ORDINAL="2568" NAME="?faultInAttr@DTDValidator@@UBEXAAVXMLAttr@@ABVXMLAttDef@@@Z" PURGE="8" COMMENT="" />
    <EXPORT ORDINAL="2569" NAME="?faultInAttr@SchemaValidator@@UBEXAAVXMLAttr@@ABVXMLAttDef@@@Z" PURGE="8" COMMENT="" />
    <EXPORT ORDINAL="2570" NAME="?fgASCIIPre@XMLRecognizer@@2QBDB" PURGE="-1" COMMENT="" />
    <EXPORT ORDINAL="2571" NAME="?fgASCIIPreLen@XMLRecognizer@@2IB" PURGE="-1" COMMENT="" />
    <EXPORT ORDINAL="2572" NAME="?fgATTVAL_ANYTYPE@SchemaSymbols@@2QBGB" PURGE="-1" COMMENT="" />
    <EXPORT ORDINAL="2573" NAME="?fgATTVAL_BASE64@SchemaSymbols@@2QBGB" PURGE="-1" COMMENT="" />
    <EXPORT ORDINAL="2574" NAME="?fgATTVAL_BOOLEAN@SchemaSymbols@@2QBGB" PURGE="-1" COMMENT="" />
    <EXPORT ORDINAL="2575" NAME="?fgATTVAL_DEFAULT@SchemaSymbols@@2QBGB" PURGE="-1" COMMENT="" />
    <EXPORT ORDINAL="2576" NAME="?fgATTVAL_ELEMENTONLY@SchemaSymbols@@2QBGB" PURGE="-1" COMMENT="" />
    <EXPORT ORDINAL="2577" NAME="?fgATTVAL_EMPTY@SchemaSymbols@@2QBGB" PURGE="-1" COMMENT="" />
    <EXPORT ORDINAL="2578" NAME="?fgATTVAL_EXTENSION@SchemaSymbols@@2QBGB" PURGE="-1" COMMENT="" />
    <EXPORT ORDINAL="2579" NAME="?fgATTVAL_FALSE@SchemaSymbols@@2QBGB" PURGE="-1" COMMENT="" />
    <EXPORT ORDINAL="2580" NAME="?fgATTVAL_FIXED@SchemaSymbols@@2QBGB" PURGE="-1" COMMENT="" />
    <EXPORT ORDINAL="2581" NAME="?fgATTVAL_HEX@SchemaSymbols@@2QBGB" PURGE="-1" COMMENT="" />
    <EXPORT ORDINAL="2582" NAME="?fgATTVAL_ID@SchemaSymbols@@2QBGB" PURGE="-1" COMMENT="" />
    <EXPORT ORDINAL="2583" NAME="?fgATTVAL_LAX@SchemaSymbols@@2QBGB" PURGE="-1" COMMENT="" />
    <EXPORT ORDINAL="2584" NAME="?fgATTVAL_MAXLENGTH@SchemaSymbols@@2QBGB" PURGE="-1" COMMENT="" />
    <EXPORT ORDINAL="2585" NAME="?fgATTVAL_MINLENGTH@SchemaSymbols@@2QBGB" PURGE="-1" COMMENT="" />
    <EXPORT ORDINAL="2586" NAME="?fgATTVAL_MIXED@SchemaSymbols@@2QBGB" PURGE="-1" COMMENT="" />
    <EXPORT ORDINAL="2587" NAME="?fgATTVAL_NCNAME@SchemaSymbols@@2QBGB" PURGE="-1" COMMENT="" />
    <EXPORT ORDINAL="2588" NAME="?fgATTVAL_OPTIONAL@SchemaSymbols@@2QBGB" PURGE="-1" COMMENT="" />
    <EXPORT ORDINAL="2589" NAME="?fgATTVAL_POUNDALL@SchemaSymbols@@2QBGB" PURGE="-1" COMMENT="" />
    <EXPORT ORDINAL="2590" NAME="?fgATTVAL_PROHIBITED@SchemaSymbols@@2QBGB" PURGE="-1" COMMENT="" />
    <EXPORT ORDINAL="2591" NAME="?fgATTVAL_QNAME@SchemaSymbols@@2QBGB" PURGE="-1" COMMENT="" />
    <EXPORT ORDINAL="2592" NAME="?fgATTVAL_QUALIFIED@SchemaSymbols@@2QBGB" PURGE="-1" COMMENT="" />
    <EXPORT ORDINAL="2593" NAME="?fgATTVAL_REQUIRED@SchemaSymbols@@2QBGB" PURGE="-1" COMMENT="" />
    <EXPORT ORDINAL="2594" NAME="?fgATTVAL_RESTRICTION@SchemaSymbols@@2QBGB" PURGE="-1" COMMENT="" />
    <EXPORT ORDINAL="2595" NAME="?fgATTVAL_SKIP@SchemaSymbols@@2QBGB" PURGE="-1" COMMENT="" />
    <EXPORT ORDINAL="2596" NAME="?fgATTVAL_STRICT@SchemaSymbols@@2QBGB" PURGE="-1" COMMENT="" />
    <EXPORT ORDINAL="2597" NAME="?fgATTVAL_STRING@SchemaSymbols@@2QBGB" PURGE="-1" COMMENT="" />
    <EXPORT ORDINAL="2598" NAME="?fgATTVAL_SUBSTITUTION@SchemaSymbols@@2QBGB" PURGE="-1" COMMENT="" />
    <EXPORT ORDINAL="2599" NAME="?fgATTVAL_SUBSTITUTIONGROUP@SchemaSymbols@@2QBGB" PURGE="-1" COMMENT="" />
    <EXPORT ORDINAL="2600" NAME="?fgATTVAL_TEXTONLY@SchemaSymbols@@2QBGB" PURGE="-1" COMMENT="" />
    <EXPORT ORDINAL="2601" NAME="?fgATTVAL_TIMEDURATION@SchemaSymbols@@2QBGB" PURGE="-1" COMMENT="" />
    <EXPORT ORDINAL="2602" NAME="?fgATTVAL_TRUE@SchemaSymbols@@2QBGB" PURGE="-1" COMMENT="" />
    <EXPORT ORDINAL="2603" NAME="?fgATTVAL_TWOPOUNDANY@SchemaSymbols@@2QBGB" PURGE="-1" COMMENT="" />
    <EXPORT ORDINAL="2604" NAME="?fgATTVAL_TWOPOUNDLOCAL@SchemaSymbols@@2QBGB" PURGE="-1" COMMENT="" />
    <EXPORT ORDINAL="2605" NAME="?fgATTVAL_TWOPOUNDOTHER@SchemaSymbols@@2QBGB" PURGE="-1" COMMENT="" />
    <EXPORT ORDINAL="2606" NAME="?fgATTVAL_TWOPOUNDTRAGETNAMESPACE@SchemaSymbols@@2QBGB" PURGE="-1" COMMENT="" />
    <EXPORT ORDINAL="2607" NAME="?fgATTVAL_UNQUALIFIED@SchemaSymbols@@2QBGB" PURGE="-1" COMMENT="" />
    <EXPORT ORDINAL="2608" NAME="?fgATTVAL_URI@SchemaSymbols@@2QBGB" PURGE="-1" COMMENT="" />
    <EXPORT ORDINAL="2609" NAME="?fgATTVAL_URIREFERENCE@SchemaSymbols@@2QBGB" PURGE="-1" COMMENT="" />
    <EXPORT ORDINAL="2610" NAME="?fgATT_ABSTRACT@SchemaSymbols@@2QBGB" PURGE="-1" COMMENT="" />
    <EXPORT ORDINAL="2611" NAME="?fgATT_ATTRIBUTEFORMDEFAULT@SchemaSymbols@@2QBGB" PURGE="-1" COMMENT="" />
    <EXPORT ORDINAL="2612" NAME="?fgATT_BASE@SchemaSymbols@@2QBGB" PURGE="-1" COMMENT="" />
    <EXPORT ORDINAL="2613" NAME="?fgATT_BLOCK@SchemaSymbols@@2QBGB" PURGE="-1" COMMENT="" />
    <EXPORT ORDINAL="2614" NAME="?fgATT_BLOCKDEFAULT@SchemaSymbols@@2QBGB" PURGE="-1" COMMENT="" />
    <EXPORT ORDINAL="2615" NAME="?fgATT_DEFAULT@SchemaSymbols@@2QBGB" PURGE="-1" COMMENT="" />
    <EXPORT ORDINAL="2616" NAME="?fgATT_ELEMENTFORMDEFAULT@SchemaSymbols@@2QBGB" PURGE="-1" COMMENT="" />
    <EXPORT ORDINAL="2617" NAME="?fgATT_FINAL@SchemaSymbols@@2QBGB" PURGE="-1" COMMENT="" />
    <EXPORT ORDINAL="2618" NAME="?fgATT_FINALDEFAULT@SchemaSymbols@@2QBGB" PURGE="-1" COMMENT="" />
    <EXPORT ORDINAL="2619" NAME="?fgATT_FIXED@SchemaSymbols@@2QBGB" PURGE="-1" COMMENT="" />
    <EXPORT ORDINAL="2620" NAME="?fgATT_FORM@SchemaSymbols@@2QBGB" PURGE="-1" COMMENT="" />
    <EXPORT ORDINAL="2621" NAME="?fgATT_ID@SchemaSymbols@@2QBGB" PURGE="-1" COMMENT="" />
    <EXPORT ORDINAL="2622" NAME="?fgATT_ITEMTYPE@SchemaSymbols@@2QBGB" PURGE="-1" COMMENT="" />
    <EXPORT ORDINAL="2623" NAME="?fgATT_MAXOCCURS@SchemaSymbols@@2QBGB" PURGE="-1" COMMENT="" />
    <EXPORT ORDINAL="2624" NAME="?fgATT_MEMBERTYPES@SchemaSymbols@@2QBGB" PURGE="-1" COMMENT="" />
    <EXPORT ORDINAL="2625" NAME="?fgATT_MINOCCURS@SchemaSymbols@@2QBGB" PURGE="-1" COMMENT="" />
    <EXPORT ORDINAL="2626" NAME="?fgATT_MIXED@SchemaSymbols@@2QBGB" PURGE="-1" COMMENT="" />
    <EXPORT ORDINAL="2627" NAME="?fgATT_NAME@SchemaSymbols@@2QBGB" PURGE="-1" COMMENT="" />
    <EXPORT ORDINAL="2628" NAME="?fgATT_NAMESPACE@SchemaSymbols@@2QBGB" PURGE="-1" COMMENT="" />
    <EXPORT ORDINAL="2629" NAME="?fgATT_NILL@SchemaSymbols@@2QBGB" PURGE="-1" COMMENT="" />
    <EXPORT ORDINAL="2630" NAME="?fgATT_NILLABLE@SchemaSymbols@@2QBGB" PURGE="-1" COMMENT="" />
    <EXPORT ORDINAL="2631" NAME="?fgATT_PROCESSCONTENTS@SchemaSymbols@@2QBGB" PURGE="-1" COMMENT="" />
    <EXPORT ORDINAL="2632" NAME="?fgATT_PUBLIC@SchemaSymbols@@2QBGB" PURGE="-1" COMMENT="" />
    <EXPORT ORDINAL="2633" NAME="?fgATT_REF@SchemaSymbols@@2QBGB" PURGE="-1" COMMENT="" />
    <EXPORT ORDINAL="2634" NAME="?fgATT_REFER@SchemaSymbols@@2QBGB" PURGE="-1" COMMENT="" />
    <EXPORT ORDINAL="2635" NAME="?fgATT_SCHEMALOCATION@SchemaSymbols@@2QBGB" PURGE="-1" COMMENT="" />
    <EXPORT ORDINAL="2636" NAME="?fgATT_SOURCE@SchemaSymbols@@2QBGB" PURGE="-1" COMMENT="" />
    <EXPORT ORDINAL="2637" NAME="?fgATT_SUBSTITUTIONGROUP@SchemaSymbols@@2QBGB" PURGE="-1" COMMENT="" />
    <EXPORT ORDINAL="2638" NAME="?fgATT_SYSTEM@SchemaSymbols@@2QBGB" PURGE="-1" COMMENT="" />
    <EXPORT ORDINAL="2639" NAME="?fgATT_TARGETNAMESPACE@SchemaSymbols@@2QBGB" PURGE="-1" COMMENT="" />
    <EXPORT ORDINAL="2640" NAME="?fgATT_TYPE@SchemaSymbols@@2QBGB" PURGE="-1" COMMENT="" />
    <EXPORT ORDINAL="2641" NAME="?fgATT_USE@SchemaSymbols@@2QBGB" PURGE="-1" COMMENT="" />
    <EXPORT ORDINAL="2642" NAME="?fgATT_VALUE@SchemaSymbols@@2QBGB" PURGE="-1" COMMENT="" />
    <EXPORT ORDINAL="2643" NAME="?fgATT_VERSION@SchemaSymbols@@2QBGB" PURGE="-1" COMMENT="" />
    <EXPORT ORDINAL="2644" NAME="?fgATT_XPATH@SchemaSymbols@@2QBGB" PURGE="-1" COMMENT="" />
    <EXPORT ORDINAL="2645" NAME="?fgAnyString@XMLUni@@2QBGB" PURGE="-1" COMMENT="" />
    <EXPORT ORDINAL="2646" NAME="?fgArrayIndexOutOfBoundsException_Name@XMLUni@@2QBGB" PURGE="-1" COMMENT="" />
    <EXPORT ORDINAL="2647" NAME="?fgAttListString@XMLUni@@2QBGB" PURGE="-1" COMMENT="" />
    <EXPORT ORDINAL="2648" NAME="?fgCDATAString@XMLUni@@2QBGB" PURGE="-1" COMMENT="" />
    <EXPORT ORDINAL="2649" NAME="?fgCharCharsTable@XMLReader@@0PAEA" PURGE="-1" COMMENT="" />
    <EXPORT ORDINAL="2650" NAME="?fgCommentString@XMLUni@@2QBGB" PURGE="-1" COMMENT="" />
    <EXPORT ORDINAL="2651" NAME="?fgDOMCDATASections@XMLUni@@2QBGB" PURGE="-1" COMMENT="" />
    <EXPORT ORDINAL="2652" NAME="?fgDOMCanonicalForm@XMLUni@@2QBGB" PURGE="-1" COMMENT="" />
    <EXPORT ORDINAL="2653" NAME="?fgDOMCharsetOverridesXMLEncoding@XMLUni@@2QBGB" PURGE="-1" COMMENT="" />
    <EXPORT ORDINAL="2654" NAME="?fgDOMComments@XMLUni@@2QBGB" PURGE="-1" COMMENT="" />
    <EXPORT ORDINAL="2655" NAME="?fgDOMDatatypeNormalization@XMLUni@@2QBGB" PURGE="-1" COMMENT="" />
    <EXPORT ORDINAL="2656" NAME="?fgDOMEntities@XMLUni@@2QBGB" PURGE="-1" COMMENT="" />
    <EXPORT ORDINAL="2657" NAME="?fgDOMInfoset@XMLUni@@2QBGB" PURGE="-1" COMMENT="" />
    <EXPORT ORDINAL="2658" NAME="?fgDOMNamespaceDeclarations@XMLUni@@2QBGB" PURGE="-1" COMMENT="" />
    <EXPORT ORDINAL="2659" NAME="?fgDOMNamespaces@XMLUni@@2QBGB" PURGE="-1" COMMENT="" />
    <EXPORT ORDINAL="2660" NAME="?fgDOMSupportedMediatypesOnly@XMLUni@@2QBGB" PURGE="-1" COMMENT="" />
    <EXPORT ORDINAL="2661" NAME="?fgDOMValidateIfSchema@XMLUni@@2QBGB" PURGE="-1" COMMENT="" />
    <EXPORT ORDINAL="2662" NAME="?fgDOMValidation@XMLUni@@2QBGB" PURGE="-1" COMMENT="" />
    <EXPORT ORDINAL="2663" NAME="?fgDOMWRTCanonicalForm@XMLUni@@2QBGB" PURGE="-1" COMMENT="" />
    <EXPORT ORDINAL="2664" NAME="?fgDOMWRTDiscardDefaultContent@XMLUni@@2QBGB" PURGE="-1" COMMENT="" />
    <EXPORT ORDINAL="2665" NAME="?fgDOMWRTEntities@XMLUni@@2QBGB" PURGE="-1" COMMENT="" />
    <EXPORT ORDINAL="2666" NAME="?fgDOMWRTFormatPrettyPrint@XMLUni@@2QBGB" PURGE="-1" COMMENT="" />
    <EXPORT ORDINAL="2667" NAME="?fgDOMWRTNormalizeCharacters@XMLUni@@2QBGB" PURGE="-1" COMMENT="" />
    <EXPORT ORDINAL="2668" NAME="?fgDOMWRTSplitCdataSections@XMLUni@@2QBGB" PURGE="-1" COMMENT="" />
    <EXPORT ORDINAL="2669" NAME="?fgDOMWRTValidation@XMLUni@@2QBGB" PURGE="-1" COMMENT="" />
    <EXPORT ORDINAL="2670" NAME="?fgDOMWRTWhitespaceInElementContent@XMLUni@@2QBGB" PURGE="-1" COMMENT="" />
    <EXPORT ORDINAL="2671" NAME="?fgDOMWhitespaceInElementContent@XMLUni@@2QBGB" PURGE="-1" COMMENT="" />
    <EXPORT ORDINAL="2672" NAME="?fgDTDEntityString@XMLUni@@2QBGB" PURGE="-1" COMMENT="" />
    <EXPORT ORDINAL="2673" NAME="?fgDT_ANYSIMPLETYPE@SchemaSymbols@@2QBGB" PURGE="-1" COMMENT="" />
    <EXPORT ORDINAL="2674" NAME="?fgDT_ANYURI@SchemaSymbols@@2QBGB" PURGE="-1" COMMENT="" />
    <EXPORT ORDINAL="2675" NAME="?fgDT_BASE64BINARY@SchemaSymbols@@2QBGB" PURGE="-1" COMMENT="" />
    <EXPORT ORDINAL="2676" NAME="?fgDT_BOOLEAN@SchemaSymbols@@2QBGB" PURGE="-1" COMMENT="" />
    <EXPORT ORDINAL="2677" NAME="?fgDT_BYTE@SchemaSymbols@@2QBGB" PURGE="-1" COMMENT="" />
    <EXPORT ORDINAL="2678" NAME="?fgDT_DATE@SchemaSymbols@@2QBGB" PURGE="-1" COMMENT="" />
    <EXPORT ORDINAL="2679" NAME="?fgDT_DATETIME@SchemaSymbols@@2QBGB" PURGE="-1" COMMENT="" />
    <EXPORT ORDINAL="2680" NAME="?fgDT_DAY@SchemaSymbols@@2QBGB" PURGE="-1" COMMENT="" />
    <EXPORT ORDINAL="2681" NAME="?fgDT_DECIMAL@SchemaSymbols@@2QBGB" PURGE="-1" COMMENT="" />
    <EXPORT ORDINAL="2682" NAME="?fgDT_DOUBLE@SchemaSymbols@@2QBGB" PURGE="-1" COMMENT="" />
    <EXPORT ORDINAL="2683" NAME="?fgDT_DURATION@SchemaSymbols@@2QBGB" PURGE="-1" COMMENT="" />
    <EXPORT ORDINAL="2684" NAME="?fgDT_FLOAT@SchemaSymbols@@2QBGB" PURGE="-1" COMMENT="" />
    <EXPORT ORDINAL="2685" NAME="?fgDT_HEXBINARY@SchemaSymbols@@2QBGB" PURGE="-1" COMMENT="" />
    <EXPORT ORDINAL="2686" NAME="?fgDT_INT@SchemaSymbols@@2QBGB" PURGE="-1" COMMENT="" />
    <EXPORT ORDINAL="2687" NAME="?fgDT_INTEGER@SchemaSymbols@@2QBGB" PURGE="-1" COMMENT="" />
    <EXPORT ORDINAL="2688" NAME="?fgDT_LANGUAGE@SchemaSymbols@@2QBGB" PURGE="-1" COMMENT="" />
    <EXPORT ORDINAL="2689" NAME="?fgDT_LONG@SchemaSymbols@@2QBGB" PURGE="-1" COMMENT="" />
    <EXPORT ORDINAL="2690" NAME="?fgDT_MONTH@SchemaSymbols@@2QBGB" PURGE="-1" COMMENT="" />
    <EXPORT ORDINAL="2691" NAME="?fgDT_MONTHDAY@SchemaSymbols@@2QBGB" PURGE="-1" COMMENT="" />
    <EXPORT ORDINAL="2692" NAME="?fgDT_NAME@SchemaSymbols@@2QBGB" PURGE="-1" COMMENT="" />
    <EXPORT ORDINAL="2693" NAME="?fgDT_NCNAME@SchemaSymbols@@2QBGB" PURGE="-1" COMMENT="" />
    <EXPORT ORDINAL="2694" NAME="?fgDT_NEGATIVEINTEGER@SchemaSymbols@@2QBGB" PURGE="-1" COMMENT="" />
    <EXPORT ORDINAL="2695" NAME="?fgDT_NONNEGATIVEINTEGER@SchemaSymbols@@2QBGB" PURGE="-1" COMMENT="" />
    <EXPORT ORDINAL="2696" NAME="?fgDT_NONPOSITIVEINTEGER@SchemaSymbols@@2QBGB" PURGE="-1" COMMENT="" />
    <EXPORT ORDINAL="2697" NAME="?fgDT_NORMALIZEDSTRING@SchemaSymbols@@2QBGB" PURGE="-1" COMMENT="" />
    <EXPORT ORDINAL="2698" NAME="?fgDT_POSITIVEINTEGER@SchemaSymbols@@2QBGB" PURGE="-1" COMMENT="" />
    <EXPORT ORDINAL="2699" NAME="?fgDT_QNAME@SchemaSymbols@@2QBGB" PURGE="-1" COMMENT="" />
    <EXPORT ORDINAL="2700" NAME="?fgDT_SHORT@SchemaSymbols@@2QBGB" PURGE="-1" COMMENT="" />
    <EXPORT ORDINAL="2701" NAME="?fgDT_STRING@SchemaSymbols@@2QBGB" PURGE="-1" COMMENT="" />
    <EXPORT ORDINAL="2702" NAME="?fgDT_TIME@SchemaSymbols@@2QBGB" PURGE="-1" COMMENT="" />
    <EXPORT ORDINAL="2703" NAME="?fgDT_TOKEN@SchemaSymbols@@2QBGB" PURGE="-1" COMMENT="" />
    <EXPORT ORDINAL="2704" NAME="?fgDT_UBYTE@SchemaSymbols@@2QBGB" PURGE="-1" COMMENT="" />
    <EXPORT ORDINAL="2705" NAME="?fgDT_UINT@SchemaSymbols@@2QBGB" PURGE="-1" COMMENT="" />
    <EXPORT ORDINAL="2706" NAME="?fgDT_ULONG@SchemaSymbols@@2QBGB" PURGE="-1" COMMENT="" />
    <EXPORT ORDINAL="2707" NAME="?fgDT_URIREFERENCE@SchemaSymbols@@2QBGB" PURGE="-1" COMMENT="" />
    <EXPORT ORDINAL="2708" NAME="?fgDT_USHORT@SchemaSymbols@@2QBGB" PURGE="-1" COMMENT="" />
    <EXPORT ORDINAL="2709" NAME="?fgDT_YEAR@SchemaSymbols@@2QBGB" PURGE="-1" COMMENT="" />
    <EXPORT ORDINAL="2710" NAME="?fgDT_YEARMONTH@SchemaSymbols@@2QBGB" PURGE="-1" COMMENT="" />
    <EXPORT ORDINAL="2711" NAME="?fgDefaultString@XMLUni@@2QBGB" PURGE="-1" COMMENT="" />
    <EXPORT ORDINAL="2712" NAME="?fgDocTypeString@XMLUni@@2QBGB" PURGE="-1" COMMENT="" />
    <EXPORT ORDINAL="2713" NAME="?fgEBCDICEncodingString@XMLUni@@2QBGB" PURGE="-1" COMMENT="" />
    <EXPORT ORDINAL="2714" NAME="?fgEBCDICPre@XMLRecognizer@@2QBEB" PURGE="-1" COMMENT="" />
    <EXPORT ORDINAL="2715" NAME="?fgEBCDICPreLen@XMLRecognizer@@2IB" PURGE="-1" COMMENT="" />
    <EXPORT ORDINAL="2716" NAME="?fgELT_ALL@SchemaSymbols@@2QBGB" PURGE="-1" COMMENT="" />
    <EXPORT ORDINAL="2717" NAME="?fgELT_ANNOTATION@SchemaSymbols@@2QBGB" PURGE="-1" COMMENT="" />
    <EXPORT ORDINAL="2718" NAME="?fgELT_ANY@SchemaSymbols@@2QBGB" PURGE="-1" COMMENT="" />
    <EXPORT ORDINAL="2719" NAME="?fgELT_ANYATTRIBUTE@SchemaSymbols@@2QBGB" PURGE="-1" COMMENT="" />
    <EXPORT ORDINAL="2720" NAME="?fgELT_APPINFO@SchemaSymbols@@2QBGB" PURGE="-1" COMMENT="" />
    <EXPORT ORDINAL="2721" NAME="?fgELT_ATTRIBUTE@SchemaSymbols@@2QBGB" PURGE="-1" COMMENT="" />
    <EXPORT ORDINAL="2722" NAME="?fgELT_ATTRIBUTEGROUP@SchemaSymbols@@2QBGB" PURGE="-1" COMMENT="" />
    <EXPORT ORDINAL="2723" NAME="?fgELT_CHOICE@SchemaSymbols@@2QBGB" PURGE="-1" COMMENT="" />
    <EXPORT ORDINAL="2724" NAME="?fgELT_COMPLEXCONTENT@SchemaSymbols@@2QBGB" PURGE="-1" COMMENT="" />
    <EXPORT ORDINAL="2725" NAME="?fgELT_COMPLEXTYPE@SchemaSymbols@@2QBGB" PURGE="-1" COMMENT="" />
    <EXPORT ORDINAL="2726" NAME="?fgELT_CONTENT@SchemaSymbols@@2QBGB" PURGE="-1" COMMENT="" />
    <EXPORT ORDINAL="2727" NAME="?fgELT_DOCUMENTATION@SchemaSymbols@@2QBGB" PURGE="-1" COMMENT="" />
    <EXPORT ORDINAL="2728" NAME="?fgELT_DURATION@SchemaSymbols@@2QBGB" PURGE="-1" COMMENT="" />
    <EXPORT ORDINAL="2729" NAME="?fgELT_ELEMENT@SchemaSymbols@@2QBGB" PURGE="-1" COMMENT="" />
    <EXPORT ORDINAL="2730" NAME="?fgELT_ENCODING@SchemaSymbols@@2QBGB" PURGE="-1" COMMENT="" />
    <EXPORT ORDINAL="2731" NAME="?fgELT_ENUMERATION@SchemaSymbols@@2QBGB" PURGE="-1" COMMENT="" />
    <EXPORT ORDINAL="2732" NAME="?fgELT_EXTENSION@SchemaSymbols@@2QBGB" PURGE="-1" COMMENT="" />
    <EXPORT ORDINAL="2733" NAME="?fgELT_FIELD@SchemaSymbols@@2QBGB" PURGE="-1" COMMENT="" />
    <EXPORT ORDINAL="2734" NAME="?fgELT_FRACTIONDIGITS@SchemaSymbols@@2QBGB" PURGE="-1" COMMENT="" />
    <EXPORT ORDINAL="2735" NAME="?fgELT_GROUP@SchemaSymbols@@2QBGB" PURGE="-1" COMMENT="" />
    <EXPORT ORDINAL="2736" NAME="?fgELT_IMPORT@SchemaSymbols@@2QBGB" PURGE="-1" COMMENT="" />
    <EXPORT ORDINAL="2737" NAME="?fgELT_INCLUDE@SchemaSymbols@@2QBGB" PURGE="-1" COMMENT="" />
    <EXPORT ORDINAL="2738" NAME="?fgELT_KEY@SchemaSymbols@@2QBGB" PURGE="-1" COMMENT="" />
    <EXPORT ORDINAL="2739" NAME="?fgELT_KEYREF@SchemaSymbols@@2QBGB" PURGE="-1" COMMENT="" />
    <EXPORT ORDINAL="2740" NAME="?fgELT_LENGTH@SchemaSymbols@@2QBGB" PURGE="-1" COMMENT="" />
    <EXPORT ORDINAL="2741" NAME="?fgELT_LIST@SchemaSymbols@@2QBGB" PURGE="-1" COMMENT="" />
    <EXPORT ORDINAL="2742" NAME="?fgELT_MAXEXCLUSIVE@SchemaSymbols@@2QBGB" PURGE="-1" COMMENT="" />
    <EXPORT ORDINAL="2743" NAME="?fgELT_MAXINCLUSIVE@SchemaSymbols@@2QBGB" PURGE="-1" COMMENT="" />
    <EXPORT ORDINAL="2744" NAME="?fgELT_MAXLENGTH@SchemaSymbols@@2QBGB" PURGE="-1" COMMENT="" />
    <EXPORT ORDINAL="2745" NAME="?fgELT_MINEXCLUSIVE@SchemaSymbols@@2QBGB" PURGE="-1" COMMENT="" />
    <EXPORT ORDINAL="2746" NAME="?fgELT_MININCLUSIVE@SchemaSymbols@@2QBGB" PURGE="-1" COMMENT="" />
    <EXPORT ORDINAL="2747" NAME="?fgELT_MINLENGTH@SchemaSymbols@@2QBGB" PURGE="-1" COMMENT="" />
    <EXPORT ORDINAL="2748" NAME="?fgELT_NOTATION@SchemaSymbols@@2QBGB" PURGE="-1" COMMENT="" />
    <EXPORT ORDINAL="2749" NAME="?fgELT_PATTERN@SchemaSymbols@@2QBGB" PURGE="-1" COMMENT="" />
    <EXPORT ORDINAL="2750" NAME="?fgELT_PERIOD@SchemaSymbols@@2QBGB" PURGE="-1" COMMENT="" />
    <EXPORT ORDINAL="2751" NAME="?fgELT_REDEFINE@SchemaSymbols@@2QBGB" PURGE="-1" COMMENT="" />
    <EXPORT ORDINAL="2752" NAME="?fgELT_RESTRICTION@SchemaSymbols@@2QBGB" PURGE="-1" COMMENT="" />
    <EXPORT ORDINAL="2753" NAME="?fgELT_SCHEMA@SchemaSymbols@@2QBGB" PURGE="-1" COMMENT="" />
    <EXPORT ORDINAL="2754" NAME="?fgELT_SELECTOR@SchemaSymbols@@2QBGB" PURGE="-1" COMMENT="" />
    <EXPORT ORDINAL="2755" NAME="?fgELT_SEQUENCE@SchemaSymbols@@2QBGB" PURGE="-1" COMMENT="" />
    <EXPORT ORDINAL="2756" NAME="?fgELT_SIMPLECONTENT@SchemaSymbols@@2QBGB" PURGE="-1" COMMENT="" />
    <EXPORT ORDINAL="2757" NAME="?fgELT_SIMPLETYPE@SchemaSymbols@@2QBGB" PURGE="-1" COMMENT="" />
    <EXPORT ORDINAL="2758" NAME="?fgELT_TOTALDIGITS@SchemaSymbols@@2QBGB" PURGE="-1" COMMENT="" />
    <EXPORT ORDINAL="2759" NAME="?fgELT_UNION@SchemaSymbols@@2QBGB" PURGE="-1" COMMENT="" />
    <EXPORT ORDINAL="2760" NAME="?fgELT_UNIQUE@SchemaSymbols@@2QBGB" PURGE="-1" COMMENT="" />
    <EXPORT ORDINAL="2761" NAME="?fgELT_WHITESPACE@SchemaSymbols@@2QBGB" PURGE="-1" COMMENT="" />
    <EXPORT ORDINAL="2762" NAME="?fgELT_WILDCARD@SchemaSymbols@@2QBGB" PURGE="-1" COMMENT="" />
    <EXPORT ORDINAL="2763" NAME="?fgEString@XMLUni@@2QBGB" PURGE="-1" COMMENT="" />
    <EXPORT ORDINAL="2764" NAME="?fgElemAttTable@GeneralAttributeCheck@@0PAY0CC@GA" PURGE="-1" COMMENT="" />
    <EXPORT ORDINAL="2765" NAME="?fgElemString@XMLUni@@2QBGB" PURGE="-1" COMMENT="" />
    <EXPORT ORDINAL="2766" NAME="?fgEmptyStackException_Name@XMLUni@@2QBGB" PURGE="-1" COMMENT="" />
    <EXPORT ORDINAL="2767" NAME="?fgEmptyString@XMLUni@@2QBGB" PURGE="-1" COMMENT="" />
    <EXPORT ORDINAL="2768" NAME="?fgEncodingString@XMLUni@@2QBGB" PURGE="-1" COMMENT="" />
    <EXPORT ORDINAL="2769" NAME="?fgEntitString@XMLUni@@2QBGB" PURGE="-1" COMMENT="" />
    <EXPORT ORDINAL="2770" NAME="?fgEntitiesString@XMLUni@@2QBGB" PURGE="-1" COMMENT="" />
    <EXPORT ORDINAL="2771" NAME="?fgEntityString@XMLUni@@2QBGB" PURGE="-1" COMMENT="" />
    <EXPORT ORDINAL="2772" NAME="?fgEnumerationString@XMLUni@@2QBGB" PURGE="-1" COMMENT="" />
    <EXPORT ORDINAL="2773" NAME="?fgExceptDomain@XMLUni@@2QBGB" PURGE="-1" COMMENT="" />
    <EXPORT ORDINAL="2774" NAME="?fgFixedString@XMLUni@@2QBGB" PURGE="-1" COMMENT="" />
    <EXPORT ORDINAL="2775" NAME="?fgIBM037EncodingString2@XMLUni@@2QBGB" PURGE="-1" COMMENT="" />
    <EXPORT ORDINAL="2776" NAME="?fgIBM037EncodingString@XMLUni@@2QBGB" PURGE="-1" COMMENT="" />
    <EXPORT ORDINAL="2777" NAME="?fgIBM1140EncodingString2@XMLUni@@2QBGB" PURGE="-1" COMMENT="" />
    <EXPORT ORDINAL="2778" NAME="?fgIBM1140EncodingString@XMLUni@@2QBGB" PURGE="-1" COMMENT="" />
    <EXPORT ORDINAL="2779" NAME="?fgIDRefString@XMLUni@@2QBGB" PURGE="-1" COMMENT="" />
    <EXPORT ORDINAL="2780" NAME="?fgIDRefsString@XMLUni@@2QBGB" PURGE="-1" COMMENT="" />
    <EXPORT ORDINAL="2781" NAME="?fgIDString@XMLUni@@2QBGB" PURGE="-1" COMMENT="" />
    <EXPORT ORDINAL="2782" NAME="?fgIESString@XMLUni@@2QBGB" PURGE="-1" COMMENT="" />
    <EXPORT ORDINAL="2783" NAME="?fgINT_MAX_VALUE@SchemaSymbols@@2HB" PURGE="-1" COMMENT="" />
    <EXPORT ORDINAL="2784" NAME="?fgINT_MIN_VALUE@SchemaSymbols@@2HB" PURGE="-1" COMMENT="" />
    <EXPORT ORDINAL="2785" NAME="?fgIOException_Name@XMLUni@@2QBGB" PURGE="-1" COMMENT="" />
    <EXPORT ORDINAL="2786" NAME="?fgISO88591EncodingString2@XMLUni@@2QBGB" PURGE="-1" COMMENT="" />
    <EXPORT ORDINAL="2787" NAME="?fgISO88591EncodingString3@XMLUni@@2QBGB" PURGE="-1" COMMENT="" />
    <EXPORT ORDINAL="2788" NAME="?fgISO88591EncodingString4@XMLUni@@2QBGB" PURGE="-1" COMMENT="" />
    <EXPORT ORDINAL="2789" NAME="?fgISO88591EncodingString5@XMLUni@@2QBGB" PURGE="-1" COMMENT="" />
    <EXPORT ORDINAL="2790" NAME="?fgISO88591EncodingString6@XMLUni@@2QBGB" PURGE="-1" COMMENT="" />
    <EXPORT ORDINAL="2791" NAME="?fgISO88591EncodingString7@XMLUni@@2QBGB" PURGE="-1" COMMENT="" />
    <EXPORT ORDINAL="2792" NAME="?fgISO88591EncodingString8@XMLUni@@2QBGB" PURGE="-1" COMMENT="" />
    <EXPORT ORDINAL="2793" NAME="?fgISO88591EncodingString@XMLUni@@2QBGB" PURGE="-1" COMMENT="" />
    <EXPORT ORDINAL="2794" NAME="?fgIgnoreString@XMLUni@@2QBGB" PURGE="-1" COMMENT="" />
    <EXPORT ORDINAL="2795" NAME="?fgIllegalArgumentException_Name@XMLUni@@2QBGB" PURGE="-1" COMMENT="" />
    <EXPORT ORDINAL="2796" NAME="?fgImpliedString@XMLUni@@2QBGB" PURGE="-1" COMMENT="" />
    <EXPORT ORDINAL="2797" NAME="?fgIncludeString@XMLUni@@2QBGB" PURGE="-1" COMMENT="" />
    <EXPORT ORDINAL="2798" NAME="?fgInvalidAttrId@XMLAttDef@@2IB" PURGE="-1" COMMENT="" />
    <EXPORT ORDINAL="2799" NAME="?fgInvalidCastException_Name@XMLUni@@2QBGB" PURGE="-1" COMMENT="" />
    <EXPORT ORDINAL="2800" NAME="?fgInvalidDatatypeFacetException_Name@XMLUni@@2QBGB" PURGE="-1" COMMENT="" />
    <EXPORT ORDINAL="2801" NAME="?fgInvalidDatatypeValueException_Name@XMLUni@@2QBGB" PURGE="-1" COMMENT="" />
    <EXPORT ORDINAL="2802" NAME="?fgInvalidElemId@XMLElementDecl@@2IB" PURGE="-1" COMMENT="" />
    <EXPORT ORDINAL="2803" NAME="?fgLocalHostString@XMLUni@@2QBGB" PURGE="-1" COMMENT="" />
    <EXPORT ORDINAL="2804" NAME="?fgMalformedURLException_Name@XMLUni@@2QBGB" PURGE="-1" COMMENT="" />
    <EXPORT ORDINAL="2805" NAME="?fgMyName@WinSockNetAccessor@@0QBGB" PURGE="-1" COMMENT="" />
    <EXPORT ORDINAL="2806" NAME="?fgNDATAString@XMLUni@@2QBGB" PURGE="-1" COMMENT="" />
    <EXPORT ORDINAL="2807" NAME="?fgNaNString@XMLUni@@2QBGB" PURGE="-1" COMMENT="" />
    <EXPORT ORDINAL="2808" NAME="?fgNegINFString@XMLUni@@2QBGB" PURGE="-1" COMMENT="" />
    <EXPORT ORDINAL="2809" NAME="?fgNegZeroString@XMLUni@@2QBGB" PURGE="-1" COMMENT="" />
    <EXPORT ORDINAL="2810" NAME="?fgNetAccessor@XMLPlatformUtils@@2PAVXMLNetAccessor@@A" PURGE="-1" COMMENT="" />
    <EXPORT ORDINAL="2811" NAME="?fgNetAccessorException_Name@XMLUni@@2QBGB" PURGE="-1" COMMENT="" />
    <EXPORT ORDINAL="2812" NAME="?fgNmTokenString@XMLUni@@2QBGB" PURGE="-1" COMMENT="" />
    <EXPORT ORDINAL="2813" NAME="?fgNmTokensString@XMLUni@@2QBGB" PURGE="-1" COMMENT="" />
    <EXPORT ORDINAL="2814" NAME="?fgNoString@XMLUni@@2QBGB" PURGE="-1" COMMENT="" />
    <EXPORT ORDINAL="2815" NAME="?fgNoSuchElementException_Name@XMLUni@@2QBGB" PURGE="-1" COMMENT="" />
    <EXPORT ORDINAL="2816" NAME="?fgNotationString@XMLUni@@2QBGB" PURGE="-1" COMMENT="" />
    <EXPORT ORDINAL="2817" NAME="?fgNullPointerException_Name@XMLUni@@2QBGB" PURGE="-1" COMMENT="" />
    <EXPORT ORDINAL="2818" NAME="?fgNullString@XMLUni@@2QBGB" PURGE="-1" COMMENT="" />
    <EXPORT ORDINAL="2819" NAME="?fgNumberFormatException_Name@XMLUni@@2QBGB" PURGE="-1" COMMENT="" />
    <EXPORT ORDINAL="2820" NAME="?fgPCDATAString@XMLUni@@2QBGB" PURGE="-1" COMMENT="" />
    <EXPORT ORDINAL="2821" NAME="?fgPCDataElemId@XMLElementDecl@@2IB" PURGE="-1" COMMENT="" />
    <EXPORT ORDINAL="2822" NAME="?fgPCDataElemName@XMLElementDecl@@2QBGB" PURGE="-1" COMMENT="" />
    <EXPORT ORDINAL="2823" NAME="?fgPIString@XMLUni@@2QBGB" PURGE="-1" COMMENT="" />
    <EXPORT ORDINAL="2824" NAME="?fgParseException_Name@XMLUni@@2QBGB" PURGE="-1" COMMENT="" />
    <EXPORT ORDINAL="2825" NAME="?fgPosINFString@XMLUni@@2QBGB" PURGE="-1" COMMENT="" />
    <EXPORT ORDINAL="2826" NAME="?fgPosZeroString@XMLUni@@2QBGB" PURGE="-1" COMMENT="" />
    <EXPORT ORDINAL="2827" NAME="?fgPubIDString@XMLUni@@2QBGB" PURGE="-1" COMMENT="" />
    <EXPORT ORDINAL="2828" NAME="?fgRedefIdentifier@SchemaSymbols@@2QBGB" PURGE="-1" COMMENT="" />
    <EXPORT ORDINAL="2829" NAME="?fgRefString@XMLUni@@2QBGB" PURGE="-1" COMMENT="" />
    <EXPORT ORDINAL="2830" NAME="?fgRegEx_XOption@SchemaSymbols@@2QBGB" PURGE="-1" COMMENT="" />
    <EXPORT ORDINAL="2831" NAME="?fgRequiredString@XMLUni@@2QBGB" PURGE="-1" COMMENT="" />
    <EXPORT ORDINAL="2832" NAME="?fgRuntimeException_Name@XMLUni@@2QBGB" PURGE="-1" COMMENT="" />
    <EXPORT ORDINAL="2833" NAME="?fgSAX2CoreNameSpacePrefixes@XMLUni@@2QBGB" PURGE="-1" COMMENT="" />
    <EXPORT ORDINAL="2834" NAME="?fgSAX2CoreNameSpaces@XMLUni@@2QBGB" PURGE="-1" COMMENT="" />
    <EXPORT ORDINAL="2835" NAME="?fgSAX2CoreValidation@XMLUni@@2QBGB" PURGE="-1" COMMENT="" />
    <EXPORT ORDINAL="2836" NAME="?fgSYMBOL_ANCESTOR@XPathSymbols@@2QBGB" PURGE="-1" COMMENT="" />
    <EXPORT ORDINAL="2837" NAME="?fgSYMBOL_ANCESTOR_OR_SELF@XPathSymbols@@2QBGB" PURGE="-1" COMMENT="" />
    <EXPORT ORDINAL="2838" NAME="?fgSYMBOL_AND@XPathSymbols@@2QBGB" PURGE="-1" COMMENT="" />
    <EXPORT ORDINAL="2839" NAME="?fgSYMBOL_ATTRIBUTE@XPathSymbols@@2QBGB" PURGE="-1" COMMENT="" />
    <EXPORT ORDINAL="2840" NAME="?fgSYMBOL_CHILD@XPathSymbols@@2QBGB" PURGE="-1" COMMENT="" />
    <EXPORT ORDINAL="2841" NAME="?fgSYMBOL_COMMENT@XPathSymbols@@2QBGB" PURGE="-1" COMMENT="" />
    <EXPORT ORDINAL="2842" NAME="?fgSYMBOL_DESCENDANT@XPathSymbols@@2QBGB" PURGE="-1" COMMENT="" />
    <EXPORT ORDINAL="2843" NAME="?fgSYMBOL_DESCENDANT_OR_SELF@XPathSymbols@@2QBGB" PURGE="-1" COMMENT="" />
    <EXPORT ORDINAL="2844" NAME="?fgSYMBOL_DIV@XPathSymbols@@2QBGB" PURGE="-1" COMMENT="" />
    <EXPORT ORDINAL="2845" NAME="?fgSYMBOL_FOLLOWING@XPathSymbols@@2QBGB" PURGE="-1" COMMENT="" />
    <EXPORT ORDINAL="2846" NAME="?fgSYMBOL_FOLLOWING_SIBLING@XPathSymbols@@2QBGB" PURGE="-1" COMMENT="" />
    <EXPORT ORDINAL="2847" NAME="?fgSYMBOL_MOD@XPathSymbols@@2QBGB" PURGE="-1" COMMENT="" />
    <EXPORT ORDINAL="2848" NAME="?fgSYMBOL_NAMESPACE@XPathSymbols@@2QBGB" PURGE="-1" COMMENT="" />
    <EXPORT ORDINAL="2849" NAME="?fgSYMBOL_NODE@XPathSymbols@@2QBGB" PURGE="-1" COMMENT="" />
    <EXPORT ORDINAL="2850" NAME="?fgSYMBOL_OR@XPathSymbols@@2QBGB" PURGE="-1" COMMENT="" />
    <EXPORT ORDINAL="2851" NAME="?fgSYMBOL_PARENT@XPathSymbols@@2QBGB" PURGE="-1" COMMENT="" />
    <EXPORT ORDINAL="2852" NAME="?fgSYMBOL_PI@XPathSymbols@@2QBGB" PURGE="-1" COMMENT="" />
    <EXPORT ORDINAL="2853" NAME="?fgSYMBOL_PRECEDING@XPathSymbols@@2QBGB" PURGE="-1" COMMENT="" />
    <EXPORT ORDINAL="2854" NAME="?fgSYMBOL_PRECEDING_SIBLING@XPathSymbols@@2QBGB" PURGE="-1" COMMENT="" />
    <EXPORT ORDINAL="2855" NAME="?fgSYMBOL_SELF@XPathSymbols@@2QBGB" PURGE="-1" COMMENT="" />
    <EXPORT ORDINAL="2856" NAME="?fgSYMBOL_TEXT@XPathSymbols@@2QBGB" PURGE="-1" COMMENT="" />
    <EXPORT ORDINAL="2857" NAME="?fgSchemaDateTimeException_Name@XMLUni@@2QBGB" PURGE="-1" COMMENT="" />
    <EXPORT ORDINAL="2858" NAME="?fgStandaloneString@XMLUni@@2QBGB" PURGE="-1" COMMENT="" />
    <EXPORT ORDINAL="2859" NAME="?fgSupportedVersion@XMLUni@@2QBGB" PURGE="-1" COMMENT="" />
    <EXPORT ORDINAL="2860" NAME="?fgSysIDString@XMLUni@@2QBGB" PURGE="-1" COMMENT="" />
    <EXPORT ORDINAL="2861" NAME="?fgTransService@XMLPlatformUtils@@2PAVXMLTransService@@A" PURGE="-1" COMMENT="" />
    <EXPORT ORDINAL="2862" NAME="?fgTranscodingException_Name@XMLUni@@2QBGB" PURGE="-1" COMMENT="" />
    <EXPORT ORDINAL="2863" NAME="?fgUCS4BEncodingString2@XMLUni@@2QBGB" PURGE="-1" COMMENT="" />
    <EXPORT ORDINAL="2864" NAME="?fgUCS4BEncodingString@XMLUni@@2QBGB" PURGE="-1" COMMENT="" />
    <EXPORT ORDINAL="2865" NAME="?fgUCS4BPre@XMLRecognizer@@2QBEB" PURGE="-1" COMMENT="" />
    <EXPORT ORDINAL="2866" NAME="?fgUCS4EncodingString2@XMLUni@@2QBGB" PURGE="-1" COMMENT="" />
    <EXPORT ORDINAL="2867" NAME="?fgUCS4EncodingString3@XMLUni@@2QBGB" PURGE="-1" COMMENT="" />
    <EXPORT ORDINAL="2868" NAME="?fgUCS4EncodingString@XMLUni@@2QBGB" PURGE="-1" COMMENT="" />
    <EXPORT ORDINAL="2869" NAME="?fgUCS4LEncodingString2@XMLUni@@2QBGB" PURGE="-1" COMMENT="" />
    <EXPORT ORDINAL="2870" NAME="?fgUCS4LEncodingString@XMLUni@@2QBGB" PURGE="-1" COMMENT="" />
    <EXPORT ORDINAL="2871" NAME="?fgUCS4LPre@XMLRecognizer@@2QBEB" PURGE="-1" COMMENT="" />
    <EXPORT ORDINAL="2872" NAME="?fgUCS4PreLen@XMLRecognizer@@2IB" PURGE="-1" COMMENT="" />
    <EXPORT ORDINAL="2873" NAME="?fgURI_SCHEMAFORSCHEMA@SchemaSymbols@@2QBGB" PURGE="-1" COMMENT="" />
    <EXPORT ORDINAL="2874" NAME="?fgURI_XSI@SchemaSymbols@@2QBGB" PURGE="-1" COMMENT="" />
    <EXPORT ORDINAL="2875" NAME="?fgUSASCIIEncodingString2@XMLUni@@2QBGB" PURGE="-1" COMMENT="" />
    <EXPORT ORDINAL="2876" NAME="?fgUSASCIIEncodingString3@XMLUni@@2QBGB" PURGE="-1" COMMENT="" />
    <EXPORT ORDINAL="2877" NAME="?fgUSASCIIEncodingString4@XMLUni@@2QBGB" PURGE="-1" COMMENT="" />
    <EXPORT ORDINAL="2878" NAME="?fgUSASCIIEncodingString@XMLUni@@2QBGB" PURGE="-1" COMMENT="" />
    <EXPORT ORDINAL="2879" NAME="?fgUTF16BEncodingString2@XMLUni@@2QBGB" PURGE="-1" COMMENT="" />
    <EXPORT ORDINAL="2880" NAME="?fgUTF16BEncodingString@XMLUni@@2QBGB" PURGE="-1" COMMENT="" />
    <EXPORT ORDINAL="2881" NAME="?fgUTF16BPre@XMLRecognizer@@2QBEB" PURGE="-1" COMMENT="" />
    <EXPORT ORDINAL="2882" NAME="?fgUTF16EncodingString2@XMLUni@@2QBGB" PURGE="-1" COMMENT="" />
    <EXPORT ORDINAL="2883" NAME="?fgUTF16EncodingString3@XMLUni@@2QBGB" PURGE="-1" COMMENT="" />
    <EXPORT ORDINAL="2884" NAME="?fgUTF16EncodingString4@XMLUni@@2QBGB" PURGE="-1" COMMENT="" />
    <EXPORT ORDINAL="2885" NAME="?fgUTF16EncodingString5@XMLUni@@2QBGB" PURGE="-1" COMMENT="" />
    <EXPORT ORDINAL="2886" NAME="?fgUTF16EncodingString@XMLUni@@2QBGB" PURGE="-1" COMMENT="" />
    <EXPORT ORDINAL="2887" NAME="?fgUTF16LEncodingString2@XMLUni@@2QBGB" PURGE="-1" COMMENT="" />
    <EXPORT ORDINAL="2888" NAME="?fgUTF16LEncodingString@XMLUni@@2QBGB" PURGE="-1" COMMENT="" />
    <EXPORT ORDINAL="2889" NAME="?fgUTF16LPre@XMLRecognizer@@2QBEB" PURGE="-1" COMMENT="" />
    <EXPORT ORDINAL="2890" NAME="?fgUTF16PreLen@XMLRecognizer@@2IB" PURGE="-1" COMMENT="" />
    <EXPORT ORDINAL="2891" NAME="?fgUTF8BOM@XMLRecognizer@@2QBDB" PURGE="-1" COMMENT="" />
    <EXPORT ORDINAL="2892" NAME="?fgUTF8BOMLen@XMLRecognizer@@2IB" PURGE="-1" COMMENT="" />
    <EXPORT ORDINAL="2893" NAME="?fgUTF8EncodingString2@XMLUni@@2QBGB" PURGE="-1" COMMENT="" />
    <EXPORT ORDINAL="2894" NAME="?fgUTF8EncodingString@XMLUni@@2QBGB" PURGE="-1" COMMENT="" />
    <EXPORT ORDINAL="2895" NAME="?fgUTFDataFormatException_Name@XMLUni@@2QBGB" PURGE="-1" COMMENT="" />
    <EXPORT ORDINAL="2896" NAME="?fgUnexpectedEOFException_Name@XMLUni@@2QBGB" PURGE="-1" COMMENT="" />
    <EXPORT ORDINAL="2897" NAME="?fgUnknownURIName@XMLUni@@2QBGB" PURGE="-1" COMMENT="" />
    <EXPORT ORDINAL="2898" NAME="?fgUnsupportedEncodingException_Name@XMLUni@@2QBGB" PURGE="-1" COMMENT="" />
    <EXPORT ORDINAL="2899" NAME="?fgValidityDomain@XMLUni@@2QBGB" PURGE="-1" COMMENT="" />
    <EXPORT ORDINAL="2900" NAME="?fgVersionString@XMLUni@@2QBGB" PURGE="-1" COMMENT="" />
    <EXPORT ORDINAL="2901" NAME="?fgWS_COLLAPSE@SchemaSymbols@@2QBGB" PURGE="-1" COMMENT="" />
    <EXPORT ORDINAL="2902" NAME="?fgWS_PRESERVE@SchemaSymbols@@2QBGB" PURGE="-1" COMMENT="" />
    <EXPORT ORDINAL="2903" NAME="?fgWS_REPLACE@SchemaSymbols@@2QBGB" PURGE="-1" COMMENT="" />
    <EXPORT ORDINAL="2904" NAME="?fgWin1252EncodingString@XMLUni@@2QBGB" PURGE="-1" COMMENT="" />
    <EXPORT ORDINAL="2905" NAME="?fgXMLChEncodingString@XMLUni@@2QBGB" PURGE="-1" COMMENT="" />
    <EXPORT ORDINAL="2906" NAME="?fgXMLDeclString@XMLUni@@2QBGB" PURGE="-1" COMMENT="" />
    <EXPORT ORDINAL="2907" NAME="?fgXMLDeclStringCR@XMLUni@@2QBGB" PURGE="-1" COMMENT="" />
    <EXPORT ORDINAL="2908" NAME="?fgXMLDeclStringCRU@XMLUni@@2QBGB" PURGE="-1" COMMENT="" />
    <EXPORT ORDINAL="2909" NAME="?fgXMLDeclStringHTab@XMLUni@@2QBGB" PURGE="-1" COMMENT="" />
    <EXPORT ORDINAL="2910" NAME="?fgXMLDeclStringHTabU@XMLUni@@2QBGB" PURGE="-1" COMMENT="" />
    <EXPORT ORDINAL="2911" NAME="?fgXMLDeclStringLF@XMLUni@@2QBGB" PURGE="-1" COMMENT="" />
    <EXPORT ORDINAL="2912" NAME="?fgXMLDeclStringLFU@XMLUni@@2QBGB" PURGE="-1" COMMENT="" />
    <EXPORT ORDINAL="2913" NAME="?fgXMLDeclStringSpace@XMLUni@@2QBGB" PURGE="-1" COMMENT="" />
    <EXPORT ORDINAL="2914" NAME="?fgXMLDeclStringSpaceU@XMLUni@@2QBGB" PURGE="-1" COMMENT="" />
    <EXPORT ORDINAL="2915" NAME="?fgXMLErrDomain@XMLUni@@2QBGB" PURGE="-1" COMMENT="" />
    <EXPORT ORDINAL="2916" NAME="?fgXMLNSColonString@XMLUni@@2QBGB" PURGE="-1" COMMENT="" />
    <EXPORT ORDINAL="2917" NAME="?fgXMLNSString@XMLUni@@2QBGB" PURGE="-1" COMMENT="" />
    <EXPORT ORDINAL="2918" NAME="?fgXMLNSURIName@XMLUni@@2QBGB" PURGE="-1" COMMENT="" />
    <EXPORT ORDINAL="2919" NAME="?fgXMLPlatformUtilsException_Name@XMLUni@@2QBGB" PURGE="-1" COMMENT="" />
    <EXPORT ORDINAL="2920" NAME="?fgXMLString@XMLUni@@2QBGB" PURGE="-1" COMMENT="" />
    <EXPORT ORDINAL="2921" NAME="?fgXMLStringCR@XMLUni@@2QBGB" PURGE="-1" COMMENT="" />
    <EXPORT ORDINAL="2922" NAME="?fgXMLStringCRU@XMLUni@@2QBGB" PURGE="-1" COMMENT="" />
    <EXPORT ORDINAL="2923" NAME="?fgXMLStringHTab@XMLUni@@2QBGB" PURGE="-1" COMMENT="" />
    <EXPORT ORDINAL="2924" NAME="?fgXMLStringHTabU@XMLUni@@2QBGB" PURGE="-1" COMMENT="" />
    <EXPORT ORDINAL="2925" NAME="?fgXMLStringLF@XMLUni@@2QBGB" PURGE="-1" COMMENT="" />
    <EXPORT ORDINAL="2926" NAME="?fgXMLStringLFU@XMLUni@@2QBGB" PURGE="-1" COMMENT="" />
    <EXPORT ORDINAL="2927" NAME="?fgXMLStringSpace@XMLUni@@2QBGB" PURGE="-1" COMMENT="" />
    <EXPORT ORDINAL="2928" NAME="?fgXMLStringSpaceU@XMLUni@@2QBGB" PURGE="-1" COMMENT="" />
    <EXPORT ORDINAL="2929" NAME="?fgXMLURIName@XMLUni@@2QBGB" PURGE="-1" COMMENT="" />
    <EXPORT ORDINAL="2930" NAME="?fgXPathException_Name@XMLUni@@2QBGB" PURGE="-1" COMMENT="" />
    <EXPORT ORDINAL="2931" NAME="?fgXSI_NONAMESPACESCHEMALOCACTION@SchemaSymbols@@2QBGB" PURGE="-1" COMMENT="" />
    <EXPORT ORDINAL="2932" NAME="?fgXSI_SCHEMALOCACTION@SchemaSymbols@@2QBGB" PURGE="-1" COMMENT="" />
    <EXPORT ORDINAL="2933" NAME="?fgXSI_TYPE@SchemaSymbols@@2QBGB" PURGE="-1" COMMENT="" />
    <EXPORT ORDINAL="2934" NAME="?fgXercesCacheGrammarFromParse@XMLUni@@2QBGB" PURGE="-1" COMMENT="" />
    <EXPORT ORDINAL="2935" NAME="?fgXercesContinueAfterFatalError@XMLUni@@2QBGB" PURGE="-1" COMMENT="" />
    <EXPORT ORDINAL="2936" NAME="?fgXercesDynamic@XMLUni@@2QBGB" PURGE="-1" COMMENT="" />
    <EXPORT ORDINAL="2937" NAME="?fgXercesLoadExternalDTD@XMLUni@@2QBGB" PURGE="-1" COMMENT="" />
    <EXPORT ORDINAL="2938" NAME="?fgXercesSchema@XMLUni@@2QBGB" PURGE="-1" COMMENT="" />
    <EXPORT ORDINAL="2939" NAME="?fgXercesSchemaExternalNoNameSpaceSchemaLocation@XMLUni@@2QBGB" PURGE="-1" COMMENT="" />
    <EXPORT ORDINAL="2940" NAME="?fgXercesSchemaExternalSchemaLocation@XMLUni@@2QBGB" PURGE="-1" COMMENT="" />
    <EXPORT ORDINAL="2941" NAME="?fgXercesSchemaFullChecking@XMLUni@@2QBGB" PURGE="-1" COMMENT="" />
    <EXPORT ORDINAL="2942" NAME="?fgXercesUseCachedGrammarInParse@XMLUni@@2QBGB" PURGE="-1" COMMENT="" />
    <EXPORT ORDINAL="2943" NAME="?fgXercesUserAdoptsDOMDocument@XMLUni@@2QBGB" PURGE="-1" COMMENT="" />
    <EXPORT ORDINAL="2944" NAME="?fgXercesValidationErrorAsFatal@XMLUni@@2QBGB" PURGE="-1" COMMENT="" />
    <EXPORT ORDINAL="2945" NAME="?fgYesString@XMLUni@@2QBGB" PURGE="-1" COMMENT="" />
    <EXPORT ORDINAL="2946" NAME="?fgZeroLenString@XMLUni@@2QBGB" PURGE="-1" COMMENT="" />
    <EXPORT ORDINAL="2947" NAME="?fgZeroString@XMLUni@@2QBGB" PURGE="-1" COMMENT="" />
    <EXPORT ORDINAL="2948" NAME="?fileSize@XMLPlatformUtils@@SAIPAX@Z" PURGE="0" COMMENT="" />
    <EXPORT ORDINAL="2949" NAME="?findAny@XMLString@@SAPAGQAGQBG@Z" PURGE="0" COMMENT="" />
    <EXPORT ORDINAL="2950" NAME="?findAny@XMLString@@SAPBGQBG0@Z" PURGE="0" COMMENT="" />
    <EXPORT ORDINAL="2951" NAME="?findAttr@ComplexTypeInfo@@QBEPAVXMLAttDef@@QBGI00W4LookupOpts@XMLElementDecl@@AA_N@Z" PURGE="24" COMMENT="" />
    <EXPORT ORDINAL="2952" NAME="?findAttr@DTDElementDecl@@UBEPAVXMLAttDef@@QBGI00W4LookupOpts@XMLElementDecl@@AA_N@Z" PURGE="24" COMMENT="" />
    <EXPORT ORDINAL="2953" NAME="?findAttr@SchemaElementDecl@@UBEPAVXMLAttDef@@QBGI00W4LookupOpts@XMLElementDecl@@AA_N@Z" PURGE="24" COMMENT="" />
    <EXPORT ORDINAL="2954" NAME="?findDTValidator@TraverseSchema@@AAEPAVDatatypeValidator@@QBVDOMElement@@QBG1H@Z" PURGE="16" COMMENT="" />
    <EXPORT ORDINAL="2955" NAME="?findElement@SchemaValidator@@AAEPAVSchemaElementDecl@@HIQBGQAVSchemaGrammar@@QBVComplexTypeInfo@@@Z" PURGE="20" COMMENT="" />
    <EXPORT ORDINAL="2956" NAME="?findFixedString@Token@@QAEPAV1@HAAH@Z" PURGE="8" COMMENT="" />
    <EXPORT ORDINAL="2957" NAME="?findNamePoint@DOMNamedNodeMapImpl@@UBEHPBG0@Z" PURGE="8" COMMENT="" />
    <EXPORT ORDINAL="2958" NAME="?findNamePoint@DOMNamedNodeMapImpl@@UBEHPBG@Z" PURGE="4" COMMENT="" />
    <EXPORT ORDINAL="2959" NAME="?findNamePoint@NamedNodeMapImpl@@UAEHABVDOMString@@0@Z" PURGE="8" COMMENT="" />
    <EXPORT ORDINAL="2960" NAME="?findNamePoint@NamedNodeMapImpl@@UAEHABVDOMString@@@Z" PURGE="4" COMMENT="" />
    <EXPORT ORDINAL="2961" NAME="?findOrAddElemDecl@DTDGrammar@@UAEPAVXMLElementDecl@@IQBG00IAA_N@Z" PURGE="24" COMMENT="" />
    <EXPORT ORDINAL="2962" NAME="?findOrAddElemDecl@SchemaGrammar@@UAEPAVXMLElementDecl@@IQBG00IAA_N@Z" PURGE="24" COMMENT="" />
    <EXPORT ORDINAL="2963" NAME="?findUTCSign@XMLDateTime@@AAEHH@Z" PURGE="4" COMMENT="" />
    <EXPORT ORDINAL="2964" NAME="?firstChild@DOMTreeWalkerImpl@@UAEPAVDOMNode@@XZ" PURGE="0" COMMENT="" />
    <EXPORT ORDINAL="2965" NAME="?firstChild@DOM_TreeWalker@@QAE?AVDOM_Node@@XZ" PURGE="4" COMMENT="" />
    <EXPORT ORDINAL="2966" NAME="?firstChild@TreeWalkerImpl@@QAE?AVDOM_Node@@XZ" PURGE="4" COMMENT="" />
    <EXPORT ORDINAL="2967" NAME="?fixRedefinedSchema@TraverseSchema@@AAEXQBVDOMElement@@QAVSchemaInfo@@QBG2H@Z" PURGE="20" COMMENT="" />
    <EXPORT ORDINAL="2968" NAME="?flushAll@XMLStringPool@@QAEXXZ" PURGE="0" COMMENT="" />
    <EXPORT ORDINAL="2969" NAME="?formatBuf@XMLFormatter@@QAEXQBGIW4EscapeFlags@1@W4UnRepFlags@1@@Z" PURGE="16" COMMENT="" />
    <EXPORT ORDINAL="2970" NAME="?formatContentModel@ComplexTypeInfo@@ABEPAGXZ" PURGE="0" COMMENT="" />
    <EXPORT ORDINAL="2971" NAME="?formatContentModel@DTDElementDecl@@ABEPAGXZ" PURGE="0" COMMENT="" />
    <EXPORT ORDINAL="2972" NAME="?gEOCFakeId@XMLContentModel@@2IB" PURGE="-1" COMMENT="" />
    <EXPORT ORDINAL="2973" NAME="?gEpsilonFakeId@XMLContentModel@@2IB" PURGE="-1" COMMENT="" />
    <EXPORT ORDINAL="2974" NAME="?gInvalidTrans@XMLContentModel@@2IB" PURGE="-1" COMMENT="" />
    <EXPORT ORDINAL="2975" NAME="?gLiveNamedNodeMaps@NamedNodeMapImpl@@1HA" PURGE="-1" COMMENT="" />
    <EXPORT ORDINAL="2976" NAME="?gLiveNodeImpls@NodeImpl@@2HA" PURGE="-1" COMMENT="" />
    <EXPORT ORDINAL="2977" NAME="?gLiveStringDataCount@DOMString@@0HA" PURGE="-1" COMMENT="" />
    <EXPORT ORDINAL="2978" NAME="?gLiveStringHandleCount@DOMString@@0HA" PURGE="-1" COMMENT="" />
    <EXPORT ORDINAL="2979" NAME="?gTotalNamedNodeMaps@NamedNodeMapImpl@@1HA" PURGE="-1" COMMENT="" />
    <EXPORT ORDINAL="2980" NAME="?gTotalNodeImpls@NodeImpl@@2HA" PURGE="-1" COMMENT="" />
    <EXPORT ORDINAL="2981" NAME="?gTotalStringDataCount@DOMString@@0HA" PURGE="-1" COMMENT="" />
    <EXPORT ORDINAL="2982" NAME="?gTotalStringHandleCount@DOMString@@0HA" PURGE="-1" COMMENT="" />
    <EXPORT ORDINAL="2983" NAME="?gatherChildren@SchemaValidator@@AAEXW4NodeTypes@ContentSpecNode@@QAV3@QAV?$ValueVectorOf@PAVContentSpecNode@@@@@Z" PURGE="12" COMMENT="" />
    <EXPORT ORDINAL="2984" NAME="?genAnonTypeName@TraverseSchema@@AAEPBGQBG@Z" PURGE="4" COMMENT="" />
    <EXPORT ORDINAL="2985" NAME="?get@BitSet@@QBE_NI@Z" PURGE="4" COMMENT="" />
    <EXPORT ORDINAL="2986" NAME="?getAbstract@ComplexTypeInfo@@QBE_NXZ" PURGE="0" COMMENT="" />
    <EXPORT ORDINAL="2987" NAME="?getActualEncoding@DOMDocumentImpl@@UBEPBGXZ" PURGE="0" COMMENT="" />
    <EXPORT ORDINAL="2988" NAME="?getActualEncoding@DOMEntityImpl@@UBEPBGXZ" PURGE="0" COMMENT="" />
    <EXPORT ORDINAL="2989" NAME="?getAdoptContentSpec@ComplexTypeInfo@@QBE_NXZ" PURGE="0" COMMENT="" />
    <EXPORT ORDINAL="2990" NAME="?getAmpRef@XMLFormatter@@AAEPBEAAI@Z" PURGE="4" COMMENT="" />
    <EXPORT ORDINAL="2991" NAME="?getAposRef@XMLFormatter@@AAEPBEAAI@Z" PURGE="4" COMMENT="" />
    <EXPORT ORDINAL="2992" NAME="?getAttDef@ComplexTypeInfo@@QAEPAVSchemaAttDef@@QBGH@Z" PURGE="8" COMMENT="" />
    <EXPORT ORDINAL="2993" NAME="?getAttDef@ComplexTypeInfo@@QBEPBVSchemaAttDef@@QBGH@Z" PURGE="8" COMMENT="" />
    <EXPORT ORDINAL="2994" NAME="?getAttDef@DTDElementDecl@@QAEPAVDTDAttDef@@QBG@Z" PURGE="4" COMMENT="" />
    <EXPORT ORDINAL="2995" NAME="?getAttDef@DTDElementDecl@@QBEPBVDTDAttDef@@QBG@Z" PURGE="4" COMMENT="" />
    <EXPORT ORDINAL="2996" NAME="?getAttDef@SchemaElementDecl@@QAEPAVSchemaAttDef@@QBGH@Z" PURGE="8" COMMENT="" />
    <EXPORT ORDINAL="2997" NAME="?getAttDef@SchemaElementDecl@@QBEPBVSchemaAttDef@@QBGH@Z" PURGE="8" COMMENT="" />
    <EXPORT ORDINAL="2998" NAME="?getAttDef@XercesAttGroupInfo@@QBEPBVSchemaAttDef@@QBGH@Z" PURGE="8" COMMENT="" />
    <EXPORT ORDINAL="2999" NAME="?getAttDefList@ComplexTypeInfo@@QBEAAVXMLAttDefList@@XZ" PURGE="0" COMMENT="" />
    <EXPORT ORDINAL="3000" NAME="?getAttDefList@DTDElementDecl@@UBEAAVXMLAttDefList@@XZ" PURGE="0" COMMENT="" />
    <EXPORT ORDINAL="3001" NAME="?getAttDefList@SchemaElementDecl@@UBEAAVXMLAttDefList@@XZ" PURGE="0" COMMENT="" />
    <EXPORT ORDINAL="3002" NAME="?getAttGroupInfoRegistry@SchemaGrammar@@QBEPAV?$RefHashTableOf@VXercesAttGroupInfo@@@@XZ" PURGE="0" COMMENT="" />
    <EXPORT ORDINAL="3003" NAME="?getAttName@SchemaAttDef@@QBEPAVQName@@XZ" PURGE="0" COMMENT="" />
    <EXPORT ORDINAL="3004" NAME="?getAttName@XMLAttr@@QBEPAVQName@@XZ" PURGE="0" COMMENT="" />
    <EXPORT ORDINAL="3005" NAME="?getAttTypeString@XMLAttDef@@SAPBGW4AttTypes@1@@Z" PURGE="0" COMMENT="" />
    <EXPORT ORDINAL="3006" NAME="?getAttWildCard@ComplexTypeInfo@@QAEPAVSchemaAttDef@@XZ" PURGE="0" COMMENT="" />
    <EXPORT ORDINAL="3007" NAME="?getAttWildCard@ComplexTypeInfo@@QBEPBVSchemaAttDef@@XZ" PURGE="0" COMMENT="" />
    <EXPORT ORDINAL="3008" NAME="?getAttWildCard@SchemaElementDecl@@QAEPAVSchemaAttDef@@XZ" PURGE="0" COMMENT="" />
    <EXPORT ORDINAL="3009" NAME="?getAttWildCard@SchemaElementDecl@@QBEPBVSchemaAttDef@@XZ" PURGE="0" COMMENT="" />
    <EXPORT ORDINAL="3010" NAME="?getAttribute@DOMElementImpl@@UBEPBGPBG@Z" PURGE="4" COMMENT="" />
    <EXPORT ORDINAL="3011" NAME="?getAttribute@DOM_Element@@QBE?AVDOMString@@ABV2@@Z" PURGE="8" COMMENT="" />
    <EXPORT ORDINAL="3012" NAME="?getAttribute@ElementImpl@@UAE?AVDOMString@@ABV2@@Z" PURGE="8" COMMENT="" />
    <EXPORT ORDINAL="3013" NAME="?getAttributeDeclRegistry@SchemaGrammar@@QBEPAV?$RefHashTableOf@VXMLAttDef@@@@XZ" PURGE="0" COMMENT="" />
    <EXPORT ORDINAL="3014" NAME="?getAttributeNS@DOMElementImpl@@UBEPBGPBG0@Z" PURGE="8" COMMENT="" />
    <EXPORT ORDINAL="3015" NAME="?getAttributeNS@DOM_Element@@QBE?AVDOMString@@ABV2@0@Z" PURGE="12" COMMENT="" />
    <EXPORT ORDINAL="3016" NAME="?getAttributeNS@ElementImpl@@UAE?AVDOMString@@ABV2@0@Z" PURGE="12" COMMENT="" />
    <EXPORT ORDINAL="3017" NAME="?getAttributeNode@DOMElementImpl@@UBEPAVDOMAttr@@PBG@Z" PURGE="4" COMMENT="" />
    <EXPORT ORDINAL="3018" NAME="?getAttributeNode@DOM_Element@@QBE?AVDOM_Attr@@ABVDOMString@@@Z" PURGE="8" COMMENT="" />
    <EXPORT ORDINAL="3019" NAME="?getAttributeNode@ElementImpl@@UAEPAVAttrImpl@@ABVDOMString@@@Z" PURGE="4" COMMENT="" />
    <EXPORT ORDINAL="3020" NAME="?getAttributeNodeNS@DOMElementImpl@@UBEPAVDOMAttr@@PBG0@Z" PURGE="8" COMMENT="" />
    <EXPORT ORDINAL="3021" NAME="?getAttributeNodeNS@DOM_Element@@QBE?AVDOM_Attr@@ABVDOMString@@0@Z" PURGE="12" COMMENT="" />
    <EXPORT ORDINAL="3022" NAME="?getAttributeNodeNS@ElementImpl@@UAEPAVAttrImpl@@ABVDOMString@@0@Z" PURGE="8" COMMENT="" />
    <EXPORT ORDINAL="3023" NAME="?getAttributes@DOMAttrImpl@@UBEPAVDOMNamedNodeMap@@XZ" PURGE="0" COMMENT="" />
    <EXPORT ORDINAL="3024" NAME="?getAttributes@DOMCDATASectionImpl@@UBEPAVDOMNamedNodeMap@@XZ" PURGE="0" COMMENT="" />
    <EXPORT ORDINAL="3025" NAME="?getAttributes@DOMCommentImpl@@UBEPAVDOMNamedNodeMap@@XZ" PURGE="0" COMMENT="" />
    <EXPORT ORDINAL="3026" NAME="?getAttributes@DOMDocumentFragmentImpl@@UBEPAVDOMNamedNodeMap@@XZ" PURGE="0" COMMENT="" />
    <EXPORT ORDINAL="3027" NAME="?getAttributes@DOMDocumentImpl@@UBEPAVDOMNamedNodeMap@@XZ" PURGE="0" COMMENT="" />
    <EXPORT ORDINAL="3028" NAME="?getAttributes@DOMDocumentTypeImpl@@UBEPAVDOMNamedNodeMap@@XZ" PURGE="0" COMMENT="" />
    <EXPORT ORDINAL="3029" NAME="?getAttributes@DOMElementImpl@@UBEPAVDOMNamedNodeMap@@XZ" PURGE="0" COMMENT="" />
    <EXPORT ORDINAL="3030" NAME="?getAttributes@DOMEntityImpl@@UBEPAVDOMNamedNodeMap@@XZ" PURGE="0" COMMENT="" />
    <EXPORT ORDINAL="3031" NAME="?getAttributes@DOMEntityReferenceImpl@@UBEPAVDOMNamedNodeMap@@XZ" PURGE="0" COMMENT="" />
    <EXPORT ORDINAL="3032" NAME="?getAttributes@DOMNodeImpl@@QBEPAVDOMNamedNodeMap@@XZ" PURGE="0" COMMENT="" />
    <EXPORT ORDINAL="3033" NAME="?getAttributes@DOMNotationImpl@@UBEPAVDOMNamedNodeMap@@XZ" PURGE="0" COMMENT="" />
    <EXPORT ORDINAL="3034" NAME="?getAttributes@DOMProcessingInstructionImpl@@UBEPAVDOMNamedNodeMap@@XZ" PURGE="0" COMMENT="" />
    <EXPORT ORDINAL="3035" NAME="?getAttributes@DOMTextImpl@@UBEPAVDOMNamedNodeMap@@XZ" PURGE="0" COMMENT="" />
    <EXPORT ORDINAL="3036" NAME="?getAttributes@DOM_Node@@QBE?AVDOM_NamedNodeMap@@XZ" PURGE="4" COMMENT="" />
    <EXPORT ORDINAL="3037" NAME="?getAttributes@ElementDefinitionImpl@@UAEPAVNamedNodeMapImpl@@XZ" PURGE="0" COMMENT="" />
    <EXPORT ORDINAL="3038" NAME="?getAttributes@ElementImpl@@UAEPAVNamedNodeMapImpl@@XZ" PURGE="0" COMMENT="" />
    <EXPORT ORDINAL="3039" NAME="?getAttributes@NodeImpl@@UAEPAVNamedNodeMapImpl@@XZ" PURGE="0" COMMENT="" />
    <EXPORT ORDINAL="3040" NAME="?getAxisType@XercesStep@@QBEGXZ" PURGE="0" COMMENT="" />
    <EXPORT ORDINAL="3041" NAME="?getBaseComplexTypeInfo@ComplexTypeInfo@@QBEPAV1@XZ" PURGE="0" COMMENT="" />
    <EXPORT ORDINAL="3042" NAME="?getBaseDatatypeValidator@ComplexTypeInfo@@QBEPAVDatatypeValidator@@XZ" PURGE="0" COMMENT="" />
    <EXPORT ORDINAL="3043" NAME="?getBaseGroup@XercesGroupInfo@@QBEPAV1@XZ" PURGE="0" COMMENT="" />
    <EXPORT ORDINAL="3044" NAME="?getBaseName@XMLElementDecl@@QAEPAGXZ" PURGE="0" COMMENT="" />
    <EXPORT ORDINAL="3045" NAME="?getBaseName@XMLElementDecl@@QBEPBGXZ" PURGE="0" COMMENT="" />
    <EXPORT ORDINAL="3046" NAME="?getBaseURI@DOMAttrImpl@@UBEPBGXZ" PURGE="0" COMMENT="" />
    <EXPORT ORDINAL="3047" NAME="?getBaseURI@DOMCDATASectionImpl@@UBEPBGXZ" PURGE="0" COMMENT="" />
    <EXPORT ORDINAL="3048" NAME="?getBaseURI@DOMCommentImpl@@UBEPBGXZ" PURGE="0" COMMENT="" />
    <EXPORT ORDINAL="3049" NAME="?getBaseURI@DOMDocumentFragmentImpl@@UBEPBGXZ" PURGE="0" COMMENT="" />
    <EXPORT ORDINAL="3050" NAME="?getBaseURI@DOMDocumentImpl@@UBEPBGXZ" PURGE="0" COMMENT="" />
    <EXPORT ORDINAL="3051" NAME="?getBaseURI@DOMDocumentTypeImpl@@UBEPBGXZ" PURGE="0" COMMENT="" />
    <EXPORT ORDINAL="3052" NAME="?getBaseURI@DOMElementImpl@@UBEPBGXZ" PURGE="0" COMMENT="" />
    <EXPORT ORDINAL="3053" NAME="?getBaseURI@DOMEntityImpl@@UBEPBGXZ" PURGE="0" COMMENT="" />
    <EXPORT ORDINAL="3054" NAME="?getBaseURI@DOMEntityReferenceImpl@@UBEPBGXZ" PURGE="0" COMMENT="" />
    <EXPORT ORDINAL="3055" NAME="?getBaseURI@DOMNodeImpl@@QBEPBGXZ" PURGE="0" COMMENT="" />
    <EXPORT ORDINAL="3056" NAME="?getBaseURI@DOMNotationImpl@@UBEPBGXZ" PURGE="0" COMMENT="" />
    <EXPORT ORDINAL="3057" NAME="?getBaseURI@DOMProcessingInstructionImpl@@UBEPBGXZ" PURGE="0" COMMENT="" />
    <EXPORT ORDINAL="3058" NAME="?getBaseURI@DOMTextImpl@@UBEPBGXZ" PURGE="0" COMMENT="" />
    <EXPORT ORDINAL="3059" NAME="?getBaseURI@Wrapper4InputSource@@UBEPBGXZ" PURGE="0" COMMENT="" />
    <EXPORT ORDINAL="3060" NAME="?getBaseURI@XMLEntityDecl@@QBEPBGXZ" PURGE="0" COMMENT="" />
    <EXPORT ORDINAL="3061" NAME="?getBaseURI@XMLNotationDecl@@QBEPBGXZ" PURGE="0" COMMENT="" />
    <EXPORT ORDINAL="3062" NAME="?getBaseValidator@DatatypeValidator@@QBEPAV1@XZ" PURGE="0" COMMENT="" />
    <EXPORT ORDINAL="3063" NAME="?getBlockSet@ComplexTypeInfo@@QBEHXZ" PURGE="0" COMMENT="" />
    <EXPORT ORDINAL="3064" NAME="?getBlockSet@SchemaElementDecl@@QBEHXZ" PURGE="0" COMMENT="" />
    <EXPORT ORDINAL="3065" NAME="?getBlockSize@XMLTranscoder@@QBEIXZ" PURGE="0" COMMENT="" />
    <EXPORT ORDINAL="3066" NAME="?getBufMgr@XMLValidator@@IAEPAVXMLBufferMgr@@XZ" PURGE="0" COMMENT="" />
    <EXPORT ORDINAL="3067" NAME="?getBufMgr@XMLValidator@@IBEPBVXMLBufferMgr@@XZ" PURGE="0" COMMENT="" />
    <EXPORT ORDINAL="3068" NAME="?getCaseInsensitiveToken@RangeToken@@QAEPAV1@QAVTokenFactory@@@Z" PURGE="4" COMMENT="" />
    <EXPORT ORDINAL="3069" NAME="?getCategories@RangeTokenMap@@IBEPAVXMLStringPool@@XZ" PURGE="0" COMMENT="" />
    <EXPORT ORDINAL="3070" NAME="?getCategoryId@RangeTokenElemMap@@QBEIXZ" PURGE="0" COMMENT="" />
    <EXPORT ORDINAL="3071" NAME="?getChar@CharToken@@UBEHXZ" PURGE="0" COMMENT="" />
    <EXPORT ORDINAL="3072" NAME="?getChar@Token@@UBEHXZ" PURGE="0" COMMENT="" />
    <EXPORT ORDINAL="3073" NAME="?getCharData@RegxParser@@QBEHXZ" PURGE="0" COMMENT="" />
    <EXPORT ORDINAL="3074" NAME="?getCharDataLength@CharacterDataImpl@@UAEIXZ" PURGE="0" COMMENT="" />
    <EXPORT ORDINAL="3075" NAME="?getCharDataOpts@DTDElementDecl@@UBE?AW4CharDataOpts@XMLElementDecl@@XZ" PURGE="0" COMMENT="" />
    <EXPORT ORDINAL="3076" NAME="?getCharDataOpts@SchemaElementDecl@@UBE?AW4CharDataOpts@XMLElementDecl@@XZ" PURGE="0" COMMENT="" />
    <EXPORT ORDINAL="3077" NAME="?getCharType@RegularExpression@@AAEGG@Z" PURGE="4" COMMENT="" />
    <EXPORT ORDINAL="3078" NAME="?getCheckElementConsistency@XercesGroupInfo@@QBE_NXZ" PURGE="0" COMMENT="" />
    <EXPORT ORDINAL="3079" NAME="?getChild@ChildOp@@UBEPBVOp@@XZ" PURGE="0" COMMENT="" />
    <EXPORT ORDINAL="3080" NAME="?getChild@ClosureToken@@UBEPAVToken@@H@Z" PURGE="4" COMMENT="" />
    <EXPORT ORDINAL="3081" NAME="?getChild@ConcatToken@@UBEPAVToken@@H@Z" PURGE="4" COMMENT="" />
    <EXPORT ORDINAL="3082" NAME="?getChild@ConditionToken@@UBEPAVToken@@H@Z" PURGE="4" COMMENT="" />
    <EXPORT ORDINAL="3083" NAME="?getChild@ModifierToken@@UBEPAVToken@@H@Z" PURGE="4" COMMENT="" />
    <EXPORT ORDINAL="3084" NAME="?getChild@Op@@UBEPBV1@XZ" PURGE="8" COMMENT="" />
    <EXPORT ORDINAL="3085" NAME="?getChild@ParenToken@@UBEPAVToken@@H@Z" PURGE="4" COMMENT="" />
    <EXPORT ORDINAL="3086" NAME="?getChild@Token@@UBEPAV1@H@Z" PURGE="4" COMMENT="" />
    <EXPORT ORDINAL="3087" NAME="?getChild@UnionToken@@UBEPAVToken@@H@Z" PURGE="4" COMMENT="" />
    <EXPORT ORDINAL="3088" NAME="?getChildNodes@AttrImpl@@UAEPAVNodeListImpl@@XZ" PURGE="0" COMMENT="" />
    <EXPORT ORDINAL="3089" NAME="?getChildNodes@DOMAttrImpl@@UBEPAVDOMNodeList@@XZ" PURGE="0" COMMENT="" />
    <EXPORT ORDINAL="3090" NAME="?getChildNodes@DOMCDATASectionImpl@@UBEPAVDOMNodeList@@XZ" PURGE="0" COMMENT="" />
    <EXPORT ORDINAL="3091" NAME="?getChildNodes@DOMCommentImpl@@UBEPAVDOMNodeList@@XZ" PURGE="0" COMMENT="" />
    <EXPORT ORDINAL="3092" NAME="?getChildNodes@DOMDocumentFragmentImpl@@UBEPAVDOMNodeList@@XZ" PURGE="0" COMMENT="" />
    <EXPORT ORDINAL="3093" NAME="?getChildNodes@DOMDocumentImpl@@UBEPAVDOMNodeList@@XZ" PURGE="0" COMMENT="" />
    <EXPORT ORDINAL="3094" NAME="?getChildNodes@DOMDocumentTypeImpl@@UBEPAVDOMNodeList@@XZ" PURGE="0" COMMENT="" />
    <EXPORT ORDINAL="3095" NAME="?getChildNodes@DOMElementImpl@@UBEPAVDOMNodeList@@XZ" PURGE="0" COMMENT="" />
    <EXPORT ORDINAL="3096" NAME="?getChildNodes@DOMEntityImpl@@UBEPAVDOMNodeList@@XZ" PURGE="0" COMMENT="" />
    <EXPORT ORDINAL="3097" NAME="?getChildNodes@DOMEntityReferenceImpl@@UBEPAVDOMNodeList@@XZ" PURGE="0" COMMENT="" />
    <EXPORT ORDINAL="3098" NAME="?getChildNodes@DOMNodeImpl@@QBEPAVDOMNodeList@@XZ" PURGE="0" COMMENT="" />
    <EXPORT ORDINAL="3099" NAME="?getChildNodes@DOMNotationImpl@@UBEPAVDOMNodeList@@XZ" PURGE="0" COMMENT="" />
    <EXPORT ORDINAL="3100" NAME="?getChildNodes@DOMParentNode@@QBEPAVDOMNodeList@@XZ" PURGE="0" COMMENT="" />
    <EXPORT ORDINAL="3101" NAME="?getChildNodes@DOMProcessingInstructionImpl@@UBEPAVDOMNodeList@@XZ" PURGE="0" COMMENT="" />
    <EXPORT ORDINAL="3102" NAME="?getChildNodes@DOMTextImpl@@UBEPAVDOMNodeList@@XZ" PURGE="0" COMMENT="" />
    <EXPORT ORDINAL="3103" NAME="?getChildNodes@DOM_Entity@@QBE?AVDOM_NodeList@@XZ" PURGE="4" COMMENT="" />
    <EXPORT ORDINAL="3104" NAME="?getChildNodes@DOM_Node@@QBE?AVDOM_NodeList@@XZ" PURGE="4" COMMENT="" />
    <EXPORT ORDINAL="3105" NAME="?getChildNodes@EntityImpl@@UAEPAVNodeListImpl@@XZ" PURGE="0" COMMENT="" />
    <EXPORT ORDINAL="3106" NAME="?getChildNodes@NodeImpl@@UAEPAVNodeListImpl@@XZ" PURGE="0" COMMENT="" />
    <EXPORT ORDINAL="3107" NAME="?getChildNodes@ParentNode@@UAEPAVNodeListImpl@@XZ" PURGE="0" COMMENT="" />
    <EXPORT ORDINAL="3108" NAME="?getCode@XMLException@@QBE?AW4Codes@XMLExcepts@@XZ" PURGE="0" COMMENT="" />
    <EXPORT ORDINAL="3109" NAME="?getCollapsed@DOMRangeImpl@@UBE_NXZ" PURGE="0" COMMENT="" />
    <EXPORT ORDINAL="3110" NAME="?getCollapsed@DOM_Range@@QBE_NXZ" PURGE="0" COMMENT="" />
    <EXPORT ORDINAL="3111" NAME="?getCollapsed@RangeImpl@@QBE_NXZ" PURGE="0" COMMENT="" />
    <EXPORT ORDINAL="3112" NAME="?getColumnNo@XSDElementNSImpl@@QBEJXZ" PURGE="0" COMMENT="" />
    <EXPORT ORDINAL="3113" NAME="?getColumnNumber@DOMLocatorImpl@@UBEJXZ" PURGE="0" COMMENT="" />
    <EXPORT ORDINAL="3114" NAME="?getColumnNumber@ReaderMgr@@UBEJXZ" PURGE="0" COMMENT="" />
    <EXPORT ORDINAL="3115" NAME="?getColumnNumber@SAXParseException@@QBEJXZ" PURGE="0" COMMENT="" />
    <EXPORT ORDINAL="3116" NAME="?getColumnNumber@XMLReader@@QBEJXZ" PURGE="0" COMMENT="" />
    <EXPORT ORDINAL="3117" NAME="?getColumnNumber@XSDLocator@@UBEJXZ" PURGE="0" COMMENT="" />
    <EXPORT ORDINAL="3118" NAME="?getCombiningCharacterSequence@TokenFactory@@QAEPAVToken@@XZ" PURGE="0" COMMENT="" />
    <EXPORT ORDINAL="3119" NAME="?getCommonAncestorContainer@DOMRangeImpl@@UBEPBVDOMNode@@XZ" PURGE="0" COMMENT="" />
    <EXPORT ORDINAL="3120" NAME="?getCommonAncestorContainer@DOM_Range@@QBE?BVDOM_Node@@XZ" PURGE="4" COMMENT="" />
    <EXPORT ORDINAL="3121" NAME="?getCommonAncestorContainer@RangeImpl@@QBE?BVDOM_Node@@XZ" PURGE="4" COMMENT="" />
    <EXPORT ORDINAL="3122" NAME="?getCompleteWildCard@XercesAttGroupInfo@@QBEPAVSchemaAttDef@@XZ" PURGE="0" COMMENT="" />
    <EXPORT ORDINAL="3123" NAME="?getComplexTypeInfo@SchemaElementDecl@@QBEPAVComplexTypeInfo@@XZ" PURGE="0" COMMENT="" />
    <EXPORT ORDINAL="3124" NAME="?getComplexTypeRegistry@SchemaGrammar@@QBEPAV?$RefHashTableOf@VComplexTypeInfo@@@@XZ" PURGE="0" COMMENT="" />
    <EXPORT ORDINAL="3125" NAME="?getConditionFlow@ConditionOp@@UBEPBVOp@@XZ" PURGE="0" COMMENT="" />
    <EXPORT ORDINAL="3126" NAME="?getConditionFlow@Op@@UBEPBV1@XZ" PURGE="8" COMMENT="" />
    <EXPORT ORDINAL="3127" NAME="?getConditionToken@ConditionToken@@QBEPAVToken@@XZ" PURGE="0" COMMENT="" />
    <EXPORT ORDINAL="3128" NAME="?getContent@ListDatatypeValidator@@ABEQBGXZ" PURGE="0" COMMENT="" />
    <EXPORT ORDINAL="3129" NAME="?getContentHandler@SAX2XMLReaderImpl@@UBEPAVContentHandler@@XZ" PURGE="0" COMMENT="" />
    <EXPORT ORDINAL="3130" NAME="?getContentModel@ComplexTypeInfo@@QAEPAVXMLContentModel@@_N@Z" PURGE="4" COMMENT="" />
    <EXPORT ORDINAL="3131" NAME="?getContentModel@DTDElementDecl@@UAEPAVXMLContentModel@@XZ" PURGE="0" COMMENT="" />
    <EXPORT ORDINAL="3132" NAME="?getContentModel@SchemaElementDecl@@UAEPAVXMLContentModel@@XZ" PURGE="0" COMMENT="" />
    <EXPORT ORDINAL="3133" NAME="?getContentSpec@ComplexTypeInfo@@QBEPAVContentSpecNode@@XZ" PURGE="0" COMMENT="" />
    <EXPORT ORDINAL="3134" NAME="?getContentSpec@DTDElementDecl@@UAEPAVContentSpecNode@@XZ" PURGE="0" COMMENT="" />
    <EXPORT ORDINAL="3135" NAME="?getContentSpec@DTDElementDecl@@UBEPBVContentSpecNode@@XZ" PURGE="0" COMMENT="" />
    <EXPORT ORDINAL="3136" NAME="?getContentSpec@SchemaElementDecl@@UAEPAVContentSpecNode@@XZ" PURGE="0" COMMENT="" />
    <EXPORT ORDINAL="3137" NAME="?getContentSpec@SchemaElementDecl@@UBEPBVContentSpecNode@@XZ" PURGE="0" COMMENT="" />
    <EXPORT ORDINAL="3138" NAME="?getContentSpec@XercesGroupInfo@@QBEPAVContentSpecNode@@XZ" PURGE="0" COMMENT="" />
    <EXPORT ORDINAL="3139" NAME="?getContentType@ComplexTypeInfo@@QBEHXZ" PURGE="0" COMMENT="" />
    <EXPORT ORDINAL="3140" NAME="?getCreateCommentNodes@AbstractDOMParser@@QBE_NXZ" PURGE="0" COMMENT="" />
    <EXPORT ORDINAL="3141" NAME="?getCreateEntityReferenceNodes@AbstractDOMParser@@QBE_NXZ" PURGE="0" COMMENT="" />
    <EXPORT ORDINAL="3142" NAME="?getCreateEntityReferenceNodes@DOMParser@@QBE_NXZ" PURGE="0" COMMENT="" />
    <EXPORT ORDINAL="3143" NAME="?getCreateReason@XMLAttDef@@QBE?AW4CreateReasons@1@XZ" PURGE="0" COMMENT="" />
    <EXPORT ORDINAL="3144" NAME="?getCreateReason@XMLElementDecl@@QBE?AW4CreateReasons@1@XZ" PURGE="0" COMMENT="" />
    <EXPORT ORDINAL="3145" NAME="?getCurrentEncodingStr@ReaderMgr@@QBEPBGXZ" PURGE="0" COMMENT="" />
    <EXPORT ORDINAL="3146" NAME="?getCurrentEntity@ReaderMgr@@QAEPAVXMLEntityDecl@@XZ" PURGE="0" COMMENT="" />
    <EXPORT ORDINAL="3147" NAME="?getCurrentEntity@ReaderMgr@@QBEPBVXMLEntityDecl@@XZ" PURGE="0" COMMENT="" />
    <EXPORT ORDINAL="3148" NAME="?getCurrentGrammar@ElemStack@@QAEPAVGrammar@@XZ" PURGE="0" COMMENT="" />
    <EXPORT ORDINAL="3149" NAME="?getCurrentMillis@XMLPlatformUtils@@SAKXZ" PURGE="-1" COMMENT="" />
    <EXPORT ORDINAL="3150" NAME="?getCurrentNode@AbstractDOMParser@@IAEPAVDOMNode@@XZ" PURGE="0" COMMENT="" />
    <EXPORT ORDINAL="3151" NAME="?getCurrentNode@DOMParser@@IAE?AVDOM_Node@@XZ" PURGE="4" COMMENT="" />
    <EXPORT ORDINAL="3152" NAME="?getCurrentNode@DOMTreeWalkerImpl@@UAEPAVDOMNode@@XZ" PURGE="0" COMMENT="" />
    <EXPORT ORDINAL="3153" NAME="?getCurrentNode@DOM_TreeWalker@@QAE?AVDOM_Node@@XZ" PURGE="4" COMMENT="" />
    <EXPORT ORDINAL="3154" NAME="?getCurrentNode@TreeWalkerImpl@@QAE?AVDOM_Node@@XZ" PURGE="4" COMMENT="" />
    <EXPORT ORDINAL="3155" NAME="?getCurrentReader@ReaderMgr@@QAEPAVXMLReader@@XZ" PURGE="0" COMMENT="" />
    <EXPORT ORDINAL="3156" NAME="?getCurrentReader@ReaderMgr@@QBEPBVXMLReader@@XZ" PURGE="0" COMMENT="" />
    <EXPORT ORDINAL="3157" NAME="?getCurrentReaderNum@ReaderMgr@@QBEIXZ" PURGE="0" COMMENT="" />
    <EXPORT ORDINAL="3158" NAME="?getCurrentScope@ElemStack@@QAEHXZ" PURGE="0" COMMENT="" />
    <EXPORT ORDINAL="3159" NAME="?getCurrentURI@ElemStack@@QAEIXZ" PURGE="0" COMMENT="" />
    <EXPORT ORDINAL="3160" NAME="?getDOMImplementation@DOMImplementationRegistry@@SAPAVDOMImplementation@@PBG@Z" PURGE="0" COMMENT="" />
    <EXPORT ORDINAL="3161" NAME="?getDTDHandler@SAX2XMLReaderImpl@@UBEPAVDTDHandler@@XZ" PURGE="0" COMMENT="" />
    <EXPORT ORDINAL="3162" NAME="?getData2@ModifierOp@@UBEHXZ" PURGE="0" COMMENT="" />
    <EXPORT ORDINAL="3163" NAME="?getData2@Op@@UBEHXZ" PURGE="8" COMMENT="" />
    <EXPORT ORDINAL="3164" NAME="?getData@CharOp@@UBEHXZ" PURGE="0" COMMENT="" />
    <EXPORT ORDINAL="3165" NAME="?getData@CharacterDataImpl@@UAEAAVDOMString@@XZ" PURGE="0" COMMENT="" />
    <EXPORT ORDINAL="3166" NAME="?getData@DOMCDATASectionImpl@@UBEPBGXZ" PURGE="0" COMMENT="" />
    <EXPORT ORDINAL="3167" NAME="?getData@DOMCharacterDataImpl@@QBEPBGXZ" PURGE="0" COMMENT="" />
    <EXPORT ORDINAL="3168" NAME="?getData@DOMCommentImpl@@UBEPBGXZ" PURGE="0" COMMENT="" />
    <EXPORT ORDINAL="3169" NAME="?getData@DOMProcessingInstructionImpl@@UBEPBGXZ" PURGE="0" COMMENT="" />
    <EXPORT ORDINAL="3170" NAME="?getData@DOMTextImpl@@UBEPBGXZ" PURGE="0" COMMENT="" />
    <EXPORT ORDINAL="3171" NAME="?getData@DOM_CharacterData@@QBE?AVDOMString@@XZ" PURGE="4" COMMENT="" />
    <EXPORT ORDINAL="3172" NAME="?getData@DOM_ProcessingInstruction@@QBE?AVDOMString@@XZ" PURGE="4" COMMENT="" />
    <EXPORT ORDINAL="3173" NAME="?getData@ModifierOp@@UBEHXZ" PURGE="0" COMMENT="" />
    <EXPORT ORDINAL="3174" NAME="?getData@Op@@UBEHXZ" PURGE="8" COMMENT="" />
    <EXPORT ORDINAL="3175" NAME="?getData@ProcessingInstructionImpl@@UAE?AVDOMString@@XZ" PURGE="4" COMMENT="" />
    <EXPORT ORDINAL="3176" NAME="?getDataLength@Base64@@SAHQBG@Z" PURGE="0" COMMENT="" />
    <EXPORT ORDINAL="3177" NAME="?getDataLength@HexBin@@SAHQBG@Z" PURGE="0" COMMENT="" />
    <EXPORT ORDINAL="3178" NAME="?getDatatypeRegistry@SchemaGrammar@@QAEPAVDatatypeValidatorFactory@@XZ" PURGE="0" COMMENT="" />
    <EXPORT ORDINAL="3179" NAME="?getDatatypeValidator@ComplexTypeInfo@@QBEPAVDatatypeValidator@@XZ" PURGE="0" COMMENT="" />
    <EXPORT ORDINAL="3180" NAME="?getDatatypeValidator@DatatypeValidatorFactory@@QBEPAVDatatypeValidator@@QBG@Z" PURGE="4" COMMENT="" />
    <EXPORT ORDINAL="3181" NAME="?getDatatypeValidator@SchemaAttDef@@QBEPAVDatatypeValidator@@XZ" PURGE="0" COMMENT="" />
    <EXPORT ORDINAL="3182" NAME="?getDatatypeValidator@SchemaElementDecl@@QBEPAVDatatypeValidator@@XZ" PURGE="0" COMMENT="" />
    <EXPORT ORDINAL="3183" NAME="?getDatatypeValidator@TraverseSchema@@AAEPAVDatatypeValidator@@QBG0@Z" PURGE="8" COMMENT="" />
    <EXPORT ORDINAL="3184" NAME="?getDatatypeValidatorAt@FieldValueMap@@QBEPAVDatatypeValidator@@I@Z" PURGE="4" COMMENT="" />
    <EXPORT ORDINAL="3185" NAME="?getDatatypeValidatorFor@FieldValueMap@@QBEPAVDatatypeValidator@@QBVIC_Field@@@Z" PURGE="4" COMMENT="" />
    <EXPORT ORDINAL="3186" NAME="?getDate@XMLDateTime@@AAEXXZ" PURGE="0" COMMENT="" />
    <EXPORT ORDINAL="3187" NAME="?getDeclarationHandler@SAX2XMLReaderImpl@@UBEPAVDeclHandler@@XZ" PURGE="0" COMMENT="" />
    <EXPORT ORDINAL="3188" NAME="?getDeclared@XMLRefInfo@@QBE_NXZ" PURGE="0" COMMENT="" />
    <EXPORT ORDINAL="3189" NAME="?getDeclaredInIntSubset@DTDEntityDecl@@UBE_NXZ" PURGE="0" COMMENT="" />
    <EXPORT ORDINAL="3190" NAME="?getDeepNodeList@DOMDocumentImpl@@QAEPAVDOMNodeList@@PBVDOMNode@@PBG1@Z" PURGE="12" COMMENT="" />
    <EXPORT ORDINAL="3191" NAME="?getDeepNodeList@DOMDocumentImpl@@QAEPAVDOMNodeList@@PBVDOMNode@@PBG@Z" PURGE="8" COMMENT="" />
    <EXPORT ORDINAL="3192" NAME="?getDefAttTypeString@XMLAttDef@@SAPBGW4DefAttTypes@1@@Z" PURGE="0" COMMENT="" />
    <EXPORT ORDINAL="3193" NAME="?getDefaultAttributes@DOMElementImpl@@UBEPAVDOMAttrMapImpl@@XZ" PURGE="0" COMMENT="" />
    <EXPORT ORDINAL="3194" NAME="?getDefaultAttributes@ElementImpl@@UAEPAVAttrMapImpl@@XZ" PURGE="0" COMMENT="" />
    <EXPORT ORDINAL="3195" NAME="?getDefaultType@XMLAttDef@@QBE?AW4DefAttTypes@1@XZ" PURGE="0" COMMENT="" />
    <EXPORT ORDINAL="3196" NAME="?getDefaultValue@SchemaElementDecl@@QBEPAGXZ" PURGE="0" COMMENT="" />
    <EXPORT ORDINAL="3197" NAME="?getDerivedBy@ComplexTypeInfo@@QBEHXZ" PURGE="0" COMMENT="" />
    <EXPORT ORDINAL="3198" NAME="?getDoNamespaces@AbstractDOMParser@@QBE_NXZ" PURGE="0" COMMENT="" />
    <EXPORT ORDINAL="3199" NAME="?getDoNamespaces@DOMParser@@QBE_NXZ" PURGE="0" COMMENT="" />
    <EXPORT ORDINAL="3200" NAME="?getDoNamespaces@SAX2XMLReaderImpl@@ABE_NXZ" PURGE="0" COMMENT="" />
    <EXPORT ORDINAL="3201" NAME="?getDoNamespaces@SAXParser@@QBE_NXZ" PURGE="0" COMMENT="" />
    <EXPORT ORDINAL="3202" NAME="?getDoNamespaces@XMLScanner@@QBE_NXZ" PURGE="0" COMMENT="" />
    <EXPORT ORDINAL="3203" NAME="?getDoSchema@AbstractDOMParser@@QBE_NXZ" PURGE="0" COMMENT="" />
    <EXPORT ORDINAL="3204" NAME="?getDoSchema@DOMParser@@QBE_NXZ" PURGE="0" COMMENT="" />
    <EXPORT ORDINAL="3205" NAME="?getDoSchema@SAX2XMLReaderImpl@@ABE_NXZ" PURGE="0" COMMENT="" />
    <EXPORT ORDINAL="3206" NAME="?getDoSchema@SAXParser@@QBE_NXZ" PURGE="0" COMMENT="" />
    <EXPORT ORDINAL="3207" NAME="?getDoSchema@XMLScanner@@QBE_NXZ" PURGE="0" COMMENT="" />
    <EXPORT ORDINAL="3208" NAME="?getDoValidation@AbstractDOMParser@@QBE_NXZ" PURGE="0" COMMENT="" />
    <EXPORT ORDINAL="3209" NAME="?getDoValidation@DOMParser@@QBE_NXZ" PURGE="0" COMMENT="" />
    <EXPORT ORDINAL="3210" NAME="?getDoValidation@SAXParser@@QBE_NXZ" PURGE="0" COMMENT="" />
    <EXPORT ORDINAL="3211" NAME="?getDoValidation@XMLScanner@@QBE_NXZ" PURGE="0" COMMENT="" />
    <EXPORT ORDINAL="3212" NAME="?getDocHandler@XMLScanner@@QAEPAVXMLDocumentHandler@@XZ" PURGE="0" COMMENT="" />
    <EXPORT ORDINAL="3213" NAME="?getDocHandler@XMLScanner@@QBEPBVXMLDocumentHandler@@XZ" PURGE="0" COMMENT="" />
    <EXPORT ORDINAL="3214" NAME="?getDocTypeHandler@DTDScanner@@QAEPAVDocTypeHandler@@XZ" PURGE="0" COMMENT="" />
    <EXPORT ORDINAL="3215" NAME="?getDocTypeHandler@DTDScanner@@QBEPBVDocTypeHandler@@XZ" PURGE="0" COMMENT="" />
    <EXPORT ORDINAL="3216" NAME="?getDocTypeHandler@XMLScanner@@QAEPAVDocTypeHandler@@XZ" PURGE="0" COMMENT="" />
    <EXPORT ORDINAL="3217" NAME="?getDocTypeHandler@XMLScanner@@QBEPBVDocTypeHandler@@XZ" PURGE="0" COMMENT="" />
    <EXPORT ORDINAL="3218" NAME="?getDoctype@DOMDocumentImpl@@UBEPAVDOMDocumentType@@XZ" PURGE="0" COMMENT="" />
    <EXPORT ORDINAL="3219" NAME="?getDoctype@DOM_Document@@QBE?AVDOM_DocumentType@@XZ" PURGE="4" COMMENT="" />
    <EXPORT ORDINAL="3220" NAME="?getDoctype@DocumentImpl@@UAEPAVDocumentTypeImpl@@XZ" PURGE="0" COMMENT="" />
    <EXPORT ORDINAL="3221" NAME="?getDocument@AbstractDOMParser@@QAEPAVDOMDocument@@XZ" PURGE="0" COMMENT="" />
    <EXPORT ORDINAL="3222" NAME="?getDocument@DOMParentNode@@QBEPAVDOMDocument@@XZ" PURGE="0" COMMENT="" />
    <EXPORT ORDINAL="3223" NAME="?getDocument@DOMParser@@QAE?AVDOM_Document@@XZ" PURGE="4" COMMENT="" />
    <EXPORT ORDINAL="3224" NAME="?getDocument@DOMRangeImpl@@QAEPAVDOMDocument@@XZ" PURGE="0" COMMENT="" />
    <EXPORT ORDINAL="3225" NAME="?getDocument@NodeImpl@@UAEPAVDocumentImpl@@XZ" PURGE="0" COMMENT="" />
    <EXPORT ORDINAL="3226" NAME="?getDocument@ParentNode@@UAEPAVDocumentImpl@@XZ" PURGE="0" COMMENT="" />
    <EXPORT ORDINAL="3227" NAME="?getDocument@RangeImpl@@QAE?AVDOM_Document@@XZ" PURGE="4" COMMENT="" />
    <EXPORT ORDINAL="3228" NAME="?getDocumentElement@DOMDocumentImpl@@UBEPAVDOMElement@@XZ" PURGE="0" COMMENT="" />
    <EXPORT ORDINAL="3229" NAME="?getDocumentElement@DOM_Document@@QBE?AVDOM_Element@@XZ" PURGE="4" COMMENT="" />
    <EXPORT ORDINAL="3230" NAME="?getDocumentElement@DocumentImpl@@UAEPAVElementImpl@@XZ" PURGE="0" COMMENT="" />
    <EXPORT ORDINAL="3231" NAME="?getDocumentHandler@SAXParser@@QAEPAVDocumentHandler@@XZ" PURGE="0" COMMENT="" />
    <EXPORT ORDINAL="3232" NAME="?getDocumentHandler@SAXParser@@QBEPBVDocumentHandler@@XZ" PURGE="0" COMMENT="" />
    <EXPORT ORDINAL="3233" NAME="?getDocumentURI@DOMDocumentImpl@@UBEPBGXZ" PURGE="0" COMMENT="" />
    <EXPORT ORDINAL="3234" NAME="?getDot@TokenFactory@@QAEPAVToken@@XZ" PURGE="0" COMMENT="" />
    <EXPORT ORDINAL="3235" NAME="?getElemDecl@DTDGrammar@@UAEPAVXMLElementDecl@@I@Z" PURGE="4" COMMENT="" />
    <EXPORT ORDINAL="3236" NAME="?getElemDecl@DTDGrammar@@UAEPAVXMLElementDecl@@IQBG0I@Z" PURGE="16" COMMENT="" />
    <EXPORT ORDINAL="3237" NAME="?getElemDecl@DTDGrammar@@UBEPBVXMLElementDecl@@I@Z" PURGE="4" COMMENT="" />
    <EXPORT ORDINAL="3238" NAME="?getElemDecl@DTDGrammar@@UBEPBVXMLElementDecl@@IQBG0I@Z" PURGE="16" COMMENT="" />
    <EXPORT ORDINAL="3239" NAME="?getElemDecl@SchemaGrammar@@UAEPAVXMLElementDecl@@I@Z" PURGE="4" COMMENT="" />
    <EXPORT ORDINAL="3240" NAME="?getElemDecl@SchemaGrammar@@UAEPAVXMLElementDecl@@IQBG0I@Z" PURGE="16" COMMENT="" />
    <EXPORT ORDINAL="3241" NAME="?getElemDecl@SchemaGrammar@@UBEPBVXMLElementDecl@@I@Z" PURGE="4" COMMENT="" />
    <EXPORT ORDINAL="3242" NAME="?getElemDecl@SchemaGrammar@@UBEPBVXMLElementDecl@@IQBG0I@Z" PURGE="16" COMMENT="" />
    <EXPORT ORDINAL="3243" NAME="?getElemEnumerator@DTDGrammar@@QBE?AV?$NameIdPoolEnumerator@VDTDElementDecl@@@@XZ" PURGE="4" COMMENT="" />
    <EXPORT ORDINAL="3244" NAME="?getElemEnumerator@SchemaGrammar@@QBE?AV?$RefHash3KeysIdPoolEnumerator@VSchemaElementDecl@@@@XZ" PURGE="4" COMMENT="" />
    <EXPORT ORDINAL="3245" NAME="?getElemId@DTDAttDef@@QBEIXZ" PURGE="0" COMMENT="" />
    <EXPORT ORDINAL="3246" NAME="?getElemId@DTDGrammar@@UBEIIQBG0I@Z" PURGE="16" COMMENT="" />
    <EXPORT ORDINAL="3247" NAME="?getElemId@SchemaAttDef@@QBEIXZ" PURGE="0" COMMENT="" />
    <EXPORT ORDINAL="3248" NAME="?getElemId@SchemaGrammar@@UBEIIQBG0I@Z" PURGE="16" COMMENT="" />
    <EXPORT ORDINAL="3249" NAME="?getElementAncestor@DOMNodeImpl@@QBEPAVDOMNode@@PBV2@@Z" PURGE="4" COMMENT="" />
    <EXPORT ORDINAL="3250" NAME="?getElementAttValue@TraverseSchema@@AAEPBGQBVDOMElement@@QBG_N@Z" PURGE="12" COMMENT="" />
    <EXPORT ORDINAL="3251" NAME="?getElementById@DOMDocumentImpl@@UBEPAVDOMElement@@PBG@Z" PURGE="4" COMMENT="" />
    <EXPORT ORDINAL="3252" NAME="?getElementById@DOM_Document@@QAE?AVDOM_Element@@ABVDOMString@@@Z" PURGE="8" COMMENT="" />
    <EXPORT ORDINAL="3253" NAME="?getElementById@DocumentImpl@@UAEPAVElementImpl@@ABVDOMString@@@Z" PURGE="4" COMMENT="" />
    <EXPORT ORDINAL="3254" NAME="?getElementComplexTypeInfo@TraverseSchema@@AAEPAVComplexTypeInfo@@QBVDOMElement@@QBGAA_N1@Z" PURGE="16" COMMENT="" />
    <EXPORT ORDINAL="3255" NAME="?getElementId@ComplexTypeInfo@@QBEIXZ" PURGE="0" COMMENT="" />
    <EXPORT ORDINAL="3256" NAME="?getElementName@IdentityConstraint@@QBEPAGXZ" PURGE="0" COMMENT="" />
    <EXPORT ORDINAL="3257" NAME="?getElementName@XMLElementDecl@@QAEPAVQName@@XZ" PURGE="0" COMMENT="" />
    <EXPORT ORDINAL="3258" NAME="?getElementName@XMLElementDecl@@QBEPBVQName@@XZ" PURGE="0" COMMENT="" />
    <EXPORT ORDINAL="3259" NAME="?getElementTypeValidator@TraverseSchema@@AAEPAVDatatypeValidator@@QBVDOMElement@@QBGAA_N1@Z" PURGE="16" COMMENT="" />
    <EXPORT ORDINAL="3260" NAME="?getElements@DOMDocumentTypeImpl@@UBEPAVDOMNamedNodeMap@@XZ" PURGE="0" COMMENT="" />
    <EXPORT ORDINAL="3261" NAME="?getElements@DocumentTypeImpl@@UAEPAVNamedNodeMapImpl@@XZ" PURGE="0" COMMENT="" />
    <EXPORT ORDINAL="3262" NAME="?getElementsByTagName@DOMDocumentImpl@@UBEPAVDOMNodeList@@PBG@Z" PURGE="4" COMMENT="" />
    <EXPORT ORDINAL="3263" NAME="?getElementsByTagName@DOMElementImpl@@UBEPAVDOMNodeList@@PBG@Z" PURGE="4" COMMENT="" />
    <EXPORT ORDINAL="3264" NAME="?getElementsByTagName@DOM_Document@@QBE?AVDOM_NodeList@@ABVDOMString@@@Z" PURGE="8" COMMENT="" />
    <EXPORT ORDINAL="3265" NAME="?getElementsByTagName@DOM_Element@@QBE?AVDOM_NodeList@@ABVDOMString@@@Z" PURGE="8" COMMENT="" />
    <EXPORT ORDINAL="3266" NAME="?getElementsByTagName@DocumentImpl@@UAEPAVDeepNodeListImpl@@ABVDOMString@@@Z" PURGE="4" COMMENT="" />
    <EXPORT ORDINAL="3267" NAME="?getElementsByTagName@ElementImpl@@UAEPAVDeepNodeListImpl@@ABVDOMString@@@Z" PURGE="4" COMMENT="" />
    <EXPORT ORDINAL="3268" NAME="?getElementsByTagNameNS@DOMDocumentImpl@@UBEPAVDOMNodeList@@PBG0@Z" PURGE="8" COMMENT="" />
    <EXPORT ORDINAL="3269" NAME="?getElementsByTagNameNS@DOMElementImpl@@UBEPAVDOMNodeList@@PBG0@Z" PURGE="8" COMMENT="" />
    <EXPORT ORDINAL="3270" NAME="?getElementsByTagNameNS@DOM_Document@@QBE?AVDOM_NodeList@@ABVDOMString@@0@Z" PURGE="12" COMMENT="" />
    <EXPORT ORDINAL="3271" NAME="?getElementsByTagNameNS@DOM_Element@@QBE?AVDOM_NodeList@@ABVDOMString@@0@Z" PURGE="12" COMMENT="" />
    <EXPORT ORDINAL="3272" NAME="?getElementsByTagNameNS@DocumentImpl@@UAEPAVDeepNodeListImpl@@ABVDOMString@@0@Z" PURGE="8" COMMENT="" />
    <EXPORT ORDINAL="3273" NAME="?getElementsByTagNameNS@ElementImpl@@UAEPAVDeepNodeListImpl@@ABVDOMString@@0@Z" PURGE="8" COMMENT="" />
    <EXPORT ORDINAL="3274" NAME="?getEmptyNamespaceId@XMLScanner@@QBEIXZ" PURGE="0" COMMENT="" />
    <EXPORT ORDINAL="3275" NAME="?getEnclosingScope@SchemaElementDecl@@QBEHXZ" PURGE="0" COMMENT="" />
    <EXPORT ORDINAL="3276" NAME="?getEncoding@DOMDocumentImpl@@UBEPBGXZ" PURGE="0" COMMENT="" />
    <EXPORT ORDINAL="3277" NAME="?getEncoding@DOMEntityImpl@@UBEPBGXZ" PURGE="0" COMMENT="" />
    <EXPORT ORDINAL="3278" NAME="?getEncoding@DOMWriterImpl@@UBEPBGXZ" PURGE="0" COMMENT="" />
    <EXPORT ORDINAL="3279" NAME="?getEncoding@DOM_XMLDecl@@QBE?AVDOMString@@XZ" PURGE="4" COMMENT="" />
    <EXPORT ORDINAL="3280" NAME="?getEncoding@InputSource@@QBEPBGXZ" PURGE="0" COMMENT="" />
    <EXPORT ORDINAL="3281" NAME="?getEncoding@Wrapper4DOMInputSource@@QBEPBGXZ" PURGE="-1" COMMENT="" />
    <EXPORT ORDINAL="3282" NAME="?getEncoding@Wrapper4InputSource@@UBEPBGXZ" PURGE="0" COMMENT="" />
    <EXPORT ORDINAL="3283" NAME="?getEncoding@XMLDeclImpl@@UBE?AVDOMString@@XZ" PURGE="4" COMMENT="" />
    <EXPORT ORDINAL="3284" NAME="?getEncodingName@XMLFormatter@@QBEPBGXZ" PURGE="0" COMMENT="" />
    <EXPORT ORDINAL="3285" NAME="?getEncodingName@XMLTranscoder@@QBEPBGXZ" PURGE="0" COMMENT="" />
    <EXPORT ORDINAL="3286" NAME="?getEncodingStr@XMLReader@@QBEPBGXZ" PURGE="0" COMMENT="" />
    <EXPORT ORDINAL="3287" NAME="?getEndContainer@DOMRangeImpl@@UBEPAVDOMNode@@XZ" PURGE="0" COMMENT="" />
    <EXPORT ORDINAL="3288" NAME="?getEndContainer@DOM_Range@@QBE?AVDOM_Node@@XZ" PURGE="4" COMMENT="" />
    <EXPORT ORDINAL="3289" NAME="?getEndContainer@RangeImpl@@QBE?AVDOM_Node@@XZ" PURGE="4" COMMENT="" />
    <EXPORT ORDINAL="3290" NAME="?getEndOffset@DOMRangeImpl@@UBEKXZ" PURGE="0" COMMENT="" />
    <EXPORT ORDINAL="3291" NAME="?getEndOffset@DOM_Range@@QBEIXZ" PURGE="0" COMMENT="" />
    <EXPORT ORDINAL="3292" NAME="?getEndOffset@RangeImpl@@QBEIXZ" PURGE="0" COMMENT="" />
    <EXPORT ORDINAL="3293" NAME="?getEndPos@Match@@QBEHH@Z" PURGE="4" COMMENT="" />
    <EXPORT ORDINAL="3294" NAME="?getEntities@DOMDocumentTypeImpl@@UBEPAVDOMNamedNodeMap@@XZ" PURGE="0" COMMENT="" />
    <EXPORT ORDINAL="3295" NAME="?getEntities@DOM_DocumentType@@QBE?AVDOM_NamedNodeMap@@XZ" PURGE="4" COMMENT="" />
    <EXPORT ORDINAL="3296" NAME="?getEntities@DocumentTypeImpl@@UAEPAVNamedNodeMapImpl@@XZ" PURGE="0" COMMENT="" />
    <EXPORT ORDINAL="3297" NAME="?getEntity@EndOfEntityException@@QAEAAVXMLEntityDecl@@XZ" PURGE="0" COMMENT="" />
    <EXPORT ORDINAL="3298" NAME="?getEntity@EndOfEntityException@@QBEABVXMLEntityDecl@@XZ" PURGE="0" COMMENT="" />
    <EXPORT ORDINAL="3299" NAME="?getEntityDecl@DTDGrammar@@QAEPAVDTDEntityDecl@@QBG@Z" PURGE="4" COMMENT="" />
    <EXPORT ORDINAL="3300" NAME="?getEntityDecl@DTDGrammar@@QBEPBVDTDEntityDecl@@QBG@Z" PURGE="4" COMMENT="" />
    <EXPORT ORDINAL="3301" NAME="?getEntityDeclPool@DTDGrammar@@QAEPAV?$NameIdPool@VDTDEntityDecl@@@@XZ" PURGE="0" COMMENT="" />
    <EXPORT ORDINAL="3302" NAME="?getEntityDeclPool@DTDGrammar@@QBEPBV?$NameIdPool@VDTDEntityDecl@@@@XZ" PURGE="0" COMMENT="" />
    <EXPORT ORDINAL="3303" NAME="?getEntityDeclPool@XMLScanner@@QAEPAV?$NameIdPool@VDTDEntityDecl@@@@XZ" PURGE="0" COMMENT="" />
    <EXPORT ORDINAL="3304" NAME="?getEntityDeclPool@XMLScanner@@QBEPBV?$NameIdPool@VDTDEntityDecl@@@@XZ" PURGE="0" COMMENT="" />
    <EXPORT ORDINAL="3305" NAME="?getEntityEnumerator@DTDGrammar@@QBE?AV?$NameIdPoolEnumerator@VDTDEntityDecl@@@@XZ" PURGE="4" COMMENT="" />
    <EXPORT ORDINAL="3306" NAME="?getEntityHandler@XMLScanner@@QAEPAVXMLEntityHandler@@XZ" PURGE="0" COMMENT="" />
    <EXPORT ORDINAL="3307" NAME="?getEntityHandler@XMLScanner@@QBEPBVXMLEntityHandler@@XZ" PURGE="0" COMMENT="" />
    <EXPORT ORDINAL="3308" NAME="?getEntityRef@DOMEntityImpl@@UBEPAVDOMEntityReference@@XZ" PURGE="0" COMMENT="" />
    <EXPORT ORDINAL="3309" NAME="?getEntityRef@EntityImpl@@UBEPAVEntityReferenceImpl@@XZ" PURGE="0" COMMENT="" />
    <EXPORT ORDINAL="3310" NAME="?getEntityResolver@DOMBuilderImpl@@UAEPAVDOMEntityResolver@@XZ" PURGE="0" COMMENT="" />
    <EXPORT ORDINAL="3311" NAME="?getEntityResolver@DOMBuilderImpl@@UBEPBVDOMEntityResolver@@XZ" PURGE="0" COMMENT="" />
    <EXPORT ORDINAL="3312" NAME="?getEntityResolver@DOMParser@@QAEPAVEntityResolver@@XZ" PURGE="0" COMMENT="" />
    <EXPORT ORDINAL="3313" NAME="?getEntityResolver@DOMParser@@QBEPBVEntityResolver@@XZ" PURGE="0" COMMENT="" />
    <EXPORT ORDINAL="3314" NAME="?getEntityResolver@SAX2XMLReaderImpl@@UBEPAVEntityResolver@@XZ" PURGE="0" COMMENT="" />
    <EXPORT ORDINAL="3315" NAME="?getEntityResolver@SAXParser@@QAEPAVEntityResolver@@XZ" PURGE="0" COMMENT="" />
    <EXPORT ORDINAL="3316" NAME="?getEntityResolver@SAXParser@@QBEPBVEntityResolver@@XZ" PURGE="0" COMMENT="" />
    <EXPORT ORDINAL="3317" NAME="?getEntityResolver@XercesDOMParser@@QAEPAVEntityResolver@@XZ" PURGE="0" COMMENT="" />
    <EXPORT ORDINAL="3318" NAME="?getEntityResolver@XercesDOMParser@@QBEPBVEntityResolver@@XZ" PURGE="0" COMMENT="" />
    <EXPORT ORDINAL="3319" NAME="?getEnumString@AbstractNumericFacetValidator@@UBEPBV?$RefVectorOf@G@@XZ" PURGE="0" COMMENT="" />
    <EXPORT ORDINAL="3320" NAME="?getEnumString@AbstractStringValidator@@UBEPBV?$RefVectorOf@G@@XZ" PURGE="0" COMMENT="" />
    <EXPORT ORDINAL="3321" NAME="?getEnumString@AnySimpleTypeDatatypeValidator@@UBEPBV?$RefVectorOf@G@@XZ" PURGE="0" COMMENT="" />
    <EXPORT ORDINAL="3322" NAME="?getEnumString@BooleanDatatypeValidator@@UBEPBV?$RefVectorOf@G@@XZ" PURGE="0" COMMENT="" />
    <EXPORT ORDINAL="3323" NAME="?getEnumString@UnionDatatypeValidator@@UBEPBV?$RefVectorOf@G@@XZ" PURGE="0" COMMENT="" />
    <EXPORT ORDINAL="3324" NAME="?getEnumeration@AbstractNumericFacetValidator@@IBEPAV?$RefVectorOf@VXMLNumber@@@@XZ" PURGE="0" COMMENT="" />
    <EXPORT ORDINAL="3325" NAME="?getEnumeration@AbstractStringValidator@@IBEPAV?$RefVectorOf@G@@XZ" PURGE="0" COMMENT="" />
    <EXPORT ORDINAL="3326" NAME="?getEnumeration@UnionDatatypeValidator@@ABEPAV?$RefVectorOf@G@@XZ" PURGE="0" COMMENT="" />
    <EXPORT ORDINAL="3327" NAME="?getEnumeration@XMLAttDef@@QBEPBGXZ" PURGE="0" COMMENT="" />
    <EXPORT ORDINAL="3328" NAME="?getErrorChecking@DOMDocumentImpl@@QBE_NXZ" PURGE="0" COMMENT="" />
    <EXPORT ORDINAL="3329" NAME="?getErrorChecking@DOM_Document@@QAE_NXZ" PURGE="0" COMMENT="" />
    <EXPORT ORDINAL="3330" NAME="?getErrorChecking@DocumentImpl@@QAE_NXZ" PURGE="0" COMMENT="" />
    <EXPORT ORDINAL="3331" NAME="?getErrorCount@AbstractDOMParser@@QBEHXZ" PURGE="0" COMMENT="" />
    <EXPORT ORDINAL="3332" NAME="?getErrorCount@DOMParser@@QBEHXZ" PURGE="0" COMMENT="" />
    <EXPORT ORDINAL="3333" NAME="?getErrorCount@SAX2XMLReaderImpl@@UBEHXZ" PURGE="0" COMMENT="" />
    <EXPORT ORDINAL="3334" NAME="?getErrorCount@SAXParser@@QBEHXZ" PURGE="0" COMMENT="" />
    <EXPORT ORDINAL="3335" NAME="?getErrorCount@XMLScanner@@QAEHXZ" PURGE="0" COMMENT="" />
    <EXPORT ORDINAL="3336" NAME="?getErrorHandler@DOMBuilderImpl@@UAEPAVDOMErrorHandler@@XZ" PURGE="0" COMMENT="" />
    <EXPORT ORDINAL="3337" NAME="?getErrorHandler@DOMBuilderImpl@@UBEPBVDOMErrorHandler@@XZ" PURGE="0" COMMENT="" />
    <EXPORT ORDINAL="3338" NAME="?getErrorHandler@DOMDocumentImpl@@UBEPAVDOMErrorHandler@@XZ" PURGE="0" COMMENT="" />
    <EXPORT ORDINAL="3339" NAME="?getErrorHandler@DOMParser@@QAEPAVErrorHandler@@XZ" PURGE="0" COMMENT="" />
    <EXPORT ORDINAL="3340" NAME="?getErrorHandler@DOMParser@@QBEPBVErrorHandler@@XZ" PURGE="0" COMMENT="" />
    <EXPORT ORDINAL="3341" NAME="?getErrorHandler@DOMWriterImpl@@UBEPAVDOMErrorHandler@@XZ" PURGE="0" COMMENT="" />
    <EXPORT ORDINAL="3342" NAME="?getErrorHandler@SAX2XMLReaderImpl@@UBEPAVErrorHandler@@XZ" PURGE="0" COMMENT="" />
    <EXPORT ORDINAL="3343" NAME="?getErrorHandler@SAXParser@@QAEPAVErrorHandler@@XZ" PURGE="0" COMMENT="" />
    <EXPORT ORDINAL="3344" NAME="?getErrorHandler@SAXParser@@QBEPBVErrorHandler@@XZ" PURGE="0" COMMENT="" />
    <EXPORT ORDINAL="3345" NAME="?getErrorHandler@XercesDOMParser@@QAEPAVErrorHandler@@XZ" PURGE="0" COMMENT="" />
    <EXPORT ORDINAL="3346" NAME="?getErrorHandler@XercesDOMParser@@QBEPBVErrorHandler@@XZ" PURGE="0" COMMENT="" />
    <EXPORT ORDINAL="3347" NAME="?getErrorNode@DOMLocatorImpl@@UBEPAVDOMNode@@XZ" PURGE="0" COMMENT="" />
    <EXPORT ORDINAL="3348" NAME="?getErrorReporter@XMLScanner@@QAEPAVXMLErrorReporter@@XZ" PURGE="0" COMMENT="" />
    <EXPORT ORDINAL="3349" NAME="?getErrorReporter@XMLScanner@@QBEPBVXMLErrorReporter@@XZ" PURGE="0" COMMENT="" />
    <EXPORT ORDINAL="3350" NAME="?getErrorType@XMLException@@QBE?AW4ErrTypes@XMLErrorReporter@@XZ" PURGE="0" COMMENT="" />
    <EXPORT ORDINAL="3351" NAME="?getExitOnFirstFatal@XMLScanner@@QBE_NXZ" PURGE="0" COMMENT="" />
    <EXPORT ORDINAL="3352" NAME="?getExitOnFirstFatal@XSDErrorReporter@@QBE_NXZ" PURGE="0" COMMENT="" />
    <EXPORT ORDINAL="3353" NAME="?getExitOnFirstFatalError@AbstractDOMParser@@QBE_NXZ" PURGE="0" COMMENT="" />
    <EXPORT ORDINAL="3354" NAME="?getExitOnFirstFatalError@DOMParser@@QBE_NXZ" PURGE="0" COMMENT="" />
    <EXPORT ORDINAL="3355" NAME="?getExitOnFirstFatalError@SAX2XMLReaderImpl@@UBE_NXZ" PURGE="0" COMMENT="" />
    <EXPORT ORDINAL="3356" NAME="?getExitOnFirstFatalError@SAXParser@@QBE_NXZ" PURGE="0" COMMENT="" />
    <EXPORT ORDINAL="3357" NAME="?getExpandEntityReferences@AbstractDOMParser@@QBE_NXZ" PURGE="0" COMMENT="" />
    <EXPORT ORDINAL="3358" NAME="?getExpandEntityReferences@DOMNodeIteratorImpl@@UAE_NXZ" PURGE="0" COMMENT="" />
    <EXPORT ORDINAL="3359" NAME="?getExpandEntityReferences@DOMParser@@QBE_NXZ" PURGE="0" COMMENT="" />
    <EXPORT ORDINAL="3360" NAME="?getExpandEntityReferences@DOMTreeWalkerImpl@@UAE_NXZ" PURGE="0" COMMENT="" />
    <EXPORT ORDINAL="3361" NAME="?getExpandEntityReferences@DOM_NodeIterator@@QAE_NXZ" PURGE="0" COMMENT="" />
    <EXPORT ORDINAL="3362" NAME="?getExpandEntityReferences@NodeIteratorImpl@@QAE_NXZ" PURGE="0" COMMENT="" />
    <EXPORT ORDINAL="3363" NAME="?getExpandEntityReferences@TreeWalkerImpl@@QAE_NXZ" PURGE="0" COMMENT="" />
    <EXPORT ORDINAL="3364" NAME="?getExternalNoNamespaceSchemaLocation@AbstractDOMParser@@QBEPAGXZ" PURGE="0" COMMENT="" />
    <EXPORT ORDINAL="3365" NAME="?getExternalNoNamespaceSchemaLocation@DOMParser@@QBEPAGXZ" PURGE="0" COMMENT="" />
    <EXPORT ORDINAL="3366" NAME="?getExternalNoNamespaceSchemaLocation@SAXParser@@QBEPAGXZ" PURGE="0" COMMENT="" />
    <EXPORT ORDINAL="3367" NAME="?getExternalNoNamespaceSchemaLocation@XMLScanner@@QBEPAGXZ" PURGE="0" COMMENT="" />
    <EXPORT ORDINAL="3368" NAME="?getExternalSchemaLocation@AbstractDOMParser@@QBEPAGXZ" PURGE="0" COMMENT="" />
    <EXPORT ORDINAL="3369" NAME="?getExternalSchemaLocation@DOMParser@@QBEPAGXZ" PURGE="0" COMMENT="" />
    <EXPORT ORDINAL="3370" NAME="?getExternalSchemaLocation@SAXParser@@QBEPAGXZ" PURGE="0" COMMENT="" />
    <EXPORT ORDINAL="3371" NAME="?getExternalSchemaLocation@XMLScanner@@QBEPAGXZ" PURGE="0" COMMENT="" />
    <EXPORT ORDINAL="3372" NAME="?getFacetId@GeneralAttributeCheck@@QAEGQBG@Z" PURGE="4" COMMENT="" />
    <EXPORT ORDINAL="3373" NAME="?getFacets@DatatypeValidator@@QBEPAV?$RefHashTableOf@VKVStringPair@@@@XZ" PURGE="0" COMMENT="" />
    <EXPORT ORDINAL="3374" NAME="?getFacetsDefined@DatatypeValidator@@IBEHXZ" PURGE="0" COMMENT="" />
    <EXPORT ORDINAL="3375" NAME="?getFeature@DOMBuilderImpl@@UBE_NQBG@Z" PURGE="4" COMMENT="" />
    <EXPORT ORDINAL="3376" NAME="?getFeature@DOMWriterImpl@@ABE_NH@Z" PURGE="4" COMMENT="" />
    <EXPORT ORDINAL="3377" NAME="?getFeature@DOMWriterImpl@@UBE_NQBG@Z" PURGE="4" COMMENT="" />
    <EXPORT ORDINAL="3378" NAME="?getFeature@SAX2XMLReaderImpl@@UBE_NQBG@Z" PURGE="4" COMMENT="" />
    <EXPORT ORDINAL="3379" NAME="?getField@FieldMatcher@@QBEPAVIC_Field@@XZ" PURGE="0" COMMENT="" />
    <EXPORT ORDINAL="3380" NAME="?getFieldAt@IdentityConstraint@@QAEPAVIC_Field@@I@Z" PURGE="4" COMMENT="" />
    <EXPORT ORDINAL="3381" NAME="?getFieldAt@IdentityConstraint@@QBEPBVIC_Field@@I@Z" PURGE="4" COMMENT="" />
    <EXPORT ORDINAL="3382" NAME="?getFieldCount@IdentityConstraint@@QBEHXZ" PURGE="0" COMMENT="" />
    <EXPORT ORDINAL="3383" NAME="?getFilter@DOMBuilderImpl@@UAEPAVDOMBuilderFilter@@XZ" PURGE="0" COMMENT="" />
    <EXPORT ORDINAL="3384" NAME="?getFilter@DOMBuilderImpl@@UBEPBVDOMBuilderFilter@@XZ" PURGE="0" COMMENT="" />
    <EXPORT ORDINAL="3385" NAME="?getFilter@DOMNodeIteratorImpl@@UAEPAVDOMNodeFilter@@XZ" PURGE="0" COMMENT="" />
    <EXPORT ORDINAL="3386" NAME="?getFilter@DOMTreeWalkerImpl@@UAEPAVDOMNodeFilter@@XZ" PURGE="0" COMMENT="" />
    <EXPORT ORDINAL="3387" NAME="?getFilter@DOMWriterImpl@@UBEPAVDOMWriterFilter@@XZ" PURGE="0" COMMENT="" />
    <EXPORT ORDINAL="3388" NAME="?getFilter@DOM_NodeIterator@@QAEPAVDOM_NodeFilter@@XZ" PURGE="0" COMMENT="" />
    <EXPORT ORDINAL="3389" NAME="?getFilter@DOM_TreeWalker@@QAEPAVDOM_NodeFilter@@XZ" PURGE="0" COMMENT="" />
    <EXPORT ORDINAL="3390" NAME="?getFilter@NodeIteratorImpl@@QAEPAVDOM_NodeFilter@@XZ" PURGE="0" COMMENT="" />
    <EXPORT ORDINAL="3391" NAME="?getFilter@TreeWalkerImpl@@QAEPAVDOM_NodeFilter@@XZ" PURGE="0" COMMENT="" />
    <EXPORT ORDINAL="3392" NAME="?getFinalSet@ComplexTypeInfo@@QBEHXZ" PURGE="0" COMMENT="" />
    <EXPORT ORDINAL="3393" NAME="?getFinalSet@DatatypeValidator@@QBEHXZ" PURGE="0" COMMENT="" />
    <EXPORT ORDINAL="3394" NAME="?getFinalSet@SchemaElementDecl@@QBEHXZ" PURGE="0" COMMENT="" />
    <EXPORT ORDINAL="3395" NAME="?getFirstChild@AttrImpl@@UAEPAVNodeImpl@@XZ" PURGE="0" COMMENT="" />
    <EXPORT ORDINAL="3396" NAME="?getFirstChild@DOMAttrImpl@@UBEPAVDOMNode@@XZ" PURGE="0" COMMENT="" />
    <EXPORT ORDINAL="3397" NAME="?getFirstChild@DOMCDATASectionImpl@@UBEPAVDOMNode@@XZ" PURGE="0" COMMENT="" />
    <EXPORT ORDINAL="3398" NAME="?getFirstChild@DOMCommentImpl@@UBEPAVDOMNode@@XZ" PURGE="0" COMMENT="" />
    <EXPORT ORDINAL="3399" NAME="?getFirstChild@DOMDocumentFragmentImpl@@UBEPAVDOMNode@@XZ" PURGE="0" COMMENT="" />
    <EXPORT ORDINAL="3400" NAME="?getFirstChild@DOMDocumentImpl@@UBEPAVDOMNode@@XZ" PURGE="0" COMMENT="" />
    <EXPORT ORDINAL="3401" NAME="?getFirstChild@DOMDocumentTypeImpl@@UBEPAVDOMNode@@XZ" PURGE="0" COMMENT="" />
    <EXPORT ORDINAL="3402" NAME="?getFirstChild@DOMElementImpl@@UBEPAVDOMNode@@XZ" PURGE="0" COMMENT="" />
    <EXPORT ORDINAL="3403" NAME="?getFirstChild@DOMEntityImpl@@UBEPAVDOMNode@@XZ" PURGE="0" COMMENT="" />
    <EXPORT ORDINAL="3404" NAME="?getFirstChild@DOMEntityReferenceImpl@@UBEPAVDOMNode@@XZ" PURGE="0" COMMENT="" />
    <EXPORT ORDINAL="3405" NAME="?getFirstChild@DOMNodeImpl@@QBEPAVDOMNode@@XZ" PURGE="0" COMMENT="" />
    <EXPORT ORDINAL="3406" NAME="?getFirstChild@DOMNotationImpl@@UBEPAVDOMNode@@XZ" PURGE="0" COMMENT="" />
    <EXPORT ORDINAL="3407" NAME="?getFirstChild@DOMParentNode@@QBEPAVDOMNode@@XZ" PURGE="0" COMMENT="" />
    <EXPORT ORDINAL="3408" NAME="?getFirstChild@DOMProcessingInstructionImpl@@UBEPAVDOMNode@@XZ" PURGE="0" COMMENT="" />
    <EXPORT ORDINAL="3409" NAME="?getFirstChild@DOMTextImpl@@UBEPAVDOMNode@@XZ" PURGE="0" COMMENT="" />
    <EXPORT ORDINAL="3410" NAME="?getFirstChild@DOMTreeWalkerImpl@@IAEPAVDOMNode@@PAV2@@Z" PURGE="4" COMMENT="" />
    <EXPORT ORDINAL="3411" NAME="?getFirstChild@DOM_Entity@@QBE?AVDOM_Node@@XZ" PURGE="4" COMMENT="" />
    <EXPORT ORDINAL="3412" NAME="?getFirstChild@DOM_Node@@QBE?AV1@XZ" PURGE="4" COMMENT="" />
    <EXPORT ORDINAL="3413" NAME="?getFirstChild@EntityImpl@@UAEPAVNodeImpl@@XZ" PURGE="0" COMMENT="" />
    <EXPORT ORDINAL="3414" NAME="?getFirstChild@NodeImpl@@UAEPAV1@XZ" PURGE="0" COMMENT="" />
    <EXPORT ORDINAL="3415" NAME="?getFirstChild@ParentNode@@UAEPAVNodeImpl@@XZ" PURGE="0" COMMENT="" />
    <EXPORT ORDINAL="3416" NAME="?getFirstChild@TreeWalkerImpl@@IAE?AVDOM_Node@@V2@@Z" PURGE="8" COMMENT="" />
    <EXPORT ORDINAL="3417" NAME="?getFirstChildElement@XUtil@@SAPAVDOMElement@@QBVDOMNode@@@Z" PURGE="0" COMMENT="" />
    <EXPORT ORDINAL="3418" NAME="?getFirstChildElementNS@XUtil@@SAPAVDOMElement@@QBVDOMNode@@QAPBGQBGI@Z" PURGE="0" COMMENT="" />
    <EXPORT ORDINAL="3419" NAME="?getFixed@DatatypeValidator@@IBEHXZ" PURGE="0" COMMENT="" />
    <EXPORT ORDINAL="3420" NAME="?getFormattedContentModel@ComplexTypeInfo@@QBEPBGXZ" PURGE="0" COMMENT="" />
    <EXPORT ORDINAL="3421" NAME="?getFormattedContentModel@DTDElementDecl@@UBEPBGXZ" PURGE="0" COMMENT="" />
    <EXPORT ORDINAL="3422" NAME="?getFormattedContentModel@SchemaElementDecl@@UBEPBGXZ" PURGE="0" COMMENT="" />
    <EXPORT ORDINAL="3423" NAME="?getFractionDigits@DecimalDatatypeValidator@@ABEIXZ" PURGE="0" COMMENT="" />
    <EXPORT ORDINAL="3424" NAME="?getFragment@XMLURL@@QBEPBGXZ" PURGE="0" COMMENT="" />
    <EXPORT ORDINAL="3425" NAME="?getFragment@XMLUri@@QBEPBGXZ" PURGE="0" COMMENT="" />
    <EXPORT ORDINAL="3426" NAME="?getFullName@DTDAttDef@@UBEPBGXZ" PURGE="0" COMMENT="" />
    <EXPORT ORDINAL="3427" NAME="?getFullName@SchemaAttDef@@UBEPBGXZ" PURGE="0" COMMENT="" />
    <EXPORT ORDINAL="3428" NAME="?getFullName@XMLElementDecl@@QBEPBGXZ" PURGE="0" COMMENT="" />
    <EXPORT ORDINAL="3429" NAME="?getFullPath@XMLPlatformUtils@@SAPAGQBG@Z" PURGE="0" COMMENT="" />
    <EXPORT ORDINAL="3430" NAME="?getGTRef@XMLFormatter@@AAEPBEAAI@Z" PURGE="4" COMMENT="" />
    <EXPORT ORDINAL="3431" NAME="?getGlobalValueStoreFor@ValueStoreCache@@QAEPAVValueStore@@QBVIdentityConstraint@@@Z" PURGE="4" COMMENT="" />
    <EXPORT ORDINAL="3432" NAME="?getGrammar@DOMBuilderImpl@@UBEPAVGrammar@@QBG@Z" PURGE="4" COMMENT="" />
    <EXPORT ORDINAL="3433" NAME="?getGrammar@DOMParser@@QAEPAVGrammar@@QBG@Z" PURGE="4" COMMENT="" />
    <EXPORT ORDINAL="3434" NAME="?getGrammar@DTDValidator@@UBEPAVGrammar@@XZ" PURGE="0" COMMENT="" />
    <EXPORT ORDINAL="3435" NAME="?getGrammar@SAX2XMLReaderImpl@@UAEPAVGrammar@@QBG@Z" PURGE="4" COMMENT="" />
    <EXPORT ORDINAL="3436" NAME="?getGrammar@SAXParser@@QAEPAVGrammar@@QBG@Z" PURGE="4" COMMENT="" />
    <EXPORT ORDINAL="3437" NAME="?getGrammar@SchemaValidator@@UBEPAVGrammar@@XZ" PURGE="0" COMMENT="" />
    <EXPORT ORDINAL="3438" NAME="?getGrammar@XMLScanner@@QAEPAVGrammar@@QBG@Z" PURGE="4" COMMENT="" />
    <EXPORT ORDINAL="3439" NAME="?getGrammar@XercesDOMParser@@QAEPAVGrammar@@QBG@Z" PURGE="4" COMMENT="" />
    <EXPORT ORDINAL="3440" NAME="?getGrammarType@DTDGrammar@@UBE?AW4GrammarType@Grammar@@XZ" PURGE="0" COMMENT="" />
    <EXPORT ORDINAL="3441" NAME="?getGrammarType@SchemaGrammar@@UBE?AW4GrammarType@Grammar@@XZ" PURGE="0" COMMENT="" />
    <EXPORT ORDINAL="3442" NAME="?getGraphemePattern@TokenFactory@@QAEPAVToken@@XZ" PURGE="0" COMMENT="" />
    <EXPORT ORDINAL="3443" NAME="?getGroupInfoRegistry@SchemaGrammar@@QBEPAV?$RefHashTableOf@VXercesGroupInfo@@@@XZ" PURGE="0" COMMENT="" />
    <EXPORT ORDINAL="3444" NAME="?getHasNoDTD@XMLScanner@@QBE_NXZ" PURGE="0" COMMENT="" />
    <EXPORT ORDINAL="3445" NAME="?getHashVal@HashCMStateSet@@UAEIQBXI@Z" PURGE="8" COMMENT="" />
    <EXPORT ORDINAL="3446" NAME="?getHashVal@HashPtr@@UAEIQBXI@Z" PURGE="8" COMMENT="" />
    <EXPORT ORDINAL="3447" NAME="?getHashVal@HashXMLCh@@UAEIQBXI@Z" PURGE="8" COMMENT="" />
    <EXPORT ORDINAL="3448" NAME="?getHost@XMLURL@@QBEPBGXZ" PURGE="0" COMMENT="" />
    <EXPORT ORDINAL="3449" NAME="?getHost@XMLUri@@QBEPBGXZ" PURGE="0" COMMENT="" />
    <EXPORT ORDINAL="3450" NAME="?getIDRefList@SchemaGrammar@@QBEPAV?$RefHashTableOf@VXMLRefInfo@@@@XZ" PURGE="0" COMMENT="" />
    <EXPORT ORDINAL="3451" NAME="?getIDRefList@XMLScanner@@QAEPAV?$RefHashTableOf@VXMLRefInfo@@@@XZ" PURGE="0" COMMENT="" />
    <EXPORT ORDINAL="3452" NAME="?getIDRefList@XMLScanner@@QBEPBV?$RefHashTableOf@VXMLRefInfo@@@@XZ" PURGE="0" COMMENT="" />
    <EXPORT ORDINAL="3453" NAME="?getId@Win32TransService@@UBEPBGXZ" PURGE="0" COMMENT="" />
    <EXPORT ORDINAL="3454" NAME="?getId@WinSockNetAccessor@@UBEPBGXZ" PURGE="0" COMMENT="" />
    <EXPORT ORDINAL="3455" NAME="?getId@XMLAttDef@@QBEIXZ" PURGE="0" COMMENT="" />
    <EXPORT ORDINAL="3456" NAME="?getId@XMLElementDecl@@QBEIXZ" PURGE="0" COMMENT="" />
    <EXPORT ORDINAL="3457" NAME="?getId@XMLEntityDecl@@QBEIXZ" PURGE="0" COMMENT="" />
    <EXPORT ORDINAL="3458" NAME="?getId@XMLNotationDecl@@QBEIXZ" PURGE="0" COMMENT="" />
    <EXPORT ORDINAL="3459" NAME="?getId@XMLStringPool@@QBEIQBG@Z" PURGE="4" COMMENT="" />
    <EXPORT ORDINAL="3460" NAME="?getIdentityConstraint@IC_Field@@QBEPAVIdentityConstraint@@XZ" PURGE="0" COMMENT="" />
    <EXPORT ORDINAL="3461" NAME="?getIdentityConstraint@IC_Selector@@QBEPAVIdentityConstraint@@XZ" PURGE="0" COMMENT="" />
    <EXPORT ORDINAL="3462" NAME="?getIdentityConstraint@ValueStore@@QBEPAVIdentityConstraint@@XZ" PURGE="0" COMMENT="" />
    <EXPORT ORDINAL="3463" NAME="?getIdentityConstraint@XPathMatcher@@QBEPAVIdentityConstraint@@XZ" PURGE="0" COMMENT="" />
    <EXPORT ORDINAL="3464" NAME="?getIdentityConstraintAt@SchemaElementDecl@@QBEPAVIdentityConstraint@@I@Z" PURGE="4" COMMENT="" />
    <EXPORT ORDINAL="3465" NAME="?getIdentityConstraintCount@SchemaElementDecl@@QBEIXZ" PURGE="0" COMMENT="" />
    <EXPORT ORDINAL="3466" NAME="?getIdentityConstraintName@IdentityConstraint@@QBEPAGXZ" PURGE="0" COMMENT="" />
    <EXPORT ORDINAL="3467" NAME="?getImplementation@DOMDocumentImpl@@UBEPAVDOMImplementation@@XZ" PURGE="0" COMMENT="" />
    <EXPORT ORDINAL="3468" NAME="?getImplementation@DOMImplementation@@SAPAV1@XZ" PURGE="0" COMMENT="" />
    <EXPORT ORDINAL="3469" NAME="?getImplementation@DOM_DOMImplementation@@SAAAV1@XZ" PURGE="0" COMMENT="" />
    <EXPORT ORDINAL="3470" NAME="?getImplementation@DOM_Document@@QBEAAVDOM_DOMImplementation@@XZ" PURGE="0" COMMENT="" />
    <EXPORT ORDINAL="3471" NAME="?getInException@XMLScanner@@QBE_NXZ" PURGE="0" COMMENT="" />
    <EXPORT ORDINAL="3472" NAME="?getInUse@XMLBuffer@@QBE_NXZ" PURGE="0" COMMENT="" />
    <EXPORT ORDINAL="3473" NAME="?getIncludeIgnorableWhitespace@AbstractDOMParser@@QBE_NXZ" PURGE="0" COMMENT="" />
    <EXPORT ORDINAL="3474" NAME="?getIncludeIgnorableWhitespace@DOMParser@@QBE_NXZ" PURGE="0" COMMENT="" />
    <EXPORT ORDINAL="3475" NAME="?getIndex@VecAttributesImpl@@UBEHQBG0@Z" PURGE="8" COMMENT="" />
    <EXPORT ORDINAL="3476" NAME="?getIndex@VecAttributesImpl@@UBEHQBG@Z" PURGE="4" COMMENT="" />
    <EXPORT ORDINAL="3477" NAME="?getInterface@DOMAttrImpl@@UAEPAVDOMNode@@PBG@Z" PURGE="4" COMMENT="" />
    <EXPORT ORDINAL="3478" NAME="?getInterface@DOMCDATASectionImpl@@UAEPAVDOMNode@@PBG@Z" PURGE="4" COMMENT="" />
    <EXPORT ORDINAL="3479" NAME="?getInterface@DOMCommentImpl@@UAEPAVDOMNode@@PBG@Z" PURGE="4" COMMENT="" />
    <EXPORT ORDINAL="3480" NAME="?getInterface@DOMDocumentFragmentImpl@@UAEPAVDOMNode@@PBG@Z" PURGE="4" COMMENT="" />
    <EXPORT ORDINAL="3481" NAME="?getInterface@DOMDocumentImpl@@UAEPAVDOMNode@@PBG@Z" PURGE="4" COMMENT="" />
    <EXPORT ORDINAL="3482" NAME="?getInterface@DOMDocumentTypeImpl@@UAEPAVDOMNode@@PBG@Z" PURGE="4" COMMENT="" />
    <EXPORT ORDINAL="3483" NAME="?getInterface@DOMElementImpl@@UAEPAVDOMNode@@PBG@Z" PURGE="4" COMMENT="" />
    <EXPORT ORDINAL="3484" NAME="?getInterface@DOMEntityImpl@@UAEPAVDOMNode@@PBG@Z" PURGE="4" COMMENT="" />
    <EXPORT ORDINAL="3485" NAME="?getInterface@DOMEntityReferenceImpl@@UAEPAVDOMNode@@PBG@Z" PURGE="4" COMMENT="" />
    <EXPORT ORDINAL="3486" NAME="?getInterface@DOMNodeImpl@@QAEPAVDOMNode@@PBG@Z" PURGE="0" COMMENT="" />
    <EXPORT ORDINAL="3487" NAME="?getInterface@DOMNotationImpl@@UAEPAVDOMNode@@PBG@Z" PURGE="4" COMMENT="" />
    <EXPORT ORDINAL="3488" NAME="?getInterface@DOMProcessingInstructionImpl@@UAEPAVDOMNode@@PBG@Z" PURGE="4" COMMENT="" />
    <EXPORT ORDINAL="3489" NAME="?getInterface@DOMTextImpl@@UAEPAVDOMNode@@PBG@Z" PURGE="4" COMMENT="" />
    <EXPORT ORDINAL="3490" NAME="?getInternalSubset@DOMDocumentTypeImpl@@UBEPBGXZ" PURGE="0" COMMENT="" />
    <EXPORT ORDINAL="3491" NAME="?getInternalSubset@DOM_DocumentType@@QBE?AVDOMString@@XZ" PURGE="4" COMMENT="" />
    <EXPORT ORDINAL="3492" NAME="?getInternalSubset@DocumentTypeImpl@@UAE?AVDOMString@@XZ" PURGE="4" COMMENT="" />
    <EXPORT ORDINAL="3493" NAME="?getIsOpen@BinFileInputStream@@QBE_NXZ" PURGE="0" COMMENT="" />
    <EXPORT ORDINAL="3494" NAME="?getIsParameter@DTDEntityDecl@@UBE_NXZ" PURGE="0" COMMENT="" />
    <EXPORT ORDINAL="3495" NAME="?getIsSpecialChar@DTDEntityDecl@@UBE_NXZ" PURGE="0" COMMENT="" />
    <EXPORT ORDINAL="3496" NAME="?getIsWhitespaceInElementContent@DOMCDATASectionImpl@@UBE_NXZ" PURGE="-1" COMMENT="" />
    <EXPORT ORDINAL="3497" NAME="?getIsWhitespaceInElementContent@DOMTextImpl@@UBE_NXZ" PURGE="-1" COMMENT="" />
    <EXPORT ORDINAL="3498" NAME="?getIssueFatalErrorIfNotFound@InputSource@@QBE?B_NXZ" PURGE="0" COMMENT="" />
    <EXPORT ORDINAL="3499" NAME="?getIssueFatalErrorIfNotFound@Wrapper4DOMInputSource@@QBE?B_NXZ" PURGE="-1" COMMENT="" />
    <EXPORT ORDINAL="3500" NAME="?getIssueFatalErrorIfNotFound@Wrapper4InputSource@@UBE?B_NXZ" PURGE="0" COMMENT="" />
    <EXPORT ORDINAL="3501" NAME="?getItemTypeDTV@ListDatatypeValidator@@QBEPAVDatatypeValidator@@XZ" PURGE="0" COMMENT="" />
    <EXPORT ORDINAL="3502" NAME="?getKey@DTDElementDecl@@QBEPBGXZ" PURGE="0" COMMENT="" />
    <EXPORT ORDINAL="3503" NAME="?getKey@IC_KeyRef@@QBEPAVIdentityConstraint@@XZ" PURGE="0" COMMENT="" />
    <EXPORT ORDINAL="3504" NAME="?getKey@KVStringPair@@QAEPAGXZ" PURGE="0" COMMENT="" />
    <EXPORT ORDINAL="3505" NAME="?getKey@KVStringPair@@QBEPBGXZ" PURGE="0" COMMENT="" />
    <EXPORT ORDINAL="3506" NAME="?getKey@XMLEntityDecl@@QBEPBGXZ" PURGE="0" COMMENT="" />
    <EXPORT ORDINAL="3507" NAME="?getKey@XMLNotationDecl@@QBEPBGXZ" PURGE="0" COMMENT="" />
    <EXPORT ORDINAL="3508" NAME="?getLTRef@XMLFormatter@@AAEPBEAAI@Z" PURGE="4" COMMENT="" />
    <EXPORT ORDINAL="3509" NAME="?getLanguageName@XMLMsgLoader@@QBEPBGXZ" PURGE="0" COMMENT="" />
    <EXPORT ORDINAL="3510" NAME="?getLastChild@AttrImpl@@UAEPAVNodeImpl@@XZ" PURGE="0" COMMENT="" />
    <EXPORT ORDINAL="3511" NAME="?getLastChild@DOMAttrImpl@@UBEPAVDOMNode@@XZ" PURGE="0" COMMENT="" />
    <EXPORT ORDINAL="3512" NAME="?getLastChild@DOMCDATASectionImpl@@UBEPAVDOMNode@@XZ" PURGE="0" COMMENT="" />
    <EXPORT ORDINAL="3513" NAME="?getLastChild@DOMCommentImpl@@UBEPAVDOMNode@@XZ" PURGE="0" COMMENT="" />
    <EXPORT ORDINAL="3514" NAME="?getLastChild@DOMDocumentFragmentImpl@@UBEPAVDOMNode@@XZ" PURGE="0" COMMENT="" />
    <EXPORT ORDINAL="3515" NAME="?getLastChild@DOMDocumentImpl@@UBEPAVDOMNode@@XZ" PURGE="0" COMMENT="" />
    <EXPORT ORDINAL="3516" NAME="?getLastChild@DOMDocumentTypeImpl@@UBEPAVDOMNode@@XZ" PURGE="0" COMMENT="" />
    <EXPORT ORDINAL="3517" NAME="?getLastChild@DOMElementImpl@@UBEPAVDOMNode@@XZ" PURGE="0" COMMENT="" />
    <EXPORT ORDINAL="3518" NAME="?getLastChild@DOMEntityImpl@@UBEPAVDOMNode@@XZ" PURGE="0" COMMENT="" />
    <EXPORT ORDINAL="3519" NAME="?getLastChild@DOMEntityReferenceImpl@@UBEPAVDOMNode@@XZ" PURGE="0" COMMENT="" />
    <EXPORT ORDINAL="3520" NAME="?getLastChild@DOMNodeImpl@@QBEPAVDOMNode@@XZ" PURGE="0" COMMENT="" />
    <EXPORT ORDINAL="3521" NAME="?getLastChild@DOMNotationImpl@@UBEPAVDOMNode@@XZ" PURGE="0" COMMENT="" />
    <EXPORT ORDINAL="3522" NAME="?getLastChild@DOMParentNode@@QBEPAVDOMNode@@XZ" PURGE="0" COMMENT="" />
    <EXPORT ORDINAL="3523" NAME="?getLastChild@DOMProcessingInstructionImpl@@UBEPAVDOMNode@@XZ" PURGE="0" COMMENT="" />
    <EXPORT ORDINAL="3524" NAME="?getLastChild@DOMTextImpl@@UBEPAVDOMNode@@XZ" PURGE="0" COMMENT="" />
    <EXPORT ORDINAL="3525" NAME="?getLastChild@DOMTreeWalkerImpl@@IAEPAVDOMNode@@PAV2@@Z" PURGE="4" COMMENT="" />
    <EXPORT ORDINAL="3526" NAME="?getLastChild@DOM_Entity@@QBE?AVDOM_Node@@XZ" PURGE="4" COMMENT="" />
    <EXPORT ORDINAL="3527" NAME="?getLastChild@DOM_Node@@QBE?AV1@XZ" PURGE="4" COMMENT="" />
    <EXPORT ORDINAL="3528" NAME="?getLastChild@EntityImpl@@UAEPAVNodeImpl@@XZ" PURGE="0" COMMENT="" />
    <EXPORT ORDINAL="3529" NAME="?getLastChild@NodeImpl@@UAEPAV1@XZ" PURGE="0" COMMENT="" />
    <EXPORT ORDINAL="3530" NAME="?getLastChild@ParentNode@@UAEPAVNodeImpl@@XZ" PURGE="0" COMMENT="" />
    <EXPORT ORDINAL="3531" NAME="?getLastChild@TreeWalkerImpl@@IAE?AVDOM_Node@@V2@@Z" PURGE="8" COMMENT="" />
    <EXPORT ORDINAL="3532" NAME="?getLastExtEntity@ReaderMgr@@ABEPBVXMLReader@@AAPBVXMLEntityDecl@@@Z" PURGE="4" COMMENT="" />
    <EXPORT ORDINAL="3533" NAME="?getLastExtEntityInfo@ReaderMgr@@QBEXAAULastExtEntityInfo@1@@Z" PURGE="4" COMMENT="" />
    <EXPORT ORDINAL="3534" NAME="?getLastExtLocation@XMLScanner@@QBE_NQAGI0IAAJ1@Z" PURGE="24" COMMENT="" />
    <EXPORT ORDINAL="3535" NAME="?getLen@MemBufFormatTarget@@QBEIXZ" PURGE="0" COMMENT="" />
    <EXPORT ORDINAL="3536" NAME="?getLen@XMLBuffer@@QBEIXZ" PURGE="0" COMMENT="" />
    <EXPORT ORDINAL="3537" NAME="?getLength@AbstractStringValidator@@IBEIXZ" PURGE="0" COMMENT="" />
    <EXPORT ORDINAL="3538" NAME="?getLength@AnyURIDatatypeValidator@@MBEHQBG@Z" PURGE="4" COMMENT="" />
    <EXPORT ORDINAL="3539" NAME="?getLength@AttrImpl@@UAEIXZ" PURGE="0" COMMENT="" />
    <EXPORT ORDINAL="3540" NAME="?getLength@Base64BinaryDatatypeValidator@@MBEHQBG@Z" PURGE="4" COMMENT="" />
    <EXPORT ORDINAL="3541" NAME="?getLength@DOMCDATASectionImpl@@UBEKXZ" PURGE="0" COMMENT="" />
    <EXPORT ORDINAL="3542" NAME="?getLength@DOMCharacterDataImpl@@QBEKXZ" PURGE="0" COMMENT="" />
    <EXPORT ORDINAL="3543" NAME="?getLength@DOMCommentImpl@@UBEKXZ" PURGE="0" COMMENT="" />
    <EXPORT ORDINAL="3544" NAME="?getLength@DOMDeepNodeListImpl@@UBEKXZ" PURGE="0" COMMENT="" />
    <EXPORT ORDINAL="3545" NAME="?getLength@DOMNamedNodeMapImpl@@UBEKXZ" PURGE="0" COMMENT="" />
    <EXPORT ORDINAL="3546" NAME="?getLength@DOMNodeListImpl@@UBEKXZ" PURGE="0" COMMENT="" />
    <EXPORT ORDINAL="3547" NAME="?getLength@DOMTextImpl@@UBEKXZ" PURGE="0" COMMENT="" />
    <EXPORT ORDINAL="3548" NAME="?getLength@DOM_CharacterData@@QBEIXZ" PURGE="-1" COMMENT="" />
    <EXPORT ORDINAL="3549" NAME="?getLength@DOM_NamedNodeMap@@QBEIXZ" PURGE="-1" COMMENT="" />
    <EXPORT ORDINAL="3550" NAME="?getLength@DOM_NodeList@@QBEIXZ" PURGE="-1" COMMENT="" />
    <EXPORT ORDINAL="3551" NAME="?getLength@DeepNodeListImpl@@UAEIXZ" PURGE="0" COMMENT="" />
    <EXPORT ORDINAL="3552" NAME="?getLength@HexBinaryDatatypeValidator@@MBEHQBG@Z" PURGE="4" COMMENT="" />
    <EXPORT ORDINAL="3553" NAME="?getLength@ListDatatypeValidator@@MBEHQBG@Z" PURGE="4" COMMENT="" />
    <EXPORT ORDINAL="3554" NAME="?getLength@NOTATIONDatatypeValidator@@MBEHQBG@Z" PURGE="4" COMMENT="" />
    <EXPORT ORDINAL="3555" NAME="?getLength@NamedNodeMapImpl@@UAEIXZ" PURGE="0" COMMENT="" />
    <EXPORT ORDINAL="3556" NAME="?getLength@NodeImpl@@UAEIXZ" PURGE="0" COMMENT="" />
    <EXPORT ORDINAL="3557" NAME="?getLength@ParentNode@@UAEIXZ" PURGE="0" COMMENT="" />
    <EXPORT ORDINAL="3558" NAME="?getLength@QNameDatatypeValidator@@MBEHQBG@Z" PURGE="4" COMMENT="" />
    <EXPORT ORDINAL="3559" NAME="?getLength@StringDatatypeValidator@@MBEHQBG@Z" PURGE="4" COMMENT="" />
    <EXPORT ORDINAL="3560" NAME="?getLength@VecAttrListImpl@@UBEIXZ" PURGE="0" COMMENT="" />
    <EXPORT ORDINAL="3561" NAME="?getLength@VecAttributesImpl@@UBEIXZ" PURGE="0" COMMENT="" />
    <EXPORT ORDINAL="3562" NAME="?getLexicalHandler@SAX2XMLReaderImpl@@UBEPAVLexicalHandler@@XZ" PURGE="0" COMMENT="" />
    <EXPORT ORDINAL="3563" NAME="?getLineBegin2@TokenFactory@@QAEPAVToken@@XZ" PURGE="0" COMMENT="" />
    <EXPORT ORDINAL="3564" NAME="?getLineBegin@TokenFactory@@QAEPAVToken@@XZ" PURGE="0" COMMENT="" />
    <EXPORT ORDINAL="3565" NAME="?getLineEnd@TokenFactory@@QAEPAVToken@@XZ" PURGE="0" COMMENT="" />
    <EXPORT ORDINAL="3566" NAME="?getLineNo@XSDElementNSImpl@@QBEJXZ" PURGE="0" COMMENT="" />
    <EXPORT ORDINAL="3567" NAME="?getLineNumber@DOMLocatorImpl@@UBEJXZ" PURGE="0" COMMENT="" />
    <EXPORT ORDINAL="3568" NAME="?getLineNumber@ReaderMgr@@UBEJXZ" PURGE="0" COMMENT="" />
    <EXPORT ORDINAL="3569" NAME="?getLineNumber@SAXParseException@@QBEJXZ" PURGE="0" COMMENT="" />
    <EXPORT ORDINAL="3570" NAME="?getLineNumber@XMLReader@@QBEJXZ" PURGE="0" COMMENT="" />
    <EXPORT ORDINAL="3571" NAME="?getLineNumber@XSDLocator@@UBEJXZ" PURGE="0" COMMENT="" />
    <EXPORT ORDINAL="3572" NAME="?getLiteral@Op@@UBEPBGXZ" PURGE="8" COMMENT="" />
    <EXPORT ORDINAL="3573" NAME="?getLiteral@StringOp@@UBEPBGXZ" PURGE="0" COMMENT="" />
    <EXPORT ORDINAL="3574" NAME="?getLoadExternalDTD@AbstractDOMParser@@QBE_NXZ" PURGE="0" COMMENT="" />
    <EXPORT ORDINAL="3575" NAME="?getLoadExternalDTD@SAXParser@@QBE_NXZ" PURGE="0" COMMENT="" />
    <EXPORT ORDINAL="3576" NAME="?getLoadExternalDTD@XMLScanner@@QBE_NXZ" PURGE="0" COMMENT="" />
    <EXPORT ORDINAL="3577" NAME="?getLocalName@AttrNSImpl@@UAE?AVDOMString@@XZ" PURGE="4" COMMENT="" />
    <EXPORT ORDINAL="3578" NAME="?getLocalName@DOMAttrImpl@@UBEPBGXZ" PURGE="0" COMMENT="" />
    <EXPORT ORDINAL="3579" NAME="?getLocalName@DOMAttrNSImpl@@UBEPBGXZ" PURGE="0" COMMENT="" />
    <EXPORT ORDINAL="3580" NAME="?getLocalName@DOMCDATASectionImpl@@UBEPBGXZ" PURGE="0" COMMENT="" />
    <EXPORT ORDINAL="3581" NAME="?getLocalName@DOMCommentImpl@@UBEPBGXZ" PURGE="0" COMMENT="" />
    <EXPORT ORDINAL="3582" NAME="?getLocalName@DOMDocumentFragmentImpl@@UBEPBGXZ" PURGE="0" COMMENT="" />
    <EXPORT ORDINAL="3583" NAME="?getLocalName@DOMDocumentImpl@@UBEPBGXZ" PURGE="0" COMMENT="" />
    <EXPORT ORDINAL="3584" NAME="?getLocalName@DOMDocumentTypeImpl@@UBEPBGXZ" PURGE="0" COMMENT="" />
    <EXPORT ORDINAL="3585" NAME="?getLocalName@DOMElementImpl@@UBEPBGXZ" PURGE="0" COMMENT="" />
    <EXPORT ORDINAL="3586" NAME="?getLocalName@DOMElementNSImpl@@UBEPBGXZ" PURGE="0" COMMENT="" />
    <EXPORT ORDINAL="3587" NAME="?getLocalName@DOMEntityImpl@@UBEPBGXZ" PURGE="0" COMMENT="" />
    <EXPORT ORDINAL="3588" NAME="?getLocalName@DOMEntityReferenceImpl@@UBEPBGXZ" PURGE="0" COMMENT="" />
    <EXPORT ORDINAL="3589" NAME="?getLocalName@DOMNodeImpl@@QBEPBGXZ" PURGE="0" COMMENT="" />
    <EXPORT ORDINAL="3590" NAME="?getLocalName@DOMNotationImpl@@UBEPBGXZ" PURGE="0" COMMENT="" />
    <EXPORT ORDINAL="3591" NAME="?getLocalName@DOMProcessingInstructionImpl@@UBEPBGXZ" PURGE="0" COMMENT="" />
    <EXPORT ORDINAL="3592" NAME="?getLocalName@DOMTextImpl@@UBEPBGXZ" PURGE="0" COMMENT="" />
    <EXPORT ORDINAL="3593" NAME="?getLocalName@DOM_Node@@QBE?AVDOMString@@XZ" PURGE="4" COMMENT="" />
    <EXPORT ORDINAL="3594" NAME="?getLocalName@ElementNSImpl@@UAE?AVDOMString@@XZ" PURGE="4" COMMENT="" />
    <EXPORT ORDINAL="3595" NAME="?getLocalName@NodeImpl@@UAE?AVDOMString@@XZ" PURGE="4" COMMENT="" />
    <EXPORT ORDINAL="3596" NAME="?getLocalName@VecAttributesImpl@@UBEPBGI@Z" PURGE="4" COMMENT="" />
    <EXPORT ORDINAL="3597" NAME="?getLocalPart@QName@@QAEPAGXZ" PURGE="0" COMMENT="" />
    <EXPORT ORDINAL="3598" NAME="?getLocalPart@QName@@QBEPBGXZ" PURGE="0" COMMENT="" />
    <EXPORT ORDINAL="3599" NAME="?getLocalPart@TraverseSchema@@AAEPBGQBG@Z" PURGE="4" COMMENT="" />
    <EXPORT ORDINAL="3600" NAME="?getLocation@DOMErrorImpl@@UBEPAVDOMLocator@@XZ" PURGE="0" COMMENT="" />
    <EXPORT ORDINAL="3601" NAME="?getLocationPaths@XercesXPath@@QBEPAV?$RefVectorOf@VXercesLocationPath@@@@XZ" PURGE="0" COMMENT="" />
    <EXPORT ORDINAL="3602" NAME="?getLocator@ComplexTypeInfo@@QBEPAVXSDLocator@@XZ" PURGE="0" COMMENT="" />
    <EXPORT ORDINAL="3603" NAME="?getLocator@XMLScanner@@QBEPBVLocator@@XZ" PURGE="0" COMMENT="" />
    <EXPORT ORDINAL="3604" NAME="?getLocator@XercesGroupInfo@@QBEPAVXSDLocator@@XZ" PURGE="0" COMMENT="" />
    <EXPORT ORDINAL="3605" NAME="?getMatcherAt@XPathMatcherStack@@QBEPAVXPathMatcher@@I@Z" PURGE="4" COMMENT="" />
    <EXPORT ORDINAL="3606" NAME="?getMatcherCount@XPathMatcherStack@@QBEIXZ" PURGE="0" COMMENT="" />
    <EXPORT ORDINAL="3607" NAME="?getMax@ClosureToken@@UBEHXZ" PURGE="0" COMMENT="" />
    <EXPORT ORDINAL="3608" NAME="?getMax@Token@@UBEHXZ" PURGE="0" COMMENT="" />
    <EXPORT ORDINAL="3609" NAME="?getMaxExclusive@AbstractNumericFacetValidator@@IBEQAVXMLNumber@@XZ" PURGE="0" COMMENT="" />
    <EXPORT ORDINAL="3610" NAME="?getMaxInclusive@AbstractNumericFacetValidator@@IBEQAVXMLNumber@@XZ" PURGE="0" COMMENT="" />
    <EXPORT ORDINAL="3611" NAME="?getMaxLength@AbstractStringValidator@@IBEIXZ" PURGE="0" COMMENT="" />
    <EXPORT ORDINAL="3612" NAME="?getMaxLength@Token@@QBEHXZ" PURGE="0" COMMENT="" />
    <EXPORT ORDINAL="3613" NAME="?getMayMatch@IC_Field@@QBE_NXZ" PURGE="0" COMMENT="" />
    <EXPORT ORDINAL="3614" NAME="?getMemberTypeValidators@UnionDatatypeValidator@@QBEPAV?$RefVectorOf@VDatatypeValidator@@@@XZ" PURGE="0" COMMENT="" />
    <EXPORT ORDINAL="3615" NAME="?getMessage@DOMErrorImpl@@UBEPBGXZ" PURGE="0" COMMENT="" />
    <EXPORT ORDINAL="3616" NAME="?getMessage@SAXException@@UBEPBGXZ" PURGE="0" COMMENT="" />
    <EXPORT ORDINAL="3617" NAME="?getMessage@XMLException@@QBEPBGXZ" PURGE="0" COMMENT="" />
    <EXPORT ORDINAL="3618" NAME="?getMin@ClosureToken@@UBEHXZ" PURGE="0" COMMENT="" />
    <EXPORT ORDINAL="3619" NAME="?getMin@Token@@UBEHXZ" PURGE="0" COMMENT="" />
    <EXPORT ORDINAL="3620" NAME="?getMinExclusive@AbstractNumericFacetValidator@@IBEQAVXMLNumber@@XZ" PURGE="0" COMMENT="" />
    <EXPORT ORDINAL="3621" NAME="?getMinInclusive@AbstractNumericFacetValidator@@IBEQAVXMLNumber@@XZ" PURGE="0" COMMENT="" />
    <EXPORT ORDINAL="3622" NAME="?getMinLength@AbstractStringValidator@@IBEIXZ" PURGE="0" COMMENT="" />
    <EXPORT ORDINAL="3623" NAME="?getMinLength@Token@@QBEHXZ" PURGE="0" COMMENT="" />
    <EXPORT ORDINAL="3624" NAME="?getMiscFlags@SchemaElementDecl@@QBEHXZ" PURGE="0" COMMENT="" />
    <EXPORT ORDINAL="3625" NAME="?getModelType@DTDElementDecl@@QBE?AW4ModelTypes@1@XZ" PURGE="0" COMMENT="" />
    <EXPORT ORDINAL="3626" NAME="?getModelType@SchemaElementDecl@@QBE?AW4ModelTypes@1@XZ" PURGE="0" COMMENT="" />
    <EXPORT ORDINAL="3627" NAME="?getName@AttrImpl@@UAE?AVDOMString@@XZ" PURGE="4" COMMENT="" />
    <EXPORT ORDINAL="3628" NAME="?getName@DOMAttrImpl@@UBEPBGXZ" PURGE="0" COMMENT="" />
    <EXPORT ORDINAL="3629" NAME="?getName@DOMDocumentTypeImpl@@UBEPBGXZ" PURGE="0" COMMENT="" />
    <EXPORT ORDINAL="3630" NAME="?getName@DOM_Attr@@QBE?AVDOMString@@XZ" PURGE="4" COMMENT="" />
    <EXPORT ORDINAL="3631" NAME="?getName@DOM_DocumentType@@QBE?AVDOMString@@XZ" PURGE="4" COMMENT="" />
    <EXPORT ORDINAL="3632" NAME="?getName@DocumentTypeImpl@@UAE?AVDOMString@@XZ" PURGE="4" COMMENT="" />
    <EXPORT ORDINAL="3633" NAME="?getName@ReaderMgr@@QAE_NAAVXMLBuffer@@@Z" PURGE="4" COMMENT="" />
    <EXPORT ORDINAL="3634" NAME="?getName@VecAttrListImpl@@UBEPBGI@Z" PURGE="4" COMMENT="" />
    <EXPORT ORDINAL="3635" NAME="?getName@XMLAttr@@QBEPBGXZ" PURGE="0" COMMENT="" />
    <EXPORT ORDINAL="3636" NAME="?getName@XMLEntityDecl@@QBEPBGXZ" PURGE="0" COMMENT="" />
    <EXPORT ORDINAL="3637" NAME="?getName@XMLNotationDecl@@QBEPBGXZ" PURGE="0" COMMENT="" />
    <EXPORT ORDINAL="3638" NAME="?getName@XMLReader@@QAE_NAAVXMLBuffer@@_N@Z" PURGE="8" COMMENT="" />
    <EXPORT ORDINAL="3639" NAME="?getName@XercesNodeTest@@QBEPAVQName@@XZ" PURGE="0" COMMENT="" />
    <EXPORT ORDINAL="3640" NAME="?getNameToken@ReaderMgr@@QAE_NAAVXMLBuffer@@@Z" PURGE="4" COMMENT="" />
    <EXPORT ORDINAL="3641" NAME="?getNamedItem@DOMNamedNodeMapImpl@@UBEPAVDOMNode@@PBG@Z" PURGE="4" COMMENT="" />
    <EXPORT ORDINAL="3642" NAME="?getNamedItem@DOM_NamedNodeMap@@QBE?AVDOM_Node@@ABVDOMString@@@Z" PURGE="8" COMMENT="" />
    <EXPORT ORDINAL="3643" NAME="?getNamedItem@NamedNodeMapImpl@@UAEPAVNodeImpl@@ABVDOMString@@@Z" PURGE="4" COMMENT="" />
    <EXPORT ORDINAL="3644" NAME="?getNamedItemNS@DOMNamedNodeMapImpl@@UBEPAVDOMNode@@PBG0@Z" PURGE="8" COMMENT="" />
    <EXPORT ORDINAL="3645" NAME="?getNamedItemNS@DOM_NamedNodeMap@@QAE?AVDOM_Node@@ABVDOMString@@0@Z" PURGE="12" COMMENT="" />
    <EXPORT ORDINAL="3646" NAME="?getNamedItemNS@NamedNodeMapImpl@@UAEPAVNodeImpl@@ABVDOMString@@0@Z" PURGE="8" COMMENT="" />
    <EXPORT ORDINAL="3647" NAME="?getNamespaceForPrefix@NamespaceScope@@QBEIQBG@Z" PURGE="4" COMMENT="" />
    <EXPORT ORDINAL="3648" NAME="?getNamespaceForPrefix@NamespaceScope@@QBEIQBGH@Z" PURGE="8" COMMENT="" />
    <EXPORT ORDINAL="3649" NAME="?getNamespaceList@SchemaAttDef@@QBEPAV?$ValueVectorOf@I@@XZ" PURGE="0" COMMENT="" />
    <EXPORT ORDINAL="3650" NAME="?getNamespaceScope@SchemaGrammar@@QBEPAVNamespaceScope@@XZ" PURGE="0" COMMENT="" />
    <EXPORT ORDINAL="3651" NAME="?getNamespaceURI@AttrNSImpl@@UAE?AVDOMString@@XZ" PURGE="4" COMMENT="" />
    <EXPORT ORDINAL="3652" NAME="?getNamespaceURI@DOMAttrImpl@@UBEPBGXZ" PURGE="0" COMMENT="" />
    <EXPORT ORDINAL="3653" NAME="?getNamespaceURI@DOMAttrNSImpl@@UBEPBGXZ" PURGE="0" COMMENT="" />
    <EXPORT ORDINAL="3654" NAME="?getNamespaceURI@DOMCDATASectionImpl@@UBEPBGXZ" PURGE="0" COMMENT="" />
    <EXPORT ORDINAL="3655" NAME="?getNamespaceURI@DOMCommentImpl@@UBEPBGXZ" PURGE="0" COMMENT="" />
    <EXPORT ORDINAL="3656" NAME="?getNamespaceURI@DOMDocumentFragmentImpl@@UBEPBGXZ" PURGE="0" COMMENT="" />
    <EXPORT ORDINAL="3657" NAME="?getNamespaceURI@DOMDocumentImpl@@UBEPBGXZ" PURGE="0" COMMENT="" />
    <EXPORT ORDINAL="3658" NAME="?getNamespaceURI@DOMDocumentTypeImpl@@UBEPBGXZ" PURGE="0" COMMENT="" />
    <EXPORT ORDINAL="3659" NAME="?getNamespaceURI@DOMElementImpl@@UBEPBGXZ" PURGE="0" COMMENT="" />
    <EXPORT ORDINAL="3660" NAME="?getNamespaceURI@DOMElementNSImpl@@UBEPBGXZ" PURGE="0" COMMENT="" />
    <EXPORT ORDINAL="3661" NAME="?getNamespaceURI@DOMEntityImpl@@UBEPBGXZ" PURGE="0" COMMENT="" />
    <EXPORT ORDINAL="3662" NAME="?getNamespaceURI@DOMEntityReferenceImpl@@UBEPBGXZ" PURGE="0" COMMENT="" />
    <EXPORT ORDINAL="3663" NAME="?getNamespaceURI@DOMNodeImpl@@QBEPBGXZ" PURGE="0" COMMENT="" />
    <EXPORT ORDINAL="3664" NAME="?getNamespaceURI@DOMNotationImpl@@UBEPBGXZ" PURGE="0" COMMENT="" />
    <EXPORT ORDINAL="3665" NAME="?getNamespaceURI@DOMProcessingInstructionImpl@@UBEPBGXZ" PURGE="0" COMMENT="" />
    <EXPORT ORDINAL="3666" NAME="?getNamespaceURI@DOMTextImpl@@UBEPBGXZ" PURGE="0" COMMENT="" />
    <EXPORT ORDINAL="3667" NAME="?getNamespaceURI@DOM_Node@@QBE?AVDOMString@@XZ" PURGE="4" COMMENT="" />
    <EXPORT ORDINAL="3668" NAME="?getNamespaceURI@ElementNSImpl@@UAE?AVDOMString@@XZ" PURGE="4" COMMENT="" />
    <EXPORT ORDINAL="3669" NAME="?getNamespaceURI@NodeImpl@@UAE?AVDOMString@@XZ" PURGE="4" COMMENT="" />
    <EXPORT ORDINAL="3670" NAME="?getNewLine@DOMWriterImpl@@UBEPBGXZ" PURGE="0" COMMENT="" />
    <EXPORT ORDINAL="3671" NAME="?getNextChar@ReaderMgr@@QAEGXZ" PURGE="0" COMMENT="" />
    <EXPORT ORDINAL="3672" NAME="?getNextChar@XMLReader@@QAE_NAAG@Z" PURGE="4" COMMENT="" />
    <EXPORT ORDINAL="3673" NAME="?getNextCharIfNot@ReaderMgr@@QAE_NGAAG@Z" PURGE="8" COMMENT="" />
    <EXPORT ORDINAL="3674" NAME="?getNextCharIfNot@XMLReader@@QAE_NGAAG@Z" PURGE="8" COMMENT="" />
    <EXPORT ORDINAL="3675" NAME="?getNextOp@Op@@QBEPBV1@XZ" PURGE="0" COMMENT="" />
    <EXPORT ORDINAL="3676" NAME="?getNextSibling@ChildNode@@UAEPAVNodeImpl@@XZ" PURGE="0" COMMENT="" />
    <EXPORT ORDINAL="3677" NAME="?getNextSibling@DOMAttrImpl@@UBEPAVDOMNode@@XZ" PURGE="0" COMMENT="" />
    <EXPORT ORDINAL="3678" NAME="?getNextSibling@DOMCDATASectionImpl@@UBEPAVDOMNode@@XZ" PURGE="0" COMMENT="" />
    <EXPORT ORDINAL="3679" NAME="?getNextSibling@DOMChildNode@@QBEPAVDOMNode@@XZ" PURGE="0" COMMENT="" />
    <EXPORT ORDINAL="3680" NAME="?getNextSibling@DOMCommentImpl@@UBEPAVDOMNode@@XZ" PURGE="0" COMMENT="" />
    <EXPORT ORDINAL="3681" NAME="?getNextSibling@DOMDocumentFragmentImpl@@UBEPAVDOMNode@@XZ" PURGE="0" COMMENT="" />
    <EXPORT ORDINAL="3682" NAME="?getNextSibling@DOMDocumentImpl@@UBEPAVDOMNode@@XZ" PURGE="0" COMMENT="" />
    <EXPORT ORDINAL="3683" NAME="?getNextSibling@DOMDocumentTypeImpl@@UBEPAVDOMNode@@XZ" PURGE="0" COMMENT="" />
    <EXPORT ORDINAL="3684" NAME="?getNextSibling@DOMElementImpl@@UBEPAVDOMNode@@XZ" PURGE="0" COMMENT="" />
    <EXPORT ORDINAL="3685" NAME="?getNextSibling@DOMEntityImpl@@UBEPAVDOMNode@@XZ" PURGE="0" COMMENT="" />
    <EXPORT ORDINAL="3686" NAME="?getNextSibling@DOMEntityReferenceImpl@@UBEPAVDOMNode@@XZ" PURGE="0" COMMENT="" />
    <EXPORT ORDINAL="3687" NAME="?getNextSibling@DOMNodeImpl@@QBEPAVDOMNode@@XZ" PURGE="0" COMMENT="" />
    <EXPORT ORDINAL="3688" NAME="?getNextSibling@DOMNotationImpl@@UBEPAVDOMNode@@XZ" PURGE="0" COMMENT="" />
    <EXPORT ORDINAL="3689" NAME="?getNextSibling@DOMProcessingInstructionImpl@@UBEPAVDOMNode@@XZ" PURGE="0" COMMENT="" />
    <EXPORT ORDINAL="3690" NAME="?getNextSibling@DOMTextImpl@@UBEPAVDOMNode@@XZ" PURGE="0" COMMENT="" />
    <EXPORT ORDINAL="3691" NAME="?getNextSibling@DOMTreeWalkerImpl@@IAEPAVDOMNode@@PAV2@@Z" PURGE="4" COMMENT="" />
    <EXPORT ORDINAL="3692" NAME="?getNextSibling@DOM_Entity@@QBE?AVDOM_Node@@XZ" PURGE="4" COMMENT="" />
    <EXPORT ORDINAL="3693" NAME="?getNextSibling@DOM_Node@@QBE?AV1@XZ" PURGE="4" COMMENT="" />
    <EXPORT ORDINAL="3694" NAME="?getNextSibling@NodeImpl@@UAEPAV1@XZ" PURGE="0" COMMENT="" />
    <EXPORT ORDINAL="3695" NAME="?getNextSibling@TreeWalkerImpl@@IAE?AVDOM_Node@@V2@@Z" PURGE="8" COMMENT="" />
    <EXPORT ORDINAL="3696" NAME="?getNextSiblingElement@XUtil@@SAPAVDOMElement@@QBVDOMNode@@@Z" PURGE="0" COMMENT="" />
    <EXPORT ORDINAL="3697" NAME="?getNextSiblingElementNS@XUtil@@SAPAVDOMElement@@QBVDOMNode@@QAPBGQBGI@Z" PURGE="0" COMMENT="" />
    <EXPORT ORDINAL="3698" NAME="?getNoFlow@ConditionOp@@UBEPBVOp@@XZ" PURGE="0" COMMENT="" />
    <EXPORT ORDINAL="3699" NAME="?getNoFlow@Op@@UBEPBV1@XZ" PURGE="8" COMMENT="" />
    <EXPORT ORDINAL="3700" NAME="?getNoGroups@Match@@QBEHXZ" PURGE="0" COMMENT="" />
    <EXPORT ORDINAL="3701" NAME="?getNoMoreFlag@XMLReader@@QBE_NXZ" PURGE="0" COMMENT="" />
    <EXPORT ORDINAL="3702" NAME="?getNoParen@ParenToken@@UBEHXZ" PURGE="0" COMMENT="" />
    <EXPORT ORDINAL="3703" NAME="?getNoParen@RegxParser@@QBEHXZ" PURGE="0" COMMENT="" />
    <EXPORT ORDINAL="3704" NAME="?getNoParen@Token@@UBEHXZ" PURGE="0" COMMENT="" />
    <EXPORT ORDINAL="3705" NAME="?getNodeIDMap@DOMDocumentImpl@@QAEPAVDOMNodeIDMap@@XZ" PURGE="0" COMMENT="" />
    <EXPORT ORDINAL="3706" NAME="?getNodeIDMap@DocumentImpl@@QAEPAVNodeIDMap@@XZ" PURGE="0" COMMENT="" />
    <EXPORT ORDINAL="3707" NAME="?getNodeName@AttrImpl@@UAE?AVDOMString@@XZ" PURGE="4" COMMENT="" />
    <EXPORT ORDINAL="3708" NAME="?getNodeName@CDATASectionImpl@@UAE?AVDOMString@@XZ" PURGE="4" COMMENT="" />
    <EXPORT ORDINAL="3709" NAME="?getNodeName@CommentImpl@@UAE?AVDOMString@@XZ" PURGE="4" COMMENT="" />
    <EXPORT ORDINAL="3710" NAME="?getNodeName@DOMAttrImpl@@UBEPBGXZ" PURGE="0" COMMENT="" />
    <EXPORT ORDINAL="3711" NAME="?getNodeName@DOMCDATASectionImpl@@UBEPBGXZ" PURGE="0" COMMENT="" />
    <EXPORT ORDINAL="3712" NAME="?getNodeName@DOMCommentImpl@@UBEPBGXZ" PURGE="0" COMMENT="" />
    <EXPORT ORDINAL="3713" NAME="?getNodeName@DOMDocumentFragmentImpl@@UBEPBGXZ" PURGE="0" COMMENT="" />
    <EXPORT ORDINAL="3714" NAME="?getNodeName@DOMDocumentImpl@@UBEPBGXZ" PURGE="0" COMMENT="" />
    <EXPORT ORDINAL="3715" NAME="?getNodeName@DOMDocumentTypeImpl@@UBEPBGXZ" PURGE="0" COMMENT="" />
    <EXPORT ORDINAL="3716" NAME="?getNodeName@DOMElementImpl@@UBEPBGXZ" PURGE="0" COMMENT="" />
    <EXPORT ORDINAL="3717" NAME="?getNodeName@DOMEntityImpl@@UBEPBGXZ" PURGE="0" COMMENT="" />
    <EXPORT ORDINAL="3718" NAME="?getNodeName@DOMEntityReferenceImpl@@UBEPBGXZ" PURGE="0" COMMENT="" />
    <EXPORT ORDINAL="3719" NAME="?getNodeName@DOMNotationImpl@@UBEPBGXZ" PURGE="0" COMMENT="" />
    <EXPORT ORDINAL="3720" NAME="?getNodeName@DOMProcessingInstructionImpl@@UBEPBGXZ" PURGE="0" COMMENT="" />
    <EXPORT ORDINAL="3721" NAME="?getNodeName@DOMTextImpl@@UBEPBGXZ" PURGE="0" COMMENT="" />
    <EXPORT ORDINAL="3722" NAME="?getNodeName@DOM_Node@@QBE?AVDOMString@@XZ" PURGE="4" COMMENT="" />
    <EXPORT ORDINAL="3723" NAME="?getNodeName@DocumentFragmentImpl@@UAE?AVDOMString@@XZ" PURGE="4" COMMENT="" />
    <EXPORT ORDINAL="3724" NAME="?getNodeName@DocumentImpl@@UAE?AVDOMString@@XZ" PURGE="4" COMMENT="" />
    <EXPORT ORDINAL="3725" NAME="?getNodeName@DocumentTypeImpl@@UAE?AVDOMString@@XZ" PURGE="4" COMMENT="" />
    <EXPORT ORDINAL="3726" NAME="?getNodeName@ElementDefinitionImpl@@UAE?AVDOMString@@XZ" PURGE="4" COMMENT="" />
    <EXPORT ORDINAL="3727" NAME="?getNodeName@ElementImpl@@UAE?AVDOMString@@XZ" PURGE="4" COMMENT="" />
    <EXPORT ORDINAL="3728" NAME="?getNodeName@EntityImpl@@UAE?AVDOMString@@XZ" PURGE="4" COMMENT="" />
    <EXPORT ORDINAL="3729" NAME="?getNodeName@EntityReferenceImpl@@UAE?AVDOMString@@XZ" PURGE="4" COMMENT="" />
    <EXPORT ORDINAL="3730" NAME="?getNodeName@NotationImpl@@UAE?AVDOMString@@XZ" PURGE="4" COMMENT="" />
    <EXPORT ORDINAL="3731" NAME="?getNodeName@ProcessingInstructionImpl@@UAE?AVDOMString@@XZ" PURGE="4" COMMENT="" />
    <EXPORT ORDINAL="3732" NAME="?getNodeName@TextImpl@@UAE?AVDOMString@@XZ" PURGE="4" COMMENT="" />
    <EXPORT ORDINAL="3733" NAME="?getNodeName@XMLDeclImpl@@UAE?AVDOMString@@XZ" PURGE="4" COMMENT="" />
    <EXPORT ORDINAL="3734" NAME="?getNodeTest@XercesStep@@QBEPAVXercesNodeTest@@XZ" PURGE="0" COMMENT="" />
    <EXPORT ORDINAL="3735" NAME="?getNodeType@AttrImpl@@UAEFXZ" PURGE="0" COMMENT="" />
    <EXPORT ORDINAL="3736" NAME="?getNodeType@CDATASectionImpl@@UAEFXZ" PURGE="0" COMMENT="" />
    <EXPORT ORDINAL="3737" NAME="?getNodeType@CommentImpl@@UAEFXZ" PURGE="0" COMMENT="" />
    <EXPORT ORDINAL="3738" NAME="?getNodeType@DOMAttrImpl@@UBEFXZ" PURGE="0" COMMENT="" />
    <EXPORT ORDINAL="3739" NAME="?getNodeType@DOMCDATASectionImpl@@UBEFXZ" PURGE="0" COMMENT="" />
    <EXPORT ORDINAL="3740" NAME="?getNodeType@DOMCommentImpl@@UBEFXZ" PURGE="0" COMMENT="" />
    <EXPORT ORDINAL="3741" NAME="?getNodeType@DOMDocumentFragmentImpl@@UBEFXZ" PURGE="0" COMMENT="" />
    <EXPORT ORDINAL="3742" NAME="?getNodeType@DOMDocumentImpl@@UBEFXZ" PURGE="0" COMMENT="" />
    <EXPORT ORDINAL="3743" NAME="?getNodeType@DOMDocumentTypeImpl@@UBEFXZ" PURGE="0" COMMENT="" />
    <EXPORT ORDINAL="3744" NAME="?getNodeType@DOMElementImpl@@UBEFXZ" PURGE="0" COMMENT="" />
    <EXPORT ORDINAL="3745" NAME="?getNodeType@DOMEntityImpl@@UBEFXZ" PURGE="0" COMMENT="" />
    <EXPORT ORDINAL="3746" NAME="?getNodeType@DOMEntityReferenceImpl@@UBEFXZ" PURGE="0" COMMENT="" />
    <EXPORT ORDINAL="3747" NAME="?getNodeType@DOMNotationImpl@@UBEFXZ" PURGE="0" COMMENT="" />
    <EXPORT ORDINAL="3748" NAME="?getNodeType@DOMProcessingInstructionImpl@@UBEFXZ" PURGE="0" COMMENT="" />
    <EXPORT ORDINAL="3749" NAME="?getNodeType@DOMTextImpl@@UBEFXZ" PURGE="0" COMMENT="" />
    <EXPORT ORDINAL="3750" NAME="?getNodeType@DOM_Node@@QBEFXZ" PURGE="-1" COMMENT="" />
    <EXPORT ORDINAL="3751" NAME="?getNodeType@DocumentFragmentImpl@@UAEFXZ" PURGE="0" COMMENT="" />
    <EXPORT ORDINAL="3752" NAME="?getNodeType@DocumentImpl@@UAEFXZ" PURGE="0" COMMENT="" />
    <EXPORT ORDINAL="3753" NAME="?getNodeType@DocumentTypeImpl@@UAEFXZ" PURGE="0" COMMENT="" />
    <EXPORT ORDINAL="3754" NAME="?getNodeType@ElementDefinitionImpl@@UAEFXZ" PURGE="0" COMMENT="" />
    <EXPORT ORDINAL="3755" NAME="?getNodeType@ElementImpl@@UAEFXZ" PURGE="0" COMMENT="" />
    <EXPORT ORDINAL="3756" NAME="?getNodeType@EntityImpl@@UAEFXZ" PURGE="0" COMMENT="" />
    <EXPORT ORDINAL="3757" NAME="?getNodeType@EntityReferenceImpl@@UAEFXZ" PURGE="0" COMMENT="" />
    <EXPORT ORDINAL="3758" NAME="?getNodeType@NotationImpl@@UAEFXZ" PURGE="0" COMMENT="" />
    <EXPORT ORDINAL="3759" NAME="?getNodeType@ProcessingInstructionImpl@@UAEFXZ" PURGE="0" COMMENT="" />
    <EXPORT ORDINAL="3760" NAME="?getNodeType@TextImpl@@UAEFXZ" PURGE="0" COMMENT="" />
    <EXPORT ORDINAL="3761" NAME="?getNodeType@XMLDeclImpl@@UAEFXZ" PURGE="0" COMMENT="" />
    <EXPORT ORDINAL="3762" NAME="?getNodeValue@AttrImpl@@UAE?AVDOMString@@XZ" PURGE="4" COMMENT="" />
    <EXPORT ORDINAL="3763" NAME="?getNodeValue@CharacterDataImpl@@UAE?AVDOMString@@XZ" PURGE="4" COMMENT="" />
    <EXPORT ORDINAL="3764" NAME="?getNodeValue@DOMAttrImpl@@UBEPBGXZ" PURGE="-1" COMMENT="" />
    <EXPORT ORDINAL="3765" NAME="?getNodeValue@DOMCDATASectionImpl@@UBEPBGXZ" PURGE="0" COMMENT="" />
    <EXPORT ORDINAL="3766" NAME="?getNodeValue@DOMCharacterDataImpl@@QBEPBGXZ" PURGE="0" COMMENT="" />
    <EXPORT ORDINAL="3767" NAME="?getNodeValue@DOMCommentImpl@@UBEPBGXZ" PURGE="0" COMMENT="" />
    <EXPORT ORDINAL="3768" NAME="?getNodeValue@DOMDocumentFragmentImpl@@UBEPBGXZ" PURGE="0" COMMENT="" />
    <EXPORT ORDINAL="3769" NAME="?getNodeValue@DOMDocumentImpl@@UBEPBGXZ" PURGE="0" COMMENT="" />
    <EXPORT ORDINAL="3770" NAME="?getNodeValue@DOMDocumentTypeImpl@@UBEPBGXZ" PURGE="0" COMMENT="" />
    <EXPORT ORDINAL="3771" NAME="?getNodeValue@DOMElementImpl@@UBEPBGXZ" PURGE="0" COMMENT="" />
    <EXPORT ORDINAL="3772" NAME="?getNodeValue@DOMEntityImpl@@UBEPBGXZ" PURGE="0" COMMENT="" />
    <EXPORT ORDINAL="3773" NAME="?getNodeValue@DOMEntityReferenceImpl@@UBEPBGXZ" PURGE="0" COMMENT="" />
    <EXPORT ORDINAL="3774" NAME="?getNodeValue@DOMNodeImpl@@QBEPBGXZ" PURGE="0" COMMENT="" />
    <EXPORT ORDINAL="3775" NAME="?getNodeValue@DOMNotationImpl@@UBEPBGXZ" PURGE="0" COMMENT="" />
    <EXPORT ORDINAL="3776" NAME="?getNodeValue@DOMProcessingInstructionImpl@@UBEPBGXZ" PURGE="0" COMMENT="" />
    <EXPORT ORDINAL="3777" NAME="?getNodeValue@DOMTextImpl@@UBEPBGXZ" PURGE="0" COMMENT="" />
    <EXPORT ORDINAL="3778" NAME="?getNodeValue@DOM_Node@@QBE?AVDOMString@@XZ" PURGE="4" COMMENT="" />
    <EXPORT ORDINAL="3779" NAME="?getNodeValue@NodeImpl@@UAE?AVDOMString@@XZ" PURGE="4" COMMENT="" />
    <EXPORT ORDINAL="3780" NAME="?getNodeValue@ProcessingInstructionImpl@@UAE?AVDOMString@@XZ" PURGE="4" COMMENT="" />
    <EXPORT ORDINAL="3781" NAME="?getNormalizationFeature@DOMDocumentImpl@@UBE_NQBG@Z" PURGE="8" COMMENT="" />
    <EXPORT ORDINAL="3782" NAME="?getNormalizeData@XMLScanner@@QBE_NXZ" PURGE="0" COMMENT="" />
    <EXPORT ORDINAL="3783" NAME="?getNotWordEdge@TokenFactory@@QAEPAVToken@@XZ" PURGE="0" COMMENT="" />
    <EXPORT ORDINAL="3784" NAME="?getNotationDecl@DTDGrammar@@UAEPAVXMLNotationDecl@@QBG@Z" PURGE="4" COMMENT="" />
    <EXPORT ORDINAL="3785" NAME="?getNotationDecl@DTDGrammar@@UBEPBVXMLNotationDecl@@QBG@Z" PURGE="4" COMMENT="" />
    <EXPORT ORDINAL="3786" NAME="?getNotationDecl@SchemaGrammar@@UAEPAVXMLNotationDecl@@QBG@Z" PURGE="4" COMMENT="" />
    <EXPORT ORDINAL="3787" NAME="?getNotationDecl@SchemaGrammar@@UBEPBVXMLNotationDecl@@QBG@Z" PURGE="4" COMMENT="" />
    <EXPORT ORDINAL="3788" NAME="?getNotationEnumerator@DTDGrammar@@QBE?AV?$NameIdPoolEnumerator@VXMLNotationDecl@@@@XZ" PURGE="4" COMMENT="" />
    <EXPORT ORDINAL="3789" NAME="?getNotationName@DOMEntityImpl@@UBEPBGXZ" PURGE="0" COMMENT="" />
    <EXPORT ORDINAL="3790" NAME="?getNotationName@DOM_Entity@@QBE?AVDOMString@@XZ" PURGE="4" COMMENT="" />
    <EXPORT ORDINAL="3791" NAME="?getNotationName@EntityImpl@@UAE?AVDOMString@@XZ" PURGE="4" COMMENT="" />
    <EXPORT ORDINAL="3792" NAME="?getNotationName@XMLEntityDecl@@QBEPBGXZ" PURGE="0" COMMENT="" />
    <EXPORT ORDINAL="3793" NAME="?getNotations@DOMDocumentTypeImpl@@UBEPAVDOMNamedNodeMap@@XZ" PURGE="0" COMMENT="" />
    <EXPORT ORDINAL="3794" NAME="?getNotations@DOM_DocumentType@@QBE?AVDOM_NamedNodeMap@@XZ" PURGE="4" COMMENT="" />
    <EXPORT ORDINAL="3795" NAME="?getNotations@DocumentTypeImpl@@UAEPAVNamedNodeMapImpl@@XZ" PURGE="0" COMMENT="" />
    <EXPORT ORDINAL="3796" NAME="?getOffset@DOMLocatorImpl@@UBEJXZ" PURGE="0" COMMENT="" />
    <EXPORT ORDINAL="3797" NAME="?getOffset@RegxParser@@QBEHXZ" PURGE="0" COMMENT="" />
    <EXPORT ORDINAL="3798" NAME="?getOpType@Op@@QBEFXZ" PURGE="0" COMMENT="" />
    <EXPORT ORDINAL="3799" NAME="?getOptionValue@RegularExpression@@SAHG@Z" PURGE="0" COMMENT="" />
    <EXPORT ORDINAL="3800" NAME="?getOptions@ModifierToken@@QBEHXZ" PURGE="0" COMMENT="" />
    <EXPORT ORDINAL="3801" NAME="?getOptionsMask@ModifierToken@@QBEHXZ" PURGE="0" COMMENT="" />
    <EXPORT ORDINAL="3802" NAME="?getOwnerDocument@DOMAttrImpl@@UBEPAVDOMDocument@@XZ" PURGE="0" COMMENT="" />
    <EXPORT ORDINAL="3803" NAME="?getOwnerDocument@DOMCDATASectionImpl@@UBEPAVDOMDocument@@XZ" PURGE="0" COMMENT="" />
    <EXPORT ORDINAL="3804" NAME="?getOwnerDocument@DOMCommentImpl@@UBEPAVDOMDocument@@XZ" PURGE="0" COMMENT="" />
    <EXPORT ORDINAL="3805" NAME="?getOwnerDocument@DOMDocumentFragmentImpl@@UBEPAVDOMDocument@@XZ" PURGE="0" COMMENT="" />
    <EXPORT ORDINAL="3806" NAME="?getOwnerDocument@DOMDocumentImpl@@UBEPAVDOMDocument@@XZ" PURGE="0" COMMENT="" />
    <EXPORT ORDINAL="3807" NAME="?getOwnerDocument@DOMDocumentTypeImpl@@UBEPAVDOMDocument@@XZ" PURGE="0" COMMENT="" />
    <EXPORT ORDINAL="3808" NAME="?getOwnerDocument@DOMElementImpl@@UBEPAVDOMDocument@@XZ" PURGE="0" COMMENT="" />
    <EXPORT ORDINAL="3809" NAME="?getOwnerDocument@DOMEntityImpl@@UBEPAVDOMDocument@@XZ" PURGE="0" COMMENT="" />
    <EXPORT ORDINAL="3810" NAME="?getOwnerDocument@DOMEntityReferenceImpl@@UBEPAVDOMDocument@@XZ" PURGE="0" COMMENT="" />
    <EXPORT ORDINAL="3811" NAME="?getOwnerDocument@DOMNodeImpl@@QBEPAVDOMDocument@@XZ" PURGE="0" COMMENT="" />
    <EXPORT ORDINAL="3812" NAME="?getOwnerDocument@DOMNotationImpl@@UBEPAVDOMDocument@@XZ" PURGE="0" COMMENT="" />
    <EXPORT ORDINAL="3813" NAME="?getOwnerDocument@DOMParentNode@@QBEPAVDOMDocument@@XZ" PURGE="0" COMMENT="" />
    <EXPORT ORDINAL="3814" NAME="?getOwnerDocument@DOMProcessingInstructionImpl@@UBEPAVDOMDocument@@XZ" PURGE="0" COMMENT="" />
    <EXPORT ORDINAL="3815" NAME="?getOwnerDocument@DOMTextImpl@@UBEPAVDOMDocument@@XZ" PURGE="0" COMMENT="" />
    <EXPORT ORDINAL="3816" NAME="?getOwnerDocument@DOM_Node@@QBE?AVDOM_Document@@XZ" PURGE="4" COMMENT="" />
    <EXPORT ORDINAL="3817" NAME="?getOwnerDocument@DocumentImpl@@UAEPAV1@XZ" PURGE="0" COMMENT="" />
    <EXPORT ORDINAL="3818" NAME="?getOwnerDocument@NodeImpl@@UAEPAVDocumentImpl@@XZ" PURGE="0" COMMENT="" />
    <EXPORT ORDINAL="3819" NAME="?getOwnerDocument@ParentNode@@UAEPAVDocumentImpl@@XZ" PURGE="0" COMMENT="" />
    <EXPORT ORDINAL="3820" NAME="?getOwnerElement@AttrImpl@@QAEPAVElementImpl@@XZ" PURGE="0" COMMENT="" />
    <EXPORT ORDINAL="3821" NAME="?getOwnerElement@DOMAttrImpl@@UBEPAVDOMElement@@XZ" PURGE="0" COMMENT="" />
    <EXPORT ORDINAL="3822" NAME="?getOwnerElement@DOM_Attr@@QBE?AVDOM_Element@@XZ" PURGE="4" COMMENT="" />
    <EXPORT ORDINAL="3823" NAME="?getParentNode@ChildNode@@UAEPAVNodeImpl@@XZ" PURGE="0" COMMENT="" />
    <EXPORT ORDINAL="3824" NAME="?getParentNode@DOMAttrImpl@@UBEPAVDOMNode@@XZ" PURGE="0" COMMENT="" />
    <EXPORT ORDINAL="3825" NAME="?getParentNode@DOMCDATASectionImpl@@UBEPAVDOMNode@@XZ" PURGE="0" COMMENT="" />
    <EXPORT ORDINAL="3826" NAME="?getParentNode@DOMChildNode@@QBEPAVDOMNode@@PBV2@@Z" PURGE="4" COMMENT="" />
    <EXPORT ORDINAL="3827" NAME="?getParentNode@DOMCommentImpl@@UBEPAVDOMNode@@XZ" PURGE="0" COMMENT="" />
    <EXPORT ORDINAL="3828" NAME="?getParentNode@DOMDocumentFragmentImpl@@UBEPAVDOMNode@@XZ" PURGE="0" COMMENT="" />
    <EXPORT ORDINAL="3829" NAME="?getParentNode@DOMDocumentImpl@@UBEPAVDOMNode@@XZ" PURGE="0" COMMENT="" />
    <EXPORT ORDINAL="3830" NAME="?getParentNode@DOMDocumentTypeImpl@@UBEPAVDOMNode@@XZ" PURGE="0" COMMENT="" />
    <EXPORT ORDINAL="3831" NAME="?getParentNode@DOMElementImpl@@UBEPAVDOMNode@@XZ" PURGE="0" COMMENT="" />
    <EXPORT ORDINAL="3832" NAME="?getParentNode@DOMEntityImpl@@UBEPAVDOMNode@@XZ" PURGE="0" COMMENT="" />
    <EXPORT ORDINAL="3833" NAME="?getParentNode@DOMEntityReferenceImpl@@UBEPAVDOMNode@@XZ" PURGE="0" COMMENT="" />
    <EXPORT ORDINAL="3834" NAME="?getParentNode@DOMNodeImpl@@QBEPAVDOMNode@@XZ" PURGE="0" COMMENT="" />
    <EXPORT ORDINAL="3835" NAME="?getParentNode@DOMNotationImpl@@UBEPAVDOMNode@@XZ" PURGE="0" COMMENT="" />
    <EXPORT ORDINAL="3836" NAME="?getParentNode@DOMProcessingInstructionImpl@@UBEPAVDOMNode@@XZ" PURGE="0" COMMENT="" />
    <EXPORT ORDINAL="3837" NAME="?getParentNode@DOMTextImpl@@UBEPAVDOMNode@@XZ" PURGE="0" COMMENT="" />
    <EXPORT ORDINAL="3838" NAME="?getParentNode@DOMTreeWalkerImpl@@IAEPAVDOMNode@@PAV2@@Z" PURGE="4" COMMENT="" />
    <EXPORT ORDINAL="3839" NAME="?getParentNode@DOM_Node@@QBE?AV1@XZ" PURGE="4" COMMENT="" />
    <EXPORT ORDINAL="3840" NAME="?getParentNode@NodeImpl@@UAEPAV1@XZ" PURGE="0" COMMENT="" />
    <EXPORT ORDINAL="3841" NAME="?getParentNode@NotationImpl@@UAEPAVNodeImpl@@XZ" PURGE="0" COMMENT="" />
    <EXPORT ORDINAL="3842" NAME="?getParentNode@TreeWalkerImpl@@IAE?AVDOM_Node@@V2@@Z" PURGE="8" COMMENT="" />
    <EXPORT ORDINAL="3843" NAME="?getParseContext@RegxParser@@QBEGXZ" PURGE="0" COMMENT="" />
    <EXPORT ORDINAL="3844" NAME="?getParseInProgress@AbstractDOMParser@@IBE_NXZ" PURGE="0" COMMENT="" />
    <EXPORT ORDINAL="3845" NAME="?getPassword@XMLURL@@QBEPBGXZ" PURGE="0" COMMENT="" />
    <EXPORT ORDINAL="3846" NAME="?getPath@XMLURL@@QBEPBGXZ" PURGE="0" COMMENT="" />
    <EXPORT ORDINAL="3847" NAME="?getPath@XMLUri@@QBEPBGXZ" PURGE="0" COMMENT="" />
    <EXPORT ORDINAL="3848" NAME="?getPattern@DatatypeValidator@@IBEPBGXZ" PURGE="0" COMMENT="" />
    <EXPORT ORDINAL="3849" NAME="?getPooledString@DOMDocumentImpl@@QAEPBGPBG@Z" PURGE="4" COMMENT="" />
    <EXPORT ORDINAL="3850" NAME="?getPort@XMLUri@@QBEHXZ" PURGE="0" COMMENT="" />
    <EXPORT ORDINAL="3851" NAME="?getPortNum@XMLURL@@QBEIXZ" PURGE="0" COMMENT="" />
    <EXPORT ORDINAL="3852" NAME="?getPrefix@AttrNSImpl@@UAE?AVDOMString@@XZ" PURGE="4" COMMENT="" />
    <EXPORT ORDINAL="3853" NAME="?getPrefix@DOMAttrImpl@@UBEPBGXZ" PURGE="0" COMMENT="" />
    <EXPORT ORDINAL="3854" NAME="?getPrefix@DOMAttrNSImpl@@UBEPBGXZ" PURGE="0" COMMENT="" />
    <EXPORT ORDINAL="3855" NAME="?getPrefix@DOMCDATASectionImpl@@UBEPBGXZ" PURGE="0" COMMENT="" />
    <EXPORT ORDINAL="3856" NAME="?getPrefix@DOMCommentImpl@@UBEPBGXZ" PURGE="0" COMMENT="" />
    <EXPORT ORDINAL="3857" NAME="?getPrefix@DOMDocumentFragmentImpl@@UBEPBGXZ" PURGE="0" COMMENT="" />
    <EXPORT ORDINAL="3858" NAME="?getPrefix@DOMDocumentImpl@@UBEPBGXZ" PURGE="0" COMMENT="" />
    <EXPORT ORDINAL="3859" NAME="?getPrefix@DOMDocumentTypeImpl@@UBEPBGXZ" PURGE="0" COMMENT="" />
    <EXPORT ORDINAL="3860" NAME="?getPrefix@DOMElementImpl@@UBEPBGXZ" PURGE="0" COMMENT="" />
    <EXPORT ORDINAL="3861" NAME="?getPrefix@DOMElementNSImpl@@UBEPBGXZ" PURGE="0" COMMENT="" />
    <EXPORT ORDINAL="3862" NAME="?getPrefix@DOMEntityImpl@@UBEPBGXZ" PURGE="0" COMMENT="" />
    <EXPORT ORDINAL="3863" NAME="?getPrefix@DOMEntityReferenceImpl@@UBEPBGXZ" PURGE="0" COMMENT="" />
    <EXPORT ORDINAL="3864" NAME="?getPrefix@DOMNodeImpl@@QBEPBGXZ" PURGE="0" COMMENT="" />
    <EXPORT ORDINAL="3865" NAME="?getPrefix@DOMNotationImpl@@UBEPBGXZ" PURGE="0" COMMENT="" />
    <EXPORT ORDINAL="3866" NAME="?getPrefix@DOMProcessingInstructionImpl@@UBEPBGXZ" PURGE="0" COMMENT="" />
    <EXPORT ORDINAL="3867" NAME="?getPrefix@DOMTextImpl@@UBEPBGXZ" PURGE="0" COMMENT="" />
    <EXPORT ORDINAL="3868" NAME="?getPrefix@DOM_Node@@QBE?AVDOMString@@XZ" PURGE="4" COMMENT="" />
    <EXPORT ORDINAL="3869" NAME="?getPrefix@ElementNSImpl@@UAE?AVDOMString@@XZ" PURGE="4" COMMENT="" />
    <EXPORT ORDINAL="3870" NAME="?getPrefix@NodeImpl@@UAE?AVDOMString@@XZ" PURGE="4" COMMENT="" />
    <EXPORT ORDINAL="3871" NAME="?getPrefix@QName@@QAEPAGXZ" PURGE="0" COMMENT="" />
    <EXPORT ORDINAL="3872" NAME="?getPrefix@QName@@QBEPBGXZ" PURGE="0" COMMENT="" />
    <EXPORT ORDINAL="3873" NAME="?getPrefix@TraverseSchema@@AAEPBGQBG@Z" PURGE="4" COMMENT="" />
    <EXPORT ORDINAL="3874" NAME="?getPrefix@XMLAttr@@QBEPBGXZ" PURGE="0" COMMENT="" />
    <EXPORT ORDINAL="3875" NAME="?getPreprocessed@ComplexTypeInfo@@QBE_NXZ" PURGE="0" COMMENT="" />
    <EXPORT ORDINAL="3876" NAME="?getPreviousSibling@ChildNode@@UAEPAVNodeImpl@@XZ" PURGE="0" COMMENT="" />
    <EXPORT ORDINAL="3877" NAME="?getPreviousSibling@DOMAttrImpl@@UBEPAVDOMNode@@XZ" PURGE="0" COMMENT="" />
    <EXPORT ORDINAL="3878" NAME="?getPreviousSibling@DOMCDATASectionImpl@@UBEPAVDOMNode@@XZ" PURGE="0" COMMENT="" />
    <EXPORT ORDINAL="3879" NAME="?getPreviousSibling@DOMChildNode@@QBEPAVDOMNode@@PBV2@@Z" PURGE="4" COMMENT="" />
    <EXPORT ORDINAL="3880" NAME="?getPreviousSibling@DOMCommentImpl@@UBEPAVDOMNode@@XZ" PURGE="0" COMMENT="" />
    <EXPORT ORDINAL="3881" NAME="?getPreviousSibling@DOMDocumentFragmentImpl@@UBEPAVDOMNode@@XZ" PURGE="0" COMMENT="" />
    <EXPORT ORDINAL="3882" NAME="?getPreviousSibling@DOMDocumentImpl@@UBEPAVDOMNode@@XZ" PURGE="0" COMMENT="" />
    <EXPORT ORDINAL="3883" NAME="?getPreviousSibling@DOMDocumentTypeImpl@@UBEPAVDOMNode@@XZ" PURGE="0" COMMENT="" />
    <EXPORT ORDINAL="3884" NAME="?getPreviousSibling@DOMElementImpl@@UBEPAVDOMNode@@XZ" PURGE="0" COMMENT="" />
    <EXPORT ORDINAL="3885" NAME="?getPreviousSibling@DOMEntityImpl@@UBEPAVDOMNode@@XZ" PURGE="0" COMMENT="" />
    <EXPORT ORDINAL="3886" NAME="?getPreviousSibling@DOMEntityReferenceImpl@@UBEPAVDOMNode@@XZ" PURGE="0" COMMENT="" />
    <EXPORT ORDINAL="3887" NAME="?getPreviousSibling@DOMNodeImpl@@QBEPAVDOMNode@@XZ" PURGE="0" COMMENT="" />
    <EXPORT ORDINAL="3888" NAME="?getPreviousSibling@DOMNotationImpl@@UBEPAVDOMNode@@XZ" PURGE="0" COMMENT="" />
    <EXPORT ORDINAL="3889" NAME="?getPreviousSibling@DOMProcessingInstructionImpl@@UBEPAVDOMNode@@XZ" PURGE="0" COMMENT="" />
    <EXPORT ORDINAL="3890" NAME="?getPreviousSibling@DOMTextImpl@@UBEPAVDOMNode@@XZ" PURGE="0" COMMENT="" />
    <EXPORT ORDINAL="3891" NAME="?getPreviousSibling@DOMTreeWalkerImpl@@IAEPAVDOMNode@@PAV2@@Z" PURGE="4" COMMENT="" />
    <EXPORT ORDINAL="3892" NAME="?getPreviousSibling@DOM_Entity@@QBE?AVDOM_Node@@XZ" PURGE="4" COMMENT="" />
    <EXPORT ORDINAL="3893" NAME="?getPreviousSibling@DOM_Node@@QBE?AV1@XZ" PURGE="4" COMMENT="" />
    <EXPORT ORDINAL="3894" NAME="?getPreviousSibling@NodeImpl@@UAEPAV1@XZ" PURGE="0" COMMENT="" />
    <EXPORT ORDINAL="3895" NAME="?getPreviousSibling@TreeWalkerImpl@@IAE?AVDOM_Node@@V2@@Z" PURGE="8" COMMENT="" />
    <EXPORT ORDINAL="3896" NAME="?getPreviousWordType@RegularExpression@@AAEGQBGHHH@Z" PURGE="16" COMMENT="" />
    <EXPORT ORDINAL="3897" NAME="?getProperty@DOMBuilderImpl@@UBEPAXQBG@Z" PURGE="4" COMMENT="" />
    <EXPORT ORDINAL="3898" NAME="?getProperty@SAX2XMLReaderImpl@@UBEPAXQBG@Z" PURGE="4" COMMENT="" />
    <EXPORT ORDINAL="3899" NAME="?getProtocol@XMLURL@@QBE?AW4Protocols@1@XZ" PURGE="0" COMMENT="" />
    <EXPORT ORDINAL="3900" NAME="?getProtocolName@XMLURL@@QBEPBGXZ" PURGE="0" COMMENT="" />
    <EXPORT ORDINAL="3901" NAME="?getProvided@XMLAttDef@@QBE_NXZ" PURGE="0" COMMENT="" />
    <EXPORT ORDINAL="3902" NAME="?getPublicId@DOMDocumentTypeImpl@@UBEPBGXZ" PURGE="0" COMMENT="" />
    <EXPORT ORDINAL="3903" NAME="?getPublicId@DOMEntityImpl@@UBEPBGXZ" PURGE="0" COMMENT="" />
    <EXPORT ORDINAL="3904" NAME="?getPublicId@DOMNotationImpl@@UBEPBGXZ" PURGE="0" COMMENT="" />
    <EXPORT ORDINAL="3905" NAME="?getPublicId@DOM_DocumentType@@QBE?AVDOMString@@XZ" PURGE="4" COMMENT="" />
    <EXPORT ORDINAL="3906" NAME="?getPublicId@DOM_Entity@@QBE?AVDOMString@@XZ" PURGE="4" COMMENT="" />
    <EXPORT ORDINAL="3907" NAME="?getPublicId@DOM_Notation@@QBE?AVDOMString@@XZ" PURGE="4" COMMENT="" />
    <EXPORT ORDINAL="3908" NAME="?getPublicId@DocumentTypeImpl@@UAE?AVDOMString@@XZ" PURGE="4" COMMENT="" />
    <EXPORT ORDINAL="3909" NAME="?getPublicId@EntityImpl@@UAE?AVDOMString@@XZ" PURGE="4" COMMENT="" />
    <EXPORT ORDINAL="3910" NAME="?getPublicId@InputSource@@QBEPBGXZ" PURGE="0" COMMENT="" />
    <EXPORT ORDINAL="3911" NAME="?getPublicId@NotationImpl@@UAE?AVDOMString@@XZ" PURGE="4" COMMENT="" />
    <EXPORT ORDINAL="3912" NAME="?getPublicId@ReaderMgr@@UBEPBGXZ" PURGE="0" COMMENT="" />
    <EXPORT ORDINAL="3913" NAME="?getPublicId@SAXParseException@@QBEPBGXZ" PURGE="0" COMMENT="" />
    <EXPORT ORDINAL="3914" NAME="?getPublicId@Wrapper4DOMInputSource@@QBEPBGXZ" PURGE="-1" COMMENT="" />
    <EXPORT ORDINAL="3915" NAME="?getPublicId@Wrapper4InputSource@@UBEPBGXZ" PURGE="0" COMMENT="" />
    <EXPORT ORDINAL="3916" NAME="?getPublicId@XMLEntityDecl@@QBEPBGXZ" PURGE="0" COMMENT="" />
    <EXPORT ORDINAL="3917" NAME="?getPublicId@XMLNotationDecl@@QBEPBGXZ" PURGE="0" COMMENT="" />
    <EXPORT ORDINAL="3918" NAME="?getPublicId@XMLReader@@QBEPBGXZ" PURGE="0" COMMENT="" />
    <EXPORT ORDINAL="3919" NAME="?getPublicId@XSDLocator@@UBEPBGXZ" PURGE="0" COMMENT="" />
    <EXPORT ORDINAL="3920" NAME="?getQName@VecAttributesImpl@@UBEPBGI@Z" PURGE="4" COMMENT="" />
    <EXPORT ORDINAL="3921" NAME="?getQName@XMLAttr@@QBEPBGXZ" PURGE="0" COMMENT="" />
    <EXPORT ORDINAL="3922" NAME="?getQuery@XMLURL@@QBEPBGXZ" PURGE="0" COMMENT="" />
    <EXPORT ORDINAL="3923" NAME="?getQueryString@XMLUri@@QBEPBGXZ" PURGE="0" COMMENT="" />
    <EXPORT ORDINAL="3924" NAME="?getQuoteRef@XMLFormatter@@AAEPBEAAI@Z" PURGE="4" COMMENT="" />
    <EXPORT ORDINAL="3925" NAME="?getQuotedString@DTDScanner@@AAE_NAAVXMLBuffer@@@Z" PURGE="4" COMMENT="" />
    <EXPORT ORDINAL="3926" NAME="?getQuotedString@XMLScanner@@AAE_NAAVXMLBuffer@@@Z" PURGE="4" COMMENT="" />
    <EXPORT ORDINAL="3927" NAME="?getRange@RangeTokenMap@@IAEPAVRangeToken@@QBG_N@Z" PURGE="8" COMMENT="" />
    <EXPORT ORDINAL="3928" NAME="?getRange@TokenFactory@@QAEPAVRangeToken@@QBG_N@Z" PURGE="8" COMMENT="" />
    <EXPORT ORDINAL="3929" NAME="?getRangeMap@RangeTokenMap@@IBEPAV?$RefHashTableOf@VRangeFactory@@@@XZ" PURGE="0" COMMENT="" />
    <EXPORT ORDINAL="3930" NAME="?getRangeToken@RangeTokenElemMap@@QBEPAVRangeToken@@_N@Z" PURGE="4" COMMENT="" />
    <EXPORT ORDINAL="3931" NAME="?getRanges@DOMDocumentImpl@@UBEPAV?$RefVectorOf@VDOMRangeImpl@@@@XZ" PURGE="0" COMMENT="" />
    <EXPORT ORDINAL="3932" NAME="?getRanges@DocumentImpl@@UAEPAV?$RefVectorOf@VRangeImpl@@@@XZ" PURGE="0" COMMENT="" />
    <EXPORT ORDINAL="3933" NAME="?getRawBuffer@MemBufFormatTarget@@QBEPBEXZ" PURGE="0" COMMENT="" />
    <EXPORT ORDINAL="3934" NAME="?getRawBuffer@XMLBuffer@@QAEPAGXZ" PURGE="0" COMMENT="" />
    <EXPORT ORDINAL="3935" NAME="?getRawBuffer@XMLBuffer@@QBEPBGXZ" PURGE="0" COMMENT="" />
    <EXPORT ORDINAL="3936" NAME="?getRawName@QName@@QAEPAGXZ" PURGE="0" COMMENT="" />
    <EXPORT ORDINAL="3937" NAME="?getRawName@QName@@QBEPBGXZ" PURGE="0" COMMENT="" />
    <EXPORT ORDINAL="3938" NAME="?getReaderDepth@ReaderMgr@@QBEIXZ" PURGE="0" COMMENT="" />
    <EXPORT ORDINAL="3939" NAME="?getReaderMgr@XMLScanner@@QBEPBVReaderMgr@@XZ" PURGE="0" COMMENT="" />
    <EXPORT ORDINAL="3940" NAME="?getReaderMgr@XMLValidator@@IAEPAVReaderMgr@@XZ" PURGE="0" COMMENT="" />
    <EXPORT ORDINAL="3941" NAME="?getReaderMgr@XMLValidator@@IBEPBVReaderMgr@@XZ" PURGE="0" COMMENT="" />
    <EXPORT ORDINAL="3942" NAME="?getReaderNum@EndOfEntityException@@QBEIXZ" PURGE="0" COMMENT="" />
    <EXPORT ORDINAL="3943" NAME="?getReaderNum@XMLReader@@QBEIXZ" PURGE="0" COMMENT="" />
    <EXPORT ORDINAL="3944" NAME="?getRedefineNewTypeName@TraverseSchema@@AAEXQBGHAAVXMLBuffer@@@Z" PURGE="12" COMMENT="" />
    <EXPORT ORDINAL="3945" NAME="?getRefFrom@XMLReader@@QBE?AW4RefFrom@1@XZ" PURGE="0" COMMENT="" />
    <EXPORT ORDINAL="3946" NAME="?getRefName@XMLRefInfo@@QBEPBGXZ" PURGE="0" COMMENT="" />
    <EXPORT ORDINAL="3947" NAME="?getRefNo@ConditionOp@@UBEHXZ" PURGE="0" COMMENT="" />
    <EXPORT ORDINAL="3948" NAME="?getRefNo@Op@@UBEHXZ" PURGE="8" COMMENT="" />
    <EXPORT ORDINAL="3949" NAME="?getReferenceNo@ConditionToken@@UBEHXZ" PURGE="0" COMMENT="" />
    <EXPORT ORDINAL="3950" NAME="?getReferenceNo@StringToken@@UBEHXZ" PURGE="0" COMMENT="" />
    <EXPORT ORDINAL="3951" NAME="?getReferenceNo@Token@@UBEHXZ" PURGE="0" COMMENT="" />
    <EXPORT ORDINAL="3952" NAME="?getRegex@DatatypeValidator@@IBEPAVRegularExpression@@XZ" PURGE="0" COMMENT="" />
    <EXPORT ORDINAL="3953" NAME="?getRelatedException@DOMErrorImpl@@UBEPAXXZ" PURGE="0" COMMENT="" />
    <EXPORT ORDINAL="3954" NAME="?getRetVal@XMLDateTime@@CAHHH@Z" PURGE="0" COMMENT="" />
    <EXPORT ORDINAL="3955" NAME="?getRoot@DOMNodeIteratorImpl@@UAEPAVDOMNode@@XZ" PURGE="0" COMMENT="" />
    <EXPORT ORDINAL="3956" NAME="?getRoot@DOMTreeWalkerImpl@@UAEPAVDOMNode@@XZ" PURGE="0" COMMENT="" />
    <EXPORT ORDINAL="3957" NAME="?getRoot@DOM_NodeIterator@@QAE?AVDOM_Node@@XZ" PURGE="4" COMMENT="" />
    <EXPORT ORDINAL="3958" NAME="?getRoot@DOM_TreeWalker@@QAE?AVDOM_Node@@XZ" PURGE="4" COMMENT="" />
    <EXPORT ORDINAL="3959" NAME="?getRoot@NodeIteratorImpl@@QAE?AVDOM_Node@@XZ" PURGE="4" COMMENT="" />
    <EXPORT ORDINAL="3960" NAME="?getRoot@TreeWalkerImpl@@QAE?AVDOM_Node@@XZ" PURGE="4" COMMENT="" />
    <EXPORT ORDINAL="3961" NAME="?getRootElemId@DTDGrammar@@QAEIXZ" PURGE="0" COMMENT="" />
    <EXPORT ORDINAL="3962" NAME="?getRootGrammar@DOMBuilderImpl@@UBEPAVGrammar@@XZ" PURGE="0" COMMENT="" />
    <EXPORT ORDINAL="3963" NAME="?getRootGrammar@DOMParser@@QAEPAVGrammar@@XZ" PURGE="0" COMMENT="" />
    <EXPORT ORDINAL="3964" NAME="?getRootGrammar@SAX2XMLReaderImpl@@UAEPAVGrammar@@XZ" PURGE="0" COMMENT="" />
    <EXPORT ORDINAL="3965" NAME="?getRootGrammar@SAXParser@@QAEPAVGrammar@@XZ" PURGE="0" COMMENT="" />
    <EXPORT ORDINAL="3966" NAME="?getRootGrammar@XMLScanner@@QBEPAVGrammar@@XZ" PURGE="0" COMMENT="" />
    <EXPORT ORDINAL="3967" NAME="?getRootGrammar@XercesDOMParser@@QAEPAVGrammar@@XZ" PURGE="0" COMMENT="" />
    <EXPORT ORDINAL="3968" NAME="?getSawFatal@XSDDOMParser@@QBE_NXZ" PURGE="0" COMMENT="" />
    <EXPORT ORDINAL="3969" NAME="?getScale@XMLBigDecimal@@QBEIXZ" PURGE="0" COMMENT="" />
    <EXPORT ORDINAL="3970" NAME="?getScanner@AbstractDOMParser@@IBEPAVXMLScanner@@XZ" PURGE="0" COMMENT="" />
    <EXPORT ORDINAL="3971" NAME="?getScanner@DOMParser@@QBEABVXMLScanner@@XZ" PURGE="0" COMMENT="" />
    <EXPORT ORDINAL="3972" NAME="?getScanner@SAXParser@@IBEABVXMLScanner@@XZ" PURGE="0" COMMENT="" />
    <EXPORT ORDINAL="3973" NAME="?getScanner@XMLValidator@@IAEPAVXMLScanner@@XZ" PURGE="0" COMMENT="" />
    <EXPORT ORDINAL="3974" NAME="?getScanner@XMLValidator@@IBEPBVXMLScanner@@XZ" PURGE="0" COMMENT="" />
    <EXPORT ORDINAL="3975" NAME="?getScheme@XMLUri@@QBEPBGXZ" PURGE="0" COMMENT="" />
    <EXPORT ORDINAL="3976" NAME="?getScope@XercesGroupInfo@@QBEHXZ" PURGE="0" COMMENT="" />
    <EXPORT ORDINAL="3977" NAME="?getScopeDefined@ComplexTypeInfo@@QBEHXZ" PURGE="0" COMMENT="" />
    <EXPORT ORDINAL="3978" NAME="?getSelectedNode@DOMRangeImpl@@AAEPAVDOMNode@@PAV2@H@Z" PURGE="8" COMMENT="" />
    <EXPORT ORDINAL="3979" NAME="?getSelectedNode@RangeImpl@@AAE?AVDOM_Node@@V2@H@Z" PURGE="12" COMMENT="" />
    <EXPORT ORDINAL="3980" NAME="?getSelector@IdentityConstraint@@QBEPAVIC_Selector@@XZ" PURGE="0" COMMENT="" />
    <EXPORT ORDINAL="3981" NAME="?getSeverity@DOMErrorImpl@@UBEFXZ" PURGE="0" COMMENT="" />
    <EXPORT ORDINAL="3982" NAME="?getSign@XMLAbstractDoubleFloat@@UBEHXZ" PURGE="-1" COMMENT="" />
    <EXPORT ORDINAL="3983" NAME="?getSign@XMLBigDecimal@@UBEHXZ" PURGE="0" COMMENT="" />
    <EXPORT ORDINAL="3984" NAME="?getSign@XMLBigInteger@@QBEHXZ" PURGE="0" COMMENT="" />
    <EXPORT ORDINAL="3985" NAME="?getSign@XMLDateTime@@UBEHXZ" PURGE="0" COMMENT="" />
    <EXPORT ORDINAL="3986" NAME="?getSize@BinFileInputStream@@QBEIXZ" PURGE="0" COMMENT="" />
    <EXPORT ORDINAL="3987" NAME="?getSize@Op@@UBEHXZ" PURGE="8" COMMENT="" />
    <EXPORT ORDINAL="3988" NAME="?getSize@UnionOp@@UBEHXZ" PURGE="0" COMMENT="" />
    <EXPORT ORDINAL="3989" NAME="?getSource@XMLReader@@QBE?AW4Sources@1@XZ" PURGE="0" COMMENT="" />
    <EXPORT ORDINAL="3990" NAME="?getSpaces@ReaderMgr@@QAEXAAVXMLBuffer@@@Z" PURGE="4" COMMENT="" />
    <EXPORT ORDINAL="3991" NAME="?getSpaces@XMLReader@@QAE_NAAVXMLBuffer@@@Z" PURGE="4" COMMENT="" />
    <EXPORT ORDINAL="3992" NAME="?getSpecified@AttrImpl@@UAE_NXZ" PURGE="0" COMMENT="" />
    <EXPORT ORDINAL="3993" NAME="?getSpecified@DOMAttrImpl@@UBE_NXZ" PURGE="0" COMMENT="" />
    <EXPORT ORDINAL="3994" NAME="?getSpecified@DOM_Attr@@QBE_NXZ" PURGE="-1" COMMENT="" />
    <EXPORT ORDINAL="3995" NAME="?getSpecified@XMLAttr@@QBE_NXZ" PURGE="0" COMMENT="" />
    <EXPORT ORDINAL="3996" NAME="?getSrcFile@XMLException@@QBEPBDXZ" PURGE="0" COMMENT="" />
    <EXPORT ORDINAL="3997" NAME="?getSrcLine@XMLException@@QBEIXZ" PURGE="0" COMMENT="" />
    <EXPORT ORDINAL="3998" NAME="?getSrcOffset@ReaderMgr@@QBEIXZ" PURGE="0" COMMENT="" />
    <EXPORT ORDINAL="3999" NAME="?getSrcOffset@XMLReader@@QBEIXZ" PURGE="0" COMMENT="" />
    <EXPORT ORDINAL="4000" NAME="?getSrcOffset@XMLScanner@@QBEIXZ" PURGE="0" COMMENT="" />
    <EXPORT ORDINAL="4001" NAME="?getStandalone@DOMDocumentImpl@@UBE_NXZ" PURGE="0" COMMENT="" />
    <EXPORT ORDINAL="4002" NAME="?getStandalone@DOM_XMLDecl@@QBE?AVDOMString@@XZ" PURGE="4" COMMENT="" />
    <EXPORT ORDINAL="4003" NAME="?getStandalone@XMLDeclImpl@@UBE?AVDOMString@@XZ" PURGE="4" COMMENT="" />
    <EXPORT ORDINAL="4004" NAME="?getStandalone@XMLScanner@@QBE_NXZ" PURGE="0" COMMENT="" />
    <EXPORT ORDINAL="4005" NAME="?getStartContainer@DOMRangeImpl@@UBEPAVDOMNode@@XZ" PURGE="0" COMMENT="" />
    <EXPORT ORDINAL="4006" NAME="?getStartContainer@DOM_Range@@QBE?AVDOM_Node@@XZ" PURGE="4" COMMENT="" />
    <EXPORT ORDINAL="4007" NAME="?getStartContainer@RangeImpl@@QBE?AVDOM_Node@@XZ" PURGE="4" COMMENT="" />
    <EXPORT ORDINAL="4008" NAME="?getStartOffset@DOMRangeImpl@@UBEKXZ" PURGE="0" COMMENT="" />
    <EXPORT ORDINAL="4009" NAME="?getStartOffset@DOM_Range@@QBEIXZ" PURGE="0" COMMENT="" />
    <EXPORT ORDINAL="4010" NAME="?getStartOffset@RangeImpl@@QBEIXZ" PURGE="0" COMMENT="" />
    <EXPORT ORDINAL="4011" NAME="?getStartPos@Match@@QBEHH@Z" PURGE="4" COMMENT="" />
    <EXPORT ORDINAL="4012" NAME="?getState@RegxParser@@QBEGXZ" PURGE="0" COMMENT="" />
    <EXPORT ORDINAL="4013" NAME="?getStep@XercesLocationPath@@QBEPAVXercesStep@@I@Z" PURGE="4" COMMENT="" />
    <EXPORT ORDINAL="4014" NAME="?getStepSize@XercesLocationPath@@QBEIXZ" PURGE="0" COMMENT="" />
    <EXPORT ORDINAL="4015" NAME="?getStrictErrorChecking@DOMDocumentImpl@@UBE_NXZ" PURGE="0" COMMENT="" />
    <EXPORT ORDINAL="4016" NAME="?getString@StringToken@@UBEPBGXZ" PURGE="0" COMMENT="" />
    <EXPORT ORDINAL="4017" NAME="?getString@Token@@UBEPBGXZ" PURGE="0" COMMENT="" />
    <EXPORT ORDINAL="4018" NAME="?getStringBegin@TokenFactory@@QAEPAVToken@@XZ" PURGE="0" COMMENT="" />
    <EXPORT ORDINAL="4019" NAME="?getStringEnd2@TokenFactory@@QAEPAVToken@@XZ" PURGE="0" COMMENT="" />
    <EXPORT ORDINAL="4020" NAME="?getStringEnd@TokenFactory@@QAEPAVToken@@XZ" PURGE="0" COMMENT="" />
    <EXPORT ORDINAL="4021" NAME="?getSubstituteGroupElemDecl@TraverseSchema@@AAEPAVSchemaElementDecl@@QBVDOMElement@@QBGAA_N@Z" PURGE="12" COMMENT="" />
    <EXPORT ORDINAL="4022" NAME="?getSubstitutionGroupElem@SchemaElementDecl@@QBEPAV1@XZ" PURGE="0" COMMENT="" />
    <EXPORT ORDINAL="4023" NAME="?getSystemId@DOMDocumentTypeImpl@@UBEPBGXZ" PURGE="0" COMMENT="" />
    <EXPORT ORDINAL="4024" NAME="?getSystemId@DOMEntityImpl@@UBEPBGXZ" PURGE="0" COMMENT="" />
    <EXPORT ORDINAL="4025" NAME="?getSystemId@DOMNotationImpl@@UBEPBGXZ" PURGE="0" COMMENT="" />
    <EXPORT ORDINAL="4026" NAME="?getSystemId@DOM_DocumentType@@QBE?AVDOMString@@XZ" PURGE="4" COMMENT="" />
    <EXPORT ORDINAL="4027" NAME="?getSystemId@DOM_Entity@@QBE?AVDOMString@@XZ" PURGE="4" COMMENT="" />
    <EXPORT ORDINAL="4028" NAME="?getSystemId@DOM_Notation@@QBE?AVDOMString@@XZ" PURGE="4" COMMENT="" />
    <EXPORT ORDINAL="4029" NAME="?getSystemId@DocumentTypeImpl@@UAE?AVDOMString@@XZ" PURGE="4" COMMENT="" />
    <EXPORT ORDINAL="4030" NAME="?getSystemId@EntityImpl@@UAE?AVDOMString@@XZ" PURGE="4" COMMENT="" />
    <EXPORT ORDINAL="4031" NAME="?getSystemId@InputSource@@QBEPBGXZ" PURGE="0" COMMENT="" />
    <EXPORT ORDINAL="4032" NAME="?getSystemId@NotationImpl@@UAE?AVDOMString@@XZ" PURGE="4" COMMENT="" />
    <EXPORT ORDINAL="4033" NAME="?getSystemId@ReaderMgr@@UBEPBGXZ" PURGE="0" COMMENT="" />
    <EXPORT ORDINAL="4034" NAME="?getSystemId@SAXParseException@@QBEPBGXZ" PURGE="0" COMMENT="" />
    <EXPORT ORDINAL="4035" NAME="?getSystemId@Wrapper4DOMInputSource@@QBEPBGXZ" PURGE="-1" COMMENT="" />
    <EXPORT ORDINAL="4036" NAME="?getSystemId@Wrapper4InputSource@@UBEPBGXZ" PURGE="0" COMMENT="" />
    <EXPORT ORDINAL="4037" NAME="?getSystemId@XMLEntityDecl@@QBEPBGXZ" PURGE="0" COMMENT="" />
    <EXPORT ORDINAL="4038" NAME="?getSystemId@XMLNotationDecl@@QBEPBGXZ" PURGE="0" COMMENT="" />
    <EXPORT ORDINAL="4039" NAME="?getSystemId@XMLReader@@QBEPBGXZ" PURGE="0" COMMENT="" />
    <EXPORT ORDINAL="4040" NAME="?getSystemId@XSDLocator@@UBEPBGXZ" PURGE="0" COMMENT="" />
    <EXPORT ORDINAL="4041" NAME="?getTagName@DOMElementImpl@@UBEPBGXZ" PURGE="0" COMMENT="" />
    <EXPORT ORDINAL="4042" NAME="?getTagName@DOM_Element@@QBE?AVDOMString@@XZ" PURGE="4" COMMENT="" />
    <EXPORT ORDINAL="4043" NAME="?getTagName@ElementImpl@@UAE?AVDOMString@@XZ" PURGE="4" COMMENT="" />
    <EXPORT ORDINAL="4044" NAME="?getTarget@DOMProcessingInstructionImpl@@UBEPBGXZ" PURGE="0" COMMENT="" />
    <EXPORT ORDINAL="4045" NAME="?getTarget@DOM_ProcessingInstruction@@QBE?AVDOMString@@XZ" PURGE="4" COMMENT="" />
    <EXPORT ORDINAL="4046" NAME="?getTarget@ProcessingInstructionImpl@@UAE?AVDOMString@@XZ" PURGE="4" COMMENT="" />
    <EXPORT ORDINAL="4047" NAME="?getTargetNamespace@DTDGrammar@@UBEPBGXZ" PURGE="0" COMMENT="" />
    <EXPORT ORDINAL="4048" NAME="?getTargetNamespace@SchemaGrammar@@UBEPBGXZ" PURGE="0" COMMENT="" />
    <EXPORT ORDINAL="4049" NAME="?getTargetNamespaceString@TraverseSchema@@AAEPBGQBVDOMElement@@@Z" PURGE="4" COMMENT="" />
    <EXPORT ORDINAL="4050" NAME="?getTextContent@DOMAttrImpl@@UBEPBGXZ" PURGE="0" COMMENT="" />
    <EXPORT ORDINAL="4051" NAME="?getTextContent@DOMCDATASectionImpl@@UBEPBGXZ" PURGE="0" COMMENT="" />
    <EXPORT ORDINAL="4052" NAME="?getTextContent@DOMCommentImpl@@UBEPBGXZ" PURGE="0" COMMENT="" />
    <EXPORT ORDINAL="4053" NAME="?getTextContent@DOMDocumentFragmentImpl@@UBEPBGXZ" PURGE="0" COMMENT="" />
    <EXPORT ORDINAL="4054" NAME="?getTextContent@DOMDocumentImpl@@UBEPBGXZ" PURGE="0" COMMENT="" />
    <EXPORT ORDINAL="4055" NAME="?getTextContent@DOMDocumentTypeImpl@@UBEPBGXZ" PURGE="0" COMMENT="" />
    <EXPORT ORDINAL="4056" NAME="?getTextContent@DOMElementImpl@@UBEPBGXZ" PURGE="0" COMMENT="" />
    <EXPORT ORDINAL="4057" NAME="?getTextContent@DOMEntityImpl@@UBEPBGXZ" PURGE="0" COMMENT="" />
    <EXPORT ORDINAL="4058" NAME="?getTextContent@DOMEntityReferenceImpl@@UBEPBGXZ" PURGE="0" COMMENT="" />
    <EXPORT ORDINAL="4059" NAME="?getTextContent@DOMNodeImpl@@QBEPBGXZ" PURGE="0" COMMENT="" />
    <EXPORT ORDINAL="4060" NAME="?getTextContent@DOMNotationImpl@@UBEPBGXZ" PURGE="0" COMMENT="" />
    <EXPORT ORDINAL="4061" NAME="?getTextContent@DOMProcessingInstructionImpl@@UBEPBGXZ" PURGE="0" COMMENT="" />
    <EXPORT ORDINAL="4062" NAME="?getTextContent@DOMTextImpl@@UBEPBGXZ" PURGE="0" COMMENT="" />
    <EXPORT ORDINAL="4063" NAME="?getThrowAtEnd@XMLReader@@QBE_NXZ" PURGE="0" COMMENT="" />
    <EXPORT ORDINAL="4064" NAME="?getThrowEOE@ReaderMgr@@QBE_NXZ" PURGE="0" COMMENT="" />
    <EXPORT ORDINAL="4065" NAME="?getTime@XMLDateTime@@AAEXXZ" PURGE="0" COMMENT="" />
    <EXPORT ORDINAL="4066" NAME="?getTimeZone@XMLDateTime@@AAEXH@Z" PURGE="4" COMMENT="" />
    <EXPORT ORDINAL="4067" NAME="?getToCreateXMLDeclTypeNode@DOMParser@@QBE_NXZ" PURGE="0" COMMENT="" />
    <EXPORT ORDINAL="4068" NAME="?getToken@Op@@UBEPBVToken@@XZ" PURGE="8" COMMENT="" />
    <EXPORT ORDINAL="4069" NAME="?getToken@RangeOp@@UBEPBVToken@@XZ" PURGE="0" COMMENT="" />
    <EXPORT ORDINAL="4070" NAME="?getTokenFactory@RangeTokenMap@@QBEPAVTokenFactory@@XZ" PURGE="0" COMMENT="" />
    <EXPORT ORDINAL="4071" NAME="?getTokenFactory@RegxParser@@QBEPAVTokenFactory@@XZ" PURGE="0" COMMENT="" />
    <EXPORT ORDINAL="4072" NAME="?getTokenForShorthand@ParserForXMLSchema@@MAEPAVToken@@H@Z" PURGE="4" COMMENT="" />
    <EXPORT ORDINAL="4073" NAME="?getTokenForShorthand@RegxParser@@MAEPAVToken@@H@Z" PURGE="4" COMMENT="" />
    <EXPORT ORDINAL="4074" NAME="?getTokenRegistry@RangeTokenMap@@IBEPAV?$RefHashTableOf@VRangeTokenElemMap@@@@XZ" PURGE="0" COMMENT="" />
    <EXPORT ORDINAL="4075" NAME="?getTokenType@Token@@QBEGXZ" PURGE="0" COMMENT="" />
    <EXPORT ORDINAL="4076" NAME="?getTotalDigit@XMLBigDecimal@@QBEIXZ" PURGE="0" COMMENT="" />
    <EXPORT ORDINAL="4077" NAME="?getTotalDigit@XMLBigInteger@@QBEHXZ" PURGE="0" COMMENT="" />
    <EXPORT ORDINAL="4078" NAME="?getTotalDigits@DecimalDatatypeValidator@@ABEIXZ" PURGE="0" COMMENT="" />
    <EXPORT ORDINAL="4079" NAME="?getTranscoder@XMLFormatter@@QBEPBVXMLTranscoder@@XZ" PURGE="0" COMMENT="" />
    <EXPORT ORDINAL="4080" NAME="?getType@ArrayIndexOutOfBoundsException@@UBEPBGXZ" PURGE="0" COMMENT="" />
    <EXPORT ORDINAL="4081" NAME="?getType@DatatypeValidator@@QBE?AW4ValidatorType@1@XZ" PURGE="0" COMMENT="" />
    <EXPORT ORDINAL="4082" NAME="?getType@EmptyStackException@@UBEPBGXZ" PURGE="0" COMMENT="" />
    <EXPORT ORDINAL="4083" NAME="?getType@IC_Key@@UBEFXZ" PURGE="0" COMMENT="" />
    <EXPORT ORDINAL="4084" NAME="?getType@IC_KeyRef@@UBEFXZ" PURGE="0" COMMENT="" />
    <EXPORT ORDINAL="4085" NAME="?getType@IC_Unique@@UBEFXZ" PURGE="0" COMMENT="" />
    <EXPORT ORDINAL="4086" NAME="?getType@IOException@@UBEPBGXZ" PURGE="0" COMMENT="" />
    <EXPORT ORDINAL="4087" NAME="?getType@IllegalArgumentException@@UBEPBGXZ" PURGE="0" COMMENT="" />
    <EXPORT ORDINAL="4088" NAME="?getType@InvalidCastException@@UBEPBGXZ" PURGE="0" COMMENT="" />
    <EXPORT ORDINAL="4089" NAME="?getType@InvalidDatatypeFacetException@@UBEPBGXZ" PURGE="0" COMMENT="" />
    <EXPORT ORDINAL="4090" NAME="?getType@InvalidDatatypeValueException@@UBEPBGXZ" PURGE="0" COMMENT="" />
    <EXPORT ORDINAL="4091" NAME="?getType@MalformedURLException@@UBEPBGXZ" PURGE="0" COMMENT="" />
    <EXPORT ORDINAL="4092" NAME="?getType@NetAccessorException@@UBEPBGXZ" PURGE="0" COMMENT="" />
    <EXPORT ORDINAL="4093" NAME="?getType@NoSuchElementException@@UBEPBGXZ" PURGE="0" COMMENT="" />
    <EXPORT ORDINAL="4094" NAME="?getType@NullPointerException@@UBEPBGXZ" PURGE="0" COMMENT="" />
    <EXPORT ORDINAL="4095" NAME="?getType@NumberFormatException@@UBEPBGXZ" PURGE="0" COMMENT="" />
    <EXPORT ORDINAL="4096" NAME="?getType@ParseException@@UBEPBGXZ" PURGE="0" COMMENT="" />
    <EXPORT ORDINAL="4097" NAME="?getType@RuntimeException@@UBEPBGXZ" PURGE="0" COMMENT="" />
    <EXPORT ORDINAL="4098" NAME="?getType@SchemaDateTimeException@@UBEPBGXZ" PURGE="0" COMMENT="" />
    <EXPORT ORDINAL="4099" NAME="?getType@TranscodingException@@UBEPBGXZ" PURGE="0" COMMENT="" />
    <EXPORT ORDINAL="4100" NAME="?getType@UTFDataFormatException@@UBEPBGXZ" PURGE="0" COMMENT="" />
    <EXPORT ORDINAL="4101" NAME="?getType@UnexpectedEOFException@@UBEPBGXZ" PURGE="0" COMMENT="" />
    <EXPORT ORDINAL="4102" NAME="?getType@UnsupportedEncodingException@@UBEPBGXZ" PURGE="0" COMMENT="" />
    <EXPORT ORDINAL="4103" NAME="?getType@VecAttrListImpl@@UBEPBGI@Z" PURGE="4" COMMENT="" />
    <EXPORT ORDINAL="4104" NAME="?getType@VecAttrListImpl@@UBEPBGQBG@Z" PURGE="4" COMMENT="" />
    <EXPORT ORDINAL="4105" NAME="?getType@VecAttributesImpl@@UBEPBGI@Z" PURGE="4" COMMENT="" />
    <EXPORT ORDINAL="4106" NAME="?getType@VecAttributesImpl@@UBEPBGQBG0@Z" PURGE="8" COMMENT="" />
    <EXPORT ORDINAL="4107" NAME="?getType@VecAttributesImpl@@UBEPBGQBG@Z" PURGE="4" COMMENT="" />
    <EXPORT ORDINAL="4108" NAME="?getType@XMLAttDef@@QBE?AW4AttTypes@1@XZ" PURGE="0" COMMENT="" />
    <EXPORT ORDINAL="4109" NAME="?getType@XMLAttr@@QBE?AW4AttTypes@XMLAttDef@@XZ" PURGE="0" COMMENT="" />
    <EXPORT ORDINAL="4110" NAME="?getType@XMLPlatformUtilsException@@UBEPBGXZ" PURGE="0" COMMENT="" />
    <EXPORT ORDINAL="4111" NAME="?getType@XMLReader@@QBE?AW4Types@1@XZ" PURGE="0" COMMENT="" />
    <EXPORT ORDINAL="4112" NAME="?getType@XMLUniCharacter@@SAGG@Z" PURGE="0" COMMENT="" />
    <EXPORT ORDINAL="4113" NAME="?getType@XPathException@@UBEPBGXZ" PURGE="0" COMMENT="" />
    <EXPORT ORDINAL="4114" NAME="?getType@XercesNodeTest@@QBEFXZ" PURGE="0" COMMENT="" />
    <EXPORT ORDINAL="4115" NAME="?getTypeInfoFromNS@TraverseSchema@@AAEPAVComplexTypeInfo@@QBVDOMElement@@QBG1@Z" PURGE="12" COMMENT="" />
    <EXPORT ORDINAL="4116" NAME="?getTypeName@ComplexTypeInfo@@QBEPAGXZ" PURGE="0" COMMENT="" />
    <EXPORT ORDINAL="4117" NAME="?getURI@DOMLocatorImpl@@UBEPBGXZ" PURGE="0" COMMENT="" />
    <EXPORT ORDINAL="4118" NAME="?getURI@QName@@QBEIXZ" PURGE="0" COMMENT="" />
    <EXPORT ORDINAL="4119" NAME="?getURI@VecAttributesImpl@@UBEPBGI@Z" PURGE="4" COMMENT="" />
    <EXPORT ORDINAL="4120" NAME="?getURI@XMLElementDecl@@QBEIXZ" PURGE="0" COMMENT="" />
    <EXPORT ORDINAL="4121" NAME="?getURIId@XMLAttr@@QBEIXZ" PURGE="0" COMMENT="" />
    <EXPORT ORDINAL="4122" NAME="?getURIStringPool@XMLScanner@@QAEPAVXMLStringPool@@XZ" PURGE="0" COMMENT="" />
    <EXPORT ORDINAL="4123" NAME="?getURIStringPool@XMLScanner@@QBEPBVXMLStringPool@@XZ" PURGE="0" COMMENT="" />
    <EXPORT ORDINAL="4124" NAME="?getURIText@DOMBuilderImpl@@UBEPBGI@Z" PURGE="4" COMMENT="" />
    <EXPORT ORDINAL="4125" NAME="?getURIText@DOMParser@@QAEPBGI@Z" PURGE="4" COMMENT="" />
    <EXPORT ORDINAL="4126" NAME="?getURIText@SAX2XMLReaderImpl@@UAEPBGI@Z" PURGE="4" COMMENT="" />
    <EXPORT ORDINAL="4127" NAME="?getURIText@SAXParser@@QAEPBGI@Z" PURGE="4" COMMENT="" />
    <EXPORT ORDINAL="4128" NAME="?getURIText@XMLScanner@@QBEPBGI@Z" PURGE="4" COMMENT="" />
    <EXPORT ORDINAL="4129" NAME="?getURIText@XMLScanner@@QBE_NIAAVXMLBuffer@@@Z" PURGE="8" COMMENT="" />
    <EXPORT ORDINAL="4130" NAME="?getURIText@XercesDOMParser@@QAEPBGI@Z" PURGE="4" COMMENT="" />
    <EXPORT ORDINAL="4131" NAME="?getURLText@XMLURL@@QBEPBGXZ" PURGE="0" COMMENT="" />
    <EXPORT ORDINAL="4132" NAME="?getUniCategory@UnicodeRangeFactory@@AAEGG@Z" PURGE="4" COMMENT="" />
    <EXPORT ORDINAL="4133" NAME="?getUnknownNamespaceId@XMLScanner@@QBEIXZ" PURGE="0" COMMENT="" />
    <EXPORT ORDINAL="4134" NAME="?getUpToCharOrWS@ReaderMgr@@QAEXAAVXMLBuffer@@G@Z" PURGE="8" COMMENT="" />
    <EXPORT ORDINAL="4135" NAME="?getUpToCharOrWS@XMLReader@@QAE_NAAVXMLBuffer@@G@Z" PURGE="8" COMMENT="" />
    <EXPORT ORDINAL="4136" NAME="?getUsed@XMLRefInfo@@QBE_NXZ" PURGE="0" COMMENT="" />
    <EXPORT ORDINAL="4137" NAME="?getUser@XMLURL@@QBEPBGXZ" PURGE="0" COMMENT="" />
    <EXPORT ORDINAL="4138" NAME="?getUserData@DOMAttrImpl@@UBEPAXPBG@Z" PURGE="4" COMMENT="" />
    <EXPORT ORDINAL="4139" NAME="?getUserData@DOMCDATASectionImpl@@UBEPAXPBG@Z" PURGE="4" COMMENT="" />
    <EXPORT ORDINAL="4140" NAME="?getUserData@DOMCommentImpl@@UBEPAXPBG@Z" PURGE="4" COMMENT="" />
    <EXPORT ORDINAL="4141" NAME="?getUserData@DOMDocumentFragmentImpl@@UBEPAXPBG@Z" PURGE="4" COMMENT="" />
    <EXPORT ORDINAL="4142" NAME="?getUserData@DOMDocumentImpl@@QBEPAXPBVDOMNodeImpl@@PBG@Z" PURGE="8" COMMENT="" />
    <EXPORT ORDINAL="4143" NAME="?getUserData@DOMDocumentImpl@@UBEPAXPBG@Z" PURGE="4" COMMENT="" />
    <EXPORT ORDINAL="4144" NAME="?getUserData@DOMDocumentTypeImpl@@UBEPAXPBG@Z" PURGE="4" COMMENT="" />
    <EXPORT ORDINAL="4145" NAME="?getUserData@DOMElementImpl@@UBEPAXPBG@Z" PURGE="4" COMMENT="" />
    <EXPORT ORDINAL="4146" NAME="?getUserData@DOMEntityImpl@@UBEPAXPBG@Z" PURGE="4" COMMENT="" />
    <EXPORT ORDINAL="4147" NAME="?getUserData@DOMEntityReferenceImpl@@UBEPAXPBG@Z" PURGE="4" COMMENT="" />
    <EXPORT ORDINAL="4148" NAME="?getUserData@DOMNodeImpl@@QBEPAXPBG@Z" PURGE="4" COMMENT="" />
    <EXPORT ORDINAL="4149" NAME="?getUserData@DOMNotationImpl@@UBEPAXPBG@Z" PURGE="4" COMMENT="" />
    <EXPORT ORDINAL="4150" NAME="?getUserData@DOMProcessingInstructionImpl@@UBEPAXPBG@Z" PURGE="4" COMMENT="" />
    <EXPORT ORDINAL="4151" NAME="?getUserData@DOMTextImpl@@UBEPAXPBG@Z" PURGE="4" COMMENT="" />
    <EXPORT ORDINAL="4152" NAME="?getUserData@DOM_Node@@QBEPAXXZ" PURGE="-1" COMMENT="" />
    <EXPORT ORDINAL="4153" NAME="?getUserData@DocumentImpl@@UAEPAXPAVNodeImpl@@@Z" PURGE="4" COMMENT="" />
    <EXPORT ORDINAL="4154" NAME="?getUserData@DocumentImpl@@UAEPAXXZ" PURGE="0" COMMENT="" />
    <EXPORT ORDINAL="4155" NAME="?getUserData@NodeImpl@@UAEPAXXZ" PURGE="0" COMMENT="" />
    <EXPORT ORDINAL="4156" NAME="?getUserInfo@XMLUri@@QBEPBGXZ" PURGE="0" COMMENT="" />
    <EXPORT ORDINAL="4157" NAME="?getValidSubstitutionGroups@SchemaGrammar@@QBEPAV?$RefHash2KeysTableOf@V?$ValueVectorOf@PAVSchemaElementDecl@@@@@@XZ" PURGE="0" COMMENT="" />
    <EXPORT ORDINAL="4158" NAME="?getValidated@DTDGrammar@@UBE_NXZ" PURGE="0" COMMENT="" />
    <EXPORT ORDINAL="4159" NAME="?getValidated@SchemaGrammar@@UBE_NXZ" PURGE="0" COMMENT="" />
    <EXPORT ORDINAL="4160" NAME="?getValidationConstraintFatal@AbstractDOMParser@@QBE_NXZ" PURGE="0" COMMENT="" />
    <EXPORT ORDINAL="4161" NAME="?getValidationConstraintFatal@DOMParser@@QBE_NXZ" PURGE="0" COMMENT="" />
    <EXPORT ORDINAL="4162" NAME="?getValidationConstraintFatal@SAX2XMLReaderImpl@@UBE_NXZ" PURGE="0" COMMENT="" />
    <EXPORT ORDINAL="4163" NAME="?getValidationConstraintFatal@SAXParser@@QBE_NXZ" PURGE="0" COMMENT="" />
    <EXPORT ORDINAL="4164" NAME="?getValidationConstraintFatal@XMLScanner@@QBE_NXZ" PURGE="0" COMMENT="" />
    <EXPORT ORDINAL="4165" NAME="?getValidationFlag@ElemStack@@QAE_NXZ" PURGE="0" COMMENT="" />
    <EXPORT ORDINAL="4166" NAME="?getValidationSchemaFullChecking@AbstractDOMParser@@QBE_NXZ" PURGE="0" COMMENT="" />
    <EXPORT ORDINAL="4167" NAME="?getValidationSchemaFullChecking@DOMParser@@QBE_NXZ" PURGE="0" COMMENT="" />
    <EXPORT ORDINAL="4168" NAME="?getValidationSchemaFullChecking@SAXParser@@QBE_NXZ" PURGE="0" COMMENT="" />
    <EXPORT ORDINAL="4169" NAME="?getValidationSchemaFullChecking@XMLScanner@@QBE_NXZ" PURGE="0" COMMENT="" />
    <EXPORT ORDINAL="4170" NAME="?getValidationScheme@AbstractDOMParser@@QBE?AW4ValSchemes@1@XZ" PURGE="0" COMMENT="" />
    <EXPORT ORDINAL="4171" NAME="?getValidationScheme@DOMParser@@QBE?AW4ValSchemes@1@XZ" PURGE="0" COMMENT="" />
    <EXPORT ORDINAL="4172" NAME="?getValidationScheme@SAXParser@@QBE?AW4ValSchemes@1@XZ" PURGE="0" COMMENT="" />
    <EXPORT ORDINAL="4173" NAME="?getValidationScheme@XMLScanner@@QBE?AW4ValSchemes@1@XZ" PURGE="0" COMMENT="" />
    <EXPORT ORDINAL="4174" NAME="?getValidator@AbstractDOMParser@@QBEABVXMLValidator@@XZ" PURGE="0" COMMENT="" />
    <EXPORT ORDINAL="4175" NAME="?getValidator@DOMParser@@QBEABVXMLValidator@@XZ" PURGE="0" COMMENT="" />
    <EXPORT ORDINAL="4176" NAME="?getValidator@SAX2XMLReaderImpl@@UBEPAVXMLValidator@@XZ" PURGE="0" COMMENT="" />
    <EXPORT ORDINAL="4177" NAME="?getValidator@SAXParser@@QBEABVXMLValidator@@XZ" PURGE="0" COMMENT="" />
    <EXPORT ORDINAL="4178" NAME="?getValidator@XMLScanner@@QAEPAVXMLValidator@@XZ" PURGE="0" COMMENT="" />
    <EXPORT ORDINAL="4179" NAME="?getValidator@XMLScanner@@QBEPBVXMLValidator@@XZ" PURGE="0" COMMENT="" />
    <EXPORT ORDINAL="4180" NAME="?getValue@AttrImpl@@UAE?AVDOMString@@XZ" PURGE="4" COMMENT="" />
    <EXPORT ORDINAL="4181" NAME="?getValue@DOMAttrImpl@@UBEPBGXZ" PURGE="0" COMMENT="" />
    <EXPORT ORDINAL="4182" NAME="?getValue@DOM_Attr@@QBE?AVDOMString@@XZ" PURGE="4" COMMENT="" />
    <EXPORT ORDINAL="4183" NAME="?getValue@KVStringPair@@QAEPAGXZ" PURGE="0" COMMENT="" />
    <EXPORT ORDINAL="4184" NAME="?getValue@KVStringPair@@QBEPBGXZ" PURGE="0" COMMENT="" />
    <EXPORT ORDINAL="4185" NAME="?getValue@VecAttrListImpl@@UBEPBGI@Z" PURGE="4" COMMENT="" />
    <EXPORT ORDINAL="4186" NAME="?getValue@VecAttrListImpl@@UBEPBGQBD@Z" PURGE="4" COMMENT="" />
    <EXPORT ORDINAL="4187" NAME="?getValue@VecAttrListImpl@@UBEPBGQBG@Z" PURGE="4" COMMENT="" />
    <EXPORT ORDINAL="4188" NAME="?getValue@VecAttributesImpl@@UBEPBGI@Z" PURGE="4" COMMENT="" />
    <EXPORT ORDINAL="4189" NAME="?getValue@VecAttributesImpl@@UBEPBGQBG0@Z" PURGE="8" COMMENT="" />
    <EXPORT ORDINAL="4190" NAME="?getValue@VecAttributesImpl@@UBEPBGQBG@Z" PURGE="4" COMMENT="" />
    <EXPORT ORDINAL="4191" NAME="?getValue@XMLAttDef@@QBEPBGXZ" PURGE="0" COMMENT="" />
    <EXPORT ORDINAL="4192" NAME="?getValue@XMLAttr@@QBEPBGXZ" PURGE="0" COMMENT="" />
    <EXPORT ORDINAL="4193" NAME="?getValue@XMLBigDecimal@@QBEPAVXMLBigInteger@@XZ" PURGE="0" COMMENT="" />
    <EXPORT ORDINAL="4194" NAME="?getValue@XMLEntityDecl@@QBEPBGXZ" PURGE="0" COMMENT="" />
    <EXPORT ORDINAL="4195" NAME="?getValueAt@FieldValueMap@@QBEPAGI@Z" PURGE="4" COMMENT="" />
    <EXPORT ORDINAL="4196" NAME="?getValueFor@FieldValueMap@@QBEPAGQBVIC_Field@@@Z" PURGE="4" COMMENT="" />
    <EXPORT ORDINAL="4197" NAME="?getValueForId@XMLStringPool@@QBEPBGI@Z" PURGE="4" COMMENT="" />
    <EXPORT ORDINAL="4198" NAME="?getValueLen@XMLEntityDecl@@QBEIXZ" PURGE="0" COMMENT="" />
    <EXPORT ORDINAL="4199" NAME="?getValueStore@FieldMatcher@@QBEPAVValueStore@@XZ" PURGE="0" COMMENT="" />
    <EXPORT ORDINAL="4200" NAME="?getValueStoreFor@ValueStoreCache@@QAEPAVValueStore@@QBVIC_Field@@@Z" PURGE="4" COMMENT="" />
    <EXPORT ORDINAL="4201" NAME="?getValueStoreFor@ValueStoreCache@@QAEPAVValueStore@@QBVIdentityConstraint@@@Z" PURGE="4" COMMENT="" />
    <EXPORT ORDINAL="4202" NAME="?getVersion@DOMDocumentImpl@@UBEPBGXZ" PURGE="0" COMMENT="" />
    <EXPORT ORDINAL="4203" NAME="?getVersion@DOMEntityImpl@@UBEPBGXZ" PURGE="0" COMMENT="" />
    <EXPORT ORDINAL="4204" NAME="?getVersion@DOM_XMLDecl@@QBE?AVDOMString@@XZ" PURGE="4" COMMENT="" />
    <EXPORT ORDINAL="4205" NAME="?getVersion@XMLDeclImpl@@UBE?AVDOMString@@XZ" PURGE="4" COMMENT="" />
    <EXPORT ORDINAL="4206" NAME="?getWSFacet@AnySimpleTypeDatatypeValidator@@UBEFXZ" PURGE="0" COMMENT="" />
    <EXPORT ORDINAL="4207" NAME="?getWSFacet@DatatypeValidator@@UBEFXZ" PURGE="0" COMMENT="" />
    <EXPORT ORDINAL="4208" NAME="?getWSFacet@StringDatatypeValidator@@UBEFXZ" PURGE="0" COMMENT="" />
    <EXPORT ORDINAL="4209" NAME="?getWSstring@DatatypeValidator@@IBEPBGF@Z" PURGE="4" COMMENT="" />
    <EXPORT ORDINAL="4210" NAME="?getWhatToShow@DOMNodeIteratorImpl@@UAEKXZ" PURGE="0" COMMENT="" />
    <EXPORT ORDINAL="4211" NAME="?getWhatToShow@DOMTreeWalkerImpl@@UAEKXZ" PURGE="0" COMMENT="" />
    <EXPORT ORDINAL="4212" NAME="?getWhatToShow@DOM_NodeIterator@@QAEKXZ" PURGE="0" COMMENT="" />
    <EXPORT ORDINAL="4213" NAME="?getWhatToShow@DOM_TreeWalker@@QAEKXZ" PURGE="0" COMMENT="" />
    <EXPORT ORDINAL="4214" NAME="?getWhatToShow@NodeIteratorImpl@@QAEKXZ" PURGE="0" COMMENT="" />
    <EXPORT ORDINAL="4215" NAME="?getWhatToShow@TreeWalkerImpl@@QAEKXZ" PURGE="0" COMMENT="" />
    <EXPORT ORDINAL="4216" NAME="?getWholeText@DOMCDATASectionImpl@@UAEPBGXZ" PURGE="0" COMMENT="" />
    <EXPORT ORDINAL="4217" NAME="?getWholeText@DOMTextImpl@@UAEPBGXZ" PURGE="0" COMMENT="" />
    <EXPORT ORDINAL="4218" NAME="?getWordBegin@TokenFactory@@QAEPAVToken@@XZ" PURGE="0" COMMENT="" />
    <EXPORT ORDINAL="4219" NAME="?getWordEdge@TokenFactory@@QAEPAVToken@@XZ" PURGE="0" COMMENT="" />
    <EXPORT ORDINAL="4220" NAME="?getWordEnd@TokenFactory@@QAEPAVToken@@XZ" PURGE="0" COMMENT="" />
    <EXPORT ORDINAL="4221" NAME="?getWordType@RegularExpression@@AAEGQBGHHH@Z" PURGE="16" COMMENT="" />
    <EXPORT ORDINAL="4222" NAME="?getXMLNSNamespaceId@XMLScanner@@QBEIXZ" PURGE="0" COMMENT="" />
    <EXPORT ORDINAL="4223" NAME="?getXMLNamespaceId@XMLScanner@@QBEIXZ" PURGE="0" COMMENT="" />
    <EXPORT ORDINAL="4224" NAME="?getXPath@IC_Field@@QBEPAVXercesXPath@@XZ" PURGE="0" COMMENT="" />
    <EXPORT ORDINAL="4225" NAME="?getXPath@IC_Selector@@QBEPAVXercesXPath@@XZ" PURGE="0" COMMENT="" />
    <EXPORT ORDINAL="4226" NAME="?getXmlString@DOMNodeImpl@@SAPBGXZ" PURGE="0" COMMENT="" />
    <EXPORT ORDINAL="4227" NAME="?getXmlString@NodeImpl@@KA?AVDOMString@@XZ" PURGE="0" COMMENT="" />
    <EXPORT ORDINAL="4228" NAME="?getXmlURIString@DOMNodeImpl@@SAPBGXZ" PURGE="0" COMMENT="" />
    <EXPORT ORDINAL="4229" NAME="?getXmlURIString@NodeImpl@@KA?AVDOMString@@XZ" PURGE="0" COMMENT="" />
    <EXPORT ORDINAL="4230" NAME="?getXmlnsString@DOMNodeImpl@@SAPBGXZ" PURGE="0" COMMENT="" />
    <EXPORT ORDINAL="4231" NAME="?getXmlnsString@NodeImpl@@KA?AVDOMString@@XZ" PURGE="0" COMMENT="" />
    <EXPORT ORDINAL="4232" NAME="?getXmlnsURIString@DOMNodeImpl@@SAPBGXZ" PURGE="0" COMMENT="" />
    <EXPORT ORDINAL="4233" NAME="?getXmlnsURIString@NodeImpl@@KA?AVDOMString@@XZ" PURGE="0" COMMENT="" />
    <EXPORT ORDINAL="4234" NAME="?getYearMonth@XMLDateTime@@AAEXXZ" PURGE="0" COMMENT="" />
    <EXPORT ORDINAL="4235" NAME="?getYesFlow@ConditionOp@@UBEPBVOp@@XZ" PURGE="0" COMMENT="" />
    <EXPORT ORDINAL="4236" NAME="?getYesFlow@Op@@UBEPBV1@XZ" PURGE="8" COMMENT="" />
    <EXPORT ORDINAL="4237" NAME="?gethostbyaddr@BinHTTPURLInputStream@@CAPAUhostent@@PBDHH@Z" PURGE="0" COMMENT="" />
    <EXPORT ORDINAL="4238" NAME="?gethostbyname@BinHTTPURLInputStream@@CAPAUhostent@@PBD@Z" PURGE="0" COMMENT="" />
    <EXPORT ORDINAL="4239" NAME="?handlesDTD@DTDValidator@@UBE_NXZ" PURGE="0" COMMENT="" />
    <EXPORT ORDINAL="4240" NAME="?handlesDTD@SchemaValidator@@UBE_NXZ" PURGE="0" COMMENT="" />
    <EXPORT ORDINAL="4241" NAME="?handlesSchema@DTDValidator@@UBE_NXZ" PURGE="0" COMMENT="" />
    <EXPORT ORDINAL="4242" NAME="?handlesSchema@SchemaValidator@@UBE_NXZ" PURGE="0" COMMENT="" />
    <EXPORT ORDINAL="4243" NAME="?hasAttDefs@ComplexTypeInfo@@QBE_NXZ" PURGE="0" COMMENT="" />
    <EXPORT ORDINAL="4244" NAME="?hasAttDefs@DTDElementDecl@@UBE_NXZ" PURGE="0" COMMENT="" />
    <EXPORT ORDINAL="4245" NAME="?hasAttDefs@SchemaElementDecl@@UBE_NXZ" PURGE="0" COMMENT="" />
    <EXPORT ORDINAL="4246" NAME="?hasAttribute@DOMElementImpl@@UBE_NPBG@Z" PURGE="4" COMMENT="" />
    <EXPORT ORDINAL="4247" NAME="?hasAttribute@DOM_Element@@QBE_NABVDOMString@@@Z" PURGE="4" COMMENT="" />
    <EXPORT ORDINAL="4248" NAME="?hasAttribute@ElementImpl@@UAE_NABVDOMString@@@Z" PURGE="4" COMMENT="" />
    <EXPORT ORDINAL="4249" NAME="?hasAttributeNS@DOMElementImpl@@UBE_NPBG0@Z" PURGE="8" COMMENT="" />
    <EXPORT ORDINAL="4250" NAME="?hasAttributeNS@DOM_Element@@QBE_NABVDOMString@@0@Z" PURGE="8" COMMENT="" />
    <EXPORT ORDINAL="4251" NAME="?hasAttributeNS@ElementImpl@@UAE_NABVDOMString@@0@Z" PURGE="8" COMMENT="" />
    <EXPORT ORDINAL="4252" NAME="?hasAttributes@DOMAttrImpl@@UBE_NXZ" PURGE="0" COMMENT="" />
    <EXPORT ORDINAL="4253" NAME="?hasAttributes@DOMCDATASectionImpl@@UBE_NXZ" PURGE="0" COMMENT="" />
    <EXPORT ORDINAL="4254" NAME="?hasAttributes@DOMCommentImpl@@UBE_NXZ" PURGE="0" COMMENT="" />
    <EXPORT ORDINAL="4255" NAME="?hasAttributes@DOMDocumentFragmentImpl@@UBE_NXZ" PURGE="0" COMMENT="" />
    <EXPORT ORDINAL="4256" NAME="?hasAttributes@DOMDocumentImpl@@UBE_NXZ" PURGE="0" COMMENT="" />
    <EXPORT ORDINAL="4257" NAME="?hasAttributes@DOMDocumentTypeImpl@@UBE_NXZ" PURGE="0" COMMENT="" />
    <EXPORT ORDINAL="4258" NAME="?hasAttributes@DOMElementImpl@@UBE_NXZ" PURGE="0" COMMENT="" />
    <EXPORT ORDINAL="4259" NAME="?hasAttributes@DOMEntityImpl@@UBE_NXZ" PURGE="0" COMMENT="" />
    <EXPORT ORDINAL="4260" NAME="?hasAttributes@DOMEntityReferenceImpl@@UBE_NXZ" PURGE="0" COMMENT="" />
    <EXPORT ORDINAL="4261" NAME="?hasAttributes@DOMNodeImpl@@QBE_NXZ" PURGE="0" COMMENT="" />
    <EXPORT ORDINAL="4262" NAME="?hasAttributes@DOMNotationImpl@@UBE_NXZ" PURGE="0" COMMENT="" />
    <EXPORT ORDINAL="4263" NAME="?hasAttributes@DOMProcessingInstructionImpl@@UBE_NXZ" PURGE="0" COMMENT="" />
    <EXPORT ORDINAL="4264" NAME="?hasAttributes@DOMTextImpl@@UBE_NXZ" PURGE="0" COMMENT="" />
    <EXPORT ORDINAL="4265" NAME="?hasAttributes@DOM_Element@@QBE_NXZ" PURGE="-1" COMMENT="" />
    <EXPORT ORDINAL="4266" NAME="?hasAttributes@DOM_Node@@QBE_NXZ" PURGE="-1" COMMENT="" />
    <EXPORT ORDINAL="4267" NAME="?hasAttributes@ElementImpl@@UAE_NXZ" PURGE="0" COMMENT="" />
    <EXPORT ORDINAL="4268" NAME="?hasAttributes@NodeImpl@@UAE_NXZ" PURGE="0" COMMENT="" />
    <EXPORT ORDINAL="4269" NAME="?hasBackReferences@RegxParser@@QBE_NXZ" PURGE="0" COMMENT="" />
    <EXPORT ORDINAL="4270" NAME="?hasChildNodes@AttrImpl@@UAE_NXZ" PURGE="0" COMMENT="" />
    <EXPORT ORDINAL="4271" NAME="?hasChildNodes@DOMAttrImpl@@UBE_NXZ" PURGE="0" COMMENT="" />
    <EXPORT ORDINAL="4272" NAME="?hasChildNodes@DOMCDATASectionImpl@@UBE_NXZ" PURGE="0" COMMENT="" />
    <EXPORT ORDINAL="4273" NAME="?hasChildNodes@DOMCommentImpl@@UBE_NXZ" PURGE="0" COMMENT="" />
    <EXPORT ORDINAL="4274" NAME="?hasChildNodes@DOMDocumentFragmentImpl@@UBE_NXZ" PURGE="0" COMMENT="" />
    <EXPORT ORDINAL="4275" NAME="?hasChildNodes@DOMDocumentImpl@@UBE_NXZ" PURGE="0" COMMENT="" />
    <EXPORT ORDINAL="4276" NAME="?hasChildNodes@DOMDocumentTypeImpl@@UBE_NXZ" PURGE="0" COMMENT="" />
    <EXPORT ORDINAL="4277" NAME="?hasChildNodes@DOMElementImpl@@UBE_NXZ" PURGE="0" COMMENT="" />
    <EXPORT ORDINAL="4278" NAME="?hasChildNodes@DOMEntityImpl@@UBE_NXZ" PURGE="0" COMMENT="" />
    <EXPORT ORDINAL="4279" NAME="?hasChildNodes@DOMEntityReferenceImpl@@UBE_NXZ" PURGE="0" COMMENT="" />
    <EXPORT ORDINAL="4280" NAME="?hasChildNodes@DOMNodeImpl@@QBE_NXZ" PURGE="0" COMMENT="" />
    <EXPORT ORDINAL="4281" NAME="?hasChildNodes@DOMNotationImpl@@UBE_NXZ" PURGE="0" COMMENT="" />
    <EXPORT ORDINAL="4282" NAME="?hasChildNodes@DOMParentNode@@QBE_NXZ" PURGE="0" COMMENT="" />
    <EXPORT ORDINAL="4283" NAME="?hasChildNodes@DOMProcessingInstructionImpl@@UBE_NXZ" PURGE="0" COMMENT="" />
    <EXPORT ORDINAL="4284" NAME="?hasChildNodes@DOMTextImpl@@UBE_NXZ" PURGE="0" COMMENT="" />
    <EXPORT ORDINAL="4285" NAME="?hasChildNodes@DOM_Entity@@QBE_NXZ" PURGE="-1" COMMENT="" />
    <EXPORT ORDINAL="4286" NAME="?hasChildNodes@DOM_Node@@QBE_NXZ" PURGE="-1" COMMENT="" />
    <EXPORT ORDINAL="4287" NAME="?hasChildNodes@EntityImpl@@UAE_NXZ" PURGE="0" COMMENT="" />
    <EXPORT ORDINAL="4288" NAME="?hasChildNodes@NodeImpl@@UAE_NXZ" PURGE="0" COMMENT="" />
    <EXPORT ORDINAL="4289" NAME="?hasChildNodes@ParentNode@@UAE_NXZ" PURGE="0" COMMENT="" />
    <EXPORT ORDINAL="4290" NAME="?hasDefaults@AttrMapImpl@@UAEX_N@Z" PURGE="4" COMMENT="" />
    <EXPORT ORDINAL="4291" NAME="?hasDefaults@AttrMapImpl@@UAE_NXZ" PURGE="0" COMMENT="" />
    <EXPORT ORDINAL="4292" NAME="?hasDefaults@DOMAttrMapImpl@@UAEX_N@Z" PURGE="4" COMMENT="" />
    <EXPORT ORDINAL="4293" NAME="?hasDefaults@DOMAttrMapImpl@@UAE_NXZ" PURGE="0" COMMENT="" />
    <EXPORT ORDINAL="4294" NAME="?hasFeature@DOM_DOMImplementation@@QAE_NABVDOMString@@0@Z" PURGE="8" COMMENT="" />
    <EXPORT ORDINAL="4295" NAME="?hasLegalRootContainer@DOMRangeImpl@@ABE_NPBVDOMNode@@@Z" PURGE="4" COMMENT="" />
    <EXPORT ORDINAL="4296" NAME="?hasLegalRootContainer@RangeImpl@@ABE_NABVDOM_Node@@@Z" PURGE="4" COMMENT="" />
    <EXPORT ORDINAL="4297" NAME="?hasMoreTokens@XMLStringTokenizer@@QAE_NXZ" PURGE="0" COMMENT="" />
    <EXPORT ORDINAL="4298" NAME="?hasStringValue@NodeImpl@@QAEX_N@Z" PURGE="4" COMMENT="" />
    <EXPORT ORDINAL="4299" NAME="?hasStringValue@NodeImpl@@QBE_NXZ" PURGE="0" COMMENT="" />
    <EXPORT ORDINAL="4300" NAME="?hasUserData@DOMNodeImpl@@QAEX_N@Z" PURGE="4" COMMENT="" />
    <EXPORT ORDINAL="4301" NAME="?hasUserData@DOMNodeImpl@@QBE_NXZ" PURGE="0" COMMENT="" />
    <EXPORT ORDINAL="4302" NAME="?hasUserData@NodeImpl@@QAEX_N@Z" PURGE="4" COMMENT="" />
    <EXPORT ORDINAL="4303" NAME="?hasUserData@NodeImpl@@QBE_NXZ" PURGE="0" COMMENT="" />
    <EXPORT ORDINAL="4304" NAME="?hash@BitSet@@QBEII@Z" PURGE="4" COMMENT="" />
    <EXPORT ORDINAL="4305" NAME="?hash@XMLString@@SAIQBDI@Z" PURGE="0" COMMENT="" />
    <EXPORT ORDINAL="4306" NAME="?hash@XMLString@@SAIQBGI@Z" PURGE="0" COMMENT="" />
    <EXPORT ORDINAL="4307" NAME="?hashN@XMLString@@SAIQBGII@Z" PURGE="0" COMMENT="" />
    <EXPORT ORDINAL="4308" NAME="?hexChar@RegxParser@@AAEHH@Z" PURGE="4" COMMENT="" />
    <EXPORT ORDINAL="4309" NAME="?hexNumberTable@HexBin@@0PA_NA" PURGE="-1" COMMENT="" />
    <EXPORT ORDINAL="4310" NAME="?htons@BinHTTPURLInputStream@@CAGG@Z" PURGE="0" COMMENT="" />
    <EXPORT ORDINAL="4311" NAME="?ignorableWhitespace@AbstractDOMParser@@UAEXQBGI_N@Z" PURGE="12" COMMENT="" />
    <EXPORT ORDINAL="4312" NAME="?ignorableWhitespace@DOMNodeImpl@@QAEX_N@Z" PURGE="4" COMMENT="" />
    <EXPORT ORDINAL="4313" NAME="?ignorableWhitespace@DOMNodeImpl@@QBE_NXZ" PURGE="0" COMMENT="" />
    <EXPORT ORDINAL="4314" NAME="?ignorableWhitespace@DOMParser@@UAEXQBGI_N@Z" PURGE="12" COMMENT="" />
    <EXPORT ORDINAL="4315" NAME="?ignorableWhitespace@DefaultHandler@@UAEXQBGI@Z" PURGE="8" COMMENT="" />
    <EXPORT ORDINAL="4316" NAME="?ignorableWhitespace@HandlerBase@@UAEXQBGI@Z" PURGE="8" COMMENT="" />
    <EXPORT ORDINAL="4317" NAME="?ignorableWhitespace@NodeImpl@@QAEX_N@Z" PURGE="4" COMMENT="" />
    <EXPORT ORDINAL="4318" NAME="?ignorableWhitespace@NodeImpl@@QBE_NXZ" PURGE="0" COMMENT="" />
    <EXPORT ORDINAL="4319" NAME="?ignorableWhitespace@SAX2XMLReaderImpl@@UAEXQBGI_N@Z" PURGE="12" COMMENT="" />
    <EXPORT ORDINAL="4320" NAME="?ignorableWhitespace@SAXParser@@UAEXQBGI_N@Z" PURGE="12" COMMENT="" />
    <EXPORT ORDINAL="4321" NAME="?importNode@DOMDocumentImpl@@EAEPAVDOMNode@@PAV2@_N1@Z" PURGE="16" COMMENT="" />
    <EXPORT ORDINAL="4322" NAME="?importNode@DOMDocumentImpl@@UAEPAVDOMNode@@PAV2@_N@Z" PURGE="8" COMMENT="" />
    <EXPORT ORDINAL="4323" NAME="?importNode@DOM_Document@@QAE?AVDOM_Node@@ABV2@_N@Z" PURGE="12" COMMENT="" />
    <EXPORT ORDINAL="4324" NAME="?importNode@DocumentImpl@@UAEPAVNodeImpl@@PAV2@_N@Z" PURGE="-1" COMMENT="" />
    <EXPORT ORDINAL="4325" NAME="?increaseDepth@NamespaceScope@@QAEIXZ" PURGE="0" COMMENT="" />
    <EXPORT ORDINAL="4326" NAME="?incrementErrorCount@XMLScanner@@QAEXXZ" PURGE="0" COMMENT="" />
    <EXPORT ORDINAL="4327" NAME="?indexOf@DOMRangeImpl@@ABEKPBVDOMNode@@0@Z" PURGE="8" COMMENT="" />
    <EXPORT ORDINAL="4328" NAME="?indexOf@FieldValueMap@@QBEHQBVIC_Field@@@Z" PURGE="4" COMMENT="" />
    <EXPORT ORDINAL="4329" NAME="?indexOf@RangeImpl@@ABEGABVDOM_Node@@0@Z" PURGE="8" COMMENT="" />
    <EXPORT ORDINAL="4330" NAME="?indexOf@XMLDateTime@@ABEHHHG@Z" PURGE="12" COMMENT="" />
    <EXPORT ORDINAL="4331" NAME="?indexOf@XMLString@@SAHQBDD@Z" PURGE="0" COMMENT="" />
    <EXPORT ORDINAL="4332" NAME="?indexOf@XMLString@@SAHQBDDI@Z" PURGE="0" COMMENT="" />
    <EXPORT ORDINAL="4333" NAME="?indexOf@XMLString@@SAHQBGG@Z" PURGE="0" COMMENT="" />
    <EXPORT ORDINAL="4334" NAME="?indexOf@XMLString@@SAHQBGGI@Z" PURGE="0" COMMENT="" />
    <EXPORT ORDINAL="4335" NAME="?indexofQualifiedName@DOMDocumentImpl@@SAHPBG@Z" PURGE="0" COMMENT="" />
    <EXPORT ORDINAL="4336" NAME="?indexofQualifiedName@DocumentImpl@@SAHABVDOMString@@@Z" PURGE="0" COMMENT="" />
    <EXPORT ORDINAL="4337" NAME="?inet_addr@BinHTTPURLInputStream@@CAKPBD@Z" PURGE="0" COMMENT="" />
    <EXPORT ORDINAL="4338" NAME="?inheritAdditionalFacet@AnyURIDatatypeValidator@@MAEXXZ" PURGE="0" COMMENT="" />
    <EXPORT ORDINAL="4339" NAME="?inheritAdditionalFacet@Base64BinaryDatatypeValidator@@MAEXXZ" PURGE="0" COMMENT="" />
    <EXPORT ORDINAL="4340" NAME="?inheritAdditionalFacet@DateTimeValidator@@MAEXXZ" PURGE="0" COMMENT="" />
    <EXPORT ORDINAL="4341" NAME="?inheritAdditionalFacet@DecimalDatatypeValidator@@MAEXXZ" PURGE="0" COMMENT="" />
    <EXPORT ORDINAL="4342" NAME="?inheritAdditionalFacet@DoubleDatatypeValidator@@MAEXXZ" PURGE="0" COMMENT="" />
    <EXPORT ORDINAL="4343" NAME="?inheritAdditionalFacet@FloatDatatypeValidator@@MAEXXZ" PURGE="0" COMMENT="" />
    <EXPORT ORDINAL="4344" NAME="?inheritAdditionalFacet@HexBinaryDatatypeValidator@@MAEXXZ" PURGE="0" COMMENT="" />
    <EXPORT ORDINAL="4345" NAME="?inheritAdditionalFacet@ListDatatypeValidator@@MAEXXZ" PURGE="0" COMMENT="" />
    <EXPORT ORDINAL="4346" NAME="?inheritAdditionalFacet@NOTATIONDatatypeValidator@@MAEXXZ" PURGE="0" COMMENT="" />
    <EXPORT ORDINAL="4347" NAME="?inheritAdditionalFacet@QNameDatatypeValidator@@MAEXXZ" PURGE="0" COMMENT="" />
    <EXPORT ORDINAL="4348" NAME="?inheritAdditionalFacet@StringDatatypeValidator@@MAEXXZ" PURGE="0" COMMENT="" />
    <EXPORT ORDINAL="4349" NAME="?inheritFacet@AbstractNumericFacetValidator@@AAEXXZ" PURGE="0" COMMENT="" />
    <EXPORT ORDINAL="4350" NAME="?inheritFacet@AbstractStringValidator@@MAEXXZ" PURGE="0" COMMENT="" />
    <EXPORT ORDINAL="4351" NAME="?inheritFacet@ListDatatypeValidator@@MAEXXZ" PURGE="0" COMMENT="" />
    <EXPORT ORDINAL="4352" NAME="?init@AbstractNumericFacetValidator@@IAEXQAV?$RefVectorOf@G@@@Z" PURGE="4" COMMENT="" />
    <EXPORT ORDINAL="4353" NAME="?init@AbstractNumericValidator@@IAEXQAV?$RefVectorOf@G@@@Z" PURGE="4" COMMENT="" />
    <EXPORT ORDINAL="4354" NAME="?init@AbstractStringValidator@@IAEXQAV?$RefVectorOf@G@@@Z" PURGE="4" COMMENT="" />
    <EXPORT ORDINAL="4355" NAME="?init@Base64@@CAXXZ" PURGE="0" COMMENT="" />
    <EXPORT ORDINAL="4356" NAME="?init@HexBin@@CAXXZ" PURGE="0" COMMENT="" />
    <EXPORT ORDINAL="4357" NAME="?init@TraverseSchema@@AAEXXZ" PURGE="0" COMMENT="" />
    <EXPORT ORDINAL="4358" NAME="?init@UnionDatatypeValidator@@AAEXQAVDatatypeValidator@@QAV?$RefHashTableOf@VKVStringPair@@@@QAV?$RefVectorOf@G@@@Z" PURGE="12" COMMENT="" />
    <EXPORT ORDINAL="4359" NAME="?init@ValueStoreCache@@AAEXXZ" PURGE="0" COMMENT="" />
    <EXPORT ORDINAL="4360" NAME="?init@XMLAbstractDoubleFloat@@IAEXQBG@Z" PURGE="4" COMMENT="" />
    <EXPORT ORDINAL="4361" NAME="?init@XPathMatcher@@AAEXQAVXercesXPath@@@Z" PURGE="4" COMMENT="" />
    <EXPORT ORDINAL="4362" NAME="?init@XPathScanner@@AAEXXZ" PURGE="0" COMMENT="" />
    <EXPORT ORDINAL="4363" NAME="?initParser@XMLDateTime@@AAEXXZ" PURGE="0" COMMENT="" />
    <EXPORT ORDINAL="4364" NAME="?initSession@DOMWriterImpl@@AAEXQBVDOMNode@@@Z" PURGE="4" COMMENT="" />
    <EXPORT ORDINAL="4365" NAME="?initString@XMLString@@CAXQAVXMLLCPTranscoder@@@Z" PURGE="0" COMMENT="" />
    <EXPORT ORDINAL="4366" NAME="?initTransService@XMLTransService@@AAEXXZ" PURGE="0" COMMENT="" />
    <EXPORT ORDINAL="4367" NAME="?initValidator@XMLScanner@@AAEXPAVXMLValidator@@@Z" PURGE="4" COMMENT="" />
    <EXPORT ORDINAL="4368" NAME="?initValueStoresFor@ValueStoreCache@@QAEXQAVSchemaElementDecl@@@Z" PURGE="4" COMMENT="" />
    <EXPORT ORDINAL="4369" NAME="?initialize@BMPattern@@AAEXXZ" PURGE="0" COMMENT="" />
    <EXPORT ORDINAL="4370" NAME="?initialize@XMLUri@@AAEXABV1@@Z" PURGE="4" COMMENT="" />
    <EXPORT ORDINAL="4371" NAME="?initialize@XMLUri@@AAEXQBV1@QBG@Z" PURGE="8" COMMENT="" />
    <EXPORT ORDINAL="4372" NAME="?initializeAuthority@XMLUri@@AAEXQBG@Z" PURGE="4" COMMENT="" />
    <EXPORT ORDINAL="4373" NAME="?initializeKeywordMap@ASCIIRangeFactory@@UAEXXZ" PURGE="0" COMMENT="" />
    <EXPORT ORDINAL="4374" NAME="?initializeKeywordMap@BlockRangeFactory@@UAEXXZ" PURGE="0" COMMENT="" />
    <EXPORT ORDINAL="4375" NAME="?initializeKeywordMap@UnicodeRangeFactory@@UAEXXZ" PURGE="0" COMMENT="" />
    <EXPORT ORDINAL="4376" NAME="?initializeKeywordMap@XMLRangeFactory@@UAEXXZ" PURGE="0" COMMENT="" />
    <EXPORT ORDINAL="4377" NAME="?initializePath@XMLUri@@AAEXQBG@Z" PURGE="4" COMMENT="" />
    <EXPORT ORDINAL="4378" NAME="?initializeRegistry@EncodingValidator@@AAEXXZ" PURGE="0" COMMENT="" />
    <EXPORT ORDINAL="4379" NAME="?initializeRegistry@RangeTokenMap@@AAEXXZ" PURGE="0" COMMENT="" />
    <EXPORT ORDINAL="4380" NAME="?initializeRegistry@TokenFactory@@AAEXXZ" PURGE="0" COMMENT="" />
    <EXPORT ORDINAL="4381" NAME="?initializeScheme@XMLUri@@AAEXQBG@Z" PURGE="4" COMMENT="" />
    <EXPORT ORDINAL="4382" NAME="?insertBefore@AttrImpl@@UAEPAVNodeImpl@@PAV2@0@Z" PURGE="8" COMMENT="" />
    <EXPORT ORDINAL="4383" NAME="?insertBefore@DOMAttrImpl@@UAEPAVDOMNode@@PAV2@0@Z" PURGE="8" COMMENT="" />
    <EXPORT ORDINAL="4384" NAME="?insertBefore@DOMCDATASectionImpl@@UAEPAVDOMNode@@PAV2@0@Z" PURGE="8" COMMENT="" />
    <EXPORT ORDINAL="4385" NAME="?insertBefore@DOMCommentImpl@@UAEPAVDOMNode@@PAV2@0@Z" PURGE="8" COMMENT="" />
    <EXPORT ORDINAL="4386" NAME="?insertBefore@DOMDocumentFragmentImpl@@UAEPAVDOMNode@@PAV2@0@Z" PURGE="8" COMMENT="" />
    <EXPORT ORDINAL="4387" NAME="?insertBefore@DOMDocumentImpl@@UAEPAVDOMNode@@PAV2@0@Z" PURGE="8" COMMENT="" />
    <EXPORT ORDINAL="4388" NAME="?insertBefore@DOMDocumentTypeImpl@@UAEPAVDOMNode@@PAV2@0@Z" PURGE="8" COMMENT="" />
    <EXPORT ORDINAL="4389" NAME="?insertBefore@DOMElementImpl@@UAEPAVDOMNode@@PAV2@0@Z" PURGE="8" COMMENT="" />
    <EXPORT ORDINAL="4390" NAME="?insertBefore@DOMEntityImpl@@UAEPAVDOMNode@@PAV2@0@Z" PURGE="8" COMMENT="" />
    <EXPORT ORDINAL="4391" NAME="?insertBefore@DOMEntityReferenceImpl@@UAEPAVDOMNode@@PAV2@0@Z" PURGE="8" COMMENT="" />
    <EXPORT ORDINAL="4392" NAME="?insertBefore@DOMNodeImpl@@QAEPAVDOMNode@@PAV2@0@Z" PURGE="8" COMMENT="" />
    <EXPORT ORDINAL="4393" NAME="?insertBefore@DOMNotationImpl@@UAEPAVDOMNode@@PAV2@0@Z" PURGE="8" COMMENT="" />
    <EXPORT ORDINAL="4394" NAME="?insertBefore@DOMParentNode@@QAEPAVDOMNode@@PAV2@0@Z" PURGE="8" COMMENT="" />
    <EXPORT ORDINAL="4395" NAME="?insertBefore@DOMProcessingInstructionImpl@@UAEPAVDOMNode@@PAV2@0@Z" PURGE="8" COMMENT="" />
    <EXPORT ORDINAL="4396" NAME="?insertBefore@DOMTextImpl@@UAEPAVDOMNode@@PAV2@0@Z" PURGE="8" COMMENT="" />
    <EXPORT ORDINAL="4397" NAME="?insertBefore@DOM_Node@@QAE?AV1@ABV1@0@Z" PURGE="12" COMMENT="" />
    <EXPORT ORDINAL="4398" NAME="?insertBefore@DocumentImpl@@UAEPAVNodeImpl@@PAV2@0@Z" PURGE="8" COMMENT="" />
    <EXPORT ORDINAL="4399" NAME="?insertBefore@NodeImpl@@UAEPAV1@PAV1@0@Z" PURGE="4" COMMENT="" />
    <EXPORT ORDINAL="4400" NAME="?insertBefore@ParentNode@@UAEPAVNodeImpl@@PAV2@0@Z" PURGE="8" COMMENT="" />
    <EXPORT ORDINAL="4401" NAME="?insertData@CharacterDataImpl@@UAEXIABVDOMString@@@Z" PURGE="8" COMMENT="" />
    <EXPORT ORDINAL="4402" NAME="?insertData@DOMCDATASectionImpl@@UAEXKPBG@Z" PURGE="8" COMMENT="" />
    <EXPORT ORDINAL="4403" NAME="?insertData@DOMCharacterDataImpl@@QAEXPBVDOMNode@@KPBG@Z" PURGE="12" COMMENT="" />
    <EXPORT ORDINAL="4404" NAME="?insertData@DOMCommentImpl@@UAEXKPBG@Z" PURGE="8" COMMENT="" />
    <EXPORT ORDINAL="4405" NAME="?insertData@DOMString@@QAEXIABV1@@Z" PURGE="8" COMMENT="" />
    <EXPORT ORDINAL="4406" NAME="?insertData@DOMTextImpl@@UAEXKPBG@Z" PURGE="8" COMMENT="" />
    <EXPORT ORDINAL="4407" NAME="?insertData@DOM_CharacterData@@QAEXIABVDOMString@@@Z" PURGE="8" COMMENT="" />
    <EXPORT ORDINAL="4408" NAME="?insertNode@DOMRangeImpl@@UAEXPAVDOMNode@@@Z" PURGE="4" COMMENT="" />
    <EXPORT ORDINAL="4409" NAME="?insertNode@DOM_Range@@QAEXAAVDOM_Node@@@Z" PURGE="4" COMMENT="" />
    <EXPORT ORDINAL="4410" NAME="?insertNode@RangeImpl@@QAEXAAVDOM_Node@@@Z" PURGE="4" COMMENT="" />
    <EXPORT ORDINAL="4411" NAME="?inspectFacet@AbstractNumericFacetValidator@@AAEXXZ" PURGE="0" COMMENT="" />
    <EXPORT ORDINAL="4412" NAME="?inspectFacet@AbstractStringValidator@@AAEXXZ" PURGE="0" COMMENT="" />
    <EXPORT ORDINAL="4413" NAME="?inspectFacetBase@AbstractNumericFacetValidator@@AAEXXZ" PURGE="0" COMMENT="" />
    <EXPORT ORDINAL="4414" NAME="?inspectFacetBase@AbstractStringValidator@@MAEXXZ" PURGE="0" COMMENT="" />
    <EXPORT ORDINAL="4415" NAME="?inspectFacetBase@ListDatatypeValidator@@MAEXXZ" PURGE="0" COMMENT="" />
    <EXPORT ORDINAL="4416" NAME="?installAdvDocHandler@SAX2XMLReaderImpl@@UAEXQAVXMLDocumentHandler@@@Z" PURGE="4" COMMENT="" />
    <EXPORT ORDINAL="4417" NAME="?installAdvDocHandler@SAXParser@@QAEXQAVXMLDocumentHandler@@@Z" PURGE="4" COMMENT="" />
    <EXPORT ORDINAL="4418" NAME="?instance@EncodingValidator@@SAPAV1@XZ" PURGE="0" COMMENT="" />
    <EXPORT ORDINAL="4419" NAME="?instance@RangeTokenMap@@SAPAV1@XZ" PURGE="0" COMMENT="" />
    <EXPORT ORDINAL="4420" NAME="?insureCapacity@MemBufFormatTarget@@AAEXI@Z" PURGE="4" COMMENT="" />
    <EXPORT ORDINAL="4421" NAME="?insureCapacity@XMLBuffer@@AAEXI@Z" PURGE="4" COMMENT="" />
    <EXPORT ORDINAL="4422" NAME="?intValue@XMLBigInteger@@QBEHXZ" PURGE="0" COMMENT="" />
    <EXPORT ORDINAL="4423" NAME="?intValue@XMLInteger@@QBEHXZ" PURGE="0" COMMENT="" />
    <EXPORT ORDINAL="4424" NAME="?internalEntityDecl@DefaultHandler@@UAEXQBG0@Z" PURGE="8" COMMENT="" />
    <EXPORT ORDINAL="4425" NAME="?intersectRanges@RangeToken@@UAEXQAV1@@Z" PURGE="4" COMMENT="" />
    <EXPORT ORDINAL="4426" NAME="?intersectRanges@Token@@UAEXQAVRangeToken@@@Z" PURGE="0" COMMENT="" />
    <EXPORT ORDINAL="4427" NAME="?isAlias@Win32TransService@@CA_NQAUHKEY__@@QADI@Z" PURGE="0" COMMENT="" />
    <EXPORT ORDINAL="4428" NAME="?isAllSpaces@XMLReader@@SA_NQBGI@Z" PURGE="0" COMMENT="" />
    <EXPORT ORDINAL="4429" NAME="?isAllWhiteSpace@XMLString@@SA_NQBG@Z" PURGE="0" COMMENT="" />
    <EXPORT ORDINAL="4430" NAME="?isAllowedByWildcard@SubstitutionGroupComparator@@QAE_NQAVSchemaGrammar@@QAVQName@@I_N@Z" PURGE="16" COMMENT="" />
    <EXPORT ORDINAL="4431" NAME="?isAlpha@XMLString@@SA_NG@Z" PURGE="0" COMMENT="" />
    <EXPORT ORDINAL="4432" NAME="?isAlphaNum@XMLString@@SA_NG@Z" PURGE="0" COMMENT="" />
    <EXPORT ORDINAL="4433" NAME="?isAncestorOf@DOMRangeImpl@@CA_NPBVDOMNode@@0@Z" PURGE="0" COMMENT="" />
    <EXPORT ORDINAL="4434" NAME="?isAncestorOf@RangeImpl@@CA_NABVDOM_Node@@0@Z" PURGE="0" COMMENT="" />
    <EXPORT ORDINAL="4435" NAME="?isArrayByteHex@HexBin@@SA_NQBG@Z" PURGE="0" COMMENT="" />
    <EXPORT ORDINAL="4436" NAME="?isAtomic@DatatypeValidator@@UBE_NXZ" PURGE="0" COMMENT="" />
    <EXPORT ORDINAL="4437" NAME="?isAtomic@ListDatatypeValidator@@UBE_NXZ" PURGE="0" COMMENT="" />
    <EXPORT ORDINAL="4438" NAME="?isAtomic@UnionDatatypeValidator@@UBE_NXZ" PURGE="4" COMMENT="" />
    <EXPORT ORDINAL="4439" NAME="?isAttrImpl@AttrImpl@@UAE_NXZ" PURGE="0" COMMENT="" />
    <EXPORT ORDINAL="4440" NAME="?isAttrImpl@NodeImpl@@UAE_NXZ" PURGE="0" COMMENT="" />
    <EXPORT ORDINAL="4441" NAME="?isAttrOrAttrGroup@TraverseSchema@@AAE_NQBVDOMElement@@@Z" PURGE="4" COMMENT="" />
    <EXPORT ORDINAL="4442" NAME="?isBaseChar@XMLReader@@SA_NG@Z" PURGE="0" COMMENT="" />
    <EXPORT ORDINAL="4443" NAME="?isBaseFromAnotherSchema@TraverseSchema@@AAE_NQBG@Z" PURGE="4" COMMENT="" />
    <EXPORT ORDINAL="4444" NAME="?isCDATASectionImpl@CDATASectionImpl@@UAE_NXZ" PURGE="0" COMMENT="" />
    <EXPORT ORDINAL="4445" NAME="?isCDATASectionImpl@NodeImpl@@UAE_NXZ" PURGE="0" COMMENT="" />
    <EXPORT ORDINAL="4446" NAME="?isCachingGrammarFromParse@DOMParser@@QBE_NXZ" PURGE="0" COMMENT="" />
    <EXPORT ORDINAL="4447" NAME="?isCachingGrammarFromParse@SAXParser@@QBE_NXZ" PURGE="0" COMMENT="" />
    <EXPORT ORDINAL="4448" NAME="?isCachingGrammarFromParse@XMLScanner@@QBE_NXZ" PURGE="0" COMMENT="" />
    <EXPORT ORDINAL="4449" NAME="?isCachingGrammarFromParse@XercesDOMParser@@QBE_NXZ" PURGE="0" COMMENT="" />
    <EXPORT ORDINAL="4450" NAME="?isChildNode@DOMNodeImpl@@QBE_NXZ" PURGE="0" COMMENT="" />
    <EXPORT ORDINAL="4451" NAME="?isConformantSchemeName@XMLUri@@CA_NQBG@Z" PURGE="0" COMMENT="" />
    <EXPORT ORDINAL="4452" NAME="?isConformantUserInfo@XMLUri@@CAXQBG@Z" PURGE="0" COMMENT="" />
    <EXPORT ORDINAL="4453" NAME="?isData@Base64@@CA_NABE@Z" PURGE="0" COMMENT="" />
    <EXPORT ORDINAL="4454" NAME="?isDeclared@XMLElementDecl@@QBE_NXZ" PURGE="0" COMMENT="" />
    <EXPORT ORDINAL="4455" NAME="?isDefaultNamespace@DOMAttrImpl@@UBE_NPBG@Z" PURGE="4" COMMENT="" />
    <EXPORT ORDINAL="4456" NAME="?isDefaultNamespace@DOMCDATASectionImpl@@UBE_NPBG@Z" PURGE="4" COMMENT="" />
    <EXPORT ORDINAL="4457" NAME="?isDefaultNamespace@DOMCommentImpl@@UBE_NPBG@Z" PURGE="4" COMMENT="" />
    <EXPORT ORDINAL="4458" NAME="?isDefaultNamespace@DOMDocumentFragmentImpl@@UBE_NPBG@Z" PURGE="4" COMMENT="" />
    <EXPORT ORDINAL="4459" NAME="?isDefaultNamespace@DOMDocumentImpl@@UBE_NPBG@Z" PURGE="4" COMMENT="" />
    <EXPORT ORDINAL="4460" NAME="?isDefaultNamespace@DOMDocumentTypeImpl@@UBE_NPBG@Z" PURGE="4" COMMENT="" />
    <EXPORT ORDINAL="4461" NAME="?isDefaultNamespace@DOMElementImpl@@UBE_NPBG@Z" PURGE="4" COMMENT="" />
    <EXPORT ORDINAL="4462" NAME="?isDefaultNamespace@DOMEntityImpl@@UBE_NPBG@Z" PURGE="4" COMMENT="" />
    <EXPORT ORDINAL="4463" NAME="?isDefaultNamespace@DOMEntityReferenceImpl@@UBE_NPBG@Z" PURGE="4" COMMENT="" />
    <EXPORT ORDINAL="4464" NAME="?isDefaultNamespace@DOMNodeImpl@@QBE_NPBG@Z" PURGE="4" COMMENT="" />
    <EXPORT ORDINAL="4465" NAME="?isDefaultNamespace@DOMNotationImpl@@UBE_NPBG@Z" PURGE="4" COMMENT="" />
    <EXPORT ORDINAL="4466" NAME="?isDefaultNamespace@DOMProcessingInstructionImpl@@UBE_NPBG@Z" PURGE="4" COMMENT="" />
    <EXPORT ORDINAL="4467" NAME="?isDefaultNamespace@DOMTextImpl@@UBE_NPBG@Z" PURGE="4" COMMENT="" />
    <EXPORT ORDINAL="4468" NAME="?isDelimeter@XMLStringTokenizer@@AAE_NG@Z" PURGE="4" COMMENT="" />
    <EXPORT ORDINAL="4469" NAME="?isDigit@XMLString@@SA_NG@Z" PURGE="0" COMMENT="" />
    <EXPORT ORDINAL="4470" NAME="?isDocumentFragmentImpl@DocumentFragmentImpl@@UAE_NXZ" PURGE="0" COMMENT="" />
    <EXPORT ORDINAL="4471" NAME="?isDocumentFragmentImpl@NodeImpl@@UAE_NXZ" PURGE="0" COMMENT="" />
    <EXPORT ORDINAL="4472" NAME="?isDocumentImpl@DocumentImpl@@UAE_NXZ" PURGE="0" COMMENT="" />
    <EXPORT ORDINAL="4473" NAME="?isDocumentImpl@NodeImpl@@UAE_NXZ" PURGE="0" COMMENT="" />
    <EXPORT ORDINAL="4474" NAME="?isDocumentTypeImpl@DocumentTypeImpl@@UAE_NXZ" PURGE="0" COMMENT="" />
    <EXPORT ORDINAL="4475" NAME="?isDocumentTypeImpl@NodeImpl@@UAE_NXZ" PURGE="0" COMMENT="" />
    <EXPORT ORDINAL="4476" NAME="?isDuplicateOf@ValueStore@@AAE_NQAVDatatypeValidator@@QBG01@Z" PURGE="16" COMMENT="" />
    <EXPORT ORDINAL="4477" NAME="?isEOLChar@RegxUtil@@SA_NG@Z" PURGE="0" COMMENT="" />
    <EXPORT ORDINAL="4478" NAME="?isElementImpl@ElementImpl@@UAE_NXZ" PURGE="0" COMMENT="" />
    <EXPORT ORDINAL="4479" NAME="?isElementImpl@NodeImpl@@UAE_NXZ" PURGE="0" COMMENT="" />
    <EXPORT ORDINAL="4480" NAME="?isEmpty@ElemStack@@QBE_NXZ" PURGE="0" COMMENT="" />
    <EXPORT ORDINAL="4481" NAME="?isEmpty@NamespaceScope@@QBE_NXZ" PURGE="0" COMMENT="" />
    <EXPORT ORDINAL="4482" NAME="?isEmpty@ReaderMgr@@QBE_NXZ" PURGE="0" COMMENT="" />
    <EXPORT ORDINAL="4483" NAME="?isEmpty@XMLBuffer@@QBE_NXZ" PURGE="0" COMMENT="" />
    <EXPORT ORDINAL="4484" NAME="?isEntityReference@EntityReferenceImpl@@UAE_NXZ" PURGE="0" COMMENT="" />
    <EXPORT ORDINAL="4485" NAME="?isEntityReference@NodeImpl@@UAE_NXZ" PURGE="0" COMMENT="" />
    <EXPORT ORDINAL="4486" NAME="?isEqualNode@DOMAttrImpl@@UAE_NPBVDOMNode@@@Z" PURGE="4" COMMENT="" />
    <EXPORT ORDINAL="4487" NAME="?isEqualNode@DOMCDATASectionImpl@@UAE_NPBVDOMNode@@@Z" PURGE="4" COMMENT="" />
    <EXPORT ORDINAL="4488" NAME="?isEqualNode@DOMCommentImpl@@UAE_NPBVDOMNode@@@Z" PURGE="4" COMMENT="" />
    <EXPORT ORDINAL="4489" NAME="?isEqualNode@DOMDocumentFragmentImpl@@UAE_NPBVDOMNode@@@Z" PURGE="4" COMMENT="" />
    <EXPORT ORDINAL="4490" NAME="?isEqualNode@DOMDocumentImpl@@UAE_NPBVDOMNode@@@Z" PURGE="4" COMMENT="" />
    <EXPORT ORDINAL="4491" NAME="?isEqualNode@DOMDocumentTypeImpl@@UAE_NPBVDOMNode@@@Z" PURGE="4" COMMENT="" />
    <EXPORT ORDINAL="4492" NAME="?isEqualNode@DOMElementImpl@@UAE_NPBVDOMNode@@@Z" PURGE="4" COMMENT="" />
    <EXPORT ORDINAL="4493" NAME="?isEqualNode@DOMEntityImpl@@UAE_NPBVDOMNode@@@Z" PURGE="4" COMMENT="" />
    <EXPORT ORDINAL="4494" NAME="?isEqualNode@DOMEntityReferenceImpl@@UAE_NPBVDOMNode@@@Z" PURGE="4" COMMENT="" />
    <EXPORT ORDINAL="4495" NAME="?isEqualNode@DOMNodeImpl@@QAE_NPBVDOMNode@@@Z" PURGE="4" COMMENT="" />
    <EXPORT ORDINAL="4496" NAME="?isEqualNode@DOMNotationImpl@@UAE_NPBVDOMNode@@@Z" PURGE="4" COMMENT="" />
    <EXPORT ORDINAL="4497" NAME="?isEqualNode@DOMParentNode@@QAE_NPBVDOMNode@@@Z" PURGE="4" COMMENT="" />
    <EXPORT ORDINAL="4498" NAME="?isEqualNode@DOMProcessingInstructionImpl@@UAE_NPBVDOMNode@@@Z" PURGE="4" COMMENT="" />
    <EXPORT ORDINAL="4499" NAME="?isEqualNode@DOMTextImpl@@UAE_NPBVDOMNode@@@Z" PURGE="4" COMMENT="" />
    <EXPORT ORDINAL="4500" NAME="?isEquivalentTo@SubstitutionGroupComparator@@QAE_NQAVQName@@0@Z" PURGE="8" COMMENT="" />
    <EXPORT ORDINAL="4501" NAME="?isExternal@XMLAttDef@@QBE_NXZ" PURGE="0" COMMENT="" />
    <EXPORT ORDINAL="4502" NAME="?isExternal@XMLElementDecl@@QBE_NXZ" PURGE="0" COMMENT="" />
    <EXPORT ORDINAL="4503" NAME="?isExternal@XMLEntityDecl@@QBE_NXZ" PURGE="0" COMMENT="" />
    <EXPORT ORDINAL="4504" NAME="?isFirstChild@DOMNodeImpl@@QAEX_N@Z" PURGE="4" COMMENT="" />
    <EXPORT ORDINAL="4505" NAME="?isFirstChild@DOMNodeImpl@@QBE_NXZ" PURGE="0" COMMENT="" />
    <EXPORT ORDINAL="4506" NAME="?isFirstChild@NodeImpl@@QAEX_N@Z" PURGE="4" COMMENT="" />
    <EXPORT ORDINAL="4507" NAME="?isFirstChild@NodeImpl@@QBE_NXZ" PURGE="0" COMMENT="" />
    <EXPORT ORDINAL="4508" NAME="?isFirstNameChar@XMLReader@@SA_NG@Z" PURGE="0" COMMENT="" />
    <EXPORT ORDINAL="4509" NAME="?isGenericURI@XMLUri@@AAE_NXZ" PURGE="0" COMMENT="" />
    <EXPORT ORDINAL="4510" NAME="?isGlobalDecl@SchemaElementDecl@@UBE_NXZ" PURGE="0" COMMENT="" />
    <EXPORT ORDINAL="4511" NAME="?isHex@HexBin@@CA_NABG@Z" PURGE="0" COMMENT="" />
    <EXPORT ORDINAL="4512" NAME="?isHex@XMLString@@SA_NG@Z" PURGE="0" COMMENT="" />
    <EXPORT ORDINAL="4513" NAME="?isHighSurrogate@RegxUtil@@SA_NG@Z" PURGE="0" COMMENT="" />
    <EXPORT ORDINAL="4514" NAME="?isIdAttr@DOMNodeImpl@@QAEX_N@Z" PURGE="4" COMMENT="" />
    <EXPORT ORDINAL="4515" NAME="?isIdAttr@DOMNodeImpl@@QBE_NXZ" PURGE="0" COMMENT="" />
    <EXPORT ORDINAL="4516" NAME="?isIdAttr@NodeImpl@@QAEX_N@Z" PURGE="4" COMMENT="" />
    <EXPORT ORDINAL="4517" NAME="?isIdAttr@NodeImpl@@QBE_NXZ" PURGE="0" COMMENT="" />
    <EXPORT ORDINAL="4518" NAME="?isIdentityConstraintName@TraverseSchema@@AAE_NQBG@Z" PURGE="4" COMMENT="" />
    <EXPORT ORDINAL="4519" NAME="?isIgnorableWhitespace@DOMCDATASectionImpl@@UBE_NXZ" PURGE="0" COMMENT="" />
    <EXPORT ORDINAL="4520" NAME="?isIgnorableWhitespace@DOMTextImpl@@UBE_NXZ" PURGE="0" COMMENT="" />
    <EXPORT ORDINAL="4521" NAME="?isIgnorableWhitespace@DOM_Text@@QAE_NXZ" PURGE="-1" COMMENT="" />
    <EXPORT ORDINAL="4522" NAME="?isIgnorableWhitespace@TextImpl@@UAE_NXZ" PURGE="0" COMMENT="" />
    <EXPORT ORDINAL="4523" NAME="?isInList@XMLString@@SA_NQBG0@Z" PURGE="0" COMMENT="" />
    <EXPORT ORDINAL="4524" NAME="?isInitialized@Base64@@0_NA" PURGE="-1" COMMENT="" />
    <EXPORT ORDINAL="4525" NAME="?isInitialized@HexBin@@0_NA" PURGE="-1" COMMENT="" />
    <EXPORT ORDINAL="4526" NAME="?isIntSubsetReading@DOMDocumentTypeImpl@@ABE_NXZ" PURGE="0" COMMENT="" />
    <EXPORT ORDINAL="4527" NAME="?isIntSubsetReading@DocumentTypeImpl@@AAE_NXZ" PURGE="0" COMMENT="" />
    <EXPORT ORDINAL="4528" NAME="?isKidOK@DOMDocumentImpl@@SA_NPAVDOMNode@@0@Z" PURGE="0" COMMENT="" />
    <EXPORT ORDINAL="4529" NAME="?isKidOK@DocumentImpl@@SA_NPAVNodeImpl@@0@Z" PURGE="0" COMMENT="" />
    <EXPORT ORDINAL="4530" NAME="?isLeafNode@DOMNodeImpl@@QBE_NXZ" PURGE="0" COMMENT="" />
    <EXPORT ORDINAL="4531" NAME="?isLegalContainedNode@DOMRangeImpl@@ABE_NPBVDOMNode@@@Z" PURGE="4" COMMENT="" />
    <EXPORT ORDINAL="4532" NAME="?isLegalContainedNode@RangeImpl@@ABE_NABVDOM_Node@@@Z" PURGE="4" COMMENT="" />
    <EXPORT ORDINAL="4533" NAME="?isLegalToken@XMLScanner@@AAE_NABVXMLPScanToken@@@Z" PURGE="4" COMMENT="" />
    <EXPORT ORDINAL="4534" NAME="?isLowSurrogate@RegxUtil@@SA_NG@Z" PURGE="0" COMMENT="" />
    <EXPORT ORDINAL="4535" NAME="?isMatched@XPathMatcher@@QAE_NXZ" PURGE="0" COMMENT="" />
    <EXPORT ORDINAL="4536" NAME="?isNELRecognized@XMLPlatformUtils@@SA_NXZ" PURGE="0" COMMENT="" />
    <EXPORT ORDINAL="4537" NAME="?isNELRecognized@XMLReader@@SA_NXZ" PURGE="0" COMMENT="" />
    <EXPORT ORDINAL="4538" NAME="?isNameChar@XMLReader@@SA_NG@Z" PURGE="0" COMMENT="" />
    <EXPORT ORDINAL="4539" NAME="?isNormalized@XMLDateTime@@ABE_NXZ" PURGE="0" COMMENT="" />
    <EXPORT ORDINAL="4540" NAME="?isNull@DOM_Node@@QBE_NXZ" PURGE="0" COMMENT="" />
    <EXPORT ORDINAL="4541" NAME="?isOccurrenceRangeOK@SchemaValidator@@AAE_NHHHH@Z" PURGE="16" COMMENT="" />
    <EXPORT ORDINAL="4542" NAME="?isOwned@DOMNodeImpl@@QAEX_N@Z" PURGE="4" COMMENT="" />
    <EXPORT ORDINAL="4543" NAME="?isOwned@DOMNodeImpl@@QBE_NXZ" PURGE="0" COMMENT="" />
    <EXPORT ORDINAL="4544" NAME="?isOwned@NodeImpl@@QAEX_N@Z" PURGE="4" COMMENT="" />
    <EXPORT ORDINAL="4545" NAME="?isOwned@NodeImpl@@QBE_NXZ" PURGE="0" COMMENT="" />
    <EXPORT ORDINAL="4546" NAME="?isPad@Base64@@CA_NABE@Z" PURGE="0" COMMENT="" />
    <EXPORT ORDINAL="4547" NAME="?isPlainContentChar@XMLReader@@SA_NG@Z" PURGE="0" COMMENT="" />
    <EXPORT ORDINAL="4548" NAME="?isPublicIdChar@XMLReader@@SA_NG@Z" PURGE="0" COMMENT="" />
    <EXPORT ORDINAL="4549" NAME="?isReadOnly@DOMNodeImpl@@QAEX_N@Z" PURGE="4" COMMENT="" />
    <EXPORT ORDINAL="4550" NAME="?isReadOnly@DOMNodeImpl@@QBE_NXZ" PURGE="0" COMMENT="" />
    <EXPORT ORDINAL="4551" NAME="?isReadOnly@NodeImpl@@QAEX_N@Z" PURGE="4" COMMENT="" />
    <EXPORT ORDINAL="4552" NAME="?isReadOnly@NodeImpl@@QBE_NXZ" PURGE="0" COMMENT="" />
    <EXPORT ORDINAL="4553" NAME="?isReadingExternalEntity@DTDScanner@@AAE_NXZ" PURGE="0" COMMENT="" />
    <EXPORT ORDINAL="4554" NAME="?isRelative@XMLPlatformUtils@@SA_NQBG@Z" PURGE="0" COMMENT="" />
    <EXPORT ORDINAL="4555" NAME="?isRelative@XMLURL@@QBE_NXZ" PURGE="0" COMMENT="" />
    <EXPORT ORDINAL="4556" NAME="?isReservedCharacter@XMLUri@@CA_NG@Z" PURGE="0" COMMENT="" />
    <EXPORT ORDINAL="4557" NAME="?isSameNode@DOMAttrImpl@@UAE_NPBVDOMNode@@@Z" PURGE="4" COMMENT="" />
    <EXPORT ORDINAL="4558" NAME="?isSameNode@DOMCDATASectionImpl@@UAE_NPBVDOMNode@@@Z" PURGE="4" COMMENT="" />
    <EXPORT ORDINAL="4559" NAME="?isSameNode@DOMCommentImpl@@UAE_NPBVDOMNode@@@Z" PURGE="4" COMMENT="" />
    <EXPORT ORDINAL="4560" NAME="?isSameNode@DOMDocumentFragmentImpl@@UAE_NPBVDOMNode@@@Z" PURGE="4" COMMENT="" />
    <EXPORT ORDINAL="4561" NAME="?isSameNode@DOMDocumentImpl@@UAE_NPBVDOMNode@@@Z" PURGE="4" COMMENT="" />
    <EXPORT ORDINAL="4562" NAME="?isSameNode@DOMDocumentTypeImpl@@UAE_NPBVDOMNode@@@Z" PURGE="4" COMMENT="" />
    <EXPORT ORDINAL="4563" NAME="?isSameNode@DOMElementImpl@@UAE_NPBVDOMNode@@@Z" PURGE="4" COMMENT="" />
    <EXPORT ORDINAL="4564" NAME="?isSameNode@DOMEntityImpl@@UAE_NPBVDOMNode@@@Z" PURGE="4" COMMENT="" />
    <EXPORT ORDINAL="4565" NAME="?isSameNode@DOMEntityReferenceImpl@@UAE_NPBVDOMNode@@@Z" PURGE="4" COMMENT="" />
    <EXPORT ORDINAL="4566" NAME="?isSameNode@DOMNodeImpl@@QAE_NPBVDOMNode@@@Z" PURGE="4" COMMENT="" />
    <EXPORT ORDINAL="4567" NAME="?isSameNode@DOMNotationImpl@@UAE_NPBVDOMNode@@@Z" PURGE="4" COMMENT="" />
    <EXPORT ORDINAL="4568" NAME="?isSameNode@DOMProcessingInstructionImpl@@UAE_NPBVDOMNode@@@Z" PURGE="4" COMMENT="" />
    <EXPORT ORDINAL="4569" NAME="?isSameNode@DOMTextImpl@@UAE_NPBVDOMNode@@@Z" PURGE="4" COMMENT="" />
    <EXPORT ORDINAL="4570" NAME="?isScanningPERefOutOfLiteral@ReaderMgr@@QBE_NXZ" PURGE="0" COMMENT="" />
    <EXPORT ORDINAL="4571" NAME="?isSet@RegularExpression@@AAE_NHH@Z" PURGE="8" COMMENT="" />
    <EXPORT ORDINAL="4572" NAME="?isSet@RegxParser@@AAE_NH@Z" PURGE="4" COMMENT="" />
    <EXPORT ORDINAL="4573" NAME="?isSet@Token@@AAE_NHI@Z" PURGE="8" COMMENT="" />
    <EXPORT ORDINAL="4574" NAME="?isShorterThan@Token@@AAE_NQAV1@@Z" PURGE="4" COMMENT="" />
    <EXPORT ORDINAL="4575" NAME="?isSpace@Win32TransService@@UBE_NG@Z" PURGE="4" COMMENT="" />
    <EXPORT ORDINAL="4576" NAME="?isSpecialCharDataChar@XMLReader@@SA_NG@Z" PURGE="0" COMMENT="" />
    <EXPORT ORDINAL="4577" NAME="?isSpecialStartTagChar@XMLReader@@SA_NG@Z" PURGE="0" COMMENT="" />
    <EXPORT ORDINAL="4578" NAME="?isSpecialValue@XMLAbstractDoubleFloat@@ABE_NXZ" PURGE="0" COMMENT="" />
    <EXPORT ORDINAL="4579" NAME="?isSpecified@DOMNodeImpl@@QAEX_N@Z" PURGE="4" COMMENT="" />
    <EXPORT ORDINAL="4580" NAME="?isSpecified@DOMNodeImpl@@QBE_NXZ" PURGE="0" COMMENT="" />
    <EXPORT ORDINAL="4581" NAME="?isSpecified@NodeImpl@@QAEX_N@Z" PURGE="4" COMMENT="" />
    <EXPORT ORDINAL="4582" NAME="?isSpecified@NodeImpl@@QBE_NXZ" PURGE="0" COMMENT="" />
    <EXPORT ORDINAL="4583" NAME="?isStrictIANAEncoding@XMLPlatformUtils@@SA_NXZ" PURGE="0" COMMENT="" />
    <EXPORT ORDINAL="4584" NAME="?isStrictIANAEncoding@XMLTransService@@AAE_NXZ" PURGE="0" COMMENT="" />
    <EXPORT ORDINAL="4585" NAME="?isSubstitutableBy@AnySimpleTypeDatatypeValidator@@UAE_NQBVDatatypeValidator@@@Z" PURGE="4" COMMENT="" />
    <EXPORT ORDINAL="4586" NAME="?isSubstitutableBy@DatatypeValidator@@UAE_NQBV1@@Z" PURGE="4" COMMENT="" />
    <EXPORT ORDINAL="4587" NAME="?isSubstitutableBy@UnionDatatypeValidator@@UAE_NQBVDatatypeValidator@@@Z" PURGE="4" COMMENT="" />
    <EXPORT ORDINAL="4588" NAME="?isSubstitutionGroupValid@TraverseSchema@@AAE_NQBVDOMElement@@QBVSchemaElementDecl@@QBVComplexTypeInfo@@QBVDatatypeValidator@@QBG_N@Z" PURGE="24" COMMENT="" />
    <EXPORT ORDINAL="4589" NAME="?isSupported@DOMAttrImpl@@UBE_NPBG0@Z" PURGE="8" COMMENT="" />
    <EXPORT ORDINAL="4590" NAME="?isSupported@DOMCDATASectionImpl@@UBE_NPBG0@Z" PURGE="8" COMMENT="" />
    <EXPORT ORDINAL="4591" NAME="?isSupported@DOMCommentImpl@@UBE_NPBG0@Z" PURGE="8" COMMENT="" />
    <EXPORT ORDINAL="4592" NAME="?isSupported@DOMDocumentFragmentImpl@@UBE_NPBG0@Z" PURGE="8" COMMENT="" />
    <EXPORT ORDINAL="4593" NAME="?isSupported@DOMDocumentImpl@@UBE_NPBG0@Z" PURGE="8" COMMENT="" />
    <EXPORT ORDINAL="4594" NAME="?isSupported@DOMDocumentTypeImpl@@UBE_NPBG0@Z" PURGE="8" COMMENT="" />
    <EXPORT ORDINAL="4595" NAME="?isSupported@DOMElementImpl@@UBE_NPBG0@Z" PURGE="8" COMMENT="" />
    <EXPORT ORDINAL="4596" NAME="?isSupported@DOMEntityImpl@@UBE_NPBG0@Z" PURGE="8" COMMENT="" />
    <EXPORT ORDINAL="4597" NAME="?isSupported@DOMEntityReferenceImpl@@UBE_NPBG0@Z" PURGE="8" COMMENT="" />
    <EXPORT ORDINAL="4598" NAME="?isSupported@DOMNodeImpl@@QBE_NPBG0@Z" PURGE="8" COMMENT="" />
    <EXPORT ORDINAL="4599" NAME="?isSupported@DOMNotationImpl@@UBE_NPBG0@Z" PURGE="8" COMMENT="" />
    <EXPORT ORDINAL="4600" NAME="?isSupported@DOMProcessingInstructionImpl@@UBE_NPBG0@Z" PURGE="8" COMMENT="" />
    <EXPORT ORDINAL="4601" NAME="?isSupported@DOMTextImpl@@UBE_NPBG0@Z" PURGE="8" COMMENT="" />
    <EXPORT ORDINAL="4602" NAME="?isSupported@DOM_Node@@QBE_NABVDOMString@@0@Z" PURGE="8" COMMENT="" />
    <EXPORT ORDINAL="4603" NAME="?isSupported@NodeImpl@@UAE_NABVDOMString@@0@Z" PURGE="8" COMMENT="" />
    <EXPORT ORDINAL="4604" NAME="?isTextImpl@NodeImpl@@UAE_NXZ" PURGE="0" COMMENT="" />
    <EXPORT ORDINAL="4605" NAME="?isTextImpl@TextImpl@@UAE_NXZ" PURGE="0" COMMENT="" />
    <EXPORT ORDINAL="4606" NAME="?isToBeReleased@DOMNodeImpl@@QAEX_N@Z" PURGE="4" COMMENT="" />
    <EXPORT ORDINAL="4607" NAME="?isToBeReleased@DOMNodeImpl@@QBE_NXZ" PURGE="0" COMMENT="" />
    <EXPORT ORDINAL="4608" NAME="?isURIString@XMLUri@@CA_NQBG@Z" PURGE="0" COMMENT="" />
    <EXPORT ORDINAL="4609" NAME="?isUnparsed@XMLEntityDecl@@QBE_NXZ" PURGE="0" COMMENT="" />
    <EXPORT ORDINAL="4610" NAME="?isUnreservedCharacter@XMLUri@@CA_NG@Z" PURGE="0" COMMENT="" />
    <EXPORT ORDINAL="4611" NAME="?isUsingCachedGrammarInParse@DOMParser@@QBE_NXZ" PURGE="0" COMMENT="" />
    <EXPORT ORDINAL="4612" NAME="?isUsingCachedGrammarInParse@SAXParser@@QBE_NXZ" PURGE="0" COMMENT="" />
    <EXPORT ORDINAL="4613" NAME="?isUsingCachedGrammarInParse@XMLScanner@@QBE_NXZ" PURGE="0" COMMENT="" />
    <EXPORT ORDINAL="4614" NAME="?isUsingCachedGrammarInParse@XercesDOMParser@@QBE_NXZ" PURGE="0" COMMENT="" />
    <EXPORT ORDINAL="4615" NAME="?isValidAncestorType@DOMRangeImpl@@ABE_NPBVDOMNode@@@Z" PURGE="4" COMMENT="" />
    <EXPORT ORDINAL="4616" NAME="?isValidAncestorType@RangeImpl@@ABE_NABVDOM_Node@@@Z" PURGE="4" COMMENT="" />
    <EXPORT ORDINAL="4617" NAME="?isValidEncName@XMLString@@SA_NQBG@Z" PURGE="0" COMMENT="" />
    <EXPORT ORDINAL="4618" NAME="?isValidEncoding@EncodingValidator@@QAE_NQBG@Z" PURGE="4" COMMENT="" />
    <EXPORT ORDINAL="4619" NAME="?isValidNCName@XMLString@@SA_NQBG@Z" PURGE="0" COMMENT="" />
    <EXPORT ORDINAL="4620" NAME="?isValidName@XMLString@@SA_NQBG@Z" PURGE="0" COMMENT="" />
    <EXPORT ORDINAL="4621" NAME="?isValidQName@XMLString@@SA_NQBG@Z" PURGE="0" COMMENT="" />
    <EXPORT ORDINAL="4622" NAME="?isValidRefDeclaration@TraverseSchema@@AAE_NQBVDOMElement@@@Z" PURGE="4" COMMENT="" />
    <EXPORT ORDINAL="4623" NAME="?isValidatorFromUser@XMLScanner@@QAE_NXZ" PURGE="0" COMMENT="" />
    <EXPORT ORDINAL="4624" NAME="?isWSCollapsed@XMLString@@SA_NQBG@Z" PURGE="0" COMMENT="" />
    <EXPORT ORDINAL="4625" NAME="?isWSReplaced@XMLString@@SA_NQBG@Z" PURGE="0" COMMENT="" />
    <EXPORT ORDINAL="4626" NAME="?isWellFormedAddress@XMLUri@@CA_NQBG@Z" PURGE="0" COMMENT="" />
    <EXPORT ORDINAL="4627" NAME="?isWhitespace@XMLReader@@SA_NG@Z" PURGE="0" COMMENT="" />
    <EXPORT ORDINAL="4628" NAME="?isWildCardEltSubset@SchemaValidator@@AAE_NQBVContentSpecNode@@0@Z" PURGE="8" COMMENT="" />
    <EXPORT ORDINAL="4629" NAME="?isWildCardSubset@TraverseSchema@@AAE_NQBVSchemaAttDef@@0@Z" PURGE="8" COMMENT="" />
    <EXPORT ORDINAL="4630" NAME="?isWordChar@RegxUtil@@SA_NG@Z" PURGE="0" COMMENT="" />
    <EXPORT ORDINAL="4631" NAME="?isXMLChar@XMLReader@@SA_NG@Z" PURGE="0" COMMENT="" />
    <EXPORT ORDINAL="4632" NAME="?isXMLLetter@XMLReader@@SA_NG@Z" PURGE="0" COMMENT="" />
    <EXPORT ORDINAL="4633" NAME="?isXMLName@DOMDocumentImpl@@SA_NPBG@Z" PURGE="0" COMMENT="" />
    <EXPORT ORDINAL="4634" NAME="?isXMLName@DocumentImpl@@SA_NABVDOMString@@@Z" PURGE="0" COMMENT="" />
    <EXPORT ORDINAL="4635" NAME="?item@AttrImpl@@UAEPAVNodeImpl@@I@Z" PURGE="4" COMMENT="" />
    <EXPORT ORDINAL="4636" NAME="?item@DOMDeepNodeListImpl@@UBEPAVDOMNode@@K@Z" PURGE="4" COMMENT="" />
    <EXPORT ORDINAL="4637" NAME="?item@DOMNamedNodeMapImpl@@UBEPAVDOMNode@@K@Z" PURGE="4" COMMENT="" />
    <EXPORT ORDINAL="4638" NAME="?item@DOMNodeListImpl@@UBEPAVDOMNode@@K@Z" PURGE="4" COMMENT="" />
    <EXPORT ORDINAL="4639" NAME="?item@DOM_NamedNodeMap@@QBE?AVDOM_Node@@I@Z" PURGE="8" COMMENT="" />
    <EXPORT ORDINAL="4640" NAME="?item@DOM_NodeList@@QBE?AVDOM_Node@@I@Z" PURGE="8" COMMENT="" />
    <EXPORT ORDINAL="4641" NAME="?item@DeepNodeListImpl@@UAEPAVNodeImpl@@I@Z" PURGE="4" COMMENT="" />
    <EXPORT ORDINAL="4642" NAME="?item@EntityImpl@@UAEPAVNodeImpl@@I@Z" PURGE="4" COMMENT="" />
    <EXPORT ORDINAL="4643" NAME="?item@NamedNodeMapImpl@@UAEPAVNodeImpl@@I@Z" PURGE="4" COMMENT="" />
    <EXPORT ORDINAL="4644" NAME="?item@NodeImpl@@UAEPAV1@I@Z" PURGE="4" COMMENT="" />
    <EXPORT ORDINAL="4645" NAME="?item@ParentNode@@UAEPAVNodeImpl@@I@Z" PURGE="4" COMMENT="" />
    <EXPORT ORDINAL="4646" NAME="?keyAt@FieldValueMap@@QBEPAVIC_Field@@I@Z" PURGE="4" COMMENT="" />
    <EXPORT ORDINAL="4647" NAME="?lastChild@AttrImpl@@IAEPAVChildNode@@XZ" PURGE="0" COMMENT="" />
    <EXPORT ORDINAL="4648" NAME="?lastChild@AttrImpl@@IAEXPAVChildNode@@@Z" PURGE="4" COMMENT="" />
    <EXPORT ORDINAL="4649" NAME="?lastChild@DOMParentNode@@QAEXPAVDOMNode@@@Z" PURGE="4" COMMENT="" />
    <EXPORT ORDINAL="4650" NAME="?lastChild@DOMParentNode@@QBEPAVDOMNode@@XZ" PURGE="0" COMMENT="" />
    <EXPORT ORDINAL="4651" NAME="?lastChild@DOMTreeWalkerImpl@@UAEPAVDOMNode@@XZ" PURGE="0" COMMENT="" />
    <EXPORT ORDINAL="4652" NAME="?lastChild@DOM_TreeWalker@@QAE?AVDOM_Node@@XZ" PURGE="4" COMMENT="" />
    <EXPORT ORDINAL="4653" NAME="?lastChild@ParentNode@@IAEPAVChildNode@@XZ" PURGE="0" COMMENT="" />
    <EXPORT ORDINAL="4654" NAME="?lastChild@ParentNode@@IAEXPAVChildNode@@@Z" PURGE="4" COMMENT="" />
    <EXPORT ORDINAL="4655" NAME="?lastChild@TreeWalkerImpl@@QAE?AVDOM_Node@@XZ" PURGE="4" COMMENT="" />
    <EXPORT ORDINAL="4656" NAME="?lastIndexOf@XMLString@@SAHQBDD@Z" PURGE="0" COMMENT="" />
    <EXPORT ORDINAL="4657" NAME="?lastIndexOf@XMLString@@SAHQBDDI@Z" PURGE="0" COMMENT="" />
    <EXPORT ORDINAL="4658" NAME="?lastIndexOf@XMLString@@SAHQBGG@Z" PURGE="0" COMMENT="" />
    <EXPORT ORDINAL="4659" NAME="?lastIndexOf@XMLString@@SAHQBGGI@Z" PURGE="0" COMMENT="" />
    <EXPORT ORDINAL="4660" NAME="?laxElementValidation@XMLScanner@@AAE_NPAVQName@@PAVContentLeafNameTypeVector@@QBVXMLContentModel@@I@Z" PURGE="16" COMMENT="" />
    <EXPORT ORDINAL="4661" NAME="?length@DOMString@@QBEIXZ" PURGE="0" COMMENT="" />
    <EXPORT ORDINAL="4662" NAME="?loadAMsgSet@XMLPlatformUtils@@CAPAVXMLMsgLoader@@QBG@Z" PURGE="0" COMMENT="" />
    <EXPORT ORDINAL="4663" NAME="?loadDTDGrammar@XMLScanner@@AAEPAVGrammar@@ABVInputSource@@_N@Z" PURGE="8" COMMENT="" />
    <EXPORT ORDINAL="4664" NAME="?loadExceptText@XMLException@@IAEXW4Codes@XMLExcepts@@@Z" PURGE="4" COMMENT="" />
    <EXPORT ORDINAL="4665" NAME="?loadExceptText@XMLException@@IAEXW4Codes@XMLExcepts@@QBD111@Z" PURGE="20" COMMENT="" />
    <EXPORT ORDINAL="4666" NAME="?loadExceptText@XMLException@@IAEXW4Codes@XMLExcepts@@QBG111@Z" PURGE="20" COMMENT="" />
    <EXPORT ORDINAL="4667" NAME="?loadGrammar@DOMBuilderImpl@@UAEPAVGrammar@@ABVDOMInputSource@@F_N@Z" PURGE="12" COMMENT="" />
    <EXPORT ORDINAL="4668" NAME="?loadGrammar@DOMBuilderImpl@@UAEPAVGrammar@@QBDF_N@Z" PURGE="12" COMMENT="" />
    <EXPORT ORDINAL="4669" NAME="?loadGrammar@DOMBuilderImpl@@UAEPAVGrammar@@QBGF_N@Z" PURGE="12" COMMENT="" />
    <EXPORT ORDINAL="4670" NAME="?loadGrammar@DOMParser@@QAEPAVGrammar@@ABVInputSource@@F_N@Z" PURGE="12" COMMENT="" />
    <EXPORT ORDINAL="4671" NAME="?loadGrammar@DOMParser@@QAEPAVGrammar@@QBDF_N@Z" PURGE="12" COMMENT="" />
    <EXPORT ORDINAL="4672" NAME="?loadGrammar@DOMParser@@QAEPAVGrammar@@QBGF_N@Z" PURGE="12" COMMENT="" />
    <EXPORT ORDINAL="4673" NAME="?loadGrammar@SAX2XMLReaderImpl@@UAEPAVGrammar@@ABVInputSource@@F_N@Z" PURGE="12" COMMENT="" />
    <EXPORT ORDINAL="4674" NAME="?loadGrammar@SAX2XMLReaderImpl@@UAEPAVGrammar@@QBDF_N@Z" PURGE="12" COMMENT="" />
    <EXPORT ORDINAL="4675" NAME="?loadGrammar@SAX2XMLReaderImpl@@UAEPAVGrammar@@QBGF_N@Z" PURGE="12" COMMENT="" />
    <EXPORT ORDINAL="4676" NAME="?loadGrammar@SAXParser@@QAEPAVGrammar@@ABVInputSource@@F_N@Z" PURGE="12" COMMENT="" />
    <EXPORT ORDINAL="4677" NAME="?loadGrammar@SAXParser@@QAEPAVGrammar@@QBDF_N@Z" PURGE="12" COMMENT="" />
    <EXPORT ORDINAL="4678" NAME="?loadGrammar@SAXParser@@QAEPAVGrammar@@QBGF_N@Z" PURGE="12" COMMENT="" />
    <EXPORT ORDINAL="4679" NAME="?loadGrammar@XMLScanner@@QAEPAVGrammar@@ABVInputSource@@F_N@Z" PURGE="12" COMMENT="" />
    <EXPORT ORDINAL="4680" NAME="?loadGrammar@XMLScanner@@QAEPAVGrammar@@QBDF_N@Z" PURGE="12" COMMENT="" />
    <EXPORT ORDINAL="4681" NAME="?loadGrammar@XMLScanner@@QAEPAVGrammar@@QBGF_N@Z" PURGE="12" COMMENT="" />
    <EXPORT ORDINAL="4682" NAME="?loadGrammar@XercesDOMParser@@QAEPAVGrammar@@ABVInputSource@@F_N@Z" PURGE="12" COMMENT="" />
    <EXPORT ORDINAL="4683" NAME="?loadGrammar@XercesDOMParser@@QAEPAVGrammar@@QBDF_N@Z" PURGE="12" COMMENT="" />
    <EXPORT ORDINAL="4684" NAME="?loadGrammar@XercesDOMParser@@QAEPAVGrammar@@QBGF_N@Z" PURGE="12" COMMENT="" />
    <EXPORT ORDINAL="4685" NAME="?loadMsg@Win32MsgLoader@@UAE_NIQAGI@Z" PURGE="12" COMMENT="" />
    <EXPORT ORDINAL="4686" NAME="?loadMsg@Win32MsgLoader@@UAE_NIQAGIQBD111@Z" PURGE="28" COMMENT="" />
    <EXPORT ORDINAL="4687" NAME="?loadMsg@Win32MsgLoader@@UAE_NIQAGIQBG111@Z" PURGE="28" COMMENT="" />
    <EXPORT ORDINAL="4688" NAME="?loadMsgSet@XMLPlatformUtils@@SAPAVXMLMsgLoader@@QBG@Z" PURGE="0" COMMENT="" />
    <EXPORT ORDINAL="4689" NAME="?loadXMLSchemaGrammar@XMLScanner@@AAEPAVGrammar@@ABVInputSource@@_N@Z" PURGE="8" COMMENT="" />
    <EXPORT ORDINAL="4690" NAME="?lock@XMLMutex@@QAEXXZ" PURGE="0" COMMENT="" />
    <EXPORT ORDINAL="4691" NAME="?lockMutex@XMLPlatformUtils@@SAXQAX@Z" PURGE="0" COMMENT="" />
    <EXPORT ORDINAL="4692" NAME="?lookingAtChar@ReaderMgr@@QAE_NG@Z" PURGE="4" COMMENT="" />
    <EXPORT ORDINAL="4693" NAME="?lookingAtSpace@ReaderMgr@@QAE_NXZ" PURGE="0" COMMENT="" />
    <EXPORT ORDINAL="4694" NAME="?lookupByName@XMLURL@@QAE?AW4Protocols@1@QBG@Z" PURGE="4" COMMENT="" />
    <EXPORT ORDINAL="4695" NAME="?lookupNamespacePrefix@DOMAttrImpl@@UBEPBGPBG_N@Z" PURGE="8" COMMENT="" />
    <EXPORT ORDINAL="4696" NAME="?lookupNamespacePrefix@DOMCDATASectionImpl@@UBEPBGPBG_N@Z" PURGE="8" COMMENT="" />
    <EXPORT ORDINAL="4697" NAME="?lookupNamespacePrefix@DOMCommentImpl@@UBEPBGPBG_N@Z" PURGE="8" COMMENT="" />
    <EXPORT ORDINAL="4698" NAME="?lookupNamespacePrefix@DOMDocumentFragmentImpl@@UBEPBGPBG_N@Z" PURGE="8" COMMENT="" />
    <EXPORT ORDINAL="4699" NAME="?lookupNamespacePrefix@DOMDocumentImpl@@UBEPBGPBG_N@Z" PURGE="8" COMMENT="" />
    <EXPORT ORDINAL="4700" NAME="?lookupNamespacePrefix@DOMDocumentTypeImpl@@UBEPBGPBG_N@Z" PURGE="8" COMMENT="" />
    <EXPORT ORDINAL="4701" NAME="?lookupNamespacePrefix@DOMElementImpl@@UBEPBGPBG_N@Z" PURGE="8" COMMENT="" />
    <EXPORT ORDINAL="4702" NAME="?lookupNamespacePrefix@DOMEntityImpl@@UBEPBGPBG_N@Z" PURGE="8" COMMENT="" />
    <EXPORT ORDINAL="4703" NAME="?lookupNamespacePrefix@DOMEntityReferenceImpl@@UBEPBGPBG_N@Z" PURGE="8" COMMENT="" />
    <EXPORT ORDINAL="4704" NAME="?lookupNamespacePrefix@DOMNodeImpl@@QBEPBGPBG_N@Z" PURGE="8" COMMENT="" />
    <EXPORT ORDINAL="4705" NAME="?lookupNamespacePrefix@DOMNodeImpl@@QBEPBGQBG_NPAVDOMElement@@@Z" PURGE="12" COMMENT="" />
    <EXPORT ORDINAL="4706" NAME="?lookupNamespacePrefix@DOMNotationImpl@@UBEPBGPBG_N@Z" PURGE="8" COMMENT="" />
    <EXPORT ORDINAL="4707" NAME="?lookupNamespacePrefix@DOMProcessingInstructionImpl@@UBEPBGPBG_N@Z" PURGE="8" COMMENT="" />
    <EXPORT ORDINAL="4708" NAME="?lookupNamespacePrefix@DOMTextImpl@@UBEPBGPBG_N@Z" PURGE="8" COMMENT="" />
    <EXPORT ORDINAL="4709" NAME="?lookupNamespaceURI@DOMAttrImpl@@UBEPBGPBG@Z" PURGE="4" COMMENT="" />
    <EXPORT ORDINAL="4710" NAME="?lookupNamespaceURI@DOMCDATASectionImpl@@UBEPBGPBG@Z" PURGE="4" COMMENT="" />
    <EXPORT ORDINAL="4711" NAME="?lookupNamespaceURI@DOMCommentImpl@@UBEPBGPBG@Z" PURGE="4" COMMENT="" />
    <EXPORT ORDINAL="4712" NAME="?lookupNamespaceURI@DOMDocumentFragmentImpl@@UBEPBGPBG@Z" PURGE="4" COMMENT="" />
    <EXPORT ORDINAL="4713" NAME="?lookupNamespaceURI@DOMDocumentImpl@@UBEPBGPBG@Z" PURGE="4" COMMENT="" />
    <EXPORT ORDINAL="4714" NAME="?lookupNamespaceURI@DOMDocumentTypeImpl@@UBEPBGPBG@Z" PURGE="4" COMMENT="" />
    <EXPORT ORDINAL="4715" NAME="?lookupNamespaceURI@DOMElementImpl@@UBEPBGPBG@Z" PURGE="4" COMMENT="" />
    <EXPORT ORDINAL="4716" NAME="?lookupNamespaceURI@DOMEntityImpl@@UBEPBGPBG@Z" PURGE="4" COMMENT="" />
    <EXPORT ORDINAL="4717" NAME="?lookupNamespaceURI@DOMEntityReferenceImpl@@UBEPBGPBG@Z" PURGE="4" COMMENT="" />
    <EXPORT ORDINAL="4718" NAME="?lookupNamespaceURI@DOMNodeImpl@@QBEPBGPBG@Z" PURGE="4" COMMENT="" />
    <EXPORT ORDINAL="4719" NAME="?lookupNamespaceURI@DOMNotationImpl@@UBEPBGPBG@Z" PURGE="4" COMMENT="" />
    <EXPORT ORDINAL="4720" NAME="?lookupNamespaceURI@DOMProcessingInstructionImpl@@UBEPBGPBG@Z" PURGE="4" COMMENT="" />
    <EXPORT ORDINAL="4721" NAME="?lookupNamespaceURI@DOMTextImpl@@UBEPBGPBG@Z" PURGE="4" COMMENT="" />
    <EXPORT ORDINAL="4722" NAME="?lowerCase@Win32TransService@@UBEXQAG@Z" PURGE="4" COMMENT="" />
    <EXPORT ORDINAL="4723" NAME="?lowerCase@XMLString@@SAXQAG@Z" PURGE="0" COMMENT="" />
    <EXPORT ORDINAL="4724" NAME="?makeChildNode@AttrImpl@@IAEXXZ" PURGE="0" COMMENT="" />
    <EXPORT ORDINAL="4725" NAME="?makeContentModel@ComplexTypeInfo@@AAEPAVXMLContentModel@@_NQAVContentSpecNode@@@Z" PURGE="8" COMMENT="" />
    <EXPORT ORDINAL="4726" NAME="?makeContentModel@DTDElementDecl@@AAEPAVXMLContentModel@@XZ" PURGE="0" COMMENT="" />
    <EXPORT ORDINAL="4727" NAME="?makeMutex@XMLPlatformUtils@@SAPAXXZ" PURGE="0" COMMENT="" />
    <EXPORT ORDINAL="4728" NAME="?makeNetAccessor@XMLPlatformUtils@@CAPAVXMLNetAccessor@@XZ" PURGE="0" COMMENT="" />
    <EXPORT ORDINAL="4729" NAME="?makeNew@WinSockNetAccessor@@UAEPAVBinInputStream@@ABVXMLURL@@@Z" PURGE="4" COMMENT="" />
    <EXPORT ORDINAL="4730" NAME="?makeNewLCPTranscoder@Win32TransService@@UAEPAVXMLLCPTranscoder@@XZ" PURGE="0" COMMENT="" />
    <EXPORT ORDINAL="4731" NAME="?makeNewStream@XMLURL@@QBEPAVBinInputStream@@XZ" PURGE="0" COMMENT="" />
    <EXPORT ORDINAL="4732" NAME="?makeNewTranscoderFor@XMLTransService@@QAEPAVXMLTranscoder@@QBDAAW4Codes@1@I@Z" PURGE="12" COMMENT="" />
    <EXPORT ORDINAL="4733" NAME="?makeNewTranscoderFor@XMLTransService@@QAEPAVXMLTranscoder@@QBGAAW4Codes@1@I@Z" PURGE="12" COMMENT="" />
    <EXPORT ORDINAL="4734" NAME="?makeNewXMLTranscoder@Win32TransService@@MAEPAVXMLTranscoder@@QBGAAW4Codes@XMLTransService@@I@Z" PURGE="12" COMMENT="" />
    <EXPORT ORDINAL="4735" NAME="?makeRelativeTo@XMLURL@@QAEXABV1@@Z" PURGE="4" COMMENT="" />
    <EXPORT ORDINAL="4736" NAME="?makeRelativeTo@XMLURL@@QAEXQBG@Z" PURGE="4" COMMENT="" />
    <EXPORT ORDINAL="4737" NAME="?makeStream@LocalFileInputSource@@UBEPAVBinInputStream@@XZ" PURGE="0" COMMENT="" />
    <EXPORT ORDINAL="4738" NAME="?makeStream@MemBufInputSource@@UBEPAVBinInputStream@@XZ" PURGE="0" COMMENT="" />
    <EXPORT ORDINAL="4739" NAME="?makeStream@StdInInputSource@@UBEPAVBinInputStream@@XZ" PURGE="0" COMMENT="" />
    <EXPORT ORDINAL="4740" NAME="?makeStream@URLInputSource@@UBEPAVBinInputStream@@XZ" PURGE="0" COMMENT="" />
    <EXPORT ORDINAL="4741" NAME="?makeStream@Wrapper4DOMInputSource@@UBEPAVBinInputStream@@XZ" PURGE="-1" COMMENT="" />
    <EXPORT ORDINAL="4742" NAME="?makeStream@Wrapper4InputSource@@UBEPAVBinInputStream@@XZ" PURGE="-1" COMMENT="" />
    <EXPORT ORDINAL="4743" NAME="?makeTransService@XMLPlatformUtils@@CAPAVXMLTransService@@XZ" PURGE="0" COMMENT="" />
    <EXPORT ORDINAL="4744" NAME="?makeUName@XMLString@@SAPAGQBG0@Z" PURGE="0" COMMENT="" />
    <EXPORT ORDINAL="4745" NAME="?mapAttributes@GeneralAttributeCheck@@AAEXXZ" PURGE="0" COMMENT="" />
    <EXPORT ORDINAL="4746" NAME="?mapElements@GeneralAttributeCheck@@AAEXXZ" PURGE="0" COMMENT="" />
    <EXPORT ORDINAL="4747" NAME="?mapPrefix@DOMNodeImpl@@SAPBGPBG0F@Z" PURGE="12" COMMENT="" />
    <EXPORT ORDINAL="4748" NAME="?mapPrefix@NodeImpl@@KAABVDOMString@@ABV2@0F@Z" PURGE="0" COMMENT="" />
    <EXPORT ORDINAL="4749" NAME="?mapPrefixToURI@ElemStack@@QBEIQBGW4MapModes@1@AA_N@Z" PURGE="12" COMMENT="" />
    <EXPORT ORDINAL="4750" NAME="?match@CharToken@@QAE_NH@Z" PURGE="4" COMMENT="" />
    <EXPORT ORDINAL="4751" NAME="?match@RangeToken@@QAE_NH@Z" PURGE="4" COMMENT="" />
    <EXPORT ORDINAL="4752" NAME="?match@RegularExpression@@AAEHQAVContext@1@QBVOp@@HF@Z" PURGE="16" COMMENT="" />
    <EXPORT ORDINAL="4753" NAME="?matchAnchor@RegularExpression@@AAE_NQAVContext@1@HH@Z" PURGE="12" COMMENT="" />
    <EXPORT ORDINAL="4754" NAME="?matchBackReference@RegularExpression@@AAE_NQAVContext@1@HAAHF_N@Z" PURGE="20" COMMENT="" />
    <EXPORT ORDINAL="4755" NAME="?matchCapture@RegularExpression@@AAEHQAVContext@1@QBVOp@@HF@Z" PURGE="16" COMMENT="" />
    <EXPORT ORDINAL="4756" NAME="?matchChar@RegularExpression@@AAE_NQAVContext@1@HAAHF_N@Z" PURGE="20" COMMENT="" />
    <EXPORT ORDINAL="4757" NAME="?matchCondition@RegularExpression@@AAE_NQAVContext@1@QBVOp@@HF@Z" PURGE="16" COMMENT="" />
    <EXPORT ORDINAL="4758" NAME="?matchDot@RegularExpression@@AAE_NQAVContext@1@AAHF@Z" PURGE="12" COMMENT="" />
    <EXPORT ORDINAL="4759" NAME="?matchIgnoreCase@RegularExpression@@AAE_NHH@Z" PURGE="8" COMMENT="" />
    <EXPORT ORDINAL="4760" NAME="?matchModifier@RegularExpression@@AAEHQAVContext@1@QBVOp@@HF@Z" PURGE="16" COMMENT="" />
    <EXPORT ORDINAL="4761" NAME="?matchNodeOrParent@DOMNodeIteratorImpl@@AAEPAVDOMNode@@PAV2@@Z" PURGE="4" COMMENT="" />
    <EXPORT ORDINAL="4762" NAME="?matchNodeOrParent@NodeIteratorImpl@@QAE?AVDOM_Node@@V2@@Z" PURGE="8" COMMENT="" />
    <EXPORT ORDINAL="4763" NAME="?matchRange@RegularExpression@@AAE_NQAVContext@1@QBVOp@@AAHF_N@Z" PURGE="20" COMMENT="" />
    <EXPORT ORDINAL="4764" NAME="?matchScale@XMLBigDecimal@@SAXQAV1@0@Z" PURGE="0" COMMENT="" />
    <EXPORT ORDINAL="4765" NAME="?matchString@RegularExpression@@AAE_NQAVContext@1@QBGAAHF_N@Z" PURGE="20" COMMENT="" />
    <EXPORT ORDINAL="4766" NAME="?matchUnion@RegularExpression@@AAEHQAVContext@1@QBVOp@@HF@Z" PURGE="16" COMMENT="" />
    <EXPORT ORDINAL="4767" NAME="?matched@FieldMatcher@@UAEXQBGQAVDatatypeValidator@@_N@Z" PURGE="12" COMMENT="" />
    <EXPORT ORDINAL="4768" NAME="?matched@XPathMatcher@@MAEXQBGQAVDatatypeValidator@@_N@Z" PURGE="12" COMMENT="" />
    <EXPORT ORDINAL="4769" NAME="?matches@BMPattern@@QAEHQBGHH@Z" PURGE="12" COMMENT="" />
    <EXPORT ORDINAL="4770" NAME="?matches@RegularExpression@@QAE_NQBD@Z" PURGE="4" COMMENT="" />
    <EXPORT ORDINAL="4771" NAME="?matches@RegularExpression@@QAE_NQBDHH@Z" PURGE="12" COMMENT="" />
    <EXPORT ORDINAL="4772" NAME="?matches@RegularExpression@@QAE_NQBDHHQAVMatch@@@Z" PURGE="16" COMMENT="" />
    <EXPORT ORDINAL="4773" NAME="?matches@RegularExpression@@QAE_NQBDQAVMatch@@@Z" PURGE="8" COMMENT="" />
    <EXPORT ORDINAL="4774" NAME="?matches@RegularExpression@@QAE_NQBG@Z" PURGE="4" COMMENT="" />
    <EXPORT ORDINAL="4775" NAME="?matches@RegularExpression@@QAE_NQBGHH@Z" PURGE="12" COMMENT="" />
    <EXPORT ORDINAL="4776" NAME="?matches@RegularExpression@@QAE_NQBGHHQAVMatch@@@Z" PURGE="16" COMMENT="" />
    <EXPORT ORDINAL="4777" NAME="?matches@RegularExpression@@QAE_NQBGQAVMatch@@@Z" PURGE="8" COMMENT="" />
    <EXPORT ORDINAL="4778" NAME="?mergeRanges@RangeToken@@UAEXQBVToken@@@Z" PURGE="4" COMMENT="" />
    <EXPORT ORDINAL="4779" NAME="?mergeRanges@Token@@UAEXQBV1@@Z" PURGE="0" COMMENT="" />
    <EXPORT ORDINAL="4780" NAME="?moveChars@XMLString@@SAXQAGQBGI@Z" PURGE="0" COMMENT="" />
    <EXPORT ORDINAL="4781" NAME="?movePlainContentChars@ReaderMgr@@QAEXAAVXMLBuffer@@@Z" PURGE="4" COMMENT="" />
    <EXPORT ORDINAL="4782" NAME="?movePlainContentChars@XMLReader@@QAEXAAVXMLBuffer@@@Z" PURGE="4" COMMENT="" />
    <EXPORT ORDINAL="4783" NAME="?moveSpecifiedAttributes@DOMAttrMapImpl@@QAEXPAV1@@Z" PURGE="4" COMMENT="" />
    <EXPORT ORDINAL="4784" NAME="?multiply@XMLBigInteger@@QAEXI@Z" PURGE="4" COMMENT="" />
    <EXPORT ORDINAL="4785" NAME="?nameForEncoding@XMLRecognizer@@SAPBGW4Encodings@1@@Z" PURGE="0" COMMENT="" />
    <EXPORT ORDINAL="4786" NAME="?needsSyncChildren@DOMNodeImpl@@QAEX_N@Z" PURGE="4" COMMENT="" />
    <EXPORT ORDINAL="4787" NAME="?needsSyncChildren@DOMNodeImpl@@QBE_NXZ" PURGE="0" COMMENT="" />
    <EXPORT ORDINAL="4788" NAME="?needsSyncChildren@NodeImpl@@QAEX_N@Z" PURGE="4" COMMENT="" />
    <EXPORT ORDINAL="4789" NAME="?needsSyncChildren@NodeImpl@@QBE_NXZ" PURGE="0" COMMENT="" />
    <EXPORT ORDINAL="4790" NAME="?needsSyncData@DOMNodeImpl@@QAEX_N@Z" PURGE="4" COMMENT="" />
    <EXPORT ORDINAL="4791" NAME="?needsSyncData@DOMNodeImpl@@QBE_NXZ" PURGE="0" COMMENT="" />
    <EXPORT ORDINAL="4792" NAME="?needsSyncData@NodeImpl@@QAEX_N@Z" PURGE="4" COMMENT="" />
    <EXPORT ORDINAL="4793" NAME="?needsSyncData@NodeImpl@@QBE_NXZ" PURGE="0" COMMENT="" />
    <EXPORT ORDINAL="4794" NAME="?newInstance@AnySimpleTypeDatatypeValidator@@UAEPAVDatatypeValidator@@QAV?$RefHashTableOf@VKVStringPair@@@@QAV?$RefVectorOf@G@@H@Z" PURGE="4" COMMENT="" />
    <EXPORT ORDINAL="4795" NAME="?newInstance@AnyURIDatatypeValidator@@UAEPAVDatatypeValidator@@QAV?$RefHashTableOf@VKVStringPair@@@@QAV?$RefVectorOf@G@@H@Z" PURGE="12" COMMENT="" />
    <EXPORT ORDINAL="4796" NAME="?newInstance@Base64BinaryDatatypeValidator@@UAEPAVDatatypeValidator@@QAV?$RefHashTableOf@VKVStringPair@@@@QAV?$RefVectorOf@G@@H@Z" PURGE="12" COMMENT="" />
    <EXPORT ORDINAL="4797" NAME="?newInstance@BooleanDatatypeValidator@@UAEPAVDatatypeValidator@@QAV?$RefHashTableOf@VKVStringPair@@@@QAV?$RefVectorOf@G@@H@Z" PURGE="12" COMMENT="" />
    <EXPORT ORDINAL="4798" NAME="?newInstance@DateDatatypeValidator@@UAEPAVDatatypeValidator@@QAV?$RefHashTableOf@VKVStringPair@@@@QAV?$RefVectorOf@G@@H@Z" PURGE="12" COMMENT="" />
    <EXPORT ORDINAL="4799" NAME="?newInstance@DateTimeDatatypeValidator@@UAEPAVDatatypeValidator@@QAV?$RefHashTableOf@VKVStringPair@@@@QAV?$RefVectorOf@G@@H@Z" PURGE="12" COMMENT="" />
    <EXPORT ORDINAL="4800" NAME="?newInstance@DayDatatypeValidator@@UAEPAVDatatypeValidator@@QAV?$RefHashTableOf@VKVStringPair@@@@QAV?$RefVectorOf@G@@H@Z" PURGE="12" COMMENT="" />
    <EXPORT ORDINAL="4801" NAME="?newInstance@DecimalDatatypeValidator@@UAEPAVDatatypeValidator@@QAV?$RefHashTableOf@VKVStringPair@@@@QAV?$RefVectorOf@G@@H@Z" PURGE="12" COMMENT="" />
    <EXPORT ORDINAL="4802" NAME="?newInstance@DoubleDatatypeValidator@@UAEPAVDatatypeValidator@@QAV?$RefHashTableOf@VKVStringPair@@@@QAV?$RefVectorOf@G@@H@Z" PURGE="12" COMMENT="" />
    <EXPORT ORDINAL="4803" NAME="?newInstance@DurationDatatypeValidator@@UAEPAVDatatypeValidator@@QAV?$RefHashTableOf@VKVStringPair@@@@QAV?$RefVectorOf@G@@H@Z" PURGE="12" COMMENT="" />
    <EXPORT ORDINAL="4804" NAME="?newInstance@ENTITYDatatypeValidator@@UAEPAVDatatypeValidator@@QAV?$RefHashTableOf@VKVStringPair@@@@QAV?$RefVectorOf@G@@H@Z" PURGE="12" COMMENT="" />
    <EXPORT ORDINAL="4805" NAME="?newInstance@FloatDatatypeValidator@@UAEPAVDatatypeValidator@@QAV?$RefHashTableOf@VKVStringPair@@@@QAV?$RefVectorOf@G@@H@Z" PURGE="12" COMMENT="" />
    <EXPORT ORDINAL="4806" NAME="?newInstance@HexBinaryDatatypeValidator@@UAEPAVDatatypeValidator@@QAV?$RefHashTableOf@VKVStringPair@@@@QAV?$RefVectorOf@G@@H@Z" PURGE="12" COMMENT="" />
    <EXPORT ORDINAL="4807" NAME="?newInstance@IDDatatypeValidator@@UAEPAVDatatypeValidator@@QAV?$RefHashTableOf@VKVStringPair@@@@QAV?$RefVectorOf@G@@H@Z" PURGE="12" COMMENT="" />
    <EXPORT ORDINAL="4808" NAME="?newInstance@IDREFDatatypeValidator@@UAEPAVDatatypeValidator@@QAV?$RefHashTableOf@VKVStringPair@@@@QAV?$RefVectorOf@G@@H@Z" PURGE="12" COMMENT="" />
    <EXPORT ORDINAL="4809" NAME="?newInstance@ListDatatypeValidator@@UAEPAVDatatypeValidator@@QAV?$RefHashTableOf@VKVStringPair@@@@QAV?$RefVectorOf@G@@H@Z" PURGE="12" COMMENT="" />
    <EXPORT ORDINAL="4810" NAME="?newInstance@MonthDatatypeValidator@@UAEPAVDatatypeValidator@@QAV?$RefHashTableOf@VKVStringPair@@@@QAV?$RefVectorOf@G@@H@Z" PURGE="12" COMMENT="" />
    <EXPORT ORDINAL="4811" NAME="?newInstance@MonthDayDatatypeValidator@@UAEPAVDatatypeValidator@@QAV?$RefHashTableOf@VKVStringPair@@@@QAV?$RefVectorOf@G@@H@Z" PURGE="12" COMMENT="" />
    <EXPORT ORDINAL="4812" NAME="?newInstance@NCNameDatatypeValidator@@UAEPAVDatatypeValidator@@QAV?$RefHashTableOf@VKVStringPair@@@@QAV?$RefVectorOf@G@@H@Z" PURGE="12" COMMENT="" />
    <EXPORT ORDINAL="4813" NAME="?newInstance@NOTATIONDatatypeValidator@@UAEPAVDatatypeValidator@@QAV?$RefHashTableOf@VKVStringPair@@@@QAV?$RefVectorOf@G@@H@Z" PURGE="12" COMMENT="" />
    <EXPORT ORDINAL="4814" NAME="?newInstance@NameDatatypeValidator@@UAEPAVDatatypeValidator@@QAV?$RefHashTableOf@VKVStringPair@@@@QAV?$RefVectorOf@G@@H@Z" PURGE="12" COMMENT="" />
    <EXPORT ORDINAL="4815" NAME="?newInstance@QNameDatatypeValidator@@UAEPAVDatatypeValidator@@QAV?$RefHashTableOf@VKVStringPair@@@@QAV?$RefVectorOf@G@@H@Z" PURGE="12" COMMENT="" />
    <EXPORT ORDINAL="4816" NAME="?newInstance@StringDatatypeValidator@@UAEPAVDatatypeValidator@@QAV?$RefHashTableOf@VKVStringPair@@@@QAV?$RefVectorOf@G@@H@Z" PURGE="12" COMMENT="" />
    <EXPORT ORDINAL="4817" NAME="?newInstance@TimeDatatypeValidator@@UAEPAVDatatypeValidator@@QAV?$RefHashTableOf@VKVStringPair@@@@QAV?$RefVectorOf@G@@H@Z" PURGE="12" COMMENT="" />
    <EXPORT ORDINAL="4818" NAME="?newInstance@UnionDatatypeValidator@@UAEPAVDatatypeValidator@@QAV?$RefHashTableOf@VKVStringPair@@@@QAV?$RefVectorOf@G@@H@Z" PURGE="12" COMMENT="" />
    <EXPORT ORDINAL="4819" NAME="?newInstance@YearDatatypeValidator@@UAEPAVDatatypeValidator@@QAV?$RefHashTableOf@VKVStringPair@@@@QAV?$RefVectorOf@G@@H@Z" PURGE="12" COMMENT="" />
    <EXPORT ORDINAL="4820" NAME="?newInstance@YearMonthDatatypeValidator@@UAEPAVDatatypeValidator@@QAV?$RefHashTableOf@VKVStringPair@@@@QAV?$RefVectorOf@G@@H@Z" PURGE="12" COMMENT="" />
    <EXPORT ORDINAL="4821" NAME="?nextMatchingElementAfter@DOMDeepNodeListImpl@@AAEPAVDOMNode@@PAV2@@Z" PURGE="4" COMMENT="" />
    <EXPORT ORDINAL="4822" NAME="?nextMatchingElementAfter@DeepNodeListImpl@@EAEPAVNodeImpl@@PAV2@@Z" PURGE="4" COMMENT="" />
    <EXPORT ORDINAL="4823" NAME="?nextNode@DOMNodeIteratorImpl@@AAEPAVDOMNode@@PAV2@_N@Z" PURGE="8" COMMENT="" />
    <EXPORT ORDINAL="4824" NAME="?nextNode@DOMNodeIteratorImpl@@UAEPAVDOMNode@@XZ" PURGE="0" COMMENT="" />
    <EXPORT ORDINAL="4825" NAME="?nextNode@DOMRangeImpl@@ABEPAVDOMNode@@PBV2@_N@Z" PURGE="8" COMMENT="" />
    <EXPORT ORDINAL="4826" NAME="?nextNode@DOMTreeWalkerImpl@@UAEPAVDOMNode@@XZ" PURGE="0" COMMENT="" />
    <EXPORT ORDINAL="4827" NAME="?nextNode@DOM_NodeIterator@@QAE?AVDOM_Node@@XZ" PURGE="4" COMMENT="" />
    <EXPORT ORDINAL="4828" NAME="?nextNode@DOM_TreeWalker@@QAE?AVDOM_Node@@XZ" PURGE="4" COMMENT="" />
    <EXPORT ORDINAL="4829" NAME="?nextNode@NodeIteratorImpl@@QAE?AVDOM_Node@@V2@_N@Z" PURGE="12" COMMENT="" />
    <EXPORT ORDINAL="4830" NAME="?nextNode@NodeIteratorImpl@@QAE?AVDOM_Node@@XZ" PURGE="4" COMMENT="" />
    <EXPORT ORDINAL="4831" NAME="?nextNode@RangeImpl@@ABE?AVDOM_Node@@ABV2@_N@Z" PURGE="12" COMMENT="" />
    <EXPORT ORDINAL="4832" NAME="?nextNode@TreeWalkerImpl@@QAE?AVDOM_Node@@XZ" PURGE="4" COMMENT="" />
    <EXPORT ORDINAL="4833" NAME="?nextSibling@DOMTreeWalkerImpl@@UAEPAVDOMNode@@XZ" PURGE="0" COMMENT="" />
    <EXPORT ORDINAL="4834" NAME="?nextSibling@DOM_TreeWalker@@QAE?AVDOM_Node@@XZ" PURGE="4" COMMENT="" />
    <EXPORT ORDINAL="4835" NAME="?nextSibling@TreeWalkerImpl@@QAE?AVDOM_Node@@XZ" PURGE="4" COMMENT="" />
    <EXPORT ORDINAL="4836" NAME="?nextToken@XMLStringTokenizer@@QAEPAGXZ" PURGE="0" COMMENT="" />
    <EXPORT ORDINAL="4837" NAME="?normalize@AttrImpl@@UAEXXZ" PURGE="0" COMMENT="" />
    <EXPORT ORDINAL="4838" NAME="?normalize@DOMAttrImpl@@UAEXXZ" PURGE="0" COMMENT="" />
    <EXPORT ORDINAL="4839" NAME="?normalize@DOMCDATASectionImpl@@UAEXXZ" PURGE="0" COMMENT="" />
    <EXPORT ORDINAL="4840" NAME="?normalize@DOMCommentImpl@@UAEXXZ" PURGE="0" COMMENT="" />
    <EXPORT ORDINAL="4841" NAME="?normalize@DOMDocumentFragmentImpl@@UAEXXZ" PURGE="0" COMMENT="" />
    <EXPORT ORDINAL="4842" NAME="?normalize@DOMDocumentImpl@@UAEXXZ" PURGE="0" COMMENT="" />
    <EXPORT ORDINAL="4843" NAME="?normalize@DOMDocumentTypeImpl@@UAEXXZ" PURGE="0" COMMENT="" />
    <EXPORT ORDINAL="4844" NAME="?normalize@DOMElementImpl@@UAEXXZ" PURGE="0" COMMENT="" />
    <EXPORT ORDINAL="4845" NAME="?normalize@DOMEntityImpl@@UAEXXZ" PURGE="0" COMMENT="" />
    <EXPORT ORDINAL="4846" NAME="?normalize@DOMEntityReferenceImpl@@UAEXXZ" PURGE="0" COMMENT="" />
    <EXPORT ORDINAL="4847" NAME="?normalize@DOMNodeImpl@@QAEXXZ" PURGE="0" COMMENT="" />
    <EXPORT ORDINAL="4848" NAME="?normalize@DOMNotationImpl@@UAEXXZ" PURGE="0" COMMENT="" />
    <EXPORT ORDINAL="4849" NAME="?normalize@DOMParentNode@@QAEXXZ" PURGE="0" COMMENT="" />
    <EXPORT ORDINAL="4850" NAME="?normalize@DOMProcessingInstructionImpl@@UAEXXZ" PURGE="0" COMMENT="" />
    <EXPORT ORDINAL="4851" NAME="?normalize@DOMTextImpl@@UAEXXZ" PURGE="0" COMMENT="" />
    <EXPORT ORDINAL="4852" NAME="?normalize@DOM_Node@@QAEXXZ" PURGE="-1" COMMENT="" />
    <EXPORT ORDINAL="4853" NAME="?normalize@NodeImpl@@UAEXXZ" PURGE="0" COMMENT="" />
    <EXPORT ORDINAL="4854" NAME="?normalize@ParentNode@@UAEXXZ" PURGE="0" COMMENT="" />
    <EXPORT ORDINAL="4855" NAME="?normalize@XMLDateTime@@AAEXXZ" PURGE="0" COMMENT="" />
    <EXPORT ORDINAL="4856" NAME="?normalizeAttRawValue@XMLScanner@@AAE_NQBG0AAVXMLBuffer@@@Z" PURGE="12" COMMENT="" />
    <EXPORT ORDINAL="4857" NAME="?normalizeAttValue@XMLScanner@@AAE_NQBVXMLAttDef@@QBGAAVXMLBuffer@@@Z" PURGE="12" COMMENT="" />
    <EXPORT ORDINAL="4858" NAME="?normalizeDocument@DOMDocumentImpl@@UAEXXZ" PURGE="0" COMMENT="" />
    <EXPORT ORDINAL="4859" NAME="?normalizeURI@TraverseSchema@@AAEXQBGAAVXMLBuffer@@@Z" PURGE="8" COMMENT="" />
    <EXPORT ORDINAL="4860" NAME="?normalizeURI@XMLScanner@@AAEXQBGAAVXMLBuffer@@@Z" PURGE="8" COMMENT="" />
    <EXPORT ORDINAL="4861" NAME="?normalizeWhiteSpace@SchemaValidator@@QAEXPAVDatatypeValidator@@QBGAAVXMLBuffer@@@Z" PURGE="12" COMMENT="" />
    <EXPORT ORDINAL="4862" NAME="?normalizeZero@XMLAbstractDoubleFloat@@AAEXQAG@Z" PURGE="4" COMMENT="" />
    <EXPORT ORDINAL="4863" NAME="?notationDecl@AbstractDOMParser@@UAEXABVXMLNotationDecl@@_N@Z" PURGE="8" COMMENT="" />
    <EXPORT ORDINAL="4864" NAME="?notationDecl@DOMParser@@UAEXABVXMLNotationDecl@@_N@Z" PURGE="8" COMMENT="" />
    <EXPORT ORDINAL="4865" NAME="?notationDecl@DefaultHandler@@UAEXQBG00@Z" PURGE="12" COMMENT="" />
    <EXPORT ORDINAL="4866" NAME="?notationDecl@HandlerBase@@UAEXQBG00@Z" PURGE="12" COMMENT="" />
    <EXPORT ORDINAL="4867" NAME="?notationDecl@SAX2XMLReaderImpl@@UAEXABVXMLNotationDecl@@_N@Z" PURGE="8" COMMENT="" />
    <EXPORT ORDINAL="4868" NAME="?notationDecl@SAXParser@@UAEXABVXMLNotationDecl@@_N@Z" PURGE="8" COMMENT="" />
    <EXPORT ORDINAL="4869" NAME="?openFile@XMLPlatformUtils@@SAPAXQBD@Z" PURGE="0" COMMENT="" />
    <EXPORT ORDINAL="4870" NAME="?openFile@XMLPlatformUtils@@SAPAXQBG@Z" PURGE="0" COMMENT="" />
    <EXPORT ORDINAL="4871" NAME="?openFileToWrite@XMLPlatformUtils@@SAPAXQBD@Z" PURGE="0" COMMENT="" />
    <EXPORT ORDINAL="4872" NAME="?openFileToWrite@XMLPlatformUtils@@SAPAXQBG@Z" PURGE="0" COMMENT="" />
    <EXPORT ORDINAL="4873" NAME="?openRedefinedSchema@TraverseSchema@@AAE_NQBVDOMElement@@@Z" PURGE="4" COMMENT="" />
    <EXPORT ORDINAL="4874" NAME="?openStdInHandle@XMLPlatformUtils@@SAPAXXZ" PURGE="0" COMMENT="" />
    <EXPORT ORDINAL="4875" NAME="?orWith@BitSet@@QAEXABV1@@Z" PURGE="4" COMMENT="" />
    <EXPORT ORDINAL="4876" NAME="?panic@XMLPlatformUtils@@SAXW4PanicReasons@1@@Z" PURGE="0" COMMENT="" />
    <EXPORT ORDINAL="4877" NAME="?parentNode@DOMTreeWalkerImpl@@UAEPAVDOMNode@@XZ" PURGE="0" COMMENT="" />
    <EXPORT ORDINAL="4878" NAME="?parentNode@DOM_TreeWalker@@QAE?AVDOM_Node@@XZ" PURGE="4" COMMENT="" />
    <EXPORT ORDINAL="4879" NAME="?parentNode@TreeWalkerImpl@@QAE?AVDOM_Node@@XZ" PURGE="4" COMMENT="" />
    <EXPORT ORDINAL="4880" NAME="?parse@AbstractDOMParser@@QAEXABVInputSource@@@Z" PURGE="4" COMMENT="" />
    <EXPORT ORDINAL="4881" NAME="?parse@AbstractDOMParser@@QAEXQBD@Z" PURGE="4" COMMENT="" />
    <EXPORT ORDINAL="4882" NAME="?parse@AbstractDOMParser@@QAEXQBG@Z" PURGE="4" COMMENT="" />
    <EXPORT ORDINAL="4883" NAME="?parse@DOMBuilderImpl@@UAEPAVDOMDocument@@ABVDOMInputSource@@@Z" PURGE="4" COMMENT="" />
    <EXPORT ORDINAL="4884" NAME="?parse@DOMParser@@QAEXABVInputSource@@@Z" PURGE="4" COMMENT="" />
    <EXPORT ORDINAL="4885" NAME="?parse@DOMParser@@QAEXQBD@Z" PURGE="4" COMMENT="" />
    <EXPORT ORDINAL="4886" NAME="?parse@DOMParser@@QAEXQBG@Z" PURGE="4" COMMENT="" />
    <EXPORT ORDINAL="4887" NAME="?parse@DateDatatypeValidator@@MAEPAVXMLDateTime@@QBG@Z" PURGE="4" COMMENT="" />
    <EXPORT ORDINAL="4888" NAME="?parse@DateTimeDatatypeValidator@@MAEPAVXMLDateTime@@QBG@Z" PURGE="4" COMMENT="" />
    <EXPORT ORDINAL="4889" NAME="?parse@DayDatatypeValidator@@MAEPAVXMLDateTime@@QBG@Z" PURGE="4" COMMENT="" />
    <EXPORT ORDINAL="4890" NAME="?parse@DurationDatatypeValidator@@MAEPAVXMLDateTime@@QBG@Z" PURGE="4" COMMENT="" />
    <EXPORT ORDINAL="4891" NAME="?parse@MonthDatatypeValidator@@MAEPAVXMLDateTime@@QBG@Z" PURGE="4" COMMENT="" />
    <EXPORT ORDINAL="4892" NAME="?parse@MonthDayDatatypeValidator@@MAEPAVXMLDateTime@@QBG@Z" PURGE="4" COMMENT="" />
    <EXPORT ORDINAL="4893" NAME="?parse@RegxParser@@QAEPAVToken@@QBGH@Z" PURGE="8" COMMENT="" />
    <EXPORT ORDINAL="4894" NAME="?parse@SAX2XMLReaderImpl@@UAEXABVInputSource@@@Z" PURGE="4" COMMENT="" />
    <EXPORT ORDINAL="4895" NAME="?parse@SAX2XMLReaderImpl@@UAEXQBD@Z" PURGE="4" COMMENT="" />
    <EXPORT ORDINAL="4896" NAME="?parse@SAX2XMLReaderImpl@@UAEXQBG@Z" PURGE="4" COMMENT="" />
    <EXPORT ORDINAL="4897" NAME="?parse@SAXParser@@UAEXABVInputSource@@@Z" PURGE="4" COMMENT="" />
    <EXPORT ORDINAL="4898" NAME="?parse@SAXParser@@UAEXQBD@Z" PURGE="4" COMMENT="" />
    <EXPORT ORDINAL="4899" NAME="?parse@SAXParser@@UAEXQBG@Z" PURGE="4" COMMENT="" />
    <EXPORT ORDINAL="4900" NAME="?parse@TimeDatatypeValidator@@MAEPAVXMLDateTime@@QBG@Z" PURGE="4" COMMENT="" />
    <EXPORT ORDINAL="4901" NAME="?parse@XMLURL@@AAEXQBG@Z" PURGE="4" COMMENT="" />
    <EXPORT ORDINAL="4902" NAME="?parse@YearDatatypeValidator@@MAEPAVXMLDateTime@@QBG@Z" PURGE="4" COMMENT="" />
    <EXPORT ORDINAL="4903" NAME="?parse@YearMonthDatatypeValidator@@MAEPAVXMLDateTime@@QBG@Z" PURGE="4" COMMENT="" />
    <EXPORT ORDINAL="4904" NAME="?parseAtom@RegxParser@@AAEPAVToken@@XZ" PURGE="8" COMMENT="" />
    <EXPORT ORDINAL="4905" NAME="?parseBigDecimal@XMLBigDecimal@@SAXQBGQAGAAI@Z" PURGE="0" COMMENT="" />
    <EXPORT ORDINAL="4906" NAME="?parseBigInteger@XMLBigInteger@@SAXQBGQAGAAH@Z" PURGE="4" COMMENT="" />
    <EXPORT ORDINAL="4907" NAME="?parseBlockSet@TraverseSchema@@AAEHQBVDOMElement@@H_N@Z" PURGE="12" COMMENT="" />
    <EXPORT ORDINAL="4908" NAME="?parseCharacterClass@ParserForXMLSchema@@MAEPAVRangeToken@@_N@Z" PURGE="4" COMMENT="" />
    <EXPORT ORDINAL="4909" NAME="?parseCharacterClass@RegxParser@@MAEPAVRangeToken@@_N@Z" PURGE="4" COMMENT="" />
    <EXPORT ORDINAL="4910" NAME="?parseDate@XMLDateTime@@QAEXXZ" PURGE="0" COMMENT="" />
    <EXPORT ORDINAL="4911" NAME="?parseDateTime@XMLDateTime@@QAEXXZ" PURGE="0" COMMENT="" />
    <EXPORT ORDINAL="4912" NAME="?parseDay@XMLDateTime@@QAEXXZ" PURGE="0" COMMENT="" />
    <EXPORT ORDINAL="4913" NAME="?parseDuration@XMLDateTime@@QAEXXZ" PURGE="0" COMMENT="" />
    <EXPORT ORDINAL="4914" NAME="?parseExpression@XercesXPath@@AAEXQAVXMLStringPool@@QAVNamespaceScope@@@Z" PURGE="8" COMMENT="" />
    <EXPORT ORDINAL="4915" NAME="?parseFactor@RegxParser@@AAEPAVToken@@XZ" PURGE="0" COMMENT="" />
