<?xml version="1.0" encoding="UTF-8"?>
<LIBRARY NAME="xrcdb.dll" PATH="/DLLArchive/etc/xrCDB.dll" DATE="Fri Jul 03 13:42:00 PDT 2020" VERSION="">
    <EXPORT ORDINAL="1" NAME="??0COLLIDER@CDB@@QAE@ABV01@@Z" PURGE="4" COMMENT="" />
    <EXPORT ORDINAL="2" NAME="??0COLLIDER@CDB@@QAE@XZ" PURGE="0" COMMENT="" />
    <EXPORT ORDINAL="3" NAME="??0Collector@CDB@@QAE@ABV01@@Z" PURGE="4" COMMENT="" />
    <EXPORT ORDINAL="4" NAME="??0Collector@CDB@@QAE@XZ" PURGE="0" COMMENT="" />
    <EXPORT ORDINAL="5" NAME="??0CollectorPacked@CDB@@QAE@ABV?$_box3@M@@HH@Z" PURGE="12" COMMENT="" />
    <EXPORT ORDINAL="6" NAME="??0MODEL@CDB@@QAE@XZ" PURGE="0" COMMENT="" />
    <EXPORT ORDINAL="7" NAME="??1COLLIDER@CDB@@QAE@XZ" PURGE="0" COMMENT="" />
    <EXPORT ORDINAL="8" NAME="??1Collector@CDB@@QAE@XZ" PURGE="0" COMMENT="" />
    <EXPORT ORDINAL="9" NAME="??1CollectorPacked@CDB@@QAE@XZ" PURGE="0" COMMENT="" />
    <EXPORT ORDINAL="10" NAME="??1MODEL@CDB@@QAE@XZ" PURGE="-1" COMMENT="" />
    <EXPORT ORDINAL="11" NAME="??4COLLIDER@CDB@@QAEAAV01@ABV01@@Z" PURGE="4" COMMENT="" />
    <EXPORT ORDINAL="12" NAME="??4Collector@CDB@@QAEAAV01@ABV01@@Z" PURGE="4" COMMENT="" />
    <EXPORT ORDINAL="13" NAME="??4MODEL@CDB@@QAEAAV01@ABV01@@Z" PURGE="4" COMMENT="" />
    <EXPORT ORDINAL="14" NAME="??4RESULT@CDB@@QAEAAU01@ABU01@@Z" PURGE="4" COMMENT="" />
    <EXPORT ORDINAL="15" NAME="??4TRI@CDB@@QAEAAV01@ABV01@@Z" PURGE="4" COMMENT="" />
    <EXPORT ORDINAL="16" NAME="?IDvert@TRI@CDB@@QAEII@Z" PURGE="4" COMMENT="" />
    <EXPORT ORDINAL="17" NAME="?VPack@Collector@CDB@@AAEIABU?$_vector3@M@@M@Z" PURGE="8" COMMENT="" />
    <EXPORT ORDINAL="18" NAME="?VPack@CollectorPacked@CDB@@AAEIABU?$_vector3@M@@@Z" PURGE="4" COMMENT="" />
    <EXPORT ORDINAL="19" NAME="?add_face@Collector@CDB@@QAEXABU?$_vector3@M@@00GG@Z" PURGE="20" COMMENT="" />
    <EXPORT ORDINAL="20" NAME="?add_face@CollectorPacked@CDB@@QAEXABU?$_vector3@M@@00GG@Z" PURGE="20" COMMENT="" />
    <EXPORT ORDINAL="21" NAME="?add_face_D@Collector@CDB@@QAEXABU?$_vector3@M@@00I@Z" PURGE="16" COMMENT="" />
    <EXPORT ORDINAL="22" NAME="?add_face_D@CollectorPacked@CDB@@QAEXABU?$_vector3@M@@00I@Z" PURGE="16" COMMENT="" />
    <EXPORT ORDINAL="23" NAME="?add_face_packed@Collector@CDB@@QAEXABU?$_vector3@M@@00GGM@Z" PURGE="24" COMMENT="" />
    <EXPORT ORDINAL="24" NAME="?add_face_packed_D@Collector@CDB@@QAEXABU?$_vector3@M@@00IM@Z" PURGE="20" COMMENT="" />
    <EXPORT ORDINAL="25" NAME="?box_options@COLLIDER@CDB@@QAEXI@Z" PURGE="4" COMMENT="" />
    <EXPORT ORDINAL="26" NAME="?box_query@COLLIDER@CDB@@QAEXPBVMODEL@2@ABU?$_vector3@M@@1@Z" PURGE="12" COMMENT="" />
    <EXPORT ORDINAL="27" NAME="?build@MODEL@CDB@@QAEXPAU?$_vector3@M@@HPAVTRI@2@HP6GX0H1HPAX@Z2@Z" PURGE="24" COMMENT="" />
    <EXPORT ORDINAL="28" NAME="?build_internal@MODEL@CDB@@QAEXPAU?$_vector3@M@@HPAVTRI@2@HP6GX0H1HPAX@Z2@Z" PURGE="24" COMMENT="" />
    <EXPORT ORDINAL="29" NAME="?build_thread@MODEL@CDB@@SAXPAX@Z" PURGE="0" COMMENT="" />
    <EXPORT ORDINAL="30" NAME="?calc_adjacency@Collector@CDB@@QAEXAAV?$xr_vector@IV?$xalloc@I@@@@@Z" PURGE="4" COMMENT="" />
    <EXPORT ORDINAL="31" NAME="?clear@Collector@CDB@@QAEXXZ" PURGE="0" COMMENT="" />
    <EXPORT ORDINAL="32" NAME="?clear@CollectorPacked@CDB@@QAEXXZ" PURGE="0" COMMENT="" />
    <EXPORT ORDINAL="33" NAME="?frustum_options@COLLIDER@CDB@@QAEXI@Z" PURGE="4" COMMENT="" />
    <EXPORT ORDINAL="34" NAME="?frustum_query@COLLIDER@CDB@@QAEXPBVMODEL@2@ABVCFrustum@@@Z" PURGE="8" COMMENT="" />
    <EXPORT ORDINAL="35" NAME="?getT@Collector@CDB@@QAEPAVTRI@2@XZ" PURGE="0" COMMENT="" />
    <EXPORT ORDINAL="36" NAME="?getT@CollectorPacked@CDB@@QAEPAVTRI@2@XZ" PURGE="0" COMMENT="" />
    <EXPORT ORDINAL="37" NAME="?getTS@Collector@CDB@@QAEIXZ" PURGE="0" COMMENT="" />
    <EXPORT ORDINAL="38" NAME="?getTS@CollectorPacked@CDB@@QAEIXZ" PURGE="0" COMMENT="" />
    <EXPORT ORDINAL="39" NAME="?getV@Collector@CDB@@QAEPAU?$_vector3@M@@XZ" PURGE="0" COMMENT="" />
    <EXPORT ORDINAL="40" NAME="?getV@CollectorPacked@CDB@@QAEPAU?$_vector3@M@@XZ" PURGE="0" COMMENT="" />
    <EXPORT ORDINAL="41" NAME="?getVS@Collector@CDB@@QAEIXZ" PURGE="0" COMMENT="" />
    <EXPORT ORDINAL="42" NAME="?getVS@CollectorPacked@CDB@@QAEIXZ" PURGE="0" COMMENT="" />
    <EXPORT ORDINAL="43" NAME="?getV_Vec@CollectorPacked@CDB@@QAEAAV?$xr_vector@U?$_vector3@M@@V?$xalloc@U?$_vector3@M@@@@@@XZ" PURGE="0" COMMENT="" />
    <EXPORT ORDINAL="44" NAME="?get_tris@MODEL@CDB@@QAEPAVTRI@2@XZ" PURGE="0" COMMENT="" />
    <EXPORT ORDINAL="45" NAME="?get_tris_count@MODEL@CDB@@QBEHXZ" PURGE="0" COMMENT="" />
    <EXPORT ORDINAL="46" NAME="?get_verts@MODEL@CDB@@QAEPAU?$_vector3@M@@XZ" PURGE="0" COMMENT="" />
    <EXPORT ORDINAL="47" NAME="?get_verts_count@MODEL@CDB@@QBEHXZ" PURGE="0" COMMENT="" />
    <EXPORT ORDINAL="48" NAME="?memory@MODEL@CDB@@QAEIXZ" PURGE="0" COMMENT="" />
    <EXPORT ORDINAL="49" NAME="?r_add@COLLIDER@CDB@@QAEAAURESULT@2@XZ" PURGE="0" COMMENT="" />
    <EXPORT ORDINAL="50" NAME="?r_begin@COLLIDER@CDB@@QAEPAURESULT@2@XZ" PURGE="0" COMMENT="" />
    <EXPORT ORDINAL="51" NAME="?r_clear@COLLIDER@CDB@@QAEXXZ" PURGE="0" COMMENT="" />
    <EXPORT ORDINAL="52" NAME="?r_clear_compact@COLLIDER@CDB@@QAEXXZ" PURGE="0" COMMENT="" />
    <EXPORT ORDINAL="53" NAME="?r_count@COLLIDER@CDB@@QAEHXZ" PURGE="0" COMMENT="" />
    <EXPORT ORDINAL="54" NAME="?r_end@COLLIDER@CDB@@QAEPAURESULT@2@XZ" PURGE="0" COMMENT="" />
    <EXPORT ORDINAL="55" NAME="?r_free@COLLIDER@CDB@@QAEXXZ" PURGE="0" COMMENT="" />
    <EXPORT ORDINAL="56" NAME="?ray_options@COLLIDER@CDB@@QAEXI@Z" PURGE="4" COMMENT="" />
    <EXPORT ORDINAL="57" NAME="?ray_query@COLLIDER@CDB@@QAEXPBVMODEL@2@ABU?$_vector3@M@@1M@Z" PURGE="16" COMMENT="" />
    <EXPORT ORDINAL="58" NAME="?remove_duplicate_T@Collector@CDB@@QAEXXZ" PURGE="0" COMMENT="" />
    <EXPORT ORDINAL="59" NAME="?syncronize@MODEL@CDB@@QBEXXZ" PURGE="0" COMMENT="" />
</LIBRARY>

