<?xml version="1.0" encoding="UTF-8"?>
<LIBRARY NAME="xrnetserver.dll" PATH="/DLLArchive/etc/xrNetServer.dll" DATE="Fri Jul 03 13:42:07 PDT 2020" VERSION="">
    <EXPORT ORDINAL="1" NAME="??0IBannedClient@@QAE@PBDI@Z" PURGE="8" COMMENT="" />
    <EXPORT ORDINAL="2" NAME="??0IBannedClient@@QAE@XZ" PURGE="0" COMMENT="" />
    <EXPORT ORDINAL="3" NAME="??0IClient@@QAE@ABV0@@Z" PURGE="4" COMMENT="" />
    <EXPORT ORDINAL="4" NAME="??0IClient@@QAE@PAVCTimer@@@Z" PURGE="4" COMMENT="" />
    <EXPORT ORDINAL="5" NAME="??0IClientStatistic@@QAE@PAVCTimer@@@Z" PURGE="4" COMMENT="" />
    <EXPORT ORDINAL="6" NAME="??0INetQueue@@QAE@ABV0@@Z" PURGE="4" COMMENT="" />
    <EXPORT ORDINAL="7" NAME="??0INetQueue@@QAE@XZ" PURGE="0" COMMENT="" />
    <EXPORT ORDINAL="8" NAME="??0IPureClient@@QAE@ABV0@@Z" PURGE="4" COMMENT="" />
    <EXPORT ORDINAL="9" NAME="??0IPureClient@@QAE@PAVCTimer@@@Z" PURGE="4" COMMENT="" />
    <EXPORT ORDINAL="10" NAME="??0IPureServer@@QAE@ABV0@@Z" PURGE="4" COMMENT="" />
    <EXPORT ORDINAL="11" NAME="??0IPureServer@@QAE@PAVCTimer@@H@Z" PURGE="8" COMMENT="" />
    <EXPORT ORDINAL="12" NAME="??0NET_Compressor@@QAE@XZ" PURGE="0" COMMENT="" />
    <EXPORT ORDINAL="13" NAME="??0syncQueue@@QAE@XZ" PURGE="0" COMMENT="" />
    <EXPORT ORDINAL="14" NAME="??1IClient@@UAE@XZ" PURGE="0" COMMENT="" />
    <EXPORT ORDINAL="15" NAME="??1INetQueue@@QAE@XZ" PURGE="-1" COMMENT="" />
    <EXPORT ORDINAL="16" NAME="??1IPureClient@@UAE@XZ" PURGE="0" COMMENT="" />
    <EXPORT ORDINAL="17" NAME="??1IPureServer@@UAE@XZ" PURGE="0" COMMENT="" />
    <EXPORT ORDINAL="18" NAME="??1NET_Compressor@@QAE@XZ" PURGE="-1" COMMENT="" />
    <EXPORT ORDINAL="19" NAME="??4IBannedClient@@QAEAAV0@ABV0@@Z" PURGE="4" COMMENT="" />
    <EXPORT ORDINAL="20" NAME="??4IClient@@QAEAAV0@ABV0@@Z" PURGE="4" COMMENT="" />
    <EXPORT ORDINAL="21" NAME="??4IClientStatistic@@QAEAAV0@ABV0@@Z" PURGE="4" COMMENT="" />
    <EXPORT ORDINAL="22" NAME="??4INetQueue@@QAEAAV0@ABV0@@Z" PURGE="4" COMMENT="" />
    <EXPORT ORDINAL="23" NAME="??4IPureClient@@QAEAAV0@ABV0@@Z" PURGE="4" COMMENT="" />
    <EXPORT ORDINAL="24" NAME="??4IPureServer@@QAEAAV0@ABV0@@Z" PURGE="4" COMMENT="" />
    <EXPORT ORDINAL="25" NAME="??4IServerStatistic@@QAEAAV0@ABV0@@Z" PURGE="4" COMMENT="" />
    <EXPORT ORDINAL="26" NAME="??4NET_Compressor@@QAEAAV0@ABV0@@Z" PURGE="4" COMMENT="" />
    <EXPORT ORDINAL="27" NAME="??4syncQueue@@QAEAAV0@ABV0@@Z" PURGE="4" COMMENT="" />
    <EXPORT ORDINAL="28" NAME="??8IBannedClient@@QAE_NPBD@Z" PURGE="4" COMMENT="" />
    <EXPORT ORDINAL="29" NAME="??_7IClient@@6B@" PURGE="-1" COMMENT="" />
    <EXPORT ORDINAL="30" NAME="??_7IPureClient@@6B@" PURGE="-1" COMMENT="" />
    <EXPORT ORDINAL="31" NAME="??_7IPureServer@@6B@" PURGE="-1" COMMENT="" />
    <EXPORT ORDINAL="32" NAME="?BanAddress@IPureServer@@UAEXPADI@Z" PURGE="8" COMMENT="" />
    <EXPORT ORDINAL="33" NAME="?BanClient@IPureServer@@UAEXPAVIClient@@I@Z" PURGE="8" COMMENT="" />
    <EXPORT ORDINAL="34" NAME="?BannedAddress_Save@IPureServer@@IAEXIPAVIWriter@@@Z" PURGE="8" COMMENT="" />
    <EXPORT ORDINAL="35" NAME="?BannedList_Load@IPureServer@@MAEXXZ" PURGE="0" COMMENT="" />
    <EXPORT ORDINAL="36" NAME="?BannedList_Save@IPureServer@@IAEXXZ" PURGE="0" COMMENT="" />
    <EXPORT ORDINAL="37" NAME="?Clear@IClientStatistic@@QAEXXZ" PURGE="0" COMMENT="" />
    <EXPORT ORDINAL="38" NAME="?ClearStatistic@IPureClient@@QAEXXZ" PURGE="0" COMMENT="" />
    <EXPORT ORDINAL="39" NAME="?ClearStatistic@IPureServer@@QAEXXZ" PURGE="0" COMMENT="" />
    <EXPORT ORDINAL="40" NAME="?Compress@NET_Compressor@@QAEGPAEABI01@Z" PURGE="16" COMMENT="" />
    <EXPORT ORDINAL="41" NAME="?Connect@IPureClient@@QAEHPBD@Z" PURGE="4" COMMENT="" />
    <EXPORT ORDINAL="42" NAME="?Connect@IPureServer@@UAEHPBD@Z" PURGE="4" COMMENT="" />
    <EXPORT ORDINAL="43" NAME="?Create@INetQueue@@QAEPAVNET_Packet@@ABV2@@Z" PURGE="4" COMMENT="" />
    <EXPORT ORDINAL="44" NAME="?Create@INetQueue@@QAEPAVNET_Packet@@XZ" PURGE="0" COMMENT="" />
    <EXPORT ORDINAL="45" NAME="?Decompress@NET_Compressor@@QAEGPAEABI01@Z" PURGE="16" COMMENT="" />
    <EXPORT ORDINAL="46" NAME="?Disconnect@IPureClient@@QAEXXZ" PURGE="0" COMMENT="" />
    <EXPORT ORDINAL="47" NAME="?Disconnect@IPureServer@@UAEXXZ" PURGE="0" COMMENT="" />
    <EXPORT ORDINAL="48" NAME="?DisconnectAddress@IPureServer@@UAE_NPAD@Z" PURGE="4" COMMENT="" />
    <EXPORT ORDINAL="49" NAME="?DisconnectClient@IPureServer@@UAE_NPAVIClient@@@Z" PURGE="4" COMMENT="" />
    <EXPORT ORDINAL="50" NAME="?GetBannedClient@IPureServer@@IAEPAVIBannedClient@@PBD@Z" PURGE="4" COMMENT="" />
    <EXPORT ORDINAL="51" NAME="?GetBannedListName@IPureServer@@IAEPBDXZ" PURGE="0" COMMENT="" />
    <EXPORT ORDINAL="52" NAME="?GetClientAddress@IPureServer@@IAE_NPAUIDirectPlay8Address@@PADPAK@Z" PURGE="12" COMMENT="" />
    <EXPORT ORDINAL="53" NAME="?GetClientAddress@IPureServer@@QAE_NVClientID@@PADPAK@Z" PURGE="12" COMMENT="" />
    <EXPORT ORDINAL="54" NAME="?GetConnectOptions@IPureServer@@QBEABVshared_str@@XZ" PURGE="0" COMMENT="" />
    <EXPORT ORDINAL="55" NAME="?GetMsgId2Name@IPureClient@@UAEPBDG@Z" PURGE="4" COMMENT="" />
    <EXPORT ORDINAL="56" NAME="?GetPort@IPureServer@@QAEHXZ" PURGE="0" COMMENT="" />
    <EXPORT ORDINAL="57" NAME="?GetServerAddress@IPureClient@@QAE_NPADPAK@Z" PURGE="8" COMMENT="" />
    <EXPORT ORDINAL="58" NAME="?GetServerClient@IPureServer@@QAEPAVIClient@@XZ" PURGE="0" COMMENT="" />
    <EXPORT ORDINAL="59" NAME="?GetStatistic@IPureClient@@QBE?AVIClientStatistic@@XZ" PURGE="4" COMMENT="" />
    <EXPORT ORDINAL="60" NAME="?GetStatistic@IPureServer@@QAEPBVIServerStatistic@@XZ" PURGE="0" COMMENT="" />
    <EXPORT ORDINAL="61" NAME="?HasBandwidth@IPureServer@@QAEHPAVIClient@@@Z" PURGE="4" COMMENT="" />
    <EXPORT ORDINAL="62" NAME="?Initialize@NET_Compressor@@QAEXAAUNET_Compressor_FREQ@@0@Z" PURGE="8" COMMENT="" />
    <EXPORT ORDINAL="63" NAME="?OnCL_Connected@IPureServer@@UAEXPAVIClient@@@Z" PURGE="4" COMMENT="" />
    <EXPORT ORDINAL="64" NAME="?OnCL_Disconnected@IPureServer@@UAEXPAVIClient@@@Z" PURGE="4" COMMENT="" />
    <EXPORT ORDINAL="65" NAME="?OnCL_QueryHost@IPureServer@@UAE_NXZ" PURGE="0" COMMENT="" />
    <EXPORT ORDINAL="66" NAME="?OnConnectRejected@IPureClient@@UAEXXZ" PURGE="0" COMMENT="" />
    <EXPORT ORDINAL="67" NAME="?OnInvalidHost@IPureClient@@UAEXXZ" PURGE="0" COMMENT="" />
    <EXPORT ORDINAL="68" NAME="?OnInvalidPassword@IPureClient@@UAEXXZ" PURGE="0" COMMENT="" />
    <EXPORT ORDINAL="69" NAME="?OnMessage@IPureClient@@UAEXPAXI@Z" PURGE="8" COMMENT="" />
    <EXPORT ORDINAL="70" NAME="?OnMessage@IPureServer@@UAEIAAVNET_Packet@@VClientID@@@Z" PURGE="8" COMMENT="" />
    <EXPORT ORDINAL="71" NAME="?OnSessionFull@IPureClient@@UAEXXZ" PURGE="0" COMMENT="" />
    <EXPORT ORDINAL="72" NAME="?Release@INetQueue@@QAEXXZ" PURGE="-1" COMMENT="" />
    <EXPORT ORDINAL="73" NAME="?Reparse@IPureServer@@UAEXXZ" PURGE="0" COMMENT="" />
    <EXPORT ORDINAL="74" NAME="?Retreive@INetQueue@@QAEPAVNET_Packet@@XZ" PURGE="0" COMMENT="" />
    <EXPORT ORDINAL="75" NAME="?Send@IPureClient@@UAEXAAVNET_Packet@@II@Z" PURGE="12" COMMENT="" />
    <EXPORT ORDINAL="76" NAME="?SendBroadcast@IPureServer@@QAEXVClientID@@AAVNET_Packet@@I@Z" PURGE="12" COMMENT="" />
    <EXPORT ORDINAL="77" NAME="?SendBroadcast_LL@IPureServer@@QAEXVClientID@@PAXII@Z" PURGE="16" COMMENT="" />
    <EXPORT ORDINAL="78" NAME="?SendTo@IPureServer@@QAEXVClientID@@AAVNET_Packet@@II@Z" PURGE="16" COMMENT="" />
    <EXPORT ORDINAL="79" NAME="?SendTo_LL@IPureServer@@UAEXVClientID@@PAXIII@Z" PURGE="20" COMMENT="" />
    <EXPORT ORDINAL="80" NAME="?Sync_Average@IPureClient@@IAEXXZ" PURGE="0" COMMENT="" />
    <EXPORT ORDINAL="81" NAME="?Sync_Thread@IPureClient@@IAEXXZ" PURGE="0" COMMENT="" />
    <EXPORT ORDINAL="82" NAME="?Update@IClientStatistic@@QAEXAAU_DPN_CONNECTION_INFO@@@Z" PURGE="4" COMMENT="" />
    <EXPORT ORDINAL="83" NAME="?UpdateClientStatistic@IPureServer@@QAEXPAVIClient@@@Z" PURGE="4" COMMENT="" />
    <EXPORT ORDINAL="84" NAME="?UpdateStatistic@IPureClient@@QAEXXZ" PURGE="0" COMMENT="" />
    <EXPORT ORDINAL="85" NAME="?begin@syncQueue@@QAEPAIXZ" PURGE="0" COMMENT="" />
    <EXPORT ORDINAL="86" NAME="?clear@IServerStatistic@@QAEXXZ" PURGE="0" COMMENT="" />
    <EXPORT ORDINAL="87" NAME="?clear@syncQueue@@QAEXXZ" PURGE="0" COMMENT="" />
    <EXPORT ORDINAL="88" NAME="?client_Count@IPureServer@@QAEIXZ" PURGE="0" COMMENT="" />
    <EXPORT ORDINAL="89" NAME="?client_Get@IPureServer@@QAEPAVIClient@@I@Z" PURGE="4" COMMENT="" />
    <EXPORT ORDINAL="90" NAME="?compressed_size@NET_Compressor@@QAEGABI@Z" PURGE="4" COMMENT="" />
    <EXPORT ORDINAL="91" NAME="?config_Load@IPureServer@@IAEXXZ" PURGE="0" COMMENT="" />
    <EXPORT ORDINAL="92" NAME="?config_Save@IPureServer@@IAEXXZ" PURGE="0" COMMENT="" />
    <EXPORT ORDINAL="93" NAME="?decode_byte@NET_Compressor@@AAEEXZ" PURGE="0" COMMENT="" />
    <EXPORT ORDINAL="94" NAME="?decode_culfreq@NET_Compressor@@AAEII@Z" PURGE="4" COMMENT="" />
    <EXPORT ORDINAL="95" NAME="?decode_culshift@NET_Compressor@@AAEII@Z" PURGE="4" COMMENT="" />
    <EXPORT ORDINAL="96" NAME="?decode_normalize@NET_Compressor@@AAEXXZ" PURGE="0" COMMENT="" />
    <EXPORT ORDINAL="97" NAME="?decode_short@NET_Compressor@@AAEGXZ" PURGE="0" COMMENT="" />
    <EXPORT ORDINAL="98" NAME="?decode_update@NET_Compressor@@AAEXIII@Z" PURGE="12" COMMENT="" />
    <EXPORT ORDINAL="99" NAME="?decode_update_shift@NET_Compressor@@AAEXIII@Z" PURGE="12" COMMENT="" />
    <EXPORT ORDINAL="100" NAME="?disconnected_client_Count@IPureServer@@QAEIXZ" PURGE="0" COMMENT="" />
    <EXPORT ORDINAL="101" NAME="?disconnected_client_Get@IPureServer@@QAEPAVIClient@@I@Z" PURGE="4" COMMENT="" />
    <EXPORT ORDINAL="102" NAME="?done_decoding@NET_Compressor@@AAEXXZ" PURGE="0" COMMENT="" />
    <EXPORT ORDINAL="103" NAME="?done_encoding@NET_Compressor@@AAEIXZ" PURGE="0" COMMENT="" />
    <EXPORT ORDINAL="104" NAME="?encode_byte@NET_Compressor@@AAEXI@Z" PURGE="4" COMMENT="" />
    <EXPORT ORDINAL="105" NAME="?encode_freq@NET_Compressor@@AAEXIII@Z" PURGE="12" COMMENT="" />
    <EXPORT ORDINAL="106" NAME="?encode_normalize@NET_Compressor@@AAEXXZ" PURGE="0" COMMENT="" />
    <EXPORT ORDINAL="107" NAME="?encode_shift@NET_Compressor@@AAEXIII@Z" PURGE="12" COMMENT="" />
    <EXPORT ORDINAL="108" NAME="?encode_short@NET_Compressor@@AAEXI@Z" PURGE="4" COMMENT="" />
    <EXPORT ORDINAL="109" NAME="?end@syncQueue@@QAEPAIXZ" PURGE="0" COMMENT="" />
    <EXPORT ORDINAL="110" NAME="?getBPS@IClientStatistic@@QAEIXZ" PURGE="0" COMMENT="" />
    <EXPORT ORDINAL="111" NAME="?getDroppedCount@IClientStatistic@@QAEIXZ" PURGE="0" COMMENT="" />
    <EXPORT ORDINAL="112" NAME="?getMPS_Receive@IClientStatistic@@QAEIXZ" PURGE="0" COMMENT="" />
    <EXPORT ORDINAL="113" NAME="?getMPS_Send@IClientStatistic@@QAEIXZ" PURGE="0" COMMENT="" />
    <EXPORT ORDINAL="114" NAME="?getPing@IClientStatistic@@QAEIXZ" PURGE="0" COMMENT="" />
    <EXPORT ORDINAL="115" NAME="?getRetriedCount@IClientStatistic@@QAEIXZ" PURGE="0" COMMENT="" />
    <EXPORT ORDINAL="116" NAME="?net_Handler@IPureClient@@QAEJIPAX@Z" PURGE="8" COMMENT="" />
    <EXPORT ORDINAL="117" NAME="?net_Handler@IPureServer@@QAEJIPAX@Z" PURGE="8" COMMENT="" />
    <EXPORT ORDINAL="118" NAME="?net_HasBandwidth@IPureClient@@QAEHXZ" PURGE="0" COMMENT="" />
    <EXPORT ORDINAL="119" NAME="?net_IsSyncronised@IPureClient@@UAEHXZ" PURGE="0" COMMENT="" />
    <EXPORT ORDINAL="120" NAME="?net_SessionName@IPureClient@@QAEPBDXZ" PURGE="0" COMMENT="" />
    <EXPORT ORDINAL="121" NAME="?net_Syncronize@IPureClient@@QAEXXZ" PURGE="0" COMMENT="" />
    <EXPORT ORDINAL="122" NAME="?net_isCompleted_Connect@IPureClient@@QAEHXZ" PURGE="0" COMMENT="" />
    <EXPORT ORDINAL="123" NAME="?net_isCompleted_Sync@IPureClient@@QAEHXZ" PURGE="0" COMMENT="" />
    <EXPORT ORDINAL="124" NAME="?net_isDisconnected@IPureClient@@QAEHXZ" PURGE="0" COMMENT="" />
    <EXPORT ORDINAL="125" NAME="?net_msg_Release@IPureClient@@QAEXXZ" PURGE="-1" COMMENT="" />
    <EXPORT ORDINAL="126" NAME="?net_msg_Retreive@IPureClient@@UAEPAVNET_Packet@@XZ" PURGE="0" COMMENT="" />
    <EXPORT ORDINAL="127" NAME="?pCompress@IPureServer@@IAEGPAEABIAAVNET_Packet@@@Z" PURGE="12" COMMENT="" />
    <EXPORT ORDINAL="128" NAME="?pDecompress@IPureServer@@IAEXAAVNET_Packet@@PAXI@Z" PURGE="12" COMMENT="" />
    <EXPORT ORDINAL="129" NAME="?psNET_ClientPending@@3HA" PURGE="-1" COMMENT="" />
    <EXPORT ORDINAL="130" NAME="?psNET_ClientUpdate@@3HA" PURGE="-1" COMMENT="" />
    <EXPORT ORDINAL="131" NAME="?psNET_Flags@@3U?$_flags@I@@A" PURGE="-1" COMMENT="" />
    <EXPORT ORDINAL="132" NAME="?psNET_Name@@3PADA" PURGE="-1" COMMENT="" />
    <EXPORT ORDINAL="133" NAME="?psNET_ServerPending@@3HA" PURGE="-1" COMMENT="" />
    <EXPORT ORDINAL="134" NAME="?psNET_ServerUpdate@@3HA" PURGE="-1" COMMENT="" />
    <EXPORT ORDINAL="135" NAME="?psNET_direct_connect@@3HA" PURGE="-1" COMMENT="" />
    <EXPORT ORDINAL="136" NAME="?push@syncQueue@@QAEXI@Z" PURGE="4" COMMENT="" />
    <EXPORT ORDINAL="137" NAME="?size@syncQueue@@QAEIXZ" PURGE="0" COMMENT="" />
    <EXPORT ORDINAL="138" NAME="?start_decoding@NET_Compressor@@AAEHPAEI@Z" PURGE="8" COMMENT="" />
    <EXPORT ORDINAL="139" NAME="?start_encoding@NET_Compressor@@AAEXPAEI@Z" PURGE="8" COMMENT="" />
    <EXPORT ORDINAL="140" NAME="?timeServer@IPureClient@@QAEIXZ" PURGE="0" COMMENT="" />
    <EXPORT ORDINAL="141" NAME="?timeServer_Async@IPureClient@@QAEIXZ" PURGE="0" COMMENT="" />
    <EXPORT ORDINAL="142" NAME="?timeServer_Correct@IPureClient@@QAEXII@Z" PURGE="8" COMMENT="" />
    <EXPORT ORDINAL="143" NAME="?timeServer_Delta@IPureClient@@QAEIXZ" PURGE="0" COMMENT="" />
    <EXPORT ORDINAL="144" NAME="?timeServer_UserDelta@IPureClient@@QAEXH@Z" PURGE="4" COMMENT="" />
</LIBRARY>

