<?xml version="1.0" encoding="UTF-8"?>
<LIBRARY NAME="yimage.dll" PATH="/DLLArchive/etc/YImage.dll" DATE="Fri Jul 03 13:43:18 PDT 2020" VERSION="1, 0, 0, 1">
    <EXPORT ORDINAL="1" NAME="??0CYImage@@QAE@ABV0@@Z" PURGE="4" COMMENT="" />
    <EXPORT ORDINAL="2" NAME="??0CYImage@@QAE@XZ" PURGE="0" COMMENT="" />
    <EXPORT ORDINAL="3" NAME="??1CYImage@@UAE@XZ" PURGE="0" COMMENT="" />
    <EXPORT ORDINAL="4" NAME="??4CYImage@@QAEABV0@ABV0@@Z" PURGE="4" COMMENT="" />
    <EXPORT ORDINAL="5" NAME="??BCYImage@@QBEPAUHBITMAP__@@XZ" PURGE="0" COMMENT="" />
    <EXPORT ORDINAL="6" NAME="??_7CYImage@@6B@" PURGE="-1" COMMENT="" />
    <EXPORT ORDINAL="7" NAME="?CheckGIFTransparency@CYImage@@IAEXAAVCSourceBlock@@@Z" PURGE="4" COMMENT="" />
    <EXPORT ORDINAL="8" NAME="?ComputePixelBufferSize@CYImage@@KAIHHH@Z" PURGE="0" COMMENT="" />
    <EXPORT ORDINAL="9" NAME="?ComputeStride@CYImage@@KAIHH@Z" PURGE="0" COMMENT="" />
    <EXPORT ORDINAL="10" NAME="?Convert16To24@CYImage@@KA_NABUtagDIBSECTION@@PAEI@Z" PURGE="0" COMMENT="" />
    <EXPORT ORDINAL="11" NAME="?ConvertToGrayscale@CYImage@@QAEXXZ" PURGE="0" COMMENT="" />
    <EXPORT ORDINAL="12" NAME="?CreateAntiAliasedBitmap@CYImage@@QBEPAUHBITMAP__@@PAUHBRUSH__@@@Z" PURGE="4" COMMENT="" />
    <EXPORT ORDINAL="13" NAME="?Desaturate@CYImage@@QAEXE@Z" PURGE="4" COMMENT="" />
    <EXPORT ORDINAL="14" NAME="?Draw@CYImage@@QBE_NPAUHDC__@@@Z" PURGE="4" COMMENT="" />
    <EXPORT ORDINAL="15" NAME="?Draw@CYImage@@QBE_NPAUHDC__@@ABUtagPOINT@@@Z" PURGE="8" COMMENT="" />
    <EXPORT ORDINAL="16" NAME="?Draw@CYImage@@QBE_NPAUHDC__@@ABUtagRECT@@@Z" PURGE="8" COMMENT="" />
    <EXPORT ORDINAL="17" NAME="?Draw@CYImage@@QBE_NPAUHDC__@@ABUtagRECT@@ABUtagPOINT@@@Z" PURGE="12" COMMENT="" />
    <EXPORT ORDINAL="18" NAME="?Draw@CYImage@@QBE_NPAUHDC__@@ABUtagRECT@@ABUtagPOINT@@E@Z" PURGE="16" COMMENT="" />
    <EXPORT ORDINAL="19" NAME="?Draw@CYImage@@QBE_NPAUHDC__@@HH@Z" PURGE="12" COMMENT="" />
    <EXPORT ORDINAL="20" NAME="?DrawWithKey@CYImage@@IBE_NPAUHDC__@@ABUtagRECT@@ABUtagPOINT@@0@Z" PURGE="16" COMMENT="" />
    <EXPORT ORDINAL="21" NAME="?ExpandPalette@CYImage@@KA_NPAUHBITMAP__@@PAEI@Z" PURGE="0" COMMENT="" />
    <EXPORT ORDINAL="22" NAME="?Flip@CYImage@@QAEXI@Z" PURGE="4" COMMENT="" />
    <EXPORT ORDINAL="23" NAME="?GetHeight@CYImage@@QBEHXZ" PURGE="0" COMMENT="" />
    <EXPORT ORDINAL="24" NAME="?GetImageFileTypeByExtension@CYImage@@SA?AW4FileType@1@PBD@Z" PURGE="0" COMMENT="" />
    <EXPORT ORDINAL="25" NAME="?GetWidth@CYImage@@QBEHXZ" PURGE="0" COMMENT="" />
    <EXPORT ORDINAL="26" NAME="?InitGDIHelpers@CYImage@@SAXXZ" PURGE="0" COMMENT="" />
    <EXPORT ORDINAL="27" NAME="?IsLoaded@CYImage@@QBE_NXZ" PURGE="0" COMMENT="" />
    <EXPORT ORDINAL="28" NAME="?IsOpaque@CYImage@@QBE_NXZ" PURGE="0" COMMENT="" />
    <EXPORT ORDINAL="29" NAME="?Load@CYImage@@QAE_NPBD@Z" PURGE="4" COMMENT="" />
    <EXPORT ORDINAL="30" NAME="?LoadBMP@CYImage@@QAE_NPAUHINSTANCE__@@H@Z" PURGE="8" COMMENT="" />
    <EXPORT ORDINAL="31" NAME="?LoadBMP@CYImage@@QAE_NPBD@Z" PURGE="4" COMMENT="" />
    <EXPORT ORDINAL="32" NAME="?LoadBMPWithLoadImage@CYImage@@IAE_NPAUHINSTANCE__@@PBDI@Z" PURGE="12" COMMENT="" />
    <EXPORT ORDINAL="33" NAME="?LoadFromIPicture@CYImage@@IAE_NPAUIPicture@@@Z" PURGE="4" COMMENT="" />
    <EXPORT ORDINAL="34" NAME="?LoadGIF@CYImage@@QAE_NPAUHINSTANCE__@@H@Z" PURGE="8" COMMENT="" />
    <EXPORT ORDINAL="35" NAME="?LoadGIF@CYImage@@QAE_NPBD@Z" PURGE="4" COMMENT="" />
    <EXPORT ORDINAL="36" NAME="?LoadHBITMAP@CYImage@@QAE_NPAUHBITMAP__@@@Z" PURGE="4" COMMENT="" />
    <EXPORT ORDINAL="37" NAME="?LoadHCURSOR@CYImage@@QAE_NPAUHICON__@@K@Z" PURGE="8" COMMENT="" />
    <EXPORT ORDINAL="38" NAME="?LoadHICON@CYImage@@QAE_NPAUHICON__@@K@Z" PURGE="8" COMMENT="" />
    <EXPORT ORDINAL="39" NAME="?LoadJPG@CYImage@@IAE_NAAVCSourceBlock@@@Z" PURGE="4" COMMENT="" />
    <EXPORT ORDINAL="40" NAME="?LoadJPG@CYImage@@QAE_NPAUHINSTANCE__@@H@Z" PURGE="8" COMMENT="" />
    <EXPORT ORDINAL="41" NAME="?LoadJPG@CYImage@@QAE_NPBD@Z" PURGE="4" COMMENT="" />
    <EXPORT ORDINAL="42" NAME="?LoadJPG@CYImage@@QAE_NPBEI@Z" PURGE="8" COMMENT="" />
    <EXPORT ORDINAL="43" NAME="?LoadMasked@CYImage@@IAE_NPAUHBITMAP__@@0K@Z" PURGE="12" COMMENT="" />
    <EXPORT ORDINAL="44" NAME="?LoadOLE@CYImage@@IAE_NPAUHINSTANCE__@@HPBD@Z" PURGE="12" COMMENT="" />
    <EXPORT ORDINAL="45" NAME="?LoadOLE@CYImage@@IAE_NPBD@Z" PURGE="4" COMMENT="" />
    <EXPORT ORDINAL="46" NAME="?LoadPNG@CYImage@@IAE_NAAVCSourceBlock@@@Z" PURGE="4" COMMENT="" />
    <EXPORT ORDINAL="47" NAME="?LoadPNG@CYImage@@QAE_NPAUHINSTANCE__@@H@Z" PURGE="8" COMMENT="" />
    <EXPORT ORDINAL="48" NAME="?LoadPNG@CYImage@@QAE_NPBD@Z" PURGE="4" COMMENT="" />
    <EXPORT ORDINAL="49" NAME="?LoadPNG@CYImage@@QAE_NPBEI@Z" PURGE="8" COMMENT="" />
    <EXPORT ORDINAL="50" NAME="?MakeOpaque@CYImage@@QAEXK@Z" PURGE="4" COMMENT="" />
    <EXPORT ORDINAL="51" NAME="?MakeOpaque@CYImage@@QAEXPAUHBRUSH__@@@Z" PURGE="4" COMMENT="" />
    <EXPORT ORDINAL="52" NAME="?NormalizeDIBSection@CYImage@@KAXPAUtagDIBSECTION@@@Z" PURGE="0" COMMENT="" />
    <EXPORT ORDINAL="53" NAME="?NormalizeDegrees@CYImage@@KAHH@Z" PURGE="0" COMMENT="" />
    <EXPORT ORDINAL="54" NAME="?RGB32@CYImage@@KAKK@Z" PURGE="0" COMMENT="" />
    <EXPORT ORDINAL="55" NAME="?Resize@CYImage@@QAEXHHW4ResizeOption@1@W4ResizeQuality@1@@Z" PURGE="16" COMMENT="" />
    <EXPORT ORDINAL="56" NAME="?Rotate@CYImage@@QAEXH@Z" PURGE="4" COMMENT="" />
    <EXPORT ORDINAL="57" NAME="?RoundUpToMultiple@CYImage@@KAIII@Z" PURGE="0" COMMENT="" />
    <EXPORT ORDINAL="58" NAME="?SaveJPG@CYImage@@QBE_NPBD@Z" PURGE="4" COMMENT="" />
    <EXPORT ORDINAL="59" NAME="?SavePNG@CYImage@@QBE_NPBD@Z" PURGE="4" COMMENT="" />
    <EXPORT ORDINAL="60" NAME="?ScanForAlpha@CYImage@@KA_NPAUHBITMAP__@@@Z" PURGE="0" COMMENT="" />
    <EXPORT ORDINAL="61" NAME="?SetAlpha@CYImage@@QAEXXZ" PURGE="0" COMMENT="" />
    <EXPORT ORDINAL="62" NAME="?SetColorKey@CYImage@@QAEXK@Z" PURGE="4" COMMENT="" />
    <EXPORT ORDINAL="63" NAME="?SetOpaque@CYImage@@QAEXXZ" PURGE="0" COMMENT="" />
    <EXPORT ORDINAL="64" NAME="?SetTransparentIndex@CYImage@@QAEXH@Z" PURGE="4" COMMENT="" />
    <EXPORT ORDINAL="65" NAME="?StripAlpha@CYImage@@KA_NABUtagDIBSECTION@@PAEI@Z" PURGE="0" COMMENT="" />
    <EXPORT ORDINAL="66" NAME="?SynthesizeAlphaFromColorKey@CYImage@@KA_NABUtagDIBSECTION@@KPAEI@Z" PURGE="0" COMMENT="" />
    <EXPORT ORDINAL="67" NAME="?UninitGDIHelpers@CYImage@@SAXXZ" PURGE="0" COMMENT="" />
    <EXPORT ORDINAL="68" NAME="?Unload@CYImage@@QAEXXZ" PURGE="0" COMMENT="" />
    <EXPORT ORDINAL="69" NAME="?YAlphaBlend@CYImage@@SG_NPAUHDC__@@HHHH0HHHH_NE@Z" PURGE="48" COMMENT="" />
    <EXPORT ORDINAL="70" NAME="?s_bInitialized@CYImage@@0_NA" PURGE="-1" COMMENT="" />
    <EXPORT ORDINAL="71" NAME="?s_hmodMSImage@CYImage@@0PAUHINSTANCE__@@A" PURGE="-1" COMMENT="" />
    <EXPORT ORDINAL="72" NAME="?s_pfnAlphaBlend@CYImage@@0P6GHPAUHDC__@@HHHH0HHHHU_BLENDFUNCTION@@@ZA" PURGE="-1" COMMENT="" />
</LIBRARY>

