<?xml version="1.0" encoding="UTF-8"?>
<LIBRARY NAME="yui.dll" PATH="/DLLArchive/etc/yui.dll" DATE="Fri Jul 03 13:43:37 PDT 2020" VERSION="2008, 2, 1, 1">
    <EXPORT ORDINAL="1" NAME="??0CAttribs@yui@@QAE@ABV01@@Z" PURGE="4" COMMENT="" />
    <EXPORT ORDINAL="2" NAME="??0CAttribs@yui@@QAE@PAVCAttribTreeNode@@PB_W1_N@Z" PURGE="16" COMMENT="" />
    <EXPORT ORDINAL="3" NAME="??0CAttribs@yui@@QAE@PBVIAttribs@1@@Z" PURGE="4" COMMENT="" />
    <EXPORT ORDINAL="4" NAME="??0CAttribs@yui@@QAE@PB_W0@Z" PURGE="8" COMMENT="" />
    <EXPORT ORDINAL="5" NAME="??0CAutoHookThread@yui@@QAE@XZ" PURGE="0" COMMENT="" />
    <EXPORT ORDINAL="6" NAME="??0CDimInfo@yui@@QAE@XZ" PURGE="0" COMMENT="" />
    <EXPORT ORDINAL="7" NAME="??0CFontPtr@@QAE@ABV0@@Z" PURGE="4" COMMENT="" />
    <EXPORT ORDINAL="8" NAME="??0CFontPtr@@QAE@XZ" PURGE="0" COMMENT="" />
    <EXPORT ORDINAL="9" NAME="??0CLayoutHWND@yui@@QAE@H@Z" PURGE="4" COMMENT="" />
    <EXPORT ORDINAL="10" NAME="??0CLayoutObj@yui@@QAE@XZ" PURGE="0" COMMENT="" />
    <EXPORT ORDINAL="11" NAME="??0CLayoutPanel@yui@@QAE@XZ" PURGE="0" COMMENT="" />
    <EXPORT ORDINAL="12" NAME="??0CPixelmapPtr@yui@@QAE@XZ" PURGE="0" COMMENT="" />
    <EXPORT ORDINAL="13" NAME="??0CScriptEventSource@yui@@QAE@ABV01@@Z" PURGE="4" COMMENT="" />
    <EXPORT ORDINAL="14" NAME="??0CScriptEventSource@yui@@QAE@XZ" PURGE="0" COMMENT="" />
    <EXPORT ORDINAL="15" NAME="??0DisableAnimation@yui@@QAE@XZ" PURGE="0" COMMENT="" />
    <EXPORT ORDINAL="16" NAME="??0IAccessibleLayoutObj@yui@@QAE@ABV01@@Z" PURGE="4" COMMENT="" />
    <EXPORT ORDINAL="17" NAME="??0IAccessibleLayoutObj@yui@@QAE@XZ" PURGE="0" COMMENT="" />
    <EXPORT ORDINAL="18" NAME="??0IAttribs@yui@@QAE@ABV01@@Z" PURGE="4" COMMENT="" />
    <EXPORT ORDINAL="19" NAME="??0IAttribs@yui@@QAE@XZ" PURGE="0" COMMENT="" />
    <EXPORT ORDINAL="20" NAME="??0IButton@yui@@QAE@ABV01@@Z" PURGE="4" COMMENT="" />
    <EXPORT ORDINAL="21" NAME="??0IButton@yui@@QAE@XZ" PURGE="0" COMMENT="" />
    <EXPORT ORDINAL="22" NAME="??0ICombobox@yui@@QAE@ABV01@@Z" PURGE="4" COMMENT="" />
    <EXPORT ORDINAL="23" NAME="??0ICombobox@yui@@QAE@XZ" PURGE="0" COMMENT="" />
    <EXPORT ORDINAL="24" NAME="??0IControl@yui@@QAE@ABV01@@Z" PURGE="4" COMMENT="" />
    <EXPORT ORDINAL="25" NAME="??0IControl@yui@@QAE@XZ" PURGE="0" COMMENT="" />
    <EXPORT ORDINAL="26" NAME="??0IGrid@yui@@QAE@ABV01@@Z" PURGE="4" COMMENT="" />
    <EXPORT ORDINAL="27" NAME="??0IGrid@yui@@QAE@XZ" PURGE="0" COMMENT="" />
    <EXPORT ORDINAL="28" NAME="??0IImage@yui@@QAE@ABV01@@Z" PURGE="4" COMMENT="" />
    <EXPORT ORDINAL="29" NAME="??0IImage@yui@@QAE@XZ" PURGE="0" COMMENT="" />
    <EXPORT ORDINAL="30" NAME="??0ILayoutEngine@yui@@QAE@ABV01@@Z" PURGE="4" COMMENT="" />
    <EXPORT ORDINAL="31" NAME="??0ILayoutEngine@yui@@QAE@XZ" PURGE="0" COMMENT="" />
    <EXPORT ORDINAL="32" NAME="??0ILayoutObj@yui@@QAE@ABV01@@Z" PURGE="4" COMMENT="" />
    <EXPORT ORDINAL="33" NAME="??0ILayoutObj@yui@@QAE@XZ" PURGE="0" COMMENT="" />
    <EXPORT ORDINAL="34" NAME="??0ILayoutObjColl@yui@@QAE@ABV01@@Z" PURGE="4" COMMENT="" />
    <EXPORT ORDINAL="35" NAME="??0ILayoutObjColl@yui@@QAE@XZ" PURGE="0" COMMENT="" />
    <EXPORT ORDINAL="36" NAME="??0ILayoutPanel@yui@@QAE@ABV01@@Z" PURGE="4" COMMENT="" />
    <EXPORT ORDINAL="37" NAME="??0ILayoutPanel@yui@@QAE@XZ" PURGE="0" COMMENT="" />
    <EXPORT ORDINAL="38" NAME="??0IMouseInput@yui@@QAE@ABV01@@Z" PURGE="4" COMMENT="" />
    <EXPORT ORDINAL="39" NAME="??0IMouseInput@yui@@QAE@XZ" PURGE="0" COMMENT="" />
    <EXPORT ORDINAL="40" NAME="??0IMouseInputImpl@yui@@QAE@ABV01@@Z" PURGE="4" COMMENT="" />
    <EXPORT ORDINAL="41" NAME="??0IMouseInputImpl@yui@@QAE@XZ" PURGE="0" COMMENT="" />
    <EXPORT ORDINAL="42" NAME="??0IScriptAction@yui@@QAE@ABV01@@Z" PURGE="4" COMMENT="" />
    <EXPORT ORDINAL="43" NAME="??0IScriptAction@yui@@QAE@XZ" PURGE="0" COMMENT="" />
    <EXPORT ORDINAL="44" NAME="??0IScriptEngine@yui@@QAE@ABV01@@Z" PURGE="4" COMMENT="" />
    <EXPORT ORDINAL="45" NAME="??0IScriptEngine@yui@@QAE@XZ" PURGE="0" COMMENT="" />
    <EXPORT ORDINAL="46" NAME="??0IScriptEvent@yui@@QAE@ABV01@@Z" PURGE="4" COMMENT="" />
    <EXPORT ORDINAL="47" NAME="??0IScriptEvent@yui@@QAE@XZ" PURGE="0" COMMENT="" />
    <EXPORT ORDINAL="48" NAME="??0IScriptEventSource@yui@@QAE@ABV01@@Z" PURGE="4" COMMENT="" />
    <EXPORT ORDINAL="49" NAME="??0IScriptEventSource@yui@@QAE@XZ" PURGE="0" COMMENT="" />
    <EXPORT ORDINAL="50" NAME="??0ISlider@yui@@QAE@ABV01@@Z" PURGE="4" COMMENT="" />
    <EXPORT ORDINAL="51" NAME="??0ISlider@yui@@QAE@XZ" PURGE="0" COMMENT="" />
    <EXPORT ORDINAL="52" NAME="??0ITabControl@yui@@QAE@ABV01@@Z" PURGE="4" COMMENT="" />
    <EXPORT ORDINAL="53" NAME="??0ITabControl@yui@@QAE@XZ" PURGE="0" COMMENT="" />
    <EXPORT ORDINAL="54" NAME="??0IThemeManager@yui@@QAE@ABV01@@Z" PURGE="4" COMMENT="" />
    <EXPORT ORDINAL="55" NAME="??0IThemeManager@yui@@QAE@XZ" PURGE="0" COMMENT="" />
    <EXPORT ORDINAL="56" NAME="??0IType@yui@@QAE@ABV01@@Z" PURGE="4" COMMENT="" />
    <EXPORT ORDINAL="57" NAME="??0IType@yui@@QAE@XZ" PURGE="0" COMMENT="" />
    <EXPORT ORDINAL="58" NAME="??0_IControlCustomDraw@yui@@QAE@ABV01@@Z" PURGE="4" COMMENT="" />
    <EXPORT ORDINAL="59" NAME="??0_IControlCustomDraw@yui@@QAE@XZ" PURGE="0" COMMENT="" />
    <EXPORT ORDINAL="60" NAME="??0_IControlEvents@yui@@QAE@ABV01@@Z" PURGE="4" COMMENT="" />
    <EXPORT ORDINAL="61" NAME="??0_IControlEvents@yui@@QAE@XZ" PURGE="0" COMMENT="" />
    <EXPORT ORDINAL="62" NAME="??0_IControlEventsImpl@yui@@QAE@ABV01@@Z" PURGE="4" COMMENT="" />
    <EXPORT ORDINAL="63" NAME="??0_IControlEventsImpl@yui@@QAE@XZ" PURGE="0" COMMENT="" />
    <EXPORT ORDINAL="64" NAME="??0_ICustomControlFactory@yui@@QAE@ABV01@@Z" PURGE="4" COMMENT="" />
    <EXPORT ORDINAL="65" NAME="??0_ICustomControlFactory@yui@@QAE@XZ" PURGE="0" COMMENT="" />
    <EXPORT ORDINAL="66" NAME="??0_ICustomControlFactoryImpl@yui@@QAE@ABV01@@Z" PURGE="4" COMMENT="" />
    <EXPORT ORDINAL="67" NAME="??0_ICustomControlFactoryImpl@yui@@QAE@XZ" PURGE="0" COMMENT="" />
    <EXPORT ORDINAL="68" NAME="??1CAttribs@yui@@UAE@XZ" PURGE="0" COMMENT="" />
    <EXPORT ORDINAL="69" NAME="??1CAutoHookThread@yui@@QAE@XZ" PURGE="-1" COMMENT="" />
    <EXPORT ORDINAL="70" NAME="??1CFontPtr@@UAE@XZ" PURGE="0" COMMENT="" />
    <EXPORT ORDINAL="71" NAME="??1CLayoutHWND@yui@@UAE@XZ" PURGE="0" COMMENT="" />
    <EXPORT ORDINAL="72" NAME="??1CLayoutObj@yui@@UAE@XZ" PURGE="0" COMMENT="" />
    <EXPORT ORDINAL="73" NAME="??1CLayoutPanel@yui@@UAE@XZ" PURGE="0" COMMENT="" />
    <EXPORT ORDINAL="74" NAME="??1CPixelmapPtr@yui@@UAE@XZ" PURGE="0" COMMENT="" />
    <EXPORT ORDINAL="75" NAME="??1CScriptEventSource@yui@@UAE@XZ" PURGE="0" COMMENT="" />
    <EXPORT ORDINAL="76" NAME="??1DisableAnimation@yui@@QAE@XZ" PURGE="0" COMMENT="" />
    <EXPORT ORDINAL="77" NAME="??1IAccessibleLayoutObj@yui@@UAE@XZ" PURGE="0" COMMENT="" />
    <EXPORT ORDINAL="78" NAME="??1IAttribs@yui@@UAE@XZ" PURGE="0" COMMENT="" />
    <EXPORT ORDINAL="79" NAME="??1IButton@yui@@UAE@XZ" PURGE="0" COMMENT="" />
    <EXPORT ORDINAL="80" NAME="??1ICombobox@yui@@UAE@XZ" PURGE="0" COMMENT="" />
    <EXPORT ORDINAL="81" NAME="??1IControl@yui@@UAE@XZ" PURGE="0" COMMENT="" />
    <EXPORT ORDINAL="82" NAME="??1IGrid@yui@@UAE@XZ" PURGE="0" COMMENT="" />
    <EXPORT ORDINAL="83" NAME="??1IImage@yui@@UAE@XZ" PURGE="0" COMMENT="" />
    <EXPORT ORDINAL="84" NAME="??1ILayoutEngine@yui@@UAE@XZ" PURGE="0" COMMENT="" />
    <EXPORT ORDINAL="85" NAME="??1ILayoutObj@yui@@UAE@XZ" PURGE="0" COMMENT="" />
    <EXPORT ORDINAL="86" NAME="??1ILayoutObjColl@yui@@UAE@XZ" PURGE="0" COMMENT="" />
    <EXPORT ORDINAL="87" NAME="??1ILayoutPanel@yui@@UAE@XZ" PURGE="0" COMMENT="" />
    <EXPORT ORDINAL="88" NAME="??1IMouseInput@yui@@UAE@XZ" PURGE="0" COMMENT="" />
    <EXPORT ORDINAL="89" NAME="??1IMouseInputImpl@yui@@UAE@XZ" PURGE="0" COMMENT="" />
    <EXPORT ORDINAL="90" NAME="??1IScriptAction@yui@@UAE@XZ" PURGE="0" COMMENT="" />
    <EXPORT ORDINAL="91" NAME="??1IScriptEngine@yui@@UAE@XZ" PURGE="0" COMMENT="" />
    <EXPORT ORDINAL="92" NAME="??1IScriptEvent@yui@@UAE@XZ" PURGE="0" COMMENT="" />
    <EXPORT ORDINAL="93" NAME="??1IScriptEventSource@yui@@UAE@XZ" PURGE="0" COMMENT="" />
    <EXPORT ORDINAL="94" NAME="??1ISlider@yui@@UAE@XZ" PURGE="0" COMMENT="" />
    <EXPORT ORDINAL="95" NAME="??1ITabControl@yui@@UAE@XZ" PURGE="0" COMMENT="" />
    <EXPORT ORDINAL="96" NAME="??1IThemeManager@yui@@UAE@XZ" PURGE="0" COMMENT="" />
    <EXPORT ORDINAL="97" NAME="??1_IControlCustomDraw@yui@@UAE@XZ" PURGE="0" COMMENT="" />
    <EXPORT ORDINAL="98" NAME="??1_IControlEvents@yui@@UAE@XZ" PURGE="0" COMMENT="" />
    <EXPORT ORDINAL="99" NAME="??1_IControlEventsImpl@yui@@MAE@XZ" PURGE="0" COMMENT="" />
    <EXPORT ORDINAL="100" NAME="??1_ICustomControlFactory@yui@@MAE@XZ" PURGE="0" COMMENT="" />
    <EXPORT ORDINAL="101" NAME="??1_ICustomControlFactoryImpl@yui@@MAE@XZ" PURGE="0" COMMENT="" />
    <EXPORT ORDINAL="102" NAME="??4CAttribs@yui@@QAEAAV01@ABV01@@Z" PURGE="4" COMMENT="" />
    <EXPORT ORDINAL="103" NAME="??4CAutoHookThread@yui@@QAEAAV01@ABV01@@Z" PURGE="4" COMMENT="" />
    <EXPORT ORDINAL="104" NAME="??4CDimInfo@yui@@QAEAAV01@ABV01@@Z" PURGE="4" COMMENT="" />
    <EXPORT ORDINAL="105" NAME="??4CFontPtr@@QAEAAV0@AAPAUHFONT__@@@Z" PURGE="4" COMMENT="" />
    <EXPORT ORDINAL="106" NAME="??4CFontPtr@@QAEAAV0@ABV0@@Z" PURGE="4" COMMENT="" />
    <EXPORT ORDINAL="107" NAME="??4CScriptEventSource@yui@@QAEAAV01@ABV01@@Z" PURGE="4" COMMENT="" />
    <EXPORT ORDINAL="108" NAME="??4DisableAnimation@yui@@QAEAAV01@ABV01@@Z" PURGE="4" COMMENT="" />
    <EXPORT ORDINAL="109" NAME="??4IAccessibleLayoutObj@yui@@QAEAAV01@ABV01@@Z" PURGE="4" COMMENT="" />
    <EXPORT ORDINAL="110" NAME="??4IAttribs@yui@@QAEAAV01@ABV01@@Z" PURGE="4" COMMENT="" />
    <EXPORT ORDINAL="111" NAME="??4IButton@yui@@QAEAAV01@ABV01@@Z" PURGE="4" COMMENT="" />
    <EXPORT ORDINAL="112" NAME="??4ICombobox@yui@@QAEAAV01@ABV01@@Z" PURGE="4" COMMENT="" />
    <EXPORT ORDINAL="113" NAME="??4IControl@yui@@QAEAAV01@ABV01@@Z" PURGE="4" COMMENT="" />
    <EXPORT ORDINAL="114" NAME="??4IGrid@yui@@QAEAAV01@ABV01@@Z" PURGE="4" COMMENT="" />
    <EXPORT ORDINAL="115" NAME="??4IImage@yui@@QAEAAV01@ABV01@@Z" PURGE="4" COMMENT="" />
    <EXPORT ORDINAL="116" NAME="??4ILayoutEngine@yui@@QAEAAV01@ABV01@@Z" PURGE="4" COMMENT="" />
    <EXPORT ORDINAL="117" NAME="??4ILayoutObj@yui@@QAEAAV01@ABV01@@Z" PURGE="4" COMMENT="" />
    <EXPORT ORDINAL="118" NAME="??4ILayoutObjColl@yui@@QAEAAV01@ABV01@@Z" PURGE="4" COMMENT="" />
    <EXPORT ORDINAL="119" NAME="??4ILayoutPanel@yui@@QAEAAV01@ABV01@@Z" PURGE="4" COMMENT="" />
    <EXPORT ORDINAL="120" NAME="??4IMouseInput@yui@@QAEAAV01@ABV01@@Z" PURGE="4" COMMENT="" />
    <EXPORT ORDINAL="121" NAME="??4IMouseInputImpl@yui@@QAEAAV01@ABV01@@Z" PURGE="4" COMMENT="" />
    <EXPORT ORDINAL="122" NAME="??4IScriptAction@yui@@QAEAAV01@ABV01@@Z" PURGE="4" COMMENT="" />
    <EXPORT ORDINAL="123" NAME="??4IScriptEngine@yui@@QAEAAV01@ABV01@@Z" PURGE="4" COMMENT="" />
    <EXPORT ORDINAL="124" NAME="??4IScriptEvent@yui@@QAEAAV01@ABV01@@Z" PURGE="4" COMMENT="" />
    <EXPORT ORDINAL="125" NAME="??4IScriptEventSource@yui@@QAEAAV01@ABV01@@Z" PURGE="4" COMMENT="" />
    <EXPORT ORDINAL="126" NAME="??4ISlider@yui@@QAEAAV01@ABV01@@Z" PURGE="4" COMMENT="" />
    <EXPORT ORDINAL="127" NAME="??4ITabControl@yui@@QAEAAV01@ABV01@@Z" PURGE="4" COMMENT="" />
    <EXPORT ORDINAL="128" NAME="??4IThemeManager@yui@@QAEAAV01@ABV01@@Z" PURGE="4" COMMENT="" />
    <EXPORT ORDINAL="129" NAME="??4IType@yui@@QAEAAV01@ABV01@@Z" PURGE="4" COMMENT="" />
    <EXPORT ORDINAL="130" NAME="??4_IControlCustomDraw@yui@@QAEAAV01@ABV01@@Z" PURGE="4" COMMENT="" />
    <EXPORT ORDINAL="131" NAME="??4_IControlEvents@yui@@QAEAAV01@ABV01@@Z" PURGE="4" COMMENT="" />
    <EXPORT ORDINAL="132" NAME="??4_IControlEventsImpl@yui@@QAEAAV01@ABV01@@Z" PURGE="4" COMMENT="" />
    <EXPORT ORDINAL="133" NAME="??4_ICustomControlFactory@yui@@QAEAAV01@ABV01@@Z" PURGE="4" COMMENT="" />
    <EXPORT ORDINAL="134" NAME="??4_ICustomControlFactoryImpl@yui@@QAEAAV01@ABV01@@Z" PURGE="4" COMMENT="" />
    <EXPORT ORDINAL="135" NAME="??BCFontPtr@@QBEPAUHFONT__@@XZ" PURGE="0" COMMENT="" />
    <EXPORT ORDINAL="136" NAME="??CCPixelmapPtr@yui@@QAEPAV01@XZ" PURGE="0" COMMENT="" />
    <EXPORT ORDINAL="137" NAME="??_7CAttribs@yui@@6B@" PURGE="-1" COMMENT="" />
    <EXPORT ORDINAL="138" NAME="??_7CFontPtr@@6B@" PURGE="-1" COMMENT="" />
    <EXPORT ORDINAL="139" NAME="??_7CLayoutHWND@yui@@6B@" PURGE="-1" COMMENT="" />
    <EXPORT ORDINAL="140" NAME="??_7CLayoutHWND@yui@@6BCScriptEventSource@1@@" PURGE="-1" COMMENT="" />
    <EXPORT ORDINAL="141" NAME="??_7CLayoutHWND@yui@@6BILayoutPanel@1@@" PURGE="-1" COMMENT="" />
    <EXPORT ORDINAL="142" NAME="??_7CLayoutObj@yui@@6BCScriptEventSource@1@@" PURGE="-1" COMMENT="" />
    <EXPORT ORDINAL="143" NAME="??_7CLayoutObj@yui@@6BIControl@1@@" PURGE="-1" COMMENT="" />
    <EXPORT ORDINAL="144" NAME="??_7CLayoutObj@yui@@6BILayoutObj@1@@" PURGE="-1" COMMENT="" />
    <EXPORT ORDINAL="145" NAME="??_7CLayoutPanel@yui@@6BCScriptEventSource@1@@" PURGE="-1" COMMENT="" />
    <EXPORT ORDINAL="146" NAME="??_7CLayoutPanel@yui@@6BILayoutPanel@1@@" PURGE="-1" COMMENT="" />
    <EXPORT ORDINAL="147" NAME="??_7CPixelmapPtr@yui@@6B@" PURGE="-1" COMMENT="" />
    <EXPORT ORDINAL="148" NAME="??_7CScriptEventSource@yui@@6B@" PURGE="-1" COMMENT="" />
    <EXPORT ORDINAL="149" NAME="??_7IAccessibleLayoutObj@yui@@6B@" PURGE="-1" COMMENT="" />
    <EXPORT ORDINAL="150" NAME="??_7IAttribs@yui@@6B@" PURGE="-1" COMMENT="" />
    <EXPORT ORDINAL="151" NAME="??_7IButton@yui@@6B@" PURGE="-1" COMMENT="" />
    <EXPORT ORDINAL="152" NAME="??_7ICombobox@yui@@6B@" PURGE="-1" COMMENT="" />
    <EXPORT ORDINAL="153" NAME="??_7IControl@yui@@6B@" PURGE="-1" COMMENT="" />
    <EXPORT ORDINAL="154" NAME="??_7IGrid@yui@@6B@" PURGE="-1" COMMENT="" />
    <EXPORT ORDINAL="155" NAME="??_7IImage@yui@@6B@" PURGE="-1" COMMENT="" />
    <EXPORT ORDINAL="156" NAME="??_7ILayoutEngine@yui@@6B@" PURGE="-1" COMMENT="" />
    <EXPORT ORDINAL="157" NAME="??_7ILayoutObj@yui@@6B@" PURGE="-1" COMMENT="" />
    <EXPORT ORDINAL="158" NAME="??_7ILayoutObjColl@yui@@6B@" PURGE="-1" COMMENT="" />
    <EXPORT ORDINAL="159" NAME="??_7ILayoutPanel@yui@@6B@" PURGE="-1" COMMENT="" />
    <EXPORT ORDINAL="160" NAME="??_7IMouseInput@yui@@6B@" PURGE="-1" COMMENT="" />
    <EXPORT ORDINAL="161" NAME="??_7IMouseInputImpl@yui@@6B@" PURGE="-1" COMMENT="" />
    <EXPORT ORDINAL="162" NAME="??_7IScriptAction@yui@@6B@" PURGE="-1" COMMENT="" />
    <EXPORT ORDINAL="163" NAME="??_7IScriptEngine@yui@@6B@" PURGE="-1" COMMENT="" />
    <EXPORT ORDINAL="164" NAME="??_7IScriptEvent@yui@@6B@" PURGE="-1" COMMENT="" />
    <EXPORT ORDINAL="165" NAME="??_7IScriptEventSource@yui@@6B@" PURGE="-1" COMMENT="" />
    <EXPORT ORDINAL="166" NAME="??_7ISlider@yui@@6B@" PURGE="-1" COMMENT="" />
    <EXPORT ORDINAL="167" NAME="??_7ITabControl@yui@@6B@" PURGE="-1" COMMENT="" />
    <EXPORT ORDINAL="168" NAME="??_7IThemeManager@yui@@6B@" PURGE="-1" COMMENT="" />
    <EXPORT ORDINAL="169" NAME="??_7IType@yui@@6B@" PURGE="-1" COMMENT="" />
    <EXPORT ORDINAL="170" NAME="??_7_IControlCustomDraw@yui@@6B@" PURGE="-1" COMMENT="" />
    <EXPORT ORDINAL="171" NAME="??_7_IControlEvents@yui@@6B@" PURGE="-1" COMMENT="" />
    <EXPORT ORDINAL="172" NAME="??_7_IControlEventsImpl@yui@@6B@" PURGE="-1" COMMENT="" />
    <EXPORT ORDINAL="173" NAME="??_7_ICustomControlFactory@yui@@6B@" PURGE="-1" COMMENT="" />
    <EXPORT ORDINAL="174" NAME="??_7_ICustomControlFactoryImpl@yui@@6B@" PURGE="-1" COMMENT="" />
    <EXPORT ORDINAL="175" NAME="??_FCLayoutHWND@yui@@QAEXXZ" PURGE="0" COMMENT="" />
    <EXPORT ORDINAL="176" NAME="?Add@CLayoutPanel@yui@@UAEXPAVILayoutObj@2@@Z" PURGE="4" COMMENT="" />
    <EXPORT ORDINAL="177" NAME="?AddEvent@CScriptEventSource@yui@@UAEPAVIScriptEvent@2@PB_W@Z" PURGE="4" COMMENT="" />
    <EXPORT ORDINAL="178" NAME="?AddEvent@CScriptEventSource@yui@@UAEXPAVIScriptEvent@2@@Z" PURGE="4" COMMENT="" />
    <EXPORT ORDINAL="179" NAME="?CalcLayoutInfo@CLayoutHWND@yui@@UAEXXZ" PURGE="0" COMMENT="" />
    <EXPORT ORDINAL="180" NAME="?CalcLayoutInfo@CLayoutObj@yui@@UAEXXZ" PURGE="0" COMMENT="" />
    <EXPORT ORDINAL="181" NAME="?ClearEvents@CScriptEventSource@yui@@UAEXXZ" PURGE="0" COMMENT="" />
    <EXPORT ORDINAL="182" NAME="?CopyAttributes@CAttribs@yui@@UAEXPBVIAttribs@2@ABV?$list@V?$basic_string@_WU?$char_traits@_W@std@@V?$allocator@_W@2@@std@@V?$allocator@V?$basic_string@_WU?$char_traits@_W@std@@V?$allocator@_W@2@@std@@@2@@std@@_N@Z" PURGE="12" COMMENT="" />
    <EXPORT ORDINAL="183" NAME="?CopyHBITMAP@CPixelmapPtr@yui@@QAE_NPAUHBITMAP__@@ABE_N@Z" PURGE="12" COMMENT="" />
    <EXPORT ORDINAL="184" NAME="?Create@CLayoutHWND@yui@@SAPAV12@PAUHWND__@@PAVIAttribs@2@_N@Z" PURGE="0" COMMENT="" />
    <EXPORT ORDINAL="185" NAME="?CreateFontIndirectW@CFontPtr@@QAEHPBUtagLOGFONTW@@@Z" PURGE="4" COMMENT="" />
    <EXPORT ORDINAL="186" NAME="?CreateLayoutObj@yui@@YAPAVILayoutObj@1@PAUHWND__@@PAVIAttribs@1@@Z" PURGE="0" COMMENT="" />
    <EXPORT ORDINAL="187" NAME="?CreateScaledBackground@CLayoutPanel@yui@@IAEX_N@Z" PURGE="4" COMMENT="" />
    <EXPORT ORDINAL="188" NAME="?CreateStockObject@CFontPtr@@QAEHH@Z" PURGE="4" COMMENT="" />
    <EXPORT ORDINAL="189" NAME="?DeleteObject@CFontPtr@@QAEHXZ" PURGE="0" COMMENT="" />
    <EXPORT ORDINAL="190" NAME="?Destroy@CPixelmapPtr@yui@@QAEXXZ" PURGE="0" COMMENT="" />
    <EXPORT ORDINAL="191" NAME="?Detach@CLayoutPanel@yui@@UAEPAVILayoutObj@2@PAV32@@Z" PURGE="4" COMMENT="" />
    <EXPORT ORDINAL="192" NAME="?Detach@CLayoutPanel@yui@@UAEPAVILayoutObj@2@PB_W@Z" PURGE="4" COMMENT="" />
    <EXPORT ORDINAL="193" NAME="?DoDrawText@_IControlCustomDraw@yui@@UAEHPB_WPAUHDC__@@0HPAUtagRECT@@I@Z" PURGE="24" COMMENT="" />
    <EXPORT ORDINAL="194" NAME="?DoExtTextOut@_IControlCustomDraw@yui@@UAEHPB_WPAUHDC__@@HHIPBUtagRECT@@0IPBHH@Z" PURGE="40" COMMENT="" />
    <EXPORT ORDINAL="195" NAME="?DoGetTextExtentPoint@_IControlCustomDraw@yui@@UAEHPB_WPAUHDC__@@0HPAUtagSIZE@@@Z" PURGE="20" COMMENT="" />
    <EXPORT ORDINAL="196" NAME="?DrawBackground@CLayoutPanel@yui@@MAEXPAUHDC__@@@Z" PURGE="4" COMMENT="" />
    <EXPORT ORDINAL="197" NAME="?DrawOutline@CLayoutPanel@yui@@IAEXPAUHDC__@@PBUtagRECT@@@Z" PURGE="8" COMMENT="" />
    <EXPORT ORDINAL="198" NAME="?Enable@CLayoutHWND@yui@@UAEX_N@Z" PURGE="4" COMMENT="" />
    <EXPORT ORDINAL="199" NAME="?Enable@CLayoutObj@yui@@UAEX_N@Z" PURGE="4" COMMENT="" />
    <EXPORT ORDINAL="200" NAME="?Enable@CLayoutPanel@yui@@UAEX_N@Z" PURGE="4" COMMENT="" />
    <EXPORT ORDINAL="201" NAME="?EnableAnimation@yui@@YAX_N@Z" PURGE="0" COMMENT="" />
    <EXPORT ORDINAL="202" NAME="?EnableScrolling@yui@@YAX_N@Z" PURGE="0" COMMENT="" />
    <EXPORT ORDINAL="203" NAME="?FetchChildObj@CLayoutHWND@yui@@IAEXXZ" PURGE="0" COMMENT="" />
    <EXPORT ORDINAL="204" NAME="?FillTabStopArray@CLayoutHWND@yui@@UAEXAAV?$vector@PAVIAccessibleLayoutObj@yui@@V?$allocator@PAVIAccessibleLayoutObj@yui@@@std@@@std@@@Z" PURGE="4" COMMENT="" />
    <EXPORT ORDINAL="205" NAME="?FillTabStopArray@CLayoutObj@yui@@UAEXAAV?$vector@PAVIAccessibleLayoutObj@yui@@V?$allocator@PAVIAccessibleLayoutObj@yui@@@std@@@std@@@Z" PURGE="4" COMMENT="" />
    <EXPORT ORDINAL="206" NAME="?FillTabStopArray@CLayoutPanel@yui@@UAEXAAV?$vector@PAVIAccessibleLayoutObj@yui@@V?$allocator@PAVIAccessibleLayoutObj@yui@@@std@@@std@@@Z" PURGE="4" COMMENT="" />
    <EXPORT ORDINAL="207" NAME="?FindAlignment@CAttribs@yui@@UBE_NPB_WPAW4eAlignment@2@@Z" PURGE="8" COMMENT="" />
    <EXPORT ORDINAL="208" NAME="?FindBool@CAttribs@yui@@UBE_NPB_WPA_N@Z" PURGE="8" COMMENT="" />
    <EXPORT ORDINAL="209" NAME="?FindColor@CAttribs@yui@@UBE_NPB_WPAK@Z" PURGE="8" COMMENT="" />
    <EXPORT ORDINAL="210" NAME="?FindDockPosition@CAttribs@yui@@UBE_NPB_WPAW4eDockPosition@2@@Z" PURGE="8" COMMENT="" />
    <EXPORT ORDINAL="211" NAME="?FindFile@CAttribs@yui@@UBE_NPB_WPAV?$basic_string@_WU?$char_traits@_W@std@@V?$allocator@_W@2@@std@@@Z" PURGE="8" COMMENT="" />
    <EXPORT ORDINAL="212" NAME="?FindFileWithAero@CAttribs@yui@@UBE_NPB_W0PAV?$basic_string@_WU?$char_traits@_W@std@@V?$allocator@_W@2@@std@@@Z" PURGE="12" COMMENT="" />
    <EXPORT ORDINAL="213" NAME="?FindFloat@CAttribs@yui@@UBE_NPB_WPAN@Z" PURGE="8" COMMENT="" />
    <EXPORT ORDINAL="214" NAME="?FindFont@CAttribs@yui@@UBE_NPB_WPAUtagLOGFONTW@@@Z" PURGE="8" COMMENT="" />
    <EXPORT ORDINAL="215" NAME="?FindFontEx@CAttribs@yui@@SAXPB_WPAUtagLOGFONTW@@@Z" PURGE="0" COMMENT="" />
    <EXPORT ORDINAL="216" NAME="?FindLayoutObj@CLayoutObj@yui@@UAEPAVILayoutObj@2@PB_W@Z" PURGE="4" COMMENT="" />
    <EXPORT ORDINAL="217" NAME="?FindLayoutObj@CLayoutPanel@yui@@UAEPAVILayoutObj@2@PB_W@Z" PURGE="4" COMMENT="" />
    <EXPORT ORDINAL="218" NAME="?FindLayoutObjs@CLayoutObj@yui@@UAEHPB_WAAV?$vector@PAVILayoutObj@yui@@V?$allocator@PAVILayoutObj@yui@@@std@@@std@@@Z" PURGE="8" COMMENT="" />
    <EXPORT ORDINAL="219" NAME="?FindLayoutObjs@CLayoutPanel@yui@@UAEHPB_WAAV?$vector@PAVILayoutObj@yui@@V?$allocator@PAVILayoutObj@yui@@@std@@@std@@@Z" PURGE="8" COMMENT="" />
    <EXPORT ORDINAL="220" NAME="?FindLong@CAttribs@yui@@UBE_NPB_WPAJ@Z" PURGE="8" COMMENT="" />
    <EXPORT ORDINAL="221" NAME="?FindLongVector@CAttribs@yui@@UBE_NPB_WPAV?$vector@JV?$allocator@J@std@@@std@@@Z" PURGE="8" COMMENT="" />
    <EXPORT ORDINAL="222" NAME="?FindRGBA@CAttribs@yui@@UBE_NPB_WPAURGBA@2@@Z" PURGE="8" COMMENT="" />
    <EXPORT ORDINAL="223" NAME="?FindRect@CAttribs@yui@@UBE_NPB_WPAUtagRECT@@@Z" PURGE="8" COMMENT="" />
    <EXPORT ORDINAL="224" NAME="?FindResizeInfo@CAttribs@yui@@UBE_NPB_WPAURESIZEINFO@2@@Z" PURGE="8" COMMENT="" />
    <EXPORT ORDINAL="225" NAME="?FindString@CAttribs@yui@@UBE_NPB_WPAV?$basic_string@_WU?$char_traits@_W@std@@V?$allocator@_W@2@@std@@@Z" PURGE="8" COMMENT="" />
    <EXPORT ORDINAL="226" NAME="?FindStringVector@CAttribs@yui@@UBE_NPB_WPAV?$vector@V?$basic_string@_WU?$char_traits@_W@std@@V?$allocator@_W@2@@std@@V?$allocator@V?$basic_string@_WU?$char_traits@_W@std@@V?$allocator@_W@2@@std@@@2@@std@@@Z" PURGE="8" COMMENT="" />
    <EXPORT ORDINAL="227" NAME="?FromAlignment@CAttribs@yui@@ABE?AV?$basic_string@_WU?$char_traits@_W@std@@V?$allocator@_W@2@@std@@W4eAlignment@2@@Z" PURGE="8" COMMENT="" />
    <EXPORT ORDINAL="228" NAME="?FromColor@CAttribs@yui@@SA?AV?$basic_string@_WU?$char_traits@_W@std@@V?$allocator@_W@2@@std@@ABK@Z" PURGE="0" COMMENT="" />
    <EXPORT ORDINAL="229" NAME="?FromDockPosition@CAttribs@yui@@ABE?AV?$basic_string@_WU?$char_traits@_W@std@@V?$allocator@_W@2@@std@@W4eDockPosition@2@@Z" PURGE="8" COMMENT="" />
    <EXPORT ORDINAL="230" NAME="?FromFontWeight@CAttribs@yui@@SA?AV?$basic_string@_WU?$char_traits@_W@std@@V?$allocator@_W@2@@std@@H@Z" PURGE="0" COMMENT="" />
    <EXPORT ORDINAL="231" NAME="?FromLogFont@CAttribs@yui@@SA?AV?$basic_string@_WU?$char_traits@_W@std@@V?$allocator@_W@2@@std@@ABUtagLOGFONTW@@@Z" PURGE="0" COMMENT="" />
    <EXPORT ORDINAL="232" NAME="?FromRGBA@CAttribs@yui@@SA?AV?$basic_string@_WU?$char_traits@_W@std@@V?$allocator@_W@2@@std@@ABURGBA@2@@Z" PURGE="0" COMMENT="" />
    <EXPORT ORDINAL="233" NAME="?FromRect@CAttribs@yui@@ABE?AV?$basic_string@_WU?$char_traits@_W@std@@V?$allocator@_W@2@@std@@ABUtagRECT@@@Z" PURGE="8" COMMENT="" />
    <EXPORT ORDINAL="234" NAME="?FromResizeInfo@CAttribs@yui@@ABE?AV?$basic_string@_WU?$char_traits@_W@std@@V?$allocator@_W@2@@std@@ABURESIZEINFO@2@@Z" PURGE="8" COMMENT="" />
    <EXPORT ORDINAL="235" NAME="?FromShowState@CAttribs@yui@@ABE?AV?$basic_string@_WU?$char_traits@_W@std@@V?$allocator@_W@2@@std@@W4eShowState@2@@Z" PURGE="8" COMMENT="" />
    <EXPORT ORDINAL="236" NAME="?GetAlignment@CDimInfo@yui@@QBE?AW4eAlignment@2@XZ" PURGE="0" COMMENT="" />
    <EXPORT ORDINAL="237" NAME="?GetAlignment@CLayoutObj@yui@@UAEXPAW4eAlignment@2@0@Z" PURGE="8" COMMENT="" />
    <EXPORT ORDINAL="238" NAME="?GetAlignment@CLayoutPanel@yui@@UAEXPAW4eAlignment@2@0@Z" PURGE="8" COMMENT="" />
    <EXPORT ORDINAL="239" NAME="?GetAlpha@CLayoutObj@yui@@UAEXPAE@Z" PURGE="4" COMMENT="" />
    <EXPORT ORDINAL="240" NAME="?GetAlpha@CLayoutPanel@yui@@UAEXPAE@Z" PURGE="4" COMMENT="" />
    <EXPORT ORDINAL="241" NAME="?GetAltFilePath@CAttribs@yui@@UBE?AV?$basic_string@_WU?$char_traits@_W@std@@V?$allocator@_W@2@@std@@XZ" PURGE="4" COMMENT="" />
    <EXPORT ORDINAL="242" NAME="?GetAttribNames@CAttribs@yui@@UBEXAAV?$list@V?$basic_string@_WU?$char_traits@_W@std@@V?$allocator@_W@2@@std@@V?$allocator@V?$basic_string@_WU?$char_traits@_W@std@@V?$allocator@_W@2@@std@@@2@@std@@@Z" PURGE="4" COMMENT="" />
    <EXPORT ORDINAL="243" NAME="?GetAttribute@CLayoutObj@yui@@UAE_NPB_WAAJ@Z" PURGE="8" COMMENT="" />
    <EXPORT ORDINAL="244" NAME="?GetAttribute@CLayoutPanel@yui@@UAE_NPB_WAAJ@Z" PURGE="8" COMMENT="" />
    <EXPORT ORDINAL="245" NAME="?GetAttributes@CLayoutObj@yui@@UBEPBVIAttribs@2@XZ" PURGE="0" COMMENT="" />
    <EXPORT ORDINAL="246" NAME="?GetAttributes@CLayoutPanel@yui@@UBEPBVIAttribs@2@XZ" PURGE="0" COMMENT="" />
    <EXPORT ORDINAL="247" NAME="?GetBackColor@CLayoutPanel@yui@@UAEKXZ" PURGE="0" COMMENT="" />
    <EXPORT ORDINAL="248" NAME="?GetCallback@CScriptEventSource@yui@@UAEPAV_IControlEvents@2@XZ" PURGE="0" COMMENT="" />
    <EXPORT ORDINAL="249" NAME="?GetCaptureObj@CLayoutHWND@yui@@UAEPAVILayoutObj@2@XZ" PURGE="0" COMMENT="" />
    <EXPORT ORDINAL="250" NAME="?GetCaptureObj@CLayoutObj@yui@@UAEPAVILayoutObj@2@XZ" PURGE="0" COMMENT="" />
    <EXPORT ORDINAL="251" NAME="?GetCaptureObj@CLayoutPanel@yui@@UAEPAVILayoutObj@2@XZ" PURGE="0" COMMENT="" />
    <EXPORT ORDINAL="252" NAME="?GetClipMode@CLayoutObj@yui@@UAE?AW4eClipMode@2@XZ" PURGE="0" COMMENT="" />
    <EXPORT ORDINAL="253" NAME="?GetClipMode@CLayoutPanel@yui@@UAE?AW4eClipMode@2@XZ" PURGE="0" COMMENT="" />
    <EXPORT ORDINAL="254" NAME="?GetCurrentPos@CDimInfo@yui@@QBEHXZ" PURGE="0" COMMENT="" />
    <EXPORT ORDINAL="255" NAME="?GetCurrentPos@CLayoutObj@yui@@UAEXPAH0@Z" PURGE="8" COMMENT="" />
    <EXPORT ORDINAL="256" NAME="?GetCurrentPos@CLayoutPanel@yui@@UAEXPAH0@Z" PURGE="8" COMMENT="" />
    <EXPORT ORDINAL="257" NAME="?GetCurrentRect@CLayoutObj@yui@@UAEXPAH000@Z" PURGE="16" COMMENT="" />
    <EXPORT ORDINAL="258" NAME="?GetCurrentRect@CLayoutObj@yui@@UAEXPAUtagRECT@@@Z" PURGE="4" COMMENT="" />
    <EXPORT ORDINAL="259" NAME="?GetCurrentRect@CLayoutPanel@yui@@UAEXPAH000@Z" PURGE="16" COMMENT="" />
    <EXPORT ORDINAL="260" NAME="?GetCurrentRect@CLayoutPanel@yui@@UAEXPAUtagRECT@@@Z" PURGE="4" COMMENT="" />
    <EXPORT ORDINAL="261" NAME="?GetCurrentSize@CDimInfo@yui@@QBEHXZ" PURGE="0" COMMENT="" />
    <EXPORT ORDINAL="262" NAME="?GetCurrentSize@CLayoutObj@yui@@UAEXPAH0@Z" PURGE="8" COMMENT="" />
    <EXPORT ORDINAL="263" NAME="?GetCurrentSize@CLayoutPanel@yui@@UAEXPAH0@Z" PURGE="8" COMMENT="" />
    <EXPORT ORDINAL="264" NAME="?GetCustomAttributes@CLayoutObj@yui@@UAEPAVIAttribs@2@XZ" PURGE="0" COMMENT="" />
    <EXPORT ORDINAL="265" NAME="?GetCustomAttributes@CLayoutPanel@yui@@UAEPAVIAttribs@2@XZ" PURGE="0" COMMENT="" />
    <EXPORT ORDINAL="266" NAME="?GetDimInfo@CLayoutObj@yui@@UAEPAVCDimInfo@2@W4eDimension@2@@Z" PURGE="4" COMMENT="" />
    <EXPORT ORDINAL="267" NAME="?GetDimInfo@CLayoutPanel@yui@@UAEPAVCDimInfo@2@W4eDimension@2@@Z" PURGE="4" COMMENT="" />
    <EXPORT ORDINAL="268" NAME="?GetDisplayOptions@yui@@YAXAA_N0@Z" PURGE="0" COMMENT="" />
    <EXPORT ORDINAL="269" NAME="?GetDockPosition@CLayoutObj@yui@@UAE?AW4eDockPosition@2@XZ" PURGE="0" COMMENT="" />
    <EXPORT ORDINAL="270" NAME="?GetDockPosition@CLayoutPanel@yui@@UAE?AW4eDockPosition@2@XZ" PURGE="0" COMMENT="" />
    <EXPORT ORDINAL="271" NAME="?GetEvent@CScriptEventSource@yui@@UAEPAVIScriptEvent@2@PB_W@Z" PURGE="4" COMMENT="" />
    <EXPORT ORDINAL="272" NAME="?GetEventAt@CScriptEventSource@yui@@UAEPAVIScriptEvent@2@H@Z" PURGE="4" COMMENT="" />
    <EXPORT ORDINAL="273" NAME="?GetEventCount@CScriptEventSource@yui@@UAEHXZ" PURGE="0" COMMENT="" />
    <EXPORT ORDINAL="274" NAME="?GetFilePath@CAttribs@yui@@UBE?AV?$basic_string@_WU?$char_traits@_W@std@@V?$allocator@_W@2@@std@@XZ" PURGE="4" COMMENT="" />
    <EXPORT ORDINAL="275" NAME="?GetFontMetrics@CFontPtr@@QAEXAAH0@Z" PURGE="8" COMMENT="" />
    <EXPORT ORDINAL="276" NAME="?GetHBITMAP@CPixelmapPtr@yui@@QBEPAUHBITMAP__@@XZ" PURGE="0" COMMENT="" />
    <EXPORT ORDINAL="277" NAME="?GetHWND@CLayoutHWND@yui@@UAEPAUHWND__@@XZ" PURGE="0" COMMENT="" />
    <EXPORT ORDINAL="278" NAME="?GetHWND@CLayoutObj@yui@@UAEPAUHWND__@@XZ" PURGE="0" COMMENT="" />
    <EXPORT ORDINAL="279" NAME="?GetHWND@CLayoutPanel@yui@@UAEPAUHWND__@@XZ" PURGE="0" COMMENT="" />
    <EXPORT ORDINAL="280" NAME="?GetHeight@CPixelmapPtr@yui@@QBEJXZ" PURGE="0" COMMENT="" />
    <EXPORT ORDINAL="281" NAME="?GetHiddenByPanel@CLayoutObj@yui@@UAE_NXZ" PURGE="0" COMMENT="" />
    <EXPORT ORDINAL="282" NAME="?GetHiddenByPanel@CLayoutPanel@yui@@UAE_NXZ" PURGE="0" COMMENT="" />
    <EXPORT ORDINAL="283" NAME="?GetID@CLayoutObj@yui@@UAEPB_WXZ" PURGE="-1" COMMENT="" />
    <EXPORT ORDINAL="284" NAME="?GetID@CLayoutPanel@yui@@UAEPB_WXZ" PURGE="-1" COMMENT="" />
    <EXPORT ORDINAL="285" NAME="?GetIID@IButton@yui@@UAEABU_GUID@@XZ" PURGE="0" COMMENT="" />
    <EXPORT ORDINAL="286" NAME="?GetIID@ICombobox@yui@@UAEABU_GUID@@XZ" PURGE="0" COMMENT="" />
    <EXPORT ORDINAL="287" NAME="?GetIID@IControl@yui@@UAEABU_GUID@@XZ" PURGE="0" COMMENT="" />
    <EXPORT ORDINAL="288" NAME="?GetIID@IGrid@yui@@UAEABU_GUID@@XZ" PURGE="0" COMMENT="" />
    <EXPORT ORDINAL="289" NAME="?GetIID@IImage@yui@@UAEABU_GUID@@XZ" PURGE="0" COMMENT="" />
    <EXPORT ORDINAL="290" NAME="?GetIID@ISlider@yui@@UAEABU_GUID@@XZ" PURGE="0" COMMENT="" />
    <EXPORT ORDINAL="291" NAME="?GetIID@ITabControl@yui@@UAEABU_GUID@@XZ" PURGE="0" COMMENT="" />
    <EXPORT ORDINAL="292" NAME="?GetLayeredBgWindow@CLayoutPanel@yui@@UAEPAUHWND__@@HHPAU3@@Z" PURGE="12" COMMENT="" />
    <EXPORT ORDINAL="293" NAME="?GetLayoutEngine@yui@@YAPAVILayoutEngine@1@XZ" PURGE="0" COMMENT="" />
    <EXPORT ORDINAL="294" NAME="?GetLayoutObj@CScriptEventSource@yui@@UAEPAVILayoutObj@2@XZ" PURGE="0" COMMENT="" />
    <EXPORT ORDINAL="295" NAME="?GetLayoutParent@CLayoutObj@yui@@UAEPAVILayoutObj@2@XZ" PURGE="0" COMMENT="" />
    <EXPORT ORDINAL="296" NAME="?GetLayoutParent@CLayoutPanel@yui@@UAEPAVILayoutObj@2@XZ" PURGE="0" COMMENT="" />
    <EXPORT ORDINAL="297" NAME="?GetLineAdv@CPixelmapPtr@yui@@QBEJJ@Z" PURGE="4" COMMENT="" />
    <EXPORT ORDINAL="298" NAME="?GetLogFont@CFontPtr@@QBEHPAUtagLOGFONTW@@@Z" PURGE="4" COMMENT="" />
    <EXPORT ORDINAL="299" NAME="?GetMaxSize@CDimInfo@yui@@QBEHXZ" PURGE="0" COMMENT="" />
    <EXPORT ORDINAL="300" NAME="?GetMaxSizeForObject@CLayoutPanel@yui@@UAEHPAVILayoutObj@2@@Z" PURGE="4" COMMENT="" />
    <EXPORT ORDINAL="301" NAME="?GetMinSize@CDimInfo@yui@@QBEHXZ" PURGE="0" COMMENT="" />
    <EXPORT ORDINAL="302" NAME="?GetMinSize@CLayoutPanel@yui@@IAEHPAVCDimInfo@2@@Z" PURGE="4" COMMENT="" />
    <EXPORT ORDINAL="303" NAME="?GetName@CAttribs@yui@@UBEPB_WXZ" PURGE="0" COMMENT="" />
    <EXPORT ORDINAL="304" NAME="?GetObjectAt@CLayoutPanel@yui@@UAEPAVILayoutObj@2@H@Z" PURGE="4" COMMENT="" />
    <EXPORT ORDINAL="305" NAME="?GetObjectCount@CLayoutPanel@yui@@UAEHXZ" PURGE="0" COMMENT="" />
    <EXPORT ORDINAL="306" NAME="?GetParentHWND@CLayoutObj@yui@@UAEPAUHWND__@@XZ" PURGE="0" COMMENT="" />
    <EXPORT ORDINAL="307" NAME="?GetParentHWND@CLayoutPanel@yui@@UAEPAUHWND__@@XZ" PURGE="0" COMMENT="" />
    <EXPORT ORDINAL="308" NAME="?GetPixelPtr@CPixelmapPtr@yui@@QBEPAURGBA@2@JJ@Z" PURGE="8" COMMENT="" />
    <EXPORT ORDINAL="309" NAME="?GetPixelPtr@CPixelmapPtr@yui@@QBEPAURGBA@2@XZ" PURGE="0" COMMENT="" />
    <EXPORT ORDINAL="310" NAME="?GetPixelValue@CPixelmapPtr@yui@@QBEXJJAAURGBA@2@@Z" PURGE="12" COMMENT="" />
    <EXPORT ORDINAL="311" NAME="?GetPixelmap@CPixelmapPtr@yui@@QAEPAVCPixelmap@2@XZ" PURGE="0" COMMENT="" />
    <EXPORT ORDINAL="312" NAME="?GetRect@CPixelmapPtr@yui@@QBEXAAUtagRECT@@@Z" PURGE="4" COMMENT="" />
    <EXPORT ORDINAL="313" NAME="?GetRegion@CLayoutPanel@yui@@UAEPAUHRGN__@@XZ" PURGE="0" COMMENT="" />
    <EXPORT ORDINAL="314" NAME="?GetRelativePos@CLayoutObj@yui@@UAEXPAH0@Z" PURGE="8" COMMENT="" />
    <EXPORT ORDINAL="315" NAME="?GetRelativePos@CLayoutPanel@yui@@UAEXPAH0@Z" PURGE="8" COMMENT="" />
    <EXPORT ORDINAL="316" NAME="?GetResizeType@CDimInfo@yui@@QBE?AW4eResizeType@2@XZ" PURGE="0" COMMENT="" />
    <EXPORT ORDINAL="317" NAME="?GetResizeValue@CDimInfo@yui@@QBEHXZ" PURGE="0" COMMENT="" />
    <EXPORT ORDINAL="318" NAME="?GetSafeHandle@CFontPtr@@QBEPAXXZ" PURGE="0" COMMENT="" />
    <EXPORT ORDINAL="319" NAME="?GetScriptEngine@yui@@YAPAVIScriptEngine@1@XZ" PURGE="0" COMMENT="" />
    <EXPORT ORDINAL="320" NAME="?GetShowState@CLayoutObj@yui@@UAE?AW4eShowState@2@XZ" PURGE="0" COMMENT="" />
    <EXPORT ORDINAL="321" NAME="?GetShowState@CLayoutPanel@yui@@UAE?AW4eShowState@2@XZ" PURGE="0" COMMENT="" />
    <EXPORT ORDINAL="322" NAME="?GetStride@CPixelmapPtr@yui@@QBEJXZ" PURGE="0" COMMENT="" />
    <EXPORT ORDINAL="323" NAME="?GetTabOrder@CLayoutHWND@yui@@UAEIXZ" PURGE="0" COMMENT="" />
    <EXPORT ORDINAL="324" NAME="?GetTabOrder@CLayoutObj@yui@@UAEIXZ" PURGE="0" COMMENT="" />
    <EXPORT ORDINAL="325" NAME="?GetTabOrder@CLayoutPanel@yui@@UAEIXZ" PURGE="0" COMMENT="" />
    <EXPORT ORDINAL="326" NAME="?GetText@CLayoutHWND@yui@@UAEXAAV?$basic_string@_WU?$char_traits@_W@std@@V?$allocator@_W@2@@std@@@Z" PURGE="4" COMMENT="" />
    <EXPORT ORDINAL="327" NAME="?GetText@CLayoutObj@yui@@UAEXAAV?$basic_string@_WU?$char_traits@_W@std@@V?$allocator@_W@2@@std@@@Z" PURGE="4" COMMENT="" />
    <EXPORT ORDINAL="328" NAME="?GetTipText@CLayoutHWND@yui@@UAEXAAV?$basic_string@_WU?$char_traits@_W@std@@V?$allocator@_W@2@@std@@@Z" PURGE="4" COMMENT="" />
    <EXPORT ORDINAL="329" NAME="?GetTipText@CLayoutObj@yui@@UAEXAAV?$basic_string@_WU?$char_traits@_W@std@@V?$allocator@_W@2@@std@@@Z" PURGE="4" COMMENT="" />
    <EXPORT ORDINAL="330" NAME="?GetType@CLayoutObj@yui@@UAEPB_WXZ" PURGE="-1" COMMENT="" />
    <EXPORT ORDINAL="331" NAME="?GetType@CLayoutPanel@yui@@UAEPB_WXZ" PURGE="-1" COMMENT="" />
    <EXPORT ORDINAL="332" NAME="?GetTypeInterface@yui@@YAPAVIType@1@ABU_GUID@@PAVILayoutObj@1@@Z" PURGE="0" COMMENT="" />
    <EXPORT ORDINAL="333" NAME="?GetWidth@CPixelmapPtr@yui@@QBEJXZ" PURGE="0" COMMENT="" />
    <EXPORT ORDINAL="334" NAME="?HitTest@CLayoutObj@yui@@UAEPAVILayoutObj@2@HH@Z" PURGE="8" COMMENT="" />
    <EXPORT ORDINAL="335" NAME="?HitTest@CLayoutPanel@yui@@UAEPAVILayoutObj@2@HH@Z" PURGE="8" COMMENT="" />
    <EXPORT ORDINAL="336" NAME="?Insert@CLayoutPanel@yui@@UAEXPAVILayoutObj@2@H@Z" PURGE="8" COMMENT="" />
    <EXPORT ORDINAL="337" NAME="?InvalidateObj@CLayoutHWND@yui@@UAEX_N@Z" PURGE="4" COMMENT="" />
    <EXPORT ORDINAL="338" NAME="?InvalidateObj@CLayoutObj@yui@@UAEX_N@Z" PURGE="4" COMMENT="" />
    <EXPORT ORDINAL="339" NAME="?InvalidateObj@CLayoutPanel@yui@@UAEX_N@Z" PURGE="4" COMMENT="" />
    <EXPORT ORDINAL="340" NAME="?IsAnimationEnabled@yui@@YA_NXZ" PURGE="0" COMMENT="" />
    <EXPORT ORDINAL="341" NAME="?IsDIBSection@CPixelmapPtr@yui@@QBE_NXZ" PURGE="0" COMMENT="" />
    <EXPORT ORDINAL="342" NAME="?IsEmpty@CPixelmapPtr@yui@@QBE_NXZ" PURGE="0" COMMENT="" />
    <EXPORT ORDINAL="343" NAME="?IsEnabled@CLayoutHWND@yui@@UAE_NXZ" PURGE="0" COMMENT="" />
    <EXPORT ORDINAL="344" NAME="?IsEnabled@CLayoutObj@yui@@UAE_NXZ" PURGE="0" COMMENT="" />
    <EXPORT ORDINAL="345" NAME="?IsEnabled@CLayoutPanel@yui@@UAE_NXZ" PURGE="0" COMMENT="" />
    <EXPORT ORDINAL="346" NAME="?IsFocusable@CLayoutHWND@yui@@UAE_NXZ" PURGE="0" COMMENT="" />
    <EXPORT ORDINAL="347" NAME="?IsFocusable@CLayoutObj@yui@@UAE_NXZ" PURGE="0" COMMENT="" />
    <EXPORT ORDINAL="348" NAME="?IsFocusable@CLayoutPanel@yui@@UAE_NXZ" PURGE="0" COMMENT="" />
    <EXPORT ORDINAL="349" NAME="?IsMaxSizeInfinite@CDimInfo@yui@@QBE_NXZ" PURGE="0" COMMENT="" />
    <EXPORT ORDINAL="350" NAME="?IsOptional@CLayoutObj@yui@@UAE_NXZ" PURGE="0" COMMENT="" />
    <EXPORT ORDINAL="351" NAME="?IsOptional@CLayoutPanel@yui@@UAE_NXZ" PURGE="0" COMMENT="" />
    <EXPORT ORDINAL="352" NAME="?IsScrollingEnabled@yui@@YA_NXZ" PURGE="0" COMMENT="" />
    <EXPORT ORDINAL="353" NAME="?Layout@CLayoutHWND@yui@@UAEXXZ" PURGE="0" COMMENT="" />
    <EXPORT ORDINAL="354" NAME="?Layout@CLayoutObj@yui@@UAEXXZ" PURGE="0" COMMENT="" />
    <EXPORT ORDINAL="355" NAME="?Layout@CLayoutPanel@yui@@UAEXXZ" PURGE="0" COMMENT="" />
    <EXPORT ORDINAL="356" NAME="?LoadImageW@CPixelmapPtr@yui@@QAE_NABV?$basic_string@_WU?$char_traits@_W@std@@V?$allocator@_W@2@@std@@_N@Z" PURGE="8" COMMENT="" />
    <EXPORT ORDINAL="357" NAME="?Move@CLayoutPanel@yui@@UAE_NPAVILayoutObj@2@0_N@Z" PURGE="12" COMMENT="" />
    <EXPORT ORDINAL="358" NAME="?NeedsRedrawn@CLayoutObj@yui@@MAE_NPBUtagRECT@@0@Z" PURGE="8" COMMENT="" />
    <EXPORT ORDINAL="359" NAME="?NeedsRedrawn@CLayoutPanel@yui@@MAE_NPBUtagRECT@@0@Z" PURGE="8" COMMENT="" />
    <EXPORT ORDINAL="360" NAME="?NotifyChildChanged@CLayoutObj@yui@@MAEXXZ" PURGE="0" COMMENT="" />
    <EXPORT ORDINAL="361" NAME="?NotifyChildChanged@CLayoutPanel@yui@@MAEXXZ" PURGE="0" COMMENT="" />
    <EXPORT ORDINAL="362" NAME="?NotifyChildDestroyed@CLayoutObj@yui@@MAEXXZ" PURGE="0" COMMENT="" />
    <EXPORT ORDINAL="363" NAME="?NotifyChildDestroyed@CLayoutPanel@yui@@MAEXXZ" PURGE="0" COMMENT="" />
    <EXPORT ORDINAL="364" NAME="?OnAnimationStart@_IControlEventsImpl@yui@@UAEXPB_WH@Z" PURGE="8" COMMENT="" />
    <EXPORT ORDINAL="365" NAME="?OnAnimationStop@_IControlEventsImpl@yui@@UAEXPB_WH@Z" PURGE="8" COMMENT="" />
    <EXPORT ORDINAL="366" NAME="?OnButtonToggled@_IControlEventsImpl@yui@@UAEXPB_W_N@Z" PURGE="8" COMMENT="" />
    <EXPORT ORDINAL="367" NAME="?OnChar@_IControlEventsImpl@yui@@UAEXPB_WH@Z" PURGE="8" COMMENT="" />
    <EXPORT ORDINAL="368" NAME="?OnChildChanged@CLayoutPanel@yui@@UAEXPAVILayoutObj@2@@Z" PURGE="4" COMMENT="" />
    <EXPORT ORDINAL="369" NAME="?OnChildDestroyed@CLayoutPanel@yui@@UAEXPAVILayoutObj@2@@Z" PURGE="4" COMMENT="" />
    <EXPORT ORDINAL="370" NAME="?OnClick@_IControlEventsImpl@yui@@UAEXPB_W@Z" PURGE="4" COMMENT="" />
    <EXPORT ORDINAL="371" NAME="?OnClick@_IControlEventsImpl@yui@@UAEXPB_WHH@Z" PURGE="12" COMMENT="" />
    <EXPORT ORDINAL="372" NAME="?OnColumnOrderChanged@_IControlEventsImpl@yui@@UAEXPB_W@Z" PURGE="4" COMMENT="" />
    <EXPORT ORDINAL="373" NAME="?OnColumnWidthChanged@_IControlEventsImpl@yui@@UAEXPB_WHH@Z" PURGE="12" COMMENT="" />
    <EXPORT ORDINAL="374" NAME="?OnDblClick@_IControlEventsImpl@yui@@UAEXPB_W@Z" PURGE="4" COMMENT="" />
    <EXPORT ORDINAL="375" NAME="?OnEnter@_IControlEventsImpl@yui@@UAEXPB_W@Z" PURGE="4" COMMENT="" />
    <EXPORT ORDINAL="376" NAME="?OnKeyDown@_IControlEventsImpl@yui@@UAEXPB_WHII@Z" PURGE="16" COMMENT="" />
    <EXPORT ORDINAL="377" NAME="?OnKeyUp@_IControlEventsImpl@yui@@UAEXPB_WHII@Z" PURGE="16" COMMENT="" />
    <EXPORT ORDINAL="378" NAME="?OnKillFocus@_IControlEventsImpl@yui@@UAEXPB_W@Z" PURGE="4" COMMENT="" />
    <EXPORT ORDINAL="379" NAME="?OnLButtonDblClick@IMouseInputImpl@yui@@UAEXHH@Z" PURGE="8" COMMENT="" />
    <EXPORT ORDINAL="380" NAME="?OnLButtonDown@IMouseInputImpl@yui@@UAEXHH@Z" PURGE="8" COMMENT="" />
    <EXPORT ORDINAL="381" NAME="?OnLButtonDown@_IControlEventsImpl@yui@@UAEXPB_W@Z" PURGE="4" COMMENT="" />
    <EXPORT ORDINAL="382" NAME="?OnLButtonUp@IMouseInputImpl@yui@@UAEXHH@Z" PURGE="8" COMMENT="" />
    <EXPORT ORDINAL="383" NAME="?OnLButtonUp@_IControlEventsImpl@yui@@UAEXPB_W@Z" PURGE="4" COMMENT="" />
    <EXPORT ORDINAL="384" NAME="?OnLoadedSection@_IControlEventsImpl@yui@@UAEXPAVILayoutObj@2@@Z" PURGE="4" COMMENT="" />
    <EXPORT ORDINAL="385" NAME="?OnMButtonDblClick@IMouseInputImpl@yui@@UAEXHH@Z" PURGE="8" COMMENT="" />
    <EXPORT ORDINAL="386" NAME="?OnMButtonDown@IMouseInputImpl@yui@@UAEXHH@Z" PURGE="8" COMMENT="" />
    <EXPORT ORDINAL="387" NAME="?OnMButtonUp@IMouseInputImpl@yui@@UAEXHH@Z" PURGE="8" COMMENT="" />
    <EXPORT ORDINAL="388" NAME="?OnMouseEnter@IMouseInputImpl@yui@@UAEXHH@Z" PURGE="8" COMMENT="" />
    <EXPORT ORDINAL="389" NAME="?OnMouseEnter@_IControlEventsImpl@yui@@UAEXPB_W@Z" PURGE="4" COMMENT="" />
    <EXPORT ORDINAL="390" NAME="?OnMouseHover@IMouseInputImpl@yui@@UAEXHH@Z" PURGE="8" COMMENT="" />
    <EXPORT ORDINAL="391" NAME="?OnMouseLeave@IMouseInputImpl@yui@@UAEXXZ" PURGE="0" COMMENT="" />
    <EXPORT ORDINAL="392" NAME="?OnMouseLeave@_IControlEventsImpl@yui@@UAEXPB_W@Z" PURGE="4" COMMENT="" />
    <EXPORT ORDINAL="393" NAME="?OnMouseMove@IMouseInputImpl@yui@@UAEXHH@Z" PURGE="8" COMMENT="" />
    <EXPORT ORDINAL="394" NAME="?OnMouseWheel@IMouseInputImpl@yui@@UAEXHHH@Z" PURGE="12" COMMENT="" />
    <EXPORT ORDINAL="395" NAME="?OnPosChanged@_IControlEventsImpl@yui@@UAEXPB_WHHH@Z" PURGE="16" COMMENT="" />
    <EXPORT ORDINAL="396" NAME="?OnPosChanging@_IControlEventsImpl@yui@@UAEXPB_WHHH@Z" PURGE="16" COMMENT="" />
    <EXPORT ORDINAL="397" NAME="?OnRButtonDblClick@IMouseInputImpl@yui@@UAEXHH@Z" PURGE="8" COMMENT="" />
    <EXPORT ORDINAL="398" NAME="?OnRButtonDown@IMouseInputImpl@yui@@UAEXHH@Z" PURGE="8" COMMENT="" />
    <EXPORT ORDINAL="399" NAME="?OnRButtonUp@IMouseInputImpl@yui@@UAEXHH@Z" PURGE="8" COMMENT="" />
    <EXPORT ORDINAL="400" NAME="?OnRClick@_IControlEventsImpl@yui@@UAEXPB_W@Z" PURGE="4" COMMENT="" />
    <EXPORT ORDINAL="401" NAME="?OnScrollPosChanged@_IControlEventsImpl@yui@@UAEXPB_W_N@Z" PURGE="8" COMMENT="" />
    <EXPORT ORDINAL="402" NAME="?OnSelChanged@_IControlEventsImpl@yui@@UAEXPB_W@Z" PURGE="4" COMMENT="" />
    <EXPORT ORDINAL="403" NAME="?OnSetCursor@IMouseInputImpl@yui@@UAEHHH@Z" PURGE="8" COMMENT="" />
    <EXPORT ORDINAL="404" NAME="?OnSetFocus@_IControlEventsImpl@yui@@UAEXPB_W@Z" PURGE="4" COMMENT="" />
    <EXPORT ORDINAL="405" NAME="?OnSetText@_IControlEventsImpl@yui@@UAEXPB_W0@Z" PURGE="8" COMMENT="" />
    <EXPORT ORDINAL="406" NAME="?OnSkinChange@_IControlEventsImpl@yui@@UAEXPB_W@Z" PURGE="4" COMMENT="" />
    <EXPORT ORDINAL="407" NAME="?OnSkinLoaded@CLayoutHWND@yui@@UAEXXZ" PURGE="0" COMMENT="" />
    <EXPORT ORDINAL="408" NAME="?OnSkinLoaded@CLayoutObj@yui@@UAEXXZ" PURGE="0" COMMENT="" />
    <EXPORT ORDINAL="409" NAME="?OnSkinLoaded@CLayoutPanel@yui@@UAEXXZ" PURGE="0" COMMENT="" />
    <EXPORT ORDINAL="410" NAME="?OnTextChanging@_IControlEventsImpl@yui@@UAEXPB_W0@Z" PURGE="8" COMMENT="" />
    <EXPORT ORDINAL="411" NAME="?OnUnloadingSection@_IControlEventsImpl@yui@@UAEXPAVILayoutObj@2@@Z" PURGE="4" COMMENT="" />
    <EXPORT ORDINAL="412" NAME="?OnValueChanged@_IControlEventsImpl@yui@@UAEXPB_WJJ00@Z" PURGE="20" COMMENT="" />
    <EXPORT ORDINAL="413" NAME="?OnValueChanging@_IControlEventsImpl@yui@@UAEXPB_WJJ00PA_N@Z" PURGE="24" COMMENT="" />
    <EXPORT ORDINAL="414" NAME="?ReleaseCaptureObj@CLayoutHWND@yui@@UAEXXZ" PURGE="-1" COMMENT="" />
    <EXPORT ORDINAL="415" NAME="?ReleaseCaptureObj@CLayoutObj@yui@@UAEXXZ" PURGE="0" COMMENT="" />
    <EXPORT ORDINAL="416" NAME="?ReleaseCaptureObj@CLayoutPanel@yui@@UAEXXZ" PURGE="0" COMMENT="" />
    <EXPORT ORDINAL="417" NAME="?Remove@CLayoutPanel@yui@@UAE_NAAPAVILayoutObj@2@@Z" PURGE="4" COMMENT="" />
    <EXPORT ORDINAL="418" NAME="?Remove@CLayoutPanel@yui@@UAE_NPB_W@Z" PURGE="4" COMMENT="" />
    <EXPORT ORDINAL="419" NAME="?Remove@CScriptEventSource@yui@@UAE_NAAPAVIScriptEvent@2@_N@Z" PURGE="8" COMMENT="" />
    <EXPORT ORDINAL="420" NAME="?RemoveAll@CLayoutPanel@yui@@UAEXXZ" PURGE="0" COMMENT="" />
    <EXPORT ORDINAL="421" NAME="?RemoveAttribute@CAttribs@yui@@UAE_NPB_W@Z" PURGE="4" COMMENT="" />
    <EXPORT ORDINAL="422" NAME="?RemoveFocus@CLayoutHWND@yui@@UAEXXZ" PURGE="0" COMMENT="" />
    <EXPORT ORDINAL="423" NAME="?RemoveFocus@CLayoutObj@yui@@UAEXXZ" PURGE="0" COMMENT="" />
    <EXPORT ORDINAL="424" NAME="?RemoveFocus@CLayoutPanel@yui@@UAEXXZ" PURGE="0" COMMENT="" />
    <EXPORT ORDINAL="425" NAME="?Render@CLayoutHWND@yui@@UAEXPAUHDC__@@PBUtagRECT@@@Z" PURGE="8" COMMENT="" />
    <EXPORT ORDINAL="426" NAME="?Render@CLayoutObj@yui@@UAEXPAUHDC__@@PBUtagRECT@@@Z" PURGE="8" COMMENT="" />
    <EXPORT ORDINAL="427" NAME="?Render@CLayoutPanel@yui@@UAEXPAUHDC__@@PBUtagRECT@@@Z" PURGE="8" COMMENT="" />
    <EXPORT ORDINAL="428" NAME="?ResolveRGBA@CAttribs@yui@@SA_NPB_WAAURGBA@2@@Z" PURGE="0" COMMENT="" />
    <EXPORT ORDINAL="429" NAME="?SaveAttributes@CLayoutObj@yui@@UAEXAAVIAttribs@2@@Z" PURGE="4" COMMENT="" />
    <EXPORT ORDINAL="430" NAME="?SaveAttributes@CLayoutPanel@yui@@UAEXAAVIAttribs@2@@Z" PURGE="4" COMMENT="" />
    <EXPORT ORDINAL="431" NAME="?SaveLayoutAttrs@CAttribs@yui@@UAEXPAVILayoutObj@2@@Z" PURGE="4" COMMENT="" />
    <EXPORT ORDINAL="432" NAME="?SetAccessibleLayoutObj@CLayoutHWND@yui@@UAEXPAVIAccessibleLayoutObj@2@@Z" PURGE="4" COMMENT="" />
    <EXPORT ORDINAL="433" NAME="?SetAccessibleLayoutObj@CLayoutObj@yui@@UAEXPAVIAccessibleLayoutObj@2@@Z" PURGE="4" COMMENT="" />
    <EXPORT ORDINAL="434" NAME="?SetAccessibleLayoutObj@CLayoutPanel@yui@@UAEXPAVIAccessibleLayoutObj@2@@Z" PURGE="4" COMMENT="" />
    <EXPORT ORDINAL="435" NAME="?SetAlignment@CAttribs@yui@@UAEXPB_WW4eAlignment@2@@Z" PURGE="8" COMMENT="" />
    <EXPORT ORDINAL="436" NAME="?SetAlignment@CDimInfo@yui@@QAEXW4eAlignment@2@@Z" PURGE="4" COMMENT="" />
    <EXPORT ORDINAL="437" NAME="?SetAlignment@CLayoutObj@yui@@UAEXW4eAlignment@2@0@Z" PURGE="8" COMMENT="" />
    <EXPORT ORDINAL="438" NAME="?SetAlignment@CLayoutPanel@yui@@UAEXW4eAlignment@2@0@Z" PURGE="8" COMMENT="" />
    <EXPORT ORDINAL="439" NAME="?SetAlpha@CLayoutObj@yui@@UAEXE@Z" PURGE="4" COMMENT="" />
    <EXPORT ORDINAL="440" NAME="?SetAlpha@CLayoutPanel@yui@@UAEXE@Z" PURGE="4" COMMENT="" />
    <EXPORT ORDINAL="441" NAME="?SetAlphaLimit@CLayoutObj@yui@@UAEXE@Z" PURGE="4" COMMENT="" />
    <EXPORT ORDINAL="442" NAME="?SetAlphaLimit@CLayoutPanel@yui@@UAEXE@Z" PURGE="4" COMMENT="" />
    <EXPORT ORDINAL="443" NAME="?SetAttributes@CLayoutHWND@yui@@MAEXABVIAttribs@2@_N@Z" PURGE="8" COMMENT="" />
    <EXPORT ORDINAL="444" NAME="?SetAttributes@CLayoutObj@yui@@MAEXABVIAttribs@2@_N@Z" PURGE="8" COMMENT="" />
    <EXPORT ORDINAL="445" NAME="?SetAttributes@CLayoutObj@yui@@UAEXABVIAttribs@2@@Z" PURGE="4" COMMENT="" />
    <EXPORT ORDINAL="446" NAME="?SetAttributes@CLayoutPanel@yui@@MAEXABVIAttribs@2@_N@Z" PURGE="8" COMMENT="" />
    <EXPORT ORDINAL="447" NAME="?SetAttributes@CLayoutPanel@yui@@UAEXABVIAttribs@2@@Z" PURGE="4" COMMENT="" />
    <EXPORT ORDINAL="448" NAME="?SetBackColor@CLayoutPanel@yui@@MAEXK@Z" PURGE="4" COMMENT="" />
    <EXPORT ORDINAL="449" NAME="?SetBackImage@CLayoutPanel@yui@@MAEXPB_WABUtagRECT@@_N@Z" PURGE="12" COMMENT="" />
    <EXPORT ORDINAL="450" NAME="?SetBackImage@CLayoutPanel@yui@@UAEXPB_W@Z" PURGE="4" COMMENT="" />
    <EXPORT ORDINAL="451" NAME="?SetBool@CAttribs@yui@@UAEXPB_W_N@Z" PURGE="8" COMMENT="" />
    <EXPORT ORDINAL="452" NAME="?SetCallback@CScriptEventSource@yui@@UAEXPAV_IControlEvents@2@@Z" PURGE="4" COMMENT="" />
    <EXPORT ORDINAL="453" NAME="?SetCaptureObj@CLayoutHWND@yui@@UAEPAVILayoutObj@2@XZ" PURGE="0" COMMENT="" />
    <EXPORT ORDINAL="454" NAME="?SetCaptureObj@CLayoutObj@yui@@UAEPAVILayoutObj@2@XZ" PURGE="0" COMMENT="" />
    <EXPORT ORDINAL="455" NAME="?SetCaptureObj@CLayoutPanel@yui@@UAEPAVILayoutObj@2@XZ" PURGE="0" COMMENT="" />
    <EXPORT ORDINAL="456" NAME="?SetChildID@CLayoutObj@yui@@UAEXI@Z" PURGE="4" COMMENT="" />
    <EXPORT ORDINAL="457" NAME="?SetChildID@CLayoutPanel@yui@@UAEXI@Z" PURGE="4" COMMENT="" />
    <EXPORT ORDINAL="458" NAME="?SetClipMode@CLayoutObj@yui@@UAEXW4eClipMode@2@@Z" PURGE="4" COMMENT="" />
    <EXPORT ORDINAL="459" NAME="?SetClipMode@CLayoutPanel@yui@@UAEXW4eClipMode@2@@Z" PURGE="4" COMMENT="" />
    <EXPORT ORDINAL="460" NAME="?SetColor@CAttribs@yui@@UAEXPB_WABK@Z" PURGE="8" COMMENT="" />
    <EXPORT ORDINAL="461" NAME="?SetControlFactory@CLayoutHWND@yui@@QAEXPAV_ICustomControlFactory@2@@Z" PURGE="4" COMMENT="" />
    <EXPORT ORDINAL="462" NAME="?SetCurrentPos@CDimInfo@yui@@QAEXH@Z" PURGE="4" COMMENT="" />
    <EXPORT ORDINAL="463" NAME="?SetCurrentPos@CLayoutHWND@yui@@UAEXHH@Z" PURGE="8" COMMENT="" />
    <EXPORT ORDINAL="464" NAME="?SetCurrentPos@CLayoutObj@yui@@UAEXHH@Z" PURGE="8" COMMENT="" />
    <EXPORT ORDINAL="465" NAME="?SetCurrentPos@CLayoutPanel@yui@@UAEXHH@Z" PURGE="8" COMMENT="" />
    <EXPORT ORDINAL="466" NAME="?SetCurrentRect@CLayoutHWND@yui@@UAE_NHHHH@Z" PURGE="16" COMMENT="" />
    <EXPORT ORDINAL="467" NAME="?SetCurrentRect@CLayoutObj@yui@@UAE_NHHHH@Z" PURGE="16" COMMENT="" />
    <EXPORT ORDINAL="468" NAME="?SetCurrentRect@CLayoutPanel@yui@@UAE_NHHHH@Z" PURGE="16" COMMENT="" />
    <EXPORT ORDINAL="469" NAME="?SetCurrentSize@CDimInfo@yui@@QAEXH@Z" PURGE="4" COMMENT="" />
    <EXPORT ORDINAL="470" NAME="?SetCurrentSize@CLayoutHWND@yui@@UAE_NHH@Z" PURGE="8" COMMENT="" />
    <EXPORT ORDINAL="471" NAME="?SetCurrentSize@CLayoutObj@yui@@UAE_NHH@Z" PURGE="8" COMMENT="" />
    <EXPORT ORDINAL="472" NAME="?SetCurrentSize@CLayoutPanel@yui@@UAE_NHH@Z" PURGE="8" COMMENT="" />
    <EXPORT ORDINAL="473" NAME="?SetDisplayOptions@yui@@YAX_N0@Z" PURGE="0" COMMENT="" />
    <EXPORT ORDINAL="474" NAME="?SetDockPosition@CAttribs@yui@@UAEXPB_WW4eDockPosition@2@@Z" PURGE="8" COMMENT="" />
    <EXPORT ORDINAL="475" NAME="?SetDockPosition@CLayoutObj@yui@@UAEXW4eDockPosition@2@@Z" PURGE="4" COMMENT="" />
    <EXPORT ORDINAL="476" NAME="?SetDockPosition@CLayoutPanel@yui@@UAEXW4eDockPosition@2@@Z" PURGE="4" COMMENT="" />
    <EXPORT ORDINAL="477" NAME="?SetFile@CAttribs@yui@@UAEXPB_WABV?$basic_string@_WU?$char_traits@_W@std@@V?$allocator@_W@2@@std@@@Z" PURGE="-1" COMMENT="" />
    <EXPORT ORDINAL="478" NAME="?SetFilePath@CAttribs@yui@@UAEXPB_W0@Z" PURGE="8" COMMENT="" />
    <EXPORT ORDINAL="479" NAME="?SetFixedSize@CLayoutObj@yui@@UAEXHH@Z" PURGE="8" COMMENT="" />
    <EXPORT ORDINAL="480" NAME="?SetFixedSize@CLayoutPanel@yui@@UAEXHH@Z" PURGE="8" COMMENT="" />
    <EXPORT ORDINAL="481" NAME="?SetFloat@CAttribs@yui@@UAEXPB_WN@Z" PURGE="12" COMMENT="" />
    <EXPORT ORDINAL="482" NAME="?SetFocus@CLayoutHWND@yui@@UAEXXZ" PURGE="0" COMMENT="" />
    <EXPORT ORDINAL="483" NAME="?SetFocus@CLayoutObj@yui@@UAEXXZ" PURGE="0" COMMENT="" />
    <EXPORT ORDINAL="484" NAME="?SetFocus@CLayoutPanel@yui@@UAEXXZ" PURGE="0" COMMENT="" />
    <EXPORT ORDINAL="485" NAME="?SetFont@CAttribs@yui@@UAEXPB_WABUtagLOGFONTW@@@Z" PURGE="8" COMMENT="" />
    <EXPORT ORDINAL="486" NAME="?SetFont@CLayoutHWND@yui@@IAEXPBUtagLOGFONTW@@@Z" PURGE="4" COMMENT="" />
    <EXPORT ORDINAL="487" NAME="?SetFont@CLayoutObj@yui@@UAE_NPB_W@Z" PURGE="4" COMMENT="" />
    <EXPORT ORDINAL="488" NAME="?SetFont@CLayoutPanel@yui@@UAE_NPB_W@Z" PURGE="4" COMMENT="" />
    <EXPORT ORDINAL="489" NAME="?SetHiddenByPanel@CLayoutHWND@yui@@UAEX_N0@Z" PURGE="8" COMMENT="" />
    <EXPORT ORDINAL="490" NAME="?SetHiddenByPanel@CLayoutObj@yui@@UAEX_N0@Z" PURGE="8" COMMENT="" />
    <EXPORT ORDINAL="491" NAME="?SetHiddenByPanel@CLayoutPanel@yui@@UAEX_N0@Z" PURGE="8" COMMENT="" />
    <EXPORT ORDINAL="492" NAME="?SetHitTestImage@CLayoutObj@yui@@IAEXPB_W@Z" PURGE="4" COMMENT="" />
    <EXPORT ORDINAL="493" NAME="?SetIControlCustomDraw@CLayoutObj@yui@@UAEXPAV_IControlCustomDraw@2@@Z" PURGE="4" COMMENT="" />
    <EXPORT ORDINAL="494" NAME="?SetIControlCustomDraw@CLayoutPanel@yui@@UAEXPAV_IControlCustomDraw@2@@Z" PURGE="4" COMMENT="" />
    <EXPORT ORDINAL="495" NAME="?SetID@CLayoutObj@yui@@UAEXPB_W@Z" PURGE="4" COMMENT="" />
    <EXPORT ORDINAL="496" NAME="?SetID@CLayoutPanel@yui@@UAEXPB_W@Z" PURGE="4" COMMENT="" />
    <EXPORT ORDINAL="497" NAME="?SetLayoutAttrs@CAttribs@yui@@UBEXPAVILayoutObj@2@@Z" PURGE="4" COMMENT="" />
    <EXPORT ORDINAL="498" NAME="?SetLayoutHWND@CLayoutHWND@yui@@UAEXPAUHWND__@@@Z" PURGE="4" COMMENT="" />
    <EXPORT ORDINAL="499" NAME="?SetLayoutObj@CScriptEventSource@yui@@UAEXPAVILayoutObj@2@@Z" PURGE="4" COMMENT="" />
    <EXPORT ORDINAL="500" NAME="?SetLayoutParent@CLayoutObj@yui@@UAEXPAVILayoutObj@2@@Z" PURGE="4" COMMENT="" />
    <EXPORT ORDINAL="501" NAME="?SetLayoutParent@CLayoutPanel@yui@@UAEXPAVILayoutObj@2@@Z" PURGE="4" COMMENT="" />
    <EXPORT ORDINAL="502" NAME="?SetLong@CAttribs@yui@@UAEXPB_WJ@Z" PURGE="8" COMMENT="" />
    <EXPORT ORDINAL="503" NAME="?SetMaxSize@CDimInfo@yui@@QAEXH@Z" PURGE="4" COMMENT="" />
    <EXPORT ORDINAL="504" NAME="?SetMinSize@CDimInfo@yui@@QAEXH@Z" PURGE="4" COMMENT="" />
    <EXPORT ORDINAL="505" NAME="?SetMinSize@CLayoutObj@yui@@UAEXHH@Z" PURGE="8" COMMENT="" />
    <EXPORT ORDINAL="506" NAME="?SetMinSize@CLayoutPanel@yui@@UAEXHH@Z" PURGE="8" COMMENT="" />
    <EXPORT ORDINAL="507" NAME="?SetName@CAttribs@yui@@UAEXPB_W@Z" PURGE="4" COMMENT="" />
    <EXPORT ORDINAL="508" NAME="?SetOptional@CLayoutObj@yui@@UAEX_N@Z" PURGE="4" COMMENT="" />
    <EXPORT ORDINAL="509" NAME="?SetOptional@CLayoutPanel@yui@@UAEX_N@Z" PURGE="4" COMMENT="" />
    <EXPORT ORDINAL="510" NAME="?SetParentHWND@CLayoutHWND@yui@@UAEXPAUHWND__@@@Z" PURGE="4" COMMENT="" />
    <EXPORT ORDINAL="511" NAME="?SetParentHWND@CLayoutObj@yui@@UAEXPAUHWND__@@@Z" PURGE="4" COMMENT="" />
    <EXPORT ORDINAL="512" NAME="?SetParentHWND@CLayoutPanel@yui@@UAEXPAUHWND__@@@Z" PURGE="4" COMMENT="" />
    <EXPORT ORDINAL="513" NAME="?SetPercentSize@CLayoutObj@yui@@UAEXHH@Z" PURGE="8" COMMENT="" />
    <EXPORT ORDINAL="514" NAME="?SetPercentSize@CLayoutPanel@yui@@UAEXHH@Z" PURGE="8" COMMENT="" />
    <EXPORT ORDINAL="515" NAME="?SetRGBA@CAttribs@yui@@UAEXPB_WABURGBA@2@@Z" PURGE="8" COMMENT="" />
    <EXPORT ORDINAL="516" NAME="?SetRect@CAttribs@yui@@UAEXPB_WABUtagRECT@@@Z" PURGE="8" COMMENT="" />
    <EXPORT ORDINAL="517" NAME="?SetRedraw@CLayoutHWND@yui@@UAEX_N@Z" PURGE="4" COMMENT="" />
    <EXPORT ORDINAL="518" NAME="?SetRedraw@CLayoutObj@yui@@UAEX_N@Z" PURGE="4" COMMENT="" />
    <EXPORT ORDINAL="519" NAME="?SetRedraw@CLayoutPanel@yui@@UAEX_N@Z" PURGE="4" COMMENT="" />
    <EXPORT ORDINAL="520" NAME="?SetRelativePos@CLayoutObj@yui@@UAEXHH@Z" PURGE="8" COMMENT="" />
    <EXPORT ORDINAL="521" NAME="?SetRelativePos@CLayoutPanel@yui@@UAEXHH@Z" PURGE="8" COMMENT="" />
    <EXPORT ORDINAL="522" NAME="?SetResizeInfo@CAttribs@yui@@UAEXPB_WABURESIZEINFO@2@@Z" PURGE="8" COMMENT="" />
    <EXPORT ORDINAL="523" NAME="?SetResizeInfo@CDimInfo@yui@@QAEXABURESIZEINFO@2@@Z" PURGE="4" COMMENT="" />
    <EXPORT ORDINAL="524" NAME="?SetResizeInfo@CDimInfo@yui@@QAEXW4eResizeType@2@H@Z" PURGE="8" COMMENT="" />
    <EXPORT ORDINAL="525" NAME="?SetResizeValue@CDimInfo@yui@@QAEXH@Z" PURGE="4" COMMENT="" />
    <EXPORT ORDINAL="526" NAME="?SetResourceHandle@yui@@YAXPAUHINSTANCE__@@@Z" PURGE="0" COMMENT="" />
    <EXPORT ORDINAL="527" NAME="?SetShowState@CLayoutHWND@yui@@UAEXW4eShowState@2@@Z" PURGE="4" COMMENT="" />
    <EXPORT ORDINAL="528" NAME="?SetShowState@CLayoutObj@yui@@UAEXW4eShowState@2@@Z" PURGE="4" COMMENT="" />
    <EXPORT ORDINAL="529" NAME="?SetShowState@CLayoutPanel@yui@@UAEXW4eShowState@2@@Z" PURGE="4" COMMENT="" />
    <EXPORT ORDINAL="530" NAME="?SetSkinnedGlobals@CAttribs@yui@@UAEXPAVCSkinnedGlobals@@@Z" PURGE="4" COMMENT="" />
    <EXPORT ORDINAL="531" NAME="?SetSplitter@CLayoutPanel@yui@@UAEX_N@Z" PURGE="4" COMMENT="" />
    <EXPORT ORDINAL="532" NAME="?SetString@CAttribs@yui@@UAEXPB_WABV?$basic_string@_WU?$char_traits@_W@std@@V?$allocator@_W@2@@std@@@Z" PURGE="8" COMMENT="" />
    <EXPORT ORDINAL="533" NAME="?SetText@CLayoutHWND@yui@@UAEXPB_W@Z" PURGE="4" COMMENT="" />
    <EXPORT ORDINAL="534" NAME="?SetText@CLayoutObj@yui@@UAEXPB_W@Z" PURGE="4" COMMENT="" />
    <EXPORT ORDINAL="535" NAME="?SetTextColor@CLayoutObj@yui@@UAEXPB_W@Z" PURGE="4" COMMENT="" />
    <EXPORT ORDINAL="536" NAME="?SetTextColor@CLayoutPanel@yui@@UAEXPB_W@Z" PURGE="4" COMMENT="" />
    <EXPORT ORDINAL="537" NAME="?SetTipText@CLayoutHWND@yui@@UAEXPB_W@Z" PURGE="4" COMMENT="" />
    <EXPORT ORDINAL="538" NAME="?SetTipText@CLayoutObj@yui@@UAEXPB_W@Z" PURGE="4" COMMENT="" />
    <EXPORT ORDINAL="539" NAME="?SetType@CLayoutObj@yui@@UAEXPB_W@Z" PURGE="4" COMMENT="" />
    <EXPORT ORDINAL="540" NAME="?SetType@CLayoutPanel@yui@@UAEXPB_W@Z" PURGE="4" COMMENT="" />
    <EXPORT ORDINAL="541" NAME="?ShutDown@yui@@YAXXZ" PURGE="0" COMMENT="" />
    <EXPORT ORDINAL="542" NAME="?SizeToContent@CLayoutObj@yui@@MAEXXZ" PURGE="0" COMMENT="" />
    <EXPORT ORDINAL="543" NAME="?TabHandler@CLayoutHWND@yui@@UAE_NXZ" PURGE="0" COMMENT="" />
    <EXPORT ORDINAL="544" NAME="?TabHandler@CLayoutObj@yui@@UAE_NXZ" PURGE="0" COMMENT="" />
    <EXPORT ORDINAL="545" NAME="?TabHandler@CLayoutPanel@yui@@UAE_NXZ" PURGE="0" COMMENT="" />
    <EXPORT ORDINAL="546" NAME="?TipTracksMouse@IMouseInputImpl@yui@@UAE_NXZ" PURGE="0" COMMENT="" />
    <EXPORT ORDINAL="547" NAME="?ToAlignment@CAttribs@yui@@ABE?AW4eAlignment@2@PB_W@Z" PURGE="4" COMMENT="" />
    <EXPORT ORDINAL="548" NAME="?ToClipMode@CAttribs@yui@@SA?AW4eClipMode@2@PB_W@Z" PURGE="0" COMMENT="" />
    <EXPORT ORDINAL="549" NAME="?ToColor@CAttribs@yui@@CAKPA_W@Z" PURGE="0" COMMENT="" />
    <EXPORT ORDINAL="550" NAME="?ToColor@CAttribs@yui@@SAKPB_W@Z" PURGE="0" COMMENT="" />
    <EXPORT ORDINAL="551" NAME="?ToDockPosition@CAttribs@yui@@ABE?AW4eDockPosition@2@PB_W@Z" PURGE="4" COMMENT="" />
    <EXPORT ORDINAL="552" NAME="?ToFontWeight@CAttribs@yui@@SAHPB_W@Z" PURGE="0" COMMENT="" />
    <EXPORT ORDINAL="553" NAME="?ToLogFont@CAttribs@yui@@CAXPA_WPAUtagLOGFONTW@@@Z" PURGE="0" COMMENT="" />
    <EXPORT ORDINAL="554" NAME="?ToLogFont@CAttribs@yui@@SAXPB_WPAUtagLOGFONTW@@@Z" PURGE="0" COMMENT="" />
    <EXPORT ORDINAL="555" NAME="?ToLongVector@CAttribs@yui@@CAXPA_WPAV?$vector@JV?$allocator@J@std@@@std@@@Z" PURGE="0" COMMENT="" />
    <EXPORT ORDINAL="556" NAME="?ToRGBA@CAttribs@yui@@CA_NPA_WAAURGBA@2@@Z" PURGE="0" COMMENT="" />
    <EXPORT ORDINAL="557" NAME="?ToRGBA@CAttribs@yui@@SA_NPB_WAAURGBA@2@@Z" PURGE="0" COMMENT="" />
    <EXPORT ORDINAL="558" NAME="?ToRect@CAttribs@yui@@CAXPA_WPAUtagRECT@@@Z" PURGE="0" COMMENT="" />
    <EXPORT ORDINAL="559" NAME="?ToResizeInfo@CAttribs@yui@@CAXPA_WPAURESIZEINFO@2@@Z" PURGE="0" COMMENT="" />
    <EXPORT ORDINAL="560" NAME="?ToShowState@CAttribs@yui@@ABE?AW4eShowState@2@PB_W@Z" PURGE="4" COMMENT="" />
    <EXPORT ORDINAL="561" NAME="?ToStringVector@CAttribs@yui@@CAXPA_WPAV?$vector@V?$basic_string@_WU?$char_traits@_W@std@@V?$allocator@_W@2@@std@@V?$allocator@V?$basic_string@_WU?$char_traits@_W@std@@V?$allocator@_W@2@@std@@@2@@std@@@Z" PURGE="0" COMMENT="" />
    <EXPORT ORDINAL="562" NAME="?UpdateAttributes@CLayoutObj@yui@@UAEXABVIAttribs@2@@Z" PURGE="4" COMMENT="" />
    <EXPORT ORDINAL="563" NAME="?UpdateAttributes@CLayoutPanel@yui@@UAEXABVIAttribs@2@@Z" PURGE="4" COMMENT="" />
    <EXPORT ORDINAL="564" NAME="?UpdateCustomControl@_ICustomControlFactoryImpl@yui@@UAEXPB_WABVIAttribs@2@@Z" PURGE="8" COMMENT="" />
    <EXPORT ORDINAL="565" NAME="?UpdateLayoutAttrs@CAttribs@yui@@UBEXPAVILayoutObj@2@@Z" PURGE="4" COMMENT="" />
    <EXPORT ORDINAL="566" NAME="?WantsMouseInput@IMouseInputImpl@yui@@UAE_NXZ" PURGE="0" COMMENT="" />
    <EXPORT ORDINAL="567" NAME="?g_fontCache@CFontPtr@@0VCFontCache@@A" PURGE="-1" COMMENT="" />
    <EXPORT ORDINAL="568" NAME="?m_pSkinnedGlobals@CAttribs@yui@@0PAVCSkinnedGlobals@@A" PURGE="-1" COMMENT="" />
    <EXPORT ORDINAL="569" NAME="?sm_dwShowOutlines@CLayoutPanel@yui@@1KA" PURGE="-1" COMMENT="" />
    <EXPORT ORDINAL="570" NAME="?sm_nLogicalPixelsY@CAttribs@yui@@0HA" PURGE="-1" COMMENT="" />
</LIBRARY>

