<?xml version="1.0" encoding="UTF-8"?>
<LIBRARY NAME="bnts.dll" PATH="/DLLArchive/windowsXPSp3Prox86/bnts.dll" DATE="Fri Aug 17 13:36:10 PDT 2001" VERSION="1.0.0.5">
    <EXPORT ORDINAL="1" NAME="??0BNTS@@QAE@XZ" PURGE="0" COMMENT="" />
    <EXPORT ORDINAL="2" NAME="??1BNTS@@QAE@XZ" PURGE="0" COMMENT="" />
    <EXPORT ORDINAL="3" NAME="??4BNTS@@QAEAAV0@ABV0@@Z" PURGE="4" COMMENT="" />
    <EXPORT ORDINAL="4" NAME="?BGetPropItemReal@BNTS@@IAEHAAVLTBNPROP@@PBDHAAN@Z" PURGE="16" COMMENT="" />
    <EXPORT ORDINAL="5" NAME="?BGetPropItemStr@BNTS@@IAEHAAVLTBNPROP@@PBDHAAVZSTR@@@Z" PURGE="16" COMMENT="" />
    <EXPORT ORDINAL="6" NAME="?BGetRecommendations@BNTS@@QAEHXZ" PURGE="0" COMMENT="" />
    <EXPORT ORDINAL="7" NAME="?BImpossible@BNTS@@QAEHXZ" PURGE="0" COMMENT="" />
    <EXPORT ORDINAL="8" NAME="?BNetPropItemReal@BNTS@@QAEHPBDHAAN@Z" PURGE="12" COMMENT="" />
    <EXPORT ORDINAL="9" NAME="?BNetPropItemStr@BNTS@@QAEHPBDH@Z" PURGE="8" COMMENT="" />
    <EXPORT ORDINAL="10" NAME="?BNodePropItemReal@BNTS@@QAEHPBDHAAN@Z" PURGE="12" COMMENT="" />
    <EXPORT ORDINAL="11" NAME="?BNodePropItemStr@BNTS@@QAEHPBDH@Z" PURGE="8" COMMENT="" />
    <EXPORT ORDINAL="12" NAME="?BNodeSet@BNTS@@QAEHH_N@Z" PURGE="8" COMMENT="" />
    <EXPORT ORDINAL="13" NAME="?BNodeSetCurrent@BNTS@@QAEHH@Z" PURGE="4" COMMENT="" />
    <EXPORT ORDINAL="14" NAME="?BReadModel@BNTS@@QAEHPBD0@Z" PURGE="8" COMMENT="" />
    <EXPORT ORDINAL="15" NAME="?BValidNet@BNTS@@QBE_NXZ" PURGE="0" COMMENT="" />
    <EXPORT ORDINAL="16" NAME="?BValidNode@BNTS@@QBE_NXZ" PURGE="0" COMMENT="" />
    <EXPORT ORDINAL="17" NAME="?CInt@BNTS@@QBEHXZ" PURGE="0" COMMENT="" />
    <EXPORT ORDINAL="18" NAME="?CNode@BNTS@@QAEHXZ" PURGE="0" COMMENT="" />
    <EXPORT ORDINAL="19" NAME="?CReal@BNTS@@QBEHXZ" PURGE="0" COMMENT="" />
    <EXPORT ORDINAL="20" NAME="?Clear@BNTS@@QAEXXZ" PURGE="0" COMMENT="" />
    <EXPORT ORDINAL="21" NAME="?ClearArrays@BNTS@@IAEXXZ" PURGE="0" COMMENT="" />
    <EXPORT ORDINAL="22" NAME="?ClearString@BNTS@@IAEXXZ" PURGE="0" COMMENT="" />
    <EXPORT ORDINAL="23" NAME="?ELblNode@BNTS@@QAE?AW4ESTDLBL@@XZ" PURGE="0" COMMENT="" />
    <EXPORT ORDINAL="24" NAME="?INode@BNTS@@QAEHPBD@Z" PURGE="4" COMMENT="" />
    <EXPORT ORDINAL="25" NAME="?INodeCst@BNTS@@QAEHXZ" PURGE="0" COMMENT="" />
    <EXPORT ORDINAL="26" NAME="?INodeCurrent@BNTS@@QAEHXZ" PURGE="0" COMMENT="" />
    <EXPORT ORDINAL="27" NAME="?INodeState@BNTS@@QAEHXZ" PURGE="0" COMMENT="" />
    <EXPORT ORDINAL="28" NAME="?Mbnet@BNTS@@IAEAAVMBNETDSCTS@@XZ" PURGE="0" COMMENT="" />
    <EXPORT ORDINAL="29" NAME="?Mbnet@BNTS@@IBEABVMBNETDSCTS@@XZ" PURGE="0" COMMENT="" />
    <EXPORT ORDINAL="30" NAME="?NodeBelief@BNTS@@QAEXXZ" PURGE="0" COMMENT="" />
    <EXPORT ORDINAL="31" NAME="?NodeFullName@BNTS@@QAEXXZ" PURGE="0" COMMENT="" />
    <EXPORT ORDINAL="32" NAME="?NodeStateName@BNTS@@QAEXH@Z" PURGE="4" COMMENT="" />
    <EXPORT ORDINAL="33" NAME="?NodeSymName@BNTS@@QAEXXZ" PURGE="0" COMMENT="" />
    <EXPORT ORDINAL="34" NAME="?Pgndd@BNTS@@IAEPAVGNODEMBND@@XZ" PURGE="0" COMMENT="" />
    <EXPORT ORDINAL="35" NAME="?RgInt@BNTS@@QBEPBHXZ" PURGE="0" COMMENT="" />
    <EXPORT ORDINAL="36" NAME="?RgReal@BNTS@@QBEPBNXZ" PURGE="0" COMMENT="" />
    <EXPORT ORDINAL="37" NAME="?SzcResult@BNTS@@QBEPBDXZ" PURGE="0" COMMENT="" />
    <EXPORT ORDINAL="38" NAME="?ZstrResult@BNTS@@IAEAAVZSTR@@XZ" PURGE="0" COMMENT="" />
</LIBRARY>

