<?xml version="1.0" encoding="UTF-8"?>
<LIBRARY NAME="ddao36u.dll" PATH="/DLLArchive/windowsXPSp3Prox86/ddao36u.dll" DATE="Fri Aug 17 13:36:12 PDT 2001" VERSION="4.000">
    <EXPORT ORDINAL="1" NAME="??0CdbBSTR@@QAE@PAG@Z" PURGE="4" COMMENT="" />
    <EXPORT ORDINAL="2" NAME="??0CdbBookmark@@QAE@ABV0@@Z" PURGE="4" COMMENT="" />
    <EXPORT ORDINAL="3" NAME="??0CdbBookmark@@QAE@PAUtagSAFEARRAY@@@Z" PURGE="4" COMMENT="" />
    <EXPORT ORDINAL="4" NAME="??0CdbBookmark@@QAE@XZ" PURGE="0" COMMENT="" />
    <EXPORT ORDINAL="5" NAME="??0CdbCollection@@QAE@XZ" PURGE="0" COMMENT="" />
    <EXPORT ORDINAL="6" NAME="??0CdbConnection@@QAE@ABV0@@Z" PURGE="4" COMMENT="" />
    <EXPORT ORDINAL="7" NAME="??0CdbConnection@@QAE@PAUDAOConnection@@H@Z" PURGE="8" COMMENT="" />
    <EXPORT ORDINAL="8" NAME="??0CdbConnection@@QAE@XZ" PURGE="0" COMMENT="" />
    <EXPORT ORDINAL="9" NAME="??0CdbConnections@@QAE@AAV0@@Z" PURGE="4" COMMENT="" />
    <EXPORT ORDINAL="10" NAME="??0CdbConnections@@QAE@XZ" PURGE="0" COMMENT="" />
    <EXPORT ORDINAL="11" NAME="??0CdbContainer@@QAE@ABV0@@Z" PURGE="4" COMMENT="" />
    <EXPORT ORDINAL="12" NAME="??0CdbContainer@@QAE@PAUDAOContainer@@H@Z" PURGE="8" COMMENT="" />
    <EXPORT ORDINAL="13" NAME="??0CdbContainer@@QAE@XZ" PURGE="0" COMMENT="" />
    <EXPORT ORDINAL="14" NAME="??0CdbContainers@@QAE@XZ" PURGE="0" COMMENT="" />
    <EXPORT ORDINAL="15" NAME="??0CdbDBEngine@@QAE@ABV0@@Z" PURGE="4" COMMENT="" />
    <EXPORT ORDINAL="16" NAME="??0CdbDBEngine@@QAE@HHPBG00J@Z" PURGE="24" COMMENT="" />
    <EXPORT ORDINAL="17" NAME="??0CdbDBEngine@@QAE@PAU_DAODBEngine@@H@Z" PURGE="8" COMMENT="" />
    <EXPORT ORDINAL="18" NAME="??0CdbDatabase@@QAE@ABV0@@Z" PURGE="4" COMMENT="" />
    <EXPORT ORDINAL="19" NAME="??0CdbDatabase@@QAE@PAUDAODatabase@@H@Z" PURGE="8" COMMENT="" />
    <EXPORT ORDINAL="20" NAME="??0CdbDatabase@@QAE@XZ" PURGE="0" COMMENT="" />
    <EXPORT ORDINAL="21" NAME="??0CdbDatabases@@QAE@XZ" PURGE="0" COMMENT="" />
    <EXPORT ORDINAL="22" NAME="??0CdbDocument@@QAE@ABV0@@Z" PURGE="4" COMMENT="" />
    <EXPORT ORDINAL="23" NAME="??0CdbDocument@@QAE@PAUDAODocument@@H@Z" PURGE="8" COMMENT="" />
    <EXPORT ORDINAL="24" NAME="??0CdbDocument@@QAE@XZ" PURGE="0" COMMENT="" />
    <EXPORT ORDINAL="25" NAME="??0CdbDocuments@@QAE@XZ" PURGE="0" COMMENT="" />
    <EXPORT ORDINAL="26" NAME="??0CdbDynamicCollection@@QAE@XZ" PURGE="0" COMMENT="" />
    <EXPORT ORDINAL="27" NAME="??0CdbError@@QAE@ABV0@@Z" PURGE="4" COMMENT="" />
    <EXPORT ORDINAL="28" NAME="??0CdbError@@QAE@PAUDAOError@@H@Z" PURGE="8" COMMENT="" />
    <EXPORT ORDINAL="29" NAME="??0CdbError@@QAE@XZ" PURGE="0" COMMENT="" />
    <EXPORT ORDINAL="30" NAME="??0CdbErrors@@QAE@XZ" PURGE="0" COMMENT="" />
    <EXPORT ORDINAL="31" NAME="??0CdbException@@QAE@J@Z" PURGE="4" COMMENT="" />
    <EXPORT ORDINAL="32" NAME="??0CdbField@@QAE@ABV0@@Z" PURGE="4" COMMENT="" />
    <EXPORT ORDINAL="33" NAME="??0CdbField@@QAE@PAU_DAOField@@H@Z" PURGE="8" COMMENT="" />
    <EXPORT ORDINAL="34" NAME="??0CdbField@@QAE@XZ" PURGE="0" COMMENT="" />
    <EXPORT ORDINAL="35" NAME="??0CdbFields@@QAE@XZ" PURGE="0" COMMENT="" />
    <EXPORT ORDINAL="36" NAME="??0CdbGetRowsEx@@QAE@ABV0@@Z" PURGE="4" COMMENT="" />
    <EXPORT ORDINAL="37" NAME="??0CdbGetRowsEx@@QAE@PAUICDAORecordset@@H@Z" PURGE="8" COMMENT="" />
    <EXPORT ORDINAL="38" NAME="??0CdbGetRowsEx@@QAE@XZ" PURGE="0" COMMENT="" />
    <EXPORT ORDINAL="39" NAME="??0CdbGroup@@QAE@ABV0@@Z" PURGE="4" COMMENT="" />
    <EXPORT ORDINAL="40" NAME="??0CdbGroup@@QAE@PAU_DAOGroup@@H@Z" PURGE="8" COMMENT="" />
    <EXPORT ORDINAL="41" NAME="??0CdbGroup@@QAE@XZ" PURGE="0" COMMENT="" />
    <EXPORT ORDINAL="42" NAME="??0CdbGroups@@QAE@XZ" PURGE="0" COMMENT="" />
    <EXPORT ORDINAL="43" NAME="??0CdbIndex@@QAE@ABV0@@Z" PURGE="4" COMMENT="" />
    <EXPORT ORDINAL="44" NAME="??0CdbIndex@@QAE@PAU_DAOIndex@@H@Z" PURGE="8" COMMENT="" />
    <EXPORT ORDINAL="45" NAME="??0CdbIndex@@QAE@XZ" PURGE="0" COMMENT="" />
    <EXPORT ORDINAL="46" NAME="??0CdbIndexFields@@QAE@XZ" PURGE="0" COMMENT="" />
    <EXPORT ORDINAL="47" NAME="??0CdbIndexes@@QAE@XZ" PURGE="0" COMMENT="" />
    <EXPORT ORDINAL="48" NAME="??0CdbLastOLEError@@QAE@XZ" PURGE="0" COMMENT="" />
    <EXPORT ORDINAL="49" NAME="??0CdbObject@@QAE@PAUIUnknown@@H@Z" PURGE="8" COMMENT="" />
    <EXPORT ORDINAL="50" NAME="??0CdbObject@@QAE@XZ" PURGE="0" COMMENT="" />
    <EXPORT ORDINAL="51" NAME="??0CdbOleObject@@QAE@XZ" PURGE="0" COMMENT="" />
    <EXPORT ORDINAL="52" NAME="??0CdbParameter@@QAE@ABV0@@Z" PURGE="4" COMMENT="" />
    <EXPORT ORDINAL="53" NAME="??0CdbParameter@@QAE@PAUDAOParameter@@H@Z" PURGE="8" COMMENT="" />
    <EXPORT ORDINAL="54" NAME="??0CdbParameter@@QAE@XZ" PURGE="0" COMMENT="" />
    <EXPORT ORDINAL="55" NAME="??0CdbParameters@@QAE@XZ" PURGE="0" COMMENT="" />
    <EXPORT ORDINAL="56" NAME="??0CdbProperties@@QAE@XZ" PURGE="0" COMMENT="" />
    <EXPORT ORDINAL="57" NAME="??0CdbProperty@@QAE@ABV0@@Z" PURGE="4" COMMENT="" />
    <EXPORT ORDINAL="58" NAME="??0CdbProperty@@QAE@PAUDAOProperty@@H@Z" PURGE="8" COMMENT="" />
    <EXPORT ORDINAL="59" NAME="??0CdbProperty@@QAE@XZ" PURGE="0" COMMENT="" />
    <EXPORT ORDINAL="60" NAME="??0CdbQueryDef@@QAE@ABV0@@Z" PURGE="4" COMMENT="" />
    <EXPORT ORDINAL="61" NAME="??0CdbQueryDef@@QAE@PAU_DAOQueryDef@@H@Z" PURGE="8" COMMENT="" />
    <EXPORT ORDINAL="62" NAME="??0CdbQueryDef@@QAE@XZ" PURGE="0" COMMENT="" />
    <EXPORT ORDINAL="63" NAME="??0CdbQueryDefs@@QAE@XZ" PURGE="0" COMMENT="" />
    <EXPORT ORDINAL="64" NAME="??0CdbRecordset@@QAE@ABV0@@Z" PURGE="4" COMMENT="" />
    <EXPORT ORDINAL="65" NAME="??0CdbRecordset@@QAE@PAUDAORecordset@@H@Z" PURGE="8" COMMENT="" />
    <EXPORT ORDINAL="66" NAME="??0CdbRecordset@@QAE@XZ" PURGE="0" COMMENT="" />
    <EXPORT ORDINAL="67" NAME="??0CdbRecordsets@@QAE@XZ" PURGE="0" COMMENT="" />
    <EXPORT ORDINAL="68" NAME="??0CdbRelation@@QAE@ABV0@@Z" PURGE="4" COMMENT="" />
    <EXPORT ORDINAL="69" NAME="??0CdbRelation@@QAE@PAU_DAORelation@@H@Z" PURGE="8" COMMENT="" />
    <EXPORT ORDINAL="70" NAME="??0CdbRelation@@QAE@XZ" PURGE="0" COMMENT="" />
    <EXPORT ORDINAL="71" NAME="??0CdbRelations@@QAE@XZ" PURGE="0" COMMENT="" />
    <EXPORT ORDINAL="72" NAME="??0CdbStaticCollection@@QAE@XZ" PURGE="0" COMMENT="" />
    <EXPORT ORDINAL="73" NAME="??0CdbTableDef@@QAE@ABV0@@Z" PURGE="4" COMMENT="" />
    <EXPORT ORDINAL="74" NAME="??0CdbTableDef@@QAE@PAU_DAOTableDef@@H@Z" PURGE="8" COMMENT="" />
    <EXPORT ORDINAL="75" NAME="??0CdbTableDef@@QAE@XZ" PURGE="0" COMMENT="" />
    <EXPORT ORDINAL="76" NAME="??0CdbTableDefs@@QAE@XZ" PURGE="0" COMMENT="" />
    <EXPORT ORDINAL="77" NAME="??0CdbUser@@QAE@ABV0@@Z" PURGE="4" COMMENT="" />
    <EXPORT ORDINAL="78" NAME="??0CdbUser@@QAE@PAU_DAOUser@@H@Z" PURGE="8" COMMENT="" />
    <EXPORT ORDINAL="79" NAME="??0CdbUser@@QAE@XZ" PURGE="0" COMMENT="" />
    <EXPORT ORDINAL="80" NAME="??0CdbUsers@@QAE@XZ" PURGE="0" COMMENT="" />
    <EXPORT ORDINAL="81" NAME="??0CdbWorkspace@@QAE@ABV0@@Z" PURGE="4" COMMENT="" />
    <EXPORT ORDINAL="82" NAME="??0CdbWorkspace@@QAE@PAUDAOWorkspace@@H@Z" PURGE="8" COMMENT="" />
    <EXPORT ORDINAL="83" NAME="??0CdbWorkspace@@QAE@XZ" PURGE="0" COMMENT="" />
    <EXPORT ORDINAL="84" NAME="??0CdbWorkspaces@@QAE@XZ" PURGE="0" COMMENT="" />
    <EXPORT ORDINAL="85" NAME="??1CdbBSTR@@QAE@XZ" PURGE="0" COMMENT="" />
    <EXPORT ORDINAL="86" NAME="??1CdbBookmark@@QAE@XZ" PURGE="-1" COMMENT="" />
    <EXPORT ORDINAL="87" NAME="??1CdbCollection@@UAE@XZ" PURGE="0" COMMENT="" />
    <EXPORT ORDINAL="88" NAME="??1CdbConnection@@UAE@XZ" PURGE="0" COMMENT="" />
    <EXPORT ORDINAL="89" NAME="??1CdbConnections@@UAE@XZ" PURGE="0" COMMENT="" />
    <EXPORT ORDINAL="90" NAME="??1CdbContainer@@UAE@XZ" PURGE="0" COMMENT="" />
    <EXPORT ORDINAL="91" NAME="??1CdbContainers@@UAE@XZ" PURGE="0" COMMENT="" />
    <EXPORT ORDINAL="92" NAME="??1CdbDBEngine@@UAE@XZ" PURGE="0" COMMENT="" />
    <EXPORT ORDINAL="93" NAME="??1CdbDatabase@@UAE@XZ" PURGE="0" COMMENT="" />
    <EXPORT ORDINAL="94" NAME="??1CdbDatabases@@UAE@XZ" PURGE="0" COMMENT="" />
    <EXPORT ORDINAL="95" NAME="??1CdbDocument@@UAE@XZ" PURGE="0" COMMENT="" />
    <EXPORT ORDINAL="96" NAME="??1CdbDocuments@@UAE@XZ" PURGE="0" COMMENT="" />
    <EXPORT ORDINAL="97" NAME="??1CdbDynamicCollection@@UAE@XZ" PURGE="0" COMMENT="" />
    <EXPORT ORDINAL="98" NAME="??1CdbError@@UAE@XZ" PURGE="0" COMMENT="" />
    <EXPORT ORDINAL="99" NAME="??1CdbErrors@@UAE@XZ" PURGE="0" COMMENT="" />
    <EXPORT ORDINAL="100" NAME="??1CdbField@@UAE@XZ" PURGE="0" COMMENT="" />
    <EXPORT ORDINAL="101" NAME="??1CdbFields@@UAE@XZ" PURGE="0" COMMENT="" />
    <EXPORT ORDINAL="102" NAME="??1CdbGetRowsEx@@UAE@XZ" PURGE="0" COMMENT="" />
    <EXPORT ORDINAL="103" NAME="??1CdbGroup@@UAE@XZ" PURGE="0" COMMENT="" />
    <EXPORT ORDINAL="104" NAME="??1CdbGroups@@UAE@XZ" PURGE="0" COMMENT="" />
    <EXPORT ORDINAL="105" NAME="??1CdbIndex@@UAE@XZ" PURGE="0" COMMENT="" />
    <EXPORT ORDINAL="106" NAME="??1CdbIndexFields@@UAE@XZ" PURGE="0" COMMENT="" />
    <EXPORT ORDINAL="107" NAME="??1CdbIndexes@@UAE@XZ" PURGE="0" COMMENT="" />
    <EXPORT ORDINAL="108" NAME="??1CdbLastOLEError@@UAE@XZ" PURGE="0" COMMENT="" />
    <EXPORT ORDINAL="109" NAME="??1CdbObject@@UAE@XZ" PURGE="0" COMMENT="" />
    <EXPORT ORDINAL="110" NAME="??1CdbOleObject@@UAE@XZ" PURGE="0" COMMENT="" />
    <EXPORT ORDINAL="111" NAME="??1CdbParameter@@UAE@XZ" PURGE="0" COMMENT="" />
    <EXPORT ORDINAL="112" NAME="??1CdbParameters@@UAE@XZ" PURGE="0" COMMENT="" />
    <EXPORT ORDINAL="113" NAME="??1CdbProperties@@UAE@XZ" PURGE="0" COMMENT="" />
    <EXPORT ORDINAL="114" NAME="??1CdbProperty@@UAE@XZ" PURGE="0" COMMENT="" />
    <EXPORT ORDINAL="115" NAME="??1CdbQueryDef@@UAE@XZ" PURGE="0" COMMENT="" />
    <EXPORT ORDINAL="116" NAME="??1CdbQueryDefs@@UAE@XZ" PURGE="0" COMMENT="" />
    <EXPORT ORDINAL="117" NAME="??1CdbRecordset@@UAE@XZ" PURGE="0" COMMENT="" />
    <EXPORT ORDINAL="118" NAME="??1CdbRecordsets@@UAE@XZ" PURGE="0" COMMENT="" />
    <EXPORT ORDINAL="119" NAME="??1CdbRelation@@UAE@XZ" PURGE="0" COMMENT="" />
    <EXPORT ORDINAL="120" NAME="??1CdbRelations@@UAE@XZ" PURGE="0" COMMENT="" />
    <EXPORT ORDINAL="121" NAME="??1CdbStaticCollection@@UAE@XZ" PURGE="0" COMMENT="" />
    <EXPORT ORDINAL="122" NAME="??1CdbTableDef@@UAE@XZ" PURGE="0" COMMENT="" />
    <EXPORT ORDINAL="123" NAME="??1CdbTableDefs@@UAE@XZ" PURGE="0" COMMENT="" />
    <EXPORT ORDINAL="124" NAME="??1CdbUser@@UAE@XZ" PURGE="0" COMMENT="" />
    <EXPORT ORDINAL="125" NAME="??1CdbUsers@@UAE@XZ" PURGE="0" COMMENT="" />
    <EXPORT ORDINAL="126" NAME="??1CdbWorkspace@@UAE@XZ" PURGE="0" COMMENT="" />
    <EXPORT ORDINAL="127" NAME="??1CdbWorkspaces@@UAE@XZ" PURGE="0" COMMENT="" />
    <EXPORT ORDINAL="128" NAME="??4CdbBSTR@@QAEAAV0@ABV0@@Z" PURGE="4" COMMENT="" />
    <EXPORT ORDINAL="129" NAME="??4CdbBookmark@@QAEAAV0@ABV0@@Z" PURGE="4" COMMENT="" />
    <EXPORT ORDINAL="130" NAME="??4CdbCollection@@QAEAAV0@AAV0@@Z" PURGE="4" COMMENT="" />
    <EXPORT ORDINAL="131" NAME="??4CdbConnection@@QAEAAV0@ABV0@@Z" PURGE="4" COMMENT="" />
    <EXPORT ORDINAL="132" NAME="??4CdbConnections@@QAEAAV0@AAV0@@Z" PURGE="4" COMMENT="" />
    <EXPORT ORDINAL="133" NAME="??4CdbContainer@@QAEAAV0@ABV0@@Z" PURGE="4" COMMENT="" />
    <EXPORT ORDINAL="134" NAME="??4CdbContainers@@QAEAAV0@AAV0@@Z" PURGE="4" COMMENT="" />
    <EXPORT ORDINAL="135" NAME="??4CdbDBEngine@@QAEAAV0@ABV0@@Z" PURGE="4" COMMENT="" />
    <EXPORT ORDINAL="136" NAME="??4CdbDatabase@@QAEAAV0@ABV0@@Z" PURGE="4" COMMENT="" />
    <EXPORT ORDINAL="137" NAME="??4CdbDatabases@@QAEAAV0@AAV0@@Z" PURGE="4" COMMENT="" />
    <EXPORT ORDINAL="138" NAME="??4CdbDocument@@QAEAAV0@ABV0@@Z" PURGE="4" COMMENT="" />
    <EXPORT ORDINAL="139" NAME="??4CdbDocuments@@QAEAAV0@AAV0@@Z" PURGE="4" COMMENT="" />
    <EXPORT ORDINAL="140" NAME="??4CdbDynamicCollection@@QAEAAV0@AAV0@@Z" PURGE="4" COMMENT="" />
    <EXPORT ORDINAL="141" NAME="??4CdbError@@QAEAAV0@ABV0@@Z" PURGE="4" COMMENT="" />
    <EXPORT ORDINAL="142" NAME="??4CdbErrors@@QAEAAV0@AAV0@@Z" PURGE="4" COMMENT="" />
    <EXPORT ORDINAL="143" NAME="??4CdbException@@QAEAAV0@ABV0@@Z" PURGE="4" COMMENT="" />
    <EXPORT ORDINAL="144" NAME="??4CdbField@@QAEAAV0@ABV0@@Z" PURGE="4" COMMENT="" />
    <EXPORT ORDINAL="145" NAME="??4CdbFields@@QAEAAV0@AAV0@@Z" PURGE="4" COMMENT="" />
    <EXPORT ORDINAL="146" NAME="??4CdbGetRowsEx@@QAEAAV0@ABV0@@Z" PURGE="4" COMMENT="" />
    <EXPORT ORDINAL="147" NAME="??4CdbGroup@@QAEAAV0@ABV0@@Z" PURGE="4" COMMENT="" />
    <EXPORT ORDINAL="148" NAME="??4CdbGroups@@QAEAAV0@AAV0@@Z" PURGE="4" COMMENT="" />
    <EXPORT ORDINAL="149" NAME="??4CdbIndex@@QAEAAV0@ABV0@@Z" PURGE="4" COMMENT="" />
    <EXPORT ORDINAL="150" NAME="??4CdbIndexFields@@QAEAAV0@AAV0@@Z" PURGE="4" COMMENT="" />
    <EXPORT ORDINAL="151" NAME="??4CdbIndexes@@QAEAAV0@AAV0@@Z" PURGE="4" COMMENT="" />
    <EXPORT ORDINAL="152" NAME="??4CdbLastOLEError@@QAEAAV0@AAV0@@Z" PURGE="4" COMMENT="" />
    <EXPORT ORDINAL="153" NAME="??4CdbObject@@QAEAAV0@AAV0@@Z" PURGE="4" COMMENT="" />
    <EXPORT ORDINAL="154" NAME="??4CdbOleObject@@QAEAAV0@AAV0@@Z" PURGE="4" COMMENT="" />
    <EXPORT ORDINAL="155" NAME="??4CdbParameter@@QAEAAV0@ABV0@@Z" PURGE="4" COMMENT="" />
    <EXPORT ORDINAL="156" NAME="??4CdbParameters@@QAEAAV0@AAV0@@Z" PURGE="4" COMMENT="" />
    <EXPORT ORDINAL="157" NAME="??4CdbProperties@@QAEAAV0@AAV0@@Z" PURGE="4" COMMENT="" />
    <EXPORT ORDINAL="158" NAME="??4CdbProperty@@QAEAAV0@ABV0@@Z" PURGE="4" COMMENT="" />
    <EXPORT ORDINAL="159" NAME="??4CdbQueryDef@@QAEAAV0@ABV0@@Z" PURGE="4" COMMENT="" />
    <EXPORT ORDINAL="160" NAME="??4CdbQueryDefs@@QAEAAV0@AAV0@@Z" PURGE="4" COMMENT="" />
    <EXPORT ORDINAL="161" NAME="??4CdbRecordset@@QAEAAV0@ABV0@@Z" PURGE="4" COMMENT="" />
    <EXPORT ORDINAL="162" NAME="??4CdbRecordsets@@QAEAAV0@AAV0@@Z" PURGE="4" COMMENT="" />
    <EXPORT ORDINAL="163" NAME="??4CdbRelation@@QAEAAV0@ABV0@@Z" PURGE="4" COMMENT="" />
    <EXPORT ORDINAL="164" NAME="??4CdbRelations@@QAEAAV0@AAV0@@Z" PURGE="4" COMMENT="" />
    <EXPORT ORDINAL="165" NAME="??4CdbStaticCollection@@QAEAAV0@AAV0@@Z" PURGE="4" COMMENT="" />
    <EXPORT ORDINAL="166" NAME="??4CdbTableDef@@QAEAAV0@ABV0@@Z" PURGE="4" COMMENT="" />
    <EXPORT ORDINAL="167" NAME="??4CdbTableDefs@@QAEAAV0@AAV0@@Z" PURGE="4" COMMENT="" />
    <EXPORT ORDINAL="168" NAME="??4CdbUser@@QAEAAV0@ABV0@@Z" PURGE="4" COMMENT="" />
    <EXPORT ORDINAL="169" NAME="??4CdbUsers@@QAEAAV0@AAV0@@Z" PURGE="4" COMMENT="" />
    <EXPORT ORDINAL="170" NAME="??4CdbWorkspace@@QAEAAV0@ABV0@@Z" PURGE="4" COMMENT="" />
    <EXPORT ORDINAL="171" NAME="??4CdbWorkspaces@@QAEAAV0@AAV0@@Z" PURGE="4" COMMENT="" />
    <EXPORT ORDINAL="172" NAME="??ACdbConnection@@QAE?AVCdbQueryDef@@J@Z" PURGE="8" COMMENT="" />
    <EXPORT ORDINAL="173" NAME="??ACdbConnection@@QAE?AVCdbQueryDef@@PBG@Z" PURGE="8" COMMENT="" />
    <EXPORT ORDINAL="174" NAME="??ACdbConnections@@QAE?AVCdbConnection@@J@Z" PURGE="8" COMMENT="" />
    <EXPORT ORDINAL="175" NAME="??ACdbConnections@@QAE?AVCdbConnection@@PBG@Z" PURGE="8" COMMENT="" />
    <EXPORT ORDINAL="176" NAME="??ACdbContainer@@QAE?AVCdbDocument@@J@Z" PURGE="8" COMMENT="" />
    <EXPORT ORDINAL="177" NAME="??ACdbContainer@@QAE?AVCdbDocument@@PBG@Z" PURGE="8" COMMENT="" />
    <EXPORT ORDINAL="178" NAME="??ACdbContainers@@QAE?AVCdbContainer@@J@Z" PURGE="8" COMMENT="" />
    <EXPORT ORDINAL="179" NAME="??ACdbContainers@@QAE?AVCdbContainer@@PBG@Z" PURGE="8" COMMENT="" />
    <EXPORT ORDINAL="180" NAME="??ACdbDBEngine@@QAE?AVCdbWorkspace@@J@Z" PURGE="8" COMMENT="" />
    <EXPORT ORDINAL="181" NAME="??ACdbDBEngine@@QAE?AVCdbWorkspace@@PBG@Z" PURGE="8" COMMENT="" />
    <EXPORT ORDINAL="182" NAME="??ACdbDatabase@@QAE?AVCdbTableDef@@J@Z" PURGE="8" COMMENT="" />
    <EXPORT ORDINAL="183" NAME="??ACdbDatabase@@QAE?AVCdbTableDef@@PBG@Z" PURGE="8" COMMENT="" />
    <EXPORT ORDINAL="184" NAME="??ACdbDatabases@@QAE?AVCdbDatabase@@J@Z" PURGE="8" COMMENT="" />
    <EXPORT ORDINAL="185" NAME="??ACdbDatabases@@QAE?AVCdbDatabase@@PBG@Z" PURGE="8" COMMENT="" />
    <EXPORT ORDINAL="186" NAME="??ACdbDocuments@@QAE?AVCdbDocument@@J@Z" PURGE="8" COMMENT="" />
    <EXPORT ORDINAL="187" NAME="??ACdbDocuments@@QAE?AVCdbDocument@@PBG@Z" PURGE="8" COMMENT="" />
    <EXPORT ORDINAL="188" NAME="??ACdbErrors@@QAE?AVCdbError@@J@Z" PURGE="8" COMMENT="" />
    <EXPORT ORDINAL="189" NAME="??ACdbErrors@@QAE?AVCdbError@@PBG@Z" PURGE="8" COMMENT="" />
    <EXPORT ORDINAL="190" NAME="??ACdbFields@@QAE?AVCdbField@@J@Z" PURGE="8" COMMENT="" />
    <EXPORT ORDINAL="191" NAME="??ACdbFields@@QAE?AVCdbField@@PBG@Z" PURGE="8" COMMENT="" />
    <EXPORT ORDINAL="192" NAME="??ACdbGroup@@QAE?AVCdbUser@@J@Z" PURGE="8" COMMENT="" />
    <EXPORT ORDINAL="193" NAME="??ACdbGroup@@QAE?AVCdbUser@@PBG@Z" PURGE="8" COMMENT="" />
    <EXPORT ORDINAL="194" NAME="??ACdbGroups@@QAE?AVCdbGroup@@J@Z" PURGE="8" COMMENT="" />
    <EXPORT ORDINAL="195" NAME="??ACdbGroups@@QAE?AVCdbGroup@@PBG@Z" PURGE="8" COMMENT="" />
    <EXPORT ORDINAL="196" NAME="??ACdbIndex@@QAE?AVCdbField@@J@Z" PURGE="8" COMMENT="" />
    <EXPORT ORDINAL="197" NAME="??ACdbIndex@@QAE?AVCdbField@@PBG@Z" PURGE="8" COMMENT="" />
    <EXPORT ORDINAL="198" NAME="??ACdbIndexes@@QAE?AVCdbIndex@@J@Z" PURGE="8" COMMENT="" />
    <EXPORT ORDINAL="199" NAME="??ACdbIndexes@@QAE?AVCdbIndex@@PBG@Z" PURGE="8" COMMENT="" />
    <EXPORT ORDINAL="200" NAME="??ACdbParameters@@QAE?AVCdbParameter@@J@Z" PURGE="8" COMMENT="" />
    <EXPORT ORDINAL="201" NAME="??ACdbParameters@@QAE?AVCdbParameter@@PBG@Z" PURGE="8" COMMENT="" />
    <EXPORT ORDINAL="202" NAME="??ACdbProperties@@QAE?AVCdbProperty@@J@Z" PURGE="8" COMMENT="" />
    <EXPORT ORDINAL="203" NAME="??ACdbProperties@@QAE?AVCdbProperty@@PBG@Z" PURGE="8" COMMENT="" />
    <EXPORT ORDINAL="204" NAME="??ACdbQueryDef@@QAE?AVCdbField@@J@Z" PURGE="8" COMMENT="" />
    <EXPORT ORDINAL="205" NAME="??ACdbQueryDef@@QAE?AVCdbField@@PBG@Z" PURGE="8" COMMENT="" />
    <EXPORT ORDINAL="206" NAME="??ACdbQueryDefs@@QAE?AVCdbQueryDef@@J@Z" PURGE="8" COMMENT="" />
    <EXPORT ORDINAL="207" NAME="??ACdbQueryDefs@@QAE?AVCdbQueryDef@@PBG@Z" PURGE="8" COMMENT="" />
    <EXPORT ORDINAL="208" NAME="??ACdbRecordset@@QAE?AVCdbField@@J@Z" PURGE="8" COMMENT="" />
    <EXPORT ORDINAL="209" NAME="??ACdbRecordset@@QAE?AVCdbField@@PBG@Z" PURGE="8" COMMENT="" />
    <EXPORT ORDINAL="210" NAME="??ACdbRecordsets@@QAE?AVCdbRecordset@@J@Z" PURGE="8" COMMENT="" />
    <EXPORT ORDINAL="211" NAME="??ACdbRecordsets@@QAE?AVCdbRecordset@@PBG@Z" PURGE="8" COMMENT="" />
    <EXPORT ORDINAL="212" NAME="??ACdbRelation@@QAE?AVCdbField@@J@Z" PURGE="8" COMMENT="" />
    <EXPORT ORDINAL="213" NAME="??ACdbRelation@@QAE?AVCdbField@@PBG@Z" PURGE="8" COMMENT="" />
    <EXPORT ORDINAL="214" NAME="??ACdbRelations@@QAE?AVCdbRelation@@J@Z" PURGE="8" COMMENT="" />
    <EXPORT ORDINAL="215" NAME="??ACdbRelations@@QAE?AVCdbRelation@@PBG@Z" PURGE="8" COMMENT="" />
    <EXPORT ORDINAL="216" NAME="??ACdbTableDef@@QAE?AVCdbField@@J@Z" PURGE="8" COMMENT="" />
    <EXPORT ORDINAL="217" NAME="??ACdbTableDef@@QAE?AVCdbField@@PBG@Z" PURGE="8" COMMENT="" />
    <EXPORT ORDINAL="218" NAME="??ACdbTableDefs@@QAE?AVCdbTableDef@@J@Z" PURGE="8" COMMENT="" />
    <EXPORT ORDINAL="219" NAME="??ACdbTableDefs@@QAE?AVCdbTableDef@@PBG@Z" PURGE="8" COMMENT="" />
    <EXPORT ORDINAL="220" NAME="??ACdbUser@@QAE?AVCdbGroup@@J@Z" PURGE="8" COMMENT="" />
    <EXPORT ORDINAL="221" NAME="??ACdbUser@@QAE?AVCdbGroup@@PBG@Z" PURGE="8" COMMENT="" />
    <EXPORT ORDINAL="222" NAME="??ACdbUsers@@QAE?AVCdbUser@@J@Z" PURGE="8" COMMENT="" />
    <EXPORT ORDINAL="223" NAME="??ACdbUsers@@QAE?AVCdbUser@@PBG@Z" PURGE="8" COMMENT="" />
    <EXPORT ORDINAL="224" NAME="??ACdbWorkspace@@QAE?AVCdbDatabase@@J@Z" PURGE="8" COMMENT="" />
    <EXPORT ORDINAL="225" NAME="??ACdbWorkspace@@QAE?AVCdbDatabase@@PBG@Z" PURGE="8" COMMENT="" />
    <EXPORT ORDINAL="226" NAME="??ACdbWorkspaces@@QAE?AVCdbWorkspace@@J@Z" PURGE="8" COMMENT="" />
    <EXPORT ORDINAL="227" NAME="??ACdbWorkspaces@@QAE?AVCdbWorkspace@@PBG@Z" PURGE="8" COMMENT="" />
    <EXPORT ORDINAL="228" NAME="??BCdbBSTR@@QAEPAPAGXZ" PURGE="0" COMMENT="" />
    <EXPORT ORDINAL="229" NAME="??BCdbBSTR@@QAEPBGXZ" PURGE="0" COMMENT="" />
    <EXPORT ORDINAL="230" NAME="??BCdbBookmark@@QAEPAUtagSAFEARRAY@@XZ" PURGE="0" COMMENT="" />
    <EXPORT ORDINAL="231" NAME="??BCdbOleObject@@QAEPAUIUnknown@@XZ" PURGE="0" COMMENT="" />
    <EXPORT ORDINAL="232" NAME="??_7CdbCollection@@6B@" PURGE="-1" COMMENT="" />
    <EXPORT ORDINAL="233" NAME="??_7CdbConnection@@6B@" PURGE="-1" COMMENT="" />
    <EXPORT ORDINAL="234" NAME="??_7CdbConnections@@6B@" PURGE="-1" COMMENT="" />
    <EXPORT ORDINAL="235" NAME="??_7CdbContainer@@6B@" PURGE="-1" COMMENT="" />
    <EXPORT ORDINAL="236" NAME="??_7CdbContainers@@6B@" PURGE="-1" COMMENT="" />
    <EXPORT ORDINAL="237" NAME="??_7CdbDBEngine@@6B@" PURGE="-1" COMMENT="" />
    <EXPORT ORDINAL="238" NAME="??_7CdbDatabase@@6B@" PURGE="-1" COMMENT="" />
    <EXPORT ORDINAL="239" NAME="??_7CdbDatabases@@6B@" PURGE="-1" COMMENT="" />
    <EXPORT ORDINAL="240" NAME="??_7CdbDocument@@6B@" PURGE="-1" COMMENT="" />
    <EXPORT ORDINAL="241" NAME="??_7CdbDocuments@@6B@" PURGE="-1" COMMENT="" />
    <EXPORT ORDINAL="242" NAME="??_7CdbDynamicCollection@@6B@" PURGE="-1" COMMENT="" />
    <EXPORT ORDINAL="243" NAME="??_7CdbError@@6B@" PURGE="-1" COMMENT="" />
    <EXPORT ORDINAL="244" NAME="??_7CdbErrors@@6B@" PURGE="-1" COMMENT="" />
    <EXPORT ORDINAL="245" NAME="??_7CdbField@@6B@" PURGE="-1" COMMENT="" />
    <EXPORT ORDINAL="246" NAME="??_7CdbFields@@6B@" PURGE="-1" COMMENT="" />
    <EXPORT ORDINAL="247" NAME="??_7CdbGetRowsEx@@6B@" PURGE="-1" COMMENT="" />
    <EXPORT ORDINAL="248" NAME="??_7CdbGroup@@6B@" PURGE="-1" COMMENT="" />
    <EXPORT ORDINAL="249" NAME="??_7CdbGroups@@6B@" PURGE="-1" COMMENT="" />
    <EXPORT ORDINAL="250" NAME="??_7CdbIndex@@6B@" PURGE="-1" COMMENT="" />
    <EXPORT ORDINAL="251" NAME="??_7CdbIndexFields@@6B@" PURGE="-1" COMMENT="" />
    <EXPORT ORDINAL="252" NAME="??_7CdbIndexes@@6B@" PURGE="-1" COMMENT="" />
    <EXPORT ORDINAL="253" NAME="??_7CdbLastOLEError@@6B@" PURGE="-1" COMMENT="" />
    <EXPORT ORDINAL="254" NAME="??_7CdbObject@@6B@" PURGE="-1" COMMENT="" />
    <EXPORT ORDINAL="255" NAME="??_7CdbOleObject@@6B@" PURGE="-1" COMMENT="" />
    <EXPORT ORDINAL="256" NAME="??_7CdbParameter@@6B@" PURGE="-1" COMMENT="" />
    <EXPORT ORDINAL="257" NAME="??_7CdbParameters@@6B@" PURGE="-1" COMMENT="" />
    <EXPORT ORDINAL="258" NAME="??_7CdbProperties@@6B@" PURGE="-1" COMMENT="" />
    <EXPORT ORDINAL="259" NAME="??_7CdbProperty@@6B@" PURGE="-1" COMMENT="" />
    <EXPORT ORDINAL="260" NAME="??_7CdbQueryDef@@6B@" PURGE="-1" COMMENT="" />
    <EXPORT ORDINAL="261" NAME="??_7CdbQueryDefs@@6B@" PURGE="-1" COMMENT="" />
    <EXPORT ORDINAL="262" NAME="??_7CdbRecordset@@6B@" PURGE="-1" COMMENT="" />
    <EXPORT ORDINAL="263" NAME="??_7CdbRecordsets@@6B@" PURGE="-1" COMMENT="" />
    <EXPORT ORDINAL="264" NAME="??_7CdbRelation@@6B@" PURGE="-1" COMMENT="" />
    <EXPORT ORDINAL="265" NAME="??_7CdbRelations@@6B@" PURGE="-1" COMMENT="" />
    <EXPORT ORDINAL="266" NAME="??_7CdbStaticCollection@@6B@" PURGE="-1" COMMENT="" />
    <EXPORT ORDINAL="267" NAME="??_7CdbTableDef@@6B@" PURGE="-1" COMMENT="" />
    <EXPORT ORDINAL="268" NAME="??_7CdbTableDefs@@6B@" PURGE="-1" COMMENT="" />
    <EXPORT ORDINAL="269" NAME="??_7CdbUser@@6B@" PURGE="-1" COMMENT="" />
    <EXPORT ORDINAL="270" NAME="??_7CdbUsers@@6B@" PURGE="-1" COMMENT="" />
    <EXPORT ORDINAL="271" NAME="??_7CdbWorkspace@@6B@" PURGE="-1" COMMENT="" />
    <EXPORT ORDINAL="272" NAME="??_7CdbWorkspaces@@6B@" PURGE="-1" COMMENT="" />
    <EXPORT ORDINAL="273" NAME="??_FCdbBSTR@@QAEXXZ" PURGE="0" COMMENT="" />
    <EXPORT ORDINAL="274" NAME="??_FCdbDBEngine@@QAEXXZ" PURGE="0" COMMENT="" />
    <EXPORT ORDINAL="275" NAME="?AddNew@CdbRecordset@@QAEXXZ" PURGE="0" COMMENT="" />
    <EXPORT ORDINAL="276" NAME="?Append@CdbFields@@QAEXAAVCdbField@@@Z" PURGE="4" COMMENT="" />
    <EXPORT ORDINAL="277" NAME="?Append@CdbGroups@@QAEXAAVCdbGroup@@@Z" PURGE="4" COMMENT="" />
    <EXPORT ORDINAL="278" NAME="?Append@CdbIndexes@@QAEXAAVCdbIndex@@@Z" PURGE="4" COMMENT="" />
    <EXPORT ORDINAL="279" NAME="?Append@CdbProperties@@QAEXAAVCdbProperty@@@Z" PURGE="4" COMMENT="" />
    <EXPORT ORDINAL="280" NAME="?Append@CdbQueryDefs@@QAEXAAVCdbQueryDef@@@Z" PURGE="4" COMMENT="" />
    <EXPORT ORDINAL="281" NAME="?Append@CdbRelations@@QAEXAAVCdbRelation@@@Z" PURGE="4" COMMENT="" />
    <EXPORT ORDINAL="282" NAME="?Append@CdbTableDefs@@QAEXAAVCdbTableDef@@@Z" PURGE="4" COMMENT="" />
    <EXPORT ORDINAL="283" NAME="?Append@CdbUsers@@QAEXAAVCdbUser@@@Z" PURGE="4" COMMENT="" />
    <EXPORT ORDINAL="284" NAME="?Append@CdbWorkspaces@@QAEXAAVCdbWorkspace@@@Z" PURGE="4" COMMENT="" />
    <EXPORT ORDINAL="285" NAME="?AppendChunk@CdbField@@QAEXPAUtagVARIANT@@@Z" PURGE="4" COMMENT="" />
    <EXPORT ORDINAL="286" NAME="?BeginTrans@CdbWorkspace@@QAEXXZ" PURGE="0" COMMENT="" />
    <EXPORT ORDINAL="287" NAME="?Cancel@CdbConnection@@QAEXXZ" PURGE="0" COMMENT="" />
    <EXPORT ORDINAL="288" NAME="?Cancel@CdbQueryDef@@QAEXXZ" PURGE="0" COMMENT="" />
    <EXPORT ORDINAL="289" NAME="?Cancel@CdbRecordset@@QAEXXZ" PURGE="0" COMMENT="" />
    <EXPORT ORDINAL="290" NAME="?CancelUpdate@CdbRecordset@@QAEXF@Z" PURGE="4" COMMENT="" />
    <EXPORT ORDINAL="291" NAME="?CheckInterface@CdbConnections@@AAEXXZ" PURGE="0" COMMENT="" />
    <EXPORT ORDINAL="292" NAME="?Clone@CdbRecordset@@QAE?AV1@XZ" PURGE="4" COMMENT="" />
    <EXPORT ORDINAL="293" NAME="?Close@CdbConnection@@QAEXXZ" PURGE="0" COMMENT="" />
    <EXPORT ORDINAL="294" NAME="?Close@CdbDatabase@@QAEXXZ" PURGE="0" COMMENT="" />
    <EXPORT ORDINAL="295" NAME="?Close@CdbQueryDef@@QAEXXZ" PURGE="0" COMMENT="" />
    <EXPORT ORDINAL="296" NAME="?Close@CdbRecordset@@QAEXXZ" PURGE="0" COMMENT="" />
    <EXPORT ORDINAL="297" NAME="?Close@CdbWorkspace@@QAEXXZ" PURGE="0" COMMENT="" />
    <EXPORT ORDINAL="298" NAME="?CommitTrans@CdbWorkspace@@QAEXJ@Z" PURGE="4" COMMENT="" />
    <EXPORT ORDINAL="299" NAME="?CompactDatabase@CdbDBEngine@@QAEXPBG00J0@Z" PURGE="20" COMMENT="" />
    <EXPORT ORDINAL="300" NAME="?CopyQueryDef@CdbRecordset@@QAE?AVCdbQueryDef@@XZ" PURGE="4" COMMENT="" />
    <EXPORT ORDINAL="301" NAME="?CreateDatabase@CdbWorkspace@@QAE?AVCdbDatabase@@PBG0J@Z" PURGE="16" COMMENT="" />
    <EXPORT ORDINAL="302" NAME="?CreateField@CdbIndex@@QAE?AVCdbField@@PBGJJ@Z" PURGE="16" COMMENT="" />
    <EXPORT ORDINAL="303" NAME="?CreateField@CdbRelation@@QAE?AVCdbField@@PBGJJ@Z" PURGE="16" COMMENT="" />
    <EXPORT ORDINAL="304" NAME="?CreateField@CdbTableDef@@QAE?AVCdbField@@PBGJJ@Z" PURGE="16" COMMENT="" />
    <EXPORT ORDINAL="305" NAME="?CreateGroup@CdbUser@@QAE?AVCdbGroup@@PBG0@Z" PURGE="12" COMMENT="" />
    <EXPORT ORDINAL="306" NAME="?CreateGroup@CdbWorkspace@@QAE?AVCdbGroup@@PBG0@Z" PURGE="12" COMMENT="" />
    <EXPORT ORDINAL="307" NAME="?CreateIndex@CdbTableDef@@QAE?AVCdbIndex@@PBG@Z" PURGE="8" COMMENT="" />
    <EXPORT ORDINAL="308" NAME="?CreateProperty@CdbDatabase@@QAE?AVCdbProperty@@PBGJPAUtagVARIANT@@H@Z" PURGE="20" COMMENT="" />
    <EXPORT ORDINAL="309" NAME="?CreateProperty@CdbDocument@@QAE?AVCdbProperty@@PBGJPAUtagVARIANT@@H@Z" PURGE="20" COMMENT="" />
    <EXPORT ORDINAL="310" NAME="?CreateProperty@CdbField@@QAE?AVCdbProperty@@PBGJPAUtagVARIANT@@H@Z" PURGE="20" COMMENT="" />
    <EXPORT ORDINAL="311" NAME="?CreateProperty@CdbIndex@@QAE?AVCdbProperty@@PBGJPAUtagVARIANT@@H@Z" PURGE="20" COMMENT="" />
    <EXPORT ORDINAL="312" NAME="?CreateProperty@CdbQueryDef@@QAE?AVCdbProperty@@PBGJPAUtagVARIANT@@H@Z" PURGE="20" COMMENT="" />
    <EXPORT ORDINAL="313" NAME="?CreateProperty@CdbTableDef@@QAE?AVCdbProperty@@PBGJPAUtagVARIANT@@H@Z" PURGE="20" COMMENT="" />
    <EXPORT ORDINAL="314" NAME="?CreateQueryDef@CdbConnection@@QAE?AVCdbQueryDef@@PBG0@Z" PURGE="12" COMMENT="" />
    <EXPORT ORDINAL="315" NAME="?CreateQueryDef@CdbDatabase@@QAE?AVCdbQueryDef@@PBG0@Z" PURGE="12" COMMENT="" />
    <EXPORT ORDINAL="316" NAME="?CreateRelation@CdbDatabase@@QAE?AVCdbRelation@@PBG00J@Z" PURGE="20" COMMENT="" />
    <EXPORT ORDINAL="317" NAME="?CreateTableDef@CdbDatabase@@QAE?AVCdbTableDef@@PBGJ00@Z" PURGE="20" COMMENT="" />
    <EXPORT ORDINAL="318" NAME="?CreateUser@CdbGroup@@QAE?AVCdbUser@@PBG00@Z" PURGE="16" COMMENT="" />
    <EXPORT ORDINAL="319" NAME="?CreateUser@CdbWorkspace@@QAE?AVCdbUser@@PBG00@Z" PURGE="16" COMMENT="" />
    <EXPORT ORDINAL="320" NAME="?CreateWorkspace@CdbDBEngine@@QAE?AVCdbWorkspace@@PBG00J@Z" PURGE="20" COMMENT="" />
    <EXPORT ORDINAL="321" NAME="?Delete@CdbDynamicCollection@@UAEXPBG@Z" PURGE="4" COMMENT="" />
    <EXPORT ORDINAL="322" NAME="?Delete@CdbRecordset@@QAEXXZ" PURGE="0" COMMENT="" />
    <EXPORT ORDINAL="323" NAME="?Delete@CdbStaticCollection@@UAEXPBG@Z" PURGE="4" COMMENT="" />
    <EXPORT ORDINAL="324" NAME="?Edit@CdbRecordset@@QAEXXZ" PURGE="0" COMMENT="" />
    <EXPORT ORDINAL="325" NAME="?Execute@CdbConnection@@QAEXPBGJ@Z" PURGE="8" COMMENT="" />
    <EXPORT ORDINAL="326" NAME="?Execute@CdbDatabase@@QAEXPBGJ@Z" PURGE="8" COMMENT="" />
    <EXPORT ORDINAL="327" NAME="?Execute@CdbQueryDef@@QAEXJ@Z" PURGE="4" COMMENT="" />
    <EXPORT ORDINAL="328" NAME="?Exists@CdbOleObject@@QAEHXZ" PURGE="0" COMMENT="" />
    <EXPORT ORDINAL="329" NAME="?FieldSize@CdbField@@QAEJXZ" PURGE="0" COMMENT="" />
    <EXPORT ORDINAL="330" NAME="?FillCache@CdbRecordset@@QAEXJPAVCdbBookmark@@@Z" PURGE="8" COMMENT="" />
    <EXPORT ORDINAL="331" NAME="?FindFirst@CdbRecordset@@QAEXPBG@Z" PURGE="4" COMMENT="" />
    <EXPORT ORDINAL="332" NAME="?FindLast@CdbRecordset@@QAEXPBG@Z" PURGE="4" COMMENT="" />
    <EXPORT ORDINAL="333" NAME="?FindNext@CdbRecordset@@QAEXPBG@Z" PURGE="4" COMMENT="" />
    <EXPORT ORDINAL="334" NAME="?FindPrevious@CdbRecordset@@QAEXPBG@Z" PURGE="4" COMMENT="" />
    <EXPORT ORDINAL="335" NAME="?GetAbsolutePosition@CdbRecordset@@QAEJXZ" PURGE="0" COMMENT="" />
    <EXPORT ORDINAL="336" NAME="?GetAllPermissions@CdbContainer@@QAEJXZ" PURGE="0" COMMENT="" />
    <EXPORT ORDINAL="337" NAME="?GetAllPermissions@CdbDocument@@QAEJXZ" PURGE="0" COMMENT="" />
    <EXPORT ORDINAL="338" NAME="?GetAllowZeroLength@CdbField@@QAEHXZ" PURGE="0" COMMENT="" />
    <EXPORT ORDINAL="339" NAME="?GetAttributes@CdbField@@QAEJXZ" PURGE="0" COMMENT="" />
    <EXPORT ORDINAL="340" NAME="?GetAttributes@CdbRelation@@QAEJXZ" PURGE="0" COMMENT="" />
    <EXPORT ORDINAL="341" NAME="?GetAttributes@CdbTableDef@@QAEJXZ" PURGE="0" COMMENT="" />
    <EXPORT ORDINAL="342" NAME="?GetBOF@CdbRecordset@@QAEHXZ" PURGE="0" COMMENT="" />
    <EXPORT ORDINAL="343" NAME="?GetBatchCollisionCount@CdbRecordset@@QAEJXZ" PURGE="0" COMMENT="" />
    <EXPORT ORDINAL="344" NAME="?GetBatchCollisions@CdbRecordset@@QAE?AVCOleVariant@@XZ" PURGE="4" COMMENT="" />
    <EXPORT ORDINAL="345" NAME="?GetBatchSize@CdbRecordset@@QAEJXZ" PURGE="0" COMMENT="" />
    <EXPORT ORDINAL="346" NAME="?GetBookmark@CdbRecordset@@QAE?AVCdbBookmark@@XZ" PURGE="4" COMMENT="" />
    <EXPORT ORDINAL="347" NAME="?GetBookmarkable@CdbRecordset@@QAEHXZ" PURGE="0" COMMENT="" />
    <EXPORT ORDINAL="348" NAME="?GetCacheSize@CdbQueryDef@@QAEJXZ" PURGE="0" COMMENT="" />
    <EXPORT ORDINAL="349" NAME="?GetCacheSize@CdbRecordset@@QAEJXZ" PURGE="0" COMMENT="" />
    <EXPORT ORDINAL="350" NAME="?GetCacheStart@CdbRecordset@@QAE?AVCdbBookmark@@XZ" PURGE="4" COMMENT="" />
    <EXPORT ORDINAL="351" NAME="?GetChunk@CdbField@@QAE?AVCOleVariant@@JJ@Z" PURGE="12" COMMENT="" />
    <EXPORT ORDINAL="352" NAME="?GetClustered@CdbIndex@@QAEHXZ" PURGE="0" COMMENT="" />
    <EXPORT ORDINAL="353" NAME="?GetCollatingOrder@CdbDatabase@@QAEJXZ" PURGE="0" COMMENT="" />
    <EXPORT ORDINAL="354" NAME="?GetCollatingOrder@CdbField@@QAEJXZ" PURGE="0" COMMENT="" />
    <EXPORT ORDINAL="355" NAME="?GetConflictTable@CdbTableDef@@QAE?AVCString@@XZ" PURGE="4" COMMENT="" />
    <EXPORT ORDINAL="356" NAME="?GetConnect@CdbConnection@@QAE?AVCString@@XZ" PURGE="4" COMMENT="" />
    <EXPORT ORDINAL="357" NAME="?GetConnect@CdbDatabase@@QAE?AVCString@@XZ" PURGE="4" COMMENT="" />
    <EXPORT ORDINAL="358" NAME="?GetConnect@CdbQueryDef@@QAE?AVCString@@XZ" PURGE="4" COMMENT="" />
    <EXPORT ORDINAL="359" NAME="?GetConnect@CdbTableDef@@QAE?AVCString@@XZ" PURGE="4" COMMENT="" />
    <EXPORT ORDINAL="360" NAME="?GetConnection@CdbDatabase@@QAE?AVCdbConnection@@XZ" PURGE="4" COMMENT="" />
    <EXPORT ORDINAL="361" NAME="?GetConnection@CdbRecordset@@QAE?AVCdbConnection@@XZ" PURGE="4" COMMENT="" />
    <EXPORT ORDINAL="362" NAME="?GetContainer@CdbDocument@@QAE?AVCString@@XZ" PURGE="4" COMMENT="" />
    <EXPORT ORDINAL="363" NAME="?GetCount@CdbConnections@@UAEJXZ" PURGE="0" COMMENT="" />
    <EXPORT ORDINAL="364" NAME="?GetCount@CdbDynamicCollection@@UAEJXZ" PURGE="0" COMMENT="" />
    <EXPORT ORDINAL="365" NAME="?GetCount@CdbStaticCollection@@UAEJXZ" PURGE="0" COMMENT="" />
    <EXPORT ORDINAL="366" NAME="?GetDataUpdatable@CdbField@@QAEHXZ" PURGE="0" COMMENT="" />
    <EXPORT ORDINAL="367" NAME="?GetDatabase@CdbConnection@@QAE?AVCdbDatabase@@XZ" PURGE="4" COMMENT="" />
    <EXPORT ORDINAL="368" NAME="?GetDateCreated@CdbDocument@@QAE?AVCOleDateTime@@XZ" PURGE="4" COMMENT="" />
    <EXPORT ORDINAL="369" NAME="?GetDateCreated@CdbQueryDef@@QAE?AVCOleDateTime@@XZ" PURGE="4" COMMENT="" />
    <EXPORT ORDINAL="370" NAME="?GetDateCreated@CdbRecordset@@QAE?AVCOleDateTime@@XZ" PURGE="4" COMMENT="" />
    <EXPORT ORDINAL="371" NAME="?GetDateCreated@CdbTableDef@@QAE?AVCOleDateTime@@XZ" PURGE="4" COMMENT="" />
    <EXPORT ORDINAL="372" NAME="?GetDefaultCursorDriver@CdbWorkspace@@QAEJXZ" PURGE="0" COMMENT="" />
    <EXPORT ORDINAL="373" NAME="?GetDefaultType@CdbDBEngine@@QAEJXZ" PURGE="0" COMMENT="" />
    <EXPORT ORDINAL="374" NAME="?GetDefaultValue@CdbField@@QAE?AVCString@@XZ" PURGE="4" COMMENT="" />
    <EXPORT ORDINAL="375" NAME="?GetDelayedInterface@CdbWorkspaces@@QAEXXZ" PURGE="0" COMMENT="" />
    <EXPORT ORDINAL="376" NAME="?GetDescription@CdbError@@QAE?AVCString@@XZ" PURGE="4" COMMENT="" />
    <EXPORT ORDINAL="377" NAME="?GetDescription@CdbLastOLEError@@QAE?AVCString@@XZ" PURGE="4" COMMENT="" />
    <EXPORT ORDINAL="378" NAME="?GetDesignMasterID@CdbDatabase@@QAE?AVCString@@XZ" PURGE="4" COMMENT="" />
    <EXPORT ORDINAL="379" NAME="?GetDirection@CdbParameter@@QAEFXZ" PURGE="0" COMMENT="" />
    <EXPORT ORDINAL="380" NAME="?GetDistinctCount@CdbIndex@@QAEJXZ" PURGE="0" COMMENT="" />
    <EXPORT ORDINAL="381" NAME="?GetEOF@CdbRecordset@@QAEHXZ" PURGE="0" COMMENT="" />
    <EXPORT ORDINAL="382" NAME="?GetEditMode@CdbRecordset@@QAEFXZ" PURGE="0" COMMENT="" />
    <EXPORT ORDINAL="383" NAME="?GetField@CdbRecordset@@QAE?AVCOleVariant@@AAV2@@Z" PURGE="8" COMMENT="" />
    <EXPORT ORDINAL="384" NAME="?GetField@CdbRecordset@@QAE?AVCOleVariant@@AAVCString@@@Z" PURGE="8" COMMENT="" />
    <EXPORT ORDINAL="385" NAME="?GetField@CdbRecordset@@QAE?AVCOleVariant@@J@Z" PURGE="8" COMMENT="" />
    <EXPORT ORDINAL="386" NAME="?GetField@CdbRecordset@@QAE?AVCOleVariant@@PBG@Z" PURGE="8" COMMENT="" />
    <EXPORT ORDINAL="387" NAME="?GetFieldV@CdbRecordset@@QAEXAAVCOleVariant@@0@Z" PURGE="8" COMMENT="" />
    <EXPORT ORDINAL="388" NAME="?GetFilter@CdbRecordset@@QAE?AVCString@@XZ" PURGE="4" COMMENT="" />
    <EXPORT ORDINAL="389" NAME="?GetForeign@CdbIndex@@QAEHXZ" PURGE="0" COMMENT="" />
    <EXPORT ORDINAL="390" NAME="?GetForeignName@CdbField@@QAE?AVCString@@XZ" PURGE="4" COMMENT="" />
    <EXPORT ORDINAL="391" NAME="?GetForeignTable@CdbRelation@@QAE?AVCString@@XZ" PURGE="4" COMMENT="" />
    <EXPORT ORDINAL="392" NAME="?GetHelpContext@CdbError@@QAEJXZ" PURGE="0" COMMENT="" />
    <EXPORT ORDINAL="393" NAME="?GetHelpContext@CdbLastOLEError@@QAEKXZ" PURGE="0" COMMENT="" />
    <EXPORT ORDINAL="394" NAME="?GetHelpFile@CdbError@@QAE?AVCString@@XZ" PURGE="4" COMMENT="" />
    <EXPORT ORDINAL="395" NAME="?GetHelpFile@CdbLastOLEError@@QAE?AVCString@@XZ" PURGE="4" COMMENT="" />
    <EXPORT ORDINAL="396" NAME="?GetIgnoreNulls@CdbIndex@@QAEHXZ" PURGE="0" COMMENT="" />
    <EXPORT ORDINAL="397" NAME="?GetIndex@CdbRecordset@@QAE?AVCString@@XZ" PURGE="4" COMMENT="" />
    <EXPORT ORDINAL="398" NAME="?GetInherit@CdbContainer@@QAEHXZ" PURGE="0" COMMENT="" />
    <EXPORT ORDINAL="399" NAME="?GetInherited@CdbProperty@@QAEHXZ" PURGE="0" COMMENT="" />
    <EXPORT ORDINAL="400" NAME="?GetIniPath@CdbDBEngine@@QAE?AVCString@@XZ" PURGE="4" COMMENT="" />
    <EXPORT ORDINAL="401" NAME="?GetInterface@CdbOleObject@@QBEPAUIUnknown@@HH@Z" PURGE="8" COMMENT="" />
    <EXPORT ORDINAL="402" NAME="?GetIsolateODBCTrans@CdbWorkspace@@QAEHXZ" PURGE="0" COMMENT="" />
    <EXPORT ORDINAL="403" NAME="?GetLastModified@CdbRecordset@@QAE?AVCdbBookmark@@XZ" PURGE="4" COMMENT="" />
    <EXPORT ORDINAL="404" NAME="?GetLastUpdated@CdbDocument@@QAE?AVCOleDateTime@@XZ" PURGE="4" COMMENT="" />
    <EXPORT ORDINAL="405" NAME="?GetLastUpdated@CdbQueryDef@@QAE?AVCOleDateTime@@XZ" PURGE="4" COMMENT="" />
    <EXPORT ORDINAL="406" NAME="?GetLastUpdated@CdbRecordset@@QAE?AVCOleDateTime@@XZ" PURGE="4" COMMENT="" />
    <EXPORT ORDINAL="407" NAME="?GetLastUpdated@CdbTableDef@@QAE?AVCOleDateTime@@XZ" PURGE="4" COMMENT="" />
    <EXPORT ORDINAL="408" NAME="?GetLockEdits@CdbRecordset@@QAEHXZ" PURGE="0" COMMENT="" />
    <EXPORT ORDINAL="409" NAME="?GetLoginTimeout@CdbDBEngine@@QAEFXZ" PURGE="0" COMMENT="" />
    <EXPORT ORDINAL="410" NAME="?GetLoginTimeout@CdbWorkspace@@QAEJXZ" PURGE="0" COMMENT="" />
    <EXPORT ORDINAL="411" NAME="?GetMaxRecords@CdbQueryDef@@QAEJXZ" PURGE="0" COMMENT="" />
    <EXPORT ORDINAL="412" NAME="?GetName@CdbConnection@@UAE?AVCString@@XZ" PURGE="4" COMMENT="" />
    <EXPORT ORDINAL="413" NAME="?GetName@CdbContainer@@UAE?AVCString@@XZ" PURGE="4" COMMENT="" />
    <EXPORT ORDINAL="414" NAME="?GetName@CdbDatabase@@UAE?AVCString@@XZ" PURGE="4" COMMENT="" />
    <EXPORT ORDINAL="415" NAME="?GetName@CdbDocument@@UAE?AVCString@@XZ" PURGE="4" COMMENT="" />
    <EXPORT ORDINAL="416" NAME="?GetName@CdbField@@UAE?AVCString@@XZ" PURGE="4" COMMENT="" />
    <EXPORT ORDINAL="417" NAME="?GetName@CdbGroup@@UAE?AVCString@@XZ" PURGE="4" COMMENT="" />
    <EXPORT ORDINAL="418" NAME="?GetName@CdbIndex@@UAE?AVCString@@XZ" PURGE="4" COMMENT="" />
    <EXPORT ORDINAL="419" NAME="?GetName@CdbObject@@UAE?AVCString@@XZ" PURGE="4" COMMENT="" />
    <EXPORT ORDINAL="420" NAME="?GetName@CdbParameter@@UAE?AVCString@@XZ" PURGE="4" COMMENT="" />
    <EXPORT ORDINAL="421" NAME="?GetName@CdbProperty@@UAE?AVCString@@XZ" PURGE="4" COMMENT="" />
    <EXPORT ORDINAL="422" NAME="?GetName@CdbQueryDef@@UAE?AVCString@@XZ" PURGE="4" COMMENT="" />
    <EXPORT ORDINAL="423" NAME="?GetName@CdbRecordset@@UAE?AVCString@@XZ" PURGE="4" COMMENT="" />
    <EXPORT ORDINAL="424" NAME="?GetName@CdbRelation@@UAE?AVCString@@XZ" PURGE="4" COMMENT="" />
    <EXPORT ORDINAL="425" NAME="?GetName@CdbTableDef@@UAE?AVCString@@XZ" PURGE="4" COMMENT="" />
    <EXPORT ORDINAL="426" NAME="?GetName@CdbUser@@UAE?AVCString@@XZ" PURGE="4" COMMENT="" />
    <EXPORT ORDINAL="427" NAME="?GetName@CdbWorkspace@@UAE?AVCString@@XZ" PURGE="4" COMMENT="" />
    <EXPORT ORDINAL="428" NAME="?GetNoMatch@CdbRecordset@@QAEHXZ" PURGE="0" COMMENT="" />
    <EXPORT ORDINAL="429" NAME="?GetNumber@CdbError@@QAEJXZ" PURGE="0" COMMENT="" />
    <EXPORT ORDINAL="430" NAME="?GetODBCTimeout@CdbQueryDef@@QAEFXZ" PURGE="0" COMMENT="" />
    <EXPORT ORDINAL="431" NAME="?GetOrdinalPosition@CdbField@@QAEFXZ" PURGE="0" COMMENT="" />
    <EXPORT ORDINAL="432" NAME="?GetOriginalValue@CdbField@@QAE?AVCOleVariant@@XZ" PURGE="4" COMMENT="" />
    <EXPORT ORDINAL="433" NAME="?GetOwner@CdbContainer@@QAE?AVCString@@XZ" PURGE="4" COMMENT="" />
    <EXPORT ORDINAL="434" NAME="?GetOwner@CdbDocument@@QAE?AVCString@@XZ" PURGE="4" COMMENT="" />
    <EXPORT ORDINAL="435" NAME="?GetPartialReplica@CdbRelation@@QAEHXZ" PURGE="0" COMMENT="" />
    <EXPORT ORDINAL="436" NAME="?GetPercentPosition@CdbRecordset@@QAEMXZ" PURGE="0" COMMENT="" />
    <EXPORT ORDINAL="437" NAME="?GetPermissions@CdbContainer@@QAEJXZ" PURGE="0" COMMENT="" />
    <EXPORT ORDINAL="438" NAME="?GetPermissions@CdbDocument@@QAEJXZ" PURGE="0" COMMENT="" />
    <EXPORT ORDINAL="439" NAME="?GetPrepare@CdbQueryDef@@QAE?AVCOleVariant@@XZ" PURGE="4" COMMENT="" />
    <EXPORT ORDINAL="440" NAME="?GetPrimary@CdbIndex@@QAEHXZ" PURGE="0" COMMENT="" />
    <EXPORT ORDINAL="441" NAME="?GetQueryTimeout@CdbConnection@@QAEFXZ" PURGE="0" COMMENT="" />
    <EXPORT ORDINAL="442" NAME="?GetQueryTimeout@CdbDatabase@@QAEFXZ" PURGE="0" COMMENT="" />
    <EXPORT ORDINAL="443" NAME="?GetRecordCount@CdbRecordset@@QAEJXZ" PURGE="0" COMMENT="" />
    <EXPORT ORDINAL="444" NAME="?GetRecordCount@CdbTableDef@@QAEJXZ" PURGE="0" COMMENT="" />
    <EXPORT ORDINAL="445" NAME="?GetRecordStatus@CdbRecordset@@QAEFXZ" PURGE="0" COMMENT="" />
    <EXPORT ORDINAL="446" NAME="?GetRecordsAffected@CdbConnection@@QAEJXZ" PURGE="0" COMMENT="" />
    <EXPORT ORDINAL="447" NAME="?GetRecordsAffected@CdbDatabase@@QAEJXZ" PURGE="0" COMMENT="" />
    <EXPORT ORDINAL="448" NAME="?GetRecordsAffected@CdbQueryDef@@QAEJXZ" PURGE="0" COMMENT="" />
    <EXPORT ORDINAL="449" NAME="?GetReplicaFilter@CdbTableDef@@QAE?AVCOleVariant@@XZ" PURGE="4" COMMENT="" />
    <EXPORT ORDINAL="450" NAME="?GetReplicaID@CdbDatabase@@QAE?AVCString@@XZ" PURGE="4" COMMENT="" />
    <EXPORT ORDINAL="451" NAME="?GetRequired@CdbField@@QAEHXZ" PURGE="0" COMMENT="" />
    <EXPORT ORDINAL="452" NAME="?GetRequired@CdbIndex@@QAEHXZ" PURGE="0" COMMENT="" />
    <EXPORT ORDINAL="453" NAME="?GetRestartable@CdbRecordset@@QAEHXZ" PURGE="0" COMMENT="" />
    <EXPORT ORDINAL="454" NAME="?GetReturnsRecords@CdbQueryDef@@QAEHXZ" PURGE="0" COMMENT="" />
    <EXPORT ORDINAL="455" NAME="?GetRows@CdbRecordset@@QAE?AVCOleVariant@@J@Z" PURGE="8" COMMENT="" />
    <EXPORT ORDINAL="456" NAME="?GetRowsEx@CdbRecordset@@QAEJPAXJPAUDAORSETBINDING@@J0JJ@Z" PURGE="28" COMMENT="" />
    <EXPORT ORDINAL="457" NAME="?GetSQL@CdbQueryDef@@QAE?AVCString@@XZ" PURGE="4" COMMENT="" />
    <EXPORT ORDINAL="458" NAME="?GetSize@CdbField@@QAEJXZ" PURGE="0" COMMENT="" />
    <EXPORT ORDINAL="459" NAME="?GetSort@CdbRecordset@@QAE?AVCString@@XZ" PURGE="4" COMMENT="" />
    <EXPORT ORDINAL="460" NAME="?GetSource@CdbError@@QAE?AVCString@@XZ" PURGE="4" COMMENT="" />
    <EXPORT ORDINAL="461" NAME="?GetSource@CdbLastOLEError@@QAE?AVCString@@XZ" PURGE="4" COMMENT="" />
    <EXPORT ORDINAL="462" NAME="?GetSourceField@CdbField@@QAE?AVCString@@XZ" PURGE="4" COMMENT="" />
    <EXPORT ORDINAL="463" NAME="?GetSourceTable@CdbField@@QAE?AVCString@@XZ" PURGE="4" COMMENT="" />
    <EXPORT ORDINAL="464" NAME="?GetSourceTableName@CdbTableDef@@QAE?AVCString@@XZ" PURGE="4" COMMENT="" />
    <EXPORT ORDINAL="465" NAME="?GetStillExecuting@CdbConnection@@QAEHXZ" PURGE="0" COMMENT="" />
    <EXPORT ORDINAL="466" NAME="?GetStillExecuting@CdbQueryDef@@QAEHXZ" PURGE="0" COMMENT="" />
    <EXPORT ORDINAL="467" NAME="?GetStillExecuting@CdbRecordset@@QAEHXZ" PURGE="0" COMMENT="" />
    <EXPORT ORDINAL="468" NAME="?GetSystemDB@CdbDBEngine@@QAE?AVCString@@XZ" PURGE="4" COMMENT="" />
    <EXPORT ORDINAL="469" NAME="?GetTable@CdbRelation@@QAE?AVCString@@XZ" PURGE="4" COMMENT="" />
    <EXPORT ORDINAL="470" NAME="?GetTransactions@CdbConnection@@QAEHXZ" PURGE="0" COMMENT="" />
    <EXPORT ORDINAL="471" NAME="?GetTransactions@CdbDatabase@@QAEHXZ" PURGE="0" COMMENT="" />
    <EXPORT ORDINAL="472" NAME="?GetTransactions@CdbRecordset@@QAEHXZ" PURGE="0" COMMENT="" />
    <EXPORT ORDINAL="473" NAME="?GetType@CdbField@@QAEFXZ" PURGE="0" COMMENT="" />
    <EXPORT ORDINAL="474" NAME="?GetType@CdbParameter@@QAEFXZ" PURGE="0" COMMENT="" />
    <EXPORT ORDINAL="475" NAME="?GetType@CdbProperty@@QAEFXZ" PURGE="0" COMMENT="" />
    <EXPORT ORDINAL="476" NAME="?GetType@CdbQueryDef@@QAEFXZ" PURGE="0" COMMENT="" />
    <EXPORT ORDINAL="477" NAME="?GetType@CdbRecordset@@QAEFXZ" PURGE="0" COMMENT="" />
    <EXPORT ORDINAL="478" NAME="?GetType@CdbWorkspace@@QAEJXZ" PURGE="0" COMMENT="" />
    <EXPORT ORDINAL="479" NAME="?GetUnique@CdbIndex@@QAEHXZ" PURGE="0" COMMENT="" />
    <EXPORT ORDINAL="480" NAME="?GetUpdatable@CdbConnection@@QAEHXZ" PURGE="0" COMMENT="" />
    <EXPORT ORDINAL="481" NAME="?GetUpdatable@CdbDatabase@@QAEHXZ" PURGE="0" COMMENT="" />
    <EXPORT ORDINAL="482" NAME="?GetUpdatable@CdbQueryDef@@QAEHXZ" PURGE="0" COMMENT="" />
    <EXPORT ORDINAL="483" NAME="?GetUpdatable@CdbRecordset@@QAEHXZ" PURGE="0" COMMENT="" />
    <EXPORT ORDINAL="484" NAME="?GetUpdatable@CdbTableDef@@QAEHXZ" PURGE="0" COMMENT="" />
    <EXPORT ORDINAL="485" NAME="?GetUpdateOptions@CdbRecordset@@QAEJXZ" PURGE="0" COMMENT="" />
    <EXPORT ORDINAL="486" NAME="?GetUserNameW@CdbContainer@@QAE?AVCString@@XZ" PURGE="4" COMMENT="" />
    <EXPORT ORDINAL="487" NAME="?GetUserNameW@CdbDocument@@QAE?AVCString@@XZ" PURGE="4" COMMENT="" />
    <EXPORT ORDINAL="488" NAME="?GetUserNameW@CdbWorkspace@@QAE?AVCString@@XZ" PURGE="4" COMMENT="" />
    <EXPORT ORDINAL="489" NAME="?GetValidateOnSet@CdbField@@QAEHXZ" PURGE="0" COMMENT="" />
    <EXPORT ORDINAL="490" NAME="?GetValidationRule@CdbField@@QAE?AVCString@@XZ" PURGE="4" COMMENT="" />
    <EXPORT ORDINAL="491" NAME="?GetValidationRule@CdbRecordset@@QAE?AVCString@@XZ" PURGE="4" COMMENT="" />
    <EXPORT ORDINAL="492" NAME="?GetValidationRule@CdbTableDef@@QAE?AVCString@@XZ" PURGE="4" COMMENT="" />
    <EXPORT ORDINAL="493" NAME="?GetValidationText@CdbField@@QAE?AVCString@@XZ" PURGE="4" COMMENT="" />
    <EXPORT ORDINAL="494" NAME="?GetValidationText@CdbRecordset@@QAE?AVCString@@XZ" PURGE="4" COMMENT="" />
    <EXPORT ORDINAL="495" NAME="?GetValidationText@CdbTableDef@@QAE?AVCString@@XZ" PURGE="4" COMMENT="" />
    <EXPORT ORDINAL="496" NAME="?GetValue@CdbField@@QAE?AVCOleVariant@@XZ" PURGE="4" COMMENT="" />
    <EXPORT ORDINAL="497" NAME="?GetValue@CdbParameter@@QAE?AVCOleVariant@@XZ" PURGE="4" COMMENT="" />
    <EXPORT ORDINAL="498" NAME="?GetValue@CdbProperty@@QAE?AVCOleVariant@@XZ" PURGE="4" COMMENT="" />
    <EXPORT ORDINAL="499" NAME="?GetVersion@CdbDBEngine@@QAE?AVCString@@XZ" PURGE="4" COMMENT="" />
    <EXPORT ORDINAL="500" NAME="?GetVersion@CdbDatabase@@QAE?AVCString@@XZ" PURGE="4" COMMENT="" />
    <EXPORT ORDINAL="501" NAME="?GetVisibleValue@CdbField@@QAE?AVCOleVariant@@XZ" PURGE="4" COMMENT="" />
    <EXPORT ORDINAL="502" NAME="?Idle@CdbDBEngine@@QAEXJ@Z" PURGE="4" COMMENT="" />
    <EXPORT ORDINAL="503" NAME="?Item@CdbConnections@@QAE?AVCdbConnection@@J@Z" PURGE="8" COMMENT="" />
    <EXPORT ORDINAL="504" NAME="?Item@CdbConnections@@QAE?AVCdbConnection@@PBG@Z" PURGE="8" COMMENT="" />
    <EXPORT ORDINAL="505" NAME="?Item@CdbContainers@@QAE?AVCdbContainer@@J@Z" PURGE="8" COMMENT="" />
    <EXPORT ORDINAL="506" NAME="?Item@CdbContainers@@QAE?AVCdbContainer@@PBG@Z" PURGE="8" COMMENT="" />
    <EXPORT ORDINAL="507" NAME="?Item@CdbDatabases@@QAE?AVCdbDatabase@@J@Z" PURGE="8" COMMENT="" />
    <EXPORT ORDINAL="508" NAME="?Item@CdbDatabases@@QAE?AVCdbDatabase@@PBG@Z" PURGE="8" COMMENT="" />
    <EXPORT ORDINAL="509" NAME="?Item@CdbDocuments@@QAE?AVCdbDocument@@J@Z" PURGE="8" COMMENT="" />
    <EXPORT ORDINAL="510" NAME="?Item@CdbDocuments@@QAE?AVCdbDocument@@PBG@Z" PURGE="8" COMMENT="" />
    <EXPORT ORDINAL="511" NAME="?Item@CdbErrors@@QAE?AVCdbError@@J@Z" PURGE="8" COMMENT="" />
    <EXPORT ORDINAL="512" NAME="?Item@CdbErrors@@QAE?AVCdbError@@PBG@Z" PURGE="8" COMMENT="" />
    <EXPORT ORDINAL="513" NAME="?Item@CdbFields@@QAE?AVCdbField@@J@Z" PURGE="8" COMMENT="" />
    <EXPORT ORDINAL="514" NAME="?Item@CdbFields@@QAE?AVCdbField@@PBG@Z" PURGE="8" COMMENT="" />
    <EXPORT ORDINAL="515" NAME="?Item@CdbGroups@@QAE?AVCdbGroup@@J@Z" PURGE="8" COMMENT="" />
    <EXPORT ORDINAL="516" NAME="?Item@CdbGroups@@QAE?AVCdbGroup@@PBG@Z" PURGE="8" COMMENT="" />
    <EXPORT ORDINAL="517" NAME="?Item@CdbIndexFields@@QAE?AVCdbField@@J@Z" PURGE="8" COMMENT="" />
    <EXPORT ORDINAL="518" NAME="?Item@CdbIndexFields@@QAE?AVCdbField@@PBG@Z" PURGE="8" COMMENT="" />
    <EXPORT ORDINAL="519" NAME="?Item@CdbIndexes@@QAE?AVCdbIndex@@J@Z" PURGE="8" COMMENT="" />
    <EXPORT ORDINAL="520" NAME="?Item@CdbIndexes@@QAE?AVCdbIndex@@PBG@Z" PURGE="8" COMMENT="" />
    <EXPORT ORDINAL="521" NAME="?Item@CdbParameters@@QAE?AVCdbParameter@@J@Z" PURGE="8" COMMENT="" />
    <EXPORT ORDINAL="522" NAME="?Item@CdbParameters@@QAE?AVCdbParameter@@PBG@Z" PURGE="8" COMMENT="" />
    <EXPORT ORDINAL="523" NAME="?Item@CdbProperties@@QAE?AVCdbProperty@@J@Z" PURGE="8" COMMENT="" />
    <EXPORT ORDINAL="524" NAME="?Item@CdbProperties@@QAE?AVCdbProperty@@PBG@Z" PURGE="8" COMMENT="" />
    <EXPORT ORDINAL="525" NAME="?Item@CdbQueryDefs@@QAE?AVCdbQueryDef@@J@Z" PURGE="8" COMMENT="" />
    <EXPORT ORDINAL="526" NAME="?Item@CdbQueryDefs@@QAE?AVCdbQueryDef@@PBG@Z" PURGE="8" COMMENT="" />
    <EXPORT ORDINAL="527" NAME="?Item@CdbRecordsets@@QAE?AVCdbRecordset@@J@Z" PURGE="8" COMMENT="" />
    <EXPORT ORDINAL="528" NAME="?Item@CdbRecordsets@@QAE?AVCdbRecordset@@PBG@Z" PURGE="8" COMMENT="" />
    <EXPORT ORDINAL="529" NAME="?Item@CdbRelations@@QAE?AVCdbRelation@@J@Z" PURGE="8" COMMENT="" />
    <EXPORT ORDINAL="530" NAME="?Item@CdbRelations@@QAE?AVCdbRelation@@PBG@Z" PURGE="8" COMMENT="" />
    <EXPORT ORDINAL="531" NAME="?Item@CdbTableDefs@@QAE?AVCdbTableDef@@J@Z" PURGE="8" COMMENT="" />
    <EXPORT ORDINAL="532" NAME="?Item@CdbTableDefs@@QAE?AVCdbTableDef@@PBG@Z" PURGE="8" COMMENT="" />
    <EXPORT ORDINAL="533" NAME="?Item@CdbUsers@@QAE?AVCdbUser@@J@Z" PURGE="8" COMMENT="" />
    <EXPORT ORDINAL="534" NAME="?Item@CdbUsers@@QAE?AVCdbUser@@PBG@Z" PURGE="8" COMMENT="" />
    <EXPORT ORDINAL="535" NAME="?Item@CdbWorkspaces@@QAE?AVCdbWorkspace@@J@Z" PURGE="8" COMMENT="" />
    <EXPORT ORDINAL="536" NAME="?Item@CdbWorkspaces@@QAE?AVCdbWorkspace@@PBG@Z" PURGE="8" COMMENT="" />
    <EXPORT ORDINAL="537" NAME="?MakeReplica@CdbDatabase@@QAEXPBG0J@Z" PURGE="12" COMMENT="" />
    <EXPORT ORDINAL="538" NAME="?Move@CdbRecordset@@QAEXJPAVCdbBookmark@@@Z" PURGE="8" COMMENT="" />
    <EXPORT ORDINAL="539" NAME="?MoveFirst@CdbRecordset@@QAEXXZ" PURGE="0" COMMENT="" />
    <EXPORT ORDINAL="540" NAME="?MoveLast@CdbRecordset@@QAEXJ@Z" PURGE="4" COMMENT="" />
    <EXPORT ORDINAL="541" NAME="?MoveNext@CdbRecordset@@QAEXXZ" PURGE="0" COMMENT="" />
    <EXPORT ORDINAL="542" NAME="?MovePrevious@CdbRecordset@@QAEXXZ" PURGE="0" COMMENT="" />
    <EXPORT ORDINAL="543" NAME="?NewPassword@CdbDatabase@@QAEXPBG0@Z" PURGE="8" COMMENT="" />
    <EXPORT ORDINAL="544" NAME="?NewPassword@CdbUser@@QAEXPBG0@Z" PURGE="8" COMMENT="" />
    <EXPORT ORDINAL="545" NAME="?NextRecordset@CdbRecordset@@QAEHXZ" PURGE="0" COMMENT="" />
    <EXPORT ORDINAL="546" NAME="?ObAppend@CdbDynamicCollection@@UAEXAAVCdbObject@@@Z" PURGE="4" COMMENT="" />
    <EXPORT ORDINAL="547" NAME="?ObAppend@CdbStaticCollection@@UAEXAAVCdbObject@@@Z" PURGE="4" COMMENT="" />
    <EXPORT ORDINAL="548" NAME="?ObItem@CdbDynamicCollection@@UAE?AVCdbObject@@J@Z" PURGE="8" COMMENT="" />
    <EXPORT ORDINAL="549" NAME="?ObItem@CdbDynamicCollection@@UAE?AVCdbObject@@PBG@Z" PURGE="8" COMMENT="" />
    <EXPORT ORDINAL="550" NAME="?ObItem@CdbIndexFields@@UAE?AVCdbObject@@J@Z" PURGE="8" COMMENT="" />
    <EXPORT ORDINAL="551" NAME="?ObItem@CdbIndexFields@@UAE?AVCdbObject@@PBG@Z" PURGE="8" COMMENT="" />
    <EXPORT ORDINAL="552" NAME="?ObItem@CdbStaticCollection@@UAE?AVCdbObject@@J@Z" PURGE="8" COMMENT="" />
    <EXPORT ORDINAL="553" NAME="?ObItem@CdbStaticCollection@@UAE?AVCdbObject@@PBG@Z" PURGE="8" COMMENT="" />
    <EXPORT ORDINAL="554" NAME="?OnInterfaceChange@CdbConnection@@UAEXXZ" PURGE="0" COMMENT="" />
    <EXPORT ORDINAL="555" NAME="?OnInterfaceChange@CdbContainer@@UAEXXZ" PURGE="0" COMMENT="" />
    <EXPORT ORDINAL="556" NAME="?OnInterfaceChange@CdbDBEngine@@UAEXXZ" PURGE="0" COMMENT="" />
    <EXPORT ORDINAL="557" NAME="?OnInterfaceChange@CdbDatabase@@UAEXXZ" PURGE="0" COMMENT="" />
    <EXPORT ORDINAL="558" NAME="?OnInterfaceChange@CdbDocument@@UAEXXZ" PURGE="0" COMMENT="" />
    <EXPORT ORDINAL="559" NAME="?OnInterfaceChange@CdbError@@UAEXXZ" PURGE="0" COMMENT="" />
    <EXPORT ORDINAL="560" NAME="?OnInterfaceChange@CdbField@@UAEXXZ" PURGE="0" COMMENT="" />
    <EXPORT ORDINAL="561" NAME="?OnInterfaceChange@CdbGetRowsEx@@UAEXXZ" PURGE="0" COMMENT="" />
    <EXPORT ORDINAL="562" NAME="?OnInterfaceChange@CdbGroup@@UAEXXZ" PURGE="0" COMMENT="" />
    <EXPORT ORDINAL="563" NAME="?OnInterfaceChange@CdbIndex@@UAEXXZ" PURGE="0" COMMENT="" />
    <EXPORT ORDINAL="564" NAME="?OnInterfaceChange@CdbOleObject@@UAEXXZ" PURGE="0" COMMENT="" />
    <EXPORT ORDINAL="565" NAME="?OnInterfaceChange@CdbParameter@@UAEXXZ" PURGE="0" COMMENT="" />
    <EXPORT ORDINAL="566" NAME="?OnInterfaceChange@CdbQueryDef@@UAEXXZ" PURGE="0" COMMENT="" />
    <EXPORT ORDINAL="567" NAME="?OnInterfaceChange@CdbRecordset@@UAEXXZ" PURGE="0" COMMENT="" />
    <EXPORT ORDINAL="568" NAME="?OnInterfaceChange@CdbRelation@@UAEXXZ" PURGE="0" COMMENT="" />
    <EXPORT ORDINAL="569" NAME="?OnInterfaceChange@CdbTableDef@@UAEXXZ" PURGE="0" COMMENT="" />
    <EXPORT ORDINAL="570" NAME="?OnInterfaceChange@CdbUser@@UAEXXZ" PURGE="0" COMMENT="" />
    <EXPORT ORDINAL="571" NAME="?OnInterfaceChange@CdbWorkspace@@UAEXXZ" PURGE="0" COMMENT="" />
    <EXPORT ORDINAL="572" NAME="?OpenConnection@CdbDBEngine@@QAE?AVCdbConnection@@PBGJH0@Z" PURGE="20" COMMENT="" />
    <EXPORT ORDINAL="573" NAME="?OpenConnection@CdbWorkspace@@QAE?AVCdbConnection@@PBGJH0@Z" PURGE="20" COMMENT="" />
    <EXPORT ORDINAL="574" NAME="?OpenDatabase@CdbDBEngine@@QAE?AVCdbDatabase@@PBGHH0@Z" PURGE="20" COMMENT="" />
    <EXPORT ORDINAL="575" NAME="?OpenDatabase@CdbDBEngine@@QAE?AVCdbDatabase@@PBGJH0@Z" PURGE="20" COMMENT="" />
    <EXPORT ORDINAL="576" NAME="?OpenDatabase@CdbWorkspace@@QAE?AVCdbDatabase@@PBGHH0@Z" PURGE="20" COMMENT="" />
    <EXPORT ORDINAL="577" NAME="?OpenDatabase@CdbWorkspace@@QAE?AVCdbDatabase@@PBGJH0@Z" PURGE="20" COMMENT="" />
    <EXPORT ORDINAL="578" NAME="?OpenRecordset@CdbConnection@@QAE?AVCdbRecordset@@PBGJJJ@Z" PURGE="20" COMMENT="" />
    <EXPORT ORDINAL="579" NAME="?OpenRecordset@CdbDatabase@@QAE?AVCdbRecordset@@PBGJJJ@Z" PURGE="20" COMMENT="" />
    <EXPORT ORDINAL="580" NAME="?OpenRecordset@CdbQueryDef@@QAE?AVCdbRecordset@@JJJ@Z" PURGE="16" COMMENT="" />
    <EXPORT ORDINAL="581" NAME="?OpenRecordset@CdbRecordset@@QAE?AV1@JJ@Z" PURGE="12" COMMENT="" />
    <EXPORT ORDINAL="582" NAME="?OpenRecordset@CdbTableDef@@QAE?AVCdbRecordset@@JJ@Z" PURGE="12" COMMENT="" />
    <EXPORT ORDINAL="583" NAME="?PopulatePartial@CdbDatabase@@QAEXPBG@Z" PURGE="4" COMMENT="" />
    <EXPORT ORDINAL="584" NAME="?Refresh@CdbConnections@@UAEXXZ" PURGE="0" COMMENT="" />
    <EXPORT ORDINAL="585" NAME="?Refresh@CdbDynamicCollection@@UAEXXZ" PURGE="0" COMMENT="" />
    <EXPORT ORDINAL="586" NAME="?Refresh@CdbStaticCollection@@UAEXXZ" PURGE="0" COMMENT="" />
    <EXPORT ORDINAL="587" NAME="?RefreshLink@CdbTableDef@@QAEXXZ" PURGE="0" COMMENT="" />
    <EXPORT ORDINAL="588" NAME="?RegisterDatabase@CdbDBEngine@@QAEXPBG0H0@Z" PURGE="16" COMMENT="" />
    <EXPORT ORDINAL="589" NAME="?RepairDatabase@CdbDBEngine@@QAEXPBG@Z" PURGE="4" COMMENT="" />
    <EXPORT ORDINAL="590" NAME="?Requery@CdbRecordset@@QAEXPAVCdbQueryDef@@@Z" PURGE="4" COMMENT="" />
    <EXPORT ORDINAL="591" NAME="?Rollback@CdbWorkspace@@QAEXXZ" PURGE="0" COMMENT="" />
    <EXPORT ORDINAL="592" NAME="?Seek@CdbRecordset@@QAAXPBGJVCOleVariant@@ZZ" PURGE="0" COMMENT="" />
    <EXPORT ORDINAL="593" NAME="?SetAbsolutePosition@CdbRecordset@@QAEXJ@Z" PURGE="4" COMMENT="" />
    <EXPORT ORDINAL="594" NAME="?SetAllowZeroLength@CdbField@@QAEXH@Z" PURGE="4" COMMENT="" />
    <EXPORT ORDINAL="595" NAME="?SetAttributes@CdbField@@QAEXJ@Z" PURGE="4" COMMENT="" />
    <EXPORT ORDINAL="596" NAME="?SetAttributes@CdbRelation@@QAEXJ@Z" PURGE="4" COMMENT="" />
    <EXPORT ORDINAL="597" NAME="?SetAttributes@CdbTableDef@@QAEXJ@Z" PURGE="4" COMMENT="" />
    <EXPORT ORDINAL="598" NAME="?SetBatchSize@CdbRecordset@@QAEXJ@Z" PURGE="4" COMMENT="" />
    <EXPORT ORDINAL="599" NAME="?SetBookmark@CdbRecordset@@QAEXVCdbBookmark@@@Z" PURGE="16" COMMENT="" />
    <EXPORT ORDINAL="600" NAME="?SetCacheSize@CdbQueryDef@@QAEXJ@Z" PURGE="4" COMMENT="" />
    <EXPORT ORDINAL="601" NAME="?SetCacheSize@CdbRecordset@@QAEXJ@Z" PURGE="4" COMMENT="" />
    <EXPORT ORDINAL="602" NAME="?SetCacheStart@CdbRecordset@@QAEXAAVCdbBookmark@@@Z" PURGE="4" COMMENT="" />
    <EXPORT ORDINAL="603" NAME="?SetClustered@CdbIndex@@QAEXH@Z" PURGE="4" COMMENT="" />
    <EXPORT ORDINAL="604" NAME="?SetConnect@CdbDatabase@@QAEXPBG@Z" PURGE="4" COMMENT="" />
    <EXPORT ORDINAL="605" NAME="?SetConnect@CdbQueryDef@@QAEXPBG@Z" PURGE="4" COMMENT="" />
    <EXPORT ORDINAL="606" NAME="?SetConnect@CdbTableDef@@QAEXPBG@Z" PURGE="4" COMMENT="" />
    <EXPORT ORDINAL="607" NAME="?SetDBEngine@CdbWorkspaces@@QAEXPAU_DAODBEngine@@@Z" PURGE="4" COMMENT="" />
    <EXPORT ORDINAL="608" NAME="?SetDefaultCursorDriver@CdbWorkspace@@QAEXJ@Z" PURGE="4" COMMENT="" />
    <EXPORT ORDINAL="609" NAME="?SetDefaultPassword@CdbDBEngine@@QAEXPBG@Z" PURGE="4" COMMENT="" />
    <EXPORT ORDINAL="610" NAME="?SetDefaultType@CdbDBEngine@@QAEXJ@Z" PURGE="4" COMMENT="" />
    <EXPORT ORDINAL="611" NAME="?SetDefaultUser@CdbDBEngine@@QAEXPBG@Z" PURGE="4" COMMENT="" />
    <EXPORT ORDINAL="612" NAME="?SetDefaultValue@CdbField@@QAEXPAUtagVARIANT@@@Z" PURGE="4" COMMENT="" />
    <EXPORT ORDINAL="613" NAME="?SetDefaultValue@CdbField@@QAEXPBG@Z" PURGE="4" COMMENT="" />
    <EXPORT ORDINAL="614" NAME="?SetDesignMasterID@CdbDatabase@@QAEXPBG@Z" PURGE="4" COMMENT="" />
    <EXPORT ORDINAL="615" NAME="?SetDirection@CdbParameter@@QAEXF@Z" PURGE="4" COMMENT="" />
    <EXPORT ORDINAL="616" NAME="?SetField@CdbRecordset@@QAEXAAVCOleVariant@@PAUtagVARIANT@@@Z" PURGE="8" COMMENT="" />
    <EXPORT ORDINAL="617" NAME="?SetField@CdbRecordset@@QAEXAAVCString@@PAUtagVARIANT@@@Z" PURGE="8" COMMENT="" />
    <EXPORT ORDINAL="618" NAME="?SetField@CdbRecordset@@QAEXJPAUtagVARIANT@@@Z" PURGE="8" COMMENT="" />
    <EXPORT ORDINAL="619" NAME="?SetField@CdbRecordset@@QAEXPBGPAUtagVARIANT@@@Z" PURGE="8" COMMENT="" />
    <EXPORT ORDINAL="620" NAME="?SetFieldV@CdbRecordset@@QAEXAAVCOleVariant@@PAUtagVARIANT@@@Z" PURGE="8" COMMENT="" />
    <EXPORT ORDINAL="621" NAME="?SetFilter@CdbRecordset@@QAEXPBG@Z" PURGE="4" COMMENT="" />
    <EXPORT ORDINAL="622" NAME="?SetForeignName@CdbField@@QAEXPBG@Z" PURGE="4" COMMENT="" />
    <EXPORT ORDINAL="623" NAME="?SetForeignTable@CdbRelation@@QAEXPBG@Z" PURGE="4" COMMENT="" />
    <EXPORT ORDINAL="624" NAME="?SetGetRowsExInt@CdbRecordset@@QAEXXZ" PURGE="0" COMMENT="" />
    <EXPORT ORDINAL="625" NAME="?SetIgnoreNulls@CdbIndex@@QAEXH@Z" PURGE="4" COMMENT="" />
    <EXPORT ORDINAL="626" NAME="?SetIndex@CdbRecordset@@QAEXPBG@Z" PURGE="4" COMMENT="" />
    <EXPORT ORDINAL="627" NAME="?SetInherit@CdbContainer@@QAEXH@Z" PURGE="4" COMMENT="" />
    <EXPORT ORDINAL="628" NAME="?SetIniPath@CdbDBEngine@@QAEXPBG@Z" PURGE="4" COMMENT="" />
    <EXPORT ORDINAL="629" NAME="?SetInterface@CdbOleObject@@QAEXABU_GUID@@0@Z" PURGE="8" COMMENT="" />
    <EXPORT ORDINAL="630" NAME="?SetInterface@CdbOleObject@@QAEXPAUIUnknown@@H@Z" PURGE="8" COMMENT="" />
    <EXPORT ORDINAL="631" NAME="?SetInterfaceLic@CdbOleObject@@QAEXABU_GUID@@0@Z" PURGE="8" COMMENT="" />
    <EXPORT ORDINAL="632" NAME="?SetIsolateODBCTrans@CdbWorkspace@@QAEXH@Z" PURGE="4" COMMENT="" />
    <EXPORT ORDINAL="633" NAME="?SetLockEdits@CdbRecordset@@QAEXH@Z" PURGE="4" COMMENT="" />
    <EXPORT ORDINAL="634" NAME="?SetLoginTimeout@CdbDBEngine@@QAEXF@Z" PURGE="4" COMMENT="" />
    <EXPORT ORDINAL="635" NAME="?SetLoginTimeout@CdbWorkspace@@QAEXJ@Z" PURGE="4" COMMENT="" />
    <EXPORT ORDINAL="636" NAME="?SetMaxRecords@CdbQueryDef@@QAEXJ@Z" PURGE="4" COMMENT="" />
    <EXPORT ORDINAL="637" NAME="?SetName@CdbField@@UAEXPBG@Z" PURGE="4" COMMENT="" />
    <EXPORT ORDINAL="638" NAME="?SetName@CdbGroup@@UAEXPBG@Z" PURGE="4" COMMENT="" />
    <EXPORT ORDINAL="639" NAME="?SetName@CdbIndex@@UAEXPBG@Z" PURGE="4" COMMENT="" />
    <EXPORT ORDINAL="640" NAME="?SetName@CdbObject@@UAEXPBG@Z" PURGE="4" COMMENT="" />
    <EXPORT ORDINAL="641" NAME="?SetName@CdbProperty@@UAEXPBG@Z" PURGE="4" COMMENT="" />
    <EXPORT ORDINAL="642" NAME="?SetName@CdbQueryDef@@UAEXPBG@Z" PURGE="4" COMMENT="" />
    <EXPORT ORDINAL="643" NAME="?SetName@CdbRelation@@UAEXPBG@Z" PURGE="4" COMMENT="" />
    <EXPORT ORDINAL="644" NAME="?SetName@CdbTableDef@@UAEXPBG@Z" PURGE="4" COMMENT="" />
    <EXPORT ORDINAL="645" NAME="?SetName@CdbUser@@UAEXPBG@Z" PURGE="4" COMMENT="" />
    <EXPORT ORDINAL="646" NAME="?SetName@CdbWorkspace@@UAEXPBG@Z" PURGE="4" COMMENT="" />
    <EXPORT ORDINAL="647" NAME="?SetODBCTimeout@CdbQueryDef@@QAEXF@Z" PURGE="4" COMMENT="" />
    <EXPORT ORDINAL="648" NAME="?SetOption@CdbDBEngine@@QAEXJPAUtagVARIANT@@@Z" PURGE="8" COMMENT="" />
    <EXPORT ORDINAL="649" NAME="?SetOrdinalPosition@CdbField@@QAEXF@Z" PURGE="4" COMMENT="" />
    <EXPORT ORDINAL="650" NAME="?SetOwner@CdbContainer@@QAEXPBG@Z" PURGE="4" COMMENT="" />
    <EXPORT ORDINAL="651" NAME="?SetOwner@CdbDocument@@QAEXPBG@Z" PURGE="4" COMMENT="" />
    <EXPORT ORDINAL="652" NAME="?SetPID@CdbGroup@@QAEXPBG@Z" PURGE="4" COMMENT="" />
    <EXPORT ORDINAL="653" NAME="?SetPID@CdbUser@@QAEXPBG@Z" PURGE="4" COMMENT="" />
    <EXPORT ORDINAL="654" NAME="?SetPartialReplica@CdbRelation@@QAEXH@Z" PURGE="4" COMMENT="" />
    <EXPORT ORDINAL="655" NAME="?SetPassword@CdbUser@@QAEXPBG@Z" PURGE="4" COMMENT="" />
    <EXPORT ORDINAL="656" NAME="?SetPercentPosition@CdbRecordset@@QAEXM@Z" PURGE="4" COMMENT="" />
    <EXPORT ORDINAL="657" NAME="?SetPermissions@CdbContainer@@QAEXJ@Z" PURGE="4" COMMENT="" />
    <EXPORT ORDINAL="658" NAME="?SetPermissions@CdbDocument@@QAEXJ@Z" PURGE="4" COMMENT="" />
    <EXPORT ORDINAL="659" NAME="?SetPrepare@CdbQueryDef@@QAEXPAUtagVARIANT@@@Z" PURGE="4" COMMENT="" />
    <EXPORT ORDINAL="660" NAME="?SetPrimary@CdbIndex@@QAEXH@Z" PURGE="4" COMMENT="" />
    <EXPORT ORDINAL="661" NAME="?SetQueryTimeout@CdbConnection@@QAEXF@Z" PURGE="4" COMMENT="" />
    <EXPORT ORDINAL="662" NAME="?SetQueryTimeout@CdbDatabase@@QAEXF@Z" PURGE="4" COMMENT="" />
    <EXPORT ORDINAL="663" NAME="?SetReplicaFilter@CdbTableDef@@QAEXPAUtagVARIANT@@@Z" PURGE="4" COMMENT="" />
    <EXPORT ORDINAL="664" NAME="?SetRequired@CdbField@@QAEXH@Z" PURGE="4" COMMENT="" />
    <EXPORT ORDINAL="665" NAME="?SetRequired@CdbIndex@@QAEXH@Z" PURGE="4" COMMENT="" />
    <EXPORT ORDINAL="666" NAME="?SetReturnsRecords@CdbQueryDef@@QAEXH@Z" PURGE="4" COMMENT="" />
    <EXPORT ORDINAL="667" NAME="?SetRichErrorInfo@CdbOleObject@@QBEXPAG00K@Z" PURGE="16" COMMENT="" />
    <EXPORT ORDINAL="668" NAME="?SetSQL@CdbQueryDef@@QAEXPBG@Z" PURGE="4" COMMENT="" />
    <EXPORT ORDINAL="669" NAME="?SetSize@CdbField@@QAEXJ@Z" PURGE="4" COMMENT="" />
    <EXPORT ORDINAL="670" NAME="?SetSort@CdbRecordset@@QAEXPBG@Z" PURGE="4" COMMENT="" />
    <EXPORT ORDINAL="671" NAME="?SetSourceTableName@CdbTableDef@@QAEXPBG@Z" PURGE="4" COMMENT="" />
    <EXPORT ORDINAL="672" NAME="?SetSystemDB@CdbDBEngine@@QAEXPBG@Z" PURGE="4" COMMENT="" />
    <EXPORT ORDINAL="673" NAME="?SetTable@CdbRelation@@QAEXPBG@Z" PURGE="4" COMMENT="" />
    <EXPORT ORDINAL="674" NAME="?SetType@CdbField@@QAEXF@Z" PURGE="4" COMMENT="" />
    <EXPORT ORDINAL="675" NAME="?SetType@CdbParameter@@QAEXF@Z" PURGE="4" COMMENT="" />
    <EXPORT ORDINAL="676" NAME="?SetType@CdbProperty@@QAEXF@Z" PURGE="4" COMMENT="" />
    <EXPORT ORDINAL="677" NAME="?SetUnique@CdbIndex@@QAEXH@Z" PURGE="4" COMMENT="" />
    <EXPORT ORDINAL="678" NAME="?SetUpdateOptions@CdbRecordset@@QAEXJ@Z" PURGE="4" COMMENT="" />
    <EXPORT ORDINAL="679" NAME="?SetUserName@CdbContainer@@QAEXPBG@Z" PURGE="4" COMMENT="" />
    <EXPORT ORDINAL="680" NAME="?SetUserName@CdbDocument@@QAEXPBG@Z" PURGE="4" COMMENT="" />
    <EXPORT ORDINAL="681" NAME="?SetValidateOnSet@CdbField@@QAEXH@Z" PURGE="4" COMMENT="" />
    <EXPORT ORDINAL="682" NAME="?SetValidationRule@CdbField@@QAEXPBG@Z" PURGE="4" COMMENT="" />
    <EXPORT ORDINAL="683" NAME="?SetValidationRule@CdbTableDef@@QAEXPBG@Z" PURGE="4" COMMENT="" />
    <EXPORT ORDINAL="684" NAME="?SetValidationText@CdbField@@QAEXPBG@Z" PURGE="4" COMMENT="" />
    <EXPORT ORDINAL="685" NAME="?SetValidationText@CdbTableDef@@QAEXPBG@Z" PURGE="4" COMMENT="" />
    <EXPORT ORDINAL="686" NAME="?SetValue@CdbField@@QAEXPAUtagVARIANT@@@Z" PURGE="4" COMMENT="" />
    <EXPORT ORDINAL="687" NAME="?SetValue@CdbParameter@@QAEXPAUtagVARIANT@@@Z" PURGE="4" COMMENT="" />
    <EXPORT ORDINAL="688" NAME="?SetValue@CdbProperty@@QAEXPAUtagVARIANT@@@Z" PURGE="4" COMMENT="" />
    <EXPORT ORDINAL="689" NAME="?SetWorkspace@CdbConnections@@QAEXPAUDAOWorkspace@@@Z" PURGE="4" COMMENT="" />
    <EXPORT ORDINAL="690" NAME="?Start@CdbDBEngine@@QAEXXZ" PURGE="0" COMMENT="" />
    <EXPORT ORDINAL="691" NAME="?StartOLE@CdbOleObject@@IAEHXZ" PURGE="0" COMMENT="" />
    <EXPORT ORDINAL="692" NAME="?Synchronize@CdbDatabase@@QAEXPBGJ@Z" PURGE="8" COMMENT="" />
    <EXPORT ORDINAL="693" NAME="?Update@CdbRecordset@@QAEXFF@Z" PURGE="8" COMMENT="" />
</LIBRARY>

