<?xml version="1.0" encoding="UTF-8"?>
<LIBRARY NAME="mmutilse.dll" PATH="/DLLArchive/windowsXPSp3Prox86/mmutilse.dll" DATE="Fri Aug 17 13:36:20 PDT 2001" VERSION="6.03.01.0146">
    <EXPORT ORDINAL="1" NAME="??0CDirectDrawSurface@IHammer@@QAE@PAUHPALETTE__@@KPBUtagSIZE@@PAJ@Z" PURGE="16" COMMENT="" />
    <EXPORT ORDINAL="2" NAME="??0CHalftone@@QAE@PAUHPALETTE__@@@Z" PURGE="4" COMMENT="" />
    <EXPORT ORDINAL="3" NAME="??0CHalftonePalette@@QAE@PAUHPALETTE__@@@Z" PURGE="4" COMMENT="" />
    <EXPORT ORDINAL="4" NAME="??0CHalftonePalette@@QAE@XZ" PURGE="0" COMMENT="" />
    <EXPORT ORDINAL="5" NAME="??0CMemManager@@QAE@XZ" PURGE="0" COMMENT="" />
    <EXPORT ORDINAL="6" NAME="??0CMemUser@@QAE@XZ" PURGE="0" COMMENT="" />
    <EXPORT ORDINAL="7" NAME="??0CTStr@@QAE@AAV0@@Z" PURGE="4" COMMENT="" />
    <EXPORT ORDINAL="8" NAME="??0CTStr@@QAE@H@Z" PURGE="4" COMMENT="" />
    <EXPORT ORDINAL="9" NAME="??0CTStr@@QAE@PAD@Z" PURGE="4" COMMENT="" />
    <EXPORT ORDINAL="10" NAME="??0CTStr@@QAE@PAG@Z" PURGE="4" COMMENT="" />
    <EXPORT ORDINAL="11" NAME="??0CURLArchive@@QAE@PAUIUnknown@@@Z" PURGE="4" COMMENT="" />
    <EXPORT ORDINAL="12" NAME="??0OTrig@@QAE@XZ" PURGE="0" COMMENT="" />
    <EXPORT ORDINAL="13" NAME="??1CMemManager@@UAE@XZ" PURGE="0" COMMENT="" />
    <EXPORT ORDINAL="14" NAME="??1CMemUser@@UAE@XZ" PURGE="0" COMMENT="" />
    <EXPORT ORDINAL="15" NAME="??1CTStr@@QAE@XZ" PURGE="0" COMMENT="" />
    <EXPORT ORDINAL="16" NAME="??1CURLArchive@@UAE@XZ" PURGE="0" COMMENT="" />
    <EXPORT ORDINAL="17" NAME="??_FCTStr@@QAEXXZ" PURGE="0" COMMENT="" />
    <EXPORT ORDINAL="18" NAME="??_FCURLArchive@@QAEXXZ" PURGE="0" COMMENT="" />
    <EXPORT ORDINAL="19" NAME="?AllocBuffer@CMemManager@@QAEPAXKG@Z" PURGE="8" COMMENT="" />
    <EXPORT ORDINAL="20" NAME="?AllocBuffer@CMemUser@@QAEPAUMEMBLOCK_tag@@KG@Z" PURGE="8" COMMENT="" />
    <EXPORT ORDINAL="21" NAME="?AllocBuffer@CTStr@@QAEHHH@Z" PURGE="8" COMMENT="" />
    <EXPORT ORDINAL="22" NAME="?AllocBufferGlb@CMemManager@@SAPAXKG@Z" PURGE="0" COMMENT="" />
    <EXPORT ORDINAL="23" NAME="?Atoi@CStringWrapper@@SAHPBD@Z" PURGE="0" COMMENT="" />
    <EXPORT ORDINAL="24" NAME="?Atol@CStringWrapper@@SAJPBD@Z" PURGE="0" COMMENT="" />
    <EXPORT ORDINAL="25" NAME="?BitCountFromDDPIXELFORMAT@@YAJABU_DDPIXELFORMAT@@@Z" PURGE="0" COMMENT="" />
    <EXPORT ORDINAL="26" NAME="?Close@CURLArchive@@UAEJXZ" PURGE="0" COMMENT="" />
    <EXPORT ORDINAL="27" NAME="?CopyFrom@CNonCollapsingDrg@@UAGHPAVCDrg@@@Z" PURGE="8" COMMENT="" />
    <EXPORT ORDINAL="28" NAME="?CopyLocal@CURLArchive@@UAEJPADH@Z" PURGE="8" COMMENT="" />
    <EXPORT ORDINAL="29" NAME="?CopyLocal@CURLArchive@@UAEJPAGH@Z" PURGE="8" COMMENT="" />
    <EXPORT ORDINAL="30" NAME="?Cos@OTrig@@QAIMJ@Z" PURGE="0" COMMENT="" />
    <EXPORT ORDINAL="31" NAME="?Cos@OTrig@@QAIMM@Z" PURGE="4" COMMENT="" />
    <EXPORT ORDINAL="32" NAME="?CosDeg@CMathWrapper@@SIMJ@Z" PURGE="0" COMMENT="" />
    <EXPORT ORDINAL="33" NAME="?CosDeg@CMathWrapper@@SIMM@Z" PURGE="4" COMMENT="" />
    <EXPORT ORDINAL="34" NAME="?CosDegWrap@CMathWrapper@@SIMJ@Z" PURGE="0" COMMENT="" />
    <EXPORT ORDINAL="35" NAME="?CosDegWrap@CMathWrapper@@SIMM@Z" PURGE="4" COMMENT="" />
    <EXPORT ORDINAL="36" NAME="?CosRad@CMathWrapper@@SINN@Z" PURGE="8" COMMENT="" />
    <EXPORT ORDINAL="37" NAME="?CosWrap@OTrig@@QAIMJ@Z" PURGE="0" COMMENT="" />
    <EXPORT ORDINAL="38" NAME="?CosWrap@OTrig@@QAIMM@Z" PURGE="4" COMMENT="" />
    <EXPORT ORDINAL="39" NAME="?Create@CURLArchive@@UAEJPBD@Z" PURGE="4" COMMENT="" />
    <EXPORT ORDINAL="40" NAME="?Create@CURLArchive@@UAEJPBG@Z" PURGE="4" COMMENT="" />
    <EXPORT ORDINAL="41" NAME="?CreateIDispatchCollection@@YGHPAPAUIUnknown@@@Z" PURGE="4" COMMENT="" />
    <EXPORT ORDINAL="42" NAME="?DumpAllocations@CMemManager@@QAEXPAD@Z" PURGE="4" COMMENT="" />
    <EXPORT ORDINAL="43" NAME="?DumpAllocationsGlb@CMemManager@@SAXPAD@Z" PURGE="0" COMMENT="" />
    <EXPORT ORDINAL="44" NAME="?DumpHeapHeader@CMemManager@@AAEXPAUHEAPHEADER_tag@@PAU_iobuf@@@Z" PURGE="8" COMMENT="" />
    <EXPORT ORDINAL="45" NAME="?DumpMemBlock@CMemManager@@AAEXPAUMEMBLOCK_tag@@PAU_iobuf@@@Z" PURGE="8" COMMENT="" />
    <EXPORT ORDINAL="46" NAME="?DumpMemUserInfo@CMemManager@@AAEXPAUMEMUSERINFO_tag@@PAU_iobuf@@@Z" PURGE="8" COMMENT="" />
    <EXPORT ORDINAL="47" NAME="?ExternalDumpAllocations@@YGXPAD@Z" PURGE="4" COMMENT="" />
    <EXPORT ORDINAL="48" NAME="?FreeBuffer@CMemManager@@QAEXPAX@Z" PURGE="4" COMMENT="" />
    <EXPORT ORDINAL="49" NAME="?FreeBuffer@CMemUser@@QAEXPAUMEMBLOCK_tag@@@Z" PURGE="4" COMMENT="" />
    <EXPORT ORDINAL="50" NAME="?FreeBuffer@CTStr@@QAEXXZ" PURGE="0" COMMENT="" />
    <EXPORT ORDINAL="51" NAME="?FreeBufferGlb@CMemManager@@SAXPAX@Z" PURGE="0" COMMENT="" />
    <EXPORT ORDINAL="52" NAME="?FreeBufferMemBlock@CMemManager@@QAEXPAUMEMBLOCK_tag@@@Z" PURGE="4" COMMENT="" />
    <EXPORT ORDINAL="53" NAME="?Gcvt@CStringWrapper@@SAPADNHPAD@Z" PURGE="0" COMMENT="" />
    <EXPORT ORDINAL="54" NAME="?GetAt@CNonCollapsingDrg@@UAGPAXJ@Z" PURGE="8" COMMENT="" />
    <EXPORT ORDINAL="55" NAME="?GetFileSize@CURLArchive@@UAEJAAJ@Z" PURGE="4" COMMENT="" />
    <EXPORT ORDINAL="56" NAME="?GetFirst@CNonCollapsingDrg@@UAGPAXXZ" PURGE="4" COMMENT="" />
    <EXPORT ORDINAL="57" NAME="?GetNext@CNonCollapsingDrg@@UAGPAXXZ" PURGE="4" COMMENT="" />
    <EXPORT ORDINAL="58" NAME="?GetSigBitsFrom16BPP@@YAKPAUHDC__@@@Z" PURGE="0" COMMENT="" />
    <EXPORT ORDINAL="59" NAME="?GetStreamInterface@CURLArchive@@UBEPAUIStream@@XZ" PURGE="0" COMMENT="" />
    <EXPORT ORDINAL="60" NAME="?Insert@CDrg@@UAGHPAXJ@Z" PURGE="12" COMMENT="" />
    <EXPORT ORDINAL="61" NAME="?IsMMXCpu@@YAHXZ" PURGE="0" COMMENT="" />
    <EXPORT ORDINAL="62" NAME="?Iswspace@CStringWrapper@@SAHG@Z" PURGE="0" COMMENT="" />
    <EXPORT ORDINAL="63" NAME="?Itoa@CStringWrapper@@SAPADHPADH@Z" PURGE="0" COMMENT="" />
    <EXPORT ORDINAL="64" NAME="?Len@CTStr@@QAEHXZ" PURGE="0" COMMENT="" />
    <EXPORT ORDINAL="65" NAME="?LoadStringW@CStringWrapper@@SAHPAUHINSTANCE__@@IPAGH@Z" PURGE="0" COMMENT="" />
    <EXPORT ORDINAL="66" NAME="?LockBuffer@CMemUser@@QAEPAXPAUMEMBLOCK_tag@@@Z" PURGE="4" COMMENT="" />
    <EXPORT ORDINAL="67" NAME="?Ltoa@CStringWrapper@@SAPADJPADH@Z" PURGE="0" COMMENT="" />
    <EXPORT ORDINAL="68" NAME="?Mbstowcs@CStringWrapper@@SAIPAGPBDI@Z" PURGE="0" COMMENT="" />
    <EXPORT ORDINAL="69" NAME="?Memcmp@CStringWrapper@@SAHPBX0I@Z" PURGE="0" COMMENT="" />
    <EXPORT ORDINAL="70" NAME="?Memcpy@CStringWrapper@@SAPAXPAXPBXI@Z" PURGE="0" COMMENT="" />
    <EXPORT ORDINAL="71" NAME="?Memset@CStringWrapper@@SAPAXPAXHI@Z" PURGE="0" COMMENT="" />
    <EXPORT ORDINAL="72" NAME="?NotifyMemUser@CMemUser@@UAEHPAUMEMNOTIFY_tag@@@Z" PURGE="4" COMMENT="" />
    <EXPORT ORDINAL="73" NAME="?OverheadOfSavePtrDrg@@YAKXZ" PURGE="0" COMMENT="" />
    <EXPORT ORDINAL="74" NAME="?Pow@CMathWrapper@@SAMNN@Z" PURGE="0" COMMENT="" />
    <EXPORT ORDINAL="75" NAME="?ReAllocBuffer@CMemManager@@QAEPAXPAXKG@Z" PURGE="12" COMMENT="" />
    <EXPORT ORDINAL="76" NAME="?ReAllocBufferGlb@CMemManager@@SAPAXPAXKG@Z" PURGE="0" COMMENT="" />
    <EXPORT ORDINAL="77" NAME="?Read@CURLArchive@@UAEKPAEK@Z" PURGE="8" COMMENT="" />
    <EXPORT ORDINAL="78" NAME="?ReadBstrFromPropBag@@YAJPAUIPropertyBag@@PAUIErrorLog@@PADPAPAG@Z" PURGE="0" COMMENT="" />
    <EXPORT ORDINAL="79" NAME="?ReadLine@CURLArchive@@UAEKPADK@Z" PURGE="8" COMMENT="" />
    <EXPORT ORDINAL="80" NAME="?ReadLine@CURLArchive@@UAEKPAGK@Z" PURGE="8" COMMENT="" />
    <EXPORT ORDINAL="81" NAME="?ReadLongFromPropBag@@YAJPAUIPropertyBag@@PAUIErrorLog@@PADPAJ@Z" PURGE="0" COMMENT="" />
    <EXPORT ORDINAL="82" NAME="?RegisterMemUser@CMemManager@@QAEHPAVCMemUser@@@Z" PURGE="4" COMMENT="" />
    <EXPORT ORDINAL="83" NAME="?RegisterMemUserGlb@CMemManager@@SAHPAVCMemUser@@@Z" PURGE="0" COMMENT="" />
    <EXPORT ORDINAL="84" NAME="?Remove@CDrg@@UAGHPAXJ@Z" PURGE="12" COMMENT="" />
    <EXPORT ORDINAL="85" NAME="?Remove@CNonCollapsingDrg@@UAGHPAXJ@Z" PURGE="12" COMMENT="" />
    <EXPORT ORDINAL="86" NAME="?ResetLength@CTStr@@QAEXXZ" PURGE="0" COMMENT="" />
    <EXPORT ORDINAL="87" NAME="?RetailEcho@@YAXPADZZ" PURGE="0" COMMENT="" />
    <EXPORT ORDINAL="88" NAME="?Seek@CURLArchive@@UAEJJW4origin@1@@Z" PURGE="8" COMMENT="" />
    <EXPORT ORDINAL="89" NAME="?SetArray@CNonCollapsingDrg@@UAGXPAEJI@Z" PURGE="16" COMMENT="" />
    <EXPORT ORDINAL="90" NAME="?SetAt@CNonCollapsingDrg@@UAGHPAXJ@Z" PURGE="12" COMMENT="" />
    <EXPORT ORDINAL="91" NAME="?SetNonDefaultSizes@CDrg@@UAGXII@Z" PURGE="12" COMMENT="" />
    <EXPORT ORDINAL="92" NAME="?SetString@CTStr@@QAEHPAD@Z" PURGE="4" COMMENT="" />
    <EXPORT ORDINAL="93" NAME="?SetString@CTStr@@QAEHPAG@Z" PURGE="4" COMMENT="" />
    <EXPORT ORDINAL="94" NAME="?SetStringPointer@CTStr@@QAEHPADH@Z" PURGE="8" COMMENT="" />
    <EXPORT ORDINAL="95" NAME="?Sin@OTrig@@QAIMJ@Z" PURGE="0" COMMENT="" />
    <EXPORT ORDINAL="96" NAME="?Sin@OTrig@@QAIMM@Z" PURGE="4" COMMENT="" />
    <EXPORT ORDINAL="97" NAME="?SinDeg@CMathWrapper@@SIMJ@Z" PURGE="0" COMMENT="" />
    <EXPORT ORDINAL="98" NAME="?SinDeg@CMathWrapper@@SIMM@Z" PURGE="4" COMMENT="" />
    <EXPORT ORDINAL="99" NAME="?SinDegWrap@CMathWrapper@@SIMJ@Z" PURGE="0" COMMENT="" />
    <EXPORT ORDINAL="100" NAME="?SinDegWrap@CMathWrapper@@SIMM@Z" PURGE="4" COMMENT="" />
    <EXPORT ORDINAL="101" NAME="?SinRad@CMathWrapper@@SINN@Z" PURGE="8" COMMENT="" />
    <EXPORT ORDINAL="102" NAME="?SinWrap@OTrig@@QAIMJ@Z" PURGE="0" COMMENT="" />
    <EXPORT ORDINAL="103" NAME="?SinWrap@OTrig@@QAIMM@Z" PURGE="4" COMMENT="" />
    <EXPORT ORDINAL="104" NAME="?SizeBuffer@CMemManager@@QAEKPAX@Z" PURGE="4" COMMENT="" />
    <EXPORT ORDINAL="105" NAME="?SizeBufferGlb@CMemManager@@SAKPAX@Z" PURGE="0" COMMENT="" />
    <EXPORT ORDINAL="106" NAME="?Sprintf@CStringWrapper@@SAHPADPBDZZ" PURGE="0" COMMENT="" />
    <EXPORT ORDINAL="107" NAME="?Sqrt@CMathWrapper@@SIMM@Z" PURGE="4" COMMENT="" />
    <EXPORT ORDINAL="108" NAME="?Sscanf1@CStringWrapper@@SAHPBD0PAX@Z" PURGE="0" COMMENT="" />
    <EXPORT ORDINAL="109" NAME="?Sscanf2@CStringWrapper@@SAHPBD0PAX1@Z" PURGE="0" COMMENT="" />
    <EXPORT ORDINAL="110" NAME="?Sscanf3@CStringWrapper@@SAHPBD0PAX11@Z" PURGE="0" COMMENT="" />
    <EXPORT ORDINAL="111" NAME="?Strcat@CStringWrapper@@SAPADPADPBD@Z" PURGE="0" COMMENT="" />
    <EXPORT ORDINAL="112" NAME="?Strchr@CStringWrapper@@SAPADPBDD@Z" PURGE="0" COMMENT="" />
    <EXPORT ORDINAL="113" NAME="?Strcmp@CStringWrapper@@SAHPBD0@Z" PURGE="0" COMMENT="" />
    <EXPORT ORDINAL="114" NAME="?Strcpy@CStringWrapper@@SAPADPADPBD@Z" PURGE="0" COMMENT="" />
    <EXPORT ORDINAL="115" NAME="?Stricmp@CStringWrapper@@SAHPBD0@Z" PURGE="0" COMMENT="" />
    <EXPORT ORDINAL="116" NAME="?Strinc@CStringWrapper@@SAPADPBD@Z" PURGE="0" COMMENT="" />
    <EXPORT ORDINAL="117" NAME="?Strlen@CStringWrapper@@SAHPBD@Z" PURGE="0" COMMENT="" />
    <EXPORT ORDINAL="118" NAME="?Strncmp@CStringWrapper@@SAHPBD0I@Z" PURGE="0" COMMENT="" />
    <EXPORT ORDINAL="119" NAME="?Strncpy@CStringWrapper@@SAPADPADPBDI@Z" PURGE="0" COMMENT="" />
    <EXPORT ORDINAL="120" NAME="?Strnicmp@CStringWrapper@@SAHPBD0I@Z" PURGE="0" COMMENT="" />
    <EXPORT ORDINAL="121" NAME="?Strrchr@CStringWrapper@@SAPADPBDD@Z" PURGE="0" COMMENT="" />
    <EXPORT ORDINAL="122" NAME="?Strstr@CStringWrapper@@SAPADPBD0@Z" PURGE="0" COMMENT="" />
    <EXPORT ORDINAL="123" NAME="?Strtok@CStringWrapper@@SAPADPADPBD@Z" PURGE="0" COMMENT="" />
    <EXPORT ORDINAL="124" NAME="?SysAllocString@CTStr@@QAEPAGXZ" PURGE="0" COMMENT="" />
    <EXPORT ORDINAL="125" NAME="?UnLockBuffer@CMemUser@@QAEXPAUMEMBLOCK_tag@@@Z" PURGE="4" COMMENT="" />
    <EXPORT ORDINAL="126" NAME="?UnRegisterMemUser@CMemManager@@QAEHPAVCMemUser@@@Z" PURGE="4" COMMENT="" />
    <EXPORT ORDINAL="127" NAME="?UnRegisterMemUserGlb@CMemManager@@SAHPAVCMemUser@@@Z" PURGE="0" COMMENT="" />
    <EXPORT ORDINAL="128" NAME="?WStrCmpin@CStringWrapper@@SAHPBG0I@Z" PURGE="0" COMMENT="" />
    <EXPORT ORDINAL="129" NAME="?WStrcat@CStringWrapper@@SAPAGPAGPBG@Z" PURGE="0" COMMENT="" />
    <EXPORT ORDINAL="130" NAME="?WStrcpy@CStringWrapper@@SAPAGPAGPBG@Z" PURGE="0" COMMENT="" />
    <EXPORT ORDINAL="131" NAME="?WStrlen@CStringWrapper@@SAHPBG@Z" PURGE="0" COMMENT="" />
    <EXPORT ORDINAL="132" NAME="?WStrncpy@CStringWrapper@@SAPAGPAGPBGI@Z" PURGE="0" COMMENT="" />
    <EXPORT ORDINAL="133" NAME="?Wcstombs@CStringWrapper@@SAIPADPBGI@Z" PURGE="0" COMMENT="" />
    <EXPORT ORDINAL="134" NAME="?Write@CURLArchive@@UAEKPAEK@Z" PURGE="8" COMMENT="" />
    <EXPORT ORDINAL="135" NAME="?WriteBstrToPropBag@@YAJPAUIPropertyBag@@PADPAG@Z" PURGE="0" COMMENT="" />
    <EXPORT ORDINAL="136" NAME="?WriteLongToPropBag@@YAJPAUIPropertyBag@@PADJ@Z" PURGE="0" COMMENT="" />
    <EXPORT ORDINAL="137" NAME="?psz@CTStr@@QAEPADXZ" PURGE="0" COMMENT="" />
    <EXPORT ORDINAL="138" NAME="?pszA@CTStr@@QAEPADXZ" PURGE="0" COMMENT="" />
    <EXPORT ORDINAL="139" NAME="?pszW@CTStr@@QAEPAGXZ" PURGE="0" COMMENT="" />
    <EXPORT ORDINAL="140" NAME="_CIfmod" PURGE="0" COMMENT="" />
    <EXPORT ORDINAL="141" NAME="_chkstk" PURGE="0" COMMENT="" />
    <EXPORT ORDINAL="142" NAME="_wcsicmp" PURGE="0" COMMENT="" />
    <EXPORT ORDINAL="143" NAME="_wtoi" PURGE="0" COMMENT="" />
    <EXPORT ORDINAL="144" NAME="memcmp" PURGE="0" COMMENT="" />
    <EXPORT ORDINAL="145" NAME="memset" PURGE="0" COMMENT="" />
    <EXPORT ORDINAL="146" NAME="rand" PURGE="0" COMMENT="" />
    <EXPORT ORDINAL="147" NAME="setlocale" PURGE="0" COMMENT="" />
    <EXPORT ORDINAL="148" NAME="srand" PURGE="0" COMMENT="" />
    <EXPORT ORDINAL="149" NAME="strcpy" PURGE="0" COMMENT="" />
    <EXPORT ORDINAL="150" NAME="strlen" PURGE="0" COMMENT="" />
    <EXPORT ORDINAL="151" NAME="swprintf" PURGE="0" COMMENT="" />
    <EXPORT ORDINAL="152" NAME="wcslen" PURGE="0" COMMENT="" />
    <EXPORT ORDINAL="153" NAME="wcsncpy" PURGE="0" COMMENT="" />
</LIBRARY>

