<?xml version="1.0" encoding="UTF-8"?>
<LIBRARY NAME="tcpmib.dll" PATH="/DLLArchive/windowsXPSp3Prox86/tcpmib.dll" DATE="Sun Apr 13 20:42:08 PDT 2008" VERSION="5.1.2600.5512 (xpsp.080413-0852)">
    <EXPORT ORDINAL="1" NAME="??0CTcpMib@@QAE@ABV0@@Z" PURGE="4" COMMENT="" />
    <EXPORT ORDINAL="2" NAME="??0CTcpMib@@QAE@XZ" PURGE="0" COMMENT="" />
    <EXPORT ORDINAL="3" NAME="??0CTcpMibABC@@QAE@ABV0@@Z" PURGE="4" COMMENT="" />
    <EXPORT ORDINAL="4" NAME="??0CTcpMibABC@@QAE@XZ" PURGE="0" COMMENT="" />
    <EXPORT ORDINAL="5" NAME="??1CTcpMib@@UAE@XZ" PURGE="0" COMMENT="" />
    <EXPORT ORDINAL="6" NAME="??1CTcpMibABC@@UAE@XZ" PURGE="0" COMMENT="" />
    <EXPORT ORDINAL="7" NAME="??4CTcpMib@@QAEAAV0@ABV0@@Z" PURGE="4" COMMENT="" />
    <EXPORT ORDINAL="8" NAME="??4CTcpMibABC@@QAEAAV0@ABV0@@Z" PURGE="4" COMMENT="" />
    <EXPORT ORDINAL="9" NAME="??_7CTcpMib@@6B@" PURGE="4" COMMENT="" />
    <EXPORT ORDINAL="10" NAME="??_7CTcpMibABC@@6B@" PURGE="4" COMMENT="" />
    <EXPORT ORDINAL="11" NAME="?EnterCSection@CTcpMib@@AAEXXZ" PURGE="0" COMMENT="" />
    <EXPORT ORDINAL="12" NAME="?ExitCSection@CTcpMib@@AAEXXZ" PURGE="0" COMMENT="" />
    <EXPORT ORDINAL="13" NAME="?GetDeviceDescription@CTcpMib@@UAEKPBD0KPAGK@Z" PURGE="20" COMMENT="" />
    <EXPORT ORDINAL="14" NAME="?GetDeviceHWAddress@CTcpMib@@UAEKPBD0KKPAG@Z" PURGE="20" COMMENT="" />
    <EXPORT ORDINAL="15" NAME="?GetDeviceName@CTcpMib@@UAEKPBD0KKPAG@Z" PURGE="20" COMMENT="" />
    <EXPORT ORDINAL="16" NAME="?GetDeviceStatus@CTcpMib@@UAEKPBD0K@Z" PURGE="12" COMMENT="" />
    <EXPORT ORDINAL="17" NAME="?GetJobStatus@CTcpMib@@UAEKPBD0K@Z" PURGE="12" COMMENT="" />
    <EXPORT ORDINAL="18" NAME="?SNMPToPortStatus@CTcpMib@@UAEHKPAU_PORT_INFO_3W@@@Z" PURGE="8" COMMENT="" />
    <EXPORT ORDINAL="19" NAME="?SNMPToPrinterStatus@CTcpMib@@UAEKK@Z" PURGE="4" COMMENT="" />
    <EXPORT ORDINAL="20" NAME="?SnmpGet@CTcpMib@@QAEKPBD0KPAUSnmpVarBindList@@@Z" PURGE="16" COMMENT="" />
    <EXPORT ORDINAL="21" NAME="?SnmpGet@CTcpMib@@UAEKPBD0KPAUAsnObjectIdentifier@@PAUSnmpVarBindList@@@Z" PURGE="20" COMMENT="" />
    <EXPORT ORDINAL="22" NAME="?SnmpGetNext@CTcpMib@@QAEKPBD0KPAUSnmpVarBindList@@@Z" PURGE="16" COMMENT="" />
    <EXPORT ORDINAL="23" NAME="?SnmpGetNext@CTcpMib@@UAEKPBD0KPAUAsnObjectIdentifier@@PAUSnmpVarBindList@@@Z" PURGE="20" COMMENT="" />
    <EXPORT ORDINAL="24" NAME="?SnmpWalk@CTcpMib@@QAEKPBD0KPAUSnmpVarBindList@@@Z" PURGE="16" COMMENT="" />
    <EXPORT ORDINAL="25" NAME="?SnmpWalk@CTcpMib@@UAEKPBD0KPAUAsnObjectIdentifier@@PAUSnmpVarBindList@@@Z" PURGE="20" COMMENT="" />
    <EXPORT ORDINAL="26" NAME="?SupportsPrinterMib@CTcpMib@@UAEHPBD0KPAH@Z" PURGE="16" COMMENT="" />
    <EXPORT ORDINAL="27" NAME="GetTcpMibPtr" PURGE="0" COMMENT="" />
    <EXPORT ORDINAL="28" NAME="_Ping@4" PURGE="4" COMMENT="" />
</LIBRARY>

