<?xml version="1.0" encoding="UTF-8"?>
<LIBRARY NAME="fvecpl.dll" PATH="/DLLArchive/windows10LTSCX86_64/fvecpl.dll" DATE="Wed Oct 06 06:53:28 PDT 2021" VERSION="10.0.19041.1202 (WinBuild.160101.0800)">
    <EXPORT ORDINAL="1" NAME="??0VolumeFveStatus@@IEAA@XZ" PURGE="0" COMMENT="" />
    <EXPORT ORDINAL="2" NAME="??0VolumeFveStatus@@QEAA@K_KJW4_FVE_WIPING_STATE@@@Z" PURGE="0" COMMENT="" />
    <EXPORT ORDINAL="3" NAME="??4BuiVolume@@QEAAAEAV0@AEBV0@@Z" PURGE="0" COMMENT="" />
    <EXPORT ORDINAL="4" NAME="??4VolumeFveStatus@@QEAAAEAV0@$$QEAV0@@Z" PURGE="0" COMMENT="" />
    <EXPORT ORDINAL="5" NAME="??4VolumeFveStatus@@QEAAAEAV0@AEBV0@@Z" PURGE="0" COMMENT="" />
    <EXPORT ORDINAL="6" NAME="?FailedDryRun@VolumeFveStatus@@QEBA_NXZ" PURGE="0" COMMENT="" />
    <EXPORT ORDINAL="7" NAME="?GetExtendedFlags@VolumeFveStatus@@QEBA_KXZ" PURGE="0" COMMENT="" />
    <EXPORT ORDINAL="8" NAME="?GetLastConvertStatus@VolumeFveStatus@@QEBAJXZ" PURGE="0" COMMENT="" />
    <EXPORT ORDINAL="9" NAME="?GetStatusFlags@VolumeFveStatus@@QEBAKXZ" PURGE="0" COMMENT="" />
    <EXPORT ORDINAL="10" NAME="?HasExternalKey@VolumeFveStatus@@QEBA_NXZ" PURGE="0" COMMENT="" />
    <EXPORT ORDINAL="11" NAME="?HasPBKDF2RecoveryPassword@VolumeFveStatus@@QEBA_NXZ" PURGE="0" COMMENT="" />
    <EXPORT ORDINAL="12" NAME="?HasPassphraseProtector@VolumeFveStatus@@QEBA_NXZ" PURGE="0" COMMENT="" />
    <EXPORT ORDINAL="13" NAME="?HasPinProtector@VolumeFveStatus@@QEBA_NXZ" PURGE="0" COMMENT="" />
    <EXPORT ORDINAL="14" NAME="?HasRecoveryData@VolumeFveStatus@@QEBA_NXZ" PURGE="0" COMMENT="" />
    <EXPORT ORDINAL="15" NAME="?HasRecoveryPassword@VolumeFveStatus@@QEBA_NXZ" PURGE="0" COMMENT="" />
    <EXPORT ORDINAL="16" NAME="?HasSmartCardProtector@VolumeFveStatus@@QEBA_NXZ" PURGE="0" COMMENT="" />
    <EXPORT ORDINAL="17" NAME="?HasStartupKeyProtector@VolumeFveStatus@@QEBA_NXZ" PURGE="0" COMMENT="" />
    <EXPORT ORDINAL="18" NAME="?HasTpmProtector@VolumeFveStatus@@QEBA_NXZ" PURGE="0" COMMENT="" />
    <EXPORT ORDINAL="19" NAME="?IsConverting@VolumeFveStatus@@QEBA_NXZ" PURGE="0" COMMENT="" />
    <EXPORT ORDINAL="20" NAME="?IsCsvMetadataVolume@VolumeFveStatus@@QEBA_NXZ" PURGE="0" COMMENT="" />
    <EXPORT ORDINAL="21" NAME="?IsDEAutoProvisioned@VolumeFveStatus@@QEBA_NXZ" PURGE="0" COMMENT="" />
    <EXPORT ORDINAL="22" NAME="?IsDecrypted@VolumeFveStatus@@QEBA_NXZ" PURGE="0" COMMENT="" />
    <EXPORT ORDINAL="23" NAME="?IsDecrypting@VolumeFveStatus@@QEBA_NXZ" PURGE="0" COMMENT="" />
    <EXPORT ORDINAL="24" NAME="?IsDisabled@VolumeFveStatus@@QEBA_NXZ" PURGE="0" COMMENT="" />
    <EXPORT ORDINAL="25" NAME="?IsEDriveVolume@VolumeFveStatus@@QEBA_NXZ" PURGE="0" COMMENT="" />
    <EXPORT ORDINAL="26" NAME="?IsEncrypted@VolumeFveStatus@@QEBA_NXZ" PURGE="0" COMMENT="" />
    <EXPORT ORDINAL="27" NAME="?IsEncrypting@VolumeFveStatus@@QEBA_NXZ" PURGE="0" COMMENT="" />
    <EXPORT ORDINAL="28" NAME="?IsLocked@VolumeFveStatus@@QEBA_NXZ" PURGE="0" COMMENT="" />
    <EXPORT ORDINAL="29" NAME="?IsOn@VolumeFveStatus@@QEBA_NXZ" PURGE="0" COMMENT="" />
    <EXPORT ORDINAL="30" NAME="?IsOsCriticalVolume@VolumeFveStatus@@QEBA_NXZ" PURGE="0" COMMENT="" />
    <EXPORT ORDINAL="31" NAME="?IsOsVolume@VolumeFveStatus@@QEBA_NXZ" PURGE="0" COMMENT="" />
    <EXPORT ORDINAL="32" NAME="?IsPartiallyConverted@VolumeFveStatus@@QEBA_NXZ" PURGE="0" COMMENT="" />
    <EXPORT ORDINAL="33" NAME="?IsPaused@VolumeFveStatus@@QEBA_NXZ" PURGE="0" COMMENT="" />
    <EXPORT ORDINAL="34" NAME="?IsPreProvisioned@VolumeFveStatus@@QEBA_NXZ" PURGE="0" COMMENT="" />
    <EXPORT ORDINAL="35" NAME="?IsRoamingDevice@VolumeFveStatus@@QEBA_NXZ" PURGE="0" COMMENT="" />
    <EXPORT ORDINAL="36" NAME="?IsSecure@VolumeFveStatus@@QEBA_NXZ" PURGE="0" COMMENT="" />
    <EXPORT ORDINAL="37" NAME="?IsUnknownFveVersion@VolumeFveStatus@@QEBA_NXZ" PURGE="0" COMMENT="" />
    <EXPORT ORDINAL="38" NAME="?IsWiping@VolumeFveStatus@@QEBA_NXZ" PURGE="0" COMMENT="" />
    <EXPORT ORDINAL="39" NAME="?NO_DRIVE_LETTER@BuiVolume@@2IB" PURGE="-1" COMMENT="" />
    <EXPORT ORDINAL="40" NAME="?NeedsRestart@VolumeFveStatus@@QEBA_NXZ" PURGE="0" COMMENT="" />
    <EXPORT ORDINAL="41" NAME="DllCanUnloadNow" PURGE="0" COMMENT="" />
    <EXPORT ORDINAL="42" NAME="DllGetClassObject" PURGE="0" COMMENT="" />
    <EXPORT ORDINAL="43" NAME="DllRegisterServer" PURGE="2147483647" COMMENT="" />
    <EXPORT ORDINAL="44" NAME="DllUnregisterServer" PURGE="0" COMMENT="" />
</LIBRARY>

