<?xml version="1.0" encoding="UTF-8"?>
<LIBRARY NAME="mip_core.dll" PATH="/DLLArchive/windows10LTSCX86_64/mip_core.dll" DATE="Wed Aug 04 23:43:16 PDT 2021" VERSION="1.8.97">
    <EXPORT ORDINAL="1" NAME="?ApplyGlobalAuditCustomSettings@mipns@@YAXAEBV?$map@V?$basic_string@DU?$char_traits@D@std@@V?$allocator@D@2@@std@@V12@U?$less@V?$basic_string@DU?$char_traits@D@std@@V?$allocator@D@2@@std@@@2@V?$allocator@U?$pair@$$CBV?$basic_string@DU?$char_traits@D@std@@V?$allocator@D@2@@std@@V12@@std@@@2@@std@@@Z" PURGE="0" COMMENT="" />
    <EXPORT ORDINAL="2" NAME="?ApplyGlobalAuditMaskingFilter@mipns@@YAXAEBV?$map@V?$basic_string@DU?$char_traits@D@std@@V?$allocator@D@2@@std@@V?$vector@V?$basic_string@DU?$char_traits@D@std@@V?$allocator@D@2@@std@@V?$allocator@V?$basic_string@DU?$char_traits@D@std@@V?$allocator@D@2@@std@@@2@@2@U?$less@V?$basic_string@DU?$char_traits@D@std@@V?$allocator@D@2@@std@@@2@V?$allocator@U?$pair@$$CBV?$basic_string@DU?$char_traits@D@std@@V?$allocator@D@2@@std@@V?$vector@V?$basic_string@DU?$char_traits@D@std@@V?$allocator@D@2@@std@@V?$allocator@V?$basic_string@DU?$char_traits@D@std@@V?$allocator@D@2@@std@@@2@@2@@std@@@2@@std@@@Z" PURGE="0" COMMENT="" />
    <EXPORT ORDINAL="3" NAME="?ApplyGlobalTelemetryCustomSettings@mipns@@YAXAEBV?$map@V?$basic_string@DU?$char_traits@D@std@@V?$allocator@D@2@@std@@V12@U?$less@V?$basic_string@DU?$char_traits@D@std@@V?$allocator@D@2@@std@@@2@V?$allocator@U?$pair@$$CBV?$basic_string@DU?$char_traits@D@std@@V?$allocator@D@2@@std@@V12@@std@@@2@@std@@@Z" PURGE="0" COMMENT="" />
    <EXPORT ORDINAL="4" NAME="?ApplyGlobalTelemetryMaskingFilter@mipns@@YAXAEBV?$map@V?$basic_string@DU?$char_traits@D@std@@V?$allocator@D@2@@std@@V?$vector@V?$basic_string@DU?$char_traits@D@std@@V?$allocator@D@2@@std@@V?$allocator@V?$basic_string@DU?$char_traits@D@std@@V?$allocator@D@2@@std@@@2@@2@U?$less@V?$basic_string@DU?$char_traits@D@std@@V?$allocator@D@2@@std@@@2@V?$allocator@U?$pair@$$CBV?$basic_string@DU?$char_traits@D@std@@V?$allocator@D@2@@std@@V?$vector@V?$basic_string@DU?$char_traits@D@std@@V?$allocator@D@2@@std@@V?$allocator@V?$basic_string@DU?$char_traits@D@std@@V?$allocator@D@2@@std@@@2@@2@@std@@@2@@std@@@Z" PURGE="0" COMMENT="" />
    <EXPORT ORDINAL="5" NAME="?CrackBlock@mipns@@YA?AV?$vector@EV?$allocator@E@std@@@std@@PEBEII0I0IW4RSAPadding@1@W4CryptoHashAlgorithm@1@@Z" PURGE="0" COMMENT="" />
    <EXPORT ORDINAL="6" NAME="?Create@HttpClient@mipns@@SA?AV?$shared_ptr@VHttpClient@mipns@@@std@@XZ" PURGE="0" COMMENT="" />
    <EXPORT ORDINAL="7" NAME="?Create@MipContext@mipns@@SA?AV?$shared_ptr@VMipContext@mipns@@@std@@AEBUApplicationInfo@2@AEBV?$basic_string@DU?$char_traits@D@std@@V?$allocator@D@2@@4@W4LogLevel@2@_NAEBV?$shared_ptr@VLoggerDelegate@mipns@@@4@AEBV?$shared_ptr@UDiagnosticConfiguration@mipns@@@4@@Z" PURGE="0" COMMENT="" />
    <EXPORT ORDINAL="8" NAME="?CreateAsymmetricCryptoProvider@mipns@@YA?AV?$shared_ptr@VAsymmetricCryptoProvider@mipns@@@std@@W4CryptoAlgorithm@1@AEBV?$vector@EV?$allocator@E@std@@@3@I@Z" PURGE="0" COMMENT="" />
    <EXPORT ORDINAL="9" NAME="?CreateAuditEvent@mipns@@YA?AV?$shared_ptr@VAuditEvent@mipns@@@std@@AEBV?$basic_string@DU?$char_traits@D@std@@V?$allocator@D@2@@3@@Z" PURGE="0" COMMENT="" />
    <EXPORT ORDINAL="10" NAME="?CreateAuditManager@mipns@@YA?AV?$shared_ptr@VAuditManager@mipns@@@std@@AEBV?$shared_ptr@VAuditDelegate@mipns@@@3@0AEBUDiagnosticConfiguration@1@@Z" PURGE="0" COMMENT="" />
    <EXPORT ORDINAL="11" NAME="?CreateAuditOnlyEventProperty@mipns@@YA?AV?$shared_ptr@VEventProperty@mipns@@@std@@AEBV?$basic_string@DU?$char_traits@D@std@@V?$allocator@D@2@@3@0@Z" PURGE="0" COMMENT="" />
    <EXPORT ORDINAL="12" NAME="?CreateAuthRequestTransformer@mipns@@YA?AV?$shared_ptr@VRequestTransformer@mipns@@@std@@AEBV?$shared_ptr@VMipContext@mipns@@@3@AEBVIdentity@1@AEBV?$basic_string@DU?$char_traits@D@std@@V?$allocator@D@2@@3@AEBV?$shared_ptr@VAuthDelegate@mipns@@@3@AEBV?$shared_ptr@VAuthChallengeProvider@mipns@@@3@AEBV?$shared_ptr@VHttpProvider@mipns@@@3@@Z" PURGE="0" COMMENT="" />
    <EXPORT ORDINAL="13" NAME="?CreateAutoTelemetryEvent@mipns@@YA?AV?$unique_ptr@VAutoTelemetryEvent@mipns@@U?$default_delete@VAutoTelemetryEvent@mipns@@@std@@@std@@AEBV?$basic_string@DU?$char_traits@D@std@@V?$allocator@D@2@@3@W4EventLevel@1@AEBV?$shared_ptr@VTelemetryContext@mipns@@@3@AEBV?$shared_ptr@VTelemetryManager@mipns@@@3@@Z" PURGE="0" COMMENT="" />
    <EXPORT ORDINAL="14" NAME="?CreateAutoTelemetryEvent@mipns@@YA?AV?$unique_ptr@VAutoTelemetryEvent@mipns@@U?$default_delete@VAutoTelemetryEvent@mipns@@@std@@@std@@AEBV?$shared_ptr@VTelemetryEvent@mipns@@@3@AEBV?$shared_ptr@VTelemetryContext@mipns@@@3@AEBV?$shared_ptr@VTelemetryManager@mipns@@@3@@Z" PURGE="0" COMMENT="" />
    <EXPORT ORDINAL="15" NAME="?CreateCryptoProvider@mipns@@YA?AV?$shared_ptr@VCryptoProvider@mipns@@@std@@W4CipherMode@1@AEBVCryptoKey@1@@Z" PURGE="0" COMMENT="" />
    <EXPORT ORDINAL="16" NAME="?CreateDefaultAuditDelegate@mipns@@YA?AV?$shared_ptr@VAuditDelegate@mipns@@@std@@AEBV?$shared_ptr@VOneDSAriaHelper@mipns@@@3@AEBUDiagnosticConfiguration@1@@Z" PURGE="0" COMMENT="" />
    <EXPORT ORDINAL="17" NAME="?CreateDefaultLoggerDelegate@logger@mipns@@YA?AV?$shared_ptr@VLoggerDelegate@mipns@@@std@@XZ" PURGE="0" COMMENT="" />
    <EXPORT ORDINAL="18" NAME="?CreateDefaultTelemetryDelegate@mipns@@YA?AV?$shared_ptr@VTelemetryDelegate@mipns@@@std@@AEBV?$shared_ptr@VOneDSAriaHelper@mipns@@@3@AEBUDiagnosticConfiguration@1@@Z" PURGE="0" COMMENT="" />
    <EXPORT ORDINAL="19" NAME="?CreateDomainFromEmail@mipns@@YA?AV?$shared_ptr@VDomain@mipns@@@std@@AEBV?$basic_string@DU?$char_traits@D@std@@V?$allocator@D@2@@3@@Z" PURGE="0" COMMENT="" />
    <EXPORT ORDINAL="20" NAME="?CreateDomainFromUrl@mipns@@YA?AV?$shared_ptr@VDomain@mipns@@@std@@AEBV?$basic_string@DU?$char_traits@D@std@@V?$allocator@D@2@@3@@Z" PURGE="0" COMMENT="" />
    <EXPORT ORDINAL="21" NAME="?CreateEmptyAuditDelegate@mipns@@YA?AV?$shared_ptr@VAuditDelegate@mipns@@@std@@XZ" PURGE="0" COMMENT="" />
    <EXPORT ORDINAL="22" NAME="?CreateEmptyTelemetryDelegate@mipns@@YA?AV?$shared_ptr@VTelemetryDelegate@mipns@@@std@@XZ" PURGE="0" COMMENT="" />
    <EXPORT ORDINAL="23" NAME="?CreateEventFactory@mipns@@YA?AV?$shared_ptr@VDiagnosticEventFactory@mipns@@@std@@XZ" PURGE="0" COMMENT="" />
    <EXPORT ORDINAL="24" NAME="?CreateEventFailureProperties@mipns@@YA?AV?$vector@V?$shared_ptr@VEventProperty@mipns@@@std@@V?$allocator@V?$shared_ptr@VEventProperty@mipns@@@std@@@2@@std@@AEBV?$basic_string@DU?$char_traits@D@std@@V?$allocator@D@2@@3@00H@Z" PURGE="0" COMMENT="" />
    <EXPORT ORDINAL="25" NAME="?CreateEventFailureProperties@mipns@@YA?AV?$vector@V?$shared_ptr@VEventProperty@mipns@@@std@@V?$allocator@V?$shared_ptr@VEventProperty@mipns@@@std@@@2@@std@@AEBV?$basic_string@DU?$char_traits@D@std@@V?$allocator@D@2@@3@00HAEBVError@1@@Z" PURGE="0" COMMENT="" />
    <EXPORT ORDINAL="26" NAME="?CreateEventFailureProperties@mipns@@YA?AV?$vector@V?$shared_ptr@VEventProperty@mipns@@@std@@V?$allocator@V?$shared_ptr@VEventProperty@mipns@@@std@@@2@@std@@AEBV?$basic_string@DU?$char_traits@D@std@@V?$allocator@D@2@@3@00HAEBVexception_ptr@3@@Z" PURGE="0" COMMENT="" />
    <EXPORT ORDINAL="27" NAME="?CreateEventProperty@mipns@@YA?AV?$shared_ptr@VEventProperty@mipns@@@std@@AEBV?$basic_string@DU?$char_traits@D@std@@V?$allocator@D@2@@3@0W4Pii@1@@Z" PURGE="0" COMMENT="" />
    <EXPORT ORDINAL="28" NAME="?CreateEventProperty@mipns@@YA?AV?$shared_ptr@VEventProperty@mipns@@@std@@AEBV?$basic_string@DU?$char_traits@D@std@@V?$allocator@D@2@@3@NW4Pii@1@@Z" PURGE="0" COMMENT="" />
    <EXPORT ORDINAL="29" NAME="?CreateEventProperty@mipns@@YA?AV?$shared_ptr@VEventProperty@mipns@@@std@@AEBV?$basic_string@DU?$char_traits@D@std@@V?$allocator@D@2@@3@_JW4Pii@1@@Z" PURGE="0" COMMENT="" />
    <EXPORT ORDINAL="30" NAME="?CreateEventProperty@mipns@@YA?AV?$shared_ptr@VEventProperty@mipns@@@std@@AEBV?$basic_string@DU?$char_traits@D@std@@V?$allocator@D@2@@3@_N@Z" PURGE="0" COMMENT="" />
    <EXPORT ORDINAL="31" NAME="?CreateHttpDirector@mipns@@YA?AV?$shared_ptr@VHttpDirector@mipns@@@std@@AEBV?$shared_ptr@VMipContext@mipns@@@3@AEBV?$basic_string@DU?$char_traits@D@std@@V?$allocator@D@2@@3@AEBVIdentity@1@AEBV?$shared_ptr@VHttpDelegate@mipns@@@3@AEBV?$shared_ptr@VHttpProvider@mipns@@@3@AEBV?$shared_ptr@VTelemetryContext@mipns@@@3@@Z" PURGE="0" COMMENT="" />
    <EXPORT ORDINAL="32" NAME="?CreateHttpRequest@mipns@@YA?AV?$shared_ptr@VHttpRequestBase@mipns@@@std@@AEBVHttpRequestBase@1@AEBV?$basic_string@DU?$char_traits@D@std@@V?$allocator@D@2@@3@@Z" PURGE="0" COMMENT="" />
    <EXPORT ORDINAL="33" NAME="?CreateHttpRequest@mipns@@YA?AV?$shared_ptr@VHttpRequestBase@mipns@@@std@@W4TransportLayerSecurityMinimumVersion@1@AEBV?$basic_string@DU?$char_traits@D@std@@V?$allocator@D@2@@3@W4HttpRequestType@1@1@Z" PURGE="0" COMMENT="" />
    <EXPORT ORDINAL="34" NAME="?CreateOneDSAriaHelper@mipns@@YA?AV?$shared_ptr@VOneDSAriaHelper@mipns@@@std@@AEBV?$basic_string@DU?$char_traits@D@std@@V?$allocator@D@2@@3@AEBUDiagnosticConfiguration@1@@Z" PURGE="0" COMMENT="" />
    <EXPORT ORDINAL="35" NAME="?CreatePersistentStore@mipns@@YA?AV?$unique_ptr@VPersistentStore@mipns@@U?$default_delete@VPersistentStore@mipns@@@std@@@std@@AEBV?$shared_ptr@VMipContext@mipns@@@3@AEBV?$basic_string@DU?$char_traits@D@std@@V?$allocator@D@2@@3@1AEBV?$vector@V?$basic_string@DU?$char_traits@D@std@@V?$allocator@D@2@@std@@V?$allocator@V?$basic_string@DU?$char_traits@D@std@@V?$allocator@D@2@@std@@@2@@3@22@Z" PURGE="0" COMMENT="" />
    <EXPORT ORDINAL="36" NAME="?CreateRedirectRequestTransformer@mipns@@YA?AV?$shared_ptr@VRequestTransformer@mipns@@@std@@AEBV?$shared_ptr@VMipContext@mipns@@@3@AEBVIdentity@1@AEBV?$shared_ptr@VRedirectProvider@mipns@@@3@AEBV?$shared_ptr@VHttpProvider@mipns@@@3@@Z" PURGE="0" COMMENT="" />
    <EXPORT ORDINAL="37" NAME="?CreateStreamFromBuffer@mipns@@YA?AV?$shared_ptr@VStream@mipns@@@std@@PEAE_J@Z" PURGE="0" COMMENT="" />
    <EXPORT ORDINAL="38" NAME="?CreateStreamFromStdStream@mipns@@YA?AV?$shared_ptr@VStream@mipns@@@std@@AEBV?$shared_ptr@V?$basic_iostream@DU?$char_traits@D@std@@@std@@@3@@Z" PURGE="0" COMMENT="" />
    <EXPORT ORDINAL="39" NAME="?CreateStreamFromStdStream@mipns@@YA?AV?$shared_ptr@VStream@mipns@@@std@@AEBV?$shared_ptr@V?$basic_istream@DU?$char_traits@D@std@@@std@@@3@@Z" PURGE="0" COMMENT="" />
    <EXPORT ORDINAL="40" NAME="?CreateStreamFromStdStream@mipns@@YA?AV?$shared_ptr@VStream@mipns@@@std@@AEBV?$shared_ptr@V?$basic_ostream@DU?$char_traits@D@std@@@std@@@3@@Z" PURGE="0" COMMENT="" />
    <EXPORT ORDINAL="41" NAME="?CreateSymmetricCryptoWriter@SymmetricCryptoWriter@mipns@@SA?AV?$unique_ptr@VSymmetricCryptoWriter@mipns@@U?$default_delete@VSymmetricCryptoWriter@mipns@@@std@@@std@@PEBEHW4CryptoAlgorithm@2@@Z" PURGE="0" COMMENT="" />
    <EXPORT ORDINAL="42" NAME="?CreateTelemetryContext@mipns@@YA?AV?$shared_ptr@VTelemetryContext@mipns@@@std@@AEBV?$basic_string@DU?$char_traits@D@std@@V?$allocator@D@2@@3@0AEBV23@@Z" PURGE="0" COMMENT="" />
    <EXPORT ORDINAL="43" NAME="?CreateTelemetryEvent@mipns@@YA?AV?$shared_ptr@VTelemetryEvent@mipns@@@std@@AEBV?$basic_string@DU?$char_traits@D@std@@V?$allocator@D@2@@3@W4EventLevel@1@@Z" PURGE="0" COMMENT="" />
    <EXPORT ORDINAL="44" NAME="?CreateTelemetryManager@mipns@@YA?AV?$shared_ptr@VTelemetryManager@mipns@@@std@@AEBV?$shared_ptr@VTelemetryDelegate@mipns@@@3@AEBUDiagnosticConfiguration@1@@Z" PURGE="0" COMMENT="" />
    <EXPORT ORDINAL="45" NAME="?CreateTelemetrySchemaValidator@mipns@@YA?AV?$shared_ptr@VTelemetrySchemaValidator@mipns@@@std@@_N@Z" PURGE="0" COMMENT="" />
    <EXPORT ORDINAL="46" NAME="?CreateUri@mipns@@YA?AV?$unique_ptr@VUri@mipns@@U?$default_delete@VUri@mipns@@@std@@@std@@AEBV?$basic_string@DU?$char_traits@D@std@@V?$allocator@D@2@@3@@Z" PURGE="0" COMMENT="" />
    <EXPORT ORDINAL="47" NAME="?CreateWithCustomFeatureSettings@MipContext@mipns@@SA?AV?$shared_ptr@VMipContext@mipns@@@std@@AEBUApplicationInfo@2@AEBV?$basic_string@DU?$char_traits@D@std@@V?$allocator@D@2@@4@W4LogLevel@2@_NAEBV?$shared_ptr@VLoggerDelegate@mipns@@@4@AEBV?$shared_ptr@UDiagnosticConfiguration@mipns@@@4@AEBV?$map@W4FlightingFeature@mipns@@_NU?$less@W4FlightingFeature@mipns@@@std@@V?$allocator@U?$pair@$$CBW4FlightingFeature@mipns@@_N@std@@@4@@4@@Z" PURGE="0" COMMENT="" />
    <EXPORT ORDINAL="48" NAME="?DecryptBuffer@bufferprotector@mipns@@YA_JW4CipherMode@2@AEBVCryptoKey@2@_JPEBE2PEAE2_N@Z" PURGE="0" COMMENT="" />
    <EXPORT ORDINAL="49" NAME="?EncryptBuffer@bufferprotector@mipns@@YA_JW4CipherMode@2@AEBVCryptoKey@2@_JPEBE2PEAE2_N@Z" PURGE="0" COMMENT="" />
    <EXPORT ORDINAL="50" NAME="?GenerateAESKey@mipns@@YA?AV?$basic_string@DU?$char_traits@D@std@@V?$allocator@D@2@@std@@XZ" PURGE="0" COMMENT="" />
    <EXPORT ORDINAL="51" NAME="?GenerateAESKeyAsBytes@mipns@@YA?AV?$vector@EV?$allocator@E@std@@@std@@I@Z" PURGE="0" COMMENT="" />
    <EXPORT ORDINAL="52" NAME="?GenerateHash@mipns@@YAXW4CryptoHashAlgorithm@1@PEBEIPEAEAEAI@Z" PURGE="0" COMMENT="" />
    <EXPORT ORDINAL="53" NAME="?GetHashSize@mipns@@YA_KW4CryptoHashAlgorithm@1@@Z" PURGE="0" COMMENT="" />
    <EXPORT ORDINAL="54" NAME="?GetLogLevel@logger@mipns@@YA?AW4LogLevel@2@XZ" PURGE="0" COMMENT="" />
    <EXPORT ORDINAL="55" NAME="?GetLoggerDelegateInstance@logger@mipns@@YAAEBV?$shared_ptr@VLoggerDelegate@mipns@@@std@@XZ" PURGE="0" COMMENT="" />
    <EXPORT ORDINAL="56" NAME="?GetMsftCert@HttpClientCert@mipns@@SAAEBV?$vector@EV?$allocator@E@std@@@std@@XZ" PURGE="0" COMMENT="" />
    <EXPORT ORDINAL="57" NAME="?GetMsftCert@mipns@@YAAEBV?$vector@EV?$allocator@E@std@@@std@@XZ" PURGE="0" COMMENT="" />
    <EXPORT ORDINAL="58" NAME="?GetMsftCertPEM@HttpClientCert@mipns@@SAAEBV?$basic_string@DU?$char_traits@D@std@@V?$allocator@D@2@@std@@XZ" PURGE="0" COMMENT="" />
    <EXPORT ORDINAL="59" NAME="?GetMsftCertPEM@mipns@@YAAEBV?$basic_string@DU?$char_traits@D@std@@V?$allocator@D@2@@std@@XZ" PURGE="0" COMMENT="" />
    <EXPORT ORDINAL="60" NAME="?GetSanitizedUrl@mipns@@YA?AV?$basic_string@DU?$char_traits@D@std@@V?$allocator@D@2@@std@@AEBV23@@Z" PURGE="0" COMMENT="" />
    <EXPORT ORDINAL="61" NAME="?SetLogLevel@logger@mipns@@YAXW4LogLevel@2@@Z" PURGE="0" COMMENT="" />
    <EXPORT ORDINAL="62" NAME="?SetLoggerDelegateInstance@logger@mipns@@YAXAEBV?$shared_ptr@VLoggerDelegate@mipns@@@std@@@Z" PURGE="0" COMMENT="" />
    <EXPORT ORDINAL="63" NAME="?SetOneDSHttpDelegate@mipns@@YAXAEBV?$shared_ptr@VHttpDelegate@mipns@@@std@@@Z" PURGE="0" COMMENT="" />
    <EXPORT ORDINAL="64" NAME="?SetOneDSIsTls12Enforced@mipns@@YAX_N@Z" PURGE="0" COMMENT="" />
    <EXPORT ORDINAL="65" NAME="?SetOneDSTaskDispatcherDelegate@mipns@@YAXAEBV?$shared_ptr@VTaskDispatcherDelegate@mipns@@@std@@@Z" PURGE="0" COMMENT="" />
    <EXPORT ORDINAL="66" NAME="MIP_CC_CreateDictionary" PURGE="0" COMMENT="" />
    <EXPORT ORDINAL="67" NAME="MIP_CC_CreateHttpDelegate" PURGE="0" COMMENT="" />
    <EXPORT ORDINAL="68" NAME="MIP_CC_CreateLoggerDelegate" PURGE="0" COMMENT="" />
    <EXPORT ORDINAL="69" NAME="MIP_CC_CreateMipContext" PURGE="0" COMMENT="" />
    <EXPORT ORDINAL="70" NAME="MIP_CC_CreateMipContextWithCustomFeatureSettings" PURGE="0" COMMENT="" />
    <EXPORT ORDINAL="71" NAME="MIP_CC_CreateProtectionDescriptorFromTemplate" PURGE="0" COMMENT="" />
    <EXPORT ORDINAL="72" NAME="MIP_CC_CreateProtectionDescriptorFromUserRights" PURGE="0" COMMENT="" />
    <EXPORT ORDINAL="73" NAME="MIP_CC_CreateProtectionDescriptorFromUserRoles" PURGE="0" COMMENT="" />
    <EXPORT ORDINAL="74" NAME="MIP_CC_CreateStringList" PURGE="0" COMMENT="" />
    <EXPORT ORDINAL="75" NAME="MIP_CC_CreateTaskDispatcherDelegate" PURGE="0" COMMENT="" />
    <EXPORT ORDINAL="76" NAME="MIP_CC_CreateTelemetryConfiguration" PURGE="0" COMMENT="" />
    <EXPORT ORDINAL="77" NAME="MIP_CC_Dictionary_GetEntries" PURGE="0" COMMENT="" />
    <EXPORT ORDINAL="78" NAME="MIP_CC_ExecuteDispatchedTask" PURGE="0" COMMENT="" />
    <EXPORT ORDINAL="79" NAME="MIP_CC_NotifyHttpDelegateResponse" PURGE="0" COMMENT="" />
    <EXPORT ORDINAL="80" NAME="MIP_CC_ProtectionDescriptor_DoesAllowOfflineAccess" PURGE="0" COMMENT="" />
    <EXPORT ORDINAL="81" NAME="MIP_CC_ProtectionDescriptor_DoesContentExpire" PURGE="0" COMMENT="" />
    <EXPORT ORDINAL="82" NAME="MIP_CC_ProtectionDescriptor_GetContentId" PURGE="0" COMMENT="" />
    <EXPORT ORDINAL="83" NAME="MIP_CC_ProtectionDescriptor_GetContentValidUntil" PURGE="0" COMMENT="" />
    <EXPORT ORDINAL="84" NAME="MIP_CC_ProtectionDescriptor_GetDescription" PURGE="0" COMMENT="" />
    <EXPORT ORDINAL="85" NAME="MIP_CC_ProtectionDescriptor_GetDescriptionSize" PURGE="0" COMMENT="" />
    <EXPORT ORDINAL="86" NAME="MIP_CC_ProtectionDescriptor_GetDoubleKeyUrl" PURGE="0" COMMENT="" />
    <EXPORT ORDINAL="87" NAME="MIP_CC_ProtectionDescriptor_GetDoubleKeyUrlSize" PURGE="0" COMMENT="" />
    <EXPORT ORDINAL="88" NAME="MIP_CC_ProtectionDescriptor_GetLabelId" PURGE="0" COMMENT="" />
    <EXPORT ORDINAL="89" NAME="MIP_CC_ProtectionDescriptor_GetName" PURGE="0" COMMENT="" />
    <EXPORT ORDINAL="90" NAME="MIP_CC_ProtectionDescriptor_GetNameSize" PURGE="0" COMMENT="" />
    <EXPORT ORDINAL="91" NAME="MIP_CC_ProtectionDescriptor_GetOwner" PURGE="0" COMMENT="" />
    <EXPORT ORDINAL="92" NAME="MIP_CC_ProtectionDescriptor_GetOwnerSize" PURGE="0" COMMENT="" />
    <EXPORT ORDINAL="93" NAME="MIP_CC_ProtectionDescriptor_GetProtectionType" PURGE="0" COMMENT="" />
    <EXPORT ORDINAL="94" NAME="MIP_CC_ProtectionDescriptor_GetReferrer" PURGE="0" COMMENT="" />
    <EXPORT ORDINAL="95" NAME="MIP_CC_ProtectionDescriptor_GetReferrerSize" PURGE="0" COMMENT="" />
    <EXPORT ORDINAL="96" NAME="MIP_CC_ProtectionDescriptor_GetTemplateId" PURGE="0" COMMENT="" />
    <EXPORT ORDINAL="97" NAME="MIP_CC_ReleaseDictionary" PURGE="0" COMMENT="" />
    <EXPORT ORDINAL="98" NAME="MIP_CC_ReleaseHttpDelegate" PURGE="0" COMMENT="" />
    <EXPORT ORDINAL="99" NAME="MIP_CC_ReleaseLoggerDelegate" PURGE="0" COMMENT="" />
    <EXPORT ORDINAL="100" NAME="MIP_CC_ReleaseMipContext" PURGE="0" COMMENT="" />
    <EXPORT ORDINAL="101" NAME="MIP_CC_ReleaseProtectionDescriptor" PURGE="0" COMMENT="" />
    <EXPORT ORDINAL="102" NAME="MIP_CC_ReleaseStringList" PURGE="0" COMMENT="" />
    <EXPORT ORDINAL="103" NAME="MIP_CC_ReleaseTaskDispatcherDelegate" PURGE="0" COMMENT="" />
    <EXPORT ORDINAL="104" NAME="MIP_CC_ReleaseTelemetryConfiguration" PURGE="0" COMMENT="" />
    <EXPORT ORDINAL="105" NAME="MIP_CC_StringList_GetStrings" PURGE="0" COMMENT="" />
    <EXPORT ORDINAL="106" NAME="MIP_CC_TelemetryConfiguration_AddMaskedProperty" PURGE="0" COMMENT="" />
    <EXPORT ORDINAL="107" NAME="MIP_CC_TelemetryConfiguration_SetCustomSettings" PURGE="0" COMMENT="" />
    <EXPORT ORDINAL="108" NAME="MIP_CC_TelemetryConfiguration_SetHostName" PURGE="0" COMMENT="" />
    <EXPORT ORDINAL="109" NAME="MIP_CC_TelemetryConfiguration_SetHttpDelegate" PURGE="0" COMMENT="" />
    <EXPORT ORDINAL="110" NAME="MIP_CC_TelemetryConfiguration_SetIsFastShutdownEnabled" PURGE="0" COMMENT="" />
    <EXPORT ORDINAL="111" NAME="MIP_CC_TelemetryConfiguration_SetIsLocalCachingEnabled" PURGE="0" COMMENT="" />
    <EXPORT ORDINAL="112" NAME="MIP_CC_TelemetryConfiguration_SetIsNetworkDetectionEnabled" PURGE="0" COMMENT="" />
    <EXPORT ORDINAL="113" NAME="MIP_CC_TelemetryConfiguration_SetIsTelemetryOptedOut" PURGE="0" COMMENT="" />
    <EXPORT ORDINAL="114" NAME="MIP_CC_TelemetryConfiguration_SetIsTraceLoggingEnabled" PURGE="0" COMMENT="" />
    <EXPORT ORDINAL="115" NAME="MIP_CC_TelemetryConfiguration_SetLibraryName" PURGE="0" COMMENT="" />
    <EXPORT ORDINAL="116" NAME="MIP_CC_TelemetryConfiguration_SetTaskDispatcherDelegate" PURGE="0" COMMENT="" />
</LIBRARY>

