<?xml version="1.0" encoding="UTF-8"?>
<LIBRARY NAME="uwfcfgmgmt.dll" PATH="/DLLArchive/windows10LTSCX86_64/uwfcfgmgmt.dll" DATE="Wed Oct 06 06:53:11 PDT 2021" VERSION="">
    <EXPORT ORDINAL="1" NAME="??0CDevice@@QEAA@XZ" PURGE="0" COMMENT="" />
    <EXPORT ORDINAL="2" NAME="??0CUwfConfiguration@@QEAA@XZ" PURGE="0" COMMENT="" />
    <EXPORT ORDINAL="3" NAME="??0CUwfManagement@@QEAA@XZ" PURGE="0" COMMENT="" />
    <EXPORT ORDINAL="4" NAME="??0CUwfOverlayDevice@@QEAA@XZ" PURGE="0" COMMENT="" />
    <EXPORT ORDINAL="5" NAME="??0CUwfRegDevice@@QEAA@XZ" PURGE="0" COMMENT="" />
    <EXPORT ORDINAL="6" NAME="??0CUwfRegKey@@QEAA@XZ" PURGE="0" COMMENT="" />
    <EXPORT ORDINAL="7" NAME="??0CUwfStaticConfiguration@@QEAA@XZ" PURGE="0" COMMENT="" />
    <EXPORT ORDINAL="8" NAME="??0CUwfStaticVolumeConfiguration@@QEAA@XZ" PURGE="0" COMMENT="" />
    <EXPORT ORDINAL="9" NAME="??0CUwfVolumeDevice@@QEAA@XZ" PURGE="0" COMMENT="" />
    <EXPORT ORDINAL="10" NAME="??1CDevice@@UEAA@XZ" PURGE="0" COMMENT="" />
    <EXPORT ORDINAL="11" NAME="??1CUwfConfiguration@@UEAA@XZ" PURGE="0" COMMENT="" />
    <EXPORT ORDINAL="12" NAME="??1CUwfManagement@@UEAA@XZ" PURGE="0" COMMENT="" />
    <EXPORT ORDINAL="13" NAME="??1CUwfRegDevice@@UEAA@XZ" PURGE="0" COMMENT="" />
    <EXPORT ORDINAL="14" NAME="??1CUwfRegKey@@QEAA@XZ" PURGE="0" COMMENT="" />
    <EXPORT ORDINAL="15" NAME="??1CUwfStaticConfiguration@@UEAA@XZ" PURGE="0" COMMENT="" />
    <EXPORT ORDINAL="16" NAME="??1CUwfStaticVolumeConfiguration@@UEAA@XZ" PURGE="0" COMMENT="" />
    <EXPORT ORDINAL="17" NAME="??1CUwfVolumeDevice@@UEAA@XZ" PURGE="0" COMMENT="" />
    <EXPORT ORDINAL="18" NAME="?AddDWORDValue@CUwfRegKey@@QEAAJPEBGK@Z" PURGE="0" COMMENT="" />
    <EXPORT ORDINAL="19" NAME="?AddFileExclusion@CUwfStaticVolumeConfiguration@@QEAAJPEBG@Z" PURGE="0" COMMENT="" />
    <EXPORT ORDINAL="20" NAME="?AddMultiSzValue@CUwfRegKey@@QEAAJPEBG0@Z" PURGE="0" COMMENT="" />
    <EXPORT ORDINAL="21" NAME="?AddRegKeyExclusion@CUwfStaticConfiguration@@QEAAJPEBG@Z" PURGE="0" COMMENT="" />
    <EXPORT ORDINAL="22" NAME="?Attach@CUwfRegKey@@QEAAJPEAUHKEY__@@@Z" PURGE="0" COMMENT="" />
    <EXPORT ORDINAL="23" NAME="?Begin@CUwfProvider@@QEAAJXZ" PURGE="0" COMMENT="" />
    <EXPORT ORDINAL="24" NAME="?Begin@CUwfProvider@@QEAAJ_N@Z" PURGE="0" COMMENT="" />
    <EXPORT ORDINAL="25" NAME="?CanFileBeCommitted@@YA_NPEBG0@Z" PURGE="0" COMMENT="" />
    <EXPORT ORDINAL="26" NAME="?CanVolumeBeProtected@@YAJPEBG_NPEA_N@Z" PURGE="0" COMMENT="" />
    <EXPORT ORDINAL="27" NAME="?CaptureUwfSettings@@YAJW4E_UNATTEND_REASON@@@Z" PURGE="0" COMMENT="" />
    <EXPORT ORDINAL="28" NAME="?Close@CDevice@@QEAAXXZ" PURGE="0" COMMENT="" />
    <EXPORT ORDINAL="29" NAME="?Close@CUwfConfiguration@@QEAAXXZ" PURGE="0" COMMENT="" />
    <EXPORT ORDINAL="30" NAME="?Close@CUwfManagement@@QEAAXXZ" PURGE="0" COMMENT="" />
    <EXPORT ORDINAL="31" NAME="?Close@CUwfRegKey@@QEAAJXZ" PURGE="0" COMMENT="" />
    <EXPORT ORDINAL="32" NAME="?Close@CUwfStaticConfiguration@@QEAAXXZ" PURGE="0" COMMENT="" />
    <EXPORT ORDINAL="33" NAME="?Close@CUwfStaticVolumeConfiguration@@QEAAXXZ" PURGE="0" COMMENT="" />
    <EXPORT ORDINAL="34" NAME="?CommitFile@CUwfManagement@@QEAAJPEBG0@Z" PURGE="0" COMMENT="" />
    <EXPORT ORDINAL="35" NAME="?CommitFileDeletion@CUwfManagement@@QEAAJPEBG00@Z" PURGE="0" COMMENT="" />
    <EXPORT ORDINAL="36" NAME="?CommitRegistry@CUwfManagement@@QEAAJ_NPEBG1@Z" PURGE="0" COMMENT="" />
    <EXPORT ORDINAL="37" NAME="?CommitRegistryDeletion@CUwfManagement@@QEAAJ_NPEBG1@Z" PURGE="0" COMMENT="" />
    <EXPORT ORDINAL="38" NAME="?CommitRegistryKey@CUwfRegDevice@@QEAAJPEBG@Z" PURGE="0" COMMENT="" />
    <EXPORT ORDINAL="39" NAME="?CommitRegistryKeyDeletion@CUwfRegDevice@@QEAAJPEBG@Z" PURGE="0" COMMENT="" />
    <EXPORT ORDINAL="40" NAME="?CommitRegistryValue@CUwfRegDevice@@QEAAJPEBG0@Z" PURGE="0" COMMENT="" />
    <EXPORT ORDINAL="41" NAME="?CommitRegistryValueDeletion@CUwfRegDevice@@QEAAJPEBG0@Z" PURGE="0" COMMENT="" />
    <EXPORT ORDINAL="42" NAME="?Compare@CUwfStaticVolumeConfiguration@@QEAAJAEAV1@PEA_N@Z" PURGE="0" COMMENT="" />
    <EXPORT ORDINAL="43" NAME="?CopyTo@CUwfStaticConfiguration@@QEAAJPEAUHKEY__@@PEBG_N@Z" PURGE="0" COMMENT="" />
    <EXPORT ORDINAL="44" NAME="?CopyTree@CUwfConfiguration@@QEAAJAEAVCUwfRegKey@@PEBGPEAUHKEY__@@_N@Z" PURGE="0" COMMENT="" />
    <EXPORT ORDINAL="45" NAME="?CopyTree@CUwfRegKey@@QEAAJAEAV1@PEBG_N@Z" PURGE="0" COMMENT="" />
    <EXPORT ORDINAL="46" NAME="?CopyTree@CUwfRegKey@@QEAAJPEAUHKEY__@@PEBG_N@Z" PURGE="0" COMMENT="" />
    <EXPORT ORDINAL="47" NAME="?CopyTreeTransacted@CUwfRegKey@@QEAAJPEBGPEAUHKEY__@@PEAX_N@Z" PURGE="0" COMMENT="" />
    <EXPORT ORDINAL="48" NAME="?Create@CUwfRegKey@@QEAAJPEAUHKEY__@@PEBGPEAGKKPEAU_SECURITY_ATTRIBUTES@@PEAK@Z" PURGE="0" COMMENT="" />
    <EXPORT ORDINAL="49" NAME="?CreateKey@CUwfConfiguration@@QEAAJPEAUHKEY__@@PEBGKKPEAKAEAVCUwfRegKey@@@Z" PURGE="0" COMMENT="" />
    <EXPORT ORDINAL="50" NAME="?CreateOverlayFile@CUwfStaticConfiguration@@QEAAJK@Z" PURGE="0" COMMENT="" />
    <EXPORT ORDINAL="51" NAME="?CreateSubKey@CUwfRegKey@@QEAAJPEBGKKPEAKPEAV1@@Z" PURGE="0" COMMENT="" />
    <EXPORT ORDINAL="52" NAME="?CreateTransacted@CUwfRegKey@@QEAAJPEAUHKEY__@@PEBGPEAGKKPEAU_SECURITY_ATTRIBUTES@@PEAKPEAX@Z" PURGE="0" COMMENT="" />
    <EXPORT ORDINAL="53" NAME="?CreateVolume@CUwfStaticConfiguration@@QEAAJPEBG0PEAPEAVCUwfStaticVolumeConfiguration@@@Z" PURGE="0" COMMENT="" />
    <EXPORT ORDINAL="54" NAME="?DeleteBindingConfiguration@CUwfStaticVolumeConfiguration@@QEAAJXZ" PURGE="0" COMMENT="" />
    <EXPORT ORDINAL="55" NAME="?DeleteFileW@CUwfConfiguration@@QEAAJPEBG@Z" PURGE="0" COMMENT="" />
    <EXPORT ORDINAL="56" NAME="?DeleteOverlayFile@CUwfStaticConfiguration@@QEAAJXZ" PURGE="0" COMMENT="" />
    <EXPORT ORDINAL="57" NAME="?DeleteTree@CUwfConfiguration@@QEAAJAEAVCUwfRegKey@@PEBG@Z" PURGE="0" COMMENT="" />
    <EXPORT ORDINAL="58" NAME="?DeleteTree@CUwfRegKey@@QEAAJPEBG@Z" PURGE="0" COMMENT="" />
    <EXPORT ORDINAL="59" NAME="?DeleteTreeFromRoot@CUwfConfiguration@@QEAAJAEAVCUwfRegKey@@PEBG@Z" PURGE="0" COMMENT="" />
    <EXPORT ORDINAL="60" NAME="?DeleteTreeTransacted@CUwfRegKey@@QEAAJPEBGPEAX@Z" PURGE="0" COMMENT="" />
    <EXPORT ORDINAL="61" NAME="?DeleteValue@CUwfRegKey@@QEAAJPEBG@Z" PURGE="0" COMMENT="" />
    <EXPORT ORDINAL="62" NAME="?DeleteVolume@CUwfStaticConfiguration@@QEAAJK@Z" PURGE="0" COMMENT="" />
    <EXPORT ORDINAL="63" NAME="?Detach@CUwfRegKey@@QEAAPEAUHKEY__@@XZ" PURGE="0" COMMENT="" />
    <EXPORT ORDINAL="64" NAME="?DisableAutoDefragService@@YAJH@Z" PURGE="0" COMMENT="" />
    <EXPORT ORDINAL="65" NAME="?DisableService@@YAJPEBG_N@Z" PURGE="0" COMMENT="" />
    <EXPORT ORDINAL="66" NAME="?ExecuteBackgroundProcess@@YAJPEBG0_NPEAK@Z" PURGE="0" COMMENT="" />
    <EXPORT ORDINAL="67" NAME="?Finalize@CUwfManagement@@QEAAJXZ" PURGE="0" COMMENT="" />
    <EXPORT ORDINAL="68" NAME="?Finalize@CUwfProvider@@QEAAJXZ" PURGE="0" COMMENT="" />
    <EXPORT ORDINAL="69" NAME="?FindFileExclusion@CUwfStaticVolumeConfiguration@@QEAAJPEBG@Z" PURGE="0" COMMENT="" />
    <EXPORT ORDINAL="70" NAME="?FindRegKeyExclusion@CUwfStaticConfiguration@@QEAAJPEBG@Z" PURGE="0" COMMENT="" />
    <EXPORT ORDINAL="71" NAME="?FixupLowerFiltersSetting@@YAJXZ" PURGE="0" COMMENT="" />
    <EXPORT ORDINAL="72" NAME="?FixupUpdatedSettings@CUwfConfiguration@@QEAAJXZ" PURGE="0" COMMENT="" />
    <EXPORT ORDINAL="73" NAME="?GetConfiguration@CUwfProvider@@QEAAPEAVCUwfConfiguration@@XZ" PURGE="0" COMMENT="" />
    <EXPORT ORDINAL="74" NAME="?GetDriveLetterFromVolumeName@@YAJPEBGPEAG@Z" PURGE="0" COMMENT="" />
    <EXPORT ORDINAL="75" NAME="?GetManagement@CUwfProvider@@QEAAPEAVCUwfManagement@@XZ" PURGE="0" COMMENT="" />
    <EXPORT ORDINAL="76" NAME="?GetOverlayFileName@CUwfStaticConfiguration@@QEAAJPEAPEAG@Z" PURGE="0" COMMENT="" />
    <EXPORT ORDINAL="77" NAME="?GetOverlayFiles@CUwfOverlayDevice@@QEAAJAEA_KAEAV?$CRBMap@V?$CStringT@GV?$StrTraitATL@GV?$ChTraitsCRT@G@ATL@@@ATL@@@ATL@@_KV?$CElementTraits@V?$CStringT@GV?$StrTraitATL@GV?$ChTraitsCRT@G@ATL@@@ATL@@@ATL@@@2@V?$CElementTraits@_K@2@@ATL@@@Z" PURGE="0" COMMENT="" />
    <EXPORT ORDINAL="78" NAME="?GetServiceStartType@@YAJPEBGPEAK@Z" PURGE="0" COMMENT="" />
    <EXPORT ORDINAL="79" NAME="?GetStaticConfiguration@CUwfProvider@@QEAAJ_NPEAPEAVCUwfStaticConfiguration@@@Z" PURGE="0" COMMENT="" />
    <EXPORT ORDINAL="80" NAME="?GetSubKeyAt@CUwfRegKey@@QEAAJKPEAGK@Z" PURGE="0" COMMENT="" />
    <EXPORT ORDINAL="81" NAME="?GetSystemDriveLetter@@YAJPEAPEAG@Z" PURGE="0" COMMENT="" />
    <EXPORT ORDINAL="82" NAME="?GetSystemShutdownState@CUwfManagement@@QEAAJPEA_N@Z" PURGE="0" COMMENT="" />
    <EXPORT ORDINAL="83" NAME="?GetUwfProtectableVolumeList@@YAJ_NPEAKPEAUUWF_PROTECTABLEVOLUME_INFO@@@Z" PURGE="0" COMMENT="" />
    <EXPORT ORDINAL="84" NAME="?GetUwfProvider@CUwfProvider@@SAPEAV1@XZ" PURGE="0" COMMENT="" />
    <EXPORT ORDINAL="85" NAME="?GetVolumeGuidFromDriveName@@YAJPEBGPEAGK@Z" PURGE="0" COMMENT="" />
    <EXPORT ORDINAL="86" NAME="?GetWinResumeObjectId@@YAJPEAPEAG@Z" PURGE="0" COMMENT="" />
    <EXPORT ORDINAL="87" NAME="?HaveCapturedUwfSettings@@YAJPEA_N@Z" PURGE="0" COMMENT="" />
    <EXPORT ORDINAL="88" NAME="?HaveUwfFactorySettings@CUwfConfiguration@@QEAAJPEA_N@Z" PURGE="0" COMMENT="" />
    <EXPORT ORDINAL="89" NAME="?HiberFileExists@@YA_NXZ" PURGE="0" COMMENT="" />
    <EXPORT ORDINAL="90" NAME="?Initialize@CDevice@@QEAAJPEBG@Z" PURGE="0" COMMENT="" />
    <EXPORT ORDINAL="91" NAME="?Initialize@CUwfConfiguration@@QEAAJPEAX@Z" PURGE="0" COMMENT="" />
    <EXPORT ORDINAL="92" NAME="?Initialize@CUwfManagement@@QEAAJXZ" PURGE="0" COMMENT="" />
    <EXPORT ORDINAL="93" NAME="?Initialize@CUwfManagement@@QEAAJ_N@Z" PURGE="0" COMMENT="" />
    <EXPORT ORDINAL="94" NAME="?Initialize@CUwfOverlayDevice@@QEAAJPEBG@Z" PURGE="0" COMMENT="" />
    <EXPORT ORDINAL="95" NAME="?Initialize@CUwfRegDevice@@QEAAJXZ" PURGE="0" COMMENT="" />
    <EXPORT ORDINAL="96" NAME="?Initialize@CUwfStaticVolumeConfiguration@@QEAAJPEAUHKEY__@@K_NPEAVCUwfConfiguration@@PEAVCUwfStaticConfiguration@@@Z" PURGE="0" COMMENT="" />
    <EXPORT ORDINAL="97" NAME="?Initialize@CUwfVolumeDevice@@QEAAJXZ" PURGE="0" COMMENT="" />
    <EXPORT ORDINAL="98" NAME="?InitializeWithNoPermissions@CDevice@@QEAAJPEBG@Z" PURGE="0" COMMENT="" />
    <EXPORT ORDINAL="99" NAME="?IsCurrentSession@CUwfStaticConfiguration@@QEAA_NXZ" PURGE="0" COMMENT="" />
    <EXPORT ORDINAL="100" NAME="?IsFileExcluded@CUwfStaticVolumeConfiguration@@QEAAJPEBGPEA_N@Z" PURGE="0" COMMENT="" />
    <EXPORT ORDINAL="101" NAME="?IsHORMEnabled@CUwfConfiguration@@QEAA_NXZ" PURGE="0" COMMENT="" />
    <EXPORT ORDINAL="102" NAME="?IsOverlayFileExist@CUwfStaticConfiguration@@QEAAJPEA_N@Z" PURGE="0" COMMENT="" />
    <EXPORT ORDINAL="103" NAME="?IsUserAdmin@@YAJPEA_N@Z" PURGE="0" COMMENT="" />
    <EXPORT ORDINAL="104" NAME="?IsValidDriveLetter@@YA_NPEBG@Z" PURGE="0" COMMENT="" />
    <EXPORT ORDINAL="105" NAME="?IsValidOverlayConfig@@YA_NW4_UWF_CONFIG_OVERLAY_TYPE@@K@Z" PURGE="0" COMMENT="" />
    <EXPORT ORDINAL="106" NAME="?IsValidVolumeName@@YA_NPEBG@Z" PURGE="0" COMMENT="" />
    <EXPORT ORDINAL="107" NAME="?LOCK@CUwfProvider@@QEAAXXZ" PURGE="2147483647" COMMENT="" />
    <EXPORT ORDINAL="108" NAME="?Open@CUwfRegKey@@QEAAJPEAUHKEY__@@PEBGK@Z" PURGE="0" COMMENT="" />
    <EXPORT ORDINAL="109" NAME="?Open@CUwfStaticConfiguration@@QEAAJ_NK0PEAVCUwfConfiguration@@@Z" PURGE="0" COMMENT="" />
    <EXPORT ORDINAL="110" NAME="?OpenKey@CUwfConfiguration@@QEAAJPEAUHKEY__@@PEBGKAEAVCUwfRegKey@@@Z" PURGE="0" COMMENT="" />
    <EXPORT ORDINAL="111" NAME="?OpenSubKey@CUwfRegKey@@QEAAJPEBGKAEAV1@@Z" PURGE="0" COMMENT="" />
    <EXPORT ORDINAL="112" NAME="?OpenSubKeyAt@CUwfRegKey@@QEAAJKKAEAV1@@Z" PURGE="0" COMMENT="" />
    <EXPORT ORDINAL="113" NAME="?OpenTransacted@CUwfRegKey@@QEAAJPEAUHKEY__@@PEBGKPEAX@Z" PURGE="0" COMMENT="" />
    <EXPORT ORDINAL="114" NAME="?ParsePathSpec@@YAJPEBGPEAGK1K1K@Z" PURGE="0" COMMENT="" />
    <EXPORT ORDINAL="115" NAME="?ParseVolumeGUID@@YAJPEBGPEAGK@Z" PURGE="0" COMMENT="" />
    <EXPORT ORDINAL="116" NAME="?QueryBinaryValue@CUwfRegKey@@QEAAJPEBGPEAPEAEPEAK@Z" PURGE="0" COMMENT="" />
    <EXPORT ORDINAL="117" NAME="?QueryDWORDValue@CUwfRegKey@@QEAAJPEBGPEAK@Z" PURGE="0" COMMENT="" />
    <EXPORT ORDINAL="118" NAME="?QueryMultiSzValue@CUwfRegKey@@QEAAJPEBGPEAPEAU_MULTISZ@@@Z" PURGE="0" COMMENT="" />
    <EXPORT ORDINAL="119" NAME="?QueryQWORDValue@CUwfRegKey@@QEAAJPEBGPEA_K@Z" PURGE="0" COMMENT="" />
    <EXPORT ORDINAL="120" NAME="?QuerySzValue@CUwfRegKey@@QEAAJPEBGPEAPEAG@Z" PURGE="0" COMMENT="" />
    <EXPORT ORDINAL="121" NAME="?ReOpen@CUwfStaticConfiguration@@QEAAJK@Z" PURGE="0" COMMENT="" />
    <EXPORT ORDINAL="122" NAME="?ReOpen@CUwfStaticVolumeConfiguration@@QEAAJPEAUHKEY__@@@Z" PURGE="0" COMMENT="" />
    <EXPORT ORDINAL="123" NAME="?RegReadValue@@YAJPEAUHKEY__@@PEBGKPEAPEAEPEAK@Z" PURGE="0" COMMENT="" />
    <EXPORT ORDINAL="124" NAME="?ReleaseStaticVolumeConfiguration@CUwfStaticConfiguration@@QEAAXXZ" PURGE="0" COMMENT="" />
    <EXPORT ORDINAL="125" NAME="?RemoveAllFileExclusions@CUwfStaticVolumeConfiguration@@QEAAJXZ" PURGE="0" COMMENT="" />
    <EXPORT ORDINAL="126" NAME="?RemoveFileExclusion@CUwfStaticVolumeConfiguration@@QEAAJPEBG@Z" PURGE="0" COMMENT="" />
    <EXPORT ORDINAL="127" NAME="?RemoveRegKeyExclusion@CUwfStaticConfiguration@@QEAAJPEBG@Z" PURGE="0" COMMENT="" />
    <EXPORT ORDINAL="128" NAME="?ResetBindingConfiguration@CUwfStaticVolumeConfiguration@@QEAAJXZ" PURGE="0" COMMENT="" />
    <EXPORT ORDINAL="129" NAME="?ResetFileExclusions@CUwfStaticVolumeConfiguration@@QEAAJXZ" PURGE="0" COMMENT="" />
    <EXPORT ORDINAL="130" NAME="?ResetUwfSettings@CUwfConfiguration@@QEAAJXZ" PURGE="0" COMMENT="" />
    <EXPORT ORDINAL="131" NAME="?ResetUwfSettings@CUwfManagement@@QEAAJXZ" PURGE="0" COMMENT="" />
    <EXPORT ORDINAL="132" NAME="?SendIOCTL@CDevice@@QEAAJKPEAXK0KPEAK@Z" PURGE="0" COMMENT="" />
    <EXPORT ORDINAL="133" NAME="?SetBinaryValue@CUwfRegKey@@QEAAJPEBGPEAEK@Z" PURGE="0" COMMENT="" />
    <EXPORT ORDINAL="134" NAME="?SetBootStatusPolicy@@YAJPEBG@Z" PURGE="0" COMMENT="" />
    <EXPORT ORDINAL="135" NAME="?SetDWORDValue@CUwfRegKey@@QEAAJPEBGK@Z" PURGE="0" COMMENT="" />
    <EXPORT ORDINAL="136" NAME="?SetMultiSzValue@CUwfRegKey@@QEAAJPEBGQEAU_MULTISZ@@@Z" PURGE="0" COMMENT="" />
    <EXPORT ORDINAL="137" NAME="?SetOverlayFileSize@CUwfStaticConfiguration@@QEAAJK@Z" PURGE="0" COMMENT="" />
    <EXPORT ORDINAL="138" NAME="?SetQWORDValue@CUwfRegKey@@QEAAJPEBG_K@Z" PURGE="0" COMMENT="" />
    <EXPORT ORDINAL="139" NAME="?SetServiceStartType@@YAJPEBGK@Z" PURGE="0" COMMENT="" />
    <EXPORT ORDINAL="140" NAME="?SetSzValue@CUwfRegKey@@QEAAJPEBG0@Z" PURGE="0" COMMENT="" />
    <EXPORT ORDINAL="141" NAME="?ShutdownSystem@CUwfManagement@@QEAAJ_N@Z" PURGE="0" COMMENT="" />
    <EXPORT ORDINAL="142" NAME="?UNLOCK@CUwfProvider@@QEAAXXZ" PURGE="2147483647" COMMENT="" />
    <EXPORT ORDINAL="143" NAME="?UpdateDWORDValue@CUwfConfiguration@@QEAAJAEAVCUwfRegKey@@PEBGK_N@Z" PURGE="0" COMMENT="" />
    <EXPORT ORDINAL="144" NAME="?UpdateMultiSzValue@CUwfConfiguration@@QEAAJAEAVCUwfRegKey@@PEBGQEAU_MULTISZ@@_N@Z" PURGE="0" COMMENT="" />
    <EXPORT ORDINAL="145" NAME="?UpdateQWORDValue@CUwfConfiguration@@QEAAJAEAVCUwfRegKey@@PEBG_K_N@Z" PURGE="0" COMMENT="" />
    <EXPORT ORDINAL="146" NAME="?UpdateSzValue@CUwfConfiguration@@QEAAJAEAVCUwfRegKey@@PEBG1_N@Z" PURGE="0" COMMENT="" />
    <EXPORT ORDINAL="147" NAME="UwfCfgAddFileExclusion" PURGE="0" COMMENT="" />
    <EXPORT ORDINAL="148" NAME="UwfCfgAddRegExclusion" PURGE="0" COMMENT="" />
    <EXPORT ORDINAL="149" NAME="UwfCfgAddVolume" PURGE="0" COMMENT="" />
    <EXPORT ORDINAL="150" NAME="UwfCfgCommitFile" PURGE="0" COMMENT="" />
    <EXPORT ORDINAL="151" NAME="UwfCfgCommitFileDeletion" PURGE="0" COMMENT="" />
    <EXPORT ORDINAL="152" NAME="UwfCfgCommitRegistry" PURGE="0" COMMENT="" />
    <EXPORT ORDINAL="153" NAME="UwfCfgCommitRegistryDeletion" PURGE="0" COMMENT="" />
    <EXPORT ORDINAL="154" NAME="UwfCfgDoesFileExclusionExist" PURGE="0" COMMENT="" />
    <EXPORT ORDINAL="155" NAME="UwfCfgDoesRegExclusionExist" PURGE="0" COMMENT="" />
    <EXPORT ORDINAL="156" NAME="UwfCfgDoesVolumeExist" PURGE="0" COMMENT="" />
    <EXPORT ORDINAL="157" NAME="UwfCfgGetCriticalThreshold" PURGE="0" COMMENT="" />
    <EXPORT ORDINAL="158" NAME="UwfCfgGetDriveLetter" PURGE="0" COMMENT="" />
    <EXPORT ORDINAL="159" NAME="UwfCfgGetFileExclusions" PURGE="0" COMMENT="" />
    <EXPORT ORDINAL="160" NAME="UwfCfgGetFilterEnabled" PURGE="0" COMMENT="" />
    <EXPORT ORDINAL="161" NAME="UwfCfgGetHormEnabled" PURGE="0" COMMENT="" />
    <EXPORT ORDINAL="162" NAME="UwfCfgGetOverlayCommitState" PURGE="0" COMMENT="" />
    <EXPORT ORDINAL="163" NAME="UwfCfgGetOverlayFlags" PURGE="0" COMMENT="" />
    <EXPORT ORDINAL="164" NAME="UwfCfgGetOverlayInformation" PURGE="0" COMMENT="" />
    <EXPORT ORDINAL="165" NAME="UwfCfgGetOverlayMaximumSize" PURGE="0" COMMENT="" />
    <EXPORT ORDINAL="166" NAME="UwfCfgGetOverlayType" PURGE="0" COMMENT="" />
    <EXPORT ORDINAL="167" NAME="UwfCfgGetPersistDomainSecretKey" PURGE="0" COMMENT="" />
    <EXPORT ORDINAL="168" NAME="UwfCfgGetPersistTSCAL" PURGE="0" COMMENT="" />
    <EXPORT ORDINAL="169" NAME="UwfCfgGetRegExclusions" PURGE="0" COMMENT="" />
    <EXPORT ORDINAL="170" NAME="UwfCfgGetResetPersistentOverlay" PURGE="0" COMMENT="" />
    <EXPORT ORDINAL="171" NAME="UwfCfgGetResetPersistentOverlaySavedMode" PURGE="0" COMMENT="" />
    <EXPORT ORDINAL="172" NAME="UwfCfgGetServicingModeEnabled" PURGE="0" COMMENT="" />
    <EXPORT ORDINAL="173" NAME="UwfCfgGetShutdownPending" PURGE="0" COMMENT="" />
    <EXPORT ORDINAL="174" NAME="UwfCfgGetVolumeBindByDriveLetter" PURGE="0" COMMENT="" />
    <EXPORT ORDINAL="175" NAME="UwfCfgGetVolumeProtected" PURGE="0" COMMENT="" />
    <EXPORT ORDINAL="176" NAME="UwfCfgGetVolumeSwapfileSize" PURGE="0" COMMENT="" />
    <EXPORT ORDINAL="177" NAME="UwfCfgGetVolumes" PURGE="0" COMMENT="" />
    <EXPORT ORDINAL="178" NAME="UwfCfgGetWarningThreshold" PURGE="0" COMMENT="" />
    <EXPORT ORDINAL="179" NAME="UwfCfgRemoveFileExclusion" PURGE="0" COMMENT="" />
    <EXPORT ORDINAL="180" NAME="UwfCfgRemoveRegExclusion" PURGE="0" COMMENT="" />
    <EXPORT ORDINAL="181" NAME="UwfCfgRemoveVolume" PURGE="0" COMMENT="" />
    <EXPORT ORDINAL="182" NAME="UwfCfgResetSettings" PURGE="0" COMMENT="" />
    <EXPORT ORDINAL="183" NAME="UwfCfgRestartSystem" PURGE="0" COMMENT="" />
    <EXPORT ORDINAL="184" NAME="UwfCfgSetCriticalThreshold" PURGE="0" COMMENT="" />
    <EXPORT ORDINAL="185" NAME="UwfCfgSetFilterEnabled" PURGE="0" COMMENT="" />
    <EXPORT ORDINAL="186" NAME="UwfCfgSetHormEnabled" PURGE="0" COMMENT="" />
    <EXPORT ORDINAL="187" NAME="UwfCfgSetOverlayCommitState" PURGE="0" COMMENT="" />
    <EXPORT ORDINAL="188" NAME="UwfCfgSetOverlayFlags" PURGE="0" COMMENT="" />
    <EXPORT ORDINAL="189" NAME="UwfCfgSetOverlayMaximumSize" PURGE="0" COMMENT="" />
    <EXPORT ORDINAL="190" NAME="UwfCfgSetOverlayType" PURGE="0" COMMENT="" />
    <EXPORT ORDINAL="191" NAME="UwfCfgSetPersistDomainSecretKey" PURGE="0" COMMENT="" />
    <EXPORT ORDINAL="192" NAME="UwfCfgSetPersistTSCAL" PURGE="0" COMMENT="" />
    <EXPORT ORDINAL="193" NAME="UwfCfgSetResetPersistentOverlay" PURGE="0" COMMENT="" />
    <EXPORT ORDINAL="194" NAME="UwfCfgSetResetPersistentOverlaySavedMode" PURGE="0" COMMENT="" />
    <EXPORT ORDINAL="195" NAME="UwfCfgSetServicingModeEnabled" PURGE="0" COMMENT="" />
    <EXPORT ORDINAL="196" NAME="UwfCfgSetVolumeBindByDriveLetter" PURGE="0" COMMENT="" />
    <EXPORT ORDINAL="197" NAME="UwfCfgSetVolumeProtected" PURGE="0" COMMENT="" />
    <EXPORT ORDINAL="198" NAME="UwfCfgSetVolumeSwapfileSize" PURGE="0" COMMENT="" />
    <EXPORT ORDINAL="199" NAME="UwfCfgSetWarningThreshold" PURGE="0" COMMENT="" />
    <EXPORT ORDINAL="200" NAME="UwfCfgShutdownSystem" PURGE="0" COMMENT="" />
    <EXPORT ORDINAL="201" NAME="?ValidateFileNameToBeCommitted@@YA?AW4FILE_COMMIT_VALIDATE_RESULT@@_NPEBG11@Z" PURGE="0" COMMENT="" />
    <EXPORT ORDINAL="202" NAME="?ValidateRegistryKeyValueToBeCommitted@@YA?AW4REG_COMMIT_VALIDATE_RESULT@@_N0PEBG1KPEAPEAG@Z" PURGE="0" COMMENT="" />
    <EXPORT ORDINAL="203" NAME="?VolumeGetConfig@@YAJPEAVCUwfStaticConfiguration@@PEBG1PEAPEAVCUwfStaticVolumeConfiguration@@@Z" PURGE="0" COMMENT="" />
    <EXPORT ORDINAL="204" NAME="?VolumeGetVolumeGuid@@YAJPEBGPEAGK@Z" PURGE="0" COMMENT="" />
    <EXPORT ORDINAL="205" NAME="?get_BindingType@CUwfStaticVolumeConfiguration@@QEAAJPEAK@Z" PURGE="0" COMMENT="" />
    <EXPORT ORDINAL="206" NAME="?get_DiskNumber@CUwfStaticVolumeConfiguration@@QEAAJPEAK@Z" PURGE="0" COMMENT="" />
    <EXPORT ORDINAL="207" NAME="?get_DiskSignature@CUwfStaticVolumeConfiguration@@QEAAJPEAK@Z" PURGE="0" COMMENT="" />
    <EXPORT ORDINAL="208" NAME="?get_DriveLetter@CUwfStaticVolumeConfiguration@@QEAAJPEAPEAG@Z" PURGE="0" COMMENT="" />
    <EXPORT ORDINAL="209" NAME="?get_FileExclusions@CUwfStaticVolumeConfiguration@@QEAAJPEAPEAU_MULTISZ@@@Z" PURGE="0" COMMENT="" />
    <EXPORT ORDINAL="210" NAME="?get_HORMEnabled@CUwfConfiguration@@QEAAJPEA_N@Z" PURGE="0" COMMENT="" />
    <EXPORT ORDINAL="211" NAME="?get_HORMEnabled@CUwfManagement@@QEAAJPEA_N@Z" PURGE="0" COMMENT="" />
    <EXPORT ORDINAL="212" NAME="?get_IsNoFileExclusion@CUwfStaticConfiguration@@QEAAJPEA_N@Z" PURGE="0" COMMENT="" />
    <EXPORT ORDINAL="213" NAME="?get_IsNoRegExclusion@CUwfStaticConfiguration@@QEAAJPEA_N@Z" PURGE="0" COMMENT="" />
    <EXPORT ORDINAL="214" NAME="?get_NumVolumes@CUwfStaticConfiguration@@QEAAJPEAK@Z" PURGE="0" COMMENT="" />
    <EXPORT ORDINAL="215" NAME="?get_OverlayCriticalThreshold@CUwfConfiguration@@QEAAJPEAK@Z" PURGE="0" COMMENT="" />
    <EXPORT ORDINAL="216" NAME="?get_OverlayCriticalThreshold@CUwfManagement@@QEAAJPEAK@Z" PURGE="0" COMMENT="" />
    <EXPORT ORDINAL="217" NAME="?get_OverlayFlags@CUwfManagement@@QEAAJ_NPEAK@Z" PURGE="0" COMMENT="" />
    <EXPORT ORDINAL="218" NAME="?get_OverlayFlags@CUwfStaticConfiguration@@QEAAJPEAK@Z" PURGE="0" COMMENT="" />
    <EXPORT ORDINAL="219" NAME="?get_OverlayInformation@CUwfManagement@@QEAAJPEBGPEAU_UWFVOL_OVERLAY_DATA_OUTPUT@@PEAK2@Z" PURGE="0" COMMENT="" />
    <EXPORT ORDINAL="220" NAME="?get_OverlayMaximumSize@CUwfManagement@@QEAAJ_NPEAK@Z" PURGE="0" COMMENT="" />
    <EXPORT ORDINAL="221" NAME="?get_OverlayMaximumSize@CUwfStaticConfiguration@@QEAAJPEAK@Z" PURGE="0" COMMENT="" />
    <EXPORT ORDINAL="222" NAME="?get_OverlayType@CUwfManagement@@QEAAJ_NPEAW4_UWF_CONFIG_OVERLAY_TYPE@@@Z" PURGE="0" COMMENT="" />
    <EXPORT ORDINAL="223" NAME="?get_OverlayType@CUwfStaticConfiguration@@QEAAJPEAW4_UWF_CONFIG_OVERLAY_TYPE@@@Z" PURGE="0" COMMENT="" />
    <EXPORT ORDINAL="224" NAME="?get_OverlayWarningThreshold@CUwfConfiguration@@QEAAJPEAK@Z" PURGE="0" COMMENT="" />
    <EXPORT ORDINAL="225" NAME="?get_OverlayWarningThreshold@CUwfManagement@@QEAAJPEAK@Z" PURGE="0" COMMENT="" />
    <EXPORT ORDINAL="226" NAME="?get_PartitionGUID@CUwfStaticVolumeConfiguration@@QEAAJPEAPEAG@Z" PURGE="0" COMMENT="" />
    <EXPORT ORDINAL="227" NAME="?get_PartitionNumber@CUwfStaticVolumeConfiguration@@QEAAJPEAK@Z" PURGE="0" COMMENT="" />
    <EXPORT ORDINAL="228" NAME="?get_PartitionOffset@CUwfStaticVolumeConfiguration@@QEAAJPEA_K@Z" PURGE="0" COMMENT="" />
    <EXPORT ORDINAL="229" NAME="?get_PartitionStyle@CUwfStaticVolumeConfiguration@@QEAAJPEAW4_PARTITION_STYLE@@@Z" PURGE="0" COMMENT="" />
    <EXPORT ORDINAL="230" NAME="?get_PersistDomainSecretKey@CUwfStaticConfiguration@@QEAAJPEA_N@Z" PURGE="0" COMMENT="" />
    <EXPORT ORDINAL="231" NAME="?get_PersistTSCAL@CUwfStaticConfiguration@@QEAAJPEA_N@Z" PURGE="0" COMMENT="" />
    <EXPORT ORDINAL="232" NAME="?get_Protected@CUwfStaticVolumeConfiguration@@QEAAJPEA_N@Z" PURGE="0" COMMENT="" />
    <EXPORT ORDINAL="233" NAME="?get_RegKeyExclusions@CUwfStaticConfiguration@@QEAAJPEAPEAU_MULTISZ@@@Z" PURGE="0" COMMENT="" />
    <EXPORT ORDINAL="234" NAME="?get_RegKeyExclusionsUWFSpecific@CUwfStaticConfiguration@@QEAAJPEAPEAU_MULTISZ@@@Z" PURGE="0" COMMENT="" />
    <EXPORT ORDINAL="235" NAME="?get_ResetPersistentOverlay@CUwfManagement@@QEAAJPEAK@Z" PURGE="0" COMMENT="" />
    <EXPORT ORDINAL="236" NAME="?get_ResetPersistentStateSavedMode@CUwfManagement@@QEAAJ_NPEAK@Z" PURGE="0" COMMENT="" />
    <EXPORT ORDINAL="237" NAME="?get_ResetPersistentStateSavedMode@CUwfStaticConfiguration@@QEAAJPEAK@Z" PURGE="0" COMMENT="" />
    <EXPORT ORDINAL="238" NAME="?get_RomModeDisposition@CUwfManagement@@QEAAJPEAW4_UWFVOL_ROM_MODE_DISPOSITION@@@Z" PURGE="0" COMMENT="" />
    <EXPORT ORDINAL="239" NAME="?get_RomModeDisposition@CUwfVolumeDevice@@QEAAJPEAW4_UWFVOL_ROM_MODE_DISPOSITION@@@Z" PURGE="0" COMMENT="" />
    <EXPORT ORDINAL="240" NAME="?get_ServicingModeEnabled@CUwfStaticConfiguration@@QEAAJPEA_N@Z" PURGE="0" COMMENT="" />
    <EXPORT ORDINAL="241" NAME="?get_StaticConfiguration@CUwfConfiguration@@QEAAJ_NPEAPEAVCUwfStaticConfiguration@@@Z" PURGE="0" COMMENT="" />
    <EXPORT ORDINAL="242" NAME="?get_StaticVolumeConfiguration@CUwfStaticConfiguration@@QEAAJKPEAPEAVCUwfStaticVolumeConfiguration@@@Z" PURGE="0" COMMENT="" />
    <EXPORT ORDINAL="243" NAME="?get_StaticVolumeConfiguration@CUwfStaticConfiguration@@QEAAJPEBG0PEAPEAVCUwfStaticVolumeConfiguration@@@Z" PURGE="0" COMMENT="" />
    <EXPORT ORDINAL="244" NAME="?get_StaticVolumeConfiguration@CUwfStaticConfiguration@@QEAAJPEBGPEAPEAVCUwfStaticVolumeConfiguration@@@Z" PURGE="0" COMMENT="" />
    <EXPORT ORDINAL="245" NAME="?get_SwapfileSize@CUwfStaticVolumeConfiguration@@QEAAJPEAK@Z" PURGE="0" COMMENT="" />
    <EXPORT ORDINAL="246" NAME="?get_UwfConfiguration@CUwfManagement@@QEAAJPEAPEAVCUwfConfiguration@@@Z" PURGE="0" COMMENT="" />
    <EXPORT ORDINAL="247" NAME="?get_UwfEnabled@CUwfStaticConfiguration@@QEAAJPEA_N@Z" PURGE="0" COMMENT="" />
    <EXPORT ORDINAL="248" NAME="?get_UwfEnabledBeforeServicing@CUwfConfiguration@@QEAAJPEAK@Z" PURGE="0" COMMENT="" />
    <EXPORT ORDINAL="249" NAME="?get_VolumeGuid@CUwfStaticVolumeConfiguration@@QEAAJPEAPEAG@Z" PURGE="0" COMMENT="" />
    <EXPORT ORDINAL="250" NAME="?set_BindingType@CUwfStaticVolumeConfiguration@@QEAAJK@Z" PURGE="0" COMMENT="" />
    <EXPORT ORDINAL="251" NAME="?set_DiskNumber@CUwfStaticVolumeConfiguration@@QEAAJK@Z" PURGE="0" COMMENT="" />
    <EXPORT ORDINAL="252" NAME="?set_DiskSignature@CUwfStaticVolumeConfiguration@@QEAAJK@Z" PURGE="0" COMMENT="" />
    <EXPORT ORDINAL="253" NAME="?set_DriveLetter@CUwfStaticVolumeConfiguration@@QEAAJPEBG@Z" PURGE="0" COMMENT="" />
    <EXPORT ORDINAL="254" NAME="?set_HORMEnabled@CUwfConfiguration@@QEAAJ_N0@Z" PURGE="0" COMMENT="" />
    <EXPORT ORDINAL="255" NAME="?set_HORMEnabled@CUwfManagement@@QEAAJ_N@Z" PURGE="0" COMMENT="" />
    <EXPORT ORDINAL="256" NAME="?set_HORMEnabled@CUwfVolumeDevice@@QEAAJ_N@Z" PURGE="0" COMMENT="" />
    <EXPORT ORDINAL="257" NAME="?set_NumVolumes@CUwfStaticConfiguration@@QEAAJK@Z" PURGE="0" COMMENT="" />
    <EXPORT ORDINAL="258" NAME="?set_OverlayCriticalThreshold@CUwfConfiguration@@QEAAJK@Z" PURGE="0" COMMENT="" />
    <EXPORT ORDINAL="259" NAME="?set_OverlayCriticalThreshold@CUwfManagement@@QEAAJK@Z" PURGE="0" COMMENT="" />
    <EXPORT ORDINAL="260" NAME="?set_OverlayCriticalThreshold@CUwfVolumeDevice@@QEAAJK@Z" PURGE="0" COMMENT="" />
    <EXPORT ORDINAL="261" NAME="?set_OverlayFlags@CUwfManagement@@QEAAJK@Z" PURGE="0" COMMENT="" />
    <EXPORT ORDINAL="262" NAME="?set_OverlayFlags@CUwfStaticConfiguration@@QEAAJK@Z" PURGE="0" COMMENT="" />
    <EXPORT ORDINAL="263" NAME="?set_OverlayMaximumSize@CUwfManagement@@QEAAJK@Z" PURGE="0" COMMENT="" />
    <EXPORT ORDINAL="264" NAME="?set_OverlayMaximumSize@CUwfStaticConfiguration@@QEAAJK@Z" PURGE="0" COMMENT="" />
    <EXPORT ORDINAL="265" NAME="?set_OverlayType@CUwfManagement@@QEAAJW4_UWF_CONFIG_OVERLAY_TYPE@@@Z" PURGE="0" COMMENT="" />
    <EXPORT ORDINAL="266" NAME="?set_OverlayType@CUwfStaticConfiguration@@QEAAJW4_UWF_CONFIG_OVERLAY_TYPE@@@Z" PURGE="0" COMMENT="" />
    <EXPORT ORDINAL="267" NAME="?set_OverlayWarningThreshold@CUwfConfiguration@@QEAAJK@Z" PURGE="0" COMMENT="" />
    <EXPORT ORDINAL="268" NAME="?set_OverlayWarningThreshold@CUwfManagement@@QEAAJK@Z" PURGE="0" COMMENT="" />
    <EXPORT ORDINAL="269" NAME="?set_OverlayWarningThreshold@CUwfVolumeDevice@@QEAAJK@Z" PURGE="0" COMMENT="" />
    <EXPORT ORDINAL="270" NAME="?set_PartitionGUID@CUwfStaticVolumeConfiguration@@QEAAJPEBG@Z" PURGE="0" COMMENT="" />
    <EXPORT ORDINAL="271" NAME="?set_PartitionNumber@CUwfStaticVolumeConfiguration@@QEAAJK@Z" PURGE="0" COMMENT="" />
    <EXPORT ORDINAL="272" NAME="?set_PartitionOffset@CUwfStaticVolumeConfiguration@@QEAAJ_K@Z" PURGE="0" COMMENT="" />
    <EXPORT ORDINAL="273" NAME="?set_PartitionStyle@CUwfStaticVolumeConfiguration@@QEAAJW4_PARTITION_STYLE@@@Z" PURGE="0" COMMENT="" />
    <EXPORT ORDINAL="274" NAME="?set_PersistDomainSecretKey@CUwfStaticConfiguration@@QEAAJ_N@Z" PURGE="0" COMMENT="" />
    <EXPORT ORDINAL="275" NAME="?set_PersistTSCAL@CUwfStaticConfiguration@@QEAAJ_N@Z" PURGE="0" COMMENT="" />
    <EXPORT ORDINAL="276" NAME="?set_Protected@CUwfStaticVolumeConfiguration@@QEAAJ_N@Z" PURGE="0" COMMENT="" />
    <EXPORT ORDINAL="277" NAME="?set_RegKeyExclusionsUWFSpecific@CUwfStaticConfiguration@@QEAAJPEAU_MULTISZ@@@Z" PURGE="0" COMMENT="" />
    <EXPORT ORDINAL="278" NAME="?set_ResetPersistentOverlay@CUwfManagement@@QEAAJK@Z" PURGE="0" COMMENT="" />
    <EXPORT ORDINAL="279" NAME="?set_ResetPersistentStateSavedMode@CUwfManagement@@QEAAJK@Z" PURGE="0" COMMENT="" />
    <EXPORT ORDINAL="280" NAME="?set_ResetPersistentStateSavedMode@CUwfStaticConfiguration@@QEAAJK@Z" PURGE="0" COMMENT="" />
    <EXPORT ORDINAL="281" NAME="?set_RomModeDisposition@CUwfManagement@@QEAAJW4_UWFVOL_ROM_MODE_DISPOSITION@@@Z" PURGE="0" COMMENT="" />
    <EXPORT ORDINAL="282" NAME="?set_RomModeDisposition@CUwfVolumeDevice@@QEAAJW4_UWFVOL_ROM_MODE_DISPOSITION@@@Z" PURGE="0" COMMENT="" />
    <EXPORT ORDINAL="283" NAME="?set_ServicingModeEnabled@CUwfManagement@@QEAAJ_N0@Z" PURGE="2147483647" COMMENT="" />
    <EXPORT ORDINAL="284" NAME="?set_ServicingModeEnabled@CUwfStaticConfiguration@@QEAAJ_N@Z" PURGE="0" COMMENT="" />
    <EXPORT ORDINAL="285" NAME="?set_SwapfileSize@CUwfStaticVolumeConfiguration@@QEAAJK@Z" PURGE="0" COMMENT="" />
    <EXPORT ORDINAL="286" NAME="?set_UwfBootPersistenceEnabled@CUwfConfiguration@@QEAAJ_N@Z" PURGE="0" COMMENT="" />
    <EXPORT ORDINAL="287" NAME="?set_UwfEnabled@CUwfStaticConfiguration@@QEAAJ_N@Z" PURGE="0" COMMENT="" />
    <EXPORT ORDINAL="288" NAME="?set_UwfEnabledBeforeServicing@CUwfConfiguration@@QEAAJK@Z" PURGE="0" COMMENT="" />
    <EXPORT ORDINAL="289" NAME="?set_VolumeGuid@CUwfStaticVolumeConfiguration@@QEAAJPEBG@Z" PURGE="0" COMMENT="" />
    <EXPORT ORDINAL="290" NAME="MultiSzAdd" PURGE="0" COMMENT="" />
    <EXPORT ORDINAL="291" NAME="MultiSzAlloc" PURGE="0" COMMENT="" />
    <EXPORT ORDINAL="292" NAME="MultiSzCompare" PURGE="0" COMMENT="" />
    <EXPORT ORDINAL="293" NAME="MultiSzFind" PURGE="0" COMMENT="" />
    <EXPORT ORDINAL="294" NAME="MultiSzFree" PURGE="2147483647" COMMENT="" />
    <EXPORT ORDINAL="295" NAME="MultiSzReAlloc" PURGE="0" COMMENT="" />
    <EXPORT ORDINAL="296" NAME="MultiSzRemove" PURGE="0" COMMENT="" />
</LIBRARY>

