<?xml version="1.0" encoding="UTF-8"?>
<LIBRARY NAME="wmisvc.dll" PATH="/DLLArchive/windows10LTSCX86_64/WMIsvc.dll" DATE="Wed Oct 06 06:51:50 PDT 2021" VERSION="10.0.19041.844 (WinBuild.160101.0800)">
    <EXPORT ORDINAL="1" NAME="??0C9XAce@@QEAA@AEBV0@@Z" PURGE="0" COMMENT="" />
    <EXPORT ORDINAL="2" NAME="??0C9XAce@@QEAA@XZ" PURGE="0" COMMENT="" />
    <EXPORT ORDINAL="3" NAME="??0CArena@@QEAA@$$QEAV0@@Z" PURGE="0" COMMENT="" />
    <EXPORT ORDINAL="4" NAME="??0CArena@@QEAA@AEBV0@@Z" PURGE="0" COMMENT="" />
    <EXPORT ORDINAL="5" NAME="??0CArena@@QEAA@XZ" PURGE="0" COMMENT="" />
    <EXPORT ORDINAL="6" NAME="??0CBaseAce@@QEAA@AEBV0@@Z" PURGE="0" COMMENT="" />
    <EXPORT ORDINAL="7" NAME="??0CBaseAce@@QEAA@XZ" PURGE="0" COMMENT="" />
    <EXPORT ORDINAL="8" NAME="??0CCheckedInCritSec@@QEAA@PEAVCCritSec@@@Z" PURGE="0" COMMENT="" />
    <EXPORT ORDINAL="9" NAME="??0CCircularQueue@@QEAA@XZ" PURGE="0" COMMENT="" />
    <EXPORT ORDINAL="10" NAME="??0CContainerControl@@QEAA@$$QEAV0@@Z" PURGE="0" COMMENT="" />
    <EXPORT ORDINAL="11" NAME="??0CContainerControl@@QEAA@AEBV0@@Z" PURGE="0" COMMENT="" />
    <EXPORT ORDINAL="12" NAME="??0CContainerControl@@QEAA@PEAUIUnknown@@@Z" PURGE="0" COMMENT="" />
    <EXPORT ORDINAL="13" NAME="??0CCritSec@@QEAA@XZ" PURGE="0" COMMENT="" />
    <EXPORT ORDINAL="14" NAME="??0CEnterWbemCriticalSection@@QEAA@PEAVCWbemCriticalSection@@K@Z" PURGE="0" COMMENT="" />
    <EXPORT ORDINAL="15" NAME="??0CEventLog@@QEAA@AEBV0@@Z" PURGE="0" COMMENT="" />
    <EXPORT ORDINAL="16" NAME="??0CEventLogRecord@@QEAA@AEAV0@@Z" PURGE="0" COMMENT="" />
    <EXPORT ORDINAL="17" NAME="??0CHaltable@@QEAA@AEBV0@@Z" PURGE="0" COMMENT="" />
    <EXPORT ORDINAL="18" NAME="??0CHex@@QEAA@J@Z" PURGE="0" COMMENT="" />
    <EXPORT ORDINAL="19" NAME="??0CInCritSec@@QEAA@PEAU_RTL_CRITICAL_SECTION@@@Z" PURGE="0" COMMENT="" />
    <EXPORT ORDINAL="20" NAME="??0CInsertionString@@QEAA@$$QEAV0@@Z" PURGE="0" COMMENT="" />
    <EXPORT ORDINAL="21" NAME="??0CInsertionString@@QEAA@AEBV0@@Z" PURGE="0" COMMENT="" />
    <EXPORT ORDINAL="22" NAME="??0CInsertionString@@QEAA@PEBD@Z" PURGE="0" COMMENT="" />
    <EXPORT ORDINAL="23" NAME="??0CInsertionString@@QEAA@PEBG@Z" PURGE="0" COMMENT="" />
    <EXPORT ORDINAL="24" NAME="??0CInsertionString@@QEAA@XZ" PURGE="0" COMMENT="" />
    <EXPORT ORDINAL="25" NAME="??0CLifeControl@@QEAA@$$QEAV0@@Z" PURGE="0" COMMENT="" />
    <EXPORT ORDINAL="26" NAME="??0CLifeControl@@QEAA@AEBV0@@Z" PURGE="0" COMMENT="" />
    <EXPORT ORDINAL="27" NAME="??0CLifeControl@@QEAA@XZ" PURGE="0" COMMENT="" />
    <EXPORT ORDINAL="28" NAME="??0CNtAce@@QEAA@XZ" PURGE="0" COMMENT="" />
    <EXPORT ORDINAL="29" NAME="??0CNtSid@@QEAA@XZ" PURGE="0" COMMENT="" />
    <EXPORT ORDINAL="30" NAME="??0CTraceSessionControl@@QEAA@XZ" PURGE="0" COMMENT="" />
    <EXPORT ORDINAL="31" NAME="??0CUnk@@QEAA@AEBV0@@Z" PURGE="0" COMMENT="" />
    <EXPORT ORDINAL="32" NAME="??0CUnkInternal@@QEAA@AEBV0@@Z" PURGE="0" COMMENT="" />
    <EXPORT ORDINAL="33" NAME="??0CUnkInternal@@QEAA@PEAVCLifeControl@@@Z" PURGE="0" COMMENT="" />
    <EXPORT ORDINAL="34" NAME="??0CVar@@QEAA@D@Z" PURGE="0" COMMENT="" />
    <EXPORT ORDINAL="35" NAME="??0CVar@@QEAA@E@Z" PURGE="0" COMMENT="" />
    <EXPORT ORDINAL="36" NAME="??0CVar@@QEAA@F@Z" PURGE="0" COMMENT="" />
    <EXPORT ORDINAL="37" NAME="??0CVar@@QEAA@FH@Z" PURGE="0" COMMENT="" />
    <EXPORT ORDINAL="38" NAME="??0CVar@@QEAA@G@Z" PURGE="0" COMMENT="" />
    <EXPORT ORDINAL="39" NAME="??0CVar@@QEAA@HPEAG@Z" PURGE="0" COMMENT="" />
    <EXPORT ORDINAL="40" NAME="??0CVar@@QEAA@HPEAUtagSAFEARRAY@@@Z" PURGE="0" COMMENT="" />
    <EXPORT ORDINAL="41" NAME="??0CVar@@QEAA@HVauto_bstr@@@Z" PURGE="0" COMMENT="" />
    <EXPORT ORDINAL="42" NAME="??0CVar@@QEAA@J@Z" PURGE="0" COMMENT="" />
    <EXPORT ORDINAL="43" NAME="??0CVar@@QEAA@K@Z" PURGE="0" COMMENT="" />
    <EXPORT ORDINAL="44" NAME="??0CVar@@QEAA@M@Z" PURGE="0" COMMENT="" />
    <EXPORT ORDINAL="45" NAME="??0CVar@@QEAA@N@Z" PURGE="0" COMMENT="" />
    <EXPORT ORDINAL="46" NAME="??0CVar@@QEAA@PEADH@Z" PURGE="0" COMMENT="" />
    <EXPORT ORDINAL="47" NAME="??0CVar@@QEAA@PEAGH@Z" PURGE="0" COMMENT="" />
    <EXPORT ORDINAL="48" NAME="??0CVar@@QEAA@PEAU_FILETIME@@@Z" PURGE="0" COMMENT="" />
    <EXPORT ORDINAL="49" NAME="??0CVar@@QEAA@PEAU_GUID@@H@Z" PURGE="0" COMMENT="" />
    <EXPORT ORDINAL="50" NAME="??0CVar@@QEAA@PEAUtagBLOB@@H@Z" PURGE="0" COMMENT="" />
    <EXPORT ORDINAL="51" NAME="??0CVar@@QEAA@PEAUtagVARIANT@@@Z" PURGE="0" COMMENT="" />
    <EXPORT ORDINAL="52" NAME="??0CVar@@QEAA@PEAVCVarVector@@H@Z" PURGE="0" COMMENT="" />
    <EXPORT ORDINAL="53" NAME="??0CVar@@QEAA@XZ" PURGE="0" COMMENT="" />
    <EXPORT ORDINAL="54" NAME="??0CWbemInterval@@IEAA@K@Z" PURGE="0" COMMENT="" />
    <EXPORT ORDINAL="55" NAME="??0CWbemInterval@@QEAA@XZ" PURGE="0" COMMENT="" />
    <EXPORT ORDINAL="56" NAME="??0CWbemTime@@IEAA@_J@Z" PURGE="0" COMMENT="" />
    <EXPORT ORDINAL="57" NAME="??0CWbemTime@@QEAA@AEBV0@@Z" PURGE="0" COMMENT="" />
    <EXPORT ORDINAL="58" NAME="??0CWbemTime@@QEAA@XZ" PURGE="0" COMMENT="" />
    <EXPORT ORDINAL="59" NAME="??0CWin32DefaultArena@@QEAA@AEBV0@@Z" PURGE="0" COMMENT="" />
    <EXPORT ORDINAL="60" NAME="??0CWin32DefaultArena@@QEAA@XZ" PURGE="0" COMMENT="" />
    <EXPORT ORDINAL="61" NAME="??0WString@@QEAA@AEBV0@@Z" PURGE="0" COMMENT="" />
    <EXPORT ORDINAL="62" NAME="??1CBaseAce@@UEAA@XZ" PURGE="0" COMMENT="" />
    <EXPORT ORDINAL="63" NAME="??1CCheckedInCritSec@@QEAA@XZ" PURGE="0" COMMENT="" />
    <EXPORT ORDINAL="64" NAME="??1CCritSec@@QEAA@XZ" PURGE="0" COMMENT="" />
    <EXPORT ORDINAL="65" NAME="??1CEnterWbemCriticalSection@@QEAA@XZ" PURGE="0" COMMENT="" />
    <EXPORT ORDINAL="66" NAME="??1CEventLogRecord@@QEAA@XZ" PURGE="2147483647" COMMENT="" />
    <EXPORT ORDINAL="67" NAME="??1CInCritSec@@QEAA@XZ" PURGE="0" COMMENT="" />
    <EXPORT ORDINAL="68" NAME="??1CInsertionString@@QEAA@XZ" PURGE="0" COMMENT="" />
    <EXPORT ORDINAL="69" NAME="??1CUnkInternal@@UEAA@XZ" PURGE="0" COMMENT="" />
    <EXPORT ORDINAL="70" NAME="??1CWin32DefaultArena@@QEAA@XZ" PURGE="0" COMMENT="" />
    <EXPORT ORDINAL="71" NAME="??1WString@@QEAA@XZ" PURGE="0" COMMENT="" />
    <EXPORT ORDINAL="72" NAME="??4C9XAce@@QEAAAEAV0@AEBV0@@Z" PURGE="0" COMMENT="" />
    <EXPORT ORDINAL="73" NAME="??4CArena@@QEAAAEAV0@$$QEAV0@@Z" PURGE="0" COMMENT="" />
    <EXPORT ORDINAL="74" NAME="??4CArena@@QEAAAEAV0@AEBV0@@Z" PURGE="0" COMMENT="" />
    <EXPORT ORDINAL="75" NAME="??4CBaseAce@@QEAAAEAV0@AEBV0@@Z" PURGE="0" COMMENT="" />
    <EXPORT ORDINAL="76" NAME="??4CCheckedInCritSec@@QEAAAEAV0@AEBV0@@Z" PURGE="0" COMMENT="" />
    <EXPORT ORDINAL="77" NAME="??4CCircularQueue@@QEAAAEAV0@$$QEAV0@@Z" PURGE="0" COMMENT="" />
    <EXPORT ORDINAL="78" NAME="??4CCircularQueue@@QEAAAEAV0@AEBV0@@Z" PURGE="0" COMMENT="" />
    <EXPORT ORDINAL="79" NAME="??4CContainerControl@@QEAAAEAV0@$$QEAV0@@Z" PURGE="0" COMMENT="" />
    <EXPORT ORDINAL="80" NAME="??4CContainerControl@@QEAAAEAV0@AEBV0@@Z" PURGE="0" COMMENT="" />
    <EXPORT ORDINAL="81" NAME="??4CCritSec@@QEAAAEAV0@AEBV0@@Z" PURGE="0" COMMENT="" />
    <EXPORT ORDINAL="82" NAME="??4CEnterWbemCriticalSection@@QEAAAEAV0@AEBV0@@Z" PURGE="0" COMMENT="" />
    <EXPORT ORDINAL="83" NAME="??4CFlexQueue@@QEAAAEAV0@AEBV0@@Z" PURGE="0" COMMENT="" />
    <EXPORT ORDINAL="84" NAME="??4CHaltable@@QEAAAEAV0@AEBV0@@Z" PURGE="0" COMMENT="" />
    <EXPORT ORDINAL="85" NAME="??4CHex@@QEAAAEAV0@$$QEAV0@@Z" PURGE="0" COMMENT="" />
    <EXPORT ORDINAL="86" NAME="??4CHex@@QEAAAEAV0@AEBV0@@Z" PURGE="0" COMMENT="" />
    <EXPORT ORDINAL="87" NAME="??4CInCritSec@@QEAAAEAV0@AEBV0@@Z" PURGE="0" COMMENT="" />
    <EXPORT ORDINAL="88" NAME="??4CInsertionString@@QEAAAEAV0@$$QEAV0@@Z" PURGE="0" COMMENT="" />
    <EXPORT ORDINAL="89" NAME="??4CInsertionString@@QEAAAEAV0@AEBV0@@Z" PURGE="0" COMMENT="" />
    <EXPORT ORDINAL="90" NAME="??4CLifeControl@@QEAAAEAV0@$$QEAV0@@Z" PURGE="0" COMMENT="" />
    <EXPORT ORDINAL="91" NAME="??4CLifeControl@@QEAAAEAV0@AEBV0@@Z" PURGE="0" COMMENT="" />
    <EXPORT ORDINAL="92" NAME="??4CMemoryLog@@QEAAAEAV0@$$QEAV0@@Z" PURGE="0" COMMENT="" />
    <EXPORT ORDINAL="93" NAME="??4CMemoryLog@@QEAAAEAV0@AEBV0@@Z" PURGE="0" COMMENT="" />
    <EXPORT ORDINAL="94" NAME="??4CNtSecurity@@QEAAAEAV0@$$QEAV0@@Z" PURGE="0" COMMENT="" />
    <EXPORT ORDINAL="95" NAME="??4CNtSecurity@@QEAAAEAV0@AEBV0@@Z" PURGE="0" COMMENT="" />
    <EXPORT ORDINAL="96" NAME="??4CPersistentConfig@@QEAAAEAV0@$$QEAV0@@Z" PURGE="0" COMMENT="" />
    <EXPORT ORDINAL="97" NAME="??4CPersistentConfig@@QEAAAEAV0@AEBV0@@Z" PURGE="0" COMMENT="" />
    <EXPORT ORDINAL="98" NAME="??4CSmallArrayBlob@@QEAAAEAV0@$$QEAV0@@Z" PURGE="0" COMMENT="" />
    <EXPORT ORDINAL="99" NAME="??4CSmallArrayBlob@@QEAAAEAV0@AEBV0@@Z" PURGE="0" COMMENT="" />
    <EXPORT ORDINAL="100" NAME="??4CStaticCritSec@@QEAAAEAV0@AEBV0@@Z" PURGE="0" COMMENT="" />
    <EXPORT ORDINAL="101" NAME="??4CTraceSessionControl@@QEAAAEAV0@$$QEAV0@@Z" PURGE="0" COMMENT="" />
    <EXPORT ORDINAL="102" NAME="??4CTraceSessionControl@@QEAAAEAV0@AEBV0@@Z" PURGE="0" COMMENT="" />
    <EXPORT ORDINAL="103" NAME="??4CUnk@@QEAAAEAV0@AEBV0@@Z" PURGE="0" COMMENT="" />
    <EXPORT ORDINAL="104" NAME="??4CUnkInternal@@QEAAAEAV0@AEBV0@@Z" PURGE="0" COMMENT="" />
    <EXPORT ORDINAL="105" NAME="??4CWMITraceSettings@@QEAAAEAV0@$$QEAV0@@Z" PURGE="0" COMMENT="" />
    <EXPORT ORDINAL="106" NAME="??4CWMITraceSettings@@QEAAAEAV0@AEBV0@@Z" PURGE="0" COMMENT="" />
    <EXPORT ORDINAL="107" NAME="??4CWbemCriticalSection@@QEAAAEAV0@AEBV0@@Z" PURGE="0" COMMENT="" />
    <EXPORT ORDINAL="108" NAME="??4CWbemInterval@@QEAAAEAV0@$$QEAV0@@Z" PURGE="0" COMMENT="" />
    <EXPORT ORDINAL="109" NAME="??4CWbemInterval@@QEAAAEAV0@AEBV0@@Z" PURGE="0" COMMENT="" />
    <EXPORT ORDINAL="110" NAME="??4CWbemTime@@QEAAXAEBV0@@Z" PURGE="0" COMMENT="" />
    <EXPORT ORDINAL="111" NAME="??4CWbemTimeSpan@@QEAAAEAV0@$$QEAV0@@Z" PURGE="0" COMMENT="" />
    <EXPORT ORDINAL="112" NAME="??4CWbemTimeSpan@@QEAAAEAV0@AEBV0@@Z" PURGE="0" COMMENT="" />
    <EXPORT ORDINAL="113" NAME="??4CWin32DefaultArena@@QEAAAEAV0@AEBV0@@Z" PURGE="0" COMMENT="" />
    <EXPORT ORDINAL="114" NAME="??4MD5@@QEAAAEAV0@$$QEAV0@@Z" PURGE="0" COMMENT="" />
    <EXPORT ORDINAL="115" NAME="??4MD5@@QEAAAEAV0@AEBV0@@Z" PURGE="0" COMMENT="" />
    <EXPORT ORDINAL="116" NAME="??4Registry@@QEAAAEAV0@AEBV0@@Z" PURGE="0" COMMENT="" />
    <EXPORT ORDINAL="117" NAME="??ACSmallArrayBlob@@QEBAPEAXH@Z" PURGE="0" COMMENT="" />
    <EXPORT ORDINAL="118" NAME="??ACWStringArray@@QEBAPEAGH@Z" PURGE="2147483647" COMMENT="" />
    <EXPORT ORDINAL="119" NAME="??BCHex@@QEAAJXZ" PURGE="0" COMMENT="" />
    <EXPORT ORDINAL="120" NAME="??BCVar@@QEAA?AU_FILETIME@@XZ" PURGE="0" COMMENT="" />
    <EXPORT ORDINAL="121" NAME="??BCVar@@QEAADXZ" PURGE="0" COMMENT="" />
    <EXPORT ORDINAL="122" NAME="??BCVar@@QEAAEXZ" PURGE="0" COMMENT="" />
    <EXPORT ORDINAL="123" NAME="??BCVar@@QEAAFXZ" PURGE="0" COMMENT="" />
    <EXPORT ORDINAL="124" NAME="??BCVar@@QEAAGXZ" PURGE="0" COMMENT="" />
    <EXPORT ORDINAL="125" NAME="??BCVar@@QEAAJXZ" PURGE="0" COMMENT="" />
    <EXPORT ORDINAL="126" NAME="??BCVar@@QEAAKXZ" PURGE="0" COMMENT="" />
    <EXPORT ORDINAL="127" NAME="??BCVar@@QEAAMXZ" PURGE="0" COMMENT="" />
    <EXPORT ORDINAL="128" NAME="??BCVar@@QEAANXZ" PURGE="0" COMMENT="" />
    <EXPORT ORDINAL="129" NAME="??BCVar@@QEAAPEADXZ" PURGE="0" COMMENT="" />
    <EXPORT ORDINAL="130" NAME="??BCVar@@QEAAPEAGXZ" PURGE="0" COMMENT="" />
    <EXPORT ORDINAL="131" NAME="??BCVar@@QEAAPEAU_GUID@@XZ" PURGE="0" COMMENT="" />
    <EXPORT ORDINAL="132" NAME="??BCVar@@QEAAPEAUtagBLOB@@XZ" PURGE="0" COMMENT="" />
    <EXPORT ORDINAL="133" NAME="??BCVar@@QEAAPEAVCVarVector@@XZ" PURGE="0" COMMENT="" />
    <EXPORT ORDINAL="134" NAME="??BWString@@QEAAPEAGXZ" PURGE="0" COMMENT="" />
    <EXPORT ORDINAL="135" NAME="??BWString@@QEBAPEBGXZ" PURGE="0" COMMENT="" />
    <EXPORT ORDINAL="136" NAME="??DCWbemInterval@@QEBA?AV0@N@Z" PURGE="0" COMMENT="" />
    <EXPORT ORDINAL="137" NAME="??GCWbemTime@@QEBA?AVCWbemInterval@@AEBV0@@Z" PURGE="0" COMMENT="" />
    <EXPORT ORDINAL="138" NAME="??HCWbemInterval@@QEBA?AV0@V0@@Z" PURGE="0" COMMENT="" />
    <EXPORT ORDINAL="139" NAME="??MCWbemInterval@@QEAAHV0@@Z" PURGE="0" COMMENT="" />
    <EXPORT ORDINAL="140" NAME="??MCWbemTime@@QEBAHAEBV0@@Z" PURGE="0" COMMENT="" />
    <EXPORT ORDINAL="141" NAME="??MWString@@QEBAHPEBG@Z" PURGE="0" COMMENT="" />
    <EXPORT ORDINAL="142" NAME="??NCWbemTime@@QEBAHAEBV0@@Z" PURGE="0" COMMENT="" />
    <EXPORT ORDINAL="143" NAME="??NWString@@QEBAHPEBG@Z" PURGE="0" COMMENT="" />
    <EXPORT ORDINAL="144" NAME="??OCWbemInterval@@QEAAHV0@@Z" PURGE="0" COMMENT="" />
    <EXPORT ORDINAL="145" NAME="??OCWbemTime@@QEBAHAEBV0@@Z" PURGE="0" COMMENT="" />
    <EXPORT ORDINAL="146" NAME="??OWString@@QEBAHPEBG@Z" PURGE="0" COMMENT="" />
    <EXPORT ORDINAL="147" NAME="??PCWbemTime@@QEBAHAEBV0@@Z" PURGE="0" COMMENT="" />
    <EXPORT ORDINAL="148" NAME="??PWString@@QEBAHPEBG@Z" PURGE="0" COMMENT="" />
    <EXPORT ORDINAL="149" NAME="??YCWbemInterval@@QEAAXV0@@Z" PURGE="0" COMMENT="" />
    <EXPORT ORDINAL="150" NAME="??_7C9XAce@@6B@" PURGE="-1" COMMENT="" />
    <EXPORT ORDINAL="151" NAME="??_7CArena@@6B@" PURGE="-1" COMMENT="" />
    <EXPORT ORDINAL="152" NAME="??_7CBaseAce@@6B@" PURGE="-1" COMMENT="" />
    <EXPORT ORDINAL="153" NAME="??_7CContainerControl@@6B@" PURGE="-1" COMMENT="" />
    <EXPORT ORDINAL="154" NAME="??_7CHaltable@@6B@" PURGE="-1" COMMENT="" />
    <EXPORT ORDINAL="155" NAME="??_7CLifeControl@@6B@" PURGE="-1" COMMENT="" />
    <EXPORT ORDINAL="156" NAME="??_7CNtAce@@6B@" PURGE="-1" COMMENT="" />
    <EXPORT ORDINAL="157" NAME="??_7CUnk@@6B@" PURGE="-1" COMMENT="" />
    <EXPORT ORDINAL="158" NAME="??_7CUnkInternal@@6B@" PURGE="-1" COMMENT="" />
    <EXPORT ORDINAL="159" NAME="??_7CWin32DefaultArena@@6B@" PURGE="-1" COMMENT="" />
    <EXPORT ORDINAL="160" NAME="??_FCEventLog@@QEAAXXZ" PURGE="2147483647" COMMENT="" />
    <EXPORT ORDINAL="161" NAME="??_FCFlexArray@@QEAAXXZ" PURGE="2147483647" COMMENT="" />
    <EXPORT ORDINAL="162" NAME="??_FCFlexQueue@@QEAAXXZ" PURGE="2147483647" COMMENT="" />
    <EXPORT ORDINAL="163" NAME="??_FCNtAcl@@QEAAXXZ" PURGE="2147483647" COMMENT="" />
    <EXPORT ORDINAL="164" NAME="??_FCUnk@@QEAAXXZ" PURGE="2147483647" COMMENT="" />
    <EXPORT ORDINAL="165" NAME="??_FCWStringArray@@QEAAXXZ" PURGE="2147483647" COMMENT="" />
    <EXPORT ORDINAL="166" NAME="?Access@CSafeArray@@QEAAJPEAPEAX@Z" PURGE="2147483647" COMMENT="" />
    <EXPORT ORDINAL="167" NAME="?Add@CFlexArray@@QEAAHPEAX@Z" PURGE="2147483647" COMMENT="" />
    <EXPORT ORDINAL="168" NAME="?AddBool@CSafeArray@@QEAAHF@Z" PURGE="2147483647" COMMENT="" />
    <EXPORT ORDINAL="169" NAME="?AddByte@CSafeArray@@QEAAHE@Z" PURGE="2147483647" COMMENT="" />
    <EXPORT ORDINAL="170" NAME="?AddDouble@CSafeArray@@QEAAHN@Z" PURGE="2147483647" COMMENT="" />
    <EXPORT ORDINAL="171" NAME="?AddFloat@CSafeArray@@QEAAHM@Z" PURGE="2147483647" COMMENT="" />
    <EXPORT ORDINAL="172" NAME="?AddLong@CSafeArray@@QEAAHJ@Z" PURGE="2147483647" COMMENT="" />
    <EXPORT ORDINAL="173" NAME="?AddRef@CContainerControl@@UEAAXPEAUIUnknown@@@Z" PURGE="2147483647" COMMENT="" />
    <EXPORT ORDINAL="174" NAME="?AddRef@CUnkInternal@@UEAAKXZ" PURGE="0" COMMENT="" />
    <EXPORT ORDINAL="175" NAME="?AddShort@CSafeArray@@QEAAHF@Z" PURGE="2147483647" COMMENT="" />
    <EXPORT ORDINAL="176" NAME="?Alloc@CWin32DefaultArena@@UEAAPEAX_K@Z" PURGE="2147483647" COMMENT="" />
    <EXPORT ORDINAL="177" NAME="?BindPtr@WString@@QEAAXPEAG@Z" PURGE="0" COMMENT="" />
    <EXPORT ORDINAL="178" NAME="?CanDelete@CVar@@QEAAHXZ" PURGE="0" COMMENT="" />
    <EXPORT ORDINAL="179" NAME="?Compress@CWStringArray@@QEAAXXZ" PURGE="2147483647" COMMENT="" />
    <EXPORT ORDINAL="180" NAME="?DecrementIndex@CFlexQueue@@IEAAXAEAH@Z" PURGE="0" COMMENT="" />
    <EXPORT ORDINAL="181" NAME="DredgeRA" PURGE="0" COMMENT="" />
    <EXPORT ORDINAL="182" NAME="?ElementSize@CSafeArray@@QEAAHXZ" PURGE="0" COMMENT="" />
    <EXPORT ORDINAL="183" NAME="?Enter@CCheckedInCritSec@@QEAAXXZ" PURGE="0" COMMENT="" />
    <EXPORT ORDINAL="184" NAME="?Enter@CCritSec@@QEAAXXZ" PURGE="0" COMMENT="" />
    <EXPORT ORDINAL="185" NAME="?Equal@WString@@QEBAHPEBG@Z" PURGE="0" COMMENT="" />
    <EXPORT ORDINAL="186" NAME="?EqualNoCase@WString@@QEBAHPEBG@Z" PURGE="0" COMMENT="" />
    <EXPORT ORDINAL="187" NAME="?Free@CWin32DefaultArena@@UEAAHPEAX@Z" PURGE="2147483647" COMMENT="" />
    <EXPORT ORDINAL="188" NAME="?Get100nss@CWbemTime@@QEBA_JXZ" PURGE="0" COMMENT="" />
    <EXPORT ORDINAL="189" NAME="?GetAccessMask@C9XAce@@UEAAKXZ" PURGE="0" COMMENT="" />
    <EXPORT ORDINAL="190" NAME="?GetAreaFlags@CWMITraceSettings@@QEAAKXZ" PURGE="0" COMMENT="" />
    <EXPORT ORDINAL="191" NAME="?GetArray@CSafeArray@@QEAAPEAUtagSAFEARRAY@@XZ" PURGE="0" COMMENT="" />
    <EXPORT ORDINAL="192" NAME="?GetArrayPtr@CFlexArray@@QEAAPEAPEAXXZ" PURGE="0" COMMENT="" />
    <EXPORT ORDINAL="193" NAME="?GetArrayPtr@CFlexArray@@QEBAPEBQEAXXZ" PURGE="0" COMMENT="" />
    <EXPORT ORDINAL="194" NAME="?GetArrayPtr@CSmallArrayBlob@@QEAAPEAPEAXXZ" PURGE="0" COMMENT="" />
    <EXPORT ORDINAL="195" NAME="?GetArrayPtr@CSmallArrayBlob@@QEBAPEBQEAXXZ" PURGE="0" COMMENT="" />
    <EXPORT ORDINAL="196" NAME="?GetArrayPtr@CWStringArray@@QEAAPEAPEBGXZ" PURGE="0" COMMENT="" />
    <EXPORT ORDINAL="197" NAME="?GetAt@CSmallArrayBlob@@QEBAPEAXH@Z" PURGE="0" COMMENT="" />
    <EXPORT ORDINAL="198" NAME="?GetAt@CWStringArray@@QEBAPEAGH@Z" PURGE="2147483647" COMMENT="" />
    <EXPORT ORDINAL="199" NAME="?GetBlob@CVar@@QEAAPEAUtagBLOB@@XZ" PURGE="0" COMMENT="" />
    <EXPORT ORDINAL="200" NAME="?GetBool@CVar@@QEAAFXZ" PURGE="0" COMMENT="" />
    <EXPORT ORDINAL="201" NAME="?GetBoolAt@CSafeArray@@QEAAFH@Z" PURGE="0" COMMENT="" />
    <EXPORT ORDINAL="202" NAME="?GetByte@CVar@@QEAAEXZ" PURGE="0" COMMENT="" />
    <EXPORT ORDINAL="203" NAME="?GetByteAt@CSafeArray@@QEAAEH@Z" PURGE="0" COMMENT="" />
    <EXPORT ORDINAL="204" NAME="?GetChar@CVar@@QEAADXZ" PURGE="0" COMMENT="" />
    <EXPORT ORDINAL="205" NAME="?GetClsId@CVar@@QEAAPEAU_GUID@@XZ" PURGE="0" COMMENT="" />
    <EXPORT ORDINAL="206" NAME="?GetCreationTime@CEventLogRecord@@QEAA?AVCWbemTime@@XZ" PURGE="0" COMMENT="" />
    <EXPORT ORDINAL="207" NAME="?GetDWORD@CVar@@QEAAKXZ" PURGE="0" COMMENT="" />
    <EXPORT ORDINAL="208" NAME="?GetDispatch@CVar@@QEAAPEAUIDispatch@@XZ" PURGE="0" COMMENT="" />
    <EXPORT ORDINAL="209" NAME="?GetDouble@CVar@@QEAANXZ" PURGE="0" COMMENT="" />
    <EXPORT ORDINAL="210" NAME="?GetDoubleAt@CSafeArray@@QEAANH@Z" PURGE="0" COMMENT="" />
    <EXPORT ORDINAL="211" NAME="?GetEmbeddedObject@CVar@@QEAAPEAUIUnknown@@XZ" PURGE="0" COMMENT="" />
    <EXPORT ORDINAL="212" NAME="?GetEventTraceProperties@CWMITraceSettings@@QEAAPEAU_EVENT_TRACE_PROPERTIES@@XZ" PURGE="0" COMMENT="" />
    <EXPORT ORDINAL="213" NAME="?GetFileTime@CVar@@QEAA?AU_FILETIME@@XZ" PURGE="0" COMMENT="" />
    <EXPORT ORDINAL="214" NAME="?GetFlags@C9XAce@@UEAAHXZ" PURGE="0" COMMENT="" />
    <EXPORT ORDINAL="215" NAME="?GetFloat@CVar@@QEAAMXZ" PURGE="0" COMMENT="" />
    <EXPORT ORDINAL="216" NAME="?GetFloatAt@CSafeArray@@QEAAMH@Z" PURGE="0" COMMENT="" />
    <EXPORT ORDINAL="217" NAME="?GetInfinity@CWbemInterval@@SA?AV1@XZ" PURGE="0" COMMENT="" />
    <EXPORT ORDINAL="218" NAME="?GetInfinity@CWbemTime@@SA?AV1@XZ" PURGE="0" COMMENT="" />
    <EXPORT ORDINAL="219" NAME="?GetInnerUnknown@CUnk@@QEAAPEAUIUnknown@@XZ" PURGE="0" COMMENT="" />
    <EXPORT ORDINAL="220" NAME="?GetLPSTR@CVar@@QEAAPEADXZ" PURGE="0" COMMENT="" />
    <EXPORT ORDINAL="221" NAME="?GetLPWSTR@CVar@@QEAAPEAGXZ" PURGE="0" COMMENT="" />
    <EXPORT ORDINAL="222" NAME="?GetLastError@Registry@@QEAAJXZ" PURGE="0" COMMENT="" />
    <EXPORT ORDINAL="223" NAME="?GetLockCount@CWbemCriticalSection@@QEAAJXZ" PURGE="0" COMMENT="" />
    <EXPORT ORDINAL="224" NAME="?GetLong@CVar@@QEAAJXZ" PURGE="0" COMMENT="" />
    <EXPORT ORDINAL="225" NAME="?GetLongAt@CSafeArray@@QEAAJH@Z" PURGE="0" COMMENT="" />
    <EXPORT ORDINAL="226" NAME="?GetMilliseconds@CWbemInterval@@QEBAKXZ" PURGE="0" COMMENT="" />
    <EXPORT ORDINAL="227" NAME="?GetNumStrings@CEventLogRecord@@QEAAGXZ" PURGE="0" COMMENT="" />
    <EXPORT ORDINAL="228" NAME="?GetOwningThreadId@CWbemCriticalSection@@QEAAKXZ" PURGE="0" COMMENT="" />
    <EXPORT ORDINAL="229" NAME="?GetPtr@CNtAce@@QEAAPEAU_ACCESS_ALLOWED_ACE@@XZ" PURGE="0" COMMENT="" />
    <EXPORT ORDINAL="230" NAME="?GetPtr@CNtAcl@@QEAAPEAU_ACL@@XZ" PURGE="0" COMMENT="" />
    <EXPORT ORDINAL="231" NAME="?GetPtr@CNtSecurityDescriptor@@QEAAPEAXXZ" PURGE="0" COMMENT="" />
    <EXPORT ORDINAL="232" NAME="?GetPtr@CNtSid@@QEAAPEAXXZ" PURGE="0" COMMENT="" />
    <EXPORT ORDINAL="233" NAME="?GetQueueSize@CFlexQueue@@QEBAHXZ" PURGE="0" COMMENT="" />
    <EXPORT ORDINAL="234" NAME="?GetRawData@CVar@@QEAAPEAXXZ" PURGE="0" COMMENT="" />
    <EXPORT ORDINAL="235" NAME="?GetRecursionCount@CWbemCriticalSection@@QEAAJXZ" PURGE="0" COMMENT="" />
    <EXPORT ORDINAL="236" NAME="?GetSeconds@CWbemInterval@@QEBAKXZ" PURGE="0" COMMENT="" />
    <EXPORT ORDINAL="237" NAME="?GetSessionName@CWMITraceSettings@@QEAAPEAGXZ" PURGE="0" COMMENT="" />
    <EXPORT ORDINAL="238" NAME="?GetShort@CVar@@QEAAFXZ" PURGE="0" COMMENT="" />
    <EXPORT ORDINAL="239" NAME="?GetShortAt@CSafeArray@@QEAAFH@Z" PURGE="0" COMMENT="" />
    <EXPORT ORDINAL="240" NAME="?GetSize@CNtAce@@QEAAKXZ" PURGE="0" COMMENT="" />
    <EXPORT ORDINAL="241" NAME="?GetStatus@C9XAce@@UEAAKXZ" PURGE="0" COMMENT="" />
    <EXPORT ORDINAL="242" NAME="?GetStatus@CNtAce@@UEAAKXZ" PURGE="0" COMMENT="" />
    <EXPORT ORDINAL="243" NAME="?GetStatus@CNtAcl@@QEAAKXZ" PURGE="0" COMMENT="" />
    <EXPORT ORDINAL="244" NAME="?GetStatus@CNtSecurityDescriptor@@QEAAKXZ" PURGE="0" COMMENT="" />
    <EXPORT ORDINAL="245" NAME="?GetStatus@CNtSid@@QEAAKXZ" PURGE="0" COMMENT="" />
    <EXPORT ORDINAL="246" NAME="?GetString@CInsertionString@@QEAAPEBGXZ" PURGE="0" COMMENT="" />
    <EXPORT ORDINAL="247" NAME="?GetStringPointerByRef@WString@@QEBAAEBQEBGXZ" PURGE="0" COMMENT="" />
    <EXPORT ORDINAL="248" NAME="?GetTraceLevel@CWMITraceSettings@@QEAAEXZ" PURGE="0" COMMENT="" />
    <EXPORT ORDINAL="249" NAME="?GetType@C9XAce@@UEAAHXZ" PURGE="0" COMMENT="" />
    <EXPORT ORDINAL="250" NAME="?GetType@CSafeArray@@QEAAHXZ" PURGE="0" COMMENT="" />
    <EXPORT ORDINAL="251" NAME="?GetType@CVar@@QEAAHXZ" PURGE="0" COMMENT="" />
    <EXPORT ORDINAL="252" NAME="?GetType@CVarVector@@QEAAHXZ" PURGE="0" COMMENT="" />
    <EXPORT ORDINAL="253" NAME="?GetUnknown@CUnk@@QEAAPEAUIUnknown@@XZ" PURGE="0" COMMENT="" />
    <EXPORT ORDINAL="254" NAME="?GetUnknown@CUnkInternal@@QEAAPEAUIUnknown@@XZ" PURGE="0" COMMENT="" />
    <EXPORT ORDINAL="255" NAME="?GetUnknown@CVar@@QEAAPEAUIUnknown@@XZ" PURGE="0" COMMENT="" />
    <EXPORT ORDINAL="256" NAME="?GetVarVector@CVar@@QEAAPEAVCVarVector@@XZ" PURGE="0" COMMENT="" />
    <EXPORT ORDINAL="257" NAME="?GetWord@CVar@@QEAAGXZ" PURGE="0" COMMENT="" />
    <EXPORT ORDINAL="258" NAME="?GetZero@CWbemTime@@SA?AV1@XZ" PURGE="0" COMMENT="" />
    <EXPORT ORDINAL="259" NAME="?IncrementIndex@CFlexQueue@@IEAAXAEAH@Z" PURGE="0" COMMENT="" />
    <EXPORT ORDINAL="260" NAME="?InternalAddRef@CUnkInternal@@QEAAKXZ" PURGE="0" COMMENT="" />
    <EXPORT ORDINAL="261" NAME="?InternalQueryInterface@CUnkInternal@@QEAAJAEBU_GUID@@PEAPEAX@Z" PURGE="0" COMMENT="" />
    <EXPORT ORDINAL="262" NAME="?InternalRelease@CUnkInternal@@QEAAKXZ" PURGE="0" COMMENT="" />
    <EXPORT ORDINAL="263" NAME="?IsEmpty@CInsertionString@@QEAAHXZ" PURGE="0" COMMENT="" />
    <EXPORT ORDINAL="264" NAME="?IsEnabled@CTraceSessionControl@@QEAA_NXZ" PURGE="0" COMMENT="" />
    <EXPORT ORDINAL="265" NAME="?IsEntered@CCheckedInCritSec@@QEAAHXZ" PURGE="0" COMMENT="" />
    <EXPORT ORDINAL="266" NAME="?IsEntered@CEnterWbemCriticalSection@@QEAAHXZ" PURGE="0" COMMENT="" />
    <EXPORT ORDINAL="267" NAME="?IsFinite@CWbemInterval@@QEBAHXZ" PURGE="0" COMMENT="" />
    <EXPORT ORDINAL="268" NAME="?IsFinite@CWbemTime@@QEBAHXZ" PURGE="0" COMMENT="" />
    <EXPORT ORDINAL="269" NAME="?IsNull@CVar@@QEAAHXZ" PURGE="0" COMMENT="" />
    <EXPORT ORDINAL="270" NAME="?IsOptimized@CVarVector@@QEAAHXZ" PURGE="0" COMMENT="" />
    <EXPORT ORDINAL="271" NAME="IsShutDown" PURGE="0" COMMENT="" />
    <EXPORT ORDINAL="272" NAME="?IsUser@CNtSid@@QEAA_NXZ" PURGE="0" COMMENT="" />
    <EXPORT ORDINAL="273" NAME="?IsValid@CNtAcl@@QEAAHXZ" PURGE="0" COMMENT="" />
    <EXPORT ORDINAL="274" NAME="?IsValid@CNtSecurityDescriptor@@QEAAHXZ" PURGE="0" COMMENT="" />
    <EXPORT ORDINAL="275" NAME="?IsValid@CNtSid@@QEAAHXZ" PURGE="0" COMMENT="" />
    <EXPORT ORDINAL="276" NAME="?IsZero@CWbemInterval@@QEBAHXZ" PURGE="0" COMMENT="" />
    <EXPORT ORDINAL="277" NAME="?IsZero@CWbemTime@@QEBAHXZ" PURGE="0" COMMENT="" />
    <EXPORT ORDINAL="278" NAME="?Leave@CCheckedInCritSec@@QEAAXXZ" PURGE="0" COMMENT="" />
    <EXPORT ORDINAL="279" NAME="?Leave@CCritSec@@QEAAXXZ" PURGE="2147483647" COMMENT="" />
    <EXPORT ORDINAL="280" NAME="?Length@WString@@QEBAHXZ" PURGE="0" COMMENT="" />
    <EXPORT ORDINAL="281" NAME="MoveToAlone" PURGE="0" COMMENT="" />
    <EXPORT ORDINAL="282" NAME="MoveToShared" PURGE="0" COMMENT="" />
    <EXPORT ORDINAL="283" NAME="?ObjectCreated@CContainerControl@@UEAAHPEAUIUnknown@@@Z" PURGE="0" COMMENT="" />
    <EXPORT ORDINAL="284" NAME="?ObjectDestroyed@CContainerControl@@UEAAXPEAUIUnknown@@@Z" PURGE="0" COMMENT="" />
    <EXPORT ORDINAL="285" NAME="?OnInitialize@CUnk@@UEAAHXZ" PURGE="0" COMMENT="" />
    <EXPORT ORDINAL="286" NAME="?QueryInterface@CUnkInternal@@UEAAJAEBU_GUID@@PEAPEAX@Z" PURGE="0" COMMENT="" />
    <EXPORT ORDINAL="287" NAME="?Realloc@CWin32DefaultArena@@UEAAPEAXPEAX_K@Z" PURGE="2147483647" COMMENT="" />
    <EXPORT ORDINAL="288" NAME="?Release@CContainerControl@@UEAAXPEAUIUnknown@@@Z" PURGE="2147483647" COMMENT="" />
    <EXPORT ORDINAL="289" NAME="?Release@CUnkInternal@@UEAAKXZ" PURGE="0" COMMENT="" />
    <EXPORT ORDINAL="290" NAME="ServiceMain" PURGE="0" COMMENT="" />
    <EXPORT ORDINAL="291" NAME="?Set100nss@CWbemTime@@QEAAX_J@Z" PURGE="0" COMMENT="" />
    <EXPORT ORDINAL="292" NAME="?SetAreaFlags@CWMITraceSettings@@QEAAXK@Z" PURGE="0" COMMENT="" />
    <EXPORT ORDINAL="293" NAME="?SetAsNull@CVar@@QEAAXXZ" PURGE="0" COMMENT="" />
    <EXPORT ORDINAL="294" NAME="?SetBool@CVar@@QEAAXF@Z" PURGE="0" COMMENT="" />
    <EXPORT ORDINAL="295" NAME="?SetBoolAt@CSafeArray@@QEAAHHF@Z" PURGE="2147483647" COMMENT="" />
    <EXPORT ORDINAL="296" NAME="?SetByte@CVar@@QEAAXE@Z" PURGE="0" COMMENT="" />
    <EXPORT ORDINAL="297" NAME="?SetByteAt@CSafeArray@@QEAAHHE@Z" PURGE="2147483647" COMMENT="" />
    <EXPORT ORDINAL="298" NAME="?SetCanDelete@CVar@@QEAAXH@Z" PURGE="0" COMMENT="" />
    <EXPORT ORDINAL="299" NAME="?SetChar@CVar@@QEAAXD@Z" PURGE="0" COMMENT="" />
    <EXPORT ORDINAL="300" NAME="?SetDWORD@CVar@@QEAAXK@Z" PURGE="0" COMMENT="" />
    <EXPORT ORDINAL="301" NAME="?SetDestructorPolicy@CSafeArray@@QEAAXH@Z" PURGE="0" COMMENT="" />
    <EXPORT ORDINAL="302" NAME="?SetDouble@CVar@@QEAAXN@Z" PURGE="0" COMMENT="" />
    <EXPORT ORDINAL="303" NAME="?SetDoubleAt@CSafeArray@@QEAAHHN@Z" PURGE="2147483647" COMMENT="" />
    <EXPORT ORDINAL="304" NAME="?SetEmbeddedObject@CVar@@QEAAXPEAUIUnknown@@@Z" PURGE="2147483647" COMMENT="" />
    <EXPORT ORDINAL="305" NAME="?SetFileTime@CVar@@QEAAXPEAU_FILETIME@@@Z" PURGE="0" COMMENT="" />
    <EXPORT ORDINAL="306" NAME="?SetFlags@C9XAce@@UEAAXJ@Z" PURGE="0" COMMENT="" />
    <EXPORT ORDINAL="307" NAME="?SetFlags@CNtAce@@UEAAXJ@Z" PURGE="0" COMMENT="" />
    <EXPORT ORDINAL="308" NAME="?SetFloat@CVar@@QEAAXM@Z" PURGE="0" COMMENT="" />
    <EXPORT ORDINAL="309" NAME="?SetFloatAt@CSafeArray@@QEAAHHM@Z" PURGE="2147483647" COMMENT="" />
    <EXPORT ORDINAL="310" NAME="?SetGrowGranularity@CSafeArray@@QEAAXH@Z" PURGE="0" COMMENT="" />
    <EXPORT ORDINAL="311" NAME="?SetLong@CVar@@QEAAXJ@Z" PURGE="0" COMMENT="" />
    <EXPORT ORDINAL="312" NAME="?SetLongAt@CSafeArray@@QEAAHHJ@Z" PURGE="2147483647" COMMENT="" />
    <EXPORT ORDINAL="313" NAME="?SetMilliseconds@CWbemInterval@@QEAAXK@Z" PURGE="0" COMMENT="" />
    <EXPORT ORDINAL="314" NAME="?SetRawArrayMaxElement@CSafeArray@@QEAAXH@Z" PURGE="0" COMMENT="" />
    <EXPORT ORDINAL="315" NAME="?SetShort@CVar@@QEAAXF@Z" PURGE="0" COMMENT="" />
    <EXPORT ORDINAL="316" NAME="?SetShortAt@CSafeArray@@QEAAHHF@Z" PURGE="2147483647" COMMENT="" />
    <EXPORT ORDINAL="317" NAME="?SetSize@CFlexArray@@QEAAXH@Z" PURGE="0" COMMENT="" />
    <EXPORT ORDINAL="318" NAME="?SetTraceLevel@CWMITraceSettings@@QEAAXE@Z" PURGE="0" COMMENT="" />
    <EXPORT ORDINAL="319" NAME="?SetWord@CVar@@QEAAXG@Z" PURGE="0" COMMENT="" />
    <EXPORT ORDINAL="320" NAME="?Size@CFlexArray@@QEBAHXZ" PURGE="0" COMMENT="" />
    <EXPORT ORDINAL="321" NAME="?Size@CSafeArray@@QEAAHXZ" PURGE="0" COMMENT="" />
    <EXPORT ORDINAL="322" NAME="?Size@CSmallArrayBlob@@QEBAHXZ" PURGE="0" COMMENT="" />
    <EXPORT ORDINAL="323" NAME="?Size@CWStringArray@@QEBAHXZ" PURGE="0" COMMENT="" />
    <EXPORT ORDINAL="324" NAME="?Status@CSafeArray@@QEAAHXZ" PURGE="0" COMMENT="" />
    <EXPORT ORDINAL="325" NAME="?Status@CVar@@QEAAHXZ" PURGE="0" COMMENT="" />
    <EXPORT ORDINAL="326" NAME="?Status@CVarVector@@QEAAHXZ" PURGE="0" COMMENT="" />
    <EXPORT ORDINAL="327" NAME="?Unaccess@CSafeArray@@QEAAJXZ" PURGE="2147483647" COMMENT="" />
    <EXPORT ORDINAL="328" NAME="?Unqueue@CFlexQueue@@QEAAPEAXXZ" PURGE="0" COMMENT="" />
    <EXPORT ORDINAL="329" NAME="?WbemSysFreeString@CWin32DefaultArena@@SAXPEAG@Z" PURGE="2147483647" COMMENT="" />
    <EXPORT ORDINAL="330" NAME="?isValid@CHaltable@@QEAA_NXZ" PURGE="0" COMMENT="" />
    <EXPORT ORDINAL="331" NAME="DllRegisterServer" PURGE="0" COMMENT="" />
    <EXPORT ORDINAL="332" NAME="DllUnregisterServer" PURGE="0" COMMENT="" />
    <EXPORT ORDINAL="333" NAME="GetSystemEventsForShutdown" PURGE="0" COMMENT="" />
    <EXPORT ORDINAL="334" NAME="IsImproperShutdownDetected" PURGE="0" COMMENT="" />
</LIBRARY>

