<?xml version="1.0" encoding="UTF-8"?>
<LIBRARY NAME="amdxc64.dll" PATH="/DLLArchive/etc/amdxc64.dll" DATE="Wed Jun 26 05:51:00 PDT 2024" VERSION="8.18.10.0486">
    <EXPORT ORDINAL="1" NAME="??0?$oserializer@Vsc_xml_oarchive@@T_E_SC_SI_OPT_IR_MODE_SELECTOR@@@detail@archive@boost@@QEAA@XZ" PURGE="0" COMMENT="" />
    <EXPORT ORDINAL="2" NAME="??0?$oserializer@Vsc_xml_oarchive@@T_E_SC_SI_OPT_MINIMIZE_VGPRS_STRATEGY@@@detail@archive@boost@@QEAA@XZ" PURGE="0" COMMENT="" />
    <EXPORT ORDINAL="3" NAME="??0?$oserializer@Vsc_xml_oarchive@@T_E_SC_SI_OPT_NPI_DISABLE@@@detail@archive@boost@@QEAA@XZ" PURGE="0" COMMENT="" />
    <EXPORT ORDINAL="4" NAME="??0?$oserializer@Vsc_xml_oarchive@@T_E_SC_SI_OPT_THREAD_LATENCY_STRATEGY@@@detail@archive@boost@@QEAA@XZ" PURGE="0" COMMENT="" />
    <EXPORT ORDINAL="5" NAME="??0?$oserializer@Vsc_xml_oarchive@@T_E_SC_SI_OPT_USE_MORE_D16_SELECTOR@@@detail@archive@boost@@QEAA@XZ" PURGE="0" COMMENT="" />
    <EXPORT ORDINAL="6" NAME="??0?$oserializer@Vsc_xml_oarchive@@T_SC_COMPILE_FLAGS@@@detail@archive@boost@@QEAA@XZ" PURGE="0" COMMENT="" />
    <EXPORT ORDINAL="7" NAME="??0?$oserializer@Vsc_xml_oarchive@@T_SC_LAUNCH_MODE_FLAGS@@@detail@archive@boost@@QEAA@XZ" PURGE="0" COMMENT="" />
    <EXPORT ORDINAL="8" NAME="??0?$oserializer@Vsc_xml_oarchive@@T_SC_SI_GLC_CONTROL@@@detail@archive@boost@@QEAA@XZ" PURGE="0" COMMENT="" />
    <EXPORT ORDINAL="9" NAME="??0?$oserializer@Vsc_xml_oarchive@@T_SC_SI_SLC_CONTROL@@@detail@archive@boost@@QEAA@XZ" PURGE="0" COMMENT="" />
    <EXPORT ORDINAL="10" NAME="??0?$oserializer@Vsc_xml_oarchive@@USC_INPUT@@@detail@archive@boost@@QEAA@XZ" PURGE="0" COMMENT="" />
    <EXPORT ORDINAL="11" NAME="??0?$oserializer@Vsc_xml_oarchive@@U_SC_CACHE_POLICY@@@detail@archive@boost@@QEAA@XZ" PURGE="0" COMMENT="" />
    <EXPORT ORDINAL="12" NAME="??0?$oserializer@Vsc_xml_oarchive@@U_SC_CACHE_POLICY_CONTROL@@@detail@archive@boost@@QEAA@XZ" PURGE="0" COMMENT="" />
    <EXPORT ORDINAL="13" NAME="??0?$oserializer@Vsc_xml_oarchive@@U_SC_CBCONSTVALUES@@@detail@archive@boost@@QEAA@XZ" PURGE="0" COMMENT="" />
    <EXPORT ORDINAL="14" NAME="??0?$oserializer@Vsc_xml_oarchive@@U_SC_CBRCONSTVALUES@@@detail@archive@boost@@QEAA@XZ" PURGE="0" COMMENT="" />
    <EXPORT ORDINAL="15" NAME="??0?$oserializer@Vsc_xml_oarchive@@U_SC_CI_TRANSFORM_SHADER_DESC@@@detail@archive@boost@@QEAA@XZ" PURGE="0" COMMENT="" />
    <EXPORT ORDINAL="16" NAME="??0?$oserializer@Vsc_xml_oarchive@@U_SC_CONSTANTUSAGE@@@detail@archive@boost@@QEAA@XZ" PURGE="0" COMMENT="" />
    <EXPORT ORDINAL="17" NAME="??0?$oserializer@Vsc_xml_oarchive@@U_SC_FLOAT_CONST@@@detail@archive@boost@@QEAA@XZ" PURGE="0" COMMENT="" />
    <EXPORT ORDINAL="18" NAME="??0?$oserializer@Vsc_xml_oarchive@@U_SC_INT_CONST@@@detail@archive@boost@@QEAA@XZ" PURGE="0" COMMENT="" />
    <EXPORT ORDINAL="19" NAME="??0?$oserializer@Vsc_xml_oarchive@@U_SC_PRIMSHADER_CB_OFFSET_LUT@@@detail@archive@boost@@QEAA@XZ" PURGE="0" COMMENT="" />
    <EXPORT ORDINAL="20" NAME="??0?$oserializer@Vsc_xml_oarchive@@U_SC_PRIMSHADER_CONTROL_FLAGS@@@detail@archive@boost@@QEAA@XZ" PURGE="0" COMMENT="" />
    <EXPORT ORDINAL="21" NAME="??0?$oserializer@Vsc_xml_oarchive@@U_SC_PRIMSHADER_VPORT_CONTROLS_LUT@@@detail@archive@boost@@QEAA@XZ" PURGE="0" COMMENT="" />
    <EXPORT ORDINAL="22" NAME="??0?$oserializer@Vsc_xml_oarchive@@U_SC_PS_EXPORT_INFO@@@detail@archive@boost@@QEAA@XZ" PURGE="0" COMMENT="" />
    <EXPORT ORDINAL="23" NAME="??0?$oserializer@Vsc_xml_oarchive@@U_SC_SHADERSTATE@@@detail@archive@boost@@QEAA@XZ" PURGE="0" COMMENT="" />
    <EXPORT ORDINAL="24" NAME="??0?$oserializer@Vsc_xml_oarchive@@U_SC_SI_DATA_IN_OUT@@@detail@archive@boost@@QEAA@XZ" PURGE="0" COMMENT="" />
    <EXPORT ORDINAL="25" NAME="??0?$oserializer@Vsc_xml_oarchive@@U_SC_SI_DESCRIPTOR_VALUES@@@detail@archive@boost@@QEAA@XZ" PURGE="0" COMMENT="" />
    <EXPORT ORDINAL="26" NAME="??0?$oserializer@Vsc_xml_oarchive@@U_SC_SI_OPTIMIZATIONS@@@detail@archive@boost@@QEAA@XZ" PURGE="0" COMMENT="" />
    <EXPORT ORDINAL="27" NAME="??0?$oserializer@Vsc_xml_oarchive@@U_SC_SI_PSSHADERDCL_IN@@@detail@archive@boost@@QEAA@XZ" PURGE="0" COMMENT="" />
    <EXPORT ORDINAL="28" NAME="??0?$oserializer@Vsc_xml_oarchive@@U_SC_SI_PS_ATTR_CH_ENTRY@@@detail@archive@boost@@QEAA@XZ" PURGE="0" COMMENT="" />
    <EXPORT ORDINAL="29" NAME="??0?$oserializer@Vsc_xml_oarchive@@U_SC_SI_SHADERSTATE@@@detail@archive@boost@@QEAA@XZ" PURGE="0" COMMENT="" />
    <EXPORT ORDINAL="30" NAME="??0?$oserializer@Vsc_xml_oarchive@@U_SC_SI_STREAMIODCL_OUT@@@detail@archive@boost@@QEAA@XZ" PURGE="0" COMMENT="" />
    <EXPORT ORDINAL="31" NAME="??0?$oserializer@Vsc_xml_oarchive@@U_SC_SI_USER_DATA_ELEMENT@@@detail@archive@boost@@QEAA@XZ" PURGE="0" COMMENT="" />
    <EXPORT ORDINAL="32" NAME="??0?$oserializer@Vsc_xml_oarchive@@U_SC_SRCSHADER@@@detail@archive@boost@@QEAA@XZ" PURGE="0" COMMENT="" />
    <EXPORT ORDINAL="33" NAME="??0?$oserializer@Vsc_xml_oarchive@@U_SC_SRC_PIPELINE@@@detail@archive@boost@@QEAA@XZ" PURGE="0" COMMENT="" />
    <EXPORT ORDINAL="34" NAME="??0?$oserializer@Vsc_xml_oarchive@@U_SC_TXCONSTVALUES@@@detail@archive@boost@@QEAA@XZ" PURGE="0" COMMENT="" />
    <EXPORT ORDINAL="35" NAME="??0?$oserializer@Vsc_xml_oarchive@@V?$vector@V?$basic_string@DU?$char_traits@D@std@@V?$allocator@D@2@@std@@V?$allocator@V?$basic_string@DU?$char_traits@D@std@@V?$allocator@D@2@@std@@@2@@std@@@detail@archive@boost@@QEAA@XZ" PURGE="0" COMMENT="" />
    <EXPORT ORDINAL="36" NAME="??0?$singleton@V?$extended_type_info_typeid@T_E_SC_SI_OPT_IR_MODE_SELECTOR@@@serialization@boost@@@serialization@boost@@IEAA@XZ" PURGE="0" COMMENT="" />
    <EXPORT ORDINAL="37" NAME="??0?$singleton@V?$extended_type_info_typeid@T_E_SC_SI_OPT_MINIMIZE_VGPRS_STRATEGY@@@serialization@boost@@@serialization@boost@@IEAA@XZ" PURGE="0" COMMENT="" />
    <EXPORT ORDINAL="38" NAME="??0?$singleton@V?$extended_type_info_typeid@T_E_SC_SI_OPT_NPI_DISABLE@@@serialization@boost@@@serialization@boost@@IEAA@XZ" PURGE="0" COMMENT="" />
    <EXPORT ORDINAL="39" NAME="??0?$singleton@V?$extended_type_info_typeid@T_E_SC_SI_OPT_THREAD_LATENCY_STRATEGY@@@serialization@boost@@@serialization@boost@@IEAA@XZ" PURGE="0" COMMENT="" />
    <EXPORT ORDINAL="40" NAME="??0?$singleton@V?$extended_type_info_typeid@T_E_SC_SI_OPT_USE_MORE_D16_SELECTOR@@@serialization@boost@@@serialization@boost@@IEAA@XZ" PURGE="0" COMMENT="" />
    <EXPORT ORDINAL="41" NAME="??0?$singleton@V?$extended_type_info_typeid@T_SC_COMPILE_FLAGS@@@serialization@boost@@@serialization@boost@@IEAA@XZ" PURGE="0" COMMENT="" />
    <EXPORT ORDINAL="42" NAME="??0?$singleton@V?$extended_type_info_typeid@T_SC_LAUNCH_MODE_FLAGS@@@serialization@boost@@@serialization@boost@@IEAA@XZ" PURGE="0" COMMENT="" />
    <EXPORT ORDINAL="43" NAME="??0?$singleton@V?$extended_type_info_typeid@T_SC_SI_GLC_CONTROL@@@serialization@boost@@@serialization@boost@@IEAA@XZ" PURGE="0" COMMENT="" />
    <EXPORT ORDINAL="44" NAME="??0?$singleton@V?$extended_type_info_typeid@T_SC_SI_SLC_CONTROL@@@serialization@boost@@@serialization@boost@@IEAA@XZ" PURGE="0" COMMENT="" />
    <EXPORT ORDINAL="45" NAME="??0?$singleton@V?$extended_type_info_typeid@USC_INPUT@@@serialization@boost@@@serialization@boost@@IEAA@XZ" PURGE="0" COMMENT="" />
    <EXPORT ORDINAL="46" NAME="??0?$singleton@V?$extended_type_info_typeid@U_SC_CACHE_POLICY@@@serialization@boost@@@serialization@boost@@IEAA@XZ" PURGE="0" COMMENT="" />
    <EXPORT ORDINAL="47" NAME="??0?$singleton@V?$extended_type_info_typeid@U_SC_CACHE_POLICY_CONTROL@@@serialization@boost@@@serialization@boost@@IEAA@XZ" PURGE="0" COMMENT="" />
    <EXPORT ORDINAL="48" NAME="??0?$singleton@V?$extended_type_info_typeid@U_SC_CBCONSTVALUES@@@serialization@boost@@@serialization@boost@@IEAA@XZ" PURGE="0" COMMENT="" />
    <EXPORT ORDINAL="49" NAME="??0?$singleton@V?$extended_type_info_typeid@U_SC_CBRCONSTVALUES@@@serialization@boost@@@serialization@boost@@IEAA@XZ" PURGE="0" COMMENT="" />
    <EXPORT ORDINAL="50" NAME="??0?$singleton@V?$extended_type_info_typeid@U_SC_CI_TRANSFORM_SHADER_DESC@@@serialization@boost@@@serialization@boost@@IEAA@XZ" PURGE="0" COMMENT="" />
    <EXPORT ORDINAL="51" NAME="??0?$singleton@V?$extended_type_info_typeid@U_SC_CONSTANTUSAGE@@@serialization@boost@@@serialization@boost@@IEAA@XZ" PURGE="0" COMMENT="" />
    <EXPORT ORDINAL="52" NAME="??0?$singleton@V?$extended_type_info_typeid@U_SC_FLOAT_CONST@@@serialization@boost@@@serialization@boost@@IEAA@XZ" PURGE="0" COMMENT="" />
    <EXPORT ORDINAL="53" NAME="??0?$singleton@V?$extended_type_info_typeid@U_SC_INT_CONST@@@serialization@boost@@@serialization@boost@@IEAA@XZ" PURGE="0" COMMENT="" />
    <EXPORT ORDINAL="54" NAME="??0?$singleton@V?$extended_type_info_typeid@U_SC_PRIMSHADER_CB_OFFSET_LUT@@@serialization@boost@@@serialization@boost@@IEAA@XZ" PURGE="0" COMMENT="" />
    <EXPORT ORDINAL="55" NAME="??0?$singleton@V?$extended_type_info_typeid@U_SC_PRIMSHADER_CONTROL_FLAGS@@@serialization@boost@@@serialization@boost@@IEAA@XZ" PURGE="0" COMMENT="" />
    <EXPORT ORDINAL="56" NAME="??0?$singleton@V?$extended_type_info_typeid@U_SC_PRIMSHADER_VPORT_CONTROLS_LUT@@@serialization@boost@@@serialization@boost@@IEAA@XZ" PURGE="0" COMMENT="" />
    <EXPORT ORDINAL="57" NAME="??0?$singleton@V?$extended_type_info_typeid@U_SC_PS_EXPORT_INFO@@@serialization@boost@@@serialization@boost@@IEAA@XZ" PURGE="0" COMMENT="" />
    <EXPORT ORDINAL="58" NAME="??0?$singleton@V?$extended_type_info_typeid@U_SC_SHADERSTATE@@@serialization@boost@@@serialization@boost@@IEAA@XZ" PURGE="0" COMMENT="" />
    <EXPORT ORDINAL="59" NAME="??0?$singleton@V?$extended_type_info_typeid@U_SC_SI_DATA_IN_OUT@@@serialization@boost@@@serialization@boost@@IEAA@XZ" PURGE="0" COMMENT="" />
    <EXPORT ORDINAL="60" NAME="??0?$singleton@V?$extended_type_info_typeid@U_SC_SI_DESCRIPTOR_VALUES@@@serialization@boost@@@serialization@boost@@IEAA@XZ" PURGE="0" COMMENT="" />
    <EXPORT ORDINAL="61" NAME="??0?$singleton@V?$extended_type_info_typeid@U_SC_SI_OPTIMIZATIONS@@@serialization@boost@@@serialization@boost@@IEAA@XZ" PURGE="0" COMMENT="" />
    <EXPORT ORDINAL="62" NAME="??0?$singleton@V?$extended_type_info_typeid@U_SC_SI_PSSHADERDCL_IN@@@serialization@boost@@@serialization@boost@@IEAA@XZ" PURGE="0" COMMENT="" />
    <EXPORT ORDINAL="63" NAME="??0?$singleton@V?$extended_type_info_typeid@U_SC_SI_PS_ATTR_CH_ENTRY@@@serialization@boost@@@serialization@boost@@IEAA@XZ" PURGE="0" COMMENT="" />
    <EXPORT ORDINAL="64" NAME="??0?$singleton@V?$extended_type_info_typeid@U_SC_SI_SHADERSTATE@@@serialization@boost@@@serialization@boost@@IEAA@XZ" PURGE="0" COMMENT="" />
    <EXPORT ORDINAL="65" NAME="??0?$singleton@V?$extended_type_info_typeid@U_SC_SI_STREAMIODCL_OUT@@@serialization@boost@@@serialization@boost@@IEAA@XZ" PURGE="0" COMMENT="" />
    <EXPORT ORDINAL="66" NAME="??0?$singleton@V?$extended_type_info_typeid@U_SC_SI_USER_DATA_ELEMENT@@@serialization@boost@@@serialization@boost@@IEAA@XZ" PURGE="0" COMMENT="" />
    <EXPORT ORDINAL="67" NAME="??0?$singleton@V?$extended_type_info_typeid@U_SC_SRCSHADER@@@serialization@boost@@@serialization@boost@@IEAA@XZ" PURGE="0" COMMENT="" />
    <EXPORT ORDINAL="68" NAME="??0?$singleton@V?$extended_type_info_typeid@U_SC_SRC_PIPELINE@@@serialization@boost@@@serialization@boost@@IEAA@XZ" PURGE="0" COMMENT="" />
    <EXPORT ORDINAL="69" NAME="??0?$singleton@V?$extended_type_info_typeid@U_SC_TXCONSTVALUES@@@serialization@boost@@@serialization@boost@@IEAA@XZ" PURGE="0" COMMENT="" />
    <EXPORT ORDINAL="70" NAME="??0?$singleton@V?$extended_type_info_typeid@V?$vector@V?$basic_string@DU?$char_traits@D@std@@V?$allocator@D@2@@std@@V?$allocator@V?$basic_string@DU?$char_traits@D@std@@V?$allocator@D@2@@std@@@2@@std@@@serialization@boost@@@serialization@boost@@IEAA@XZ" PURGE="0" COMMENT="" />
    <EXPORT ORDINAL="71" NAME="?get_const_instance@?$singleton@V?$extended_type_info_typeid@T_E_SC_SI_OPT_IR_MODE_SELECTOR@@@serialization@boost@@@serialization@boost@@SAAEBV?$extended_type_info_typeid@T_E_SC_SI_OPT_IR_MODE_SELECTOR@@@23@XZ" PURGE="0" COMMENT="" />
    <EXPORT ORDINAL="72" NAME="?get_const_instance@?$singleton@V?$extended_type_info_typeid@T_E_SC_SI_OPT_MINIMIZE_VGPRS_STRATEGY@@@serialization@boost@@@serialization@boost@@SAAEBV?$extended_type_info_typeid@T_E_SC_SI_OPT_MINIMIZE_VGPRS_STRATEGY@@@23@XZ" PURGE="0" COMMENT="" />
    <EXPORT ORDINAL="73" NAME="?get_const_instance@?$singleton@V?$extended_type_info_typeid@T_E_SC_SI_OPT_NPI_DISABLE@@@serialization@boost@@@serialization@boost@@SAAEBV?$extended_type_info_typeid@T_E_SC_SI_OPT_NPI_DISABLE@@@23@XZ" PURGE="0" COMMENT="" />
    <EXPORT ORDINAL="74" NAME="?get_const_instance@?$singleton@V?$extended_type_info_typeid@T_E_SC_SI_OPT_THREAD_LATENCY_STRATEGY@@@serialization@boost@@@serialization@boost@@SAAEBV?$extended_type_info_typeid@T_E_SC_SI_OPT_THREAD_LATENCY_STRATEGY@@@23@XZ" PURGE="0" COMMENT="" />
    <EXPORT ORDINAL="75" NAME="?get_const_instance@?$singleton@V?$extended_type_info_typeid@T_E_SC_SI_OPT_USE_MORE_D16_SELECTOR@@@serialization@boost@@@serialization@boost@@SAAEBV?$extended_type_info_typeid@T_E_SC_SI_OPT_USE_MORE_D16_SELECTOR@@@23@XZ" PURGE="0" COMMENT="" />
    <EXPORT ORDINAL="76" NAME="?get_const_instance@?$singleton@V?$extended_type_info_typeid@T_SC_COMPILE_FLAGS@@@serialization@boost@@@serialization@boost@@SAAEBV?$extended_type_info_typeid@T_SC_COMPILE_FLAGS@@@23@XZ" PURGE="0" COMMENT="" />
    <EXPORT ORDINAL="77" NAME="?get_const_instance@?$singleton@V?$extended_type_info_typeid@T_SC_LAUNCH_MODE_FLAGS@@@serialization@boost@@@serialization@boost@@SAAEBV?$extended_type_info_typeid@T_SC_LAUNCH_MODE_FLAGS@@@23@XZ" PURGE="0" COMMENT="" />
    <EXPORT ORDINAL="78" NAME="?get_const_instance@?$singleton@V?$extended_type_info_typeid@T_SC_SI_GLC_CONTROL@@@serialization@boost@@@serialization@boost@@SAAEBV?$extended_type_info_typeid@T_SC_SI_GLC_CONTROL@@@23@XZ" PURGE="0" COMMENT="" />
    <EXPORT ORDINAL="79" NAME="?get_const_instance@?$singleton@V?$extended_type_info_typeid@T_SC_SI_SLC_CONTROL@@@serialization@boost@@@serialization@boost@@SAAEBV?$extended_type_info_typeid@T_SC_SI_SLC_CONTROL@@@23@XZ" PURGE="0" COMMENT="" />
    <EXPORT ORDINAL="80" NAME="?get_const_instance@?$singleton@V?$extended_type_info_typeid@USC_INPUT@@@serialization@boost@@@serialization@boost@@SAAEBV?$extended_type_info_typeid@USC_INPUT@@@23@XZ" PURGE="0" COMMENT="" />
    <EXPORT ORDINAL="81" NAME="?get_const_instance@?$singleton@V?$extended_type_info_typeid@U_SC_CACHE_POLICY@@@serialization@boost@@@serialization@boost@@SAAEBV?$extended_type_info_typeid@U_SC_CACHE_POLICY@@@23@XZ" PURGE="0" COMMENT="" />
    <EXPORT ORDINAL="82" NAME="?get_const_instance@?$singleton@V?$extended_type_info_typeid@U_SC_CACHE_POLICY_CONTROL@@@serialization@boost@@@serialization@boost@@SAAEBV?$extended_type_info_typeid@U_SC_CACHE_POLICY_CONTROL@@@23@XZ" PURGE="0" COMMENT="" />
    <EXPORT ORDINAL="83" NAME="?get_const_instance@?$singleton@V?$extended_type_info_typeid@U_SC_CBCONSTVALUES@@@serialization@boost@@@serialization@boost@@SAAEBV?$extended_type_info_typeid@U_SC_CBCONSTVALUES@@@23@XZ" PURGE="0" COMMENT="" />
    <EXPORT ORDINAL="84" NAME="?get_const_instance@?$singleton@V?$extended_type_info_typeid@U_SC_CBRCONSTVALUES@@@serialization@boost@@@serialization@boost@@SAAEBV?$extended_type_info_typeid@U_SC_CBRCONSTVALUES@@@23@XZ" PURGE="0" COMMENT="" />
    <EXPORT ORDINAL="85" NAME="?get_const_instance@?$singleton@V?$extended_type_info_typeid@U_SC_CI_TRANSFORM_SHADER_DESC@@@serialization@boost@@@serialization@boost@@SAAEBV?$extended_type_info_typeid@U_SC_CI_TRANSFORM_SHADER_DESC@@@23@XZ" PURGE="0" COMMENT="" />
    <EXPORT ORDINAL="86" NAME="?get_const_instance@?$singleton@V?$extended_type_info_typeid@U_SC_CONSTANTUSAGE@@@serialization@boost@@@serialization@boost@@SAAEBV?$extended_type_info_typeid@U_SC_CONSTANTUSAGE@@@23@XZ" PURGE="0" COMMENT="" />
    <EXPORT ORDINAL="87" NAME="?get_const_instance@?$singleton@V?$extended_type_info_typeid@U_SC_FLOAT_CONST@@@serialization@boost@@@serialization@boost@@SAAEBV?$extended_type_info_typeid@U_SC_FLOAT_CONST@@@23@XZ" PURGE="0" COMMENT="" />
    <EXPORT ORDINAL="88" NAME="?get_const_instance@?$singleton@V?$extended_type_info_typeid@U_SC_INT_CONST@@@serialization@boost@@@serialization@boost@@SAAEBV?$extended_type_info_typeid@U_SC_INT_CONST@@@23@XZ" PURGE="0" COMMENT="" />
    <EXPORT ORDINAL="89" NAME="?get_const_instance@?$singleton@V?$extended_type_info_typeid@U_SC_PRIMSHADER_CB_OFFSET_LUT@@@serialization@boost@@@serialization@boost@@SAAEBV?$extended_type_info_typeid@U_SC_PRIMSHADER_CB_OFFSET_LUT@@@23@XZ" PURGE="0" COMMENT="" />
    <EXPORT ORDINAL="90" NAME="?get_const_instance@?$singleton@V?$extended_type_info_typeid@U_SC_PRIMSHADER_CONTROL_FLAGS@@@serialization@boost@@@serialization@boost@@SAAEBV?$extended_type_info_typeid@U_SC_PRIMSHADER_CONTROL_FLAGS@@@23@XZ" PURGE="0" COMMENT="" />
    <EXPORT ORDINAL="91" NAME="?get_const_instance@?$singleton@V?$extended_type_info_typeid@U_SC_PRIMSHADER_VPORT_CONTROLS_LUT@@@serialization@boost@@@serialization@boost@@SAAEBV?$extended_type_info_typeid@U_SC_PRIMSHADER_VPORT_CONTROLS_LUT@@@23@XZ" PURGE="0" COMMENT="" />
    <EXPORT ORDINAL="92" NAME="?get_const_instance@?$singleton@V?$extended_type_info_typeid@U_SC_PS_EXPORT_INFO@@@serialization@boost@@@serialization@boost@@SAAEBV?$extended_type_info_typeid@U_SC_PS_EXPORT_INFO@@@23@XZ" PURGE="0" COMMENT="" />
    <EXPORT ORDINAL="93" NAME="?get_const_instance@?$singleton@V?$extended_type_info_typeid@U_SC_SHADERSTATE@@@serialization@boost@@@serialization@boost@@SAAEBV?$extended_type_info_typeid@U_SC_SHADERSTATE@@@23@XZ" PURGE="0" COMMENT="" />
    <EXPORT ORDINAL="94" NAME="?get_const_instance@?$singleton@V?$extended_type_info_typeid@U_SC_SI_DATA_IN_OUT@@@serialization@boost@@@serialization@boost@@SAAEBV?$extended_type_info_typeid@U_SC_SI_DATA_IN_OUT@@@23@XZ" PURGE="0" COMMENT="" />
    <EXPORT ORDINAL="95" NAME="?get_const_instance@?$singleton@V?$extended_type_info_typeid@U_SC_SI_DESCRIPTOR_VALUES@@@serialization@boost@@@serialization@boost@@SAAEBV?$extended_type_info_typeid@U_SC_SI_DESCRIPTOR_VALUES@@@23@XZ" PURGE="0" COMMENT="" />
    <EXPORT ORDINAL="96" NAME="?get_const_instance@?$singleton@V?$extended_type_info_typeid@U_SC_SI_OPTIMIZATIONS@@@serialization@boost@@@serialization@boost@@SAAEBV?$extended_type_info_typeid@U_SC_SI_OPTIMIZATIONS@@@23@XZ" PURGE="0" COMMENT="" />
    <EXPORT ORDINAL="97" NAME="?get_const_instance@?$singleton@V?$extended_type_info_typeid@U_SC_SI_PSSHADERDCL_IN@@@serialization@boost@@@serialization@boost@@SAAEBV?$extended_type_info_typeid@U_SC_SI_PSSHADERDCL_IN@@@23@XZ" PURGE="0" COMMENT="" />
    <EXPORT ORDINAL="98" NAME="?get_const_instance@?$singleton@V?$extended_type_info_typeid@U_SC_SI_PS_ATTR_CH_ENTRY@@@serialization@boost@@@serialization@boost@@SAAEBV?$extended_type_info_typeid@U_SC_SI_PS_ATTR_CH_ENTRY@@@23@XZ" PURGE="0" COMMENT="" />
    <EXPORT ORDINAL="99" NAME="?get_const_instance@?$singleton@V?$extended_type_info_typeid@U_SC_SI_SHADERSTATE@@@serialization@boost@@@serialization@boost@@SAAEBV?$extended_type_info_typeid@U_SC_SI_SHADERSTATE@@@23@XZ" PURGE="0" COMMENT="" />
    <EXPORT ORDINAL="100" NAME="?get_const_instance@?$singleton@V?$extended_type_info_typeid@U_SC_SI_STREAMIODCL_OUT@@@serialization@boost@@@serialization@boost@@SAAEBV?$extended_type_info_typeid@U_SC_SI_STREAMIODCL_OUT@@@23@XZ" PURGE="0" COMMENT="" />
    <EXPORT ORDINAL="101" NAME="?get_const_instance@?$singleton@V?$extended_type_info_typeid@U_SC_SI_USER_DATA_ELEMENT@@@serialization@boost@@@serialization@boost@@SAAEBV?$extended_type_info_typeid@U_SC_SI_USER_DATA_ELEMENT@@@23@XZ" PURGE="0" COMMENT="" />
    <EXPORT ORDINAL="102" NAME="?get_const_instance@?$singleton@V?$extended_type_info_typeid@U_SC_SRCSHADER@@@serialization@boost@@@serialization@boost@@SAAEBV?$extended_type_info_typeid@U_SC_SRCSHADER@@@23@XZ" PURGE="0" COMMENT="" />
    <EXPORT ORDINAL="103" NAME="?get_const_instance@?$singleton@V?$extended_type_info_typeid@U_SC_SRC_PIPELINE@@@serialization@boost@@@serialization@boost@@SAAEBV?$extended_type_info_typeid@U_SC_SRC_PIPELINE@@@23@XZ" PURGE="0" COMMENT="" />
    <EXPORT ORDINAL="104" NAME="?get_const_instance@?$singleton@V?$extended_type_info_typeid@U_SC_TXCONSTVALUES@@@serialization@boost@@@serialization@boost@@SAAEBV?$extended_type_info_typeid@U_SC_TXCONSTVALUES@@@23@XZ" PURGE="0" COMMENT="" />
    <EXPORT ORDINAL="105" NAME="?get_const_instance@?$singleton@V?$extended_type_info_typeid@V?$vector@V?$basic_string@DU?$char_traits@D@std@@V?$allocator@D@2@@std@@V?$allocator@V?$basic_string@DU?$char_traits@D@std@@V?$allocator@D@2@@std@@@2@@std@@@serialization@boost@@@serialization@boost@@SAAEBV?$extended_type_info_typeid@V?$vector@V?$basic_string@DU?$char_traits@D@std@@V?$allocator@D@2@@std@@V?$allocator@V?$basic_string@DU?$char_traits@D@std@@V?$allocator@D@2@@std@@@2@@std@@@23@XZ" PURGE="0" COMMENT="" />
    <EXPORT ORDINAL="106" NAME="?get_const_instance@?$singleton@V?$iserializer@Vsc_xml_iarchive@@T_E_SC_SI_OPT_IR_MODE_SELECTOR@@@detail@archive@boost@@@serialization@boost@@SAAEBV?$iserializer@Vsc_xml_iarchive@@T_E_SC_SI_OPT_IR_MODE_SELECTOR@@@detail@archive@3@XZ" PURGE="0" COMMENT="" />
    <EXPORT ORDINAL="107" NAME="?get_const_instance@?$singleton@V?$iserializer@Vsc_xml_iarchive@@T_E_SC_SI_OPT_MINIMIZE_VGPRS_STRATEGY@@@detail@archive@boost@@@serialization@boost@@SAAEBV?$iserializer@Vsc_xml_iarchive@@T_E_SC_SI_OPT_MINIMIZE_VGPRS_STRATEGY@@@detail@archive@3@XZ" PURGE="0" COMMENT="" />
    <EXPORT ORDINAL="108" NAME="?get_const_instance@?$singleton@V?$iserializer@Vsc_xml_iarchive@@T_E_SC_SI_OPT_NPI_DISABLE@@@detail@archive@boost@@@serialization@boost@@SAAEBV?$iserializer@Vsc_xml_iarchive@@T_E_SC_SI_OPT_NPI_DISABLE@@@detail@archive@3@XZ" PURGE="0" COMMENT="" />
    <EXPORT ORDINAL="109" NAME="?get_const_instance@?$singleton@V?$iserializer@Vsc_xml_iarchive@@T_E_SC_SI_OPT_THREAD_LATENCY_STRATEGY@@@detail@archive@boost@@@serialization@boost@@SAAEBV?$iserializer@Vsc_xml_iarchive@@T_E_SC_SI_OPT_THREAD_LATENCY_STRATEGY@@@detail@archive@3@XZ" PURGE="0" COMMENT="" />
    <EXPORT ORDINAL="110" NAME="?get_const_instance@?$singleton@V?$iserializer@Vsc_xml_iarchive@@T_E_SC_SI_OPT_USE_MORE_D16_SELECTOR@@@detail@archive@boost@@@serialization@boost@@SAAEBV?$iserializer@Vsc_xml_iarchive@@T_E_SC_SI_OPT_USE_MORE_D16_SELECTOR@@@detail@archive@3@XZ" PURGE="0" COMMENT="" />
    <EXPORT ORDINAL="111" NAME="?get_const_instance@?$singleton@V?$iserializer@Vsc_xml_iarchive@@T_SC_COMPILE_FLAGS@@@detail@archive@boost@@@serialization@boost@@SAAEBV?$iserializer@Vsc_xml_iarchive@@T_SC_COMPILE_FLAGS@@@detail@archive@3@XZ" PURGE="0" COMMENT="" />
    <EXPORT ORDINAL="112" NAME="?get_const_instance@?$singleton@V?$iserializer@Vsc_xml_iarchive@@T_SC_LAUNCH_MODE_FLAGS@@@detail@archive@boost@@@serialization@boost@@SAAEBV?$iserializer@Vsc_xml_iarchive@@T_SC_LAUNCH_MODE_FLAGS@@@detail@archive@3@XZ" PURGE="0" COMMENT="" />
    <EXPORT ORDINAL="113" NAME="?get_const_instance@?$singleton@V?$iserializer@Vsc_xml_iarchive@@T_SC_SI_GLC_CONTROL@@@detail@archive@boost@@@serialization@boost@@SAAEBV?$iserializer@Vsc_xml_iarchive@@T_SC_SI_GLC_CONTROL@@@detail@archive@3@XZ" PURGE="0" COMMENT="" />
    <EXPORT ORDINAL="114" NAME="?get_const_instance@?$singleton@V?$iserializer@Vsc_xml_iarchive@@T_SC_SI_SLC_CONTROL@@@detail@archive@boost@@@serialization@boost@@SAAEBV?$iserializer@Vsc_xml_iarchive@@T_SC_SI_SLC_CONTROL@@@detail@archive@3@XZ" PURGE="0" COMMENT="" />
    <EXPORT ORDINAL="115" NAME="?get_const_instance@?$singleton@V?$iserializer@Vsc_xml_iarchive@@USC_INPUT@@@detail@archive@boost@@@serialization@boost@@SAAEBV?$iserializer@Vsc_xml_iarchive@@USC_INPUT@@@detail@archive@3@XZ" PURGE="0" COMMENT="" />
    <EXPORT ORDINAL="116" NAME="?get_const_instance@?$singleton@V?$iserializer@Vsc_xml_iarchive@@U_SC_CACHE_POLICY@@@detail@archive@boost@@@serialization@boost@@SAAEBV?$iserializer@Vsc_xml_iarchive@@U_SC_CACHE_POLICY@@@detail@archive@3@XZ" PURGE="0" COMMENT="" />
    <EXPORT ORDINAL="117" NAME="?get_const_instance@?$singleton@V?$iserializer@Vsc_xml_iarchive@@U_SC_CACHE_POLICY_CONTROL@@@detail@archive@boost@@@serialization@boost@@SAAEBV?$iserializer@Vsc_xml_iarchive@@U_SC_CACHE_POLICY_CONTROL@@@detail@archive@3@XZ" PURGE="0" COMMENT="" />
    <EXPORT ORDINAL="118" NAME="?get_const_instance@?$singleton@V?$iserializer@Vsc_xml_iarchive@@U_SC_CBCONSTVALUES@@@detail@archive@boost@@@serialization@boost@@SAAEBV?$iserializer@Vsc_xml_iarchive@@U_SC_CBCONSTVALUES@@@detail@archive@3@XZ" PURGE="0" COMMENT="" />
    <EXPORT ORDINAL="119" NAME="?get_const_instance@?$singleton@V?$iserializer@Vsc_xml_iarchive@@U_SC_CBRCONSTVALUES@@@detail@archive@boost@@@serialization@boost@@SAAEBV?$iserializer@Vsc_xml_iarchive@@U_SC_CBRCONSTVALUES@@@detail@archive@3@XZ" PURGE="0" COMMENT="" />
    <EXPORT ORDINAL="120" NAME="?get_const_instance@?$singleton@V?$iserializer@Vsc_xml_iarchive@@U_SC_CI_TRANSFORM_SHADER_DESC@@@detail@archive@boost@@@serialization@boost@@SAAEBV?$iserializer@Vsc_xml_iarchive@@U_SC_CI_TRANSFORM_SHADER_DESC@@@detail@archive@3@XZ" PURGE="0" COMMENT="" />
    <EXPORT ORDINAL="121" NAME="?get_const_instance@?$singleton@V?$iserializer@Vsc_xml_iarchive@@U_SC_CONSTANTUSAGE@@@detail@archive@boost@@@serialization@boost@@SAAEBV?$iserializer@Vsc_xml_iarchive@@U_SC_CONSTANTUSAGE@@@detail@archive@3@XZ" PURGE="0" COMMENT="" />
    <EXPORT ORDINAL="122" NAME="?get_const_instance@?$singleton@V?$iserializer@Vsc_xml_iarchive@@U_SC_FLOAT_CONST@@@detail@archive@boost@@@serialization@boost@@SAAEBV?$iserializer@Vsc_xml_iarchive@@U_SC_FLOAT_CONST@@@detail@archive@3@XZ" PURGE="0" COMMENT="" />
    <EXPORT ORDINAL="123" NAME="?get_const_instance@?$singleton@V?$iserializer@Vsc_xml_iarchive@@U_SC_INT_CONST@@@detail@archive@boost@@@serialization@boost@@SAAEBV?$iserializer@Vsc_xml_iarchive@@U_SC_INT_CONST@@@detail@archive@3@XZ" PURGE="0" COMMENT="" />
    <EXPORT ORDINAL="124" NAME="?get_const_instance@?$singleton@V?$iserializer@Vsc_xml_iarchive@@U_SC_PRIMSHADER_CB_OFFSET_LUT@@@detail@archive@boost@@@serialization@boost@@SAAEBV?$iserializer@Vsc_xml_iarchive@@U_SC_PRIMSHADER_CB_OFFSET_LUT@@@detail@archive@3@XZ" PURGE="0" COMMENT="" />
    <EXPORT ORDINAL="125" NAME="?get_const_instance@?$singleton@V?$iserializer@Vsc_xml_iarchive@@U_SC_PRIMSHADER_CONTROL_FLAGS@@@detail@archive@boost@@@serialization@boost@@SAAEBV?$iserializer@Vsc_xml_iarchive@@U_SC_PRIMSHADER_CONTROL_FLAGS@@@detail@archive@3@XZ" PURGE="0" COMMENT="" />
    <EXPORT ORDINAL="126" NAME="?get_const_instance@?$singleton@V?$iserializer@Vsc_xml_iarchive@@U_SC_PRIMSHADER_VPORT_CONTROLS_LUT@@@detail@archive@boost@@@serialization@boost@@SAAEBV?$iserializer@Vsc_xml_iarchive@@U_SC_PRIMSHADER_VPORT_CONTROLS_LUT@@@detail@archive@3@XZ" PURGE="0" COMMENT="" />
    <EXPORT ORDINAL="127" NAME="?get_const_instance@?$singleton@V?$iserializer@Vsc_xml_iarchive@@U_SC_PS_EXPORT_INFO@@@detail@archive@boost@@@serialization@boost@@SAAEBV?$iserializer@Vsc_xml_iarchive@@U_SC_PS_EXPORT_INFO@@@detail@archive@3@XZ" PURGE="0" COMMENT="" />
    <EXPORT ORDINAL="128" NAME="?get_const_instance@?$singleton@V?$iserializer@Vsc_xml_iarchive@@U_SC_SHADERSTATE@@@detail@archive@boost@@@serialization@boost@@SAAEBV?$iserializer@Vsc_xml_iarchive@@U_SC_SHADERSTATE@@@detail@archive@3@XZ" PURGE="0" COMMENT="" />
    <EXPORT ORDINAL="129" NAME="?get_const_instance@?$singleton@V?$iserializer@Vsc_xml_iarchive@@U_SC_SI_DATA_IN_OUT@@@detail@archive@boost@@@serialization@boost@@SAAEBV?$iserializer@Vsc_xml_iarchive@@U_SC_SI_DATA_IN_OUT@@@detail@archive@3@XZ" PURGE="0" COMMENT="" />
    <EXPORT ORDINAL="130" NAME="?get_const_instance@?$singleton@V?$iserializer@Vsc_xml_iarchive@@U_SC_SI_DESCRIPTOR_VALUES@@@detail@archive@boost@@@serialization@boost@@SAAEBV?$iserializer@Vsc_xml_iarchive@@U_SC_SI_DESCRIPTOR_VALUES@@@detail@archive@3@XZ" PURGE="0" COMMENT="" />
    <EXPORT ORDINAL="131" NAME="?get_const_instance@?$singleton@V?$iserializer@Vsc_xml_iarchive@@U_SC_SI_OPTIMIZATIONS@@@detail@archive@boost@@@serialization@boost@@SAAEBV?$iserializer@Vsc_xml_iarchive@@U_SC_SI_OPTIMIZATIONS@@@detail@archive@3@XZ" PURGE="0" COMMENT="" />
    <EXPORT ORDINAL="132" NAME="?get_const_instance@?$singleton@V?$iserializer@Vsc_xml_iarchive@@U_SC_SI_PSSHADERDCL_IN@@@detail@archive@boost@@@serialization@boost@@SAAEBV?$iserializer@Vsc_xml_iarchive@@U_SC_SI_PSSHADERDCL_IN@@@detail@archive@3@XZ" PURGE="0" COMMENT="" />
    <EXPORT ORDINAL="133" NAME="?get_const_instance@?$singleton@V?$iserializer@Vsc_xml_iarchive@@U_SC_SI_PS_ATTR_CH_ENTRY@@@detail@archive@boost@@@serialization@boost@@SAAEBV?$iserializer@Vsc_xml_iarchive@@U_SC_SI_PS_ATTR_CH_ENTRY@@@detail@archive@3@XZ" PURGE="0" COMMENT="" />
    <EXPORT ORDINAL="134" NAME="?get_const_instance@?$singleton@V?$iserializer@Vsc_xml_iarchive@@U_SC_SI_SHADERSTATE@@@detail@archive@boost@@@serialization@boost@@SAAEBV?$iserializer@Vsc_xml_iarchive@@U_SC_SI_SHADERSTATE@@@detail@archive@3@XZ" PURGE="0" COMMENT="" />
    <EXPORT ORDINAL="135" NAME="?get_const_instance@?$singleton@V?$iserializer@Vsc_xml_iarchive@@U_SC_SI_STREAMIODCL_OUT@@@detail@archive@boost@@@serialization@boost@@SAAEBV?$iserializer@Vsc_xml_iarchive@@U_SC_SI_STREAMIODCL_OUT@@@detail@archive@3@XZ" PURGE="0" COMMENT="" />
    <EXPORT ORDINAL="136" NAME="?get_const_instance@?$singleton@V?$iserializer@Vsc_xml_iarchive@@U_SC_SI_USER_DATA_ELEMENT@@@detail@archive@boost@@@serialization@boost@@SAAEBV?$iserializer@Vsc_xml_iarchive@@U_SC_SI_USER_DATA_ELEMENT@@@detail@archive@3@XZ" PURGE="0" COMMENT="" />
    <EXPORT ORDINAL="137" NAME="?get_const_instance@?$singleton@V?$iserializer@Vsc_xml_iarchive@@U_SC_SRCSHADER@@@detail@archive@boost@@@serialization@boost@@SAAEBV?$iserializer@Vsc_xml_iarchive@@U_SC_SRCSHADER@@@detail@archive@3@XZ" PURGE="0" COMMENT="" />
    <EXPORT ORDINAL="138" NAME="?get_const_instance@?$singleton@V?$iserializer@Vsc_xml_iarchive@@U_SC_SRC_PIPELINE@@@detail@archive@boost@@@serialization@boost@@SAAEBV?$iserializer@Vsc_xml_iarchive@@U_SC_SRC_PIPELINE@@@detail@archive@3@XZ" PURGE="0" COMMENT="" />
    <EXPORT ORDINAL="139" NAME="?get_const_instance@?$singleton@V?$iserializer@Vsc_xml_iarchive@@U_SC_TXCONSTVALUES@@@detail@archive@boost@@@serialization@boost@@SAAEBV?$iserializer@Vsc_xml_iarchive@@U_SC_TXCONSTVALUES@@@detail@archive@3@XZ" PURGE="0" COMMENT="" />
    <EXPORT ORDINAL="140" NAME="?get_const_instance@?$singleton@V?$iserializer@Vsc_xml_iarchive@@V?$vector@V?$basic_string@DU?$char_traits@D@std@@V?$allocator@D@2@@std@@V?$allocator@V?$basic_string@DU?$char_traits@D@std@@V?$allocator@D@2@@std@@@2@@std@@@detail@archive@boost@@@serialization@boost@@SAAEBV?$iserializer@Vsc_xml_iarchive@@V?$vector@V?$basic_string@DU?$char_traits@D@std@@V?$allocator@D@2@@std@@V?$allocator@V?$basic_string@DU?$char_traits@D@std@@V?$allocator@D@2@@std@@@2@@std@@@detail@archive@3@XZ" PURGE="0" COMMENT="" />
    <EXPORT ORDINAL="141" NAME="?get_const_instance@?$singleton@V?$map@Vsc_xml_iarchive@@@extra_detail@detail@archive@boost@@@serialization@boost@@SAAEBV?$map@Vsc_xml_iarchive@@@extra_detail@detail@archive@3@XZ" PURGE="0" COMMENT="" />
    <EXPORT ORDINAL="142" NAME="?get_const_instance@?$singleton@V?$multiset@PEBVextended_type_info@serialization@boost@@Ukey_compare@detail@23@V?$allocator@PEBVextended_type_info@serialization@boost@@@std@@@std@@@serialization@boost@@SAAEBV?$multiset@PEBVextended_type_info@serialization@boost@@Ukey_compare@detail@23@V?$allocator@PEBVextended_type_info@serialization@boost@@@std@@@std@@XZ" PURGE="0" COMMENT="" />
    <EXPORT ORDINAL="143" NAME="?get_const_instance@?$singleton@V?$multiset@PEBVextended_type_info_typeid_0@typeid_system@serialization@boost@@Utype_compare@234@V?$allocator@PEBVextended_type_info_typeid_0@typeid_system@serialization@boost@@@std@@@std@@@serialization@boost@@SAAEBV?$multiset@PEBVextended_type_info_typeid_0@typeid_system@serialization@boost@@Utype_compare@234@V?$allocator@PEBVextended_type_info_typeid_0@typeid_system@serialization@boost@@@std@@@std@@XZ" PURGE="0" COMMENT="" />
    <EXPORT ORDINAL="144" NAME="?get_const_instance@?$singleton@V?$oserializer@Vsc_xml_oarchive@@T_E_SC_SI_OPT_IR_MODE_SELECTOR@@@detail@archive@boost@@@serialization@boost@@SAAEBV?$oserializer@Vsc_xml_oarchive@@T_E_SC_SI_OPT_IR_MODE_SELECTOR@@@detail@archive@3@XZ" PURGE="0" COMMENT="" />
    <EXPORT ORDINAL="145" NAME="?get_const_instance@?$singleton@V?$oserializer@Vsc_xml_oarchive@@T_E_SC_SI_OPT_MINIMIZE_VGPRS_STRATEGY@@@detail@archive@boost@@@serialization@boost@@SAAEBV?$oserializer@Vsc_xml_oarchive@@T_E_SC_SI_OPT_MINIMIZE_VGPRS_STRATEGY@@@detail@archive@3@XZ" PURGE="0" COMMENT="" />
    <EXPORT ORDINAL="146" NAME="?get_const_instance@?$singleton@V?$oserializer@Vsc_xml_oarchive@@T_E_SC_SI_OPT_NPI_DISABLE@@@detail@archive@boost@@@serialization@boost@@SAAEBV?$oserializer@Vsc_xml_oarchive@@T_E_SC_SI_OPT_NPI_DISABLE@@@detail@archive@3@XZ" PURGE="0" COMMENT="" />
    <EXPORT ORDINAL="147" NAME="?get_const_instance@?$singleton@V?$oserializer@Vsc_xml_oarchive@@T_E_SC_SI_OPT_THREAD_LATENCY_STRATEGY@@@detail@archive@boost@@@serialization@boost@@SAAEBV?$oserializer@Vsc_xml_oarchive@@T_E_SC_SI_OPT_THREAD_LATENCY_STRATEGY@@@detail@archive@3@XZ" PURGE="0" COMMENT="" />
    <EXPORT ORDINAL="148" NAME="?get_const_instance@?$singleton@V?$oserializer@Vsc_xml_oarchive@@T_E_SC_SI_OPT_USE_MORE_D16_SELECTOR@@@detail@archive@boost@@@serialization@boost@@SAAEBV?$oserializer@Vsc_xml_oarchive@@T_E_SC_SI_OPT_USE_MORE_D16_SELECTOR@@@detail@archive@3@XZ" PURGE="0" COMMENT="" />
    <EXPORT ORDINAL="149" NAME="?get_const_instance@?$singleton@V?$oserializer@Vsc_xml_oarchive@@T_SC_COMPILE_FLAGS@@@detail@archive@boost@@@serialization@boost@@SAAEBV?$oserializer@Vsc_xml_oarchive@@T_SC_COMPILE_FLAGS@@@detail@archive@3@XZ" PURGE="0" COMMENT="" />
    <EXPORT ORDINAL="150" NAME="?get_const_instance@?$singleton@V?$oserializer@Vsc_xml_oarchive@@T_SC_LAUNCH_MODE_FLAGS@@@detail@archive@boost@@@serialization@boost@@SAAEBV?$oserializer@Vsc_xml_oarchive@@T_SC_LAUNCH_MODE_FLAGS@@@detail@archive@3@XZ" PURGE="0" COMMENT="" />
    <EXPORT ORDINAL="151" NAME="?get_const_instance@?$singleton@V?$oserializer@Vsc_xml_oarchive@@T_SC_SI_GLC_CONTROL@@@detail@archive@boost@@@serialization@boost@@SAAEBV?$oserializer@Vsc_xml_oarchive@@T_SC_SI_GLC_CONTROL@@@detail@archive@3@XZ" PURGE="0" COMMENT="" />
    <EXPORT ORDINAL="152" NAME="?get_const_instance@?$singleton@V?$oserializer@Vsc_xml_oarchive@@T_SC_SI_SLC_CONTROL@@@detail@archive@boost@@@serialization@boost@@SAAEBV?$oserializer@Vsc_xml_oarchive@@T_SC_SI_SLC_CONTROL@@@detail@archive@3@XZ" PURGE="0" COMMENT="" />
    <EXPORT ORDINAL="153" NAME="?get_const_instance@?$singleton@V?$oserializer@Vsc_xml_oarchive@@USC_INPUT@@@detail@archive@boost@@@serialization@boost@@SAAEBV?$oserializer@Vsc_xml_oarchive@@USC_INPUT@@@detail@archive@3@XZ" PURGE="0" COMMENT="" />
    <EXPORT ORDINAL="154" NAME="?get_const_instance@?$singleton@V?$oserializer@Vsc_xml_oarchive@@U_SC_CACHE_POLICY@@@detail@archive@boost@@@serialization@boost@@SAAEBV?$oserializer@Vsc_xml_oarchive@@U_SC_CACHE_POLICY@@@detail@archive@3@XZ" PURGE="0" COMMENT="" />
    <EXPORT ORDINAL="155" NAME="?get_const_instance@?$singleton@V?$oserializer@Vsc_xml_oarchive@@U_SC_CACHE_POLICY_CONTROL@@@detail@archive@boost@@@serialization@boost@@SAAEBV?$oserializer@Vsc_xml_oarchive@@U_SC_CACHE_POLICY_CONTROL@@@detail@archive@3@XZ" PURGE="0" COMMENT="" />
    <EXPORT ORDINAL="156" NAME="?get_const_instance@?$singleton@V?$oserializer@Vsc_xml_oarchive@@U_SC_CBCONSTVALUES@@@detail@archive@boost@@@serialization@boost@@SAAEBV?$oserializer@Vsc_xml_oarchive@@U_SC_CBCONSTVALUES@@@detail@archive@3@XZ" PURGE="0" COMMENT="" />
    <EXPORT ORDINAL="157" NAME="?get_const_instance@?$singleton@V?$oserializer@Vsc_xml_oarchive@@U_SC_CBRCONSTVALUES@@@detail@archive@boost@@@serialization@boost@@SAAEBV?$oserializer@Vsc_xml_oarchive@@U_SC_CBRCONSTVALUES@@@detail@archive@3@XZ" PURGE="0" COMMENT="" />
    <EXPORT ORDINAL="158" NAME="?get_const_instance@?$singleton@V?$oserializer@Vsc_xml_oarchive@@U_SC_CI_TRANSFORM_SHADER_DESC@@@detail@archive@boost@@@serialization@boost@@SAAEBV?$oserializer@Vsc_xml_oarchive@@U_SC_CI_TRANSFORM_SHADER_DESC@@@detail@archive@3@XZ" PURGE="0" COMMENT="" />
    <EXPORT ORDINAL="159" NAME="?get_const_instance@?$singleton@V?$oserializer@Vsc_xml_oarchive@@U_SC_CONSTANTUSAGE@@@detail@archive@boost@@@serialization@boost@@SAAEBV?$oserializer@Vsc_xml_oarchive@@U_SC_CONSTANTUSAGE@@@detail@archive@3@XZ" PURGE="0" COMMENT="" />
    <EXPORT ORDINAL="160" NAME="?get_const_instance@?$singleton@V?$oserializer@Vsc_xml_oarchive@@U_SC_FLOAT_CONST@@@detail@archive@boost@@@serialization@boost@@SAAEBV?$oserializer@Vsc_xml_oarchive@@U_SC_FLOAT_CONST@@@detail@archive@3@XZ" PURGE="0" COMMENT="" />
    <EXPORT ORDINAL="161" NAME="?get_const_instance@?$singleton@V?$oserializer@Vsc_xml_oarchive@@U_SC_INT_CONST@@@detail@archive@boost@@@serialization@boost@@SAAEBV?$oserializer@Vsc_xml_oarchive@@U_SC_INT_CONST@@@detail@archive@3@XZ" PURGE="0" COMMENT="" />
    <EXPORT ORDINAL="162" NAME="?get_const_instance@?$singleton@V?$oserializer@Vsc_xml_oarchive@@U_SC_PRIMSHADER_CB_OFFSET_LUT@@@detail@archive@boost@@@serialization@boost@@SAAEBV?$oserializer@Vsc_xml_oarchive@@U_SC_PRIMSHADER_CB_OFFSET_LUT@@@detail@archive@3@XZ" PURGE="0" COMMENT="" />
    <EXPORT ORDINAL="163" NAME="?get_const_instance@?$singleton@V?$oserializer@Vsc_xml_oarchive@@U_SC_PRIMSHADER_CONTROL_FLAGS@@@detail@archive@boost@@@serialization@boost@@SAAEBV?$oserializer@Vsc_xml_oarchive@@U_SC_PRIMSHADER_CONTROL_FLAGS@@@detail@archive@3@XZ" PURGE="0" COMMENT="" />
    <EXPORT ORDINAL="164" NAME="?get_const_instance@?$singleton@V?$oserializer@Vsc_xml_oarchive@@U_SC_PRIMSHADER_VPORT_CONTROLS_LUT@@@detail@archive@boost@@@serialization@boost@@SAAEBV?$oserializer@Vsc_xml_oarchive@@U_SC_PRIMSHADER_VPORT_CONTROLS_LUT@@@detail@archive@3@XZ" PURGE="0" COMMENT="" />
    <EXPORT ORDINAL="165" NAME="?get_const_instance@?$singleton@V?$oserializer@Vsc_xml_oarchive@@U_SC_PS_EXPORT_INFO@@@detail@archive@boost@@@serialization@boost@@SAAEBV?$oserializer@Vsc_xml_oarchive@@U_SC_PS_EXPORT_INFO@@@detail@archive@3@XZ" PURGE="0" COMMENT="" />
    <EXPORT ORDINAL="166" NAME="?get_const_instance@?$singleton@V?$oserializer@Vsc_xml_oarchive@@U_SC_SHADERSTATE@@@detail@archive@boost@@@serialization@boost@@SAAEBV?$oserializer@Vsc_xml_oarchive@@U_SC_SHADERSTATE@@@detail@archive@3@XZ" PURGE="0" COMMENT="" />
    <EXPORT ORDINAL="167" NAME="?get_const_instance@?$singleton@V?$oserializer@Vsc_xml_oarchive@@U_SC_SI_DATA_IN_OUT@@@detail@archive@boost@@@serialization@boost@@SAAEBV?$oserializer@Vsc_xml_oarchive@@U_SC_SI_DATA_IN_OUT@@@detail@archive@3@XZ" PURGE="0" COMMENT="" />
    <EXPORT ORDINAL="168" NAME="?get_const_instance@?$singleton@V?$oserializer@Vsc_xml_oarchive@@U_SC_SI_DESCRIPTOR_VALUES@@@detail@archive@boost@@@serialization@boost@@SAAEBV?$oserializer@Vsc_xml_oarchive@@U_SC_SI_DESCRIPTOR_VALUES@@@detail@archive@3@XZ" PURGE="0" COMMENT="" />
    <EXPORT ORDINAL="169" NAME="?get_const_instance@?$singleton@V?$oserializer@Vsc_xml_oarchive@@U_SC_SI_OPTIMIZATIONS@@@detail@archive@boost@@@serialization@boost@@SAAEBV?$oserializer@Vsc_xml_oarchive@@U_SC_SI_OPTIMIZATIONS@@@detail@archive@3@XZ" PURGE="0" COMMENT="" />
    <EXPORT ORDINAL="170" NAME="?get_const_instance@?$singleton@V?$oserializer@Vsc_xml_oarchive@@U_SC_SI_PSSHADERDCL_IN@@@detail@archive@boost@@@serialization@boost@@SAAEBV?$oserializer@Vsc_xml_oarchive@@U_SC_SI_PSSHADERDCL_IN@@@detail@archive@3@XZ" PURGE="0" COMMENT="" />
    <EXPORT ORDINAL="171" NAME="?get_const_instance@?$singleton@V?$oserializer@Vsc_xml_oarchive@@U_SC_SI_PS_ATTR_CH_ENTRY@@@detail@archive@boost@@@serialization@boost@@SAAEBV?$oserializer@Vsc_xml_oarchive@@U_SC_SI_PS_ATTR_CH_ENTRY@@@detail@archive@3@XZ" PURGE="0" COMMENT="" />
    <EXPORT ORDINAL="172" NAME="?get_const_instance@?$singleton@V?$oserializer@Vsc_xml_oarchive@@U_SC_SI_SHADERSTATE@@@detail@archive@boost@@@serialization@boost@@SAAEBV?$oserializer@Vsc_xml_oarchive@@U_SC_SI_SHADERSTATE@@@detail@archive@3@XZ" PURGE="0" COMMENT="" />
    <EXPORT ORDINAL="173" NAME="?get_const_instance@?$singleton@V?$oserializer@Vsc_xml_oarchive@@U_SC_SI_STREAMIODCL_OUT@@@detail@archive@boost@@@serialization@boost@@SAAEBV?$oserializer@Vsc_xml_oarchive@@U_SC_SI_STREAMIODCL_OUT@@@detail@archive@3@XZ" PURGE="0" COMMENT="" />
    <EXPORT ORDINAL="174" NAME="?get_const_instance@?$singleton@V?$oserializer@Vsc_xml_oarchive@@U_SC_SI_USER_DATA_ELEMENT@@@detail@archive@boost@@@serialization@boost@@SAAEBV?$oserializer@Vsc_xml_oarchive@@U_SC_SI_USER_DATA_ELEMENT@@@detail@archive@3@XZ" PURGE="0" COMMENT="" />
    <EXPORT ORDINAL="175" NAME="?get_const_instance@?$singleton@V?$oserializer@Vsc_xml_oarchive@@U_SC_SRCSHADER@@@detail@archive@boost@@@serialization@boost@@SAAEBV?$oserializer@Vsc_xml_oarchive@@U_SC_SRCSHADER@@@detail@archive@3@XZ" PURGE="0" COMMENT="" />
    <EXPORT ORDINAL="176" NAME="?get_const_instance@?$singleton@V?$oserializer@Vsc_xml_oarchive@@U_SC_SRC_PIPELINE@@@detail@archive@boost@@@serialization@boost@@SAAEBV?$oserializer@Vsc_xml_oarchive@@U_SC_SRC_PIPELINE@@@detail@archive@3@XZ" PURGE="0" COMMENT="" />
    <EXPORT ORDINAL="177" NAME="?get_const_instance@?$singleton@V?$oserializer@Vsc_xml_oarchive@@U_SC_TXCONSTVALUES@@@detail@archive@boost@@@serialization@boost@@SAAEBV?$oserializer@Vsc_xml_oarchive@@U_SC_TXCONSTVALUES@@@detail@archive@3@XZ" PURGE="0" COMMENT="" />
    <EXPORT ORDINAL="178" NAME="?get_const_instance@?$singleton@V?$oserializer@Vsc_xml_oarchive@@V?$vector@V?$basic_string@DU?$char_traits@D@std@@V?$allocator@D@2@@std@@V?$allocator@V?$basic_string@DU?$char_traits@D@std@@V?$allocator@D@2@@std@@@2@@std@@@detail@archive@boost@@@serialization@boost@@SAAEBV?$oserializer@Vsc_xml_oarchive@@V?$vector@V?$basic_string@DU?$char_traits@D@std@@V?$allocator@D@2@@std@@V?$allocator@V?$basic_string@DU?$char_traits@D@std@@V?$allocator@D@2@@std@@@2@@std@@@detail@archive@3@XZ" PURGE="0" COMMENT="" />
    <EXPORT ORDINAL="179" NAME="?get_const_instance@?$singleton@V?$pointer_iserializer@Vsc_xml_iarchive@@U_SC_SI_SHADERSTATE@@@detail@archive@boost@@@serialization@boost@@SAAEBV?$pointer_iserializer@Vsc_xml_iarchive@@U_SC_SI_SHADERSTATE@@@detail@archive@3@XZ" PURGE="0" COMMENT="" />
    <EXPORT ORDINAL="180" NAME="?get_const_instance@?$singleton@V?$pointer_iserializer@Vsc_xml_iarchive@@U_SC_SRCSHADER@@@detail@archive@boost@@@serialization@boost@@SAAEBV?$pointer_iserializer@Vsc_xml_iarchive@@U_SC_SRCSHADER@@@detail@archive@3@XZ" PURGE="0" COMMENT="" />
    <EXPORT ORDINAL="181" NAME="?get_const_instance@?$singleton@V?$pointer_iserializer@Vsc_xml_iarchive@@U_SC_SRC_PIPELINE@@@detail@archive@boost@@@serialization@boost@@SAAEBV?$pointer_iserializer@Vsc_xml_iarchive@@U_SC_SRC_PIPELINE@@@detail@archive@3@XZ" PURGE="0" COMMENT="" />
    <EXPORT ORDINAL="182" NAME="?get_const_instance@?$singleton@V?$pointer_oserializer@Vsc_xml_oarchive@@U_SC_SI_SHADERSTATE@@@detail@archive@boost@@@serialization@boost@@SAAEBV?$pointer_oserializer@Vsc_xml_oarchive@@U_SC_SI_SHADERSTATE@@@detail@archive@3@XZ" PURGE="0" COMMENT="" />
    <EXPORT ORDINAL="183" NAME="?get_const_instance@?$singleton@V?$pointer_oserializer@Vsc_xml_oarchive@@U_SC_SRCSHADER@@@detail@archive@boost@@@serialization@boost@@SAAEBV?$pointer_oserializer@Vsc_xml_oarchive@@U_SC_SRCSHADER@@@detail@archive@3@XZ" PURGE="0" COMMENT="" />
    <EXPORT ORDINAL="184" NAME="?get_const_instance@?$singleton@V?$pointer_oserializer@Vsc_xml_oarchive@@U_SC_SRC_PIPELINE@@@detail@archive@boost@@@serialization@boost@@SAAEBV?$pointer_oserializer@Vsc_xml_oarchive@@U_SC_SRC_PIPELINE@@@detail@archive@3@XZ" PURGE="0" COMMENT="" />
    <EXPORT ORDINAL="185" NAME="?get_const_instance@?$singleton@V?$set@PEBVvoid_caster@void_cast_detail@serialization@boost@@Uvoid_caster_compare@234@V?$allocator@PEBVvoid_caster@void_cast_detail@serialization@boost@@@std@@@std@@@serialization@boost@@SAAEBV?$set@PEBVvoid_caster@void_cast_detail@serialization@boost@@Uvoid_caster_compare@234@V?$allocator@PEBVvoid_caster@void_cast_detail@serialization@boost@@@std@@@std@@XZ" PURGE="0" COMMENT="" />
    <EXPORT ORDINAL="186" NAME="?get_lock@singleton_module@serialization@boost@@AEAAAEA_NXZ" PURGE="0" COMMENT="" />
    <EXPORT ORDINAL="187" NAME="?get_mutable_instance@?$singleton@V?$iserializer@Vsc_xml_iarchive@@U_SC_SI_SHADERSTATE@@@detail@archive@boost@@@serialization@boost@@SAAEAV?$iserializer@Vsc_xml_iarchive@@U_SC_SI_SHADERSTATE@@@detail@archive@3@XZ" PURGE="0" COMMENT="" />
    <EXPORT ORDINAL="188" NAME="?get_mutable_instance@?$singleton@V?$iserializer@Vsc_xml_iarchive@@U_SC_SRCSHADER@@@detail@archive@boost@@@serialization@boost@@SAAEAV?$iserializer@Vsc_xml_iarchive@@U_SC_SRCSHADER@@@detail@archive@3@XZ" PURGE="0" COMMENT="" />
    <EXPORT ORDINAL="189" NAME="?get_mutable_instance@?$singleton@V?$iserializer@Vsc_xml_iarchive@@U_SC_SRC_PIPELINE@@@detail@archive@boost@@@serialization@boost@@SAAEAV?$iserializer@Vsc_xml_iarchive@@U_SC_SRC_PIPELINE@@@detail@archive@3@XZ" PURGE="0" COMMENT="" />
    <EXPORT ORDINAL="190" NAME="?get_mutable_instance@?$singleton@V?$map@Vsc_xml_iarchive@@@extra_detail@detail@archive@boost@@@serialization@boost@@SAAEAV?$map@Vsc_xml_iarchive@@@extra_detail@detail@archive@3@XZ" PURGE="0" COMMENT="" />
    <EXPORT ORDINAL="191" NAME="?get_mutable_instance@?$singleton@V?$map@Vsc_xml_oarchive@@@extra_detail@detail@archive@boost@@@serialization@boost@@SAAEAV?$map@Vsc_xml_oarchive@@@extra_detail@detail@archive@3@XZ" PURGE="0" COMMENT="" />
    <EXPORT ORDINAL="192" NAME="?get_mutable_instance@?$singleton@V?$multiset@PEBVextended_type_info@serialization@boost@@Ukey_compare@detail@23@V?$allocator@PEBVextended_type_info@serialization@boost@@@std@@@std@@@serialization@boost@@SAAEAV?$multiset@PEBVextended_type_info@serialization@boost@@Ukey_compare@detail@23@V?$allocator@PEBVextended_type_info@serialization@boost@@@std@@@std@@XZ" PURGE="0" COMMENT="" />
    <EXPORT ORDINAL="193" NAME="?get_mutable_instance@?$singleton@V?$multiset@PEBVextended_type_info_typeid_0@typeid_system@serialization@boost@@Utype_compare@234@V?$allocator@PEBVextended_type_info_typeid_0@typeid_system@serialization@boost@@@std@@@std@@@serialization@boost@@SAAEAV?$multiset@PEBVextended_type_info_typeid_0@typeid_system@serialization@boost@@Utype_compare@234@V?$allocator@PEBVextended_type_info_typeid_0@typeid_system@serialization@boost@@@std@@@std@@XZ" PURGE="0" COMMENT="" />
    <EXPORT ORDINAL="194" NAME="?get_mutable_instance@?$singleton@V?$oserializer@Vsc_xml_oarchive@@U_SC_SI_SHADERSTATE@@@detail@archive@boost@@@serialization@boost@@SAAEAV?$oserializer@Vsc_xml_oarchive@@U_SC_SI_SHADERSTATE@@@detail@archive@3@XZ" PURGE="0" COMMENT="" />
    <EXPORT ORDINAL="195" NAME="?get_mutable_instance@?$singleton@V?$oserializer@Vsc_xml_oarchive@@U_SC_SRCSHADER@@@detail@archive@boost@@@serialization@boost@@SAAEAV?$oserializer@Vsc_xml_oarchive@@U_SC_SRCSHADER@@@detail@archive@3@XZ" PURGE="0" COMMENT="" />
    <EXPORT ORDINAL="196" NAME="?get_mutable_instance@?$singleton@V?$oserializer@Vsc_xml_oarchive@@U_SC_SRC_PIPELINE@@@detail@archive@boost@@@serialization@boost@@SAAEAV?$oserializer@Vsc_xml_oarchive@@U_SC_SRC_PIPELINE@@@detail@archive@3@XZ" PURGE="0" COMMENT="" />
    <EXPORT ORDINAL="197" NAME="?get_mutable_instance@?$singleton@V?$set@PEBVvoid_caster@void_cast_detail@serialization@boost@@Uvoid_caster_compare@234@V?$allocator@PEBVvoid_caster@void_cast_detail@serialization@boost@@@std@@@std@@@serialization@boost@@SAAEAV?$set@PEBVvoid_caster@void_cast_detail@serialization@boost@@Uvoid_caster_compare@234@V?$allocator@PEBVvoid_caster@void_cast_detail@serialization@boost@@@std@@@std@@XZ" PURGE="0" COMMENT="" />
    <EXPORT ORDINAL="198" NAME="?is_destroyed@?$singleton@V?$map@Vsc_xml_iarchive@@@extra_detail@detail@archive@boost@@@serialization@boost@@SA_NXZ" PURGE="0" COMMENT="" />
    <EXPORT ORDINAL="199" NAME="?is_destroyed@?$singleton@V?$map@Vsc_xml_oarchive@@@extra_detail@detail@archive@boost@@@serialization@boost@@SA_NXZ" PURGE="0" COMMENT="" />
    <EXPORT ORDINAL="200" NAME="?is_destroyed@?$singleton@V?$multiset@PEBVextended_type_info@serialization@boost@@Ukey_compare@detail@23@V?$allocator@PEBVextended_type_info@serialization@boost@@@std@@@std@@@serialization@boost@@SA_NXZ" PURGE="0" COMMENT="" />
    <EXPORT ORDINAL="201" NAME="?is_destroyed@?$singleton@V?$multiset@PEBVextended_type_info_typeid_0@typeid_system@serialization@boost@@Utype_compare@234@V?$allocator@PEBVextended_type_info_typeid_0@typeid_system@serialization@boost@@@std@@@std@@@serialization@boost@@SA_NXZ" PURGE="0" COMMENT="" />
    <EXPORT ORDINAL="202" NAME="?is_destroyed@?$singleton@V?$set@PEBVvoid_caster@void_cast_detail@serialization@boost@@Uvoid_caster_compare@234@V?$allocator@PEBVvoid_caster@void_cast_detail@serialization@boost@@@std@@@std@@@serialization@boost@@SA_NXZ" PURGE="0" COMMENT="" />
    <EXPORT ORDINAL="203" NAME="?is_locked@singleton_module@serialization@boost@@QEAA_NXZ" PURGE="0" COMMENT="" />
    <EXPORT ORDINAL="204" NAME="?load_object_data@?$iserializer@Vsc_xml_iarchive@@T_E_SC_SI_OPT_IR_MODE_SELECTOR@@@detail@archive@boost@@UEBAXAEAVbasic_iarchive@234@PEAXI@Z" PURGE="0" COMMENT="" />
    <EXPORT ORDINAL="205" NAME="?load_object_data@?$iserializer@Vsc_xml_iarchive@@T_E_SC_SI_OPT_MINIMIZE_VGPRS_STRATEGY@@@detail@archive@boost@@UEBAXAEAVbasic_iarchive@234@PEAXI@Z" PURGE="0" COMMENT="" />
    <EXPORT ORDINAL="206" NAME="?load_object_data@?$iserializer@Vsc_xml_iarchive@@T_E_SC_SI_OPT_NPI_DISABLE@@@detail@archive@boost@@UEBAXAEAVbasic_iarchive@234@PEAXI@Z" PURGE="0" COMMENT="" />
    <EXPORT ORDINAL="207" NAME="?load_object_data@?$iserializer@Vsc_xml_iarchive@@T_E_SC_SI_OPT_THREAD_LATENCY_STRATEGY@@@detail@archive@boost@@UEBAXAEAVbasic_iarchive@234@PEAXI@Z" PURGE="0" COMMENT="" />
    <EXPORT ORDINAL="208" NAME="?load_object_data@?$iserializer@Vsc_xml_iarchive@@T_E_SC_SI_OPT_USE_MORE_D16_SELECTOR@@@detail@archive@boost@@UEBAXAEAVbasic_iarchive@234@PEAXI@Z" PURGE="0" COMMENT="" />
    <EXPORT ORDINAL="209" NAME="?load_object_data@?$iserializer@Vsc_xml_iarchive@@T_SC_COMPILE_FLAGS@@@detail@archive@boost@@UEBAXAEAVbasic_iarchive@234@PEAXI@Z" PURGE="0" COMMENT="" />
    <EXPORT ORDINAL="210" NAME="?load_object_data@?$iserializer@Vsc_xml_iarchive@@T_SC_LAUNCH_MODE_FLAGS@@@detail@archive@boost@@UEBAXAEAVbasic_iarchive@234@PEAXI@Z" PURGE="0" COMMENT="" />
    <EXPORT ORDINAL="211" NAME="?load_object_data@?$iserializer@Vsc_xml_iarchive@@T_SC_SI_GLC_CONTROL@@@detail@archive@boost@@UEBAXAEAVbasic_iarchive@234@PEAXI@Z" PURGE="0" COMMENT="" />
    <EXPORT ORDINAL="212" NAME="?load_object_data@?$iserializer@Vsc_xml_iarchive@@T_SC_SI_SLC_CONTROL@@@detail@archive@boost@@UEBAXAEAVbasic_iarchive@234@PEAXI@Z" PURGE="0" COMMENT="" />
    <EXPORT ORDINAL="213" NAME="?load_object_data@?$iserializer@Vsc_xml_iarchive@@USC_INPUT@@@detail@archive@boost@@UEBAXAEAVbasic_iarchive@234@PEAXI@Z" PURGE="0" COMMENT="" />
    <EXPORT ORDINAL="214" NAME="?load_object_data@?$iserializer@Vsc_xml_iarchive@@U_SC_CACHE_POLICY@@@detail@archive@boost@@UEBAXAEAVbasic_iarchive@234@PEAXI@Z" PURGE="0" COMMENT="" />
    <EXPORT ORDINAL="215" NAME="?load_object_data@?$iserializer@Vsc_xml_iarchive@@U_SC_CACHE_POLICY_CONTROL@@@detail@archive@boost@@UEBAXAEAVbasic_iarchive@234@PEAXI@Z" PURGE="0" COMMENT="" />
    <EXPORT ORDINAL="216" NAME="?load_object_data@?$iserializer@Vsc_xml_iarchive@@U_SC_CBCONSTVALUES@@@detail@archive@boost@@UEBAXAEAVbasic_iarchive@234@PEAXI@Z" PURGE="0" COMMENT="" />
    <EXPORT ORDINAL="217" NAME="?load_object_data@?$iserializer@Vsc_xml_iarchive@@U_SC_CBRCONSTVALUES@@@detail@archive@boost@@UEBAXAEAVbasic_iarchive@234@PEAXI@Z" PURGE="0" COMMENT="" />
    <EXPORT ORDINAL="218" NAME="?load_object_data@?$iserializer@Vsc_xml_iarchive@@U_SC_CI_TRANSFORM_SHADER_DESC@@@detail@archive@boost@@UEBAXAEAVbasic_iarchive@234@PEAXI@Z" PURGE="0" COMMENT="" />
    <EXPORT ORDINAL="219" NAME="?load_object_data@?$iserializer@Vsc_xml_iarchive@@U_SC_CONSTANTUSAGE@@@detail@archive@boost@@UEBAXAEAVbasic_iarchive@234@PEAXI@Z" PURGE="0" COMMENT="" />
    <EXPORT ORDINAL="220" NAME="?load_object_data@?$iserializer@Vsc_xml_iarchive@@U_SC_FLOAT_CONST@@@detail@archive@boost@@UEBAXAEAVbasic_iarchive@234@PEAXI@Z" PURGE="0" COMMENT="" />
    <EXPORT ORDINAL="221" NAME="?load_object_data@?$iserializer@Vsc_xml_iarchive@@U_SC_INT_CONST@@@detail@archive@boost@@UEBAXAEAVbasic_iarchive@234@PEAXI@Z" PURGE="0" COMMENT="" />
    <EXPORT ORDINAL="222" NAME="?load_object_data@?$iserializer@Vsc_xml_iarchive@@U_SC_PRIMSHADER_CB_OFFSET_LUT@@@detail@archive@boost@@UEBAXAEAVbasic_iarchive@234@PEAXI@Z" PURGE="0" COMMENT="" />
    <EXPORT ORDINAL="223" NAME="?load_object_data@?$iserializer@Vsc_xml_iarchive@@U_SC_PRIMSHADER_CONTROL_FLAGS@@@detail@archive@boost@@UEBAXAEAVbasic_iarchive@234@PEAXI@Z" PURGE="0" COMMENT="" />
    <EXPORT ORDINAL="224" NAME="?load_object_data@?$iserializer@Vsc_xml_iarchive@@U_SC_PRIMSHADER_VPORT_CONTROLS_LUT@@@detail@archive@boost@@UEBAXAEAVbasic_iarchive@234@PEAXI@Z" PURGE="0" COMMENT="" />
    <EXPORT ORDINAL="225" NAME="?load_object_data@?$iserializer@Vsc_xml_iarchive@@U_SC_PS_EXPORT_INFO@@@detail@archive@boost@@UEBAXAEAVbasic_iarchive@234@PEAXI@Z" PURGE="0" COMMENT="" />
    <EXPORT ORDINAL="226" NAME="?load_object_data@?$iserializer@Vsc_xml_iarchive@@U_SC_SHADERSTATE@@@detail@archive@boost@@UEBAXAEAVbasic_iarchive@234@PEAXI@Z" PURGE="0" COMMENT="" />
    <EXPORT ORDINAL="227" NAME="?load_object_data@?$iserializer@Vsc_xml_iarchive@@U_SC_SI_DATA_IN_OUT@@@detail@archive@boost@@UEBAXAEAVbasic_iarchive@234@PEAXI@Z" PURGE="0" COMMENT="" />
    <EXPORT ORDINAL="228" NAME="?load_object_data@?$iserializer@Vsc_xml_iarchive@@U_SC_SI_DESCRIPTOR_VALUES@@@detail@archive@boost@@UEBAXAEAVbasic_iarchive@234@PEAXI@Z" PURGE="0" COMMENT="" />
    <EXPORT ORDINAL="229" NAME="?load_object_data@?$iserializer@Vsc_xml_iarchive@@U_SC_SI_OPTIMIZATIONS@@@detail@archive@boost@@UEBAXAEAVbasic_iarchive@234@PEAXI@Z" PURGE="0" COMMENT="" />
    <EXPORT ORDINAL="230" NAME="?load_object_data@?$iserializer@Vsc_xml_iarchive@@U_SC_SI_PSSHADERDCL_IN@@@detail@archive@boost@@UEBAXAEAVbasic_iarchive@234@PEAXI@Z" PURGE="0" COMMENT="" />
    <EXPORT ORDINAL="231" NAME="?load_object_data@?$iserializer@Vsc_xml_iarchive@@U_SC_SI_PS_ATTR_CH_ENTRY@@@detail@archive@boost@@UEBAXAEAVbasic_iarchive@234@PEAXI@Z" PURGE="0" COMMENT="" />
    <EXPORT ORDINAL="232" NAME="?load_object_data@?$iserializer@Vsc_xml_iarchive@@U_SC_SI_SHADERSTATE@@@detail@archive@boost@@UEBAXAEAVbasic_iarchive@234@PEAXI@Z" PURGE="0" COMMENT="" />
    <EXPORT ORDINAL="233" NAME="?load_object_data@?$iserializer@Vsc_xml_iarchive@@U_SC_SI_STREAMIODCL_OUT@@@detail@archive@boost@@UEBAXAEAVbasic_iarchive@234@PEAXI@Z" PURGE="0" COMMENT="" />
    <EXPORT ORDINAL="234" NAME="?load_object_data@?$iserializer@Vsc_xml_iarchive@@U_SC_SI_USER_DATA_ELEMENT@@@detail@archive@boost@@UEBAXAEAVbasic_iarchive@234@PEAXI@Z" PURGE="0" COMMENT="" />
    <EXPORT ORDINAL="235" NAME="?load_object_data@?$iserializer@Vsc_xml_iarchive@@U_SC_SRCSHADER@@@detail@archive@boost@@UEBAXAEAVbasic_iarchive@234@PEAXI@Z" PURGE="0" COMMENT="" />
    <EXPORT ORDINAL="236" NAME="?load_object_data@?$iserializer@Vsc_xml_iarchive@@U_SC_SRC_PIPELINE@@@detail@archive@boost@@UEBAXAEAVbasic_iarchive@234@PEAXI@Z" PURGE="0" COMMENT="" />
    <EXPORT ORDINAL="237" NAME="?load_object_data@?$iserializer@Vsc_xml_iarchive@@U_SC_TXCONSTVALUES@@@detail@archive@boost@@UEBAXAEAVbasic_iarchive@234@PEAXI@Z" PURGE="0" COMMENT="" />
    <EXPORT ORDINAL="238" NAME="?load_object_data@?$iserializer@Vsc_xml_iarchive@@V?$vector@V?$basic_string@DU?$char_traits@D@std@@V?$allocator@D@2@@std@@V?$allocator@V?$basic_string@DU?$char_traits@D@std@@V?$allocator@D@2@@std@@@2@@std@@@detail@archive@boost@@UEBAXAEAVbasic_iarchive@234@PEAXI@Z" PURGE="0" COMMENT="" />
    <EXPORT ORDINAL="239" NAME="?load_object_ptr@?$pointer_iserializer@Vsc_xml_iarchive@@U_SC_SI_SHADERSTATE@@@detail@archive@boost@@EEBAXAEAVbasic_iarchive@234@PEAXI@Z" PURGE="0" COMMENT="" />
    <EXPORT ORDINAL="240" NAME="?load_object_ptr@?$pointer_iserializer@Vsc_xml_iarchive@@U_SC_SRCSHADER@@@detail@archive@boost@@EEBAXAEAVbasic_iarchive@234@PEAXI@Z" PURGE="0" COMMENT="" />
    <EXPORT ORDINAL="241" NAME="?load_object_ptr@?$pointer_iserializer@Vsc_xml_iarchive@@U_SC_SRC_PIPELINE@@@detail@archive@boost@@EEBAXAEAVbasic_iarchive@234@PEAXI@Z" PURGE="0" COMMENT="" />
    <EXPORT ORDINAL="242" NAME="?lock@?1??get_lock@singleton_module@serialization@boost@@AEAAAEA_NXZ@4_NA" PURGE="-1" COMMENT="" />
    <EXPORT ORDINAL="243" NAME="?lock@singleton_module@serialization@boost@@QEAAXXZ" PURGE="0" COMMENT="" />
    <EXPORT ORDINAL="244" NAME="?save_object_data@?$oserializer@Vsc_xml_oarchive@@T_E_SC_SI_OPT_IR_MODE_SELECTOR@@@detail@archive@boost@@UEBAXAEAVbasic_oarchive@234@PEBX@Z" PURGE="0" COMMENT="" />
    <EXPORT ORDINAL="245" NAME="?save_object_data@?$oserializer@Vsc_xml_oarchive@@T_E_SC_SI_OPT_MINIMIZE_VGPRS_STRATEGY@@@detail@archive@boost@@UEBAXAEAVbasic_oarchive@234@PEBX@Z" PURGE="0" COMMENT="" />
    <EXPORT ORDINAL="246" NAME="?save_object_data@?$oserializer@Vsc_xml_oarchive@@T_E_SC_SI_OPT_NPI_DISABLE@@@detail@archive@boost@@UEBAXAEAVbasic_oarchive@234@PEBX@Z" PURGE="0" COMMENT="" />
    <EXPORT ORDINAL="247" NAME="?save_object_data@?$oserializer@Vsc_xml_oarchive@@T_E_SC_SI_OPT_THREAD_LATENCY_STRATEGY@@@detail@archive@boost@@UEBAXAEAVbasic_oarchive@234@PEBX@Z" PURGE="0" COMMENT="" />
    <EXPORT ORDINAL="248" NAME="?save_object_data@?$oserializer@Vsc_xml_oarchive@@T_E_SC_SI_OPT_USE_MORE_D16_SELECTOR@@@detail@archive@boost@@UEBAXAEAVbasic_oarchive@234@PEBX@Z" PURGE="0" COMMENT="" />
    <EXPORT ORDINAL="249" NAME="?save_object_data@?$oserializer@Vsc_xml_oarchive@@T_SC_COMPILE_FLAGS@@@detail@archive@boost@@UEBAXAEAVbasic_oarchive@234@PEBX@Z" PURGE="0" COMMENT="" />
    <EXPORT ORDINAL="250" NAME="?save_object_data@?$oserializer@Vsc_xml_oarchive@@T_SC_LAUNCH_MODE_FLAGS@@@detail@archive@boost@@UEBAXAEAVbasic_oarchive@234@PEBX@Z" PURGE="0" COMMENT="" />
    <EXPORT ORDINAL="251" NAME="?save_object_data@?$oserializer@Vsc_xml_oarchive@@T_SC_SI_GLC_CONTROL@@@detail@archive@boost@@UEBAXAEAVbasic_oarchive@234@PEBX@Z" PURGE="0" COMMENT="" />
    <EXPORT ORDINAL="252" NAME="?save_object_data@?$oserializer@Vsc_xml_oarchive@@T_SC_SI_SLC_CONTROL@@@detail@archive@boost@@UEBAXAEAVbasic_oarchive@234@PEBX@Z" PURGE="0" COMMENT="" />
    <EXPORT ORDINAL="253" NAME="?save_object_data@?$oserializer@Vsc_xml_oarchive@@USC_INPUT@@@detail@archive@boost@@UEBAXAEAVbasic_oarchive@234@PEBX@Z" PURGE="0" COMMENT="" />
    <EXPORT ORDINAL="254" NAME="?save_object_data@?$oserializer@Vsc_xml_oarchive@@U_SC_CACHE_POLICY@@@detail@archive@boost@@UEBAXAEAVbasic_oarchive@234@PEBX@Z" PURGE="0" COMMENT="" />
    <EXPORT ORDINAL="255" NAME="?save_object_data@?$oserializer@Vsc_xml_oarchive@@U_SC_CACHE_POLICY_CONTROL@@@detail@archive@boost@@UEBAXAEAVbasic_oarchive@234@PEBX@Z" PURGE="0" COMMENT="" />
    <EXPORT ORDINAL="256" NAME="?save_object_data@?$oserializer@Vsc_xml_oarchive@@U_SC_CBCONSTVALUES@@@detail@archive@boost@@UEBAXAEAVbasic_oarchive@234@PEBX@Z" PURGE="0" COMMENT="" />
    <EXPORT ORDINAL="257" NAME="?save_object_data@?$oserializer@Vsc_xml_oarchive@@U_SC_CBRCONSTVALUES@@@detail@archive@boost@@UEBAXAEAVbasic_oarchive@234@PEBX@Z" PURGE="0" COMMENT="" />
    <EXPORT ORDINAL="258" NAME="?save_object_data@?$oserializer@Vsc_xml_oarchive@@U_SC_CI_TRANSFORM_SHADER_DESC@@@detail@archive@boost@@UEBAXAEAVbasic_oarchive@234@PEBX@Z" PURGE="0" COMMENT="" />
    <EXPORT ORDINAL="259" NAME="?save_object_data@?$oserializer@Vsc_xml_oarchive@@U_SC_CONSTANTUSAGE@@@detail@archive@boost@@UEBAXAEAVbasic_oarchive@234@PEBX@Z" PURGE="0" COMMENT="" />
    <EXPORT ORDINAL="260" NAME="?save_object_data@?$oserializer@Vsc_xml_oarchive@@U_SC_FLOAT_CONST@@@detail@archive@boost@@UEBAXAEAVbasic_oarchive@234@PEBX@Z" PURGE="0" COMMENT="" />
    <EXPORT ORDINAL="261" NAME="?save_object_data@?$oserializer@Vsc_xml_oarchive@@U_SC_INT_CONST@@@detail@archive@boost@@UEBAXAEAVbasic_oarchive@234@PEBX@Z" PURGE="0" COMMENT="" />
    <EXPORT ORDINAL="262" NAME="?save_object_data@?$oserializer@Vsc_xml_oarchive@@U_SC_PRIMSHADER_CB_OFFSET_LUT@@@detail@archive@boost@@UEBAXAEAVbasic_oarchive@234@PEBX@Z" PURGE="0" COMMENT="" />
    <EXPORT ORDINAL="263" NAME="?save_object_data@?$oserializer@Vsc_xml_oarchive@@U_SC_PRIMSHADER_CONTROL_FLAGS@@@detail@archive@boost@@UEBAXAEAVbasic_oarchive@234@PEBX@Z" PURGE="0" COMMENT="" />
    <EXPORT ORDINAL="264" NAME="?save_object_data@?$oserializer@Vsc_xml_oarchive@@U_SC_PRIMSHADER_VPORT_CONTROLS_LUT@@@detail@archive@boost@@UEBAXAEAVbasic_oarchive@234@PEBX@Z" PURGE="0" COMMENT="" />
    <EXPORT ORDINAL="265" NAME="?save_object_data@?$oserializer@Vsc_xml_oarchive@@U_SC_PS_EXPORT_INFO@@@detail@archive@boost@@UEBAXAEAVbasic_oarchive@234@PEBX@Z" PURGE="0" COMMENT="" />
    <EXPORT ORDINAL="266" NAME="?save_object_data@?$oserializer@Vsc_xml_oarchive@@U_SC_SHADERSTATE@@@detail@archive@boost@@UEBAXAEAVbasic_oarchive@234@PEBX@Z" PURGE="0" COMMENT="" />
    <EXPORT ORDINAL="267" NAME="?save_object_data@?$oserializer@Vsc_xml_oarchive@@U_SC_SI_DATA_IN_OUT@@@detail@archive@boost@@UEBAXAEAVbasic_oarchive@234@PEBX@Z" PURGE="0" COMMENT="" />
    <EXPORT ORDINAL="268" NAME="?save_object_data@?$oserializer@Vsc_xml_oarchive@@U_SC_SI_DESCRIPTOR_VALUES@@@detail@archive@boost@@UEBAXAEAVbasic_oarchive@234@PEBX@Z" PURGE="0" COMMENT="" />
    <EXPORT ORDINAL="269" NAME="?save_object_data@?$oserializer@Vsc_xml_oarchive@@U_SC_SI_OPTIMIZATIONS@@@detail@archive@boost@@UEBAXAEAVbasic_oarchive@234@PEBX@Z" PURGE="0" COMMENT="" />
    <EXPORT ORDINAL="270" NAME="?save_object_data@?$oserializer@Vsc_xml_oarchive@@U_SC_SI_PSSHADERDCL_IN@@@detail@archive@boost@@UEBAXAEAVbasic_oarchive@234@PEBX@Z" PURGE="0" COMMENT="" />
    <EXPORT ORDINAL="271" NAME="?save_object_data@?$oserializer@Vsc_xml_oarchive@@U_SC_SI_PS_ATTR_CH_ENTRY@@@detail@archive@boost@@UEBAXAEAVbasic_oarchive@234@PEBX@Z" PURGE="0" COMMENT="" />
    <EXPORT ORDINAL="272" NAME="?save_object_data@?$oserializer@Vsc_xml_oarchive@@U_SC_SI_SHADERSTATE@@@detail@archive@boost@@UEBAXAEAVbasic_oarchive@234@PEBX@Z" PURGE="0" COMMENT="" />
    <EXPORT ORDINAL="273" NAME="?save_object_data@?$oserializer@Vsc_xml_oarchive@@U_SC_SI_STREAMIODCL_OUT@@@detail@archive@boost@@UEBAXAEAVbasic_oarchive@234@PEBX@Z" PURGE="0" COMMENT="" />
    <EXPORT ORDINAL="274" NAME="?save_object_data@?$oserializer@Vsc_xml_oarchive@@U_SC_SI_USER_DATA_ELEMENT@@@detail@archive@boost@@UEBAXAEAVbasic_oarchive@234@PEBX@Z" PURGE="0" COMMENT="" />
    <EXPORT ORDINAL="275" NAME="?save_object_data@?$oserializer@Vsc_xml_oarchive@@U_SC_SRCSHADER@@@detail@archive@boost@@UEBAXAEAVbasic_oarchive@234@PEBX@Z" PURGE="0" COMMENT="" />
    <EXPORT ORDINAL="276" NAME="?save_object_data@?$oserializer@Vsc_xml_oarchive@@U_SC_SRC_PIPELINE@@@detail@archive@boost@@UEBAXAEAVbasic_oarchive@234@PEBX@Z" PURGE="0" COMMENT="" />
    <EXPORT ORDINAL="277" NAME="?save_object_data@?$oserializer@Vsc_xml_oarchive@@U_SC_TXCONSTVALUES@@@detail@archive@boost@@UEBAXAEAVbasic_oarchive@234@PEBX@Z" PURGE="0" COMMENT="" />
    <EXPORT ORDINAL="278" NAME="?save_object_data@?$oserializer@Vsc_xml_oarchive@@V?$vector@V?$basic_string@DU?$char_traits@D@std@@V?$allocator@D@2@@std@@V?$allocator@V?$basic_string@DU?$char_traits@D@std@@V?$allocator@D@2@@std@@@2@@std@@@detail@archive@boost@@UEBAXAEAVbasic_oarchive@234@PEBX@Z" PURGE="0" COMMENT="" />
    <EXPORT ORDINAL="279" NAME="?save_object_ptr@?$pointer_oserializer@Vsc_xml_oarchive@@U_SC_SI_SHADERSTATE@@@detail@archive@boost@@EEBAXAEAVbasic_oarchive@234@PEBX@Z" PURGE="0" COMMENT="" />
    <EXPORT ORDINAL="280" NAME="?save_object_ptr@?$pointer_oserializer@Vsc_xml_oarchive@@U_SC_SRCSHADER@@@detail@archive@boost@@EEBAXAEAVbasic_oarchive@234@PEBX@Z" PURGE="0" COMMENT="" />
    <EXPORT ORDINAL="281" NAME="?save_object_ptr@?$pointer_oserializer@Vsc_xml_oarchive@@U_SC_SRC_PIPELINE@@@detail@archive@boost@@EEBAXAEAVbasic_oarchive@234@PEBX@Z" PURGE="0" COMMENT="" />
    <EXPORT ORDINAL="282" NAME="?unlock@singleton_module@serialization@boost@@QEAAXXZ" PURGE="0" COMMENT="" />
    <EXPORT ORDINAL="283" NAME="AmdExtD3DCreateInterface" PURGE="0" COMMENT="" />
    <EXPORT ORDINAL="284" NAME="AmdGetDxcModuleHandle" PURGE="0" COMMENT="" />
    <EXPORT ORDINAL="285" NAME="GetSettingsBlobsAll" PURGE="0" COMMENT="" />
    <EXPORT ORDINAL="286" NAME="OpenAdapter12" PURGE="0" COMMENT="" />
    <EXPORT ORDINAL="287" NAME="OpenShimInterface" PURGE="0" COMMENT="" />
</LIBRARY>

