<?xml version="1.0" encoding="UTF-8"?>
<LIBRARY NAME="cefsharp.core.runtime.dll" PATH="/DLLArchive/etc/CefSharp.Core.Runtime.dll" DATE="Fri Dec 10 02:14:08 PST 2021" VERSION="90.6.50">
    <EXPORT ORDINAL="1" NAME="?DoClose@ClientAdapter@Internals@CefSharp@@UEAA_NV?$scoped_refptr@VCefBrowser@@@@@Z" PURGE="-1" COMMENT="" />
    <EXPORT ORDINAL="2" NAME="?GetAccessibilityHandler@RenderClientAdapter@Internals@CefSharp@@UEAA?AV?$scoped_refptr@VCefAccessibilityHandler@@@@XZ" PURGE="-1" COMMENT="" />
    <EXPORT ORDINAL="3" NAME="?GetAudioHandler@ClientAdapter@Internals@CefSharp@@UEAA?AV?$scoped_refptr@VCefAudioHandler@@@@XZ" PURGE="-1" COMMENT="" />
    <EXPORT ORDINAL="4" NAME="?GetAudioParameters@ClientAdapter@Internals@CefSharp@@UEAA_NV?$scoped_refptr@VCefBrowser@@@@AEAV?$CefStructBase@UCefAudioParametersTraits@@@@@Z" PURGE="-1" COMMENT="" />
    <EXPORT ORDINAL="5" NAME="?GetAuthCredentials@ClientAdapter@Internals@CefSharp@@UEAA_NV?$scoped_refptr@VCefBrowser@@@@AEBV?$CefStringBase@UCefStringTraitsUTF16@@@@_N1H11V?$scoped_refptr@VCefAuthCallback@@@@@Z" PURGE="-1" COMMENT="" />
    <EXPORT ORDINAL="6" NAME="?GetContextMenuHandler@ClientAdapter@Internals@CefSharp@@UEAA?AV?$scoped_refptr@VCefContextMenuHandler@@@@XZ" PURGE="-1" COMMENT="" />
    <EXPORT ORDINAL="7" NAME="?GetDialogHandler@ClientAdapter@Internals@CefSharp@@UEAA?AV?$scoped_refptr@VCefDialogHandler@@@@XZ" PURGE="-1" COMMENT="" />
    <EXPORT ORDINAL="8" NAME="?GetDisplayHandler@ClientAdapter@Internals@CefSharp@@UEAA?AV?$scoped_refptr@VCefDisplayHandler@@@@XZ" PURGE="-1" COMMENT="" />
    <EXPORT ORDINAL="9" NAME="?GetDownloadHandler@ClientAdapter@Internals@CefSharp@@UEAA?AV?$scoped_refptr@VCefDownloadHandler@@@@XZ" PURGE="-1" COMMENT="" />
    <EXPORT ORDINAL="10" NAME="?GetDragHandler@ClientAdapter@Internals@CefSharp@@UEAA?AV?$scoped_refptr@VCefDragHandler@@@@XZ" PURGE="-1" COMMENT="" />
    <EXPORT ORDINAL="11" NAME="?GetFindHandler@ClientAdapter@Internals@CefSharp@@UEAA?AV?$scoped_refptr@VCefFindHandler@@@@XZ" PURGE="-1" COMMENT="" />
    <EXPORT ORDINAL="12" NAME="?GetFocusHandler@ClientAdapter@Internals@CefSharp@@UEAA?AV?$scoped_refptr@VCefFocusHandler@@@@XZ" PURGE="-1" COMMENT="" />
    <EXPORT ORDINAL="13" NAME="?GetJSDialogHandler@ClientAdapter@Internals@CefSharp@@UEAA?AV?$scoped_refptr@VCefJSDialogHandler@@@@XZ" PURGE="-1" COMMENT="" />
    <EXPORT ORDINAL="14" NAME="?GetKeyboardHandler@ClientAdapter@Internals@CefSharp@@UEAA?AV?$scoped_refptr@VCefKeyboardHandler@@@@XZ" PURGE="-1" COMMENT="" />
    <EXPORT ORDINAL="15" NAME="?GetLifeSpanHandler@ClientAdapter@Internals@CefSharp@@UEAA?AV?$scoped_refptr@VCefLifeSpanHandler@@@@XZ" PURGE="-1" COMMENT="" />
    <EXPORT ORDINAL="16" NAME="?GetLoadHandler@ClientAdapter@Internals@CefSharp@@UEAA?AV?$scoped_refptr@VCefLoadHandler@@@@XZ" PURGE="-1" COMMENT="" />
    <EXPORT ORDINAL="17" NAME="?GetRenderHandler@RenderClientAdapter@Internals@CefSharp@@UEAA?AV?$scoped_refptr@VCefRenderHandler@@@@XZ" PURGE="-1" COMMENT="" />
    <EXPORT ORDINAL="18" NAME="?GetRequestHandler@ClientAdapter@Internals@CefSharp@@UEAA?AV?$scoped_refptr@VCefRequestHandler@@@@XZ" PURGE="-1" COMMENT="" />
    <EXPORT ORDINAL="19" NAME="?GetResourceRequestHandler@ClientAdapter@Internals@CefSharp@@UEAA?AV?$scoped_refptr@VCefResourceRequestHandler@@@@V?$scoped_refptr@VCefBrowser@@@@V?$scoped_refptr@VCefFrame@@@@V?$scoped_refptr@VCefRequest@@@@_N3AEBV?$CefStringBase@UCefStringTraitsUTF16@@@@AEA_N@Z" PURGE="-1" COMMENT="" />
    <EXPORT ORDINAL="20" NAME="?GetScreenInfo@RenderClientAdapter@Internals@CefSharp@@UEAA_NV?$scoped_refptr@VCefBrowser@@@@AEAVCefScreenInfo@@@Z" PURGE="-1" COMMENT="" />
    <EXPORT ORDINAL="21" NAME="?GetScreenPoint@RenderClientAdapter@Internals@CefSharp@@UEAA_NV?$scoped_refptr@VCefBrowser@@@@HHAEAH1@Z" PURGE="-1" COMMENT="" />
    <EXPORT ORDINAL="22" NAME="?GetViewRect@RenderClientAdapter@Internals@CefSharp@@UEAAXV?$scoped_refptr@VCefBrowser@@@@AEAVCefRect@@@Z" PURGE="-1" COMMENT="" />
    <EXPORT ORDINAL="23" NAME="?InternalCursorChange@ClientAdapter@Internals@CefSharp@@UEAAXV?$scoped_refptr@VCefBrowser@@@@PEAUHICON__@@W4cef_cursor_type_t@@AEBV?$CefStructBase@UCefCursorInfoTraits@@@@@Z" PURGE="-1" COMMENT="" />
    <EXPORT ORDINAL="24" NAME="?InternalCursorChange@RenderClientAdapter@Internals@CefSharp@@UEAAXV?$scoped_refptr@VCefBrowser@@@@PEAUHICON__@@W4cef_cursor_type_t@@AEBV?$CefStructBase@UCefCursorInfoTraits@@@@@Z" PURGE="-1" COMMENT="" />
    <EXPORT ORDINAL="25" NAME="?OnAcceleratedPaint@RenderClientAdapter@Internals@CefSharp@@UEAAXV?$scoped_refptr@VCefBrowser@@@@W4cef_paint_element_type_t@@AEBV?$vector@VCefRect@@V?$allocator@VCefRect@@@std@@@std@@PEAX@Z" PURGE="-1" COMMENT="" />
    <EXPORT ORDINAL="26" NAME="?OnAccessibilityLocationChange@RenderClientAdapter@Internals@CefSharp@@UEAAXV?$scoped_refptr@VCefValue@@@@@Z" PURGE="-1" COMMENT="" />
    <EXPORT ORDINAL="27" NAME="?OnAccessibilityTreeChange@RenderClientAdapter@Internals@CefSharp@@UEAAXV?$scoped_refptr@VCefValue@@@@@Z" PURGE="-1" COMMENT="" />
    <EXPORT ORDINAL="28" NAME="?OnAddressChange@ClientAdapter@Internals@CefSharp@@UEAAXV?$scoped_refptr@VCefBrowser@@@@V?$scoped_refptr@VCefFrame@@@@AEBV?$CefStringBase@UCefStringTraitsUTF16@@@@@Z" PURGE="-1" COMMENT="" />
    <EXPORT ORDINAL="29" NAME="?OnAfterCreated@ClientAdapter@Internals@CefSharp@@UEAAXV?$scoped_refptr@VCefBrowser@@@@@Z" PURGE="-1" COMMENT="" />
    <EXPORT ORDINAL="30" NAME="?OnAudioStreamError@ClientAdapter@Internals@CefSharp@@UEAAXV?$scoped_refptr@VCefBrowser@@@@AEBV?$CefStringBase@UCefStringTraitsUTF16@@@@@Z" PURGE="-1" COMMENT="" />
    <EXPORT ORDINAL="31" NAME="?OnAudioStreamPacket@ClientAdapter@Internals@CefSharp@@UEAAXV?$scoped_refptr@VCefBrowser@@@@PEAPEBMH_J@Z" PURGE="-1" COMMENT="" />
    <EXPORT ORDINAL="32" NAME="?OnAudioStreamStarted@ClientAdapter@Internals@CefSharp@@UEAAXV?$scoped_refptr@VCefBrowser@@@@AEBV?$CefStructBase@UCefAudioParametersTraits@@@@H@Z" PURGE="-1" COMMENT="" />
    <EXPORT ORDINAL="33" NAME="?OnAudioStreamStopped@ClientAdapter@Internals@CefSharp@@UEAAXV?$scoped_refptr@VCefBrowser@@@@@Z" PURGE="-1" COMMENT="" />
    <EXPORT ORDINAL="34" NAME="?OnAutoResize@ClientAdapter@Internals@CefSharp@@UEAA_NV?$scoped_refptr@VCefBrowser@@@@AEBVCefSize@@@Z" PURGE="-1" COMMENT="" />
    <EXPORT ORDINAL="35" NAME="?OnBeforeBrowse@ClientAdapter@Internals@CefSharp@@UEAA_NV?$scoped_refptr@VCefBrowser@@@@V?$scoped_refptr@VCefFrame@@@@V?$scoped_refptr@VCefRequest@@@@_N3@Z" PURGE="-1" COMMENT="" />
    <EXPORT ORDINAL="36" NAME="?OnBeforeClose@ClientAdapter@Internals@CefSharp@@UEAAXV?$scoped_refptr@VCefBrowser@@@@@Z" PURGE="-1" COMMENT="" />
    <EXPORT ORDINAL="37" NAME="?OnBeforeContextMenu@ClientAdapter@Internals@CefSharp@@UEAAXV?$scoped_refptr@VCefBrowser@@@@V?$scoped_refptr@VCefFrame@@@@V?$scoped_refptr@VCefContextMenuParams@@@@V?$scoped_refptr@VCefMenuModel@@@@@Z" PURGE="-1" COMMENT="" />
    <EXPORT ORDINAL="38" NAME="?OnBeforeDownload@ClientAdapter@Internals@CefSharp@@UEAAXV?$scoped_refptr@VCefBrowser@@@@V?$scoped_refptr@VCefDownloadItem@@@@AEBV?$CefStringBase@UCefStringTraitsUTF16@@@@V?$scoped_refptr@VCefBeforeDownloadCallback@@@@@Z" PURGE="-1" COMMENT="" />
    <EXPORT ORDINAL="39" NAME="?OnBeforePopup@ClientAdapter@Internals@CefSharp@@UEAA_NV?$scoped_refptr@VCefBrowser@@@@V?$scoped_refptr@VCefFrame@@@@AEBV?$CefStringBase@UCefStringTraitsUTF16@@@@2W4cef_window_open_disposition_t@@_NAEBV?$CefStructBase@UCefPopupFeaturesTraits@@@@AEAVCefWindowInfo@@AEAV?$scoped_refptr@VCefClient@@@@AEAV?$CefStructBase@UCefBrowserSettingsTraits@@@@AEAV?$scoped_refptr@VCefDictionaryValue@@@@PEA_N@Z" PURGE="-1" COMMENT="" />
    <EXPORT ORDINAL="40" NAME="?OnBeforeUnloadDialog@ClientAdapter@Internals@CefSharp@@UEAA_NV?$scoped_refptr@VCefBrowser@@@@AEBV?$CefStringBase@UCefStringTraitsUTF16@@@@_NV?$scoped_refptr@VCefJSDialogCallback@@@@@Z" PURGE="-1" COMMENT="" />
    <EXPORT ORDINAL="41" NAME="?OnCertificateError@ClientAdapter@Internals@CefSharp@@UEAA_NV?$scoped_refptr@VCefBrowser@@@@W4cef_errorcode_t@@AEBV?$CefStringBase@UCefStringTraitsUTF16@@@@V?$scoped_refptr@VCefSSLInfo@@@@V?$scoped_refptr@VCefRequestCallback@@@@@Z" PURGE="-1" COMMENT="" />
    <EXPORT ORDINAL="42" NAME="?OnConsoleMessage@ClientAdapter@Internals@CefSharp@@UEAA_NV?$scoped_refptr@VCefBrowser@@@@W4cef_log_severity_t@@AEBV?$CefStringBase@UCefStringTraitsUTF16@@@@2H@Z" PURGE="-1" COMMENT="" />
    <EXPORT ORDINAL="43" NAME="?OnContextMenuCommand@ClientAdapter@Internals@CefSharp@@UEAA_NV?$scoped_refptr@VCefBrowser@@@@V?$scoped_refptr@VCefFrame@@@@V?$scoped_refptr@VCefContextMenuParams@@@@HW4cef_event_flags_t@@@Z" PURGE="-1" COMMENT="" />
    <EXPORT ORDINAL="44" NAME="?OnContextMenuDismissed@ClientAdapter@Internals@CefSharp@@UEAAXV?$scoped_refptr@VCefBrowser@@@@V?$scoped_refptr@VCefFrame@@@@@Z" PURGE="-1" COMMENT="" />
    <EXPORT ORDINAL="45" NAME="?OnCursorChange@ClientAdapter@Internals@CefSharp@@UEAA_NV?$scoped_refptr@VCefBrowser@@@@PEAUHICON__@@W4cef_cursor_type_t@@AEBV?$CefStructBase@UCefCursorInfoTraits@@@@@Z" PURGE="-1" COMMENT="" />
    <EXPORT ORDINAL="46" NAME="?OnDialogClosed@ClientAdapter@Internals@CefSharp@@UEAAXV?$scoped_refptr@VCefBrowser@@@@@Z" PURGE="-1" COMMENT="" />
    <EXPORT ORDINAL="47" NAME="?OnDocumentAvailableInMainFrame@ClientAdapter@Internals@CefSharp@@UEAAXV?$scoped_refptr@VCefBrowser@@@@@Z" PURGE="-1" COMMENT="" />
    <EXPORT ORDINAL="48" NAME="?OnDownloadUpdated@ClientAdapter@Internals@CefSharp@@UEAAXV?$scoped_refptr@VCefBrowser@@@@V?$scoped_refptr@VCefDownloadItem@@@@V?$scoped_refptr@VCefDownloadItemCallback@@@@@Z" PURGE="-1" COMMENT="" />
    <EXPORT ORDINAL="49" NAME="?OnDragEnter@ClientAdapter@Internals@CefSharp@@UEAA_NV?$scoped_refptr@VCefBrowser@@@@V?$scoped_refptr@VCefDragData@@@@W4cef_drag_operations_mask_t@@@Z" PURGE="-1" COMMENT="" />
    <EXPORT ORDINAL="50" NAME="?OnDraggableRegionsChanged@ClientAdapter@Internals@CefSharp@@UEAAXV?$scoped_refptr@VCefBrowser@@@@V?$scoped_refptr@VCefFrame@@@@AEBV?$vector@VCefDraggableRegion@@V?$allocator@VCefDraggableRegion@@@std@@@std@@@Z" PURGE="-1" COMMENT="" />
    <EXPORT ORDINAL="51" NAME="?OnFaviconURLChange@ClientAdapter@Internals@CefSharp@@UEAAXV?$scoped_refptr@VCefBrowser@@@@AEBV?$vector@V?$CefStringBase@UCefStringTraitsUTF16@@@@V?$allocator@V?$CefStringBase@UCefStringTraitsUTF16@@@@@std@@@std@@@Z" PURGE="-1" COMMENT="" />
    <EXPORT ORDINAL="52" NAME="?OnFileDialog@ClientAdapter@Internals@CefSharp@@UEAA_NV?$scoped_refptr@VCefBrowser@@@@W4cef_file_dialog_mode_t@@AEBV?$CefStringBase@UCefStringTraitsUTF16@@@@2AEBV?$vector@V?$CefStringBase@UCefStringTraitsUTF16@@@@V?$allocator@V?$CefStringBase@UCefStringTraitsUTF16@@@@@std@@@std@@HV?$scoped_refptr@VCefFileDialogCallback@@@@@Z" PURGE="-1" COMMENT="" />
    <EXPORT ORDINAL="53" NAME="?OnFindResult@ClientAdapter@Internals@CefSharp@@UEAAXV?$scoped_refptr@VCefBrowser@@@@HHAEBVCefRect@@H_N@Z" PURGE="-1" COMMENT="" />
    <EXPORT ORDINAL="54" NAME="?OnFullscreenModeChange@ClientAdapter@Internals@CefSharp@@UEAAXV?$scoped_refptr@VCefBrowser@@@@_N@Z" PURGE="-1" COMMENT="" />
    <EXPORT ORDINAL="55" NAME="?OnGotFocus@ClientAdapter@Internals@CefSharp@@UEAAXV?$scoped_refptr@VCefBrowser@@@@@Z" PURGE="-1" COMMENT="" />
    <EXPORT ORDINAL="56" NAME="?OnImeCompositionRangeChanged@RenderClientAdapter@Internals@CefSharp@@UEAAXV?$scoped_refptr@VCefBrowser@@@@AEBVCefRange@@AEBV?$vector@VCefRect@@V?$allocator@VCefRect@@@std@@@std@@@Z" PURGE="-1" COMMENT="" />
    <EXPORT ORDINAL="57" NAME="?OnJSDialog@ClientAdapter@Internals@CefSharp@@UEAA_NV?$scoped_refptr@VCefBrowser@@@@AEBV?$CefStringBase@UCefStringTraitsUTF16@@@@W4cef_jsdialog_type_t@@11V?$scoped_refptr@VCefJSDialogCallback@@@@AEA_N@Z" PURGE="-1" COMMENT="" />
    <EXPORT ORDINAL="58" NAME="?OnKeyEvent@ClientAdapter@Internals@CefSharp@@UEAA_NV?$scoped_refptr@VCefBrowser@@@@AEBV?$CefStructBase@UCefKeyEventTraits@@@@PEAUtagMSG@@@Z" PURGE="-1" COMMENT="" />
    <EXPORT ORDINAL="59" NAME="?OnLoadEnd@ClientAdapter@Internals@CefSharp@@UEAAXV?$scoped_refptr@VCefBrowser@@@@V?$scoped_refptr@VCefFrame@@@@H@Z" PURGE="-1" COMMENT="" />
    <EXPORT ORDINAL="60" NAME="?OnLoadError@ClientAdapter@Internals@CefSharp@@UEAAXV?$scoped_refptr@VCefBrowser@@@@V?$scoped_refptr@VCefFrame@@@@W4cef_errorcode_t@@AEBV?$CefStringBase@UCefStringTraitsUTF16@@@@3@Z" PURGE="-1" COMMENT="" />
    <EXPORT ORDINAL="61" NAME="?OnLoadStart@ClientAdapter@Internals@CefSharp@@UEAAXV?$scoped_refptr@VCefBrowser@@@@V?$scoped_refptr@VCefFrame@@@@W4cef_transition_type_t@@@Z" PURGE="-1" COMMENT="" />
    <EXPORT ORDINAL="62" NAME="?OnLoadingProgressChange@ClientAdapter@Internals@CefSharp@@UEAAXV?$scoped_refptr@VCefBrowser@@@@N@Z" PURGE="-1" COMMENT="" />
    <EXPORT ORDINAL="63" NAME="?OnLoadingStateChange@ClientAdapter@Internals@CefSharp@@UEAAXV?$scoped_refptr@VCefBrowser@@@@_N11@Z" PURGE="-1" COMMENT="" />
    <EXPORT ORDINAL="64" NAME="?OnOpenURLFromTab@ClientAdapter@Internals@CefSharp@@UEAA_NV?$scoped_refptr@VCefBrowser@@@@V?$scoped_refptr@VCefFrame@@@@AEBV?$CefStringBase@UCefStringTraitsUTF16@@@@W4cef_window_open_disposition_t@@_N@Z" PURGE="-1" COMMENT="" />
    <EXPORT ORDINAL="65" NAME="?OnPaint@RenderClientAdapter@Internals@CefSharp@@UEAAXV?$scoped_refptr@VCefBrowser@@@@W4cef_paint_element_type_t@@AEBV?$vector@VCefRect@@V?$allocator@VCefRect@@@std@@@std@@PEBXHH@Z" PURGE="-1" COMMENT="" />
    <EXPORT ORDINAL="66" NAME="?OnPluginCrashed@ClientAdapter@Internals@CefSharp@@UEAAXV?$scoped_refptr@VCefBrowser@@@@AEBV?$CefStringBase@UCefStringTraitsUTF16@@@@@Z" PURGE="-1" COMMENT="" />
    <EXPORT ORDINAL="67" NAME="?OnPopupShow@RenderClientAdapter@Internals@CefSharp@@UEAAXV?$scoped_refptr@VCefBrowser@@@@_N@Z" PURGE="-1" COMMENT="" />
    <EXPORT ORDINAL="68" NAME="?OnPopupSize@RenderClientAdapter@Internals@CefSharp@@UEAAXV?$scoped_refptr@VCefBrowser@@@@AEBVCefRect@@@Z" PURGE="-1" COMMENT="" />
    <EXPORT ORDINAL="69" NAME="?OnPreKeyEvent@ClientAdapter@Internals@CefSharp@@UEAA_NV?$scoped_refptr@VCefBrowser@@@@AEBV?$CefStructBase@UCefKeyEventTraits@@@@PEAUtagMSG@@PEA_N@Z" PURGE="-1" COMMENT="" />
    <EXPORT ORDINAL="70" NAME="?OnProcessMessageReceived@ClientAdapter@Internals@CefSharp@@UEAA_NV?$scoped_refptr@VCefBrowser@@@@V?$scoped_refptr@VCefFrame@@@@W4cef_process_id_t@@V?$scoped_refptr@VCefProcessMessage@@@@@Z" PURGE="-1" COMMENT="" />
    <EXPORT ORDINAL="71" NAME="?OnQuotaRequest@ClientAdapter@Internals@CefSharp@@UEAA_NV?$scoped_refptr@VCefBrowser@@@@AEBV?$CefStringBase@UCefStringTraitsUTF16@@@@_JV?$scoped_refptr@VCefRequestCallback@@@@@Z" PURGE="-1" COMMENT="" />
    <EXPORT ORDINAL="72" NAME="?OnRenderProcessTerminated@ClientAdapter@Internals@CefSharp@@UEAAXV?$scoped_refptr@VCefBrowser@@@@W4cef_termination_status_t@@@Z" PURGE="-1" COMMENT="" />
    <EXPORT ORDINAL="73" NAME="?OnRenderViewReady@ClientAdapter@Internals@CefSharp@@UEAAXV?$scoped_refptr@VCefBrowser@@@@@Z" PURGE="-1" COMMENT="" />
    <EXPORT ORDINAL="74" NAME="?OnResetDialogState@ClientAdapter@Internals@CefSharp@@UEAAXV?$scoped_refptr@VCefBrowser@@@@@Z" PURGE="-1" COMMENT="" />
    <EXPORT ORDINAL="75" NAME="?OnSelectClientCertificate@ClientAdapter@Internals@CefSharp@@UEAA_NV?$scoped_refptr@VCefBrowser@@@@_NAEBV?$CefStringBase@UCefStringTraitsUTF16@@@@HAEBV?$vector@V?$scoped_refptr@VCefX509Certificate@@@@V?$allocator@V?$scoped_refptr@VCefX509Certificate@@@@@std@@@std@@V?$scoped_refptr@VCefSelectClientCertificateCallback@@@@@Z" PURGE="-1" COMMENT="" />
    <EXPORT ORDINAL="76" NAME="?OnSetFocus@ClientAdapter@Internals@CefSharp@@UEAA_NV?$scoped_refptr@VCefBrowser@@@@W4cef_focus_source_t@@@Z" PURGE="-1" COMMENT="" />
    <EXPORT ORDINAL="77" NAME="?OnStatusMessage@ClientAdapter@Internals@CefSharp@@UEAAXV?$scoped_refptr@VCefBrowser@@@@AEBV?$CefStringBase@UCefStringTraitsUTF16@@@@@Z" PURGE="-1" COMMENT="" />
    <EXPORT ORDINAL="78" NAME="?OnTakeFocus@ClientAdapter@Internals@CefSharp@@UEAAXV?$scoped_refptr@VCefBrowser@@@@_N@Z" PURGE="-1" COMMENT="" />
    <EXPORT ORDINAL="79" NAME="?OnTitleChange@ClientAdapter@Internals@CefSharp@@UEAAXV?$scoped_refptr@VCefBrowser@@@@AEBV?$CefStringBase@UCefStringTraitsUTF16@@@@@Z" PURGE="-1" COMMENT="" />
    <EXPORT ORDINAL="80" NAME="?OnTooltip@ClientAdapter@Internals@CefSharp@@UEAA_NV?$scoped_refptr@VCefBrowser@@@@AEAV?$CefStringBase@UCefStringTraitsUTF16@@@@@Z" PURGE="-1" COMMENT="" />
    <EXPORT ORDINAL="81" NAME="?OnVirtualKeyboardRequested@RenderClientAdapter@Internals@CefSharp@@UEAAXV?$scoped_refptr@VCefBrowser@@@@W4cef_text_input_mode_t@@@Z" PURGE="-1" COMMENT="" />
    <EXPORT ORDINAL="82" NAME="?RunContextMenu@ClientAdapter@Internals@CefSharp@@UEAA_NV?$scoped_refptr@VCefBrowser@@@@V?$scoped_refptr@VCefFrame@@@@V?$scoped_refptr@VCefContextMenuParams@@@@V?$scoped_refptr@VCefMenuModel@@@@V?$scoped_refptr@VCefRunContextMenuCallback@@@@@Z" PURGE="-1" COMMENT="" />
    <EXPORT ORDINAL="83" NAME="?StartDragging@RenderClientAdapter@Internals@CefSharp@@UEAA_NV?$scoped_refptr@VCefBrowser@@@@V?$scoped_refptr@VCefDragData@@@@W4cef_drag_operations_mask_t@@HH@Z" PURGE="-1" COMMENT="" />
    <EXPORT ORDINAL="84" NAME="?UpdateDragCursor@RenderClientAdapter@Internals@CefSharp@@UEAAXV?$scoped_refptr@VCefBrowser@@@@W4cef_drag_operations_mask_t@@@Z" PURGE="-1" COMMENT="" />
</LIBRARY>

